; Listing generated by Microsoft (R) Optimizing Compiler Version 19.29.30145.0 

	TITLE	D:\git\src\IBK\IBK_DRFN\#DRfn-CS\_Obj\AnalysisTool\DlgFiboSet.obj
	.686P
	.XMM
	include listing.inc
	.model	flat

INCLUDELIB MSVCRT
INCLUDELIB OLDNAMES

PUBLIC	?g_strRatio@@3PAY0CA@DA				; g_strRatio
PUBLIC	?g_strRatioTime@@3PAY0CA@DA			; g_strRatioTime
PUBLIC	?g_strRatioOther@@3PAY0CA@DA			; g_strRatioOther
_DATA	SEGMENT
?g_strRatio@@3PAY0CA@DA DB 'All', 00H			; g_strRatio
	ORG $+28
	DB	00H
	ORG $+31
	DB	00H
	ORG $+31
	DB	00H
	ORG $+31
	DB	00H
	ORG $+31
	DB	00H
	ORG $+31
	DB	00H
	ORG $+31
	DB	00H
	ORG $+31
	DB	00H
	ORG $+31
	DB	00H
	ORG $+31
	DB	00H
	ORG $+31
	DB	00H
	ORG $+31
?g_strRatioTime@@3PAY0CA@DA DB 'All', 00H		; g_strRatioTime
	ORG $+28
	DB	'0', 00H
	ORG $+30
	DB	'1', 00H
	ORG $+30
	DB	'2', 00H
	ORG $+30
	DB	'3', 00H
	ORG $+30
	DB	'5', 00H
	ORG $+30
	DB	'8', 00H
	ORG $+30
	DB	'13', 00H
	ORG $+29
	DB	'21', 00H
	ORG $+29
	DB	'34', 00H
	ORG $+29
	DB	'55', 00H
	ORG $+29
	DB	'89', 00H
	ORG $+29
?g_strRatioOther@@3PAY0CA@DA DB 'All', 00H		; g_strRatioOther
	ORG $+28
	DB	'0', 00H
	ORG $+30
	DB	'236', 00H
	ORG $+28
	DB	'382', 00H
	ORG $+28
	DB	'500', 00H
	ORG $+28
	DB	'618', 00H
	ORG $+28
	DB	'786', 00H
	ORG $+28
	DB	'1000', 00H
	ORG $+27
	DB	'1272', 00H
	ORG $+27
	DB	'1618', 00H
	ORG $+27
	DB	'2000', 00H
	ORG $+27
	DB	'2618', 00H
	ORG $+27
_DATA	ENDS
PUBLIC	?__empty_global_delete@@YAXPAX@Z		; __empty_global_delete
PUBLIC	?__empty_global_delete@@YAXPAXI@Z		; __empty_global_delete
PUBLIC	??1CObject@@UAE@XZ				; CObject::~CObject
PUBLIC	?Serialize@CObject@@UAEXAAVCArchive@@@Z		; CObject::Serialize
PUBLIC	?AssertValid@CObject@@UBEXXZ			; CObject::AssertValid
PUBLIC	?Dump@CObject@@UBEXAAVCDumpContext@@@Z		; CObject::Dump
PUBLIC	?AtlThrowImpl@ATL@@YGXJ@Z			; ATL::AtlThrowImpl
PUBLIC	??1CGdiObject@@UAE@XZ				; CGdiObject::~CGdiObject
PUBLIC	??_GCGdiObject@@UAEPAXI@Z			; CGdiObject::`scalar deleting destructor'
PUBLIC	??1CBitmap@@UAE@XZ				; CBitmap::~CBitmap
PUBLIC	??_GCBitmap@@UAEPAXI@Z				; CBitmap::`scalar deleting destructor'
PUBLIC	?DoDataExchange@CWnd@@MAEXPAVCDataExchange@@@Z	; CWnd::DoDataExchange
PUBLIC	?BeginModalState@CWnd@@UAEXXZ			; CWnd::BeginModalState
PUBLIC	?EndModalState@CWnd@@UAEXXZ			; CWnd::EndModalState
PUBLIC	?Create@CDialog@@UAEHIPAVCWnd@@@Z		; CDialog::Create
PUBLIC	??_GCButton@@UAEPAXI@Z				; CButton::`scalar deleting destructor'
PUBLIC	??_GCEdit@@UAEPAXI@Z				; CEdit::`scalar deleting destructor'
PUBLIC	??1CCommonDialog@@UAE@XZ			; CCommonDialog::~CCommonDialog
PUBLIC	??_GCCommonDialog@@UAEPAXI@Z			; CCommonDialog::`scalar deleting destructor'
PUBLIC	??1CColorDialog@@UAE@XZ				; CColorDialog::~CColorDialog
PUBLIC	??_GCDateTimeCtrl@@UAEPAXI@Z			; CDateTimeCtrl::`scalar deleting destructor'
PUBLIC	??0exception@std@@QAE@ABV01@@Z			; std::exception::exception
PUBLIC	??1exception@std@@UAE@XZ			; std::exception::~exception
PUBLIC	?what@exception@std@@UBEPBDXZ			; std::exception::what
PUBLIC	??_Gexception@std@@UAEPAXI@Z			; std::exception::`scalar deleting destructor'
PUBLIC	??0bad_alloc@std@@QAE@ABV01@@Z			; std::bad_alloc::bad_alloc
PUBLIC	??_Gbad_alloc@std@@UAEPAXI@Z			; std::bad_alloc::`scalar deleting destructor'
PUBLIC	??0bad_array_new_length@std@@QAE@XZ		; std::bad_array_new_length::bad_array_new_length
PUBLIC	??1bad_array_new_length@std@@UAE@XZ		; std::bad_array_new_length::~bad_array_new_length
PUBLIC	??0bad_array_new_length@std@@QAE@ABV01@@Z	; std::bad_array_new_length::bad_array_new_length
PUBLIC	??_Gbad_array_new_length@std@@UAEPAXI@Z		; std::bad_array_new_length::`scalar deleting destructor'
PUBLIC	?_Throw_bad_array_new_length@std@@YAXXZ		; std::_Throw_bad_array_new_length
PUBLIC	??1CColorButton@@UAE@XZ				; CColorButton::~CColorButton
PUBLIC	?_Xlen@?$deque@PAVCCoordinate@@V?$allocator@PAVCCoordinate@@@std@@@std@@ABEXXZ ; std::deque<CCoordinate *,std::allocator<CCoordinate *> >::_Xlen
PUBLIC	?_Growmap@?$deque@PAVCCoordinate@@V?$allocator@PAVCCoordinate@@@std@@@std@@AAEXI@Z ; std::deque<CCoordinate *,std::allocator<CCoordinate *> >::_Growmap
PUBLIC	?_Tidy@?$deque@PAVCCoordinate@@V?$allocator@PAVCCoordinate@@@std@@@std@@AAEXXZ ; std::deque<CCoordinate *,std::allocator<CCoordinate *> >::_Tidy
PUBLIC	??1CElementPointList@@QAE@XZ			; CElementPointList::~CElementPointList
PUBLIC	??0CElementPointList@@QAE@ABV0@@Z		; CElementPointList::CElementPointList
PUBLIC	??1CBitmapComboBox@@UAE@XZ			; CBitmapComboBox::~CBitmapComboBox
PUBLIC	??1tagST_ANALYSIS_TOOL_INFO@@QAE@XZ		; tagST_ANALYSIS_TOOL_INFO::~tagST_ANALYSIS_TOOL_INFO
PUBLIC	??0CDlgFiboSet@@QAE@PAVCWnd@@ABV?$CStringT@DV?$StrTraitMFC_DLL@DV?$ChTraitsCRT@D@ATL@@@@@ATL@@ABW4HORZSCALEDRAWERTYPE@CScaleBaseData@@HPAH3PAVCTextPosition@@PAVCPenEnvironment@@PAVCElementPointList@@PAVCLineExtEnvironment@@PAVCDataTypeEnvironment@@PAUIChartOCX133101@@AAVCBlockIndex@@V23@@Z ; CDlgFiboSet::CDlgFiboSet
PUBLIC	?DoDataExchange@CDlgFiboSet@@MAEXPAVCDataExchange@@@Z ; CDlgFiboSet::DoDataExchange
PUBLIC	?OnInitDialog@CDlgFiboSet@@MAEHXZ		; CDlgFiboSet::OnInitDialog
PUBLIC	?OnColor@CDlgFiboSet@@IAEXXZ			; CDlgFiboSet::OnColor
PUBLIC	?OnApplyBt@CDlgFiboSet@@IAEXXZ			; CDlgFiboSet::OnApplyBt
PUBLIC	?OnSelchangeWidth@CDlgFiboSet@@IAEXXZ		; CDlgFiboSet::OnSelchangeWidth
PUBLIC	?OnSelchangeStyle@CDlgFiboSet@@IAEXXZ		; CDlgFiboSet::OnSelchangeStyle
PUBLIC	?OnDatetimechangeDatetimepickerXdate1@CDlgFiboSet@@IAEXPAUtagNMHDR@@PAJ@Z ; CDlgFiboSet::OnDatetimechangeDatetimepickerXdate1
PUBLIC	?OnDatetimechangeDatetimepickerXdate2@CDlgFiboSet@@IAEXPAUtagNMHDR@@PAJ@Z ; CDlgFiboSet::OnDatetimechangeDatetimepickerXdate2
PUBLIC	?OnDatetimechangeDatetimepickerXdate3@CDlgFiboSet@@IAEXPAUtagNMHDR@@PAJ@Z ; CDlgFiboSet::OnDatetimechangeDatetimepickerXdate3
PUBLIC	?OnCancelBt@CDlgFiboSet@@IAEXXZ			; CDlgFiboSet::OnCancelBt
PUBLIC	?OnOkBt@CDlgFiboSet@@IAEXXZ			; CDlgFiboSet::OnOkBt
PUBLIC	?OnCheck@CDlgFiboSet@@IAEXI@Z			; CDlgFiboSet::OnCheck
PUBLIC	?GetThisMessageMap@CDlgFiboSet@@KGPBUAFX_MSGMAP@@XZ ; CDlgFiboSet::GetThisMessageMap
PUBLIC	?GetMessageMap@CDlgFiboSet@@MBEPBUAFX_MSGMAP@@XZ ; CDlgFiboSet::GetMessageMap
PUBLIC	?InitializeData@CDlgFiboSet@@IAEXXZ		; CDlgFiboSet::InitializeData
PUBLIC	?ApplyData@CDlgFiboSet@@IAEXXZ			; CDlgFiboSet::ApplyData
PUBLIC	?ApplyOrgData@CDlgFiboSet@@IAEXXZ		; CDlgFiboSet::ApplyOrgData
PUBLIC	?SaveData@CDlgFiboSet@@IAEXXZ			; CDlgFiboSet::SaveData
PUBLIC	?SetInitTextPosition@CDlgFiboSet@@IAEXPAVCTextPosition@@@Z ; CDlgFiboSet::SetInitTextPosition
PUBLIC	?SetYValue@CDlgFiboSet@@IAEXNH@Z		; CDlgFiboSet::SetYValue
PUBLIC	?SetXDateTime@CDlgFiboSet@@IAEXNH@Z		; CDlgFiboSet::SetXDateTime
PUBLIC	?GetCurrentPenEnvironment@CDlgFiboSet@@IBEPAVCPenEnvironment@@XZ ; CDlgFiboSet::GetCurrentPenEnvironment
PUBLIC	?InitializeData_Width@CDlgFiboSet@@AAEXXZ	; CDlgFiboSet::InitializeData_Width
PUBLIC	?InitializeData_Style@CDlgFiboSet@@AAEXXZ	; CDlgFiboSet::InitializeData_Style
PUBLIC	?SetPenEnvironment@CDlgFiboSet@@AAEXXZ		; CDlgFiboSet::SetPenEnvironment
PUBLIC	?SetColor@CDlgFiboSet@@AAEXABK@Z		; CDlgFiboSet::SetColor
PUBLIC	?SetTextPosition@CDlgFiboSet@@AAEXXZ		; CDlgFiboSet::SetTextPosition
PUBLIC	?SetTextPosition@CDlgFiboSet@@AAEX_N@Z		; CDlgFiboSet::SetTextPosition
PUBLIC	?SetTextPosition@CDlgFiboSet@@AAEX_N0@Z		; CDlgFiboSet::SetTextPosition
PUBLIC	?SetTextPosition@CDlgFiboSet@@AAEX_N000@Z	; CDlgFiboSet::SetTextPosition
PUBLIC	?SetLineExtEnvironment@CDlgFiboSet@@AAEXXZ	; CDlgFiboSet::SetLineExtEnvironment
PUBLIC	?SetLineExtEnvironment@CDlgFiboSet@@AAEX_N0@Z	; CDlgFiboSet::SetLineExtEnvironment
PUBLIC	?SetDateValueLists@CDlgFiboSet@@AAEXXZ		; CDlgFiboSet::SetDateValueLists
PUBLIC	?GetTextPosition@CDlgFiboSet@@AAEPAVCTextPosition@@XZ ; CDlgFiboSet::GetTextPosition
PUBLIC	?GetOrgTextPosition@CDlgFiboSet@@AAEPAVCTextPosition@@XZ ; CDlgFiboSet::GetOrgTextPosition
PUBLIC	?GetLineExtEnvironment@CDlgFiboSet@@AAEPAVCLineExtEnvironment@@XZ ; CDlgFiboSet::GetLineExtEnvironment
PUBLIC	?GetOrgLineExtEnvironment@CDlgFiboSet@@AAEPAVCLineExtEnvironment@@XZ ; CDlgFiboSet::GetOrgLineExtEnvironment
PUBLIC	??_GCDlgFiboSet@@UAEPAXI@Z			; CDlgFiboSet::`scalar deleting destructor'
PUBLIC	?LoadResourceDLL@IMetaTable@@QAEPAUHINSTANCE__@@PAUHWND__@@PAU2@@Z ; IMetaTable::LoadResourceDLL
PUBLIC	??1CMultiLanguageResourceSetter@@QAE@XZ		; CMultiLanguageResourceSetter::~CMultiLanguageResourceSetter
PUBLIC	??1?$_Container_proxy_ptr12@V?$allocator@U_Container_proxy@std@@@std@@@std@@QAE@XZ ; std::_Container_proxy_ptr12<std::allocator<std::_Container_proxy> >::~_Container_proxy_ptr12<std::allocator<std::_Container_proxy> >
PUBLIC	??1?$_Tidy_guard@V?$deque@PAVCCoordinate@@V?$allocator@PAVCCoordinate@@@std@@@std@@@std@@QAE@XZ ; std::_Tidy_guard<std::deque<CCoordinate *,std::allocator<CCoordinate *> > >::~_Tidy_guard<std::deque<CCoordinate *,std::allocator<CCoordinate *> > >
PUBLIC	??$_Allocate_manually_vector_aligned@U_Default_allocate_traits@std@@@std@@YAPAXI@Z ; std::_Allocate_manually_vector_aligned<std::_Default_allocate_traits>
PUBLIC	??$uninitialized_copy@PAPAPAVCCoordinate@@PAPAPAV1@@std@@YAPAPAPAVCCoordinate@@QAPAPAV1@0PAPAPAV1@@Z ; std::uninitialized_copy<CCoordinate * * *,CCoordinate * * *>
PUBLIC	??$_Uninitialized_value_construct_n_unchecked1@PAPAPAVCCoordinate@@I@std@@YAPAPAPAVCCoordinate@@PAPAPAV1@I@Z ; std::_Uninitialized_value_construct_n_unchecked1<CCoordinate * * *,unsigned int>
PUBLIC	??$_Zero_range@PAPAPAVCCoordinate@@@std@@YAPAPAPAVCCoordinate@@QAPAPAV1@0@Z ; std::_Zero_range<CCoordinate * * *>
PUBLIC	??$_Copy_memmove@PAPAPAVCCoordinate@@PAPAPAV1@@std@@YAPAPAPAVCCoordinate@@PAPAPAV1@00@Z ; std::_Copy_memmove<CCoordinate * * *,CCoordinate * * *>
PUBLIC	??_R0PAVCException@@@8				; CException * `RTTI Type Descriptor'
PUBLIC	??_C@_02DPKJAMEF@?$CFd@				; `string'
PUBLIC	??_7CGdiObject@@6B@				; CGdiObject::`vftable'
PUBLIC	??_7CBitmap@@6B@				; CBitmap::`vftable'
PUBLIC	??_7CButton@@6B@				; CButton::`vftable'
PUBLIC	??_7CEdit@@6B@					; CEdit::`vftable'
PUBLIC	??_C@_0HD@JJCHHHNK@C?3?2Program?5Files?5?$CIx86?$CJ?2Microsof@ ; `string'
PUBLIC	??_C@_0BP@OIEOKIDM@Exception?5thrown?5in?5destructor@ ; `string'
PUBLIC	??_C@_0BB@HBOOMJBF@?$CFTs?5?$CI?$CFTs?3?$CFd?$CJ?6?$CFTs@ ; `string'
PUBLIC	??_C@_0N@OMEMOKLE@?$CFTs?5?$CI?$CFTs?3?$CFd?$CJ@ ; `string'
PUBLIC	??_7CCommonDialog@@6B@				; CCommonDialog::`vftable'
PUBLIC	??_7CDateTimeCtrl@@6B@				; CDateTimeCtrl::`vftable'
PUBLIC	??_R0?AVCObject@@@8				; CObject `RTTI Type Descriptor'
PUBLIC	??_R3CObject@@8					; CObject::`RTTI Class Hierarchy Descriptor'
PUBLIC	??_R2CObject@@8					; CObject::`RTTI Base Class Array'
PUBLIC	??_R1A@?0A@EA@CObject@@8			; CObject::`RTTI Base Class Descriptor at (0,-1,0,64)'
PUBLIC	??_R4CGdiObject@@6B@				; CGdiObject::`RTTI Complete Object Locator'
PUBLIC	??_R0?AVCGdiObject@@@8				; CGdiObject `RTTI Type Descriptor'
PUBLIC	??_R3CGdiObject@@8				; CGdiObject::`RTTI Class Hierarchy Descriptor'
PUBLIC	??_R2CGdiObject@@8				; CGdiObject::`RTTI Base Class Array'
PUBLIC	??_R1A@?0A@EA@CGdiObject@@8			; CGdiObject::`RTTI Base Class Descriptor at (0,-1,0,64)'
PUBLIC	??_R4CBitmap@@6B@				; CBitmap::`RTTI Complete Object Locator'
PUBLIC	??_R0?AVCBitmap@@@8				; CBitmap `RTTI Type Descriptor'
PUBLIC	??_R3CBitmap@@8					; CBitmap::`RTTI Class Hierarchy Descriptor'
PUBLIC	??_R2CBitmap@@8					; CBitmap::`RTTI Base Class Array'
PUBLIC	??_R1A@?0A@EA@CBitmap@@8			; CBitmap::`RTTI Base Class Descriptor at (0,-1,0,64)'
PUBLIC	??_R1A@?0A@EA@CWnd@@8				; CWnd::`RTTI Base Class Descriptor at (0,-1,0,64)'
PUBLIC	??_R0?AVCWnd@@@8				; CWnd `RTTI Type Descriptor'
PUBLIC	??_R3CWnd@@8					; CWnd::`RTTI Class Hierarchy Descriptor'
PUBLIC	??_R2CWnd@@8					; CWnd::`RTTI Base Class Array'
PUBLIC	??_R1A@?0A@EA@CCmdTarget@@8			; CCmdTarget::`RTTI Base Class Descriptor at (0,-1,0,64)'
PUBLIC	??_R0?AVCCmdTarget@@@8				; CCmdTarget `RTTI Type Descriptor'
PUBLIC	??_R3CCmdTarget@@8				; CCmdTarget::`RTTI Class Hierarchy Descriptor'
PUBLIC	??_R2CCmdTarget@@8				; CCmdTarget::`RTTI Base Class Array'
PUBLIC	??_R4CButton@@6B@				; CButton::`RTTI Complete Object Locator'
PUBLIC	??_R0?AVCButton@@@8				; CButton `RTTI Type Descriptor'
PUBLIC	??_R3CButton@@8					; CButton::`RTTI Class Hierarchy Descriptor'
PUBLIC	??_R2CButton@@8					; CButton::`RTTI Base Class Array'
PUBLIC	??_R1A@?0A@EA@CButton@@8			; CButton::`RTTI Base Class Descriptor at (0,-1,0,64)'
PUBLIC	??_R4CEdit@@6B@					; CEdit::`RTTI Complete Object Locator'
PUBLIC	??_R0?AVCEdit@@@8				; CEdit `RTTI Type Descriptor'
PUBLIC	??_R3CEdit@@8					; CEdit::`RTTI Class Hierarchy Descriptor'
PUBLIC	??_R2CEdit@@8					; CEdit::`RTTI Base Class Array'
PUBLIC	??_R1A@?0A@EA@CEdit@@8				; CEdit::`RTTI Base Class Descriptor at (0,-1,0,64)'
PUBLIC	??_R4CCommonDialog@@6B@				; CCommonDialog::`RTTI Complete Object Locator'
PUBLIC	??_R0?AVCCommonDialog@@@8			; CCommonDialog `RTTI Type Descriptor'
PUBLIC	??_R3CCommonDialog@@8				; CCommonDialog::`RTTI Class Hierarchy Descriptor'
PUBLIC	??_R2CCommonDialog@@8				; CCommonDialog::`RTTI Base Class Array'
PUBLIC	??_R1A@?0A@EA@CCommonDialog@@8			; CCommonDialog::`RTTI Base Class Descriptor at (0,-1,0,64)'
PUBLIC	??_R1A@?0A@EA@CDialog@@8			; CDialog::`RTTI Base Class Descriptor at (0,-1,0,64)'
PUBLIC	??_R0?AVCDialog@@@8				; CDialog `RTTI Type Descriptor'
PUBLIC	??_R3CDialog@@8					; CDialog::`RTTI Class Hierarchy Descriptor'
PUBLIC	??_R2CDialog@@8					; CDialog::`RTTI Base Class Array'
PUBLIC	??_R4CDateTimeCtrl@@6B@				; CDateTimeCtrl::`RTTI Complete Object Locator'
PUBLIC	??_R0?AVCDateTimeCtrl@@@8			; CDateTimeCtrl `RTTI Type Descriptor'
PUBLIC	??_R3CDateTimeCtrl@@8				; CDateTimeCtrl::`RTTI Class Hierarchy Descriptor'
PUBLIC	??_R2CDateTimeCtrl@@8				; CDateTimeCtrl::`RTTI Base Class Array'
PUBLIC	??_R1A@?0A@EA@CDateTimeCtrl@@8			; CDateTimeCtrl::`RTTI Base Class Descriptor at (0,-1,0,64)'
PUBLIC	??_7exception@std@@6B@				; std::exception::`vftable'
PUBLIC	??_C@_0BC@EOODALEL@Unknown?5exception@		; `string'
PUBLIC	??_7bad_alloc@std@@6B@				; std::bad_alloc::`vftable'
PUBLIC	??_7bad_array_new_length@std@@6B@		; std::bad_array_new_length::`vftable'
PUBLIC	??_C@_0BF@KINCDENJ@bad?5array?5new?5length@	; `string'
PUBLIC	__TI3?AVbad_array_new_length@std@@
PUBLIC	__CTA3?AVbad_array_new_length@std@@
PUBLIC	??_R0?AVbad_array_new_length@std@@@8		; std::bad_array_new_length `RTTI Type Descriptor'
PUBLIC	__CT??_R0?AVbad_array_new_length@std@@@8??0bad_array_new_length@std@@QAE@ABV01@@Z12
PUBLIC	??_R0?AVbad_alloc@std@@@8			; std::bad_alloc `RTTI Type Descriptor'
PUBLIC	__CT??_R0?AVbad_alloc@std@@@8??0bad_alloc@std@@QAE@ABV01@@Z12
PUBLIC	??_R0?AVexception@std@@@8			; std::exception `RTTI Type Descriptor'
PUBLIC	__CT??_R0?AVexception@std@@@8??0exception@std@@QAE@ABV01@@Z12
PUBLIC	??_C@_0BF@BMLEKMON@AnalysisPropInfo?4ans@	; `string'
PUBLIC	??_7CDlgFiboSet@@6B@				; CDlgFiboSet::`vftable'
PUBLIC	??_C@_0BF@EGELCGDD@GetCurrentLanguageID@	; `string'
PUBLIC	??_C@_0BA@ENJOCHIO@LoadResourceDLL@		; `string'
PUBLIC	??_C@_01FGNFDNOH@?$CF@				; `string'
PUBLIC	??_C@_0L@DFLJBNFO@?$CFs?$CI?$CF?41f?$CFs?$CJ@	; `string'
PUBLIC	??_C@_0BI@PMLJCDKI@0?01?02?03?05?08?013?021?034?055@ ; `string'
PUBLIC	??_C@_0BL@NNPKLAED@0?0236?0382?0500?0618?0786?01000@ ; `string'
PUBLIC	??_C@_01IHBHIGKO@?0@				; `string'
PUBLIC	??_C@_04HDOCAJNK@?$CFs?$CFs@			; `string'
PUBLIC	??_C@_07ONLHAHEH@TopText@			; `string'
PUBLIC	??_C@_0L@KGKLHHNL@BottomText@			; `string'
PUBLIC	??_C@_08BBFEGILF@LeftText@			; `string'
PUBLIC	??_C@_09HDEKPJNE@RightText@			; `string'
PUBLIC	??_C@_07FCOFBDCL@LeftExt@			; `string'
PUBLIC	??_C@_08JBGJKNHH@RightExt@			; `string'
PUBLIC	??_C@_07FEGHFPHL@EquiDiv@			; `string'
PUBLIC	??_C@_0O@GNLODFPJ@PriceRangeDiv@		; `string'
PUBLIC	??_C@_09LIIMEMPE@HLPercent@			; `string'
PUBLIC	??_C@_0L@IDNOMKNG@FillRegion@			; `string'
PUBLIC	??_C@_09MJAANBBP@LineColor@			; `string'
PUBLIC	??_C@_03JALODAI@?$CFld@				; `string'
PUBLIC	??_C@_09LNOEOIHF@LineStyle@			; `string'
PUBLIC	??_C@_0L@OIHNKLFE@LineWeight@			; `string'
PUBLIC	??_C@_0BA@JFLLJIBI@FiboCoefficient@		; `string'
PUBLIC	??_C@_0P@IMPIBBAB@YYYYMMDDHHMMSS@		; `string'
PUBLIC	??_C@_03EICDNICE@?$CF?4f@			; `string'
PUBLIC	??_C@_08IGKLELNK@?$CFs?1?$CFs?3?$CFs@		; `string'
PUBLIC	??_C@_01GBGANLPD@0@				; `string'
PUBLIC	??_C@_0M@NFOMEIHF@?$CFs?1?$CFs?9?$CFs?3?$CFs@	; `string'
PUBLIC	??_C@_02NJPGOMH@?$CFf@				; `string'
PUBLIC	??_C@_06GEKNBBDK@000000@			; `string'
PUBLIC	??_C@_0P@NDLMDLNF@?$CF04d?$CF02d?$CF02d?$CFs@	; `string'
PUBLIC	??_C@_0BC@KBDMBKEH@deque?$DMT?$DO?5too?5long@	; `string'
PUBLIC	??_R4exception@std@@6B@				; std::exception::`RTTI Complete Object Locator'
PUBLIC	??_R3exception@std@@8				; std::exception::`RTTI Class Hierarchy Descriptor'
PUBLIC	??_R2exception@std@@8				; std::exception::`RTTI Base Class Array'
PUBLIC	??_R1A@?0A@EA@exception@std@@8			; std::exception::`RTTI Base Class Descriptor at (0,-1,0,64)'
PUBLIC	??_R4bad_alloc@std@@6B@				; std::bad_alloc::`RTTI Complete Object Locator'
PUBLIC	??_R3bad_alloc@std@@8				; std::bad_alloc::`RTTI Class Hierarchy Descriptor'
PUBLIC	??_R2bad_alloc@std@@8				; std::bad_alloc::`RTTI Base Class Array'
PUBLIC	??_R1A@?0A@EA@bad_alloc@std@@8			; std::bad_alloc::`RTTI Base Class Descriptor at (0,-1,0,64)'
PUBLIC	??_R4bad_array_new_length@std@@6B@		; std::bad_array_new_length::`RTTI Complete Object Locator'
PUBLIC	??_R3bad_array_new_length@std@@8		; std::bad_array_new_length::`RTTI Class Hierarchy Descriptor'
PUBLIC	??_R2bad_array_new_length@std@@8		; std::bad_array_new_length::`RTTI Base Class Array'
PUBLIC	??_R1A@?0A@EA@bad_array_new_length@std@@8	; std::bad_array_new_length::`RTTI Base Class Descriptor at (0,-1,0,64)'
PUBLIC	??_R4CDlgFiboSet@@6B@				; CDlgFiboSet::`RTTI Complete Object Locator'
PUBLIC	??_R0?AVCDlgFiboSet@@@8				; CDlgFiboSet `RTTI Type Descriptor'
PUBLIC	??_R3CDlgFiboSet@@8				; CDlgFiboSet::`RTTI Class Hierarchy Descriptor'
PUBLIC	??_R2CDlgFiboSet@@8				; CDlgFiboSet::`RTTI Base Class Array'
PUBLIC	??_R1A@?0A@EA@CDlgFiboSet@@8			; CDlgFiboSet::`RTTI Base Class Descriptor at (0,-1,0,64)'
PUBLIC	__real@0000000000000000
PUBLIC	__real@4024000000000000
PUBLIC	__xmm@00100000000000000010000000000000
EXTRN	??2@YAPAXI@Z:PROC				; operator new
EXTRN	??3@YAXPAX@Z:PROC				; operator delete
EXTRN	??3@YAXPAXI@Z:PROC				; operator delete
EXTRN	?__global_delete@@YAXPAXI@Z:PROC		; __global_delete
EXTRN	___std_terminate:PROC
EXTRN	__imp___invalid_parameter_noinfo_noreturn:PROC
EXTRN	__imp__GetProcAddress@8:PROC
EXTRN	__imp__WritePrivateProfileStringA@16:PROC
EXTRN	__imp__SendMessageA@16:PROC
EXTRN	__imp__IsWindowVisible@4:PROC
EXTRN	__imp__mouse_event@20:PROC
EXTRN	__imp__EnableWindow@8:PROC
EXTRN	__imp__InvalidateRect@12:PROC
EXTRN	__imp__GetClientRect@8:PROC
EXTRN	__imp__GetWindowRect@8:PROC
EXTRN	__imp__atof:PROC
EXTRN	__imp__atoi:PROC
EXTRN	__imp___atoi64:PROC
EXTRN	__imp___localtime64_s:PROC
EXTRN	__imp___mktime64:PROC
EXTRN	?AfxThrowMemoryException@@YGXXZ:PROC		; AfxThrowMemoryException
EXTRN	?AfxThrowOleException@@YGXJ@Z:PROC		; AfxThrowOleException
EXTRN	__imp_?Empty@?$CSimpleStringT@D$00@ATL@@QAEXXZ:PROC
EXTRN	__imp_?Concatenate@?$CSimpleStringT@D$00@ATL@@KAXAAV12@PBDH1H@Z:PROC
EXTRN	__imp_??0?$CStringT@DV?$StrTraitMFC_DLL@DV?$ChTraitsCRT@D@ATL@@@@@ATL@@QAE@XZ:PROC
EXTRN	__imp_??0?$CStringT@DV?$StrTraitMFC_DLL@DV?$ChTraitsCRT@D@ATL@@@@@ATL@@QAE@PAUIAtlStringMgr@1@@Z:PROC
EXTRN	__imp_??0?$CStringT@DV?$StrTraitMFC_DLL@DV?$ChTraitsCRT@D@ATL@@@@@ATL@@QAE@ABV01@@Z:PROC
EXTRN	__imp_??0?$CStringT@DV?$StrTraitMFC_DLL@DV?$ChTraitsCRT@D@ATL@@@@@ATL@@QAE@PBD@Z:PROC
EXTRN	__imp_??1?$CStringT@DV?$StrTraitMFC_DLL@DV?$ChTraitsCRT@D@ATL@@@@@ATL@@QAE@XZ:PROC
EXTRN	__imp_??4?$CStringT@DV?$StrTraitMFC_DLL@DV?$ChTraitsCRT@D@ATL@@@@@ATL@@QAEAAV01@ABV01@@Z:PROC
EXTRN	__imp_??4?$CStringT@DV?$StrTraitMFC_DLL@DV?$ChTraitsCRT@D@ATL@@@@@ATL@@QAEAAV01@PBD@Z:PROC
EXTRN	__imp_??Y?$CStringT@DV?$StrTraitMFC_DLL@DV?$ChTraitsCRT@D@ATL@@@@@ATL@@QAEAAV01@PBD@Z:PROC
EXTRN	__imp_?GetManager@?$CStringT@DV?$StrTraitMFC_DLL@DV?$ChTraitsCRT@D@ATL@@@@@ATL@@QBEPAUIAtlStringMgr@2@XZ:PROC
EXTRN	__imp_?Compare@?$CStringT@DV?$StrTraitMFC_DLL@DV?$ChTraitsCRT@D@ATL@@@@@ATL@@QBEHPBD@Z:PROC
EXTRN	__imp_?Mid@?$CStringT@DV?$StrTraitMFC_DLL@DV?$ChTraitsCRT@D@ATL@@@@@ATL@@QBE?AV12@HH@Z:PROC
EXTRN	__imp_?Left@?$CStringT@DV?$StrTraitMFC_DLL@DV?$ChTraitsCRT@D@ATL@@@@@ATL@@QBE?AV12@H@Z:PROC
EXTRN	__imp_?Format@?$CStringT@DV?$StrTraitMFC_DLL@DV?$ChTraitsCRT@D@ATL@@@@@ATL@@QAAXPBDZZ:PROC
EXTRN	__imp_?LoadStringA@?$CStringT@DV?$StrTraitMFC_DLL@DV?$ChTraitsCRT@D@ATL@@@@@ATL@@QAEHI@Z:PROC
EXTRN	??0CFile@@QAE@XZ:PROC				; CFile::CFile
EXTRN	?Open@CFile@@UAEHPBDIPAVCFileException@@@Z:PROC	; CFile::Open
EXTRN	?Close@CFile@@UAEXXZ:PROC			; CFile::Close
EXTRN	??1CFile@@UAE@XZ:PROC				; CFile::~CFile
EXTRN	??0CFileFind@@QAE@XZ:PROC			; CFileFind::CFileFind
EXTRN	??1CFileFind@@UAE@XZ:PROC			; CFileFind::~CFileFind
EXTRN	?Close@CFileFind@@QAEXXZ:PROC			; CFileFind::Close
EXTRN	?FindFile@CFileFind@@UAEHPBDK@Z:PROC		; CFileFind::FindFile
EXTRN	?AfxGetModuleState@@YGPAVAFX_MODULE_STATE@@XZ:PROC ; AfxGetModuleState
EXTRN	?AfxGetStaticModuleState@@YGPAVAFX_MODULE_STATE@@XZ:PROC ; AfxGetStaticModuleState
EXTRN	?GetRuntimeClass@CGdiObject@@UBEPAUCRuntimeClass@@XZ:PROC ; CGdiObject::GetRuntimeClass
EXTRN	?DeleteObject@CGdiObject@@QAEHXZ:PROC		; CGdiObject::DeleteObject
EXTRN	??_ECGdiObject@@UAEPAXI@Z:PROC			; CGdiObject::`vector deleting destructor'
EXTRN	?GetRuntimeClass@CBitmap@@UBEPAUCRuntimeClass@@XZ:PROC ; CBitmap::GetRuntimeClass
EXTRN	??_ECBitmap@@UAEPAXI@Z:PROC			; CBitmap::`vector deleting destructor'
EXTRN	?DDX_CBIndex@@YGXPAVCDataExchange@@HAAH@Z:PROC	; DDX_CBIndex
EXTRN	?DDX_Control@@YGXPAVCDataExchange@@HAAVCWnd@@@Z:PROC ; DDX_Control
EXTRN	?OnCmdMsg@CCmdTarget@@UAEHIHPAXPAUAFX_CMDHANDLERINFO@@@Z:PROC ; CCmdTarget::OnCmdMsg
EXTRN	?IsInvokeAllowed@CCmdTarget@@UAEHJ@Z:PROC	; CCmdTarget::IsInvokeAllowed
EXTRN	?GetDispatchIID@CCmdTarget@@UAEHPAU_GUID@@@Z:PROC ; CCmdTarget::GetDispatchIID
EXTRN	?GetTypeInfoCount@CCmdTarget@@UAEIXZ:PROC	; CCmdTarget::GetTypeInfoCount
EXTRN	?GetTypeLibCache@CCmdTarget@@UAEPAVCTypeLibCache@@XZ:PROC ; CCmdTarget::GetTypeLibCache
EXTRN	?GetTypeLib@CCmdTarget@@UAEJKPAPAUITypeLib@@@Z:PROC ; CCmdTarget::GetTypeLib
EXTRN	?GetCommandMap@CCmdTarget@@MBEPBUAFX_OLECMDMAP@@XZ:PROC ; CCmdTarget::GetCommandMap
EXTRN	?GetDispatchMap@CCmdTarget@@MBEPBUAFX_DISPMAP@@XZ:PROC ; CCmdTarget::GetDispatchMap
EXTRN	?GetConnectionMap@CCmdTarget@@MBEPBUAFX_CONNECTIONMAP@@XZ:PROC ; CCmdTarget::GetConnectionMap
EXTRN	?GetEventSinkMap@CCmdTarget@@MBEPBUAFX_EVENTSINKMAP@@XZ:PROC ; CCmdTarget::GetEventSinkMap
EXTRN	?OnCreateAggregates@CCmdTarget@@UAEHXZ:PROC	; CCmdTarget::OnCreateAggregates
EXTRN	?GetInterfaceHook@CCmdTarget@@UAEPAUIUnknown@@PBX@Z:PROC ; CCmdTarget::GetInterfaceHook
EXTRN	?GetExtraConnectionPoints@CCmdTarget@@MAEHPAVCPtrArray@@@Z:PROC ; CCmdTarget::GetExtraConnectionPoints
EXTRN	?GetConnectionHook@CCmdTarget@@MAEPAUIConnectionPoint@@ABU_GUID@@@Z:PROC ; CCmdTarget::GetConnectionHook
EXTRN	??0CWnd@@QAE@XZ:PROC				; CWnd::CWnd
EXTRN	?PreSubclassWindow@CWnd@@UAEXXZ:PROC		; CWnd::PreSubclassWindow
EXTRN	?Create@CWnd@@UAEHPBD0KABUtagRECT@@PAV1@IPAUCCreateContext@@@Z:PROC ; CWnd::Create
EXTRN	?CreateEx@CWnd@@UAEHKPBD0KHHHHPAUHWND__@@PAUHMENU__@@PAX@Z:PROC ; CWnd::CreateEx
EXTRN	?CreateEx@CWnd@@UAEHKPBD0KABUtagRECT@@PAV1@IPAX@Z:PROC ; CWnd::CreateEx
EXTRN	?DestroyWindow@CWnd@@UAEHXZ:PROC		; CWnd::DestroyWindow
EXTRN	?PreCreateWindow@CWnd@@UAEHAAUtagCREATESTRUCTA@@@Z:PROC ; CWnd::PreCreateWindow
EXTRN	?CalcWindowRect@CWnd@@UAEXPAUtagRECT@@I@Z:PROC	; CWnd::CalcWindowRect
EXTRN	?GetDlgItem@CWnd@@QBEPAV1@H@Z:PROC		; CWnd::GetDlgItem
EXTRN	?SetWindowTextA@CWnd@@QAEXPBD@Z:PROC		; CWnd::SetWindowTextA
EXTRN	?GetWindowTextA@CWnd@@QBEXAAV?$CStringT@DV?$StrTraitMFC_DLL@DV?$ChTraitsCRT@D@ATL@@@@@ATL@@@Z:PROC ; CWnd::GetWindowTextA
EXTRN	?GetMenu@CWnd@@UBEPAVCMenu@@XZ:PROC		; CWnd::GetMenu
EXTRN	?SetMenu@CWnd@@UAEHPAVCMenu@@@Z:PROC		; CWnd::SetMenu
EXTRN	?MoveWindow@CWnd@@QAEXHHHHH@Z:PROC		; CWnd::MoveWindow
EXTRN	?ScreenToClient@CWnd@@QBEXPAUtagRECT@@@Z:PROC	; CWnd::ScreenToClient
EXTRN	?ShowWindow@CWnd@@QAEHH@Z:PROC			; CWnd::ShowWindow
EXTRN	?OnToolHitTest@CWnd@@UBEHVCPoint@@PAUtagTOOLINFOA@@@Z:PROC ; CWnd::OnToolHitTest
EXTRN	?EnableWindow@CWnd@@QAEHH@Z:PROC		; CWnd::EnableWindow
EXTRN	?SetDlgItemTextA@CWnd@@QAEXHPBD@Z:PROC		; CWnd::SetDlgItemTextA
EXTRN	?GetScrollBarCtrl@CWnd@@UBEPAVCScrollBar@@H@Z:PROC ; CWnd::GetScrollBarCtrl
EXTRN	?UpdateData@CWnd@@QAEHH@Z:PROC			; CWnd::UpdateData
EXTRN	?WinHelpA@CWnd@@UAEXKI@Z:PROC			; CWnd::WinHelpA
EXTRN	?HtmlHelpA@CWnd@@UAEXKI@Z:PROC			; CWnd::HtmlHelpA
EXTRN	?WinHelpInternal@CWnd@@UAEXKI@Z:PROC		; CWnd::WinHelpInternal
EXTRN	?ContinueModal@CWnd@@UAEHXZ:PROC		; CWnd::ContinueModal
EXTRN	?EndModalLoop@CWnd@@UAEXH@Z:PROC		; CWnd::EndModalLoop
EXTRN	?OnDrawIconicThumbnailOrLivePreview@CWnd@@UAEXAAVCDC@@VCRect@@VCSize@@HAAH@Z:PROC ; CWnd::OnDrawIconicThumbnailOrLivePreview
EXTRN	?GetInterfaceMap@CWnd@@MBEPBUAFX_INTERFACEMAP@@XZ:PROC ; CWnd::GetInterfaceMap
EXTRN	?EnsureStdObj@CWnd@@UAEJXZ:PROC			; CWnd::EnsureStdObj
EXTRN	?get_accParent@CWnd@@UAEJPAPAUIDispatch@@@Z:PROC ; CWnd::get_accParent
EXTRN	?get_accChildCount@CWnd@@UAEJPAJ@Z:PROC		; CWnd::get_accChildCount
EXTRN	?get_accChild@CWnd@@UAEJUtagVARIANT@@PAPAUIDispatch@@@Z:PROC ; CWnd::get_accChild
EXTRN	?get_accName@CWnd@@UAEJUtagVARIANT@@PAPA_W@Z:PROC ; CWnd::get_accName
EXTRN	?get_accValue@CWnd@@UAEJUtagVARIANT@@PAPA_W@Z:PROC ; CWnd::get_accValue
EXTRN	?get_accDescription@CWnd@@UAEJUtagVARIANT@@PAPA_W@Z:PROC ; CWnd::get_accDescription
EXTRN	?get_accRole@CWnd@@UAEJUtagVARIANT@@PAU2@@Z:PROC ; CWnd::get_accRole
EXTRN	?get_accState@CWnd@@UAEJUtagVARIANT@@PAU2@@Z:PROC ; CWnd::get_accState
EXTRN	?get_accHelp@CWnd@@UAEJUtagVARIANT@@PAPA_W@Z:PROC ; CWnd::get_accHelp
EXTRN	?get_accHelpTopic@CWnd@@UAEJPAPA_WUtagVARIANT@@PAJ@Z:PROC ; CWnd::get_accHelpTopic
EXTRN	?get_accKeyboardShortcut@CWnd@@UAEJUtagVARIANT@@PAPA_W@Z:PROC ; CWnd::get_accKeyboardShortcut
EXTRN	?get_accFocus@CWnd@@UAEJPAUtagVARIANT@@@Z:PROC	; CWnd::get_accFocus
EXTRN	?get_accSelection@CWnd@@UAEJPAUtagVARIANT@@@Z:PROC ; CWnd::get_accSelection
EXTRN	?get_accDefaultAction@CWnd@@UAEJUtagVARIANT@@PAPA_W@Z:PROC ; CWnd::get_accDefaultAction
EXTRN	?accSelect@CWnd@@UAEJJUtagVARIANT@@@Z:PROC	; CWnd::accSelect
EXTRN	?accLocation@CWnd@@UAEJPAJ000UtagVARIANT@@@Z:PROC ; CWnd::accLocation
EXTRN	?accNavigate@CWnd@@UAEJJUtagVARIANT@@PAU2@@Z:PROC ; CWnd::accNavigate
EXTRN	?accHitTest@CWnd@@UAEJJJPAUtagVARIANT@@@Z:PROC	; CWnd::accHitTest
EXTRN	?accDoDefaultAction@CWnd@@UAEJUtagVARIANT@@@Z:PROC ; CWnd::accDoDefaultAction
EXTRN	?put_accName@CWnd@@UAEJUtagVARIANT@@PA_W@Z:PROC	; CWnd::put_accName
EXTRN	?put_accValue@CWnd@@UAEJUtagVARIANT@@PA_W@Z:PROC ; CWnd::put_accValue
EXTRN	?SetProxy@CWnd@@UAEJPAUIAccessibleProxy@@@Z:PROC ; CWnd::SetProxy
EXTRN	?CreateAccessibleProxy@CWnd@@UAEJIJPAJ@Z:PROC	; CWnd::CreateAccessibleProxy
EXTRN	?OnCommand@CWnd@@MAEHIJ@Z:PROC			; CWnd::OnCommand
EXTRN	?OnNotify@CWnd@@MAEHIJPAJ@Z:PROC		; CWnd::OnNotify
EXTRN	?GetSuperWndProcAddr@CWnd@@MAEPAP6GJPAUHWND__@@IIJ@ZXZ:PROC ; CWnd::GetSuperWndProcAddr
EXTRN	?PreTranslateMessage@CWnd@@UAEHPAUtagMSG@@@Z:PROC ; CWnd::PreTranslateMessage
EXTRN	?OnAmbientProperty@CWnd@@UAEHPAVCOleControlSite@@JPAUtagVARIANT@@@Z:PROC ; CWnd::OnAmbientProperty
EXTRN	?WindowProc@CWnd@@MAEJIIJ@Z:PROC		; CWnd::WindowProc
EXTRN	?OnWndMsg@CWnd@@MAEHIIJPAJ@Z:PROC		; CWnd::OnWndMsg
EXTRN	?DefWindowProcA@CWnd@@MAEJIIJ@Z:PROC		; CWnd::DefWindowProcA
EXTRN	?PostNcDestroy@CWnd@@MAEXXZ:PROC		; CWnd::PostNcDestroy
EXTRN	?OnChildNotify@CWnd@@MAEHIIJPAJ@Z:PROC		; CWnd::OnChildNotify
EXTRN	?OnTouchInputs@CWnd@@MAEHIPAUtagTOUCHINPUT@@@Z:PROC ; CWnd::OnTouchInputs
EXTRN	?OnTouchInput@CWnd@@MAEHVCPoint@@HHPAUtagTOUCHINPUT@@@Z:PROC ; CWnd::OnTouchInput
EXTRN	?GetGestureStatus@CWnd@@MAEKVCPoint@@@Z:PROC	; CWnd::GetGestureStatus
EXTRN	?OnGestureZoom@CWnd@@MAEHVCPoint@@J@Z:PROC	; CWnd::OnGestureZoom
EXTRN	?OnGesturePan@CWnd@@MAEHVCPoint@@0@Z:PROC	; CWnd::OnGesturePan
EXTRN	?OnGestureRotate@CWnd@@MAEHVCPoint@@N@Z:PROC	; CWnd::OnGestureRotate
EXTRN	?OnGestureTwoFingerTap@CWnd@@MAEHVCPoint@@@Z:PROC ; CWnd::OnGestureTwoFingerTap
EXTRN	?OnGesturePressAndTap@CWnd@@MAEHVCPoint@@J@Z:PROC ; CWnd::OnGesturePressAndTap
EXTRN	?ResizeDynamicLayout@CWnd@@MAEXXZ:PROC		; CWnd::ResizeDynamicLayout
EXTRN	?CheckAutoCenter@CWnd@@UAEHXZ:PROC		; CWnd::CheckAutoCenter
EXTRN	?IsFrameWnd@CWnd@@UBEHXZ:PROC			; CWnd::IsFrameWnd
EXTRN	?OnFinalRelease@CWnd@@UAEXXZ:PROC		; CWnd::OnFinalRelease
EXTRN	?CreateControlContainer@CWnd@@MAEHPAPAVCOleControlContainer@@@Z:PROC ; CWnd::CreateControlContainer
EXTRN	?CreateControlSite@CWnd@@MAEHPAVCOleControlContainer@@PAPAVCOleControlSite@@IABU_GUID@@@Z:PROC ; CWnd::CreateControlSite
EXTRN	?SetOccDialogInfo@CWnd@@MAEHPAU_AFX_OCC_DIALOG_INFO@@@Z:PROC ; CWnd::SetOccDialogInfo
EXTRN	?GetOccDialogInfo@CWnd@@MAEPAU_AFX_OCC_DIALOG_INFO@@XZ:PROC ; CWnd::GetOccDialogInfo
EXTRN	?GetMessageMap@CWnd@@MBEPBUAFX_MSGMAP@@XZ:PROC	; CWnd::GetMessageMap
EXTRN	?GetRuntimeClass@CDialog@@UBEPAUCRuntimeClass@@XZ:PROC ; CDialog::GetRuntimeClass
EXTRN	?Create@CDialog@@UAEHPBDPAVCWnd@@@Z:PROC	; CDialog::Create
EXTRN	?CreateIndirect@CDialog@@UAEHPBUDLGTEMPLATE@@PAVCWnd@@PAX@Z:PROC ; CDialog::CreateIndirect
EXTRN	?CreateIndirect@CDialog@@UAEHPAXPAVCWnd@@@Z:PROC ; CDialog::CreateIndirect
EXTRN	??0CDialog@@QAE@IPAVCWnd@@@Z:PROC		; CDialog::CDialog
EXTRN	?DoModal@CDialog@@UAEHXZ:PROC			; CDialog::DoModal
EXTRN	?OnInitDialog@CDialog@@UAEHXZ:PROC		; CDialog::OnInitDialog
EXTRN	?OnSetFont@CDialog@@UAEXPAVCFont@@@Z:PROC	; CDialog::OnSetFont
EXTRN	?OnOK@CDialog@@MAEXXZ:PROC			; CDialog::OnOK
EXTRN	?OnCancel@CDialog@@MAEXXZ:PROC			; CDialog::OnCancel
EXTRN	??1CDialog@@UAE@XZ:PROC				; CDialog::~CDialog
EXTRN	?PreTranslateMessage@CDialog@@UAEHPAUtagMSG@@@Z:PROC ; CDialog::PreTranslateMessage
EXTRN	?OnCmdMsg@CDialog@@UAEHIHPAXPAUAFX_CMDHANDLERINFO@@@Z:PROC ; CDialog::OnCmdMsg
EXTRN	?CheckAutoCenter@CDialog@@UAEHXZ:PROC		; CDialog::CheckAutoCenter
EXTRN	?SetOccDialogInfo@CDialog@@MAEHPAU_AFX_OCC_DIALOG_INFO@@@Z:PROC ; CDialog::SetOccDialogInfo
EXTRN	?GetOccDialogInfo@CDialog@@MAEPAU_AFX_OCC_DIALOG_INFO@@XZ:PROC ; CDialog::GetOccDialogInfo
EXTRN	?PreInitDialog@CDialog@@MAEXXZ:PROC		; CDialog::PreInitDialog
EXTRN	?GetThisMessageMap@CDialog@@KGPBUAFX_MSGMAP@@XZ:PROC ; CDialog::GetThisMessageMap
EXTRN	?GetRuntimeClass@CButton@@UBEPAUCRuntimeClass@@XZ:PROC ; CButton::GetRuntimeClass
EXTRN	?Create@CButton@@UAEHPBDKABUtagRECT@@PAVCWnd@@I@Z:PROC ; CButton::Create
EXTRN	?DrawItem@CButton@@UAEXPAUtagDRAWITEMSTRUCT@@@Z:PROC ; CButton::DrawItem
EXTRN	??1CButton@@UAE@XZ:PROC				; CButton::~CButton
EXTRN	?OnChildNotify@CButton@@MAEHIIJPAJ@Z:PROC	; CButton::OnChildNotify
EXTRN	??_ECButton@@UAEPAXI@Z:PROC			; CButton::`vector deleting destructor'
EXTRN	??1CComboBox@@UAE@XZ:PROC			; CComboBox::~CComboBox
EXTRN	?GetRuntimeClass@CEdit@@UBEPAUCRuntimeClass@@XZ:PROC ; CEdit::GetRuntimeClass
EXTRN	??1CEdit@@UAE@XZ:PROC				; CEdit::~CEdit
EXTRN	??_ECEdit@@UAEPAXI@Z:PROC			; CEdit::`vector deleting destructor'
EXTRN	?AfxMessageBox@@YGHPBDII@Z:PROC			; AfxMessageBox
EXTRN	?GetRuntimeClass@CCommonDialog@@UBEPAUCRuntimeClass@@XZ:PROC ; CCommonDialog::GetRuntimeClass
EXTRN	?OnOK@CCommonDialog@@MAEXXZ:PROC		; CCommonDialog::OnOK
EXTRN	?OnCancel@CCommonDialog@@MAEXXZ:PROC		; CCommonDialog::OnCancel
EXTRN	?GetMessageMap@CCommonDialog@@MBEPBUAFX_MSGMAP@@XZ:PROC ; CCommonDialog::GetMessageMap
EXTRN	??_ECCommonDialog@@UAEPAXI@Z:PROC		; CCommonDialog::`vector deleting destructor'
EXTRN	??0CColorDialog@@QAE@KKPAVCWnd@@@Z:PROC		; CColorDialog::CColorDialog
EXTRN	?DoModal@CColorDialog@@UAEHXZ:PROC		; CColorDialog::DoModal
EXTRN	?GetRuntimeClass@CDateTimeCtrl@@UBEPAUCRuntimeClass@@XZ:PROC ; CDateTimeCtrl::GetRuntimeClass
EXTRN	?Create@CDateTimeCtrl@@UAEHKABUtagRECT@@PAVCWnd@@I@Z:PROC ; CDateTimeCtrl::Create
EXTRN	?SetTime@CDateTimeCtrl@@QAEHPBVCTime@ATL@@@Z:PROC ; CDateTimeCtrl::SetTime
EXTRN	?GetTime@CDateTimeCtrl@@QBEKAAVCTime@ATL@@@Z:PROC ; CDateTimeCtrl::GetTime
EXTRN	??1CDateTimeCtrl@@UAE@XZ:PROC			; CDateTimeCtrl::~CDateTimeCtrl
EXTRN	??_ECDateTimeCtrl@@UAEPAXI@Z:PROC		; CDateTimeCtrl::`vector deleting destructor'
EXTRN	?Set@CPenEnvironment@@QAEXABV1@@Z:PROC		; CPenEnvironment::Set
EXTRN	?SetColor@CPenEnvironment@@QAEXABK@Z:PROC	; CPenEnvironment::SetColor
EXTRN	?SetWidth@CPenEnvironment@@QAEXH@Z:PROC		; CPenEnvironment::SetWidth
EXTRN	?SetStyle@CPenEnvironment@@QAEXW4PenStyle@CToolEnumData@@@Z:PROC ; CPenEnvironment::SetStyle
EXTRN	?GetColor@CPenEnvironment@@QBEKXZ:PROC		; CPenEnvironment::GetColor
EXTRN	?GetWidth@CPenEnvironment@@QBEHXZ:PROC		; CPenEnvironment::GetWidth
EXTRN	?GetStyle@CPenEnvironment@@QBE?AW4PenStyle@CToolEnumData@@XZ:PROC ; CPenEnvironment::GetStyle
EXTRN	?SetExtData@CDataTypeEnvironment@@QAEXABV?$CStringT@DV?$StrTraitMFC_DLL@DV?$ChTraitsCRT@D@ATL@@@@@ATL@@@Z:PROC ; CDataTypeEnvironment::SetExtData
EXTRN	?GetExtData@CDataTypeEnvironment@@QBE?AV?$CStringT@DV?$StrTraitMFC_DLL@DV?$ChTraitsCRT@D@ATL@@@@@ATL@@XZ:PROC ; CDataTypeEnvironment::GetExtData
EXTRN	??0CLineExtEnvironment@@QAE@XZ:PROC		; CLineExtEnvironment::CLineExtEnvironment
EXTRN	??0CLineExtEnvironment@@QAE@PAV0@@Z:PROC	; CLineExtEnvironment::CLineExtEnvironment
EXTRN	?Set@CLineExtEnvironment@@QAEXABV1@@Z:PROC	; CLineExtEnvironment::Set
EXTRN	?SetLineExt@CLineExtEnvironment@@QAEXABH0@Z:PROC ; CLineExtEnvironment::SetLineExt
EXTRN	?GetLeftExt@CLineExtEnvironment@@QBEHXZ:PROC	; CLineExtEnvironment::GetLeftExt
EXTRN	?GetRightExt@CLineExtEnvironment@@QBEHXZ:PROC	; CLineExtEnvironment::GetRightExt
EXTRN	?SetColor@CTextEnvironment@@QAEXABK@Z:PROC	; CTextEnvironment::SetColor
EXTRN	?GetTextEnvironment@CTextPosition@@QAEAAVCTextEnvironment@@XZ:PROC ; CTextPosition::GetTextEnvironment
EXTRN	??0CTextShowPosition@@QAE@XZ:PROC		; CTextShowPosition::CTextShowPosition
EXTRN	?SetShow@CTextShowPosition@@QAEX_N@Z:PROC	; CTextShowPosition::SetShow
EXTRN	?IsShow@CTextShowPosition@@QBE_NXZ:PROC		; CTextShowPosition::IsShow
EXTRN	??0CTextHorzPosition@@QAE@XZ:PROC		; CTextHorzPosition::CTextHorzPosition
EXTRN	?SetLeft@CTextHorzPosition@@QAEX_N@Z:PROC	; CTextHorzPosition::SetLeft
EXTRN	?SetRight@CTextHorzPosition@@QAEX_N@Z:PROC	; CTextHorzPosition::SetRight
EXTRN	?GetLeft@CTextHorzPosition@@QBE_NXZ:PROC	; CTextHorzPosition::GetLeft
EXTRN	?GetRight@CTextHorzPosition@@QBE_NXZ:PROC	; CTextHorzPosition::GetRight
EXTRN	??0CTextVertPosition@@QAE@XZ:PROC		; CTextVertPosition::CTextVertPosition
EXTRN	?SetTop@CTextVertPosition@@QAEX_N@Z:PROC	; CTextVertPosition::SetTop
EXTRN	?SetBottom@CTextVertPosition@@QAEX_N@Z:PROC	; CTextVertPosition::SetBottom
EXTRN	?GetTop@CTextVertPosition@@QBE_NXZ:PROC		; CTextVertPosition::GetTop
EXTRN	?GetBottom@CTextVertPosition@@QBE_NXZ:PROC	; CTextVertPosition::GetBottom
EXTRN	??0CTextHorzVertPosition@@QAE@XZ:PROC		; CTextHorzVertPosition::CTextHorzVertPosition
EXTRN	?SetLeft@CTextHorzVertPosition@@QAEX_N@Z:PROC	; CTextHorzVertPosition::SetLeft
EXTRN	?SetRight@CTextHorzVertPosition@@QAEX_N@Z:PROC	; CTextHorzVertPosition::SetRight
EXTRN	?SetTop@CTextHorzVertPosition@@QAEX_N@Z:PROC	; CTextHorzVertPosition::SetTop
EXTRN	?SetBottom@CTextHorzVertPosition@@QAEX_N@Z:PROC	; CTextHorzVertPosition::SetBottom
EXTRN	?GetLeft@CTextHorzVertPosition@@QBE_NXZ:PROC	; CTextHorzVertPosition::GetLeft
EXTRN	?GetRight@CTextHorzVertPosition@@QBE_NXZ:PROC	; CTextHorzVertPosition::GetRight
EXTRN	?GetTop@CTextHorzVertPosition@@QBE_NXZ:PROC	; CTextHorzVertPosition::GetTop
EXTRN	?GetBottom@CTextHorzVertPosition@@QBE_NXZ:PROC	; CTextHorzVertPosition::GetBottom
EXTRN	___std_exception_copy:PROC
EXTRN	___std_exception_destroy:PROC
EXTRN	??_Eexception@std@@UAEPAXI@Z:PROC		; std::exception::`vector deleting destructor'
EXTRN	??_Ebad_alloc@std@@UAEPAXI@Z:PROC		; std::bad_alloc::`vector deleting destructor'
EXTRN	??_Ebad_array_new_length@std@@UAEPAXI@Z:PROC	; std::bad_array_new_length::`vector deleting destructor'
EXTRN	?_Xlength_error@std@@YAXPBD@Z:PROC		; std::_Xlength_error
EXTRN	?GetX@CCoordinate@@QBENXZ:PROC			; CCoordinate::GetX
EXTRN	?GetY@CCoordinate@@QBENXZ:PROC			; CCoordinate::GetY
EXTRN	?SetX@CCoordinate@@QAEXABNH@Z:PROC		; CCoordinate::SetX
EXTRN	?SetY@CCoordinate@@QAEXABN@Z:PROC		; CCoordinate::SetY
EXTRN	??0CColorButton@@QAE@XZ:PROC			; CColorButton::CColorButton
EXTRN	?SetColor@CColorButton@@QAEXABK@Z:PROC		; CColorButton::SetColor
EXTRN	?GetColor@CColorButton@@QBEKXZ:PROC		; CColorButton::GetColor
EXTRN	?GetCount@CElementPointList@@QBEHXZ:PROC	; CElementPointList::GetCount
EXTRN	?GetAt@CElementPointList@@QAEPAVCCoordinate@@H@Z:PROC ; CElementPointList::GetAt
EXTRN	??0CBitmapComboBox@@QAE@XZ:PROC			; CBitmapComboBox::CBitmapComboBox
EXTRN	?LoadBitmapA@CBitmapComboBox@@QAEXHI@Z:PROC	; CBitmapComboBox::LoadBitmapA
EXTRN	??_ECDlgFiboSet@@UAEPAXI@Z:PROC			; CDlgFiboSet::`vector deleting destructor'
EXTRN	?GetStringData@CDataConversion@@SA?AV?$CStringT@DV?$StrTraitMFC_DLL@DV?$ChTraitsCRT@D@ATL@@@@@ATL@@AAV23@ABV23@_N@Z:PROC ; CDataConversion::GetStringData
EXTRN	@__security_check_cookie@4:PROC
EXTRN	__CxxThrowException@8:PROC
EXTRN	___CxxFrameHandler3:PROC
EXTRN	__ltod3:PROC
EXTRN	_memmove:PROC
EXTRN	_memset:PROC
EXTRN	??_7type_info@@6B@:QWORD			; type_info::`vftable'
EXTRN	?g_iMetaTable@@3VIMetaTable@@A:BYTE		; g_iMetaTable
EXTRN	___security_cookie:DWORD
EXTRN	__fltused:DWORD
;	COMDAT __xmm@00100000000000000010000000000000
CONST	SEGMENT
__xmm@00100000000000000010000000000000 DB 00H, 00H, 00H, 00H, 00H, 00H, 010H
	DB	00H, 00H, 00H, 00H, 00H, 00H, 00H, 010H, 00H
CONST	ENDS
;	COMDAT __real@4024000000000000
CONST	SEGMENT
__real@4024000000000000 DQ 04024000000000000r	; 10
CONST	ENDS
;	COMDAT __real@0000000000000000
CONST	SEGMENT
__real@0000000000000000 DQ 00000000000000000r	; 0
CONST	ENDS
;	COMDAT ??_R1A@?0A@EA@CDlgFiboSet@@8
rdata$r	SEGMENT
??_R1A@?0A@EA@CDlgFiboSet@@8 DD FLAT:??_R0?AVCDlgFiboSet@@@8 ; CDlgFiboSet::`RTTI Base Class Descriptor at (0,-1,0,64)'
	DD	04H
	DD	00H
	DD	0ffffffffH
	DD	00H
	DD	040H
	DD	FLAT:??_R3CDlgFiboSet@@8
rdata$r	ENDS
;	COMDAT ??_R2CDlgFiboSet@@8
rdata$r	SEGMENT
??_R2CDlgFiboSet@@8 DD FLAT:??_R1A@?0A@EA@CDlgFiboSet@@8 ; CDlgFiboSet::`RTTI Base Class Array'
	DD	FLAT:??_R1A@?0A@EA@CDialog@@8
	DD	FLAT:??_R1A@?0A@EA@CWnd@@8
	DD	FLAT:??_R1A@?0A@EA@CCmdTarget@@8
	DD	FLAT:??_R1A@?0A@EA@CObject@@8
rdata$r	ENDS
;	COMDAT ??_R3CDlgFiboSet@@8
rdata$r	SEGMENT
??_R3CDlgFiboSet@@8 DD 00H				; CDlgFiboSet::`RTTI Class Hierarchy Descriptor'
	DD	00H
	DD	05H
	DD	FLAT:??_R2CDlgFiboSet@@8
rdata$r	ENDS
;	COMDAT ??_R0?AVCDlgFiboSet@@@8
data$rs	SEGMENT
??_R0?AVCDlgFiboSet@@@8 DD FLAT:??_7type_info@@6B@	; CDlgFiboSet `RTTI Type Descriptor'
	DD	00H
	DB	'.?AVCDlgFiboSet@@', 00H
data$rs	ENDS
;	COMDAT ??_R4CDlgFiboSet@@6B@
rdata$r	SEGMENT
??_R4CDlgFiboSet@@6B@ DD 00H				; CDlgFiboSet::`RTTI Complete Object Locator'
	DD	00H
	DD	00H
	DD	FLAT:??_R0?AVCDlgFiboSet@@@8
	DD	FLAT:??_R3CDlgFiboSet@@8
rdata$r	ENDS
;	COMDAT ??_R1A@?0A@EA@bad_array_new_length@std@@8
rdata$r	SEGMENT
??_R1A@?0A@EA@bad_array_new_length@std@@8 DD FLAT:??_R0?AVbad_array_new_length@std@@@8 ; std::bad_array_new_length::`RTTI Base Class Descriptor at (0,-1,0,64)'
	DD	02H
	DD	00H
	DD	0ffffffffH
	DD	00H
	DD	040H
	DD	FLAT:??_R3bad_array_new_length@std@@8
rdata$r	ENDS
;	COMDAT ??_R2bad_array_new_length@std@@8
rdata$r	SEGMENT
??_R2bad_array_new_length@std@@8 DD FLAT:??_R1A@?0A@EA@bad_array_new_length@std@@8 ; std::bad_array_new_length::`RTTI Base Class Array'
	DD	FLAT:??_R1A@?0A@EA@bad_alloc@std@@8
	DD	FLAT:??_R1A@?0A@EA@exception@std@@8
rdata$r	ENDS
;	COMDAT ??_R3bad_array_new_length@std@@8
rdata$r	SEGMENT
??_R3bad_array_new_length@std@@8 DD 00H			; std::bad_array_new_length::`RTTI Class Hierarchy Descriptor'
	DD	00H
	DD	03H
	DD	FLAT:??_R2bad_array_new_length@std@@8
rdata$r	ENDS
;	COMDAT ??_R4bad_array_new_length@std@@6B@
rdata$r	SEGMENT
??_R4bad_array_new_length@std@@6B@ DD 00H		; std::bad_array_new_length::`RTTI Complete Object Locator'
	DD	00H
	DD	00H
	DD	FLAT:??_R0?AVbad_array_new_length@std@@@8
	DD	FLAT:??_R3bad_array_new_length@std@@8
rdata$r	ENDS
;	COMDAT ??_R1A@?0A@EA@bad_alloc@std@@8
rdata$r	SEGMENT
??_R1A@?0A@EA@bad_alloc@std@@8 DD FLAT:??_R0?AVbad_alloc@std@@@8 ; std::bad_alloc::`RTTI Base Class Descriptor at (0,-1,0,64)'
	DD	01H
	DD	00H
	DD	0ffffffffH
	DD	00H
	DD	040H
	DD	FLAT:??_R3bad_alloc@std@@8
rdata$r	ENDS
;	COMDAT ??_R2bad_alloc@std@@8
rdata$r	SEGMENT
??_R2bad_alloc@std@@8 DD FLAT:??_R1A@?0A@EA@bad_alloc@std@@8 ; std::bad_alloc::`RTTI Base Class Array'
	DD	FLAT:??_R1A@?0A@EA@exception@std@@8
rdata$r	ENDS
;	COMDAT ??_R3bad_alloc@std@@8
rdata$r	SEGMENT
??_R3bad_alloc@std@@8 DD 00H				; std::bad_alloc::`RTTI Class Hierarchy Descriptor'
	DD	00H
	DD	02H
	DD	FLAT:??_R2bad_alloc@std@@8
rdata$r	ENDS
;	COMDAT ??_R4bad_alloc@std@@6B@
rdata$r	SEGMENT
??_R4bad_alloc@std@@6B@ DD 00H				; std::bad_alloc::`RTTI Complete Object Locator'
	DD	00H
	DD	00H
	DD	FLAT:??_R0?AVbad_alloc@std@@@8
	DD	FLAT:??_R3bad_alloc@std@@8
rdata$r	ENDS
;	COMDAT ??_R1A@?0A@EA@exception@std@@8
rdata$r	SEGMENT
??_R1A@?0A@EA@exception@std@@8 DD FLAT:??_R0?AVexception@std@@@8 ; std::exception::`RTTI Base Class Descriptor at (0,-1,0,64)'
	DD	00H
	DD	00H
	DD	0ffffffffH
	DD	00H
	DD	040H
	DD	FLAT:??_R3exception@std@@8
rdata$r	ENDS
;	COMDAT ??_R2exception@std@@8
rdata$r	SEGMENT
??_R2exception@std@@8 DD FLAT:??_R1A@?0A@EA@exception@std@@8 ; std::exception::`RTTI Base Class Array'
rdata$r	ENDS
;	COMDAT ??_R3exception@std@@8
rdata$r	SEGMENT
??_R3exception@std@@8 DD 00H				; std::exception::`RTTI Class Hierarchy Descriptor'
	DD	00H
	DD	01H
	DD	FLAT:??_R2exception@std@@8
rdata$r	ENDS
;	COMDAT ??_R4exception@std@@6B@
rdata$r	SEGMENT
??_R4exception@std@@6B@ DD 00H				; std::exception::`RTTI Complete Object Locator'
	DD	00H
	DD	00H
	DD	FLAT:??_R0?AVexception@std@@@8
	DD	FLAT:??_R3exception@std@@8
rdata$r	ENDS
;	COMDAT ??_C@_0BC@KBDMBKEH@deque?$DMT?$DO?5too?5long@
CONST	SEGMENT
??_C@_0BC@KBDMBKEH@deque?$DMT?$DO?5too?5long@ DB 'deque<T> too long', 00H ; `string'
CONST	ENDS
;	COMDAT ??_C@_0P@NDLMDLNF@?$CF04d?$CF02d?$CF02d?$CFs@
CONST	SEGMENT
??_C@_0P@NDLMDLNF@?$CF04d?$CF02d?$CF02d?$CFs@ DB '%04d%02d%02d%s', 00H ; `string'
CONST	ENDS
;	COMDAT ??_C@_06GEKNBBDK@000000@
CONST	SEGMENT
??_C@_06GEKNBBDK@000000@ DB '000000', 00H		; `string'
CONST	ENDS
;	COMDAT ??_C@_02NJPGOMH@?$CFf@
CONST	SEGMENT
??_C@_02NJPGOMH@?$CFf@ DB '%f', 00H			; `string'
CONST	ENDS
;	COMDAT ??_C@_0M@NFOMEIHF@?$CFs?1?$CFs?9?$CFs?3?$CFs@
CONST	SEGMENT
??_C@_0M@NFOMEIHF@?$CFs?1?$CFs?9?$CFs?3?$CFs@ DB '%s/%s-%s:%s', 00H ; `string'
CONST	ENDS
;	COMDAT ??_C@_01GBGANLPD@0@
CONST	SEGMENT
??_C@_01GBGANLPD@0@ DB '0', 00H				; `string'
CONST	ENDS
;	COMDAT ??_C@_08IGKLELNK@?$CFs?1?$CFs?3?$CFs@
CONST	SEGMENT
??_C@_08IGKLELNK@?$CFs?1?$CFs?3?$CFs@ DB '%s/%s:%s', 00H ; `string'
CONST	ENDS
;	COMDAT ??_C@_03EICDNICE@?$CF?4f@
CONST	SEGMENT
??_C@_03EICDNICE@?$CF?4f@ DB '%.f', 00H			; `string'
CONST	ENDS
;	COMDAT ??_C@_0P@IMPIBBAB@YYYYMMDDHHMMSS@
CONST	SEGMENT
??_C@_0P@IMPIBBAB@YYYYMMDDHHMMSS@ DB 'YYYYMMDDHHMMSS', 00H ; `string'
CONST	ENDS
;	COMDAT ??_C@_0BA@JFLLJIBI@FiboCoefficient@
CONST	SEGMENT
??_C@_0BA@JFLLJIBI@FiboCoefficient@ DB 'FiboCoefficient', 00H ; `string'
CONST	ENDS
;	COMDAT ??_C@_0L@OIHNKLFE@LineWeight@
CONST	SEGMENT
??_C@_0L@OIHNKLFE@LineWeight@ DB 'LineWeight', 00H	; `string'
CONST	ENDS
;	COMDAT ??_C@_09LNOEOIHF@LineStyle@
CONST	SEGMENT
??_C@_09LNOEOIHF@LineStyle@ DB 'LineStyle', 00H		; `string'
CONST	ENDS
;	COMDAT ??_C@_03JALODAI@?$CFld@
CONST	SEGMENT
??_C@_03JALODAI@?$CFld@ DB '%ld', 00H			; `string'
CONST	ENDS
;	COMDAT ??_C@_09MJAANBBP@LineColor@
CONST	SEGMENT
??_C@_09MJAANBBP@LineColor@ DB 'LineColor', 00H		; `string'
CONST	ENDS
;	COMDAT ??_C@_0L@IDNOMKNG@FillRegion@
CONST	SEGMENT
??_C@_0L@IDNOMKNG@FillRegion@ DB 'FillRegion', 00H	; `string'
CONST	ENDS
;	COMDAT ??_C@_09LIIMEMPE@HLPercent@
CONST	SEGMENT
??_C@_09LIIMEMPE@HLPercent@ DB 'HLPercent', 00H		; `string'
CONST	ENDS
;	COMDAT ??_C@_0O@GNLODFPJ@PriceRangeDiv@
CONST	SEGMENT
??_C@_0O@GNLODFPJ@PriceRangeDiv@ DB 'PriceRangeDiv', 00H ; `string'
CONST	ENDS
;	COMDAT ??_C@_07FEGHFPHL@EquiDiv@
CONST	SEGMENT
??_C@_07FEGHFPHL@EquiDiv@ DB 'EquiDiv', 00H		; `string'
CONST	ENDS
;	COMDAT ??_C@_08JBGJKNHH@RightExt@
CONST	SEGMENT
??_C@_08JBGJKNHH@RightExt@ DB 'RightExt', 00H		; `string'
CONST	ENDS
;	COMDAT ??_C@_07FCOFBDCL@LeftExt@
CONST	SEGMENT
??_C@_07FCOFBDCL@LeftExt@ DB 'LeftExt', 00H		; `string'
CONST	ENDS
;	COMDAT ??_C@_09HDEKPJNE@RightText@
CONST	SEGMENT
??_C@_09HDEKPJNE@RightText@ DB 'RightText', 00H		; `string'
CONST	ENDS
;	COMDAT ??_C@_08BBFEGILF@LeftText@
CONST	SEGMENT
??_C@_08BBFEGILF@LeftText@ DB 'LeftText', 00H		; `string'
CONST	ENDS
;	COMDAT ??_C@_0L@KGKLHHNL@BottomText@
CONST	SEGMENT
??_C@_0L@KGKLHHNL@BottomText@ DB 'BottomText', 00H	; `string'
CONST	ENDS
;	COMDAT ??_C@_07ONLHAHEH@TopText@
CONST	SEGMENT
??_C@_07ONLHAHEH@TopText@ DB 'TopText', 00H		; `string'
CONST	ENDS
;	COMDAT ??_C@_04HDOCAJNK@?$CFs?$CFs@
CONST	SEGMENT
??_C@_04HDOCAJNK@?$CFs?$CFs@ DB '%s%s', 00H		; `string'
CONST	ENDS
;	COMDAT ??_C@_01IHBHIGKO@?0@
CONST	SEGMENT
??_C@_01IHBHIGKO@?0@ DB ',', 00H			; `string'
CONST	ENDS
;	COMDAT ??_C@_0BL@NNPKLAED@0?0236?0382?0500?0618?0786?01000@
CONST	SEGMENT
??_C@_0BL@NNPKLAED@0?0236?0382?0500?0618?0786?01000@ DB '0,236,382,500,61'
	DB	'8,786,1000', 00H				; `string'
CONST	ENDS
;	COMDAT ??_C@_0BI@PMLJCDKI@0?01?02?03?05?08?013?021?034?055@
CONST	SEGMENT
??_C@_0BI@PMLJCDKI@0?01?02?03?05?08?013?021?034?055@ DB '0,1,2,3,5,8,13,2'
	DB	'1,34,55', 00H				; `string'
CONST	ENDS
;	COMDAT ??_C@_0L@DFLJBNFO@?$CFs?$CI?$CF?41f?$CFs?$CJ@
CONST	SEGMENT
??_C@_0L@DFLJBNFO@?$CFs?$CI?$CF?41f?$CFs?$CJ@ DB '%s(%.1f%s)', 00H ; `string'
CONST	ENDS
;	COMDAT ??_C@_01FGNFDNOH@?$CF@
CONST	SEGMENT
??_C@_01FGNFDNOH@?$CF@ DB '%', 00H			; `string'
CONST	ENDS
;	COMDAT ?messageMap@?1??GetThisMessageMap@CDlgFiboSet@@KGPBUAFX_MSGMAP@@XZ@4U3@B
CONST	SEGMENT
?messageMap@?1??GetThisMessageMap@CDlgFiboSet@@KGPBUAFX_MSGMAP@@XZ@4U3@B DD FLAT:?GetThisMessageMap@CDialog@@KGPBUAFX_MSGMAP@@XZ ; `CDlgFiboSet::GetThisMessageMap'::`2'::messageMap
	DD	FLAT:?_messageEntries@?1??GetThisMessageMap@CDlgFiboSet@@KGPBUAFX_MSGMAP@@XZ@4QBUAFX_MSGMAP_ENTRY@@B
CONST	ENDS
;	COMDAT ?_messageEntries@?1??GetThisMessageMap@CDlgFiboSet@@KGPBUAFX_MSGMAP@@XZ@4QBUAFX_MSGMAP_ENTRY@@B
CONST	SEGMENT
?_messageEntries@?1??GetThisMessageMap@CDlgFiboSet@@KGPBUAFX_MSGMAP@@XZ@4QBUAFX_MSGMAP_ENTRY@@B DD 0111H ; `CDlgFiboSet::GetThisMessageMap'::`2'::_messageEntries
	DD	00H
	DD	01f45H
	DD	01f45H
	DD	03aH
	DD	FLAT:?OnColor@CDlgFiboSet@@IAEXXZ
	DD	0111H
	DD	00H
	DD	03H
	DD	03H
	DD	03aH
	DD	FLAT:?OnApplyBt@CDlgFiboSet@@IAEXXZ
	DD	0111H
	DD	01H
	DD	02363H
	DD	02363H
	DD	03aH
	DD	FLAT:?OnSelchangeWidth@CDlgFiboSet@@IAEXXZ
	DD	0111H
	DD	01H
	DD	0272eH
	DD	0272eH
	DD	03aH
	DD	FLAT:?OnSelchangeStyle@CDlgFiboSet@@IAEXXZ
	DD	04eH
	DD	0fd09H
	DD	042ceH
	DD	042ceH
	DD	03eH
	DD	FLAT:?OnDatetimechangeDatetimepickerXdate1@CDlgFiboSet@@IAEXPAUtagNMHDR@@PAJ@Z
	DD	04eH
	DD	0fd09H
	DD	042cfH
	DD	042cfH
	DD	03eH
	DD	FLAT:?OnDatetimechangeDatetimepickerXdate2@CDlgFiboSet@@IAEXPAUtagNMHDR@@PAJ@Z
	DD	04eH
	DD	0fd09H
	DD	042d0H
	DD	042d0H
	DD	03eH
	DD	FLAT:?OnDatetimechangeDatetimepickerXdate3@CDlgFiboSet@@IAEXPAUtagNMHDR@@PAJ@Z
	DD	0111H
	DD	00H
	DD	0fbcH
	DD	0fbcH
	DD	03aH
	DD	FLAT:?OnCancelBt@CDlgFiboSet@@IAEXXZ
	DD	0111H
	DD	00H
	DD	0fbbH
	DD	0fbbH
	DD	03aH
	DD	FLAT:?OnOkBt@CDlgFiboSet@@IAEXXZ
	DD	0111H
	DD	00H
	DD	0fbdH
	DD	0fc8H
	DD	03cH
	DD	FLAT:?OnCheck@CDlgFiboSet@@IAEXI@Z
	DD	00H
	DD	00H
	DD	00H
	DD	00H
	DD	00H
	DD	00H
CONST	ENDS
;	COMDAT ??_C@_0BA@ENJOCHIO@LoadResourceDLL@
CONST	SEGMENT
??_C@_0BA@ENJOCHIO@LoadResourceDLL@ DB 'LoadResourceDLL', 00H ; `string'
CONST	ENDS
;	COMDAT ??_C@_0BF@EGELCGDD@GetCurrentLanguageID@
CONST	SEGMENT
??_C@_0BF@EGELCGDD@GetCurrentLanguageID@ DB 'GetCurrentLanguageID', 00H ; `string'
CONST	ENDS
;	COMDAT ??_7CDlgFiboSet@@6B@
CONST	SEGMENT
??_7CDlgFiboSet@@6B@ DD FLAT:??_R4CDlgFiboSet@@6B@	; CDlgFiboSet::`vftable'
	DD	FLAT:?GetRuntimeClass@CDialog@@UBEPAUCRuntimeClass@@XZ
	DD	FLAT:??_ECDlgFiboSet@@UAEPAXI@Z
	DD	FLAT:?Serialize@CObject@@UAEXAAVCArchive@@@Z
	DD	FLAT:?AssertValid@CObject@@UBEXXZ
	DD	FLAT:?Dump@CObject@@UBEXAAVCDumpContext@@@Z
	DD	FLAT:?OnCmdMsg@CDialog@@UAEHIHPAXPAUAFX_CMDHANDLERINFO@@@Z
	DD	FLAT:?OnFinalRelease@CWnd@@UAEXXZ
	DD	FLAT:?IsInvokeAllowed@CCmdTarget@@UAEHJ@Z
	DD	FLAT:?GetDispatchIID@CCmdTarget@@UAEHPAU_GUID@@@Z
	DD	FLAT:?GetTypeInfoCount@CCmdTarget@@UAEIXZ
	DD	FLAT:?GetTypeLibCache@CCmdTarget@@UAEPAVCTypeLibCache@@XZ
	DD	FLAT:?GetTypeLib@CCmdTarget@@UAEJKPAPAUITypeLib@@@Z
	DD	FLAT:?GetMessageMap@CDlgFiboSet@@MBEPBUAFX_MSGMAP@@XZ
	DD	FLAT:?GetCommandMap@CCmdTarget@@MBEPBUAFX_OLECMDMAP@@XZ
	DD	FLAT:?GetDispatchMap@CCmdTarget@@MBEPBUAFX_DISPMAP@@XZ
	DD	FLAT:?GetConnectionMap@CCmdTarget@@MBEPBUAFX_CONNECTIONMAP@@XZ
	DD	FLAT:?GetInterfaceMap@CWnd@@MBEPBUAFX_INTERFACEMAP@@XZ
	DD	FLAT:?GetEventSinkMap@CCmdTarget@@MBEPBUAFX_EVENTSINKMAP@@XZ
	DD	FLAT:?OnCreateAggregates@CCmdTarget@@UAEHXZ
	DD	FLAT:?GetInterfaceHook@CCmdTarget@@UAEPAUIUnknown@@PBX@Z
	DD	FLAT:?GetExtraConnectionPoints@CCmdTarget@@MAEHPAVCPtrArray@@@Z
	DD	FLAT:?GetConnectionHook@CCmdTarget@@MAEPAUIConnectionPoint@@ABU_GUID@@@Z
	DD	FLAT:?PreSubclassWindow@CWnd@@UAEXXZ
	DD	FLAT:?Create@CWnd@@UAEHPBD0KABUtagRECT@@PAV1@IPAUCCreateContext@@@Z
	DD	FLAT:?CreateEx@CWnd@@UAEHKPBD0KABUtagRECT@@PAV1@IPAX@Z
	DD	FLAT:?CreateEx@CWnd@@UAEHKPBD0KHHHHPAUHWND__@@PAUHMENU__@@PAX@Z
	DD	FLAT:?DestroyWindow@CWnd@@UAEHXZ
	DD	FLAT:?PreCreateWindow@CWnd@@UAEHAAUtagCREATESTRUCTA@@@Z
	DD	FLAT:?CalcWindowRect@CWnd@@UAEXPAUtagRECT@@I@Z
	DD	FLAT:?GetMenu@CWnd@@UBEPAVCMenu@@XZ
	DD	FLAT:?SetMenu@CWnd@@UAEHPAVCMenu@@@Z
	DD	FLAT:?OnToolHitTest@CWnd@@UBEHVCPoint@@PAUtagTOOLINFOA@@@Z
	DD	FLAT:?GetScrollBarCtrl@CWnd@@UBEPAVCScrollBar@@H@Z
	DD	FLAT:?WinHelpA@CWnd@@UAEXKI@Z
	DD	FLAT:?HtmlHelpA@CWnd@@UAEXKI@Z
	DD	FLAT:?WinHelpInternal@CWnd@@UAEXKI@Z
	DD	FLAT:?ContinueModal@CWnd@@UAEHXZ
	DD	FLAT:?EndModalLoop@CWnd@@UAEXH@Z
	DD	FLAT:?OnDrawIconicThumbnailOrLivePreview@CWnd@@UAEXAAVCDC@@VCRect@@VCSize@@HAAH@Z
	DD	FLAT:?EnsureStdObj@CWnd@@UAEJXZ
	DD	FLAT:?get_accParent@CWnd@@UAEJPAPAUIDispatch@@@Z
	DD	FLAT:?get_accChildCount@CWnd@@UAEJPAJ@Z
	DD	FLAT:?get_accChild@CWnd@@UAEJUtagVARIANT@@PAPAUIDispatch@@@Z
	DD	FLAT:?get_accName@CWnd@@UAEJUtagVARIANT@@PAPA_W@Z
	DD	FLAT:?get_accValue@CWnd@@UAEJUtagVARIANT@@PAPA_W@Z
	DD	FLAT:?get_accDescription@CWnd@@UAEJUtagVARIANT@@PAPA_W@Z
	DD	FLAT:?get_accRole@CWnd@@UAEJUtagVARIANT@@PAU2@@Z
	DD	FLAT:?get_accState@CWnd@@UAEJUtagVARIANT@@PAU2@@Z
	DD	FLAT:?get_accHelp@CWnd@@UAEJUtagVARIANT@@PAPA_W@Z
	DD	FLAT:?get_accHelpTopic@CWnd@@UAEJPAPA_WUtagVARIANT@@PAJ@Z
	DD	FLAT:?get_accKeyboardShortcut@CWnd@@UAEJUtagVARIANT@@PAPA_W@Z
	DD	FLAT:?get_accFocus@CWnd@@UAEJPAUtagVARIANT@@@Z
	DD	FLAT:?get_accSelection@CWnd@@UAEJPAUtagVARIANT@@@Z
	DD	FLAT:?get_accDefaultAction@CWnd@@UAEJUtagVARIANT@@PAPA_W@Z
	DD	FLAT:?accSelect@CWnd@@UAEJJUtagVARIANT@@@Z
	DD	FLAT:?accLocation@CWnd@@UAEJPAJ000UtagVARIANT@@@Z
	DD	FLAT:?accNavigate@CWnd@@UAEJJUtagVARIANT@@PAU2@@Z
	DD	FLAT:?accHitTest@CWnd@@UAEJJJPAUtagVARIANT@@@Z
	DD	FLAT:?accDoDefaultAction@CWnd@@UAEJUtagVARIANT@@@Z
	DD	FLAT:?put_accName@CWnd@@UAEJUtagVARIANT@@PA_W@Z
	DD	FLAT:?put_accValue@CWnd@@UAEJUtagVARIANT@@PA_W@Z
	DD	FLAT:?SetProxy@CWnd@@UAEJPAUIAccessibleProxy@@@Z
	DD	FLAT:?CreateAccessibleProxy@CWnd@@UAEJIJPAJ@Z
	DD	FLAT:?OnCommand@CWnd@@MAEHIJ@Z
	DD	FLAT:?OnNotify@CWnd@@MAEHIJPAJ@Z
	DD	FLAT:?GetSuperWndProcAddr@CWnd@@MAEPAP6GJPAUHWND__@@IIJ@ZXZ
	DD	FLAT:?DoDataExchange@CDlgFiboSet@@MAEXPAVCDataExchange@@@Z
	DD	FLAT:?BeginModalState@CWnd@@UAEXXZ
	DD	FLAT:?EndModalState@CWnd@@UAEXXZ
	DD	FLAT:?PreTranslateMessage@CDialog@@UAEHPAUtagMSG@@@Z
	DD	FLAT:?OnAmbientProperty@CWnd@@UAEHPAVCOleControlSite@@JPAUtagVARIANT@@@Z
	DD	FLAT:?WindowProc@CWnd@@MAEJIIJ@Z
	DD	FLAT:?OnWndMsg@CWnd@@MAEHIIJPAJ@Z
	DD	FLAT:?DefWindowProcA@CWnd@@MAEJIIJ@Z
	DD	FLAT:?PostNcDestroy@CWnd@@MAEXXZ
	DD	FLAT:?OnChildNotify@CWnd@@MAEHIIJPAJ@Z
	DD	FLAT:?OnTouchInputs@CWnd@@MAEHIPAUtagTOUCHINPUT@@@Z
	DD	FLAT:?OnTouchInput@CWnd@@MAEHVCPoint@@HHPAUtagTOUCHINPUT@@@Z
	DD	FLAT:?GetGestureStatus@CWnd@@MAEKVCPoint@@@Z
	DD	FLAT:?OnGestureZoom@CWnd@@MAEHVCPoint@@J@Z
	DD	FLAT:?OnGesturePan@CWnd@@MAEHVCPoint@@0@Z
	DD	FLAT:?OnGestureRotate@CWnd@@MAEHVCPoint@@N@Z
	DD	FLAT:?OnGestureTwoFingerTap@CWnd@@MAEHVCPoint@@@Z
	DD	FLAT:?OnGesturePressAndTap@CWnd@@MAEHVCPoint@@J@Z
	DD	FLAT:?ResizeDynamicLayout@CWnd@@MAEXXZ
	DD	FLAT:?CheckAutoCenter@CDialog@@UAEHXZ
	DD	FLAT:?IsFrameWnd@CWnd@@UBEHXZ
	DD	FLAT:?CreateControlContainer@CWnd@@MAEHPAPAVCOleControlContainer@@@Z
	DD	FLAT:?CreateControlSite@CWnd@@MAEHPAVCOleControlContainer@@PAPAVCOleControlSite@@IABU_GUID@@@Z
	DD	FLAT:?SetOccDialogInfo@CDialog@@MAEHPAU_AFX_OCC_DIALOG_INFO@@@Z
	DD	FLAT:?GetOccDialogInfo@CDialog@@MAEPAU_AFX_OCC_DIALOG_INFO@@XZ
	DD	FLAT:?Create@CDialog@@UAEHIPAVCWnd@@@Z
	DD	FLAT:?Create@CDialog@@UAEHPBDPAVCWnd@@@Z
	DD	FLAT:?CreateIndirect@CDialog@@UAEHPAXPAVCWnd@@@Z
	DD	FLAT:?CreateIndirect@CDialog@@UAEHPBUDLGTEMPLATE@@PAVCWnd@@PAX@Z
	DD	FLAT:?DoModal@CDialog@@UAEHXZ
	DD	FLAT:?OnInitDialog@CDlgFiboSet@@MAEHXZ
	DD	FLAT:?OnSetFont@CDialog@@UAEXPAVCFont@@@Z
	DD	FLAT:?OnOK@CDialog@@MAEXXZ
	DD	FLAT:?OnCancel@CDialog@@MAEXXZ
	DD	FLAT:?PreInitDialog@CDialog@@MAEXXZ
CONST	ENDS
;	COMDAT ??_C@_0BF@BMLEKMON@AnalysisPropInfo?4ans@
CONST	SEGMENT
??_C@_0BF@BMLEKMON@AnalysisPropInfo?4ans@ DB 'AnalysisPropInfo.ans', 00H ; `string'
CONST	ENDS
;	COMDAT __CT??_R0?AVexception@std@@@8??0exception@std@@QAE@ABV01@@Z12
xdata$x	SEGMENT
__CT??_R0?AVexception@std@@@8??0exception@std@@QAE@ABV01@@Z12 DD 00H
	DD	FLAT:??_R0?AVexception@std@@@8
	DD	00H
	DD	0ffffffffH
	ORG $+4
	DD	0cH
	DD	FLAT:??0exception@std@@QAE@ABV01@@Z
xdata$x	ENDS
;	COMDAT ??_R0?AVexception@std@@@8
data$r	SEGMENT
??_R0?AVexception@std@@@8 DD FLAT:??_7type_info@@6B@	; std::exception `RTTI Type Descriptor'
	DD	00H
	DB	'.?AVexception@std@@', 00H
data$r	ENDS
;	COMDAT __CT??_R0?AVbad_alloc@std@@@8??0bad_alloc@std@@QAE@ABV01@@Z12
xdata$x	SEGMENT
__CT??_R0?AVbad_alloc@std@@@8??0bad_alloc@std@@QAE@ABV01@@Z12 DD 010H
	DD	FLAT:??_R0?AVbad_alloc@std@@@8
	DD	00H
	DD	0ffffffffH
	ORG $+4
	DD	0cH
	DD	FLAT:??0bad_alloc@std@@QAE@ABV01@@Z
xdata$x	ENDS
;	COMDAT ??_R0?AVbad_alloc@std@@@8
data$r	SEGMENT
??_R0?AVbad_alloc@std@@@8 DD FLAT:??_7type_info@@6B@	; std::bad_alloc `RTTI Type Descriptor'
	DD	00H
	DB	'.?AVbad_alloc@std@@', 00H
data$r	ENDS
;	COMDAT __CT??_R0?AVbad_array_new_length@std@@@8??0bad_array_new_length@std@@QAE@ABV01@@Z12
xdata$x	SEGMENT
__CT??_R0?AVbad_array_new_length@std@@@8??0bad_array_new_length@std@@QAE@ABV01@@Z12 DD 00H
	DD	FLAT:??_R0?AVbad_array_new_length@std@@@8
	DD	00H
	DD	0ffffffffH
	ORG $+4
	DD	0cH
	DD	FLAT:??0bad_array_new_length@std@@QAE@ABV01@@Z
xdata$x	ENDS
;	COMDAT ??_R0?AVbad_array_new_length@std@@@8
data$r	SEGMENT
??_R0?AVbad_array_new_length@std@@@8 DD FLAT:??_7type_info@@6B@ ; std::bad_array_new_length `RTTI Type Descriptor'
	DD	00H
	DB	'.?AVbad_array_new_length@std@@', 00H
data$r	ENDS
;	COMDAT __CTA3?AVbad_array_new_length@std@@
xdata$x	SEGMENT
__CTA3?AVbad_array_new_length@std@@ DD 03H
	DD	FLAT:__CT??_R0?AVbad_array_new_length@std@@@8??0bad_array_new_length@std@@QAE@ABV01@@Z12
	DD	FLAT:__CT??_R0?AVbad_alloc@std@@@8??0bad_alloc@std@@QAE@ABV01@@Z12
	DD	FLAT:__CT??_R0?AVexception@std@@@8??0exception@std@@QAE@ABV01@@Z12
xdata$x	ENDS
;	COMDAT __TI3?AVbad_array_new_length@std@@
xdata$x	SEGMENT
__TI3?AVbad_array_new_length@std@@ DD 00H
	DD	FLAT:??1bad_array_new_length@std@@UAE@XZ
	DD	00H
	DD	FLAT:__CTA3?AVbad_array_new_length@std@@
xdata$x	ENDS
;	COMDAT ??_C@_0BF@KINCDENJ@bad?5array?5new?5length@
CONST	SEGMENT
??_C@_0BF@KINCDENJ@bad?5array?5new?5length@ DB 'bad array new length', 00H ; `string'
CONST	ENDS
;	COMDAT ??_7bad_array_new_length@std@@6B@
CONST	SEGMENT
??_7bad_array_new_length@std@@6B@ DD FLAT:??_R4bad_array_new_length@std@@6B@ ; std::bad_array_new_length::`vftable'
	DD	FLAT:??_Ebad_array_new_length@std@@UAEPAXI@Z
	DD	FLAT:?what@exception@std@@UBEPBDXZ
CONST	ENDS
;	COMDAT ??_7bad_alloc@std@@6B@
CONST	SEGMENT
??_7bad_alloc@std@@6B@ DD FLAT:??_R4bad_alloc@std@@6B@	; std::bad_alloc::`vftable'
	DD	FLAT:??_Ebad_alloc@std@@UAEPAXI@Z
	DD	FLAT:?what@exception@std@@UBEPBDXZ
CONST	ENDS
;	COMDAT ??_C@_0BC@EOODALEL@Unknown?5exception@
CONST	SEGMENT
??_C@_0BC@EOODALEL@Unknown?5exception@ DB 'Unknown exception', 00H ; `string'
CONST	ENDS
;	COMDAT ??_7exception@std@@6B@
CONST	SEGMENT
??_7exception@std@@6B@ DD FLAT:??_R4exception@std@@6B@	; std::exception::`vftable'
	DD	FLAT:??_Eexception@std@@UAEPAXI@Z
	DD	FLAT:?what@exception@std@@UBEPBDXZ
CONST	ENDS
;	COMDAT ??_R1A@?0A@EA@CDateTimeCtrl@@8
rdata$r	SEGMENT
??_R1A@?0A@EA@CDateTimeCtrl@@8 DD FLAT:??_R0?AVCDateTimeCtrl@@@8 ; CDateTimeCtrl::`RTTI Base Class Descriptor at (0,-1,0,64)'
	DD	03H
	DD	00H
	DD	0ffffffffH
	DD	00H
	DD	040H
	DD	FLAT:??_R3CDateTimeCtrl@@8
rdata$r	ENDS
;	COMDAT ??_R2CDateTimeCtrl@@8
rdata$r	SEGMENT
??_R2CDateTimeCtrl@@8 DD FLAT:??_R1A@?0A@EA@CDateTimeCtrl@@8 ; CDateTimeCtrl::`RTTI Base Class Array'
	DD	FLAT:??_R1A@?0A@EA@CWnd@@8
	DD	FLAT:??_R1A@?0A@EA@CCmdTarget@@8
	DD	FLAT:??_R1A@?0A@EA@CObject@@8
rdata$r	ENDS
;	COMDAT ??_R3CDateTimeCtrl@@8
rdata$r	SEGMENT
??_R3CDateTimeCtrl@@8 DD 00H				; CDateTimeCtrl::`RTTI Class Hierarchy Descriptor'
	DD	00H
	DD	04H
	DD	FLAT:??_R2CDateTimeCtrl@@8
rdata$r	ENDS
;	COMDAT ??_R0?AVCDateTimeCtrl@@@8
data$rs	SEGMENT
??_R0?AVCDateTimeCtrl@@@8 DD FLAT:??_7type_info@@6B@	; CDateTimeCtrl `RTTI Type Descriptor'
	DD	00H
	DB	'.?AVCDateTimeCtrl@@', 00H
data$rs	ENDS
;	COMDAT ??_R4CDateTimeCtrl@@6B@
rdata$r	SEGMENT
??_R4CDateTimeCtrl@@6B@ DD 00H				; CDateTimeCtrl::`RTTI Complete Object Locator'
	DD	00H
	DD	00H
	DD	FLAT:??_R0?AVCDateTimeCtrl@@@8
	DD	FLAT:??_R3CDateTimeCtrl@@8
rdata$r	ENDS
;	COMDAT ??_R2CDialog@@8
rdata$r	SEGMENT
??_R2CDialog@@8 DD FLAT:??_R1A@?0A@EA@CDialog@@8	; CDialog::`RTTI Base Class Array'
	DD	FLAT:??_R1A@?0A@EA@CWnd@@8
	DD	FLAT:??_R1A@?0A@EA@CCmdTarget@@8
	DD	FLAT:??_R1A@?0A@EA@CObject@@8
rdata$r	ENDS
;	COMDAT ??_R3CDialog@@8
rdata$r	SEGMENT
??_R3CDialog@@8 DD 00H					; CDialog::`RTTI Class Hierarchy Descriptor'
	DD	00H
	DD	04H
	DD	FLAT:??_R2CDialog@@8
rdata$r	ENDS
;	COMDAT ??_R0?AVCDialog@@@8
data$rs	SEGMENT
??_R0?AVCDialog@@@8 DD FLAT:??_7type_info@@6B@		; CDialog `RTTI Type Descriptor'
	DD	00H
	DB	'.?AVCDialog@@', 00H
data$rs	ENDS
;	COMDAT ??_R1A@?0A@EA@CDialog@@8
rdata$r	SEGMENT
??_R1A@?0A@EA@CDialog@@8 DD FLAT:??_R0?AVCDialog@@@8	; CDialog::`RTTI Base Class Descriptor at (0,-1,0,64)'
	DD	03H
	DD	00H
	DD	0ffffffffH
	DD	00H
	DD	040H
	DD	FLAT:??_R3CDialog@@8
rdata$r	ENDS
;	COMDAT ??_R1A@?0A@EA@CCommonDialog@@8
rdata$r	SEGMENT
??_R1A@?0A@EA@CCommonDialog@@8 DD FLAT:??_R0?AVCCommonDialog@@@8 ; CCommonDialog::`RTTI Base Class Descriptor at (0,-1,0,64)'
	DD	04H
	DD	00H
	DD	0ffffffffH
	DD	00H
	DD	040H
	DD	FLAT:??_R3CCommonDialog@@8
rdata$r	ENDS
;	COMDAT ??_R2CCommonDialog@@8
rdata$r	SEGMENT
??_R2CCommonDialog@@8 DD FLAT:??_R1A@?0A@EA@CCommonDialog@@8 ; CCommonDialog::`RTTI Base Class Array'
	DD	FLAT:??_R1A@?0A@EA@CDialog@@8
	DD	FLAT:??_R1A@?0A@EA@CWnd@@8
	DD	FLAT:??_R1A@?0A@EA@CCmdTarget@@8
	DD	FLAT:??_R1A@?0A@EA@CObject@@8
rdata$r	ENDS
;	COMDAT ??_R3CCommonDialog@@8
rdata$r	SEGMENT
??_R3CCommonDialog@@8 DD 00H				; CCommonDialog::`RTTI Class Hierarchy Descriptor'
	DD	00H
	DD	05H
	DD	FLAT:??_R2CCommonDialog@@8
rdata$r	ENDS
;	COMDAT ??_R0?AVCCommonDialog@@@8
data$rs	SEGMENT
??_R0?AVCCommonDialog@@@8 DD FLAT:??_7type_info@@6B@	; CCommonDialog `RTTI Type Descriptor'
	DD	00H
	DB	'.?AVCCommonDialog@@', 00H
data$rs	ENDS
;	COMDAT ??_R4CCommonDialog@@6B@
rdata$r	SEGMENT
??_R4CCommonDialog@@6B@ DD 00H				; CCommonDialog::`RTTI Complete Object Locator'
	DD	00H
	DD	00H
	DD	FLAT:??_R0?AVCCommonDialog@@@8
	DD	FLAT:??_R3CCommonDialog@@8
rdata$r	ENDS
;	COMDAT ??_R1A@?0A@EA@CEdit@@8
rdata$r	SEGMENT
??_R1A@?0A@EA@CEdit@@8 DD FLAT:??_R0?AVCEdit@@@8	; CEdit::`RTTI Base Class Descriptor at (0,-1,0,64)'
	DD	03H
	DD	00H
	DD	0ffffffffH
	DD	00H
	DD	040H
	DD	FLAT:??_R3CEdit@@8
rdata$r	ENDS
;	COMDAT ??_R2CEdit@@8
rdata$r	SEGMENT
??_R2CEdit@@8 DD FLAT:??_R1A@?0A@EA@CEdit@@8		; CEdit::`RTTI Base Class Array'
	DD	FLAT:??_R1A@?0A@EA@CWnd@@8
	DD	FLAT:??_R1A@?0A@EA@CCmdTarget@@8
	DD	FLAT:??_R1A@?0A@EA@CObject@@8
rdata$r	ENDS
;	COMDAT ??_R3CEdit@@8
rdata$r	SEGMENT
??_R3CEdit@@8 DD 00H					; CEdit::`RTTI Class Hierarchy Descriptor'
	DD	00H
	DD	04H
	DD	FLAT:??_R2CEdit@@8
rdata$r	ENDS
;	COMDAT ??_R0?AVCEdit@@@8
data$rs	SEGMENT
??_R0?AVCEdit@@@8 DD FLAT:??_7type_info@@6B@		; CEdit `RTTI Type Descriptor'
	DD	00H
	DB	'.?AVCEdit@@', 00H
data$rs	ENDS
;	COMDAT ??_R4CEdit@@6B@
rdata$r	SEGMENT
??_R4CEdit@@6B@ DD 00H					; CEdit::`RTTI Complete Object Locator'
	DD	00H
	DD	00H
	DD	FLAT:??_R0?AVCEdit@@@8
	DD	FLAT:??_R3CEdit@@8
rdata$r	ENDS
;	COMDAT ??_R1A@?0A@EA@CButton@@8
rdata$r	SEGMENT
??_R1A@?0A@EA@CButton@@8 DD FLAT:??_R0?AVCButton@@@8	; CButton::`RTTI Base Class Descriptor at (0,-1,0,64)'
	DD	03H
	DD	00H
	DD	0ffffffffH
	DD	00H
	DD	040H
	DD	FLAT:??_R3CButton@@8
rdata$r	ENDS
;	COMDAT ??_R2CButton@@8
rdata$r	SEGMENT
??_R2CButton@@8 DD FLAT:??_R1A@?0A@EA@CButton@@8	; CButton::`RTTI Base Class Array'
	DD	FLAT:??_R1A@?0A@EA@CWnd@@8
	DD	FLAT:??_R1A@?0A@EA@CCmdTarget@@8
	DD	FLAT:??_R1A@?0A@EA@CObject@@8
rdata$r	ENDS
;	COMDAT ??_R3CButton@@8
rdata$r	SEGMENT
??_R3CButton@@8 DD 00H					; CButton::`RTTI Class Hierarchy Descriptor'
	DD	00H
	DD	04H
	DD	FLAT:??_R2CButton@@8
rdata$r	ENDS
;	COMDAT ??_R0?AVCButton@@@8
data$rs	SEGMENT
??_R0?AVCButton@@@8 DD FLAT:??_7type_info@@6B@		; CButton `RTTI Type Descriptor'
	DD	00H
	DB	'.?AVCButton@@', 00H
data$rs	ENDS
;	COMDAT ??_R4CButton@@6B@
rdata$r	SEGMENT
??_R4CButton@@6B@ DD 00H				; CButton::`RTTI Complete Object Locator'
	DD	00H
	DD	00H
	DD	FLAT:??_R0?AVCButton@@@8
	DD	FLAT:??_R3CButton@@8
rdata$r	ENDS
;	COMDAT ??_R2CCmdTarget@@8
rdata$r	SEGMENT
??_R2CCmdTarget@@8 DD FLAT:??_R1A@?0A@EA@CCmdTarget@@8	; CCmdTarget::`RTTI Base Class Array'
	DD	FLAT:??_R1A@?0A@EA@CObject@@8
rdata$r	ENDS
;	COMDAT ??_R3CCmdTarget@@8
rdata$r	SEGMENT
??_R3CCmdTarget@@8 DD 00H				; CCmdTarget::`RTTI Class Hierarchy Descriptor'
	DD	00H
	DD	02H
	DD	FLAT:??_R2CCmdTarget@@8
rdata$r	ENDS
;	COMDAT ??_R0?AVCCmdTarget@@@8
data$rs	SEGMENT
??_R0?AVCCmdTarget@@@8 DD FLAT:??_7type_info@@6B@	; CCmdTarget `RTTI Type Descriptor'
	DD	00H
	DB	'.?AVCCmdTarget@@', 00H
data$rs	ENDS
;	COMDAT ??_R1A@?0A@EA@CCmdTarget@@8
rdata$r	SEGMENT
??_R1A@?0A@EA@CCmdTarget@@8 DD FLAT:??_R0?AVCCmdTarget@@@8 ; CCmdTarget::`RTTI Base Class Descriptor at (0,-1,0,64)'
	DD	01H
	DD	00H
	DD	0ffffffffH
	DD	00H
	DD	040H
	DD	FLAT:??_R3CCmdTarget@@8
rdata$r	ENDS
;	COMDAT ??_R2CWnd@@8
rdata$r	SEGMENT
??_R2CWnd@@8 DD	FLAT:??_R1A@?0A@EA@CWnd@@8		; CWnd::`RTTI Base Class Array'
	DD	FLAT:??_R1A@?0A@EA@CCmdTarget@@8
	DD	FLAT:??_R1A@?0A@EA@CObject@@8
rdata$r	ENDS
;	COMDAT ??_R3CWnd@@8
rdata$r	SEGMENT
??_R3CWnd@@8 DD	00H					; CWnd::`RTTI Class Hierarchy Descriptor'
	DD	00H
	DD	03H
	DD	FLAT:??_R2CWnd@@8
rdata$r	ENDS
;	COMDAT ??_R0?AVCWnd@@@8
data$rs	SEGMENT
??_R0?AVCWnd@@@8 DD FLAT:??_7type_info@@6B@		; CWnd `RTTI Type Descriptor'
	DD	00H
	DB	'.?AVCWnd@@', 00H
data$rs	ENDS
;	COMDAT ??_R1A@?0A@EA@CWnd@@8
rdata$r	SEGMENT
??_R1A@?0A@EA@CWnd@@8 DD FLAT:??_R0?AVCWnd@@@8		; CWnd::`RTTI Base Class Descriptor at (0,-1,0,64)'
	DD	02H
	DD	00H
	DD	0ffffffffH
	DD	00H
	DD	040H
	DD	FLAT:??_R3CWnd@@8
rdata$r	ENDS
;	COMDAT ??_R1A@?0A@EA@CBitmap@@8
rdata$r	SEGMENT
??_R1A@?0A@EA@CBitmap@@8 DD FLAT:??_R0?AVCBitmap@@@8	; CBitmap::`RTTI Base Class Descriptor at (0,-1,0,64)'
	DD	02H
	DD	00H
	DD	0ffffffffH
	DD	00H
	DD	040H
	DD	FLAT:??_R3CBitmap@@8
rdata$r	ENDS
;	COMDAT ??_R2CBitmap@@8
rdata$r	SEGMENT
??_R2CBitmap@@8 DD FLAT:??_R1A@?0A@EA@CBitmap@@8	; CBitmap::`RTTI Base Class Array'
	DD	FLAT:??_R1A@?0A@EA@CGdiObject@@8
	DD	FLAT:??_R1A@?0A@EA@CObject@@8
rdata$r	ENDS
;	COMDAT ??_R3CBitmap@@8
rdata$r	SEGMENT
??_R3CBitmap@@8 DD 00H					; CBitmap::`RTTI Class Hierarchy Descriptor'
	DD	00H
	DD	03H
	DD	FLAT:??_R2CBitmap@@8
rdata$r	ENDS
;	COMDAT ??_R0?AVCBitmap@@@8
data$rs	SEGMENT
??_R0?AVCBitmap@@@8 DD FLAT:??_7type_info@@6B@		; CBitmap `RTTI Type Descriptor'
	DD	00H
	DB	'.?AVCBitmap@@', 00H
data$rs	ENDS
;	COMDAT ??_R4CBitmap@@6B@
rdata$r	SEGMENT
??_R4CBitmap@@6B@ DD 00H				; CBitmap::`RTTI Complete Object Locator'
	DD	00H
	DD	00H
	DD	FLAT:??_R0?AVCBitmap@@@8
	DD	FLAT:??_R3CBitmap@@8
rdata$r	ENDS
;	COMDAT ??_R1A@?0A@EA@CGdiObject@@8
rdata$r	SEGMENT
??_R1A@?0A@EA@CGdiObject@@8 DD FLAT:??_R0?AVCGdiObject@@@8 ; CGdiObject::`RTTI Base Class Descriptor at (0,-1,0,64)'
	DD	01H
	DD	00H
	DD	0ffffffffH
	DD	00H
	DD	040H
	DD	FLAT:??_R3CGdiObject@@8
rdata$r	ENDS
;	COMDAT ??_R2CGdiObject@@8
rdata$r	SEGMENT
??_R2CGdiObject@@8 DD FLAT:??_R1A@?0A@EA@CGdiObject@@8	; CGdiObject::`RTTI Base Class Array'
	DD	FLAT:??_R1A@?0A@EA@CObject@@8
rdata$r	ENDS
;	COMDAT ??_R3CGdiObject@@8
rdata$r	SEGMENT
??_R3CGdiObject@@8 DD 00H				; CGdiObject::`RTTI Class Hierarchy Descriptor'
	DD	00H
	DD	02H
	DD	FLAT:??_R2CGdiObject@@8
rdata$r	ENDS
;	COMDAT ??_R0?AVCGdiObject@@@8
data$rs	SEGMENT
??_R0?AVCGdiObject@@@8 DD FLAT:??_7type_info@@6B@	; CGdiObject `RTTI Type Descriptor'
	DD	00H
	DB	'.?AVCGdiObject@@', 00H
data$rs	ENDS
;	COMDAT ??_R4CGdiObject@@6B@
rdata$r	SEGMENT
??_R4CGdiObject@@6B@ DD 00H				; CGdiObject::`RTTI Complete Object Locator'
	DD	00H
	DD	00H
	DD	FLAT:??_R0?AVCGdiObject@@@8
	DD	FLAT:??_R3CGdiObject@@8
rdata$r	ENDS
;	COMDAT ??_R1A@?0A@EA@CObject@@8
rdata$r	SEGMENT
??_R1A@?0A@EA@CObject@@8 DD FLAT:??_R0?AVCObject@@@8	; CObject::`RTTI Base Class Descriptor at (0,-1,0,64)'
	DD	00H
	DD	00H
	DD	0ffffffffH
	DD	00H
	DD	040H
	DD	FLAT:??_R3CObject@@8
rdata$r	ENDS
;	COMDAT ??_R2CObject@@8
rdata$r	SEGMENT
??_R2CObject@@8 DD FLAT:??_R1A@?0A@EA@CObject@@8	; CObject::`RTTI Base Class Array'
rdata$r	ENDS
;	COMDAT ??_R3CObject@@8
rdata$r	SEGMENT
??_R3CObject@@8 DD 00H					; CObject::`RTTI Class Hierarchy Descriptor'
	DD	00H
	DD	01H
	DD	FLAT:??_R2CObject@@8
rdata$r	ENDS
;	COMDAT ??_R0?AVCObject@@@8
data$rs	SEGMENT
??_R0?AVCObject@@@8 DD FLAT:??_7type_info@@6B@		; CObject `RTTI Type Descriptor'
	DD	00H
	DB	'.?AVCObject@@', 00H
data$rs	ENDS
;	COMDAT ??_7CDateTimeCtrl@@6B@
CONST	SEGMENT
??_7CDateTimeCtrl@@6B@ DD FLAT:??_R4CDateTimeCtrl@@6B@	; CDateTimeCtrl::`vftable'
	DD	FLAT:?GetRuntimeClass@CDateTimeCtrl@@UBEPAUCRuntimeClass@@XZ
	DD	FLAT:??_ECDateTimeCtrl@@UAEPAXI@Z
	DD	FLAT:?Serialize@CObject@@UAEXAAVCArchive@@@Z
	DD	FLAT:?AssertValid@CObject@@UBEXXZ
	DD	FLAT:?Dump@CObject@@UBEXAAVCDumpContext@@@Z
	DD	FLAT:?OnCmdMsg@CCmdTarget@@UAEHIHPAXPAUAFX_CMDHANDLERINFO@@@Z
	DD	FLAT:?OnFinalRelease@CWnd@@UAEXXZ
	DD	FLAT:?IsInvokeAllowed@CCmdTarget@@UAEHJ@Z
	DD	FLAT:?GetDispatchIID@CCmdTarget@@UAEHPAU_GUID@@@Z
	DD	FLAT:?GetTypeInfoCount@CCmdTarget@@UAEIXZ
	DD	FLAT:?GetTypeLibCache@CCmdTarget@@UAEPAVCTypeLibCache@@XZ
	DD	FLAT:?GetTypeLib@CCmdTarget@@UAEJKPAPAUITypeLib@@@Z
	DD	FLAT:?GetMessageMap@CWnd@@MBEPBUAFX_MSGMAP@@XZ
	DD	FLAT:?GetCommandMap@CCmdTarget@@MBEPBUAFX_OLECMDMAP@@XZ
	DD	FLAT:?GetDispatchMap@CCmdTarget@@MBEPBUAFX_DISPMAP@@XZ
	DD	FLAT:?GetConnectionMap@CCmdTarget@@MBEPBUAFX_CONNECTIONMAP@@XZ
	DD	FLAT:?GetInterfaceMap@CWnd@@MBEPBUAFX_INTERFACEMAP@@XZ
	DD	FLAT:?GetEventSinkMap@CCmdTarget@@MBEPBUAFX_EVENTSINKMAP@@XZ
	DD	FLAT:?OnCreateAggregates@CCmdTarget@@UAEHXZ
	DD	FLAT:?GetInterfaceHook@CCmdTarget@@UAEPAUIUnknown@@PBX@Z
	DD	FLAT:?GetExtraConnectionPoints@CCmdTarget@@MAEHPAVCPtrArray@@@Z
	DD	FLAT:?GetConnectionHook@CCmdTarget@@MAEPAUIConnectionPoint@@ABU_GUID@@@Z
	DD	FLAT:?PreSubclassWindow@CWnd@@UAEXXZ
	DD	FLAT:?Create@CWnd@@UAEHPBD0KABUtagRECT@@PAV1@IPAUCCreateContext@@@Z
	DD	FLAT:?CreateEx@CWnd@@UAEHKPBD0KABUtagRECT@@PAV1@IPAX@Z
	DD	FLAT:?CreateEx@CWnd@@UAEHKPBD0KHHHHPAUHWND__@@PAUHMENU__@@PAX@Z
	DD	FLAT:?DestroyWindow@CWnd@@UAEHXZ
	DD	FLAT:?PreCreateWindow@CWnd@@UAEHAAUtagCREATESTRUCTA@@@Z
	DD	FLAT:?CalcWindowRect@CWnd@@UAEXPAUtagRECT@@I@Z
	DD	FLAT:?GetMenu@CWnd@@UBEPAVCMenu@@XZ
	DD	FLAT:?SetMenu@CWnd@@UAEHPAVCMenu@@@Z
	DD	FLAT:?OnToolHitTest@CWnd@@UBEHVCPoint@@PAUtagTOOLINFOA@@@Z
	DD	FLAT:?GetScrollBarCtrl@CWnd@@UBEPAVCScrollBar@@H@Z
	DD	FLAT:?WinHelpA@CWnd@@UAEXKI@Z
	DD	FLAT:?HtmlHelpA@CWnd@@UAEXKI@Z
	DD	FLAT:?WinHelpInternal@CWnd@@UAEXKI@Z
	DD	FLAT:?ContinueModal@CWnd@@UAEHXZ
	DD	FLAT:?EndModalLoop@CWnd@@UAEXH@Z
	DD	FLAT:?OnDrawIconicThumbnailOrLivePreview@CWnd@@UAEXAAVCDC@@VCRect@@VCSize@@HAAH@Z
	DD	FLAT:?EnsureStdObj@CWnd@@UAEJXZ
	DD	FLAT:?get_accParent@CWnd@@UAEJPAPAUIDispatch@@@Z
	DD	FLAT:?get_accChildCount@CWnd@@UAEJPAJ@Z
	DD	FLAT:?get_accChild@CWnd@@UAEJUtagVARIANT@@PAPAUIDispatch@@@Z
	DD	FLAT:?get_accName@CWnd@@UAEJUtagVARIANT@@PAPA_W@Z
	DD	FLAT:?get_accValue@CWnd@@UAEJUtagVARIANT@@PAPA_W@Z
	DD	FLAT:?get_accDescription@CWnd@@UAEJUtagVARIANT@@PAPA_W@Z
	DD	FLAT:?get_accRole@CWnd@@UAEJUtagVARIANT@@PAU2@@Z
	DD	FLAT:?get_accState@CWnd@@UAEJUtagVARIANT@@PAU2@@Z
	DD	FLAT:?get_accHelp@CWnd@@UAEJUtagVARIANT@@PAPA_W@Z
	DD	FLAT:?get_accHelpTopic@CWnd@@UAEJPAPA_WUtagVARIANT@@PAJ@Z
	DD	FLAT:?get_accKeyboardShortcut@CWnd@@UAEJUtagVARIANT@@PAPA_W@Z
	DD	FLAT:?get_accFocus@CWnd@@UAEJPAUtagVARIANT@@@Z
	DD	FLAT:?get_accSelection@CWnd@@UAEJPAUtagVARIANT@@@Z
	DD	FLAT:?get_accDefaultAction@CWnd@@UAEJUtagVARIANT@@PAPA_W@Z
	DD	FLAT:?accSelect@CWnd@@UAEJJUtagVARIANT@@@Z
	DD	FLAT:?accLocation@CWnd@@UAEJPAJ000UtagVARIANT@@@Z
	DD	FLAT:?accNavigate@CWnd@@UAEJJUtagVARIANT@@PAU2@@Z
	DD	FLAT:?accHitTest@CWnd@@UAEJJJPAUtagVARIANT@@@Z
	DD	FLAT:?accDoDefaultAction@CWnd@@UAEJUtagVARIANT@@@Z
	DD	FLAT:?put_accName@CWnd@@UAEJUtagVARIANT@@PA_W@Z
	DD	FLAT:?put_accValue@CWnd@@UAEJUtagVARIANT@@PA_W@Z
	DD	FLAT:?SetProxy@CWnd@@UAEJPAUIAccessibleProxy@@@Z
	DD	FLAT:?CreateAccessibleProxy@CWnd@@UAEJIJPAJ@Z
	DD	FLAT:?OnCommand@CWnd@@MAEHIJ@Z
	DD	FLAT:?OnNotify@CWnd@@MAEHIJPAJ@Z
	DD	FLAT:?GetSuperWndProcAddr@CWnd@@MAEPAP6GJPAUHWND__@@IIJ@ZXZ
	DD	FLAT:?DoDataExchange@CWnd@@MAEXPAVCDataExchange@@@Z
	DD	FLAT:?BeginModalState@CWnd@@UAEXXZ
	DD	FLAT:?EndModalState@CWnd@@UAEXXZ
	DD	FLAT:?PreTranslateMessage@CWnd@@UAEHPAUtagMSG@@@Z
	DD	FLAT:?OnAmbientProperty@CWnd@@UAEHPAVCOleControlSite@@JPAUtagVARIANT@@@Z
	DD	FLAT:?WindowProc@CWnd@@MAEJIIJ@Z
	DD	FLAT:?OnWndMsg@CWnd@@MAEHIIJPAJ@Z
	DD	FLAT:?DefWindowProcA@CWnd@@MAEJIIJ@Z
	DD	FLAT:?PostNcDestroy@CWnd@@MAEXXZ
	DD	FLAT:?OnChildNotify@CWnd@@MAEHIIJPAJ@Z
	DD	FLAT:?OnTouchInputs@CWnd@@MAEHIPAUtagTOUCHINPUT@@@Z
	DD	FLAT:?OnTouchInput@CWnd@@MAEHVCPoint@@HHPAUtagTOUCHINPUT@@@Z
	DD	FLAT:?GetGestureStatus@CWnd@@MAEKVCPoint@@@Z
	DD	FLAT:?OnGestureZoom@CWnd@@MAEHVCPoint@@J@Z
	DD	FLAT:?OnGesturePan@CWnd@@MAEHVCPoint@@0@Z
	DD	FLAT:?OnGestureRotate@CWnd@@MAEHVCPoint@@N@Z
	DD	FLAT:?OnGestureTwoFingerTap@CWnd@@MAEHVCPoint@@@Z
	DD	FLAT:?OnGesturePressAndTap@CWnd@@MAEHVCPoint@@J@Z
	DD	FLAT:?ResizeDynamicLayout@CWnd@@MAEXXZ
	DD	FLAT:?CheckAutoCenter@CWnd@@UAEHXZ
	DD	FLAT:?IsFrameWnd@CWnd@@UBEHXZ
	DD	FLAT:?CreateControlContainer@CWnd@@MAEHPAPAVCOleControlContainer@@@Z
	DD	FLAT:?CreateControlSite@CWnd@@MAEHPAVCOleControlContainer@@PAPAVCOleControlSite@@IABU_GUID@@@Z
	DD	FLAT:?SetOccDialogInfo@CWnd@@MAEHPAU_AFX_OCC_DIALOG_INFO@@@Z
	DD	FLAT:?GetOccDialogInfo@CWnd@@MAEPAU_AFX_OCC_DIALOG_INFO@@XZ
	DD	FLAT:?Create@CDateTimeCtrl@@UAEHKABUtagRECT@@PAVCWnd@@I@Z
CONST	ENDS
;	COMDAT ??_7CCommonDialog@@6B@
CONST	SEGMENT
??_7CCommonDialog@@6B@ DD FLAT:??_R4CCommonDialog@@6B@	; CCommonDialog::`vftable'
	DD	FLAT:?GetRuntimeClass@CCommonDialog@@UBEPAUCRuntimeClass@@XZ
	DD	FLAT:??_ECCommonDialog@@UAEPAXI@Z
	DD	FLAT:?Serialize@CObject@@UAEXAAVCArchive@@@Z
	DD	FLAT:?AssertValid@CObject@@UBEXXZ
	DD	FLAT:?Dump@CObject@@UBEXAAVCDumpContext@@@Z
	DD	FLAT:?OnCmdMsg@CDialog@@UAEHIHPAXPAUAFX_CMDHANDLERINFO@@@Z
	DD	FLAT:?OnFinalRelease@CWnd@@UAEXXZ
	DD	FLAT:?IsInvokeAllowed@CCmdTarget@@UAEHJ@Z
	DD	FLAT:?GetDispatchIID@CCmdTarget@@UAEHPAU_GUID@@@Z
	DD	FLAT:?GetTypeInfoCount@CCmdTarget@@UAEIXZ
	DD	FLAT:?GetTypeLibCache@CCmdTarget@@UAEPAVCTypeLibCache@@XZ
	DD	FLAT:?GetTypeLib@CCmdTarget@@UAEJKPAPAUITypeLib@@@Z
	DD	FLAT:?GetMessageMap@CCommonDialog@@MBEPBUAFX_MSGMAP@@XZ
	DD	FLAT:?GetCommandMap@CCmdTarget@@MBEPBUAFX_OLECMDMAP@@XZ
	DD	FLAT:?GetDispatchMap@CCmdTarget@@MBEPBUAFX_DISPMAP@@XZ
	DD	FLAT:?GetConnectionMap@CCmdTarget@@MBEPBUAFX_CONNECTIONMAP@@XZ
	DD	FLAT:?GetInterfaceMap@CWnd@@MBEPBUAFX_INTERFACEMAP@@XZ
	DD	FLAT:?GetEventSinkMap@CCmdTarget@@MBEPBUAFX_EVENTSINKMAP@@XZ
	DD	FLAT:?OnCreateAggregates@CCmdTarget@@UAEHXZ
	DD	FLAT:?GetInterfaceHook@CCmdTarget@@UAEPAUIUnknown@@PBX@Z
	DD	FLAT:?GetExtraConnectionPoints@CCmdTarget@@MAEHPAVCPtrArray@@@Z
	DD	FLAT:?GetConnectionHook@CCmdTarget@@MAEPAUIConnectionPoint@@ABU_GUID@@@Z
	DD	FLAT:?PreSubclassWindow@CWnd@@UAEXXZ
	DD	FLAT:?Create@CWnd@@UAEHPBD0KABUtagRECT@@PAV1@IPAUCCreateContext@@@Z
	DD	FLAT:?CreateEx@CWnd@@UAEHKPBD0KABUtagRECT@@PAV1@IPAX@Z
	DD	FLAT:?CreateEx@CWnd@@UAEHKPBD0KHHHHPAUHWND__@@PAUHMENU__@@PAX@Z
	DD	FLAT:?DestroyWindow@CWnd@@UAEHXZ
	DD	FLAT:?PreCreateWindow@CWnd@@UAEHAAUtagCREATESTRUCTA@@@Z
	DD	FLAT:?CalcWindowRect@CWnd@@UAEXPAUtagRECT@@I@Z
	DD	FLAT:?GetMenu@CWnd@@UBEPAVCMenu@@XZ
	DD	FLAT:?SetMenu@CWnd@@UAEHPAVCMenu@@@Z
	DD	FLAT:?OnToolHitTest@CWnd@@UBEHVCPoint@@PAUtagTOOLINFOA@@@Z
	DD	FLAT:?GetScrollBarCtrl@CWnd@@UBEPAVCScrollBar@@H@Z
	DD	FLAT:?WinHelpA@CWnd@@UAEXKI@Z
	DD	FLAT:?HtmlHelpA@CWnd@@UAEXKI@Z
	DD	FLAT:?WinHelpInternal@CWnd@@UAEXKI@Z
	DD	FLAT:?ContinueModal@CWnd@@UAEHXZ
	DD	FLAT:?EndModalLoop@CWnd@@UAEXH@Z
	DD	FLAT:?OnDrawIconicThumbnailOrLivePreview@CWnd@@UAEXAAVCDC@@VCRect@@VCSize@@HAAH@Z
	DD	FLAT:?EnsureStdObj@CWnd@@UAEJXZ
	DD	FLAT:?get_accParent@CWnd@@UAEJPAPAUIDispatch@@@Z
	DD	FLAT:?get_accChildCount@CWnd@@UAEJPAJ@Z
	DD	FLAT:?get_accChild@CWnd@@UAEJUtagVARIANT@@PAPAUIDispatch@@@Z
	DD	FLAT:?get_accName@CWnd@@UAEJUtagVARIANT@@PAPA_W@Z
	DD	FLAT:?get_accValue@CWnd@@UAEJUtagVARIANT@@PAPA_W@Z
	DD	FLAT:?get_accDescription@CWnd@@UAEJUtagVARIANT@@PAPA_W@Z
	DD	FLAT:?get_accRole@CWnd@@UAEJUtagVARIANT@@PAU2@@Z
	DD	FLAT:?get_accState@CWnd@@UAEJUtagVARIANT@@PAU2@@Z
	DD	FLAT:?get_accHelp@CWnd@@UAEJUtagVARIANT@@PAPA_W@Z
	DD	FLAT:?get_accHelpTopic@CWnd@@UAEJPAPA_WUtagVARIANT@@PAJ@Z
	DD	FLAT:?get_accKeyboardShortcut@CWnd@@UAEJUtagVARIANT@@PAPA_W@Z
	DD	FLAT:?get_accFocus@CWnd@@UAEJPAUtagVARIANT@@@Z
	DD	FLAT:?get_accSelection@CWnd@@UAEJPAUtagVARIANT@@@Z
	DD	FLAT:?get_accDefaultAction@CWnd@@UAEJUtagVARIANT@@PAPA_W@Z
	DD	FLAT:?accSelect@CWnd@@UAEJJUtagVARIANT@@@Z
	DD	FLAT:?accLocation@CWnd@@UAEJPAJ000UtagVARIANT@@@Z
	DD	FLAT:?accNavigate@CWnd@@UAEJJUtagVARIANT@@PAU2@@Z
	DD	FLAT:?accHitTest@CWnd@@UAEJJJPAUtagVARIANT@@@Z
	DD	FLAT:?accDoDefaultAction@CWnd@@UAEJUtagVARIANT@@@Z
	DD	FLAT:?put_accName@CWnd@@UAEJUtagVARIANT@@PA_W@Z
	DD	FLAT:?put_accValue@CWnd@@UAEJUtagVARIANT@@PA_W@Z
	DD	FLAT:?SetProxy@CWnd@@UAEJPAUIAccessibleProxy@@@Z
	DD	FLAT:?CreateAccessibleProxy@CWnd@@UAEJIJPAJ@Z
	DD	FLAT:?OnCommand@CWnd@@MAEHIJ@Z
	DD	FLAT:?OnNotify@CWnd@@MAEHIJPAJ@Z
	DD	FLAT:?GetSuperWndProcAddr@CWnd@@MAEPAP6GJPAUHWND__@@IIJ@ZXZ
	DD	FLAT:?DoDataExchange@CWnd@@MAEXPAVCDataExchange@@@Z
	DD	FLAT:?BeginModalState@CWnd@@UAEXXZ
	DD	FLAT:?EndModalState@CWnd@@UAEXXZ
	DD	FLAT:?PreTranslateMessage@CDialog@@UAEHPAUtagMSG@@@Z
	DD	FLAT:?OnAmbientProperty@CWnd@@UAEHPAVCOleControlSite@@JPAUtagVARIANT@@@Z
	DD	FLAT:?WindowProc@CWnd@@MAEJIIJ@Z
	DD	FLAT:?OnWndMsg@CWnd@@MAEHIIJPAJ@Z
	DD	FLAT:?DefWindowProcA@CWnd@@MAEJIIJ@Z
	DD	FLAT:?PostNcDestroy@CWnd@@MAEXXZ
	DD	FLAT:?OnChildNotify@CWnd@@MAEHIIJPAJ@Z
	DD	FLAT:?OnTouchInputs@CWnd@@MAEHIPAUtagTOUCHINPUT@@@Z
	DD	FLAT:?OnTouchInput@CWnd@@MAEHVCPoint@@HHPAUtagTOUCHINPUT@@@Z
	DD	FLAT:?GetGestureStatus@CWnd@@MAEKVCPoint@@@Z
	DD	FLAT:?OnGestureZoom@CWnd@@MAEHVCPoint@@J@Z
	DD	FLAT:?OnGesturePan@CWnd@@MAEHVCPoint@@0@Z
	DD	FLAT:?OnGestureRotate@CWnd@@MAEHVCPoint@@N@Z
	DD	FLAT:?OnGestureTwoFingerTap@CWnd@@MAEHVCPoint@@@Z
	DD	FLAT:?OnGesturePressAndTap@CWnd@@MAEHVCPoint@@J@Z
	DD	FLAT:?ResizeDynamicLayout@CWnd@@MAEXXZ
	DD	FLAT:?CheckAutoCenter@CDialog@@UAEHXZ
	DD	FLAT:?IsFrameWnd@CWnd@@UBEHXZ
	DD	FLAT:?CreateControlContainer@CWnd@@MAEHPAPAVCOleControlContainer@@@Z
	DD	FLAT:?CreateControlSite@CWnd@@MAEHPAVCOleControlContainer@@PAPAVCOleControlSite@@IABU_GUID@@@Z
	DD	FLAT:?SetOccDialogInfo@CDialog@@MAEHPAU_AFX_OCC_DIALOG_INFO@@@Z
	DD	FLAT:?GetOccDialogInfo@CDialog@@MAEPAU_AFX_OCC_DIALOG_INFO@@XZ
	DD	FLAT:?Create@CDialog@@UAEHIPAVCWnd@@@Z
	DD	FLAT:?Create@CDialog@@UAEHPBDPAVCWnd@@@Z
	DD	FLAT:?CreateIndirect@CDialog@@UAEHPAXPAVCWnd@@@Z
	DD	FLAT:?CreateIndirect@CDialog@@UAEHPBUDLGTEMPLATE@@PAVCWnd@@PAX@Z
	DD	FLAT:?DoModal@CDialog@@UAEHXZ
	DD	FLAT:?OnInitDialog@CDialog@@UAEHXZ
	DD	FLAT:?OnSetFont@CDialog@@UAEXPAVCFont@@@Z
	DD	FLAT:?OnOK@CCommonDialog@@MAEXXZ
	DD	FLAT:?OnCancel@CCommonDialog@@MAEXXZ
	DD	FLAT:?PreInitDialog@CDialog@@MAEXXZ
CONST	ENDS
;	COMDAT ??_C@_0N@OMEMOKLE@?$CFTs?5?$CI?$CFTs?3?$CFd?$CJ@
CONST	SEGMENT
??_C@_0N@OMEMOKLE@?$CFTs?5?$CI?$CFTs?3?$CFd?$CJ@ DB '%Ts (%Ts:%d)', 00H ; `string'
CONST	ENDS
;	COMDAT ??_C@_0BB@HBOOMJBF@?$CFTs?5?$CI?$CFTs?3?$CFd?$CJ?6?$CFTs@
CONST	SEGMENT
??_C@_0BB@HBOOMJBF@?$CFTs?5?$CI?$CFTs?3?$CFd?$CJ?6?$CFTs@ DB '%Ts (%Ts:%d'
	DB	')', 0aH, '%Ts', 00H				; `string'
CONST	ENDS
;	COMDAT ??_C@_0BP@OIEOKIDM@Exception?5thrown?5in?5destructor@
CONST	SEGMENT
??_C@_0BP@OIEOKIDM@Exception?5thrown?5in?5destructor@ DB 'Exception throw'
	DB	'n in destructor', 00H			; `string'
CONST	ENDS
;	COMDAT ??_C@_0HD@JJCHHHNK@C?3?2Program?5Files?5?$CIx86?$CJ?2Microsof@
CONST	SEGMENT
??_C@_0HD@JJCHHHNK@C?3?2Program?5Files?5?$CIx86?$CJ?2Microsof@ DB 'C:\Pro'
	DB	'gram Files (x86)\Microsoft Visual Studio\2019\Community\VC\To'
	DB	'ols\MSVC\14.29.30133\atlmfc\include\afxwin1.inl', 00H ; `string'
CONST	ENDS
;	COMDAT ??_7CEdit@@6B@
CONST	SEGMENT
??_7CEdit@@6B@ DD FLAT:??_R4CEdit@@6B@			; CEdit::`vftable'
	DD	FLAT:?GetRuntimeClass@CEdit@@UBEPAUCRuntimeClass@@XZ
	DD	FLAT:??_ECEdit@@UAEPAXI@Z
	DD	FLAT:?Serialize@CObject@@UAEXAAVCArchive@@@Z
	DD	FLAT:?AssertValid@CObject@@UBEXXZ
	DD	FLAT:?Dump@CObject@@UBEXAAVCDumpContext@@@Z
	DD	FLAT:?OnCmdMsg@CCmdTarget@@UAEHIHPAXPAUAFX_CMDHANDLERINFO@@@Z
	DD	FLAT:?OnFinalRelease@CWnd@@UAEXXZ
	DD	FLAT:?IsInvokeAllowed@CCmdTarget@@UAEHJ@Z
	DD	FLAT:?GetDispatchIID@CCmdTarget@@UAEHPAU_GUID@@@Z
	DD	FLAT:?GetTypeInfoCount@CCmdTarget@@UAEIXZ
	DD	FLAT:?GetTypeLibCache@CCmdTarget@@UAEPAVCTypeLibCache@@XZ
	DD	FLAT:?GetTypeLib@CCmdTarget@@UAEJKPAPAUITypeLib@@@Z
	DD	FLAT:?GetMessageMap@CWnd@@MBEPBUAFX_MSGMAP@@XZ
	DD	FLAT:?GetCommandMap@CCmdTarget@@MBEPBUAFX_OLECMDMAP@@XZ
	DD	FLAT:?GetDispatchMap@CCmdTarget@@MBEPBUAFX_DISPMAP@@XZ
	DD	FLAT:?GetConnectionMap@CCmdTarget@@MBEPBUAFX_CONNECTIONMAP@@XZ
	DD	FLAT:?GetInterfaceMap@CWnd@@MBEPBUAFX_INTERFACEMAP@@XZ
	DD	FLAT:?GetEventSinkMap@CCmdTarget@@MBEPBUAFX_EVENTSINKMAP@@XZ
	DD	FLAT:?OnCreateAggregates@CCmdTarget@@UAEHXZ
	DD	FLAT:?GetInterfaceHook@CCmdTarget@@UAEPAUIUnknown@@PBX@Z
	DD	FLAT:?GetExtraConnectionPoints@CCmdTarget@@MAEHPAVCPtrArray@@@Z
	DD	FLAT:?GetConnectionHook@CCmdTarget@@MAEPAUIConnectionPoint@@ABU_GUID@@@Z
	DD	FLAT:?PreSubclassWindow@CWnd@@UAEXXZ
	DD	FLAT:?Create@CWnd@@UAEHPBD0KABUtagRECT@@PAV1@IPAUCCreateContext@@@Z
	DD	FLAT:?CreateEx@CWnd@@UAEHKPBD0KABUtagRECT@@PAV1@IPAX@Z
	DD	FLAT:?CreateEx@CWnd@@UAEHKPBD0KHHHHPAUHWND__@@PAUHMENU__@@PAX@Z
	DD	FLAT:?DestroyWindow@CWnd@@UAEHXZ
	DD	FLAT:?PreCreateWindow@CWnd@@UAEHAAUtagCREATESTRUCTA@@@Z
	DD	FLAT:?CalcWindowRect@CWnd@@UAEXPAUtagRECT@@I@Z
	DD	FLAT:?GetMenu@CWnd@@UBEPAVCMenu@@XZ
	DD	FLAT:?SetMenu@CWnd@@UAEHPAVCMenu@@@Z
	DD	FLAT:?OnToolHitTest@CWnd@@UBEHVCPoint@@PAUtagTOOLINFOA@@@Z
	DD	FLAT:?GetScrollBarCtrl@CWnd@@UBEPAVCScrollBar@@H@Z
	DD	FLAT:?WinHelpA@CWnd@@UAEXKI@Z
	DD	FLAT:?HtmlHelpA@CWnd@@UAEXKI@Z
	DD	FLAT:?WinHelpInternal@CWnd@@UAEXKI@Z
	DD	FLAT:?ContinueModal@CWnd@@UAEHXZ
	DD	FLAT:?EndModalLoop@CWnd@@UAEXH@Z
	DD	FLAT:?OnDrawIconicThumbnailOrLivePreview@CWnd@@UAEXAAVCDC@@VCRect@@VCSize@@HAAH@Z
	DD	FLAT:?EnsureStdObj@CWnd@@UAEJXZ
	DD	FLAT:?get_accParent@CWnd@@UAEJPAPAUIDispatch@@@Z
	DD	FLAT:?get_accChildCount@CWnd@@UAEJPAJ@Z
	DD	FLAT:?get_accChild@CWnd@@UAEJUtagVARIANT@@PAPAUIDispatch@@@Z
	DD	FLAT:?get_accName@CWnd@@UAEJUtagVARIANT@@PAPA_W@Z
	DD	FLAT:?get_accValue@CWnd@@UAEJUtagVARIANT@@PAPA_W@Z
	DD	FLAT:?get_accDescription@CWnd@@UAEJUtagVARIANT@@PAPA_W@Z
	DD	FLAT:?get_accRole@CWnd@@UAEJUtagVARIANT@@PAU2@@Z
	DD	FLAT:?get_accState@CWnd@@UAEJUtagVARIANT@@PAU2@@Z
	DD	FLAT:?get_accHelp@CWnd@@UAEJUtagVARIANT@@PAPA_W@Z
	DD	FLAT:?get_accHelpTopic@CWnd@@UAEJPAPA_WUtagVARIANT@@PAJ@Z
	DD	FLAT:?get_accKeyboardShortcut@CWnd@@UAEJUtagVARIANT@@PAPA_W@Z
	DD	FLAT:?get_accFocus@CWnd@@UAEJPAUtagVARIANT@@@Z
	DD	FLAT:?get_accSelection@CWnd@@UAEJPAUtagVARIANT@@@Z
	DD	FLAT:?get_accDefaultAction@CWnd@@UAEJUtagVARIANT@@PAPA_W@Z
	DD	FLAT:?accSelect@CWnd@@UAEJJUtagVARIANT@@@Z
	DD	FLAT:?accLocation@CWnd@@UAEJPAJ000UtagVARIANT@@@Z
	DD	FLAT:?accNavigate@CWnd@@UAEJJUtagVARIANT@@PAU2@@Z
	DD	FLAT:?accHitTest@CWnd@@UAEJJJPAUtagVARIANT@@@Z
	DD	FLAT:?accDoDefaultAction@CWnd@@UAEJUtagVARIANT@@@Z
	DD	FLAT:?put_accName@CWnd@@UAEJUtagVARIANT@@PA_W@Z
	DD	FLAT:?put_accValue@CWnd@@UAEJUtagVARIANT@@PA_W@Z
	DD	FLAT:?SetProxy@CWnd@@UAEJPAUIAccessibleProxy@@@Z
	DD	FLAT:?CreateAccessibleProxy@CWnd@@UAEJIJPAJ@Z
	DD	FLAT:?OnCommand@CWnd@@MAEHIJ@Z
	DD	FLAT:?OnNotify@CWnd@@MAEHIJPAJ@Z
	DD	FLAT:?GetSuperWndProcAddr@CWnd@@MAEPAP6GJPAUHWND__@@IIJ@ZXZ
	DD	FLAT:?DoDataExchange@CWnd@@MAEXPAVCDataExchange@@@Z
	DD	FLAT:?BeginModalState@CWnd@@UAEXXZ
	DD	FLAT:?EndModalState@CWnd@@UAEXXZ
	DD	FLAT:?PreTranslateMessage@CWnd@@UAEHPAUtagMSG@@@Z
	DD	FLAT:?OnAmbientProperty@CWnd@@UAEHPAVCOleControlSite@@JPAUtagVARIANT@@@Z
	DD	FLAT:?WindowProc@CWnd@@MAEJIIJ@Z
	DD	FLAT:?OnWndMsg@CWnd@@MAEHIIJPAJ@Z
	DD	FLAT:?DefWindowProcA@CWnd@@MAEJIIJ@Z
	DD	FLAT:?PostNcDestroy@CWnd@@MAEXXZ
	DD	FLAT:?OnChildNotify@CWnd@@MAEHIIJPAJ@Z
	DD	FLAT:?OnTouchInputs@CWnd@@MAEHIPAUtagTOUCHINPUT@@@Z
	DD	FLAT:?OnTouchInput@CWnd@@MAEHVCPoint@@HHPAUtagTOUCHINPUT@@@Z
	DD	FLAT:?GetGestureStatus@CWnd@@MAEKVCPoint@@@Z
	DD	FLAT:?OnGestureZoom@CWnd@@MAEHVCPoint@@J@Z
	DD	FLAT:?OnGesturePan@CWnd@@MAEHVCPoint@@0@Z
	DD	FLAT:?OnGestureRotate@CWnd@@MAEHVCPoint@@N@Z
	DD	FLAT:?OnGestureTwoFingerTap@CWnd@@MAEHVCPoint@@@Z
	DD	FLAT:?OnGesturePressAndTap@CWnd@@MAEHVCPoint@@J@Z
	DD	FLAT:?ResizeDynamicLayout@CWnd@@MAEXXZ
	DD	FLAT:?CheckAutoCenter@CWnd@@UAEHXZ
	DD	FLAT:?IsFrameWnd@CWnd@@UBEHXZ
	DD	FLAT:?CreateControlContainer@CWnd@@MAEHPAPAVCOleControlContainer@@@Z
	DD	FLAT:?CreateControlSite@CWnd@@MAEHPAVCOleControlContainer@@PAPAVCOleControlSite@@IABU_GUID@@@Z
	DD	FLAT:?SetOccDialogInfo@CWnd@@MAEHPAU_AFX_OCC_DIALOG_INFO@@@Z
	DD	FLAT:?GetOccDialogInfo@CWnd@@MAEPAU_AFX_OCC_DIALOG_INFO@@XZ
CONST	ENDS
;	COMDAT ??_7CButton@@6B@
CONST	SEGMENT
??_7CButton@@6B@ DD FLAT:??_R4CButton@@6B@		; CButton::`vftable'
	DD	FLAT:?GetRuntimeClass@CButton@@UBEPAUCRuntimeClass@@XZ
	DD	FLAT:??_ECButton@@UAEPAXI@Z
	DD	FLAT:?Serialize@CObject@@UAEXAAVCArchive@@@Z
	DD	FLAT:?AssertValid@CObject@@UBEXXZ
	DD	FLAT:?Dump@CObject@@UBEXAAVCDumpContext@@@Z
	DD	FLAT:?OnCmdMsg@CCmdTarget@@UAEHIHPAXPAUAFX_CMDHANDLERINFO@@@Z
	DD	FLAT:?OnFinalRelease@CWnd@@UAEXXZ
	DD	FLAT:?IsInvokeAllowed@CCmdTarget@@UAEHJ@Z
	DD	FLAT:?GetDispatchIID@CCmdTarget@@UAEHPAU_GUID@@@Z
	DD	FLAT:?GetTypeInfoCount@CCmdTarget@@UAEIXZ
	DD	FLAT:?GetTypeLibCache@CCmdTarget@@UAEPAVCTypeLibCache@@XZ
	DD	FLAT:?GetTypeLib@CCmdTarget@@UAEJKPAPAUITypeLib@@@Z
	DD	FLAT:?GetMessageMap@CWnd@@MBEPBUAFX_MSGMAP@@XZ
	DD	FLAT:?GetCommandMap@CCmdTarget@@MBEPBUAFX_OLECMDMAP@@XZ
	DD	FLAT:?GetDispatchMap@CCmdTarget@@MBEPBUAFX_DISPMAP@@XZ
	DD	FLAT:?GetConnectionMap@CCmdTarget@@MBEPBUAFX_CONNECTIONMAP@@XZ
	DD	FLAT:?GetInterfaceMap@CWnd@@MBEPBUAFX_INTERFACEMAP@@XZ
	DD	FLAT:?GetEventSinkMap@CCmdTarget@@MBEPBUAFX_EVENTSINKMAP@@XZ
	DD	FLAT:?OnCreateAggregates@CCmdTarget@@UAEHXZ
	DD	FLAT:?GetInterfaceHook@CCmdTarget@@UAEPAUIUnknown@@PBX@Z
	DD	FLAT:?GetExtraConnectionPoints@CCmdTarget@@MAEHPAVCPtrArray@@@Z
	DD	FLAT:?GetConnectionHook@CCmdTarget@@MAEPAUIConnectionPoint@@ABU_GUID@@@Z
	DD	FLAT:?PreSubclassWindow@CWnd@@UAEXXZ
	DD	FLAT:?Create@CWnd@@UAEHPBD0KABUtagRECT@@PAV1@IPAUCCreateContext@@@Z
	DD	FLAT:?CreateEx@CWnd@@UAEHKPBD0KABUtagRECT@@PAV1@IPAX@Z
	DD	FLAT:?CreateEx@CWnd@@UAEHKPBD0KHHHHPAUHWND__@@PAUHMENU__@@PAX@Z
	DD	FLAT:?DestroyWindow@CWnd@@UAEHXZ
	DD	FLAT:?PreCreateWindow@CWnd@@UAEHAAUtagCREATESTRUCTA@@@Z
	DD	FLAT:?CalcWindowRect@CWnd@@UAEXPAUtagRECT@@I@Z
	DD	FLAT:?GetMenu@CWnd@@UBEPAVCMenu@@XZ
	DD	FLAT:?SetMenu@CWnd@@UAEHPAVCMenu@@@Z
	DD	FLAT:?OnToolHitTest@CWnd@@UBEHVCPoint@@PAUtagTOOLINFOA@@@Z
	DD	FLAT:?GetScrollBarCtrl@CWnd@@UBEPAVCScrollBar@@H@Z
	DD	FLAT:?WinHelpA@CWnd@@UAEXKI@Z
	DD	FLAT:?HtmlHelpA@CWnd@@UAEXKI@Z
	DD	FLAT:?WinHelpInternal@CWnd@@UAEXKI@Z
	DD	FLAT:?ContinueModal@CWnd@@UAEHXZ
	DD	FLAT:?EndModalLoop@CWnd@@UAEXH@Z
	DD	FLAT:?OnDrawIconicThumbnailOrLivePreview@CWnd@@UAEXAAVCDC@@VCRect@@VCSize@@HAAH@Z
	DD	FLAT:?EnsureStdObj@CWnd@@UAEJXZ
	DD	FLAT:?get_accParent@CWnd@@UAEJPAPAUIDispatch@@@Z
	DD	FLAT:?get_accChildCount@CWnd@@UAEJPAJ@Z
	DD	FLAT:?get_accChild@CWnd@@UAEJUtagVARIANT@@PAPAUIDispatch@@@Z
	DD	FLAT:?get_accName@CWnd@@UAEJUtagVARIANT@@PAPA_W@Z
	DD	FLAT:?get_accValue@CWnd@@UAEJUtagVARIANT@@PAPA_W@Z
	DD	FLAT:?get_accDescription@CWnd@@UAEJUtagVARIANT@@PAPA_W@Z
	DD	FLAT:?get_accRole@CWnd@@UAEJUtagVARIANT@@PAU2@@Z
	DD	FLAT:?get_accState@CWnd@@UAEJUtagVARIANT@@PAU2@@Z
	DD	FLAT:?get_accHelp@CWnd@@UAEJUtagVARIANT@@PAPA_W@Z
	DD	FLAT:?get_accHelpTopic@CWnd@@UAEJPAPA_WUtagVARIANT@@PAJ@Z
	DD	FLAT:?get_accKeyboardShortcut@CWnd@@UAEJUtagVARIANT@@PAPA_W@Z
	DD	FLAT:?get_accFocus@CWnd@@UAEJPAUtagVARIANT@@@Z
	DD	FLAT:?get_accSelection@CWnd@@UAEJPAUtagVARIANT@@@Z
	DD	FLAT:?get_accDefaultAction@CWnd@@UAEJUtagVARIANT@@PAPA_W@Z
	DD	FLAT:?accSelect@CWnd@@UAEJJUtagVARIANT@@@Z
	DD	FLAT:?accLocation@CWnd@@UAEJPAJ000UtagVARIANT@@@Z
	DD	FLAT:?accNavigate@CWnd@@UAEJJUtagVARIANT@@PAU2@@Z
	DD	FLAT:?accHitTest@CWnd@@UAEJJJPAUtagVARIANT@@@Z
	DD	FLAT:?accDoDefaultAction@CWnd@@UAEJUtagVARIANT@@@Z
	DD	FLAT:?put_accName@CWnd@@UAEJUtagVARIANT@@PA_W@Z
	DD	FLAT:?put_accValue@CWnd@@UAEJUtagVARIANT@@PA_W@Z
	DD	FLAT:?SetProxy@CWnd@@UAEJPAUIAccessibleProxy@@@Z
	DD	FLAT:?CreateAccessibleProxy@CWnd@@UAEJIJPAJ@Z
	DD	FLAT:?OnCommand@CWnd@@MAEHIJ@Z
	DD	FLAT:?OnNotify@CWnd@@MAEHIJPAJ@Z
	DD	FLAT:?GetSuperWndProcAddr@CWnd@@MAEPAP6GJPAUHWND__@@IIJ@ZXZ
	DD	FLAT:?DoDataExchange@CWnd@@MAEXPAVCDataExchange@@@Z
	DD	FLAT:?BeginModalState@CWnd@@UAEXXZ
	DD	FLAT:?EndModalState@CWnd@@UAEXXZ
	DD	FLAT:?PreTranslateMessage@CWnd@@UAEHPAUtagMSG@@@Z
	DD	FLAT:?OnAmbientProperty@CWnd@@UAEHPAVCOleControlSite@@JPAUtagVARIANT@@@Z
	DD	FLAT:?WindowProc@CWnd@@MAEJIIJ@Z
	DD	FLAT:?OnWndMsg@CWnd@@MAEHIIJPAJ@Z
	DD	FLAT:?DefWindowProcA@CWnd@@MAEJIIJ@Z
	DD	FLAT:?PostNcDestroy@CWnd@@MAEXXZ
	DD	FLAT:?OnChildNotify@CButton@@MAEHIIJPAJ@Z
	DD	FLAT:?OnTouchInputs@CWnd@@MAEHIPAUtagTOUCHINPUT@@@Z
	DD	FLAT:?OnTouchInput@CWnd@@MAEHVCPoint@@HHPAUtagTOUCHINPUT@@@Z
	DD	FLAT:?GetGestureStatus@CWnd@@MAEKVCPoint@@@Z
	DD	FLAT:?OnGestureZoom@CWnd@@MAEHVCPoint@@J@Z
	DD	FLAT:?OnGesturePan@CWnd@@MAEHVCPoint@@0@Z
	DD	FLAT:?OnGestureRotate@CWnd@@MAEHVCPoint@@N@Z
	DD	FLAT:?OnGestureTwoFingerTap@CWnd@@MAEHVCPoint@@@Z
	DD	FLAT:?OnGesturePressAndTap@CWnd@@MAEHVCPoint@@J@Z
	DD	FLAT:?ResizeDynamicLayout@CWnd@@MAEXXZ
	DD	FLAT:?CheckAutoCenter@CWnd@@UAEHXZ
	DD	FLAT:?IsFrameWnd@CWnd@@UBEHXZ
	DD	FLAT:?CreateControlContainer@CWnd@@MAEHPAPAVCOleControlContainer@@@Z
	DD	FLAT:?CreateControlSite@CWnd@@MAEHPAVCOleControlContainer@@PAPAVCOleControlSite@@IABU_GUID@@@Z
	DD	FLAT:?SetOccDialogInfo@CWnd@@MAEHPAU_AFX_OCC_DIALOG_INFO@@@Z
	DD	FLAT:?GetOccDialogInfo@CWnd@@MAEPAU_AFX_OCC_DIALOG_INFO@@XZ
	DD	FLAT:?Create@CButton@@UAEHPBDKABUtagRECT@@PAVCWnd@@I@Z
	DD	FLAT:?DrawItem@CButton@@UAEXPAUtagDRAWITEMSTRUCT@@@Z
CONST	ENDS
;	COMDAT ??_7CBitmap@@6B@
CONST	SEGMENT
??_7CBitmap@@6B@ DD FLAT:??_R4CBitmap@@6B@		; CBitmap::`vftable'
	DD	FLAT:?GetRuntimeClass@CBitmap@@UBEPAUCRuntimeClass@@XZ
	DD	FLAT:??_ECBitmap@@UAEPAXI@Z
	DD	FLAT:?Serialize@CObject@@UAEXAAVCArchive@@@Z
	DD	FLAT:?AssertValid@CObject@@UBEXXZ
	DD	FLAT:?Dump@CObject@@UBEXAAVCDumpContext@@@Z
CONST	ENDS
;	COMDAT ??_7CGdiObject@@6B@
CONST	SEGMENT
??_7CGdiObject@@6B@ DD FLAT:??_R4CGdiObject@@6B@	; CGdiObject::`vftable'
	DD	FLAT:?GetRuntimeClass@CGdiObject@@UBEPAUCRuntimeClass@@XZ
	DD	FLAT:??_ECGdiObject@@UAEPAXI@Z
	DD	FLAT:?Serialize@CObject@@UAEXAAVCArchive@@@Z
	DD	FLAT:?AssertValid@CObject@@UBEXXZ
	DD	FLAT:?Dump@CObject@@UBEXAAVCDumpContext@@@Z
CONST	ENDS
;	COMDAT ??_C@_02DPKJAMEF@?$CFd@
CONST	SEGMENT
??_C@_02DPKJAMEF@?$CFd@ DB '%d', 00H			; `string'
CONST	ENDS
;	COMDAT ??_R0PAVCException@@@8
data$r	SEGMENT
??_R0PAVCException@@@8 DD FLAT:??_7type_info@@6B@	; CException * `RTTI Type Descriptor'
	DD	00H
	DB	'.PAVCException@@', 00H
data$r	ENDS
;	COMDAT xdata$x
xdata$x	SEGMENT
__unwindtable$??$_Construct@V?$_Deque_unchecked_const_iterator@V?$_Deque_val@U?$_Deque_simple_types@PAVCCoordinate@@@std@@@std@@@std@@@?$deque@PAVCCoordinate@@V?$allocator@PAVCCoordinate@@@std@@@std@@AAEXV?$_Deque_unchecked_const_iterator@V?$_Deque_val@U?$_Deque_simple_types@PAVCCoordinate@@@std@@@std@@@1@0@Z DD 0ffffffffH
	DD	FLAT:__unwindfunclet$??$_Construct@V?$_Deque_unchecked_const_iterator@V?$_Deque_val@U?$_Deque_simple_types@PAVCCoordinate@@@std@@@std@@@std@@@?$deque@PAVCCoordinate@@V?$allocator@PAVCCoordinate@@@std@@@std@@AAEXV?$_Deque_unchecked_const_iterator@V?$_Deque_val@U?$_Deque_simple_types@PAVCCoordinate@@@std@@@std@@@1@0@Z$0
__ehfuncinfo$??$_Construct@V?$_Deque_unchecked_const_iterator@V?$_Deque_val@U?$_Deque_simple_types@PAVCCoordinate@@@std@@@std@@@std@@@?$deque@PAVCCoordinate@@V?$allocator@PAVCCoordinate@@@std@@@std@@AAEXV?$_Deque_unchecked_const_iterator@V?$_Deque_val@U?$_Deque_simple_types@PAVCCoordinate@@@std@@@std@@@1@0@Z DD 019930522H
	DD	01H
	DD	FLAT:__unwindtable$??$_Construct@V?$_Deque_unchecked_const_iterator@V?$_Deque_val@U?$_Deque_simple_types@PAVCCoordinate@@@std@@@std@@@std@@@?$deque@PAVCCoordinate@@V?$allocator@PAVCCoordinate@@@std@@@std@@AAEXV?$_Deque_unchecked_const_iterator@V?$_Deque_val@U?$_Deque_simple_types@PAVCCoordinate@@@std@@@std@@@1@0@Z
	DD	2 DUP(00H)
	DD	2 DUP(00H)
	DD	00H
	DD	01H
xdata$x	ENDS
;	COMDAT xdata$x
xdata$x	SEGMENT
__ehfuncinfo$??1CMultiLanguageResourceSetter@@QAE@XZ DD 019930522H
	DD	00H
	DD	00H
	DD	2 DUP(00H)
	DD	2 DUP(00H)
	DD	00H
	DD	05H
xdata$x	ENDS
;	COMDAT xdata$x
xdata$x	SEGMENT
__unwindtable$?SetDateValueLists@CDlgFiboSet@@AAEXXZ DD 0ffffffffH
	DD	FLAT:__unwindfunclet$?SetDateValueLists@CDlgFiboSet@@AAEXXZ$0
	DD	00H
	DD	FLAT:__unwindfunclet$?SetDateValueLists@CDlgFiboSet@@AAEXXZ$1
__ehfuncinfo$?SetDateValueLists@CDlgFiboSet@@AAEXXZ DD 019930522H
	DD	02H
	DD	FLAT:__unwindtable$?SetDateValueLists@CDlgFiboSet@@AAEXXZ
	DD	2 DUP(00H)
	DD	2 DUP(00H)
	DD	00H
	DD	01H
xdata$x	ENDS
;	COMDAT xdata$x
xdata$x	SEGMENT
__unwindtable$?InitializeData_Style@CDlgFiboSet@@AAEXXZ DD 0ffffffffH
	DD	FLAT:__unwindfunclet$?InitializeData_Style@CDlgFiboSet@@AAEXXZ$0
	DD	0ffffffffH
	DD	FLAT:___std_terminate
__ehfuncinfo$?InitializeData_Style@CDlgFiboSet@@AAEXXZ DD 019930522H
	DD	02H
	DD	FLAT:__unwindtable$?InitializeData_Style@CDlgFiboSet@@AAEXXZ
	DD	2 DUP(00H)
	DD	2 DUP(00H)
	DD	00H
	DD	01H
xdata$x	ENDS
;	COMDAT xdata$x
xdata$x	SEGMENT
__unwindtable$?InitializeData_Width@CDlgFiboSet@@AAEXXZ DD 0ffffffffH
	DD	FLAT:__unwindfunclet$?InitializeData_Width@CDlgFiboSet@@AAEXXZ$0
	DD	0ffffffffH
	DD	FLAT:___std_terminate
__ehfuncinfo$?InitializeData_Width@CDlgFiboSet@@AAEXXZ DD 019930522H
	DD	02H
	DD	FLAT:__unwindtable$?InitializeData_Width@CDlgFiboSet@@AAEXXZ
	DD	2 DUP(00H)
	DD	2 DUP(00H)
	DD	00H
	DD	01H
xdata$x	ENDS
;	COMDAT xdata$x
xdata$x	SEGMENT
__ehfuncinfo$?SetXDateTime@CDlgFiboSet@@IAEXNH@Z DD 019930522H
	DD	011H
	DD	FLAT:__unwindtable$?SetXDateTime@CDlgFiboSet@@IAEXNH@Z
	DD	2 DUP(00H)
	DD	2 DUP(00H)
	DD	00H
	DD	01H
__unwindtable$?SetXDateTime@CDlgFiboSet@@IAEXNH@Z DD 0ffffffffH
	DD	FLAT:__unwindfunclet$?SetXDateTime@CDlgFiboSet@@IAEXNH@Z$0
	DD	00H
	DD	FLAT:__unwindfunclet$?SetXDateTime@CDlgFiboSet@@IAEXNH@Z$4
	DD	01H
	DD	FLAT:__unwindfunclet$?SetXDateTime@CDlgFiboSet@@IAEXNH@Z$5
	DD	02H
	DD	FLAT:__unwindfunclet$?SetXDateTime@CDlgFiboSet@@IAEXNH@Z$6
	DD	03H
	DD	FLAT:__unwindfunclet$?SetXDateTime@CDlgFiboSet@@IAEXNH@Z$7
	DD	01H
	DD	FLAT:__unwindfunclet$?SetXDateTime@CDlgFiboSet@@IAEXNH@Z$8
	DD	05H
	DD	FLAT:__unwindfunclet$?SetXDateTime@CDlgFiboSet@@IAEXNH@Z$9
	DD	06H
	DD	FLAT:__unwindfunclet$?SetXDateTime@CDlgFiboSet@@IAEXNH@Z$10
	DD	01H
	DD	FLAT:__unwindfunclet$?SetXDateTime@CDlgFiboSet@@IAEXNH@Z$20
	DD	01H
	DD	FLAT:__unwindfunclet$?SetXDateTime@CDlgFiboSet@@IAEXNH@Z$12
	DD	09H
	DD	FLAT:__unwindfunclet$?SetXDateTime@CDlgFiboSet@@IAEXNH@Z$13
	DD	0aH
	DD	FLAT:__unwindfunclet$?SetXDateTime@CDlgFiboSet@@IAEXNH@Z$14
	DD	0bH
	DD	FLAT:__unwindfunclet$?SetXDateTime@CDlgFiboSet@@IAEXNH@Z$15
	DD	01H
	DD	FLAT:__unwindfunclet$?SetXDateTime@CDlgFiboSet@@IAEXNH@Z$16
	DD	0dH
	DD	FLAT:__unwindfunclet$?SetXDateTime@CDlgFiboSet@@IAEXNH@Z$17
	DD	0eH
	DD	FLAT:__unwindfunclet$?SetXDateTime@CDlgFiboSet@@IAEXNH@Z$18
	DD	0fH
	DD	FLAT:__unwindfunclet$?SetXDateTime@CDlgFiboSet@@IAEXNH@Z$19
xdata$x	ENDS
;	COMDAT xdata$x
xdata$x	SEGMENT
__unwindtable$?SetYValue@CDlgFiboSet@@IAEXNH@Z DD 0ffffffffH
	DD	FLAT:__unwindfunclet$?SetYValue@CDlgFiboSet@@IAEXNH@Z$0
__ehfuncinfo$?SetYValue@CDlgFiboSet@@IAEXNH@Z DD 019930522H
	DD	01H
	DD	FLAT:__unwindtable$?SetYValue@CDlgFiboSet@@IAEXNH@Z
	DD	2 DUP(00H)
	DD	2 DUP(00H)
	DD	00H
	DD	01H
xdata$x	ENDS
;	COMDAT xdata$x
xdata$x	SEGMENT
__ehfuncinfo$?SaveData@CDlgFiboSet@@IAEXXZ DD 019930522H
	DD	08H
	DD	FLAT:__unwindtable$?SaveData@CDlgFiboSet@@IAEXXZ
	DD	2 DUP(00H)
	DD	2 DUP(00H)
	DD	00H
	DD	01H
__unwindtable$?SaveData@CDlgFiboSet@@IAEXXZ DD 0ffffffffH
	DD	FLAT:__unwindfunclet$?SaveData@CDlgFiboSet@@IAEXXZ$0
	DD	00H
	DD	FLAT:__unwindfunclet$?SaveData@CDlgFiboSet@@IAEXXZ$1
	DD	01H
	DD	FLAT:__unwindfunclet$?SaveData@CDlgFiboSet@@IAEXXZ$2
	DD	01H
	DD	FLAT:__unwindfunclet$?SaveData@CDlgFiboSet@@IAEXXZ$3
	DD	03H
	DD	FLAT:__unwindfunclet$?SaveData@CDlgFiboSet@@IAEXXZ$4
	DD	04H
	DD	FLAT:__unwindfunclet$?SaveData@CDlgFiboSet@@IAEXXZ$5
	DD	05H
	DD	FLAT:__unwindfunclet$?SaveData@CDlgFiboSet@@IAEXXZ$6
	DD	06H
	DD	FLAT:__unwindfunclet$?SaveData@CDlgFiboSet@@IAEXXZ$7
xdata$x	ENDS
;	COMDAT xdata$x
xdata$x	SEGMENT
__unwindtable$?ApplyData@CDlgFiboSet@@IAEXXZ DD 0ffffffffH
	DD	FLAT:__unwindfunclet$?ApplyData@CDlgFiboSet@@IAEXXZ$0
__ehfuncinfo$?ApplyData@CDlgFiboSet@@IAEXXZ DD 019930522H
	DD	01H
	DD	FLAT:__unwindtable$?ApplyData@CDlgFiboSet@@IAEXXZ
	DD	2 DUP(00H)
	DD	2 DUP(00H)
	DD	00H
	DD	01H
xdata$x	ENDS
;	COMDAT xdata$x
xdata$x	SEGMENT
__ehfuncinfo$?InitializeData@CDlgFiboSet@@IAEXXZ DD 019930522H
	DD	017H
	DD	FLAT:__unwindtable$?InitializeData@CDlgFiboSet@@IAEXXZ
	DD	2 DUP(00H)
	DD	2 DUP(00H)
	DD	00H
	DD	01H
__unwindtable$?InitializeData@CDlgFiboSet@@IAEXXZ DD 0ffffffffH
	DD	FLAT:__unwindfunclet$?InitializeData@CDlgFiboSet@@IAEXXZ$12
	DD	0ffffffffH
	DD	FLAT:___std_terminate
	DD	0ffffffffH
	DD	FLAT:__unwindfunclet$?InitializeData@CDlgFiboSet@@IAEXXZ$14
	DD	0ffffffffH
	DD	FLAT:___std_terminate
	DD	0ffffffffH
	DD	FLAT:__unwindfunclet$?InitializeData@CDlgFiboSet@@IAEXXZ$0
	DD	04H
	DD	FLAT:__unwindfunclet$?InitializeData@CDlgFiboSet@@IAEXXZ$1
	DD	0ffffffffH
	DD	FLAT:___std_terminate
	DD	0ffffffffH
	DD	FLAT:__unwindfunclet$?InitializeData@CDlgFiboSet@@IAEXXZ$2
	DD	07H
	DD	FLAT:__unwindfunclet$?InitializeData@CDlgFiboSet@@IAEXXZ$3
	DD	0ffffffffH
	DD	FLAT:___std_terminate
	DD	0ffffffffH
	DD	FLAT:__unwindfunclet$?InitializeData@CDlgFiboSet@@IAEXXZ$4
	DD	0aH
	DD	FLAT:__unwindfunclet$?InitializeData@CDlgFiboSet@@IAEXXZ$5
	DD	0ffffffffH
	DD	FLAT:___std_terminate
	DD	0ffffffffH
	DD	FLAT:__unwindfunclet$?InitializeData@CDlgFiboSet@@IAEXXZ$6
	DD	0dH
	DD	FLAT:__unwindfunclet$?InitializeData@CDlgFiboSet@@IAEXXZ$7
	DD	0ffffffffH
	DD	FLAT:___std_terminate
	DD	0ffffffffH
	DD	FLAT:__unwindfunclet$?InitializeData@CDlgFiboSet@@IAEXXZ$8
	DD	010H
	DD	FLAT:__unwindfunclet$?InitializeData@CDlgFiboSet@@IAEXXZ$9
	DD	0ffffffffH
	DD	FLAT:___std_terminate
	DD	0ffffffffH
	DD	FLAT:__unwindfunclet$?InitializeData@CDlgFiboSet@@IAEXXZ$10
	DD	013H
	DD	FLAT:__unwindfunclet$?InitializeData@CDlgFiboSet@@IAEXXZ$11
	DD	0ffffffffH
	DD	FLAT:___std_terminate
	DD	0ffffffffH
	DD	FLAT:__unwindfunclet$?InitializeData@CDlgFiboSet@@IAEXXZ$22
xdata$x	ENDS
;	COMDAT xdata$x
xdata$x	SEGMENT
__unwindtable$?OnDatetimechangeDatetimepickerXdate3@CDlgFiboSet@@IAEXPAUtagNMHDR@@PAJ@Z DD 0ffffffffH
	DD	FLAT:__unwindfunclet$?OnDatetimechangeDatetimepickerXdate3@CDlgFiboSet@@IAEXPAUtagNMHDR@@PAJ@Z$0
__ehfuncinfo$?OnDatetimechangeDatetimepickerXdate3@CDlgFiboSet@@IAEXPAUtagNMHDR@@PAJ@Z DD 019930522H
	DD	01H
	DD	FLAT:__unwindtable$?OnDatetimechangeDatetimepickerXdate3@CDlgFiboSet@@IAEXPAUtagNMHDR@@PAJ@Z
	DD	2 DUP(00H)
	DD	2 DUP(00H)
	DD	00H
	DD	01H
xdata$x	ENDS
;	COMDAT xdata$x
xdata$x	SEGMENT
__unwindtable$?OnDatetimechangeDatetimepickerXdate2@CDlgFiboSet@@IAEXPAUtagNMHDR@@PAJ@Z DD 0ffffffffH
	DD	FLAT:__unwindfunclet$?OnDatetimechangeDatetimepickerXdate2@CDlgFiboSet@@IAEXPAUtagNMHDR@@PAJ@Z$0
__ehfuncinfo$?OnDatetimechangeDatetimepickerXdate2@CDlgFiboSet@@IAEXPAUtagNMHDR@@PAJ@Z DD 019930522H
	DD	01H
	DD	FLAT:__unwindtable$?OnDatetimechangeDatetimepickerXdate2@CDlgFiboSet@@IAEXPAUtagNMHDR@@PAJ@Z
	DD	2 DUP(00H)
	DD	2 DUP(00H)
	DD	00H
	DD	01H
xdata$x	ENDS
;	COMDAT xdata$x
xdata$x	SEGMENT
__unwindtable$?OnDatetimechangeDatetimepickerXdate1@CDlgFiboSet@@IAEXPAUtagNMHDR@@PAJ@Z DD 0ffffffffH
	DD	FLAT:__unwindfunclet$?OnDatetimechangeDatetimepickerXdate1@CDlgFiboSet@@IAEXPAUtagNMHDR@@PAJ@Z$0
__ehfuncinfo$?OnDatetimechangeDatetimepickerXdate1@CDlgFiboSet@@IAEXPAUtagNMHDR@@PAJ@Z DD 019930522H
	DD	01H
	DD	FLAT:__unwindtable$?OnDatetimechangeDatetimepickerXdate1@CDlgFiboSet@@IAEXPAUtagNMHDR@@PAJ@Z
	DD	2 DUP(00H)
	DD	2 DUP(00H)
	DD	00H
	DD	01H
xdata$x	ENDS
;	COMDAT xdata$x
xdata$x	SEGMENT
__unwindtable$?OnSelchangeStyle@CDlgFiboSet@@IAEXXZ DD 0ffffffffH
	DD	FLAT:__unwindfunclet$?OnSelchangeStyle@CDlgFiboSet@@IAEXXZ$0
	DD	00H
	DD	FLAT:__unwindfunclet$?OnSelchangeStyle@CDlgFiboSet@@IAEXXZ$1
	DD	0ffffffffH
	DD	FLAT:___std_terminate
__ehfuncinfo$?OnSelchangeStyle@CDlgFiboSet@@IAEXXZ DD 019930522H
	DD	03H
	DD	FLAT:__unwindtable$?OnSelchangeStyle@CDlgFiboSet@@IAEXXZ
	DD	2 DUP(00H)
	DD	2 DUP(00H)
	DD	00H
	DD	01H
xdata$x	ENDS
;	COMDAT xdata$x
xdata$x	SEGMENT
__unwindtable$?OnSelchangeWidth@CDlgFiboSet@@IAEXXZ DD 0ffffffffH
	DD	FLAT:__unwindfunclet$?OnSelchangeWidth@CDlgFiboSet@@IAEXXZ$0
	DD	00H
	DD	FLAT:__unwindfunclet$?OnSelchangeWidth@CDlgFiboSet@@IAEXXZ$1
	DD	0ffffffffH
	DD	FLAT:___std_terminate
__ehfuncinfo$?OnSelchangeWidth@CDlgFiboSet@@IAEXXZ DD 019930522H
	DD	03H
	DD	FLAT:__unwindtable$?OnSelchangeWidth@CDlgFiboSet@@IAEXXZ
	DD	2 DUP(00H)
	DD	2 DUP(00H)
	DD	00H
	DD	01H
xdata$x	ENDS
;	COMDAT xdata$x
xdata$x	SEGMENT
__unwindtable$?OnColor@CDlgFiboSet@@IAEXXZ DD 0ffffffffH
	DD	FLAT:__unwindfunclet$?OnColor@CDlgFiboSet@@IAEXXZ$0
__ehfuncinfo$?OnColor@CDlgFiboSet@@IAEXXZ DD 019930522H
	DD	01H
	DD	FLAT:__unwindtable$?OnColor@CDlgFiboSet@@IAEXXZ
	DD	2 DUP(00H)
	DD	2 DUP(00H)
	DD	00H
	DD	01H
xdata$x	ENDS
;	COMDAT xdata$x
xdata$x	SEGMENT
__ehfuncinfo$?OnInitDialog@CDlgFiboSet@@MAEHXZ DD 019930522H
	DD	06H
	DD	FLAT:__unwindtable$?OnInitDialog@CDlgFiboSet@@MAEHXZ
	DD	2 DUP(00H)
	DD	2 DUP(00H)
	DD	00H
	DD	01H
__unwindtable$?OnInitDialog@CDlgFiboSet@@MAEHXZ DD 0ffffffffH
	DD	FLAT:__unwindfunclet$?OnInitDialog@CDlgFiboSet@@MAEHXZ$0
	DD	0ffffffffH
	DD	FLAT:__unwindfunclet$?OnInitDialog@CDlgFiboSet@@MAEHXZ$1
	DD	01H
	DD	FLAT:__unwindfunclet$?OnInitDialog@CDlgFiboSet@@MAEHXZ$2
	DD	02H
	DD	FLAT:__unwindfunclet$?OnInitDialog@CDlgFiboSet@@MAEHXZ$3
	DD	03H
	DD	FLAT:__unwindfunclet$?OnInitDialog@CDlgFiboSet@@MAEHXZ$4
	DD	04H
	DD	FLAT:__unwindfunclet$?OnInitDialog@CDlgFiboSet@@MAEHXZ$5
xdata$x	ENDS
;	COMDAT xdata$x
xdata$x	SEGMENT
__ehfuncinfo$??0CDlgFiboSet@@QAE@PAVCWnd@@ABV?$CStringT@DV?$StrTraitMFC_DLL@DV?$ChTraitsCRT@D@ATL@@@@@ATL@@ABW4HORZSCALEDRAWERTYPE@CScaleBaseData@@HPAH3PAVCTextPosition@@PAVCPenEnvironment@@PAVCElementPointList@@PAVCLineExtEnvironment@@PAVCDataTypeEnvironment@@PAUIChartOCX133101@@AAVCBlockIndex@@V23@@Z DD 019930522H
	DD	01cH
	DD	FLAT:__unwindtable$??0CDlgFiboSet@@QAE@PAVCWnd@@ABV?$CStringT@DV?$StrTraitMFC_DLL@DV?$ChTraitsCRT@D@ATL@@@@@ATL@@ABW4HORZSCALEDRAWERTYPE@CScaleBaseData@@HPAH3PAVCTextPosition@@PAVCPenEnvironment@@PAVCElementPointList@@PAVCLineExtEnvironment@@PAVCDataTypeEnvironment@@PAUIChartOCX133101@@AAVCBlockIndex@@V23@@Z
	DD	2 DUP(00H)
	DD	2 DUP(00H)
	DD	00H
	DD	01H
__unwindtable$??0CDlgFiboSet@@QAE@PAVCWnd@@ABV?$CStringT@DV?$StrTraitMFC_DLL@DV?$ChTraitsCRT@D@ATL@@@@@ATL@@ABW4HORZSCALEDRAWERTYPE@CScaleBaseData@@HPAH3PAVCTextPosition@@PAVCPenEnvironment@@PAVCElementPointList@@PAVCLineExtEnvironment@@PAVCDataTypeEnvironment@@PAUIChartOCX133101@@AAVCBlockIndex@@V23@@Z DD 0ffffffffH
	DD	FLAT:__unwindfunclet$??0CDlgFiboSet@@QAE@PAVCWnd@@ABV?$CStringT@DV?$StrTraitMFC_DLL@DV?$ChTraitsCRT@D@ATL@@@@@ATL@@ABW4HORZSCALEDRAWERTYPE@CScaleBaseData@@HPAH3PAVCTextPosition@@PAVCPenEnvironment@@PAVCElementPointList@@PAVCLineExtEnvironment@@PAVCDataTypeEnvironment@@PAUIChartOCX133101@@AAVCBlockIndex@@V23@@Z$0
	DD	00H
	DD	FLAT:__unwindfunclet$??0CDlgFiboSet@@QAE@PAVCWnd@@ABV?$CStringT@DV?$StrTraitMFC_DLL@DV?$ChTraitsCRT@D@ATL@@@@@ATL@@ABW4HORZSCALEDRAWERTYPE@CScaleBaseData@@HPAH3PAVCTextPosition@@PAVCPenEnvironment@@PAVCElementPointList@@PAVCLineExtEnvironment@@PAVCDataTypeEnvironment@@PAUIChartOCX133101@@AAVCBlockIndex@@V23@@Z$1
	DD	01H
	DD	FLAT:__unwindfunclet$??0CDlgFiboSet@@QAE@PAVCWnd@@ABV?$CStringT@DV?$StrTraitMFC_DLL@DV?$ChTraitsCRT@D@ATL@@@@@ATL@@ABW4HORZSCALEDRAWERTYPE@CScaleBaseData@@HPAH3PAVCTextPosition@@PAVCPenEnvironment@@PAVCElementPointList@@PAVCLineExtEnvironment@@PAVCDataTypeEnvironment@@PAUIChartOCX133101@@AAVCBlockIndex@@V23@@Z$2
	DD	02H
	DD	FLAT:__unwindfunclet$??0CDlgFiboSet@@QAE@PAVCWnd@@ABV?$CStringT@DV?$StrTraitMFC_DLL@DV?$ChTraitsCRT@D@ATL@@@@@ATL@@ABW4HORZSCALEDRAWERTYPE@CScaleBaseData@@HPAH3PAVCTextPosition@@PAVCPenEnvironment@@PAVCElementPointList@@PAVCLineExtEnvironment@@PAVCDataTypeEnvironment@@PAUIChartOCX133101@@AAVCBlockIndex@@V23@@Z$3
	DD	03H
	DD	FLAT:__unwindfunclet$??0CDlgFiboSet@@QAE@PAVCWnd@@ABV?$CStringT@DV?$StrTraitMFC_DLL@DV?$ChTraitsCRT@D@ATL@@@@@ATL@@ABW4HORZSCALEDRAWERTYPE@CScaleBaseData@@HPAH3PAVCTextPosition@@PAVCPenEnvironment@@PAVCElementPointList@@PAVCLineExtEnvironment@@PAVCDataTypeEnvironment@@PAUIChartOCX133101@@AAVCBlockIndex@@V23@@Z$4
	DD	04H
	DD	FLAT:__unwindfunclet$??0CDlgFiboSet@@QAE@PAVCWnd@@ABV?$CStringT@DV?$StrTraitMFC_DLL@DV?$ChTraitsCRT@D@ATL@@@@@ATL@@ABW4HORZSCALEDRAWERTYPE@CScaleBaseData@@HPAH3PAVCTextPosition@@PAVCPenEnvironment@@PAVCElementPointList@@PAVCLineExtEnvironment@@PAVCDataTypeEnvironment@@PAUIChartOCX133101@@AAVCBlockIndex@@V23@@Z$5
	DD	05H
	DD	FLAT:__unwindfunclet$??0CDlgFiboSet@@QAE@PAVCWnd@@ABV?$CStringT@DV?$StrTraitMFC_DLL@DV?$ChTraitsCRT@D@ATL@@@@@ATL@@ABW4HORZSCALEDRAWERTYPE@CScaleBaseData@@HPAH3PAVCTextPosition@@PAVCPenEnvironment@@PAVCElementPointList@@PAVCLineExtEnvironment@@PAVCDataTypeEnvironment@@PAUIChartOCX133101@@AAVCBlockIndex@@V23@@Z$6
	DD	06H
	DD	FLAT:__unwindfunclet$??0CDlgFiboSet@@QAE@PAVCWnd@@ABV?$CStringT@DV?$StrTraitMFC_DLL@DV?$ChTraitsCRT@D@ATL@@@@@ATL@@ABW4HORZSCALEDRAWERTYPE@CScaleBaseData@@HPAH3PAVCTextPosition@@PAVCPenEnvironment@@PAVCElementPointList@@PAVCLineExtEnvironment@@PAVCDataTypeEnvironment@@PAUIChartOCX133101@@AAVCBlockIndex@@V23@@Z$7
	DD	07H
	DD	FLAT:__unwindfunclet$??0CDlgFiboSet@@QAE@PAVCWnd@@ABV?$CStringT@DV?$StrTraitMFC_DLL@DV?$ChTraitsCRT@D@ATL@@@@@ATL@@ABW4HORZSCALEDRAWERTYPE@CScaleBaseData@@HPAH3PAVCTextPosition@@PAVCPenEnvironment@@PAVCElementPointList@@PAVCLineExtEnvironment@@PAVCDataTypeEnvironment@@PAUIChartOCX133101@@AAVCBlockIndex@@V23@@Z$8
	DD	08H
	DD	FLAT:__unwindfunclet$??0CDlgFiboSet@@QAE@PAVCWnd@@ABV?$CStringT@DV?$StrTraitMFC_DLL@DV?$ChTraitsCRT@D@ATL@@@@@ATL@@ABW4HORZSCALEDRAWERTYPE@CScaleBaseData@@HPAH3PAVCTextPosition@@PAVCPenEnvironment@@PAVCElementPointList@@PAVCLineExtEnvironment@@PAVCDataTypeEnvironment@@PAUIChartOCX133101@@AAVCBlockIndex@@V23@@Z$9
	DD	09H
	DD	FLAT:__unwindfunclet$??0CDlgFiboSet@@QAE@PAVCWnd@@ABV?$CStringT@DV?$StrTraitMFC_DLL@DV?$ChTraitsCRT@D@ATL@@@@@ATL@@ABW4HORZSCALEDRAWERTYPE@CScaleBaseData@@HPAH3PAVCTextPosition@@PAVCPenEnvironment@@PAVCElementPointList@@PAVCLineExtEnvironment@@PAVCDataTypeEnvironment@@PAUIChartOCX133101@@AAVCBlockIndex@@V23@@Z$10
	DD	0aH
	DD	FLAT:__unwindfunclet$??0CDlgFiboSet@@QAE@PAVCWnd@@ABV?$CStringT@DV?$StrTraitMFC_DLL@DV?$ChTraitsCRT@D@ATL@@@@@ATL@@ABW4HORZSCALEDRAWERTYPE@CScaleBaseData@@HPAH3PAVCTextPosition@@PAVCPenEnvironment@@PAVCElementPointList@@PAVCLineExtEnvironment@@PAVCDataTypeEnvironment@@PAUIChartOCX133101@@AAVCBlockIndex@@V23@@Z$11
	DD	0bH
	DD	FLAT:__unwindfunclet$??0CDlgFiboSet@@QAE@PAVCWnd@@ABV?$CStringT@DV?$StrTraitMFC_DLL@DV?$ChTraitsCRT@D@ATL@@@@@ATL@@ABW4HORZSCALEDRAWERTYPE@CScaleBaseData@@HPAH3PAVCTextPosition@@PAVCPenEnvironment@@PAVCElementPointList@@PAVCLineExtEnvironment@@PAVCDataTypeEnvironment@@PAUIChartOCX133101@@AAVCBlockIndex@@V23@@Z$12
	DD	0cH
	DD	FLAT:__unwindfunclet$??0CDlgFiboSet@@QAE@PAVCWnd@@ABV?$CStringT@DV?$StrTraitMFC_DLL@DV?$ChTraitsCRT@D@ATL@@@@@ATL@@ABW4HORZSCALEDRAWERTYPE@CScaleBaseData@@HPAH3PAVCTextPosition@@PAVCPenEnvironment@@PAVCElementPointList@@PAVCLineExtEnvironment@@PAVCDataTypeEnvironment@@PAUIChartOCX133101@@AAVCBlockIndex@@V23@@Z$13
	DD	0dH
	DD	FLAT:__unwindfunclet$??0CDlgFiboSet@@QAE@PAVCWnd@@ABV?$CStringT@DV?$StrTraitMFC_DLL@DV?$ChTraitsCRT@D@ATL@@@@@ATL@@ABW4HORZSCALEDRAWERTYPE@CScaleBaseData@@HPAH3PAVCTextPosition@@PAVCPenEnvironment@@PAVCElementPointList@@PAVCLineExtEnvironment@@PAVCDataTypeEnvironment@@PAUIChartOCX133101@@AAVCBlockIndex@@V23@@Z$14
	DD	0eH
	DD	FLAT:__unwindfunclet$??0CDlgFiboSet@@QAE@PAVCWnd@@ABV?$CStringT@DV?$StrTraitMFC_DLL@DV?$ChTraitsCRT@D@ATL@@@@@ATL@@ABW4HORZSCALEDRAWERTYPE@CScaleBaseData@@HPAH3PAVCTextPosition@@PAVCPenEnvironment@@PAVCElementPointList@@PAVCLineExtEnvironment@@PAVCDataTypeEnvironment@@PAUIChartOCX133101@@AAVCBlockIndex@@V23@@Z$15
	DD	0fH
	DD	FLAT:__unwindfunclet$??0CDlgFiboSet@@QAE@PAVCWnd@@ABV?$CStringT@DV?$StrTraitMFC_DLL@DV?$ChTraitsCRT@D@ATL@@@@@ATL@@ABW4HORZSCALEDRAWERTYPE@CScaleBaseData@@HPAH3PAVCTextPosition@@PAVCPenEnvironment@@PAVCElementPointList@@PAVCLineExtEnvironment@@PAVCDataTypeEnvironment@@PAUIChartOCX133101@@AAVCBlockIndex@@V23@@Z$16
	DD	010H
	DD	FLAT:__unwindfunclet$??0CDlgFiboSet@@QAE@PAVCWnd@@ABV?$CStringT@DV?$StrTraitMFC_DLL@DV?$ChTraitsCRT@D@ATL@@@@@ATL@@ABW4HORZSCALEDRAWERTYPE@CScaleBaseData@@HPAH3PAVCTextPosition@@PAVCPenEnvironment@@PAVCElementPointList@@PAVCLineExtEnvironment@@PAVCDataTypeEnvironment@@PAUIChartOCX133101@@AAVCBlockIndex@@V23@@Z$17
	DD	011H
	DD	FLAT:__unwindfunclet$??0CDlgFiboSet@@QAE@PAVCWnd@@ABV?$CStringT@DV?$StrTraitMFC_DLL@DV?$ChTraitsCRT@D@ATL@@@@@ATL@@ABW4HORZSCALEDRAWERTYPE@CScaleBaseData@@HPAH3PAVCTextPosition@@PAVCPenEnvironment@@PAVCElementPointList@@PAVCLineExtEnvironment@@PAVCDataTypeEnvironment@@PAUIChartOCX133101@@AAVCBlockIndex@@V23@@Z$18
	DD	012H
	DD	FLAT:__unwindfunclet$??0CDlgFiboSet@@QAE@PAVCWnd@@ABV?$CStringT@DV?$StrTraitMFC_DLL@DV?$ChTraitsCRT@D@ATL@@@@@ATL@@ABW4HORZSCALEDRAWERTYPE@CScaleBaseData@@HPAH3PAVCTextPosition@@PAVCPenEnvironment@@PAVCElementPointList@@PAVCLineExtEnvironment@@PAVCDataTypeEnvironment@@PAUIChartOCX133101@@AAVCBlockIndex@@V23@@Z$19
	DD	013H
	DD	FLAT:__unwindfunclet$??0CDlgFiboSet@@QAE@PAVCWnd@@ABV?$CStringT@DV?$StrTraitMFC_DLL@DV?$ChTraitsCRT@D@ATL@@@@@ATL@@ABW4HORZSCALEDRAWERTYPE@CScaleBaseData@@HPAH3PAVCTextPosition@@PAVCPenEnvironment@@PAVCElementPointList@@PAVCLineExtEnvironment@@PAVCDataTypeEnvironment@@PAUIChartOCX133101@@AAVCBlockIndex@@V23@@Z$20
	DD	014H
	DD	FLAT:__unwindfunclet$??0CDlgFiboSet@@QAE@PAVCWnd@@ABV?$CStringT@DV?$StrTraitMFC_DLL@DV?$ChTraitsCRT@D@ATL@@@@@ATL@@ABW4HORZSCALEDRAWERTYPE@CScaleBaseData@@HPAH3PAVCTextPosition@@PAVCPenEnvironment@@PAVCElementPointList@@PAVCLineExtEnvironment@@PAVCDataTypeEnvironment@@PAUIChartOCX133101@@AAVCBlockIndex@@V23@@Z$21
	DD	015H
	DD	FLAT:__unwindfunclet$??0CDlgFiboSet@@QAE@PAVCWnd@@ABV?$CStringT@DV?$StrTraitMFC_DLL@DV?$ChTraitsCRT@D@ATL@@@@@ATL@@ABW4HORZSCALEDRAWERTYPE@CScaleBaseData@@HPAH3PAVCTextPosition@@PAVCPenEnvironment@@PAVCElementPointList@@PAVCLineExtEnvironment@@PAVCDataTypeEnvironment@@PAUIChartOCX133101@@AAVCBlockIndex@@V23@@Z$22
	DD	016H
	DD	FLAT:__unwindfunclet$??0CDlgFiboSet@@QAE@PAVCWnd@@ABV?$CStringT@DV?$StrTraitMFC_DLL@DV?$ChTraitsCRT@D@ATL@@@@@ATL@@ABW4HORZSCALEDRAWERTYPE@CScaleBaseData@@HPAH3PAVCTextPosition@@PAVCPenEnvironment@@PAVCElementPointList@@PAVCLineExtEnvironment@@PAVCDataTypeEnvironment@@PAUIChartOCX133101@@AAVCBlockIndex@@V23@@Z$23
	DD	017H
	DD	FLAT:__unwindfunclet$??0CDlgFiboSet@@QAE@PAVCWnd@@ABV?$CStringT@DV?$StrTraitMFC_DLL@DV?$ChTraitsCRT@D@ATL@@@@@ATL@@ABW4HORZSCALEDRAWERTYPE@CScaleBaseData@@HPAH3PAVCTextPosition@@PAVCPenEnvironment@@PAVCElementPointList@@PAVCLineExtEnvironment@@PAVCDataTypeEnvironment@@PAUIChartOCX133101@@AAVCBlockIndex@@V23@@Z$24
	DD	018H
	DD	FLAT:__unwindfunclet$??0CDlgFiboSet@@QAE@PAVCWnd@@ABV?$CStringT@DV?$StrTraitMFC_DLL@DV?$ChTraitsCRT@D@ATL@@@@@ATL@@ABW4HORZSCALEDRAWERTYPE@CScaleBaseData@@HPAH3PAVCTextPosition@@PAVCPenEnvironment@@PAVCElementPointList@@PAVCLineExtEnvironment@@PAVCDataTypeEnvironment@@PAUIChartOCX133101@@AAVCBlockIndex@@V23@@Z$25
	DD	019H
	DD	FLAT:__unwindfunclet$??0CDlgFiboSet@@QAE@PAVCWnd@@ABV?$CStringT@DV?$StrTraitMFC_DLL@DV?$ChTraitsCRT@D@ATL@@@@@ATL@@ABW4HORZSCALEDRAWERTYPE@CScaleBaseData@@HPAH3PAVCTextPosition@@PAVCPenEnvironment@@PAVCElementPointList@@PAVCLineExtEnvironment@@PAVCDataTypeEnvironment@@PAUIChartOCX133101@@AAVCBlockIndex@@V23@@Z$26
	DD	01aH
	DD	FLAT:__unwindfunclet$??0CDlgFiboSet@@QAE@PAVCWnd@@ABV?$CStringT@DV?$StrTraitMFC_DLL@DV?$ChTraitsCRT@D@ATL@@@@@ATL@@ABW4HORZSCALEDRAWERTYPE@CScaleBaseData@@HPAH3PAVCTextPosition@@PAVCPenEnvironment@@PAVCElementPointList@@PAVCLineExtEnvironment@@PAVCDataTypeEnvironment@@PAUIChartOCX133101@@AAVCBlockIndex@@V23@@Z$27
xdata$x	ENDS
;	COMDAT xdata$x
xdata$x	SEGMENT
__unwindtable$??0CElementPointList@@QAE@ABV0@@Z DD 0ffffffffH
	DD	FLAT:__unwindfunclet$??0CElementPointList@@QAE@ABV0@@Z$2
	DD	00H
	DD	FLAT:__unwindfunclet$??0CElementPointList@@QAE@ABV0@@Z$3
__ehfuncinfo$??0CElementPointList@@QAE@ABV0@@Z DD 019930522H
	DD	02H
	DD	FLAT:__unwindtable$??0CElementPointList@@QAE@ABV0@@Z
	DD	2 DUP(00H)
	DD	2 DUP(00H)
	DD	00H
	DD	01H
xdata$x	ENDS
;	COMDAT xdata$x
xdata$x	SEGMENT
__unwindtable$??0?$CDequePointerList@VCCoordinate@@@@QAE@ABV0@@Z DD 0ffffffffH
	DD	FLAT:__unwindfunclet$??0?$CDequePointerList@VCCoordinate@@@@QAE@ABV0@@Z$1
	DD	00H
	DD	FLAT:__unwindfunclet$??0?$CDequePointerList@VCCoordinate@@@@QAE@ABV0@@Z$2
__ehfuncinfo$??0?$CDequePointerList@VCCoordinate@@@@QAE@ABV0@@Z DD 019930522H
	DD	02H
	DD	FLAT:__unwindtable$??0?$CDequePointerList@VCCoordinate@@@@QAE@ABV0@@Z
	DD	2 DUP(00H)
	DD	2 DUP(00H)
	DD	00H
	DD	01H
xdata$x	ENDS
;	COMDAT xdata$x
xdata$x	SEGMENT
__unwindtable$??0?$deque@PAVCCoordinate@@V?$allocator@PAVCCoordinate@@@std@@@std@@QAE@ABV01@@Z DD 0ffffffffH
	DD	FLAT:__unwindfunclet$??0?$deque@PAVCCoordinate@@V?$allocator@PAVCCoordinate@@@std@@@std@@QAE@ABV01@@Z$0
	DD	00H
	DD	FLAT:__unwindfunclet$??0?$deque@PAVCCoordinate@@V?$allocator@PAVCCoordinate@@@std@@@std@@QAE@ABV01@@Z$1
__ehfuncinfo$??0?$deque@PAVCCoordinate@@V?$allocator@PAVCCoordinate@@@std@@@std@@QAE@ABV01@@Z DD 019930522H
	DD	02H
	DD	FLAT:__unwindtable$??0?$deque@PAVCCoordinate@@V?$allocator@PAVCCoordinate@@@std@@@std@@QAE@ABV01@@Z
	DD	2 DUP(00H)
	DD	2 DUP(00H)
	DD	00H
	DD	01H
xdata$x	ENDS
;	COMDAT xdata$x
xdata$x	SEGMENT
__catchsym$??1CGdiObject@@UAE@XZ$3 DD 00H
	DD	FLAT:??_R0PAVCException@@@8
	DD	0fffffde4H
	DD	FLAT:__catch$??1CGdiObject@@UAE@XZ$0
__tryblocktable$??1CGdiObject@@UAE@XZ DD 00H
	DD	00H
	DD	02H
	DD	01H
	DD	FLAT:__catchsym$??1CGdiObject@@UAE@XZ$3
__unwindtable$??1CGdiObject@@UAE@XZ DD 0ffffffffH
	DD	00H
	DD	0ffffffffH
	DD	00H
	DD	01H
	DD	FLAT:__unwindfunclet$??1CGdiObject@@UAE@XZ$2
__ehfuncinfo$??1CGdiObject@@UAE@XZ DD 019930522H
	DD	03H
	DD	FLAT:__unwindtable$??1CGdiObject@@UAE@XZ
	DD	01H
	DD	FLAT:__tryblocktable$??1CGdiObject@@UAE@XZ
	DD	2 DUP(00H)
	DD	00H
	DD	05H
xdata$x	ENDS
;	COMDAT xdata$x
xdata$x	SEGMENT
__unwindtable$??HATL@@YA?AV?$CStringT@DV?$StrTraitMFC_DLL@DV?$ChTraitsCRT@D@ATL@@@@@0@PBDABV10@@Z DD 0ffffffffH
	DD	FLAT:__unwindfunclet$??HATL@@YA?AV?$CStringT@DV?$StrTraitMFC_DLL@DV?$ChTraitsCRT@D@ATL@@@@@0@PBDABV10@@Z$0
__ehfuncinfo$??HATL@@YA?AV?$CStringT@DV?$StrTraitMFC_DLL@DV?$ChTraitsCRT@D@ATL@@@@@0@PBDABV10@@Z DD 019930522H
	DD	01H
	DD	FLAT:__unwindtable$??HATL@@YA?AV?$CStringT@DV?$StrTraitMFC_DLL@DV?$ChTraitsCRT@D@ATL@@@@@0@PBDABV10@@Z
	DD	2 DUP(00H)
	DD	2 DUP(00H)
	DD	00H
	DD	01H
xdata$x	ENDS
; Function compile flags: /Ogtp
; File C:\Program Files (x86)\Microsoft Visual Studio\2019\Community\VC\Tools\MSVC\14.29.30133\include\xutility
;	COMDAT ??$_Copy_memmove@PAPAPAVCCoordinate@@PAPAPAV1@@std@@YAPAPAPAVCCoordinate@@PAPAPAV1@00@Z
_TEXT	SEGMENT
__First$ = 8						; size = 4
__Last$ = 12						; size = 4
__Dest$ = 16						; size = 4
??$_Copy_memmove@PAPAPAVCCoordinate@@PAPAPAV1@@std@@YAPAPAPAVCCoordinate@@PAPAPAV1@00@Z PROC ; std::_Copy_memmove<CCoordinate * * *,CCoordinate * * *>, COMDAT

; 4058 : _OutCtgIt _Copy_memmove(_CtgIt _First, _CtgIt _Last, _OutCtgIt _Dest) {

  00000	55		 push	 ebp
  00001	8b ec		 mov	 ebp, esp

; 4059 :     auto _FirstPtr              = _To_address(_First);
; 4060 :     auto _LastPtr               = _To_address(_Last);
; 4061 :     auto _DestPtr               = _To_address(_Dest);
; 4062 :     const char* const _First_ch = const_cast<const char*>(reinterpret_cast<const volatile char*>(_FirstPtr));
; 4063 :     const char* const _Last_ch  = const_cast<const char*>(reinterpret_cast<const volatile char*>(_LastPtr));
; 4064 :     char* const _Dest_ch        = const_cast<char*>(reinterpret_cast<const volatile char*>(_DestPtr));
; 4065 :     const auto _Count           = static_cast<size_t>(_Last_ch - _First_ch);

  00003	8b 45 08	 mov	 eax, DWORD PTR __First$[ebp]
  00006	56		 push	 esi

; 4066 :     _CSTD memmove(_Dest_ch, _First_ch, _Count);

  00007	8b 75 10	 mov	 esi, DWORD PTR __Dest$[ebp]
  0000a	57		 push	 edi
  0000b	8b 7d 0c	 mov	 edi, DWORD PTR __Last$[ebp]
  0000e	2b f8		 sub	 edi, eax
  00010	57		 push	 edi
  00011	50		 push	 eax
  00012	56		 push	 esi
  00013	e8 00 00 00 00	 call	 _memmove
  00018	83 c4 0c	 add	 esp, 12			; 0000000cH

; 4067 :     if constexpr (is_pointer_v<_OutCtgIt>) {
; 4068 :         return reinterpret_cast<_OutCtgIt>(_Dest_ch + _Count);

  0001b	8d 04 37	 lea	 eax, DWORD PTR [edi+esi]
  0001e	5f		 pop	 edi
  0001f	5e		 pop	 esi

; 4069 :     } else {
; 4070 :         return _Dest + (_LastPtr - _FirstPtr);
; 4071 :     }
; 4072 : }

  00020	5d		 pop	 ebp
  00021	c3		 ret	 0
??$_Copy_memmove@PAPAPAVCCoordinate@@PAPAPAV1@@std@@YAPAPAPAVCCoordinate@@PAPAPAV1@00@Z ENDP ; std::_Copy_memmove<CCoordinate * * *,CCoordinate * * *>
_TEXT	ENDS
; Function compile flags: /Ogtp
; File C:\Program Files (x86)\Microsoft Visual Studio\2019\Community\VC\Tools\MSVC\14.29.30133\include\xmemory
;	COMDAT ??$_Zero_range@PAPAPAVCCoordinate@@@std@@YAPAPAPAVCCoordinate@@QAPAPAV1@0@Z
_TEXT	SEGMENT
__First$ = 8						; size = 4
__Last$ = 12						; size = 4
??$_Zero_range@PAPAPAVCCoordinate@@@std@@YAPAPAPAVCCoordinate@@QAPAPAV1@0@Z PROC ; std::_Zero_range<CCoordinate * * *>, COMDAT

; 1789 : _Ptr _Zero_range(const _Ptr _First, const _Ptr _Last) { // fill [_First, _Last) with zeroes

  00000	55		 push	 ebp
  00001	8b ec		 mov	 ebp, esp

; 1790 :     char* const _First_ch = reinterpret_cast<char*>(_To_address(_First));
; 1791 :     char* const _Last_ch  = reinterpret_cast<char*>(_To_address(_Last));
; 1792 :     _CSTD memset(_First_ch, 0, static_cast<size_t>(_Last_ch - _First_ch));

  00003	8b 55 08	 mov	 edx, DWORD PTR __First$[ebp]
  00006	8b 4d 0c	 mov	 ecx, DWORD PTR __Last$[ebp]
  00009	2b ca		 sub	 ecx, edx
  0000b	51		 push	 ecx
  0000c	6a 00		 push	 0
  0000e	52		 push	 edx
  0000f	e8 00 00 00 00	 call	 _memset

; 1793 :     return _Last;

  00014	8b 45 0c	 mov	 eax, DWORD PTR __Last$[ebp]
  00017	83 c4 0c	 add	 esp, 12			; 0000000cH

; 1794 : }

  0001a	5d		 pop	 ebp
  0001b	c3		 ret	 0
??$_Zero_range@PAPAPAVCCoordinate@@@std@@YAPAPAPAVCCoordinate@@QAPAPAV1@0@Z ENDP ; std::_Zero_range<CCoordinate * * *>
_TEXT	ENDS
; Function compile flags: /Ogtp
; File C:\Program Files (x86)\Microsoft Visual Studio\2019\Community\VC\Tools\MSVC\14.29.30133\include\xmemory
;	COMDAT ??$_Uninitialized_value_construct_n_unchecked1@PAPAPAVCCoordinate@@I@std@@YAPAPAPAVCCoordinate@@PAPAPAV1@I@Z
_TEXT	SEGMENT
__UFirst$ = 8						; size = 4
__Count$ = 12						; size = 4
??$_Uninitialized_value_construct_n_unchecked1@PAPAPAVCCoordinate@@I@std@@YAPAPAPAVCCoordinate@@PAPAPAV1@I@Z PROC ; std::_Uninitialized_value_construct_n_unchecked1<CCoordinate * * *,unsigned int>, COMDAT

; 1821 : _NoThrowFwdIt _Uninitialized_value_construct_n_unchecked1(_NoThrowFwdIt _UFirst, _Diff _Count) {

  00000	55		 push	 ebp
  00001	8b ec		 mov	 ebp, esp

; 1822 :     // value-initialize all elements in [_UFirst, _UFirst + _Count_raw)
; 1823 :     _STL_INTERNAL_CHECK(_Count >= 0);
; 1824 :     if constexpr (_Use_memset_value_construct_v<_NoThrowFwdIt>) {
; 1825 :         return _Zero_range(_UFirst, _UFirst + _Count);

  00003	8b 45 0c	 mov	 eax, DWORD PTR __Count$[ebp]
  00006	56		 push	 esi

; 1792 :     _CSTD memset(_First_ch, 0, static_cast<size_t>(_Last_ch - _First_ch));

  00007	8b 75 08	 mov	 esi, DWORD PTR __UFirst$[ebp]

; 1821 : _NoThrowFwdIt _Uninitialized_value_construct_n_unchecked1(_NoThrowFwdIt _UFirst, _Diff _Count) {

  0000a	57		 push	 edi

; 1822 :     // value-initialize all elements in [_UFirst, _UFirst + _Count_raw)
; 1823 :     _STL_INTERNAL_CHECK(_Count >= 0);
; 1824 :     if constexpr (_Use_memset_value_construct_v<_NoThrowFwdIt>) {
; 1825 :         return _Zero_range(_UFirst, _UFirst + _Count);

  0000b	8d 3c 85 00 00
	00 00		 lea	 edi, DWORD PTR [eax*4]

; 1792 :     _CSTD memset(_First_ch, 0, static_cast<size_t>(_Last_ch - _First_ch));

  00012	57		 push	 edi
  00013	6a 00		 push	 0
  00015	56		 push	 esi
  00016	e8 00 00 00 00	 call	 _memset
  0001b	83 c4 0c	 add	 esp, 12			; 0000000cH

; 1822 :     // value-initialize all elements in [_UFirst, _UFirst + _Count_raw)
; 1823 :     _STL_INTERNAL_CHECK(_Count >= 0);
; 1824 :     if constexpr (_Use_memset_value_construct_v<_NoThrowFwdIt>) {
; 1825 :         return _Zero_range(_UFirst, _UFirst + _Count);

  0001e	8d 04 37	 lea	 eax, DWORD PTR [edi+esi]
  00021	5f		 pop	 edi
  00022	5e		 pop	 esi

; 1826 :     } else {
; 1827 :         _Uninitialized_backout<_NoThrowFwdIt> _Backout{_UFirst};
; 1828 :         for (; 0 < _Count; --_Count) {
; 1829 :             _Backout._Emplace_back();
; 1830 :         }
; 1831 : 
; 1832 :         return _Backout._Release();
; 1833 :     }
; 1834 : }

  00023	5d		 pop	 ebp
  00024	c3		 ret	 0
??$_Uninitialized_value_construct_n_unchecked1@PAPAPAVCCoordinate@@I@std@@YAPAPAPAVCCoordinate@@PAPAPAV1@I@Z ENDP ; std::_Uninitialized_value_construct_n_unchecked1<CCoordinate * * *,unsigned int>
_TEXT	ENDS
; Function compile flags: /Ogtp
; File C:\Program Files (x86)\Microsoft Visual Studio\2019\Community\VC\Tools\MSVC\14.29.30133\include\xmemory
; File C:\Program Files (x86)\Microsoft Visual Studio\2019\Community\VC\Tools\MSVC\14.29.30133\include\xutility
; File C:\Program Files (x86)\Microsoft Visual Studio\2019\Community\VC\Tools\MSVC\14.29.30133\include\xmemory
; File C:\Program Files (x86)\Microsoft Visual Studio\2019\Community\VC\Tools\MSVC\14.29.30133\include\xutility
; File C:\Program Files (x86)\Microsoft Visual Studio\2019\Community\VC\Tools\MSVC\14.29.30133\include\xmemory
; File C:\Program Files (x86)\Microsoft Visual Studio\2019\Community\VC\Tools\MSVC\14.29.30133\include\xutility
; File C:\Program Files (x86)\Microsoft Visual Studio\2019\Community\VC\Tools\MSVC\14.29.30133\include\xmemory
;	COMDAT ??$uninitialized_copy@PAPAPAVCCoordinate@@PAPAPAV1@@std@@YAPAPAPAVCCoordinate@@QAPAPAV1@0PAPAPAV1@@Z
_TEXT	SEGMENT
__First$ = 8						; size = 4
__Last$ = 12						; size = 4
__Dest$ = 16						; size = 4
??$uninitialized_copy@PAPAPAVCCoordinate@@PAPAPAV1@@std@@YAPAPAPAVCCoordinate@@QAPAPAV1@0PAPAPAV1@@Z PROC ; std::uninitialized_copy<CCoordinate * * *,CCoordinate * * *>, COMDAT

; 1687 : _NoThrowFwdIt uninitialized_copy(const _InIt _First, const _InIt _Last, _NoThrowFwdIt _Dest) {

  00000	55		 push	 ebp
  00001	8b ec		 mov	 ebp, esp
; File C:\Program Files (x86)\Microsoft Visual Studio\2019\Community\VC\Tools\MSVC\14.29.30133\include\xutility

; 4065 :     const auto _Count           = static_cast<size_t>(_Last_ch - _First_ch);

  00003	8b 45 08	 mov	 eax, DWORD PTR __First$[ebp]
; File C:\Program Files (x86)\Microsoft Visual Studio\2019\Community\VC\Tools\MSVC\14.29.30133\include\xmemory

; 1687 : _NoThrowFwdIt uninitialized_copy(const _InIt _First, const _InIt _Last, _NoThrowFwdIt _Dest) {

  00006	56		 push	 esi
; File C:\Program Files (x86)\Microsoft Visual Studio\2019\Community\VC\Tools\MSVC\14.29.30133\include\xutility

; 4066 :     _CSTD memmove(_Dest_ch, _First_ch, _Count);

  00007	8b 75 10	 mov	 esi, DWORD PTR __Dest$[ebp]
; File C:\Program Files (x86)\Microsoft Visual Studio\2019\Community\VC\Tools\MSVC\14.29.30133\include\xmemory

; 1687 : _NoThrowFwdIt uninitialized_copy(const _InIt _First, const _InIt _Last, _NoThrowFwdIt _Dest) {

  0000a	57		 push	 edi
; File C:\Program Files (x86)\Microsoft Visual Studio\2019\Community\VC\Tools\MSVC\14.29.30133\include\xutility

; 4065 :     const auto _Count           = static_cast<size_t>(_Last_ch - _First_ch);

  0000b	8b 7d 0c	 mov	 edi, DWORD PTR __Last$[ebp]
  0000e	2b f8		 sub	 edi, eax

; 4066 :     _CSTD memmove(_Dest_ch, _First_ch, _Count);

  00010	57		 push	 edi
  00011	50		 push	 eax
  00012	56		 push	 esi
  00013	e8 00 00 00 00	 call	 _memmove
  00018	83 c4 0c	 add	 esp, 12			; 0000000cH

; 4067 :     if constexpr (is_pointer_v<_OutCtgIt>) {
; 4068 :         return reinterpret_cast<_OutCtgIt>(_Dest_ch + _Count);

  0001b	8d 04 37	 lea	 eax, DWORD PTR [edi+esi]
; File C:\Program Files (x86)\Microsoft Visual Studio\2019\Community\VC\Tools\MSVC\14.29.30133\include\xmemory

; 1694 :     return _Dest;

  0001e	5f		 pop	 edi
  0001f	5e		 pop	 esi

; 1695 : }

  00020	5d		 pop	 ebp
  00021	c3		 ret	 0
??$uninitialized_copy@PAPAPAVCCoordinate@@PAPAPAV1@@std@@YAPAPAPAVCCoordinate@@QAPAPAV1@0PAPAPAV1@@Z ENDP ; std::uninitialized_copy<CCoordinate * * *,CCoordinate * * *>
_TEXT	ENDS
; Function compile flags: /Ogtp
; File C:\Program Files (x86)\Microsoft Visual Studio\2019\Community\VC\Tools\MSVC\14.29.30133\include\xmemory
;	COMDAT ??$_Allocate_manually_vector_aligned@U_Default_allocate_traits@std@@@std@@YAPAXI@Z
_TEXT	SEGMENT
__Bytes$ = 8						; size = 4
??$_Allocate_manually_vector_aligned@U_Default_allocate_traits@std@@@std@@YAPAXI@Z PROC ; std::_Allocate_manually_vector_aligned<std::_Default_allocate_traits>, COMDAT

; 127  : __declspec(allocator) void* _Allocate_manually_vector_aligned(const size_t _Bytes) {

  00000	55		 push	 ebp
  00001	8b ec		 mov	 ebp, esp

; 128  :     // allocate _Bytes manually aligned to at least _Big_allocation_alignment
; 129  :     const size_t _Block_size = _Non_user_size + _Bytes;

  00003	8b 45 08	 mov	 eax, DWORD PTR __Bytes$[ebp]
  00006	8d 48 23	 lea	 ecx, DWORD PTR [eax+35]

; 130  :     if (_Block_size <= _Bytes) {

  00009	3b c8		 cmp	 ecx, eax
  0000b	0f 86 00 00 00
	00		 jbe	 ?_Throw_bad_array_new_length@std@@YAXXZ ; std::_Throw_bad_array_new_length

; 79   :         return ::operator new(_Bytes);

  00011	51		 push	 ecx
  00012	e8 00 00 00 00	 call	 ??2@YAPAXI@Z		; operator new

; 131  :         _Throw_bad_array_new_length(); // add overflow
; 132  :     }
; 133  : 
; 134  :     const uintptr_t _Ptr_container = reinterpret_cast<uintptr_t>(_Traits::_Allocate(_Block_size));

  00017	8b c8		 mov	 ecx, eax

; 79   :         return ::operator new(_Bytes);

  00019	83 c4 04	 add	 esp, 4

; 135  :     _STL_VERIFY(_Ptr_container != 0, "invalid argument"); // validate even in release since we're doing p[-1]

  0001c	85 c9		 test	 ecx, ecx
  0001e	74 0b		 je	 SHORT $LN7@Allocate_m

; 136  :     void* const _Ptr = reinterpret_cast<void*>((_Ptr_container + _Non_user_size) & ~(_Big_allocation_alignment - 1));

  00020	8d 41 23	 lea	 eax, DWORD PTR [ecx+35]
  00023	83 e0 e0	 and	 eax, -32		; ffffffe0H

; 137  :     static_cast<uintptr_t*>(_Ptr)[-1] = _Ptr_container;

  00026	89 48 fc	 mov	 DWORD PTR [eax-4], ecx

; 138  : 
; 139  : #ifdef _DEBUG
; 140  :     static_cast<uintptr_t*>(_Ptr)[-2] = _Big_allocation_sentinel;
; 141  : #endif // _DEBUG
; 142  :     return _Ptr;
; 143  : }

  00029	5d		 pop	 ebp
  0002a	c3		 ret	 0
$LN7@Allocate_m:

; 135  :     _STL_VERIFY(_Ptr_container != 0, "invalid argument"); // validate even in release since we're doing p[-1]

  0002b	ff 25 00 00 00
	00		 jmp	 DWORD PTR __imp___invalid_parameter_noinfo_noreturn
??$_Allocate_manually_vector_aligned@U_Default_allocate_traits@std@@@std@@YAPAXI@Z ENDP ; std::_Allocate_manually_vector_aligned<std::_Default_allocate_traits>
_TEXT	ENDS
; Function compile flags: /Ogtp
; File C:\Program Files (x86)\Microsoft Visual Studio\2019\Community\VC\Tools\MSVC\14.29.30133\include\xmemory
;	COMDAT ??1?$_Tidy_guard@V?$deque@PAVCCoordinate@@V?$allocator@PAVCCoordinate@@@std@@@std@@@std@@QAE@XZ
_TEXT	SEGMENT
??1?$_Tidy_guard@V?$deque@PAVCCoordinate@@V?$allocator@PAVCCoordinate@@@std@@@std@@@std@@QAE@XZ PROC ; std::_Tidy_guard<std::deque<CCoordinate *,std::allocator<CCoordinate *> > >::~_Tidy_guard<std::deque<CCoordinate *,std::allocator<CCoordinate *> > >, COMDAT
; _this$ = ecx

; 34   :         if (_Target) {

  00000	8b 09		 mov	 ecx, DWORD PTR [ecx]
  00002	85 c9		 test	 ecx, ecx
  00004	0f 85 00 00 00
	00		 jne	 ?_Tidy@?$deque@PAVCCoordinate@@V?$allocator@PAVCCoordinate@@@std@@@std@@AAEXXZ ; std::deque<CCoordinate *,std::allocator<CCoordinate *> >::_Tidy

; 35   :             _Target->_Tidy();
; 36   :         }
; 37   :     }

  0000a	c3		 ret	 0
??1?$_Tidy_guard@V?$deque@PAVCCoordinate@@V?$allocator@PAVCCoordinate@@@std@@@std@@@std@@QAE@XZ ENDP ; std::_Tidy_guard<std::deque<CCoordinate *,std::allocator<CCoordinate *> > >::~_Tidy_guard<std::deque<CCoordinate *,std::allocator<CCoordinate *> > >
_TEXT	ENDS
; Function compile flags: /Ogtp
; File C:\Program Files (x86)\Microsoft Visual Studio\2019\Community\VC\Tools\MSVC\14.29.30133\include\xmemory
;	COMDAT ??1?$_Container_proxy_ptr12@V?$allocator@U_Container_proxy@std@@@std@@@std@@QAE@XZ
_TEXT	SEGMENT
??1?$_Container_proxy_ptr12@V?$allocator@U_Container_proxy@std@@@std@@@std@@QAE@XZ PROC ; std::_Container_proxy_ptr12<std::allocator<std::_Container_proxy> >::~_Container_proxy_ptr12<std::allocator<std::_Container_proxy> >, COMDAT
; _this$ = ecx

; 1296 :         if (_Ptr) {

  00000	8b 01		 mov	 eax, DWORD PTR [ecx]
  00002	85 c0		 test	 eax, eax
  00004	74 0b		 je	 SHORT $LN12@Container_

; 255  :         ::operator delete(_Ptr, _Bytes);

  00006	6a 08		 push	 8
  00008	50		 push	 eax
  00009	e8 00 00 00 00	 call	 ??3@YAXPAXI@Z		; operator delete
  0000e	83 c4 08	 add	 esp, 8
$LN12@Container_:

; 1297 :             _Delete_plain_internal(_Al, _Ptr);
; 1298 :         }
; 1299 :     }

  00011	c3		 ret	 0
??1?$_Container_proxy_ptr12@V?$allocator@U_Container_proxy@std@@@std@@@std@@QAE@XZ ENDP ; std::_Container_proxy_ptr12<std::allocator<std::_Container_proxy> >::~_Container_proxy_ptr12<std::allocator<std::_Container_proxy> >
_TEXT	ENDS
; Function compile flags: /Ogtp
; File D:\git\src\IBK\IBK_DRFN\ProjSrc\SrcChartEx\ChartAddIn\ChartAnalysisToolAddIn\Include_Chart\Dll_Load\IMetaTable.h
; File C:\Program Files (x86)\Microsoft Visual Studio\2019\Community\VC\Tools\MSVC\14.29.30133\atlmfc\include\afxwin1.inl
; File D:\git\src\IBK\IBK_DRFN\ProjSrc\SrcChartEx\ChartAddIn\ChartAnalysisToolAddIn\Include_Chart\Dll_Load\IMetaTable.h
;	COMDAT ??1CMultiLanguageResourceSetter@@QAE@XZ
_TEXT	SEGMENT
__$EHRec$ = -12						; size = 12
??1CMultiLanguageResourceSetter@@QAE@XZ PROC		; CMultiLanguageResourceSetter::~CMultiLanguageResourceSetter, COMDAT
; _this$ = ecx

; 1038 : 	{

  00000	55		 push	 ebp
  00001	8b ec		 mov	 ebp, esp
  00003	6a ff		 push	 -1
  00005	68 00 00 00 00	 push	 __ehhandler$??1CMultiLanguageResourceSetter@@QAE@XZ
  0000a	64 a1 00 00 00
	00		 mov	 eax, DWORD PTR fs:0
  00010	50		 push	 eax
  00011	56		 push	 esi
  00012	a1 00 00 00 00	 mov	 eax, DWORD PTR ___security_cookie
  00017	33 c5		 xor	 eax, ebp
  00019	50		 push	 eax
  0001a	8d 45 f4	 lea	 eax, DWORD PTR __$EHRec$[ebp]
  0001d	64 a3 00 00 00
	00		 mov	 DWORD PTR fs:0, eax

; 1039 : 		AfxSetResourceHandle( m_hInstance);

  00023	8b 31		 mov	 esi, DWORD PTR [ecx]
; File C:\Program Files (x86)\Microsoft Visual Studio\2019\Community\VC\Tools\MSVC\14.29.30133\atlmfc\include\afxwin1.inl

; 27   : 	{ ASSERT(hInstResource != NULL); afxCurrentResourceHandle = hInstResource; }

  00025	e8 00 00 00 00	 call	 ?AfxGetModuleState@@YGPAVAFX_MODULE_STATE@@XZ ; AfxGetModuleState
  0002a	89 70 0c	 mov	 DWORD PTR [eax+12], esi
; File D:\git\src\IBK\IBK_DRFN\ProjSrc\SrcChartEx\ChartAddIn\ChartAnalysisToolAddIn\Include_Chart\Dll_Load\IMetaTable.h

; 1040 : 	}

  0002d	8b 4d f4	 mov	 ecx, DWORD PTR __$EHRec$[ebp]
  00030	64 89 0d 00 00
	00 00		 mov	 DWORD PTR fs:0, ecx
  00037	59		 pop	 ecx
  00038	5e		 pop	 esi
  00039	8b e5		 mov	 esp, ebp
  0003b	5d		 pop	 ebp
  0003c	c3		 ret	 0
  0003d	cc		 int	 3
  0003e	cc		 int	 3
  0003f	cc		 int	 3
  00040	cc		 int	 3
  00041	cc		 int	 3
_TEXT	ENDS
;	COMDAT text$x
text$x	SEGMENT
__ehhandler$??1CMultiLanguageResourceSetter@@QAE@XZ:
  00000	90		 npad	 1
  00001	90		 npad	 1
  00002	8b 54 24 08	 mov	 edx, DWORD PTR [esp+8]
  00006	8d 42 0c	 lea	 eax, DWORD PTR [edx+12]
  00009	8b 4a f8	 mov	 ecx, DWORD PTR [edx-8]
  0000c	33 c8		 xor	 ecx, eax
  0000e	e8 00 00 00 00	 call	 @__security_check_cookie@4
  00013	b8 00 00 00 00	 mov	 eax, OFFSET __ehfuncinfo$??1CMultiLanguageResourceSetter@@QAE@XZ
  00018	e9 00 00 00 00	 jmp	 ___CxxFrameHandler3
text$x	ENDS
??1CMultiLanguageResourceSetter@@QAE@XZ ENDP		; CMultiLanguageResourceSetter::~CMultiLanguageResourceSetter
; Function compile flags: /Ogtp
; File D:\git\src\IBK\IBK_DRFN\ProjSrc\SrcChartEx\ChartAddIn\ChartAnalysisToolAddIn\Include_Chart\Dll_Load\IMetaTable.h
;	COMDAT ?LoadResourceDLL@IMetaTable@@QAEPAUHINSTANCE__@@PAUHWND__@@PAU2@@Z
_TEXT	SEGMENT
_p1$ = 8						; size = 4
_p2$ = 12						; size = 4
?LoadResourceDLL@IMetaTable@@QAEPAUHINSTANCE__@@PAUHWND__@@PAU2@@Z PROC ; IMetaTable::LoadResourceDLL, COMDAT
; _this$ = ecx

; 938  : 	DECLARE_FUNCTION2(	LoadResourceDLL,				HMODULE, AfxGetStaticModuleState()->m_hCurrentInstanceHandle, HWND, HMODULE);

  00000	55		 push	 ebp
  00001	8b ec		 mov	 ebp, esp
  00003	56		 push	 esi
  00004	8b f1		 mov	 esi, ecx
  00006	8b 46 04	 mov	 eax, DWORD PTR [esi+4]
  00009	85 c0		 test	 eax, eax
  0000b	74 4d		 je	 SHORT $LN4@LoadResour
  0000d	57		 push	 edi
  0000e	bf 80 0d 00 00	 mov	 edi, 3456		; 00000d80H
  00013	66 3b be 94 00
	00 00		 cmp	 di, WORD PTR [esi+148]
  0001a	74 23		 je	 SHORT $LN3@LoadResour
  0001c	68 00 00 00 00	 push	 OFFSET ??_C@_0BA@ENJOCHIO@LoadResourceDLL@
  00021	50		 push	 eax
  00022	c7 86 90 00 00
	00 00 00 00 00	 mov	 DWORD PTR [esi+144], 0
  0002c	ff 15 00 00 00
	00		 call	 DWORD PTR __imp__GetProcAddress@8
  00032	89 86 90 00 00
	00		 mov	 DWORD PTR [esi+144], eax
  00038	66 89 be 94 00
	00 00		 mov	 WORD PTR [esi+148], di
$LN3@LoadResour:
  0003f	8b 86 90 00 00
	00		 mov	 eax, DWORD PTR [esi+144]
  00045	5f		 pop	 edi
  00046	85 c0		 test	 eax, eax
  00048	74 10		 je	 SHORT $LN4@LoadResour
  0004a	ff 75 0c	 push	 DWORD PTR _p2$[ebp]
  0004d	ff 75 08	 push	 DWORD PTR _p1$[ebp]
  00050	ff d0		 call	 eax
  00052	83 c4 08	 add	 esp, 8
  00055	5e		 pop	 esi
  00056	5d		 pop	 ebp
  00057	c2 08 00	 ret	 8
$LN4@LoadResour:
  0005a	e8 00 00 00 00	 call	 ?AfxGetStaticModuleState@@YGPAVAFX_MODULE_STATE@@XZ ; AfxGetStaticModuleState
  0005f	5e		 pop	 esi
  00060	8b 40 08	 mov	 eax, DWORD PTR [eax+8]
  00063	5d		 pop	 ebp
  00064	c2 08 00	 ret	 8
?LoadResourceDLL@IMetaTable@@QAEPAUHINSTANCE__@@PAUHWND__@@PAU2@@Z ENDP ; IMetaTable::LoadResourceDLL
_TEXT	ENDS
; Function compile flags: /Ogtp
; File C:\Program Files (x86)\Microsoft Visual Studio\2019\Community\VC\Tools\MSVC\14.29.30133\include\deque
; File C:\Program Files (x86)\Microsoft Visual Studio\2019\Community\VC\Tools\MSVC\14.29.30133\include\utility
; File C:\Program Files (x86)\Microsoft Visual Studio\2019\Community\VC\Tools\MSVC\14.29.30133\include\xmemory
; File C:\Program Files (x86)\Microsoft Visual Studio\2019\Community\VC\Tools\MSVC\14.29.30133\include\utility
; File C:\Program Files (x86)\Microsoft Visual Studio\2019\Community\VC\Tools\MSVC\14.29.30133\include\xmemory
; File C:\Program Files (x86)\Microsoft Visual Studio\2019\Community\VC\Tools\MSVC\14.29.30133\atlmfc\include\afxwin1.inl
; File C:\Program Files (x86)\Microsoft Visual Studio\2019\Community\VC\Tools\MSVC\14.29.30133\atlmfc\include\afx.inl
;	COMDAT ??_GCDlgFiboSet@@UAEPAXI@Z
_TEXT	SEGMENT
___flags$ = 8						; size = 4
??_GCDlgFiboSet@@UAEPAXI@Z PROC				; CDlgFiboSet::`scalar deleting destructor', COMDAT
; _this$ = ecx
  00000	55		 push	 ebp
  00001	8b ec		 mov	 ebp, esp
; File C:\Program Files (x86)\Microsoft Visual Studio\2019\Community\VC\Tools\MSVC\14.29.30133\include\deque

; 1332 :         _Tidy();

  00003	56		 push	 esi
  00004	57		 push	 edi
  00005	8b f9		 mov	 edi, ecx
  00007	8d 8f 70 0c 00
	00		 lea	 ecx, DWORD PTR [edi+3184]
  0000d	e8 00 00 00 00	 call	 ?_Tidy@?$deque@PAVCCoordinate@@V?$allocator@PAVCCoordinate@@@std@@@std@@AAEXXZ ; std::deque<CCoordinate *,std::allocator<CCoordinate *> >::_Tidy

; 861  :         _Tidy();

  00012	8d 8f 70 0c 00
	00		 lea	 ecx, DWORD PTR [edi+3184]
  00018	e8 00 00 00 00	 call	 ?_Tidy@?$deque@PAVCCoordinate@@V?$allocator@PAVCCoordinate@@@std@@@std@@AAEXXZ ; std::deque<CCoordinate *,std::allocator<CCoordinate *> >::_Tidy
; File C:\Program Files (x86)\Microsoft Visual Studio\2019\Community\VC\Tools\MSVC\14.29.30133\include\utility

; 602  :     _Ty _Old_val = static_cast<_Ty&&>(_Val);

  0001d	8b 87 70 0c 00
	00		 mov	 eax, DWORD PTR [edi+3184]
; File C:\Program Files (x86)\Microsoft Visual Studio\2019\Community\VC\Tools\MSVC\14.29.30133\include\xmemory

; 255  :         ::operator delete(_Ptr, _Bytes);

  00023	6a 08		 push	 8
  00025	50		 push	 eax
; File C:\Program Files (x86)\Microsoft Visual Studio\2019\Community\VC\Tools\MSVC\14.29.30133\include\utility

; 603  :     _Val         = static_cast<_Other&&>(_New_val);

  00026	c7 87 70 0c 00
	00 00 00 00 00	 mov	 DWORD PTR [edi+3184], 0
; File C:\Program Files (x86)\Microsoft Visual Studio\2019\Community\VC\Tools\MSVC\14.29.30133\include\xmemory

; 255  :         ::operator delete(_Ptr, _Bytes);

  00030	e8 00 00 00 00	 call	 ??3@YAXPAXI@Z		; operator delete
  00035	83 c4 08	 add	 esp, 8
  00038	8d 8f 60 0c 00
	00		 lea	 ecx, DWORD PTR [edi+3168]
  0003e	ff 15 00 00 00
	00		 call	 DWORD PTR __imp_??1?$CStringT@DV?$StrTraitMFC_DLL@DV?$ChTraitsCRT@D@ATL@@@@@ATL@@QAE@XZ
  00044	8d 8f ec 0b 00
	00		 lea	 ecx, DWORD PTR [edi+3052]
  0004a	ff 15 00 00 00
	00		 call	 DWORD PTR __imp_??1?$CStringT@DV?$StrTraitMFC_DLL@DV?$ChTraitsCRT@D@ATL@@@@@ATL@@QAE@XZ
  00050	8d 8f e8 0b 00
	00		 lea	 ecx, DWORD PTR [edi+3048]
  00056	ff 15 00 00 00
	00		 call	 DWORD PTR __imp_??1?$CStringT@DV?$StrTraitMFC_DLL@DV?$ChTraitsCRT@D@ATL@@@@@ATL@@QAE@XZ
  0005c	8d 8f 50 0b 00
	00		 lea	 ecx, DWORD PTR [edi+2896]
  00062	e8 00 00 00 00	 call	 ??1CDateTimeCtrl@@UAE@XZ ; CDateTimeCtrl::~CDateTimeCtrl
  00067	8d 8f d0 0a 00
	00		 lea	 ecx, DWORD PTR [edi+2768]
  0006d	e8 00 00 00 00	 call	 ??1CDateTimeCtrl@@UAE@XZ ; CDateTimeCtrl::~CDateTimeCtrl
  00072	8d 8f 50 0a 00
	00		 lea	 ecx, DWORD PTR [edi+2640]
  00078	e8 00 00 00 00	 call	 ??1CDateTimeCtrl@@UAE@XZ ; CDateTimeCtrl::~CDateTimeCtrl
  0007d	8d 8f d0 09 00
	00		 lea	 ecx, DWORD PTR [edi+2512]
  00083	e8 00 00 00 00	 call	 ??1CEdit@@UAE@XZ	; CEdit::~CEdit
  00088	8d 8f 50 09 00
	00		 lea	 ecx, DWORD PTR [edi+2384]
  0008e	e8 00 00 00 00	 call	 ??1CEdit@@UAE@XZ	; CEdit::~CEdit
  00093	8d 8f d0 08 00
	00		 lea	 ecx, DWORD PTR [edi+2256]
  00099	e8 00 00 00 00	 call	 ??1CEdit@@UAE@XZ	; CEdit::~CEdit
  0009e	8d 8f 50 08 00
	00		 lea	 ecx, DWORD PTR [edi+2128]
  000a4	e8 00 00 00 00	 call	 ??1CEdit@@UAE@XZ	; CEdit::~CEdit
  000a9	8d 8f d0 07 00
	00		 lea	 ecx, DWORD PTR [edi+2000]
  000af	e8 00 00 00 00	 call	 ??1CEdit@@UAE@XZ	; CEdit::~CEdit
  000b4	8d 8f 50 07 00
	00		 lea	 ecx, DWORD PTR [edi+1872]
  000ba	e8 00 00 00 00	 call	 ??1CEdit@@UAE@XZ	; CEdit::~CEdit
  000bf	8d 8f d0 06 00
	00		 lea	 ecx, DWORD PTR [edi+1744]
  000c5	e8 00 00 00 00	 call	 ??1CButton@@UAE@XZ	; CButton::~CButton
  000ca	8d 8f 50 06 00
	00		 lea	 ecx, DWORD PTR [edi+1616]
  000d0	e8 00 00 00 00	 call	 ??1CButton@@UAE@XZ	; CButton::~CButton
  000d5	8d 8f d0 05 00
	00		 lea	 ecx, DWORD PTR [edi+1488]
  000db	e8 00 00 00 00	 call	 ??1CButton@@UAE@XZ	; CButton::~CButton
  000e0	8d 8f 50 05 00
	00		 lea	 ecx, DWORD PTR [edi+1360]
  000e6	e8 00 00 00 00	 call	 ??1CButton@@UAE@XZ	; CButton::~CButton
  000eb	8d 8f d0 04 00
	00		 lea	 ecx, DWORD PTR [edi+1232]
  000f1	e8 00 00 00 00	 call	 ??1CButton@@UAE@XZ	; CButton::~CButton
  000f6	8d 8f 50 04 00
	00		 lea	 ecx, DWORD PTR [edi+1104]
  000fc	e8 00 00 00 00	 call	 ??1CButton@@UAE@XZ	; CButton::~CButton
  00101	8d 8f d0 03 00
	00		 lea	 ecx, DWORD PTR [edi+976]
  00107	e8 00 00 00 00	 call	 ??1CButton@@UAE@XZ	; CButton::~CButton
  0010c	8d 8f 50 03 00
	00		 lea	 ecx, DWORD PTR [edi+848]
  00112	e8 00 00 00 00	 call	 ??1CButton@@UAE@XZ	; CButton::~CButton
  00117	8d 8f d0 02 00
	00		 lea	 ecx, DWORD PTR [edi+720]
  0011d	e8 00 00 00 00	 call	 ??1CButton@@UAE@XZ	; CButton::~CButton
  00122	8d 8f 48 02 00
	00		 lea	 ecx, DWORD PTR [edi+584]
  00128	e8 00 00 00 00	 call	 ??1CButton@@UAE@XZ	; CButton::~CButton
  0012d	8d 8f 3c 02 00
	00		 lea	 ecx, DWORD PTR [edi+572]
; File C:\Program Files (x86)\Microsoft Visual Studio\2019\Community\VC\Tools\MSVC\14.29.30133\atlmfc\include\afxwin1.inl

; 179  : 	{ }

  00133	c7 01 00 00 00
	00		 mov	 DWORD PTR [ecx], OFFSET ??_7CBitmap@@6B@
  00139	e8 00 00 00 00	 call	 ??1CGdiObject@@UAE@XZ	; CGdiObject::~CGdiObject
  0013e	8d 8f b8 01 00
	00		 lea	 ecx, DWORD PTR [edi+440]
  00144	e8 00 00 00 00	 call	 ??1CComboBox@@UAE@XZ	; CComboBox::~CComboBox
  00149	8d 8f ac 01 00
	00		 lea	 ecx, DWORD PTR [edi+428]
  0014f	c7 01 00 00 00
	00		 mov	 DWORD PTR [ecx], OFFSET ??_7CBitmap@@6B@
  00155	e8 00 00 00 00	 call	 ??1CGdiObject@@UAE@XZ	; CGdiObject::~CGdiObject
  0015a	8d 8f 28 01 00
	00		 lea	 ecx, DWORD PTR [edi+296]
  00160	e8 00 00 00 00	 call	 ??1CComboBox@@UAE@XZ	; CComboBox::~CComboBox
  00165	8d 8f a8 00 00
	00		 lea	 ecx, DWORD PTR [edi+168]
  0016b	e8 00 00 00 00	 call	 ??1CButton@@UAE@XZ	; CButton::~CButton
  00170	8b cf		 mov	 ecx, edi
  00172	e8 00 00 00 00	 call	 ??1CDialog@@UAE@XZ	; CDialog::~CDialog
  00177	8b 45 08	 mov	 eax, DWORD PTR ___flags$[ebp]
  0017a	a8 01		 test	 al, 1
  0017c	74 23		 je	 SHORT $LN70@scalar
  0017e	a8 04		 test	 al, 4
  00180	75 11		 jne	 SHORT $LN3@scalar
; File C:\Program Files (x86)\Microsoft Visual Studio\2019\Community\VC\Tools\MSVC\14.29.30133\atlmfc\include\afx.inl

; 112  : 	{ ::operator delete(p); }

  00182	57		 push	 edi
  00183	e8 00 00 00 00	 call	 ??3@YAXPAX@Z		; operator delete
  00188	83 c4 04	 add	 esp, 4
  0018b	8b c7		 mov	 eax, edi
  0018d	5f		 pop	 edi
  0018e	5e		 pop	 esi
  0018f	5d		 pop	 ebp
  00190	c2 04 00	 ret	 4
$LN3@scalar:
  00193	68 18 0d 00 00	 push	 3352			; 00000d18H
  00198	57		 push	 edi
  00199	e8 00 00 00 00	 call	 ?__global_delete@@YAXPAXI@Z ; __global_delete
  0019e	83 c4 08	 add	 esp, 8
$LN70@scalar:
  001a1	8b c7		 mov	 eax, edi
  001a3	5f		 pop	 edi
  001a4	5e		 pop	 esi
  001a5	5d		 pop	 ebp
  001a6	c2 04 00	 ret	 4
??_GCDlgFiboSet@@UAEPAXI@Z ENDP				; CDlgFiboSet::`scalar deleting destructor'
_TEXT	ENDS
; Function compile flags: /Ogtp
; File D:\git\src\IBK\IBK_DRFN\ProjSrc\SrcChartEx\ChartAddIn\ChartAnalysisToolAddIn\AnalysisTool\DlgFiboSet.cpp
;	COMDAT ?GetOrgLineExtEnvironment@CDlgFiboSet@@AAEPAVCLineExtEnvironment@@XZ
_TEXT	SEGMENT
?GetOrgLineExtEnvironment@CDlgFiboSet@@AAEPAVCLineExtEnvironment@@XZ PROC ; CDlgFiboSet::GetOrgLineExtEnvironment, COMDAT
; _this$ = ecx

; 1209 : 	return &m_baseLineExtEnvironment;

  00000	8d 81 f8 0c 00
	00		 lea	 eax, DWORD PTR [ecx+3320]

; 1210 : }

  00006	c3		 ret	 0
?GetOrgLineExtEnvironment@CDlgFiboSet@@AAEPAVCLineExtEnvironment@@XZ ENDP ; CDlgFiboSet::GetOrgLineExtEnvironment
_TEXT	ENDS
; Function compile flags: /Ogtp
; File D:\git\src\IBK\IBK_DRFN\ProjSrc\SrcChartEx\ChartAddIn\ChartAnalysisToolAddIn\AnalysisTool\DlgFiboSet.cpp
;	COMDAT ?GetLineExtEnvironment@CDlgFiboSet@@AAEPAVCLineExtEnvironment@@XZ
_TEXT	SEGMENT
?GetLineExtEnvironment@CDlgFiboSet@@AAEPAVCLineExtEnvironment@@XZ PROC ; CDlgFiboSet::GetLineExtEnvironment, COMDAT
; _this$ = ecx

; 1204 : 	return m_pLineExtEnvironment;

  00000	8b 81 f4 0c 00
	00		 mov	 eax, DWORD PTR [ecx+3316]

; 1205 : }

  00006	c3		 ret	 0
?GetLineExtEnvironment@CDlgFiboSet@@AAEPAVCLineExtEnvironment@@XZ ENDP ; CDlgFiboSet::GetLineExtEnvironment
_TEXT	ENDS
; Function compile flags: /Ogtp
; File D:\git\src\IBK\IBK_DRFN\ProjSrc\SrcChartEx\ChartAddIn\ChartAnalysisToolAddIn\AnalysisTool\DlgFiboSet.cpp
;	COMDAT ?GetOrgTextPosition@CDlgFiboSet@@AAEPAVCTextPosition@@XZ
_TEXT	SEGMENT
?GetOrgTextPosition@CDlgFiboSet@@AAEPAVCTextPosition@@XZ PROC ; CDlgFiboSet::GetOrgTextPosition, COMDAT
; _this$ = ecx

; 1190 : 	if(m_nTextPosType == G_TEXT_POS_HV)

  00000	8b 81 8c 0c 00
	00		 mov	 eax, DWORD PTR [ecx+3212]
  00006	83 f8 03	 cmp	 eax, 3
  00009	75 07		 jne	 SHORT $LN2@GetOrgText

; 1191 : 		return &m_baseTextHVPosition;

  0000b	8d 81 e8 0c 00
	00		 lea	 eax, DWORD PTR [ecx+3304]

; 1200 : }

  00011	c3		 ret	 0
$LN2@GetOrgText:

; 1192 : 	else if(m_nTextPosType == G_TEXT_POS_VERT)

  00012	83 f8 02	 cmp	 eax, 2
  00015	75 07		 jne	 SHORT $LN4@GetOrgText

; 1193 : 		return &m_baseTextVPosition;

  00017	8d 81 dc 0c 00
	00		 lea	 eax, DWORD PTR [ecx+3292]

; 1200 : }

  0001d	c3		 ret	 0
$LN4@GetOrgText:

; 1194 : 	else if(m_nTextPosType == G_TEXT_POS_HORZ)

  0001e	83 f8 01	 cmp	 eax, 1
  00021	75 07		 jne	 SHORT $LN6@GetOrgText

; 1195 : 		return &m_baseTextHPosition;

  00023	8d 81 d0 0c 00
	00		 lea	 eax, DWORD PTR [ecx+3280]

; 1200 : }

  00029	c3		 ret	 0
$LN6@GetOrgText:

; 1196 : 	else if(m_nTextPosType == G_TEXT_POS_ONE)

  0002a	85 c0		 test	 eax, eax
  0002c	75 07		 jne	 SHORT $LN8@GetOrgText

; 1197 : 		return &m_baseTextPosition;

  0002e	8d 81 c4 0c 00
	00		 lea	 eax, DWORD PTR [ecx+3268]

; 1200 : }

  00034	c3		 ret	 0
$LN8@GetOrgText:

; 1198 : 
; 1199 : 	return NULL;

  00035	33 c0		 xor	 eax, eax

; 1200 : }

  00037	c3		 ret	 0
?GetOrgTextPosition@CDlgFiboSet@@AAEPAVCTextPosition@@XZ ENDP ; CDlgFiboSet::GetOrgTextPosition
_TEXT	ENDS
; Function compile flags: /Ogtp
; File D:\git\src\IBK\IBK_DRFN\ProjSrc\SrcChartEx\ChartAddIn\ChartAnalysisToolAddIn\AnalysisTool\DlgFiboSet.cpp
;	COMDAT ?GetTextPosition@CDlgFiboSet@@AAEPAVCTextPosition@@XZ
_TEXT	SEGMENT
?GetTextPosition@CDlgFiboSet@@AAEPAVCTextPosition@@XZ PROC ; CDlgFiboSet::GetTextPosition, COMDAT
; _this$ = ecx

; 1176 : 	if(m_nTextPosType == G_TEXT_POS_HV)

  00000	8b 81 8c 0c 00
	00		 mov	 eax, DWORD PTR [ecx+3212]
  00006	83 f8 03	 cmp	 eax, 3
  00009	75 07		 jne	 SHORT $LN2@GetTextPos

; 1177 : 		return m_pTextHVPosition;

  0000b	8b 81 c0 0c 00
	00		 mov	 eax, DWORD PTR [ecx+3264]

; 1186 : }

  00011	c3		 ret	 0
$LN2@GetTextPos:

; 1178 : 	else if(m_nTextPosType == G_TEXT_POS_VERT)

  00012	83 f8 02	 cmp	 eax, 2
  00015	75 07		 jne	 SHORT $LN4@GetTextPos

; 1179 : 		return m_pTextVPosition;

  00017	8b 81 bc 0c 00
	00		 mov	 eax, DWORD PTR [ecx+3260]

; 1186 : }

  0001d	c3		 ret	 0
$LN4@GetTextPos:

; 1180 : 	else if(m_nTextPosType == G_TEXT_POS_HORZ)

  0001e	83 f8 01	 cmp	 eax, 1
  00021	75 07		 jne	 SHORT $LN6@GetTextPos

; 1181 : 		return m_pTextHPosition;

  00023	8b 81 b8 0c 00
	00		 mov	 eax, DWORD PTR [ecx+3256]

; 1186 : }

  00029	c3		 ret	 0
$LN6@GetTextPos:

; 1182 : 	else if(m_nTextPosType == G_TEXT_POS_ONE)

  0002a	85 c0		 test	 eax, eax
  0002c	75 07		 jne	 SHORT $LN8@GetTextPos

; 1183 : 		return m_pTextPosition;

  0002e	8b 81 b4 0c 00
	00		 mov	 eax, DWORD PTR [ecx+3252]

; 1186 : }

  00034	c3		 ret	 0
$LN8@GetTextPos:

; 1184 : 
; 1185 : 	return NULL;

  00035	33 c0		 xor	 eax, eax

; 1186 : }

  00037	c3		 ret	 0
?GetTextPosition@CDlgFiboSet@@AAEPAVCTextPosition@@XZ ENDP ; CDlgFiboSet::GetTextPosition
_TEXT	ENDS
; Function compile flags: /Ogtp
; File D:\git\src\IBK\IBK_DRFN\ProjSrc\SrcChartEx\ChartAddIn\ChartAnalysisToolAddIn\AnalysisTool\DlgFiboSet.cpp
; File C:\Program Files (x86)\Microsoft Visual Studio\2019\Community\VC\Tools\MSVC\14.29.30133\atlmfc\include\afxwin2.inl
; File D:\git\src\IBK\IBK_DRFN\ProjSrc\SrcChartEx\ChartAddIn\ChartAnalysisToolAddIn\AnalysisTool\DlgFiboSet.cpp
; File C:\Program Files (x86)\Microsoft Visual Studio\2019\Community\VC\Tools\MSVC\14.29.30133\atlmfc\include\atltime.h
; File C:\Program Files (x86)\Microsoft Visual Studio\2019\Community\VC\Tools\MSVC\14.29.30133\atlmfc\include\afxwin2.inl
; File D:\git\src\IBK\IBK_DRFN\ProjSrc\SrcChartEx\ChartAddIn\ChartAnalysisToolAddIn\AnalysisTool\DlgFiboSet.cpp
; File C:\Program Files (x86)\Microsoft Visual Studio\2019\Community\VC\Tools\MSVC\14.29.30133\atlmfc\include\atltime.h
; File D:\git\src\IBK\IBK_DRFN\ProjSrc\SrcChartEx\ChartAddIn\ChartAnalysisToolAddIn\AnalysisTool\DlgFiboSet.cpp
; File C:\Program Files (x86)\Microsoft Visual Studio\2019\Community\VC\Tools\MSVC\14.29.30133\atlmfc\include\afxwin2.inl
; File D:\git\src\IBK\IBK_DRFN\ProjSrc\SrcChartEx\ChartAddIn\ChartAnalysisToolAddIn\AnalysisTool\DlgFiboSet.cpp
; File C:\Program Files (x86)\Microsoft Visual Studio\2019\Community\VC\Tools\MSVC\14.29.30133\atlmfc\include\atltime.h
; File D:\git\src\IBK\IBK_DRFN\ProjSrc\SrcChartEx\ChartAddIn\ChartAnalysisToolAddIn\AnalysisTool\DlgFiboSet.cpp
; File C:\Program Files (x86)\Microsoft Visual Studio\2019\Community\VC\Tools\MSVC\14.29.30133\atlmfc\include\afxwin2.inl
; File D:\git\src\IBK\IBK_DRFN\ProjSrc\SrcChartEx\ChartAddIn\ChartAnalysisToolAddIn\AnalysisTool\DlgFiboSet.cpp
; File C:\Program Files (x86)\Microsoft Visual Studio\2019\Community\VC\Tools\MSVC\14.29.30133\atlmfc\include\atltime.h
; File D:\git\src\IBK\IBK_DRFN\ProjSrc\SrcChartEx\ChartAddIn\ChartAnalysisToolAddIn\AnalysisTool\DlgFiboSet.cpp
; File C:\Program Files (x86)\Microsoft Visual Studio\2019\Community\VC\Tools\MSVC\14.29.30133\atlmfc\include\afxwin2.inl
; File D:\git\src\IBK\IBK_DRFN\ProjSrc\SrcChartEx\ChartAddIn\ChartAnalysisToolAddIn\AnalysisTool\DlgFiboSet.cpp
; File C:\Program Files (x86)\Microsoft Visual Studio\2019\Community\VC\Tools\MSVC\14.29.30133\atlmfc\include\afxwin2.inl
; File D:\git\src\IBK\IBK_DRFN\ProjSrc\SrcChartEx\ChartAddIn\ChartAnalysisToolAddIn\AnalysisTool\DlgFiboSet.cpp
; File C:\Program Files (x86)\Microsoft Visual Studio\2019\Community\VC\Tools\MSVC\14.29.30133\atlmfc\include\afxwin2.inl
; File D:\git\src\IBK\IBK_DRFN\ProjSrc\SrcChartEx\ChartAddIn\ChartAnalysisToolAddIn\AnalysisTool\DlgFiboSet.cpp
; File C:\Program Files (x86)\Microsoft Visual Studio\2019\Community\VC\Tools\MSVC\14.29.30133\atlmfc\include\afxwin2.inl
; File D:\git\src\IBK\IBK_DRFN\ProjSrc\SrcChartEx\ChartAddIn\ChartAnalysisToolAddIn\AnalysisTool\DlgFiboSet.cpp
;	COMDAT ?SetDateValueLists@CDlgFiboSet@@AAEXXZ
_TEXT	SEGMENT
_this$GSCopy$1$ = -160					; size = 4
tv661 = -156						; size = 8
$T2 = -156						; size = 8
$T3 = -156						; size = 8
$T4 = -156						; size = 8
$T5 = -156						; size = 8
$T6 = -156						; size = 8
tv708 = -148						; size = 8
tv684 = -148						; size = 8
$T7 = -148						; size = 8
$T8 = -144						; size = 4
$T9 = -144						; size = 4
$T10 = -144						; size = 4
_xTime$ = -140						; size = 8
_strXDate$ = -132					; size = 4
_strYValue$ = -128					; size = 4
_ptmTemp$11 = -124					; size = 36
_ptmTemp$12 = -124					; size = 36
_ptmTemp$13 = -124					; size = 36
_ptmTemp$14 = -88					; size = 36
_ptmTemp$15 = -88					; size = 36
_ptmTemp$16 = -88					; size = 36
_ptmTemp$17 = -52					; size = 36
_ptmTemp$18 = -52					; size = 36
_ptmTemp$19 = -52					; size = 36
__$ArrayPad$ = -16					; size = 4
__$EHRec$ = -12						; size = 12
?SetDateValueLists@CDlgFiboSet@@AAEXXZ PROC		; CDlgFiboSet::SetDateValueLists, COMDAT
; _this$ = ecx

; 1380 : {

  00000	55		 push	 ebp
  00001	8b ec		 mov	 ebp, esp
  00003	6a ff		 push	 -1
  00005	68 00 00 00 00	 push	 __ehhandler$?SetDateValueLists@CDlgFiboSet@@AAEXXZ
  0000a	64 a1 00 00 00
	00		 mov	 eax, DWORD PTR fs:0
  00010	50		 push	 eax
  00011	81 ec 94 00 00
	00		 sub	 esp, 148		; 00000094H
  00017	a1 00 00 00 00	 mov	 eax, DWORD PTR ___security_cookie
  0001c	33 c5		 xor	 eax, ebp
  0001e	89 45 f0	 mov	 DWORD PTR __$ArrayPad$[ebp], eax
  00021	53		 push	 ebx
  00022	56		 push	 esi
  00023	57		 push	 edi
  00024	50		 push	 eax
  00025	8d 45 f4	 lea	 eax, DWORD PTR __$EHRec$[ebp]
  00028	64 a3 00 00 00
	00		 mov	 DWORD PTR fs:0, eax
  0002e	8b d9		 mov	 ebx, ecx
  00030	89 9d 60 ff ff
	ff		 mov	 DWORD PTR _this$GSCopy$1$[ebp], ebx

; 1381 : 	CString strXDate;

  00036	8d 8d 7c ff ff
	ff		 lea	 ecx, DWORD PTR _strXDate$[ebp]
  0003c	ff 15 00 00 00
	00		 call	 DWORD PTR __imp_??0?$CStringT@DV?$StrTraitMFC_DLL@DV?$ChTraitsCRT@D@ATL@@@@@ATL@@QAE@XZ
; File C:\Program Files (x86)\Microsoft Visual Studio\2019\Community\VC\Tools\MSVC\14.29.30133\atlmfc\include\afxwin2.inl

; 124  : 	{ ASSERT(::IsWindow(m_hWnd)); return ::IsWindowVisible(m_hWnd); }

  00042	ff b3 70 0a 00
	00		 push	 DWORD PTR [ebx+2672]
  00048	8b 3d 00 00 00
	00		 mov	 edi, DWORD PTR __imp__IsWindowVisible@4
  0004e	0f 57 c0	 xorps	 xmm0, xmm0
; File D:\git\src\IBK\IBK_DRFN\ProjSrc\SrcChartEx\ChartAddIn\ChartAnalysisToolAddIn\AnalysisTool\DlgFiboSet.cpp

; 1381 : 	CString strXDate;

  00051	c7 45 fc 00 00
	00 00		 mov	 DWORD PTR __$EHRec$[ebp+8], 0
; File C:\Program Files (x86)\Microsoft Visual Studio\2019\Community\VC\Tools\MSVC\14.29.30133\atlmfc\include\atltime.h

; 412  : 	m_time(0)

  00058	66 0f 13 85 74
	ff ff ff	 movlpd	 QWORD PTR _xTime$[ebp], xmm0
; File C:\Program Files (x86)\Microsoft Visual Studio\2019\Community\VC\Tools\MSVC\14.29.30133\atlmfc\include\afxwin2.inl

; 124  : 	{ ASSERT(::IsWindow(m_hWnd)); return ::IsWindowVisible(m_hWnd); }

  00060	ff d7		 call	 edi
; File D:\git\src\IBK\IBK_DRFN\ProjSrc\SrcChartEx\ChartAddIn\ChartAnalysisToolAddIn\AnalysisTool\DlgFiboSet.cpp

; 1384 : 	if(m_ctrlXDateTime1.IsWindowVisible() == TRUE)

  00062	8b 35 00 00 00
	00		 mov	 esi, DWORD PTR __imp___localtime64_s
  00068	83 f8 01	 cmp	 eax, 1
  0006b	0f 85 f5 00 00
	00		 jne	 $LN2@SetDateVal

; 1385 : 	{
; 1386 : 		m_ctrlXDateTime1.GetTime(xTime);

  00071	8d 85 74 ff ff
	ff		 lea	 eax, DWORD PTR _xTime$[ebp]
  00077	50		 push	 eax
  00078	8d 8b 50 0a 00
	00		 lea	 ecx, DWORD PTR [ebx+2640]
  0007e	e8 00 00 00 00	 call	 ?GetTime@CDateTimeCtrl@@QBEKAAVCTime@ATL@@@Z ; CDateTimeCtrl::GetTime
; File C:\Program Files (x86)\Microsoft Visual Studio\2019\Community\VC\Tools\MSVC\14.29.30133\atlmfc\include\atltime.h

; 614  : 		errno_t err = _localtime64_s(&ptmTemp, &m_time);

  00083	8d 85 74 ff ff
	ff		 lea	 eax, DWORD PTR _xTime$[ebp]
  00089	50		 push	 eax
  0008a	8d 45 cc	 lea	 eax, DWORD PTR _ptmTemp$19[ebp]
  0008d	50		 push	 eax
  0008e	ff d6		 call	 esi

; 615  : 
; 616  : 		if (err != 0)

  00090	33 c9		 xor	 ecx, ecx
  00092	85 c0		 test	 eax, eax

; 614  : 		errno_t err = _localtime64_s(&ptmTemp, &m_time);

  00094	8d 85 74 ff ff
	ff		 lea	 eax, DWORD PTR _xTime$[ebp]

; 616  : 		if (err != 0)

  0009a	0f 44 4d d8	 cmove	 ecx, DWORD PTR _ptmTemp$19[ebp+12]

; 614  : 		errno_t err = _localtime64_s(&ptmTemp, &m_time);

  0009e	50		 push	 eax
  0009f	8d 45 a8	 lea	 eax, DWORD PTR _ptmTemp$16[ebp]

; 616  : 		if (err != 0)

  000a2	89 8d 70 ff ff
	ff		 mov	 DWORD PTR $T10[ebp], ecx

; 614  : 		errno_t err = _localtime64_s(&ptmTemp, &m_time);

  000a8	50		 push	 eax
  000a9	ff d6		 call	 esi
  000ab	83 c4 10	 add	 esp, 16			; 00000010H

; 615  : 
; 616  : 		if (err != 0)

  000ae	85 c0		 test	 eax, eax
  000b0	75 06		 jne	 SHORT $LN34@SetDateVal

; 671  : 	return ptm ? ptm->tm_mon + 1 : 0;

  000b2	8b 7d b8	 mov	 edi, DWORD PTR _ptmTemp$16[ebp+16]
  000b5	47		 inc	 edi
  000b6	eb 02		 jmp	 SHORT $LN35@SetDateVal
$LN34@SetDateVal:
  000b8	33 ff		 xor	 edi, edi
$LN35@SetDateVal:

; 614  : 		errno_t err = _localtime64_s(&ptmTemp, &m_time);

  000ba	8d 85 74 ff ff
	ff		 lea	 eax, DWORD PTR _xTime$[ebp]
  000c0	50		 push	 eax
  000c1	8d 45 84	 lea	 eax, DWORD PTR _ptmTemp$13[ebp]
  000c4	50		 push	 eax
  000c5	ff d6		 call	 esi
  000c7	83 c4 08	 add	 esp, 8

; 615  : 
; 616  : 		if (err != 0)

  000ca	85 c0		 test	 eax, eax
  000cc	75 0a		 jne	 SHORT $LN50@SetDateVal

; 662  : 	return ptm ? (ptm->tm_year) + 1900 : 0 ;

  000ce	8b 45 98	 mov	 eax, DWORD PTR _ptmTemp$13[ebp+20]
  000d1	05 6c 07 00 00	 add	 eax, 1900		; 0000076cH
  000d6	eb 02		 jmp	 SHORT $LN51@SetDateVal
$LN50@SetDateVal:
  000d8	33 c0		 xor	 eax, eax
$LN51@SetDateVal:
; File D:\git\src\IBK\IBK_DRFN\ProjSrc\SrcChartEx\ChartAddIn\ChartAnalysisToolAddIn\AnalysisTool\DlgFiboSet.cpp

; 1401 : 		strXDate.Format(_T("%04d%02d%02d%s"),xTime.GetYear(),xTime.GetMonth(),xTime.GetDay(), _T("000000"));

  000da	68 00 00 00 00	 push	 OFFSET ??_C@_06GEKNBBDK@000000@
  000df	ff b5 70 ff ff
	ff		 push	 DWORD PTR $T10[ebp]
  000e5	57		 push	 edi
  000e6	50		 push	 eax
  000e7	8d 85 7c ff ff
	ff		 lea	 eax, DWORD PTR _strXDate$[ebp]
  000ed	68 00 00 00 00	 push	 OFFSET ??_C@_0P@NDLMDLNF@?$CF04d?$CF02d?$CF02d?$CFs@
  000f2	50		 push	 eax
  000f3	ff 15 00 00 00
	00		 call	 DWORD PTR __imp_?Format@?$CStringT@DV?$StrTraitMFC_DLL@DV?$ChTraitsCRT@D@ATL@@@@@ATL@@QAAXPBDZZ

; 1402 : 		__int64 lMakeTime = _atoi64(strXDate);

  000f9	ff b5 7c ff ff
	ff		 push	 DWORD PTR _strXDate$[ebp]
  000ff	ff 15 00 00 00
	00		 call	 DWORD PTR __imp___atoi64

; 1403 : 
; 1404 : 		pCoordinate = m_pElementPointList->GetAt(0);

  00105	8b 8b 88 0c 00
	00		 mov	 ecx, DWORD PTR [ebx+3208]
  0010b	83 c4 1c	 add	 esp, 28			; 0000001cH
  0010e	8b f8		 mov	 edi, eax
  00110	8b f2		 mov	 esi, edx
  00112	6a 00		 push	 0
  00114	e8 00 00 00 00	 call	 ?GetAt@CElementPointList@@QAEPAVCCoordinate@@H@Z ; CElementPointList::GetAt

; 1405 : 		pCoordinate->SetX((double)lMakeTime,0);

  00119	8b d6		 mov	 edx, esi
  0011b	8b cf		 mov	 ecx, edi
  0011d	8b d8		 mov	 ebx, eax
  0011f	e8 00 00 00 00	 call	 __ltod3
  00124	6a 00		 push	 0
  00126	8d 85 6c ff ff
	ff		 lea	 eax, DWORD PTR $T7[ebp]
  0012c	f2 0f 11 85 64
	ff ff ff	 movsd	 QWORD PTR tv661[ebp], xmm0
  00134	50		 push	 eax
  00135	8b cb		 mov	 ecx, ebx
  00137	f2 0f 11 85 6c
	ff ff ff	 movsd	 QWORD PTR $T7[ebp], xmm0
  0013f	e8 00 00 00 00	 call	 ?SetX@CCoordinate@@QAEXABNH@Z ; CCoordinate::SetX

; 1406 : 		m_stAnalysisTool.dStartXPos = (double)lMakeTime;

  00144	8b 9d 60 ff ff
	ff		 mov	 ebx, DWORD PTR _this$GSCopy$1$[ebp]
  0014a	f2 0f 10 85 64
	ff ff ff	 movsd	 xmm0, QWORD PTR tv661[ebp]
  00152	8b 35 00 00 00
	00		 mov	 esi, DWORD PTR __imp___localtime64_s
  00158	8b 3d 00 00 00
	00		 mov	 edi, DWORD PTR __imp__IsWindowVisible@4
  0015e	f2 0f 11 83 f8
	0b 00 00	 movsd	 QWORD PTR [ebx+3064], xmm0
$LN2@SetDateVal:
; File C:\Program Files (x86)\Microsoft Visual Studio\2019\Community\VC\Tools\MSVC\14.29.30133\atlmfc\include\afxwin2.inl

; 124  : 	{ ASSERT(::IsWindow(m_hWnd)); return ::IsWindowVisible(m_hWnd); }

  00166	ff b3 f0 0a 00
	00		 push	 DWORD PTR [ebx+2800]
  0016c	ff d7		 call	 edi
; File D:\git\src\IBK\IBK_DRFN\ProjSrc\SrcChartEx\ChartAddIn\ChartAnalysisToolAddIn\AnalysisTool\DlgFiboSet.cpp

; 1410 : 	if(m_ctrlXDateTime2.IsWindowVisible() == TRUE)

  0016e	83 f8 01	 cmp	 eax, 1
  00171	0f 85 ef 00 00
	00		 jne	 $LN3@SetDateVal

; 1411 : 	{
; 1412 : 		m_ctrlXDateTime2.GetTime(xTime);

  00177	8d 85 74 ff ff
	ff		 lea	 eax, DWORD PTR _xTime$[ebp]
  0017d	50		 push	 eax
  0017e	8d 8b d0 0a 00
	00		 lea	 ecx, DWORD PTR [ebx+2768]
  00184	e8 00 00 00 00	 call	 ?GetTime@CDateTimeCtrl@@QBEKAAVCTime@ATL@@@Z ; CDateTimeCtrl::GetTime
; File C:\Program Files (x86)\Microsoft Visual Studio\2019\Community\VC\Tools\MSVC\14.29.30133\atlmfc\include\atltime.h

; 614  : 		errno_t err = _localtime64_s(&ptmTemp, &m_time);

  00189	8d 85 74 ff ff
	ff		 lea	 eax, DWORD PTR _xTime$[ebp]
  0018f	50		 push	 eax
  00190	8d 45 84	 lea	 eax, DWORD PTR _ptmTemp$12[ebp]
  00193	50		 push	 eax
  00194	ff d6		 call	 esi

; 615  : 
; 616  : 		if (err != 0)

  00196	33 c9		 xor	 ecx, ecx
  00198	85 c0		 test	 eax, eax

; 614  : 		errno_t err = _localtime64_s(&ptmTemp, &m_time);

  0019a	8d 85 74 ff ff
	ff		 lea	 eax, DWORD PTR _xTime$[ebp]

; 616  : 		if (err != 0)

  001a0	0f 44 4d 90	 cmove	 ecx, DWORD PTR _ptmTemp$12[ebp+12]

; 614  : 		errno_t err = _localtime64_s(&ptmTemp, &m_time);

  001a4	50		 push	 eax
  001a5	8d 45 a8	 lea	 eax, DWORD PTR _ptmTemp$15[ebp]

; 616  : 		if (err != 0)

  001a8	89 8d 70 ff ff
	ff		 mov	 DWORD PTR $T9[ebp], ecx

; 614  : 		errno_t err = _localtime64_s(&ptmTemp, &m_time);

  001ae	50		 push	 eax
  001af	ff d6		 call	 esi
  001b1	83 c4 10	 add	 esp, 16			; 00000010H

; 615  : 
; 616  : 		if (err != 0)

  001b4	85 c0		 test	 eax, eax
  001b6	75 06		 jne	 SHORT $LN86@SetDateVal

; 671  : 	return ptm ? ptm->tm_mon + 1 : 0;

  001b8	8b 7d b8	 mov	 edi, DWORD PTR _ptmTemp$15[ebp+16]
  001bb	47		 inc	 edi
  001bc	eb 02		 jmp	 SHORT $LN87@SetDateVal
$LN86@SetDateVal:
  001be	33 ff		 xor	 edi, edi
$LN87@SetDateVal:

; 614  : 		errno_t err = _localtime64_s(&ptmTemp, &m_time);

  001c0	8d 85 74 ff ff
	ff		 lea	 eax, DWORD PTR _xTime$[ebp]
  001c6	50		 push	 eax
  001c7	8d 45 cc	 lea	 eax, DWORD PTR _ptmTemp$18[ebp]
  001ca	50		 push	 eax
  001cb	ff d6		 call	 esi
  001cd	83 c4 08	 add	 esp, 8

; 615  : 
; 616  : 		if (err != 0)

  001d0	85 c0		 test	 eax, eax
  001d2	75 0a		 jne	 SHORT $LN102@SetDateVal

; 662  : 	return ptm ? (ptm->tm_year) + 1900 : 0 ;

  001d4	8b 45 e0	 mov	 eax, DWORD PTR _ptmTemp$18[ebp+20]
  001d7	05 6c 07 00 00	 add	 eax, 1900		; 0000076cH
  001dc	eb 02		 jmp	 SHORT $LN103@SetDateVal
$LN102@SetDateVal:
  001de	33 c0		 xor	 eax, eax
$LN103@SetDateVal:
; File D:\git\src\IBK\IBK_DRFN\ProjSrc\SrcChartEx\ChartAddIn\ChartAnalysisToolAddIn\AnalysisTool\DlgFiboSet.cpp

; 1427 : 		strXDate.Format(_T("%04d%02d%02d%s"),xTime.GetYear(),xTime.GetMonth(),xTime.GetDay(), _T("000000"));

  001e0	68 00 00 00 00	 push	 OFFSET ??_C@_06GEKNBBDK@000000@
  001e5	ff b5 70 ff ff
	ff		 push	 DWORD PTR $T9[ebp]
  001eb	57		 push	 edi
  001ec	50		 push	 eax
  001ed	8d 85 7c ff ff
	ff		 lea	 eax, DWORD PTR _strXDate$[ebp]
  001f3	68 00 00 00 00	 push	 OFFSET ??_C@_0P@NDLMDLNF@?$CF04d?$CF02d?$CF02d?$CFs@
  001f8	50		 push	 eax
  001f9	ff 15 00 00 00
	00		 call	 DWORD PTR __imp_?Format@?$CStringT@DV?$StrTraitMFC_DLL@DV?$ChTraitsCRT@D@ATL@@@@@ATL@@QAAXPBDZZ

; 1428 : 		__int64 lMakeTime = _atoi64(strXDate);

  001ff	ff b5 7c ff ff
	ff		 push	 DWORD PTR _strXDate$[ebp]
  00205	ff 15 00 00 00
	00		 call	 DWORD PTR __imp___atoi64

; 1429 : 
; 1430 : 		pCoordinate = m_pElementPointList->GetAt(1);

  0020b	8b 8b 88 0c 00
	00		 mov	 ecx, DWORD PTR [ebx+3208]
  00211	83 c4 1c	 add	 esp, 28			; 0000001cH
  00214	8b f8		 mov	 edi, eax
  00216	8b f2		 mov	 esi, edx
  00218	6a 01		 push	 1
  0021a	e8 00 00 00 00	 call	 ?GetAt@CElementPointList@@QAEPAVCCoordinate@@H@Z ; CElementPointList::GetAt

; 1431 : 		pCoordinate->SetX((double)lMakeTime,1);

  0021f	8b d6		 mov	 edx, esi
  00221	8b cf		 mov	 ecx, edi
  00223	8b d8		 mov	 ebx, eax
  00225	e8 00 00 00 00	 call	 __ltod3
  0022a	6a 01		 push	 1
  0022c	8d 85 64 ff ff
	ff		 lea	 eax, DWORD PTR $T6[ebp]
  00232	f2 0f 11 85 6c
	ff ff ff	 movsd	 QWORD PTR tv684[ebp], xmm0
  0023a	50		 push	 eax
  0023b	8b cb		 mov	 ecx, ebx
  0023d	f2 0f 11 85 64
	ff ff ff	 movsd	 QWORD PTR $T6[ebp], xmm0
  00245	e8 00 00 00 00	 call	 ?SetX@CCoordinate@@QAEXABNH@Z ; CCoordinate::SetX

; 1432 : 		m_stAnalysisTool.dEndXPos = (double)lMakeTime;

  0024a	8b 9d 60 ff ff
	ff		 mov	 ebx, DWORD PTR _this$GSCopy$1$[ebp]
  00250	f2 0f 10 85 6c
	ff ff ff	 movsd	 xmm0, QWORD PTR tv684[ebp]
  00258	8b 3d 00 00 00
	00		 mov	 edi, DWORD PTR __imp__IsWindowVisible@4
  0025e	f2 0f 11 83 00
	0c 00 00	 movsd	 QWORD PTR [ebx+3072], xmm0
$LN3@SetDateVal:
; File C:\Program Files (x86)\Microsoft Visual Studio\2019\Community\VC\Tools\MSVC\14.29.30133\atlmfc\include\afxwin2.inl

; 124  : 	{ ASSERT(::IsWindow(m_hWnd)); return ::IsWindowVisible(m_hWnd); }

  00266	ff b3 70 0b 00
	00		 push	 DWORD PTR [ebx+2928]
  0026c	ff d7		 call	 edi
; File D:\git\src\IBK\IBK_DRFN\ProjSrc\SrcChartEx\ChartAddIn\ChartAnalysisToolAddIn\AnalysisTool\DlgFiboSet.cpp

; 1436 : 	if(m_ctrlXDateTime3.IsWindowVisible() == TRUE)

  0026e	83 f8 01	 cmp	 eax, 1
  00271	0f 85 f5 00 00
	00		 jne	 $LN4@SetDateVal

; 1437 : 	{
; 1438 : 		m_ctrlXDateTime3.GetTime(xTime);

  00277	8d 85 74 ff ff
	ff		 lea	 eax, DWORD PTR _xTime$[ebp]
  0027d	50		 push	 eax
  0027e	8d 8b 50 0b 00
	00		 lea	 ecx, DWORD PTR [ebx+2896]
  00284	e8 00 00 00 00	 call	 ?GetTime@CDateTimeCtrl@@QBEKAAVCTime@ATL@@@Z ; CDateTimeCtrl::GetTime
; File C:\Program Files (x86)\Microsoft Visual Studio\2019\Community\VC\Tools\MSVC\14.29.30133\atlmfc\include\atltime.h

; 614  : 		errno_t err = _localtime64_s(&ptmTemp, &m_time);

  00289	8b 35 00 00 00
	00		 mov	 esi, DWORD PTR __imp___localtime64_s
  0028f	8d 85 74 ff ff
	ff		 lea	 eax, DWORD PTR _xTime$[ebp]
  00295	50		 push	 eax
  00296	8d 45 84	 lea	 eax, DWORD PTR _ptmTemp$11[ebp]
  00299	50		 push	 eax
  0029a	ff d6		 call	 esi

; 615  : 
; 616  : 		if (err != 0)

  0029c	33 c9		 xor	 ecx, ecx
  0029e	85 c0		 test	 eax, eax

; 614  : 		errno_t err = _localtime64_s(&ptmTemp, &m_time);

  002a0	8d 85 74 ff ff
	ff		 lea	 eax, DWORD PTR _xTime$[ebp]

; 616  : 		if (err != 0)

  002a6	0f 44 4d 90	 cmove	 ecx, DWORD PTR _ptmTemp$11[ebp+12]

; 614  : 		errno_t err = _localtime64_s(&ptmTemp, &m_time);

  002aa	50		 push	 eax
  002ab	8d 45 a8	 lea	 eax, DWORD PTR _ptmTemp$14[ebp]

; 616  : 		if (err != 0)

  002ae	89 8d 70 ff ff
	ff		 mov	 DWORD PTR $T8[ebp], ecx

; 614  : 		errno_t err = _localtime64_s(&ptmTemp, &m_time);

  002b4	50		 push	 eax
  002b5	ff d6		 call	 esi
  002b7	83 c4 10	 add	 esp, 16			; 00000010H

; 615  : 
; 616  : 		if (err != 0)

  002ba	85 c0		 test	 eax, eax
  002bc	75 06		 jne	 SHORT $LN138@SetDateVal

; 671  : 	return ptm ? ptm->tm_mon + 1 : 0;

  002be	8b 7d b8	 mov	 edi, DWORD PTR _ptmTemp$14[ebp+16]
  002c1	47		 inc	 edi
  002c2	eb 02		 jmp	 SHORT $LN139@SetDateVal
$LN138@SetDateVal:
  002c4	33 ff		 xor	 edi, edi
$LN139@SetDateVal:

; 614  : 		errno_t err = _localtime64_s(&ptmTemp, &m_time);

  002c6	8d 85 74 ff ff
	ff		 lea	 eax, DWORD PTR _xTime$[ebp]
  002cc	50		 push	 eax
  002cd	8d 45 cc	 lea	 eax, DWORD PTR _ptmTemp$17[ebp]
  002d0	50		 push	 eax
  002d1	ff d6		 call	 esi
  002d3	83 c4 08	 add	 esp, 8

; 615  : 
; 616  : 		if (err != 0)

  002d6	85 c0		 test	 eax, eax
  002d8	75 0a		 jne	 SHORT $LN154@SetDateVal

; 662  : 	return ptm ? (ptm->tm_year) + 1900 : 0 ;

  002da	8b 45 e0	 mov	 eax, DWORD PTR _ptmTemp$17[ebp+20]
  002dd	05 6c 07 00 00	 add	 eax, 1900		; 0000076cH
  002e2	eb 02		 jmp	 SHORT $LN155@SetDateVal
$LN154@SetDateVal:
  002e4	33 c0		 xor	 eax, eax
$LN155@SetDateVal:
; File D:\git\src\IBK\IBK_DRFN\ProjSrc\SrcChartEx\ChartAddIn\ChartAnalysisToolAddIn\AnalysisTool\DlgFiboSet.cpp

; 1453 : 		strXDate.Format(_T("%04d%02d%02d%s"),xTime.GetYear(),xTime.GetMonth(),xTime.GetDay(), _T("000000"));

  002e6	68 00 00 00 00	 push	 OFFSET ??_C@_06GEKNBBDK@000000@
  002eb	ff b5 70 ff ff
	ff		 push	 DWORD PTR $T8[ebp]
  002f1	57		 push	 edi
  002f2	50		 push	 eax
  002f3	8d 85 7c ff ff
	ff		 lea	 eax, DWORD PTR _strXDate$[ebp]
  002f9	68 00 00 00 00	 push	 OFFSET ??_C@_0P@NDLMDLNF@?$CF04d?$CF02d?$CF02d?$CFs@
  002fe	50		 push	 eax
  002ff	ff 15 00 00 00
	00		 call	 DWORD PTR __imp_?Format@?$CStringT@DV?$StrTraitMFC_DLL@DV?$ChTraitsCRT@D@ATL@@@@@ATL@@QAAXPBDZZ

; 1454 : 		__int64 lMakeTime = _atoi64(strXDate);

  00305	ff b5 7c ff ff
	ff		 push	 DWORD PTR _strXDate$[ebp]
  0030b	ff 15 00 00 00
	00		 call	 DWORD PTR __imp___atoi64

; 1455 : 
; 1456 : 		pCoordinate = m_pElementPointList->GetAt(2);

  00311	8b 8b 88 0c 00
	00		 mov	 ecx, DWORD PTR [ebx+3208]
  00317	83 c4 1c	 add	 esp, 28			; 0000001cH
  0031a	8b f8		 mov	 edi, eax
  0031c	8b f2		 mov	 esi, edx
  0031e	6a 02		 push	 2
  00320	e8 00 00 00 00	 call	 ?GetAt@CElementPointList@@QAEPAVCCoordinate@@H@Z ; CElementPointList::GetAt

; 1457 : 		pCoordinate->SetX((double)lMakeTime,2);

  00325	8b d6		 mov	 edx, esi
  00327	8b cf		 mov	 ecx, edi
  00329	8b d8		 mov	 ebx, eax
  0032b	e8 00 00 00 00	 call	 __ltod3
  00330	6a 02		 push	 2
  00332	8d 85 64 ff ff
	ff		 lea	 eax, DWORD PTR $T5[ebp]
  00338	f2 0f 11 85 6c
	ff ff ff	 movsd	 QWORD PTR tv708[ebp], xmm0
  00340	50		 push	 eax
  00341	8b cb		 mov	 ecx, ebx
  00343	f2 0f 11 85 64
	ff ff ff	 movsd	 QWORD PTR $T5[ebp], xmm0
  0034b	e8 00 00 00 00	 call	 ?SetX@CCoordinate@@QAEXABNH@Z ; CCoordinate::SetX

; 1458 : 		m_stAnalysisTool.dThirdXPos = (double)lMakeTime;

  00350	8b 9d 60 ff ff
	ff		 mov	 ebx, DWORD PTR _this$GSCopy$1$[ebp]
  00356	f2 0f 10 85 6c
	ff ff ff	 movsd	 xmm0, QWORD PTR tv708[ebp]
  0035e	8b 3d 00 00 00
	00		 mov	 edi, DWORD PTR __imp__IsWindowVisible@4
  00364	f2 0f 11 83 08
	0c 00 00	 movsd	 QWORD PTR [ebx+3080], xmm0
$LN4@SetDateVal:

; 1463 : 	CString strYValue;

  0036c	8d 4d 80	 lea	 ecx, DWORD PTR _strYValue$[ebp]
  0036f	ff 15 00 00 00
	00		 call	 DWORD PTR __imp_??0?$CStringT@DV?$StrTraitMFC_DLL@DV?$ChTraitsCRT@D@ATL@@@@@ATL@@QAE@XZ
; File C:\Program Files (x86)\Microsoft Visual Studio\2019\Community\VC\Tools\MSVC\14.29.30133\atlmfc\include\afxwin2.inl

; 124  : 	{ ASSERT(::IsWindow(m_hWnd)); return ::IsWindowVisible(m_hWnd); }

  00375	ff b3 f0 08 00
	00		 push	 DWORD PTR [ebx+2288]
; File D:\git\src\IBK\IBK_DRFN\ProjSrc\SrcChartEx\ChartAddIn\ChartAnalysisToolAddIn\AnalysisTool\DlgFiboSet.cpp

; 1463 : 	CString strYValue;

  0037b	c6 45 fc 01	 mov	 BYTE PTR __$EHRec$[ebp+8], 1
; File C:\Program Files (x86)\Microsoft Visual Studio\2019\Community\VC\Tools\MSVC\14.29.30133\atlmfc\include\afxwin2.inl

; 124  : 	{ ASSERT(::IsWindow(m_hWnd)); return ::IsWindowVisible(m_hWnd); }

  0037f	ff d7		 call	 edi
; File D:\git\src\IBK\IBK_DRFN\ProjSrc\SrcChartEx\ChartAddIn\ChartAnalysisToolAddIn\AnalysisTool\DlgFiboSet.cpp

; 1464 : 	if(m_ctrlEditValue1.IsWindowVisible() == TRUE)

  00381	83 f8 01	 cmp	 eax, 1
  00384	75 50		 jne	 SHORT $LN5@SetDateVal

; 1465 : 	{
; 1466 : 		m_ctrlEditValue1.GetWindowText(strYValue);

  00386	8d 45 80	 lea	 eax, DWORD PTR _strYValue$[ebp]
  00389	50		 push	 eax
  0038a	8d 8b d0 08 00
	00		 lea	 ecx, DWORD PTR [ebx+2256]
  00390	e8 00 00 00 00	 call	 ?GetWindowTextA@CWnd@@QBEXAAV?$CStringT@DV?$StrTraitMFC_DLL@DV?$ChTraitsCRT@D@ATL@@@@@ATL@@@Z ; CWnd::GetWindowTextA

; 1467 : 		pCoordinate = m_pElementPointList->GetAt(0);

  00395	8b 8b 88 0c 00
	00		 mov	 ecx, DWORD PTR [ebx+3208]
  0039b	6a 00		 push	 0
  0039d	e8 00 00 00 00	 call	 ?GetAt@CElementPointList@@QAEPAVCCoordinate@@H@Z ; CElementPointList::GetAt

; 1468 : 		pCoordinate->SetY(atof(strYValue));

  003a2	ff 75 80	 push	 DWORD PTR _strYValue$[ebp]
  003a5	8b f0		 mov	 esi, eax
  003a7	ff 15 00 00 00
	00		 call	 DWORD PTR __imp__atof
  003ad	83 c4 04	 add	 esp, 4
  003b0	8d 85 64 ff ff
	ff		 lea	 eax, DWORD PTR $T4[ebp]
  003b6	8b ce		 mov	 ecx, esi
  003b8	dd 9d 64 ff ff
	ff		 fstp	 QWORD PTR $T4[ebp]
  003be	50		 push	 eax
  003bf	e8 00 00 00 00	 call	 ?SetY@CCoordinate@@QAEXABN@Z ; CCoordinate::SetY

; 1469 : 		m_stAnalysisTool.dStartYValue = atof(strYValue);

  003c4	ff 75 80	 push	 DWORD PTR _strYValue$[ebp]
  003c7	ff 15 00 00 00
	00		 call	 DWORD PTR __imp__atof
  003cd	dd 9b 10 0c 00
	00		 fstp	 QWORD PTR [ebx+3088]
  003d3	83 c4 04	 add	 esp, 4
$LN5@SetDateVal:
; File C:\Program Files (x86)\Microsoft Visual Studio\2019\Community\VC\Tools\MSVC\14.29.30133\atlmfc\include\afxwin2.inl

; 124  : 	{ ASSERT(::IsWindow(m_hWnd)); return ::IsWindowVisible(m_hWnd); }

  003d6	ff b3 70 09 00
	00		 push	 DWORD PTR [ebx+2416]
  003dc	ff d7		 call	 edi
; File D:\git\src\IBK\IBK_DRFN\ProjSrc\SrcChartEx\ChartAddIn\ChartAnalysisToolAddIn\AnalysisTool\DlgFiboSet.cpp

; 1472 : 	if(m_ctrlEditValue2.IsWindowVisible() == TRUE)

  003de	83 f8 01	 cmp	 eax, 1
  003e1	75 50		 jne	 SHORT $LN6@SetDateVal

; 1473 : 	{
; 1474 : 		m_ctrlEditValue2.GetWindowText(strYValue);

  003e3	8d 45 80	 lea	 eax, DWORD PTR _strYValue$[ebp]
  003e6	50		 push	 eax
  003e7	8d 8b 50 09 00
	00		 lea	 ecx, DWORD PTR [ebx+2384]
  003ed	e8 00 00 00 00	 call	 ?GetWindowTextA@CWnd@@QBEXAAV?$CStringT@DV?$StrTraitMFC_DLL@DV?$ChTraitsCRT@D@ATL@@@@@ATL@@@Z ; CWnd::GetWindowTextA

; 1475 : 		pCoordinate = m_pElementPointList->GetAt(1);

  003f2	8b 8b 88 0c 00
	00		 mov	 ecx, DWORD PTR [ebx+3208]
  003f8	6a 01		 push	 1
  003fa	e8 00 00 00 00	 call	 ?GetAt@CElementPointList@@QAEPAVCCoordinate@@H@Z ; CElementPointList::GetAt

; 1476 : 		pCoordinate->SetY(atof(strYValue));

  003ff	ff 75 80	 push	 DWORD PTR _strYValue$[ebp]
  00402	8b f0		 mov	 esi, eax
  00404	ff 15 00 00 00
	00		 call	 DWORD PTR __imp__atof
  0040a	83 c4 04	 add	 esp, 4
  0040d	8d 85 64 ff ff
	ff		 lea	 eax, DWORD PTR $T3[ebp]
  00413	8b ce		 mov	 ecx, esi
  00415	dd 9d 64 ff ff
	ff		 fstp	 QWORD PTR $T3[ebp]
  0041b	50		 push	 eax
  0041c	e8 00 00 00 00	 call	 ?SetY@CCoordinate@@QAEXABN@Z ; CCoordinate::SetY

; 1477 : 		m_stAnalysisTool.dEndYValue = atof(strYValue);

  00421	ff 75 80	 push	 DWORD PTR _strYValue$[ebp]
  00424	ff 15 00 00 00
	00		 call	 DWORD PTR __imp__atof
  0042a	dd 9b 18 0c 00
	00		 fstp	 QWORD PTR [ebx+3096]
  00430	83 c4 04	 add	 esp, 4
$LN6@SetDateVal:
; File C:\Program Files (x86)\Microsoft Visual Studio\2019\Community\VC\Tools\MSVC\14.29.30133\atlmfc\include\afxwin2.inl

; 124  : 	{ ASSERT(::IsWindow(m_hWnd)); return ::IsWindowVisible(m_hWnd); }

  00433	ff b3 f0 09 00
	00		 push	 DWORD PTR [ebx+2544]
  00439	ff d7		 call	 edi
; File D:\git\src\IBK\IBK_DRFN\ProjSrc\SrcChartEx\ChartAddIn\ChartAnalysisToolAddIn\AnalysisTool\DlgFiboSet.cpp

; 1480 : 	if(m_ctrlEditValue3.IsWindowVisible() == TRUE)

  0043b	83 f8 01	 cmp	 eax, 1
  0043e	75 50		 jne	 SHORT $LN7@SetDateVal

; 1481 : 	{
; 1482 : 		m_ctrlEditValue3.GetWindowText(strYValue);

  00440	8d 45 80	 lea	 eax, DWORD PTR _strYValue$[ebp]
  00443	50		 push	 eax
  00444	8d 8b d0 09 00
	00		 lea	 ecx, DWORD PTR [ebx+2512]
  0044a	e8 00 00 00 00	 call	 ?GetWindowTextA@CWnd@@QBEXAAV?$CStringT@DV?$StrTraitMFC_DLL@DV?$ChTraitsCRT@D@ATL@@@@@ATL@@@Z ; CWnd::GetWindowTextA

; 1483 : 		pCoordinate = m_pElementPointList->GetAt(2);

  0044f	8b 8b 88 0c 00
	00		 mov	 ecx, DWORD PTR [ebx+3208]
  00455	6a 02		 push	 2
  00457	e8 00 00 00 00	 call	 ?GetAt@CElementPointList@@QAEPAVCCoordinate@@H@Z ; CElementPointList::GetAt

; 1484 : 		pCoordinate->SetY(atof(strYValue));

  0045c	ff 75 80	 push	 DWORD PTR _strYValue$[ebp]
  0045f	8b f0		 mov	 esi, eax
  00461	ff 15 00 00 00
	00		 call	 DWORD PTR __imp__atof
  00467	83 c4 04	 add	 esp, 4
  0046a	8d 85 64 ff ff
	ff		 lea	 eax, DWORD PTR $T2[ebp]
  00470	8b ce		 mov	 ecx, esi
  00472	dd 9d 64 ff ff
	ff		 fstp	 QWORD PTR $T2[ebp]
  00478	50		 push	 eax
  00479	e8 00 00 00 00	 call	 ?SetY@CCoordinate@@QAEXABN@Z ; CCoordinate::SetY

; 1485 : 		m_stAnalysisTool.dThirdYValue = atof(strYValue);

  0047e	ff 75 80	 push	 DWORD PTR _strYValue$[ebp]
  00481	ff 15 00 00 00
	00		 call	 DWORD PTR __imp__atof
  00487	dd 9b 20 0c 00
	00		 fstp	 QWORD PTR [ebx+3104]
  0048d	83 c4 04	 add	 esp, 4
$LN7@SetDateVal:

; 1486 : 	}
; 1487 : }

  00490	8d 4d 80	 lea	 ecx, DWORD PTR _strYValue$[ebp]
  00493	ff 15 00 00 00
	00		 call	 DWORD PTR __imp_??1?$CStringT@DV?$StrTraitMFC_DLL@DV?$ChTraitsCRT@D@ATL@@@@@ATL@@QAE@XZ
  00499	8d 8d 7c ff ff
	ff		 lea	 ecx, DWORD PTR _strXDate$[ebp]
  0049f	ff 15 00 00 00
	00		 call	 DWORD PTR __imp_??1?$CStringT@DV?$StrTraitMFC_DLL@DV?$ChTraitsCRT@D@ATL@@@@@ATL@@QAE@XZ
  004a5	8b 4d f4	 mov	 ecx, DWORD PTR __$EHRec$[ebp]
  004a8	64 89 0d 00 00
	00 00		 mov	 DWORD PTR fs:0, ecx
  004af	59		 pop	 ecx
  004b0	5f		 pop	 edi
  004b1	5e		 pop	 esi
  004b2	5b		 pop	 ebx
  004b3	8b 4d f0	 mov	 ecx, DWORD PTR __$ArrayPad$[ebp]
  004b6	33 cd		 xor	 ecx, ebp
  004b8	e8 00 00 00 00	 call	 @__security_check_cookie@4
  004bd	8b e5		 mov	 esp, ebp
  004bf	5d		 pop	 ebp
  004c0	c3		 ret	 0
_TEXT	ENDS
;	COMDAT text$x
text$x	SEGMENT
__unwindfunclet$?SetDateValueLists@CDlgFiboSet@@AAEXXZ$0:
  00000	8d 8d 7c ff ff
	ff		 lea	 ecx, DWORD PTR _strXDate$[ebp]
  00006	ff 25 00 00 00
	00		 jmp	 DWORD PTR __imp_??1?$CStringT@DV?$StrTraitMFC_DLL@DV?$ChTraitsCRT@D@ATL@@@@@ATL@@QAE@XZ
__unwindfunclet$?SetDateValueLists@CDlgFiboSet@@AAEXXZ$1:
  0000c	8d 4d 80	 lea	 ecx, DWORD PTR _strYValue$[ebp]
  0000f	ff 25 00 00 00
	00		 jmp	 DWORD PTR __imp_??1?$CStringT@DV?$StrTraitMFC_DLL@DV?$ChTraitsCRT@D@ATL@@@@@ATL@@QAE@XZ
  00015	cc		 int	 3
  00016	cc		 int	 3
  00017	cc		 int	 3
  00018	cc		 int	 3
  00019	cc		 int	 3
__ehhandler$?SetDateValueLists@CDlgFiboSet@@AAEXXZ:
  0001a	90		 npad	 1
  0001b	90		 npad	 1
  0001c	8b 54 24 08	 mov	 edx, DWORD PTR [esp+8]
  00020	8d 42 0c	 lea	 eax, DWORD PTR [edx+12]
  00023	8b 8a 5c ff ff
	ff		 mov	 ecx, DWORD PTR [edx-164]
  00029	33 c8		 xor	 ecx, eax
  0002b	e8 00 00 00 00	 call	 @__security_check_cookie@4
  00030	8b 4a fc	 mov	 ecx, DWORD PTR [edx-4]
  00033	33 c8		 xor	 ecx, eax
  00035	e8 00 00 00 00	 call	 @__security_check_cookie@4
  0003a	b8 00 00 00 00	 mov	 eax, OFFSET __ehfuncinfo$?SetDateValueLists@CDlgFiboSet@@AAEXXZ
  0003f	e9 00 00 00 00	 jmp	 ___CxxFrameHandler3
text$x	ENDS
?SetDateValueLists@CDlgFiboSet@@AAEXXZ ENDP		; CDlgFiboSet::SetDateValueLists
; Function compile flags: /Ogtp
; File D:\git\src\IBK\IBK_DRFN\ProjSrc\SrcChartEx\ChartAddIn\ChartAnalysisToolAddIn\AnalysisTool\DlgFiboSet.cpp
;	COMDAT ?SetLineExtEnvironment@CDlgFiboSet@@AAEX_N0@Z
_TEXT	SEGMENT
$T1 = 8							; size = 4
_bLeft$ = 8						; size = 1
$T2 = 12						; size = 4
_bRight$ = 12						; size = 1
?SetLineExtEnvironment@CDlgFiboSet@@AAEX_N0@Z PROC	; CDlgFiboSet::SetLineExtEnvironment, COMDAT
; _this$ = ecx

; 1086 : {

  00000	55		 push	 ebp
  00001	8b ec		 mov	 ebp, esp

; 1087 : 	m_pLineExtEnvironment->SetLineExt(bLeft,bRight);

  00003	0f b6 45 0c	 movzx	 eax, BYTE PTR _bRight$[ebp]
  00007	8b 89 f4 0c 00
	00		 mov	 ecx, DWORD PTR [ecx+3316]
  0000d	89 45 0c	 mov	 DWORD PTR $T2[ebp], eax
  00010	0f b6 45 08	 movzx	 eax, BYTE PTR _bLeft$[ebp]
  00014	89 45 08	 mov	 DWORD PTR $T1[ebp], eax
  00017	8d 45 0c	 lea	 eax, DWORD PTR $T2[ebp]
  0001a	50		 push	 eax
  0001b	8d 45 08	 lea	 eax, DWORD PTR $T1[ebp]
  0001e	50		 push	 eax
  0001f	e8 00 00 00 00	 call	 ?SetLineExt@CLineExtEnvironment@@QAEXABH0@Z ; CLineExtEnvironment::SetLineExt

; 1088 : }

  00024	5d		 pop	 ebp
  00025	c2 08 00	 ret	 8
?SetLineExtEnvironment@CDlgFiboSet@@AAEX_N0@Z ENDP	; CDlgFiboSet::SetLineExtEnvironment
_TEXT	ENDS
; Function compile flags: /Ogtp
; File D:\git\src\IBK\IBK_DRFN\ProjSrc\SrcChartEx\ChartAddIn\ChartAnalysisToolAddIn\AnalysisTool\DlgFiboSet.cpp
; File C:\Program Files (x86)\Microsoft Visual Studio\2019\Community\VC\Tools\MSVC\14.29.30133\atlmfc\include\afxwin2.inl
; File D:\git\src\IBK\IBK_DRFN\ProjSrc\SrcChartEx\ChartAddIn\ChartAnalysisToolAddIn\AnalysisTool\DlgFiboSet.cpp
; File C:\Program Files (x86)\Microsoft Visual Studio\2019\Community\VC\Tools\MSVC\14.29.30133\atlmfc\include\afxwin2.inl
; File D:\git\src\IBK\IBK_DRFN\ProjSrc\SrcChartEx\ChartAddIn\ChartAnalysisToolAddIn\AnalysisTool\DlgFiboSet.cpp
; File C:\Program Files (x86)\Microsoft Visual Studio\2019\Community\VC\Tools\MSVC\14.29.30133\atlmfc\include\afxwin2.inl
; File D:\git\src\IBK\IBK_DRFN\ProjSrc\SrcChartEx\ChartAddIn\ChartAnalysisToolAddIn\AnalysisTool\DlgFiboSet.cpp
; File C:\Program Files (x86)\Microsoft Visual Studio\2019\Community\VC\Tools\MSVC\14.29.30133\atlmfc\include\afxwin2.inl
; File D:\git\src\IBK\IBK_DRFN\ProjSrc\SrcChartEx\ChartAddIn\ChartAnalysisToolAddIn\AnalysisTool\DlgFiboSet.cpp
;	COMDAT ?SetLineExtEnvironment@CDlgFiboSet@@AAEXXZ
_TEXT	SEGMENT
$T1 = -8						; size = 4
$T2 = -4						; size = 4
?SetLineExtEnvironment@CDlgFiboSet@@AAEXXZ PROC		; CDlgFiboSet::SetLineExtEnvironment, COMDAT
; _this$ = ecx

; 1077 : {

  00000	55		 push	 ebp
  00001	8b ec		 mov	 ebp, esp
  00003	83 ec 08	 sub	 esp, 8
  00006	56		 push	 esi
  00007	57		 push	 edi

; 1078 : 	UpdateData(TRUE);

  00008	6a 01		 push	 1
  0000a	8b f9		 mov	 edi, ecx
  0000c	e8 00 00 00 00	 call	 ?UpdateData@CWnd@@QAEHH@Z ; CWnd::UpdateData
; File C:\Program Files (x86)\Microsoft Visual Studio\2019\Community\VC\Tools\MSVC\14.29.30133\atlmfc\include\afxwin2.inl

; 628  : 	{ ASSERT(::IsWindow(m_hWnd)); return (int)::SendMessage(m_hWnd, BM_GETCHECK, 0, 0); }

  00011	8b 35 00 00 00
	00		 mov	 esi, DWORD PTR __imp__SendMessageA@16
  00017	6a 00		 push	 0
  00019	6a 00		 push	 0
  0001b	68 f0 00 00 00	 push	 240			; 000000f0H
  00020	ff b7 70 05 00
	00		 push	 DWORD PTR [edi+1392]
  00026	ff d6		 call	 esi
  00028	6a 00		 push	 0
  0002a	6a 00		 push	 0
  0002c	68 f0 00 00 00	 push	 240			; 000000f0H
  00031	ff b7 f0 04 00
	00		 push	 DWORD PTR [edi+1264]
; File D:\git\src\IBK\IBK_DRFN\ProjSrc\SrcChartEx\ChartAddIn\ChartAnalysisToolAddIn\AnalysisTool\DlgFiboSet.cpp

; 1079 : 	m_pLineExtEnvironment->SetLineExt(m_ctrlLeftExt.GetCheck(),m_ctrlRightExt.GetCheck());

  00037	89 45 fc	 mov	 DWORD PTR $T2[ebp], eax
; File C:\Program Files (x86)\Microsoft Visual Studio\2019\Community\VC\Tools\MSVC\14.29.30133\atlmfc\include\afxwin2.inl

; 628  : 	{ ASSERT(::IsWindow(m_hWnd)); return (int)::SendMessage(m_hWnd, BM_GETCHECK, 0, 0); }

  0003a	ff d6		 call	 esi
; File D:\git\src\IBK\IBK_DRFN\ProjSrc\SrcChartEx\ChartAddIn\ChartAnalysisToolAddIn\AnalysisTool\DlgFiboSet.cpp

; 1079 : 	m_pLineExtEnvironment->SetLineExt(m_ctrlLeftExt.GetCheck(),m_ctrlRightExt.GetCheck());

  0003c	8b 8f f4 0c 00
	00		 mov	 ecx, DWORD PTR [edi+3316]
  00042	89 45 f8	 mov	 DWORD PTR $T1[ebp], eax
  00045	8d 45 fc	 lea	 eax, DWORD PTR $T2[ebp]
  00048	50		 push	 eax
  00049	8d 45 f8	 lea	 eax, DWORD PTR $T1[ebp]
  0004c	50		 push	 eax
  0004d	e8 00 00 00 00	 call	 ?SetLineExt@CLineExtEnvironment@@QAEXABH0@Z ; CLineExtEnvironment::SetLineExt
; File C:\Program Files (x86)\Microsoft Visual Studio\2019\Community\VC\Tools\MSVC\14.29.30133\atlmfc\include\afxwin2.inl

; 628  : 	{ ASSERT(::IsWindow(m_hWnd)); return (int)::SendMessage(m_hWnd, BM_GETCHECK, 0, 0); }

  00052	6a 00		 push	 0
  00054	6a 00		 push	 0
  00056	68 f0 00 00 00	 push	 240			; 000000f0H
  0005b	ff b7 f0 04 00
	00		 push	 DWORD PTR [edi+1264]
  00061	ff d6		 call	 esi
  00063	6a 00		 push	 0
  00065	6a 00		 push	 0
  00067	68 f0 00 00 00	 push	 240			; 000000f0H
  0006c	ff b7 70 05 00
	00		 push	 DWORD PTR [edi+1392]
; File D:\git\src\IBK\IBK_DRFN\ProjSrc\SrcChartEx\ChartAddIn\ChartAnalysisToolAddIn\AnalysisTool\DlgFiboSet.cpp

; 1081 : 	m_stAnalysisTool.nLeftExt = m_ctrlLeftExt.GetCheck();

  00072	89 87 3c 0c 00
	00		 mov	 DWORD PTR [edi+3132], eax
; File C:\Program Files (x86)\Microsoft Visual Studio\2019\Community\VC\Tools\MSVC\14.29.30133\atlmfc\include\afxwin2.inl

; 628  : 	{ ASSERT(::IsWindow(m_hWnd)); return (int)::SendMessage(m_hWnd, BM_GETCHECK, 0, 0); }

  00078	ff d6		 call	 esi
; File D:\git\src\IBK\IBK_DRFN\ProjSrc\SrcChartEx\ChartAddIn\ChartAnalysisToolAddIn\AnalysisTool\DlgFiboSet.cpp

; 1082 : 	m_stAnalysisTool.nRightExt = m_ctrlRightExt.GetCheck();	

  0007a	89 87 40 0c 00
	00		 mov	 DWORD PTR [edi+3136], eax
  00080	5f		 pop	 edi
  00081	5e		 pop	 esi

; 1083 : }

  00082	8b e5		 mov	 esp, ebp
  00084	5d		 pop	 ebp
  00085	c3		 ret	 0
?SetLineExtEnvironment@CDlgFiboSet@@AAEXXZ ENDP		; CDlgFiboSet::SetLineExtEnvironment
_TEXT	ENDS
; Function compile flags: /Ogtp
; File D:\git\src\IBK\IBK_DRFN\ProjSrc\SrcChartEx\ChartAddIn\ChartAnalysisToolAddIn\AnalysisTool\DlgFiboSet.cpp
;	COMDAT ?SetTextPosition@CDlgFiboSet@@AAEX_N000@Z
_TEXT	SEGMENT
_bLeft$ = 8						; size = 1
$T1 = 8							; size = 4
_bRight$ = 12						; size = 1
_bTop$ = 16						; size = 1
_bBottom$ = 20						; size = 1
?SetTextPosition@CDlgFiboSet@@AAEX_N000@Z PROC		; CDlgFiboSet::SetTextPosition, COMDAT
; _this$ = ecx

; 1163 : {

  00000	55		 push	 ebp
  00001	8b ec		 mov	 ebp, esp
  00003	56		 push	 esi
  00004	8b f1		 mov	 esi, ecx

; 1164 : 	if(m_pTextHVPosition == NULL)

  00006	8b 8e c0 0c 00
	00		 mov	 ecx, DWORD PTR [esi+3264]
  0000c	85 c9		 test	 ecx, ecx
  0000e	74 56		 je	 SHORT $LN1@SetTextPos

; 1165 : 		return;
; 1166 : 
; 1167 : 	m_pTextHVPosition->SetLeft(bLeft);

  00010	ff 75 08	 push	 DWORD PTR _bLeft$[ebp]
  00013	e8 00 00 00 00	 call	 ?SetLeft@CTextHorzVertPosition@@QAEX_N@Z ; CTextHorzVertPosition::SetLeft

; 1168 : 	m_pTextHVPosition->SetRight(bRight);

  00018	ff 75 0c	 push	 DWORD PTR _bRight$[ebp]
  0001b	8b 8e c0 0c 00
	00		 mov	 ecx, DWORD PTR [esi+3264]
  00021	e8 00 00 00 00	 call	 ?SetRight@CTextHorzVertPosition@@QAEX_N@Z ; CTextHorzVertPosition::SetRight

; 1169 : 	m_pTextHVPosition->SetTop(bTop);

  00026	ff 75 10	 push	 DWORD PTR _bTop$[ebp]
  00029	8b 8e c0 0c 00
	00		 mov	 ecx, DWORD PTR [esi+3264]
  0002f	e8 00 00 00 00	 call	 ?SetTop@CTextHorzVertPosition@@QAEX_N@Z ; CTextHorzVertPosition::SetTop

; 1170 : 	m_pTextHVPosition->SetBottom(bBottom);

  00034	ff 75 14	 push	 DWORD PTR _bBottom$[ebp]
  00037	8b 8e c0 0c 00
	00		 mov	 ecx, DWORD PTR [esi+3264]
  0003d	e8 00 00 00 00	 call	 ?SetBottom@CTextHorzVertPosition@@QAEX_N@Z ; CTextHorzVertPosition::SetBottom

; 1171 : 	m_pTextHVPosition->GetTextEnvironment().SetColor(m_ctlColor.GetColor());

  00042	8d 8e 48 02 00
	00		 lea	 ecx, DWORD PTR [esi+584]
  00048	e8 00 00 00 00	 call	 ?GetColor@CColorButton@@QBEKXZ ; CColorButton::GetColor
  0004d	8b 8e c0 0c 00
	00		 mov	 ecx, DWORD PTR [esi+3264]
  00053	89 45 08	 mov	 DWORD PTR $T1[ebp], eax
  00056	8d 45 08	 lea	 eax, DWORD PTR $T1[ebp]
  00059	50		 push	 eax
  0005a	e8 00 00 00 00	 call	 ?GetTextEnvironment@CTextPosition@@QAEAAVCTextEnvironment@@XZ ; CTextPosition::GetTextEnvironment
  0005f	8b c8		 mov	 ecx, eax
  00061	e8 00 00 00 00	 call	 ?SetColor@CTextEnvironment@@QAEXABK@Z ; CTextEnvironment::SetColor
$LN1@SetTextPos:
  00066	5e		 pop	 esi

; 1172 : }

  00067	5d		 pop	 ebp
  00068	c2 10 00	 ret	 16			; 00000010H
?SetTextPosition@CDlgFiboSet@@AAEX_N000@Z ENDP		; CDlgFiboSet::SetTextPosition
_TEXT	ENDS
; Function compile flags: /Ogtp
; File D:\git\src\IBK\IBK_DRFN\ProjSrc\SrcChartEx\ChartAddIn\ChartAnalysisToolAddIn\AnalysisTool\DlgFiboSet.cpp
;	COMDAT ?SetTextPosition@CDlgFiboSet@@AAEX_N0@Z
_TEXT	SEGMENT
_bLeft$ = 8						; size = 1
_bRight$ = 12						; size = 1
$T1 = 12						; size = 4
$T2 = 12						; size = 4
?SetTextPosition@CDlgFiboSet@@AAEX_N0@Z PROC		; CDlgFiboSet::SetTextPosition, COMDAT
; _this$ = ecx

; 1141 : {

  00000	55		 push	 ebp
  00001	8b ec		 mov	 ebp, esp
  00003	53		 push	 ebx
  00004	56		 push	 esi
  00005	8b f1		 mov	 esi, ecx

; 1142 : 	if(m_nTextPosType == G_TEXT_POS_VERT && m_pTextVPosition != NULL)

  00007	8b 86 8c 0c 00
	00		 mov	 eax, DWORD PTR [esi+3212]
  0000d	83 f8 02	 cmp	 eax, 2
  00010	75 64		 jne	 SHORT $LN2@SetTextPos
  00012	8b 8e bc 0c 00
	00		 mov	 ecx, DWORD PTR [esi+3260]
  00018	85 c9		 test	 ecx, ecx
  0001a	0f 84 b5 00 00
	00		 je	 $LN4@SetTextPos

; 1143 : 	{
; 1144 : 		m_pTextVPosition->SetTop(bLeft);

  00020	ff 75 08	 push	 DWORD PTR _bLeft$[ebp]
  00023	e8 00 00 00 00	 call	 ?SetTop@CTextVertPosition@@QAEX_N@Z ; CTextVertPosition::SetTop

; 1145 : 		m_pTextVPosition->SetBottom(bRight);

  00028	8b 5d 0c	 mov	 ebx, DWORD PTR _bRight$[ebp]
  0002b	8b 8e bc 0c 00
	00		 mov	 ecx, DWORD PTR [esi+3260]
  00031	53		 push	 ebx
  00032	e8 00 00 00 00	 call	 ?SetBottom@CTextVertPosition@@QAEX_N@Z ; CTextVertPosition::SetBottom

; 1146 : 		m_pTextVPosition->GetTextEnvironment().SetColor(m_ctlColor.GetColor());

  00037	8d 8e 48 02 00
	00		 lea	 ecx, DWORD PTR [esi+584]
  0003d	e8 00 00 00 00	 call	 ?GetColor@CColorButton@@QBEKXZ ; CColorButton::GetColor
  00042	8b 8e bc 0c 00
	00		 mov	 ecx, DWORD PTR [esi+3260]
  00048	89 45 0c	 mov	 DWORD PTR $T2[ebp], eax
  0004b	8d 45 0c	 lea	 eax, DWORD PTR $T2[ebp]
  0004e	50		 push	 eax
  0004f	e8 00 00 00 00	 call	 ?GetTextEnvironment@CTextPosition@@QAEAAVCTextEnvironment@@XZ ; CTextPosition::GetTextEnvironment
  00054	8b c8		 mov	 ecx, eax
  00056	e8 00 00 00 00	 call	 ?SetColor@CTextEnvironment@@QAEXABK@Z ; CTextEnvironment::SetColor

; 1147 : 
; 1148 : 		m_stAnalysisTool.nTopText = (int)bLeft;

  0005b	8b 4d 08	 mov	 ecx, DWORD PTR _bLeft$[ebp]
  0005e	0f b6 c1	 movzx	 eax, cl
  00061	89 86 34 0c 00
	00		 mov	 DWORD PTR [esi+3124], eax

; 1149 : 		m_stAnalysisTool.nBottomText = (int)bRight;

  00067	0f b6 c3	 movzx	 eax, bl
  0006a	89 86 38 0c 00
	00		 mov	 DWORD PTR [esi+3128], eax
  00070	5e		 pop	 esi

; 1159 : 	}	
; 1160 : }

  00071	5b		 pop	 ebx
  00072	5d		 pop	 ebp
  00073	c2 08 00	 ret	 8
$LN2@SetTextPos:

; 1150 : 	}
; 1151 : 	else if(m_nTextPosType == G_TEXT_POS_HORZ && m_pTextHPosition != NULL)

  00076	83 f8 01	 cmp	 eax, 1
  00079	75 5a		 jne	 SHORT $LN4@SetTextPos
  0007b	8b 8e b8 0c 00
	00		 mov	 ecx, DWORD PTR [esi+3256]
  00081	85 c9		 test	 ecx, ecx
  00083	74 50		 je	 SHORT $LN4@SetTextPos

; 1152 : 	{
; 1153 : 		m_pTextHPosition->SetLeft(bLeft);

  00085	ff 75 08	 push	 DWORD PTR _bLeft$[ebp]
  00088	e8 00 00 00 00	 call	 ?SetLeft@CTextHorzPosition@@QAEX_N@Z ; CTextHorzPosition::SetLeft

; 1154 : 		m_pTextHPosition->SetRight(bRight);

  0008d	8b 5d 0c	 mov	 ebx, DWORD PTR _bRight$[ebp]
  00090	8b 8e b8 0c 00
	00		 mov	 ecx, DWORD PTR [esi+3256]
  00096	53		 push	 ebx
  00097	e8 00 00 00 00	 call	 ?SetRight@CTextHorzPosition@@QAEX_N@Z ; CTextHorzPosition::SetRight

; 1155 : 		m_pTextHPosition->GetTextEnvironment().SetColor(m_ctlColor.GetColor());

  0009c	8d 8e 48 02 00
	00		 lea	 ecx, DWORD PTR [esi+584]
  000a2	e8 00 00 00 00	 call	 ?GetColor@CColorButton@@QBEKXZ ; CColorButton::GetColor
  000a7	8b 8e b8 0c 00
	00		 mov	 ecx, DWORD PTR [esi+3256]
  000ad	89 45 0c	 mov	 DWORD PTR $T1[ebp], eax
  000b0	8d 45 0c	 lea	 eax, DWORD PTR $T1[ebp]
  000b3	50		 push	 eax
  000b4	e8 00 00 00 00	 call	 ?GetTextEnvironment@CTextPosition@@QAEAAVCTextEnvironment@@XZ ; CTextPosition::GetTextEnvironment
  000b9	8b c8		 mov	 ecx, eax
  000bb	e8 00 00 00 00	 call	 ?SetColor@CTextEnvironment@@QAEXABK@Z ; CTextEnvironment::SetColor

; 1156 : 
; 1157 : 		m_stAnalysisTool.nLeftText = (int)bLeft;

  000c0	8b 4d 08	 mov	 ecx, DWORD PTR _bLeft$[ebp]
  000c3	0f b6 c1	 movzx	 eax, cl
  000c6	89 86 28 0c 00
	00		 mov	 DWORD PTR [esi+3112], eax

; 1158 : 		m_stAnalysisTool.nRightText = (int)bRight;	

  000cc	0f b6 c3	 movzx	 eax, bl
  000cf	89 86 2c 0c 00
	00		 mov	 DWORD PTR [esi+3116], eax
$LN4@SetTextPos:

; 1159 : 	}	
; 1160 : }

  000d5	5e		 pop	 esi
  000d6	5b		 pop	 ebx
  000d7	5d		 pop	 ebp
  000d8	c2 08 00	 ret	 8
?SetTextPosition@CDlgFiboSet@@AAEX_N0@Z ENDP		; CDlgFiboSet::SetTextPosition
_TEXT	ENDS
; Function compile flags: /Ogtp
; File D:\git\src\IBK\IBK_DRFN\ProjSrc\SrcChartEx\ChartAddIn\ChartAnalysisToolAddIn\AnalysisTool\DlgFiboSet.cpp
;	COMDAT ?SetTextPosition@CDlgFiboSet@@AAEX_N@Z
_TEXT	SEGMENT
$T1 = -4						; size = 4
_bShow$ = 8						; size = 1
?SetTextPosition@CDlgFiboSet@@AAEX_N@Z PROC		; CDlgFiboSet::SetTextPosition, COMDAT
; _this$ = ecx

; 1135 : {

  00000	55		 push	 ebp
  00001	8b ec		 mov	 ebp, esp
  00003	51		 push	 ecx
  00004	56		 push	 esi
  00005	8b f1		 mov	 esi, ecx

; 1136 : 	m_pTextPosition->GetTextEnvironment().SetColor(m_ctlColor.GetColor());

  00007	8d 8e 48 02 00
	00		 lea	 ecx, DWORD PTR [esi+584]
  0000d	e8 00 00 00 00	 call	 ?GetColor@CColorButton@@QBEKXZ ; CColorButton::GetColor
  00012	8b 8e b4 0c 00
	00		 mov	 ecx, DWORD PTR [esi+3252]
  00018	89 45 fc	 mov	 DWORD PTR $T1[ebp], eax
  0001b	8d 45 fc	 lea	 eax, DWORD PTR $T1[ebp]
  0001e	50		 push	 eax
  0001f	e8 00 00 00 00	 call	 ?GetTextEnvironment@CTextPosition@@QAEAAVCTextEnvironment@@XZ ; CTextPosition::GetTextEnvironment
  00024	8b c8		 mov	 ecx, eax
  00026	e8 00 00 00 00	 call	 ?SetColor@CTextEnvironment@@QAEXABK@Z ; CTextEnvironment::SetColor

; 1137 : 	m_pTextPosition->SetShow(bShow);

  0002b	ff 75 08	 push	 DWORD PTR _bShow$[ebp]
  0002e	8b 8e b4 0c 00
	00		 mov	 ecx, DWORD PTR [esi+3252]
  00034	e8 00 00 00 00	 call	 ?SetShow@CTextShowPosition@@QAEX_N@Z ; CTextShowPosition::SetShow
  00039	5e		 pop	 esi

; 1138 : }

  0003a	8b e5		 mov	 esp, ebp
  0003c	5d		 pop	 ebp
  0003d	c2 04 00	 ret	 4
?SetTextPosition@CDlgFiboSet@@AAEX_N@Z ENDP		; CDlgFiboSet::SetTextPosition
_TEXT	ENDS
; Function compile flags: /Ogtp
; File D:\git\src\IBK\IBK_DRFN\ProjSrc\SrcChartEx\ChartAddIn\ChartAnalysisToolAddIn\AnalysisTool\DlgFiboSet.cpp
; File C:\Program Files (x86)\Microsoft Visual Studio\2019\Community\VC\Tools\MSVC\14.29.30133\atlmfc\include\afxwin2.inl
; File D:\git\src\IBK\IBK_DRFN\ProjSrc\SrcChartEx\ChartAddIn\ChartAnalysisToolAddIn\AnalysisTool\DlgFiboSet.cpp
; File C:\Program Files (x86)\Microsoft Visual Studio\2019\Community\VC\Tools\MSVC\14.29.30133\atlmfc\include\afxwin2.inl
; File D:\git\src\IBK\IBK_DRFN\ProjSrc\SrcChartEx\ChartAddIn\ChartAnalysisToolAddIn\AnalysisTool\DlgFiboSet.cpp
; File C:\Program Files (x86)\Microsoft Visual Studio\2019\Community\VC\Tools\MSVC\14.29.30133\atlmfc\include\afxwin2.inl
; File D:\git\src\IBK\IBK_DRFN\ProjSrc\SrcChartEx\ChartAddIn\ChartAnalysisToolAddIn\AnalysisTool\DlgFiboSet.cpp
; File C:\Program Files (x86)\Microsoft Visual Studio\2019\Community\VC\Tools\MSVC\14.29.30133\atlmfc\include\afxwin2.inl
; File D:\git\src\IBK\IBK_DRFN\ProjSrc\SrcChartEx\ChartAddIn\ChartAnalysisToolAddIn\AnalysisTool\DlgFiboSet.cpp
; File C:\Program Files (x86)\Microsoft Visual Studio\2019\Community\VC\Tools\MSVC\14.29.30133\atlmfc\include\afxwin2.inl
; File D:\git\src\IBK\IBK_DRFN\ProjSrc\SrcChartEx\ChartAddIn\ChartAnalysisToolAddIn\AnalysisTool\DlgFiboSet.cpp
; File C:\Program Files (x86)\Microsoft Visual Studio\2019\Community\VC\Tools\MSVC\14.29.30133\atlmfc\include\afxwin2.inl
; File D:\git\src\IBK\IBK_DRFN\ProjSrc\SrcChartEx\ChartAddIn\ChartAnalysisToolAddIn\AnalysisTool\DlgFiboSet.cpp
; File C:\Program Files (x86)\Microsoft Visual Studio\2019\Community\VC\Tools\MSVC\14.29.30133\atlmfc\include\afxwin2.inl
; File D:\git\src\IBK\IBK_DRFN\ProjSrc\SrcChartEx\ChartAddIn\ChartAnalysisToolAddIn\AnalysisTool\DlgFiboSet.cpp
; File C:\Program Files (x86)\Microsoft Visual Studio\2019\Community\VC\Tools\MSVC\14.29.30133\atlmfc\include\afxwin2.inl
; File D:\git\src\IBK\IBK_DRFN\ProjSrc\SrcChartEx\ChartAddIn\ChartAnalysisToolAddIn\AnalysisTool\DlgFiboSet.cpp
; File C:\Program Files (x86)\Microsoft Visual Studio\2019\Community\VC\Tools\MSVC\14.29.30133\atlmfc\include\afxwin2.inl
; File D:\git\src\IBK\IBK_DRFN\ProjSrc\SrcChartEx\ChartAddIn\ChartAnalysisToolAddIn\AnalysisTool\DlgFiboSet.cpp
; File C:\Program Files (x86)\Microsoft Visual Studio\2019\Community\VC\Tools\MSVC\14.29.30133\atlmfc\include\afxwin2.inl
; File D:\git\src\IBK\IBK_DRFN\ProjSrc\SrcChartEx\ChartAddIn\ChartAnalysisToolAddIn\AnalysisTool\DlgFiboSet.cpp
; File C:\Program Files (x86)\Microsoft Visual Studio\2019\Community\VC\Tools\MSVC\14.29.30133\atlmfc\include\afxwin2.inl
; File D:\git\src\IBK\IBK_DRFN\ProjSrc\SrcChartEx\ChartAddIn\ChartAnalysisToolAddIn\AnalysisTool\DlgFiboSet.cpp
;	COMDAT ?SetTextPosition@CDlgFiboSet@@AAEXXZ
_TEXT	SEGMENT
_bShow$ = -8						; size = 1
_this$1$ = -4						; size = 4
$T1 = -4						; size = 4
?SetTextPosition@CDlgFiboSet@@AAEXXZ PROC		; CDlgFiboSet::SetTextPosition, COMDAT
; _this$ = ecx

; 1097 : {

  00000	55		 push	 ebp
  00001	8b ec		 mov	 ebp, esp
  00003	83 ec 08	 sub	 esp, 8

; 1098 : 	m_stAnalysisTool.dEndXPos = G_NOTAVAILABLE;

  00006	0f 28 05 00 00
	00 00		 movaps	 xmm0, XMMWORD PTR __xmm@00100000000000000010000000000000
  0000d	53		 push	 ebx
  0000e	8b d9		 mov	 ebx, ecx
  00010	56		 push	 esi
  00011	89 5d fc	 mov	 DWORD PTR _this$1$[ebp], ebx

; 1099 : 	m_stAnalysisTool.dEndYValue = G_NOTAVAILABLE;
; 1100 : 	m_stAnalysisTool.dStartXPos = G_NOTAVAILABLE;
; 1101 : 	m_stAnalysisTool.dStartYValue = G_NOTAVAILABLE;
; 1102 : 	m_stAnalysisTool.dThirdXPos = G_NOTAVAILABLE;
; 1103 : 	m_stAnalysisTool.dThirdYValue = G_NOTAVAILABLE;
; 1104 : 	m_stAnalysisTool.nEquiDiv = -1;
; 1105 : 	m_stAnalysisTool.nPriceRangeDiv = -1;	// (2008/8/15 - Seung-Won, Bae) Add option for using price range.
; 1106 : 	m_stAnalysisTool.nHLPercent = -1;
; 1107 : 	m_stAnalysisTool.nFillRegion = -1;	
; 1108 : 
; 1109 : 	if(m_nTextPosType == G_TEXT_POS_HV)

  00014	8b 83 8c 0c 00
	00		 mov	 eax, DWORD PTR [ebx+3212]
  0001a	f2 0f 11 83 00
	0c 00 00	 movsd	 QWORD PTR [ebx+3072], xmm0
  00022	f2 0f 11 83 18
	0c 00 00	 movsd	 QWORD PTR [ebx+3096], xmm0
  0002a	f2 0f 11 83 f8
	0b 00 00	 movsd	 QWORD PTR [ebx+3064], xmm0
  00032	f2 0f 11 83 20
	0c 00 00	 movsd	 QWORD PTR [ebx+3104], xmm0
  0003a	c7 83 44 0c 00
	00 ff ff ff ff	 mov	 DWORD PTR [ebx+3140], -1
  00044	c7 83 48 0c 00
	00 ff ff ff ff	 mov	 DWORD PTR [ebx+3144], -1
  0004e	c7 83 4c 0c 00
	00 ff ff ff ff	 mov	 DWORD PTR [ebx+3148], -1
  00058	c7 83 50 0c 00
	00 ff ff ff ff	 mov	 DWORD PTR [ebx+3152], -1
  00062	0f 11 83 08 0c
	00 00		 movups	 XMMWORD PTR [ebx+3080], xmm0
  00069	83 f8 03	 cmp	 eax, 3
  0006c	0f 85 e6 00 00
	00		 jne	 $LN2@SetTextPos
; File C:\Program Files (x86)\Microsoft Visual Studio\2019\Community\VC\Tools\MSVC\14.29.30133\atlmfc\include\afxwin2.inl

; 628  : 	{ ASSERT(::IsWindow(m_hWnd)); return (int)::SendMessage(m_hWnd, BM_GETCHECK, 0, 0); }

  00072	57		 push	 edi
  00073	6a 00		 push	 0
  00075	6a 00		 push	 0
  00077	68 f0 00 00 00	 push	 240			; 000000f0H
  0007c	ff b3 70 04 00
	00		 push	 DWORD PTR [ebx+1136]
  00082	8b 1d 00 00 00
	00		 mov	 ebx, DWORD PTR __imp__SendMessageA@16
  00088	ff d3		 call	 ebx
  0008a	6a 00		 push	 0
  0008c	8b f8		 mov	 edi, eax
  0008e	8b 45 fc	 mov	 eax, DWORD PTR _this$1$[ebp]
  00091	6a 00		 push	 0
  00093	68 f0 00 00 00	 push	 240			; 000000f0H
  00098	ff b0 f0 03 00
	00		 push	 DWORD PTR [eax+1008]
  0009e	ff d3		 call	 ebx
  000a0	6a 00		 push	 0
  000a2	8b f0		 mov	 esi, eax
  000a4	8b 45 fc	 mov	 eax, DWORD PTR _this$1$[ebp]
  000a7	6a 00		 push	 0
  000a9	68 f0 00 00 00	 push	 240			; 000000f0H
  000ae	ff b0 70 03 00
	00		 push	 DWORD PTR [eax+880]
  000b4	ff d3		 call	 ebx
; File D:\git\src\IBK\IBK_DRFN\ProjSrc\SrcChartEx\ChartAddIn\ChartAnalysisToolAddIn\AnalysisTool\DlgFiboSet.cpp

; 1111 : 		SetTextPosition( ( m_ctrlLeftText.GetCheck() ? true : false),

  000b6	85 ff		 test	 edi, edi
  000b8	0f 95 c1	 setne	 cl
  000bb	85 f6		 test	 esi, esi
; File C:\Program Files (x86)\Microsoft Visual Studio\2019\Community\VC\Tools\MSVC\14.29.30133\atlmfc\include\afxwin2.inl

; 628  : 	{ ASSERT(::IsWindow(m_hWnd)); return (int)::SendMessage(m_hWnd, BM_GETCHECK, 0, 0); }

  000bd	8b 75 fc	 mov	 esi, DWORD PTR _this$1$[ebp]
; File D:\git\src\IBK\IBK_DRFN\ProjSrc\SrcChartEx\ChartAddIn\ChartAnalysisToolAddIn\AnalysisTool\DlgFiboSet.cpp

; 1111 : 		SetTextPosition( ( m_ctrlLeftText.GetCheck() ? true : false),

  000c0	0f b6 c9	 movzx	 ecx, cl
  000c3	51		 push	 ecx
  000c4	0f 95 c1	 setne	 cl
  000c7	85 c0		 test	 eax, eax
  000c9	0f b6 c9	 movzx	 ecx, cl
  000cc	51		 push	 ecx
  000cd	0f 95 c0	 setne	 al
  000d0	0f b6 c0	 movzx	 eax, al
  000d3	50		 push	 eax
; File C:\Program Files (x86)\Microsoft Visual Studio\2019\Community\VC\Tools\MSVC\14.29.30133\atlmfc\include\afxwin2.inl

; 628  : 	{ ASSERT(::IsWindow(m_hWnd)); return (int)::SendMessage(m_hWnd, BM_GETCHECK, 0, 0); }

  000d4	6a 00		 push	 0
  000d6	6a 00		 push	 0
  000d8	68 f0 00 00 00	 push	 240			; 000000f0H
  000dd	ff b6 f0 02 00
	00		 push	 DWORD PTR [esi+752]
  000e3	ff d3		 call	 ebx
; File D:\git\src\IBK\IBK_DRFN\ProjSrc\SrcChartEx\ChartAddIn\ChartAnalysisToolAddIn\AnalysisTool\DlgFiboSet.cpp

; 1111 : 		SetTextPosition( ( m_ctrlLeftText.GetCheck() ? true : false),

  000e5	85 c0		 test	 eax, eax
  000e7	8b ce		 mov	 ecx, esi
  000e9	0f 95 c0	 setne	 al
  000ec	0f b6 c0	 movzx	 eax, al
  000ef	50		 push	 eax
  000f0	e8 00 00 00 00	 call	 ?SetTextPosition@CDlgFiboSet@@AAEX_N000@Z ; CDlgFiboSet::SetTextPosition
; File C:\Program Files (x86)\Microsoft Visual Studio\2019\Community\VC\Tools\MSVC\14.29.30133\atlmfc\include\afxwin2.inl

; 628  : 	{ ASSERT(::IsWindow(m_hWnd)); return (int)::SendMessage(m_hWnd, BM_GETCHECK, 0, 0); }

  000f5	6a 00		 push	 0
  000f7	6a 00		 push	 0
  000f9	68 f0 00 00 00	 push	 240			; 000000f0H
  000fe	ff b6 f0 03 00
	00		 push	 DWORD PTR [esi+1008]
  00104	ff d3		 call	 ebx
  00106	6a 00		 push	 0
  00108	6a 00		 push	 0
  0010a	68 f0 00 00 00	 push	 240			; 000000f0H
  0010f	ff b6 70 04 00
	00		 push	 DWORD PTR [esi+1136]
; File D:\git\src\IBK\IBK_DRFN\ProjSrc\SrcChartEx\ChartAddIn\ChartAnalysisToolAddIn\AnalysisTool\DlgFiboSet.cpp

; 1116 : 		m_stAnalysisTool.nTopText = (int)m_ctrlTopText.GetCheck();

  00115	89 86 34 0c 00
	00		 mov	 DWORD PTR [esi+3124], eax
; File C:\Program Files (x86)\Microsoft Visual Studio\2019\Community\VC\Tools\MSVC\14.29.30133\atlmfc\include\afxwin2.inl

; 628  : 	{ ASSERT(::IsWindow(m_hWnd)); return (int)::SendMessage(m_hWnd, BM_GETCHECK, 0, 0); }

  0011b	ff d3		 call	 ebx
  0011d	6a 00		 push	 0
  0011f	6a 00		 push	 0
  00121	68 f0 00 00 00	 push	 240			; 000000f0H
  00126	ff b6 f0 02 00
	00		 push	 DWORD PTR [esi+752]
; File D:\git\src\IBK\IBK_DRFN\ProjSrc\SrcChartEx\ChartAddIn\ChartAnalysisToolAddIn\AnalysisTool\DlgFiboSet.cpp

; 1117 : 		m_stAnalysisTool.nBottomText = (int)m_ctrlBottomText.GetCheck();

  0012c	89 86 38 0c 00
	00		 mov	 DWORD PTR [esi+3128], eax
; File C:\Program Files (x86)\Microsoft Visual Studio\2019\Community\VC\Tools\MSVC\14.29.30133\atlmfc\include\afxwin2.inl

; 628  : 	{ ASSERT(::IsWindow(m_hWnd)); return (int)::SendMessage(m_hWnd, BM_GETCHECK, 0, 0); }

  00132	ff d3		 call	 ebx
  00134	6a 00		 push	 0
  00136	6a 00		 push	 0
  00138	68 f0 00 00 00	 push	 240			; 000000f0H
  0013d	ff b6 70 03 00
	00		 push	 DWORD PTR [esi+880]
; File D:\git\src\IBK\IBK_DRFN\ProjSrc\SrcChartEx\ChartAddIn\ChartAnalysisToolAddIn\AnalysisTool\DlgFiboSet.cpp

; 1118 : 		m_stAnalysisTool.nLeftText = (int)m_ctrlLeftText.GetCheck();

  00143	89 86 28 0c 00
	00		 mov	 DWORD PTR [esi+3112], eax
; File C:\Program Files (x86)\Microsoft Visual Studio\2019\Community\VC\Tools\MSVC\14.29.30133\atlmfc\include\afxwin2.inl

; 628  : 	{ ASSERT(::IsWindow(m_hWnd)); return (int)::SendMessage(m_hWnd, BM_GETCHECK, 0, 0); }

  00149	ff d3		 call	 ebx
; File D:\git\src\IBK\IBK_DRFN\ProjSrc\SrcChartEx\ChartAddIn\ChartAnalysisToolAddIn\AnalysisTool\DlgFiboSet.cpp

; 1119 : 		m_stAnalysisTool.nRightText = (int)m_ctrlRightText.GetCheck();	

  0014b	5f		 pop	 edi
  0014c	89 86 2c 0c 00
	00		 mov	 DWORD PTR [esi+3116], eax
  00152	5e		 pop	 esi

; 1130 : 							( m_ctrlRightText.GetCheck() ? true : false));
; 1131 : 	}	
; 1132 : }

  00153	5b		 pop	 ebx
  00154	8b e5		 mov	 esp, ebp
  00156	5d		 pop	 ebp
  00157	c3		 ret	 0
$LN2@SetTextPos:

; 1120 : 	}
; 1121 : 	else if(m_nTextPosType == G_TEXT_POS_ONE)

  00158	8b 35 00 00 00
	00		 mov	 esi, DWORD PTR __imp__SendMessageA@16
  0015e	6a 00		 push	 0
  00160	6a 00		 push	 0
  00162	68 f0 00 00 00	 push	 240			; 000000f0H
  00167	85 c0		 test	 eax, eax
  00169	75 5d		 jne	 SHORT $LN4@SetTextPos
; File C:\Program Files (x86)\Microsoft Visual Studio\2019\Community\VC\Tools\MSVC\14.29.30133\atlmfc\include\afxwin2.inl

; 628  : 	{ ASSERT(::IsWindow(m_hWnd)); return (int)::SendMessage(m_hWnd, BM_GETCHECK, 0, 0); }

  0016b	ff b3 f0 02 00
	00		 push	 DWORD PTR [ebx+752]
  00171	ff d6		 call	 esi
; File D:\git\src\IBK\IBK_DRFN\ProjSrc\SrcChartEx\ChartAddIn\ChartAnalysisToolAddIn\AnalysisTool\DlgFiboSet.cpp

; 1123 : 		SetTextPosition( m_ctrlLeftText.GetCheck() ? true : false);

  00173	85 c0		 test	 eax, eax

; 1136 : 	m_pTextPosition->GetTextEnvironment().SetColor(m_ctlColor.GetColor());

  00175	8d 8b 48 02 00
	00		 lea	 ecx, DWORD PTR [ebx+584]

; 1123 : 		SetTextPosition( m_ctrlLeftText.GetCheck() ? true : false);

  0017b	0f 95 45 f8	 setne	 BYTE PTR _bShow$[ebp]

; 1136 : 	m_pTextPosition->GetTextEnvironment().SetColor(m_ctlColor.GetColor());

  0017f	e8 00 00 00 00	 call	 ?GetColor@CColorButton@@QBEKXZ ; CColorButton::GetColor
  00184	8b 8b b4 0c 00
	00		 mov	 ecx, DWORD PTR [ebx+3252]
  0018a	89 45 fc	 mov	 DWORD PTR $T1[ebp], eax
  0018d	8d 45 fc	 lea	 eax, DWORD PTR $T1[ebp]
  00190	50		 push	 eax
  00191	e8 00 00 00 00	 call	 ?GetTextEnvironment@CTextPosition@@QAEAAVCTextEnvironment@@XZ ; CTextPosition::GetTextEnvironment
  00196	8b c8		 mov	 ecx, eax
  00198	e8 00 00 00 00	 call	 ?SetColor@CTextEnvironment@@QAEXABK@Z ; CTextEnvironment::SetColor

; 1137 : 	m_pTextPosition->SetShow(bShow);

  0019d	ff 75 f8	 push	 DWORD PTR _bShow$[ebp]
  001a0	8b 8b b4 0c 00
	00		 mov	 ecx, DWORD PTR [ebx+3252]
  001a6	e8 00 00 00 00	 call	 ?SetShow@CTextShowPosition@@QAEX_N@Z ; CTextShowPosition::SetShow
; File C:\Program Files (x86)\Microsoft Visual Studio\2019\Community\VC\Tools\MSVC\14.29.30133\atlmfc\include\afxwin2.inl

; 628  : 	{ ASSERT(::IsWindow(m_hWnd)); return (int)::SendMessage(m_hWnd, BM_GETCHECK, 0, 0); }

  001ab	6a 00		 push	 0
  001ad	6a 00		 push	 0
  001af	68 f0 00 00 00	 push	 240			; 000000f0H
  001b4	ff b3 f0 02 00
	00		 push	 DWORD PTR [ebx+752]
  001ba	ff d6		 call	 esi
  001bc	5e		 pop	 esi
; File D:\git\src\IBK\IBK_DRFN\ProjSrc\SrcChartEx\ChartAddIn\ChartAnalysisToolAddIn\AnalysisTool\DlgFiboSet.cpp

; 1125 : 		m_stAnalysisTool.nLeftText = (int)m_ctrlLeftText.GetCheck();

  001bd	89 83 28 0c 00
	00		 mov	 DWORD PTR [ebx+3112], eax

; 1130 : 							( m_ctrlRightText.GetCheck() ? true : false));
; 1131 : 	}	
; 1132 : }

  001c3	5b		 pop	 ebx
  001c4	8b e5		 mov	 esp, ebp
  001c6	5d		 pop	 ebp
  001c7	c3		 ret	 0
$LN4@SetTextPos:
; File C:\Program Files (x86)\Microsoft Visual Studio\2019\Community\VC\Tools\MSVC\14.29.30133\atlmfc\include\afxwin2.inl

; 628  : 	{ ASSERT(::IsWindow(m_hWnd)); return (int)::SendMessage(m_hWnd, BM_GETCHECK, 0, 0); }

  001c8	ff b3 70 03 00
	00		 push	 DWORD PTR [ebx+880]
  001ce	ff d6		 call	 esi
; File D:\git\src\IBK\IBK_DRFN\ProjSrc\SrcChartEx\ChartAddIn\ChartAnalysisToolAddIn\AnalysisTool\DlgFiboSet.cpp

; 1129 : 		SetTextPosition( ( m_ctrlLeftText.GetCheck() ? true : false),

  001d0	85 c0		 test	 eax, eax
  001d2	0f 95 c0	 setne	 al
  001d5	0f b6 c0	 movzx	 eax, al
  001d8	50		 push	 eax
; File C:\Program Files (x86)\Microsoft Visual Studio\2019\Community\VC\Tools\MSVC\14.29.30133\atlmfc\include\afxwin2.inl

; 628  : 	{ ASSERT(::IsWindow(m_hWnd)); return (int)::SendMessage(m_hWnd, BM_GETCHECK, 0, 0); }

  001d9	6a 00		 push	 0
  001db	6a 00		 push	 0
  001dd	68 f0 00 00 00	 push	 240			; 000000f0H
  001e2	ff b3 f0 02 00
	00		 push	 DWORD PTR [ebx+752]
  001e8	ff d6		 call	 esi
; File D:\git\src\IBK\IBK_DRFN\ProjSrc\SrcChartEx\ChartAddIn\ChartAnalysisToolAddIn\AnalysisTool\DlgFiboSet.cpp

; 1129 : 		SetTextPosition( ( m_ctrlLeftText.GetCheck() ? true : false),

  001ea	85 c0		 test	 eax, eax
  001ec	8b cb		 mov	 ecx, ebx
  001ee	0f 95 c0	 setne	 al
  001f1	0f b6 c0	 movzx	 eax, al
  001f4	50		 push	 eax
  001f5	e8 00 00 00 00	 call	 ?SetTextPosition@CDlgFiboSet@@AAEX_N0@Z ; CDlgFiboSet::SetTextPosition
  001fa	5e		 pop	 esi

; 1130 : 							( m_ctrlRightText.GetCheck() ? true : false));
; 1131 : 	}	
; 1132 : }

  001fb	5b		 pop	 ebx
  001fc	8b e5		 mov	 esp, ebp
  001fe	5d		 pop	 ebp
  001ff	c3		 ret	 0
?SetTextPosition@CDlgFiboSet@@AAEXXZ ENDP		; CDlgFiboSet::SetTextPosition
_TEXT	ENDS
; Function compile flags: /Ogtp
; File D:\git\src\IBK\IBK_DRFN\ProjSrc\SrcChartEx\ChartAddIn\ChartAnalysisToolAddIn\AnalysisTool\DlgFiboSet.cpp
; File C:\Program Files (x86)\Microsoft Visual Studio\2019\Community\VC\Tools\MSVC\14.29.30133\atlmfc\include\afxwin2.inl
; File D:\git\src\IBK\IBK_DRFN\ProjSrc\SrcChartEx\ChartAddIn\ChartAnalysisToolAddIn\AnalysisTool\DlgFiboSet.cpp
;	COMDAT ?SetColor@CDlgFiboSet@@AAEXABK@Z
_TEXT	SEGMENT
_color$ = 8						; size = 4
?SetColor@CDlgFiboSet@@AAEXABK@Z PROC			; CDlgFiboSet::SetColor, COMDAT
; _this$ = ecx

; 1091 : {

  00000	55		 push	 ebp
  00001	8b ec		 mov	 ebp, esp
  00003	56		 push	 esi

; 1092 : 	m_ctlColor.SetColor(color);

  00004	ff 75 08	 push	 DWORD PTR _color$[ebp]
  00007	8b f1		 mov	 esi, ecx
  00009	8d 8e 48 02 00
	00		 lea	 ecx, DWORD PTR [esi+584]
  0000f	e8 00 00 00 00	 call	 ?SetColor@CColorButton@@QAEXABK@Z ; CColorButton::SetColor
; File C:\Program Files (x86)\Microsoft Visual Studio\2019\Community\VC\Tools\MSVC\14.29.30133\atlmfc\include\afxwin2.inl

; 114  : 	{ ASSERT(::IsWindow(m_hWnd)); ::InvalidateRect(m_hWnd, NULL, bErase); }

  00014	6a 01		 push	 1
  00016	6a 00		 push	 0
  00018	ff b6 68 02 00
	00		 push	 DWORD PTR [esi+616]
  0001e	ff 15 00 00 00
	00		 call	 DWORD PTR __imp__InvalidateRect@12
  00024	5e		 pop	 esi
; File D:\git\src\IBK\IBK_DRFN\ProjSrc\SrcChartEx\ChartAddIn\ChartAnalysisToolAddIn\AnalysisTool\DlgFiboSet.cpp

; 1094 : }

  00025	5d		 pop	 ebp
  00026	c2 04 00	 ret	 4
?SetColor@CDlgFiboSet@@AAEXABK@Z ENDP			; CDlgFiboSet::SetColor
_TEXT	ENDS
; Function compile flags: /Ogtp
; File D:\git\src\IBK\IBK_DRFN\ProjSrc\SrcChartEx\ChartAddIn\ChartAnalysisToolAddIn\AnalysisTool\DlgFiboSet.cpp
;	COMDAT ?SetPenEnvironment@CDlgFiboSet@@AAEXXZ
_TEXT	SEGMENT
$T1 = -4						; size = 4
?SetPenEnvironment@CDlgFiboSet@@AAEXXZ PROC		; CDlgFiboSet::SetPenEnvironment, COMDAT
; _this$ = ecx

; 1065 : {

  00000	55		 push	 ebp
  00001	8b ec		 mov	 ebp, esp
  00003	51		 push	 ecx
  00004	56		 push	 esi
  00005	57		 push	 edi

; 1066 : 	UpdateData(TRUE);

  00006	6a 01		 push	 1
  00008	8b f9		 mov	 edi, ecx
  0000a	e8 00 00 00 00	 call	 ?UpdateData@CWnd@@QAEHH@Z ; CWnd::UpdateData

; 1067 : 	m_pPenEnvironment->SetColor(m_ctlColor.GetColor());

  0000f	8d 8f 48 02 00
	00		 lea	 ecx, DWORD PTR [edi+584]
  00015	e8 00 00 00 00	 call	 ?GetColor@CColorButton@@QBEKXZ ; CColorButton::GetColor
  0001a	8b 8f a4 0c 00
	00		 mov	 ecx, DWORD PTR [edi+3236]
  00020	89 45 fc	 mov	 DWORD PTR $T1[ebp], eax
  00023	8d 45 fc	 lea	 eax, DWORD PTR $T1[ebp]
  00026	50		 push	 eax
  00027	e8 00 00 00 00	 call	 ?SetColor@CPenEnvironment@@QAEXABK@Z ; CPenEnvironment::SetColor

; 1068 : 	m_pPenEnvironment->SetWidth(m_nWidth+1);

  0002c	8b 87 d0 0b 00
	00		 mov	 eax, DWORD PTR [edi+3024]
  00032	8b 8f a4 0c 00
	00		 mov	 ecx, DWORD PTR [edi+3236]
  00038	40		 inc	 eax
  00039	50		 push	 eax
  0003a	e8 00 00 00 00	 call	 ?SetWidth@CPenEnvironment@@QAEXH@Z ; CPenEnvironment::SetWidth

; 1069 : 	m_pPenEnvironment->SetStyle((CToolEnumData::PenStyle) m_nStyle);

  0003f	ff b7 d4 0b 00
	00		 push	 DWORD PTR [edi+3028]
  00045	8b 8f a4 0c 00
	00		 mov	 ecx, DWORD PTR [edi+3236]
  0004b	e8 00 00 00 00	 call	 ?SetStyle@CPenEnvironment@@QAEXW4PenStyle@CToolEnumData@@@Z ; CPenEnvironment::SetStyle

; 1070 : 	
; 1071 : 	m_stAnalysisTool.crLineColor = m_ctlColor.GetColor();

  00050	8d 8f 48 02 00
	00		 lea	 ecx, DWORD PTR [edi+584]
  00056	e8 00 00 00 00	 call	 ?GetColor@CColorButton@@QBEKXZ ; CColorButton::GetColor
  0005b	89 87 5c 0c 00
	00		 mov	 DWORD PTR [edi+3164], eax

; 1072 : 	m_stAnalysisTool.nLineStyle = m_nStyle;

  00061	8b 87 d4 0b 00
	00		 mov	 eax, DWORD PTR [edi+3028]
  00067	89 87 54 0c 00
	00		 mov	 DWORD PTR [edi+3156], eax

; 1073 : 	m_stAnalysisTool.nLineWeight = m_nWidth+1;	

  0006d	8b 87 d0 0b 00
	00		 mov	 eax, DWORD PTR [edi+3024]
  00073	40		 inc	 eax
  00074	89 87 58 0c 00
	00		 mov	 DWORD PTR [edi+3160], eax
  0007a	5f		 pop	 edi
  0007b	5e		 pop	 esi

; 1074 : }

  0007c	8b e5		 mov	 esp, ebp
  0007e	5d		 pop	 ebp
  0007f	c3		 ret	 0
?SetPenEnvironment@CDlgFiboSet@@AAEXXZ ENDP		; CDlgFiboSet::SetPenEnvironment
_TEXT	ENDS
; Function compile flags: /Ogtp
; File D:\git\src\IBK\IBK_DRFN\ProjSrc\SrcChartEx\ChartAddIn\ChartAnalysisToolAddIn\AnalysisTool\DlgFiboSet.cpp
; File C:\Program Files (x86)\Microsoft Visual Studio\2019\Community\VC\Tools\MSVC\14.29.30133\atlmfc\include\afxwin1.inl
; File D:\git\src\IBK\IBK_DRFN\ProjSrc\SrcChartEx\ChartAddIn\ChartAnalysisToolAddIn\Include_Chart\Dll_Load\IMetaTable.h
; File C:\Program Files (x86)\Microsoft Visual Studio\2019\Community\VC\Tools\MSVC\14.29.30133\atlmfc\include\afxwin1.inl
; File D:\git\src\IBK\IBK_DRFN\ProjSrc\SrcChartEx\ChartAddIn\ChartAnalysisToolAddIn\AnalysisTool\DlgFiboSet.cpp
; File D:\git\src\IBK\IBK_DRFN\ProjSrc\SrcChartEx\ChartAddIn\ChartAnalysisToolAddIn\Include_Chart\Dll_Load\IMetaTable.h
; File C:\Program Files (x86)\Microsoft Visual Studio\2019\Community\VC\Tools\MSVC\14.29.30133\atlmfc\include\afxwin1.inl
; File D:\git\src\IBK\IBK_DRFN\ProjSrc\SrcChartEx\ChartAddIn\ChartAnalysisToolAddIn\AnalysisTool\DlgFiboSet.cpp
;	COMDAT ?InitializeData_Style@CDlgFiboSet@@AAEXXZ
_TEXT	SEGMENT
___mlrs__$ = -16					; size = 4
__$EHRec$ = -12						; size = 12
?InitializeData_Style@CDlgFiboSet@@AAEXXZ PROC		; CDlgFiboSet::InitializeData_Style, COMDAT
; _this$ = ecx

; 1057 : {

  00000	55		 push	 ebp
  00001	8b ec		 mov	 ebp, esp
  00003	6a ff		 push	 -1
  00005	68 00 00 00 00	 push	 __ehhandler$?InitializeData_Style@CDlgFiboSet@@AAEXXZ
  0000a	64 a1 00 00 00
	00		 mov	 eax, DWORD PTR fs:0
  00010	50		 push	 eax
  00011	51		 push	 ecx
  00012	53		 push	 ebx
  00013	56		 push	 esi
  00014	57		 push	 edi
  00015	a1 00 00 00 00	 mov	 eax, DWORD PTR ___security_cookie
  0001a	33 c5		 xor	 eax, ebp
  0001c	50		 push	 eax
  0001d	8d 45 f4	 lea	 eax, DWORD PTR __$EHRec$[ebp]
  00020	64 a3 00 00 00
	00		 mov	 DWORD PTR fs:0, eax
  00026	8b d9		 mov	 ebx, ecx

; 1058 : 	ML_SET_DEFAULT_RES();

  00028	e8 00 00 00 00	 call	 ?AfxGetStaticModuleState@@YGPAVAFX_MODULE_STATE@@XZ ; AfxGetStaticModuleState
  0002d	8b 78 08	 mov	 edi, DWORD PTR [eax+8]
; File C:\Program Files (x86)\Microsoft Visual Studio\2019\Community\VC\Tools\MSVC\14.29.30133\atlmfc\include\afxwin1.inl

; 25   : 		return afxCurrentResourceHandle; }

  00030	e8 00 00 00 00	 call	 ?AfxGetModuleState@@YGPAVAFX_MODULE_STATE@@XZ ; AfxGetModuleState
; File D:\git\src\IBK\IBK_DRFN\ProjSrc\SrcChartEx\ChartAddIn\ChartAnalysisToolAddIn\Include_Chart\Dll_Load\IMetaTable.h

; 1034 : 		m_hInstance = AfxGetResourceHandle();

  00035	8b 70 0c	 mov	 esi, DWORD PTR [eax+12]
  00038	89 75 f0	 mov	 DWORD PTR ___mlrs__$[ebp], esi
; File C:\Program Files (x86)\Microsoft Visual Studio\2019\Community\VC\Tools\MSVC\14.29.30133\atlmfc\include\afxwin1.inl

; 27   : 	{ ASSERT(hInstResource != NULL); afxCurrentResourceHandle = hInstResource; }

  0003b	e8 00 00 00 00	 call	 ?AfxGetModuleState@@YGPAVAFX_MODULE_STATE@@XZ ; AfxGetModuleState
  00040	89 78 0c	 mov	 DWORD PTR [eax+12], edi
; File D:\git\src\IBK\IBK_DRFN\ProjSrc\SrcChartEx\ChartAddIn\ChartAnalysisToolAddIn\AnalysisTool\DlgFiboSet.cpp

; 1060 : 	m_ctlStyle.LoadBitmap(IDB_LINESTYLE, 5);

  00043	6a 05		 push	 5
  00045	68 41 1f 00 00	 push	 8001			; 00001f41H
  0004a	8d 8b 28 01 00
	00		 lea	 ecx, DWORD PTR [ebx+296]
  00050	c7 45 fc 00 00
	00 00		 mov	 DWORD PTR __$EHRec$[ebp+8], 0
  00057	e8 00 00 00 00	 call	 ?LoadBitmapA@CBitmapComboBox@@QAEXHI@Z ; CBitmapComboBox::LoadBitmapA

; 1061 : 	m_nStyle = (int) m_basePenEnvironment.GetStyle();

  0005c	8d 8b a8 0c 00
	00		 lea	 ecx, DWORD PTR [ebx+3240]
  00062	e8 00 00 00 00	 call	 ?GetStyle@CPenEnvironment@@QBE?AW4PenStyle@CToolEnumData@@XZ ; CPenEnvironment::GetStyle
  00067	89 83 d4 0b 00
	00		 mov	 DWORD PTR [ebx+3028], eax
; File D:\git\src\IBK\IBK_DRFN\ProjSrc\SrcChartEx\ChartAddIn\ChartAnalysisToolAddIn\Include_Chart\Dll_Load\IMetaTable.h

; 1038 : 	{

  0006d	c7 45 fc 01 00
	00 00		 mov	 DWORD PTR __$EHRec$[ebp+8], 1
; File C:\Program Files (x86)\Microsoft Visual Studio\2019\Community\VC\Tools\MSVC\14.29.30133\atlmfc\include\afxwin1.inl

; 27   : 	{ ASSERT(hInstResource != NULL); afxCurrentResourceHandle = hInstResource; }

  00074	e8 00 00 00 00	 call	 ?AfxGetModuleState@@YGPAVAFX_MODULE_STATE@@XZ ; AfxGetModuleState
  00079	89 70 0c	 mov	 DWORD PTR [eax+12], esi
; File D:\git\src\IBK\IBK_DRFN\ProjSrc\SrcChartEx\ChartAddIn\ChartAnalysisToolAddIn\AnalysisTool\DlgFiboSet.cpp

; 1062 : }

  0007c	8b 4d f4	 mov	 ecx, DWORD PTR __$EHRec$[ebp]
  0007f	64 89 0d 00 00
	00 00		 mov	 DWORD PTR fs:0, ecx
  00086	59		 pop	 ecx
  00087	5f		 pop	 edi
  00088	5e		 pop	 esi
  00089	5b		 pop	 ebx
  0008a	8b e5		 mov	 esp, ebp
  0008c	5d		 pop	 ebp
  0008d	c3		 ret	 0
_TEXT	ENDS
;	COMDAT text$x
text$x	SEGMENT
__unwindfunclet$?InitializeData_Style@CDlgFiboSet@@AAEXXZ$0:
  00000	8d 4d f0	 lea	 ecx, DWORD PTR ___mlrs__$[ebp]
  00003	e9 00 00 00 00	 jmp	 ??1CMultiLanguageResourceSetter@@QAE@XZ ; CMultiLanguageResourceSetter::~CMultiLanguageResourceSetter
  00008	cc		 int	 3
  00009	cc		 int	 3
  0000a	cc		 int	 3
  0000b	cc		 int	 3
  0000c	cc		 int	 3
__ehhandler$?InitializeData_Style@CDlgFiboSet@@AAEXXZ:
  0000d	90		 npad	 1
  0000e	90		 npad	 1
  0000f	8b 54 24 08	 mov	 edx, DWORD PTR [esp+8]
  00013	8d 42 0c	 lea	 eax, DWORD PTR [edx+12]
  00016	8b 4a ec	 mov	 ecx, DWORD PTR [edx-20]
  00019	33 c8		 xor	 ecx, eax
  0001b	e8 00 00 00 00	 call	 @__security_check_cookie@4
  00020	b8 00 00 00 00	 mov	 eax, OFFSET __ehfuncinfo$?InitializeData_Style@CDlgFiboSet@@AAEXXZ
  00025	e9 00 00 00 00	 jmp	 ___CxxFrameHandler3
text$x	ENDS
?InitializeData_Style@CDlgFiboSet@@AAEXXZ ENDP		; CDlgFiboSet::InitializeData_Style
; Function compile flags: /Ogtp
; File D:\git\src\IBK\IBK_DRFN\ProjSrc\SrcChartEx\ChartAddIn\ChartAnalysisToolAddIn\AnalysisTool\DlgFiboSet.cpp
; File C:\Program Files (x86)\Microsoft Visual Studio\2019\Community\VC\Tools\MSVC\14.29.30133\atlmfc\include\afxwin1.inl
; File D:\git\src\IBK\IBK_DRFN\ProjSrc\SrcChartEx\ChartAddIn\ChartAnalysisToolAddIn\Include_Chart\Dll_Load\IMetaTable.h
; File C:\Program Files (x86)\Microsoft Visual Studio\2019\Community\VC\Tools\MSVC\14.29.30133\atlmfc\include\afxwin1.inl
; File D:\git\src\IBK\IBK_DRFN\ProjSrc\SrcChartEx\ChartAddIn\ChartAnalysisToolAddIn\AnalysisTool\DlgFiboSet.cpp
; File D:\git\src\IBK\IBK_DRFN\ProjSrc\SrcChartEx\ChartAddIn\ChartAnalysisToolAddIn\Include_Chart\Dll_Load\IMetaTable.h
; File C:\Program Files (x86)\Microsoft Visual Studio\2019\Community\VC\Tools\MSVC\14.29.30133\atlmfc\include\afxwin1.inl
; File D:\git\src\IBK\IBK_DRFN\ProjSrc\SrcChartEx\ChartAddIn\ChartAnalysisToolAddIn\AnalysisTool\DlgFiboSet.cpp
;	COMDAT ?InitializeData_Width@CDlgFiboSet@@AAEXXZ
_TEXT	SEGMENT
___mlrs__$ = -16					; size = 4
__$EHRec$ = -12						; size = 12
?InitializeData_Width@CDlgFiboSet@@AAEXXZ PROC		; CDlgFiboSet::InitializeData_Width, COMDAT
; _this$ = ecx

; 1044 : {

  00000	55		 push	 ebp
  00001	8b ec		 mov	 ebp, esp
  00003	6a ff		 push	 -1
  00005	68 00 00 00 00	 push	 __ehhandler$?InitializeData_Width@CDlgFiboSet@@AAEXXZ
  0000a	64 a1 00 00 00
	00		 mov	 eax, DWORD PTR fs:0
  00010	50		 push	 eax
  00011	51		 push	 ecx
  00012	53		 push	 ebx
  00013	56		 push	 esi
  00014	57		 push	 edi
  00015	a1 00 00 00 00	 mov	 eax, DWORD PTR ___security_cookie
  0001a	33 c5		 xor	 eax, ebp
  0001c	50		 push	 eax
  0001d	8d 45 f4	 lea	 eax, DWORD PTR __$EHRec$[ebp]
  00020	64 a3 00 00 00
	00		 mov	 DWORD PTR fs:0, eax
  00026	8b d9		 mov	 ebx, ecx

; 1045 : 	ML_SET_DEFAULT_RES();

  00028	e8 00 00 00 00	 call	 ?AfxGetStaticModuleState@@YGPAVAFX_MODULE_STATE@@XZ ; AfxGetStaticModuleState
  0002d	8b 78 08	 mov	 edi, DWORD PTR [eax+8]
; File C:\Program Files (x86)\Microsoft Visual Studio\2019\Community\VC\Tools\MSVC\14.29.30133\atlmfc\include\afxwin1.inl

; 25   : 		return afxCurrentResourceHandle; }

  00030	e8 00 00 00 00	 call	 ?AfxGetModuleState@@YGPAVAFX_MODULE_STATE@@XZ ; AfxGetModuleState
; File D:\git\src\IBK\IBK_DRFN\ProjSrc\SrcChartEx\ChartAddIn\ChartAnalysisToolAddIn\Include_Chart\Dll_Load\IMetaTable.h

; 1034 : 		m_hInstance = AfxGetResourceHandle();

  00035	8b 70 0c	 mov	 esi, DWORD PTR [eax+12]
  00038	89 75 f0	 mov	 DWORD PTR ___mlrs__$[ebp], esi
; File C:\Program Files (x86)\Microsoft Visual Studio\2019\Community\VC\Tools\MSVC\14.29.30133\atlmfc\include\afxwin1.inl

; 27   : 	{ ASSERT(hInstResource != NULL); afxCurrentResourceHandle = hInstResource; }

  0003b	e8 00 00 00 00	 call	 ?AfxGetModuleState@@YGPAVAFX_MODULE_STATE@@XZ ; AfxGetModuleState
  00040	89 78 0c	 mov	 DWORD PTR [eax+12], edi
; File D:\git\src\IBK\IBK_DRFN\ProjSrc\SrcChartEx\ChartAddIn\ChartAnalysisToolAddIn\AnalysisTool\DlgFiboSet.cpp

; 1047 : 	m_ctlWidth.LoadBitmap(IDB_LINEWIDTH, 5);

  00043	6a 05		 push	 5
  00045	68 3c 23 00 00	 push	 9020			; 0000233cH
  0004a	8d 8b b8 01 00
	00		 lea	 ecx, DWORD PTR [ebx+440]
  00050	c7 45 fc 00 00
	00 00		 mov	 DWORD PTR __$EHRec$[ebp+8], 0
  00057	e8 00 00 00 00	 call	 ?LoadBitmapA@CBitmapComboBox@@QAEXHI@Z ; CBitmapComboBox::LoadBitmapA

; 1048 : 	if(m_basePenEnvironment.GetWidth() <= 0)

  0005c	8d 8b a8 0c 00
	00		 lea	 ecx, DWORD PTR [ebx+3240]
  00062	e8 00 00 00 00	 call	 ?GetWidth@CPenEnvironment@@QBEHXZ ; CPenEnvironment::GetWidth
  00067	85 c0		 test	 eax, eax
  00069	7f 04		 jg	 SHORT $LN2@Initialize

; 1049 : 		m_nWidth = 0;

  0006b	33 c0		 xor	 eax, eax
  0006d	eb 23		 jmp	 SHORT $LN5@Initialize
$LN2@Initialize:

; 1050 : 	else if(m_basePenEnvironment.GetWidth() >= 6)

  0006f	8d 8b a8 0c 00
	00		 lea	 ecx, DWORD PTR [ebx+3240]
  00075	e8 00 00 00 00	 call	 ?GetWidth@CPenEnvironment@@QBEHXZ ; CPenEnvironment::GetWidth
  0007a	83 f8 06	 cmp	 eax, 6
  0007d	7c 07		 jl	 SHORT $LN4@Initialize

; 1051 : 		m_nWidth = 4;

  0007f	b8 04 00 00 00	 mov	 eax, 4
  00084	eb 0c		 jmp	 SHORT $LN5@Initialize
$LN4@Initialize:

; 1052 : 	else
; 1053 : 		m_nWidth = m_basePenEnvironment.GetWidth() -1;

  00086	8d 8b a8 0c 00
	00		 lea	 ecx, DWORD PTR [ebx+3240]
  0008c	e8 00 00 00 00	 call	 ?GetWidth@CPenEnvironment@@QBEHXZ ; CPenEnvironment::GetWidth
  00091	48		 dec	 eax
$LN5@Initialize:
; File D:\git\src\IBK\IBK_DRFN\ProjSrc\SrcChartEx\ChartAddIn\ChartAnalysisToolAddIn\Include_Chart\Dll_Load\IMetaTable.h

; 1038 : 	{

  00092	c7 45 fc 01 00
	00 00		 mov	 DWORD PTR __$EHRec$[ebp+8], 1
  00099	89 83 d0 0b 00
	00		 mov	 DWORD PTR [ebx+3024], eax
; File C:\Program Files (x86)\Microsoft Visual Studio\2019\Community\VC\Tools\MSVC\14.29.30133\atlmfc\include\afxwin1.inl

; 27   : 	{ ASSERT(hInstResource != NULL); afxCurrentResourceHandle = hInstResource; }

  0009f	e8 00 00 00 00	 call	 ?AfxGetModuleState@@YGPAVAFX_MODULE_STATE@@XZ ; AfxGetModuleState
  000a4	89 70 0c	 mov	 DWORD PTR [eax+12], esi
; File D:\git\src\IBK\IBK_DRFN\ProjSrc\SrcChartEx\ChartAddIn\ChartAnalysisToolAddIn\AnalysisTool\DlgFiboSet.cpp

; 1054 : }

  000a7	8b 4d f4	 mov	 ecx, DWORD PTR __$EHRec$[ebp]
  000aa	64 89 0d 00 00
	00 00		 mov	 DWORD PTR fs:0, ecx
  000b1	59		 pop	 ecx
  000b2	5f		 pop	 edi
  000b3	5e		 pop	 esi
  000b4	5b		 pop	 ebx
  000b5	8b e5		 mov	 esp, ebp
  000b7	5d		 pop	 ebp
  000b8	c3		 ret	 0
_TEXT	ENDS
;	COMDAT text$x
text$x	SEGMENT
__unwindfunclet$?InitializeData_Width@CDlgFiboSet@@AAEXXZ$0:
  00000	8d 4d f0	 lea	 ecx, DWORD PTR ___mlrs__$[ebp]
  00003	e9 00 00 00 00	 jmp	 ??1CMultiLanguageResourceSetter@@QAE@XZ ; CMultiLanguageResourceSetter::~CMultiLanguageResourceSetter
  00008	cc		 int	 3
  00009	cc		 int	 3
  0000a	cc		 int	 3
  0000b	cc		 int	 3
  0000c	cc		 int	 3
__ehhandler$?InitializeData_Width@CDlgFiboSet@@AAEXXZ:
  0000d	90		 npad	 1
  0000e	90		 npad	 1
  0000f	8b 54 24 08	 mov	 edx, DWORD PTR [esp+8]
  00013	8d 42 0c	 lea	 eax, DWORD PTR [edx+12]
  00016	8b 4a ec	 mov	 ecx, DWORD PTR [edx-20]
  00019	33 c8		 xor	 ecx, eax
  0001b	e8 00 00 00 00	 call	 @__security_check_cookie@4
  00020	b8 00 00 00 00	 mov	 eax, OFFSET __ehfuncinfo$?InitializeData_Width@CDlgFiboSet@@AAEXXZ
  00025	e9 00 00 00 00	 jmp	 ___CxxFrameHandler3
text$x	ENDS
?InitializeData_Width@CDlgFiboSet@@AAEXXZ ENDP		; CDlgFiboSet::InitializeData_Width
; Function compile flags: /Ogtp
; File D:\git\src\IBK\IBK_DRFN\ProjSrc\SrcChartEx\ChartAddIn\ChartAnalysisToolAddIn\AnalysisTool\DlgFiboSet.cpp
;	COMDAT ?GetCurrentPenEnvironment@CDlgFiboSet@@IBEPAVCPenEnvironment@@XZ
_TEXT	SEGMENT
?GetCurrentPenEnvironment@CDlgFiboSet@@IBEPAVCPenEnvironment@@XZ PROC ; CDlgFiboSet::GetCurrentPenEnvironment, COMDAT
; _this$ = ecx

; 1214 : 	return m_pPenEnvironment;

  00000	8b 81 a4 0c 00
	00		 mov	 eax, DWORD PTR [ecx+3236]

; 1215 : }

  00006	c3		 ret	 0
?GetCurrentPenEnvironment@CDlgFiboSet@@IBEPAVCPenEnvironment@@XZ ENDP ; CDlgFiboSet::GetCurrentPenEnvironment
_TEXT	ENDS
; Function compile flags: /Ogtp
; File D:\git\src\IBK\IBK_DRFN\ProjSrc\SrcChartEx\ChartAddIn\ChartAnalysisToolAddIn\AnalysisTool\DlgFiboSet.cpp
; File C:\Program Files (x86)\Microsoft Visual Studio\2019\Community\VC\Tools\MSVC\14.29.30133\atlmfc\include\atlsimpstr.h
; File D:\git\src\IBK\IBK_DRFN\ProjSrc\SrcChartEx\ChartAddIn\ChartAnalysisToolAddIn\AnalysisTool\DlgFiboSet.cpp
; File C:\Program Files (x86)\Microsoft Visual Studio\2019\Community\VC\Tools\MSVC\14.29.30133\atlmfc\include\atlsimpstr.h
; File D:\git\src\IBK\IBK_DRFN\ProjSrc\SrcChartEx\ChartAddIn\ChartAnalysisToolAddIn\AnalysisTool\DlgFiboSet.cpp
; File C:\Program Files (x86)\Microsoft Visual Studio\2019\Community\VC\Tools\MSVC\14.29.30133\atlmfc\include\cstringt.h
; File D:\git\src\IBK\IBK_DRFN\ProjSrc\SrcChartEx\ChartAddIn\ChartAnalysisToolAddIn\AnalysisTool\DlgFiboSet.cpp
; File C:\Program Files (x86)\Microsoft Visual Studio\2019\Community\VC\Tools\MSVC\14.29.30133\atlmfc\include\cstringt.h
; File C:\Program Files (x86)\Microsoft Visual Studio\2019\Community\VC\Tools\MSVC\14.29.30133\atlmfc\include\atlsimpstr.h
; File C:\Program Files (x86)\Microsoft Visual Studio\2019\Community\VC\Tools\MSVC\14.29.30133\atlmfc\include\cstringt.h
; File D:\git\src\IBK\IBK_DRFN\ProjSrc\SrcChartEx\ChartAddIn\ChartAnalysisToolAddIn\AnalysisTool\DlgFiboSet.cpp
; File C:\Program Files (x86)\Microsoft Visual Studio\2019\Community\VC\Tools\MSVC\14.29.30133\atlmfc\include\atltime.h
; File D:\git\src\IBK\IBK_DRFN\ProjSrc\SrcChartEx\ChartAddIn\ChartAnalysisToolAddIn\AnalysisTool\DlgFiboSet.cpp
; File C:\Program Files (x86)\Microsoft Visual Studio\2019\Community\VC\Tools\MSVC\14.29.30133\atlmfc\include\atltime.h
; File D:\git\src\IBK\IBK_DRFN\ProjSrc\SrcChartEx\ChartAddIn\ChartAnalysisToolAddIn\AnalysisTool\DlgFiboSet.cpp
; File C:\Program Files (x86)\Microsoft Visual Studio\2019\Community\VC\Tools\MSVC\14.29.30133\atlmfc\include\atltime.h
; File D:\git\src\IBK\IBK_DRFN\ProjSrc\SrcChartEx\ChartAddIn\ChartAnalysisToolAddIn\AnalysisTool\DlgFiboSet.cpp
;	COMDAT ?SetXDateTime@CDlgFiboSet@@IAEXNH@Z
_TEXT	SEGMENT
_nYear$1$ = -84						; size = 4
$T2 = -84						; size = 4
$T3 = -84						; size = 4
_stime$4 = -80						; size = 8
_this$GSCopy$1$ = -76					; size = 4
$T5 = -76						; size = 4
$T6 = -76						; size = 4
_strFormat$7 = -72					; size = 4
$T8 = -68						; size = 4
$T9 = -68						; size = 4
$T10 = -68						; size = 4
$T11 = -68						; size = 4
$T12 = -68						; size = 4
_nMonth$1$ = -64					; size = 4
$T13 = -64						; size = 4
$T14 = -64						; size = 4
$T15 = -64						; size = 4
$T16 = -64						; size = 4
$T17 = -64						; size = 4
$T18 = -60						; size = 4
$T19 = -60						; size = 4
$T20 = -60						; size = 4
$T21 = -60						; size = 4
$T22 = -60						; size = 4
_strXValue$ = -56					; size = 4
_atm$23 = -52						; size = 36
__$ArrayPad$ = -16					; size = 4
__$EHRec$ = -12						; size = 12
_dXDateTime$ = 8					; size = 8
_nIndex$ = 16						; size = 4
?SetXDateTime@CDlgFiboSet@@IAEXNH@Z PROC		; CDlgFiboSet::SetXDateTime, COMDAT
; _this$ = ecx

; 1218 : {

  00000	55		 push	 ebp
  00001	8b ec		 mov	 ebp, esp
  00003	6a ff		 push	 -1
  00005	68 00 00 00 00	 push	 __ehhandler$?SetXDateTime@CDlgFiboSet@@IAEXNH@Z
  0000a	64 a1 00 00 00
	00		 mov	 eax, DWORD PTR fs:0
  00010	50		 push	 eax
  00011	83 ec 48	 sub	 esp, 72			; 00000048H
  00014	a1 00 00 00 00	 mov	 eax, DWORD PTR ___security_cookie
  00019	33 c5		 xor	 eax, ebp
  0001b	89 45 f0	 mov	 DWORD PTR __$ArrayPad$[ebp], eax
  0001e	53		 push	 ebx
  0001f	56		 push	 esi
  00020	57		 push	 edi
  00021	50		 push	 eax
  00022	8d 45 f4	 lea	 eax, DWORD PTR __$EHRec$[ebp]
  00025	64 a3 00 00 00
	00		 mov	 DWORD PTR fs:0, eax
  0002b	8b d9		 mov	 ebx, ecx
  0002d	89 5d b4	 mov	 DWORD PTR _this$GSCopy$1$[ebp], ebx

; 1219 : 	CString strXValue;

  00030	8d 4d c8	 lea	 ecx, DWORD PTR _strXValue$[ebp]
  00033	c7 45 c0 00 00
	00 00		 mov	 DWORD PTR $T13[ebp], 0
  0003a	ff 15 00 00 00
	00		 call	 DWORD PTR __imp_??0?$CStringT@DV?$StrTraitMFC_DLL@DV?$ChTraitsCRT@D@ATL@@@@@ATL@@QAE@XZ

; 1220 : 	strXValue.Format(_T("%.f"),dXDateTime);	

  00040	f2 0f 10 45 08	 movsd	 xmm0, QWORD PTR _dXDateTime$[ebp]
  00045	8d 45 c8	 lea	 eax, DWORD PTR _strXValue$[ebp]
  00048	83 ec 08	 sub	 esp, 8
  0004b	c7 45 fc 00 00
	00 00		 mov	 DWORD PTR __$EHRec$[ebp+8], 0
  00052	f2 0f 11 04 24	 movsd	 QWORD PTR [esp], xmm0
  00057	68 00 00 00 00	 push	 OFFSET ??_C@_03EICDNICE@?$CF?4f@
  0005c	50		 push	 eax
  0005d	ff 15 00 00 00
	00		 call	 DWORD PTR __imp_?Format@?$CStringT@DV?$StrTraitMFC_DLL@DV?$ChTraitsCRT@D@ATL@@@@@ATL@@QAAXPBDZZ
; File C:\Program Files (x86)\Microsoft Visual Studio\2019\Community\VC\Tools\MSVC\14.29.30133\atlmfc\include\atlsimpstr.h

; 519  : 		return( GetData()->nDataLength );

  00063	8b 45 c8	 mov	 eax, DWORD PTR _strXValue$[ebp]
; File D:\git\src\IBK\IBK_DRFN\ProjSrc\SrcChartEx\ChartAddIn\ChartAnalysisToolAddIn\AnalysisTool\DlgFiboSet.cpp

; 1220 : 	strXValue.Format(_T("%.f"),dXDateTime);	

  00066	83 c4 10	 add	 esp, 16			; 00000010H
; File C:\Program Files (x86)\Microsoft Visual Studio\2019\Community\VC\Tools\MSVC\14.29.30133\atlmfc\include\atlsimpstr.h

; 533  : 		return( GetLength() == 0 );

  00069	83 78 f4 00	 cmp	 DWORD PTR [eax-12], 0
; File D:\git\src\IBK\IBK_DRFN\ProjSrc\SrcChartEx\ChartAddIn\ChartAnalysisToolAddIn\AnalysisTool\DlgFiboSet.cpp

; 1221 : 	if(strXValue.IsEmpty() == FALSE && dXDateTime > 0.0f)

  0006d	0f 84 c5 04 00
	00		 je	 $LN11@SetXDateTi
  00073	f2 0f 10 45 08	 movsd	 xmm0, QWORD PTR _dXDateTime$[ebp]
  00078	66 0f 2f 05 00
	00 00 00	 comisd	 xmm0, QWORD PTR __real@0000000000000000
  00080	0f 86 b2 04 00
	00		 jbe	 $LN11@SetXDateTi

; 1222 : 	{	
; 1223 : 		if( m_nDataPeriod == CScaleBaseData::HORZ_DAILY		||
; 1224 : 			m_nDataPeriod == CScaleBaseData::HORZ_WEEKLEY	||

  00086	8b 83 f0 0b 00
	00		 mov	 eax, DWORD PTR [ebx+3056]
  0008c	83 f8 01	 cmp	 eax, 1
  0008f	0f 84 7f 03 00
	00		 je	 $LN5@SetXDateTi
  00095	83 f8 02	 cmp	 eax, 2
  00098	0f 84 76 03 00
	00		 je	 $LN5@SetXDateTi
  0009e	83 f8 03	 cmp	 eax, 3
  000a1	0f 84 6d 03 00
	00		 je	 $LN5@SetXDateTi

; 1245 : 		}
; 1246 : 		else
; 1247 : 		{	
; 1248 : 			if(nIndex == 0)

  000a7	83 7d 10 00	 cmp	 DWORD PTR _nIndex$[ebp], 0
  000ab	75 27		 jne	 SHORT $LN12@SetXDateTi

; 1249 : 			{
; 1250 : 				m_ctrlXDateTime1.ShowWindow(SW_HIDE);

  000ad	6a 00		 push	 0
  000af	8d 8b 50 0a 00
	00		 lea	 ecx, DWORD PTR [ebx+2640]
  000b5	e8 00 00 00 00	 call	 ?ShowWindow@CWnd@@QAEHH@Z ; CWnd::ShowWindow

; 1251 : 				m_ctrlXDateTime2.ShowWindow(SW_HIDE);

  000ba	6a 00		 push	 0
  000bc	8d 8b d0 0a 00
	00		 lea	 ecx, DWORD PTR [ebx+2768]
  000c2	e8 00 00 00 00	 call	 ?ShowWindow@CWnd@@QAEHH@Z ; CWnd::ShowWindow

; 1252 : 				m_ctrlXDateTime3.ShowWindow(SW_HIDE);

  000c7	6a 00		 push	 0
  000c9	8d 8b 50 0b 00
	00		 lea	 ecx, DWORD PTR [ebx+2896]
  000cf	e8 00 00 00 00	 call	 ?ShowWindow@CWnd@@QAEHH@Z ; CWnd::ShowWindow
$LN12@SetXDateTi:

; 1253 : 			}
; 1254 : 
; 1255 : 			CString strFormat;		

  000d4	8d 4d b8	 lea	 ecx, DWORD PTR _strFormat$7[ebp]
  000d7	ff 15 00 00 00
	00		 call	 DWORD PTR __imp_??0?$CStringT@DV?$StrTraitMFC_DLL@DV?$ChTraitsCRT@D@ATL@@@@@ATL@@QAE@XZ

; 1256 : 			if(m_nDataPeriod == CScaleBaseData::HORZ_TICK)

  000dd	83 bb f0 0b 00
	00 05		 cmp	 DWORD PTR [ebx+3056], 5
  000e4	8b 45 c8	 mov	 eax, DWORD PTR _strXValue$[ebp]
  000e7	c6 45 fc 01	 mov	 BYTE PTR __$EHRec$[ebp+8], 1
  000eb	0f 85 ff 00 00
	00		 jne	 $LN13@SetXDateTi

; 1257 : 			{
; 1258 : 				// 2011.01.17 by SYS >>  YYYY()  : / 14Byte  (YYYYMMDDhhmmss)
; 1259 : 				// DDHHMM  
; 1260 : 				if (strXValue.GetLength()==14)

  000f1	83 78 f4 0e	 cmp	 DWORD PTR [eax-12], 14	; 0000000eH
  000f5	8d 4d c8	 lea	 ecx, DWORD PTR _strXValue$[ebp]
  000f8	6a 02		 push	 2
  000fa	75 7b		 jne	 SHORT $LN15@SetXDateTi

; 1261 : 					strFormat.Format(_T("%s/%s:%s"),strXValue.Mid(6,2),strXValue.Mid(8,2),strXValue.Mid(10,2));

  000fc	6a 0a		 push	 10			; 0000000aH
  000fe	8d 45 c0	 lea	 eax, DWORD PTR $T17[ebp]
  00101	50		 push	 eax
  00102	ff 15 00 00 00
	00		 call	 DWORD PTR __imp_?Mid@?$CStringT@DV?$StrTraitMFC_DLL@DV?$ChTraitsCRT@D@ATL@@@@@ATL@@QBE?AV12@HH@Z
  00108	8b f8		 mov	 edi, eax
  0010a	6a 02		 push	 2
  0010c	6a 08		 push	 8
  0010e	8d 45 c4	 lea	 eax, DWORD PTR $T22[ebp]
  00111	c6 45 fc 02	 mov	 BYTE PTR __$EHRec$[ebp+8], 2
  00115	50		 push	 eax
  00116	8d 4d c8	 lea	 ecx, DWORD PTR _strXValue$[ebp]
  00119	ff 15 00 00 00
	00		 call	 DWORD PTR __imp_?Mid@?$CStringT@DV?$StrTraitMFC_DLL@DV?$ChTraitsCRT@D@ATL@@@@@ATL@@QBE?AV12@HH@Z
  0011f	8b f0		 mov	 esi, eax
  00121	6a 02		 push	 2
  00123	6a 06		 push	 6
  00125	8d 45 b4	 lea	 eax, DWORD PTR $T6[ebp]
  00128	c6 45 fc 03	 mov	 BYTE PTR __$EHRec$[ebp+8], 3
  0012c	50		 push	 eax
  0012d	8d 4d c8	 lea	 ecx, DWORD PTR _strXValue$[ebp]
  00130	ff 15 00 00 00
	00		 call	 DWORD PTR __imp_?Mid@?$CStringT@DV?$StrTraitMFC_DLL@DV?$ChTraitsCRT@D@ATL@@@@@ATL@@QBE?AV12@HH@Z
  00136	ff 37		 push	 DWORD PTR [edi]
  00138	c6 45 fc 04	 mov	 BYTE PTR __$EHRec$[ebp+8], 4
  0013c	ff 36		 push	 DWORD PTR [esi]
  0013e	ff 30		 push	 DWORD PTR [eax]
  00140	8d 45 b8	 lea	 eax, DWORD PTR _strFormat$7[ebp]
  00143	68 00 00 00 00	 push	 OFFSET ??_C@_08IGKLELNK@?$CFs?1?$CFs?3?$CFs@
  00148	50		 push	 eax
  00149	a1 00 00 00 00	 mov	 eax, DWORD PTR __imp_?Format@?$CStringT@DV?$StrTraitMFC_DLL@DV?$ChTraitsCRT@D@ATL@@@@@ATL@@QAAXPBDZZ
  0014e	ff d0		 call	 eax
  00150	83 c4 14	 add	 esp, 20			; 00000014H
  00153	8d 4d b4	 lea	 ecx, DWORD PTR $T6[ebp]
  00156	ff 15 00 00 00
	00		 call	 DWORD PTR __imp_??1?$CStringT@DV?$StrTraitMFC_DLL@DV?$ChTraitsCRT@D@ATL@@@@@ATL@@QAE@XZ
  0015c	8d 4d c4	 lea	 ecx, DWORD PTR $T22[ebp]
  0015f	ff 15 00 00 00
	00		 call	 DWORD PTR __imp_??1?$CStringT@DV?$StrTraitMFC_DLL@DV?$ChTraitsCRT@D@ATL@@@@@ATL@@QAE@XZ
  00165	8d 4d c0	 lea	 ecx, DWORD PTR $T17[ebp]
  00168	c6 45 fc 01	 mov	 BYTE PTR __$EHRec$[ebp+8], 1
  0016c	ff 15 00 00 00
	00		 call	 DWORD PTR __imp_??1?$CStringT@DV?$StrTraitMFC_DLL@DV?$ChTraitsCRT@D@ATL@@@@@ATL@@QAE@XZ
  00172	e9 10 02 00 00	 jmp	 $LN19@SetXDateTi
$LN15@SetXDateTi:

; 1262 : 				else								
; 1263 : 					strFormat.Format(_T("%s/%s:%s"),strXValue.Left(2),strXValue.Mid(2,2),strXValue.Mid(4,2));

  00177	6a 04		 push	 4
  00179	8d 45 c4	 lea	 eax, DWORD PTR $T21[ebp]
  0017c	50		 push	 eax
  0017d	ff 15 00 00 00
	00		 call	 DWORD PTR __imp_?Mid@?$CStringT@DV?$StrTraitMFC_DLL@DV?$ChTraitsCRT@D@ATL@@@@@ATL@@QBE?AV12@HH@Z
  00183	8b f8		 mov	 edi, eax
  00185	6a 02		 push	 2
  00187	6a 02		 push	 2
  00189	8d 45 b4	 lea	 eax, DWORD PTR $T5[ebp]
  0018c	c6 45 fc 05	 mov	 BYTE PTR __$EHRec$[ebp+8], 5
  00190	50		 push	 eax
  00191	8d 4d c8	 lea	 ecx, DWORD PTR _strXValue$[ebp]
  00194	ff 15 00 00 00
	00		 call	 DWORD PTR __imp_?Mid@?$CStringT@DV?$StrTraitMFC_DLL@DV?$ChTraitsCRT@D@ATL@@@@@ATL@@QBE?AV12@HH@Z
  0019a	8b f0		 mov	 esi, eax
  0019c	6a 02		 push	 2
  0019e	8d 45 c0	 lea	 eax, DWORD PTR $T16[ebp]
  001a1	c6 45 fc 06	 mov	 BYTE PTR __$EHRec$[ebp+8], 6
  001a5	50		 push	 eax
  001a6	8d 4d c8	 lea	 ecx, DWORD PTR _strXValue$[ebp]
  001a9	ff 15 00 00 00
	00		 call	 DWORD PTR __imp_?Left@?$CStringT@DV?$StrTraitMFC_DLL@DV?$ChTraitsCRT@D@ATL@@@@@ATL@@QBE?AV12@H@Z
  001af	ff 37		 push	 DWORD PTR [edi]
  001b1	c6 45 fc 07	 mov	 BYTE PTR __$EHRec$[ebp+8], 7
  001b5	ff 36		 push	 DWORD PTR [esi]
  001b7	ff 30		 push	 DWORD PTR [eax]
  001b9	8d 45 b8	 lea	 eax, DWORD PTR _strFormat$7[ebp]
  001bc	68 00 00 00 00	 push	 OFFSET ??_C@_08IGKLELNK@?$CFs?1?$CFs?3?$CFs@
  001c1	50		 push	 eax
  001c2	a1 00 00 00 00	 mov	 eax, DWORD PTR __imp_?Format@?$CStringT@DV?$StrTraitMFC_DLL@DV?$ChTraitsCRT@D@ATL@@@@@ATL@@QAAXPBDZZ
  001c7	ff d0		 call	 eax
  001c9	83 c4 14	 add	 esp, 20			; 00000014H
  001cc	8d 4d c0	 lea	 ecx, DWORD PTR $T16[ebp]
  001cf	ff 15 00 00 00
	00		 call	 DWORD PTR __imp_??1?$CStringT@DV?$StrTraitMFC_DLL@DV?$ChTraitsCRT@D@ATL@@@@@ATL@@QAE@XZ
  001d5	8d 4d b4	 lea	 ecx, DWORD PTR $T5[ebp]
  001d8	ff 15 00 00 00
	00		 call	 DWORD PTR __imp_??1?$CStringT@DV?$StrTraitMFC_DLL@DV?$ChTraitsCRT@D@ATL@@@@@ATL@@QAE@XZ
  001de	8d 4d c4	 lea	 ecx, DWORD PTR $T21[ebp]
  001e1	c6 45 fc 01	 mov	 BYTE PTR __$EHRec$[ebp+8], 1
  001e5	ff 15 00 00 00
	00		 call	 DWORD PTR __imp_??1?$CStringT@DV?$StrTraitMFC_DLL@DV?$ChTraitsCRT@D@ATL@@@@@ATL@@QAE@XZ

; 1264 : 				// 2011.01.17 by SYS <<
; 1265 : 			}

  001eb	e9 97 01 00 00	 jmp	 $LN19@SetXDateTi
$LN13@SetXDateTi:

; 1266 : 			else
; 1267 : 			{
; 1268 : 				if(strXValue.GetLength() < 8)

  001f0	83 78 f4 08	 cmp	 DWORD PTR [eax-12], 8
  001f4	7d 56		 jge	 SHORT $LN17@SetXDateTi
; File C:\Program Files (x86)\Microsoft Visual Studio\2019\Community\VC\Tools\MSVC\14.29.30133\atlmfc\include\cstringt.h

; 2412 : 		CStringT strResult( str2.GetManager() );

  001f6	8d 4d c8	 lea	 ecx, DWORD PTR _strXValue$[ebp]
; File D:\git\src\IBK\IBK_DRFN\ProjSrc\SrcChartEx\ChartAddIn\ChartAnalysisToolAddIn\AnalysisTool\DlgFiboSet.cpp

; 1269 : 					strXValue = "0" + strXValue;

  001f9	c6 45 fc 08	 mov	 BYTE PTR __$EHRec$[ebp+8], 8
; File C:\Program Files (x86)\Microsoft Visual Studio\2019\Community\VC\Tools\MSVC\14.29.30133\atlmfc\include\cstringt.h

; 2412 : 		CStringT strResult( str2.GetManager() );

  001fd	ff 15 00 00 00
	00		 call	 DWORD PTR __imp_?GetManager@?$CStringT@DV?$StrTraitMFC_DLL@DV?$ChTraitsCRT@D@ATL@@@@@ATL@@QBEPAUIAtlStringMgr@2@XZ
  00203	50		 push	 eax
  00204	8d 4d c4	 lea	 ecx, DWORD PTR $T20[ebp]
  00207	ff 15 00 00 00
	00		 call	 DWORD PTR __imp_??0?$CStringT@DV?$StrTraitMFC_DLL@DV?$ChTraitsCRT@D@ATL@@@@@ATL@@QAE@PAUIAtlStringMgr@1@@Z
; File C:\Program Files (x86)\Microsoft Visual Studio\2019\Community\VC\Tools\MSVC\14.29.30133\atlmfc\include\atlsimpstr.h

; 519  : 		return( GetData()->nDataLength );

  0020d	8b 45 c8	 mov	 eax, DWORD PTR _strXValue$[ebp]
; File C:\Program Files (x86)\Microsoft Visual Studio\2019\Community\VC\Tools\MSVC\14.29.30133\atlmfc\include\cstringt.h

; 2416 : 		return( strResult );

  00210	c7 45 c0 01 00
	00 00		 mov	 DWORD PTR $T13[ebp], 1
  00217	ff 70 f4	 push	 DWORD PTR [eax-12]
  0021a	50		 push	 eax
  0021b	6a 01		 push	 1
  0021d	8d 45 c4	 lea	 eax, DWORD PTR $T20[ebp]
  00220	68 00 00 00 00	 push	 OFFSET ??_C@_01GBGANLPD@0@
  00225	50		 push	 eax
  00226	ff 15 00 00 00
	00		 call	 DWORD PTR __imp_?Concatenate@?$CSimpleStringT@D$00@ATL@@KAXAAV12@PBDH1H@Z
  0022c	83 c4 14	 add	 esp, 20			; 00000014H
; File D:\git\src\IBK\IBK_DRFN\ProjSrc\SrcChartEx\ChartAddIn\ChartAnalysisToolAddIn\AnalysisTool\DlgFiboSet.cpp

; 1269 : 					strXValue = "0" + strXValue;

  0022f	8d 45 c4	 lea	 eax, DWORD PTR $T20[ebp]
  00232	8d 4d c8	 lea	 ecx, DWORD PTR _strXValue$[ebp]
  00235	50		 push	 eax
  00236	ff 15 00 00 00
	00		 call	 DWORD PTR __imp_??4?$CStringT@DV?$StrTraitMFC_DLL@DV?$ChTraitsCRT@D@ATL@@@@@ATL@@QAEAAV01@ABV01@@Z
  0023c	8d 4d c4	 lea	 ecx, DWORD PTR $T20[ebp]
  0023f	c6 45 fc 01	 mov	 BYTE PTR __$EHRec$[ebp+8], 1
  00243	ff 15 00 00 00
	00		 call	 DWORD PTR __imp_??1?$CStringT@DV?$StrTraitMFC_DLL@DV?$ChTraitsCRT@D@ATL@@@@@ATL@@QAE@XZ
  00249	8b 45 c8	 mov	 eax, DWORD PTR _strXValue$[ebp]
$LN17@SetXDateTi:

; 1270 : 				
; 1271 : 				// 2011.01.06 by SYS >>  YYYY() 
; 1272 : 				// MMDDHHMM  
; 1273 : 				if(strXValue.GetLength() == 14)

  0024c	83 78 f4 0e	 cmp	 DWORD PTR [eax-12], 14	; 0000000eH
  00250	8d 4d c8	 lea	 ecx, DWORD PTR _strXValue$[ebp]
  00253	6a 02		 push	 2
  00255	0f 85 93 00 00
	00		 jne	 $LN18@SetXDateTi

; 1274 : 					strFormat.Format(_T("%s/%s-%s:%s"),strXValue.Mid(4,2),strXValue.Mid(6,2), strXValue.Mid(8,2),strXValue.Mid(10,2));

  0025b	6a 0a		 push	 10			; 0000000aH
  0025d	8d 45 bc	 lea	 eax, DWORD PTR $T9[ebp]
  00260	50		 push	 eax
  00261	ff 15 00 00 00
	00		 call	 DWORD PTR __imp_?Mid@?$CStringT@DV?$StrTraitMFC_DLL@DV?$ChTraitsCRT@D@ATL@@@@@ATL@@QBE?AV12@HH@Z
  00267	8b d8		 mov	 ebx, eax
  00269	6a 02		 push	 2
  0026b	6a 08		 push	 8
  0026d	8d 45 ac	 lea	 eax, DWORD PTR $T3[ebp]
  00270	c6 45 fc 09	 mov	 BYTE PTR __$EHRec$[ebp+8], 9
  00274	50		 push	 eax
  00275	8d 4d c8	 lea	 ecx, DWORD PTR _strXValue$[ebp]
  00278	ff 15 00 00 00
	00		 call	 DWORD PTR __imp_?Mid@?$CStringT@DV?$StrTraitMFC_DLL@DV?$ChTraitsCRT@D@ATL@@@@@ATL@@QBE?AV12@HH@Z
  0027e	8b f8		 mov	 edi, eax
  00280	6a 02		 push	 2
  00282	6a 06		 push	 6
  00284	8d 45 c4	 lea	 eax, DWORD PTR $T19[ebp]
  00287	c6 45 fc 0a	 mov	 BYTE PTR __$EHRec$[ebp+8], 10 ; 0000000aH
  0028b	50		 push	 eax
  0028c	8d 4d c8	 lea	 ecx, DWORD PTR _strXValue$[ebp]
  0028f	ff 15 00 00 00
	00		 call	 DWORD PTR __imp_?Mid@?$CStringT@DV?$StrTraitMFC_DLL@DV?$ChTraitsCRT@D@ATL@@@@@ATL@@QBE?AV12@HH@Z
  00295	8b f0		 mov	 esi, eax
  00297	6a 02		 push	 2
  00299	6a 04		 push	 4
  0029b	8d 45 c0	 lea	 eax, DWORD PTR $T15[ebp]
  0029e	c6 45 fc 0b	 mov	 BYTE PTR __$EHRec$[ebp+8], 11 ; 0000000bH
  002a2	50		 push	 eax
  002a3	8d 4d c8	 lea	 ecx, DWORD PTR _strXValue$[ebp]
  002a6	ff 15 00 00 00
	00		 call	 DWORD PTR __imp_?Mid@?$CStringT@DV?$StrTraitMFC_DLL@DV?$ChTraitsCRT@D@ATL@@@@@ATL@@QBE?AV12@HH@Z
  002ac	ff 33		 push	 DWORD PTR [ebx]
  002ae	c6 45 fc 0c	 mov	 BYTE PTR __$EHRec$[ebp+8], 12 ; 0000000cH
  002b2	ff 37		 push	 DWORD PTR [edi]
  002b4	ff 36		 push	 DWORD PTR [esi]
  002b6	ff 30		 push	 DWORD PTR [eax]
  002b8	8d 45 b8	 lea	 eax, DWORD PTR _strFormat$7[ebp]
  002bb	68 00 00 00 00	 push	 OFFSET ??_C@_0M@NFOMEIHF@?$CFs?1?$CFs?9?$CFs?3?$CFs@
  002c0	50		 push	 eax
  002c1	a1 00 00 00 00	 mov	 eax, DWORD PTR __imp_?Format@?$CStringT@DV?$StrTraitMFC_DLL@DV?$ChTraitsCRT@D@ATL@@@@@ATL@@QAAXPBDZZ
  002c6	ff d0		 call	 eax
  002c8	83 c4 18	 add	 esp, 24			; 00000018H
  002cb	8d 4d c0	 lea	 ecx, DWORD PTR $T15[ebp]
  002ce	ff 15 00 00 00
	00		 call	 DWORD PTR __imp_??1?$CStringT@DV?$StrTraitMFC_DLL@DV?$ChTraitsCRT@D@ATL@@@@@ATL@@QAE@XZ
  002d4	8d 4d c4	 lea	 ecx, DWORD PTR $T19[ebp]
  002d7	ff 15 00 00 00
	00		 call	 DWORD PTR __imp_??1?$CStringT@DV?$StrTraitMFC_DLL@DV?$ChTraitsCRT@D@ATL@@@@@ATL@@QAE@XZ
  002dd	8d 4d ac	 lea	 ecx, DWORD PTR $T3[ebp]
  002e0	ff 15 00 00 00
	00		 call	 DWORD PTR __imp_??1?$CStringT@DV?$StrTraitMFC_DLL@DV?$ChTraitsCRT@D@ATL@@@@@ATL@@QAE@XZ
  002e6	8d 4d bc	 lea	 ecx, DWORD PTR $T9[ebp]
  002e9	e9 8c 00 00 00	 jmp	 $LN152@SetXDateTi
$LN18@SetXDateTi:

; 1275 : 				else
; 1276 : 					strFormat.Format(_T("%s/%s-%s:%s"),strXValue.Left(2),strXValue.Mid(2,2), strXValue.Mid(4,2),strXValue.Mid(6,2));

  002ee	6a 06		 push	 6
  002f0	8d 45 c4	 lea	 eax, DWORD PTR $T18[ebp]
  002f3	50		 push	 eax
  002f4	ff 15 00 00 00
	00		 call	 DWORD PTR __imp_?Mid@?$CStringT@DV?$StrTraitMFC_DLL@DV?$ChTraitsCRT@D@ATL@@@@@ATL@@QBE?AV12@HH@Z
  002fa	8b d8		 mov	 ebx, eax
  002fc	6a 02		 push	 2
  002fe	6a 04		 push	 4
  00300	8d 45 c0	 lea	 eax, DWORD PTR $T14[ebp]
  00303	c6 45 fc 0d	 mov	 BYTE PTR __$EHRec$[ebp+8], 13 ; 0000000dH
  00307	50		 push	 eax
  00308	8d 4d c8	 lea	 ecx, DWORD PTR _strXValue$[ebp]
  0030b	ff 15 00 00 00
	00		 call	 DWORD PTR __imp_?Mid@?$CStringT@DV?$StrTraitMFC_DLL@DV?$ChTraitsCRT@D@ATL@@@@@ATL@@QBE?AV12@HH@Z
  00311	8b f8		 mov	 edi, eax
  00313	6a 02		 push	 2
  00315	6a 02		 push	 2
  00317	8d 45 ac	 lea	 eax, DWORD PTR $T2[ebp]
  0031a	c6 45 fc 0e	 mov	 BYTE PTR __$EHRec$[ebp+8], 14 ; 0000000eH
  0031e	50		 push	 eax
  0031f	8d 4d c8	 lea	 ecx, DWORD PTR _strXValue$[ebp]
  00322	ff 15 00 00 00
	00		 call	 DWORD PTR __imp_?Mid@?$CStringT@DV?$StrTraitMFC_DLL@DV?$ChTraitsCRT@D@ATL@@@@@ATL@@QBE?AV12@HH@Z
  00328	8b f0		 mov	 esi, eax
  0032a	6a 02		 push	 2
  0032c	8d 45 bc	 lea	 eax, DWORD PTR $T8[ebp]
  0032f	c6 45 fc 0f	 mov	 BYTE PTR __$EHRec$[ebp+8], 15 ; 0000000fH
  00333	50		 push	 eax
  00334	8d 4d c8	 lea	 ecx, DWORD PTR _strXValue$[ebp]
  00337	ff 15 00 00 00
	00		 call	 DWORD PTR __imp_?Left@?$CStringT@DV?$StrTraitMFC_DLL@DV?$ChTraitsCRT@D@ATL@@@@@ATL@@QBE?AV12@H@Z
  0033d	ff 33		 push	 DWORD PTR [ebx]
  0033f	c6 45 fc 10	 mov	 BYTE PTR __$EHRec$[ebp+8], 16 ; 00000010H
  00343	ff 37		 push	 DWORD PTR [edi]
  00345	ff 36		 push	 DWORD PTR [esi]
  00347	ff 30		 push	 DWORD PTR [eax]
  00349	8d 45 b8	 lea	 eax, DWORD PTR _strFormat$7[ebp]
  0034c	68 00 00 00 00	 push	 OFFSET ??_C@_0M@NFOMEIHF@?$CFs?1?$CFs?9?$CFs?3?$CFs@
  00351	50		 push	 eax
  00352	a1 00 00 00 00	 mov	 eax, DWORD PTR __imp_?Format@?$CStringT@DV?$StrTraitMFC_DLL@DV?$ChTraitsCRT@D@ATL@@@@@ATL@@QAAXPBDZZ
  00357	ff d0		 call	 eax
  00359	83 c4 18	 add	 esp, 24			; 00000018H
  0035c	8d 4d bc	 lea	 ecx, DWORD PTR $T8[ebp]
  0035f	ff 15 00 00 00
	00		 call	 DWORD PTR __imp_??1?$CStringT@DV?$StrTraitMFC_DLL@DV?$ChTraitsCRT@D@ATL@@@@@ATL@@QAE@XZ
  00365	8d 4d ac	 lea	 ecx, DWORD PTR $T2[ebp]
  00368	ff 15 00 00 00
	00		 call	 DWORD PTR __imp_??1?$CStringT@DV?$StrTraitMFC_DLL@DV?$ChTraitsCRT@D@ATL@@@@@ATL@@QAE@XZ
  0036e	8d 4d c0	 lea	 ecx, DWORD PTR $T14[ebp]
  00371	ff 15 00 00 00
	00		 call	 DWORD PTR __imp_??1?$CStringT@DV?$StrTraitMFC_DLL@DV?$ChTraitsCRT@D@ATL@@@@@ATL@@QAE@XZ
  00377	8d 4d c4	 lea	 ecx, DWORD PTR $T18[ebp]
$LN152@SetXDateTi:

; 1277 : 				// 2011.01.06 by SYS <<
; 1278 : 			}
; 1279 : 			
; 1280 : 			if(nIndex == 0)

  0037a	c6 45 fc 01	 mov	 BYTE PTR __$EHRec$[ebp+8], 1
  0037e	ff 15 00 00 00
	00		 call	 DWORD PTR __imp_??1?$CStringT@DV?$StrTraitMFC_DLL@DV?$ChTraitsCRT@D@ATL@@@@@ATL@@QAE@XZ
  00384	8b 5d b4	 mov	 ebx, DWORD PTR _this$GSCopy$1$[ebp]
$LN19@SetXDateTi:
  00387	8b 45 10	 mov	 eax, DWORD PTR _nIndex$[ebp]
  0038a	85 c0		 test	 eax, eax
  0038c	75 23		 jne	 SHORT $LN20@SetXDateTi

; 1281 : 			{
; 1282 : 				m_ctrlEditXValue1.ShowWindow(SW_SHOW);

  0038e	6a 05		 push	 5
  00390	8d 8b 50 07 00
	00		 lea	 ecx, DWORD PTR [ebx+1872]
  00396	e8 00 00 00 00	 call	 ?ShowWindow@CWnd@@QAEHH@Z ; CWnd::ShowWindow

; 1283 : 				m_ctrlEditXValue1.SetWindowText(strFormat);

  0039b	ff 75 b8	 push	 DWORD PTR _strFormat$7[ebp]
  0039e	8d 8b 50 07 00
	00		 lea	 ecx, DWORD PTR [ebx+1872]
  003a4	e8 00 00 00 00	 call	 ?SetWindowTextA@CWnd@@QAEXPBD@Z ; CWnd::SetWindowTextA

; 1284 : 				m_ctrlEditXValue1.EnableWindow(FALSE);

  003a9	8d 8b 50 07 00
	00		 lea	 ecx, DWORD PTR [ebx+1872]

; 1285 : 			}

  003af	eb 4e		 jmp	 SHORT $LN153@SetXDateTi
$LN20@SetXDateTi:

; 1286 : 			else if(nIndex == 1)

  003b1	83 f8 01	 cmp	 eax, 1
  003b4	75 23		 jne	 SHORT $LN22@SetXDateTi

; 1287 : 			{
; 1288 : 				m_ctrlEditXValue2.ShowWindow(SW_SHOW);

  003b6	6a 05		 push	 5
  003b8	8d 8b d0 07 00
	00		 lea	 ecx, DWORD PTR [ebx+2000]
  003be	e8 00 00 00 00	 call	 ?ShowWindow@CWnd@@QAEHH@Z ; CWnd::ShowWindow

; 1289 : 				m_ctrlEditXValue2.SetWindowText(strFormat);

  003c3	ff 75 b8	 push	 DWORD PTR _strFormat$7[ebp]
  003c6	8d 8b d0 07 00
	00		 lea	 ecx, DWORD PTR [ebx+2000]
  003cc	e8 00 00 00 00	 call	 ?SetWindowTextA@CWnd@@QAEXPBD@Z ; CWnd::SetWindowTextA

; 1290 : 				m_ctrlEditXValue2.EnableWindow(FALSE);

  003d1	8d 8b d0 07 00
	00		 lea	 ecx, DWORD PTR [ebx+2000]

; 1291 : 			}

  003d7	eb 26		 jmp	 SHORT $LN153@SetXDateTi
$LN22@SetXDateTi:

; 1292 : 			else if(nIndex == 2)

  003d9	83 f8 02	 cmp	 eax, 2
  003dc	75 28		 jne	 SHORT $LN24@SetXDateTi

; 1293 : 			{
; 1294 : 				m_ctrlEditXValue3.ShowWindow(SW_SHOW);

  003de	6a 05		 push	 5
  003e0	8d 8b 50 08 00
	00		 lea	 ecx, DWORD PTR [ebx+2128]
  003e6	e8 00 00 00 00	 call	 ?ShowWindow@CWnd@@QAEHH@Z ; CWnd::ShowWindow

; 1295 : 				m_ctrlEditXValue3.SetWindowText(strFormat);

  003eb	ff 75 b8	 push	 DWORD PTR _strFormat$7[ebp]
  003ee	8d 8b 50 08 00
	00		 lea	 ecx, DWORD PTR [ebx+2128]
  003f4	e8 00 00 00 00	 call	 ?SetWindowTextA@CWnd@@QAEXPBD@Z ; CWnd::SetWindowTextA

; 1296 : 				m_ctrlEditXValue3.EnableWindow(FALSE);

  003f9	8d 8b 50 08 00
	00		 lea	 ecx, DWORD PTR [ebx+2128]
$LN153@SetXDateTi:

; 1297 : 			}
; 1298 : 		}

  003ff	6a 00		 push	 0
  00401	e8 00 00 00 00	 call	 ?EnableWindow@CWnd@@QAEHH@Z ; CWnd::EnableWindow
$LN24@SetXDateTi:
  00406	8d 4d b8	 lea	 ecx, DWORD PTR _strFormat$7[ebp]
  00409	ff 15 00 00 00
	00		 call	 DWORD PTR __imp_??1?$CStringT@DV?$StrTraitMFC_DLL@DV?$ChTraitsCRT@D@ATL@@@@@ATL@@QAE@XZ
  0040f	e9 24 01 00 00	 jmp	 $LN11@SetXDateTi
$LN5@SetXDateTi:

; 1225 : 			m_nDataPeriod == CScaleBaseData::HORZ_MONTHLY)
; 1226 : 		{
; 1227 : 			if(nIndex == 0)

  00414	8b 7d 10	 mov	 edi, DWORD PTR _nIndex$[ebp]
  00417	85 ff		 test	 edi, edi
  00419	75 24		 jne	 SHORT $LN6@SetXDateTi

; 1228 : 			{
; 1229 : 				m_ctrlEditXValue1.ShowWindow(SW_HIDE);

  0041b	57		 push	 edi
  0041c	8d 8b 50 07 00
	00		 lea	 ecx, DWORD PTR [ebx+1872]
  00422	e8 00 00 00 00	 call	 ?ShowWindow@CWnd@@QAEHH@Z ; CWnd::ShowWindow

; 1230 : 				m_ctrlEditXValue2.ShowWindow(SW_HIDE);

  00427	57		 push	 edi
  00428	8d 8b d0 07 00
	00		 lea	 ecx, DWORD PTR [ebx+2000]
  0042e	e8 00 00 00 00	 call	 ?ShowWindow@CWnd@@QAEHH@Z ; CWnd::ShowWindow

; 1231 : 				m_ctrlEditXValue3.ShowWindow(SW_HIDE);

  00433	57		 push	 edi
  00434	8d 8b 50 08 00
	00		 lea	 ecx, DWORD PTR [ebx+2128]
  0043a	e8 00 00 00 00	 call	 ?ShowWindow@CWnd@@QAEHH@Z ; CWnd::ShowWindow
$LN6@SetXDateTi:

; 1232 : 			}
; 1233 : 
; 1234 : 			int nYear = atoi(strXValue.Left(4));

  0043f	6a 04		 push	 4
  00441	8d 45 bc	 lea	 eax, DWORD PTR $T12[ebp]
  00444	50		 push	 eax
  00445	8d 4d c8	 lea	 ecx, DWORD PTR _strXValue$[ebp]
  00448	ff 15 00 00 00
	00		 call	 DWORD PTR __imp_?Left@?$CStringT@DV?$StrTraitMFC_DLL@DV?$ChTraitsCRT@D@ATL@@@@@ATL@@QBE?AV12@H@Z
  0044e	8b 35 00 00 00
	00		 mov	 esi, DWORD PTR __imp__atoi
  00454	ff 30		 push	 DWORD PTR [eax]
  00456	ff d6		 call	 esi
  00458	83 c4 04	 add	 esp, 4
  0045b	89 45 ac	 mov	 DWORD PTR _nYear$1$[ebp], eax
  0045e	8d 4d bc	 lea	 ecx, DWORD PTR $T12[ebp]
  00461	ff 15 00 00 00
	00		 call	 DWORD PTR __imp_??1?$CStringT@DV?$StrTraitMFC_DLL@DV?$ChTraitsCRT@D@ATL@@@@@ATL@@QAE@XZ

; 1235 : 			int nMonth = atoi(strXValue.Mid(4,2));

  00467	6a 02		 push	 2
  00469	6a 04		 push	 4
  0046b	8d 45 bc	 lea	 eax, DWORD PTR $T11[ebp]
  0046e	50		 push	 eax
  0046f	8d 4d c8	 lea	 ecx, DWORD PTR _strXValue$[ebp]
  00472	ff 15 00 00 00
	00		 call	 DWORD PTR __imp_?Mid@?$CStringT@DV?$StrTraitMFC_DLL@DV?$ChTraitsCRT@D@ATL@@@@@ATL@@QBE?AV12@HH@Z
  00478	ff 30		 push	 DWORD PTR [eax]
  0047a	ff d6		 call	 esi
  0047c	83 c4 04	 add	 esp, 4
  0047f	89 45 c0	 mov	 DWORD PTR _nMonth$1$[ebp], eax
  00482	8d 4d bc	 lea	 ecx, DWORD PTR $T11[ebp]
  00485	ff 15 00 00 00
	00		 call	 DWORD PTR __imp_??1?$CStringT@DV?$StrTraitMFC_DLL@DV?$ChTraitsCRT@D@ATL@@@@@ATL@@QAE@XZ

; 1236 : 			int nDay = atoi(strXValue.Mid(6,2));

  0048b	6a 02		 push	 2
  0048d	6a 06		 push	 6
  0048f	8d 45 bc	 lea	 eax, DWORD PTR $T10[ebp]
  00492	50		 push	 eax
  00493	8d 4d c8	 lea	 ecx, DWORD PTR _strXValue$[ebp]
  00496	ff 15 00 00 00
	00		 call	 DWORD PTR __imp_?Mid@?$CStringT@DV?$StrTraitMFC_DLL@DV?$ChTraitsCRT@D@ATL@@@@@ATL@@QBE?AV12@HH@Z
  0049c	ff 30		 push	 DWORD PTR [eax]
  0049e	ff d6		 call	 esi
  004a0	83 c4 04	 add	 esp, 4
  004a3	8d 4d bc	 lea	 ecx, DWORD PTR $T10[ebp]
  004a6	8b f0		 mov	 esi, eax
  004a8	ff 15 00 00 00
	00		 call	 DWORD PTR __imp_??1?$CStringT@DV?$StrTraitMFC_DLL@DV?$ChTraitsCRT@D@ATL@@@@@ATL@@QAE@XZ
; File C:\Program Files (x86)\Microsoft Visual Studio\2019\Community\VC\Tools\MSVC\14.29.30133\atlmfc\include\atltime.h

; 433  : 	ATLENSURE( nYear >= 1970 );

  004ae	8b 55 ac	 mov	 edx, DWORD PTR _nYear$1$[ebp]
; File D:\git\src\IBK\IBK_DRFN\ProjSrc\SrcChartEx\ChartAddIn\ChartAnalysisToolAddIn\AnalysisTool\DlgFiboSet.cpp

; 1238 : 			CTime stime(nYear,nMonth,max(1,nDay),0,0,0);

  004b1	b8 01 00 00 00	 mov	 eax, 1
  004b6	3b f0		 cmp	 esi, eax
  004b8	0f 4c f0	 cmovl	 esi, eax
; File C:\Program Files (x86)\Microsoft Visual Studio\2019\Community\VC\Tools\MSVC\14.29.30133\atlmfc\include\atltime.h

; 433  : 	ATLENSURE( nYear >= 1970 );

  004bb	81 fa b2 07 00
	00		 cmp	 edx, 1970		; 000007b2H
  004c1	0f 8c ba 00 00
	00		 jl	 $LN108@SetXDateTi

; 434  : 	ATLENSURE( nMonth >= 1 && nMonth <= 12 );

  004c7	8b 4d c0	 mov	 ecx, DWORD PTR _nMonth$1$[ebp]
  004ca	49		 dec	 ecx
  004cb	83 f9 0b	 cmp	 ecx, 11			; 0000000bH
  004ce	0f 87 ad 00 00
	00		 ja	 $LN108@SetXDateTi

; 435  : 	ATLENSURE( nDay >= 1 && nDay <= 31 );

  004d4	8d 46 ff	 lea	 eax, DWORD PTR [esi-1]
  004d7	83 f8 1e	 cmp	 eax, 30			; 0000001eH
  004da	0f 87 a1 00 00
	00		 ja	 $LN108@SetXDateTi

; 436  : 	ATLENSURE( nHour >= 0 && nHour <= 23 );
; 437  : 	ATLENSURE( nMin >= 0 && nMin <= 59 );
; 438  : 	ATLENSURE( nSec >= 0 && nSec <= 59 );
; 439  : 
; 440  : #pragma warning (pop)
; 441  : 
; 442  : 	struct tm atm;
; 443  : 
; 444  : 	atm.tm_sec = nSec;
; 445  : 	atm.tm_min = nMin;
; 446  : 	atm.tm_hour = nHour;
; 447  : 	atm.tm_mday = nDay;
; 448  : 	atm.tm_mon = nMonth - 1;        // tm_mon is 0 based
; 449  : 	atm.tm_year = nYear - 1900;     // tm_year is 1900 based

  004e0	8d 82 94 f8 ff
	ff		 lea	 eax, DWORD PTR [edx-1900]
  004e6	c7 45 cc 00 00
	00 00		 mov	 DWORD PTR _atm$23[ebp], 0
  004ed	89 45 e0	 mov	 DWORD PTR _atm$23[ebp+20], eax

; 450  : 	atm.tm_isdst = nDST;
; 451  : 
; 452  : 	m_time = _mktime64(&atm);

  004f0	8d 45 cc	 lea	 eax, DWORD PTR _atm$23[ebp]
  004f3	50		 push	 eax
  004f4	c7 45 d0 00 00
	00 00		 mov	 DWORD PTR _atm$23[ebp+4], 0
  004fb	c7 45 d4 00 00
	00 00		 mov	 DWORD PTR _atm$23[ebp+8], 0
  00502	89 75 d8	 mov	 DWORD PTR _atm$23[ebp+12], esi
  00505	89 4d dc	 mov	 DWORD PTR _atm$23[ebp+16], ecx
  00508	c7 45 ec ff ff
	ff ff		 mov	 DWORD PTR _atm$23[ebp+32], -1
  0050f	ff 15 00 00 00
	00		 call	 DWORD PTR __imp___mktime64
  00515	89 45 b0	 mov	 DWORD PTR _stime$4[ebp], eax
  00518	83 c4 04	 add	 esp, 4

; 453  : 	ATLASSUME(m_time != -1);       // indicates an illegal input time
; 454  : 	if(m_time == -1)

  0051b	23 c2		 and	 eax, edx
  0051d	89 55 b4	 mov	 DWORD PTR _stime$4[ebp+4], edx
  00520	83 f8 ff	 cmp	 eax, -1
  00523	74 66		 je	 SHORT $LN156@SetXDateTi
; File D:\git\src\IBK\IBK_DRFN\ProjSrc\SrcChartEx\ChartAddIn\ChartAnalysisToolAddIn\AnalysisTool\DlgFiboSet.cpp

; 1239 : 			if(nIndex == 0)

  00525	85 ff		 test	 edi, edi
  00527	75 36		 jne	 SHORT $LN7@SetXDateTi

; 1240 : 				m_ctrlXDateTime1.SetTime(&stime);	

  00529	8d 45 b0	 lea	 eax, DWORD PTR _stime$4[ebp]
  0052c	50		 push	 eax
  0052d	8d 8b 50 0a 00
	00		 lea	 ecx, DWORD PTR [ebx+2640]
$LN154@SetXDateTi:

; 1300 : }

  00533	e8 00 00 00 00	 call	 ?SetTime@CDateTimeCtrl@@QAEHPBVCTime@ATL@@@Z ; CDateTimeCtrl::SetTime
$LN11@SetXDateTi:
  00538	8d 4d c8	 lea	 ecx, DWORD PTR _strXValue$[ebp]
  0053b	ff 15 00 00 00
	00		 call	 DWORD PTR __imp_??1?$CStringT@DV?$StrTraitMFC_DLL@DV?$ChTraitsCRT@D@ATL@@@@@ATL@@QAE@XZ
  00541	8b 4d f4	 mov	 ecx, DWORD PTR __$EHRec$[ebp]
  00544	64 89 0d 00 00
	00 00		 mov	 DWORD PTR fs:0, ecx
  0054b	59		 pop	 ecx
  0054c	5f		 pop	 edi
  0054d	5e		 pop	 esi
  0054e	5b		 pop	 ebx
  0054f	8b 4d f0	 mov	 ecx, DWORD PTR __$ArrayPad$[ebp]
  00552	33 cd		 xor	 ecx, ebp
  00554	e8 00 00 00 00	 call	 @__security_check_cookie@4
  00559	8b e5		 mov	 esp, ebp
  0055b	5d		 pop	 ebp
  0055c	c2 0c 00	 ret	 12			; 0000000cH
$LN7@SetXDateTi:

; 1241 : 			else if(nIndex == 1)

