; Listing generated by Microsoft (R) Optimizing Compiler Version 19.29.30145.0 

	TITLE	D:\git\src\IBK\IBK_DRFN\#DRfn-CS\_Obj\AnalysisTool\Drawer.obj
	.686P
	.XMM
	include listing.inc
	.model	flat

INCLUDELIB MSVCRT
INCLUDELIB OLDNAMES

PUBLIC	?__empty_global_delete@@YAXPAX@Z		; __empty_global_delete
PUBLIC	?__empty_global_delete@@YAXPAXI@Z		; __empty_global_delete
PUBLIC	??1CObject@@UAE@XZ				; CObject::~CObject
PUBLIC	?Serialize@CObject@@UAEXAAVCArchive@@@Z		; CObject::Serialize
PUBLIC	?AssertValid@CObject@@UBEXXZ			; CObject::AssertValid
PUBLIC	?Dump@CObject@@UBEXAAVCDumpContext@@@Z		; CObject::Dump
PUBLIC	??1CGdiObject@@UAE@XZ				; CGdiObject::~CGdiObject
PUBLIC	??_GCGdiObject@@UAEPAXI@Z			; CGdiObject::`scalar deleting destructor'
PUBLIC	??1CPen@@UAE@XZ					; CPen::~CPen
PUBLIC	??_GCPen@@UAEPAXI@Z				; CPen::`scalar deleting destructor'
PUBLIC	??1CBrush@@UAE@XZ				; CBrush::~CBrush
PUBLIC	??_GCBrush@@UAEPAXI@Z				; CBrush::`scalar deleting destructor'
PUBLIC	??1CRgn@@UAE@XZ					; CRgn::~CRgn
PUBLIC	??_GCRgn@@UAEPAXI@Z				; CRgn::`scalar deleting destructor'
PUBLIC	??0CDrawer@@QAE@XZ				; CDrawer::CDrawer
PUBLIC	?SetGripBrushColor@CDrawer@@QAEXABK@Z		; CDrawer::SetGripBrushColor
PUBLIC	?DrawRectangle@CDrawer@@QAEXPAVCDC@@ABVCRect@@@Z ; CDrawer::DrawRectangle
PUBLIC	?SelectClipRegion@CDrawer@@IAEXPAVCDC@@ABVCRect@@@Z ; CDrawer::SelectClipRegion
PUBLIC	?SelectClipRegion@CDrawer@@IAEXPAVCDC@@@Z	; CDrawer::SelectClipRegion
PUBLIC	?SelectNewDrawingMode@CDrawer@@IAEXPAVCDC@@ABVCRect@@H@Z ; CDrawer::SelectNewDrawingMode
PUBLIC	?SelectOrgDrawingMode@CDrawer@@IAEXPAVCDC@@@Z	; CDrawer::SelectOrgDrawingMode
PUBLIC	?SelectNewTextMode@CDrawer@@IAEXPAVCDC@@ABK@Z	; CDrawer::SelectNewTextMode
PUBLIC	?SelectOrgTextMode@CDrawer@@IAEXPAVCDC@@@Z	; CDrawer::SelectOrgTextMode
PUBLIC	?DrawPolygonLine@CDrawer@@IAEXPAVCDC@@QAUtagPOINT@@ABH@Z ; CDrawer::DrawPolygonLine
PUBLIC	?DrawLine@CDrawer@@IAEXPAVCDC@@ABVCPoint@@1@Z	; CDrawer::DrawLine
PUBLIC	?DrawLineExt@CDrawer@@IAEXPAVCDC@@ABVCPoint@@1HH@Z ; CDrawer::DrawLineExt
PUBLIC	?DrawFrameRect@CDrawer@@IAEXPAVCDC@@ABVCRect@@@Z ; CDrawer::DrawFrameRect
PUBLIC	?DrawFrameRect@CDrawer@@IAEXPAVCDC@@ABVCPoint@@1@Z ; CDrawer::DrawFrameRect
PUBLIC	?DrawRect@CDrawer@@IAEXPAVCDC@@ABVCRect@@ABK_N@Z ; CDrawer::DrawRect
PUBLIC	?DrawRectangle@CDrawer@@IAEXPAVCDC@@ABVCRect@@ABK2_N@Z ; CDrawer::DrawRectangle
PUBLIC	?DrawTextOut@CDrawer@@IAEXPAVCDC@@W4TEXTPOSITION@1@ABV?$CStringT@DV?$StrTraitMFC_DLL@DV?$ChTraitsCRT@D@ATL@@@@@ATL@@ABVCPoint@@ABVCSize@@@Z ; CDrawer::DrawTextOut
PUBLIC	?DrawTextOut@CDrawer@@IAEXPAVCDC@@ABV?$CStringT@DV?$StrTraitMFC_DLL@DV?$ChTraitsCRT@D@ATL@@@@@ATL@@ABVCRect@@ABK@Z ; CDrawer::DrawTextOut
PUBLIC	?DrawTextOut@CDrawer@@IAEXPAVCDC@@ABV?$CStringT@DV?$StrTraitMFC_DLL@DV?$ChTraitsCRT@D@ATL@@@@@ATL@@ABVCRect@@@Z ; CDrawer::DrawTextOut
PUBLIC	?DrawTextOut_Path@CDrawer@@IAEXPAVCDC@@ABV?$CStringT@DV?$StrTraitMFC_DLL@DV?$ChTraitsCRT@D@ATL@@@@@ATL@@ABVCPoint@@@Z ; CDrawer::DrawTextOut_Path
PUBLIC	?DrawStyleLine@CDrawer@@IAEXPAVCDC@@ABVCPoint@@1I@Z ; CDrawer::DrawStyleLine
PUBLIC	?GetGripBrushColor@CDrawer@@IBEKXZ		; CDrawer::GetGripBrushColor
PUBLIC	?GetGripRegion@CDrawer@@IBE?AVCRect@@ABVCPoint@@@Z ; CDrawer::GetGripRegion
PUBLIC	?GetTextRegion@CDrawer@@IBE?AVCRect@@ABVCSize@@ABVCPoint@@_N2@Z ; CDrawer::GetTextRegion
PUBLIC	?GetLineEndPoint@CDrawer@@IBE?AVCPoint@@ABV2@000@Z ; CDrawer::GetLineEndPoint
PUBLIC	?Intersection@CDrawer@@IBE_NABVCPoint@@000AAV2@@Z ; CDrawer::Intersection
PUBLIC	?GetLineAngle@CDrawer@@IBENABVCPoint@@0@Z	; CDrawer::GetLineAngle
PUBLIC	?GetLineIntercept@CDrawer@@IBENABNABVCPoint@@@Z	; CDrawer::GetLineIntercept
PUBLIC	?GetCurrentDataIndex@CDrawer@@IBEHABVCRegion@@ABVCPoint@@@Z ; CDrawer::GetCurrentDataIndex
PUBLIC	?GetDrawingPoint_X@CDrawer@@IBEHABVCRegion@@H_N@Z ; CDrawer::GetDrawingPoint_X
PUBLIC	?IsVerticalLine@CDrawer@@ABE_NABVCPoint@@0@Z	; CDrawer::IsVerticalLine
PUBLIC	?IsHorizontalLine@CDrawer@@ABE_NABVCPoint@@0@Z	; CDrawer::IsHorizontalLine
PUBLIC	?IsIntersectionPoint_InHorzLine@CDrawer@@ABE?AW4INTERSECTION_RESULT@1@ABVCPoint@@000AAV3@@Z ; CDrawer::IsIntersectionPoint_InHorzLine
PUBLIC	?GetIntersectionPoint_InHorzLine1@CDrawer@@ABE?AW4INTERSECTION_RESULT@1@ABVCPoint@@000AAV3@@Z ; CDrawer::GetIntersectionPoint_InHorzLine1
PUBLIC	?IsIntersectionPoint_InVertLine@CDrawer@@ABE?AW4INTERSECTION_RESULT@1@ABVCPoint@@000AAV3@@Z ; CDrawer::IsIntersectionPoint_InVertLine
PUBLIC	?GetIntersectionPoint_InVertLine1@CDrawer@@ABE?AW4INTERSECTION_RESULT@1@ABVCPoint@@000AAV3@@Z ; CDrawer::GetIntersectionPoint_InVertLine1
PUBLIC	?GetIntersectionPoint_Slant@CDrawer@@ABE_NABVCPoint@@000AAV2@@Z ; CDrawer::GetIntersectionPoint_Slant
PUBLIC	?Result@CDrawer@@ABE_NW4INTERSECTION_RESULT@1@@Z ; CDrawer::Result
PUBLIC	?Intersection@CDrawer@@ABE_NNNNNNNNNAAN0@Z	; CDrawer::Intersection
PUBLIC	?IsSame@CDrawer@@ABE_NNNNN@Z			; CDrawer::IsSame
PUBLIC	?GetTextPosition@CDrawer@@ABE?AVCPoint@@W4TEXTPOSITION@1@ABV2@ABVCSize@@2@Z ; CDrawer::GetTextPosition
PUBLIC	??_R0PAVCException@@@8				; CException * `RTTI Type Descriptor'
PUBLIC	??_7CGdiObject@@6B@				; CGdiObject::`vftable'
PUBLIC	??_7CPen@@6B@					; CPen::`vftable'
PUBLIC	??_7CBrush@@6B@					; CBrush::`vftable'
PUBLIC	??_7CRgn@@6B@					; CRgn::`vftable'
PUBLIC	??_C@_0HD@JJCHHHNK@C?3?2Program?5Files?5?$CIx86?$CJ?2Microsof@ ; `string'
PUBLIC	??_C@_0BP@OIEOKIDM@Exception?5thrown?5in?5destructor@ ; `string'
PUBLIC	??_C@_0BB@HBOOMJBF@?$CFTs?5?$CI?$CFTs?3?$CFd?$CJ?6?$CFTs@ ; `string'
PUBLIC	??_C@_0N@OMEMOKLE@?$CFTs?5?$CI?$CFTs?3?$CFd?$CJ@ ; `string'
PUBLIC	??_R0?AVCObject@@@8				; CObject `RTTI Type Descriptor'
PUBLIC	??_R3CObject@@8					; CObject::`RTTI Class Hierarchy Descriptor'
PUBLIC	??_R2CObject@@8					; CObject::`RTTI Base Class Array'
PUBLIC	??_R1A@?0A@EA@CObject@@8			; CObject::`RTTI Base Class Descriptor at (0,-1,0,64)'
PUBLIC	??_R4CGdiObject@@6B@				; CGdiObject::`RTTI Complete Object Locator'
PUBLIC	??_R0?AVCGdiObject@@@8				; CGdiObject `RTTI Type Descriptor'
PUBLIC	??_R3CGdiObject@@8				; CGdiObject::`RTTI Class Hierarchy Descriptor'
PUBLIC	??_R2CGdiObject@@8				; CGdiObject::`RTTI Base Class Array'
PUBLIC	??_R1A@?0A@EA@CGdiObject@@8			; CGdiObject::`RTTI Base Class Descriptor at (0,-1,0,64)'
PUBLIC	??_R4CPen@@6B@					; CPen::`RTTI Complete Object Locator'
PUBLIC	??_R0?AVCPen@@@8				; CPen `RTTI Type Descriptor'
PUBLIC	??_R3CPen@@8					; CPen::`RTTI Class Hierarchy Descriptor'
PUBLIC	??_R2CPen@@8					; CPen::`RTTI Base Class Array'
PUBLIC	??_R1A@?0A@EA@CPen@@8				; CPen::`RTTI Base Class Descriptor at (0,-1,0,64)'
PUBLIC	??_R4CBrush@@6B@				; CBrush::`RTTI Complete Object Locator'
PUBLIC	??_R0?AVCBrush@@@8				; CBrush `RTTI Type Descriptor'
PUBLIC	??_R3CBrush@@8					; CBrush::`RTTI Class Hierarchy Descriptor'
PUBLIC	??_R2CBrush@@8					; CBrush::`RTTI Base Class Array'
PUBLIC	??_R1A@?0A@EA@CBrush@@8				; CBrush::`RTTI Base Class Descriptor at (0,-1,0,64)'
PUBLIC	??_R4CRgn@@6B@					; CRgn::`RTTI Complete Object Locator'
PUBLIC	??_R0?AVCRgn@@@8				; CRgn `RTTI Type Descriptor'
PUBLIC	??_R3CRgn@@8					; CRgn::`RTTI Class Hierarchy Descriptor'
PUBLIC	??_R2CRgn@@8					; CRgn::`RTTI Base Class Array'
PUBLIC	??_R1A@?0A@EA@CRgn@@8				; CRgn::`RTTI Base Class Descriptor at (0,-1,0,64)'
PUBLIC	__real@0000000000000000
PUBLIC	__xmm@80000000000000008000000000000000
EXTRN	??3@YAXPAX@Z:PROC				; operator delete
EXTRN	?__global_delete@@YAXPAXI@Z:PROC		; __global_delete
EXTRN	__imp__CreatePenIndirect@4:PROC
EXTRN	__imp__CreateRectRgn@16:PROC
EXTRN	__imp__GetCurrentObject@8:PROC
EXTRN	__imp__GetTextExtentPoint32A@16:PROC
EXTRN	__imp__Rectangle@20:PROC
EXTRN	__imp__BeginPath@4:PROC
EXTRN	__imp__EndPath@4:PROC
EXTRN	__imp__StrokePath@4:PROC
EXTRN	__imp__GetObjectA@12:PROC
EXTRN	__imp__Polygon@12:PROC
EXTRN	__imp__FillRect@12:PROC
EXTRN	__imp__FrameRect@12:PROC
EXTRN	__imp__InflateRect@12:PROC
EXTRN	__imp__OffsetRect@12:PROC
EXTRN	__imp_??0?$CStringT@DV?$StrTraitMFC_DLL@DV?$ChTraitsCRT@D@ATL@@@@@ATL@@QAE@XZ:PROC
EXTRN	__imp_??1?$CStringT@DV?$StrTraitMFC_DLL@DV?$ChTraitsCRT@D@ATL@@@@@ATL@@QAE@XZ:PROC
EXTRN	__imp_?Format@?$CStringT@DV?$StrTraitMFC_DLL@DV?$ChTraitsCRT@D@ATL@@@@@ATL@@QAAXPBDZZ:PROC
EXTRN	?GetRuntimeClass@CGdiObject@@UBEPAUCRuntimeClass@@XZ:PROC ; CGdiObject::GetRuntimeClass
EXTRN	?FromHandle@CGdiObject@@SGPAV1@PAX@Z:PROC	; CGdiObject::FromHandle
EXTRN	?Attach@CGdiObject@@QAEHPAX@Z:PROC		; CGdiObject::Attach
EXTRN	?DeleteObject@CGdiObject@@QAEHXZ:PROC		; CGdiObject::DeleteObject
EXTRN	??_ECGdiObject@@UAEPAXI@Z:PROC			; CGdiObject::`vector deleting destructor'
EXTRN	?GetRuntimeClass@CPen@@UBEPAUCRuntimeClass@@XZ:PROC ; CPen::GetRuntimeClass
EXTRN	??0CPen@@QAE@HHK@Z:PROC				; CPen::CPen
EXTRN	??_ECPen@@UAEPAXI@Z:PROC			; CPen::`vector deleting destructor'
EXTRN	?GetRuntimeClass@CBrush@@UBEPAUCRuntimeClass@@XZ:PROC ; CBrush::GetRuntimeClass
EXTRN	??0CBrush@@QAE@K@Z:PROC				; CBrush::CBrush
EXTRN	??_ECBrush@@UAEPAXI@Z:PROC			; CBrush::`vector deleting destructor'
EXTRN	?GetRuntimeClass@CRgn@@UBEPAUCRuntimeClass@@XZ:PROC ; CRgn::GetRuntimeClass
EXTRN	??_ECRgn@@UAEPAXI@Z:PROC			; CRgn::`vector deleting destructor'
EXTRN	?SelectObject@CDC@@QAEPAVCPen@@PAV2@@Z:PROC	; CDC::SelectObject
EXTRN	?SelectObject@CDC@@QAEPAVCBrush@@PAV2@@Z:PROC	; CDC::SelectObject
EXTRN	?SetBkMode@CDC@@QAEHH@Z:PROC			; CDC::SetBkMode
EXTRN	?SetROP2@CDC@@QAEHH@Z:PROC			; CDC::SetROP2
EXTRN	?SelectClipRgn@CDC@@QAEHPAVCRgn@@@Z:PROC	; CDC::SelectClipRgn
EXTRN	?MoveTo@CDC@@QAE?AVCPoint@@HH@Z:PROC		; CDC::MoveTo
EXTRN	?LineTo@CDC@@QAEHHH@Z:PROC			; CDC::LineTo
EXTRN	?AfxMessageBox@@YGHPBDII@Z:PROC			; AfxMessageBox
EXTRN	?GetDataStartInBlock@CDisplayAttributes@@QBEHXZ:PROC ; CDisplayAttributes::GetDataStartInBlock
EXTRN	?GetDataEndInBlock@CDisplayAttributes@@QBEHXZ:PROC ; CDisplayAttributes::GetDataEndInBlock
EXTRN	?GetRect@CRegion@@QBE?AVCRect@@XZ:PROC		; CRegion::GetRect
EXTRN	?GetDisplayAttributes@CRegion@@QBE?AVCDisplayAttributes@@XZ:PROC ; CRegion::GetDisplayAttributes
EXTRN	?RelativeToAbsolute_X@CDataConversion@@SAHABVCRect@@HHH_N@Z:PROC ; CDataConversion::RelativeToAbsolute_X
EXTRN	?GetPacketDataIndex_Date@CDataConversion@@SAHABVCRect@@ABVCPoint@@HH@Z:PROC ; CDataConversion::GetPacketDataIndex_Date
EXTRN	?Round@CMath@@SAHN@Z:PROC			; CMath::Round
EXTRN	@__security_check_cookie@4:PROC
EXTRN	___CxxFrameHandler3:PROC
EXTRN	??_7type_info@@6B@:QWORD			; type_info::`vftable'
EXTRN	___security_cookie:DWORD
EXTRN	__fltused:DWORD
;	COMDAT __xmm@80000000000000008000000000000000
CONST	SEGMENT
__xmm@80000000000000008000000000000000 DB 00H, 00H, 00H, 00H, 00H, 00H, 00H
	DB	080H, 00H, 00H, 00H, 00H, 00H, 00H, 00H, 080H
CONST	ENDS
;	COMDAT __real@0000000000000000
CONST	SEGMENT
__real@0000000000000000 DQ 00000000000000000r	; 0
CONST	ENDS
;	COMDAT ??_R1A@?0A@EA@CRgn@@8
rdata$r	SEGMENT
??_R1A@?0A@EA@CRgn@@8 DD FLAT:??_R0?AVCRgn@@@8		; CRgn::`RTTI Base Class Descriptor at (0,-1,0,64)'
	DD	02H
	DD	00H
	DD	0ffffffffH
	DD	00H
	DD	040H
	DD	FLAT:??_R3CRgn@@8
rdata$r	ENDS
;	COMDAT ??_R2CRgn@@8
rdata$r	SEGMENT
??_R2CRgn@@8 DD	FLAT:??_R1A@?0A@EA@CRgn@@8		; CRgn::`RTTI Base Class Array'
	DD	FLAT:??_R1A@?0A@EA@CGdiObject@@8
	DD	FLAT:??_R1A@?0A@EA@CObject@@8
rdata$r	ENDS
;	COMDAT ??_R3CRgn@@8
rdata$r	SEGMENT
??_R3CRgn@@8 DD	00H					; CRgn::`RTTI Class Hierarchy Descriptor'
	DD	00H
	DD	03H
	DD	FLAT:??_R2CRgn@@8
rdata$r	ENDS
;	COMDAT ??_R0?AVCRgn@@@8
data$rs	SEGMENT
??_R0?AVCRgn@@@8 DD FLAT:??_7type_info@@6B@		; CRgn `RTTI Type Descriptor'
	DD	00H
	DB	'.?AVCRgn@@', 00H
data$rs	ENDS
;	COMDAT ??_R4CRgn@@6B@
rdata$r	SEGMENT
??_R4CRgn@@6B@ DD 00H					; CRgn::`RTTI Complete Object Locator'
	DD	00H
	DD	00H
	DD	FLAT:??_R0?AVCRgn@@@8
	DD	FLAT:??_R3CRgn@@8
rdata$r	ENDS
;	COMDAT ??_R1A@?0A@EA@CBrush@@8
rdata$r	SEGMENT
??_R1A@?0A@EA@CBrush@@8 DD FLAT:??_R0?AVCBrush@@@8	; CBrush::`RTTI Base Class Descriptor at (0,-1,0,64)'
	DD	02H
	DD	00H
	DD	0ffffffffH
	DD	00H
	DD	040H
	DD	FLAT:??_R3CBrush@@8
rdata$r	ENDS
;	COMDAT ??_R2CBrush@@8
rdata$r	SEGMENT
??_R2CBrush@@8 DD FLAT:??_R1A@?0A@EA@CBrush@@8		; CBrush::`RTTI Base Class Array'
	DD	FLAT:??_R1A@?0A@EA@CGdiObject@@8
	DD	FLAT:??_R1A@?0A@EA@CObject@@8
rdata$r	ENDS
;	COMDAT ??_R3CBrush@@8
rdata$r	SEGMENT
??_R3CBrush@@8 DD 00H					; CBrush::`RTTI Class Hierarchy Descriptor'
	DD	00H
	DD	03H
	DD	FLAT:??_R2CBrush@@8
rdata$r	ENDS
;	COMDAT ??_R0?AVCBrush@@@8
data$rs	SEGMENT
??_R0?AVCBrush@@@8 DD FLAT:??_7type_info@@6B@		; CBrush `RTTI Type Descriptor'
	DD	00H
	DB	'.?AVCBrush@@', 00H
data$rs	ENDS
;	COMDAT ??_R4CBrush@@6B@
rdata$r	SEGMENT
??_R4CBrush@@6B@ DD 00H					; CBrush::`RTTI Complete Object Locator'
	DD	00H
	DD	00H
	DD	FLAT:??_R0?AVCBrush@@@8
	DD	FLAT:??_R3CBrush@@8
rdata$r	ENDS
;	COMDAT ??_R1A@?0A@EA@CPen@@8
rdata$r	SEGMENT
??_R1A@?0A@EA@CPen@@8 DD FLAT:??_R0?AVCPen@@@8		; CPen::`RTTI Base Class Descriptor at (0,-1,0,64)'
	DD	02H
	DD	00H
	DD	0ffffffffH
	DD	00H
	DD	040H
	DD	FLAT:??_R3CPen@@8
rdata$r	ENDS
;	COMDAT ??_R2CPen@@8
rdata$r	SEGMENT
??_R2CPen@@8 DD	FLAT:??_R1A@?0A@EA@CPen@@8		; CPen::`RTTI Base Class Array'
	DD	FLAT:??_R1A@?0A@EA@CGdiObject@@8
	DD	FLAT:??_R1A@?0A@EA@CObject@@8
rdata$r	ENDS
;	COMDAT ??_R3CPen@@8
rdata$r	SEGMENT
??_R3CPen@@8 DD	00H					; CPen::`RTTI Class Hierarchy Descriptor'
	DD	00H
	DD	03H
	DD	FLAT:??_R2CPen@@8
rdata$r	ENDS
;	COMDAT ??_R0?AVCPen@@@8
data$rs	SEGMENT
??_R0?AVCPen@@@8 DD FLAT:??_7type_info@@6B@		; CPen `RTTI Type Descriptor'
	DD	00H
	DB	'.?AVCPen@@', 00H
data$rs	ENDS
;	COMDAT ??_R4CPen@@6B@
rdata$r	SEGMENT
??_R4CPen@@6B@ DD 00H					; CPen::`RTTI Complete Object Locator'
	DD	00H
	DD	00H
	DD	FLAT:??_R0?AVCPen@@@8
	DD	FLAT:??_R3CPen@@8
rdata$r	ENDS
;	COMDAT ??_R1A@?0A@EA@CGdiObject@@8
rdata$r	SEGMENT
??_R1A@?0A@EA@CGdiObject@@8 DD FLAT:??_R0?AVCGdiObject@@@8 ; CGdiObject::`RTTI Base Class Descriptor at (0,-1,0,64)'
	DD	01H
	DD	00H
	DD	0ffffffffH
	DD	00H
	DD	040H
	DD	FLAT:??_R3CGdiObject@@8
rdata$r	ENDS
;	COMDAT ??_R2CGdiObject@@8
rdata$r	SEGMENT
??_R2CGdiObject@@8 DD FLAT:??_R1A@?0A@EA@CGdiObject@@8	; CGdiObject::`RTTI Base Class Array'
	DD	FLAT:??_R1A@?0A@EA@CObject@@8
rdata$r	ENDS
;	COMDAT ??_R3CGdiObject@@8
rdata$r	SEGMENT
??_R3CGdiObject@@8 DD 00H				; CGdiObject::`RTTI Class Hierarchy Descriptor'
	DD	00H
	DD	02H
	DD	FLAT:??_R2CGdiObject@@8
rdata$r	ENDS
;	COMDAT ??_R0?AVCGdiObject@@@8
data$rs	SEGMENT
??_R0?AVCGdiObject@@@8 DD FLAT:??_7type_info@@6B@	; CGdiObject `RTTI Type Descriptor'
	DD	00H
	DB	'.?AVCGdiObject@@', 00H
data$rs	ENDS
;	COMDAT ??_R4CGdiObject@@6B@
rdata$r	SEGMENT
??_R4CGdiObject@@6B@ DD 00H				; CGdiObject::`RTTI Complete Object Locator'
	DD	00H
	DD	00H
	DD	FLAT:??_R0?AVCGdiObject@@@8
	DD	FLAT:??_R3CGdiObject@@8
rdata$r	ENDS
;	COMDAT ??_R1A@?0A@EA@CObject@@8
rdata$r	SEGMENT
??_R1A@?0A@EA@CObject@@8 DD FLAT:??_R0?AVCObject@@@8	; CObject::`RTTI Base Class Descriptor at (0,-1,0,64)'
	DD	00H
	DD	00H
	DD	0ffffffffH
	DD	00H
	DD	040H
	DD	FLAT:??_R3CObject@@8
rdata$r	ENDS
;	COMDAT ??_R2CObject@@8
rdata$r	SEGMENT
??_R2CObject@@8 DD FLAT:??_R1A@?0A@EA@CObject@@8	; CObject::`RTTI Base Class Array'
rdata$r	ENDS
;	COMDAT ??_R3CObject@@8
rdata$r	SEGMENT
??_R3CObject@@8 DD 00H					; CObject::`RTTI Class Hierarchy Descriptor'
	DD	00H
	DD	01H
	DD	FLAT:??_R2CObject@@8
rdata$r	ENDS
;	COMDAT ??_R0?AVCObject@@@8
data$rs	SEGMENT
??_R0?AVCObject@@@8 DD FLAT:??_7type_info@@6B@		; CObject `RTTI Type Descriptor'
	DD	00H
	DB	'.?AVCObject@@', 00H
data$rs	ENDS
;	COMDAT ??_C@_0N@OMEMOKLE@?$CFTs?5?$CI?$CFTs?3?$CFd?$CJ@
CONST	SEGMENT
??_C@_0N@OMEMOKLE@?$CFTs?5?$CI?$CFTs?3?$CFd?$CJ@ DB '%Ts (%Ts:%d)', 00H ; `string'
CONST	ENDS
;	COMDAT ??_C@_0BB@HBOOMJBF@?$CFTs?5?$CI?$CFTs?3?$CFd?$CJ?6?$CFTs@
CONST	SEGMENT
??_C@_0BB@HBOOMJBF@?$CFTs?5?$CI?$CFTs?3?$CFd?$CJ?6?$CFTs@ DB '%Ts (%Ts:%d'
	DB	')', 0aH, '%Ts', 00H				; `string'
CONST	ENDS
;	COMDAT ??_C@_0BP@OIEOKIDM@Exception?5thrown?5in?5destructor@
CONST	SEGMENT
??_C@_0BP@OIEOKIDM@Exception?5thrown?5in?5destructor@ DB 'Exception throw'
	DB	'n in destructor', 00H			; `string'
CONST	ENDS
;	COMDAT ??_C@_0HD@JJCHHHNK@C?3?2Program?5Files?5?$CIx86?$CJ?2Microsof@
CONST	SEGMENT
??_C@_0HD@JJCHHHNK@C?3?2Program?5Files?5?$CIx86?$CJ?2Microsof@ DB 'C:\Pro'
	DB	'gram Files (x86)\Microsoft Visual Studio\2019\Community\VC\To'
	DB	'ols\MSVC\14.29.30133\atlmfc\include\afxwin1.inl', 00H ; `string'
CONST	ENDS
;	COMDAT ??_7CRgn@@6B@
CONST	SEGMENT
??_7CRgn@@6B@ DD FLAT:??_R4CRgn@@6B@			; CRgn::`vftable'
	DD	FLAT:?GetRuntimeClass@CRgn@@UBEPAUCRuntimeClass@@XZ
	DD	FLAT:??_ECRgn@@UAEPAXI@Z
	DD	FLAT:?Serialize@CObject@@UAEXAAVCArchive@@@Z
	DD	FLAT:?AssertValid@CObject@@UBEXXZ
	DD	FLAT:?Dump@CObject@@UBEXAAVCDumpContext@@@Z
CONST	ENDS
;	COMDAT ??_7CBrush@@6B@
CONST	SEGMENT
??_7CBrush@@6B@ DD FLAT:??_R4CBrush@@6B@		; CBrush::`vftable'
	DD	FLAT:?GetRuntimeClass@CBrush@@UBEPAUCRuntimeClass@@XZ
	DD	FLAT:??_ECBrush@@UAEPAXI@Z
	DD	FLAT:?Serialize@CObject@@UAEXAAVCArchive@@@Z
	DD	FLAT:?AssertValid@CObject@@UBEXXZ
	DD	FLAT:?Dump@CObject@@UBEXAAVCDumpContext@@@Z
CONST	ENDS
;	COMDAT ??_7CPen@@6B@
CONST	SEGMENT
??_7CPen@@6B@ DD FLAT:??_R4CPen@@6B@			; CPen::`vftable'
	DD	FLAT:?GetRuntimeClass@CPen@@UBEPAUCRuntimeClass@@XZ
	DD	FLAT:??_ECPen@@UAEPAXI@Z
	DD	FLAT:?Serialize@CObject@@UAEXAAVCArchive@@@Z
	DD	FLAT:?AssertValid@CObject@@UBEXXZ
	DD	FLAT:?Dump@CObject@@UBEXAAVCDumpContext@@@Z
CONST	ENDS
;	COMDAT ??_7CGdiObject@@6B@
CONST	SEGMENT
??_7CGdiObject@@6B@ DD FLAT:??_R4CGdiObject@@6B@	; CGdiObject::`vftable'
	DD	FLAT:?GetRuntimeClass@CGdiObject@@UBEPAUCRuntimeClass@@XZ
	DD	FLAT:??_ECGdiObject@@UAEPAXI@Z
	DD	FLAT:?Serialize@CObject@@UAEXAAVCArchive@@@Z
	DD	FLAT:?AssertValid@CObject@@UBEXXZ
	DD	FLAT:?Dump@CObject@@UBEXAAVCDumpContext@@@Z
CONST	ENDS
;	COMDAT ??_R0PAVCException@@@8
data$r	SEGMENT
??_R0PAVCException@@@8 DD FLAT:??_7type_info@@6B@	; CException * `RTTI Type Descriptor'
	DD	00H
	DB	'.PAVCException@@', 00H
data$r	ENDS
;	COMDAT xdata$x
xdata$x	SEGMENT
__unwindtable$?DrawStyleLine@CDrawer@@IAEXPAVCDC@@ABVCPoint@@1I@Z DD 0ffffffffH
	DD	FLAT:__unwindfunclet$?DrawStyleLine@CDrawer@@IAEXPAVCDC@@ABVCPoint@@1I@Z$0
__ehfuncinfo$?DrawStyleLine@CDrawer@@IAEXPAVCDC@@ABVCPoint@@1I@Z DD 019930522H
	DD	01H
	DD	FLAT:__unwindtable$?DrawStyleLine@CDrawer@@IAEXPAVCDC@@ABVCPoint@@1I@Z
	DD	2 DUP(00H)
	DD	2 DUP(00H)
	DD	00H
	DD	01H
xdata$x	ENDS
;	COMDAT xdata$x
xdata$x	SEGMENT
__unwindtable$?DrawRectangle@CDrawer@@IAEXPAVCDC@@ABVCRect@@ABK2_N@Z DD 0ffffffffH
	DD	FLAT:__unwindfunclet$?DrawRectangle@CDrawer@@IAEXPAVCDC@@ABVCRect@@ABK2_N@Z$0
	DD	00H
	DD	FLAT:__unwindfunclet$?DrawRectangle@CDrawer@@IAEXPAVCDC@@ABVCRect@@ABK2_N@Z$1
__ehfuncinfo$?DrawRectangle@CDrawer@@IAEXPAVCDC@@ABVCRect@@ABK2_N@Z DD 019930522H
	DD	02H
	DD	FLAT:__unwindtable$?DrawRectangle@CDrawer@@IAEXPAVCDC@@ABVCRect@@ABK2_N@Z
	DD	2 DUP(00H)
	DD	2 DUP(00H)
	DD	00H
	DD	01H
xdata$x	ENDS
;	COMDAT xdata$x
xdata$x	SEGMENT
__unwindtable$?DrawRect@CDrawer@@IAEXPAVCDC@@ABVCRect@@ABK_N@Z DD 0ffffffffH
	DD	FLAT:__unwindfunclet$?DrawRect@CDrawer@@IAEXPAVCDC@@ABVCRect@@ABK_N@Z$0
__ehfuncinfo$?DrawRect@CDrawer@@IAEXPAVCDC@@ABVCRect@@ABK_N@Z DD 019930522H
	DD	01H
	DD	FLAT:__unwindtable$?DrawRect@CDrawer@@IAEXPAVCDC@@ABVCRect@@ABK_N@Z
	DD	2 DUP(00H)
	DD	2 DUP(00H)
	DD	00H
	DD	01H
xdata$x	ENDS
;	COMDAT xdata$x
xdata$x	SEGMENT
__unwindtable$?SelectNewDrawingMode@CDrawer@@IAEXPAVCDC@@ABVCRect@@H@Z DD 0ffffffffH
	DD	FLAT:__unwindfunclet$?SelectNewDrawingMode@CDrawer@@IAEXPAVCDC@@ABVCRect@@H@Z$0
__ehfuncinfo$?SelectNewDrawingMode@CDrawer@@IAEXPAVCDC@@ABVCRect@@H@Z DD 019930522H
	DD	01H
	DD	FLAT:__unwindtable$?SelectNewDrawingMode@CDrawer@@IAEXPAVCDC@@ABVCRect@@H@Z
	DD	2 DUP(00H)
	DD	2 DUP(00H)
	DD	00H
	DD	01H
xdata$x	ENDS
;	COMDAT xdata$x
xdata$x	SEGMENT
__unwindtable$?SelectClipRegion@CDrawer@@IAEXPAVCDC@@ABVCRect@@@Z DD 0ffffffffH
	DD	FLAT:__unwindfunclet$?SelectClipRegion@CDrawer@@IAEXPAVCDC@@ABVCRect@@@Z$0
__ehfuncinfo$?SelectClipRegion@CDrawer@@IAEXPAVCDC@@ABVCRect@@@Z DD 019930522H
	DD	01H
	DD	FLAT:__unwindtable$?SelectClipRegion@CDrawer@@IAEXPAVCDC@@ABVCRect@@@Z
	DD	2 DUP(00H)
	DD	2 DUP(00H)
	DD	00H
	DD	01H
xdata$x	ENDS
;	COMDAT xdata$x
xdata$x	SEGMENT
__catchsym$??1CGdiObject@@UAE@XZ$3 DD 00H
	DD	FLAT:??_R0PAVCException@@@8
	DD	0fffffde4H
	DD	FLAT:__catch$??1CGdiObject@@UAE@XZ$0
__tryblocktable$??1CGdiObject@@UAE@XZ DD 00H
	DD	00H
	DD	02H
	DD	01H
	DD	FLAT:__catchsym$??1CGdiObject@@UAE@XZ$3
__unwindtable$??1CGdiObject@@UAE@XZ DD 0ffffffffH
	DD	00H
	DD	0ffffffffH
	DD	00H
	DD	01H
	DD	FLAT:__unwindfunclet$??1CGdiObject@@UAE@XZ$2
__ehfuncinfo$??1CGdiObject@@UAE@XZ DD 019930522H
	DD	03H
	DD	FLAT:__unwindtable$??1CGdiObject@@UAE@XZ
	DD	01H
	DD	FLAT:__tryblocktable$??1CGdiObject@@UAE@XZ
	DD	2 DUP(00H)
	DD	00H
	DD	05H
xdata$x	ENDS
; Function compile flags: /Ogtp
; File D:\git\src\IBK\IBK_DRFN\ProjSrc\SrcChartEx\ChartAddIn\ChartAnalysisToolAddIn\AnalysisTool\Drawer.cpp
; File C:\Program Files (x86)\Microsoft Visual Studio\2019\Community\VC\Tools\MSVC\14.29.30133\atlmfc\include\atltypes.h
; File D:\git\src\IBK\IBK_DRFN\ProjSrc\SrcChartEx\ChartAddIn\ChartAnalysisToolAddIn\AnalysisTool\Drawer.cpp
; File C:\Program Files (x86)\Microsoft Visual Studio\2019\Community\VC\Tools\MSVC\14.29.30133\atlmfc\include\atltypes.h
; File D:\git\src\IBK\IBK_DRFN\ProjSrc\SrcChartEx\ChartAddIn\ChartAnalysisToolAddIn\AnalysisTool\Drawer.cpp
; File C:\Program Files (x86)\Microsoft Visual Studio\2019\Community\VC\Tools\MSVC\14.29.30133\atlmfc\include\atltypes.h
; File D:\git\src\IBK\IBK_DRFN\ProjSrc\SrcChartEx\ChartAddIn\ChartAnalysisToolAddIn\AnalysisTool\Drawer.cpp
; File C:\Program Files (x86)\Microsoft Visual Studio\2019\Community\VC\Tools\MSVC\14.29.30133\atlmfc\include\atltypes.h
; File D:\git\src\IBK\IBK_DRFN\ProjSrc\SrcChartEx\ChartAddIn\ChartAnalysisToolAddIn\AnalysisTool\Drawer.cpp
; File C:\Program Files (x86)\Microsoft Visual Studio\2019\Community\VC\Tools\MSVC\14.29.30133\atlmfc\include\atltypes.h
; File D:\git\src\IBK\IBK_DRFN\ProjSrc\SrcChartEx\ChartAddIn\ChartAnalysisToolAddIn\AnalysisTool\Drawer.cpp
; File C:\Program Files (x86)\Microsoft Visual Studio\2019\Community\VC\Tools\MSVC\14.29.30133\atlmfc\include\atltypes.h
; File D:\git\src\IBK\IBK_DRFN\ProjSrc\SrcChartEx\ChartAddIn\ChartAnalysisToolAddIn\AnalysisTool\Drawer.cpp
; File C:\Program Files (x86)\Microsoft Visual Studio\2019\Community\VC\Tools\MSVC\14.29.30133\atlmfc\include\atltypes.h
; File D:\git\src\IBK\IBK_DRFN\ProjSrc\SrcChartEx\ChartAddIn\ChartAnalysisToolAddIn\AnalysisTool\Drawer.cpp
; File C:\Program Files (x86)\Microsoft Visual Studio\2019\Community\VC\Tools\MSVC\14.29.30133\atlmfc\include\atltypes.h
; File D:\git\src\IBK\IBK_DRFN\ProjSrc\SrcChartEx\ChartAddIn\ChartAnalysisToolAddIn\AnalysisTool\Drawer.cpp
; File C:\Program Files (x86)\Microsoft Visual Studio\2019\Community\VC\Tools\MSVC\14.29.30133\atlmfc\include\atltypes.h
; File D:\git\src\IBK\IBK_DRFN\ProjSrc\SrcChartEx\ChartAddIn\ChartAnalysisToolAddIn\AnalysisTool\Drawer.cpp
; File C:\Program Files (x86)\Microsoft Visual Studio\2019\Community\VC\Tools\MSVC\14.29.30133\atlmfc\include\atltypes.h
; File D:\git\src\IBK\IBK_DRFN\ProjSrc\SrcChartEx\ChartAddIn\ChartAnalysisToolAddIn\AnalysisTool\Drawer.cpp
; File C:\Program Files (x86)\Microsoft Visual Studio\2019\Community\VC\Tools\MSVC\14.29.30133\atlmfc\include\atltypes.h
; File D:\git\src\IBK\IBK_DRFN\ProjSrc\SrcChartEx\ChartAddIn\ChartAnalysisToolAddIn\AnalysisTool\Drawer.cpp
; File C:\Program Files (x86)\Microsoft Visual Studio\2019\Community\VC\Tools\MSVC\14.29.30133\atlmfc\include\atltypes.h
; File D:\git\src\IBK\IBK_DRFN\ProjSrc\SrcChartEx\ChartAddIn\ChartAnalysisToolAddIn\AnalysisTool\Drawer.cpp
; File C:\Program Files (x86)\Microsoft Visual Studio\2019\Community\VC\Tools\MSVC\14.29.30133\atlmfc\include\atltypes.h
; File D:\git\src\IBK\IBK_DRFN\ProjSrc\SrcChartEx\ChartAddIn\ChartAnalysisToolAddIn\AnalysisTool\Drawer.cpp
; File C:\Program Files (x86)\Microsoft Visual Studio\2019\Community\VC\Tools\MSVC\14.29.30133\atlmfc\include\atltypes.h
; File D:\git\src\IBK\IBK_DRFN\ProjSrc\SrcChartEx\ChartAddIn\ChartAnalysisToolAddIn\AnalysisTool\Drawer.cpp
; File C:\Program Files (x86)\Microsoft Visual Studio\2019\Community\VC\Tools\MSVC\14.29.30133\atlmfc\include\atltypes.h
; File D:\git\src\IBK\IBK_DRFN\ProjSrc\SrcChartEx\ChartAddIn\ChartAnalysisToolAddIn\AnalysisTool\Drawer.cpp
; File C:\Program Files (x86)\Microsoft Visual Studio\2019\Community\VC\Tools\MSVC\14.29.30133\atlmfc\include\atltypes.h
; File D:\git\src\IBK\IBK_DRFN\ProjSrc\SrcChartEx\ChartAddIn\ChartAnalysisToolAddIn\AnalysisTool\Drawer.cpp
; File C:\Program Files (x86)\Microsoft Visual Studio\2019\Community\VC\Tools\MSVC\14.29.30133\atlmfc\include\atltypes.h
; File D:\git\src\IBK\IBK_DRFN\ProjSrc\SrcChartEx\ChartAddIn\ChartAnalysisToolAddIn\AnalysisTool\Drawer.cpp
; File C:\Program Files (x86)\Microsoft Visual Studio\2019\Community\VC\Tools\MSVC\14.29.30133\atlmfc\include\atltypes.h
; File D:\git\src\IBK\IBK_DRFN\ProjSrc\SrcChartEx\ChartAddIn\ChartAnalysisToolAddIn\AnalysisTool\Drawer.cpp
; File C:\Program Files (x86)\Microsoft Visual Studio\2019\Community\VC\Tools\MSVC\14.29.30133\atlmfc\include\atltypes.h
; File D:\git\src\IBK\IBK_DRFN\ProjSrc\SrcChartEx\ChartAddIn\ChartAnalysisToolAddIn\AnalysisTool\Drawer.cpp
; File C:\Program Files (x86)\Microsoft Visual Studio\2019\Community\VC\Tools\MSVC\14.29.30133\atlmfc\include\atltypes.h
; File D:\git\src\IBK\IBK_DRFN\ProjSrc\SrcChartEx\ChartAddIn\ChartAnalysisToolAddIn\AnalysisTool\Drawer.cpp
; File C:\Program Files (x86)\Microsoft Visual Studio\2019\Community\VC\Tools\MSVC\14.29.30133\atlmfc\include\atltypes.h
; File D:\git\src\IBK\IBK_DRFN\ProjSrc\SrcChartEx\ChartAddIn\ChartAnalysisToolAddIn\AnalysisTool\Drawer.cpp
; File C:\Program Files (x86)\Microsoft Visual Studio\2019\Community\VC\Tools\MSVC\14.29.30133\atlmfc\include\atltypes.h
; File D:\git\src\IBK\IBK_DRFN\ProjSrc\SrcChartEx\ChartAddIn\ChartAnalysisToolAddIn\AnalysisTool\Drawer.cpp
;	COMDAT ?GetTextPosition@CDrawer@@ABE?AVCPoint@@W4TEXTPOSITION@1@ABV2@ABVCSize@@2@Z
_TEXT	SEGMENT
tv303 = -8						; size = 8
___$ReturnUdt$ = 8					; size = 4
_eTextPosition$ = 12					; size = 4
tv467 = 16						; size = 4
_orgPoint$ = 16						; size = 4
_textSize$ = 20						; size = 4
_maxSize$ = 24						; size = 4
?GetTextPosition@CDrawer@@ABE?AVCPoint@@W4TEXTPOSITION@1@ABV2@ABVCSize@@2@Z PROC ; CDrawer::GetTextPosition, COMDAT
; _this$ = ecx

; 618  : {

  00000	55		 push	 ebp
  00001	8b ec		 mov	 ebp, esp

; 619  : 	switch( eTextPosition)

  00003	8b 45 0c	 mov	 eax, DWORD PTR _eTextPosition$[ebp]
  00006	83 ec 08	 sub	 esp, 8
  00009	53		 push	 ebx
  0000a	8b d9		 mov	 ebx, ecx
  0000c	56		 push	 esi
  0000d	57		 push	 edi
  0000e	83 f8 07	 cmp	 eax, 7
  00011	0f 87 55 01 00
	00		 ja	 $LN2@GetTextPos
  00017	ff 24 85 00 00
	00 00		 jmp	 DWORD PTR $LN30@GetTextPos[eax*4]
$LN4@GetTextPos:
; File C:\Program Files (x86)\Microsoft Visual Studio\2019\Community\VC\Tools\MSVC\14.29.30133\atlmfc\include\atltypes.h

; 408  : 	x = initX;

  0001e	8b 7d 10	 mov	 edi, DWORD PTR _orgPoint$[ebp]
  00021	8b 45 14	 mov	 eax, DWORD PTR _textSize$[ebp]
  00024	8b 75 08	 mov	 esi, DWORD PTR ___$ReturnUdt$[ebp]
  00027	8b 0f		 mov	 ecx, DWORD PTR [edi]
  00029	2b 08		 sub	 ecx, DWORD PTR [eax]
; File D:\git\src\IBK\IBK_DRFN\ProjSrc\SrcChartEx\ChartAddIn\ChartAnalysisToolAddIn\AnalysisTool\Drawer.cpp

; 621  : 		case LEFT:			return CPoint(orgPoint.x - (nGripSize + textSize.cx), orgPoint.y - (textSize.cy / 2));

  0002b	8b 40 04	 mov	 eax, DWORD PTR [eax+4]
  0002e	2b 0b		 sub	 ecx, DWORD PTR [ebx]
  00030	99		 cdq
  00031	2b c2		 sub	 eax, edx
; File C:\Program Files (x86)\Microsoft Visual Studio\2019\Community\VC\Tools\MSVC\14.29.30133\atlmfc\include\atltypes.h

; 408  : 	x = initX;

  00033	89 0e		 mov	 DWORD PTR [esi], ecx
; File D:\git\src\IBK\IBK_DRFN\ProjSrc\SrcChartEx\ChartAddIn\ChartAnalysisToolAddIn\AnalysisTool\Drawer.cpp

; 621  : 		case LEFT:			return CPoint(orgPoint.x - (nGripSize + textSize.cx), orgPoint.y - (textSize.cy / 2));

  00035	8b 4f 04	 mov	 ecx, DWORD PTR [edi+4]
  00038	d1 f8		 sar	 eax, 1
  0003a	2b c8		 sub	 ecx, eax
  0003c	8b c6		 mov	 eax, esi
  0003e	5f		 pop	 edi
; File C:\Program Files (x86)\Microsoft Visual Studio\2019\Community\VC\Tools\MSVC\14.29.30133\atlmfc\include\atltypes.h

; 409  : 	y = initY;

  0003f	89 4e 04	 mov	 DWORD PTR [esi+4], ecx
; File D:\git\src\IBK\IBK_DRFN\ProjSrc\SrcChartEx\ChartAddIn\ChartAnalysisToolAddIn\AnalysisTool\Drawer.cpp

; 638  : }

  00042	5e		 pop	 esi
  00043	5b		 pop	 ebx
  00044	8b e5		 mov	 esp, ebp
  00046	5d		 pop	 ebp
  00047	c2 14 00	 ret	 20			; 00000014H
$LN5@GetTextPos:

; 622  : 		case RIGHT:
; 623  : 		{
; 624  : 			CPoint point = orgPoint;

  0004a	8b 45 10	 mov	 eax, DWORD PTR _orgPoint$[ebp]

; 625  : 			if(maxSize.cx > textSize.cx) point.x += (maxSize.cx - textSize.cx);

  0004d	8b 4d 14	 mov	 ecx, DWORD PTR _textSize$[ebp]
  00050	8b 10		 mov	 edx, DWORD PTR [eax]
  00052	8b 78 04	 mov	 edi, DWORD PTR [eax+4]
  00055	8b 45 18	 mov	 eax, DWORD PTR _maxSize$[ebp]
  00058	8b 09		 mov	 ecx, DWORD PTR [ecx]
  0005a	89 55 f8	 mov	 DWORD PTR tv303[ebp], edx
  0005d	8b 00		 mov	 eax, DWORD PTR [eax]
  0005f	89 45 10	 mov	 DWORD PTR tv467[ebp], eax
  00062	3b c1		 cmp	 eax, ecx
  00064	7e 07		 jle	 SHORT $LN6@GetTextPos
  00066	2b c1		 sub	 eax, ecx
  00068	03 d0		 add	 edx, eax
  0006a	8b 45 10	 mov	 eax, DWORD PTR tv467[ebp]
$LN6@GetTextPos:
; File C:\Program Files (x86)\Microsoft Visual Studio\2019\Community\VC\Tools\MSVC\14.29.30133\atlmfc\include\atltypes.h

; 408  : 	x = initX;

  0006d	8b 75 08	 mov	 esi, DWORD PTR ___$ReturnUdt$[ebp]
; File D:\git\src\IBK\IBK_DRFN\ProjSrc\SrcChartEx\ChartAddIn\ChartAnalysisToolAddIn\AnalysisTool\Drawer.cpp

; 626  : 			return CPoint(point.x + nGripSize, point.y - (textSize.cy / 2));

  00070	8b 0b		 mov	 ecx, DWORD PTR [ebx]
  00072	03 ca		 add	 ecx, edx
; File C:\Program Files (x86)\Microsoft Visual Studio\2019\Community\VC\Tools\MSVC\14.29.30133\atlmfc\include\atltypes.h

; 408  : 	x = initX;

  00074	89 0e		 mov	 DWORD PTR [esi], ecx
; File D:\git\src\IBK\IBK_DRFN\ProjSrc\SrcChartEx\ChartAddIn\ChartAnalysisToolAddIn\AnalysisTool\Drawer.cpp

; 626  : 			return CPoint(point.x + nGripSize, point.y - (textSize.cy / 2));

  00076	8b 4d 14	 mov	 ecx, DWORD PTR _textSize$[ebp]
  00079	3b 01		 cmp	 eax, DWORD PTR [ecx]
  0007b	8b 41 04	 mov	 eax, DWORD PTR [ecx+4]
  0007e	0f 4e ff	 cmovle	 edi, edi
  00081	99		 cdq
  00082	2b c2		 sub	 eax, edx
  00084	d1 f8		 sar	 eax, 1
  00086	2b f8		 sub	 edi, eax
  00088	8b c6		 mov	 eax, esi
; File C:\Program Files (x86)\Microsoft Visual Studio\2019\Community\VC\Tools\MSVC\14.29.30133\atlmfc\include\atltypes.h

; 409  : 	y = initY;

  0008a	89 7e 04	 mov	 DWORD PTR [esi+4], edi
  0008d	5f		 pop	 edi
; File D:\git\src\IBK\IBK_DRFN\ProjSrc\SrcChartEx\ChartAddIn\ChartAnalysisToolAddIn\AnalysisTool\Drawer.cpp

; 638  : }

  0008e	5e		 pop	 esi
  0008f	5b		 pop	 ebx
  00090	8b e5		 mov	 esp, ebp
  00092	5d		 pop	 ebp
  00093	c2 14 00	 ret	 20			; 00000014H
$LN7@GetTextPos:

; 628  : 		case TOP:			return CPoint(orgPoint.x - (textSize.cx / 2),			orgPoint.y - (nGripSize + textSize.cy));

  00096	8b 75 14	 mov	 esi, DWORD PTR _textSize$[ebp]
  00099	5f		 pop	 edi
  0009a	8b 06		 mov	 eax, DWORD PTR [esi]
  0009c	99		 cdq
  0009d	2b c2		 sub	 eax, edx
  0009f	8b 55 10	 mov	 edx, DWORD PTR _orgPoint$[ebp]
  000a2	d1 f8		 sar	 eax, 1
  000a4	8b 0a		 mov	 ecx, DWORD PTR [edx]
  000a6	2b c8		 sub	 ecx, eax
; File C:\Program Files (x86)\Microsoft Visual Studio\2019\Community\VC\Tools\MSVC\14.29.30133\atlmfc\include\atltypes.h

; 408  : 	x = initX;

  000a8	8b 45 08	 mov	 eax, DWORD PTR ___$ReturnUdt$[ebp]
  000ab	89 08		 mov	 DWORD PTR [eax], ecx

; 409  : 	y = initY;

  000ad	8b 4a 04	 mov	 ecx, DWORD PTR [edx+4]
  000b0	2b 4e 04	 sub	 ecx, DWORD PTR [esi+4]
; File D:\git\src\IBK\IBK_DRFN\ProjSrc\SrcChartEx\ChartAddIn\ChartAnalysisToolAddIn\AnalysisTool\Drawer.cpp

; 628  : 		case TOP:			return CPoint(orgPoint.x - (textSize.cx / 2),			orgPoint.y - (nGripSize + textSize.cy));

  000b3	2b 0b		 sub	 ecx, DWORD PTR [ebx]

; 638  : }

  000b5	5e		 pop	 esi
; File C:\Program Files (x86)\Microsoft Visual Studio\2019\Community\VC\Tools\MSVC\14.29.30133\atlmfc\include\atltypes.h

; 409  : 	y = initY;

  000b6	89 48 04	 mov	 DWORD PTR [eax+4], ecx
; File D:\git\src\IBK\IBK_DRFN\ProjSrc\SrcChartEx\ChartAddIn\ChartAnalysisToolAddIn\AnalysisTool\Drawer.cpp

; 638  : }

  000b9	5b		 pop	 ebx
  000ba	8b e5		 mov	 esp, ebp
  000bc	5d		 pop	 ebp
  000bd	c2 14 00	 ret	 20			; 00000014H
$LN8@GetTextPos:

; 629  : 		case BOTTOM:		return CPoint(orgPoint.x - (textSize.cx / 2),			orgPoint.y + nGripSize);

  000c0	8b 45 14	 mov	 eax, DWORD PTR _textSize$[ebp]
  000c3	5f		 pop	 edi

; 638  : }

  000c4	5e		 pop	 esi
  000c5	8b 00		 mov	 eax, DWORD PTR [eax]
  000c7	99		 cdq
  000c8	2b c2		 sub	 eax, edx
  000ca	8b 55 10	 mov	 edx, DWORD PTR _orgPoint$[ebp]
  000cd	d1 f8		 sar	 eax, 1
  000cf	8b 0a		 mov	 ecx, DWORD PTR [edx]
  000d1	2b c8		 sub	 ecx, eax
; File C:\Program Files (x86)\Microsoft Visual Studio\2019\Community\VC\Tools\MSVC\14.29.30133\atlmfc\include\atltypes.h

; 408  : 	x = initX;

  000d3	8b 45 08	 mov	 eax, DWORD PTR ___$ReturnUdt$[ebp]
  000d6	89 08		 mov	 DWORD PTR [eax], ecx
; File D:\git\src\IBK\IBK_DRFN\ProjSrc\SrcChartEx\ChartAddIn\ChartAnalysisToolAddIn\AnalysisTool\Drawer.cpp

; 629  : 		case BOTTOM:		return CPoint(orgPoint.x - (textSize.cx / 2),			orgPoint.y + nGripSize);

  000d8	8b 4a 04	 mov	 ecx, DWORD PTR [edx+4]
  000db	03 0b		 add	 ecx, DWORD PTR [ebx]
; File C:\Program Files (x86)\Microsoft Visual Studio\2019\Community\VC\Tools\MSVC\14.29.30133\atlmfc\include\atltypes.h

; 409  : 	y = initY;

  000dd	89 48 04	 mov	 DWORD PTR [eax+4], ecx
; File D:\git\src\IBK\IBK_DRFN\ProjSrc\SrcChartEx\ChartAddIn\ChartAnalysisToolAddIn\AnalysisTool\Drawer.cpp

; 638  : }

  000e0	5b		 pop	 ebx
  000e1	8b e5		 mov	 esp, ebp
  000e3	5d		 pop	 ebp
  000e4	c2 14 00	 ret	 20			; 00000014H
$LN9@GetTextPos:
; File C:\Program Files (x86)\Microsoft Visual Studio\2019\Community\VC\Tools\MSVC\14.29.30133\atlmfc\include\atltypes.h

; 408  : 	x = initX;

  000e7	8b 75 10	 mov	 esi, DWORD PTR _orgPoint$[ebp]
  000ea	8b 55 14	 mov	 edx, DWORD PTR _textSize$[ebp]
  000ed	8b 45 08	 mov	 eax, DWORD PTR ___$ReturnUdt$[ebp]
  000f0	5f		 pop	 edi
  000f1	8b 0e		 mov	 ecx, DWORD PTR [esi]
  000f3	2b 0a		 sub	 ecx, DWORD PTR [edx]
; File D:\git\src\IBK\IBK_DRFN\ProjSrc\SrcChartEx\ChartAddIn\ChartAnalysisToolAddIn\AnalysisTool\Drawer.cpp

; 631  : 		case TOP_LEFT:		return CPoint( orgPoint.x - (nGripSize + textSize.cx),	orgPoint.y - textSize.cy);

  000f5	2b 0b		 sub	 ecx, DWORD PTR [ebx]
; File C:\Program Files (x86)\Microsoft Visual Studio\2019\Community\VC\Tools\MSVC\14.29.30133\atlmfc\include\atltypes.h

; 408  : 	x = initX;

  000f7	89 08		 mov	 DWORD PTR [eax], ecx
; File D:\git\src\IBK\IBK_DRFN\ProjSrc\SrcChartEx\ChartAddIn\ChartAnalysisToolAddIn\AnalysisTool\Drawer.cpp

; 631  : 		case TOP_LEFT:		return CPoint( orgPoint.x - (nGripSize + textSize.cx),	orgPoint.y - textSize.cy);

  000f9	8b 4e 04	 mov	 ecx, DWORD PTR [esi+4]
  000fc	2b 4a 04	 sub	 ecx, DWORD PTR [edx+4]

; 638  : }

  000ff	5e		 pop	 esi
; File C:\Program Files (x86)\Microsoft Visual Studio\2019\Community\VC\Tools\MSVC\14.29.30133\atlmfc\include\atltypes.h

; 409  : 	y = initY;

  00100	89 48 04	 mov	 DWORD PTR [eax+4], ecx
; File D:\git\src\IBK\IBK_DRFN\ProjSrc\SrcChartEx\ChartAddIn\ChartAnalysisToolAddIn\AnalysisTool\Drawer.cpp

; 638  : }

  00103	5b		 pop	 ebx
  00104	8b e5		 mov	 esp, ebp
  00106	5d		 pop	 ebp
  00107	c2 14 00	 ret	 20			; 00000014H
$LN10@GetTextPos:

; 632  : 		case TOP_RIGHT:		return CPoint( orgPoint.x + nGripSize,					orgPoint.y - textSize.cy);

  0010a	8b 55 10	 mov	 edx, DWORD PTR _orgPoint$[ebp]
; File C:\Program Files (x86)\Microsoft Visual Studio\2019\Community\VC\Tools\MSVC\14.29.30133\atlmfc\include\atltypes.h

; 408  : 	x = initX;

  0010d	8b 45 08	 mov	 eax, DWORD PTR ___$ReturnUdt$[ebp]
  00110	5f		 pop	 edi
; File D:\git\src\IBK\IBK_DRFN\ProjSrc\SrcChartEx\ChartAddIn\ChartAnalysisToolAddIn\AnalysisTool\Drawer.cpp

; 638  : }

  00111	5e		 pop	 esi
  00112	8b 0a		 mov	 ecx, DWORD PTR [edx]
  00114	03 0b		 add	 ecx, DWORD PTR [ebx]
  00116	8b 52 04	 mov	 edx, DWORD PTR [edx+4]
; File C:\Program Files (x86)\Microsoft Visual Studio\2019\Community\VC\Tools\MSVC\14.29.30133\atlmfc\include\atltypes.h

; 408  : 	x = initX;

  00119	89 08		 mov	 DWORD PTR [eax], ecx
; File D:\git\src\IBK\IBK_DRFN\ProjSrc\SrcChartEx\ChartAddIn\ChartAnalysisToolAddIn\AnalysisTool\Drawer.cpp

; 632  : 		case TOP_RIGHT:		return CPoint( orgPoint.x + nGripSize,					orgPoint.y - textSize.cy);

  0011b	8b 4d 14	 mov	 ecx, DWORD PTR _textSize$[ebp]

; 638  : }

  0011e	5b		 pop	 ebx
  0011f	2b 51 04	 sub	 edx, DWORD PTR [ecx+4]
  00122	89 50 04	 mov	 DWORD PTR [eax+4], edx
  00125	8b e5		 mov	 esp, ebp
  00127	5d		 pop	 ebp
  00128	c2 14 00	 ret	 20			; 00000014H
$LN11@GetTextPos:
; File C:\Program Files (x86)\Microsoft Visual Studio\2019\Community\VC\Tools\MSVC\14.29.30133\atlmfc\include\atltypes.h

; 408  : 	x = initX;

  0012b	8b 55 10	 mov	 edx, DWORD PTR _orgPoint$[ebp]
  0012e	8b 45 14	 mov	 eax, DWORD PTR _textSize$[ebp]
  00131	5f		 pop	 edi
; File D:\git\src\IBK\IBK_DRFN\ProjSrc\SrcChartEx\ChartAddIn\ChartAnalysisToolAddIn\AnalysisTool\Drawer.cpp

; 638  : }

  00132	5e		 pop	 esi
; File C:\Program Files (x86)\Microsoft Visual Studio\2019\Community\VC\Tools\MSVC\14.29.30133\atlmfc\include\atltypes.h

; 408  : 	x = initX;

  00133	8b 0a		 mov	 ecx, DWORD PTR [edx]
  00135	2b 08		 sub	 ecx, DWORD PTR [eax]
  00137	8b 45 08	 mov	 eax, DWORD PTR ___$ReturnUdt$[ebp]
; File D:\git\src\IBK\IBK_DRFN\ProjSrc\SrcChartEx\ChartAddIn\ChartAnalysisToolAddIn\AnalysisTool\Drawer.cpp

; 633  : 		case BOTTOM_LEFT:	return CPoint( orgPoint.x - (nGripSize + textSize.cx),	orgPoint.y + 2);

  0013a	2b 0b		 sub	 ecx, DWORD PTR [ebx]

; 638  : }

  0013c	5b		 pop	 ebx
; File C:\Program Files (x86)\Microsoft Visual Studio\2019\Community\VC\Tools\MSVC\14.29.30133\atlmfc\include\atltypes.h

; 408  : 	x = initX;

  0013d	89 08		 mov	 DWORD PTR [eax], ecx
; File D:\git\src\IBK\IBK_DRFN\ProjSrc\SrcChartEx\ChartAddIn\ChartAnalysisToolAddIn\AnalysisTool\Drawer.cpp

; 633  : 		case BOTTOM_LEFT:	return CPoint( orgPoint.x - (nGripSize + textSize.cx),	orgPoint.y + 2);

  0013f	8b 4a 04	 mov	 ecx, DWORD PTR [edx+4]
  00142	83 c1 02	 add	 ecx, 2
; File C:\Program Files (x86)\Microsoft Visual Studio\2019\Community\VC\Tools\MSVC\14.29.30133\atlmfc\include\atltypes.h

; 409  : 	y = initY;

  00145	89 48 04	 mov	 DWORD PTR [eax+4], ecx
; File D:\git\src\IBK\IBK_DRFN\ProjSrc\SrcChartEx\ChartAddIn\ChartAnalysisToolAddIn\AnalysisTool\Drawer.cpp

; 638  : }

  00148	8b e5		 mov	 esp, ebp
  0014a	5d		 pop	 ebp
  0014b	c2 14 00	 ret	 20			; 00000014H
$LN12@GetTextPos:

; 634  : 		case BOTTOM_RIGHT:	return CPoint( orgPoint.x + nGripSize,					orgPoint.y + 2);

  0014e	8b 55 10	 mov	 edx, DWORD PTR _orgPoint$[ebp]
; File C:\Program Files (x86)\Microsoft Visual Studio\2019\Community\VC\Tools\MSVC\14.29.30133\atlmfc\include\atltypes.h

; 408  : 	x = initX;

  00151	8b 45 08	 mov	 eax, DWORD PTR ___$ReturnUdt$[ebp]
  00154	5f		 pop	 edi
; File D:\git\src\IBK\IBK_DRFN\ProjSrc\SrcChartEx\ChartAddIn\ChartAnalysisToolAddIn\AnalysisTool\Drawer.cpp

; 638  : }

  00155	5e		 pop	 esi
  00156	8b 0a		 mov	 ecx, DWORD PTR [edx]
  00158	03 0b		 add	 ecx, DWORD PTR [ebx]
; File C:\Program Files (x86)\Microsoft Visual Studio\2019\Community\VC\Tools\MSVC\14.29.30133\atlmfc\include\atltypes.h

; 408  : 	x = initX;

  0015a	89 08		 mov	 DWORD PTR [eax], ecx
; File D:\git\src\IBK\IBK_DRFN\ProjSrc\SrcChartEx\ChartAddIn\ChartAnalysisToolAddIn\AnalysisTool\Drawer.cpp

; 634  : 		case BOTTOM_RIGHT:	return CPoint( orgPoint.x + nGripSize,					orgPoint.y + 2);

  0015c	8b 4a 04	 mov	 ecx, DWORD PTR [edx+4]
  0015f	83 c1 02	 add	 ecx, 2
; File C:\Program Files (x86)\Microsoft Visual Studio\2019\Community\VC\Tools\MSVC\14.29.30133\atlmfc\include\atltypes.h

; 409  : 	y = initY;

  00162	89 48 04	 mov	 DWORD PTR [eax+4], ecx
; File D:\git\src\IBK\IBK_DRFN\ProjSrc\SrcChartEx\ChartAddIn\ChartAnalysisToolAddIn\AnalysisTool\Drawer.cpp

; 638  : }

  00165	5b		 pop	 ebx
  00166	8b e5		 mov	 esp, ebp
  00168	5d		 pop	 ebp
  00169	c2 14 00	 ret	 20			; 00000014H
$LN2@GetTextPos:

; 635  : 	}	
; 636  : 
; 637  : 	return orgPoint;

  0016c	8b 45 10	 mov	 eax, DWORD PTR _orgPoint$[ebp]
  0016f	5f		 pop	 edi

; 638  : }

  00170	5e		 pop	 esi
  00171	5b		 pop	 ebx
  00172	8b 08		 mov	 ecx, DWORD PTR [eax]
  00174	8b 50 04	 mov	 edx, DWORD PTR [eax+4]
  00177	8b 45 08	 mov	 eax, DWORD PTR ___$ReturnUdt$[ebp]
  0017a	89 08		 mov	 DWORD PTR [eax], ecx
  0017c	89 50 04	 mov	 DWORD PTR [eax+4], edx
  0017f	8b e5		 mov	 esp, ebp
  00181	5d		 pop	 ebp
  00182	c2 14 00	 ret	 20			; 00000014H
  00185	0f 1f 00	 npad	 3
$LN30@GetTextPos:
  00188	00 00 00 00	 DD	 $LN4@GetTextPos
  0018c	00 00 00 00	 DD	 $LN5@GetTextPos
  00190	00 00 00 00	 DD	 $LN7@GetTextPos
  00194	00 00 00 00	 DD	 $LN8@GetTextPos
  00198	00 00 00 00	 DD	 $LN9@GetTextPos
  0019c	00 00 00 00	 DD	 $LN10@GetTextPos
  001a0	00 00 00 00	 DD	 $LN11@GetTextPos
  001a4	00 00 00 00	 DD	 $LN12@GetTextPos
?GetTextPosition@CDrawer@@ABE?AVCPoint@@W4TEXTPOSITION@1@ABV2@ABVCSize@@2@Z ENDP ; CDrawer::GetTextPosition
_TEXT	ENDS
; Function compile flags: /Ogtp
; File D:\git\src\IBK\IBK_DRFN\ProjSrc\SrcChartEx\ChartAddIn\ChartAnalysisToolAddIn\AnalysisTool\Drawer.cpp
;	COMDAT ?IsSame@CDrawer@@ABE_NNNNN@Z
_TEXT	SEGMENT
_x1$ = 8						; size = 8
_y1$ = 16						; size = 8
_x2$ = 24						; size = 8
_y2$ = 32						; size = 8
?IsSame@CDrawer@@ABE_NNNNN@Z PROC			; CDrawer::IsSame, COMDAT
; _this$ = ecx

; 611  : {

  00000	55		 push	 ebp
  00001	8b ec		 mov	 ebp, esp

; 612  : 	return (x1 == x2 && y1 == y2);

  00003	f2 0f 10 45 08	 movsd	 xmm0, QWORD PTR _x1$[ebp]
  00008	66 0f 2e 45 18	 ucomisd xmm0, QWORD PTR _x2$[ebp]
  0000d	9f		 lahf
  0000e	f6 c4 44	 test	 ah, 68			; 00000044H
  00011	7a 16		 jp	 SHORT $LN3@IsSame
  00013	f2 0f 10 45 10	 movsd	 xmm0, QWORD PTR _y1$[ebp]
  00018	66 0f 2e 45 20	 ucomisd xmm0, QWORD PTR _y2$[ebp]
  0001d	9f		 lahf
  0001e	f6 c4 44	 test	 ah, 68			; 00000044H
  00021	7a 06		 jp	 SHORT $LN3@IsSame
  00023	b0 01		 mov	 al, 1

; 613  : }

  00025	5d		 pop	 ebp
  00026	c2 20 00	 ret	 32			; 00000020H
$LN3@IsSame:

; 612  : 	return (x1 == x2 && y1 == y2);

  00029	32 c0		 xor	 al, al

; 613  : }

  0002b	5d		 pop	 ebp
  0002c	c2 20 00	 ret	 32			; 00000020H
?IsSame@CDrawer@@ABE_NNNNN@Z ENDP			; CDrawer::IsSame
_TEXT	ENDS
; Function compile flags: /Ogtp
; File D:\git\src\IBK\IBK_DRFN\ProjSrc\SrcChartEx\ChartAddIn\ChartAnalysisToolAddIn\AnalysisTool\Drawer.cpp
;	COMDAT ?Intersection@CDrawer@@ABE_NNNNNNNNNAAN0@Z
_TEXT	SEGMENT
tv261 = 8						; size = 8
_x1$ = 8						; size = 8
_y1$ = 16						; size = 8
_x2$ = 24						; size = 8
_y2$ = 32						; size = 8
_bx1$ = 40						; size = 8
_by1$ = 48						; size = 8
_bx2$ = 56						; size = 8
_a2$ = 64						; size = 8
_a1$ = 64						; size = 8
_by2$ = 64						; size = 8
_ix$ = 72						; size = 4
_iy$ = 76						; size = 4
?Intersection@CDrawer@@ABE_NNNNNNNNNAAN0@Z PROC		; CDrawer::Intersection, COMDAT
; _this$ = ecx

; 567  : {

  00000	55		 push	 ebp
  00001	8b ec		 mov	 ebp, esp

; 612  : 	return (x1 == x2 && y1 == y2);

  00003	f2 0f 10 55 08	 movsd	 xmm2, QWORD PTR _x1$[ebp]
  00008	f2 0f 10 5d 28	 movsd	 xmm3, QWORD PTR _bx1$[ebp]
  0000d	f2 0f 10 7d 30	 movsd	 xmm7, QWORD PTR _by1$[ebp]
  00012	f2 0f 10 75 10	 movsd	 xmm6, QWORD PTR _y1$[ebp]
  00017	66 0f 2e d3	 ucomisd xmm2, xmm3
  0001b	9f		 lahf
  0001c	f6 c4 44	 test	 ah, 68			; 00000044H
  0001f	7a 0a		 jp	 SHORT $LN34@Intersecti
  00021	66 0f 2e f7	 ucomisd xmm6, xmm7
  00025	9f		 lahf
  00026	f6 c4 44	 test	 ah, 68			; 00000044H
  00029	7b 1e		 jnp	 SHORT $LN6@Intersecti
$LN34@Intersecti:
  0002b	f2 0f 10 65 38	 movsd	 xmm4, QWORD PTR _bx2$[ebp]
  00030	f2 0f 10 6d 40	 movsd	 xmm5, QWORD PTR _by2$[ebp]
  00035	66 0f 2e d4	 ucomisd xmm2, xmm4
  00039	9f		 lahf
  0003a	f6 c4 44	 test	 ah, 68			; 00000044H
  0003d	7a 1e		 jp	 SHORT $LN38@Intersecti
  0003f	66 0f 2e f5	 ucomisd xmm6, xmm5
  00043	9f		 lahf
  00044	f6 c4 44	 test	 ah, 68			; 00000044H
  00047	7a 14		 jp	 SHORT $LN38@Intersecti
$LN6@Intersecti:

; 568  : 	double a1, a2;
; 569  : 	int status;
; 570  : 
; 571  : 	if (IsSame(x1, y1, bx1, by1) || IsSame(x1, y1, bx2, by2)){
; 572  : 		ix = x1;	iy = y1;

  00049	8b 45 48	 mov	 eax, DWORD PTR _ix$[ebp]
  0004c	f2 0f 11 10	 movsd	 QWORD PTR [eax], xmm2
  00050	8b 45 4c	 mov	 eax, DWORD PTR _iy$[ebp]
  00053	f2 0f 11 30	 movsd	 QWORD PTR [eax], xmm6

; 573  : 		return true;

  00057	b0 01		 mov	 al, 1

; 602  : 	case 5 :  
; 603  : 		return false; //조건에 위배됨
; 604  : 	case 3 : case 7 : case 11 : case 12 : case 13 : case 14 : case 15 : 
; 605  : 		return false; //사용자가 검색 필수
; 606  : 	}
; 607  : 	return false;
; 608  : }

  00059	5d		 pop	 ebp
  0005a	c2 48 00	 ret	 72			; 00000048H
$LN38@Intersecti:

; 612  : 	return (x1 == x2 && y1 == y2);

  0005d	f2 0f 10 45 18	 movsd	 xmm0, QWORD PTR _x2$[ebp]
  00062	f2 0f 10 4d 20	 movsd	 xmm1, QWORD PTR _y2$[ebp]
  00067	66 0f 2e c3	 ucomisd xmm0, xmm3
  0006b	9f		 lahf
  0006c	f6 c4 44	 test	 ah, 68			; 00000044H
  0006f	7a 0a		 jp	 SHORT $LN42@Intersecti
  00071	66 0f 2e cf	 ucomisd xmm1, xmm7
  00075	9f		 lahf
  00076	f6 c4 44	 test	 ah, 68			; 00000044H
  00079	7b 14		 jnp	 SHORT $LN8@Intersecti
$LN42@Intersecti:
  0007b	66 0f 2e c4	 ucomisd xmm0, xmm4
  0007f	9f		 lahf
  00080	f6 c4 44	 test	 ah, 68			; 00000044H
  00083	7a 1e		 jp	 SHORT $LN46@Intersecti
  00085	66 0f 2e cd	 ucomisd xmm1, xmm5
  00089	9f		 lahf
  0008a	f6 c4 44	 test	 ah, 68			; 00000044H
  0008d	7a 14		 jp	 SHORT $LN46@Intersecti
$LN8@Intersecti:

; 574  : 	} 
; 575  : 	else if (IsSame(x2, y2, bx1, by1) || IsSame(x2, y2, bx2, by2)){
; 576  : 		ix = x2;	iy = y2;

  0008f	8b 45 48	 mov	 eax, DWORD PTR _ix$[ebp]
  00092	f2 0f 11 00	 movsd	 QWORD PTR [eax], xmm0
  00096	8b 45 4c	 mov	 eax, DWORD PTR _iy$[ebp]
  00099	f2 0f 11 08	 movsd	 QWORD PTR [eax], xmm1

; 577  : 		return true;

  0009d	b0 01		 mov	 al, 1

; 602  : 	case 5 :  
; 603  : 		return false; //조건에 위배됨
; 604  : 	case 3 : case 7 : case 11 : case 12 : case 13 : case 14 : case 15 : 
; 605  : 		return false; //사용자가 검색 필수
; 606  : 	}
; 607  : 	return false;
; 608  : }

  0009f	5d		 pop	 ebp
  000a0	c2 48 00	 ret	 72			; 00000048H
$LN46@Intersecti:

; 578  : 	}
; 579  : 		
; 580  : 	status = 0;
; 581  : 	if ((x1 - x2) == 0) status += 1;	//1

  000a3	0f 28 ea	 movaps	 xmm5, xmm2
  000a6	33 c9		 xor	 ecx, ecx
  000a8	f2 0f 5c e8	 subsd	 xmm5, xmm0
  000ac	0f 57 c0	 xorps	 xmm0, xmm0
  000af	66 0f 2e e8	 ucomisd xmm5, xmm0
  000b3	f2 0f 11 6d 08	 movsd	 QWORD PTR tv261[ebp], xmm5
  000b8	9f		 lahf
  000b9	f6 c4 44	 test	 ah, 68			; 00000044H
  000bc	7a 05		 jp	 SHORT $LN9@Intersecti
  000be	b9 01 00 00 00	 mov	 ecx, 1
$LN9@Intersecti:

; 582  : 	if ((y1 - y2) == 0) status += 2;	//2

  000c3	0f 28 ee	 movaps	 xmm5, xmm6
  000c6	f2 0f 5c e9	 subsd	 xmm5, xmm1
  000ca	66 0f 2e e8	 ucomisd xmm5, xmm0
  000ce	9f		 lahf
  000cf	f6 c4 44	 test	 ah, 68			; 00000044H
  000d2	7a 03		 jp	 SHORT $LN10@Intersecti
  000d4	83 c1 02	 add	 ecx, 2
$LN10@Intersecti:

; 583  : 	if ((bx1 - bx2) == 0) status += 4;	//4

  000d7	0f 28 cb	 movaps	 xmm1, xmm3
  000da	f2 0f 5c cc	 subsd	 xmm1, xmm4
  000de	66 0f 2e c8	 ucomisd xmm1, xmm0
  000e2	9f		 lahf
  000e3	f6 c4 44	 test	 ah, 68			; 00000044H
  000e6	7a 03		 jp	 SHORT $LN11@Intersecti
  000e8	83 c1 04	 add	 ecx, 4
$LN11@Intersecti:

; 584  : 	if ((by1 - by2) == 0) status += 8;	//8

  000eb	0f 28 e7	 movaps	 xmm4, xmm7
  000ee	f2 0f 5c 65 40	 subsd	 xmm4, QWORD PTR _by2$[ebp]
  000f3	66 0f 2e e0	 ucomisd xmm4, xmm0
  000f7	9f		 lahf
  000f8	f6 c4 44	 test	 ah, 68			; 00000044H
  000fb	7a 03		 jp	 SHORT $LN12@Intersecti
  000fd	83 c1 08	 add	 ecx, 8
$LN12@Intersecti:

; 585  : 	if (!(status & 0x0001)) 

  00100	f6 c1 01	 test	 cl, 1
  00103	75 07		 jne	 SHORT $LN54@Intersecti

; 586  : 		a1 = ((double)y1 - y2)/((double)x1 - x2);

  00105	f2 0f 5e 6d 08	 divsd	 xmm5, QWORD PTR tv261[ebp]
  0010a	eb 05		 jmp	 SHORT $LN13@Intersecti
$LN54@Intersecti:

; 585  : 	if (!(status & 0x0001)) 

  0010c	f2 0f 10 6d 40	 movsd	 xmm5, QWORD PTR _a1$[ebp]
$LN13@Intersecti:

; 587  : 	if (!(status & 0x0004)) 

  00111	f6 c1 04	 test	 cl, 4
  00114	75 06		 jne	 SHORT $LN55@Intersecti

; 588  : 		a2 = ((double)by1-by2)/((double)bx1 - bx2);

  00116	f2 0f 5e e1	 divsd	 xmm4, xmm1
  0011a	eb 05		 jmp	 SHORT $LN14@Intersecti
$LN55@Intersecti:

; 587  : 	if (!(status & 0x0004)) 

  0011c	f2 0f 10 65 40	 movsd	 xmm4, QWORD PTR _a2$[ebp]
$LN14@Intersecti:

; 589  : 	switch (status) {

  00121	0f b6 81 00 00
	00 00		 movzx	 eax, BYTE PTR $LN52@Intersecti[ecx]
  00128	ff 24 85 00 00
	00 00		 jmp	 DWORD PTR $LN53@Intersecti[eax*4]
$LN15@Intersecti:

; 590  : 	case 0 : case 10 : case 2 : case 8 :
; 591  : 		ix = (by1 - y1 + a1*x1 - a2*bx1)/(a1-a2);

  0012f	0f 28 cd	 movaps	 xmm1, xmm5
  00132	8b 45 48	 mov	 eax, DWORD PTR _ix$[ebp]
  00135	f2 0f 59 ca	 mulsd	 xmm1, xmm2
  00139	f2 0f 5c fe	 subsd	 xmm7, xmm6
  0013d	0f 28 c4	 movaps	 xmm0, xmm4
  00140	f2 0f 59 c3	 mulsd	 xmm0, xmm3
  00144	f2 0f 58 cf	 addsd	 xmm1, xmm7
  00148	f2 0f 5c c8	 subsd	 xmm1, xmm0
  0014c	0f 28 c5	 movaps	 xmm0, xmm5
  0014f	f2 0f 5c c4	 subsd	 xmm0, xmm4
  00153	f2 0f 5e c8	 divsd	 xmm1, xmm0
  00157	f2 0f 11 08	 movsd	 QWORD PTR [eax], xmm1

; 592  : 		iy = a1*(ix - x1) + y1;

  0015b	f2 0f 5c ca	 subsd	 xmm1, xmm2
  0015f	8b 45 4c	 mov	 eax, DWORD PTR _iy$[ebp]
  00162	f2 0f 59 cd	 mulsd	 xmm1, xmm5
  00166	f2 0f 58 ce	 addsd	 xmm1, xmm6
  0016a	f2 0f 11 08	 movsd	 QWORD PTR [eax], xmm1

; 593  : 		return true;

  0016e	b0 01		 mov	 al, 1

; 602  : 	case 5 :  
; 603  : 		return false; //조건에 위배됨
; 604  : 	case 3 : case 7 : case 11 : case 12 : case 13 : case 14 : case 15 : 
; 605  : 		return false; //사용자가 검색 필수
; 606  : 	}
; 607  : 	return false;
; 608  : }

  00170	5d		 pop	 ebp
  00171	c2 48 00	 ret	 72			; 00000048H
$LN19@Intersecti:

; 594  : 	case 1 : case 9 : // y = x
; 595  : 		ix = x1;

  00174	8b 45 48	 mov	 eax, DWORD PTR _ix$[ebp]
  00177	f2 0f 11 10	 movsd	 QWORD PTR [eax], xmm2

; 596  : 		iy = a2 * (ix - bx1) + by1;

  0017b	f2 0f 5c d3	 subsd	 xmm2, xmm3
  0017f	8b 45 4c	 mov	 eax, DWORD PTR _iy$[ebp]
  00182	f2 0f 59 d4	 mulsd	 xmm2, xmm4
  00186	f2 0f 58 d7	 addsd	 xmm2, xmm7
  0018a	f2 0f 11 10	 movsd	 QWORD PTR [eax], xmm2

; 597  : 		return true;

  0018e	b0 01		 mov	 al, 1

; 602  : 	case 5 :  
; 603  : 		return false; //조건에 위배됨
; 604  : 	case 3 : case 7 : case 11 : case 12 : case 13 : case 14 : case 15 : 
; 605  : 		return false; //사용자가 검색 필수
; 606  : 	}
; 607  : 	return false;
; 608  : }

  00190	5d		 pop	 ebp
  00191	c2 48 00	 ret	 72			; 00000048H
$LN21@Intersecti:

; 598  : 	case 4 : case 6 : // y = bx1
; 599  : 		ix = bx1;

  00194	8b 45 48	 mov	 eax, DWORD PTR _ix$[ebp]
  00197	f2 0f 11 18	 movsd	 QWORD PTR [eax], xmm3

; 600  : 		iy = a1 * (ix - x1) + y1;

  0019b	f2 0f 5c da	 subsd	 xmm3, xmm2
  0019f	8b 45 4c	 mov	 eax, DWORD PTR _iy$[ebp]
  001a2	f2 0f 59 dd	 mulsd	 xmm3, xmm5
  001a6	f2 0f 58 de	 addsd	 xmm3, xmm6
  001aa	f2 0f 11 18	 movsd	 QWORD PTR [eax], xmm3

; 601  : 		return true;

  001ae	b0 01		 mov	 al, 1

; 602  : 	case 5 :  
; 603  : 		return false; //조건에 위배됨
; 604  : 	case 3 : case 7 : case 11 : case 12 : case 13 : case 14 : case 15 : 
; 605  : 		return false; //사용자가 검색 필수
; 606  : 	}
; 607  : 	return false;
; 608  : }

  001b0	5d		 pop	 ebp
  001b1	c2 48 00	 ret	 72			; 00000048H
$LN2@Intersecti:
  001b4	32 c0		 xor	 al, al
  001b6	5d		 pop	 ebp
  001b7	c2 48 00	 ret	 72			; 00000048H
  001ba	66 90		 npad	 2
$LN53@Intersecti:
  001bc	00 00 00 00	 DD	 $LN15@Intersecti
  001c0	00 00 00 00	 DD	 $LN19@Intersecti
  001c4	00 00 00 00	 DD	 $LN2@Intersecti
  001c8	00 00 00 00	 DD	 $LN21@Intersecti
$LN52@Intersecti:
  001cc	00		 DB	 0
  001cd	01		 DB	 1
  001ce	00		 DB	 0
  001cf	02		 DB	 2
  001d0	03		 DB	 3
  001d1	02		 DB	 2
  001d2	03		 DB	 3
  001d3	02		 DB	 2
  001d4	00		 DB	 0
  001d5	01		 DB	 1
  001d6	00		 DB	 0
  001d7	02		 DB	 2
  001d8	02		 DB	 2
  001d9	02		 DB	 2
  001da	02		 DB	 2
  001db	02		 DB	 2
?Intersection@CDrawer@@ABE_NNNNNNNNNAAN0@Z ENDP		; CDrawer::Intersection
_TEXT	ENDS
; Function compile flags: /Ogtp
; File D:\git\src\IBK\IBK_DRFN\ProjSrc\SrcChartEx\ChartAddIn\ChartAnalysisToolAddIn\AnalysisTool\Drawer.cpp
;	COMDAT ?Result@CDrawer@@ABE_NW4INTERSECTION_RESULT@1@@Z
_TEXT	SEGMENT
_result$ = 8						; size = 4
?Result@CDrawer@@ABE_NW4INTERSECTION_RESULT@1@@Z PROC	; CDrawer::Result, COMDAT
; _this$ = ecx

; 560  : {

  00000	55		 push	 ebp
  00001	8b ec		 mov	 ebp, esp

; 561  : 	return (result == CDrawer::TRUE_RESULT);

  00003	83 7d 08 01	 cmp	 DWORD PTR _result$[ebp], 1
  00007	0f 94 c0	 sete	 al

; 562  : }

  0000a	5d		 pop	 ebp
  0000b	c2 04 00	 ret	 4
?Result@CDrawer@@ABE_NW4INTERSECTION_RESULT@1@@Z ENDP	; CDrawer::Result
_TEXT	ENDS
; Function compile flags: /Ogtp
; File D:\git\src\IBK\IBK_DRFN\ProjSrc\SrcChartEx\ChartAddIn\ChartAnalysisToolAddIn\AnalysisTool\Drawer.cpp
;	COMDAT ?GetIntersectionPoint_Slant@CDrawer@@ABE_NABVCPoint@@000AAV2@@Z
_TEXT	SEGMENT
_dx$1$ = -8						; size = 8
_line1_pt1$ = 8						; size = 4
_line1_pt2$ = 12					; size = 4
_line2_pt1$ = 16					; size = 4
_line2_pt2$ = 20					; size = 4
_point$ = 24						; size = 4
?GetIntersectionPoint_Slant@CDrawer@@ABE_NABVCPoint@@000AAV2@@Z PROC ; CDrawer::GetIntersectionPoint_Slant, COMDAT
; _this$ = ecx

; 543  : {

  00000	55		 push	 ebp
  00001	8b ec		 mov	 ebp, esp

; 396  : 	if(point1.x == point2.x || point1.y == point2.y)

  00003	8b 55 0c	 mov	 edx, DWORD PTR _line1_pt2$[ebp]

; 543  : {

  00006	83 ec 08	 sub	 esp, 8
  00009	0f 57 db	 xorps	 xmm3, xmm3

; 396  : 	if(point1.x == point2.x || point1.y == point2.y)

  0000c	8b 02		 mov	 eax, DWORD PTR [edx]

; 543  : {

  0000e	53		 push	 ebx
  0000f	56		 push	 esi

; 396  : 	if(point1.x == point2.x || point1.y == point2.y)

  00010	8b 75 08	 mov	 esi, DWORD PTR _line1_pt1$[ebp]

; 543  : {

  00013	57		 push	 edi

; 396  : 	if(point1.x == point2.x || point1.y == point2.y)

  00014	8b 3e		 mov	 edi, DWORD PTR [esi]
  00016	3b f8		 cmp	 edi, eax
  00018	74 24		 je	 SHORT $LN20@GetInterse
  0001a	8b 4e 04	 mov	 ecx, DWORD PTR [esi+4]
  0001d	8b 52 04	 mov	 edx, DWORD PTR [edx+4]
  00020	3b ca		 cmp	 ecx, edx
  00022	74 1a		 je	 SHORT $LN20@GetInterse

; 398  : 
; 399  : 	// Y = aX + b (o : 기울기 = a)
; 400  : 	return ((double)(point2.y - point1.y) / (double)(point2.x - point1.x));

  00024	2b d1		 sub	 edx, ecx
  00026	2b c7		 sub	 eax, edi
  00028	66 0f 6e d2	 movd	 xmm2, edx
  0002c	66 0f 6e c0	 movd	 xmm0, eax
  00030	f3 0f e6 d2	 cvtdq2pd xmm2, xmm2
  00034	f3 0f e6 c0	 cvtdq2pd xmm0, xmm0
  00038	f2 0f 5e d0	 divsd	 xmm2, xmm0
  0003c	eb 06		 jmp	 SHORT $LN4@GetInterse
$LN20@GetInterse:

; 397  : 		return 0.0;

  0003e	8b 4e 04	 mov	 ecx, DWORD PTR [esi+4]
  00041	0f 57 d2	 xorps	 xmm2, xmm2
$LN4@GetInterse:

; 396  : 	if(point1.x == point2.x || point1.y == point2.y)

  00044	8b 75 10	 mov	 esi, DWORD PTR _line2_pt1$[ebp]
  00047	8b 55 14	 mov	 edx, DWORD PTR _line2_pt2$[ebp]
  0004a	8b 1e		 mov	 ebx, DWORD PTR [esi]
  0004c	8b 02		 mov	 eax, DWORD PTR [edx]
  0004e	3b d8		 cmp	 ebx, eax
  00050	74 21		 je	 SHORT $LN21@GetInterse
  00052	8b 52 04	 mov	 edx, DWORD PTR [edx+4]
  00055	39 56 04	 cmp	 DWORD PTR [esi+4], edx
  00058	74 19		 je	 SHORT $LN21@GetInterse

; 398  : 
; 399  : 	// Y = aX + b (o : 기울기 = a)
; 400  : 	return ((double)(point2.y - point1.y) / (double)(point2.x - point1.x));

  0005a	2b 56 04	 sub	 edx, DWORD PTR [esi+4]
  0005d	2b c3		 sub	 eax, ebx
  0005f	66 0f 6e da	 movd	 xmm3, edx
  00063	66 0f 6e c0	 movd	 xmm0, eax
  00067	f3 0f e6 db	 cvtdq2pd xmm3, xmm3
  0006b	f3 0f e6 c0	 cvtdq2pd xmm0, xmm0
  0006f	f2 0f 5e d8	 divsd	 xmm3, xmm0
$LN21@GetInterse:
  00073	66 0f 6e c7	 movd	 xmm0, edi

; 544  : 	double dAngle_Line1 = GetLineAngle(line1_pt1, line1_pt2);
; 545  : 	double dAngle_Line2 = GetLineAngle(line2_pt1, line2_pt2);
; 546  : 	double dIntercept_Line1 = GetLineIntercept(dAngle_Line1, line1_pt1);
; 547  : 	double dIntercept_Line2 = GetLineIntercept(dAngle_Line2, line2_pt1);
; 548  : 
; 549  : 	if(dAngle_Line1 == dAngle_Line2)

  00077	66 0f 2e d3	 ucomisd xmm2, xmm3

; 406  : 	return ((double)point.y - (dAngle * (double)point.x));

  0007b	f3 0f e6 c0	 cvtdq2pd xmm0, xmm0
  0007f	66 0f 6e e1	 movd	 xmm4, ecx
  00083	f3 0f e6 e4	 cvtdq2pd xmm4, xmm4
  00087	f2 0f 59 c2	 mulsd	 xmm0, xmm2

; 544  : 	double dAngle_Line1 = GetLineAngle(line1_pt1, line1_pt2);
; 545  : 	double dAngle_Line2 = GetLineAngle(line2_pt1, line2_pt2);
; 546  : 	double dIntercept_Line1 = GetLineIntercept(dAngle_Line1, line1_pt1);
; 547  : 	double dIntercept_Line2 = GetLineIntercept(dAngle_Line2, line2_pt1);
; 548  : 
; 549  : 	if(dAngle_Line1 == dAngle_Line2)

  0008b	9f		 lahf

; 406  : 	return ((double)point.y - (dAngle * (double)point.x));

  0008c	f2 0f 5c e0	 subsd	 xmm4, xmm0

; 544  : 	double dAngle_Line1 = GetLineAngle(line1_pt1, line1_pt2);
; 545  : 	double dAngle_Line2 = GetLineAngle(line2_pt1, line2_pt2);
; 546  : 	double dIntercept_Line1 = GetLineIntercept(dAngle_Line1, line1_pt1);
; 547  : 	double dIntercept_Line2 = GetLineIntercept(dAngle_Line2, line2_pt1);
; 548  : 
; 549  : 	if(dAngle_Line1 == dAngle_Line2)

  00090	f6 c4 44	 test	 ah, 68			; 00000044H
  00093	7a 0b		 jp	 SHORT $LN2@GetInterse

; 556  : 	return true;
; 557  : }

  00095	5f		 pop	 edi
  00096	5e		 pop	 esi
  00097	32 c0		 xor	 al, al
  00099	5b		 pop	 ebx
  0009a	8b e5		 mov	 esp, ebp
  0009c	5d		 pop	 ebp
  0009d	c2 14 00	 ret	 20			; 00000014H
$LN2@GetInterse:
  000a0	66 0f 6e 4e 04	 movd	 xmm1, DWORD PTR [esi+4]

; 554  : 
; 555  : 	point = CPoint(CMath::Round(dx), CMath::Round(dy));	

  000a5	83 ec 08	 sub	 esp, 8
  000a8	66 0f 6e c3	 movd	 xmm0, ebx

; 406  : 	return ((double)point.y - (dAngle * (double)point.x));

  000ac	f3 0f e6 c0	 cvtdq2pd xmm0, xmm0
  000b0	f3 0f e6 c9	 cvtdq2pd xmm1, xmm1
  000b4	f2 0f 59 c3	 mulsd	 xmm0, xmm3
  000b8	f2 0f 5c c8	 subsd	 xmm1, xmm0

; 550  : 		return false;
; 551  : 
; 552  : 	double dx = (dIntercept_Line2 - dIntercept_Line1) / (dAngle_Line1 - dAngle_Line2);

  000bc	0f 28 c2	 movaps	 xmm0, xmm2
  000bf	f2 0f 5c c3	 subsd	 xmm0, xmm3
  000c3	f2 0f 5c cc	 subsd	 xmm1, xmm4
  000c7	f2 0f 5e c8	 divsd	 xmm1, xmm0

; 553  : 	double dy = dAngle_Line1 * dx + dIntercept_Line1;

  000cb	f2 0f 59 d1	 mulsd	 xmm2, xmm1
  000cf	f2 0f 11 4d f8	 movsd	 QWORD PTR _dx$1$[ebp], xmm1
  000d4	f2 0f 58 d4	 addsd	 xmm2, xmm4

; 554  : 
; 555  : 	point = CPoint(CMath::Round(dx), CMath::Round(dy));	

  000d8	f2 0f 11 14 24	 movsd	 QWORD PTR [esp], xmm2
  000dd	e8 00 00 00 00	 call	 ?Round@CMath@@SAHN@Z	; CMath::Round
  000e2	f2 0f 10 45 f8	 movsd	 xmm0, QWORD PTR _dx$1$[ebp]
  000e7	8b f0		 mov	 esi, eax
  000e9	f2 0f 11 04 24	 movsd	 QWORD PTR [esp], xmm0
  000ee	e8 00 00 00 00	 call	 ?Round@CMath@@SAHN@Z	; CMath::Round
  000f3	8b 4d 18	 mov	 ecx, DWORD PTR _point$[ebp]
  000f6	83 c4 08	 add	 esp, 8
  000f9	5f		 pop	 edi
  000fa	89 71 04	 mov	 DWORD PTR [ecx+4], esi

; 556  : 	return true;
; 557  : }

  000fd	5e		 pop	 esi
  000fe	89 01		 mov	 DWORD PTR [ecx], eax
  00100	b0 01		 mov	 al, 1
  00102	5b		 pop	 ebx
  00103	8b e5		 mov	 esp, ebp
  00105	5d		 pop	 ebp
  00106	c2 14 00	 ret	 20			; 00000014H
?GetIntersectionPoint_Slant@CDrawer@@ABE_NABVCPoint@@000AAV2@@Z ENDP ; CDrawer::GetIntersectionPoint_Slant
_TEXT	ENDS
; Function compile flags: /Ogtp
; File D:\git\src\IBK\IBK_DRFN\ProjSrc\SrcChartEx\ChartAddIn\ChartAnalysisToolAddIn\AnalysisTool\Drawer.cpp
; File C:\Program Files (x86)\Microsoft Visual Studio\2019\Community\VC\Tools\MSVC\14.29.30133\atlmfc\include\atltypes.h
; File D:\git\src\IBK\IBK_DRFN\ProjSrc\SrcChartEx\ChartAddIn\ChartAnalysisToolAddIn\AnalysisTool\Drawer.cpp
;	COMDAT ?GetIntersectionPoint_InVertLine1@CDrawer@@ABE?AW4INTERSECTION_RESULT@1@ABVCPoint@@000AAV3@@Z
_TEXT	SEGMENT
_line1_pt1$ = 8						; size = 4
_line1_pt2$ = 12					; size = 4
_line2_pt1$ = 16					; size = 4
_line2_pt2$ = 20					; size = 4
_point$ = 24						; size = 4
?GetIntersectionPoint_InVertLine1@CDrawer@@ABE?AW4INTERSECTION_RESULT@1@ABVCPoint@@000AAV3@@Z PROC ; CDrawer::GetIntersectionPoint_InVertLine1, COMDAT
; _this$ = ecx

; 523  : {

  00000	55		 push	 ebp
  00001	8b ec		 mov	 ebp, esp

; 446  : 	return (point1.x == point2.x);

  00003	8b 45 0c	 mov	 eax, DWORD PTR _line1_pt2$[ebp]

; 523  : {

  00006	53		 push	 ebx

; 446  : 	return (point1.x == point2.x);

  00007	8b 5d 08	 mov	 ebx, DWORD PTR _line1_pt1$[ebp]

; 523  : {

  0000a	56		 push	 esi

; 446  : 	return (point1.x == point2.x);

  0000b	8b 0b		 mov	 ecx, DWORD PTR [ebx]
  0000d	3b 08		 cmp	 ecx, DWORD PTR [eax]

; 524  : 	if(!IsVerticalLine(line1_pt1, line1_pt2) || IsVerticalLine(line2_pt1, line2_pt2))

  0000f	0f 85 84 00 00
	00		 jne	 $LN3@GetInterse

; 446  : 	return (point1.x == point2.x);

  00015	8b 4d 10	 mov	 ecx, DWORD PTR _line2_pt1$[ebp]
  00018	8b 55 14	 mov	 edx, DWORD PTR _line2_pt2$[ebp]
  0001b	8b 31		 mov	 esi, DWORD PTR [ecx]
  0001d	8b 02		 mov	 eax, DWORD PTR [edx]
  0001f	3b f0		 cmp	 esi, eax

; 524  : 	if(!IsVerticalLine(line1_pt1, line1_pt2) || IsVerticalLine(line2_pt1, line2_pt2))

  00021	74 76		 je	 SHORT $LN3@GetInterse

; 396  : 	if(point1.x == point2.x || point1.y == point2.y)

  00023	57		 push	 edi
  00024	8b 79 04	 mov	 edi, DWORD PTR [ecx+4]
  00027	8b 4a 04	 mov	 ecx, DWORD PTR [edx+4]
  0002a	3b f9		 cmp	 edi, ecx
  0002c	74 1a		 je	 SHORT $LN23@GetInterse

; 397  : 		return 0.0;
; 398  : 
; 399  : 	// Y = aX + b (o : 기울기 = a)
; 400  : 	return ((double)(point2.y - point1.y) / (double)(point2.x - point1.x));

  0002e	2b cf		 sub	 ecx, edi
  00030	2b c6		 sub	 eax, esi
  00032	66 0f 6e d1	 movd	 xmm2, ecx
  00036	66 0f 6e c0	 movd	 xmm0, eax
  0003a	f3 0f e6 d2	 cvtdq2pd xmm2, xmm2
  0003e	f3 0f e6 c0	 cvtdq2pd xmm0, xmm0
  00042	f2 0f 5e d0	 divsd	 xmm2, xmm0
  00046	eb 03		 jmp	 SHORT $LN15@GetInterse
$LN23@GetInterse:
  00048	0f 57 d2	 xorps	 xmm2, xmm2
$LN15@GetInterse:
  0004b	66 0f 6e c6	 movd	 xmm0, esi

; 534  : 		point = CPoint(line1_pt1.x, CMath::Round(dy));

  0004f	83 ec 08	 sub	 esp, 8

; 406  : 	return ((double)point.y - (dAngle * (double)point.x));

  00052	f3 0f e6 c0	 cvtdq2pd xmm0, xmm0
  00056	66 0f 6e cf	 movd	 xmm1, edi
  0005a	f3 0f e6 c9	 cvtdq2pd xmm1, xmm1
  0005e	f2 0f 59 c2	 mulsd	 xmm0, xmm2
  00062	f2 0f 5c c8	 subsd	 xmm1, xmm0
  00066	66 0f 6e 03	 movd	 xmm0, DWORD PTR [ebx]

; 526  : 
; 527  : 	// line2 - 수평선.
; 528  : 	if(IsVerticalLine(line2_pt1, line2_pt2))
; 529  : 		point = CPoint(line1_pt1.x, line2_pt1.y);
; 530  : 	// line2 - 사선.
; 531  : 	else{
; 532  : 		double dAngle_Line2 = GetLineAngle(line2_pt1, line2_pt2);
; 533  : 		double dy = (dAngle_Line2 * line1_pt1.x) + GetLineIntercept(dAngle_Line2, line2_pt1);

  0006a	f3 0f e6 c0	 cvtdq2pd xmm0, xmm0
  0006e	f2 0f 59 c2	 mulsd	 xmm0, xmm2
  00072	f2 0f 58 c8	 addsd	 xmm1, xmm0

; 534  : 		point = CPoint(line1_pt1.x, CMath::Round(dy));

  00076	f2 0f 11 0c 24	 movsd	 QWORD PTR [esp], xmm1
  0007b	e8 00 00 00 00	 call	 ?Round@CMath@@SAHN@Z	; CMath::Round
  00080	8b 4d 18	 mov	 ecx, DWORD PTR _point$[ebp]
  00083	83 c4 08	 add	 esp, 8
; File C:\Program Files (x86)\Microsoft Visual Studio\2019\Community\VC\Tools\MSVC\14.29.30133\atlmfc\include\atltypes.h

; 408  : 	x = initX;

  00086	8b 13		 mov	 edx, DWORD PTR [ebx]
; File D:\git\src\IBK\IBK_DRFN\ProjSrc\SrcChartEx\ChartAddIn\ChartAnalysisToolAddIn\AnalysisTool\Drawer.cpp

; 537  : 	return CDrawer::TRUE_RESULT;

  00088	5f		 pop	 edi
  00089	5e		 pop	 esi
  0008a	89 41 04	 mov	 DWORD PTR [ecx+4], eax
  0008d	b8 01 00 00 00	 mov	 eax, 1
  00092	89 11		 mov	 DWORD PTR [ecx], edx

; 538  : }

  00094	5b		 pop	 ebx
  00095	5d		 pop	 ebp
  00096	c2 14 00	 ret	 20			; 00000014H
$LN3@GetInterse:
  00099	5e		 pop	 esi

; 525  : 		return CDrawer::FALSE_RESULT;

  0009a	33 c0		 xor	 eax, eax

; 538  : }

  0009c	5b		 pop	 ebx
  0009d	5d		 pop	 ebp
  0009e	c2 14 00	 ret	 20			; 00000014H
?GetIntersectionPoint_InVertLine1@CDrawer@@ABE?AW4INTERSECTION_RESULT@1@ABVCPoint@@000AAV3@@Z ENDP ; CDrawer::GetIntersectionPoint_InVertLine1
_TEXT	ENDS
; Function compile flags: /Ogtp
; File D:\git\src\IBK\IBK_DRFN\ProjSrc\SrcChartEx\ChartAddIn\ChartAnalysisToolAddIn\AnalysisTool\Drawer.cpp
;	COMDAT ?IsIntersectionPoint_InVertLine@CDrawer@@ABE?AW4INTERSECTION_RESULT@1@ABVCPoint@@000AAV3@@Z
_TEXT	SEGMENT
_this$1$ = -4						; size = 4
_line1_pt1$ = 8						; size = 4
_line1_pt2$ = 12					; size = 4
_line2_pt1$ = 16					; size = 4
_line2_pt2$ = 20					; size = 4
_point$ = 24						; size = 4
?IsIntersectionPoint_InVertLine@CDrawer@@ABE?AW4INTERSECTION_RESULT@1@ABVCPoint@@000AAV3@@Z PROC ; CDrawer::IsIntersectionPoint_InVertLine, COMDAT
; _this$ = ecx

; 502  : {

  00000	55		 push	 ebp
  00001	8b ec		 mov	 ebp, esp
  00003	51		 push	 ecx
  00004	53		 push	 ebx

; 503  : 	// line1 - 수직선
; 504  : 	bool bIsVertLine1 = IsVerticalLine(line1_pt1, line1_pt2);
; 505  : 	bool bIsVertLine2 = IsVerticalLine(line2_pt1, line2_pt2);
; 506  : 
; 507  : 	// 모두 수직선 아닐 경우.
; 508  : 	if(!bIsVertLine1 && !bIsVertLine2)

  00005	8b 5d 08	 mov	 ebx, DWORD PTR _line1_pt1$[ebp]
  00008	57		 push	 edi

; 446  : 	return (point1.x == point2.x);

  00009	8b 7d 10	 mov	 edi, DWORD PTR _line2_pt1$[ebp]

; 502  : {

  0000c	89 4d fc	 mov	 DWORD PTR _this$1$[ebp], ecx

; 503  : 	// line1 - 수직선
; 504  : 	bool bIsVertLine1 = IsVerticalLine(line1_pt1, line1_pt2);
; 505  : 	bool bIsVertLine2 = IsVerticalLine(line2_pt1, line2_pt2);
; 506  : 
; 507  : 	// 모두 수직선 아닐 경우.
; 508  : 	if(!bIsVertLine1 && !bIsVertLine2)

  0000f	8b 03		 mov	 eax, DWORD PTR [ebx]

; 446  : 	return (point1.x == point2.x);

  00011	8b 4d 14	 mov	 ecx, DWORD PTR _line2_pt2$[ebp]
  00014	8b 17		 mov	 edx, DWORD PTR [edi]

; 503  : 	// line1 - 수직선
; 504  : 	bool bIsVertLine1 = IsVerticalLine(line1_pt1, line1_pt2);
; 505  : 	bool bIsVertLine2 = IsVerticalLine(line2_pt1, line2_pt2);
; 506  : 
; 507  : 	// 모두 수직선 아닐 경우.
; 508  : 	if(!bIsVertLine1 && !bIsVertLine2)

  00016	8b 7d 0c	 mov	 edi, DWORD PTR _line1_pt2$[ebp]
  00019	3b 07		 cmp	 eax, DWORD PTR [edi]
  0001b	8b 7d 10	 mov	 edi, DWORD PTR _line2_pt1$[ebp]
  0001e	74 28		 je	 SHORT $LN12@IsIntersec
  00020	3b 11		 cmp	 edx, DWORD PTR [ecx]
  00022	74 0b		 je	 SHORT $LN14@IsIntersec

; 509  : 		return CDrawer::NO_RESULT;

  00024	5f		 pop	 edi
  00025	83 c8 ff	 or	 eax, -1

; 518  : }

  00028	5b		 pop	 ebx
  00029	8b e5		 mov	 esp, ebp
  0002b	5d		 pop	 ebp
  0002c	c2 14 00	 ret	 20			; 00000014H
$LN14@IsIntersec:

; 513  : 	// line2 수직선일 경우.
; 514  : 	else if(!bIsVertLine1 && bIsVertLine2)
; 515  : 		return GetIntersectionPoint_InVertLine1(line2_pt1, line2_pt2, line1_pt1, line1_pt2, point);

  0002f	ff 75 18	 push	 DWORD PTR _point$[ebp]
  00032	ff 75 0c	 push	 DWORD PTR _line1_pt2$[ebp]
  00035	53		 push	 ebx
  00036	51		 push	 ecx
  00037	8b 4d fc	 mov	 ecx, DWORD PTR _this$1$[ebp]
  0003a	57		 push	 edi
  0003b	e8 00 00 00 00	 call	 ?GetIntersectionPoint_InVertLine1@CDrawer@@ABE?AW4INTERSECTION_RESULT@1@ABVCPoint@@000AAV3@@Z ; CDrawer::GetIntersectionPoint_InVertLine1
  00040	5f		 pop	 edi

; 518  : }

  00041	5b		 pop	 ebx
  00042	8b e5		 mov	 esp, ebp
  00044	5d		 pop	 ebp
  00045	c2 14 00	 ret	 20			; 00000014H
$LN12@IsIntersec:

; 510  : 	// line1 수직선일 경우.
; 511  : 	else if(bIsVertLine1 && !bIsVertLine2)

  00048	3b 11		 cmp	 edx, DWORD PTR [ecx]
  0004a	74 19		 je	 SHORT $LN6@IsIntersec

; 512  : 		return GetIntersectionPoint_InVertLine1(line1_pt1, line1_pt2, line2_pt1, line2_pt2, point);

  0004c	ff 75 18	 push	 DWORD PTR _point$[ebp]
  0004f	51		 push	 ecx
  00050	8b 4d fc	 mov	 ecx, DWORD PTR _this$1$[ebp]
  00053	57		 push	 edi
  00054	ff 75 0c	 push	 DWORD PTR _line1_pt2$[ebp]
  00057	53		 push	 ebx
  00058	e8 00 00 00 00	 call	 ?GetIntersectionPoint_InVertLine1@CDrawer@@ABE?AW4INTERSECTION_RESULT@1@ABVCPoint@@000AAV3@@Z ; CDrawer::GetIntersectionPoint_InVertLine1
  0005d	5f		 pop	 edi

; 518  : }

  0005e	5b		 pop	 ebx
  0005f	8b e5		 mov	 esp, ebp
  00061	5d		 pop	 ebp
  00062	c2 14 00	 ret	 20			; 00000014H
$LN6@IsIntersec:
  00065	5f		 pop	 edi

; 516  : 
; 517  : 	return CDrawer::FALSE_RESULT;

  00066	33 c0		 xor	 eax, eax

; 518  : }

  00068	5b		 pop	 ebx
  00069	8b e5		 mov	 esp, ebp
  0006b	5d		 pop	 ebp
  0006c	c2 14 00	 ret	 20			; 00000014H
?IsIntersectionPoint_InVertLine@CDrawer@@ABE?AW4INTERSECTION_RESULT@1@ABVCPoint@@000AAV3@@Z ENDP ; CDrawer::IsIntersectionPoint_InVertLine
_TEXT	ENDS
; Function compile flags: /Ogtp
; File D:\git\src\IBK\IBK_DRFN\ProjSrc\SrcChartEx\ChartAddIn\ChartAnalysisToolAddIn\AnalysisTool\Drawer.cpp
;	COMDAT ?GetIntersectionPoint_InHorzLine1@CDrawer@@ABE?AW4INTERSECTION_RESULT@1@ABVCPoint@@000AAV3@@Z
_TEXT	SEGMENT
_line1_pt1$ = 8						; size = 4
_line1_pt2$ = 12					; size = 4
_line2_pt1$ = 16					; size = 4
_line2_pt2$ = 20					; size = 4
_point$ = 24						; size = 4
?GetIntersectionPoint_InHorzLine1@CDrawer@@ABE?AW4INTERSECTION_RESULT@1@ABVCPoint@@000AAV3@@Z PROC ; CDrawer::GetIntersectionPoint_InHorzLine1, COMDAT
; _this$ = ecx

; 481  : {

  00000	55		 push	 ebp
  00001	8b ec		 mov	 ebp, esp

; 452  : 	return (point1.y == point2.y);

  00003	8b 45 08	 mov	 eax, DWORD PTR _line1_pt1$[ebp]

; 481  : {

  00006	56		 push	 esi
  00007	57		 push	 edi

; 452  : 	return (point1.y == point2.y);

  00008	8b 70 04	 mov	 esi, DWORD PTR [eax+4]
  0000b	8b 45 0c	 mov	 eax, DWORD PTR _line1_pt2$[ebp]
  0000e	3b 70 04	 cmp	 esi, DWORD PTR [eax+4]

; 482  : 	if(!IsHorizontalLine(line1_pt1, line1_pt2) || IsHorizontalLine(line2_pt1, line2_pt2))

  00011	0f 85 89 00 00
	00		 jne	 $LN3@GetInterse

; 452  : 	return (point1.y == point2.y);

  00017	8b 4d 10	 mov	 ecx, DWORD PTR _line2_pt1$[ebp]
  0001a	8b 45 14	 mov	 eax, DWORD PTR _line2_pt2$[ebp]
  0001d	8b 79 04	 mov	 edi, DWORD PTR [ecx+4]
  00020	8b 50 04	 mov	 edx, DWORD PTR [eax+4]
  00023	3b fa		 cmp	 edi, edx

; 482  : 	if(!IsHorizontalLine(line1_pt1, line1_pt2) || IsHorizontalLine(line2_pt1, line2_pt2))

  00025	74 79		 je	 SHORT $LN3@GetInterse

; 446  : 	return (point1.x == point2.x);

  00027	8b 09		 mov	 ecx, DWORD PTR [ecx]
  00029	8b 00		 mov	 eax, DWORD PTR [eax]
  0002b	3b c8		 cmp	 ecx, eax

; 484  : 
; 485  : 	// line2 - 수직선.
; 486  : 	if(IsVerticalLine(line2_pt1, line2_pt2)){

  0002d	75 13		 jne	 SHORT $LN23@GetInterse

; 487  : 		point = CPoint(line2_pt1.x, line1_pt1.y);

  0002f	8b 45 18	 mov	 eax, DWORD PTR _point$[ebp]
  00032	5f		 pop	 edi
  00033	89 70 04	 mov	 DWORD PTR [eax+4], esi
  00036	89 08		 mov	 DWORD PTR [eax], ecx

; 494  : 	}
; 495  : 
; 496  : 	return CDrawer::TRUE_RESULT;

  00038	b8 01 00 00 00	 mov	 eax, 1

; 497  : }

  0003d	5e		 pop	 esi
  0003e	5d		 pop	 ebp
  0003f	c2 14 00	 ret	 20			; 00000014H
$LN23@GetInterse:

; 400  : 	return ((double)(point2.y - point1.y) / (double)(point2.x - point1.x));

  00042	2b d7		 sub	 edx, edi
  00044	2b c1		 sub	 eax, ecx
  00046	0f 57 c0	 xorps	 xmm0, xmm0
  00049	0f 57 db	 xorps	 xmm3, xmm3
  0004c	0f 57 c9	 xorps	 xmm1, xmm1
  0004f	0f 57 d2	 xorps	 xmm2, xmm2

; 406  : 	return ((double)point.y - (dAngle * (double)point.x));

  00052	f2 0f 2a cf	 cvtsi2sd xmm1, edi

; 493  : 		point = CPoint(CMath::Round(dx), line1_pt1.y);

  00056	83 ec 08	 sub	 esp, 8

; 400  : 	return ((double)(point2.y - point1.y) / (double)(point2.x - point1.x));

  00059	f2 0f 2a c0	 cvtsi2sd xmm0, eax
  0005d	f2 0f 2a da	 cvtsi2sd xmm3, edx

; 488  : 	}
; 489  : 	// line2 - 사선.
; 490  : 	else{
; 491  : 		double dAngle_Line2 = GetLineAngle(line2_pt1, line2_pt2);
; 492  : 		double dx = (line1_pt1.y - GetLineIntercept(dAngle_Line2, line2_pt1)) / dAngle_Line2;

  00061	f2 0f 2a d6	 cvtsi2sd xmm2, esi

; 400  : 	return ((double)(point2.y - point1.y) / (double)(point2.x - point1.x));

  00065	f2 0f 5e d8	 divsd	 xmm3, xmm0
  00069	0f 57 c0	 xorps	 xmm0, xmm0

; 406  : 	return ((double)point.y - (dAngle * (double)point.x));

  0006c	f2 0f 2a c1	 cvtsi2sd xmm0, ecx
  00070	f2 0f 59 c3	 mulsd	 xmm0, xmm3
  00074	f2 0f 5c c8	 subsd	 xmm1, xmm0

; 488  : 	}
; 489  : 	// line2 - 사선.
; 490  : 	else{
; 491  : 		double dAngle_Line2 = GetLineAngle(line2_pt1, line2_pt2);
; 492  : 		double dx = (line1_pt1.y - GetLineIntercept(dAngle_Line2, line2_pt1)) / dAngle_Line2;

  00078	f2 0f 5c d1	 subsd	 xmm2, xmm1
  0007c	f2 0f 5e d3	 divsd	 xmm2, xmm3

; 493  : 		point = CPoint(CMath::Round(dx), line1_pt1.y);

  00080	f2 0f 11 14 24	 movsd	 QWORD PTR [esp], xmm2
  00085	e8 00 00 00 00	 call	 ?Round@CMath@@SAHN@Z	; CMath::Round
  0008a	8b 4d 18	 mov	 ecx, DWORD PTR _point$[ebp]
  0008d	83 c4 08	 add	 esp, 8
  00090	5f		 pop	 edi
  00091	89 01		 mov	 DWORD PTR [ecx], eax

; 494  : 	}
; 495  : 
; 496  : 	return CDrawer::TRUE_RESULT;

  00093	b8 01 00 00 00	 mov	 eax, 1
  00098	89 71 04	 mov	 DWORD PTR [ecx+4], esi

; 497  : }

  0009b	5e		 pop	 esi
  0009c	5d		 pop	 ebp
  0009d	c2 14 00	 ret	 20			; 00000014H
$LN3@GetInterse:
  000a0	5f		 pop	 edi

; 483  : 		return CDrawer::FALSE_RESULT;

  000a1	33 c0		 xor	 eax, eax

; 497  : }

  000a3	5e		 pop	 esi
  000a4	5d		 pop	 ebp
  000a5	c2 14 00	 ret	 20			; 00000014H
?GetIntersectionPoint_InHorzLine1@CDrawer@@ABE?AW4INTERSECTION_RESULT@1@ABVCPoint@@000AAV3@@Z ENDP ; CDrawer::GetIntersectionPoint_InHorzLine1
_TEXT	ENDS
; Function compile flags: /Ogtp
; File D:\git\src\IBK\IBK_DRFN\ProjSrc\SrcChartEx\ChartAddIn\ChartAnalysisToolAddIn\AnalysisTool\Drawer.cpp
;	COMDAT ?IsIntersectionPoint_InHorzLine@CDrawer@@ABE?AW4INTERSECTION_RESULT@1@ABVCPoint@@000AAV3@@Z
_TEXT	SEGMENT
_this$1$ = -4						; size = 4
_line1_pt1$ = 8						; size = 4
_line1_pt2$ = 12					; size = 4
_line2_pt1$ = 16					; size = 4
_line2_pt2$ = 20					; size = 4
_point$ = 24						; size = 4
?IsIntersectionPoint_InHorzLine@CDrawer@@ABE?AW4INTERSECTION_RESULT@1@ABVCPoint@@000AAV3@@Z PROC ; CDrawer::IsIntersectionPoint_InHorzLine, COMDAT
; _this$ = ecx

; 460  : {

  00000	55		 push	 ebp
  00001	8b ec		 mov	 ebp, esp
  00003	51		 push	 ecx
  00004	53		 push	 ebx

; 461  : 	// line1 - 수평선
; 462  : 	bool bIsHorzLine1 = IsHorizontalLine(line1_pt1, line1_pt2);
; 463  : 	bool bIsHorzLine2 = IsHorizontalLine(line2_pt1, line2_pt2);
; 464  : 
; 465  : 	// 모두 수평선 아닐 경우.
; 466  : 	if(!bIsHorzLine1 && !bIsHorzLine2)

  00005	8b 5d 08	 mov	 ebx, DWORD PTR _line1_pt1$[ebp]
  00008	57		 push	 edi

; 452  : 	return (point1.y == point2.y);

  00009	8b 7d 10	 mov	 edi, DWORD PTR _line2_pt1$[ebp]

; 460  : {

  0000c	89 4d fc	 mov	 DWORD PTR _this$1$[ebp], ecx

; 461  : 	// line1 - 수평선
; 462  : 	bool bIsHorzLine1 = IsHorizontalLine(line1_pt1, line1_pt2);
; 463  : 	bool bIsHorzLine2 = IsHorizontalLine(line2_pt1, line2_pt2);
; 464  : 
; 465  : 	// 모두 수평선 아닐 경우.
; 466  : 	if(!bIsHorzLine1 && !bIsHorzLine2)

  0000f	8b 43 04	 mov	 eax, DWORD PTR [ebx+4]

; 452  : 	return (point1.y == point2.y);

  00012	8b 4d 14	 mov	 ecx, DWORD PTR _line2_pt2$[ebp]
  00015	8b 57 04	 mov	 edx, DWORD PTR [edi+4]

; 461  : 	// line1 - 수평선
; 462  : 	bool bIsHorzLine1 = IsHorizontalLine(line1_pt1, line1_pt2);
; 463  : 	bool bIsHorzLine2 = IsHorizontalLine(line2_pt1, line2_pt2);
; 464  : 
; 465  : 	// 모두 수평선 아닐 경우.
; 466  : 	if(!bIsHorzLine1 && !bIsHorzLine2)

  00018	8b 7d 0c	 mov	 edi, DWORD PTR _line1_pt2$[ebp]
  0001b	3b 47 04	 cmp	 eax, DWORD PTR [edi+4]
  0001e	8b 7d 10	 mov	 edi, DWORD PTR _line2_pt1$[ebp]
  00021	74 29		 je	 SHORT $LN12@IsIntersec
  00023	3b 51 04	 cmp	 edx, DWORD PTR [ecx+4]
  00026	74 0b		 je	 SHORT $LN14@IsIntersec

; 467  : 		return CDrawer::NO_RESULT;

  00028	5f		 pop	 edi
  00029	83 c8 ff	 or	 eax, -1

; 476  : }

  0002c	5b		 pop	 ebx
  0002d	8b e5		 mov	 esp, ebp
  0002f	5d		 pop	 ebp
  00030	c2 14 00	 ret	 20			; 00000014H
$LN14@IsIntersec:

; 471  : 	// line2 수평선일 경우.
; 472  : 	else if(!bIsHorzLine1 && bIsHorzLine2)
; 473  : 		return GetIntersectionPoint_InHorzLine1(line2_pt1, line2_pt2, line1_pt1, line1_pt2, point);

  00033	ff 75 18	 push	 DWORD PTR _point$[ebp]
  00036	ff 75 0c	 push	 DWORD PTR _line1_pt2$[ebp]
  00039	53		 push	 ebx
  0003a	51		 push	 ecx
  0003b	8b 4d fc	 mov	 ecx, DWORD PTR _this$1$[ebp]
  0003e	57		 push	 edi
  0003f	e8 00 00 00 00	 call	 ?GetIntersectionPoint_InHorzLine1@CDrawer@@ABE?AW4INTERSECTION_RESULT@1@ABVCPoint@@000AAV3@@Z ; CDrawer::GetIntersectionPoint_InHorzLine1
  00044	5f		 pop	 edi

; 476  : }

  00045	5b		 pop	 ebx
  00046	8b e5		 mov	 esp, ebp
  00048	5d		 pop	 ebp
  00049	c2 14 00	 ret	 20			; 00000014H
$LN12@IsIntersec:

; 468  : 	// line1 수평선일 경우.
; 469  : 	else if(bIsHorzLine1 && !bIsHorzLine2)

  0004c	3b 51 04	 cmp	 edx, DWORD PTR [ecx+4]
  0004f	74 19		 je	 SHORT $LN6@IsIntersec

; 470  : 		return GetIntersectionPoint_InHorzLine1(line1_pt1, line1_pt2, line2_pt1, line2_pt2, point);

  00051	ff 75 18	 push	 DWORD PTR _point$[ebp]
  00054	51		 push	 ecx
  00055	8b 4d fc	 mov	 ecx, DWORD PTR _this$1$[ebp]
  00058	57		 push	 edi
  00059	ff 75 0c	 push	 DWORD PTR _line1_pt2$[ebp]
  0005c	53		 push	 ebx
  0005d	e8 00 00 00 00	 call	 ?GetIntersectionPoint_InHorzLine1@CDrawer@@ABE?AW4INTERSECTION_RESULT@1@ABVCPoint@@000AAV3@@Z ; CDrawer::GetIntersectionPoint_InHorzLine1
  00062	5f		 pop	 edi

; 476  : }

  00063	5b		 pop	 ebx
  00064	8b e5		 mov	 esp, ebp
  00066	5d		 pop	 ebp
  00067	c2 14 00	 ret	 20			; 00000014H
$LN6@IsIntersec:
  0006a	5f		 pop	 edi

; 474  : 
; 475  : 	return CDrawer::FALSE_RESULT;

  0006b	33 c0		 xor	 eax, eax

; 476  : }

  0006d	5b		 pop	 ebx
  0006e	8b e5		 mov	 esp, ebp
  00070	5d		 pop	 ebp
  00071	c2 14 00	 ret	 20			; 00000014H
?IsIntersectionPoint_InHorzLine@CDrawer@@ABE?AW4INTERSECTION_RESULT@1@ABVCPoint@@000AAV3@@Z ENDP ; CDrawer::IsIntersectionPoint_InHorzLine
_TEXT	ENDS
; Function compile flags: /Ogtp
; File D:\git\src\IBK\IBK_DRFN\ProjSrc\SrcChartEx\ChartAddIn\ChartAnalysisToolAddIn\AnalysisTool\Drawer.cpp
;	COMDAT ?IsHorizontalLine@CDrawer@@ABE_NABVCPoint@@0@Z
_TEXT	SEGMENT
_point1$ = 8						; size = 4
_point2$ = 12						; size = 4
?IsHorizontalLine@CDrawer@@ABE_NABVCPoint@@0@Z PROC	; CDrawer::IsHorizontalLine, COMDAT
; _this$ = ecx

; 451  : {

  00000	55		 push	 ebp
  00001	8b ec		 mov	 ebp, esp

; 452  : 	return (point1.y == point2.y);

  00003	8b 45 08	 mov	 eax, DWORD PTR _point1$[ebp]
  00006	8b 48 04	 mov	 ecx, DWORD PTR [eax+4]
  00009	8b 45 0c	 mov	 eax, DWORD PTR _point2$[ebp]
  0000c	3b 48 04	 cmp	 ecx, DWORD PTR [eax+4]
  0000f	0f 94 c0	 sete	 al

; 453  : }

  00012	5d		 pop	 ebp
  00013	c2 08 00	 ret	 8
?IsHorizontalLine@CDrawer@@ABE_NABVCPoint@@0@Z ENDP	; CDrawer::IsHorizontalLine
_TEXT	ENDS
; Function compile flags: /Ogtp
; File D:\git\src\IBK\IBK_DRFN\ProjSrc\SrcChartEx\ChartAddIn\ChartAnalysisToolAddIn\AnalysisTool\Drawer.cpp
;	COMDAT ?IsVerticalLine@CDrawer@@ABE_NABVCPoint@@0@Z
_TEXT	SEGMENT
_point1$ = 8						; size = 4
_point2$ = 12						; size = 4
?IsVerticalLine@CDrawer@@ABE_NABVCPoint@@0@Z PROC	; CDrawer::IsVerticalLine, COMDAT
; _this$ = ecx

; 445  : {

  00000	55		 push	 ebp
  00001	8b ec		 mov	 ebp, esp

; 446  : 	return (point1.x == point2.x);

  00003	8b 45 08	 mov	 eax, DWORD PTR _point1$[ebp]
  00006	8b 08		 mov	 ecx, DWORD PTR [eax]
  00008	8b 45 0c	 mov	 eax, DWORD PTR _point2$[ebp]
  0000b	3b 08		 cmp	 ecx, DWORD PTR [eax]
  0000d	0f 94 c0	 sete	 al

; 447  : }

  00010	5d		 pop	 ebp
  00011	c2 08 00	 ret	 8
?IsVerticalLine@CDrawer@@ABE_NABVCPoint@@0@Z ENDP	; CDrawer::IsVerticalLine
_TEXT	ENDS
; Function compile flags: /Ogtp
; File D:\git\src\IBK\IBK_DRFN\ProjSrc\SrcChartEx\ChartAddIn\ChartAnalysisToolAddIn\AnalysisTool\Drawer.cpp
;	COMDAT ?GetDrawingPoint_X@CDrawer@@IBEHABVCRegion@@H_N@Z
_TEXT	SEGMENT
$T1 = -36						; size = 8
$T2 = -28						; size = 8
$T3 = -20						; size = 16
__$ArrayPad$ = -4					; size = 4
_region$ = 8						; size = 4
_nIndex$ = 12						; size = 4
_bIsCenter$ = 16					; size = 1
?GetDrawingPoint_X@CDrawer@@IBEHABVCRegion@@H_N@Z PROC	; CDrawer::GetDrawingPoint_X, COMDAT
; _this$ = ecx

; 424  : {

  00000	55		 push	 ebp
  00001	8b ec		 mov	 ebp, esp
  00003	83 ec 24	 sub	 esp, 36			; 00000024H
  00006	a1 00 00 00 00	 mov	 eax, DWORD PTR ___security_cookie
  0000b	33 c5		 xor	 eax, ebp
  0000d	89 45 fc	 mov	 DWORD PTR __$ArrayPad$[ebp], eax
  00010	56		 push	 esi

; 425  : 	// XScale : 관련 Interface로 사용 - vntsorl(20070327)
; 426  : 	return CDataConversion::RelativeToAbsolute_X(region.GetRect(), 

  00011	ff 75 10	 push	 DWORD PTR _bIsCenter$[ebp]
  00014	8b 75 08	 mov	 esi, DWORD PTR _region$[ebp]
  00017	8d 45 e4	 lea	 eax, DWORD PTR $T2[ebp]
  0001a	ff 75 0c	 push	 DWORD PTR _nIndex$[ebp]
  0001d	8b ce		 mov	 ecx, esi
  0001f	50		 push	 eax
  00020	e8 00 00 00 00	 call	 ?GetDisplayAttributes@CRegion@@QBE?AVCDisplayAttributes@@XZ ; CRegion::GetDisplayAttributes
  00025	8b c8		 mov	 ecx, eax
  00027	e8 00 00 00 00	 call	 ?GetDataEndInBlock@CDisplayAttributes@@QBEHXZ ; CDisplayAttributes::GetDataEndInBlock
  0002c	50		 push	 eax
  0002d	8d 45 dc	 lea	 eax, DWORD PTR $T1[ebp]
  00030	8b ce		 mov	 ecx, esi
  00032	50		 push	 eax
  00033	e8 00 00 00 00	 call	 ?GetDisplayAttributes@CRegion@@QBE?AVCDisplayAttributes@@XZ ; CRegion::GetDisplayAttributes
  00038	8b c8		 mov	 ecx, eax
  0003a	e8 00 00 00 00	 call	 ?GetDataStartInBlock@CDisplayAttributes@@QBEHXZ ; CDisplayAttributes::GetDataStartInBlock
  0003f	50		 push	 eax
  00040	8d 45 ec	 lea	 eax, DWORD PTR $T3[ebp]
  00043	8b ce		 mov	 ecx, esi
  00045	50		 push	 eax
  00046	e8 00 00 00 00	 call	 ?GetRect@CRegion@@QBE?AVCRect@@XZ ; CRegion::GetRect
  0004b	50		 push	 eax
  0004c	e8 00 00 00 00	 call	 ?RelativeToAbsolute_X@CDataConversion@@SAHABVCRect@@HHH_N@Z ; CDataConversion::RelativeToAbsolute_X

; 427  : 			region.GetDisplayAttributes().GetDataStartInBlock(), 
; 428  : 			region.GetDisplayAttributes().GetDataEndInBlock(), nIndex, bIsCenter);
; 429  : //	CCoordinateCalculatorData calData;
; 430  : //	CPoints points = GetPoints(point, calData);
; 431  : //	return calData.GetIChartManager()->GetXPosition(nIndex, 0);
; 432  : }

  00051	8b 4d fc	 mov	 ecx, DWORD PTR __$ArrayPad$[ebp]
  00054	83 c4 14	 add	 esp, 20			; 00000014H
  00057	33 cd		 xor	 ecx, ebp
  00059	5e		 pop	 esi
  0005a	e8 00 00 00 00	 call	 @__security_check_cookie@4
  0005f	8b e5		 mov	 esp, ebp
  00061	5d		 pop	 ebp
  00062	c2 0c 00	 ret	 12			; 0000000cH
?GetDrawingPoint_X@CDrawer@@IBEHABVCRegion@@H_N@Z ENDP	; CDrawer::GetDrawingPoint_X
_TEXT	ENDS
; Function compile flags: /Ogtp
; File D:\git\src\IBK\IBK_DRFN\ProjSrc\SrcChartEx\ChartAddIn\ChartAnalysisToolAddIn\AnalysisTool\Drawer.cpp
;	COMDAT ?GetCurrentDataIndex@CDrawer@@IBEHABVCRegion@@ABVCPoint@@@Z
_TEXT	SEGMENT
$T1 = -36						; size = 8
$T2 = -28						; size = 8
$T3 = -20						; size = 16
__$ArrayPad$ = -4					; size = 4
_region$ = 8						; size = 4
_point$ = 12						; size = 4
?GetCurrentDataIndex@CDrawer@@IBEHABVCRegion@@ABVCPoint@@@Z PROC ; CDrawer::GetCurrentDataIndex, COMDAT
; _this$ = ecx

; 412  : {

  00000	55		 push	 ebp
  00001	8b ec		 mov	 ebp, esp
  00003	83 ec 24	 sub	 esp, 36			; 00000024H
  00006	a1 00 00 00 00	 mov	 eax, DWORD PTR ___security_cookie
  0000b	33 c5		 xor	 eax, ebp
  0000d	89 45 fc	 mov	 DWORD PTR __$ArrayPad$[ebp], eax
  00010	56		 push	 esi
  00011	8b 75 0c	 mov	 esi, DWORD PTR _point$[ebp]

; 413  : 	// XScale : 관련 Interface로 사용 - vntsorl(20070327)
; 414  : 	return CDataConversion::GetPacketDataIndex_Date(region.GetRect(), point, 

  00014	8d 45 e4	 lea	 eax, DWORD PTR $T2[ebp]
  00017	57		 push	 edi
  00018	8b 7d 08	 mov	 edi, DWORD PTR _region$[ebp]
  0001b	8b cf		 mov	 ecx, edi
  0001d	50		 push	 eax
  0001e	e8 00 00 00 00	 call	 ?GetDisplayAttributes@CRegion@@QBE?AVCDisplayAttributes@@XZ ; CRegion::GetDisplayAttributes
  00023	8b c8		 mov	 ecx, eax
  00025	e8 00 00 00 00	 call	 ?GetDataEndInBlock@CDisplayAttributes@@QBEHXZ ; CDisplayAttributes::GetDataEndInBlock
  0002a	50		 push	 eax
  0002b	8d 45 dc	 lea	 eax, DWORD PTR $T1[ebp]
  0002e	8b cf		 mov	 ecx, edi
  00030	50		 push	 eax
  00031	e8 00 00 00 00	 call	 ?GetDisplayAttributes@CRegion@@QBE?AVCDisplayAttributes@@XZ ; CRegion::GetDisplayAttributes
  00036	8b c8		 mov	 ecx, eax
  00038	e8 00 00 00 00	 call	 ?GetDataStartInBlock@CDisplayAttributes@@QBEHXZ ; CDisplayAttributes::GetDataStartInBlock
  0003d	50		 push	 eax
  0003e	56		 push	 esi
  0003f	8d 45 ec	 lea	 eax, DWORD PTR $T3[ebp]
  00042	8b cf		 mov	 ecx, edi
  00044	50		 push	 eax
  00045	e8 00 00 00 00	 call	 ?GetRect@CRegion@@QBE?AVCRect@@XZ ; CRegion::GetRect
  0004a	50		 push	 eax
  0004b	e8 00 00 00 00	 call	 ?GetPacketDataIndex_Date@CDataConversion@@SAHABVCRect@@ABVCPoint@@HH@Z ; CDataConversion::GetPacketDataIndex_Date

; 415  : 			region.GetDisplayAttributes().GetDataStartInBlock(), 
; 416  : 			region.GetDisplayAttributes().GetDataEndInBlock());
; 417  : //	CCoordinateCalculatorData calData;
; 418  : //	CPoints points = GetPoints(point, calData);
; 419  : //	return calData.GetIChartManager()->FindViewDataIndex_Pt(point.x);
; 420  : }

  00050	8b 4d fc	 mov	 ecx, DWORD PTR __$ArrayPad$[ebp]
  00053	83 c4 10	 add	 esp, 16			; 00000010H
  00056	33 cd		 xor	 ecx, ebp
  00058	5f		 pop	 edi
  00059	5e		 pop	 esi
  0005a	e8 00 00 00 00	 call	 @__security_check_cookie@4
  0005f	8b e5		 mov	 esp, ebp
  00061	5d		 pop	 ebp
  00062	c2 08 00	 ret	 8
?GetCurrentDataIndex@CDrawer@@IBEHABVCRegion@@ABVCPoint@@@Z ENDP ; CDrawer::GetCurrentDataIndex
_TEXT	ENDS
; Function compile flags: /Ogtp
; File D:\git\src\IBK\IBK_DRFN\ProjSrc\SrcChartEx\ChartAddIn\ChartAnalysisToolAddIn\AnalysisTool\Drawer.cpp
;	COMDAT ?GetLineIntercept@CDrawer@@IBENABNABVCPoint@@@Z
_TEXT	SEGMENT
tv138 = -8						; size = 8
_dAngle$ = 8						; size = 4
_point$ = 12						; size = 4
?GetLineIntercept@CDrawer@@IBENABNABVCPoint@@@Z PROC	; CDrawer::GetLineIntercept, COMDAT
; _this$ = ecx

; 405  : {

  00000	55		 push	 ebp
  00001	8b ec		 mov	 ebp, esp
  00003	83 ec 08	 sub	 esp, 8

; 406  : 	return ((double)point.y - (dAngle * (double)point.x));

  00006	8b 45 0c	 mov	 eax, DWORD PTR _point$[ebp]
  00009	66 0f 6e 00	 movd	 xmm0, DWORD PTR [eax]
  0000d	66 0f 6e 48 04	 movd	 xmm1, DWORD PTR [eax+4]
  00012	8b 45 08	 mov	 eax, DWORD PTR _dAngle$[ebp]
  00015	f3 0f e6 c0	 cvtdq2pd xmm0, xmm0
  00019	f3 0f e6 c9	 cvtdq2pd xmm1, xmm1
  0001d	f2 0f 59 00	 mulsd	 xmm0, QWORD PTR [eax]
  00021	f2 0f 5c c8	 subsd	 xmm1, xmm0
  00025	f2 0f 11 4d f8	 movsd	 QWORD PTR tv138[ebp], xmm1
  0002a	dd 45 f8	 fld	 QWORD PTR tv138[ebp]

; 407  : }

  0002d	8b e5		 mov	 esp, ebp
  0002f	5d		 pop	 ebp
  00030	c2 08 00	 ret	 8
?GetLineIntercept@CDrawer@@IBENABNABVCPoint@@@Z ENDP	; CDrawer::GetLineIntercept
_TEXT	ENDS
; Function compile flags: /Ogtp
; File D:\git\src\IBK\IBK_DRFN\ProjSrc\SrcChartEx\ChartAddIn\ChartAnalysisToolAddIn\AnalysisTool\Drawer.cpp
;	COMDAT ?GetLineAngle@CDrawer@@IBENABVCPoint@@0@Z
_TEXT	SEGMENT
tv196 = -8						; size = 8
_point1$ = 8						; size = 4
_point2$ = 12						; size = 4
?GetLineAngle@CDrawer@@IBENABVCPoint@@0@Z PROC		; CDrawer::GetLineAngle, COMDAT
; _this$ = ecx

; 394  : {

  00000	55		 push	 ebp
  00001	8b ec		 mov	 ebp, esp

; 395  : 	// X = a (x),  Y = a (o : 기울기 = 0)
; 396  : 	if(point1.x == point2.x || point1.y == point2.y)

  00003	8b 4d 08	 mov	 ecx, DWORD PTR _point1$[ebp]
  00006	83 ec 08	 sub	 esp, 8
  00009	8b 55 0c	 mov	 edx, DWORD PTR _point2$[ebp]
  0000c	56		 push	 esi
  0000d	8b 31		 mov	 esi, DWORD PTR [ecx]
  0000f	8b 02		 mov	 eax, DWORD PTR [edx]
  00011	57		 push	 edi
  00012	3b f0		 cmp	 esi, eax
  00014	74 32		 je	 SHORT $LN3@GetLineAng
  00016	8b 79 04	 mov	 edi, DWORD PTR [ecx+4]
  00019	8b 4a 04	 mov	 ecx, DWORD PTR [edx+4]
  0001c	3b f9		 cmp	 edi, ecx
  0001e	74 28		 je	 SHORT $LN3@GetLineAng

; 398  : 
; 399  : 	// Y = aX + b (o : 기울기 = a)
; 400  : 	return ((double)(point2.y - point1.y) / (double)(point2.x - point1.x));

  00020	2b cf		 sub	 ecx, edi
  00022	2b c6		 sub	 eax, esi
  00024	5f		 pop	 edi

; 401  : }

  00025	5e		 pop	 esi
  00026	66 0f 6e c9	 movd	 xmm1, ecx
  0002a	66 0f 6e c0	 movd	 xmm0, eax
  0002e	f3 0f e6 c9	 cvtdq2pd xmm1, xmm1
  00032	f3 0f e6 c0	 cvtdq2pd xmm0, xmm0
  00036	f2 0f 5e c8	 divsd	 xmm1, xmm0
  0003a	f2 0f 11 4d f8	 movsd	 QWORD PTR tv196[ebp], xmm1
  0003f	dd 45 f8	 fld	 QWORD PTR tv196[ebp]
  00042	8b e5		 mov	 esp, ebp
  00044	5d		 pop	 ebp
  00045	c2 08 00	 ret	 8
$LN3@GetLineAng:

; 397  : 		return 0.0;

  00048	d9 ee		 fldz
  0004a	5f		 pop	 edi

; 401  : }

  0004b	5e		 pop	 esi
  0004c	8b e5		 mov	 esp, ebp
  0004e	5d		 pop	 ebp
  0004f	c2 08 00	 ret	 8
?GetLineAngle@CDrawer@@IBENABVCPoint@@0@Z ENDP		; CDrawer::GetLineAngle
_TEXT	ENDS
; Function compile flags: /Ogtp
; File D:\git\src\IBK\IBK_DRFN\ProjSrc\SrcChartEx\ChartAddIn\ChartAnalysisToolAddIn\AnalysisTool\Drawer.cpp
; File C:\Program Files (x86)\Microsoft Visual Studio\2019\Community\VC\Tools\MSVC\14.29.30133\atlmfc\include\atltypes.h
; File D:\git\src\IBK\IBK_DRFN\ProjSrc\SrcChartEx\ChartAddIn\ChartAnalysisToolAddIn\AnalysisTool\Drawer.cpp
; File C:\Program Files (x86)\Microsoft Visual Studio\2019\Community\VC\Tools\MSVC\14.29.30133\atlmfc\include\atltypes.h
; File D:\git\src\IBK\IBK_DRFN\ProjSrc\SrcChartEx\ChartAddIn\ChartAnalysisToolAddIn\AnalysisTool\Drawer.cpp
; File C:\Program Files (x86)\Microsoft Visual Studio\2019\Community\VC\Tools\MSVC\14.29.30133\atlmfc\include\atltypes.h
; File D:\git\src\IBK\IBK_DRFN\ProjSrc\SrcChartEx\ChartAddIn\ChartAnalysisToolAddIn\AnalysisTool\Drawer.cpp
;	COMDAT ?Intersection@CDrawer@@IBE_NABVCPoint@@000AAV2@@Z
_TEXT	SEGMENT
tv398 = -16						; size = 8
tv386 = -16						; size = 8
_dx$1$ = -8						; size = 8
_this$1$ = -4						; size = 4
_line1_pt1$ = 8						; size = 4
tv786 = 12						; size = 4
$T1 = 12						; size = 4
$T2 = 12						; size = 4
_line1_pt2$ = 12					; size = 4
tv785 = 16						; size = 4
_line2_pt1$ = 16					; size = 4
_line2_pt2$ = 20					; size = 4
_point$ = 24						; size = 4
?Intersection@CDrawer@@IBE_NABVCPoint@@000AAV2@@Z PROC	; CDrawer::Intersection, COMDAT
; _this$ = ecx

; 371  : {

  00000	55		 push	 ebp
  00001	8b ec		 mov	 ebp, esp
  00003	83 ec 10	 sub	 esp, 16			; 00000010H
  00006	53		 push	 ebx
  00007	8b 5d 0c	 mov	 ebx, DWORD PTR _line1_pt2$[ebp]
  0000a	56		 push	 esi
  0000b	8b 75 08	 mov	 esi, DWORD PTR _line1_pt1$[ebp]
  0000e	57		 push	 edi

; 373  : 	if(line1_pt1 == line1_pt2 || line2_pt1 == line2_pt2)

  0000f	8b 03		 mov	 eax, DWORD PTR [ebx]
  00011	8b 7d 10	 mov	 edi, DWORD PTR _line2_pt1$[ebp]
  00014	89 4d fc	 mov	 DWORD PTR _this$1$[ebp], ecx
  00017	8b 4b 04	 mov	 ecx, DWORD PTR [ebx+4]
  0001a	89 45 f0	 mov	 DWORD PTR tv398[ebp], eax
; File C:\Program Files (x86)\Microsoft Visual Studio\2019\Community\VC\Tools\MSVC\14.29.30133\atlmfc\include\atltypes.h

; 458  : 	return (x == point.x && y == point.y);

  0001d	39 06		 cmp	 DWORD PTR [esi], eax
  0001f	75 05		 jne	 SHORT $LN58@Intersecti
  00021	39 4e 04	 cmp	 DWORD PTR [esi+4], ecx
  00024	74 16		 je	 SHORT $LN3@Intersecti
$LN58@Intersecti:
; File D:\git\src\IBK\IBK_DRFN\ProjSrc\SrcChartEx\ChartAddIn\ChartAnalysisToolAddIn\AnalysisTool\Drawer.cpp

; 373  : 	if(line1_pt1 == line1_pt2 || line2_pt1 == line2_pt2)

  00026	8b 4d 14	 mov	 ecx, DWORD PTR _line2_pt2$[ebp]
  00029	8b 01		 mov	 eax, DWORD PTR [ecx]
; File C:\Program Files (x86)\Microsoft Visual Studio\2019\Community\VC\Tools\MSVC\14.29.30133\atlmfc\include\atltypes.h

; 458  : 	return (x == point.x && y == point.y);

  0002b	39 07		 cmp	 DWORD PTR [edi], eax
; File D:\git\src\IBK\IBK_DRFN\ProjSrc\SrcChartEx\ChartAddIn\ChartAnalysisToolAddIn\AnalysisTool\Drawer.cpp

; 373  : 	if(line1_pt1 == line1_pt2 || line2_pt1 == line2_pt2)

  0002d	8b 51 04	 mov	 edx, DWORD PTR [ecx+4]
  00030	89 45 f0	 mov	 DWORD PTR tv386[ebp], eax
; File C:\Program Files (x86)\Microsoft Visual Studio\2019\Community\VC\Tools\MSVC\14.29.30133\atlmfc\include\atltypes.h

; 458  : 	return (x == point.x && y == point.y);

  00033	8b 47 04	 mov	 eax, DWORD PTR [edi+4]
  00036	75 0f		 jne	 SHORT $LN13@Intersecti
  00038	3b c2		 cmp	 eax, edx
  0003a	75 0b		 jne	 SHORT $LN13@Intersecti
$LN3@Intersecti:
  0003c	5f		 pop	 edi
; File D:\git\src\IBK\IBK_DRFN\ProjSrc\SrcChartEx\ChartAddIn\ChartAnalysisToolAddIn\AnalysisTool\Drawer.cpp

; 388  : }

  0003d	5e		 pop	 esi
  0003e	32 c0		 xor	 al, al
  00040	5b		 pop	 ebx
  00041	8b e5		 mov	 esp, ebp
  00043	5d		 pop	 ebp
  00044	c2 14 00	 ret	 20			; 00000014H
$LN13@Intersecti:

; 466  : 	if(!bIsHorzLine1 && !bIsHorzLine2)

  00047	8b 5b 04	 mov	 ebx, DWORD PTR [ebx+4]
  0004a	39 5e 04	 cmp	 DWORD PTR [esi+4], ebx
  0004d	8b 5d 0c	 mov	 ebx, DWORD PTR _line1_pt2$[ebp]
  00050	74 0f		 je	 SHORT $LN65@Intersecti
  00052	3b c2		 cmp	 eax, edx
  00054	75 39		 jne	 SHORT $LN70@Intersecti

; 471  : 	// line2 수평선일 경우.
; 472  : 	else if(!bIsHorzLine1 && bIsHorzLine2)
; 473  : 		return GetIntersectionPoint_InHorzLine1(line2_pt1, line2_pt2, line1_pt1, line1_pt2, point);

  00056	8b d1		 mov	 edx, ecx
  00058	89 5d 0c	 mov	 DWORD PTR $T2[ebp], ebx
  0005b	8b c7		 mov	 eax, edi
  0005d	8b ce		 mov	 ecx, esi
  0005f	eb 11		 jmp	 SHORT $LN15@Intersecti
$LN65@Intersecti:

; 467  : 		return CDrawer::NO_RESULT;
; 468  : 	// line1 수평선일 경우.
; 469  : 	else if(bIsHorzLine1 && !bIsHorzLine2)

  00061	3b c2		 cmp	 eax, edx
  00063	0f 84 5a 01 00
	00		 je	 $LN20@Intersecti

; 470  : 		return GetIntersectionPoint_InHorzLine1(line1_pt1, line1_pt2, line2_pt1, line2_pt2, point);

  00069	89 4d 0c	 mov	 DWORD PTR $T2[ebp], ecx
  0006c	8b c6		 mov	 eax, esi
  0006e	8b d3		 mov	 edx, ebx
  00070	8b cf		 mov	 ecx, edi
$LN15@Intersecti:

; 374  : 		return false;
; 375  : 
; 376  : 	// 수평선
; 377  : 	CDrawer::INTERSECTION_RESULT result = IsIntersectionPoint_InHorzLine(line1_pt1, line1_pt2,	line2_pt1, line2_pt2, point);
; 378  : 	if(result != CDrawer::NO_RESULT)

  00072	ff 75 18	 push	 DWORD PTR _point$[ebp]
  00075	ff 75 0c	 push	 DWORD PTR $T2[ebp]
  00078	51		 push	 ecx
  00079	8b 4d fc	 mov	 ecx, DWORD PTR _this$1$[ebp]
  0007c	52		 push	 edx
  0007d	50		 push	 eax
  0007e	e8 00 00 00 00	 call	 ?GetIntersectionPoint_InHorzLine1@CDrawer@@ABE?AW4INTERSECTION_RESULT@1@ABVCPoint@@000AAV3@@Z ; CDrawer::GetIntersectionPoint_InHorzLine1
  00083	83 f8 ff	 cmp	 eax, -1
  00086	0f 85 39 01 00
	00		 jne	 $LN66@Intersecti
  0008c	8b 4d 14	 mov	 ecx, DWORD PTR _line2_pt2$[ebp]
$LN70@Intersecti:

; 508  : 	if(!bIsVertLine1 && !bIsVertLine2)

  0008f	8b 06		 mov	 eax, DWORD PTR [esi]

; 446  : 	return (point1.x == point2.x);

  00091	8b 17		 mov	 edx, DWORD PTR [edi]

; 508  : 	if(!bIsVertLine1 && !bIsVertLine2)

  00093	3b 03		 cmp	 eax, DWORD PTR [ebx]
  00095	74 0f		 je	 SHORT $LN64@Intersecti
  00097	3b 11		 cmp	 edx, DWORD PTR [ecx]
  00099	75 36		 jne	 SHORT $LN71@Intersecti

; 513  : 	// line2 수직선일 경우.
; 514  : 	else if(!bIsVertLine1 && bIsVertLine2)
; 515  : 		return GetIntersectionPoint_InVertLine1(line2_pt1, line2_pt2, line1_pt1, line1_pt2, point);

  0009b	8b d1		 mov	 edx, ecx
  0009d	89 5d 0c	 mov	 DWORD PTR $T1[ebp], ebx
  000a0	8b c7		 mov	 eax, edi
  000a2	8b ce		 mov	 ecx, esi
  000a4	eb 11		 jmp	 SHORT $LN28@Intersecti
$LN64@Intersecti:

; 509  : 		return CDrawer::NO_RESULT;
; 510  : 	// line1 수직선일 경우.
; 511  : 	else if(bIsVertLine1 && !bIsVertLine2)

  000a6	3b 11		 cmp	 edx, DWORD PTR [ecx]
  000a8	0f 84 15 01 00
	00		 je	 $LN20@Intersecti

; 512  : 		return GetIntersectionPoint_InVertLine1(line1_pt1, line1_pt2, line2_pt1, line2_pt2, point);

  000ae	89 4d 0c	 mov	 DWORD PTR $T1[ebp], ecx
  000b1	8b c6		 mov	 eax, esi
  000b3	8b d3		 mov	 edx, ebx
  000b5	8b cf		 mov	 ecx, edi
$LN28@Intersecti:

; 379  : 		return Result(result);
; 380  : 
; 381  : 	// 수직선
; 382  : 	result = IsIntersectionPoint_InVertLine(line1_pt1, line1_pt2, line2_pt1, line2_pt2, point);
; 383  : 	if(result != CDrawer::NO_RESULT)

  000b7	ff 75 18	 push	 DWORD PTR _point$[ebp]
  000ba	ff 75 0c	 push	 DWORD PTR $T1[ebp]
  000bd	51		 push	 ecx
  000be	8b 4d fc	 mov	 ecx, DWORD PTR _this$1$[ebp]
  000c1	52		 push	 edx
  000c2	50		 push	 eax
  000c3	e8 00 00 00 00	 call	 ?GetIntersectionPoint_InVertLine1@CDrawer@@ABE?AW4INTERSECTION_RESULT@1@ABVCPoint@@000AAV3@@Z ; CDrawer::GetIntersectionPoint_InVertLine1
  000c8	83 f8 ff	 cmp	 eax, -1
  000cb	0f 85 f4 00 00
	00		 jne	 $LN66@Intersecti
$LN71@Intersecti:

; 396  : 	if(point1.x == point2.x || point1.y == point2.y)

  000d1	8b 03		 mov	 eax, DWORD PTR [ebx]
  000d3	0f 57 db	 xorps	 xmm3, xmm3
  000d6	39 06		 cmp	 DWORD PTR [esi], eax
  000d8	74 26		 je	 SHORT $LN72@Intersecti
  000da	8b 56 04	 mov	 edx, DWORD PTR [esi+4]
  000dd	8b 4b 04	 mov	 ecx, DWORD PTR [ebx+4]
  000e0	3b d1		 cmp	 edx, ecx
  000e2	74 1c		 je	 SHORT $LN72@Intersecti

; 398  : 
; 399  : 	// Y = aX + b (o : 기울기 = a)
; 400  : 	return ((double)(point2.y - point1.y) / (double)(point2.x - point1.x));

  000e4	8b 36		 mov	 esi, DWORD PTR [esi]
  000e6	2b ca		 sub	 ecx, edx
  000e8	2b c6		 sub	 eax, esi
  000ea	66 0f 6e d1	 movd	 xmm2, ecx
  000ee	66 0f 6e c0	 movd	 xmm0, eax
  000f2	f3 0f e6 d2	 cvtdq2pd xmm2, xmm2
  000f6	f3 0f e6 c0	 cvtdq2pd xmm0, xmm0
  000fa	f2 0f 5e d0	 divsd	 xmm2, xmm0
  000fe	eb 08		 jmp	 SHORT $LN44@Intersecti
$LN72@Intersecti:

; 397  : 		return 0.0;

  00100	8b 56 04	 mov	 edx, DWORD PTR [esi+4]
  00103	0f 57 d2	 xorps	 xmm2, xmm2
  00106	8b 36		 mov	 esi, DWORD PTR [esi]
$LN44@Intersecti:

; 396  : 	if(point1.x == point2.x || point1.y == point2.y)

  00108	8b 4d 14	 mov	 ecx, DWORD PTR _line2_pt2$[ebp]
  0010b	8b 1f		 mov	 ebx, DWORD PTR [edi]
  0010d	8b 01		 mov	 eax, DWORD PTR [ecx]
  0010f	3b d8		 cmp	 ebx, eax
  00111	74 21		 je	 SHORT $LN73@Intersecti
  00113	8b 49 04	 mov	 ecx, DWORD PTR [ecx+4]
  00116	39 4f 04	 cmp	 DWORD PTR [edi+4], ecx
  00119	74 19		 je	 SHORT $LN73@Intersecti

; 398  : 
; 399  : 	// Y = aX + b (o : 기울기 = a)
; 400  : 	return ((double)(point2.y - point1.y) / (double)(point2.x - point1.x));

  0011b	2b 4f 04	 sub	 ecx, DWORD PTR [edi+4]
  0011e	2b c3		 sub	 eax, ebx
  00120	66 0f 6e d9	 movd	 xmm3, ecx
  00124	66 0f 6e c0	 movd	 xmm0, eax
  00128	f3 0f e6 db	 cvtdq2pd xmm3, xmm3
  0012c	f3 0f e6 c0	 cvtdq2pd xmm0, xmm0
  00130	f2 0f 5e d8	 divsd	 xmm3, xmm0
$LN73@Intersecti:
  00134	66 0f 6e c6	 movd	 xmm0, esi

; 549  : 	if(dAngle_Line1 == dAngle_Line2)

  00138	66 0f 2e d3	 ucomisd xmm2, xmm3

; 406  : 	return ((double)point.y - (dAngle * (double)point.x));

  0013c	f3 0f e6 c0	 cvtdq2pd xmm0, xmm0
  00140	66 0f 6e e2	 movd	 xmm4, edx
  00144	f3 0f e6 e4	 cvtdq2pd xmm4, xmm4
  00148	f2 0f 59 c2	 mulsd	 xmm0, xmm2

; 549  : 	if(dAngle_Line1 == dAngle_Line2)

  0014c	9f		 lahf

; 406  : 	return ((double)point.y - (dAngle * (double)point.x));

  0014d	f2 0f 5c e0	 subsd	 xmm4, xmm0

; 549  : 	if(dAngle_Line1 == dAngle_Line2)

  00151	f6 c4 44	 test	 ah, 68			; 00000044H
  00154	0f 8b e2 fe ff
	ff		 jnp	 $LN3@Intersecti
  0015a	66 0f 6e 4f 04	 movd	 xmm1, DWORD PTR [edi+4]

; 554  : 
; 555  : 	point = CPoint(CMath::Round(dx), CMath::Round(dy));	

  0015f	83 ec 08	 sub	 esp, 8
  00162	66 0f 6e c3	 movd	 xmm0, ebx

; 406  : 	return ((double)point.y - (dAngle * (double)point.x));

  00166	f3 0f e6 c0	 cvtdq2pd xmm0, xmm0
  0016a	f3 0f e6 c9	 cvtdq2pd xmm1, xmm1
  0016e	f2 0f 59 c3	 mulsd	 xmm0, xmm3
  00172	f2 0f 5c c8	 subsd	 xmm1, xmm0

; 552  : 	double dx = (dIntercept_Line2 - dIntercept_Line1) / (dAngle_Line1 - dAngle_Line2);

  00176	0f 28 c2	 movaps	 xmm0, xmm2
  00179	f2 0f 5c c3	 subsd	 xmm0, xmm3
  0017d	f2 0f 5c cc	 subsd	 xmm1, xmm4
  00181	f2 0f 5e c8	 divsd	 xmm1, xmm0

; 553  : 	double dy = dAngle_Line1 * dx + dIntercept_Line1;

  00185	f2 0f 59 d1	 mulsd	 xmm2, xmm1
  00189	f2 0f 11 4d f8	 movsd	 QWORD PTR _dx$1$[ebp], xmm1
  0018e	f2 0f 58 d4	 addsd	 xmm2, xmm4

; 554  : 
; 555  : 	point = CPoint(CMath::Round(dx), CMath::Round(dy));	

  00192	f2 0f 11 14 24	 movsd	 QWORD PTR [esp], xmm2
  00197	e8 00 00 00 00	 call	 ?Round@CMath@@SAHN@Z	; CMath::Round
  0019c	f2 0f 10 45 f8	 movsd	 xmm0, QWORD PTR _dx$1$[ebp]
  001a1	8b f0		 mov	 esi, eax
  001a3	f2 0f 11 04 24	 movsd	 QWORD PTR [esp], xmm0
  001a8	e8 00 00 00 00	 call	 ?Round@CMath@@SAHN@Z	; CMath::Round
  001ad	8b 4d 18	 mov	 ecx, DWORD PTR _point$[ebp]
  001b0	83 c4 08	 add	 esp, 8
  001b3	5f		 pop	 edi
  001b4	89 71 04	 mov	 DWORD PTR [ecx+4], esi

; 388  : }

  001b7	5e		 pop	 esi

; 555  : 	point = CPoint(CMath::Round(dx), CMath::Round(dy));	

  001b8	89 01		 mov	 DWORD PTR [ecx], eax

; 556  : 	return true;

  001ba	b0 01		 mov	 al, 1

; 388  : }

  001bc	5b		 pop	 ebx
  001bd	8b e5		 mov	 esp, ebp
  001bf	5d		 pop	 ebp
  001c0	c2 14 00	 ret	 20			; 00000014H
$LN20@Intersecti:
  001c3	33 c0		 xor	 eax, eax
$LN66@Intersecti:
  001c5	5f		 pop	 edi
  001c6	83 f8 01	 cmp	 eax, 1
  001c9	5e		 pop	 esi
  001ca	0f 94 c0	 sete	 al
  001cd	5b		 pop	 ebx
  001ce	8b e5		 mov	 esp, ebp
  001d0	5d		 pop	 ebp
  001d1	c2 14 00	 ret	 20			; 00000014H
?Intersection@CDrawer@@IBE_NABVCPoint@@000AAV2@@Z ENDP	; CDrawer::Intersection
_TEXT	ENDS
; Function compile flags: /Ogtp
; File D:\git\src\IBK\IBK_DRFN\ProjSrc\SrcChartEx\ChartAddIn\ChartAnalysisToolAddIn\AnalysisTool\Drawer.cpp
; File C:\Program Files (x86)\Microsoft Visual Studio\2019\Community\VC\Tools\MSVC\14.29.30133\atlmfc\include\atltypes.h
; File D:\git\src\IBK\IBK_DRFN\ProjSrc\SrcChartEx\ChartAddIn\ChartAnalysisToolAddIn\AnalysisTool\Drawer.cpp
; File C:\Program Files (x86)\Microsoft Visual Studio\2019\Community\VC\Tools\MSVC\14.29.30133\atlmfc\include\atltypes.h
; File D:\git\src\IBK\IBK_DRFN\ProjSrc\SrcChartEx\ChartAddIn\ChartAnalysisToolAddIn\AnalysisTool\Drawer.cpp
;	COMDAT ?GetLineEndPoint@CDrawer@@IBE?AVCPoint@@ABV2@000@Z
_TEXT	SEGMENT
_point$ = -8						; size = 8
___$ReturnUdt$ = 8					; size = 4
_line1_pt1$ = 12					; size = 4
_line1_pt2$ = 16					; size = 4
_line2_pt1$ = 20					; size = 4
_line2_pt2$ = 24					; size = 4
?GetLineEndPoint@CDrawer@@IBE?AVCPoint@@ABV2@000@Z PROC	; CDrawer::GetLineEndPoint, COMDAT
; _this$ = ecx

; 362  : {

  00000	55		 push	 ebp
  00001	8b ec		 mov	 ebp, esp
  00003	83 ec 08	 sub	 esp, 8
  00006	56		 push	 esi

; 364  : 	if(Intersection(line1_pt1, line1_pt2, line2_pt1, line2_pt2, point))

  00007	8b 75 0c	 mov	 esi, DWORD PTR _line1_pt1$[ebp]
  0000a	8d 45 f8	 lea	 eax, DWORD PTR _point$[ebp]
  0000d	50		 push	 eax
  0000e	ff 75 18	 push	 DWORD PTR _line2_pt2$[ebp]
; File C:\Program Files (x86)\Microsoft Visual Studio\2019\Community\VC\Tools\MSVC\14.29.30133\atlmfc\include\atltypes.h

; 400  : 	x = 0;

  00011	c7 45 f8 00 00
	00 00		 mov	 DWORD PTR _point$[ebp], 0
; File D:\git\src\IBK\IBK_DRFN\ProjSrc\SrcChartEx\ChartAddIn\ChartAnalysisToolAddIn\AnalysisTool\Drawer.cpp

; 364  : 	if(Intersection(line1_pt1, line1_pt2, line2_pt1, line2_pt2, point))

  00018	ff 75 14	 push	 DWORD PTR _line2_pt1$[ebp]
; File C:\Program Files (x86)\Microsoft Visual Studio\2019\Community\VC\Tools\MSVC\14.29.30133\atlmfc\include\atltypes.h

; 401  : 	y = 0;

  0001b	c7 45 fc 00 00
	00 00		 mov	 DWORD PTR _point$[ebp+4], 0
; File D:\git\src\IBK\IBK_DRFN\ProjSrc\SrcChartEx\ChartAddIn\ChartAnalysisToolAddIn\AnalysisTool\Drawer.cpp

; 364  : 	if(Intersection(line1_pt1, line1_pt2, line2_pt1, line2_pt2, point))

  00022	ff 75 10	 push	 DWORD PTR _line1_pt2$[ebp]
  00025	56		 push	 esi
  00026	e8 00 00 00 00	 call	 ?Intersection@CDrawer@@IBE_NABVCPoint@@000AAV2@@Z ; CDrawer::Intersection
  0002b	84 c0		 test	 al, al
  0002d	8b 45 08	 mov	 eax, DWORD PTR ___$ReturnUdt$[ebp]
  00030	74 12		 je	 SHORT $LN2@GetLineEnd

; 365  : 		return point;

  00032	8b 4d f8	 mov	 ecx, DWORD PTR _point$[ebp]
  00035	8b 55 fc	 mov	 edx, DWORD PTR _point$[ebp+4]

; 368  : }

  00038	89 50 04	 mov	 DWORD PTR [eax+4], edx
  0003b	89 08		 mov	 DWORD PTR [eax], ecx
  0003d	5e		 pop	 esi
  0003e	8b e5		 mov	 esp, ebp
  00040	5d		 pop	 ebp
  00041	c2 14 00	 ret	 20			; 00000014H
$LN2@GetLineEnd:

; 366  : 
; 367  : 	return line1_pt1;

  00044	8b 0e		 mov	 ecx, DWORD PTR [esi]
  00046	8b 56 04	 mov	 edx, DWORD PTR [esi+4]

; 368  : }

  00049	89 50 04	 mov	 DWORD PTR [eax+4], edx
  0004c	89 08		 mov	 DWORD PTR [eax], ecx
  0004e	5e		 pop	 esi
  0004f	8b e5		 mov	 esp, ebp
  00051	5d		 pop	 ebp
  00052	c2 14 00	 ret	 20			; 00000014H
?GetLineEndPoint@CDrawer@@IBE?AVCPoint@@ABV2@000@Z ENDP	; CDrawer::GetLineEndPoint
_TEXT	ENDS
; Function compile flags: /Ogtp
; File D:\git\src\IBK\IBK_DRFN\ProjSrc\SrcChartEx\ChartAddIn\ChartAnalysisToolAddIn\AnalysisTool\Drawer.cpp
; File C:\Program Files (x86)\Microsoft Visual Studio\2019\Community\VC\Tools\MSVC\14.29.30133\atlmfc\include\atltypes.h
; File D:\git\src\IBK\IBK_DRFN\ProjSrc\SrcChartEx\ChartAddIn\ChartAnalysisToolAddIn\AnalysisTool\Drawer.cpp
; File C:\Program Files (x86)\Microsoft Visual Studio\2019\Community\VC\Tools\MSVC\14.29.30133\atlmfc\include\atltypes.h
; File D:\git\src\IBK\IBK_DRFN\ProjSrc\SrcChartEx\ChartAddIn\ChartAnalysisToolAddIn\AnalysisTool\Drawer.cpp
; File C:\Program Files (x86)\Microsoft Visual Studio\2019\Community\VC\Tools\MSVC\14.29.30133\atlmfc\include\atltypes.h
; File D:\git\src\IBK\IBK_DRFN\ProjSrc\SrcChartEx\ChartAddIn\ChartAnalysisToolAddIn\AnalysisTool\Drawer.cpp
; File C:\Program Files (x86)\Microsoft Visual Studio\2019\Community\VC\Tools\MSVC\14.29.30133\atlmfc\include\atltypes.h
; File D:\git\src\IBK\IBK_DRFN\ProjSrc\SrcChartEx\ChartAddIn\ChartAnalysisToolAddIn\AnalysisTool\Drawer.cpp
; File C:\Program Files (x86)\Microsoft Visual Studio\2019\Community\VC\Tools\MSVC\14.29.30133\atlmfc\include\atltypes.h
; File D:\git\src\IBK\IBK_DRFN\ProjSrc\SrcChartEx\ChartAddIn\ChartAnalysisToolAddIn\AnalysisTool\Drawer.cpp
; File C:\Program Files (x86)\Microsoft Visual Studio\2019\Community\VC\Tools\MSVC\14.29.30133\atlmfc\include\atltypes.h
; File D:\git\src\IBK\IBK_DRFN\ProjSrc\SrcChartEx\ChartAddIn\ChartAnalysisToolAddIn\AnalysisTool\Drawer.cpp
; File C:\Program Files (x86)\Microsoft Visual Studio\2019\Community\VC\Tools\MSVC\14.29.30133\atlmfc\include\atltypes.h
; File D:\git\src\IBK\IBK_DRFN\ProjSrc\SrcChartEx\ChartAddIn\ChartAnalysisToolAddIn\AnalysisTool\Drawer.cpp
;	COMDAT ?GetTextRegion@CDrawer@@IBE?AVCRect@@ABVCSize@@ABVCPoint@@_N2@Z
_TEXT	SEGMENT
_region$ = -20						; size = 16
__$ArrayPad$ = -4					; size = 4
___$ReturnUdt$ = 8					; size = 4
_textSize$ = 12						; size = 4
_orgPoint$ = 16						; size = 4
_bLeft$ = 20						; size = 1
_bTop$ = 24						; size = 1
?GetTextRegion@CDrawer@@IBE?AVCRect@@ABVCSize@@ABVCPoint@@_N2@Z PROC ; CDrawer::GetTextRegion, COMDAT
; _this$ = ecx

; 341  : {

  00000	55		 push	 ebp
  00001	8b ec		 mov	 ebp, esp
  00003	83 ec 14	 sub	 esp, 20			; 00000014H
  00006	a1 00 00 00 00	 mov	 eax, DWORD PTR ___security_cookie
  0000b	33 c5		 xor	 eax, ebp
  0000d	89 45 fc	 mov	 DWORD PTR __$ArrayPad$[ebp], eax
; File C:\Program Files (x86)\Microsoft Visual Studio\2019\Community\VC\Tools\MSVC\14.29.30133\atlmfc\include\atltypes.h

; 334  : 	return (cx == size.cx && cy == size.cy);

  00010	8b 45 0c	 mov	 eax, DWORD PTR _textSize$[ebp]
; File D:\git\src\IBK\IBK_DRFN\ProjSrc\SrcChartEx\ChartAddIn\ChartAnalysisToolAddIn\AnalysisTool\Drawer.cpp

; 341  : {

  00013	53		 push	 ebx
  00014	8b 5d 10	 mov	 ebx, DWORD PTR _orgPoint$[ebp]
  00017	56		 push	 esi
; File C:\Program Files (x86)\Microsoft Visual Studio\2019\Community\VC\Tools\MSVC\14.29.30133\atlmfc\include\atltypes.h

; 334  : 	return (cx == size.cx && cy == size.cy);

  00018	8b 08		 mov	 ecx, DWORD PTR [eax]
; File D:\git\src\IBK\IBK_DRFN\ProjSrc\SrcChartEx\ChartAddIn\ChartAnalysisToolAddIn\AnalysisTool\Drawer.cpp

; 341  : {

  0001a	8b 75 08	 mov	 esi, DWORD PTR ___$ReturnUdt$[ebp]
; File C:\Program Files (x86)\Microsoft Visual Studio\2019\Community\VC\Tools\MSVC\14.29.30133\atlmfc\include\atltypes.h

; 334  : 	return (cx == size.cx && cy == size.cy);

  0001d	85 c9		 test	 ecx, ecx
  0001f	75 24		 jne	 SHORT $LN2@GetTextReg
  00021	39 48 04	 cmp	 DWORD PTR [eax+4], ecx
  00024	75 1f		 jne	 SHORT $LN2@GetTextReg

; 540  : 	left = l;

  00026	89 0e		 mov	 DWORD PTR [esi], ecx
; File D:\git\src\IBK\IBK_DRFN\ProjSrc\SrcChartEx\ChartAddIn\ChartAnalysisToolAddIn\AnalysisTool\Drawer.cpp

; 357  : }

  00028	8b c6		 mov	 eax, esi
; File C:\Program Files (x86)\Microsoft Visual Studio\2019\Community\VC\Tools\MSVC\14.29.30133\atlmfc\include\atltypes.h

; 541  : 	top = t;

  0002a	89 4e 04	 mov	 DWORD PTR [esi+4], ecx

; 542  : 	right = r;

  0002d	89 4e 08	 mov	 DWORD PTR [esi+8], ecx

; 543  : 	bottom = b;

  00030	89 4e 0c	 mov	 DWORD PTR [esi+12], ecx
  00033	5e		 pop	 esi
; File D:\git\src\IBK\IBK_DRFN\ProjSrc\SrcChartEx\ChartAddIn\ChartAnalysisToolAddIn\AnalysisTool\Drawer.cpp

; 357  : }

  00034	5b		 pop	 ebx
  00035	8b 4d fc	 mov	 ecx, DWORD PTR __$ArrayPad$[ebp]
  00038	33 cd		 xor	 ecx, ebp
  0003a	e8 00 00 00 00	 call	 @__security_check_cookie@4
  0003f	8b e5		 mov	 esp, ebp
  00041	5d		 pop	 ebp
  00042	c2 14 00	 ret	 20			; 00000014H
$LN2@GetTextReg:

; 342  : 	if(textSize == CSize(0, 0))
; 343  : 		return CRect(0, 0, 0, 0);
; 344  : 
; 345  : 	CRect region = CRect(0, 0, textSize.cx + MARGIN*3/2, textSize.cy + MARGIN);

  00045	8b 40 04	 mov	 eax, DWORD PTR [eax+4]
  00048	83 c1 06	 add	 ecx, 6
  0004b	83 c0 04	 add	 eax, 4
; File C:\Program Files (x86)\Microsoft Visual Studio\2019\Community\VC\Tools\MSVC\14.29.30133\atlmfc\include\atltypes.h

; 540  : 	left = l;

  0004e	c7 45 ec 00 00
	00 00		 mov	 DWORD PTR _region$[ebp], 0
; File D:\git\src\IBK\IBK_DRFN\ProjSrc\SrcChartEx\ChartAddIn\ChartAnalysisToolAddIn\AnalysisTool\Drawer.cpp

; 346  : 	if(bLeft)

  00055	80 7d 14 00	 cmp	 BYTE PTR _bLeft$[ebp], 0
  00059	57		 push	 edi
  0005a	8b 3d 00 00 00
	00		 mov	 edi, DWORD PTR __imp__OffsetRect@12
; File C:\Program Files (x86)\Microsoft Visual Studio\2019\Community\VC\Tools\MSVC\14.29.30133\atlmfc\include\atltypes.h

; 543  : 	bottom = b;

  00060	89 45 f8	 mov	 DWORD PTR _region$[ebp+12], eax
  00063	8b 03		 mov	 eax, DWORD PTR [ebx]
  00065	c7 45 f0 00 00
	00 00		 mov	 DWORD PTR _region$[ebp+4], 0
  0006c	89 4d f4	 mov	 DWORD PTR _region$[ebp+8], ecx
; File D:\git\src\IBK\IBK_DRFN\ProjSrc\SrcChartEx\ChartAddIn\ChartAnalysisToolAddIn\AnalysisTool\Drawer.cpp

; 346  : 	if(bLeft)

  0006f	6a 00		 push	 0
  00071	75 02		 jne	 SHORT $LN40@GetTextReg
; File C:\Program Files (x86)\Microsoft Visual Studio\2019\Community\VC\Tools\MSVC\14.29.30133\atlmfc\include\atltypes.h

; 408  : 	x = initX;

  00073	2b c1		 sub	 eax, ecx
$LN40@GetTextReg:
; File D:\git\src\IBK\IBK_DRFN\ProjSrc\SrcChartEx\ChartAddIn\ChartAnalysisToolAddIn\AnalysisTool\Drawer.cpp

; 351  : 	if(bTop)

  00075	50		 push	 eax
  00076	8d 45 ec	 lea	 eax, DWORD PTR _region$[ebp]
  00079	50		 push	 eax
  0007a	ff d7		 call	 edi
  0007c	80 7d 18 00	 cmp	 BYTE PTR _bTop$[ebp], 0
  00080	8b 43 04	 mov	 eax, DWORD PTR [ebx+4]
  00083	75 01		 jne	 SHORT $LN41@GetTextReg

; 352  : 		region.OffsetRect(CPoint(0, orgPoint.y));
; 353  : 	else
; 354  : 		region.OffsetRect(CPoint(0, orgPoint.y +1));

  00085	40		 inc	 eax
$LN41@GetTextReg:

; 355  : 
; 356  : 	return region;

  00086	50		 push	 eax
  00087	6a 00		 push	 0
  00089	8d 45 ec	 lea	 eax, DWORD PTR _region$[ebp]
  0008c	50		 push	 eax
  0008d	ff d7		 call	 edi
  0008f	0f 10 45 ec	 movups	 xmm0, XMMWORD PTR _region$[ebp]

; 357  : }

  00093	8b 4d fc	 mov	 ecx, DWORD PTR __$ArrayPad$[ebp]
  00096	8b c6		 mov	 eax, esi
  00098	5f		 pop	 edi
  00099	0f 11 06	 movups	 XMMWORD PTR [esi], xmm0
  0009c	5e		 pop	 esi
  0009d	33 cd		 xor	 ecx, ebp
  0009f	5b		 pop	 ebx
  000a0	e8 00 00 00 00	 call	 @__security_check_cookie@4
  000a5	8b e5		 mov	 esp, ebp
  000a7	5d		 pop	 ebp
  000a8	c2 14 00	 ret	 20			; 00000014H
?GetTextRegion@CDrawer@@IBE?AVCRect@@ABVCSize@@ABVCPoint@@_N2@Z ENDP ; CDrawer::GetTextRegion
_TEXT	ENDS
; Function compile flags: /Ogtp
; File D:\git\src\IBK\IBK_DRFN\ProjSrc\SrcChartEx\ChartAddIn\ChartAnalysisToolAddIn\AnalysisTool\Drawer.cpp
; File C:\Program Files (x86)\Microsoft Visual Studio\2019\Community\VC\Tools\MSVC\14.29.30133\atlmfc\include\atltypes.h
; File D:\git\src\IBK\IBK_DRFN\ProjSrc\SrcChartEx\ChartAddIn\ChartAnalysisToolAddIn\AnalysisTool\Drawer.cpp
; File C:\Program Files (x86)\Microsoft Visual Studio\2019\Community\VC\Tools\MSVC\14.29.30133\atlmfc\include\atltypes.h
; File D:\git\src\IBK\IBK_DRFN\ProjSrc\SrcChartEx\ChartAddIn\ChartAnalysisToolAddIn\AnalysisTool\Drawer.cpp
; File C:\Program Files (x86)\Microsoft Visual Studio\2019\Community\VC\Tools\MSVC\14.29.30133\atlmfc\include\atltypes.h
; File D:\git\src\IBK\IBK_DRFN\ProjSrc\SrcChartEx\ChartAddIn\ChartAnalysisToolAddIn\AnalysisTool\Drawer.cpp
;	COMDAT ?GetGripRegion@CDrawer@@IBE?AVCRect@@ABVCPoint@@@Z
_TEXT	SEGMENT
___$ReturnUdt$ = 8					; size = 4
_centerPoint$ = 12					; size = 4
?GetGripRegion@CDrawer@@IBE?AVCRect@@ABVCPoint@@@Z PROC	; CDrawer::GetGripRegion, COMDAT
; _this$ = ecx

; 333  : {

  00000	55		 push	 ebp
  00001	8b ec		 mov	 ebp, esp

; 334  : 	CRect gripRegion(centerPoint, CSize(1, 1));

  00003	8b 45 0c	 mov	 eax, DWORD PTR _centerPoint$[ebp]
  00006	56		 push	 esi
  00007	57		 push	 edi
; File C:\Program Files (x86)\Microsoft Visual Studio\2019\Community\VC\Tools\MSVC\14.29.30133\atlmfc\include\atltypes.h

; 560  : 	right = (left = point.x) + size.cx;

  00008	8b 7d 08	 mov	 edi, DWORD PTR ___$ReturnUdt$[ebp]
; File D:\git\src\IBK\IBK_DRFN\ProjSrc\SrcChartEx\ChartAddIn\ChartAnalysisToolAddIn\AnalysisTool\Drawer.cpp

; 334  : 	CRect gripRegion(centerPoint, CSize(1, 1));

  0000b	8b 10		 mov	 edx, DWORD PTR [eax]
  0000d	8b 70 04	 mov	 esi, DWORD PTR [eax+4]
; File C:\Program Files (x86)\Microsoft Visual Studio\2019\Community\VC\Tools\MSVC\14.29.30133\atlmfc\include\atltypes.h

; 561  : 	bottom = (top = point.y) + size.cy;

  00010	89 77 04	 mov	 DWORD PTR [edi+4], esi
  00013	46		 inc	 esi
  00014	8d 42 01	 lea	 eax, DWORD PTR [edx+1]
  00017	89 17		 mov	 DWORD PTR [edi], edx
  00019	89 47 08	 mov	 DWORD PTR [edi+8], eax
  0001c	89 77 0c	 mov	 DWORD PTR [edi+12], esi
; File D:\git\src\IBK\IBK_DRFN\ProjSrc\SrcChartEx\ChartAddIn\ChartAnalysisToolAddIn\AnalysisTool\Drawer.cpp

; 335  : 	gripRegion.InflateRect(nGripSize -1, nGripSize -1);

  0001f	8b 09		 mov	 ecx, DWORD PTR [ecx]
  00021	49		 dec	 ecx
; File C:\Program Files (x86)\Microsoft Visual Studio\2019\Community\VC\Tools\MSVC\14.29.30133\atlmfc\include\atltypes.h

; 686  : 	::InflateRect(this, x, y);

  00022	51		 push	 ecx
  00023	51		 push	 ecx
  00024	57		 push	 edi
  00025	ff 15 00 00 00
	00		 call	 DWORD PTR __imp__InflateRect@12
; File D:\git\src\IBK\IBK_DRFN\ProjSrc\SrcChartEx\ChartAddIn\ChartAnalysisToolAddIn\AnalysisTool\Drawer.cpp

; 336  : 	return gripRegion;

  0002b	8b c7		 mov	 eax, edi
  0002d	5f		 pop	 edi
  0002e	5e		 pop	 esi

; 337  : }

  0002f	5d		 pop	 ebp
  00030	c2 08 00	 ret	 8
?GetGripRegion@CDrawer@@IBE?AVCRect@@ABVCPoint@@@Z ENDP	; CDrawer::GetGripRegion
_TEXT	ENDS
; Function compile flags: /Ogtp
; File D:\git\src\IBK\IBK_DRFN\ProjSrc\SrcChartEx\ChartAddIn\ChartAnalysisToolAddIn\AnalysisTool\Drawer.cpp
;	COMDAT ?GetGripBrushColor@CDrawer@@IBEKXZ
_TEXT	SEGMENT
?GetGripBrushColor@CDrawer@@IBEKXZ PROC			; CDrawer::GetGripBrushColor, COMDAT
; _this$ = ecx

; 328  : 	return m_gripBrushColor;

  00000	8b 41 04	 mov	 eax, DWORD PTR [ecx+4]

; 329  : }

  00003	c3		 ret	 0
?GetGripBrushColor@CDrawer@@IBEKXZ ENDP			; CDrawer::GetGripBrushColor
_TEXT	ENDS
; Function compile flags: /Ogtp
; File D:\git\src\IBK\IBK_DRFN\ProjSrc\SrcChartEx\ChartAddIn\ChartAnalysisToolAddIn\AnalysisTool\Drawer.cpp
; File C:\Program Files (x86)\Microsoft Visual Studio\2019\Community\VC\Tools\MSVC\14.29.30133\atlmfc\include\afxwin1.inl
; File D:\git\src\IBK\IBK_DRFN\ProjSrc\SrcChartEx\ChartAddIn\ChartAnalysisToolAddIn\AnalysisTool\Drawer.cpp
; File C:\Program Files (x86)\Microsoft Visual Studio\2019\Community\VC\Tools\MSVC\14.29.30133\atlmfc\include\afxwin1.inl
; File D:\git\src\IBK\IBK_DRFN\ProjSrc\SrcChartEx\ChartAddIn\ChartAnalysisToolAddIn\AnalysisTool\Drawer.cpp
; File C:\Program Files (x86)\Microsoft Visual Studio\2019\Community\VC\Tools\MSVC\14.29.30133\atlmfc\include\afxwin1.inl
; File D:\git\src\IBK\IBK_DRFN\ProjSrc\SrcChartEx\ChartAddIn\ChartAnalysisToolAddIn\AnalysisTool\Drawer.cpp
; File C:\Program Files (x86)\Microsoft Visual Studio\2019\Community\VC\Tools\MSVC\14.29.30133\atlmfc\include\afxwin1.inl
; File D:\git\src\IBK\IBK_DRFN\ProjSrc\SrcChartEx\ChartAddIn\ChartAnalysisToolAddIn\AnalysisTool\Drawer.cpp
; File C:\Program Files (x86)\Microsoft Visual Studio\2019\Community\VC\Tools\MSVC\14.29.30133\atlmfc\include\afxwin1.inl
; File D:\git\src\IBK\IBK_DRFN\ProjSrc\SrcChartEx\ChartAddIn\ChartAnalysisToolAddIn\AnalysisTool\Drawer.cpp
; File C:\Program Files (x86)\Microsoft Visual Studio\2019\Community\VC\Tools\MSVC\14.29.30133\atlmfc\include\afxwin1.inl
; File D:\git\src\IBK\IBK_DRFN\ProjSrc\SrcChartEx\ChartAddIn\ChartAnalysisToolAddIn\AnalysisTool\Drawer.cpp
; File C:\Program Files (x86)\Microsoft Visual Studio\2019\Community\VC\Tools\MSVC\14.29.30133\atlmfc\include\afxwin1.inl
; File D:\git\src\IBK\IBK_DRFN\ProjSrc\SrcChartEx\ChartAddIn\ChartAnalysisToolAddIn\AnalysisTool\Drawer.cpp
; File C:\Program Files (x86)\Microsoft Visual Studio\2019\Community\VC\Tools\MSVC\14.29.30133\atlmfc\include\afxwin1.inl
; File D:\git\src\IBK\IBK_DRFN\ProjSrc\SrcChartEx\ChartAddIn\ChartAnalysisToolAddIn\AnalysisTool\Drawer.cpp
;	COMDAT ?DrawStyleLine@CDrawer@@IAEXPAVCDC@@ABVCPoint@@1I@Z
_TEXT	SEGMENT
$T3 = -52						; size = 8
_lineToPt$GSCopy$1$ = -44				; size = 4
_newPen$ = -40						; size = 8
_logPen$ = -32						; size = 16
__$ArrayPad$ = -16					; size = 4
__$EHRec$ = -12						; size = 12
_pDC$ = 8						; size = 4
_moveToPt$ = 12						; size = 4
_lineToPt$ = 16						; size = 4
_nStyle$ = 20						; size = 4
?DrawStyleLine@CDrawer@@IAEXPAVCDC@@ABVCPoint@@1I@Z PROC ; CDrawer::DrawStyleLine, COMDAT
; _this$ = ecx

; 673  : {

  00000	55		 push	 ebp
  00001	8b ec		 mov	 ebp, esp
  00003	6a ff		 push	 -1
  00005	68 00 00 00 00	 push	 __ehhandler$?DrawStyleLine@CDrawer@@IAEXPAVCDC@@ABVCPoint@@1I@Z
  0000a	64 a1 00 00 00
	00		 mov	 eax, DWORD PTR fs:0
  00010	50		 push	 eax
  00011	83 ec 28	 sub	 esp, 40			; 00000028H
  00014	a1 00 00 00 00	 mov	 eax, DWORD PTR ___security_cookie
  00019	33 c5		 xor	 eax, ebp
  0001b	89 45 f0	 mov	 DWORD PTR __$ArrayPad$[ebp], eax
  0001e	53		 push	 ebx
  0001f	56		 push	 esi
  00020	57		 push	 edi
  00021	50		 push	 eax
  00022	8d 45 f4	 lea	 eax, DWORD PTR __$EHRec$[ebp]
  00025	64 a3 00 00 00
	00		 mov	 DWORD PTR fs:0, eax
  0002b	8b 7d 08	 mov	 edi, DWORD PTR _pDC$[ebp]
  0002e	8b 45 10	 mov	 eax, DWORD PTR _lineToPt$[ebp]
  00031	8b 5d 0c	 mov	 ebx, DWORD PTR _moveToPt$[ebp]
; File C:\Program Files (x86)\Microsoft Visual Studio\2019\Community\VC\Tools\MSVC\14.29.30133\atlmfc\include\afxwin1.inl

; 790  : 	{ ASSERT(m_hAttribDC != NULL); return CPen::FromHandle((HPEN)::GetCurrentObject(m_hAttribDC, OBJ_PEN)); }

  00034	6a 01		 push	 1
  00036	ff 77 08	 push	 DWORD PTR [edi+8]
; File D:\git\src\IBK\IBK_DRFN\ProjSrc\SrcChartEx\ChartAddIn\ChartAnalysisToolAddIn\AnalysisTool\Drawer.cpp

; 673  : {

  00039	89 45 d4	 mov	 DWORD PTR _lineToPt$GSCopy$1$[ebp], eax
; File C:\Program Files (x86)\Microsoft Visual Studio\2019\Community\VC\Tools\MSVC\14.29.30133\atlmfc\include\afxwin1.inl

; 790  : 	{ ASSERT(m_hAttribDC != NULL); return CPen::FromHandle((HPEN)::GetCurrentObject(m_hAttribDC, OBJ_PEN)); }

  0003c	ff 15 00 00 00
	00		 call	 DWORD PTR __imp__GetCurrentObject@8

; 102  : 	{ return (CPen*) CGdiObject::FromHandle(hPen); }

  00042	50		 push	 eax
  00043	e8 00 00 00 00	 call	 ?FromHandle@CGdiObject@@SGPAV1@PAX@Z ; CGdiObject::FromHandle
; File D:\git\src\IBK\IBK_DRFN\ProjSrc\SrcChartEx\ChartAddIn\ChartAnalysisToolAddIn\AnalysisTool\Drawer.cpp

; 676  : 	if( pCurrentPen )

  00048	85 c0		 test	 eax, eax
  0004a	74 0f		 je	 SHORT $LN2@DrawStyleL
; File C:\Program Files (x86)\Microsoft Visual Studio\2019\Community\VC\Tools\MSVC\14.29.30133\atlmfc\include\afxwin1.inl

; 120  : 		return ::GetObject(m_hObject, sizeof(LOGPEN), pLogPen); }

  0004c	8d 4d e0	 lea	 ecx, DWORD PTR _logPen$[ebp]
  0004f	51		 push	 ecx
  00050	6a 10		 push	 16			; 00000010H
  00052	ff 70 04	 push	 DWORD PTR [eax+4]
  00055	ff 15 00 00 00
	00		 call	 DWORD PTR __imp__GetObjectA@12
$LN2@DrawStyleL:
; File D:\git\src\IBK\IBK_DRFN\ProjSrc\SrcChartEx\ChartAddIn\ChartAnalysisToolAddIn\AnalysisTool\Drawer.cpp

; 679  : 	logPen.lopnStyle = nStyle;

  0005b	8b 45 14	 mov	 eax, DWORD PTR _nStyle$[ebp]
  0005e	89 45 e0	 mov	 DWORD PTR _logPen$[ebp], eax

; 680  : 	logPen.lopnWidth = CPoint(1,1);

  00061	c7 45 e4 01 00
	00 00		 mov	 DWORD PTR _logPen$[ebp+4], 1
  00068	c7 45 e8 01 00
	00 00		 mov	 DWORD PTR _logPen$[ebp+8], 1
; File C:\Program Files (x86)\Microsoft Visual Studio\2019\Community\VC\Tools\MSVC\14.29.30133\atlmfc\include\afxwin1.inl

; 70   : 	{ m_hObject = NULL; }

  0006f	c7 45 dc 00 00
	00 00		 mov	 DWORD PTR _newPen$[ebp+4], 0

; 104  : 	{ }

  00076	c7 45 d8 00 00
	00 00		 mov	 DWORD PTR _newPen$[ebp], OFFSET ??_7CPen@@6B@

; 110  : 	{ return Attach(::CreatePenIndirect(lpLogPen)); }

  0007d	8d 45 e0	 lea	 eax, DWORD PTR _logPen$[ebp]
; File D:\git\src\IBK\IBK_DRFN\ProjSrc\SrcChartEx\ChartAddIn\ChartAnalysisToolAddIn\AnalysisTool\Drawer.cpp

; 681  : 	CPen newPen;

  00080	c7 45 fc 00 00
	00 00		 mov	 DWORD PTR __$EHRec$[ebp+8], 0
; File C:\Program Files (x86)\Microsoft Visual Studio\2019\Community\VC\Tools\MSVC\14.29.30133\atlmfc\include\afxwin1.inl

; 110  : 	{ return Attach(::CreatePenIndirect(lpLogPen)); }

  00087	50		 push	 eax
  00088	ff 15 00 00 00
	00		 call	 DWORD PTR __imp__CreatePenIndirect@4
  0008e	50		 push	 eax
  0008f	8d 4d d8	 lea	 ecx, DWORD PTR _newPen$[ebp]
  00092	e8 00 00 00 00	 call	 ?Attach@CGdiObject@@QAEHPAX@Z ; CGdiObject::Attach
; File D:\git\src\IBK\IBK_DRFN\ProjSrc\SrcChartEx\ChartAddIn\ChartAnalysisToolAddIn\AnalysisTool\Drawer.cpp

; 682  : 	if( !newPen.CreatePenIndirect( &logPen ) )

  00097	85 c0		 test	 eax, eax
  00099	74 3c		 je	 SHORT $LN6@DrawStyleL

; 685  : 	CPen* pOldPen = pDC->SelectObject(&newPen);

  0009b	8d 45 d8	 lea	 eax, DWORD PTR _newPen$[ebp]
  0009e	8b cf		 mov	 ecx, edi
  000a0	50		 push	 eax
  000a1	e8 00 00 00 00	 call	 ?SelectObject@CDC@@QAEPAVCPen@@PAV2@@Z ; CDC::SelectObject
; File C:\Program Files (x86)\Microsoft Visual Studio\2019\Community\VC\Tools\MSVC\14.29.30133\atlmfc\include\afxwin1.inl

; 464  : 	{ ASSERT(m_hDC != NULL); return MoveTo(point.x, point.y); }

  000a6	ff 73 04	 push	 DWORD PTR [ebx+4]
; File D:\git\src\IBK\IBK_DRFN\ProjSrc\SrcChartEx\ChartAddIn\ChartAnalysisToolAddIn\AnalysisTool\Drawer.cpp

; 685  : 	CPen* pOldPen = pDC->SelectObject(&newPen);

  000a9	8b f0		 mov	 esi, eax
; File C:\Program Files (x86)\Microsoft Visual Studio\2019\Community\VC\Tools\MSVC\14.29.30133\atlmfc\include\afxwin1.inl

; 464  : 	{ ASSERT(m_hDC != NULL); return MoveTo(point.x, point.y); }

  000ab	8b cf		 mov	 ecx, edi
  000ad	ff 33		 push	 DWORD PTR [ebx]
  000af	8d 45 cc	 lea	 eax, DWORD PTR $T3[ebp]
  000b2	50		 push	 eax
  000b3	e8 00 00 00 00	 call	 ?MoveTo@CDC@@QAE?AVCPoint@@HH@Z ; CDC::MoveTo

; 466  : 	{ ASSERT(m_hDC != NULL); return LineTo(point.x, point.y); }

  000b8	8b 45 d4	 mov	 eax, DWORD PTR _lineToPt$GSCopy$1$[ebp]
  000bb	8b cf		 mov	 ecx, edi
  000bd	ff 70 04	 push	 DWORD PTR [eax+4]
  000c0	ff 30		 push	 DWORD PTR [eax]
  000c2	e8 00 00 00 00	 call	 ?LineTo@CDC@@QAEHHH@Z	; CDC::LineTo
; File D:\git\src\IBK\IBK_DRFN\ProjSrc\SrcChartEx\ChartAddIn\ChartAnalysisToolAddIn\AnalysisTool\Drawer.cpp

; 690  : 	pDC->SelectObject(pOldPen);

  000c7	56		 push	 esi
  000c8	8b cf		 mov	 ecx, edi
  000ca	e8 00 00 00 00	 call	 ?SelectObject@CDC@@QAEPAVCPen@@PAV2@@Z ; CDC::SelectObject

; 691  : 	newPen.DeleteObject();

  000cf	8d 4d d8	 lea	 ecx, DWORD PTR _newPen$[ebp]
  000d2	e8 00 00 00 00	 call	 ?DeleteObject@CGdiObject@@QAEHXZ ; CGdiObject::DeleteObject
$LN6@DrawStyleL:
; File C:\Program Files (x86)\Microsoft Visual Studio\2019\Community\VC\Tools\MSVC\14.29.30133\atlmfc\include\afxwin1.inl

; 106  : 	{ }

  000d7	8d 4d d8	 lea	 ecx, DWORD PTR _newPen$[ebp]
  000da	c7 45 d8 00 00
	00 00		 mov	 DWORD PTR _newPen$[ebp], OFFSET ??_7CPen@@6B@
  000e1	e8 00 00 00 00	 call	 ??1CGdiObject@@UAE@XZ	; CGdiObject::~CGdiObject
; File D:\git\src\IBK\IBK_DRFN\ProjSrc\SrcChartEx\ChartAddIn\ChartAnalysisToolAddIn\AnalysisTool\Drawer.cpp

; 692  : }

  000e6	8b 4d f4	 mov	 ecx, DWORD PTR __$EHRec$[ebp]
  000e9	64 89 0d 00 00
	00 00		 mov	 DWORD PTR fs:0, ecx
  000f0	59		 pop	 ecx
  000f1	5f		 pop	 edi
  000f2	5e		 pop	 esi
  000f3	5b		 pop	 ebx
  000f4	8b 4d f0	 mov	 ecx, DWORD PTR __$ArrayPad$[ebp]
  000f7	33 cd		 xor	 ecx, ebp
  000f9	e8 00 00 00 00	 call	 @__security_check_cookie@4
  000fe	8b e5		 mov	 esp, ebp
  00100	5d		 pop	 ebp
  00101	c2 10 00	 ret	 16			; 00000010H
_TEXT	ENDS
;	COMDAT text$x
text$x	SEGMENT
__unwindfunclet$?DrawStyleLine@CDrawer@@IAEXPAVCDC@@ABVCPoint@@1I@Z$0:
  00000	8d 4d d8	 lea	 ecx, DWORD PTR _newPen$[ebp]
  00003	e9 00 00 00 00	 jmp	 ??1CPen@@UAE@XZ		; CPen::~CPen
  00008	cc		 int	 3
  00009	cc		 int	 3
  0000a	cc		 int	 3
  0000b	cc		 int	 3
  0000c	cc		 int	 3
__ehhandler$?DrawStyleLine@CDrawer@@IAEXPAVCDC@@ABVCPoint@@1I@Z:
  0000d	90		 npad	 1
  0000e	90		 npad	 1
  0000f	8b 54 24 08	 mov	 edx, DWORD PTR [esp+8]
  00013	8d 42 0c	 lea	 eax, DWORD PTR [edx+12]
  00016	8b 4a c8	 mov	 ecx, DWORD PTR [edx-56]
  00019	33 c8		 xor	 ecx, eax
  0001b	e8 00 00 00 00	 call	 @__security_check_cookie@4
  00020	8b 4a fc	 mov	 ecx, DWORD PTR [edx-4]
  00023	33 c8		 xor	 ecx, eax
  00025	e8 00 00 00 00	 call	 @__security_check_cookie@4
  0002a	b8 00 00 00 00	 mov	 eax, OFFSET __ehfuncinfo$?DrawStyleLine@CDrawer@@IAEXPAVCDC@@ABVCPoint@@1I@Z
  0002f	e9 00 00 00 00	 jmp	 ___CxxFrameHandler3
text$x	ENDS
?DrawStyleLine@CDrawer@@IAEXPAVCDC@@ABVCPoint@@1I@Z ENDP ; CDrawer::DrawStyleLine
; Function compile flags: /Ogtp
; File D:\git\src\IBK\IBK_DRFN\ProjSrc\SrcChartEx\ChartAddIn\ChartAnalysisToolAddIn\AnalysisTool\Drawer.cpp
; File C:\Program Files (x86)\Microsoft Visual Studio\2019\Community\VC\Tools\MSVC\14.29.30133\atlmfc\include\afxwin1.inl
; File D:\git\src\IBK\IBK_DRFN\ProjSrc\SrcChartEx\ChartAddIn\ChartAnalysisToolAddIn\AnalysisTool\Drawer.cpp
; File C:\Program Files (x86)\Microsoft Visual Studio\2019\Community\VC\Tools\MSVC\14.29.30133\atlmfc\include\afxwin1.inl
; File C:\Program Files (x86)\Microsoft Visual Studio\2019\Community\VC\Tools\MSVC\14.29.30133\atlmfc\include\atlsimpstr.h
; File C:\Program Files (x86)\Microsoft Visual Studio\2019\Community\VC\Tools\MSVC\14.29.30133\atlmfc\include\afxwin1.inl
; File C:\Program Files (x86)\Microsoft Visual Studio\2019\Community\VC\Tools\MSVC\14.29.30133\atlmfc\include\atlsimpstr.h
; File C:\Program Files (x86)\Microsoft Visual Studio\2019\Community\VC\Tools\MSVC\14.29.30133\atlmfc\include\afxwin1.inl
; File D:\git\src\IBK\IBK_DRFN\ProjSrc\SrcChartEx\ChartAddIn\ChartAnalysisToolAddIn\AnalysisTool\Drawer.cpp
;	COMDAT ?DrawTextOut_Path@CDrawer@@IAEXPAVCDC@@ABV?$CStringT@DV?$StrTraitMFC_DLL@DV?$ChTraitsCRT@D@ATL@@@@@ATL@@ABVCPoint@@@Z
_TEXT	SEGMENT
_pDC$ = 8						; size = 4
_data$ = 12						; size = 4
_point$ = 16						; size = 4
?DrawTextOut_Path@CDrawer@@IAEXPAVCDC@@ABV?$CStringT@DV?$StrTraitMFC_DLL@DV?$ChTraitsCRT@D@ATL@@@@@ATL@@ABVCPoint@@@Z PROC ; CDrawer::DrawTextOut_Path, COMDAT
; _this$ = ecx

; 312  : {

  00000	55		 push	 ebp
  00001	8b ec		 mov	 ebp, esp
  00003	56		 push	 esi
  00004	57		 push	 edi

; 313  : 	int nOldMode = pDC->SetBkMode(TRANSPARENT);

  00005	8b 7d 08	 mov	 edi, DWORD PTR _pDC$[ebp]
  00008	8b cf		 mov	 ecx, edi
  0000a	6a 01		 push	 1
  0000c	e8 00 00 00 00	 call	 ?SetBkMode@CDC@@QAEHH@Z	; CDC::SetBkMode
; File C:\Program Files (x86)\Microsoft Visual Studio\2019\Community\VC\Tools\MSVC\14.29.30133\atlmfc\include\afxwin1.inl

; 819  : 	{ ASSERT(m_hDC != NULL); return ::BeginPath(m_hDC); }

  00011	ff 77 04	 push	 DWORD PTR [edi+4]
; File D:\git\src\IBK\IBK_DRFN\ProjSrc\SrcChartEx\ChartAddIn\ChartAnalysisToolAddIn\AnalysisTool\Drawer.cpp

; 313  : 	int nOldMode = pDC->SetBkMode(TRANSPARENT);

  00014	8b f0		 mov	 esi, eax
; File C:\Program Files (x86)\Microsoft Visual Studio\2019\Community\VC\Tools\MSVC\14.29.30133\atlmfc\include\afxwin1.inl

; 819  : 	{ ASSERT(m_hDC != NULL); return ::BeginPath(m_hDC); }

  00016	ff 15 00 00 00
	00		 call	 DWORD PTR __imp__BeginPath@4
; File C:\Program Files (x86)\Microsoft Visual Studio\2019\Community\VC\Tools\MSVC\14.29.30133\atlmfc\include\atlsimpstr.h

; 519  : 		return( GetData()->nDataLength );

  0001c	8b 4d 0c	 mov	 ecx, DWORD PTR _data$[ebp]
; File C:\Program Files (x86)\Microsoft Visual Studio\2019\Community\VC\Tools\MSVC\14.29.30133\atlmfc\include\afxwin1.inl

; 574  : 	{ ASSERT(m_hDC != NULL); return TextOut(x, y, (LPCTSTR)str, (int)str.GetLength()); } // call virtual

  0001f	8b 45 10	 mov	 eax, DWORD PTR _point$[ebp]
  00022	8b 17		 mov	 edx, DWORD PTR [edi]
; File C:\Program Files (x86)\Microsoft Visual Studio\2019\Community\VC\Tools\MSVC\14.29.30133\atlmfc\include\atlsimpstr.h

; 519  : 		return( GetData()->nDataLength );

  00024	8b 09		 mov	 ecx, DWORD PTR [ecx]
; File C:\Program Files (x86)\Microsoft Visual Studio\2019\Community\VC\Tools\MSVC\14.29.30133\atlmfc\include\afxwin1.inl

; 574  : 	{ ASSERT(m_hDC != NULL); return TextOut(x, y, (LPCTSTR)str, (int)str.GetLength()); } // call virtual

  00026	ff 71 f4	 push	 DWORD PTR [ecx-12]
  00029	51		 push	 ecx
  0002a	ff 70 04	 push	 DWORD PTR [eax+4]
  0002d	8b cf		 mov	 ecx, edi
  0002f	ff 30		 push	 DWORD PTR [eax]
  00031	ff 52 64	 call	 DWORD PTR [edx+100]

; 823  : 	{ ASSERT(m_hDC != NULL); return ::EndPath(m_hDC); }

  00034	ff 77 04	 push	 DWORD PTR [edi+4]
  00037	ff 15 00 00 00
	00		 call	 DWORD PTR __imp__EndPath@4

; 838  : 	{ ASSERT(m_hDC != NULL); return ::StrokePath(m_hDC); }

  0003d	ff 77 04	 push	 DWORD PTR [edi+4]
  00040	ff 15 00 00 00
	00		 call	 DWORD PTR __imp__StrokePath@4
; File D:\git\src\IBK\IBK_DRFN\ProjSrc\SrcChartEx\ChartAddIn\ChartAnalysisToolAddIn\AnalysisTool\Drawer.cpp

; 321  : 	pDC->SetBkMode(nOldMode);

  00046	56		 push	 esi
  00047	8b cf		 mov	 ecx, edi
  00049	e8 00 00 00 00	 call	 ?SetBkMode@CDC@@QAEHH@Z	; CDC::SetBkMode
  0004e	5f		 pop	 edi
  0004f	5e		 pop	 esi

; 322  : }

  00050	5d		 pop	 ebp
  00051	c2 0c 00	 ret	 12			; 0000000cH
?DrawTextOut_Path@CDrawer@@IAEXPAVCDC@@ABV?$CStringT@DV?$StrTraitMFC_DLL@DV?$ChTraitsCRT@D@ATL@@@@@ATL@@ABVCPoint@@@Z ENDP ; CDrawer::DrawTextOut_Path
_TEXT	ENDS
; Function compile flags: /Ogtp
; File D:\git\src\IBK\IBK_DRFN\ProjSrc\SrcChartEx\ChartAddIn\ChartAnalysisToolAddIn\AnalysisTool\Drawer.cpp
; File C:\Program Files (x86)\Microsoft Visual Studio\2019\Community\VC\Tools\MSVC\14.29.30133\atlmfc\include\afxwin1.inl
; File D:\git\src\IBK\IBK_DRFN\ProjSrc\SrcChartEx\ChartAddIn\ChartAnalysisToolAddIn\AnalysisTool\Drawer.cpp
; File C:\Program Files (x86)\Microsoft Visual Studio\2019\Community\VC\Tools\MSVC\14.29.30133\atlmfc\include\atlsimpstr.h
; File D:\git\src\IBK\IBK_DRFN\ProjSrc\SrcChartEx\ChartAddIn\ChartAnalysisToolAddIn\AnalysisTool\Drawer.cpp
; File C:\Program Files (x86)\Microsoft Visual Studio\2019\Community\VC\Tools\MSVC\14.29.30133\atlmfc\include\afxwin1.inl
; File D:\git\src\IBK\IBK_DRFN\ProjSrc\SrcChartEx\ChartAddIn\ChartAnalysisToolAddIn\AnalysisTool\Drawer.cpp
; File C:\Program Files (x86)\Microsoft Visual Studio\2019\Community\VC\Tools\MSVC\14.29.30133\atlmfc\include\afxwin1.inl
; File C:\Program Files (x86)\Microsoft Visual Studio\2019\Community\VC\Tools\MSVC\14.29.30133\atlmfc\include\atltypes.h
; File D:\git\src\IBK\IBK_DRFN\ProjSrc\SrcChartEx\ChartAddIn\ChartAnalysisToolAddIn\AnalysisTool\Drawer.cpp
; File C:\Program Files (x86)\Microsoft Visual Studio\2019\Community\VC\Tools\MSVC\14.29.30133\atlmfc\include\atltypes.h
; File D:\git\src\IBK\IBK_DRFN\ProjSrc\SrcChartEx\ChartAddIn\ChartAnalysisToolAddIn\AnalysisTool\Drawer.cpp
; File C:\Program Files (x86)\Microsoft Visual Studio\2019\Community\VC\Tools\MSVC\14.29.30133\atlmfc\include\atlsimpstr.h
; File C:\Program Files (x86)\Microsoft Visual Studio\2019\Community\VC\Tools\MSVC\14.29.30133\atlmfc\include\afxwin1.inl
; File D:\git\src\IBK\IBK_DRFN\ProjSrc\SrcChartEx\ChartAddIn\ChartAnalysisToolAddIn\AnalysisTool\Drawer.cpp
; File C:\Program Files (x86)\Microsoft Visual Studio\2019\Community\VC\Tools\MSVC\14.29.30133\atlmfc\include\afxwin1.inl
; File D:\git\src\IBK\IBK_DRFN\ProjSrc\SrcChartEx\ChartAddIn\ChartAnalysisToolAddIn\AnalysisTool\Drawer.cpp
; File C:\Program Files (x86)\Microsoft Visual Studio\2019\Community\VC\Tools\MSVC\14.29.30133\atlmfc\include\afxwin1.inl
; File D:\git\src\IBK\IBK_DRFN\ProjSrc\SrcChartEx\ChartAddIn\ChartAnalysisToolAddIn\AnalysisTool\Drawer.cpp
;	COMDAT ?DrawTextOut@CDrawer@@IAEXPAVCDC@@ABV?$CStringT@DV?$StrTraitMFC_DLL@DV?$ChTraitsCRT@D@ATL@@@@@ATL@@ABVCRect@@@Z
_TEXT	SEGMENT
_size$1 = -28						; size = 8
_realRect$ = -20					; size = 16
__$ArrayPad$ = -4					; size = 4
_pDC$ = 8						; size = 4
_data$ = 12						; size = 4
_region$ = 16						; size = 4
?DrawTextOut@CDrawer@@IAEXPAVCDC@@ABV?$CStringT@DV?$StrTraitMFC_DLL@DV?$ChTraitsCRT@D@ATL@@@@@ATL@@ABVCRect@@@Z PROC ; CDrawer::DrawTextOut, COMDAT
; _this$ = ecx

; 297  : {

  00000	55		 push	 ebp
  00001	8b ec		 mov	 ebp, esp
  00003	83 ec 1c	 sub	 esp, 28			; 0000001cH
  00006	a1 00 00 00 00	 mov	 eax, DWORD PTR ___security_cookie
  0000b	33 c5		 xor	 eax, ebp
  0000d	89 45 fc	 mov	 DWORD PTR __$ArrayPad$[ebp], eax
  00010	53		 push	 ebx
  00011	8b 5d 0c	 mov	 ebx, DWORD PTR _data$[ebp]
; File C:\Program Files (x86)\Microsoft Visual Studio\2019\Community\VC\Tools\MSVC\14.29.30133\atlmfc\include\afxwin1.inl

; 639  : 		VERIFY(::GetTextExtentPoint32(m_hAttribDC, str, (int)str.GetLength(), &size));

  00014	8d 4d e4	 lea	 ecx, DWORD PTR _size$1[ebp]
; File D:\git\src\IBK\IBK_DRFN\ProjSrc\SrcChartEx\ChartAddIn\ChartAnalysisToolAddIn\AnalysisTool\Drawer.cpp

; 297  : {

  00017	56		 push	 esi
  00018	8b 75 10	 mov	 esi, DWORD PTR _region$[ebp]
  0001b	57		 push	 edi
; File C:\Program Files (x86)\Microsoft Visual Studio\2019\Community\VC\Tools\MSVC\14.29.30133\atlmfc\include\atlsimpstr.h

; 519  : 		return( GetData()->nDataLength );

  0001c	8b 03		 mov	 eax, DWORD PTR [ebx]
; File D:\git\src\IBK\IBK_DRFN\ProjSrc\SrcChartEx\ChartAddIn\ChartAnalysisToolAddIn\AnalysisTool\Drawer.cpp

; 297  : {

  0001e	8b 7d 08	 mov	 edi, DWORD PTR _pDC$[ebp]

; 298  : 	CRect realRect = region;

  00021	0f 10 06	 movups	 xmm0, XMMWORD PTR [esi]
; File C:\Program Files (x86)\Microsoft Visual Studio\2019\Community\VC\Tools\MSVC\14.29.30133\atlmfc\include\afxwin1.inl

; 639  : 		VERIFY(::GetTextExtentPoint32(m_hAttribDC, str, (int)str.GetLength(), &size));

  00024	51		 push	 ecx
; File D:\git\src\IBK\IBK_DRFN\ProjSrc\SrcChartEx\ChartAddIn\ChartAnalysisToolAddIn\AnalysisTool\Drawer.cpp

; 298  : 	CRect realRect = region;

  00025	0f 11 45 ec	 movups	 XMMWORD PTR _realRect$[ebp], xmm0
; File C:\Program Files (x86)\Microsoft Visual Studio\2019\Community\VC\Tools\MSVC\14.29.30133\atlmfc\include\afxwin1.inl

; 639  : 		VERIFY(::GetTextExtentPoint32(m_hAttribDC, str, (int)str.GetLength(), &size));

  00029	ff 70 f4	 push	 DWORD PTR [eax-12]
  0002c	50		 push	 eax
  0002d	ff 77 08	 push	 DWORD PTR [edi+8]
  00030	ff 15 00 00 00
	00		 call	 DWORD PTR __imp__GetTextExtentPoint32A@16
; File C:\Program Files (x86)\Microsoft Visual Studio\2019\Community\VC\Tools\MSVC\14.29.30133\atlmfc\include\atltypes.h

; 581  : 	return bottom - top;

  00036	8b 46 0c	 mov	 eax, DWORD PTR [esi+12]
  00039	2b 46 04	 sub	 eax, DWORD PTR [esi+4]
; File D:\git\src\IBK\IBK_DRFN\ProjSrc\SrcChartEx\ChartAddIn\ChartAnalysisToolAddIn\AnalysisTool\Drawer.cpp

; 300  : 	int nOffset_y = (region.Height() - textSize.cy)/2 +1;

  0003c	8b 75 e8	 mov	 esi, DWORD PTR _size$1[ebp+4]
  0003f	2b c6		 sub	 eax, esi
  00041	99		 cdq
  00042	2b c2		 sub	 eax, edx
  00044	d1 f8		 sar	 eax, 1
  00046	40		 inc	 eax

; 301  : 	if(nOffset_y > 1)

  00047	83 f8 01	 cmp	 eax, 1
  0004a	7e 0f		 jle	 SHORT $LN2@DrawTextOu
; File C:\Program Files (x86)\Microsoft Visual Studio\2019\Community\VC\Tools\MSVC\14.29.30133\atlmfc\include\atltypes.h

; 698  : 	::InflateRect(this, -x, -y);

  0004c	f7 d8		 neg	 eax
  0004e	50		 push	 eax
  0004f	6a 00		 push	 0
  00051	8d 45 ec	 lea	 eax, DWORD PTR _realRect$[ebp]
  00054	50		 push	 eax
  00055	ff 15 00 00 00
	00		 call	 DWORD PTR __imp__InflateRect@12
$LN2@DrawTextOu:

; 581  : 	return bottom - top;

  0005b	8b 45 f8	 mov	 eax, DWORD PTR _realRect$[ebp+12]
  0005e	8b c8		 mov	 ecx, eax
  00060	2b 4d f0	 sub	 ecx, DWORD PTR _realRect$[ebp+4]
; File D:\git\src\IBK\IBK_DRFN\ProjSrc\SrcChartEx\ChartAddIn\ChartAnalysisToolAddIn\AnalysisTool\Drawer.cpp

; 305  : 	if(textSize.cy > nHeight)

  00063	3b f1		 cmp	 esi, ecx
  00065	7e 07		 jle	 SHORT $LN3@DrawTextOu

; 306  : 		realRect.bottom += (textSize.cy - nHeight);

  00067	2b f1		 sub	 esi, ecx
  00069	03 c6		 add	 eax, esi
  0006b	89 45 f8	 mov	 DWORD PTR _realRect$[ebp+12], eax
$LN3@DrawTextOu:
; File C:\Program Files (x86)\Microsoft Visual Studio\2019\Community\VC\Tools\MSVC\14.29.30133\atlmfc\include\atlsimpstr.h

; 519  : 		return( GetData()->nDataLength );

  0006e	8b 03		 mov	 eax, DWORD PTR [ebx]
; File C:\Program Files (x86)\Microsoft Visual Studio\2019\Community\VC\Tools\MSVC\14.29.30133\atlmfc\include\afxwin1.inl

; 600  : 		return _AFX_FUNCNAME(DrawText)((LPCTSTR)str, (int)str.GetLength(), lpRect, nFormat); }

  00070	8d 4d ec	 lea	 ecx, DWORD PTR _realRect$[ebp]
  00073	8b 17		 mov	 edx, DWORD PTR [edi]
  00075	6a 05		 push	 5
  00077	51		 push	 ecx
  00078	ff 70 f4	 push	 DWORD PTR [eax-12]
  0007b	8b cf		 mov	 ecx, edi
  0007d	50		 push	 eax
  0007e	ff 52 70	 call	 DWORD PTR [edx+112]
; File D:\git\src\IBK\IBK_DRFN\ProjSrc\SrcChartEx\ChartAddIn\ChartAnalysisToolAddIn\AnalysisTool\Drawer.cpp

; 309  : }

  00081	8b 4d fc	 mov	 ecx, DWORD PTR __$ArrayPad$[ebp]
; File C:\Program Files (x86)\Microsoft Visual Studio\2019\Community\VC\Tools\MSVC\14.29.30133\atlmfc\include\afxwin1.inl

; 600  : 		return _AFX_FUNCNAME(DrawText)((LPCTSTR)str, (int)str.GetLength(), lpRect, nFormat); }

  00084	5f		 pop	 edi
  00085	5e		 pop	 esi
; File D:\git\src\IBK\IBK_DRFN\ProjSrc\SrcChartEx\ChartAddIn\ChartAnalysisToolAddIn\AnalysisTool\Drawer.cpp

; 309  : }

  00086	33 cd		 xor	 ecx, ebp
; File C:\Program Files (x86)\Microsoft Visual Studio\2019\Community\VC\Tools\MSVC\14.29.30133\atlmfc\include\afxwin1.inl

; 600  : 		return _AFX_FUNCNAME(DrawText)((LPCTSTR)str, (int)str.GetLength(), lpRect, nFormat); }

  00088	5b		 pop	 ebx
; File D:\git\src\IBK\IBK_DRFN\ProjSrc\SrcChartEx\ChartAddIn\ChartAnalysisToolAddIn\AnalysisTool\Drawer.cpp

; 309  : }

  00089	e8 00 00 00 00	 call	 @__security_check_cookie@4
  0008e	8b e5		 mov	 esp, ebp
  00090	5d		 pop	 ebp
  00091	c2 0c 00	 ret	 12			; 0000000cH
?DrawTextOut@CDrawer@@IAEXPAVCDC@@ABV?$CStringT@DV?$StrTraitMFC_DLL@DV?$ChTraitsCRT@D@ATL@@@@@ATL@@ABVCRect@@@Z ENDP ; CDrawer::DrawTextOut
_TEXT	ENDS
; Function compile flags: /Ogtp
; File D:\git\src\IBK\IBK_DRFN\ProjSrc\SrcChartEx\ChartAddIn\ChartAnalysisToolAddIn\AnalysisTool\Drawer.cpp
; File C:\Program Files (x86)\Microsoft Visual Studio\2019\Community\VC\Tools\MSVC\14.29.30133\atlmfc\include\atlsimpstr.h
; File D:\git\src\IBK\IBK_DRFN\ProjSrc\SrcChartEx\ChartAddIn\ChartAnalysisToolAddIn\AnalysisTool\Drawer.cpp
; File C:\Program Files (x86)\Microsoft Visual Studio\2019\Community\VC\Tools\MSVC\14.29.30133\atlmfc\include\afxwin1.inl
; File D:\git\src\IBK\IBK_DRFN\ProjSrc\SrcChartEx\ChartAddIn\ChartAnalysisToolAddIn\AnalysisTool\Drawer.cpp
; File C:\Program Files (x86)\Microsoft Visual Studio\2019\Community\VC\Tools\MSVC\14.29.30133\atlmfc\include\afxwin1.inl
; File C:\Program Files (x86)\Microsoft Visual Studio\2019\Community\VC\Tools\MSVC\14.29.30133\atlmfc\include\atltypes.h
; File D:\git\src\IBK\IBK_DRFN\ProjSrc\SrcChartEx\ChartAddIn\ChartAnalysisToolAddIn\AnalysisTool\Drawer.cpp
; File C:\Program Files (x86)\Microsoft Visual Studio\2019\Community\VC\Tools\MSVC\14.29.30133\atlmfc\include\atltypes.h
; File D:\git\src\IBK\IBK_DRFN\ProjSrc\SrcChartEx\ChartAddIn\ChartAnalysisToolAddIn\AnalysisTool\Drawer.cpp
; File C:\Program Files (x86)\Microsoft Visual Studio\2019\Community\VC\Tools\MSVC\14.29.30133\atlmfc\include\atlsimpstr.h
; File C:\Program Files (x86)\Microsoft Visual Studio\2019\Community\VC\Tools\MSVC\14.29.30133\atlmfc\include\afxwin1.inl
; File D:\git\src\IBK\IBK_DRFN\ProjSrc\SrcChartEx\ChartAddIn\ChartAnalysisToolAddIn\AnalysisTool\Drawer.cpp
;	COMDAT ?DrawTextOut@CDrawer@@IAEXPAVCDC@@ABV?$CStringT@DV?$StrTraitMFC_DLL@DV?$ChTraitsCRT@D@ATL@@@@@ATL@@ABVCRect@@ABK@Z
_TEXT	SEGMENT
_size$1 = -32						; size = 8
_orgTextColor$1$ = -24					; size = 4
_realRect$2 = -20					; size = 16
__$ArrayPad$ = -4					; size = 4
_pDC$ = 8						; size = 4
_data$ = 12						; size = 4
_region$ = 16						; size = 4
_textColor$ = 20					; size = 4
?DrawTextOut@CDrawer@@IAEXPAVCDC@@ABV?$CStringT@DV?$StrTraitMFC_DLL@DV?$ChTraitsCRT@D@ATL@@@@@ATL@@ABVCRect@@ABK@Z PROC ; CDrawer::DrawTextOut, COMDAT
; _this$ = ecx

; 288  : {

  00000	55		 push	 ebp
  00001	8b ec		 mov	 ebp, esp
  00003	83 ec 20	 sub	 esp, 32			; 00000020H
  00006	a1 00 00 00 00	 mov	 eax, DWORD PTR ___security_cookie
  0000b	33 c5		 xor	 eax, ebp
  0000d	89 45 fc	 mov	 DWORD PTR __$ArrayPad$[ebp], eax
  00010	8b 45 14	 mov	 eax, DWORD PTR _textColor$[ebp]
  00013	53		 push	 ebx
  00014	8b 5d 0c	 mov	 ebx, DWORD PTR _data$[ebp]
  00017	56		 push	 esi
  00018	8b 75 10	 mov	 esi, DWORD PTR _region$[ebp]
  0001b	57		 push	 edi
  0001c	8b 7d 08	 mov	 edi, DWORD PTR _pDC$[ebp]

; 289  : 	COLORREF orgTextColor = pDC->SetTextColor(textColor);

  0001f	8b cf		 mov	 ecx, edi
  00021	ff 30		 push	 DWORD PTR [eax]
  00023	8b 17		 mov	 edx, DWORD PTR [edi]
  00025	ff 52 38	 call	 DWORD PTR [edx+56]
; File C:\Program Files (x86)\Microsoft Visual Studio\2019\Community\VC\Tools\MSVC\14.29.30133\atlmfc\include\atlsimpstr.h

; 519  : 		return( GetData()->nDataLength );

  00028	8b 0b		 mov	 ecx, DWORD PTR [ebx]
; File D:\git\src\IBK\IBK_DRFN\ProjSrc\SrcChartEx\ChartAddIn\ChartAnalysisToolAddIn\AnalysisTool\Drawer.cpp

; 298  : 	CRect realRect = region;

  0002a	0f 10 06	 movups	 xmm0, XMMWORD PTR [esi]

; 289  : 	COLORREF orgTextColor = pDC->SetTextColor(textColor);

  0002d	89 45 e8	 mov	 DWORD PTR _orgTextColor$1$[ebp], eax
; File C:\Program Files (x86)\Microsoft Visual Studio\2019\Community\VC\Tools\MSVC\14.29.30133\atlmfc\include\afxwin1.inl

; 639  : 		VERIFY(::GetTextExtentPoint32(m_hAttribDC, str, (int)str.GetLength(), &size));

  00030	8d 45 e0	 lea	 eax, DWORD PTR _size$1[ebp]
  00033	50		 push	 eax
; File D:\git\src\IBK\IBK_DRFN\ProjSrc\SrcChartEx\ChartAddIn\ChartAnalysisToolAddIn\AnalysisTool\Drawer.cpp

; 298  : 	CRect realRect = region;

  00034	0f 11 45 ec	 movups	 XMMWORD PTR _realRect$2[ebp], xmm0
; File C:\Program Files (x86)\Microsoft Visual Studio\2019\Community\VC\Tools\MSVC\14.29.30133\atlmfc\include\afxwin1.inl

; 639  : 		VERIFY(::GetTextExtentPoint32(m_hAttribDC, str, (int)str.GetLength(), &size));

  00038	ff 71 f4	 push	 DWORD PTR [ecx-12]
  0003b	51		 push	 ecx
  0003c	ff 77 08	 push	 DWORD PTR [edi+8]
  0003f	ff 15 00 00 00
	00		 call	 DWORD PTR __imp__GetTextExtentPoint32A@16
; File C:\Program Files (x86)\Microsoft Visual Studio\2019\Community\VC\Tools\MSVC\14.29.30133\atlmfc\include\atltypes.h

; 581  : 	return bottom - top;

  00045	8b 46 0c	 mov	 eax, DWORD PTR [esi+12]
  00048	2b 46 04	 sub	 eax, DWORD PTR [esi+4]
; File D:\git\src\IBK\IBK_DRFN\ProjSrc\SrcChartEx\ChartAddIn\ChartAnalysisToolAddIn\AnalysisTool\Drawer.cpp

; 300  : 	int nOffset_y = (region.Height() - textSize.cy)/2 +1;

  0004b	8b 75 e4	 mov	 esi, DWORD PTR _size$1[ebp+4]
  0004e	2b c6		 sub	 eax, esi
  00050	99		 cdq
  00051	2b c2		 sub	 eax, edx
  00053	d1 f8		 sar	 eax, 1
  00055	40		 inc	 eax

; 301  : 	if(nOffset_y > 1)

  00056	83 f8 01	 cmp	 eax, 1
  00059	7e 0f		 jle	 SHORT $LN4@DrawTextOu
; File C:\Program Files (x86)\Microsoft Visual Studio\2019\Community\VC\Tools\MSVC\14.29.30133\atlmfc\include\atltypes.h

; 698  : 	::InflateRect(this, -x, -y);

  0005b	f7 d8		 neg	 eax
  0005d	50		 push	 eax
  0005e	6a 00		 push	 0
  00060	8d 45 ec	 lea	 eax, DWORD PTR _realRect$2[ebp]
  00063	50		 push	 eax
  00064	ff 15 00 00 00
	00		 call	 DWORD PTR __imp__InflateRect@12
$LN4@DrawTextOu:

; 581  : 	return bottom - top;

  0006a	8b 45 f8	 mov	 eax, DWORD PTR _realRect$2[ebp+12]
  0006d	8b c8		 mov	 ecx, eax
  0006f	2b 4d f0	 sub	 ecx, DWORD PTR _realRect$2[ebp+4]
; File D:\git\src\IBK\IBK_DRFN\ProjSrc\SrcChartEx\ChartAddIn\ChartAnalysisToolAddIn\AnalysisTool\Drawer.cpp

; 305  : 	if(textSize.cy > nHeight)

  00072	3b f1		 cmp	 esi, ecx
  00074	7e 07		 jle	 SHORT $LN5@DrawTextOu

; 306  : 		realRect.bottom += (textSize.cy - nHeight);

  00076	2b f1		 sub	 esi, ecx
  00078	03 c6		 add	 eax, esi
  0007a	89 45 f8	 mov	 DWORD PTR _realRect$2[ebp+12], eax
$LN5@DrawTextOu:
; File C:\Program Files (x86)\Microsoft Visual Studio\2019\Community\VC\Tools\MSVC\14.29.30133\atlmfc\include\atlsimpstr.h

; 519  : 		return( GetData()->nDataLength );

  0007d	8b 03		 mov	 eax, DWORD PTR [ebx]
; File C:\Program Files (x86)\Microsoft Visual Studio\2019\Community\VC\Tools\MSVC\14.29.30133\atlmfc\include\afxwin1.inl

; 600  : 		return _AFX_FUNCNAME(DrawText)((LPCTSTR)str, (int)str.GetLength(), lpRect, nFormat); }

  0007f	8d 4d ec	 lea	 ecx, DWORD PTR _realRect$2[ebp]
  00082	8b 17		 mov	 edx, DWORD PTR [edi]
  00084	6a 05		 push	 5
  00086	51		 push	 ecx
  00087	ff 70 f4	 push	 DWORD PTR [eax-12]
  0008a	8b cf		 mov	 ecx, edi
  0008c	50		 push	 eax
  0008d	ff 52 70	 call	 DWORD PTR [edx+112]
; File D:\git\src\IBK\IBK_DRFN\ProjSrc\SrcChartEx\ChartAddIn\ChartAnalysisToolAddIn\AnalysisTool\Drawer.cpp

; 293  : 	pDC->SetTextColor(orgTextColor);

  00090	8b 07		 mov	 eax, DWORD PTR [edi]
  00092	8b cf		 mov	 ecx, edi
  00094	ff 75 e8	 push	 DWORD PTR _orgTextColor$1$[ebp]
  00097	ff 50 38	 call	 DWORD PTR [eax+56]

; 294  : }

  0009a	8b 4d fc	 mov	 ecx, DWORD PTR __$ArrayPad$[ebp]
  0009d	5f		 pop	 edi
  0009e	5e		 pop	 esi
  0009f	33 cd		 xor	 ecx, ebp
  000a1	5b		 pop	 ebx
  000a2	e8 00 00 00 00	 call	 @__security_check_cookie@4
  000a7	8b e5		 mov	 esp, ebp
  000a9	5d		 pop	 ebp
  000aa	c2 10 00	 ret	 16			; 00000010H
?DrawTextOut@CDrawer@@IAEXPAVCDC@@ABV?$CStringT@DV?$StrTraitMFC_DLL@DV?$ChTraitsCRT@D@ATL@@@@@ATL@@ABVCRect@@ABK@Z ENDP ; CDrawer::DrawTextOut
_TEXT	ENDS
; Function compile flags: /Ogtp
; File D:\git\src\IBK\IBK_DRFN\ProjSrc\SrcChartEx\ChartAddIn\ChartAnalysisToolAddIn\AnalysisTool\Drawer.cpp
; File C:\Program Files (x86)\Microsoft Visual Studio\2019\Community\VC\Tools\MSVC\14.29.30133\atlmfc\include\afxwin1.inl
; File D:\git\src\IBK\IBK_DRFN\ProjSrc\SrcChartEx\ChartAddIn\ChartAnalysisToolAddIn\AnalysisTool\Drawer.cpp
; File C:\Program Files (x86)\Microsoft Visual Studio\2019\Community\VC\Tools\MSVC\14.29.30133\atlmfc\include\atlsimpstr.h
; File C:\Program Files (x86)\Microsoft Visual Studio\2019\Community\VC\Tools\MSVC\14.29.30133\atlmfc\include\afxwin1.inl
; File D:\git\src\IBK\IBK_DRFN\ProjSrc\SrcChartEx\ChartAddIn\ChartAnalysisToolAddIn\AnalysisTool\Drawer.cpp
; File C:\Program Files (x86)\Microsoft Visual Studio\2019\Community\VC\Tools\MSVC\14.29.30133\atlmfc\include\afxwin1.inl
; File D:\git\src\IBK\IBK_DRFN\ProjSrc\SrcChartEx\ChartAddIn\ChartAnalysisToolAddIn\AnalysisTool\Drawer.cpp
; File C:\Program Files (x86)\Microsoft Visual Studio\2019\Community\VC\Tools\MSVC\14.29.30133\atlmfc\include\atltypes.h
; File D:\git\src\IBK\IBK_DRFN\ProjSrc\SrcChartEx\ChartAddIn\ChartAnalysisToolAddIn\AnalysisTool\Drawer.cpp
; File C:\Program Files (x86)\Microsoft Visual Studio\2019\Community\VC\Tools\MSVC\14.29.30133\atlmfc\include\atltypes.h
; File D:\git\src\IBK\IBK_DRFN\ProjSrc\SrcChartEx\ChartAddIn\ChartAnalysisToolAddIn\AnalysisTool\Drawer.cpp
; File C:\Program Files (x86)\Microsoft Visual Studio\2019\Community\VC\Tools\MSVC\14.29.30133\atlmfc\include\atlsimpstr.h
; File C:\Program Files (x86)\Microsoft Visual Studio\2019\Community\VC\Tools\MSVC\14.29.30133\atlmfc\include\afxwin1.inl
; File C:\Program Files (x86)\Microsoft Visual Studio\2019\Community\VC\Tools\MSVC\14.29.30133\atlmfc\include\atlsimpstr.h
; File C:\Program Files (x86)\Microsoft Visual Studio\2019\Community\VC\Tools\MSVC\14.29.30133\atlmfc\include\afxwin1.inl
; File D:\git\src\IBK\IBK_DRFN\ProjSrc\SrcChartEx\ChartAddIn\ChartAnalysisToolAddIn\AnalysisTool\Drawer.cpp
; File C:\Program Files (x86)\Microsoft Visual Studio\2019\Community\VC\Tools\MSVC\14.29.30133\atlmfc\include\atlsimpstr.h
; File C:\Program Files (x86)\Microsoft Visual Studio\2019\Community\VC\Tools\MSVC\14.29.30133\atlmfc\include\afxwin1.inl
; File C:\Program Files (x86)\Microsoft Visual Studio\2019\Community\VC\Tools\MSVC\14.29.30133\atlmfc\include\atlsimpstr.h
; File C:\Program Files (x86)\Microsoft Visual Studio\2019\Community\VC\Tools\MSVC\14.29.30133\atlmfc\include\afxwin1.inl
; File D:\git\src\IBK\IBK_DRFN\ProjSrc\SrcChartEx\ChartAddIn\ChartAnalysisToolAddIn\AnalysisTool\Drawer.cpp
; File C:\Program Files (x86)\Microsoft Visual Studio\2019\Community\VC\Tools\MSVC\14.29.30133\atlmfc\include\afxwin1.inl
; File D:\git\src\IBK\IBK_DRFN\ProjSrc\SrcChartEx\ChartAddIn\ChartAnalysisToolAddIn\AnalysisTool\Drawer.cpp
; File C:\Program Files (x86)\Microsoft Visual Studio\2019\Community\VC\Tools\MSVC\14.29.30133\atlmfc\include\afxwin1.inl
; File D:\git\src\IBK\IBK_DRFN\ProjSrc\SrcChartEx\ChartAddIn\ChartAnalysisToolAddIn\AnalysisTool\Drawer.cpp
;	COMDAT ?DrawTextOut@CDrawer@@IAEXPAVCDC@@W4TEXTPOSITION@1@ABV?$CStringT@DV?$StrTraitMFC_DLL@DV?$ChTraitsCRT@D@ATL@@@@@ATL@@ABVCPoint@@ABVCSize@@@Z
_TEXT	SEGMENT
_data$GSCopy$1$ = -36					; size = 4
_pDC$GSCopy$1$ = -32					; size = 4
_size$1 = -28						; size = 8
_size$2 = -28						; size = 8
_rectClip$ = -20					; size = 16
tv88 = -12						; size = 8
__$ArrayPad$ = -4					; size = 4
_pDC$ = 8						; size = 4
_eTextPosition$ = 12					; size = 4
_data$ = 16						; size = 4
_point$ = 20						; size = 4
_maxSize$ = 24						; size = 4
?DrawTextOut@CDrawer@@IAEXPAVCDC@@W4TEXTPOSITION@1@ABV?$CStringT@DV?$StrTraitMFC_DLL@DV?$ChTraitsCRT@D@ATL@@@@@ATL@@ABVCPoint@@ABVCSize@@@Z PROC ; CDrawer::DrawTextOut, COMDAT
; _this$ = ecx

; 256  : {

  00000	55		 push	 ebp
  00001	8b ec		 mov	 ebp, esp
  00003	83 ec 24	 sub	 esp, 36			; 00000024H
  00006	a1 00 00 00 00	 mov	 eax, DWORD PTR ___security_cookie
  0000b	33 c5		 xor	 eax, ebp
  0000d	89 45 fc	 mov	 DWORD PTR __$ArrayPad$[ebp], eax
  00010	8b 45 10	 mov	 eax, DWORD PTR _data$[ebp]
; File C:\Program Files (x86)\Microsoft Visual Studio\2019\Community\VC\Tools\MSVC\14.29.30133\atlmfc\include\afxwin1.inl

; 639  : 		VERIFY(::GetTextExtentPoint32(m_hAttribDC, str, (int)str.GetLength(), &size));

  00013	8d 55 e4	 lea	 edx, DWORD PTR _size$2[ebp]
; File D:\git\src\IBK\IBK_DRFN\ProjSrc\SrcChartEx\ChartAddIn\ChartAnalysisToolAddIn\AnalysisTool\Drawer.cpp

; 256  : {

  00016	53		 push	 ebx
  00017	56		 push	 esi
  00018	8b 75 18	 mov	 esi, DWORD PTR _maxSize$[ebp]
  0001b	8b d9		 mov	 ebx, ecx
  0001d	8b 4d 08	 mov	 ecx, DWORD PTR _pDC$[ebp]
  00020	57		 push	 edi
  00021	8b 7d 14	 mov	 edi, DWORD PTR _point$[ebp]
  00024	89 45 dc	 mov	 DWORD PTR _data$GSCopy$1$[ebp], eax
; File C:\Program Files (x86)\Microsoft Visual Studio\2019\Community\VC\Tools\MSVC\14.29.30133\atlmfc\include\atlsimpstr.h

; 519  : 		return( GetData()->nDataLength );

  00027	8b 00		 mov	 eax, DWORD PTR [eax]
; File C:\Program Files (x86)\Microsoft Visual Studio\2019\Community\VC\Tools\MSVC\14.29.30133\atlmfc\include\afxwin1.inl

; 639  : 		VERIFY(::GetTextExtentPoint32(m_hAttribDC, str, (int)str.GetLength(), &size));

  00029	52		 push	 edx
; File D:\git\src\IBK\IBK_DRFN\ProjSrc\SrcChartEx\ChartAddIn\ChartAnalysisToolAddIn\AnalysisTool\Drawer.cpp

; 256  : {

  0002a	89 4d e0	 mov	 DWORD PTR _pDC$GSCopy$1$[ebp], ecx
; File C:\Program Files (x86)\Microsoft Visual Studio\2019\Community\VC\Tools\MSVC\14.29.30133\atlmfc\include\afxwin1.inl

; 639  : 		VERIFY(::GetTextExtentPoint32(m_hAttribDC, str, (int)str.GetLength(), &size));

  0002d	ff 70 f4	 push	 DWORD PTR [eax-12]
  00030	50		 push	 eax
  00031	ff 71 08	 push	 DWORD PTR [ecx+8]
  00034	ff 15 00 00 00
	00		 call	 DWORD PTR __imp__GetTextExtentPoint32A@16
; File D:\git\src\IBK\IBK_DRFN\ProjSrc\SrcChartEx\ChartAddIn\ChartAnalysisToolAddIn\AnalysisTool\Drawer.cpp

; 619  : 	switch( eTextPosition)

  0003a	8b 45 0c	 mov	 eax, DWORD PTR _eTextPosition$[ebp]
  0003d	83 f8 07	 cmp	 eax, 7
  00040	0f 87 a4 00 00
	00		 ja	 $LN17@DrawTextOu
  00046	ff 24 85 00 00
	00 00		 jmp	 DWORD PTR $LN65@DrawTextOu[eax*4]
$LN19@DrawTextOu:

; 620  : 	{
; 621  : 		case LEFT:			return CPoint(orgPoint.x - (nGripSize + textSize.cx), orgPoint.y - (textSize.cy / 2));

  0004d	8b 45 e8	 mov	 eax, DWORD PTR _size$2[ebp+4]
  00050	8b 37		 mov	 esi, DWORD PTR [edi]
  00052	2b 33		 sub	 esi, DWORD PTR [ebx]
  00054	8b 7f 04	 mov	 edi, DWORD PTR [edi+4]
  00057	2b 75 e4	 sub	 esi, DWORD PTR _size$2[ebp]
  0005a	99		 cdq
  0005b	2b c2		 sub	 eax, edx
  0005d	d1 f8		 sar	 eax, 1
  0005f	2b f8		 sub	 edi, eax
  00061	e9 89 00 00 00	 jmp	 $LN68@DrawTextOu
$LN20@DrawTextOu:

; 622  : 		case RIGHT:
; 623  : 		{
; 624  : 			CPoint point = orgPoint;

  00066	8b 0f		 mov	 ecx, DWORD PTR [edi]

; 625  : 			if(maxSize.cx > textSize.cx) point.x += (maxSize.cx - textSize.cx);

  00068	8b 06		 mov	 eax, DWORD PTR [esi]
  0006a	8b 55 e4	 mov	 edx, DWORD PTR _size$2[ebp]
  0006d	8b 7f 04	 mov	 edi, DWORD PTR [edi+4]
  00070	89 4d f4	 mov	 DWORD PTR tv88[ebp], ecx
  00073	3b c2		 cmp	 eax, edx
  00075	7e 04		 jle	 SHORT $LN21@DrawTextOu
  00077	2b c2		 sub	 eax, edx
  00079	03 c8		 add	 ecx, eax
$LN21@DrawTextOu:

; 626  : 			return CPoint(point.x + nGripSize, point.y - (textSize.cy / 2));

  0007b	8b 45 e8	 mov	 eax, DWORD PTR _size$2[ebp+4]
  0007e	8b 33		 mov	 esi, DWORD PTR [ebx]
  00080	99		 cdq
  00081	03 f1		 add	 esi, ecx
  00083	2b c2		 sub	 eax, edx
  00085	d1 f8		 sar	 eax, 1
  00087	2b f8		 sub	 edi, eax
  00089	eb 64		 jmp	 SHORT $LN68@DrawTextOu
$LN22@DrawTextOu:

; 627  : 		}
; 628  : 		case TOP:			return CPoint(orgPoint.x - (textSize.cx / 2),			orgPoint.y - (nGripSize + textSize.cy));

  0008b	8b 45 e4	 mov	 eax, DWORD PTR _size$2[ebp]
  0008e	8b 37		 mov	 esi, DWORD PTR [edi]
  00090	8b 7f 04	 mov	 edi, DWORD PTR [edi+4]
  00093	2b 3b		 sub	 edi, DWORD PTR [ebx]
  00095	99		 cdq
  00096	2b c2		 sub	 eax, edx
  00098	d1 f8		 sar	 eax, 1
  0009a	2b f0		 sub	 esi, eax
  0009c	2b 7d e8	 sub	 edi, DWORD PTR _size$2[ebp+4]
  0009f	eb 4e		 jmp	 SHORT $LN68@DrawTextOu
$LN23@DrawTextOu:

; 629  : 		case BOTTOM:		return CPoint(orgPoint.x - (textSize.cx / 2),			orgPoint.y + nGripSize);

  000a1	8b 45 e4	 mov	 eax, DWORD PTR _size$2[ebp]
  000a4	8b 37		 mov	 esi, DWORD PTR [edi]
  000a6	8b 7f 04	 mov	 edi, DWORD PTR [edi+4]
  000a9	99		 cdq
  000aa	2b c2		 sub	 eax, edx
  000ac	d1 f8		 sar	 eax, 1
  000ae	2b f0		 sub	 esi, eax
  000b0	03 3b		 add	 edi, DWORD PTR [ebx]
  000b2	eb 3b		 jmp	 SHORT $LN68@DrawTextOu
$LN24@DrawTextOu:

; 630  : 		// (2004.12.09, 배승원) 대각선 방향의 TEXT 설정도 제공한다.
; 631  : 		case TOP_LEFT:		return CPoint( orgPoint.x - (nGripSize + textSize.cx),	orgPoint.y - textSize.cy);

  000b4	8b 37		 mov	 esi, DWORD PTR [edi]
  000b6	2b 33		 sub	 esi, DWORD PTR [ebx]
  000b8	8b 7f 04	 mov	 edi, DWORD PTR [edi+4]
  000bb	2b 75 e4	 sub	 esi, DWORD PTR _size$2[ebp]
  000be	2b 7d e8	 sub	 edi, DWORD PTR _size$2[ebp+4]
  000c1	eb 2c		 jmp	 SHORT $LN68@DrawTextOu
$LN25@DrawTextOu:

; 632  : 		case TOP_RIGHT:		return CPoint( orgPoint.x + nGripSize,					orgPoint.y - textSize.cy);

  000c3	8b 33		 mov	 esi, DWORD PTR [ebx]
  000c5	03 37		 add	 esi, DWORD PTR [edi]
  000c7	8b 7f 04	 mov	 edi, DWORD PTR [edi+4]
  000ca	2b 7d e8	 sub	 edi, DWORD PTR _size$2[ebp+4]
  000cd	eb 20		 jmp	 SHORT $LN68@DrawTextOu
$LN26@DrawTextOu:

; 633  : 		case BOTTOM_LEFT:	return CPoint( orgPoint.x - (nGripSize + textSize.cx),	orgPoint.y + 2);

  000cf	8b 37		 mov	 esi, DWORD PTR [edi]
  000d1	2b 33		 sub	 esi, DWORD PTR [ebx]
  000d3	8b 7f 04	 mov	 edi, DWORD PTR [edi+4]
  000d6	2b 75 e4	 sub	 esi, DWORD PTR _size$2[ebp]
  000d9	83 c7 02	 add	 edi, 2
  000dc	eb 11		 jmp	 SHORT $LN68@DrawTextOu
$LN27@DrawTextOu:

; 634  : 		case BOTTOM_RIGHT:	return CPoint( orgPoint.x + nGripSize,					orgPoint.y + 2);

  000de	8b 33		 mov	 esi, DWORD PTR [ebx]
  000e0	03 37		 add	 esi, DWORD PTR [edi]
  000e2	8b 7f 04	 mov	 edi, DWORD PTR [edi+4]
  000e5	83 c7 02	 add	 edi, 2
  000e8	eb 05		 jmp	 SHORT $LN68@DrawTextOu
$LN17@DrawTextOu:

; 635  : 	}	
; 636  : 
; 637  : 	return orgPoint;

  000ea	8b 37		 mov	 esi, DWORD PTR [edi]
  000ec	8b 7f 04	 mov	 edi, DWORD PTR [edi+4]
$LN68@DrawTextOu:

; 260  : 	if (pDC->GetClipBox(&rectClip) != ERROR)

  000ef	8b 4d e0	 mov	 ecx, DWORD PTR _pDC$GSCopy$1$[ebp]
  000f2	8d 55 ec	 lea	 edx, DWORD PTR _rectClip$[ebp]
  000f5	0f 57 c0	 xorps	 xmm0, xmm0
; File C:\Program Files (x86)\Microsoft Visual Studio\2019\Community\VC\Tools\MSVC\14.29.30133\atlmfc\include\atltypes.h

; 528  : 	left = 0;

  000f8	8b de		 mov	 ebx, esi
; File D:\git\src\IBK\IBK_DRFN\ProjSrc\SrcChartEx\ChartAddIn\ChartAnalysisToolAddIn\AnalysisTool\Drawer.cpp

; 260  : 	if (pDC->GetClipBox(&rectClip) != ERROR)

  000fa	52		 push	 edx
; File C:\Program Files (x86)\Microsoft Visual Studio\2019\Community\VC\Tools\MSVC\14.29.30133\atlmfc\include\atltypes.h

; 528  : 	left = 0;

  000fb	0f 11 45 ec	 movups	 XMMWORD PTR _rectClip$[ebp], xmm0
; File D:\git\src\IBK\IBK_DRFN\ProjSrc\SrcChartEx\ChartAddIn\ChartAnalysisToolAddIn\AnalysisTool\Drawer.cpp

; 260  : 	if (pDC->GetClipBox(&rectClip) != ERROR)

  000ff	8b 01		 mov	 eax, DWORD PTR [ecx]
  00101	ff 50 58	 call	 DWORD PTR [eax+88]
  00104	85 c0		 test	 eax, eax
  00106	74 4e		 je	 SHORT $LN4@DrawTextOu
; File C:\Program Files (x86)\Microsoft Visual Studio\2019\Community\VC\Tools\MSVC\14.29.30133\atlmfc\include\atlsimpstr.h

; 519  : 		return( GetData()->nDataLength );

  00108	8b 45 dc	 mov	 eax, DWORD PTR _data$GSCopy$1$[ebp]
; File C:\Program Files (x86)\Microsoft Visual Studio\2019\Community\VC\Tools\MSVC\14.29.30133\atlmfc\include\afxwin1.inl

; 639  : 		VERIFY(::GetTextExtentPoint32(m_hAttribDC, str, (int)str.GetLength(), &size));

  0010b	8d 4d e4	 lea	 ecx, DWORD PTR _size$1[ebp]
  0010e	51		 push	 ecx
; File C:\Program Files (x86)\Microsoft Visual Studio\2019\Community\VC\Tools\MSVC\14.29.30133\atlmfc\include\atlsimpstr.h

; 519  : 		return( GetData()->nDataLength );

  0010f	8b 00		 mov	 eax, DWORD PTR [eax]
; File C:\Program Files (x86)\Microsoft Visual Studio\2019\Community\VC\Tools\MSVC\14.29.30133\atlmfc\include\afxwin1.inl

; 639  : 		VERIFY(::GetTextExtentPoint32(m_hAttribDC, str, (int)str.GetLength(), &size));

  00111	ff 70 f4	 push	 DWORD PTR [eax-12]
  00114	50		 push	 eax
  00115	8b 45 e0	 mov	 eax, DWORD PTR _pDC$GSCopy$1$[ebp]
  00118	ff 70 08	 push	 DWORD PTR [eax+8]
  0011b	ff 15 00 00 00
	00		 call	 DWORD PTR __imp__GetTextExtentPoint32A@16
; File D:\git\src\IBK\IBK_DRFN\ProjSrc\SrcChartEx\ChartAddIn\ChartAnalysisToolAddIn\AnalysisTool\Drawer.cpp

; 266  : 		if(rectClip.right < (position.x + textSize.cx + 5) && position.x < rectClip.right)

  00121	8b 45 e4	 mov	 eax, DWORD PTR _size$1[ebp]
  00124	8b d3		 mov	 edx, ebx
  00126	8b 4d f4	 mov	 ecx, DWORD PTR _rectClip$[ebp+8]
  00129	83 c0 05	 add	 eax, 5
  0012c	03 c3		 add	 eax, ebx
  0012e	3b c8		 cmp	 ecx, eax
  00130	8b 45 e4	 mov	 eax, DWORD PTR _size$1[ebp]
  00133	7d 0e		 jge	 SHORT $LN3@DrawTextOu
  00135	3b d9		 cmp	 ebx, ecx
  00137	7d 0a		 jge	 SHORT $LN3@DrawTextOu

; 267  : 		{
; 268  : 			position.x = rectClip.right - textSize.cx - 5;

  00139	2b c8		 sub	 ecx, eax

; 269  : 			position.y = position.y - 3;

  0013b	83 ef 03	 sub	 edi, 3
  0013e	8d 71 fb	 lea	 esi, DWORD PTR [ecx-5]
  00141	8b d6		 mov	 edx, esi
$LN3@DrawTextOu:

; 270  : 		}
; 271  : 		//2008.10.20 by LYH <<
; 272  : 
; 273  : 		//left
; 274  : 		//2008.10.20 by LYH >> 추세선 left text 오류 수정
; 275  : 		//if( position.x < 5)
; 276  : 		if( (position.x+textSize.cx)> 0 && position.x < 5)

  00143	03 c2		 add	 eax, edx
  00145	85 c0		 test	 eax, eax
  00147	7e 0d		 jle	 SHORT $LN4@DrawTextOu
  00149	83 fa 05	 cmp	 edx, 5
  0014c	7d 08		 jge	 SHORT $LN4@DrawTextOu

; 277  : 		//2008.10.20 by LYH <<
; 278  : 		{
; 279  : 			position.x = 5;

  0014e	be 05 00 00 00	 mov	 esi, 5

; 280  : 			position.y = position.y + 7;

  00153	83 c7 07	 add	 edi, 7
$LN4@DrawTextOu:
; File C:\Program Files (x86)\Microsoft Visual Studio\2019\Community\VC\Tools\MSVC\14.29.30133\atlmfc\include\atlsimpstr.h

; 519  : 		return( GetData()->nDataLength );

  00156	8b 45 dc	 mov	 eax, DWORD PTR _data$GSCopy$1$[ebp]
; File C:\Program Files (x86)\Microsoft Visual Studio\2019\Community\VC\Tools\MSVC\14.29.30133\atlmfc\include\afxwin1.inl

; 574  : 	{ ASSERT(m_hDC != NULL); return TextOut(x, y, (LPCTSTR)str, (int)str.GetLength()); } // call virtual

  00159	8b 4d e0	 mov	 ecx, DWORD PTR _pDC$GSCopy$1$[ebp]
; File C:\Program Files (x86)\Microsoft Visual Studio\2019\Community\VC\Tools\MSVC\14.29.30133\atlmfc\include\atlsimpstr.h

; 519  : 		return( GetData()->nDataLength );

  0015c	8b 00		 mov	 eax, DWORD PTR [eax]
; File C:\Program Files (x86)\Microsoft Visual Studio\2019\Community\VC\Tools\MSVC\14.29.30133\atlmfc\include\afxwin1.inl

; 574  : 	{ ASSERT(m_hDC != NULL); return TextOut(x, y, (LPCTSTR)str, (int)str.GetLength()); } // call virtual

  0015e	8b 11		 mov	 edx, DWORD PTR [ecx]
  00160	ff 70 f4	 push	 DWORD PTR [eax-12]
  00163	50		 push	 eax
  00164	57		 push	 edi
  00165	56		 push	 esi
  00166	ff 52 64	 call	 DWORD PTR [edx+100]
; File D:\git\src\IBK\IBK_DRFN\ProjSrc\SrcChartEx\ChartAddIn\ChartAnalysisToolAddIn\AnalysisTool\Drawer.cpp

; 285  : }

  00169	8b 4d fc	 mov	 ecx, DWORD PTR __$ArrayPad$[ebp]
; File C:\Program Files (x86)\Microsoft Visual Studio\2019\Community\VC\Tools\MSVC\14.29.30133\atlmfc\include\afxwin1.inl

; 574  : 	{ ASSERT(m_hDC != NULL); return TextOut(x, y, (LPCTSTR)str, (int)str.GetLength()); } // call virtual

  0016c	5f		 pop	 edi
  0016d	5e		 pop	 esi
; File D:\git\src\IBK\IBK_DRFN\ProjSrc\SrcChartEx\ChartAddIn\ChartAnalysisToolAddIn\AnalysisTool\Drawer.cpp

; 285  : }

  0016e	33 cd		 xor	 ecx, ebp
; File C:\Program Files (x86)\Microsoft Visual Studio\2019\Community\VC\Tools\MSVC\14.29.30133\atlmfc\include\afxwin1.inl

; 574  : 	{ ASSERT(m_hDC != NULL); return TextOut(x, y, (LPCTSTR)str, (int)str.GetLength()); } // call virtual

  00170	5b		 pop	 ebx
; File D:\git\src\IBK\IBK_DRFN\ProjSrc\SrcChartEx\ChartAddIn\ChartAnalysisToolAddIn\AnalysisTool\Drawer.cpp

; 285  : }

  00171	e8 00 00 00 00	 call	 @__security_check_cookie@4
  00176	8b e5		 mov	 esp, ebp
  00178	5d		 pop	 ebp
  00179	c2 14 00	 ret	 20			; 00000014H
$LN65@DrawTextOu:
  0017c	00 00 00 00	 DD	 $LN19@DrawTextOu
  00180	00 00 00 00	 DD	 $LN20@DrawTextOu
  00184	00 00 00 00	 DD	 $LN22@DrawTextOu
  00188	00 00 00 00	 DD	 $LN23@DrawTextOu
  0018c	00 00 00 00	 DD	 $LN24@DrawTextOu
  00190	00 00 00 00	 DD	 $LN25@DrawTextOu
  00194	00 00 00 00	 DD	 $LN26@DrawTextOu
  00198	00 00 00 00	 DD	 $LN27@DrawTextOu
?DrawTextOut@CDrawer@@IAEXPAVCDC@@W4TEXTPOSITION@1@ABV?$CStringT@DV?$StrTraitMFC_DLL@DV?$ChTraitsCRT@D@ATL@@@@@ATL@@ABVCPoint@@ABVCSize@@@Z ENDP ; CDrawer::DrawTextOut
_TEXT	ENDS
; Function compile flags: /Ogtp
; File D:\git\src\IBK\IBK_DRFN\ProjSrc\SrcChartEx\ChartAddIn\ChartAnalysisToolAddIn\AnalysisTool\Drawer.cpp
; File C:\Program Files (x86)\Microsoft Visual Studio\2019\Community\VC\Tools\MSVC\14.29.30133\atlmfc\include\afxwin1.inl
; File D:\git\src\IBK\IBK_DRFN\ProjSrc\SrcChartEx\ChartAddIn\ChartAnalysisToolAddIn\AnalysisTool\Drawer.cpp
; File C:\Program Files (x86)\Microsoft Visual Studio\2019\Community\VC\Tools\MSVC\14.29.30133\atlmfc\include\afxwin1.inl
; File D:\git\src\IBK\IBK_DRFN\ProjSrc\SrcChartEx\ChartAddIn\ChartAnalysisToolAddIn\AnalysisTool\Drawer.cpp
; File C:\Program Files (x86)\Microsoft Visual Studio\2019\Community\VC\Tools\MSVC\14.29.30133\atlmfc\include\afxwin1.inl
; File D:\git\src\IBK\IBK_DRFN\ProjSrc\SrcChartEx\ChartAddIn\ChartAnalysisToolAddIn\AnalysisTool\Drawer.cpp
;	COMDAT ?DrawRectangle@CDrawer@@IAEXPAVCDC@@ABVCRect@@ABK2_N@Z
_TEXT	SEGMENT
_newBrush$ = -28					; size = 8
_newPen$ = -20						; size = 8
__$EHRec$ = -12						; size = 12
_pDC$ = 8						; size = 4
_region$ = 12						; size = 4
_penColor$ = 16						; size = 4
_brushColor$ = 20					; size = 4
_bIsFill$ = 24						; size = 1
?DrawRectangle@CDrawer@@IAEXPAVCDC@@ABVCRect@@ABK2_N@Z PROC ; CDrawer::DrawRectangle, COMDAT
; _this$ = ecx

; 235  : {

  00000	55		 push	 ebp
  00001	8b ec		 mov	 ebp, esp
  00003	6a ff		 push	 -1
  00005	68 00 00 00 00	 push	 __ehhandler$?DrawRectangle@CDrawer@@IAEXPAVCDC@@ABVCRect@@ABK2_N@Z
  0000a	64 a1 00 00 00
	00		 mov	 eax, DWORD PTR fs:0
  00010	50		 push	 eax
  00011	83 ec 10	 sub	 esp, 16			; 00000010H
  00014	53		 push	 ebx
  00015	56		 push	 esi
  00016	57		 push	 edi
  00017	a1 00 00 00 00	 mov	 eax, DWORD PTR ___security_cookie
  0001c	33 c5		 xor	 eax, ebp
  0001e	50		 push	 eax
  0001f	8d 45 f4	 lea	 eax, DWORD PTR __$EHRec$[ebp]
  00022	64 a3 00 00 00
	00		 mov	 DWORD PTR fs:0, eax

; 236  : 	CBrush newBrush(brushColor);

  00028	8b 45 14	 mov	 eax, DWORD PTR _brushColor$[ebp]
  0002b	8d 4d e4	 lea	 ecx, DWORD PTR _newBrush$[ebp]
  0002e	ff 30		 push	 DWORD PTR [eax]
  00030	e8 00 00 00 00	 call	 ??0CBrush@@QAE@K@Z	; CBrush::CBrush

; 237  : 	CBrush* pOldBrush = NULL;
; 238  : 	if(bIsFill)

  00035	80 7d 18 00	 cmp	 BYTE PTR _bIsFill$[ebp], 0
  00039	8b 7d 08	 mov	 edi, DWORD PTR _pDC$[ebp]
  0003c	8b cf		 mov	 ecx, edi
  0003e	c7 45 fc 00 00
	00 00		 mov	 DWORD PTR __$EHRec$[ebp+8], 0
  00045	74 0b		 je	 SHORT $LN2@DrawRectan

; 239  : 		pOldBrush = pDC->SelectObject(&newBrush);

  00047	8d 45 e4	 lea	 eax, DWORD PTR _newBrush$[ebp]
  0004a	50		 push	 eax
  0004b	e8 00 00 00 00	 call	 ?SelectObject@CDC@@QAEPAVCBrush@@PAV2@@Z ; CDC::SelectObject
  00050	eb 07		 jmp	 SHORT $LN16@DrawRectan
$LN2@DrawRectan:

; 240  : 	else
; 241  : 		pOldBrush = (CBrush*) pDC->SelectStockObject(NULL_BRUSH);

  00052	8b 07		 mov	 eax, DWORD PTR [edi]
  00054	6a 05		 push	 5
  00056	ff 50 2c	 call	 DWORD PTR [eax+44]
$LN16@DrawRectan:

; 242  : 
; 243  : 	CPen newPen(PS_INSIDEFRAME, 1, penColor);

  00059	8b d8		 mov	 ebx, eax
  0005b	8d 4d ec	 lea	 ecx, DWORD PTR _newPen$[ebp]
  0005e	8b 45 10	 mov	 eax, DWORD PTR _penColor$[ebp]
  00061	ff 30		 push	 DWORD PTR [eax]
  00063	6a 01		 push	 1
  00065	6a 06		 push	 6
  00067	e8 00 00 00 00	 call	 ??0CPen@@QAE@HHK@Z	; CPen::CPen

; 244  : 	CPen* pOldPen = pDC->SelectObject(&newPen);

  0006c	8d 45 ec	 lea	 eax, DWORD PTR _newPen$[ebp]
  0006f	c6 45 fc 01	 mov	 BYTE PTR __$EHRec$[ebp+8], 1
  00073	50		 push	 eax
  00074	8b cf		 mov	 ecx, edi
  00076	e8 00 00 00 00	 call	 ?SelectObject@CDC@@QAEPAVCPen@@PAV2@@Z ; CDC::SelectObject
; File C:\Program Files (x86)\Microsoft Visual Studio\2019\Community\VC\Tools\MSVC\14.29.30133\atlmfc\include\afxwin1.inl

; 541  : 	{ ASSERT(m_hDC != NULL); return ::Rectangle(m_hDC, lpRect->left, lpRect->top,

  0007b	8b 55 0c	 mov	 edx, DWORD PTR _region$[ebp]
; File D:\git\src\IBK\IBK_DRFN\ProjSrc\SrcChartEx\ChartAddIn\ChartAnalysisToolAddIn\AnalysisTool\Drawer.cpp

; 244  : 	CPen* pOldPen = pDC->SelectObject(&newPen);

  0007e	8b f0		 mov	 esi, eax
; File C:\Program Files (x86)\Microsoft Visual Studio\2019\Community\VC\Tools\MSVC\14.29.30133\atlmfc\include\afxwin1.inl

; 541  : 	{ ASSERT(m_hDC != NULL); return ::Rectangle(m_hDC, lpRect->left, lpRect->top,

  00080	ff 72 0c	 push	 DWORD PTR [edx+12]
  00083	ff 72 08	 push	 DWORD PTR [edx+8]
  00086	ff 72 04	 push	 DWORD PTR [edx+4]
  00089	ff 32		 push	 DWORD PTR [edx]
  0008b	ff 77 04	 push	 DWORD PTR [edi+4]
  0008e	ff 15 00 00 00
	00		 call	 DWORD PTR __imp__Rectangle@20
; File D:\git\src\IBK\IBK_DRFN\ProjSrc\SrcChartEx\ChartAddIn\ChartAnalysisToolAddIn\AnalysisTool\Drawer.cpp

; 248  : 	pDC->SelectObject(pOldBrush);

  00094	53		 push	 ebx
  00095	8b cf		 mov	 ecx, edi
  00097	e8 00 00 00 00	 call	 ?SelectObject@CDC@@QAEPAVCBrush@@PAV2@@Z ; CDC::SelectObject

; 249  : 	pDC->SelectObject(pOldPen);

  0009c	56		 push	 esi
  0009d	8b cf		 mov	 ecx, edi
  0009f	e8 00 00 00 00	 call	 ?SelectObject@CDC@@QAEPAVCPen@@PAV2@@Z ; CDC::SelectObject

; 250  : 	newBrush.DeleteObject();

  000a4	8d 4d e4	 lea	 ecx, DWORD PTR _newBrush$[ebp]
  000a7	e8 00 00 00 00	 call	 ?DeleteObject@CGdiObject@@QAEHXZ ; CGdiObject::DeleteObject

; 251  : 	newPen.DeleteObject();

  000ac	8d 4d ec	 lea	 ecx, DWORD PTR _newPen$[ebp]
  000af	e8 00 00 00 00	 call	 ?DeleteObject@CGdiObject@@QAEHXZ ; CGdiObject::DeleteObject
; File C:\Program Files (x86)\Microsoft Visual Studio\2019\Community\VC\Tools\MSVC\14.29.30133\atlmfc\include\afxwin1.inl

; 106  : 	{ }

  000b4	8d 4d ec	 lea	 ecx, DWORD PTR _newPen$[ebp]
  000b7	c7 45 ec 00 00
	00 00		 mov	 DWORD PTR _newPen$[ebp], OFFSET ??_7CPen@@6B@
  000be	e8 00 00 00 00	 call	 ??1CGdiObject@@UAE@XZ	; CGdiObject::~CGdiObject

; 130  : 	{ }

  000c3	8d 4d e4	 lea	 ecx, DWORD PTR _newBrush$[ebp]
  000c6	c7 45 e4 00 00
	00 00		 mov	 DWORD PTR _newBrush$[ebp], OFFSET ??_7CBrush@@6B@
  000cd	e8 00 00 00 00	 call	 ??1CGdiObject@@UAE@XZ	; CGdiObject::~CGdiObject
; File D:\git\src\IBK\IBK_DRFN\ProjSrc\SrcChartEx\ChartAddIn\ChartAnalysisToolAddIn\AnalysisTool\Drawer.cpp

; 252  : }

  000d2	8b 4d f4	 mov	 ecx, DWORD PTR __$EHRec$[ebp]
  000d5	64 89 0d 00 00
	00 00		 mov	 DWORD PTR fs:0, ecx
  000dc	59		 pop	 ecx
  000dd	5f		 pop	 edi
  000de	5e		 pop	 esi
  000df	5b		 pop	 ebx
  000e0	8b e5		 mov	 esp, ebp
  000e2	5d		 pop	 ebp
  000e3	c2 14 00	 ret	 20			; 00000014H
_TEXT	ENDS
;	COMDAT text$x
text$x	SEGMENT
__unwindfunclet$?DrawRectangle@CDrawer@@IAEXPAVCDC@@ABVCRect@@ABK2_N@Z$0:
  00000	8d 4d e4	 lea	 ecx, DWORD PTR _newBrush$[ebp]
  00003	e9 00 00 00 00	 jmp	 ??1CBrush@@UAE@XZ	; CBrush::~CBrush
__unwindfunclet$?DrawRectangle@CDrawer@@IAEXPAVCDC@@ABVCRect@@ABK2_N@Z$1:
  00008	8d 4d ec	 lea	 ecx, DWORD PTR _newPen$[ebp]
  0000b	e9 00 00 00 00	 jmp	 ??1CPen@@UAE@XZ		; CPen::~CPen
  00010	cc		 int	 3
  00011	cc		 int	 3
  00012	cc		 int	 3
  00013	cc		 int	 3
  00014	cc		 int	 3
__ehhandler$?DrawRectangle@CDrawer@@IAEXPAVCDC@@ABVCRect@@ABK2_N@Z:
  00015	90		 npad	 1
  00016	90		 npad	 1
  00017	8b 54 24 08	 mov	 edx, DWORD PTR [esp+8]
  0001b	8d 42 0c	 lea	 eax, DWORD PTR [edx+12]
  0001e	8b 4a e0	 mov	 ecx, DWORD PTR [edx-32]
  00021	33 c8		 xor	 ecx, eax
  00023	e8 00 00 00 00	 call	 @__security_check_cookie@4
  00028	b8 00 00 00 00	 mov	 eax, OFFSET __ehfuncinfo$?DrawRectangle@CDrawer@@IAEXPAVCDC@@ABVCRect@@ABK2_N@Z
  0002d	e9 00 00 00 00	 jmp	 ___CxxFrameHandler3
text$x	ENDS
?DrawRectangle@CDrawer@@IAEXPAVCDC@@ABVCRect@@ABK2_N@Z ENDP ; CDrawer::DrawRectangle
; Function compile flags: /Ogtp
; File D:\git\src\IBK\IBK_DRFN\ProjSrc\SrcChartEx\ChartAddIn\ChartAnalysisToolAddIn\AnalysisTool\Drawer.cpp
; File C:\Program Files (x86)\Microsoft Visual Studio\2019\Community\VC\Tools\MSVC\14.29.30133\atlmfc\include\afxwin1.inl
; File D:\git\src\IBK\IBK_DRFN\ProjSrc\SrcChartEx\ChartAddIn\ChartAnalysisToolAddIn\AnalysisTool\Drawer.cpp
; File C:\Program Files (x86)\Microsoft Visual Studio\2019\Community\VC\Tools\MSVC\14.29.30133\atlmfc\include\afxwin1.inl
; File D:\git\src\IBK\IBK_DRFN\ProjSrc\SrcChartEx\ChartAddIn\ChartAnalysisToolAddIn\AnalysisTool\Drawer.cpp
; File C:\Program Files (x86)\Microsoft Visual Studio\2019\Community\VC\Tools\MSVC\14.29.30133\atlmfc\include\afxwin1.inl
; File D:\git\src\IBK\IBK_DRFN\ProjSrc\SrcChartEx\ChartAddIn\ChartAnalysisToolAddIn\AnalysisTool\Drawer.cpp
;	COMDAT ?DrawRect@CDrawer@@IAEXPAVCDC@@ABVCRect@@ABK_N@Z
_TEXT	SEGMENT
_brush$ = -20						; size = 8
__$EHRec$ = -12						; size = 12
_pDC$ = 8						; size = 4
_region$ = 12						; size = 4
_color$ = 16						; size = 4
_bIsFill$ = 20						; size = 1
?DrawRect@CDrawer@@IAEXPAVCDC@@ABVCRect@@ABK_N@Z PROC	; CDrawer::DrawRect, COMDAT
; _this$ = ecx

; 224  : {

  00000	55		 push	 ebp
  00001	8b ec		 mov	 ebp, esp
  00003	6a ff		 push	 -1
  00005	68 00 00 00 00	 push	 __ehhandler$?DrawRect@CDrawer@@IAEXPAVCDC@@ABVCRect@@ABK_N@Z
  0000a	64 a1 00 00 00
	00		 mov	 eax, DWORD PTR fs:0
  00010	50		 push	 eax
  00011	83 ec 08	 sub	 esp, 8
  00014	a1 00 00 00 00	 mov	 eax, DWORD PTR ___security_cookie
  00019	33 c5		 xor	 eax, ebp
  0001b	50		 push	 eax
  0001c	8d 45 f4	 lea	 eax, DWORD PTR __$EHRec$[ebp]
  0001f	64 a3 00 00 00
	00		 mov	 DWORD PTR fs:0, eax

; 225  : 	CBrush brush(color);

  00025	8b 45 10	 mov	 eax, DWORD PTR _color$[ebp]
  00028	8d 4d ec	 lea	 ecx, DWORD PTR _brush$[ebp]
  0002b	ff 30		 push	 DWORD PTR [eax]
  0002d	e8 00 00 00 00	 call	 ??0CBrush@@QAE@K@Z	; CBrush::CBrush

; 226  : 	if(bIsFill)

  00032	80 7d 14 00	 cmp	 BYTE PTR _bIsFill$[ebp], 0
  00036	ff 75 f0	 push	 DWORD PTR _brush$[ebp+4]
  00039	8b 45 08	 mov	 eax, DWORD PTR _pDC$[ebp]
  0003c	ff 75 0c	 push	 DWORD PTR _region$[ebp]
  0003f	c7 45 fc 00 00
	00 00		 mov	 DWORD PTR __$EHRec$[ebp+8], 0
  00046	ff 70 04	 push	 DWORD PTR [eax+4]
  00049	74 08		 je	 SHORT $LN2@DrawRect
; File C:\Program Files (x86)\Microsoft Visual Studio\2019\Community\VC\Tools\MSVC\14.29.30133\atlmfc\include\afxwin1.inl

; 476  : 	{ ASSERT(m_hDC != NULL); ::FillRect(m_hDC, lpRect, (HBRUSH)pBrush->GetSafeHandle()); }

  0004b	ff 15 00 00 00
	00		 call	 DWORD PTR __imp__FillRect@12
; File D:\git\src\IBK\IBK_DRFN\ProjSrc\SrcChartEx\ChartAddIn\ChartAnalysisToolAddIn\AnalysisTool\Drawer.cpp

; 227  : 		pDC->FillRect(region, &brush);

  00051	eb 06		 jmp	 SHORT $LN3@DrawRect
$LN2@DrawRect:
; File C:\Program Files (x86)\Microsoft Visual Studio\2019\Community\VC\Tools\MSVC\14.29.30133\atlmfc\include\afxwin1.inl

; 478  : 	{ ASSERT(m_hDC != NULL); ::FrameRect(m_hDC, lpRect, (HBRUSH)pBrush->GetSafeHandle()); }

  00053	ff 15 00 00 00
	00		 call	 DWORD PTR __imp__FrameRect@12
$LN3@DrawRect:
; File D:\git\src\IBK\IBK_DRFN\ProjSrc\SrcChartEx\ChartAddIn\ChartAnalysisToolAddIn\AnalysisTool\Drawer.cpp

; 231  : 	brush.DeleteObject();

  00059	8d 4d ec	 lea	 ecx, DWORD PTR _brush$[ebp]
  0005c	e8 00 00 00 00	 call	 ?DeleteObject@CGdiObject@@QAEHXZ ; CGdiObject::DeleteObject
; File C:\Program Files (x86)\Microsoft Visual Studio\2019\Community\VC\Tools\MSVC\14.29.30133\atlmfc\include\afxwin1.inl

; 130  : 	{ }

  00061	8d 4d ec	 lea	 ecx, DWORD PTR _brush$[ebp]
  00064	c7 45 ec 00 00
	00 00		 mov	 DWORD PTR _brush$[ebp], OFFSET ??_7CBrush@@6B@
  0006b	e8 00 00 00 00	 call	 ??1CGdiObject@@UAE@XZ	; CGdiObject::~CGdiObject
; File D:\git\src\IBK\IBK_DRFN\ProjSrc\SrcChartEx\ChartAddIn\ChartAnalysisToolAddIn\AnalysisTool\Drawer.cpp

; 232  : }

  00070	8b 4d f4	 mov	 ecx, DWORD PTR __$EHRec$[ebp]
  00073	64 89 0d 00 00
	00 00		 mov	 DWORD PTR fs:0, ecx
  0007a	59		 pop	 ecx
  0007b	8b e5		 mov	 esp, ebp
  0007d	5d		 pop	 ebp
  0007e	c2 10 00	 ret	 16			; 00000010H
_TEXT	ENDS
;	COMDAT text$x
text$x	SEGMENT
__unwindfunclet$?DrawRect@CDrawer@@IAEXPAVCDC@@ABVCRect@@ABK_N@Z$0:
  00000	8d 4d ec	 lea	 ecx, DWORD PTR _brush$[ebp]
  00003	e9 00 00 00 00	 jmp	 ??1CBrush@@UAE@XZ	; CBrush::~CBrush
  00008	cc		 int	 3
  00009	cc		 int	 3
  0000a	cc		 int	 3
  0000b	cc		 int	 3
  0000c	cc		 int	 3
__ehhandler$?DrawRect@CDrawer@@IAEXPAVCDC@@ABVCRect@@ABK_N@Z:
  0000d	90		 npad	 1
  0000e	90		 npad	 1
  0000f	8b 54 24 08	 mov	 edx, DWORD PTR [esp+8]
  00013	8d 42 0c	 lea	 eax, DWORD PTR [edx+12]
  00016	8b 4a f4	 mov	 ecx, DWORD PTR [edx-12]
  00019	33 c8		 xor	 ecx, eax
  0001b	e8 00 00 00 00	 call	 @__security_check_cookie@4
  00020	b8 00 00 00 00	 mov	 eax, OFFSET __ehfuncinfo$?DrawRect@CDrawer@@IAEXPAVCDC@@ABVCRect@@ABK_N@Z
  00025	e9 00 00 00 00	 jmp	 ___CxxFrameHandler3
text$x	ENDS
?DrawRect@CDrawer@@IAEXPAVCDC@@ABVCRect@@ABK_N@Z ENDP	; CDrawer::DrawRect
; Function compile flags: /Ogtp
; File D:\git\src\IBK\IBK_DRFN\ProjSrc\SrcChartEx\ChartAddIn\ChartAnalysisToolAddIn\AnalysisTool\Drawer.cpp
; File C:\Program Files (x86)\Microsoft Visual Studio\2019\Community\VC\Tools\MSVC\14.29.30133\atlmfc\include\afxwin1.inl
; File D:\git\src\IBK\IBK_DRFN\ProjSrc\SrcChartEx\ChartAddIn\ChartAnalysisToolAddIn\AnalysisTool\Drawer.cpp
; File C:\Program Files (x86)\Microsoft Visual Studio\2019\Community\VC\Tools\MSVC\14.29.30133\atlmfc\include\afxwin1.inl
; File D:\git\src\IBK\IBK_DRFN\ProjSrc\SrcChartEx\ChartAddIn\ChartAnalysisToolAddIn\AnalysisTool\Drawer.cpp
; File C:\Program Files (x86)\Microsoft Visual Studio\2019\Community\VC\Tools\MSVC\14.29.30133\atlmfc\include\afxwin1.inl
; File D:\git\src\IBK\IBK_DRFN\ProjSrc\SrcChartEx\ChartAddIn\ChartAnalysisToolAddIn\AnalysisTool\Drawer.cpp
; File C:\Program Files (x86)\Microsoft Visual Studio\2019\Community\VC\Tools\MSVC\14.29.30133\atlmfc\include\afxwin1.inl
; File D:\git\src\IBK\IBK_DRFN\ProjSrc\SrcChartEx\ChartAddIn\ChartAnalysisToolAddIn\AnalysisTool\Drawer.cpp
; File C:\Program Files (x86)\Microsoft Visual Studio\2019\Community\VC\Tools\MSVC\14.29.30133\atlmfc\include\afxwin1.inl
; File D:\git\src\IBK\IBK_DRFN\ProjSrc\SrcChartEx\ChartAddIn\ChartAnalysisToolAddIn\AnalysisTool\Drawer.cpp
;	COMDAT ?DrawFrameRect@CDrawer@@IAEXPAVCDC@@ABVCPoint@@1@Z
_TEXT	SEGMENT
$T1 = -8						; size = 8
_point$ = -8						; size = 8
_pDC$ = 8						; size = 4
_moveToPt$ = 12						; size = 4
_lineToPt$ = 16						; size = 4
?DrawFrameRect@CDrawer@@IAEXPAVCDC@@ABVCPoint@@1@Z PROC	; CDrawer::DrawFrameRect, COMDAT
; _this$ = ecx

; 210  : {

  00000	55		 push	 ebp
  00001	8b ec		 mov	 ebp, esp
  00003	83 ec 08	 sub	 esp, 8
  00006	53		 push	 ebx
; File C:\Program Files (x86)\Microsoft Visual Studio\2019\Community\VC\Tools\MSVC\14.29.30133\atlmfc\include\afxwin1.inl

; 464  : 	{ ASSERT(m_hDC != NULL); return MoveTo(point.x, point.y); }

  00007	8b 5d 08	 mov	 ebx, DWORD PTR _pDC$[ebp]
  0000a	8b cb		 mov	 ecx, ebx
; File D:\git\src\IBK\IBK_DRFN\ProjSrc\SrcChartEx\ChartAddIn\ChartAnalysisToolAddIn\AnalysisTool\Drawer.cpp

; 210  : {

  0000c	56		 push	 esi

; 211  : 	CPoint point(lineToPt);

  0000d	8b 75 10	 mov	 esi, DWORD PTR _lineToPt$[ebp]
  00010	57		 push	 edi
  00011	8b 46 04	 mov	 eax, DWORD PTR [esi+4]
  00014	8b 3e		 mov	 edi, DWORD PTR [esi]
  00016	89 45 fc	 mov	 DWORD PTR _point$[ebp+4], eax
; File C:\Program Files (x86)\Microsoft Visual Studio\2019\Community\VC\Tools\MSVC\14.29.30133\atlmfc\include\afxwin1.inl

; 464  : 	{ ASSERT(m_hDC != NULL); return MoveTo(point.x, point.y); }

  00019	8b 45 0c	 mov	 eax, DWORD PTR _moveToPt$[ebp]
  0001c	ff 70 04	 push	 DWORD PTR [eax+4]
  0001f	ff 30		 push	 DWORD PTR [eax]
  00021	8d 45 f8	 lea	 eax, DWORD PTR $T1[ebp]
  00024	50		 push	 eax
  00025	e8 00 00 00 00	 call	 ?MoveTo@CDC@@QAE?AVCPoint@@HH@Z ; CDC::MoveTo

; 466  : 	{ ASSERT(m_hDC != NULL); return LineTo(point.x, point.y); }

  0002a	8b 45 0c	 mov	 eax, DWORD PTR _moveToPt$[ebp]
  0002d	8b cb		 mov	 ecx, ebx
  0002f	ff 70 04	 push	 DWORD PTR [eax+4]
  00032	57		 push	 edi
  00033	e8 00 00 00 00	 call	 ?LineTo@CDC@@QAEHHH@Z	; CDC::LineTo
; File D:\git\src\IBK\IBK_DRFN\ProjSrc\SrcChartEx\ChartAddIn\ChartAnalysisToolAddIn\AnalysisTool\Drawer.cpp

; 215  : 	point.y = lineToPt.y;

  00038	8b 76 04	 mov	 esi, DWORD PTR [esi+4]
; File C:\Program Files (x86)\Microsoft Visual Studio\2019\Community\VC\Tools\MSVC\14.29.30133\atlmfc\include\afxwin1.inl

; 466  : 	{ ASSERT(m_hDC != NULL); return LineTo(point.x, point.y); }

  0003b	8b cb		 mov	 ecx, ebx
  0003d	56		 push	 esi
  0003e	57		 push	 edi
  0003f	e8 00 00 00 00	 call	 ?LineTo@CDC@@QAEHHH@Z	; CDC::LineTo
; File D:\git\src\IBK\IBK_DRFN\ProjSrc\SrcChartEx\ChartAddIn\ChartAnalysisToolAddIn\AnalysisTool\Drawer.cpp

; 217  : 	point.x = moveToPt.x;

  00044	8b 45 0c	 mov	 eax, DWORD PTR _moveToPt$[ebp]
; File C:\Program Files (x86)\Microsoft Visual Studio\2019\Community\VC\Tools\MSVC\14.29.30133\atlmfc\include\afxwin1.inl

; 466  : 	{ ASSERT(m_hDC != NULL); return LineTo(point.x, point.y); }

  00047	8b cb		 mov	 ecx, ebx
  00049	56		 push	 esi
; File D:\git\src\IBK\IBK_DRFN\ProjSrc\SrcChartEx\ChartAddIn\ChartAnalysisToolAddIn\AnalysisTool\Drawer.cpp

; 217  : 	point.x = moveToPt.x;

  0004a	8b 38		 mov	 edi, DWORD PTR [eax]
; File C:\Program Files (x86)\Microsoft Visual Studio\2019\Community\VC\Tools\MSVC\14.29.30133\atlmfc\include\afxwin1.inl

; 466  : 	{ ASSERT(m_hDC != NULL); return LineTo(point.x, point.y); }

  0004c	57		 push	 edi
  0004d	e8 00 00 00 00	 call	 ?LineTo@CDC@@QAEHHH@Z	; CDC::LineTo
  00052	8b 45 0c	 mov	 eax, DWORD PTR _moveToPt$[ebp]
  00055	8b cb		 mov	 ecx, ebx
  00057	ff 70 04	 push	 DWORD PTR [eax+4]
  0005a	57		 push	 edi
  0005b	e8 00 00 00 00	 call	 ?LineTo@CDC@@QAEHHH@Z	; CDC::LineTo
  00060	5f		 pop	 edi
  00061	5e		 pop	 esi
  00062	5b		 pop	 ebx
; File D:\git\src\IBK\IBK_DRFN\ProjSrc\SrcChartEx\ChartAddIn\ChartAnalysisToolAddIn\AnalysisTool\Drawer.cpp

; 221  : }

  00063	8b e5		 mov	 esp, ebp
  00065	5d		 pop	 ebp
  00066	c2 0c 00	 ret	 12			; 0000000cH
?DrawFrameRect@CDrawer@@IAEXPAVCDC@@ABVCPoint@@1@Z ENDP	; CDrawer::DrawFrameRect
_TEXT	ENDS
; Function compile flags: /Ogtp
; File D:\git\src\IBK\IBK_DRFN\ProjSrc\SrcChartEx\ChartAddIn\ChartAnalysisToolAddIn\AnalysisTool\Drawer.cpp
; File C:\Program Files (x86)\Microsoft Visual Studio\2019\Community\VC\Tools\MSVC\14.29.30133\atlmfc\include\afxwin1.inl
; File D:\git\src\IBK\IBK_DRFN\ProjSrc\SrcChartEx\ChartAddIn\ChartAnalysisToolAddIn\AnalysisTool\Drawer.cpp
; File C:\Program Files (x86)\Microsoft Visual Studio\2019\Community\VC\Tools\MSVC\14.29.30133\atlmfc\include\afxwin1.inl
; File D:\git\src\IBK\IBK_DRFN\ProjSrc\SrcChartEx\ChartAddIn\ChartAnalysisToolAddIn\AnalysisTool\Drawer.cpp
; File C:\Program Files (x86)\Microsoft Visual Studio\2019\Community\VC\Tools\MSVC\14.29.30133\atlmfc\include\afxwin1.inl
; File D:\git\src\IBK\IBK_DRFN\ProjSrc\SrcChartEx\ChartAddIn\ChartAnalysisToolAddIn\AnalysisTool\Drawer.cpp
; File C:\Program Files (x86)\Microsoft Visual Studio\2019\Community\VC\Tools\MSVC\14.29.30133\atlmfc\include\afxwin1.inl
; File D:\git\src\IBK\IBK_DRFN\ProjSrc\SrcChartEx\ChartAddIn\ChartAnalysisToolAddIn\AnalysisTool\Drawer.cpp
; File C:\Program Files (x86)\Microsoft Visual Studio\2019\Community\VC\Tools\MSVC\14.29.30133\atlmfc\include\afxwin1.inl
; File D:\git\src\IBK\IBK_DRFN\ProjSrc\SrcChartEx\ChartAddIn\ChartAnalysisToolAddIn\AnalysisTool\Drawer.cpp
; File C:\Program Files (x86)\Microsoft Visual Studio\2019\Community\VC\Tools\MSVC\14.29.30133\atlmfc\include\afxwin1.inl
; File D:\git\src\IBK\IBK_DRFN\ProjSrc\SrcChartEx\ChartAddIn\ChartAnalysisToolAddIn\AnalysisTool\Drawer.cpp
; File C:\Program Files (x86)\Microsoft Visual Studio\2019\Community\VC\Tools\MSVC\14.29.30133\atlmfc\include\afxwin1.inl
; File D:\git\src\IBK\IBK_DRFN\ProjSrc\SrcChartEx\ChartAddIn\ChartAnalysisToolAddIn\AnalysisTool\Drawer.cpp
; File C:\Program Files (x86)\Microsoft Visual Studio\2019\Community\VC\Tools\MSVC\14.29.30133\atlmfc\include\afxwin1.inl
; File D:\git\src\IBK\IBK_DRFN\ProjSrc\SrcChartEx\ChartAddIn\ChartAnalysisToolAddIn\AnalysisTool\Drawer.cpp
;	COMDAT ?DrawFrameRect@CDrawer@@IAEXPAVCDC@@ABVCRect@@@Z
_TEXT	SEGMENT
$T1 = -8						; size = 8
_pDC$ = 8						; size = 4
_region$ = 12						; size = 4
?DrawFrameRect@CDrawer@@IAEXPAVCDC@@ABVCRect@@@Z PROC	; CDrawer::DrawFrameRect, COMDAT
; _this$ = ecx

; 196  : {

  00000	55		 push	 ebp
  00001	8b ec		 mov	 ebp, esp
  00003	83 ec 08	 sub	 esp, 8
; File C:\Program Files (x86)\Microsoft Visual Studio\2019\Community\VC\Tools\MSVC\14.29.30133\atlmfc\include\afxwin1.inl

; 464  : 	{ ASSERT(m_hDC != NULL); return MoveTo(point.x, point.y); }

  00006	8d 45 f8	 lea	 eax, DWORD PTR $T1[ebp]
; File D:\git\src\IBK\IBK_DRFN\ProjSrc\SrcChartEx\ChartAddIn\ChartAnalysisToolAddIn\AnalysisTool\Drawer.cpp

; 196  : {

  00009	53		 push	 ebx
; File C:\Program Files (x86)\Microsoft Visual Studio\2019\Community\VC\Tools\MSVC\14.29.30133\atlmfc\include\afxwin1.inl

; 464  : 	{ ASSERT(m_hDC != NULL); return MoveTo(point.x, point.y); }

  0000a	8b 5d 08	 mov	 ebx, DWORD PTR _pDC$[ebp]
  0000d	8b cb		 mov	 ecx, ebx
; File D:\git\src\IBK\IBK_DRFN\ProjSrc\SrcChartEx\ChartAddIn\ChartAnalysisToolAddIn\AnalysisTool\Drawer.cpp

; 196  : {

  0000f	56		 push	 esi
  00010	57		 push	 edi

; 197  : 	CPoint point(region.TopLeft());

  00011	8b 7d 0c	 mov	 edi, DWORD PTR _region$[ebp]
  00014	8b 77 04	 mov	 esi, DWORD PTR [edi+4]
; File C:\Program Files (x86)\Microsoft Visual Studio\2019\Community\VC\Tools\MSVC\14.29.30133\atlmfc\include\afxwin1.inl

; 464  : 	{ ASSERT(m_hDC != NULL); return MoveTo(point.x, point.y); }

  00017	56		 push	 esi
  00018	ff 37		 push	 DWORD PTR [edi]
  0001a	50		 push	 eax
  0001b	e8 00 00 00 00	 call	 ?MoveTo@CDC@@QAE?AVCPoint@@HH@Z ; CDC::MoveTo
; File D:\git\src\IBK\IBK_DRFN\ProjSrc\SrcChartEx\ChartAddIn\ChartAnalysisToolAddIn\AnalysisTool\Drawer.cpp

; 199  : 	point.x = region.right;

  00020	8b 7f 08	 mov	 edi, DWORD PTR [edi+8]
; File C:\Program Files (x86)\Microsoft Visual Studio\2019\Community\VC\Tools\MSVC\14.29.30133\atlmfc\include\afxwin1.inl

; 466  : 	{ ASSERT(m_hDC != NULL); return LineTo(point.x, point.y); }

  00023	8b cb		 mov	 ecx, ebx
  00025	56		 push	 esi
  00026	57		 push	 edi
  00027	e8 00 00 00 00	 call	 ?LineTo@CDC@@QAEHHH@Z	; CDC::LineTo
; File D:\git\src\IBK\IBK_DRFN\ProjSrc\SrcChartEx\ChartAddIn\ChartAnalysisToolAddIn\AnalysisTool\Drawer.cpp

; 201  : 	point.y = region.bottom;

  0002c	8b 75 0c	 mov	 esi, DWORD PTR _region$[ebp]
; File C:\Program Files (x86)\Microsoft Visual Studio\2019\Community\VC\Tools\MSVC\14.29.30133\atlmfc\include\afxwin1.inl

; 466  : 	{ ASSERT(m_hDC != NULL); return LineTo(point.x, point.y); }

  0002f	8b cb		 mov	 ecx, ebx
; File D:\git\src\IBK\IBK_DRFN\ProjSrc\SrcChartEx\ChartAddIn\ChartAnalysisToolAddIn\AnalysisTool\Drawer.cpp

; 201  : 	point.y = region.bottom;

  00031	8b 76 0c	 mov	 esi, DWORD PTR [esi+12]
; File C:\Program Files (x86)\Microsoft Visual Studio\2019\Community\VC\Tools\MSVC\14.29.30133\atlmfc\include\afxwin1.inl

; 466  : 	{ ASSERT(m_hDC != NULL); return LineTo(point.x, point.y); }

  00034	56		 push	 esi
  00035	57		 push	 edi
  00036	e8 00 00 00 00	 call	 ?LineTo@CDC@@QAEHHH@Z	; CDC::LineTo
; File D:\git\src\IBK\IBK_DRFN\ProjSrc\SrcChartEx\ChartAddIn\ChartAnalysisToolAddIn\AnalysisTool\Drawer.cpp

; 203  : 	point.x = region.left;

  0003b	8b 45 0c	 mov	 eax, DWORD PTR _region$[ebp]
; File C:\Program Files (x86)\Microsoft Visual Studio\2019\Community\VC\Tools\MSVC\14.29.30133\atlmfc\include\afxwin1.inl

; 466  : 	{ ASSERT(m_hDC != NULL); return LineTo(point.x, point.y); }

  0003e	8b cb		 mov	 ecx, ebx
  00040	56		 push	 esi
; File D:\git\src\IBK\IBK_DRFN\ProjSrc\SrcChartEx\ChartAddIn\ChartAnalysisToolAddIn\AnalysisTool\Drawer.cpp

; 203  : 	point.x = region.left;

  00041	8b 38		 mov	 edi, DWORD PTR [eax]
; File C:\Program Files (x86)\Microsoft Visual Studio\2019\Community\VC\Tools\MSVC\14.29.30133\atlmfc\include\afxwin1.inl

; 466  : 	{ ASSERT(m_hDC != NULL); return LineTo(point.x, point.y); }

  00043	57		 push	 edi
  00044	e8 00 00 00 00	 call	 ?LineTo@CDC@@QAEHHH@Z	; CDC::LineTo
  00049	8b 45 0c	 mov	 eax, DWORD PTR _region$[ebp]
  0004c	8b cb		 mov	 ecx, ebx
  0004e	ff 70 04	 push	 DWORD PTR [eax+4]
  00051	57		 push	 edi
  00052	e8 00 00 00 00	 call	 ?LineTo@CDC@@QAEHHH@Z	; CDC::LineTo
  00057	5f		 pop	 edi
  00058	5e		 pop	 esi
  00059	5b		 pop	 ebx
; File D:\git\src\IBK\IBK_DRFN\ProjSrc\SrcChartEx\ChartAddIn\ChartAnalysisToolAddIn\AnalysisTool\Drawer.cpp

; 207  : }

  0005a	8b e5		 mov	 esp, ebp
  0005c	5d		 pop	 ebp
  0005d	c2 08 00	 ret	 8
?DrawFrameRect@CDrawer@@IAEXPAVCDC@@ABVCRect@@@Z ENDP	; CDrawer::DrawFrameRect
_TEXT	ENDS
; Function compile flags: /Ogtp
; File D:\git\src\IBK\IBK_DRFN\ProjSrc\SrcChartEx\ChartAddIn\ChartAnalysisToolAddIn\AnalysisTool\Drawer.cpp
; File C:\Program Files (x86)\Microsoft Visual Studio\2019\Community\VC\Tools\MSVC\14.29.30133\atlmfc\include\afxwin1.inl
; File D:\git\src\IBK\IBK_DRFN\ProjSrc\SrcChartEx\ChartAddIn\ChartAnalysisToolAddIn\AnalysisTool\Drawer.cpp
; File C:\Program Files (x86)\Microsoft Visual Studio\2019\Community\VC\Tools\MSVC\14.29.30133\atlmfc\include\afxwin1.inl
; File D:\git\src\IBK\IBK_DRFN\ProjSrc\SrcChartEx\ChartAddIn\ChartAnalysisToolAddIn\AnalysisTool\Drawer.cpp
; File C:\Program Files (x86)\Microsoft Visual Studio\2019\Community\VC\Tools\MSVC\14.29.30133\atlmfc\include\afxwin1.inl
; File D:\git\src\IBK\IBK_DRFN\ProjSrc\SrcChartEx\ChartAddIn\ChartAnalysisToolAddIn\AnalysisTool\Drawer.cpp
;	COMDAT ?DrawLineExt@CDrawer@@IAEXPAVCDC@@ABVCPoint@@1HH@Z
_TEXT	SEGMENT
$T3 = -20						; size = 8
$T4 = -20						; size = 8
tv584 = -16						; size = 4
tv557 = -16						; size = 4
tv585 = -12						; size = 4
tv576 = -12						; size = 4
$T5 = -8						; size = 4
_ptExtStart$1$ = -8					; size = 4
tv587 = -4						; size = 4
_pDC$ = 8						; size = 4
_ptExtEnd$2$ = 12					; size = 4
_moveToPt$ = 12						; size = 4
tv578 = 16						; size = 4
_ptExtStart$2$ = 16					; size = 4
_lineToPt$ = 16						; size = 4
_bLeft$ = 20						; size = 4
_bRight$ = 24						; size = 4
?DrawLineExt@CDrawer@@IAEXPAVCDC@@ABVCPoint@@1HH@Z PROC	; CDrawer::DrawLineExt, COMDAT
; _this$ = ecx

; 88   : {

  00000	55		 push	 ebp
  00001	8b ec		 mov	 ebp, esp
  00003	83 ec 14	 sub	 esp, 20			; 00000014H

; 89   : 	if( bLeft != TRUE && bRight != TRUE)

  00006	83 7d 14 01	 cmp	 DWORD PTR _bLeft$[ebp], 1
  0000a	56		 push	 esi
  0000b	74 31		 je	 SHORT $LN2@DrawLineEx
  0000d	83 7d 18 01	 cmp	 DWORD PTR _bRight$[ebp], 1
  00011	74 2b		 je	 SHORT $LN2@DrawLineEx

; 90   : 	{
; 91   : 		pDC->MoveTo(moveToPt);

  00013	8b 45 0c	 mov	 eax, DWORD PTR _moveToPt$[ebp]
; File C:\Program Files (x86)\Microsoft Visual Studio\2019\Community\VC\Tools\MSVC\14.29.30133\atlmfc\include\afxwin1.inl

; 464  : 	{ ASSERT(m_hDC != NULL); return MoveTo(point.x, point.y); }

  00016	8b 4d 08	 mov	 ecx, DWORD PTR _pDC$[ebp]
  00019	ff 70 04	 push	 DWORD PTR [eax+4]
  0001c	ff 30		 push	 DWORD PTR [eax]
  0001e	8d 45 ec	 lea	 eax, DWORD PTR $T4[ebp]
  00021	50		 push	 eax
  00022	e8 00 00 00 00	 call	 ?MoveTo@CDC@@QAE?AVCPoint@@HH@Z ; CDC::MoveTo
; File D:\git\src\IBK\IBK_DRFN\ProjSrc\SrcChartEx\ChartAddIn\ChartAnalysisToolAddIn\AnalysisTool\Drawer.cpp

; 92   : 		pDC->LineTo(lineToPt);

  00027	8b 45 10	 mov	 eax, DWORD PTR _lineToPt$[ebp]
; File C:\Program Files (x86)\Microsoft Visual Studio\2019\Community\VC\Tools\MSVC\14.29.30133\atlmfc\include\afxwin1.inl

; 466  : 	{ ASSERT(m_hDC != NULL); return LineTo(point.x, point.y); }

  0002a	8b 4d 08	 mov	 ecx, DWORD PTR _pDC$[ebp]
  0002d	ff 70 04	 push	 DWORD PTR [eax+4]
  00030	ff 30		 push	 DWORD PTR [eax]
  00032	e8 00 00 00 00	 call	 ?LineTo@CDC@@QAEHHH@Z	; CDC::LineTo
  00037	5e		 pop	 esi
; File D:\git\src\IBK\IBK_DRFN\ProjSrc\SrcChartEx\ChartAddIn\ChartAnalysisToolAddIn\AnalysisTool\Drawer.cpp

; 182  : }

  00038	8b e5		 mov	 esp, ebp
  0003a	5d		 pop	 ebp
  0003b	c2 14 00	 ret	 20			; 00000014H
$LN2@DrawLineEx:

; 93   : 		return;
; 94   : 	}
; 95   : 
; 96   : 	CPoint ptStart( moveToPt), ptEnd( lineToPt);
; 97   : 
; 98   : 	CPoint ptTemp;
; 99   : 	// 2.1 먼저 기본 방향성을 확인하기 위한 양축의 변화량을 확인한다.
; 100  : 	if(bLeft == TRUE && bRight == FALSE && ptEnd.x < ptStart.x)

  0003e	83 7d 14 01	 cmp	 DWORD PTR _bLeft$[ebp], 1
  00042	8b 45 0c	 mov	 eax, DWORD PTR _moveToPt$[ebp]
  00045	57		 push	 edi
  00046	8b 08		 mov	 ecx, DWORD PTR [eax]
  00048	8b 70 04	 mov	 esi, DWORD PTR [eax+4]
  0004b	8b 45 10	 mov	 eax, DWORD PTR _lineToPt$[ebp]
  0004e	8b 10		 mov	 edx, DWORD PTR [eax]
  00050	8b 40 04	 mov	 eax, DWORD PTR [eax+4]
  00053	8b f8		 mov	 edi, eax
  00055	89 55 10	 mov	 DWORD PTR tv578[ebp], edx
  00058	89 45 fc	 mov	 DWORD PTR tv587[ebp], eax
  0005b	89 55 0c	 mov	 DWORD PTR _ptExtEnd$2$[ebp], edx
  0005e	75 1c		 jne	 SHORT $LN3@DrawLineEx
  00060	83 7d 18 00	 cmp	 DWORD PTR _bRight$[ebp], 0
  00064	75 16		 jne	 SHORT $LN3@DrawLineEx
  00066	8b c2		 mov	 eax, edx
  00068	8b d7		 mov	 edx, edi
  0006a	89 55 f8	 mov	 DWORD PTR $T5[ebp], edx
  0006d	8b d0		 mov	 edx, eax
  0006f	3b c1		 cmp	 eax, ecx
  00071	7d 57		 jge	 SHORT $LN4@DrawLineEx

; 101  : 	{
; 102  : 		ptTemp = ptStart;
; 103  : 		ptStart = ptEnd;
; 104  : 		ptEnd = ptTemp;

  00073	8b d1		 mov	 edx, ecx
  00075	8b c8		 mov	 ecx, eax
  00077	89 55 0c	 mov	 DWORD PTR _ptExtEnd$2$[ebp], edx

; 105  : 	}
; 106  : 	
; 107  : 	if(bRight == TRUE && bLeft == FALSE && ptEnd.x < ptStart.x)

  0007a	eb 44		 jmp	 SHORT $LN29@DrawLineEx
$LN3@DrawLineEx:
  0007c	83 7d 14 01	 cmp	 DWORD PTR _bLeft$[ebp], 1
  00080	8b c2		 mov	 eax, edx
  00082	8b d1		 mov	 edx, ecx
  00084	0f 45 d1	 cmovne	 edx, ecx
  00087	0f 45 c0	 cmovne	 eax, eax
  0008a	83 7d 18 01	 cmp	 DWORD PTR _bRight$[ebp], 1
  0008e	89 55 f4	 mov	 DWORD PTR tv585[ebp], edx
  00091	8b d7		 mov	 edx, edi
  00093	89 55 f8	 mov	 DWORD PTR $T5[ebp], edx
  00096	8b 55 0c	 mov	 edx, DWORD PTR _ptExtEnd$2$[ebp]
  00099	75 2f		 jne	 SHORT $LN4@DrawLineEx
  0009b	83 7d 14 00	 cmp	 DWORD PTR _bLeft$[ebp], 0
  0009f	8b d7		 mov	 edx, edi
  000a1	89 55 f8	 mov	 DWORD PTR $T5[ebp], edx
  000a4	8b 55 0c	 mov	 edx, DWORD PTR _ptExtEnd$2$[ebp]
  000a7	75 21		 jne	 SHORT $LN4@DrawLineEx
  000a9	8b d7		 mov	 edx, edi
  000ab	89 55 f8	 mov	 DWORD PTR $T5[ebp], edx
  000ae	8b 55 f4	 mov	 edx, DWORD PTR tv585[ebp]
  000b1	3b c2		 cmp	 eax, edx
  000b3	8b 55 0c	 mov	 edx, DWORD PTR _ptExtEnd$2$[ebp]
  000b6	7d 12		 jge	 SHORT $LN4@DrawLineEx

; 108  : 	{
; 109  : 		ptTemp = ptStart;

  000b8	8b d1		 mov	 edx, ecx
  000ba	89 4d 0c	 mov	 DWORD PTR _ptExtEnd$2$[ebp], ecx

; 110  : 		ptStart = ptEnd;
; 111  : 		ptEnd = ptTemp;

  000bd	8b 4d 10	 mov	 ecx, DWORD PTR tv578[ebp]
$LN29@DrawLineEx:

; 112  : 	}
; 113  : 
; 114  : 	double dDX = ptEnd.x - ptStart.x;

  000c0	8b fe		 mov	 edi, esi
  000c2	8b c2		 mov	 eax, edx
  000c4	8b 75 fc	 mov	 esi, DWORD PTR tv587[ebp]
  000c7	89 7d f8	 mov	 DWORD PTR $T5[ebp], edi
$LN4@DrawLineEx:
  000ca	2b c1		 sub	 eax, ecx

; 115  : 	double dDY = ptEnd.y - ptStart.y;
; 116  : 	// 2.2 Logic을 간단히 하기 위하여 우하단(+,+)의 방향으로 조정하고 Flag을 관리한다.
; 117  : 	BOOL bXTransformation = ( dDX < 0);
; 118  : 	if( bXTransformation)

  000cc	f2 0f 10 05 00
	00 00 00	 movsd	 xmm0, QWORD PTR __xmm@80000000000000008000000000000000
  000d4	0f 57 c9	 xorps	 xmm1, xmm1
  000d7	66 0f 6e d8	 movd	 xmm3, eax
  000db	8b 45 f8	 mov	 eax, DWORD PTR $T5[ebp]
  000de	2b c6		 sub	 eax, esi
  000e0	f3 0f e6 db	 cvtdq2pd xmm3, xmm3
  000e4	66 0f 6e d0	 movd	 xmm2, eax
  000e8	33 c0		 xor	 eax, eax
  000ea	66 0f 2f cb	 comisd	 xmm1, xmm3
  000ee	f3 0f e6 d2	 cvtdq2pd xmm2, xmm2
  000f2	0f 97 c0	 seta	 al
  000f5	89 45 f0	 mov	 DWORD PTR tv557[ebp], eax
  000f8	85 c0		 test	 eax, eax
  000fa	74 0c		 je	 SHORT $LN5@DrawLineEx

; 119  : 	{
; 120  : 		dDX = -dDX;

  000fc	0f 57 d8	 xorps	 xmm3, xmm0

; 121  : 		ptEnd.x = ptStart.x + ( int)dDX;

  000ff	f2 0f 2c d3	 cvttsd2si edx, xmm3
  00103	03 d1		 add	 edx, ecx
  00105	89 55 0c	 mov	 DWORD PTR _ptExtEnd$2$[ebp], edx
$LN5@DrawLineEx:

; 122  : 	}
; 123  : 	BOOL bYTransformation = ( dDY < 0);

  00108	33 c0		 xor	 eax, eax
  0010a	66 0f 2f ca	 comisd	 xmm1, xmm2
  0010e	0f 97 c0	 seta	 al
  00111	89 45 f4	 mov	 DWORD PTR tv576[ebp], eax

; 124  : 	if( bYTransformation)

  00114	85 c0		 test	 eax, eax
  00116	74 09		 je	 SHORT $LN6@DrawLineEx

; 125  : 	{
; 126  : 		dDY = -dDY;

  00118	0f 57 d0	 xorps	 xmm2, xmm0

; 127  : 		ptEnd.y = ptStart.y + ( int)dDY;

  0011b	f2 0f 2c fa	 cvttsd2si edi, xmm2
  0011f	03 fe		 add	 edi, esi
$LN6@DrawLineEx:

; 128  : 	}
; 129  : 	// 2.3 확장을 처리한다.
; 130  : 	// 2.3.1 각이 크기를 감안하여 진행 방향확장을 처리한다.
; 131  : 	CPoint ptExtEnd( ptEnd);
; 132  : 	CPoint ptExtStart( ptStart);
; 133  : 	if(bRight == TRUE)

  00121	83 7d 18 01	 cmp	 DWORD PTR _bRight$[ebp], 1
  00125	89 4d 10	 mov	 DWORD PTR _ptExtStart$2$[ebp], ecx
  00128	89 75 f8	 mov	 DWORD PTR _ptExtStart$1$[ebp], esi
  0012b	75 69		 jne	 SHORT $LN10@DrawLineEx

; 134  : 	{
; 135  : 		if( dDX < dDY)

  0012d	66 0f 2f d3	 comisd	 xmm2, xmm3
  00131	76 2e		 jbe	 SHORT $LN8@DrawLineEx

; 136  : 		{
; 137  : 			ptExtEnd.y = 10000;
; 138  : 			ptExtEnd.x = int( ( dDX / dDY) * ( ptExtEnd.y - ptStart.y) + ptStart.x);

  00133	0f 28 c3	 movaps	 xmm0, xmm3
  00136	bf 10 27 00 00	 mov	 edi, 10000		; 00002710H
  0013b	f2 0f 5e c2	 divsd	 xmm0, xmm2
  0013f	8b c7		 mov	 eax, edi
  00141	2b c6		 sub	 eax, esi
  00143	66 0f 6e c8	 movd	 xmm1, eax
  00147	f3 0f e6 c9	 cvtdq2pd xmm1, xmm1
  0014b	f2 0f 59 c8	 mulsd	 xmm1, xmm0
  0014f	66 0f 6e c1	 movd	 xmm0, ecx
  00153	f3 0f e6 c0	 cvtdq2pd xmm0, xmm0
  00157	f2 0f 58 c8	 addsd	 xmm1, xmm0
  0015b	f2 0f 2c d1	 cvttsd2si edx, xmm1

; 139  : 		}

  0015f	eb 32		 jmp	 SHORT $LN30@DrawLineEx
$LN8@DrawLineEx:

; 140  : 		else if( dDY < dDX)

  00161	66 0f 2f da	 comisd	 xmm3, xmm2
  00165	76 2f		 jbe	 SHORT $LN10@DrawLineEx

; 141  : 		{
; 142  : 			ptExtEnd.x = 10000;
; 143  : 			ptExtEnd.y = int( ( dDY / dDX) * ( ptExtEnd.x - ptStart.x) + ptStart.y);

  00167	0f 28 c2	 movaps	 xmm0, xmm2
  0016a	ba 10 27 00 00	 mov	 edx, 10000		; 00002710H
  0016f	f2 0f 5e c3	 divsd	 xmm0, xmm3
  00173	8b c2		 mov	 eax, edx
  00175	2b c1		 sub	 eax, ecx
  00177	66 0f 6e c8	 movd	 xmm1, eax
  0017b	f3 0f e6 c9	 cvtdq2pd xmm1, xmm1
  0017f	f2 0f 59 c8	 mulsd	 xmm1, xmm0
  00183	66 0f 6e c6	 movd	 xmm0, esi
  00187	f3 0f e6 c0	 cvtdq2pd xmm0, xmm0
  0018b	f2 0f 58 c8	 addsd	 xmm1, xmm0
  0018f	f2 0f 2c f9	 cvttsd2si edi, xmm1
$LN30@DrawLineEx:

; 144  : 		}
; 145  : 	}
; 146  : 
; 147  : 	// 2.3.1 각이 크기를 감안하여 진행 역방향확장을 처리한다.		
; 148  : 	if(bLeft == TRUE)

  00193	89 55 0c	 mov	 DWORD PTR _ptExtEnd$2$[ebp], edx
$LN10@DrawLineEx:
  00196	83 7d 14 01	 cmp	 DWORD PTR _bLeft$[ebp], 1
  0019a	75 70		 jne	 SHORT $LN14@DrawLineEx

; 149  : 	{
; 150  : 		if( dDX < dDY)

  0019c	66 0f 2f d3	 comisd	 xmm2, xmm3
  001a0	76 33		 jbe	 SHORT $LN12@DrawLineEx

; 151  : 		{
; 152  : 			ptExtStart.y = -10000;
; 153  : 			ptExtStart.x = int( ( dDX / dDY) * ( ptExtStart.y - ptStart.y) + ptStart.x);

  001a2	f2 0f 5e da	 divsd	 xmm3, xmm2
  001a6	b8 f0 d8 ff ff	 mov	 eax, -10000		; ffffd8f0H
  001ab	c7 45 f8 f0 d8
	ff ff		 mov	 DWORD PTR _ptExtStart$1$[ebp], -10000 ; ffffd8f0H
  001b2	2b c6		 sub	 eax, esi
  001b4	66 0f 6e c1	 movd	 xmm0, ecx
  001b8	66 0f 6e c8	 movd	 xmm1, eax
  001bc	f3 0f e6 c9	 cvtdq2pd xmm1, xmm1
  001c0	f3 0f e6 c0	 cvtdq2pd xmm0, xmm0
  001c4	f2 0f 59 cb	 mulsd	 xmm1, xmm3
  001c8	f2 0f 58 c8	 addsd	 xmm1, xmm0
  001cc	f2 0f 2c c1	 cvttsd2si eax, xmm1
  001d0	89 45 10	 mov	 DWORD PTR _ptExtStart$2$[ebp], eax

; 154  : 		}

  001d3	eb 37		 jmp	 SHORT $LN14@DrawLineEx
$LN12@DrawLineEx:

; 155  : 		else if( dDY < dDX)

  001d5	66 0f 2f da	 comisd	 xmm3, xmm2
  001d9	76 31		 jbe	 SHORT $LN14@DrawLineEx

; 156  : 		{
; 157  : 			ptExtStart.x = -10000;
; 158  : 			ptExtStart.y = int( ( dDY / dDX) * ( ptExtStart.x - ptStart.x) + ptStart.y);

  001db	f2 0f 5e d3	 divsd	 xmm2, xmm3
  001df	b8 f0 d8 ff ff	 mov	 eax, -10000		; ffffd8f0H
  001e4	c7 45 10 f0 d8
	ff ff		 mov	 DWORD PTR _ptExtStart$2$[ebp], -10000 ; ffffd8f0H
  001eb	2b c1		 sub	 eax, ecx
  001ed	66 0f 6e c6	 movd	 xmm0, esi
  001f1	66 0f 6e c8	 movd	 xmm1, eax
  001f5	f3 0f e6 c9	 cvtdq2pd xmm1, xmm1
  001f9	f3 0f e6 c0	 cvtdq2pd xmm0, xmm0
  001fd	f2 0f 59 ca	 mulsd	 xmm1, xmm2
  00201	f2 0f 58 c8	 addsd	 xmm1, xmm0
  00205	f2 0f 2c c1	 cvttsd2si eax, xmm1
  00209	89 45 f8	 mov	 DWORD PTR _ptExtStart$1$[ebp], eax
$LN14@DrawLineEx:

; 159  : 		}
; 160  : 	}
; 161  : 	// 2.4 기본 방향으로 조정한다.
; 162  : 	if( bXTransformation)

  0020c	83 7d f0 00	 cmp	 DWORD PTR tv557[ebp], 0
  00210	74 0f		 je	 SHORT $LN15@DrawLineEx

; 163  : 	{
; 164  : 		dDX	= -dDX;
; 165  : 		ptEnd.x			= ptStart.x - ( int)dDX;
; 166  : 		ptExtStart.x	= ptStart.x - ( ptExtStart.x	- ptStart.x);

  00212	03 c9		 add	 ecx, ecx
  00214	8b c1		 mov	 eax, ecx
  00216	2b 45 10	 sub	 eax, DWORD PTR _ptExtStart$2$[ebp]

; 167  : 		ptExtEnd.x		= ptStart.x - ( ptExtEnd.x		- ptStart.x);

  00219	2b ca		 sub	 ecx, edx
  0021b	89 45 10	 mov	 DWORD PTR _ptExtStart$2$[ebp], eax
  0021e	89 4d 0c	 mov	 DWORD PTR _ptExtEnd$2$[ebp], ecx
$LN15@DrawLineEx:

; 168  : 	}
; 169  : 	if( bYTransformation)

  00221	83 7d f4 00	 cmp	 DWORD PTR tv576[ebp], 0
  00225	74 0e		 je	 SHORT $LN28@DrawLineEx

; 170  : 	{
; 171  : 		dDY = -dDY;
; 172  : 		ptEnd.y			= ptStart.y - ( int)dDY;
; 173  : 		ptExtStart.y	= ptStart.y - ( ptExtStart.y	- ptStart.y);

  00227	8d 0c 36	 lea	 ecx, DWORD PTR [esi+esi]
  0022a	8b c1		 mov	 eax, ecx
  0022c	2b 45 f8	 sub	 eax, DWORD PTR _ptExtStart$1$[ebp]

; 174  : 		ptExtEnd.y		= ptStart.y - ( ptExtEnd.y		- ptStart.y);

  0022f	2b cf		 sub	 ecx, edi
  00231	8b f9		 mov	 edi, ecx
  00233	eb 03		 jmp	 SHORT $LN16@DrawLineEx
$LN28@DrawLineEx:

; 168  : 	}
; 169  : 	if( bYTransformation)

  00235	8b 45 f8	 mov	 eax, DWORD PTR _ptExtStart$1$[ebp]
$LN16@DrawLineEx:
; File C:\Program Files (x86)\Microsoft Visual Studio\2019\Community\VC\Tools\MSVC\14.29.30133\atlmfc\include\afxwin1.inl

; 464  : 	{ ASSERT(m_hDC != NULL); return MoveTo(point.x, point.y); }

  00238	8b 4d 08	 mov	 ecx, DWORD PTR _pDC$[ebp]
  0023b	50		 push	 eax
  0023c	ff 75 10	 push	 DWORD PTR _ptExtStart$2$[ebp]
  0023f	8d 45 ec	 lea	 eax, DWORD PTR $T3[ebp]
  00242	50		 push	 eax
  00243	e8 00 00 00 00	 call	 ?MoveTo@CDC@@QAE?AVCPoint@@HH@Z ; CDC::MoveTo

; 466  : 	{ ASSERT(m_hDC != NULL); return LineTo(point.x, point.y); }

  00248	8b 4d 08	 mov	 ecx, DWORD PTR _pDC$[ebp]
  0024b	57		 push	 edi
  0024c	ff 75 0c	 push	 DWORD PTR _ptExtEnd$2$[ebp]
  0024f	e8 00 00 00 00	 call	 ?LineTo@CDC@@QAEHHH@Z	; CDC::LineTo
  00254	5f		 pop	 edi
  00255	5e		 pop	 esi
; File D:\git\src\IBK\IBK_DRFN\ProjSrc\SrcChartEx\ChartAddIn\ChartAnalysisToolAddIn\AnalysisTool\Drawer.cpp

; 182  : }

  00256	8b e5		 mov	 esp, ebp
  00258	5d		 pop	 ebp
  00259	c2 14 00	 ret	 20			; 00000014H
?DrawLineExt@CDrawer@@IAEXPAVCDC@@ABVCPoint@@1HH@Z ENDP	; CDrawer::DrawLineExt
_TEXT	ENDS
; Function compile flags: /Ogtp
; File D:\git\src\IBK\IBK_DRFN\ProjSrc\SrcChartEx\ChartAddIn\ChartAnalysisToolAddIn\AnalysisTool\Drawer.cpp
; File C:\Program Files (x86)\Microsoft Visual Studio\2019\Community\VC\Tools\MSVC\14.29.30133\atlmfc\include\afxwin1.inl
; File D:\git\src\IBK\IBK_DRFN\ProjSrc\SrcChartEx\ChartAddIn\ChartAnalysisToolAddIn\AnalysisTool\Drawer.cpp
; File C:\Program Files (x86)\Microsoft Visual Studio\2019\Community\VC\Tools\MSVC\14.29.30133\atlmfc\include\afxwin1.inl
; File D:\git\src\IBK\IBK_DRFN\ProjSrc\SrcChartEx\ChartAddIn\ChartAnalysisToolAddIn\AnalysisTool\Drawer.cpp
;	COMDAT ?DrawLine@CDrawer@@IAEXPAVCDC@@ABVCPoint@@1@Z
_TEXT	SEGMENT
$T1 = -8						; size = 8
_pDC$ = 8						; size = 4
_moveToPt$ = 12						; size = 4
_lineToPt$ = 16						; size = 4
?DrawLine@CDrawer@@IAEXPAVCDC@@ABVCPoint@@1@Z PROC	; CDrawer::DrawLine, COMDAT
; _this$ = ecx

; 185  : {

  00000	55		 push	 ebp
  00001	8b ec		 mov	 ebp, esp

; 186  : 	pDC->MoveTo(moveToPt);

  00003	8b 45 0c	 mov	 eax, DWORD PTR _moveToPt$[ebp]
  00006	83 ec 08	 sub	 esp, 8
; File C:\Program Files (x86)\Microsoft Visual Studio\2019\Community\VC\Tools\MSVC\14.29.30133\atlmfc\include\afxwin1.inl

; 464  : 	{ ASSERT(m_hDC != NULL); return MoveTo(point.x, point.y); }

  00009	8b 4d 08	 mov	 ecx, DWORD PTR _pDC$[ebp]
  0000c	ff 70 04	 push	 DWORD PTR [eax+4]
  0000f	ff 30		 push	 DWORD PTR [eax]
  00011	8d 45 f8	 lea	 eax, DWORD PTR $T1[ebp]
  00014	50		 push	 eax
  00015	e8 00 00 00 00	 call	 ?MoveTo@CDC@@QAE?AVCPoint@@HH@Z ; CDC::MoveTo
; File D:\git\src\IBK\IBK_DRFN\ProjSrc\SrcChartEx\ChartAddIn\ChartAnalysisToolAddIn\AnalysisTool\Drawer.cpp

; 187  : 	pDC->LineTo(lineToPt);

  0001a	8b 45 10	 mov	 eax, DWORD PTR _lineToPt$[ebp]
; File C:\Program Files (x86)\Microsoft Visual Studio\2019\Community\VC\Tools\MSVC\14.29.30133\atlmfc\include\afxwin1.inl

; 466  : 	{ ASSERT(m_hDC != NULL); return LineTo(point.x, point.y); }

  0001d	8b 4d 08	 mov	 ecx, DWORD PTR _pDC$[ebp]
  00020	ff 70 04	 push	 DWORD PTR [eax+4]
  00023	ff 30		 push	 DWORD PTR [eax]
  00025	e8 00 00 00 00	 call	 ?LineTo@CDC@@QAEHHH@Z	; CDC::LineTo
; File D:\git\src\IBK\IBK_DRFN\ProjSrc\SrcChartEx\ChartAddIn\ChartAnalysisToolAddIn\AnalysisTool\Drawer.cpp

; 188  : }

  0002a	8b e5		 mov	 esp, ebp
  0002c	5d		 pop	 ebp
  0002d	c2 0c 00	 ret	 12			; 0000000cH
?DrawLine@CDrawer@@IAEXPAVCDC@@ABVCPoint@@1@Z ENDP	; CDrawer::DrawLine
_TEXT	ENDS
; Function compile flags: /Ogtp
; File D:\git\src\IBK\IBK_DRFN\ProjSrc\SrcChartEx\ChartAddIn\ChartAnalysisToolAddIn\AnalysisTool\Drawer.cpp
; File C:\Program Files (x86)\Microsoft Visual Studio\2019\Community\VC\Tools\MSVC\14.29.30133\atlmfc\include\afxwin1.inl
; File D:\git\src\IBK\IBK_DRFN\ProjSrc\SrcChartEx\ChartAddIn\ChartAnalysisToolAddIn\AnalysisTool\Drawer.cpp
;	COMDAT ?DrawPolygonLine@CDrawer@@IAEXPAVCDC@@QAUtagPOINT@@ABH@Z
_TEXT	SEGMENT
_pDC$ = 8						; size = 4
_pPoint$ = 12						; size = 4
_nCount$ = 16						; size = 4
?DrawPolygonLine@CDrawer@@IAEXPAVCDC@@QAUtagPOINT@@ABH@Z PROC ; CDrawer::DrawPolygonLine, COMDAT
; _this$ = ecx

; 191  : {

  00000	55		 push	 ebp
  00001	8b ec		 mov	 ebp, esp
; File C:\Program Files (x86)\Microsoft Visual Studio\2019\Community\VC\Tools\MSVC\14.29.30133\atlmfc\include\afxwin1.inl

; 535  : 	{ ASSERT(m_hDC != NULL); return ::Polygon(m_hDC, lpPoints, nCount); }

  00003	8b 45 10	 mov	 eax, DWORD PTR _nCount$[ebp]
  00006	ff 30		 push	 DWORD PTR [eax]
  00008	8b 45 08	 mov	 eax, DWORD PTR _pDC$[ebp]
  0000b	ff 75 0c	 push	 DWORD PTR _pPoint$[ebp]
  0000e	ff 70 04	 push	 DWORD PTR [eax+4]
  00011	ff 15 00 00 00
	00		 call	 DWORD PTR __imp__Polygon@12
; File D:\git\src\IBK\IBK_DRFN\ProjSrc\SrcChartEx\ChartAddIn\ChartAnalysisToolAddIn\AnalysisTool\Drawer.cpp

; 193  : }

  00017	5d		 pop	 ebp
  00018	c2 0c 00	 ret	 12			; 0000000cH
?DrawPolygonLine@CDrawer@@IAEXPAVCDC@@QAUtagPOINT@@ABH@Z ENDP ; CDrawer::DrawPolygonLine
_TEXT	ENDS
; Function compile flags: /Ogtp
; File D:\git\src\IBK\IBK_DRFN\ProjSrc\SrcChartEx\ChartAddIn\ChartAnalysisToolAddIn\AnalysisTool\Drawer.cpp
;	COMDAT ?SelectOrgTextMode@CDrawer@@IAEXPAVCDC@@@Z
_TEXT	SEGMENT
_pDC$ = 8						; size = 4
?SelectOrgTextMode@CDrawer@@IAEXPAVCDC@@@Z PROC		; CDrawer::SelectOrgTextMode, COMDAT
; _this$ = ecx

; 80   : {

  00000	55		 push	 ebp
  00001	8b ec		 mov	 ebp, esp
  00003	56		 push	 esi

; 81   : 	pDC->SetROP2(m_nOrgDrawMode);

  00004	8b 75 08	 mov	 esi, DWORD PTR _pDC$[ebp]
  00007	57		 push	 edi
  00008	8b f9		 mov	 edi, ecx
  0000a	8b ce		 mov	 ecx, esi
  0000c	ff 77 08	 push	 DWORD PTR [edi+8]
  0000f	e8 00 00 00 00	 call	 ?SetROP2@CDC@@QAEHH@Z	; CDC::SetROP2

; 82   : 	pDC->SetBkMode(m_nOrgBkMode);

  00014	ff 77 0c	 push	 DWORD PTR [edi+12]
  00017	8b ce		 mov	 ecx, esi
  00019	e8 00 00 00 00	 call	 ?SetBkMode@CDC@@QAEHH@Z	; CDC::SetBkMode

; 83   : 	pDC->SetTextColor(m_orgTextColor);

  0001e	8b 06		 mov	 eax, DWORD PTR [esi]
  00020	8b ce		 mov	 ecx, esi
  00022	ff 77 10	 push	 DWORD PTR [edi+16]
  00025	ff 50 38	 call	 DWORD PTR [eax+56]
  00028	5f		 pop	 edi
  00029	5e		 pop	 esi

; 84   : }

  0002a	5d		 pop	 ebp
  0002b	c2 04 00	 ret	 4
?SelectOrgTextMode@CDrawer@@IAEXPAVCDC@@@Z ENDP		; CDrawer::SelectOrgTextMode
_TEXT	ENDS
; Function compile flags: /Ogtp
; File D:\git\src\IBK\IBK_DRFN\ProjSrc\SrcChartEx\ChartAddIn\ChartAnalysisToolAddIn\AnalysisTool\Drawer.cpp
;	COMDAT ?SelectNewTextMode@CDrawer@@IAEXPAVCDC@@ABK@Z
_TEXT	SEGMENT
_pDC$ = 8						; size = 4
_textColor$ = 12					; size = 4
?SelectNewTextMode@CDrawer@@IAEXPAVCDC@@ABK@Z PROC	; CDrawer::SelectNewTextMode, COMDAT
; _this$ = ecx

; 72   : {

  00000	55		 push	 ebp
  00001	8b ec		 mov	 ebp, esp
  00003	56		 push	 esi

; 73   : 	// text 는 항상 R2_COPYPEN 으로 한다.
; 74   : 	m_nOrgDrawMode = pDC->SetROP2(R2_COPYPEN);

  00004	8b 75 08	 mov	 esi, DWORD PTR _pDC$[ebp]
  00007	57		 push	 edi
  00008	8b f9		 mov	 edi, ecx
  0000a	8b ce		 mov	 ecx, esi
  0000c	6a 0d		 push	 13			; 0000000dH
  0000e	e8 00 00 00 00	 call	 ?SetROP2@CDC@@QAEHH@Z	; CDC::SetROP2

; 75   : 	m_nOrgBkMode = pDC->SetBkMode(TRANSPARENT);

  00013	6a 01		 push	 1
  00015	8b ce		 mov	 ecx, esi
  00017	89 47 08	 mov	 DWORD PTR [edi+8], eax
  0001a	e8 00 00 00 00	 call	 ?SetBkMode@CDC@@QAEHH@Z	; CDC::SetBkMode
  0001f	89 47 0c	 mov	 DWORD PTR [edi+12], eax

; 76   : 	m_orgTextColor = pDC->SetTextColor(textColor);

  00022	8b ce		 mov	 ecx, esi
  00024	8b 45 0c	 mov	 eax, DWORD PTR _textColor$[ebp]
  00027	8b 16		 mov	 edx, DWORD PTR [esi]
  00029	ff 30		 push	 DWORD PTR [eax]
  0002b	ff 52 38	 call	 DWORD PTR [edx+56]
  0002e	89 47 10	 mov	 DWORD PTR [edi+16], eax
  00031	5f		 pop	 edi
  00032	5e		 pop	 esi

; 77   : }

  00033	5d		 pop	 ebp
  00034	c2 08 00	 ret	 8
?SelectNewTextMode@CDrawer@@IAEXPAVCDC@@ABK@Z ENDP	; CDrawer::SelectNewTextMode
_TEXT	ENDS
; Function compile flags: /Ogtp
; File D:\git\src\IBK\IBK_DRFN\ProjSrc\SrcChartEx\ChartAddIn\ChartAnalysisToolAddIn\AnalysisTool\Drawer.cpp
;	COMDAT ?SelectOrgDrawingMode@CDrawer@@IAEXPAVCDC@@@Z
_TEXT	SEGMENT
_pDC$ = 8						; size = 4
?SelectOrgDrawingMode@CDrawer@@IAEXPAVCDC@@@Z PROC	; CDrawer::SelectOrgDrawingMode, COMDAT
; _this$ = ecx

; 66   : {

  00000	55		 push	 ebp
  00001	8b ec		 mov	 ebp, esp
  00003	57		 push	 edi
  00004	8b f9		 mov	 edi, ecx

; 56   : 	pDC->SelectClipRgn(NULL);

  00006	8b 4d 08	 mov	 ecx, DWORD PTR _pDC$[ebp]
  00009	6a 00		 push	 0
  0000b	e8 00 00 00 00	 call	 ?SelectClipRgn@CDC@@QAEHPAVCRgn@@@Z ; CDC::SelectClipRgn

; 67   : 	SelectClipRegion(pDC);
; 68   : 	pDC->SetROP2(m_nOrgDrawMode);

  00010	ff 77 08	 push	 DWORD PTR [edi+8]
  00013	8b 4d 08	 mov	 ecx, DWORD PTR _pDC$[ebp]
  00016	e8 00 00 00 00	 call	 ?SetROP2@CDC@@QAEHH@Z	; CDC::SetROP2
  0001b	5f		 pop	 edi

; 69   : }

  0001c	5d		 pop	 ebp
  0001d	c2 04 00	 ret	 4
?SelectOrgDrawingMode@CDrawer@@IAEXPAVCDC@@@Z ENDP	; CDrawer::SelectOrgDrawingMode
_TEXT	ENDS
; Function compile flags: /Ogtp
; File D:\git\src\IBK\IBK_DRFN\ProjSrc\SrcChartEx\ChartAddIn\ChartAnalysisToolAddIn\AnalysisTool\Drawer.cpp
; File C:\Program Files (x86)\Microsoft Visual Studio\2019\Community\VC\Tools\MSVC\14.29.30133\atlmfc\include\afxwin1.inl
; File D:\git\src\IBK\IBK_DRFN\ProjSrc\SrcChartEx\ChartAddIn\ChartAnalysisToolAddIn\AnalysisTool\Drawer.cpp
; File C:\Program Files (x86)\Microsoft Visual Studio\2019\Community\VC\Tools\MSVC\14.29.30133\atlmfc\include\afxwin1.inl
; File D:\git\src\IBK\IBK_DRFN\ProjSrc\SrcChartEx\ChartAddIn\ChartAnalysisToolAddIn\AnalysisTool\Drawer.cpp
; File C:\Program Files (x86)\Microsoft Visual Studio\2019\Community\VC\Tools\MSVC\14.29.30133\atlmfc\include\afxwin1.inl
; File D:\git\src\IBK\IBK_DRFN\ProjSrc\SrcChartEx\ChartAddIn\ChartAnalysisToolAddIn\AnalysisTool\Drawer.cpp
; File C:\Program Files (x86)\Microsoft Visual Studio\2019\Community\VC\Tools\MSVC\14.29.30133\atlmfc\include\afxwin1.inl
; File D:\git\src\IBK\IBK_DRFN\ProjSrc\SrcChartEx\ChartAddIn\ChartAnalysisToolAddIn\AnalysisTool\Drawer.cpp
;	COMDAT ?SelectNewDrawingMode@CDrawer@@IAEXPAVCDC@@ABVCRect@@H@Z
_TEXT	SEGMENT
_rgn$2 = -20						; size = 8
__$EHRec$ = -12						; size = 12
_pDC$ = 8						; size = 4
_rect$ = 12						; size = 4
_nDrawMode$ = 16					; size = 4
?SelectNewDrawingMode@CDrawer@@IAEXPAVCDC@@ABVCRect@@H@Z PROC ; CDrawer::SelectNewDrawingMode, COMDAT
; _this$ = ecx

; 60   : {

  00000	55		 push	 ebp
  00001	8b ec		 mov	 ebp, esp
  00003	6a ff		 push	 -1
  00005	68 00 00 00 00	 push	 __ehhandler$?SelectNewDrawingMode@CDrawer@@IAEXPAVCDC@@ABVCRect@@H@Z
  0000a	64 a1 00 00 00
	00		 mov	 eax, DWORD PTR fs:0
  00010	50		 push	 eax
  00011	83 ec 08	 sub	 esp, 8
  00014	57		 push	 edi
  00015	a1 00 00 00 00	 mov	 eax, DWORD PTR ___security_cookie
  0001a	33 c5		 xor	 eax, ebp
  0001c	50		 push	 eax
  0001d	8d 45 f4	 lea	 eax, DWORD PTR __$EHRec$[ebp]
  00020	64 a3 00 00 00
	00		 mov	 DWORD PTR fs:0, eax
  00026	8b f9		 mov	 edi, ecx
; File C:\Program Files (x86)\Microsoft Visual Studio\2019\Community\VC\Tools\MSVC\14.29.30133\atlmfc\include\afxwin1.inl

; 70   : 	{ m_hObject = NULL; }

  00028	c7 45 f0 00 00
	00 00		 mov	 DWORD PTR _rgn$2[ebp+4], 0

; 264  : 	{ }

  0002f	c7 45 ec 00 00
	00 00		 mov	 DWORD PTR _rgn$2[ebp], OFFSET ??_7CRgn@@6B@
; File D:\git\src\IBK\IBK_DRFN\ProjSrc\SrcChartEx\ChartAddIn\ChartAnalysisToolAddIn\AnalysisTool\Drawer.cpp

; 49   : 	rgn.CreateRectRgn((int)rect.left, (int)rect.top, (int)rect.right, (int)rect.bottom+1);

  00036	8b 45 0c	 mov	 eax, DWORD PTR _rect$[ebp]
  00039	c7 45 fc 00 00
	00 00		 mov	 DWORD PTR __$EHRec$[ebp+8], 0
  00040	8b 50 0c	 mov	 edx, DWORD PTR [eax+12]
  00043	42		 inc	 edx
; File C:\Program Files (x86)\Microsoft Visual Studio\2019\Community\VC\Tools\MSVC\14.29.30133\atlmfc\include\afxwin1.inl

; 268  : 	{ return Attach(::CreateRectRgn(x1, y1, x2, y2)); }

  00044	52		 push	 edx
  00045	ff 70 08	 push	 DWORD PTR [eax+8]
  00048	ff 70 04	 push	 DWORD PTR [eax+4]
  0004b	ff 30		 push	 DWORD PTR [eax]
  0004d	ff 15 00 00 00
	00		 call	 DWORD PTR __imp__CreateRectRgn@16
  00053	50		 push	 eax
  00054	8d 4d ec	 lea	 ecx, DWORD PTR _rgn$2[ebp]
  00057	e8 00 00 00 00	 call	 ?Attach@CGdiObject@@QAEHPAX@Z ; CGdiObject::Attach
; File D:\git\src\IBK\IBK_DRFN\ProjSrc\SrcChartEx\ChartAddIn\ChartAnalysisToolAddIn\AnalysisTool\Drawer.cpp

; 50   : 	pDC->SelectClipRgn(&rgn);

  0005c	8b 4d 08	 mov	 ecx, DWORD PTR _pDC$[ebp]
  0005f	8d 45 ec	 lea	 eax, DWORD PTR _rgn$2[ebp]
  00062	50		 push	 eax
  00063	e8 00 00 00 00	 call	 ?SelectClipRgn@CDC@@QAEHPAVCRgn@@@Z ; CDC::SelectClipRgn
; File C:\Program Files (x86)\Microsoft Visual Studio\2019\Community\VC\Tools\MSVC\14.29.30133\atlmfc\include\afxwin1.inl

; 266  : 	{ }

  00068	8d 4d ec	 lea	 ecx, DWORD PTR _rgn$2[ebp]
; File D:\git\src\IBK\IBK_DRFN\ProjSrc\SrcChartEx\ChartAddIn\ChartAnalysisToolAddIn\AnalysisTool\Drawer.cpp

; 51   : }

  0006b	c7 45 fc ff ff
	ff ff		 mov	 DWORD PTR __$EHRec$[ebp+8], -1
; File C:\Program Files (x86)\Microsoft Visual Studio\2019\Community\VC\Tools\MSVC\14.29.30133\atlmfc\include\afxwin1.inl

; 266  : 	{ }

  00072	c7 45 ec 00 00
	00 00		 mov	 DWORD PTR _rgn$2[ebp], OFFSET ??_7CRgn@@6B@
  00079	e8 00 00 00 00	 call	 ??1CGdiObject@@UAE@XZ	; CGdiObject::~CGdiObject
; File D:\git\src\IBK\IBK_DRFN\ProjSrc\SrcChartEx\ChartAddIn\ChartAnalysisToolAddIn\AnalysisTool\Drawer.cpp

; 62   : 	m_nOrgDrawMode = pDC->SetROP2(nDrawMode);

  0007e	ff 75 10	 push	 DWORD PTR _nDrawMode$[ebp]
  00081	8b 4d 08	 mov	 ecx, DWORD PTR _pDC$[ebp]
  00084	e8 00 00 00 00	 call	 ?SetROP2@CDC@@QAEHH@Z	; CDC::SetROP2
  00089	89 47 08	 mov	 DWORD PTR [edi+8], eax

; 63   : }

  0008c	8b 4d f4	 mov	 ecx, DWORD PTR __$EHRec$[ebp]
  0008f	64 89 0d 00 00
	00 00		 mov	 DWORD PTR fs:0, ecx
  00096	59		 pop	 ecx
  00097	5f		 pop	 edi
  00098	8b e5		 mov	 esp, ebp
  0009a	5d		 pop	 ebp
  0009b	c2 0c 00	 ret	 12			; 0000000cH
_TEXT	ENDS
;	COMDAT text$x
text$x	SEGMENT
__unwindfunclet$?SelectNewDrawingMode@CDrawer@@IAEXPAVCDC@@ABVCRect@@H@Z$0:
  00000	8d 4d ec	 lea	 ecx, DWORD PTR _rgn$2[ebp]
  00003	e9 00 00 00 00	 jmp	 ??1CRgn@@UAE@XZ		; CRgn::~CRgn
  00008	cc		 int	 3
  00009	cc		 int	 3
  0000a	cc		 int	 3
  0000b	cc		 int	 3
  0000c	cc		 int	 3
__ehhandler$?SelectNewDrawingMode@CDrawer@@IAEXPAVCDC@@ABVCRect@@H@Z:
  0000d	90		 npad	 1
  0000e	90		 npad	 1
  0000f	8b 54 24 08	 mov	 edx, DWORD PTR [esp+8]
  00013	8d 42 0c	 lea	 eax, DWORD PTR [edx+12]
  00016	8b 4a f0	 mov	 ecx, DWORD PTR [edx-16]
  00019	33 c8		 xor	 ecx, eax
  0001b	e8 00 00 00 00	 call	 @__security_check_cookie@4
  00020	b8 00 00 00 00	 mov	 eax, OFFSET __ehfuncinfo$?SelectNewDrawingMode@CDrawer@@IAEXPAVCDC@@ABVCRect@@H@Z
  00025	e9 00 00 00 00	 jmp	 ___CxxFrameHandler3
text$x	ENDS
?SelectNewDrawingMode@CDrawer@@IAEXPAVCDC@@ABVCRect@@H@Z ENDP ; CDrawer::SelectNewDrawingMode
; Function compile flags: /Ogtp
; File D:\git\src\IBK\IBK_DRFN\ProjSrc\SrcChartEx\ChartAddIn\ChartAnalysisToolAddIn\AnalysisTool\Drawer.cpp
;	COMDAT ?SelectClipRegion@CDrawer@@IAEXPAVCDC@@@Z
_TEXT	SEGMENT
_pDC$ = 8						; size = 4
?SelectClipRegion@CDrawer@@IAEXPAVCDC@@@Z PROC		; CDrawer::SelectClipRegion, COMDAT
; _this$ = ecx

; 55   : {

  00000	55		 push	 ebp
  00001	8b ec		 mov	 ebp, esp

; 56   : 	pDC->SelectClipRgn(NULL);

  00003	8b 4d 08	 mov	 ecx, DWORD PTR _pDC$[ebp]
  00006	6a 00		 push	 0
  00008	e8 00 00 00 00	 call	 ?SelectClipRgn@CDC@@QAEHPAVCRgn@@@Z ; CDC::SelectClipRgn

; 57   : }

  0000d	5d		 pop	 ebp
  0000e	c2 04 00	 ret	 4
?SelectClipRegion@CDrawer@@IAEXPAVCDC@@@Z ENDP		; CDrawer::SelectClipRegion
_TEXT	ENDS
; Function compile flags: /Ogtp
; File D:\git\src\IBK\IBK_DRFN\ProjSrc\SrcChartEx\ChartAddIn\ChartAnalysisToolAddIn\AnalysisTool\Drawer.cpp
; File C:\Program Files (x86)\Microsoft Visual Studio\2019\Community\VC\Tools\MSVC\14.29.30133\atlmfc\include\afxwin1.inl
; File D:\git\src\IBK\IBK_DRFN\ProjSrc\SrcChartEx\ChartAddIn\ChartAnalysisToolAddIn\AnalysisTool\Drawer.cpp
; File C:\Program Files (x86)\Microsoft Visual Studio\2019\Community\VC\Tools\MSVC\14.29.30133\atlmfc\include\afxwin1.inl
; File D:\git\src\IBK\IBK_DRFN\ProjSrc\SrcChartEx\ChartAddIn\ChartAnalysisToolAddIn\AnalysisTool\Drawer.cpp
; File C:\Program Files (x86)\Microsoft Visual Studio\2019\Community\VC\Tools\MSVC\14.29.30133\atlmfc\include\afxwin1.inl
; File D:\git\src\IBK\IBK_DRFN\ProjSrc\SrcChartEx\ChartAddIn\ChartAnalysisToolAddIn\AnalysisTool\Drawer.cpp
;	COMDAT ?SelectClipRegion@CDrawer@@IAEXPAVCDC@@ABVCRect@@@Z
_TEXT	SEGMENT
_rgn$ = -20						; size = 8
__$EHRec$ = -12						; size = 12
_pDC$ = 8						; size = 4
_rect$ = 12						; size = 4
?SelectClipRegion@CDrawer@@IAEXPAVCDC@@ABVCRect@@@Z PROC ; CDrawer::SelectClipRegion, COMDAT
; _this$ = ecx

; 47   : {

  00000	55		 push	 ebp
  00001	8b ec		 mov	 ebp, esp
  00003	6a ff		 push	 -1
  00005	68 00 00 00 00	 push	 __ehhandler$?SelectClipRegion@CDrawer@@IAEXPAVCDC@@ABVCRect@@@Z
  0000a	64 a1 00 00 00
	00		 mov	 eax, DWORD PTR fs:0
  00010	50		 push	 eax
  00011	83 ec 08	 sub	 esp, 8
  00014	a1 00 00 00 00	 mov	 eax, DWORD PTR ___security_cookie
  00019	33 c5		 xor	 eax, ebp
  0001b	50		 push	 eax
  0001c	8d 45 f4	 lea	 eax, DWORD PTR __$EHRec$[ebp]
  0001f	64 a3 00 00 00
	00		 mov	 DWORD PTR fs:0, eax
; File C:\Program Files (x86)\Microsoft Visual Studio\2019\Community\VC\Tools\MSVC\14.29.30133\atlmfc\include\afxwin1.inl

; 70   : 	{ m_hObject = NULL; }

  00025	c7 45 f0 00 00
	00 00		 mov	 DWORD PTR _rgn$[ebp+4], 0

; 264  : 	{ }

  0002c	c7 45 ec 00 00
	00 00		 mov	 DWORD PTR _rgn$[ebp], OFFSET ??_7CRgn@@6B@
; File D:\git\src\IBK\IBK_DRFN\ProjSrc\SrcChartEx\ChartAddIn\ChartAnalysisToolAddIn\AnalysisTool\Drawer.cpp

; 49   : 	rgn.CreateRectRgn((int)rect.left, (int)rect.top, (int)rect.right, (int)rect.bottom+1);

  00033	8b 45 0c	 mov	 eax, DWORD PTR _rect$[ebp]
  00036	c7 45 fc 00 00
	00 00		 mov	 DWORD PTR __$EHRec$[ebp+8], 0
  0003d	8b 48 0c	 mov	 ecx, DWORD PTR [eax+12]
  00040	41		 inc	 ecx
; File C:\Program Files (x86)\Microsoft Visual Studio\2019\Community\VC\Tools\MSVC\14.29.30133\atlmfc\include\afxwin1.inl

; 268  : 	{ return Attach(::CreateRectRgn(x1, y1, x2, y2)); }

  00041	51		 push	 ecx
  00042	ff 70 08	 push	 DWORD PTR [eax+8]
  00045	ff 70 04	 push	 DWORD PTR [eax+4]
  00048	ff 30		 push	 DWORD PTR [eax]
  0004a	ff 15 00 00 00
	00		 call	 DWORD PTR __imp__CreateRectRgn@16
  00050	50		 push	 eax
  00051	8d 4d ec	 lea	 ecx, DWORD PTR _rgn$[ebp]
  00054	e8 00 00 00 00	 call	 ?Attach@CGdiObject@@QAEHPAX@Z ; CGdiObject::Attach
; File D:\git\src\IBK\IBK_DRFN\ProjSrc\SrcChartEx\ChartAddIn\ChartAnalysisToolAddIn\AnalysisTool\Drawer.cpp

; 50   : 	pDC->SelectClipRgn(&rgn);

  00059	8b 4d 08	 mov	 ecx, DWORD PTR _pDC$[ebp]
  0005c	8d 45 ec	 lea	 eax, DWORD PTR _rgn$[ebp]
  0005f	50		 push	 eax
  00060	e8 00 00 00 00	 call	 ?SelectClipRgn@CDC@@QAEHPAVCRgn@@@Z ; CDC::SelectClipRgn
; File C:\Program Files (x86)\Microsoft Visual Studio\2019\Community\VC\Tools\MSVC\14.29.30133\atlmfc\include\afxwin1.inl

; 266  : 	{ }

  00065	8d 4d ec	 lea	 ecx, DWORD PTR _rgn$[ebp]
  00068	c7 45 ec 00 00
	00 00		 mov	 DWORD PTR _rgn$[ebp], OFFSET ??_7CRgn@@6B@
  0006f	e8 00 00 00 00	 call	 ??1CGdiObject@@UAE@XZ	; CGdiObject::~CGdiObject
; File D:\git\src\IBK\IBK_DRFN\ProjSrc\SrcChartEx\ChartAddIn\ChartAnalysisToolAddIn\AnalysisTool\Drawer.cpp

; 51   : }

  00074	8b 4d f4	 mov	 ecx, DWORD PTR __$EHRec$[ebp]
  00077	64 89 0d 00 00
	00 00		 mov	 DWORD PTR fs:0, ecx
  0007e	59		 pop	 ecx
  0007f	8b e5		 mov	 esp, ebp
  00081	5d		 pop	 ebp
  00082	c2 08 00	 ret	 8
_TEXT	ENDS
;	COMDAT text$x
text$x	SEGMENT
__unwindfunclet$?SelectClipRegion@CDrawer@@IAEXPAVCDC@@ABVCRect@@@Z$0:
  00000	8d 4d ec	 lea	 ecx, DWORD PTR _rgn$[ebp]
  00003	e9 00 00 00 00	 jmp	 ??1CRgn@@UAE@XZ		; CRgn::~CRgn
  00008	cc		 int	 3
  00009	cc		 int	 3
  0000a	cc		 int	 3
  0000b	cc		 int	 3
  0000c	cc		 int	 3
__ehhandler$?SelectClipRegion@CDrawer@@IAEXPAVCDC@@ABVCRect@@@Z:
  0000d	90		 npad	 1
  0000e	90		 npad	 1
  0000f	8b 54 24 08	 mov	 edx, DWORD PTR [esp+8]
  00013	8d 42 0c	 lea	 eax, DWORD PTR [edx+12]
  00016	8b 4a f4	 mov	 ecx, DWORD PTR [edx-12]
  00019	33 c8		 xor	 ecx, eax
  0001b	e8 00 00 00 00	 call	 @__security_check_cookie@4
  00020	b8 00 00 00 00	 mov	 eax, OFFSET __ehfuncinfo$?SelectClipRegion@CDrawer@@IAEXPAVCDC@@ABVCRect@@@Z
  00025	e9 00 00 00 00	 jmp	 ___CxxFrameHandler3
text$x	ENDS
?SelectClipRegion@CDrawer@@IAEXPAVCDC@@ABVCRect@@@Z ENDP ; CDrawer::SelectClipRegion
; Function compile flags: /Ogtp
; File D:\git\src\IBK\IBK_DRFN\ProjSrc\SrcChartEx\ChartAddIn\ChartAnalysisToolAddIn\AnalysisTool\Drawer.cpp
; File C:\Program Files (x86)\Microsoft Visual Studio\2019\Community\VC\Tools\MSVC\14.29.30133\atlmfc\include\afxwin1.inl
; File D:\git\src\IBK\IBK_DRFN\ProjSrc\SrcChartEx\ChartAddIn\ChartAnalysisToolAddIn\AnalysisTool\Drawer.cpp
;	COMDAT ?DrawRectangle@CDrawer@@QAEXPAVCDC@@ABVCRect@@@Z
_TEXT	SEGMENT
_pDC$ = 8						; size = 4
_region$ = 12						; size = 4
?DrawRectangle@CDrawer@@QAEXPAVCDC@@ABVCRect@@@Z PROC	; CDrawer::DrawRectangle, COMDAT
; _this$ = ecx

; 40   : {

  00000	55		 push	 ebp
  00001	8b ec		 mov	 ebp, esp
; File C:\Program Files (x86)\Microsoft Visual Studio\2019\Community\VC\Tools\MSVC\14.29.30133\atlmfc\include\afxwin1.inl

; 541  : 	{ ASSERT(m_hDC != NULL); return ::Rectangle(m_hDC, lpRect->left, lpRect->top,

  00003	8b 45 0c	 mov	 eax, DWORD PTR _region$[ebp]
  00006	ff 70 0c	 push	 DWORD PTR [eax+12]
  00009	ff 70 08	 push	 DWORD PTR [eax+8]
  0000c	ff 70 04	 push	 DWORD PTR [eax+4]
  0000f	ff 30		 push	 DWORD PTR [eax]
  00011	8b 45 08	 mov	 eax, DWORD PTR _pDC$[ebp]
  00014	ff 70 04	 push	 DWORD PTR [eax+4]
  00017	ff 15 00 00 00
	00		 call	 DWORD PTR __imp__Rectangle@20
; File D:\git\src\IBK\IBK_DRFN\ProjSrc\SrcChartEx\ChartAddIn\ChartAnalysisToolAddIn\AnalysisTool\Drawer.cpp

; 42   : }

  0001d	5d		 pop	 ebp
  0001e	c2 08 00	 ret	 8
?DrawRectangle@CDrawer@@QAEXPAVCDC@@ABVCRect@@@Z ENDP	; CDrawer::DrawRectangle
_TEXT	ENDS
; Function compile flags: /Ogtp
; File D:\git\src\IBK\IBK_DRFN\ProjSrc\SrcChartEx\ChartAddIn\ChartAnalysisToolAddIn\AnalysisTool\Drawer.cpp
;	COMDAT ?SetGripBrushColor@CDrawer@@QAEXABK@Z
_TEXT	SEGMENT
_color$ = 8						; size = 4
?SetGripBrushColor@CDrawer@@QAEXABK@Z PROC		; CDrawer::SetGripBrushColor, COMDAT
; _this$ = ecx

; 35   : {

  00000	55		 push	 ebp
  00001	8b ec		 mov	 ebp, esp

; 36   : 	m_gripBrushColor = color;

  00003	8b 45 08	 mov	 eax, DWORD PTR _color$[ebp]
  00006	8b 00		 mov	 eax, DWORD PTR [eax]
  00008	89 41 04	 mov	 DWORD PTR [ecx+4], eax

; 37   : }

  0000b	5d		 pop	 ebp
  0000c	c2 04 00	 ret	 4
?SetGripBrushColor@CDrawer@@QAEXABK@Z ENDP		; CDrawer::SetGripBrushColor
_TEXT	ENDS
; Function compile flags: /Ogtp
; File D:\git\src\IBK\IBK_DRFN\ProjSrc\SrcChartEx\ChartAddIn\ChartAnalysisToolAddIn\AnalysisTool\Drawer.cpp
;	COMDAT ??0CDrawer@@QAE@XZ
_TEXT	SEGMENT
??0CDrawer@@QAE@XZ PROC					; CDrawer::CDrawer, COMDAT
; _this$ = ecx

; 24   : 	nGripSize(4),

  00000	c7 01 04 00 00
	00		 mov	 DWORD PTR [ecx], 4

; 30   : }

  00006	8b c1		 mov	 eax, ecx
  00008	c7 41 04 ff ff
	ff 00		 mov	 DWORD PTR [ecx+4], 16777215 ; 00ffffffH
  0000f	c7 41 08 0d 00
	00 00		 mov	 DWORD PTR [ecx+8], 13	; 0000000dH
  00016	c7 41 0c 01 00
	00 00		 mov	 DWORD PTR [ecx+12], 1
  0001d	c7 41 10 00 00
	00 00		 mov	 DWORD PTR [ecx+16], 0
  00024	c3		 ret	 0
??0CDrawer@@QAE@XZ ENDP					; CDrawer::CDrawer
_TEXT	ENDS
; Function compile flags: /Ogtp
; File C:\Program Files (x86)\Microsoft Visual Studio\2019\Community\VC\Tools\MSVC\14.29.30133\atlmfc\include\afxwin1.inl
; File C:\Program Files (x86)\Microsoft Visual Studio\2019\Community\VC\Tools\MSVC\14.29.30133\atlmfc\include\afx.inl
;	COMDAT ??_GCRgn@@UAEPAXI@Z
_TEXT	SEGMENT
___flags$ = 8						; size = 4
??_GCRgn@@UAEPAXI@Z PROC				; CRgn::`scalar deleting destructor', COMDAT
; _this$ = ecx
  00000	55		 push	 ebp
  00001	8b ec		 mov	 ebp, esp
; File C:\Program Files (x86)\Microsoft Visual Studio\2019\Community\VC\Tools\MSVC\14.29.30133\atlmfc\include\afxwin1.inl

; 266  : 	{ }

  00003	56		 push	 esi
  00004	8b f1		 mov	 esi, ecx
  00006	c7 06 00 00 00
	00		 mov	 DWORD PTR [esi], OFFSET ??_7CRgn@@6B@
  0000c	e8 00 00 00 00	 call	 ??1CGdiObject@@UAE@XZ	; CGdiObject::~CGdiObject
  00011	8b 45 08	 mov	 eax, DWORD PTR ___flags$[ebp]
  00014	a8 01		 test	 al, 1
  00016	74 1f		 je	 SHORT $LN12@scalar
  00018	a8 04		 test	 al, 4
  0001a	75 10		 jne	 SHORT $LN3@scalar
; File C:\Program Files (x86)\Microsoft Visual Studio\2019\Community\VC\Tools\MSVC\14.29.30133\atlmfc\include\afx.inl

; 112  : 	{ ::operator delete(p); }

  0001c	56		 push	 esi
  0001d	e8 00 00 00 00	 call	 ??3@YAXPAX@Z		; operator delete
  00022	83 c4 04	 add	 esp, 4
  00025	8b c6		 mov	 eax, esi
  00027	5e		 pop	 esi
  00028	5d		 pop	 ebp
  00029	c2 04 00	 ret	 4
$LN3@scalar:
  0002c	6a 08		 push	 8
  0002e	56		 push	 esi
  0002f	e8 00 00 00 00	 call	 ?__global_delete@@YAXPAXI@Z ; __global_delete
  00034	83 c4 08	 add	 esp, 8
$LN12@scalar:
  00037	8b c6		 mov	 eax, esi
  00039	5e		 pop	 esi
  0003a	5d		 pop	 ebp
  0003b	c2 04 00	 ret	 4
??_GCRgn@@UAEPAXI@Z ENDP				; CRgn::`scalar deleting destructor'
_TEXT	ENDS
; Function compile flags: /Ogtp
; File C:\Program Files (x86)\Microsoft Visual Studio\2019\Community\VC\Tools\MSVC\14.29.30133\atlmfc\include\afxwin1.inl
;	COMDAT ??1CRgn@@UAE@XZ
_TEXT	SEGMENT
??1CRgn@@UAE@XZ PROC					; CRgn::~CRgn, COMDAT
; _this$ = ecx

; 266  : 	{ }

  00000	c7 01 00 00 00
	00		 mov	 DWORD PTR [ecx], OFFSET ??_7CRgn@@6B@
  00006	e9 00 00 00 00	 jmp	 ??1CGdiObject@@UAE@XZ	; CGdiObject::~CGdiObject
??1CRgn@@UAE@XZ ENDP					; CRgn::~CRgn
_TEXT	ENDS
; Function compile flags: /Ogtp
; File C:\Program Files (x86)\Microsoft Visual Studio\2019\Community\VC\Tools\MSVC\14.29.30133\atlmfc\include\afxwin1.inl
; File C:\Program Files (x86)\Microsoft Visual Studio\2019\Community\VC\Tools\MSVC\14.29.30133\atlmfc\include\afx.inl
;	COMDAT ??_GCBrush@@UAEPAXI@Z
_TEXT	SEGMENT
___flags$ = 8						; size = 4
??_GCBrush@@UAEPAXI@Z PROC				; CBrush::`scalar deleting destructor', COMDAT
; _this$ = ecx
  00000	55		 push	 ebp
  00001	8b ec		 mov	 ebp, esp
; File C:\Program Files (x86)\Microsoft Visual Studio\2019\Community\VC\Tools\MSVC\14.29.30133\atlmfc\include\afxwin1.inl

; 130  : 	{ }

  00003	56		 push	 esi
  00004	8b f1		 mov	 esi, ecx
  00006	c7 06 00 00 00
	00		 mov	 DWORD PTR [esi], OFFSET ??_7CBrush@@6B@
  0000c	e8 00 00 00 00	 call	 ??1CGdiObject@@UAE@XZ	; CGdiObject::~CGdiObject
  00011	8b 45 08	 mov	 eax, DWORD PTR ___flags$[ebp]
  00014	a8 01		 test	 al, 1
  00016	74 1f		 je	 SHORT $LN12@scalar
  00018	a8 04		 test	 al, 4
  0001a	75 10		 jne	 SHORT $LN3@scalar
; File C:\Program Files (x86)\Microsoft Visual Studio\2019\Community\VC\Tools\MSVC\14.29.30133\atlmfc\include\afx.inl

; 112  : 	{ ::operator delete(p); }

  0001c	56		 push	 esi
  0001d	e8 00 00 00 00	 call	 ??3@YAXPAX@Z		; operator delete
  00022	83 c4 04	 add	 esp, 4
  00025	8b c6		 mov	 eax, esi
  00027	5e		 pop	 esi
  00028	5d		 pop	 ebp
  00029	c2 04 00	 ret	 4
$LN3@scalar:
  0002c	6a 08		 push	 8
  0002e	56		 push	 esi
  0002f	e8 00 00 00 00	 call	 ?__global_delete@@YAXPAXI@Z ; __global_delete
  00034	83 c4 08	 add	 esp, 8
$LN12@scalar:
  00037	8b c6		 mov	 eax, esi
  00039	5e		 pop	 esi
  0003a	5d		 pop	 ebp
  0003b	c2 04 00	 ret	 4
??_GCBrush@@UAEPAXI@Z ENDP				; CBrush::`scalar deleting destructor'
_TEXT	ENDS
; Function compile flags: /Ogtp
; File C:\Program Files (x86)\Microsoft Visual Studio\2019\Community\VC\Tools\MSVC\14.29.30133\atlmfc\include\afxwin1.inl
;	COMDAT ??1CBrush@@UAE@XZ
_TEXT	SEGMENT
??1CBrush@@UAE@XZ PROC					; CBrush::~CBrush, COMDAT
; _this$ = ecx

; 130  : 	{ }

  00000	c7 01 00 00 00
	00		 mov	 DWORD PTR [ecx], OFFSET ??_7CBrush@@6B@
  00006	e9 00 00 00 00	 jmp	 ??1CGdiObject@@UAE@XZ	; CGdiObject::~CGdiObject
??1CBrush@@UAE@XZ ENDP					; CBrush::~CBrush
_TEXT	ENDS
; Function compile flags: /Ogtp
; File C:\Program Files (x86)\Microsoft Visual Studio\2019\Community\VC\Tools\MSVC\14.29.30133\atlmfc\include\afxwin1.inl
; File C:\Program Files (x86)\Microsoft Visual Studio\2019\Community\VC\Tools\MSVC\14.29.30133\atlmfc\include\afx.inl
;	COMDAT ??_GCPen@@UAEPAXI@Z
_TEXT	SEGMENT
___flags$ = 8						; size = 4
??_GCPen@@UAEPAXI@Z PROC				; CPen::`scalar deleting destructor', COMDAT
; _this$ = ecx
  00000	55		 push	 ebp
  00001	8b ec		 mov	 ebp, esp
; File C:\Program Files (x86)\Microsoft Visual Studio\2019\Community\VC\Tools\MSVC\14.29.30133\atlmfc\include\afxwin1.inl

; 106  : 	{ }

  00003	56		 push	 esi
  00004	8b f1		 mov	 esi, ecx
  00006	c7 06 00 00 00
	00		 mov	 DWORD PTR [esi], OFFSET ??_7CPen@@6B@
  0000c	e8 00 00 00 00	 call	 ??1CGdiObject@@UAE@XZ	; CGdiObject::~CGdiObject
  00011	8b 45 08	 mov	 eax, DWORD PTR ___flags$[ebp]
  00014	a8 01		 test	 al, 1
  00016	74 1f		 je	 SHORT $LN12@scalar
  00018	a8 04		 test	 al, 4
  0001a	75 10		 jne	 SHORT $LN3@scalar
; File C:\Program Files (x86)\Microsoft Visual Studio\2019\Community\VC\Tools\MSVC\14.29.30133\atlmfc\include\afx.inl

; 112  : 	{ ::operator delete(p); }

  0001c	56		 push	 esi
  0001d	e8 00 00 00 00	 call	 ??3@YAXPAX@Z		; operator delete
  00022	83 c4 04	 add	 esp, 4
  00025	8b c6		 mov	 eax, esi
  00027	5e		 pop	 esi
  00028	5d		 pop	 ebp
  00029	c2 04 00	 ret	 4
$LN3@scalar:
  0002c	6a 08		 push	 8
  0002e	56		 push	 esi
  0002f	e8 00 00 00 00	 call	 ?__global_delete@@YAXPAXI@Z ; __global_delete
  00034	83 c4 08	 add	 esp, 8
$LN12@scalar:
  00037	8b c6		 mov	 eax, esi
  00039	5e		 pop	 esi
  0003a	5d		 pop	 ebp
  0003b	c2 04 00	 ret	 4
??_GCPen@@UAEPAXI@Z ENDP				; CPen::`scalar deleting destructor'
_TEXT	ENDS
; Function compile flags: /Ogtp
; File C:\Program Files (x86)\Microsoft Visual Studio\2019\Community\VC\Tools\MSVC\14.29.30133\atlmfc\include\afxwin1.inl
;	COMDAT ??1CPen@@UAE@XZ
_TEXT	SEGMENT
??1CPen@@UAE@XZ PROC					; CPen::~CPen, COMDAT
; _this$ = ecx

; 106  : 	{ }

  00000	c7 01 00 00 00
	00		 mov	 DWORD PTR [ecx], OFFSET ??_7CPen@@6B@
  00006	e9 00 00 00 00	 jmp	 ??1CGdiObject@@UAE@XZ	; CGdiObject::~CGdiObject
??1CPen@@UAE@XZ ENDP					; CPen::~CPen
_TEXT	ENDS
; Function compile flags: /Ogtp
; File C:\Program Files (x86)\Microsoft Visual Studio\2019\Community\VC\Tools\MSVC\14.29.30133\atlmfc\include\afx.inl
;	COMDAT ??_GCGdiObject@@UAEPAXI@Z
_TEXT	SEGMENT
___flags$ = 8						; size = 4
??_GCGdiObject@@UAEPAXI@Z PROC				; CGdiObject::`scalar deleting destructor', COMDAT
; _this$ = ecx
  00000	55		 push	 ebp
  00001	8b ec		 mov	 ebp, esp
  00003	56		 push	 esi
  00004	8b f1		 mov	 esi, ecx
  00006	e8 00 00 00 00	 call	 ??1CGdiObject@@UAE@XZ	; CGdiObject::~CGdiObject
  0000b	8b 45 08	 mov	 eax, DWORD PTR ___flags$[ebp]
  0000e	a8 01		 test	 al, 1
  00010	74 1f		 je	 SHORT $LN9@scalar
  00012	a8 04		 test	 al, 4
  00014	75 10		 jne	 SHORT $LN3@scalar

; 112  : 	{ ::operator delete(p); }

  00016	56		 push	 esi
  00017	e8 00 00 00 00	 call	 ??3@YAXPAX@Z		; operator delete
  0001c	83 c4 04	 add	 esp, 4
  0001f	8b c6		 mov	 eax, esi
  00021	5e		 pop	 esi
  00022	5d		 pop	 ebp
  00023	c2 04 00	 ret	 4
$LN3@scalar:
  00026	6a 08		 push	 8
  00028	56		 push	 esi
  00029	e8 00 00 00 00	 call	 ?__global_delete@@YAXPAXI@Z ; __global_delete
  0002e	83 c4 08	 add	 esp, 8
$LN9@scalar:
  00031	8b c6		 mov	 eax, esi
  00033	5e		 pop	 esi
  00034	5d		 pop	 ebp
  00035	c2 04 00	 ret	 4
??_GCGdiObject@@UAEPAXI@Z ENDP				; CGdiObject::`scalar deleting destructor'
_TEXT	ENDS
; Function compile flags: /Ogtp
; File C:\Program Files (x86)\Microsoft Visual Studio\2019\Community\VC\Tools\MSVC\14.29.30133\atlmfc\include\afxwin1.inl
;	COMDAT ??1CGdiObject@@UAE@XZ
_TEXT	SEGMENT
_pException$2 = -540					; size = 4
_strMsg$3 = -536					; size = 4
_szErrorMessage$4 = -532				; size = 512
__$ArrayPad$ = -20					; size = 4
__$EHRec$ = -16						; size = 16
??1CGdiObject@@UAE@XZ PROC				; CGdiObject::~CGdiObject, COMDAT
; _this$ = ecx

; 74   : {

  00000	55		 push	 ebp
  00001	8b ec		 mov	 ebp, esp
  00003	6a ff		 push	 -1
  00005	68 00 00 00 00	 push	 __ehhandler$??1CGdiObject@@UAE@XZ
  0000a	64 a1 00 00 00
	00		 mov	 eax, DWORD PTR fs:0
  00010	50		 push	 eax
  00011	81 ec 10 02 00
	00		 sub	 esp, 528		; 00000210H
  00017	a1 00 00 00 00	 mov	 eax, DWORD PTR ___security_cookie
  0001c	33 c5		 xor	 eax, ebp
  0001e	89 45 ec	 mov	 DWORD PTR __$ArrayPad$[ebp], eax
  00021	53		 push	 ebx
  00022	56		 push	 esi
  00023	57		 push	 edi
  00024	50		 push	 eax
  00025	8d 45 f4	 lea	 eax, DWORD PTR __$EHRec$[ebp+4]
  00028	64 a3 00 00 00
	00		 mov	 DWORD PTR fs:0, eax
  0002e	89 65 f0	 mov	 DWORD PTR __$EHRec$[ebp], esp
  00031	c7 01 00 00 00
	00		 mov	 DWORD PTR [ecx], OFFSET ??_7CGdiObject@@6B@

; 75   : 	AFX_BEGIN_DESTRUCTOR

  00037	c7 45 fc 00 00
	00 00		 mov	 DWORD PTR __$EHRec$[ebp+12], 0

; 76   : 	DeleteObject();

  0003e	e8 00 00 00 00	 call	 ?DeleteObject@CGdiObject@@QAEHXZ ; CGdiObject::DeleteObject
$LN18@CGdiObject:

; 78   : }

  00043	8b 4d f4	 mov	 ecx, DWORD PTR __$EHRec$[ebp+4]
  00046	64 89 0d 00 00
	00 00		 mov	 DWORD PTR fs:0, ecx
  0004d	59		 pop	 ecx
  0004e	5f		 pop	 edi
  0004f	5e		 pop	 esi
  00050	5b		 pop	 ebx
  00051	8b 4d ec	 mov	 ecx, DWORD PTR __$ArrayPad$[ebp]
  00054	33 cd		 xor	 ecx, ebp
  00056	e8 00 00 00 00	 call	 @__security_check_cookie@4
  0005b	8b e5		 mov	 esp, ebp
  0005d	5d		 pop	 ebp
  0005e	c3		 ret	 0
__catch$??1CGdiObject@@UAE@XZ$0:

; 77   : 	AFX_END_DESTRUCTOR

  0005f	8d 8d e8 fd ff
	ff		 lea	 ecx, DWORD PTR _strMsg$3[ebp]
  00065	ff 15 00 00 00
	00		 call	 DWORD PTR __imp_??0?$CStringT@DV?$StrTraitMFC_DLL@DV?$ChTraitsCRT@D@ATL@@@@@ATL@@QAE@XZ
  0006b	8b b5 e4 fd ff
	ff		 mov	 esi, DWORD PTR _pException$2[ebp]
  00071	8d 8d ec fd ff
	ff		 lea	 ecx, DWORD PTR _szErrorMessage$4[ebp]
  00077	6a 00		 push	 0
  00079	68 00 02 00 00	 push	 512			; 00000200H
  0007e	51		 push	 ecx
  0007f	8b 06		 mov	 eax, DWORD PTR [esi]
  00081	8b ce		 mov	 ecx, esi
  00083	c6 45 fc 02	 mov	 BYTE PTR __$EHRec$[ebp+12], 2
  00087	ff 50 14	 call	 DWORD PTR [eax+20]
  0008a	85 c0		 test	 eax, eax
  0008c	74 2a		 je	 SHORT $LN9@CGdiObject
  0008e	8d 85 ec fd ff
	ff		 lea	 eax, DWORD PTR _szErrorMessage$4[ebp]
  00094	50		 push	 eax
  00095	6a 4d		 push	 77			; 0000004dH
  00097	68 00 00 00 00	 push	 OFFSET ??_C@_0HD@JJCHHHNK@C?3?2Program?5Files?5?$CIx86?$CJ?2Microsof@
  0009c	68 00 00 00 00	 push	 OFFSET ??_C@_0BP@OIEOKIDM@Exception?5thrown?5in?5destructor@
  000a1	8d 85 e8 fd ff
	ff		 lea	 eax, DWORD PTR _strMsg$3[ebp]
  000a7	68 00 00 00 00	 push	 OFFSET ??_C@_0BB@HBOOMJBF@?$CFTs?5?$CI?$CFTs?3?$CFd?$CJ?6?$CFTs@
  000ac	50		 push	 eax
  000ad	ff 15 00 00 00
	00		 call	 DWORD PTR __imp_?Format@?$CStringT@DV?$StrTraitMFC_DLL@DV?$ChTraitsCRT@D@ATL@@@@@ATL@@QAAXPBDZZ
  000b3	83 c4 18	 add	 esp, 24			; 00000018H
  000b6	eb 21		 jmp	 SHORT $LN10@CGdiObject
$LN9@CGdiObject:
  000b8	6a 4d		 push	 77			; 0000004dH
  000ba	68 00 00 00 00	 push	 OFFSET ??_C@_0HD@JJCHHHNK@C?3?2Program?5Files?5?$CIx86?$CJ?2Microsof@
  000bf	68 00 00 00 00	 push	 OFFSET ??_C@_0BP@OIEOKIDM@Exception?5thrown?5in?5destructor@
  000c4	8d 85 e8 fd ff
	ff		 lea	 eax, DWORD PTR _strMsg$3[ebp]
  000ca	68 00 00 00 00	 push	 OFFSET ??_C@_0N@OMEMOKLE@?$CFTs?5?$CI?$CFTs?3?$CFd?$CJ@
  000cf	50		 push	 eax
  000d0	ff 15 00 00 00
	00		 call	 DWORD PTR __imp_?Format@?$CStringT@DV?$StrTraitMFC_DLL@DV?$ChTraitsCRT@D@ATL@@@@@ATL@@QAAXPBDZZ
  000d6	83 c4 14	 add	 esp, 20			; 00000014H
$LN10@CGdiObject:
  000d9	6a 00		 push	 0
  000db	6a 00		 push	 0
  000dd	ff b5 e8 fd ff
	ff		 push	 DWORD PTR _strMsg$3[ebp]
  000e3	e8 00 00 00 00	 call	 ?AfxMessageBox@@YGHPBDII@Z ; AfxMessageBox
  000e8	8d 8d e8 fd ff
	ff		 lea	 ecx, DWORD PTR _strMsg$3[ebp]
  000ee	ff 15 00 00 00
	00		 call	 DWORD PTR __imp_??1?$CStringT@DV?$StrTraitMFC_DLL@DV?$ChTraitsCRT@D@ATL@@@@@ATL@@QAE@XZ
  000f4	8b 06		 mov	 eax, DWORD PTR [esi]
  000f6	8b ce		 mov	 ecx, esi
  000f8	6a 01		 push	 1
  000fa	ff 50 04	 call	 DWORD PTR [eax+4]
  000fd	b8 00 00 00 00	 mov	 eax, $LN18@CGdiObject
  00102	c3		 ret	 0
_TEXT	ENDS
;	COMDAT text$x
text$x	SEGMENT
__unwindfunclet$??1CGdiObject@@UAE@XZ$2:
  00000	8d 8d e8 fd ff
	ff		 lea	 ecx, DWORD PTR _strMsg$3[ebp]
  00006	ff 25 00 00 00
	00		 jmp	 DWORD PTR __imp_??1?$CStringT@DV?$StrTraitMFC_DLL@DV?$ChTraitsCRT@D@ATL@@@@@ATL@@QAE@XZ
  0000c	cc		 int	 3
  0000d	cc		 int	 3
  0000e	cc		 int	 3
  0000f	cc		 int	 3
  00010	cc		 int	 3
__ehhandler$??1CGdiObject@@UAE@XZ:
  00011	90		 npad	 1
  00012	90		 npad	 1
  00013	8b 54 24 08	 mov	 edx, DWORD PTR [esp+8]
  00017	8d 42 0c	 lea	 eax, DWORD PTR [edx+12]
  0001a	8b 8a e0 fd ff
	ff		 mov	 ecx, DWORD PTR [edx-544]
  00020	33 c8		 xor	 ecx, eax
  00022	e8 00 00 00 00	 call	 @__security_check_cookie@4
  00027	8b 4a f8	 mov	 ecx, DWORD PTR [edx-8]
  0002a	33 c8		 xor	 ecx, eax
  0002c	e8 00 00 00 00	 call	 @__security_check_cookie@4
  00031	b8 00 00 00 00	 mov	 eax, OFFSET __ehfuncinfo$??1CGdiObject@@UAE@XZ
  00036	e9 00 00 00 00	 jmp	 ___CxxFrameHandler3
text$x	ENDS
??1CGdiObject@@UAE@XZ ENDP				; CGdiObject::~CGdiObject
; Function compile flags: /Ogtp
; File C:\Program Files (x86)\Microsoft Visual Studio\2019\Community\VC\Tools\MSVC\14.29.30133\atlmfc\include\afx.inl
;	COMDAT ?Dump@CObject@@UBEXAAVCDumpContext@@@Z
_TEXT	SEGMENT
___formal$ = 8						; size = 4
?Dump@CObject@@UBEXAAVCDumpContext@@@Z PROC		; CObject::Dump, COMDAT
; _this$ = ecx

; 122  : 	{ /* no dumping in release builds */ }

  00000	c2 04 00	 ret	 4
?Dump@CObject@@UBEXAAVCDumpContext@@@Z ENDP		; CObject::Dump
_TEXT	ENDS
; Function compile flags: /Ogtp
; File C:\Program Files (x86)\Microsoft Visual Studio\2019\Community\VC\Tools\MSVC\14.29.30133\atlmfc\include\afx.inl
;	COMDAT ?AssertValid@CObject@@UBEXXZ
_TEXT	SEGMENT
?AssertValid@CObject@@UBEXXZ PROC			; CObject::AssertValid, COMDAT
; _this$ = ecx

; 120  : 	{ /* no asserts in release builds */ }

  00000	c2 00 00	 ret	 0
?AssertValid@CObject@@UBEXXZ ENDP			; CObject::AssertValid
_TEXT	ENDS
; Function compile flags: /Ogtp
; File C:\Program Files (x86)\Microsoft Visual Studio\2019\Community\VC\Tools\MSVC\14.29.30133\atlmfc\include\afx.inl
;	COMDAT ?Serialize@CObject@@UAEXAAVCArchive@@@Z
_TEXT	SEGMENT
___formal$ = 8						; size = 4
?Serialize@CObject@@UAEXAAVCArchive@@@Z PROC		; CObject::Serialize, COMDAT
; _this$ = ecx

; 106  : 	{ /* CObject does not serialize anything by default */ }

  00000	c2 04 00	 ret	 4
?Serialize@CObject@@UAEXAAVCArchive@@@Z ENDP		; CObject::Serialize
_TEXT	ENDS
; Function compile flags: /Ogtp
; File C:\Program Files (x86)\Microsoft Visual Studio\2019\Community\VC\Tools\MSVC\14.29.30133\atlmfc\include\afx.inl
;	COMDAT ??1CObject@@UAE@XZ
_TEXT	SEGMENT
??1CObject@@UAE@XZ PROC					; CObject::~CObject, COMDAT
; _this$ = ecx

; 104  : 	{ }

  00000	c2 00 00	 ret	 0
??1CObject@@UAE@XZ ENDP					; CObject::~CObject
_TEXT	ENDS
; Function compile flags: /Ogtp
; File D:\git\src\IBK\IBK_DRFN\ProjSrc\SrcChartEx\ChartAddIn\ChartAnalysisToolAddIn\AnalysisTool\Drawer.cpp
;	COMDAT ?__empty_global_delete@@YAXPAXI@Z
_TEXT	SEGMENT
___formal$ = 8						; size = 4
___formal$ = 12						; size = 4
?__empty_global_delete@@YAXPAXI@Z PROC			; __empty_global_delete, COMDAT

  00000	c2 00 00	 ret	 0
?__empty_global_delete@@YAXPAXI@Z ENDP			; __empty_global_delete
_TEXT	ENDS
; Function compile flags: /Ogtp
; File D:\git\src\IBK\IBK_DRFN\ProjSrc\SrcChartEx\ChartAddIn\ChartAnalysisToolAddIn\AnalysisTool\Drawer.cpp
;	COMDAT ?__empty_global_delete@@YAXPAX@Z
_TEXT	SEGMENT
___formal$ = 8						; size = 4
?__empty_global_delete@@YAXPAX@Z PROC			; __empty_global_delete, COMDAT

  00000	c2 00 00	 ret	 0
?__empty_global_delete@@YAXPAX@Z ENDP			; __empty_global_delete
_TEXT	ENDS
END
