; Listing generated by Microsoft (R) Optimizing Compiler Version 19.29.30145.0 

	TITLE	D:\git\src\IBK\IBK_DRFN\#DRfn-CS\_Obj\AnalysisTool\ElementTree.obj
	.686P
	.XMM
	include listing.inc
	.model	flat

INCLUDELIB MSVCRT
INCLUDELIB OLDNAMES

PUBLIC	?__empty_global_delete@@YAXPAX@Z		; __empty_global_delete
PUBLIC	?__empty_global_delete@@YAXPAXI@Z		; __empty_global_delete
PUBLIC	??0exception@std@@QAE@ABV01@@Z			; std::exception::exception
PUBLIC	??1exception@std@@UAE@XZ			; std::exception::~exception
PUBLIC	?what@exception@std@@UBEPBDXZ			; std::exception::what
PUBLIC	??_Gexception@std@@UAEPAXI@Z			; std::exception::`scalar deleting destructor'
PUBLIC	??0bad_alloc@std@@QAE@ABV01@@Z			; std::bad_alloc::bad_alloc
PUBLIC	??_Gbad_alloc@std@@UAEPAXI@Z			; std::bad_alloc::`scalar deleting destructor'
PUBLIC	??0bad_array_new_length@std@@QAE@XZ		; std::bad_array_new_length::bad_array_new_length
PUBLIC	??1bad_array_new_length@std@@UAE@XZ		; std::bad_array_new_length::~bad_array_new_length
PUBLIC	??0bad_array_new_length@std@@QAE@ABV01@@Z	; std::bad_array_new_length::bad_array_new_length
PUBLIC	??_Gbad_array_new_length@std@@UAEPAXI@Z		; std::bad_array_new_length::`scalar deleting destructor'
PUBLIC	?_Throw_bad_array_new_length@std@@YAXXZ		; std::_Throw_bad_array_new_length
PUBLIC	?GetCount@COrder@@QBEHXZ			; COrder::GetCount
PUBLIC	?GetIndex@COrder@@QBEHPBVCElement@@@Z		; COrder::GetIndex
PUBLIC	?AddTail@COrder@@QAEXPAVCElement@@@Z		; COrder::AddTail
PUBLIC	?RemoveAll@COrder@@QAEXXZ			; COrder::RemoveAll
PUBLIC	?RemoveTail@COrder@@QAEXXZ			; COrder::RemoveTail
PUBLIC	?Remove@COrder@@QAEXABV?$CDequePointerList@VCElement@@@@@Z ; COrder::Remove
PUBLIC	?Remove@COrder@@QAEXPAVCElement@@@Z		; COrder::Remove
PUBLIC	?ChangeOrder@COrder@@QAE_NPAVCElement@@@Z	; COrder::ChangeOrder
PUBLIC	?GetTail@COrder@@QAEPAVCElement@@XZ		; COrder::GetTail
PUBLIC	?GetAt@COrder@@QAEPAVCElement@@H@Z		; COrder::GetAt
PUBLIC	??1?$CDequePointerList@VCElement@@@@QAE@XZ	; CDequePointerList<CElement>::~CDequePointerList<CElement>
PUBLIC	?AddTail@?$CDequePointerList@VCElement@@@@QAEXPAVCElement@@@Z ; CDequePointerList<CElement>::AddTail
PUBLIC	?erase@?$deque@PAVCElement@@V?$allocator@PAVCElement@@@std@@@std@@QAE?AV?$_Deque_iterator@V?$_Deque_val@U?$_Deque_simple_types@PAVCElement@@@std@@@std@@@2@V?$_Deque_const_iterator@V?$_Deque_val@U?$_Deque_simple_types@PAVCElement@@@std@@@std@@@2@0@Z ; std::deque<CElement *,std::allocator<CElement *> >::erase
PUBLIC	?_Xlen@?$deque@PAVCElement@@V?$allocator@PAVCElement@@@std@@@std@@ABEXXZ ; std::deque<CElement *,std::allocator<CElement *> >::_Xlen
PUBLIC	?_Growmap@?$deque@PAVCElement@@V?$allocator@PAVCElement@@@std@@@std@@AAEXI@Z ; std::deque<CElement *,std::allocator<CElement *> >::_Growmap
PUBLIC	?_Tidy@?$deque@PAVCElement@@V?$allocator@PAVCElement@@@std@@@std@@AAEXXZ ; std::deque<CElement *,std::allocator<CElement *> >::_Tidy
PUBLIC	?IsChangeOrder@COrder@@ABE_NPAVCElement@@H@Z	; COrder::IsChangeOrder
PUBLIC	??1CTree@@UAE@XZ				; CTree::~CTree
PUBLIC	?SetAutoPrice@CTree@@QAEX_N@Z			; CTree::SetAutoPrice
PUBLIC	?ChangeAllElementsColor@CTree@@QAEXABK0@Z	; CTree::ChangeAllElementsColor
PUBLIC	?ChangeAllElementsThick@CTree@@QAEXHH@Z		; CTree::ChangeAllElementsThick
PUBLIC	?GetSavedElementsData@CTree@@QBE?AV?$CStringT@DV?$StrTraitMFC_DLL@DV?$ChTraitsCRT@D@ATL@@@@@ATL@@ABVCOrder@@@Z ; CTree::GetSavedElementsData
PUBLIC	?GetElementList@CTree@@QAEXABVCBlockIndex@@AAV?$CDequePointerList@VCElement@@@@@Z ; CTree::GetElementList
PUBLIC	?Add@CTree@@QAEXABVCBlockIndex@@PAVCElement@@@Z	; CTree::Add
PUBLIC	?AddColumnRowSet@CTree@@QAEXABVCBlockIndex@@@Z	; CTree::AddColumnRowSet
PUBLIC	?InsertElementTree@CTree@@QAE_NW4BLOCKTYPE@CBlockBaseData@@ABVCBlockIndex@@@Z ; CTree::InsertElementTree
PUBLIC	?DeleteAll@CTree@@QAEXXZ			; CTree::DeleteAll
PUBLIC	?DeleteRowSet@CTree@@QAEXABVCBlockIndex@@@Z	; CTree::DeleteRowSet
PUBLIC	?DeleteElement@CTree@@QAE_NW4ElementType@CToolEnumData@@AAV?$CDequePointerList@VCElement@@@@@Z ; CTree::DeleteElement
PUBLIC	?DeleteElement@CTree@@QAEXPAVCElement@@@Z	; CTree::DeleteElement
PUBLIC	?DeleteElement@CTree@@QAE_NJH@Z			; CTree::DeleteElement
PUBLIC	?MoveElementTree@CTree@@QAE_NABVCBlockIndex@@0@Z ; CTree::MoveElementTree
PUBLIC	?FindElement@CTree@@QAEPAVCElement@@PAUIChartManager133101@@PAVCExtractingDataOfModifyType@@AAW4ModifyType@CToolEnumData@@@Z ; CTree::FindElement
PUBLIC	?DrawElement@CTree@@QAEXPAVCDC@@PAVCElement@@PAUIChartManager133101@@@Z ; CTree::DrawElement
PUBLIC	?CopyElement@CTree@@QAEPAVCElement@@PAV2@@Z	; CTree::CopyElement
PUBLIC	?MoveElement@CTree@@QAEJPAVCElement@@@Z		; CTree::MoveElement
PUBLIC	?GetBlockIndexInElement@CTree@@QBE?AVCBlockIndex@@PBVCElement@@@Z ; CTree::GetBlockIndexInElement
PUBLIC	?GetAt@?$CDequePointerList@VCColumnSet@@@@QAEPAVCColumnSet@@H@Z ; CDequePointerList<CColumnSet>::GetAt
PUBLIC	?push_back@?$deque@PAVCColumnSet@@V?$allocator@PAVCColumnSet@@@std@@@std@@QAEXABQAVCColumnSet@@@Z ; std::deque<CColumnSet *,std::allocator<CColumnSet *> >::push_back
PUBLIC	?insert@?$deque@PAVCColumnSet@@V?$allocator@PAVCColumnSet@@@std@@@std@@QAE?AV?$_Deque_iterator@V?$_Deque_val@U?$_Deque_simple_types@PAVCColumnSet@@@std@@@std@@@2@V?$_Deque_const_iterator@V?$_Deque_val@U?$_Deque_simple_types@PAVCColumnSet@@@std@@@std@@@2@ABQAVCColumnSet@@@Z ; std::deque<CColumnSet *,std::allocator<CColumnSet *> >::insert
PUBLIC	?erase@?$deque@PAVCColumnSet@@V?$allocator@PAVCColumnSet@@@std@@@std@@QAE?AV?$_Deque_iterator@V?$_Deque_val@U?$_Deque_simple_types@PAVCColumnSet@@@std@@@std@@@2@V?$_Deque_const_iterator@V?$_Deque_val@U?$_Deque_simple_types@PAVCColumnSet@@@std@@@std@@@2@0@Z ; std::deque<CColumnSet *,std::allocator<CColumnSet *> >::erase
PUBLIC	?_Xlen@?$deque@PAVCColumnSet@@V?$allocator@PAVCColumnSet@@@std@@@std@@ABEXXZ ; std::deque<CColumnSet *,std::allocator<CColumnSet *> >::_Xlen
PUBLIC	?_Growmap@?$deque@PAVCColumnSet@@V?$allocator@PAVCColumnSet@@@std@@@std@@AAEXI@Z ; std::deque<CColumnSet *,std::allocator<CColumnSet *> >::_Growmap
PUBLIC	?_Tidy@?$deque@PAVCColumnSet@@V?$allocator@PAVCColumnSet@@@std@@@std@@AAEXXZ ; std::deque<CColumnSet *,std::allocator<CColumnSet *> >::_Tidy
PUBLIC	?AddColumnSet@CTree@@AAEXH@Z			; CTree::AddColumnSet
PUBLIC	?AddElementInNewMakedColumnSet@CTree@@AAEXABVCBlockIndex@@PAVCElement@@@Z ; CTree::AddElementInNewMakedColumnSet
PUBLIC	?AddElement@CTree@@AAEXHPAVCColumnSet@@PAVCElement@@@Z ; CTree::AddElement
PUBLIC	?IsInsertElementTree@CTree@@ABE_NABVCBlockIndex@@@Z ; CTree::IsInsertElementTree
PUBLIC	?InsertColumnSet@CTree@@AAE_NH@Z		; CTree::InsertColumnSet
PUBLIC	?InsertRowSet@CTree@@AAE_NABVCBlockIndex@@@Z	; CTree::InsertRowSet
PUBLIC	?IsMoveElementTree@CTree@@ABE_NABVCBlockIndex@@0@Z ; CTree::IsMoveElementTree
PUBLIC	?MoveColumnSet@CTree@@AAE_NHH@Z			; CTree::MoveColumnSet
PUBLIC	?MoveColumnSet_InColumnSetList@CTree@@AAE_NHH@Z	; CTree::MoveColumnSet_InColumnSetList
PUBLIC	?MoveRowSet@CTree@@AAE_NPAVCColumnSet@@HH@Z	; CTree::MoveRowSet
PUBLIC	?GetMax@CTree@@ABEHHH@Z				; CTree::GetMax
PUBLIC	?IsFindElement@CTree@@ABE_NPAUIChartManager133101@@PAVCExtractingDataOfModifyType@@@Z ; CTree::IsFindElement
PUBLIC	?IsFindElement@CTree@@ABE_NABVCBlockIndex@@@Z	; CTree::IsFindElement
PUBLIC	??_GCTree@@UAEPAXI@Z				; CTree::`scalar deleting destructor'
PUBLIC	?SetAutoPrice@CElementTree@@QAEX_N@Z		; CElementTree::SetAutoPrice
PUBLIC	?ChangeAllElementsColor@CElementTree@@QAEXABK0@Z ; CElementTree::ChangeAllElementsColor
PUBLIC	?ChangeAllElementsThick@CElementTree@@QAEXHH@Z	; CElementTree::ChangeAllElementsThick
PUBLIC	?GetElementCount@CElementTree@@QBEHXZ		; CElementTree::GetElementCount
PUBLIC	?GetElementListOfBlock@CElementTree@@QAEXABVCBlockIndex@@AAV?$CDequePointerList@VCElement@@@@@Z ; CElementTree::GetElementListOfBlock
PUBLIC	?GetSavedElementsData@CElementTree@@QBE?AV?$CStringT@DV?$StrTraitMFC_DLL@DV?$ChTraitsCRT@D@ATL@@@@@ATL@@XZ ; CElementTree::GetSavedElementsData
PUBLIC	?BuildElementsFromString@CElementTree@@QAEXAAVCAnalysisData@@ABV?$CStringT@DV?$StrTraitMFC_DLL@DV?$ChTraitsCRT@D@ATL@@@@@ATL@@@Z ; CElementTree::BuildElementsFromString
PUBLIC	?Add@CElementTree@@QAEXABVCBlockIndex@@PAVCElement@@@Z ; CElementTree::Add
PUBLIC	?AddColumnRowSet@CElementTree@@QAEXABVCBlockIndex@@@Z ; CElementTree::AddColumnRowSet
PUBLIC	?InsertElementTree@CElementTree@@QAE_NW4BLOCKTYPE@CBlockBaseData@@ABVCBlockIndex@@@Z ; CElementTree::InsertElementTree
PUBLIC	?DeleteAll@CElementTree@@QAEXXZ			; CElementTree::DeleteAll
PUBLIC	?DeleteRowSet@CElementTree@@QAEXABVCBlockIndex@@@Z ; CElementTree::DeleteRowSet
PUBLIC	?DeleteTail@CElementTree@@QAEXXZ		; CElementTree::DeleteTail
PUBLIC	?DeleteElement@CElementTree@@QAE_NW4ElementType@CToolEnumData@@@Z ; CElementTree::DeleteElement
PUBLIC	?DeleteElement@CElementTree@@QAEXPAVCElement@@@Z ; CElementTree::DeleteElement
PUBLIC	?DeleteElementPos@CElementTree@@QAE_NJH@Z	; CElementTree::DeleteElementPos
PUBLIC	?MoveElementTree@CElementTree@@QAE_NABVCBlockIndex@@0@Z ; CElementTree::MoveElementTree
PUBLIC	?ChangeElementOrder@CElementTree@@QAE_NPAVCElement@@@Z ; CElementTree::ChangeElementOrder
PUBLIC	?FindElement@CElementTree@@QAEPAVCElement@@PAUIChartManager133101@@PAVCExtractingDataOfModifyType@@AAW4ModifyType@CToolEnumData@@@Z ; CElementTree::FindElement
PUBLIC	?DrawElement@CElementTree@@QAEXPAVCDC@@PAVCElement@@PAUIChartManager133101@@@Z ; CElementTree::DrawElement
PUBLIC	?CopyElement@CElementTree@@QAEPAVCElement@@PAV2@@Z ; CElementTree::CopyElement
PUBLIC	?MoveElement@CElementTree@@QAEJPAVCElement@@@Z	; CElementTree::MoveElement
PUBLIC	?GetBlockIndexInElement@CElementTree@@QBE?AVCBlockIndex@@PBVCElement@@@Z ; CElementTree::GetBlockIndexInElement
PUBLIC	?GetTail@CElementTree@@QAEPAVCElement@@XZ	; CElementTree::GetTail
PUBLIC	?GetTree@CElementTree@@QAEAAVCTree@@XZ		; CElementTree::GetTree
PUBLIC	?GetOrder@CElementTree@@QAEAAVCOrder@@XZ	; CElementTree::GetOrder
PUBLIC	??$rotate@V?$_Deque_iterator@V?$_Deque_val@U?$_Deque_simple_types@PAVCColumnSet@@@std@@@std@@@std@@@std@@YA?AV?$_Deque_iterator@V?$_Deque_val@U?$_Deque_simple_types@PAVCColumnSet@@@std@@@std@@@0@V10@00@Z ; std::rotate<std::_Deque_iterator<std::_Deque_val<std::_Deque_simple_types<CColumnSet *> > > >
PUBLIC	??$uninitialized_copy@PAPAPAVCColumnSet@@PAPAPAV1@@std@@YAPAPAPAVCColumnSet@@QAPAPAV1@0PAPAPAV1@@Z ; std::uninitialized_copy<CColumnSet * * *,CColumnSet * * *>
PUBLIC	??$_Uninitialized_value_construct_n_unchecked1@PAPAPAVCColumnSet@@I@std@@YAPAPAPAVCColumnSet@@PAPAPAV1@I@Z ; std::_Uninitialized_value_construct_n_unchecked1<CColumnSet * * *,unsigned int>
PUBLIC	??$reverse@V?$_Deque_unchecked_iterator@V?$_Deque_val@U?$_Deque_simple_types@PAVCColumnSet@@@std@@@std@@@std@@@std@@YAXV?$_Deque_unchecked_iterator@V?$_Deque_val@U?$_Deque_simple_types@PAVCColumnSet@@@std@@@std@@@0@0@Z ; std::reverse<std::_Deque_unchecked_iterator<std::_Deque_val<std::_Deque_simple_types<CColumnSet *> > > >
PUBLIC	??$_Zero_range@PAPAPAVCColumnSet@@@std@@YAPAPAPAVCColumnSet@@QAPAPAV1@0@Z ; std::_Zero_range<CColumnSet * * *>
PUBLIC	??$_Allocate_manually_vector_aligned@U_Default_allocate_traits@std@@@std@@YAPAXI@Z ; std::_Allocate_manually_vector_aligned<std::_Default_allocate_traits>
PUBLIC	??$uninitialized_copy@PAPAPAVCElement@@PAPAPAV1@@std@@YAPAPAPAVCElement@@QAPAPAV1@0PAPAPAV1@@Z ; std::uninitialized_copy<CElement * * *,CElement * * *>
PUBLIC	??$_Uninitialized_value_construct_n_unchecked1@PAPAPAVCElement@@I@std@@YAPAPAPAVCElement@@PAPAPAV1@I@Z ; std::_Uninitialized_value_construct_n_unchecked1<CElement * * *,unsigned int>
PUBLIC	??$_Copy_memmove@PAPAPAVCColumnSet@@PAPAPAV1@@std@@YAPAPAPAVCColumnSet@@PAPAPAV1@00@Z ; std::_Copy_memmove<CColumnSet * * *,CColumnSet * * *>
PUBLIC	??$_Zero_range@PAPAPAVCElement@@@std@@YAPAPAPAVCElement@@QAPAPAV1@0@Z ; std::_Zero_range<CElement * * *>
PUBLIC	??$_Copy_memmove@PAPAPAVCElement@@PAPAPAV1@@std@@YAPAPAPAVCElement@@PAPAPAV1@00@Z ; std::_Copy_memmove<CElement * * *,CElement * * *>
PUBLIC	??_7exception@std@@6B@				; std::exception::`vftable'
PUBLIC	??_C@_0BC@EOODALEL@Unknown?5exception@		; `string'
PUBLIC	??_7bad_alloc@std@@6B@				; std::bad_alloc::`vftable'
PUBLIC	??_7bad_array_new_length@std@@6B@		; std::bad_array_new_length::`vftable'
PUBLIC	??_C@_0BF@KINCDENJ@bad?5array?5new?5length@	; `string'
PUBLIC	__TI3?AVbad_array_new_length@std@@
PUBLIC	__CTA3?AVbad_array_new_length@std@@
PUBLIC	??_R0?AVbad_array_new_length@std@@@8		; std::bad_array_new_length `RTTI Type Descriptor'
PUBLIC	__CT??_R0?AVbad_array_new_length@std@@@8??0bad_array_new_length@std@@QAE@ABV01@@Z12
PUBLIC	??_R0?AVbad_alloc@std@@@8			; std::bad_alloc `RTTI Type Descriptor'
PUBLIC	__CT??_R0?AVbad_alloc@std@@@8??0bad_alloc@std@@QAE@ABV01@@Z12
PUBLIC	??_R0?AVexception@std@@@8			; std::exception `RTTI Type Descriptor'
PUBLIC	__CT??_R0?AVexception@std@@@8??0exception@std@@QAE@ABV01@@Z12
PUBLIC	??_7CTree@@6B@					; CTree::`vftable'
PUBLIC	??_C@_0BC@KBDMBKEH@deque?$DMT?$DO?5too?5long@	; `string'
PUBLIC	??_R4exception@std@@6B@				; std::exception::`RTTI Complete Object Locator'
PUBLIC	??_R3exception@std@@8				; std::exception::`RTTI Class Hierarchy Descriptor'
PUBLIC	??_R2exception@std@@8				; std::exception::`RTTI Base Class Array'
PUBLIC	??_R1A@?0A@EA@exception@std@@8			; std::exception::`RTTI Base Class Descriptor at (0,-1,0,64)'
PUBLIC	??_R4bad_alloc@std@@6B@				; std::bad_alloc::`RTTI Complete Object Locator'
PUBLIC	??_R3bad_alloc@std@@8				; std::bad_alloc::`RTTI Class Hierarchy Descriptor'
PUBLIC	??_R2bad_alloc@std@@8				; std::bad_alloc::`RTTI Base Class Array'
PUBLIC	??_R1A@?0A@EA@bad_alloc@std@@8			; std::bad_alloc::`RTTI Base Class Descriptor at (0,-1,0,64)'
PUBLIC	??_R4bad_array_new_length@std@@6B@		; std::bad_array_new_length::`RTTI Complete Object Locator'
PUBLIC	??_R3bad_array_new_length@std@@8		; std::bad_array_new_length::`RTTI Class Hierarchy Descriptor'
PUBLIC	??_R2bad_array_new_length@std@@8		; std::bad_array_new_length::`RTTI Base Class Array'
PUBLIC	??_R1A@?0A@EA@bad_array_new_length@std@@8	; std::bad_array_new_length::`RTTI Base Class Descriptor at (0,-1,0,64)'
PUBLIC	??_R4CTree@@6B@					; CTree::`RTTI Complete Object Locator'
PUBLIC	??_R0?AVCTree@@@8				; CTree `RTTI Type Descriptor'
PUBLIC	??_R3CTree@@8					; CTree::`RTTI Class Hierarchy Descriptor'
PUBLIC	??_R2CTree@@8					; CTree::`RTTI Base Class Array'
PUBLIC	??_R1A@?0A@EA@CTree@@8				; CTree::`RTTI Base Class Descriptor at (0,-1,0,64)'
EXTRN	??2@YAPAXI@Z:PROC				; operator new
EXTRN	??3@YAXPAXI@Z:PROC				; operator delete
EXTRN	___std_terminate:PROC
EXTRN	__imp___invalid_parameter_noinfo_noreturn:PROC
EXTRN	__imp_??0?$CStringT@DV?$StrTraitMFC_DLL@DV?$ChTraitsCRT@D@ATL@@@@@ATL@@QAE@XZ:PROC
EXTRN	__imp_??1?$CStringT@DV?$StrTraitMFC_DLL@DV?$ChTraitsCRT@D@ATL@@@@@ATL@@QAE@XZ:PROC
EXTRN	__imp_??Y?$CStringT@DV?$StrTraitMFC_DLL@DV?$ChTraitsCRT@D@ATL@@@@@ATL@@QAEAAV01@ABV?$CSimpleStringT@D$00@1@@Z:PROC
EXTRN	___std_exception_copy:PROC
EXTRN	___std_exception_destroy:PROC
EXTRN	??_Eexception@std@@UAEPAXI@Z:PROC		; std::exception::`vector deleting destructor'
EXTRN	??_Ebad_alloc@std@@UAEPAXI@Z:PROC		; std::bad_alloc::`vector deleting destructor'
EXTRN	??_Ebad_array_new_length@std@@UAEPAXI@Z:PROC	; std::bad_array_new_length::`vector deleting destructor'
EXTRN	?_Xlength_error@std@@YAXPBD@Z:PROC		; std::_Xlength_error
EXTRN	??_ECTree@@UAEPAXI@Z:PROC			; CTree::`vector deleting destructor'
EXTRN	?BuildElementsFromString@CElementTreeBuilder@@QAE_NAAVCAnalysisData@@ABV?$CStringT@DV?$StrTraitMFC_DLL@DV?$ChTraitsCRT@D@ATL@@@@@ATL@@AAVCTree@@AAVCOrder@@@Z:PROC ; CElementTreeBuilder::BuildElementsFromString
EXTRN	?GetMousePoint@CExtractingDataOfModifyType@@QBE?AVCPoint@@XZ:PROC ; CExtractingDataOfModifyType::GetMousePoint
EXTRN	?IsFindElement@CExtractingDataOfModifyType@@QBE_NXZ:PROC ; CExtractingDataOfModifyType::IsFindElement
EXTRN	?Make@CColumnSet@@SAPAV1@XZ:PROC		; CColumnSet::Make
EXTRN	?Delete@CColumnSet@@SAXPAV1@@Z:PROC		; CColumnSet::Delete
EXTRN	?SetAutoPrice@CColumnSet@@QAEX_N@Z:PROC		; CColumnSet::SetAutoPrice
EXTRN	?ChangeAllElementsColor@CColumnSet@@QAEXABK0@Z:PROC ; CColumnSet::ChangeAllElementsColor
EXTRN	?ChangeAllElementsThick@CColumnSet@@QAEXHH@Z:PROC ; CColumnSet::ChangeAllElementsThick
EXTRN	?GetSavedElementsData@CColumnSet@@QBE?AV?$CStringT@DV?$StrTraitMFC_DLL@DV?$ChTraitsCRT@D@ATL@@@@@ATL@@ABVCOrder@@@Z:PROC ; CColumnSet::GetSavedElementsData
EXTRN	?GetElementList@CColumnSet@@QAEXHAAV?$CDequePointerList@VCElement@@@@@Z:PROC ; CColumnSet::GetElementList
EXTRN	?AddRowSet@CColumnSet@@QAE_NXZ:PROC		; CColumnSet::AddRowSet
EXTRN	?AddElement@CColumnSet@@QAEXHPAVCElement@@@Z:PROC ; CColumnSet::AddElement
EXTRN	?InsertRowSet@CColumnSet@@QAE_NH@Z:PROC		; CColumnSet::InsertRowSet
EXTRN	?DeleteRowSet@CColumnSet@@QAEXH@Z:PROC		; CColumnSet::DeleteRowSet
EXTRN	?DeleteElement@CColumnSet@@QAE_NW4ElementType@CToolEnumData@@AAV?$CDequePointerList@VCElement@@@@@Z:PROC ; CColumnSet::DeleteElement
EXTRN	?DeleteElement@CColumnSet@@QAE_NPAVCElement@@@Z:PROC ; CColumnSet::DeleteElement
EXTRN	?DeleteElement@CColumnSet@@QAE_NJH@Z:PROC	; CColumnSet::DeleteElement
EXTRN	?MoveRowSet@CColumnSet@@QAE_NHH@Z:PROC		; CColumnSet::MoveRowSet
EXTRN	?FindElement@CColumnSet@@QAEPAVCElement@@PAUIChartManager133101@@PAVCExtractingDataOfModifyType@@HAAW4ModifyType@CToolEnumData@@@Z:PROC ; CColumnSet::FindElement
EXTRN	?DrawElement@CColumnSet@@QAEXPAVCDC@@PAVCElement@@PAUIChartManager133101@@H@Z:PROC ; CColumnSet::DrawElement
EXTRN	?CopyElement@CColumnSet@@QAEPAVCElement@@PAV2@@Z:PROC ; CColumnSet::CopyElement
EXTRN	?MoveElement@CColumnSet@@QAEJPAVCElement@@@Z:PROC ; CColumnSet::MoveElement
EXTRN	?GetBlockIndexInElement@CColumnSet@@QBE?AVCBlockIndex@@PBVCElement@@H@Z:PROC ; CColumnSet::GetBlockIndexInElement
EXTRN	@__security_check_cookie@4:PROC
EXTRN	__CxxThrowException@8:PROC
EXTRN	___CxxFrameHandler3:PROC
EXTRN	_memmove:PROC
EXTRN	_memset:PROC
EXTRN	??_7type_info@@6B@:QWORD			; type_info::`vftable'
EXTRN	___security_cookie:DWORD
;	COMDAT ??_R1A@?0A@EA@CTree@@8
rdata$r	SEGMENT
??_R1A@?0A@EA@CTree@@8 DD FLAT:??_R0?AVCTree@@@8	; CTree::`RTTI Base Class Descriptor at (0,-1,0,64)'
	DD	00H
	DD	00H
	DD	0ffffffffH
	DD	00H
	DD	040H
	DD	FLAT:??_R3CTree@@8
rdata$r	ENDS
;	COMDAT ??_R2CTree@@8
rdata$r	SEGMENT
??_R2CTree@@8 DD FLAT:??_R1A@?0A@EA@CTree@@8		; CTree::`RTTI Base Class Array'
rdata$r	ENDS
;	COMDAT ??_R3CTree@@8
rdata$r	SEGMENT
??_R3CTree@@8 DD 00H					; CTree::`RTTI Class Hierarchy Descriptor'
	DD	00H
	DD	01H
	DD	FLAT:??_R2CTree@@8
rdata$r	ENDS
;	COMDAT ??_R0?AVCTree@@@8
data$rs	SEGMENT
??_R0?AVCTree@@@8 DD FLAT:??_7type_info@@6B@		; CTree `RTTI Type Descriptor'
	DD	00H
	DB	'.?AVCTree@@', 00H
data$rs	ENDS
;	COMDAT ??_R4CTree@@6B@
rdata$r	SEGMENT
??_R4CTree@@6B@ DD 00H					; CTree::`RTTI Complete Object Locator'
	DD	00H
	DD	00H
	DD	FLAT:??_R0?AVCTree@@@8
	DD	FLAT:??_R3CTree@@8
rdata$r	ENDS
;	COMDAT ??_R1A@?0A@EA@bad_array_new_length@std@@8
rdata$r	SEGMENT
??_R1A@?0A@EA@bad_array_new_length@std@@8 DD FLAT:??_R0?AVbad_array_new_length@std@@@8 ; std::bad_array_new_length::`RTTI Base Class Descriptor at (0,-1,0,64)'
	DD	02H
	DD	00H
	DD	0ffffffffH
	DD	00H
	DD	040H
	DD	FLAT:??_R3bad_array_new_length@std@@8
rdata$r	ENDS
;	COMDAT ??_R2bad_array_new_length@std@@8
rdata$r	SEGMENT
??_R2bad_array_new_length@std@@8 DD FLAT:??_R1A@?0A@EA@bad_array_new_length@std@@8 ; std::bad_array_new_length::`RTTI Base Class Array'
	DD	FLAT:??_R1A@?0A@EA@bad_alloc@std@@8
	DD	FLAT:??_R1A@?0A@EA@exception@std@@8
rdata$r	ENDS
;	COMDAT ??_R3bad_array_new_length@std@@8
rdata$r	SEGMENT
??_R3bad_array_new_length@std@@8 DD 00H			; std::bad_array_new_length::`RTTI Class Hierarchy Descriptor'
	DD	00H
	DD	03H
	DD	FLAT:??_R2bad_array_new_length@std@@8
rdata$r	ENDS
;	COMDAT ??_R4bad_array_new_length@std@@6B@
rdata$r	SEGMENT
??_R4bad_array_new_length@std@@6B@ DD 00H		; std::bad_array_new_length::`RTTI Complete Object Locator'
	DD	00H
	DD	00H
	DD	FLAT:??_R0?AVbad_array_new_length@std@@@8
	DD	FLAT:??_R3bad_array_new_length@std@@8
rdata$r	ENDS
;	COMDAT ??_R1A@?0A@EA@bad_alloc@std@@8
rdata$r	SEGMENT
??_R1A@?0A@EA@bad_alloc@std@@8 DD FLAT:??_R0?AVbad_alloc@std@@@8 ; std::bad_alloc::`RTTI Base Class Descriptor at (0,-1,0,64)'
	DD	01H
	DD	00H
	DD	0ffffffffH
	DD	00H
	DD	040H
	DD	FLAT:??_R3bad_alloc@std@@8
rdata$r	ENDS
;	COMDAT ??_R2bad_alloc@std@@8
rdata$r	SEGMENT
??_R2bad_alloc@std@@8 DD FLAT:??_R1A@?0A@EA@bad_alloc@std@@8 ; std::bad_alloc::`RTTI Base Class Array'
	DD	FLAT:??_R1A@?0A@EA@exception@std@@8
rdata$r	ENDS
;	COMDAT ??_R3bad_alloc@std@@8
rdata$r	SEGMENT
??_R3bad_alloc@std@@8 DD 00H				; std::bad_alloc::`RTTI Class Hierarchy Descriptor'
	DD	00H
	DD	02H
	DD	FLAT:??_R2bad_alloc@std@@8
rdata$r	ENDS
;	COMDAT ??_R4bad_alloc@std@@6B@
rdata$r	SEGMENT
??_R4bad_alloc@std@@6B@ DD 00H				; std::bad_alloc::`RTTI Complete Object Locator'
	DD	00H
	DD	00H
	DD	FLAT:??_R0?AVbad_alloc@std@@@8
	DD	FLAT:??_R3bad_alloc@std@@8
rdata$r	ENDS
;	COMDAT ??_R1A@?0A@EA@exception@std@@8
rdata$r	SEGMENT
??_R1A@?0A@EA@exception@std@@8 DD FLAT:??_R0?AVexception@std@@@8 ; std::exception::`RTTI Base Class Descriptor at (0,-1,0,64)'
	DD	00H
	DD	00H
	DD	0ffffffffH
	DD	00H
	DD	040H
	DD	FLAT:??_R3exception@std@@8
rdata$r	ENDS
;	COMDAT ??_R2exception@std@@8
rdata$r	SEGMENT
??_R2exception@std@@8 DD FLAT:??_R1A@?0A@EA@exception@std@@8 ; std::exception::`RTTI Base Class Array'
rdata$r	ENDS
;	COMDAT ??_R3exception@std@@8
rdata$r	SEGMENT
??_R3exception@std@@8 DD 00H				; std::exception::`RTTI Class Hierarchy Descriptor'
	DD	00H
	DD	01H
	DD	FLAT:??_R2exception@std@@8
rdata$r	ENDS
;	COMDAT ??_R4exception@std@@6B@
rdata$r	SEGMENT
??_R4exception@std@@6B@ DD 00H				; std::exception::`RTTI Complete Object Locator'
	DD	00H
	DD	00H
	DD	FLAT:??_R0?AVexception@std@@@8
	DD	FLAT:??_R3exception@std@@8
rdata$r	ENDS
;	COMDAT ??_C@_0BC@KBDMBKEH@deque?$DMT?$DO?5too?5long@
CONST	SEGMENT
??_C@_0BC@KBDMBKEH@deque?$DMT?$DO?5too?5long@ DB 'deque<T> too long', 00H ; `string'
CONST	ENDS
;	COMDAT ??_7CTree@@6B@
CONST	SEGMENT
??_7CTree@@6B@ DD FLAT:??_R4CTree@@6B@			; CTree::`vftable'
	DD	FLAT:??_ECTree@@UAEPAXI@Z
CONST	ENDS
;	COMDAT __CT??_R0?AVexception@std@@@8??0exception@std@@QAE@ABV01@@Z12
xdata$x	SEGMENT
__CT??_R0?AVexception@std@@@8??0exception@std@@QAE@ABV01@@Z12 DD 00H
	DD	FLAT:??_R0?AVexception@std@@@8
	DD	00H
	DD	0ffffffffH
	ORG $+4
	DD	0cH
	DD	FLAT:??0exception@std@@QAE@ABV01@@Z
xdata$x	ENDS
;	COMDAT ??_R0?AVexception@std@@@8
data$r	SEGMENT
??_R0?AVexception@std@@@8 DD FLAT:??_7type_info@@6B@	; std::exception `RTTI Type Descriptor'
	DD	00H
	DB	'.?AVexception@std@@', 00H
data$r	ENDS
;	COMDAT __CT??_R0?AVbad_alloc@std@@@8??0bad_alloc@std@@QAE@ABV01@@Z12
xdata$x	SEGMENT
__CT??_R0?AVbad_alloc@std@@@8??0bad_alloc@std@@QAE@ABV01@@Z12 DD 010H
	DD	FLAT:??_R0?AVbad_alloc@std@@@8
	DD	00H
	DD	0ffffffffH
	ORG $+4
	DD	0cH
	DD	FLAT:??0bad_alloc@std@@QAE@ABV01@@Z
xdata$x	ENDS
;	COMDAT ??_R0?AVbad_alloc@std@@@8
data$r	SEGMENT
??_R0?AVbad_alloc@std@@@8 DD FLAT:??_7type_info@@6B@	; std::bad_alloc `RTTI Type Descriptor'
	DD	00H
	DB	'.?AVbad_alloc@std@@', 00H
data$r	ENDS
;	COMDAT __CT??_R0?AVbad_array_new_length@std@@@8??0bad_array_new_length@std@@QAE@ABV01@@Z12
xdata$x	SEGMENT
__CT??_R0?AVbad_array_new_length@std@@@8??0bad_array_new_length@std@@QAE@ABV01@@Z12 DD 00H
	DD	FLAT:??_R0?AVbad_array_new_length@std@@@8
	DD	00H
	DD	0ffffffffH
	ORG $+4
	DD	0cH
	DD	FLAT:??0bad_array_new_length@std@@QAE@ABV01@@Z
xdata$x	ENDS
;	COMDAT ??_R0?AVbad_array_new_length@std@@@8
data$r	SEGMENT
??_R0?AVbad_array_new_length@std@@@8 DD FLAT:??_7type_info@@6B@ ; std::bad_array_new_length `RTTI Type Descriptor'
	DD	00H
	DB	'.?AVbad_array_new_length@std@@', 00H
data$r	ENDS
;	COMDAT __CTA3?AVbad_array_new_length@std@@
xdata$x	SEGMENT
__CTA3?AVbad_array_new_length@std@@ DD 03H
	DD	FLAT:__CT??_R0?AVbad_array_new_length@std@@@8??0bad_array_new_length@std@@QAE@ABV01@@Z12
	DD	FLAT:__CT??_R0?AVbad_alloc@std@@@8??0bad_alloc@std@@QAE@ABV01@@Z12
	DD	FLAT:__CT??_R0?AVexception@std@@@8??0exception@std@@QAE@ABV01@@Z12
xdata$x	ENDS
;	COMDAT __TI3?AVbad_array_new_length@std@@
xdata$x	SEGMENT
__TI3?AVbad_array_new_length@std@@ DD 00H
	DD	FLAT:??1bad_array_new_length@std@@UAE@XZ
	DD	00H
	DD	FLAT:__CTA3?AVbad_array_new_length@std@@
xdata$x	ENDS
;	COMDAT ??_C@_0BF@KINCDENJ@bad?5array?5new?5length@
CONST	SEGMENT
??_C@_0BF@KINCDENJ@bad?5array?5new?5length@ DB 'bad array new length', 00H ; `string'
CONST	ENDS
;	COMDAT ??_7bad_array_new_length@std@@6B@
CONST	SEGMENT
??_7bad_array_new_length@std@@6B@ DD FLAT:??_R4bad_array_new_length@std@@6B@ ; std::bad_array_new_length::`vftable'
	DD	FLAT:??_Ebad_array_new_length@std@@UAEPAXI@Z
	DD	FLAT:?what@exception@std@@UBEPBDXZ
CONST	ENDS
;	COMDAT ??_7bad_alloc@std@@6B@
CONST	SEGMENT
??_7bad_alloc@std@@6B@ DD FLAT:??_R4bad_alloc@std@@6B@	; std::bad_alloc::`vftable'
	DD	FLAT:??_Ebad_alloc@std@@UAEPAXI@Z
	DD	FLAT:?what@exception@std@@UBEPBDXZ
CONST	ENDS
;	COMDAT ??_C@_0BC@EOODALEL@Unknown?5exception@
CONST	SEGMENT
??_C@_0BC@EOODALEL@Unknown?5exception@ DB 'Unknown exception', 00H ; `string'
CONST	ENDS
;	COMDAT ??_7exception@std@@6B@
CONST	SEGMENT
??_7exception@std@@6B@ DD FLAT:??_R4exception@std@@6B@	; std::exception::`vftable'
	DD	FLAT:??_Eexception@std@@UAEPAXI@Z
	DD	FLAT:?what@exception@std@@UBEPBDXZ
CONST	ENDS
;	COMDAT xdata$x
xdata$x	SEGMENT
__unwindtable$?DeleteElement@CElementTree@@QAE_NW4ElementType@CToolEnumData@@@Z DD 0ffffffffH
	DD	FLAT:__unwindfunclet$?DeleteElement@CElementTree@@QAE_NW4ElementType@CToolEnumData@@@Z$0
__ehfuncinfo$?DeleteElement@CElementTree@@QAE_NW4ElementType@CToolEnumData@@@Z DD 019930522H
	DD	01H
	DD	FLAT:__unwindtable$?DeleteElement@CElementTree@@QAE_NW4ElementType@CToolEnumData@@@Z
	DD	2 DUP(00H)
	DD	2 DUP(00H)
	DD	00H
	DD	01H
xdata$x	ENDS
;	COMDAT xdata$x
xdata$x	SEGMENT
__unwindtable$?DeleteRowSet@CElementTree@@QAEXABVCBlockIndex@@@Z DD 0ffffffffH
	DD	FLAT:__unwindfunclet$?DeleteRowSet@CElementTree@@QAEXABVCBlockIndex@@@Z$0
__ehfuncinfo$?DeleteRowSet@CElementTree@@QAEXABVCBlockIndex@@@Z DD 019930522H
	DD	01H
	DD	FLAT:__unwindtable$?DeleteRowSet@CElementTree@@QAEXABVCBlockIndex@@@Z
	DD	2 DUP(00H)
	DD	2 DUP(00H)
	DD	00H
	DD	01H
xdata$x	ENDS
;	COMDAT xdata$x
xdata$x	SEGMENT
__unwindtable$?GetSavedElementsData@CElementTree@@QBE?AV?$CStringT@DV?$StrTraitMFC_DLL@DV?$ChTraitsCRT@D@ATL@@@@@ATL@@XZ DD 0ffffffffH
	DD	FLAT:__unwindfunclet$?GetSavedElementsData@CElementTree@@QBE?AV?$CStringT@DV?$StrTraitMFC_DLL@DV?$ChTraitsCRT@D@ATL@@@@@ATL@@XZ$1
	DD	00H
	DD	FLAT:__unwindfunclet$?GetSavedElementsData@CElementTree@@QBE?AV?$CStringT@DV?$StrTraitMFC_DLL@DV?$ChTraitsCRT@D@ATL@@@@@ATL@@XZ$2
	DD	01H
	DD	FLAT:__unwindfunclet$?GetSavedElementsData@CElementTree@@QBE?AV?$CStringT@DV?$StrTraitMFC_DLL@DV?$ChTraitsCRT@D@ATL@@@@@ATL@@XZ$3
__ehfuncinfo$?GetSavedElementsData@CElementTree@@QBE?AV?$CStringT@DV?$StrTraitMFC_DLL@DV?$ChTraitsCRT@D@ATL@@@@@ATL@@XZ DD 019930522H
	DD	03H
	DD	FLAT:__unwindtable$?GetSavedElementsData@CElementTree@@QBE?AV?$CStringT@DV?$StrTraitMFC_DLL@DV?$ChTraitsCRT@D@ATL@@@@@ATL@@XZ
	DD	2 DUP(00H)
	DD	2 DUP(00H)
	DD	00H
	DD	01H
xdata$x	ENDS
;	COMDAT xdata$x
xdata$x	SEGMENT
__unwindtable$??_GCTree@@UAEPAXI@Z DD 0ffffffffH
	DD	FLAT:___std_terminate
__ehfuncinfo$??_GCTree@@UAEPAXI@Z DD 019930522H
	DD	01H
	DD	FLAT:__unwindtable$??_GCTree@@UAEPAXI@Z
	DD	2 DUP(00H)
	DD	2 DUP(00H)
	DD	00H
	DD	05H
xdata$x	ENDS
;	COMDAT xdata$x
xdata$x	SEGMENT
__unwindtable$?GetSavedElementsData@CTree@@QBE?AV?$CStringT@DV?$StrTraitMFC_DLL@DV?$ChTraitsCRT@D@ATL@@@@@ATL@@ABVCOrder@@@Z DD 0ffffffffH
	DD	FLAT:__unwindfunclet$?GetSavedElementsData@CTree@@QBE?AV?$CStringT@DV?$StrTraitMFC_DLL@DV?$ChTraitsCRT@D@ATL@@@@@ATL@@ABVCOrder@@@Z$0
	DD	00H
	DD	FLAT:__unwindfunclet$?GetSavedElementsData@CTree@@QBE?AV?$CStringT@DV?$StrTraitMFC_DLL@DV?$ChTraitsCRT@D@ATL@@@@@ATL@@ABVCOrder@@@Z$1
	DD	01H
	DD	FLAT:__unwindfunclet$?GetSavedElementsData@CTree@@QBE?AV?$CStringT@DV?$StrTraitMFC_DLL@DV?$ChTraitsCRT@D@ATL@@@@@ATL@@ABVCOrder@@@Z$2
__ehfuncinfo$?GetSavedElementsData@CTree@@QBE?AV?$CStringT@DV?$StrTraitMFC_DLL@DV?$ChTraitsCRT@D@ATL@@@@@ATL@@ABVCOrder@@@Z DD 019930522H
	DD	03H
	DD	FLAT:__unwindtable$?GetSavedElementsData@CTree@@QBE?AV?$CStringT@DV?$StrTraitMFC_DLL@DV?$ChTraitsCRT@D@ATL@@@@@ATL@@ABVCOrder@@@Z
	DD	2 DUP(00H)
	DD	2 DUP(00H)
	DD	00H
	DD	01H
xdata$x	ENDS
;	COMDAT xdata$x
xdata$x	SEGMENT
__ehfuncinfo$??1CTree@@UAE@XZ DD 019930522H
	DD	00H
	DD	00H
	DD	2 DUP(00H)
	DD	2 DUP(00H)
	DD	00H
	DD	05H
xdata$x	ENDS
; Function compile flags: /Ogtp
; File C:\Program Files (x86)\Microsoft Visual Studio\2019\Community\VC\Tools\MSVC\14.29.30133\include\xutility
;	COMDAT ??$_Copy_memmove@PAPAPAVCElement@@PAPAPAV1@@std@@YAPAPAPAVCElement@@PAPAPAV1@00@Z
_TEXT	SEGMENT
__First$ = 8						; size = 4
__Last$ = 12						; size = 4
__Dest$ = 16						; size = 4
??$_Copy_memmove@PAPAPAVCElement@@PAPAPAV1@@std@@YAPAPAPAVCElement@@PAPAPAV1@00@Z PROC ; std::_Copy_memmove<CElement * * *,CElement * * *>, COMDAT

; 4058 : _OutCtgIt _Copy_memmove(_CtgIt _First, _CtgIt _Last, _OutCtgIt _Dest) {

  00000	55		 push	 ebp
  00001	8b ec		 mov	 ebp, esp

; 4059 :     auto _FirstPtr              = _To_address(_First);
; 4060 :     auto _LastPtr               = _To_address(_Last);
; 4061 :     auto _DestPtr               = _To_address(_Dest);
; 4062 :     const char* const _First_ch = const_cast<const char*>(reinterpret_cast<const volatile char*>(_FirstPtr));
; 4063 :     const char* const _Last_ch  = const_cast<const char*>(reinterpret_cast<const volatile char*>(_LastPtr));
; 4064 :     char* const _Dest_ch        = const_cast<char*>(reinterpret_cast<const volatile char*>(_DestPtr));
; 4065 :     const auto _Count           = static_cast<size_t>(_Last_ch - _First_ch);

  00003	8b 45 08	 mov	 eax, DWORD PTR __First$[ebp]
  00006	56		 push	 esi

; 4066 :     _CSTD memmove(_Dest_ch, _First_ch, _Count);

  00007	8b 75 10	 mov	 esi, DWORD PTR __Dest$[ebp]
  0000a	57		 push	 edi
  0000b	8b 7d 0c	 mov	 edi, DWORD PTR __Last$[ebp]
  0000e	2b f8		 sub	 edi, eax
  00010	57		 push	 edi
  00011	50		 push	 eax
  00012	56		 push	 esi
  00013	e8 00 00 00 00	 call	 _memmove
  00018	83 c4 0c	 add	 esp, 12			; 0000000cH

; 4067 :     if constexpr (is_pointer_v<_OutCtgIt>) {
; 4068 :         return reinterpret_cast<_OutCtgIt>(_Dest_ch + _Count);

  0001b	8d 04 37	 lea	 eax, DWORD PTR [edi+esi]
  0001e	5f		 pop	 edi
  0001f	5e		 pop	 esi

; 4069 :     } else {
; 4070 :         return _Dest + (_LastPtr - _FirstPtr);
; 4071 :     }
; 4072 : }

  00020	5d		 pop	 ebp
  00021	c3		 ret	 0
??$_Copy_memmove@PAPAPAVCElement@@PAPAPAV1@@std@@YAPAPAPAVCElement@@PAPAPAV1@00@Z ENDP ; std::_Copy_memmove<CElement * * *,CElement * * *>
_TEXT	ENDS
; Function compile flags: /Ogtp
; File C:\Program Files (x86)\Microsoft Visual Studio\2019\Community\VC\Tools\MSVC\14.29.30133\include\xmemory
;	COMDAT ??$_Zero_range@PAPAPAVCElement@@@std@@YAPAPAPAVCElement@@QAPAPAV1@0@Z
_TEXT	SEGMENT
__First$ = 8						; size = 4
__Last$ = 12						; size = 4
??$_Zero_range@PAPAPAVCElement@@@std@@YAPAPAPAVCElement@@QAPAPAV1@0@Z PROC ; std::_Zero_range<CElement * * *>, COMDAT

; 1789 : _Ptr _Zero_range(const _Ptr _First, const _Ptr _Last) { // fill [_First, _Last) with zeroes

  00000	55		 push	 ebp
  00001	8b ec		 mov	 ebp, esp

; 1790 :     char* const _First_ch = reinterpret_cast<char*>(_To_address(_First));
; 1791 :     char* const _Last_ch  = reinterpret_cast<char*>(_To_address(_Last));
; 1792 :     _CSTD memset(_First_ch, 0, static_cast<size_t>(_Last_ch - _First_ch));

  00003	8b 55 08	 mov	 edx, DWORD PTR __First$[ebp]
  00006	8b 4d 0c	 mov	 ecx, DWORD PTR __Last$[ebp]
  00009	2b ca		 sub	 ecx, edx
  0000b	51		 push	 ecx
  0000c	6a 00		 push	 0
  0000e	52		 push	 edx
  0000f	e8 00 00 00 00	 call	 _memset

; 1793 :     return _Last;

  00014	8b 45 0c	 mov	 eax, DWORD PTR __Last$[ebp]
  00017	83 c4 0c	 add	 esp, 12			; 0000000cH

; 1794 : }

  0001a	5d		 pop	 ebp
  0001b	c3		 ret	 0
??$_Zero_range@PAPAPAVCElement@@@std@@YAPAPAPAVCElement@@QAPAPAV1@0@Z ENDP ; std::_Zero_range<CElement * * *>
_TEXT	ENDS
; Function compile flags: /Ogtp
; File C:\Program Files (x86)\Microsoft Visual Studio\2019\Community\VC\Tools\MSVC\14.29.30133\include\xutility
;	COMDAT ??$_Copy_memmove@PAPAPAVCColumnSet@@PAPAPAV1@@std@@YAPAPAPAVCColumnSet@@PAPAPAV1@00@Z
_TEXT	SEGMENT
__First$ = 8						; size = 4
__Last$ = 12						; size = 4
__Dest$ = 16						; size = 4
??$_Copy_memmove@PAPAPAVCColumnSet@@PAPAPAV1@@std@@YAPAPAPAVCColumnSet@@PAPAPAV1@00@Z PROC ; std::_Copy_memmove<CColumnSet * * *,CColumnSet * * *>, COMDAT

; 4058 : _OutCtgIt _Copy_memmove(_CtgIt _First, _CtgIt _Last, _OutCtgIt _Dest) {

  00000	55		 push	 ebp
  00001	8b ec		 mov	 ebp, esp

; 4059 :     auto _FirstPtr              = _To_address(_First);
; 4060 :     auto _LastPtr               = _To_address(_Last);
; 4061 :     auto _DestPtr               = _To_address(_Dest);
; 4062 :     const char* const _First_ch = const_cast<const char*>(reinterpret_cast<const volatile char*>(_FirstPtr));
; 4063 :     const char* const _Last_ch  = const_cast<const char*>(reinterpret_cast<const volatile char*>(_LastPtr));
; 4064 :     char* const _Dest_ch        = const_cast<char*>(reinterpret_cast<const volatile char*>(_DestPtr));
; 4065 :     const auto _Count           = static_cast<size_t>(_Last_ch - _First_ch);

  00003	8b 45 08	 mov	 eax, DWORD PTR __First$[ebp]
  00006	56		 push	 esi

; 4066 :     _CSTD memmove(_Dest_ch, _First_ch, _Count);

  00007	8b 75 10	 mov	 esi, DWORD PTR __Dest$[ebp]
  0000a	57		 push	 edi
  0000b	8b 7d 0c	 mov	 edi, DWORD PTR __Last$[ebp]
  0000e	2b f8		 sub	 edi, eax
  00010	57		 push	 edi
  00011	50		 push	 eax
  00012	56		 push	 esi
  00013	e8 00 00 00 00	 call	 _memmove
  00018	83 c4 0c	 add	 esp, 12			; 0000000cH

; 4067 :     if constexpr (is_pointer_v<_OutCtgIt>) {
; 4068 :         return reinterpret_cast<_OutCtgIt>(_Dest_ch + _Count);

  0001b	8d 04 37	 lea	 eax, DWORD PTR [edi+esi]
  0001e	5f		 pop	 edi
  0001f	5e		 pop	 esi

; 4069 :     } else {
; 4070 :         return _Dest + (_LastPtr - _FirstPtr);
; 4071 :     }
; 4072 : }

  00020	5d		 pop	 ebp
  00021	c3		 ret	 0
??$_Copy_memmove@PAPAPAVCColumnSet@@PAPAPAV1@@std@@YAPAPAPAVCColumnSet@@PAPAPAV1@00@Z ENDP ; std::_Copy_memmove<CColumnSet * * *,CColumnSet * * *>
_TEXT	ENDS
; Function compile flags: /Ogtp
; File C:\Program Files (x86)\Microsoft Visual Studio\2019\Community\VC\Tools\MSVC\14.29.30133\include\xmemory
;	COMDAT ??$_Uninitialized_value_construct_n_unchecked1@PAPAPAVCElement@@I@std@@YAPAPAPAVCElement@@PAPAPAV1@I@Z
_TEXT	SEGMENT
__UFirst$ = 8						; size = 4
__Count$ = 12						; size = 4
??$_Uninitialized_value_construct_n_unchecked1@PAPAPAVCElement@@I@std@@YAPAPAPAVCElement@@PAPAPAV1@I@Z PROC ; std::_Uninitialized_value_construct_n_unchecked1<CElement * * *,unsigned int>, COMDAT

; 1821 : _NoThrowFwdIt _Uninitialized_value_construct_n_unchecked1(_NoThrowFwdIt _UFirst, _Diff _Count) {

  00000	55		 push	 ebp
  00001	8b ec		 mov	 ebp, esp

; 1822 :     // value-initialize all elements in [_UFirst, _UFirst + _Count_raw)
; 1823 :     _STL_INTERNAL_CHECK(_Count >= 0);
; 1824 :     if constexpr (_Use_memset_value_construct_v<_NoThrowFwdIt>) {
; 1825 :         return _Zero_range(_UFirst, _UFirst + _Count);

  00003	8b 45 0c	 mov	 eax, DWORD PTR __Count$[ebp]
  00006	56		 push	 esi

; 1792 :     _CSTD memset(_First_ch, 0, static_cast<size_t>(_Last_ch - _First_ch));

  00007	8b 75 08	 mov	 esi, DWORD PTR __UFirst$[ebp]

; 1821 : _NoThrowFwdIt _Uninitialized_value_construct_n_unchecked1(_NoThrowFwdIt _UFirst, _Diff _Count) {

  0000a	57		 push	 edi

; 1822 :     // value-initialize all elements in [_UFirst, _UFirst + _Count_raw)
; 1823 :     _STL_INTERNAL_CHECK(_Count >= 0);
; 1824 :     if constexpr (_Use_memset_value_construct_v<_NoThrowFwdIt>) {
; 1825 :         return _Zero_range(_UFirst, _UFirst + _Count);

  0000b	8d 3c 85 00 00
	00 00		 lea	 edi, DWORD PTR [eax*4]

; 1792 :     _CSTD memset(_First_ch, 0, static_cast<size_t>(_Last_ch - _First_ch));

  00012	57		 push	 edi
  00013	6a 00		 push	 0
  00015	56		 push	 esi
  00016	e8 00 00 00 00	 call	 _memset
  0001b	83 c4 0c	 add	 esp, 12			; 0000000cH

; 1822 :     // value-initialize all elements in [_UFirst, _UFirst + _Count_raw)
; 1823 :     _STL_INTERNAL_CHECK(_Count >= 0);
; 1824 :     if constexpr (_Use_memset_value_construct_v<_NoThrowFwdIt>) {
; 1825 :         return _Zero_range(_UFirst, _UFirst + _Count);

  0001e	8d 04 37	 lea	 eax, DWORD PTR [edi+esi]
  00021	5f		 pop	 edi
  00022	5e		 pop	 esi

; 1826 :     } else {
; 1827 :         _Uninitialized_backout<_NoThrowFwdIt> _Backout{_UFirst};
; 1828 :         for (; 0 < _Count; --_Count) {
; 1829 :             _Backout._Emplace_back();
; 1830 :         }
; 1831 : 
; 1832 :         return _Backout._Release();
; 1833 :     }
; 1834 : }

  00023	5d		 pop	 ebp
  00024	c3		 ret	 0
??$_Uninitialized_value_construct_n_unchecked1@PAPAPAVCElement@@I@std@@YAPAPAPAVCElement@@PAPAPAV1@I@Z ENDP ; std::_Uninitialized_value_construct_n_unchecked1<CElement * * *,unsigned int>
_TEXT	ENDS
; Function compile flags: /Ogtp
; File C:\Program Files (x86)\Microsoft Visual Studio\2019\Community\VC\Tools\MSVC\14.29.30133\include\xmemory
; File C:\Program Files (x86)\Microsoft Visual Studio\2019\Community\VC\Tools\MSVC\14.29.30133\include\xutility
; File C:\Program Files (x86)\Microsoft Visual Studio\2019\Community\VC\Tools\MSVC\14.29.30133\include\xmemory
; File C:\Program Files (x86)\Microsoft Visual Studio\2019\Community\VC\Tools\MSVC\14.29.30133\include\xutility
; File C:\Program Files (x86)\Microsoft Visual Studio\2019\Community\VC\Tools\MSVC\14.29.30133\include\xmemory
; File C:\Program Files (x86)\Microsoft Visual Studio\2019\Community\VC\Tools\MSVC\14.29.30133\include\xutility
; File C:\Program Files (x86)\Microsoft Visual Studio\2019\Community\VC\Tools\MSVC\14.29.30133\include\xmemory
;	COMDAT ??$uninitialized_copy@PAPAPAVCElement@@PAPAPAV1@@std@@YAPAPAPAVCElement@@QAPAPAV1@0PAPAPAV1@@Z
_TEXT	SEGMENT
__First$ = 8						; size = 4
__Last$ = 12						; size = 4
__Dest$ = 16						; size = 4
??$uninitialized_copy@PAPAPAVCElement@@PAPAPAV1@@std@@YAPAPAPAVCElement@@QAPAPAV1@0PAPAPAV1@@Z PROC ; std::uninitialized_copy<CElement * * *,CElement * * *>, COMDAT

; 1687 : _NoThrowFwdIt uninitialized_copy(const _InIt _First, const _InIt _Last, _NoThrowFwdIt _Dest) {

  00000	55		 push	 ebp
  00001	8b ec		 mov	 ebp, esp
; File C:\Program Files (x86)\Microsoft Visual Studio\2019\Community\VC\Tools\MSVC\14.29.30133\include\xutility

; 4065 :     const auto _Count           = static_cast<size_t>(_Last_ch - _First_ch);

  00003	8b 45 08	 mov	 eax, DWORD PTR __First$[ebp]
; File C:\Program Files (x86)\Microsoft Visual Studio\2019\Community\VC\Tools\MSVC\14.29.30133\include\xmemory

; 1687 : _NoThrowFwdIt uninitialized_copy(const _InIt _First, const _InIt _Last, _NoThrowFwdIt _Dest) {

  00006	56		 push	 esi
; File C:\Program Files (x86)\Microsoft Visual Studio\2019\Community\VC\Tools\MSVC\14.29.30133\include\xutility

; 4066 :     _CSTD memmove(_Dest_ch, _First_ch, _Count);

  00007	8b 75 10	 mov	 esi, DWORD PTR __Dest$[ebp]
; File C:\Program Files (x86)\Microsoft Visual Studio\2019\Community\VC\Tools\MSVC\14.29.30133\include\xmemory

; 1687 : _NoThrowFwdIt uninitialized_copy(const _InIt _First, const _InIt _Last, _NoThrowFwdIt _Dest) {

  0000a	57		 push	 edi
; File C:\Program Files (x86)\Microsoft Visual Studio\2019\Community\VC\Tools\MSVC\14.29.30133\include\xutility

; 4065 :     const auto _Count           = static_cast<size_t>(_Last_ch - _First_ch);

  0000b	8b 7d 0c	 mov	 edi, DWORD PTR __Last$[ebp]
  0000e	2b f8		 sub	 edi, eax

; 4066 :     _CSTD memmove(_Dest_ch, _First_ch, _Count);

  00010	57		 push	 edi
  00011	50		 push	 eax
  00012	56		 push	 esi
  00013	e8 00 00 00 00	 call	 _memmove
  00018	83 c4 0c	 add	 esp, 12			; 0000000cH

; 4067 :     if constexpr (is_pointer_v<_OutCtgIt>) {
; 4068 :         return reinterpret_cast<_OutCtgIt>(_Dest_ch + _Count);

  0001b	8d 04 37	 lea	 eax, DWORD PTR [edi+esi]
; File C:\Program Files (x86)\Microsoft Visual Studio\2019\Community\VC\Tools\MSVC\14.29.30133\include\xmemory

; 1694 :     return _Dest;

  0001e	5f		 pop	 edi
  0001f	5e		 pop	 esi

; 1695 : }

  00020	5d		 pop	 ebp
  00021	c3		 ret	 0
??$uninitialized_copy@PAPAPAVCElement@@PAPAPAV1@@std@@YAPAPAPAVCElement@@QAPAPAV1@0PAPAPAV1@@Z ENDP ; std::uninitialized_copy<CElement * * *,CElement * * *>
_TEXT	ENDS
; Function compile flags: /Ogtp
; File C:\Program Files (x86)\Microsoft Visual Studio\2019\Community\VC\Tools\MSVC\14.29.30133\include\xmemory
;	COMDAT ??$_Allocate_manually_vector_aligned@U_Default_allocate_traits@std@@@std@@YAPAXI@Z
_TEXT	SEGMENT
__Bytes$ = 8						; size = 4
??$_Allocate_manually_vector_aligned@U_Default_allocate_traits@std@@@std@@YAPAXI@Z PROC ; std::_Allocate_manually_vector_aligned<std::_Default_allocate_traits>, COMDAT

; 127  : __declspec(allocator) void* _Allocate_manually_vector_aligned(const size_t _Bytes) {

  00000	55		 push	 ebp
  00001	8b ec		 mov	 ebp, esp

; 128  :     // allocate _Bytes manually aligned to at least _Big_allocation_alignment
; 129  :     const size_t _Block_size = _Non_user_size + _Bytes;

  00003	8b 45 08	 mov	 eax, DWORD PTR __Bytes$[ebp]
  00006	8d 48 23	 lea	 ecx, DWORD PTR [eax+35]

; 130  :     if (_Block_size <= _Bytes) {

  00009	3b c8		 cmp	 ecx, eax
  0000b	0f 86 00 00 00
	00		 jbe	 ?_Throw_bad_array_new_length@std@@YAXXZ ; std::_Throw_bad_array_new_length

; 79   :         return ::operator new(_Bytes);

  00011	51		 push	 ecx
  00012	e8 00 00 00 00	 call	 ??2@YAPAXI@Z		; operator new

; 131  :         _Throw_bad_array_new_length(); // add overflow
; 132  :     }
; 133  : 
; 134  :     const uintptr_t _Ptr_container = reinterpret_cast<uintptr_t>(_Traits::_Allocate(_Block_size));

  00017	8b c8		 mov	 ecx, eax

; 79   :         return ::operator new(_Bytes);

  00019	83 c4 04	 add	 esp, 4

; 135  :     _STL_VERIFY(_Ptr_container != 0, "invalid argument"); // validate even in release since we're doing p[-1]

  0001c	85 c9		 test	 ecx, ecx
  0001e	74 0b		 je	 SHORT $LN7@Allocate_m

; 136  :     void* const _Ptr = reinterpret_cast<void*>((_Ptr_container + _Non_user_size) & ~(_Big_allocation_alignment - 1));

  00020	8d 41 23	 lea	 eax, DWORD PTR [ecx+35]
  00023	83 e0 e0	 and	 eax, -32		; ffffffe0H

; 137  :     static_cast<uintptr_t*>(_Ptr)[-1] = _Ptr_container;

  00026	89 48 fc	 mov	 DWORD PTR [eax-4], ecx

; 138  : 
; 139  : #ifdef _DEBUG
; 140  :     static_cast<uintptr_t*>(_Ptr)[-2] = _Big_allocation_sentinel;
; 141  : #endif // _DEBUG
; 142  :     return _Ptr;
; 143  : }

  00029	5d		 pop	 ebp
  0002a	c3		 ret	 0
$LN7@Allocate_m:

; 135  :     _STL_VERIFY(_Ptr_container != 0, "invalid argument"); // validate even in release since we're doing p[-1]

  0002b	ff 25 00 00 00
	00		 jmp	 DWORD PTR __imp___invalid_parameter_noinfo_noreturn
??$_Allocate_manually_vector_aligned@U_Default_allocate_traits@std@@@std@@YAPAXI@Z ENDP ; std::_Allocate_manually_vector_aligned<std::_Default_allocate_traits>
_TEXT	ENDS
; Function compile flags: /Ogtp
; File C:\Program Files (x86)\Microsoft Visual Studio\2019\Community\VC\Tools\MSVC\14.29.30133\include\xmemory
;	COMDAT ??$_Zero_range@PAPAPAVCColumnSet@@@std@@YAPAPAPAVCColumnSet@@QAPAPAV1@0@Z
_TEXT	SEGMENT
__First$ = 8						; size = 4
__Last$ = 12						; size = 4
??$_Zero_range@PAPAPAVCColumnSet@@@std@@YAPAPAPAVCColumnSet@@QAPAPAV1@0@Z PROC ; std::_Zero_range<CColumnSet * * *>, COMDAT

; 1789 : _Ptr _Zero_range(const _Ptr _First, const _Ptr _Last) { // fill [_First, _Last) with zeroes

  00000	55		 push	 ebp
  00001	8b ec		 mov	 ebp, esp

; 1790 :     char* const _First_ch = reinterpret_cast<char*>(_To_address(_First));
; 1791 :     char* const _Last_ch  = reinterpret_cast<char*>(_To_address(_Last));
; 1792 :     _CSTD memset(_First_ch, 0, static_cast<size_t>(_Last_ch - _First_ch));

  00003	8b 55 08	 mov	 edx, DWORD PTR __First$[ebp]
  00006	8b 4d 0c	 mov	 ecx, DWORD PTR __Last$[ebp]
  00009	2b ca		 sub	 ecx, edx
  0000b	51		 push	 ecx
  0000c	6a 00		 push	 0
  0000e	52		 push	 edx
  0000f	e8 00 00 00 00	 call	 _memset

; 1793 :     return _Last;

  00014	8b 45 0c	 mov	 eax, DWORD PTR __Last$[ebp]
  00017	83 c4 0c	 add	 esp, 12			; 0000000cH

; 1794 : }

  0001a	5d		 pop	 ebp
  0001b	c3		 ret	 0
??$_Zero_range@PAPAPAVCColumnSet@@@std@@YAPAPAPAVCColumnSet@@QAPAPAV1@0@Z ENDP ; std::_Zero_range<CColumnSet * * *>
_TEXT	ENDS
; Function compile flags: /Ogtp
; File C:\Program Files (x86)\Microsoft Visual Studio\2019\Community\VC\Tools\MSVC\14.29.30133\include\xutility
; File C:\Program Files (x86)\Microsoft Visual Studio\2019\Community\VC\Tools\MSVC\14.29.30133\include\deque
; File C:\Program Files (x86)\Microsoft Visual Studio\2019\Community\VC\Tools\MSVC\14.29.30133\include\xutility
; File C:\Program Files (x86)\Microsoft Visual Studio\2019\Community\VC\Tools\MSVC\14.29.30133\include\deque
; File C:\Program Files (x86)\Microsoft Visual Studio\2019\Community\VC\Tools\MSVC\14.29.30133\include\utility
; File C:\Program Files (x86)\Microsoft Visual Studio\2019\Community\VC\Tools\MSVC\14.29.30133\include\deque
; File C:\Program Files (x86)\Microsoft Visual Studio\2019\Community\VC\Tools\MSVC\14.29.30133\include\utility
; File C:\Program Files (x86)\Microsoft Visual Studio\2019\Community\VC\Tools\MSVC\14.29.30133\include\xutility
; File C:\Program Files (x86)\Microsoft Visual Studio\2019\Community\VC\Tools\MSVC\14.29.30133\include\deque
; File C:\Program Files (x86)\Microsoft Visual Studio\2019\Community\VC\Tools\MSVC\14.29.30133\include\xutility
;	COMDAT ??$reverse@V?$_Deque_unchecked_iterator@V?$_Deque_val@U?$_Deque_simple_types@PAVCColumnSet@@@std@@@std@@@std@@@std@@YAXV?$_Deque_unchecked_iterator@V?$_Deque_val@U?$_Deque_simple_types@PAVCColumnSet@@@std@@@std@@@0@0@Z
_TEXT	SEGMENT
__ULast$2$ = -8						; size = 4
__UFirst$2$ = -4					; size = 4
__First$ = 8						; size = 8
__Last$ = 16						; size = 8
??$reverse@V?$_Deque_unchecked_iterator@V?$_Deque_val@U?$_Deque_simple_types@PAVCColumnSet@@@std@@@std@@@std@@@std@@YAXV?$_Deque_unchecked_iterator@V?$_Deque_val@U?$_Deque_simple_types@PAVCColumnSet@@@std@@@std@@@0@0@Z PROC ; std::reverse<std::_Deque_unchecked_iterator<std::_Deque_val<std::_Deque_simple_types<CColumnSet *> > > >, COMDAT

; 5405 : _CONSTEXPR20 void reverse(const _BidIt _First, const _BidIt _Last) { // reverse elements in [_First, _Last)

  00000	55		 push	 ebp
  00001	8b ec		 mov	 ebp, esp
  00003	83 ec 08	 sub	 esp, 8

; 5406 :     _Adl_verify_range(_First, _Last);
; 5407 :     auto _UFirst = _Get_unwrapped(_First);

  00006	8b 45 08	 mov	 eax, DWORD PTR __First$[ebp]

; 5408 :     auto _ULast  = _Get_unwrapped(_Last);

  00009	8b 55 10	 mov	 edx, DWORD PTR __Last$[ebp]
  0000c	53		 push	 ebx
  0000d	8b 5d 0c	 mov	 ebx, DWORD PTR __First$[ebp+4]
  00010	89 45 fc	 mov	 DWORD PTR __UFirst$2$[ebp], eax
  00013	8b 45 14	 mov	 eax, DWORD PTR __Last$[ebp+4]
  00016	89 55 f8	 mov	 DWORD PTR __ULast$2$[ebp], edx
  00019	3b d8		 cmp	 ebx, eax

; 5436 :     for (; _UFirst != _ULast && _UFirst != --_ULast; ++_UFirst) {

  0001b	74 52		 je	 SHORT $LN42@reverse
  0001d	56		 push	 esi
  0001e	8b cb		 mov	 ecx, ebx
  00020	57		 push	 edi
$LL9@reverse:
; File C:\Program Files (x86)\Microsoft Visual Studio\2019\Community\VC\Tools\MSVC\14.29.30133\include\deque

; 67   :         --_Myoff;

  00021	48		 dec	 eax
  00022	3b c8		 cmp	 ecx, eax
; File C:\Program Files (x86)\Microsoft Visual Studio\2019\Community\VC\Tools\MSVC\14.29.30133\include\xutility

; 5436 :     for (; _UFirst != _ULast && _UFirst != --_ULast; ++_UFirst) {

  00024	74 47		 je	 SHORT $LN43@reverse
; File C:\Program Files (x86)\Microsoft Visual Studio\2019\Community\VC\Tools\MSVC\14.29.30133\include\deque

; 559  :         return (_Off / _Block_size) & (_Mapsize - 1);

  00026	8b 4a 08	 mov	 ecx, DWORD PTR [edx+8]
  00029	8b f0		 mov	 esi, eax
  0002b	49		 dec	 ecx
  0002c	c1 ee 02	 shr	 esi, 2
  0002f	23 f1		 and	 esi, ecx

; 48   :         return _Mycont->_Map[_Block][_Off];

  00031	8b 4a 04	 mov	 ecx, DWORD PTR [edx+4]
  00034	8b d0		 mov	 edx, eax
  00036	83 e2 03	 and	 edx, 3
  00039	8b 0c b1	 mov	 ecx, DWORD PTR [ecx+esi*4]
  0003c	8d 3c 91	 lea	 edi, DWORD PTR [ecx+edx*4]

; 559  :         return (_Off / _Block_size) & (_Mapsize - 1);

  0003f	8b 55 fc	 mov	 edx, DWORD PTR __UFirst$2$[ebp]
  00042	8b cb		 mov	 ecx, ebx
  00044	c1 e9 02	 shr	 ecx, 2
  00047	8b 72 08	 mov	 esi, DWORD PTR [edx+8]
  0004a	4e		 dec	 esi
  0004b	23 f1		 and	 esi, ecx

; 48   :         return _Mycont->_Map[_Block][_Off];

  0004d	8b 4a 04	 mov	 ecx, DWORD PTR [edx+4]
  00050	8b d3		 mov	 edx, ebx

; 56   :         ++_Myoff;

  00052	43		 inc	 ebx

; 47   :         _Size_type _Off   = _Myoff % _Block_size;

  00053	83 e2 03	 and	 edx, 3

; 48   :         return _Mycont->_Map[_Block][_Off];

  00056	8b 0c b1	 mov	 ecx, DWORD PTR [ecx+esi*4]
  00059	8d 34 91	 lea	 esi, DWORD PTR [ecx+edx*4]
; File C:\Program Files (x86)\Microsoft Visual Studio\2019\Community\VC\Tools\MSVC\14.29.30133\include\utility

; 101  :     _Left    = _STD move(_Right);

  0005c	8b 0f		 mov	 ecx, DWORD PTR [edi]
  0005e	8b 16		 mov	 edx, DWORD PTR [esi]
  00060	89 0e		 mov	 DWORD PTR [esi], ecx
; File C:\Program Files (x86)\Microsoft Visual Studio\2019\Community\VC\Tools\MSVC\14.29.30133\include\deque

; 56   :         ++_Myoff;

  00062	8b cb		 mov	 ecx, ebx
; File C:\Program Files (x86)\Microsoft Visual Studio\2019\Community\VC\Tools\MSVC\14.29.30133\include\utility

; 102  :     _Right   = _STD move(_Tmp);

  00064	89 17		 mov	 DWORD PTR [edi], edx
; File C:\Program Files (x86)\Microsoft Visual Studio\2019\Community\VC\Tools\MSVC\14.29.30133\include\xutility

; 5436 :     for (; _UFirst != _ULast && _UFirst != --_ULast; ++_UFirst) {

  00066	8b 55 f8	 mov	 edx, DWORD PTR __ULast$2$[ebp]
; File C:\Program Files (x86)\Microsoft Visual Studio\2019\Community\VC\Tools\MSVC\14.29.30133\include\deque

; 106  :         return _Myoff == _Right._Myoff;

  00069	3b d8		 cmp	 ebx, eax
; File C:\Program Files (x86)\Microsoft Visual Studio\2019\Community\VC\Tools\MSVC\14.29.30133\include\xutility

; 5436 :     for (; _UFirst != _ULast && _UFirst != --_ULast; ++_UFirst) {

  0006b	75 b4		 jne	 SHORT $LL9@reverse
$LN43@reverse:
  0006d	5f		 pop	 edi
  0006e	5e		 pop	 esi
$LN42@reverse:
  0006f	5b		 pop	 ebx

; 5437 :         _STD iter_swap(_UFirst, _ULast);
; 5438 :     }
; 5439 : }

  00070	8b e5		 mov	 esp, ebp
  00072	5d		 pop	 ebp
  00073	c3		 ret	 0
??$reverse@V?$_Deque_unchecked_iterator@V?$_Deque_val@U?$_Deque_simple_types@PAVCColumnSet@@@std@@@std@@@std@@@std@@YAXV?$_Deque_unchecked_iterator@V?$_Deque_val@U?$_Deque_simple_types@PAVCColumnSet@@@std@@@std@@@0@0@Z ENDP ; std::reverse<std::_Deque_unchecked_iterator<std::_Deque_val<std::_Deque_simple_types<CColumnSet *> > > >
_TEXT	ENDS
; Function compile flags: /Ogtp
; File C:\Program Files (x86)\Microsoft Visual Studio\2019\Community\VC\Tools\MSVC\14.29.30133\include\xmemory
;	COMDAT ??$_Uninitialized_value_construct_n_unchecked1@PAPAPAVCColumnSet@@I@std@@YAPAPAPAVCColumnSet@@PAPAPAV1@I@Z
_TEXT	SEGMENT
__UFirst$ = 8						; size = 4
__Count$ = 12						; size = 4
??$_Uninitialized_value_construct_n_unchecked1@PAPAPAVCColumnSet@@I@std@@YAPAPAPAVCColumnSet@@PAPAPAV1@I@Z PROC ; std::_Uninitialized_value_construct_n_unchecked1<CColumnSet * * *,unsigned int>, COMDAT

; 1821 : _NoThrowFwdIt _Uninitialized_value_construct_n_unchecked1(_NoThrowFwdIt _UFirst, _Diff _Count) {

  00000	55		 push	 ebp
  00001	8b ec		 mov	 ebp, esp

; 1822 :     // value-initialize all elements in [_UFirst, _UFirst + _Count_raw)
; 1823 :     _STL_INTERNAL_CHECK(_Count >= 0);
; 1824 :     if constexpr (_Use_memset_value_construct_v<_NoThrowFwdIt>) {
; 1825 :         return _Zero_range(_UFirst, _UFirst + _Count);

  00003	8b 45 0c	 mov	 eax, DWORD PTR __Count$[ebp]
  00006	56		 push	 esi

; 1792 :     _CSTD memset(_First_ch, 0, static_cast<size_t>(_Last_ch - _First_ch));

  00007	8b 75 08	 mov	 esi, DWORD PTR __UFirst$[ebp]

; 1821 : _NoThrowFwdIt _Uninitialized_value_construct_n_unchecked1(_NoThrowFwdIt _UFirst, _Diff _Count) {

  0000a	57		 push	 edi

; 1822 :     // value-initialize all elements in [_UFirst, _UFirst + _Count_raw)
; 1823 :     _STL_INTERNAL_CHECK(_Count >= 0);
; 1824 :     if constexpr (_Use_memset_value_construct_v<_NoThrowFwdIt>) {
; 1825 :         return _Zero_range(_UFirst, _UFirst + _Count);

  0000b	8d 3c 85 00 00
	00 00		 lea	 edi, DWORD PTR [eax*4]

; 1792 :     _CSTD memset(_First_ch, 0, static_cast<size_t>(_Last_ch - _First_ch));

  00012	57		 push	 edi
  00013	6a 00		 push	 0
  00015	56		 push	 esi
  00016	e8 00 00 00 00	 call	 _memset
  0001b	83 c4 0c	 add	 esp, 12			; 0000000cH

; 1822 :     // value-initialize all elements in [_UFirst, _UFirst + _Count_raw)
; 1823 :     _STL_INTERNAL_CHECK(_Count >= 0);
; 1824 :     if constexpr (_Use_memset_value_construct_v<_NoThrowFwdIt>) {
; 1825 :         return _Zero_range(_UFirst, _UFirst + _Count);

  0001e	8d 04 37	 lea	 eax, DWORD PTR [edi+esi]
  00021	5f		 pop	 edi
  00022	5e		 pop	 esi

; 1826 :     } else {
; 1827 :         _Uninitialized_backout<_NoThrowFwdIt> _Backout{_UFirst};
; 1828 :         for (; 0 < _Count; --_Count) {
; 1829 :             _Backout._Emplace_back();
; 1830 :         }
; 1831 : 
; 1832 :         return _Backout._Release();
; 1833 :     }
; 1834 : }

  00023	5d		 pop	 ebp
  00024	c3		 ret	 0
??$_Uninitialized_value_construct_n_unchecked1@PAPAPAVCColumnSet@@I@std@@YAPAPAPAVCColumnSet@@PAPAPAV1@I@Z ENDP ; std::_Uninitialized_value_construct_n_unchecked1<CColumnSet * * *,unsigned int>
_TEXT	ENDS
; Function compile flags: /Ogtp
; File C:\Program Files (x86)\Microsoft Visual Studio\2019\Community\VC\Tools\MSVC\14.29.30133\include\xmemory
; File C:\Program Files (x86)\Microsoft Visual Studio\2019\Community\VC\Tools\MSVC\14.29.30133\include\xutility
; File C:\Program Files (x86)\Microsoft Visual Studio\2019\Community\VC\Tools\MSVC\14.29.30133\include\xmemory
; File C:\Program Files (x86)\Microsoft Visual Studio\2019\Community\VC\Tools\MSVC\14.29.30133\include\xutility
; File C:\Program Files (x86)\Microsoft Visual Studio\2019\Community\VC\Tools\MSVC\14.29.30133\include\xmemory
; File C:\Program Files (x86)\Microsoft Visual Studio\2019\Community\VC\Tools\MSVC\14.29.30133\include\xutility
; File C:\Program Files (x86)\Microsoft Visual Studio\2019\Community\VC\Tools\MSVC\14.29.30133\include\xmemory
;	COMDAT ??$uninitialized_copy@PAPAPAVCColumnSet@@PAPAPAV1@@std@@YAPAPAPAVCColumnSet@@QAPAPAV1@0PAPAPAV1@@Z
_TEXT	SEGMENT
__First$ = 8						; size = 4
__Last$ = 12						; size = 4
__Dest$ = 16						; size = 4
??$uninitialized_copy@PAPAPAVCColumnSet@@PAPAPAV1@@std@@YAPAPAPAVCColumnSet@@QAPAPAV1@0PAPAPAV1@@Z PROC ; std::uninitialized_copy<CColumnSet * * *,CColumnSet * * *>, COMDAT

; 1687 : _NoThrowFwdIt uninitialized_copy(const _InIt _First, const _InIt _Last, _NoThrowFwdIt _Dest) {

  00000	55		 push	 ebp
  00001	8b ec		 mov	 ebp, esp
; File C:\Program Files (x86)\Microsoft Visual Studio\2019\Community\VC\Tools\MSVC\14.29.30133\include\xutility

; 4065 :     const auto _Count           = static_cast<size_t>(_Last_ch - _First_ch);

  00003	8b 45 08	 mov	 eax, DWORD PTR __First$[ebp]
; File C:\Program Files (x86)\Microsoft Visual Studio\2019\Community\VC\Tools\MSVC\14.29.30133\include\xmemory

; 1687 : _NoThrowFwdIt uninitialized_copy(const _InIt _First, const _InIt _Last, _NoThrowFwdIt _Dest) {

  00006	56		 push	 esi
; File C:\Program Files (x86)\Microsoft Visual Studio\2019\Community\VC\Tools\MSVC\14.29.30133\include\xutility

; 4066 :     _CSTD memmove(_Dest_ch, _First_ch, _Count);

  00007	8b 75 10	 mov	 esi, DWORD PTR __Dest$[ebp]
; File C:\Program Files (x86)\Microsoft Visual Studio\2019\Community\VC\Tools\MSVC\14.29.30133\include\xmemory

; 1687 : _NoThrowFwdIt uninitialized_copy(const _InIt _First, const _InIt _Last, _NoThrowFwdIt _Dest) {

  0000a	57		 push	 edi
; File C:\Program Files (x86)\Microsoft Visual Studio\2019\Community\VC\Tools\MSVC\14.29.30133\include\xutility

; 4065 :     const auto _Count           = static_cast<size_t>(_Last_ch - _First_ch);

  0000b	8b 7d 0c	 mov	 edi, DWORD PTR __Last$[ebp]
  0000e	2b f8		 sub	 edi, eax

; 4066 :     _CSTD memmove(_Dest_ch, _First_ch, _Count);

  00010	57		 push	 edi
  00011	50		 push	 eax
  00012	56		 push	 esi
  00013	e8 00 00 00 00	 call	 _memmove
  00018	83 c4 0c	 add	 esp, 12			; 0000000cH

; 4067 :     if constexpr (is_pointer_v<_OutCtgIt>) {
; 4068 :         return reinterpret_cast<_OutCtgIt>(_Dest_ch + _Count);

  0001b	8d 04 37	 lea	 eax, DWORD PTR [edi+esi]
; File C:\Program Files (x86)\Microsoft Visual Studio\2019\Community\VC\Tools\MSVC\14.29.30133\include\xmemory

; 1694 :     return _Dest;

  0001e	5f		 pop	 edi
  0001f	5e		 pop	 esi

; 1695 : }

  00020	5d		 pop	 ebp
  00021	c3		 ret	 0
??$uninitialized_copy@PAPAPAVCColumnSet@@PAPAPAV1@@std@@YAPAPAPAVCColumnSet@@QAPAPAV1@0PAPAPAV1@@Z ENDP ; std::uninitialized_copy<CColumnSet * * *,CColumnSet * * *>
_TEXT	ENDS
; Function compile flags: /Ogtp
; File C:\Program Files (x86)\Microsoft Visual Studio\2019\Community\VC\Tools\MSVC\14.29.30133\include\xutility
; File C:\Program Files (x86)\Microsoft Visual Studio\2019\Community\VC\Tools\MSVC\14.29.30133\include\xmemory
; File C:\Program Files (x86)\Microsoft Visual Studio\2019\Community\VC\Tools\MSVC\14.29.30133\include\xutility
; File C:\Program Files (x86)\Microsoft Visual Studio\2019\Community\VC\Tools\MSVC\14.29.30133\include\xmemory
; File C:\Program Files (x86)\Microsoft Visual Studio\2019\Community\VC\Tools\MSVC\14.29.30133\include\deque
; File C:\Program Files (x86)\Microsoft Visual Studio\2019\Community\VC\Tools\MSVC\14.29.30133\include\xmemory
; File C:\Program Files (x86)\Microsoft Visual Studio\2019\Community\VC\Tools\MSVC\14.29.30133\include\deque
; File C:\Program Files (x86)\Microsoft Visual Studio\2019\Community\VC\Tools\MSVC\14.29.30133\include\xmemory
; File C:\Program Files (x86)\Microsoft Visual Studio\2019\Community\VC\Tools\MSVC\14.29.30133\include\deque
; File C:\Program Files (x86)\Microsoft Visual Studio\2019\Community\VC\Tools\MSVC\14.29.30133\include\xutility
; File C:\Program Files (x86)\Microsoft Visual Studio\2019\Community\VC\Tools\MSVC\14.29.30133\include\xmemory
; File C:\Program Files (x86)\Microsoft Visual Studio\2019\Community\VC\Tools\MSVC\14.29.30133\include\xutility
; File C:\Program Files (x86)\Microsoft Visual Studio\2019\Community\VC\Tools\MSVC\14.29.30133\include\deque
; File C:\Program Files (x86)\Microsoft Visual Studio\2019\Community\VC\Tools\MSVC\14.29.30133\include\xutility
; File C:\Program Files (x86)\Microsoft Visual Studio\2019\Community\VC\Tools\MSVC\14.29.30133\include\xmemory
; File C:\Program Files (x86)\Microsoft Visual Studio\2019\Community\VC\Tools\MSVC\14.29.30133\include\xutility
; File C:\Program Files (x86)\Microsoft Visual Studio\2019\Community\VC\Tools\MSVC\14.29.30133\include\deque
; File C:\Program Files (x86)\Microsoft Visual Studio\2019\Community\VC\Tools\MSVC\14.29.30133\include\xutility
; File C:\Program Files (x86)\Microsoft Visual Studio\2019\Community\VC\Tools\MSVC\14.29.30133\include\xmemory
; File C:\Program Files (x86)\Microsoft Visual Studio\2019\Community\VC\Tools\MSVC\14.29.30133\include\deque
; File C:\Program Files (x86)\Microsoft Visual Studio\2019\Community\VC\Tools\MSVC\14.29.30133\include\xutility
; File C:\Program Files (x86)\Microsoft Visual Studio\2019\Community\VC\Tools\MSVC\14.29.30133\include\xmemory
; File C:\Program Files (x86)\Microsoft Visual Studio\2019\Community\VC\Tools\MSVC\14.29.30133\include\xutility
;	COMDAT ??$rotate@V?$_Deque_iterator@V?$_Deque_val@U?$_Deque_simple_types@PAVCColumnSet@@@std@@@std@@@std@@@std@@YA?AV?$_Deque_iterator@V?$_Deque_val@U?$_Deque_simple_types@PAVCColumnSet@@@std@@@std@@@0@V10@00@Z
_TEXT	SEGMENT
__UMid$1$ = -16						; size = 4
__UFirst$2$ = -12					; size = 4
__ULast$1$ = -8						; size = 4
__UMid$2$ = -4						; size = 4
___$ReturnUdt$ = 8					; size = 4
__First$ = 12						; size = 12
__Mid$ = 24						; size = 12
__Last$ = 36						; size = 12
??$rotate@V?$_Deque_iterator@V?$_Deque_val@U?$_Deque_simple_types@PAVCColumnSet@@@std@@@std@@@std@@@std@@YA?AV?$_Deque_iterator@V?$_Deque_val@U?$_Deque_simple_types@PAVCColumnSet@@@std@@@std@@@0@V10@00@Z PROC ; std::rotate<std::_Deque_iterator<std::_Deque_val<std::_Deque_simple_types<CColumnSet *> > > >, COMDAT

; 5462 : _CONSTEXPR20 _FwdIt rotate(_FwdIt _First, _FwdIt _Mid, _FwdIt _Last) {

  00000	55		 push	 ebp
  00001	8b ec		 mov	 ebp, esp
; File C:\Program Files (x86)\Microsoft Visual Studio\2019\Community\VC\Tools\MSVC\14.29.30133\include\xmemory

; 1107 :         return _Myproxy ? _Myproxy->_Mycont : nullptr;

  00003	8b 45 0c	 mov	 eax, DWORD PTR __First$[ebp]
; File C:\Program Files (x86)\Microsoft Visual Studio\2019\Community\VC\Tools\MSVC\14.29.30133\include\xutility

; 5462 : _CONSTEXPR20 _FwdIt rotate(_FwdIt _First, _FwdIt _Mid, _FwdIt _Last) {

  00006	83 ec 10	 sub	 esp, 16			; 00000010H
  00009	53		 push	 ebx
  0000a	56		 push	 esi
  0000b	57		 push	 edi
; File C:\Program Files (x86)\Microsoft Visual Studio\2019\Community\VC\Tools\MSVC\14.29.30133\include\xmemory

; 1107 :         return _Myproxy ? _Myproxy->_Mycont : nullptr;

  0000c	85 c0		 test	 eax, eax
  0000e	74 07		 je	 SHORT $LN11@rotate
  00010	8b 30		 mov	 esi, DWORD PTR [eax]
  00012	89 75 f4	 mov	 DWORD PTR __UFirst$2$[ebp], esi
  00015	eb 07		 jmp	 SHORT $LN12@rotate
$LN11@rotate:
  00017	c7 45 f4 00 00
	00 00		 mov	 DWORD PTR __UFirst$2$[ebp], 0
$LN12@rotate:
  0001e	8b 4d 18	 mov	 ecx, DWORD PTR __Mid$[ebp]
; File C:\Program Files (x86)\Microsoft Visual Studio\2019\Community\VC\Tools\MSVC\14.29.30133\include\deque

; 507  :         return {this->_Myoff, this->_Getcont()};

  00021	8b 55 20	 mov	 edx, DWORD PTR __Mid$[ebp+8]

; 43   :         : _Mycont(static_cast<const _Mydeque*>(_Pdeque)), _Myoff(_Off) {}

  00024	8b 5d 14	 mov	 ebx, DWORD PTR __First$[ebp+8]

; 507  :         return {this->_Myoff, this->_Getcont()};

  00027	89 55 f0	 mov	 DWORD PTR __UMid$1$[ebp], edx
; File C:\Program Files (x86)\Microsoft Visual Studio\2019\Community\VC\Tools\MSVC\14.29.30133\include\xmemory

; 1107 :         return _Myproxy ? _Myproxy->_Mycont : nullptr;

  0002a	85 c9		 test	 ecx, ecx
  0002c	74 07		 je	 SHORT $LN23@rotate
  0002e	8b 31		 mov	 esi, DWORD PTR [ecx]
  00030	89 75 fc	 mov	 DWORD PTR __UMid$2$[ebp], esi
  00033	eb 07		 jmp	 SHORT $LN24@rotate
$LN23@rotate:
  00035	c7 45 fc 00 00
	00 00		 mov	 DWORD PTR __UMid$2$[ebp], 0
$LN24@rotate:
  0003c	8b 4d 24	 mov	 ecx, DWORD PTR __Last$[ebp]
; File C:\Program Files (x86)\Microsoft Visual Studio\2019\Community\VC\Tools\MSVC\14.29.30133\include\deque

; 507  :         return {this->_Myoff, this->_Getcont()};

  0003f	8b 7d 2c	 mov	 edi, DWORD PTR __Last$[ebp+8]
; File C:\Program Files (x86)\Microsoft Visual Studio\2019\Community\VC\Tools\MSVC\14.29.30133\include\xmemory

; 1107 :         return _Myproxy ? _Myproxy->_Mycont : nullptr;

  00042	85 c9		 test	 ecx, ecx
  00044	74 07		 je	 SHORT $LN35@rotate
  00046	8b 31		 mov	 esi, DWORD PTR [ecx]
  00048	89 75 f8	 mov	 DWORD PTR __ULast$1$[ebp], esi
  0004b	eb 07		 jmp	 SHORT $LN36@rotate
$LN35@rotate:
  0004d	c7 45 f8 00 00
	00 00		 mov	 DWORD PTR __ULast$1$[ebp], 0
$LN36@rotate:
; File C:\Program Files (x86)\Microsoft Visual Studio\2019\Community\VC\Tools\MSVC\14.29.30133\include\deque

; 43   :         : _Mycont(static_cast<const _Mydeque*>(_Pdeque)), _Myoff(_Off) {}

  00054	8b 75 08	 mov	 esi, DWORD PTR ___$ReturnUdt$[ebp]
  00057	3b da		 cmp	 ebx, edx
; File C:\Program Files (x86)\Microsoft Visual Studio\2019\Community\VC\Tools\MSVC\14.29.30133\include\xutility

; 5471 :     if (_UFirst == _UMid) {

  00059	75 15		 jne	 SHORT $LN2@rotate

; 5515 : }

  0005b	89 7e 08	 mov	 DWORD PTR [esi+8], edi
  0005e	8b c6		 mov	 eax, esi
  00060	5f		 pop	 edi
; File C:\Program Files (x86)\Microsoft Visual Studio\2019\Community\VC\Tools\MSVC\14.29.30133\include\xmemory

; 1069 :         _Myproxy = _Right._Myproxy;

  00061	89 0e		 mov	 DWORD PTR [esi], ecx
; File C:\Program Files (x86)\Microsoft Visual Studio\2019\Community\VC\Tools\MSVC\14.29.30133\include\xutility

; 5515 : }

  00063	c7 46 04 00 00
	00 00		 mov	 DWORD PTR [esi+4], 0
  0006a	5e		 pop	 esi
  0006b	5b		 pop	 ebx
  0006c	8b e5		 mov	 esp, ebp
  0006e	5d		 pop	 ebp
  0006f	c3		 ret	 0
$LN2@rotate:
; File C:\Program Files (x86)\Microsoft Visual Studio\2019\Community\VC\Tools\MSVC\14.29.30133\include\deque

; 106  :         return _Myoff == _Right._Myoff;

  00070	3b d7		 cmp	 edx, edi
; File C:\Program Files (x86)\Microsoft Visual Studio\2019\Community\VC\Tools\MSVC\14.29.30133\include\xutility

; 5475 :     if (_UMid == _ULast) {

  00072	75 15		 jne	 SHORT $LN3@rotate
; File C:\Program Files (x86)\Microsoft Visual Studio\2019\Community\VC\Tools\MSVC\14.29.30133\include\xmemory

; 1069 :         _Myproxy = _Right._Myproxy;

  00074	89 06		 mov	 DWORD PTR [esi], eax
; File C:\Program Files (x86)\Microsoft Visual Studio\2019\Community\VC\Tools\MSVC\14.29.30133\include\xutility

; 5515 : }

  00076	8b c6		 mov	 eax, esi
  00078	5f		 pop	 edi
  00079	89 5e 08	 mov	 DWORD PTR [esi+8], ebx
  0007c	c7 46 04 00 00
	00 00		 mov	 DWORD PTR [esi+4], 0
  00083	5e		 pop	 esi
  00084	5b		 pop	 ebx
  00085	8b e5		 mov	 esp, ebp
  00087	5d		 pop	 ebp
  00088	c3		 ret	 0
$LN3@rotate:

; 5476 :         return _First;
; 5477 :     }
; 5478 : 
; 5479 :     if constexpr (_Is_random_iter_v<_FwdIt>) {
; 5480 :         _STD reverse(_UFirst, _UMid);

  00089	52		 push	 edx
  0008a	ff 75 fc	 push	 DWORD PTR __UMid$2$[ebp]
  0008d	53		 push	 ebx
  0008e	ff 75 f4	 push	 DWORD PTR __UFirst$2$[ebp]
  00091	e8 00 00 00 00	 call	 ??$reverse@V?$_Deque_unchecked_iterator@V?$_Deque_val@U?$_Deque_simple_types@PAVCColumnSet@@@std@@@std@@@std@@@std@@YAXV?$_Deque_unchecked_iterator@V?$_Deque_val@U?$_Deque_simple_types@PAVCColumnSet@@@std@@@std@@@0@0@Z ; std::reverse<std::_Deque_unchecked_iterator<std::_Deque_val<std::_Deque_simple_types<CColumnSet *> > > >

; 5481 :         _STD reverse(_UMid, _ULast);

  00096	57		 push	 edi
  00097	ff 75 f8	 push	 DWORD PTR __ULast$1$[ebp]
  0009a	ff 75 f0	 push	 DWORD PTR __UMid$1$[ebp]
  0009d	ff 75 fc	 push	 DWORD PTR __UMid$2$[ebp]
  000a0	e8 00 00 00 00	 call	 ??$reverse@V?$_Deque_unchecked_iterator@V?$_Deque_val@U?$_Deque_simple_types@PAVCColumnSet@@@std@@@std@@@std@@@std@@YAXV?$_Deque_unchecked_iterator@V?$_Deque_val@U?$_Deque_simple_types@PAVCColumnSet@@@std@@@std@@@0@0@Z ; std::reverse<std::_Deque_unchecked_iterator<std::_Deque_val<std::_Deque_simple_types<CColumnSet *> > > >

; 5482 :         _STD reverse(_UFirst, _ULast);

  000a5	57		 push	 edi
  000a6	ff 75 f8	 push	 DWORD PTR __ULast$1$[ebp]
  000a9	53		 push	 ebx
  000aa	ff 75 f4	 push	 DWORD PTR __UFirst$2$[ebp]
  000ad	e8 00 00 00 00	 call	 ??$reverse@V?$_Deque_unchecked_iterator@V?$_Deque_val@U?$_Deque_simple_types@PAVCColumnSet@@@std@@@std@@@std@@@std@@YAXV?$_Deque_unchecked_iterator@V?$_Deque_val@U?$_Deque_simple_types@PAVCColumnSet@@@std@@@std@@@0@0@Z ; std::reverse<std::_Deque_unchecked_iterator<std::_Deque_val<std::_Deque_simple_types<CColumnSet *> > > >
; File C:\Program Files (x86)\Microsoft Visual Studio\2019\Community\VC\Tools\MSVC\14.29.30133\include\deque

; 78   :         _Myoff += _Off;

  000b2	2b 7d f0	 sub	 edi, DWORD PTR __UMid$1$[ebp]
; File C:\Program Files (x86)\Microsoft Visual Studio\2019\Community\VC\Tools\MSVC\14.29.30133\include\xutility

; 5482 :         _STD reverse(_UFirst, _ULast);

  000b5	83 c4 30	 add	 esp, 48			; 00000030H
; File C:\Program Files (x86)\Microsoft Visual Studio\2019\Community\VC\Tools\MSVC\14.29.30133\include\xmemory

; 1069 :         _Myproxy = _Right._Myproxy;

  000b8	8b 45 0c	 mov	 eax, DWORD PTR __First$[ebp]
; File C:\Program Files (x86)\Microsoft Visual Studio\2019\Community\VC\Tools\MSVC\14.29.30133\include\deque

; 78   :         _Myoff += _Off;

  000bb	03 fb		 add	 edi, ebx
; File C:\Program Files (x86)\Microsoft Visual Studio\2019\Community\VC\Tools\MSVC\14.29.30133\include\xutility

; 5515 : }

  000bd	89 7e 08	 mov	 DWORD PTR [esi+8], edi
; File C:\Program Files (x86)\Microsoft Visual Studio\2019\Community\VC\Tools\MSVC\14.29.30133\include\xmemory

; 1069 :         _Myproxy = _Right._Myproxy;

  000c0	89 06		 mov	 DWORD PTR [esi], eax
; File C:\Program Files (x86)\Microsoft Visual Studio\2019\Community\VC\Tools\MSVC\14.29.30133\include\xutility

; 5515 : }

  000c2	8b c6		 mov	 eax, esi
  000c4	5f		 pop	 edi
  000c5	c7 46 04 00 00
	00 00		 mov	 DWORD PTR [esi+4], 0
  000cc	5e		 pop	 esi
  000cd	5b		 pop	 ebx
  000ce	8b e5		 mov	 esp, ebp
  000d0	5d		 pop	 ebp
  000d1	c3		 ret	 0
??$rotate@V?$_Deque_iterator@V?$_Deque_val@U?$_Deque_simple_types@PAVCColumnSet@@@std@@@std@@@std@@@std@@YA?AV?$_Deque_iterator@V?$_Deque_val@U?$_Deque_simple_types@PAVCColumnSet@@@std@@@std@@@0@V10@00@Z ENDP ; std::rotate<std::_Deque_iterator<std::_Deque_val<std::_Deque_simple_types<CColumnSet *> > > >
_TEXT	ENDS
; Function compile flags: /Ogtp
; File D:\git\src\IBK\IBK_DRFN\ProjSrc\SrcChartEx\ChartAddIn\ChartAnalysisToolAddIn\AnalysisTool\ElementTree.cpp
;	COMDAT ?GetOrder@CElementTree@@QAEAAVCOrder@@XZ
_TEXT	SEGMENT
?GetOrder@CElementTree@@QAEAAVCOrder@@XZ PROC		; CElementTree::GetOrder, COMDAT
; _this$ = ecx

; 709  : 	return m_order;

  00000	8b c1		 mov	 eax, ecx

; 710  : }

  00002	c3		 ret	 0
?GetOrder@CElementTree@@QAEAAVCOrder@@XZ ENDP		; CElementTree::GetOrder
_TEXT	ENDS
; Function compile flags: /Ogtp
; File D:\git\src\IBK\IBK_DRFN\ProjSrc\SrcChartEx\ChartAddIn\ChartAnalysisToolAddIn\AnalysisTool\ElementTree.cpp
;	COMDAT ?GetTree@CElementTree@@QAEAAVCTree@@XZ
_TEXT	SEGMENT
?GetTree@CElementTree@@QAEAAVCTree@@XZ PROC		; CElementTree::GetTree, COMDAT
; _this$ = ecx

; 704  : 	return m_tree;

  00000	8d 41 14	 lea	 eax, DWORD PTR [ecx+20]

; 705  : }

  00003	c3		 ret	 0
?GetTree@CElementTree@@QAEAAVCTree@@XZ ENDP		; CElementTree::GetTree
_TEXT	ENDS
; Function compile flags: /Ogtp
; File D:\git\src\IBK\IBK_DRFN\ProjSrc\SrcChartEx\ChartAddIn\ChartAnalysisToolAddIn\AnalysisTool\ElementTree.cpp
; File C:\Program Files (x86)\Microsoft Visual Studio\2019\Community\VC\Tools\MSVC\14.29.30133\include\deque
; File D:\git\src\IBK\IBK_DRFN\ProjSrc\SrcChartEx\ChartAddIn\ChartAnalysisToolAddIn\Include_Chart\DequeList.h
; File D:\git\src\IBK\IBK_DRFN\ProjSrc\SrcChartEx\ChartAddIn\ChartAnalysisToolAddIn\AnalysisTool\ElementTree.cpp
; File C:\Program Files (x86)\Microsoft Visual Studio\2019\Community\VC\Tools\MSVC\14.29.30133\include\deque
; File D:\git\src\IBK\IBK_DRFN\ProjSrc\SrcChartEx\ChartAddIn\ChartAnalysisToolAddIn\Include_Chart\DequeList.h
; File C:\Program Files (x86)\Microsoft Visual Studio\2019\Community\VC\Tools\MSVC\14.29.30133\include\deque
; File D:\git\src\IBK\IBK_DRFN\ProjSrc\SrcChartEx\ChartAddIn\ChartAnalysisToolAddIn\Include_Chart\DequeList.h
; File D:\git\src\IBK\IBK_DRFN\ProjSrc\SrcChartEx\ChartAddIn\ChartAnalysisToolAddIn\AnalysisTool\ElementTree.cpp
;	COMDAT ?GetTail@CElementTree@@QAEPAVCElement@@XZ
_TEXT	SEGMENT
?GetTail@CElementTree@@QAEPAVCElement@@XZ PROC		; CElementTree::GetTail, COMDAT
; _this$ = ecx

; 698  : {

  00000	55		 push	 ebp
  00001	8b ec		 mov	 ebp, esp
  00003	83 ec 08	 sub	 esp, 8
  00006	56		 push	 esi
  00007	8b f1		 mov	 esi, ecx
; File C:\Program Files (x86)\Microsoft Visual Studio\2019\Community\VC\Tools\MSVC\14.29.30133\include\deque

; 1002 :         return _Mysize() == 0;

  00009	8b 4e 10	 mov	 ecx, DWORD PTR [esi+16]
  0000c	85 c9		 test	 ecx, ecx
; File D:\git\src\IBK\IBK_DRFN\ProjSrc\SrcChartEx\ChartAddIn\ChartAnalysisToolAddIn\Include_Chart\DequeList.h

; 191  : 		if(m_deque.empty())

  0000e	75 07		 jne	 SHORT $LN6@GetTail
; File D:\git\src\IBK\IBK_DRFN\ProjSrc\SrcChartEx\ChartAddIn\ChartAnalysisToolAddIn\AnalysisTool\ElementTree.cpp

; 699  : 	return m_order.GetTail();

  00010	33 c0		 xor	 eax, eax
  00012	5e		 pop	 esi

; 700  : }

  00013	8b e5		 mov	 esp, ebp
  00015	5d		 pop	 ebp
  00016	c3		 ret	 0
$LN6@GetTail:
; File C:\Program Files (x86)\Microsoft Visual Studio\2019\Community\VC\Tools\MSVC\14.29.30133\include\deque

; 917  :         return _Unchecked_const_iterator(_Myoff() + _Mysize(), _STD addressof(_Get_data()));

  00017	8b 46 0c	 mov	 eax, DWORD PTR [esi+12]
  0001a	03 c1		 add	 eax, ecx

; 67   :         --_Myoff;

  0001c	8d 50 ff	 lea	 edx, DWORD PTR [eax-1]

; 559  :         return (_Off / _Block_size) & (_Mapsize - 1);

  0001f	8b 46 08	 mov	 eax, DWORD PTR [esi+8]
  00022	48		 dec	 eax
  00023	8b ca		 mov	 ecx, edx
  00025	c1 e9 02	 shr	 ecx, 2
  00028	23 c8		 and	 ecx, eax
; File D:\git\src\IBK\IBK_DRFN\ProjSrc\SrcChartEx\ChartAddIn\ChartAnalysisToolAddIn\Include_Chart\DequeList.h

; 193  : 		return m_deque.back();

  0002a	8b 46 04	 mov	 eax, DWORD PTR [esi+4]
; File C:\Program Files (x86)\Microsoft Visual Studio\2019\Community\VC\Tools\MSVC\14.29.30133\include\deque

; 48   :         return _Mycont->_Map[_Block][_Off];

  0002d	83 e2 03	 and	 edx, 3
  00030	5e		 pop	 esi
; File D:\git\src\IBK\IBK_DRFN\ProjSrc\SrcChartEx\ChartAddIn\ChartAnalysisToolAddIn\Include_Chart\DequeList.h

; 193  : 		return m_deque.back();

  00031	8b 04 88	 mov	 eax, DWORD PTR [eax+ecx*4]
; File D:\git\src\IBK\IBK_DRFN\ProjSrc\SrcChartEx\ChartAddIn\ChartAnalysisToolAddIn\AnalysisTool\ElementTree.cpp

; 699  : 	return m_order.GetTail();

  00034	8b 04 90	 mov	 eax, DWORD PTR [eax+edx*4]

; 700  : }

  00037	8b e5		 mov	 esp, ebp
  00039	5d		 pop	 ebp
  0003a	c3		 ret	 0
?GetTail@CElementTree@@QAEPAVCElement@@XZ ENDP		; CElementTree::GetTail
_TEXT	ENDS
; Function compile flags: /Ogtp
; File D:\git\src\IBK\IBK_DRFN\ProjSrc\SrcChartEx\ChartAddIn\ChartAnalysisToolAddIn\AnalysisTool\ElementTree.cpp
; File D:\git\src\IBK\IBK_DRFN\ProjSrc\SrcChartEx\ChartAddIn\ChartAnalysisToolAddIn\Include_Chart\BlockBaseData.h
; File D:\git\src\IBK\IBK_DRFN\ProjSrc\SrcChartEx\ChartAddIn\ChartAnalysisToolAddIn\AnalysisTool\ElementTree.cpp
; File D:\git\src\IBK\IBK_DRFN\ProjSrc\SrcChartEx\ChartAddIn\ChartAnalysisToolAddIn\Include_Chart\BlockBaseData.h
; File D:\git\src\IBK\IBK_DRFN\ProjSrc\SrcChartEx\ChartAddIn\ChartAnalysisToolAddIn\AnalysisTool\ElementTree.cpp
; File D:\git\src\IBK\IBK_DRFN\ProjSrc\SrcChartEx\ChartAddIn\ChartAnalysisToolAddIn\Include_Chart\BlockBaseData.h
; File D:\git\src\IBK\IBK_DRFN\ProjSrc\SrcChartEx\ChartAddIn\ChartAnalysisToolAddIn\AnalysisTool\ElementTree.cpp
; File D:\git\src\IBK\IBK_DRFN\ProjSrc\SrcChartEx\ChartAddIn\ChartAnalysisToolAddIn\Include_Chart\BlockBaseData.h
; File D:\git\src\IBK\IBK_DRFN\ProjSrc\SrcChartEx\ChartAddIn\ChartAnalysisToolAddIn\AnalysisTool\ElementTree.cpp
; File C:\Program Files (x86)\Microsoft Visual Studio\2019\Community\VC\Tools\MSVC\14.29.30133\include\deque
; File D:\git\src\IBK\IBK_DRFN\ProjSrc\SrcChartEx\ChartAddIn\ChartAnalysisToolAddIn\Include_Chart\DequeList.h
; File C:\Program Files (x86)\Microsoft Visual Studio\2019\Community\VC\Tools\MSVC\14.29.30133\include\deque
; File D:\git\src\IBK\IBK_DRFN\ProjSrc\SrcChartEx\ChartAddIn\ChartAnalysisToolAddIn\Include_Chart\DequeList.h
; File C:\Program Files (x86)\Microsoft Visual Studio\2019\Community\VC\Tools\MSVC\14.29.30133\include\deque
; File D:\git\src\IBK\IBK_DRFN\ProjSrc\SrcChartEx\ChartAddIn\ChartAnalysisToolAddIn\Include_Chart\DequeList.h
; File D:\git\src\IBK\IBK_DRFN\ProjSrc\SrcChartEx\ChartAddIn\ChartAnalysisToolAddIn\AnalysisTool\ElementTree.cpp
; File D:\git\src\IBK\IBK_DRFN\ProjSrc\SrcChartEx\ChartAddIn\ChartAnalysisToolAddIn\Include_Chart\BlockBaseData.h
; File D:\git\src\IBK\IBK_DRFN\ProjSrc\SrcChartEx\ChartAddIn\ChartAnalysisToolAddIn\AnalysisTool\ElementTree.cpp
;	COMDAT ?GetBlockIndexInElement@CElementTree@@QBE?AVCBlockIndex@@PBVCElement@@@Z
_TEXT	SEGMENT
$T1 = -16						; size = 8
___$ReturnUdt$ = 8					; size = 4
_pSelectedElement$ = 12					; size = 4
?GetBlockIndexInElement@CElementTree@@QBE?AVCBlockIndex@@PBVCElement@@@Z PROC ; CElementTree::GetBlockIndexInElement, COMDAT
; _this$ = ecx

; 691  : {

  00000	55		 push	 ebp
  00001	8b ec		 mov	 ebp, esp
  00003	83 ec 10	 sub	 esp, 16			; 00000010H
  00006	53		 push	 ebx

; 360  : 	if(pSelectedElement == NULL)

  00007	8b 5d 0c	 mov	 ebx, DWORD PTR _pSelectedElement$[ebp]

; 691  : {

  0000a	57		 push	 edi
  0000b	8b f9		 mov	 edi, ecx

; 360  : 	if(pSelectedElement == NULL)

  0000d	85 db		 test	 ebx, ebx
  0000f	75 18		 jne	 SHORT $LN7@GetBlockIn
; File D:\git\src\IBK\IBK_DRFN\ProjSrc\SrcChartEx\ChartAddIn\ChartAnalysisToolAddIn\Include_Chart\BlockBaseData.h

; 19   : 	CBlockIndex() { m_nRow = m_nColumn = -1; };

  00011	8b 45 08	 mov	 eax, DWORD PTR ___$ReturnUdt$[ebp]
  00014	5f		 pop	 edi
; File D:\git\src\IBK\IBK_DRFN\ProjSrc\SrcChartEx\ChartAddIn\ChartAnalysisToolAddIn\AnalysisTool\ElementTree.cpp

; 695  : }

  00015	5b		 pop	 ebx
; File D:\git\src\IBK\IBK_DRFN\ProjSrc\SrcChartEx\ChartAddIn\ChartAnalysisToolAddIn\Include_Chart\BlockBaseData.h

; 19   : 	CBlockIndex() { m_nRow = m_nColumn = -1; };

  00016	c7 40 04 ff ff
	ff ff		 mov	 DWORD PTR [eax+4], -1
  0001d	c7 00 ff ff ff
	ff		 mov	 DWORD PTR [eax], -1
; File D:\git\src\IBK\IBK_DRFN\ProjSrc\SrcChartEx\ChartAddIn\ChartAnalysisToolAddIn\AnalysisTool\ElementTree.cpp

; 695  : }

  00023	8b e5		 mov	 esp, ebp
  00025	5d		 pop	 ebp
  00026	c2 08 00	 ret	 8
$LN7@GetBlockIn:
; File D:\git\src\IBK\IBK_DRFN\ProjSrc\SrcChartEx\ChartAddIn\ChartAnalysisToolAddIn\Include_Chart\BlockBaseData.h

; 19   : 	CBlockIndex() { m_nRow = m_nColumn = -1; };

  00029	83 c9 ff	 or	 ecx, -1
  0002c	56		 push	 esi
; File D:\git\src\IBK\IBK_DRFN\ProjSrc\SrcChartEx\ChartAddIn\ChartAnalysisToolAddIn\AnalysisTool\ElementTree.cpp

; 364  : 	for(int columnIndex = 0; columnIndex < m_ColumnSetList.GetCount(); ++columnIndex)

  0002d	33 f6		 xor	 esi, esi
; File D:\git\src\IBK\IBK_DRFN\ProjSrc\SrcChartEx\ChartAddIn\ChartAnalysisToolAddIn\Include_Chart\BlockBaseData.h

; 19   : 	CBlockIndex() { m_nRow = m_nColumn = -1; };

  0002f	0b d1		 or	 edx, ecx
; File D:\git\src\IBK\IBK_DRFN\ProjSrc\SrcChartEx\ChartAddIn\ChartAnalysisToolAddIn\AnalysisTool\ElementTree.cpp

; 364  : 	for(int columnIndex = 0; columnIndex < m_ColumnSetList.GetCount(); ++columnIndex)

  00031	39 77 28	 cmp	 DWORD PTR [edi+40], esi
  00034	7e 45		 jle	 SHORT $LN44@GetBlockIn
$LL6@GetBlockIn:
; File C:\Program Files (x86)\Microsoft Visual Studio\2019\Community\VC\Tools\MSVC\14.29.30133\include\deque

; 1002 :         return _Mysize() == 0;

  00036	83 7f 28 00	 cmp	 DWORD PTR [edi+40], 0
; File D:\git\src\IBK\IBK_DRFN\ProjSrc\SrcChartEx\ChartAddIn\ChartAnalysisToolAddIn\Include_Chart\DequeList.h

; 205  : 		if(m_deque.empty())

  0003a	75 04		 jne	 SHORT $LN15@GetBlockIn

; 206  : 			return NULL;

  0003c	33 c9		 xor	 ecx, ecx
  0003e	eb 1d		 jmp	 SHORT $LN14@GetBlockIn
$LN15@GetBlockIn:
; File C:\Program Files (x86)\Microsoft Visual Studio\2019\Community\VC\Tools\MSVC\14.29.30133\include\deque

; 43   :         : _Mycont(static_cast<const _Mydeque*>(_Pdeque)), _Myoff(_Off) {}

  00040	8b 47 24	 mov	 eax, DWORD PTR [edi+36]

; 559  :         return (_Off / _Block_size) & (_Mapsize - 1);

  00043	8b 4f 20	 mov	 ecx, DWORD PTR [edi+32]
  00046	49		 dec	 ecx

; 78   :         _Myoff += _Off;

  00047	8d 14 30	 lea	 edx, DWORD PTR [eax+esi]
  0004a	8b c2		 mov	 eax, edx
  0004c	c1 e8 02	 shr	 eax, 2

; 559  :         return (_Off / _Block_size) & (_Mapsize - 1);

  0004f	23 c8		 and	 ecx, eax
; File D:\git\src\IBK\IBK_DRFN\ProjSrc\SrcChartEx\ChartAddIn\ChartAnalysisToolAddIn\Include_Chart\DequeList.h

; 208  : 		return m_deque[nIndex];

  00051	8b 47 1c	 mov	 eax, DWORD PTR [edi+28]
; File C:\Program Files (x86)\Microsoft Visual Studio\2019\Community\VC\Tools\MSVC\14.29.30133\include\deque

; 48   :         return _Mycont->_Map[_Block][_Off];

  00054	83 e2 03	 and	 edx, 3
; File D:\git\src\IBK\IBK_DRFN\ProjSrc\SrcChartEx\ChartAddIn\ChartAnalysisToolAddIn\Include_Chart\DequeList.h

; 208  : 		return m_deque[nIndex];

  00057	8b 04 88	 mov	 eax, DWORD PTR [eax+ecx*4]
  0005a	8b 0c 90	 mov	 ecx, DWORD PTR [eax+edx*4]
$LN14@GetBlockIn:
; File D:\git\src\IBK\IBK_DRFN\ProjSrc\SrcChartEx\ChartAddIn\ChartAnalysisToolAddIn\AnalysisTool\ElementTree.cpp

; 368  : 		blockIndex = pColumnSet->GetBlockIndexInElement(pSelectedElement, columnIndex);

  0005d	56		 push	 esi
  0005e	53		 push	 ebx
  0005f	8d 45 f0	 lea	 eax, DWORD PTR $T1[ebp]
  00062	50		 push	 eax
  00063	e8 00 00 00 00	 call	 ?GetBlockIndexInElement@CColumnSet@@QBE?AVCBlockIndex@@PBVCElement@@H@Z ; CColumnSet::GetBlockIndexInElement
  00068	8b 10		 mov	 edx, DWORD PTR [eax]
  0006a	8b 48 04	 mov	 ecx, DWORD PTR [eax+4]
  0006d	85 d2		 test	 edx, edx
; File D:\git\src\IBK\IBK_DRFN\ProjSrc\SrcChartEx\ChartAddIn\ChartAnalysisToolAddIn\Include_Chart\BlockBaseData.h

; 32   : 	bool IsAllValueBiggerThanZero() const { return (m_nRow >= 0 && m_nColumn >= 0); };

  0006f	78 04		 js	 SHORT $LN35@GetBlockIn
  00071	85 c9		 test	 ecx, ecx
  00073	79 06		 jns	 SHORT $LN44@GetBlockIn
$LN35@GetBlockIn:
; File D:\git\src\IBK\IBK_DRFN\ProjSrc\SrcChartEx\ChartAddIn\ChartAnalysisToolAddIn\AnalysisTool\ElementTree.cpp

; 364  : 	for(int columnIndex = 0; columnIndex < m_ColumnSetList.GetCount(); ++columnIndex)

  00075	46		 inc	 esi
  00076	3b 77 28	 cmp	 esi, DWORD PTR [edi+40]
  00079	7c bb		 jl	 SHORT $LL6@GetBlockIn
$LN44@GetBlockIn:

; 369  : 		if(blockIndex.IsAllValueBiggerThanZero())
; 370  : 			break;
; 371  : 	}
; 372  : 	return blockIndex;

  0007b	8b 45 08	 mov	 eax, DWORD PTR ___$ReturnUdt$[ebp]

; 692  : 	assert(pSelectedElement != NULL);
; 693  : 	
; 694  : 	return m_tree.GetBlockIndexInElement(pSelectedElement);

  0007e	5e		 pop	 esi
  0007f	5f		 pop	 edi

; 695  : }

  00080	5b		 pop	 ebx

; 372  : 	return blockIndex;

  00081	89 10		 mov	 DWORD PTR [eax], edx
  00083	89 48 04	 mov	 DWORD PTR [eax+4], ecx

; 695  : }

  00086	8b e5		 mov	 esp, ebp
  00088	5d		 pop	 ebp
  00089	c2 08 00	 ret	 8
?GetBlockIndexInElement@CElementTree@@QBE?AVCBlockIndex@@PBVCElement@@@Z ENDP ; CElementTree::GetBlockIndexInElement
_TEXT	ENDS
; Function compile flags: /Ogtp
; File D:\git\src\IBK\IBK_DRFN\ProjSrc\SrcChartEx\ChartAddIn\ChartAnalysisToolAddIn\AnalysisTool\ElementTree.cpp
; File C:\Program Files (x86)\Microsoft Visual Studio\2019\Community\VC\Tools\MSVC\14.29.30133\include\deque
; File D:\git\src\IBK\IBK_DRFN\ProjSrc\SrcChartEx\ChartAddIn\ChartAnalysisToolAddIn\Include_Chart\DequeList.h
; File C:\Program Files (x86)\Microsoft Visual Studio\2019\Community\VC\Tools\MSVC\14.29.30133\include\deque
; File D:\git\src\IBK\IBK_DRFN\ProjSrc\SrcChartEx\ChartAddIn\ChartAnalysisToolAddIn\Include_Chart\DequeList.h
; File C:\Program Files (x86)\Microsoft Visual Studio\2019\Community\VC\Tools\MSVC\14.29.30133\include\deque
; File D:\git\src\IBK\IBK_DRFN\ProjSrc\SrcChartEx\ChartAddIn\ChartAnalysisToolAddIn\Include_Chart\DequeList.h
; File D:\git\src\IBK\IBK_DRFN\ProjSrc\SrcChartEx\ChartAddIn\ChartAnalysisToolAddIn\AnalysisTool\ElementTree.cpp
;	COMDAT ?MoveElement@CElementTree@@QAEJPAVCElement@@@Z
_TEXT	SEGMENT
_pSelectedElement$ = 8					; size = 4
?MoveElement@CElementTree@@QAEJPAVCElement@@@Z PROC	; CElementTree::MoveElement, COMDAT
; _this$ = ecx

; 682  : {	

  00000	55		 push	 ebp
  00001	8b ec		 mov	 ebp, esp

; 348  : 	for(int nIndex = 0; nIndex < m_ColumnSetList.GetCount(); nIndex++){

  00003	8b 45 08	 mov	 eax, DWORD PTR _pSelectedElement$[ebp]

; 682  : {	

  00006	83 ec 08	 sub	 esp, 8
  00009	53		 push	 ebx
  0000a	56		 push	 esi
  0000b	8b f1		 mov	 esi, ecx

; 347  : 	long lAddress = 0;

  0000d	33 db		 xor	 ebx, ebx

; 682  : {	

  0000f	57		 push	 edi

; 348  : 	for(int nIndex = 0; nIndex < m_ColumnSetList.GetCount(); nIndex++){

  00010	33 ff		 xor	 edi, edi
  00012	39 5e 28	 cmp	 DWORD PTR [esi+40], ebx
  00015	7e 4a		 jle	 SHORT $LN42@MoveElemen
$LL7@MoveElemen:
; File C:\Program Files (x86)\Microsoft Visual Studio\2019\Community\VC\Tools\MSVC\14.29.30133\include\deque

; 1002 :         return _Mysize() == 0;

  00017	83 7e 28 00	 cmp	 DWORD PTR [esi+40], 0
; File D:\git\src\IBK\IBK_DRFN\ProjSrc\SrcChartEx\ChartAddIn\ChartAnalysisToolAddIn\Include_Chart\DequeList.h

; 198  : 		if(m_deque.empty())

  0001b	75 04		 jne	 SHORT $LN11@MoveElemen

; 199  : 			return NULL;

  0001d	33 c9		 xor	 ecx, ecx
  0001f	eb 20		 jmp	 SHORT $LN10@MoveElemen
$LN11@MoveElemen:
; File C:\Program Files (x86)\Microsoft Visual Studio\2019\Community\VC\Tools\MSVC\14.29.30133\include\deque

; 43   :         : _Mycont(static_cast<const _Mydeque*>(_Pdeque)), _Myoff(_Off) {}

  00021	8b 46 24	 mov	 eax, DWORD PTR [esi+36]

; 78   :         _Myoff += _Off;

  00024	8d 14 07	 lea	 edx, DWORD PTR [edi+eax]

; 559  :         return (_Off / _Block_size) & (_Mapsize - 1);

  00027	8b 46 20	 mov	 eax, DWORD PTR [esi+32]
  0002a	48		 dec	 eax

; 78   :         _Myoff += _Off;

  0002b	8b ca		 mov	 ecx, edx
  0002d	c1 e9 02	 shr	 ecx, 2

; 559  :         return (_Off / _Block_size) & (_Mapsize - 1);

  00030	23 c8		 and	 ecx, eax
; File D:\git\src\IBK\IBK_DRFN\ProjSrc\SrcChartEx\ChartAddIn\ChartAnalysisToolAddIn\Include_Chart\DequeList.h

; 201  : 		return m_deque[nIndex];

  00032	8b 46 1c	 mov	 eax, DWORD PTR [esi+28]
; File C:\Program Files (x86)\Microsoft Visual Studio\2019\Community\VC\Tools\MSVC\14.29.30133\include\deque

; 48   :         return _Mycont->_Map[_Block][_Off];

  00035	83 e2 03	 and	 edx, 3
; File D:\git\src\IBK\IBK_DRFN\ProjSrc\SrcChartEx\ChartAddIn\ChartAnalysisToolAddIn\Include_Chart\DequeList.h

; 201  : 		return m_deque[nIndex];

  00038	8b 04 88	 mov	 eax, DWORD PTR [eax+ecx*4]
  0003b	8b 0c 90	 mov	 ecx, DWORD PTR [eax+edx*4]
  0003e	8b 45 08	 mov	 eax, DWORD PTR _pSelectedElement$[ebp]
$LN10@MoveElemen:
; File D:\git\src\IBK\IBK_DRFN\ProjSrc\SrcChartEx\ChartAddIn\ChartAnalysisToolAddIn\AnalysisTool\ElementTree.cpp

; 351  : 		lAddress = pColumnSet->MoveElement(pSelectedElement);

  00041	50		 push	 eax
  00042	e8 00 00 00 00	 call	 ?MoveElement@CColumnSet@@QAEJPAVCElement@@@Z ; CColumnSet::MoveElement
  00047	8b d8		 mov	 ebx, eax

; 352  : 		if(lAddress == 0)

  00049	8b 45 08	 mov	 eax, DWORD PTR _pSelectedElement$[ebp]
  0004c	85 db		 test	 ebx, ebx
  0004e	74 11		 je	 SHORT $LN42@MoveElemen

; 348  : 	for(int nIndex = 0; nIndex < m_ColumnSetList.GetCount(); nIndex++){

  00050	47		 inc	 edi
  00051	3b 7e 28	 cmp	 edi, DWORD PTR [esi+40]
  00054	7c c1		 jl	 SHORT $LL7@MoveElemen

; 683  : 	long lReturn = m_tree.MoveElement(pSelectedElement);
; 684  : 	if(lReturn == 0)
; 685  : 		m_order.AddTail(pSelectedElement);
; 686  : 
; 687  : 	return lReturn;
; 688  : }

  00056	5f		 pop	 edi
  00057	5e		 pop	 esi
  00058	8b c3		 mov	 eax, ebx
  0005a	5b		 pop	 ebx
  0005b	8b e5		 mov	 esp, ebp
  0005d	5d		 pop	 ebp
  0005e	c2 04 00	 ret	 4
$LN42@MoveElemen:

; 40   : 	m_ElementOrderList.AddTail(pElement);

  00061	50		 push	 eax
  00062	8b ce		 mov	 ecx, esi
  00064	e8 00 00 00 00	 call	 ?AddTail@?$CDequePointerList@VCElement@@@@QAEXPAVCElement@@@Z ; CDequePointerList<CElement>::AddTail
  00069	5f		 pop	 edi

; 683  : 	long lReturn = m_tree.MoveElement(pSelectedElement);
; 684  : 	if(lReturn == 0)
; 685  : 		m_order.AddTail(pSelectedElement);
; 686  : 
; 687  : 	return lReturn;
; 688  : }

  0006a	5e		 pop	 esi
  0006b	8b c3		 mov	 eax, ebx
  0006d	5b		 pop	 ebx
  0006e	8b e5		 mov	 esp, ebp
  00070	5d		 pop	 ebp
  00071	c2 04 00	 ret	 4
?MoveElement@CElementTree@@QAEJPAVCElement@@@Z ENDP	; CElementTree::MoveElement
_TEXT	ENDS
; Function compile flags: /Ogtp
; File D:\git\src\IBK\IBK_DRFN\ProjSrc\SrcChartEx\ChartAddIn\ChartAnalysisToolAddIn\AnalysisTool\ElementTree.cpp
; File C:\Program Files (x86)\Microsoft Visual Studio\2019\Community\VC\Tools\MSVC\14.29.30133\include\deque
; File D:\git\src\IBK\IBK_DRFN\ProjSrc\SrcChartEx\ChartAddIn\ChartAnalysisToolAddIn\Include_Chart\DequeList.h
; File C:\Program Files (x86)\Microsoft Visual Studio\2019\Community\VC\Tools\MSVC\14.29.30133\include\deque
; File D:\git\src\IBK\IBK_DRFN\ProjSrc\SrcChartEx\ChartAddIn\ChartAnalysisToolAddIn\Include_Chart\DequeList.h
; File C:\Program Files (x86)\Microsoft Visual Studio\2019\Community\VC\Tools\MSVC\14.29.30133\include\deque
; File D:\git\src\IBK\IBK_DRFN\ProjSrc\SrcChartEx\ChartAddIn\ChartAnalysisToolAddIn\Include_Chart\DequeList.h
; File D:\git\src\IBK\IBK_DRFN\ProjSrc\SrcChartEx\ChartAddIn\ChartAnalysisToolAddIn\AnalysisTool\ElementTree.cpp
;	COMDAT ?CopyElement@CElementTree@@QAEPAVCElement@@PAV2@@Z
_TEXT	SEGMENT
_pSelectedElement$ = 8					; size = 4
?CopyElement@CElementTree@@QAEPAVCElement@@PAV2@@Z PROC	; CElementTree::CopyElement, COMDAT
; _this$ = ecx

; 674  : {

  00000	55		 push	 ebp
  00001	8b ec		 mov	 ebp, esp
  00003	83 ec 08	 sub	 esp, 8
  00006	53		 push	 ebx
  00007	56		 push	 esi
  00008	57		 push	 edi
  00009	8b f9		 mov	 edi, ecx

; 335  : 	for(int nIndex = 0; nIndex < m_ColumnSetList.GetCount(); nIndex++){

  0000b	33 db		 xor	 ebx, ebx
  0000d	33 f6		 xor	 esi, esi
  0000f	39 5f 28	 cmp	 DWORD PTR [edi+40], ebx
  00012	7e 48		 jle	 SHORT $LN42@CopyElemen
$LL7@CopyElemen:
; File C:\Program Files (x86)\Microsoft Visual Studio\2019\Community\VC\Tools\MSVC\14.29.30133\include\deque

; 1002 :         return _Mysize() == 0;

  00014	83 7f 28 00	 cmp	 DWORD PTR [edi+40], 0
; File D:\git\src\IBK\IBK_DRFN\ProjSrc\SrcChartEx\ChartAddIn\ChartAnalysisToolAddIn\Include_Chart\DequeList.h

; 198  : 		if(m_deque.empty())

  00018	75 04		 jne	 SHORT $LN11@CopyElemen

; 199  : 			return NULL;

  0001a	33 c9		 xor	 ecx, ecx
  0001c	eb 1d		 jmp	 SHORT $LN10@CopyElemen
$LN11@CopyElemen:
; File C:\Program Files (x86)\Microsoft Visual Studio\2019\Community\VC\Tools\MSVC\14.29.30133\include\deque

; 43   :         : _Mycont(static_cast<const _Mydeque*>(_Pdeque)), _Myoff(_Off) {}

  0001e	8b 47 24	 mov	 eax, DWORD PTR [edi+36]

; 78   :         _Myoff += _Off;

  00021	8d 14 03	 lea	 edx, DWORD PTR [ebx+eax]

; 559  :         return (_Off / _Block_size) & (_Mapsize - 1);

  00024	8b 47 20	 mov	 eax, DWORD PTR [edi+32]

; 78   :         _Myoff += _Off;

  00027	8b ca		 mov	 ecx, edx

; 559  :         return (_Off / _Block_size) & (_Mapsize - 1);

  00029	48		 dec	 eax

; 78   :         _Myoff += _Off;

  0002a	c1 e9 02	 shr	 ecx, 2

; 559  :         return (_Off / _Block_size) & (_Mapsize - 1);

  0002d	23 c8		 and	 ecx, eax
; File D:\git\src\IBK\IBK_DRFN\ProjSrc\SrcChartEx\ChartAddIn\ChartAnalysisToolAddIn\Include_Chart\DequeList.h

; 201  : 		return m_deque[nIndex];

  0002f	8b 47 1c	 mov	 eax, DWORD PTR [edi+28]
; File C:\Program Files (x86)\Microsoft Visual Studio\2019\Community\VC\Tools\MSVC\14.29.30133\include\deque

; 48   :         return _Mycont->_Map[_Block][_Off];

  00032	83 e2 03	 and	 edx, 3
; File D:\git\src\IBK\IBK_DRFN\ProjSrc\SrcChartEx\ChartAddIn\ChartAnalysisToolAddIn\Include_Chart\DequeList.h

; 201  : 		return m_deque[nIndex];

  00035	8b 04 88	 mov	 eax, DWORD PTR [eax+ecx*4]
  00038	8b 0c 90	 mov	 ecx, DWORD PTR [eax+edx*4]
$LN10@CopyElemen:
; File D:\git\src\IBK\IBK_DRFN\ProjSrc\SrcChartEx\ChartAddIn\ChartAnalysisToolAddIn\AnalysisTool\ElementTree.cpp

; 338  : 		lAddressTemp = pColumnSet->CopyElement(pSelectedElement);

  0003b	ff 75 08	 push	 DWORD PTR _pSelectedElement$[ebp]
  0003e	e8 00 00 00 00	 call	 ?CopyElement@CColumnSet@@QAEPAVCElement@@PAV2@@Z ; CColumnSet::CopyElement

; 339  : 		if(lAddressTemp != 0)

  00043	85 c0		 test	 eax, eax
  00045	0f 45 f0	 cmovne	 esi, eax
  00048	43		 inc	 ebx
  00049	3b 5f 28	 cmp	 ebx, DWORD PTR [edi+40]
  0004c	7c c6		 jl	 SHORT $LL7@CopyElemen

; 675  : 	CElement *lReturn = m_tree.CopyElement(pSelectedElement);
; 676  : 	if(lReturn != 0)

  0004e	85 f6		 test	 esi, esi
  00050	74 0a		 je	 SHORT $LN42@CopyElemen

; 40   : 	m_ElementOrderList.AddTail(pElement);

  00052	ff 75 08	 push	 DWORD PTR _pSelectedElement$[ebp]
  00055	8b cf		 mov	 ecx, edi
  00057	e8 00 00 00 00	 call	 ?AddTail@?$CDequePointerList@VCElement@@@@QAEXPAVCElement@@@Z ; CDequePointerList<CElement>::AddTail
$LN42@CopyElemen:
  0005c	5f		 pop	 edi

; 677  : 		m_order.AddTail(pSelectedElement);
; 678  : 	return lReturn;
; 679  : }

  0005d	8b c6		 mov	 eax, esi
  0005f	5e		 pop	 esi
  00060	5b		 pop	 ebx
  00061	8b e5		 mov	 esp, ebp
  00063	5d		 pop	 ebp
  00064	c2 04 00	 ret	 4
?CopyElement@CElementTree@@QAEPAVCElement@@PAV2@@Z ENDP	; CElementTree::CopyElement
_TEXT	ENDS
; Function compile flags: /Ogtp
; File D:\git\src\IBK\IBK_DRFN\ProjSrc\SrcChartEx\ChartAddIn\ChartAnalysisToolAddIn\AnalysisTool\ElementTree.cpp
; File C:\Program Files (x86)\Microsoft Visual Studio\2019\Community\VC\Tools\MSVC\14.29.30133\include\deque
; File D:\git\src\IBK\IBK_DRFN\ProjSrc\SrcChartEx\ChartAddIn\ChartAnalysisToolAddIn\Include_Chart\DequeList.h
; File C:\Program Files (x86)\Microsoft Visual Studio\2019\Community\VC\Tools\MSVC\14.29.30133\include\deque
; File D:\git\src\IBK\IBK_DRFN\ProjSrc\SrcChartEx\ChartAddIn\ChartAnalysisToolAddIn\Include_Chart\DequeList.h
; File C:\Program Files (x86)\Microsoft Visual Studio\2019\Community\VC\Tools\MSVC\14.29.30133\include\deque
; File D:\git\src\IBK\IBK_DRFN\ProjSrc\SrcChartEx\ChartAddIn\ChartAnalysisToolAddIn\Include_Chart\DequeList.h
; File D:\git\src\IBK\IBK_DRFN\ProjSrc\SrcChartEx\ChartAddIn\ChartAnalysisToolAddIn\AnalysisTool\ElementTree.cpp
;	COMDAT ?DrawElement@CElementTree@@QAEXPAVCDC@@PAVCElement@@PAUIChartManager133101@@@Z
_TEXT	SEGMENT
_pDC$ = 8						; size = 4
_pSelectedElement$ = 12					; size = 4
_pMainBlock$ = 16					; size = 4
?DrawElement@CElementTree@@QAEXPAVCDC@@PAVCElement@@PAUIChartManager133101@@@Z PROC ; CElementTree::DrawElement, COMDAT
; _this$ = ecx

; 669  : {

  00000	55		 push	 ebp
  00001	8b ec		 mov	 ebp, esp
  00003	83 ec 08	 sub	 esp, 8
  00006	53		 push	 ebx

; 321  : 	if(pMainBlock == NULL)

  00007	8b 5d 10	 mov	 ebx, DWORD PTR _pMainBlock$[ebp]

; 669  : {

  0000a	57		 push	 edi
  0000b	8b f9		 mov	 edi, ecx

; 321  : 	if(pMainBlock == NULL)

  0000d	85 db		 test	 ebx, ebx
  0000f	74 4a		 je	 SHORT $LN5@DrawElemen

; 322  : 		return;
; 323  : 
; 324  : 	for(int nIndex = 0; nIndex < m_ColumnSetList.GetCount(); nIndex++){

  00011	56		 push	 esi
  00012	33 f6		 xor	 esi, esi
  00014	39 77 28	 cmp	 DWORD PTR [edi+40], esi
  00017	7e 41		 jle	 SHORT $LN38@DrawElemen
  00019	0f 1f 80 00 00
	00 00		 npad	 7
$LL6@DrawElemen:
; File C:\Program Files (x86)\Microsoft Visual Studio\2019\Community\VC\Tools\MSVC\14.29.30133\include\deque

; 1002 :         return _Mysize() == 0;

  00020	83 7f 28 00	 cmp	 DWORD PTR [edi+40], 0
; File D:\git\src\IBK\IBK_DRFN\ProjSrc\SrcChartEx\ChartAddIn\ChartAnalysisToolAddIn\Include_Chart\DequeList.h

; 198  : 		if(m_deque.empty())

  00024	75 04		 jne	 SHORT $LN10@DrawElemen

; 199  : 			return NULL;

  00026	33 c9		 xor	 ecx, ecx
  00028	eb 1d		 jmp	 SHORT $LN9@DrawElemen
$LN10@DrawElemen:
; File C:\Program Files (x86)\Microsoft Visual Studio\2019\Community\VC\Tools\MSVC\14.29.30133\include\deque

; 43   :         : _Mycont(static_cast<const _Mydeque*>(_Pdeque)), _Myoff(_Off) {}

  0002a	8b 47 24	 mov	 eax, DWORD PTR [edi+36]

; 78   :         _Myoff += _Off;

  0002d	8d 14 06	 lea	 edx, DWORD PTR [esi+eax]

; 559  :         return (_Off / _Block_size) & (_Mapsize - 1);

  00030	8b 47 20	 mov	 eax, DWORD PTR [edi+32]

; 78   :         _Myoff += _Off;

  00033	8b ca		 mov	 ecx, edx

; 559  :         return (_Off / _Block_size) & (_Mapsize - 1);

  00035	48		 dec	 eax

; 78   :         _Myoff += _Off;

  00036	c1 e9 02	 shr	 ecx, 2

; 559  :         return (_Off / _Block_size) & (_Mapsize - 1);

  00039	23 c8		 and	 ecx, eax
; File D:\git\src\IBK\IBK_DRFN\ProjSrc\SrcChartEx\ChartAddIn\ChartAnalysisToolAddIn\Include_Chart\DequeList.h

; 201  : 		return m_deque[nIndex];

  0003b	8b 47 1c	 mov	 eax, DWORD PTR [edi+28]
; File C:\Program Files (x86)\Microsoft Visual Studio\2019\Community\VC\Tools\MSVC\14.29.30133\include\deque

; 48   :         return _Mycont->_Map[_Block][_Off];

  0003e	83 e2 03	 and	 edx, 3
; File D:\git\src\IBK\IBK_DRFN\ProjSrc\SrcChartEx\ChartAddIn\ChartAnalysisToolAddIn\Include_Chart\DequeList.h

; 201  : 		return m_deque[nIndex];

  00041	8b 04 88	 mov	 eax, DWORD PTR [eax+ecx*4]
  00044	8b 0c 90	 mov	 ecx, DWORD PTR [eax+edx*4]
$LN9@DrawElemen:
; File D:\git\src\IBK\IBK_DRFN\ProjSrc\SrcChartEx\ChartAddIn\ChartAnalysisToolAddIn\AnalysisTool\ElementTree.cpp

; 327  : 		pColumnSet->DrawElement(pDC, pSelectedElement, pMainBlock, nIndex);

  00047	56		 push	 esi
  00048	53		 push	 ebx
  00049	ff 75 0c	 push	 DWORD PTR _pSelectedElement$[ebp]
  0004c	ff 75 08	 push	 DWORD PTR _pDC$[ebp]
  0004f	e8 00 00 00 00	 call	 ?DrawElement@CColumnSet@@QAEXPAVCDC@@PAVCElement@@PAUIChartManager133101@@H@Z ; CColumnSet::DrawElement
  00054	46		 inc	 esi
  00055	3b 77 28	 cmp	 esi, DWORD PTR [edi+40]
  00058	7c c6		 jl	 SHORT $LL6@DrawElemen
$LN38@DrawElemen:
  0005a	5e		 pop	 esi
$LN5@DrawElemen:
  0005b	5f		 pop	 edi

; 670  : 	m_tree.DrawElement(pDC, pSelectedElement, pMainBlock);
; 671  : }

  0005c	5b		 pop	 ebx
  0005d	8b e5		 mov	 esp, ebp
  0005f	5d		 pop	 ebp
  00060	c2 0c 00	 ret	 12			; 0000000cH
?DrawElement@CElementTree@@QAEXPAVCDC@@PAVCElement@@PAUIChartManager133101@@@Z ENDP ; CElementTree::DrawElement
_TEXT	ENDS
; Function compile flags: /Ogtp
; File D:\git\src\IBK\IBK_DRFN\ProjSrc\SrcChartEx\ChartAddIn\ChartAnalysisToolAddIn\AnalysisTool\ElementTree.cpp
; File D:\git\src\IBK\IBK_DRFN\ProjSrc\SrcChartEx\ChartAddIn\ChartAnalysisToolAddIn\Include_Chart\BlockBaseData.h
; File D:\git\src\IBK\IBK_DRFN\ProjSrc\SrcChartEx\ChartAddIn\ChartAnalysisToolAddIn\AnalysisTool\ElementTree.cpp
;	COMDAT ?FindElement@CElementTree@@QAEPAVCElement@@PAUIChartManager133101@@PAVCExtractingDataOfModifyType@@AAW4ModifyType@CToolEnumData@@@Z
_TEXT	SEGMENT
$T2 = -12						; size = 8
_this$1$ = -4						; size = 4
_nRow$3 = 8						; size = 4
_pMainBlock$ = 8					; size = 4
_nColumn$4 = 12						; size = 4
_pExtractingData$ = 12					; size = 4
_modifyType$ = 16					; size = 4
?FindElement@CElementTree@@QAEPAVCElement@@PAUIChartManager133101@@PAVCExtractingDataOfModifyType@@AAW4ModifyType@CToolEnumData@@@Z PROC ; CElementTree::FindElement, COMDAT
; _this$ = ecx

; 662  : {

  00000	55		 push	 ebp
  00001	8b ec		 mov	 ebp, esp
  00003	83 ec 0c	 sub	 esp, 12			; 0000000cH
  00006	53		 push	 ebx

; 304  : 	if( !pMainBlock || !IsFindElement(pMainBlock, pExtractingData)) return NULL;

  00007	8b 5d 08	 mov	 ebx, DWORD PTR _pMainBlock$[ebp]

; 662  : {

  0000a	89 4d fc	 mov	 DWORD PTR _this$1$[ebp], ecx
  0000d	57		 push	 edi

; 304  : 	if( !pMainBlock || !IsFindElement(pMainBlock, pExtractingData)) return NULL;

  0000e	85 db		 test	 ebx, ebx
  00010	74 38		 je	 SHORT $LN5@FindElemen

; 493  : 	return (pMainBlock == NULL || pExtractingData == NULL || pExtractingData->IsFindElement());

  00012	8b 7d 0c	 mov	 edi, DWORD PTR _pExtractingData$[ebp]
  00015	85 ff		 test	 edi, edi
  00017	74 0b		 je	 SHORT $LN11@FindElemen
  00019	8b cf		 mov	 ecx, edi
  0001b	e8 00 00 00 00	 call	 ?IsFindElement@CExtractingDataOfModifyType@@QBE_NXZ ; CExtractingDataOfModifyType::IsFindElement
  00020	84 c0		 test	 al, al
  00022	74 26		 je	 SHORT $LN5@FindElemen
$LN11@FindElemen:

; 307  : 	if(!pMainBlock->GetBlockIndex( pExtractingData->GetMousePoint(), nRow, nColumn)) return NULL;

  00024	8d 45 f4	 lea	 eax, DWORD PTR $T2[ebp]
  00027	8b cf		 mov	 ecx, edi
  00029	50		 push	 eax
  0002a	e8 00 00 00 00	 call	 ?GetMousePoint@CExtractingDataOfModifyType@@QBE?AVCPoint@@XZ ; CExtractingDataOfModifyType::GetMousePoint
  0002f	8b 13		 mov	 edx, DWORD PTR [ebx]
  00031	8d 4d 0c	 lea	 ecx, DWORD PTR _nColumn$4[ebp]
  00034	51		 push	 ecx
  00035	8d 4d 08	 lea	 ecx, DWORD PTR _nRow$3[ebp]
  00038	51		 push	 ecx
  00039	ff 70 04	 push	 DWORD PTR [eax+4]
  0003c	8b cb		 mov	 ecx, ebx
  0003e	ff 30		 push	 DWORD PTR [eax]
  00040	ff 92 8c 00 00
	00		 call	 DWORD PTR [edx+140]
  00046	85 c0		 test	 eax, eax
  00048	75 0a		 jne	 SHORT $LN6@FindElemen
$LN5@FindElemen:
  0004a	5f		 pop	 edi

; 664  : }

  0004b	33 c0		 xor	 eax, eax
  0004d	5b		 pop	 ebx
  0004e	8b e5		 mov	 esp, ebp
  00050	5d		 pop	 ebp
  00051	c2 0c 00	 ret	 12			; 0000000cH
$LN6@FindElemen:
; File D:\git\src\IBK\IBK_DRFN\ProjSrc\SrcChartEx\ChartAddIn\ChartAnalysisToolAddIn\Include_Chart\BlockBaseData.h

; 32   : 	bool IsAllValueBiggerThanZero() const { return (m_nRow >= 0 && m_nColumn >= 0); };

  00054	83 7d 08 00	 cmp	 DWORD PTR _nRow$3[ebp], 0
  00058	56		 push	 esi
  00059	7c 2e		 jl	 SHORT $LN17@FindElemen
  0005b	8b 75 0c	 mov	 esi, DWORD PTR _nColumn$4[ebp]
  0005e	85 f6		 test	 esi, esi
  00060	78 27		 js	 SHORT $LN17@FindElemen
; File D:\git\src\IBK\IBK_DRFN\ProjSrc\SrcChartEx\ChartAddIn\ChartAnalysisToolAddIn\AnalysisTool\ElementTree.cpp

; 498  : 	return (blockIndex.IsAllValueBiggerThanZero() && blockIndex.GetColumn() < m_ColumnSetList.GetCount());

  00062	8b 45 fc	 mov	 eax, DWORD PTR _this$1$[ebp]
  00065	3b 70 28	 cmp	 esi, DWORD PTR [eax+40]
  00068	7d 1f		 jge	 SHORT $LN17@FindElemen

; 312  : 	CColumnSet* pColumnSet = m_ColumnSetList.GetAt(blockIndexInPoint.GetColumn());

  0006a	56		 push	 esi
  0006b	8d 48 18	 lea	 ecx, DWORD PTR [eax+24]
  0006e	e8 00 00 00 00	 call	 ?GetAt@?$CDequePointerList@VCColumnSet@@@@QAEPAVCColumnSet@@H@Z ; CDequePointerList<CColumnSet>::GetAt

; 313  : 	assert(pColumnSet != NULL);
; 314  : 	return pColumnSet->FindElement(pMainBlock, pExtractingData, blockIndexInPoint.GetColumn(), modifyType);

  00073	ff 75 10	 push	 DWORD PTR _modifyType$[ebp]
  00076	8b c8		 mov	 ecx, eax
  00078	56		 push	 esi
  00079	57		 push	 edi
  0007a	53		 push	 ebx
  0007b	e8 00 00 00 00	 call	 ?FindElement@CColumnSet@@QAEPAVCElement@@PAUIChartManager133101@@PAVCExtractingDataOfModifyType@@HAAW4ModifyType@CToolEnumData@@@Z ; CColumnSet::FindElement
  00080	5e		 pop	 esi
  00081	5f		 pop	 edi

; 664  : }

  00082	5b		 pop	 ebx
  00083	8b e5		 mov	 esp, ebp
  00085	5d		 pop	 ebp
  00086	c2 0c 00	 ret	 12			; 0000000cH
$LN17@FindElemen:
  00089	5e		 pop	 esi
  0008a	5f		 pop	 edi

; 663  : 	return m_tree.FindElement(pMainBlock, pExtractingData, modifyType);

  0008b	33 c0		 xor	 eax, eax

; 664  : }

  0008d	5b		 pop	 ebx
  0008e	8b e5		 mov	 esp, ebp
  00090	5d		 pop	 ebp
  00091	c2 0c 00	 ret	 12			; 0000000cH
?FindElement@CElementTree@@QAEPAVCElement@@PAUIChartManager133101@@PAVCExtractingDataOfModifyType@@AAW4ModifyType@CToolEnumData@@@Z ENDP ; CElementTree::FindElement
_TEXT	ENDS
; Function compile flags: /Ogtp
; File D:\git\src\IBK\IBK_DRFN\ProjSrc\SrcChartEx\ChartAddIn\ChartAnalysisToolAddIn\AnalysisTool\ElementTree.cpp
; File C:\Program Files (x86)\Microsoft Visual Studio\2019\Community\VC\Tools\MSVC\14.29.30133\include\deque
; File D:\git\src\IBK\IBK_DRFN\ProjSrc\SrcChartEx\ChartAddIn\ChartAnalysisToolAddIn\AnalysisTool\ElementTree.cpp
; File C:\Program Files (x86)\Microsoft Visual Studio\2019\Community\VC\Tools\MSVC\14.29.30133\include\deque
; File C:\Program Files (x86)\Microsoft Visual Studio\2019\Community\VC\Tools\MSVC\14.29.30133\include\xmemory
; File C:\Program Files (x86)\Microsoft Visual Studio\2019\Community\VC\Tools\MSVC\14.29.30133\include\deque
; File C:\Program Files (x86)\Microsoft Visual Studio\2019\Community\VC\Tools\MSVC\14.29.30133\include\xmemory
; File C:\Program Files (x86)\Microsoft Visual Studio\2019\Community\VC\Tools\MSVC\14.29.30133\include\deque
; File C:\Program Files (x86)\Microsoft Visual Studio\2019\Community\VC\Tools\MSVC\14.29.30133\include\xmemory
; File C:\Program Files (x86)\Microsoft Visual Studio\2019\Community\VC\Tools\MSVC\14.29.30133\include\deque
; File D:\git\src\IBK\IBK_DRFN\ProjSrc\SrcChartEx\ChartAddIn\ChartAnalysisToolAddIn\AnalysisTool\ElementTree.cpp
;	COMDAT ?ChangeElementOrder@CElementTree@@QAE_NPAVCElement@@@Z
_TEXT	SEGMENT
$T3 = -12						; size = 12
_pElement$ = 8						; size = 4
?ChangeElementOrder@CElementTree@@QAE_NPAVCElement@@@Z PROC ; CElementTree::ChangeElementOrder, COMDAT
; _this$ = ecx

; 655  : {

  00000	55		 push	 ebp
  00001	8b ec		 mov	 ebp, esp
  00003	83 ec 0c	 sub	 esp, 12			; 0000000cH

; 81   : 	for(int nIndex = 0; nIndex < m_ElementOrderList.GetCount(); nIndex++){

  00006	33 c0		 xor	 eax, eax

; 655  : {

  00008	53		 push	 ebx
  00009	8b d9		 mov	 ebx, ecx
  0000b	56		 push	 esi
  0000c	57		 push	 edi

; 81   : 	for(int nIndex = 0; nIndex < m_ElementOrderList.GetCount(); nIndex++){

  0000d	8b 7b 10	 mov	 edi, DWORD PTR [ebx+16]
  00010	85 ff		 test	 edi, edi
  00012	7e 2b		 jle	 SHORT $LN5@ChangeElem
$LL6@ChangeElem:
; File C:\Program Files (x86)\Microsoft Visual Studio\2019\Community\VC\Tools\MSVC\14.29.30133\include\deque

; 909  :         return _Unchecked_const_iterator(_Myoff(), _STD addressof(_Get_data()));

  00014	8b 4b 0c	 mov	 ecx, DWORD PTR [ebx+12]

; 559  :         return (_Off / _Block_size) & (_Mapsize - 1);

  00017	8b 53 08	 mov	 edx, DWORD PTR [ebx+8]
  0001a	4a		 dec	 edx

; 78   :         _Myoff += _Off;

  0001b	8d 34 01	 lea	 esi, DWORD PTR [ecx+eax]

; 559  :         return (_Off / _Block_size) & (_Mapsize - 1);

  0001e	8b ce		 mov	 ecx, esi
  00020	83 e6 03	 and	 esi, 3
  00023	c1 e9 02	 shr	 ecx, 2
  00026	23 d1		 and	 edx, ecx

; 48   :         return _Mycont->_Map[_Block][_Off];

  00028	8b 4b 04	 mov	 ecx, DWORD PTR [ebx+4]
  0002b	8b 0c 91	 mov	 ecx, DWORD PTR [ecx+edx*4]
; File D:\git\src\IBK\IBK_DRFN\ProjSrc\SrcChartEx\ChartAddIn\ChartAnalysisToolAddIn\AnalysisTool\ElementTree.cpp

; 108  : 	return (pElement == m_ElementOrderList.GetAt(nIndex) && nIndex < m_ElementOrderList.GetCount());

  0002e	8b 55 08	 mov	 edx, DWORD PTR _pElement$[ebp]
  00031	3b 14 b1	 cmp	 edx, DWORD PTR [ecx+esi*4]
  00034	75 04		 jne	 SHORT $LN11@ChangeElem
  00036	3b c7		 cmp	 eax, edi
  00038	7c 10		 jl	 SHORT $LN7@ChangeElem
$LN11@ChangeElem:

; 81   : 	for(int nIndex = 0; nIndex < m_ElementOrderList.GetCount(); nIndex++){

  0003a	40		 inc	 eax
  0003b	3b c7		 cmp	 eax, edi
  0003d	7c d5		 jl	 SHORT $LL6@ChangeElem
$LN5@ChangeElem:

; 88   : 	}
; 89   : 	return false;

  0003f	32 c0		 xor	 al, al

; 656  : 	return m_order.ChangeOrder(pElement);
; 657  : }

  00041	5f		 pop	 edi
  00042	5e		 pop	 esi
  00043	5b		 pop	 ebx
  00044	8b e5		 mov	 esp, ebp
  00046	5d		 pop	 ebp
  00047	c2 04 00	 ret	 4
$LN7@ChangeElem:
; File C:\Program Files (x86)\Microsoft Visual Studio\2019\Community\VC\Tools\MSVC\14.29.30133\include\deque

; 319  :         _Myoff += _Off;

  0004a	8b 73 0c	 mov	 esi, DWORD PTR [ebx+12]

; 1277 :         return erase(_Where, _Next_iter(_Where));

  0004d	83 ec 0c	 sub	 esp, 12			; 0000000cH
; File C:\Program Files (x86)\Microsoft Visual Studio\2019\Community\VC\Tools\MSVC\14.29.30133\include\xmemory

; 1099 :             _Myproxy = _Parent->_Myproxy;

  00050	8b 13		 mov	 edx, DWORD PTR [ebx]
; File C:\Program Files (x86)\Microsoft Visual Studio\2019\Community\VC\Tools\MSVC\14.29.30133\include\deque

; 319  :         _Myoff += _Off;

  00052	03 f0		 add	 esi, eax

; 1277 :         return erase(_Where, _Next_iter(_Where));

  00054	8b cc		 mov	 ecx, esp
  00056	83 ec 0c	 sub	 esp, 12			; 0000000cH

; 281  :         ++_Myoff;

  00059	8d 46 01	 lea	 eax, DWORD PTR [esi+1]
  0005c	89 41 08	 mov	 DWORD PTR [ecx+8], eax

; 1277 :         return erase(_Where, _Next_iter(_Where));

  0005f	8b c4		 mov	 eax, esp
; File C:\Program Files (x86)\Microsoft Visual Studio\2019\Community\VC\Tools\MSVC\14.29.30133\include\xmemory

; 1113 :     mutable _Iterator_base12* _Mynextiter = nullptr;

  00061	c7 41 04 00 00
	00 00		 mov	 DWORD PTR [ecx+4], 0

; 1069 :         _Myproxy = _Right._Myproxy;

  00068	89 11		 mov	 DWORD PTR [ecx], edx
; File C:\Program Files (x86)\Microsoft Visual Studio\2019\Community\VC\Tools\MSVC\14.29.30133\include\deque

; 1277 :         return erase(_Where, _Next_iter(_Where));

  0006a	8b cb		 mov	 ecx, ebx
; File C:\Program Files (x86)\Microsoft Visual Studio\2019\Community\VC\Tools\MSVC\14.29.30133\include\xmemory

; 1113 :     mutable _Iterator_base12* _Mynextiter = nullptr;

  0006c	c7 40 04 00 00
	00 00		 mov	 DWORD PTR [eax+4], 0

; 1069 :         _Myproxy = _Right._Myproxy;

  00073	89 10		 mov	 DWORD PTR [eax], edx
  00075	89 70 08	 mov	 DWORD PTR [eax+8], esi
; File C:\Program Files (x86)\Microsoft Visual Studio\2019\Community\VC\Tools\MSVC\14.29.30133\include\deque

; 1277 :         return erase(_Where, _Next_iter(_Where));

  00078	8d 45 f4	 lea	 eax, DWORD PTR $T3[ebp]
  0007b	50		 push	 eax
  0007c	e8 00 00 00 00	 call	 ?erase@?$deque@PAVCElement@@V?$allocator@PAVCElement@@@std@@@std@@QAE?AV?$_Deque_iterator@V?$_Deque_val@U?$_Deque_simple_types@PAVCElement@@@std@@@std@@@2@V?$_Deque_const_iterator@V?$_Deque_val@U?$_Deque_simple_types@PAVCElement@@@std@@@std@@@2@0@Z ; std::deque<CElement *,std::allocator<CElement *> >::erase
; File D:\git\src\IBK\IBK_DRFN\ProjSrc\SrcChartEx\ChartAddIn\ChartAnalysisToolAddIn\AnalysisTool\ElementTree.cpp

; 86   : 		m_ElementOrderList.AddTail(pElement);

  00081	ff 75 08	 push	 DWORD PTR _pElement$[ebp]
  00084	8b cb		 mov	 ecx, ebx
  00086	e8 00 00 00 00	 call	 ?AddTail@?$CDequePointerList@VCElement@@@@QAEXPAVCElement@@@Z ; CDequePointerList<CElement>::AddTail

; 656  : 	return m_order.ChangeOrder(pElement);
; 657  : }

  0008b	5f		 pop	 edi
  0008c	5e		 pop	 esi

; 87   : 		return true;

  0008d	b0 01		 mov	 al, 1

; 656  : 	return m_order.ChangeOrder(pElement);
; 657  : }

  0008f	5b		 pop	 ebx
  00090	8b e5		 mov	 esp, ebp
  00092	5d		 pop	 ebp
  00093	c2 04 00	 ret	 4
?ChangeElementOrder@CElementTree@@QAE_NPAVCElement@@@Z ENDP ; CElementTree::ChangeElementOrder
_TEXT	ENDS
; Function compile flags: /Ogtp
; File D:\git\src\IBK\IBK_DRFN\ProjSrc\SrcChartEx\ChartAddIn\ChartAnalysisToolAddIn\AnalysisTool\ElementTree.cpp
; File D:\git\src\IBK\IBK_DRFN\ProjSrc\SrcChartEx\ChartAddIn\ChartAnalysisToolAddIn\Include_Chart\BlockBaseData.h
; File D:\git\src\IBK\IBK_DRFN\ProjSrc\SrcChartEx\ChartAddIn\ChartAnalysisToolAddIn\AnalysisTool\ElementTree.cpp
; File D:\git\src\IBK\IBK_DRFN\ProjSrc\SrcChartEx\ChartAddIn\ChartAnalysisToolAddIn\Include_Chart\BlockBaseData.h
; File D:\git\src\IBK\IBK_DRFN\ProjSrc\SrcChartEx\ChartAddIn\ChartAnalysisToolAddIn\AnalysisTool\ElementTree.cpp
;	COMDAT ?MoveElementTree@CElementTree@@QAE_NABVCBlockIndex@@0@Z
_TEXT	SEGMENT
_sourceBlockIndex$ = 8					; size = 4
_targetBlockIndex$ = 12					; size = 4
?MoveElementTree@CElementTree@@QAE_NABVCBlockIndex@@0@Z PROC ; CElementTree::MoveElementTree, COMDAT
; _this$ = ecx

; 649  : {

  00000	55		 push	 ebp
  00001	8b ec		 mov	 ebp, esp
; File D:\git\src\IBK\IBK_DRFN\ProjSrc\SrcChartEx\ChartAddIn\ChartAnalysisToolAddIn\Include_Chart\BlockBaseData.h

; 32   : 	bool IsAllValueBiggerThanZero() const { return (m_nRow >= 0 && m_nColumn >= 0); };

  00003	8b 45 08	 mov	 eax, DWORD PTR _sourceBlockIndex$[ebp]
; File D:\git\src\IBK\IBK_DRFN\ProjSrc\SrcChartEx\ChartAddIn\ChartAnalysisToolAddIn\AnalysisTool\ElementTree.cpp

; 650  : 	return m_tree.MoveElementTree(sourceBlockIndex, targetBlockIndex);

  00006	83 c1 14	 add	 ecx, 20			; 00000014H
  00009	56		 push	 esi
  0000a	57		 push	 edi
; File D:\git\src\IBK\IBK_DRFN\ProjSrc\SrcChartEx\ChartAddIn\ChartAnalysisToolAddIn\Include_Chart\BlockBaseData.h

; 32   : 	bool IsAllValueBiggerThanZero() const { return (m_nRow >= 0 && m_nColumn >= 0); };

  0000b	8b 38		 mov	 edi, DWORD PTR [eax]
  0000d	85 ff		 test	 edi, edi
  0000f	78 4a		 js	 SHORT $LN10@MoveElemen
  00011	8b 40 04	 mov	 eax, DWORD PTR [eax+4]
  00014	85 c0		 test	 eax, eax
  00016	78 43		 js	 SHORT $LN10@MoveElemen
  00018	8b 55 0c	 mov	 edx, DWORD PTR _targetBlockIndex$[ebp]
  0001b	8b 32		 mov	 esi, DWORD PTR [edx]
  0001d	85 f6		 test	 esi, esi
  0001f	78 3a		 js	 SHORT $LN10@MoveElemen
  00021	8b 52 04	 mov	 edx, DWORD PTR [edx+4]
  00024	85 d2		 test	 edx, edx
  00026	78 33		 js	 SHORT $LN10@MoveElemen
; File D:\git\src\IBK\IBK_DRFN\ProjSrc\SrcChartEx\ChartAddIn\ChartAnalysisToolAddIn\AnalysisTool\ElementTree.cpp

; 436  : 	if(sourceBlockIndex.GetColumn() >= m_ColumnSetList.GetCount() && 

  00028	3b 41 14	 cmp	 eax, DWORD PTR [ecx+20]
  0002b	7d 2e		 jge	 SHORT $LN10@MoveElemen

; 290  : 	if(sourceBlockIndex.GetColumn() != targetBlockIndex.GetColumn())

  0002d	3b c2		 cmp	 eax, edx
  0002f	74 0e		 je	 SHORT $LN5@MoveElemen

; 651  : }

  00031	5f		 pop	 edi
  00032	5e		 pop	 esi

; 291  : 		return MoveColumnSet(sourceBlockIndex.GetColumn(), targetBlockIndex.GetColumn());

  00033	89 55 0c	 mov	 DWORD PTR _targetBlockIndex$[ebp], edx
  00036	89 45 08	 mov	 DWORD PTR _sourceBlockIndex$[ebp], eax

; 651  : }

  00039	5d		 pop	 ebp

; 291  : 		return MoveColumnSet(sourceBlockIndex.GetColumn(), targetBlockIndex.GetColumn());

  0003a	e9 00 00 00 00	 jmp	 ?MoveColumnSet@CTree@@AAE_NHH@Z ; CTree::MoveColumnSet
$LN5@MoveElemen:

; 292  : 
; 293  : 	//  column  row 
; 294  : 	if(sourceBlockIndex.GetColumn() < m_ColumnSetList.GetCount())
; 295  : 		return MoveRowSet(m_ColumnSetList.GetAt(sourceBlockIndex.GetColumn()), sourceBlockIndex.GetRow(), targetBlockIndex.GetRow());

  0003f	50		 push	 eax
  00040	83 c1 04	 add	 ecx, 4
  00043	e8 00 00 00 00	 call	 ?GetAt@?$CDequePointerList@VCColumnSet@@@@QAEPAVCColumnSet@@H@Z ; CDequePointerList<CColumnSet>::GetAt

; 478  : 	if(sourceRowIndex == targetRowIndex)

  00048	3b fe		 cmp	 edi, esi
  0004a	74 0f		 je	 SHORT $LN10@MoveElemen

; 479  : 		return false;
; 480  : 
; 481  : 	return pColumnSet->MoveRowSet(sourceRowIndex, targetRowIndex);

  0004c	56		 push	 esi
  0004d	57		 push	 edi
  0004e	8b c8		 mov	 ecx, eax
  00050	e8 00 00 00 00	 call	 ?MoveRowSet@CColumnSet@@QAE_NHH@Z ; CColumnSet::MoveRowSet
  00055	5f		 pop	 edi

; 651  : }

  00056	5e		 pop	 esi
  00057	5d		 pop	 ebp
  00058	c2 08 00	 ret	 8
$LN10@MoveElemen:
  0005b	5f		 pop	 edi
  0005c	32 c0		 xor	 al, al
  0005e	5e		 pop	 esi
  0005f	5d		 pop	 ebp
  00060	c2 08 00	 ret	 8
?MoveElementTree@CElementTree@@QAE_NABVCBlockIndex@@0@Z ENDP ; CElementTree::MoveElementTree
_TEXT	ENDS
; Function compile flags: /Ogtp
; File D:\git\src\IBK\IBK_DRFN\ProjSrc\SrcChartEx\ChartAddIn\ChartAnalysisToolAddIn\AnalysisTool\ElementTree.cpp
; File C:\Program Files (x86)\Microsoft Visual Studio\2019\Community\VC\Tools\MSVC\14.29.30133\include\deque
; File D:\git\src\IBK\IBK_DRFN\ProjSrc\SrcChartEx\ChartAddIn\ChartAnalysisToolAddIn\Include_Chart\DequeList.h
; File C:\Program Files (x86)\Microsoft Visual Studio\2019\Community\VC\Tools\MSVC\14.29.30133\include\deque
; File D:\git\src\IBK\IBK_DRFN\ProjSrc\SrcChartEx\ChartAddIn\ChartAnalysisToolAddIn\Include_Chart\DequeList.h
; File C:\Program Files (x86)\Microsoft Visual Studio\2019\Community\VC\Tools\MSVC\14.29.30133\include\deque
; File D:\git\src\IBK\IBK_DRFN\ProjSrc\SrcChartEx\ChartAddIn\ChartAnalysisToolAddIn\Include_Chart\DequeList.h
; File D:\git\src\IBK\IBK_DRFN\ProjSrc\SrcChartEx\ChartAddIn\ChartAnalysisToolAddIn\AnalysisTool\ElementTree.cpp
;	COMDAT ?DeleteElementPos@CElementTree@@QAE_NJH@Z
_TEXT	SEGMENT
_lAddress$ = 8						; size = 4
_bDeleted$1$ = 11					; size = 1
_bListOnly$ = 12					; size = 4
?DeleteElementPos@CElementTree@@QAE_NJH@Z PROC		; CElementTree::DeleteElementPos, COMDAT
; _this$ = ecx

; 632  : {

  00000	55		 push	 ebp
  00001	8b ec		 mov	 ebp, esp
  00003	83 ec 08	 sub	 esp, 8
  00006	53		 push	 ebx
  00007	56		 push	 esi
  00008	8b f1		 mov	 esi, ecx

; 633  : 	if(GetElementCount() <= 0 || lAddress == 0)

  0000a	83 7e 10 00	 cmp	 DWORD PTR [esi+16], 0
  0000e	7e 6d		 jle	 SHORT $LN3@DeleteElem
  00010	8b 5d 08	 mov	 ebx, DWORD PTR _lAddress$[ebp]
  00013	85 db		 test	 ebx, ebx
  00015	74 66		 je	 SHORT $LN3@DeleteElem

; 272  : 	for(int nIndex = 0; nIndex < m_ColumnSetList.GetCount(); nIndex++)

  00017	57		 push	 edi
  00018	33 ff		 xor	 edi, edi
  0001a	39 7e 28	 cmp	 DWORD PTR [esi+40], edi
  0001d	7e 3b		 jle	 SHORT $LN8@DeleteElem
  0001f	90		 npad	 1
$LL9@DeleteElem:
; File C:\Program Files (x86)\Microsoft Visual Studio\2019\Community\VC\Tools\MSVC\14.29.30133\include\deque

; 1002 :         return _Mysize() == 0;

  00020	83 7e 28 00	 cmp	 DWORD PTR [esi+40], 0
; File D:\git\src\IBK\IBK_DRFN\ProjSrc\SrcChartEx\ChartAddIn\ChartAnalysisToolAddIn\Include_Chart\DequeList.h

; 198  : 		if(m_deque.empty())

  00024	75 04		 jne	 SHORT $LN13@DeleteElem

; 199  : 			return NULL;

  00026	33 c9		 xor	 ecx, ecx
  00028	eb 1d		 jmp	 SHORT $LN12@DeleteElem
$LN13@DeleteElem:
; File C:\Program Files (x86)\Microsoft Visual Studio\2019\Community\VC\Tools\MSVC\14.29.30133\include\deque

; 43   :         : _Mycont(static_cast<const _Mydeque*>(_Pdeque)), _Myoff(_Off) {}

  0002a	8b 46 24	 mov	 eax, DWORD PTR [esi+36]

; 78   :         _Myoff += _Off;

  0002d	8d 14 07	 lea	 edx, DWORD PTR [edi+eax]

; 559  :         return (_Off / _Block_size) & (_Mapsize - 1);

  00030	8b 46 20	 mov	 eax, DWORD PTR [esi+32]

; 78   :         _Myoff += _Off;

  00033	8b ca		 mov	 ecx, edx

; 559  :         return (_Off / _Block_size) & (_Mapsize - 1);

  00035	48		 dec	 eax

; 78   :         _Myoff += _Off;

  00036	c1 e9 02	 shr	 ecx, 2

; 559  :         return (_Off / _Block_size) & (_Mapsize - 1);

  00039	23 c8		 and	 ecx, eax
; File D:\git\src\IBK\IBK_DRFN\ProjSrc\SrcChartEx\ChartAddIn\ChartAnalysisToolAddIn\Include_Chart\DequeList.h

; 201  : 		return m_deque[nIndex];

  0003b	8b 46 1c	 mov	 eax, DWORD PTR [esi+28]
; File C:\Program Files (x86)\Microsoft Visual Studio\2019\Community\VC\Tools\MSVC\14.29.30133\include\deque

; 48   :         return _Mycont->_Map[_Block][_Off];

  0003e	83 e2 03	 and	 edx, 3
; File D:\git\src\IBK\IBK_DRFN\ProjSrc\SrcChartEx\ChartAddIn\ChartAnalysisToolAddIn\Include_Chart\DequeList.h

; 201  : 		return m_deque[nIndex];

  00041	8b 04 88	 mov	 eax, DWORD PTR [eax+ecx*4]
  00044	8b 0c 90	 mov	 ecx, DWORD PTR [eax+edx*4]
$LN12@DeleteElem:
; File D:\git\src\IBK\IBK_DRFN\ProjSrc\SrcChartEx\ChartAddIn\ChartAnalysisToolAddIn\AnalysisTool\ElementTree.cpp

; 275  : 		bFind = pColumnSet->DeleteElement(lElementAddress,bListOnly);

  00047	ff 75 0c	 push	 DWORD PTR _bListOnly$[ebp]
  0004a	53		 push	 ebx
  0004b	e8 00 00 00 00	 call	 ?DeleteElement@CColumnSet@@QAE_NJH@Z ; CColumnSet::DeleteElement

; 276  : 		if(bFind == true)

  00050	3c 01		 cmp	 al, 1
  00052	74 11		 je	 SHORT $LN38@DeleteElem

; 272  : 	for(int nIndex = 0; nIndex < m_ColumnSetList.GetCount(); nIndex++)

  00054	47		 inc	 edi
  00055	3b 7e 28	 cmp	 edi, DWORD PTR [esi+40]
  00058	7c c6		 jl	 SHORT $LL9@DeleteElem
$LN8@DeleteElem:

; 642  : 	}
; 643  : 	return bDeleted;

  0005a	5f		 pop	 edi
  0005b	5e		 pop	 esi

; 280  : 	return false;

  0005c	32 c0		 xor	 al, al

; 644  : }

  0005e	5b		 pop	 ebx
  0005f	8b e5		 mov	 esp, ebp
  00061	5d		 pop	 ebp
  00062	c2 08 00	 ret	 8
$LN38@DeleteElem:

; 635  : 
; 636  : 	//Order   
; 637  : 	bool bDeleted = m_tree.DeleteElement(lAddress,bListOnly);		
; 638  : 	if(bDeleted == true)
; 639  : 	{
; 640  : 		CElement *pElement = (CElement *)lAddress;
; 641  : 		m_order.Remove(pElement);

  00065	53		 push	 ebx
  00066	8b ce		 mov	 ecx, esi

; 277  : 			return true;

  00068	c6 45 0b 01	 mov	 BYTE PTR _bDeleted$1$[ebp], 1

; 635  : 
; 636  : 	//Order   
; 637  : 	bool bDeleted = m_tree.DeleteElement(lAddress,bListOnly);		
; 638  : 	if(bDeleted == true)
; 639  : 	{
; 640  : 		CElement *pElement = (CElement *)lAddress;
; 641  : 		m_order.Remove(pElement);

  0006c	e8 00 00 00 00	 call	 ?Remove@COrder@@QAEXPAVCElement@@@Z ; COrder::Remove
  00071	8a 45 0b	 mov	 al, BYTE PTR _bDeleted$1$[ebp]

; 642  : 	}
; 643  : 	return bDeleted;

  00074	5f		 pop	 edi
  00075	5e		 pop	 esi

; 644  : }

  00076	5b		 pop	 ebx
  00077	8b e5		 mov	 esp, ebp
  00079	5d		 pop	 ebp
  0007a	c2 08 00	 ret	 8
$LN3@DeleteElem:
  0007d	5e		 pop	 esi

; 634  : 		return FALSE;

  0007e	32 c0		 xor	 al, al

; 644  : }

  00080	5b		 pop	 ebx
  00081	8b e5		 mov	 esp, ebp
  00083	5d		 pop	 ebp
  00084	c2 08 00	 ret	 8
?DeleteElementPos@CElementTree@@QAE_NJH@Z ENDP		; CElementTree::DeleteElementPos
_TEXT	ENDS
; Function compile flags: /Ogtp
; File D:\git\src\IBK\IBK_DRFN\ProjSrc\SrcChartEx\ChartAddIn\ChartAnalysisToolAddIn\AnalysisTool\ElementTree.cpp
; File C:\Program Files (x86)\Microsoft Visual Studio\2019\Community\VC\Tools\MSVC\14.29.30133\include\deque
; File D:\git\src\IBK\IBK_DRFN\ProjSrc\SrcChartEx\ChartAddIn\ChartAnalysisToolAddIn\Include_Chart\DequeList.h
; File C:\Program Files (x86)\Microsoft Visual Studio\2019\Community\VC\Tools\MSVC\14.29.30133\include\deque
; File D:\git\src\IBK\IBK_DRFN\ProjSrc\SrcChartEx\ChartAddIn\ChartAnalysisToolAddIn\Include_Chart\DequeList.h
; File C:\Program Files (x86)\Microsoft Visual Studio\2019\Community\VC\Tools\MSVC\14.29.30133\include\deque
; File D:\git\src\IBK\IBK_DRFN\ProjSrc\SrcChartEx\ChartAddIn\ChartAnalysisToolAddIn\Include_Chart\DequeList.h
; File D:\git\src\IBK\IBK_DRFN\ProjSrc\SrcChartEx\ChartAddIn\ChartAnalysisToolAddIn\AnalysisTool\ElementTree.cpp
;	COMDAT ?DeleteElement@CElementTree@@QAEXPAVCElement@@@Z
_TEXT	SEGMENT
_pElement$ = 8						; size = 4
?DeleteElement@CElementTree@@QAEXPAVCElement@@@Z PROC	; CElementTree::DeleteElement, COMDAT
; _this$ = ecx

; 623  : {

  00000	55		 push	 ebp
  00001	8b ec		 mov	 ebp, esp
  00003	83 ec 08	 sub	 esp, 8
  00006	53		 push	 ebx

; 624  : 	assert(pElement != NULL);
; 625  : 
; 626  : 	m_order.Remove(pElement);

  00007	8b 5d 08	 mov	 ebx, DWORD PTR _pElement$[ebp]
  0000a	56		 push	 esi
  0000b	57		 push	 edi
  0000c	53		 push	 ebx
  0000d	8b f9		 mov	 edi, ecx
  0000f	e8 00 00 00 00	 call	 ?Remove@COrder@@QAEXPAVCElement@@@Z ; COrder::Remove

; 258  : 	for(int nIndex = 0; nIndex < m_ColumnSetList.GetCount(); nIndex++)

  00014	33 f6		 xor	 esi, esi
  00016	39 77 28	 cmp	 DWORD PTR [edi+40], esi
  00019	7e 3c		 jle	 SHORT $LN39@DeleteElem
  0001b	0f 1f 44 00 00	 npad	 5
$LL6@DeleteElem:
; File C:\Program Files (x86)\Microsoft Visual Studio\2019\Community\VC\Tools\MSVC\14.29.30133\include\deque

; 1002 :         return _Mysize() == 0;

  00020	83 7f 28 00	 cmp	 DWORD PTR [edi+40], 0
; File D:\git\src\IBK\IBK_DRFN\ProjSrc\SrcChartEx\ChartAddIn\ChartAnalysisToolAddIn\Include_Chart\DequeList.h

; 198  : 		if(m_deque.empty())

  00024	75 04		 jne	 SHORT $LN10@DeleteElem

; 199  : 			return NULL;

  00026	33 c9		 xor	 ecx, ecx
  00028	eb 1d		 jmp	 SHORT $LN9@DeleteElem
$LN10@DeleteElem:
; File C:\Program Files (x86)\Microsoft Visual Studio\2019\Community\VC\Tools\MSVC\14.29.30133\include\deque

; 43   :         : _Mycont(static_cast<const _Mydeque*>(_Pdeque)), _Myoff(_Off) {}

  0002a	8b 47 24	 mov	 eax, DWORD PTR [edi+36]

; 78   :         _Myoff += _Off;

  0002d	8d 14 30	 lea	 edx, DWORD PTR [eax+esi]

; 559  :         return (_Off / _Block_size) & (_Mapsize - 1);

  00030	8b 47 20	 mov	 eax, DWORD PTR [edi+32]

; 78   :         _Myoff += _Off;

  00033	8b ca		 mov	 ecx, edx

; 559  :         return (_Off / _Block_size) & (_Mapsize - 1);

  00035	48		 dec	 eax

; 78   :         _Myoff += _Off;

  00036	c1 e9 02	 shr	 ecx, 2

; 559  :         return (_Off / _Block_size) & (_Mapsize - 1);

  00039	23 c8		 and	 ecx, eax
; File D:\git\src\IBK\IBK_DRFN\ProjSrc\SrcChartEx\ChartAddIn\ChartAnalysisToolAddIn\Include_Chart\DequeList.h

; 201  : 		return m_deque[nIndex];

  0003b	8b 47 1c	 mov	 eax, DWORD PTR [edi+28]
; File C:\Program Files (x86)\Microsoft Visual Studio\2019\Community\VC\Tools\MSVC\14.29.30133\include\deque

; 48   :         return _Mycont->_Map[_Block][_Off];

  0003e	83 e2 03	 and	 edx, 3
; File D:\git\src\IBK\IBK_DRFN\ProjSrc\SrcChartEx\ChartAddIn\ChartAnalysisToolAddIn\Include_Chart\DequeList.h

; 201  : 		return m_deque[nIndex];

  00041	8b 04 88	 mov	 eax, DWORD PTR [eax+ecx*4]
  00044	8b 0c 90	 mov	 ecx, DWORD PTR [eax+edx*4]
$LN9@DeleteElem:
; File D:\git\src\IBK\IBK_DRFN\ProjSrc\SrcChartEx\ChartAddIn\ChartAnalysisToolAddIn\AnalysisTool\ElementTree.cpp

; 262  : 		if(pColumnSet->DeleteElement(pElement))

  00047	53		 push	 ebx
  00048	e8 00 00 00 00	 call	 ?DeleteElement@CColumnSet@@QAE_NPAVCElement@@@Z ; CColumnSet::DeleteElement
  0004d	84 c0		 test	 al, al
  0004f	75 06		 jne	 SHORT $LN39@DeleteElem

; 258  : 	for(int nIndex = 0; nIndex < m_ColumnSetList.GetCount(); nIndex++)

  00051	46		 inc	 esi
  00052	3b 77 28	 cmp	 esi, DWORD PTR [edi+40]
  00055	7c c9		 jl	 SHORT $LL6@DeleteElem
$LN39@DeleteElem:
  00057	5f		 pop	 edi

; 627  : 	m_tree.DeleteElement(pElement);
; 628  : }

  00058	5e		 pop	 esi
  00059	5b		 pop	 ebx
  0005a	8b e5		 mov	 esp, ebp
  0005c	5d		 pop	 ebp
  0005d	c2 04 00	 ret	 4
?DeleteElement@CElementTree@@QAEXPAVCElement@@@Z ENDP	; CElementTree::DeleteElement
_TEXT	ENDS
; Function compile flags: /Ogtp
; File D:\git\src\IBK\IBK_DRFN\ProjSrc\SrcChartEx\ChartAddIn\ChartAnalysisToolAddIn\AnalysisTool\ElementTree.cpp
; File C:\Program Files (x86)\Microsoft Visual Studio\2019\Community\VC\Tools\MSVC\14.29.30133\include\xmemory
; File C:\Program Files (x86)\Microsoft Visual Studio\2019\Community\VC\Tools\MSVC\14.29.30133\include\deque
; File C:\Program Files (x86)\Microsoft Visual Studio\2019\Community\VC\Tools\MSVC\14.29.30133\include\xmemory
; File C:\Program Files (x86)\Microsoft Visual Studio\2019\Community\VC\Tools\MSVC\14.29.30133\include\deque
; File D:\git\src\IBK\IBK_DRFN\ProjSrc\SrcChartEx\ChartAddIn\ChartAnalysisToolAddIn\AnalysisTool\ElementTree.cpp
; File C:\Program Files (x86)\Microsoft Visual Studio\2019\Community\VC\Tools\MSVC\14.29.30133\include\deque
; File C:\Program Files (x86)\Microsoft Visual Studio\2019\Community\VC\Tools\MSVC\14.29.30133\include\xmemory
; File C:\Program Files (x86)\Microsoft Visual Studio\2019\Community\VC\Tools\MSVC\14.29.30133\include\deque
; File C:\Program Files (x86)\Microsoft Visual Studio\2019\Community\VC\Tools\MSVC\14.29.30133\include\xmemory
; File C:\Program Files (x86)\Microsoft Visual Studio\2019\Community\VC\Tools\MSVC\14.29.30133\include\deque
; File D:\git\src\IBK\IBK_DRFN\ProjSrc\SrcChartEx\ChartAddIn\ChartAnalysisToolAddIn\AnalysisTool\ElementTree.cpp
; File C:\Program Files (x86)\Microsoft Visual Studio\2019\Community\VC\Tools\MSVC\14.29.30133\include\deque
; File D:\git\src\IBK\IBK_DRFN\ProjSrc\SrcChartEx\ChartAddIn\ChartAnalysisToolAddIn\AnalysisTool\ElementTree.cpp
; File C:\Program Files (x86)\Microsoft Visual Studio\2019\Community\VC\Tools\MSVC\14.29.30133\include\deque
; File D:\git\src\IBK\IBK_DRFN\ProjSrc\SrcChartEx\ChartAddIn\ChartAnalysisToolAddIn\Include_Chart\DequeList.h
; File C:\Program Files (x86)\Microsoft Visual Studio\2019\Community\VC\Tools\MSVC\14.29.30133\include\deque
; File D:\git\src\IBK\IBK_DRFN\ProjSrc\SrcChartEx\ChartAddIn\ChartAnalysisToolAddIn\Include_Chart\DequeList.h
; File C:\Program Files (x86)\Microsoft Visual Studio\2019\Community\VC\Tools\MSVC\14.29.30133\include\deque
; File D:\git\src\IBK\IBK_DRFN\ProjSrc\SrcChartEx\ChartAddIn\ChartAnalysisToolAddIn\Include_Chart\DequeList.h
; File D:\git\src\IBK\IBK_DRFN\ProjSrc\SrcChartEx\ChartAddIn\ChartAnalysisToolAddIn\AnalysisTool\ElementTree.cpp
; File C:\Program Files (x86)\Microsoft Visual Studio\2019\Community\VC\Tools\MSVC\14.29.30133\include\deque
; File D:\git\src\IBK\IBK_DRFN\ProjSrc\SrcChartEx\ChartAddIn\ChartAnalysisToolAddIn\Include_Chart\DequeList.h
; File C:\Program Files (x86)\Microsoft Visual Studio\2019\Community\VC\Tools\MSVC\14.29.30133\include\deque
; File D:\git\src\IBK\IBK_DRFN\ProjSrc\SrcChartEx\ChartAddIn\ChartAnalysisToolAddIn\Include_Chart\DequeList.h
; File C:\Program Files (x86)\Microsoft Visual Studio\2019\Community\VC\Tools\MSVC\14.29.30133\include\deque
; File D:\git\src\IBK\IBK_DRFN\ProjSrc\SrcChartEx\ChartAddIn\ChartAnalysisToolAddIn\Include_Chart\DequeList.h
; File D:\git\src\IBK\IBK_DRFN\ProjSrc\SrcChartEx\ChartAddIn\ChartAnalysisToolAddIn\AnalysisTool\ElementTree.cpp
; File C:\Program Files (x86)\Microsoft Visual Studio\2019\Community\VC\Tools\MSVC\14.29.30133\include\deque
; File C:\Program Files (x86)\Microsoft Visual Studio\2019\Community\VC\Tools\MSVC\14.29.30133\include\xmemory
; File C:\Program Files (x86)\Microsoft Visual Studio\2019\Community\VC\Tools\MSVC\14.29.30133\include\deque
; File C:\Program Files (x86)\Microsoft Visual Studio\2019\Community\VC\Tools\MSVC\14.29.30133\include\xmemory
; File C:\Program Files (x86)\Microsoft Visual Studio\2019\Community\VC\Tools\MSVC\14.29.30133\include\deque
; File C:\Program Files (x86)\Microsoft Visual Studio\2019\Community\VC\Tools\MSVC\14.29.30133\include\utility
; File C:\Program Files (x86)\Microsoft Visual Studio\2019\Community\VC\Tools\MSVC\14.29.30133\include\xmemory
; File C:\Program Files (x86)\Microsoft Visual Studio\2019\Community\VC\Tools\MSVC\14.29.30133\include\deque
; File C:\Program Files (x86)\Microsoft Visual Studio\2019\Community\VC\Tools\MSVC\14.29.30133\include\utility
; File C:\Program Files (x86)\Microsoft Visual Studio\2019\Community\VC\Tools\MSVC\14.29.30133\include\xmemory
; File D:\git\src\IBK\IBK_DRFN\ProjSrc\SrcChartEx\ChartAddIn\ChartAnalysisToolAddIn\AnalysisTool\ElementTree.cpp
;	COMDAT ?DeleteElement@CElementTree@@QAE_NW4ElementType@CToolEnumData@@@Z
_TEXT	SEGMENT
_deletedElementList$ = -40				; size = 20
__$EHRec$ = -12						; size = 12
_eElementTYPE$ = 8					; size = 4
?DeleteElement@CElementTree@@QAE_NW4ElementType@CToolEnumData@@@Z PROC ; CElementTree::DeleteElement, COMDAT
; _this$ = ecx

; 611  : {

  00000	55		 push	 ebp
  00001	8b ec		 mov	 ebp, esp
  00003	6a ff		 push	 -1
  00005	68 00 00 00 00	 push	 __ehhandler$?DeleteElement@CElementTree@@QAE_NW4ElementType@CToolEnumData@@@Z
  0000a	64 a1 00 00 00
	00		 mov	 eax, DWORD PTR fs:0
  00010	50		 push	 eax
  00011	83 ec 1c	 sub	 esp, 28			; 0000001cH
  00014	53		 push	 ebx
  00015	56		 push	 esi
  00016	57		 push	 edi
  00017	a1 00 00 00 00	 mov	 eax, DWORD PTR ___security_cookie
  0001c	33 c5		 xor	 eax, ebp
  0001e	50		 push	 eax
  0001f	8d 45 f4	 lea	 eax, DWORD PTR __$EHRec$[ebp]
  00022	64 a3 00 00 00
	00		 mov	 DWORD PTR fs:0, eax
  00028	8b f9		 mov	 edi, ecx
; File C:\Program Files (x86)\Microsoft Visual Studio\2019\Community\VC\Tools\MSVC\14.29.30133\include\xmemory

; 79   :         return ::operator new(_Bytes);

  0002a	6a 08		 push	 8

; 1033 :     _Container_proxy* _Myproxy = nullptr;

  0002c	c7 45 d8 00 00
	00 00		 mov	 DWORD PTR _deletedElementList$[ebp], 0
; File C:\Program Files (x86)\Microsoft Visual Studio\2019\Community\VC\Tools\MSVC\14.29.30133\include\deque

; 555  :     _Deque_val() noexcept : _Map(), _Mapsize(0), _Myoff(0), _Mysize(0) {}

  00033	c7 45 dc 00 00
	00 00		 mov	 DWORD PTR _deletedElementList$[ebp+4], 0
  0003a	c7 45 e0 00 00
	00 00		 mov	 DWORD PTR _deletedElementList$[ebp+8], 0
  00041	c7 45 e4 00 00
	00 00		 mov	 DWORD PTR _deletedElementList$[ebp+12], 0
  00048	c7 45 e8 00 00
	00 00		 mov	 DWORD PTR _deletedElementList$[ebp+16], 0
; File C:\Program Files (x86)\Microsoft Visual Studio\2019\Community\VC\Tools\MSVC\14.29.30133\include\xmemory

; 79   :         return ::operator new(_Bytes);

  0004f	e8 00 00 00 00	 call	 ??2@YAPAXI@Z		; operator new

; 1021 :         _New_proxy->_Mycont = this;

  00054	8d 4d d8	 lea	 ecx, DWORD PTR _deletedElementList$[ebp]

; 79   :         return ::operator new(_Bytes);

  00057	83 c4 04	 add	 esp, 4

; 1003 :     mutable _Iterator_base12* _Myfirstiter = nullptr;

  0005a	c7 40 04 00 00
	00 00		 mov	 DWORD PTR [eax+4], 0

; 1020 :         _Myproxy            = _New_proxy;

  00061	89 45 d8	 mov	 DWORD PTR _deletedElementList$[ebp], eax

; 1021 :         _New_proxy->_Mycont = this;

  00064	89 08		 mov	 DWORD PTR [eax], ecx
; File C:\Program Files (x86)\Microsoft Visual Studio\2019\Community\VC\Tools\MSVC\14.29.30133\include\deque

; 1002 :         return _Mysize() == 0;

  00066	8b 4d e8	 mov	 ecx, DWORD PTR _deletedElementList$[ebp+16]

; 1475 :         while (!empty()) {

  00069	8b 45 e4	 mov	 eax, DWORD PTR _deletedElementList$[ebp+12]
; File D:\git\src\IBK\IBK_DRFN\ProjSrc\SrcChartEx\ChartAddIn\ChartAnalysisToolAddIn\AnalysisTool\ElementTree.cpp

; 613  : 	CDequePointerList<CElement> deletedElementList;

  0006c	c7 45 fc 00 00
	00 00		 mov	 DWORD PTR __$EHRec$[ebp+8], 0
; File C:\Program Files (x86)\Microsoft Visual Studio\2019\Community\VC\Tools\MSVC\14.29.30133\include\deque

; 1002 :         return _Mysize() == 0;

  00073	85 c9		 test	 ecx, ecx

; 1475 :         while (!empty()) {

  00075	74 1e		 je	 SHORT $LN64@DeleteElem
  00077	66 0f 1f 84 00
	00 00 00 00	 npad	 9
$LL63@DeleteElem:

; 1146 :         if (--_Mysize() == 0) {

  00080	83 e9 01	 sub	 ecx, 1
  00083	ba 00 00 00 00	 mov	 edx, 0
  00088	0f 44 c2	 cmove	 eax, edx

; 1002 :         return _Mysize() == 0;

  0008b	85 c9		 test	 ecx, ecx

; 1475 :         while (!empty()) {

  0008d	75 f1		 jne	 SHORT $LL63@DeleteElem

; 1146 :         if (--_Mysize() == 0) {

  0008f	89 45 e4	 mov	 DWORD PTR _deletedElementList$[ebp+12], eax
  00092	89 4d e8	 mov	 DWORD PTR _deletedElementList$[ebp+16], ecx
$LN64@DeleteElem:

; 1479 :         for (size_type _Block = _Mapsize(); 0 < _Block;) { // free storage for a block and destroy pointer

  00095	8b 75 e0	 mov	 esi, DWORD PTR _deletedElementList$[ebp+8]
  00098	8b 55 dc	 mov	 edx, DWORD PTR _deletedElementList$[ebp+4]
  0009b	85 f6		 test	 esi, esi
  0009d	74 25		 je	 SHORT $LN66@DeleteElem
  0009f	90		 npad	 1
$LL65@DeleteElem:

; 1480 :             if (_Map()[--_Block]) { // free block and destroy its pointer

  000a0	8b 44 b2 fc	 mov	 eax, DWORD PTR [edx+esi*4-4]
  000a4	4e		 dec	 esi
  000a5	85 c0		 test	 eax, eax
  000a7	74 0e		 je	 SHORT $LN84@DeleteElem
; File C:\Program Files (x86)\Microsoft Visual Studio\2019\Community\VC\Tools\MSVC\14.29.30133\include\xmemory

; 255  :         ::operator delete(_Ptr, _Bytes);

  000a9	6a 10		 push	 16			; 00000010H
  000ab	50		 push	 eax
  000ac	e8 00 00 00 00	 call	 ??3@YAXPAXI@Z		; operator delete
  000b1	8b 55 dc	 mov	 edx, DWORD PTR _deletedElementList$[ebp+4]
  000b4	83 c4 08	 add	 esp, 8
$LN84@DeleteElem:
; File C:\Program Files (x86)\Microsoft Visual Studio\2019\Community\VC\Tools\MSVC\14.29.30133\include\deque

; 1479 :         for (size_type _Block = _Mapsize(); 0 < _Block;) { // free storage for a block and destroy pointer

  000b7	85 f6		 test	 esi, esi
  000b9	75 e5		 jne	 SHORT $LL65@DeleteElem
  000bb	8b 4d e8	 mov	 ecx, DWORD PTR _deletedElementList$[ebp+16]
  000be	8b 45 e4	 mov	 eax, DWORD PTR _deletedElementList$[ebp+12]
  000c1	8b 75 e0	 mov	 esi, DWORD PTR _deletedElementList$[ebp+8]
$LN66@DeleteElem:

; 1481 :                 _Getal().deallocate(_Map()[_Block], _Block_size);
; 1482 :                 _Destroy_in_place(_Map()[_Block]);
; 1483 :             }
; 1484 :         }
; 1485 : 
; 1486 :         if (_Map() != _Mapptr()) {

  000c4	85 d2		 test	 edx, edx
  000c6	74 31		 je	 SHORT $LN102@DeleteElem
; File C:\Program Files (x86)\Microsoft Visual Studio\2019\Community\VC\Tools\MSVC\14.29.30133\include\xmemory

; 797  :         _Deallocate<_New_alignof<_Ty>>(_Ptr, sizeof(_Ty) * _Count);

  000c8	c1 e6 02	 shl	 esi, 2
  000cb	8b c2		 mov	 eax, edx

; 251  :         if (_Bytes >= _Big_allocation_threshold) { // boost the alignment of big allocations to help autovectorization

  000cd	81 fe 00 10 00
	00		 cmp	 esi, 4096		; 00001000H
  000d3	72 14		 jb	 SHORT $LN112@DeleteElem

; 150  :     const uintptr_t _Ptr_container   = _Ptr_user[-1];

  000d5	8b 52 fc	 mov	 edx, DWORD PTR [edx-4]
  000d8	83 c6 23	 add	 esi, 35			; 00000023H
  000db	2b c2		 sub	 eax, edx

; 151  : 
; 152  :     // If the following asserts, it likely means that we are performing
; 153  :     // an aligned delete on memory coming from an unaligned allocation.
; 154  :     _STL_ASSERT(_Ptr_user[-2] == _Big_allocation_sentinel, "invalid argument");
; 155  : 
; 156  :     // Extra paranoia on aligned allocation/deallocation; ensure _Ptr_container is
; 157  :     // in range [_Min_back_shift, _Non_user_size]
; 158  : #ifdef _DEBUG
; 159  :     constexpr uintptr_t _Min_back_shift = 2 * sizeof(void*);
; 160  : #else // ^^^ _DEBUG ^^^ // vvv !_DEBUG vvv
; 161  :     constexpr uintptr_t _Min_back_shift = sizeof(void*);
; 162  : #endif // _DEBUG
; 163  :     const uintptr_t _Back_shift = reinterpret_cast<uintptr_t>(_Ptr) - _Ptr_container;
; 164  :     _STL_VERIFY(_Back_shift >= _Min_back_shift && _Back_shift <= _Non_user_size, "invalid argument");

  000dd	83 c0 fc	 add	 eax, -4			; fffffffcH
  000e0	83 f8 1f	 cmp	 eax, 31			; 0000001fH
  000e3	0f 87 20 01 00
	00		 ja	 $LN219@DeleteElem
$LN112@DeleteElem:

; 255  :         ::operator delete(_Ptr, _Bytes);

  000e9	56		 push	 esi
  000ea	52		 push	 edx
  000eb	e8 00 00 00 00	 call	 ??3@YAXPAXI@Z		; operator delete
  000f0	8b 4d e8	 mov	 ecx, DWORD PTR _deletedElementList$[ebp+16]
  000f3	83 c4 08	 add	 esp, 8
  000f6	8b 45 e4	 mov	 eax, DWORD PTR _deletedElementList$[ebp+12]
$LN102@DeleteElem:
; File C:\Program Files (x86)\Microsoft Visual Studio\2019\Community\VC\Tools\MSVC\14.29.30133\include\deque

; 1491 :         _Map()     = _Mapptr();

  000f9	33 d2		 xor	 edx, edx
  000fb	c7 45 e0 00 00
	00 00		 mov	 DWORD PTR _deletedElementList$[ebp+8], 0
; File D:\git\src\IBK\IBK_DRFN\ProjSrc\SrcChartEx\ChartAddIn\ChartAnalysisToolAddIn\AnalysisTool\ElementTree.cpp

; 245  : 	for(int nIndex = 0; nIndex < m_ColumnSetList.GetCount(); nIndex++)

  00102	33 f6		 xor	 esi, esi
; File C:\Program Files (x86)\Microsoft Visual Studio\2019\Community\VC\Tools\MSVC\14.29.30133\include\deque

; 1491 :         _Map()     = _Mapptr();

  00104	89 55 dc	 mov	 DWORD PTR _deletedElementList$[ebp+4], edx
; File D:\git\src\IBK\IBK_DRFN\ProjSrc\SrcChartEx\ChartAddIn\ChartAnalysisToolAddIn\AnalysisTool\ElementTree.cpp

; 245  : 	for(int nIndex = 0; nIndex < m_ColumnSetList.GetCount(); nIndex++)

  00107	39 57 28	 cmp	 DWORD PTR [edi+40], edx
  0010a	7e 44		 jle	 SHORT $LN55@DeleteElem
  0010c	8b 5d 08	 mov	 ebx, DWORD PTR _eElementTYPE$[ebp]
  0010f	90		 npad	 1
$LL56@DeleteElem:
; File C:\Program Files (x86)\Microsoft Visual Studio\2019\Community\VC\Tools\MSVC\14.29.30133\include\deque

; 1002 :         return _Mysize() == 0;

  00110	83 7f 28 00	 cmp	 DWORD PTR [edi+40], 0
; File D:\git\src\IBK\IBK_DRFN\ProjSrc\SrcChartEx\ChartAddIn\ChartAnalysisToolAddIn\Include_Chart\DequeList.h

; 198  : 		if(m_deque.empty())

  00114	75 04		 jne	 SHORT $LN119@DeleteElem

; 199  : 			return NULL;

  00116	33 c9		 xor	 ecx, ecx
  00118	eb 1d		 jmp	 SHORT $LN118@DeleteElem
$LN119@DeleteElem:
; File C:\Program Files (x86)\Microsoft Visual Studio\2019\Community\VC\Tools\MSVC\14.29.30133\include\deque

; 43   :         : _Mycont(static_cast<const _Mydeque*>(_Pdeque)), _Myoff(_Off) {}

  0011a	8b 47 24	 mov	 eax, DWORD PTR [edi+36]

; 78   :         _Myoff += _Off;

  0011d	8d 14 30	 lea	 edx, DWORD PTR [eax+esi]

; 559  :         return (_Off / _Block_size) & (_Mapsize - 1);

  00120	8b 47 20	 mov	 eax, DWORD PTR [edi+32]

; 78   :         _Myoff += _Off;

  00123	8b ca		 mov	 ecx, edx

; 559  :         return (_Off / _Block_size) & (_Mapsize - 1);

  00125	48		 dec	 eax

; 78   :         _Myoff += _Off;

  00126	c1 e9 02	 shr	 ecx, 2

; 559  :         return (_Off / _Block_size) & (_Mapsize - 1);

  00129	23 c8		 and	 ecx, eax
; File D:\git\src\IBK\IBK_DRFN\ProjSrc\SrcChartEx\ChartAddIn\ChartAnalysisToolAddIn\Include_Chart\DequeList.h

; 201  : 		return m_deque[nIndex];

  0012b	8b 47 1c	 mov	 eax, DWORD PTR [edi+28]
; File C:\Program Files (x86)\Microsoft Visual Studio\2019\Community\VC\Tools\MSVC\14.29.30133\include\deque

; 48   :         return _Mycont->_Map[_Block][_Off];

  0012e	83 e2 03	 and	 edx, 3
; File D:\git\src\IBK\IBK_DRFN\ProjSrc\SrcChartEx\ChartAddIn\ChartAnalysisToolAddIn\Include_Chart\DequeList.h

; 201  : 		return m_deque[nIndex];

  00131	8b 04 88	 mov	 eax, DWORD PTR [eax+ecx*4]
  00134	8b 0c 90	 mov	 ecx, DWORD PTR [eax+edx*4]
$LN118@DeleteElem:
; File D:\git\src\IBK\IBK_DRFN\ProjSrc\SrcChartEx\ChartAddIn\ChartAnalysisToolAddIn\AnalysisTool\ElementTree.cpp

; 249  : 		pColumnSet->DeleteElement(eElementTYPE, deletedElementList);

  00137	8d 45 d8	 lea	 eax, DWORD PTR _deletedElementList$[ebp]
  0013a	50		 push	 eax
  0013b	53		 push	 ebx
  0013c	e8 00 00 00 00	 call	 ?DeleteElement@CColumnSet@@QAE_NW4ElementType@CToolEnumData@@AAV?$CDequePointerList@VCElement@@@@@Z ; CColumnSet::DeleteElement
  00141	46		 inc	 esi
  00142	3b 77 28	 cmp	 esi, DWORD PTR [edi+40]
  00145	7c c9		 jl	 SHORT $LL56@DeleteElem
  00147	8b 4d e8	 mov	 ecx, DWORD PTR _deletedElementList$[ebp+16]
  0014a	8b 45 e4	 mov	 eax, DWORD PTR _deletedElementList$[ebp+12]
  0014d	8b 55 dc	 mov	 edx, DWORD PTR _deletedElementList$[ebp+4]
$LN55@DeleteElem:

; 250  : 	}
; 251  : 
; 252  : 	return (deletedElementList.GetCount() > 0);

  00150	85 c9		 test	 ecx, ecx

; 614  : 	if(!m_tree.DeleteElement(eElementTYPE, deletedElementList))

  00152	7f 04		 jg	 SHORT $LN2@DeleteElem
  00154	32 db		 xor	 bl, bl
  00156	eb 45		 jmp	 SHORT $LN5@DeleteElem
$LN2@DeleteElem:

; 53   : 	for(int nIndex = 0; nIndex < elementList.GetCount(); nIndex++){

  00158	33 f6		 xor	 esi, esi
  0015a	85 c9		 test	 ecx, ecx
  0015c	7e 3d		 jle	 SHORT $LN145@DeleteElem
  0015e	66 90		 npad	 2
$LL146@DeleteElem:
; File C:\Program Files (x86)\Microsoft Visual Studio\2019\Community\VC\Tools\MSVC\14.29.30133\include\deque

; 1002 :         return _Mysize() == 0;

  00160	85 c9		 test	 ecx, ecx
; File D:\git\src\IBK\IBK_DRFN\ProjSrc\SrcChartEx\ChartAddIn\ChartAnalysisToolAddIn\Include_Chart\DequeList.h

; 205  : 		if(m_deque.empty())

  00162	75 04		 jne	 SHORT $LN149@DeleteElem

; 206  : 			return NULL;

  00164	33 c0		 xor	 eax, eax
  00166	eb 1d		 jmp	 SHORT $LN148@DeleteElem
$LN149@DeleteElem:
; File C:\Program Files (x86)\Microsoft Visual Studio\2019\Community\VC\Tools\MSVC\14.29.30133\include\deque

; 78   :         _Myoff += _Off;

  00168	8d 14 30	 lea	 edx, DWORD PTR [eax+esi]

; 43   :         : _Mycont(static_cast<const _Mydeque*>(_Pdeque)), _Myoff(_Off) {}

  0016b	8d 5d d8	 lea	 ebx, DWORD PTR _deletedElementList$[ebp]

; 78   :         _Myoff += _Off;

  0016e	8b c2		 mov	 eax, edx

; 559  :         return (_Off / _Block_size) & (_Mapsize - 1);

  00170	8b 4b 08	 mov	 ecx, DWORD PTR [ebx+8]

; 78   :         _Myoff += _Off;

  00173	c1 e8 02	 shr	 eax, 2

; 559  :         return (_Off / _Block_size) & (_Mapsize - 1);

  00176	49		 dec	 ecx
  00177	23 c8		 and	 ecx, eax
; File D:\git\src\IBK\IBK_DRFN\ProjSrc\SrcChartEx\ChartAddIn\ChartAnalysisToolAddIn\Include_Chart\DequeList.h

; 208  : 		return m_deque[nIndex];

  00179	8b 43 04	 mov	 eax, DWORD PTR [ebx+4]
; File C:\Program Files (x86)\Microsoft Visual Studio\2019\Community\VC\Tools\MSVC\14.29.30133\include\deque

; 48   :         return _Mycont->_Map[_Block][_Off];

  0017c	83 e2 03	 and	 edx, 3
; File D:\git\src\IBK\IBK_DRFN\ProjSrc\SrcChartEx\ChartAddIn\ChartAnalysisToolAddIn\Include_Chart\DequeList.h

; 208  : 		return m_deque[nIndex];

  0017f	8b 04 88	 mov	 eax, DWORD PTR [eax+ecx*4]
  00182	8b 04 90	 mov	 eax, DWORD PTR [eax+edx*4]
$LN148@DeleteElem:
; File D:\git\src\IBK\IBK_DRFN\ProjSrc\SrcChartEx\ChartAddIn\ChartAnalysisToolAddIn\AnalysisTool\ElementTree.cpp

; 56   : 		Remove(pElement);

  00185	50		 push	 eax
  00186	8b cf		 mov	 ecx, edi
  00188	e8 00 00 00 00	 call	 ?Remove@COrder@@QAEXPAVCElement@@@Z ; COrder::Remove
  0018d	8b 4d e8	 mov	 ecx, DWORD PTR _deletedElementList$[ebp+16]
  00190	46		 inc	 esi
  00191	8b 45 e4	 mov	 eax, DWORD PTR _deletedElementList$[ebp+12]
  00194	3b f1		 cmp	 esi, ecx
  00196	7c c8		 jl	 SHORT $LL146@DeleteElem
  00198	8b 55 dc	 mov	 edx, DWORD PTR _deletedElementList$[ebp+4]
$LN145@DeleteElem:

; 618  : 	return true;

  0019b	b3 01		 mov	 bl, 1
$LN5@DeleteElem:
; File C:\Program Files (x86)\Microsoft Visual Studio\2019\Community\VC\Tools\MSVC\14.29.30133\include\deque

; 1002 :         return _Mysize() == 0;

  0019d	85 c9		 test	 ecx, ecx

; 1475 :         while (!empty()) {

  0019f	74 15		 je	 SHORT $LN174@DeleteElem
$LL173@DeleteElem:

; 1146 :         if (--_Mysize() == 0) {

  001a1	83 e9 01	 sub	 ecx, 1
  001a4	be 00 00 00 00	 mov	 esi, 0
  001a9	0f 44 c6	 cmove	 eax, esi

; 1002 :         return _Mysize() == 0;

  001ac	85 c9		 test	 ecx, ecx

; 1475 :         while (!empty()) {

  001ae	75 f1		 jne	 SHORT $LL173@DeleteElem

; 1146 :         if (--_Mysize() == 0) {

  001b0	89 45 e4	 mov	 DWORD PTR _deletedElementList$[ebp+12], eax
  001b3	89 4d e8	 mov	 DWORD PTR _deletedElementList$[ebp+16], ecx
$LN174@DeleteElem:

; 1479 :         for (size_type _Block = _Mapsize(); 0 < _Block;) { // free storage for a block and destroy pointer

  001b6	8b 75 e0	 mov	 esi, DWORD PTR _deletedElementList$[ebp+8]
  001b9	85 f6		 test	 esi, esi
  001bb	74 24		 je	 SHORT $LN176@DeleteElem
  001bd	0f 1f 00	 npad	 3
$LL175@DeleteElem:

; 1480 :             if (_Map()[--_Block]) { // free block and destroy its pointer

  001c0	8b 44 b2 fc	 mov	 eax, DWORD PTR [edx+esi*4-4]
  001c4	4e		 dec	 esi
  001c5	85 c0		 test	 eax, eax
  001c7	74 0e		 je	 SHORT $LN194@DeleteElem
; File C:\Program Files (x86)\Microsoft Visual Studio\2019\Community\VC\Tools\MSVC\14.29.30133\include\xmemory

; 255  :         ::operator delete(_Ptr, _Bytes);

  001c9	6a 10		 push	 16			; 00000010H
  001cb	50		 push	 eax
  001cc	e8 00 00 00 00	 call	 ??3@YAXPAXI@Z		; operator delete
  001d1	8b 55 dc	 mov	 edx, DWORD PTR _deletedElementList$[ebp+4]
  001d4	83 c4 08	 add	 esp, 8
$LN194@DeleteElem:
; File C:\Program Files (x86)\Microsoft Visual Studio\2019\Community\VC\Tools\MSVC\14.29.30133\include\deque

; 1479 :         for (size_type _Block = _Mapsize(); 0 < _Block;) { // free storage for a block and destroy pointer

  001d7	85 f6		 test	 esi, esi
  001d9	75 e5		 jne	 SHORT $LL175@DeleteElem
  001db	8b 4d e8	 mov	 ecx, DWORD PTR _deletedElementList$[ebp+16]
  001de	8b 45 e4	 mov	 eax, DWORD PTR _deletedElementList$[ebp+12]
$LN176@DeleteElem:

; 1481 :                 _Getal().deallocate(_Map()[_Block], _Block_size);
; 1482 :                 _Destroy_in_place(_Map()[_Block]);
; 1483 :             }
; 1484 :         }
; 1485 : 
; 1486 :         if (_Map() != _Mapptr()) {

  001e1	85 d2		 test	 edx, edx
  001e3	74 3a		 je	 SHORT $LN212@DeleteElem
; File C:\Program Files (x86)\Microsoft Visual Studio\2019\Community\VC\Tools\MSVC\14.29.30133\include\xmemory

; 797  :         _Deallocate<_New_alignof<_Ty>>(_Ptr, sizeof(_Ty) * _Count);

  001e5	8b 45 e0	 mov	 eax, DWORD PTR _deletedElementList$[ebp+8]
  001e8	8d 0c 85 00 00
	00 00		 lea	 ecx, DWORD PTR [eax*4]
  001ef	8b c2		 mov	 eax, edx

; 251  :         if (_Bytes >= _Big_allocation_threshold) { // boost the alignment of big allocations to help autovectorization

  001f1	81 f9 00 10 00
	00		 cmp	 ecx, 4096		; 00001000H
  001f7	72 16		 jb	 SHORT $LN222@DeleteElem

; 150  :     const uintptr_t _Ptr_container   = _Ptr_user[-1];

  001f9	8b 52 fc	 mov	 edx, DWORD PTR [edx-4]
  001fc	83 c1 23	 add	 ecx, 35			; 00000023H
  001ff	2b c2		 sub	 eax, edx

; 151  : 
; 152  :     // If the following asserts, it likely means that we are performing
; 153  :     // an aligned delete on memory coming from an unaligned allocation.
; 154  :     _STL_ASSERT(_Ptr_user[-2] == _Big_allocation_sentinel, "invalid argument");
; 155  : 
; 156  :     // Extra paranoia on aligned allocation/deallocation; ensure _Ptr_container is
; 157  :     // in range [_Min_back_shift, _Non_user_size]
; 158  : #ifdef _DEBUG
; 159  :     constexpr uintptr_t _Min_back_shift = 2 * sizeof(void*);
; 160  : #else // ^^^ _DEBUG ^^^ // vvv !_DEBUG vvv
; 161  :     constexpr uintptr_t _Min_back_shift = sizeof(void*);
; 162  : #endif // _DEBUG
; 163  :     const uintptr_t _Back_shift = reinterpret_cast<uintptr_t>(_Ptr) - _Ptr_container;
; 164  :     _STL_VERIFY(_Back_shift >= _Min_back_shift && _Back_shift <= _Non_user_size, "invalid argument");

  00201	83 c0 fc	 add	 eax, -4			; fffffffcH
  00204	83 f8 1f	 cmp	 eax, 31			; 0000001fH
  00207	76 06		 jbe	 SHORT $LN222@DeleteElem
$LN219@DeleteElem:
  00209	ff 15 00 00 00
	00		 call	 DWORD PTR __imp___invalid_parameter_noinfo_noreturn
$LN222@DeleteElem:

; 255  :         ::operator delete(_Ptr, _Bytes);

  0020f	51		 push	 ecx
  00210	52		 push	 edx
  00211	e8 00 00 00 00	 call	 ??3@YAXPAXI@Z		; operator delete
  00216	8b 4d e8	 mov	 ecx, DWORD PTR _deletedElementList$[ebp+16]
  00219	83 c4 08	 add	 esp, 8
  0021c	8b 45 e4	 mov	 eax, DWORD PTR _deletedElementList$[ebp+12]
$LN212@DeleteElem:
; File C:\Program Files (x86)\Microsoft Visual Studio\2019\Community\VC\Tools\MSVC\14.29.30133\include\deque

; 1002 :         return _Mysize() == 0;

  0021f	85 c9		 test	 ecx, ecx

; 1475 :         while (!empty()) {

  00221	74 15		 je	 SHORT $LN231@DeleteElem
$LL230@DeleteElem:

; 1146 :         if (--_Mysize() == 0) {

  00223	83 e9 01	 sub	 ecx, 1
  00226	ba 00 00 00 00	 mov	 edx, 0
  0022b	0f 44 c2	 cmove	 eax, edx

; 1002 :         return _Mysize() == 0;

  0022e	85 c9		 test	 ecx, ecx

; 1475 :         while (!empty()) {

  00230	75 f1		 jne	 SHORT $LL230@DeleteElem

; 1146 :         if (--_Mysize() == 0) {

  00232	89 45 e4	 mov	 DWORD PTR _deletedElementList$[ebp+12], eax
  00235	89 4d e8	 mov	 DWORD PTR _deletedElementList$[ebp+16], ecx
$LN231@DeleteElem:
; File C:\Program Files (x86)\Microsoft Visual Studio\2019\Community\VC\Tools\MSVC\14.29.30133\include\utility

; 602  :     _Ty _Old_val = static_cast<_Ty&&>(_Val);

  00238	8b 4d d8	 mov	 ecx, DWORD PTR _deletedElementList$[ebp]
; File C:\Program Files (x86)\Microsoft Visual Studio\2019\Community\VC\Tools\MSVC\14.29.30133\include\xmemory

; 255  :         ::operator delete(_Ptr, _Bytes);

  0023b	6a 08		 push	 8
  0023d	51		 push	 ecx
; File C:\Program Files (x86)\Microsoft Visual Studio\2019\Community\VC\Tools\MSVC\14.29.30133\include\deque

; 1490 :         _Mapsize() = 0;

  0023e	c7 45 e0 00 00
	00 00		 mov	 DWORD PTR _deletedElementList$[ebp+8], 0

; 1491 :         _Map()     = _Mapptr();

  00245	c7 45 dc 00 00
	00 00		 mov	 DWORD PTR _deletedElementList$[ebp+4], 0
; File C:\Program Files (x86)\Microsoft Visual Studio\2019\Community\VC\Tools\MSVC\14.29.30133\include\utility

; 603  :     _Val         = static_cast<_Other&&>(_New_val);

  0024c	c7 45 d8 00 00
	00 00		 mov	 DWORD PTR _deletedElementList$[ebp], 0
; File C:\Program Files (x86)\Microsoft Visual Studio\2019\Community\VC\Tools\MSVC\14.29.30133\include\xmemory

; 255  :         ::operator delete(_Ptr, _Bytes);

  00253	e8 00 00 00 00	 call	 ??3@YAXPAXI@Z		; operator delete
  00258	83 c4 08	 add	 esp, 8
; File D:\git\src\IBK\IBK_DRFN\ProjSrc\SrcChartEx\ChartAddIn\ChartAnalysisToolAddIn\AnalysisTool\ElementTree.cpp

; 618  : 	return true;

  0025b	8a c3		 mov	 al, bl

; 619  : }

  0025d	8b 4d f4	 mov	 ecx, DWORD PTR __$EHRec$[ebp]
  00260	64 89 0d 00 00
	00 00		 mov	 DWORD PTR fs:0, ecx
  00267	59		 pop	 ecx
  00268	5f		 pop	 edi
  00269	5e		 pop	 esi
  0026a	5b		 pop	 ebx
  0026b	8b e5		 mov	 esp, ebp
  0026d	5d		 pop	 ebp
  0026e	c2 04 00	 ret	 4
$LN345@DeleteElem:
_TEXT	ENDS
;	COMDAT text$x
text$x	SEGMENT
__unwindfunclet$?DeleteElement@CElementTree@@QAE_NW4ElementType@CToolEnumData@@@Z$0:
  00000	8d 4d d8	 lea	 ecx, DWORD PTR _deletedElementList$[ebp]
  00003	e9 00 00 00 00	 jmp	 ??1?$CDequePointerList@VCElement@@@@QAE@XZ ; CDequePointerList<CElement>::~CDequePointerList<CElement>
  00008	cc		 int	 3
  00009	cc		 int	 3
  0000a	cc		 int	 3
  0000b	cc		 int	 3
  0000c	cc		 int	 3
__ehhandler$?DeleteElement@CElementTree@@QAE_NW4ElementType@CToolEnumData@@@Z:
  0000d	90		 npad	 1
  0000e	90		 npad	 1
  0000f	8b 54 24 08	 mov	 edx, DWORD PTR [esp+8]
  00013	8d 42 0c	 lea	 eax, DWORD PTR [edx+12]
  00016	8b 4a d4	 mov	 ecx, DWORD PTR [edx-44]
  00019	33 c8		 xor	 ecx, eax
  0001b	e8 00 00 00 00	 call	 @__security_check_cookie@4
  00020	b8 00 00 00 00	 mov	 eax, OFFSET __ehfuncinfo$?DeleteElement@CElementTree@@QAE_NW4ElementType@CToolEnumData@@@Z
  00025	e9 00 00 00 00	 jmp	 ___CxxFrameHandler3
text$x	ENDS
?DeleteElement@CElementTree@@QAE_NW4ElementType@CToolEnumData@@@Z ENDP ; CElementTree::DeleteElement
; Function compile flags: /Ogtp
; File D:\git\src\IBK\IBK_DRFN\ProjSrc\SrcChartEx\ChartAddIn\ChartAnalysisToolAddIn\AnalysisTool\ElementTree.cpp
; File C:\Program Files (x86)\Microsoft Visual Studio\2019\Community\VC\Tools\MSVC\14.29.30133\include\deque
; File D:\git\src\IBK\IBK_DRFN\ProjSrc\SrcChartEx\ChartAddIn\ChartAnalysisToolAddIn\Include_Chart\DequeList.h
; File C:\Program Files (x86)\Microsoft Visual Studio\2019\Community\VC\Tools\MSVC\14.29.30133\include\deque
; File D:\git\src\IBK\IBK_DRFN\ProjSrc\SrcChartEx\ChartAddIn\ChartAnalysisToolAddIn\Include_Chart\DequeList.h
; File D:\git\src\IBK\IBK_DRFN\ProjSrc\SrcChartEx\ChartAddIn\ChartAnalysisToolAddIn\AnalysisTool\ElementTree.cpp
; File C:\Program Files (x86)\Microsoft Visual Studio\2019\Community\VC\Tools\MSVC\14.29.30133\include\deque
; File D:\git\src\IBK\IBK_DRFN\ProjSrc\SrcChartEx\ChartAddIn\ChartAnalysisToolAddIn\Include_Chart\DequeList.h
; File C:\Program Files (x86)\Microsoft Visual Studio\2019\Community\VC\Tools\MSVC\14.29.30133\include\deque
; File D:\git\src\IBK\IBK_DRFN\ProjSrc\SrcChartEx\ChartAddIn\ChartAnalysisToolAddIn\Include_Chart\DequeList.h
; File C:\Program Files (x86)\Microsoft Visual Studio\2019\Community\VC\Tools\MSVC\14.29.30133\include\deque
; File D:\git\src\IBK\IBK_DRFN\ProjSrc\SrcChartEx\ChartAddIn\ChartAnalysisToolAddIn\Include_Chart\DequeList.h
; File D:\git\src\IBK\IBK_DRFN\ProjSrc\SrcChartEx\ChartAddIn\ChartAnalysisToolAddIn\AnalysisTool\ElementTree.cpp
;	COMDAT ?DeleteTail@CElementTree@@QAEXXZ
_TEXT	SEGMENT
?DeleteTail@CElementTree@@QAEXXZ PROC			; CElementTree::DeleteTail, COMDAT
; _this$ = ecx

; 601  : {

  00000	55		 push	 ebp
  00001	8b ec		 mov	 ebp, esp
  00003	83 ec 08	 sub	 esp, 8
  00006	56		 push	 esi
  00007	8b f1		 mov	 esi, ecx
; File C:\Program Files (x86)\Microsoft Visual Studio\2019\Community\VC\Tools\MSVC\14.29.30133\include\deque

; 1002 :         return _Mysize() == 0;

  00009	8b 4e 10	 mov	 ecx, DWORD PTR [esi+16]
  0000c	85 c9		 test	 ecx, ecx
; File D:\git\src\IBK\IBK_DRFN\ProjSrc\SrcChartEx\ChartAddIn\ChartAnalysisToolAddIn\Include_Chart\DequeList.h

; 191  : 		if(m_deque.empty())

  0000e	74 6d		 je	 SHORT $LN63@DeleteTail
; File C:\Program Files (x86)\Microsoft Visual Studio\2019\Community\VC\Tools\MSVC\14.29.30133\include\deque

; 917  :         return _Unchecked_const_iterator(_Myoff() + _Mysize(), _STD addressof(_Get_data()));

  00010	8b 46 0c	 mov	 eax, DWORD PTR [esi+12]
  00013	03 c1		 add	 eax, ecx
  00015	53		 push	 ebx

; 67   :         --_Myoff;

  00016	8d 50 ff	 lea	 edx, DWORD PTR [eax-1]

; 559  :         return (_Off / _Block_size) & (_Mapsize - 1);

  00019	8b 46 08	 mov	 eax, DWORD PTR [esi+8]
  0001c	8b ca		 mov	 ecx, edx
  0001e	48		 dec	 eax
  0001f	c1 e9 02	 shr	 ecx, 2

; 48   :         return _Mycont->_Map[_Block][_Off];

  00022	83 e2 03	 and	 edx, 3

; 559  :         return (_Off / _Block_size) & (_Mapsize - 1);

  00025	23 c8		 and	 ecx, eax
; File D:\git\src\IBK\IBK_DRFN\ProjSrc\SrcChartEx\ChartAddIn\ChartAnalysisToolAddIn\Include_Chart\DequeList.h

; 193  : 		return m_deque.back();

  00027	8b 46 04	 mov	 eax, DWORD PTR [esi+4]
  0002a	8b 04 88	 mov	 eax, DWORD PTR [eax+ecx*4]
  0002d	8b 1c 90	 mov	 ebx, DWORD PTR [eax+edx*4]
; File D:\git\src\IBK\IBK_DRFN\ProjSrc\SrcChartEx\ChartAddIn\ChartAnalysisToolAddIn\AnalysisTool\ElementTree.cpp

; 603  : 	if(pElement == NULL)

  00030	85 db		 test	 ebx, ebx
  00032	74 48		 je	 SHORT $LN64@DeleteTail

; 626  : 	m_order.Remove(pElement);

  00034	57		 push	 edi
  00035	53		 push	 ebx
  00036	8b ce		 mov	 ecx, esi
  00038	e8 00 00 00 00	 call	 ?Remove@COrder@@QAEXPAVCElement@@@Z ; COrder::Remove

; 258  : 	for(int nIndex = 0; nIndex < m_ColumnSetList.GetCount(); nIndex++)

  0003d	33 ff		 xor	 edi, edi
  0003f	39 7e 28	 cmp	 DWORD PTR [esi+40], edi
  00042	7e 37		 jle	 SHORT $LN65@DeleteTail
$LL30@DeleteTail:
; File C:\Program Files (x86)\Microsoft Visual Studio\2019\Community\VC\Tools\MSVC\14.29.30133\include\deque

; 1002 :         return _Mysize() == 0;

  00044	83 7e 28 00	 cmp	 DWORD PTR [esi+40], 0
; File D:\git\src\IBK\IBK_DRFN\ProjSrc\SrcChartEx\ChartAddIn\ChartAnalysisToolAddIn\Include_Chart\DequeList.h

; 198  : 		if(m_deque.empty())

  00048	75 04		 jne	 SHORT $LN34@DeleteTail

; 199  : 			return NULL;

  0004a	33 c9		 xor	 ecx, ecx
  0004c	eb 1d		 jmp	 SHORT $LN33@DeleteTail
$LN34@DeleteTail:
; File C:\Program Files (x86)\Microsoft Visual Studio\2019\Community\VC\Tools\MSVC\14.29.30133\include\deque

; 43   :         : _Mycont(static_cast<const _Mydeque*>(_Pdeque)), _Myoff(_Off) {}

  0004e	8b 46 24	 mov	 eax, DWORD PTR [esi+36]

; 78   :         _Myoff += _Off;

  00051	8d 14 38	 lea	 edx, DWORD PTR [eax+edi]

; 559  :         return (_Off / _Block_size) & (_Mapsize - 1);

  00054	8b 46 20	 mov	 eax, DWORD PTR [esi+32]

; 78   :         _Myoff += _Off;

  00057	8b ca		 mov	 ecx, edx

; 559  :         return (_Off / _Block_size) & (_Mapsize - 1);

  00059	48		 dec	 eax

; 78   :         _Myoff += _Off;

  0005a	c1 e9 02	 shr	 ecx, 2

; 559  :         return (_Off / _Block_size) & (_Mapsize - 1);

  0005d	23 c8		 and	 ecx, eax
; File D:\git\src\IBK\IBK_DRFN\ProjSrc\SrcChartEx\ChartAddIn\ChartAnalysisToolAddIn\Include_Chart\DequeList.h

; 201  : 		return m_deque[nIndex];

  0005f	8b 46 1c	 mov	 eax, DWORD PTR [esi+28]
; File C:\Program Files (x86)\Microsoft Visual Studio\2019\Community\VC\Tools\MSVC\14.29.30133\include\deque

; 48   :         return _Mycont->_Map[_Block][_Off];

  00062	83 e2 03	 and	 edx, 3
; File D:\git\src\IBK\IBK_DRFN\ProjSrc\SrcChartEx\ChartAddIn\ChartAnalysisToolAddIn\Include_Chart\DequeList.h

; 201  : 		return m_deque[nIndex];

  00065	8b 04 88	 mov	 eax, DWORD PTR [eax+ecx*4]
  00068	8b 0c 90	 mov	 ecx, DWORD PTR [eax+edx*4]
$LN33@DeleteTail:
; File D:\git\src\IBK\IBK_DRFN\ProjSrc\SrcChartEx\ChartAddIn\ChartAnalysisToolAddIn\AnalysisTool\ElementTree.cpp

; 262  : 		if(pColumnSet->DeleteElement(pElement))

  0006b	53		 push	 ebx
  0006c	e8 00 00 00 00	 call	 ?DeleteElement@CColumnSet@@QAE_NPAVCElement@@@Z ; CColumnSet::DeleteElement
  00071	84 c0		 test	 al, al
  00073	75 06		 jne	 SHORT $LN65@DeleteTail

; 258  : 	for(int nIndex = 0; nIndex < m_ColumnSetList.GetCount(); nIndex++)

  00075	47		 inc	 edi
  00076	3b 7e 28	 cmp	 edi, DWORD PTR [esi+40]
  00079	7c c9		 jl	 SHORT $LL30@DeleteTail
$LN65@DeleteTail:
  0007b	5f		 pop	 edi
$LN64@DeleteTail:
  0007c	5b		 pop	 ebx
$LN63@DeleteTail:
  0007d	5e		 pop	 esi

; 604  : 		return;
; 605  : 
; 606  : 	DeleteElement(pElement);
; 607  : }

  0007e	8b e5		 mov	 esp, ebp
  00080	5d		 pop	 ebp
  00081	c3		 ret	 0
?DeleteTail@CElementTree@@QAEXXZ ENDP			; CElementTree::DeleteTail
_TEXT	ENDS
; Function compile flags: /Ogtp
; File D:\git\src\IBK\IBK_DRFN\ProjSrc\SrcChartEx\ChartAddIn\ChartAnalysisToolAddIn\AnalysisTool\ElementTree.cpp
; File C:\Program Files (x86)\Microsoft Visual Studio\2019\Community\VC\Tools\MSVC\14.29.30133\include\xmemory
; File C:\Program Files (x86)\Microsoft Visual Studio\2019\Community\VC\Tools\MSVC\14.29.30133\include\deque
; File C:\Program Files (x86)\Microsoft Visual Studio\2019\Community\VC\Tools\MSVC\14.29.30133\include\xmemory
; File D:\git\src\IBK\IBK_DRFN\ProjSrc\SrcChartEx\ChartAddIn\ChartAnalysisToolAddIn\AnalysisTool\ElementTree.cpp
; File C:\Program Files (x86)\Microsoft Visual Studio\2019\Community\VC\Tools\MSVC\14.29.30133\include\deque
; File D:\git\src\IBK\IBK_DRFN\ProjSrc\SrcChartEx\ChartAddIn\ChartAnalysisToolAddIn\Include_Chart\DequeList.h
; File C:\Program Files (x86)\Microsoft Visual Studio\2019\Community\VC\Tools\MSVC\14.29.30133\include\deque
; File D:\git\src\IBK\IBK_DRFN\ProjSrc\SrcChartEx\ChartAddIn\ChartAnalysisToolAddIn\Include_Chart\DequeList.h
; File C:\Program Files (x86)\Microsoft Visual Studio\2019\Community\VC\Tools\MSVC\14.29.30133\include\deque
; File D:\git\src\IBK\IBK_DRFN\ProjSrc\SrcChartEx\ChartAddIn\ChartAnalysisToolAddIn\Include_Chart\DequeList.h
; File D:\git\src\IBK\IBK_DRFN\ProjSrc\SrcChartEx\ChartAddIn\ChartAnalysisToolAddIn\AnalysisTool\ElementTree.cpp
; File C:\Program Files (x86)\Microsoft Visual Studio\2019\Community\VC\Tools\MSVC\14.29.30133\include\deque
; File D:\git\src\IBK\IBK_DRFN\ProjSrc\SrcChartEx\ChartAddIn\ChartAnalysisToolAddIn\Include_Chart\DequeList.h
; File C:\Program Files (x86)\Microsoft Visual Studio\2019\Community\VC\Tools\MSVC\14.29.30133\include\deque
; File D:\git\src\IBK\IBK_DRFN\ProjSrc\SrcChartEx\ChartAddIn\ChartAnalysisToolAddIn\Include_Chart\DequeList.h
; File C:\Program Files (x86)\Microsoft Visual Studio\2019\Community\VC\Tools\MSVC\14.29.30133\include\deque
; File D:\git\src\IBK\IBK_DRFN\ProjSrc\SrcChartEx\ChartAddIn\ChartAnalysisToolAddIn\Include_Chart\DequeList.h
; File D:\git\src\IBK\IBK_DRFN\ProjSrc\SrcChartEx\ChartAddIn\ChartAnalysisToolAddIn\AnalysisTool\ElementTree.cpp
; File C:\Program Files (x86)\Microsoft Visual Studio\2019\Community\VC\Tools\MSVC\14.29.30133\include\deque
; File C:\Program Files (x86)\Microsoft Visual Studio\2019\Community\VC\Tools\MSVC\14.29.30133\include\xmemory
; File C:\Program Files (x86)\Microsoft Visual Studio\2019\Community\VC\Tools\MSVC\14.29.30133\include\deque
; File C:\Program Files (x86)\Microsoft Visual Studio\2019\Community\VC\Tools\MSVC\14.29.30133\include\xmemory
; File C:\Program Files (x86)\Microsoft Visual Studio\2019\Community\VC\Tools\MSVC\14.29.30133\include\deque
; File C:\Program Files (x86)\Microsoft Visual Studio\2019\Community\VC\Tools\MSVC\14.29.30133\include\utility
; File C:\Program Files (x86)\Microsoft Visual Studio\2019\Community\VC\Tools\MSVC\14.29.30133\include\xmemory
; File C:\Program Files (x86)\Microsoft Visual Studio\2019\Community\VC\Tools\MSVC\14.29.30133\include\deque
; File C:\Program Files (x86)\Microsoft Visual Studio\2019\Community\VC\Tools\MSVC\14.29.30133\include\utility
; File C:\Program Files (x86)\Microsoft Visual Studio\2019\Community\VC\Tools\MSVC\14.29.30133\include\xmemory
; File D:\git\src\IBK\IBK_DRFN\ProjSrc\SrcChartEx\ChartAddIn\ChartAnalysisToolAddIn\AnalysisTool\ElementTree.cpp
;	COMDAT ?DeleteRowSet@CElementTree@@QAEXABVCBlockIndex@@@Z
_TEXT	SEGMENT
_elementList$ = -40					; size = 20
__$EHRec$ = -12						; size = 12
_blockIndex$ = 8					; size = 4
?DeleteRowSet@CElementTree@@QAEXABVCBlockIndex@@@Z PROC	; CElementTree::DeleteRowSet, COMDAT
; _this$ = ecx

; 589  : {

  00000	55		 push	 ebp
  00001	8b ec		 mov	 ebp, esp
  00003	6a ff		 push	 -1
  00005	68 00 00 00 00	 push	 __ehhandler$?DeleteRowSet@CElementTree@@QAEXABVCBlockIndex@@@Z
  0000a	64 a1 00 00 00
	00		 mov	 eax, DWORD PTR fs:0
  00010	50		 push	 eax
  00011	83 ec 1c	 sub	 esp, 28			; 0000001cH
  00014	53		 push	 ebx
  00015	56		 push	 esi
  00016	57		 push	 edi
  00017	a1 00 00 00 00	 mov	 eax, DWORD PTR ___security_cookie
  0001c	33 c5		 xor	 eax, ebp
  0001e	50		 push	 eax
  0001f	8d 45 f4	 lea	 eax, DWORD PTR __$EHRec$[ebp]
  00022	64 a3 00 00 00
	00		 mov	 DWORD PTR fs:0, eax
  00028	8b f9		 mov	 edi, ecx
; File C:\Program Files (x86)\Microsoft Visual Studio\2019\Community\VC\Tools\MSVC\14.29.30133\include\xmemory

; 79   :         return ::operator new(_Bytes);

  0002a	6a 08		 push	 8

; 1033 :     _Container_proxy* _Myproxy = nullptr;

  0002c	c7 45 d8 00 00
	00 00		 mov	 DWORD PTR _elementList$[ebp], 0
; File C:\Program Files (x86)\Microsoft Visual Studio\2019\Community\VC\Tools\MSVC\14.29.30133\include\deque

; 555  :     _Deque_val() noexcept : _Map(), _Mapsize(0), _Myoff(0), _Mysize(0) {}

  00033	c7 45 dc 00 00
	00 00		 mov	 DWORD PTR _elementList$[ebp+4], 0
  0003a	c7 45 e0 00 00
	00 00		 mov	 DWORD PTR _elementList$[ebp+8], 0
  00041	c7 45 e4 00 00
	00 00		 mov	 DWORD PTR _elementList$[ebp+12], 0
  00048	c7 45 e8 00 00
	00 00		 mov	 DWORD PTR _elementList$[ebp+16], 0
; File C:\Program Files (x86)\Microsoft Visual Studio\2019\Community\VC\Tools\MSVC\14.29.30133\include\xmemory

; 79   :         return ::operator new(_Bytes);

  0004f	e8 00 00 00 00	 call	 ??2@YAPAXI@Z		; operator new

; 1021 :         _New_proxy->_Mycont = this;

  00054	8d 4d d8	 lea	 ecx, DWORD PTR _elementList$[ebp]

; 79   :         return ::operator new(_Bytes);

  00057	83 c4 04	 add	 esp, 4

; 1003 :     mutable _Iterator_base12* _Myfirstiter = nullptr;

  0005a	c7 40 04 00 00
	00 00		 mov	 DWORD PTR [eax+4], 0

; 1020 :         _Myproxy            = _New_proxy;

  00061	89 45 d8	 mov	 DWORD PTR _elementList$[ebp], eax

; 1021 :         _New_proxy->_Mycont = this;

  00064	89 08		 mov	 DWORD PTR [eax], ecx
; File D:\git\src\IBK\IBK_DRFN\ProjSrc\SrcChartEx\ChartAddIn\ChartAnalysisToolAddIn\AnalysisTool\ElementTree.cpp

; 591  : 	m_tree.GetElementList(blockIndex, elementList);

  00066	8b 5d 08	 mov	 ebx, DWORD PTR _blockIndex$[ebp]
  00069	8b c1		 mov	 eax, ecx
  0006b	50		 push	 eax
  0006c	53		 push	 ebx
  0006d	8d 4f 14	 lea	 ecx, DWORD PTR [edi+20]
  00070	c7 45 fc 00 00
	00 00		 mov	 DWORD PTR __$EHRec$[ebp+8], 0
  00077	e8 00 00 00 00	 call	 ?GetElementList@CTree@@QAEXABVCBlockIndex@@AAV?$CDequePointerList@VCElement@@@@@Z ; CTree::GetElementList

; 592  : 
; 593  : 	if(elementList.GetCount() > 0)

  0007c	8b 45 e8	 mov	 eax, DWORD PTR _elementList$[ebp+16]
  0007f	85 c0		 test	 eax, eax
  00081	7e 44		 jle	 SHORT $LN54@DeleteRowS

; 53   : 	for(int nIndex = 0; nIndex < elementList.GetCount(); nIndex++){

  00083	33 f6		 xor	 esi, esi
  00085	85 c0		 test	 eax, eax
  00087	7e 3e		 jle	 SHORT $LN54@DeleteRowS
  00089	0f 1f 80 00 00
	00 00		 npad	 7
$LL55@DeleteRowS:
; File C:\Program Files (x86)\Microsoft Visual Studio\2019\Community\VC\Tools\MSVC\14.29.30133\include\deque

; 1002 :         return _Mysize() == 0;

  00090	85 c0		 test	 eax, eax
; File D:\git\src\IBK\IBK_DRFN\ProjSrc\SrcChartEx\ChartAddIn\ChartAnalysisToolAddIn\Include_Chart\DequeList.h

; 205  : 		if(m_deque.empty())

  00092	74 23		 je	 SHORT $LN57@DeleteRowS
$LN58@DeleteRowS:
; File C:\Program Files (x86)\Microsoft Visual Studio\2019\Community\VC\Tools\MSVC\14.29.30133\include\deque

; 43   :         : _Mycont(static_cast<const _Mydeque*>(_Pdeque)), _Myoff(_Off) {}

  00094	8b 45 e4	 mov	 eax, DWORD PTR _elementList$[ebp+12]

; 78   :         _Myoff += _Off;

  00097	8d 14 30	 lea	 edx, DWORD PTR [eax+esi]

; 559  :         return (_Off / _Block_size) & (_Mapsize - 1);

  0009a	8d 45 d8	 lea	 eax, DWORD PTR _elementList$[ebp]

; 78   :         _Myoff += _Off;

  0009d	8b ca		 mov	 ecx, edx

; 559  :         return (_Off / _Block_size) & (_Mapsize - 1);

  0009f	8b 40 08	 mov	 eax, DWORD PTR [eax+8]
  000a2	48		 dec	 eax

; 78   :         _Myoff += _Off;

  000a3	c1 e9 02	 shr	 ecx, 2

; 559  :         return (_Off / _Block_size) & (_Mapsize - 1);

  000a6	23 c8		 and	 ecx, eax
; File D:\git\src\IBK\IBK_DRFN\ProjSrc\SrcChartEx\ChartAddIn\ChartAnalysisToolAddIn\Include_Chart\DequeList.h

; 208  : 		return m_deque[nIndex];

  000a8	8d 45 d8	 lea	 eax, DWORD PTR _elementList$[ebp]
  000ab	8b 40 04	 mov	 eax, DWORD PTR [eax+4]
; File C:\Program Files (x86)\Microsoft Visual Studio\2019\Community\VC\Tools\MSVC\14.29.30133\include\deque

; 48   :         return _Mycont->_Map[_Block][_Off];

  000ae	83 e2 03	 and	 edx, 3
; File D:\git\src\IBK\IBK_DRFN\ProjSrc\SrcChartEx\ChartAddIn\ChartAnalysisToolAddIn\Include_Chart\DequeList.h

; 208  : 		return m_deque[nIndex];

  000b1	8b 04 88	 mov	 eax, DWORD PTR [eax+ecx*4]
  000b4	8b 04 90	 mov	 eax, DWORD PTR [eax+edx*4]
$LN57@DeleteRowS:
; File D:\git\src\IBK\IBK_DRFN\ProjSrc\SrcChartEx\ChartAddIn\ChartAnalysisToolAddIn\AnalysisTool\ElementTree.cpp

; 56   : 		Remove(pElement);

  000b7	50		 push	 eax
  000b8	8b cf		 mov	 ecx, edi
  000ba	e8 00 00 00 00	 call	 ?Remove@COrder@@QAEXPAVCElement@@@Z ; COrder::Remove
  000bf	8b 45 e8	 mov	 eax, DWORD PTR _elementList$[ebp+16]
  000c2	46		 inc	 esi
  000c3	3b f0		 cmp	 esi, eax
  000c5	7c c9		 jl	 SHORT $LL55@DeleteRowS
$LN54@DeleteRowS:

; 230  : 	if(blockIndex.GetColumn() < 0 || blockIndex.GetColumn() >= m_ColumnSetList.GetCount())

  000c7	8b 4b 04	 mov	 ecx, DWORD PTR [ebx+4]
  000ca	85 c9		 test	 ecx, ecx
  000cc	78 36		 js	 SHORT $LN78@DeleteRowS
  000ce	3b 4f 28	 cmp	 ecx, DWORD PTR [edi+40]
  000d1	7d 31		 jge	 SHORT $LN78@DeleteRowS
; File C:\Program Files (x86)\Microsoft Visual Studio\2019\Community\VC\Tools\MSVC\14.29.30133\include\deque

; 1002 :         return _Mysize() == 0;

  000d3	83 7f 28 00	 cmp	 DWORD PTR [edi+40], 0
; File D:\git\src\IBK\IBK_DRFN\ProjSrc\SrcChartEx\ChartAddIn\ChartAnalysisToolAddIn\Include_Chart\DequeList.h

; 198  : 		if(m_deque.empty())

  000d7	75 04		 jne	 SHORT $LN81@DeleteRowS

; 199  : 			return NULL;

  000d9	33 c9		 xor	 ecx, ecx
  000db	eb 1d		 jmp	 SHORT $LN80@DeleteRowS
$LN81@DeleteRowS:
; File C:\Program Files (x86)\Microsoft Visual Studio\2019\Community\VC\Tools\MSVC\14.29.30133\include\deque

; 43   :         : _Mycont(static_cast<const _Mydeque*>(_Pdeque)), _Myoff(_Off) {}

  000dd	8b 47 24	 mov	 eax, DWORD PTR [edi+36]

; 78   :         _Myoff += _Off;

  000e0	8d 14 01	 lea	 edx, DWORD PTR [ecx+eax]

; 559  :         return (_Off / _Block_size) & (_Mapsize - 1);

  000e3	8b 47 20	 mov	 eax, DWORD PTR [edi+32]

; 78   :         _Myoff += _Off;

  000e6	8b ca		 mov	 ecx, edx

; 559  :         return (_Off / _Block_size) & (_Mapsize - 1);

  000e8	48		 dec	 eax

; 78   :         _Myoff += _Off;

  000e9	c1 e9 02	 shr	 ecx, 2

; 559  :         return (_Off / _Block_size) & (_Mapsize - 1);

  000ec	23 c8		 and	 ecx, eax
; File D:\git\src\IBK\IBK_DRFN\ProjSrc\SrcChartEx\ChartAddIn\ChartAnalysisToolAddIn\Include_Chart\DequeList.h

; 201  : 		return m_deque[nIndex];

  000ee	8b 47 1c	 mov	 eax, DWORD PTR [edi+28]
; File C:\Program Files (x86)\Microsoft Visual Studio\2019\Community\VC\Tools\MSVC\14.29.30133\include\deque

; 48   :         return _Mycont->_Map[_Block][_Off];

  000f1	83 e2 03	 and	 edx, 3
; File D:\git\src\IBK\IBK_DRFN\ProjSrc\SrcChartEx\ChartAddIn\ChartAnalysisToolAddIn\Include_Chart\DequeList.h

; 201  : 		return m_deque[nIndex];

  000f4	8b 04 88	 mov	 eax, DWORD PTR [eax+ecx*4]
  000f7	8b 0c 90	 mov	 ecx, DWORD PTR [eax+edx*4]
$LN80@DeleteRowS:
; File D:\git\src\IBK\IBK_DRFN\ProjSrc\SrcChartEx\ChartAddIn\ChartAnalysisToolAddIn\AnalysisTool\ElementTree.cpp

; 235  : 	pColumnSet->DeleteRowSet(blockIndex.GetRow());

  000fa	ff 33		 push	 DWORD PTR [ebx]
  000fc	e8 00 00 00 00	 call	 ?DeleteRowSet@CColumnSet@@QAEXH@Z ; CColumnSet::DeleteRowSet
  00101	8b 45 e8	 mov	 eax, DWORD PTR _elementList$[ebp+16]
$LN78@DeleteRowS:
; File C:\Program Files (x86)\Microsoft Visual Studio\2019\Community\VC\Tools\MSVC\14.29.30133\include\deque

; 1475 :         while (!empty()) {

  00104	8b 4d e4	 mov	 ecx, DWORD PTR _elementList$[ebp+12]

; 1002 :         return _Mysize() == 0;

  00107	85 c0		 test	 eax, eax

; 1475 :         while (!empty()) {

  00109	74 1a		 je	 SHORT $LN112@DeleteRowS
  0010b	0f 1f 44 00 00	 npad	 5
$LL111@DeleteRowS:

; 1146 :         if (--_Mysize() == 0) {

  00110	83 e8 01	 sub	 eax, 1
  00113	ba 00 00 00 00	 mov	 edx, 0
  00118	0f 44 ca	 cmove	 ecx, edx

; 1002 :         return _Mysize() == 0;

  0011b	85 c0		 test	 eax, eax

; 1475 :         while (!empty()) {

  0011d	75 f1		 jne	 SHORT $LL111@DeleteRowS

; 1146 :         if (--_Mysize() == 0) {

  0011f	89 45 e8	 mov	 DWORD PTR _elementList$[ebp+16], eax
  00122	89 4d e4	 mov	 DWORD PTR _elementList$[ebp+12], ecx
$LN112@DeleteRowS:

; 1479 :         for (size_type _Block = _Mapsize(); 0 < _Block;) { // free storage for a block and destroy pointer

  00125	8b 75 e0	 mov	 esi, DWORD PTR _elementList$[ebp+8]
  00128	8b 55 dc	 mov	 edx, DWORD PTR _elementList$[ebp+4]
  0012b	85 f6		 test	 esi, esi
  0012d	74 25		 je	 SHORT $LN114@DeleteRowS
  0012f	90		 npad	 1
$LL113@DeleteRowS:

; 1480 :             if (_Map()[--_Block]) { // free block and destroy its pointer

  00130	8b 44 b2 fc	 mov	 eax, DWORD PTR [edx+esi*4-4]
  00134	4e		 dec	 esi
  00135	85 c0		 test	 eax, eax
  00137	74 0e		 je	 SHORT $LN132@DeleteRowS
; File C:\Program Files (x86)\Microsoft Visual Studio\2019\Community\VC\Tools\MSVC\14.29.30133\include\xmemory

; 255  :         ::operator delete(_Ptr, _Bytes);

  00139	6a 10		 push	 16			; 00000010H
  0013b	50		 push	 eax
  0013c	e8 00 00 00 00	 call	 ??3@YAXPAXI@Z		; operator delete
  00141	8b 55 dc	 mov	 edx, DWORD PTR _elementList$[ebp+4]
  00144	83 c4 08	 add	 esp, 8
$LN132@DeleteRowS:
; File C:\Program Files (x86)\Microsoft Visual Studio\2019\Community\VC\Tools\MSVC\14.29.30133\include\deque

; 1479 :         for (size_type _Block = _Mapsize(); 0 < _Block;) { // free storage for a block and destroy pointer

  00147	85 f6		 test	 esi, esi
  00149	75 e5		 jne	 SHORT $LL113@DeleteRowS
  0014b	8b 45 e8	 mov	 eax, DWORD PTR _elementList$[ebp+16]
  0014e	8b 4d e4	 mov	 ecx, DWORD PTR _elementList$[ebp+12]
  00151	8b 75 e0	 mov	 esi, DWORD PTR _elementList$[ebp+8]
$LN114@DeleteRowS:

; 1481 :                 _Getal().deallocate(_Map()[_Block], _Block_size);
; 1482 :                 _Destroy_in_place(_Map()[_Block]);
; 1483 :             }
; 1484 :         }
; 1485 : 
; 1486 :         if (_Map() != _Mapptr()) {

  00154	85 d2		 test	 edx, edx
  00156	74 33		 je	 SHORT $LN150@DeleteRowS
; File C:\Program Files (x86)\Microsoft Visual Studio\2019\Community\VC\Tools\MSVC\14.29.30133\include\xmemory

; 797  :         _Deallocate<_New_alignof<_Ty>>(_Ptr, sizeof(_Ty) * _Count);

  00158	c1 e6 02	 shl	 esi, 2
  0015b	8b c2		 mov	 eax, edx

; 251  :         if (_Bytes >= _Big_allocation_threshold) { // boost the alignment of big allocations to help autovectorization

  0015d	81 fe 00 10 00
	00		 cmp	 esi, 4096		; 00001000H
  00163	72 16		 jb	 SHORT $LN160@DeleteRowS

; 150  :     const uintptr_t _Ptr_container   = _Ptr_user[-1];

  00165	8b 52 fc	 mov	 edx, DWORD PTR [edx-4]
  00168	83 c6 23	 add	 esi, 35			; 00000023H
  0016b	2b c2		 sub	 eax, edx

; 151  : 
; 152  :     // If the following asserts, it likely means that we are performing
; 153  :     // an aligned delete on memory coming from an unaligned allocation.
; 154  :     _STL_ASSERT(_Ptr_user[-2] == _Big_allocation_sentinel, "invalid argument");
; 155  : 
; 156  :     // Extra paranoia on aligned allocation/deallocation; ensure _Ptr_container is
; 157  :     // in range [_Min_back_shift, _Non_user_size]
; 158  : #ifdef _DEBUG
; 159  :     constexpr uintptr_t _Min_back_shift = 2 * sizeof(void*);
; 160  : #else // ^^^ _DEBUG ^^^ // vvv !_DEBUG vvv
; 161  :     constexpr uintptr_t _Min_back_shift = sizeof(void*);
; 162  : #endif // _DEBUG
; 163  :     const uintptr_t _Back_shift = reinterpret_cast<uintptr_t>(_Ptr) - _Ptr_container;
; 164  :     _STL_VERIFY(_Back_shift >= _Min_back_shift && _Back_shift <= _Non_user_size, "invalid argument");

  0016d	83 c0 fc	 add	 eax, -4			; fffffffcH
  00170	83 f8 1f	 cmp	 eax, 31			; 0000001fH
  00173	76 06		 jbe	 SHORT $LN160@DeleteRowS
  00175	ff 15 00 00 00
	00		 call	 DWORD PTR __imp___invalid_parameter_noinfo_noreturn
$LN160@DeleteRowS:

; 255  :         ::operator delete(_Ptr, _Bytes);

  0017b	56		 push	 esi
  0017c	52		 push	 edx
  0017d	e8 00 00 00 00	 call	 ??3@YAXPAXI@Z		; operator delete
  00182	8b 45 e8	 mov	 eax, DWORD PTR _elementList$[ebp+16]
  00185	83 c4 08	 add	 esp, 8
  00188	8b 4d e4	 mov	 ecx, DWORD PTR _elementList$[ebp+12]
$LN150@DeleteRowS:
; File C:\Program Files (x86)\Microsoft Visual Studio\2019\Community\VC\Tools\MSVC\14.29.30133\include\deque

; 1002 :         return _Mysize() == 0;

  0018b	85 c0		 test	 eax, eax

; 1475 :         while (!empty()) {

  0018d	74 16		 je	 SHORT $LN169@DeleteRowS
  0018f	90		 npad	 1
$LL168@DeleteRowS:

; 1146 :         if (--_Mysize() == 0) {

  00190	83 e8 01	 sub	 eax, 1
  00193	ba 00 00 00 00	 mov	 edx, 0
  00198	0f 44 ca	 cmove	 ecx, edx

; 1002 :         return _Mysize() == 0;

  0019b	85 c0		 test	 eax, eax

; 1475 :         while (!empty()) {

  0019d	75 f1		 jne	 SHORT $LL168@DeleteRowS

; 1146 :         if (--_Mysize() == 0) {

  0019f	89 45 e8	 mov	 DWORD PTR _elementList$[ebp+16], eax
  001a2	89 4d e4	 mov	 DWORD PTR _elementList$[ebp+12], ecx
$LN169@DeleteRowS:
; File C:\Program Files (x86)\Microsoft Visual Studio\2019\Community\VC\Tools\MSVC\14.29.30133\include\utility

; 602  :     _Ty _Old_val = static_cast<_Ty&&>(_Val);

  001a5	8b 45 d8	 mov	 eax, DWORD PTR _elementList$[ebp]
; File C:\Program Files (x86)\Microsoft Visual Studio\2019\Community\VC\Tools\MSVC\14.29.30133\include\xmemory

; 255  :         ::operator delete(_Ptr, _Bytes);

  001a8	6a 08		 push	 8
  001aa	50		 push	 eax
; File C:\Program Files (x86)\Microsoft Visual Studio\2019\Community\VC\Tools\MSVC\14.29.30133\include\deque

; 1490 :         _Mapsize() = 0;

  001ab	c7 45 e0 00 00
	00 00		 mov	 DWORD PTR _elementList$[ebp+8], 0

; 1491 :         _Map()     = _Mapptr();

  001b2	c7 45 dc 00 00
	00 00		 mov	 DWORD PTR _elementList$[ebp+4], 0
; File C:\Program Files (x86)\Microsoft Visual Studio\2019\Community\VC\Tools\MSVC\14.29.30133\include\utility

; 603  :     _Val         = static_cast<_Other&&>(_New_val);

  001b9	c7 45 d8 00 00
	00 00		 mov	 DWORD PTR _elementList$[ebp], 0
; File C:\Program Files (x86)\Microsoft Visual Studio\2019\Community\VC\Tools\MSVC\14.29.30133\include\xmemory

; 255  :         ::operator delete(_Ptr, _Bytes);

  001c0	e8 00 00 00 00	 call	 ??3@YAXPAXI@Z		; operator delete
  001c5	83 c4 08	 add	 esp, 8
; File D:\git\src\IBK\IBK_DRFN\ProjSrc\SrcChartEx\ChartAddIn\ChartAnalysisToolAddIn\AnalysisTool\ElementTree.cpp

; 597  : }

  001c8	8b 4d f4	 mov	 ecx, DWORD PTR __$EHRec$[ebp]
  001cb	64 89 0d 00 00
	00 00		 mov	 DWORD PTR fs:0, ecx
  001d2	59		 pop	 ecx
  001d3	5f		 pop	 edi
  001d4	5e		 pop	 esi
  001d5	5b		 pop	 ebx
  001d6	8b e5		 mov	 esp, ebp
  001d8	5d		 pop	 ebp
  001d9	c2 04 00	 ret	 4
$LN266@DeleteRowS:
_TEXT	ENDS
;	COMDAT text$x
text$x	SEGMENT
__unwindfunclet$?DeleteRowSet@CElementTree@@QAEXABVCBlockIndex@@@Z$0:
  00000	8d 4d d8	 lea	 ecx, DWORD PTR _elementList$[ebp]
  00003	e9 00 00 00 00	 jmp	 ??1?$CDequePointerList@VCElement@@@@QAE@XZ ; CDequePointerList<CElement>::~CDequePointerList<CElement>
  00008	cc		 int	 3
  00009	cc		 int	 3
  0000a	cc		 int	 3
  0000b	cc		 int	 3
  0000c	cc		 int	 3
__ehhandler$?DeleteRowSet@CElementTree@@QAEXABVCBlockIndex@@@Z:
  0000d	90		 npad	 1
  0000e	90		 npad	 1
  0000f	8b 54 24 08	 mov	 edx, DWORD PTR [esp+8]
  00013	8d 42 0c	 lea	 eax, DWORD PTR [edx+12]
  00016	8b 4a d4	 mov	 ecx, DWORD PTR [edx-44]
  00019	33 c8		 xor	 ecx, eax
  0001b	e8 00 00 00 00	 call	 @__security_check_cookie@4
  00020	b8 00 00 00 00	 mov	 eax, OFFSET __ehfuncinfo$?DeleteRowSet@CElementTree@@QAEXABVCBlockIndex@@@Z
  00025	e9 00 00 00 00	 jmp	 ___CxxFrameHandler3
text$x	ENDS
?DeleteRowSet@CElementTree@@QAEXABVCBlockIndex@@@Z ENDP	; CElementTree::DeleteRowSet
; Function compile flags: /Ogtp
; File D:\git\src\IBK\IBK_DRFN\ProjSrc\SrcChartEx\ChartAddIn\ChartAnalysisToolAddIn\AnalysisTool\ElementTree.cpp
; File C:\Program Files (x86)\Microsoft Visual Studio\2019\Community\VC\Tools\MSVC\14.29.30133\include\deque
; File D:\git\src\IBK\IBK_DRFN\ProjSrc\SrcChartEx\ChartAddIn\ChartAnalysisToolAddIn\AnalysisTool\ElementTree.cpp
;	COMDAT ?DeleteAll@CElementTree@@QAEXXZ
_TEXT	SEGMENT
?DeleteAll@CElementTree@@QAEXXZ PROC			; CElementTree::DeleteAll, COMDAT
; _this$ = ecx

; 579  : {

  00000	56		 push	 esi
  00001	8b f1		 mov	 esi, ecx

; 580  : 	if(m_order.GetCount() <= 0)

  00003	83 7e 10 00	 cmp	 DWORD PTR [esi+16], 0
  00007	7e 0e		 jle	 SHORT $LN1@DeleteAll
; File C:\Program Files (x86)\Microsoft Visual Studio\2019\Community\VC\Tools\MSVC\14.29.30133\include\deque

; 1332 :         _Tidy();

  00009	e8 00 00 00 00	 call	 ?_Tidy@?$deque@PAVCElement@@V?$allocator@PAVCElement@@@std@@@std@@AAEXXZ ; std::deque<CElement *,std::allocator<CElement *> >::_Tidy
; File D:\git\src\IBK\IBK_DRFN\ProjSrc\SrcChartEx\ChartAddIn\ChartAnalysisToolAddIn\AnalysisTool\ElementTree.cpp

; 584  : 	m_tree.DeleteAll();

  0000e	8d 4e 14	 lea	 ecx, DWORD PTR [esi+20]
  00011	5e		 pop	 esi
  00012	e9 00 00 00 00	 jmp	 ?DeleteAll@CTree@@QAEXXZ ; CTree::DeleteAll
$LN1@DeleteAll:
  00017	5e		 pop	 esi

; 585  : }

  00018	c3		 ret	 0
?DeleteAll@CElementTree@@QAEXXZ ENDP			; CElementTree::DeleteAll
_TEXT	ENDS
; Function compile flags: /Ogtp
; File D:\git\src\IBK\IBK_DRFN\ProjSrc\SrcChartEx\ChartAddIn\ChartAnalysisToolAddIn\AnalysisTool\ElementTree.cpp
; File D:\git\src\IBK\IBK_DRFN\ProjSrc\SrcChartEx\ChartAddIn\ChartAnalysisToolAddIn\Include_Chart\BlockBaseData.h
; File D:\git\src\IBK\IBK_DRFN\ProjSrc\SrcChartEx\ChartAddIn\ChartAnalysisToolAddIn\AnalysisTool\ElementTree.cpp
; File D:\git\src\IBK\IBK_DRFN\ProjSrc\SrcChartEx\ChartAddIn\ChartAnalysisToolAddIn\Include_Chart\BlockBaseData.h
; File D:\git\src\IBK\IBK_DRFN\ProjSrc\SrcChartEx\ChartAddIn\ChartAnalysisToolAddIn\AnalysisTool\ElementTree.cpp
; File C:\Program Files (x86)\Microsoft Visual Studio\2019\Community\VC\Tools\MSVC\14.29.30133\include\xmemory
; File D:\git\src\IBK\IBK_DRFN\ProjSrc\SrcChartEx\ChartAddIn\ChartAnalysisToolAddIn\AnalysisTool\ElementTree.cpp
; File C:\Program Files (x86)\Microsoft Visual Studio\2019\Community\VC\Tools\MSVC\14.29.30133\include\deque
; File D:\git\src\IBK\IBK_DRFN\ProjSrc\SrcChartEx\ChartAddIn\ChartAnalysisToolAddIn\AnalysisTool\ElementTree.cpp
; File C:\Program Files (x86)\Microsoft Visual Studio\2019\Community\VC\Tools\MSVC\14.29.30133\include\deque
; File D:\git\src\IBK\IBK_DRFN\ProjSrc\SrcChartEx\ChartAddIn\ChartAnalysisToolAddIn\Include_Chart\DequeList.h
; File C:\Program Files (x86)\Microsoft Visual Studio\2019\Community\VC\Tools\MSVC\14.29.30133\include\xmemory
; File D:\git\src\IBK\IBK_DRFN\ProjSrc\SrcChartEx\ChartAddIn\ChartAnalysisToolAddIn\Include_Chart\DequeList.h
; File D:\git\src\IBK\IBK_DRFN\ProjSrc\SrcChartEx\ChartAddIn\ChartAnalysisToolAddIn\AnalysisTool\ElementTree.cpp
; File C:\Program Files (x86)\Microsoft Visual Studio\2019\Community\VC\Tools\MSVC\14.29.30133\include\deque
; File D:\git\src\IBK\IBK_DRFN\ProjSrc\SrcChartEx\ChartAddIn\ChartAnalysisToolAddIn\Include_Chart\DequeList.h
; File D:\git\src\IBK\IBK_DRFN\ProjSrc\SrcChartEx\ChartAddIn\ChartAnalysisToolAddIn\AnalysisTool\ElementTree.cpp
; File C:\Program Files (x86)\Microsoft Visual Studio\2019\Community\VC\Tools\MSVC\14.29.30133\include\deque
; File D:\git\src\IBK\IBK_DRFN\ProjSrc\SrcChartEx\ChartAddIn\ChartAnalysisToolAddIn\AnalysisTool\ElementTree.cpp
; File C:\Program Files (x86)\Microsoft Visual Studio\2019\Community\VC\Tools\MSVC\14.29.30133\include\deque
; File D:\git\src\IBK\IBK_DRFN\ProjSrc\SrcChartEx\ChartAddIn\ChartAnalysisToolAddIn\Include_Chart\DequeList.h
; File D:\git\src\IBK\IBK_DRFN\ProjSrc\SrcChartEx\ChartAddIn\ChartAnalysisToolAddIn\AnalysisTool\ElementTree.cpp
;	COMDAT ?InsertElementTree@CElementTree@@QAE_NW4BLOCKTYPE@CBlockBaseData@@ABVCBlockIndex@@@Z
_TEXT	SEGMENT
$T2 = -12						; size = 12
_blockType$ = 8						; size = 4
_pItem$3 = 12						; size = 4
_blockIndex$ = 12					; size = 4
?InsertElementTree@CElementTree@@QAE_NW4BLOCKTYPE@CBlockBaseData@@ABVCBlockIndex@@@Z PROC ; CElementTree::InsertElementTree, COMDAT
; _this$ = ecx

; 572  : {

  00000	55		 push	 ebp
  00001	8b ec		 mov	 ebp, esp
  00003	83 ec 0c	 sub	 esp, 12			; 0000000cH
  00006	53		 push	 ebx
  00007	56		 push	 esi
  00008	57		 push	 edi
; File D:\git\src\IBK\IBK_DRFN\ProjSrc\SrcChartEx\ChartAddIn\ChartAnalysisToolAddIn\Include_Chart\BlockBaseData.h

; 32   : 	bool IsAllValueBiggerThanZero() const { return (m_nRow >= 0 && m_nColumn >= 0); };

  00009	8b 7d 0c	 mov	 edi, DWORD PTR _blockIndex$[ebp]
; File D:\git\src\IBK\IBK_DRFN\ProjSrc\SrcChartEx\ChartAddIn\ChartAnalysisToolAddIn\AnalysisTool\ElementTree.cpp

; 572  : {

  0000c	8b f1		 mov	 esi, ecx
; File D:\git\src\IBK\IBK_DRFN\ProjSrc\SrcChartEx\ChartAddIn\ChartAnalysisToolAddIn\Include_Chart\BlockBaseData.h

; 32   : 	bool IsAllValueBiggerThanZero() const { return (m_nRow >= 0 && m_nColumn >= 0); };

  0000e	8b 1f		 mov	 ebx, DWORD PTR [edi]
  00010	85 db		 test	 ebx, ebx
  00012	0f 88 a8 00 00
	00		 js	 $LN76@InsertElem
  00018	8b 7f 04	 mov	 edi, DWORD PTR [edi+4]
  0001b	85 ff		 test	 edi, edi
  0001d	0f 88 9d 00 00
	00		 js	 $LN76@InsertElem
; File D:\git\src\IBK\IBK_DRFN\ProjSrc\SrcChartEx\ChartAddIn\ChartAnalysisToolAddIn\AnalysisTool\ElementTree.cpp

; 410  : 	return (m_ColumnSetList.GetCount() > 0 && blockIndex.GetColumn() < m_ColumnSetList.GetCount());

  00023	8b 46 28	 mov	 eax, DWORD PTR [esi+40]
  00026	85 c0		 test	 eax, eax
  00028	0f 8e 92 00 00
	00		 jle	 $LN76@InsertElem
  0002e	3b f8		 cmp	 edi, eax
  00030	0f 8d 8a 00 00
	00		 jge	 $LN76@InsertElem

; 208  : 	if(blockType == CBlockBaseData::COLUMN)

  00036	8b 45 08	 mov	 eax, DWORD PTR _blockType$[ebp]
  00039	83 f8 01	 cmp	 eax, 1
  0003c	75 3c		 jne	 SHORT $LN5@InsertElem

; 416  : 	CColumnSet* pColumnSet = CColumnSet::Make();

  0003e	e8 00 00 00 00	 call	 ?Make@CColumnSet@@SAPAV1@XZ ; CColumnSet::Make
; File C:\Program Files (x86)\Microsoft Visual Studio\2019\Community\VC\Tools\MSVC\14.29.30133\include\xmemory

; 1099 :             _Myproxy = _Parent->_Myproxy;

  00043	8b 56 18	 mov	 edx, DWORD PTR [esi+24]
; File D:\git\src\IBK\IBK_DRFN\ProjSrc\SrcChartEx\ChartAddIn\ChartAnalysisToolAddIn\AnalysisTool\ElementTree.cpp

; 418  : 	m_ColumnSetList.InsertItem(insertColumnIndex, pColumnSet);

  00046	8d 4e 18	 lea	 ecx, DWORD PTR [esi+24]
; File C:\Program Files (x86)\Microsoft Visual Studio\2019\Community\VC\Tools\MSVC\14.29.30133\include\deque

; 319  :         _Myoff += _Off;

  00049	8b 71 0c	 mov	 esi, DWORD PTR [ecx+12]
; File D:\git\src\IBK\IBK_DRFN\ProjSrc\SrcChartEx\ChartAddIn\ChartAnalysisToolAddIn\AnalysisTool\ElementTree.cpp

; 418  : 	m_ColumnSetList.InsertItem(insertColumnIndex, pColumnSet);

  0004c	89 45 0c	 mov	 DWORD PTR _pItem$3[ebp], eax
; File C:\Program Files (x86)\Microsoft Visual Studio\2019\Community\VC\Tools\MSVC\14.29.30133\include\deque

; 319  :         _Myoff += _Off;

  0004f	03 f7		 add	 esi, edi
; File D:\git\src\IBK\IBK_DRFN\ProjSrc\SrcChartEx\ChartAddIn\ChartAnalysisToolAddIn\Include_Chart\DequeList.h

; 239  : 		m_deque.insert(i, pItem);

  00051	8d 45 0c	 lea	 eax, DWORD PTR _pItem$3[ebp]
  00054	50		 push	 eax
  00055	83 ec 0c	 sub	 esp, 12			; 0000000cH
  00058	8b c4		 mov	 eax, esp
; File C:\Program Files (x86)\Microsoft Visual Studio\2019\Community\VC\Tools\MSVC\14.29.30133\include\xmemory

; 1113 :     mutable _Iterator_base12* _Mynextiter = nullptr;

  0005a	c7 40 04 00 00
	00 00		 mov	 DWORD PTR [eax+4], 0

; 1069 :         _Myproxy = _Right._Myproxy;

  00061	89 10		 mov	 DWORD PTR [eax], edx
  00063	89 70 08	 mov	 DWORD PTR [eax+8], esi
; File D:\git\src\IBK\IBK_DRFN\ProjSrc\SrcChartEx\ChartAddIn\ChartAnalysisToolAddIn\Include_Chart\DequeList.h

; 239  : 		m_deque.insert(i, pItem);

  00066	8d 45 f4	 lea	 eax, DWORD PTR $T2[ebp]
  00069	50		 push	 eax
  0006a	e8 00 00 00 00	 call	 ?insert@?$deque@PAVCColumnSet@@V?$allocator@PAVCColumnSet@@@std@@@std@@QAE?AV?$_Deque_iterator@V?$_Deque_val@U?$_Deque_simple_types@PAVCColumnSet@@@std@@@std@@@2@V?$_Deque_const_iterator@V?$_Deque_val@U?$_Deque_simple_types@PAVCColumnSet@@@std@@@std@@@2@ABQAVCColumnSet@@@Z ; std::deque<CColumnSet *,std::allocator<CColumnSet *> >::insert
; File D:\git\src\IBK\IBK_DRFN\ProjSrc\SrcChartEx\ChartAddIn\ChartAnalysisToolAddIn\AnalysisTool\ElementTree.cpp

; 209  : 		return InsertColumnSet(blockIndex.GetColumn());

  0006f	b0 01		 mov	 al, 1

; 573  : 	return m_tree.InsertElementTree(blockType, blockIndex);
; 574  : }

  00071	5f		 pop	 edi
  00072	5e		 pop	 esi
  00073	5b		 pop	 ebx
  00074	8b e5		 mov	 esp, ebp
  00076	5d		 pop	 ebp
  00077	c2 08 00	 ret	 8
$LN5@InsertElem:

; 210  : 	else if(blockType == CBlockBaseData::ROW)

  0007a	85 c0		 test	 eax, eax
  0007c	75 42		 jne	 SHORT $LN76@InsertElem
; File C:\Program Files (x86)\Microsoft Visual Studio\2019\Community\VC\Tools\MSVC\14.29.30133\include\deque

; 1002 :         return _Mysize() == 0;

  0007e	39 46 28	 cmp	 DWORD PTR [esi+40], eax
; File D:\git\src\IBK\IBK_DRFN\ProjSrc\SrcChartEx\ChartAddIn\ChartAnalysisToolAddIn\Include_Chart\DequeList.h

; 198  : 		if(m_deque.empty())

  00081	75 11		 jne	 SHORT $LN51@InsertElem

; 199  : 			return NULL;

  00083	33 c9		 xor	 ecx, ecx
; File D:\git\src\IBK\IBK_DRFN\ProjSrc\SrcChartEx\ChartAddIn\ChartAnalysisToolAddIn\AnalysisTool\ElementTree.cpp

; 427  : 	return pColumnSet->InsertRowSet(insertBlockIndex.GetRow());

  00085	53		 push	 ebx
  00086	e8 00 00 00 00	 call	 ?InsertRowSet@CColumnSet@@QAE_NH@Z ; CColumnSet::InsertRowSet

; 573  : 	return m_tree.InsertElementTree(blockType, blockIndex);
; 574  : }

  0008b	5f		 pop	 edi
  0008c	5e		 pop	 esi
  0008d	5b		 pop	 ebx
  0008e	8b e5		 mov	 esp, ebp
  00090	5d		 pop	 ebp
  00091	c2 08 00	 ret	 8
$LN51@InsertElem:
; File C:\Program Files (x86)\Microsoft Visual Studio\2019\Community\VC\Tools\MSVC\14.29.30133\include\deque

; 43   :         : _Mycont(static_cast<const _Mydeque*>(_Pdeque)), _Myoff(_Off) {}

  00094	8b 46 24	 mov	 eax, DWORD PTR [esi+36]
; File D:\git\src\IBK\IBK_DRFN\ProjSrc\SrcChartEx\ChartAddIn\ChartAnalysisToolAddIn\AnalysisTool\ElementTree.cpp

; 427  : 	return pColumnSet->InsertRowSet(insertBlockIndex.GetRow());

  00097	53		 push	 ebx
; File C:\Program Files (x86)\Microsoft Visual Studio\2019\Community\VC\Tools\MSVC\14.29.30133\include\deque

; 78   :         _Myoff += _Off;

  00098	8d 14 07	 lea	 edx, DWORD PTR [edi+eax]

; 559  :         return (_Off / _Block_size) & (_Mapsize - 1);

  0009b	8b 46 20	 mov	 eax, DWORD PTR [esi+32]

; 78   :         _Myoff += _Off;

  0009e	8b ca		 mov	 ecx, edx

; 559  :         return (_Off / _Block_size) & (_Mapsize - 1);

  000a0	48		 dec	 eax

; 78   :         _Myoff += _Off;

  000a1	c1 e9 02	 shr	 ecx, 2

; 48   :         return _Mycont->_Map[_Block][_Off];

  000a4	83 e2 03	 and	 edx, 3

; 559  :         return (_Off / _Block_size) & (_Mapsize - 1);

  000a7	23 c8		 and	 ecx, eax
; File D:\git\src\IBK\IBK_DRFN\ProjSrc\SrcChartEx\ChartAddIn\ChartAnalysisToolAddIn\Include_Chart\DequeList.h

; 201  : 		return m_deque[nIndex];

  000a9	8b 46 1c	 mov	 eax, DWORD PTR [esi+28]
  000ac	8b 04 88	 mov	 eax, DWORD PTR [eax+ecx*4]
  000af	8b 0c 90	 mov	 ecx, DWORD PTR [eax+edx*4]
; File D:\git\src\IBK\IBK_DRFN\ProjSrc\SrcChartEx\ChartAddIn\ChartAnalysisToolAddIn\AnalysisTool\ElementTree.cpp

; 427  : 	return pColumnSet->InsertRowSet(insertBlockIndex.GetRow());

  000b2	e8 00 00 00 00	 call	 ?InsertRowSet@CColumnSet@@QAE_NH@Z ; CColumnSet::InsertRowSet

; 573  : 	return m_tree.InsertElementTree(blockType, blockIndex);
; 574  : }

  000b7	5f		 pop	 edi
  000b8	5e		 pop	 esi
  000b9	5b		 pop	 ebx
  000ba	8b e5		 mov	 esp, ebp
  000bc	5d		 pop	 ebp
  000bd	c2 08 00	 ret	 8
$LN76@InsertElem:
  000c0	5f		 pop	 edi
  000c1	5e		 pop	 esi
  000c2	32 c0		 xor	 al, al
  000c4	5b		 pop	 ebx
  000c5	8b e5		 mov	 esp, ebp
  000c7	5d		 pop	 ebp
  000c8	c2 08 00	 ret	 8
?InsertElementTree@CElementTree@@QAE_NW4BLOCKTYPE@CBlockBaseData@@ABVCBlockIndex@@@Z ENDP ; CElementTree::InsertElementTree
_TEXT	ENDS
; Function compile flags: /Ogtp
; File D:\git\src\IBK\IBK_DRFN\ProjSrc\SrcChartEx\ChartAddIn\ChartAnalysisToolAddIn\AnalysisTool\ElementTree.cpp
; File D:\git\src\IBK\IBK_DRFN\ProjSrc\SrcChartEx\ChartAddIn\ChartAnalysisToolAddIn\Include_Chart\DequeList.h
; File D:\git\src\IBK\IBK_DRFN\ProjSrc\SrcChartEx\ChartAddIn\ChartAnalysisToolAddIn\AnalysisTool\ElementTree.cpp
; File C:\Program Files (x86)\Microsoft Visual Studio\2019\Community\VC\Tools\MSVC\14.29.30133\include\deque
; File D:\git\src\IBK\IBK_DRFN\ProjSrc\SrcChartEx\ChartAddIn\ChartAnalysisToolAddIn\Include_Chart\DequeList.h
; File D:\git\src\IBK\IBK_DRFN\ProjSrc\SrcChartEx\ChartAddIn\ChartAnalysisToolAddIn\AnalysisTool\ElementTree.cpp
; File C:\Program Files (x86)\Microsoft Visual Studio\2019\Community\VC\Tools\MSVC\14.29.30133\include\deque
; File D:\git\src\IBK\IBK_DRFN\ProjSrc\SrcChartEx\ChartAddIn\ChartAnalysisToolAddIn\Include_Chart\DequeList.h
; File D:\git\src\IBK\IBK_DRFN\ProjSrc\SrcChartEx\ChartAddIn\ChartAnalysisToolAddIn\AnalysisTool\ElementTree.cpp
;	COMDAT ?AddColumnRowSet@CElementTree@@QAEXABVCBlockIndex@@@Z
_TEXT	SEGMENT
_pItem$1 = 8						; size = 4
_blockIndex$ = 8					; size = 4
?AddColumnRowSet@CElementTree@@QAEXABVCBlockIndex@@@Z PROC ; CElementTree::AddColumnRowSet, COMDAT
; _this$ = ecx

; 564  : {

  00000	55		 push	 ebp
  00001	8b ec		 mov	 ebp, esp
  00003	83 ec 08	 sub	 esp, 8
  00006	53		 push	 ebx
  00007	56		 push	 esi

; 194  : 	AddColumnSet(blockIndex.GetColumn() - m_ColumnSetList.GetCount() +1);

  00008	8b 75 08	 mov	 esi, DWORD PTR _blockIndex$[ebp]

; 564  : {

  0000b	8b d9		 mov	 ebx, ecx

; 194  : 	AddColumnSet(blockIndex.GetColumn() - m_ColumnSetList.GetCount() +1);

  0000d	8b 76 04	 mov	 esi, DWORD PTR [esi+4]
  00010	2b 73 28	 sub	 esi, DWORD PTR [ebx+40]
  00013	46		 inc	 esi

; 379  : 	for(int i = 0; i < count; i++){

  00014	85 f6		 test	 esi, esi
  00016	7e 22		 jle	 SHORT $LN7@AddColumnR
  00018	57		 push	 edi
  00019	0f 1f 80 00 00
	00 00		 npad	 7
$LL8@AddColumnR:

; 380  : 		CColumnSet* pColumnSet = CColumnSet::Make();

  00020	e8 00 00 00 00	 call	 ?Make@CColumnSet@@SAPAV1@XZ ; CColumnSet::Make

; 381  : 		m_ColumnSetList.AddTail(pColumnSet);

  00025	89 45 08	 mov	 DWORD PTR _pItem$1[ebp], eax
; File D:\git\src\IBK\IBK_DRFN\ProjSrc\SrcChartEx\ChartAddIn\ChartAnalysisToolAddIn\Include_Chart\DequeList.h

; 229  : 		m_deque.push_back(pItem);

  00028	8d 4b 18	 lea	 ecx, DWORD PTR [ebx+24]
  0002b	8d 45 08	 lea	 eax, DWORD PTR _pItem$1[ebp]
  0002e	50		 push	 eax
  0002f	e8 00 00 00 00	 call	 ?push_back@?$deque@PAVCColumnSet@@V?$allocator@PAVCColumnSet@@@std@@@std@@QAEXABQAVCColumnSet@@@Z ; std::deque<CColumnSet *,std::allocator<CColumnSet *> >::push_back
; File D:\git\src\IBK\IBK_DRFN\ProjSrc\SrcChartEx\ChartAddIn\ChartAnalysisToolAddIn\AnalysisTool\ElementTree.cpp

; 379  : 	for(int i = 0; i < count; i++){

  00034	83 ee 01	 sub	 esi, 1
  00037	75 e7		 jne	 SHORT $LL8@AddColumnR
  00039	5f		 pop	 edi
$LN7@AddColumnR:
; File C:\Program Files (x86)\Microsoft Visual Studio\2019\Community\VC\Tools\MSVC\14.29.30133\include\deque

; 1002 :         return _Mysize() == 0;

  0003a	8b 4b 28	 mov	 ecx, DWORD PTR [ebx+40]
  0003d	85 c9		 test	 ecx, ecx
; File D:\git\src\IBK\IBK_DRFN\ProjSrc\SrcChartEx\ChartAddIn\ChartAnalysisToolAddIn\Include_Chart\DequeList.h

; 191  : 		if(m_deque.empty())

  0003f	75 0d		 jne	 SHORT $LN13@AddColumnR
; File D:\git\src\IBK\IBK_DRFN\ProjSrc\SrcChartEx\ChartAddIn\ChartAnalysisToolAddIn\AnalysisTool\ElementTree.cpp

; 197  : 	pColumnSet->AddRowSet();	

  00041	e8 00 00 00 00	 call	 ?AddRowSet@CColumnSet@@QAE_NXZ ; CColumnSet::AddRowSet
  00046	5e		 pop	 esi
  00047	5b		 pop	 ebx

; 565  : 	assert(blockIndex.IsAllValueBiggerThanZero());
; 566  : 	m_tree.AddColumnRowSet(blockIndex);
; 567  : }

  00048	8b e5		 mov	 esp, ebp
  0004a	5d		 pop	 ebp
  0004b	c2 04 00	 ret	 4
$LN13@AddColumnR:
; File C:\Program Files (x86)\Microsoft Visual Studio\2019\Community\VC\Tools\MSVC\14.29.30133\include\deque

; 917  :         return _Unchecked_const_iterator(_Myoff() + _Mysize(), _STD addressof(_Get_data()));

  0004e	8b 43 24	 mov	 eax, DWORD PTR [ebx+36]
  00051	03 c1		 add	 eax, ecx

; 67   :         --_Myoff;

  00053	8d 50 ff	 lea	 edx, DWORD PTR [eax-1]

; 559  :         return (_Off / _Block_size) & (_Mapsize - 1);

  00056	8b 43 20	 mov	 eax, DWORD PTR [ebx+32]
  00059	8b ca		 mov	 ecx, edx
  0005b	48		 dec	 eax
  0005c	c1 e9 02	 shr	 ecx, 2

; 48   :         return _Mycont->_Map[_Block][_Off];

  0005f	83 e2 03	 and	 edx, 3

; 559  :         return (_Off / _Block_size) & (_Mapsize - 1);

  00062	23 c8		 and	 ecx, eax
; File D:\git\src\IBK\IBK_DRFN\ProjSrc\SrcChartEx\ChartAddIn\ChartAnalysisToolAddIn\Include_Chart\DequeList.h

; 193  : 		return m_deque.back();

  00064	8b 43 1c	 mov	 eax, DWORD PTR [ebx+28]
  00067	8b 04 88	 mov	 eax, DWORD PTR [eax+ecx*4]
  0006a	8b 0c 90	 mov	 ecx, DWORD PTR [eax+edx*4]
; File D:\git\src\IBK\IBK_DRFN\ProjSrc\SrcChartEx\ChartAddIn\ChartAnalysisToolAddIn\AnalysisTool\ElementTree.cpp

; 197  : 	pColumnSet->AddRowSet();	

  0006d	e8 00 00 00 00	 call	 ?AddRowSet@CColumnSet@@QAE_NXZ ; CColumnSet::AddRowSet
  00072	5e		 pop	 esi
  00073	5b		 pop	 ebx

; 565  : 	assert(blockIndex.IsAllValueBiggerThanZero());
; 566  : 	m_tree.AddColumnRowSet(blockIndex);
; 567  : }

  00074	8b e5		 mov	 esp, ebp
  00076	5d		 pop	 ebp
  00077	c2 04 00	 ret	 4
?AddColumnRowSet@CElementTree@@QAEXABVCBlockIndex@@@Z ENDP ; CElementTree::AddColumnRowSet
_TEXT	ENDS
; Function compile flags: /Ogtp
; File D:\git\src\IBK\IBK_DRFN\ProjSrc\SrcChartEx\ChartAddIn\ChartAnalysisToolAddIn\AnalysisTool\ElementTree.cpp
; File C:\Program Files (x86)\Microsoft Visual Studio\2019\Community\VC\Tools\MSVC\14.29.30133\include\deque
; File D:\git\src\IBK\IBK_DRFN\ProjSrc\SrcChartEx\ChartAddIn\ChartAnalysisToolAddIn\Include_Chart\DequeList.h
; File C:\Program Files (x86)\Microsoft Visual Studio\2019\Community\VC\Tools\MSVC\14.29.30133\include\deque
; File D:\git\src\IBK\IBK_DRFN\ProjSrc\SrcChartEx\ChartAddIn\ChartAnalysisToolAddIn\AnalysisTool\ElementTree.cpp
; File D:\git\src\IBK\IBK_DRFN\ProjSrc\SrcChartEx\ChartAddIn\ChartAnalysisToolAddIn\Include_Chart\DequeList.h
; File D:\git\src\IBK\IBK_DRFN\ProjSrc\SrcChartEx\ChartAddIn\ChartAnalysisToolAddIn\AnalysisTool\ElementTree.cpp
; File C:\Program Files (x86)\Microsoft Visual Studio\2019\Community\VC\Tools\MSVC\14.29.30133\include\deque
; File D:\git\src\IBK\IBK_DRFN\ProjSrc\SrcChartEx\ChartAddIn\ChartAnalysisToolAddIn\Include_Chart\DequeList.h
; File D:\git\src\IBK\IBK_DRFN\ProjSrc\SrcChartEx\ChartAddIn\ChartAnalysisToolAddIn\AnalysisTool\ElementTree.cpp
; File C:\Program Files (x86)\Microsoft Visual Studio\2019\Community\VC\Tools\MSVC\14.29.30133\include\deque
; File D:\git\src\IBK\IBK_DRFN\ProjSrc\SrcChartEx\ChartAddIn\ChartAnalysisToolAddIn\AnalysisTool\ElementTree.cpp
;	COMDAT ?Add@CElementTree@@QAEXABVCBlockIndex@@PAVCElement@@@Z
_TEXT	SEGMENT
__First$1 = -8						; size = 8
_pItem$2 = -4						; size = 4
_blockIndex$ = 8					; size = 4
_pElement$ = 12						; size = 4
?Add@CElementTree@@QAEXABVCBlockIndex@@PAVCElement@@@Z PROC ; CElementTree::Add, COMDAT
; _this$ = ecx

; 556  : {

  00000	55		 push	 ebp
  00001	8b ec		 mov	 ebp, esp
  00003	83 ec 08	 sub	 esp, 8
  00006	53		 push	 ebx

; 40   : 	m_ElementOrderList.AddTail(pElement);

  00007	8b 5d 0c	 mov	 ebx, DWORD PTR _pElement$[ebp]

; 556  : {

  0000a	56		 push	 esi
  0000b	57		 push	 edi

; 40   : 	m_ElementOrderList.AddTail(pElement);

  0000c	53		 push	 ebx

; 556  : {

  0000d	8b f9		 mov	 edi, ecx

; 40   : 	m_ElementOrderList.AddTail(pElement);

  0000f	e8 00 00 00 00	 call	 ?AddTail@?$CDequePointerList@VCElement@@@@QAEXPAVCElement@@@Z ; CDequePointerList<CElement>::AddTail

; 184  : 	if(blockIndex.GetColumn() < m_ColumnSetList.GetCount()){

  00014	8b 75 08	 mov	 esi, DWORD PTR _blockIndex$[ebp]
  00017	8b 47 28	 mov	 eax, DWORD PTR [edi+40]
  0001a	8b 76 04	 mov	 esi, DWORD PTR [esi+4]
  0001d	3b f0		 cmp	 esi, eax
  0001f	7d 0c		 jge	 SHORT $LN6@Add
; File C:\Program Files (x86)\Microsoft Visual Studio\2019\Community\VC\Tools\MSVC\14.29.30133\include\deque

; 1002 :         return _Mysize() == 0;

  00021	85 c0		 test	 eax, eax
; File D:\git\src\IBK\IBK_DRFN\ProjSrc\SrcChartEx\ChartAddIn\ChartAnalysisToolAddIn\Include_Chart\DequeList.h

; 198  : 		if(m_deque.empty())

  00023	74 2f		 je	 SHORT $LN70@Add
; File C:\Program Files (x86)\Microsoft Visual Studio\2019\Community\VC\Tools\MSVC\14.29.30133\include\deque

; 43   :         : _Mycont(static_cast<const _Mydeque*>(_Pdeque)), _Myoff(_Off) {}

  00025	8b 47 24	 mov	 eax, DWORD PTR [edi+36]

; 78   :         _Myoff += _Off;

  00028	8d 14 06	 lea	 edx, DWORD PTR [esi+eax]
; File D:\git\src\IBK\IBK_DRFN\ProjSrc\SrcChartEx\ChartAddIn\ChartAnalysisToolAddIn\AnalysisTool\ElementTree.cpp

; 186  : 		return;

  0002b	eb 33		 jmp	 SHORT $LN69@Add
$LN6@Add:

; 388  : 	AddColumnSet(blockIndex.GetColumn() - m_ColumnSetList.GetCount() +1);

  0002d	2b f0		 sub	 esi, eax
  0002f	46		 inc	 esi

; 379  : 	for(int i = 0; i < count; i++){

  00030	85 f6		 test	 esi, esi
  00032	7e 19		 jle	 SHORT $LN39@Add
$LL40@Add:

; 380  : 		CColumnSet* pColumnSet = CColumnSet::Make();

  00034	e8 00 00 00 00	 call	 ?Make@CColumnSet@@SAPAV1@XZ ; CColumnSet::Make

; 381  : 		m_ColumnSetList.AddTail(pColumnSet);

  00039	89 45 fc	 mov	 DWORD PTR _pItem$2[ebp], eax
; File D:\git\src\IBK\IBK_DRFN\ProjSrc\SrcChartEx\ChartAddIn\ChartAnalysisToolAddIn\Include_Chart\DequeList.h

; 229  : 		m_deque.push_back(pItem);

  0003c	8d 4f 18	 lea	 ecx, DWORD PTR [edi+24]
  0003f	8d 45 fc	 lea	 eax, DWORD PTR _pItem$2[ebp]
  00042	50		 push	 eax
  00043	e8 00 00 00 00	 call	 ?push_back@?$deque@PAVCColumnSet@@V?$allocator@PAVCColumnSet@@@std@@@std@@QAEXABQAVCColumnSet@@@Z ; std::deque<CColumnSet *,std::allocator<CColumnSet *> >::push_back
; File D:\git\src\IBK\IBK_DRFN\ProjSrc\SrcChartEx\ChartAddIn\ChartAnalysisToolAddIn\AnalysisTool\ElementTree.cpp

; 379  : 	for(int i = 0; i < count; i++){

  00048	83 ee 01	 sub	 esi, 1
  0004b	75 e7		 jne	 SHORT $LL40@Add
$LN39@Add:
; File C:\Program Files (x86)\Microsoft Visual Studio\2019\Community\VC\Tools\MSVC\14.29.30133\include\deque

; 1002 :         return _Mysize() == 0;

  0004d	8b 4f 28	 mov	 ecx, DWORD PTR [edi+40]
  00050	85 c9		 test	 ecx, ecx
; File D:\git\src\IBK\IBK_DRFN\ProjSrc\SrcChartEx\ChartAddIn\ChartAnalysisToolAddIn\Include_Chart\DequeList.h

; 191  : 		if(m_deque.empty())

  00052	75 04		 jne	 SHORT $LN45@Add
$LN70@Add:
; File D:\git\src\IBK\IBK_DRFN\ProjSrc\SrcChartEx\ChartAddIn\ChartAnalysisToolAddIn\AnalysisTool\ElementTree.cpp

; 561  : }

  00054	33 c9		 xor	 ecx, ecx
  00056	eb 22		 jmp	 SHORT $LN44@Add
$LN45@Add:
; File C:\Program Files (x86)\Microsoft Visual Studio\2019\Community\VC\Tools\MSVC\14.29.30133\include\deque

; 917  :         return _Unchecked_const_iterator(_Myoff() + _Mysize(), _STD addressof(_Get_data()));

  00058	8b 47 24	 mov	 eax, DWORD PTR [edi+36]
  0005b	03 c1		 add	 eax, ecx

; 67   :         --_Myoff;

  0005d	8d 50 ff	 lea	 edx, DWORD PTR [eax-1]
$LN69@Add:
; File D:\git\src\IBK\IBK_DRFN\ProjSrc\SrcChartEx\ChartAddIn\ChartAnalysisToolAddIn\AnalysisTool\ElementTree.cpp

; 561  : }

  00060	89 45 fc	 mov	 DWORD PTR __First$1[ebp+4], eax
  00063	8b ca		 mov	 ecx, edx
  00065	8b 47 20	 mov	 eax, DWORD PTR [edi+32]
  00068	48		 dec	 eax
  00069	c1 e9 02	 shr	 ecx, 2
  0006c	23 c8		 and	 ecx, eax
  0006e	8b 47 1c	 mov	 eax, DWORD PTR [edi+28]
  00071	83 e2 03	 and	 edx, 3
  00074	8b 04 88	 mov	 eax, DWORD PTR [eax+ecx*4]
  00077	8b 0c 90	 mov	 ecx, DWORD PTR [eax+edx*4]
$LN44@Add:
  0007a	8b 45 08	 mov	 eax, DWORD PTR _blockIndex$[ebp]
  0007d	53		 push	 ebx
  0007e	8b 00		 mov	 eax, DWORD PTR [eax]
  00080	50		 push	 eax
  00081	e8 00 00 00 00	 call	 ?AddElement@CColumnSet@@QAEXHPAVCElement@@@Z ; CColumnSet::AddElement
  00086	5f		 pop	 edi
  00087	5e		 pop	 esi
  00088	5b		 pop	 ebx
  00089	8b e5		 mov	 esp, ebp
  0008b	5d		 pop	 ebp
  0008c	c2 08 00	 ret	 8
?Add@CElementTree@@QAEXABVCBlockIndex@@PAVCElement@@@Z ENDP ; CElementTree::Add
_TEXT	ENDS
; Function compile flags: /Ogtp
; File D:\git\src\IBK\IBK_DRFN\ProjSrc\SrcChartEx\ChartAddIn\ChartAnalysisToolAddIn\AnalysisTool\ElementTree.cpp
; File C:\Program Files (x86)\Microsoft Visual Studio\2019\Community\VC\Tools\MSVC\14.29.30133\include\deque
; File D:\git\src\IBK\IBK_DRFN\ProjSrc\SrcChartEx\ChartAddIn\ChartAnalysisToolAddIn\AnalysisTool\ElementTree.cpp
; File C:\Program Files (x86)\Microsoft Visual Studio\2019\Community\VC\Tools\MSVC\14.29.30133\atlmfc\include\atlsimpstr.h
; File D:\git\src\IBK\IBK_DRFN\ProjSrc\SrcChartEx\ChartAddIn\ChartAnalysisToolAddIn\AnalysisTool\ElementTree.cpp
; File D:\git\src\IBK\IBK_DRFN\ProjSrc\SrcChartEx\ChartAddIn\ChartAnalysisToolAddIn\AnalysisTool\ElementTreeBuilder.h
; File D:\git\src\IBK\IBK_DRFN\ProjSrc\SrcChartEx\ChartAddIn\ChartAnalysisToolAddIn\AnalysisTool\ElementTree.cpp
; File D:\git\src\IBK\IBK_DRFN\ProjSrc\SrcChartEx\ChartAddIn\ChartAnalysisToolAddIn\AnalysisTool\ElementTreeBuilder.h
; File D:\git\src\IBK\IBK_DRFN\ProjSrc\SrcChartEx\ChartAddIn\ChartAnalysisToolAddIn\AnalysisTool\ElementTree.cpp
; File D:\git\src\IBK\IBK_DRFN\ProjSrc\SrcChartEx\ChartAddIn\ChartAnalysisToolAddIn\AnalysisTool\ElementTreeBuilder.h
; File D:\git\src\IBK\IBK_DRFN\ProjSrc\SrcChartEx\ChartAddIn\ChartAnalysisToolAddIn\AnalysisTool\ElementTree.cpp
;	COMDAT ?BuildElementsFromString@CElementTree@@QAEXAAVCAnalysisData@@ABV?$CStringT@DV?$StrTraitMFC_DLL@DV?$ChTraitsCRT@D@ATL@@@@@ATL@@@Z
_TEXT	SEGMENT
_builder$ = -8						; size = 8
_analysisData$ = 8					; size = 4
_strElementsData$ = 12					; size = 4
?BuildElementsFromString@CElementTree@@QAEXAAVCAnalysisData@@ABV?$CStringT@DV?$StrTraitMFC_DLL@DV?$ChTraitsCRT@D@ATL@@@@@ATL@@@Z PROC ; CElementTree::BuildElementsFromString, COMDAT
; _this$ = ecx

; 544  : {

  00000	55		 push	 ebp
  00001	8b ec		 mov	 ebp, esp
  00003	83 ec 08	 sub	 esp, 8
  00006	56		 push	 esi
  00007	8b f1		 mov	 esi, ecx
  00009	57		 push	 edi

; 580  : 	if(m_order.GetCount() <= 0)

  0000a	83 7e 10 00	 cmp	 DWORD PTR [esi+16], 0
  0000e	8d 7e 14	 lea	 edi, DWORD PTR [esi+20]
  00011	7e 0c		 jle	 SHORT $LN21@BuildEleme
; File C:\Program Files (x86)\Microsoft Visual Studio\2019\Community\VC\Tools\MSVC\14.29.30133\include\deque

; 1332 :         _Tidy();

  00013	e8 00 00 00 00	 call	 ?_Tidy@?$deque@PAVCElement@@V?$allocator@PAVCElement@@@std@@@std@@AAEXXZ ; std::deque<CElement *,std::allocator<CElement *> >::_Tidy
; File D:\git\src\IBK\IBK_DRFN\ProjSrc\SrcChartEx\ChartAddIn\ChartAnalysisToolAddIn\AnalysisTool\ElementTree.cpp

; 584  : 	m_tree.DeleteAll();

  00018	8b cf		 mov	 ecx, edi
  0001a	e8 00 00 00 00	 call	 ?DeleteAll@CTree@@QAEXXZ ; CTree::DeleteAll
$LN21@BuildEleme:
; File C:\Program Files (x86)\Microsoft Visual Studio\2019\Community\VC\Tools\MSVC\14.29.30133\atlmfc\include\atlsimpstr.h

; 533  : 		return( GetLength() == 0 );

  0001f	8b 4d 0c	 mov	 ecx, DWORD PTR _strElementsData$[ebp]
  00022	8b 01		 mov	 eax, DWORD PTR [ecx]
  00024	83 78 f4 00	 cmp	 DWORD PTR [eax-12], 0
; File D:\git\src\IBK\IBK_DRFN\ProjSrc\SrcChartEx\ChartAddIn\ChartAnalysisToolAddIn\AnalysisTool\ElementTree.cpp

; 547  : 	if(strElementsData.IsEmpty())

  00028	74 1a		 je	 SHORT $LN1@BuildEleme
; File D:\git\src\IBK\IBK_DRFN\ProjSrc\SrcChartEx\ChartAddIn\ChartAnalysisToolAddIn\AnalysisTool\ElementTreeBuilder.h

; 70   : 		{	m_hOcxWnd = p_hOcxWnd;	m_eChartMode = p_eChartMode;	}

  0002a	8b 46 2c	 mov	 eax, DWORD PTR [esi+44]
; File D:\git\src\IBK\IBK_DRFN\ProjSrc\SrcChartEx\ChartAddIn\ChartAnalysisToolAddIn\AnalysisTool\ElementTree.cpp

; 551  : 	builder.BuildElementsFromString(analysisData,strElementsData, m_tree, m_order);

  0002d	56		 push	 esi
  0002e	57		 push	 edi
  0002f	51		 push	 ecx
  00030	ff 75 08	 push	 DWORD PTR _analysisData$[ebp]
; File D:\git\src\IBK\IBK_DRFN\ProjSrc\SrcChartEx\ChartAddIn\ChartAnalysisToolAddIn\AnalysisTool\ElementTreeBuilder.h

; 70   : 		{	m_hOcxWnd = p_hOcxWnd;	m_eChartMode = p_eChartMode;	}

  00033	89 45 f8	 mov	 DWORD PTR _builder$[ebp], eax
; File D:\git\src\IBK\IBK_DRFN\ProjSrc\SrcChartEx\ChartAddIn\ChartAnalysisToolAddIn\AnalysisTool\ElementTree.cpp

; 551  : 	builder.BuildElementsFromString(analysisData,strElementsData, m_tree, m_order);

  00036	8d 4d f8	 lea	 ecx, DWORD PTR _builder$[ebp]
; File D:\git\src\IBK\IBK_DRFN\ProjSrc\SrcChartEx\ChartAddIn\ChartAnalysisToolAddIn\AnalysisTool\ElementTreeBuilder.h

; 70   : 		{	m_hOcxWnd = p_hOcxWnd;	m_eChartMode = p_eChartMode;	}

  00039	8b 46 30	 mov	 eax, DWORD PTR [esi+48]
  0003c	89 45 fc	 mov	 DWORD PTR _builder$[ebp+4], eax
; File D:\git\src\IBK\IBK_DRFN\ProjSrc\SrcChartEx\ChartAddIn\ChartAnalysisToolAddIn\AnalysisTool\ElementTree.cpp

; 551  : 	builder.BuildElementsFromString(analysisData,strElementsData, m_tree, m_order);

  0003f	e8 00 00 00 00	 call	 ?BuildElementsFromString@CElementTreeBuilder@@QAE_NAAVCAnalysisData@@ABV?$CStringT@DV?$StrTraitMFC_DLL@DV?$ChTraitsCRT@D@ATL@@@@@ATL@@AAVCTree@@AAVCOrder@@@Z ; CElementTreeBuilder::BuildElementsFromString
$LN1@BuildEleme:

; 552  : }

  00044	5f		 pop	 edi
  00045	5e		 pop	 esi
  00046	8b e5		 mov	 esp, ebp
  00048	5d		 pop	 ebp
  00049	c2 08 00	 ret	 8
?BuildElementsFromString@CElementTree@@QAEXAAVCAnalysisData@@ABV?$CStringT@DV?$StrTraitMFC_DLL@DV?$ChTraitsCRT@D@ATL@@@@@ATL@@@Z ENDP ; CElementTree::BuildElementsFromString
_TEXT	ENDS
; Function compile flags: /Ogtp
; File D:\git\src\IBK\IBK_DRFN\ProjSrc\SrcChartEx\ChartAddIn\ChartAnalysisToolAddIn\AnalysisTool\ElementTree.cpp
; File D:\git\src\IBK\IBK_DRFN\ProjSrc\SrcChartEx\ChartAddIn\ChartAnalysisToolAddIn\Include_Chart\DequeList.h
; File C:\Program Files (x86)\Microsoft Visual Studio\2019\Community\VC\Tools\MSVC\14.29.30133\include\deque
; File D:\git\src\IBK\IBK_DRFN\ProjSrc\SrcChartEx\ChartAddIn\ChartAnalysisToolAddIn\Include_Chart\DequeList.h
; File D:\git\src\IBK\IBK_DRFN\ProjSrc\SrcChartEx\ChartAddIn\ChartAnalysisToolAddIn\AnalysisTool\ElementTree.cpp
;	COMDAT ?GetSavedElementsData@CElementTree@@QBE?AV?$CStringT@DV?$StrTraitMFC_DLL@DV?$ChTraitsCRT@D@ATL@@@@@ATL@@XZ
_TEXT	SEGMENT
_savedColumnData$2 = -24				; size = 4
$T3 = -20						; size = 4
$T4 = -16						; size = 4
__$EHRec$ = -12						; size = 12
___$ReturnUdt$ = 8					; size = 4
?GetSavedElementsData@CElementTree@@QBE?AV?$CStringT@DV?$StrTraitMFC_DLL@DV?$ChTraitsCRT@D@ATL@@@@@ATL@@XZ PROC ; CElementTree::GetSavedElementsData, COMDAT
; _this$ = ecx

; 537  : {

  00000	55		 push	 ebp
  00001	8b ec		 mov	 ebp, esp
  00003	6a ff		 push	 -1
  00005	68 00 00 00 00	 push	 __ehhandler$?GetSavedElementsData@CElementTree@@QBE?AV?$CStringT@DV?$StrTraitMFC_DLL@DV?$ChTraitsCRT@D@ATL@@@@@ATL@@XZ
  0000a	64 a1 00 00 00
	00		 mov	 eax, DWORD PTR fs:0
  00010	50		 push	 eax
  00011	83 ec 14	 sub	 esp, 20			; 00000014H
  00014	53		 push	 ebx
  00015	56		 push	 esi
  00016	57		 push	 edi
  00017	a1 00 00 00 00	 mov	 eax, DWORD PTR ___security_cookie
  0001c	33 c5		 xor	 eax, ebp
  0001e	50		 push	 eax
  0001f	8d 45 f4	 lea	 eax, DWORD PTR __$EHRec$[ebp]
  00022	64 a3 00 00 00
	00		 mov	 DWORD PTR fs:0, eax
  00028	8b f1		 mov	 esi, ecx
  0002a	c7 45 f0 00 00
	00 00		 mov	 DWORD PTR $T4[ebp], 0

; 156  : 	CString savedElementsData;

  00031	8b 7d 08	 mov	 edi, DWORD PTR ___$ReturnUdt$[ebp]
  00034	8b cf		 mov	 ecx, edi

; 538  : 	return m_tree.GetSavedElementsData(m_order);

  00036	c7 45 fc 00 00
	00 00		 mov	 DWORD PTR __$EHRec$[ebp+8], 0

; 156  : 	CString savedElementsData;

  0003d	ff 15 00 00 00
	00		 call	 DWORD PTR __imp_??0?$CStringT@DV?$StrTraitMFC_DLL@DV?$ChTraitsCRT@D@ATL@@@@@ATL@@QAE@XZ

; 157  : 	for(int nIndex = 0; nIndex < m_ColumnSetList.GetCount(); nIndex++){

  00043	33 db		 xor	 ebx, ebx

; 163  : 
; 164  : 	return savedElementsData;

  00045	c7 45 f0 02 00
	00 00		 mov	 DWORD PTR $T4[ebp], 2
  0004c	39 5e 28	 cmp	 DWORD PTR [esi+40], ebx
  0004f	7e 72		 jle	 SHORT $LN37@GetSavedEl
$LL8@GetSavedEl:
; File D:\git\src\IBK\IBK_DRFN\ProjSrc\SrcChartEx\ChartAddIn\ChartAnalysisToolAddIn\Include_Chart\DequeList.h

; 205  : 		if(m_deque.empty())

  00051	83 7e 28 00	 cmp	 DWORD PTR [esi+40], 0
  00055	75 04		 jne	 SHORT $LN15@GetSavedEl

; 206  : 			return NULL;

  00057	33 ff		 xor	 edi, edi
  00059	eb 1d		 jmp	 SHORT $LN14@GetSavedEl
$LN15@GetSavedEl:
; File C:\Program Files (x86)\Microsoft Visual Studio\2019\Community\VC\Tools\MSVC\14.29.30133\include\deque

; 909  :         return _Unchecked_const_iterator(_Myoff(), _STD addressof(_Get_data()));

  0005b	8b 46 24	 mov	 eax, DWORD PTR [esi+36]

; 559  :         return (_Off / _Block_size) & (_Mapsize - 1);

  0005e	8b 4e 20	 mov	 ecx, DWORD PTR [esi+32]
  00061	49		 dec	 ecx

; 78   :         _Myoff += _Off;

  00062	8d 14 18	 lea	 edx, DWORD PTR [eax+ebx]

; 559  :         return (_Off / _Block_size) & (_Mapsize - 1);

  00065	8b c2		 mov	 eax, edx
  00067	c1 e8 02	 shr	 eax, 2
  0006a	23 c8		 and	 ecx, eax

; 48   :         return _Mycont->_Map[_Block][_Off];

  0006c	8b 46 1c	 mov	 eax, DWORD PTR [esi+28]

; 559  :         return (_Off / _Block_size) & (_Mapsize - 1);

  0006f	83 e2 03	 and	 edx, 3

; 48   :         return _Mycont->_Map[_Block][_Off];

  00072	8b 04 88	 mov	 eax, DWORD PTR [eax+ecx*4]
; File D:\git\src\IBK\IBK_DRFN\ProjSrc\SrcChartEx\ChartAddIn\ChartAnalysisToolAddIn\Include_Chart\DequeList.h

; 208  : 		return m_deque[nIndex];

  00075	8b 3c 90	 mov	 edi, DWORD PTR [eax+edx*4]
$LN14@GetSavedEl:
; File D:\git\src\IBK\IBK_DRFN\ProjSrc\SrcChartEx\ChartAddIn\ChartAnalysisToolAddIn\AnalysisTool\ElementTree.cpp

; 160  : 		CString savedColumnData = pColumnSet->GetSavedElementsData(order);

  00078	56		 push	 esi
  00079	8d 45 e8	 lea	 eax, DWORD PTR _savedColumnData$2[ebp]
  0007c	8b cf		 mov	 ecx, edi
  0007e	50		 push	 eax
  0007f	e8 00 00 00 00	 call	 ?GetSavedElementsData@CColumnSet@@QBE?AV?$CStringT@DV?$StrTraitMFC_DLL@DV?$ChTraitsCRT@D@ATL@@@@@ATL@@ABVCOrder@@@Z ; CColumnSet::GetSavedElementsData

; 161  : 		savedElementsData += pColumnSet->GetSavedElementsData(order);

  00084	56		 push	 esi
  00085	8d 45 ec	 lea	 eax, DWORD PTR $T3[ebp]
  00088	c7 45 fc 01 00
	00 00		 mov	 DWORD PTR __$EHRec$[ebp+8], 1
  0008f	50		 push	 eax
  00090	8b cf		 mov	 ecx, edi
  00092	e8 00 00 00 00	 call	 ?GetSavedElementsData@CColumnSet@@QBE?AV?$CStringT@DV?$StrTraitMFC_DLL@DV?$ChTraitsCRT@D@ATL@@@@@ATL@@ABVCOrder@@@Z ; CColumnSet::GetSavedElementsData
  00097	8b 7d 08	 mov	 edi, DWORD PTR ___$ReturnUdt$[ebp]
  0009a	8b cf		 mov	 ecx, edi
  0009c	50		 push	 eax
  0009d	c6 45 fc 02	 mov	 BYTE PTR __$EHRec$[ebp+8], 2
  000a1	ff 15 00 00 00
	00		 call	 DWORD PTR __imp_??Y?$CStringT@DV?$StrTraitMFC_DLL@DV?$ChTraitsCRT@D@ATL@@@@@ATL@@QAEAAV01@ABV?$CSimpleStringT@D$00@1@@Z
  000a7	8d 4d ec	 lea	 ecx, DWORD PTR $T3[ebp]
  000aa	ff 15 00 00 00
	00		 call	 DWORD PTR __imp_??1?$CStringT@DV?$StrTraitMFC_DLL@DV?$ChTraitsCRT@D@ATL@@@@@ATL@@QAE@XZ

; 162  : 	}

  000b0	8d 4d e8	 lea	 ecx, DWORD PTR _savedColumnData$2[ebp]
  000b3	c6 45 fc 00	 mov	 BYTE PTR __$EHRec$[ebp+8], 0
  000b7	ff 15 00 00 00
	00		 call	 DWORD PTR __imp_??1?$CStringT@DV?$StrTraitMFC_DLL@DV?$ChTraitsCRT@D@ATL@@@@@ATL@@QAE@XZ
  000bd	43		 inc	 ebx
  000be	3b 5e 28	 cmp	 ebx, DWORD PTR [esi+40]
  000c1	7c 8e		 jl	 SHORT $LL8@GetSavedEl
$LN37@GetSavedEl:

; 539  : }

  000c3	8b c7		 mov	 eax, edi
  000c5	8b 4d f4	 mov	 ecx, DWORD PTR __$EHRec$[ebp]
  000c8	64 89 0d 00 00
	00 00		 mov	 DWORD PTR fs:0, ecx
  000cf	59		 pop	 ecx
  000d0	5f		 pop	 edi
  000d1	5e		 pop	 esi
  000d2	5b		 pop	 ebx
  000d3	8b e5		 mov	 esp, ebp
  000d5	5d		 pop	 ebp
  000d6	c2 04 00	 ret	 4
_TEXT	ENDS
;	COMDAT text$x
text$x	SEGMENT
__unwindfunclet$?GetSavedElementsData@CElementTree@@QBE?AV?$CStringT@DV?$StrTraitMFC_DLL@DV?$ChTraitsCRT@D@ATL@@@@@ATL@@XZ$1:
  00000	8b 45 f0	 mov	 eax, DWORD PTR $T4[ebp]
  00003	83 e0 02	 and	 eax, 2
  00006	0f 84 0d 00 00
	00		 je	 $LN11@GetSavedEl
  0000c	83 65 f0 fd	 and	 DWORD PTR $T4[ebp], -3	; fffffffdH
  00010	8b 4d 08	 mov	 ecx, DWORD PTR ___$ReturnUdt$[ebp]
  00013	ff 25 00 00 00
	00		 jmp	 DWORD PTR __imp_??1?$CStringT@DV?$StrTraitMFC_DLL@DV?$ChTraitsCRT@D@ATL@@@@@ATL@@QAE@XZ
$LN11@GetSavedEl:
  00019	c3		 ret	 0
__unwindfunclet$?GetSavedElementsData@CElementTree@@QBE?AV?$CStringT@DV?$StrTraitMFC_DLL@DV?$ChTraitsCRT@D@ATL@@@@@ATL@@XZ$2:
  0001a	8d 4d e8	 lea	 ecx, DWORD PTR _savedColumnData$2[ebp]
  0001d	ff 25 00 00 00
	00		 jmp	 DWORD PTR __imp_??1?$CStringT@DV?$StrTraitMFC_DLL@DV?$ChTraitsCRT@D@ATL@@@@@ATL@@QAE@XZ
__unwindfunclet$?GetSavedElementsData@CElementTree@@QBE?AV?$CStringT@DV?$StrTraitMFC_DLL@DV?$ChTraitsCRT@D@ATL@@@@@ATL@@XZ$3:
  00023	8d 4d ec	 lea	 ecx, DWORD PTR $T3[ebp]
  00026	ff 25 00 00 00
	00		 jmp	 DWORD PTR __imp_??1?$CStringT@DV?$StrTraitMFC_DLL@DV?$ChTraitsCRT@D@ATL@@@@@ATL@@QAE@XZ
  0002c	cc		 int	 3
  0002d	cc		 int	 3
  0002e	cc		 int	 3
  0002f	cc		 int	 3
  00030	cc		 int	 3
__ehhandler$?GetSavedElementsData@CElementTree@@QBE?AV?$CStringT@DV?$StrTraitMFC_DLL@DV?$ChTraitsCRT@D@ATL@@@@@ATL@@XZ:
  00031	90		 npad	 1
  00032	90		 npad	 1
  00033	8b 54 24 08	 mov	 edx, DWORD PTR [esp+8]
  00037	8d 42 0c	 lea	 eax, DWORD PTR [edx+12]
  0003a	8b 4a dc	 mov	 ecx, DWORD PTR [edx-36]
  0003d	33 c8		 xor	 ecx, eax
  0003f	e8 00 00 00 00	 call	 @__security_check_cookie@4
  00044	b8 00 00 00 00	 mov	 eax, OFFSET __ehfuncinfo$?GetSavedElementsData@CElementTree@@QBE?AV?$CStringT@DV?$StrTraitMFC_DLL@DV?$ChTraitsCRT@D@ATL@@@@@ATL@@XZ
  00049	e9 00 00 00 00	 jmp	 ___CxxFrameHandler3
text$x	ENDS
?GetSavedElementsData@CElementTree@@QBE?AV?$CStringT@DV?$StrTraitMFC_DLL@DV?$ChTraitsCRT@D@ATL@@@@@ATL@@XZ ENDP ; CElementTree::GetSavedElementsData
; Function compile flags: /Ogtp
; File D:\git\src\IBK\IBK_DRFN\ProjSrc\SrcChartEx\ChartAddIn\ChartAnalysisToolAddIn\AnalysisTool\ElementTree.cpp
; File C:\Program Files (x86)\Microsoft Visual Studio\2019\Community\VC\Tools\MSVC\14.29.30133\include\deque
; File D:\git\src\IBK\IBK_DRFN\ProjSrc\SrcChartEx\ChartAddIn\ChartAnalysisToolAddIn\AnalysisTool\ElementTree.cpp
;	COMDAT ?GetElementListOfBlock@CElementTree@@QAEXABVCBlockIndex@@AAV?$CDequePointerList@VCElement@@@@@Z
_TEXT	SEGMENT
_blockIndex$ = 8					; size = 4
_elementList$ = 12					; size = 4
?GetElementListOfBlock@CElementTree@@QAEXABVCBlockIndex@@AAV?$CDequePointerList@VCElement@@@@@Z PROC ; CElementTree::GetElementListOfBlock, COMDAT
; _this$ = ecx

; 530  : {

  00000	55		 push	 ebp
  00001	8b ec		 mov	 ebp, esp
  00003	57		 push	 edi
  00004	8b f9		 mov	 edi, ecx
; File C:\Program Files (x86)\Microsoft Visual Studio\2019\Community\VC\Tools\MSVC\14.29.30133\include\deque

; 1332 :         _Tidy();

  00006	8b 4d 0c	 mov	 ecx, DWORD PTR _elementList$[ebp]
  00009	e8 00 00 00 00	 call	 ?_Tidy@?$deque@PAVCElement@@V?$allocator@PAVCElement@@@std@@@std@@AAEXXZ ; std::deque<CElement *,std::allocator<CElement *> >::_Tidy
; File D:\git\src\IBK\IBK_DRFN\ProjSrc\SrcChartEx\ChartAddIn\ChartAnalysisToolAddIn\AnalysisTool\ElementTree.cpp

; 532  : 	m_tree.GetElementList(blockIndex, elementList);

  0000e	ff 75 0c	 push	 DWORD PTR _elementList$[ebp]
  00011	8d 4f 14	 lea	 ecx, DWORD PTR [edi+20]
  00014	ff 75 08	 push	 DWORD PTR _blockIndex$[ebp]
  00017	e8 00 00 00 00	 call	 ?GetElementList@CTree@@QAEXABVCBlockIndex@@AAV?$CDequePointerList@VCElement@@@@@Z ; CTree::GetElementList
  0001c	5f		 pop	 edi

; 533  : }

  0001d	5d		 pop	 ebp
  0001e	c2 08 00	 ret	 8
?GetElementListOfBlock@CElementTree@@QAEXABVCBlockIndex@@AAV?$CDequePointerList@VCElement@@@@@Z ENDP ; CElementTree::GetElementListOfBlock
_TEXT	ENDS
; Function compile flags: /Ogtp
; File D:\git\src\IBK\IBK_DRFN\ProjSrc\SrcChartEx\ChartAddIn\ChartAnalysisToolAddIn\AnalysisTool\ElementTree.cpp
;	COMDAT ?GetElementCount@CElementTree@@QBEHXZ
_TEXT	SEGMENT
?GetElementCount@CElementTree@@QBEHXZ PROC		; CElementTree::GetElementCount, COMDAT
; _this$ = ecx

; 526  : 	return m_order.GetCount();

  00000	8b 41 10	 mov	 eax, DWORD PTR [ecx+16]

; 527  : }

  00003	c3		 ret	 0
?GetElementCount@CElementTree@@QBEHXZ ENDP		; CElementTree::GetElementCount
_TEXT	ENDS
; Function compile flags: /Ogtp
; File D:\git\src\IBK\IBK_DRFN\ProjSrc\SrcChartEx\ChartAddIn\ChartAnalysisToolAddIn\AnalysisTool\ElementTree.cpp
; File C:\Program Files (x86)\Microsoft Visual Studio\2019\Community\VC\Tools\MSVC\14.29.30133\include\deque
; File D:\git\src\IBK\IBK_DRFN\ProjSrc\SrcChartEx\ChartAddIn\ChartAnalysisToolAddIn\Include_Chart\DequeList.h
; File C:\Program Files (x86)\Microsoft Visual Studio\2019\Community\VC\Tools\MSVC\14.29.30133\include\deque
; File D:\git\src\IBK\IBK_DRFN\ProjSrc\SrcChartEx\ChartAddIn\ChartAnalysisToolAddIn\Include_Chart\DequeList.h
; File C:\Program Files (x86)\Microsoft Visual Studio\2019\Community\VC\Tools\MSVC\14.29.30133\include\deque
; File D:\git\src\IBK\IBK_DRFN\ProjSrc\SrcChartEx\ChartAddIn\ChartAnalysisToolAddIn\Include_Chart\DequeList.h
; File D:\git\src\IBK\IBK_DRFN\ProjSrc\SrcChartEx\ChartAddIn\ChartAnalysisToolAddIn\AnalysisTool\ElementTree.cpp
;	COMDAT ?ChangeAllElementsThick@CElementTree@@QAEXHH@Z
_TEXT	SEGMENT
_nElementType$ = 8					; size = 4
_nNewWidth$ = 12					; size = 4
?ChangeAllElementsThick@CElementTree@@QAEXHH@Z PROC	; CElementTree::ChangeAllElementsThick, COMDAT
; _this$ = ecx

; 518  : {

  00000	55		 push	 ebp
  00001	8b ec		 mov	 ebp, esp
  00003	83 ec 08	 sub	 esp, 8
  00006	56		 push	 esi
  00007	8b f1		 mov	 esi, ecx
  00009	57		 push	 edi

; 145  : 	for(int nIndex = 0; nIndex < m_ColumnSetList.GetCount(); nIndex++)

  0000a	33 ff		 xor	 edi, edi
  0000c	39 7e 28	 cmp	 DWORD PTR [esi+40], edi
  0000f	7e 3b		 jle	 SHORT $LN5@ChangeAllE
  00011	53		 push	 ebx
  00012	8b 5d 0c	 mov	 ebx, DWORD PTR _nNewWidth$[ebp]
$LL6@ChangeAllE:
; File C:\Program Files (x86)\Microsoft Visual Studio\2019\Community\VC\Tools\MSVC\14.29.30133\include\deque

; 1002 :         return _Mysize() == 0;

  00015	83 7e 28 00	 cmp	 DWORD PTR [esi+40], 0
; File D:\git\src\IBK\IBK_DRFN\ProjSrc\SrcChartEx\ChartAddIn\ChartAnalysisToolAddIn\Include_Chart\DequeList.h

; 198  : 		if(m_deque.empty())

  00019	75 04		 jne	 SHORT $LN9@ChangeAllE

; 199  : 			return NULL;

  0001b	33 c9		 xor	 ecx, ecx
  0001d	eb 1d		 jmp	 SHORT $LN8@ChangeAllE
$LN9@ChangeAllE:
; File C:\Program Files (x86)\Microsoft Visual Studio\2019\Community\VC\Tools\MSVC\14.29.30133\include\deque

; 43   :         : _Mycont(static_cast<const _Mydeque*>(_Pdeque)), _Myoff(_Off) {}

  0001f	8b 46 24	 mov	 eax, DWORD PTR [esi+36]

; 78   :         _Myoff += _Off;

  00022	8d 14 07	 lea	 edx, DWORD PTR [edi+eax]

; 559  :         return (_Off / _Block_size) & (_Mapsize - 1);

  00025	8b 46 20	 mov	 eax, DWORD PTR [esi+32]

; 78   :         _Myoff += _Off;

  00028	8b ca		 mov	 ecx, edx

; 559  :         return (_Off / _Block_size) & (_Mapsize - 1);

  0002a	48		 dec	 eax

; 78   :         _Myoff += _Off;

  0002b	c1 e9 02	 shr	 ecx, 2

; 559  :         return (_Off / _Block_size) & (_Mapsize - 1);

  0002e	23 c8		 and	 ecx, eax
; File D:\git\src\IBK\IBK_DRFN\ProjSrc\SrcChartEx\ChartAddIn\ChartAnalysisToolAddIn\Include_Chart\DequeList.h

; 201  : 		return m_deque[nIndex];

  00030	8b 46 1c	 mov	 eax, DWORD PTR [esi+28]
; File C:\Program Files (x86)\Microsoft Visual Studio\2019\Community\VC\Tools\MSVC\14.29.30133\include\deque

; 48   :         return _Mycont->_Map[_Block][_Off];

  00033	83 e2 03	 and	 edx, 3
; File D:\git\src\IBK\IBK_DRFN\ProjSrc\SrcChartEx\ChartAddIn\ChartAnalysisToolAddIn\Include_Chart\DequeList.h

; 201  : 		return m_deque[nIndex];

  00036	8b 04 88	 mov	 eax, DWORD PTR [eax+ecx*4]
  00039	8b 0c 90	 mov	 ecx, DWORD PTR [eax+edx*4]
$LN8@ChangeAllE:
; File D:\git\src\IBK\IBK_DRFN\ProjSrc\SrcChartEx\ChartAddIn\ChartAnalysisToolAddIn\AnalysisTool\ElementTree.cpp

; 149  : 		pColumnSet->ChangeAllElementsThick(nElementType, nNewWidth);

  0003c	53		 push	 ebx
  0003d	ff 75 08	 push	 DWORD PTR _nElementType$[ebp]
  00040	e8 00 00 00 00	 call	 ?ChangeAllElementsThick@CColumnSet@@QAEXHH@Z ; CColumnSet::ChangeAllElementsThick
  00045	47		 inc	 edi
  00046	3b 7e 28	 cmp	 edi, DWORD PTR [esi+40]
  00049	7c ca		 jl	 SHORT $LL6@ChangeAllE
  0004b	5b		 pop	 ebx
$LN5@ChangeAllE:
  0004c	5f		 pop	 edi

; 519  : 	m_tree.ChangeAllElementsThick(nElementType, nNewWidth);
; 520  : }

  0004d	5e		 pop	 esi
  0004e	8b e5		 mov	 esp, ebp
  00050	5d		 pop	 ebp
  00051	c2 08 00	 ret	 8
?ChangeAllElementsThick@CElementTree@@QAEXHH@Z ENDP	; CElementTree::ChangeAllElementsThick
_TEXT	ENDS
; Function compile flags: /Ogtp
; File D:\git\src\IBK\IBK_DRFN\ProjSrc\SrcChartEx\ChartAddIn\ChartAnalysisToolAddIn\AnalysisTool\ElementTree.cpp
; File C:\Program Files (x86)\Microsoft Visual Studio\2019\Community\VC\Tools\MSVC\14.29.30133\include\deque
; File D:\git\src\IBK\IBK_DRFN\ProjSrc\SrcChartEx\ChartAddIn\ChartAnalysisToolAddIn\Include_Chart\DequeList.h
; File C:\Program Files (x86)\Microsoft Visual Studio\2019\Community\VC\Tools\MSVC\14.29.30133\include\deque
; File D:\git\src\IBK\IBK_DRFN\ProjSrc\SrcChartEx\ChartAddIn\ChartAnalysisToolAddIn\Include_Chart\DequeList.h
; File C:\Program Files (x86)\Microsoft Visual Studio\2019\Community\VC\Tools\MSVC\14.29.30133\include\deque
; File D:\git\src\IBK\IBK_DRFN\ProjSrc\SrcChartEx\ChartAddIn\ChartAnalysisToolAddIn\Include_Chart\DequeList.h
; File D:\git\src\IBK\IBK_DRFN\ProjSrc\SrcChartEx\ChartAddIn\ChartAnalysisToolAddIn\AnalysisTool\ElementTree.cpp
;	COMDAT ?ChangeAllElementsColor@CElementTree@@QAEXABK0@Z
_TEXT	SEGMENT
_penColor$ = 8						; size = 4
_textColor$ = 12					; size = 4
?ChangeAllElementsColor@CElementTree@@QAEXABK0@Z PROC	; CElementTree::ChangeAllElementsColor, COMDAT
; _this$ = ecx

; 512  : {

  00000	55		 push	 ebp
  00001	8b ec		 mov	 ebp, esp
  00003	83 ec 08	 sub	 esp, 8
  00006	56		 push	 esi
  00007	8b f1		 mov	 esi, ecx
  00009	57		 push	 edi

; 134  : 	for(int nIndex = 0; nIndex < m_ColumnSetList.GetCount(); nIndex++)

  0000a	33 ff		 xor	 edi, edi
  0000c	39 7e 28	 cmp	 DWORD PTR [esi+40], edi
  0000f	7e 3b		 jle	 SHORT $LN5@ChangeAllE
  00011	53		 push	 ebx
  00012	8b 5d 0c	 mov	 ebx, DWORD PTR _textColor$[ebp]
$LL6@ChangeAllE:
; File C:\Program Files (x86)\Microsoft Visual Studio\2019\Community\VC\Tools\MSVC\14.29.30133\include\deque

; 1002 :         return _Mysize() == 0;

  00015	83 7e 28 00	 cmp	 DWORD PTR [esi+40], 0
; File D:\git\src\IBK\IBK_DRFN\ProjSrc\SrcChartEx\ChartAddIn\ChartAnalysisToolAddIn\Include_Chart\DequeList.h

; 198  : 		if(m_deque.empty())

  00019	75 04		 jne	 SHORT $LN9@ChangeAllE

; 199  : 			return NULL;

  0001b	33 c9		 xor	 ecx, ecx
  0001d	eb 1d		 jmp	 SHORT $LN8@ChangeAllE
$LN9@ChangeAllE:
; File C:\Program Files (x86)\Microsoft Visual Studio\2019\Community\VC\Tools\MSVC\14.29.30133\include\deque

; 43   :         : _Mycont(static_cast<const _Mydeque*>(_Pdeque)), _Myoff(_Off) {}

  0001f	8b 46 24	 mov	 eax, DWORD PTR [esi+36]

; 78   :         _Myoff += _Off;

  00022	8d 14 07	 lea	 edx, DWORD PTR [edi+eax]

; 559  :         return (_Off / _Block_size) & (_Mapsize - 1);

  00025	8b 46 20	 mov	 eax, DWORD PTR [esi+32]

; 78   :         _Myoff += _Off;

  00028	8b ca		 mov	 ecx, edx

; 559  :         return (_Off / _Block_size) & (_Mapsize - 1);

  0002a	48		 dec	 eax

; 78   :         _Myoff += _Off;

  0002b	c1 e9 02	 shr	 ecx, 2

; 559  :         return (_Off / _Block_size) & (_Mapsize - 1);

  0002e	23 c8		 and	 ecx, eax
; File D:\git\src\IBK\IBK_DRFN\ProjSrc\SrcChartEx\ChartAddIn\ChartAnalysisToolAddIn\Include_Chart\DequeList.h

; 201  : 		return m_deque[nIndex];

  00030	8b 46 1c	 mov	 eax, DWORD PTR [esi+28]
; File C:\Program Files (x86)\Microsoft Visual Studio\2019\Community\VC\Tools\MSVC\14.29.30133\include\deque

; 48   :         return _Mycont->_Map[_Block][_Off];

  00033	83 e2 03	 and	 edx, 3
; File D:\git\src\IBK\IBK_DRFN\ProjSrc\SrcChartEx\ChartAddIn\ChartAnalysisToolAddIn\Include_Chart\DequeList.h

; 201  : 		return m_deque[nIndex];

  00036	8b 04 88	 mov	 eax, DWORD PTR [eax+ecx*4]
  00039	8b 0c 90	 mov	 ecx, DWORD PTR [eax+edx*4]
$LN8@ChangeAllE:
; File D:\git\src\IBK\IBK_DRFN\ProjSrc\SrcChartEx\ChartAddIn\ChartAnalysisToolAddIn\AnalysisTool\ElementTree.cpp

; 138  : 		pColumnSet->ChangeAllElementsColor(penColor, textColor);

  0003c	53		 push	 ebx
  0003d	ff 75 08	 push	 DWORD PTR _penColor$[ebp]
  00040	e8 00 00 00 00	 call	 ?ChangeAllElementsColor@CColumnSet@@QAEXABK0@Z ; CColumnSet::ChangeAllElementsColor
  00045	47		 inc	 edi
  00046	3b 7e 28	 cmp	 edi, DWORD PTR [esi+40]
  00049	7c ca		 jl	 SHORT $LL6@ChangeAllE
  0004b	5b		 pop	 ebx
$LN5@ChangeAllE:
  0004c	5f		 pop	 edi

; 513  : 	m_tree.ChangeAllElementsColor(penColor, textColor);
; 514  : }

  0004d	5e		 pop	 esi
  0004e	8b e5		 mov	 esp, ebp
  00050	5d		 pop	 ebp
  00051	c2 08 00	 ret	 8
?ChangeAllElementsColor@CElementTree@@QAEXABK0@Z ENDP	; CElementTree::ChangeAllElementsColor
_TEXT	ENDS
; Function compile flags: /Ogtp
; File D:\git\src\IBK\IBK_DRFN\ProjSrc\SrcChartEx\ChartAddIn\ChartAnalysisToolAddIn\AnalysisTool\ElementTree.cpp
; File C:\Program Files (x86)\Microsoft Visual Studio\2019\Community\VC\Tools\MSVC\14.29.30133\include\deque
; File D:\git\src\IBK\IBK_DRFN\ProjSrc\SrcChartEx\ChartAddIn\ChartAnalysisToolAddIn\Include_Chart\DequeList.h
; File C:\Program Files (x86)\Microsoft Visual Studio\2019\Community\VC\Tools\MSVC\14.29.30133\include\deque
; File D:\git\src\IBK\IBK_DRFN\ProjSrc\SrcChartEx\ChartAddIn\ChartAnalysisToolAddIn\Include_Chart\DequeList.h
; File C:\Program Files (x86)\Microsoft Visual Studio\2019\Community\VC\Tools\MSVC\14.29.30133\include\deque
; File D:\git\src\IBK\IBK_DRFN\ProjSrc\SrcChartEx\ChartAddIn\ChartAnalysisToolAddIn\Include_Chart\DequeList.h
; File D:\git\src\IBK\IBK_DRFN\ProjSrc\SrcChartEx\ChartAddIn\ChartAnalysisToolAddIn\AnalysisTool\ElementTree.cpp
;	COMDAT ?SetAutoPrice@CElementTree@@QAEX_N@Z
_TEXT	SEGMENT
_bIsAutoPrice$ = 8					; size = 1
?SetAutoPrice@CElementTree@@QAEX_N@Z PROC		; CElementTree::SetAutoPrice, COMDAT
; _this$ = ecx

; 506  : {

  00000	55		 push	 ebp
  00001	8b ec		 mov	 ebp, esp
  00003	83 ec 08	 sub	 esp, 8
  00006	56		 push	 esi
  00007	8b f1		 mov	 esi, ecx
  00009	57		 push	 edi

; 123  : 	for(int nIndex = 0; nIndex < m_ColumnSetList.GetCount(); nIndex++){

  0000a	33 ff		 xor	 edi, edi
  0000c	39 7e 28	 cmp	 DWORD PTR [esi+40], edi
  0000f	7e 38		 jle	 SHORT $LN5@SetAutoPri
  00011	53		 push	 ebx
  00012	8b 5d 08	 mov	 ebx, DWORD PTR _bIsAutoPrice$[ebp]
$LL6@SetAutoPri:
; File C:\Program Files (x86)\Microsoft Visual Studio\2019\Community\VC\Tools\MSVC\14.29.30133\include\deque

; 1002 :         return _Mysize() == 0;

  00015	83 7e 28 00	 cmp	 DWORD PTR [esi+40], 0
; File D:\git\src\IBK\IBK_DRFN\ProjSrc\SrcChartEx\ChartAddIn\ChartAnalysisToolAddIn\Include_Chart\DequeList.h

; 198  : 		if(m_deque.empty())

  00019	75 04		 jne	 SHORT $LN9@SetAutoPri

; 199  : 			return NULL;

  0001b	33 c9		 xor	 ecx, ecx
  0001d	eb 1d		 jmp	 SHORT $LN8@SetAutoPri
$LN9@SetAutoPri:
; File C:\Program Files (x86)\Microsoft Visual Studio\2019\Community\VC\Tools\MSVC\14.29.30133\include\deque

; 43   :         : _Mycont(static_cast<const _Mydeque*>(_Pdeque)), _Myoff(_Off) {}

  0001f	8b 46 24	 mov	 eax, DWORD PTR [esi+36]

; 78   :         _Myoff += _Off;

  00022	8d 14 38	 lea	 edx, DWORD PTR [eax+edi]

; 559  :         return (_Off / _Block_size) & (_Mapsize - 1);

  00025	8b 46 20	 mov	 eax, DWORD PTR [esi+32]

; 78   :         _Myoff += _Off;

  00028	8b ca		 mov	 ecx, edx

; 559  :         return (_Off / _Block_size) & (_Mapsize - 1);

  0002a	48		 dec	 eax

; 78   :         _Myoff += _Off;

  0002b	c1 e9 02	 shr	 ecx, 2

; 559  :         return (_Off / _Block_size) & (_Mapsize - 1);

  0002e	23 c8		 and	 ecx, eax
; File D:\git\src\IBK\IBK_DRFN\ProjSrc\SrcChartEx\ChartAddIn\ChartAnalysisToolAddIn\Include_Chart\DequeList.h

; 201  : 		return m_deque[nIndex];

  00030	8b 46 1c	 mov	 eax, DWORD PTR [esi+28]
; File C:\Program Files (x86)\Microsoft Visual Studio\2019\Community\VC\Tools\MSVC\14.29.30133\include\deque

; 48   :         return _Mycont->_Map[_Block][_Off];

  00033	83 e2 03	 and	 edx, 3
; File D:\git\src\IBK\IBK_DRFN\ProjSrc\SrcChartEx\ChartAddIn\ChartAnalysisToolAddIn\Include_Chart\DequeList.h

; 201  : 		return m_deque[nIndex];

  00036	8b 04 88	 mov	 eax, DWORD PTR [eax+ecx*4]
  00039	8b 0c 90	 mov	 ecx, DWORD PTR [eax+edx*4]
$LN8@SetAutoPri:
; File D:\git\src\IBK\IBK_DRFN\ProjSrc\SrcChartEx\ChartAddIn\ChartAnalysisToolAddIn\AnalysisTool\ElementTree.cpp

; 126  : 		pColumnSet->SetAutoPrice(bIsAutoPrice);

  0003c	53		 push	 ebx
  0003d	e8 00 00 00 00	 call	 ?SetAutoPrice@CColumnSet@@QAEX_N@Z ; CColumnSet::SetAutoPrice
  00042	47		 inc	 edi
  00043	3b 7e 28	 cmp	 edi, DWORD PTR [esi+40]
  00046	7c cd		 jl	 SHORT $LL6@SetAutoPri
  00048	5b		 pop	 ebx
$LN5@SetAutoPri:
  00049	5f		 pop	 edi

; 507  : 	m_tree.SetAutoPrice(bIsAutoPrice);
; 508  : }

  0004a	5e		 pop	 esi
  0004b	8b e5		 mov	 esp, ebp
  0004d	5d		 pop	 ebp
  0004e	c2 04 00	 ret	 4
?SetAutoPrice@CElementTree@@QAEX_N@Z ENDP		; CElementTree::SetAutoPrice
_TEXT	ENDS
; Function compile flags: /Ogtp
; File D:\git\src\IBK\IBK_DRFN\ProjSrc\SrcChartEx\ChartAddIn\ChartAnalysisToolAddIn\AnalysisTool\ElementTree.cpp
; File C:\Program Files (x86)\Microsoft Visual Studio\2019\Community\VC\Tools\MSVC\14.29.30133\include\deque
; File C:\Program Files (x86)\Microsoft Visual Studio\2019\Community\VC\Tools\MSVC\14.29.30133\include\utility
; File C:\Program Files (x86)\Microsoft Visual Studio\2019\Community\VC\Tools\MSVC\14.29.30133\include\xmemory
; File C:\Program Files (x86)\Microsoft Visual Studio\2019\Community\VC\Tools\MSVC\14.29.30133\include\utility
; File C:\Program Files (x86)\Microsoft Visual Studio\2019\Community\VC\Tools\MSVC\14.29.30133\include\xmemory
;	COMDAT ??_GCTree@@UAEPAXI@Z
_TEXT	SEGMENT
__$EHRec$ = -12						; size = 12
___flags$ = 8						; size = 4
??_GCTree@@UAEPAXI@Z PROC				; CTree::`scalar deleting destructor', COMDAT
; _this$ = ecx
  00000	55		 push	 ebp
  00001	8b ec		 mov	 ebp, esp
  00003	6a ff		 push	 -1
  00005	68 00 00 00 00	 push	 __ehhandler$??_GCTree@@UAEPAXI@Z
  0000a	64 a1 00 00 00
	00		 mov	 eax, DWORD PTR fs:0
  00010	50		 push	 eax
  00011	56		 push	 esi
  00012	57		 push	 edi
  00013	a1 00 00 00 00	 mov	 eax, DWORD PTR ___security_cookie
  00018	33 c5		 xor	 eax, ebp
  0001a	50		 push	 eax
  0001b	8d 45 f4	 lea	 eax, DWORD PTR __$EHRec$[ebp]
  0001e	64 a3 00 00 00
	00		 mov	 DWORD PTR fs:0, eax
  00024	8b f9		 mov	 edi, ecx
; File D:\git\src\IBK\IBK_DRFN\ProjSrc\SrcChartEx\ChartAddIn\ChartAnalysisToolAddIn\AnalysisTool\ElementTree.cpp

; 116  : {

  00026	c7 45 fc 00 00
	00 00		 mov	 DWORD PTR __$EHRec$[ebp+8], 0
  0002d	c7 07 00 00 00
	00		 mov	 DWORD PTR [edi], OFFSET ??_7CTree@@6B@

; 117  : 	DeleteAll();

  00033	e8 00 00 00 00	 call	 ?DeleteAll@CTree@@QAEXXZ ; CTree::DeleteAll
; File C:\Program Files (x86)\Microsoft Visual Studio\2019\Community\VC\Tools\MSVC\14.29.30133\include\deque

; 1332 :         _Tidy();

  00038	8d 4f 04	 lea	 ecx, DWORD PTR [edi+4]
  0003b	e8 00 00 00 00	 call	 ?_Tidy@?$deque@PAVCColumnSet@@V?$allocator@PAVCColumnSet@@@std@@@std@@AAEXXZ ; std::deque<CColumnSet *,std::allocator<CColumnSet *> >::_Tidy

; 861  :         _Tidy();

  00040	8d 4f 04	 lea	 ecx, DWORD PTR [edi+4]
  00043	e8 00 00 00 00	 call	 ?_Tidy@?$deque@PAVCColumnSet@@V?$allocator@PAVCColumnSet@@@std@@@std@@AAEXXZ ; std::deque<CColumnSet *,std::allocator<CColumnSet *> >::_Tidy
; File C:\Program Files (x86)\Microsoft Visual Studio\2019\Community\VC\Tools\MSVC\14.29.30133\include\utility

; 602  :     _Ty _Old_val = static_cast<_Ty&&>(_Val);

  00048	8b 47 04	 mov	 eax, DWORD PTR [edi+4]
; File C:\Program Files (x86)\Microsoft Visual Studio\2019\Community\VC\Tools\MSVC\14.29.30133\include\xmemory

; 255  :         ::operator delete(_Ptr, _Bytes);

  0004b	6a 08		 push	 8
  0004d	50		 push	 eax
; File C:\Program Files (x86)\Microsoft Visual Studio\2019\Community\VC\Tools\MSVC\14.29.30133\include\utility

; 603  :     _Val         = static_cast<_Other&&>(_New_val);

  0004e	c7 47 04 00 00
	00 00		 mov	 DWORD PTR [edi+4], 0
; File C:\Program Files (x86)\Microsoft Visual Studio\2019\Community\VC\Tools\MSVC\14.29.30133\include\xmemory

; 255  :         ::operator delete(_Ptr, _Bytes);

  00055	e8 00 00 00 00	 call	 ??3@YAXPAXI@Z		; operator delete
  0005a	83 c4 08	 add	 esp, 8
  0005d	f6 45 08 01	 test	 BYTE PTR ___flags$[ebp], 1
  00061	74 0b		 je	 SHORT $LN43@scalar
  00063	6a 18		 push	 24			; 00000018H
  00065	57		 push	 edi
  00066	e8 00 00 00 00	 call	 ??3@YAXPAXI@Z		; operator delete
  0006b	83 c4 08	 add	 esp, 8
$LN43@scalar:
  0006e	8b c7		 mov	 eax, edi
  00070	8b 4d f4	 mov	 ecx, DWORD PTR __$EHRec$[ebp]
  00073	64 89 0d 00 00
	00 00		 mov	 DWORD PTR fs:0, ecx
  0007a	59		 pop	 ecx
  0007b	5f		 pop	 edi
  0007c	5e		 pop	 esi
  0007d	8b e5		 mov	 esp, ebp
  0007f	5d		 pop	 ebp
  00080	c2 04 00	 ret	 4
  00083	cc		 int	 3
  00084	cc		 int	 3
  00085	cc		 int	 3
  00086	cc		 int	 3
  00087	cc		 int	 3
_TEXT	ENDS
;	COMDAT text$x
text$x	SEGMENT
__ehhandler$??_GCTree@@UAEPAXI@Z:
  00000	90		 npad	 1
  00001	90		 npad	 1
  00002	8b 54 24 08	 mov	 edx, DWORD PTR [esp+8]
  00006	8d 42 0c	 lea	 eax, DWORD PTR [edx+12]
  00009	8b 4a f4	 mov	 ecx, DWORD PTR [edx-12]
  0000c	33 c8		 xor	 ecx, eax
  0000e	e8 00 00 00 00	 call	 @__security_check_cookie@4
  00013	b8 00 00 00 00	 mov	 eax, OFFSET __ehfuncinfo$??_GCTree@@UAEPAXI@Z
  00018	e9 00 00 00 00	 jmp	 ___CxxFrameHandler3
text$x	ENDS
??_GCTree@@UAEPAXI@Z ENDP				; CTree::`scalar deleting destructor'
; Function compile flags: /Ogtp
; File D:\git\src\IBK\IBK_DRFN\ProjSrc\SrcChartEx\ChartAddIn\ChartAnalysisToolAddIn\AnalysisTool\ElementTree.cpp
; File D:\git\src\IBK\IBK_DRFN\ProjSrc\SrcChartEx\ChartAddIn\ChartAnalysisToolAddIn\Include_Chart\BlockBaseData.h
; File D:\git\src\IBK\IBK_DRFN\ProjSrc\SrcChartEx\ChartAddIn\ChartAnalysisToolAddIn\AnalysisTool\ElementTree.cpp
;	COMDAT ?IsFindElement@CTree@@ABE_NABVCBlockIndex@@@Z
_TEXT	SEGMENT
_blockIndex$ = 8					; size = 4
?IsFindElement@CTree@@ABE_NABVCBlockIndex@@@Z PROC	; CTree::IsFindElement, COMDAT
; _this$ = ecx

; 497  : {

  00000	55		 push	 ebp
  00001	8b ec		 mov	 ebp, esp
; File D:\git\src\IBK\IBK_DRFN\ProjSrc\SrcChartEx\ChartAddIn\ChartAnalysisToolAddIn\Include_Chart\BlockBaseData.h

; 32   : 	bool IsAllValueBiggerThanZero() const { return (m_nRow >= 0 && m_nColumn >= 0); };

  00003	8b 45 08	 mov	 eax, DWORD PTR _blockIndex$[ebp]
  00006	83 38 00	 cmp	 DWORD PTR [eax], 0
  00009	7c 12		 jl	 SHORT $LN3@IsFindElem
  0000b	8b 40 04	 mov	 eax, DWORD PTR [eax+4]
  0000e	85 c0		 test	 eax, eax
  00010	78 0b		 js	 SHORT $LN3@IsFindElem
; File D:\git\src\IBK\IBK_DRFN\ProjSrc\SrcChartEx\ChartAddIn\ChartAnalysisToolAddIn\AnalysisTool\ElementTree.cpp

; 498  : 	return (blockIndex.IsAllValueBiggerThanZero() && blockIndex.GetColumn() < m_ColumnSetList.GetCount());

  00012	3b 41 14	 cmp	 eax, DWORD PTR [ecx+20]
  00015	7d 06		 jge	 SHORT $LN3@IsFindElem
  00017	b0 01		 mov	 al, 1

; 499  : }

  00019	5d		 pop	 ebp
  0001a	c2 04 00	 ret	 4
$LN3@IsFindElem:

; 498  : 	return (blockIndex.IsAllValueBiggerThanZero() && blockIndex.GetColumn() < m_ColumnSetList.GetCount());

  0001d	32 c0		 xor	 al, al

; 499  : }

  0001f	5d		 pop	 ebp
  00020	c2 04 00	 ret	 4
?IsFindElement@CTree@@ABE_NABVCBlockIndex@@@Z ENDP	; CTree::IsFindElement
_TEXT	ENDS
; Function compile flags: /Ogtp
; File D:\git\src\IBK\IBK_DRFN\ProjSrc\SrcChartEx\ChartAddIn\ChartAnalysisToolAddIn\AnalysisTool\ElementTree.cpp
;	COMDAT ?IsFindElement@CTree@@ABE_NPAUIChartManager133101@@PAVCExtractingDataOfModifyType@@@Z
_TEXT	SEGMENT
_pMainBlock$ = 8					; size = 4
_pExtractingData$ = 12					; size = 4
?IsFindElement@CTree@@ABE_NPAUIChartManager133101@@PAVCExtractingDataOfModifyType@@@Z PROC ; CTree::IsFindElement, COMDAT
; _this$ = ecx

; 492  : {

  00000	55		 push	 ebp
  00001	8b ec		 mov	 ebp, esp

; 493  : 	return (pMainBlock == NULL || pExtractingData == NULL || pExtractingData->IsFindElement());

  00003	83 7d 08 00	 cmp	 DWORD PTR _pMainBlock$[ebp], 0
  00007	74 14		 je	 SHORT $LN3@IsFindElem
  00009	8b 4d 0c	 mov	 ecx, DWORD PTR _pExtractingData$[ebp]
  0000c	85 c9		 test	 ecx, ecx
  0000e	74 0d		 je	 SHORT $LN3@IsFindElem
  00010	e8 00 00 00 00	 call	 ?IsFindElement@CExtractingDataOfModifyType@@QBE_NXZ ; CExtractingDataOfModifyType::IsFindElement
  00015	84 c0		 test	 al, al
  00017	75 04		 jne	 SHORT $LN3@IsFindElem

; 494  : }

  00019	5d		 pop	 ebp
  0001a	c2 08 00	 ret	 8
$LN3@IsFindElem:

; 493  : 	return (pMainBlock == NULL || pExtractingData == NULL || pExtractingData->IsFindElement());

  0001d	b0 01		 mov	 al, 1

; 494  : }

  0001f	5d		 pop	 ebp
  00020	c2 08 00	 ret	 8
?IsFindElement@CTree@@ABE_NPAUIChartManager133101@@PAVCExtractingDataOfModifyType@@@Z ENDP ; CTree::IsFindElement
_TEXT	ENDS
; Function compile flags: /Ogtp
; File D:\git\src\IBK\IBK_DRFN\ProjSrc\SrcChartEx\ChartAddIn\ChartAnalysisToolAddIn\AnalysisTool\ElementTree.cpp
;	COMDAT ?GetMax@CTree@@ABEHHH@Z
_TEXT	SEGMENT
_x1$ = 8						; size = 4
_x2$ = 12						; size = 4
?GetMax@CTree@@ABEHHH@Z PROC				; CTree::GetMax, COMDAT
; _this$ = ecx

; 485  : {

  00000	55		 push	 ebp
  00001	8b ec		 mov	 ebp, esp

; 486  : 	return (x1 > x2) ? x1: x2;

  00003	8b 45 0c	 mov	 eax, DWORD PTR _x2$[ebp]
  00006	39 45 08	 cmp	 DWORD PTR _x1$[ebp], eax
  00009	0f 4f 45 08	 cmovg	 eax, DWORD PTR _x1$[ebp]

; 487  : }

  0000d	5d		 pop	 ebp
  0000e	c2 08 00	 ret	 8
?GetMax@CTree@@ABEHHH@Z ENDP				; CTree::GetMax
_TEXT	ENDS
; Function compile flags: /Ogtp
; File D:\git\src\IBK\IBK_DRFN\ProjSrc\SrcChartEx\ChartAddIn\ChartAnalysisToolAddIn\AnalysisTool\ElementTree.cpp
;	COMDAT ?MoveRowSet@CTree@@AAE_NPAVCColumnSet@@HH@Z
_TEXT	SEGMENT
_pColumnSet$ = 8					; size = 4
_sourceRowIndex$ = 12					; size = 4
_targetRowIndex$ = 16					; size = 4
?MoveRowSet@CTree@@AAE_NPAVCColumnSet@@HH@Z PROC	; CTree::MoveRowSet, COMDAT
; _this$ = ecx

; 476  : {

  00000	55		 push	 ebp
  00001	8b ec		 mov	 ebp, esp

; 477  : 	assert(pColumnSet != NULL);
; 478  : 	if(sourceRowIndex == targetRowIndex)

  00003	8b 45 0c	 mov	 eax, DWORD PTR _sourceRowIndex$[ebp]
  00006	8b 4d 10	 mov	 ecx, DWORD PTR _targetRowIndex$[ebp]
  00009	3b c1		 cmp	 eax, ecx
  0000b	75 06		 jne	 SHORT $LN2@MoveRowSet

; 479  : 		return false;

  0000d	32 c0		 xor	 al, al

; 482  : }

  0000f	5d		 pop	 ebp
  00010	c2 0c 00	 ret	 12			; 0000000cH
$LN2@MoveRowSet:

; 480  : 
; 481  : 	return pColumnSet->MoveRowSet(sourceRowIndex, targetRowIndex);

  00013	51		 push	 ecx
  00014	8b 4d 08	 mov	 ecx, DWORD PTR _pColumnSet$[ebp]
  00017	50		 push	 eax
  00018	e8 00 00 00 00	 call	 ?MoveRowSet@CColumnSet@@QAE_NHH@Z ; CColumnSet::MoveRowSet

; 482  : }

  0001d	5d		 pop	 ebp
  0001e	c2 0c 00	 ret	 12			; 0000000cH
?MoveRowSet@CTree@@AAE_NPAVCColumnSet@@HH@Z ENDP	; CTree::MoveRowSet
_TEXT	ENDS
; Function compile flags: /Ogtp
; File D:\git\src\IBK\IBK_DRFN\ProjSrc\SrcChartEx\ChartAddIn\ChartAnalysisToolAddIn\AnalysisTool\ElementTree.cpp
; File D:\git\src\IBK\IBK_DRFN\ProjSrc\SrcChartEx\ChartAddIn\ChartAnalysisToolAddIn\Include_Chart\DequeList.h
; File C:\Program Files (x86)\Microsoft Visual Studio\2019\Community\VC\Tools\MSVC\14.29.30133\include\deque
; File D:\git\src\IBK\IBK_DRFN\ProjSrc\SrcChartEx\ChartAddIn\ChartAnalysisToolAddIn\Include_Chart\DequeList.h
; File C:\Program Files (x86)\Microsoft Visual Studio\2019\Community\VC\Tools\MSVC\14.29.30133\include\xmemory
; File C:\Program Files (x86)\Microsoft Visual Studio\2019\Community\VC\Tools\MSVC\14.29.30133\include\deque
; File C:\Program Files (x86)\Microsoft Visual Studio\2019\Community\VC\Tools\MSVC\14.29.30133\include\xmemory
; File C:\Program Files (x86)\Microsoft Visual Studio\2019\Community\VC\Tools\MSVC\14.29.30133\include\deque
; File C:\Program Files (x86)\Microsoft Visual Studio\2019\Community\VC\Tools\MSVC\14.29.30133\include\xmemory
; File C:\Program Files (x86)\Microsoft Visual Studio\2019\Community\VC\Tools\MSVC\14.29.30133\include\deque
; File D:\git\src\IBK\IBK_DRFN\ProjSrc\SrcChartEx\ChartAddIn\ChartAnalysisToolAddIn\Include_Chart\DequeList.h
; File C:\Program Files (x86)\Microsoft Visual Studio\2019\Community\VC\Tools\MSVC\14.29.30133\include\deque
; File C:\Program Files (x86)\Microsoft Visual Studio\2019\Community\VC\Tools\MSVC\14.29.30133\include\xmemory
; File C:\Program Files (x86)\Microsoft Visual Studio\2019\Community\VC\Tools\MSVC\14.29.30133\include\deque
; File D:\git\src\IBK\IBK_DRFN\ProjSrc\SrcChartEx\ChartAddIn\ChartAnalysisToolAddIn\Include_Chart\DequeList.h
; File C:\Program Files (x86)\Microsoft Visual Studio\2019\Community\VC\Tools\MSVC\14.29.30133\include\xmemory
; File D:\git\src\IBK\IBK_DRFN\ProjSrc\SrcChartEx\ChartAddIn\ChartAnalysisToolAddIn\Include_Chart\DequeList.h
; File D:\git\src\IBK\IBK_DRFN\ProjSrc\SrcChartEx\ChartAddIn\ChartAnalysisToolAddIn\AnalysisTool\ElementTree.cpp
;	COMDAT ?MoveColumnSet_InColumnSetList@CTree@@AAE_NHH@Z
_TEXT	SEGMENT
$T4 = -12						; size = 12
$T5 = -12						; size = 12
__Tmp$6 = -8						; size = 8
_pT$1$ = 8						; size = 4
_pItem$ = 8						; size = 4
_sourceColumnIndex$ = 8					; size = 4
_targetColumnIndex$ = 12				; size = 4
?MoveColumnSet_InColumnSetList@CTree@@AAE_NHH@Z PROC	; CTree::MoveColumnSet_InColumnSetList, COMDAT
; _this$ = ecx

; 459  : {

  00000	55		 push	 ebp
  00001	8b ec		 mov	 ebp, esp
  00003	83 ec 0c	 sub	 esp, 12			; 0000000cH
  00006	53		 push	 ebx
  00007	56		 push	 esi

; 460  : 	if(sourceColumnIndex >= m_ColumnSetList.GetCount())

  00008	8b 75 08	 mov	 esi, DWORD PTR _sourceColumnIndex$[ebp]
  0000b	57		 push	 edi
  0000c	8b f9		 mov	 edi, ecx
  0000e	8b 4f 14	 mov	 ecx, DWORD PTR [edi+20]
  00011	3b f1		 cmp	 esi, ecx
  00013	7c 0b		 jl	 SHORT $LN2@MoveColumn

; 461  : 		return false;

  00015	32 c0		 xor	 al, al

; 472  : }

  00017	5f		 pop	 edi
  00018	5e		 pop	 esi
  00019	5b		 pop	 ebx
  0001a	8b e5		 mov	 esp, ebp
  0001c	5d		 pop	 ebp
  0001d	c2 08 00	 ret	 8
$LN2@MoveColumn:

; 486  : 	return (x1 > x2) ? x1: x2;

  00020	8b 5d 0c	 mov	 ebx, DWORD PTR _targetColumnIndex$[ebp]
  00023	3b f3		 cmp	 esi, ebx
  00025	8b c3		 mov	 eax, ebx
  00027	0f 4f c6	 cmovg	 eax, esi

; 462  : 
; 463  : 	int nMaxIndex = GetMax(sourceColumnIndex, targetColumnIndex);
; 464  : 
; 465  : 	//  ColumnSet 
; 466  : 	if(nMaxIndex > m_ColumnSetList.GetCount())

  0002a	3b c1		 cmp	 eax, ecx
  0002c	7e 0a		 jle	 SHORT $LN3@MoveColumn

; 467  : 		AddColumnSet(nMaxIndex - m_ColumnSetList.GetCount());

  0002e	2b c1		 sub	 eax, ecx
  00030	8b cf		 mov	 ecx, edi
  00032	50		 push	 eax
  00033	e8 00 00 00 00	 call	 ?AddColumnSet@CTree@@AAEXH@Z ; CTree::AddColumnSet
$LN3@MoveColumn:
; File D:\git\src\IBK\IBK_DRFN\ProjSrc\SrcChartEx\ChartAddIn\ChartAnalysisToolAddIn\Include_Chart\DequeList.h

; 264  : 		if(sourceIndex == targetIndex)

  00038	3b f3		 cmp	 esi, ebx
  0003a	0f 84 9a 00 00
	00		 je	 $LN7@MoveColumn

; 198  : 		if(m_deque.empty())

  00040	83 7f 14 00	 cmp	 DWORD PTR [edi+20], 0
  00044	8b 47 10	 mov	 eax, DWORD PTR [edi+16]
  00047	75 09		 jne	 SHORT $LN11@MoveColumn

; 199  : 			return NULL;

  00049	c7 45 08 00 00
	00 00		 mov	 DWORD PTR _pT$1$[ebp], 0
  00050	eb 23		 jmp	 SHORT $LN10@MoveColumn
$LN11@MoveColumn:
; File C:\Program Files (x86)\Microsoft Visual Studio\2019\Community\VC\Tools\MSVC\14.29.30133\include\deque

; 559  :         return (_Off / _Block_size) & (_Mapsize - 1);

  00052	8b 4f 0c	 mov	 ecx, DWORD PTR [edi+12]

; 78   :         _Myoff += _Off;

  00055	8d 14 30	 lea	 edx, DWORD PTR [eax+esi]

; 202  :         _Deque_unchecked_iterator _Tmp = *this;

  00058	89 45 fc	 mov	 DWORD PTR __Tmp$6[ebp+4], eax

; 559  :         return (_Off / _Block_size) & (_Mapsize - 1);

  0005b	49		 dec	 ecx
  0005c	8b c2		 mov	 eax, edx
  0005e	c1 e8 02	 shr	 eax, 2
  00061	23 c8		 and	 ecx, eax

; 48   :         return _Mycont->_Map[_Block][_Off];

  00063	8b 47 08	 mov	 eax, DWORD PTR [edi+8]

; 559  :         return (_Off / _Block_size) & (_Mapsize - 1);

  00066	83 e2 03	 and	 edx, 3

; 48   :         return _Mycont->_Map[_Block][_Off];

  00069	8b 04 88	 mov	 eax, DWORD PTR [eax+ecx*4]
; File D:\git\src\IBK\IBK_DRFN\ProjSrc\SrcChartEx\ChartAddIn\ChartAnalysisToolAddIn\Include_Chart\DequeList.h

; 201  : 		return m_deque[nIndex];

  0006c	8b 04 90	 mov	 eax, DWORD PTR [eax+edx*4]
  0006f	89 45 08	 mov	 DWORD PTR _pT$1$[ebp], eax
  00072	8b 47 10	 mov	 eax, DWORD PTR [edi+16]
$LN10@MoveColumn:
; File C:\Program Files (x86)\Microsoft Visual Studio\2019\Community\VC\Tools\MSVC\14.29.30133\include\xmemory

; 1099 :             _Myproxy = _Parent->_Myproxy;

  00075	8b 57 04	 mov	 edx, DWORD PTR [edi+4]
; File C:\Program Files (x86)\Microsoft Visual Studio\2019\Community\VC\Tools\MSVC\14.29.30133\include\deque

; 319  :         _Myoff += _Off;

  00078	03 f0		 add	 esi, eax

; 1277 :         return erase(_Where, _Next_iter(_Where));

  0007a	83 ec 0c	 sub	 esp, 12			; 0000000cH
  0007d	8b cc		 mov	 ecx, esp
  0007f	83 ec 0c	 sub	 esp, 12			; 0000000cH

; 281  :         ++_Myoff;

  00082	8d 46 01	 lea	 eax, DWORD PTR [esi+1]
  00085	89 41 08	 mov	 DWORD PTR [ecx+8], eax

; 1277 :         return erase(_Where, _Next_iter(_Where));

  00088	8b c4		 mov	 eax, esp
; File C:\Program Files (x86)\Microsoft Visual Studio\2019\Community\VC\Tools\MSVC\14.29.30133\include\xmemory

; 1113 :     mutable _Iterator_base12* _Mynextiter = nullptr;

  0008a	c7 41 04 00 00
	00 00		 mov	 DWORD PTR [ecx+4], 0

; 1069 :         _Myproxy = _Right._Myproxy;

  00091	89 11		 mov	 DWORD PTR [ecx], edx
; File C:\Program Files (x86)\Microsoft Visual Studio\2019\Community\VC\Tools\MSVC\14.29.30133\include\deque

; 1277 :         return erase(_Where, _Next_iter(_Where));

  00093	8d 4f 04	 lea	 ecx, DWORD PTR [edi+4]
; File C:\Program Files (x86)\Microsoft Visual Studio\2019\Community\VC\Tools\MSVC\14.29.30133\include\xmemory

; 1113 :     mutable _Iterator_base12* _Mynextiter = nullptr;

  00096	c7 40 04 00 00
	00 00		 mov	 DWORD PTR [eax+4], 0

; 1069 :         _Myproxy = _Right._Myproxy;

  0009d	89 10		 mov	 DWORD PTR [eax], edx
  0009f	89 70 08	 mov	 DWORD PTR [eax+8], esi
; File C:\Program Files (x86)\Microsoft Visual Studio\2019\Community\VC\Tools\MSVC\14.29.30133\include\deque

; 1277 :         return erase(_Where, _Next_iter(_Where));

  000a2	8d 45 f4	 lea	 eax, DWORD PTR $T5[ebp]
  000a5	50		 push	 eax
  000a6	e8 00 00 00 00	 call	 ?erase@?$deque@PAVCColumnSet@@V?$allocator@PAVCColumnSet@@@std@@@std@@QAE?AV?$_Deque_iterator@V?$_Deque_val@U?$_Deque_simple_types@PAVCColumnSet@@@std@@@std@@@2@V?$_Deque_const_iterator@V?$_Deque_val@U?$_Deque_simple_types@PAVCColumnSet@@@std@@@std@@@2@0@Z ; std::deque<CColumnSet *,std::allocator<CColumnSet *> >::erase
; File D:\git\src\IBK\IBK_DRFN\ProjSrc\SrcChartEx\ChartAddIn\ChartAnalysisToolAddIn\Include_Chart\DequeList.h

; 273  : 		InsertItem(targetIndex, pT);

  000ab	8b 45 08	 mov	 eax, DWORD PTR _pT$1$[ebp]

; 239  : 		m_deque.insert(i, pItem);

  000ae	8d 4f 04	 lea	 ecx, DWORD PTR [edi+4]
; File C:\Program Files (x86)\Microsoft Visual Studio\2019\Community\VC\Tools\MSVC\14.29.30133\include\deque

; 319  :         _Myoff += _Off;

  000b1	8b 77 10	 mov	 esi, DWORD PTR [edi+16]
; File C:\Program Files (x86)\Microsoft Visual Studio\2019\Community\VC\Tools\MSVC\14.29.30133\include\xmemory

; 1099 :             _Myproxy = _Parent->_Myproxy;

  000b4	8b 57 04	 mov	 edx, DWORD PTR [edi+4]
; File C:\Program Files (x86)\Microsoft Visual Studio\2019\Community\VC\Tools\MSVC\14.29.30133\include\deque

; 319  :         _Myoff += _Off;

  000b7	03 f3		 add	 esi, ebx
; File D:\git\src\IBK\IBK_DRFN\ProjSrc\SrcChartEx\ChartAddIn\ChartAnalysisToolAddIn\Include_Chart\DequeList.h

; 273  : 		InsertItem(targetIndex, pT);

  000b9	89 45 08	 mov	 DWORD PTR _pItem$[ebp], eax

; 239  : 		m_deque.insert(i, pItem);

  000bc	8d 45 08	 lea	 eax, DWORD PTR _pItem$[ebp]
  000bf	50		 push	 eax
  000c0	83 ec 0c	 sub	 esp, 12			; 0000000cH
  000c3	8b c4		 mov	 eax, esp
; File C:\Program Files (x86)\Microsoft Visual Studio\2019\Community\VC\Tools\MSVC\14.29.30133\include\xmemory

; 1113 :     mutable _Iterator_base12* _Mynextiter = nullptr;

  000c5	c7 40 04 00 00
	00 00		 mov	 DWORD PTR [eax+4], 0

; 1069 :         _Myproxy = _Right._Myproxy;

