; Listing generated by Microsoft (R) Optimizing Compiler Version 19.29.30145.0 

	TITLE	D:\git\src\IBK\IBK_DRFN\#DRfn-CS\_Obj\AnalysisTool\ElementTreeBuilder.obj
	.686P
	.XMM
	include listing.inc
	.model	flat

INCLUDELIB MSVCRT
INCLUDELIB OLDNAMES

PUBLIC	?__empty_global_delete@@YAXPAX@Z		; __empty_global_delete
PUBLIC	?__empty_global_delete@@YAXPAXI@Z		; __empty_global_delete
PUBLIC	?AtlThrowImpl@ATL@@YGXJ@Z			; ATL::AtlThrowImpl
PUBLIC	??HATL@@YA?AV?$CStringT@DV?$StrTraitMFC_DLL@DV?$ChTraitsCRT@D@ATL@@@@@0@ABV10@0@Z ; ATL::operator+
PUBLIC	??0exception@std@@QAE@ABV01@@Z			; std::exception::exception
PUBLIC	??1exception@std@@UAE@XZ			; std::exception::~exception
PUBLIC	?what@exception@std@@UBEPBDXZ			; std::exception::what
PUBLIC	??_Gexception@std@@UAEPAXI@Z			; std::exception::`scalar deleting destructor'
PUBLIC	??0bad_alloc@std@@QAE@ABV01@@Z			; std::bad_alloc::bad_alloc
PUBLIC	??_Gbad_alloc@std@@UAEPAXI@Z			; std::bad_alloc::`scalar deleting destructor'
PUBLIC	??0bad_array_new_length@std@@QAE@XZ		; std::bad_array_new_length::bad_array_new_length
PUBLIC	??1bad_array_new_length@std@@UAE@XZ		; std::bad_array_new_length::~bad_array_new_length
PUBLIC	??0bad_array_new_length@std@@QAE@ABV01@@Z	; std::bad_array_new_length::bad_array_new_length
PUBLIC	??_Gbad_array_new_length@std@@UAEPAXI@Z		; std::bad_array_new_length::`scalar deleting destructor'
PUBLIC	?_Throw_bad_array_new_length@std@@YAXXZ		; std::_Throw_bad_array_new_length
PUBLIC	??0CElementAndOrder@@QAE@HPAVCElement@@@Z	; CElementAndOrder::CElementAndOrder
PUBLIC	??4CElementAndOrder@@QAEAAV0@ABV0@@Z		; CElementAndOrder::operator=
PUBLIC	?GetIndex@CElementAndOrder@@QBEHXZ		; CElementAndOrder::GetIndex
PUBLIC	?GetElement@CElementAndOrder@@QBEPAVCElement@@XZ ; CElementAndOrder::GetElement
PUBLIC	?AddTail@CElementAndOrderSet@@QAEXABVCElementAndOrder@@@Z ; CElementAndOrderSet::AddTail
PUBLIC	?GetCount@CElementAndOrderSet@@QBEHXZ		; CElementAndOrderSet::GetCount
PUBLIC	?GetMaxIndex@CElementAndOrderSet@@QBEHXZ	; CElementAndOrderSet::GetMaxIndex
PUBLIC	?GetData@CElementAndOrderSet@@QBE?AVCElementAndOrder@@H@Z ; CElementAndOrderSet::GetData
PUBLIC	?GetElement@CElementAndOrderSet@@QBEPAVCElement@@H@Z ; CElementAndOrderSet::GetElement
PUBLIC	?_Xlen@?$deque@VCElementAndOrder@@V?$allocator@VCElementAndOrder@@@std@@@std@@ABEXXZ ; std::deque<CElementAndOrder,std::allocator<CElementAndOrder> >::_Xlen
PUBLIC	?_Growmap@?$deque@VCElementAndOrder@@V?$allocator@VCElementAndOrder@@@std@@@std@@AAEXI@Z ; std::deque<CElementAndOrder,std::allocator<CElementAndOrder> >::_Growmap
PUBLIC	?_Tidy@?$deque@VCElementAndOrder@@V?$allocator@VCElementAndOrder@@@std@@@std@@AAEXXZ ; std::deque<CElementAndOrder,std::allocator<CElementAndOrder> >::_Tidy
PUBLIC	??1CElementAndOrderSet@@QAE@XZ			; CElementAndOrderSet::~CElementAndOrderSet
PUBLIC	?BuildElementsFromString@CElementTreeBuilder@@QAE_NAAVCAnalysisData@@ABV?$CStringT@DV?$StrTraitMFC_DLL@DV?$ChTraitsCRT@D@ATL@@@@@ATL@@AAVCTree@@AAVCOrder@@@Z ; CElementTreeBuilder::BuildElementsFromString
PUBLIC	?BuildElementsFromString_ForUndoRedo@CElementTreeBuilder@@QAEJAAVCAnalysisData@@ABVCBlockIndex@@ABV?$CStringT@DV?$StrTraitMFC_DLL@DV?$ChTraitsCRT@D@ATL@@@@@ATL@@AAVCTree@@AAVCOrder@@@Z ; CElementTreeBuilder::BuildElementsFromString_ForUndoRedo
PUBLIC	?BuildElementsFromString@CElementTreeBuilder@@AAE_NAAVCAnalysisData@@ABV?$CStringT@DV?$StrTraitMFC_DLL@DV?$ChTraitsCRT@D@ATL@@@@@ATL@@AAVCTree@@AAVCElementAndOrderSet@@@Z ; CElementTreeBuilder::BuildElementsFromString
PUBLIC	?BuildElementsFromString_Column@CElementTreeBuilder@@AAEXAAVCAnalysisData@@HABV?$CStringT@DV?$StrTraitMFC_DLL@DV?$ChTraitsCRT@D@ATL@@@@@ATL@@AAVCTree@@AAVCElementAndOrderSet@@@Z ; CElementTreeBuilder::BuildElementsFromString_Column
PUBLIC	?BuildElementsFromString_Row@CElementTreeBuilder@@AAEXAAVCAnalysisData@@ABVCBlockIndex@@ABV?$CStringT@DV?$StrTraitMFC_DLL@DV?$ChTraitsCRT@D@ATL@@@@@ATL@@AAVCTree@@AAVCElementAndOrderSet@@@Z ; CElementTreeBuilder::BuildElementsFromString_Row
PUBLIC	?BuildElementsFromString_Element@CElementTreeBuilder@@AAEXAAVCAnalysisData@@ABVCBlockIndex@@ABV?$CStringT@DV?$StrTraitMFC_DLL@DV?$ChTraitsCRT@D@ATL@@@@@ATL@@AAVCTree@@AAVCElementAndOrderSet@@@Z ; CElementTreeBuilder::BuildElementsFromString_Element
PUBLIC	?BuildElementsFromString@CElementTreeBuilder@@AAEXAAVCAnalysisData@@ABVCElementAndOrderSet@@AAVCOrder@@@Z ; CElementTreeBuilder::BuildElementsFromString
PUBLIC	?AddElement@CElementTreeBuilder@@AAEXABVCBlockIndex@@HPAVCElement@@AAVCTree@@AAVCElementAndOrderSet@@@Z ; CElementTreeBuilder::AddElement
PUBLIC	?MakeElement@CElementTreeBuilder@@AAEPAVCElement@@ABV?$CStringT@DV?$StrTraitMFC_DLL@DV?$ChTraitsCRT@D@ATL@@@@@ATL@@ABH@Z ; CElementTreeBuilder::MakeElement
PUBLIC	?MakeElement@CElementTreeBuilder@@AAEPAVCElement@@W4TOOLTYPE@CAnalysis@@ABV?$CDequeList@VCCoordinate@@@@ABV?$CStringT@DV?$StrTraitMFC_DLL@DV?$ChTraitsCRT@D@ATL@@@@@ATL@@ABVCElementCommonEnvironment@@@Z ; CElementTreeBuilder::MakeElement
PUBLIC	?MakeElement@CElementTreeBuilder@@AAEPAVCElement@@W4TOOLTYPE@CAnalysis@@ABV?$CDequeList@VCCoordinate@@@@PBVCTextPosition@@ABVCElementCommonEnvironment@@@Z ; CElementTreeBuilder::MakeElement
PUBLIC	?GetData@CElementTreeBuilder@@ABE?AV?$CStringT@DV?$StrTraitMFC_DLL@DV?$ChTraitsCRT@D@ATL@@@@@ATL@@ABV23@00@Z ; CElementTreeBuilder::GetData
PUBLIC	?GetIndex@CElementTreeBuilder@@ABEHABV?$CStringT@DV?$StrTraitMFC_DLL@DV?$ChTraitsCRT@D@ATL@@@@@ATL@@@Z ; CElementTreeBuilder::GetIndex
PUBLIC	?GetToolType@CElementTreeBuilder@@ABE?AW4TOOLTYPE@CAnalysis@@ABV?$CStringT@DV?$StrTraitMFC_DLL@DV?$ChTraitsCRT@D@ATL@@@@@ATL@@@Z ; CElementTreeBuilder::GetToolType
PUBLIC	?GetPoint@CElementTreeBuilder@@ABEXABV?$CStringT@DV?$StrTraitMFC_DLL@DV?$ChTraitsCRT@D@ATL@@@@@ATL@@ABHAAV?$CDequeList@VCCoordinate@@@@@Z ; CElementTreeBuilder::GetPoint
PUBLIC	?GetPoint@CElementTreeBuilder@@ABE?AVCCoordinate@@ABV?$CStringT@DV?$StrTraitMFC_DLL@DV?$ChTraitsCRT@D@ATL@@@@@ATL@@ABH@Z ; CElementTreeBuilder::GetPoint
PUBLIC	?GetTextShowPosition@CElementTreeBuilder@@ABE_NABV?$CStringT@DV?$StrTraitMFC_DLL@DV?$ChTraitsCRT@D@ATL@@@@@ATL@@AAVCTextShowPosition@@@Z ; CElementTreeBuilder::GetTextShowPosition
PUBLIC	?GetTextHorzPosition@CElementTreeBuilder@@ABE_NABV?$CStringT@DV?$StrTraitMFC_DLL@DV?$ChTraitsCRT@D@ATL@@@@@ATL@@AAVCTextHorzPosition@@@Z ; CElementTreeBuilder::GetTextHorzPosition
PUBLIC	?GetTextVertPosition@CElementTreeBuilder@@ABE_NABV?$CStringT@DV?$StrTraitMFC_DLL@DV?$ChTraitsCRT@D@ATL@@@@@ATL@@AAVCTextVertPosition@@@Z ; CElementTreeBuilder::GetTextVertPosition
PUBLIC	?GetTextHorzVertPosition@CElementTreeBuilder@@ABE_NABV?$CStringT@DV?$StrTraitMFC_DLL@DV?$ChTraitsCRT@D@ATL@@@@@ATL@@AAVCTextHorzVertPosition@@@Z ; CElementTreeBuilder::GetTextHorzVertPosition
PUBLIC	?GetTextEnvironment@CElementTreeBuilder@@ABE?AVCTextEnvironment@@ABV?$CStringT@DV?$StrTraitMFC_DLL@DV?$ChTraitsCRT@D@ATL@@@@@ATL@@@Z ; CElementTreeBuilder::GetTextEnvironment
PUBLIC	?GetEnvironment@CElementTreeBuilder@@ABE?AVCElementCommonEnvironment@@ABV?$CStringT@DV?$StrTraitMFC_DLL@DV?$ChTraitsCRT@D@ATL@@@@@ATL@@@Z ; CElementTreeBuilder::GetEnvironment
PUBLIC	?GetAutoPrice@CElementTreeBuilder@@ABE_NABV?$CStringT@DV?$StrTraitMFC_DLL@DV?$ChTraitsCRT@D@ATL@@@@@ATL@@@Z ; CElementTreeBuilder::GetAutoPrice
PUBLIC	?GetEquiDivEnvironment@CElementTreeBuilder@@ABEHABV?$CStringT@DV?$StrTraitMFC_DLL@DV?$ChTraitsCRT@D@ATL@@@@@ATL@@@Z ; CElementTreeBuilder::GetEquiDivEnvironment
PUBLIC	?GetPriceRangeDivEnvironment@CElementTreeBuilder@@ABEHABV?$CStringT@DV?$StrTraitMFC_DLL@DV?$ChTraitsCRT@D@ATL@@@@@ATL@@@Z ; CElementTreeBuilder::GetPriceRangeDivEnvironment
PUBLIC	?GetLineExtEnvironment@CElementTreeBuilder@@ABE?AVCLineExtEnvironment@@ABV?$CStringT@DV?$StrTraitMFC_DLL@DV?$ChTraitsCRT@D@ATL@@@@@ATL@@@Z ; CElementTreeBuilder::GetLineExtEnvironment
PUBLIC	?GetLeftLineExt@CElementTreeBuilder@@ABEHABV?$CStringT@DV?$StrTraitMFC_DLL@DV?$ChTraitsCRT@D@ATL@@@@@ATL@@@Z ; CElementTreeBuilder::GetLeftLineExt
PUBLIC	?GetRightLineExt@CElementTreeBuilder@@ABEHABV?$CStringT@DV?$StrTraitMFC_DLL@DV?$ChTraitsCRT@D@ATL@@@@@ATL@@@Z ; CElementTreeBuilder::GetRightLineExt
PUBLIC	?GetPenEnvironment@CElementTreeBuilder@@ABE?AVCPenEnvironment@@ABV?$CStringT@DV?$StrTraitMFC_DLL@DV?$ChTraitsCRT@D@ATL@@@@@ATL@@@Z ; CElementTreeBuilder::GetPenEnvironment
PUBLIC	?GetColor@CElementTreeBuilder@@ABEKABV?$CStringT@DV?$StrTraitMFC_DLL@DV?$ChTraitsCRT@D@ATL@@@@@ATL@@@Z ; CElementTreeBuilder::GetColor
PUBLIC	?GetWidth@CElementTreeBuilder@@ABEHABV?$CStringT@DV?$StrTraitMFC_DLL@DV?$ChTraitsCRT@D@ATL@@@@@ATL@@@Z ; CElementTreeBuilder::GetWidth
PUBLIC	?GetStyle@CElementTreeBuilder@@ABE?AW4PenStyle@CToolEnumData@@ABV?$CStringT@DV?$StrTraitMFC_DLL@DV?$ChTraitsCRT@D@ATL@@@@@ATL@@@Z ; CElementTreeBuilder::GetStyle
PUBLIC	?GetDataTypeEnvironment@CElementTreeBuilder@@ABE?AVCDataTypeEnvironment@@ABV?$CStringT@DV?$StrTraitMFC_DLL@DV?$ChTraitsCRT@D@ATL@@@@@ATL@@@Z ; CElementTreeBuilder::GetDataTypeEnvironment
PUBLIC	?GetCoordinateType@CElementTreeBuilder@@ABE?AW4COORDINATETYPE@CAnalysis@@ABV?$CStringT@DV?$StrTraitMFC_DLL@DV?$ChTraitsCRT@D@ATL@@@@@ATL@@@Z ; CElementTreeBuilder::GetCoordinateType
PUBLIC	?GetVertDataType@CElementTreeBuilder@@ABENABV?$CStringT@DV?$StrTraitMFC_DLL@DV?$ChTraitsCRT@D@ATL@@@@@ATL@@@Z ; CElementTreeBuilder::GetVertDataType
PUBLIC	?GetTrimData@CElementTreeBuilder@@ABE?AV?$CStringT@DV?$StrTraitMFC_DLL@DV?$ChTraitsCRT@D@ATL@@@@@ATL@@AAV23@ABV23@@Z ; CElementTreeBuilder::GetTrimData
PUBLIC	??1CDataTypeEnvironment@@QAE@XZ			; CDataTypeEnvironment::~CDataTypeEnvironment
PUBLIC	??1CElementCommonEnvironment@@QAE@XZ		; CElementCommonEnvironment::~CElementCommonEnvironment
PUBLIC	??1CCoordinate@@QAE@XZ				; CCoordinate::~CCoordinate
PUBLIC	??1?$CDequeList@VCCoordinate@@@@QAE@XZ		; CDequeList<CCoordinate>::~CDequeList<CCoordinate>
PUBLIC	?_Xlen@?$deque@VCCoordinate@@V?$allocator@VCCoordinate@@@std@@@std@@ABEXXZ ; std::deque<CCoordinate,std::allocator<CCoordinate> >::_Xlen
PUBLIC	?_Growmap@?$deque@VCCoordinate@@V?$allocator@VCCoordinate@@@std@@@std@@AAEXI@Z ; std::deque<CCoordinate,std::allocator<CCoordinate> >::_Growmap
PUBLIC	?_Tidy@?$deque@VCCoordinate@@V?$allocator@VCCoordinate@@@std@@@std@@AAEXXZ ; std::deque<CCoordinate,std::allocator<CCoordinate> >::_Tidy
PUBLIC	??$uninitialized_copy@PAPAVCCoordinate@@PAPAV1@@std@@YAPAPAVCCoordinate@@QAPAV1@0PAPAV1@@Z ; std::uninitialized_copy<CCoordinate * *,CCoordinate * *>
PUBLIC	??$_Uninitialized_value_construct_n_unchecked1@PAPAVCCoordinate@@I@std@@YAPAPAVCCoordinate@@PAPAV1@I@Z ; std::_Uninitialized_value_construct_n_unchecked1<CCoordinate * *,unsigned int>
PUBLIC	??$uninitialized_copy@PAPAVCElementAndOrder@@PAPAV1@@std@@YAPAPAVCElementAndOrder@@QAPAV1@0PAPAV1@@Z ; std::uninitialized_copy<CElementAndOrder * *,CElementAndOrder * *>
PUBLIC	??$_Uninitialized_value_construct_n_unchecked1@PAPAVCElementAndOrder@@I@std@@YAPAPAVCElementAndOrder@@PAPAV1@I@Z ; std::_Uninitialized_value_construct_n_unchecked1<CElementAndOrder * *,unsigned int>
PUBLIC	??$_Allocate_manually_vector_aligned@U_Default_allocate_traits@std@@@std@@YAPAXI@Z ; std::_Allocate_manually_vector_aligned<std::_Default_allocate_traits>
PUBLIC	??$_Zero_range@PAPAVCCoordinate@@@std@@YAPAPAVCCoordinate@@QAPAV1@0@Z ; std::_Zero_range<CCoordinate * *>
PUBLIC	??$_Zero_range@PAPAVCElementAndOrder@@@std@@YAPAPAVCElementAndOrder@@QAPAV1@0@Z ; std::_Zero_range<CElementAndOrder * *>
PUBLIC	??$_Copy_memmove@PAPAVCCoordinate@@PAPAV1@@std@@YAPAPAVCCoordinate@@PAPAV1@00@Z ; std::_Copy_memmove<CCoordinate * *,CCoordinate * *>
PUBLIC	??$_Copy_memmove@PAPAVCElementAndOrder@@PAPAV1@@std@@YAPAPAVCElementAndOrder@@PAPAV1@00@Z ; std::_Copy_memmove<CElementAndOrder * *,CElementAndOrder * *>
PUBLIC	??_C@_00CNPNBAHC@@				; `string'
PUBLIC	??_7exception@std@@6B@				; std::exception::`vftable'
PUBLIC	??_C@_0BC@EOODALEL@Unknown?5exception@		; `string'
PUBLIC	??_7bad_alloc@std@@6B@				; std::bad_alloc::`vftable'
PUBLIC	??_7bad_array_new_length@std@@6B@		; std::bad_array_new_length::`vftable'
PUBLIC	??_C@_0BF@KINCDENJ@bad?5array?5new?5length@	; `string'
PUBLIC	__TI3?AVbad_array_new_length@std@@
PUBLIC	__CTA3?AVbad_array_new_length@std@@
PUBLIC	??_R0?AVbad_array_new_length@std@@@8		; std::bad_array_new_length `RTTI Type Descriptor'
PUBLIC	__CT??_R0?AVbad_array_new_length@std@@@8??0bad_array_new_length@std@@QAE@ABV01@@Z12
PUBLIC	??_R0?AVbad_alloc@std@@@8			; std::bad_alloc `RTTI Type Descriptor'
PUBLIC	__CT??_R0?AVbad_alloc@std@@@8??0bad_alloc@std@@QAE@ABV01@@Z12
PUBLIC	??_R0?AVexception@std@@@8			; std::exception `RTTI Type Descriptor'
PUBLIC	__CT??_R0?AVexception@std@@@8??0exception@std@@QAE@ABV01@@Z12
PUBLIC	??_C@_0N@GAAGGFNK@?$DM?2Element?$DO?$AN?6@	; `string'
PUBLIC	??_C@_0M@KBDGNNOL@?$DMElement?$DO?$AN?6@	; `string'
PUBLIC	??_C@_0L@JOAAOIF@?$DMColumn?$DO?$AN?6@		; `string'
PUBLIC	??_C@_0M@FIEFJELL@?$DM?2Column?$DO?$AN?6@	; `string'
PUBLIC	??_C@_07KMGGOLCB@?$DMRow?$DO?$AN?6@		; `string'
PUBLIC	??_C@_08DHKDLDJL@?$DM?2Row?$DO?$AN?6@		; `string'
PUBLIC	??_C@_0BF@PDAEDAMM@?$DM?2PartEnvironment?$DO?$AN?6@ ; `string'
PUBLIC	??_C@_0BE@HJPGKECO@?$DMPartEnvironment?$DO?$AN?6@ ; `string'
PUBLIC	??_C@_0L@KONBFPIB@?$DM?2Index?$DO?$AN?6@	; `string'
PUBLIC	??_C@_07NALPMMAN@?$DMIndex?$DO@			; `string'
PUBLIC	??_C@_0O@EKBCJKJI@?$DM?2ToolType?$DO?$AN?6@	; `string'
PUBLIC	??_C@_0L@MHMLBBHM@?$DMToolType?$DO@		; `string'
PUBLIC	??_C@_0M@FEMGIGA@?$DM?2Points?$DO?$AN?6@	; `string'
PUBLIC	??_C@_0L@FEOJPCFO@?$DMPoints?$DO?$AN?6@		; `string'
PUBLIC	??_C@_0L@KMPINHDH@?$DM?2Point?$DO?$AN?6@	; `string'
PUBLIC	??_C@_07MPCOHMGB@?$DMPoint?$DO@			; `string'
PUBLIC	??_C@_01IHBHIGKO@?0@				; `string'
PUBLIC	??_C@_0P@IMPIBBAB@YYYYMMDDHHMMSS@		; `string'
PUBLIC	??_C@_02FFEBEEPL@?$CFY@				; `string'
PUBLIC	??_C@_02OOGLLHAM@?$CFm@				; `string'
PUBLIC	??_C@_04GICMHJFP@?$CFY?$CFm@			; `string'
PUBLIC	??_C@_06CLONMKIH@?$CFY?$CFm?$CFd@		; `string'
PUBLIC	??_C@_0N@BNMNAMM@?$CFY?$CFm?$CFd?$CFH?$CFM?$CFS@ ; `string'
PUBLIC	??_C@_08DKDJLCMP@YYYYMMDD@			; `string'
PUBLIC	??_C@_06GEKNBBDK@000000@			; `string'
PUBLIC	??_C@_06EBMMBHJD@YYYYMM@			; `string'
PUBLIC	??_C@_08HIJOEJNL@01000000@			; `string'
PUBLIC	??_C@_08KLIIINKM@MMDDHHMM@			; `string'
PUBLIC	??_C@_04OGKJMPGK@?$CF02d@			; `string'
PUBLIC	??_C@_04OCCELDNI@?$CF04d@			; `string'
PUBLIC	??_C@_02PLJDPFIO@00@				; `string'
PUBLIC	??_C@_08JFMBEEDE@DDHHMMSS@			; `string'
PUBLIC	??_C@_08CHLAEBHP@?$CF02d?$CF02d@		; `string'
PUBLIC	??_C@_09GKBBACOG@?$DM?2Horz?$DO?$AN?6@		; `string'
PUBLIC	??_C@_08EBDOJNCM@?$DMHorz?$DO?$AN?6@		; `string'
PUBLIC	??_C@_09MJLPMEOB@?$DM?2Show?$DO?$AN?6@		; `string'
PUBLIC	??_C@_06FNDGCLIP@?$DMShow?$DO@			; `string'
PUBLIC	??_C@_09GNFMKNLO@?$DM?2Left?$DO?$AN?6@		; `string'
PUBLIC	??_C@_06CIGIKOKD@?$DMLeft?$DO@			; `string'
PUBLIC	??_C@_0L@MCAHGOHG@?$DM?2Right?$DO?$AN?6@	; `string'
PUBLIC	??_C@_07BELDGPOI@?$DMRight?$DO@			; `string'
PUBLIC	??_C@_09ODLMLHBG@?$DM?2Rate?$DO?$AN?6@		; `string'
PUBLIC	??_C@_06DMADNNL@?$DMRate?$DO@			; `string'
PUBLIC	??_C@_09BIGAMANA@?$DM?2Vert?$DO?$AN?6@		; `string'
PUBLIC	??_C@_08DDEPFPBK@?$DMVert?$DO?$AN?6@		; `string'
PUBLIC	??_C@_08OGFDFKLB@?$DM?2Top?$DO?$AN?6@		; `string'
PUBLIC	??_C@_05IGGHGEPJ@?$DMTop?$DO@			; `string'
PUBLIC	??_C@_0M@LEMGAFHE@?$DM?2Bottom?$DO?$AN?6@	; `string'
PUBLIC	??_C@_08DJNLIMII@?$DMBottom?$DO@		; `string'
PUBLIC	??_C@_0O@LMJJOFLI@?$DM?2HorzVert?$DO?$AN?6@	; `string'
PUBLIC	??_C@_0N@ONIGNFDK@?$DMHorzVert?$DO?$AN?6@	; `string'
PUBLIC	??_C@_0BF@CDOIDFHB@?$DM?2TextEnvironment?$DO?$AN?6@ ; `string'
PUBLIC	??_C@_0BE@KJBKKBJD@?$DMTextEnvironment?$DO?$AN?6@ ; `string'
PUBLIC	??_C@_0BH@HNKNDMBN@?$DM?2CommonEnvironment?$DO?$AN?6@ ; `string'
PUBLIC	??_C@_0BG@OGIHHANM@?$DMCommonEnvironment?$DO?$AN?6@ ; `string'
PUBLIC	??_C@_0P@OFBFCELN@?$DM?2AutoPirce?$DO?$AN?6@	; `string'
PUBLIC	??_C@_0M@JPFNKEPJ@?$DMAutoPirce?$DO@		; `string'
PUBLIC	??_C@_0N@JENDHCPJ@?$DM?2EquiDiv?$DO?$AN?6@	; `string'
PUBLIC	??_C@_09PBAKMKPI@?$DMEquiDiv?$DO@		; `string'
PUBLIC	??_C@_0BD@JIABNAJN@?$DM?2PriceRangeDiv?$DO?$AN?6@ ; `string'
PUBLIC	??_C@_0BA@OIJLDBGJ@?$DMPriceRangeDiv?$DO@	; `string'
PUBLIC	??_C@_0N@LGOAMNGJ@?$DM?2LineExt?$DO?$AN?6@	; `string'
PUBLIC	??_C@_0M@HHNAHFFI@?$DMLineExt?$DO?$AN?6@	; `string'
PUBLIC	??_C@_0N@KHBFLOEK@?$DM?2LeftExt?$DO?$AN?6@	; `string'
PUBLIC	??_C@_09JKGHBJEA@?$DMLeftExt?$DO@		; `string'
PUBLIC	??_C@_0O@CEMHHFOM@?$DM?2RightExt?$DO?$AN?6@	; `string'
PUBLIC	??_C@_0L@CFEIJGAO@?$DMRightExt?$DO@		; `string'
PUBLIC	??_C@_08GMFHHECH@?$DM?2Pen?$DO?$AN?6@		; `string'
PUBLIC	??_C@_07PHJCCMJN@?$DMPen?$DO?$AN?6@		; `string'
PUBLIC	??_C@_0L@CPJBKACB@?$DM?2Color?$DO?$AN?6@	; `string'
PUBLIC	??_C@_07ONMJGOJF@?$DMColor?$DO@			; `string'
PUBLIC	??_C@_0L@GIHMIJMH@?$DM?2Width?$DO?$AN?6@	; `string'
PUBLIC	??_C@_07ONIIIKM@?$DMWidth?$DO@			; `string'
PUBLIC	??_C@_0L@MDDCEFHI@?$DM?2Style?$DO?$AN?6@	; `string'
PUBLIC	??_C@_07EANKACOK@?$DMStyle?$DO@			; `string'
PUBLIC	??_C@_0O@DKHNMBCK@?$DM?2DataType?$DO?$AN?6@	; `string'
PUBLIC	??_C@_0N@GLGCPBKI@?$DMDataType?$DO?$AN?6@	; `string'
PUBLIC	??_C@_06CMKMBJNG@?$DMHorz?$DO@			; `string'
PUBLIC	??_C@_0N@ONMDHGBL@?$DM?2ExtData?$DO?$AN?6@	; `string'
PUBLIC	??_C@_09EBDLFGEM@?$DMExtData?$DO@		; `string'
PUBLIC	??_C@_0N@HGCOAIDN@?$DM?2StrVert?$DO?$AN?6@	; `string'
PUBLIC	??_C@_09COIGHGNF@?$DMStrVert?$DO@		; `string'
PUBLIC	??_C@_0BA@IFAPIPNB@?$DM?2Coordinate?$DO?$AN?6@	; `string'
PUBLIC	??_C@_0N@CAIHOMCE@?$DMCoordinate?$DO@		; `string'
PUBLIC	??_C@_06FFFOEPJG@?$DMVert?$DO@			; `string'
PUBLIC	??_C@_0BC@KBDMBKEH@deque?$DMT?$DO?5too?5long@	; `string'
PUBLIC	??_R4exception@std@@6B@				; std::exception::`RTTI Complete Object Locator'
PUBLIC	??_R3exception@std@@8				; std::exception::`RTTI Class Hierarchy Descriptor'
PUBLIC	??_R2exception@std@@8				; std::exception::`RTTI Base Class Array'
PUBLIC	??_R1A@?0A@EA@exception@std@@8			; std::exception::`RTTI Base Class Descriptor at (0,-1,0,64)'
PUBLIC	??_R4bad_alloc@std@@6B@				; std::bad_alloc::`RTTI Complete Object Locator'
PUBLIC	??_R3bad_alloc@std@@8				; std::bad_alloc::`RTTI Class Hierarchy Descriptor'
PUBLIC	??_R2bad_alloc@std@@8				; std::bad_alloc::`RTTI Base Class Array'
PUBLIC	??_R1A@?0A@EA@bad_alloc@std@@8			; std::bad_alloc::`RTTI Base Class Descriptor at (0,-1,0,64)'
PUBLIC	??_R4bad_array_new_length@std@@6B@		; std::bad_array_new_length::`RTTI Complete Object Locator'
PUBLIC	??_R3bad_array_new_length@std@@8		; std::bad_array_new_length::`RTTI Class Hierarchy Descriptor'
PUBLIC	??_R2bad_array_new_length@std@@8		; std::bad_array_new_length::`RTTI Base Class Array'
PUBLIC	??_R1A@?0A@EA@bad_array_new_length@std@@8	; std::bad_array_new_length::`RTTI Base Class Descriptor at (0,-1,0,64)'
EXTRN	??2@YAPAXI@Z:PROC				; operator new
EXTRN	??3@YAXPAXI@Z:PROC				; operator delete
EXTRN	__imp___invalid_parameter_noinfo_noreturn:PROC
EXTRN	__imp__atof:PROC
EXTRN	__imp__atoi:PROC
EXTRN	__imp___atoi64:PROC
EXTRN	__imp___localtime64_s:PROC
EXTRN	__imp__strftime:PROC
EXTRN	__imp___time64:PROC
EXTRN	?AfxThrowMemoryException@@YGXXZ:PROC		; AfxThrowMemoryException
EXTRN	?AfxThrowOleException@@YGXJ@Z:PROC		; AfxThrowOleException
EXTRN	__imp_?Concatenate@?$CSimpleStringT@D$00@ATL@@KAXAAV12@PBDH1H@Z:PROC
EXTRN	__imp_??0?$CStringT@DV?$StrTraitMFC_DLL@DV?$ChTraitsCRT@D@ATL@@@@@ATL@@QAE@XZ:PROC
EXTRN	__imp_??0?$CStringT@DV?$StrTraitMFC_DLL@DV?$ChTraitsCRT@D@ATL@@@@@ATL@@QAE@PAUIAtlStringMgr@1@@Z:PROC
EXTRN	__imp_??0?$CStringT@DV?$StrTraitMFC_DLL@DV?$ChTraitsCRT@D@ATL@@@@@ATL@@QAE@ABV01@@Z:PROC
EXTRN	__imp_??0?$CStringT@DV?$StrTraitMFC_DLL@DV?$ChTraitsCRT@D@ATL@@@@@ATL@@QAE@PBD@Z:PROC
EXTRN	__imp_??1?$CStringT@DV?$StrTraitMFC_DLL@DV?$ChTraitsCRT@D@ATL@@@@@ATL@@QAE@XZ:PROC
EXTRN	__imp_??4?$CStringT@DV?$StrTraitMFC_DLL@DV?$ChTraitsCRT@D@ATL@@@@@ATL@@QAEAAV01@ABV01@@Z:PROC
EXTRN	__imp_??4?$CStringT@DV?$StrTraitMFC_DLL@DV?$ChTraitsCRT@D@ATL@@@@@ATL@@QAEAAV01@PBD@Z:PROC
EXTRN	__imp_?GetManager@?$CStringT@DV?$StrTraitMFC_DLL@DV?$ChTraitsCRT@D@ATL@@@@@ATL@@QBEPAUIAtlStringMgr@2@XZ:PROC
EXTRN	__imp_?Compare@?$CStringT@DV?$StrTraitMFC_DLL@DV?$ChTraitsCRT@D@ATL@@@@@ATL@@QBEHPBD@Z:PROC
EXTRN	__imp_?Mid@?$CStringT@DV?$StrTraitMFC_DLL@DV?$ChTraitsCRT@D@ATL@@@@@ATL@@QBE?AV12@HH@Z:PROC
EXTRN	__imp_?Right@?$CStringT@DV?$StrTraitMFC_DLL@DV?$ChTraitsCRT@D@ATL@@@@@ATL@@QBE?AV12@H@Z:PROC
EXTRN	__imp_?Left@?$CStringT@DV?$StrTraitMFC_DLL@DV?$ChTraitsCRT@D@ATL@@@@@ATL@@QBE?AV12@H@Z:PROC
EXTRN	__imp_?Format@?$CStringT@DV?$StrTraitMFC_DLL@DV?$ChTraitsCRT@D@ATL@@@@@ATL@@QAAXPBDZZ:PROC
EXTRN	___std_exception_copy:PROC
EXTRN	___std_exception_destroy:PROC
EXTRN	??_Eexception@std@@UAEPAXI@Z:PROC		; std::exception::`vector deleting destructor'
EXTRN	??_Ebad_alloc@std@@UAEPAXI@Z:PROC		; std::bad_alloc::`vector deleting destructor'
EXTRN	??_Ebad_array_new_length@std@@UAEPAXI@Z:PROC	; std::bad_array_new_length::`vector deleting destructor'
EXTRN	?_Xlength_error@std@@YAXPBD@Z:PROC		; std::_Xlength_error
EXTRN	??0CPenEnvironment@@QAE@ABKHW4PenStyle@CToolEnumData@@@Z:PROC ; CPenEnvironment::CPenEnvironment
EXTRN	??0CDataTypeEnvironment@@QAE@W4COORDINATETYPE@CAnalysis@@ABNABV?$CStringT@DV?$StrTraitMFC_DLL@DV?$ChTraitsCRT@D@ATL@@@@@ATL@@22PAUHWND__@@W4CHART_MODE@CChartInfo@@@Z:PROC ; CDataTypeEnvironment::CDataTypeEnvironment
EXTRN	??0CLineExtEnvironment@@QAE@ABH0@Z:PROC		; CLineExtEnvironment::CLineExtEnvironment
EXTRN	??0CElementCommonEnvironment@@QAE@_NABH1ABVCPenEnvironment@@ABVCDataTypeEnvironment@@ABVCLineExtEnvironment@@@Z:PROC ; CElementCommonEnvironment::CElementCommonEnvironment
EXTRN	??0CTextEnvironment@@QAE@XZ:PROC		; CTextEnvironment::CTextEnvironment
EXTRN	??0CTextEnvironment@@QAE@ABK@Z:PROC		; CTextEnvironment::CTextEnvironment
EXTRN	?SetTextEnvironment@CTextPosition@@QAEXABVCTextEnvironment@@@Z:PROC ; CTextPosition::SetTextEnvironment
EXTRN	??0CTextShowPosition@@QAE@XZ:PROC		; CTextShowPosition::CTextShowPosition
EXTRN	?SetShow@CTextShowPosition@@QAEX_N@Z:PROC	; CTextShowPosition::SetShow
EXTRN	??0CTextHorzPosition@@QAE@XZ:PROC		; CTextHorzPosition::CTextHorzPosition
EXTRN	?SetLeft@CTextHorzPosition@@QAEX_N@Z:PROC	; CTextHorzPosition::SetLeft
EXTRN	?SetRight@CTextHorzPosition@@QAEX_N@Z:PROC	; CTextHorzPosition::SetRight
EXTRN	?SetRightRate@CTextHorzPosition@@QAEX_N@Z:PROC	; CTextHorzPosition::SetRightRate
EXTRN	??0CTextVertPosition@@QAE@XZ:PROC		; CTextVertPosition::CTextVertPosition
EXTRN	?SetTop@CTextVertPosition@@QAEX_N@Z:PROC	; CTextVertPosition::SetTop
EXTRN	?SetBottom@CTextVertPosition@@QAEX_N@Z:PROC	; CTextVertPosition::SetBottom
EXTRN	??0CTextHorzVertPosition@@QAE@XZ:PROC		; CTextHorzVertPosition::CTextHorzVertPosition
EXTRN	?SetLeft@CTextHorzVertPosition@@QAEX_N@Z:PROC	; CTextHorzVertPosition::SetLeft
EXTRN	?SetRight@CTextHorzVertPosition@@QAEX_N@Z:PROC	; CTextHorzVertPosition::SetRight
EXTRN	?SetTop@CTextHorzVertPosition@@QAEX_N@Z:PROC	; CTextHorzVertPosition::SetTop
EXTRN	?SetBottom@CTextHorzVertPosition@@QAEX_N@Z:PROC	; CTextHorzVertPosition::SetBottom
EXTRN	??0CCoordinate@@QAE@ABN0HABV?$CStringT@DV?$StrTraitMFC_DLL@DV?$ChTraitsCRT@D@ATL@@@@@ATL@@H@Z:PROC ; CCoordinate::CCoordinate
EXTRN	??0CCoordinate@@QAE@ABV0@@Z:PROC		; CCoordinate::CCoordinate
EXTRN	?AddTail@COrder@@QAEXPAVCElement@@@Z:PROC	; COrder::AddTail
EXTRN	?Add@CTree@@QAEXABVCBlockIndex@@PAVCElement@@@Z:PROC ; CTree::Add
EXTRN	?RegisterElementToUnRedoManager@CUndoRedoManager@@QAEXHJPBD0@Z:PROC ; CUndoRedoManager::RegisterElementToUnRedoManager
EXTRN	?GetMainBlock@CAnalysisData@@QBEPAUIChartManager133101@@XZ:PROC ; CAnalysisData::GetMainBlock
EXTRN	?RegisterElementToOrderManager@CAnalysisData@@QAEXJ@Z:PROC ; CAnalysisData::RegisterElementToOrderManager
EXTRN	?GetUndoRedoManager@CAnalysisData@@QAEAAVCUndoRedoManager@@XZ:PROC ; CAnalysisData::GetUndoRedoManager
EXTRN	?Make@CElementFactory@@SAPAVCElement@@W4TOOLTYPE@CAnalysis@@ABVCCoordinate@@PBVCTextPosition@@ABVCElementCommonEnvironment@@@Z:PROC ; CElementFactory::Make
EXTRN	?Make@CElementFactory@@SAPAVCElement@@W4TOOLTYPE@CAnalysis@@ABVCCoordinate@@1PBVCTextPosition@@ABVCElementCommonEnvironment@@N@Z:PROC ; CElementFactory::Make
EXTRN	?Make@CElementFactory@@SAPAVCElement@@W4TOOLTYPE@CAnalysis@@ABVCCoordinate@@11PBVCTextPosition@@ABVCElementCommonEnvironment@@@Z:PROC ; CElementFactory::Make
EXTRN	?Make@CElementFactory@@SAPAVCElement@@W4TOOLTYPE@CAnalysis@@ABV?$CDequeList@VCCoordinate@@@@ABVCElementCommonEnvironment@@@Z:PROC ; CElementFactory::Make
EXTRN	?Str2RGB@CDataConversion@@SAKABV?$CStringT@DV?$StrTraitMFC_DLL@DV?$ChTraitsCRT@D@ATL@@@@@ATL@@@Z:PROC ; CDataConversion::Str2RGB
EXTRN	?atob@CDataConversion@@SA_NPBD@Z:PROC		; CDataConversion::atob
EXTRN	?GetStringData@CDataConversion@@SA?AV?$CStringT@DV?$StrTraitMFC_DLL@DV?$ChTraitsCRT@D@ATL@@@@@ATL@@AAV23@ABV23@_N@Z:PROC ; CDataConversion::GetStringData
EXTRN	?GetStringDataCount@CDataConversion@@SAHABV?$CStringT@DV?$StrTraitMFC_DLL@DV?$ChTraitsCRT@D@ATL@@@@@ATL@@0@Z:PROC ; CDataConversion::GetStringDataCount
EXTRN	?CalcTimeDiff@CDataConversion@@SANNHHV?$CStringT@DV?$StrTraitMFC_DLL@DV?$ChTraitsCRT@D@ATL@@@@@ATL@@@Z:PROC ; CDataConversion::CalcTimeDiff
EXTRN	@__security_check_cookie@4:PROC
EXTRN	__CxxThrowException@8:PROC
EXTRN	___CxxFrameHandler3:PROC
EXTRN	__ltod3:PROC
EXTRN	_memmove:PROC
EXTRN	_memset:PROC
EXTRN	??_7type_info@@6B@:QWORD			; type_info::`vftable'
EXTRN	___security_cookie:DWORD
EXTRN	__fltused:DWORD
;	COMDAT ??_R1A@?0A@EA@bad_array_new_length@std@@8
rdata$r	SEGMENT
??_R1A@?0A@EA@bad_array_new_length@std@@8 DD FLAT:??_R0?AVbad_array_new_length@std@@@8 ; std::bad_array_new_length::`RTTI Base Class Descriptor at (0,-1,0,64)'
	DD	02H
	DD	00H
	DD	0ffffffffH
	DD	00H
	DD	040H
	DD	FLAT:??_R3bad_array_new_length@std@@8
rdata$r	ENDS
;	COMDAT ??_R2bad_array_new_length@std@@8
rdata$r	SEGMENT
??_R2bad_array_new_length@std@@8 DD FLAT:??_R1A@?0A@EA@bad_array_new_length@std@@8 ; std::bad_array_new_length::`RTTI Base Class Array'
	DD	FLAT:??_R1A@?0A@EA@bad_alloc@std@@8
	DD	FLAT:??_R1A@?0A@EA@exception@std@@8
rdata$r	ENDS
;	COMDAT ??_R3bad_array_new_length@std@@8
rdata$r	SEGMENT
??_R3bad_array_new_length@std@@8 DD 00H			; std::bad_array_new_length::`RTTI Class Hierarchy Descriptor'
	DD	00H
	DD	03H
	DD	FLAT:??_R2bad_array_new_length@std@@8
rdata$r	ENDS
;	COMDAT ??_R4bad_array_new_length@std@@6B@
rdata$r	SEGMENT
??_R4bad_array_new_length@std@@6B@ DD 00H		; std::bad_array_new_length::`RTTI Complete Object Locator'
	DD	00H
	DD	00H
	DD	FLAT:??_R0?AVbad_array_new_length@std@@@8
	DD	FLAT:??_R3bad_array_new_length@std@@8
rdata$r	ENDS
;	COMDAT ??_R1A@?0A@EA@bad_alloc@std@@8
rdata$r	SEGMENT
??_R1A@?0A@EA@bad_alloc@std@@8 DD FLAT:??_R0?AVbad_alloc@std@@@8 ; std::bad_alloc::`RTTI Base Class Descriptor at (0,-1,0,64)'
	DD	01H
	DD	00H
	DD	0ffffffffH
	DD	00H
	DD	040H
	DD	FLAT:??_R3bad_alloc@std@@8
rdata$r	ENDS
;	COMDAT ??_R2bad_alloc@std@@8
rdata$r	SEGMENT
??_R2bad_alloc@std@@8 DD FLAT:??_R1A@?0A@EA@bad_alloc@std@@8 ; std::bad_alloc::`RTTI Base Class Array'
	DD	FLAT:??_R1A@?0A@EA@exception@std@@8
rdata$r	ENDS
;	COMDAT ??_R3bad_alloc@std@@8
rdata$r	SEGMENT
??_R3bad_alloc@std@@8 DD 00H				; std::bad_alloc::`RTTI Class Hierarchy Descriptor'
	DD	00H
	DD	02H
	DD	FLAT:??_R2bad_alloc@std@@8
rdata$r	ENDS
;	COMDAT ??_R4bad_alloc@std@@6B@
rdata$r	SEGMENT
??_R4bad_alloc@std@@6B@ DD 00H				; std::bad_alloc::`RTTI Complete Object Locator'
	DD	00H
	DD	00H
	DD	FLAT:??_R0?AVbad_alloc@std@@@8
	DD	FLAT:??_R3bad_alloc@std@@8
rdata$r	ENDS
;	COMDAT ??_R1A@?0A@EA@exception@std@@8
rdata$r	SEGMENT
??_R1A@?0A@EA@exception@std@@8 DD FLAT:??_R0?AVexception@std@@@8 ; std::exception::`RTTI Base Class Descriptor at (0,-1,0,64)'
	DD	00H
	DD	00H
	DD	0ffffffffH
	DD	00H
	DD	040H
	DD	FLAT:??_R3exception@std@@8
rdata$r	ENDS
;	COMDAT ??_R2exception@std@@8
rdata$r	SEGMENT
??_R2exception@std@@8 DD FLAT:??_R1A@?0A@EA@exception@std@@8 ; std::exception::`RTTI Base Class Array'
rdata$r	ENDS
;	COMDAT ??_R3exception@std@@8
rdata$r	SEGMENT
??_R3exception@std@@8 DD 00H				; std::exception::`RTTI Class Hierarchy Descriptor'
	DD	00H
	DD	01H
	DD	FLAT:??_R2exception@std@@8
rdata$r	ENDS
;	COMDAT ??_R4exception@std@@6B@
rdata$r	SEGMENT
??_R4exception@std@@6B@ DD 00H				; std::exception::`RTTI Complete Object Locator'
	DD	00H
	DD	00H
	DD	FLAT:??_R0?AVexception@std@@@8
	DD	FLAT:??_R3exception@std@@8
rdata$r	ENDS
;	COMDAT ??_C@_0BC@KBDMBKEH@deque?$DMT?$DO?5too?5long@
CONST	SEGMENT
??_C@_0BC@KBDMBKEH@deque?$DMT?$DO?5too?5long@ DB 'deque<T> too long', 00H ; `string'
CONST	ENDS
;	COMDAT ??_C@_06FFFOEPJG@?$DMVert?$DO@
CONST	SEGMENT
??_C@_06FFFOEPJG@?$DMVert?$DO@ DB '<Vert>', 00H		; `string'
CONST	ENDS
;	COMDAT ??_C@_0N@CAIHOMCE@?$DMCoordinate?$DO@
CONST	SEGMENT
??_C@_0N@CAIHOMCE@?$DMCoordinate?$DO@ DB '<Coordinate>', 00H ; `string'
CONST	ENDS
;	COMDAT ??_C@_0BA@IFAPIPNB@?$DM?2Coordinate?$DO?$AN?6@
CONST	SEGMENT
??_C@_0BA@IFAPIPNB@?$DM?2Coordinate?$DO?$AN?6@ DB '<\Coordinate>', 0dH, 0aH
	DB	00H						; `string'
CONST	ENDS
;	COMDAT ??_C@_09COIGHGNF@?$DMStrVert?$DO@
CONST	SEGMENT
??_C@_09COIGHGNF@?$DMStrVert?$DO@ DB '<StrVert>', 00H	; `string'
CONST	ENDS
;	COMDAT ??_C@_0N@HGCOAIDN@?$DM?2StrVert?$DO?$AN?6@
CONST	SEGMENT
??_C@_0N@HGCOAIDN@?$DM?2StrVert?$DO?$AN?6@ DB '<\StrVert>', 0dH, 0aH, 00H ; `string'
CONST	ENDS
;	COMDAT ??_C@_09EBDLFGEM@?$DMExtData?$DO@
CONST	SEGMENT
??_C@_09EBDLFGEM@?$DMExtData?$DO@ DB '<ExtData>', 00H	; `string'
CONST	ENDS
;	COMDAT ??_C@_0N@ONMDHGBL@?$DM?2ExtData?$DO?$AN?6@
CONST	SEGMENT
??_C@_0N@ONMDHGBL@?$DM?2ExtData?$DO?$AN?6@ DB '<\ExtData>', 0dH, 0aH, 00H ; `string'
CONST	ENDS
;	COMDAT ??_C@_06CMKMBJNG@?$DMHorz?$DO@
CONST	SEGMENT
??_C@_06CMKMBJNG@?$DMHorz?$DO@ DB '<Horz>', 00H		; `string'
CONST	ENDS
;	COMDAT ??_C@_0N@GLGCPBKI@?$DMDataType?$DO?$AN?6@
CONST	SEGMENT
??_C@_0N@GLGCPBKI@?$DMDataType?$DO?$AN?6@ DB '<DataType>', 0dH, 0aH, 00H ; `string'
CONST	ENDS
;	COMDAT ??_C@_0O@DKHNMBCK@?$DM?2DataType?$DO?$AN?6@
CONST	SEGMENT
??_C@_0O@DKHNMBCK@?$DM?2DataType?$DO?$AN?6@ DB '<\DataType>', 0dH, 0aH, 00H ; `string'
CONST	ENDS
;	COMDAT ??_C@_07EANKACOK@?$DMStyle?$DO@
CONST	SEGMENT
??_C@_07EANKACOK@?$DMStyle?$DO@ DB '<Style>', 00H	; `string'
CONST	ENDS
;	COMDAT ??_C@_0L@MDDCEFHI@?$DM?2Style?$DO?$AN?6@
CONST	SEGMENT
??_C@_0L@MDDCEFHI@?$DM?2Style?$DO?$AN?6@ DB '<\Style>', 0dH, 0aH, 00H ; `string'
CONST	ENDS
;	COMDAT ??_C@_07ONIIIKM@?$DMWidth?$DO@
CONST	SEGMENT
??_C@_07ONIIIKM@?$DMWidth?$DO@ DB '<Width>', 00H	; `string'
CONST	ENDS
;	COMDAT ??_C@_0L@GIHMIJMH@?$DM?2Width?$DO?$AN?6@
CONST	SEGMENT
??_C@_0L@GIHMIJMH@?$DM?2Width?$DO?$AN?6@ DB '<\Width>', 0dH, 0aH, 00H ; `string'
CONST	ENDS
;	COMDAT ??_C@_07ONMJGOJF@?$DMColor?$DO@
CONST	SEGMENT
??_C@_07ONMJGOJF@?$DMColor?$DO@ DB '<Color>', 00H	; `string'
CONST	ENDS
;	COMDAT ??_C@_0L@CPJBKACB@?$DM?2Color?$DO?$AN?6@
CONST	SEGMENT
??_C@_0L@CPJBKACB@?$DM?2Color?$DO?$AN?6@ DB '<\Color>', 0dH, 0aH, 00H ; `string'
CONST	ENDS
;	COMDAT ??_C@_07PHJCCMJN@?$DMPen?$DO?$AN?6@
CONST	SEGMENT
??_C@_07PHJCCMJN@?$DMPen?$DO?$AN?6@ DB '<Pen>', 0dH, 0aH, 00H ; `string'
CONST	ENDS
;	COMDAT ??_C@_08GMFHHECH@?$DM?2Pen?$DO?$AN?6@
CONST	SEGMENT
??_C@_08GMFHHECH@?$DM?2Pen?$DO?$AN?6@ DB '<\Pen>', 0dH, 0aH, 00H ; `string'
CONST	ENDS
;	COMDAT ??_C@_0L@CFEIJGAO@?$DMRightExt?$DO@
CONST	SEGMENT
??_C@_0L@CFEIJGAO@?$DMRightExt?$DO@ DB '<RightExt>', 00H ; `string'
CONST	ENDS
;	COMDAT ??_C@_0O@CEMHHFOM@?$DM?2RightExt?$DO?$AN?6@
CONST	SEGMENT
??_C@_0O@CEMHHFOM@?$DM?2RightExt?$DO?$AN?6@ DB '<\RightExt>', 0dH, 0aH, 00H ; `string'
CONST	ENDS
;	COMDAT ??_C@_09JKGHBJEA@?$DMLeftExt?$DO@
CONST	SEGMENT
??_C@_09JKGHBJEA@?$DMLeftExt?$DO@ DB '<LeftExt>', 00H	; `string'
CONST	ENDS
;	COMDAT ??_C@_0N@KHBFLOEK@?$DM?2LeftExt?$DO?$AN?6@
CONST	SEGMENT
??_C@_0N@KHBFLOEK@?$DM?2LeftExt?$DO?$AN?6@ DB '<\LeftExt>', 0dH, 0aH, 00H ; `string'
CONST	ENDS
;	COMDAT ??_C@_0M@HHNAHFFI@?$DMLineExt?$DO?$AN?6@
CONST	SEGMENT
??_C@_0M@HHNAHFFI@?$DMLineExt?$DO?$AN?6@ DB '<LineExt>', 0dH, 0aH, 00H ; `string'
CONST	ENDS
;	COMDAT ??_C@_0N@LGOAMNGJ@?$DM?2LineExt?$DO?$AN?6@
CONST	SEGMENT
??_C@_0N@LGOAMNGJ@?$DM?2LineExt?$DO?$AN?6@ DB '<\LineExt>', 0dH, 0aH, 00H ; `string'
CONST	ENDS
;	COMDAT ??_C@_0BA@OIJLDBGJ@?$DMPriceRangeDiv?$DO@
CONST	SEGMENT
??_C@_0BA@OIJLDBGJ@?$DMPriceRangeDiv?$DO@ DB '<PriceRangeDiv>', 00H ; `string'
CONST	ENDS
;	COMDAT ??_C@_0BD@JIABNAJN@?$DM?2PriceRangeDiv?$DO?$AN?6@
CONST	SEGMENT
??_C@_0BD@JIABNAJN@?$DM?2PriceRangeDiv?$DO?$AN?6@ DB '<\PriceRangeDiv>', 0dH
	DB	0aH, 00H					; `string'
CONST	ENDS
;	COMDAT ??_C@_09PBAKMKPI@?$DMEquiDiv?$DO@
CONST	SEGMENT
??_C@_09PBAKMKPI@?$DMEquiDiv?$DO@ DB '<EquiDiv>', 00H	; `string'
CONST	ENDS
;	COMDAT ??_C@_0N@JENDHCPJ@?$DM?2EquiDiv?$DO?$AN?6@
CONST	SEGMENT
??_C@_0N@JENDHCPJ@?$DM?2EquiDiv?$DO?$AN?6@ DB '<\EquiDiv>', 0dH, 0aH, 00H ; `string'
CONST	ENDS
;	COMDAT ??_C@_0M@JPFNKEPJ@?$DMAutoPirce?$DO@
CONST	SEGMENT
??_C@_0M@JPFNKEPJ@?$DMAutoPirce?$DO@ DB '<AutoPirce>', 00H ; `string'
CONST	ENDS
;	COMDAT ??_C@_0P@OFBFCELN@?$DM?2AutoPirce?$DO?$AN?6@
CONST	SEGMENT
??_C@_0P@OFBFCELN@?$DM?2AutoPirce?$DO?$AN?6@ DB '<\AutoPirce>', 0dH, 0aH, 00H ; `string'
CONST	ENDS
;	COMDAT ??_C@_0BG@OGIHHANM@?$DMCommonEnvironment?$DO?$AN?6@
CONST	SEGMENT
??_C@_0BG@OGIHHANM@?$DMCommonEnvironment?$DO?$AN?6@ DB '<CommonEnvironmen'
	DB	't>', 0dH, 0aH, 00H				; `string'
CONST	ENDS
;	COMDAT ??_C@_0BH@HNKNDMBN@?$DM?2CommonEnvironment?$DO?$AN?6@
CONST	SEGMENT
??_C@_0BH@HNKNDMBN@?$DM?2CommonEnvironment?$DO?$AN?6@ DB '<\CommonEnviron'
	DB	'ment>', 0dH, 0aH, 00H			; `string'
CONST	ENDS
;	COMDAT ??_C@_0BE@KJBKKBJD@?$DMTextEnvironment?$DO?$AN?6@
CONST	SEGMENT
??_C@_0BE@KJBKKBJD@?$DMTextEnvironment?$DO?$AN?6@ DB '<TextEnvironment>', 0dH
	DB	0aH, 00H					; `string'
CONST	ENDS
;	COMDAT ??_C@_0BF@CDOIDFHB@?$DM?2TextEnvironment?$DO?$AN?6@
CONST	SEGMENT
??_C@_0BF@CDOIDFHB@?$DM?2TextEnvironment?$DO?$AN?6@ DB '<\TextEnvironment'
	DB	'>', 0dH, 0aH, 00H				; `string'
CONST	ENDS
;	COMDAT ??_C@_0N@ONIGNFDK@?$DMHorzVert?$DO?$AN?6@
CONST	SEGMENT
??_C@_0N@ONIGNFDK@?$DMHorzVert?$DO?$AN?6@ DB '<HorzVert>', 0dH, 0aH, 00H ; `string'
CONST	ENDS
;	COMDAT ??_C@_0O@LMJJOFLI@?$DM?2HorzVert?$DO?$AN?6@
CONST	SEGMENT
??_C@_0O@LMJJOFLI@?$DM?2HorzVert?$DO?$AN?6@ DB '<\HorzVert>', 0dH, 0aH, 00H ; `string'
CONST	ENDS
;	COMDAT ??_C@_08DJNLIMII@?$DMBottom?$DO@
CONST	SEGMENT
??_C@_08DJNLIMII@?$DMBottom?$DO@ DB '<Bottom>', 00H	; `string'
CONST	ENDS
;	COMDAT ??_C@_0M@LEMGAFHE@?$DM?2Bottom?$DO?$AN?6@
CONST	SEGMENT
??_C@_0M@LEMGAFHE@?$DM?2Bottom?$DO?$AN?6@ DB '<\Bottom>', 0dH, 0aH, 00H ; `string'
CONST	ENDS
;	COMDAT ??_C@_05IGGHGEPJ@?$DMTop?$DO@
CONST	SEGMENT
??_C@_05IGGHGEPJ@?$DMTop?$DO@ DB '<Top>', 00H		; `string'
CONST	ENDS
;	COMDAT ??_C@_08OGFDFKLB@?$DM?2Top?$DO?$AN?6@
CONST	SEGMENT
??_C@_08OGFDFKLB@?$DM?2Top?$DO?$AN?6@ DB '<\Top>', 0dH, 0aH, 00H ; `string'
CONST	ENDS
;	COMDAT ??_C@_08DDEPFPBK@?$DMVert?$DO?$AN?6@
CONST	SEGMENT
??_C@_08DDEPFPBK@?$DMVert?$DO?$AN?6@ DB '<Vert>', 0dH, 0aH, 00H ; `string'
CONST	ENDS
;	COMDAT ??_C@_09BIGAMANA@?$DM?2Vert?$DO?$AN?6@
CONST	SEGMENT
??_C@_09BIGAMANA@?$DM?2Vert?$DO?$AN?6@ DB '<\Vert>', 0dH, 0aH, 00H ; `string'
CONST	ENDS
;	COMDAT ??_C@_06DMADNNL@?$DMRate?$DO@
CONST	SEGMENT
??_C@_06DMADNNL@?$DMRate?$DO@ DB '<Rate>', 00H		; `string'
CONST	ENDS
;	COMDAT ??_C@_09ODLMLHBG@?$DM?2Rate?$DO?$AN?6@
CONST	SEGMENT
??_C@_09ODLMLHBG@?$DM?2Rate?$DO?$AN?6@ DB '<\Rate>', 0dH, 0aH, 00H ; `string'
CONST	ENDS
;	COMDAT ??_C@_07BELDGPOI@?$DMRight?$DO@
CONST	SEGMENT
??_C@_07BELDGPOI@?$DMRight?$DO@ DB '<Right>', 00H	; `string'
CONST	ENDS
;	COMDAT ??_C@_0L@MCAHGOHG@?$DM?2Right?$DO?$AN?6@
CONST	SEGMENT
??_C@_0L@MCAHGOHG@?$DM?2Right?$DO?$AN?6@ DB '<\Right>', 0dH, 0aH, 00H ; `string'
CONST	ENDS
;	COMDAT ??_C@_06CIGIKOKD@?$DMLeft?$DO@
CONST	SEGMENT
??_C@_06CIGIKOKD@?$DMLeft?$DO@ DB '<Left>', 00H		; `string'
CONST	ENDS
;	COMDAT ??_C@_09GNFMKNLO@?$DM?2Left?$DO?$AN?6@
CONST	SEGMENT
??_C@_09GNFMKNLO@?$DM?2Left?$DO?$AN?6@ DB '<\Left>', 0dH, 0aH, 00H ; `string'
CONST	ENDS
;	COMDAT ??_C@_06FNDGCLIP@?$DMShow?$DO@
CONST	SEGMENT
??_C@_06FNDGCLIP@?$DMShow?$DO@ DB '<Show>', 00H		; `string'
CONST	ENDS
;	COMDAT ??_C@_09MJLPMEOB@?$DM?2Show?$DO?$AN?6@
CONST	SEGMENT
??_C@_09MJLPMEOB@?$DM?2Show?$DO?$AN?6@ DB '<\Show>', 0dH, 0aH, 00H ; `string'
CONST	ENDS
;	COMDAT ??_C@_08EBDOJNCM@?$DMHorz?$DO?$AN?6@
CONST	SEGMENT
??_C@_08EBDOJNCM@?$DMHorz?$DO?$AN?6@ DB '<Horz>', 0dH, 0aH, 00H ; `string'
CONST	ENDS
;	COMDAT ??_C@_09GKBBACOG@?$DM?2Horz?$DO?$AN?6@
CONST	SEGMENT
??_C@_09GKBBACOG@?$DM?2Horz?$DO?$AN?6@ DB '<\Horz>', 0dH, 0aH, 00H ; `string'
CONST	ENDS
;	COMDAT ??_C@_08CHLAEBHP@?$CF02d?$CF02d@
CONST	SEGMENT
??_C@_08CHLAEBHP@?$CF02d?$CF02d@ DB '%02d%02d', 00H	; `string'
CONST	ENDS
;	COMDAT ??_C@_08JFMBEEDE@DDHHMMSS@
CONST	SEGMENT
??_C@_08JFMBEEDE@DDHHMMSS@ DB 'DDHHMMSS', 00H		; `string'
CONST	ENDS
;	COMDAT ??_C@_02PLJDPFIO@00@
CONST	SEGMENT
??_C@_02PLJDPFIO@00@ DB '00', 00H			; `string'
CONST	ENDS
;	COMDAT ??_C@_04OCCELDNI@?$CF04d@
CONST	SEGMENT
??_C@_04OCCELDNI@?$CF04d@ DB '%04d', 00H		; `string'
CONST	ENDS
;	COMDAT ??_C@_04OGKJMPGK@?$CF02d@
CONST	SEGMENT
??_C@_04OGKJMPGK@?$CF02d@ DB '%02d', 00H		; `string'
CONST	ENDS
;	COMDAT ??_C@_08KLIIINKM@MMDDHHMM@
CONST	SEGMENT
??_C@_08KLIIINKM@MMDDHHMM@ DB 'MMDDHHMM', 00H		; `string'
CONST	ENDS
;	COMDAT ??_C@_08HIJOEJNL@01000000@
CONST	SEGMENT
??_C@_08HIJOEJNL@01000000@ DB '01000000', 00H		; `string'
CONST	ENDS
;	COMDAT ??_C@_06EBMMBHJD@YYYYMM@
CONST	SEGMENT
??_C@_06EBMMBHJD@YYYYMM@ DB 'YYYYMM', 00H		; `string'
CONST	ENDS
;	COMDAT ??_C@_06GEKNBBDK@000000@
CONST	SEGMENT
??_C@_06GEKNBBDK@000000@ DB '000000', 00H		; `string'
CONST	ENDS
;	COMDAT ??_C@_08DKDJLCMP@YYYYMMDD@
CONST	SEGMENT
??_C@_08DKDJLCMP@YYYYMMDD@ DB 'YYYYMMDD', 00H		; `string'
CONST	ENDS
;	COMDAT ??_C@_0N@BNMNAMM@?$CFY?$CFm?$CFd?$CFH?$CFM?$CFS@
CONST	SEGMENT
??_C@_0N@BNMNAMM@?$CFY?$CFm?$CFd?$CFH?$CFM?$CFS@ DB '%Y%m%d%H%M%S', 00H ; `string'
CONST	ENDS
;	COMDAT ??_C@_06CLONMKIH@?$CFY?$CFm?$CFd@
CONST	SEGMENT
??_C@_06CLONMKIH@?$CFY?$CFm?$CFd@ DB '%Y%m%d', 00H	; `string'
CONST	ENDS
;	COMDAT ??_C@_04GICMHJFP@?$CFY?$CFm@
CONST	SEGMENT
??_C@_04GICMHJFP@?$CFY?$CFm@ DB '%Y%m', 00H		; `string'
CONST	ENDS
;	COMDAT ??_C@_02OOGLLHAM@?$CFm@
CONST	SEGMENT
??_C@_02OOGLLHAM@?$CFm@ DB '%m', 00H			; `string'
CONST	ENDS
;	COMDAT ??_C@_02FFEBEEPL@?$CFY@
CONST	SEGMENT
??_C@_02FFEBEEPL@?$CFY@ DB '%Y', 00H			; `string'
CONST	ENDS
;	COMDAT ??_C@_0P@IMPIBBAB@YYYYMMDDHHMMSS@
CONST	SEGMENT
??_C@_0P@IMPIBBAB@YYYYMMDDHHMMSS@ DB 'YYYYMMDDHHMMSS', 00H ; `string'
CONST	ENDS
;	COMDAT ??_C@_01IHBHIGKO@?0@
CONST	SEGMENT
??_C@_01IHBHIGKO@?0@ DB ',', 00H			; `string'
CONST	ENDS
;	COMDAT ??_C@_07MPCOHMGB@?$DMPoint?$DO@
CONST	SEGMENT
??_C@_07MPCOHMGB@?$DMPoint?$DO@ DB '<Point>', 00H	; `string'
CONST	ENDS
;	COMDAT ??_C@_0L@KMPINHDH@?$DM?2Point?$DO?$AN?6@
CONST	SEGMENT
??_C@_0L@KMPINHDH@?$DM?2Point?$DO?$AN?6@ DB '<\Point>', 0dH, 0aH, 00H ; `string'
CONST	ENDS
;	COMDAT ??_C@_0L@FEOJPCFO@?$DMPoints?$DO?$AN?6@
CONST	SEGMENT
??_C@_0L@FEOJPCFO@?$DMPoints?$DO?$AN?6@ DB '<Points>', 0dH, 0aH, 00H ; `string'
CONST	ENDS
;	COMDAT ??_C@_0M@FEMGIGA@?$DM?2Points?$DO?$AN?6@
CONST	SEGMENT
??_C@_0M@FEMGIGA@?$DM?2Points?$DO?$AN?6@ DB '<\Points>', 0dH, 0aH, 00H ; `string'
CONST	ENDS
;	COMDAT ??_C@_0L@MHMLBBHM@?$DMToolType?$DO@
CONST	SEGMENT
??_C@_0L@MHMLBBHM@?$DMToolType?$DO@ DB '<ToolType>', 00H ; `string'
CONST	ENDS
;	COMDAT ??_C@_0O@EKBCJKJI@?$DM?2ToolType?$DO?$AN?6@
CONST	SEGMENT
??_C@_0O@EKBCJKJI@?$DM?2ToolType?$DO?$AN?6@ DB '<\ToolType>', 0dH, 0aH, 00H ; `string'
CONST	ENDS
;	COMDAT ??_C@_07NALPMMAN@?$DMIndex?$DO@
CONST	SEGMENT
??_C@_07NALPMMAN@?$DMIndex?$DO@ DB '<Index>', 00H	; `string'
CONST	ENDS
;	COMDAT ??_C@_0L@KONBFPIB@?$DM?2Index?$DO?$AN?6@
CONST	SEGMENT
??_C@_0L@KONBFPIB@?$DM?2Index?$DO?$AN?6@ DB '<\Index>', 0dH, 0aH, 00H ; `string'
CONST	ENDS
;	COMDAT ??_C@_0BE@HJPGKECO@?$DMPartEnvironment?$DO?$AN?6@
CONST	SEGMENT
??_C@_0BE@HJPGKECO@?$DMPartEnvironment?$DO?$AN?6@ DB '<PartEnvironment>', 0dH
	DB	0aH, 00H					; `string'
CONST	ENDS
;	COMDAT ??_C@_0BF@PDAEDAMM@?$DM?2PartEnvironment?$DO?$AN?6@
CONST	SEGMENT
??_C@_0BF@PDAEDAMM@?$DM?2PartEnvironment?$DO?$AN?6@ DB '<\PartEnvironment'
	DB	'>', 0dH, 0aH, 00H				; `string'
CONST	ENDS
;	COMDAT ??_C@_08DHKDLDJL@?$DM?2Row?$DO?$AN?6@
CONST	SEGMENT
??_C@_08DHKDLDJL@?$DM?2Row?$DO?$AN?6@ DB '<\Row>', 0dH, 0aH, 00H ; `string'
CONST	ENDS
;	COMDAT ??_C@_07KMGGOLCB@?$DMRow?$DO?$AN?6@
CONST	SEGMENT
??_C@_07KMGGOLCB@?$DMRow?$DO?$AN?6@ DB '<Row>', 0dH, 0aH, 00H ; `string'
CONST	ENDS
;	COMDAT ??_C@_0M@FIEFJELL@?$DM?2Column?$DO?$AN?6@
CONST	SEGMENT
??_C@_0M@FIEFJELL@?$DM?2Column?$DO?$AN?6@ DB '<\Column>', 0dH, 0aH, 00H ; `string'
CONST	ENDS
;	COMDAT ??_C@_0L@JOAAOIF@?$DMColumn?$DO?$AN?6@
CONST	SEGMENT
??_C@_0L@JOAAOIF@?$DMColumn?$DO?$AN?6@ DB '<Column>', 0dH, 0aH, 00H ; `string'
CONST	ENDS
;	COMDAT ??_C@_0M@KBDGNNOL@?$DMElement?$DO?$AN?6@
CONST	SEGMENT
??_C@_0M@KBDGNNOL@?$DMElement?$DO?$AN?6@ DB '<Element>', 0dH, 0aH, 00H ; `string'
CONST	ENDS
;	COMDAT ??_C@_0N@GAAGGFNK@?$DM?2Element?$DO?$AN?6@
CONST	SEGMENT
??_C@_0N@GAAGGFNK@?$DM?2Element?$DO?$AN?6@ DB '<\Element>', 0dH, 0aH, 00H ; `string'
CONST	ENDS
;	COMDAT __CT??_R0?AVexception@std@@@8??0exception@std@@QAE@ABV01@@Z12
xdata$x	SEGMENT
__CT??_R0?AVexception@std@@@8??0exception@std@@QAE@ABV01@@Z12 DD 00H
	DD	FLAT:??_R0?AVexception@std@@@8
	DD	00H
	DD	0ffffffffH
	ORG $+4
	DD	0cH
	DD	FLAT:??0exception@std@@QAE@ABV01@@Z
xdata$x	ENDS
;	COMDAT ??_R0?AVexception@std@@@8
data$r	SEGMENT
??_R0?AVexception@std@@@8 DD FLAT:??_7type_info@@6B@	; std::exception `RTTI Type Descriptor'
	DD	00H
	DB	'.?AVexception@std@@', 00H
data$r	ENDS
;	COMDAT __CT??_R0?AVbad_alloc@std@@@8??0bad_alloc@std@@QAE@ABV01@@Z12
xdata$x	SEGMENT
__CT??_R0?AVbad_alloc@std@@@8??0bad_alloc@std@@QAE@ABV01@@Z12 DD 010H
	DD	FLAT:??_R0?AVbad_alloc@std@@@8
	DD	00H
	DD	0ffffffffH
	ORG $+4
	DD	0cH
	DD	FLAT:??0bad_alloc@std@@QAE@ABV01@@Z
xdata$x	ENDS
;	COMDAT ??_R0?AVbad_alloc@std@@@8
data$r	SEGMENT
??_R0?AVbad_alloc@std@@@8 DD FLAT:??_7type_info@@6B@	; std::bad_alloc `RTTI Type Descriptor'
	DD	00H
	DB	'.?AVbad_alloc@std@@', 00H
data$r	ENDS
;	COMDAT __CT??_R0?AVbad_array_new_length@std@@@8??0bad_array_new_length@std@@QAE@ABV01@@Z12
xdata$x	SEGMENT
__CT??_R0?AVbad_array_new_length@std@@@8??0bad_array_new_length@std@@QAE@ABV01@@Z12 DD 00H
	DD	FLAT:??_R0?AVbad_array_new_length@std@@@8
	DD	00H
	DD	0ffffffffH
	ORG $+4
	DD	0cH
	DD	FLAT:??0bad_array_new_length@std@@QAE@ABV01@@Z
xdata$x	ENDS
;	COMDAT ??_R0?AVbad_array_new_length@std@@@8
data$r	SEGMENT
??_R0?AVbad_array_new_length@std@@@8 DD FLAT:??_7type_info@@6B@ ; std::bad_array_new_length `RTTI Type Descriptor'
	DD	00H
	DB	'.?AVbad_array_new_length@std@@', 00H
data$r	ENDS
;	COMDAT __CTA3?AVbad_array_new_length@std@@
xdata$x	SEGMENT
__CTA3?AVbad_array_new_length@std@@ DD 03H
	DD	FLAT:__CT??_R0?AVbad_array_new_length@std@@@8??0bad_array_new_length@std@@QAE@ABV01@@Z12
	DD	FLAT:__CT??_R0?AVbad_alloc@std@@@8??0bad_alloc@std@@QAE@ABV01@@Z12
	DD	FLAT:__CT??_R0?AVexception@std@@@8??0exception@std@@QAE@ABV01@@Z12
xdata$x	ENDS
;	COMDAT __TI3?AVbad_array_new_length@std@@
xdata$x	SEGMENT
__TI3?AVbad_array_new_length@std@@ DD 00H
	DD	FLAT:??1bad_array_new_length@std@@UAE@XZ
	DD	00H
	DD	FLAT:__CTA3?AVbad_array_new_length@std@@
xdata$x	ENDS
;	COMDAT ??_C@_0BF@KINCDENJ@bad?5array?5new?5length@
CONST	SEGMENT
??_C@_0BF@KINCDENJ@bad?5array?5new?5length@ DB 'bad array new length', 00H ; `string'
CONST	ENDS
;	COMDAT ??_7bad_array_new_length@std@@6B@
CONST	SEGMENT
??_7bad_array_new_length@std@@6B@ DD FLAT:??_R4bad_array_new_length@std@@6B@ ; std::bad_array_new_length::`vftable'
	DD	FLAT:??_Ebad_array_new_length@std@@UAEPAXI@Z
	DD	FLAT:?what@exception@std@@UBEPBDXZ
CONST	ENDS
;	COMDAT ??_7bad_alloc@std@@6B@
CONST	SEGMENT
??_7bad_alloc@std@@6B@ DD FLAT:??_R4bad_alloc@std@@6B@	; std::bad_alloc::`vftable'
	DD	FLAT:??_Ebad_alloc@std@@UAEPAXI@Z
	DD	FLAT:?what@exception@std@@UBEPBDXZ
CONST	ENDS
;	COMDAT ??_C@_0BC@EOODALEL@Unknown?5exception@
CONST	SEGMENT
??_C@_0BC@EOODALEL@Unknown?5exception@ DB 'Unknown exception', 00H ; `string'
CONST	ENDS
;	COMDAT ??_7exception@std@@6B@
CONST	SEGMENT
??_7exception@std@@6B@ DD FLAT:??_R4exception@std@@6B@	; std::exception::`vftable'
	DD	FLAT:??_Eexception@std@@UAEPAXI@Z
	DD	FLAT:?what@exception@std@@UBEPBDXZ
CONST	ENDS
;	COMDAT ??_C@_00CNPNBAHC@@
CONST	SEGMENT
??_C@_00CNPNBAHC@@ DB 00H				; `string'
CONST	ENDS
;	COMDAT xdata$x
xdata$x	SEGMENT
__unwindtable$?GetVertDataType@CElementTreeBuilder@@ABENABV?$CStringT@DV?$StrTraitMFC_DLL@DV?$ChTraitsCRT@D@ATL@@@@@ATL@@@Z DD 0ffffffffH
	DD	FLAT:__unwindfunclet$?GetVertDataType@CElementTreeBuilder@@ABENABV?$CStringT@DV?$StrTraitMFC_DLL@DV?$ChTraitsCRT@D@ATL@@@@@ATL@@@Z$0
	DD	00H
	DD	FLAT:__unwindfunclet$?GetVertDataType@CElementTreeBuilder@@ABENABV?$CStringT@DV?$StrTraitMFC_DLL@DV?$ChTraitsCRT@D@ATL@@@@@ATL@@@Z$1
	DD	01H
	DD	FLAT:__unwindfunclet$?GetVertDataType@CElementTreeBuilder@@ABENABV?$CStringT@DV?$StrTraitMFC_DLL@DV?$ChTraitsCRT@D@ATL@@@@@ATL@@@Z$3
__ehfuncinfo$?GetVertDataType@CElementTreeBuilder@@ABENABV?$CStringT@DV?$StrTraitMFC_DLL@DV?$ChTraitsCRT@D@ATL@@@@@ATL@@@Z DD 019930522H
	DD	03H
	DD	FLAT:__unwindtable$?GetVertDataType@CElementTreeBuilder@@ABENABV?$CStringT@DV?$StrTraitMFC_DLL@DV?$ChTraitsCRT@D@ATL@@@@@ATL@@@Z
	DD	2 DUP(00H)
	DD	2 DUP(00H)
	DD	00H
	DD	01H
xdata$x	ENDS
;	COMDAT xdata$x
xdata$x	SEGMENT
__unwindtable$?GetCoordinateType@CElementTreeBuilder@@ABE?AW4COORDINATETYPE@CAnalysis@@ABV?$CStringT@DV?$StrTraitMFC_DLL@DV?$ChTraitsCRT@D@ATL@@@@@ATL@@@Z DD 0ffffffffH
	DD	FLAT:__unwindfunclet$?GetCoordinateType@CElementTreeBuilder@@ABE?AW4COORDINATETYPE@CAnalysis@@ABV?$CStringT@DV?$StrTraitMFC_DLL@DV?$ChTraitsCRT@D@ATL@@@@@ATL@@@Z$0
	DD	00H
	DD	FLAT:__unwindfunclet$?GetCoordinateType@CElementTreeBuilder@@ABE?AW4COORDINATETYPE@CAnalysis@@ABV?$CStringT@DV?$StrTraitMFC_DLL@DV?$ChTraitsCRT@D@ATL@@@@@ATL@@@Z$1
	DD	01H
	DD	FLAT:__unwindfunclet$?GetCoordinateType@CElementTreeBuilder@@ABE?AW4COORDINATETYPE@CAnalysis@@ABV?$CStringT@DV?$StrTraitMFC_DLL@DV?$ChTraitsCRT@D@ATL@@@@@ATL@@@Z$3
__ehfuncinfo$?GetCoordinateType@CElementTreeBuilder@@ABE?AW4COORDINATETYPE@CAnalysis@@ABV?$CStringT@DV?$StrTraitMFC_DLL@DV?$ChTraitsCRT@D@ATL@@@@@ATL@@@Z DD 019930522H
	DD	03H
	DD	FLAT:__unwindtable$?GetCoordinateType@CElementTreeBuilder@@ABE?AW4COORDINATETYPE@CAnalysis@@ABV?$CStringT@DV?$StrTraitMFC_DLL@DV?$ChTraitsCRT@D@ATL@@@@@ATL@@@Z
	DD	2 DUP(00H)
	DD	2 DUP(00H)
	DD	00H
	DD	01H
xdata$x	ENDS
;	COMDAT xdata$x
xdata$x	SEGMENT
__ehfuncinfo$?GetDataTypeEnvironment@CElementTreeBuilder@@ABE?AVCDataTypeEnvironment@@ABV?$CStringT@DV?$StrTraitMFC_DLL@DV?$ChTraitsCRT@D@ATL@@@@@ATL@@@Z DD 019930522H
	DD	01eH
	DD	FLAT:__unwindtable$?GetDataTypeEnvironment@CElementTreeBuilder@@ABE?AVCDataTypeEnvironment@@ABV?$CStringT@DV?$StrTraitMFC_DLL@DV?$ChTraitsCRT@D@ATL@@@@@ATL@@@Z
	DD	2 DUP(00H)
	DD	2 DUP(00H)
	DD	00H
	DD	01H
__unwindtable$?GetDataTypeEnvironment@CElementTreeBuilder@@ABE?AVCDataTypeEnvironment@@ABV?$CStringT@DV?$StrTraitMFC_DLL@DV?$ChTraitsCRT@D@ATL@@@@@ATL@@@Z DD 0ffffffffH
	DD	FLAT:__unwindfunclet$?GetDataTypeEnvironment@CElementTreeBuilder@@ABE?AVCDataTypeEnvironment@@ABV?$CStringT@DV?$StrTraitMFC_DLL@DV?$ChTraitsCRT@D@ATL@@@@@ATL@@@Z$0
	DD	00H
	DD	FLAT:__unwindfunclet$?GetDataTypeEnvironment@CElementTreeBuilder@@ABE?AVCDataTypeEnvironment@@ABV?$CStringT@DV?$StrTraitMFC_DLL@DV?$ChTraitsCRT@D@ATL@@@@@ATL@@@Z$1
	DD	01H
	DD	FLAT:__unwindfunclet$?GetDataTypeEnvironment@CElementTreeBuilder@@ABE?AVCDataTypeEnvironment@@ABV?$CStringT@DV?$StrTraitMFC_DLL@DV?$ChTraitsCRT@D@ATL@@@@@ATL@@@Z$13
	DD	01H
	DD	FLAT:__unwindfunclet$?GetDataTypeEnvironment@CElementTreeBuilder@@ABE?AVCDataTypeEnvironment@@ABV?$CStringT@DV?$StrTraitMFC_DLL@DV?$ChTraitsCRT@D@ATL@@@@@ATL@@@Z$2
	DD	00H
	DD	FLAT:__unwindfunclet$?GetDataTypeEnvironment@CElementTreeBuilder@@ABE?AVCDataTypeEnvironment@@ABV?$CStringT@DV?$StrTraitMFC_DLL@DV?$ChTraitsCRT@D@ATL@@@@@ATL@@@Z$2
	DD	0ffffffffH
	DD	FLAT:__unwindfunclet$?GetDataTypeEnvironment@CElementTreeBuilder@@ABE?AVCDataTypeEnvironment@@ABV?$CStringT@DV?$StrTraitMFC_DLL@DV?$ChTraitsCRT@D@ATL@@@@@ATL@@@Z$2
	DD	05H
	DD	FLAT:__unwindfunclet$?GetDataTypeEnvironment@CElementTreeBuilder@@ABE?AVCDataTypeEnvironment@@ABV?$CStringT@DV?$StrTraitMFC_DLL@DV?$ChTraitsCRT@D@ATL@@@@@ATL@@@Z$16
	DD	06H
	DD	FLAT:__unwindfunclet$?GetDataTypeEnvironment@CElementTreeBuilder@@ABE?AVCDataTypeEnvironment@@ABV?$CStringT@DV?$StrTraitMFC_DLL@DV?$ChTraitsCRT@D@ATL@@@@@ATL@@@Z$17
	DD	07H
	DD	FLAT:__unwindfunclet$?GetDataTypeEnvironment@CElementTreeBuilder@@ABE?AVCDataTypeEnvironment@@ABV?$CStringT@DV?$StrTraitMFC_DLL@DV?$ChTraitsCRT@D@ATL@@@@@ATL@@@Z$19
	DD	05H
	DD	FLAT:__unwindfunclet$?GetDataTypeEnvironment@CElementTreeBuilder@@ABE?AVCDataTypeEnvironment@@ABV?$CStringT@DV?$StrTraitMFC_DLL@DV?$ChTraitsCRT@D@ATL@@@@@ATL@@@Z$22
	DD	09H
	DD	FLAT:__unwindfunclet$?GetDataTypeEnvironment@CElementTreeBuilder@@ABE?AVCDataTypeEnvironment@@ABV?$CStringT@DV?$StrTraitMFC_DLL@DV?$ChTraitsCRT@D@ATL@@@@@ATL@@@Z$23
	DD	0aH
	DD	FLAT:__unwindfunclet$?GetDataTypeEnvironment@CElementTreeBuilder@@ABE?AVCDataTypeEnvironment@@ABV?$CStringT@DV?$StrTraitMFC_DLL@DV?$ChTraitsCRT@D@ATL@@@@@ATL@@@Z$25
	DD	05H
	DD	FLAT:__unwindfunclet$?GetDataTypeEnvironment@CElementTreeBuilder@@ABE?AVCDataTypeEnvironment@@ABV?$CStringT@DV?$StrTraitMFC_DLL@DV?$ChTraitsCRT@D@ATL@@@@@ATL@@@Z$3
	DD	0cH
	DD	FLAT:__unwindfunclet$?GetDataTypeEnvironment@CElementTreeBuilder@@ABE?AVCDataTypeEnvironment@@ABV?$CStringT@DV?$StrTraitMFC_DLL@DV?$ChTraitsCRT@D@ATL@@@@@ATL@@@Z$4
	DD	0dH
	DD	FLAT:__unwindfunclet$?GetDataTypeEnvironment@CElementTreeBuilder@@ABE?AVCDataTypeEnvironment@@ABV?$CStringT@DV?$StrTraitMFC_DLL@DV?$ChTraitsCRT@D@ATL@@@@@ATL@@@Z$28
	DD	0dH
	DD	FLAT:__unwindfunclet$?GetDataTypeEnvironment@CElementTreeBuilder@@ABE?AVCDataTypeEnvironment@@ABV?$CStringT@DV?$StrTraitMFC_DLL@DV?$ChTraitsCRT@D@ATL@@@@@ATL@@@Z$5
	DD	0cH
	DD	FLAT:__unwindfunclet$?GetDataTypeEnvironment@CElementTreeBuilder@@ABE?AVCDataTypeEnvironment@@ABV?$CStringT@DV?$StrTraitMFC_DLL@DV?$ChTraitsCRT@D@ATL@@@@@ATL@@@Z$5
	DD	05H
	DD	FLAT:__unwindfunclet$?GetDataTypeEnvironment@CElementTreeBuilder@@ABE?AVCDataTypeEnvironment@@ABV?$CStringT@DV?$StrTraitMFC_DLL@DV?$ChTraitsCRT@D@ATL@@@@@ATL@@@Z$5
	DD	011H
	DD	FLAT:__unwindfunclet$?GetDataTypeEnvironment@CElementTreeBuilder@@ABE?AVCDataTypeEnvironment@@ABV?$CStringT@DV?$StrTraitMFC_DLL@DV?$ChTraitsCRT@D@ATL@@@@@ATL@@@Z$6
	DD	012H
	DD	FLAT:__unwindfunclet$?GetDataTypeEnvironment@CElementTreeBuilder@@ABE?AVCDataTypeEnvironment@@ABV?$CStringT@DV?$StrTraitMFC_DLL@DV?$ChTraitsCRT@D@ATL@@@@@ATL@@@Z$7
	DD	013H
	DD	FLAT:__unwindfunclet$?GetDataTypeEnvironment@CElementTreeBuilder@@ABE?AVCDataTypeEnvironment@@ABV?$CStringT@DV?$StrTraitMFC_DLL@DV?$ChTraitsCRT@D@ATL@@@@@ATL@@@Z$31
	DD	013H
	DD	FLAT:__unwindfunclet$?GetDataTypeEnvironment@CElementTreeBuilder@@ABE?AVCDataTypeEnvironment@@ABV?$CStringT@DV?$StrTraitMFC_DLL@DV?$ChTraitsCRT@D@ATL@@@@@ATL@@@Z$8
	DD	012H
	DD	FLAT:__unwindfunclet$?GetDataTypeEnvironment@CElementTreeBuilder@@ABE?AVCDataTypeEnvironment@@ABV?$CStringT@DV?$StrTraitMFC_DLL@DV?$ChTraitsCRT@D@ATL@@@@@ATL@@@Z$8
	DD	011H
	DD	FLAT:__unwindfunclet$?GetDataTypeEnvironment@CElementTreeBuilder@@ABE?AVCDataTypeEnvironment@@ABV?$CStringT@DV?$StrTraitMFC_DLL@DV?$ChTraitsCRT@D@ATL@@@@@ATL@@@Z$8
	DD	017H
	DD	FLAT:__unwindfunclet$?GetDataTypeEnvironment@CElementTreeBuilder@@ABE?AVCDataTypeEnvironment@@ABV?$CStringT@DV?$StrTraitMFC_DLL@DV?$ChTraitsCRT@D@ATL@@@@@ATL@@@Z$9
	DD	018H
	DD	FLAT:__unwindfunclet$?GetDataTypeEnvironment@CElementTreeBuilder@@ABE?AVCDataTypeEnvironment@@ABV?$CStringT@DV?$StrTraitMFC_DLL@DV?$ChTraitsCRT@D@ATL@@@@@ATL@@@Z$10
	DD	019H
	DD	FLAT:__unwindfunclet$?GetDataTypeEnvironment@CElementTreeBuilder@@ABE?AVCDataTypeEnvironment@@ABV?$CStringT@DV?$StrTraitMFC_DLL@DV?$ChTraitsCRT@D@ATL@@@@@ATL@@@Z$34
	DD	019H
	DD	FLAT:__unwindfunclet$?GetDataTypeEnvironment@CElementTreeBuilder@@ABE?AVCDataTypeEnvironment@@ABV?$CStringT@DV?$StrTraitMFC_DLL@DV?$ChTraitsCRT@D@ATL@@@@@ATL@@@Z$11
	DD	018H
	DD	FLAT:__unwindfunclet$?GetDataTypeEnvironment@CElementTreeBuilder@@ABE?AVCDataTypeEnvironment@@ABV?$CStringT@DV?$StrTraitMFC_DLL@DV?$ChTraitsCRT@D@ATL@@@@@ATL@@@Z$11
	DD	017H
	DD	FLAT:__unwindfunclet$?GetDataTypeEnvironment@CElementTreeBuilder@@ABE?AVCDataTypeEnvironment@@ABV?$CStringT@DV?$StrTraitMFC_DLL@DV?$ChTraitsCRT@D@ATL@@@@@ATL@@@Z$11
xdata$x	ENDS
;	COMDAT xdata$x
xdata$x	SEGMENT
__unwindtable$?GetStyle@CElementTreeBuilder@@ABE?AW4PenStyle@CToolEnumData@@ABV?$CStringT@DV?$StrTraitMFC_DLL@DV?$ChTraitsCRT@D@ATL@@@@@ATL@@@Z DD 0ffffffffH
	DD	FLAT:__unwindfunclet$?GetStyle@CElementTreeBuilder@@ABE?AW4PenStyle@CToolEnumData@@ABV?$CStringT@DV?$StrTraitMFC_DLL@DV?$ChTraitsCRT@D@ATL@@@@@ATL@@@Z$0
	DD	00H
	DD	FLAT:__unwindfunclet$?GetStyle@CElementTreeBuilder@@ABE?AW4PenStyle@CToolEnumData@@ABV?$CStringT@DV?$StrTraitMFC_DLL@DV?$ChTraitsCRT@D@ATL@@@@@ATL@@@Z$1
	DD	01H
	DD	FLAT:__unwindfunclet$?GetStyle@CElementTreeBuilder@@ABE?AW4PenStyle@CToolEnumData@@ABV?$CStringT@DV?$StrTraitMFC_DLL@DV?$ChTraitsCRT@D@ATL@@@@@ATL@@@Z$3
__ehfuncinfo$?GetStyle@CElementTreeBuilder@@ABE?AW4PenStyle@CToolEnumData@@ABV?$CStringT@DV?$StrTraitMFC_DLL@DV?$ChTraitsCRT@D@ATL@@@@@ATL@@@Z DD 019930522H
	DD	03H
	DD	FLAT:__unwindtable$?GetStyle@CElementTreeBuilder@@ABE?AW4PenStyle@CToolEnumData@@ABV?$CStringT@DV?$StrTraitMFC_DLL@DV?$ChTraitsCRT@D@ATL@@@@@ATL@@@Z
	DD	2 DUP(00H)
	DD	2 DUP(00H)
	DD	00H
	DD	01H
xdata$x	ENDS
;	COMDAT xdata$x
xdata$x	SEGMENT
__unwindtable$?GetWidth@CElementTreeBuilder@@ABEHABV?$CStringT@DV?$StrTraitMFC_DLL@DV?$ChTraitsCRT@D@ATL@@@@@ATL@@@Z DD 0ffffffffH
	DD	FLAT:__unwindfunclet$?GetWidth@CElementTreeBuilder@@ABEHABV?$CStringT@DV?$StrTraitMFC_DLL@DV?$ChTraitsCRT@D@ATL@@@@@ATL@@@Z$0
	DD	00H
	DD	FLAT:__unwindfunclet$?GetWidth@CElementTreeBuilder@@ABEHABV?$CStringT@DV?$StrTraitMFC_DLL@DV?$ChTraitsCRT@D@ATL@@@@@ATL@@@Z$1
	DD	01H
	DD	FLAT:__unwindfunclet$?GetWidth@CElementTreeBuilder@@ABEHABV?$CStringT@DV?$StrTraitMFC_DLL@DV?$ChTraitsCRT@D@ATL@@@@@ATL@@@Z$3
__ehfuncinfo$?GetWidth@CElementTreeBuilder@@ABEHABV?$CStringT@DV?$StrTraitMFC_DLL@DV?$ChTraitsCRT@D@ATL@@@@@ATL@@@Z DD 019930522H
	DD	03H
	DD	FLAT:__unwindtable$?GetWidth@CElementTreeBuilder@@ABEHABV?$CStringT@DV?$StrTraitMFC_DLL@DV?$ChTraitsCRT@D@ATL@@@@@ATL@@@Z
	DD	2 DUP(00H)
	DD	2 DUP(00H)
	DD	00H
	DD	01H
xdata$x	ENDS
;	COMDAT xdata$x
xdata$x	SEGMENT
__unwindtable$?GetColor@CElementTreeBuilder@@ABEKABV?$CStringT@DV?$StrTraitMFC_DLL@DV?$ChTraitsCRT@D@ATL@@@@@ATL@@@Z DD 0ffffffffH
	DD	FLAT:__unwindfunclet$?GetColor@CElementTreeBuilder@@ABEKABV?$CStringT@DV?$StrTraitMFC_DLL@DV?$ChTraitsCRT@D@ATL@@@@@ATL@@@Z$0
	DD	00H
	DD	FLAT:__unwindfunclet$?GetColor@CElementTreeBuilder@@ABEKABV?$CStringT@DV?$StrTraitMFC_DLL@DV?$ChTraitsCRT@D@ATL@@@@@ATL@@@Z$1
	DD	01H
	DD	FLAT:__unwindfunclet$?GetColor@CElementTreeBuilder@@ABEKABV?$CStringT@DV?$StrTraitMFC_DLL@DV?$ChTraitsCRT@D@ATL@@@@@ATL@@@Z$3
	DD	01H
	DD	FLAT:__unwindfunclet$?GetColor@CElementTreeBuilder@@ABEKABV?$CStringT@DV?$StrTraitMFC_DLL@DV?$ChTraitsCRT@D@ATL@@@@@ATL@@@Z$2
__ehfuncinfo$?GetColor@CElementTreeBuilder@@ABEKABV?$CStringT@DV?$StrTraitMFC_DLL@DV?$ChTraitsCRT@D@ATL@@@@@ATL@@@Z DD 019930522H
	DD	04H
	DD	FLAT:__unwindtable$?GetColor@CElementTreeBuilder@@ABEKABV?$CStringT@DV?$StrTraitMFC_DLL@DV?$ChTraitsCRT@D@ATL@@@@@ATL@@@Z
	DD	2 DUP(00H)
	DD	2 DUP(00H)
	DD	00H
	DD	01H
xdata$x	ENDS
;	COMDAT xdata$x
xdata$x	SEGMENT
__ehfuncinfo$?GetPenEnvironment@CElementTreeBuilder@@ABE?AVCPenEnvironment@@ABV?$CStringT@DV?$StrTraitMFC_DLL@DV?$ChTraitsCRT@D@ATL@@@@@ATL@@@Z DD 019930522H
	DD	0cH
	DD	FLAT:__unwindtable$?GetPenEnvironment@CElementTreeBuilder@@ABE?AVCPenEnvironment@@ABV?$CStringT@DV?$StrTraitMFC_DLL@DV?$ChTraitsCRT@D@ATL@@@@@ATL@@@Z
	DD	2 DUP(00H)
	DD	2 DUP(00H)
	DD	00H
	DD	01H
__unwindtable$?GetPenEnvironment@CElementTreeBuilder@@ABE?AVCPenEnvironment@@ABV?$CStringT@DV?$StrTraitMFC_DLL@DV?$ChTraitsCRT@D@ATL@@@@@ATL@@@Z DD 0ffffffffH
	DD	FLAT:__unwindfunclet$?GetPenEnvironment@CElementTreeBuilder@@ABE?AVCPenEnvironment@@ABV?$CStringT@DV?$StrTraitMFC_DLL@DV?$ChTraitsCRT@D@ATL@@@@@ATL@@@Z$0
	DD	00H
	DD	FLAT:__unwindfunclet$?GetPenEnvironment@CElementTreeBuilder@@ABE?AVCPenEnvironment@@ABV?$CStringT@DV?$StrTraitMFC_DLL@DV?$ChTraitsCRT@D@ATL@@@@@ATL@@@Z$1
	DD	01H
	DD	FLAT:__unwindfunclet$?GetPenEnvironment@CElementTreeBuilder@@ABE?AVCPenEnvironment@@ABV?$CStringT@DV?$StrTraitMFC_DLL@DV?$ChTraitsCRT@D@ATL@@@@@ATL@@@Z$3
	DD	01H
	DD	FLAT:__unwindfunclet$?GetPenEnvironment@CElementTreeBuilder@@ABE?AVCPenEnvironment@@ABV?$CStringT@DV?$StrTraitMFC_DLL@DV?$ChTraitsCRT@D@ATL@@@@@ATL@@@Z$2
	DD	00H
	DD	FLAT:__unwindfunclet$?GetPenEnvironment@CElementTreeBuilder@@ABE?AVCPenEnvironment@@ABV?$CStringT@DV?$StrTraitMFC_DLL@DV?$ChTraitsCRT@D@ATL@@@@@ATL@@@Z$2
	DD	0ffffffffH
	DD	FLAT:__unwindfunclet$?GetPenEnvironment@CElementTreeBuilder@@ABE?AVCPenEnvironment@@ABV?$CStringT@DV?$StrTraitMFC_DLL@DV?$ChTraitsCRT@D@ATL@@@@@ATL@@@Z$2
	DD	05H
	DD	FLAT:__unwindfunclet$?GetPenEnvironment@CElementTreeBuilder@@ABE?AVCPenEnvironment@@ABV?$CStringT@DV?$StrTraitMFC_DLL@DV?$ChTraitsCRT@D@ATL@@@@@ATL@@@Z$6
	DD	06H
	DD	FLAT:__unwindfunclet$?GetPenEnvironment@CElementTreeBuilder@@ABE?AVCPenEnvironment@@ABV?$CStringT@DV?$StrTraitMFC_DLL@DV?$ChTraitsCRT@D@ATL@@@@@ATL@@@Z$7
	DD	07H
	DD	FLAT:__unwindfunclet$?GetPenEnvironment@CElementTreeBuilder@@ABE?AVCPenEnvironment@@ABV?$CStringT@DV?$StrTraitMFC_DLL@DV?$ChTraitsCRT@D@ATL@@@@@ATL@@@Z$9
	DD	05H
	DD	FLAT:__unwindfunclet$?GetPenEnvironment@CElementTreeBuilder@@ABE?AVCPenEnvironment@@ABV?$CStringT@DV?$StrTraitMFC_DLL@DV?$ChTraitsCRT@D@ATL@@@@@ATL@@@Z$12
	DD	09H
	DD	FLAT:__unwindfunclet$?GetPenEnvironment@CElementTreeBuilder@@ABE?AVCPenEnvironment@@ABV?$CStringT@DV?$StrTraitMFC_DLL@DV?$ChTraitsCRT@D@ATL@@@@@ATL@@@Z$13
	DD	0aH
	DD	FLAT:__unwindfunclet$?GetPenEnvironment@CElementTreeBuilder@@ABE?AVCPenEnvironment@@ABV?$CStringT@DV?$StrTraitMFC_DLL@DV?$ChTraitsCRT@D@ATL@@@@@ATL@@@Z$15
xdata$x	ENDS
;	COMDAT xdata$x
xdata$x	SEGMENT
__unwindtable$?GetRightLineExt@CElementTreeBuilder@@ABEHABV?$CStringT@DV?$StrTraitMFC_DLL@DV?$ChTraitsCRT@D@ATL@@@@@ATL@@@Z DD 0ffffffffH
	DD	FLAT:__unwindfunclet$?GetRightLineExt@CElementTreeBuilder@@ABEHABV?$CStringT@DV?$StrTraitMFC_DLL@DV?$ChTraitsCRT@D@ATL@@@@@ATL@@@Z$0
	DD	00H
	DD	FLAT:__unwindfunclet$?GetRightLineExt@CElementTreeBuilder@@ABEHABV?$CStringT@DV?$StrTraitMFC_DLL@DV?$ChTraitsCRT@D@ATL@@@@@ATL@@@Z$1
	DD	01H
	DD	FLAT:__unwindfunclet$?GetRightLineExt@CElementTreeBuilder@@ABEHABV?$CStringT@DV?$StrTraitMFC_DLL@DV?$ChTraitsCRT@D@ATL@@@@@ATL@@@Z$3
__ehfuncinfo$?GetRightLineExt@CElementTreeBuilder@@ABEHABV?$CStringT@DV?$StrTraitMFC_DLL@DV?$ChTraitsCRT@D@ATL@@@@@ATL@@@Z DD 019930522H
	DD	03H
	DD	FLAT:__unwindtable$?GetRightLineExt@CElementTreeBuilder@@ABEHABV?$CStringT@DV?$StrTraitMFC_DLL@DV?$ChTraitsCRT@D@ATL@@@@@ATL@@@Z
	DD	2 DUP(00H)
	DD	2 DUP(00H)
	DD	00H
	DD	01H
xdata$x	ENDS
;	COMDAT xdata$x
xdata$x	SEGMENT
__unwindtable$?GetLeftLineExt@CElementTreeBuilder@@ABEHABV?$CStringT@DV?$StrTraitMFC_DLL@DV?$ChTraitsCRT@D@ATL@@@@@ATL@@@Z DD 0ffffffffH
	DD	FLAT:__unwindfunclet$?GetLeftLineExt@CElementTreeBuilder@@ABEHABV?$CStringT@DV?$StrTraitMFC_DLL@DV?$ChTraitsCRT@D@ATL@@@@@ATL@@@Z$0
	DD	00H
	DD	FLAT:__unwindfunclet$?GetLeftLineExt@CElementTreeBuilder@@ABEHABV?$CStringT@DV?$StrTraitMFC_DLL@DV?$ChTraitsCRT@D@ATL@@@@@ATL@@@Z$1
	DD	01H
	DD	FLAT:__unwindfunclet$?GetLeftLineExt@CElementTreeBuilder@@ABEHABV?$CStringT@DV?$StrTraitMFC_DLL@DV?$ChTraitsCRT@D@ATL@@@@@ATL@@@Z$3
__ehfuncinfo$?GetLeftLineExt@CElementTreeBuilder@@ABEHABV?$CStringT@DV?$StrTraitMFC_DLL@DV?$ChTraitsCRT@D@ATL@@@@@ATL@@@Z DD 019930522H
	DD	03H
	DD	FLAT:__unwindtable$?GetLeftLineExt@CElementTreeBuilder@@ABEHABV?$CStringT@DV?$StrTraitMFC_DLL@DV?$ChTraitsCRT@D@ATL@@@@@ATL@@@Z
	DD	2 DUP(00H)
	DD	2 DUP(00H)
	DD	00H
	DD	01H
xdata$x	ENDS
;	COMDAT xdata$x
xdata$x	SEGMENT
__ehfuncinfo$?GetLineExtEnvironment@CElementTreeBuilder@@ABE?AVCLineExtEnvironment@@ABV?$CStringT@DV?$StrTraitMFC_DLL@DV?$ChTraitsCRT@D@ATL@@@@@ATL@@@Z DD 019930522H
	DD	0cH
	DD	FLAT:__unwindtable$?GetLineExtEnvironment@CElementTreeBuilder@@ABE?AVCLineExtEnvironment@@ABV?$CStringT@DV?$StrTraitMFC_DLL@DV?$ChTraitsCRT@D@ATL@@@@@ATL@@@Z
	DD	2 DUP(00H)
	DD	2 DUP(00H)
	DD	00H
	DD	01H
__unwindtable$?GetLineExtEnvironment@CElementTreeBuilder@@ABE?AVCLineExtEnvironment@@ABV?$CStringT@DV?$StrTraitMFC_DLL@DV?$ChTraitsCRT@D@ATL@@@@@ATL@@@Z DD 0ffffffffH
	DD	FLAT:__unwindfunclet$?GetLineExtEnvironment@CElementTreeBuilder@@ABE?AVCLineExtEnvironment@@ABV?$CStringT@DV?$StrTraitMFC_DLL@DV?$ChTraitsCRT@D@ATL@@@@@ATL@@@Z$0
	DD	00H
	DD	FLAT:__unwindfunclet$?GetLineExtEnvironment@CElementTreeBuilder@@ABE?AVCLineExtEnvironment@@ABV?$CStringT@DV?$StrTraitMFC_DLL@DV?$ChTraitsCRT@D@ATL@@@@@ATL@@@Z$1
	DD	01H
	DD	FLAT:__unwindfunclet$?GetLineExtEnvironment@CElementTreeBuilder@@ABE?AVCLineExtEnvironment@@ABV?$CStringT@DV?$StrTraitMFC_DLL@DV?$ChTraitsCRT@D@ATL@@@@@ATL@@@Z$3
	DD	01H
	DD	FLAT:__unwindfunclet$?GetLineExtEnvironment@CElementTreeBuilder@@ABE?AVCLineExtEnvironment@@ABV?$CStringT@DV?$StrTraitMFC_DLL@DV?$ChTraitsCRT@D@ATL@@@@@ATL@@@Z$2
	DD	00H
	DD	FLAT:__unwindfunclet$?GetLineExtEnvironment@CElementTreeBuilder@@ABE?AVCLineExtEnvironment@@ABV?$CStringT@DV?$StrTraitMFC_DLL@DV?$ChTraitsCRT@D@ATL@@@@@ATL@@@Z$2
	DD	0ffffffffH
	DD	FLAT:__unwindfunclet$?GetLineExtEnvironment@CElementTreeBuilder@@ABE?AVCLineExtEnvironment@@ABV?$CStringT@DV?$StrTraitMFC_DLL@DV?$ChTraitsCRT@D@ATL@@@@@ATL@@@Z$2
	DD	05H
	DD	FLAT:__unwindfunclet$?GetLineExtEnvironment@CElementTreeBuilder@@ABE?AVCLineExtEnvironment@@ABV?$CStringT@DV?$StrTraitMFC_DLL@DV?$ChTraitsCRT@D@ATL@@@@@ATL@@@Z$6
	DD	06H
	DD	FLAT:__unwindfunclet$?GetLineExtEnvironment@CElementTreeBuilder@@ABE?AVCLineExtEnvironment@@ABV?$CStringT@DV?$StrTraitMFC_DLL@DV?$ChTraitsCRT@D@ATL@@@@@ATL@@@Z$7
	DD	07H
	DD	FLAT:__unwindfunclet$?GetLineExtEnvironment@CElementTreeBuilder@@ABE?AVCLineExtEnvironment@@ABV?$CStringT@DV?$StrTraitMFC_DLL@DV?$ChTraitsCRT@D@ATL@@@@@ATL@@@Z$9
	DD	05H
	DD	FLAT:__unwindfunclet$?GetLineExtEnvironment@CElementTreeBuilder@@ABE?AVCLineExtEnvironment@@ABV?$CStringT@DV?$StrTraitMFC_DLL@DV?$ChTraitsCRT@D@ATL@@@@@ATL@@@Z$12
	DD	09H
	DD	FLAT:__unwindfunclet$?GetLineExtEnvironment@CElementTreeBuilder@@ABE?AVCLineExtEnvironment@@ABV?$CStringT@DV?$StrTraitMFC_DLL@DV?$ChTraitsCRT@D@ATL@@@@@ATL@@@Z$13
	DD	0aH
	DD	FLAT:__unwindfunclet$?GetLineExtEnvironment@CElementTreeBuilder@@ABE?AVCLineExtEnvironment@@ABV?$CStringT@DV?$StrTraitMFC_DLL@DV?$ChTraitsCRT@D@ATL@@@@@ATL@@@Z$15
xdata$x	ENDS
;	COMDAT xdata$x
xdata$x	SEGMENT
__unwindtable$?GetPriceRangeDivEnvironment@CElementTreeBuilder@@ABEHABV?$CStringT@DV?$StrTraitMFC_DLL@DV?$ChTraitsCRT@D@ATL@@@@@ATL@@@Z DD 0ffffffffH
	DD	FLAT:__unwindfunclet$?GetPriceRangeDivEnvironment@CElementTreeBuilder@@ABEHABV?$CStringT@DV?$StrTraitMFC_DLL@DV?$ChTraitsCRT@D@ATL@@@@@ATL@@@Z$0
	DD	00H
	DD	FLAT:__unwindfunclet$?GetPriceRangeDivEnvironment@CElementTreeBuilder@@ABEHABV?$CStringT@DV?$StrTraitMFC_DLL@DV?$ChTraitsCRT@D@ATL@@@@@ATL@@@Z$1
	DD	01H
	DD	FLAT:__unwindfunclet$?GetPriceRangeDivEnvironment@CElementTreeBuilder@@ABEHABV?$CStringT@DV?$StrTraitMFC_DLL@DV?$ChTraitsCRT@D@ATL@@@@@ATL@@@Z$3
__ehfuncinfo$?GetPriceRangeDivEnvironment@CElementTreeBuilder@@ABEHABV?$CStringT@DV?$StrTraitMFC_DLL@DV?$ChTraitsCRT@D@ATL@@@@@ATL@@@Z DD 019930522H
	DD	03H
	DD	FLAT:__unwindtable$?GetPriceRangeDivEnvironment@CElementTreeBuilder@@ABEHABV?$CStringT@DV?$StrTraitMFC_DLL@DV?$ChTraitsCRT@D@ATL@@@@@ATL@@@Z
	DD	2 DUP(00H)
	DD	2 DUP(00H)
	DD	00H
	DD	01H
xdata$x	ENDS
;	COMDAT xdata$x
xdata$x	SEGMENT
__unwindtable$?GetEquiDivEnvironment@CElementTreeBuilder@@ABEHABV?$CStringT@DV?$StrTraitMFC_DLL@DV?$ChTraitsCRT@D@ATL@@@@@ATL@@@Z DD 0ffffffffH
	DD	FLAT:__unwindfunclet$?GetEquiDivEnvironment@CElementTreeBuilder@@ABEHABV?$CStringT@DV?$StrTraitMFC_DLL@DV?$ChTraitsCRT@D@ATL@@@@@ATL@@@Z$0
	DD	00H
	DD	FLAT:__unwindfunclet$?GetEquiDivEnvironment@CElementTreeBuilder@@ABEHABV?$CStringT@DV?$StrTraitMFC_DLL@DV?$ChTraitsCRT@D@ATL@@@@@ATL@@@Z$1
	DD	01H
	DD	FLAT:__unwindfunclet$?GetEquiDivEnvironment@CElementTreeBuilder@@ABEHABV?$CStringT@DV?$StrTraitMFC_DLL@DV?$ChTraitsCRT@D@ATL@@@@@ATL@@@Z$3
__ehfuncinfo$?GetEquiDivEnvironment@CElementTreeBuilder@@ABEHABV?$CStringT@DV?$StrTraitMFC_DLL@DV?$ChTraitsCRT@D@ATL@@@@@ATL@@@Z DD 019930522H
	DD	03H
	DD	FLAT:__unwindtable$?GetEquiDivEnvironment@CElementTreeBuilder@@ABEHABV?$CStringT@DV?$StrTraitMFC_DLL@DV?$ChTraitsCRT@D@ATL@@@@@ATL@@@Z
	DD	2 DUP(00H)
	DD	2 DUP(00H)
	DD	00H
	DD	01H
xdata$x	ENDS
;	COMDAT xdata$x
xdata$x	SEGMENT
__unwindtable$?GetAutoPrice@CElementTreeBuilder@@ABE_NABV?$CStringT@DV?$StrTraitMFC_DLL@DV?$ChTraitsCRT@D@ATL@@@@@ATL@@@Z DD 0ffffffffH
	DD	FLAT:__unwindfunclet$?GetAutoPrice@CElementTreeBuilder@@ABE_NABV?$CStringT@DV?$StrTraitMFC_DLL@DV?$ChTraitsCRT@D@ATL@@@@@ATL@@@Z$0
	DD	00H
	DD	FLAT:__unwindfunclet$?GetAutoPrice@CElementTreeBuilder@@ABE_NABV?$CStringT@DV?$StrTraitMFC_DLL@DV?$ChTraitsCRT@D@ATL@@@@@ATL@@@Z$1
	DD	01H
	DD	FLAT:__unwindfunclet$?GetAutoPrice@CElementTreeBuilder@@ABE_NABV?$CStringT@DV?$StrTraitMFC_DLL@DV?$ChTraitsCRT@D@ATL@@@@@ATL@@@Z$3
__ehfuncinfo$?GetAutoPrice@CElementTreeBuilder@@ABE_NABV?$CStringT@DV?$StrTraitMFC_DLL@DV?$ChTraitsCRT@D@ATL@@@@@ATL@@@Z DD 019930522H
	DD	03H
	DD	FLAT:__unwindtable$?GetAutoPrice@CElementTreeBuilder@@ABE_NABV?$CStringT@DV?$StrTraitMFC_DLL@DV?$ChTraitsCRT@D@ATL@@@@@ATL@@@Z
	DD	2 DUP(00H)
	DD	2 DUP(00H)
	DD	00H
	DD	01H
xdata$x	ENDS
;	COMDAT xdata$x
xdata$x	SEGMENT
__ehfuncinfo$?GetEnvironment@CElementTreeBuilder@@ABE?AVCElementCommonEnvironment@@ABV?$CStringT@DV?$StrTraitMFC_DLL@DV?$ChTraitsCRT@D@ATL@@@@@ATL@@@Z DD 019930522H
	DD	010H
	DD	FLAT:__unwindtable$?GetEnvironment@CElementTreeBuilder@@ABE?AVCElementCommonEnvironment@@ABV?$CStringT@DV?$StrTraitMFC_DLL@DV?$ChTraitsCRT@D@ATL@@@@@ATL@@@Z
	DD	2 DUP(00H)
	DD	2 DUP(00H)
	DD	00H
	DD	01H
__unwindtable$?GetEnvironment@CElementTreeBuilder@@ABE?AVCElementCommonEnvironment@@ABV?$CStringT@DV?$StrTraitMFC_DLL@DV?$ChTraitsCRT@D@ATL@@@@@ATL@@@Z DD 0ffffffffH
	DD	FLAT:__unwindfunclet$?GetEnvironment@CElementTreeBuilder@@ABE?AVCElementCommonEnvironment@@ABV?$CStringT@DV?$StrTraitMFC_DLL@DV?$ChTraitsCRT@D@ATL@@@@@ATL@@@Z$0
	DD	00H
	DD	FLAT:__unwindfunclet$?GetEnvironment@CElementTreeBuilder@@ABE?AVCElementCommonEnvironment@@ABV?$CStringT@DV?$StrTraitMFC_DLL@DV?$ChTraitsCRT@D@ATL@@@@@ATL@@@Z$1
	DD	01H
	DD	FLAT:__unwindfunclet$?GetEnvironment@CElementTreeBuilder@@ABE?AVCElementCommonEnvironment@@ABV?$CStringT@DV?$StrTraitMFC_DLL@DV?$ChTraitsCRT@D@ATL@@@@@ATL@@@Z$5
	DD	01H
	DD	FLAT:__unwindfunclet$?GetEnvironment@CElementTreeBuilder@@ABE?AVCElementCommonEnvironment@@ABV?$CStringT@DV?$StrTraitMFC_DLL@DV?$ChTraitsCRT@D@ATL@@@@@ATL@@@Z$2
	DD	00H
	DD	FLAT:__unwindfunclet$?GetEnvironment@CElementTreeBuilder@@ABE?AVCElementCommonEnvironment@@ABV?$CStringT@DV?$StrTraitMFC_DLL@DV?$ChTraitsCRT@D@ATL@@@@@ATL@@@Z$2
	DD	0ffffffffH
	DD	FLAT:__unwindfunclet$?GetEnvironment@CElementTreeBuilder@@ABE?AVCElementCommonEnvironment@@ABV?$CStringT@DV?$StrTraitMFC_DLL@DV?$ChTraitsCRT@D@ATL@@@@@ATL@@@Z$2
	DD	05H
	DD	FLAT:__unwindfunclet$?GetEnvironment@CElementTreeBuilder@@ABE?AVCElementCommonEnvironment@@ABV?$CStringT@DV?$StrTraitMFC_DLL@DV?$ChTraitsCRT@D@ATL@@@@@ATL@@@Z$8
	DD	06H
	DD	FLAT:__unwindfunclet$?GetEnvironment@CElementTreeBuilder@@ABE?AVCElementCommonEnvironment@@ABV?$CStringT@DV?$StrTraitMFC_DLL@DV?$ChTraitsCRT@D@ATL@@@@@ATL@@@Z$9
	DD	07H
	DD	FLAT:__unwindfunclet$?GetEnvironment@CElementTreeBuilder@@ABE?AVCElementCommonEnvironment@@ABV?$CStringT@DV?$StrTraitMFC_DLL@DV?$ChTraitsCRT@D@ATL@@@@@ATL@@@Z$11
	DD	05H
	DD	FLAT:__unwindfunclet$?GetEnvironment@CElementTreeBuilder@@ABE?AVCElementCommonEnvironment@@ABV?$CStringT@DV?$StrTraitMFC_DLL@DV?$ChTraitsCRT@D@ATL@@@@@ATL@@@Z$14
	DD	09H
	DD	FLAT:__unwindfunclet$?GetEnvironment@CElementTreeBuilder@@ABE?AVCElementCommonEnvironment@@ABV?$CStringT@DV?$StrTraitMFC_DLL@DV?$ChTraitsCRT@D@ATL@@@@@ATL@@@Z$15
	DD	0aH
	DD	FLAT:__unwindfunclet$?GetEnvironment@CElementTreeBuilder@@ABE?AVCElementCommonEnvironment@@ABV?$CStringT@DV?$StrTraitMFC_DLL@DV?$ChTraitsCRT@D@ATL@@@@@ATL@@@Z$17
	DD	05H
	DD	FLAT:__unwindfunclet$?GetEnvironment@CElementTreeBuilder@@ABE?AVCElementCommonEnvironment@@ABV?$CStringT@DV?$StrTraitMFC_DLL@DV?$ChTraitsCRT@D@ATL@@@@@ATL@@@Z$20
	DD	0cH
	DD	FLAT:__unwindfunclet$?GetEnvironment@CElementTreeBuilder@@ABE?AVCElementCommonEnvironment@@ABV?$CStringT@DV?$StrTraitMFC_DLL@DV?$ChTraitsCRT@D@ATL@@@@@ATL@@@Z$21
	DD	0dH
	DD	FLAT:__unwindfunclet$?GetEnvironment@CElementTreeBuilder@@ABE?AVCElementCommonEnvironment@@ABV?$CStringT@DV?$StrTraitMFC_DLL@DV?$ChTraitsCRT@D@ATL@@@@@ATL@@@Z$23
	DD	05H
	DD	FLAT:__unwindfunclet$?GetEnvironment@CElementTreeBuilder@@ABE?AVCElementCommonEnvironment@@ABV?$CStringT@DV?$StrTraitMFC_DLL@DV?$ChTraitsCRT@D@ATL@@@@@ATL@@@Z$3
xdata$x	ENDS
;	COMDAT xdata$x
xdata$x	SEGMENT
__ehfuncinfo$?GetTextEnvironment@CElementTreeBuilder@@ABE?AVCTextEnvironment@@ABV?$CStringT@DV?$StrTraitMFC_DLL@DV?$ChTraitsCRT@D@ATL@@@@@ATL@@@Z DD 019930522H
	DD	06H
	DD	FLAT:__unwindtable$?GetTextEnvironment@CElementTreeBuilder@@ABE?AVCTextEnvironment@@ABV?$CStringT@DV?$StrTraitMFC_DLL@DV?$ChTraitsCRT@D@ATL@@@@@ATL@@@Z
	DD	2 DUP(00H)
	DD	2 DUP(00H)
	DD	00H
	DD	01H
__unwindtable$?GetTextEnvironment@CElementTreeBuilder@@ABE?AVCTextEnvironment@@ABV?$CStringT@DV?$StrTraitMFC_DLL@DV?$ChTraitsCRT@D@ATL@@@@@ATL@@@Z DD 0ffffffffH
	DD	FLAT:__unwindfunclet$?GetTextEnvironment@CElementTreeBuilder@@ABE?AVCTextEnvironment@@ABV?$CStringT@DV?$StrTraitMFC_DLL@DV?$ChTraitsCRT@D@ATL@@@@@ATL@@@Z$0
	DD	00H
	DD	FLAT:__unwindfunclet$?GetTextEnvironment@CElementTreeBuilder@@ABE?AVCTextEnvironment@@ABV?$CStringT@DV?$StrTraitMFC_DLL@DV?$ChTraitsCRT@D@ATL@@@@@ATL@@@Z$1
	DD	01H
	DD	FLAT:__unwindfunclet$?GetTextEnvironment@CElementTreeBuilder@@ABE?AVCTextEnvironment@@ABV?$CStringT@DV?$StrTraitMFC_DLL@DV?$ChTraitsCRT@D@ATL@@@@@ATL@@@Z$3
	DD	01H
	DD	FLAT:__unwindfunclet$?GetTextEnvironment@CElementTreeBuilder@@ABE?AVCTextEnvironment@@ABV?$CStringT@DV?$StrTraitMFC_DLL@DV?$ChTraitsCRT@D@ATL@@@@@ATL@@@Z$2
	DD	00H
	DD	FLAT:__unwindfunclet$?GetTextEnvironment@CElementTreeBuilder@@ABE?AVCTextEnvironment@@ABV?$CStringT@DV?$StrTraitMFC_DLL@DV?$ChTraitsCRT@D@ATL@@@@@ATL@@@Z$2
	DD	0ffffffffH
	DD	FLAT:__unwindfunclet$?GetTextEnvironment@CElementTreeBuilder@@ABE?AVCTextEnvironment@@ABV?$CStringT@DV?$StrTraitMFC_DLL@DV?$ChTraitsCRT@D@ATL@@@@@ATL@@@Z$2
xdata$x	ENDS
;	COMDAT xdata$x
xdata$x	SEGMENT
__ehfuncinfo$?GetTextHorzVertPosition@CElementTreeBuilder@@ABE_NABV?$CStringT@DV?$StrTraitMFC_DLL@DV?$ChTraitsCRT@D@ATL@@@@@ATL@@AAVCTextHorzVertPosition@@@Z DD 019930522H
	DD	016H
	DD	FLAT:__unwindtable$?GetTextHorzVertPosition@CElementTreeBuilder@@ABE_NABV?$CStringT@DV?$StrTraitMFC_DLL@DV?$ChTraitsCRT@D@ATL@@@@@ATL@@AAVCTextHorzVertPosition@@@Z
	DD	2 DUP(00H)
	DD	2 DUP(00H)
	DD	00H
	DD	01H
__unwindtable$?GetTextHorzVertPosition@CElementTreeBuilder@@ABE_NABV?$CStringT@DV?$StrTraitMFC_DLL@DV?$ChTraitsCRT@D@ATL@@@@@ATL@@AAVCTextHorzVertPosition@@@Z DD 0ffffffffH
	DD	FLAT:__unwindfunclet$?GetTextHorzVertPosition@CElementTreeBuilder@@ABE_NABV?$CStringT@DV?$StrTraitMFC_DLL@DV?$ChTraitsCRT@D@ATL@@@@@ATL@@AAVCTextHorzVertPosition@@@Z$0
	DD	00H
	DD	FLAT:__unwindfunclet$?GetTextHorzVertPosition@CElementTreeBuilder@@ABE_NABV?$CStringT@DV?$StrTraitMFC_DLL@DV?$ChTraitsCRT@D@ATL@@@@@ATL@@AAVCTextHorzVertPosition@@@Z$1
	DD	01H
	DD	FLAT:__unwindfunclet$?GetTextHorzVertPosition@CElementTreeBuilder@@ABE_NABV?$CStringT@DV?$StrTraitMFC_DLL@DV?$ChTraitsCRT@D@ATL@@@@@ATL@@AAVCTextHorzVertPosition@@@Z$15
	DD	01H
	DD	FLAT:__unwindfunclet$?GetTextHorzVertPosition@CElementTreeBuilder@@ABE_NABV?$CStringT@DV?$StrTraitMFC_DLL@DV?$ChTraitsCRT@D@ATL@@@@@ATL@@AAVCTextHorzVertPosition@@@Z$2
	DD	00H
	DD	FLAT:__unwindfunclet$?GetTextHorzVertPosition@CElementTreeBuilder@@ABE_NABV?$CStringT@DV?$StrTraitMFC_DLL@DV?$ChTraitsCRT@D@ATL@@@@@ATL@@AAVCTextHorzVertPosition@@@Z$2
	DD	0ffffffffH
	DD	FLAT:__unwindfunclet$?GetTextHorzVertPosition@CElementTreeBuilder@@ABE_NABV?$CStringT@DV?$StrTraitMFC_DLL@DV?$ChTraitsCRT@D@ATL@@@@@ATL@@AAVCTextHorzVertPosition@@@Z$2
	DD	05H
	DD	FLAT:__unwindfunclet$?GetTextHorzVertPosition@CElementTreeBuilder@@ABE_NABV?$CStringT@DV?$StrTraitMFC_DLL@DV?$ChTraitsCRT@D@ATL@@@@@ATL@@AAVCTextHorzVertPosition@@@Z$3
	DD	06H
	DD	FLAT:__unwindfunclet$?GetTextHorzVertPosition@CElementTreeBuilder@@ABE_NABV?$CStringT@DV?$StrTraitMFC_DLL@DV?$ChTraitsCRT@D@ATL@@@@@ATL@@AAVCTextHorzVertPosition@@@Z$4
	DD	07H
	DD	FLAT:__unwindfunclet$?GetTextHorzVertPosition@CElementTreeBuilder@@ABE_NABV?$CStringT@DV?$StrTraitMFC_DLL@DV?$ChTraitsCRT@D@ATL@@@@@ATL@@AAVCTextHorzVertPosition@@@Z$18
	DD	07H
	DD	FLAT:__unwindfunclet$?GetTextHorzVertPosition@CElementTreeBuilder@@ABE_NABV?$CStringT@DV?$StrTraitMFC_DLL@DV?$ChTraitsCRT@D@ATL@@@@@ATL@@AAVCTextHorzVertPosition@@@Z$5
	DD	05H
	DD	FLAT:__unwindfunclet$?GetTextHorzVertPosition@CElementTreeBuilder@@ABE_NABV?$CStringT@DV?$StrTraitMFC_DLL@DV?$ChTraitsCRT@D@ATL@@@@@ATL@@AAVCTextHorzVertPosition@@@Z$6
	DD	0aH
	DD	FLAT:__unwindfunclet$?GetTextHorzVertPosition@CElementTreeBuilder@@ABE_NABV?$CStringT@DV?$StrTraitMFC_DLL@DV?$ChTraitsCRT@D@ATL@@@@@ATL@@AAVCTextHorzVertPosition@@@Z$7
	DD	0bH
	DD	FLAT:__unwindfunclet$?GetTextHorzVertPosition@CElementTreeBuilder@@ABE_NABV?$CStringT@DV?$StrTraitMFC_DLL@DV?$ChTraitsCRT@D@ATL@@@@@ATL@@AAVCTextHorzVertPosition@@@Z$21
	DD	0bH
	DD	FLAT:__unwindfunclet$?GetTextHorzVertPosition@CElementTreeBuilder@@ABE_NABV?$CStringT@DV?$StrTraitMFC_DLL@DV?$ChTraitsCRT@D@ATL@@@@@ATL@@AAVCTextHorzVertPosition@@@Z$8
	DD	05H
	DD	FLAT:__unwindfunclet$?GetTextHorzVertPosition@CElementTreeBuilder@@ABE_NABV?$CStringT@DV?$StrTraitMFC_DLL@DV?$ChTraitsCRT@D@ATL@@@@@ATL@@AAVCTextHorzVertPosition@@@Z$9
	DD	0eH
	DD	FLAT:__unwindfunclet$?GetTextHorzVertPosition@CElementTreeBuilder@@ABE_NABV?$CStringT@DV?$StrTraitMFC_DLL@DV?$ChTraitsCRT@D@ATL@@@@@ATL@@AAVCTextHorzVertPosition@@@Z$10
	DD	0fH
	DD	FLAT:__unwindfunclet$?GetTextHorzVertPosition@CElementTreeBuilder@@ABE_NABV?$CStringT@DV?$StrTraitMFC_DLL@DV?$ChTraitsCRT@D@ATL@@@@@ATL@@AAVCTextHorzVertPosition@@@Z$24
	DD	0fH
	DD	FLAT:__unwindfunclet$?GetTextHorzVertPosition@CElementTreeBuilder@@ABE_NABV?$CStringT@DV?$StrTraitMFC_DLL@DV?$ChTraitsCRT@D@ATL@@@@@ATL@@AAVCTextHorzVertPosition@@@Z$11
	DD	05H
	DD	FLAT:__unwindfunclet$?GetTextHorzVertPosition@CElementTreeBuilder@@ABE_NABV?$CStringT@DV?$StrTraitMFC_DLL@DV?$ChTraitsCRT@D@ATL@@@@@ATL@@AAVCTextHorzVertPosition@@@Z$12
	DD	012H
	DD	FLAT:__unwindfunclet$?GetTextHorzVertPosition@CElementTreeBuilder@@ABE_NABV?$CStringT@DV?$StrTraitMFC_DLL@DV?$ChTraitsCRT@D@ATL@@@@@ATL@@AAVCTextHorzVertPosition@@@Z$13
	DD	013H
	DD	FLAT:__unwindfunclet$?GetTextHorzVertPosition@CElementTreeBuilder@@ABE_NABV?$CStringT@DV?$StrTraitMFC_DLL@DV?$ChTraitsCRT@D@ATL@@@@@ATL@@AAVCTextHorzVertPosition@@@Z$27
	DD	013H
	DD	FLAT:__unwindfunclet$?GetTextHorzVertPosition@CElementTreeBuilder@@ABE_NABV?$CStringT@DV?$StrTraitMFC_DLL@DV?$ChTraitsCRT@D@ATL@@@@@ATL@@AAVCTextHorzVertPosition@@@Z$14
xdata$x	ENDS
;	COMDAT xdata$x
xdata$x	SEGMENT
__ehfuncinfo$?GetTextVertPosition@CElementTreeBuilder@@ABE_NABV?$CStringT@DV?$StrTraitMFC_DLL@DV?$ChTraitsCRT@D@ATL@@@@@ATL@@AAVCTextVertPosition@@@Z DD 019930522H
	DD	0eH
	DD	FLAT:__unwindtable$?GetTextVertPosition@CElementTreeBuilder@@ABE_NABV?$CStringT@DV?$StrTraitMFC_DLL@DV?$ChTraitsCRT@D@ATL@@@@@ATL@@AAVCTextVertPosition@@@Z
	DD	2 DUP(00H)
	DD	2 DUP(00H)
	DD	00H
	DD	01H
__unwindtable$?GetTextVertPosition@CElementTreeBuilder@@ABE_NABV?$CStringT@DV?$StrTraitMFC_DLL@DV?$ChTraitsCRT@D@ATL@@@@@ATL@@AAVCTextVertPosition@@@Z DD 0ffffffffH
	DD	FLAT:__unwindfunclet$?GetTextVertPosition@CElementTreeBuilder@@ABE_NABV?$CStringT@DV?$StrTraitMFC_DLL@DV?$ChTraitsCRT@D@ATL@@@@@ATL@@AAVCTextVertPosition@@@Z$0
	DD	00H
	DD	FLAT:__unwindfunclet$?GetTextVertPosition@CElementTreeBuilder@@ABE_NABV?$CStringT@DV?$StrTraitMFC_DLL@DV?$ChTraitsCRT@D@ATL@@@@@ATL@@AAVCTextVertPosition@@@Z$1
	DD	01H
	DD	FLAT:__unwindfunclet$?GetTextVertPosition@CElementTreeBuilder@@ABE_NABV?$CStringT@DV?$StrTraitMFC_DLL@DV?$ChTraitsCRT@D@ATL@@@@@ATL@@AAVCTextVertPosition@@@Z$9
	DD	01H
	DD	FLAT:__unwindfunclet$?GetTextVertPosition@CElementTreeBuilder@@ABE_NABV?$CStringT@DV?$StrTraitMFC_DLL@DV?$ChTraitsCRT@D@ATL@@@@@ATL@@AAVCTextVertPosition@@@Z$2
	DD	00H
	DD	FLAT:__unwindfunclet$?GetTextVertPosition@CElementTreeBuilder@@ABE_NABV?$CStringT@DV?$StrTraitMFC_DLL@DV?$ChTraitsCRT@D@ATL@@@@@ATL@@AAVCTextVertPosition@@@Z$2
	DD	0ffffffffH
	DD	FLAT:__unwindfunclet$?GetTextVertPosition@CElementTreeBuilder@@ABE_NABV?$CStringT@DV?$StrTraitMFC_DLL@DV?$ChTraitsCRT@D@ATL@@@@@ATL@@AAVCTextVertPosition@@@Z$2
	DD	05H
	DD	FLAT:__unwindfunclet$?GetTextVertPosition@CElementTreeBuilder@@ABE_NABV?$CStringT@DV?$StrTraitMFC_DLL@DV?$ChTraitsCRT@D@ATL@@@@@ATL@@AAVCTextVertPosition@@@Z$3
	DD	06H
	DD	FLAT:__unwindfunclet$?GetTextVertPosition@CElementTreeBuilder@@ABE_NABV?$CStringT@DV?$StrTraitMFC_DLL@DV?$ChTraitsCRT@D@ATL@@@@@ATL@@AAVCTextVertPosition@@@Z$4
	DD	07H
	DD	FLAT:__unwindfunclet$?GetTextVertPosition@CElementTreeBuilder@@ABE_NABV?$CStringT@DV?$StrTraitMFC_DLL@DV?$ChTraitsCRT@D@ATL@@@@@ATL@@AAVCTextVertPosition@@@Z$12
	DD	07H
	DD	FLAT:__unwindfunclet$?GetTextVertPosition@CElementTreeBuilder@@ABE_NABV?$CStringT@DV?$StrTraitMFC_DLL@DV?$ChTraitsCRT@D@ATL@@@@@ATL@@AAVCTextVertPosition@@@Z$5
	DD	05H
	DD	FLAT:__unwindfunclet$?GetTextVertPosition@CElementTreeBuilder@@ABE_NABV?$CStringT@DV?$StrTraitMFC_DLL@DV?$ChTraitsCRT@D@ATL@@@@@ATL@@AAVCTextVertPosition@@@Z$6
	DD	0aH
	DD	FLAT:__unwindfunclet$?GetTextVertPosition@CElementTreeBuilder@@ABE_NABV?$CStringT@DV?$StrTraitMFC_DLL@DV?$ChTraitsCRT@D@ATL@@@@@ATL@@AAVCTextVertPosition@@@Z$7
	DD	0bH
	DD	FLAT:__unwindfunclet$?GetTextVertPosition@CElementTreeBuilder@@ABE_NABV?$CStringT@DV?$StrTraitMFC_DLL@DV?$ChTraitsCRT@D@ATL@@@@@ATL@@AAVCTextVertPosition@@@Z$15
	DD	0bH
	DD	FLAT:__unwindfunclet$?GetTextVertPosition@CElementTreeBuilder@@ABE_NABV?$CStringT@DV?$StrTraitMFC_DLL@DV?$ChTraitsCRT@D@ATL@@@@@ATL@@AAVCTextVertPosition@@@Z$8
xdata$x	ENDS
;	COMDAT xdata$x
xdata$x	SEGMENT
__ehfuncinfo$?GetTextHorzPosition@CElementTreeBuilder@@ABE_NABV?$CStringT@DV?$StrTraitMFC_DLL@DV?$ChTraitsCRT@D@ATL@@@@@ATL@@AAVCTextHorzPosition@@@Z DD 019930522H
	DD	012H
	DD	FLAT:__unwindtable$?GetTextHorzPosition@CElementTreeBuilder@@ABE_NABV?$CStringT@DV?$StrTraitMFC_DLL@DV?$ChTraitsCRT@D@ATL@@@@@ATL@@AAVCTextHorzPosition@@@Z
	DD	2 DUP(00H)
	DD	2 DUP(00H)
	DD	00H
	DD	01H
__unwindtable$?GetTextHorzPosition@CElementTreeBuilder@@ABE_NABV?$CStringT@DV?$StrTraitMFC_DLL@DV?$ChTraitsCRT@D@ATL@@@@@ATL@@AAVCTextHorzPosition@@@Z DD 0ffffffffH
	DD	FLAT:__unwindfunclet$?GetTextHorzPosition@CElementTreeBuilder@@ABE_NABV?$CStringT@DV?$StrTraitMFC_DLL@DV?$ChTraitsCRT@D@ATL@@@@@ATL@@AAVCTextHorzPosition@@@Z$0
	DD	00H
	DD	FLAT:__unwindfunclet$?GetTextHorzPosition@CElementTreeBuilder@@ABE_NABV?$CStringT@DV?$StrTraitMFC_DLL@DV?$ChTraitsCRT@D@ATL@@@@@ATL@@AAVCTextHorzPosition@@@Z$1
	DD	01H
	DD	FLAT:__unwindfunclet$?GetTextHorzPosition@CElementTreeBuilder@@ABE_NABV?$CStringT@DV?$StrTraitMFC_DLL@DV?$ChTraitsCRT@D@ATL@@@@@ATL@@AAVCTextHorzPosition@@@Z$12
	DD	01H
	DD	FLAT:__unwindfunclet$?GetTextHorzPosition@CElementTreeBuilder@@ABE_NABV?$CStringT@DV?$StrTraitMFC_DLL@DV?$ChTraitsCRT@D@ATL@@@@@ATL@@AAVCTextHorzPosition@@@Z$2
	DD	00H
	DD	FLAT:__unwindfunclet$?GetTextHorzPosition@CElementTreeBuilder@@ABE_NABV?$CStringT@DV?$StrTraitMFC_DLL@DV?$ChTraitsCRT@D@ATL@@@@@ATL@@AAVCTextHorzPosition@@@Z$2
	DD	0ffffffffH
	DD	FLAT:__unwindfunclet$?GetTextHorzPosition@CElementTreeBuilder@@ABE_NABV?$CStringT@DV?$StrTraitMFC_DLL@DV?$ChTraitsCRT@D@ATL@@@@@ATL@@AAVCTextHorzPosition@@@Z$2
	DD	05H
	DD	FLAT:__unwindfunclet$?GetTextHorzPosition@CElementTreeBuilder@@ABE_NABV?$CStringT@DV?$StrTraitMFC_DLL@DV?$ChTraitsCRT@D@ATL@@@@@ATL@@AAVCTextHorzPosition@@@Z$3
	DD	06H
	DD	FLAT:__unwindfunclet$?GetTextHorzPosition@CElementTreeBuilder@@ABE_NABV?$CStringT@DV?$StrTraitMFC_DLL@DV?$ChTraitsCRT@D@ATL@@@@@ATL@@AAVCTextHorzPosition@@@Z$4
	DD	07H
	DD	FLAT:__unwindfunclet$?GetTextHorzPosition@CElementTreeBuilder@@ABE_NABV?$CStringT@DV?$StrTraitMFC_DLL@DV?$ChTraitsCRT@D@ATL@@@@@ATL@@AAVCTextHorzPosition@@@Z$15
	DD	07H
	DD	FLAT:__unwindfunclet$?GetTextHorzPosition@CElementTreeBuilder@@ABE_NABV?$CStringT@DV?$StrTraitMFC_DLL@DV?$ChTraitsCRT@D@ATL@@@@@ATL@@AAVCTextHorzPosition@@@Z$5
	DD	05H
	DD	FLAT:__unwindfunclet$?GetTextHorzPosition@CElementTreeBuilder@@ABE_NABV?$CStringT@DV?$StrTraitMFC_DLL@DV?$ChTraitsCRT@D@ATL@@@@@ATL@@AAVCTextHorzPosition@@@Z$6
	DD	0aH
	DD	FLAT:__unwindfunclet$?GetTextHorzPosition@CElementTreeBuilder@@ABE_NABV?$CStringT@DV?$StrTraitMFC_DLL@DV?$ChTraitsCRT@D@ATL@@@@@ATL@@AAVCTextHorzPosition@@@Z$7
	DD	0bH
	DD	FLAT:__unwindfunclet$?GetTextHorzPosition@CElementTreeBuilder@@ABE_NABV?$CStringT@DV?$StrTraitMFC_DLL@DV?$ChTraitsCRT@D@ATL@@@@@ATL@@AAVCTextHorzPosition@@@Z$18
	DD	0bH
	DD	FLAT:__unwindfunclet$?GetTextHorzPosition@CElementTreeBuilder@@ABE_NABV?$CStringT@DV?$StrTraitMFC_DLL@DV?$ChTraitsCRT@D@ATL@@@@@ATL@@AAVCTextHorzPosition@@@Z$8
	DD	05H
	DD	FLAT:__unwindfunclet$?GetTextHorzPosition@CElementTreeBuilder@@ABE_NABV?$CStringT@DV?$StrTraitMFC_DLL@DV?$ChTraitsCRT@D@ATL@@@@@ATL@@AAVCTextHorzPosition@@@Z$9
	DD	0eH
	DD	FLAT:__unwindfunclet$?GetTextHorzPosition@CElementTreeBuilder@@ABE_NABV?$CStringT@DV?$StrTraitMFC_DLL@DV?$ChTraitsCRT@D@ATL@@@@@ATL@@AAVCTextHorzPosition@@@Z$10
	DD	0fH
	DD	FLAT:__unwindfunclet$?GetTextHorzPosition@CElementTreeBuilder@@ABE_NABV?$CStringT@DV?$StrTraitMFC_DLL@DV?$ChTraitsCRT@D@ATL@@@@@ATL@@AAVCTextHorzPosition@@@Z$21
	DD	0fH
	DD	FLAT:__unwindfunclet$?GetTextHorzPosition@CElementTreeBuilder@@ABE_NABV?$CStringT@DV?$StrTraitMFC_DLL@DV?$ChTraitsCRT@D@ATL@@@@@ATL@@AAVCTextHorzPosition@@@Z$11
xdata$x	ENDS
;	COMDAT xdata$x
xdata$x	SEGMENT
__ehfuncinfo$?GetTextShowPosition@CElementTreeBuilder@@ABE_NABV?$CStringT@DV?$StrTraitMFC_DLL@DV?$ChTraitsCRT@D@ATL@@@@@ATL@@AAVCTextShowPosition@@@Z DD 019930522H
	DD	0cH
	DD	FLAT:__unwindtable$?GetTextShowPosition@CElementTreeBuilder@@ABE_NABV?$CStringT@DV?$StrTraitMFC_DLL@DV?$ChTraitsCRT@D@ATL@@@@@ATL@@AAVCTextShowPosition@@@Z
	DD	2 DUP(00H)
	DD	2 DUP(00H)
	DD	00H
	DD	01H
__unwindtable$?GetTextShowPosition@CElementTreeBuilder@@ABE_NABV?$CStringT@DV?$StrTraitMFC_DLL@DV?$ChTraitsCRT@D@ATL@@@@@ATL@@AAVCTextShowPosition@@@Z DD 0ffffffffH
	DD	FLAT:__unwindfunclet$?GetTextShowPosition@CElementTreeBuilder@@ABE_NABV?$CStringT@DV?$StrTraitMFC_DLL@DV?$ChTraitsCRT@D@ATL@@@@@ATL@@AAVCTextShowPosition@@@Z$0
	DD	00H
	DD	FLAT:__unwindfunclet$?GetTextShowPosition@CElementTreeBuilder@@ABE_NABV?$CStringT@DV?$StrTraitMFC_DLL@DV?$ChTraitsCRT@D@ATL@@@@@ATL@@AAVCTextShowPosition@@@Z$1
	DD	01H
	DD	FLAT:__unwindfunclet$?GetTextShowPosition@CElementTreeBuilder@@ABE_NABV?$CStringT@DV?$StrTraitMFC_DLL@DV?$ChTraitsCRT@D@ATL@@@@@ATL@@AAVCTextShowPosition@@@Z$6
	DD	01H
	DD	FLAT:__unwindfunclet$?GetTextShowPosition@CElementTreeBuilder@@ABE_NABV?$CStringT@DV?$StrTraitMFC_DLL@DV?$ChTraitsCRT@D@ATL@@@@@ATL@@AAVCTextShowPosition@@@Z$2
	DD	00H
	DD	FLAT:__unwindfunclet$?GetTextShowPosition@CElementTreeBuilder@@ABE_NABV?$CStringT@DV?$StrTraitMFC_DLL@DV?$ChTraitsCRT@D@ATL@@@@@ATL@@AAVCTextShowPosition@@@Z$2
	DD	0ffffffffH
	DD	FLAT:__unwindfunclet$?GetTextShowPosition@CElementTreeBuilder@@ABE_NABV?$CStringT@DV?$StrTraitMFC_DLL@DV?$ChTraitsCRT@D@ATL@@@@@ATL@@AAVCTextShowPosition@@@Z$2
	DD	05H
	DD	FLAT:__unwindfunclet$?GetTextShowPosition@CElementTreeBuilder@@ABE_NABV?$CStringT@DV?$StrTraitMFC_DLL@DV?$ChTraitsCRT@D@ATL@@@@@ATL@@AAVCTextShowPosition@@@Z$3
	DD	06H
	DD	FLAT:__unwindfunclet$?GetTextShowPosition@CElementTreeBuilder@@ABE_NABV?$CStringT@DV?$StrTraitMFC_DLL@DV?$ChTraitsCRT@D@ATL@@@@@ATL@@AAVCTextShowPosition@@@Z$4
	DD	07H
	DD	FLAT:__unwindfunclet$?GetTextShowPosition@CElementTreeBuilder@@ABE_NABV?$CStringT@DV?$StrTraitMFC_DLL@DV?$ChTraitsCRT@D@ATL@@@@@ATL@@AAVCTextShowPosition@@@Z$9
	DD	07H
	DD	FLAT:__unwindfunclet$?GetTextShowPosition@CElementTreeBuilder@@ABE_NABV?$CStringT@DV?$StrTraitMFC_DLL@DV?$ChTraitsCRT@D@ATL@@@@@ATL@@AAVCTextShowPosition@@@Z$5
	DD	06H
	DD	FLAT:__unwindfunclet$?GetTextShowPosition@CElementTreeBuilder@@ABE_NABV?$CStringT@DV?$StrTraitMFC_DLL@DV?$ChTraitsCRT@D@ATL@@@@@ATL@@AAVCTextShowPosition@@@Z$5
	DD	05H
	DD	FLAT:__unwindfunclet$?GetTextShowPosition@CElementTreeBuilder@@ABE_NABV?$CStringT@DV?$StrTraitMFC_DLL@DV?$ChTraitsCRT@D@ATL@@@@@ATL@@AAVCTextShowPosition@@@Z$5
xdata$x	ENDS
;	COMDAT xdata$x
xdata$x	SEGMENT
__ehfuncinfo$?GetPoint@CElementTreeBuilder@@ABE?AVCCoordinate@@ABV?$CStringT@DV?$StrTraitMFC_DLL@DV?$ChTraitsCRT@D@ATL@@@@@ATL@@ABH@Z DD 019930522H
	DD	02eH
	DD	FLAT:__unwindtable$?GetPoint@CElementTreeBuilder@@ABE?AVCCoordinate@@ABV?$CStringT@DV?$StrTraitMFC_DLL@DV?$ChTraitsCRT@D@ATL@@@@@ATL@@ABH@Z
	DD	2 DUP(00H)
	DD	2 DUP(00H)
	DD	00H
	DD	01H
__unwindtable$?GetPoint@CElementTreeBuilder@@ABE?AVCCoordinate@@ABV?$CStringT@DV?$StrTraitMFC_DLL@DV?$ChTraitsCRT@D@ATL@@@@@ATL@@ABH@Z DD 0ffffffffH
	DD	FLAT:__unwindfunclet$?GetPoint@CElementTreeBuilder@@ABE?AVCCoordinate@@ABV?$CStringT@DV?$StrTraitMFC_DLL@DV?$ChTraitsCRT@D@ATL@@@@@ATL@@ABH@Z$0
	DD	00H
	DD	FLAT:__unwindfunclet$?GetPoint@CElementTreeBuilder@@ABE?AVCCoordinate@@ABV?$CStringT@DV?$StrTraitMFC_DLL@DV?$ChTraitsCRT@D@ATL@@@@@ATL@@ABH@Z$1
	DD	01H
	DD	FLAT:__unwindfunclet$?GetPoint@CElementTreeBuilder@@ABE?AVCCoordinate@@ABV?$CStringT@DV?$StrTraitMFC_DLL@DV?$ChTraitsCRT@D@ATL@@@@@ATL@@ABH@Z$41
	DD	01H
	DD	FLAT:__unwindfunclet$?GetPoint@CElementTreeBuilder@@ABE?AVCCoordinate@@ABV?$CStringT@DV?$StrTraitMFC_DLL@DV?$ChTraitsCRT@D@ATL@@@@@ATL@@ABH@Z$2
	DD	00H
	DD	FLAT:__unwindfunclet$?GetPoint@CElementTreeBuilder@@ABE?AVCCoordinate@@ABV?$CStringT@DV?$StrTraitMFC_DLL@DV?$ChTraitsCRT@D@ATL@@@@@ATL@@ABH@Z$2
	DD	0ffffffffH
	DD	FLAT:__unwindfunclet$?GetPoint@CElementTreeBuilder@@ABE?AVCCoordinate@@ABV?$CStringT@DV?$StrTraitMFC_DLL@DV?$ChTraitsCRT@D@ATL@@@@@ATL@@ABH@Z$2
	DD	05H
	DD	FLAT:__unwindfunclet$?GetPoint@CElementTreeBuilder@@ABE?AVCCoordinate@@ABV?$CStringT@DV?$StrTraitMFC_DLL@DV?$ChTraitsCRT@D@ATL@@@@@ATL@@ABH@Z$3
	DD	06H
	DD	FLAT:__unwindfunclet$?GetPoint@CElementTreeBuilder@@ABE?AVCCoordinate@@ABV?$CStringT@DV?$StrTraitMFC_DLL@DV?$ChTraitsCRT@D@ATL@@@@@ATL@@ABH@Z$4
	DD	05H
	DD	FLAT:__unwindfunclet$?GetPoint@CElementTreeBuilder@@ABE?AVCCoordinate@@ABV?$CStringT@DV?$StrTraitMFC_DLL@DV?$ChTraitsCRT@D@ATL@@@@@ATL@@ABH@Z$4
	DD	08H
	DD	FLAT:__unwindfunclet$?GetPoint@CElementTreeBuilder@@ABE?AVCCoordinate@@ABV?$CStringT@DV?$StrTraitMFC_DLL@DV?$ChTraitsCRT@D@ATL@@@@@ATL@@ABH@Z$5
	DD	09H
	DD	FLAT:__unwindfunclet$?GetPoint@CElementTreeBuilder@@ABE?AVCCoordinate@@ABV?$CStringT@DV?$StrTraitMFC_DLL@DV?$ChTraitsCRT@D@ATL@@@@@ATL@@ABH@Z$6
	DD	08H
	DD	FLAT:__unwindfunclet$?GetPoint@CElementTreeBuilder@@ABE?AVCCoordinate@@ABV?$CStringT@DV?$StrTraitMFC_DLL@DV?$ChTraitsCRT@D@ATL@@@@@ATL@@ABH@Z$6
	DD	0bH
	DD	FLAT:__unwindfunclet$?GetPoint@CElementTreeBuilder@@ABE?AVCCoordinate@@ABV?$CStringT@DV?$StrTraitMFC_DLL@DV?$ChTraitsCRT@D@ATL@@@@@ATL@@ABH@Z$7
	DD	0cH
	DD	FLAT:__unwindfunclet$?GetPoint@CElementTreeBuilder@@ABE?AVCCoordinate@@ABV?$CStringT@DV?$StrTraitMFC_DLL@DV?$ChTraitsCRT@D@ATL@@@@@ATL@@ABH@Z$8
	DD	0bH
	DD	FLAT:__unwindfunclet$?GetPoint@CElementTreeBuilder@@ABE?AVCCoordinate@@ABV?$CStringT@DV?$StrTraitMFC_DLL@DV?$ChTraitsCRT@D@ATL@@@@@ATL@@ABH@Z$8
	DD	0eH
	DD	FLAT:__unwindfunclet$?GetPoint@CElementTreeBuilder@@ABE?AVCCoordinate@@ABV?$CStringT@DV?$StrTraitMFC_DLL@DV?$ChTraitsCRT@D@ATL@@@@@ATL@@ABH@Z$9
	DD	0fH
	DD	FLAT:__unwindfunclet$?GetPoint@CElementTreeBuilder@@ABE?AVCCoordinate@@ABV?$CStringT@DV?$StrTraitMFC_DLL@DV?$ChTraitsCRT@D@ATL@@@@@ATL@@ABH@Z$10
	DD	010H
	DD	FLAT:__unwindfunclet$?GetPoint@CElementTreeBuilder@@ABE?AVCCoordinate@@ABV?$CStringT@DV?$StrTraitMFC_DLL@DV?$ChTraitsCRT@D@ATL@@@@@ATL@@ABH@Z$11
	DD	011H
	DD	FLAT:__unwindfunclet$?GetPoint@CElementTreeBuilder@@ABE?AVCCoordinate@@ABV?$CStringT@DV?$StrTraitMFC_DLL@DV?$ChTraitsCRT@D@ATL@@@@@ATL@@ABH@Z$12
	DD	012H
	DD	FLAT:__unwindfunclet$?GetPoint@CElementTreeBuilder@@ABE?AVCCoordinate@@ABV?$CStringT@DV?$StrTraitMFC_DLL@DV?$ChTraitsCRT@D@ATL@@@@@ATL@@ABH@Z$13
	DD	013H
	DD	FLAT:__unwindfunclet$?GetPoint@CElementTreeBuilder@@ABE?AVCCoordinate@@ABV?$CStringT@DV?$StrTraitMFC_DLL@DV?$ChTraitsCRT@D@ATL@@@@@ATL@@ABH@Z$14
	DD	014H
	DD	FLAT:__unwindfunclet$?GetPoint@CElementTreeBuilder@@ABE?AVCCoordinate@@ABV?$CStringT@DV?$StrTraitMFC_DLL@DV?$ChTraitsCRT@D@ATL@@@@@ATL@@ABH@Z$49
	DD	014H
	DD	FLAT:__unwindfunclet$?GetPoint@CElementTreeBuilder@@ABE?AVCCoordinate@@ABV?$CStringT@DV?$StrTraitMFC_DLL@DV?$ChTraitsCRT@D@ATL@@@@@ATL@@ABH@Z$50
	DD	014H
	DD	FLAT:__unwindfunclet$?GetPoint@CElementTreeBuilder@@ABE?AVCCoordinate@@ABV?$CStringT@DV?$StrTraitMFC_DLL@DV?$ChTraitsCRT@D@ATL@@@@@ATL@@ABH@Z$17
	DD	017H
	DD	FLAT:__unwindfunclet$?GetPoint@CElementTreeBuilder@@ABE?AVCCoordinate@@ABV?$CStringT@DV?$StrTraitMFC_DLL@DV?$ChTraitsCRT@D@ATL@@@@@ATL@@ABH@Z$18
	DD	018H
	DD	FLAT:__unwindfunclet$?GetPoint@CElementTreeBuilder@@ABE?AVCCoordinate@@ABV?$CStringT@DV?$StrTraitMFC_DLL@DV?$ChTraitsCRT@D@ATL@@@@@ATL@@ABH@Z$19
	DD	018H
	DD	FLAT:__unwindfunclet$?GetPoint@CElementTreeBuilder@@ABE?AVCCoordinate@@ABV?$CStringT@DV?$StrTraitMFC_DLL@DV?$ChTraitsCRT@D@ATL@@@@@ATL@@ABH@Z$20
	DD	018H
	DD	FLAT:__unwindfunclet$?GetPoint@CElementTreeBuilder@@ABE?AVCCoordinate@@ABV?$CStringT@DV?$StrTraitMFC_DLL@DV?$ChTraitsCRT@D@ATL@@@@@ATL@@ABH@Z$21
	DD	018H
	DD	FLAT:__unwindfunclet$?GetPoint@CElementTreeBuilder@@ABE?AVCCoordinate@@ABV?$CStringT@DV?$StrTraitMFC_DLL@DV?$ChTraitsCRT@D@ATL@@@@@ATL@@ABH@Z$22
	DD	018H
	DD	FLAT:__unwindfunclet$?GetPoint@CElementTreeBuilder@@ABE?AVCCoordinate@@ABV?$CStringT@DV?$StrTraitMFC_DLL@DV?$ChTraitsCRT@D@ATL@@@@@ATL@@ABH@Z$23
	DD	01dH
	DD	FLAT:__unwindfunclet$?GetPoint@CElementTreeBuilder@@ABE?AVCCoordinate@@ABV?$CStringT@DV?$StrTraitMFC_DLL@DV?$ChTraitsCRT@D@ATL@@@@@ATL@@ABH@Z$24
	DD	018H
	DD	FLAT:__unwindfunclet$?GetPoint@CElementTreeBuilder@@ABE?AVCCoordinate@@ABV?$CStringT@DV?$StrTraitMFC_DLL@DV?$ChTraitsCRT@D@ATL@@@@@ATL@@ABH@Z$24
	DD	01fH
	DD	FLAT:__unwindfunclet$?GetPoint@CElementTreeBuilder@@ABE?AVCCoordinate@@ABV?$CStringT@DV?$StrTraitMFC_DLL@DV?$ChTraitsCRT@D@ATL@@@@@ATL@@ABH@Z$25
	DD	020H
	DD	FLAT:__unwindfunclet$?GetPoint@CElementTreeBuilder@@ABE?AVCCoordinate@@ABV?$CStringT@DV?$StrTraitMFC_DLL@DV?$ChTraitsCRT@D@ATL@@@@@ATL@@ABH@Z$26
	DD	021H
	DD	FLAT:__unwindfunclet$?GetPoint@CElementTreeBuilder@@ABE?AVCCoordinate@@ABV?$CStringT@DV?$StrTraitMFC_DLL@DV?$ChTraitsCRT@D@ATL@@@@@ATL@@ABH@Z$27
	DD	022H
	DD	FLAT:__unwindfunclet$?GetPoint@CElementTreeBuilder@@ABE?AVCCoordinate@@ABV?$CStringT@DV?$StrTraitMFC_DLL@DV?$ChTraitsCRT@D@ATL@@@@@ATL@@ABH@Z$28
	DD	023H
	DD	FLAT:__unwindfunclet$?GetPoint@CElementTreeBuilder@@ABE?AVCCoordinate@@ABV?$CStringT@DV?$StrTraitMFC_DLL@DV?$ChTraitsCRT@D@ATL@@@@@ATL@@ABH@Z$29
	DD	024H
	DD	FLAT:__unwindfunclet$?GetPoint@CElementTreeBuilder@@ABE?AVCCoordinate@@ABV?$CStringT@DV?$StrTraitMFC_DLL@DV?$ChTraitsCRT@D@ATL@@@@@ATL@@ABH@Z$51
	DD	014H
	DD	FLAT:__unwindfunclet$?GetPoint@CElementTreeBuilder@@ABE?AVCCoordinate@@ABV?$CStringT@DV?$StrTraitMFC_DLL@DV?$ChTraitsCRT@D@ATL@@@@@ATL@@ABH@Z$31
	DD	026H
	DD	FLAT:__unwindfunclet$?GetPoint@CElementTreeBuilder@@ABE?AVCCoordinate@@ABV?$CStringT@DV?$StrTraitMFC_DLL@DV?$ChTraitsCRT@D@ATL@@@@@ATL@@ABH@Z$32
	DD	026H
	DD	FLAT:__unwindfunclet$?GetPoint@CElementTreeBuilder@@ABE?AVCCoordinate@@ABV?$CStringT@DV?$StrTraitMFC_DLL@DV?$ChTraitsCRT@D@ATL@@@@@ATL@@ABH@Z$33
	DD	026H
	DD	FLAT:__unwindfunclet$?GetPoint@CElementTreeBuilder@@ABE?AVCCoordinate@@ABV?$CStringT@DV?$StrTraitMFC_DLL@DV?$ChTraitsCRT@D@ATL@@@@@ATL@@ABH@Z$34
	DD	029H
	DD	FLAT:__unwindfunclet$?GetPoint@CElementTreeBuilder@@ABE?AVCCoordinate@@ABV?$CStringT@DV?$StrTraitMFC_DLL@DV?$ChTraitsCRT@D@ATL@@@@@ATL@@ABH@Z$35
	DD	02aH
	DD	FLAT:__unwindfunclet$?GetPoint@CElementTreeBuilder@@ABE?AVCCoordinate@@ABV?$CStringT@DV?$StrTraitMFC_DLL@DV?$ChTraitsCRT@D@ATL@@@@@ATL@@ABH@Z$36
	DD	02bH
	DD	FLAT:__unwindfunclet$?GetPoint@CElementTreeBuilder@@ABE?AVCCoordinate@@ABV?$CStringT@DV?$StrTraitMFC_DLL@DV?$ChTraitsCRT@D@ATL@@@@@ATL@@ABH@Z$37
	DD	02cH
	DD	FLAT:__unwindfunclet$?GetPoint@CElementTreeBuilder@@ABE?AVCCoordinate@@ABV?$CStringT@DV?$StrTraitMFC_DLL@DV?$ChTraitsCRT@D@ATL@@@@@ATL@@ABH@Z$38
xdata$x	ENDS
;	COMDAT xdata$x
xdata$x	SEGMENT
__ehfuncinfo$?GetPoint@CElementTreeBuilder@@ABEXABV?$CStringT@DV?$StrTraitMFC_DLL@DV?$ChTraitsCRT@D@ATL@@@@@ATL@@ABHAAV?$CDequeList@VCCoordinate@@@@@Z DD 019930522H
	DD	0aH
	DD	FLAT:__unwindtable$?GetPoint@CElementTreeBuilder@@ABEXABV?$CStringT@DV?$StrTraitMFC_DLL@DV?$ChTraitsCRT@D@ATL@@@@@ATL@@ABHAAV?$CDequeList@VCCoordinate@@@@@Z
	DD	2 DUP(00H)
	DD	2 DUP(00H)
	DD	00H
	DD	01H
__unwindtable$?GetPoint@CElementTreeBuilder@@ABEXABV?$CStringT@DV?$StrTraitMFC_DLL@DV?$ChTraitsCRT@D@ATL@@@@@ATL@@ABHAAV?$CDequeList@VCCoordinate@@@@@Z DD 0ffffffffH
	DD	FLAT:__unwindfunclet$?GetPoint@CElementTreeBuilder@@ABEXABV?$CStringT@DV?$StrTraitMFC_DLL@DV?$ChTraitsCRT@D@ATL@@@@@ATL@@ABHAAV?$CDequeList@VCCoordinate@@@@@Z$0
	DD	00H
	DD	FLAT:__unwindfunclet$?GetPoint@CElementTreeBuilder@@ABEXABV?$CStringT@DV?$StrTraitMFC_DLL@DV?$ChTraitsCRT@D@ATL@@@@@ATL@@ABHAAV?$CDequeList@VCCoordinate@@@@@Z$1
	DD	01H
	DD	FLAT:__unwindfunclet$?GetPoint@CElementTreeBuilder@@ABEXABV?$CStringT@DV?$StrTraitMFC_DLL@DV?$ChTraitsCRT@D@ATL@@@@@ATL@@ABHAAV?$CDequeList@VCCoordinate@@@@@Z$6
	DD	01H
	DD	FLAT:__unwindfunclet$?GetPoint@CElementTreeBuilder@@ABEXABV?$CStringT@DV?$StrTraitMFC_DLL@DV?$ChTraitsCRT@D@ATL@@@@@ATL@@ABHAAV?$CDequeList@VCCoordinate@@@@@Z$2
	DD	00H
	DD	FLAT:__unwindfunclet$?GetPoint@CElementTreeBuilder@@ABEXABV?$CStringT@DV?$StrTraitMFC_DLL@DV?$ChTraitsCRT@D@ATL@@@@@ATL@@ABHAAV?$CDequeList@VCCoordinate@@@@@Z$2
	DD	0ffffffffH
	DD	FLAT:__unwindfunclet$?GetPoint@CElementTreeBuilder@@ABEXABV?$CStringT@DV?$StrTraitMFC_DLL@DV?$ChTraitsCRT@D@ATL@@@@@ATL@@ABHAAV?$CDequeList@VCCoordinate@@@@@Z$2
	DD	05H
	DD	FLAT:__unwindfunclet$?GetPoint@CElementTreeBuilder@@ABEXABV?$CStringT@DV?$StrTraitMFC_DLL@DV?$ChTraitsCRT@D@ATL@@@@@ATL@@ABHAAV?$CDequeList@VCCoordinate@@@@@Z$3
	DD	06H
	DD	FLAT:__unwindfunclet$?GetPoint@CElementTreeBuilder@@ABEXABV?$CStringT@DV?$StrTraitMFC_DLL@DV?$ChTraitsCRT@D@ATL@@@@@ATL@@ABHAAV?$CDequeList@VCCoordinate@@@@@Z$4
	DD	05H
	DD	FLAT:__unwindfunclet$?GetPoint@CElementTreeBuilder@@ABEXABV?$CStringT@DV?$StrTraitMFC_DLL@DV?$ChTraitsCRT@D@ATL@@@@@ATL@@ABHAAV?$CDequeList@VCCoordinate@@@@@Z$4
	DD	08H
	DD	FLAT:__unwindfunclet$?GetPoint@CElementTreeBuilder@@ABEXABV?$CStringT@DV?$StrTraitMFC_DLL@DV?$ChTraitsCRT@D@ATL@@@@@ATL@@ABHAAV?$CDequeList@VCCoordinate@@@@@Z$5
xdata$x	ENDS
;	COMDAT xdata$x
xdata$x	SEGMENT
__unwindtable$?GetToolType@CElementTreeBuilder@@ABE?AW4TOOLTYPE@CAnalysis@@ABV?$CStringT@DV?$StrTraitMFC_DLL@DV?$ChTraitsCRT@D@ATL@@@@@ATL@@@Z DD 0ffffffffH
	DD	FLAT:__unwindfunclet$?GetToolType@CElementTreeBuilder@@ABE?AW4TOOLTYPE@CAnalysis@@ABV?$CStringT@DV?$StrTraitMFC_DLL@DV?$ChTraitsCRT@D@ATL@@@@@ATL@@@Z$0
	DD	00H
	DD	FLAT:__unwindfunclet$?GetToolType@CElementTreeBuilder@@ABE?AW4TOOLTYPE@CAnalysis@@ABV?$CStringT@DV?$StrTraitMFC_DLL@DV?$ChTraitsCRT@D@ATL@@@@@ATL@@@Z$1
	DD	01H
	DD	FLAT:__unwindfunclet$?GetToolType@CElementTreeBuilder@@ABE?AW4TOOLTYPE@CAnalysis@@ABV?$CStringT@DV?$StrTraitMFC_DLL@DV?$ChTraitsCRT@D@ATL@@@@@ATL@@@Z$3
__ehfuncinfo$?GetToolType@CElementTreeBuilder@@ABE?AW4TOOLTYPE@CAnalysis@@ABV?$CStringT@DV?$StrTraitMFC_DLL@DV?$ChTraitsCRT@D@ATL@@@@@ATL@@@Z DD 019930522H
	DD	03H
	DD	FLAT:__unwindtable$?GetToolType@CElementTreeBuilder@@ABE?AW4TOOLTYPE@CAnalysis@@ABV?$CStringT@DV?$StrTraitMFC_DLL@DV?$ChTraitsCRT@D@ATL@@@@@ATL@@@Z
	DD	2 DUP(00H)
	DD	2 DUP(00H)
	DD	00H
	DD	01H
xdata$x	ENDS
;	COMDAT xdata$x
xdata$x	SEGMENT
__unwindtable$?GetIndex@CElementTreeBuilder@@ABEHABV?$CStringT@DV?$StrTraitMFC_DLL@DV?$ChTraitsCRT@D@ATL@@@@@ATL@@@Z DD 0ffffffffH
	DD	FLAT:__unwindfunclet$?GetIndex@CElementTreeBuilder@@ABEHABV?$CStringT@DV?$StrTraitMFC_DLL@DV?$ChTraitsCRT@D@ATL@@@@@ATL@@@Z$0
	DD	00H
	DD	FLAT:__unwindfunclet$?GetIndex@CElementTreeBuilder@@ABEHABV?$CStringT@DV?$StrTraitMFC_DLL@DV?$ChTraitsCRT@D@ATL@@@@@ATL@@@Z$1
	DD	01H
	DD	FLAT:__unwindfunclet$?GetIndex@CElementTreeBuilder@@ABEHABV?$CStringT@DV?$StrTraitMFC_DLL@DV?$ChTraitsCRT@D@ATL@@@@@ATL@@@Z$3
__ehfuncinfo$?GetIndex@CElementTreeBuilder@@ABEHABV?$CStringT@DV?$StrTraitMFC_DLL@DV?$ChTraitsCRT@D@ATL@@@@@ATL@@@Z DD 019930522H
	DD	03H
	DD	FLAT:__unwindtable$?GetIndex@CElementTreeBuilder@@ABEHABV?$CStringT@DV?$StrTraitMFC_DLL@DV?$ChTraitsCRT@D@ATL@@@@@ATL@@@Z
	DD	2 DUP(00H)
	DD	2 DUP(00H)
	DD	00H
	DD	01H
xdata$x	ENDS
;	COMDAT xdata$x
xdata$x	SEGMENT
__unwindtable$?GetData@CElementTreeBuilder@@ABE?AV?$CStringT@DV?$StrTraitMFC_DLL@DV?$ChTraitsCRT@D@ATL@@@@@ATL@@ABV23@00@Z DD 0ffffffffH
	DD	FLAT:__unwindfunclet$?GetData@CElementTreeBuilder@@ABE?AV?$CStringT@DV?$StrTraitMFC_DLL@DV?$ChTraitsCRT@D@ATL@@@@@ATL@@ABV23@00@Z$0
__ehfuncinfo$?GetData@CElementTreeBuilder@@ABE?AV?$CStringT@DV?$StrTraitMFC_DLL@DV?$ChTraitsCRT@D@ATL@@@@@ATL@@ABV23@00@Z DD 019930522H
	DD	01H
	DD	FLAT:__unwindtable$?GetData@CElementTreeBuilder@@ABE?AV?$CStringT@DV?$StrTraitMFC_DLL@DV?$ChTraitsCRT@D@ATL@@@@@ATL@@ABV23@00@Z
	DD	2 DUP(00H)
	DD	2 DUP(00H)
	DD	00H
	DD	01H
xdata$x	ENDS
;	COMDAT xdata$x
xdata$x	SEGMENT
__ehfuncinfo$?MakeElement@CElementTreeBuilder@@AAEPAVCElement@@W4TOOLTYPE@CAnalysis@@ABV?$CDequeList@VCCoordinate@@@@PBVCTextPosition@@ABVCElementCommonEnvironment@@@Z DD 019930522H
	DD	06H
	DD	FLAT:__unwindtable$?MakeElement@CElementTreeBuilder@@AAEPAVCElement@@W4TOOLTYPE@CAnalysis@@ABV?$CDequeList@VCCoordinate@@@@PBVCTextPosition@@ABVCElementCommonEnvironment@@@Z
	DD	2 DUP(00H)
	DD	2 DUP(00H)
	DD	00H
	DD	01H
__unwindtable$?MakeElement@CElementTreeBuilder@@AAEPAVCElement@@W4TOOLTYPE@CAnalysis@@ABV?$CDequeList@VCCoordinate@@@@PBVCTextPosition@@ABVCElementCommonEnvironment@@@Z DD 0ffffffffH
	DD	FLAT:__unwindfunclet$?MakeElement@CElementTreeBuilder@@AAEPAVCElement@@W4TOOLTYPE@CAnalysis@@ABV?$CDequeList@VCCoordinate@@@@PBVCTextPosition@@ABVCElementCommonEnvironment@@@Z$0
	DD	0ffffffffH
	DD	FLAT:__unwindfunclet$?MakeElement@CElementTreeBuilder@@AAEPAVCElement@@W4TOOLTYPE@CAnalysis@@ABV?$CDequeList@VCCoordinate@@@@PBVCTextPosition@@ABVCElementCommonEnvironment@@@Z$1
	DD	01H
	DD	FLAT:__unwindfunclet$?MakeElement@CElementTreeBuilder@@AAEPAVCElement@@W4TOOLTYPE@CAnalysis@@ABV?$CDequeList@VCCoordinate@@@@PBVCTextPosition@@ABVCElementCommonEnvironment@@@Z$2
	DD	0ffffffffH
	DD	FLAT:__unwindfunclet$?MakeElement@CElementTreeBuilder@@AAEPAVCElement@@W4TOOLTYPE@CAnalysis@@ABV?$CDequeList@VCCoordinate@@@@PBVCTextPosition@@ABVCElementCommonEnvironment@@@Z$3
	DD	03H
	DD	FLAT:__unwindfunclet$?MakeElement@CElementTreeBuilder@@AAEPAVCElement@@W4TOOLTYPE@CAnalysis@@ABV?$CDequeList@VCCoordinate@@@@PBVCTextPosition@@ABVCElementCommonEnvironment@@@Z$4
	DD	04H
	DD	FLAT:__unwindfunclet$?MakeElement@CElementTreeBuilder@@AAEPAVCElement@@W4TOOLTYPE@CAnalysis@@ABV?$CDequeList@VCCoordinate@@@@PBVCTextPosition@@ABVCElementCommonEnvironment@@@Z$5
xdata$x	ENDS
;	COMDAT xdata$x
xdata$x	SEGMENT
__ehfuncinfo$?MakeElement@CElementTreeBuilder@@AAEPAVCElement@@W4TOOLTYPE@CAnalysis@@ABV?$CDequeList@VCCoordinate@@@@ABV?$CStringT@DV?$StrTraitMFC_DLL@DV?$ChTraitsCRT@D@ATL@@@@@ATL@@ABVCElementCommonEnvironment@@@Z DD 019930522H
	DD	06H
	DD	FLAT:__unwindtable$?MakeElement@CElementTreeBuilder@@AAEPAVCElement@@W4TOOLTYPE@CAnalysis@@ABV?$CDequeList@VCCoordinate@@@@ABV?$CStringT@DV?$StrTraitMFC_DLL@DV?$ChTraitsCRT@D@ATL@@@@@ATL@@ABVCElementCommonEnvironment@@@Z
	DD	2 DUP(00H)
	DD	2 DUP(00H)
	DD	00H
	DD	01H
__unwindtable$?MakeElement@CElementTreeBuilder@@AAEPAVCElement@@W4TOOLTYPE@CAnalysis@@ABV?$CDequeList@VCCoordinate@@@@ABV?$CStringT@DV?$StrTraitMFC_DLL@DV?$ChTraitsCRT@D@ATL@@@@@ATL@@ABVCElementCommonEnvironment@@@Z DD 0ffffffffH
	DD	FLAT:__unwindfunclet$?MakeElement@CElementTreeBuilder@@AAEPAVCElement@@W4TOOLTYPE@CAnalysis@@ABV?$CDequeList@VCCoordinate@@@@ABV?$CStringT@DV?$StrTraitMFC_DLL@DV?$ChTraitsCRT@D@ATL@@@@@ATL@@ABVCElementCommonEnvironment@@@Z$0
	DD	00H
	DD	FLAT:__unwindfunclet$?MakeElement@CElementTreeBuilder@@AAEPAVCElement@@W4TOOLTYPE@CAnalysis@@ABV?$CDequeList@VCCoordinate@@@@ABV?$CStringT@DV?$StrTraitMFC_DLL@DV?$ChTraitsCRT@D@ATL@@@@@ATL@@ABVCElementCommonEnvironment@@@Z$1
	DD	01H
	DD	FLAT:__unwindfunclet$?MakeElement@CElementTreeBuilder@@AAEPAVCElement@@W4TOOLTYPE@CAnalysis@@ABV?$CDequeList@VCCoordinate@@@@ABV?$CStringT@DV?$StrTraitMFC_DLL@DV?$ChTraitsCRT@D@ATL@@@@@ATL@@ABVCElementCommonEnvironment@@@Z$3
	DD	01H
	DD	FLAT:__unwindfunclet$?MakeElement@CElementTreeBuilder@@AAEPAVCElement@@W4TOOLTYPE@CAnalysis@@ABV?$CDequeList@VCCoordinate@@@@ABV?$CStringT@DV?$StrTraitMFC_DLL@DV?$ChTraitsCRT@D@ATL@@@@@ATL@@ABVCElementCommonEnvironment@@@Z$2
	DD	00H
	DD	FLAT:__unwindfunclet$?MakeElement@CElementTreeBuilder@@AAEPAVCElement@@W4TOOLTYPE@CAnalysis@@ABV?$CDequeList@VCCoordinate@@@@ABV?$CStringT@DV?$StrTraitMFC_DLL@DV?$ChTraitsCRT@D@ATL@@@@@ATL@@ABVCElementCommonEnvironment@@@Z$2
	DD	0ffffffffH
	DD	FLAT:__unwindfunclet$?MakeElement@CElementTreeBuilder@@AAEPAVCElement@@W4TOOLTYPE@CAnalysis@@ABV?$CDequeList@VCCoordinate@@@@ABV?$CStringT@DV?$StrTraitMFC_DLL@DV?$ChTraitsCRT@D@ATL@@@@@ATL@@ABVCElementCommonEnvironment@@@Z$2
xdata$x	ENDS
;	COMDAT xdata$x
xdata$x	SEGMENT
__ehfuncinfo$?MakeElement@CElementTreeBuilder@@AAEPAVCElement@@ABV?$CStringT@DV?$StrTraitMFC_DLL@DV?$ChTraitsCRT@D@ATL@@@@@ATL@@ABH@Z DD 019930522H
	DD	09H
	DD	FLAT:__unwindtable$?MakeElement@CElementTreeBuilder@@AAEPAVCElement@@ABV?$CStringT@DV?$StrTraitMFC_DLL@DV?$ChTraitsCRT@D@ATL@@@@@ATL@@ABH@Z
	DD	2 DUP(00H)
	DD	2 DUP(00H)
	DD	00H
	DD	01H
__unwindtable$?MakeElement@CElementTreeBuilder@@AAEPAVCElement@@ABV?$CStringT@DV?$StrTraitMFC_DLL@DV?$ChTraitsCRT@D@ATL@@@@@ATL@@ABH@Z DD 0ffffffffH
	DD	FLAT:__unwindfunclet$?MakeElement@CElementTreeBuilder@@AAEPAVCElement@@ABV?$CStringT@DV?$StrTraitMFC_DLL@DV?$ChTraitsCRT@D@ATL@@@@@ATL@@ABH@Z$0
	DD	00H
	DD	FLAT:__unwindfunclet$?MakeElement@CElementTreeBuilder@@AAEPAVCElement@@ABV?$CStringT@DV?$StrTraitMFC_DLL@DV?$ChTraitsCRT@D@ATL@@@@@ATL@@ABH@Z$1
	DD	01H
	DD	FLAT:__unwindfunclet$?MakeElement@CElementTreeBuilder@@AAEPAVCElement@@ABV?$CStringT@DV?$StrTraitMFC_DLL@DV?$ChTraitsCRT@D@ATL@@@@@ATL@@ABH@Z$2
	DD	02H
	DD	FLAT:__unwindfunclet$?MakeElement@CElementTreeBuilder@@AAEPAVCElement@@ABV?$CStringT@DV?$StrTraitMFC_DLL@DV?$ChTraitsCRT@D@ATL@@@@@ATL@@ABH@Z$4
	DD	03H
	DD	FLAT:__unwindfunclet$?MakeElement@CElementTreeBuilder@@AAEPAVCElement@@ABV?$CStringT@DV?$StrTraitMFC_DLL@DV?$ChTraitsCRT@D@ATL@@@@@ATL@@ABH@Z$5
	DD	04H
	DD	FLAT:__unwindfunclet$?MakeElement@CElementTreeBuilder@@AAEPAVCElement@@ABV?$CStringT@DV?$StrTraitMFC_DLL@DV?$ChTraitsCRT@D@ATL@@@@@ATL@@ABH@Z$7
	DD	04H
	DD	FLAT:__unwindfunclet$?MakeElement@CElementTreeBuilder@@AAEPAVCElement@@ABV?$CStringT@DV?$StrTraitMFC_DLL@DV?$ChTraitsCRT@D@ATL@@@@@ATL@@ABH@Z$6
	DD	03H
	DD	FLAT:__unwindfunclet$?MakeElement@CElementTreeBuilder@@AAEPAVCElement@@ABV?$CStringT@DV?$StrTraitMFC_DLL@DV?$ChTraitsCRT@D@ATL@@@@@ATL@@ABH@Z$6
	DD	02H
	DD	FLAT:__unwindfunclet$?MakeElement@CElementTreeBuilder@@AAEPAVCElement@@ABV?$CStringT@DV?$StrTraitMFC_DLL@DV?$ChTraitsCRT@D@ATL@@@@@ATL@@ABH@Z$6
xdata$x	ENDS
;	COMDAT xdata$x
xdata$x	SEGMENT
__ehfuncinfo$?BuildElementsFromString_Element@CElementTreeBuilder@@AAEXAAVCAnalysisData@@ABVCBlockIndex@@ABV?$CStringT@DV?$StrTraitMFC_DLL@DV?$ChTraitsCRT@D@ATL@@@@@ATL@@AAVCTree@@AAVCElementAndOrderSet@@@Z DD 019930522H
	DD	06H
	DD	FLAT:__unwindtable$?BuildElementsFromString_Element@CElementTreeBuilder@@AAEXAAVCAnalysisData@@ABVCBlockIndex@@ABV?$CStringT@DV?$StrTraitMFC_DLL@DV?$ChTraitsCRT@D@ATL@@@@@ATL@@AAVCTree@@AAVCElementAndOrderSet@@@Z
	DD	2 DUP(00H)
	DD	2 DUP(00H)
	DD	00H
	DD	01H
__unwindtable$?BuildElementsFromString_Element@CElementTreeBuilder@@AAEXAAVCAnalysisData@@ABVCBlockIndex@@ABV?$CStringT@DV?$StrTraitMFC_DLL@DV?$ChTraitsCRT@D@ATL@@@@@ATL@@AAVCTree@@AAVCElementAndOrderSet@@@Z DD 0ffffffffH
	DD	FLAT:__unwindfunclet$?BuildElementsFromString_Element@CElementTreeBuilder@@AAEXAAVCAnalysisData@@ABVCBlockIndex@@ABV?$CStringT@DV?$StrTraitMFC_DLL@DV?$ChTraitsCRT@D@ATL@@@@@ATL@@AAVCTree@@AAVCElementAndOrderSet@@@Z$0
	DD	00H
	DD	FLAT:__unwindfunclet$?BuildElementsFromString_Element@CElementTreeBuilder@@AAEXAAVCAnalysisData@@ABVCBlockIndex@@ABV?$CStringT@DV?$StrTraitMFC_DLL@DV?$ChTraitsCRT@D@ATL@@@@@ATL@@AAVCTree@@AAVCElementAndOrderSet@@@Z$1
	DD	01H
	DD	FLAT:__unwindfunclet$?BuildElementsFromString_Element@CElementTreeBuilder@@AAEXAAVCAnalysisData@@ABVCBlockIndex@@ABV?$CStringT@DV?$StrTraitMFC_DLL@DV?$ChTraitsCRT@D@ATL@@@@@ATL@@AAVCTree@@AAVCElementAndOrderSet@@@Z$3
	DD	01H
	DD	FLAT:__unwindfunclet$?BuildElementsFromString_Element@CElementTreeBuilder@@AAEXAAVCAnalysisData@@ABVCBlockIndex@@ABV?$CStringT@DV?$StrTraitMFC_DLL@DV?$ChTraitsCRT@D@ATL@@@@@ATL@@AAVCTree@@AAVCElementAndOrderSet@@@Z$2
	DD	00H
	DD	FLAT:__unwindfunclet$?BuildElementsFromString_Element@CElementTreeBuilder@@AAEXAAVCAnalysisData@@ABVCBlockIndex@@ABV?$CStringT@DV?$StrTraitMFC_DLL@DV?$ChTraitsCRT@D@ATL@@@@@ATL@@AAVCTree@@AAVCElementAndOrderSet@@@Z$2
	DD	0ffffffffH
	DD	FLAT:__unwindfunclet$?BuildElementsFromString_Element@CElementTreeBuilder@@AAEXAAVCAnalysisData@@ABVCBlockIndex@@ABV?$CStringT@DV?$StrTraitMFC_DLL@DV?$ChTraitsCRT@D@ATL@@@@@ATL@@AAVCTree@@AAVCElementAndOrderSet@@@Z$2
xdata$x	ENDS
;	COMDAT xdata$x
xdata$x	SEGMENT
__ehfuncinfo$?BuildElementsFromString_Row@CElementTreeBuilder@@AAEXAAVCAnalysisData@@ABVCBlockIndex@@ABV?$CStringT@DV?$StrTraitMFC_DLL@DV?$ChTraitsCRT@D@ATL@@@@@ATL@@AAVCTree@@AAVCElementAndOrderSet@@@Z DD 019930522H
	DD	0aH
	DD	FLAT:__unwindtable$?BuildElementsFromString_Row@CElementTreeBuilder@@AAEXAAVCAnalysisData@@ABVCBlockIndex@@ABV?$CStringT@DV?$StrTraitMFC_DLL@DV?$ChTraitsCRT@D@ATL@@@@@ATL@@AAVCTree@@AAVCElementAndOrderSet@@@Z
	DD	2 DUP(00H)
	DD	2 DUP(00H)
	DD	00H
	DD	01H
__unwindtable$?BuildElementsFromString_Row@CElementTreeBuilder@@AAEXAAVCAnalysisData@@ABVCBlockIndex@@ABV?$CStringT@DV?$StrTraitMFC_DLL@DV?$ChTraitsCRT@D@ATL@@@@@ATL@@AAVCTree@@AAVCElementAndOrderSet@@@Z DD 0ffffffffH
	DD	FLAT:__unwindfunclet$?BuildElementsFromString_Row@CElementTreeBuilder@@AAEXAAVCAnalysisData@@ABVCBlockIndex@@ABV?$CStringT@DV?$StrTraitMFC_DLL@DV?$ChTraitsCRT@D@ATL@@@@@ATL@@AAVCTree@@AAVCElementAndOrderSet@@@Z$0
	DD	0ffffffffH
	DD	FLAT:__unwindfunclet$?BuildElementsFromString_Row@CElementTreeBuilder@@AAEXAAVCAnalysisData@@ABVCBlockIndex@@ABV?$CStringT@DV?$StrTraitMFC_DLL@DV?$ChTraitsCRT@D@ATL@@@@@ATL@@AAVCTree@@AAVCElementAndOrderSet@@@Z$1
	DD	01H
	DD	FLAT:__unwindfunclet$?BuildElementsFromString_Row@CElementTreeBuilder@@AAEXAAVCAnalysisData@@ABVCBlockIndex@@ABV?$CStringT@DV?$StrTraitMFC_DLL@DV?$ChTraitsCRT@D@ATL@@@@@ATL@@AAVCTree@@AAVCElementAndOrderSet@@@Z$2
	DD	02H
	DD	FLAT:__unwindfunclet$?BuildElementsFromString_Row@CElementTreeBuilder@@AAEXAAVCAnalysisData@@ABVCBlockIndex@@ABV?$CStringT@DV?$StrTraitMFC_DLL@DV?$ChTraitsCRT@D@ATL@@@@@ATL@@AAVCTree@@AAVCElementAndOrderSet@@@Z$6
	DD	02H
	DD	FLAT:__unwindfunclet$?BuildElementsFromString_Row@CElementTreeBuilder@@AAEXAAVCAnalysisData@@ABVCBlockIndex@@ABV?$CStringT@DV?$StrTraitMFC_DLL@DV?$ChTraitsCRT@D@ATL@@@@@ATL@@AAVCTree@@AAVCElementAndOrderSet@@@Z$3
	DD	01H
	DD	FLAT:__unwindfunclet$?BuildElementsFromString_Row@CElementTreeBuilder@@AAEXAAVCAnalysisData@@ABVCBlockIndex@@ABV?$CStringT@DV?$StrTraitMFC_DLL@DV?$ChTraitsCRT@D@ATL@@@@@ATL@@AAVCTree@@AAVCElementAndOrderSet@@@Z$3
	DD	0ffffffffH
	DD	FLAT:__unwindfunclet$?BuildElementsFromString_Row@CElementTreeBuilder@@AAEXAAVCAnalysisData@@ABVCBlockIndex@@ABV?$CStringT@DV?$StrTraitMFC_DLL@DV?$ChTraitsCRT@D@ATL@@@@@ATL@@AAVCTree@@AAVCElementAndOrderSet@@@Z$3
	DD	06H
	DD	FLAT:__unwindfunclet$?BuildElementsFromString_Row@CElementTreeBuilder@@AAEXAAVCAnalysisData@@ABVCBlockIndex@@ABV?$CStringT@DV?$StrTraitMFC_DLL@DV?$ChTraitsCRT@D@ATL@@@@@ATL@@AAVCTree@@AAVCElementAndOrderSet@@@Z$4
	DD	07H
	DD	FLAT:__unwindfunclet$?BuildElementsFromString_Row@CElementTreeBuilder@@AAEXAAVCAnalysisData@@ABVCBlockIndex@@ABV?$CStringT@DV?$StrTraitMFC_DLL@DV?$ChTraitsCRT@D@ATL@@@@@ATL@@AAVCTree@@AAVCElementAndOrderSet@@@Z$5
	DD	06H
	DD	FLAT:__unwindfunclet$?BuildElementsFromString_Row@CElementTreeBuilder@@AAEXAAVCAnalysisData@@ABVCBlockIndex@@ABV?$CStringT@DV?$StrTraitMFC_DLL@DV?$ChTraitsCRT@D@ATL@@@@@ATL@@AAVCTree@@AAVCElementAndOrderSet@@@Z$5
xdata$x	ENDS
;	COMDAT xdata$x
xdata$x	SEGMENT
__ehfuncinfo$?BuildElementsFromString_Column@CElementTreeBuilder@@AAEXAAVCAnalysisData@@HABV?$CStringT@DV?$StrTraitMFC_DLL@DV?$ChTraitsCRT@D@ATL@@@@@ATL@@AAVCTree@@AAVCElementAndOrderSet@@@Z DD 019930522H
	DD	014H
	DD	FLAT:__unwindtable$?BuildElementsFromString_Column@CElementTreeBuilder@@AAEXAAVCAnalysisData@@HABV?$CStringT@DV?$StrTraitMFC_DLL@DV?$ChTraitsCRT@D@ATL@@@@@ATL@@AAVCTree@@AAVCElementAndOrderSet@@@Z
	DD	2 DUP(00H)
	DD	2 DUP(00H)
	DD	00H
	DD	01H
__unwindtable$?BuildElementsFromString_Column@CElementTreeBuilder@@AAEXAAVCAnalysisData@@HABV?$CStringT@DV?$StrTraitMFC_DLL@DV?$ChTraitsCRT@D@ATL@@@@@ATL@@AAVCTree@@AAVCElementAndOrderSet@@@Z DD 0ffffffffH
	DD	FLAT:__unwindfunclet$?BuildElementsFromString_Column@CElementTreeBuilder@@AAEXAAVCAnalysisData@@HABV?$CStringT@DV?$StrTraitMFC_DLL@DV?$ChTraitsCRT@D@ATL@@@@@ATL@@AAVCTree@@AAVCElementAndOrderSet@@@Z$0
	DD	0ffffffffH
	DD	FLAT:__unwindfunclet$?BuildElementsFromString_Column@CElementTreeBuilder@@AAEXAAVCAnalysisData@@HABV?$CStringT@DV?$StrTraitMFC_DLL@DV?$ChTraitsCRT@D@ATL@@@@@ATL@@AAVCTree@@AAVCElementAndOrderSet@@@Z$1
	DD	01H
	DD	FLAT:__unwindfunclet$?BuildElementsFromString_Column@CElementTreeBuilder@@AAEXAAVCAnalysisData@@HABV?$CStringT@DV?$StrTraitMFC_DLL@DV?$ChTraitsCRT@D@ATL@@@@@ATL@@AAVCTree@@AAVCElementAndOrderSet@@@Z$2
	DD	02H
	DD	FLAT:__unwindfunclet$?BuildElementsFromString_Column@CElementTreeBuilder@@AAEXAAVCAnalysisData@@HABV?$CStringT@DV?$StrTraitMFC_DLL@DV?$ChTraitsCRT@D@ATL@@@@@ATL@@AAVCTree@@AAVCElementAndOrderSet@@@Z$6
	DD	02H
	DD	FLAT:__unwindfunclet$?BuildElementsFromString_Column@CElementTreeBuilder@@AAEXAAVCAnalysisData@@HABV?$CStringT@DV?$StrTraitMFC_DLL@DV?$ChTraitsCRT@D@ATL@@@@@ATL@@AAVCTree@@AAVCElementAndOrderSet@@@Z$3
	DD	01H
	DD	FLAT:__unwindfunclet$?BuildElementsFromString_Column@CElementTreeBuilder@@AAEXAAVCAnalysisData@@HABV?$CStringT@DV?$StrTraitMFC_DLL@DV?$ChTraitsCRT@D@ATL@@@@@ATL@@AAVCTree@@AAVCElementAndOrderSet@@@Z$3
	DD	0ffffffffH
	DD	FLAT:__unwindfunclet$?BuildElementsFromString_Column@CElementTreeBuilder@@AAEXAAVCAnalysisData@@HABV?$CStringT@DV?$StrTraitMFC_DLL@DV?$ChTraitsCRT@D@ATL@@@@@ATL@@AAVCTree@@AAVCElementAndOrderSet@@@Z$3
	DD	06H
	DD	FLAT:__unwindfunclet$?BuildElementsFromString_Column@CElementTreeBuilder@@AAEXAAVCAnalysisData@@HABV?$CStringT@DV?$StrTraitMFC_DLL@DV?$ChTraitsCRT@D@ATL@@@@@ATL@@AAVCTree@@AAVCElementAndOrderSet@@@Z$4
	DD	07H
	DD	FLAT:__unwindfunclet$?BuildElementsFromString_Column@CElementTreeBuilder@@AAEXAAVCAnalysisData@@HABV?$CStringT@DV?$StrTraitMFC_DLL@DV?$ChTraitsCRT@D@ATL@@@@@ATL@@AAVCTree@@AAVCElementAndOrderSet@@@Z$5
	DD	06H
	DD	FLAT:__unwindfunclet$?BuildElementsFromString_Column@CElementTreeBuilder@@AAEXAAVCAnalysisData@@HABV?$CStringT@DV?$StrTraitMFC_DLL@DV?$ChTraitsCRT@D@ATL@@@@@ATL@@AAVCTree@@AAVCElementAndOrderSet@@@Z$5
	DD	09H
	DD	FLAT:__unwindfunclet$?BuildElementsFromString_Column@CElementTreeBuilder@@AAEXAAVCAnalysisData@@HABV?$CStringT@DV?$StrTraitMFC_DLL@DV?$ChTraitsCRT@D@ATL@@@@@ATL@@AAVCTree@@AAVCElementAndOrderSet@@@Z$10
	DD	09H
	DD	FLAT:__unwindfunclet$?BuildElementsFromString_Column@CElementTreeBuilder@@AAEXAAVCAnalysisData@@HABV?$CStringT@DV?$StrTraitMFC_DLL@DV?$ChTraitsCRT@D@ATL@@@@@ATL@@AAVCTree@@AAVCElementAndOrderSet@@@Z$11
	DD	0bH
	DD	FLAT:__unwindfunclet$?BuildElementsFromString_Column@CElementTreeBuilder@@AAEXAAVCAnalysisData@@HABV?$CStringT@DV?$StrTraitMFC_DLL@DV?$ChTraitsCRT@D@ATL@@@@@ATL@@AAVCTree@@AAVCElementAndOrderSet@@@Z$12
	DD	0cH
	DD	FLAT:__unwindfunclet$?BuildElementsFromString_Column@CElementTreeBuilder@@AAEXAAVCAnalysisData@@HABV?$CStringT@DV?$StrTraitMFC_DLL@DV?$ChTraitsCRT@D@ATL@@@@@ATL@@AAVCTree@@AAVCElementAndOrderSet@@@Z$16
	DD	0cH
	DD	FLAT:__unwindfunclet$?BuildElementsFromString_Column@CElementTreeBuilder@@AAEXAAVCAnalysisData@@HABV?$CStringT@DV?$StrTraitMFC_DLL@DV?$ChTraitsCRT@D@ATL@@@@@ATL@@AAVCTree@@AAVCElementAndOrderSet@@@Z$13
	DD	0bH
	DD	FLAT:__unwindfunclet$?BuildElementsFromString_Column@CElementTreeBuilder@@AAEXAAVCAnalysisData@@HABV?$CStringT@DV?$StrTraitMFC_DLL@DV?$ChTraitsCRT@D@ATL@@@@@ATL@@AAVCTree@@AAVCElementAndOrderSet@@@Z$13
	DD	09H
	DD	FLAT:__unwindfunclet$?BuildElementsFromString_Column@CElementTreeBuilder@@AAEXAAVCAnalysisData@@HABV?$CStringT@DV?$StrTraitMFC_DLL@DV?$ChTraitsCRT@D@ATL@@@@@ATL@@AAVCTree@@AAVCElementAndOrderSet@@@Z$13
	DD	010H
	DD	FLAT:__unwindfunclet$?BuildElementsFromString_Column@CElementTreeBuilder@@AAEXAAVCAnalysisData@@HABV?$CStringT@DV?$StrTraitMFC_DLL@DV?$ChTraitsCRT@D@ATL@@@@@ATL@@AAVCTree@@AAVCElementAndOrderSet@@@Z$14
	DD	011H
	DD	FLAT:__unwindfunclet$?BuildElementsFromString_Column@CElementTreeBuilder@@AAEXAAVCAnalysisData@@HABV?$CStringT@DV?$StrTraitMFC_DLL@DV?$ChTraitsCRT@D@ATL@@@@@ATL@@AAVCTree@@AAVCElementAndOrderSet@@@Z$15
	DD	010H
	DD	FLAT:__unwindfunclet$?BuildElementsFromString_Column@CElementTreeBuilder@@AAEXAAVCAnalysisData@@HABV?$CStringT@DV?$StrTraitMFC_DLL@DV?$ChTraitsCRT@D@ATL@@@@@ATL@@AAVCTree@@AAVCElementAndOrderSet@@@Z$15
xdata$x	ENDS
;	COMDAT xdata$x
xdata$x	SEGMENT
__ehfuncinfo$?BuildElementsFromString@CElementTreeBuilder@@AAE_NAAVCAnalysisData@@ABV?$CStringT@DV?$StrTraitMFC_DLL@DV?$ChTraitsCRT@D@ATL@@@@@ATL@@AAVCTree@@AAVCElementAndOrderSet@@@Z DD 019930522H
	DD	05H
	DD	FLAT:__unwindtable$?BuildElementsFromString@CElementTreeBuilder@@AAE_NAAVCAnalysisData@@ABV?$CStringT@DV?$StrTraitMFC_DLL@DV?$ChTraitsCRT@D@ATL@@@@@ATL@@AAVCTree@@AAVCElementAndOrderSet@@@Z
	DD	2 DUP(00H)
	DD	2 DUP(00H)
	DD	00H
	DD	01H
__unwindtable$?BuildElementsFromString@CElementTreeBuilder@@AAE_NAAVCAnalysisData@@ABV?$CStringT@DV?$StrTraitMFC_DLL@DV?$ChTraitsCRT@D@ATL@@@@@ATL@@AAVCTree@@AAVCElementAndOrderSet@@@Z DD 0ffffffffH
	DD	FLAT:__unwindfunclet$?BuildElementsFromString@CElementTreeBuilder@@AAE_NAAVCAnalysisData@@ABV?$CStringT@DV?$StrTraitMFC_DLL@DV?$ChTraitsCRT@D@ATL@@@@@ATL@@AAVCTree@@AAVCElementAndOrderSet@@@Z$0
	DD	0ffffffffH
	DD	FLAT:__unwindfunclet$?BuildElementsFromString@CElementTreeBuilder@@AAE_NAAVCAnalysisData@@ABV?$CStringT@DV?$StrTraitMFC_DLL@DV?$ChTraitsCRT@D@ATL@@@@@ATL@@AAVCTree@@AAVCElementAndOrderSet@@@Z$1
	DD	01H
	DD	FLAT:__unwindfunclet$?BuildElementsFromString@CElementTreeBuilder@@AAE_NAAVCAnalysisData@@ABV?$CStringT@DV?$StrTraitMFC_DLL@DV?$ChTraitsCRT@D@ATL@@@@@ATL@@AAVCTree@@AAVCElementAndOrderSet@@@Z$2
	DD	02H
	DD	FLAT:__unwindfunclet$?BuildElementsFromString@CElementTreeBuilder@@AAE_NAAVCAnalysisData@@ABV?$CStringT@DV?$StrTraitMFC_DLL@DV?$ChTraitsCRT@D@ATL@@@@@ATL@@AAVCTree@@AAVCElementAndOrderSet@@@Z$3
	DD	01H
	DD	FLAT:__unwindfunclet$?BuildElementsFromString@CElementTreeBuilder@@AAE_NAAVCAnalysisData@@ABV?$CStringT@DV?$StrTraitMFC_DLL@DV?$ChTraitsCRT@D@ATL@@@@@ATL@@AAVCTree@@AAVCElementAndOrderSet@@@Z$3
xdata$x	ENDS
;	COMDAT xdata$x
xdata$x	SEGMENT
__ehfuncinfo$?BuildElementsFromString_ForUndoRedo@CElementTreeBuilder@@QAEJAAVCAnalysisData@@ABVCBlockIndex@@ABV?$CStringT@DV?$StrTraitMFC_DLL@DV?$ChTraitsCRT@D@ATL@@@@@ATL@@AAVCTree@@AAVCOrder@@@Z DD 019930522H
	DD	07H
	DD	FLAT:__unwindtable$?BuildElementsFromString_ForUndoRedo@CElementTreeBuilder@@QAEJAAVCAnalysisData@@ABVCBlockIndex@@ABV?$CStringT@DV?$StrTraitMFC_DLL@DV?$ChTraitsCRT@D@ATL@@@@@ATL@@AAVCTree@@AAVCOrder@@@Z
	DD	2 DUP(00H)
	DD	2 DUP(00H)
	DD	00H
	DD	01H
__unwindtable$?BuildElementsFromString_ForUndoRedo@CElementTreeBuilder@@QAEJAAVCAnalysisData@@ABVCBlockIndex@@ABV?$CStringT@DV?$StrTraitMFC_DLL@DV?$ChTraitsCRT@D@ATL@@@@@ATL@@AAVCTree@@AAVCOrder@@@Z DD 0ffffffffH
	DD	FLAT:__unwindfunclet$?BuildElementsFromString_ForUndoRedo@CElementTreeBuilder@@QAEJAAVCAnalysisData@@ABVCBlockIndex@@ABV?$CStringT@DV?$StrTraitMFC_DLL@DV?$ChTraitsCRT@D@ATL@@@@@ATL@@AAVCTree@@AAVCOrder@@@Z$0
	DD	00H
	DD	FLAT:__unwindfunclet$?BuildElementsFromString_ForUndoRedo@CElementTreeBuilder@@QAEJAAVCAnalysisData@@ABVCBlockIndex@@ABV?$CStringT@DV?$StrTraitMFC_DLL@DV?$ChTraitsCRT@D@ATL@@@@@ATL@@AAVCTree@@AAVCOrder@@@Z$1
	DD	01H
	DD	FLAT:__unwindfunclet$?BuildElementsFromString_ForUndoRedo@CElementTreeBuilder@@QAEJAAVCAnalysisData@@ABVCBlockIndex@@ABV?$CStringT@DV?$StrTraitMFC_DLL@DV?$ChTraitsCRT@D@ATL@@@@@ATL@@AAVCTree@@AAVCOrder@@@Z$4
	DD	01H
	DD	FLAT:__unwindfunclet$?BuildElementsFromString_ForUndoRedo@CElementTreeBuilder@@QAEJAAVCAnalysisData@@ABVCBlockIndex@@ABV?$CStringT@DV?$StrTraitMFC_DLL@DV?$ChTraitsCRT@D@ATL@@@@@ATL@@AAVCTree@@AAVCOrder@@@Z$2
	DD	00H
	DD	FLAT:__unwindfunclet$?BuildElementsFromString_ForUndoRedo@CElementTreeBuilder@@QAEJAAVCAnalysisData@@ABVCBlockIndex@@ABV?$CStringT@DV?$StrTraitMFC_DLL@DV?$ChTraitsCRT@D@ATL@@@@@ATL@@AAVCTree@@AAVCOrder@@@Z$2
	DD	0ffffffffH
	DD	FLAT:__unwindfunclet$?BuildElementsFromString_ForUndoRedo@CElementTreeBuilder@@QAEJAAVCAnalysisData@@ABVCBlockIndex@@ABV?$CStringT@DV?$StrTraitMFC_DLL@DV?$ChTraitsCRT@D@ATL@@@@@ATL@@AAVCTree@@AAVCOrder@@@Z$2
	DD	05H
	DD	FLAT:__unwindfunclet$?BuildElementsFromString_ForUndoRedo@CElementTreeBuilder@@QAEJAAVCAnalysisData@@ABVCBlockIndex@@ABV?$CStringT@DV?$StrTraitMFC_DLL@DV?$ChTraitsCRT@D@ATL@@@@@ATL@@AAVCTree@@AAVCOrder@@@Z$3
xdata$x	ENDS
;	COMDAT xdata$x
xdata$x	SEGMENT
__ehfuncinfo$?BuildElementsFromString@CElementTreeBuilder@@QAE_NAAVCAnalysisData@@ABV?$CStringT@DV?$StrTraitMFC_DLL@DV?$ChTraitsCRT@D@ATL@@@@@ATL@@AAVCTree@@AAVCOrder@@@Z DD 019930522H
	DD	06H
	DD	FLAT:__unwindtable$?BuildElementsFromString@CElementTreeBuilder@@QAE_NAAVCAnalysisData@@ABV?$CStringT@DV?$StrTraitMFC_DLL@DV?$ChTraitsCRT@D@ATL@@@@@ATL@@AAVCTree@@AAVCOrder@@@Z
	DD	2 DUP(00H)
	DD	2 DUP(00H)
	DD	00H
	DD	01H
__unwindtable$?BuildElementsFromString@CElementTreeBuilder@@QAE_NAAVCAnalysisData@@ABV?$CStringT@DV?$StrTraitMFC_DLL@DV?$ChTraitsCRT@D@ATL@@@@@ATL@@AAVCTree@@AAVCOrder@@@Z DD 0ffffffffH
	DD	FLAT:__unwindfunclet$?BuildElementsFromString@CElementTreeBuilder@@QAE_NAAVCAnalysisData@@ABV?$CStringT@DV?$StrTraitMFC_DLL@DV?$ChTraitsCRT@D@ATL@@@@@ATL@@AAVCTree@@AAVCOrder@@@Z$0
	DD	00H
	DD	FLAT:__unwindfunclet$?BuildElementsFromString@CElementTreeBuilder@@QAE_NAAVCAnalysisData@@ABV?$CStringT@DV?$StrTraitMFC_DLL@DV?$ChTraitsCRT@D@ATL@@@@@ATL@@AAVCTree@@AAVCOrder@@@Z$3
	DD	00H
	DD	FLAT:__unwindfunclet$?BuildElementsFromString@CElementTreeBuilder@@QAE_NAAVCAnalysisData@@ABV?$CStringT@DV?$StrTraitMFC_DLL@DV?$ChTraitsCRT@D@ATL@@@@@ATL@@AAVCTree@@AAVCOrder@@@Z$4
	DD	02H
	DD	FLAT:__unwindfunclet$?BuildElementsFromString@CElementTreeBuilder@@QAE_NAAVCAnalysisData@@ABV?$CStringT@DV?$StrTraitMFC_DLL@DV?$ChTraitsCRT@D@ATL@@@@@ATL@@AAVCTree@@AAVCOrder@@@Z$5
	DD	03H
	DD	FLAT:__unwindfunclet$?BuildElementsFromString@CElementTreeBuilder@@QAE_NAAVCAnalysisData@@ABV?$CStringT@DV?$StrTraitMFC_DLL@DV?$ChTraitsCRT@D@ATL@@@@@ATL@@AAVCTree@@AAVCOrder@@@Z$6
	DD	02H
	DD	FLAT:__unwindfunclet$?BuildElementsFromString@CElementTreeBuilder@@QAE_NAAVCAnalysisData@@ABV?$CStringT@DV?$StrTraitMFC_DLL@DV?$ChTraitsCRT@D@ATL@@@@@ATL@@AAVCTree@@AAVCOrder@@@Z$6
xdata$x	ENDS
;	COMDAT xdata$x
xdata$x	SEGMENT
__unwindtable$??HATL@@YA?AV?$CStringT@DV?$StrTraitMFC_DLL@DV?$ChTraitsCRT@D@ATL@@@@@0@ABV10@PBD@Z DD 0ffffffffH
	DD	FLAT:__unwindfunclet$??HATL@@YA?AV?$CStringT@DV?$StrTraitMFC_DLL@DV?$ChTraitsCRT@D@ATL@@@@@0@ABV10@PBD@Z$0
__ehfuncinfo$??HATL@@YA?AV?$CStringT@DV?$StrTraitMFC_DLL@DV?$ChTraitsCRT@D@ATL@@@@@0@ABV10@PBD@Z DD 019930522H
	DD	01H
	DD	FLAT:__unwindtable$??HATL@@YA?AV?$CStringT@DV?$StrTraitMFC_DLL@DV?$ChTraitsCRT@D@ATL@@@@@0@ABV10@PBD@Z
	DD	2 DUP(00H)
	DD	2 DUP(00H)
	DD	00H
	DD	01H
xdata$x	ENDS
;	COMDAT xdata$x
xdata$x	SEGMENT
__unwindtable$??HATL@@YA?AV?$CStringT@DV?$StrTraitMFC_DLL@DV?$ChTraitsCRT@D@ATL@@@@@0@ABV10@0@Z DD 0ffffffffH
	DD	FLAT:__unwindfunclet$??HATL@@YA?AV?$CStringT@DV?$StrTraitMFC_DLL@DV?$ChTraitsCRT@D@ATL@@@@@0@ABV10@0@Z$0
__ehfuncinfo$??HATL@@YA?AV?$CStringT@DV?$StrTraitMFC_DLL@DV?$ChTraitsCRT@D@ATL@@@@@0@ABV10@0@Z DD 019930522H
	DD	01H
	DD	FLAT:__unwindtable$??HATL@@YA?AV?$CStringT@DV?$StrTraitMFC_DLL@DV?$ChTraitsCRT@D@ATL@@@@@0@ABV10@0@Z
	DD	2 DUP(00H)
	DD	2 DUP(00H)
	DD	00H
	DD	01H
xdata$x	ENDS
; Function compile flags: /Ogtp
; File C:\Program Files (x86)\Microsoft Visual Studio\2019\Community\VC\Tools\MSVC\14.29.30133\include\xutility
;	COMDAT ??$_Copy_memmove@PAPAVCElementAndOrder@@PAPAV1@@std@@YAPAPAVCElementAndOrder@@PAPAV1@00@Z
_TEXT	SEGMENT
__First$ = 8						; size = 4
__Last$ = 12						; size = 4
__Dest$ = 16						; size = 4
??$_Copy_memmove@PAPAVCElementAndOrder@@PAPAV1@@std@@YAPAPAVCElementAndOrder@@PAPAV1@00@Z PROC ; std::_Copy_memmove<CElementAndOrder * *,CElementAndOrder * *>, COMDAT

; 4058 : _OutCtgIt _Copy_memmove(_CtgIt _First, _CtgIt _Last, _OutCtgIt _Dest) {

  00000	55		 push	 ebp
  00001	8b ec		 mov	 ebp, esp

; 4059 :     auto _FirstPtr              = _To_address(_First);
; 4060 :     auto _LastPtr               = _To_address(_Last);
; 4061 :     auto _DestPtr               = _To_address(_Dest);
; 4062 :     const char* const _First_ch = const_cast<const char*>(reinterpret_cast<const volatile char*>(_FirstPtr));
; 4063 :     const char* const _Last_ch  = const_cast<const char*>(reinterpret_cast<const volatile char*>(_LastPtr));
; 4064 :     char* const _Dest_ch        = const_cast<char*>(reinterpret_cast<const volatile char*>(_DestPtr));
; 4065 :     const auto _Count           = static_cast<size_t>(_Last_ch - _First_ch);

  00003	8b 45 08	 mov	 eax, DWORD PTR __First$[ebp]
  00006	56		 push	 esi

; 4066 :     _CSTD memmove(_Dest_ch, _First_ch, _Count);

  00007	8b 75 10	 mov	 esi, DWORD PTR __Dest$[ebp]
  0000a	57		 push	 edi
  0000b	8b 7d 0c	 mov	 edi, DWORD PTR __Last$[ebp]
  0000e	2b f8		 sub	 edi, eax
  00010	57		 push	 edi
  00011	50		 push	 eax
  00012	56		 push	 esi
  00013	e8 00 00 00 00	 call	 _memmove
  00018	83 c4 0c	 add	 esp, 12			; 0000000cH

; 4067 :     if constexpr (is_pointer_v<_OutCtgIt>) {
; 4068 :         return reinterpret_cast<_OutCtgIt>(_Dest_ch + _Count);

  0001b	8d 04 37	 lea	 eax, DWORD PTR [edi+esi]
  0001e	5f		 pop	 edi
  0001f	5e		 pop	 esi

; 4069 :     } else {
; 4070 :         return _Dest + (_LastPtr - _FirstPtr);
; 4071 :     }
; 4072 : }

  00020	5d		 pop	 ebp
  00021	c3		 ret	 0
??$_Copy_memmove@PAPAVCElementAndOrder@@PAPAV1@@std@@YAPAPAVCElementAndOrder@@PAPAV1@00@Z ENDP ; std::_Copy_memmove<CElementAndOrder * *,CElementAndOrder * *>
_TEXT	ENDS
; Function compile flags: /Ogtp
; File C:\Program Files (x86)\Microsoft Visual Studio\2019\Community\VC\Tools\MSVC\14.29.30133\include\xutility
;	COMDAT ??$_Copy_memmove@PAPAVCCoordinate@@PAPAV1@@std@@YAPAPAVCCoordinate@@PAPAV1@00@Z
_TEXT	SEGMENT
__First$ = 8						; size = 4
__Last$ = 12						; size = 4
__Dest$ = 16						; size = 4
??$_Copy_memmove@PAPAVCCoordinate@@PAPAV1@@std@@YAPAPAVCCoordinate@@PAPAV1@00@Z PROC ; std::_Copy_memmove<CCoordinate * *,CCoordinate * *>, COMDAT

; 4058 : _OutCtgIt _Copy_memmove(_CtgIt _First, _CtgIt _Last, _OutCtgIt _Dest) {

  00000	55		 push	 ebp
  00001	8b ec		 mov	 ebp, esp

; 4059 :     auto _FirstPtr              = _To_address(_First);
; 4060 :     auto _LastPtr               = _To_address(_Last);
; 4061 :     auto _DestPtr               = _To_address(_Dest);
; 4062 :     const char* const _First_ch = const_cast<const char*>(reinterpret_cast<const volatile char*>(_FirstPtr));
; 4063 :     const char* const _Last_ch  = const_cast<const char*>(reinterpret_cast<const volatile char*>(_LastPtr));
; 4064 :     char* const _Dest_ch        = const_cast<char*>(reinterpret_cast<const volatile char*>(_DestPtr));
; 4065 :     const auto _Count           = static_cast<size_t>(_Last_ch - _First_ch);

  00003	8b 45 08	 mov	 eax, DWORD PTR __First$[ebp]
  00006	56		 push	 esi

; 4066 :     _CSTD memmove(_Dest_ch, _First_ch, _Count);

  00007	8b 75 10	 mov	 esi, DWORD PTR __Dest$[ebp]
  0000a	57		 push	 edi
  0000b	8b 7d 0c	 mov	 edi, DWORD PTR __Last$[ebp]
  0000e	2b f8		 sub	 edi, eax
  00010	57		 push	 edi
  00011	50		 push	 eax
  00012	56		 push	 esi
  00013	e8 00 00 00 00	 call	 _memmove
  00018	83 c4 0c	 add	 esp, 12			; 0000000cH

; 4067 :     if constexpr (is_pointer_v<_OutCtgIt>) {
; 4068 :         return reinterpret_cast<_OutCtgIt>(_Dest_ch + _Count);

  0001b	8d 04 37	 lea	 eax, DWORD PTR [edi+esi]
  0001e	5f		 pop	 edi
  0001f	5e		 pop	 esi

; 4069 :     } else {
; 4070 :         return _Dest + (_LastPtr - _FirstPtr);
; 4071 :     }
; 4072 : }

  00020	5d		 pop	 ebp
  00021	c3		 ret	 0
??$_Copy_memmove@PAPAVCCoordinate@@PAPAV1@@std@@YAPAPAVCCoordinate@@PAPAV1@00@Z ENDP ; std::_Copy_memmove<CCoordinate * *,CCoordinate * *>
_TEXT	ENDS
; Function compile flags: /Ogtp
; File C:\Program Files (x86)\Microsoft Visual Studio\2019\Community\VC\Tools\MSVC\14.29.30133\include\xmemory
;	COMDAT ??$_Zero_range@PAPAVCElementAndOrder@@@std@@YAPAPAVCElementAndOrder@@QAPAV1@0@Z
_TEXT	SEGMENT
__First$ = 8						; size = 4
__Last$ = 12						; size = 4
??$_Zero_range@PAPAVCElementAndOrder@@@std@@YAPAPAVCElementAndOrder@@QAPAV1@0@Z PROC ; std::_Zero_range<CElementAndOrder * *>, COMDAT

; 1789 : _Ptr _Zero_range(const _Ptr _First, const _Ptr _Last) { // fill [_First, _Last) with zeroes

  00000	55		 push	 ebp
  00001	8b ec		 mov	 ebp, esp

; 1790 :     char* const _First_ch = reinterpret_cast<char*>(_To_address(_First));
; 1791 :     char* const _Last_ch  = reinterpret_cast<char*>(_To_address(_Last));
; 1792 :     _CSTD memset(_First_ch, 0, static_cast<size_t>(_Last_ch - _First_ch));

  00003	8b 55 08	 mov	 edx, DWORD PTR __First$[ebp]
  00006	8b 4d 0c	 mov	 ecx, DWORD PTR __Last$[ebp]
  00009	2b ca		 sub	 ecx, edx
  0000b	51		 push	 ecx
  0000c	6a 00		 push	 0
  0000e	52		 push	 edx
  0000f	e8 00 00 00 00	 call	 _memset

; 1793 :     return _Last;

  00014	8b 45 0c	 mov	 eax, DWORD PTR __Last$[ebp]
  00017	83 c4 0c	 add	 esp, 12			; 0000000cH

; 1794 : }

  0001a	5d		 pop	 ebp
  0001b	c3		 ret	 0
??$_Zero_range@PAPAVCElementAndOrder@@@std@@YAPAPAVCElementAndOrder@@QAPAV1@0@Z ENDP ; std::_Zero_range<CElementAndOrder * *>
_TEXT	ENDS
; Function compile flags: /Ogtp
; File C:\Program Files (x86)\Microsoft Visual Studio\2019\Community\VC\Tools\MSVC\14.29.30133\include\xmemory
;	COMDAT ??$_Zero_range@PAPAVCCoordinate@@@std@@YAPAPAVCCoordinate@@QAPAV1@0@Z
_TEXT	SEGMENT
__First$ = 8						; size = 4
__Last$ = 12						; size = 4
??$_Zero_range@PAPAVCCoordinate@@@std@@YAPAPAVCCoordinate@@QAPAV1@0@Z PROC ; std::_Zero_range<CCoordinate * *>, COMDAT

; 1789 : _Ptr _Zero_range(const _Ptr _First, const _Ptr _Last) { // fill [_First, _Last) with zeroes

  00000	55		 push	 ebp
  00001	8b ec		 mov	 ebp, esp

; 1790 :     char* const _First_ch = reinterpret_cast<char*>(_To_address(_First));
; 1791 :     char* const _Last_ch  = reinterpret_cast<char*>(_To_address(_Last));
; 1792 :     _CSTD memset(_First_ch, 0, static_cast<size_t>(_Last_ch - _First_ch));

  00003	8b 55 08	 mov	 edx, DWORD PTR __First$[ebp]
  00006	8b 4d 0c	 mov	 ecx, DWORD PTR __Last$[ebp]
  00009	2b ca		 sub	 ecx, edx
  0000b	51		 push	 ecx
  0000c	6a 00		 push	 0
  0000e	52		 push	 edx
  0000f	e8 00 00 00 00	 call	 _memset

; 1793 :     return _Last;

  00014	8b 45 0c	 mov	 eax, DWORD PTR __Last$[ebp]
  00017	83 c4 0c	 add	 esp, 12			; 0000000cH

; 1794 : }

  0001a	5d		 pop	 ebp
  0001b	c3		 ret	 0
??$_Zero_range@PAPAVCCoordinate@@@std@@YAPAPAVCCoordinate@@QAPAV1@0@Z ENDP ; std::_Zero_range<CCoordinate * *>
_TEXT	ENDS
; Function compile flags: /Ogtp
; File C:\Program Files (x86)\Microsoft Visual Studio\2019\Community\VC\Tools\MSVC\14.29.30133\include\xmemory
;	COMDAT ??$_Allocate_manually_vector_aligned@U_Default_allocate_traits@std@@@std@@YAPAXI@Z
_TEXT	SEGMENT
__Bytes$ = 8						; size = 4
??$_Allocate_manually_vector_aligned@U_Default_allocate_traits@std@@@std@@YAPAXI@Z PROC ; std::_Allocate_manually_vector_aligned<std::_Default_allocate_traits>, COMDAT

; 127  : __declspec(allocator) void* _Allocate_manually_vector_aligned(const size_t _Bytes) {

  00000	55		 push	 ebp
  00001	8b ec		 mov	 ebp, esp

; 128  :     // allocate _Bytes manually aligned to at least _Big_allocation_alignment
; 129  :     const size_t _Block_size = _Non_user_size + _Bytes;

  00003	8b 45 08	 mov	 eax, DWORD PTR __Bytes$[ebp]
  00006	8d 48 23	 lea	 ecx, DWORD PTR [eax+35]

; 130  :     if (_Block_size <= _Bytes) {

  00009	3b c8		 cmp	 ecx, eax
  0000b	0f 86 00 00 00
	00		 jbe	 ?_Throw_bad_array_new_length@std@@YAXXZ ; std::_Throw_bad_array_new_length

; 79   :         return ::operator new(_Bytes);

  00011	51		 push	 ecx
  00012	e8 00 00 00 00	 call	 ??2@YAPAXI@Z		; operator new

; 131  :         _Throw_bad_array_new_length(); // add overflow
; 132  :     }
; 133  : 
; 134  :     const uintptr_t _Ptr_container = reinterpret_cast<uintptr_t>(_Traits::_Allocate(_Block_size));

  00017	8b c8		 mov	 ecx, eax

; 79   :         return ::operator new(_Bytes);

  00019	83 c4 04	 add	 esp, 4

; 135  :     _STL_VERIFY(_Ptr_container != 0, "invalid argument"); // validate even in release since we're doing p[-1]

  0001c	85 c9		 test	 ecx, ecx
  0001e	74 0b		 je	 SHORT $LN7@Allocate_m

; 136  :     void* const _Ptr = reinterpret_cast<void*>((_Ptr_container + _Non_user_size) & ~(_Big_allocation_alignment - 1));

  00020	8d 41 23	 lea	 eax, DWORD PTR [ecx+35]
  00023	83 e0 e0	 and	 eax, -32		; ffffffe0H

; 137  :     static_cast<uintptr_t*>(_Ptr)[-1] = _Ptr_container;

  00026	89 48 fc	 mov	 DWORD PTR [eax-4], ecx

; 138  : 
; 139  : #ifdef _DEBUG
; 140  :     static_cast<uintptr_t*>(_Ptr)[-2] = _Big_allocation_sentinel;
; 141  : #endif // _DEBUG
; 142  :     return _Ptr;
; 143  : }

  00029	5d		 pop	 ebp
  0002a	c3		 ret	 0
$LN7@Allocate_m:

; 135  :     _STL_VERIFY(_Ptr_container != 0, "invalid argument"); // validate even in release since we're doing p[-1]

  0002b	ff 25 00 00 00
	00		 jmp	 DWORD PTR __imp___invalid_parameter_noinfo_noreturn
??$_Allocate_manually_vector_aligned@U_Default_allocate_traits@std@@@std@@YAPAXI@Z ENDP ; std::_Allocate_manually_vector_aligned<std::_Default_allocate_traits>
_TEXT	ENDS
; Function compile flags: /Ogtp
; File C:\Program Files (x86)\Microsoft Visual Studio\2019\Community\VC\Tools\MSVC\14.29.30133\include\xmemory
;	COMDAT ??$_Uninitialized_value_construct_n_unchecked1@PAPAVCElementAndOrder@@I@std@@YAPAPAVCElementAndOrder@@PAPAV1@I@Z
_TEXT	SEGMENT
__UFirst$ = 8						; size = 4
__Count$ = 12						; size = 4
??$_Uninitialized_value_construct_n_unchecked1@PAPAVCElementAndOrder@@I@std@@YAPAPAVCElementAndOrder@@PAPAV1@I@Z PROC ; std::_Uninitialized_value_construct_n_unchecked1<CElementAndOrder * *,unsigned int>, COMDAT

; 1821 : _NoThrowFwdIt _Uninitialized_value_construct_n_unchecked1(_NoThrowFwdIt _UFirst, _Diff _Count) {

  00000	55		 push	 ebp
  00001	8b ec		 mov	 ebp, esp

; 1822 :     // value-initialize all elements in [_UFirst, _UFirst + _Count_raw)
; 1823 :     _STL_INTERNAL_CHECK(_Count >= 0);
; 1824 :     if constexpr (_Use_memset_value_construct_v<_NoThrowFwdIt>) {
; 1825 :         return _Zero_range(_UFirst, _UFirst + _Count);

  00003	8b 45 0c	 mov	 eax, DWORD PTR __Count$[ebp]
  00006	56		 push	 esi

; 1792 :     _CSTD memset(_First_ch, 0, static_cast<size_t>(_Last_ch - _First_ch));

  00007	8b 75 08	 mov	 esi, DWORD PTR __UFirst$[ebp]

; 1821 : _NoThrowFwdIt _Uninitialized_value_construct_n_unchecked1(_NoThrowFwdIt _UFirst, _Diff _Count) {

  0000a	57		 push	 edi

; 1822 :     // value-initialize all elements in [_UFirst, _UFirst + _Count_raw)
; 1823 :     _STL_INTERNAL_CHECK(_Count >= 0);
; 1824 :     if constexpr (_Use_memset_value_construct_v<_NoThrowFwdIt>) {
; 1825 :         return _Zero_range(_UFirst, _UFirst + _Count);

  0000b	8d 3c 85 00 00
	00 00		 lea	 edi, DWORD PTR [eax*4]

; 1792 :     _CSTD memset(_First_ch, 0, static_cast<size_t>(_Last_ch - _First_ch));

  00012	57		 push	 edi
  00013	6a 00		 push	 0
  00015	56		 push	 esi
  00016	e8 00 00 00 00	 call	 _memset
  0001b	83 c4 0c	 add	 esp, 12			; 0000000cH

; 1822 :     // value-initialize all elements in [_UFirst, _UFirst + _Count_raw)
; 1823 :     _STL_INTERNAL_CHECK(_Count >= 0);
; 1824 :     if constexpr (_Use_memset_value_construct_v<_NoThrowFwdIt>) {
; 1825 :         return _Zero_range(_UFirst, _UFirst + _Count);

  0001e	8d 04 37	 lea	 eax, DWORD PTR [edi+esi]
  00021	5f		 pop	 edi
  00022	5e		 pop	 esi

; 1826 :     } else {
; 1827 :         _Uninitialized_backout<_NoThrowFwdIt> _Backout{_UFirst};
; 1828 :         for (; 0 < _Count; --_Count) {
; 1829 :             _Backout._Emplace_back();
; 1830 :         }
; 1831 : 
; 1832 :         return _Backout._Release();
; 1833 :     }
; 1834 : }

  00023	5d		 pop	 ebp
  00024	c3		 ret	 0
??$_Uninitialized_value_construct_n_unchecked1@PAPAVCElementAndOrder@@I@std@@YAPAPAVCElementAndOrder@@PAPAV1@I@Z ENDP ; std::_Uninitialized_value_construct_n_unchecked1<CElementAndOrder * *,unsigned int>
_TEXT	ENDS
; Function compile flags: /Ogtp
; File C:\Program Files (x86)\Microsoft Visual Studio\2019\Community\VC\Tools\MSVC\14.29.30133\include\xmemory
; File C:\Program Files (x86)\Microsoft Visual Studio\2019\Community\VC\Tools\MSVC\14.29.30133\include\xutility
; File C:\Program Files (x86)\Microsoft Visual Studio\2019\Community\VC\Tools\MSVC\14.29.30133\include\xmemory
; File C:\Program Files (x86)\Microsoft Visual Studio\2019\Community\VC\Tools\MSVC\14.29.30133\include\xutility
; File C:\Program Files (x86)\Microsoft Visual Studio\2019\Community\VC\Tools\MSVC\14.29.30133\include\xmemory
; File C:\Program Files (x86)\Microsoft Visual Studio\2019\Community\VC\Tools\MSVC\14.29.30133\include\xutility
; File C:\Program Files (x86)\Microsoft Visual Studio\2019\Community\VC\Tools\MSVC\14.29.30133\include\xmemory
;	COMDAT ??$uninitialized_copy@PAPAVCElementAndOrder@@PAPAV1@@std@@YAPAPAVCElementAndOrder@@QAPAV1@0PAPAV1@@Z
_TEXT	SEGMENT
__First$ = 8						; size = 4
__Last$ = 12						; size = 4
__Dest$ = 16						; size = 4
??$uninitialized_copy@PAPAVCElementAndOrder@@PAPAV1@@std@@YAPAPAVCElementAndOrder@@QAPAV1@0PAPAV1@@Z PROC ; std::uninitialized_copy<CElementAndOrder * *,CElementAndOrder * *>, COMDAT

; 1687 : _NoThrowFwdIt uninitialized_copy(const _InIt _First, const _InIt _Last, _NoThrowFwdIt _Dest) {

  00000	55		 push	 ebp
  00001	8b ec		 mov	 ebp, esp
; File C:\Program Files (x86)\Microsoft Visual Studio\2019\Community\VC\Tools\MSVC\14.29.30133\include\xutility

; 4065 :     const auto _Count           = static_cast<size_t>(_Last_ch - _First_ch);

  00003	8b 45 08	 mov	 eax, DWORD PTR __First$[ebp]
; File C:\Program Files (x86)\Microsoft Visual Studio\2019\Community\VC\Tools\MSVC\14.29.30133\include\xmemory

; 1687 : _NoThrowFwdIt uninitialized_copy(const _InIt _First, const _InIt _Last, _NoThrowFwdIt _Dest) {

  00006	56		 push	 esi
; File C:\Program Files (x86)\Microsoft Visual Studio\2019\Community\VC\Tools\MSVC\14.29.30133\include\xutility

; 4066 :     _CSTD memmove(_Dest_ch, _First_ch, _Count);

  00007	8b 75 10	 mov	 esi, DWORD PTR __Dest$[ebp]
; File C:\Program Files (x86)\Microsoft Visual Studio\2019\Community\VC\Tools\MSVC\14.29.30133\include\xmemory

; 1687 : _NoThrowFwdIt uninitialized_copy(const _InIt _First, const _InIt _Last, _NoThrowFwdIt _Dest) {

  0000a	57		 push	 edi
; File C:\Program Files (x86)\Microsoft Visual Studio\2019\Community\VC\Tools\MSVC\14.29.30133\include\xutility

; 4065 :     const auto _Count           = static_cast<size_t>(_Last_ch - _First_ch);

  0000b	8b 7d 0c	 mov	 edi, DWORD PTR __Last$[ebp]
  0000e	2b f8		 sub	 edi, eax

; 4066 :     _CSTD memmove(_Dest_ch, _First_ch, _Count);

  00010	57		 push	 edi
  00011	50		 push	 eax
  00012	56		 push	 esi
  00013	e8 00 00 00 00	 call	 _memmove
  00018	83 c4 0c	 add	 esp, 12			; 0000000cH

; 4067 :     if constexpr (is_pointer_v<_OutCtgIt>) {
; 4068 :         return reinterpret_cast<_OutCtgIt>(_Dest_ch + _Count);

  0001b	8d 04 37	 lea	 eax, DWORD PTR [edi+esi]
; File C:\Program Files (x86)\Microsoft Visual Studio\2019\Community\VC\Tools\MSVC\14.29.30133\include\xmemory

; 1694 :     return _Dest;

  0001e	5f		 pop	 edi
  0001f	5e		 pop	 esi

; 1695 : }

  00020	5d		 pop	 ebp
  00021	c3		 ret	 0
??$uninitialized_copy@PAPAVCElementAndOrder@@PAPAV1@@std@@YAPAPAVCElementAndOrder@@QAPAV1@0PAPAV1@@Z ENDP ; std::uninitialized_copy<CElementAndOrder * *,CElementAndOrder * *>
_TEXT	ENDS
; Function compile flags: /Ogtp
; File C:\Program Files (x86)\Microsoft Visual Studio\2019\Community\VC\Tools\MSVC\14.29.30133\include\xmemory
;	COMDAT ??$_Uninitialized_value_construct_n_unchecked1@PAPAVCCoordinate@@I@std@@YAPAPAVCCoordinate@@PAPAV1@I@Z
_TEXT	SEGMENT
__UFirst$ = 8						; size = 4
__Count$ = 12						; size = 4
??$_Uninitialized_value_construct_n_unchecked1@PAPAVCCoordinate@@I@std@@YAPAPAVCCoordinate@@PAPAV1@I@Z PROC ; std::_Uninitialized_value_construct_n_unchecked1<CCoordinate * *,unsigned int>, COMDAT

; 1821 : _NoThrowFwdIt _Uninitialized_value_construct_n_unchecked1(_NoThrowFwdIt _UFirst, _Diff _Count) {

  00000	55		 push	 ebp
  00001	8b ec		 mov	 ebp, esp

; 1822 :     // value-initialize all elements in [_UFirst, _UFirst + _Count_raw)
; 1823 :     _STL_INTERNAL_CHECK(_Count >= 0);
; 1824 :     if constexpr (_Use_memset_value_construct_v<_NoThrowFwdIt>) {
; 1825 :         return _Zero_range(_UFirst, _UFirst + _Count);

  00003	8b 45 0c	 mov	 eax, DWORD PTR __Count$[ebp]
  00006	56		 push	 esi

; 1792 :     _CSTD memset(_First_ch, 0, static_cast<size_t>(_Last_ch - _First_ch));

  00007	8b 75 08	 mov	 esi, DWORD PTR __UFirst$[ebp]

; 1821 : _NoThrowFwdIt _Uninitialized_value_construct_n_unchecked1(_NoThrowFwdIt _UFirst, _Diff _Count) {

  0000a	57		 push	 edi

; 1822 :     // value-initialize all elements in [_UFirst, _UFirst + _Count_raw)
; 1823 :     _STL_INTERNAL_CHECK(_Count >= 0);
; 1824 :     if constexpr (_Use_memset_value_construct_v<_NoThrowFwdIt>) {
; 1825 :         return _Zero_range(_UFirst, _UFirst + _Count);

  0000b	8d 3c 85 00 00
	00 00		 lea	 edi, DWORD PTR [eax*4]

; 1792 :     _CSTD memset(_First_ch, 0, static_cast<size_t>(_Last_ch - _First_ch));

  00012	57		 push	 edi
  00013	6a 00		 push	 0
  00015	56		 push	 esi
  00016	e8 00 00 00 00	 call	 _memset
  0001b	83 c4 0c	 add	 esp, 12			; 0000000cH

; 1822 :     // value-initialize all elements in [_UFirst, _UFirst + _Count_raw)
; 1823 :     _STL_INTERNAL_CHECK(_Count >= 0);
; 1824 :     if constexpr (_Use_memset_value_construct_v<_NoThrowFwdIt>) {
; 1825 :         return _Zero_range(_UFirst, _UFirst + _Count);

  0001e	8d 04 37	 lea	 eax, DWORD PTR [edi+esi]
  00021	5f		 pop	 edi
  00022	5e		 pop	 esi

; 1826 :     } else {
; 1827 :         _Uninitialized_backout<_NoThrowFwdIt> _Backout{_UFirst};
; 1828 :         for (; 0 < _Count; --_Count) {
; 1829 :             _Backout._Emplace_back();
; 1830 :         }
; 1831 : 
; 1832 :         return _Backout._Release();
; 1833 :     }
; 1834 : }

  00023	5d		 pop	 ebp
  00024	c3		 ret	 0
??$_Uninitialized_value_construct_n_unchecked1@PAPAVCCoordinate@@I@std@@YAPAPAVCCoordinate@@PAPAV1@I@Z ENDP ; std::_Uninitialized_value_construct_n_unchecked1<CCoordinate * *,unsigned int>
_TEXT	ENDS
; Function compile flags: /Ogtp
; File C:\Program Files (x86)\Microsoft Visual Studio\2019\Community\VC\Tools\MSVC\14.29.30133\include\xmemory
; File C:\Program Files (x86)\Microsoft Visual Studio\2019\Community\VC\Tools\MSVC\14.29.30133\include\xutility
; File C:\Program Files (x86)\Microsoft Visual Studio\2019\Community\VC\Tools\MSVC\14.29.30133\include\xmemory
; File C:\Program Files (x86)\Microsoft Visual Studio\2019\Community\VC\Tools\MSVC\14.29.30133\include\xutility
; File C:\Program Files (x86)\Microsoft Visual Studio\2019\Community\VC\Tools\MSVC\14.29.30133\include\xmemory
; File C:\Program Files (x86)\Microsoft Visual Studio\2019\Community\VC\Tools\MSVC\14.29.30133\include\xutility
; File C:\Program Files (x86)\Microsoft Visual Studio\2019\Community\VC\Tools\MSVC\14.29.30133\include\xmemory
;	COMDAT ??$uninitialized_copy@PAPAVCCoordinate@@PAPAV1@@std@@YAPAPAVCCoordinate@@QAPAV1@0PAPAV1@@Z
_TEXT	SEGMENT
__First$ = 8						; size = 4
__Last$ = 12						; size = 4
__Dest$ = 16						; size = 4
??$uninitialized_copy@PAPAVCCoordinate@@PAPAV1@@std@@YAPAPAVCCoordinate@@QAPAV1@0PAPAV1@@Z PROC ; std::uninitialized_copy<CCoordinate * *,CCoordinate * *>, COMDAT

; 1687 : _NoThrowFwdIt uninitialized_copy(const _InIt _First, const _InIt _Last, _NoThrowFwdIt _Dest) {

  00000	55		 push	 ebp
  00001	8b ec		 mov	 ebp, esp
; File C:\Program Files (x86)\Microsoft Visual Studio\2019\Community\VC\Tools\MSVC\14.29.30133\include\xutility

; 4065 :     const auto _Count           = static_cast<size_t>(_Last_ch - _First_ch);

  00003	8b 45 08	 mov	 eax, DWORD PTR __First$[ebp]
; File C:\Program Files (x86)\Microsoft Visual Studio\2019\Community\VC\Tools\MSVC\14.29.30133\include\xmemory

; 1687 : _NoThrowFwdIt uninitialized_copy(const _InIt _First, const _InIt _Last, _NoThrowFwdIt _Dest) {

  00006	56		 push	 esi
; File C:\Program Files (x86)\Microsoft Visual Studio\2019\Community\VC\Tools\MSVC\14.29.30133\include\xutility

; 4066 :     _CSTD memmove(_Dest_ch, _First_ch, _Count);

  00007	8b 75 10	 mov	 esi, DWORD PTR __Dest$[ebp]
; File C:\Program Files (x86)\Microsoft Visual Studio\2019\Community\VC\Tools\MSVC\14.29.30133\include\xmemory

; 1687 : _NoThrowFwdIt uninitialized_copy(const _InIt _First, const _InIt _Last, _NoThrowFwdIt _Dest) {

  0000a	57		 push	 edi
; File C:\Program Files (x86)\Microsoft Visual Studio\2019\Community\VC\Tools\MSVC\14.29.30133\include\xutility

; 4065 :     const auto _Count           = static_cast<size_t>(_Last_ch - _First_ch);

  0000b	8b 7d 0c	 mov	 edi, DWORD PTR __Last$[ebp]
  0000e	2b f8		 sub	 edi, eax

; 4066 :     _CSTD memmove(_Dest_ch, _First_ch, _Count);

  00010	57		 push	 edi
  00011	50		 push	 eax
  00012	56		 push	 esi
  00013	e8 00 00 00 00	 call	 _memmove
  00018	83 c4 0c	 add	 esp, 12			; 0000000cH

; 4067 :     if constexpr (is_pointer_v<_OutCtgIt>) {
; 4068 :         return reinterpret_cast<_OutCtgIt>(_Dest_ch + _Count);

  0001b	8d 04 37	 lea	 eax, DWORD PTR [edi+esi]
; File C:\Program Files (x86)\Microsoft Visual Studio\2019\Community\VC\Tools\MSVC\14.29.30133\include\xmemory

; 1694 :     return _Dest;

  0001e	5f		 pop	 edi
  0001f	5e		 pop	 esi

; 1695 : }

  00020	5d		 pop	 ebp
  00021	c3		 ret	 0
??$uninitialized_copy@PAPAVCCoordinate@@PAPAV1@@std@@YAPAPAVCCoordinate@@QAPAV1@0PAPAV1@@Z ENDP ; std::uninitialized_copy<CCoordinate * *,CCoordinate * *>
_TEXT	ENDS
; Function compile flags: /Ogtp
; File C:\Program Files (x86)\Microsoft Visual Studio\2019\Community\VC\Tools\MSVC\14.29.30133\include\deque
; File C:\Program Files (x86)\Microsoft Visual Studio\2019\Community\VC\Tools\MSVC\14.29.30133\include\xmemory
; File C:\Program Files (x86)\Microsoft Visual Studio\2019\Community\VC\Tools\MSVC\14.29.30133\include\deque
; File C:\Program Files (x86)\Microsoft Visual Studio\2019\Community\VC\Tools\MSVC\14.29.30133\include\xmemory
; File C:\Program Files (x86)\Microsoft Visual Studio\2019\Community\VC\Tools\MSVC\14.29.30133\include\deque
; File C:\Program Files (x86)\Microsoft Visual Studio\2019\Community\VC\Tools\MSVC\14.29.30133\include\xmemory
; File C:\Program Files (x86)\Microsoft Visual Studio\2019\Community\VC\Tools\MSVC\14.29.30133\include\deque
;	COMDAT ?_Tidy@?$deque@VCCoordinate@@V?$allocator@VCCoordinate@@@std@@@std@@AAEXXZ
_TEXT	SEGMENT
?_Tidy@?$deque@VCCoordinate@@V?$allocator@VCCoordinate@@@std@@@std@@AAEXXZ PROC ; std::deque<CCoordinate,std::allocator<CCoordinate> >::_Tidy, COMDAT
; _this$ = ecx

; 1471 :     void _Tidy() noexcept { // free all storage

  00000	56		 push	 esi
  00001	8b f1		 mov	 esi, ecx

; 1002 :         return _Mysize() == 0;

  00003	8b 4e 10	 mov	 ecx, DWORD PTR [esi+16]
  00006	85 c9		 test	 ecx, ecx

; 1472 :         _Orphan_all();
; 1473 : 
; 1474 :         _Alpty _Almap(_Getal());
; 1475 :         while (!empty()) {

  00008	74 37		 je	 SHORT $LN3@Tidy
  0000a	66 0f 1f 44 00
	00		 npad	 6
$LL2@Tidy:

; 559  :         return (_Off / _Block_size) & (_Mapsize - 1);

  00010	8b 46 0c	 mov	 eax, DWORD PTR [esi+12]
  00013	48		 dec	 eax
  00014	03 c8		 add	 ecx, eax
  00016	8b 46 08	 mov	 eax, DWORD PTR [esi+8]
  00019	48		 dec	 eax
  0001a	23 c8		 and	 ecx, eax

; 1145 :         _Alty_traits::destroy(_Getal(), _Unfancy(_Map()[_Block] + _Newoff % _Block_size));

  0001c	8b 46 04	 mov	 eax, DWORD PTR [esi+4]
  0001f	8b 0c 88	 mov	 ecx, DWORD PTR [eax+ecx*4]
  00022	8d 49 14	 lea	 ecx, DWORD PTR [ecx+20]
  00025	ff 15 00 00 00
	00		 call	 DWORD PTR __imp_??1?$CStringT@DV?$StrTraitMFC_DLL@DV?$ChTraitsCRT@D@ATL@@@@@ATL@@QAE@XZ

; 1146 :         if (--_Mysize() == 0) {

  0002b	8b 4e 10	 mov	 ecx, DWORD PTR [esi+16]
  0002e	83 e9 01	 sub	 ecx, 1
  00031	89 4e 10	 mov	 DWORD PTR [esi+16], ecx
  00034	75 07		 jne	 SHORT $LN69@Tidy

; 1147 :             _Myoff() = 0;

  00036	c7 46 0c 00 00
	00 00		 mov	 DWORD PTR [esi+12], 0
$LN69@Tidy:

; 1002 :         return _Mysize() == 0;

  0003d	85 c9		 test	 ecx, ecx

; 1472 :         _Orphan_all();
; 1473 : 
; 1474 :         _Alpty _Almap(_Getal());
; 1475 :         while (!empty()) {

  0003f	75 cf		 jne	 SHORT $LL2@Tidy
$LN3@Tidy:
  00041	57		 push	 edi

; 1479 :         for (size_type _Block = _Mapsize(); 0 < _Block;) { // free storage for a block and destroy pointer

  00042	8b 7e 08	 mov	 edi, DWORD PTR [esi+8]
  00045	85 ff		 test	 edi, edi
  00047	74 21		 je	 SHORT $LN5@Tidy
  00049	0f 1f 80 00 00
	00 00		 npad	 7
$LL4@Tidy:

; 1480 :             if (_Map()[--_Block]) { // free block and destroy its pointer

  00050	8b 46 04	 mov	 eax, DWORD PTR [esi+4]
  00053	4f		 dec	 edi
  00054	8b 04 b8	 mov	 eax, DWORD PTR [eax+edi*4]
  00057	85 c0		 test	 eax, eax
  00059	74 0b		 je	 SHORT $LN31@Tidy
; File C:\Program Files (x86)\Microsoft Visual Studio\2019\Community\VC\Tools\MSVC\14.29.30133\include\xmemory

; 255  :         ::operator delete(_Ptr, _Bytes);

  0005b	6a 20		 push	 32			; 00000020H
  0005d	50		 push	 eax
  0005e	e8 00 00 00 00	 call	 ??3@YAXPAXI@Z		; operator delete
  00063	83 c4 08	 add	 esp, 8
$LN31@Tidy:
; File C:\Program Files (x86)\Microsoft Visual Studio\2019\Community\VC\Tools\MSVC\14.29.30133\include\deque

; 1479 :         for (size_type _Block = _Mapsize(); 0 < _Block;) { // free storage for a block and destroy pointer

  00066	85 ff		 test	 edi, edi
  00068	75 e6		 jne	 SHORT $LL4@Tidy
$LN5@Tidy:

; 1481 :                 _Getal().deallocate(_Map()[_Block], _Block_size);
; 1482 :                 _Destroy_in_place(_Map()[_Block]);
; 1483 :             }
; 1484 :         }
; 1485 : 
; 1486 :         if (_Map() != _Mapptr()) {

  0006a	8b 46 04	 mov	 eax, DWORD PTR [esi+4]
  0006d	5f		 pop	 edi
  0006e	85 c0		 test	 eax, eax
  00070	74 2a		 je	 SHORT $LN49@Tidy
; File C:\Program Files (x86)\Microsoft Visual Studio\2019\Community\VC\Tools\MSVC\14.29.30133\include\xmemory

; 797  :         _Deallocate<_New_alignof<_Ty>>(_Ptr, sizeof(_Ty) * _Count);

  00072	8b 4e 08	 mov	 ecx, DWORD PTR [esi+8]
  00075	c1 e1 02	 shl	 ecx, 2

; 251  :         if (_Bytes >= _Big_allocation_threshold) { // boost the alignment of big allocations to help autovectorization

  00078	81 f9 00 10 00
	00		 cmp	 ecx, 4096		; 00001000H
  0007e	72 12		 jb	 SHORT $LN59@Tidy

; 150  :     const uintptr_t _Ptr_container   = _Ptr_user[-1];

  00080	8b 50 fc	 mov	 edx, DWORD PTR [eax-4]
  00083	83 c1 23	 add	 ecx, 35			; 00000023H

; 151  : 
; 152  :     // If the following asserts, it likely means that we are performing
; 153  :     // an aligned delete on memory coming from an unaligned allocation.
; 154  :     _STL_ASSERT(_Ptr_user[-2] == _Big_allocation_sentinel, "invalid argument");
; 155  : 
; 156  :     // Extra paranoia on aligned allocation/deallocation; ensure _Ptr_container is
; 157  :     // in range [_Min_back_shift, _Non_user_size]
; 158  : #ifdef _DEBUG
; 159  :     constexpr uintptr_t _Min_back_shift = 2 * sizeof(void*);
; 160  : #else // ^^^ _DEBUG ^^^ // vvv !_DEBUG vvv
; 161  :     constexpr uintptr_t _Min_back_shift = sizeof(void*);
; 162  : #endif // _DEBUG
; 163  :     const uintptr_t _Back_shift = reinterpret_cast<uintptr_t>(_Ptr) - _Ptr_container;

  00086	2b c2		 sub	 eax, edx

; 164  :     _STL_VERIFY(_Back_shift >= _Min_back_shift && _Back_shift <= _Non_user_size, "invalid argument");

  00088	83 c0 fc	 add	 eax, -4			; fffffffcH
  0008b	83 f8 1f	 cmp	 eax, 31			; 0000001fH
  0008e	77 1c		 ja	 SHORT $LN56@Tidy

; 165  :     _Ptr = reinterpret_cast<void*>(_Ptr_container);

  00090	8b c2		 mov	 eax, edx
$LN59@Tidy:

; 255  :         ::operator delete(_Ptr, _Bytes);

  00092	51		 push	 ecx
  00093	50		 push	 eax
  00094	e8 00 00 00 00	 call	 ??3@YAXPAXI@Z		; operator delete
  00099	83 c4 08	 add	 esp, 8
$LN49@Tidy:
; File C:\Program Files (x86)\Microsoft Visual Studio\2019\Community\VC\Tools\MSVC\14.29.30133\include\deque

; 1490 :         _Mapsize() = 0;

  0009c	c7 46 08 00 00
	00 00		 mov	 DWORD PTR [esi+8], 0

; 1491 :         _Map()     = _Mapptr();

  000a3	c7 46 04 00 00
	00 00		 mov	 DWORD PTR [esi+4], 0
  000aa	5e		 pop	 esi

; 1492 :     }

  000ab	c3		 ret	 0
$LN56@Tidy:
; File C:\Program Files (x86)\Microsoft Visual Studio\2019\Community\VC\Tools\MSVC\14.29.30133\include\xmemory

; 164  :     _STL_VERIFY(_Back_shift >= _Min_back_shift && _Back_shift <= _Non_user_size, "invalid argument");

  000ac	ff 15 00 00 00
	00		 call	 DWORD PTR __imp___invalid_parameter_noinfo_noreturn
$LN70@Tidy:
  000b2	cc		 int	 3
?_Tidy@?$deque@VCCoordinate@@V?$allocator@VCCoordinate@@@std@@@std@@AAEXXZ ENDP ; std::deque<CCoordinate,std::allocator<CCoordinate> >::_Tidy
_TEXT	ENDS
; Function compile flags: /Ogtp
; File C:\Program Files (x86)\Microsoft Visual Studio\2019\Community\VC\Tools\MSVC\14.29.30133\include\deque
; File C:\Program Files (x86)\Microsoft Visual Studio\2019\Community\VC\Tools\MSVC\14.29.30133\include\xmemory
; File C:\Program Files (x86)\Microsoft Visual Studio\2019\Community\VC\Tools\MSVC\14.29.30133\include\deque
; File C:\Program Files (x86)\Microsoft Visual Studio\2019\Community\VC\Tools\MSVC\14.29.30133\include\xutility
; File C:\Program Files (x86)\Microsoft Visual Studio\2019\Community\VC\Tools\MSVC\14.29.30133\include\deque
; File C:\Program Files (x86)\Microsoft Visual Studio\2019\Community\VC\Tools\MSVC\14.29.30133\include\xutility
; File C:\Program Files (x86)\Microsoft Visual Studio\2019\Community\VC\Tools\MSVC\14.29.30133\include\deque
; File C:\Program Files (x86)\Microsoft Visual Studio\2019\Community\VC\Tools\MSVC\14.29.30133\include\xutility
; File C:\Program Files (x86)\Microsoft Visual Studio\2019\Community\VC\Tools\MSVC\14.29.30133\include\deque
; File C:\Program Files (x86)\Microsoft Visual Studio\2019\Community\VC\Tools\MSVC\14.29.30133\include\xutility
; File C:\Program Files (x86)\Microsoft Visual Studio\2019\Community\VC\Tools\MSVC\14.29.30133\include\deque
; File C:\Program Files (x86)\Microsoft Visual Studio\2019\Community\VC\Tools\MSVC\14.29.30133\include\xutility
; File C:\Program Files (x86)\Microsoft Visual Studio\2019\Community\VC\Tools\MSVC\14.29.30133\include\xmemory
; File C:\Program Files (x86)\Microsoft Visual Studio\2019\Community\VC\Tools\MSVC\14.29.30133\include\xutility
; File C:\Program Files (x86)\Microsoft Visual Studio\2019\Community\VC\Tools\MSVC\14.29.30133\include\xmemory
; File C:\Program Files (x86)\Microsoft Visual Studio\2019\Community\VC\Tools\MSVC\14.29.30133\include\deque
; File C:\Program Files (x86)\Microsoft Visual Studio\2019\Community\VC\Tools\MSVC\14.29.30133\include\xutility
; File C:\Program Files (x86)\Microsoft Visual Studio\2019\Community\VC\Tools\MSVC\14.29.30133\include\deque
; File C:\Program Files (x86)\Microsoft Visual Studio\2019\Community\VC\Tools\MSVC\14.29.30133\include\xutility
; File C:\Program Files (x86)\Microsoft Visual Studio\2019\Community\VC\Tools\MSVC\14.29.30133\include\deque
; File C:\Program Files (x86)\Microsoft Visual Studio\2019\Community\VC\Tools\MSVC\14.29.30133\include\xutility
; File C:\Program Files (x86)\Microsoft Visual Studio\2019\Community\VC\Tools\MSVC\14.29.30133\include\xmemory
; File C:\Program Files (x86)\Microsoft Visual Studio\2019\Community\VC\Tools\MSVC\14.29.30133\include\xutility
; File C:\Program Files (x86)\Microsoft Visual Studio\2019\Community\VC\Tools\MSVC\14.29.30133\include\xmemory
; File C:\Program Files (x86)\Microsoft Visual Studio\2019\Community\VC\Tools\MSVC\14.29.30133\include\xutility
; File C:\Program Files (x86)\Microsoft Visual Studio\2019\Community\VC\Tools\MSVC\14.29.30133\include\xmemory
; File C:\Program Files (x86)\Microsoft Visual Studio\2019\Community\VC\Tools\MSVC\14.29.30133\include\deque
; File C:\Program Files (x86)\Microsoft Visual Studio\2019\Community\VC\Tools\MSVC\14.29.30133\include\xmemory
; File C:\Program Files (x86)\Microsoft Visual Studio\2019\Community\VC\Tools\MSVC\14.29.30133\include\deque
; File C:\Program Files (x86)\Microsoft Visual Studio\2019\Community\VC\Tools\MSVC\14.29.30133\include\xmemory
; File C:\Program Files (x86)\Microsoft Visual Studio\2019\Community\VC\Tools\MSVC\14.29.30133\include\deque
; File C:\Program Files (x86)\Microsoft Visual Studio\2019\Community\VC\Tools\MSVC\14.29.30133\include\xmemory
; File C:\Program Files (x86)\Microsoft Visual Studio\2019\Community\VC\Tools\MSVC\14.29.30133\include\deque
;	COMDAT ?_Growmap@?$deque@VCCoordinate@@V?$allocator@VCCoordinate@@@std@@@std@@AAEXI@Z
_TEXT	SEGMENT
__Myptr$1$ = -12					; size = 4
_this$1$ = -8						; size = 4
__Myboff$1$ = -4					; size = 4
$T1 = 8							; size = 4
__Count$ = 8						; size = 4
?_Growmap@?$deque@VCCoordinate@@V?$allocator@VCCoordinate@@@std@@@std@@AAEXI@Z PROC ; std::deque<CCoordinate,std::allocator<CCoordinate> >::_Growmap, COMDAT
; _this$ = ecx

; 1432 :     void _Growmap(size_type _Count) { // grow map by at least _Count pointers, _Mapsize() a power of 2

  00000	55		 push	 ebp
  00001	8b ec		 mov	 ebp, esp
  00003	83 ec 0c	 sub	 esp, 12			; 0000000cH
  00006	53		 push	 ebx
  00007	56		 push	 esi
  00008	8b f1		 mov	 esi, ecx

; 1433 :         static_assert(1 < _Minimum_map_size, "The _Xlen() test should always be performed.");
; 1434 : 
; 1435 :         _Alpty _Almap(_Getal());
; 1436 :         size_type _Newsize = 0 < _Mapsize() ? _Mapsize() : 1;

  0000a	b8 01 00 00 00	 mov	 eax, 1
  0000f	57		 push	 edi
  00010	8b 7d 08	 mov	 edi, DWORD PTR __Count$[ebp]
  00013	89 75 f8	 mov	 DWORD PTR _this$1$[ebp], esi
  00016	8b 56 08	 mov	 edx, DWORD PTR [esi+8]
  00019	85 d2		 test	 edx, edx
  0001b	0f 45 c2	 cmovne	 eax, edx
  0001e	66 90		 npad	 2
$LL2@Growmap:

; 1437 :         while (_Newsize - _Mapsize() < _Count || _Newsize < _Minimum_map_size) {

  00020	8b d8		 mov	 ebx, eax
  00022	2b da		 sub	 ebx, edx
  00024	3b df		 cmp	 ebx, edi
  00026	72 05		 jb	 SHORT $LN4@Growmap
  00028	83 f8 08	 cmp	 eax, 8
  0002b	73 13		 jae	 SHORT $LN3@Growmap
$LN4@Growmap:

; 1438 :             // scale _Newsize to 2^N >= _Mapsize() + _Count
; 1439 :             if (max_size() / _Block_size - _Newsize < _Newsize) {

  0002d	b9 ff ff ff 07	 mov	 ecx, 134217727		; 07ffffffH
  00032	2b c8		 sub	 ecx, eax
  00034	3b c8		 cmp	 ecx, eax
  00036	0f 82 4a 01 00
	00		 jb	 $LN138@Growmap

; 1441 :             }
; 1442 : 
; 1443 :             _Newsize *= 2;

  0003c	03 c0		 add	 eax, eax

; 1444 :         }

  0003e	eb e0		 jmp	 SHORT $LL2@Growmap
$LN3@Growmap:

; 1445 :         _Count = _Newsize - _Mapsize();
; 1446 : 
; 1447 :         size_type _Myboff = _Myoff() / _Block_size;

  00040	8b 7e 0c	 mov	 edi, DWORD PTR [esi+12]
  00043	89 7d fc	 mov	 DWORD PTR __Myboff$1$[ebp], edi
; File C:\Program Files (x86)\Microsoft Visual Studio\2019\Community\VC\Tools\MSVC\14.29.30133\include\xmemory

; 60   :         if (_Count > _Max_possible) {

  00046	3d ff ff ff 3f	 cmp	 eax, 1073741823		; 3fffffffH
  0004b	0f 87 3c 01 00
	00		 ja	 $LN142@Growmap

; 61   :             _Throw_bad_array_new_length(); // multiply overflow
; 62   :         }
; 63   :     }
; 64   : 
; 65   :     return _Count * _Ty_size;

  00051	c1 e0 02	 shl	 eax, 2

; 228  :         if (_Bytes >= _Big_allocation_threshold) { // boost the alignment of big allocations to help autovectorization

  00054	3d 00 10 00 00	 cmp	 eax, 4096		; 00001000H
  00059	72 27		 jb	 SHORT $LN19@Growmap

; 129  :     const size_t _Block_size = _Non_user_size + _Bytes;

  0005b	8d 48 23	 lea	 ecx, DWORD PTR [eax+35]

; 130  :     if (_Block_size <= _Bytes) {

  0005e	3b c8		 cmp	 ecx, eax
  00060	0f 86 27 01 00
	00		 jbe	 $LN142@Growmap

; 79   :         return ::operator new(_Bytes);

  00066	51		 push	 ecx
  00067	e8 00 00 00 00	 call	 ??2@YAPAXI@Z		; operator new
  0006c	83 c4 04	 add	 esp, 4

; 135  :     _STL_VERIFY(_Ptr_container != 0, "invalid argument"); // validate even in release since we're doing p[-1]

  0006f	85 c0		 test	 eax, eax
  00071	0f 84 09 01 00
	00		 je	 $LN130@Growmap

; 136  :     void* const _Ptr = reinterpret_cast<void*>((_Ptr_container + _Non_user_size) & ~(_Big_allocation_alignment - 1));

  00077	8d 50 23	 lea	 edx, DWORD PTR [eax+35]
  0007a	83 e2 e0	 and	 edx, -32		; ffffffe0H

; 137  :     static_cast<uintptr_t*>(_Ptr)[-1] = _Ptr_container;

  0007d	89 42 fc	 mov	 DWORD PTR [edx-4], eax

; 229  :             return _Allocate_manually_vector_aligned<_Traits>(_Bytes);

  00080	eb 13		 jmp	 SHORT $LN145@Growmap
$LN19@Growmap:

; 230  :         }
; 231  :     }
; 232  : #endif // defined(_M_IX86) || defined(_M_X64)
; 233  : 
; 234  :     if (_Bytes != 0) {

  00082	85 c0		 test	 eax, eax
  00084	74 0d		 je	 SHORT $LN20@Growmap

; 79   :         return ::operator new(_Bytes);

  00086	50		 push	 eax
  00087	e8 00 00 00 00	 call	 ??2@YAPAXI@Z		; operator new
  0008c	83 c4 04	 add	 esp, 4

; 235  :         return _Traits::_Allocate(_Bytes);

  0008f	8b d0		 mov	 edx, eax
  00091	eb 02		 jmp	 SHORT $LN145@Growmap
$LN20@Growmap:

; 236  :     }
; 237  : 
; 238  :     return nullptr;

  00093	33 d2		 xor	 edx, edx
$LN145@Growmap:
; File C:\Program Files (x86)\Microsoft Visual Studio\2019\Community\VC\Tools\MSVC\14.29.30133\include\deque

; 1451 :         _Myptr = _STD uninitialized_copy(_Map() + _Myboff, _Map() + _Mapsize(), _Myptr); // copy initial to end

  00095	8b 46 04	 mov	 eax, DWORD PTR [esi+4]
  00098	8b 76 08	 mov	 esi, DWORD PTR [esi+8]
  0009b	c1 e7 02	 shl	 edi, 2
  0009e	c1 e6 02	 shl	 esi, 2
  000a1	89 55 08	 mov	 DWORD PTR $T1[ebp], edx
  000a4	8d 0c 38	 lea	 ecx, DWORD PTR [eax+edi]
  000a7	03 fa		 add	 edi, edx
; File C:\Program Files (x86)\Microsoft Visual Studio\2019\Community\VC\Tools\MSVC\14.29.30133\include\xutility

; 4065 :     const auto _Count           = static_cast<size_t>(_Last_ch - _First_ch);

  000a9	2b f1		 sub	 esi, ecx
; File C:\Program Files (x86)\Microsoft Visual Studio\2019\Community\VC\Tools\MSVC\14.29.30133\include\deque

; 1451 :         _Myptr = _STD uninitialized_copy(_Map() + _Myboff, _Map() + _Mapsize(), _Myptr); // copy initial to end

  000ab	03 f0		 add	 esi, eax
; File C:\Program Files (x86)\Microsoft Visual Studio\2019\Community\VC\Tools\MSVC\14.29.30133\include\xutility

; 4066 :     _CSTD memmove(_Dest_ch, _First_ch, _Count);

  000ad	56		 push	 esi
  000ae	51		 push	 ecx
  000af	57		 push	 edi
  000b0	e8 00 00 00 00	 call	 _memmove
; File C:\Program Files (x86)\Microsoft Visual Studio\2019\Community\VC\Tools\MSVC\14.29.30133\include\deque

; 1452 :         if (_Myboff <= _Count) { // increment greater than offset of initial block

  000b5	8b 4d fc	 mov	 ecx, DWORD PTR __Myboff$1$[ebp]
; File C:\Program Files (x86)\Microsoft Visual Studio\2019\Community\VC\Tools\MSVC\14.29.30133\include\xutility

; 4068 :         return reinterpret_cast<_OutCtgIt>(_Dest_ch + _Count);

  000b8	8d 04 3e	 lea	 eax, DWORD PTR [esi+edi]
; File C:\Program Files (x86)\Microsoft Visual Studio\2019\Community\VC\Tools\MSVC\14.29.30133\include\deque

; 1451 :         _Myptr = _STD uninitialized_copy(_Map() + _Myboff, _Map() + _Mapsize(), _Myptr); // copy initial to end

  000bb	8b 75 f8	 mov	 esi, DWORD PTR _this$1$[ebp]
; File C:\Program Files (x86)\Microsoft Visual Studio\2019\Community\VC\Tools\MSVC\14.29.30133\include\xutility

; 4066 :     _CSTD memmove(_Dest_ch, _First_ch, _Count);

  000be	83 c4 0c	 add	 esp, 12			; 0000000cH

; 4068 :         return reinterpret_cast<_OutCtgIt>(_Dest_ch + _Count);

  000c1	89 45 f4	 mov	 DWORD PTR __Myptr$1$[ebp], eax
; File C:\Program Files (x86)\Microsoft Visual Studio\2019\Community\VC\Tools\MSVC\14.29.30133\include\deque

; 1451 :         _Myptr = _STD uninitialized_copy(_Map() + _Myboff, _Map() + _Mapsize(), _Myptr); // copy initial to end

  000c4	8b 56 04	 mov	 edx, DWORD PTR [esi+4]

; 1452 :         if (_Myboff <= _Count) { // increment greater than offset of initial block

  000c7	3b cb		 cmp	 ecx, ebx
  000c9	77 33		 ja	 SHORT $LN6@Growmap
; File C:\Program Files (x86)\Microsoft Visual Studio\2019\Community\VC\Tools\MSVC\14.29.30133\include\xutility

; 4066 :     _CSTD memmove(_Dest_ch, _First_ch, _Count);

  000cb	8d 3c 8d 00 00
	00 00		 lea	 edi, DWORD PTR [ecx*4]
  000d2	57		 push	 edi
  000d3	52		 push	 edx
  000d4	50		 push	 eax
  000d5	e8 00 00 00 00	 call	 _memmove
; File C:\Program Files (x86)\Microsoft Visual Studio\2019\Community\VC\Tools\MSVC\14.29.30133\include\xmemory

; 1792 :     _CSTD memset(_First_ch, 0, static_cast<size_t>(_Last_ch - _First_ch));

  000da	8b c3		 mov	 eax, ebx
  000dc	2b 45 fc	 sub	 eax, DWORD PTR __Myboff$1$[ebp]
  000df	c1 e0 02	 shl	 eax, 2
  000e2	50		 push	 eax
; File C:\Program Files (x86)\Microsoft Visual Studio\2019\Community\VC\Tools\MSVC\14.29.30133\include\xutility

; 4068 :         return reinterpret_cast<_OutCtgIt>(_Dest_ch + _Count);

  000e3	8b 45 f4	 mov	 eax, DWORD PTR __Myptr$1$[ebp]
  000e6	03 c7		 add	 eax, edi
; File C:\Program Files (x86)\Microsoft Visual Studio\2019\Community\VC\Tools\MSVC\14.29.30133\include\xmemory

; 1792 :     _CSTD memset(_First_ch, 0, static_cast<size_t>(_Last_ch - _First_ch));

  000e8	6a 00		 push	 0
  000ea	50		 push	 eax
  000eb	e8 00 00 00 00	 call	 _memset
  000f0	57		 push	 edi
  000f1	8b 7d 08	 mov	 edi, DWORD PTR $T1[ebp]
  000f4	6a 00		 push	 0
  000f6	57		 push	 edi
  000f7	e8 00 00 00 00	 call	 _memset
; File C:\Program Files (x86)\Microsoft Visual Studio\2019\Community\VC\Tools\MSVC\14.29.30133\include\deque

; 1456 :         } else { // increment not greater than offset of initial block

  000fc	eb 3f		 jmp	 SHORT $LN146@Growmap
$LN6@Growmap:

; 1457 :             _STD uninitialized_copy(_Map(), _Map() + _Count, _Myptr); // copy more old

  000fe	8d 3c 9d 00 00
	00 00		 lea	 edi, DWORD PTR [ebx*4]
; File C:\Program Files (x86)\Microsoft Visual Studio\2019\Community\VC\Tools\MSVC\14.29.30133\include\xutility

; 4066 :     _CSTD memmove(_Dest_ch, _First_ch, _Count);

  00105	57		 push	 edi
  00106	52		 push	 edx
  00107	50		 push	 eax
  00108	e8 00 00 00 00	 call	 _memmove
; File C:\Program Files (x86)\Microsoft Visual Studio\2019\Community\VC\Tools\MSVC\14.29.30133\include\deque

; 1458 :             _Myptr = _STD uninitialized_copy(_Map() + _Count, _Map() + _Myboff, _Newmap); // copy rest of old

  0010d	8b 76 04	 mov	 esi, DWORD PTR [esi+4]
  00110	8b 55 fc	 mov	 edx, DWORD PTR __Myboff$1$[ebp]
  00113	8d 04 37	 lea	 eax, DWORD PTR [edi+esi]
; File C:\Program Files (x86)\Microsoft Visual Studio\2019\Community\VC\Tools\MSVC\14.29.30133\include\xutility

; 4065 :     const auto _Count           = static_cast<size_t>(_Last_ch - _First_ch);

  00116	2b f0		 sub	 esi, eax
; File C:\Program Files (x86)\Microsoft Visual Studio\2019\Community\VC\Tools\MSVC\14.29.30133\include\deque

; 1458 :             _Myptr = _STD uninitialized_copy(_Map() + _Count, _Map() + _Myboff, _Newmap); // copy rest of old

  00118	8d 0c 95 00 00
	00 00		 lea	 ecx, DWORD PTR [edx*4]
  0011f	03 f1		 add	 esi, ecx
; File C:\Program Files (x86)\Microsoft Visual Studio\2019\Community\VC\Tools\MSVC\14.29.30133\include\xutility

; 4066 :     _CSTD memmove(_Dest_ch, _First_ch, _Count);

  00121	56		 push	 esi
  00122	50		 push	 eax
  00123	ff 75 08	 push	 DWORD PTR $T1[ebp]
  00126	e8 00 00 00 00	 call	 _memmove
; File C:\Program Files (x86)\Microsoft Visual Studio\2019\Community\VC\Tools\MSVC\14.29.30133\include\xmemory

; 1792 :     _CSTD memset(_First_ch, 0, static_cast<size_t>(_Last_ch - _First_ch));

  0012b	57		 push	 edi
; File C:\Program Files (x86)\Microsoft Visual Studio\2019\Community\VC\Tools\MSVC\14.29.30133\include\xutility

; 4068 :         return reinterpret_cast<_OutCtgIt>(_Dest_ch + _Count);

  0012c	8b 7d 08	 mov	 edi, DWORD PTR $T1[ebp]
; File C:\Program Files (x86)\Microsoft Visual Studio\2019\Community\VC\Tools\MSVC\14.29.30133\include\xmemory

; 1792 :     _CSTD memset(_First_ch, 0, static_cast<size_t>(_Last_ch - _First_ch));

  0012f	6a 00		 push	 0
; File C:\Program Files (x86)\Microsoft Visual Studio\2019\Community\VC\Tools\MSVC\14.29.30133\include\xutility

; 4068 :         return reinterpret_cast<_OutCtgIt>(_Dest_ch + _Count);

  00131	8d 04 3e	 lea	 eax, DWORD PTR [esi+edi]
; File C:\Program Files (x86)\Microsoft Visual Studio\2019\Community\VC\Tools\MSVC\14.29.30133\include\xmemory

; 1792 :     _CSTD memset(_First_ch, 0, static_cast<size_t>(_Last_ch - _First_ch));

  00134	50		 push	 eax
  00135	e8 00 00 00 00	 call	 _memset
  0013a	8b 75 f8	 mov	 esi, DWORD PTR _this$1$[ebp]
$LN146@Growmap:
; File C:\Program Files (x86)\Microsoft Visual Studio\2019\Community\VC\Tools\MSVC\14.29.30133\include\deque

; 1463 :         if (_Map() != _Mapptr()) {

  0013d	8b 46 04	 mov	 eax, DWORD PTR [esi+4]
  00140	83 c4 24	 add	 esp, 36			; 00000024H
  00143	85 c0		 test	 eax, eax
  00145	74 2a		 je	 SHORT $LN123@Growmap
; File C:\Program Files (x86)\Microsoft Visual Studio\2019\Community\VC\Tools\MSVC\14.29.30133\include\xmemory

; 797  :         _Deallocate<_New_alignof<_Ty>>(_Ptr, sizeof(_Ty) * _Count);

  00147	8b 4e 08	 mov	 ecx, DWORD PTR [esi+8]
  0014a	c1 e1 02	 shl	 ecx, 2

; 251  :         if (_Bytes >= _Big_allocation_threshold) { // boost the alignment of big allocations to help autovectorization

  0014d	81 f9 00 10 00
	00		 cmp	 ecx, 4096		; 00001000H
  00153	72 12		 jb	 SHORT $LN133@Growmap

; 150  :     const uintptr_t _Ptr_container   = _Ptr_user[-1];

  00155	8b 50 fc	 mov	 edx, DWORD PTR [eax-4]
  00158	83 c1 23	 add	 ecx, 35			; 00000023H

; 151  : 
; 152  :     // If the following asserts, it likely means that we are performing
; 153  :     // an aligned delete on memory coming from an unaligned allocation.
; 154  :     _STL_ASSERT(_Ptr_user[-2] == _Big_allocation_sentinel, "invalid argument");
; 155  : 
; 156  :     // Extra paranoia on aligned allocation/deallocation; ensure _Ptr_container is
; 157  :     // in range [_Min_back_shift, _Non_user_size]
; 158  : #ifdef _DEBUG
; 159  :     constexpr uintptr_t _Min_back_shift = 2 * sizeof(void*);
; 160  : #else // ^^^ _DEBUG ^^^ // vvv !_DEBUG vvv
; 161  :     constexpr uintptr_t _Min_back_shift = sizeof(void*);
; 162  : #endif // _DEBUG
; 163  :     const uintptr_t _Back_shift = reinterpret_cast<uintptr_t>(_Ptr) - _Ptr_container;

  0015b	2b c2		 sub	 eax, edx

; 164  :     _STL_VERIFY(_Back_shift >= _Min_back_shift && _Back_shift <= _Non_user_size, "invalid argument");

  0015d	83 c0 fc	 add	 eax, -4			; fffffffcH
  00160	83 f8 1f	 cmp	 eax, 31			; 0000001fH
  00163	77 1b		 ja	 SHORT $LN130@Growmap

; 165  :     _Ptr = reinterpret_cast<void*>(_Ptr_container);

  00165	8b c2		 mov	 eax, edx
$LN133@Growmap:

; 255  :         ::operator delete(_Ptr, _Bytes);

  00167	51		 push	 ecx
  00168	50		 push	 eax
  00169	e8 00 00 00 00	 call	 ??3@YAXPAXI@Z		; operator delete
  0016e	83 c4 08	 add	 esp, 8
$LN123@Growmap:
; File C:\Program Files (x86)\Microsoft Visual Studio\2019\Community\VC\Tools\MSVC\14.29.30133\include\deque

; 1468 :         _Mapsize() += _Count;

  00171	01 5e 08	 add	 DWORD PTR [esi+8], ebx
  00174	89 7e 04	 mov	 DWORD PTR [esi+4], edi
  00177	5f		 pop	 edi
  00178	5e		 pop	 esi
  00179	5b		 pop	 ebx

; 1469 :     }

  0017a	8b e5		 mov	 esp, ebp
  0017c	5d		 pop	 ebp
  0017d	c2 04 00	 ret	 4
$LN130@Growmap:
; File C:\Program Files (x86)\Microsoft Visual Studio\2019\Community\VC\Tools\MSVC\14.29.30133\include\xmemory

; 164  :     _STL_VERIFY(_Back_shift >= _Min_back_shift && _Back_shift <= _Non_user_size, "invalid argument");

  00180	ff 15 00 00 00
	00		 call	 DWORD PTR __imp___invalid_parameter_noinfo_noreturn
$LN138@Growmap:
; File C:\Program Files (x86)\Microsoft Visual Studio\2019\Community\VC\Tools\MSVC\14.29.30133\include\deque

; 1440 :                 _Xlen(); // result too long

  00186	8b ce		 mov	 ecx, esi
  00188	e8 00 00 00 00	 call	 ?_Xlen@?$deque@VCCoordinate@@V?$allocator@VCCoordinate@@@std@@@std@@ABEXXZ ; std::deque<CCoordinate,std::allocator<CCoordinate> >::_Xlen
$LN142@Growmap:
; File C:\Program Files (x86)\Microsoft Visual Studio\2019\Community\VC\Tools\MSVC\14.29.30133\include\xmemory

; 131  :         _Throw_bad_array_new_length(); // add overflow

  0018d	e8 00 00 00 00	 call	 ?_Throw_bad_array_new_length@std@@YAXXZ ; std::_Throw_bad_array_new_length
$LN144@Growmap:
  00192	cc		 int	 3
?_Growmap@?$deque@VCCoordinate@@V?$allocator@VCCoordinate@@@std@@@std@@AAEXI@Z ENDP ; std::deque<CCoordinate,std::allocator<CCoordinate> >::_Growmap
_TEXT	ENDS
; Function compile flags: /Ogtp
; File C:\Program Files (x86)\Microsoft Visual Studio\2019\Community\VC\Tools\MSVC\14.29.30133\include\deque
;	COMDAT ?_Xlen@?$deque@VCCoordinate@@V?$allocator@VCCoordinate@@@std@@@std@@ABEXXZ
_TEXT	SEGMENT
?_Xlen@?$deque@VCCoordinate@@V?$allocator@VCCoordinate@@@std@@@std@@ABEXXZ PROC ; std::deque<CCoordinate,std::allocator<CCoordinate> >::_Xlen, COMDAT
; _this$ = ecx

; 1425 :         _Xlength_error("deque<T> too long");

  00000	68 00 00 00 00	 push	 OFFSET ??_C@_0BC@KBDMBKEH@deque?$DMT?$DO?5too?5long@
  00005	e8 00 00 00 00	 call	 ?_Xlength_error@std@@YAXPBD@Z ; std::_Xlength_error
$LN3@Xlen:
  0000a	cc		 int	 3
?_Xlen@?$deque@VCCoordinate@@V?$allocator@VCCoordinate@@@std@@@std@@ABEXXZ ENDP ; std::deque<CCoordinate,std::allocator<CCoordinate> >::_Xlen
_TEXT	ENDS
; Function compile flags: /Ogtp
; File D:\git\src\IBK\IBK_DRFN\ProjSrc\SrcChartEx\ChartAddIn\ChartAnalysisToolAddIn\Include_Chart\DequeList.h
; File C:\Program Files (x86)\Microsoft Visual Studio\2019\Community\VC\Tools\MSVC\14.29.30133\include\deque
; File C:\Program Files (x86)\Microsoft Visual Studio\2019\Community\VC\Tools\MSVC\14.29.30133\include\utility
; File C:\Program Files (x86)\Microsoft Visual Studio\2019\Community\VC\Tools\MSVC\14.29.30133\include\xmemory
; File C:\Program Files (x86)\Microsoft Visual Studio\2019\Community\VC\Tools\MSVC\14.29.30133\include\utility
; File C:\Program Files (x86)\Microsoft Visual Studio\2019\Community\VC\Tools\MSVC\14.29.30133\include\xmemory
; File D:\git\src\IBK\IBK_DRFN\ProjSrc\SrcChartEx\ChartAddIn\ChartAnalysisToolAddIn\Include_Chart\DequeList.h
;	COMDAT ??1?$CDequeList@VCCoordinate@@@@QAE@XZ
_TEXT	SEGMENT
??1?$CDequeList@VCCoordinate@@@@QAE@XZ PROC		; CDequeList<CCoordinate>::~CDequeList<CCoordinate>, COMDAT
; _this$ = ecx

; 34   : 	~CDequeList() { m_deque.clear(); };

  00000	56		 push	 esi
  00001	8b f1		 mov	 esi, ecx
; File C:\Program Files (x86)\Microsoft Visual Studio\2019\Community\VC\Tools\MSVC\14.29.30133\include\deque

; 1332 :         _Tidy();

  00003	e8 00 00 00 00	 call	 ?_Tidy@?$deque@VCCoordinate@@V?$allocator@VCCoordinate@@@std@@@std@@AAEXXZ ; std::deque<CCoordinate,std::allocator<CCoordinate> >::_Tidy

; 861  :         _Tidy();

  00008	8b ce		 mov	 ecx, esi
  0000a	e8 00 00 00 00	 call	 ?_Tidy@?$deque@VCCoordinate@@V?$allocator@VCCoordinate@@@std@@@std@@AAEXXZ ; std::deque<CCoordinate,std::allocator<CCoordinate> >::_Tidy
; File C:\Program Files (x86)\Microsoft Visual Studio\2019\Community\VC\Tools\MSVC\14.29.30133\include\utility

; 602  :     _Ty _Old_val = static_cast<_Ty&&>(_Val);

  0000f	8b 06		 mov	 eax, DWORD PTR [esi]
; File C:\Program Files (x86)\Microsoft Visual Studio\2019\Community\VC\Tools\MSVC\14.29.30133\include\xmemory

; 255  :         ::operator delete(_Ptr, _Bytes);

  00011	6a 08		 push	 8
  00013	50		 push	 eax
; File C:\Program Files (x86)\Microsoft Visual Studio\2019\Community\VC\Tools\MSVC\14.29.30133\include\utility

; 603  :     _Val         = static_cast<_Other&&>(_New_val);

  00014	c7 06 00 00 00
	00		 mov	 DWORD PTR [esi], 0
; File C:\Program Files (x86)\Microsoft Visual Studio\2019\Community\VC\Tools\MSVC\14.29.30133\include\xmemory

; 255  :         ::operator delete(_Ptr, _Bytes);

  0001a	e8 00 00 00 00	 call	 ??3@YAXPAXI@Z		; operator delete
  0001f	83 c4 08	 add	 esp, 8
  00022	5e		 pop	 esi
; File D:\git\src\IBK\IBK_DRFN\ProjSrc\SrcChartEx\ChartAddIn\ChartAnalysisToolAddIn\Include_Chart\DequeList.h

; 34   : 	~CDequeList() { m_deque.clear(); };

  00023	c3		 ret	 0
??1?$CDequeList@VCCoordinate@@@@QAE@XZ ENDP		; CDequeList<CCoordinate>::~CDequeList<CCoordinate>
_TEXT	ENDS
; Function compile flags: /Ogtp
;	COMDAT ??1CCoordinate@@QAE@XZ
_TEXT	SEGMENT
??1CCoordinate@@QAE@XZ PROC				; CCoordinate::~CCoordinate, COMDAT
; _this$ = ecx
  00000	83 c1 14	 add	 ecx, 20			; 00000014H
  00003	ff 25 00 00 00
	00		 jmp	 DWORD PTR __imp_??1?$CStringT@DV?$StrTraitMFC_DLL@DV?$ChTraitsCRT@D@ATL@@@@@ATL@@QAE@XZ
??1CCoordinate@@QAE@XZ ENDP				; CCoordinate::~CCoordinate
_TEXT	ENDS
; Function compile flags: /Ogtp
;	COMDAT ??1CElementCommonEnvironment@@QAE@XZ
_TEXT	SEGMENT
??1CElementCommonEnvironment@@QAE@XZ PROC		; CElementCommonEnvironment::~CElementCommonEnvironment, COMDAT
; _this$ = ecx
  00000	56		 push	 esi
  00001	8b f1		 mov	 esi, ecx
  00003	8d 4e 38	 lea	 ecx, DWORD PTR [esi+56]
  00006	ff 15 00 00 00
	00		 call	 DWORD PTR __imp_??1?$CStringT@DV?$StrTraitMFC_DLL@DV?$ChTraitsCRT@D@ATL@@@@@ATL@@QAE@XZ
  0000c	8d 4e 34	 lea	 ecx, DWORD PTR [esi+52]
  0000f	ff 15 00 00 00
	00		 call	 DWORD PTR __imp_??1?$CStringT@DV?$StrTraitMFC_DLL@DV?$ChTraitsCRT@D@ATL@@@@@ATL@@QAE@XZ
  00015	8d 4e 30	 lea	 ecx, DWORD PTR [esi+48]
  00018	5e		 pop	 esi
  00019	ff 25 00 00 00
	00		 jmp	 DWORD PTR __imp_??1?$CStringT@DV?$StrTraitMFC_DLL@DV?$ChTraitsCRT@D@ATL@@@@@ATL@@QAE@XZ
??1CElementCommonEnvironment@@QAE@XZ ENDP		; CElementCommonEnvironment::~CElementCommonEnvironment
_TEXT	ENDS
; Function compile flags: /Ogtp
;	COMDAT ??1CDataTypeEnvironment@@QAE@XZ
_TEXT	SEGMENT
??1CDataTypeEnvironment@@QAE@XZ PROC			; CDataTypeEnvironment::~CDataTypeEnvironment, COMDAT
; _this$ = ecx
  00000	56		 push	 esi
  00001	8b f1		 mov	 esi, ecx
  00003	8d 4e 18	 lea	 ecx, DWORD PTR [esi+24]
  00006	ff 15 00 00 00
	00		 call	 DWORD PTR __imp_??1?$CStringT@DV?$StrTraitMFC_DLL@DV?$ChTraitsCRT@D@ATL@@@@@ATL@@QAE@XZ
  0000c	8d 4e 14	 lea	 ecx, DWORD PTR [esi+20]
  0000f	ff 15 00 00 00
	00		 call	 DWORD PTR __imp_??1?$CStringT@DV?$StrTraitMFC_DLL@DV?$ChTraitsCRT@D@ATL@@@@@ATL@@QAE@XZ
  00015	8d 4e 10	 lea	 ecx, DWORD PTR [esi+16]
  00018	5e		 pop	 esi
  00019	ff 25 00 00 00
	00		 jmp	 DWORD PTR __imp_??1?$CStringT@DV?$StrTraitMFC_DLL@DV?$ChTraitsCRT@D@ATL@@@@@ATL@@QAE@XZ
??1CDataTypeEnvironment@@QAE@XZ ENDP			; CDataTypeEnvironment::~CDataTypeEnvironment
_TEXT	ENDS
; Function compile flags: /Ogtp
; File D:\git\src\IBK\IBK_DRFN\ProjSrc\SrcChartEx\ChartAddIn\ChartAnalysisToolAddIn\AnalysisTool\ElementTreeBuilder.cpp
; File C:\Program Files (x86)\Microsoft Visual Studio\2019\Community\VC\Tools\MSVC\14.29.30133\atlmfc\include\atlsimpstr.h
; File D:\git\src\IBK\IBK_DRFN\ProjSrc\SrcChartEx\ChartAddIn\ChartAnalysisToolAddIn\AnalysisTool\ElementTreeBuilder.cpp
; File C:\Program Files (x86)\Microsoft Visual Studio\2019\Community\VC\Tools\MSVC\14.29.30133\atlmfc\include\atlsimpstr.h
; File D:\git\src\IBK\IBK_DRFN\ProjSrc\SrcChartEx\ChartAddIn\ChartAnalysisToolAddIn\AnalysisTool\ElementTreeBuilder.cpp
;	COMDAT ?GetTrimData@CElementTreeBuilder@@ABE?AV?$CStringT@DV?$StrTraitMFC_DLL@DV?$ChTraitsCRT@D@ATL@@@@@ATL@@AAV23@ABV23@@Z
_TEXT	SEGMENT
___$ReturnUdt$ = 8					; size = 4
_strData$ = 12						; size = 4
_strTrimData$ = 16					; size = 4
?GetTrimData@CElementTreeBuilder@@ABE?AV?$CStringT@DV?$StrTraitMFC_DLL@DV?$ChTraitsCRT@D@ATL@@@@@ATL@@AAV23@ABV23@@Z PROC ; CElementTreeBuilder::GetTrimData, COMDAT
; _this$ = ecx

; 809  : {

  00000	55		 push	 ebp
  00001	8b ec		 mov	 ebp, esp
; File C:\Program Files (x86)\Microsoft Visual Studio\2019\Community\VC\Tools\MSVC\14.29.30133\atlmfc\include\atlsimpstr.h

; 533  : 		return( GetLength() == 0 );

  00003	8b 4d 10	 mov	 ecx, DWORD PTR _strTrimData$[ebp]
; File D:\git\src\IBK\IBK_DRFN\ProjSrc\SrcChartEx\ChartAddIn\ChartAnalysisToolAddIn\AnalysisTool\ElementTreeBuilder.cpp

; 809  : {

  00006	56		 push	 esi
; File C:\Program Files (x86)\Microsoft Visual Studio\2019\Community\VC\Tools\MSVC\14.29.30133\atlmfc\include\atlsimpstr.h

; 533  : 		return( GetLength() == 0 );

  00007	8b 01		 mov	 eax, DWORD PTR [ecx]
  00009	83 78 f4 00	 cmp	 DWORD PTR [eax-12], 0
; File D:\git\src\IBK\IBK_DRFN\ProjSrc\SrcChartEx\ChartAddIn\ChartAnalysisToolAddIn\AnalysisTool\ElementTreeBuilder.cpp

; 810  : 	if(strTrimData.IsEmpty())

  0000d	75 14		 jne	 SHORT $LN2@GetTrimDat

; 811  : 		return strData;

  0000f	ff 75 0c	 push	 DWORD PTR _strData$[ebp]
  00012	8b 4d 08	 mov	 ecx, DWORD PTR ___$ReturnUdt$[ebp]
  00015	ff 15 00 00 00
	00		 call	 DWORD PTR __imp_??0?$CStringT@DV?$StrTraitMFC_DLL@DV?$ChTraitsCRT@D@ATL@@@@@ATL@@QAE@ABV01@@Z
  0001b	8b 45 08	 mov	 eax, DWORD PTR ___$ReturnUdt$[ebp]
  0001e	5e		 pop	 esi

; 814  : }

  0001f	5d		 pop	 ebp
  00020	c2 0c 00	 ret	 12			; 0000000cH
$LN2@GetTrimDat:

; 812  : 
; 813  : 	return CDataConversion::GetStringData(strData, strTrimData, false);

  00023	8b 75 08	 mov	 esi, DWORD PTR ___$ReturnUdt$[ebp]
  00026	6a 00		 push	 0
  00028	51		 push	 ecx
  00029	ff 75 0c	 push	 DWORD PTR _strData$[ebp]
  0002c	56		 push	 esi
  0002d	e8 00 00 00 00	 call	 ?GetStringData@CDataConversion@@SA?AV?$CStringT@DV?$StrTraitMFC_DLL@DV?$ChTraitsCRT@D@ATL@@@@@ATL@@AAV23@ABV23@_N@Z ; CDataConversion::GetStringData
  00032	83 c4 10	 add	 esp, 16			; 00000010H
  00035	8b c6		 mov	 eax, esi
  00037	5e		 pop	 esi

; 814  : }

  00038	5d		 pop	 ebp
  00039	c2 0c 00	 ret	 12			; 0000000cH
?GetTrimData@CElementTreeBuilder@@ABE?AV?$CStringT@DV?$StrTraitMFC_DLL@DV?$ChTraitsCRT@D@ATL@@@@@ATL@@AAV23@ABV23@@Z ENDP ; CElementTreeBuilder::GetTrimData
_TEXT	ENDS
; Function compile flags: /Ogtp
; File D:\git\src\IBK\IBK_DRFN\ProjSrc\SrcChartEx\ChartAddIn\ChartAnalysisToolAddIn\AnalysisTool\ElementTreeBuilder.cpp
;	COMDAT ?GetVertDataType@CElementTreeBuilder@@ABENABV?$CStringT@DV?$StrTraitMFC_DLL@DV?$ChTraitsCRT@D@ATL@@@@@ATL@@@Z
_TEXT	SEGMENT
$T2 = -32						; size = 8
$T3 = -28						; size = 4
$T4 = -24						; size = 4
$T5 = -20						; size = 4
$T6 = -16						; size = 4
__$EHRec$ = -12						; size = 12
_strNewData$7 = 8					; size = 4
_strData$ = 8						; size = 4
?GetVertDataType@CElementTreeBuilder@@ABENABV?$CStringT@DV?$StrTraitMFC_DLL@DV?$ChTraitsCRT@D@ATL@@@@@ATL@@@Z PROC ; CElementTreeBuilder::GetVertDataType, COMDAT
; _this$ = ecx

; 803  : {

  00000	55		 push	 ebp
  00001	8b ec		 mov	 ebp, esp
  00003	6a ff		 push	 -1
  00005	68 00 00 00 00	 push	 __ehhandler$?GetVertDataType@CElementTreeBuilder@@ABENABV?$CStringT@DV?$StrTraitMFC_DLL@DV?$ChTraitsCRT@D@ATL@@@@@ATL@@@Z
  0000a	64 a1 00 00 00
	00		 mov	 eax, DWORD PTR fs:0
  00010	50		 push	 eax
  00011	83 ec 14	 sub	 esp, 20			; 00000014H
  00014	a1 00 00 00 00	 mov	 eax, DWORD PTR ___security_cookie
  00019	33 c5		 xor	 eax, ebp
  0001b	50		 push	 eax
  0001c	8d 45 f4	 lea	 eax, DWORD PTR __$EHRec$[ebp]
  0001f	64 a3 00 00 00
	00		 mov	 DWORD PTR fs:0, eax

; 804  : 	return atof(GetData(strData, "<Vert>", "<\\Vert>\r\n"));

  00025	68 00 00 00 00	 push	 OFFSET ??_C@_09BIGAMANA@?$DM?2Vert?$DO?$AN?6@
  0002a	8d 4d e8	 lea	 ecx, DWORD PTR $T4[ebp]
  0002d	ff 15 00 00 00
	00		 call	 DWORD PTR __imp_??0?$CStringT@DV?$StrTraitMFC_DLL@DV?$ChTraitsCRT@D@ATL@@@@@ATL@@QAE@PBD@Z
  00033	68 00 00 00 00	 push	 OFFSET ??_C@_06FFFOEPJG@?$DMVert?$DO@
  00038	8d 4d ec	 lea	 ecx, DWORD PTR $T5[ebp]
  0003b	c7 45 fc 00 00
	00 00		 mov	 DWORD PTR __$EHRec$[ebp+8], 0
  00042	ff 15 00 00 00
	00		 call	 DWORD PTR __imp_??0?$CStringT@DV?$StrTraitMFC_DLL@DV?$ChTraitsCRT@D@ATL@@@@@ATL@@QAE@PBD@Z

; 384  : 	CString strNewData = strOrgData;

  00048	ff 75 08	 push	 DWORD PTR _strData$[ebp]
  0004b	8d 4d 08	 lea	 ecx, DWORD PTR _strNewData$7[ebp]

; 804  : 	return atof(GetData(strData, "<Vert>", "<\\Vert>\r\n"));

  0004e	c6 45 fc 01	 mov	 BYTE PTR __$EHRec$[ebp+8], 1

; 384  : 	CString strNewData = strOrgData;

  00052	ff 15 00 00 00
	00		 call	 DWORD PTR __imp_??0?$CStringT@DV?$StrTraitMFC_DLL@DV?$ChTraitsCRT@D@ATL@@@@@ATL@@QAE@ABV01@@Z

; 385  : 	CDataConversion::GetStringData(strNewData, strTrimStart);

  00058	6a 01		 push	 1
  0005a	8d 45 ec	 lea	 eax, DWORD PTR $T5[ebp]
  0005d	c6 45 fc 02	 mov	 BYTE PTR __$EHRec$[ebp+8], 2
  00061	50		 push	 eax
  00062	8d 45 08	 lea	 eax, DWORD PTR _strNewData$7[ebp]
  00065	50		 push	 eax
  00066	8d 45 e4	 lea	 eax, DWORD PTR $T3[ebp]
  00069	50		 push	 eax
  0006a	e8 00 00 00 00	 call	 ?GetStringData@CDataConversion@@SA?AV?$CStringT@DV?$StrTraitMFC_DLL@DV?$ChTraitsCRT@D@ATL@@@@@ATL@@AAV23@ABV23@_N@Z ; CDataConversion::GetStringData
  0006f	83 c4 10	 add	 esp, 16			; 00000010H
  00072	8d 4d e4	 lea	 ecx, DWORD PTR $T3[ebp]
  00075	ff 15 00 00 00
	00		 call	 DWORD PTR __imp_??1?$CStringT@DV?$StrTraitMFC_DLL@DV?$ChTraitsCRT@D@ATL@@@@@ATL@@QAE@XZ

; 386  : 	return CDataConversion::GetStringData(strNewData, strTrimEnd);

  0007b	6a 01		 push	 1
  0007d	8d 45 e8	 lea	 eax, DWORD PTR $T4[ebp]
  00080	50		 push	 eax
  00081	8d 45 08	 lea	 eax, DWORD PTR _strNewData$7[ebp]
  00084	50		 push	 eax
  00085	8d 45 f0	 lea	 eax, DWORD PTR $T6[ebp]
  00088	50		 push	 eax
  00089	e8 00 00 00 00	 call	 ?GetStringData@CDataConversion@@SA?AV?$CStringT@DV?$StrTraitMFC_DLL@DV?$ChTraitsCRT@D@ATL@@@@@ATL@@AAV23@ABV23@_N@Z ; CDataConversion::GetStringData
  0008e	83 c4 10	 add	 esp, 16			; 00000010H
  00091	8d 4d 08	 lea	 ecx, DWORD PTR _strNewData$7[ebp]
  00094	ff 15 00 00 00
	00		 call	 DWORD PTR __imp_??1?$CStringT@DV?$StrTraitMFC_DLL@DV?$ChTraitsCRT@D@ATL@@@@@ATL@@QAE@XZ

; 804  : 	return atof(GetData(strData, "<Vert>", "<\\Vert>\r\n"));

  0009a	ff 75 f0	 push	 DWORD PTR $T6[ebp]
  0009d	ff 15 00 00 00
	00		 call	 DWORD PTR __imp__atof
  000a3	83 c4 04	 add	 esp, 4
  000a6	8d 4d f0	 lea	 ecx, DWORD PTR $T6[ebp]
  000a9	dd 5d e0	 fstp	 QWORD PTR $T2[ebp]
  000ac	ff 15 00 00 00
	00		 call	 DWORD PTR __imp_??1?$CStringT@DV?$StrTraitMFC_DLL@DV?$ChTraitsCRT@D@ATL@@@@@ATL@@QAE@XZ
  000b2	8d 4d ec	 lea	 ecx, DWORD PTR $T5[ebp]
  000b5	ff 15 00 00 00
	00		 call	 DWORD PTR __imp_??1?$CStringT@DV?$StrTraitMFC_DLL@DV?$ChTraitsCRT@D@ATL@@@@@ATL@@QAE@XZ
  000bb	8d 4d e8	 lea	 ecx, DWORD PTR $T4[ebp]
  000be	ff 15 00 00 00
	00		 call	 DWORD PTR __imp_??1?$CStringT@DV?$StrTraitMFC_DLL@DV?$ChTraitsCRT@D@ATL@@@@@ATL@@QAE@XZ
  000c4	dd 45 e0	 fld	 QWORD PTR $T2[ebp]

; 805  : }

  000c7	8b 4d f4	 mov	 ecx, DWORD PTR __$EHRec$[ebp]
  000ca	64 89 0d 00 00
	00 00		 mov	 DWORD PTR fs:0, ecx
  000d1	59		 pop	 ecx
  000d2	8b e5		 mov	 esp, ebp
  000d4	5d		 pop	 ebp
  000d5	c2 04 00	 ret	 4
_TEXT	ENDS
;	COMDAT text$x
text$x	SEGMENT
__unwindfunclet$?GetVertDataType@CElementTreeBuilder@@ABENABV?$CStringT@DV?$StrTraitMFC_DLL@DV?$ChTraitsCRT@D@ATL@@@@@ATL@@@Z$0:
  00000	8d 4d e8	 lea	 ecx, DWORD PTR $T4[ebp]
  00003	ff 25 00 00 00
	00		 jmp	 DWORD PTR __imp_??1?$CStringT@DV?$StrTraitMFC_DLL@DV?$ChTraitsCRT@D@ATL@@@@@ATL@@QAE@XZ
__unwindfunclet$?GetVertDataType@CElementTreeBuilder@@ABENABV?$CStringT@DV?$StrTraitMFC_DLL@DV?$ChTraitsCRT@D@ATL@@@@@ATL@@@Z$1:
  00009	8d 4d ec	 lea	 ecx, DWORD PTR $T5[ebp]
  0000c	ff 25 00 00 00
	00		 jmp	 DWORD PTR __imp_??1?$CStringT@DV?$StrTraitMFC_DLL@DV?$ChTraitsCRT@D@ATL@@@@@ATL@@QAE@XZ
__unwindfunclet$?GetVertDataType@CElementTreeBuilder@@ABENABV?$CStringT@DV?$StrTraitMFC_DLL@DV?$ChTraitsCRT@D@ATL@@@@@ATL@@@Z$3:
  00012	8d 4d 08	 lea	 ecx, DWORD PTR _strNewData$7[ebp]
  00015	ff 25 00 00 00
	00		 jmp	 DWORD PTR __imp_??1?$CStringT@DV?$StrTraitMFC_DLL@DV?$ChTraitsCRT@D@ATL@@@@@ATL@@QAE@XZ
  0001b	cc		 int	 3
  0001c	cc		 int	 3
  0001d	cc		 int	 3
  0001e	cc		 int	 3
  0001f	cc		 int	 3
__ehhandler$?GetVertDataType@CElementTreeBuilder@@ABENABV?$CStringT@DV?$StrTraitMFC_DLL@DV?$ChTraitsCRT@D@ATL@@@@@ATL@@@Z:
  00020	90		 npad	 1
  00021	90		 npad	 1
  00022	8b 54 24 08	 mov	 edx, DWORD PTR [esp+8]
  00026	8d 42 0c	 lea	 eax, DWORD PTR [edx+12]
  00029	8b 4a e8	 mov	 ecx, DWORD PTR [edx-24]
  0002c	33 c8		 xor	 ecx, eax
  0002e	e8 00 00 00 00	 call	 @__security_check_cookie@4
  00033	b8 00 00 00 00	 mov	 eax, OFFSET __ehfuncinfo$?GetVertDataType@CElementTreeBuilder@@ABENABV?$CStringT@DV?$StrTraitMFC_DLL@DV?$ChTraitsCRT@D@ATL@@@@@ATL@@@Z
  00038	e9 00 00 00 00	 jmp	 ___CxxFrameHandler3
text$x	ENDS
?GetVertDataType@CElementTreeBuilder@@ABENABV?$CStringT@DV?$StrTraitMFC_DLL@DV?$ChTraitsCRT@D@ATL@@@@@ATL@@@Z ENDP ; CElementTreeBuilder::GetVertDataType
; Function compile flags: /Ogtp
; File D:\git\src\IBK\IBK_DRFN\ProjSrc\SrcChartEx\ChartAddIn\ChartAnalysisToolAddIn\AnalysisTool\ElementTreeBuilder.cpp
;	COMDAT ?GetCoordinateType@CElementTreeBuilder@@ABE?AW4COORDINATETYPE@CAnalysis@@ABV?$CStringT@DV?$StrTraitMFC_DLL@DV?$ChTraitsCRT@D@ATL@@@@@ATL@@@Z
_TEXT	SEGMENT
$T2 = -28						; size = 4
$T3 = -24						; size = 4
$T4 = -20						; size = 4
$T5 = -16						; size = 4
__$EHRec$ = -12						; size = 12
_strNewData$6 = 8					; size = 4
_strData$ = 8						; size = 4
?GetCoordinateType@CElementTreeBuilder@@ABE?AW4COORDINATETYPE@CAnalysis@@ABV?$CStringT@DV?$StrTraitMFC_DLL@DV?$ChTraitsCRT@D@ATL@@@@@ATL@@@Z PROC ; CElementTreeBuilder::GetCoordinateType, COMDAT
; _this$ = ecx

; 798  : {

  00000	55		 push	 ebp
  00001	8b ec		 mov	 ebp, esp
  00003	6a ff		 push	 -1
  00005	68 00 00 00 00	 push	 __ehhandler$?GetCoordinateType@CElementTreeBuilder@@ABE?AW4COORDINATETYPE@CAnalysis@@ABV?$CStringT@DV?$StrTraitMFC_DLL@DV?$ChTraitsCRT@D@ATL@@@@@ATL@@@Z
  0000a	64 a1 00 00 00
	00		 mov	 eax, DWORD PTR fs:0
  00010	50		 push	 eax
  00011	83 ec 10	 sub	 esp, 16			; 00000010H
  00014	56		 push	 esi
  00015	a1 00 00 00 00	 mov	 eax, DWORD PTR ___security_cookie
  0001a	33 c5		 xor	 eax, ebp
  0001c	50		 push	 eax
  0001d	8d 45 f4	 lea	 eax, DWORD PTR __$EHRec$[ebp]
  00020	64 a3 00 00 00
	00		 mov	 DWORD PTR fs:0, eax

; 799  : 	return ((CAnalysis::COORDINATETYPE) atoi(GetData(strData, "<Coordinate>", "<\\Coordinate>\r\n")));

  00026	68 00 00 00 00	 push	 OFFSET ??_C@_0BA@IFAPIPNB@?$DM?2Coordinate?$DO?$AN?6@
  0002b	8d 4d e8	 lea	 ecx, DWORD PTR $T3[ebp]
  0002e	ff 15 00 00 00
	00		 call	 DWORD PTR __imp_??0?$CStringT@DV?$StrTraitMFC_DLL@DV?$ChTraitsCRT@D@ATL@@@@@ATL@@QAE@PBD@Z
  00034	68 00 00 00 00	 push	 OFFSET ??_C@_0N@CAIHOMCE@?$DMCoordinate?$DO@
  00039	8d 4d ec	 lea	 ecx, DWORD PTR $T4[ebp]
  0003c	c7 45 fc 00 00
	00 00		 mov	 DWORD PTR __$EHRec$[ebp+8], 0
  00043	ff 15 00 00 00
	00		 call	 DWORD PTR __imp_??0?$CStringT@DV?$StrTraitMFC_DLL@DV?$ChTraitsCRT@D@ATL@@@@@ATL@@QAE@PBD@Z

; 384  : 	CString strNewData = strOrgData;

  00049	ff 75 08	 push	 DWORD PTR _strData$[ebp]
  0004c	8d 4d 08	 lea	 ecx, DWORD PTR _strNewData$6[ebp]

; 799  : 	return ((CAnalysis::COORDINATETYPE) atoi(GetData(strData, "<Coordinate>", "<\\Coordinate>\r\n")));

  0004f	c6 45 fc 01	 mov	 BYTE PTR __$EHRec$[ebp+8], 1

; 384  : 	CString strNewData = strOrgData;

  00053	ff 15 00 00 00
	00		 call	 DWORD PTR __imp_??0?$CStringT@DV?$StrTraitMFC_DLL@DV?$ChTraitsCRT@D@ATL@@@@@ATL@@QAE@ABV01@@Z

; 385  : 	CDataConversion::GetStringData(strNewData, strTrimStart);

  00059	6a 01		 push	 1
  0005b	8d 45 ec	 lea	 eax, DWORD PTR $T4[ebp]
  0005e	c6 45 fc 02	 mov	 BYTE PTR __$EHRec$[ebp+8], 2
  00062	50		 push	 eax
  00063	8d 45 08	 lea	 eax, DWORD PTR _strNewData$6[ebp]
  00066	50		 push	 eax
  00067	8d 45 e4	 lea	 eax, DWORD PTR $T2[ebp]
  0006a	50		 push	 eax
  0006b	e8 00 00 00 00	 call	 ?GetStringData@CDataConversion@@SA?AV?$CStringT@DV?$StrTraitMFC_DLL@DV?$ChTraitsCRT@D@ATL@@@@@ATL@@AAV23@ABV23@_N@Z ; CDataConversion::GetStringData
  00070	83 c4 10	 add	 esp, 16			; 00000010H
  00073	8d 4d e4	 lea	 ecx, DWORD PTR $T2[ebp]
  00076	ff 15 00 00 00
	00		 call	 DWORD PTR __imp_??1?$CStringT@DV?$StrTraitMFC_DLL@DV?$ChTraitsCRT@D@ATL@@@@@ATL@@QAE@XZ

; 386  : 	return CDataConversion::GetStringData(strNewData, strTrimEnd);

  0007c	6a 01		 push	 1
  0007e	8d 45 e8	 lea	 eax, DWORD PTR $T3[ebp]
  00081	50		 push	 eax
  00082	8d 45 08	 lea	 eax, DWORD PTR _strNewData$6[ebp]
  00085	50		 push	 eax
  00086	8d 45 f0	 lea	 eax, DWORD PTR $T5[ebp]
  00089	50		 push	 eax
  0008a	e8 00 00 00 00	 call	 ?GetStringData@CDataConversion@@SA?AV?$CStringT@DV?$StrTraitMFC_DLL@DV?$ChTraitsCRT@D@ATL@@@@@ATL@@AAV23@ABV23@_N@Z ; CDataConversion::GetStringData
  0008f	83 c4 10	 add	 esp, 16			; 00000010H
  00092	8d 4d 08	 lea	 ecx, DWORD PTR _strNewData$6[ebp]
  00095	ff 15 00 00 00
	00		 call	 DWORD PTR __imp_??1?$CStringT@DV?$StrTraitMFC_DLL@DV?$ChTraitsCRT@D@ATL@@@@@ATL@@QAE@XZ

; 799  : 	return ((CAnalysis::COORDINATETYPE) atoi(GetData(strData, "<Coordinate>", "<\\Coordinate>\r\n")));

  0009b	ff 75 f0	 push	 DWORD PTR $T5[ebp]
  0009e	ff 15 00 00 00
	00		 call	 DWORD PTR __imp__atoi
  000a4	83 c4 04	 add	 esp, 4
  000a7	8d 4d f0	 lea	 ecx, DWORD PTR $T5[ebp]
  000aa	8b f0		 mov	 esi, eax
  000ac	ff 15 00 00 00
	00		 call	 DWORD PTR __imp_??1?$CStringT@DV?$StrTraitMFC_DLL@DV?$ChTraitsCRT@D@ATL@@@@@ATL@@QAE@XZ
  000b2	8d 4d ec	 lea	 ecx, DWORD PTR $T4[ebp]
  000b5	ff 15 00 00 00
	00		 call	 DWORD PTR __imp_??1?$CStringT@DV?$StrTraitMFC_DLL@DV?$ChTraitsCRT@D@ATL@@@@@ATL@@QAE@XZ
  000bb	8d 4d e8	 lea	 ecx, DWORD PTR $T3[ebp]
  000be	ff 15 00 00 00
	00		 call	 DWORD PTR __imp_??1?$CStringT@DV?$StrTraitMFC_DLL@DV?$ChTraitsCRT@D@ATL@@@@@ATL@@QAE@XZ
  000c4	8b c6		 mov	 eax, esi

; 800  : }

  000c6	8b 4d f4	 mov	 ecx, DWORD PTR __$EHRec$[ebp]
  000c9	64 89 0d 00 00
	00 00		 mov	 DWORD PTR fs:0, ecx
  000d0	59		 pop	 ecx
  000d1	5e		 pop	 esi
  000d2	8b e5		 mov	 esp, ebp
  000d4	5d		 pop	 ebp
  000d5	c2 04 00	 ret	 4
_TEXT	ENDS
;	COMDAT text$x
text$x	SEGMENT
__unwindfunclet$?GetCoordinateType@CElementTreeBuilder@@ABE?AW4COORDINATETYPE@CAnalysis@@ABV?$CStringT@DV?$StrTraitMFC_DLL@DV?$ChTraitsCRT@D@ATL@@@@@ATL@@@Z$0:
  00000	8d 4d e8	 lea	 ecx, DWORD PTR $T3[ebp]
  00003	ff 25 00 00 00
	00		 jmp	 DWORD PTR __imp_??1?$CStringT@DV?$StrTraitMFC_DLL@DV?$ChTraitsCRT@D@ATL@@@@@ATL@@QAE@XZ
__unwindfunclet$?GetCoordinateType@CElementTreeBuilder@@ABE?AW4COORDINATETYPE@CAnalysis@@ABV?$CStringT@DV?$StrTraitMFC_DLL@DV?$ChTraitsCRT@D@ATL@@@@@ATL@@@Z$1:
  00009	8d 4d ec	 lea	 ecx, DWORD PTR $T4[ebp]
  0000c	ff 25 00 00 00
	00		 jmp	 DWORD PTR __imp_??1?$CStringT@DV?$StrTraitMFC_DLL@DV?$ChTraitsCRT@D@ATL@@@@@ATL@@QAE@XZ
__unwindfunclet$?GetCoordinateType@CElementTreeBuilder@@ABE?AW4COORDINATETYPE@CAnalysis@@ABV?$CStringT@DV?$StrTraitMFC_DLL@DV?$ChTraitsCRT@D@ATL@@@@@ATL@@@Z$3:
  00012	8d 4d 08	 lea	 ecx, DWORD PTR _strNewData$6[ebp]
  00015	ff 25 00 00 00
	00		 jmp	 DWORD PTR __imp_??1?$CStringT@DV?$StrTraitMFC_DLL@DV?$ChTraitsCRT@D@ATL@@@@@ATL@@QAE@XZ
  0001b	cc		 int	 3
  0001c	cc		 int	 3
  0001d	cc		 int	 3
  0001e	cc		 int	 3
  0001f	cc		 int	 3
__ehhandler$?GetCoordinateType@CElementTreeBuilder@@ABE?AW4COORDINATETYPE@CAnalysis@@ABV?$CStringT@DV?$StrTraitMFC_DLL@DV?$ChTraitsCRT@D@ATL@@@@@ATL@@@Z:
  00020	90		 npad	 1
  00021	90		 npad	 1
  00022	8b 54 24 08	 mov	 edx, DWORD PTR [esp+8]
  00026	8d 42 0c	 lea	 eax, DWORD PTR [edx+12]
  00029	8b 4a e8	 mov	 ecx, DWORD PTR [edx-24]
  0002c	33 c8		 xor	 ecx, eax
  0002e	e8 00 00 00 00	 call	 @__security_check_cookie@4
  00033	b8 00 00 00 00	 mov	 eax, OFFSET __ehfuncinfo$?GetCoordinateType@CElementTreeBuilder@@ABE?AW4COORDINATETYPE@CAnalysis@@ABV?$CStringT@DV?$StrTraitMFC_DLL@DV?$ChTraitsCRT@D@ATL@@@@@ATL@@@Z
  00038	e9 00 00 00 00	 jmp	 ___CxxFrameHandler3
text$x	ENDS
?GetCoordinateType@CElementTreeBuilder@@ABE?AW4COORDINATETYPE@CAnalysis@@ABV?$CStringT@DV?$StrTraitMFC_DLL@DV?$ChTraitsCRT@D@ATL@@@@@ATL@@@Z ENDP ; CElementTreeBuilder::GetCoordinateType
; Function compile flags: /Ogtp
; File D:\git\src\IBK\IBK_DRFN\ProjSrc\SrcChartEx\ChartAddIn\ChartAnalysisToolAddIn\AnalysisTool\ElementTreeBuilder.cpp
;	COMDAT ?GetDataTypeEnvironment@CElementTreeBuilder@@ABE?AVCDataTypeEnvironment@@ABV?$CStringT@DV?$StrTraitMFC_DLL@DV?$ChTraitsCRT@D@ATL@@@@@ATL@@@Z
_TEXT	SEGMENT
_dVert$ = -68						; size = 8
$T2 = -60						; size = 8
$T3 = -52						; size = 4
$T4 = -52						; size = 4
$T5 = -52						; size = 4
$T6 = -52						; size = 4
$T7 = -52						; size = 4
_strHorz$ = -48						; size = 4
_strExtData$ = -44					; size = 4
_strStrVert$ = -40					; size = 4
$T8 = -36						; size = 4
$T9 = -36						; size = 4
$T10 = -36						; size = 4
$T11 = -36						; size = 4
$T12 = -36						; size = 4
$T13 = -32						; size = 4
$T14 = -32						; size = 4
$T15 = -32						; size = 4
$T16 = -32						; size = 4
$T17 = -28						; size = 4
$T18 = -28						; size = 4
$T19 = -28						; size = 4
$T20 = -24						; size = 4
$T21 = -24						; size = 4
$T22 = -20						; size = 4
_strDataTypeData$ = -16					; size = 4
__$EHRec$ = -12						; size = 12
___$ReturnUdt$ = 8					; size = 4
_strNewData$23 = 12					; size = 4
_strNewData$24 = 12					; size = 4
_strNewData$25 = 12					; size = 4
_strNewData$26 = 12					; size = 4
_strNewData$27 = 12					; size = 4
_strNewData$28 = 12					; size = 4
_strData$ = 12						; size = 4
?GetDataTypeEnvironment@CElementTreeBuilder@@ABE?AVCDataTypeEnvironment@@ABV?$CStringT@DV?$StrTraitMFC_DLL@DV?$ChTraitsCRT@D@ATL@@@@@ATL@@@Z PROC ; CElementTreeBuilder::GetDataTypeEnvironment, COMDAT
; _this$ = ecx

; 783  : {

  00000	55		 push	 ebp
  00001	8b ec		 mov	 ebp, esp
  00003	6a ff		 push	 -1
  00005	68 00 00 00 00	 push	 __ehhandler$?GetDataTypeEnvironment@CElementTreeBuilder@@ABE?AVCDataTypeEnvironment@@ABV?$CStringT@DV?$StrTraitMFC_DLL@DV?$ChTraitsCRT@D@ATL@@@@@ATL@@@Z
  0000a	64 a1 00 00 00
	00		 mov	 eax, DWORD PTR fs:0
  00010	50		 push	 eax
  00011	83 ec 38	 sub	 esp, 56			; 00000038H
  00014	56		 push	 esi
  00015	57		 push	 edi
  00016	a1 00 00 00 00	 mov	 eax, DWORD PTR ___security_cookie
  0001b	33 c5		 xor	 eax, ebp
  0001d	50		 push	 eax
  0001e	8d 45 f4	 lea	 eax, DWORD PTR __$EHRec$[ebp]
  00021	64 a3 00 00 00
	00		 mov	 DWORD PTR fs:0, eax
  00027	8b f9		 mov	 edi, ecx

; 784  : 	CString strDataTypeData = GetData(strData, "<DataType>\r\n", "<\\DataType>\r\n");

  00029	68 00 00 00 00	 push	 OFFSET ??_C@_0O@DKHNMBCK@?$DM?2DataType?$DO?$AN?6@
  0002e	8d 4d e8	 lea	 ecx, DWORD PTR $T21[ebp]
  00031	ff 15 00 00 00
	00		 call	 DWORD PTR __imp_??0?$CStringT@DV?$StrTraitMFC_DLL@DV?$ChTraitsCRT@D@ATL@@@@@ATL@@QAE@PBD@Z
  00037	68 00 00 00 00	 push	 OFFSET ??_C@_0N@GLGCPBKI@?$DMDataType?$DO?$AN?6@
  0003c	8d 4d ec	 lea	 ecx, DWORD PTR $T22[ebp]
  0003f	c7 45 fc 00 00
	00 00		 mov	 DWORD PTR __$EHRec$[ebp+8], 0
  00046	ff 15 00 00 00
	00		 call	 DWORD PTR __imp_??0?$CStringT@DV?$StrTraitMFC_DLL@DV?$ChTraitsCRT@D@ATL@@@@@ATL@@QAE@PBD@Z

; 384  : 	CString strNewData = strOrgData;

  0004c	ff 75 0c	 push	 DWORD PTR _strData$[ebp]
  0004f	8d 4d 0c	 lea	 ecx, DWORD PTR _strNewData$28[ebp]

; 784  : 	CString strDataTypeData = GetData(strData, "<DataType>\r\n", "<\\DataType>\r\n");

  00052	c6 45 fc 01	 mov	 BYTE PTR __$EHRec$[ebp+8], 1

; 384  : 	CString strNewData = strOrgData;

  00056	ff 15 00 00 00
	00		 call	 DWORD PTR __imp_??0?$CStringT@DV?$StrTraitMFC_DLL@DV?$ChTraitsCRT@D@ATL@@@@@ATL@@QAE@ABV01@@Z

; 385  : 	CDataConversion::GetStringData(strNewData, strTrimStart);

  0005c	6a 01		 push	 1
  0005e	8d 45 ec	 lea	 eax, DWORD PTR $T22[ebp]
  00061	c6 45 fc 02	 mov	 BYTE PTR __$EHRec$[ebp+8], 2
  00065	50		 push	 eax
  00066	8d 45 0c	 lea	 eax, DWORD PTR _strNewData$28[ebp]
  00069	50		 push	 eax
  0006a	8d 45 dc	 lea	 eax, DWORD PTR $T9[ebp]
  0006d	50		 push	 eax
  0006e	e8 00 00 00 00	 call	 ?GetStringData@CDataConversion@@SA?AV?$CStringT@DV?$StrTraitMFC_DLL@DV?$ChTraitsCRT@D@ATL@@@@@ATL@@AAV23@ABV23@_N@Z ; CDataConversion::GetStringData
  00073	83 c4 10	 add	 esp, 16			; 00000010H
  00076	8d 4d dc	 lea	 ecx, DWORD PTR $T9[ebp]
  00079	ff 15 00 00 00
	00		 call	 DWORD PTR __imp_??1?$CStringT@DV?$StrTraitMFC_DLL@DV?$ChTraitsCRT@D@ATL@@@@@ATL@@QAE@XZ

; 386  : 	return CDataConversion::GetStringData(strNewData, strTrimEnd);

  0007f	6a 01		 push	 1
  00081	8d 45 e8	 lea	 eax, DWORD PTR $T21[ebp]
  00084	50		 push	 eax
  00085	8d 45 0c	 lea	 eax, DWORD PTR _strNewData$28[ebp]
  00088	50		 push	 eax
  00089	8d 45 f0	 lea	 eax, DWORD PTR _strDataTypeData$[ebp]
  0008c	50		 push	 eax
  0008d	e8 00 00 00 00	 call	 ?GetStringData@CDataConversion@@SA?AV?$CStringT@DV?$StrTraitMFC_DLL@DV?$ChTraitsCRT@D@ATL@@@@@ATL@@AAV23@ABV23@_N@Z ; CDataConversion::GetStringData
  00092	83 c4 10	 add	 esp, 16			; 00000010H
  00095	8d 4d 0c	 lea	 ecx, DWORD PTR _strNewData$28[ebp]
  00098	ff 15 00 00 00
	00		 call	 DWORD PTR __imp_??1?$CStringT@DV?$StrTraitMFC_DLL@DV?$ChTraitsCRT@D@ATL@@@@@ATL@@QAE@XZ

; 784  : 	CString strDataTypeData = GetData(strData, "<DataType>\r\n", "<\\DataType>\r\n");

  0009e	8d 4d ec	 lea	 ecx, DWORD PTR $T22[ebp]
  000a1	ff 15 00 00 00
	00		 call	 DWORD PTR __imp_??1?$CStringT@DV?$StrTraitMFC_DLL@DV?$ChTraitsCRT@D@ATL@@@@@ATL@@QAE@XZ
  000a7	8d 4d e8	 lea	 ecx, DWORD PTR $T21[ebp]
  000aa	c6 45 fc 05	 mov	 BYTE PTR __$EHRec$[ebp+8], 5
  000ae	ff 15 00 00 00
	00		 call	 DWORD PTR __imp_??1?$CStringT@DV?$StrTraitMFC_DLL@DV?$ChTraitsCRT@D@ATL@@@@@ATL@@QAE@XZ

; 799  : 	return ((CAnalysis::COORDINATETYPE) atoi(GetData(strData, "<Coordinate>", "<\\Coordinate>\r\n")));

  000b4	68 00 00 00 00	 push	 OFFSET ??_C@_0BA@IFAPIPNB@?$DM?2Coordinate?$DO?$AN?6@
  000b9	8d 4d dc	 lea	 ecx, DWORD PTR $T10[ebp]
  000bc	ff 15 00 00 00
	00		 call	 DWORD PTR __imp_??0?$CStringT@DV?$StrTraitMFC_DLL@DV?$ChTraitsCRT@D@ATL@@@@@ATL@@QAE@PBD@Z
  000c2	68 00 00 00 00	 push	 OFFSET ??_C@_0N@CAIHOMCE@?$DMCoordinate?$DO@
  000c7	8d 4d e0	 lea	 ecx, DWORD PTR $T14[ebp]
  000ca	c6 45 fc 06	 mov	 BYTE PTR __$EHRec$[ebp+8], 6
  000ce	ff 15 00 00 00
	00		 call	 DWORD PTR __imp_??0?$CStringT@DV?$StrTraitMFC_DLL@DV?$ChTraitsCRT@D@ATL@@@@@ATL@@QAE@PBD@Z

; 384  : 	CString strNewData = strOrgData;

  000d4	8d 45 f0	 lea	 eax, DWORD PTR _strDataTypeData$[ebp]

; 799  : 	return ((CAnalysis::COORDINATETYPE) atoi(GetData(strData, "<Coordinate>", "<\\Coordinate>\r\n")));

  000d7	c6 45 fc 07	 mov	 BYTE PTR __$EHRec$[ebp+8], 7

; 384  : 	CString strNewData = strOrgData;

  000db	50		 push	 eax
  000dc	8d 4d 0c	 lea	 ecx, DWORD PTR _strNewData$27[ebp]
  000df	ff 15 00 00 00
	00		 call	 DWORD PTR __imp_??0?$CStringT@DV?$StrTraitMFC_DLL@DV?$ChTraitsCRT@D@ATL@@@@@ATL@@QAE@ABV01@@Z

; 385  : 	CDataConversion::GetStringData(strNewData, strTrimStart);

  000e5	6a 01		 push	 1
  000e7	8d 45 e0	 lea	 eax, DWORD PTR $T14[ebp]
  000ea	c6 45 fc 08	 mov	 BYTE PTR __$EHRec$[ebp+8], 8
  000ee	50		 push	 eax
  000ef	8d 45 0c	 lea	 eax, DWORD PTR _strNewData$27[ebp]
  000f2	50		 push	 eax
  000f3	8d 45 cc	 lea	 eax, DWORD PTR $T7[ebp]
  000f6	50		 push	 eax
  000f7	e8 00 00 00 00	 call	 ?GetStringData@CDataConversion@@SA?AV?$CStringT@DV?$StrTraitMFC_DLL@DV?$ChTraitsCRT@D@ATL@@@@@ATL@@AAV23@ABV23@_N@Z ; CDataConversion::GetStringData
  000fc	83 c4 10	 add	 esp, 16			; 00000010H
  000ff	8d 4d cc	 lea	 ecx, DWORD PTR $T7[ebp]
  00102	ff 15 00 00 00
	00		 call	 DWORD PTR __imp_??1?$CStringT@DV?$StrTraitMFC_DLL@DV?$ChTraitsCRT@D@ATL@@@@@ATL@@QAE@XZ

; 386  : 	return CDataConversion::GetStringData(strNewData, strTrimEnd);

  00108	6a 01		 push	 1
  0010a	8d 45 dc	 lea	 eax, DWORD PTR $T10[ebp]
  0010d	50		 push	 eax
  0010e	8d 45 0c	 lea	 eax, DWORD PTR _strNewData$27[ebp]
  00111	50		 push	 eax
  00112	8d 45 e4	 lea	 eax, DWORD PTR $T18[ebp]
  00115	50		 push	 eax
  00116	e8 00 00 00 00	 call	 ?GetStringData@CDataConversion@@SA?AV?$CStringT@DV?$StrTraitMFC_DLL@DV?$ChTraitsCRT@D@ATL@@@@@ATL@@AAV23@ABV23@_N@Z ; CDataConversion::GetStringData
  0011b	83 c4 10	 add	 esp, 16			; 00000010H
  0011e	8d 4d 0c	 lea	 ecx, DWORD PTR _strNewData$27[ebp]
  00121	ff 15 00 00 00
	00		 call	 DWORD PTR __imp_??1?$CStringT@DV?$StrTraitMFC_DLL@DV?$ChTraitsCRT@D@ATL@@@@@ATL@@QAE@XZ

; 799  : 	return ((CAnalysis::COORDINATETYPE) atoi(GetData(strData, "<Coordinate>", "<\\Coordinate>\r\n")));

  00127	ff 75 e4	 push	 DWORD PTR $T18[ebp]
  0012a	ff 15 00 00 00
	00		 call	 DWORD PTR __imp__atoi
  00130	83 c4 04	 add	 esp, 4
  00133	8d 4d e4	 lea	 ecx, DWORD PTR $T18[ebp]
  00136	8b f0		 mov	 esi, eax
  00138	ff 15 00 00 00
	00		 call	 DWORD PTR __imp_??1?$CStringT@DV?$StrTraitMFC_DLL@DV?$ChTraitsCRT@D@ATL@@@@@ATL@@QAE@XZ
  0013e	8d 4d e0	 lea	 ecx, DWORD PTR $T14[ebp]
  00141	ff 15 00 00 00
	00		 call	 DWORD PTR __imp_??1?$CStringT@DV?$StrTraitMFC_DLL@DV?$ChTraitsCRT@D@ATL@@@@@ATL@@QAE@XZ
  00147	8d 4d dc	 lea	 ecx, DWORD PTR $T10[ebp]
  0014a	c6 45 fc 05	 mov	 BYTE PTR __$EHRec$[ebp+8], 5
  0014e	ff 15 00 00 00
	00		 call	 DWORD PTR __imp_??1?$CStringT@DV?$StrTraitMFC_DLL@DV?$ChTraitsCRT@D@ATL@@@@@ATL@@QAE@XZ

; 804  : 	return atof(GetData(strData, "<Vert>", "<\\Vert>\r\n"));

  00154	68 00 00 00 00	 push	 OFFSET ??_C@_09BIGAMANA@?$DM?2Vert?$DO?$AN?6@
  00159	8d 4d e4	 lea	 ecx, DWORD PTR $T17[ebp]
  0015c	ff 15 00 00 00
	00		 call	 DWORD PTR __imp_??0?$CStringT@DV?$StrTraitMFC_DLL@DV?$ChTraitsCRT@D@ATL@@@@@ATL@@QAE@PBD@Z
  00162	68 00 00 00 00	 push	 OFFSET ??_C@_06FFFOEPJG@?$DMVert?$DO@
  00167	8d 4d e0	 lea	 ecx, DWORD PTR $T13[ebp]
  0016a	c6 45 fc 09	 mov	 BYTE PTR __$EHRec$[ebp+8], 9
  0016e	ff 15 00 00 00
	00		 call	 DWORD PTR __imp_??0?$CStringT@DV?$StrTraitMFC_DLL@DV?$ChTraitsCRT@D@ATL@@@@@ATL@@QAE@PBD@Z

; 384  : 	CString strNewData = strOrgData;

  00174	8d 45 f0	 lea	 eax, DWORD PTR _strDataTypeData$[ebp]

; 804  : 	return atof(GetData(strData, "<Vert>", "<\\Vert>\r\n"));

  00177	c6 45 fc 0a	 mov	 BYTE PTR __$EHRec$[ebp+8], 10 ; 0000000aH

; 384  : 	CString strNewData = strOrgData;

  0017b	50		 push	 eax
  0017c	8d 4d 0c	 lea	 ecx, DWORD PTR _strNewData$25[ebp]
  0017f	ff 15 00 00 00
	00		 call	 DWORD PTR __imp_??0?$CStringT@DV?$StrTraitMFC_DLL@DV?$ChTraitsCRT@D@ATL@@@@@ATL@@QAE@ABV01@@Z

; 385  : 	CDataConversion::GetStringData(strNewData, strTrimStart);

  00185	6a 01		 push	 1
  00187	8d 45 e0	 lea	 eax, DWORD PTR $T13[ebp]
  0018a	c6 45 fc 0b	 mov	 BYTE PTR __$EHRec$[ebp+8], 11 ; 0000000bH
  0018e	50		 push	 eax
  0018f	8d 45 0c	 lea	 eax, DWORD PTR _strNewData$25[ebp]
  00192	50		 push	 eax
  00193	8d 45 cc	 lea	 eax, DWORD PTR $T6[ebp]
  00196	50		 push	 eax
  00197	e8 00 00 00 00	 call	 ?GetStringData@CDataConversion@@SA?AV?$CStringT@DV?$StrTraitMFC_DLL@DV?$ChTraitsCRT@D@ATL@@@@@ATL@@AAV23@ABV23@_N@Z ; CDataConversion::GetStringData
  0019c	83 c4 10	 add	 esp, 16			; 00000010H
  0019f	8d 4d cc	 lea	 ecx, DWORD PTR $T6[ebp]
  001a2	ff 15 00 00 00
	00		 call	 DWORD PTR __imp_??1?$CStringT@DV?$StrTraitMFC_DLL@DV?$ChTraitsCRT@D@ATL@@@@@ATL@@QAE@XZ

; 386  : 	return CDataConversion::GetStringData(strNewData, strTrimEnd);

  001a8	6a 01		 push	 1
  001aa	8d 45 e4	 lea	 eax, DWORD PTR $T17[ebp]
  001ad	50		 push	 eax
  001ae	8d 45 0c	 lea	 eax, DWORD PTR _strNewData$25[ebp]
  001b1	50		 push	 eax
  001b2	8d 45 dc	 lea	 eax, DWORD PTR $T8[ebp]
  001b5	50		 push	 eax
  001b6	e8 00 00 00 00	 call	 ?GetStringData@CDataConversion@@SA?AV?$CStringT@DV?$StrTraitMFC_DLL@DV?$ChTraitsCRT@D@ATL@@@@@ATL@@AAV23@ABV23@_N@Z ; CDataConversion::GetStringData
  001bb	83 c4 10	 add	 esp, 16			; 00000010H
  001be	8d 4d 0c	 lea	 ecx, DWORD PTR _strNewData$25[ebp]
  001c1	ff 15 00 00 00
	00		 call	 DWORD PTR __imp_??1?$CStringT@DV?$StrTraitMFC_DLL@DV?$ChTraitsCRT@D@ATL@@@@@ATL@@QAE@XZ

; 804  : 	return atof(GetData(strData, "<Vert>", "<\\Vert>\r\n"));

  001c7	ff 75 dc	 push	 DWORD PTR $T8[ebp]
  001ca	ff 15 00 00 00
	00		 call	 DWORD PTR __imp__atof
  001d0	83 c4 04	 add	 esp, 4
  001d3	8d 4d dc	 lea	 ecx, DWORD PTR $T8[ebp]
  001d6	dd 5d c4	 fstp	 QWORD PTR $T2[ebp]
  001d9	ff 15 00 00 00
	00		 call	 DWORD PTR __imp_??1?$CStringT@DV?$StrTraitMFC_DLL@DV?$ChTraitsCRT@D@ATL@@@@@ATL@@QAE@XZ
  001df	8d 4d e0	 lea	 ecx, DWORD PTR $T13[ebp]
  001e2	ff 15 00 00 00
	00		 call	 DWORD PTR __imp_??1?$CStringT@DV?$StrTraitMFC_DLL@DV?$ChTraitsCRT@D@ATL@@@@@ATL@@QAE@XZ
  001e8	8d 4d e4	 lea	 ecx, DWORD PTR $T17[ebp]
  001eb	c6 45 fc 05	 mov	 BYTE PTR __$EHRec$[ebp+8], 5
  001ef	ff 15 00 00 00
	00		 call	 DWORD PTR __imp_??1?$CStringT@DV?$StrTraitMFC_DLL@DV?$ChTraitsCRT@D@ATL@@@@@ATL@@QAE@XZ

; 785  : 	CAnalysis::COORDINATETYPE eCoordinateType = GetCoordinateType(strDataTypeData);
; 786  : 	double dVert = GetVertDataType(strDataTypeData);

  001f5	f2 0f 10 45 c4	 movsd	 xmm0, QWORD PTR $T2[ebp]

; 787  : 	CString strHorz = GetData(strDataTypeData, "<Horz>", "<\\Horz>\r\n");

  001fa	8d 4d e0	 lea	 ecx, DWORD PTR $T16[ebp]
  001fd	68 00 00 00 00	 push	 OFFSET ??_C@_09GKBBACOG@?$DM?2Horz?$DO?$AN?6@
  00202	f2 0f 11 45 bc	 movsd	 QWORD PTR _dVert$[ebp], xmm0
  00207	ff 15 00 00 00
	00		 call	 DWORD PTR __imp_??0?$CStringT@DV?$StrTraitMFC_DLL@DV?$ChTraitsCRT@D@ATL@@@@@ATL@@QAE@PBD@Z
  0020d	68 00 00 00 00	 push	 OFFSET ??_C@_06CMKMBJNG@?$DMHorz?$DO@
  00212	8d 4d dc	 lea	 ecx, DWORD PTR $T12[ebp]
  00215	c6 45 fc 0c	 mov	 BYTE PTR __$EHRec$[ebp+8], 12 ; 0000000cH
  00219	ff 15 00 00 00
	00		 call	 DWORD PTR __imp_??0?$CStringT@DV?$StrTraitMFC_DLL@DV?$ChTraitsCRT@D@ATL@@@@@ATL@@QAE@PBD@Z

; 384  : 	CString strNewData = strOrgData;

  0021f	8d 45 f0	 lea	 eax, DWORD PTR _strDataTypeData$[ebp]

; 787  : 	CString strHorz = GetData(strDataTypeData, "<Horz>", "<\\Horz>\r\n");

  00222	c6 45 fc 0d	 mov	 BYTE PTR __$EHRec$[ebp+8], 13 ; 0000000dH

; 384  : 	CString strNewData = strOrgData;

  00226	50		 push	 eax
  00227	8d 4d 0c	 lea	 ecx, DWORD PTR _strNewData$26[ebp]
  0022a	ff 15 00 00 00
	00		 call	 DWORD PTR __imp_??0?$CStringT@DV?$StrTraitMFC_DLL@DV?$ChTraitsCRT@D@ATL@@@@@ATL@@QAE@ABV01@@Z
  00230	c6 45 fc 0e	 mov	 BYTE PTR __$EHRec$[ebp+8], 14 ; 0000000eH

; 385  : 	CDataConversion::GetStringData(strNewData, strTrimStart);

  00234	6a 01		 push	 1
  00236	8d 45 dc	 lea	 eax, DWORD PTR $T12[ebp]
  00239	50		 push	 eax
  0023a	8d 45 0c	 lea	 eax, DWORD PTR _strNewData$26[ebp]
  0023d	50		 push	 eax
  0023e	8d 45 cc	 lea	 eax, DWORD PTR $T5[ebp]
  00241	50		 push	 eax
  00242	e8 00 00 00 00	 call	 ?GetStringData@CDataConversion@@SA?AV?$CStringT@DV?$StrTraitMFC_DLL@DV?$ChTraitsCRT@D@ATL@@@@@ATL@@AAV23@ABV23@_N@Z ; CDataConversion::GetStringData
  00247	83 c4 10	 add	 esp, 16			; 00000010H
  0024a	8d 4d cc	 lea	 ecx, DWORD PTR $T5[ebp]
  0024d	ff 15 00 00 00
	00		 call	 DWORD PTR __imp_??1?$CStringT@DV?$StrTraitMFC_DLL@DV?$ChTraitsCRT@D@ATL@@@@@ATL@@QAE@XZ

; 386  : 	return CDataConversion::GetStringData(strNewData, strTrimEnd);

  00253	6a 01		 push	 1
  00255	8d 45 e0	 lea	 eax, DWORD PTR $T16[ebp]
  00258	50		 push	 eax
  00259	8d 45 0c	 lea	 eax, DWORD PTR _strNewData$26[ebp]
  0025c	50		 push	 eax
  0025d	8d 45 d0	 lea	 eax, DWORD PTR _strHorz$[ebp]
  00260	50		 push	 eax
  00261	e8 00 00 00 00	 call	 ?GetStringData@CDataConversion@@SA?AV?$CStringT@DV?$StrTraitMFC_DLL@DV?$ChTraitsCRT@D@ATL@@@@@ATL@@AAV23@ABV23@_N@Z ; CDataConversion::GetStringData
  00266	83 c4 10	 add	 esp, 16			; 00000010H
  00269	8d 4d 0c	 lea	 ecx, DWORD PTR _strNewData$26[ebp]
  0026c	ff 15 00 00 00
	00		 call	 DWORD PTR __imp_??1?$CStringT@DV?$StrTraitMFC_DLL@DV?$ChTraitsCRT@D@ATL@@@@@ATL@@QAE@XZ

; 787  : 	CString strHorz = GetData(strDataTypeData, "<Horz>", "<\\Horz>\r\n");

  00272	8d 4d dc	 lea	 ecx, DWORD PTR $T12[ebp]
  00275	ff 15 00 00 00
	00		 call	 DWORD PTR __imp_??1?$CStringT@DV?$StrTraitMFC_DLL@DV?$ChTraitsCRT@D@ATL@@@@@ATL@@QAE@XZ
  0027b	8d 4d e0	 lea	 ecx, DWORD PTR $T16[ebp]
  0027e	c6 45 fc 11	 mov	 BYTE PTR __$EHRec$[ebp+8], 17 ; 00000011H
  00282	ff 15 00 00 00
	00		 call	 DWORD PTR __imp_??1?$CStringT@DV?$StrTraitMFC_DLL@DV?$ChTraitsCRT@D@ATL@@@@@ATL@@QAE@XZ

; 788  : 	// 2008.08.20   <<
; 789  : 	//return CDataTypeEnvironment(eCoordinateType, dVert, strHorz);
; 790  : 	CString strExtData = GetData(strDataTypeData, "<ExtData>", "<\\ExtData>\r\n");

  00288	68 00 00 00 00	 push	 OFFSET ??_C@_0N@ONMDHGBL@?$DM?2ExtData?$DO?$AN?6@
  0028d	8d 4d e8	 lea	 ecx, DWORD PTR $T20[ebp]
  00290	ff 15 00 00 00
	00		 call	 DWORD PTR __imp_??0?$CStringT@DV?$StrTraitMFC_DLL@DV?$ChTraitsCRT@D@ATL@@@@@ATL@@QAE@PBD@Z
  00296	68 00 00 00 00	 push	 OFFSET ??_C@_09EBDLFGEM@?$DMExtData?$DO@
  0029b	8d 4d e4	 lea	 ecx, DWORD PTR $T19[ebp]
  0029e	c6 45 fc 12	 mov	 BYTE PTR __$EHRec$[ebp+8], 18 ; 00000012H
  002a2	ff 15 00 00 00
	00		 call	 DWORD PTR __imp_??0?$CStringT@DV?$StrTraitMFC_DLL@DV?$ChTraitsCRT@D@ATL@@@@@ATL@@QAE@PBD@Z

; 384  : 	CString strNewData = strOrgData;

  002a8	8d 45 f0	 lea	 eax, DWORD PTR _strDataTypeData$[ebp]

; 788  : 	// 2008.08.20   <<
; 789  : 	//return CDataTypeEnvironment(eCoordinateType, dVert, strHorz);
; 790  : 	CString strExtData = GetData(strDataTypeData, "<ExtData>", "<\\ExtData>\r\n");

  002ab	c6 45 fc 13	 mov	 BYTE PTR __$EHRec$[ebp+8], 19 ; 00000013H

; 384  : 	CString strNewData = strOrgData;

  002af	50		 push	 eax
  002b0	8d 4d 0c	 lea	 ecx, DWORD PTR _strNewData$24[ebp]
  002b3	ff 15 00 00 00
	00		 call	 DWORD PTR __imp_??0?$CStringT@DV?$StrTraitMFC_DLL@DV?$ChTraitsCRT@D@ATL@@@@@ATL@@QAE@ABV01@@Z

; 385  : 	CDataConversion::GetStringData(strNewData, strTrimStart);

  002b9	6a 01		 push	 1
  002bb	8d 45 e4	 lea	 eax, DWORD PTR $T19[ebp]
  002be	c6 45 fc 14	 mov	 BYTE PTR __$EHRec$[ebp+8], 20 ; 00000014H
  002c2	50		 push	 eax
  002c3	8d 45 0c	 lea	 eax, DWORD PTR _strNewData$24[ebp]
  002c6	50		 push	 eax
  002c7	8d 45 cc	 lea	 eax, DWORD PTR $T4[ebp]
  002ca	50		 push	 eax
  002cb	e8 00 00 00 00	 call	 ?GetStringData@CDataConversion@@SA?AV?$CStringT@DV?$StrTraitMFC_DLL@DV?$ChTraitsCRT@D@ATL@@@@@ATL@@AAV23@ABV23@_N@Z ; CDataConversion::GetStringData
  002d0	83 c4 10	 add	 esp, 16			; 00000010H
  002d3	8d 4d cc	 lea	 ecx, DWORD PTR $T4[ebp]
  002d6	ff 15 00 00 00
	00		 call	 DWORD PTR __imp_??1?$CStringT@DV?$StrTraitMFC_DLL@DV?$ChTraitsCRT@D@ATL@@@@@ATL@@QAE@XZ

; 386  : 	return CDataConversion::GetStringData(strNewData, strTrimEnd);

  002dc	6a 01		 push	 1
  002de	8d 45 e8	 lea	 eax, DWORD PTR $T20[ebp]
  002e1	50		 push	 eax
  002e2	8d 45 0c	 lea	 eax, DWORD PTR _strNewData$24[ebp]
  002e5	50		 push	 eax
  002e6	8d 45 d4	 lea	 eax, DWORD PTR _strExtData$[ebp]
  002e9	50		 push	 eax
  002ea	e8 00 00 00 00	 call	 ?GetStringData@CDataConversion@@SA?AV?$CStringT@DV?$StrTraitMFC_DLL@DV?$ChTraitsCRT@D@ATL@@@@@ATL@@AAV23@ABV23@_N@Z ; CDataConversion::GetStringData
  002ef	83 c4 10	 add	 esp, 16			; 00000010H
  002f2	8d 4d 0c	 lea	 ecx, DWORD PTR _strNewData$24[ebp]
  002f5	ff 15 00 00 00
	00		 call	 DWORD PTR __imp_??1?$CStringT@DV?$StrTraitMFC_DLL@DV?$ChTraitsCRT@D@ATL@@@@@ATL@@QAE@XZ

; 788  : 	// 2008.08.20   <<
; 789  : 	//return CDataTypeEnvironment(eCoordinateType, dVert, strHorz);
; 790  : 	CString strExtData = GetData(strDataTypeData, "<ExtData>", "<\\ExtData>\r\n");

  002fb	8d 4d e4	 lea	 ecx, DWORD PTR $T19[ebp]
  002fe	ff 15 00 00 00
	00		 call	 DWORD PTR __imp_??1?$CStringT@DV?$StrTraitMFC_DLL@DV?$ChTraitsCRT@D@ATL@@@@@ATL@@QAE@XZ
  00304	8d 4d e8	 lea	 ecx, DWORD PTR $T20[ebp]
  00307	c6 45 fc 17	 mov	 BYTE PTR __$EHRec$[ebp+8], 23 ; 00000017H
  0030b	ff 15 00 00 00
	00		 call	 DWORD PTR __imp_??1?$CStringT@DV?$StrTraitMFC_DLL@DV?$ChTraitsCRT@D@ATL@@@@@ATL@@QAE@XZ

; 791  : 	// 2008.10.15 by LYH >> 8,32bit
; 792  : 	CString strStrVert = GetData(strDataTypeData, "<StrVert>", "<\\StrVert>\r\n");

  00311	68 00 00 00 00	 push	 OFFSET ??_C@_0N@HGCOAIDN@?$DM?2StrVert?$DO?$AN?6@
  00316	8d 4d e0	 lea	 ecx, DWORD PTR $T15[ebp]
  00319	ff 15 00 00 00
	00		 call	 DWORD PTR __imp_??0?$CStringT@DV?$StrTraitMFC_DLL@DV?$ChTraitsCRT@D@ATL@@@@@ATL@@QAE@PBD@Z
  0031f	c6 45 fc 18	 mov	 BYTE PTR __$EHRec$[ebp+8], 24 ; 00000018H
  00323	68 00 00 00 00	 push	 OFFSET ??_C@_09COIGHGNF@?$DMStrVert?$DO@
  00328	8d 4d dc	 lea	 ecx, DWORD PTR $T11[ebp]
  0032b	ff 15 00 00 00
	00		 call	 DWORD PTR __imp_??0?$CStringT@DV?$StrTraitMFC_DLL@DV?$ChTraitsCRT@D@ATL@@@@@ATL@@QAE@PBD@Z

; 384  : 	CString strNewData = strOrgData;

  00331	8d 45 f0	 lea	 eax, DWORD PTR _strDataTypeData$[ebp]

; 791  : 	// 2008.10.15 by LYH >> 8,32bit
; 792  : 	CString strStrVert = GetData(strDataTypeData, "<StrVert>", "<\\StrVert>\r\n");

  00334	c6 45 fc 19	 mov	 BYTE PTR __$EHRec$[ebp+8], 25 ; 00000019H

; 384  : 	CString strNewData = strOrgData;

  00338	50		 push	 eax
  00339	8d 4d 0c	 lea	 ecx, DWORD PTR _strNewData$23[ebp]
  0033c	ff 15 00 00 00
	00		 call	 DWORD PTR __imp_??0?$CStringT@DV?$StrTraitMFC_DLL@DV?$ChTraitsCRT@D@ATL@@@@@ATL@@QAE@ABV01@@Z

; 385  : 	CDataConversion::GetStringData(strNewData, strTrimStart);

  00342	6a 01		 push	 1
  00344	8d 45 dc	 lea	 eax, DWORD PTR $T11[ebp]
  00347	c6 45 fc 1a	 mov	 BYTE PTR __$EHRec$[ebp+8], 26 ; 0000001aH
  0034b	50		 push	 eax
  0034c	8d 45 0c	 lea	 eax, DWORD PTR _strNewData$23[ebp]
  0034f	50		 push	 eax
  00350	8d 45 cc	 lea	 eax, DWORD PTR $T3[ebp]
  00353	50		 push	 eax
  00354	e8 00 00 00 00	 call	 ?GetStringData@CDataConversion@@SA?AV?$CStringT@DV?$StrTraitMFC_DLL@DV?$ChTraitsCRT@D@ATL@@@@@ATL@@AAV23@ABV23@_N@Z ; CDataConversion::GetStringData
  00359	83 c4 10	 add	 esp, 16			; 00000010H
  0035c	8d 4d cc	 lea	 ecx, DWORD PTR $T3[ebp]
  0035f	ff 15 00 00 00
	00		 call	 DWORD PTR __imp_??1?$CStringT@DV?$StrTraitMFC_DLL@DV?$ChTraitsCRT@D@ATL@@@@@ATL@@QAE@XZ

; 386  : 	return CDataConversion::GetStringData(strNewData, strTrimEnd);

  00365	6a 01		 push	 1
  00367	8d 45 e0	 lea	 eax, DWORD PTR $T15[ebp]
  0036a	50		 push	 eax
  0036b	8d 45 0c	 lea	 eax, DWORD PTR _strNewData$23[ebp]
  0036e	50		 push	 eax
  0036f	8d 45 d8	 lea	 eax, DWORD PTR _strStrVert$[ebp]
  00372	50		 push	 eax
  00373	e8 00 00 00 00	 call	 ?GetStringData@CDataConversion@@SA?AV?$CStringT@DV?$StrTraitMFC_DLL@DV?$ChTraitsCRT@D@ATL@@@@@ATL@@AAV23@ABV23@_N@Z ; CDataConversion::GetStringData
  00378	83 c4 10	 add	 esp, 16			; 00000010H
  0037b	8d 4d 0c	 lea	 ecx, DWORD PTR _strNewData$23[ebp]
  0037e	ff 15 00 00 00
	00		 call	 DWORD PTR __imp_??1?$CStringT@DV?$StrTraitMFC_DLL@DV?$ChTraitsCRT@D@ATL@@@@@ATL@@QAE@XZ

; 791  : 	// 2008.10.15 by LYH >> 8,32bit
; 792  : 	CString strStrVert = GetData(strDataTypeData, "<StrVert>", "<\\StrVert>\r\n");

  00384	8d 4d dc	 lea	 ecx, DWORD PTR $T11[ebp]
  00387	ff 15 00 00 00
	00		 call	 DWORD PTR __imp_??1?$CStringT@DV?$StrTraitMFC_DLL@DV?$ChTraitsCRT@D@ATL@@@@@ATL@@QAE@XZ
  0038d	8d 4d e0	 lea	 ecx, DWORD PTR $T15[ebp]
  00390	c6 45 fc 1d	 mov	 BYTE PTR __$EHRec$[ebp+8], 29 ; 0000001dH
  00394	ff 15 00 00 00
	00		 call	 DWORD PTR __imp_??1?$CStringT@DV?$StrTraitMFC_DLL@DV?$ChTraitsCRT@D@ATL@@@@@ATL@@QAE@XZ

; 793  : 	return CDataTypeEnvironment(eCoordinateType, dVert, strHorz, strExtData, strStrVert, m_hOcxWnd, m_eChartMode);

  0039a	ff 77 04	 push	 DWORD PTR [edi+4]
  0039d	8b 4d 08	 mov	 ecx, DWORD PTR ___$ReturnUdt$[ebp]
  003a0	8d 45 d8	 lea	 eax, DWORD PTR _strStrVert$[ebp]
  003a3	ff 37		 push	 DWORD PTR [edi]
  003a5	50		 push	 eax
  003a6	8d 45 d4	 lea	 eax, DWORD PTR _strExtData$[ebp]
  003a9	50		 push	 eax
  003aa	8d 45 d0	 lea	 eax, DWORD PTR _strHorz$[ebp]
  003ad	50		 push	 eax
  003ae	8d 45 bc	 lea	 eax, DWORD PTR _dVert$[ebp]
  003b1	50		 push	 eax
  003b2	56		 push	 esi
  003b3	e8 00 00 00 00	 call	 ??0CDataTypeEnvironment@@QAE@W4COORDINATETYPE@CAnalysis@@ABNABV?$CStringT@DV?$StrTraitMFC_DLL@DV?$ChTraitsCRT@D@ATL@@@@@ATL@@22PAUHWND__@@W4CHART_MODE@CChartInfo@@@Z ; CDataTypeEnvironment::CDataTypeEnvironment
  003b8	8d 4d d8	 lea	 ecx, DWORD PTR _strStrVert$[ebp]
  003bb	ff 15 00 00 00
	00		 call	 DWORD PTR __imp_??1?$CStringT@DV?$StrTraitMFC_DLL@DV?$ChTraitsCRT@D@ATL@@@@@ATL@@QAE@XZ
  003c1	8d 4d d4	 lea	 ecx, DWORD PTR _strExtData$[ebp]
  003c4	ff 15 00 00 00
	00		 call	 DWORD PTR __imp_??1?$CStringT@DV?$StrTraitMFC_DLL@DV?$ChTraitsCRT@D@ATL@@@@@ATL@@QAE@XZ
  003ca	8d 4d d0	 lea	 ecx, DWORD PTR _strHorz$[ebp]
  003cd	ff 15 00 00 00
	00		 call	 DWORD PTR __imp_??1?$CStringT@DV?$StrTraitMFC_DLL@DV?$ChTraitsCRT@D@ATL@@@@@ATL@@QAE@XZ
  003d3	8d 4d f0	 lea	 ecx, DWORD PTR _strDataTypeData$[ebp]
  003d6	ff 15 00 00 00
	00		 call	 DWORD PTR __imp_??1?$CStringT@DV?$StrTraitMFC_DLL@DV?$ChTraitsCRT@D@ATL@@@@@ATL@@QAE@XZ
  003dc	8b 45 08	 mov	 eax, DWORD PTR ___$ReturnUdt$[ebp]

; 794  : 	//>>
; 795  : }

  003df	8b 4d f4	 mov	 ecx, DWORD PTR __$EHRec$[ebp]
  003e2	64 89 0d 00 00
	00 00		 mov	 DWORD PTR fs:0, ecx
  003e9	59		 pop	 ecx
  003ea	5f		 pop	 edi
  003eb	5e		 pop	 esi
  003ec	8b e5		 mov	 esp, ebp
  003ee	5d		 pop	 ebp
  003ef	c2 08 00	 ret	 8
_TEXT	ENDS
;	COMDAT text$x
text$x	SEGMENT
__unwindfunclet$?GetDataTypeEnvironment@CElementTreeBuilder@@ABE?AVCDataTypeEnvironment@@ABV?$CStringT@DV?$StrTraitMFC_DLL@DV?$ChTraitsCRT@D@ATL@@@@@ATL@@@Z$0:
  00000	8d 4d e8	 lea	 ecx, DWORD PTR $T21[ebp]
  00003	ff 25 00 00 00
	00		 jmp	 DWORD PTR __imp_??1?$CStringT@DV?$StrTraitMFC_DLL@DV?$ChTraitsCRT@D@ATL@@@@@ATL@@QAE@XZ
__unwindfunclet$?GetDataTypeEnvironment@CElementTreeBuilder@@ABE?AVCDataTypeEnvironment@@ABV?$CStringT@DV?$StrTraitMFC_DLL@DV?$ChTraitsCRT@D@ATL@@@@@ATL@@@Z$1:
  00009	8d 4d ec	 lea	 ecx, DWORD PTR $T22[ebp]
  0000c	ff 25 00 00 00
	00		 jmp	 DWORD PTR __imp_??1?$CStringT@DV?$StrTraitMFC_DLL@DV?$ChTraitsCRT@D@ATL@@@@@ATL@@QAE@XZ
__unwindfunclet$?GetDataTypeEnvironment@CElementTreeBuilder@@ABE?AVCDataTypeEnvironment@@ABV?$CStringT@DV?$StrTraitMFC_DLL@DV?$ChTraitsCRT@D@ATL@@@@@ATL@@@Z$13:
  00012	8d 4d 0c	 lea	 ecx, DWORD PTR _strNewData$28[ebp]
  00015	ff 25 00 00 00
	00		 jmp	 DWORD PTR __imp_??1?$CStringT@DV?$StrTraitMFC_DLL@DV?$ChTraitsCRT@D@ATL@@@@@ATL@@QAE@XZ
__unwindfunclet$?GetDataTypeEnvironment@CElementTreeBuilder@@ABE?AVCDataTypeEnvironment@@ABV?$CStringT@DV?$StrTraitMFC_DLL@DV?$ChTraitsCRT@D@ATL@@@@@ATL@@@Z$2:
  0001b	8d 4d f0	 lea	 ecx, DWORD PTR _strDataTypeData$[ebp]
  0001e	ff 25 00 00 00
	00		 jmp	 DWORD PTR __imp_??1?$CStringT@DV?$StrTraitMFC_DLL@DV?$ChTraitsCRT@D@ATL@@@@@ATL@@QAE@XZ
__unwindfunclet$?GetDataTypeEnvironment@CElementTreeBuilder@@ABE?AVCDataTypeEnvironment@@ABV?$CStringT@DV?$StrTraitMFC_DLL@DV?$ChTraitsCRT@D@ATL@@@@@ATL@@@Z$16:
  00024	8d 4d dc	 lea	 ecx, DWORD PTR $T10[ebp]
  00027	ff 25 00 00 00
	00		 jmp	 DWORD PTR __imp_??1?$CStringT@DV?$StrTraitMFC_DLL@DV?$ChTraitsCRT@D@ATL@@@@@ATL@@QAE@XZ
__unwindfunclet$?GetDataTypeEnvironment@CElementTreeBuilder@@ABE?AVCDataTypeEnvironment@@ABV?$CStringT@DV?$StrTraitMFC_DLL@DV?$ChTraitsCRT@D@ATL@@@@@ATL@@@Z$17:
  0002d	8d 4d e0	 lea	 ecx, DWORD PTR $T14[ebp]
  00030	ff 25 00 00 00
	00		 jmp	 DWORD PTR __imp_??1?$CStringT@DV?$StrTraitMFC_DLL@DV?$ChTraitsCRT@D@ATL@@@@@ATL@@QAE@XZ
__unwindfunclet$?GetDataTypeEnvironment@CElementTreeBuilder@@ABE?AVCDataTypeEnvironment@@ABV?$CStringT@DV?$StrTraitMFC_DLL@DV?$ChTraitsCRT@D@ATL@@@@@ATL@@@Z$19:
  00036	8d 4d 0c	 lea	 ecx, DWORD PTR _strNewData$27[ebp]
  00039	ff 25 00 00 00
	00		 jmp	 DWORD PTR __imp_??1?$CStringT@DV?$StrTraitMFC_DLL@DV?$ChTraitsCRT@D@ATL@@@@@ATL@@QAE@XZ
__unwindfunclet$?GetDataTypeEnvironment@CElementTreeBuilder@@ABE?AVCDataTypeEnvironment@@ABV?$CStringT@DV?$StrTraitMFC_DLL@DV?$ChTraitsCRT@D@ATL@@@@@ATL@@@Z$22:
  0003f	8d 4d e4	 lea	 ecx, DWORD PTR $T17[ebp]
  00042	ff 25 00 00 00
	00		 jmp	 DWORD PTR __imp_??1?$CStringT@DV?$StrTraitMFC_DLL@DV?$ChTraitsCRT@D@ATL@@@@@ATL@@QAE@XZ
__unwindfunclet$?GetDataTypeEnvironment@CElementTreeBuilder@@ABE?AVCDataTypeEnvironment@@ABV?$CStringT@DV?$StrTraitMFC_DLL@DV?$ChTraitsCRT@D@ATL@@@@@ATL@@@Z$23:
  00048	8d 4d e0	 lea	 ecx, DWORD PTR $T13[ebp]
  0004b	ff 25 00 00 00
	00		 jmp	 DWORD PTR __imp_??1?$CStringT@DV?$StrTraitMFC_DLL@DV?$ChTraitsCRT@D@ATL@@@@@ATL@@QAE@XZ
__unwindfunclet$?GetDataTypeEnvironment@CElementTreeBuilder@@ABE?AVCDataTypeEnvironment@@ABV?$CStringT@DV?$StrTraitMFC_DLL@DV?$ChTraitsCRT@D@ATL@@@@@ATL@@@Z$25:
  00051	8d 4d 0c	 lea	 ecx, DWORD PTR _strNewData$25[ebp]
  00054	ff 25 00 00 00
	00		 jmp	 DWORD PTR __imp_??1?$CStringT@DV?$StrTraitMFC_DLL@DV?$ChTraitsCRT@D@ATL@@@@@ATL@@QAE@XZ
__unwindfunclet$?GetDataTypeEnvironment@CElementTreeBuilder@@ABE?AVCDataTypeEnvironment@@ABV?$CStringT@DV?$StrTraitMFC_DLL@DV?$ChTraitsCRT@D@ATL@@@@@ATL@@@Z$3:
  0005a	8d 4d e0	 lea	 ecx, DWORD PTR $T16[ebp]
  0005d	ff 25 00 00 00
	00		 jmp	 DWORD PTR __imp_??1?$CStringT@DV?$StrTraitMFC_DLL@DV?$ChTraitsCRT@D@ATL@@@@@ATL@@QAE@XZ
__unwindfunclet$?GetDataTypeEnvironment@CElementTreeBuilder@@ABE?AVCDataTypeEnvironment@@ABV?$CStringT@DV?$StrTraitMFC_DLL@DV?$ChTraitsCRT@D@ATL@@@@@ATL@@@Z$4:
  00063	8d 4d dc	 lea	 ecx, DWORD PTR $T12[ebp]
  00066	ff 25 00 00 00
	00		 jmp	 DWORD PTR __imp_??1?$CStringT@DV?$StrTraitMFC_DLL@DV?$ChTraitsCRT@D@ATL@@@@@ATL@@QAE@XZ
__unwindfunclet$?GetDataTypeEnvironment@CElementTreeBuilder@@ABE?AVCDataTypeEnvironment@@ABV?$CStringT@DV?$StrTraitMFC_DLL@DV?$ChTraitsCRT@D@ATL@@@@@ATL@@@Z$28:
  0006c	8d 4d 0c	 lea	 ecx, DWORD PTR _strNewData$26[ebp]
  0006f	ff 25 00 00 00
	00		 jmp	 DWORD PTR __imp_??1?$CStringT@DV?$StrTraitMFC_DLL@DV?$ChTraitsCRT@D@ATL@@@@@ATL@@QAE@XZ
__unwindfunclet$?GetDataTypeEnvironment@CElementTreeBuilder@@ABE?AVCDataTypeEnvironment@@ABV?$CStringT@DV?$StrTraitMFC_DLL@DV?$ChTraitsCRT@D@ATL@@@@@ATL@@@Z$5:
  00075	8d 4d d0	 lea	 ecx, DWORD PTR _strHorz$[ebp]
  00078	ff 25 00 00 00
	00		 jmp	 DWORD PTR __imp_??1?$CStringT@DV?$StrTraitMFC_DLL@DV?$ChTraitsCRT@D@ATL@@@@@ATL@@QAE@XZ
__unwindfunclet$?GetDataTypeEnvironment@CElementTreeBuilder@@ABE?AVCDataTypeEnvironment@@ABV?$CStringT@DV?$StrTraitMFC_DLL@DV?$ChTraitsCRT@D@ATL@@@@@ATL@@@Z$6:
  0007e	8d 4d e8	 lea	 ecx, DWORD PTR $T20[ebp]
  00081	ff 25 00 00 00
	00		 jmp	 DWORD PTR __imp_??1?$CStringT@DV?$StrTraitMFC_DLL@DV?$ChTraitsCRT@D@ATL@@@@@ATL@@QAE@XZ
__unwindfunclet$?GetDataTypeEnvironment@CElementTreeBuilder@@ABE?AVCDataTypeEnvironment@@ABV?$CStringT@DV?$StrTraitMFC_DLL@DV?$ChTraitsCRT@D@ATL@@@@@ATL@@@Z$7:
  00087	8d 4d e4	 lea	 ecx, DWORD PTR $T19[ebp]
  0008a	ff 25 00 00 00
	00		 jmp	 DWORD PTR __imp_??1?$CStringT@DV?$StrTraitMFC_DLL@DV?$ChTraitsCRT@D@ATL@@@@@ATL@@QAE@XZ
__unwindfunclet$?GetDataTypeEnvironment@CElementTreeBuilder@@ABE?AVCDataTypeEnvironment@@ABV?$CStringT@DV?$StrTraitMFC_DLL@DV?$ChTraitsCRT@D@ATL@@@@@ATL@@@Z$31:
  00090	8d 4d 0c	 lea	 ecx, DWORD PTR _strNewData$24[ebp]
  00093	ff 25 00 00 00
	00		 jmp	 DWORD PTR __imp_??1?$CStringT@DV?$StrTraitMFC_DLL@DV?$ChTraitsCRT@D@ATL@@@@@ATL@@QAE@XZ
__unwindfunclet$?GetDataTypeEnvironment@CElementTreeBuilder@@ABE?AVCDataTypeEnvironment@@ABV?$CStringT@DV?$StrTraitMFC_DLL@DV?$ChTraitsCRT@D@ATL@@@@@ATL@@@Z$8:
  00099	8d 4d d4	 lea	 ecx, DWORD PTR _strExtData$[ebp]
  0009c	ff 25 00 00 00
	00		 jmp	 DWORD PTR __imp_??1?$CStringT@DV?$StrTraitMFC_DLL@DV?$ChTraitsCRT@D@ATL@@@@@ATL@@QAE@XZ
__unwindfunclet$?GetDataTypeEnvironment@CElementTreeBuilder@@ABE?AVCDataTypeEnvironment@@ABV?$CStringT@DV?$StrTraitMFC_DLL@DV?$ChTraitsCRT@D@ATL@@@@@ATL@@@Z$9:
  000a2	8d 4d e0	 lea	 ecx, DWORD PTR $T15[ebp]
  000a5	ff 25 00 00 00
	00		 jmp	 DWORD PTR __imp_??1?$CStringT@DV?$StrTraitMFC_DLL@DV?$ChTraitsCRT@D@ATL@@@@@ATL@@QAE@XZ
__unwindfunclet$?GetDataTypeEnvironment@CElementTreeBuilder@@ABE?AVCDataTypeEnvironment@@ABV?$CStringT@DV?$StrTraitMFC_DLL@DV?$ChTraitsCRT@D@ATL@@@@@ATL@@@Z$10:
  000ab	8d 4d dc	 lea	 ecx, DWORD PTR $T11[ebp]
  000ae	ff 25 00 00 00
	00		 jmp	 DWORD PTR __imp_??1?$CStringT@DV?$StrTraitMFC_DLL@DV?$ChTraitsCRT@D@ATL@@@@@ATL@@QAE@XZ
__unwindfunclet$?GetDataTypeEnvironment@CElementTreeBuilder@@ABE?AVCDataTypeEnvironment@@ABV?$CStringT@DV?$StrTraitMFC_DLL@DV?$ChTraitsCRT@D@ATL@@@@@ATL@@@Z$34:
  000b4	8d 4d 0c	 lea	 ecx, DWORD PTR _strNewData$23[ebp]
  000b7	ff 25 00 00 00
	00		 jmp	 DWORD PTR __imp_??1?$CStringT@DV?$StrTraitMFC_DLL@DV?$ChTraitsCRT@D@ATL@@@@@ATL@@QAE@XZ
__unwindfunclet$?GetDataTypeEnvironment@CElementTreeBuilder@@ABE?AVCDataTypeEnvironment@@ABV?$CStringT@DV?$StrTraitMFC_DLL@DV?$ChTraitsCRT@D@ATL@@@@@ATL@@@Z$11:
  000bd	8d 4d d8	 lea	 ecx, DWORD PTR _strStrVert$[ebp]
  000c0	ff 25 00 00 00
	00		 jmp	 DWORD PTR __imp_??1?$CStringT@DV?$StrTraitMFC_DLL@DV?$ChTraitsCRT@D@ATL@@@@@ATL@@QAE@XZ
  000c6	cc		 int	 3
  000c7	cc		 int	 3
  000c8	cc		 int	 3
  000c9	cc		 int	 3
  000ca	cc		 int	 3
__ehhandler$?GetDataTypeEnvironment@CElementTreeBuilder@@ABE?AVCDataTypeEnvironment@@ABV?$CStringT@DV?$StrTraitMFC_DLL@DV?$ChTraitsCRT@D@ATL@@@@@ATL@@@Z:
  000cb	90		 npad	 1
  000cc	90		 npad	 1
  000cd	8b 54 24 08	 mov	 edx, DWORD PTR [esp+8]
  000d1	8d 42 0c	 lea	 eax, DWORD PTR [edx+12]
  000d4	8b 4a bc	 mov	 ecx, DWORD PTR [edx-68]
  000d7	33 c8		 xor	 ecx, eax
  000d9	e8 00 00 00 00	 call	 @__security_check_cookie@4
  000de	b8 00 00 00 00	 mov	 eax, OFFSET __ehfuncinfo$?GetDataTypeEnvironment@CElementTreeBuilder@@ABE?AVCDataTypeEnvironment@@ABV?$CStringT@DV?$StrTraitMFC_DLL@DV?$ChTraitsCRT@D@ATL@@@@@ATL@@@Z
  000e3	e9 00 00 00 00	 jmp	 ___CxxFrameHandler3
text$x	ENDS
?GetDataTypeEnvironment@CElementTreeBuilder@@ABE?AVCDataTypeEnvironment@@ABV?$CStringT@DV?$StrTraitMFC_DLL@DV?$ChTraitsCRT@D@ATL@@@@@ATL@@@Z ENDP ; CElementTreeBuilder::GetDataTypeEnvironment
; Function compile flags: /Ogtp
; File D:\git\src\IBK\IBK_DRFN\ProjSrc\SrcChartEx\ChartAddIn\ChartAnalysisToolAddIn\AnalysisTool\ElementTreeBuilder.cpp
;	COMDAT ?GetStyle@CElementTreeBuilder@@ABE?AW4PenStyle@CToolEnumData@@ABV?$CStringT@DV?$StrTraitMFC_DLL@DV?$ChTraitsCRT@D@ATL@@@@@ATL@@@Z
_TEXT	SEGMENT
$T2 = -28						; size = 4
$T3 = -24						; size = 4
$T4 = -20						; size = 4
$T5 = -16						; size = 4
__$EHRec$ = -12						; size = 12
_strNewData$6 = 8					; size = 4
_strData$ = 8						; size = 4
?GetStyle@CElementTreeBuilder@@ABE?AW4PenStyle@CToolEnumData@@ABV?$CStringT@DV?$StrTraitMFC_DLL@DV?$ChTraitsCRT@D@ATL@@@@@ATL@@@Z PROC ; CElementTreeBuilder::GetStyle, COMDAT
; _this$ = ecx

; 777  : {

  00000	55		 push	 ebp
  00001	8b ec		 mov	 ebp, esp
  00003	6a ff		 push	 -1
  00005	68 00 00 00 00	 push	 __ehhandler$?GetStyle@CElementTreeBuilder@@ABE?AW4PenStyle@CToolEnumData@@ABV?$CStringT@DV?$StrTraitMFC_DLL@DV?$ChTraitsCRT@D@ATL@@@@@ATL@@@Z
  0000a	64 a1 00 00 00
	00		 mov	 eax, DWORD PTR fs:0
  00010	50		 push	 eax
  00011	83 ec 10	 sub	 esp, 16			; 00000010H
  00014	56		 push	 esi
  00015	a1 00 00 00 00	 mov	 eax, DWORD PTR ___security_cookie
  0001a	33 c5		 xor	 eax, ebp
  0001c	50		 push	 eax
  0001d	8d 45 f4	 lea	 eax, DWORD PTR __$EHRec$[ebp]
  00020	64 a3 00 00 00
	00		 mov	 DWORD PTR fs:0, eax

; 778  : 	return (CToolEnumData::PenStyle) atoi(GetData(strData, "<Style>", "<\\Style>\r\n"));

  00026	68 00 00 00 00	 push	 OFFSET ??_C@_0L@MDDCEFHI@?$DM?2Style?$DO?$AN?6@
  0002b	8d 4d e8	 lea	 ecx, DWORD PTR $T3[ebp]
  0002e	ff 15 00 00 00
	00		 call	 DWORD PTR __imp_??0?$CStringT@DV?$StrTraitMFC_DLL@DV?$ChTraitsCRT@D@ATL@@@@@ATL@@QAE@PBD@Z
  00034	68 00 00 00 00	 push	 OFFSET ??_C@_07EANKACOK@?$DMStyle?$DO@
  00039	8d 4d ec	 lea	 ecx, DWORD PTR $T4[ebp]
  0003c	c7 45 fc 00 00
	00 00		 mov	 DWORD PTR __$EHRec$[ebp+8], 0
  00043	ff 15 00 00 00
	00		 call	 DWORD PTR __imp_??0?$CStringT@DV?$StrTraitMFC_DLL@DV?$ChTraitsCRT@D@ATL@@@@@ATL@@QAE@PBD@Z

; 384  : 	CString strNewData = strOrgData;

  00049	ff 75 08	 push	 DWORD PTR _strData$[ebp]
  0004c	8d 4d 08	 lea	 ecx, DWORD PTR _strNewData$6[ebp]

; 778  : 	return (CToolEnumData::PenStyle) atoi(GetData(strData, "<Style>", "<\\Style>\r\n"));

  0004f	c6 45 fc 01	 mov	 BYTE PTR __$EHRec$[ebp+8], 1

; 384  : 	CString strNewData = strOrgData;

  00053	ff 15 00 00 00
	00		 call	 DWORD PTR __imp_??0?$CStringT@DV?$StrTraitMFC_DLL@DV?$ChTraitsCRT@D@ATL@@@@@ATL@@QAE@ABV01@@Z

; 385  : 	CDataConversion::GetStringData(strNewData, strTrimStart);

  00059	6a 01		 push	 1
  0005b	8d 45 ec	 lea	 eax, DWORD PTR $T4[ebp]
  0005e	c6 45 fc 02	 mov	 BYTE PTR __$EHRec$[ebp+8], 2
  00062	50		 push	 eax
  00063	8d 45 08	 lea	 eax, DWORD PTR _strNewData$6[ebp]
  00066	50		 push	 eax
  00067	8d 45 e4	 lea	 eax, DWORD PTR $T2[ebp]
  0006a	50		 push	 eax
  0006b	e8 00 00 00 00	 call	 ?GetStringData@CDataConversion@@SA?AV?$CStringT@DV?$StrTraitMFC_DLL@DV?$ChTraitsCRT@D@ATL@@@@@ATL@@AAV23@ABV23@_N@Z ; CDataConversion::GetStringData
  00070	83 c4 10	 add	 esp, 16			; 00000010H
  00073	8d 4d e4	 lea	 ecx, DWORD PTR $T2[ebp]
  00076	ff 15 00 00 00
	00		 call	 DWORD PTR __imp_??1?$CStringT@DV?$StrTraitMFC_DLL@DV?$ChTraitsCRT@D@ATL@@@@@ATL@@QAE@XZ

; 386  : 	return CDataConversion::GetStringData(strNewData, strTrimEnd);

  0007c	6a 01		 push	 1
  0007e	8d 45 e8	 lea	 eax, DWORD PTR $T3[ebp]
  00081	50		 push	 eax
  00082	8d 45 08	 lea	 eax, DWORD PTR _strNewData$6[ebp]
  00085	50		 push	 eax
  00086	8d 45 f0	 lea	 eax, DWORD PTR $T5[ebp]
  00089	50		 push	 eax
  0008a	e8 00 00 00 00	 call	 ?GetStringData@CDataConversion@@SA?AV?$CStringT@DV?$StrTraitMFC_DLL@DV?$ChTraitsCRT@D@ATL@@@@@ATL@@AAV23@ABV23@_N@Z ; CDataConversion::GetStringData
  0008f	83 c4 10	 add	 esp, 16			; 00000010H
  00092	8d 4d 08	 lea	 ecx, DWORD PTR _strNewData$6[ebp]
  00095	ff 15 00 00 00
	00		 call	 DWORD PTR __imp_??1?$CStringT@DV?$StrTraitMFC_DLL@DV?$ChTraitsCRT@D@ATL@@@@@ATL@@QAE@XZ

; 778  : 	return (CToolEnumData::PenStyle) atoi(GetData(strData, "<Style>", "<\\Style>\r\n"));

  0009b	ff 75 f0	 push	 DWORD PTR $T5[ebp]
  0009e	ff 15 00 00 00
	00		 call	 DWORD PTR __imp__atoi
  000a4	83 c4 04	 add	 esp, 4
  000a7	8d 4d f0	 lea	 ecx, DWORD PTR $T5[ebp]
  000aa	8b f0		 mov	 esi, eax
  000ac	ff 15 00 00 00
	00		 call	 DWORD PTR __imp_??1?$CStringT@DV?$StrTraitMFC_DLL@DV?$ChTraitsCRT@D@ATL@@@@@ATL@@QAE@XZ
  000b2	8d 4d ec	 lea	 ecx, DWORD PTR $T4[ebp]
  000b5	ff 15 00 00 00
	00		 call	 DWORD PTR __imp_??1?$CStringT@DV?$StrTraitMFC_DLL@DV?$ChTraitsCRT@D@ATL@@@@@ATL@@QAE@XZ
  000bb	8d 4d e8	 lea	 ecx, DWORD PTR $T3[ebp]
  000be	ff 15 00 00 00
	00		 call	 DWORD PTR __imp_??1?$CStringT@DV?$StrTraitMFC_DLL@DV?$ChTraitsCRT@D@ATL@@@@@ATL@@QAE@XZ
  000c4	8b c6		 mov	 eax, esi

; 779  : }

  000c6	8b 4d f4	 mov	 ecx, DWORD PTR __$EHRec$[ebp]
  000c9	64 89 0d 00 00
	00 00		 mov	 DWORD PTR fs:0, ecx
  000d0	59		 pop	 ecx
  000d1	5e		 pop	 esi
  000d2	8b e5		 mov	 esp, ebp
  000d4	5d		 pop	 ebp
  000d5	c2 04 00	 ret	 4
_TEXT	ENDS
;	COMDAT text$x
text$x	SEGMENT
__unwindfunclet$?GetStyle@CElementTreeBuilder@@ABE?AW4PenStyle@CToolEnumData@@ABV?$CStringT@DV?$StrTraitMFC_DLL@DV?$ChTraitsCRT@D@ATL@@@@@ATL@@@Z$0:
  00000	8d 4d e8	 lea	 ecx, DWORD PTR $T3[ebp]
  00003	ff 25 00 00 00
	00		 jmp	 DWORD PTR __imp_??1?$CStringT@DV?$StrTraitMFC_DLL@DV?$ChTraitsCRT@D@ATL@@@@@ATL@@QAE@XZ
__unwindfunclet$?GetStyle@CElementTreeBuilder@@ABE?AW4PenStyle@CToolEnumData@@ABV?$CStringT@DV?$StrTraitMFC_DLL@DV?$ChTraitsCRT@D@ATL@@@@@ATL@@@Z$1:
  00009	8d 4d ec	 lea	 ecx, DWORD PTR $T4[ebp]
  0000c	ff 25 00 00 00
	00		 jmp	 DWORD PTR __imp_??1?$CStringT@DV?$StrTraitMFC_DLL@DV?$ChTraitsCRT@D@ATL@@@@@ATL@@QAE@XZ
__unwindfunclet$?GetStyle@CElementTreeBuilder@@ABE?AW4PenStyle@CToolEnumData@@ABV?$CStringT@DV?$StrTraitMFC_DLL@DV?$ChTraitsCRT@D@ATL@@@@@ATL@@@Z$3:
  00012	8d 4d 08	 lea	 ecx, DWORD PTR _strNewData$6[ebp]
  00015	ff 25 00 00 00
	00		 jmp	 DWORD PTR __imp_??1?$CStringT@DV?$StrTraitMFC_DLL@DV?$ChTraitsCRT@D@ATL@@@@@ATL@@QAE@XZ
  0001b	cc		 int	 3
  0001c	cc		 int	 3
  0001d	cc		 int	 3
  0001e	cc		 int	 3
  0001f	cc		 int	 3
__ehhandler$?GetStyle@CElementTreeBuilder@@ABE?AW4PenStyle@CToolEnumData@@ABV?$CStringT@DV?$StrTraitMFC_DLL@DV?$ChTraitsCRT@D@ATL@@@@@ATL@@@Z:
  00020	90		 npad	 1
  00021	90		 npad	 1
  00022	8b 54 24 08	 mov	 edx, DWORD PTR [esp+8]
  00026	8d 42 0c	 lea	 eax, DWORD PTR [edx+12]
  00029	8b 4a e8	 mov	 ecx, DWORD PTR [edx-24]
  0002c	33 c8		 xor	 ecx, eax
  0002e	e8 00 00 00 00	 call	 @__security_check_cookie@4
  00033	b8 00 00 00 00	 mov	 eax, OFFSET __ehfuncinfo$?GetStyle@CElementTreeBuilder@@ABE?AW4PenStyle@CToolEnumData@@ABV?$CStringT@DV?$StrTraitMFC_DLL@DV?$ChTraitsCRT@D@ATL@@@@@ATL@@@Z
  00038	e9 00 00 00 00	 jmp	 ___CxxFrameHandler3
text$x	ENDS
?GetStyle@CElementTreeBuilder@@ABE?AW4PenStyle@CToolEnumData@@ABV?$CStringT@DV?$StrTraitMFC_DLL@DV?$ChTraitsCRT@D@ATL@@@@@ATL@@@Z ENDP ; CElementTreeBuilder::GetStyle
; Function compile flags: /Ogtp
; File D:\git\src\IBK\IBK_DRFN\ProjSrc\SrcChartEx\ChartAddIn\ChartAnalysisToolAddIn\AnalysisTool\ElementTreeBuilder.cpp
;	COMDAT ?GetWidth@CElementTreeBuilder@@ABEHABV?$CStringT@DV?$StrTraitMFC_DLL@DV?$ChTraitsCRT@D@ATL@@@@@ATL@@@Z
_TEXT	SEGMENT
$T2 = -28						; size = 4
$T3 = -24						; size = 4
$T4 = -20						; size = 4
$T5 = -16						; size = 4
__$EHRec$ = -12						; size = 12
_strNewData$6 = 8					; size = 4
_strData$ = 8						; size = 4
?GetWidth@CElementTreeBuilder@@ABEHABV?$CStringT@DV?$StrTraitMFC_DLL@DV?$ChTraitsCRT@D@ATL@@@@@ATL@@@Z PROC ; CElementTreeBuilder::GetWidth, COMDAT
; _this$ = ecx

; 772  : {

  00000	55		 push	 ebp
  00001	8b ec		 mov	 ebp, esp
  00003	6a ff		 push	 -1
  00005	68 00 00 00 00	 push	 __ehhandler$?GetWidth@CElementTreeBuilder@@ABEHABV?$CStringT@DV?$StrTraitMFC_DLL@DV?$ChTraitsCRT@D@ATL@@@@@ATL@@@Z
  0000a	64 a1 00 00 00
	00		 mov	 eax, DWORD PTR fs:0
  00010	50		 push	 eax
  00011	83 ec 10	 sub	 esp, 16			; 00000010H
  00014	56		 push	 esi
  00015	a1 00 00 00 00	 mov	 eax, DWORD PTR ___security_cookie
  0001a	33 c5		 xor	 eax, ebp
  0001c	50		 push	 eax
  0001d	8d 45 f4	 lea	 eax, DWORD PTR __$EHRec$[ebp]
  00020	64 a3 00 00 00
	00		 mov	 DWORD PTR fs:0, eax

; 773  : 	return atoi(GetData(strData, "<Width>", "<\\Width>\r\n"));

  00026	68 00 00 00 00	 push	 OFFSET ??_C@_0L@GIHMIJMH@?$DM?2Width?$DO?$AN?6@
  0002b	8d 4d e8	 lea	 ecx, DWORD PTR $T3[ebp]
  0002e	ff 15 00 00 00
	00		 call	 DWORD PTR __imp_??0?$CStringT@DV?$StrTraitMFC_DLL@DV?$ChTraitsCRT@D@ATL@@@@@ATL@@QAE@PBD@Z
  00034	68 00 00 00 00	 push	 OFFSET ??_C@_07ONIIIKM@?$DMWidth?$DO@
  00039	8d 4d ec	 lea	 ecx, DWORD PTR $T4[ebp]
  0003c	c7 45 fc 00 00
	00 00		 mov	 DWORD PTR __$EHRec$[ebp+8], 0
  00043	ff 15 00 00 00
	00		 call	 DWORD PTR __imp_??0?$CStringT@DV?$StrTraitMFC_DLL@DV?$ChTraitsCRT@D@ATL@@@@@ATL@@QAE@PBD@Z

; 384  : 	CString strNewData = strOrgData;

  00049	ff 75 08	 push	 DWORD PTR _strData$[ebp]
  0004c	8d 4d 08	 lea	 ecx, DWORD PTR _strNewData$6[ebp]

; 773  : 	return atoi(GetData(strData, "<Width>", "<\\Width>\r\n"));

  0004f	c6 45 fc 01	 mov	 BYTE PTR __$EHRec$[ebp+8], 1

; 384  : 	CString strNewData = strOrgData;

  00053	ff 15 00 00 00
	00		 call	 DWORD PTR __imp_??0?$CStringT@DV?$StrTraitMFC_DLL@DV?$ChTraitsCRT@D@ATL@@@@@ATL@@QAE@ABV01@@Z

; 385  : 	CDataConversion::GetStringData(strNewData, strTrimStart);

  00059	6a 01		 push	 1
  0005b	8d 45 ec	 lea	 eax, DWORD PTR $T4[ebp]
  0005e	c6 45 fc 02	 mov	 BYTE PTR __$EHRec$[ebp+8], 2
  00062	50		 push	 eax
  00063	8d 45 08	 lea	 eax, DWORD PTR _strNewData$6[ebp]
  00066	50		 push	 eax
  00067	8d 45 e4	 lea	 eax, DWORD PTR $T2[ebp]
  0006a	50		 push	 eax
  0006b	e8 00 00 00 00	 call	 ?GetStringData@CDataConversion@@SA?AV?$CStringT@DV?$StrTraitMFC_DLL@DV?$ChTraitsCRT@D@ATL@@@@@ATL@@AAV23@ABV23@_N@Z ; CDataConversion::GetStringData
  00070	83 c4 10	 add	 esp, 16			; 00000010H
  00073	8d 4d e4	 lea	 ecx, DWORD PTR $T2[ebp]
  00076	ff 15 00 00 00
	00		 call	 DWORD PTR __imp_??1?$CStringT@DV?$StrTraitMFC_DLL@DV?$ChTraitsCRT@D@ATL@@@@@ATL@@QAE@XZ

; 386  : 	return CDataConversion::GetStringData(strNewData, strTrimEnd);

  0007c	6a 01		 push	 1
  0007e	8d 45 e8	 lea	 eax, DWORD PTR $T3[ebp]
  00081	50		 push	 eax
  00082	8d 45 08	 lea	 eax, DWORD PTR _strNewData$6[ebp]
  00085	50		 push	 eax
  00086	8d 45 f0	 lea	 eax, DWORD PTR $T5[ebp]
  00089	50		 push	 eax
  0008a	e8 00 00 00 00	 call	 ?GetStringData@CDataConversion@@SA?AV?$CStringT@DV?$StrTraitMFC_DLL@DV?$ChTraitsCRT@D@ATL@@@@@ATL@@AAV23@ABV23@_N@Z ; CDataConversion::GetStringData
  0008f	83 c4 10	 add	 esp, 16			; 00000010H
  00092	8d 4d 08	 lea	 ecx, DWORD PTR _strNewData$6[ebp]
  00095	ff 15 00 00 00
	00		 call	 DWORD PTR __imp_??1?$CStringT@DV?$StrTraitMFC_DLL@DV?$ChTraitsCRT@D@ATL@@@@@ATL@@QAE@XZ

; 773  : 	return atoi(GetData(strData, "<Width>", "<\\Width>\r\n"));

  0009b	ff 75 f0	 push	 DWORD PTR $T5[ebp]
  0009e	ff 15 00 00 00
	00		 call	 DWORD PTR __imp__atoi
  000a4	83 c4 04	 add	 esp, 4
  000a7	8d 4d f0	 lea	 ecx, DWORD PTR $T5[ebp]
  000aa	8b f0		 mov	 esi, eax
  000ac	ff 15 00 00 00
	00		 call	 DWORD PTR __imp_??1?$CStringT@DV?$StrTraitMFC_DLL@DV?$ChTraitsCRT@D@ATL@@@@@ATL@@QAE@XZ
  000b2	8d 4d ec	 lea	 ecx, DWORD PTR $T4[ebp]
  000b5	ff 15 00 00 00
	00		 call	 DWORD PTR __imp_??1?$CStringT@DV?$StrTraitMFC_DLL@DV?$ChTraitsCRT@D@ATL@@@@@ATL@@QAE@XZ
  000bb	8d 4d e8	 lea	 ecx, DWORD PTR $T3[ebp]
  000be	ff 15 00 00 00
	00		 call	 DWORD PTR __imp_??1?$CStringT@DV?$StrTraitMFC_DLL@DV?$ChTraitsCRT@D@ATL@@@@@ATL@@QAE@XZ
  000c4	8b c6		 mov	 eax, esi

; 774  : }

  000c6	8b 4d f4	 mov	 ecx, DWORD PTR __$EHRec$[ebp]
  000c9	64 89 0d 00 00
	00 00		 mov	 DWORD PTR fs:0, ecx
  000d0	59		 pop	 ecx
  000d1	5e		 pop	 esi
  000d2	8b e5		 mov	 esp, ebp
  000d4	5d		 pop	 ebp
  000d5	c2 04 00	 ret	 4
_TEXT	ENDS
;	COMDAT text$x
text$x	SEGMENT
__unwindfunclet$?GetWidth@CElementTreeBuilder@@ABEHABV?$CStringT@DV?$StrTraitMFC_DLL@DV?$ChTraitsCRT@D@ATL@@@@@ATL@@@Z$0:
  00000	8d 4d e8	 lea	 ecx, DWORD PTR $T3[ebp]
  00003	ff 25 00 00 00
	00		 jmp	 DWORD PTR __imp_??1?$CStringT@DV?$StrTraitMFC_DLL@DV?$ChTraitsCRT@D@ATL@@@@@ATL@@QAE@XZ
__unwindfunclet$?GetWidth@CElementTreeBuilder@@ABEHABV?$CStringT@DV?$StrTraitMFC_DLL@DV?$ChTraitsCRT@D@ATL@@@@@ATL@@@Z$1:
  00009	8d 4d ec	 lea	 ecx, DWORD PTR $T4[ebp]
  0000c	ff 25 00 00 00
	00		 jmp	 DWORD PTR __imp_??1?$CStringT@DV?$StrTraitMFC_DLL@DV?$ChTraitsCRT@D@ATL@@@@@ATL@@QAE@XZ
__unwindfunclet$?GetWidth@CElementTreeBuilder@@ABEHABV?$CStringT@DV?$StrTraitMFC_DLL@DV?$ChTraitsCRT@D@ATL@@@@@ATL@@@Z$3:
  00012	8d 4d 08	 lea	 ecx, DWORD PTR _strNewData$6[ebp]
  00015	ff 25 00 00 00
	00		 jmp	 DWORD PTR __imp_??1?$CStringT@DV?$StrTraitMFC_DLL@DV?$ChTraitsCRT@D@ATL@@@@@ATL@@QAE@XZ
  0001b	cc		 int	 3
  0001c	cc		 int	 3
  0001d	cc		 int	 3
  0001e	cc		 int	 3
  0001f	cc		 int	 3
__ehhandler$?GetWidth@CElementTreeBuilder@@ABEHABV?$CStringT@DV?$StrTraitMFC_DLL@DV?$ChTraitsCRT@D@ATL@@@@@ATL@@@Z:
  00020	90		 npad	 1
  00021	90		 npad	 1
  00022	8b 54 24 08	 mov	 edx, DWORD PTR [esp+8]
  00026	8d 42 0c	 lea	 eax, DWORD PTR [edx+12]
  00029	8b 4a e8	 mov	 ecx, DWORD PTR [edx-24]
  0002c	33 c8		 xor	 ecx, eax
  0002e	e8 00 00 00 00	 call	 @__security_check_cookie@4
  00033	b8 00 00 00 00	 mov	 eax, OFFSET __ehfuncinfo$?GetWidth@CElementTreeBuilder@@ABEHABV?$CStringT@DV?$StrTraitMFC_DLL@DV?$ChTraitsCRT@D@ATL@@@@@ATL@@@Z
  00038	e9 00 00 00 00	 jmp	 ___CxxFrameHandler3
text$x	ENDS
?GetWidth@CElementTreeBuilder@@ABEHABV?$CStringT@DV?$StrTraitMFC_DLL@DV?$ChTraitsCRT@D@ATL@@@@@ATL@@@Z ENDP ; CElementTreeBuilder::GetWidth
; Function compile flags: /Ogtp
; File D:\git\src\IBK\IBK_DRFN\ProjSrc\SrcChartEx\ChartAddIn\ChartAnalysisToolAddIn\AnalysisTool\ElementTreeBuilder.cpp
;	COMDAT ?GetColor@CElementTreeBuilder@@ABEKABV?$CStringT@DV?$StrTraitMFC_DLL@DV?$ChTraitsCRT@D@ATL@@@@@ATL@@@Z
_TEXT	SEGMENT
$T2 = -28						; size = 4
$T3 = -24						; size = 4
$T4 = -20						; size = 4
$T5 = -16						; size = 4
__$EHRec$ = -12						; size = 12
_strNewData$6 = 8					; size = 4
_strData$ = 8						; size = 4
?GetColor@CElementTreeBuilder@@ABEKABV?$CStringT@DV?$StrTraitMFC_DLL@DV?$ChTraitsCRT@D@ATL@@@@@ATL@@@Z PROC ; CElementTreeBuilder::GetColor, COMDAT
; _this$ = ecx

; 767  : {

  00000	55		 push	 ebp
  00001	8b ec		 mov	 ebp, esp
  00003	6a ff		 push	 -1
  00005	68 00 00 00 00	 push	 __ehhandler$?GetColor@CElementTreeBuilder@@ABEKABV?$CStringT@DV?$StrTraitMFC_DLL@DV?$ChTraitsCRT@D@ATL@@@@@ATL@@@Z
  0000a	64 a1 00 00 00
	00		 mov	 eax, DWORD PTR fs:0
  00010	50		 push	 eax
  00011	83 ec 10	 sub	 esp, 16			; 00000010H
  00014	56		 push	 esi
  00015	a1 00 00 00 00	 mov	 eax, DWORD PTR ___security_cookie
  0001a	33 c5		 xor	 eax, ebp
  0001c	50		 push	 eax
  0001d	8d 45 f4	 lea	 eax, DWORD PTR __$EHRec$[ebp]
  00020	64 a3 00 00 00
	00		 mov	 DWORD PTR fs:0, eax

; 768  : 	return CDataConversion::Str2RGB(GetData(strData, "<Color>", "<\\Color>\r\n"));

  00026	68 00 00 00 00	 push	 OFFSET ??_C@_0L@CPJBKACB@?$DM?2Color?$DO?$AN?6@
  0002b	8d 4d e8	 lea	 ecx, DWORD PTR $T3[ebp]
  0002e	ff 15 00 00 00
	00		 call	 DWORD PTR __imp_??0?$CStringT@DV?$StrTraitMFC_DLL@DV?$ChTraitsCRT@D@ATL@@@@@ATL@@QAE@PBD@Z
  00034	68 00 00 00 00	 push	 OFFSET ??_C@_07ONMJGOJF@?$DMColor?$DO@
  00039	8d 4d ec	 lea	 ecx, DWORD PTR $T4[ebp]
  0003c	c7 45 fc 00 00
	00 00		 mov	 DWORD PTR __$EHRec$[ebp+8], 0
  00043	ff 15 00 00 00
	00		 call	 DWORD PTR __imp_??0?$CStringT@DV?$StrTraitMFC_DLL@DV?$ChTraitsCRT@D@ATL@@@@@ATL@@QAE@PBD@Z

; 384  : 	CString strNewData = strOrgData;

  00049	ff 75 08	 push	 DWORD PTR _strData$[ebp]
  0004c	8d 4d 08	 lea	 ecx, DWORD PTR _strNewData$6[ebp]

; 768  : 	return CDataConversion::Str2RGB(GetData(strData, "<Color>", "<\\Color>\r\n"));

  0004f	c6 45 fc 01	 mov	 BYTE PTR __$EHRec$[ebp+8], 1

; 384  : 	CString strNewData = strOrgData;

  00053	ff 15 00 00 00
	00		 call	 DWORD PTR __imp_??0?$CStringT@DV?$StrTraitMFC_DLL@DV?$ChTraitsCRT@D@ATL@@@@@ATL@@QAE@ABV01@@Z

; 385  : 	CDataConversion::GetStringData(strNewData, strTrimStart);

  00059	6a 01		 push	 1
  0005b	8d 45 ec	 lea	 eax, DWORD PTR $T4[ebp]
  0005e	c6 45 fc 02	 mov	 BYTE PTR __$EHRec$[ebp+8], 2
  00062	50		 push	 eax
  00063	8d 45 08	 lea	 eax, DWORD PTR _strNewData$6[ebp]
  00066	50		 push	 eax
  00067	8d 45 e4	 lea	 eax, DWORD PTR $T2[ebp]
  0006a	50		 push	 eax
  0006b	e8 00 00 00 00	 call	 ?GetStringData@CDataConversion@@SA?AV?$CStringT@DV?$StrTraitMFC_DLL@DV?$ChTraitsCRT@D@ATL@@@@@ATL@@AAV23@ABV23@_N@Z ; CDataConversion::GetStringData
  00070	83 c4 10	 add	 esp, 16			; 00000010H
  00073	8d 4d e4	 lea	 ecx, DWORD PTR $T2[ebp]
  00076	ff 15 00 00 00
	00		 call	 DWORD PTR __imp_??1?$CStringT@DV?$StrTraitMFC_DLL@DV?$ChTraitsCRT@D@ATL@@@@@ATL@@QAE@XZ

; 386  : 	return CDataConversion::GetStringData(strNewData, strTrimEnd);

  0007c	6a 01		 push	 1
  0007e	8d 45 e8	 lea	 eax, DWORD PTR $T3[ebp]
  00081	50		 push	 eax
  00082	8d 45 08	 lea	 eax, DWORD PTR _strNewData$6[ebp]
  00085	50		 push	 eax
  00086	8d 45 f0	 lea	 eax, DWORD PTR $T5[ebp]
  00089	50		 push	 eax
  0008a	e8 00 00 00 00	 call	 ?GetStringData@CDataConversion@@SA?AV?$CStringT@DV?$StrTraitMFC_DLL@DV?$ChTraitsCRT@D@ATL@@@@@ATL@@AAV23@ABV23@_N@Z ; CDataConversion::GetStringData
  0008f	83 c4 10	 add	 esp, 16			; 00000010H
  00092	8d 4d 08	 lea	 ecx, DWORD PTR _strNewData$6[ebp]
  00095	ff 15 00 00 00
	00		 call	 DWORD PTR __imp_??1?$CStringT@DV?$StrTraitMFC_DLL@DV?$ChTraitsCRT@D@ATL@@@@@ATL@@QAE@XZ

; 768  : 	return CDataConversion::Str2RGB(GetData(strData, "<Color>", "<\\Color>\r\n"));

  0009b	8d 45 f0	 lea	 eax, DWORD PTR $T5[ebp]
  0009e	c6 45 fc 03	 mov	 BYTE PTR __$EHRec$[ebp+8], 3
  000a2	50		 push	 eax
  000a3	e8 00 00 00 00	 call	 ?Str2RGB@CDataConversion@@SAKABV?$CStringT@DV?$StrTraitMFC_DLL@DV?$ChTraitsCRT@D@ATL@@@@@ATL@@@Z ; CDataConversion::Str2RGB
  000a8	83 c4 04	 add	 esp, 4
  000ab	8d 4d f0	 lea	 ecx, DWORD PTR $T5[ebp]
  000ae	8b f0		 mov	 esi, eax
  000b0	ff 15 00 00 00
	00		 call	 DWORD PTR __imp_??1?$CStringT@DV?$StrTraitMFC_DLL@DV?$ChTraitsCRT@D@ATL@@@@@ATL@@QAE@XZ
  000b6	8d 4d ec	 lea	 ecx, DWORD PTR $T4[ebp]
  000b9	ff 15 00 00 00
	00		 call	 DWORD PTR __imp_??1?$CStringT@DV?$StrTraitMFC_DLL@DV?$ChTraitsCRT@D@ATL@@@@@ATL@@QAE@XZ
  000bf	8d 4d e8	 lea	 ecx, DWORD PTR $T3[ebp]
  000c2	ff 15 00 00 00
	00		 call	 DWORD PTR __imp_??1?$CStringT@DV?$StrTraitMFC_DLL@DV?$ChTraitsCRT@D@ATL@@@@@ATL@@QAE@XZ
  000c8	8b c6		 mov	 eax, esi

; 769  : }

  000ca	8b 4d f4	 mov	 ecx, DWORD PTR __$EHRec$[ebp]
  000cd	64 89 0d 00 00
	00 00		 mov	 DWORD PTR fs:0, ecx
  000d4	59		 pop	 ecx
  000d5	5e		 pop	 esi
  000d6	8b e5		 mov	 esp, ebp
  000d8	5d		 pop	 ebp
  000d9	c2 04 00	 ret	 4
_TEXT	ENDS
;	COMDAT text$x
text$x	SEGMENT
__unwindfunclet$?GetColor@CElementTreeBuilder@@ABEKABV?$CStringT@DV?$StrTraitMFC_DLL@DV?$ChTraitsCRT@D@ATL@@@@@ATL@@@Z$0:
  00000	8d 4d e8	 lea	 ecx, DWORD PTR $T3[ebp]
  00003	ff 25 00 00 00
	00		 jmp	 DWORD PTR __imp_??1?$CStringT@DV?$StrTraitMFC_DLL@DV?$ChTraitsCRT@D@ATL@@@@@ATL@@QAE@XZ
__unwindfunclet$?GetColor@CElementTreeBuilder@@ABEKABV?$CStringT@DV?$StrTraitMFC_DLL@DV?$ChTraitsCRT@D@ATL@@@@@ATL@@@Z$1:
  00009	8d 4d ec	 lea	 ecx, DWORD PTR $T4[ebp]
  0000c	ff 25 00 00 00
	00		 jmp	 DWORD PTR __imp_??1?$CStringT@DV?$StrTraitMFC_DLL@DV?$ChTraitsCRT@D@ATL@@@@@ATL@@QAE@XZ
__unwindfunclet$?GetColor@CElementTreeBuilder@@ABEKABV?$CStringT@DV?$StrTraitMFC_DLL@DV?$ChTraitsCRT@D@ATL@@@@@ATL@@@Z$3:
  00012	8d 4d 08	 lea	 ecx, DWORD PTR _strNewData$6[ebp]
  00015	ff 25 00 00 00
	00		 jmp	 DWORD PTR __imp_??1?$CStringT@DV?$StrTraitMFC_DLL@DV?$ChTraitsCRT@D@ATL@@@@@ATL@@QAE@XZ
__unwindfunclet$?GetColor@CElementTreeBuilder@@ABEKABV?$CStringT@DV?$StrTraitMFC_DLL@DV?$ChTraitsCRT@D@ATL@@@@@ATL@@@Z$2:
  0001b	8d 4d f0	 lea	 ecx, DWORD PTR $T5[ebp]
  0001e	ff 25 00 00 00
	00		 jmp	 DWORD PTR __imp_??1?$CStringT@DV?$StrTraitMFC_DLL@DV?$ChTraitsCRT@D@ATL@@@@@ATL@@QAE@XZ
  00024	cc		 int	 3
  00025	cc		 int	 3
  00026	cc		 int	 3
  00027	cc		 int	 3
  00028	cc		 int	 3
__ehhandler$?GetColor@CElementTreeBuilder@@ABEKABV?$CStringT@DV?$StrTraitMFC_DLL@DV?$ChTraitsCRT@D@ATL@@@@@ATL@@@Z:
  00029	90		 npad	 1
  0002a	90		 npad	 1
  0002b	8b 54 24 08	 mov	 edx, DWORD PTR [esp+8]
  0002f	8d 42 0c	 lea	 eax, DWORD PTR [edx+12]
  00032	8b 4a e8	 mov	 ecx, DWORD PTR [edx-24]
  00035	33 c8		 xor	 ecx, eax
  00037	e8 00 00 00 00	 call	 @__security_check_cookie@4
  0003c	b8 00 00 00 00	 mov	 eax, OFFSET __ehfuncinfo$?GetColor@CElementTreeBuilder@@ABEKABV?$CStringT@DV?$StrTraitMFC_DLL@DV?$ChTraitsCRT@D@ATL@@@@@ATL@@@Z
  00041	e9 00 00 00 00	 jmp	 ___CxxFrameHandler3
text$x	ENDS
?GetColor@CElementTreeBuilder@@ABEKABV?$CStringT@DV?$StrTraitMFC_DLL@DV?$ChTraitsCRT@D@ATL@@@@@ATL@@@Z ENDP ; CElementTreeBuilder::GetColor
; Function compile flags: /Ogtp
; File D:\git\src\IBK\IBK_DRFN\ProjSrc\SrcChartEx\ChartAddIn\ChartAnalysisToolAddIn\AnalysisTool\ElementTreeBuilder.cpp
;	COMDAT ?GetPenEnvironment@CElementTreeBuilder@@ABE?AVCPenEnvironment@@ABV?$CStringT@DV?$StrTraitMFC_DLL@DV?$ChTraitsCRT@D@ATL@@@@@ATL@@@Z
_TEXT	SEGMENT
_color$ = -44						; size = 4
$T2 = -40						; size = 4
$T3 = -40						; size = 4
$T4 = -36						; size = 4
$T5 = -36						; size = 4
$T6 = -36						; size = 4
$T7 = -32						; size = 4
$T8 = -32						; size = 4
$T9 = -28						; size = 4
$T10 = -28						; size = 4
$T11 = -24						; size = 4
$T12 = -20						; size = 4
_strPenData$ = -16					; size = 4
__$EHRec$ = -12						; size = 12
___$ReturnUdt$ = 8					; size = 4
_strNewData$13 = 12					; size = 4
_strNewData$14 = 12					; size = 4
_strNewData$15 = 12					; size = 4
_strData$ = 12						; size = 4
?GetPenEnvironment@CElementTreeBuilder@@ABE?AVCPenEnvironment@@ABV?$CStringT@DV?$StrTraitMFC_DLL@DV?$ChTraitsCRT@D@ATL@@@@@ATL@@@Z PROC ; CElementTreeBuilder::GetPenEnvironment, COMDAT
; _this$ = ecx

; 758  : {

  00000	55		 push	 ebp
  00001	8b ec		 mov	 ebp, esp
  00003	6a ff		 push	 -1
  00005	68 00 00 00 00	 push	 __ehhandler$?GetPenEnvironment@CElementTreeBuilder@@ABE?AVCPenEnvironment@@ABV?$CStringT@DV?$StrTraitMFC_DLL@DV?$ChTraitsCRT@D@ATL@@@@@ATL@@@Z
  0000a	64 a1 00 00 00
	00		 mov	 eax, DWORD PTR fs:0
  00010	50		 push	 eax
  00011	83 ec 20	 sub	 esp, 32			; 00000020H
  00014	56		 push	 esi
  00015	57		 push	 edi
  00016	a1 00 00 00 00	 mov	 eax, DWORD PTR ___security_cookie
  0001b	33 c5		 xor	 eax, ebp
  0001d	50		 push	 eax
  0001e	8d 45 f4	 lea	 eax, DWORD PTR __$EHRec$[ebp]
  00021	64 a3 00 00 00
	00		 mov	 DWORD PTR fs:0, eax
  00027	8b f1		 mov	 esi, ecx

; 759  : 	CString strPenData = GetData(strData, "<Pen>\r\n", "<\\Pen>\r\n");

  00029	68 00 00 00 00	 push	 OFFSET ??_C@_08GMFHHECH@?$DM?2Pen?$DO?$AN?6@
  0002e	8d 4d e8	 lea	 ecx, DWORD PTR $T11[ebp]
  00031	ff 15 00 00 00
	00		 call	 DWORD PTR __imp_??0?$CStringT@DV?$StrTraitMFC_DLL@DV?$ChTraitsCRT@D@ATL@@@@@ATL@@QAE@PBD@Z
  00037	68 00 00 00 00	 push	 OFFSET ??_C@_07PHJCCMJN@?$DMPen?$DO?$AN?6@
  0003c	8d 4d ec	 lea	 ecx, DWORD PTR $T12[ebp]
  0003f	c7 45 fc 00 00
	00 00		 mov	 DWORD PTR __$EHRec$[ebp+8], 0
  00046	ff 15 00 00 00
	00		 call	 DWORD PTR __imp_??0?$CStringT@DV?$StrTraitMFC_DLL@DV?$ChTraitsCRT@D@ATL@@@@@ATL@@QAE@PBD@Z

; 384  : 	CString strNewData = strOrgData;

  0004c	ff 75 0c	 push	 DWORD PTR _strData$[ebp]
  0004f	8d 4d 0c	 lea	 ecx, DWORD PTR _strNewData$15[ebp]

; 759  : 	CString strPenData = GetData(strData, "<Pen>\r\n", "<\\Pen>\r\n");

  00052	c6 45 fc 01	 mov	 BYTE PTR __$EHRec$[ebp+8], 1

; 384  : 	CString strNewData = strOrgData;

  00056	ff 15 00 00 00
	00		 call	 DWORD PTR __imp_??0?$CStringT@DV?$StrTraitMFC_DLL@DV?$ChTraitsCRT@D@ATL@@@@@ATL@@QAE@ABV01@@Z

; 385  : 	CDataConversion::GetStringData(strNewData, strTrimStart);

  0005c	6a 01		 push	 1
  0005e	8d 45 ec	 lea	 eax, DWORD PTR $T12[ebp]
  00061	c6 45 fc 02	 mov	 BYTE PTR __$EHRec$[ebp+8], 2
  00065	50		 push	 eax
  00066	8d 45 0c	 lea	 eax, DWORD PTR _strNewData$15[ebp]
  00069	50		 push	 eax
  0006a	8d 45 dc	 lea	 eax, DWORD PTR $T5[ebp]
  0006d	50		 push	 eax
  0006e	e8 00 00 00 00	 call	 ?GetStringData@CDataConversion@@SA?AV?$CStringT@DV?$StrTraitMFC_DLL@DV?$ChTraitsCRT@D@ATL@@@@@ATL@@AAV23@ABV23@_N@Z ; CDataConversion::GetStringData
  00073	83 c4 10	 add	 esp, 16			; 00000010H
  00076	8d 4d dc	 lea	 ecx, DWORD PTR $T5[ebp]
  00079	ff 15 00 00 00
	00		 call	 DWORD PTR __imp_??1?$CStringT@DV?$StrTraitMFC_DLL@DV?$ChTraitsCRT@D@ATL@@@@@ATL@@QAE@XZ

; 386  : 	return CDataConversion::GetStringData(strNewData, strTrimEnd);

  0007f	6a 01		 push	 1
  00081	8d 45 e8	 lea	 eax, DWORD PTR $T11[ebp]
  00084	50		 push	 eax
  00085	8d 45 0c	 lea	 eax, DWORD PTR _strNewData$15[ebp]
  00088	50		 push	 eax
  00089	8d 45 f0	 lea	 eax, DWORD PTR _strPenData$[ebp]
  0008c	50		 push	 eax
  0008d	e8 00 00 00 00	 call	 ?GetStringData@CDataConversion@@SA?AV?$CStringT@DV?$StrTraitMFC_DLL@DV?$ChTraitsCRT@D@ATL@@@@@ATL@@AAV23@ABV23@_N@Z ; CDataConversion::GetStringData
  00092	83 c4 10	 add	 esp, 16			; 00000010H
  00095	8d 4d 0c	 lea	 ecx, DWORD PTR _strNewData$15[ebp]
  00098	ff 15 00 00 00
	00		 call	 DWORD PTR __imp_??1?$CStringT@DV?$StrTraitMFC_DLL@DV?$ChTraitsCRT@D@ATL@@@@@ATL@@QAE@XZ

; 759  : 	CString strPenData = GetData(strData, "<Pen>\r\n", "<\\Pen>\r\n");

  0009e	8d 4d ec	 lea	 ecx, DWORD PTR $T12[ebp]
  000a1	ff 15 00 00 00
	00		 call	 DWORD PTR __imp_??1?$CStringT@DV?$StrTraitMFC_DLL@DV?$ChTraitsCRT@D@ATL@@@@@ATL@@QAE@XZ
  000a7	8d 4d e8	 lea	 ecx, DWORD PTR $T11[ebp]
  000aa	c6 45 fc 05	 mov	 BYTE PTR __$EHRec$[ebp+8], 5
  000ae	ff 15 00 00 00
	00		 call	 DWORD PTR __imp_??1?$CStringT@DV?$StrTraitMFC_DLL@DV?$ChTraitsCRT@D@ATL@@@@@ATL@@QAE@XZ

; 760  : 	COLORREF color = GetColor(strPenData);

  000b4	8d 45 f0	 lea	 eax, DWORD PTR _strPenData$[ebp]
  000b7	8b ce		 mov	 ecx, esi
  000b9	50		 push	 eax
  000ba	e8 00 00 00 00	 call	 ?GetColor@CElementTreeBuilder@@ABEKABV?$CStringT@DV?$StrTraitMFC_DLL@DV?$ChTraitsCRT@D@ATL@@@@@ATL@@@Z ; CElementTreeBuilder::GetColor

; 773  : 	return atoi(GetData(strData, "<Width>", "<\\Width>\r\n"));

  000bf	68 00 00 00 00	 push	 OFFSET ??_C@_0L@GIHMIJMH@?$DM?2Width?$DO?$AN?6@
  000c4	8d 4d dc	 lea	 ecx, DWORD PTR $T6[ebp]

; 760  : 	COLORREF color = GetColor(strPenData);

  000c7	89 45 d4	 mov	 DWORD PTR _color$[ebp], eax

; 773  : 	return atoi(GetData(strData, "<Width>", "<\\Width>\r\n"));

  000ca	ff 15 00 00 00
	00		 call	 DWORD PTR __imp_??0?$CStringT@DV?$StrTraitMFC_DLL@DV?$ChTraitsCRT@D@ATL@@@@@ATL@@QAE@PBD@Z
