; Listing generated by Microsoft (R) Optimizing Compiler Version 19.29.30145.0 

	TITLE	D:\git\src\IBK\IBK_DRFN\#DRfn-CS\_Obj\AnalysisTool\ElementEnvironment.obj
	.686P
	.XMM
	include listing.inc
	.model	flat

INCLUDELIB MSVCRT
INCLUDELIB OLDNAMES

PUBLIC	?__empty_global_delete@@YAXPAX@Z		; __empty_global_delete
PUBLIC	?__empty_global_delete@@YAXPAXI@Z		; __empty_global_delete
PUBLIC	??HATL@@YA?AV?$CStringT@DV?$StrTraitMFC_DLL@DV?$ChTraitsCRT@D@ATL@@@@@0@ABV10@0@Z ; ATL::operator+
PUBLIC	??HATL@@YA?AV?$CStringT@DV?$StrTraitMFC_DLL@DV?$ChTraitsCRT@D@ATL@@@@@0@ABV10@PBD@Z ; ATL::operator+
PUBLIC	??HATL@@YA?AV?$CStringT@DV?$StrTraitMFC_DLL@DV?$ChTraitsCRT@D@ATL@@@@@0@PBDABV10@@Z ; ATL::operator+
PUBLIC	??4CPenEnvironment@@QAEAAV0@ABV0@@Z		; CPenEnvironment::operator=
PUBLIC	??0CPenEnvironment@@QAE@XZ			; CPenEnvironment::CPenEnvironment
PUBLIC	??0CPenEnvironment@@QAE@ABKHW4PenStyle@CToolEnumData@@@Z ; CPenEnvironment::CPenEnvironment
PUBLIC	??0CPenEnvironment@@QAE@PAV0@@Z			; CPenEnvironment::CPenEnvironment
PUBLIC	?CreatePen@CPenEnvironment@@QAEX_NAAVCPen@@@Z	; CPenEnvironment::CreatePen
PUBLIC	?Set@CPenEnvironment@@QAEXABV1@@Z		; CPenEnvironment::Set
PUBLIC	?SetColor@CPenEnvironment@@QAEXABK@Z		; CPenEnvironment::SetColor
PUBLIC	?SetWidth@CPenEnvironment@@QAEXH@Z		; CPenEnvironment::SetWidth
PUBLIC	?SetStyle@CPenEnvironment@@QAEXW4PenStyle@CToolEnumData@@@Z ; CPenEnvironment::SetStyle
PUBLIC	?GetColor@CPenEnvironment@@QBEKXZ		; CPenEnvironment::GetColor
PUBLIC	?GetWidth@CPenEnvironment@@QBEHXZ		; CPenEnvironment::GetWidth
PUBLIC	?GetStyle@CPenEnvironment@@QBE?AW4PenStyle@CToolEnumData@@XZ ; CPenEnvironment::GetStyle
PUBLIC	?GetSavedData@CPenEnvironment@@QBE?AV?$CStringT@DV?$StrTraitMFC_DLL@DV?$ChTraitsCRT@D@ATL@@@@@ATL@@XZ ; CPenEnvironment::GetSavedData
PUBLIC	?GetStyle_Draw@CPenEnvironment@@ABEHXZ		; CPenEnvironment::GetStyle_Draw
PUBLIC	?GetSavedColor@CPenEnvironment@@ABE?AV?$CStringT@DV?$StrTraitMFC_DLL@DV?$ChTraitsCRT@D@ATL@@@@@ATL@@XZ ; CPenEnvironment::GetSavedColor
PUBLIC	?GetSavedWidth@CPenEnvironment@@ABE?AV?$CStringT@DV?$StrTraitMFC_DLL@DV?$ChTraitsCRT@D@ATL@@@@@ATL@@XZ ; CPenEnvironment::GetSavedWidth
PUBLIC	?GetSavedStyle@CPenEnvironment@@ABE?AV?$CStringT@DV?$StrTraitMFC_DLL@DV?$ChTraitsCRT@D@ATL@@@@@ATL@@XZ ; CPenEnvironment::GetSavedStyle
PUBLIC	??4CDataTypeEnvironment@@QAEAAV0@ABV0@@Z	; CDataTypeEnvironment::operator=
PUBLIC	??0CDataTypeEnvironment@@QAE@XZ			; CDataTypeEnvironment::CDataTypeEnvironment
PUBLIC	??0CDataTypeEnvironment@@QAE@W4COORDINATETYPE@CAnalysis@@ABNABV?$CStringT@DV?$StrTraitMFC_DLL@DV?$ChTraitsCRT@D@ATL@@@@@ATL@@PAUHWND__@@W4CHART_MODE@CChartInfo@@@Z ; CDataTypeEnvironment::CDataTypeEnvironment
PUBLIC	??0CDataTypeEnvironment@@QAE@W4COORDINATETYPE@CAnalysis@@ABNABV?$CStringT@DV?$StrTraitMFC_DLL@DV?$ChTraitsCRT@D@ATL@@@@@ATL@@2PAUHWND__@@W4CHART_MODE@CChartInfo@@@Z ; CDataTypeEnvironment::CDataTypeEnvironment
PUBLIC	??0CDataTypeEnvironment@@QAE@W4COORDINATETYPE@CAnalysis@@ABNABV?$CStringT@DV?$StrTraitMFC_DLL@DV?$ChTraitsCRT@D@ATL@@@@@ATL@@22PAUHWND__@@W4CHART_MODE@CChartInfo@@@Z ; CDataTypeEnvironment::CDataTypeEnvironment
PUBLIC	??0CDataTypeEnvironment@@QAE@PBV0@@Z		; CDataTypeEnvironment::CDataTypeEnvironment
PUBLIC	?Reset_AbsolutePoint@CDataTypeEnvironment@@QAEXXZ ; CDataTypeEnvironment::Reset_AbsolutePoint
PUBLIC	?SetCoordinateType@CDataTypeEnvironment@@QAEXW4COORDINATETYPE@CAnalysis@@@Z ; CDataTypeEnvironment::SetCoordinateType
PUBLIC	?SetVert@CDataTypeEnvironment@@QAEXABN@Z	; CDataTypeEnvironment::SetVert
PUBLIC	?SetHorz@CDataTypeEnvironment@@QAEXABV?$CStringT@DV?$StrTraitMFC_DLL@DV?$ChTraitsCRT@D@ATL@@@@@ATL@@@Z ; CDataTypeEnvironment::SetHorz
PUBLIC	?SetExtData@CDataTypeEnvironment@@QAEXABV?$CStringT@DV?$StrTraitMFC_DLL@DV?$ChTraitsCRT@D@ATL@@@@@ATL@@@Z ; CDataTypeEnvironment::SetExtData
PUBLIC	?SetStrVert@CDataTypeEnvironment@@QAEXABV?$CStringT@DV?$StrTraitMFC_DLL@DV?$ChTraitsCRT@D@ATL@@@@@ATL@@@Z ; CDataTypeEnvironment::SetStrVert
PUBLIC	?IsRelativePointType@CDataTypeEnvironment@@QBE_NXZ ; CDataTypeEnvironment::IsRelativePointType
PUBLIC	?IsDateType@CDataTypeEnvironment@@QBE_NXZ	; CDataTypeEnvironment::IsDateType
PUBLIC	?GetCoordinateType@CDataTypeEnvironment@@QBE?AW4COORDINATETYPE@CAnalysis@@XZ ; CDataTypeEnvironment::GetCoordinateType
PUBLIC	?GetVert@CDataTypeEnvironment@@QBENXZ		; CDataTypeEnvironment::GetVert
PUBLIC	?GetHorz@CDataTypeEnvironment@@QBE?AV?$CStringT@DV?$StrTraitMFC_DLL@DV?$ChTraitsCRT@D@ATL@@@@@ATL@@XZ ; CDataTypeEnvironment::GetHorz
PUBLIC	?GetDateCompart@CDataTypeEnvironment@@QBE?AV?$CStringT@DV?$StrTraitMFC_DLL@DV?$ChTraitsCRT@D@ATL@@@@@ATL@@XZ ; CDataTypeEnvironment::GetDateCompart
PUBLIC	?GetTimeCompart@CDataTypeEnvironment@@QBE?AV?$CStringT@DV?$StrTraitMFC_DLL@DV?$ChTraitsCRT@D@ATL@@@@@ATL@@XZ ; CDataTypeEnvironment::GetTimeCompart
PUBLIC	?GetExtData@CDataTypeEnvironment@@QBE?AV?$CStringT@DV?$StrTraitMFC_DLL@DV?$ChTraitsCRT@D@ATL@@@@@ATL@@XZ ; CDataTypeEnvironment::GetExtData
PUBLIC	?GetStrVert@CDataTypeEnvironment@@QBE?AV?$CStringT@DV?$StrTraitMFC_DLL@DV?$ChTraitsCRT@D@ATL@@@@@ATL@@XZ ; CDataTypeEnvironment::GetStrVert
PUBLIC	?GetSavedData@CDataTypeEnvironment@@QBE?AV?$CStringT@DV?$StrTraitMFC_DLL@DV?$ChTraitsCRT@D@ATL@@@@@ATL@@XZ ; CDataTypeEnvironment::GetSavedData
PUBLIC	?GetSavedCoordinateType@CDataTypeEnvironment@@ABE?AV?$CStringT@DV?$StrTraitMFC_DLL@DV?$ChTraitsCRT@D@ATL@@@@@ATL@@XZ ; CDataTypeEnvironment::GetSavedCoordinateType
PUBLIC	?GetSavedVert@CDataTypeEnvironment@@ABE?AV?$CStringT@DV?$StrTraitMFC_DLL@DV?$ChTraitsCRT@D@ATL@@@@@ATL@@XZ ; CDataTypeEnvironment::GetSavedVert
PUBLIC	?GetSavedHorz@CDataTypeEnvironment@@ABE?AV?$CStringT@DV?$StrTraitMFC_DLL@DV?$ChTraitsCRT@D@ATL@@@@@ATL@@XZ ; CDataTypeEnvironment::GetSavedHorz
PUBLIC	?GetSavedExtData@CDataTypeEnvironment@@ABE?AV?$CStringT@DV?$StrTraitMFC_DLL@DV?$ChTraitsCRT@D@ATL@@@@@ATL@@XZ ; CDataTypeEnvironment::GetSavedExtData
PUBLIC	?GetSavedStrVert@CDataTypeEnvironment@@ABE?AV?$CStringT@DV?$StrTraitMFC_DLL@DV?$ChTraitsCRT@D@ATL@@@@@ATL@@XZ ; CDataTypeEnvironment::GetSavedStrVert
PUBLIC	??1CDataTypeEnvironment@@QAE@XZ			; CDataTypeEnvironment::~CDataTypeEnvironment
PUBLIC	??4CLineExtEnvironment@@QAEAAV0@ABV0@@Z		; CLineExtEnvironment::operator=
PUBLIC	??0CLineExtEnvironment@@QAE@XZ			; CLineExtEnvironment::CLineExtEnvironment
PUBLIC	??0CLineExtEnvironment@@QAE@ABH0@Z		; CLineExtEnvironment::CLineExtEnvironment
PUBLIC	??0CLineExtEnvironment@@QAE@ABV0@@Z		; CLineExtEnvironment::CLineExtEnvironment
PUBLIC	??0CLineExtEnvironment@@QAE@PAV0@@Z		; CLineExtEnvironment::CLineExtEnvironment
PUBLIC	?Set@CLineExtEnvironment@@QAEXABV1@@Z		; CLineExtEnvironment::Set
PUBLIC	?SetLineExt@CLineExtEnvironment@@QAEXABH0@Z	; CLineExtEnvironment::SetLineExt
PUBLIC	?GetLeftExt@CLineExtEnvironment@@QBEHXZ		; CLineExtEnvironment::GetLeftExt
PUBLIC	?GetRightExt@CLineExtEnvironment@@QBEHXZ	; CLineExtEnvironment::GetRightExt
PUBLIC	?GetSavedData@CLineExtEnvironment@@QBE?AV?$CStringT@DV?$StrTraitMFC_DLL@DV?$ChTraitsCRT@D@ATL@@@@@ATL@@XZ ; CLineExtEnvironment::GetSavedData
PUBLIC	?GetSavedLineExt@CLineExtEnvironment@@ABE?AV?$CStringT@DV?$StrTraitMFC_DLL@DV?$ChTraitsCRT@D@ATL@@@@@ATL@@XZ ; CLineExtEnvironment::GetSavedLineExt
PUBLIC	??4CElementCommonEnvironment@@QAEAAV0@ABV0@@Z	; CElementCommonEnvironment::operator=
PUBLIC	??0CElementCommonEnvironment@@QAE@XZ		; CElementCommonEnvironment::CElementCommonEnvironment
PUBLIC	??0CElementCommonEnvironment@@QAE@_NABH1ABVCPenEnvironment@@ABVCDataTypeEnvironment@@ABVCLineExtEnvironment@@@Z ; CElementCommonEnvironment::CElementCommonEnvironment
PUBLIC	?SetAutoPrice@CElementCommonEnvironment@@QAEX_N@Z ; CElementCommonEnvironment::SetAutoPrice
PUBLIC	?IsAutoPrice@CElementCommonEnvironment@@QBE_NXZ	; CElementCommonEnvironment::IsAutoPrice
PUBLIC	?GetEquiDiv@CElementCommonEnvironment@@QBEHXZ	; CElementCommonEnvironment::GetEquiDiv
PUBLIC	?GetEquiDiv@CElementCommonEnvironment@@QAEAAHXZ	; CElementCommonEnvironment::GetEquiDiv
PUBLIC	?SetEquiDiv@CElementCommonEnvironment@@QAEXH@Z	; CElementCommonEnvironment::SetEquiDiv
PUBLIC	?GetPriceRangeDiv@CElementCommonEnvironment@@QBEHXZ ; CElementCommonEnvironment::GetPriceRangeDiv
PUBLIC	?GetPriceRangeDiv@CElementCommonEnvironment@@QAEAAHXZ ; CElementCommonEnvironment::GetPriceRangeDiv
PUBLIC	?SetPriceRangeDiv@CElementCommonEnvironment@@QAEXH@Z ; CElementCommonEnvironment::SetPriceRangeDiv
PUBLIC	?IsLeftLineExt@CElementCommonEnvironment@@QBEHXZ ; CElementCommonEnvironment::IsLeftLineExt
PUBLIC	?IsRightLineExt@CElementCommonEnvironment@@QBEHXZ ; CElementCommonEnvironment::IsRightLineExt
PUBLIC	?SetLineExt@CElementCommonEnvironment@@QAEXHH@Z	; CElementCommonEnvironment::SetLineExt
PUBLIC	?GetLineExt@CElementCommonEnvironment@@QBE?AVCLineExtEnvironment@@XZ ; CElementCommonEnvironment::GetLineExt
PUBLIC	?GetLineExt@CElementCommonEnvironment@@QAEAAVCLineExtEnvironment@@XZ ; CElementCommonEnvironment::GetLineExt
PUBLIC	?GetPen@CElementCommonEnvironment@@QBE?AVCPenEnvironment@@XZ ; CElementCommonEnvironment::GetPen
PUBLIC	?GetDataType@CElementCommonEnvironment@@QBE?AVCDataTypeEnvironment@@XZ ; CElementCommonEnvironment::GetDataType
PUBLIC	?GetPen@CElementCommonEnvironment@@QAEAAVCPenEnvironment@@XZ ; CElementCommonEnvironment::GetPen
PUBLIC	?GetDataType@CElementCommonEnvironment@@QAEAAVCDataTypeEnvironment@@XZ ; CElementCommonEnvironment::GetDataType
PUBLIC	?GetSavedData@CElementCommonEnvironment@@QBE?AV?$CStringT@DV?$StrTraitMFC_DLL@DV?$ChTraitsCRT@D@ATL@@@@@ATL@@XZ ; CElementCommonEnvironment::GetSavedData
PUBLIC	?GetSaveData_AutoPrice@CElementCommonEnvironment@@ABE?AV?$CStringT@DV?$StrTraitMFC_DLL@DV?$ChTraitsCRT@D@ATL@@@@@ATL@@XZ ; CElementCommonEnvironment::GetSaveData_AutoPrice
PUBLIC	?GetSaveData_EquiDiv@CElementCommonEnvironment@@ABE?AV?$CStringT@DV?$StrTraitMFC_DLL@DV?$ChTraitsCRT@D@ATL@@@@@ATL@@XZ ; CElementCommonEnvironment::GetSaveData_EquiDiv
PUBLIC	?GetSaveData_PriceRangeDiv@CElementCommonEnvironment@@ABE?AV?$CStringT@DV?$StrTraitMFC_DLL@DV?$ChTraitsCRT@D@ATL@@@@@ATL@@XZ ; CElementCommonEnvironment::GetSaveData_PriceRangeDiv
PUBLIC	??4CTextEnvironment@@QAEAAV0@ABV0@@Z		; CTextEnvironment::operator=
PUBLIC	??0CTextEnvironment@@QAE@XZ			; CTextEnvironment::CTextEnvironment
PUBLIC	??0CTextEnvironment@@QAE@ABK@Z			; CTextEnvironment::CTextEnvironment
PUBLIC	??0CTextEnvironment@@QAE@ABV0@@Z		; CTextEnvironment::CTextEnvironment
PUBLIC	??0CTextEnvironment@@QAE@PAV0@@Z		; CTextEnvironment::CTextEnvironment
PUBLIC	?Set@CTextEnvironment@@QAEXABV1@@Z		; CTextEnvironment::Set
PUBLIC	?SetColor@CTextEnvironment@@QAEXABK@Z		; CTextEnvironment::SetColor
PUBLIC	?GetColor@CTextEnvironment@@QBEKXZ		; CTextEnvironment::GetColor
PUBLIC	?GetSavedData@CTextEnvironment@@QBE?AV?$CStringT@DV?$StrTraitMFC_DLL@DV?$ChTraitsCRT@D@ATL@@@@@ATL@@XZ ; CTextEnvironment::GetSavedData
PUBLIC	?GetSavedColor@CTextEnvironment@@ABE?AV?$CStringT@DV?$StrTraitMFC_DLL@DV?$ChTraitsCRT@D@ATL@@@@@ATL@@XZ ; CTextEnvironment::GetSavedColor
PUBLIC	??4CTextPosition@@QAEAAV0@ABV0@@Z		; CTextPosition::operator=
PUBLIC	??0CTextPosition@@QAE@XZ			; CTextPosition::CTextPosition
PUBLIC	??0CTextPosition@@QAE@ABVCTextEnvironment@@@Z	; CTextPosition::CTextPosition
PUBLIC	?Set@CTextPosition@@UAEXPBV1@@Z			; CTextPosition::Set
PUBLIC	?SetTextEnvironment@CTextPosition@@QAEXABVCTextEnvironment@@@Z ; CTextPosition::SetTextEnvironment
PUBLIC	?GetTextEnvironment@CTextPosition@@QBE?AVCTextEnvironment@@XZ ; CTextPosition::GetTextEnvironment
PUBLIC	?GetTextEnvironment@CTextPosition@@QAEAAVCTextEnvironment@@XZ ; CTextPosition::GetTextEnvironment
PUBLIC	?GetSavedData@CTextPosition@@QBE?AV?$CStringT@DV?$StrTraitMFC_DLL@DV?$ChTraitsCRT@D@ATL@@@@@ATL@@XZ ; CTextPosition::GetSavedData
PUBLIC	?GetDataOfOneLine@CTextPosition@@IBE?AV?$CStringT@DV?$StrTraitMFC_DLL@DV?$ChTraitsCRT@D@ATL@@@@@ATL@@_NABV23@@Z ; CTextPosition::GetDataOfOneLine
PUBLIC	?GetSavedData_TextPosition@CTextPosition@@ABE?AV?$CStringT@DV?$StrTraitMFC_DLL@DV?$ChTraitsCRT@D@ATL@@@@@ATL@@XZ ; CTextPosition::GetSavedData_TextPosition
PUBLIC	??0CTextShowPosition@@QAE@XZ			; CTextShowPosition::CTextShowPosition
PUBLIC	??0CTextShowPosition@@QAE@ABVCTextEnvironment@@_N@Z ; CTextShowPosition::CTextShowPosition
PUBLIC	??0CTextShowPosition@@QAE@ABV0@@Z		; CTextShowPosition::CTextShowPosition
PUBLIC	?Set@CTextShowPosition@@UAEXPBVCTextPosition@@@Z ; CTextShowPosition::Set
PUBLIC	?SetShow@CTextShowPosition@@QAEX_N@Z		; CTextShowPosition::SetShow
PUBLIC	?IsShow@CTextShowPosition@@QBE_NXZ		; CTextShowPosition::IsShow
PUBLIC	?GetSavedRealTextPositionData@CTextShowPosition@@MBE?AV?$CStringT@DV?$StrTraitMFC_DLL@DV?$ChTraitsCRT@D@ATL@@@@@ATL@@XZ ; CTextShowPosition::GetSavedRealTextPositionData
PUBLIC	??0CTextHorzPosition@@QAE@XZ			; CTextHorzPosition::CTextHorzPosition
PUBLIC	??0CTextHorzPosition@@QAE@ABVCTextEnvironment@@_N11@Z ; CTextHorzPosition::CTextHorzPosition
PUBLIC	??0CTextHorzPosition@@QAE@ABV0@@Z		; CTextHorzPosition::CTextHorzPosition
PUBLIC	?Set@CTextHorzPosition@@UAEXPBVCTextPosition@@@Z ; CTextHorzPosition::Set
PUBLIC	?SetLeft@CTextHorzPosition@@QAEX_N@Z		; CTextHorzPosition::SetLeft
PUBLIC	?SetRight@CTextHorzPosition@@QAEX_N@Z		; CTextHorzPosition::SetRight
PUBLIC	?SetRightRate@CTextHorzPosition@@QAEX_N@Z	; CTextHorzPosition::SetRightRate
PUBLIC	?GetLeft@CTextHorzPosition@@QBE_NXZ		; CTextHorzPosition::GetLeft
PUBLIC	?GetRight@CTextHorzPosition@@QBE_NXZ		; CTextHorzPosition::GetRight
PUBLIC	?GetRightRate@CTextHorzPosition@@QBE_NXZ	; CTextHorzPosition::GetRightRate
PUBLIC	?GetSavedRealTextPositionData@CTextHorzPosition@@MBE?AV?$CStringT@DV?$StrTraitMFC_DLL@DV?$ChTraitsCRT@D@ATL@@@@@ATL@@XZ ; CTextHorzPosition::GetSavedRealTextPositionData
PUBLIC	??0CTextVertPosition@@QAE@XZ			; CTextVertPosition::CTextVertPosition
PUBLIC	??0CTextVertPosition@@QAE@ABVCTextEnvironment@@_N1@Z ; CTextVertPosition::CTextVertPosition
PUBLIC	??0CTextVertPosition@@QAE@ABV0@@Z		; CTextVertPosition::CTextVertPosition
PUBLIC	?Set@CTextVertPosition@@UAEXPBVCTextPosition@@@Z ; CTextVertPosition::Set
PUBLIC	?SetTop@CTextVertPosition@@QAEX_N@Z		; CTextVertPosition::SetTop
PUBLIC	?SetBottom@CTextVertPosition@@QAEX_N@Z		; CTextVertPosition::SetBottom
PUBLIC	?GetTop@CTextVertPosition@@QBE_NXZ		; CTextVertPosition::GetTop
PUBLIC	?GetBottom@CTextVertPosition@@QBE_NXZ		; CTextVertPosition::GetBottom
PUBLIC	?GetSavedRealTextPositionData@CTextVertPosition@@MBE?AV?$CStringT@DV?$StrTraitMFC_DLL@DV?$ChTraitsCRT@D@ATL@@@@@ATL@@XZ ; CTextVertPosition::GetSavedRealTextPositionData
PUBLIC	??4CTextHorzVertPosition@@QAEAAV0@ABV0@@Z	; CTextHorzVertPosition::operator=
PUBLIC	??0CTextHorzVertPosition@@QAE@XZ		; CTextHorzVertPosition::CTextHorzVertPosition
PUBLIC	??0CTextHorzVertPosition@@QAE@ABVCTextEnvironment@@_N111@Z ; CTextHorzVertPosition::CTextHorzVertPosition
PUBLIC	?Set@CTextHorzVertPosition@@UAEXPBVCTextPosition@@@Z ; CTextHorzVertPosition::Set
PUBLIC	?SetLeft@CTextHorzVertPosition@@QAEX_N@Z	; CTextHorzVertPosition::SetLeft
PUBLIC	?SetRight@CTextHorzVertPosition@@QAEX_N@Z	; CTextHorzVertPosition::SetRight
PUBLIC	?SetTop@CTextHorzVertPosition@@QAEX_N@Z		; CTextHorzVertPosition::SetTop
PUBLIC	?SetBottom@CTextHorzVertPosition@@QAEX_N@Z	; CTextHorzVertPosition::SetBottom
PUBLIC	?GetLeft@CTextHorzVertPosition@@QBE_NXZ		; CTextHorzVertPosition::GetLeft
PUBLIC	?GetRight@CTextHorzVertPosition@@QBE_NXZ	; CTextHorzVertPosition::GetRight
PUBLIC	?GetTop@CTextHorzVertPosition@@QBE_NXZ		; CTextHorzVertPosition::GetTop
PUBLIC	?GetBottom@CTextHorzVertPosition@@QBE_NXZ	; CTextHorzVertPosition::GetBottom
PUBLIC	?GetHorz@CTextHorzVertPosition@@QBE?AVCTextHorzPosition@@XZ ; CTextHorzVertPosition::GetHorz
PUBLIC	?GetVert@CTextHorzVertPosition@@QBE?AVCTextVertPosition@@XZ ; CTextHorzVertPosition::GetVert
PUBLIC	?GetSavedRealTextPositionData@CTextHorzVertPosition@@MBE?AV?$CStringT@DV?$StrTraitMFC_DLL@DV?$ChTraitsCRT@D@ATL@@@@@ATL@@XZ ; CTextHorzVertPosition::GetSavedRealTextPositionData
PUBLIC	??_C@_00CNPNBAHC@@				; `string'
PUBLIC	??_7CTextPosition@@6B@				; CTextPosition::`vftable'
PUBLIC	??_7CTextShowPosition@@6B@			; CTextShowPosition::`vftable'
PUBLIC	??_7CTextHorzPosition@@6B@			; CTextHorzPosition::`vftable'
PUBLIC	??_7CTextVertPosition@@6B@			; CTextVertPosition::`vftable'
PUBLIC	??_7CTextHorzVertPosition@@6B@			; CTextHorzVertPosition::`vftable'
PUBLIC	??_C@_0BG@BEDOAAKG@?$DMPen?$DO?$AN?6?$CFs?$CFs?$CFs?$DM?2Pen?$DO?$AN?6@ ; `string'
PUBLIC	??_C@_0L@CPJBKACB@?$DM?2Color?$DO?$AN?6@	; `string'
PUBLIC	??_C@_07ONMJGOJF@?$DMColor?$DO@			; `string'
PUBLIC	??_C@_0L@GIHMIJMH@?$DM?2Width?$DO?$AN?6@	; `string'
PUBLIC	??_C@_07ONIIIKM@?$DMWidth?$DO@			; `string'
PUBLIC	??_C@_0L@MDDCEFHI@?$DM?2Style?$DO?$AN?6@	; `string'
PUBLIC	??_C@_07EANKACOK@?$DMStyle?$DO@			; `string'
PUBLIC	??_C@_01HIHLOKLC@1@				; `string'
PUBLIC	??_C@_01KMDKNFGN@?1@				; `string'
PUBLIC	??_C@_01JLIPDDHJ@?3@				; `string'
PUBLIC	??_C@_0N@GLGCPBKI@?$DMDataType?$DO?$AN?6@	; `string'
PUBLIC	??_C@_0CE@NMDKCJFM@?$DMDataType?$DO?$AN?6?$CFs?$CFs?$CFs?$CFs?$CFs?$DM?2DataTyp@ ; `string'
PUBLIC	??_C@_0BA@IFAPIPNB@?$DM?2Coordinate?$DO?$AN?6@	; `string'
PUBLIC	??_C@_0N@CAIHOMCE@?$DMCoordinate?$DO@		; `string'
PUBLIC	??_C@_09BIGAMANA@?$DM?2Vert?$DO?$AN?6@		; `string'
PUBLIC	??_C@_06FFFOEPJG@?$DMVert?$DO@			; `string'
PUBLIC	??_C@_09GKBBACOG@?$DM?2Horz?$DO?$AN?6@		; `string'
PUBLIC	??_C@_06CMKMBJNG@?$DMHorz?$DO@			; `string'
PUBLIC	??_C@_0N@ONMDHGBL@?$DM?2ExtData?$DO?$AN?6@	; `string'
PUBLIC	??_C@_09EBDLFGEM@?$DMExtData?$DO@		; `string'
PUBLIC	??_C@_0N@HGCOAIDN@?$DM?2StrVert?$DO?$AN?6@	; `string'
PUBLIC	??_C@_09COIGHGNF@?$DMStrVert?$DO@		; `string'
PUBLIC	??_C@_0DI@GHGECPII@?$DMCommonEnvironment?$DO?$AN?6?$CFs?$CFs?$CFs?$CFs?$CFs@ ; `string'
PUBLIC	??_C@_0BM@ELHGNBJI@?$DMAutoPirce?$DO?$CFd?$DM?2AutoPirce?$DO?$AN?6@ ; `string'
PUBLIC	??_C@_0BI@JFOMILGF@?$DMEquiDiv?$DO?$CFd?$DM?2EquiDiv?$DO?$AN?6@ ; `string'
PUBLIC	??_C@_0CE@KBAOJFJE@?$DMPriceRangeDiv?$DO?$CFd?$DM?2PriceRangeDi@ ; `string'
PUBLIC	??_C@_0BK@FDALAKDP@?$DMLineExt?$DO?$AN?6?$CFs?$DM?2LineExt?$DO?$AN?6@ ; `string'
PUBLIC	??_C@_0O@CEMHHFOM@?$DM?2RightExt?$DO?$AN?6@	; `string'
PUBLIC	??_C@_0L@CFEIJGAO@?$DMRightExt?$DO@		; `string'
PUBLIC	??_C@_0N@KHBFLOEK@?$DM?2LeftExt?$DO?$AN?6@	; `string'
PUBLIC	??_C@_09JKGHBJEA@?$DMLeftExt?$DO@		; `string'
PUBLIC	??_C@_0CK@OGEBLLHG@?$DMTextEnvironment?$DO?$AN?6?$CFs?$DM?2TextEnvi@ ; `string'
PUBLIC	??_C@_0CM@MGBIECEJ@?$DMPartEnvironment?$DO?$AN?6?$CFs?$CFs?$DM?2PartEn@ ; `string'
PUBLIC	??_C@_0O@LNMCLPEF@?$DM?$CFs?$DO?$CFd?$DM?2?$CFs?$DO?$AN?6@ ; `string'
PUBLIC	??_C@_0CE@NIHIPAJG@?$DMTextPosition?$DO?$AN?6?$CFs?$DM?2TextPositio@ ; `string'
PUBLIC	??_C@_04JLAJABDJ@Show@				; `string'
PUBLIC	??_C@_0BE@CKCBMKAP@?$DMHorz?$DO?$AN?6?$CFs?$DM?2Horz?$DO?$AN?6@ ; `string'
PUBLIC	??_C@_04LDOGFLEB@Rate@				; `string'
PUBLIC	??_C@_05DADPALEM@Right@				; `string'
PUBLIC	??_C@_04KPCPLBPL@Left@				; `string'
PUBLIC	??_C@_0BI@GMNKDDJL@?$DMHorz?$DO?$AN?6?$CFs?$CFs?$CFs?$DM?2Horz?$DO?$AN?6@ ; `string'
PUBLIC	??_C@_08DDEPFPBK@?$DMVert?$DO?$AN?6@		; `string'
PUBLIC	??_C@_03PGGAENPN@Top@				; `string'
PUBLIC	??_C@_06DDHCBBGN@Bottom@			; `string'
PUBLIC	??_C@_0N@ONIGNFDK@?$DMHorzVert?$DO?$AN?6@	; `string'
PUBLIC	??_C@_0O@LMJJOFLI@?$DM?2HorzVert?$DO?$AN?6@	; `string'
PUBLIC	??_R4CTextPosition@@6B@				; CTextPosition::`RTTI Complete Object Locator'
PUBLIC	??_R0?AVCTextPosition@@@8			; CTextPosition `RTTI Type Descriptor'
PUBLIC	??_R3CTextPosition@@8				; CTextPosition::`RTTI Class Hierarchy Descriptor'
PUBLIC	??_R2CTextPosition@@8				; CTextPosition::`RTTI Base Class Array'
PUBLIC	??_R1A@?0A@EA@CTextPosition@@8			; CTextPosition::`RTTI Base Class Descriptor at (0,-1,0,64)'
PUBLIC	??_R4CTextShowPosition@@6B@			; CTextShowPosition::`RTTI Complete Object Locator'
PUBLIC	??_R0?AVCTextShowPosition@@@8			; CTextShowPosition `RTTI Type Descriptor'
PUBLIC	??_R3CTextShowPosition@@8			; CTextShowPosition::`RTTI Class Hierarchy Descriptor'
PUBLIC	??_R2CTextShowPosition@@8			; CTextShowPosition::`RTTI Base Class Array'
PUBLIC	??_R1A@?0A@EA@CTextShowPosition@@8		; CTextShowPosition::`RTTI Base Class Descriptor at (0,-1,0,64)'
PUBLIC	??_R4CTextHorzPosition@@6B@			; CTextHorzPosition::`RTTI Complete Object Locator'
PUBLIC	??_R0?AVCTextHorzPosition@@@8			; CTextHorzPosition `RTTI Type Descriptor'
PUBLIC	??_R3CTextHorzPosition@@8			; CTextHorzPosition::`RTTI Class Hierarchy Descriptor'
PUBLIC	??_R2CTextHorzPosition@@8			; CTextHorzPosition::`RTTI Base Class Array'
PUBLIC	??_R1A@?0A@EA@CTextHorzPosition@@8		; CTextHorzPosition::`RTTI Base Class Descriptor at (0,-1,0,64)'
PUBLIC	??_R4CTextVertPosition@@6B@			; CTextVertPosition::`RTTI Complete Object Locator'
PUBLIC	??_R0?AVCTextVertPosition@@@8			; CTextVertPosition `RTTI Type Descriptor'
PUBLIC	??_R3CTextVertPosition@@8			; CTextVertPosition::`RTTI Class Hierarchy Descriptor'
PUBLIC	??_R2CTextVertPosition@@8			; CTextVertPosition::`RTTI Base Class Array'
PUBLIC	??_R1A@?0A@EA@CTextVertPosition@@8		; CTextVertPosition::`RTTI Base Class Descriptor at (0,-1,0,64)'
PUBLIC	??_R4CTextHorzVertPosition@@6B@			; CTextHorzVertPosition::`RTTI Complete Object Locator'
PUBLIC	??_R0?AVCTextHorzVertPosition@@@8		; CTextHorzVertPosition `RTTI Type Descriptor'
PUBLIC	??_R3CTextHorzVertPosition@@8			; CTextHorzVertPosition::`RTTI Class Hierarchy Descriptor'
PUBLIC	??_R2CTextHorzVertPosition@@8			; CTextHorzVertPosition::`RTTI Base Class Array'
PUBLIC	??_R1A@?0A@EA@CTextHorzVertPosition@@8		; CTextHorzVertPosition::`RTTI Base Class Descriptor at (0,-1,0,64)'
PUBLIC	__real@3ff0000000000000
EXTRN	__purecall:PROC
EXTRN	__imp__CreatePen@12:PROC
EXTRN	__imp_?Concatenate@?$CSimpleStringT@D$00@ATL@@KAXAAV12@PBDH1H@Z:PROC
EXTRN	__imp_??0?$CStringT@DV?$StrTraitMFC_DLL@DV?$ChTraitsCRT@D@ATL@@@@@ATL@@QAE@XZ:PROC
EXTRN	__imp_??0?$CStringT@DV?$StrTraitMFC_DLL@DV?$ChTraitsCRT@D@ATL@@@@@ATL@@QAE@PAUIAtlStringMgr@1@@Z:PROC
EXTRN	__imp_??0?$CStringT@DV?$StrTraitMFC_DLL@DV?$ChTraitsCRT@D@ATL@@@@@ATL@@QAE@ABV01@@Z:PROC
EXTRN	__imp_??0?$CStringT@DV?$StrTraitMFC_DLL@DV?$ChTraitsCRT@D@ATL@@@@@ATL@@QAE@PBD@Z:PROC
EXTRN	__imp_??1?$CStringT@DV?$StrTraitMFC_DLL@DV?$ChTraitsCRT@D@ATL@@@@@ATL@@QAE@XZ:PROC
EXTRN	__imp_??4?$CStringT@DV?$StrTraitMFC_DLL@DV?$ChTraitsCRT@D@ATL@@@@@ATL@@QAEAAV01@ABV01@@Z:PROC
EXTRN	__imp_??4?$CStringT@DV?$StrTraitMFC_DLL@DV?$ChTraitsCRT@D@ATL@@@@@ATL@@QAEAAV01@PBD@Z:PROC
EXTRN	__imp_??Y?$CStringT@DV?$StrTraitMFC_DLL@DV?$ChTraitsCRT@D@ATL@@@@@ATL@@QAEAAV01@ABV?$CSimpleStringT@D$00@1@@Z:PROC
EXTRN	__imp_??Y?$CStringT@DV?$StrTraitMFC_DLL@DV?$ChTraitsCRT@D@ATL@@@@@ATL@@QAEAAV01@PBD@Z:PROC
EXTRN	__imp_?GetManager@?$CStringT@DV?$StrTraitMFC_DLL@DV?$ChTraitsCRT@D@ATL@@@@@ATL@@QBEPAUIAtlStringMgr@2@XZ:PROC
EXTRN	__imp_?Find@?$CStringT@DV?$StrTraitMFC_DLL@DV?$ChTraitsCRT@D@ATL@@@@@ATL@@QBEHPBDH@Z:PROC
EXTRN	__imp_?Format@?$CStringT@DV?$StrTraitMFC_DLL@DV?$ChTraitsCRT@D@ATL@@@@@ATL@@QAAXPBDZZ:PROC
EXTRN	?Attach@CGdiObject@@QAEHPAX@Z:PROC		; CGdiObject::Attach
EXTRN	?RGB2Str@CDataConversion@@SA?AV?$CStringT@DV?$StrTraitMFC_DLL@DV?$ChTraitsCRT@D@ATL@@@@@ATL@@K@Z:PROC ; CDataConversion::RGB2Str
EXTRN	?IntToString@CDataConversion@@SA?AV?$CStringT@DV?$StrTraitMFC_DLL@DV?$ChTraitsCRT@D@ATL@@@@@ATL@@H@Z:PROC ; CDataConversion::IntToString
EXTRN	?DoubleToString@CDataConversion@@SA?AV?$CStringT@DV?$StrTraitMFC_DLL@DV?$ChTraitsCRT@D@ATL@@@@@ATL@@ABN@Z:PROC ; CDataConversion::DoubleToString
EXTRN	@__security_check_cookie@4:PROC
EXTRN	___CxxFrameHandler3:PROC
EXTRN	??_7type_info@@6B@:QWORD			; type_info::`vftable'
EXTRN	___security_cookie:DWORD
EXTRN	__fltused:DWORD
;	COMDAT __real@3ff0000000000000
CONST	SEGMENT
__real@3ff0000000000000 DQ 03ff0000000000000r	; 1
CONST	ENDS
;	COMDAT ??_R1A@?0A@EA@CTextHorzVertPosition@@8
rdata$r	SEGMENT
??_R1A@?0A@EA@CTextHorzVertPosition@@8 DD FLAT:??_R0?AVCTextHorzVertPosition@@@8 ; CTextHorzVertPosition::`RTTI Base Class Descriptor at (0,-1,0,64)'
	DD	01H
	DD	00H
	DD	0ffffffffH
	DD	00H
	DD	040H
	DD	FLAT:??_R3CTextHorzVertPosition@@8
rdata$r	ENDS
;	COMDAT ??_R2CTextHorzVertPosition@@8
rdata$r	SEGMENT
??_R2CTextHorzVertPosition@@8 DD FLAT:??_R1A@?0A@EA@CTextHorzVertPosition@@8 ; CTextHorzVertPosition::`RTTI Base Class Array'
	DD	FLAT:??_R1A@?0A@EA@CTextPosition@@8
rdata$r	ENDS
;	COMDAT ??_R3CTextHorzVertPosition@@8
rdata$r	SEGMENT
??_R3CTextHorzVertPosition@@8 DD 00H			; CTextHorzVertPosition::`RTTI Class Hierarchy Descriptor'
	DD	00H
	DD	02H
	DD	FLAT:??_R2CTextHorzVertPosition@@8
rdata$r	ENDS
;	COMDAT ??_R0?AVCTextHorzVertPosition@@@8
data$rs	SEGMENT
??_R0?AVCTextHorzVertPosition@@@8 DD FLAT:??_7type_info@@6B@ ; CTextHorzVertPosition `RTTI Type Descriptor'
	DD	00H
	DB	'.?AVCTextHorzVertPosition@@', 00H
data$rs	ENDS
;	COMDAT ??_R4CTextHorzVertPosition@@6B@
rdata$r	SEGMENT
??_R4CTextHorzVertPosition@@6B@ DD 00H			; CTextHorzVertPosition::`RTTI Complete Object Locator'
	DD	00H
	DD	00H
	DD	FLAT:??_R0?AVCTextHorzVertPosition@@@8
	DD	FLAT:??_R3CTextHorzVertPosition@@8
rdata$r	ENDS
;	COMDAT ??_R1A@?0A@EA@CTextVertPosition@@8
rdata$r	SEGMENT
??_R1A@?0A@EA@CTextVertPosition@@8 DD FLAT:??_R0?AVCTextVertPosition@@@8 ; CTextVertPosition::`RTTI Base Class Descriptor at (0,-1,0,64)'
	DD	01H
	DD	00H
	DD	0ffffffffH
	DD	00H
	DD	040H
	DD	FLAT:??_R3CTextVertPosition@@8
rdata$r	ENDS
;	COMDAT ??_R2CTextVertPosition@@8
rdata$r	SEGMENT
??_R2CTextVertPosition@@8 DD FLAT:??_R1A@?0A@EA@CTextVertPosition@@8 ; CTextVertPosition::`RTTI Base Class Array'
	DD	FLAT:??_R1A@?0A@EA@CTextPosition@@8
rdata$r	ENDS
;	COMDAT ??_R3CTextVertPosition@@8
rdata$r	SEGMENT
??_R3CTextVertPosition@@8 DD 00H			; CTextVertPosition::`RTTI Class Hierarchy Descriptor'
	DD	00H
	DD	02H
	DD	FLAT:??_R2CTextVertPosition@@8
rdata$r	ENDS
;	COMDAT ??_R0?AVCTextVertPosition@@@8
data$rs	SEGMENT
??_R0?AVCTextVertPosition@@@8 DD FLAT:??_7type_info@@6B@ ; CTextVertPosition `RTTI Type Descriptor'
	DD	00H
	DB	'.?AVCTextVertPosition@@', 00H
data$rs	ENDS
;	COMDAT ??_R4CTextVertPosition@@6B@
rdata$r	SEGMENT
??_R4CTextVertPosition@@6B@ DD 00H			; CTextVertPosition::`RTTI Complete Object Locator'
	DD	00H
	DD	00H
	DD	FLAT:??_R0?AVCTextVertPosition@@@8
	DD	FLAT:??_R3CTextVertPosition@@8
rdata$r	ENDS
;	COMDAT ??_R1A@?0A@EA@CTextHorzPosition@@8
rdata$r	SEGMENT
??_R1A@?0A@EA@CTextHorzPosition@@8 DD FLAT:??_R0?AVCTextHorzPosition@@@8 ; CTextHorzPosition::`RTTI Base Class Descriptor at (0,-1,0,64)'
	DD	01H
	DD	00H
	DD	0ffffffffH
	DD	00H
	DD	040H
	DD	FLAT:??_R3CTextHorzPosition@@8
rdata$r	ENDS
;	COMDAT ??_R2CTextHorzPosition@@8
rdata$r	SEGMENT
??_R2CTextHorzPosition@@8 DD FLAT:??_R1A@?0A@EA@CTextHorzPosition@@8 ; CTextHorzPosition::`RTTI Base Class Array'
	DD	FLAT:??_R1A@?0A@EA@CTextPosition@@8
rdata$r	ENDS
;	COMDAT ??_R3CTextHorzPosition@@8
rdata$r	SEGMENT
??_R3CTextHorzPosition@@8 DD 00H			; CTextHorzPosition::`RTTI Class Hierarchy Descriptor'
	DD	00H
	DD	02H
	DD	FLAT:??_R2CTextHorzPosition@@8
rdata$r	ENDS
;	COMDAT ??_R0?AVCTextHorzPosition@@@8
data$rs	SEGMENT
??_R0?AVCTextHorzPosition@@@8 DD FLAT:??_7type_info@@6B@ ; CTextHorzPosition `RTTI Type Descriptor'
	DD	00H
	DB	'.?AVCTextHorzPosition@@', 00H
data$rs	ENDS
;	COMDAT ??_R4CTextHorzPosition@@6B@
rdata$r	SEGMENT
??_R4CTextHorzPosition@@6B@ DD 00H			; CTextHorzPosition::`RTTI Complete Object Locator'
	DD	00H
	DD	00H
	DD	FLAT:??_R0?AVCTextHorzPosition@@@8
	DD	FLAT:??_R3CTextHorzPosition@@8
rdata$r	ENDS
;	COMDAT ??_R1A@?0A@EA@CTextShowPosition@@8
rdata$r	SEGMENT
??_R1A@?0A@EA@CTextShowPosition@@8 DD FLAT:??_R0?AVCTextShowPosition@@@8 ; CTextShowPosition::`RTTI Base Class Descriptor at (0,-1,0,64)'
	DD	01H
	DD	00H
	DD	0ffffffffH
	DD	00H
	DD	040H
	DD	FLAT:??_R3CTextShowPosition@@8
rdata$r	ENDS
;	COMDAT ??_R2CTextShowPosition@@8
rdata$r	SEGMENT
??_R2CTextShowPosition@@8 DD FLAT:??_R1A@?0A@EA@CTextShowPosition@@8 ; CTextShowPosition::`RTTI Base Class Array'
	DD	FLAT:??_R1A@?0A@EA@CTextPosition@@8
rdata$r	ENDS
;	COMDAT ??_R3CTextShowPosition@@8
rdata$r	SEGMENT
??_R3CTextShowPosition@@8 DD 00H			; CTextShowPosition::`RTTI Class Hierarchy Descriptor'
	DD	00H
	DD	02H
	DD	FLAT:??_R2CTextShowPosition@@8
rdata$r	ENDS
;	COMDAT ??_R0?AVCTextShowPosition@@@8
data$rs	SEGMENT
??_R0?AVCTextShowPosition@@@8 DD FLAT:??_7type_info@@6B@ ; CTextShowPosition `RTTI Type Descriptor'
	DD	00H
	DB	'.?AVCTextShowPosition@@', 00H
data$rs	ENDS
;	COMDAT ??_R4CTextShowPosition@@6B@
rdata$r	SEGMENT
??_R4CTextShowPosition@@6B@ DD 00H			; CTextShowPosition::`RTTI Complete Object Locator'
	DD	00H
	DD	00H
	DD	FLAT:??_R0?AVCTextShowPosition@@@8
	DD	FLAT:??_R3CTextShowPosition@@8
rdata$r	ENDS
;	COMDAT ??_R1A@?0A@EA@CTextPosition@@8
rdata$r	SEGMENT
??_R1A@?0A@EA@CTextPosition@@8 DD FLAT:??_R0?AVCTextPosition@@@8 ; CTextPosition::`RTTI Base Class Descriptor at (0,-1,0,64)'
	DD	00H
	DD	00H
	DD	0ffffffffH
	DD	00H
	DD	040H
	DD	FLAT:??_R3CTextPosition@@8
rdata$r	ENDS
;	COMDAT ??_R2CTextPosition@@8
rdata$r	SEGMENT
??_R2CTextPosition@@8 DD FLAT:??_R1A@?0A@EA@CTextPosition@@8 ; CTextPosition::`RTTI Base Class Array'
rdata$r	ENDS
;	COMDAT ??_R3CTextPosition@@8
rdata$r	SEGMENT
??_R3CTextPosition@@8 DD 00H				; CTextPosition::`RTTI Class Hierarchy Descriptor'
	DD	00H
	DD	01H
	DD	FLAT:??_R2CTextPosition@@8
rdata$r	ENDS
;	COMDAT ??_R0?AVCTextPosition@@@8
data$rs	SEGMENT
??_R0?AVCTextPosition@@@8 DD FLAT:??_7type_info@@6B@	; CTextPosition `RTTI Type Descriptor'
	DD	00H
	DB	'.?AVCTextPosition@@', 00H
data$rs	ENDS
;	COMDAT ??_R4CTextPosition@@6B@
rdata$r	SEGMENT
??_R4CTextPosition@@6B@ DD 00H				; CTextPosition::`RTTI Complete Object Locator'
	DD	00H
	DD	00H
	DD	FLAT:??_R0?AVCTextPosition@@@8
	DD	FLAT:??_R3CTextPosition@@8
rdata$r	ENDS
;	COMDAT ??_C@_0O@LMJJOFLI@?$DM?2HorzVert?$DO?$AN?6@
CONST	SEGMENT
??_C@_0O@LMJJOFLI@?$DM?2HorzVert?$DO?$AN?6@ DB '<\HorzVert>', 0dH, 0aH, 00H ; `string'
CONST	ENDS
;	COMDAT ??_C@_0N@ONIGNFDK@?$DMHorzVert?$DO?$AN?6@
CONST	SEGMENT
??_C@_0N@ONIGNFDK@?$DMHorzVert?$DO?$AN?6@ DB '<HorzVert>', 0dH, 0aH, 00H ; `string'
CONST	ENDS
;	COMDAT ??_C@_06DDHCBBGN@Bottom@
CONST	SEGMENT
??_C@_06DDHCBBGN@Bottom@ DB 'Bottom', 00H		; `string'
CONST	ENDS
;	COMDAT ??_C@_03PGGAENPN@Top@
CONST	SEGMENT
??_C@_03PGGAENPN@Top@ DB 'Top', 00H			; `string'
CONST	ENDS
;	COMDAT ??_C@_08DDEPFPBK@?$DMVert?$DO?$AN?6@
CONST	SEGMENT
??_C@_08DDEPFPBK@?$DMVert?$DO?$AN?6@ DB '<Vert>', 0dH, 0aH, 00H ; `string'
CONST	ENDS
;	COMDAT ??_C@_0BI@GMNKDDJL@?$DMHorz?$DO?$AN?6?$CFs?$CFs?$CFs?$DM?2Horz?$DO?$AN?6@
CONST	SEGMENT
??_C@_0BI@GMNKDDJL@?$DMHorz?$DO?$AN?6?$CFs?$CFs?$CFs?$DM?2Horz?$DO?$AN?6@ DB '<'
	DB	'Horz>', 0dH, 0aH, '%s%s%s<\Horz>', 0dH, 0aH, 00H ; `string'
CONST	ENDS
;	COMDAT ??_C@_04KPCPLBPL@Left@
CONST	SEGMENT
??_C@_04KPCPLBPL@Left@ DB 'Left', 00H			; `string'
CONST	ENDS
;	COMDAT ??_C@_05DADPALEM@Right@
CONST	SEGMENT
??_C@_05DADPALEM@Right@ DB 'Right', 00H			; `string'
CONST	ENDS
;	COMDAT ??_C@_04LDOGFLEB@Rate@
CONST	SEGMENT
??_C@_04LDOGFLEB@Rate@ DB 'Rate', 00H			; `string'
CONST	ENDS
;	COMDAT ??_C@_0BE@CKCBMKAP@?$DMHorz?$DO?$AN?6?$CFs?$DM?2Horz?$DO?$AN?6@
CONST	SEGMENT
??_C@_0BE@CKCBMKAP@?$DMHorz?$DO?$AN?6?$CFs?$DM?2Horz?$DO?$AN?6@ DB '<Horz'
	DB	'>', 0dH, 0aH, '%s<\Horz>', 0dH, 0aH, 00H	; `string'
CONST	ENDS
;	COMDAT ??_C@_04JLAJABDJ@Show@
CONST	SEGMENT
??_C@_04JLAJABDJ@Show@ DB 'Show', 00H			; `string'
CONST	ENDS
;	COMDAT ??_C@_0CE@NIHIPAJG@?$DMTextPosition?$DO?$AN?6?$CFs?$DM?2TextPositio@
CONST	SEGMENT
??_C@_0CE@NIHIPAJG@?$DMTextPosition?$DO?$AN?6?$CFs?$DM?2TextPositio@ DB '<'
	DB	'TextPosition>', 0dH, 0aH, '%s<\TextPosition>', 0dH, 0aH, 00H ; `string'
CONST	ENDS
;	COMDAT ??_C@_0O@LNMCLPEF@?$DM?$CFs?$DO?$CFd?$DM?2?$CFs?$DO?$AN?6@
CONST	SEGMENT
??_C@_0O@LNMCLPEF@?$DM?$CFs?$DO?$CFd?$DM?2?$CFs?$DO?$AN?6@ DB '<%s>%d<\%s'
	DB	'>', 0dH, 0aH, 00H				; `string'
CONST	ENDS
;	COMDAT ??_C@_0CM@MGBIECEJ@?$DMPartEnvironment?$DO?$AN?6?$CFs?$CFs?$DM?2PartEn@
CONST	SEGMENT
??_C@_0CM@MGBIECEJ@?$DMPartEnvironment?$DO?$AN?6?$CFs?$CFs?$DM?2PartEn@ DB '<'
	DB	'PartEnvironment>', 0dH, 0aH, '%s%s<\PartEnvironment>', 0dH, 0aH
	DB	00H						; `string'
CONST	ENDS
;	COMDAT ??_C@_0CK@OGEBLLHG@?$DMTextEnvironment?$DO?$AN?6?$CFs?$DM?2TextEnvi@
CONST	SEGMENT
??_C@_0CK@OGEBLLHG@?$DMTextEnvironment?$DO?$AN?6?$CFs?$DM?2TextEnvi@ DB '<'
	DB	'TextEnvironment>', 0dH, 0aH, '%s<\TextEnvironment>', 0dH, 0aH
	DB	00H						; `string'
CONST	ENDS
;	COMDAT ??_C@_09JKGHBJEA@?$DMLeftExt?$DO@
CONST	SEGMENT
??_C@_09JKGHBJEA@?$DMLeftExt?$DO@ DB '<LeftExt>', 00H	; `string'
CONST	ENDS
;	COMDAT ??_C@_0N@KHBFLOEK@?$DM?2LeftExt?$DO?$AN?6@
CONST	SEGMENT
??_C@_0N@KHBFLOEK@?$DM?2LeftExt?$DO?$AN?6@ DB '<\LeftExt>', 0dH, 0aH, 00H ; `string'
CONST	ENDS
;	COMDAT ??_C@_0L@CFEIJGAO@?$DMRightExt?$DO@
CONST	SEGMENT
??_C@_0L@CFEIJGAO@?$DMRightExt?$DO@ DB '<RightExt>', 00H ; `string'
CONST	ENDS
;	COMDAT ??_C@_0O@CEMHHFOM@?$DM?2RightExt?$DO?$AN?6@
CONST	SEGMENT
??_C@_0O@CEMHHFOM@?$DM?2RightExt?$DO?$AN?6@ DB '<\RightExt>', 0dH, 0aH, 00H ; `string'
CONST	ENDS
;	COMDAT ??_C@_0BK@FDALAKDP@?$DMLineExt?$DO?$AN?6?$CFs?$DM?2LineExt?$DO?$AN?6@
CONST	SEGMENT
??_C@_0BK@FDALAKDP@?$DMLineExt?$DO?$AN?6?$CFs?$DM?2LineExt?$DO?$AN?6@ DB '<'
	DB	'LineExt>', 0dH, 0aH, '%s<\LineExt>', 0dH, 0aH, 00H ; `string'
CONST	ENDS
;	COMDAT ??_C@_0CE@KBAOJFJE@?$DMPriceRangeDiv?$DO?$CFd?$DM?2PriceRangeDi@
CONST	SEGMENT
??_C@_0CE@KBAOJFJE@?$DMPriceRangeDiv?$DO?$CFd?$DM?2PriceRangeDi@ DB '<Pri'
	DB	'ceRangeDiv>%d<\PriceRangeDiv>', 0dH, 0aH, 00H ; `string'
CONST	ENDS
;	COMDAT ??_C@_0BI@JFOMILGF@?$DMEquiDiv?$DO?$CFd?$DM?2EquiDiv?$DO?$AN?6@
CONST	SEGMENT
??_C@_0BI@JFOMILGF@?$DMEquiDiv?$DO?$CFd?$DM?2EquiDiv?$DO?$AN?6@ DB '<Equi'
	DB	'Div>%d<\EquiDiv>', 0dH, 0aH, 00H		; `string'
CONST	ENDS
;	COMDAT ??_C@_0BM@ELHGNBJI@?$DMAutoPirce?$DO?$CFd?$DM?2AutoPirce?$DO?$AN?6@
CONST	SEGMENT
??_C@_0BM@ELHGNBJI@?$DMAutoPirce?$DO?$CFd?$DM?2AutoPirce?$DO?$AN?6@ DB '<'
	DB	'AutoPirce>%d<\AutoPirce>', 0dH, 0aH, 00H	; `string'
CONST	ENDS
;	COMDAT ??_C@_0DI@GHGECPII@?$DMCommonEnvironment?$DO?$AN?6?$CFs?$CFs?$CFs?$CFs?$CFs@
CONST	SEGMENT
??_C@_0DI@GHGECPII@?$DMCommonEnvironment?$DO?$AN?6?$CFs?$CFs?$CFs?$CFs?$CFs@ DB '<'
	DB	'CommonEnvironment>', 0dH, 0aH, '%s%s%s%s%s%s<\CommonEnvironme'
	DB	'nt>', 0dH, 0aH, 00H				; `string'
CONST	ENDS
;	COMDAT ??_C@_09COIGHGNF@?$DMStrVert?$DO@
CONST	SEGMENT
??_C@_09COIGHGNF@?$DMStrVert?$DO@ DB '<StrVert>', 00H	; `string'
CONST	ENDS
;	COMDAT ??_C@_0N@HGCOAIDN@?$DM?2StrVert?$DO?$AN?6@
CONST	SEGMENT
??_C@_0N@HGCOAIDN@?$DM?2StrVert?$DO?$AN?6@ DB '<\StrVert>', 0dH, 0aH, 00H ; `string'
CONST	ENDS
;	COMDAT ??_C@_09EBDLFGEM@?$DMExtData?$DO@
CONST	SEGMENT
??_C@_09EBDLFGEM@?$DMExtData?$DO@ DB '<ExtData>', 00H	; `string'
CONST	ENDS
;	COMDAT ??_C@_0N@ONMDHGBL@?$DM?2ExtData?$DO?$AN?6@
CONST	SEGMENT
??_C@_0N@ONMDHGBL@?$DM?2ExtData?$DO?$AN?6@ DB '<\ExtData>', 0dH, 0aH, 00H ; `string'
CONST	ENDS
;	COMDAT ??_C@_06CMKMBJNG@?$DMHorz?$DO@
CONST	SEGMENT
??_C@_06CMKMBJNG@?$DMHorz?$DO@ DB '<Horz>', 00H		; `string'
CONST	ENDS
;	COMDAT ??_C@_09GKBBACOG@?$DM?2Horz?$DO?$AN?6@
CONST	SEGMENT
??_C@_09GKBBACOG@?$DM?2Horz?$DO?$AN?6@ DB '<\Horz>', 0dH, 0aH, 00H ; `string'
CONST	ENDS
;	COMDAT ??_C@_06FFFOEPJG@?$DMVert?$DO@
CONST	SEGMENT
??_C@_06FFFOEPJG@?$DMVert?$DO@ DB '<Vert>', 00H		; `string'
CONST	ENDS
;	COMDAT ??_C@_09BIGAMANA@?$DM?2Vert?$DO?$AN?6@
CONST	SEGMENT
??_C@_09BIGAMANA@?$DM?2Vert?$DO?$AN?6@ DB '<\Vert>', 0dH, 0aH, 00H ; `string'
CONST	ENDS
;	COMDAT ??_C@_0N@CAIHOMCE@?$DMCoordinate?$DO@
CONST	SEGMENT
??_C@_0N@CAIHOMCE@?$DMCoordinate?$DO@ DB '<Coordinate>', 00H ; `string'
CONST	ENDS
;	COMDAT ??_C@_0BA@IFAPIPNB@?$DM?2Coordinate?$DO?$AN?6@
CONST	SEGMENT
??_C@_0BA@IFAPIPNB@?$DM?2Coordinate?$DO?$AN?6@ DB '<\Coordinate>', 0dH, 0aH
	DB	00H						; `string'
CONST	ENDS
;	COMDAT ??_C@_0CE@NMDKCJFM@?$DMDataType?$DO?$AN?6?$CFs?$CFs?$CFs?$CFs?$CFs?$DM?2DataTyp@
CONST	SEGMENT
??_C@_0CE@NMDKCJFM@?$DMDataType?$DO?$AN?6?$CFs?$CFs?$CFs?$CFs?$CFs?$DM?2DataTyp@ DB '<'
	DB	'DataType>', 0dH, 0aH, '%s%s%s%s%s<\DataType>', 0dH, 0aH, 00H ; `string'
CONST	ENDS
;	COMDAT ??_C@_0N@GLGCPBKI@?$DMDataType?$DO?$AN?6@
CONST	SEGMENT
??_C@_0N@GLGCPBKI@?$DMDataType?$DO?$AN?6@ DB '<DataType>', 0dH, 0aH, 00H ; `string'
CONST	ENDS
;	COMDAT ??_C@_01JLIPDDHJ@?3@
CONST	SEGMENT
??_C@_01JLIPDDHJ@?3@ DB ':', 00H			; `string'
CONST	ENDS
;	COMDAT ??_C@_01KMDKNFGN@?1@
CONST	SEGMENT
??_C@_01KMDKNFGN@?1@ DB '/', 00H			; `string'
CONST	ENDS
;	COMDAT ??_C@_01HIHLOKLC@1@
CONST	SEGMENT
??_C@_01HIHLOKLC@1@ DB '1', 00H				; `string'
CONST	ENDS
;	COMDAT ??_C@_07EANKACOK@?$DMStyle?$DO@
CONST	SEGMENT
??_C@_07EANKACOK@?$DMStyle?$DO@ DB '<Style>', 00H	; `string'
CONST	ENDS
;	COMDAT ??_C@_0L@MDDCEFHI@?$DM?2Style?$DO?$AN?6@
CONST	SEGMENT
??_C@_0L@MDDCEFHI@?$DM?2Style?$DO?$AN?6@ DB '<\Style>', 0dH, 0aH, 00H ; `string'
CONST	ENDS
;	COMDAT ??_C@_07ONIIIKM@?$DMWidth?$DO@
CONST	SEGMENT
??_C@_07ONIIIKM@?$DMWidth?$DO@ DB '<Width>', 00H	; `string'
CONST	ENDS
;	COMDAT ??_C@_0L@GIHMIJMH@?$DM?2Width?$DO?$AN?6@
CONST	SEGMENT
??_C@_0L@GIHMIJMH@?$DM?2Width?$DO?$AN?6@ DB '<\Width>', 0dH, 0aH, 00H ; `string'
CONST	ENDS
;	COMDAT ??_C@_07ONMJGOJF@?$DMColor?$DO@
CONST	SEGMENT
??_C@_07ONMJGOJF@?$DMColor?$DO@ DB '<Color>', 00H	; `string'
CONST	ENDS
;	COMDAT ??_C@_0L@CPJBKACB@?$DM?2Color?$DO?$AN?6@
CONST	SEGMENT
??_C@_0L@CPJBKACB@?$DM?2Color?$DO?$AN?6@ DB '<\Color>', 0dH, 0aH, 00H ; `string'
CONST	ENDS
;	COMDAT ??_C@_0BG@BEDOAAKG@?$DMPen?$DO?$AN?6?$CFs?$CFs?$CFs?$DM?2Pen?$DO?$AN?6@
CONST	SEGMENT
??_C@_0BG@BEDOAAKG@?$DMPen?$DO?$AN?6?$CFs?$CFs?$CFs?$DM?2Pen?$DO?$AN?6@ DB '<'
	DB	'Pen>', 0dH, 0aH, '%s%s%s<\Pen>', 0dH, 0aH, 00H ; `string'
CONST	ENDS
;	COMDAT ??_7CTextHorzVertPosition@@6B@
CONST	SEGMENT
??_7CTextHorzVertPosition@@6B@ DD FLAT:??_R4CTextHorzVertPosition@@6B@ ; CTextHorzVertPosition::`vftable'
	DD	FLAT:?Set@CTextHorzVertPosition@@UAEXPBVCTextPosition@@@Z
	DD	FLAT:?GetSavedRealTextPositionData@CTextHorzVertPosition@@MBE?AV?$CStringT@DV?$StrTraitMFC_DLL@DV?$ChTraitsCRT@D@ATL@@@@@ATL@@XZ
CONST	ENDS
;	COMDAT ??_7CTextVertPosition@@6B@
CONST	SEGMENT
??_7CTextVertPosition@@6B@ DD FLAT:??_R4CTextVertPosition@@6B@ ; CTextVertPosition::`vftable'
	DD	FLAT:?Set@CTextVertPosition@@UAEXPBVCTextPosition@@@Z
	DD	FLAT:?GetSavedRealTextPositionData@CTextVertPosition@@MBE?AV?$CStringT@DV?$StrTraitMFC_DLL@DV?$ChTraitsCRT@D@ATL@@@@@ATL@@XZ
CONST	ENDS
;	COMDAT ??_7CTextHorzPosition@@6B@
CONST	SEGMENT
??_7CTextHorzPosition@@6B@ DD FLAT:??_R4CTextHorzPosition@@6B@ ; CTextHorzPosition::`vftable'
	DD	FLAT:?Set@CTextHorzPosition@@UAEXPBVCTextPosition@@@Z
	DD	FLAT:?GetSavedRealTextPositionData@CTextHorzPosition@@MBE?AV?$CStringT@DV?$StrTraitMFC_DLL@DV?$ChTraitsCRT@D@ATL@@@@@ATL@@XZ
CONST	ENDS
;	COMDAT ??_7CTextShowPosition@@6B@
CONST	SEGMENT
??_7CTextShowPosition@@6B@ DD FLAT:??_R4CTextShowPosition@@6B@ ; CTextShowPosition::`vftable'
	DD	FLAT:?Set@CTextShowPosition@@UAEXPBVCTextPosition@@@Z
	DD	FLAT:?GetSavedRealTextPositionData@CTextShowPosition@@MBE?AV?$CStringT@DV?$StrTraitMFC_DLL@DV?$ChTraitsCRT@D@ATL@@@@@ATL@@XZ
CONST	ENDS
;	COMDAT ??_7CTextPosition@@6B@
CONST	SEGMENT
??_7CTextPosition@@6B@ DD FLAT:??_R4CTextPosition@@6B@	; CTextPosition::`vftable'
	DD	FLAT:?Set@CTextPosition@@UAEXPBV1@@Z
	DD	FLAT:__purecall
CONST	ENDS
;	COMDAT ??_C@_00CNPNBAHC@@
CONST	SEGMENT
??_C@_00CNPNBAHC@@ DB 00H				; `string'
CONST	ENDS
;	COMDAT xdata$x
xdata$x	SEGMENT
__ehfuncinfo$?GetSavedRealTextPositionData@CTextHorzVertPosition@@MBE?AV?$CStringT@DV?$StrTraitMFC_DLL@DV?$ChTraitsCRT@D@ATL@@@@@ATL@@XZ DD 019930522H
	DD	09H
	DD	FLAT:__unwindtable$?GetSavedRealTextPositionData@CTextHorzVertPosition@@MBE?AV?$CStringT@DV?$StrTraitMFC_DLL@DV?$ChTraitsCRT@D@ATL@@@@@ATL@@XZ
	DD	2 DUP(00H)
	DD	2 DUP(00H)
	DD	00H
	DD	01H
__unwindtable$?GetSavedRealTextPositionData@CTextHorzVertPosition@@MBE?AV?$CStringT@DV?$StrTraitMFC_DLL@DV?$ChTraitsCRT@D@ATL@@@@@ATL@@XZ DD 0ffffffffH
	DD	FLAT:__unwindfunclet$?GetSavedRealTextPositionData@CTextHorzVertPosition@@MBE?AV?$CStringT@DV?$StrTraitMFC_DLL@DV?$ChTraitsCRT@D@ATL@@@@@ATL@@XZ$0
	DD	00H
	DD	FLAT:__unwindfunclet$?GetSavedRealTextPositionData@CTextHorzVertPosition@@MBE?AV?$CStringT@DV?$StrTraitMFC_DLL@DV?$ChTraitsCRT@D@ATL@@@@@ATL@@XZ$1
	DD	01H
	DD	FLAT:__unwindfunclet$?GetSavedRealTextPositionData@CTextHorzVertPosition@@MBE?AV?$CStringT@DV?$StrTraitMFC_DLL@DV?$ChTraitsCRT@D@ATL@@@@@ATL@@XZ$9
	DD	00H
	DD	FLAT:__unwindfunclet$?GetSavedRealTextPositionData@CTextHorzVertPosition@@MBE?AV?$CStringT@DV?$StrTraitMFC_DLL@DV?$ChTraitsCRT@D@ATL@@@@@ATL@@XZ$3
	DD	03H
	DD	FLAT:__unwindfunclet$?GetSavedRealTextPositionData@CTextHorzVertPosition@@MBE?AV?$CStringT@DV?$StrTraitMFC_DLL@DV?$ChTraitsCRT@D@ATL@@@@@ATL@@XZ$10
	DD	00H
	DD	FLAT:__unwindfunclet$?GetSavedRealTextPositionData@CTextHorzVertPosition@@MBE?AV?$CStringT@DV?$StrTraitMFC_DLL@DV?$ChTraitsCRT@D@ATL@@@@@ATL@@XZ$5
	DD	05H
	DD	FLAT:__unwindfunclet$?GetSavedRealTextPositionData@CTextHorzVertPosition@@MBE?AV?$CStringT@DV?$StrTraitMFC_DLL@DV?$ChTraitsCRT@D@ATL@@@@@ATL@@XZ$11
	DD	00H
	DD	FLAT:__unwindfunclet$?GetSavedRealTextPositionData@CTextHorzVertPosition@@MBE?AV?$CStringT@DV?$StrTraitMFC_DLL@DV?$ChTraitsCRT@D@ATL@@@@@ATL@@XZ$7
	DD	07H
	DD	FLAT:__unwindfunclet$?GetSavedRealTextPositionData@CTextHorzVertPosition@@MBE?AV?$CStringT@DV?$StrTraitMFC_DLL@DV?$ChTraitsCRT@D@ATL@@@@@ATL@@XZ$12
xdata$x	ENDS
;	COMDAT xdata$x
xdata$x	SEGMENT
__ehfuncinfo$?GetSavedRealTextPositionData@CTextVertPosition@@MBE?AV?$CStringT@DV?$StrTraitMFC_DLL@DV?$ChTraitsCRT@D@ATL@@@@@ATL@@XZ DD 019930522H
	DD	05H
	DD	FLAT:__unwindtable$?GetSavedRealTextPositionData@CTextVertPosition@@MBE?AV?$CStringT@DV?$StrTraitMFC_DLL@DV?$ChTraitsCRT@D@ATL@@@@@ATL@@XZ
	DD	2 DUP(00H)
	DD	2 DUP(00H)
	DD	00H
	DD	01H
__unwindtable$?GetSavedRealTextPositionData@CTextVertPosition@@MBE?AV?$CStringT@DV?$StrTraitMFC_DLL@DV?$ChTraitsCRT@D@ATL@@@@@ATL@@XZ DD 0ffffffffH
	DD	FLAT:__unwindfunclet$?GetSavedRealTextPositionData@CTextVertPosition@@MBE?AV?$CStringT@DV?$StrTraitMFC_DLL@DV?$ChTraitsCRT@D@ATL@@@@@ATL@@XZ$0
	DD	00H
	DD	FLAT:__unwindfunclet$?GetSavedRealTextPositionData@CTextVertPosition@@MBE?AV?$CStringT@DV?$StrTraitMFC_DLL@DV?$ChTraitsCRT@D@ATL@@@@@ATL@@XZ$1
	DD	01H
	DD	FLAT:__unwindfunclet$?GetSavedRealTextPositionData@CTextVertPosition@@MBE?AV?$CStringT@DV?$StrTraitMFC_DLL@DV?$ChTraitsCRT@D@ATL@@@@@ATL@@XZ$5
	DD	00H
	DD	FLAT:__unwindfunclet$?GetSavedRealTextPositionData@CTextVertPosition@@MBE?AV?$CStringT@DV?$StrTraitMFC_DLL@DV?$ChTraitsCRT@D@ATL@@@@@ATL@@XZ$3
	DD	03H
	DD	FLAT:__unwindfunclet$?GetSavedRealTextPositionData@CTextVertPosition@@MBE?AV?$CStringT@DV?$StrTraitMFC_DLL@DV?$ChTraitsCRT@D@ATL@@@@@ATL@@XZ$6
xdata$x	ENDS
;	COMDAT xdata$x
xdata$x	SEGMENT
__ehfuncinfo$?GetSavedRealTextPositionData@CTextHorzPosition@@MBE?AV?$CStringT@DV?$StrTraitMFC_DLL@DV?$ChTraitsCRT@D@ATL@@@@@ATL@@XZ DD 019930522H
	DD	07H
	DD	FLAT:__unwindtable$?GetSavedRealTextPositionData@CTextHorzPosition@@MBE?AV?$CStringT@DV?$StrTraitMFC_DLL@DV?$ChTraitsCRT@D@ATL@@@@@ATL@@XZ
	DD	2 DUP(00H)
	DD	2 DUP(00H)
	DD	00H
	DD	01H
__unwindtable$?GetSavedRealTextPositionData@CTextHorzPosition@@MBE?AV?$CStringT@DV?$StrTraitMFC_DLL@DV?$ChTraitsCRT@D@ATL@@@@@ATL@@XZ DD 0ffffffffH
	DD	FLAT:__unwindfunclet$?GetSavedRealTextPositionData@CTextHorzPosition@@MBE?AV?$CStringT@DV?$StrTraitMFC_DLL@DV?$ChTraitsCRT@D@ATL@@@@@ATL@@XZ$0
	DD	00H
	DD	FLAT:__unwindfunclet$?GetSavedRealTextPositionData@CTextHorzPosition@@MBE?AV?$CStringT@DV?$StrTraitMFC_DLL@DV?$ChTraitsCRT@D@ATL@@@@@ATL@@XZ$1
	DD	01H
	DD	FLAT:__unwindfunclet$?GetSavedRealTextPositionData@CTextHorzPosition@@MBE?AV?$CStringT@DV?$StrTraitMFC_DLL@DV?$ChTraitsCRT@D@ATL@@@@@ATL@@XZ$2
	DD	02H
	DD	FLAT:__unwindfunclet$?GetSavedRealTextPositionData@CTextHorzPosition@@MBE?AV?$CStringT@DV?$StrTraitMFC_DLL@DV?$ChTraitsCRT@D@ATL@@@@@ATL@@XZ$3
	DD	03H
	DD	FLAT:__unwindfunclet$?GetSavedRealTextPositionData@CTextHorzPosition@@MBE?AV?$CStringT@DV?$StrTraitMFC_DLL@DV?$ChTraitsCRT@D@ATL@@@@@ATL@@XZ$7
	DD	04H
	DD	FLAT:__unwindfunclet$?GetSavedRealTextPositionData@CTextHorzPosition@@MBE?AV?$CStringT@DV?$StrTraitMFC_DLL@DV?$ChTraitsCRT@D@ATL@@@@@ATL@@XZ$8
	DD	05H
	DD	FLAT:__unwindfunclet$?GetSavedRealTextPositionData@CTextHorzPosition@@MBE?AV?$CStringT@DV?$StrTraitMFC_DLL@DV?$ChTraitsCRT@D@ATL@@@@@ATL@@XZ$9
xdata$x	ENDS
;	COMDAT xdata$x
xdata$x	SEGMENT
__unwindtable$?GetSavedRealTextPositionData@CTextShowPosition@@MBE?AV?$CStringT@DV?$StrTraitMFC_DLL@DV?$ChTraitsCRT@D@ATL@@@@@ATL@@XZ DD 0ffffffffH
	DD	FLAT:__unwindfunclet$?GetSavedRealTextPositionData@CTextShowPosition@@MBE?AV?$CStringT@DV?$StrTraitMFC_DLL@DV?$ChTraitsCRT@D@ATL@@@@@ATL@@XZ$0
	DD	00H
	DD	FLAT:__unwindfunclet$?GetSavedRealTextPositionData@CTextShowPosition@@MBE?AV?$CStringT@DV?$StrTraitMFC_DLL@DV?$ChTraitsCRT@D@ATL@@@@@ATL@@XZ$1
	DD	01H
	DD	FLAT:__unwindfunclet$?GetSavedRealTextPositionData@CTextShowPosition@@MBE?AV?$CStringT@DV?$StrTraitMFC_DLL@DV?$ChTraitsCRT@D@ATL@@@@@ATL@@XZ$3
__ehfuncinfo$?GetSavedRealTextPositionData@CTextShowPosition@@MBE?AV?$CStringT@DV?$StrTraitMFC_DLL@DV?$ChTraitsCRT@D@ATL@@@@@ATL@@XZ DD 019930522H
	DD	03H
	DD	FLAT:__unwindtable$?GetSavedRealTextPositionData@CTextShowPosition@@MBE?AV?$CStringT@DV?$StrTraitMFC_DLL@DV?$ChTraitsCRT@D@ATL@@@@@ATL@@XZ
	DD	2 DUP(00H)
	DD	2 DUP(00H)
	DD	00H
	DD	01H
xdata$x	ENDS
;	COMDAT xdata$x
xdata$x	SEGMENT
__unwindtable$?GetSavedData_TextPosition@CTextPosition@@ABE?AV?$CStringT@DV?$StrTraitMFC_DLL@DV?$ChTraitsCRT@D@ATL@@@@@ATL@@XZ DD 0ffffffffH
	DD	FLAT:__unwindfunclet$?GetSavedData_TextPosition@CTextPosition@@ABE?AV?$CStringT@DV?$StrTraitMFC_DLL@DV?$ChTraitsCRT@D@ATL@@@@@ATL@@XZ$0
	DD	00H
	DD	FLAT:__unwindfunclet$?GetSavedData_TextPosition@CTextPosition@@ABE?AV?$CStringT@DV?$StrTraitMFC_DLL@DV?$ChTraitsCRT@D@ATL@@@@@ATL@@XZ$1
__ehfuncinfo$?GetSavedData_TextPosition@CTextPosition@@ABE?AV?$CStringT@DV?$StrTraitMFC_DLL@DV?$ChTraitsCRT@D@ATL@@@@@ATL@@XZ DD 019930522H
	DD	02H
	DD	FLAT:__unwindtable$?GetSavedData_TextPosition@CTextPosition@@ABE?AV?$CStringT@DV?$StrTraitMFC_DLL@DV?$ChTraitsCRT@D@ATL@@@@@ATL@@XZ
	DD	2 DUP(00H)
	DD	2 DUP(00H)
	DD	00H
	DD	01H
xdata$x	ENDS
;	COMDAT xdata$x
xdata$x	SEGMENT
__unwindtable$?GetDataOfOneLine@CTextPosition@@IBE?AV?$CStringT@DV?$StrTraitMFC_DLL@DV?$ChTraitsCRT@D@ATL@@@@@ATL@@_NABV23@@Z DD 0ffffffffH
	DD	FLAT:__unwindfunclet$?GetDataOfOneLine@CTextPosition@@IBE?AV?$CStringT@DV?$StrTraitMFC_DLL@DV?$ChTraitsCRT@D@ATL@@@@@ATL@@_NABV23@@Z$0
__ehfuncinfo$?GetDataOfOneLine@CTextPosition@@IBE?AV?$CStringT@DV?$StrTraitMFC_DLL@DV?$ChTraitsCRT@D@ATL@@@@@ATL@@_NABV23@@Z DD 019930522H
	DD	01H
	DD	FLAT:__unwindtable$?GetDataOfOneLine@CTextPosition@@IBE?AV?$CStringT@DV?$StrTraitMFC_DLL@DV?$ChTraitsCRT@D@ATL@@@@@ATL@@_NABV23@@Z
	DD	2 DUP(00H)
	DD	2 DUP(00H)
	DD	00H
	DD	01H
xdata$x	ENDS
;	COMDAT xdata$x
xdata$x	SEGMENT
__ehfuncinfo$?GetSavedData@CTextPosition@@QBE?AV?$CStringT@DV?$StrTraitMFC_DLL@DV?$ChTraitsCRT@D@ATL@@@@@ATL@@XZ DD 019930522H
	DD	08H
	DD	FLAT:__unwindtable$?GetSavedData@CTextPosition@@QBE?AV?$CStringT@DV?$StrTraitMFC_DLL@DV?$ChTraitsCRT@D@ATL@@@@@ATL@@XZ
	DD	2 DUP(00H)
	DD	2 DUP(00H)
	DD	00H
	DD	01H
__unwindtable$?GetSavedData@CTextPosition@@QBE?AV?$CStringT@DV?$StrTraitMFC_DLL@DV?$ChTraitsCRT@D@ATL@@@@@ATL@@XZ DD 0ffffffffH
	DD	FLAT:__unwindfunclet$?GetSavedData@CTextPosition@@QBE?AV?$CStringT@DV?$StrTraitMFC_DLL@DV?$ChTraitsCRT@D@ATL@@@@@ATL@@XZ$0
	DD	00H
	DD	FLAT:__unwindfunclet$?GetSavedData@CTextPosition@@QBE?AV?$CStringT@DV?$StrTraitMFC_DLL@DV?$ChTraitsCRT@D@ATL@@@@@ATL@@XZ$3
	DD	01H
	DD	FLAT:__unwindfunclet$?GetSavedData@CTextPosition@@QBE?AV?$CStringT@DV?$StrTraitMFC_DLL@DV?$ChTraitsCRT@D@ATL@@@@@ATL@@XZ$4
	DD	01H
	DD	FLAT:__unwindfunclet$?GetSavedData@CTextPosition@@QBE?AV?$CStringT@DV?$StrTraitMFC_DLL@DV?$ChTraitsCRT@D@ATL@@@@@ATL@@XZ$5
	DD	03H
	DD	FLAT:__unwindfunclet$?GetSavedData@CTextPosition@@QBE?AV?$CStringT@DV?$StrTraitMFC_DLL@DV?$ChTraitsCRT@D@ATL@@@@@ATL@@XZ$7
	DD	04H
	DD	FLAT:__unwindfunclet$?GetSavedData@CTextPosition@@QBE?AV?$CStringT@DV?$StrTraitMFC_DLL@DV?$ChTraitsCRT@D@ATL@@@@@ATL@@XZ$8
	DD	05H
	DD	FLAT:__unwindfunclet$?GetSavedData@CTextPosition@@QBE?AV?$CStringT@DV?$StrTraitMFC_DLL@DV?$ChTraitsCRT@D@ATL@@@@@ATL@@XZ$11
	DD	03H
	DD	FLAT:__unwindfunclet$?GetSavedData@CTextPosition@@QBE?AV?$CStringT@DV?$StrTraitMFC_DLL@DV?$ChTraitsCRT@D@ATL@@@@@ATL@@XZ$6
xdata$x	ENDS
;	COMDAT xdata$x
xdata$x	SEGMENT
__unwindtable$?GetSavedColor@CTextEnvironment@@ABE?AV?$CStringT@DV?$StrTraitMFC_DLL@DV?$ChTraitsCRT@D@ATL@@@@@ATL@@XZ DD 0ffffffffH
	DD	FLAT:__unwindfunclet$?GetSavedColor@CTextEnvironment@@ABE?AV?$CStringT@DV?$StrTraitMFC_DLL@DV?$ChTraitsCRT@D@ATL@@@@@ATL@@XZ$0
	DD	00H
	DD	FLAT:__unwindfunclet$?GetSavedColor@CTextEnvironment@@ABE?AV?$CStringT@DV?$StrTraitMFC_DLL@DV?$ChTraitsCRT@D@ATL@@@@@ATL@@XZ$1
	DD	01H
	DD	FLAT:__unwindfunclet$?GetSavedColor@CTextEnvironment@@ABE?AV?$CStringT@DV?$StrTraitMFC_DLL@DV?$ChTraitsCRT@D@ATL@@@@@ATL@@XZ$4
__ehfuncinfo$?GetSavedColor@CTextEnvironment@@ABE?AV?$CStringT@DV?$StrTraitMFC_DLL@DV?$ChTraitsCRT@D@ATL@@@@@ATL@@XZ DD 019930522H
	DD	03H
	DD	FLAT:__unwindtable$?GetSavedColor@CTextEnvironment@@ABE?AV?$CStringT@DV?$StrTraitMFC_DLL@DV?$ChTraitsCRT@D@ATL@@@@@ATL@@XZ
	DD	2 DUP(00H)
	DD	2 DUP(00H)
	DD	00H
	DD	01H
xdata$x	ENDS
;	COMDAT xdata$x
xdata$x	SEGMENT
__ehfuncinfo$?GetSavedData@CTextEnvironment@@QBE?AV?$CStringT@DV?$StrTraitMFC_DLL@DV?$ChTraitsCRT@D@ATL@@@@@ATL@@XZ DD 019930522H
	DD	05H
	DD	FLAT:__unwindtable$?GetSavedData@CTextEnvironment@@QBE?AV?$CStringT@DV?$StrTraitMFC_DLL@DV?$ChTraitsCRT@D@ATL@@@@@ATL@@XZ
	DD	2 DUP(00H)
	DD	2 DUP(00H)
	DD	00H
	DD	01H
__unwindtable$?GetSavedData@CTextEnvironment@@QBE?AV?$CStringT@DV?$StrTraitMFC_DLL@DV?$ChTraitsCRT@D@ATL@@@@@ATL@@XZ DD 0ffffffffH
	DD	FLAT:__unwindfunclet$?GetSavedData@CTextEnvironment@@QBE?AV?$CStringT@DV?$StrTraitMFC_DLL@DV?$ChTraitsCRT@D@ATL@@@@@ATL@@XZ$0
	DD	00H
	DD	FLAT:__unwindfunclet$?GetSavedData@CTextEnvironment@@QBE?AV?$CStringT@DV?$StrTraitMFC_DLL@DV?$ChTraitsCRT@D@ATL@@@@@ATL@@XZ$2
	DD	01H
	DD	FLAT:__unwindfunclet$?GetSavedData@CTextEnvironment@@QBE?AV?$CStringT@DV?$StrTraitMFC_DLL@DV?$ChTraitsCRT@D@ATL@@@@@ATL@@XZ$3
	DD	02H
	DD	FLAT:__unwindfunclet$?GetSavedData@CTextEnvironment@@QBE?AV?$CStringT@DV?$StrTraitMFC_DLL@DV?$ChTraitsCRT@D@ATL@@@@@ATL@@XZ$6
	DD	00H
	DD	FLAT:__unwindfunclet$?GetSavedData@CTextEnvironment@@QBE?AV?$CStringT@DV?$StrTraitMFC_DLL@DV?$ChTraitsCRT@D@ATL@@@@@ATL@@XZ$1
xdata$x	ENDS
;	COMDAT xdata$x
xdata$x	SEGMENT
__unwindtable$?GetSaveData_PriceRangeDiv@CElementCommonEnvironment@@ABE?AV?$CStringT@DV?$StrTraitMFC_DLL@DV?$ChTraitsCRT@D@ATL@@@@@ATL@@XZ DD 0ffffffffH
	DD	FLAT:__unwindfunclet$?GetSaveData_PriceRangeDiv@CElementCommonEnvironment@@ABE?AV?$CStringT@DV?$StrTraitMFC_DLL@DV?$ChTraitsCRT@D@ATL@@@@@ATL@@XZ$0
__ehfuncinfo$?GetSaveData_PriceRangeDiv@CElementCommonEnvironment@@ABE?AV?$CStringT@DV?$StrTraitMFC_DLL@DV?$ChTraitsCRT@D@ATL@@@@@ATL@@XZ DD 019930522H
	DD	01H
	DD	FLAT:__unwindtable$?GetSaveData_PriceRangeDiv@CElementCommonEnvironment@@ABE?AV?$CStringT@DV?$StrTraitMFC_DLL@DV?$ChTraitsCRT@D@ATL@@@@@ATL@@XZ
	DD	2 DUP(00H)
	DD	2 DUP(00H)
	DD	00H
	DD	01H
xdata$x	ENDS
;	COMDAT xdata$x
xdata$x	SEGMENT
__unwindtable$?GetSaveData_EquiDiv@CElementCommonEnvironment@@ABE?AV?$CStringT@DV?$StrTraitMFC_DLL@DV?$ChTraitsCRT@D@ATL@@@@@ATL@@XZ DD 0ffffffffH
	DD	FLAT:__unwindfunclet$?GetSaveData_EquiDiv@CElementCommonEnvironment@@ABE?AV?$CStringT@DV?$StrTraitMFC_DLL@DV?$ChTraitsCRT@D@ATL@@@@@ATL@@XZ$0
__ehfuncinfo$?GetSaveData_EquiDiv@CElementCommonEnvironment@@ABE?AV?$CStringT@DV?$StrTraitMFC_DLL@DV?$ChTraitsCRT@D@ATL@@@@@ATL@@XZ DD 019930522H
	DD	01H
	DD	FLAT:__unwindtable$?GetSaveData_EquiDiv@CElementCommonEnvironment@@ABE?AV?$CStringT@DV?$StrTraitMFC_DLL@DV?$ChTraitsCRT@D@ATL@@@@@ATL@@XZ
	DD	2 DUP(00H)
	DD	2 DUP(00H)
	DD	00H
	DD	01H
xdata$x	ENDS
;	COMDAT xdata$x
xdata$x	SEGMENT
__unwindtable$?GetSaveData_AutoPrice@CElementCommonEnvironment@@ABE?AV?$CStringT@DV?$StrTraitMFC_DLL@DV?$ChTraitsCRT@D@ATL@@@@@ATL@@XZ DD 0ffffffffH
	DD	FLAT:__unwindfunclet$?GetSaveData_AutoPrice@CElementCommonEnvironment@@ABE?AV?$CStringT@DV?$StrTraitMFC_DLL@DV?$ChTraitsCRT@D@ATL@@@@@ATL@@XZ$0
__ehfuncinfo$?GetSaveData_AutoPrice@CElementCommonEnvironment@@ABE?AV?$CStringT@DV?$StrTraitMFC_DLL@DV?$ChTraitsCRT@D@ATL@@@@@ATL@@XZ DD 019930522H
	DD	01H
	DD	FLAT:__unwindtable$?GetSaveData_AutoPrice@CElementCommonEnvironment@@ABE?AV?$CStringT@DV?$StrTraitMFC_DLL@DV?$ChTraitsCRT@D@ATL@@@@@ATL@@XZ
	DD	2 DUP(00H)
	DD	2 DUP(00H)
	DD	00H
	DD	01H
xdata$x	ENDS
;	COMDAT xdata$x
xdata$x	SEGMENT
__ehfuncinfo$?GetSavedData@CElementCommonEnvironment@@QBE?AV?$CStringT@DV?$StrTraitMFC_DLL@DV?$ChTraitsCRT@D@ATL@@@@@ATL@@XZ DD 019930522H
	DD	0fH
	DD	FLAT:__unwindtable$?GetSavedData@CElementCommonEnvironment@@QBE?AV?$CStringT@DV?$StrTraitMFC_DLL@DV?$ChTraitsCRT@D@ATL@@@@@ATL@@XZ
	DD	2 DUP(00H)
	DD	2 DUP(00H)
	DD	00H
	DD	01H
__unwindtable$?GetSavedData@CElementCommonEnvironment@@QBE?AV?$CStringT@DV?$StrTraitMFC_DLL@DV?$ChTraitsCRT@D@ATL@@@@@ATL@@XZ DD 0ffffffffH
	DD	FLAT:__unwindfunclet$?GetSavedData@CElementCommonEnvironment@@QBE?AV?$CStringT@DV?$StrTraitMFC_DLL@DV?$ChTraitsCRT@D@ATL@@@@@ATL@@XZ$0
	DD	00H
	DD	FLAT:__unwindfunclet$?GetSavedData@CElementCommonEnvironment@@QBE?AV?$CStringT@DV?$StrTraitMFC_DLL@DV?$ChTraitsCRT@D@ATL@@@@@ATL@@XZ$1
	DD	01H
	DD	FLAT:__unwindfunclet$?GetSavedData@CElementCommonEnvironment@@QBE?AV?$CStringT@DV?$StrTraitMFC_DLL@DV?$ChTraitsCRT@D@ATL@@@@@ATL@@XZ$2
	DD	02H
	DD	FLAT:__unwindfunclet$?GetSavedData@CElementCommonEnvironment@@QBE?AV?$CStringT@DV?$StrTraitMFC_DLL@DV?$ChTraitsCRT@D@ATL@@@@@ATL@@XZ$7
	DD	03H
	DD	FLAT:__unwindfunclet$?GetSavedData@CElementCommonEnvironment@@QBE?AV?$CStringT@DV?$StrTraitMFC_DLL@DV?$ChTraitsCRT@D@ATL@@@@@ATL@@XZ$8
	DD	04H
	DD	FLAT:__unwindfunclet$?GetSavedData@CElementCommonEnvironment@@QBE?AV?$CStringT@DV?$StrTraitMFC_DLL@DV?$ChTraitsCRT@D@ATL@@@@@ATL@@XZ$9
	DD	05H
	DD	FLAT:__unwindfunclet$?GetSavedData@CElementCommonEnvironment@@QBE?AV?$CStringT@DV?$StrTraitMFC_DLL@DV?$ChTraitsCRT@D@ATL@@@@@ATL@@XZ$11
	DD	06H
	DD	FLAT:__unwindfunclet$?GetSavedData@CElementCommonEnvironment@@QBE?AV?$CStringT@DV?$StrTraitMFC_DLL@DV?$ChTraitsCRT@D@ATL@@@@@ATL@@XZ$12
	DD	07H
	DD	FLAT:__unwindfunclet$?GetSavedData@CElementCommonEnvironment@@QBE?AV?$CStringT@DV?$StrTraitMFC_DLL@DV?$ChTraitsCRT@D@ATL@@@@@ATL@@XZ$13
	DD	08H
	DD	FLAT:__unwindfunclet$?GetSavedData@CElementCommonEnvironment@@QBE?AV?$CStringT@DV?$StrTraitMFC_DLL@DV?$ChTraitsCRT@D@ATL@@@@@ATL@@XZ$14
	DD	09H
	DD	FLAT:__unwindfunclet$?GetSavedData@CElementCommonEnvironment@@QBE?AV?$CStringT@DV?$StrTraitMFC_DLL@DV?$ChTraitsCRT@D@ATL@@@@@ATL@@XZ$15
	DD	0aH
	DD	FLAT:__unwindfunclet$?GetSavedData@CElementCommonEnvironment@@QBE?AV?$CStringT@DV?$StrTraitMFC_DLL@DV?$ChTraitsCRT@D@ATL@@@@@ATL@@XZ$16
	DD	0bH
	DD	FLAT:__unwindfunclet$?GetSavedData@CElementCommonEnvironment@@QBE?AV?$CStringT@DV?$StrTraitMFC_DLL@DV?$ChTraitsCRT@D@ATL@@@@@ATL@@XZ$22
	DD	05H
	DD	FLAT:__unwindfunclet$?GetSavedData@CElementCommonEnvironment@@QBE?AV?$CStringT@DV?$StrTraitMFC_DLL@DV?$ChTraitsCRT@D@ATL@@@@@ATL@@XZ$10
	DD	05H
	DD	FLAT:__unwindfunclet$?GetSavedData@CElementCommonEnvironment@@QBE?AV?$CStringT@DV?$StrTraitMFC_DLL@DV?$ChTraitsCRT@D@ATL@@@@@ATL@@XZ$23
xdata$x	ENDS
;	COMDAT xdata$x
xdata$x	SEGMENT
__unwindtable$?GetDataType@CElementCommonEnvironment@@QBE?AVCDataTypeEnvironment@@XZ DD 0ffffffffH
	DD	FLAT:__unwindfunclet$?GetDataType@CElementCommonEnvironment@@QBE?AVCDataTypeEnvironment@@XZ$1
	DD	00H
	DD	FLAT:__unwindfunclet$?GetDataType@CElementCommonEnvironment@@QBE?AVCDataTypeEnvironment@@XZ$2
__ehfuncinfo$?GetDataType@CElementCommonEnvironment@@QBE?AVCDataTypeEnvironment@@XZ DD 019930522H
	DD	02H
	DD	FLAT:__unwindtable$?GetDataType@CElementCommonEnvironment@@QBE?AVCDataTypeEnvironment@@XZ
	DD	2 DUP(00H)
	DD	2 DUP(00H)
	DD	00H
	DD	01H
xdata$x	ENDS
;	COMDAT xdata$x
xdata$x	SEGMENT
__unwindtable$??0CElementCommonEnvironment@@QAE@_NABH1ABVCPenEnvironment@@ABVCDataTypeEnvironment@@ABVCLineExtEnvironment@@@Z DD 0ffffffffH
	DD	FLAT:__unwindfunclet$??0CElementCommonEnvironment@@QAE@_NABH1ABVCPenEnvironment@@ABVCDataTypeEnvironment@@ABVCLineExtEnvironment@@@Z$1
	DD	00H
	DD	FLAT:__unwindfunclet$??0CElementCommonEnvironment@@QAE@_NABH1ABVCPenEnvironment@@ABVCDataTypeEnvironment@@ABVCLineExtEnvironment@@@Z$2
__ehfuncinfo$??0CElementCommonEnvironment@@QAE@_NABH1ABVCPenEnvironment@@ABVCDataTypeEnvironment@@ABVCLineExtEnvironment@@@Z DD 019930522H
	DD	02H
	DD	FLAT:__unwindtable$??0CElementCommonEnvironment@@QAE@_NABH1ABVCPenEnvironment@@ABVCDataTypeEnvironment@@ABVCLineExtEnvironment@@@Z
	DD	2 DUP(00H)
	DD	2 DUP(00H)
	DD	00H
	DD	01H
xdata$x	ENDS
;	COMDAT xdata$x
xdata$x	SEGMENT
__ehfuncinfo$??4CElementCommonEnvironment@@QAEAAV0@ABV0@@Z DD 019930522H
	DD	06H
	DD	FLAT:__unwindtable$??4CElementCommonEnvironment@@QAEAAV0@ABV0@@Z
	DD	2 DUP(00H)
	DD	2 DUP(00H)
	DD	00H
	DD	01H
__unwindtable$??4CElementCommonEnvironment@@QAEAAV0@ABV0@@Z DD 0ffffffffH
	DD	FLAT:__unwindfunclet$??4CElementCommonEnvironment@@QAEAAV0@ABV0@@Z$2
	DD	00H
	DD	FLAT:__unwindfunclet$??4CElementCommonEnvironment@@QAEAAV0@ABV0@@Z$3
	DD	0ffffffffH
	DD	FLAT:__unwindfunclet$??4CElementCommonEnvironment@@QAEAAV0@ABV0@@Z$0
	DD	02H
	DD	FLAT:__unwindfunclet$??4CElementCommonEnvironment@@QAEAAV0@ABV0@@Z$5
	DD	02H
	DD	FLAT:__unwindfunclet$??4CElementCommonEnvironment@@QAEAAV0@ABV0@@Z$6
	DD	02H
	DD	FLAT:__unwindfunclet$??4CElementCommonEnvironment@@QAEAAV0@ABV0@@Z$7
xdata$x	ENDS
;	COMDAT xdata$x
xdata$x	SEGMENT
__ehfuncinfo$?GetSavedLineExt@CLineExtEnvironment@@ABE?AV?$CStringT@DV?$StrTraitMFC_DLL@DV?$ChTraitsCRT@D@ATL@@@@@ATL@@XZ DD 019930522H
	DD	07H
	DD	FLAT:__unwindtable$?GetSavedLineExt@CLineExtEnvironment@@ABE?AV?$CStringT@DV?$StrTraitMFC_DLL@DV?$ChTraitsCRT@D@ATL@@@@@ATL@@XZ
	DD	2 DUP(00H)
	DD	2 DUP(00H)
	DD	00H
	DD	01H
__unwindtable$?GetSavedLineExt@CLineExtEnvironment@@ABE?AV?$CStringT@DV?$StrTraitMFC_DLL@DV?$ChTraitsCRT@D@ATL@@@@@ATL@@XZ DD 0ffffffffH
	DD	FLAT:__unwindfunclet$?GetSavedLineExt@CLineExtEnvironment@@ABE?AV?$CStringT@DV?$StrTraitMFC_DLL@DV?$ChTraitsCRT@D@ATL@@@@@ATL@@XZ$0
	DD	00H
	DD	FLAT:__unwindfunclet$?GetSavedLineExt@CLineExtEnvironment@@ABE?AV?$CStringT@DV?$StrTraitMFC_DLL@DV?$ChTraitsCRT@D@ATL@@@@@ATL@@XZ$1
	DD	01H
	DD	FLAT:__unwindfunclet$?GetSavedLineExt@CLineExtEnvironment@@ABE?AV?$CStringT@DV?$StrTraitMFC_DLL@DV?$ChTraitsCRT@D@ATL@@@@@ATL@@XZ$2
	DD	02H
	DD	FLAT:__unwindfunclet$?GetSavedLineExt@CLineExtEnvironment@@ABE?AV?$CStringT@DV?$StrTraitMFC_DLL@DV?$ChTraitsCRT@D@ATL@@@@@ATL@@XZ$3
	DD	03H
	DD	FLAT:__unwindfunclet$?GetSavedLineExt@CLineExtEnvironment@@ABE?AV?$CStringT@DV?$StrTraitMFC_DLL@DV?$ChTraitsCRT@D@ATL@@@@@ATL@@XZ$4
	DD	04H
	DD	FLAT:__unwindfunclet$?GetSavedLineExt@CLineExtEnvironment@@ABE?AV?$CStringT@DV?$StrTraitMFC_DLL@DV?$ChTraitsCRT@D@ATL@@@@@ATL@@XZ$5
	DD	05H
	DD	FLAT:__unwindfunclet$?GetSavedLineExt@CLineExtEnvironment@@ABE?AV?$CStringT@DV?$StrTraitMFC_DLL@DV?$ChTraitsCRT@D@ATL@@@@@ATL@@XZ$11
xdata$x	ENDS
;	COMDAT xdata$x
xdata$x	SEGMENT
__ehfuncinfo$?GetSavedData@CLineExtEnvironment@@QBE?AV?$CStringT@DV?$StrTraitMFC_DLL@DV?$ChTraitsCRT@D@ATL@@@@@ATL@@XZ DD 019930522H
	DD	09H
	DD	FLAT:__unwindtable$?GetSavedData@CLineExtEnvironment@@QBE?AV?$CStringT@DV?$StrTraitMFC_DLL@DV?$ChTraitsCRT@D@ATL@@@@@ATL@@XZ
	DD	2 DUP(00H)
	DD	2 DUP(00H)
	DD	00H
	DD	01H
__unwindtable$?GetSavedData@CLineExtEnvironment@@QBE?AV?$CStringT@DV?$StrTraitMFC_DLL@DV?$ChTraitsCRT@D@ATL@@@@@ATL@@XZ DD 0ffffffffH
	DD	FLAT:__unwindfunclet$?GetSavedData@CLineExtEnvironment@@QBE?AV?$CStringT@DV?$StrTraitMFC_DLL@DV?$ChTraitsCRT@D@ATL@@@@@ATL@@XZ$0
	DD	00H
	DD	FLAT:__unwindfunclet$?GetSavedData@CLineExtEnvironment@@QBE?AV?$CStringT@DV?$StrTraitMFC_DLL@DV?$ChTraitsCRT@D@ATL@@@@@ATL@@XZ$2
	DD	01H
	DD	FLAT:__unwindfunclet$?GetSavedData@CLineExtEnvironment@@QBE?AV?$CStringT@DV?$StrTraitMFC_DLL@DV?$ChTraitsCRT@D@ATL@@@@@ATL@@XZ$3
	DD	02H
	DD	FLAT:__unwindfunclet$?GetSavedData@CLineExtEnvironment@@QBE?AV?$CStringT@DV?$StrTraitMFC_DLL@DV?$ChTraitsCRT@D@ATL@@@@@ATL@@XZ$4
	DD	03H
	DD	FLAT:__unwindfunclet$?GetSavedData@CLineExtEnvironment@@QBE?AV?$CStringT@DV?$StrTraitMFC_DLL@DV?$ChTraitsCRT@D@ATL@@@@@ATL@@XZ$5
	DD	04H
	DD	FLAT:__unwindfunclet$?GetSavedData@CLineExtEnvironment@@QBE?AV?$CStringT@DV?$StrTraitMFC_DLL@DV?$ChTraitsCRT@D@ATL@@@@@ATL@@XZ$6
	DD	05H
	DD	FLAT:__unwindfunclet$?GetSavedData@CLineExtEnvironment@@QBE?AV?$CStringT@DV?$StrTraitMFC_DLL@DV?$ChTraitsCRT@D@ATL@@@@@ATL@@XZ$7
	DD	06H
	DD	FLAT:__unwindfunclet$?GetSavedData@CLineExtEnvironment@@QBE?AV?$CStringT@DV?$StrTraitMFC_DLL@DV?$ChTraitsCRT@D@ATL@@@@@ATL@@XZ$13
	DD	00H
	DD	FLAT:__unwindfunclet$?GetSavedData@CLineExtEnvironment@@QBE?AV?$CStringT@DV?$StrTraitMFC_DLL@DV?$ChTraitsCRT@D@ATL@@@@@ATL@@XZ$1
xdata$x	ENDS
;	COMDAT xdata$x
xdata$x	SEGMENT
__unwindtable$??0CDataTypeEnvironment@@QAE@ABV0@@Z DD 0ffffffffH
	DD	FLAT:__unwindfunclet$??0CDataTypeEnvironment@@QAE@ABV0@@Z$0
	DD	00H
	DD	FLAT:__unwindfunclet$??0CDataTypeEnvironment@@QAE@ABV0@@Z$1
__ehfuncinfo$??0CDataTypeEnvironment@@QAE@ABV0@@Z DD 019930522H
	DD	02H
	DD	FLAT:__unwindtable$??0CDataTypeEnvironment@@QAE@ABV0@@Z
	DD	2 DUP(00H)
	DD	2 DUP(00H)
	DD	00H
	DD	01H
xdata$x	ENDS
;	COMDAT xdata$x
xdata$x	SEGMENT
__unwindtable$?GetSavedStrVert@CDataTypeEnvironment@@ABE?AV?$CStringT@DV?$StrTraitMFC_DLL@DV?$ChTraitsCRT@D@ATL@@@@@ATL@@XZ DD 0ffffffffH
	DD	FLAT:__unwindfunclet$?GetSavedStrVert@CDataTypeEnvironment@@ABE?AV?$CStringT@DV?$StrTraitMFC_DLL@DV?$ChTraitsCRT@D@ATL@@@@@ATL@@XZ$2
	DD	00H
	DD	FLAT:__unwindfunclet$?GetSavedStrVert@CDataTypeEnvironment@@ABE?AV?$CStringT@DV?$StrTraitMFC_DLL@DV?$ChTraitsCRT@D@ATL@@@@@ATL@@XZ$3
__ehfuncinfo$?GetSavedStrVert@CDataTypeEnvironment@@ABE?AV?$CStringT@DV?$StrTraitMFC_DLL@DV?$ChTraitsCRT@D@ATL@@@@@ATL@@XZ DD 019930522H
	DD	02H
	DD	FLAT:__unwindtable$?GetSavedStrVert@CDataTypeEnvironment@@ABE?AV?$CStringT@DV?$StrTraitMFC_DLL@DV?$ChTraitsCRT@D@ATL@@@@@ATL@@XZ
	DD	2 DUP(00H)
	DD	2 DUP(00H)
	DD	00H
	DD	01H
xdata$x	ENDS
;	COMDAT xdata$x
xdata$x	SEGMENT
__unwindtable$?GetSavedExtData@CDataTypeEnvironment@@ABE?AV?$CStringT@DV?$StrTraitMFC_DLL@DV?$ChTraitsCRT@D@ATL@@@@@ATL@@XZ DD 0ffffffffH
	DD	FLAT:__unwindfunclet$?GetSavedExtData@CDataTypeEnvironment@@ABE?AV?$CStringT@DV?$StrTraitMFC_DLL@DV?$ChTraitsCRT@D@ATL@@@@@ATL@@XZ$2
	DD	00H
	DD	FLAT:__unwindfunclet$?GetSavedExtData@CDataTypeEnvironment@@ABE?AV?$CStringT@DV?$StrTraitMFC_DLL@DV?$ChTraitsCRT@D@ATL@@@@@ATL@@XZ$3
__ehfuncinfo$?GetSavedExtData@CDataTypeEnvironment@@ABE?AV?$CStringT@DV?$StrTraitMFC_DLL@DV?$ChTraitsCRT@D@ATL@@@@@ATL@@XZ DD 019930522H
	DD	02H
	DD	FLAT:__unwindtable$?GetSavedExtData@CDataTypeEnvironment@@ABE?AV?$CStringT@DV?$StrTraitMFC_DLL@DV?$ChTraitsCRT@D@ATL@@@@@ATL@@XZ
	DD	2 DUP(00H)
	DD	2 DUP(00H)
	DD	00H
	DD	01H
xdata$x	ENDS
;	COMDAT xdata$x
xdata$x	SEGMENT
__unwindtable$?GetSavedHorz@CDataTypeEnvironment@@ABE?AV?$CStringT@DV?$StrTraitMFC_DLL@DV?$ChTraitsCRT@D@ATL@@@@@ATL@@XZ DD 0ffffffffH
	DD	FLAT:__unwindfunclet$?GetSavedHorz@CDataTypeEnvironment@@ABE?AV?$CStringT@DV?$StrTraitMFC_DLL@DV?$ChTraitsCRT@D@ATL@@@@@ATL@@XZ$2
	DD	00H
	DD	FLAT:__unwindfunclet$?GetSavedHorz@CDataTypeEnvironment@@ABE?AV?$CStringT@DV?$StrTraitMFC_DLL@DV?$ChTraitsCRT@D@ATL@@@@@ATL@@XZ$3
__ehfuncinfo$?GetSavedHorz@CDataTypeEnvironment@@ABE?AV?$CStringT@DV?$StrTraitMFC_DLL@DV?$ChTraitsCRT@D@ATL@@@@@ATL@@XZ DD 019930522H
	DD	02H
	DD	FLAT:__unwindtable$?GetSavedHorz@CDataTypeEnvironment@@ABE?AV?$CStringT@DV?$StrTraitMFC_DLL@DV?$ChTraitsCRT@D@ATL@@@@@ATL@@XZ
	DD	2 DUP(00H)
	DD	2 DUP(00H)
	DD	00H
	DD	01H
xdata$x	ENDS
;	COMDAT xdata$x
xdata$x	SEGMENT
__unwindtable$?GetSavedVert@CDataTypeEnvironment@@ABE?AV?$CStringT@DV?$StrTraitMFC_DLL@DV?$ChTraitsCRT@D@ATL@@@@@ATL@@XZ DD 0ffffffffH
	DD	FLAT:__unwindfunclet$?GetSavedVert@CDataTypeEnvironment@@ABE?AV?$CStringT@DV?$StrTraitMFC_DLL@DV?$ChTraitsCRT@D@ATL@@@@@ATL@@XZ$0
	DD	00H
	DD	FLAT:__unwindfunclet$?GetSavedVert@CDataTypeEnvironment@@ABE?AV?$CStringT@DV?$StrTraitMFC_DLL@DV?$ChTraitsCRT@D@ATL@@@@@ATL@@XZ$1
	DD	01H
	DD	FLAT:__unwindfunclet$?GetSavedVert@CDataTypeEnvironment@@ABE?AV?$CStringT@DV?$StrTraitMFC_DLL@DV?$ChTraitsCRT@D@ATL@@@@@ATL@@XZ$4
__ehfuncinfo$?GetSavedVert@CDataTypeEnvironment@@ABE?AV?$CStringT@DV?$StrTraitMFC_DLL@DV?$ChTraitsCRT@D@ATL@@@@@ATL@@XZ DD 019930522H
	DD	03H
	DD	FLAT:__unwindtable$?GetSavedVert@CDataTypeEnvironment@@ABE?AV?$CStringT@DV?$StrTraitMFC_DLL@DV?$ChTraitsCRT@D@ATL@@@@@ATL@@XZ
	DD	2 DUP(00H)
	DD	2 DUP(00H)
	DD	00H
	DD	01H
xdata$x	ENDS
;	COMDAT xdata$x
xdata$x	SEGMENT
__unwindtable$?GetSavedCoordinateType@CDataTypeEnvironment@@ABE?AV?$CStringT@DV?$StrTraitMFC_DLL@DV?$ChTraitsCRT@D@ATL@@@@@ATL@@XZ DD 0ffffffffH
	DD	FLAT:__unwindfunclet$?GetSavedCoordinateType@CDataTypeEnvironment@@ABE?AV?$CStringT@DV?$StrTraitMFC_DLL@DV?$ChTraitsCRT@D@ATL@@@@@ATL@@XZ$0
	DD	00H
	DD	FLAT:__unwindfunclet$?GetSavedCoordinateType@CDataTypeEnvironment@@ABE?AV?$CStringT@DV?$StrTraitMFC_DLL@DV?$ChTraitsCRT@D@ATL@@@@@ATL@@XZ$1
	DD	01H
	DD	FLAT:__unwindfunclet$?GetSavedCoordinateType@CDataTypeEnvironment@@ABE?AV?$CStringT@DV?$StrTraitMFC_DLL@DV?$ChTraitsCRT@D@ATL@@@@@ATL@@XZ$4
__ehfuncinfo$?GetSavedCoordinateType@CDataTypeEnvironment@@ABE?AV?$CStringT@DV?$StrTraitMFC_DLL@DV?$ChTraitsCRT@D@ATL@@@@@ATL@@XZ DD 019930522H
	DD	03H
	DD	FLAT:__unwindtable$?GetSavedCoordinateType@CDataTypeEnvironment@@ABE?AV?$CStringT@DV?$StrTraitMFC_DLL@DV?$ChTraitsCRT@D@ATL@@@@@ATL@@XZ
	DD	2 DUP(00H)
	DD	2 DUP(00H)
	DD	00H
	DD	01H
xdata$x	ENDS
;	COMDAT xdata$x
xdata$x	SEGMENT
__ehfuncinfo$?GetSavedData@CDataTypeEnvironment@@QBE?AV?$CStringT@DV?$StrTraitMFC_DLL@DV?$ChTraitsCRT@D@ATL@@@@@ATL@@XZ DD 019930522H
	DD	012H
	DD	FLAT:__unwindtable$?GetSavedData@CDataTypeEnvironment@@QBE?AV?$CStringT@DV?$StrTraitMFC_DLL@DV?$ChTraitsCRT@D@ATL@@@@@ATL@@XZ
	DD	2 DUP(00H)
	DD	2 DUP(00H)
	DD	00H
	DD	01H
__unwindtable$?GetSavedData@CDataTypeEnvironment@@QBE?AV?$CStringT@DV?$StrTraitMFC_DLL@DV?$ChTraitsCRT@D@ATL@@@@@ATL@@XZ DD 0ffffffffH
	DD	FLAT:__unwindfunclet$?GetSavedData@CDataTypeEnvironment@@QBE?AV?$CStringT@DV?$StrTraitMFC_DLL@DV?$ChTraitsCRT@D@ATL@@@@@ATL@@XZ$0
	DD	00H
	DD	FLAT:__unwindfunclet$?GetSavedData@CDataTypeEnvironment@@QBE?AV?$CStringT@DV?$StrTraitMFC_DLL@DV?$ChTraitsCRT@D@ATL@@@@@ATL@@XZ$8
	DD	01H
	DD	FLAT:__unwindfunclet$?GetSavedData@CDataTypeEnvironment@@QBE?AV?$CStringT@DV?$StrTraitMFC_DLL@DV?$ChTraitsCRT@D@ATL@@@@@ATL@@XZ$9
	DD	00H
	DD	FLAT:__unwindfunclet$?GetSavedData@CDataTypeEnvironment@@QBE?AV?$CStringT@DV?$StrTraitMFC_DLL@DV?$ChTraitsCRT@D@ATL@@@@@ATL@@XZ$1
	DD	03H
	DD	FLAT:__unwindfunclet$?GetSavedData@CDataTypeEnvironment@@QBE?AV?$CStringT@DV?$StrTraitMFC_DLL@DV?$ChTraitsCRT@D@ATL@@@@@ATL@@XZ$12
	DD	04H
	DD	FLAT:__unwindfunclet$?GetSavedData@CDataTypeEnvironment@@QBE?AV?$CStringT@DV?$StrTraitMFC_DLL@DV?$ChTraitsCRT@D@ATL@@@@@ATL@@XZ$13
	DD	03H
	DD	FLAT:__unwindfunclet$?GetSavedData@CDataTypeEnvironment@@QBE?AV?$CStringT@DV?$StrTraitMFC_DLL@DV?$ChTraitsCRT@D@ATL@@@@@ATL@@XZ$2
	DD	06H
	DD	FLAT:__unwindfunclet$?GetSavedData@CDataTypeEnvironment@@QBE?AV?$CStringT@DV?$StrTraitMFC_DLL@DV?$ChTraitsCRT@D@ATL@@@@@ATL@@XZ$16
	DD	07H
	DD	FLAT:__unwindfunclet$?GetSavedData@CDataTypeEnvironment@@QBE?AV?$CStringT@DV?$StrTraitMFC_DLL@DV?$ChTraitsCRT@D@ATL@@@@@ATL@@XZ$17
	DD	06H
	DD	FLAT:__unwindfunclet$?GetSavedData@CDataTypeEnvironment@@QBE?AV?$CStringT@DV?$StrTraitMFC_DLL@DV?$ChTraitsCRT@D@ATL@@@@@ATL@@XZ$3
	DD	09H
	DD	FLAT:__unwindfunclet$?GetSavedData@CDataTypeEnvironment@@QBE?AV?$CStringT@DV?$StrTraitMFC_DLL@DV?$ChTraitsCRT@D@ATL@@@@@ATL@@XZ$18
	DD	0aH
	DD	FLAT:__unwindfunclet$?GetSavedData@CDataTypeEnvironment@@QBE?AV?$CStringT@DV?$StrTraitMFC_DLL@DV?$ChTraitsCRT@D@ATL@@@@@ATL@@XZ$19
	DD	0bH
	DD	FLAT:__unwindfunclet$?GetSavedData@CDataTypeEnvironment@@QBE?AV?$CStringT@DV?$StrTraitMFC_DLL@DV?$ChTraitsCRT@D@ATL@@@@@ATL@@XZ$22
	DD	09H
	DD	FLAT:__unwindfunclet$?GetSavedData@CDataTypeEnvironment@@QBE?AV?$CStringT@DV?$StrTraitMFC_DLL@DV?$ChTraitsCRT@D@ATL@@@@@ATL@@XZ$4
	DD	0dH
	DD	FLAT:__unwindfunclet$?GetSavedData@CDataTypeEnvironment@@QBE?AV?$CStringT@DV?$StrTraitMFC_DLL@DV?$ChTraitsCRT@D@ATL@@@@@ATL@@XZ$23
	DD	0eH
	DD	FLAT:__unwindfunclet$?GetSavedData@CDataTypeEnvironment@@QBE?AV?$CStringT@DV?$StrTraitMFC_DLL@DV?$ChTraitsCRT@D@ATL@@@@@ATL@@XZ$24
	DD	0fH
	DD	FLAT:__unwindfunclet$?GetSavedData@CDataTypeEnvironment@@QBE?AV?$CStringT@DV?$StrTraitMFC_DLL@DV?$ChTraitsCRT@D@ATL@@@@@ATL@@XZ$27
	DD	0dH
	DD	FLAT:__unwindfunclet$?GetSavedData@CDataTypeEnvironment@@QBE?AV?$CStringT@DV?$StrTraitMFC_DLL@DV?$ChTraitsCRT@D@ATL@@@@@ATL@@XZ$5
xdata$x	ENDS
;	COMDAT xdata$x
xdata$x	SEGMENT
__ehfuncinfo$??0CDataTypeEnvironment@@QAE@PBV0@@Z DD 019930522H
	DD	06H
	DD	FLAT:__unwindtable$??0CDataTypeEnvironment@@QAE@PBV0@@Z
	DD	2 DUP(00H)
	DD	2 DUP(00H)
	DD	00H
	DD	01H
__unwindtable$??0CDataTypeEnvironment@@QAE@PBV0@@Z DD 0ffffffffH
	DD	FLAT:__unwindfunclet$??0CDataTypeEnvironment@@QAE@PBV0@@Z$0
	DD	00H
	DD	FLAT:__unwindfunclet$??0CDataTypeEnvironment@@QAE@PBV0@@Z$1
	DD	01H
	DD	FLAT:__unwindfunclet$??0CDataTypeEnvironment@@QAE@PBV0@@Z$2
	DD	02H
	DD	FLAT:__unwindfunclet$??0CDataTypeEnvironment@@QAE@PBV0@@Z$3
	DD	02H
	DD	FLAT:__unwindfunclet$??0CDataTypeEnvironment@@QAE@PBV0@@Z$4
	DD	02H
	DD	FLAT:__unwindfunclet$??0CDataTypeEnvironment@@QAE@PBV0@@Z$5
xdata$x	ENDS
;	COMDAT xdata$x
xdata$x	SEGMENT
__unwindtable$??0CDataTypeEnvironment@@QAE@W4COORDINATETYPE@CAnalysis@@ABNABV?$CStringT@DV?$StrTraitMFC_DLL@DV?$ChTraitsCRT@D@ATL@@@@@ATL@@22PAUHWND__@@W4CHART_MODE@CChartInfo@@@Z DD 0ffffffffH
	DD	FLAT:__unwindfunclet$??0CDataTypeEnvironment@@QAE@W4COORDINATETYPE@CAnalysis@@ABNABV?$CStringT@DV?$StrTraitMFC_DLL@DV?$ChTraitsCRT@D@ATL@@@@@ATL@@22PAUHWND__@@W4CHART_MODE@CChartInfo@@@Z$0
	DD	00H
	DD	FLAT:__unwindfunclet$??0CDataTypeEnvironment@@QAE@W4COORDINATETYPE@CAnalysis@@ABNABV?$CStringT@DV?$StrTraitMFC_DLL@DV?$ChTraitsCRT@D@ATL@@@@@ATL@@22PAUHWND__@@W4CHART_MODE@CChartInfo@@@Z$1
__ehfuncinfo$??0CDataTypeEnvironment@@QAE@W4COORDINATETYPE@CAnalysis@@ABNABV?$CStringT@DV?$StrTraitMFC_DLL@DV?$ChTraitsCRT@D@ATL@@@@@ATL@@22PAUHWND__@@W4CHART_MODE@CChartInfo@@@Z DD 019930522H
	DD	02H
	DD	FLAT:__unwindtable$??0CDataTypeEnvironment@@QAE@W4COORDINATETYPE@CAnalysis@@ABNABV?$CStringT@DV?$StrTraitMFC_DLL@DV?$ChTraitsCRT@D@ATL@@@@@ATL@@22PAUHWND__@@W4CHART_MODE@CChartInfo@@@Z
	DD	2 DUP(00H)
	DD	2 DUP(00H)
	DD	00H
	DD	01H
xdata$x	ENDS
;	COMDAT xdata$x
xdata$x	SEGMENT
__unwindtable$??0CDataTypeEnvironment@@QAE@W4COORDINATETYPE@CAnalysis@@ABNABV?$CStringT@DV?$StrTraitMFC_DLL@DV?$ChTraitsCRT@D@ATL@@@@@ATL@@2PAUHWND__@@W4CHART_MODE@CChartInfo@@@Z DD 0ffffffffH
	DD	FLAT:__unwindfunclet$??0CDataTypeEnvironment@@QAE@W4COORDINATETYPE@CAnalysis@@ABNABV?$CStringT@DV?$StrTraitMFC_DLL@DV?$ChTraitsCRT@D@ATL@@@@@ATL@@2PAUHWND__@@W4CHART_MODE@CChartInfo@@@Z$0
__ehfuncinfo$??0CDataTypeEnvironment@@QAE@W4COORDINATETYPE@CAnalysis@@ABNABV?$CStringT@DV?$StrTraitMFC_DLL@DV?$ChTraitsCRT@D@ATL@@@@@ATL@@2PAUHWND__@@W4CHART_MODE@CChartInfo@@@Z DD 019930522H
	DD	01H
	DD	FLAT:__unwindtable$??0CDataTypeEnvironment@@QAE@W4COORDINATETYPE@CAnalysis@@ABNABV?$CStringT@DV?$StrTraitMFC_DLL@DV?$ChTraitsCRT@D@ATL@@@@@ATL@@2PAUHWND__@@W4CHART_MODE@CChartInfo@@@Z
	DD	2 DUP(00H)
	DD	2 DUP(00H)
	DD	00H
	DD	01H
xdata$x	ENDS
;	COMDAT xdata$x
xdata$x	SEGMENT
__unwindtable$??4CDataTypeEnvironment@@QAEAAV0@ABV0@@Z DD 0ffffffffH
	DD	FLAT:__unwindfunclet$??4CDataTypeEnvironment@@QAEAAV0@ABV0@@Z$0
	DD	0ffffffffH
	DD	FLAT:__unwindfunclet$??4CDataTypeEnvironment@@QAEAAV0@ABV0@@Z$1
	DD	0ffffffffH
	DD	FLAT:__unwindfunclet$??4CDataTypeEnvironment@@QAEAAV0@ABV0@@Z$2
__ehfuncinfo$??4CDataTypeEnvironment@@QAEAAV0@ABV0@@Z DD 019930522H
	DD	03H
	DD	FLAT:__unwindtable$??4CDataTypeEnvironment@@QAEAAV0@ABV0@@Z
	DD	2 DUP(00H)
	DD	2 DUP(00H)
	DD	00H
	DD	01H
xdata$x	ENDS
;	COMDAT xdata$x
xdata$x	SEGMENT
__unwindtable$?GetSavedStyle@CPenEnvironment@@ABE?AV?$CStringT@DV?$StrTraitMFC_DLL@DV?$ChTraitsCRT@D@ATL@@@@@ATL@@XZ DD 0ffffffffH
	DD	FLAT:__unwindfunclet$?GetSavedStyle@CPenEnvironment@@ABE?AV?$CStringT@DV?$StrTraitMFC_DLL@DV?$ChTraitsCRT@D@ATL@@@@@ATL@@XZ$0
	DD	00H
	DD	FLAT:__unwindfunclet$?GetSavedStyle@CPenEnvironment@@ABE?AV?$CStringT@DV?$StrTraitMFC_DLL@DV?$ChTraitsCRT@D@ATL@@@@@ATL@@XZ$1
	DD	01H
	DD	FLAT:__unwindfunclet$?GetSavedStyle@CPenEnvironment@@ABE?AV?$CStringT@DV?$StrTraitMFC_DLL@DV?$ChTraitsCRT@D@ATL@@@@@ATL@@XZ$4
__ehfuncinfo$?GetSavedStyle@CPenEnvironment@@ABE?AV?$CStringT@DV?$StrTraitMFC_DLL@DV?$ChTraitsCRT@D@ATL@@@@@ATL@@XZ DD 019930522H
	DD	03H
	DD	FLAT:__unwindtable$?GetSavedStyle@CPenEnvironment@@ABE?AV?$CStringT@DV?$StrTraitMFC_DLL@DV?$ChTraitsCRT@D@ATL@@@@@ATL@@XZ
	DD	2 DUP(00H)
	DD	2 DUP(00H)
	DD	00H
	DD	01H
xdata$x	ENDS
;	COMDAT xdata$x
xdata$x	SEGMENT
__unwindtable$?GetSavedWidth@CPenEnvironment@@ABE?AV?$CStringT@DV?$StrTraitMFC_DLL@DV?$ChTraitsCRT@D@ATL@@@@@ATL@@XZ DD 0ffffffffH
	DD	FLAT:__unwindfunclet$?GetSavedWidth@CPenEnvironment@@ABE?AV?$CStringT@DV?$StrTraitMFC_DLL@DV?$ChTraitsCRT@D@ATL@@@@@ATL@@XZ$0
	DD	00H
	DD	FLAT:__unwindfunclet$?GetSavedWidth@CPenEnvironment@@ABE?AV?$CStringT@DV?$StrTraitMFC_DLL@DV?$ChTraitsCRT@D@ATL@@@@@ATL@@XZ$1
	DD	01H
	DD	FLAT:__unwindfunclet$?GetSavedWidth@CPenEnvironment@@ABE?AV?$CStringT@DV?$StrTraitMFC_DLL@DV?$ChTraitsCRT@D@ATL@@@@@ATL@@XZ$4
__ehfuncinfo$?GetSavedWidth@CPenEnvironment@@ABE?AV?$CStringT@DV?$StrTraitMFC_DLL@DV?$ChTraitsCRT@D@ATL@@@@@ATL@@XZ DD 019930522H
	DD	03H
	DD	FLAT:__unwindtable$?GetSavedWidth@CPenEnvironment@@ABE?AV?$CStringT@DV?$StrTraitMFC_DLL@DV?$ChTraitsCRT@D@ATL@@@@@ATL@@XZ
	DD	2 DUP(00H)
	DD	2 DUP(00H)
	DD	00H
	DD	01H
xdata$x	ENDS
;	COMDAT xdata$x
xdata$x	SEGMENT
__unwindtable$?GetSavedColor@CPenEnvironment@@ABE?AV?$CStringT@DV?$StrTraitMFC_DLL@DV?$ChTraitsCRT@D@ATL@@@@@ATL@@XZ DD 0ffffffffH
	DD	FLAT:__unwindfunclet$?GetSavedColor@CPenEnvironment@@ABE?AV?$CStringT@DV?$StrTraitMFC_DLL@DV?$ChTraitsCRT@D@ATL@@@@@ATL@@XZ$0
	DD	00H
	DD	FLAT:__unwindfunclet$?GetSavedColor@CPenEnvironment@@ABE?AV?$CStringT@DV?$StrTraitMFC_DLL@DV?$ChTraitsCRT@D@ATL@@@@@ATL@@XZ$1
	DD	01H
	DD	FLAT:__unwindfunclet$?GetSavedColor@CPenEnvironment@@ABE?AV?$CStringT@DV?$StrTraitMFC_DLL@DV?$ChTraitsCRT@D@ATL@@@@@ATL@@XZ$4
__ehfuncinfo$?GetSavedColor@CPenEnvironment@@ABE?AV?$CStringT@DV?$StrTraitMFC_DLL@DV?$ChTraitsCRT@D@ATL@@@@@ATL@@XZ DD 019930522H
	DD	03H
	DD	FLAT:__unwindtable$?GetSavedColor@CPenEnvironment@@ABE?AV?$CStringT@DV?$StrTraitMFC_DLL@DV?$ChTraitsCRT@D@ATL@@@@@ATL@@XZ
	DD	2 DUP(00H)
	DD	2 DUP(00H)
	DD	00H
	DD	01H
xdata$x	ENDS
;	COMDAT xdata$x
xdata$x	SEGMENT
__ehfuncinfo$?GetSavedData@CPenEnvironment@@QBE?AV?$CStringT@DV?$StrTraitMFC_DLL@DV?$ChTraitsCRT@D@ATL@@@@@ATL@@XZ DD 019930522H
	DD	0dH
	DD	FLAT:__unwindtable$?GetSavedData@CPenEnvironment@@QBE?AV?$CStringT@DV?$StrTraitMFC_DLL@DV?$ChTraitsCRT@D@ATL@@@@@ATL@@XZ
	DD	2 DUP(00H)
	DD	2 DUP(00H)
	DD	00H
	DD	01H
__unwindtable$?GetSavedData@CPenEnvironment@@QBE?AV?$CStringT@DV?$StrTraitMFC_DLL@DV?$ChTraitsCRT@D@ATL@@@@@ATL@@XZ DD 0ffffffffH
	DD	FLAT:__unwindfunclet$?GetSavedData@CPenEnvironment@@QBE?AV?$CStringT@DV?$StrTraitMFC_DLL@DV?$ChTraitsCRT@D@ATL@@@@@ATL@@XZ$0
	DD	00H
	DD	FLAT:__unwindfunclet$?GetSavedData@CPenEnvironment@@QBE?AV?$CStringT@DV?$StrTraitMFC_DLL@DV?$ChTraitsCRT@D@ATL@@@@@ATL@@XZ$4
	DD	01H
	DD	FLAT:__unwindfunclet$?GetSavedData@CPenEnvironment@@QBE?AV?$CStringT@DV?$StrTraitMFC_DLL@DV?$ChTraitsCRT@D@ATL@@@@@ATL@@XZ$5
	DD	02H
	DD	FLAT:__unwindfunclet$?GetSavedData@CPenEnvironment@@QBE?AV?$CStringT@DV?$StrTraitMFC_DLL@DV?$ChTraitsCRT@D@ATL@@@@@ATL@@XZ$8
	DD	00H
	DD	FLAT:__unwindfunclet$?GetSavedData@CPenEnvironment@@QBE?AV?$CStringT@DV?$StrTraitMFC_DLL@DV?$ChTraitsCRT@D@ATL@@@@@ATL@@XZ$1
	DD	04H
	DD	FLAT:__unwindfunclet$?GetSavedData@CPenEnvironment@@QBE?AV?$CStringT@DV?$StrTraitMFC_DLL@DV?$ChTraitsCRT@D@ATL@@@@@ATL@@XZ$9
	DD	05H
	DD	FLAT:__unwindfunclet$?GetSavedData@CPenEnvironment@@QBE?AV?$CStringT@DV?$StrTraitMFC_DLL@DV?$ChTraitsCRT@D@ATL@@@@@ATL@@XZ$10
	DD	06H
	DD	FLAT:__unwindfunclet$?GetSavedData@CPenEnvironment@@QBE?AV?$CStringT@DV?$StrTraitMFC_DLL@DV?$ChTraitsCRT@D@ATL@@@@@ATL@@XZ$13
	DD	04H
	DD	FLAT:__unwindfunclet$?GetSavedData@CPenEnvironment@@QBE?AV?$CStringT@DV?$StrTraitMFC_DLL@DV?$ChTraitsCRT@D@ATL@@@@@ATL@@XZ$2
	DD	08H
	DD	FLAT:__unwindfunclet$?GetSavedData@CPenEnvironment@@QBE?AV?$CStringT@DV?$StrTraitMFC_DLL@DV?$ChTraitsCRT@D@ATL@@@@@ATL@@XZ$14
	DD	09H
	DD	FLAT:__unwindfunclet$?GetSavedData@CPenEnvironment@@QBE?AV?$CStringT@DV?$StrTraitMFC_DLL@DV?$ChTraitsCRT@D@ATL@@@@@ATL@@XZ$15
	DD	0aH
	DD	FLAT:__unwindfunclet$?GetSavedData@CPenEnvironment@@QBE?AV?$CStringT@DV?$StrTraitMFC_DLL@DV?$ChTraitsCRT@D@ATL@@@@@ATL@@XZ$18
	DD	08H
	DD	FLAT:__unwindfunclet$?GetSavedData@CPenEnvironment@@QBE?AV?$CStringT@DV?$StrTraitMFC_DLL@DV?$ChTraitsCRT@D@ATL@@@@@ATL@@XZ$3
xdata$x	ENDS
;	COMDAT xdata$x
xdata$x	SEGMENT
__unwindtable$??HATL@@YA?AV?$CStringT@DV?$StrTraitMFC_DLL@DV?$ChTraitsCRT@D@ATL@@@@@0@PBDABV10@@Z DD 0ffffffffH
	DD	FLAT:__unwindfunclet$??HATL@@YA?AV?$CStringT@DV?$StrTraitMFC_DLL@DV?$ChTraitsCRT@D@ATL@@@@@0@PBDABV10@@Z$0
__ehfuncinfo$??HATL@@YA?AV?$CStringT@DV?$StrTraitMFC_DLL@DV?$ChTraitsCRT@D@ATL@@@@@0@PBDABV10@@Z DD 019930522H
	DD	01H
	DD	FLAT:__unwindtable$??HATL@@YA?AV?$CStringT@DV?$StrTraitMFC_DLL@DV?$ChTraitsCRT@D@ATL@@@@@0@PBDABV10@@Z
	DD	2 DUP(00H)
	DD	2 DUP(00H)
	DD	00H
	DD	01H
xdata$x	ENDS
;	COMDAT xdata$x
xdata$x	SEGMENT
__unwindtable$??HATL@@YA?AV?$CStringT@DV?$StrTraitMFC_DLL@DV?$ChTraitsCRT@D@ATL@@@@@0@ABV10@PBD@Z DD 0ffffffffH
	DD	FLAT:__unwindfunclet$??HATL@@YA?AV?$CStringT@DV?$StrTraitMFC_DLL@DV?$ChTraitsCRT@D@ATL@@@@@0@ABV10@PBD@Z$0
__ehfuncinfo$??HATL@@YA?AV?$CStringT@DV?$StrTraitMFC_DLL@DV?$ChTraitsCRT@D@ATL@@@@@0@ABV10@PBD@Z DD 019930522H
	DD	01H
	DD	FLAT:__unwindtable$??HATL@@YA?AV?$CStringT@DV?$StrTraitMFC_DLL@DV?$ChTraitsCRT@D@ATL@@@@@0@ABV10@PBD@Z
	DD	2 DUP(00H)
	DD	2 DUP(00H)
	DD	00H
	DD	01H
xdata$x	ENDS
;	COMDAT xdata$x
xdata$x	SEGMENT
__unwindtable$??HATL@@YA?AV?$CStringT@DV?$StrTraitMFC_DLL@DV?$ChTraitsCRT@D@ATL@@@@@0@ABV10@0@Z DD 0ffffffffH
	DD	FLAT:__unwindfunclet$??HATL@@YA?AV?$CStringT@DV?$StrTraitMFC_DLL@DV?$ChTraitsCRT@D@ATL@@@@@0@ABV10@0@Z$0
__ehfuncinfo$??HATL@@YA?AV?$CStringT@DV?$StrTraitMFC_DLL@DV?$ChTraitsCRT@D@ATL@@@@@0@ABV10@0@Z DD 019930522H
	DD	01H
	DD	FLAT:__unwindtable$??HATL@@YA?AV?$CStringT@DV?$StrTraitMFC_DLL@DV?$ChTraitsCRT@D@ATL@@@@@0@ABV10@0@Z
	DD	2 DUP(00H)
	DD	2 DUP(00H)
	DD	00H
	DD	01H
xdata$x	ENDS
; Function compile flags: /Ogtp
; File D:\git\src\IBK\IBK_DRFN\ProjSrc\SrcChartEx\ChartAddIn\ChartAnalysisToolAddIn\Include_Analysis\ElementEnvironment.cpp
;	COMDAT ?GetSavedRealTextPositionData@CTextHorzVertPosition@@MBE?AV?$CStringT@DV?$StrTraitMFC_DLL@DV?$ChTraitsCRT@D@ATL@@@@@ATL@@XZ
_TEXT	SEGMENT
$T2 = -24						; size = 4
$T3 = -24						; size = 4
$T4 = -24						; size = 4
$T5 = -24						; size = 4
$T6 = -20						; size = 4
$T7 = -20						; size = 4
$T8 = -20						; size = 4
$T9 = -20						; size = 4
$T10 = -16						; size = 4
__$EHRec$ = -12						; size = 12
___$ReturnUdt$ = 8					; size = 4
?GetSavedRealTextPositionData@CTextHorzVertPosition@@MBE?AV?$CStringT@DV?$StrTraitMFC_DLL@DV?$ChTraitsCRT@D@ATL@@@@@ATL@@XZ PROC ; CTextHorzVertPosition::GetSavedRealTextPositionData, COMDAT
; _this$ = ecx

; 1237 : {

  00000	55		 push	 ebp
  00001	8b ec		 mov	 ebp, esp
  00003	6a ff		 push	 -1
  00005	68 00 00 00 00	 push	 __ehhandler$?GetSavedRealTextPositionData@CTextHorzVertPosition@@MBE?AV?$CStringT@DV?$StrTraitMFC_DLL@DV?$ChTraitsCRT@D@ATL@@@@@ATL@@XZ
  0000a	64 a1 00 00 00
	00		 mov	 eax, DWORD PTR fs:0
  00010	50		 push	 eax
  00011	83 ec 0c	 sub	 esp, 12			; 0000000cH
  00014	53		 push	 ebx
  00015	56		 push	 esi
  00016	57		 push	 edi
  00017	a1 00 00 00 00	 mov	 eax, DWORD PTR ___security_cookie
  0001c	33 c5		 xor	 eax, ebp
  0001e	50		 push	 eax
  0001f	8d 45 f4	 lea	 eax, DWORD PTR __$EHRec$[ebp]
  00022	64 a3 00 00 00
	00		 mov	 DWORD PTR fs:0, eax
  00028	8b f9		 mov	 edi, ecx
  0002a	c7 45 f0 00 00
	00 00		 mov	 DWORD PTR $T10[ebp], 0

; 1238 : 	CString strSaved("<HorzVert>\r\n");

  00031	8b 4d 08	 mov	 ecx, DWORD PTR ___$ReturnUdt$[ebp]
  00034	68 00 00 00 00	 push	 OFFSET ??_C@_0N@ONIGNFDK@?$DMHorzVert?$DO?$AN?6@
  00039	c7 45 fc 00 00
	00 00		 mov	 DWORD PTR __$EHRec$[ebp+8], 0
  00040	ff 15 00 00 00
	00		 call	 DWORD PTR __imp_??0?$CStringT@DV?$StrTraitMFC_DLL@DV?$ChTraitsCRT@D@ATL@@@@@ATL@@QAE@PBD@Z

; 1244 : 	return strSaved;

  00046	68 00 00 00 00	 push	 OFFSET ??_C@_04KPCPLBPL@Left@
  0004b	8d 4d e8	 lea	 ecx, DWORD PTR $T5[ebp]
  0004e	c7 45 fc 00 00
	00 00		 mov	 DWORD PTR __$EHRec$[ebp+8], 0
  00055	c7 45 f0 01 00
	00 00		 mov	 DWORD PTR $T10[ebp], 1
  0005c	ff 15 00 00 00
	00		 call	 DWORD PTR __imp_??0?$CStringT@DV?$StrTraitMFC_DLL@DV?$ChTraitsCRT@D@ATL@@@@@ATL@@QAE@PBD@Z
  00062	8a 5f 08	 mov	 bl, BYTE PTR [edi+8]
  00065	c7 45 fc 01 00
	00 00		 mov	 DWORD PTR __$EHRec$[ebp+8], 1

; 878  : 	CString data;

  0006c	8d 4d ec	 lea	 ecx, DWORD PTR $T9[ebp]

; 1239 : 	strSaved += CTextPosition::GetDataOfOneLine(m_bLeft, "Left");

  0006f	c6 45 fc 02	 mov	 BYTE PTR __$EHRec$[ebp+8], 2

; 878  : 	CString data;

  00073	ff 15 00 00 00
	00		 call	 DWORD PTR __imp_??0?$CStringT@DV?$StrTraitMFC_DLL@DV?$ChTraitsCRT@D@ATL@@@@@ATL@@QAE@XZ

; 879  : 	data.Format("<%s>%d<\\%s>\r\n", strData, bData, strData);

  00079	8b 45 e8	 mov	 eax, DWORD PTR $T5[ebp]
  0007c	8b 35 00 00 00
	00		 mov	 esi, DWORD PTR __imp_?Format@?$CStringT@DV?$StrTraitMFC_DLL@DV?$ChTraitsCRT@D@ATL@@@@@ATL@@QAAXPBDZZ
  00082	50		 push	 eax
  00083	0f b6 cb	 movzx	 ecx, bl
  00086	51		 push	 ecx
  00087	50		 push	 eax
  00088	8d 45 ec	 lea	 eax, DWORD PTR $T9[ebp]

; 880  : 	return data;

  0008b	c7 45 f0 03 00
	00 00		 mov	 DWORD PTR $T10[ebp], 3
  00092	68 00 00 00 00	 push	 OFFSET ??_C@_0O@LNMCLPEF@?$DM?$CFs?$DO?$CFd?$DM?2?$CFs?$DO?$AN?6@
  00097	50		 push	 eax
  00098	ff d6		 call	 esi

; 1239 : 	strSaved += CTextPosition::GetDataOfOneLine(m_bLeft, "Left");

  0009a	8b 4d 08	 mov	 ecx, DWORD PTR ___$ReturnUdt$[ebp]
  0009d	8d 45 ec	 lea	 eax, DWORD PTR $T9[ebp]

; 879  : 	data.Format("<%s>%d<\\%s>\r\n", strData, bData, strData);

  000a0	83 c4 14	 add	 esp, 20			; 00000014H

; 1239 : 	strSaved += CTextPosition::GetDataOfOneLine(m_bLeft, "Left");

  000a3	50		 push	 eax
  000a4	ff 15 00 00 00
	00		 call	 DWORD PTR __imp_??Y?$CStringT@DV?$StrTraitMFC_DLL@DV?$ChTraitsCRT@D@ATL@@@@@ATL@@QAEAAV01@ABV?$CSimpleStringT@D$00@1@@Z
  000aa	8d 4d ec	 lea	 ecx, DWORD PTR $T9[ebp]
  000ad	c7 45 f0 01 00
	00 00		 mov	 DWORD PTR $T10[ebp], 1
  000b4	ff 15 00 00 00
	00		 call	 DWORD PTR __imp_??1?$CStringT@DV?$StrTraitMFC_DLL@DV?$ChTraitsCRT@D@ATL@@@@@ATL@@QAE@XZ
  000ba	8d 4d e8	 lea	 ecx, DWORD PTR $T5[ebp]
  000bd	c6 45 fc 00	 mov	 BYTE PTR __$EHRec$[ebp+8], 0
  000c1	ff 15 00 00 00
	00		 call	 DWORD PTR __imp_??1?$CStringT@DV?$StrTraitMFC_DLL@DV?$ChTraitsCRT@D@ATL@@@@@ATL@@QAE@XZ

; 1240 : 	strSaved += CTextPosition::GetDataOfOneLine(m_bRight, "Right");

  000c7	68 00 00 00 00	 push	 OFFSET ??_C@_05DADPALEM@Right@
  000cc	8d 4d e8	 lea	 ecx, DWORD PTR $T4[ebp]
  000cf	ff 15 00 00 00
	00		 call	 DWORD PTR __imp_??0?$CStringT@DV?$StrTraitMFC_DLL@DV?$ChTraitsCRT@D@ATL@@@@@ATL@@QAE@PBD@Z
  000d5	8a 5f 09	 mov	 bl, BYTE PTR [edi+9]
  000d8	c7 45 fc 03 00
	00 00		 mov	 DWORD PTR __$EHRec$[ebp+8], 3

; 878  : 	CString data;

  000df	8d 4d ec	 lea	 ecx, DWORD PTR $T8[ebp]

; 1240 : 	strSaved += CTextPosition::GetDataOfOneLine(m_bRight, "Right");

  000e2	c6 45 fc 04	 mov	 BYTE PTR __$EHRec$[ebp+8], 4

; 878  : 	CString data;

  000e6	ff 15 00 00 00
	00		 call	 DWORD PTR __imp_??0?$CStringT@DV?$StrTraitMFC_DLL@DV?$ChTraitsCRT@D@ATL@@@@@ATL@@QAE@XZ

; 879  : 	data.Format("<%s>%d<\\%s>\r\n", strData, bData, strData);

  000ec	8b 45 e8	 mov	 eax, DWORD PTR $T4[ebp]
  000ef	50		 push	 eax
  000f0	0f b6 cb	 movzx	 ecx, bl
  000f3	51		 push	 ecx
  000f4	50		 push	 eax
  000f5	8d 45 ec	 lea	 eax, DWORD PTR $T8[ebp]

; 880  : 	return data;

  000f8	c7 45 f0 05 00
	00 00		 mov	 DWORD PTR $T10[ebp], 5
  000ff	68 00 00 00 00	 push	 OFFSET ??_C@_0O@LNMCLPEF@?$DM?$CFs?$DO?$CFd?$DM?2?$CFs?$DO?$AN?6@
  00104	50		 push	 eax
  00105	ff d6		 call	 esi

; 1240 : 	strSaved += CTextPosition::GetDataOfOneLine(m_bRight, "Right");

  00107	8b 4d 08	 mov	 ecx, DWORD PTR ___$ReturnUdt$[ebp]
  0010a	8d 45 ec	 lea	 eax, DWORD PTR $T8[ebp]

; 879  : 	data.Format("<%s>%d<\\%s>\r\n", strData, bData, strData);

  0010d	83 c4 14	 add	 esp, 20			; 00000014H

; 1240 : 	strSaved += CTextPosition::GetDataOfOneLine(m_bRight, "Right");

  00110	50		 push	 eax
  00111	ff 15 00 00 00
	00		 call	 DWORD PTR __imp_??Y?$CStringT@DV?$StrTraitMFC_DLL@DV?$ChTraitsCRT@D@ATL@@@@@ATL@@QAEAAV01@ABV?$CSimpleStringT@D$00@1@@Z
  00117	8d 4d ec	 lea	 ecx, DWORD PTR $T8[ebp]
  0011a	c7 45 f0 01 00
	00 00		 mov	 DWORD PTR $T10[ebp], 1
  00121	ff 15 00 00 00
	00		 call	 DWORD PTR __imp_??1?$CStringT@DV?$StrTraitMFC_DLL@DV?$ChTraitsCRT@D@ATL@@@@@ATL@@QAE@XZ
  00127	8d 4d e8	 lea	 ecx, DWORD PTR $T4[ebp]
  0012a	c6 45 fc 00	 mov	 BYTE PTR __$EHRec$[ebp+8], 0
  0012e	ff 15 00 00 00
	00		 call	 DWORD PTR __imp_??1?$CStringT@DV?$StrTraitMFC_DLL@DV?$ChTraitsCRT@D@ATL@@@@@ATL@@QAE@XZ

; 1241 : 	strSaved += CTextPosition::GetDataOfOneLine(m_bTop, "Top");

  00134	68 00 00 00 00	 push	 OFFSET ??_C@_03PGGAENPN@Top@
  00139	8d 4d e8	 lea	 ecx, DWORD PTR $T3[ebp]
  0013c	ff 15 00 00 00
	00		 call	 DWORD PTR __imp_??0?$CStringT@DV?$StrTraitMFC_DLL@DV?$ChTraitsCRT@D@ATL@@@@@ATL@@QAE@PBD@Z
  00142	8a 5f 0a	 mov	 bl, BYTE PTR [edi+10]
  00145	c7 45 fc 05 00
	00 00		 mov	 DWORD PTR __$EHRec$[ebp+8], 5

; 878  : 	CString data;

  0014c	8d 4d ec	 lea	 ecx, DWORD PTR $T7[ebp]

; 1241 : 	strSaved += CTextPosition::GetDataOfOneLine(m_bTop, "Top");

  0014f	c6 45 fc 06	 mov	 BYTE PTR __$EHRec$[ebp+8], 6

; 878  : 	CString data;

  00153	ff 15 00 00 00
	00		 call	 DWORD PTR __imp_??0?$CStringT@DV?$StrTraitMFC_DLL@DV?$ChTraitsCRT@D@ATL@@@@@ATL@@QAE@XZ

; 879  : 	data.Format("<%s>%d<\\%s>\r\n", strData, bData, strData);

  00159	8b 45 e8	 mov	 eax, DWORD PTR $T3[ebp]
  0015c	50		 push	 eax
  0015d	0f b6 cb	 movzx	 ecx, bl
  00160	51		 push	 ecx
  00161	50		 push	 eax
  00162	8d 45 ec	 lea	 eax, DWORD PTR $T7[ebp]

; 880  : 	return data;

  00165	c7 45 f0 09 00
	00 00		 mov	 DWORD PTR $T10[ebp], 9
  0016c	68 00 00 00 00	 push	 OFFSET ??_C@_0O@LNMCLPEF@?$DM?$CFs?$DO?$CFd?$DM?2?$CFs?$DO?$AN?6@
  00171	50		 push	 eax
  00172	ff d6		 call	 esi

; 1241 : 	strSaved += CTextPosition::GetDataOfOneLine(m_bTop, "Top");

  00174	8b 4d 08	 mov	 ecx, DWORD PTR ___$ReturnUdt$[ebp]
  00177	8d 45 ec	 lea	 eax, DWORD PTR $T7[ebp]

; 879  : 	data.Format("<%s>%d<\\%s>\r\n", strData, bData, strData);

  0017a	83 c4 14	 add	 esp, 20			; 00000014H

; 1241 : 	strSaved += CTextPosition::GetDataOfOneLine(m_bTop, "Top");

  0017d	50		 push	 eax
  0017e	ff 15 00 00 00
	00		 call	 DWORD PTR __imp_??Y?$CStringT@DV?$StrTraitMFC_DLL@DV?$ChTraitsCRT@D@ATL@@@@@ATL@@QAEAAV01@ABV?$CSimpleStringT@D$00@1@@Z
  00184	8d 4d ec	 lea	 ecx, DWORD PTR $T7[ebp]
  00187	c7 45 f0 01 00
	00 00		 mov	 DWORD PTR $T10[ebp], 1
  0018e	ff 15 00 00 00
	00		 call	 DWORD PTR __imp_??1?$CStringT@DV?$StrTraitMFC_DLL@DV?$ChTraitsCRT@D@ATL@@@@@ATL@@QAE@XZ
  00194	8d 4d e8	 lea	 ecx, DWORD PTR $T3[ebp]
  00197	c6 45 fc 00	 mov	 BYTE PTR __$EHRec$[ebp+8], 0
  0019b	ff 15 00 00 00
	00		 call	 DWORD PTR __imp_??1?$CStringT@DV?$StrTraitMFC_DLL@DV?$ChTraitsCRT@D@ATL@@@@@ATL@@QAE@XZ

; 1242 : 	strSaved += CTextPosition::GetDataOfOneLine(m_bBottom, "Bottom");

  001a1	68 00 00 00 00	 push	 OFFSET ??_C@_06DDHCBBGN@Bottom@
  001a6	8d 4d e8	 lea	 ecx, DWORD PTR $T2[ebp]
  001a9	ff 15 00 00 00
	00		 call	 DWORD PTR __imp_??0?$CStringT@DV?$StrTraitMFC_DLL@DV?$ChTraitsCRT@D@ATL@@@@@ATL@@QAE@PBD@Z
  001af	8a 5f 0b	 mov	 bl, BYTE PTR [edi+11]
  001b2	c7 45 fc 07 00
	00 00		 mov	 DWORD PTR __$EHRec$[ebp+8], 7

; 878  : 	CString data;

  001b9	8d 4d ec	 lea	 ecx, DWORD PTR $T6[ebp]

; 1242 : 	strSaved += CTextPosition::GetDataOfOneLine(m_bBottom, "Bottom");

  001bc	c6 45 fc 08	 mov	 BYTE PTR __$EHRec$[ebp+8], 8

; 878  : 	CString data;

  001c0	ff 15 00 00 00
	00		 call	 DWORD PTR __imp_??0?$CStringT@DV?$StrTraitMFC_DLL@DV?$ChTraitsCRT@D@ATL@@@@@ATL@@QAE@XZ

; 879  : 	data.Format("<%s>%d<\\%s>\r\n", strData, bData, strData);

  001c6	8b 45 e8	 mov	 eax, DWORD PTR $T2[ebp]
  001c9	50		 push	 eax
  001ca	0f b6 cb	 movzx	 ecx, bl
  001cd	51		 push	 ecx
  001ce	50		 push	 eax
  001cf	8d 45 ec	 lea	 eax, DWORD PTR $T6[ebp]

; 880  : 	return data;

  001d2	c7 45 f0 11 00
	00 00		 mov	 DWORD PTR $T10[ebp], 17	; 00000011H
  001d9	68 00 00 00 00	 push	 OFFSET ??_C@_0O@LNMCLPEF@?$DM?$CFs?$DO?$CFd?$DM?2?$CFs?$DO?$AN?6@
  001de	50		 push	 eax
  001df	ff d6		 call	 esi

; 1242 : 	strSaved += CTextPosition::GetDataOfOneLine(m_bBottom, "Bottom");

  001e1	8b 5d 08	 mov	 ebx, DWORD PTR ___$ReturnUdt$[ebp]
  001e4	8d 45 ec	 lea	 eax, DWORD PTR $T6[ebp]

; 879  : 	data.Format("<%s>%d<\\%s>\r\n", strData, bData, strData);

  001e7	83 c4 14	 add	 esp, 20			; 00000014H

; 1242 : 	strSaved += CTextPosition::GetDataOfOneLine(m_bBottom, "Bottom");

  001ea	8b cb		 mov	 ecx, ebx
  001ec	50		 push	 eax
  001ed	ff 15 00 00 00
	00		 call	 DWORD PTR __imp_??Y?$CStringT@DV?$StrTraitMFC_DLL@DV?$ChTraitsCRT@D@ATL@@@@@ATL@@QAEAAV01@ABV?$CSimpleStringT@D$00@1@@Z
  001f3	8d 4d ec	 lea	 ecx, DWORD PTR $T6[ebp]
  001f6	c7 45 f0 01 00
	00 00		 mov	 DWORD PTR $T10[ebp], 1
  001fd	ff 15 00 00 00
	00		 call	 DWORD PTR __imp_??1?$CStringT@DV?$StrTraitMFC_DLL@DV?$ChTraitsCRT@D@ATL@@@@@ATL@@QAE@XZ
  00203	8d 4d e8	 lea	 ecx, DWORD PTR $T2[ebp]
  00206	c6 45 fc 00	 mov	 BYTE PTR __$EHRec$[ebp+8], 0
  0020a	ff 15 00 00 00
	00		 call	 DWORD PTR __imp_??1?$CStringT@DV?$StrTraitMFC_DLL@DV?$ChTraitsCRT@D@ATL@@@@@ATL@@QAE@XZ

; 1243 : 	strSaved += "<\\HorzVert>\r\n";

  00210	68 00 00 00 00	 push	 OFFSET ??_C@_0O@LMJJOFLI@?$DM?2HorzVert?$DO?$AN?6@
  00215	8b cb		 mov	 ecx, ebx
  00217	ff 15 00 00 00
	00		 call	 DWORD PTR __imp_??Y?$CStringT@DV?$StrTraitMFC_DLL@DV?$ChTraitsCRT@D@ATL@@@@@ATL@@QAEAAV01@PBD@Z

; 1244 : 	return strSaved;

  0021d	8b c3		 mov	 eax, ebx

; 1245 : }

  0021f	8b 4d f4	 mov	 ecx, DWORD PTR __$EHRec$[ebp]
  00222	64 89 0d 00 00
	00 00		 mov	 DWORD PTR fs:0, ecx
  00229	59		 pop	 ecx
  0022a	5f		 pop	 edi
  0022b	5e		 pop	 esi
  0022c	5b		 pop	 ebx
  0022d	8b e5		 mov	 esp, ebp
  0022f	5d		 pop	 ebp
  00230	c2 04 00	 ret	 4
_TEXT	ENDS
;	COMDAT text$x
text$x	SEGMENT
__unwindfunclet$?GetSavedRealTextPositionData@CTextHorzVertPosition@@MBE?AV?$CStringT@DV?$StrTraitMFC_DLL@DV?$ChTraitsCRT@D@ATL@@@@@ATL@@XZ$0:
  00000	8b 45 f0	 mov	 eax, DWORD PTR $T10[ebp]
  00003	83 e0 01	 and	 eax, 1
  00006	0f 84 0d 00 00
	00		 je	 $LN4@GetSavedRe
  0000c	83 65 f0 fe	 and	 DWORD PTR $T10[ebp], -2	; fffffffeH
  00010	8b 4d 08	 mov	 ecx, DWORD PTR ___$ReturnUdt$[ebp]
  00013	ff 25 00 00 00
	00		 jmp	 DWORD PTR __imp_??1?$CStringT@DV?$StrTraitMFC_DLL@DV?$ChTraitsCRT@D@ATL@@@@@ATL@@QAE@XZ
$LN4@GetSavedRe:
  00019	c3		 ret	 0
__unwindfunclet$?GetSavedRealTextPositionData@CTextHorzVertPosition@@MBE?AV?$CStringT@DV?$StrTraitMFC_DLL@DV?$ChTraitsCRT@D@ATL@@@@@ATL@@XZ$1:
  0001a	8d 4d e8	 lea	 ecx, DWORD PTR $T5[ebp]
  0001d	ff 25 00 00 00
	00		 jmp	 DWORD PTR __imp_??1?$CStringT@DV?$StrTraitMFC_DLL@DV?$ChTraitsCRT@D@ATL@@@@@ATL@@QAE@XZ
__unwindfunclet$?GetSavedRealTextPositionData@CTextHorzVertPosition@@MBE?AV?$CStringT@DV?$StrTraitMFC_DLL@DV?$ChTraitsCRT@D@ATL@@@@@ATL@@XZ$9:
  00023	8b 45 f0	 mov	 eax, DWORD PTR $T10[ebp]
  00026	83 e0 02	 and	 eax, 2
  00029	0f 84 0d 00 00
	00		 je	 $LN16@GetSavedRe
  0002f	83 65 f0 fd	 and	 DWORD PTR $T10[ebp], -3	; fffffffdH
  00033	8d 4d ec	 lea	 ecx, DWORD PTR $T9[ebp]
  00036	ff 25 00 00 00
	00		 jmp	 DWORD PTR __imp_??1?$CStringT@DV?$StrTraitMFC_DLL@DV?$ChTraitsCRT@D@ATL@@@@@ATL@@QAE@XZ
$LN16@GetSavedRe:
  0003c	c3		 ret	 0
__unwindfunclet$?GetSavedRealTextPositionData@CTextHorzVertPosition@@MBE?AV?$CStringT@DV?$StrTraitMFC_DLL@DV?$ChTraitsCRT@D@ATL@@@@@ATL@@XZ$3:
  0003d	8d 4d e8	 lea	 ecx, DWORD PTR $T4[ebp]
  00040	ff 25 00 00 00
	00		 jmp	 DWORD PTR __imp_??1?$CStringT@DV?$StrTraitMFC_DLL@DV?$ChTraitsCRT@D@ATL@@@@@ATL@@QAE@XZ
__unwindfunclet$?GetSavedRealTextPositionData@CTextHorzVertPosition@@MBE?AV?$CStringT@DV?$StrTraitMFC_DLL@DV?$ChTraitsCRT@D@ATL@@@@@ATL@@XZ$10:
  00046	8b 45 f0	 mov	 eax, DWORD PTR $T10[ebp]
  00049	83 e0 04	 and	 eax, 4
  0004c	0f 84 0d 00 00
	00		 je	 $LN20@GetSavedRe
  00052	83 65 f0 fb	 and	 DWORD PTR $T10[ebp], -5	; fffffffbH
  00056	8d 4d ec	 lea	 ecx, DWORD PTR $T8[ebp]
  00059	ff 25 00 00 00
	00		 jmp	 DWORD PTR __imp_??1?$CStringT@DV?$StrTraitMFC_DLL@DV?$ChTraitsCRT@D@ATL@@@@@ATL@@QAE@XZ
$LN20@GetSavedRe:
  0005f	c3		 ret	 0
__unwindfunclet$?GetSavedRealTextPositionData@CTextHorzVertPosition@@MBE?AV?$CStringT@DV?$StrTraitMFC_DLL@DV?$ChTraitsCRT@D@ATL@@@@@ATL@@XZ$5:
  00060	8d 4d e8	 lea	 ecx, DWORD PTR $T3[ebp]
  00063	ff 25 00 00 00
	00		 jmp	 DWORD PTR __imp_??1?$CStringT@DV?$StrTraitMFC_DLL@DV?$ChTraitsCRT@D@ATL@@@@@ATL@@QAE@XZ
__unwindfunclet$?GetSavedRealTextPositionData@CTextHorzVertPosition@@MBE?AV?$CStringT@DV?$StrTraitMFC_DLL@DV?$ChTraitsCRT@D@ATL@@@@@ATL@@XZ$11:
  00069	8b 45 f0	 mov	 eax, DWORD PTR $T10[ebp]
  0006c	83 e0 08	 and	 eax, 8
  0006f	0f 84 0d 00 00
	00		 je	 $LN24@GetSavedRe
  00075	83 65 f0 f7	 and	 DWORD PTR $T10[ebp], -9	; fffffff7H
  00079	8d 4d ec	 lea	 ecx, DWORD PTR $T7[ebp]
  0007c	ff 25 00 00 00
	00		 jmp	 DWORD PTR __imp_??1?$CStringT@DV?$StrTraitMFC_DLL@DV?$ChTraitsCRT@D@ATL@@@@@ATL@@QAE@XZ
$LN24@GetSavedRe:
  00082	c3		 ret	 0
__unwindfunclet$?GetSavedRealTextPositionData@CTextHorzVertPosition@@MBE?AV?$CStringT@DV?$StrTraitMFC_DLL@DV?$ChTraitsCRT@D@ATL@@@@@ATL@@XZ$7:
  00083	8d 4d e8	 lea	 ecx, DWORD PTR $T2[ebp]
  00086	ff 25 00 00 00
	00		 jmp	 DWORD PTR __imp_??1?$CStringT@DV?$StrTraitMFC_DLL@DV?$ChTraitsCRT@D@ATL@@@@@ATL@@QAE@XZ
__unwindfunclet$?GetSavedRealTextPositionData@CTextHorzVertPosition@@MBE?AV?$CStringT@DV?$StrTraitMFC_DLL@DV?$ChTraitsCRT@D@ATL@@@@@ATL@@XZ$12:
  0008c	8b 45 f0	 mov	 eax, DWORD PTR $T10[ebp]
  0008f	83 e0 10	 and	 eax, 16			; 00000010H
  00092	0f 84 0d 00 00
	00		 je	 $LN28@GetSavedRe
  00098	83 65 f0 ef	 and	 DWORD PTR $T10[ebp], -17 ; ffffffefH
  0009c	8d 4d ec	 lea	 ecx, DWORD PTR $T6[ebp]
  0009f	ff 25 00 00 00
	00		 jmp	 DWORD PTR __imp_??1?$CStringT@DV?$StrTraitMFC_DLL@DV?$ChTraitsCRT@D@ATL@@@@@ATL@@QAE@XZ
$LN28@GetSavedRe:
  000a5	c3		 ret	 0
  000a6	cc		 int	 3
  000a7	cc		 int	 3
  000a8	cc		 int	 3
  000a9	cc		 int	 3
  000aa	cc		 int	 3
__ehhandler$?GetSavedRealTextPositionData@CTextHorzVertPosition@@MBE?AV?$CStringT@DV?$StrTraitMFC_DLL@DV?$ChTraitsCRT@D@ATL@@@@@ATL@@XZ:
  000ab	90		 npad	 1
  000ac	90		 npad	 1
  000ad	8b 54 24 08	 mov	 edx, DWORD PTR [esp+8]
  000b1	8d 42 0c	 lea	 eax, DWORD PTR [edx+12]
  000b4	8b 4a e4	 mov	 ecx, DWORD PTR [edx-28]
  000b7	33 c8		 xor	 ecx, eax
  000b9	e8 00 00 00 00	 call	 @__security_check_cookie@4
  000be	b8 00 00 00 00	 mov	 eax, OFFSET __ehfuncinfo$?GetSavedRealTextPositionData@CTextHorzVertPosition@@MBE?AV?$CStringT@DV?$StrTraitMFC_DLL@DV?$ChTraitsCRT@D@ATL@@@@@ATL@@XZ
  000c3	e9 00 00 00 00	 jmp	 ___CxxFrameHandler3
text$x	ENDS
?GetSavedRealTextPositionData@CTextHorzVertPosition@@MBE?AV?$CStringT@DV?$StrTraitMFC_DLL@DV?$ChTraitsCRT@D@ATL@@@@@ATL@@XZ ENDP ; CTextHorzVertPosition::GetSavedRealTextPositionData
; Function compile flags: /Ogtp
; File D:\git\src\IBK\IBK_DRFN\ProjSrc\SrcChartEx\ChartAddIn\ChartAnalysisToolAddIn\Include_Analysis\ElementEnvironment.cpp
;	COMDAT ?GetVert@CTextHorzVertPosition@@QBE?AVCTextVertPosition@@XZ
_TEXT	SEGMENT
___$ReturnUdt$ = 8					; size = 4
?GetVert@CTextHorzVertPosition@@QBE?AVCTextVertPosition@@XZ PROC ; CTextHorzVertPosition::GetVert, COMDAT
; _this$ = ecx

; 1224 : {

  00000	55		 push	 ebp
  00001	8b ec		 mov	 ebp, esp

; 765  : 	m_color = environment.GetColor();

  00003	8b 45 08	 mov	 eax, DWORD PTR ___$ReturnUdt$[ebp]
  00006	8b 51 04	 mov	 edx, DWORD PTR [ecx+4]

; 1224 : {

  00009	53		 push	 ebx

; 1225 : 	return CTextVertPosition(CTextPosition::GetTextEnvironment(), m_bTop, m_bBottom);

  0000a	8a 59 0b	 mov	 bl, BYTE PTR [ecx+11]
  0000d	8a 49 0a	 mov	 cl, BYTE PTR [ecx+10]

; 1063 : 	m_bBottom(bBottom)

  00010	88 58 09	 mov	 BYTE PTR [eax+9], bl

; 765  : 	m_color = environment.GetColor();

  00013	89 50 04	 mov	 DWORD PTR [eax+4], edx

; 1064 : {

  00016	c7 00 00 00 00
	00		 mov	 DWORD PTR [eax], OFFSET ??_7CTextVertPosition@@6B@

; 766  : }
; 767  : 
; 768  : CTextEnvironment::CTextEnvironment(CTextEnvironment* pEnvironment)
; 769  : {
; 770  : 	if(pEnvironment == NULL)
; 771  : 		return;
; 772  : 
; 773  : 	m_color = pEnvironment->GetColor();
; 774  : }
; 775  : 
; 776  : 
; 777  : // public =====================================================================
; 778  : void CTextEnvironment::Set(const CTextEnvironment& environment)
; 779  : {
; 780  : 	m_color = environment.GetColor();
; 781  : }
; 782  : 
; 783  : void CTextEnvironment::SetColor(const COLORREF& color)
; 784  : {
; 785  : 	m_color = color;
; 786  : }
; 787  : 
; 788  : // ----------------------------------------------------------------------------
; 789  : COLORREF CTextEnvironment::GetColor() const
; 790  : {
; 791  : 	return m_color;
; 792  : }
; 793  : 
; 794  : // <TextEnvironment>
; 795  : // <Color>0,0,0<\\Color>
; 796  : // <\\TextEnvironment>
; 797  : CString CTextEnvironment::GetSavedData() const
; 798  : {
; 799  : 	CString strSaved;
; 800  : 	strSaved.Format("<TextEnvironment>\r\n%s<\\TextEnvironment>\r\n", GetSavedColor());
; 801  : 	return strSaved;
; 802  : }
; 803  : 
; 804  : 
; 805  : // private ====================================================================
; 806  : CString CTextEnvironment::GetSavedColor() const
; 807  : {
; 808  : 	return ("<Color>" + CDataConversion::RGB2Str(m_color) + "<\\Color>\r\n");
; 809  : }
; 810  : 
; 811  : 
; 812  : ///////////////////////////////////////////////////////////////////////////////
; 813  : // class CTextPosition
; 814  : 
; 815  : CTextPosition& CTextPosition::operator=(const CTextPosition& environment)
; 816  : {
; 817  : 	if(this == &environment)
; 818  : 		return *this;
; 819  : 
; 820  : 	m_textEnvironment = environment.GetTextEnvironment();
; 821  : 	return *this;
; 822  : }
; 823  : 
; 824  : // ----------------------------------------------------------------------------
; 825  : CTextPosition::CTextPosition()
; 826  : {
; 827  : }
; 828  : 
; 829  : CTextPosition::CTextPosition(const CTextEnvironment& textEnvironment):
; 830  : 	m_textEnvironment(textEnvironment)
; 831  : {
; 832  : }
; 833  : 
; 834  : // public =====================================================================
; 835  : void CTextPosition::Set(const CTextPosition* pTextPosition)
; 836  : {
; 837  : 	if(pTextPosition == NULL)
; 838  : 		return;
; 839  : 	SetTextEnvironment(pTextPosition->GetTextEnvironment());
; 840  : }
; 841  : 
; 842  : void CTextPosition::SetTextEnvironment(const CTextEnvironment& textEnvironment)
; 843  : {
; 844  : 	m_textEnvironment = textEnvironment;
; 845  : }
; 846  : 
; 847  : // ----------------------------------------------------------------------------
; 848  : CTextEnvironment CTextPosition::GetTextEnvironment() const
; 849  : {
; 850  : 	return m_textEnvironment;
; 851  : }
; 852  : 
; 853  : CTextEnvironment& CTextPosition::GetTextEnvironment()
; 854  : {
; 855  : 	return m_textEnvironment;
; 856  : }
; 857  : 
; 858  : // <PartEnvironment>
; 859  : // <TextEnvironment>
; 860  : // <Color>0,0,0<\\Color>
; 861  : // <\\TextEnvironment>
; 862  : // <TextPosition>
; 863  : // ...
; 864  : // <\\TextPosition>
; 865  : // <\\PartEnvironment>
; 866  : CString CTextPosition::GetSavedData() const
; 867  : {
; 868  : 	CString strSaved;
; 869  : 	strSaved.Format("<PartEnvironment>\r\n%s%s<\\PartEnvironment>\r\n", 
; 870  : 		m_textEnvironment.GetSavedData(), GetSavedData_TextPosition());
; 871  : 	return strSaved;
; 872  : }
; 873  : 
; 874  : 
; 875  : // protected ==================================================================
; 876  : CString CTextPosition::GetDataOfOneLine(const bool bData, const CString& strData) const
; 877  : {
; 878  : 	CString data;
; 879  : 	data.Format("<%s>%d<\\%s>\r\n", strData, bData, strData);
; 880  : 	return data;
; 881  : }
; 882  : 
; 883  : // private ====================================================================
; 884  : // <TextPosition>
; 885  : // <Horz>
; 886  : // <Show>0<\\Show>
; 887  : // <\\Horz>
; 888  : // <Horz>
; 889  : // <Left>0<\\Left>
; 890  : // <Right>0<\\Right>
; 891  : // <\\Horz>
; 892  : // <Vert>
; 893  : // <Top>0<\\Top>
; 894  : // <Bottom>0<\\Bottom>
; 895  : // <\\Vert>
; 896  : // <\\TextPosition>
; 897  : CString CTextPosition::GetSavedData_TextPosition() const
; 898  : {
; 899  : 	CString strSaved;
; 900  : 	strSaved.Format("<TextPosition>\r\n%s<\\TextPosition>\r\n", 
; 901  : 		GetSavedRealTextPositionData());
; 902  : 	return strSaved;
; 903  : }
; 904  : 
; 905  : 
; 906  : ///////////////////////////////////////////////////////////////////////////////
; 907  : // class CTextShowPosition
; 908  : 
; 909  : CTextShowPosition::CTextShowPosition():
; 910  : 	m_bShow(true)
; 911  : {
; 912  : }
; 913  : 
; 914  : CTextShowPosition::CTextShowPosition(const CTextEnvironment& environment, const bool bShow):
; 915  : 	CTextPosition(environment), 
; 916  : 	m_bShow(bShow)
; 917  : {
; 918  : }
; 919  : 
; 920  : CTextShowPosition::CTextShowPosition(const CTextShowPosition& position):
; 921  : 	CTextPosition(position.GetTextEnvironment()), 
; 922  : 	m_bShow(position.IsShow())
; 923  : {
; 924  : }
; 925  : 
; 926  : 
; 927  : // public =====================================================================
; 928  : void CTextShowPosition::Set(const CTextPosition* pTextPosition)
; 929  : {
; 930  : 	if(pTextPosition == NULL)
; 931  : 		return;
; 932  : 
; 933  : 	CTextShowPosition* pTextShowPosition = (CTextShowPosition*) pTextPosition;
; 934  : 	assert(pTextShowPosition != NULL);
; 935  : 	SetShow(pTextShowPosition->IsShow());
; 936  : 
; 937  : 	CTextPosition::Set(pTextPosition);
; 938  : }
; 939  : 
; 940  : void CTextShowPosition::SetShow(const bool bShow)
; 941  : {
; 942  : 	m_bShow = bShow;
; 943  : }
; 944  : 
; 945  : bool CTextShowPosition::IsShow() const
; 946  : {
; 947  : 	return m_bShow;
; 948  : }
; 949  : 
; 950  : // protected ==================================================================
; 951  : // <Horz>
; 952  : // <Show>0<\\Show>
; 953  : // <\\Horz>
; 954  : CString CTextShowPosition::GetSavedRealTextPositionData() const
; 955  : {
; 956  : 	CString strSaved;
; 957  : 	strSaved.Format("<Horz>\r\n%s<\\Horz>\r\n", 
; 958  : 		CTextPosition::GetDataOfOneLine(m_bShow, "Show"));// 2008.08.20    
; 959  : 	return strSaved;
; 960  : }
; 961  : 
; 962  : 
; 963  : ///////////////////////////////////////////////////////////////////////////////
; 964  : // class CTextHorzPosition
; 965  : 
; 966  : CTextHorzPosition::CTextHorzPosition():
; 967  : 	m_bLeft(true),
; 968  : 	m_bRight(true)
; 969  : {
; 970  : }
; 971  : 
; 972  : CTextHorzPosition::CTextHorzPosition(const CTextEnvironment& environment, const bool bLeft, const bool bRight, const bool bRightRate):
; 973  : 	CTextPosition(environment), 
; 974  : 	m_bLeft(bLeft),
; 975  : 	m_bRight(bRight),
; 976  : 	m_bRightRate(bRightRate)
; 977  : {
; 978  : }
; 979  : 
; 980  : CTextHorzPosition::CTextHorzPosition(const CTextHorzPosition& position):
; 981  : 	CTextPosition(position.GetTextEnvironment()), 
; 982  : 	m_bLeft(position.GetLeft()),
; 983  : 	m_bRight(position.GetRight()),
; 984  : 	m_bRightRate(position.GetRightRate())
; 985  : {
; 986  : }
; 987  : 
; 988  : 
; 989  : // public =====================================================================
; 990  : void CTextHorzPosition::Set(const CTextPosition* pTextPosition)
; 991  : {
; 992  : 	if(pTextPosition == NULL)
; 993  : 		return;
; 994  : 
; 995  : 	CTextHorzPosition* pTextHorzPosition = (CTextHorzPosition*) pTextPosition;
; 996  : 	assert(pTextHorzPosition != NULL);
; 997  : 	SetLeft(pTextHorzPosition->GetLeft());
; 998  : 	SetRight(pTextHorzPosition->GetRight());
; 999  : 	SetRightRate(pTextHorzPosition->GetRightRate());
; 1000 : 
; 1001 : 	CTextPosition::Set(pTextPosition);
; 1002 : }
; 1003 : 
; 1004 : void CTextHorzPosition::SetLeft(const bool bLeft)
; 1005 : {
; 1006 : 	m_bLeft = bLeft;
; 1007 : }
; 1008 : 
; 1009 : void CTextHorzPosition::SetRight(const bool bRight)
; 1010 : {
; 1011 : 	m_bRight = bRight;
; 1012 : }
; 1013 : 
; 1014 : void CTextHorzPosition::SetRightRate(const bool bValue)
; 1015 : {
; 1016 : 	m_bRightRate = bValue;
; 1017 : }
; 1018 : 
; 1019 : bool CTextHorzPosition::GetLeft() const
; 1020 : {
; 1021 : 	return m_bLeft;
; 1022 : }
; 1023 : 
; 1024 : bool CTextHorzPosition::GetRight() const
; 1025 : {
; 1026 : 	return m_bRight;
; 1027 : }
; 1028 : 
; 1029 : bool CTextHorzPosition::GetRightRate() const
; 1030 : {
; 1031 : 	return m_bRightRate;
; 1032 : }
; 1033 : 
; 1034 : // protected ==================================================================
; 1035 : // <Horz>
; 1036 : // <Left>0<\\Left>
; 1037 : // <Right>0<\\Right>
; 1038 : // <Rate>0<\\Rate>
; 1039 : // <\\Horz>
; 1040 : CString CTextHorzPosition::GetSavedRealTextPositionData() const
; 1041 : {
; 1042 : 	CString strSaved;
; 1043 : 	strSaved.Format("<Horz>\r\n%s%s%s<\\Horz>\r\n", 
; 1044 : 		CTextPosition::GetDataOfOneLine(m_bLeft, "Left"), 
; 1045 : 		CTextPosition::GetDataOfOneLine(m_bRight, "Right"),
; 1046 : 		CTextPosition::GetDataOfOneLine(m_bRightRate, "Rate"));
; 1047 : 	return strSaved;
; 1048 : }
; 1049 : 
; 1050 : 
; 1051 : ///////////////////////////////////////////////////////////////////////////////
; 1052 : // class CTextVertPosition
; 1053 : 
; 1054 : CTextVertPosition::CTextVertPosition():
; 1055 : 	m_bTop(true),
; 1056 : 	m_bBottom(true)
; 1057 : {
; 1058 : }
; 1059 : 
; 1060 : CTextVertPosition::CTextVertPosition(const CTextEnvironment& environment, const bool bTop, const bool bBottom):
; 1061 : 	CTextPosition(environment), 
; 1062 : 	m_bTop(bTop),

  0001c	88 48 08	 mov	 BYTE PTR [eax+8], cl

; 1225 : 	return CTextVertPosition(CTextPosition::GetTextEnvironment(), m_bTop, m_bBottom);

  0001f	5b		 pop	 ebx

; 1226 : }

  00020	5d		 pop	 ebp
  00021	c2 04 00	 ret	 4
?GetVert@CTextHorzVertPosition@@QBE?AVCTextVertPosition@@XZ ENDP ; CTextHorzVertPosition::GetVert
_TEXT	ENDS
; Function compile flags: /Ogtp
; File D:\git\src\IBK\IBK_DRFN\ProjSrc\SrcChartEx\ChartAddIn\ChartAnalysisToolAddIn\Include_Analysis\ElementEnvironment.cpp
;	COMDAT ?GetHorz@CTextHorzVertPosition@@QBE?AVCTextHorzPosition@@XZ
_TEXT	SEGMENT
___$ReturnUdt$ = 8					; size = 4
?GetHorz@CTextHorzVertPosition@@QBE?AVCTextHorzPosition@@XZ PROC ; CTextHorzVertPosition::GetHorz, COMDAT
; _this$ = ecx

; 1219 : {

  00000	55		 push	 ebp
  00001	8b ec		 mov	 ebp, esp

; 765  : 	m_color = environment.GetColor();

  00003	8b 45 08	 mov	 eax, DWORD PTR ___$ReturnUdt$[ebp]
  00006	8b 51 04	 mov	 edx, DWORD PTR [ecx+4]

; 1219 : {

  00009	53		 push	 ebx

; 1220 : 	return CTextHorzPosition(CTextPosition::GetTextEnvironment(), m_bLeft, m_bRight);

  0000a	8a 59 09	 mov	 bl, BYTE PTR [ecx+9]
  0000d	8a 49 08	 mov	 cl, BYTE PTR [ecx+8]

; 975  : 	m_bRight(bRight),

  00010	88 58 09	 mov	 BYTE PTR [eax+9], bl

; 765  : 	m_color = environment.GetColor();

  00013	89 50 04	 mov	 DWORD PTR [eax+4], edx

; 977  : {

  00016	c7 00 00 00 00
	00		 mov	 DWORD PTR [eax], OFFSET ??_7CTextHorzPosition@@6B@

; 766  : }
; 767  : 
; 768  : CTextEnvironment::CTextEnvironment(CTextEnvironment* pEnvironment)
; 769  : {
; 770  : 	if(pEnvironment == NULL)
; 771  : 		return;
; 772  : 
; 773  : 	m_color = pEnvironment->GetColor();
; 774  : }
; 775  : 
; 776  : 
; 777  : // public =====================================================================
; 778  : void CTextEnvironment::Set(const CTextEnvironment& environment)
; 779  : {
; 780  : 	m_color = environment.GetColor();
; 781  : }
; 782  : 
; 783  : void CTextEnvironment::SetColor(const COLORREF& color)
; 784  : {
; 785  : 	m_color = color;
; 786  : }
; 787  : 
; 788  : // ----------------------------------------------------------------------------
; 789  : COLORREF CTextEnvironment::GetColor() const
; 790  : {
; 791  : 	return m_color;
; 792  : }
; 793  : 
; 794  : // <TextEnvironment>
; 795  : // <Color>0,0,0<\\Color>
; 796  : // <\\TextEnvironment>
; 797  : CString CTextEnvironment::GetSavedData() const
; 798  : {
; 799  : 	CString strSaved;
; 800  : 	strSaved.Format("<TextEnvironment>\r\n%s<\\TextEnvironment>\r\n", GetSavedColor());
; 801  : 	return strSaved;
; 802  : }
; 803  : 
; 804  : 
; 805  : // private ====================================================================
; 806  : CString CTextEnvironment::GetSavedColor() const
; 807  : {
; 808  : 	return ("<Color>" + CDataConversion::RGB2Str(m_color) + "<\\Color>\r\n");
; 809  : }
; 810  : 
; 811  : 
; 812  : ///////////////////////////////////////////////////////////////////////////////
; 813  : // class CTextPosition
; 814  : 
; 815  : CTextPosition& CTextPosition::operator=(const CTextPosition& environment)
; 816  : {
; 817  : 	if(this == &environment)
; 818  : 		return *this;
; 819  : 
; 820  : 	m_textEnvironment = environment.GetTextEnvironment();
; 821  : 	return *this;
; 822  : }
; 823  : 
; 824  : // ----------------------------------------------------------------------------
; 825  : CTextPosition::CTextPosition()
; 826  : {
; 827  : }
; 828  : 
; 829  : CTextPosition::CTextPosition(const CTextEnvironment& textEnvironment):
; 830  : 	m_textEnvironment(textEnvironment)
; 831  : {
; 832  : }
; 833  : 
; 834  : // public =====================================================================
; 835  : void CTextPosition::Set(const CTextPosition* pTextPosition)
; 836  : {
; 837  : 	if(pTextPosition == NULL)
; 838  : 		return;
; 839  : 	SetTextEnvironment(pTextPosition->GetTextEnvironment());
; 840  : }
; 841  : 
; 842  : void CTextPosition::SetTextEnvironment(const CTextEnvironment& textEnvironment)
; 843  : {
; 844  : 	m_textEnvironment = textEnvironment;
; 845  : }
; 846  : 
; 847  : // ----------------------------------------------------------------------------
; 848  : CTextEnvironment CTextPosition::GetTextEnvironment() const
; 849  : {
; 850  : 	return m_textEnvironment;
; 851  : }
; 852  : 
; 853  : CTextEnvironment& CTextPosition::GetTextEnvironment()
; 854  : {
; 855  : 	return m_textEnvironment;
; 856  : }
; 857  : 
; 858  : // <PartEnvironment>
; 859  : // <TextEnvironment>
; 860  : // <Color>0,0,0<\\Color>
; 861  : // <\\TextEnvironment>
; 862  : // <TextPosition>
; 863  : // ...
; 864  : // <\\TextPosition>
; 865  : // <\\PartEnvironment>
; 866  : CString CTextPosition::GetSavedData() const
; 867  : {
; 868  : 	CString strSaved;
; 869  : 	strSaved.Format("<PartEnvironment>\r\n%s%s<\\PartEnvironment>\r\n", 
; 870  : 		m_textEnvironment.GetSavedData(), GetSavedData_TextPosition());
; 871  : 	return strSaved;
; 872  : }
; 873  : 
; 874  : 
; 875  : // protected ==================================================================
; 876  : CString CTextPosition::GetDataOfOneLine(const bool bData, const CString& strData) const
; 877  : {
; 878  : 	CString data;
; 879  : 	data.Format("<%s>%d<\\%s>\r\n", strData, bData, strData);
; 880  : 	return data;
; 881  : }
; 882  : 
; 883  : // private ====================================================================
; 884  : // <TextPosition>
; 885  : // <Horz>
; 886  : // <Show>0<\\Show>
; 887  : // <\\Horz>
; 888  : // <Horz>
; 889  : // <Left>0<\\Left>
; 890  : // <Right>0<\\Right>
; 891  : // <\\Horz>
; 892  : // <Vert>
; 893  : // <Top>0<\\Top>
; 894  : // <Bottom>0<\\Bottom>
; 895  : // <\\Vert>
; 896  : // <\\TextPosition>
; 897  : CString CTextPosition::GetSavedData_TextPosition() const
; 898  : {
; 899  : 	CString strSaved;
; 900  : 	strSaved.Format("<TextPosition>\r\n%s<\\TextPosition>\r\n", 
; 901  : 		GetSavedRealTextPositionData());
; 902  : 	return strSaved;
; 903  : }
; 904  : 
; 905  : 
; 906  : ///////////////////////////////////////////////////////////////////////////////
; 907  : // class CTextShowPosition
; 908  : 
; 909  : CTextShowPosition::CTextShowPosition():
; 910  : 	m_bShow(true)
; 911  : {
; 912  : }
; 913  : 
; 914  : CTextShowPosition::CTextShowPosition(const CTextEnvironment& environment, const bool bShow):
; 915  : 	CTextPosition(environment), 
; 916  : 	m_bShow(bShow)
; 917  : {
; 918  : }
; 919  : 
; 920  : CTextShowPosition::CTextShowPosition(const CTextShowPosition& position):
; 921  : 	CTextPosition(position.GetTextEnvironment()), 
; 922  : 	m_bShow(position.IsShow())
; 923  : {
; 924  : }
; 925  : 
; 926  : 
; 927  : // public =====================================================================
; 928  : void CTextShowPosition::Set(const CTextPosition* pTextPosition)
; 929  : {
; 930  : 	if(pTextPosition == NULL)
; 931  : 		return;
; 932  : 
; 933  : 	CTextShowPosition* pTextShowPosition = (CTextShowPosition*) pTextPosition;
; 934  : 	assert(pTextShowPosition != NULL);
; 935  : 	SetShow(pTextShowPosition->IsShow());
; 936  : 
; 937  : 	CTextPosition::Set(pTextPosition);
; 938  : }
; 939  : 
; 940  : void CTextShowPosition::SetShow(const bool bShow)
; 941  : {
; 942  : 	m_bShow = bShow;
; 943  : }
; 944  : 
; 945  : bool CTextShowPosition::IsShow() const
; 946  : {
; 947  : 	return m_bShow;
; 948  : }
; 949  : 
; 950  : // protected ==================================================================
; 951  : // <Horz>
; 952  : // <Show>0<\\Show>
; 953  : // <\\Horz>
; 954  : CString CTextShowPosition::GetSavedRealTextPositionData() const
; 955  : {
; 956  : 	CString strSaved;
; 957  : 	strSaved.Format("<Horz>\r\n%s<\\Horz>\r\n", 
; 958  : 		CTextPosition::GetDataOfOneLine(m_bShow, "Show"));// 2008.08.20    
; 959  : 	return strSaved;
; 960  : }
; 961  : 
; 962  : 
; 963  : ///////////////////////////////////////////////////////////////////////////////
; 964  : // class CTextHorzPosition
; 965  : 
; 966  : CTextHorzPosition::CTextHorzPosition():
; 967  : 	m_bLeft(true),
; 968  : 	m_bRight(true)
; 969  : {
; 970  : }
; 971  : 
; 972  : CTextHorzPosition::CTextHorzPosition(const CTextEnvironment& environment, const bool bLeft, const bool bRight, const bool bRightRate):
; 973  : 	CTextPosition(environment), 
; 974  : 	m_bLeft(bLeft),

  0001c	88 48 08	 mov	 BYTE PTR [eax+8], cl

; 976  : 	m_bRightRate(bRightRate)

  0001f	c6 40 0a 01	 mov	 BYTE PTR [eax+10], 1

; 1220 : 	return CTextHorzPosition(CTextPosition::GetTextEnvironment(), m_bLeft, m_bRight);

  00023	5b		 pop	 ebx

; 1221 : }

  00024	5d		 pop	 ebp
  00025	c2 04 00	 ret	 4
?GetHorz@CTextHorzVertPosition@@QBE?AVCTextHorzPosition@@XZ ENDP ; CTextHorzVertPosition::GetHorz
_TEXT	ENDS
; Function compile flags: /Ogtp
; File D:\git\src\IBK\IBK_DRFN\ProjSrc\SrcChartEx\ChartAddIn\ChartAnalysisToolAddIn\Include_Analysis\ElementEnvironment.cpp
;	COMDAT ?GetBottom@CTextHorzVertPosition@@QBE_NXZ
_TEXT	SEGMENT
?GetBottom@CTextHorzVertPosition@@QBE_NXZ PROC		; CTextHorzVertPosition::GetBottom, COMDAT
; _this$ = ecx

; 1214 : 	return m_bBottom;

  00000	8a 41 0b	 mov	 al, BYTE PTR [ecx+11]

; 1215 : }

  00003	c3		 ret	 0
?GetBottom@CTextHorzVertPosition@@QBE_NXZ ENDP		; CTextHorzVertPosition::GetBottom
_TEXT	ENDS
; Function compile flags: /Ogtp
; File D:\git\src\IBK\IBK_DRFN\ProjSrc\SrcChartEx\ChartAddIn\ChartAnalysisToolAddIn\Include_Analysis\ElementEnvironment.cpp
;	COMDAT ?GetTop@CTextHorzVertPosition@@QBE_NXZ
_TEXT	SEGMENT
?GetTop@CTextHorzVertPosition@@QBE_NXZ PROC		; CTextHorzVertPosition::GetTop, COMDAT
; _this$ = ecx

; 1209 : 	return m_bTop;

  00000	8a 41 0a	 mov	 al, BYTE PTR [ecx+10]

; 1210 : }

  00003	c3		 ret	 0
?GetTop@CTextHorzVertPosition@@QBE_NXZ ENDP		; CTextHorzVertPosition::GetTop
_TEXT	ENDS
; Function compile flags: /Ogtp
; File D:\git\src\IBK\IBK_DRFN\ProjSrc\SrcChartEx\ChartAddIn\ChartAnalysisToolAddIn\Include_Analysis\ElementEnvironment.cpp
;	COMDAT ?GetRight@CTextHorzVertPosition@@QBE_NXZ
_TEXT	SEGMENT
?GetRight@CTextHorzVertPosition@@QBE_NXZ PROC		; CTextHorzVertPosition::GetRight, COMDAT
; _this$ = ecx

; 1204 : 	return m_bRight;

  00000	8a 41 09	 mov	 al, BYTE PTR [ecx+9]

; 1205 : }

  00003	c3		 ret	 0
?GetRight@CTextHorzVertPosition@@QBE_NXZ ENDP		; CTextHorzVertPosition::GetRight
_TEXT	ENDS
; Function compile flags: /Ogtp
; File D:\git\src\IBK\IBK_DRFN\ProjSrc\SrcChartEx\ChartAddIn\ChartAnalysisToolAddIn\Include_Analysis\ElementEnvironment.cpp
;	COMDAT ?GetLeft@CTextHorzVertPosition@@QBE_NXZ
_TEXT	SEGMENT
?GetLeft@CTextHorzVertPosition@@QBE_NXZ PROC		; CTextHorzVertPosition::GetLeft, COMDAT
; _this$ = ecx

; 1199 : 	return m_bLeft;

  00000	8a 41 08	 mov	 al, BYTE PTR [ecx+8]

; 1200 : }

  00003	c3		 ret	 0
?GetLeft@CTextHorzVertPosition@@QBE_NXZ ENDP		; CTextHorzVertPosition::GetLeft
_TEXT	ENDS
; Function compile flags: /Ogtp
; File D:\git\src\IBK\IBK_DRFN\ProjSrc\SrcChartEx\ChartAddIn\ChartAnalysisToolAddIn\Include_Analysis\ElementEnvironment.cpp
;	COMDAT ?SetBottom@CTextHorzVertPosition@@QAEX_N@Z
_TEXT	SEGMENT
_bBottom$ = 8						; size = 1
?SetBottom@CTextHorzVertPosition@@QAEX_N@Z PROC		; CTextHorzVertPosition::SetBottom, COMDAT
; _this$ = ecx

; 1192 : {

  00000	55		 push	 ebp
  00001	8b ec		 mov	 ebp, esp

; 1193 : 	m_bBottom = bBottom;

  00003	8a 45 08	 mov	 al, BYTE PTR _bBottom$[ebp]
  00006	88 41 0b	 mov	 BYTE PTR [ecx+11], al

; 1194 : }

  00009	5d		 pop	 ebp
  0000a	c2 04 00	 ret	 4
?SetBottom@CTextHorzVertPosition@@QAEX_N@Z ENDP		; CTextHorzVertPosition::SetBottom
_TEXT	ENDS
; Function compile flags: /Ogtp
; File D:\git\src\IBK\IBK_DRFN\ProjSrc\SrcChartEx\ChartAddIn\ChartAnalysisToolAddIn\Include_Analysis\ElementEnvironment.cpp
;	COMDAT ?SetTop@CTextHorzVertPosition@@QAEX_N@Z
_TEXT	SEGMENT
_bTop$ = 8						; size = 1
?SetTop@CTextHorzVertPosition@@QAEX_N@Z PROC		; CTextHorzVertPosition::SetTop, COMDAT
; _this$ = ecx

; 1187 : {

  00000	55		 push	 ebp
  00001	8b ec		 mov	 ebp, esp

; 1188 : 	m_bTop = bTop;

  00003	8a 45 08	 mov	 al, BYTE PTR _bTop$[ebp]
  00006	88 41 0a	 mov	 BYTE PTR [ecx+10], al

; 1189 : }

  00009	5d		 pop	 ebp
  0000a	c2 04 00	 ret	 4
?SetTop@CTextHorzVertPosition@@QAEX_N@Z ENDP		; CTextHorzVertPosition::SetTop
_TEXT	ENDS
; Function compile flags: /Ogtp
; File D:\git\src\IBK\IBK_DRFN\ProjSrc\SrcChartEx\ChartAddIn\ChartAnalysisToolAddIn\Include_Analysis\ElementEnvironment.cpp
;	COMDAT ?SetRight@CTextHorzVertPosition@@QAEX_N@Z
_TEXT	SEGMENT
_bRight$ = 8						; size = 1
?SetRight@CTextHorzVertPosition@@QAEX_N@Z PROC		; CTextHorzVertPosition::SetRight, COMDAT
; _this$ = ecx

; 1182 : {

  00000	55		 push	 ebp
  00001	8b ec		 mov	 ebp, esp

; 1183 : 	m_bRight = bRight;

  00003	8a 45 08	 mov	 al, BYTE PTR _bRight$[ebp]
  00006	88 41 09	 mov	 BYTE PTR [ecx+9], al

; 1184 : }

  00009	5d		 pop	 ebp
  0000a	c2 04 00	 ret	 4
?SetRight@CTextHorzVertPosition@@QAEX_N@Z ENDP		; CTextHorzVertPosition::SetRight
_TEXT	ENDS
; Function compile flags: /Ogtp
; File D:\git\src\IBK\IBK_DRFN\ProjSrc\SrcChartEx\ChartAddIn\ChartAnalysisToolAddIn\Include_Analysis\ElementEnvironment.cpp
;	COMDAT ?SetLeft@CTextHorzVertPosition@@QAEX_N@Z
_TEXT	SEGMENT
_bLeft$ = 8						; size = 1
?SetLeft@CTextHorzVertPosition@@QAEX_N@Z PROC		; CTextHorzVertPosition::SetLeft, COMDAT
; _this$ = ecx

; 1177 : {

  00000	55		 push	 ebp
  00001	8b ec		 mov	 ebp, esp

; 1178 : 	m_bLeft = bLeft;

  00003	8a 45 08	 mov	 al, BYTE PTR _bLeft$[ebp]
  00006	88 41 08	 mov	 BYTE PTR [ecx+8], al

; 1179 : }

  00009	5d		 pop	 ebp
  0000a	c2 04 00	 ret	 4
?SetLeft@CTextHorzVertPosition@@QAEX_N@Z ENDP		; CTextHorzVertPosition::SetLeft
_TEXT	ENDS
; Function compile flags: /Ogtp
; File D:\git\src\IBK\IBK_DRFN\ProjSrc\SrcChartEx\ChartAddIn\ChartAnalysisToolAddIn\Include_Analysis\ElementEnvironment.cpp
;	COMDAT ?Set@CTextHorzVertPosition@@UAEXPBVCTextPosition@@@Z
_TEXT	SEGMENT
$T1 = -4						; size = 4
_pTextPosition$ = 8					; size = 4
?Set@CTextHorzVertPosition@@UAEXPBVCTextPosition@@@Z PROC ; CTextHorzVertPosition::Set, COMDAT
; _this$ = ecx

; 1162 : {

  00000	55		 push	 ebp
  00001	8b ec		 mov	 ebp, esp
  00003	51		 push	 ecx

; 1163 : 	if(pTextPosition == NULL)

  00004	8b 55 08	 mov	 edx, DWORD PTR _pTextPosition$[ebp]
  00007	85 d2		 test	 edx, edx
  00009	74 2b		 je	 SHORT $LN13@Set

; 1164 : 		return;
; 1165 : 
; 1166 : 	CTextHorzVertPosition* pTextHorzVertPosition = (CTextHorzVertPosition*) pTextPosition;
; 1167 : 	assert(pTextHorzVertPosition != NULL);
; 1168 : 	SetLeft(pTextHorzVertPosition->GetLeft());

  0000b	0f b6 42 08	 movzx	 eax, BYTE PTR [edx+8]
  0000f	88 41 08	 mov	 BYTE PTR [ecx+8], al

; 1169 : 	SetRight(pTextHorzVertPosition->GetRight());

  00012	0f b6 42 09	 movzx	 eax, BYTE PTR [edx+9]
  00016	88 41 09	 mov	 BYTE PTR [ecx+9], al

; 1170 : 	SetTop(pTextHorzVertPosition->GetTop());

  00019	0f b6 42 0a	 movzx	 eax, BYTE PTR [edx+10]
  0001d	88 41 0a	 mov	 BYTE PTR [ecx+10], al

; 1171 : 	SetBottom(pTextHorzVertPosition->GetBottom());

  00020	0f b6 42 0b	 movzx	 eax, BYTE PTR [edx+11]
  00024	88 41 0b	 mov	 BYTE PTR [ecx+11], al

; 844  : 	m_textEnvironment = textEnvironment;

  00027	83 c1 04	 add	 ecx, 4

; 745  : 	if(this == &environment)

  0002a	8d 45 fc	 lea	 eax, DWORD PTR $T1[ebp]
  0002d	3b c8		 cmp	 ecx, eax
  0002f	74 05		 je	 SHORT $LN13@Set

; 746  : 		return *this;
; 747  : 
; 748  : 	m_color = environment.GetColor();

  00031	8b 42 04	 mov	 eax, DWORD PTR [edx+4]
  00034	89 01		 mov	 DWORD PTR [ecx], eax
$LN13@Set:

; 1172 : 
; 1173 : 	CTextPosition::Set(pTextPosition);
; 1174 : }

  00036	8b e5		 mov	 esp, ebp
  00038	5d		 pop	 ebp
  00039	c2 04 00	 ret	 4
?Set@CTextHorzVertPosition@@UAEXPBVCTextPosition@@@Z ENDP ; CTextHorzVertPosition::Set
_TEXT	ENDS
; Function compile flags: /Ogtp
; File D:\git\src\IBK\IBK_DRFN\ProjSrc\SrcChartEx\ChartAddIn\ChartAnalysisToolAddIn\Include_Analysis\ElementEnvironment.cpp
;	COMDAT ??0CTextHorzVertPosition@@QAE@ABVCTextEnvironment@@_N111@Z
_TEXT	SEGMENT
_environment$ = 8					; size = 4
_bLeft$ = 12						; size = 1
_bRight$ = 16						; size = 1
_bTop$ = 20						; size = 1
_bBottom$ = 24						; size = 1
??0CTextHorzVertPosition@@QAE@ABVCTextEnvironment@@_N111@Z PROC ; CTextHorzVertPosition::CTextHorzVertPosition, COMDAT
; _this$ = ecx

; 1156 : {

  00000	55		 push	 ebp
  00001	8b ec		 mov	 ebp, esp

; 765  : 	m_color = environment.GetColor();

  00003	8b 45 08	 mov	 eax, DWORD PTR _environment$[ebp]

; 831  : {

  00006	c7 01 00 00 00
	00		 mov	 DWORD PTR [ecx], OFFSET ??_7CTextPosition@@6B@

; 765  : 	m_color = environment.GetColor();

  0000c	8b 00		 mov	 eax, DWORD PTR [eax]
  0000e	89 41 04	 mov	 DWORD PTR [ecx+4], eax

; 832  : }
; 833  : 
; 834  : // public =====================================================================
; 835  : void CTextPosition::Set(const CTextPosition* pTextPosition)
; 836  : {
; 837  : 	if(pTextPosition == NULL)
; 838  : 		return;
; 839  : 	SetTextEnvironment(pTextPosition->GetTextEnvironment());
; 840  : }
; 841  : 
; 842  : void CTextPosition::SetTextEnvironment(const CTextEnvironment& textEnvironment)
; 843  : {
; 844  : 	m_textEnvironment = textEnvironment;
; 845  : }
; 846  : 
; 847  : // ----------------------------------------------------------------------------
; 848  : CTextEnvironment CTextPosition::GetTextEnvironment() const
; 849  : {
; 850  : 	return m_textEnvironment;
; 851  : }
; 852  : 
; 853  : CTextEnvironment& CTextPosition::GetTextEnvironment()
; 854  : {
; 855  : 	return m_textEnvironment;
; 856  : }
; 857  : 
; 858  : // <PartEnvironment>
; 859  : // <TextEnvironment>
; 860  : // <Color>0,0,0<\\Color>
; 861  : // <\\TextEnvironment>
; 862  : // <TextPosition>
; 863  : // ...
; 864  : // <\\TextPosition>
; 865  : // <\\PartEnvironment>
; 866  : CString CTextPosition::GetSavedData() const
; 867  : {
; 868  : 	CString strSaved;
; 869  : 	strSaved.Format("<PartEnvironment>\r\n%s%s<\\PartEnvironment>\r\n", 
; 870  : 		m_textEnvironment.GetSavedData(), GetSavedData_TextPosition());
; 871  : 	return strSaved;
; 872  : }
; 873  : 
; 874  : 
; 875  : // protected ==================================================================
; 876  : CString CTextPosition::GetDataOfOneLine(const bool bData, const CString& strData) const
; 877  : {
; 878  : 	CString data;
; 879  : 	data.Format("<%s>%d<\\%s>\r\n", strData, bData, strData);
; 880  : 	return data;
; 881  : }
; 882  : 
; 883  : // private ====================================================================
; 884  : // <TextPosition>
; 885  : // <Horz>
; 886  : // <Show>0<\\Show>
; 887  : // <\\Horz>
; 888  : // <Horz>
; 889  : // <Left>0<\\Left>
; 890  : // <Right>0<\\Right>
; 891  : // <\\Horz>
; 892  : // <Vert>
; 893  : // <Top>0<\\Top>
; 894  : // <Bottom>0<\\Bottom>
; 895  : // <\\Vert>
; 896  : // <\\TextPosition>
; 897  : CString CTextPosition::GetSavedData_TextPosition() const
; 898  : {
; 899  : 	CString strSaved;
; 900  : 	strSaved.Format("<TextPosition>\r\n%s<\\TextPosition>\r\n", 
; 901  : 		GetSavedRealTextPositionData());
; 902  : 	return strSaved;
; 903  : }
; 904  : 
; 905  : 
; 906  : ///////////////////////////////////////////////////////////////////////////////
; 907  : // class CTextShowPosition
; 908  : 
; 909  : CTextShowPosition::CTextShowPosition():
; 910  : 	m_bShow(true)
; 911  : {
; 912  : }
; 913  : 
; 914  : CTextShowPosition::CTextShowPosition(const CTextEnvironment& environment, const bool bShow):
; 915  : 	CTextPosition(environment), 
; 916  : 	m_bShow(bShow)
; 917  : {
; 918  : }
; 919  : 
; 920  : CTextShowPosition::CTextShowPosition(const CTextShowPosition& position):
; 921  : 	CTextPosition(position.GetTextEnvironment()), 
; 922  : 	m_bShow(position.IsShow())
; 923  : {
; 924  : }
; 925  : 
; 926  : 
; 927  : // public =====================================================================
; 928  : void CTextShowPosition::Set(const CTextPosition* pTextPosition)
; 929  : {
; 930  : 	if(pTextPosition == NULL)
; 931  : 		return;
; 932  : 
; 933  : 	CTextShowPosition* pTextShowPosition = (CTextShowPosition*) pTextPosition;
; 934  : 	assert(pTextShowPosition != NULL);
; 935  : 	SetShow(pTextShowPosition->IsShow());
; 936  : 
; 937  : 	CTextPosition::Set(pTextPosition);
; 938  : }
; 939  : 
; 940  : void CTextShowPosition::SetShow(const bool bShow)
; 941  : {
; 942  : 	m_bShow = bShow;
; 943  : }
; 944  : 
; 945  : bool CTextShowPosition::IsShow() const
; 946  : {
; 947  : 	return m_bShow;
; 948  : }
; 949  : 
; 950  : // protected ==================================================================
; 951  : // <Horz>
; 952  : // <Show>0<\\Show>
; 953  : // <\\Horz>
; 954  : CString CTextShowPosition::GetSavedRealTextPositionData() const
; 955  : {
; 956  : 	CString strSaved;
; 957  : 	strSaved.Format("<Horz>\r\n%s<\\Horz>\r\n", 
; 958  : 		CTextPosition::GetDataOfOneLine(m_bShow, "Show"));// 2008.08.20    
; 959  : 	return strSaved;
; 960  : }
; 961  : 
; 962  : 
; 963  : ///////////////////////////////////////////////////////////////////////////////
; 964  : // class CTextHorzPosition
; 965  : 
; 966  : CTextHorzPosition::CTextHorzPosition():
; 967  : 	m_bLeft(true),
; 968  : 	m_bRight(true)
; 969  : {
; 970  : }
; 971  : 
; 972  : CTextHorzPosition::CTextHorzPosition(const CTextEnvironment& environment, const bool bLeft, const bool bRight, const bool bRightRate):
; 973  : 	CTextPosition(environment), 
; 974  : 	m_bLeft(bLeft),
; 975  : 	m_bRight(bRight),
; 976  : 	m_bRightRate(bRightRate)
; 977  : {
; 978  : }
; 979  : 
; 980  : CTextHorzPosition::CTextHorzPosition(const CTextHorzPosition& position):
; 981  : 	CTextPosition(position.GetTextEnvironment()), 
; 982  : 	m_bLeft(position.GetLeft()),
; 983  : 	m_bRight(position.GetRight()),
; 984  : 	m_bRightRate(position.GetRightRate())
; 985  : {
; 986  : }
; 987  : 
; 988  : 
; 989  : // public =====================================================================
; 990  : void CTextHorzPosition::Set(const CTextPosition* pTextPosition)
; 991  : {
; 992  : 	if(pTextPosition == NULL)
; 993  : 		return;
; 994  : 
; 995  : 	CTextHorzPosition* pTextHorzPosition = (CTextHorzPosition*) pTextPosition;
; 996  : 	assert(pTextHorzPosition != NULL);
; 997  : 	SetLeft(pTextHorzPosition->GetLeft());
; 998  : 	SetRight(pTextHorzPosition->GetRight());
; 999  : 	SetRightRate(pTextHorzPosition->GetRightRate());
; 1000 : 
; 1001 : 	CTextPosition::Set(pTextPosition);
; 1002 : }
; 1003 : 
; 1004 : void CTextHorzPosition::SetLeft(const bool bLeft)
; 1005 : {
; 1006 : 	m_bLeft = bLeft;
; 1007 : }
; 1008 : 
; 1009 : void CTextHorzPosition::SetRight(const bool bRight)
; 1010 : {
; 1011 : 	m_bRight = bRight;
; 1012 : }
; 1013 : 
; 1014 : void CTextHorzPosition::SetRightRate(const bool bValue)
; 1015 : {
; 1016 : 	m_bRightRate = bValue;
; 1017 : }
; 1018 : 
; 1019 : bool CTextHorzPosition::GetLeft() const
; 1020 : {
; 1021 : 	return m_bLeft;
; 1022 : }
; 1023 : 
; 1024 : bool CTextHorzPosition::GetRight() const
; 1025 : {
; 1026 : 	return m_bRight;
; 1027 : }
; 1028 : 
; 1029 : bool CTextHorzPosition::GetRightRate() const
; 1030 : {
; 1031 : 	return m_bRightRate;
; 1032 : }
; 1033 : 
; 1034 : // protected ==================================================================
; 1035 : // <Horz>
; 1036 : // <Left>0<\\Left>
; 1037 : // <Right>0<\\Right>
; 1038 : // <Rate>0<\\Rate>
; 1039 : // <\\Horz>
; 1040 : CString CTextHorzPosition::GetSavedRealTextPositionData() const
; 1041 : {
; 1042 : 	CString strSaved;
; 1043 : 	strSaved.Format("<Horz>\r\n%s%s%s<\\Horz>\r\n", 
; 1044 : 		CTextPosition::GetDataOfOneLine(m_bLeft, "Left"), 
; 1045 : 		CTextPosition::GetDataOfOneLine(m_bRight, "Right"),
; 1046 : 		CTextPosition::GetDataOfOneLine(m_bRightRate, "Rate"));
; 1047 : 	return strSaved;
; 1048 : }
; 1049 : 
; 1050 : 
; 1051 : ///////////////////////////////////////////////////////////////////////////////
; 1052 : // class CTextVertPosition
; 1053 : 
; 1054 : CTextVertPosition::CTextVertPosition():
; 1055 : 	m_bTop(true),
; 1056 : 	m_bBottom(true)
; 1057 : {
; 1058 : }
; 1059 : 
; 1060 : CTextVertPosition::CTextVertPosition(const CTextEnvironment& environment, const bool bTop, const bool bBottom):
; 1061 : 	CTextPosition(environment), 
; 1062 : 	m_bTop(bTop),
; 1063 : 	m_bBottom(bBottom)
; 1064 : {
; 1065 : }
; 1066 : 
; 1067 : CTextVertPosition::CTextVertPosition(const CTextVertPosition& position):
; 1068 : 	CTextPosition(position.GetTextEnvironment()), 
; 1069 : 	m_bTop(position.GetTop()),
; 1070 : 	m_bBottom(position.GetBottom())
; 1071 : {
; 1072 : }
; 1073 : 
; 1074 : 
; 1075 : // public =====================================================================
; 1076 : void CTextVertPosition::Set(const CTextPosition* pTextPosition)
; 1077 : {
; 1078 : 	if(pTextPosition == NULL)
; 1079 : 		return;
; 1080 : 
; 1081 : 	CTextVertPosition* pTextVertPosition = (CTextVertPosition*) pTextPosition;
; 1082 : 	assert(pTextVertPosition != NULL);
; 1083 : 	SetTop(pTextVertPosition->GetTop());
; 1084 : 	SetBottom(pTextVertPosition->GetBottom());
; 1085 : 
; 1086 : 	CTextPosition::Set(pTextPosition);
; 1087 : }
; 1088 : 
; 1089 : void CTextVertPosition::SetTop(const bool bTop)
; 1090 : {
; 1091 : 	m_bTop = bTop;
; 1092 : }
; 1093 : 
; 1094 : void CTextVertPosition::SetBottom(const bool bBottom)
; 1095 : {
; 1096 : 	m_bBottom = bBottom;
; 1097 : }
; 1098 : 
; 1099 : bool CTextVertPosition::GetTop() const
; 1100 : {
; 1101 : 	return m_bTop;
; 1102 : }
; 1103 : 
; 1104 : bool CTextVertPosition::GetBottom() const
; 1105 : {
; 1106 : 	return m_bBottom;
; 1107 : }
; 1108 : 
; 1109 : // protected ==================================================================
; 1110 : // <Vert>
; 1111 : // <Top>0<\\Top>
; 1112 : // <Bottom>0<\\Bottom>
; 1113 : // <\\Vert>
; 1114 : CString CTextVertPosition::GetSavedRealTextPositionData() const
; 1115 : {
; 1116 : 	CString strSaved("<Vert>\r\n");
; 1117 : 	strSaved += CTextPosition::GetDataOfOneLine(m_bTop, "Top");
; 1118 : 	strSaved += CTextPosition::GetDataOfOneLine(m_bBottom, "Bottom");
; 1119 : 	strSaved += "<\\Vert>\r\n";
; 1120 : 	return strSaved;
; 1121 : }
; 1122 : 
; 1123 : 
; 1124 : ///////////////////////////////////////////////////////////////////////////////
; 1125 : // class CTextHorzVertPosition
; 1126 : 
; 1127 : CTextHorzVertPosition& CTextHorzVertPosition::operator=(const CTextHorzVertPosition& position)
; 1128 : {
; 1129 : 	if(this == &position)
; 1130 : 		return *this;
; 1131 : 
; 1132 : 	CTextPosition::SetTextEnvironment(position.GetTextEnvironment());
; 1133 : 
; 1134 : 	m_bLeft = position.GetLeft();
; 1135 : 	m_bRight = position.GetRight();
; 1136 : 	m_bTop = position.GetTop();
; 1137 : 	m_bBottom = position.GetBottom();
; 1138 : 	return *this;
; 1139 : }
; 1140 : 
; 1141 : CTextHorzVertPosition::CTextHorzVertPosition():
; 1142 : 	m_bLeft(true), 
; 1143 : 	m_bRight(true),
; 1144 : 	m_bTop(true),
; 1145 : 	m_bBottom(true)
; 1146 : {
; 1147 : }
; 1148 : 	
; 1149 : CTextHorzVertPosition::CTextHorzVertPosition(const CTextEnvironment& environment, 
; 1150 : 		const bool bLeft, const bool bRight, const bool bTop, const bool bBottom):
; 1151 : 	CTextPosition(environment), 
; 1152 : 	m_bLeft(bLeft), 

  00011	8a 45 0c	 mov	 al, BYTE PTR _bLeft$[ebp]
  00014	88 41 08	 mov	 BYTE PTR [ecx+8], al

; 1153 : 	m_bRight(bRight),

  00017	8a 45 10	 mov	 al, BYTE PTR _bRight$[ebp]
  0001a	88 41 09	 mov	 BYTE PTR [ecx+9], al

; 1154 : 	m_bTop(bTop),

  0001d	8a 45 14	 mov	 al, BYTE PTR _bTop$[ebp]
  00020	88 41 0a	 mov	 BYTE PTR [ecx+10], al

; 1155 : 	m_bBottom(bBottom)

  00023	8a 45 18	 mov	 al, BYTE PTR _bBottom$[ebp]
  00026	88 41 0b	 mov	 BYTE PTR [ecx+11], al

; 1157 : }

  00029	8b c1		 mov	 eax, ecx
  0002b	c7 01 00 00 00
	00		 mov	 DWORD PTR [ecx], OFFSET ??_7CTextHorzVertPosition@@6B@
  00031	5d		 pop	 ebp
  00032	c2 14 00	 ret	 20			; 00000014H
??0CTextHorzVertPosition@@QAE@ABVCTextEnvironment@@_N111@Z ENDP ; CTextHorzVertPosition::CTextHorzVertPosition
_TEXT	ENDS
; Function compile flags: /Ogtp
; File D:\git\src\IBK\IBK_DRFN\ProjSrc\SrcChartEx\ChartAddIn\ChartAnalysisToolAddIn\Include_Analysis\ElementEnvironment.cpp
;	COMDAT ??0CTextHorzVertPosition@@QAE@XZ
_TEXT	SEGMENT
??0CTextHorzVertPosition@@QAE@XZ PROC			; CTextHorzVertPosition::CTextHorzVertPosition, COMDAT
; _this$ = ecx

; 754  : 	m_color(RGB(0, 0, 0))

  00000	c7 41 04 00 00
	00 00		 mov	 DWORD PTR [ecx+4], 0

; 1147 : }

  00007	8b c1		 mov	 eax, ecx
  00009	c7 01 00 00 00
	00		 mov	 DWORD PTR [ecx], OFFSET ??_7CTextHorzVertPosition@@6B@
  0000f	c7 41 08 01 01
	01 01		 mov	 DWORD PTR [ecx+8], 16843009 ; 01010101H
  00016	c3		 ret	 0
??0CTextHorzVertPosition@@QAE@XZ ENDP			; CTextHorzVertPosition::CTextHorzVertPosition
_TEXT	ENDS
; Function compile flags: /Ogtp
; File D:\git\src\IBK\IBK_DRFN\ProjSrc\SrcChartEx\ChartAddIn\ChartAnalysisToolAddIn\Include_Analysis\ElementEnvironment.cpp
;	COMDAT ??4CTextHorzVertPosition@@QAEAAV0@ABV0@@Z
_TEXT	SEGMENT
$T1 = -4						; size = 4
_position$ = 8						; size = 4
??4CTextHorzVertPosition@@QAEAAV0@ABV0@@Z PROC		; CTextHorzVertPosition::operator=, COMDAT
; _this$ = ecx

; 1128 : {

  00000	55		 push	 ebp
  00001	8b ec		 mov	 ebp, esp
  00003	51		 push	 ecx

; 1129 : 	if(this == &position)

  00004	8b 55 08	 mov	 edx, DWORD PTR _position$[ebp]
  00007	3b ca		 cmp	 ecx, edx
  00009	74 2d		 je	 SHORT $LN13@operator
  0000b	56		 push	 esi

; 844  : 	m_textEnvironment = textEnvironment;

  0000c	8d 71 04	 lea	 esi, DWORD PTR [ecx+4]

; 745  : 	if(this == &environment)

  0000f	8d 45 fc	 lea	 eax, DWORD PTR $T1[ebp]
  00012	3b f0		 cmp	 esi, eax
  00014	74 05		 je	 SHORT $LN10@operator

; 746  : 		return *this;
; 747  : 
; 748  : 	m_color = environment.GetColor();

  00016	8b 42 04	 mov	 eax, DWORD PTR [edx+4]
  00019	89 06		 mov	 DWORD PTR [esi], eax
$LN10@operator:

; 1130 : 		return *this;
; 1131 : 
; 1132 : 	CTextPosition::SetTextEnvironment(position.GetTextEnvironment());
; 1133 : 
; 1134 : 	m_bLeft = position.GetLeft();

  0001b	0f b6 42 08	 movzx	 eax, BYTE PTR [edx+8]
  0001f	88 41 08	 mov	 BYTE PTR [ecx+8], al

; 1135 : 	m_bRight = position.GetRight();

  00022	0f b6 42 09	 movzx	 eax, BYTE PTR [edx+9]
  00026	88 41 09	 mov	 BYTE PTR [ecx+9], al

; 1136 : 	m_bTop = position.GetTop();

  00029	0f b6 42 0a	 movzx	 eax, BYTE PTR [edx+10]
  0002d	88 41 0a	 mov	 BYTE PTR [ecx+10], al

; 1137 : 	m_bBottom = position.GetBottom();

  00030	0f b6 42 0b	 movzx	 eax, BYTE PTR [edx+11]
  00034	88 41 0b	 mov	 BYTE PTR [ecx+11], al

; 1138 : 	return *this;

  00037	5e		 pop	 esi
$LN13@operator:

; 1139 : }

  00038	8b c1		 mov	 eax, ecx
  0003a	8b e5		 mov	 esp, ebp
  0003c	5d		 pop	 ebp
  0003d	c2 04 00	 ret	 4
??4CTextHorzVertPosition@@QAEAAV0@ABV0@@Z ENDP		; CTextHorzVertPosition::operator=
_TEXT	ENDS
; Function compile flags: /Ogtp
; File D:\git\src\IBK\IBK_DRFN\ProjSrc\SrcChartEx\ChartAddIn\ChartAnalysisToolAddIn\Include_Analysis\ElementEnvironment.cpp
;	COMDAT ?GetSavedRealTextPositionData@CTextVertPosition@@MBE?AV?$CStringT@DV?$StrTraitMFC_DLL@DV?$ChTraitsCRT@D@ATL@@@@@ATL@@XZ
_TEXT	SEGMENT
$T2 = -24						; size = 4
$T3 = -24						; size = 4
$T4 = -20						; size = 4
$T5 = -20						; size = 4
$T6 = -16						; size = 4
__$EHRec$ = -12						; size = 12
___$ReturnUdt$ = 8					; size = 4
?GetSavedRealTextPositionData@CTextVertPosition@@MBE?AV?$CStringT@DV?$StrTraitMFC_DLL@DV?$ChTraitsCRT@D@ATL@@@@@ATL@@XZ PROC ; CTextVertPosition::GetSavedRealTextPositionData, COMDAT
; _this$ = ecx

; 1115 : {

  00000	55		 push	 ebp
  00001	8b ec		 mov	 ebp, esp
  00003	6a ff		 push	 -1
  00005	68 00 00 00 00	 push	 __ehhandler$?GetSavedRealTextPositionData@CTextVertPosition@@MBE?AV?$CStringT@DV?$StrTraitMFC_DLL@DV?$ChTraitsCRT@D@ATL@@@@@ATL@@XZ
  0000a	64 a1 00 00 00
	00		 mov	 eax, DWORD PTR fs:0
  00010	50		 push	 eax
  00011	83 ec 0c	 sub	 esp, 12			; 0000000cH
  00014	53		 push	 ebx
  00015	57		 push	 edi
  00016	a1 00 00 00 00	 mov	 eax, DWORD PTR ___security_cookie
  0001b	33 c5		 xor	 eax, ebp
  0001d	50		 push	 eax
  0001e	8d 45 f4	 lea	 eax, DWORD PTR __$EHRec$[ebp]
  00021	64 a3 00 00 00
	00		 mov	 DWORD PTR fs:0, eax
  00027	8b f9		 mov	 edi, ecx
  00029	c7 45 f0 00 00
	00 00		 mov	 DWORD PTR $T6[ebp], 0

; 1116 : 	CString strSaved("<Vert>\r\n");

  00030	8b 4d 08	 mov	 ecx, DWORD PTR ___$ReturnUdt$[ebp]
  00033	68 00 00 00 00	 push	 OFFSET ??_C@_08DDEPFPBK@?$DMVert?$DO?$AN?6@
  00038	c7 45 fc 00 00
	00 00		 mov	 DWORD PTR __$EHRec$[ebp+8], 0
  0003f	ff 15 00 00 00
	00		 call	 DWORD PTR __imp_??0?$CStringT@DV?$StrTraitMFC_DLL@DV?$ChTraitsCRT@D@ATL@@@@@ATL@@QAE@PBD@Z

; 1120 : 	return strSaved;

  00045	68 00 00 00 00	 push	 OFFSET ??_C@_03PGGAENPN@Top@
  0004a	8d 4d e8	 lea	 ecx, DWORD PTR $T3[ebp]
  0004d	c7 45 fc 00 00
	00 00		 mov	 DWORD PTR __$EHRec$[ebp+8], 0
  00054	c7 45 f0 01 00
	00 00		 mov	 DWORD PTR $T6[ebp], 1
  0005b	ff 15 00 00 00
	00		 call	 DWORD PTR __imp_??0?$CStringT@DV?$StrTraitMFC_DLL@DV?$ChTraitsCRT@D@ATL@@@@@ATL@@QAE@PBD@Z
  00061	8a 5f 08	 mov	 bl, BYTE PTR [edi+8]
  00064	c7 45 fc 01 00
	00 00		 mov	 DWORD PTR __$EHRec$[ebp+8], 1

; 878  : 	CString data;

  0006b	8d 4d ec	 lea	 ecx, DWORD PTR $T5[ebp]

; 1117 : 	strSaved += CTextPosition::GetDataOfOneLine(m_bTop, "Top");

  0006e	c6 45 fc 02	 mov	 BYTE PTR __$EHRec$[ebp+8], 2

; 878  : 	CString data;

  00072	ff 15 00 00 00
	00		 call	 DWORD PTR __imp_??0?$CStringT@DV?$StrTraitMFC_DLL@DV?$ChTraitsCRT@D@ATL@@@@@ATL@@QAE@XZ

; 879  : 	data.Format("<%s>%d<\\%s>\r\n", strData, bData, strData);

  00078	8b 45 e8	 mov	 eax, DWORD PTR $T3[ebp]
  0007b	50		 push	 eax
  0007c	0f b6 cb	 movzx	 ecx, bl
  0007f	51		 push	 ecx
  00080	50		 push	 eax
  00081	8d 45 ec	 lea	 eax, DWORD PTR $T5[ebp]

; 880  : 	return data;

  00084	c7 45 f0 03 00
	00 00		 mov	 DWORD PTR $T6[ebp], 3
  0008b	68 00 00 00 00	 push	 OFFSET ??_C@_0O@LNMCLPEF@?$DM?$CFs?$DO?$CFd?$DM?2?$CFs?$DO?$AN?6@
  00090	50		 push	 eax
  00091	ff 15 00 00 00
	00		 call	 DWORD PTR __imp_?Format@?$CStringT@DV?$StrTraitMFC_DLL@DV?$ChTraitsCRT@D@ATL@@@@@ATL@@QAAXPBDZZ

; 1117 : 	strSaved += CTextPosition::GetDataOfOneLine(m_bTop, "Top");

  00097	8b 4d 08	 mov	 ecx, DWORD PTR ___$ReturnUdt$[ebp]
  0009a	8d 45 ec	 lea	 eax, DWORD PTR $T5[ebp]

; 879  : 	data.Format("<%s>%d<\\%s>\r\n", strData, bData, strData);

  0009d	83 c4 14	 add	 esp, 20			; 00000014H

; 1117 : 	strSaved += CTextPosition::GetDataOfOneLine(m_bTop, "Top");

  000a0	50		 push	 eax
  000a1	ff 15 00 00 00
	00		 call	 DWORD PTR __imp_??Y?$CStringT@DV?$StrTraitMFC_DLL@DV?$ChTraitsCRT@D@ATL@@@@@ATL@@QAEAAV01@ABV?$CSimpleStringT@D$00@1@@Z
  000a7	8d 4d ec	 lea	 ecx, DWORD PTR $T5[ebp]
  000aa	c7 45 f0 01 00
	00 00		 mov	 DWORD PTR $T6[ebp], 1
  000b1	ff 15 00 00 00
	00		 call	 DWORD PTR __imp_??1?$CStringT@DV?$StrTraitMFC_DLL@DV?$ChTraitsCRT@D@ATL@@@@@ATL@@QAE@XZ
  000b7	8d 4d e8	 lea	 ecx, DWORD PTR $T3[ebp]
  000ba	c6 45 fc 00	 mov	 BYTE PTR __$EHRec$[ebp+8], 0
  000be	ff 15 00 00 00
	00		 call	 DWORD PTR __imp_??1?$CStringT@DV?$StrTraitMFC_DLL@DV?$ChTraitsCRT@D@ATL@@@@@ATL@@QAE@XZ

; 1118 : 	strSaved += CTextPosition::GetDataOfOneLine(m_bBottom, "Bottom");

  000c4	68 00 00 00 00	 push	 OFFSET ??_C@_06DDHCBBGN@Bottom@
  000c9	8d 4d e8	 lea	 ecx, DWORD PTR $T2[ebp]
  000cc	ff 15 00 00 00
	00		 call	 DWORD PTR __imp_??0?$CStringT@DV?$StrTraitMFC_DLL@DV?$ChTraitsCRT@D@ATL@@@@@ATL@@QAE@PBD@Z
  000d2	8a 5f 09	 mov	 bl, BYTE PTR [edi+9]
  000d5	c7 45 fc 03 00
	00 00		 mov	 DWORD PTR __$EHRec$[ebp+8], 3

; 878  : 	CString data;

  000dc	8d 4d ec	 lea	 ecx, DWORD PTR $T4[ebp]

; 1118 : 	strSaved += CTextPosition::GetDataOfOneLine(m_bBottom, "Bottom");

  000df	c6 45 fc 04	 mov	 BYTE PTR __$EHRec$[ebp+8], 4

; 878  : 	CString data;

  000e3	ff 15 00 00 00
	00		 call	 DWORD PTR __imp_??0?$CStringT@DV?$StrTraitMFC_DLL@DV?$ChTraitsCRT@D@ATL@@@@@ATL@@QAE@XZ

; 879  : 	data.Format("<%s>%d<\\%s>\r\n", strData, bData, strData);

  000e9	8b 45 e8	 mov	 eax, DWORD PTR $T2[ebp]
  000ec	50		 push	 eax
  000ed	0f b6 cb	 movzx	 ecx, bl
  000f0	51		 push	 ecx
  000f1	50		 push	 eax
  000f2	8d 45 ec	 lea	 eax, DWORD PTR $T4[ebp]

; 880  : 	return data;

  000f5	c7 45 f0 05 00
	00 00		 mov	 DWORD PTR $T6[ebp], 5
  000fc	68 00 00 00 00	 push	 OFFSET ??_C@_0O@LNMCLPEF@?$DM?$CFs?$DO?$CFd?$DM?2?$CFs?$DO?$AN?6@
  00101	50		 push	 eax
  00102	ff 15 00 00 00
	00		 call	 DWORD PTR __imp_?Format@?$CStringT@DV?$StrTraitMFC_DLL@DV?$ChTraitsCRT@D@ATL@@@@@ATL@@QAAXPBDZZ

; 1118 : 	strSaved += CTextPosition::GetDataOfOneLine(m_bBottom, "Bottom");

  00108	8b 5d 08	 mov	 ebx, DWORD PTR ___$ReturnUdt$[ebp]
  0010b	8d 45 ec	 lea	 eax, DWORD PTR $T4[ebp]

; 879  : 	data.Format("<%s>%d<\\%s>\r\n", strData, bData, strData);

  0010e	83 c4 14	 add	 esp, 20			; 00000014H

; 1118 : 	strSaved += CTextPosition::GetDataOfOneLine(m_bBottom, "Bottom");

  00111	8b cb		 mov	 ecx, ebx
  00113	50		 push	 eax
  00114	ff 15 00 00 00
	00		 call	 DWORD PTR __imp_??Y?$CStringT@DV?$StrTraitMFC_DLL@DV?$ChTraitsCRT@D@ATL@@@@@ATL@@QAEAAV01@ABV?$CSimpleStringT@D$00@1@@Z
  0011a	8d 4d ec	 lea	 ecx, DWORD PTR $T4[ebp]
  0011d	c7 45 f0 01 00
	00 00		 mov	 DWORD PTR $T6[ebp], 1
  00124	ff 15 00 00 00
	00		 call	 DWORD PTR __imp_??1?$CStringT@DV?$StrTraitMFC_DLL@DV?$ChTraitsCRT@D@ATL@@@@@ATL@@QAE@XZ
  0012a	8d 4d e8	 lea	 ecx, DWORD PTR $T2[ebp]
  0012d	c6 45 fc 00	 mov	 BYTE PTR __$EHRec$[ebp+8], 0
  00131	ff 15 00 00 00
	00		 call	 DWORD PTR __imp_??1?$CStringT@DV?$StrTraitMFC_DLL@DV?$ChTraitsCRT@D@ATL@@@@@ATL@@QAE@XZ

; 1119 : 	strSaved += "<\\Vert>\r\n";

  00137	68 00 00 00 00	 push	 OFFSET ??_C@_09BIGAMANA@?$DM?2Vert?$DO?$AN?6@
  0013c	8b cb		 mov	 ecx, ebx
  0013e	ff 15 00 00 00
	00		 call	 DWORD PTR __imp_??Y?$CStringT@DV?$StrTraitMFC_DLL@DV?$ChTraitsCRT@D@ATL@@@@@ATL@@QAEAAV01@PBD@Z

; 1120 : 	return strSaved;

  00144	8b c3		 mov	 eax, ebx

; 1121 : }

  00146	8b 4d f4	 mov	 ecx, DWORD PTR __$EHRec$[ebp]
  00149	64 89 0d 00 00
	00 00		 mov	 DWORD PTR fs:0, ecx
  00150	59		 pop	 ecx
  00151	5f		 pop	 edi
  00152	5b		 pop	 ebx
  00153	8b e5		 mov	 esp, ebp
  00155	5d		 pop	 ebp
  00156	c2 04 00	 ret	 4
_TEXT	ENDS
;	COMDAT text$x
text$x	SEGMENT
__unwindfunclet$?GetSavedRealTextPositionData@CTextVertPosition@@MBE?AV?$CStringT@DV?$StrTraitMFC_DLL@DV?$ChTraitsCRT@D@ATL@@@@@ATL@@XZ$0:
  00000	8b 45 f0	 mov	 eax, DWORD PTR $T6[ebp]
  00003	83 e0 01	 and	 eax, 1
  00006	0f 84 0d 00 00
	00		 je	 $LN4@GetSavedRe
  0000c	83 65 f0 fe	 and	 DWORD PTR $T6[ebp], -2	; fffffffeH
  00010	8b 4d 08	 mov	 ecx, DWORD PTR ___$ReturnUdt$[ebp]
  00013	ff 25 00 00 00
	00		 jmp	 DWORD PTR __imp_??1?$CStringT@DV?$StrTraitMFC_DLL@DV?$ChTraitsCRT@D@ATL@@@@@ATL@@QAE@XZ
$LN4@GetSavedRe:
  00019	c3		 ret	 0
__unwindfunclet$?GetSavedRealTextPositionData@CTextVertPosition@@MBE?AV?$CStringT@DV?$StrTraitMFC_DLL@DV?$ChTraitsCRT@D@ATL@@@@@ATL@@XZ$1:
  0001a	8d 4d e8	 lea	 ecx, DWORD PTR $T3[ebp]
  0001d	ff 25 00 00 00
	00		 jmp	 DWORD PTR __imp_??1?$CStringT@DV?$StrTraitMFC_DLL@DV?$ChTraitsCRT@D@ATL@@@@@ATL@@QAE@XZ
__unwindfunclet$?GetSavedRealTextPositionData@CTextVertPosition@@MBE?AV?$CStringT@DV?$StrTraitMFC_DLL@DV?$ChTraitsCRT@D@ATL@@@@@ATL@@XZ$5:
  00023	8b 45 f0	 mov	 eax, DWORD PTR $T6[ebp]
  00026	83 e0 02	 and	 eax, 2
  00029	0f 84 0d 00 00
	00		 je	 $LN12@GetSavedRe
  0002f	83 65 f0 fd	 and	 DWORD PTR $T6[ebp], -3	; fffffffdH
  00033	8d 4d ec	 lea	 ecx, DWORD PTR $T5[ebp]
  00036	ff 25 00 00 00
	00		 jmp	 DWORD PTR __imp_??1?$CStringT@DV?$StrTraitMFC_DLL@DV?$ChTraitsCRT@D@ATL@@@@@ATL@@QAE@XZ
$LN12@GetSavedRe:
  0003c	c3		 ret	 0
__unwindfunclet$?GetSavedRealTextPositionData@CTextVertPosition@@MBE?AV?$CStringT@DV?$StrTraitMFC_DLL@DV?$ChTraitsCRT@D@ATL@@@@@ATL@@XZ$3:
  0003d	8d 4d e8	 lea	 ecx, DWORD PTR $T2[ebp]
  00040	ff 25 00 00 00
	00		 jmp	 DWORD PTR __imp_??1?$CStringT@DV?$StrTraitMFC_DLL@DV?$ChTraitsCRT@D@ATL@@@@@ATL@@QAE@XZ
__unwindfunclet$?GetSavedRealTextPositionData@CTextVertPosition@@MBE?AV?$CStringT@DV?$StrTraitMFC_DLL@DV?$ChTraitsCRT@D@ATL@@@@@ATL@@XZ$6:
  00046	8b 45 f0	 mov	 eax, DWORD PTR $T6[ebp]
  00049	83 e0 04	 and	 eax, 4
  0004c	0f 84 0d 00 00
	00		 je	 $LN16@GetSavedRe
  00052	83 65 f0 fb	 and	 DWORD PTR $T6[ebp], -5	; fffffffbH
  00056	8d 4d ec	 lea	 ecx, DWORD PTR $T4[ebp]
  00059	ff 25 00 00 00
	00		 jmp	 DWORD PTR __imp_??1?$CStringT@DV?$StrTraitMFC_DLL@DV?$ChTraitsCRT@D@ATL@@@@@ATL@@QAE@XZ
$LN16@GetSavedRe:
  0005f	c3		 ret	 0
  00060	cc		 int	 3
  00061	cc		 int	 3
  00062	cc		 int	 3
  00063	cc		 int	 3
  00064	cc		 int	 3
__ehhandler$?GetSavedRealTextPositionData@CTextVertPosition@@MBE?AV?$CStringT@DV?$StrTraitMFC_DLL@DV?$ChTraitsCRT@D@ATL@@@@@ATL@@XZ:
  00065	90		 npad	 1
  00066	90		 npad	 1
  00067	8b 54 24 08	 mov	 edx, DWORD PTR [esp+8]
  0006b	8d 42 0c	 lea	 eax, DWORD PTR [edx+12]
  0006e	8b 4a e8	 mov	 ecx, DWORD PTR [edx-24]
  00071	33 c8		 xor	 ecx, eax
  00073	e8 00 00 00 00	 call	 @__security_check_cookie@4
  00078	b8 00 00 00 00	 mov	 eax, OFFSET __ehfuncinfo$?GetSavedRealTextPositionData@CTextVertPosition@@MBE?AV?$CStringT@DV?$StrTraitMFC_DLL@DV?$ChTraitsCRT@D@ATL@@@@@ATL@@XZ
  0007d	e9 00 00 00 00	 jmp	 ___CxxFrameHandler3
text$x	ENDS
?GetSavedRealTextPositionData@CTextVertPosition@@MBE?AV?$CStringT@DV?$StrTraitMFC_DLL@DV?$ChTraitsCRT@D@ATL@@@@@ATL@@XZ ENDP ; CTextVertPosition::GetSavedRealTextPositionData
; Function compile flags: /Ogtp
; File D:\git\src\IBK\IBK_DRFN\ProjSrc\SrcChartEx\ChartAddIn\ChartAnalysisToolAddIn\Include_Analysis\ElementEnvironment.cpp
;	COMDAT ?GetBottom@CTextVertPosition@@QBE_NXZ
_TEXT	SEGMENT
?GetBottom@CTextVertPosition@@QBE_NXZ PROC		; CTextVertPosition::GetBottom, COMDAT
; _this$ = ecx

; 1106 : 	return m_bBottom;

  00000	8a 41 09	 mov	 al, BYTE PTR [ecx+9]

; 1107 : }

  00003	c3		 ret	 0
?GetBottom@CTextVertPosition@@QBE_NXZ ENDP		; CTextVertPosition::GetBottom
_TEXT	ENDS
; Function compile flags: /Ogtp
; File D:\git\src\IBK\IBK_DRFN\ProjSrc\SrcChartEx\ChartAddIn\ChartAnalysisToolAddIn\Include_Analysis\ElementEnvironment.cpp
;	COMDAT ?GetTop@CTextVertPosition@@QBE_NXZ
_TEXT	SEGMENT
?GetTop@CTextVertPosition@@QBE_NXZ PROC			; CTextVertPosition::GetTop, COMDAT
; _this$ = ecx

; 1101 : 	return m_bTop;

  00000	8a 41 08	 mov	 al, BYTE PTR [ecx+8]

; 1102 : }

  00003	c3		 ret	 0
?GetTop@CTextVertPosition@@QBE_NXZ ENDP			; CTextVertPosition::GetTop
_TEXT	ENDS
; Function compile flags: /Ogtp
; File D:\git\src\IBK\IBK_DRFN\ProjSrc\SrcChartEx\ChartAddIn\ChartAnalysisToolAddIn\Include_Analysis\ElementEnvironment.cpp
;	COMDAT ?SetBottom@CTextVertPosition@@QAEX_N@Z
_TEXT	SEGMENT
_bBottom$ = 8						; size = 1
?SetBottom@CTextVertPosition@@QAEX_N@Z PROC		; CTextVertPosition::SetBottom, COMDAT
; _this$ = ecx

; 1095 : {

  00000	55		 push	 ebp
  00001	8b ec		 mov	 ebp, esp

; 1096 : 	m_bBottom = bBottom;

  00003	8a 45 08	 mov	 al, BYTE PTR _bBottom$[ebp]
  00006	88 41 09	 mov	 BYTE PTR [ecx+9], al

; 1097 : }

  00009	5d		 pop	 ebp
  0000a	c2 04 00	 ret	 4
?SetBottom@CTextVertPosition@@QAEX_N@Z ENDP		; CTextVertPosition::SetBottom
_TEXT	ENDS
; Function compile flags: /Ogtp
; File D:\git\src\IBK\IBK_DRFN\ProjSrc\SrcChartEx\ChartAddIn\ChartAnalysisToolAddIn\Include_Analysis\ElementEnvironment.cpp
;	COMDAT ?SetTop@CTextVertPosition@@QAEX_N@Z
_TEXT	SEGMENT
_bTop$ = 8						; size = 1
?SetTop@CTextVertPosition@@QAEX_N@Z PROC		; CTextVertPosition::SetTop, COMDAT
; _this$ = ecx

; 1090 : {

  00000	55		 push	 ebp
  00001	8b ec		 mov	 ebp, esp

; 1091 : 	m_bTop = bTop;

  00003	8a 45 08	 mov	 al, BYTE PTR _bTop$[ebp]
  00006	88 41 08	 mov	 BYTE PTR [ecx+8], al

; 1092 : }

  00009	5d		 pop	 ebp
  0000a	c2 04 00	 ret	 4
?SetTop@CTextVertPosition@@QAEX_N@Z ENDP		; CTextVertPosition::SetTop
_TEXT	ENDS
; Function compile flags: /Ogtp
; File D:\git\src\IBK\IBK_DRFN\ProjSrc\SrcChartEx\ChartAddIn\ChartAnalysisToolAddIn\Include_Analysis\ElementEnvironment.cpp
;	COMDAT ?Set@CTextVertPosition@@UAEXPBVCTextPosition@@@Z
_TEXT	SEGMENT
$T1 = -4						; size = 4
_pTextPosition$ = 8					; size = 4
?Set@CTextVertPosition@@UAEXPBVCTextPosition@@@Z PROC	; CTextVertPosition::Set, COMDAT
; _this$ = ecx

; 1077 : {

  00000	55		 push	 ebp
  00001	8b ec		 mov	 ebp, esp
  00003	51		 push	 ecx

; 1078 : 	if(pTextPosition == NULL)

  00004	8b 55 08	 mov	 edx, DWORD PTR _pTextPosition$[ebp]
  00007	85 d2		 test	 edx, edx
  00009	74 1d		 je	 SHORT $LN13@Set

; 1079 : 		return;
; 1080 : 
; 1081 : 	CTextVertPosition* pTextVertPosition = (CTextVertPosition*) pTextPosition;
; 1082 : 	assert(pTextVertPosition != NULL);
; 1083 : 	SetTop(pTextVertPosition->GetTop());

  0000b	0f b6 42 08	 movzx	 eax, BYTE PTR [edx+8]
  0000f	88 41 08	 mov	 BYTE PTR [ecx+8], al

; 1084 : 	SetBottom(pTextVertPosition->GetBottom());

  00012	0f b6 42 09	 movzx	 eax, BYTE PTR [edx+9]
  00016	88 41 09	 mov	 BYTE PTR [ecx+9], al

; 844  : 	m_textEnvironment = textEnvironment;

  00019	83 c1 04	 add	 ecx, 4

; 745  : 	if(this == &environment)

  0001c	8d 45 fc	 lea	 eax, DWORD PTR $T1[ebp]
  0001f	3b c8		 cmp	 ecx, eax
  00021	74 05		 je	 SHORT $LN13@Set

; 746  : 		return *this;
; 747  : 
; 748  : 	m_color = environment.GetColor();

  00023	8b 42 04	 mov	 eax, DWORD PTR [edx+4]
  00026	89 01		 mov	 DWORD PTR [ecx], eax
$LN13@Set:

; 1085 : 
; 1086 : 	CTextPosition::Set(pTextPosition);
; 1087 : }

  00028	8b e5		 mov	 esp, ebp
  0002a	5d		 pop	 ebp
  0002b	c2 04 00	 ret	 4
?Set@CTextVertPosition@@UAEXPBVCTextPosition@@@Z ENDP	; CTextVertPosition::Set
_TEXT	ENDS
; Function compile flags: /Ogtp
; File D:\git\src\IBK\IBK_DRFN\ProjSrc\SrcChartEx\ChartAddIn\ChartAnalysisToolAddIn\Include_Analysis\ElementEnvironment.cpp
;	COMDAT ??0CTextVertPosition@@QAE@ABV0@@Z
_TEXT	SEGMENT
_position$ = 8						; size = 4
??0CTextVertPosition@@QAE@ABV0@@Z PROC			; CTextVertPosition::CTextVertPosition, COMDAT
; _this$ = ecx

; 1071 : {

  00000	55		 push	 ebp
  00001	8b ec		 mov	 ebp, esp

; 765  : 	m_color = environment.GetColor();

  00003	8b 55 08	 mov	 edx, DWORD PTR _position$[ebp]
  00006	8b 42 04	 mov	 eax, DWORD PTR [edx+4]
  00009	89 41 04	 mov	 DWORD PTR [ecx+4], eax

; 1071 : {

  0000c	c7 01 00 00 00
	00		 mov	 DWORD PTR [ecx], OFFSET ??_7CTextVertPosition@@6B@

; 766  : }
; 767  : 
; 768  : CTextEnvironment::CTextEnvironment(CTextEnvironment* pEnvironment)
; 769  : {
; 770  : 	if(pEnvironment == NULL)
; 771  : 		return;
; 772  : 
; 773  : 	m_color = pEnvironment->GetColor();
; 774  : }
; 775  : 
; 776  : 
; 777  : // public =====================================================================
; 778  : void CTextEnvironment::Set(const CTextEnvironment& environment)
; 779  : {
; 780  : 	m_color = environment.GetColor();
; 781  : }
; 782  : 
; 783  : void CTextEnvironment::SetColor(const COLORREF& color)
; 784  : {
; 785  : 	m_color = color;
; 786  : }
; 787  : 
; 788  : // ----------------------------------------------------------------------------
; 789  : COLORREF CTextEnvironment::GetColor() const
; 790  : {
; 791  : 	return m_color;
; 792  : }
; 793  : 
; 794  : // <TextEnvironment>
; 795  : // <Color>0,0,0<\\Color>
; 796  : // <\\TextEnvironment>
; 797  : CString CTextEnvironment::GetSavedData() const
; 798  : {
; 799  : 	CString strSaved;
; 800  : 	strSaved.Format("<TextEnvironment>\r\n%s<\\TextEnvironment>\r\n", GetSavedColor());
; 801  : 	return strSaved;
; 802  : }
; 803  : 
; 804  : 
; 805  : // private ====================================================================
; 806  : CString CTextEnvironment::GetSavedColor() const
; 807  : {
; 808  : 	return ("<Color>" + CDataConversion::RGB2Str(m_color) + "<\\Color>\r\n");
; 809  : }
; 810  : 
; 811  : 
; 812  : ///////////////////////////////////////////////////////////////////////////////
; 813  : // class CTextPosition
; 814  : 
; 815  : CTextPosition& CTextPosition::operator=(const CTextPosition& environment)
; 816  : {
; 817  : 	if(this == &environment)
; 818  : 		return *this;
; 819  : 
; 820  : 	m_textEnvironment = environment.GetTextEnvironment();
; 821  : 	return *this;
; 822  : }
; 823  : 
; 824  : // ----------------------------------------------------------------------------
; 825  : CTextPosition::CTextPosition()
; 826  : {
; 827  : }
; 828  : 
; 829  : CTextPosition::CTextPosition(const CTextEnvironment& textEnvironment):
; 830  : 	m_textEnvironment(textEnvironment)
; 831  : {
; 832  : }
; 833  : 
; 834  : // public =====================================================================
; 835  : void CTextPosition::Set(const CTextPosition* pTextPosition)
; 836  : {
; 837  : 	if(pTextPosition == NULL)
; 838  : 		return;
; 839  : 	SetTextEnvironment(pTextPosition->GetTextEnvironment());
; 840  : }
; 841  : 
; 842  : void CTextPosition::SetTextEnvironment(const CTextEnvironment& textEnvironment)
; 843  : {
; 844  : 	m_textEnvironment = textEnvironment;
; 845  : }
; 846  : 
; 847  : // ----------------------------------------------------------------------------
; 848  : CTextEnvironment CTextPosition::GetTextEnvironment() const
; 849  : {
; 850  : 	return m_textEnvironment;
; 851  : }
; 852  : 
; 853  : CTextEnvironment& CTextPosition::GetTextEnvironment()
; 854  : {
; 855  : 	return m_textEnvironment;
; 856  : }
; 857  : 
; 858  : // <PartEnvironment>
; 859  : // <TextEnvironment>
; 860  : // <Color>0,0,0<\\Color>
; 861  : // <\\TextEnvironment>
; 862  : // <TextPosition>
; 863  : // ...
; 864  : // <\\TextPosition>
; 865  : // <\\PartEnvironment>
; 866  : CString CTextPosition::GetSavedData() const
; 867  : {
; 868  : 	CString strSaved;
; 869  : 	strSaved.Format("<PartEnvironment>\r\n%s%s<\\PartEnvironment>\r\n", 
; 870  : 		m_textEnvironment.GetSavedData(), GetSavedData_TextPosition());
; 871  : 	return strSaved;
; 872  : }
; 873  : 
; 874  : 
; 875  : // protected ==================================================================
; 876  : CString CTextPosition::GetDataOfOneLine(const bool bData, const CString& strData) const
; 877  : {
; 878  : 	CString data;
; 879  : 	data.Format("<%s>%d<\\%s>\r\n", strData, bData, strData);
; 880  : 	return data;
; 881  : }
; 882  : 
; 883  : // private ====================================================================
; 884  : // <TextPosition>
; 885  : // <Horz>
; 886  : // <Show>0<\\Show>
; 887  : // <\\Horz>
; 888  : // <Horz>
; 889  : // <Left>0<\\Left>
; 890  : // <Right>0<\\Right>
; 891  : // <\\Horz>
; 892  : // <Vert>
; 893  : // <Top>0<\\Top>
; 894  : // <Bottom>0<\\Bottom>
; 895  : // <\\Vert>
; 896  : // <\\TextPosition>
; 897  : CString CTextPosition::GetSavedData_TextPosition() const
; 898  : {
; 899  : 	CString strSaved;
; 900  : 	strSaved.Format("<TextPosition>\r\n%s<\\TextPosition>\r\n", 
; 901  : 		GetSavedRealTextPositionData());
; 902  : 	return strSaved;
; 903  : }
; 904  : 
; 905  : 
; 906  : ///////////////////////////////////////////////////////////////////////////////
; 907  : // class CTextShowPosition
; 908  : 
; 909  : CTextShowPosition::CTextShowPosition():
; 910  : 	m_bShow(true)
; 911  : {
; 912  : }
; 913  : 
; 914  : CTextShowPosition::CTextShowPosition(const CTextEnvironment& environment, const bool bShow):
; 915  : 	CTextPosition(environment), 
; 916  : 	m_bShow(bShow)
; 917  : {
; 918  : }
; 919  : 
; 920  : CTextShowPosition::CTextShowPosition(const CTextShowPosition& position):
; 921  : 	CTextPosition(position.GetTextEnvironment()), 
; 922  : 	m_bShow(position.IsShow())
; 923  : {
; 924  : }
; 925  : 
; 926  : 
; 927  : // public =====================================================================
; 928  : void CTextShowPosition::Set(const CTextPosition* pTextPosition)
; 929  : {
; 930  : 	if(pTextPosition == NULL)
; 931  : 		return;
; 932  : 
; 933  : 	CTextShowPosition* pTextShowPosition = (CTextShowPosition*) pTextPosition;
; 934  : 	assert(pTextShowPosition != NULL);
; 935  : 	SetShow(pTextShowPosition->IsShow());
; 936  : 
; 937  : 	CTextPosition::Set(pTextPosition);
; 938  : }
; 939  : 
; 940  : void CTextShowPosition::SetShow(const bool bShow)
; 941  : {
; 942  : 	m_bShow = bShow;
; 943  : }
; 944  : 
; 945  : bool CTextShowPosition::IsShow() const
; 946  : {
; 947  : 	return m_bShow;
; 948  : }
; 949  : 
; 950  : // protected ==================================================================
; 951  : // <Horz>
; 952  : // <Show>0<\\Show>
; 953  : // <\\Horz>
; 954  : CString CTextShowPosition::GetSavedRealTextPositionData() const
; 955  : {
; 956  : 	CString strSaved;
; 957  : 	strSaved.Format("<Horz>\r\n%s<\\Horz>\r\n", 
; 958  : 		CTextPosition::GetDataOfOneLine(m_bShow, "Show"));// 2008.08.20    
; 959  : 	return strSaved;
; 960  : }
; 961  : 
; 962  : 
; 963  : ///////////////////////////////////////////////////////////////////////////////
; 964  : // class CTextHorzPosition
; 965  : 
; 966  : CTextHorzPosition::CTextHorzPosition():
; 967  : 	m_bLeft(true),
; 968  : 	m_bRight(true)
; 969  : {
; 970  : }
; 971  : 
; 972  : CTextHorzPosition::CTextHorzPosition(const CTextEnvironment& environment, const bool bLeft, const bool bRight, const bool bRightRate):
; 973  : 	CTextPosition(environment), 
; 974  : 	m_bLeft(bLeft),
; 975  : 	m_bRight(bRight),
; 976  : 	m_bRightRate(bRightRate)
; 977  : {
; 978  : }
; 979  : 
; 980  : CTextHorzPosition::CTextHorzPosition(const CTextHorzPosition& position):
; 981  : 	CTextPosition(position.GetTextEnvironment()), 
; 982  : 	m_bLeft(position.GetLeft()),
; 983  : 	m_bRight(position.GetRight()),
; 984  : 	m_bRightRate(position.GetRightRate())
; 985  : {
; 986  : }
; 987  : 
; 988  : 
; 989  : // public =====================================================================
; 990  : void CTextHorzPosition::Set(const CTextPosition* pTextPosition)
; 991  : {
; 992  : 	if(pTextPosition == NULL)
; 993  : 		return;
; 994  : 
; 995  : 	CTextHorzPosition* pTextHorzPosition = (CTextHorzPosition*) pTextPosition;
; 996  : 	assert(pTextHorzPosition != NULL);
; 997  : 	SetLeft(pTextHorzPosition->GetLeft());
; 998  : 	SetRight(pTextHorzPosition->GetRight());
; 999  : 	SetRightRate(pTextHorzPosition->GetRightRate());
; 1000 : 
; 1001 : 	CTextPosition::Set(pTextPosition);
; 1002 : }
; 1003 : 
; 1004 : void CTextHorzPosition::SetLeft(const bool bLeft)
; 1005 : {
; 1006 : 	m_bLeft = bLeft;
; 1007 : }
; 1008 : 
; 1009 : void CTextHorzPosition::SetRight(const bool bRight)
; 1010 : {
; 1011 : 	m_bRight = bRight;
; 1012 : }
; 1013 : 
; 1014 : void CTextHorzPosition::SetRightRate(const bool bValue)
; 1015 : {
; 1016 : 	m_bRightRate = bValue;
; 1017 : }
; 1018 : 
; 1019 : bool CTextHorzPosition::GetLeft() const
; 1020 : {
; 1021 : 	return m_bLeft;
; 1022 : }
; 1023 : 
; 1024 : bool CTextHorzPosition::GetRight() const
; 1025 : {
; 1026 : 	return m_bRight;
; 1027 : }
; 1028 : 
; 1029 : bool CTextHorzPosition::GetRightRate() const
; 1030 : {
; 1031 : 	return m_bRightRate;
; 1032 : }
; 1033 : 
; 1034 : // protected ==================================================================
; 1035 : // <Horz>
; 1036 : // <Left>0<\\Left>
; 1037 : // <Right>0<\\Right>
; 1038 : // <Rate>0<\\Rate>
; 1039 : // <\\Horz>
; 1040 : CString CTextHorzPosition::GetSavedRealTextPositionData() const
; 1041 : {
; 1042 : 	CString strSaved;
; 1043 : 	strSaved.Format("<Horz>\r\n%s%s%s<\\Horz>\r\n", 
; 1044 : 		CTextPosition::GetDataOfOneLine(m_bLeft, "Left"), 
; 1045 : 		CTextPosition::GetDataOfOneLine(m_bRight, "Right"),
; 1046 : 		CTextPosition::GetDataOfOneLine(m_bRightRate, "Rate"));
; 1047 : 	return strSaved;
; 1048 : }
; 1049 : 
; 1050 : 
; 1051 : ///////////////////////////////////////////////////////////////////////////////
; 1052 : // class CTextVertPosition
; 1053 : 
; 1054 : CTextVertPosition::CTextVertPosition():
; 1055 : 	m_bTop(true),
; 1056 : 	m_bBottom(true)
; 1057 : {
; 1058 : }
; 1059 : 
; 1060 : CTextVertPosition::CTextVertPosition(const CTextEnvironment& environment, const bool bTop, const bool bBottom):
; 1061 : 	CTextPosition(environment), 
; 1062 : 	m_bTop(bTop),
; 1063 : 	m_bBottom(bBottom)
; 1064 : {
; 1065 : }
; 1066 : 
; 1067 : CTextVertPosition::CTextVertPosition(const CTextVertPosition& position):
; 1068 : 	CTextPosition(position.GetTextEnvironment()), 
; 1069 : 	m_bTop(position.GetTop()),

  00012	0f b6 42 08	 movzx	 eax, BYTE PTR [edx+8]
  00016	88 41 08	 mov	 BYTE PTR [ecx+8], al

; 1070 : 	m_bBottom(position.GetBottom())

  00019	0f b6 42 09	 movzx	 eax, BYTE PTR [edx+9]
  0001d	88 41 09	 mov	 BYTE PTR [ecx+9], al

; 1072 : }

  00020	8b c1		 mov	 eax, ecx
  00022	5d		 pop	 ebp
  00023	c2 04 00	 ret	 4
??0CTextVertPosition@@QAE@ABV0@@Z ENDP			; CTextVertPosition::CTextVertPosition
_TEXT	ENDS
; Function compile flags: /Ogtp
; File D:\git\src\IBK\IBK_DRFN\ProjSrc\SrcChartEx\ChartAddIn\ChartAnalysisToolAddIn\Include_Analysis\ElementEnvironment.cpp
;	COMDAT ??0CTextVertPosition@@QAE@ABVCTextEnvironment@@_N1@Z
_TEXT	SEGMENT
_environment$ = 8					; size = 4
_bTop$ = 12						; size = 1
_bBottom$ = 16						; size = 1
??0CTextVertPosition@@QAE@ABVCTextEnvironment@@_N1@Z PROC ; CTextVertPosition::CTextVertPosition, COMDAT
; _this$ = ecx

; 1064 : {

  00000	55		 push	 ebp
  00001	8b ec		 mov	 ebp, esp

; 765  : 	m_color = environment.GetColor();

  00003	8b 45 08	 mov	 eax, DWORD PTR _environment$[ebp]

; 831  : {

  00006	c7 01 00 00 00
	00		 mov	 DWORD PTR [ecx], OFFSET ??_7CTextPosition@@6B@

; 765  : 	m_color = environment.GetColor();

  0000c	8b 00		 mov	 eax, DWORD PTR [eax]
  0000e	89 41 04	 mov	 DWORD PTR [ecx+4], eax

; 832  : }
; 833  : 
; 834  : // public =====================================================================
; 835  : void CTextPosition::Set(const CTextPosition* pTextPosition)
; 836  : {
; 837  : 	if(pTextPosition == NULL)
; 838  : 		return;
; 839  : 	SetTextEnvironment(pTextPosition->GetTextEnvironment());
; 840  : }
; 841  : 
; 842  : void CTextPosition::SetTextEnvironment(const CTextEnvironment& textEnvironment)
; 843  : {
; 844  : 	m_textEnvironment = textEnvironment;
; 845  : }
; 846  : 
; 847  : // ----------------------------------------------------------------------------
; 848  : CTextEnvironment CTextPosition::GetTextEnvironment() const
; 849  : {
; 850  : 	return m_textEnvironment;
; 851  : }
; 852  : 
; 853  : CTextEnvironment& CTextPosition::GetTextEnvironment()
; 854  : {
; 855  : 	return m_textEnvironment;
; 856  : }
; 857  : 
; 858  : // <PartEnvironment>
; 859  : // <TextEnvironment>
; 860  : // <Color>0,0,0<\\Color>
; 861  : // <\\TextEnvironment>
; 862  : // <TextPosition>
; 863  : // ...
; 864  : // <\\TextPosition>
; 865  : // <\\PartEnvironment>
; 866  : CString CTextPosition::GetSavedData() const
; 867  : {
; 868  : 	CString strSaved;
; 869  : 	strSaved.Format("<PartEnvironment>\r\n%s%s<\\PartEnvironment>\r\n", 
; 870  : 		m_textEnvironment.GetSavedData(), GetSavedData_TextPosition());
; 871  : 	return strSaved;
; 872  : }
; 873  : 
; 874  : 
; 875  : // protected ==================================================================
; 876  : CString CTextPosition::GetDataOfOneLine(const bool bData, const CString& strData) const
; 877  : {
; 878  : 	CString data;
; 879  : 	data.Format("<%s>%d<\\%s>\r\n", strData, bData, strData);
; 880  : 	return data;
; 881  : }
; 882  : 
; 883  : // private ====================================================================
; 884  : // <TextPosition>
; 885  : // <Horz>
; 886  : // <Show>0<\\Show>
; 887  : // <\\Horz>
; 888  : // <Horz>
; 889  : // <Left>0<\\Left>
; 890  : // <Right>0<\\Right>
; 891  : // <\\Horz>
; 892  : // <Vert>
; 893  : // <Top>0<\\Top>
; 894  : // <Bottom>0<\\Bottom>
; 895  : // <\\Vert>
; 896  : // <\\TextPosition>
; 897  : CString CTextPosition::GetSavedData_TextPosition() const
; 898  : {
; 899  : 	CString strSaved;
; 900  : 	strSaved.Format("<TextPosition>\r\n%s<\\TextPosition>\r\n", 
; 901  : 		GetSavedRealTextPositionData());
; 902  : 	return strSaved;
; 903  : }
; 904  : 
; 905  : 
; 906  : ///////////////////////////////////////////////////////////////////////////////
; 907  : // class CTextShowPosition
; 908  : 
; 909  : CTextShowPosition::CTextShowPosition():
; 910  : 	m_bShow(true)
; 911  : {
; 912  : }
; 913  : 
; 914  : CTextShowPosition::CTextShowPosition(const CTextEnvironment& environment, const bool bShow):
; 915  : 	CTextPosition(environment), 
; 916  : 	m_bShow(bShow)
; 917  : {
; 918  : }
; 919  : 
; 920  : CTextShowPosition::CTextShowPosition(const CTextShowPosition& position):
; 921  : 	CTextPosition(position.GetTextEnvironment()), 
; 922  : 	m_bShow(position.IsShow())
; 923  : {
; 924  : }
; 925  : 
; 926  : 
; 927  : // public =====================================================================
; 928  : void CTextShowPosition::Set(const CTextPosition* pTextPosition)
; 929  : {
; 930  : 	if(pTextPosition == NULL)
; 931  : 		return;
; 932  : 
; 933  : 	CTextShowPosition* pTextShowPosition = (CTextShowPosition*) pTextPosition;
; 934  : 	assert(pTextShowPosition != NULL);
; 935  : 	SetShow(pTextShowPosition->IsShow());
; 936  : 
; 937  : 	CTextPosition::Set(pTextPosition);
; 938  : }
; 939  : 
; 940  : void CTextShowPosition::SetShow(const bool bShow)
; 941  : {
; 942  : 	m_bShow = bShow;
; 943  : }
; 944  : 
; 945  : bool CTextShowPosition::IsShow() const
; 946  : {
; 947  : 	return m_bShow;
; 948  : }
; 949  : 
; 950  : // protected ==================================================================
; 951  : // <Horz>
; 952  : // <Show>0<\\Show>
; 953  : // <\\Horz>
; 954  : CString CTextShowPosition::GetSavedRealTextPositionData() const
; 955  : {
; 956  : 	CString strSaved;
; 957  : 	strSaved.Format("<Horz>\r\n%s<\\Horz>\r\n", 
; 958  : 		CTextPosition::GetDataOfOneLine(m_bShow, "Show"));// 2008.08.20    
; 959  : 	return strSaved;
; 960  : }
; 961  : 
; 962  : 
; 963  : ///////////////////////////////////////////////////////////////////////////////
; 964  : // class CTextHorzPosition
; 965  : 
; 966  : CTextHorzPosition::CTextHorzPosition():
; 967  : 	m_bLeft(true),
; 968  : 	m_bRight(true)
; 969  : {
; 970  : }
; 971  : 
; 972  : CTextHorzPosition::CTextHorzPosition(const CTextEnvironment& environment, const bool bLeft, const bool bRight, const bool bRightRate):
; 973  : 	CTextPosition(environment), 
; 974  : 	m_bLeft(bLeft),
; 975  : 	m_bRight(bRight),
; 976  : 	m_bRightRate(bRightRate)
; 977  : {
; 978  : }
; 979  : 
; 980  : CTextHorzPosition::CTextHorzPosition(const CTextHorzPosition& position):
; 981  : 	CTextPosition(position.GetTextEnvironment()), 
; 982  : 	m_bLeft(position.GetLeft()),
; 983  : 	m_bRight(position.GetRight()),
; 984  : 	m_bRightRate(position.GetRightRate())
; 985  : {
; 986  : }
; 987  : 
; 988  : 
; 989  : // public =====================================================================
; 990  : void CTextHorzPosition::Set(const CTextPosition* pTextPosition)
; 991  : {
; 992  : 	if(pTextPosition == NULL)
; 993  : 		return;
; 994  : 
; 995  : 	CTextHorzPosition* pTextHorzPosition = (CTextHorzPosition*) pTextPosition;
; 996  : 	assert(pTextHorzPosition != NULL);
; 997  : 	SetLeft(pTextHorzPosition->GetLeft());
; 998  : 	SetRight(pTextHorzPosition->GetRight());
; 999  : 	SetRightRate(pTextHorzPosition->GetRightRate());
; 1000 : 
; 1001 : 	CTextPosition::Set(pTextPosition);
; 1002 : }
; 1003 : 
; 1004 : void CTextHorzPosition::SetLeft(const bool bLeft)
; 1005 : {
; 1006 : 	m_bLeft = bLeft;
; 1007 : }
; 1008 : 
; 1009 : void CTextHorzPosition::SetRight(const bool bRight)
; 1010 : {
; 1011 : 	m_bRight = bRight;
; 1012 : }
; 1013 : 
; 1014 : void CTextHorzPosition::SetRightRate(const bool bValue)
; 1015 : {
; 1016 : 	m_bRightRate = bValue;
; 1017 : }
; 1018 : 
; 1019 : bool CTextHorzPosition::GetLeft() const
; 1020 : {
; 1021 : 	return m_bLeft;
; 1022 : }
; 1023 : 
; 1024 : bool CTextHorzPosition::GetRight() const
; 1025 : {
; 1026 : 	return m_bRight;
; 1027 : }
; 1028 : 
; 1029 : bool CTextHorzPosition::GetRightRate() const
; 1030 : {
; 1031 : 	return m_bRightRate;
; 1032 : }
; 1033 : 
; 1034 : // protected ==================================================================
; 1035 : // <Horz>
; 1036 : // <Left>0<\\Left>
; 1037 : // <Right>0<\\Right>
; 1038 : // <Rate>0<\\Rate>
; 1039 : // <\\Horz>
; 1040 : CString CTextHorzPosition::GetSavedRealTextPositionData() const
; 1041 : {
; 1042 : 	CString strSaved;
; 1043 : 	strSaved.Format("<Horz>\r\n%s%s%s<\\Horz>\r\n", 
; 1044 : 		CTextPosition::GetDataOfOneLine(m_bLeft, "Left"), 
; 1045 : 		CTextPosition::GetDataOfOneLine(m_bRight, "Right"),
; 1046 : 		CTextPosition::GetDataOfOneLine(m_bRightRate, "Rate"));
; 1047 : 	return strSaved;
; 1048 : }
; 1049 : 
; 1050 : 
; 1051 : ///////////////////////////////////////////////////////////////////////////////
; 1052 : // class CTextVertPosition
; 1053 : 
; 1054 : CTextVertPosition::CTextVertPosition():
; 1055 : 	m_bTop(true),
; 1056 : 	m_bBottom(true)
; 1057 : {
; 1058 : }
; 1059 : 
; 1060 : CTextVertPosition::CTextVertPosition(const CTextEnvironment& environment, const bool bTop, const bool bBottom):
; 1061 : 	CTextPosition(environment), 
; 1062 : 	m_bTop(bTop),

  00011	8a 45 0c	 mov	 al, BYTE PTR _bTop$[ebp]
  00014	88 41 08	 mov	 BYTE PTR [ecx+8], al

; 1063 : 	m_bBottom(bBottom)

  00017	8a 45 10	 mov	 al, BYTE PTR _bBottom$[ebp]
  0001a	88 41 09	 mov	 BYTE PTR [ecx+9], al

; 1065 : }

  0001d	8b c1		 mov	 eax, ecx
  0001f	c7 01 00 00 00
	00		 mov	 DWORD PTR [ecx], OFFSET ??_7CTextVertPosition@@6B@
  00025	5d		 pop	 ebp
  00026	c2 0c 00	 ret	 12			; 0000000cH
??0CTextVertPosition@@QAE@ABVCTextEnvironment@@_N1@Z ENDP ; CTextVertPosition::CTextVertPosition
_TEXT	ENDS
; Function compile flags: /Ogtp
; File D:\git\src\IBK\IBK_DRFN\ProjSrc\SrcChartEx\ChartAddIn\ChartAnalysisToolAddIn\Include_Analysis\ElementEnvironment.cpp
;	COMDAT ??0CTextVertPosition@@QAE@XZ
_TEXT	SEGMENT
??0CTextVertPosition@@QAE@XZ PROC			; CTextVertPosition::CTextVertPosition, COMDAT
; _this$ = ecx

; 754  : 	m_color(RGB(0, 0, 0))

  00000	c7 41 04 00 00
	00 00		 mov	 DWORD PTR [ecx+4], 0

; 1058 : }

  00007	8b c1		 mov	 eax, ecx
  00009	c7 01 00 00 00
	00		 mov	 DWORD PTR [ecx], OFFSET ??_7CTextVertPosition@@6B@
  0000f	66 c7 41 08 01
	01		 mov	 WORD PTR [ecx+8], 257	; 00000101H
  00015	c3		 ret	 0
??0CTextVertPosition@@QAE@XZ ENDP			; CTextVertPosition::CTextVertPosition
_TEXT	ENDS
; Function compile flags: /Ogtp
; File D:\git\src\IBK\IBK_DRFN\ProjSrc\SrcChartEx\ChartAddIn\ChartAnalysisToolAddIn\Include_Analysis\ElementEnvironment.cpp
;	COMDAT ?GetSavedRealTextPositionData@CTextHorzPosition@@MBE?AV?$CStringT@DV?$StrTraitMFC_DLL@DV?$ChTraitsCRT@D@ATL@@@@@ATL@@XZ
_TEXT	SEGMENT
$T2 = -40						; size = 4
$T3 = -36						; size = 4
$T4 = -32						; size = 4
$T5 = -28						; size = 4
$T6 = -24						; size = 4
$T7 = -20						; size = 4
$T8 = -16						; size = 4
__$EHRec$ = -12						; size = 12
___$ReturnUdt$ = 8					; size = 4
?GetSavedRealTextPositionData@CTextHorzPosition@@MBE?AV?$CStringT@DV?$StrTraitMFC_DLL@DV?$ChTraitsCRT@D@ATL@@@@@ATL@@XZ PROC ; CTextHorzPosition::GetSavedRealTextPositionData, COMDAT
; _this$ = ecx

; 1041 : {

  00000	55		 push	 ebp
  00001	8b ec		 mov	 ebp, esp
  00003	6a ff		 push	 -1
  00005	68 00 00 00 00	 push	 __ehhandler$?GetSavedRealTextPositionData@CTextHorzPosition@@MBE?AV?$CStringT@DV?$StrTraitMFC_DLL@DV?$ChTraitsCRT@D@ATL@@@@@ATL@@XZ
  0000a	64 a1 00 00 00
	00		 mov	 eax, DWORD PTR fs:0
  00010	50		 push	 eax
  00011	83 ec 1c	 sub	 esp, 28			; 0000001cH
  00014	53		 push	 ebx
  00015	56		 push	 esi
  00016	57		 push	 edi
  00017	a1 00 00 00 00	 mov	 eax, DWORD PTR ___security_cookie
  0001c	33 c5		 xor	 eax, ebp
  0001e	50		 push	 eax
  0001f	8d 45 f4	 lea	 eax, DWORD PTR __$EHRec$[ebp]
  00022	64 a3 00 00 00
	00		 mov	 DWORD PTR fs:0, eax
  00028	8b f9		 mov	 edi, ecx
  0002a	c7 45 f0 00 00
	00 00		 mov	 DWORD PTR $T8[ebp], 0

; 1042 : 	CString strSaved;

  00031	8b 4d 08	 mov	 ecx, DWORD PTR ___$ReturnUdt$[ebp]
  00034	ff 15 00 00 00
	00		 call	 DWORD PTR __imp_??0?$CStringT@DV?$StrTraitMFC_DLL@DV?$ChTraitsCRT@D@ATL@@@@@ATL@@QAE@XZ

; 1044 : 		CTextPosition::GetDataOfOneLine(m_bLeft, "Left"), 
; 1045 : 		CTextPosition::GetDataOfOneLine(m_bRight, "Right"),
; 1046 : 		CTextPosition::GetDataOfOneLine(m_bRightRate, "Rate"));
; 1047 : 	return strSaved;

  0003a	68 00 00 00 00	 push	 OFFSET ??_C@_04LDOGFLEB@Rate@
  0003f	8d 4d d8	 lea	 ecx, DWORD PTR $T2[ebp]
  00042	c7 45 fc 00 00
	00 00		 mov	 DWORD PTR __$EHRec$[ebp+8], 0
  00049	c7 45 f0 01 00
	00 00		 mov	 DWORD PTR $T8[ebp], 1
  00050	ff 15 00 00 00
	00		 call	 DWORD PTR __imp_??0?$CStringT@DV?$StrTraitMFC_DLL@DV?$ChTraitsCRT@D@ATL@@@@@ATL@@QAE@PBD@Z
  00056	68 00 00 00 00	 push	 OFFSET ??_C@_05DADPALEM@Right@
  0005b	8d 4d dc	 lea	 ecx, DWORD PTR $T3[ebp]
  0005e	c7 45 fc 01 00
	00 00		 mov	 DWORD PTR __$EHRec$[ebp+8], 1
  00065	ff 15 00 00 00
	00		 call	 DWORD PTR __imp_??0?$CStringT@DV?$StrTraitMFC_DLL@DV?$ChTraitsCRT@D@ATL@@@@@ATL@@QAE@PBD@Z
  0006b	68 00 00 00 00	 push	 OFFSET ??_C@_04KPCPLBPL@Left@
  00070	8d 4d e0	 lea	 ecx, DWORD PTR $T4[ebp]
  00073	c6 45 fc 02	 mov	 BYTE PTR __$EHRec$[ebp+8], 2
  00077	ff 15 00 00 00
	00		 call	 DWORD PTR __imp_??0?$CStringT@DV?$StrTraitMFC_DLL@DV?$ChTraitsCRT@D@ATL@@@@@ATL@@QAE@PBD@Z
  0007d	8a 5f 0a	 mov	 bl, BYTE PTR [edi+10]

; 878  : 	CString data;

  00080	8d 4d e4	 lea	 ecx, DWORD PTR $T5[ebp]

; 1043 : 	strSaved.Format("<Horz>\r\n%s%s%s<\\Horz>\r\n", 

  00083	c6 45 fc 04	 mov	 BYTE PTR __$EHRec$[ebp+8], 4

; 878  : 	CString data;

  00087	ff 15 00 00 00
	00		 call	 DWORD PTR __imp_??0?$CStringT@DV?$StrTraitMFC_DLL@DV?$ChTraitsCRT@D@ATL@@@@@ATL@@QAE@XZ

; 879  : 	data.Format("<%s>%d<\\%s>\r\n", strData, bData, strData);

  0008d	8b 45 d8	 mov	 eax, DWORD PTR $T2[ebp]
  00090	8b 35 00 00 00
	00		 mov	 esi, DWORD PTR __imp_?Format@?$CStringT@DV?$StrTraitMFC_DLL@DV?$ChTraitsCRT@D@ATL@@@@@ATL@@QAAXPBDZZ
  00096	50		 push	 eax
  00097	0f b6 cb	 movzx	 ecx, bl
  0009a	51		 push	 ecx
  0009b	50		 push	 eax
  0009c	8d 45 e4	 lea	 eax, DWORD PTR $T5[ebp]

; 880  : 	return data;

  0009f	c7 45 f0 03 00
	00 00		 mov	 DWORD PTR $T8[ebp], 3
  000a6	68 00 00 00 00	 push	 OFFSET ??_C@_0O@LNMCLPEF@?$DM?$CFs?$DO?$CFd?$DM?2?$CFs?$DO?$AN?6@
  000ab	50		 push	 eax
  000ac	ff d6		 call	 esi

; 1043 : 	strSaved.Format("<Horz>\r\n%s%s%s<\\Horz>\r\n", 

  000ae	8a 5f 09	 mov	 bl, BYTE PTR [edi+9]

; 879  : 	data.Format("<%s>%d<\\%s>\r\n", strData, bData, strData);

  000b1	83 c4 14	 add	 esp, 20			; 00000014H

; 878  : 	CString data;

  000b4	8d 4d e8	 lea	 ecx, DWORD PTR $T6[ebp]

; 1043 : 	strSaved.Format("<Horz>\r\n%s%s%s<\\Horz>\r\n", 

  000b7	c6 45 fc 05	 mov	 BYTE PTR __$EHRec$[ebp+8], 5

; 878  : 	CString data;

  000bb	ff 15 00 00 00
	00		 call	 DWORD PTR __imp_??0?$CStringT@DV?$StrTraitMFC_DLL@DV?$ChTraitsCRT@D@ATL@@@@@ATL@@QAE@XZ

; 879  : 	data.Format("<%s>%d<\\%s>\r\n", strData, bData, strData);

  000c1	8b 45 dc	 mov	 eax, DWORD PTR $T3[ebp]
  000c4	50		 push	 eax
  000c5	0f b6 cb	 movzx	 ecx, bl
  000c8	51		 push	 ecx
  000c9	50		 push	 eax
  000ca	8d 45 e8	 lea	 eax, DWORD PTR $T6[ebp]

; 880  : 	return data;

  000cd	c7 45 f0 07 00
	00 00		 mov	 DWORD PTR $T8[ebp], 7
  000d4	68 00 00 00 00	 push	 OFFSET ??_C@_0O@LNMCLPEF@?$DM?$CFs?$DO?$CFd?$DM?2?$CFs?$DO?$AN?6@
  000d9	50		 push	 eax
  000da	ff d6		 call	 esi

; 1043 : 	strSaved.Format("<Horz>\r\n%s%s%s<\\Horz>\r\n", 

  000dc	8a 5f 08	 mov	 bl, BYTE PTR [edi+8]

; 879  : 	data.Format("<%s>%d<\\%s>\r\n", strData, bData, strData);

  000df	83 c4 14	 add	 esp, 20			; 00000014H

; 878  : 	CString data;

  000e2	8d 4d ec	 lea	 ecx, DWORD PTR $T7[ebp]

; 1043 : 	strSaved.Format("<Horz>\r\n%s%s%s<\\Horz>\r\n", 

  000e5	c6 45 fc 06	 mov	 BYTE PTR __$EHRec$[ebp+8], 6

; 878  : 	CString data;

  000e9	ff 15 00 00 00
	00		 call	 DWORD PTR __imp_??0?$CStringT@DV?$StrTraitMFC_DLL@DV?$ChTraitsCRT@D@ATL@@@@@ATL@@QAE@XZ

; 879  : 	data.Format("<%s>%d<\\%s>\r\n", strData, bData, strData);

  000ef	8b 45 e0	 mov	 eax, DWORD PTR $T4[ebp]
  000f2	50		 push	 eax
  000f3	0f b6 cb	 movzx	 ecx, bl
  000f6	51		 push	 ecx
  000f7	50		 push	 eax
  000f8	8d 45 ec	 lea	 eax, DWORD PTR $T7[ebp]

; 880  : 	return data;

  000fb	c7 45 f0 0f 00
	00 00		 mov	 DWORD PTR $T8[ebp], 15	; 0000000fH
  00102	68 00 00 00 00	 push	 OFFSET ??_C@_0O@LNMCLPEF@?$DM?$CFs?$DO?$CFd?$DM?2?$CFs?$DO?$AN?6@
  00107	50		 push	 eax
  00108	ff d6		 call	 esi

; 1043 : 	strSaved.Format("<Horz>\r\n%s%s%s<\\Horz>\r\n", 

  0010a	ff 75 e4	 push	 DWORD PTR $T5[ebp]
  0010d	8b 7d 08	 mov	 edi, DWORD PTR ___$ReturnUdt$[ebp]
  00110	ff 75 e8	 push	 DWORD PTR $T6[ebp]
  00113	ff 75 ec	 push	 DWORD PTR $T7[ebp]
  00116	68 00 00 00 00	 push	 OFFSET ??_C@_0BI@GMNKDDJL@?$DMHorz?$DO?$AN?6?$CFs?$CFs?$CFs?$DM?2Horz?$DO?$AN?6@
  0011b	57		 push	 edi
  0011c	ff d6		 call	 esi
  0011e	83 c4 28	 add	 esp, 40			; 00000028H
  00121	8d 4d ec	 lea	 ecx, DWORD PTR $T7[ebp]
  00124	ff 15 00 00 00
	00		 call	 DWORD PTR __imp_??1?$CStringT@DV?$StrTraitMFC_DLL@DV?$ChTraitsCRT@D@ATL@@@@@ATL@@QAE@XZ
  0012a	8d 4d e8	 lea	 ecx, DWORD PTR $T6[ebp]
  0012d	ff 15 00 00 00
	00		 call	 DWORD PTR __imp_??1?$CStringT@DV?$StrTraitMFC_DLL@DV?$ChTraitsCRT@D@ATL@@@@@ATL@@QAE@XZ
  00133	8d 4d e4	 lea	 ecx, DWORD PTR $T5[ebp]
  00136	ff 15 00 00 00
	00		 call	 DWORD PTR __imp_??1?$CStringT@DV?$StrTraitMFC_DLL@DV?$ChTraitsCRT@D@ATL@@@@@ATL@@QAE@XZ
  0013c	8d 4d e0	 lea	 ecx, DWORD PTR $T4[ebp]
  0013f	ff 15 00 00 00
	00		 call	 DWORD PTR __imp_??1?$CStringT@DV?$StrTraitMFC_DLL@DV?$ChTraitsCRT@D@ATL@@@@@ATL@@QAE@XZ
  00145	8d 4d dc	 lea	 ecx, DWORD PTR $T3[ebp]
  00148	ff 15 00 00 00
	00		 call	 DWORD PTR __imp_??1?$CStringT@DV?$StrTraitMFC_DLL@DV?$ChTraitsCRT@D@ATL@@@@@ATL@@QAE@XZ
  0014e	8d 4d d8	 lea	 ecx, DWORD PTR $T2[ebp]
  00151	ff 15 00 00 00
	00		 call	 DWORD PTR __imp_??1?$CStringT@DV?$StrTraitMFC_DLL@DV?$ChTraitsCRT@D@ATL@@@@@ATL@@QAE@XZ

; 1044 : 		CTextPosition::GetDataOfOneLine(m_bLeft, "Left"), 
; 1045 : 		CTextPosition::GetDataOfOneLine(m_bRight, "Right"),
; 1046 : 		CTextPosition::GetDataOfOneLine(m_bRightRate, "Rate"));
; 1047 : 	return strSaved;

  00157	8b c7		 mov	 eax, edi

; 1048 : }

  00159	8b 4d f4	 mov	 ecx, DWORD PTR __$EHRec$[ebp]
  0015c	64 89 0d 00 00
	00 00		 mov	 DWORD PTR fs:0, ecx
  00163	59		 pop	 ecx
  00164	5f		 pop	 edi
  00165	5e		 pop	 esi
  00166	5b		 pop	 ebx
  00167	8b e5		 mov	 esp, ebp
  00169	5d		 pop	 ebp
  0016a	c2 04 00	 ret	 4
_TEXT	ENDS
;	COMDAT text$x
text$x	SEGMENT
__unwindfunclet$?GetSavedRealTextPositionData@CTextHorzPosition@@MBE?AV?$CStringT@DV?$StrTraitMFC_DLL@DV?$ChTraitsCRT@D@ATL@@@@@ATL@@XZ$0:
  00000	8b 45 f0	 mov	 eax, DWORD PTR $T8[ebp]
  00003	83 e0 01	 and	 eax, 1
  00006	0f 84 0d 00 00
	00		 je	 $LN4@GetSavedRe
  0000c	83 65 f0 fe	 and	 DWORD PTR $T8[ebp], -2	; fffffffeH
  00010	8b 4d 08	 mov	 ecx, DWORD PTR ___$ReturnUdt$[ebp]
  00013	ff 25 00 00 00
	00		 jmp	 DWORD PTR __imp_??1?$CStringT@DV?$StrTraitMFC_DLL@DV?$ChTraitsCRT@D@ATL@@@@@ATL@@QAE@XZ
$LN4@GetSavedRe:
  00019	c3		 ret	 0
__unwindfunclet$?GetSavedRealTextPositionData@CTextHorzPosition@@MBE?AV?$CStringT@DV?$StrTraitMFC_DLL@DV?$ChTraitsCRT@D@ATL@@@@@ATL@@XZ$1:
  0001a	8d 4d d8	 lea	 ecx, DWORD PTR $T2[ebp]
  0001d	ff 25 00 00 00
	00		 jmp	 DWORD PTR __imp_??1?$CStringT@DV?$StrTraitMFC_DLL@DV?$ChTraitsCRT@D@ATL@@@@@ATL@@QAE@XZ
__unwindfunclet$?GetSavedRealTextPositionData@CTextHorzPosition@@MBE?AV?$CStringT@DV?$StrTraitMFC_DLL@DV?$ChTraitsCRT@D@ATL@@@@@ATL@@XZ$2:
  00023	8d 4d dc	 lea	 ecx, DWORD PTR $T3[ebp]
  00026	ff 25 00 00 00
	00		 jmp	 DWORD PTR __imp_??1?$CStringT@DV?$StrTraitMFC_DLL@DV?$ChTraitsCRT@D@ATL@@@@@ATL@@QAE@XZ
__unwindfunclet$?GetSavedRealTextPositionData@CTextHorzPosition@@MBE?AV?$CStringT@DV?$StrTraitMFC_DLL@DV?$ChTraitsCRT@D@ATL@@@@@ATL@@XZ$3:
  0002c	8d 4d e0	 lea	 ecx, DWORD PTR $T4[ebp]
  0002f	ff 25 00 00 00
	00		 jmp	 DWORD PTR __imp_??1?$CStringT@DV?$StrTraitMFC_DLL@DV?$ChTraitsCRT@D@ATL@@@@@ATL@@QAE@XZ
__unwindfunclet$?GetSavedRealTextPositionData@CTextHorzPosition@@MBE?AV?$CStringT@DV?$StrTraitMFC_DLL@DV?$ChTraitsCRT@D@ATL@@@@@ATL@@XZ$7:
  00035	8b 45 f0	 mov	 eax, DWORD PTR $T8[ebp]
  00038	83 e0 02	 and	 eax, 2
  0003b	0f 84 0d 00 00
	00		 je	 $LN14@GetSavedRe
  00041	83 65 f0 fd	 and	 DWORD PTR $T8[ebp], -3	; fffffffdH
  00045	8d 4d e4	 lea	 ecx, DWORD PTR $T5[ebp]
  00048	ff 25 00 00 00
	00		 jmp	 DWORD PTR __imp_??1?$CStringT@DV?$StrTraitMFC_DLL@DV?$ChTraitsCRT@D@ATL@@@@@ATL@@QAE@XZ
$LN14@GetSavedRe:
  0004e	c3		 ret	 0
__unwindfunclet$?GetSavedRealTextPositionData@CTextHorzPosition@@MBE?AV?$CStringT@DV?$StrTraitMFC_DLL@DV?$ChTraitsCRT@D@ATL@@@@@ATL@@XZ$8:
  0004f	8b 45 f0	 mov	 eax, DWORD PTR $T8[ebp]
  00052	83 e0 04	 and	 eax, 4
  00055	0f 84 0d 00 00
	00		 je	 $LN18@GetSavedRe
  0005b	83 65 f0 fb	 and	 DWORD PTR $T8[ebp], -5	; fffffffbH
  0005f	8d 4d e8	 lea	 ecx, DWORD PTR $T6[ebp]
  00062	ff 25 00 00 00
	00		 jmp	 DWORD PTR __imp_??1?$CStringT@DV?$StrTraitMFC_DLL@DV?$ChTraitsCRT@D@ATL@@@@@ATL@@QAE@XZ
$LN18@GetSavedRe:
  00068	c3		 ret	 0
__unwindfunclet$?GetSavedRealTextPositionData@CTextHorzPosition@@MBE?AV?$CStringT@DV?$StrTraitMFC_DLL@DV?$ChTraitsCRT@D@ATL@@@@@ATL@@XZ$9:
  00069	8b 45 f0	 mov	 eax, DWORD PTR $T8[ebp]
  0006c	83 e0 08	 and	 eax, 8
  0006f	0f 84 0d 00 00
	00		 je	 $LN22@GetSavedRe
  00075	83 65 f0 f7	 and	 DWORD PTR $T8[ebp], -9	; fffffff7H
  00079	8d 4d ec	 lea	 ecx, DWORD PTR $T7[ebp]
  0007c	ff 25 00 00 00
	00		 jmp	 DWORD PTR __imp_??1?$CStringT@DV?$StrTraitMFC_DLL@DV?$ChTraitsCRT@D@ATL@@@@@ATL@@QAE@XZ
$LN22@GetSavedRe:
  00082	c3		 ret	 0
  00083	cc		 int	 3
  00084	cc		 int	 3
  00085	cc		 int	 3
  00086	cc		 int	 3
  00087	cc		 int	 3
__ehhandler$?GetSavedRealTextPositionData@CTextHorzPosition@@MBE?AV?$CStringT@DV?$StrTraitMFC_DLL@DV?$ChTraitsCRT@D@ATL@@@@@ATL@@XZ:
  00088	90		 npad	 1
  00089	90		 npad	 1
  0008a	8b 54 24 08	 mov	 edx, DWORD PTR [esp+8]
  0008e	8d 42 0c	 lea	 eax, DWORD PTR [edx+12]
  00091	8b 4a d4	 mov	 ecx, DWORD PTR [edx-44]
  00094	33 c8		 xor	 ecx, eax
  00096	e8 00 00 00 00	 call	 @__security_check_cookie@4
  0009b	b8 00 00 00 00	 mov	 eax, OFFSET __ehfuncinfo$?GetSavedRealTextPositionData@CTextHorzPosition@@MBE?AV?$CStringT@DV?$StrTraitMFC_DLL@DV?$ChTraitsCRT@D@ATL@@@@@ATL@@XZ
  000a0	e9 00 00 00 00	 jmp	 ___CxxFrameHandler3
text$x	ENDS
?GetSavedRealTextPositionData@CTextHorzPosition@@MBE?AV?$CStringT@DV?$StrTraitMFC_DLL@DV?$ChTraitsCRT@D@ATL@@@@@ATL@@XZ ENDP ; CTextHorzPosition::GetSavedRealTextPositionData
; Function compile flags: /Ogtp
; File D:\git\src\IBK\IBK_DRFN\ProjSrc\SrcChartEx\ChartAddIn\ChartAnalysisToolAddIn\Include_Analysis\ElementEnvironment.cpp
;	COMDAT ?GetRightRate@CTextHorzPosition@@QBE_NXZ
_TEXT	SEGMENT
?GetRightRate@CTextHorzPosition@@QBE_NXZ PROC		; CTextHorzPosition::GetRightRate, COMDAT
; _this$ = ecx

; 1031 : 	return m_bRightRate;

  00000	8a 41 0a	 mov	 al, BYTE PTR [ecx+10]

; 1032 : }

  00003	c3		 ret	 0
?GetRightRate@CTextHorzPosition@@QBE_NXZ ENDP		; CTextHorzPosition::GetRightRate
_TEXT	ENDS
; Function compile flags: /Ogtp
; File D:\git\src\IBK\IBK_DRFN\ProjSrc\SrcChartEx\ChartAddIn\ChartAnalysisToolAddIn\Include_Analysis\ElementEnvironment.cpp
;	COMDAT ?GetRight@CTextHorzPosition@@QBE_NXZ
_TEXT	SEGMENT
?GetRight@CTextHorzPosition@@QBE_NXZ PROC		; CTextHorzPosition::GetRight, COMDAT
; _this$ = ecx

; 1026 : 	return m_bRight;

  00000	8a 41 09	 mov	 al, BYTE PTR [ecx+9]

; 1027 : }

  00003	c3		 ret	 0
?GetRight@CTextHorzPosition@@QBE_NXZ ENDP		; CTextHorzPosition::GetRight
_TEXT	ENDS
; Function compile flags: /Ogtp
; File D:\git\src\IBK\IBK_DRFN\ProjSrc\SrcChartEx\ChartAddIn\ChartAnalysisToolAddIn\Include_Analysis\ElementEnvironment.cpp
;	COMDAT ?GetLeft@CTextHorzPosition@@QBE_NXZ
_TEXT	SEGMENT
?GetLeft@CTextHorzPosition@@QBE_NXZ PROC		; CTextHorzPosition::GetLeft, COMDAT
; _this$ = ecx

; 1021 : 	return m_bLeft;

  00000	8a 41 08	 mov	 al, BYTE PTR [ecx+8]

; 1022 : }

  00003	c3		 ret	 0
?GetLeft@CTextHorzPosition@@QBE_NXZ ENDP		; CTextHorzPosition::GetLeft
_TEXT	ENDS
; Function compile flags: /Ogtp
; File D:\git\src\IBK\IBK_DRFN\ProjSrc\SrcChartEx\ChartAddIn\ChartAnalysisToolAddIn\Include_Analysis\ElementEnvironment.cpp
;	COMDAT ?SetRightRate@CTextHorzPosition@@QAEX_N@Z
_TEXT	SEGMENT
_bValue$ = 8						; size = 1
?SetRightRate@CTextHorzPosition@@QAEX_N@Z PROC		; CTextHorzPosition::SetRightRate, COMDAT
; _this$ = ecx

; 1015 : {

  00000	55		 push	 ebp
  00001	8b ec		 mov	 ebp, esp

; 1016 : 	m_bRightRate = bValue;

  00003	8a 45 08	 mov	 al, BYTE PTR _bValue$[ebp]
  00006	88 41 0a	 mov	 BYTE PTR [ecx+10], al

; 1017 : }

  00009	5d		 pop	 ebp
  0000a	c2 04 00	 ret	 4
?SetRightRate@CTextHorzPosition@@QAEX_N@Z ENDP		; CTextHorzPosition::SetRightRate
_TEXT	ENDS
; Function compile flags: /Ogtp
; File D:\git\src\IBK\IBK_DRFN\ProjSrc\SrcChartEx\ChartAddIn\ChartAnalysisToolAddIn\Include_Analysis\ElementEnvironment.cpp
;	COMDAT ?SetRight@CTextHorzPosition@@QAEX_N@Z
_TEXT	SEGMENT
_bRight$ = 8						; size = 1
?SetRight@CTextHorzPosition@@QAEX_N@Z PROC		; CTextHorzPosition::SetRight, COMDAT
; _this$ = ecx

; 1010 : {

  00000	55		 push	 ebp
  00001	8b ec		 mov	 ebp, esp

; 1011 : 	m_bRight = bRight;

  00003	8a 45 08	 mov	 al, BYTE PTR _bRight$[ebp]
  00006	88 41 09	 mov	 BYTE PTR [ecx+9], al

; 1012 : }

  00009	5d		 pop	 ebp
  0000a	c2 04 00	 ret	 4
?SetRight@CTextHorzPosition@@QAEX_N@Z ENDP		; CTextHorzPosition::SetRight
_TEXT	ENDS
; Function compile flags: /Ogtp
; File D:\git\src\IBK\IBK_DRFN\ProjSrc\SrcChartEx\ChartAddIn\ChartAnalysisToolAddIn\Include_Analysis\ElementEnvironment.cpp
;	COMDAT ?SetLeft@CTextHorzPosition@@QAEX_N@Z
_TEXT	SEGMENT
_bLeft$ = 8						; size = 1
?SetLeft@CTextHorzPosition@@QAEX_N@Z PROC		; CTextHorzPosition::SetLeft, COMDAT
; _this$ = ecx

; 1005 : {

  00000	55		 push	 ebp
  00001	8b ec		 mov	 ebp, esp

; 1006 : 	m_bLeft = bLeft;

  00003	8a 45 08	 mov	 al, BYTE PTR _bLeft$[ebp]
  00006	88 41 08	 mov	 BYTE PTR [ecx+8], al

; 1007 : }

  00009	5d		 pop	 ebp
  0000a	c2 04 00	 ret	 4
?SetLeft@CTextHorzPosition@@QAEX_N@Z ENDP		; CTextHorzPosition::SetLeft
_TEXT	ENDS
; Function compile flags: /Ogtp
; File D:\git\src\IBK\IBK_DRFN\ProjSrc\SrcChartEx\ChartAddIn\ChartAnalysisToolAddIn\Include_Analysis\ElementEnvironment.cpp
;	COMDAT ?Set@CTextHorzPosition@@UAEXPBVCTextPosition@@@Z
_TEXT	SEGMENT
$T1 = -4						; size = 4
_pTextPosition$ = 8					; size = 4
?Set@CTextHorzPosition@@UAEXPBVCTextPosition@@@Z PROC	; CTextHorzPosition::Set, COMDAT
; _this$ = ecx

; 991  : {

  00000	55		 push	 ebp
  00001	8b ec		 mov	 ebp, esp
  00003	51		 push	 ecx

; 992  : 	if(pTextPosition == NULL)

  00004	8b 55 08	 mov	 edx, DWORD PTR _pTextPosition$[ebp]
  00007	85 d2		 test	 edx, edx
  00009	74 24		 je	 SHORT $LN13@Set

; 993  : 		return;
; 994  : 
; 995  : 	CTextHorzPosition* pTextHorzPosition = (CTextHorzPosition*) pTextPosition;
; 996  : 	assert(pTextHorzPosition != NULL);
; 997  : 	SetLeft(pTextHorzPosition->GetLeft());

  0000b	0f b6 42 08	 movzx	 eax, BYTE PTR [edx+8]
  0000f	88 41 08	 mov	 BYTE PTR [ecx+8], al

; 998  : 	SetRight(pTextHorzPosition->GetRight());

  00012	0f b6 42 09	 movzx	 eax, BYTE PTR [edx+9]
  00016	88 41 09	 mov	 BYTE PTR [ecx+9], al

; 999  : 	SetRightRate(pTextHorzPosition->GetRightRate());

  00019	0f b6 42 0a	 movzx	 eax, BYTE PTR [edx+10]
  0001d	88 41 0a	 mov	 BYTE PTR [ecx+10], al

; 844  : 	m_textEnvironment = textEnvironment;

  00020	83 c1 04	 add	 ecx, 4

; 745  : 	if(this == &environment)

  00023	8d 45 fc	 lea	 eax, DWORD PTR $T1[ebp]
  00026	3b c8		 cmp	 ecx, eax
  00028	74 05		 je	 SHORT $LN13@Set

; 746  : 		return *this;
; 747  : 
; 748  : 	m_color = environment.GetColor();

  0002a	8b 42 04	 mov	 eax, DWORD PTR [edx+4]
  0002d	89 01		 mov	 DWORD PTR [ecx], eax
$LN13@Set:

; 1000 : 
; 1001 : 	CTextPosition::Set(pTextPosition);
; 1002 : }

  0002f	8b e5		 mov	 esp, ebp
  00031	5d		 pop	 ebp
  00032	c2 04 00	 ret	 4
?Set@CTextHorzPosition@@UAEXPBVCTextPosition@@@Z ENDP	; CTextHorzPosition::Set
_TEXT	ENDS
; Function compile flags: /Ogtp
; File D:\git\src\IBK\IBK_DRFN\ProjSrc\SrcChartEx\ChartAddIn\ChartAnalysisToolAddIn\Include_Analysis\ElementEnvironment.cpp
;	COMDAT ??0CTextHorzPosition@@QAE@ABV0@@Z
_TEXT	SEGMENT
_position$ = 8						; size = 4
??0CTextHorzPosition@@QAE@ABV0@@Z PROC			; CTextHorzPosition::CTextHorzPosition, COMDAT
; _this$ = ecx

; 985  : {

  00000	55		 push	 ebp
  00001	8b ec		 mov	 ebp, esp

; 765  : 	m_color = environment.GetColor();

  00003	8b 55 08	 mov	 edx, DWORD PTR _position$[ebp]
  00006	8b 42 04	 mov	 eax, DWORD PTR [edx+4]
  00009	89 41 04	 mov	 DWORD PTR [ecx+4], eax

; 985  : {

  0000c	c7 01 00 00 00
	00		 mov	 DWORD PTR [ecx], OFFSET ??_7CTextHorzPosition@@6B@

; 766  : }
; 767  : 
; 768  : CTextEnvironment::CTextEnvironment(CTextEnvironment* pEnvironment)
; 769  : {
; 770  : 	if(pEnvironment == NULL)
; 771  : 		return;
; 772  : 
; 773  : 	m_color = pEnvironment->GetColor();
; 774  : }
; 775  : 
; 776  : 
; 777  : // public =====================================================================
; 778  : void CTextEnvironment::Set(const CTextEnvironment& environment)
; 779  : {
; 780  : 	m_color = environment.GetColor();
; 781  : }
; 782  : 
; 783  : void CTextEnvironment::SetColor(const COLORREF& color)
; 784  : {
; 785  : 	m_color = color;
; 786  : }
; 787  : 
; 788  : // ----------------------------------------------------------------------------
; 789  : COLORREF CTextEnvironment::GetColor() const
; 790  : {
; 791  : 	return m_color;
; 792  : }
; 793  : 
; 794  : // <TextEnvironment>
; 795  : // <Color>0,0,0<\\Color>
; 796  : // <\\TextEnvironment>
; 797  : CString CTextEnvironment::GetSavedData() const
; 798  : {
; 799  : 	CString strSaved;
; 800  : 	strSaved.Format("<TextEnvironment>\r\n%s<\\TextEnvironment>\r\n", GetSavedColor());
; 801  : 	return strSaved;
; 802  : }
; 803  : 
; 804  : 
; 805  : // private ====================================================================
; 806  : CString CTextEnvironment::GetSavedColor() const
; 807  : {
; 808  : 	return ("<Color>" + CDataConversion::RGB2Str(m_color) + "<\\Color>\r\n");
; 809  : }
; 810  : 
; 811  : 
; 812  : ///////////////////////////////////////////////////////////////////////////////
; 813  : // class CTextPosition
; 814  : 
; 815  : CTextPosition& CTextPosition::operator=(const CTextPosition& environment)
; 816  : {
; 817  : 	if(this == &environment)
; 818  : 		return *this;
; 819  : 
; 820  : 	m_textEnvironment = environment.GetTextEnvironment();
; 821  : 	return *this;
; 822  : }
; 823  : 
; 824  : // ----------------------------------------------------------------------------
; 825  : CTextPosition::CTextPosition()
; 826  : {
; 827  : }
; 828  : 
; 829  : CTextPosition::CTextPosition(const CTextEnvironment& textEnvironment):
; 830  : 	m_textEnvironment(textEnvironment)
; 831  : {
; 832  : }
; 833  : 
; 834  : // public =====================================================================
; 835  : void CTextPosition::Set(const CTextPosition* pTextPosition)
; 836  : {
; 837  : 	if(pTextPosition == NULL)
; 838  : 		return;
; 839  : 	SetTextEnvironment(pTextPosition->GetTextEnvironment());
; 840  : }
; 841  : 
; 842  : void CTextPosition::SetTextEnvironment(const CTextEnvironment& textEnvironment)
; 843  : {
; 844  : 	m_textEnvironment = textEnvironment;
; 845  : }
; 846  : 
; 847  : // ----------------------------------------------------------------------------
; 848  : CTextEnvironment CTextPosition::GetTextEnvironment() const
; 849  : {
; 850  : 	return m_textEnvironment;
; 851  : }
; 852  : 
; 853  : CTextEnvironment& CTextPosition::GetTextEnvironment()
; 854  : {
; 855  : 	return m_textEnvironment;
; 856  : }
; 857  : 
; 858  : // <PartEnvironment>
; 859  : // <TextEnvironment>
; 860  : // <Color>0,0,0<\\Color>
; 861  : // <\\TextEnvironment>
; 862  : // <TextPosition>
; 863  : // ...
; 864  : // <\\TextPosition>
; 865  : // <\\PartEnvironment>
; 866  : CString CTextPosition::GetSavedData() const
; 867  : {
; 868  : 	CString strSaved;
; 869  : 	strSaved.Format("<PartEnvironment>\r\n%s%s<\\PartEnvironment>\r\n", 
; 870  : 		m_textEnvironment.GetSavedData(), GetSavedData_TextPosition());
; 871  : 	return strSaved;
; 872  : }
; 873  : 
; 874  : 
; 875  : // protected ==================================================================
; 876  : CString CTextPosition::GetDataOfOneLine(const bool bData, const CString& strData) const
; 877  : {
; 878  : 	CString data;
; 879  : 	data.Format("<%s>%d<\\%s>\r\n", strData, bData, strData);
; 880  : 	return data;
; 881  : }
; 882  : 
; 883  : // private ====================================================================
; 884  : // <TextPosition>
; 885  : // <Horz>
; 886  : // <Show>0<\\Show>
; 887  : // <\\Horz>
; 888  : // <Horz>
; 889  : // <Left>0<\\Left>
; 890  : // <Right>0<\\Right>
; 891  : // <\\Horz>
; 892  : // <Vert>
; 893  : // <Top>0<\\Top>
; 894  : // <Bottom>0<\\Bottom>
; 895  : // <\\Vert>
; 896  : // <\\TextPosition>
; 897  : CString CTextPosition::GetSavedData_TextPosition() const
; 898  : {
; 899  : 	CString strSaved;
; 900  : 	strSaved.Format("<TextPosition>\r\n%s<\\TextPosition>\r\n", 
; 901  : 		GetSavedRealTextPositionData());
; 902  : 	return strSaved;
; 903  : }
; 904  : 
; 905  : 
; 906  : ///////////////////////////////////////////////////////////////////////////////
; 907  : // class CTextShowPosition
; 908  : 
; 909  : CTextShowPosition::CTextShowPosition():
; 910  : 	m_bShow(true)
; 911  : {
; 912  : }
; 913  : 
; 914  : CTextShowPosition::CTextShowPosition(const CTextEnvironment& environment, const bool bShow):
; 915  : 	CTextPosition(environment), 
; 916  : 	m_bShow(bShow)
; 917  : {
; 918  : }
; 919  : 
; 920  : CTextShowPosition::CTextShowPosition(const CTextShowPosition& position):
; 921  : 	CTextPosition(position.GetTextEnvironment()), 
; 922  : 	m_bShow(position.IsShow())
; 923  : {
; 924  : }
; 925  : 
; 926  : 
; 927  : // public =====================================================================
; 928  : void CTextShowPosition::Set(const CTextPosition* pTextPosition)
; 929  : {
; 930  : 	if(pTextPosition == NULL)
; 931  : 		return;
; 932  : 
; 933  : 	CTextShowPosition* pTextShowPosition = (CTextShowPosition*) pTextPosition;
; 934  : 	assert(pTextShowPosition != NULL);
; 935  : 	SetShow(pTextShowPosition->IsShow());
; 936  : 
; 937  : 	CTextPosition::Set(pTextPosition);
; 938  : }
; 939  : 
; 940  : void CTextShowPosition::SetShow(const bool bShow)
; 941  : {
; 942  : 	m_bShow = bShow;
; 943  : }
; 944  : 
; 945  : bool CTextShowPosition::IsShow() const
; 946  : {
; 947  : 	return m_bShow;
; 948  : }
; 949  : 
; 950  : // protected ==================================================================
; 951  : // <Horz>
; 952  : // <Show>0<\\Show>
; 953  : // <\\Horz>
; 954  : CString CTextShowPosition::GetSavedRealTextPositionData() const
; 955  : {
; 956  : 	CString strSaved;
; 957  : 	strSaved.Format("<Horz>\r\n%s<\\Horz>\r\n", 
; 958  : 		CTextPosition::GetDataOfOneLine(m_bShow, "Show"));// 2008.08.20    
; 959  : 	return strSaved;
; 960  : }
; 961  : 
; 962  : 
; 963  : ///////////////////////////////////////////////////////////////////////////////
; 964  : // class CTextHorzPosition
; 965  : 
; 966  : CTextHorzPosition::CTextHorzPosition():
; 967  : 	m_bLeft(true),
; 968  : 	m_bRight(true)
; 969  : {
; 970  : }
; 971  : 
; 972  : CTextHorzPosition::CTextHorzPosition(const CTextEnvironment& environment, const bool bLeft, const bool bRight, const bool bRightRate):
; 973  : 	CTextPosition(environment), 
; 974  : 	m_bLeft(bLeft),
; 975  : 	m_bRight(bRight),
; 976  : 	m_bRightRate(bRightRate)
; 977  : {
; 978  : }
; 979  : 
; 980  : CTextHorzPosition::CTextHorzPosition(const CTextHorzPosition& position):
; 981  : 	CTextPosition(position.GetTextEnvironment()), 
; 982  : 	m_bLeft(position.GetLeft()),

  00012	0f b6 42 08	 movzx	 eax, BYTE PTR [edx+8]
  00016	88 41 08	 mov	 BYTE PTR [ecx+8], al

; 983  : 	m_bRight(position.GetRight()),

  00019	0f b6 42 09	 movzx	 eax, BYTE PTR [edx+9]
  0001d	88 41 09	 mov	 BYTE PTR [ecx+9], al

; 984  : 	m_bRightRate(position.GetRightRate())

  00020	0f b6 42 0a	 movzx	 eax, BYTE PTR [edx+10]
  00024	88 41 0a	 mov	 BYTE PTR [ecx+10], al

; 986  : }

  00027	8b c1		 mov	 eax, ecx
  00029	5d		 pop	 ebp
  0002a	c2 04 00	 ret	 4
??0CTextHorzPosition@@QAE@ABV0@@Z ENDP			; CTextHorzPosition::CTextHorzPosition
_TEXT	ENDS
; Function compile flags: /Ogtp
; File D:\git\src\IBK\IBK_DRFN\ProjSrc\SrcChartEx\ChartAddIn\ChartAnalysisToolAddIn\Include_Analysis\ElementEnvironment.cpp
;	COMDAT ??0CTextHorzPosition@@QAE@ABVCTextEnvironment@@_N11@Z
_TEXT	SEGMENT
_environment$ = 8					; size = 4
_bLeft$ = 12						; size = 1
_bRight$ = 16						; size = 1
_bRightRate$ = 20					; size = 1
??0CTextHorzPosition@@QAE@ABVCTextEnvironment@@_N11@Z PROC ; CTextHorzPosition::CTextHorzPosition, COMDAT
; _this$ = ecx

; 977  : {

  00000	55		 push	 ebp
  00001	8b ec		 mov	 ebp, esp

; 765  : 	m_color = environment.GetColor();

  00003	8b 45 08	 mov	 eax, DWORD PTR _environment$[ebp]

; 831  : {

  00006	c7 01 00 00 00
	00		 mov	 DWORD PTR [ecx], OFFSET ??_7CTextPosition@@6B@

; 765  : 	m_color = environment.GetColor();

  0000c	8b 00		 mov	 eax, DWORD PTR [eax]
  0000e	89 41 04	 mov	 DWORD PTR [ecx+4], eax

; 832  : }
; 833  : 
; 834  : // public =====================================================================
; 835  : void CTextPosition::Set(const CTextPosition* pTextPosition)
; 836  : {
; 837  : 	if(pTextPosition == NULL)
; 838  : 		return;
; 839  : 	SetTextEnvironment(pTextPosition->GetTextEnvironment());
; 840  : }
; 841  : 
; 842  : void CTextPosition::SetTextEnvironment(const CTextEnvironment& textEnvironment)
; 843  : {
; 844  : 	m_textEnvironment = textEnvironment;
; 845  : }
; 846  : 
; 847  : // ----------------------------------------------------------------------------
; 848  : CTextEnvironment CTextPosition::GetTextEnvironment() const
; 849  : {
; 850  : 	return m_textEnvironment;
; 851  : }
; 852  : 
; 853  : CTextEnvironment& CTextPosition::GetTextEnvironment()
; 854  : {
; 855  : 	return m_textEnvironment;
; 856  : }
; 857  : 
; 858  : // <PartEnvironment>
; 859  : // <TextEnvironment>
; 860  : // <Color>0,0,0<\\Color>
; 861  : // <\\TextEnvironment>
; 862  : // <TextPosition>
; 863  : // ...
; 864  : // <\\TextPosition>
; 865  : // <\\PartEnvironment>
; 866  : CString CTextPosition::GetSavedData() const
; 867  : {
; 868  : 	CString strSaved;
; 869  : 	strSaved.Format("<PartEnvironment>\r\n%s%s<\\PartEnvironment>\r\n", 
; 870  : 		m_textEnvironment.GetSavedData(), GetSavedData_TextPosition());
; 871  : 	return strSaved;
; 872  : }
; 873  : 
; 874  : 
; 875  : // protected ==================================================================
; 876  : CString CTextPosition::GetDataOfOneLine(const bool bData, const CString& strData) const
; 877  : {
; 878  : 	CString data;
; 879  : 	data.Format("<%s>%d<\\%s>\r\n", strData, bData, strData);
; 880  : 	return data;
; 881  : }
; 882  : 
; 883  : // private ====================================================================
; 884  : // <TextPosition>
; 885  : // <Horz>
; 886  : // <Show>0<\\Show>
; 887  : // <\\Horz>
; 888  : // <Horz>
; 889  : // <Left>0<\\Left>
; 890  : // <Right>0<\\Right>
; 891  : // <\\Horz>
; 892  : // <Vert>
; 893  : // <Top>0<\\Top>
; 894  : // <Bottom>0<\\Bottom>
; 895  : // <\\Vert>
; 896  : // <\\TextPosition>
; 897  : CString CTextPosition::GetSavedData_TextPosition() const
; 898  : {
; 899  : 	CString strSaved;
; 900  : 	strSaved.Format("<TextPosition>\r\n%s<\\TextPosition>\r\n", 
; 901  : 		GetSavedRealTextPositionData());
; 902  : 	return strSaved;
; 903  : }
; 904  : 
; 905  : 
; 906  : ///////////////////////////////////////////////////////////////////////////////
; 907  : // class CTextShowPosition
; 908  : 
; 909  : CTextShowPosition::CTextShowPosition():
; 910  : 	m_bShow(true)
; 911  : {
; 912  : }
; 913  : 
; 914  : CTextShowPosition::CTextShowPosition(const CTextEnvironment& environment, const bool bShow):
; 915  : 	CTextPosition(environment), 
; 916  : 	m_bShow(bShow)
; 917  : {
; 918  : }
; 919  : 
; 920  : CTextShowPosition::CTextShowPosition(const CTextShowPosition& position):
; 921  : 	CTextPosition(position.GetTextEnvironment()), 
; 922  : 	m_bShow(position.IsShow())
; 923  : {
; 924  : }
; 925  : 
; 926  : 
; 927  : // public =====================================================================
; 928  : void CTextShowPosition::Set(const CTextPosition* pTextPosition)
; 929  : {
; 930  : 	if(pTextPosition == NULL)
; 931  : 		return;
; 932  : 
; 933  : 	CTextShowPosition* pTextShowPosition = (CTextShowPosition*) pTextPosition;
; 934  : 	assert(pTextShowPosition != NULL);
; 935  : 	SetShow(pTextShowPosition->IsShow());
; 936  : 
; 937  : 	CTextPosition::Set(pTextPosition);
; 938  : }
; 939  : 
; 940  : void CTextShowPosition::SetShow(const bool bShow)
; 941  : {
; 942  : 	m_bShow = bShow;
; 943  : }
; 944  : 
; 945  : bool CTextShowPosition::IsShow() const
; 946  : {
; 947  : 	return m_bShow;
; 948  : }
; 949  : 
; 950  : // protected ==================================================================
; 951  : // <Horz>
; 952  : // <Show>0<\\Show>
; 953  : // <\\Horz>
; 954  : CString CTextShowPosition::GetSavedRealTextPositionData() const
; 955  : {
; 956  : 	CString strSaved;
; 957  : 	strSaved.Format("<Horz>\r\n%s<\\Horz>\r\n", 
; 958  : 		CTextPosition::GetDataOfOneLine(m_bShow, "Show"));// 2008.08.20    
; 959  : 	return strSaved;
; 960  : }
; 961  : 
; 962  : 
; 963  : ///////////////////////////////////////////////////////////////////////////////
; 964  : // class CTextHorzPosition
; 965  : 
; 966  : CTextHorzPosition::CTextHorzPosition():
; 967  : 	m_bLeft(true),
; 968  : 	m_bRight(true)
; 969  : {
; 970  : }
; 971  : 
; 972  : CTextHorzPosition::CTextHorzPosition(const CTextEnvironment& environment, const bool bLeft, const bool bRight, const bool bRightRate):
; 973  : 	CTextPosition(environment), 
; 974  : 	m_bLeft(bLeft),

  00011	8a 45 0c	 mov	 al, BYTE PTR _bLeft$[ebp]
  00014	88 41 08	 mov	 BYTE PTR [ecx+8], al

; 975  : 	m_bRight(bRight),

  00017	8a 45 10	 mov	 al, BYTE PTR _bRight$[ebp]
  0001a	88 41 09	 mov	 BYTE PTR [ecx+9], al

; 976  : 	m_bRightRate(bRightRate)

  0001d	8a 45 14	 mov	 al, BYTE PTR _bRightRate$[ebp]
  00020	88 41 0a	 mov	 BYTE PTR [ecx+10], al

; 978  : }

  00023	8b c1		 mov	 eax, ecx
  00025	c7 01 00 00 00
	00		 mov	 DWORD PTR [ecx], OFFSET ??_7CTextHorzPosition@@6B@
  0002b	5d		 pop	 ebp
  0002c	c2 10 00	 ret	 16			; 00000010H
??0CTextHorzPosition@@QAE@ABVCTextEnvironment@@_N11@Z ENDP ; CTextHorzPosition::CTextHorzPosition
_TEXT	ENDS
; Function compile flags: /Ogtp
; File D:\git\src\IBK\IBK_DRFN\ProjSrc\SrcChartEx\ChartAddIn\ChartAnalysisToolAddIn\Include_Analysis\ElementEnvironment.cpp
;	COMDAT ??0CTextHorzPosition@@QAE@XZ
_TEXT	SEGMENT
??0CTextHorzPosition@@QAE@XZ PROC			; CTextHorzPosition::CTextHorzPosition, COMDAT
; _this$ = ecx

; 754  : 	m_color(RGB(0, 0, 0))

  00000	c7 41 04 00 00
	00 00		 mov	 DWORD PTR [ecx+4], 0

; 970  : }

  00007	8b c1		 mov	 eax, ecx
  00009	c7 01 00 00 00
	00		 mov	 DWORD PTR [ecx], OFFSET ??_7CTextHorzPosition@@6B@
  0000f	66 c7 41 08 01
	01		 mov	 WORD PTR [ecx+8], 257	; 00000101H
  00015	c3		 ret	 0
??0CTextHorzPosition@@QAE@XZ ENDP			; CTextHorzPosition::CTextHorzPosition
_TEXT	ENDS
; Function compile flags: /Ogtp
; File D:\git\src\IBK\IBK_DRFN\ProjSrc\SrcChartEx\ChartAddIn\ChartAnalysisToolAddIn\Include_Analysis\ElementEnvironment.cpp
;	COMDAT ?GetSavedRealTextPositionData@CTextShowPosition@@MBE?AV?$CStringT@DV?$StrTraitMFC_DLL@DV?$ChTraitsCRT@D@ATL@@@@@ATL@@XZ
_TEXT	SEGMENT
$T2 = -24						; size = 4
$T3 = -20						; size = 4
$T4 = -16						; size = 4
__$EHRec$ = -12						; size = 12
___$ReturnUdt$ = 8					; size = 4
?GetSavedRealTextPositionData@CTextShowPosition@@MBE?AV?$CStringT@DV?$StrTraitMFC_DLL@DV?$ChTraitsCRT@D@ATL@@@@@ATL@@XZ PROC ; CTextShowPosition::GetSavedRealTextPositionData, COMDAT
; _this$ = ecx

; 955  : {

  00000	55		 push	 ebp
  00001	8b ec		 mov	 ebp, esp
  00003	6a ff		 push	 -1
  00005	68 00 00 00 00	 push	 __ehhandler$?GetSavedRealTextPositionData@CTextShowPosition@@MBE?AV?$CStringT@DV?$StrTraitMFC_DLL@DV?$ChTraitsCRT@D@ATL@@@@@ATL@@XZ
  0000a	64 a1 00 00 00
	00		 mov	 eax, DWORD PTR fs:0
  00010	50		 push	 eax
  00011	83 ec 0c	 sub	 esp, 12			; 0000000cH
  00014	53		 push	 ebx
  00015	56		 push	 esi
  00016	57		 push	 edi
  00017	a1 00 00 00 00	 mov	 eax, DWORD PTR ___security_cookie
  0001c	33 c5		 xor	 eax, ebp
  0001e	50		 push	 eax
  0001f	8d 45 f4	 lea	 eax, DWORD PTR __$EHRec$[ebp]
  00022	64 a3 00 00 00
	00		 mov	 DWORD PTR fs:0, eax
  00028	8b f1		 mov	 esi, ecx
  0002a	c7 45 ec 00 00
	00 00		 mov	 DWORD PTR $T3[ebp], 0

; 956  : 	CString strSaved;

  00031	8b 7d 08	 mov	 edi, DWORD PTR ___$ReturnUdt$[ebp]
  00034	8b cf		 mov	 ecx, edi
  00036	ff 15 00 00 00
	00		 call	 DWORD PTR __imp_??0?$CStringT@DV?$StrTraitMFC_DLL@DV?$ChTraitsCRT@D@ATL@@@@@ATL@@QAE@XZ

; 958  : 		CTextPosition::GetDataOfOneLine(m_bShow, "Show"));// 2008.08.20    
; 959  : 	return strSaved;

  0003c	68 00 00 00 00	 push	 OFFSET ??_C@_04JLAJABDJ@Show@
  00041	8d 4d e8	 lea	 ecx, DWORD PTR $T2[ebp]
  00044	c7 45 fc 00 00
	00 00		 mov	 DWORD PTR __$EHRec$[ebp+8], 0
  0004b	c7 45 ec 01 00
	00 00		 mov	 DWORD PTR $T3[ebp], 1
  00052	ff 15 00 00 00
	00		 call	 DWORD PTR __imp_??0?$CStringT@DV?$StrTraitMFC_DLL@DV?$ChTraitsCRT@D@ATL@@@@@ATL@@QAE@PBD@Z
  00058	8a 5e 08	 mov	 bl, BYTE PTR [esi+8]
  0005b	c7 45 fc 01 00
	00 00		 mov	 DWORD PTR __$EHRec$[ebp+8], 1

; 878  : 	CString data;

  00062	8d 4d f0	 lea	 ecx, DWORD PTR $T4[ebp]

; 957  : 	strSaved.Format("<Horz>\r\n%s<\\Horz>\r\n", 

  00065	c6 45 fc 02	 mov	 BYTE PTR __$EHRec$[ebp+8], 2

; 878  : 	CString data;

  00069	ff 15 00 00 00
	00		 call	 DWORD PTR __imp_??0?$CStringT@DV?$StrTraitMFC_DLL@DV?$ChTraitsCRT@D@ATL@@@@@ATL@@QAE@XZ

; 879  : 	data.Format("<%s>%d<\\%s>\r\n", strData, bData, strData);

  0006f	8b 45 e8	 mov	 eax, DWORD PTR $T2[ebp]
  00072	8b 35 00 00 00
	00		 mov	 esi, DWORD PTR __imp_?Format@?$CStringT@DV?$StrTraitMFC_DLL@DV?$ChTraitsCRT@D@ATL@@@@@ATL@@QAAXPBDZZ
  00078	50		 push	 eax
  00079	0f b6 cb	 movzx	 ecx, bl
  0007c	51		 push	 ecx
  0007d	50		 push	 eax
  0007e	8d 45 f0	 lea	 eax, DWORD PTR $T4[ebp]

; 880  : 	return data;

  00081	c7 45 ec 03 00
	00 00		 mov	 DWORD PTR $T3[ebp], 3
  00088	68 00 00 00 00	 push	 OFFSET ??_C@_0O@LNMCLPEF@?$DM?$CFs?$DO?$CFd?$DM?2?$CFs?$DO?$AN?6@
  0008d	50		 push	 eax
  0008e	ff d6		 call	 esi

; 957  : 	strSaved.Format("<Horz>\r\n%s<\\Horz>\r\n", 

  00090	ff 75 f0	 push	 DWORD PTR $T4[ebp]
  00093	68 00 00 00 00	 push	 OFFSET ??_C@_0BE@CKCBMKAP@?$DMHorz?$DO?$AN?6?$CFs?$DM?2Horz?$DO?$AN?6@
  00098	57		 push	 edi
  00099	ff d6		 call	 esi
  0009b	83 c4 20	 add	 esp, 32			; 00000020H
  0009e	8d 4d f0	 lea	 ecx, DWORD PTR $T4[ebp]
  000a1	ff 15 00 00 00
	00		 call	 DWORD PTR __imp_??1?$CStringT@DV?$StrTraitMFC_DLL@DV?$ChTraitsCRT@D@ATL@@@@@ATL@@QAE@XZ
  000a7	8d 4d e8	 lea	 ecx, DWORD PTR $T2[ebp]
  000aa	ff 15 00 00 00
	00		 call	 DWORD PTR __imp_??1?$CStringT@DV?$StrTraitMFC_DLL@DV?$ChTraitsCRT@D@ATL@@@@@ATL@@QAE@XZ

; 958  : 		CTextPosition::GetDataOfOneLine(m_bShow, "Show"));// 2008.08.20    
; 959  : 	return strSaved;

  000b0	8b c7		 mov	 eax, edi

; 960  : }

  000b2	8b 4d f4	 mov	 ecx, DWORD PTR __$EHRec$[ebp]
  000b5	64 89 0d 00 00
	00 00		 mov	 DWORD PTR fs:0, ecx
  000bc	59		 pop	 ecx
  000bd	5f		 pop	 edi
  000be	5e		 pop	 esi
  000bf	5b		 pop	 ebx
  000c0	8b e5		 mov	 esp, ebp
  000c2	5d		 pop	 ebp
  000c3	c2 04 00	 ret	 4
_TEXT	ENDS
;	COMDAT text$x
text$x	SEGMENT
__unwindfunclet$?GetSavedRealTextPositionData@CTextShowPosition@@MBE?AV?$CStringT@DV?$StrTraitMFC_DLL@DV?$ChTraitsCRT@D@ATL@@@@@ATL@@XZ$0:
  00000	8b 45 ec	 mov	 eax, DWORD PTR $T3[ebp]
  00003	83 e0 01	 and	 eax, 1
  00006	0f 84 0d 00 00
	00		 je	 $LN4@GetSavedRe
  0000c	83 65 ec fe	 and	 DWORD PTR $T3[ebp], -2	; fffffffeH
  00010	8b 4d 08	 mov	 ecx, DWORD PTR ___$ReturnUdt$[ebp]
  00013	ff 25 00 00 00
	00		 jmp	 DWORD PTR __imp_??1?$CStringT@DV?$StrTraitMFC_DLL@DV?$ChTraitsCRT@D@ATL@@@@@ATL@@QAE@XZ
$LN4@GetSavedRe:
  00019	c3		 ret	 0
__unwindfunclet$?GetSavedRealTextPositionData@CTextShowPosition@@MBE?AV?$CStringT@DV?$StrTraitMFC_DLL@DV?$ChTraitsCRT@D@ATL@@@@@ATL@@XZ$1:
  0001a	8d 4d e8	 lea	 ecx, DWORD PTR $T2[ebp]
  0001d	ff 25 00 00 00
	00		 jmp	 DWORD PTR __imp_??1?$CStringT@DV?$StrTraitMFC_DLL@DV?$ChTraitsCRT@D@ATL@@@@@ATL@@QAE@XZ
__unwindfunclet$?GetSavedRealTextPositionData@CTextShowPosition@@MBE?AV?$CStringT@DV?$StrTraitMFC_DLL@DV?$ChTraitsCRT@D@ATL@@@@@ATL@@XZ$3:
  00023	8b 45 ec	 mov	 eax, DWORD PTR $T3[ebp]
  00026	83 e0 02	 and	 eax, 2
  00029	0f 84 0d 00 00
	00		 je	 $LN10@GetSavedRe
  0002f	83 65 ec fd	 and	 DWORD PTR $T3[ebp], -3	; fffffffdH
  00033	8d 4d f0	 lea	 ecx, DWORD PTR $T4[ebp]
  00036	ff 25 00 00 00
	00		 jmp	 DWORD PTR __imp_??1?$CStringT@DV?$StrTraitMFC_DLL@DV?$ChTraitsCRT@D@ATL@@@@@ATL@@QAE@XZ
$LN10@GetSavedRe:
  0003c	c3		 ret	 0
  0003d	cc		 int	 3
  0003e	cc		 int	 3
  0003f	cc		 int	 3
  00040	cc		 int	 3
  00041	cc		 int	 3
__ehhandler$?GetSavedRealTextPositionData@CTextShowPosition@@MBE?AV?$CStringT@DV?$StrTraitMFC_DLL@DV?$ChTraitsCRT@D@ATL@@@@@ATL@@XZ:
  00042	90		 npad	 1
  00043	90		 npad	 1
  00044	8b 54 24 08	 mov	 edx, DWORD PTR [esp+8]
  00048	8d 42 0c	 lea	 eax, DWORD PTR [edx+12]
  0004b	8b 4a e4	 mov	 ecx, DWORD PTR [edx-28]
  0004e	33 c8		 xor	 ecx, eax
  00050	e8 00 00 00 00	 call	 @__security_check_cookie@4
  00055	b8 00 00 00 00	 mov	 eax, OFFSET __ehfuncinfo$?GetSavedRealTextPositionData@CTextShowPosition@@MBE?AV?$CStringT@DV?$StrTraitMFC_DLL@DV?$ChTraitsCRT@D@ATL@@@@@ATL@@XZ
  0005a	e9 00 00 00 00	 jmp	 ___CxxFrameHandler3
text$x	ENDS
?GetSavedRealTextPositionData@CTextShowPosition@@MBE?AV?$CStringT@DV?$StrTraitMFC_DLL@DV?$ChTraitsCRT@D@ATL@@@@@ATL@@XZ ENDP ; CTextShowPosition::GetSavedRealTextPositionData
; Function compile flags: /Ogtp
; File D:\git\src\IBK\IBK_DRFN\ProjSrc\SrcChartEx\ChartAddIn\ChartAnalysisToolAddIn\Include_Analysis\ElementEnvironment.cpp
;	COMDAT ?IsShow@CTextShowPosition@@QBE_NXZ
_TEXT	SEGMENT
?IsShow@CTextShowPosition@@QBE_NXZ PROC			; CTextShowPosition::IsShow, COMDAT
; _this$ = ecx

; 947  : 	return m_bShow;

  00000	8a 41 08	 mov	 al, BYTE PTR [ecx+8]

; 948  : }

  00003	c3		 ret	 0
?IsShow@CTextShowPosition@@QBE_NXZ ENDP			; CTextShowPosition::IsShow
_TEXT	ENDS
; Function compile flags: /Ogtp
; File D:\git\src\IBK\IBK_DRFN\ProjSrc\SrcChartEx\ChartAddIn\ChartAnalysisToolAddIn\Include_Analysis\ElementEnvironment.cpp
;	COMDAT ?SetShow@CTextShowPosition@@QAEX_N@Z
_TEXT	SEGMENT
_bShow$ = 8						; size = 1
?SetShow@CTextShowPosition@@QAEX_N@Z PROC		; CTextShowPosition::SetShow, COMDAT
; _this$ = ecx

; 941  : {

  00000	55		 push	 ebp
  00001	8b ec		 mov	 ebp, esp

; 942  : 	m_bShow = bShow;

  00003	8a 45 08	 mov	 al, BYTE PTR _bShow$[ebp]
  00006	88 41 08	 mov	 BYTE PTR [ecx+8], al

; 943  : }

  00009	5d		 pop	 ebp
  0000a	c2 04 00	 ret	 4
?SetShow@CTextShowPosition@@QAEX_N@Z ENDP		; CTextShowPosition::SetShow
_TEXT	ENDS
; Function compile flags: /Ogtp
; File D:\git\src\IBK\IBK_DRFN\ProjSrc\SrcChartEx\ChartAddIn\ChartAnalysisToolAddIn\Include_Analysis\ElementEnvironment.cpp
;	COMDAT ?Set@CTextShowPosition@@UAEXPBVCTextPosition@@@Z
_TEXT	SEGMENT
$T1 = -4						; size = 4
_pTextPosition$ = 8					; size = 4
?Set@CTextShowPosition@@UAEXPBVCTextPosition@@@Z PROC	; CTextShowPosition::Set, COMDAT
; _this$ = ecx

; 929  : {

  00000	55		 push	 ebp
  00001	8b ec		 mov	 ebp, esp
  00003	51		 push	 ecx

; 930  : 	if(pTextPosition == NULL)

  00004	8b 55 08	 mov	 edx, DWORD PTR _pTextPosition$[ebp]
  00007	85 d2		 test	 edx, edx
  00009	74 15		 je	 SHORT $LN13@Set

; 931  : 		return;
; 932  : 
; 933  : 	CTextShowPosition* pTextShowPosition = (CTextShowPosition*) pTextPosition;
; 934  : 	assert(pTextShowPosition != NULL);
; 935  : 	SetShow(pTextShowPosition->IsShow());

  0000b	8a 42 08	 mov	 al, BYTE PTR [edx+8]
  0000e	88 41 08	 mov	 BYTE PTR [ecx+8], al

; 844  : 	m_textEnvironment = textEnvironment;

  00011	83 c1 04	 add	 ecx, 4

; 745  : 	if(this == &environment)

  00014	8d 45 fc	 lea	 eax, DWORD PTR $T1[ebp]
  00017	3b c8		 cmp	 ecx, eax
  00019	74 05		 je	 SHORT $LN13@Set

; 746  : 		return *this;
; 747  : 
; 748  : 	m_color = environment.GetColor();

  0001b	8b 42 04	 mov	 eax, DWORD PTR [edx+4]
  0001e	89 01		 mov	 DWORD PTR [ecx], eax
$LN13@Set:

; 936  : 
; 937  : 	CTextPosition::Set(pTextPosition);
; 938  : }

  00020	8b e5		 mov	 esp, ebp
  00022	5d		 pop	 ebp
  00023	c2 04 00	 ret	 4
?Set@CTextShowPosition@@UAEXPBVCTextPosition@@@Z ENDP	; CTextShowPosition::Set
_TEXT	ENDS
; Function compile flags: /Ogtp
; File D:\git\src\IBK\IBK_DRFN\ProjSrc\SrcChartEx\ChartAddIn\ChartAnalysisToolAddIn\Include_Analysis\ElementEnvironment.cpp
;	COMDAT ??0CTextShowPosition@@QAE@ABV0@@Z
_TEXT	SEGMENT
_position$ = 8						; size = 4
??0CTextShowPosition@@QAE@ABV0@@Z PROC			; CTextShowPosition::CTextShowPosition, COMDAT
; _this$ = ecx

; 923  : {

  00000	55		 push	 ebp
  00001	8b ec		 mov	 ebp, esp

; 765  : 	m_color = environment.GetColor();

  00003	8b 55 08	 mov	 edx, DWORD PTR _position$[ebp]
  00006	8b 42 04	 mov	 eax, DWORD PTR [edx+4]
  00009	89 41 04	 mov	 DWORD PTR [ecx+4], eax

; 923  : {

  0000c	c7 01 00 00 00
	00		 mov	 DWORD PTR [ecx], OFFSET ??_7CTextShowPosition@@6B@

; 766  : }
; 767  : 
; 768  : CTextEnvironment::CTextEnvironment(CTextEnvironment* pEnvironment)
; 769  : {
; 770  : 	if(pEnvironment == NULL)
; 771  : 		return;
; 772  : 
; 773  : 	m_color = pEnvironment->GetColor();
; 774  : }
; 775  : 
; 776  : 
; 777  : // public =====================================================================
; 778  : void CTextEnvironment::Set(const CTextEnvironment& environment)
; 779  : {
; 780  : 	m_color = environment.GetColor();
; 781  : }
; 782  : 
; 783  : void CTextEnvironment::SetColor(const COLORREF& color)
; 784  : {
; 785  : 	m_color = color;
; 786  : }
; 787  : 
; 788  : // ----------------------------------------------------------------------------
; 789  : COLORREF CTextEnvironment::GetColor() const
; 790  : {
; 791  : 	return m_color;
; 792  : }
; 793  : 
; 794  : // <TextEnvironment>
; 795  : // <Color>0,0,0<\\Color>
; 796  : // <\\TextEnvironment>
; 797  : CString CTextEnvironment::GetSavedData() const
; 798  : {
; 799  : 	CString strSaved;
; 800  : 	strSaved.Format("<TextEnvironment>\r\n%s<\\TextEnvironment>\r\n", GetSavedColor());
; 801  : 	return strSaved;
; 802  : }
; 803  : 
; 804  : 
; 805  : // private ====================================================================
; 806  : CString CTextEnvironment::GetSavedColor() const
; 807  : {
; 808  : 	return ("<Color>" + CDataConversion::RGB2Str(m_color) + "<\\Color>\r\n");
; 809  : }
; 810  : 
; 811  : 
; 812  : ///////////////////////////////////////////////////////////////////////////////
; 813  : // class CTextPosition
; 814  : 
; 815  : CTextPosition& CTextPosition::operator=(const CTextPosition& environment)
; 816  : {
; 817  : 	if(this == &environment)
; 818  : 		return *this;
; 819  : 
; 820  : 	m_textEnvironment = environment.GetTextEnvironment();
; 821  : 	return *this;
; 822  : }
; 823  : 
; 824  : // ----------------------------------------------------------------------------
; 825  : CTextPosition::CTextPosition()
; 826  : {
; 827  : }
; 828  : 
; 829  : CTextPosition::CTextPosition(const CTextEnvironment& textEnvironment):
; 830  : 	m_textEnvironment(textEnvironment)
; 831  : {
; 832  : }
; 833  : 
; 834  : // public =====================================================================
; 835  : void CTextPosition::Set(const CTextPosition* pTextPosition)
; 836  : {
; 837  : 	if(pTextPosition == NULL)
; 838  : 		return;
; 839  : 	SetTextEnvironment(pTextPosition->GetTextEnvironment());
; 840  : }
; 841  : 
; 842  : void CTextPosition::SetTextEnvironment(const CTextEnvironment& textEnvironment)
; 843  : {
; 844  : 	m_textEnvironment = textEnvironment;
; 845  : }
; 846  : 
; 847  : // ----------------------------------------------------------------------------
; 848  : CTextEnvironment CTextPosition::GetTextEnvironment() const
; 849  : {
; 850  : 	return m_textEnvironment;
; 851  : }
; 852  : 
; 853  : CTextEnvironment& CTextPosition::GetTextEnvironment()
; 854  : {
; 855  : 	return m_textEnvironment;
; 856  : }
; 857  : 
; 858  : // <PartEnvironment>
; 859  : // <TextEnvironment>
; 860  : // <Color>0,0,0<\\Color>
; 861  : // <\\TextEnvironment>
; 862  : // <TextPosition>
; 863  : // ...
; 864  : // <\\TextPosition>
; 865  : // <\\PartEnvironment>
; 866  : CString CTextPosition::GetSavedData() const
; 867  : {
; 868  : 	CString strSaved;
; 869  : 	strSaved.Format("<PartEnvironment>\r\n%s%s<\\PartEnvironment>\r\n", 
; 870  : 		m_textEnvironment.GetSavedData(), GetSavedData_TextPosition());
; 871  : 	return strSaved;
; 872  : }
; 873  : 
; 874  : 
; 875  : // protected ==================================================================
; 876  : CString CTextPosition::GetDataOfOneLine(const bool bData, const CString& strData) const
; 877  : {
; 878  : 	CString data;
; 879  : 	data.Format("<%s>%d<\\%s>\r\n", strData, bData, strData);
; 880  : 	return data;
; 881  : }
; 882  : 
; 883  : // private ====================================================================
; 884  : // <TextPosition>
; 885  : // <Horz>
; 886  : // <Show>0<\\Show>
; 887  : // <\\Horz>
; 888  : // <Horz>
; 889  : // <Left>0<\\Left>
; 890  : // <Right>0<\\Right>
; 891  : // <\\Horz>
; 892  : // <Vert>
; 893  : // <Top>0<\\Top>
; 894  : // <Bottom>0<\\Bottom>
; 895  : // <\\Vert>
; 896  : // <\\TextPosition>
; 897  : CString CTextPosition::GetSavedData_TextPosition() const
; 898  : {
; 899  : 	CString strSaved;
; 900  : 	strSaved.Format("<TextPosition>\r\n%s<\\TextPosition>\r\n", 
; 901  : 		GetSavedRealTextPositionData());
; 902  : 	return strSaved;
; 903  : }
; 904  : 
; 905  : 
; 906  : ///////////////////////////////////////////////////////////////////////////////
; 907  : // class CTextShowPosition
; 908  : 
; 909  : CTextShowPosition::CTextShowPosition():
; 910  : 	m_bShow(true)
; 911  : {
; 912  : }
; 913  : 
; 914  : CTextShowPosition::CTextShowPosition(const CTextEnvironment& environment, const bool bShow):
; 915  : 	CTextPosition(environment), 
; 916  : 	m_bShow(bShow)
; 917  : {
; 918  : }
; 919  : 
; 920  : CTextShowPosition::CTextShowPosition(const CTextShowPosition& position):
; 921  : 	CTextPosition(position.GetTextEnvironment()), 
; 922  : 	m_bShow(position.IsShow())

  00012	8a 42 08	 mov	 al, BYTE PTR [edx+8]
  00015	88 41 08	 mov	 BYTE PTR [ecx+8], al

; 924  : }

  00018	8b c1		 mov	 eax, ecx
  0001a	5d		 pop	 ebp
  0001b	c2 04 00	 ret	 4
??0CTextShowPosition@@QAE@ABV0@@Z ENDP			; CTextShowPosition::CTextShowPosition
_TEXT	ENDS
; Function compile flags: /Ogtp
; File D:\git\src\IBK\IBK_DRFN\ProjSrc\SrcChartEx\ChartAddIn\ChartAnalysisToolAddIn\Include_Analysis\ElementEnvironment.cpp
;	COMDAT ??0CTextShowPosition@@QAE@ABVCTextEnvironment@@_N@Z
_TEXT	SEGMENT
_environment$ = 8					; size = 4
_bShow$ = 12						; size = 1
??0CTextShowPosition@@QAE@ABVCTextEnvironment@@_N@Z PROC ; CTextShowPosition::CTextShowPosition, COMDAT
; _this$ = ecx

; 917  : {

  00000	55		 push	 ebp
  00001	8b ec		 mov	 ebp, esp

; 765  : 	m_color = environment.GetColor();

  00003	8b 45 08	 mov	 eax, DWORD PTR _environment$[ebp]

; 831  : {

  00006	c7 01 00 00 00
	00		 mov	 DWORD PTR [ecx], OFFSET ??_7CTextPosition@@6B@

; 765  : 	m_color = environment.GetColor();

  0000c	8b 00		 mov	 eax, DWORD PTR [eax]
  0000e	89 41 04	 mov	 DWORD PTR [ecx+4], eax

; 832  : }
; 833  : 
; 834  : // public =====================================================================
; 835  : void CTextPosition::Set(const CTextPosition* pTextPosition)
; 836  : {
; 837  : 	if(pTextPosition == NULL)
; 838  : 		return;
; 839  : 	SetTextEnvironment(pTextPosition->GetTextEnvironment());
; 840  : }
; 841  : 
; 842  : void CTextPosition::SetTextEnvironment(const CTextEnvironment& textEnvironment)
; 843  : {
; 844  : 	m_textEnvironment = textEnvironment;
; 845  : }
; 846  : 
; 847  : // ----------------------------------------------------------------------------
; 848  : CTextEnvironment CTextPosition::GetTextEnvironment() const
; 849  : {
; 850  : 	return m_textEnvironment;
; 851  : }
; 852  : 
; 853  : CTextEnvironment& CTextPosition::GetTextEnvironment()
; 854  : {
; 855  : 	return m_textEnvironment;
; 856  : }
; 857  : 
; 858  : // <PartEnvironment>
; 859  : // <TextEnvironment>
; 860  : // <Color>0,0,0<\\Color>
; 861  : // <\\TextEnvironment>
; 862  : // <TextPosition>
; 863  : // ...
; 864  : // <\\TextPosition>
; 865  : // <\\PartEnvironment>
; 866  : CString CTextPosition::GetSavedData() const
; 867  : {
; 868  : 	CString strSaved;
; 869  : 	strSaved.Format("<PartEnvironment>\r\n%s%s<\\PartEnvironment>\r\n", 
; 870  : 		m_textEnvironment.GetSavedData(), GetSavedData_TextPosition());
; 871  : 	return strSaved;
; 872  : }
; 873  : 
; 874  : 
; 875  : // protected ==================================================================
; 876  : CString CTextPosition::GetDataOfOneLine(const bool bData, const CString& strData) const
; 877  : {
; 878  : 	CString data;
; 879  : 	data.Format("<%s>%d<\\%s>\r\n", strData, bData, strData);
; 880  : 	return data;
; 881  : }
; 882  : 
; 883  : // private ====================================================================
; 884  : // <TextPosition>
; 885  : // <Horz>
; 886  : // <Show>0<\\Show>
; 887  : // <\\Horz>
; 888  : // <Horz>
; 889  : // <Left>0<\\Left>
; 890  : // <Right>0<\\Right>
; 891  : // <\\Horz>
; 892  : // <Vert>
; 893  : // <Top>0<\\Top>
; 894  : // <Bottom>0<\\Bottom>
; 895  : // <\\Vert>
; 896  : // <\\TextPosition>
; 897  : CString CTextPosition::GetSavedData_TextPosition() const
; 898  : {
; 899  : 	CString strSaved;
; 900  : 	strSaved.Format("<TextPosition>\r\n%s<\\TextPosition>\r\n", 
; 901  : 		GetSavedRealTextPositionData());
; 902  : 	return strSaved;
; 903  : }
; 904  : 
; 905  : 
; 906  : ///////////////////////////////////////////////////////////////////////////////
; 907  : // class CTextShowPosition
; 908  : 
; 909  : CTextShowPosition::CTextShowPosition():
; 910  : 	m_bShow(true)
; 911  : {
; 912  : }
; 913  : 
; 914  : CTextShowPosition::CTextShowPosition(const CTextEnvironment& environment, const bool bShow):
; 915  : 	CTextPosition(environment), 
; 916  : 	m_bShow(bShow)

  00011	8a 45 0c	 mov	 al, BYTE PTR _bShow$[ebp]
  00014	88 41 08	 mov	 BYTE PTR [ecx+8], al

; 918  : }

  00017	8b c1		 mov	 eax, ecx
  00019	c7 01 00 00 00
	00		 mov	 DWORD PTR [ecx], OFFSET ??_7CTextShowPosition@@6B@
  0001f	5d		 pop	 ebp
  00020	c2 08 00	 ret	 8
??0CTextShowPosition@@QAE@ABVCTextEnvironment@@_N@Z ENDP ; CTextShowPosition::CTextShowPosition
_TEXT	ENDS
; Function compile flags: /Ogtp
; File D:\git\src\IBK\IBK_DRFN\ProjSrc\SrcChartEx\ChartAddIn\ChartAnalysisToolAddIn\Include_Analysis\ElementEnvironment.cpp
;	COMDAT ??0CTextShowPosition@@QAE@XZ
_TEXT	SEGMENT
??0CTextShowPosition@@QAE@XZ PROC			; CTextShowPosition::CTextShowPosition, COMDAT
; _this$ = ecx

; 754  : 	m_color(RGB(0, 0, 0))

  00000	c7 41 04 00 00
	00 00		 mov	 DWORD PTR [ecx+4], 0

; 912  : }

  00007	8b c1		 mov	 eax, ecx
  00009	c7 01 00 00 00
	00		 mov	 DWORD PTR [ecx], OFFSET ??_7CTextShowPosition@@6B@
  0000f	c6 41 08 01	 mov	 BYTE PTR [ecx+8], 1
  00013	c3		 ret	 0
??0CTextShowPosition@@QAE@XZ ENDP			; CTextShowPosition::CTextShowPosition
_TEXT	ENDS
; Function compile flags: /Ogtp
; File D:\git\src\IBK\IBK_DRFN\ProjSrc\SrcChartEx\ChartAddIn\ChartAnalysisToolAddIn\Include_Analysis\ElementEnvironment.cpp
;	COMDAT ?GetSavedData_TextPosition@CTextPosition@@ABE?AV?$CStringT@DV?$StrTraitMFC_DLL@DV?$ChTraitsCRT@D@ATL@@@@@ATL@@XZ
_TEXT	SEGMENT
$T2 = -20						; size = 4
$T3 = -16						; size = 4
__$EHRec$ = -12						; size = 12
___$ReturnUdt$ = 8					; size = 4
?GetSavedData_TextPosition@CTextPosition@@ABE?AV?$CStringT@DV?$StrTraitMFC_DLL@DV?$ChTraitsCRT@D@ATL@@@@@ATL@@XZ PROC ; CTextPosition::GetSavedData_TextPosition, COMDAT
; _this$ = ecx

; 898  : {

  00000	55		 push	 ebp
  00001	8b ec		 mov	 ebp, esp
  00003	6a ff		 push	 -1
  00005	68 00 00 00 00	 push	 __ehhandler$?GetSavedData_TextPosition@CTextPosition@@ABE?AV?$CStringT@DV?$StrTraitMFC_DLL@DV?$ChTraitsCRT@D@ATL@@@@@ATL@@XZ
  0000a	64 a1 00 00 00
	00		 mov	 eax, DWORD PTR fs:0
  00010	50		 push	 eax
  00011	83 ec 08	 sub	 esp, 8
  00014	56		 push	 esi
  00015	57		 push	 edi
  00016	a1 00 00 00 00	 mov	 eax, DWORD PTR ___security_cookie
  0001b	33 c5		 xor	 eax, ebp
  0001d	50		 push	 eax
  0001e	8d 45 f4	 lea	 eax, DWORD PTR __$EHRec$[ebp]
  00021	64 a3 00 00 00
	00		 mov	 DWORD PTR fs:0, eax
  00027	8b f1		 mov	 esi, ecx
  00029	c7 45 f0 00 00
	00 00		 mov	 DWORD PTR $T3[ebp], 0

; 899  : 	CString strSaved;

  00030	8b 7d 08	 mov	 edi, DWORD PTR ___$ReturnUdt$[ebp]
  00033	8b cf		 mov	 ecx, edi
  00035	ff 15 00 00 00
	00		 call	 DWORD PTR __imp_??0?$CStringT@DV?$StrTraitMFC_DLL@DV?$ChTraitsCRT@D@ATL@@@@@ATL@@QAE@XZ

; 900  : 	strSaved.Format("<TextPosition>\r\n%s<\\TextPosition>\r\n", 
; 901  : 		GetSavedRealTextPositionData());
; 902  : 	return strSaved;

  0003b	8b 06		 mov	 eax, DWORD PTR [esi]
  0003d	8d 4d ec	 lea	 ecx, DWORD PTR $T2[ebp]
  00040	51		 push	 ecx
  00041	8b ce		 mov	 ecx, esi
  00043	c7 45 fc 00 00
	00 00		 mov	 DWORD PTR __$EHRec$[ebp+8], 0
  0004a	c7 45 f0 01 00
	00 00		 mov	 DWORD PTR $T3[ebp], 1
  00051	ff 50 04	 call	 DWORD PTR [eax+4]
  00054	ff 30		 push	 DWORD PTR [eax]
  00056	c7 45 fc 01 00
	00 00		 mov	 DWORD PTR __$EHRec$[ebp+8], 1
  0005d	68 00 00 00 00	 push	 OFFSET ??_C@_0CE@NIHIPAJG@?$DMTextPosition?$DO?$AN?6?$CFs?$DM?2TextPositio@
  00062	57		 push	 edi
  00063	ff 15 00 00 00
	00		 call	 DWORD PTR __imp_?Format@?$CStringT@DV?$StrTraitMFC_DLL@DV?$ChTraitsCRT@D@ATL@@@@@ATL@@QAAXPBDZZ
  00069	83 c4 0c	 add	 esp, 12			; 0000000cH
  0006c	8d 4d ec	 lea	 ecx, DWORD PTR $T2[ebp]
  0006f	ff 15 00 00 00
	00		 call	 DWORD PTR __imp_??1?$CStringT@DV?$StrTraitMFC_DLL@DV?$ChTraitsCRT@D@ATL@@@@@ATL@@QAE@XZ
  00075	8b c7		 mov	 eax, edi

; 903  : }

  00077	8b 4d f4	 mov	 ecx, DWORD PTR __$EHRec$[ebp]
  0007a	64 89 0d 00 00
	00 00		 mov	 DWORD PTR fs:0, ecx
  00081	59		 pop	 ecx
  00082	5f		 pop	 edi
  00083	5e		 pop	 esi
  00084	8b e5		 mov	 esp, ebp
  00086	5d		 pop	 ebp
  00087	c2 04 00	 ret	 4
_TEXT	ENDS
;	COMDAT text$x
text$x	SEGMENT
__unwindfunclet$?GetSavedData_TextPosition@CTextPosition@@ABE?AV?$CStringT@DV?$StrTraitMFC_DLL@DV?$ChTraitsCRT@D@ATL@@@@@ATL@@XZ$0:
  00000	8b 45 f0	 mov	 eax, DWORD PTR $T3[ebp]
  00003	83 e0 01	 and	 eax, 1
  00006	0f 84 0d 00 00
	00		 je	 $LN4@GetSavedDa
  0000c	83 65 f0 fe	 and	 DWORD PTR $T3[ebp], -2	; fffffffeH
  00010	8b 4d 08	 mov	 ecx, DWORD PTR ___$ReturnUdt$[ebp]
  00013	ff 25 00 00 00
	00		 jmp	 DWORD PTR __imp_??1?$CStringT@DV?$StrTraitMFC_DLL@DV?$ChTraitsCRT@D@ATL@@@@@ATL@@QAE@XZ
$LN4@GetSavedDa:
  00019	c3		 ret	 0
__unwindfunclet$?GetSavedData_TextPosition@CTextPosition@@ABE?AV?$CStringT@DV?$StrTraitMFC_DLL@DV?$ChTraitsCRT@D@ATL@@@@@ATL@@XZ$1:
  0001a	8d 4d ec	 lea	 ecx, DWORD PTR $T2[ebp]
  0001d	ff 25 00 00 00
	00		 jmp	 DWORD PTR __imp_??1?$CStringT@DV?$StrTraitMFC_DLL@DV?$ChTraitsCRT@D@ATL@@@@@ATL@@QAE@XZ
  00023	cc		 int	 3
  00024	cc		 int	 3
  00025	cc		 int	 3
  00026	cc		 int	 3
  00027	cc		 int	 3
__ehhandler$?GetSavedData_TextPosition@CTextPosition@@ABE?AV?$CStringT@DV?$StrTraitMFC_DLL@DV?$ChTraitsCRT@D@ATL@@@@@ATL@@XZ:
  00028	90		 npad	 1
  00029	90		 npad	 1
  0002a	8b 54 24 08	 mov	 edx, DWORD PTR [esp+8]
  0002e	8d 42 0c	 lea	 eax, DWORD PTR [edx+12]
  00031	8b 4a ec	 mov	 ecx, DWORD PTR [edx-20]
  00034	33 c8		 xor	 ecx, eax
  00036	e8 00 00 00 00	 call	 @__security_check_cookie@4
  0003b	b8 00 00 00 00	 mov	 eax, OFFSET __ehfuncinfo$?GetSavedData_TextPosition@CTextPosition@@ABE?AV?$CStringT@DV?$StrTraitMFC_DLL@DV?$ChTraitsCRT@D@ATL@@@@@ATL@@XZ
  00040	e9 00 00 00 00	 jmp	 ___CxxFrameHandler3
text$x	ENDS
?GetSavedData_TextPosition@CTextPosition@@ABE?AV?$CStringT@DV?$StrTraitMFC_DLL@DV?$ChTraitsCRT@D@ATL@@@@@ATL@@XZ ENDP ; CTextPosition::GetSavedData_TextPosition
; Function compile flags: /Ogtp
; File D:\git\src\IBK\IBK_DRFN\ProjSrc\SrcChartEx\ChartAddIn\ChartAnalysisToolAddIn\Include_Analysis\ElementEnvironment.cpp
;	COMDAT ?GetDataOfOneLine@CTextPosition@@IBE?AV?$CStringT@DV?$StrTraitMFC_DLL@DV?$ChTraitsCRT@D@ATL@@@@@ATL@@_NABV23@@Z
_TEXT	SEGMENT
$T2 = -16						; size = 4
__$EHRec$ = -12						; size = 12
___$ReturnUdt$ = 8					; size = 4
_bData$ = 12						; size = 1
_strData$ = 16						; size = 4
?GetDataOfOneLine@CTextPosition@@IBE?AV?$CStringT@DV?$StrTraitMFC_DLL@DV?$ChTraitsCRT@D@ATL@@@@@ATL@@_NABV23@@Z PROC ; CTextPosition::GetDataOfOneLine, COMDAT
; _this$ = ecx

; 877  : {

  00000	55		 push	 ebp
  00001	8b ec		 mov	 ebp, esp
  00003	6a ff		 push	 -1
  00005	68 00 00 00 00	 push	 __ehhandler$?GetDataOfOneLine@CTextPosition@@IBE?AV?$CStringT@DV?$StrTraitMFC_DLL@DV?$ChTraitsCRT@D@ATL@@@@@ATL@@_NABV23@@Z
  0000a	64 a1 00 00 00
	00		 mov	 eax, DWORD PTR fs:0
  00010	50		 push	 eax
  00011	51		 push	 ecx
  00012	56		 push	 esi
  00013	a1 00 00 00 00	 mov	 eax, DWORD PTR ___security_cookie
  00018	33 c5		 xor	 eax, ebp
  0001a	50		 push	 eax
  0001b	8d 45 f4	 lea	 eax, DWORD PTR __$EHRec$[ebp]
  0001e	64 a3 00 00 00
	00		 mov	 DWORD PTR fs:0, eax
  00024	c7 45 f0 00 00
	00 00		 mov	 DWORD PTR $T2[ebp], 0

; 878  : 	CString data;

  0002b	8b 75 08	 mov	 esi, DWORD PTR ___$ReturnUdt$[ebp]
  0002e	8b ce		 mov	 ecx, esi
  00030	ff 15 00 00 00
	00		 call	 DWORD PTR __imp_??0?$CStringT@DV?$StrTraitMFC_DLL@DV?$ChTraitsCRT@D@ATL@@@@@ATL@@QAE@XZ

; 879  : 	data.Format("<%s>%d<\\%s>\r\n", strData, bData, strData);
; 880  : 	return data;

  00036	8b 55 10	 mov	 edx, DWORD PTR _strData$[ebp]
  00039	0f b6 4d 0c	 movzx	 ecx, BYTE PTR _bData$[ebp]
  0003d	c7 45 fc 00 00
	00 00		 mov	 DWORD PTR __$EHRec$[ebp+8], 0
  00044	c7 45 f0 01 00
	00 00		 mov	 DWORD PTR $T2[ebp], 1
  0004b	ff 32		 push	 DWORD PTR [edx]
  0004d	51		 push	 ecx
  0004e	ff 32		 push	 DWORD PTR [edx]
  00050	68 00 00 00 00	 push	 OFFSET ??_C@_0O@LNMCLPEF@?$DM?$CFs?$DO?$CFd?$DM?2?$CFs?$DO?$AN?6@
  00055	56		 push	 esi
  00056	ff 15 00 00 00
	00		 call	 DWORD PTR __imp_?Format@?$CStringT@DV?$StrTraitMFC_DLL@DV?$ChTraitsCRT@D@ATL@@@@@ATL@@QAAXPBDZZ
  0005c	83 c4 14	 add	 esp, 20			; 00000014H
  0005f	8b c6		 mov	 eax, esi

; 881  : }

  00061	8b 4d f4	 mov	 ecx, DWORD PTR __$EHRec$[ebp]
  00064	64 89 0d 00 00
	00 00		 mov	 DWORD PTR fs:0, ecx
  0006b	59		 pop	 ecx
  0006c	5e		 pop	 esi
  0006d	8b e5		 mov	 esp, ebp
  0006f	5d		 pop	 ebp
  00070	c2 0c 00	 ret	 12			; 0000000cH
_TEXT	ENDS
;	COMDAT text$x
text$x	SEGMENT
__unwindfunclet$?GetDataOfOneLine@CTextPosition@@IBE?AV?$CStringT@DV?$StrTraitMFC_DLL@DV?$ChTraitsCRT@D@ATL@@@@@ATL@@_NABV23@@Z$0:
  00000	8b 45 f0	 mov	 eax, DWORD PTR $T2[ebp]
  00003	83 e0 01	 and	 eax, 1
  00006	0f 84 0d 00 00
	00		 je	 $LN4@GetDataOfO
  0000c	83 65 f0 fe	 and	 DWORD PTR $T2[ebp], -2	; fffffffeH
  00010	8b 4d 08	 mov	 ecx, DWORD PTR ___$ReturnUdt$[ebp]
  00013	ff 25 00 00 00
	00		 jmp	 DWORD PTR __imp_??1?$CStringT@DV?$StrTraitMFC_DLL@DV?$ChTraitsCRT@D@ATL@@@@@ATL@@QAE@XZ
$LN4@GetDataOfO:
  00019	c3		 ret	 0
  0001a	cc		 int	 3
  0001b	cc		 int	 3
  0001c	cc		 int	 3
  0001d	cc		 int	 3
  0001e	cc		 int	 3
__ehhandler$?GetDataOfOneLine@CTextPosition@@IBE?AV?$CStringT@DV?$StrTraitMFC_DLL@DV?$ChTraitsCRT@D@ATL@@@@@ATL@@_NABV23@@Z:
  0001f	90		 npad	 1
  00020	90		 npad	 1
  00021	8b 54 24 08	 mov	 edx, DWORD PTR [esp+8]
  00025	8d 42 0c	 lea	 eax, DWORD PTR [edx+12]
  00028	8b 4a f4	 mov	 ecx, DWORD PTR [edx-12]
  0002b	33 c8		 xor	 ecx, eax
  0002d	e8 00 00 00 00	 call	 @__security_check_cookie@4
  00032	b8 00 00 00 00	 mov	 eax, OFFSET __ehfuncinfo$?GetDataOfOneLine@CTextPosition@@IBE?AV?$CStringT@DV?$StrTraitMFC_DLL@DV?$ChTraitsCRT@D@ATL@@@@@ATL@@_NABV23@@Z
  00037	e9 00 00 00 00	 jmp	 ___CxxFrameHandler3
text$x	ENDS
?GetDataOfOneLine@CTextPosition@@IBE?AV?$CStringT@DV?$StrTraitMFC_DLL@DV?$ChTraitsCRT@D@ATL@@@@@ATL@@_NABV23@@Z ENDP ; CTextPosition::GetDataOfOneLine
; Function compile flags: /Ogtp
; File D:\git\src\IBK\IBK_DRFN\ProjSrc\SrcChartEx\ChartAddIn\ChartAnalysisToolAddIn\Include_Analysis\ElementEnvironment.cpp
; File C:\Program Files (x86)\Microsoft Visual Studio\2019\Community\VC\Tools\MSVC\14.29.30133\atlmfc\include\cstringt.h
; File D:\git\src\IBK\IBK_DRFN\ProjSrc\SrcChartEx\ChartAddIn\ChartAnalysisToolAddIn\Include_Analysis\ElementEnvironment.cpp
; File C:\Program Files (x86)\Microsoft Visual Studio\2019\Community\VC\Tools\MSVC\14.29.30133\atlmfc\include\cstringt.h
; File C:\Program Files (x86)\Microsoft Visual Studio\2019\Community\VC\Tools\MSVC\14.29.30133\atlmfc\include\atlsimpstr.h
; File C:\Program Files (x86)\Microsoft Visual Studio\2019\Community\VC\Tools\MSVC\14.29.30133\atlmfc\include\cstringt.h
; File D:\git\src\IBK\IBK_DRFN\ProjSrc\SrcChartEx\ChartAddIn\ChartAnalysisToolAddIn\Include_Analysis\ElementEnvironment.cpp
;	COMDAT ?GetSavedData@CTextPosition@@QBE?AV?$CStringT@DV?$StrTraitMFC_DLL@DV?$ChTraitsCRT@D@ATL@@@@@ATL@@XZ
_TEXT	SEGMENT
$T2 = -36						; size = 4
$T3 = -32						; size = 4
$T4 = -28						; size = 4
$T5 = -24						; size = 4
$T6 = -20						; size = 4
$T7 = -20						; size = 4
$T8 = -16						; size = 4
__$EHRec$ = -12						; size = 12
___$ReturnUdt$ = 8					; size = 4
?GetSavedData@CTextPosition@@QBE?AV?$CStringT@DV?$StrTraitMFC_DLL@DV?$ChTraitsCRT@D@ATL@@@@@ATL@@XZ PROC ; CTextPosition::GetSavedData, COMDAT
; _this$ = ecx

; 867  : {

  00000	55		 push	 ebp
  00001	8b ec		 mov	 ebp, esp
  00003	6a ff		 push	 -1
  00005	68 00 00 00 00	 push	 __ehhandler$?GetSavedData@CTextPosition@@QBE?AV?$CStringT@DV?$StrTraitMFC_DLL@DV?$ChTraitsCRT@D@ATL@@@@@ATL@@XZ
  0000a	64 a1 00 00 00
	00		 mov	 eax, DWORD PTR fs:0
  00010	50		 push	 eax
  00011	83 ec 18	 sub	 esp, 24			; 00000018H
  00014	53		 push	 ebx
  00015	56		 push	 esi
  00016	57		 push	 edi
  00017	a1 00 00 00 00	 mov	 eax, DWORD PTR ___security_cookie
  0001c	33 c5		 xor	 eax, ebp
  0001e	50		 push	 eax
  0001f	8d 45 f4	 lea	 eax, DWORD PTR __$EHRec$[ebp]
  00022	64 a3 00 00 00
	00		 mov	 DWORD PTR fs:0, eax
  00028	8b f1		 mov	 esi, ecx
  0002a	c7 45 f0 00 00
	00 00		 mov	 DWORD PTR $T8[ebp], 0

; 868  : 	CString strSaved;

  00031	8b 5d 08	 mov	 ebx, DWORD PTR ___$ReturnUdt$[ebp]
  00034	8b cb		 mov	 ecx, ebx
  00036	ff 15 00 00 00
	00		 call	 DWORD PTR __imp_??0?$CStringT@DV?$StrTraitMFC_DLL@DV?$ChTraitsCRT@D@ATL@@@@@ATL@@QAE@XZ

; 899  : 	CString strSaved;

  0003c	8d 4d e4	 lea	 ecx, DWORD PTR $T4[ebp]

; 869  : 	strSaved.Format("<PartEnvironment>\r\n%s%s<\\PartEnvironment>\r\n", 

  0003f	c7 45 fc 01 00
	00 00		 mov	 DWORD PTR __$EHRec$[ebp+8], 1

; 899  : 	CString strSaved;

  00046	ff 15 00 00 00
	00		 call	 DWORD PTR __imp_??0?$CStringT@DV?$StrTraitMFC_DLL@DV?$ChTraitsCRT@D@ATL@@@@@ATL@@QAE@XZ

; 900  : 	strSaved.Format("<TextPosition>\r\n%s<\\TextPosition>\r\n", 

  0004c	8b 06		 mov	 eax, DWORD PTR [esi]
  0004e	8d 4d ec	 lea	 ecx, DWORD PTR $T7[ebp]
  00051	51		 push	 ecx
  00052	8b ce		 mov	 ecx, esi

; 901  : 		GetSavedRealTextPositionData());
; 902  : 	return strSaved;

  00054	c7 45 f0 03 00
	00 00		 mov	 DWORD PTR $T8[ebp], 3
  0005b	ff 50 04	 call	 DWORD PTR [eax+4]
  0005e	ff 30		 push	 DWORD PTR [eax]
  00060	8b 3d 00 00 00
	00		 mov	 edi, DWORD PTR __imp_?Format@?$CStringT@DV?$StrTraitMFC_DLL@DV?$ChTraitsCRT@D@ATL@@@@@ATL@@QAAXPBDZZ
  00066	8d 45 e4	 lea	 eax, DWORD PTR $T4[ebp]
  00069	68 00 00 00 00	 push	 OFFSET ??_C@_0CE@NIHIPAJG@?$DMTextPosition?$DO?$AN?6?$CFs?$DM?2TextPositio@
  0006e	50		 push	 eax
  0006f	c6 45 fc 02	 mov	 BYTE PTR __$EHRec$[ebp+8], 2
  00073	ff d7		 call	 edi
  00075	83 c4 0c	 add	 esp, 12			; 0000000cH
  00078	8d 4d ec	 lea	 ecx, DWORD PTR $T7[ebp]
  0007b	ff 15 00 00 00
	00		 call	 DWORD PTR __imp_??1?$CStringT@DV?$StrTraitMFC_DLL@DV?$ChTraitsCRT@D@ATL@@@@@ATL@@QAE@XZ

; 799  : 	CString strSaved;

  00081	8d 4d e8	 lea	 ecx, DWORD PTR $T5[ebp]

; 869  : 	strSaved.Format("<PartEnvironment>\r\n%s%s<\\PartEnvironment>\r\n", 

  00084	c6 45 fc 03	 mov	 BYTE PTR __$EHRec$[ebp+8], 3

; 799  : 	CString strSaved;

  00088	ff 15 00 00 00
	00		 call	 DWORD PTR __imp_??0?$CStringT@DV?$StrTraitMFC_DLL@DV?$ChTraitsCRT@D@ATL@@@@@ATL@@QAE@XZ

; 808  : 	return ("<Color>" + CDataConversion::RGB2Str(m_color) + "<\\Color>\r\n");

  0008e	ff 76 04	 push	 DWORD PTR [esi+4]
  00091	8d 45 dc	 lea	 eax, DWORD PTR $T2[ebp]

; 801  : 	return strSaved;

  00094	c7 45 f0 07 00
	00 00		 mov	 DWORD PTR $T8[ebp], 7

; 808  : 	return ("<Color>" + CDataConversion::RGB2Str(m_color) + "<\\Color>\r\n");

  0009b	50		 push	 eax
  0009c	e8 00 00 00 00	 call	 ?RGB2Str@CDataConversion@@SA?AV?$CStringT@DV?$StrTraitMFC_DLL@DV?$ChTraitsCRT@D@ATL@@@@@ATL@@K@Z ; CDataConversion::RGB2Str
  000a1	50		 push	 eax
  000a2	8d 45 e0	 lea	 eax, DWORD PTR $T3[ebp]
  000a5	c6 45 fc 04	 mov	 BYTE PTR __$EHRec$[ebp+8], 4
  000a9	68 00 00 00 00	 push	 OFFSET ??_C@_07ONMJGOJF@?$DMColor?$DO@
  000ae	50		 push	 eax
  000af	e8 00 00 00 00	 call	 ??HATL@@YA?AV?$CStringT@DV?$StrTraitMFC_DLL@DV?$ChTraitsCRT@D@ATL@@@@@0@PBDABV10@@Z ; ATL::operator+
  000b4	83 c4 14	 add	 esp, 20			; 00000014H
  000b7	8b f0		 mov	 esi, eax
; File C:\Program Files (x86)\Microsoft Visual Studio\2019\Community\VC\Tools\MSVC\14.29.30133\atlmfc\include\cstringt.h

; 2401 : 		CStringT strResult( str1.GetManager() );

  000b9	8b ce		 mov	 ecx, esi
; File D:\git\src\IBK\IBK_DRFN\ProjSrc\SrcChartEx\ChartAddIn\ChartAnalysisToolAddIn\Include_Analysis\ElementEnvironment.cpp

; 808  : 	return ("<Color>" + CDataConversion::RGB2Str(m_color) + "<\\Color>\r\n");

  000bb	c6 45 fc 06	 mov	 BYTE PTR __$EHRec$[ebp+8], 6
; File C:\Program Files (x86)\Microsoft Visual Studio\2019\Community\VC\Tools\MSVC\14.29.30133\atlmfc\include\cstringt.h

; 2401 : 		CStringT strResult( str1.GetManager() );

  000bf	ff 15 00 00 00
	00		 call	 DWORD PTR __imp_?GetManager@?$CStringT@DV?$StrTraitMFC_DLL@DV?$ChTraitsCRT@D@ATL@@@@@ATL@@QBEPAUIAtlStringMgr@2@XZ
  000c5	50		 push	 eax
  000c6	8d 4d ec	 lea	 ecx, DWORD PTR $T6[ebp]
  000c9	ff 15 00 00 00
	00		 call	 DWORD PTR __imp_??0?$CStringT@DV?$StrTraitMFC_DLL@DV?$ChTraitsCRT@D@ATL@@@@@ATL@@QAE@PAUIAtlStringMgr@1@@Z
; File C:\Program Files (x86)\Microsoft Visual Studio\2019\Community\VC\Tools\MSVC\14.29.30133\atlmfc\include\atlsimpstr.h

; 519  : 		return( GetData()->nDataLength );

  000cf	8b 06		 mov	 eax, DWORD PTR [esi]
; File C:\Program Files (x86)\Microsoft Visual Studio\2019\Community\VC\Tools\MSVC\14.29.30133\atlmfc\include\cstringt.h

; 2403 : 		CThisSimpleString::Concatenate( strResult, str1, str1.GetLength(), psz2, CThisSimpleString::StringLength( psz2 ) );

  000d1	6a 0a		 push	 10			; 0000000aH
  000d3	68 00 00 00 00	 push	 OFFSET ??_C@_0L@CPJBKACB@?$DM?2Color?$DO?$AN?6@

; 2404 : 
; 2405 : 		return( strResult );

  000d8	c7 45 f0 27 00
	00 00		 mov	 DWORD PTR $T8[ebp], 39	; 00000027H
  000df	ff 70 f4	 push	 DWORD PTR [eax-12]
  000e2	50		 push	 eax
  000e3	8d 45 ec	 lea	 eax, DWORD PTR $T6[ebp]
  000e6	50		 push	 eax
  000e7	ff 15 00 00 00
	00		 call	 DWORD PTR __imp_?Concatenate@?$CSimpleStringT@D$00@ATL@@KAXAAV12@PBDH1H@Z
  000ed	83 c4 14	 add	 esp, 20			; 00000014H
; File D:\git\src\IBK\IBK_DRFN\ProjSrc\SrcChartEx\ChartAddIn\ChartAnalysisToolAddIn\Include_Analysis\ElementEnvironment.cpp

; 808  : 	return ("<Color>" + CDataConversion::RGB2Str(m_color) + "<\\Color>\r\n");

  000f0	c7 45 fc 05 00
	00 00		 mov	 DWORD PTR __$EHRec$[ebp+8], 5
  000f7	8d 4d e0	 lea	 ecx, DWORD PTR $T3[ebp]
  000fa	c7 45 f0 0f 00
	00 00		 mov	 DWORD PTR $T8[ebp], 15	; 0000000fH
  00101	ff 15 00 00 00
	00		 call	 DWORD PTR __imp_??1?$CStringT@DV?$StrTraitMFC_DLL@DV?$ChTraitsCRT@D@ATL@@@@@ATL@@QAE@XZ
  00107	8d 4d dc	 lea	 ecx, DWORD PTR $T2[ebp]
  0010a	ff 15 00 00 00
	00		 call	 DWORD PTR __imp_??1?$CStringT@DV?$StrTraitMFC_DLL@DV?$ChTraitsCRT@D@ATL@@@@@ATL@@QAE@XZ

; 800  : 	strSaved.Format("<TextEnvironment>\r\n%s<\\TextEnvironment>\r\n", GetSavedColor());

  00110	ff 75 ec	 push	 DWORD PTR $T6[ebp]
  00113	8d 45 e8	 lea	 eax, DWORD PTR $T5[ebp]
  00116	c6 45 fc 07	 mov	 BYTE PTR __$EHRec$[ebp+8], 7
  0011a	68 00 00 00 00	 push	 OFFSET ??_C@_0CK@OGEBLLHG@?$DMTextEnvironment?$DO?$AN?6?$CFs?$DM?2TextEnvi@
  0011f	50		 push	 eax
  00120	ff d7		 call	 edi
  00122	83 c4 0c	 add	 esp, 12			; 0000000cH
  00125	c6 45 fc 03	 mov	 BYTE PTR __$EHRec$[ebp+8], 3
  00129	8d 4d ec	 lea	 ecx, DWORD PTR $T6[ebp]
  0012c	ff 15 00 00 00
	00		 call	 DWORD PTR __imp_??1?$CStringT@DV?$StrTraitMFC_DLL@DV?$ChTraitsCRT@D@ATL@@@@@ATL@@QAE@XZ

; 869  : 	strSaved.Format("<PartEnvironment>\r\n%s%s<\\PartEnvironment>\r\n", 

  00132	ff 75 e4	 push	 DWORD PTR $T4[ebp]
  00135	ff 75 e8	 push	 DWORD PTR $T5[ebp]
  00138	68 00 00 00 00	 push	 OFFSET ??_C@_0CM@MGBIECEJ@?$DMPartEnvironment?$DO?$AN?6?$CFs?$CFs?$DM?2PartEn@
  0013d	53		 push	 ebx
  0013e	ff d7		 call	 edi
  00140	83 c4 10	 add	 esp, 16			; 00000010H
  00143	8d 4d e8	 lea	 ecx, DWORD PTR $T5[ebp]
  00146	ff 15 00 00 00
	00		 call	 DWORD PTR __imp_??1?$CStringT@DV?$StrTraitMFC_DLL@DV?$ChTraitsCRT@D@ATL@@@@@ATL@@QAE@XZ
  0014c	8d 4d e4	 lea	 ecx, DWORD PTR $T4[ebp]
  0014f	ff 15 00 00 00
	00		 call	 DWORD PTR __imp_??1?$CStringT@DV?$StrTraitMFC_DLL@DV?$ChTraitsCRT@D@ATL@@@@@ATL@@QAE@XZ

; 870  : 		m_textEnvironment.GetSavedData(), GetSavedData_TextPosition());
; 871  : 	return strSaved;

  00155	8b c3		 mov	 eax, ebx

; 872  : }

  00157	8b 4d f4	 mov	 ecx, DWORD PTR __$EHRec$[ebp]
  0015a	64 89 0d 00 00
	00 00		 mov	 DWORD PTR fs:0, ecx
  00161	59		 pop	 ecx
  00162	5f		 pop	 edi
  00163	5e		 pop	 esi
  00164	5b		 pop	 ebx
  00165	8b e5		 mov	 esp, ebp
  00167	5d		 pop	 ebp
  00168	c2 04 00	 ret	 4
_TEXT	ENDS
;	COMDAT text$x
text$x	SEGMENT
__unwindfunclet$?GetSavedData@CTextPosition@@QBE?AV?$CStringT@DV?$StrTraitMFC_DLL@DV?$ChTraitsCRT@D@ATL@@@@@ATL@@XZ$0:
  00000	8b 45 f0	 mov	 eax, DWORD PTR $T8[ebp]
  00003	83 e0 01	 and	 eax, 1
  00006	0f 84 0d 00 00
	00		 je	 $LN4@GetSavedDa
  0000c	83 65 f0 fe	 and	 DWORD PTR $T8[ebp], -2	; fffffffeH
  00010	8b 4d 08	 mov	 ecx, DWORD PTR ___$ReturnUdt$[ebp]
  00013	ff 25 00 00 00
	00		 jmp	 DWORD PTR __imp_??1?$CStringT@DV?$StrTraitMFC_DLL@DV?$ChTraitsCRT@D@ATL@@@@@ATL@@QAE@XZ
$LN4@GetSavedDa:
  00019	c3		 ret	 0
__unwindfunclet$?GetSavedData@CTextPosition@@QBE?AV?$CStringT@DV?$StrTraitMFC_DLL@DV?$ChTraitsCRT@D@ATL@@@@@ATL@@XZ$3:
  0001a	8b 45 f0	 mov	 eax, DWORD PTR $T8[ebp]
  0001d	83 e0 02	 and	 eax, 2
  00020	0f 84 0d 00 00
	00		 je	 $LN10@GetSavedDa
  00026	83 65 f0 fd	 and	 DWORD PTR $T8[ebp], -3	; fffffffdH
  0002a	8d 4d e4	 lea	 ecx, DWORD PTR $T4[ebp]
  0002d	ff 25 00 00 00
	00		 jmp	 DWORD PTR __imp_??1?$CStringT@DV?$StrTraitMFC_DLL@DV?$ChTraitsCRT@D@ATL@@@@@ATL@@QAE@XZ
$LN10@GetSavedDa:
  00033	c3		 ret	 0
__unwindfunclet$?GetSavedData@CTextPosition@@QBE?AV?$CStringT@DV?$StrTraitMFC_DLL@DV?$ChTraitsCRT@D@ATL@@@@@ATL@@XZ$4:
  00034	8d 4d ec	 lea	 ecx, DWORD PTR $T7[ebp]
  00037	ff 25 00 00 00
	00		 jmp	 DWORD PTR __imp_??1?$CStringT@DV?$StrTraitMFC_DLL@DV?$ChTraitsCRT@D@ATL@@@@@ATL@@QAE@XZ
__unwindfunclet$?GetSavedData@CTextPosition@@QBE?AV?$CStringT@DV?$StrTraitMFC_DLL@DV?$ChTraitsCRT@D@ATL@@@@@ATL@@XZ$5:
  0003d	8b 45 f0	 mov	 eax, DWORD PTR $T8[ebp]
  00040	83 e0 04	 and	 eax, 4
  00043	0f 84 0d 00 00
	00		 je	 $LN15@GetSavedDa
  00049	83 65 f0 fb	 and	 DWORD PTR $T8[ebp], -5	; fffffffbH
  0004d	8d 4d e8	 lea	 ecx, DWORD PTR $T5[ebp]
  00050	ff 25 00 00 00
	00		 jmp	 DWORD PTR __imp_??1?$CStringT@DV?$StrTraitMFC_DLL@DV?$ChTraitsCRT@D@ATL@@@@@ATL@@QAE@XZ
$LN15@GetSavedDa:
  00056	c3		 ret	 0
__unwindfunclet$?GetSavedData@CTextPosition@@QBE?AV?$CStringT@DV?$StrTraitMFC_DLL@DV?$ChTraitsCRT@D@ATL@@@@@ATL@@XZ$7:
  00057	8d 4d dc	 lea	 ecx, DWORD PTR $T2[ebp]
  0005a	ff 25 00 00 00
	00		 jmp	 DWORD PTR __imp_??1?$CStringT@DV?$StrTraitMFC_DLL@DV?$ChTraitsCRT@D@ATL@@@@@ATL@@QAE@XZ
__unwindfunclet$?GetSavedData@CTextPosition@@QBE?AV?$CStringT@DV?$StrTraitMFC_DLL@DV?$ChTraitsCRT@D@ATL@@@@@ATL@@XZ$8:
  00060	8d 4d e0	 lea	 ecx, DWORD PTR $T3[ebp]
  00063	ff 25 00 00 00
	00		 jmp	 DWORD PTR __imp_??1?$CStringT@DV?$StrTraitMFC_DLL@DV?$ChTraitsCRT@D@ATL@@@@@ATL@@QAE@XZ
__unwindfunclet$?GetSavedData@CTextPosition@@QBE?AV?$CStringT@DV?$StrTraitMFC_DLL@DV?$ChTraitsCRT@D@ATL@@@@@ATL@@XZ$11:
  00069	8b 45 f0	 mov	 eax, DWORD PTR $T8[ebp]
  0006c	83 e0 20	 and	 eax, 32			; 00000020H
  0006f	0f 84 0d 00 00
	00		 je	 $LN39@GetSavedDa
  00075	83 65 f0 df	 and	 DWORD PTR $T8[ebp], -33	; ffffffdfH
  00079	8d 4d ec	 lea	 ecx, DWORD PTR $T6[ebp]
  0007c	ff 25 00 00 00
	00		 jmp	 DWORD PTR __imp_??1?$CStringT@DV?$StrTraitMFC_DLL@DV?$ChTraitsCRT@D@ATL@@@@@ATL@@QAE@XZ
$LN39@GetSavedDa:
  00082	c3		 ret	 0
__unwindfunclet$?GetSavedData@CTextPosition@@QBE?AV?$CStringT@DV?$StrTraitMFC_DLL@DV?$ChTraitsCRT@D@ATL@@@@@ATL@@XZ$6:
  00083	8d 4d ec	 lea	 ecx, DWORD PTR $T6[ebp]
  00086	ff 25 00 00 00
	00		 jmp	 DWORD PTR __imp_??1?$CStringT@DV?$StrTraitMFC_DLL@DV?$ChTraitsCRT@D@ATL@@@@@ATL@@QAE@XZ
  0008c	cc		 int	 3
  0008d	cc		 int	 3
  0008e	cc		 int	 3
  0008f	cc		 int	 3
  00090	cc		 int	 3
__ehhandler$?GetSavedData@CTextPosition@@QBE?AV?$CStringT@DV?$StrTraitMFC_DLL@DV?$ChTraitsCRT@D@ATL@@@@@ATL@@XZ:
  00091	90		 npad	 1
  00092	90		 npad	 1
  00093	8b 54 24 08	 mov	 edx, DWORD PTR [esp+8]
  00097	8d 42 0c	 lea	 eax, DWORD PTR [edx+12]
  0009a	8b 4a d8	 mov	 ecx, DWORD PTR [edx-40]
  0009d	33 c8		 xor	 ecx, eax
  0009f	e8 00 00 00 00	 call	 @__security_check_cookie@4
  000a4	b8 00 00 00 00	 mov	 eax, OFFSET __ehfuncinfo$?GetSavedData@CTextPosition@@QBE?AV?$CStringT@DV?$StrTraitMFC_DLL@DV?$ChTraitsCRT@D@ATL@@@@@ATL@@XZ
  000a9	e9 00 00 00 00	 jmp	 ___CxxFrameHandler3
text$x	ENDS
?GetSavedData@CTextPosition@@QBE?AV?$CStringT@DV?$StrTraitMFC_DLL@DV?$ChTraitsCRT@D@ATL@@@@@ATL@@XZ ENDP ; CTextPosition::GetSavedData
; Function compile flags: /Ogtp
; File D:\git\src\IBK\IBK_DRFN\ProjSrc\SrcChartEx\ChartAddIn\ChartAnalysisToolAddIn\Include_Analysis\ElementEnvironment.cpp
;	COMDAT ?GetTextEnvironment@CTextPosition@@QAEAAVCTextEnvironment@@XZ
_TEXT	SEGMENT
?GetTextEnvironment@CTextPosition@@QAEAAVCTextEnvironment@@XZ PROC ; CTextPosition::GetTextEnvironment, COMDAT
; _this$ = ecx

; 855  : 	return m_textEnvironment;

  00000	8d 41 04	 lea	 eax, DWORD PTR [ecx+4]

; 856  : }

  00003	c3		 ret	 0
?GetTextEnvironment@CTextPosition@@QAEAAVCTextEnvironment@@XZ ENDP ; CTextPosition::GetTextEnvironment
_TEXT	ENDS
; Function compile flags: /Ogtp
; File D:\git\src\IBK\IBK_DRFN\ProjSrc\SrcChartEx\ChartAddIn\ChartAnalysisToolAddIn\Include_Analysis\ElementEnvironment.cpp
;	COMDAT ?GetTextEnvironment@CTextPosition@@QBE?AVCTextEnvironment@@XZ
_TEXT	SEGMENT
___$ReturnUdt$ = 8					; size = 4
?GetTextEnvironment@CTextPosition@@QBE?AVCTextEnvironment@@XZ PROC ; CTextPosition::GetTextEnvironment, COMDAT
; _this$ = ecx

; 849  : {

  00000	55		 push	 ebp
  00001	8b ec		 mov	 ebp, esp

; 765  : 	m_color = environment.GetColor();

  00003	8b 45 08	 mov	 eax, DWORD PTR ___$ReturnUdt$[ebp]
  00006	8b 49 04	 mov	 ecx, DWORD PTR [ecx+4]
  00009	89 08		 mov	 DWORD PTR [eax], ecx

; 850  : 	return m_textEnvironment;
; 851  : }

  0000b	5d		 pop	 ebp
  0000c	c2 04 00	 ret	 4
?GetTextEnvironment@CTextPosition@@QBE?AVCTextEnvironment@@XZ ENDP ; CTextPosition::GetTextEnvironment
_TEXT	ENDS
; Function compile flags: /Ogtp
; File D:\git\src\IBK\IBK_DRFN\ProjSrc\SrcChartEx\ChartAddIn\ChartAnalysisToolAddIn\Include_Analysis\ElementEnvironment.cpp
;	COMDAT ?SetTextEnvironment@CTextPosition@@QAEXABVCTextEnvironment@@@Z
_TEXT	SEGMENT
_textEnvironment$ = 8					; size = 4
?SetTextEnvironment@CTextPosition@@QAEXABVCTextEnvironment@@@Z PROC ; CTextPosition::SetTextEnvironment, COMDAT
; _this$ = ecx

; 843  : {

  00000	55		 push	 ebp
  00001	8b ec		 mov	 ebp, esp

; 745  : 	if(this == &environment)

  00003	8b 45 08	 mov	 eax, DWORD PTR _textEnvironment$[ebp]

; 844  : 	m_textEnvironment = textEnvironment;

  00006	83 c1 04	 add	 ecx, 4

; 745  : 	if(this == &environment)

  00009	3b c8		 cmp	 ecx, eax
  0000b	74 04		 je	 SHORT $LN3@SetTextEnv

; 746  : 		return *this;
; 747  : 
; 748  : 	m_color = environment.GetColor();

  0000d	8b 00		 mov	 eax, DWORD PTR [eax]
  0000f	89 01		 mov	 DWORD PTR [ecx], eax
$LN3@SetTextEnv:

; 845  : }

  00011	5d		 pop	 ebp
  00012	c2 04 00	 ret	 4
?SetTextEnvironment@CTextPosition@@QAEXABVCTextEnvironment@@@Z ENDP ; CTextPosition::SetTextEnvironment
_TEXT	ENDS
; Function compile flags: /Ogtp
; File D:\git\src\IBK\IBK_DRFN\ProjSrc\SrcChartEx\ChartAddIn\ChartAnalysisToolAddIn\Include_Analysis\ElementEnvironment.cpp
;	COMDAT ?Set@CTextPosition@@UAEXPBV1@@Z
_TEXT	SEGMENT
$T1 = -4						; size = 4
_pTextPosition$ = 8					; size = 4
?Set@CTextPosition@@UAEXPBV1@@Z PROC			; CTextPosition::Set, COMDAT
; _this$ = ecx

; 836  : {

  00000	55		 push	 ebp
  00001	8b ec		 mov	 ebp, esp
  00003	51		 push	 ecx

; 837  : 	if(pTextPosition == NULL)

  00004	8b 45 08	 mov	 eax, DWORD PTR _pTextPosition$[ebp]
  00007	85 c0		 test	 eax, eax
  00009	74 0f		 je	 SHORT $LN10@Set

; 844  : 	m_textEnvironment = textEnvironment;

  0000b	83 c1 04	 add	 ecx, 4

; 745  : 	if(this == &environment)

  0000e	8d 55 fc	 lea	 edx, DWORD PTR $T1[ebp]
  00011	3b ca		 cmp	 ecx, edx
  00013	74 05		 je	 SHORT $LN10@Set

; 746  : 		return *this;
; 747  : 
; 748  : 	m_color = environment.GetColor();

  00015	8b 40 04	 mov	 eax, DWORD PTR [eax+4]
  00018	89 01		 mov	 DWORD PTR [ecx], eax
$LN10@Set:

; 838  : 		return;
; 839  : 	SetTextEnvironment(pTextPosition->GetTextEnvironment());
; 840  : }

  0001a	8b e5		 mov	 esp, ebp
  0001c	5d		 pop	 ebp
  0001d	c2 04 00	 ret	 4
?Set@CTextPosition@@UAEXPBV1@@Z ENDP			; CTextPosition::Set
_TEXT	ENDS
; Function compile flags: /Ogtp
; File D:\git\src\IBK\IBK_DRFN\ProjSrc\SrcChartEx\ChartAddIn\ChartAnalysisToolAddIn\Include_Analysis\ElementEnvironment.cpp
