; Listing generated by Microsoft (R) Optimizing Compiler Version 19.29.30145.0 

	TITLE	D:\git\src\IBK\IBK_DRFN\#DRfn-CS\_Obj\AnalysisTool\ElementTreeBuilder.obj
	.686P
	.XMM
	include listing.inc
	.model	flat

INCLUDELIB MSVCRT
INCLUDELIB OLDNAMES

PUBLIC	?__empty_global_delete@@YAXPAX@Z		; __empty_global_delete
PUBLIC	?__empty_global_delete@@YAXPAXI@Z		; __empty_global_delete
PUBLIC	?AtlThrowImpl@ATL@@YGXJ@Z			; ATL::AtlThrowImpl
PUBLIC	??HATL@@YA?AV?$CStringT@DV?$StrTraitMFC_DLL@DV?$ChTraitsCRT@D@ATL@@@@@0@ABV10@0@Z ; ATL::operator+
PUBLIC	??0exception@std@@QAE@ABV01@@Z			; std::exception::exception
PUBLIC	??1exception@std@@UAE@XZ			; std::exception::~exception
PUBLIC	?what@exception@std@@UBEPBDXZ			; std::exception::what
PUBLIC	??_Gexception@std@@UAEPAXI@Z			; std::exception::`scalar deleting destructor'
PUBLIC	??0bad_alloc@std@@QAE@ABV01@@Z			; std::bad_alloc::bad_alloc
PUBLIC	??_Gbad_alloc@std@@UAEPAXI@Z			; std::bad_alloc::`scalar deleting destructor'
PUBLIC	??0bad_array_new_length@std@@QAE@XZ		; std::bad_array_new_length::bad_array_new_length
PUBLIC	??1bad_array_new_length@std@@UAE@XZ		; std::bad_array_new_length::~bad_array_new_length
PUBLIC	??0bad_array_new_length@std@@QAE@ABV01@@Z	; std::bad_array_new_length::bad_array_new_length
PUBLIC	??_Gbad_array_new_length@std@@UAEPAXI@Z		; std::bad_array_new_length::`scalar deleting destructor'
PUBLIC	?_Throw_bad_array_new_length@std@@YAXXZ		; std::_Throw_bad_array_new_length
PUBLIC	??0CElementAndOrder@@QAE@HPAVCElement@@@Z	; CElementAndOrder::CElementAndOrder
PUBLIC	??4CElementAndOrder@@QAEAAV0@ABV0@@Z		; CElementAndOrder::operator=
PUBLIC	?GetIndex@CElementAndOrder@@QBEHXZ		; CElementAndOrder::GetIndex
PUBLIC	?GetElement@CElementAndOrder@@QBEPAVCElement@@XZ ; CElementAndOrder::GetElement
PUBLIC	?AddTail@CElementAndOrderSet@@QAEXABVCElementAndOrder@@@Z ; CElementAndOrderSet::AddTail
PUBLIC	?GetCount@CElementAndOrderSet@@QBEHXZ		; CElementAndOrderSet::GetCount
PUBLIC	?GetMaxIndex@CElementAndOrderSet@@QBEHXZ	; CElementAndOrderSet::GetMaxIndex
PUBLIC	?GetData@CElementAndOrderSet@@QBE?AVCElementAndOrder@@H@Z ; CElementAndOrderSet::GetData
PUBLIC	?GetElement@CElementAndOrderSet@@QBEPAVCElement@@H@Z ; CElementAndOrderSet::GetElement
PUBLIC	?_Xlen@?$deque@VCElementAndOrder@@V?$allocator@VCElementAndOrder@@@std@@@std@@ABEXXZ ; std::deque<CElementAndOrder,std::allocator<CElementAndOrder> >::_Xlen
PUBLIC	?_Growmap@?$deque@VCElementAndOrder@@V?$allocator@VCElementAndOrder@@@std@@@std@@AAEXI@Z ; std::deque<CElementAndOrder,std::allocator<CElementAndOrder> >::_Growmap
PUBLIC	?_Tidy@?$deque@VCElementAndOrder@@V?$allocator@VCElementAndOrder@@@std@@@std@@AAEXXZ ; std::deque<CElementAndOrder,std::allocator<CElementAndOrder> >::_Tidy
PUBLIC	??1CElementAndOrderSet@@QAE@XZ			; CElementAndOrderSet::~CElementAndOrderSet
PUBLIC	?BuildElementsFromString@CElementTreeBuilder@@QAE_NAAVCAnalysisData@@ABV?$CStringT@DV?$StrTraitMFC_DLL@DV?$ChTraitsCRT@D@ATL@@@@@ATL@@AAVCTree@@AAVCOrder@@@Z ; CElementTreeBuilder::BuildElementsFromString
PUBLIC	?BuildElementsFromString_ForUndoRedo@CElementTreeBuilder@@QAEJAAVCAnalysisData@@ABVCBlockIndex@@ABV?$CStringT@DV?$StrTraitMFC_DLL@DV?$ChTraitsCRT@D@ATL@@@@@ATL@@AAVCTree@@AAVCOrder@@@Z ; CElementTreeBuilder::BuildElementsFromString_ForUndoRedo
PUBLIC	?BuildElementsFromString@CElementTreeBuilder@@AAE_NAAVCAnalysisData@@ABV?$CStringT@DV?$StrTraitMFC_DLL@DV?$ChTraitsCRT@D@ATL@@@@@ATL@@AAVCTree@@AAVCElementAndOrderSet@@@Z ; CElementTreeBuilder::BuildElementsFromString
PUBLIC	?BuildElementsFromString_Column@CElementTreeBuilder@@AAEXAAVCAnalysisData@@HABV?$CStringT@DV?$StrTraitMFC_DLL@DV?$ChTraitsCRT@D@ATL@@@@@ATL@@AAVCTree@@AAVCElementAndOrderSet@@@Z ; CElementTreeBuilder::BuildElementsFromString_Column
PUBLIC	?BuildElementsFromString_Row@CElementTreeBuilder@@AAEXAAVCAnalysisData@@ABVCBlockIndex@@ABV?$CStringT@DV?$StrTraitMFC_DLL@DV?$ChTraitsCRT@D@ATL@@@@@ATL@@AAVCTree@@AAVCElementAndOrderSet@@@Z ; CElementTreeBuilder::BuildElementsFromString_Row
PUBLIC	?BuildElementsFromString_Element@CElementTreeBuilder@@AAEXAAVCAnalysisData@@ABVCBlockIndex@@ABV?$CStringT@DV?$StrTraitMFC_DLL@DV?$ChTraitsCRT@D@ATL@@@@@ATL@@AAVCTree@@AAVCElementAndOrderSet@@@Z ; CElementTreeBuilder::BuildElementsFromString_Element
PUBLIC	?BuildElementsFromString@CElementTreeBuilder@@AAEXAAVCAnalysisData@@ABVCElementAndOrderSet@@AAVCOrder@@@Z ; CElementTreeBuilder::BuildElementsFromString
PUBLIC	?AddElement@CElementTreeBuilder@@AAEXABVCBlockIndex@@HPAVCElement@@AAVCTree@@AAVCElementAndOrderSet@@@Z ; CElementTreeBuilder::AddElement
PUBLIC	?MakeElement@CElementTreeBuilder@@AAEPAVCElement@@ABV?$CStringT@DV?$StrTraitMFC_DLL@DV?$ChTraitsCRT@D@ATL@@@@@ATL@@ABH@Z ; CElementTreeBuilder::MakeElement
PUBLIC	?MakeElement@CElementTreeBuilder@@AAEPAVCElement@@W4TOOLTYPE@CAnalysis@@ABV?$CDequeList@VCCoordinate@@@@ABV?$CStringT@DV?$StrTraitMFC_DLL@DV?$ChTraitsCRT@D@ATL@@@@@ATL@@ABVCElementCommonEnvironment@@@Z ; CElementTreeBuilder::MakeElement
PUBLIC	?MakeElement@CElementTreeBuilder@@AAEPAVCElement@@W4TOOLTYPE@CAnalysis@@ABV?$CDequeList@VCCoordinate@@@@PBVCTextPosition@@ABVCElementCommonEnvironment@@@Z ; CElementTreeBuilder::MakeElement
PUBLIC	?GetData@CElementTreeBuilder@@ABE?AV?$CStringT@DV?$StrTraitMFC_DLL@DV?$ChTraitsCRT@D@ATL@@@@@ATL@@ABV23@00@Z ; CElementTreeBuilder::GetData
PUBLIC	?GetIndex@CElementTreeBuilder@@ABEHABV?$CStringT@DV?$StrTraitMFC_DLL@DV?$ChTraitsCRT@D@ATL@@@@@ATL@@@Z ; CElementTreeBuilder::GetIndex
PUBLIC	?GetToolType@CElementTreeBuilder@@ABE?AW4TOOLTYPE@CAnalysis@@ABV?$CStringT@DV?$StrTraitMFC_DLL@DV?$ChTraitsCRT@D@ATL@@@@@ATL@@@Z ; CElementTreeBuilder::GetToolType
PUBLIC	?GetPoint@CElementTreeBuilder@@ABEXABV?$CStringT@DV?$StrTraitMFC_DLL@DV?$ChTraitsCRT@D@ATL@@@@@ATL@@ABHAAV?$CDequeList@VCCoordinate@@@@@Z ; CElementTreeBuilder::GetPoint
PUBLIC	?GetPoint@CElementTreeBuilder@@ABE?AVCCoordinate@@ABV?$CStringT@DV?$StrTraitMFC_DLL@DV?$ChTraitsCRT@D@ATL@@@@@ATL@@ABH@Z ; CElementTreeBuilder::GetPoint
PUBLIC	?GetTextShowPosition@CElementTreeBuilder@@ABE_NABV?$CStringT@DV?$StrTraitMFC_DLL@DV?$ChTraitsCRT@D@ATL@@@@@ATL@@AAVCTextShowPosition@@@Z ; CElementTreeBuilder::GetTextShowPosition
PUBLIC	?GetTextHorzPosition@CElementTreeBuilder@@ABE_NABV?$CStringT@DV?$StrTraitMFC_DLL@DV?$ChTraitsCRT@D@ATL@@@@@ATL@@AAVCTextHorzPosition@@@Z ; CElementTreeBuilder::GetTextHorzPosition
PUBLIC	?GetTextVertPosition@CElementTreeBuilder@@ABE_NABV?$CStringT@DV?$StrTraitMFC_DLL@DV?$ChTraitsCRT@D@ATL@@@@@ATL@@AAVCTextVertPosition@@@Z ; CElementTreeBuilder::GetTextVertPosition
PUBLIC	?GetTextHorzVertPosition@CElementTreeBuilder@@ABE_NABV?$CStringT@DV?$StrTraitMFC_DLL@DV?$ChTraitsCRT@D@ATL@@@@@ATL@@AAVCTextHorzVertPosition@@@Z ; CElementTreeBuilder::GetTextHorzVertPosition
PUBLIC	?GetTextEnvironment@CElementTreeBuilder@@ABE?AVCTextEnvironment@@ABV?$CStringT@DV?$StrTraitMFC_DLL@DV?$ChTraitsCRT@D@ATL@@@@@ATL@@@Z ; CElementTreeBuilder::GetTextEnvironment
PUBLIC	?GetEnvironment@CElementTreeBuilder@@ABE?AVCElementCommonEnvironment@@ABV?$CStringT@DV?$StrTraitMFC_DLL@DV?$ChTraitsCRT@D@ATL@@@@@ATL@@@Z ; CElementTreeBuilder::GetEnvironment
PUBLIC	?GetAutoPrice@CElementTreeBuilder@@ABE_NABV?$CStringT@DV?$StrTraitMFC_DLL@DV?$ChTraitsCRT@D@ATL@@@@@ATL@@@Z ; CElementTreeBuilder::GetAutoPrice
PUBLIC	?GetEquiDivEnvironment@CElementTreeBuilder@@ABEHABV?$CStringT@DV?$StrTraitMFC_DLL@DV?$ChTraitsCRT@D@ATL@@@@@ATL@@@Z ; CElementTreeBuilder::GetEquiDivEnvironment
PUBLIC	?GetPriceRangeDivEnvironment@CElementTreeBuilder@@ABEHABV?$CStringT@DV?$StrTraitMFC_DLL@DV?$ChTraitsCRT@D@ATL@@@@@ATL@@@Z ; CElementTreeBuilder::GetPriceRangeDivEnvironment
PUBLIC	?GetLineExtEnvironment@CElementTreeBuilder@@ABE?AVCLineExtEnvironment@@ABV?$CStringT@DV?$StrTraitMFC_DLL@DV?$ChTraitsCRT@D@ATL@@@@@ATL@@@Z ; CElementTreeBuilder::GetLineExtEnvironment
PUBLIC	?GetLeftLineExt@CElementTreeBuilder@@ABEHABV?$CStringT@DV?$StrTraitMFC_DLL@DV?$ChTraitsCRT@D@ATL@@@@@ATL@@@Z ; CElementTreeBuilder::GetLeftLineExt
PUBLIC	?GetRightLineExt@CElementTreeBuilder@@ABEHABV?$CStringT@DV?$StrTraitMFC_DLL@DV?$ChTraitsCRT@D@ATL@@@@@ATL@@@Z ; CElementTreeBuilder::GetRightLineExt
PUBLIC	?GetPenEnvironment@CElementTreeBuilder@@ABE?AVCPenEnvironment@@ABV?$CStringT@DV?$StrTraitMFC_DLL@DV?$ChTraitsCRT@D@ATL@@@@@ATL@@@Z ; CElementTreeBuilder::GetPenEnvironment
PUBLIC	?GetColor@CElementTreeBuilder@@ABEKABV?$CStringT@DV?$StrTraitMFC_DLL@DV?$ChTraitsCRT@D@ATL@@@@@ATL@@@Z ; CElementTreeBuilder::GetColor
PUBLIC	?GetWidth@CElementTreeBuilder@@ABEHABV?$CStringT@DV?$StrTraitMFC_DLL@DV?$ChTraitsCRT@D@ATL@@@@@ATL@@@Z ; CElementTreeBuilder::GetWidth
PUBLIC	?GetStyle@CElementTreeBuilder@@ABE?AW4PenStyle@CToolEnumData@@ABV?$CStringT@DV?$StrTraitMFC_DLL@DV?$ChTraitsCRT@D@ATL@@@@@ATL@@@Z ; CElementTreeBuilder::GetStyle
PUBLIC	?GetDataTypeEnvironment@CElementTreeBuilder@@ABE?AVCDataTypeEnvironment@@ABV?$CStringT@DV?$StrTraitMFC_DLL@DV?$ChTraitsCRT@D@ATL@@@@@ATL@@@Z ; CElementTreeBuilder::GetDataTypeEnvironment
PUBLIC	?GetCoordinateType@CElementTreeBuilder@@ABE?AW4COORDINATETYPE@CAnalysis@@ABV?$CStringT@DV?$StrTraitMFC_DLL@DV?$ChTraitsCRT@D@ATL@@@@@ATL@@@Z ; CElementTreeBuilder::GetCoordinateType
PUBLIC	?GetVertDataType@CElementTreeBuilder@@ABENABV?$CStringT@DV?$StrTraitMFC_DLL@DV?$ChTraitsCRT@D@ATL@@@@@ATL@@@Z ; CElementTreeBuilder::GetVertDataType
PUBLIC	?GetTrimData@CElementTreeBuilder@@ABE?AV?$CStringT@DV?$StrTraitMFC_DLL@DV?$ChTraitsCRT@D@ATL@@@@@ATL@@AAV23@ABV23@@Z ; CElementTreeBuilder::GetTrimData
PUBLIC	??1CDataTypeEnvironment@@QAE@XZ			; CDataTypeEnvironment::~CDataTypeEnvironment
PUBLIC	??1CElementCommonEnvironment@@QAE@XZ		; CElementCommonEnvironment::~CElementCommonEnvironment
PUBLIC	??1CCoordinate@@QAE@XZ				; CCoordinate::~CCoordinate
PUBLIC	??1?$CDequeList@VCCoordinate@@@@QAE@XZ		; CDequeList<CCoordinate>::~CDequeList<CCoordinate>
PUBLIC	?_Xlen@?$deque@VCCoordinate@@V?$allocator@VCCoordinate@@@std@@@std@@ABEXXZ ; std::deque<CCoordinate,std::allocator<CCoordinate> >::_Xlen
PUBLIC	?_Growmap@?$deque@VCCoordinate@@V?$allocator@VCCoordinate@@@std@@@std@@AAEXI@Z ; std::deque<CCoordinate,std::allocator<CCoordinate> >::_Growmap
PUBLIC	?_Tidy@?$deque@VCCoordinate@@V?$allocator@VCCoordinate@@@std@@@std@@AAEXXZ ; std::deque<CCoordinate,std::allocator<CCoordinate> >::_Tidy
PUBLIC	??$uninitialized_copy@PAPAVCCoordinate@@PAPAV1@@std@@YAPAPAVCCoordinate@@QAPAV1@0PAPAV1@@Z ; std::uninitialized_copy<CCoordinate * *,CCoordinate * *>
PUBLIC	??$_Uninitialized_value_construct_n_unchecked1@PAPAVCCoordinate@@I@std@@YAPAPAVCCoordinate@@PAPAV1@I@Z ; std::_Uninitialized_value_construct_n_unchecked1<CCoordinate * *,unsigned int>
PUBLIC	??$uninitialized_copy@PAPAVCElementAndOrder@@PAPAV1@@std@@YAPAPAVCElementAndOrder@@QAPAV1@0PAPAV1@@Z ; std::uninitialized_copy<CElementAndOrder * *,CElementAndOrder * *>
PUBLIC	??$_Uninitialized_value_construct_n_unchecked1@PAPAVCElementAndOrder@@I@std@@YAPAPAVCElementAndOrder@@PAPAV1@I@Z ; std::_Uninitialized_value_construct_n_unchecked1<CElementAndOrder * *,unsigned int>
PUBLIC	??$_Allocate_manually_vector_aligned@U_Default_allocate_traits@std@@@std@@YAPAXI@Z ; std::_Allocate_manually_vector_aligned<std::_Default_allocate_traits>
PUBLIC	??$_Zero_range@PAPAVCCoordinate@@@std@@YAPAPAVCCoordinate@@QAPAV1@0@Z ; std::_Zero_range<CCoordinate * *>
PUBLIC	??$_Zero_range@PAPAVCElementAndOrder@@@std@@YAPAPAVCElementAndOrder@@QAPAV1@0@Z ; std::_Zero_range<CElementAndOrder * *>
PUBLIC	??$_Copy_memmove@PAPAVCCoordinate@@PAPAV1@@std@@YAPAPAVCCoordinate@@PAPAV1@00@Z ; std::_Copy_memmove<CCoordinate * *,CCoordinate * *>
PUBLIC	??$_Copy_memmove@PAPAVCElementAndOrder@@PAPAV1@@std@@YAPAPAVCElementAndOrder@@PAPAV1@00@Z ; std::_Copy_memmove<CElementAndOrder * *,CElementAndOrder * *>
PUBLIC	??_C@_00CNPNBAHC@@				; `string'
PUBLIC	??_7exception@std@@6B@				; std::exception::`vftable'
PUBLIC	??_C@_0BC@EOODALEL@Unknown?5exception@		; `string'
PUBLIC	??_7bad_alloc@std@@6B@				; std::bad_alloc::`vftable'
PUBLIC	??_7bad_array_new_length@std@@6B@		; std::bad_array_new_length::`vftable'
PUBLIC	??_C@_0BF@KINCDENJ@bad?5array?5new?5length@	; `string'
PUBLIC	__TI3?AVbad_array_new_length@std@@
PUBLIC	__CTA3?AVbad_array_new_length@std@@
PUBLIC	??_R0?AVbad_array_new_length@std@@@8		; std::bad_array_new_length `RTTI Type Descriptor'
PUBLIC	__CT??_R0?AVbad_array_new_length@std@@@8??0bad_array_new_length@std@@QAE@ABV01@@Z12
PUBLIC	??_R0?AVbad_alloc@std@@@8			; std::bad_alloc `RTTI Type Descriptor'
PUBLIC	__CT??_R0?AVbad_alloc@std@@@8??0bad_alloc@std@@QAE@ABV01@@Z12
PUBLIC	??_R0?AVexception@std@@@8			; std::exception `RTTI Type Descriptor'
PUBLIC	__CT??_R0?AVexception@std@@@8??0exception@std@@QAE@ABV01@@Z12
PUBLIC	??_C@_0N@GAAGGFNK@?$DM?2Element?$DO?$AN?6@	; `string'
PUBLIC	??_C@_0M@KBDGNNOL@?$DMElement?$DO?$AN?6@	; `string'
PUBLIC	??_C@_0L@JOAAOIF@?$DMColumn?$DO?$AN?6@		; `string'
PUBLIC	??_C@_0M@FIEFJELL@?$DM?2Column?$DO?$AN?6@	; `string'
PUBLIC	??_C@_07KMGGOLCB@?$DMRow?$DO?$AN?6@		; `string'
PUBLIC	??_C@_08DHKDLDJL@?$DM?2Row?$DO?$AN?6@		; `string'
PUBLIC	??_C@_0BF@PDAEDAMM@?$DM?2PartEnvironment?$DO?$AN?6@ ; `string'
PUBLIC	??_C@_0BE@HJPGKECO@?$DMPartEnvironment?$DO?$AN?6@ ; `string'
PUBLIC	??_C@_0L@KONBFPIB@?$DM?2Index?$DO?$AN?6@	; `string'
PUBLIC	??_C@_07NALPMMAN@?$DMIndex?$DO@			; `string'
PUBLIC	??_C@_0O@EKBCJKJI@?$DM?2ToolType?$DO?$AN?6@	; `string'
PUBLIC	??_C@_0L@MHMLBBHM@?$DMToolType?$DO@		; `string'
PUBLIC	??_C@_0M@FEMGIGA@?$DM?2Points?$DO?$AN?6@	; `string'
PUBLIC	??_C@_0L@FEOJPCFO@?$DMPoints?$DO?$AN?6@		; `string'
PUBLIC	??_C@_0L@KMPINHDH@?$DM?2Point?$DO?$AN?6@	; `string'
PUBLIC	??_C@_07MPCOHMGB@?$DMPoint?$DO@			; `string'
PUBLIC	??_C@_01IHBHIGKO@?0@				; `string'
PUBLIC	??_C@_0P@IMPIBBAB@YYYYMMDDHHMMSS@		; `string'
PUBLIC	??_C@_02FFEBEEPL@?$CFY@				; `string'
PUBLIC	??_C@_02OOGLLHAM@?$CFm@				; `string'
PUBLIC	??_C@_04GICMHJFP@?$CFY?$CFm@			; `string'
PUBLIC	??_C@_06CLONMKIH@?$CFY?$CFm?$CFd@		; `string'
PUBLIC	??_C@_0N@BNMNAMM@?$CFY?$CFm?$CFd?$CFH?$CFM?$CFS@ ; `string'
PUBLIC	??_C@_08DKDJLCMP@YYYYMMDD@			; `string'
PUBLIC	??_C@_06GEKNBBDK@000000@			; `string'
PUBLIC	??_C@_06EBMMBHJD@YYYYMM@			; `string'
PUBLIC	??_C@_08HIJOEJNL@01000000@			; `string'
PUBLIC	??_C@_08KLIIINKM@MMDDHHMM@			; `string'
PUBLIC	??_C@_04OGKJMPGK@?$CF02d@			; `string'
PUBLIC	??_C@_04OCCELDNI@?$CF04d@			; `string'
PUBLIC	??_C@_02PLJDPFIO@00@				; `string'
PUBLIC	??_C@_08JFMBEEDE@DDHHMMSS@			; `string'
PUBLIC	??_C@_08CHLAEBHP@?$CF02d?$CF02d@		; `string'
PUBLIC	??_C@_09GKBBACOG@?$DM?2Horz?$DO?$AN?6@		; `string'
PUBLIC	??_C@_08EBDOJNCM@?$DMHorz?$DO?$AN?6@		; `string'
PUBLIC	??_C@_09MJLPMEOB@?$DM?2Show?$DO?$AN?6@		; `string'
PUBLIC	??_C@_06FNDGCLIP@?$DMShow?$DO@			; `string'
PUBLIC	??_C@_09GNFMKNLO@?$DM?2Left?$DO?$AN?6@		; `string'
PUBLIC	??_C@_06CIGIKOKD@?$DMLeft?$DO@			; `string'
PUBLIC	??_C@_0L@MCAHGOHG@?$DM?2Right?$DO?$AN?6@	; `string'
PUBLIC	??_C@_07BELDGPOI@?$DMRight?$DO@			; `string'
PUBLIC	??_C@_09ODLMLHBG@?$DM?2Rate?$DO?$AN?6@		; `string'
PUBLIC	??_C@_06DMADNNL@?$DMRate?$DO@			; `string'
PUBLIC	??_C@_09BIGAMANA@?$DM?2Vert?$DO?$AN?6@		; `string'
PUBLIC	??_C@_08DDEPFPBK@?$DMVert?$DO?$AN?6@		; `string'
PUBLIC	??_C@_08OGFDFKLB@?$DM?2Top?$DO?$AN?6@		; `string'
PUBLIC	??_C@_05IGGHGEPJ@?$DMTop?$DO@			; `string'
PUBLIC	??_C@_0M@LEMGAFHE@?$DM?2Bottom?$DO?$AN?6@	; `string'
PUBLIC	??_C@_08DJNLIMII@?$DMBottom?$DO@		; `string'
PUBLIC	??_C@_0O@LMJJOFLI@?$DM?2HorzVert?$DO?$AN?6@	; `string'
PUBLIC	??_C@_0N@ONIGNFDK@?$DMHorzVert?$DO?$AN?6@	; `string'
PUBLIC	??_C@_0BF@CDOIDFHB@?$DM?2TextEnvironment?$DO?$AN?6@ ; `string'
PUBLIC	??_C@_0BE@KJBKKBJD@?$DMTextEnvironment?$DO?$AN?6@ ; `string'
PUBLIC	??_C@_0BH@HNKNDMBN@?$DM?2CommonEnvironment?$DO?$AN?6@ ; `string'
PUBLIC	??_C@_0BG@OGIHHANM@?$DMCommonEnvironment?$DO?$AN?6@ ; `string'
PUBLIC	??_C@_0P@OFBFCELN@?$DM?2AutoPirce?$DO?$AN?6@	; `string'
PUBLIC	??_C@_0M@JPFNKEPJ@?$DMAutoPirce?$DO@		; `string'
PUBLIC	??_C@_0N@JENDHCPJ@?$DM?2EquiDiv?$DO?$AN?6@	; `string'
PUBLIC	??_C@_09PBAKMKPI@?$DMEquiDiv?$DO@		; `string'
PUBLIC	??_C@_0BD@JIABNAJN@?$DM?2PriceRangeDiv?$DO?$AN?6@ ; `string'
PUBLIC	??_C@_0BA@OIJLDBGJ@?$DMPriceRangeDiv?$DO@	; `string'
PUBLIC	??_C@_0N@LGOAMNGJ@?$DM?2LineExt?$DO?$AN?6@	; `string'
PUBLIC	??_C@_0M@HHNAHFFI@?$DMLineExt?$DO?$AN?6@	; `string'
PUBLIC	??_C@_0N@KHBFLOEK@?$DM?2LeftExt?$DO?$AN?6@	; `string'
PUBLIC	??_C@_09JKGHBJEA@?$DMLeftExt?$DO@		; `string'
PUBLIC	??_C@_0O@CEMHHFOM@?$DM?2RightExt?$DO?$AN?6@	; `string'
PUBLIC	??_C@_0L@CFEIJGAO@?$DMRightExt?$DO@		; `string'
PUBLIC	??_C@_08GMFHHECH@?$DM?2Pen?$DO?$AN?6@		; `string'
PUBLIC	??_C@_07PHJCCMJN@?$DMPen?$DO?$AN?6@		; `string'
PUBLIC	??_C@_0L@CPJBKACB@?$DM?2Color?$DO?$AN?6@	; `string'
PUBLIC	??_C@_07ONMJGOJF@?$DMColor?$DO@			; `string'
PUBLIC	??_C@_0L@GIHMIJMH@?$DM?2Width?$DO?$AN?6@	; `string'
PUBLIC	??_C@_07ONIIIKM@?$DMWidth?$DO@			; `string'
PUBLIC	??_C@_0L@MDDCEFHI@?$DM?2Style?$DO?$AN?6@	; `string'
PUBLIC	??_C@_07EANKACOK@?$DMStyle?$DO@			; `string'
PUBLIC	??_C@_0O@DKHNMBCK@?$DM?2DataType?$DO?$AN?6@	; `string'
PUBLIC	??_C@_0N@GLGCPBKI@?$DMDataType?$DO?$AN?6@	; `string'
PUBLIC	??_C@_06CMKMBJNG@?$DMHorz?$DO@			; `string'
PUBLIC	??_C@_0N@ONMDHGBL@?$DM?2ExtData?$DO?$AN?6@	; `string'
PUBLIC	??_C@_09EBDLFGEM@?$DMExtData?$DO@		; `string'
PUBLIC	??_C@_0N@HGCOAIDN@?$DM?2StrVert?$DO?$AN?6@	; `string'
PUBLIC	??_C@_09COIGHGNF@?$DMStrVert?$DO@		; `string'
PUBLIC	??_C@_0BA@IFAPIPNB@?$DM?2Coordinate?$DO?$AN?6@	; `string'
PUBLIC	??_C@_0N@CAIHOMCE@?$DMCoordinate?$DO@		; `string'
PUBLIC	??_C@_06FFFOEPJG@?$DMVert?$DO@			; `string'
PUBLIC	??_C@_0BC@KBDMBKEH@deque?$DMT?$DO?5too?5long@	; `string'
PUBLIC	??_R4exception@std@@6B@				; std::exception::`RTTI Complete Object Locator'
PUBLIC	??_R3exception@std@@8				; std::exception::`RTTI Class Hierarchy Descriptor'
PUBLIC	??_R2exception@std@@8				; std::exception::`RTTI Base Class Array'
PUBLIC	??_R1A@?0A@EA@exception@std@@8			; std::exception::`RTTI Base Class Descriptor at (0,-1,0,64)'
PUBLIC	??_R4bad_alloc@std@@6B@				; std::bad_alloc::`RTTI Complete Object Locator'
PUBLIC	??_R3bad_alloc@std@@8				; std::bad_alloc::`RTTI Class Hierarchy Descriptor'
PUBLIC	??_R2bad_alloc@std@@8				; std::bad_alloc::`RTTI Base Class Array'
PUBLIC	??_R1A@?0A@EA@bad_alloc@std@@8			; std::bad_alloc::`RTTI Base Class Descriptor at (0,-1,0,64)'
PUBLIC	??_R4bad_array_new_length@std@@6B@		; std::bad_array_new_length::`RTTI Complete Object Locator'
PUBLIC	??_R3bad_array_new_length@std@@8		; std::bad_array_new_length::`RTTI Class Hierarchy Descriptor'
PUBLIC	??_R2bad_array_new_length@std@@8		; std::bad_array_new_length::`RTTI Base Class Array'
PUBLIC	??_R1A@?0A@EA@bad_array_new_length@std@@8	; std::bad_array_new_length::`RTTI Base Class Descriptor at (0,-1,0,64)'
EXTRN	??2@YAPAXI@Z:PROC				; operator new
EXTRN	??3@YAXPAXI@Z:PROC				; operator delete
EXTRN	__imp___invalid_parameter_noinfo_noreturn:PROC
EXTRN	__imp__atof:PROC
EXTRN	__imp__atoi:PROC
EXTRN	__imp___atoi64:PROC
EXTRN	__imp___localtime64_s:PROC
EXTRN	__imp__strftime:PROC
EXTRN	__imp___time64:PROC
EXTRN	?AfxThrowMemoryException@@YGXXZ:PROC		; AfxThrowMemoryException
EXTRN	?AfxThrowOleException@@YGXJ@Z:PROC		; AfxThrowOleException
EXTRN	__imp_?Concatenate@?$CSimpleStringT@D$00@ATL@@KAXAAV12@PBDH1H@Z:PROC
EXTRN	__imp_??0?$CStringT@DV?$StrTraitMFC_DLL@DV?$ChTraitsCRT@D@ATL@@@@@ATL@@QAE@XZ:PROC
EXTRN	__imp_??0?$CStringT@DV?$StrTraitMFC_DLL@DV?$ChTraitsCRT@D@ATL@@@@@ATL@@QAE@PAUIAtlStringMgr@1@@Z:PROC
EXTRN	__imp_??0?$CStringT@DV?$StrTraitMFC_DLL@DV?$ChTraitsCRT@D@ATL@@@@@ATL@@QAE@ABV01@@Z:PROC
EXTRN	__imp_??0?$CStringT@DV?$StrTraitMFC_DLL@DV?$ChTraitsCRT@D@ATL@@@@@ATL@@QAE@PBD@Z:PROC
EXTRN	__imp_??1?$CStringT@DV?$StrTraitMFC_DLL@DV?$ChTraitsCRT@D@ATL@@@@@ATL@@QAE@XZ:PROC
EXTRN	__imp_??4?$CStringT@DV?$StrTraitMFC_DLL@DV?$ChTraitsCRT@D@ATL@@@@@ATL@@QAEAAV01@ABV01@@Z:PROC
EXTRN	__imp_??4?$CStringT@DV?$StrTraitMFC_DLL@DV?$ChTraitsCRT@D@ATL@@@@@ATL@@QAEAAV01@PBD@Z:PROC
EXTRN	__imp_?GetManager@?$CStringT@DV?$StrTraitMFC_DLL@DV?$ChTraitsCRT@D@ATL@@@@@ATL@@QBEPAUIAtlStringMgr@2@XZ:PROC
EXTRN	__imp_?Compare@?$CStringT@DV?$StrTraitMFC_DLL@DV?$ChTraitsCRT@D@ATL@@@@@ATL@@QBEHPBD@Z:PROC
EXTRN	__imp_?Mid@?$CStringT@DV?$StrTraitMFC_DLL@DV?$ChTraitsCRT@D@ATL@@@@@ATL@@QBE?AV12@HH@Z:PROC
EXTRN	__imp_?Right@?$CStringT@DV?$StrTraitMFC_DLL@DV?$ChTraitsCRT@D@ATL@@@@@ATL@@QBE?AV12@H@Z:PROC
EXTRN	__imp_?Left@?$CStringT@DV?$StrTraitMFC_DLL@DV?$ChTraitsCRT@D@ATL@@@@@ATL@@QBE?AV12@H@Z:PROC
EXTRN	__imp_?Format@?$CStringT@DV?$StrTraitMFC_DLL@DV?$ChTraitsCRT@D@ATL@@@@@ATL@@QAAXPBDZZ:PROC
EXTRN	___std_exception_copy:PROC
EXTRN	___std_exception_destroy:PROC
EXTRN	??_Eexception@std@@UAEPAXI@Z:PROC		; std::exception::`vector deleting destructor'
EXTRN	??_Ebad_alloc@std@@UAEPAXI@Z:PROC		; std::bad_alloc::`vector deleting destructor'
EXTRN	??_Ebad_array_new_length@std@@UAEPAXI@Z:PROC	; std::bad_array_new_length::`vector deleting destructor'
EXTRN	?_Xlength_error@std@@YAXPBD@Z:PROC		; std::_Xlength_error
EXTRN	??0CPenEnvironment@@QAE@ABKHW4PenStyle@CToolEnumData@@@Z:PROC ; CPenEnvironment::CPenEnvironment
EXTRN	??0CDataTypeEnvironment@@QAE@W4COORDINATETYPE@CAnalysis@@ABNABV?$CStringT@DV?$StrTraitMFC_DLL@DV?$ChTraitsCRT@D@ATL@@@@@ATL@@22PAUHWND__@@W4CHART_MODE@CChartInfo@@@Z:PROC ; CDataTypeEnvironment::CDataTypeEnvironment
EXTRN	??0CLineExtEnvironment@@QAE@ABH0@Z:PROC		; CLineExtEnvironment::CLineExtEnvironment
EXTRN	??0CElementCommonEnvironment@@QAE@_NABH1ABVCPenEnvironment@@ABVCDataTypeEnvironment@@ABVCLineExtEnvironment@@@Z:PROC ; CElementCommonEnvironment::CElementCommonEnvironment
EXTRN	??0CTextEnvironment@@QAE@XZ:PROC		; CTextEnvironment::CTextEnvironment
EXTRN	??0CTextEnvironment@@QAE@ABK@Z:PROC		; CTextEnvironment::CTextEnvironment
EXTRN	?SetTextEnvironment@CTextPosition@@QAEXABVCTextEnvironment@@@Z:PROC ; CTextPosition::SetTextEnvironment
EXTRN	??0CTextShowPosition@@QAE@XZ:PROC		; CTextShowPosition::CTextShowPosition
EXTRN	?SetShow@CTextShowPosition@@QAEX_N@Z:PROC	; CTextShowPosition::SetShow
EXTRN	??0CTextHorzPosition@@QAE@XZ:PROC		; CTextHorzPosition::CTextHorzPosition
EXTRN	?SetLeft@CTextHorzPosition@@QAEX_N@Z:PROC	; CTextHorzPosition::SetLeft
EXTRN	?SetRight@CTextHorzPosition@@QAEX_N@Z:PROC	; CTextHorzPosition::SetRight
EXTRN	?SetRightRate@CTextHorzPosition@@QAEX_N@Z:PROC	; CTextHorzPosition::SetRightRate
EXTRN	??0CTextVertPosition@@QAE@XZ:PROC		; CTextVertPosition::CTextVertPosition
EXTRN	?SetTop@CTextVertPosition@@QAEX_N@Z:PROC	; CTextVertPosition::SetTop
EXTRN	?SetBottom@CTextVertPosition@@QAEX_N@Z:PROC	; CTextVertPosition::SetBottom
EXTRN	??0CTextHorzVertPosition@@QAE@XZ:PROC		; CTextHorzVertPosition::CTextHorzVertPosition
EXTRN	?SetLeft@CTextHorzVertPosition@@QAEX_N@Z:PROC	; CTextHorzVertPosition::SetLeft
EXTRN	?SetRight@CTextHorzVertPosition@@QAEX_N@Z:PROC	; CTextHorzVertPosition::SetRight
EXTRN	?SetTop@CTextHorzVertPosition@@QAEX_N@Z:PROC	; CTextHorzVertPosition::SetTop
EXTRN	?SetBottom@CTextHorzVertPosition@@QAEX_N@Z:PROC	; CTextHorzVertPosition::SetBottom
EXTRN	??0CCoordinate@@QAE@ABN0HABV?$CStringT@DV?$StrTraitMFC_DLL@DV?$ChTraitsCRT@D@ATL@@@@@ATL@@H@Z:PROC ; CCoordinate::CCoordinate
EXTRN	??0CCoordinate@@QAE@ABV0@@Z:PROC		; CCoordinate::CCoordinate
EXTRN	?AddTail@COrder@@QAEXPAVCElement@@@Z:PROC	; COrder::AddTail
EXTRN	?Add@CTree@@QAEXABVCBlockIndex@@PAVCElement@@@Z:PROC ; CTree::Add
EXTRN	?RegisterElementToUnRedoManager@CUndoRedoManager@@QAEXHJPBD0@Z:PROC ; CUndoRedoManager::RegisterElementToUnRedoManager
EXTRN	?GetMainBlock@CAnalysisData@@QBEPAUIChartManager133101@@XZ:PROC ; CAnalysisData::GetMainBlock
EXTRN	?RegisterElementToOrderManager@CAnalysisData@@QAEXJ@Z:PROC ; CAnalysisData::RegisterElementToOrderManager
EXTRN	?GetUndoRedoManager@CAnalysisData@@QAEAAVCUndoRedoManager@@XZ:PROC ; CAnalysisData::GetUndoRedoManager
EXTRN	?Make@CElementFactory@@SAPAVCElement@@W4TOOLTYPE@CAnalysis@@ABVCCoordinate@@PBVCTextPosition@@ABVCElementCommonEnvironment@@@Z:PROC ; CElementFactory::Make
EXTRN	?Make@CElementFactory@@SAPAVCElement@@W4TOOLTYPE@CAnalysis@@ABVCCoordinate@@1PBVCTextPosition@@ABVCElementCommonEnvironment@@N@Z:PROC ; CElementFactory::Make
EXTRN	?Make@CElementFactory@@SAPAVCElement@@W4TOOLTYPE@CAnalysis@@ABVCCoordinate@@11PBVCTextPosition@@ABVCElementCommonEnvironment@@@Z:PROC ; CElementFactory::Make
EXTRN	?Make@CElementFactory@@SAPAVCElement@@W4TOOLTYPE@CAnalysis@@ABV?$CDequeList@VCCoordinate@@@@ABVCElementCommonEnvironment@@@Z:PROC ; CElementFactory::Make
EXTRN	?Str2RGB@CDataConversion@@SAKABV?$CStringT@DV?$StrTraitMFC_DLL@DV?$ChTraitsCRT@D@ATL@@@@@ATL@@@Z:PROC ; CDataConversion::Str2RGB
EXTRN	?atob@CDataConversion@@SA_NPBD@Z:PROC		; CDataConversion::atob
EXTRN	?GetStringData@CDataConversion@@SA?AV?$CStringT@DV?$StrTraitMFC_DLL@DV?$ChTraitsCRT@D@ATL@@@@@ATL@@AAV23@ABV23@_N@Z:PROC ; CDataConversion::GetStringData
EXTRN	?GetStringDataCount@CDataConversion@@SAHABV?$CStringT@DV?$StrTraitMFC_DLL@DV?$ChTraitsCRT@D@ATL@@@@@ATL@@0@Z:PROC ; CDataConversion::GetStringDataCount
EXTRN	?CalcTimeDiff@CDataConversion@@SANNHHV?$CStringT@DV?$StrTraitMFC_DLL@DV?$ChTraitsCRT@D@ATL@@@@@ATL@@@Z:PROC ; CDataConversion::CalcTimeDiff
EXTRN	@__security_check_cookie@4:PROC
EXTRN	__CxxThrowException@8:PROC
EXTRN	___CxxFrameHandler3:PROC
EXTRN	__ltod3:PROC
EXTRN	_memmove:PROC
EXTRN	_memset:PROC
EXTRN	??_7type_info@@6B@:QWORD			; type_info::`vftable'
EXTRN	___security_cookie:DWORD
EXTRN	__fltused:DWORD
;	COMDAT ??_R1A@?0A@EA@bad_array_new_length@std@@8
rdata$r	SEGMENT
??_R1A@?0A@EA@bad_array_new_length@std@@8 DD FLAT:??_R0?AVbad_array_new_length@std@@@8 ; std::bad_array_new_length::`RTTI Base Class Descriptor at (0,-1,0,64)'
	DD	02H
	DD	00H
	DD	0ffffffffH
	DD	00H
	DD	040H
	DD	FLAT:??_R3bad_array_new_length@std@@8
rdata$r	ENDS
;	COMDAT ??_R2bad_array_new_length@std@@8
rdata$r	SEGMENT
??_R2bad_array_new_length@std@@8 DD FLAT:??_R1A@?0A@EA@bad_array_new_length@std@@8 ; std::bad_array_new_length::`RTTI Base Class Array'
	DD	FLAT:??_R1A@?0A@EA@bad_alloc@std@@8
	DD	FLAT:??_R1A@?0A@EA@exception@std@@8
rdata$r	ENDS
;	COMDAT ??_R3bad_array_new_length@std@@8
rdata$r	SEGMENT
??_R3bad_array_new_length@std@@8 DD 00H			; std::bad_array_new_length::`RTTI Class Hierarchy Descriptor'
	DD	00H
	DD	03H
	DD	FLAT:??_R2bad_array_new_length@std@@8
rdata$r	ENDS
;	COMDAT ??_R4bad_array_new_length@std@@6B@
rdata$r	SEGMENT
??_R4bad_array_new_length@std@@6B@ DD 00H		; std::bad_array_new_length::`RTTI Complete Object Locator'
	DD	00H
	DD	00H
	DD	FLAT:??_R0?AVbad_array_new_length@std@@@8
	DD	FLAT:??_R3bad_array_new_length@std@@8
rdata$r	ENDS
;	COMDAT ??_R1A@?0A@EA@bad_alloc@std@@8
rdata$r	SEGMENT
??_R1A@?0A@EA@bad_alloc@std@@8 DD FLAT:??_R0?AVbad_alloc@std@@@8 ; std::bad_alloc::`RTTI Base Class Descriptor at (0,-1,0,64)'
	DD	01H
	DD	00H
	DD	0ffffffffH
	DD	00H
	DD	040H
	DD	FLAT:??_R3bad_alloc@std@@8
rdata$r	ENDS
;	COMDAT ??_R2bad_alloc@std@@8
rdata$r	SEGMENT
??_R2bad_alloc@std@@8 DD FLAT:??_R1A@?0A@EA@bad_alloc@std@@8 ; std::bad_alloc::`RTTI Base Class Array'
	DD	FLAT:??_R1A@?0A@EA@exception@std@@8
rdata$r	ENDS
;	COMDAT ??_R3bad_alloc@std@@8
rdata$r	SEGMENT
??_R3bad_alloc@std@@8 DD 00H				; std::bad_alloc::`RTTI Class Hierarchy Descriptor'
	DD	00H
	DD	02H
	DD	FLAT:??_R2bad_alloc@std@@8
rdata$r	ENDS
;	COMDAT ??_R4bad_alloc@std@@6B@
rdata$r	SEGMENT
??_R4bad_alloc@std@@6B@ DD 00H				; std::bad_alloc::`RTTI Complete Object Locator'
	DD	00H
	DD	00H
	DD	FLAT:??_R0?AVbad_alloc@std@@@8
	DD	FLAT:??_R3bad_alloc@std@@8
rdata$r	ENDS
;	COMDAT ??_R1A@?0A@EA@exception@std@@8
rdata$r	SEGMENT
??_R1A@?0A@EA@exception@std@@8 DD FLAT:??_R0?AVexception@std@@@8 ; std::exception::`RTTI Base Class Descriptor at (0,-1,0,64)'
	DD	00H
	DD	00H
	DD	0ffffffffH
	DD	00H
	DD	040H
	DD	FLAT:??_R3exception@std@@8
rdata$r	ENDS
;	COMDAT ??_R2exception@std@@8
rdata$r	SEGMENT
??_R2exception@std@@8 DD FLAT:??_R1A@?0A@EA@exception@std@@8 ; std::exception::`RTTI Base Class Array'
rdata$r	ENDS
;	COMDAT ??_R3exception@std@@8
rdata$r	SEGMENT
??_R3exception@std@@8 DD 00H				; std::exception::`RTTI Class Hierarchy Descriptor'
	DD	00H
	DD	01H
	DD	FLAT:??_R2exception@std@@8
rdata$r	ENDS
;	COMDAT ??_R4exception@std@@6B@
rdata$r	SEGMENT
??_R4exception@std@@6B@ DD 00H				; std::exception::`RTTI Complete Object Locator'
	DD	00H
	DD	00H
	DD	FLAT:??_R0?AVexception@std@@@8
	DD	FLAT:??_R3exception@std@@8
rdata$r	ENDS
;	COMDAT ??_C@_0BC@KBDMBKEH@deque?$DMT?$DO?5too?5long@
CONST	SEGMENT
??_C@_0BC@KBDMBKEH@deque?$DMT?$DO?5too?5long@ DB 'deque<T> too long', 00H ; `string'
CONST	ENDS
;	COMDAT ??_C@_06FFFOEPJG@?$DMVert?$DO@
CONST	SEGMENT
??_C@_06FFFOEPJG@?$DMVert?$DO@ DB '<Vert>', 00H		; `string'
CONST	ENDS
;	COMDAT ??_C@_0N@CAIHOMCE@?$DMCoordinate?$DO@
CONST	SEGMENT
??_C@_0N@CAIHOMCE@?$DMCoordinate?$DO@ DB '<Coordinate>', 00H ; `string'
CONST	ENDS
;	COMDAT ??_C@_0BA@IFAPIPNB@?$DM?2Coordinate?$DO?$AN?6@
CONST	SEGMENT
??_C@_0BA@IFAPIPNB@?$DM?2Coordinate?$DO?$AN?6@ DB '<\Coordinate>', 0dH, 0aH
	DB	00H						; `string'
CONST	ENDS
;	COMDAT ??_C@_09COIGHGNF@?$DMStrVert?$DO@
CONST	SEGMENT
??_C@_09COIGHGNF@?$DMStrVert?$DO@ DB '<StrVert>', 00H	; `string'
CONST	ENDS
;	COMDAT ??_C@_0N@HGCOAIDN@?$DM?2StrVert?$DO?$AN?6@
CONST	SEGMENT
??_C@_0N@HGCOAIDN@?$DM?2StrVert?$DO?$AN?6@ DB '<\StrVert>', 0dH, 0aH, 00H ; `string'
CONST	ENDS
;	COMDAT ??_C@_09EBDLFGEM@?$DMExtData?$DO@
CONST	SEGMENT
??_C@_09EBDLFGEM@?$DMExtData?$DO@ DB '<ExtData>', 00H	; `string'
CONST	ENDS
;	COMDAT ??_C@_0N@ONMDHGBL@?$DM?2ExtData?$DO?$AN?6@
CONST	SEGMENT
??_C@_0N@ONMDHGBL@?$DM?2ExtData?$DO?$AN?6@ DB '<\ExtData>', 0dH, 0aH, 00H ; `string'
CONST	ENDS
;	COMDAT ??_C@_06CMKMBJNG@?$DMHorz?$DO@
CONST	SEGMENT
??_C@_06CMKMBJNG@?$DMHorz?$DO@ DB '<Horz>', 00H		; `string'
CONST	ENDS
;	COMDAT ??_C@_0N@GLGCPBKI@?$DMDataType?$DO?$AN?6@
CONST	SEGMENT
??_C@_0N@GLGCPBKI@?$DMDataType?$DO?$AN?6@ DB '<DataType>', 0dH, 0aH, 00H ; `string'
CONST	ENDS
;	COMDAT ??_C@_0O@DKHNMBCK@?$DM?2DataType?$DO?$AN?6@
CONST	SEGMENT
??_C@_0O@DKHNMBCK@?$DM?2DataType?$DO?$AN?6@ DB '<\DataType>', 0dH, 0aH, 00H ; `string'
CONST	ENDS
;	COMDAT ??_C@_07EANKACOK@?$DMStyle?$DO@
CONST	SEGMENT
??_C@_07EANKACOK@?$DMStyle?$DO@ DB '<Style>', 00H	; `string'
CONST	ENDS
;	COMDAT ??_C@_0L@MDDCEFHI@?$DM?2Style?$DO?$AN?6@
CONST	SEGMENT
??_C@_0L@MDDCEFHI@?$DM?2Style?$DO?$AN?6@ DB '<\Style>', 0dH, 0aH, 00H ; `string'
CONST	ENDS
;	COMDAT ??_C@_07ONIIIKM@?$DMWidth?$DO@
CONST	SEGMENT
??_C@_07ONIIIKM@?$DMWidth?$DO@ DB '<Width>', 00H	; `string'
CONST	ENDS
;	COMDAT ??_C@_0L@GIHMIJMH@?$DM?2Width?$DO?$AN?6@
CONST	SEGMENT
??_C@_0L@GIHMIJMH@?$DM?2Width?$DO?$AN?6@ DB '<\Width>', 0dH, 0aH, 00H ; `string'
CONST	ENDS
;	COMDAT ??_C@_07ONMJGOJF@?$DMColor?$DO@
CONST	SEGMENT
??_C@_07ONMJGOJF@?$DMColor?$DO@ DB '<Color>', 00H	; `string'
CONST	ENDS
;	COMDAT ??_C@_0L@CPJBKACB@?$DM?2Color?$DO?$AN?6@
CONST	SEGMENT
??_C@_0L@CPJBKACB@?$DM?2Color?$DO?$AN?6@ DB '<\Color>', 0dH, 0aH, 00H ; `string'
CONST	ENDS
;	COMDAT ??_C@_07PHJCCMJN@?$DMPen?$DO?$AN?6@
CONST	SEGMENT
??_C@_07PHJCCMJN@?$DMPen?$DO?$AN?6@ DB '<Pen>', 0dH, 0aH, 00H ; `string'
CONST	ENDS
;	COMDAT ??_C@_08GMFHHECH@?$DM?2Pen?$DO?$AN?6@
CONST	SEGMENT
??_C@_08GMFHHECH@?$DM?2Pen?$DO?$AN?6@ DB '<\Pen>', 0dH, 0aH, 00H ; `string'
CONST	ENDS
;	COMDAT ??_C@_0L@CFEIJGAO@?$DMRightExt?$DO@
CONST	SEGMENT
??_C@_0L@CFEIJGAO@?$DMRightExt?$DO@ DB '<RightExt>', 00H ; `string'
CONST	ENDS
;	COMDAT ??_C@_0O@CEMHHFOM@?$DM?2RightExt?$DO?$AN?6@
CONST	SEGMENT
??_C@_0O@CEMHHFOM@?$DM?2RightExt?$DO?$AN?6@ DB '<\RightExt>', 0dH, 0aH, 00H ; `string'
CONST	ENDS
;	COMDAT ??_C@_09JKGHBJEA@?$DMLeftExt?$DO@
CONST	SEGMENT
??_C@_09JKGHBJEA@?$DMLeftExt?$DO@ DB '<LeftExt>', 00H	; `string'
CONST	ENDS
;	COMDAT ??_C@_0N@KHBFLOEK@?$DM?2LeftExt?$DO?$AN?6@
CONST	SEGMENT
??_C@_0N@KHBFLOEK@?$DM?2LeftExt?$DO?$AN?6@ DB '<\LeftExt>', 0dH, 0aH, 00H ; `string'
CONST	ENDS
;	COMDAT ??_C@_0M@HHNAHFFI@?$DMLineExt?$DO?$AN?6@
CONST	SEGMENT
??_C@_0M@HHNAHFFI@?$DMLineExt?$DO?$AN?6@ DB '<LineExt>', 0dH, 0aH, 00H ; `string'
CONST	ENDS
;	COMDAT ??_C@_0N@LGOAMNGJ@?$DM?2LineExt?$DO?$AN?6@
CONST	SEGMENT
??_C@_0N@LGOAMNGJ@?$DM?2LineExt?$DO?$AN?6@ DB '<\LineExt>', 0dH, 0aH, 00H ; `string'
CONST	ENDS
;	COMDAT ??_C@_0BA@OIJLDBGJ@?$DMPriceRangeDiv?$DO@
CONST	SEGMENT
??_C@_0BA@OIJLDBGJ@?$DMPriceRangeDiv?$DO@ DB '<PriceRangeDiv>', 00H ; `string'
CONST	ENDS
;	COMDAT ??_C@_0BD@JIABNAJN@?$DM?2PriceRangeDiv?$DO?$AN?6@
CONST	SEGMENT
??_C@_0BD@JIABNAJN@?$DM?2PriceRangeDiv?$DO?$AN?6@ DB '<\PriceRangeDiv>', 0dH
	DB	0aH, 00H					; `string'
CONST	ENDS
;	COMDAT ??_C@_09PBAKMKPI@?$DMEquiDiv?$DO@
CONST	SEGMENT
??_C@_09PBAKMKPI@?$DMEquiDiv?$DO@ DB '<EquiDiv>', 00H	; `string'
CONST	ENDS
;	COMDAT ??_C@_0N@JENDHCPJ@?$DM?2EquiDiv?$DO?$AN?6@
CONST	SEGMENT
??_C@_0N@JENDHCPJ@?$DM?2EquiDiv?$DO?$AN?6@ DB '<\EquiDiv>', 0dH, 0aH, 00H ; `string'
CONST	ENDS
;	COMDAT ??_C@_0M@JPFNKEPJ@?$DMAutoPirce?$DO@
CONST	SEGMENT
??_C@_0M@JPFNKEPJ@?$DMAutoPirce?$DO@ DB '<AutoPirce>', 00H ; `string'
CONST	ENDS
;	COMDAT ??_C@_0P@OFBFCELN@?$DM?2AutoPirce?$DO?$AN?6@
CONST	SEGMENT
??_C@_0P@OFBFCELN@?$DM?2AutoPirce?$DO?$AN?6@ DB '<\AutoPirce>', 0dH, 0aH, 00H ; `string'
CONST	ENDS
;	COMDAT ??_C@_0BG@OGIHHANM@?$DMCommonEnvironment?$DO?$AN?6@
CONST	SEGMENT
??_C@_0BG@OGIHHANM@?$DMCommonEnvironment?$DO?$AN?6@ DB '<CommonEnvironmen'
	DB	't>', 0dH, 0aH, 00H				; `string'
CONST	ENDS
;	COMDAT ??_C@_0BH@HNKNDMBN@?$DM?2CommonEnvironment?$DO?$AN?6@
CONST	SEGMENT
??_C@_0BH@HNKNDMBN@?$DM?2CommonEnvironment?$DO?$AN?6@ DB '<\CommonEnviron'
	DB	'ment>', 0dH, 0aH, 00H			; `string'
CONST	ENDS
;	COMDAT ??_C@_0BE@KJBKKBJD@?$DMTextEnvironment?$DO?$AN?6@
CONST	SEGMENT
??_C@_0BE@KJBKKBJD@?$DMTextEnvironment?$DO?$AN?6@ DB '<TextEnvironment>', 0dH
	DB	0aH, 00H					; `string'
CONST	ENDS
;	COMDAT ??_C@_0BF@CDOIDFHB@?$DM?2TextEnvironment?$DO?$AN?6@
CONST	SEGMENT
??_C@_0BF@CDOIDFHB@?$DM?2TextEnvironment?$DO?$AN?6@ DB '<\TextEnvironment'
	DB	'>', 0dH, 0aH, 00H				; `string'
CONST	ENDS
;	COMDAT ??_C@_0N@ONIGNFDK@?$DMHorzVert?$DO?$AN?6@
CONST	SEGMENT
??_C@_0N@ONIGNFDK@?$DMHorzVert?$DO?$AN?6@ DB '<HorzVert>', 0dH, 0aH, 00H ; `string'
CONST	ENDS
;	COMDAT ??_C@_0O@LMJJOFLI@?$DM?2HorzVert?$DO?$AN?6@
CONST	SEGMENT
??_C@_0O@LMJJOFLI@?$DM?2HorzVert?$DO?$AN?6@ DB '<\HorzVert>', 0dH, 0aH, 00H ; `string'
CONST	ENDS
;	COMDAT ??_C@_08DJNLIMII@?$DMBottom?$DO@
CONST	SEGMENT
??_C@_08DJNLIMII@?$DMBottom?$DO@ DB '<Bottom>', 00H	; `string'
CONST	ENDS
;	COMDAT ??_C@_0M@LEMGAFHE@?$DM?2Bottom?$DO?$AN?6@
CONST	SEGMENT
??_C@_0M@LEMGAFHE@?$DM?2Bottom?$DO?$AN?6@ DB '<\Bottom>', 0dH, 0aH, 00H ; `string'
CONST	ENDS
;	COMDAT ??_C@_05IGGHGEPJ@?$DMTop?$DO@
CONST	SEGMENT
??_C@_05IGGHGEPJ@?$DMTop?$DO@ DB '<Top>', 00H		; `string'
CONST	ENDS
;	COMDAT ??_C@_08OGFDFKLB@?$DM?2Top?$DO?$AN?6@
CONST	SEGMENT
??_C@_08OGFDFKLB@?$DM?2Top?$DO?$AN?6@ DB '<\Top>', 0dH, 0aH, 00H ; `string'
CONST	ENDS
;	COMDAT ??_C@_08DDEPFPBK@?$DMVert?$DO?$AN?6@
CONST	SEGMENT
??_C@_08DDEPFPBK@?$DMVert?$DO?$AN?6@ DB '<Vert>', 0dH, 0aH, 00H ; `string'
CONST	ENDS
;	COMDAT ??_C@_09BIGAMANA@?$DM?2Vert?$DO?$AN?6@
CONST	SEGMENT
??_C@_09BIGAMANA@?$DM?2Vert?$DO?$AN?6@ DB '<\Vert>', 0dH, 0aH, 00H ; `string'
CONST	ENDS
;	COMDAT ??_C@_06DMADNNL@?$DMRate?$DO@
CONST	SEGMENT
??_C@_06DMADNNL@?$DMRate?$DO@ DB '<Rate>', 00H		; `string'
CONST	ENDS
;	COMDAT ??_C@_09ODLMLHBG@?$DM?2Rate?$DO?$AN?6@
CONST	SEGMENT
??_C@_09ODLMLHBG@?$DM?2Rate?$DO?$AN?6@ DB '<\Rate>', 0dH, 0aH, 00H ; `string'
CONST	ENDS
;	COMDAT ??_C@_07BELDGPOI@?$DMRight?$DO@
CONST	SEGMENT
??_C@_07BELDGPOI@?$DMRight?$DO@ DB '<Right>', 00H	; `string'
CONST	ENDS
;	COMDAT ??_C@_0L@MCAHGOHG@?$DM?2Right?$DO?$AN?6@
CONST	SEGMENT
??_C@_0L@MCAHGOHG@?$DM?2Right?$DO?$AN?6@ DB '<\Right>', 0dH, 0aH, 00H ; `string'
CONST	ENDS
;	COMDAT ??_C@_06CIGIKOKD@?$DMLeft?$DO@
CONST	SEGMENT
??_C@_06CIGIKOKD@?$DMLeft?$DO@ DB '<Left>', 00H		; `string'
CONST	ENDS
;	COMDAT ??_C@_09GNFMKNLO@?$DM?2Left?$DO?$AN?6@
CONST	SEGMENT
??_C@_09GNFMKNLO@?$DM?2Left?$DO?$AN?6@ DB '<\Left>', 0dH, 0aH, 00H ; `string'
CONST	ENDS
;	COMDAT ??_C@_06FNDGCLIP@?$DMShow?$DO@
CONST	SEGMENT
??_C@_06FNDGCLIP@?$DMShow?$DO@ DB '<Show>', 00H		; `string'
CONST	ENDS
;	COMDAT ??_C@_09MJLPMEOB@?$DM?2Show?$DO?$AN?6@
CONST	SEGMENT
??_C@_09MJLPMEOB@?$DM?2Show?$DO?$AN?6@ DB '<\Show>', 0dH, 0aH, 00H ; `string'
CONST	ENDS
;	COMDAT ??_C@_08EBDOJNCM@?$DMHorz?$DO?$AN?6@
CONST	SEGMENT
??_C@_08EBDOJNCM@?$DMHorz?$DO?$AN?6@ DB '<Horz>', 0dH, 0aH, 00H ; `string'
CONST	ENDS
;	COMDAT ??_C@_09GKBBACOG@?$DM?2Horz?$DO?$AN?6@
CONST	SEGMENT
??_C@_09GKBBACOG@?$DM?2Horz?$DO?$AN?6@ DB '<\Horz>', 0dH, 0aH, 00H ; `string'
CONST	ENDS
;	COMDAT ??_C@_08CHLAEBHP@?$CF02d?$CF02d@
CONST	SEGMENT
??_C@_08CHLAEBHP@?$CF02d?$CF02d@ DB '%02d%02d', 00H	; `string'
CONST	ENDS
;	COMDAT ??_C@_08JFMBEEDE@DDHHMMSS@
CONST	SEGMENT
??_C@_08JFMBEEDE@DDHHMMSS@ DB 'DDHHMMSS', 00H		; `string'
CONST	ENDS
;	COMDAT ??_C@_02PLJDPFIO@00@
CONST	SEGMENT
??_C@_02PLJDPFIO@00@ DB '00', 00H			; `string'
CONST	ENDS
;	COMDAT ??_C@_04OCCELDNI@?$CF04d@
CONST	SEGMENT
??_C@_04OCCELDNI@?$CF04d@ DB '%04d', 00H		; `string'
CONST	ENDS
;	COMDAT ??_C@_04OGKJMPGK@?$CF02d@
CONST	SEGMENT
??_C@_04OGKJMPGK@?$CF02d@ DB '%02d', 00H		; `string'
CONST	ENDS
;	COMDAT ??_C@_08KLIIINKM@MMDDHHMM@
CONST	SEGMENT
??_C@_08KLIIINKM@MMDDHHMM@ DB 'MMDDHHMM', 00H		; `string'
CONST	ENDS
;	COMDAT ??_C@_08HIJOEJNL@01000000@
CONST	SEGMENT
??_C@_08HIJOEJNL@01000000@ DB '01000000', 00H		; `string'
CONST	ENDS
;	COMDAT ??_C@_06EBMMBHJD@YYYYMM@
CONST	SEGMENT
??_C@_06EBMMBHJD@YYYYMM@ DB 'YYYYMM', 00H		; `string'
CONST	ENDS
;	COMDAT ??_C@_06GEKNBBDK@000000@
CONST	SEGMENT
??_C@_06GEKNBBDK@000000@ DB '000000', 00H		; `string'
CONST	ENDS
;	COMDAT ??_C@_08DKDJLCMP@YYYYMMDD@
CONST	SEGMENT
??_C@_08DKDJLCMP@YYYYMMDD@ DB 'YYYYMMDD', 00H		; `string'
CONST	ENDS
;	COMDAT ??_C@_0N@BNMNAMM@?$CFY?$CFm?$CFd?$CFH?$CFM?$CFS@
CONST	SEGMENT
??_C@_0N@BNMNAMM@?$CFY?$CFm?$CFd?$CFH?$CFM?$CFS@ DB '%Y%m%d%H%M%S', 00H ; `string'
CONST	ENDS
;	COMDAT ??_C@_06CLONMKIH@?$CFY?$CFm?$CFd@
CONST	SEGMENT
??_C@_06CLONMKIH@?$CFY?$CFm?$CFd@ DB '%Y%m%d', 00H	; `string'
CONST	ENDS
;	COMDAT ??_C@_04GICMHJFP@?$CFY?$CFm@
CONST	SEGMENT
??_C@_04GICMHJFP@?$CFY?$CFm@ DB '%Y%m', 00H		; `string'
CONST	ENDS
;	COMDAT ??_C@_02OOGLLHAM@?$CFm@
CONST	SEGMENT
??_C@_02OOGLLHAM@?$CFm@ DB '%m', 00H			; `string'
CONST	ENDS
;	COMDAT ??_C@_02FFEBEEPL@?$CFY@
CONST	SEGMENT
??_C@_02FFEBEEPL@?$CFY@ DB '%Y', 00H			; `string'
CONST	ENDS
;	COMDAT ??_C@_0P@IMPIBBAB@YYYYMMDDHHMMSS@
CONST	SEGMENT
??_C@_0P@IMPIBBAB@YYYYMMDDHHMMSS@ DB 'YYYYMMDDHHMMSS', 00H ; `string'
CONST	ENDS
;	COMDAT ??_C@_01IHBHIGKO@?0@
CONST	SEGMENT
??_C@_01IHBHIGKO@?0@ DB ',', 00H			; `string'
CONST	ENDS
;	COMDAT ??_C@_07MPCOHMGB@?$DMPoint?$DO@
CONST	SEGMENT
??_C@_07MPCOHMGB@?$DMPoint?$DO@ DB '<Point>', 00H	; `string'
CONST	ENDS
;	COMDAT ??_C@_0L@KMPINHDH@?$DM?2Point?$DO?$AN?6@
CONST	SEGMENT
??_C@_0L@KMPINHDH@?$DM?2Point?$DO?$AN?6@ DB '<\Point>', 0dH, 0aH, 00H ; `string'
CONST	ENDS
;	COMDAT ??_C@_0L@FEOJPCFO@?$DMPoints?$DO?$AN?6@
CONST	SEGMENT
??_C@_0L@FEOJPCFO@?$DMPoints?$DO?$AN?6@ DB '<Points>', 0dH, 0aH, 00H ; `string'
CONST	ENDS
;	COMDAT ??_C@_0M@FEMGIGA@?$DM?2Points?$DO?$AN?6@
CONST	SEGMENT
??_C@_0M@FEMGIGA@?$DM?2Points?$DO?$AN?6@ DB '<\Points>', 0dH, 0aH, 00H ; `string'
CONST	ENDS
;	COMDAT ??_C@_0L@MHMLBBHM@?$DMToolType?$DO@
CONST	SEGMENT
??_C@_0L@MHMLBBHM@?$DMToolType?$DO@ DB '<ToolType>', 00H ; `string'
CONST	ENDS
;	COMDAT ??_C@_0O@EKBCJKJI@?$DM?2ToolType?$DO?$AN?6@
CONST	SEGMENT
??_C@_0O@EKBCJKJI@?$DM?2ToolType?$DO?$AN?6@ DB '<\ToolType>', 0dH, 0aH, 00H ; `string'
CONST	ENDS
;	COMDAT ??_C@_07NALPMMAN@?$DMIndex?$DO@
CONST	SEGMENT
??_C@_07NALPMMAN@?$DMIndex?$DO@ DB '<Index>', 00H	; `string'
CONST	ENDS
;	COMDAT ??_C@_0L@KONBFPIB@?$DM?2Index?$DO?$AN?6@
CONST	SEGMENT
??_C@_0L@KONBFPIB@?$DM?2Index?$DO?$AN?6@ DB '<\Index>', 0dH, 0aH, 00H ; `string'
CONST	ENDS
;	COMDAT ??_C@_0BE@HJPGKECO@?$DMPartEnvironment?$DO?$AN?6@
CONST	SEGMENT
??_C@_0BE@HJPGKECO@?$DMPartEnvironment?$DO?$AN?6@ DB '<PartEnvironment>', 0dH
	DB	0aH, 00H					; `string'
CONST	ENDS
;	COMDAT ??_C@_0BF@PDAEDAMM@?$DM?2PartEnvironment?$DO?$AN?6@
CONST	SEGMENT
??_C@_0BF@PDAEDAMM@?$DM?2PartEnvironment?$DO?$AN?6@ DB '<\PartEnvironment'
	DB	'>', 0dH, 0aH, 00H				; `string'
CONST	ENDS
;	COMDAT ??_C@_08DHKDLDJL@?$DM?2Row?$DO?$AN?6@
CONST	SEGMENT
??_C@_08DHKDLDJL@?$DM?2Row?$DO?$AN?6@ DB '<\Row>', 0dH, 0aH, 00H ; `string'
CONST	ENDS
;	COMDAT ??_C@_07KMGGOLCB@?$DMRow?$DO?$AN?6@
CONST	SEGMENT
??_C@_07KMGGOLCB@?$DMRow?$DO?$AN?6@ DB '<Row>', 0dH, 0aH, 00H ; `string'
CONST	ENDS
;	COMDAT ??_C@_0M@FIEFJELL@?$DM?2Column?$DO?$AN?6@
CONST	SEGMENT
??_C@_0M@FIEFJELL@?$DM?2Column?$DO?$AN?6@ DB '<\Column>', 0dH, 0aH, 00H ; `string'
CONST	ENDS
;	COMDAT ??_C@_0L@JOAAOIF@?$DMColumn?$DO?$AN?6@
CONST	SEGMENT
??_C@_0L@JOAAOIF@?$DMColumn?$DO?$AN?6@ DB '<Column>', 0dH, 0aH, 00H ; `string'
CONST	ENDS
;	COMDAT ??_C@_0M@KBDGNNOL@?$DMElement?$DO?$AN?6@
CONST	SEGMENT
??_C@_0M@KBDGNNOL@?$DMElement?$DO?$AN?6@ DB '<Element>', 0dH, 0aH, 00H ; `string'
CONST	ENDS
;	COMDAT ??_C@_0N@GAAGGFNK@?$DM?2Element?$DO?$AN?6@
CONST	SEGMENT
??_C@_0N@GAAGGFNK@?$DM?2Element?$DO?$AN?6@ DB '<\Element>', 0dH, 0aH, 00H ; `string'
CONST	ENDS
;	COMDAT __CT??_R0?AVexception@std@@@8??0exception@std@@QAE@ABV01@@Z12
xdata$x	SEGMENT
__CT??_R0?AVexception@std@@@8??0exception@std@@QAE@ABV01@@Z12 DD 00H
	DD	FLAT:??_R0?AVexception@std@@@8
	DD	00H
	DD	0ffffffffH
	ORG $+4
	DD	0cH
	DD	FLAT:??0exception@std@@QAE@ABV01@@Z
xdata$x	ENDS
;	COMDAT ??_R0?AVexception@std@@@8
data$r	SEGMENT
??_R0?AVexception@std@@@8 DD FLAT:??_7type_info@@6B@	; std::exception `RTTI Type Descriptor'
	DD	00H
	DB	'.?AVexception@std@@', 00H
data$r	ENDS
;	COMDAT __CT??_R0?AVbad_alloc@std@@@8??0bad_alloc@std@@QAE@ABV01@@Z12
xdata$x	SEGMENT
__CT??_R0?AVbad_alloc@std@@@8??0bad_alloc@std@@QAE@ABV01@@Z12 DD 010H
	DD	FLAT:??_R0?AVbad_alloc@std@@@8
	DD	00H
	DD	0ffffffffH
	ORG $+4
	DD	0cH
	DD	FLAT:??0bad_alloc@std@@QAE@ABV01@@Z
xdata$x	ENDS
;	COMDAT ??_R0?AVbad_alloc@std@@@8
data$r	SEGMENT
??_R0?AVbad_alloc@std@@@8 DD FLAT:??_7type_info@@6B@	; std::bad_alloc `RTTI Type Descriptor'
	DD	00H
	DB	'.?AVbad_alloc@std@@', 00H
data$r	ENDS
;	COMDAT __CT??_R0?AVbad_array_new_length@std@@@8??0bad_array_new_length@std@@QAE@ABV01@@Z12
xdata$x	SEGMENT
__CT??_R0?AVbad_array_new_length@std@@@8??0bad_array_new_length@std@@QAE@ABV01@@Z12 DD 00H
	DD	FLAT:??_R0?AVbad_array_new_length@std@@@8
	DD	00H
	DD	0ffffffffH
	ORG $+4
	DD	0cH
	DD	FLAT:??0bad_array_new_length@std@@QAE@ABV01@@Z
xdata$x	ENDS
;	COMDAT ??_R0?AVbad_array_new_length@std@@@8
data$r	SEGMENT
??_R0?AVbad_array_new_length@std@@@8 DD FLAT:??_7type_info@@6B@ ; std::bad_array_new_length `RTTI Type Descriptor'
	DD	00H
	DB	'.?AVbad_array_new_length@std@@', 00H
data$r	ENDS
;	COMDAT __CTA3?AVbad_array_new_length@std@@
xdata$x	SEGMENT
__CTA3?AVbad_array_new_length@std@@ DD 03H
	DD	FLAT:__CT??_R0?AVbad_array_new_length@std@@@8??0bad_array_new_length@std@@QAE@ABV01@@Z12
	DD	FLAT:__CT??_R0?AVbad_alloc@std@@@8??0bad_alloc@std@@QAE@ABV01@@Z12
	DD	FLAT:__CT??_R0?AVexception@std@@@8??0exception@std@@QAE@ABV01@@Z12
xdata$x	ENDS
;	COMDAT __TI3?AVbad_array_new_length@std@@
xdata$x	SEGMENT
__TI3?AVbad_array_new_length@std@@ DD 00H
	DD	FLAT:??1bad_array_new_length@std@@UAE@XZ
	DD	00H
	DD	FLAT:__CTA3?AVbad_array_new_length@std@@
xdata$x	ENDS
;	COMDAT ??_C@_0BF@KINCDENJ@bad?5array?5new?5length@
CONST	SEGMENT
??_C@_0BF@KINCDENJ@bad?5array?5new?5length@ DB 'bad array new length', 00H ; `string'
CONST	ENDS
;	COMDAT ??_7bad_array_new_length@std@@6B@
CONST	SEGMENT
??_7bad_array_new_length@std@@6B@ DD FLAT:??_R4bad_array_new_length@std@@6B@ ; std::bad_array_new_length::`vftable'
	DD	FLAT:??_Ebad_array_new_length@std@@UAEPAXI@Z
	DD	FLAT:?what@exception@std@@UBEPBDXZ
CONST	ENDS
;	COMDAT ??_7bad_alloc@std@@6B@
CONST	SEGMENT
??_7bad_alloc@std@@6B@ DD FLAT:??_R4bad_alloc@std@@6B@	; std::bad_alloc::`vftable'
	DD	FLAT:??_Ebad_alloc@std@@UAEPAXI@Z
	DD	FLAT:?what@exception@std@@UBEPBDXZ
CONST	ENDS
;	COMDAT ??_C@_0BC@EOODALEL@Unknown?5exception@
CONST	SEGMENT
??_C@_0BC@EOODALEL@Unknown?5exception@ DB 'Unknown exception', 00H ; `string'
CONST	ENDS
;	COMDAT ??_7exception@std@@6B@
CONST	SEGMENT
??_7exception@std@@6B@ DD FLAT:??_R4exception@std@@6B@	; std::exception::`vftable'
	DD	FLAT:??_Eexception@std@@UAEPAXI@Z
	DD	FLAT:?what@exception@std@@UBEPBDXZ
CONST	ENDS
;	COMDAT ??_C@_00CNPNBAHC@@
CONST	SEGMENT
??_C@_00CNPNBAHC@@ DB 00H				; `string'
CONST	ENDS
;	COMDAT xdata$x
xdata$x	SEGMENT
__unwindtable$?GetVertDataType@CElementTreeBuilder@@ABENABV?$CStringT@DV?$StrTraitMFC_DLL@DV?$ChTraitsCRT@D@ATL@@@@@ATL@@@Z DD 0ffffffffH
	DD	FLAT:__unwindfunclet$?GetVertDataType@CElementTreeBuilder@@ABENABV?$CStringT@DV?$StrTraitMFC_DLL@DV?$ChTraitsCRT@D@ATL@@@@@ATL@@@Z$0
	DD	00H
	DD	FLAT:__unwindfunclet$?GetVertDataType@CElementTreeBuilder@@ABENABV?$CStringT@DV?$StrTraitMFC_DLL@DV?$ChTraitsCRT@D@ATL@@@@@ATL@@@Z$1
	DD	01H
	DD	FLAT:__unwindfunclet$?GetVertDataType@CElementTreeBuilder@@ABENABV?$CStringT@DV?$StrTraitMFC_DLL@DV?$ChTraitsCRT@D@ATL@@@@@ATL@@@Z$3
__ehfuncinfo$?GetVertDataType@CElementTreeBuilder@@ABENABV?$CStringT@DV?$StrTraitMFC_DLL@DV?$ChTraitsCRT@D@ATL@@@@@ATL@@@Z DD 019930522H
	DD	03H
	DD	FLAT:__unwindtable$?GetVertDataType@CElementTreeBuilder@@ABENABV?$CStringT@DV?$StrTraitMFC_DLL@DV?$ChTraitsCRT@D@ATL@@@@@ATL@@@Z
	DD	2 DUP(00H)
	DD	2 DUP(00H)
	DD	00H
	DD	01H
xdata$x	ENDS
;	COMDAT xdata$x
xdata$x	SEGMENT
__unwindtable$?GetCoordinateType@CElementTreeBuilder@@ABE?AW4COORDINATETYPE@CAnalysis@@ABV?$CStringT@DV?$StrTraitMFC_DLL@DV?$ChTraitsCRT@D@ATL@@@@@ATL@@@Z DD 0ffffffffH
	DD	FLAT:__unwindfunclet$?GetCoordinateType@CElementTreeBuilder@@ABE?AW4COORDINATETYPE@CAnalysis@@ABV?$CStringT@DV?$StrTraitMFC_DLL@DV?$ChTraitsCRT@D@ATL@@@@@ATL@@@Z$0
	DD	00H
	DD	FLAT:__unwindfunclet$?GetCoordinateType@CElementTreeBuilder@@ABE?AW4COORDINATETYPE@CAnalysis@@ABV?$CStringT@DV?$StrTraitMFC_DLL@DV?$ChTraitsCRT@D@ATL@@@@@ATL@@@Z$1
	DD	01H
	DD	FLAT:__unwindfunclet$?GetCoordinateType@CElementTreeBuilder@@ABE?AW4COORDINATETYPE@CAnalysis@@ABV?$CStringT@DV?$StrTraitMFC_DLL@DV?$ChTraitsCRT@D@ATL@@@@@ATL@@@Z$3
__ehfuncinfo$?GetCoordinateType@CElementTreeBuilder@@ABE?AW4COORDINATETYPE@CAnalysis@@ABV?$CStringT@DV?$StrTraitMFC_DLL@DV?$ChTraitsCRT@D@ATL@@@@@ATL@@@Z DD 019930522H
	DD	03H
	DD	FLAT:__unwindtable$?GetCoordinateType@CElementTreeBuilder@@ABE?AW4COORDINATETYPE@CAnalysis@@ABV?$CStringT@DV?$StrTraitMFC_DLL@DV?$ChTraitsCRT@D@ATL@@@@@ATL@@@Z
	DD	2 DUP(00H)
	DD	2 DUP(00H)
	DD	00H
	DD	01H
xdata$x	ENDS
;	COMDAT xdata$x
xdata$x	SEGMENT
__ehfuncinfo$?GetDataTypeEnvironment@CElementTreeBuilder@@ABE?AVCDataTypeEnvironment@@ABV?$CStringT@DV?$StrTraitMFC_DLL@DV?$ChTraitsCRT@D@ATL@@@@@ATL@@@Z DD 019930522H
	DD	01eH
	DD	FLAT:__unwindtable$?GetDataTypeEnvironment@CElementTreeBuilder@@ABE?AVCDataTypeEnvironment@@ABV?$CStringT@DV?$StrTraitMFC_DLL@DV?$ChTraitsCRT@D@ATL@@@@@ATL@@@Z
	DD	2 DUP(00H)
	DD	2 DUP(00H)
	DD	00H
	DD	01H
__unwindtable$?GetDataTypeEnvironment@CElementTreeBuilder@@ABE?AVCDataTypeEnvironment@@ABV?$CStringT@DV?$StrTraitMFC_DLL@DV?$ChTraitsCRT@D@ATL@@@@@ATL@@@Z DD 0ffffffffH
	DD	FLAT:__unwindfunclet$?GetDataTypeEnvironment@CElementTreeBuilder@@ABE?AVCDataTypeEnvironment@@ABV?$CStringT@DV?$StrTraitMFC_DLL@DV?$ChTraitsCRT@D@ATL@@@@@ATL@@@Z$0
	DD	00H
	DD	FLAT:__unwindfunclet$?GetDataTypeEnvironment@CElementTreeBuilder@@ABE?AVCDataTypeEnvironment@@ABV?$CStringT@DV?$StrTraitMFC_DLL@DV?$ChTraitsCRT@D@ATL@@@@@ATL@@@Z$1
	DD	01H
	DD	FLAT:__unwindfunclet$?GetDataTypeEnvironment@CElementTreeBuilder@@ABE?AVCDataTypeEnvironment@@ABV?$CStringT@DV?$StrTraitMFC_DLL@DV?$ChTraitsCRT@D@ATL@@@@@ATL@@@Z$13
	DD	01H
	DD	FLAT:__unwindfunclet$?GetDataTypeEnvironment@CElementTreeBuilder@@ABE?AVCDataTypeEnvironment@@ABV?$CStringT@DV?$StrTraitMFC_DLL@DV?$ChTraitsCRT@D@ATL@@@@@ATL@@@Z$2
	DD	00H
	DD	FLAT:__unwindfunclet$?GetDataTypeEnvironment@CElementTreeBuilder@@ABE?AVCDataTypeEnvironment@@ABV?$CStringT@DV?$StrTraitMFC_DLL@DV?$ChTraitsCRT@D@ATL@@@@@ATL@@@Z$2
	DD	0ffffffffH
	DD	FLAT:__unwindfunclet$?GetDataTypeEnvironment@CElementTreeBuilder@@ABE?AVCDataTypeEnvironment@@ABV?$CStringT@DV?$StrTraitMFC_DLL@DV?$ChTraitsCRT@D@ATL@@@@@ATL@@@Z$2
	DD	05H
	DD	FLAT:__unwindfunclet$?GetDataTypeEnvironment@CElementTreeBuilder@@ABE?AVCDataTypeEnvironment@@ABV?$CStringT@DV?$StrTraitMFC_DLL@DV?$ChTraitsCRT@D@ATL@@@@@ATL@@@Z$16
	DD	06H
	DD	FLAT:__unwindfunclet$?GetDataTypeEnvironment@CElementTreeBuilder@@ABE?AVCDataTypeEnvironment@@ABV?$CStringT@DV?$StrTraitMFC_DLL@DV?$ChTraitsCRT@D@ATL@@@@@ATL@@@Z$17
	DD	07H
	DD	FLAT:__unwindfunclet$?GetDataTypeEnvironment@CElementTreeBuilder@@ABE?AVCDataTypeEnvironment@@ABV?$CStringT@DV?$StrTraitMFC_DLL@DV?$ChTraitsCRT@D@ATL@@@@@ATL@@@Z$19
	DD	05H
	DD	FLAT:__unwindfunclet$?GetDataTypeEnvironment@CElementTreeBuilder@@ABE?AVCDataTypeEnvironment@@ABV?$CStringT@DV?$StrTraitMFC_DLL@DV?$ChTraitsCRT@D@ATL@@@@@ATL@@@Z$22
	DD	09H
	DD	FLAT:__unwindfunclet$?GetDataTypeEnvironment@CElementTreeBuilder@@ABE?AVCDataTypeEnvironment@@ABV?$CStringT@DV?$StrTraitMFC_DLL@DV?$ChTraitsCRT@D@ATL@@@@@ATL@@@Z$23
	DD	0aH
	DD	FLAT:__unwindfunclet$?GetDataTypeEnvironment@CElementTreeBuilder@@ABE?AVCDataTypeEnvironment@@ABV?$CStringT@DV?$StrTraitMFC_DLL@DV?$ChTraitsCRT@D@ATL@@@@@ATL@@@Z$25
	DD	05H
	DD	FLAT:__unwindfunclet$?GetDataTypeEnvironment@CElementTreeBuilder@@ABE?AVCDataTypeEnvironment@@ABV?$CStringT@DV?$StrTraitMFC_DLL@DV?$ChTraitsCRT@D@ATL@@@@@ATL@@@Z$3
	DD	0cH
	DD	FLAT:__unwindfunclet$?GetDataTypeEnvironment@CElementTreeBuilder@@ABE?AVCDataTypeEnvironment@@ABV?$CStringT@DV?$StrTraitMFC_DLL@DV?$ChTraitsCRT@D@ATL@@@@@ATL@@@Z$4
	DD	0dH
	DD	FLAT:__unwindfunclet$?GetDataTypeEnvironment@CElementTreeBuilder@@ABE?AVCDataTypeEnvironment@@ABV?$CStringT@DV?$StrTraitMFC_DLL@DV?$ChTraitsCRT@D@ATL@@@@@ATL@@@Z$28
	DD	0dH
	DD	FLAT:__unwindfunclet$?GetDataTypeEnvironment@CElementTreeBuilder@@ABE?AVCDataTypeEnvironment@@ABV?$CStringT@DV?$StrTraitMFC_DLL@DV?$ChTraitsCRT@D@ATL@@@@@ATL@@@Z$5
	DD	0cH
	DD	FLAT:__unwindfunclet$?GetDataTypeEnvironment@CElementTreeBuilder@@ABE?AVCDataTypeEnvironment@@ABV?$CStringT@DV?$StrTraitMFC_DLL@DV?$ChTraitsCRT@D@ATL@@@@@ATL@@@Z$5
	DD	05H
	DD	FLAT:__unwindfunclet$?GetDataTypeEnvironment@CElementTreeBuilder@@ABE?AVCDataTypeEnvironment@@ABV?$CStringT@DV?$StrTraitMFC_DLL@DV?$ChTraitsCRT@D@ATL@@@@@ATL@@@Z$5
	DD	011H
	DD	FLAT:__unwindfunclet$?GetDataTypeEnvironment@CElementTreeBuilder@@ABE?AVCDataTypeEnvironment@@ABV?$CStringT@DV?$StrTraitMFC_DLL@DV?$ChTraitsCRT@D@ATL@@@@@ATL@@@Z$6
	DD	012H
	DD	FLAT:__unwindfunclet$?GetDataTypeEnvironment@CElementTreeBuilder@@ABE?AVCDataTypeEnvironment@@ABV?$CStringT@DV?$StrTraitMFC_DLL@DV?$ChTraitsCRT@D@ATL@@@@@ATL@@@Z$7
	DD	013H
	DD	FLAT:__unwindfunclet$?GetDataTypeEnvironment@CElementTreeBuilder@@ABE?AVCDataTypeEnvironment@@ABV?$CStringT@DV?$StrTraitMFC_DLL@DV?$ChTraitsCRT@D@ATL@@@@@ATL@@@Z$31
	DD	013H
	DD	FLAT:__unwindfunclet$?GetDataTypeEnvironment@CElementTreeBuilder@@ABE?AVCDataTypeEnvironment@@ABV?$CStringT@DV?$StrTraitMFC_DLL@DV?$ChTraitsCRT@D@ATL@@@@@ATL@@@Z$8
	DD	012H
	DD	FLAT:__unwindfunclet$?GetDataTypeEnvironment@CElementTreeBuilder@@ABE?AVCDataTypeEnvironment@@ABV?$CStringT@DV?$StrTraitMFC_DLL@DV?$ChTraitsCRT@D@ATL@@@@@ATL@@@Z$8
	DD	011H
	DD	FLAT:__unwindfunclet$?GetDataTypeEnvironment@CElementTreeBuilder@@ABE?AVCDataTypeEnvironment@@ABV?$CStringT@DV?$StrTraitMFC_DLL@DV?$ChTraitsCRT@D@ATL@@@@@ATL@@@Z$8
	DD	017H
	DD	FLAT:__unwindfunclet$?GetDataTypeEnvironment@CElementTreeBuilder@@ABE?AVCDataTypeEnvironment@@ABV?$CStringT@DV?$StrTraitMFC_DLL@DV?$ChTraitsCRT@D@ATL@@@@@ATL@@@Z$9
	DD	018H
	DD	FLAT:__unwindfunclet$?GetDataTypeEnvironment@CElementTreeBuilder@@ABE?AVCDataTypeEnvironment@@ABV?$CStringT@DV?$StrTraitMFC_DLL@DV?$ChTraitsCRT@D@ATL@@@@@ATL@@@Z$10
	DD	019H
	DD	FLAT:__unwindfunclet$?GetDataTypeEnvironment@CElementTreeBuilder@@ABE?AVCDataTypeEnvironment@@ABV?$CStringT@DV?$StrTraitMFC_DLL@DV?$ChTraitsCRT@D@ATL@@@@@ATL@@@Z$34
	DD	019H
	DD	FLAT:__unwindfunclet$?GetDataTypeEnvironment@CElementTreeBuilder@@ABE?AVCDataTypeEnvironment@@ABV?$CStringT@DV?$StrTraitMFC_DLL@DV?$ChTraitsCRT@D@ATL@@@@@ATL@@@Z$11
	DD	018H
	DD	FLAT:__unwindfunclet$?GetDataTypeEnvironment@CElementTreeBuilder@@ABE?AVCDataTypeEnvironment@@ABV?$CStringT@DV?$StrTraitMFC_DLL@DV?$ChTraitsCRT@D@ATL@@@@@ATL@@@Z$11
	DD	017H
	DD	FLAT:__unwindfunclet$?GetDataTypeEnvironment@CElementTreeBuilder@@ABE?AVCDataTypeEnvironment@@ABV?$CStringT@DV?$StrTraitMFC_DLL@DV?$ChTraitsCRT@D@ATL@@@@@ATL@@@Z$11
xdata$x	ENDS
;	COMDAT xdata$x
xdata$x	SEGMENT
__unwindtable$?GetStyle@CElementTreeBuilder@@ABE?AW4PenStyle@CToolEnumData@@ABV?$CStringT@DV?$StrTraitMFC_DLL@DV?$ChTraitsCRT@D@ATL@@@@@ATL@@@Z DD 0ffffffffH
	DD	FLAT:__unwindfunclet$?GetStyle@CElementTreeBuilder@@ABE?AW4PenStyle@CToolEnumData@@ABV?$CStringT@DV?$StrTraitMFC_DLL@DV?$ChTraitsCRT@D@ATL@@@@@ATL@@@Z$0
	DD	00H
	DD	FLAT:__unwindfunclet$?GetStyle@CElementTreeBuilder@@ABE?AW4PenStyle@CToolEnumData@@ABV?$CStringT@DV?$StrTraitMFC_DLL@DV?$ChTraitsCRT@D@ATL@@@@@ATL@@@Z$1
	DD	01H
	DD	FLAT:__unwindfunclet$?GetStyle@CElementTreeBuilder@@ABE?AW4PenStyle@CToolEnumData@@ABV?$CStringT@DV?$StrTraitMFC_DLL@DV?$ChTraitsCRT@D@ATL@@@@@ATL@@@Z$3
__ehfuncinfo$?GetStyle@CElementTreeBuilder@@ABE?AW4PenStyle@CToolEnumData@@ABV?$CStringT@DV?$StrTraitMFC_DLL@DV?$ChTraitsCRT@D@ATL@@@@@ATL@@@Z DD 019930522H
	DD	03H
	DD	FLAT:__unwindtable$?GetStyle@CElementTreeBuilder@@ABE?AW4PenStyle@CToolEnumData@@ABV?$CStringT@DV?$StrTraitMFC_DLL@DV?$ChTraitsCRT@D@ATL@@@@@ATL@@@Z
	DD	2 DUP(00H)
	DD	2 DUP(00H)
	DD	00H
	DD	01H
xdata$x	ENDS
;	COMDAT xdata$x
xdata$x	SEGMENT
__unwindtable$?GetWidth@CElementTreeBuilder@@ABEHABV?$CStringT@DV?$StrTraitMFC_DLL@DV?$ChTraitsCRT@D@ATL@@@@@ATL@@@Z DD 0ffffffffH
	DD	FLAT:__unwindfunclet$?GetWidth@CElementTreeBuilder@@ABEHABV?$CStringT@DV?$StrTraitMFC_DLL@DV?$ChTraitsCRT@D@ATL@@@@@ATL@@@Z$0
	DD	00H
	DD	FLAT:__unwindfunclet$?GetWidth@CElementTreeBuilder@@ABEHABV?$CStringT@DV?$StrTraitMFC_DLL@DV?$ChTraitsCRT@D@ATL@@@@@ATL@@@Z$1
	DD	01H
	DD	FLAT:__unwindfunclet$?GetWidth@CElementTreeBuilder@@ABEHABV?$CStringT@DV?$StrTraitMFC_DLL@DV?$ChTraitsCRT@D@ATL@@@@@ATL@@@Z$3
__ehfuncinfo$?GetWidth@CElementTreeBuilder@@ABEHABV?$CStringT@DV?$StrTraitMFC_DLL@DV?$ChTraitsCRT@D@ATL@@@@@ATL@@@Z DD 019930522H
	DD	03H
	DD	FLAT:__unwindtable$?GetWidth@CElementTreeBuilder@@ABEHABV?$CStringT@DV?$StrTraitMFC_DLL@DV?$ChTraitsCRT@D@ATL@@@@@ATL@@@Z
	DD	2 DUP(00H)
	DD	2 DUP(00H)
	DD	00H
	DD	01H
xdata$x	ENDS
;	COMDAT xdata$x
xdata$x	SEGMENT
__unwindtable$?GetColor@CElementTreeBuilder@@ABEKABV?$CStringT@DV?$StrTraitMFC_DLL@DV?$ChTraitsCRT@D@ATL@@@@@ATL@@@Z DD 0ffffffffH
	DD	FLAT:__unwindfunclet$?GetColor@CElementTreeBuilder@@ABEKABV?$CStringT@DV?$StrTraitMFC_DLL@DV?$ChTraitsCRT@D@ATL@@@@@ATL@@@Z$0
	DD	00H
	DD	FLAT:__unwindfunclet$?GetColor@CElementTreeBuilder@@ABEKABV?$CStringT@DV?$StrTraitMFC_DLL@DV?$ChTraitsCRT@D@ATL@@@@@ATL@@@Z$1
	DD	01H
	DD	FLAT:__unwindfunclet$?GetColor@CElementTreeBuilder@@ABEKABV?$CStringT@DV?$StrTraitMFC_DLL@DV?$ChTraitsCRT@D@ATL@@@@@ATL@@@Z$3
	DD	01H
	DD	FLAT:__unwindfunclet$?GetColor@CElementTreeBuilder@@ABEKABV?$CStringT@DV?$StrTraitMFC_DLL@DV?$ChTraitsCRT@D@ATL@@@@@ATL@@@Z$2
__ehfuncinfo$?GetColor@CElementTreeBuilder@@ABEKABV?$CStringT@DV?$StrTraitMFC_DLL@DV?$ChTraitsCRT@D@ATL@@@@@ATL@@@Z DD 019930522H
	DD	04H
	DD	FLAT:__unwindtable$?GetColor@CElementTreeBuilder@@ABEKABV?$CStringT@DV?$StrTraitMFC_DLL@DV?$ChTraitsCRT@D@ATL@@@@@ATL@@@Z
	DD	2 DUP(00H)
	DD	2 DUP(00H)
	DD	00H
	DD	01H
xdata$x	ENDS
;	COMDAT xdata$x
xdata$x	SEGMENT
__ehfuncinfo$?GetPenEnvironment@CElementTreeBuilder@@ABE?AVCPenEnvironment@@ABV?$CStringT@DV?$StrTraitMFC_DLL@DV?$ChTraitsCRT@D@ATL@@@@@ATL@@@Z DD 019930522H
	DD	0cH
	DD	FLAT:__unwindtable$?GetPenEnvironment@CElementTreeBuilder@@ABE?AVCPenEnvironment@@ABV?$CStringT@DV?$StrTraitMFC_DLL@DV?$ChTraitsCRT@D@ATL@@@@@ATL@@@Z
	DD	2 DUP(00H)
	DD	2 DUP(00H)
	DD	00H
	DD	01H
__unwindtable$?GetPenEnvironment@CElementTreeBuilder@@ABE?AVCPenEnvironment@@ABV?$CStringT@DV?$StrTraitMFC_DLL@DV?$ChTraitsCRT@D@ATL@@@@@ATL@@@Z DD 0ffffffffH
	DD	FLAT:__unwindfunclet$?GetPenEnvironment@CElementTreeBuilder@@ABE?AVCPenEnvironment@@ABV?$CStringT@DV?$StrTraitMFC_DLL@DV?$ChTraitsCRT@D@ATL@@@@@ATL@@@Z$0
	DD	00H
	DD	FLAT:__unwindfunclet$?GetPenEnvironment@CElementTreeBuilder@@ABE?AVCPenEnvironment@@ABV?$CStringT@DV?$StrTraitMFC_DLL@DV?$ChTraitsCRT@D@ATL@@@@@ATL@@@Z$1
	DD	01H
	DD	FLAT:__unwindfunclet$?GetPenEnvironment@CElementTreeBuilder@@ABE?AVCPenEnvironment@@ABV?$CStringT@DV?$StrTraitMFC_DLL@DV?$ChTraitsCRT@D@ATL@@@@@ATL@@@Z$3
	DD	01H
	DD	FLAT:__unwindfunclet$?GetPenEnvironment@CElementTreeBuilder@@ABE?AVCPenEnvironment@@ABV?$CStringT@DV?$StrTraitMFC_DLL@DV?$ChTraitsCRT@D@ATL@@@@@ATL@@@Z$2
	DD	00H
	DD	FLAT:__unwindfunclet$?GetPenEnvironment@CElementTreeBuilder@@ABE?AVCPenEnvironment@@ABV?$CStringT@DV?$StrTraitMFC_DLL@DV?$ChTraitsCRT@D@ATL@@@@@ATL@@@Z$2
	DD	0ffffffffH
	DD	FLAT:__unwindfunclet$?GetPenEnvironment@CElementTreeBuilder@@ABE?AVCPenEnvironment@@ABV?$CStringT@DV?$StrTraitMFC_DLL@DV?$ChTraitsCRT@D@ATL@@@@@ATL@@@Z$2
	DD	05H
	DD	FLAT:__unwindfunclet$?GetPenEnvironment@CElementTreeBuilder@@ABE?AVCPenEnvironment@@ABV?$CStringT@DV?$StrTraitMFC_DLL@DV?$ChTraitsCRT@D@ATL@@@@@ATL@@@Z$6
	DD	06H
	DD	FLAT:__unwindfunclet$?GetPenEnvironment@CElementTreeBuilder@@ABE?AVCPenEnvironment@@ABV?$CStringT@DV?$StrTraitMFC_DLL@DV?$ChTraitsCRT@D@ATL@@@@@ATL@@@Z$7
	DD	07H
	DD	FLAT:__unwindfunclet$?GetPenEnvironment@CElementTreeBuilder@@ABE?AVCPenEnvironment@@ABV?$CStringT@DV?$StrTraitMFC_DLL@DV?$ChTraitsCRT@D@ATL@@@@@ATL@@@Z$9
	DD	05H
	DD	FLAT:__unwindfunclet$?GetPenEnvironment@CElementTreeBuilder@@ABE?AVCPenEnvironment@@ABV?$CStringT@DV?$StrTraitMFC_DLL@DV?$ChTraitsCRT@D@ATL@@@@@ATL@@@Z$12
	DD	09H
	DD	FLAT:__unwindfunclet$?GetPenEnvironment@CElementTreeBuilder@@ABE?AVCPenEnvironment@@ABV?$CStringT@DV?$StrTraitMFC_DLL@DV?$ChTraitsCRT@D@ATL@@@@@ATL@@@Z$13
	DD	0aH
	DD	FLAT:__unwindfunclet$?GetPenEnvironment@CElementTreeBuilder@@ABE?AVCPenEnvironment@@ABV?$CStringT@DV?$StrTraitMFC_DLL@DV?$ChTraitsCRT@D@ATL@@@@@ATL@@@Z$15
xdata$x	ENDS
;	COMDAT xdata$x
xdata$x	SEGMENT
__unwindtable$?GetRightLineExt@CElementTreeBuilder@@ABEHABV?$CStringT@DV?$StrTraitMFC_DLL@DV?$ChTraitsCRT@D@ATL@@@@@ATL@@@Z DD 0ffffffffH
	DD	FLAT:__unwindfunclet$?GetRightLineExt@CElementTreeBuilder@@ABEHABV?$CStringT@DV?$StrTraitMFC_DLL@DV?$ChTraitsCRT@D@ATL@@@@@ATL@@@Z$0
	DD	00H
	DD	FLAT:__unwindfunclet$?GetRightLineExt@CElementTreeBuilder@@ABEHABV?$CStringT@DV?$StrTraitMFC_DLL@DV?$ChTraitsCRT@D@ATL@@@@@ATL@@@Z$1
	DD	01H
	DD	FLAT:__unwindfunclet$?GetRightLineExt@CElementTreeBuilder@@ABEHABV?$CStringT@DV?$StrTraitMFC_DLL@DV?$ChTraitsCRT@D@ATL@@@@@ATL@@@Z$3
__ehfuncinfo$?GetRightLineExt@CElementTreeBuilder@@ABEHABV?$CStringT@DV?$StrTraitMFC_DLL@DV?$ChTraitsCRT@D@ATL@@@@@ATL@@@Z DD 019930522H
	DD	03H
	DD	FLAT:__unwindtable$?GetRightLineExt@CElementTreeBuilder@@ABEHABV?$CStringT@DV?$StrTraitMFC_DLL@DV?$ChTraitsCRT@D@ATL@@@@@ATL@@@Z
	DD	2 DUP(00H)
	DD	2 DUP(00H)
	DD	00H
	DD	01H
xdata$x	ENDS
;	COMDAT xdata$x
xdata$x	SEGMENT
__unwindtable$?GetLeftLineExt@CElementTreeBuilder@@ABEHABV?$CStringT@DV?$StrTraitMFC_DLL@DV?$ChTraitsCRT@D@ATL@@@@@ATL@@@Z DD 0ffffffffH
	DD	FLAT:__unwindfunclet$?GetLeftLineExt@CElementTreeBuilder@@ABEHABV?$CStringT@DV?$StrTraitMFC_DLL@DV?$ChTraitsCRT@D@ATL@@@@@ATL@@@Z$0
	DD	00H
	DD	FLAT:__unwindfunclet$?GetLeftLineExt@CElementTreeBuilder@@ABEHABV?$CStringT@DV?$StrTraitMFC_DLL@DV?$ChTraitsCRT@D@ATL@@@@@ATL@@@Z$1
	DD	01H
	DD	FLAT:__unwindfunclet$?GetLeftLineExt@CElementTreeBuilder@@ABEHABV?$CStringT@DV?$StrTraitMFC_DLL@DV?$ChTraitsCRT@D@ATL@@@@@ATL@@@Z$3
__ehfuncinfo$?GetLeftLineExt@CElementTreeBuilder@@ABEHABV?$CStringT@DV?$StrTraitMFC_DLL@DV?$ChTraitsCRT@D@ATL@@@@@ATL@@@Z DD 019930522H
	DD	03H
	DD	FLAT:__unwindtable$?GetLeftLineExt@CElementTreeBuilder@@ABEHABV?$CStringT@DV?$StrTraitMFC_DLL@DV?$ChTraitsCRT@D@ATL@@@@@ATL@@@Z
	DD	2 DUP(00H)
	DD	2 DUP(00H)
	DD	00H
	DD	01H
xdata$x	ENDS
;	COMDAT xdata$x
xdata$x	SEGMENT
__ehfuncinfo$?GetLineExtEnvironment@CElementTreeBuilder@@ABE?AVCLineExtEnvironment@@ABV?$CStringT@DV?$StrTraitMFC_DLL@DV?$ChTraitsCRT@D@ATL@@@@@ATL@@@Z DD 019930522H
	DD	0cH
	DD	FLAT:__unwindtable$?GetLineExtEnvironment@CElementTreeBuilder@@ABE?AVCLineExtEnvironment@@ABV?$CStringT@DV?$StrTraitMFC_DLL@DV?$ChTraitsCRT@D@ATL@@@@@ATL@@@Z
	DD	2 DUP(00H)
	DD	2 DUP(00H)
	DD	00H
	DD	01H
__unwindtable$?GetLineExtEnvironment@CElementTreeBuilder@@ABE?AVCLineExtEnvironment@@ABV?$CStringT@DV?$StrTraitMFC_DLL@DV?$ChTraitsCRT@D@ATL@@@@@ATL@@@Z DD 0ffffffffH
	DD	FLAT:__unwindfunclet$?GetLineExtEnvironment@CElementTreeBuilder@@ABE?AVCLineExtEnvironment@@ABV?$CStringT@DV?$StrTraitMFC_DLL@DV?$ChTraitsCRT@D@ATL@@@@@ATL@@@Z$0
	DD	00H
	DD	FLAT:__unwindfunclet$?GetLineExtEnvironment@CElementTreeBuilder@@ABE?AVCLineExtEnvironment@@ABV?$CStringT@DV?$StrTraitMFC_DLL@DV?$ChTraitsCRT@D@ATL@@@@@ATL@@@Z$1
	DD	01H
	DD	FLAT:__unwindfunclet$?GetLineExtEnvironment@CElementTreeBuilder@@ABE?AVCLineExtEnvironment@@ABV?$CStringT@DV?$StrTraitMFC_DLL@DV?$ChTraitsCRT@D@ATL@@@@@ATL@@@Z$3
	DD	01H
	DD	FLAT:__unwindfunclet$?GetLineExtEnvironment@CElementTreeBuilder@@ABE?AVCLineExtEnvironment@@ABV?$CStringT@DV?$StrTraitMFC_DLL@DV?$ChTraitsCRT@D@ATL@@@@@ATL@@@Z$2
	DD	00H
	DD	FLAT:__unwindfunclet$?GetLineExtEnvironment@CElementTreeBuilder@@ABE?AVCLineExtEnvironment@@ABV?$CStringT@DV?$StrTraitMFC_DLL@DV?$ChTraitsCRT@D@ATL@@@@@ATL@@@Z$2
	DD	0ffffffffH
	DD	FLAT:__unwindfunclet$?GetLineExtEnvironment@CElementTreeBuilder@@ABE?AVCLineExtEnvironment@@ABV?$CStringT@DV?$StrTraitMFC_DLL@DV?$ChTraitsCRT@D@ATL@@@@@ATL@@@Z$2
	DD	05H
	DD	FLAT:__unwindfunclet$?GetLineExtEnvironment@CElementTreeBuilder@@ABE?AVCLineExtEnvironment@@ABV?$CStringT@DV?$StrTraitMFC_DLL@DV?$ChTraitsCRT@D@ATL@@@@@ATL@@@Z$6
	DD	06H
	DD	FLAT:__unwindfunclet$?GetLineExtEnvironment@CElementTreeBuilder@@ABE?AVCLineExtEnvironment@@ABV?$CStringT@DV?$StrTraitMFC_DLL@DV?$ChTraitsCRT@D@ATL@@@@@ATL@@@Z$7
	DD	07H
	DD	FLAT:__unwindfunclet$?GetLineExtEnvironment@CElementTreeBuilder@@ABE?AVCLineExtEnvironment@@ABV?$CStringT@DV?$StrTraitMFC_DLL@DV?$ChTraitsCRT@D@ATL@@@@@ATL@@@Z$9
	DD	05H
	DD	FLAT:__unwindfunclet$?GetLineExtEnvironment@CElementTreeBuilder@@ABE?AVCLineExtEnvironment@@ABV?$CStringT@DV?$StrTraitMFC_DLL@DV?$ChTraitsCRT@D@ATL@@@@@ATL@@@Z$12
	DD	09H
	DD	FLAT:__unwindfunclet$?GetLineExtEnvironment@CElementTreeBuilder@@ABE?AVCLineExtEnvironment@@ABV?$CStringT@DV?$StrTraitMFC_DLL@DV?$ChTraitsCRT@D@ATL@@@@@ATL@@@Z$13
	DD	0aH
	DD	FLAT:__unwindfunclet$?GetLineExtEnvironment@CElementTreeBuilder@@ABE?AVCLineExtEnvironment@@ABV?$CStringT@DV?$StrTraitMFC_DLL@DV?$ChTraitsCRT@D@ATL@@@@@ATL@@@Z$15
xdata$x	ENDS
;	COMDAT xdata$x
xdata$x	SEGMENT
__unwindtable$?GetPriceRangeDivEnvironment@CElementTreeBuilder@@ABEHABV?$CStringT@DV?$StrTraitMFC_DLL@DV?$ChTraitsCRT@D@ATL@@@@@ATL@@@Z DD 0ffffffffH
	DD	FLAT:__unwindfunclet$?GetPriceRangeDivEnvironment@CElementTreeBuilder@@ABEHABV?$CStringT@DV?$StrTraitMFC_DLL@DV?$ChTraitsCRT@D@ATL@@@@@ATL@@@Z$0
	DD	00H
	DD	FLAT:__unwindfunclet$?GetPriceRangeDivEnvironment@CElementTreeBuilder@@ABEHABV?$CStringT@DV?$StrTraitMFC_DLL@DV?$ChTraitsCRT@D@ATL@@@@@ATL@@@Z$1
	DD	01H
	DD	FLAT:__unwindfunclet$?GetPriceRangeDivEnvironment@CElementTreeBuilder@@ABEHABV?$CStringT@DV?$StrTraitMFC_DLL@DV?$ChTraitsCRT@D@ATL@@@@@ATL@@@Z$3
__ehfuncinfo$?GetPriceRangeDivEnvironment@CElementTreeBuilder@@ABEHABV?$CStringT@DV?$StrTraitMFC_DLL@DV?$ChTraitsCRT@D@ATL@@@@@ATL@@@Z DD 019930522H
	DD	03H
	DD	FLAT:__unwindtable$?GetPriceRangeDivEnvironment@CElementTreeBuilder@@ABEHABV?$CStringT@DV?$StrTraitMFC_DLL@DV?$ChTraitsCRT@D@ATL@@@@@ATL@@@Z
	DD	2 DUP(00H)
	DD	2 DUP(00H)
	DD	00H
	DD	01H
xdata$x	ENDS
;	COMDAT xdata$x
xdata$x	SEGMENT
__unwindtable$?GetEquiDivEnvironment@CElementTreeBuilder@@ABEHABV?$CStringT@DV?$StrTraitMFC_DLL@DV?$ChTraitsCRT@D@ATL@@@@@ATL@@@Z DD 0ffffffffH
	DD	FLAT:__unwindfunclet$?GetEquiDivEnvironment@CElementTreeBuilder@@ABEHABV?$CStringT@DV?$StrTraitMFC_DLL@DV?$ChTraitsCRT@D@ATL@@@@@ATL@@@Z$0
	DD	00H
	DD	FLAT:__unwindfunclet$?GetEquiDivEnvironment@CElementTreeBuilder@@ABEHABV?$CStringT@DV?$StrTraitMFC_DLL@DV?$ChTraitsCRT@D@ATL@@@@@ATL@@@Z$1
	DD	01H
	DD	FLAT:__unwindfunclet$?GetEquiDivEnvironment@CElementTreeBuilder@@ABEHABV?$CStringT@DV?$StrTraitMFC_DLL@DV?$ChTraitsCRT@D@ATL@@@@@ATL@@@Z$3
__ehfuncinfo$?GetEquiDivEnvironment@CElementTreeBuilder@@ABEHABV?$CStringT@DV?$StrTraitMFC_DLL@DV?$ChTraitsCRT@D@ATL@@@@@ATL@@@Z DD 019930522H
	DD	03H
	DD	FLAT:__unwindtable$?GetEquiDivEnvironment@CElementTreeBuilder@@ABEHABV?$CStringT@DV?$StrTraitMFC_DLL@DV?$ChTraitsCRT@D@ATL@@@@@ATL@@@Z
	DD	2 DUP(00H)
	DD	2 DUP(00H)
	DD	00H
	DD	01H
xdata$x	ENDS
;	COMDAT xdata$x
xdata$x	SEGMENT
__unwindtable$?GetAutoPrice@CElementTreeBuilder@@ABE_NABV?$CStringT@DV?$StrTraitMFC_DLL@DV?$ChTraitsCRT@D@ATL@@@@@ATL@@@Z DD 0ffffffffH
	DD	FLAT:__unwindfunclet$?GetAutoPrice@CElementTreeBuilder@@ABE_NABV?$CStringT@DV?$StrTraitMFC_DLL@DV?$ChTraitsCRT@D@ATL@@@@@ATL@@@Z$0
	DD	00H
	DD	FLAT:__unwindfunclet$?GetAutoPrice@CElementTreeBuilder@@ABE_NABV?$CStringT@DV?$StrTraitMFC_DLL@DV?$ChTraitsCRT@D@ATL@@@@@ATL@@@Z$1
	DD	01H
	DD	FLAT:__unwindfunclet$?GetAutoPrice@CElementTreeBuilder@@ABE_NABV?$CStringT@DV?$StrTraitMFC_DLL@DV?$ChTraitsCRT@D@ATL@@@@@ATL@@@Z$3
__ehfuncinfo$?GetAutoPrice@CElementTreeBuilder@@ABE_NABV?$CStringT@DV?$StrTraitMFC_DLL@DV?$ChTraitsCRT@D@ATL@@@@@ATL@@@Z DD 019930522H
	DD	03H
	DD	FLAT:__unwindtable$?GetAutoPrice@CElementTreeBuilder@@ABE_NABV?$CStringT@DV?$StrTraitMFC_DLL@DV?$ChTraitsCRT@D@ATL@@@@@ATL@@@Z
	DD	2 DUP(00H)
	DD	2 DUP(00H)
	DD	00H
	DD	01H
xdata$x	ENDS
;	COMDAT xdata$x
xdata$x	SEGMENT
__ehfuncinfo$?GetEnvironment@CElementTreeBuilder@@ABE?AVCElementCommonEnvironment@@ABV?$CStringT@DV?$StrTraitMFC_DLL@DV?$ChTraitsCRT@D@ATL@@@@@ATL@@@Z DD 019930522H
	DD	010H
	DD	FLAT:__unwindtable$?GetEnvironment@CElementTreeBuilder@@ABE?AVCElementCommonEnvironment@@ABV?$CStringT@DV?$StrTraitMFC_DLL@DV?$ChTraitsCRT@D@ATL@@@@@ATL@@@Z
	DD	2 DUP(00H)
	DD	2 DUP(00H)
	DD	00H
	DD	01H
__unwindtable$?GetEnvironment@CElementTreeBuilder@@ABE?AVCElementCommonEnvironment@@ABV?$CStringT@DV?$StrTraitMFC_DLL@DV?$ChTraitsCRT@D@ATL@@@@@ATL@@@Z DD 0ffffffffH
	DD	FLAT:__unwindfunclet$?GetEnvironment@CElementTreeBuilder@@ABE?AVCElementCommonEnvironment@@ABV?$CStringT@DV?$StrTraitMFC_DLL@DV?$ChTraitsCRT@D@ATL@@@@@ATL@@@Z$0
	DD	00H
	DD	FLAT:__unwindfunclet$?GetEnvironment@CElementTreeBuilder@@ABE?AVCElementCommonEnvironment@@ABV?$CStringT@DV?$StrTraitMFC_DLL@DV?$ChTraitsCRT@D@ATL@@@@@ATL@@@Z$1
	DD	01H
	DD	FLAT:__unwindfunclet$?GetEnvironment@CElementTreeBuilder@@ABE?AVCElementCommonEnvironment@@ABV?$CStringT@DV?$StrTraitMFC_DLL@DV?$ChTraitsCRT@D@ATL@@@@@ATL@@@Z$5
	DD	01H
	DD	FLAT:__unwindfunclet$?GetEnvironment@CElementTreeBuilder@@ABE?AVCElementCommonEnvironment@@ABV?$CStringT@DV?$StrTraitMFC_DLL@DV?$ChTraitsCRT@D@ATL@@@@@ATL@@@Z$2
	DD	00H
	DD	FLAT:__unwindfunclet$?GetEnvironment@CElementTreeBuilder@@ABE?AVCElementCommonEnvironment@@ABV?$CStringT@DV?$StrTraitMFC_DLL@DV?$ChTraitsCRT@D@ATL@@@@@ATL@@@Z$2
	DD	0ffffffffH
	DD	FLAT:__unwindfunclet$?GetEnvironment@CElementTreeBuilder@@ABE?AVCElementCommonEnvironment@@ABV?$CStringT@DV?$StrTraitMFC_DLL@DV?$ChTraitsCRT@D@ATL@@@@@ATL@@@Z$2
	DD	05H
	DD	FLAT:__unwindfunclet$?GetEnvironment@CElementTreeBuilder@@ABE?AVCElementCommonEnvironment@@ABV?$CStringT@DV?$StrTraitMFC_DLL@DV?$ChTraitsCRT@D@ATL@@@@@ATL@@@Z$8
	DD	06H
	DD	FLAT:__unwindfunclet$?GetEnvironment@CElementTreeBuilder@@ABE?AVCElementCommonEnvironment@@ABV?$CStringT@DV?$StrTraitMFC_DLL@DV?$ChTraitsCRT@D@ATL@@@@@ATL@@@Z$9
	DD	07H
	DD	FLAT:__unwindfunclet$?GetEnvironment@CElementTreeBuilder@@ABE?AVCElementCommonEnvironment@@ABV?$CStringT@DV?$StrTraitMFC_DLL@DV?$ChTraitsCRT@D@ATL@@@@@ATL@@@Z$11
	DD	05H
	DD	FLAT:__unwindfunclet$?GetEnvironment@CElementTreeBuilder@@ABE?AVCElementCommonEnvironment@@ABV?$CStringT@DV?$StrTraitMFC_DLL@DV?$ChTraitsCRT@D@ATL@@@@@ATL@@@Z$14
	DD	09H
	DD	FLAT:__unwindfunclet$?GetEnvironment@CElementTreeBuilder@@ABE?AVCElementCommonEnvironment@@ABV?$CStringT@DV?$StrTraitMFC_DLL@DV?$ChTraitsCRT@D@ATL@@@@@ATL@@@Z$15
	DD	0aH
	DD	FLAT:__unwindfunclet$?GetEnvironment@CElementTreeBuilder@@ABE?AVCElementCommonEnvironment@@ABV?$CStringT@DV?$StrTraitMFC_DLL@DV?$ChTraitsCRT@D@ATL@@@@@ATL@@@Z$17
	DD	05H
	DD	FLAT:__unwindfunclet$?GetEnvironment@CElementTreeBuilder@@ABE?AVCElementCommonEnvironment@@ABV?$CStringT@DV?$StrTraitMFC_DLL@DV?$ChTraitsCRT@D@ATL@@@@@ATL@@@Z$20
	DD	0cH
	DD	FLAT:__unwindfunclet$?GetEnvironment@CElementTreeBuilder@@ABE?AVCElementCommonEnvironment@@ABV?$CStringT@DV?$StrTraitMFC_DLL@DV?$ChTraitsCRT@D@ATL@@@@@ATL@@@Z$21
	DD	0dH
	DD	FLAT:__unwindfunclet$?GetEnvironment@CElementTreeBuilder@@ABE?AVCElementCommonEnvironment@@ABV?$CStringT@DV?$StrTraitMFC_DLL@DV?$ChTraitsCRT@D@ATL@@@@@ATL@@@Z$23
	DD	05H
	DD	FLAT:__unwindfunclet$?GetEnvironment@CElementTreeBuilder@@ABE?AVCElementCommonEnvironment@@ABV?$CStringT@DV?$StrTraitMFC_DLL@DV?$ChTraitsCRT@D@ATL@@@@@ATL@@@Z$3
xdata$x	ENDS
;	COMDAT xdata$x
xdata$x	SEGMENT
__ehfuncinfo$?GetTextEnvironment@CElementTreeBuilder@@ABE?AVCTextEnvironment@@ABV?$CStringT@DV?$StrTraitMFC_DLL@DV?$ChTraitsCRT@D@ATL@@@@@ATL@@@Z DD 019930522H
	DD	06H
	DD	FLAT:__unwindtable$?GetTextEnvironment@CElementTreeBuilder@@ABE?AVCTextEnvironment@@ABV?$CStringT@DV?$StrTraitMFC_DLL@DV?$ChTraitsCRT@D@ATL@@@@@ATL@@@Z
	DD	2 DUP(00H)
	DD	2 DUP(00H)
	DD	00H
	DD	01H
__unwindtable$?GetTextEnvironment@CElementTreeBuilder@@ABE?AVCTextEnvironment@@ABV?$CStringT@DV?$StrTraitMFC_DLL@DV?$ChTraitsCRT@D@ATL@@@@@ATL@@@Z DD 0ffffffffH
	DD	FLAT:__unwindfunclet$?GetTextEnvironment@CElementTreeBuilder@@ABE?AVCTextEnvironment@@ABV?$CStringT@DV?$StrTraitMFC_DLL@DV?$ChTraitsCRT@D@ATL@@@@@ATL@@@Z$0
	DD	00H
	DD	FLAT:__unwindfunclet$?GetTextEnvironment@CElementTreeBuilder@@ABE?AVCTextEnvironment@@ABV?$CStringT@DV?$StrTraitMFC_DLL@DV?$ChTraitsCRT@D@ATL@@@@@ATL@@@Z$1
	DD	01H
	DD	FLAT:__unwindfunclet$?GetTextEnvironment@CElementTreeBuilder@@ABE?AVCTextEnvironment@@ABV?$CStringT@DV?$StrTraitMFC_DLL@DV?$ChTraitsCRT@D@ATL@@@@@ATL@@@Z$3
	DD	01H
	DD	FLAT:__unwindfunclet$?GetTextEnvironment@CElementTreeBuilder@@ABE?AVCTextEnvironment@@ABV?$CStringT@DV?$StrTraitMFC_DLL@DV?$ChTraitsCRT@D@ATL@@@@@ATL@@@Z$2
	DD	00H
	DD	FLAT:__unwindfunclet$?GetTextEnvironment@CElementTreeBuilder@@ABE?AVCTextEnvironment@@ABV?$CStringT@DV?$StrTraitMFC_DLL@DV?$ChTraitsCRT@D@ATL@@@@@ATL@@@Z$2
	DD	0ffffffffH
	DD	FLAT:__unwindfunclet$?GetTextEnvironment@CElementTreeBuilder@@ABE?AVCTextEnvironment@@ABV?$CStringT@DV?$StrTraitMFC_DLL@DV?$ChTraitsCRT@D@ATL@@@@@ATL@@@Z$2
xdata$x	ENDS
;	COMDAT xdata$x
xdata$x	SEGMENT
__ehfuncinfo$?GetTextHorzVertPosition@CElementTreeBuilder@@ABE_NABV?$CStringT@DV?$StrTraitMFC_DLL@DV?$ChTraitsCRT@D@ATL@@@@@ATL@@AAVCTextHorzVertPosition@@@Z DD 019930522H
	DD	016H
	DD	FLAT:__unwindtable$?GetTextHorzVertPosition@CElementTreeBuilder@@ABE_NABV?$CStringT@DV?$StrTraitMFC_DLL@DV?$ChTraitsCRT@D@ATL@@@@@ATL@@AAVCTextHorzVertPosition@@@Z
	DD	2 DUP(00H)
	DD	2 DUP(00H)
	DD	00H
	DD	01H
__unwindtable$?GetTextHorzVertPosition@CElementTreeBuilder@@ABE_NABV?$CStringT@DV?$StrTraitMFC_DLL@DV?$ChTraitsCRT@D@ATL@@@@@ATL@@AAVCTextHorzVertPosition@@@Z DD 0ffffffffH
	DD	FLAT:__unwindfunclet$?GetTextHorzVertPosition@CElementTreeBuilder@@ABE_NABV?$CStringT@DV?$StrTraitMFC_DLL@DV?$ChTraitsCRT@D@ATL@@@@@ATL@@AAVCTextHorzVertPosition@@@Z$0
	DD	00H
	DD	FLAT:__unwindfunclet$?GetTextHorzVertPosition@CElementTreeBuilder@@ABE_NABV?$CStringT@DV?$StrTraitMFC_DLL@DV?$ChTraitsCRT@D@ATL@@@@@ATL@@AAVCTextHorzVertPosition@@@Z$1
	DD	01H
	DD	FLAT:__unwindfunclet$?GetTextHorzVertPosition@CElementTreeBuilder@@ABE_NABV?$CStringT@DV?$StrTraitMFC_DLL@DV?$ChTraitsCRT@D@ATL@@@@@ATL@@AAVCTextHorzVertPosition@@@Z$15
	DD	01H
	DD	FLAT:__unwindfunclet$?GetTextHorzVertPosition@CElementTreeBuilder@@ABE_NABV?$CStringT@DV?$StrTraitMFC_DLL@DV?$ChTraitsCRT@D@ATL@@@@@ATL@@AAVCTextHorzVertPosition@@@Z$2
	DD	00H
	DD	FLAT:__unwindfunclet$?GetTextHorzVertPosition@CElementTreeBuilder@@ABE_NABV?$CStringT@DV?$StrTraitMFC_DLL@DV?$ChTraitsCRT@D@ATL@@@@@ATL@@AAVCTextHorzVertPosition@@@Z$2
	DD	0ffffffffH
	DD	FLAT:__unwindfunclet$?GetTextHorzVertPosition@CElementTreeBuilder@@ABE_NABV?$CStringT@DV?$StrTraitMFC_DLL@DV?$ChTraitsCRT@D@ATL@@@@@ATL@@AAVCTextHorzVertPosition@@@Z$2
	DD	05H
	DD	FLAT:__unwindfunclet$?GetTextHorzVertPosition@CElementTreeBuilder@@ABE_NABV?$CStringT@DV?$StrTraitMFC_DLL@DV?$ChTraitsCRT@D@ATL@@@@@ATL@@AAVCTextHorzVertPosition@@@Z$3
	DD	06H
	DD	FLAT:__unwindfunclet$?GetTextHorzVertPosition@CElementTreeBuilder@@ABE_NABV?$CStringT@DV?$StrTraitMFC_DLL@DV?$ChTraitsCRT@D@ATL@@@@@ATL@@AAVCTextHorzVertPosition@@@Z$4
	DD	07H
	DD	FLAT:__unwindfunclet$?GetTextHorzVertPosition@CElementTreeBuilder@@ABE_NABV?$CStringT@DV?$StrTraitMFC_DLL@DV?$ChTraitsCRT@D@ATL@@@@@ATL@@AAVCTextHorzVertPosition@@@Z$18
	DD	07H
	DD	FLAT:__unwindfunclet$?GetTextHorzVertPosition@CElementTreeBuilder@@ABE_NABV?$CStringT@DV?$StrTraitMFC_DLL@DV?$ChTraitsCRT@D@ATL@@@@@ATL@@AAVCTextHorzVertPosition@@@Z$5
	DD	05H
	DD	FLAT:__unwindfunclet$?GetTextHorzVertPosition@CElementTreeBuilder@@ABE_NABV?$CStringT@DV?$StrTraitMFC_DLL@DV?$ChTraitsCRT@D@ATL@@@@@ATL@@AAVCTextHorzVertPosition@@@Z$6
	DD	0aH
	DD	FLAT:__unwindfunclet$?GetTextHorzVertPosition@CElementTreeBuilder@@ABE_NABV?$CStringT@DV?$StrTraitMFC_DLL@DV?$ChTraitsCRT@D@ATL@@@@@ATL@@AAVCTextHorzVertPosition@@@Z$7
	DD	0bH
	DD	FLAT:__unwindfunclet$?GetTextHorzVertPosition@CElementTreeBuilder@@ABE_NABV?$CStringT@DV?$StrTraitMFC_DLL@DV?$ChTraitsCRT@D@ATL@@@@@ATL@@AAVCTextHorzVertPosition@@@Z$21
	DD	0bH
	DD	FLAT:__unwindfunclet$?GetTextHorzVertPosition@CElementTreeBuilder@@ABE_NABV?$CStringT@DV?$StrTraitMFC_DLL@DV?$ChTraitsCRT@D@ATL@@@@@ATL@@AAVCTextHorzVertPosition@@@Z$8
	DD	05H
	DD	FLAT:__unwindfunclet$?GetTextHorzVertPosition@CElementTreeBuilder@@ABE_NABV?$CStringT@DV?$StrTraitMFC_DLL@DV?$ChTraitsCRT@D@ATL@@@@@ATL@@AAVCTextHorzVertPosition@@@Z$9
	DD	0eH
	DD	FLAT:__unwindfunclet$?GetTextHorzVertPosition@CElementTreeBuilder@@ABE_NABV?$CStringT@DV?$StrTraitMFC_DLL@DV?$ChTraitsCRT@D@ATL@@@@@ATL@@AAVCTextHorzVertPosition@@@Z$10
	DD	0fH
	DD	FLAT:__unwindfunclet$?GetTextHorzVertPosition@CElementTreeBuilder@@ABE_NABV?$CStringT@DV?$StrTraitMFC_DLL@DV?$ChTraitsCRT@D@ATL@@@@@ATL@@AAVCTextHorzVertPosition@@@Z$24
	DD	0fH
	DD	FLAT:__unwindfunclet$?GetTextHorzVertPosition@CElementTreeBuilder@@ABE_NABV?$CStringT@DV?$StrTraitMFC_DLL@DV?$ChTraitsCRT@D@ATL@@@@@ATL@@AAVCTextHorzVertPosition@@@Z$11
	DD	05H
	DD	FLAT:__unwindfunclet$?GetTextHorzVertPosition@CElementTreeBuilder@@ABE_NABV?$CStringT@DV?$StrTraitMFC_DLL@DV?$ChTraitsCRT@D@ATL@@@@@ATL@@AAVCTextHorzVertPosition@@@Z$12
	DD	012H
	DD	FLAT:__unwindfunclet$?GetTextHorzVertPosition@CElementTreeBuilder@@ABE_NABV?$CStringT@DV?$StrTraitMFC_DLL@DV?$ChTraitsCRT@D@ATL@@@@@ATL@@AAVCTextHorzVertPosition@@@Z$13
	DD	013H
	DD	FLAT:__unwindfunclet$?GetTextHorzVertPosition@CElementTreeBuilder@@ABE_NABV?$CStringT@DV?$StrTraitMFC_DLL@DV?$ChTraitsCRT@D@ATL@@@@@ATL@@AAVCTextHorzVertPosition@@@Z$27
	DD	013H
	DD	FLAT:__unwindfunclet$?GetTextHorzVertPosition@CElementTreeBuilder@@ABE_NABV?$CStringT@DV?$StrTraitMFC_DLL@DV?$ChTraitsCRT@D@ATL@@@@@ATL@@AAVCTextHorzVertPosition@@@Z$14
xdata$x	ENDS
;	COMDAT xdata$x
xdata$x	SEGMENT
__ehfuncinfo$?GetTextVertPosition@CElementTreeBuilder@@ABE_NABV?$CStringT@DV?$StrTraitMFC_DLL@DV?$ChTraitsCRT@D@ATL@@@@@ATL@@AAVCTextVertPosition@@@Z DD 019930522H
	DD	0eH
	DD	FLAT:__unwindtable$?GetTextVertPosition@CElementTreeBuilder@@ABE_NABV?$CStringT@DV?$StrTraitMFC_DLL@DV?$ChTraitsCRT@D@ATL@@@@@ATL@@AAVCTextVertPosition@@@Z
	DD	2 DUP(00H)
	DD	2 DUP(00H)
	DD	00H
	DD	01H
__unwindtable$?GetTextVertPosition@CElementTreeBuilder@@ABE_NABV?$CStringT@DV?$StrTraitMFC_DLL@DV?$ChTraitsCRT@D@ATL@@@@@ATL@@AAVCTextVertPosition@@@Z DD 0ffffffffH
	DD	FLAT:__unwindfunclet$?GetTextVertPosition@CElementTreeBuilder@@ABE_NABV?$CStringT@DV?$StrTraitMFC_DLL@DV?$ChTraitsCRT@D@ATL@@@@@ATL@@AAVCTextVertPosition@@@Z$0
	DD	00H
	DD	FLAT:__unwindfunclet$?GetTextVertPosition@CElementTreeBuilder@@ABE_NABV?$CStringT@DV?$StrTraitMFC_DLL@DV?$ChTraitsCRT@D@ATL@@@@@ATL@@AAVCTextVertPosition@@@Z$1
	DD	01H
	DD	FLAT:__unwindfunclet$?GetTextVertPosition@CElementTreeBuilder@@ABE_NABV?$CStringT@DV?$StrTraitMFC_DLL@DV?$ChTraitsCRT@D@ATL@@@@@ATL@@AAVCTextVertPosition@@@Z$9
	DD	01H
	DD	FLAT:__unwindfunclet$?GetTextVertPosition@CElementTreeBuilder@@ABE_NABV?$CStringT@DV?$StrTraitMFC_DLL@DV?$ChTraitsCRT@D@ATL@@@@@ATL@@AAVCTextVertPosition@@@Z$2
	DD	00H
	DD	FLAT:__unwindfunclet$?GetTextVertPosition@CElementTreeBuilder@@ABE_NABV?$CStringT@DV?$StrTraitMFC_DLL@DV?$ChTraitsCRT@D@ATL@@@@@ATL@@AAVCTextVertPosition@@@Z$2
	DD	0ffffffffH
	DD	FLAT:__unwindfunclet$?GetTextVertPosition@CElementTreeBuilder@@ABE_NABV?$CStringT@DV?$StrTraitMFC_DLL@DV?$ChTraitsCRT@D@ATL@@@@@ATL@@AAVCTextVertPosition@@@Z$2
	DD	05H
	DD	FLAT:__unwindfunclet$?GetTextVertPosition@CElementTreeBuilder@@ABE_NABV?$CStringT@DV?$StrTraitMFC_DLL@DV?$ChTraitsCRT@D@ATL@@@@@ATL@@AAVCTextVertPosition@@@Z$3
	DD	06H
	DD	FLAT:__unwindfunclet$?GetTextVertPosition@CElementTreeBuilder@@ABE_NABV?$CStringT@DV?$StrTraitMFC_DLL@DV?$ChTraitsCRT@D@ATL@@@@@ATL@@AAVCTextVertPosition@@@Z$4
	DD	07H
	DD	FLAT:__unwindfunclet$?GetTextVertPosition@CElementTreeBuilder@@ABE_NABV?$CStringT@DV?$StrTraitMFC_DLL@DV?$ChTraitsCRT@D@ATL@@@@@ATL@@AAVCTextVertPosition@@@Z$12
	DD	07H
	DD	FLAT:__unwindfunclet$?GetTextVertPosition@CElementTreeBuilder@@ABE_NABV?$CStringT@DV?$StrTraitMFC_DLL@DV?$ChTraitsCRT@D@ATL@@@@@ATL@@AAVCTextVertPosition@@@Z$5
	DD	05H
	DD	FLAT:__unwindfunclet$?GetTextVertPosition@CElementTreeBuilder@@ABE_NABV?$CStringT@DV?$StrTraitMFC_DLL@DV?$ChTraitsCRT@D@ATL@@@@@ATL@@AAVCTextVertPosition@@@Z$6
	DD	0aH
	DD	FLAT:__unwindfunclet$?GetTextVertPosition@CElementTreeBuilder@@ABE_NABV?$CStringT@DV?$StrTraitMFC_DLL@DV?$ChTraitsCRT@D@ATL@@@@@ATL@@AAVCTextVertPosition@@@Z$7
	DD	0bH
	DD	FLAT:__unwindfunclet$?GetTextVertPosition@CElementTreeBuilder@@ABE_NABV?$CStringT@DV?$StrTraitMFC_DLL@DV?$ChTraitsCRT@D@ATL@@@@@ATL@@AAVCTextVertPosition@@@Z$15
	DD	0bH
	DD	FLAT:__unwindfunclet$?GetTextVertPosition@CElementTreeBuilder@@ABE_NABV?$CStringT@DV?$StrTraitMFC_DLL@DV?$ChTraitsCRT@D@ATL@@@@@ATL@@AAVCTextVertPosition@@@Z$8
xdata$x	ENDS
;	COMDAT xdata$x
xdata$x	SEGMENT
__ehfuncinfo$?GetTextHorzPosition@CElementTreeBuilder@@ABE_NABV?$CStringT@DV?$StrTraitMFC_DLL@DV?$ChTraitsCRT@D@ATL@@@@@ATL@@AAVCTextHorzPosition@@@Z DD 019930522H
	DD	012H
	DD	FLAT:__unwindtable$?GetTextHorzPosition@CElementTreeBuilder@@ABE_NABV?$CStringT@DV?$StrTraitMFC_DLL@DV?$ChTraitsCRT@D@ATL@@@@@ATL@@AAVCTextHorzPosition@@@Z
	DD	2 DUP(00H)
	DD	2 DUP(00H)
	DD	00H
	DD	01H
__unwindtable$?GetTextHorzPosition@CElementTreeBuilder@@ABE_NABV?$CStringT@DV?$StrTraitMFC_DLL@DV?$ChTraitsCRT@D@ATL@@@@@ATL@@AAVCTextHorzPosition@@@Z DD 0ffffffffH
	DD	FLAT:__unwindfunclet$?GetTextHorzPosition@CElementTreeBuilder@@ABE_NABV?$CStringT@DV?$StrTraitMFC_DLL@DV?$ChTraitsCRT@D@ATL@@@@@ATL@@AAVCTextHorzPosition@@@Z$0
	DD	00H
	DD	FLAT:__unwindfunclet$?GetTextHorzPosition@CElementTreeBuilder@@ABE_NABV?$CStringT@DV?$StrTraitMFC_DLL@DV?$ChTraitsCRT@D@ATL@@@@@ATL@@AAVCTextHorzPosition@@@Z$1
	DD	01H
	DD	FLAT:__unwindfunclet$?GetTextHorzPosition@CElementTreeBuilder@@ABE_NABV?$CStringT@DV?$StrTraitMFC_DLL@DV?$ChTraitsCRT@D@ATL@@@@@ATL@@AAVCTextHorzPosition@@@Z$12
	DD	01H
	DD	FLAT:__unwindfunclet$?GetTextHorzPosition@CElementTreeBuilder@@ABE_NABV?$CStringT@DV?$StrTraitMFC_DLL@DV?$ChTraitsCRT@D@ATL@@@@@ATL@@AAVCTextHorzPosition@@@Z$2
	DD	00H
	DD	FLAT:__unwindfunclet$?GetTextHorzPosition@CElementTreeBuilder@@ABE_NABV?$CStringT@DV?$StrTraitMFC_DLL@DV?$ChTraitsCRT@D@ATL@@@@@ATL@@AAVCTextHorzPosition@@@Z$2
	DD	0ffffffffH
	DD	FLAT:__unwindfunclet$?GetTextHorzPosition@CElementTreeBuilder@@ABE_NABV?$CStringT@DV?$StrTraitMFC_DLL@DV?$ChTraitsCRT@D@ATL@@@@@ATL@@AAVCTextHorzPosition@@@Z$2
	DD	05H
	DD	FLAT:__unwindfunclet$?GetTextHorzPosition@CElementTreeBuilder@@ABE_NABV?$CStringT@DV?$StrTraitMFC_DLL@DV?$ChTraitsCRT@D@ATL@@@@@ATL@@AAVCTextHorzPosition@@@Z$3
	DD	06H
	DD	FLAT:__unwindfunclet$?GetTextHorzPosition@CElementTreeBuilder@@ABE_NABV?$CStringT@DV?$StrTraitMFC_DLL@DV?$ChTraitsCRT@D@ATL@@@@@ATL@@AAVCTextHorzPosition@@@Z$4
	DD	07H
	DD	FLAT:__unwindfunclet$?GetTextHorzPosition@CElementTreeBuilder@@ABE_NABV?$CStringT@DV?$StrTraitMFC_DLL@DV?$ChTraitsCRT@D@ATL@@@@@ATL@@AAVCTextHorzPosition@@@Z$15
	DD	07H
	DD	FLAT:__unwindfunclet$?GetTextHorzPosition@CElementTreeBuilder@@ABE_NABV?$CStringT@DV?$StrTraitMFC_DLL@DV?$ChTraitsCRT@D@ATL@@@@@ATL@@AAVCTextHorzPosition@@@Z$5
	DD	05H
	DD	FLAT:__unwindfunclet$?GetTextHorzPosition@CElementTreeBuilder@@ABE_NABV?$CStringT@DV?$StrTraitMFC_DLL@DV?$ChTraitsCRT@D@ATL@@@@@ATL@@AAVCTextHorzPosition@@@Z$6
	DD	0aH
	DD	FLAT:__unwindfunclet$?GetTextHorzPosition@CElementTreeBuilder@@ABE_NABV?$CStringT@DV?$StrTraitMFC_DLL@DV?$ChTraitsCRT@D@ATL@@@@@ATL@@AAVCTextHorzPosition@@@Z$7
	DD	0bH
	DD	FLAT:__unwindfunclet$?GetTextHorzPosition@CElementTreeBuilder@@ABE_NABV?$CStringT@DV?$StrTraitMFC_DLL@DV?$ChTraitsCRT@D@ATL@@@@@ATL@@AAVCTextHorzPosition@@@Z$18
	DD	0bH
	DD	FLAT:__unwindfunclet$?GetTextHorzPosition@CElementTreeBuilder@@ABE_NABV?$CStringT@DV?$StrTraitMFC_DLL@DV?$ChTraitsCRT@D@ATL@@@@@ATL@@AAVCTextHorzPosition@@@Z$8
	DD	05H
	DD	FLAT:__unwindfunclet$?GetTextHorzPosition@CElementTreeBuilder@@ABE_NABV?$CStringT@DV?$StrTraitMFC_DLL@DV?$ChTraitsCRT@D@ATL@@@@@ATL@@AAVCTextHorzPosition@@@Z$9
	DD	0eH
	DD	FLAT:__unwindfunclet$?GetTextHorzPosition@CElementTreeBuilder@@ABE_NABV?$CStringT@DV?$StrTraitMFC_DLL@DV?$ChTraitsCRT@D@ATL@@@@@ATL@@AAVCTextHorzPosition@@@Z$10
	DD	0fH
	DD	FLAT:__unwindfunclet$?GetTextHorzPosition@CElementTreeBuilder@@ABE_NABV?$CStringT@DV?$StrTraitMFC_DLL@DV?$ChTraitsCRT@D@ATL@@@@@ATL@@AAVCTextHorzPosition@@@Z$21
	DD	0fH
	DD	FLAT:__unwindfunclet$?GetTextHorzPosition@CElementTreeBuilder@@ABE_NABV?$CStringT@DV?$StrTraitMFC_DLL@DV?$ChTraitsCRT@D@ATL@@@@@ATL@@AAVCTextHorzPosition@@@Z$11
xdata$x	ENDS
;	COMDAT xdata$x
xdata$x	SEGMENT
__ehfuncinfo$?GetTextShowPosition@CElementTreeBuilder@@ABE_NABV?$CStringT@DV?$StrTraitMFC_DLL@DV?$ChTraitsCRT@D@ATL@@@@@ATL@@AAVCTextShowPosition@@@Z DD 019930522H
	DD	0cH
	DD	FLAT:__unwindtable$?GetTextShowPosition@CElementTreeBuilder@@ABE_NABV?$CStringT@DV?$StrTraitMFC_DLL@DV?$ChTraitsCRT@D@ATL@@@@@ATL@@AAVCTextShowPosition@@@Z
	DD	2 DUP(00H)
	DD	2 DUP(00H)
	DD	00H
	DD	01H
__unwindtable$?GetTextShowPosition@CElementTreeBuilder@@ABE_NABV?$CStringT@DV?$StrTraitMFC_DLL@DV?$ChTraitsCRT@D@ATL@@@@@ATL@@AAVCTextShowPosition@@@Z DD 0ffffffffH
	DD	FLAT:__unwindfunclet$?GetTextShowPosition@CElementTreeBuilder@@ABE_NABV?$CStringT@DV?$StrTraitMFC_DLL@DV?$ChTraitsCRT@D@ATL@@@@@ATL@@AAVCTextShowPosition@@@Z$0
	DD	00H
	DD	FLAT:__unwindfunclet$?GetTextShowPosition@CElementTreeBuilder@@ABE_NABV?$CStringT@DV?$StrTraitMFC_DLL@DV?$ChTraitsCRT@D@ATL@@@@@ATL@@AAVCTextShowPosition@@@Z$1
	DD	01H
	DD	FLAT:__unwindfunclet$?GetTextShowPosition@CElementTreeBuilder@@ABE_NABV?$CStringT@DV?$StrTraitMFC_DLL@DV?$ChTraitsCRT@D@ATL@@@@@ATL@@AAVCTextShowPosition@@@Z$6
	DD	01H
	DD	FLAT:__unwindfunclet$?GetTextShowPosition@CElementTreeBuilder@@ABE_NABV?$CStringT@DV?$StrTraitMFC_DLL@DV?$ChTraitsCRT@D@ATL@@@@@ATL@@AAVCTextShowPosition@@@Z$2
	DD	00H
	DD	FLAT:__unwindfunclet$?GetTextShowPosition@CElementTreeBuilder@@ABE_NABV?$CStringT@DV?$StrTraitMFC_DLL@DV?$ChTraitsCRT@D@ATL@@@@@ATL@@AAVCTextShowPosition@@@Z$2
	DD	0ffffffffH
	DD	FLAT:__unwindfunclet$?GetTextShowPosition@CElementTreeBuilder@@ABE_NABV?$CStringT@DV?$StrTraitMFC_DLL@DV?$ChTraitsCRT@D@ATL@@@@@ATL@@AAVCTextShowPosition@@@Z$2
	DD	05H
	DD	FLAT:__unwindfunclet$?GetTextShowPosition@CElementTreeBuilder@@ABE_NABV?$CStringT@DV?$StrTraitMFC_DLL@DV?$ChTraitsCRT@D@ATL@@@@@ATL@@AAVCTextShowPosition@@@Z$3
	DD	06H
	DD	FLAT:__unwindfunclet$?GetTextShowPosition@CElementTreeBuilder@@ABE_NABV?$CStringT@DV?$StrTraitMFC_DLL@DV?$ChTraitsCRT@D@ATL@@@@@ATL@@AAVCTextShowPosition@@@Z$4
	DD	07H
	DD	FLAT:__unwindfunclet$?GetTextShowPosition@CElementTreeBuilder@@ABE_NABV?$CStringT@DV?$StrTraitMFC_DLL@DV?$ChTraitsCRT@D@ATL@@@@@ATL@@AAVCTextShowPosition@@@Z$9
	DD	07H
	DD	FLAT:__unwindfunclet$?GetTextShowPosition@CElementTreeBuilder@@ABE_NABV?$CStringT@DV?$StrTraitMFC_DLL@DV?$ChTraitsCRT@D@ATL@@@@@ATL@@AAVCTextShowPosition@@@Z$5
	DD	06H
	DD	FLAT:__unwindfunclet$?GetTextShowPosition@CElementTreeBuilder@@ABE_NABV?$CStringT@DV?$StrTraitMFC_DLL@DV?$ChTraitsCRT@D@ATL@@@@@ATL@@AAVCTextShowPosition@@@Z$5
	DD	05H
	DD	FLAT:__unwindfunclet$?GetTextShowPosition@CElementTreeBuilder@@ABE_NABV?$CStringT@DV?$StrTraitMFC_DLL@DV?$ChTraitsCRT@D@ATL@@@@@ATL@@AAVCTextShowPosition@@@Z$5
xdata$x	ENDS
;	COMDAT xdata$x
xdata$x	SEGMENT
__ehfuncinfo$?GetPoint@CElementTreeBuilder@@ABE?AVCCoordinate@@ABV?$CStringT@DV?$StrTraitMFC_DLL@DV?$ChTraitsCRT@D@ATL@@@@@ATL@@ABH@Z DD 019930522H
	DD	02eH
	DD	FLAT:__unwindtable$?GetPoint@CElementTreeBuilder@@ABE?AVCCoordinate@@ABV?$CStringT@DV?$StrTraitMFC_DLL@DV?$ChTraitsCRT@D@ATL@@@@@ATL@@ABH@Z
	DD	2 DUP(00H)
	DD	2 DUP(00H)
	DD	00H
	DD	01H
__unwindtable$?GetPoint@CElementTreeBuilder@@ABE?AVCCoordinate@@ABV?$CStringT@DV?$StrTraitMFC_DLL@DV?$ChTraitsCRT@D@ATL@@@@@ATL@@ABH@Z DD 0ffffffffH
	DD	FLAT:__unwindfunclet$?GetPoint@CElementTreeBuilder@@ABE?AVCCoordinate@@ABV?$CStringT@DV?$StrTraitMFC_DLL@DV?$ChTraitsCRT@D@ATL@@@@@ATL@@ABH@Z$0
	DD	00H
	DD	FLAT:__unwindfunclet$?GetPoint@CElementTreeBuilder@@ABE?AVCCoordinate@@ABV?$CStringT@DV?$StrTraitMFC_DLL@DV?$ChTraitsCRT@D@ATL@@@@@ATL@@ABH@Z$1
	DD	01H
	DD	FLAT:__unwindfunclet$?GetPoint@CElementTreeBuilder@@ABE?AVCCoordinate@@ABV?$CStringT@DV?$StrTraitMFC_DLL@DV?$ChTraitsCRT@D@ATL@@@@@ATL@@ABH@Z$41
	DD	01H
	DD	FLAT:__unwindfunclet$?GetPoint@CElementTreeBuilder@@ABE?AVCCoordinate@@ABV?$CStringT@DV?$StrTraitMFC_DLL@DV?$ChTraitsCRT@D@ATL@@@@@ATL@@ABH@Z$2
	DD	00H
	DD	FLAT:__unwindfunclet$?GetPoint@CElementTreeBuilder@@ABE?AVCCoordinate@@ABV?$CStringT@DV?$StrTraitMFC_DLL@DV?$ChTraitsCRT@D@ATL@@@@@ATL@@ABH@Z$2
	DD	0ffffffffH
	DD	FLAT:__unwindfunclet$?GetPoint@CElementTreeBuilder@@ABE?AVCCoordinate@@ABV?$CStringT@DV?$StrTraitMFC_DLL@DV?$ChTraitsCRT@D@ATL@@@@@ATL@@ABH@Z$2
	DD	05H
	DD	FLAT:__unwindfunclet$?GetPoint@CElementTreeBuilder@@ABE?AVCCoordinate@@ABV?$CStringT@DV?$StrTraitMFC_DLL@DV?$ChTraitsCRT@D@ATL@@@@@ATL@@ABH@Z$3
	DD	06H
	DD	FLAT:__unwindfunclet$?GetPoint@CElementTreeBuilder@@ABE?AVCCoordinate@@ABV?$CStringT@DV?$StrTraitMFC_DLL@DV?$ChTraitsCRT@D@ATL@@@@@ATL@@ABH@Z$4
	DD	05H
	DD	FLAT:__unwindfunclet$?GetPoint@CElementTreeBuilder@@ABE?AVCCoordinate@@ABV?$CStringT@DV?$StrTraitMFC_DLL@DV?$ChTraitsCRT@D@ATL@@@@@ATL@@ABH@Z$4
	DD	08H
	DD	FLAT:__unwindfunclet$?GetPoint@CElementTreeBuilder@@ABE?AVCCoordinate@@ABV?$CStringT@DV?$StrTraitMFC_DLL@DV?$ChTraitsCRT@D@ATL@@@@@ATL@@ABH@Z$5
	DD	09H
	DD	FLAT:__unwindfunclet$?GetPoint@CElementTreeBuilder@@ABE?AVCCoordinate@@ABV?$CStringT@DV?$StrTraitMFC_DLL@DV?$ChTraitsCRT@D@ATL@@@@@ATL@@ABH@Z$6
	DD	08H
	DD	FLAT:__unwindfunclet$?GetPoint@CElementTreeBuilder@@ABE?AVCCoordinate@@ABV?$CStringT@DV?$StrTraitMFC_DLL@DV?$ChTraitsCRT@D@ATL@@@@@ATL@@ABH@Z$6
	DD	0bH
	DD	FLAT:__unwindfunclet$?GetPoint@CElementTreeBuilder@@ABE?AVCCoordinate@@ABV?$CStringT@DV?$StrTraitMFC_DLL@DV?$ChTraitsCRT@D@ATL@@@@@ATL@@ABH@Z$7
	DD	0cH
	DD	FLAT:__unwindfunclet$?GetPoint@CElementTreeBuilder@@ABE?AVCCoordinate@@ABV?$CStringT@DV?$StrTraitMFC_DLL@DV?$ChTraitsCRT@D@ATL@@@@@ATL@@ABH@Z$8
	DD	0bH
	DD	FLAT:__unwindfunclet$?GetPoint@CElementTreeBuilder@@ABE?AVCCoordinate@@ABV?$CStringT@DV?$StrTraitMFC_DLL@DV?$ChTraitsCRT@D@ATL@@@@@ATL@@ABH@Z$8
	DD	0eH
	DD	FLAT:__unwindfunclet$?GetPoint@CElementTreeBuilder@@ABE?AVCCoordinate@@ABV?$CStringT@DV?$StrTraitMFC_DLL@DV?$ChTraitsCRT@D@ATL@@@@@ATL@@ABH@Z$9
	DD	0fH
	DD	FLAT:__unwindfunclet$?GetPoint@CElementTreeBuilder@@ABE?AVCCoordinate@@ABV?$CStringT@DV?$StrTraitMFC_DLL@DV?$ChTraitsCRT@D@ATL@@@@@ATL@@ABH@Z$10
	DD	010H
	DD	FLAT:__unwindfunclet$?GetPoint@CElementTreeBuilder@@ABE?AVCCoordinate@@ABV?$CStringT@DV?$StrTraitMFC_DLL@DV?$ChTraitsCRT@D@ATL@@@@@ATL@@ABH@Z$11
	DD	011H
	DD	FLAT:__unwindfunclet$?GetPoint@CElementTreeBuilder@@ABE?AVCCoordinate@@ABV?$CStringT@DV?$StrTraitMFC_DLL@DV?$ChTraitsCRT@D@ATL@@@@@ATL@@ABH@Z$12
	DD	012H
	DD	FLAT:__unwindfunclet$?GetPoint@CElementTreeBuilder@@ABE?AVCCoordinate@@ABV?$CStringT@DV?$StrTraitMFC_DLL@DV?$ChTraitsCRT@D@ATL@@@@@ATL@@ABH@Z$13
	DD	013H
	DD	FLAT:__unwindfunclet$?GetPoint@CElementTreeBuilder@@ABE?AVCCoordinate@@ABV?$CStringT@DV?$StrTraitMFC_DLL@DV?$ChTraitsCRT@D@ATL@@@@@ATL@@ABH@Z$14
	DD	014H
	DD	FLAT:__unwindfunclet$?GetPoint@CElementTreeBuilder@@ABE?AVCCoordinate@@ABV?$CStringT@DV?$StrTraitMFC_DLL@DV?$ChTraitsCRT@D@ATL@@@@@ATL@@ABH@Z$49
	DD	014H
	DD	FLAT:__unwindfunclet$?GetPoint@CElementTreeBuilder@@ABE?AVCCoordinate@@ABV?$CStringT@DV?$StrTraitMFC_DLL@DV?$ChTraitsCRT@D@ATL@@@@@ATL@@ABH@Z$50
	DD	014H
	DD	FLAT:__unwindfunclet$?GetPoint@CElementTreeBuilder@@ABE?AVCCoordinate@@ABV?$CStringT@DV?$StrTraitMFC_DLL@DV?$ChTraitsCRT@D@ATL@@@@@ATL@@ABH@Z$17
	DD	017H
	DD	FLAT:__unwindfunclet$?GetPoint@CElementTreeBuilder@@ABE?AVCCoordinate@@ABV?$CStringT@DV?$StrTraitMFC_DLL@DV?$ChTraitsCRT@D@ATL@@@@@ATL@@ABH@Z$18
	DD	018H
	DD	FLAT:__unwindfunclet$?GetPoint@CElementTreeBuilder@@ABE?AVCCoordinate@@ABV?$CStringT@DV?$StrTraitMFC_DLL@DV?$ChTraitsCRT@D@ATL@@@@@ATL@@ABH@Z$19
	DD	018H
	DD	FLAT:__unwindfunclet$?GetPoint@CElementTreeBuilder@@ABE?AVCCoordinate@@ABV?$CStringT@DV?$StrTraitMFC_DLL@DV?$ChTraitsCRT@D@ATL@@@@@ATL@@ABH@Z$20
	DD	018H
	DD	FLAT:__unwindfunclet$?GetPoint@CElementTreeBuilder@@ABE?AVCCoordinate@@ABV?$CStringT@DV?$StrTraitMFC_DLL@DV?$ChTraitsCRT@D@ATL@@@@@ATL@@ABH@Z$21
	DD	018H
	DD	FLAT:__unwindfunclet$?GetPoint@CElementTreeBuilder@@ABE?AVCCoordinate@@ABV?$CStringT@DV?$StrTraitMFC_DLL@DV?$ChTraitsCRT@D@ATL@@@@@ATL@@ABH@Z$22
	DD	018H
	DD	FLAT:__unwindfunclet$?GetPoint@CElementTreeBuilder@@ABE?AVCCoordinate@@ABV?$CStringT@DV?$StrTraitMFC_DLL@DV?$ChTraitsCRT@D@ATL@@@@@ATL@@ABH@Z$23
	DD	01dH
	DD	FLAT:__unwindfunclet$?GetPoint@CElementTreeBuilder@@ABE?AVCCoordinate@@ABV?$CStringT@DV?$StrTraitMFC_DLL@DV?$ChTraitsCRT@D@ATL@@@@@ATL@@ABH@Z$24
	DD	018H
	DD	FLAT:__unwindfunclet$?GetPoint@CElementTreeBuilder@@ABE?AVCCoordinate@@ABV?$CStringT@DV?$StrTraitMFC_DLL@DV?$ChTraitsCRT@D@ATL@@@@@ATL@@ABH@Z$24
	DD	01fH
	DD	FLAT:__unwindfunclet$?GetPoint@CElementTreeBuilder@@ABE?AVCCoordinate@@ABV?$CStringT@DV?$StrTraitMFC_DLL@DV?$ChTraitsCRT@D@ATL@@@@@ATL@@ABH@Z$25
	DD	020H
	DD	FLAT:__unwindfunclet$?GetPoint@CElementTreeBuilder@@ABE?AVCCoordinate@@ABV?$CStringT@DV?$StrTraitMFC_DLL@DV?$ChTraitsCRT@D@ATL@@@@@ATL@@ABH@Z$26
	DD	021H
	DD	FLAT:__unwindfunclet$?GetPoint@CElementTreeBuilder@@ABE?AVCCoordinate@@ABV?$CStringT@DV?$StrTraitMFC_DLL@DV?$ChTraitsCRT@D@ATL@@@@@ATL@@ABH@Z$27
	DD	022H
	DD	FLAT:__unwindfunclet$?GetPoint@CElementTreeBuilder@@ABE?AVCCoordinate@@ABV?$CStringT@DV?$StrTraitMFC_DLL@DV?$ChTraitsCRT@D@ATL@@@@@ATL@@ABH@Z$28
	DD	023H
	DD	FLAT:__unwindfunclet$?GetPoint@CElementTreeBuilder@@ABE?AVCCoordinate@@ABV?$CStringT@DV?$StrTraitMFC_DLL@DV?$ChTraitsCRT@D@ATL@@@@@ATL@@ABH@Z$29
	DD	024H
	DD	FLAT:__unwindfunclet$?GetPoint@CElementTreeBuilder@@ABE?AVCCoordinate@@ABV?$CStringT@DV?$StrTraitMFC_DLL@DV?$ChTraitsCRT@D@ATL@@@@@ATL@@ABH@Z$51
	DD	014H
	DD	FLAT:__unwindfunclet$?GetPoint@CElementTreeBuilder@@ABE?AVCCoordinate@@ABV?$CStringT@DV?$StrTraitMFC_DLL@DV?$ChTraitsCRT@D@ATL@@@@@ATL@@ABH@Z$31
	DD	026H
	DD	FLAT:__unwindfunclet$?GetPoint@CElementTreeBuilder@@ABE?AVCCoordinate@@ABV?$CStringT@DV?$StrTraitMFC_DLL@DV?$ChTraitsCRT@D@ATL@@@@@ATL@@ABH@Z$32
	DD	026H
	DD	FLAT:__unwindfunclet$?GetPoint@CElementTreeBuilder@@ABE?AVCCoordinate@@ABV?$CStringT@DV?$StrTraitMFC_DLL@DV?$ChTraitsCRT@D@ATL@@@@@ATL@@ABH@Z$33
	DD	026H
	DD	FLAT:__unwindfunclet$?GetPoint@CElementTreeBuilder@@ABE?AVCCoordinate@@ABV?$CStringT@DV?$StrTraitMFC_DLL@DV?$ChTraitsCRT@D@ATL@@@@@ATL@@ABH@Z$34
	DD	029H
	DD	FLAT:__unwindfunclet$?GetPoint@CElementTreeBuilder@@ABE?AVCCoordinate@@ABV?$CStringT@DV?$StrTraitMFC_DLL@DV?$ChTraitsCRT@D@ATL@@@@@ATL@@ABH@Z$35
	DD	02aH
	DD	FLAT:__unwindfunclet$?GetPoint@CElementTreeBuilder@@ABE?AVCCoordinate@@ABV?$CStringT@DV?$StrTraitMFC_DLL@DV?$ChTraitsCRT@D@ATL@@@@@ATL@@ABH@Z$36
	DD	02bH
	DD	FLAT:__unwindfunclet$?GetPoint@CElementTreeBuilder@@ABE?AVCCoordinate@@ABV?$CStringT@DV?$StrTraitMFC_DLL@DV?$ChTraitsCRT@D@ATL@@@@@ATL@@ABH@Z$37
	DD	02cH
	DD	FLAT:__unwindfunclet$?GetPoint@CElementTreeBuilder@@ABE?AVCCoordinate@@ABV?$CStringT@DV?$StrTraitMFC_DLL@DV?$ChTraitsCRT@D@ATL@@@@@ATL@@ABH@Z$38
xdata$x	ENDS
;	COMDAT xdata$x
xdata$x	SEGMENT
__ehfuncinfo$?GetPoint@CElementTreeBuilder@@ABEXABV?$CStringT@DV?$StrTraitMFC_DLL@DV?$ChTraitsCRT@D@ATL@@@@@ATL@@ABHAAV?$CDequeList@VCCoordinate@@@@@Z DD 019930522H
	DD	0aH
	DD	FLAT:__unwindtable$?GetPoint@CElementTreeBuilder@@ABEXABV?$CStringT@DV?$StrTraitMFC_DLL@DV?$ChTraitsCRT@D@ATL@@@@@ATL@@ABHAAV?$CDequeList@VCCoordinate@@@@@Z
	DD	2 DUP(00H)
	DD	2 DUP(00H)
	DD	00H
	DD	01H
__unwindtable$?GetPoint@CElementTreeBuilder@@ABEXABV?$CStringT@DV?$StrTraitMFC_DLL@DV?$ChTraitsCRT@D@ATL@@@@@ATL@@ABHAAV?$CDequeList@VCCoordinate@@@@@Z DD 0ffffffffH
	DD	FLAT:__unwindfunclet$?GetPoint@CElementTreeBuilder@@ABEXABV?$CStringT@DV?$StrTraitMFC_DLL@DV?$ChTraitsCRT@D@ATL@@@@@ATL@@ABHAAV?$CDequeList@VCCoordinate@@@@@Z$0
	DD	00H
	DD	FLAT:__unwindfunclet$?GetPoint@CElementTreeBuilder@@ABEXABV?$CStringT@DV?$StrTraitMFC_DLL@DV?$ChTraitsCRT@D@ATL@@@@@ATL@@ABHAAV?$CDequeList@VCCoordinate@@@@@Z$1
	DD	01H
	DD	FLAT:__unwindfunclet$?GetPoint@CElementTreeBuilder@@ABEXABV?$CStringT@DV?$StrTraitMFC_DLL@DV?$ChTraitsCRT@D@ATL@@@@@ATL@@ABHAAV?$CDequeList@VCCoordinate@@@@@Z$6
	DD	01H
	DD	FLAT:__unwindfunclet$?GetPoint@CElementTreeBuilder@@ABEXABV?$CStringT@DV?$StrTraitMFC_DLL@DV?$ChTraitsCRT@D@ATL@@@@@ATL@@ABHAAV?$CDequeList@VCCoordinate@@@@@Z$2
	DD	00H
	DD	FLAT:__unwindfunclet$?GetPoint@CElementTreeBuilder@@ABEXABV?$CStringT@DV?$StrTraitMFC_DLL@DV?$ChTraitsCRT@D@ATL@@@@@ATL@@ABHAAV?$CDequeList@VCCoordinate@@@@@Z$2
	DD	0ffffffffH
	DD	FLAT:__unwindfunclet$?GetPoint@CElementTreeBuilder@@ABEXABV?$CStringT@DV?$StrTraitMFC_DLL@DV?$ChTraitsCRT@D@ATL@@@@@ATL@@ABHAAV?$CDequeList@VCCoordinate@@@@@Z$2
	DD	05H
	DD	FLAT:__unwindfunclet$?GetPoint@CElementTreeBuilder@@ABEXABV?$CStringT@DV?$StrTraitMFC_DLL@DV?$ChTraitsCRT@D@ATL@@@@@ATL@@ABHAAV?$CDequeList@VCCoordinate@@@@@Z$3
	DD	06H
	DD	FLAT:__unwindfunclet$?GetPoint@CElementTreeBuilder@@ABEXABV?$CStringT@DV?$StrTraitMFC_DLL@DV?$ChTraitsCRT@D@ATL@@@@@ATL@@ABHAAV?$CDequeList@VCCoordinate@@@@@Z$4
	DD	05H
	DD	FLAT:__unwindfunclet$?GetPoint@CElementTreeBuilder@@ABEXABV?$CStringT@DV?$StrTraitMFC_DLL@DV?$ChTraitsCRT@D@ATL@@@@@ATL@@ABHAAV?$CDequeList@VCCoordinate@@@@@Z$4
	DD	08H
	DD	FLAT:__unwindfunclet$?GetPoint@CElementTreeBuilder@@ABEXABV?$CStringT@DV?$StrTraitMFC_DLL@DV?$ChTraitsCRT@D@ATL@@@@@ATL@@ABHAAV?$CDequeList@VCCoordinate@@@@@Z$5
xdata$x	ENDS
;	COMDAT xdata$x
xdata$x	SEGMENT
__unwindtable$?GetToolType@CElementTreeBuilder@@ABE?AW4TOOLTYPE@CAnalysis@@ABV?$CStringT@DV?$StrTraitMFC_DLL@DV?$ChTraitsCRT@D@ATL@@@@@ATL@@@Z DD 0ffffffffH
	DD	FLAT:__unwindfunclet$?GetToolType@CElementTreeBuilder@@ABE?AW4TOOLTYPE@CAnalysis@@ABV?$CStringT@DV?$StrTraitMFC_DLL@DV?$ChTraitsCRT@D@ATL@@@@@ATL@@@Z$0
	DD	00H
	DD	FLAT:__unwindfunclet$?GetToolType@CElementTreeBuilder@@ABE?AW4TOOLTYPE@CAnalysis@@ABV?$CStringT@DV?$StrTraitMFC_DLL@DV?$ChTraitsCRT@D@ATL@@@@@ATL@@@Z$1
	DD	01H
	DD	FLAT:__unwindfunclet$?GetToolType@CElementTreeBuilder@@ABE?AW4TOOLTYPE@CAnalysis@@ABV?$CStringT@DV?$StrTraitMFC_DLL@DV?$ChTraitsCRT@D@ATL@@@@@ATL@@@Z$3
__ehfuncinfo$?GetToolType@CElementTreeBuilder@@ABE?AW4TOOLTYPE@CAnalysis@@ABV?$CStringT@DV?$StrTraitMFC_DLL@DV?$ChTraitsCRT@D@ATL@@@@@ATL@@@Z DD 019930522H
	DD	03H
	DD	FLAT:__unwindtable$?GetToolType@CElementTreeBuilder@@ABE?AW4TOOLTYPE@CAnalysis@@ABV?$CStringT@DV?$StrTraitMFC_DLL@DV?$ChTraitsCRT@D@ATL@@@@@ATL@@@Z
	DD	2 DUP(00H)
	DD	2 DUP(00H)
	DD	00H
	DD	01H
xdata$x	ENDS
;	COMDAT xdata$x
xdata$x	SEGMENT
__unwindtable$?GetIndex@CElementTreeBuilder@@ABEHABV?$CStringT@DV?$StrTraitMFC_DLL@DV?$ChTraitsCRT@D@ATL@@@@@ATL@@@Z DD 0ffffffffH
	DD	FLAT:__unwindfunclet$?GetIndex@CElementTreeBuilder@@ABEHABV?$CStringT@DV?$StrTraitMFC_DLL@DV?$ChTraitsCRT@D@ATL@@@@@ATL@@@Z$0
	DD	00H
	DD	FLAT:__unwindfunclet$?GetIndex@CElementTreeBuilder@@ABEHABV?$CStringT@DV?$StrTraitMFC_DLL@DV?$ChTraitsCRT@D@ATL@@@@@ATL@@@Z$1
	DD	01H
	DD	FLAT:__unwindfunclet$?GetIndex@CElementTreeBuilder@@ABEHABV?$CStringT@DV?$StrTraitMFC_DLL@DV?$ChTraitsCRT@D@ATL@@@@@ATL@@@Z$3
__ehfuncinfo$?GetIndex@CElementTreeBuilder@@ABEHABV?$CStringT@DV?$StrTraitMFC_DLL@DV?$ChTraitsCRT@D@ATL@@@@@ATL@@@Z DD 019930522H
	DD	03H
	DD	FLAT:__unwindtable$?GetIndex@CElementTreeBuilder@@ABEHABV?$CStringT@DV?$StrTraitMFC_DLL@DV?$ChTraitsCRT@D@ATL@@@@@ATL@@@Z
	DD	2 DUP(00H)
	DD	2 DUP(00H)
	DD	00H
	DD	01H
xdata$x	ENDS
;	COMDAT xdata$x
xdata$x	SEGMENT
__unwindtable$?GetData@CElementTreeBuilder@@ABE?AV?$CStringT@DV?$StrTraitMFC_DLL@DV?$ChTraitsCRT@D@ATL@@@@@ATL@@ABV23@00@Z DD 0ffffffffH
	DD	FLAT:__unwindfunclet$?GetData@CElementTreeBuilder@@ABE?AV?$CStringT@DV?$StrTraitMFC_DLL@DV?$ChTraitsCRT@D@ATL@@@@@ATL@@ABV23@00@Z$0
__ehfuncinfo$?GetData@CElementTreeBuilder@@ABE?AV?$CStringT@DV?$StrTraitMFC_DLL@DV?$ChTraitsCRT@D@ATL@@@@@ATL@@ABV23@00@Z DD 019930522H
	DD	01H
	DD	FLAT:__unwindtable$?GetData@CElementTreeBuilder@@ABE?AV?$CStringT@DV?$StrTraitMFC_DLL@DV?$ChTraitsCRT@D@ATL@@@@@ATL@@ABV23@00@Z
	DD	2 DUP(00H)
	DD	2 DUP(00H)
	DD	00H
	DD	01H
xdata$x	ENDS
;	COMDAT xdata$x
xdata$x	SEGMENT
__ehfuncinfo$?MakeElement@CElementTreeBuilder@@AAEPAVCElement@@W4TOOLTYPE@CAnalysis@@ABV?$CDequeList@VCCoordinate@@@@PBVCTextPosition@@ABVCElementCommonEnvironment@@@Z DD 019930522H
	DD	06H
	DD	FLAT:__unwindtable$?MakeElement@CElementTreeBuilder@@AAEPAVCElement@@W4TOOLTYPE@CAnalysis@@ABV?$CDequeList@VCCoordinate@@@@PBVCTextPosition@@ABVCElementCommonEnvironment@@@Z
	DD	2 DUP(00H)
	DD	2 DUP(00H)
	DD	00H
	DD	01H
__unwindtable$?MakeElement@CElementTreeBuilder@@AAEPAVCElement@@W4TOOLTYPE@CAnalysis@@ABV?$CDequeList@VCCoordinate@@@@PBVCTextPosition@@ABVCElementCommonEnvironment@@@Z DD 0ffffffffH
	DD	FLAT:__unwindfunclet$?MakeElement@CElementTreeBuilder@@AAEPAVCElement@@W4TOOLTYPE@CAnalysis@@ABV?$CDequeList@VCCoordinate@@@@PBVCTextPosition@@ABVCElementCommonEnvironment@@@Z$0
	DD	0ffffffffH
	DD	FLAT:__unwindfunclet$?MakeElement@CElementTreeBuilder@@AAEPAVCElement@@W4TOOLTYPE@CAnalysis@@ABV?$CDequeList@VCCoordinate@@@@PBVCTextPosition@@ABVCElementCommonEnvironment@@@Z$1
	DD	01H
	DD	FLAT:__unwindfunclet$?MakeElement@CElementTreeBuilder@@AAEPAVCElement@@W4TOOLTYPE@CAnalysis@@ABV?$CDequeList@VCCoordinate@@@@PBVCTextPosition@@ABVCElementCommonEnvironment@@@Z$2
	DD	0ffffffffH
	DD	FLAT:__unwindfunclet$?MakeElement@CElementTreeBuilder@@AAEPAVCElement@@W4TOOLTYPE@CAnalysis@@ABV?$CDequeList@VCCoordinate@@@@PBVCTextPosition@@ABVCElementCommonEnvironment@@@Z$3
	DD	03H
	DD	FLAT:__unwindfunclet$?MakeElement@CElementTreeBuilder@@AAEPAVCElement@@W4TOOLTYPE@CAnalysis@@ABV?$CDequeList@VCCoordinate@@@@PBVCTextPosition@@ABVCElementCommonEnvironment@@@Z$4
	DD	04H
	DD	FLAT:__unwindfunclet$?MakeElement@CElementTreeBuilder@@AAEPAVCElement@@W4TOOLTYPE@CAnalysis@@ABV?$CDequeList@VCCoordinate@@@@PBVCTextPosition@@ABVCElementCommonEnvironment@@@Z$5
xdata$x	ENDS
;	COMDAT xdata$x
xdata$x	SEGMENT
__ehfuncinfo$?MakeElement@CElementTreeBuilder@@AAEPAVCElement@@W4TOOLTYPE@CAnalysis@@ABV?$CDequeList@VCCoordinate@@@@ABV?$CStringT@DV?$StrTraitMFC_DLL@DV?$ChTraitsCRT@D@ATL@@@@@ATL@@ABVCElementCommonEnvironment@@@Z DD 019930522H
	DD	06H
	DD	FLAT:__unwindtable$?MakeElement@CElementTreeBuilder@@AAEPAVCElement@@W4TOOLTYPE@CAnalysis@@ABV?$CDequeList@VCCoordinate@@@@ABV?$CStringT@DV?$StrTraitMFC_DLL@DV?$ChTraitsCRT@D@ATL@@@@@ATL@@ABVCElementCommonEnvironment@@@Z
	DD	2 DUP(00H)
	DD	2 DUP(00H)
	DD	00H
	DD	01H
__unwindtable$?MakeElement@CElementTreeBuilder@@AAEPAVCElement@@W4TOOLTYPE@CAnalysis@@ABV?$CDequeList@VCCoordinate@@@@ABV?$CStringT@DV?$StrTraitMFC_DLL@DV?$ChTraitsCRT@D@ATL@@@@@ATL@@ABVCElementCommonEnvironment@@@Z DD 0ffffffffH
	DD	FLAT:__unwindfunclet$?MakeElement@CElementTreeBuilder@@AAEPAVCElement@@W4TOOLTYPE@CAnalysis@@ABV?$CDequeList@VCCoordinate@@@@ABV?$CStringT@DV?$StrTraitMFC_DLL@DV?$ChTraitsCRT@D@ATL@@@@@ATL@@ABVCElementCommonEnvironment@@@Z$0
	DD	00H
	DD	FLAT:__unwindfunclet$?MakeElement@CElementTreeBuilder@@AAEPAVCElement@@W4TOOLTYPE@CAnalysis@@ABV?$CDequeList@VCCoordinate@@@@ABV?$CStringT@DV?$StrTraitMFC_DLL@DV?$ChTraitsCRT@D@ATL@@@@@ATL@@ABVCElementCommonEnvironment@@@Z$1
	DD	01H
	DD	FLAT:__unwindfunclet$?MakeElement@CElementTreeBuilder@@AAEPAVCElement@@W4TOOLTYPE@CAnalysis@@ABV?$CDequeList@VCCoordinate@@@@ABV?$CStringT@DV?$StrTraitMFC_DLL@DV?$ChTraitsCRT@D@ATL@@@@@ATL@@ABVCElementCommonEnvironment@@@Z$3
	DD	01H
	DD	FLAT:__unwindfunclet$?MakeElement@CElementTreeBuilder@@AAEPAVCElement@@W4TOOLTYPE@CAnalysis@@ABV?$CDequeList@VCCoordinate@@@@ABV?$CStringT@DV?$StrTraitMFC_DLL@DV?$ChTraitsCRT@D@ATL@@@@@ATL@@ABVCElementCommonEnvironment@@@Z$2
	DD	00H
	DD	FLAT:__unwindfunclet$?MakeElement@CElementTreeBuilder@@AAEPAVCElement@@W4TOOLTYPE@CAnalysis@@ABV?$CDequeList@VCCoordinate@@@@ABV?$CStringT@DV?$StrTraitMFC_DLL@DV?$ChTraitsCRT@D@ATL@@@@@ATL@@ABVCElementCommonEnvironment@@@Z$2
	DD	0ffffffffH
	DD	FLAT:__unwindfunclet$?MakeElement@CElementTreeBuilder@@AAEPAVCElement@@W4TOOLTYPE@CAnalysis@@ABV?$CDequeList@VCCoordinate@@@@ABV?$CStringT@DV?$StrTraitMFC_DLL@DV?$ChTraitsCRT@D@ATL@@@@@ATL@@ABVCElementCommonEnvironment@@@Z$2
xdata$x	ENDS
;	COMDAT xdata$x
xdata$x	SEGMENT
__ehfuncinfo$?MakeElement@CElementTreeBuilder@@AAEPAVCElement@@ABV?$CStringT@DV?$StrTraitMFC_DLL@DV?$ChTraitsCRT@D@ATL@@@@@ATL@@ABH@Z DD 019930522H
	DD	09H
	DD	FLAT:__unwindtable$?MakeElement@CElementTreeBuilder@@AAEPAVCElement@@ABV?$CStringT@DV?$StrTraitMFC_DLL@DV?$ChTraitsCRT@D@ATL@@@@@ATL@@ABH@Z
	DD	2 DUP(00H)
	DD	2 DUP(00H)
	DD	00H
	DD	01H
__unwindtable$?MakeElement@CElementTreeBuilder@@AAEPAVCElement@@ABV?$CStringT@DV?$StrTraitMFC_DLL@DV?$ChTraitsCRT@D@ATL@@@@@ATL@@ABH@Z DD 0ffffffffH
	DD	FLAT:__unwindfunclet$?MakeElement@CElementTreeBuilder@@AAEPAVCElement@@ABV?$CStringT@DV?$StrTraitMFC_DLL@DV?$ChTraitsCRT@D@ATL@@@@@ATL@@ABH@Z$0
	DD	00H
	DD	FLAT:__unwindfunclet$?MakeElement@CElementTreeBuilder@@AAEPAVCElement@@ABV?$CStringT@DV?$StrTraitMFC_DLL@DV?$ChTraitsCRT@D@ATL@@@@@ATL@@ABH@Z$1
	DD	01H
	DD	FLAT:__unwindfunclet$?MakeElement@CElementTreeBuilder@@AAEPAVCElement@@ABV?$CStringT@DV?$StrTraitMFC_DLL@DV?$ChTraitsCRT@D@ATL@@@@@ATL@@ABH@Z$2
	DD	02H
	DD	FLAT:__unwindfunclet$?MakeElement@CElementTreeBuilder@@AAEPAVCElement@@ABV?$CStringT@DV?$StrTraitMFC_DLL@DV?$ChTraitsCRT@D@ATL@@@@@ATL@@ABH@Z$4
	DD	03H
	DD	FLAT:__unwindfunclet$?MakeElement@CElementTreeBuilder@@AAEPAVCElement@@ABV?$CStringT@DV?$StrTraitMFC_DLL@DV?$ChTraitsCRT@D@ATL@@@@@ATL@@ABH@Z$5
	DD	04H
	DD	FLAT:__unwindfunclet$?MakeElement@CElementTreeBuilder@@AAEPAVCElement@@ABV?$CStringT@DV?$StrTraitMFC_DLL@DV?$ChTraitsCRT@D@ATL@@@@@ATL@@ABH@Z$7
	DD	04H
	DD	FLAT:__unwindfunclet$?MakeElement@CElementTreeBuilder@@AAEPAVCElement@@ABV?$CStringT@DV?$StrTraitMFC_DLL@DV?$ChTraitsCRT@D@ATL@@@@@ATL@@ABH@Z$6
	DD	03H
	DD	FLAT:__unwindfunclet$?MakeElement@CElementTreeBuilder@@AAEPAVCElement@@ABV?$CStringT@DV?$StrTraitMFC_DLL@DV?$ChTraitsCRT@D@ATL@@@@@ATL@@ABH@Z$6
	DD	02H
	DD	FLAT:__unwindfunclet$?MakeElement@CElementTreeBuilder@@AAEPAVCElement@@ABV?$CStringT@DV?$StrTraitMFC_DLL@DV?$ChTraitsCRT@D@ATL@@@@@ATL@@ABH@Z$6
xdata$x	ENDS
;	COMDAT xdata$x
xdata$x	SEGMENT
__ehfuncinfo$?BuildElementsFromString_Element@CElementTreeBuilder@@AAEXAAVCAnalysisData@@ABVCBlockIndex@@ABV?$CStringT@DV?$StrTraitMFC_DLL@DV?$ChTraitsCRT@D@ATL@@@@@ATL@@AAVCTree@@AAVCElementAndOrderSet@@@Z DD 019930522H
	DD	06H
	DD	FLAT:__unwindtable$?BuildElementsFromString_Element@CElementTreeBuilder@@AAEXAAVCAnalysisData@@ABVCBlockIndex@@ABV?$CStringT@DV?$StrTraitMFC_DLL@DV?$ChTraitsCRT@D@ATL@@@@@ATL@@AAVCTree@@AAVCElementAndOrderSet@@@Z
	DD	2 DUP(00H)
	DD	2 DUP(00H)
	DD	00H
	DD	01H
__unwindtable$?BuildElementsFromString_Element@CElementTreeBuilder@@AAEXAAVCAnalysisData@@ABVCBlockIndex@@ABV?$CStringT@DV?$StrTraitMFC_DLL@DV?$ChTraitsCRT@D@ATL@@@@@ATL@@AAVCTree@@AAVCElementAndOrderSet@@@Z DD 0ffffffffH
	DD	FLAT:__unwindfunclet$?BuildElementsFromString_Element@CElementTreeBuilder@@AAEXAAVCAnalysisData@@ABVCBlockIndex@@ABV?$CStringT@DV?$StrTraitMFC_DLL@DV?$ChTraitsCRT@D@ATL@@@@@ATL@@AAVCTree@@AAVCElementAndOrderSet@@@Z$0
	DD	00H
	DD	FLAT:__unwindfunclet$?BuildElementsFromString_Element@CElementTreeBuilder@@AAEXAAVCAnalysisData@@ABVCBlockIndex@@ABV?$CStringT@DV?$StrTraitMFC_DLL@DV?$ChTraitsCRT@D@ATL@@@@@ATL@@AAVCTree@@AAVCElementAndOrderSet@@@Z$1
	DD	01H
	DD	FLAT:__unwindfunclet$?BuildElementsFromString_Element@CElementTreeBuilder@@AAEXAAVCAnalysisData@@ABVCBlockIndex@@ABV?$CStringT@DV?$StrTraitMFC_DLL@DV?$ChTraitsCRT@D@ATL@@@@@ATL@@AAVCTree@@AAVCElementAndOrderSet@@@Z$3
	DD	01H
	DD	FLAT:__unwindfunclet$?BuildElementsFromString_Element@CElementTreeBuilder@@AAEXAAVCAnalysisData@@ABVCBlockIndex@@ABV?$CStringT@DV?$StrTraitMFC_DLL@DV?$ChTraitsCRT@D@ATL@@@@@ATL@@AAVCTree@@AAVCElementAndOrderSet@@@Z$2
	DD	00H
	DD	FLAT:__unwindfunclet$?BuildElementsFromString_Element@CElementTreeBuilder@@AAEXAAVCAnalysisData@@ABVCBlockIndex@@ABV?$CStringT@DV?$StrTraitMFC_DLL@DV?$ChTraitsCRT@D@ATL@@@@@ATL@@AAVCTree@@AAVCElementAndOrderSet@@@Z$2
	DD	0ffffffffH
	DD	FLAT:__unwindfunclet$?BuildElementsFromString_Element@CElementTreeBuilder@@AAEXAAVCAnalysisData@@ABVCBlockIndex@@ABV?$CStringT@DV?$StrTraitMFC_DLL@DV?$ChTraitsCRT@D@ATL@@@@@ATL@@AAVCTree@@AAVCElementAndOrderSet@@@Z$2
xdata$x	ENDS
;	COMDAT xdata$x
xdata$x	SEGMENT
__ehfuncinfo$?BuildElementsFromString_Row@CElementTreeBuilder@@AAEXAAVCAnalysisData@@ABVCBlockIndex@@ABV?$CStringT@DV?$StrTraitMFC_DLL@DV?$ChTraitsCRT@D@ATL@@@@@ATL@@AAVCTree@@AAVCElementAndOrderSet@@@Z DD 019930522H
	DD	0aH
	DD	FLAT:__unwindtable$?BuildElementsFromString_Row@CElementTreeBuilder@@AAEXAAVCAnalysisData@@ABVCBlockIndex@@ABV?$CStringT@DV?$StrTraitMFC_DLL@DV?$ChTraitsCRT@D@ATL@@@@@ATL@@AAVCTree@@AAVCElementAndOrderSet@@@Z
	DD	2 DUP(00H)
	DD	2 DUP(00H)
	DD	00H
	DD	01H
__unwindtable$?BuildElementsFromString_Row@CElementTreeBuilder@@AAEXAAVCAnalysisData@@ABVCBlockIndex@@ABV?$CStringT@DV?$StrTraitMFC_DLL@DV?$ChTraitsCRT@D@ATL@@@@@ATL@@AAVCTree@@AAVCElementAndOrderSet@@@Z DD 0ffffffffH
	DD	FLAT:__unwindfunclet$?BuildElementsFromString_Row@CElementTreeBuilder@@AAEXAAVCAnalysisData@@ABVCBlockIndex@@ABV?$CStringT@DV?$StrTraitMFC_DLL@DV?$ChTraitsCRT@D@ATL@@@@@ATL@@AAVCTree@@AAVCElementAndOrderSet@@@Z$0
	DD	0ffffffffH
	DD	FLAT:__unwindfunclet$?BuildElementsFromString_Row@CElementTreeBuilder@@AAEXAAVCAnalysisData@@ABVCBlockIndex@@ABV?$CStringT@DV?$StrTraitMFC_DLL@DV?$ChTraitsCRT@D@ATL@@@@@ATL@@AAVCTree@@AAVCElementAndOrderSet@@@Z$1
	DD	01H
	DD	FLAT:__unwindfunclet$?BuildElementsFromString_Row@CElementTreeBuilder@@AAEXAAVCAnalysisData@@ABVCBlockIndex@@ABV?$CStringT@DV?$StrTraitMFC_DLL@DV?$ChTraitsCRT@D@ATL@@@@@ATL@@AAVCTree@@AAVCElementAndOrderSet@@@Z$2
	DD	02H
	DD	FLAT:__unwindfunclet$?BuildElementsFromString_Row@CElementTreeBuilder@@AAEXAAVCAnalysisData@@ABVCBlockIndex@@ABV?$CStringT@DV?$StrTraitMFC_DLL@DV?$ChTraitsCRT@D@ATL@@@@@ATL@@AAVCTree@@AAVCElementAndOrderSet@@@Z$6
	DD	02H
	DD	FLAT:__unwindfunclet$?BuildElementsFromString_Row@CElementTreeBuilder@@AAEXAAVCAnalysisData@@ABVCBlockIndex@@ABV?$CStringT@DV?$StrTraitMFC_DLL@DV?$ChTraitsCRT@D@ATL@@@@@ATL@@AAVCTree@@AAVCElementAndOrderSet@@@Z$3
	DD	01H
	DD	FLAT:__unwindfunclet$?BuildElementsFromString_Row@CElementTreeBuilder@@AAEXAAVCAnalysisData@@ABVCBlockIndex@@ABV?$CStringT@DV?$StrTraitMFC_DLL@DV?$ChTraitsCRT@D@ATL@@@@@ATL@@AAVCTree@@AAVCElementAndOrderSet@@@Z$3
	DD	0ffffffffH
	DD	FLAT:__unwindfunclet$?BuildElementsFromString_Row@CElementTreeBuilder@@AAEXAAVCAnalysisData@@ABVCBlockIndex@@ABV?$CStringT@DV?$StrTraitMFC_DLL@DV?$ChTraitsCRT@D@ATL@@@@@ATL@@AAVCTree@@AAVCElementAndOrderSet@@@Z$3
	DD	06H
	DD	FLAT:__unwindfunclet$?BuildElementsFromString_Row@CElementTreeBuilder@@AAEXAAVCAnalysisData@@ABVCBlockIndex@@ABV?$CStringT@DV?$StrTraitMFC_DLL@DV?$ChTraitsCRT@D@ATL@@@@@ATL@@AAVCTree@@AAVCElementAndOrderSet@@@Z$4
	DD	07H
	DD	FLAT:__unwindfunclet$?BuildElementsFromString_Row@CElementTreeBuilder@@AAEXAAVCAnalysisData@@ABVCBlockIndex@@ABV?$CStringT@DV?$StrTraitMFC_DLL@DV?$ChTraitsCRT@D@ATL@@@@@ATL@@AAVCTree@@AAVCElementAndOrderSet@@@Z$5
	DD	06H
	DD	FLAT:__unwindfunclet$?BuildElementsFromString_Row@CElementTreeBuilder@@AAEXAAVCAnalysisData@@ABVCBlockIndex@@ABV?$CStringT@DV?$StrTraitMFC_DLL@DV?$ChTraitsCRT@D@ATL@@@@@ATL@@AAVCTree@@AAVCElementAndOrderSet@@@Z$5
xdata$x	ENDS
;	COMDAT xdata$x
xdata$x	SEGMENT
__ehfuncinfo$?BuildElementsFromString_Column@CElementTreeBuilder@@AAEXAAVCAnalysisData@@HABV?$CStringT@DV?$StrTraitMFC_DLL@DV?$ChTraitsCRT@D@ATL@@@@@ATL@@AAVCTree@@AAVCElementAndOrderSet@@@Z DD 019930522H
	DD	014H
	DD	FLAT:__unwindtable$?BuildElementsFromString_Column@CElementTreeBuilder@@AAEXAAVCAnalysisData@@HABV?$CStringT@DV?$StrTraitMFC_DLL@DV?$ChTraitsCRT@D@ATL@@@@@ATL@@AAVCTree@@AAVCElementAndOrderSet@@@Z
	DD	2 DUP(00H)
	DD	2 DUP(00H)
	DD	00H
	DD	01H
__unwindtable$?BuildElementsFromString_Column@CElementTreeBuilder@@AAEXAAVCAnalysisData@@HABV?$CStringT@DV?$StrTraitMFC_DLL@DV?$ChTraitsCRT@D@ATL@@@@@ATL@@AAVCTree@@AAVCElementAndOrderSet@@@Z DD 0ffffffffH
	DD	FLAT:__unwindfunclet$?BuildElementsFromString_Column@CElementTreeBuilder@@AAEXAAVCAnalysisData@@HABV?$CStringT@DV?$StrTraitMFC_DLL@DV?$ChTraitsCRT@D@ATL@@@@@ATL@@AAVCTree@@AAVCElementAndOrderSet@@@Z$0
	DD	0ffffffffH
	DD	FLAT:__unwindfunclet$?BuildElementsFromString_Column@CElementTreeBuilder@@AAEXAAVCAnalysisData@@HABV?$CStringT@DV?$StrTraitMFC_DLL@DV?$ChTraitsCRT@D@ATL@@@@@ATL@@AAVCTree@@AAVCElementAndOrderSet@@@Z$1
	DD	01H
	DD	FLAT:__unwindfunclet$?BuildElementsFromString_Column@CElementTreeBuilder@@AAEXAAVCAnalysisData@@HABV?$CStringT@DV?$StrTraitMFC_DLL@DV?$ChTraitsCRT@D@ATL@@@@@ATL@@AAVCTree@@AAVCElementAndOrderSet@@@Z$2
	DD	02H
	DD	FLAT:__unwindfunclet$?BuildElementsFromString_Column@CElementTreeBuilder@@AAEXAAVCAnalysisData@@HABV?$CStringT@DV?$StrTraitMFC_DLL@DV?$ChTraitsCRT@D@ATL@@@@@ATL@@AAVCTree@@AAVCElementAndOrderSet@@@Z$6
	DD	02H
	DD	FLAT:__unwindfunclet$?BuildElementsFromString_Column@CElementTreeBuilder@@AAEXAAVCAnalysisData@@HABV?$CStringT@DV?$StrTraitMFC_DLL@DV?$ChTraitsCRT@D@ATL@@@@@ATL@@AAVCTree@@AAVCElementAndOrderSet@@@Z$3
	DD	01H
	DD	FLAT:__unwindfunclet$?BuildElementsFromString_Column@CElementTreeBuilder@@AAEXAAVCAnalysisData@@HABV?$CStringT@DV?$StrTraitMFC_DLL@DV?$ChTraitsCRT@D@ATL@@@@@ATL@@AAVCTree@@AAVCElementAndOrderSet@@@Z$3
	DD	0ffffffffH
	DD	FLAT:__unwindfunclet$?BuildElementsFromString_Column@CElementTreeBuilder@@AAEXAAVCAnalysisData@@HABV?$CStringT@DV?$StrTraitMFC_DLL@DV?$ChTraitsCRT@D@ATL@@@@@ATL@@AAVCTree@@AAVCElementAndOrderSet@@@Z$3
	DD	06H
	DD	FLAT:__unwindfunclet$?BuildElementsFromString_Column@CElementTreeBuilder@@AAEXAAVCAnalysisData@@HABV?$CStringT@DV?$StrTraitMFC_DLL@DV?$ChTraitsCRT@D@ATL@@@@@ATL@@AAVCTree@@AAVCElementAndOrderSet@@@Z$4
	DD	07H
	DD	FLAT:__unwindfunclet$?BuildElementsFromString_Column@CElementTreeBuilder@@AAEXAAVCAnalysisData@@HABV?$CStringT@DV?$StrTraitMFC_DLL@DV?$ChTraitsCRT@D@ATL@@@@@ATL@@AAVCTree@@AAVCElementAndOrderSet@@@Z$5
	DD	06H
	DD	FLAT:__unwindfunclet$?BuildElementsFromString_Column@CElementTreeBuilder@@AAEXAAVCAnalysisData@@HABV?$CStringT@DV?$StrTraitMFC_DLL@DV?$ChTraitsCRT@D@ATL@@@@@ATL@@AAVCTree@@AAVCElementAndOrderSet@@@Z$5
	DD	09H
	DD	FLAT:__unwindfunclet$?BuildElementsFromString_Column@CElementTreeBuilder@@AAEXAAVCAnalysisData@@HABV?$CStringT@DV?$StrTraitMFC_DLL@DV?$ChTraitsCRT@D@ATL@@@@@ATL@@AAVCTree@@AAVCElementAndOrderSet@@@Z$10
	DD	09H
	DD	FLAT:__unwindfunclet$?BuildElementsFromString_Column@CElementTreeBuilder@@AAEXAAVCAnalysisData@@HABV?$CStringT@DV?$StrTraitMFC_DLL@DV?$ChTraitsCRT@D@ATL@@@@@ATL@@AAVCTree@@AAVCElementAndOrderSet@@@Z$11
	DD	0bH
	DD	FLAT:__unwindfunclet$?BuildElementsFromString_Column@CElementTreeBuilder@@AAEXAAVCAnalysisData@@HABV?$CStringT@DV?$StrTraitMFC_DLL@DV?$ChTraitsCRT@D@ATL@@@@@ATL@@AAVCTree@@AAVCElementAndOrderSet@@@Z$12
	DD	0cH
	DD	FLAT:__unwindfunclet$?BuildElementsFromString_Column@CElementTreeBuilder@@AAEXAAVCAnalysisData@@HABV?$CStringT@DV?$StrTraitMFC_DLL@DV?$ChTraitsCRT@D@ATL@@@@@ATL@@AAVCTree@@AAVCElementAndOrderSet@@@Z$16
	DD	0cH
	DD	FLAT:__unwindfunclet$?BuildElementsFromString_Column@CElementTreeBuilder@@AAEXAAVCAnalysisData@@HABV?$CStringT@DV?$StrTraitMFC_DLL@DV?$ChTraitsCRT@D@ATL@@@@@ATL@@AAVCTree@@AAVCElementAndOrderSet@@@Z$13
	DD	0bH
	DD	FLAT:__unwindfunclet$?BuildElementsFromString_Column@CElementTreeBuilder@@AAEXAAVCAnalysisData@@HABV?$CStringT@DV?$StrTraitMFC_DLL@DV?$ChTraitsCRT@D@ATL@@@@@ATL@@AAVCTree@@AAVCElementAndOrderSet@@@Z$13
	DD	09H
	DD	FLAT:__unwindfunclet$?BuildElementsFromString_Column@CElementTreeBuilder@@AAEXAAVCAnalysisData@@HABV?$CStringT@DV?$StrTraitMFC_DLL@DV?$ChTraitsCRT@D@ATL@@@@@ATL@@AAVCTree@@AAVCElementAndOrderSet@@@Z$13
	DD	010H
	DD	FLAT:__unwindfunclet$?BuildElementsFromString_Column@CElementTreeBuilder@@AAEXAAVCAnalysisData@@HABV?$CStringT@DV?$StrTraitMFC_DLL@DV?$ChTraitsCRT@D@ATL@@@@@ATL@@AAVCTree@@AAVCElementAndOrderSet@@@Z$14
	DD	011H
	DD	FLAT:__unwindfunclet$?BuildElementsFromString_Column@CElementTreeBuilder@@AAEXAAVCAnalysisData@@HABV?$CStringT@DV?$StrTraitMFC_DLL@DV?$ChTraitsCRT@D@ATL@@@@@ATL@@AAVCTree@@AAVCElementAndOrderSet@@@Z$15
	DD	010H
	DD	FLAT:__unwindfunclet$?BuildElementsFromString_Column@CElementTreeBuilder@@AAEXAAVCAnalysisData@@HABV?$CStringT@DV?$StrTraitMFC_DLL@DV?$ChTraitsCRT@D@ATL@@@@@ATL@@AAVCTree@@AAVCElementAndOrderSet@@@Z$15
xdata$x	ENDS
;	COMDAT xdata$x
xdata$x	SEGMENT
__ehfuncinfo$?BuildElementsFromString@CElementTreeBuilder@@AAE_NAAVCAnalysisData@@ABV?$CStringT@DV?$StrTraitMFC_DLL@DV?$ChTraitsCRT@D@ATL@@@@@ATL@@AAVCTree@@AAVCElementAndOrderSet@@@Z DD 019930522H
	DD	05H
	DD	FLAT:__unwindtable$?BuildElementsFromString@CElementTreeBuilder@@AAE_NAAVCAnalysisData@@ABV?$CStringT@DV?$StrTraitMFC_DLL@DV?$ChTraitsCRT@D@ATL@@@@@ATL@@AAVCTree@@AAVCElementAndOrderSet@@@Z
	DD	2 DUP(00H)
	DD	2 DUP(00H)
	DD	00H
	DD	01H
__unwindtable$?BuildElementsFromString@CElementTreeBuilder@@AAE_NAAVCAnalysisData@@ABV?$CStringT@DV?$StrTraitMFC_DLL@DV?$ChTraitsCRT@D@ATL@@@@@ATL@@AAVCTree@@AAVCElementAndOrderSet@@@Z DD 0ffffffffH
	DD	FLAT:__unwindfunclet$?BuildElementsFromString@CElementTreeBuilder@@AAE_NAAVCAnalysisData@@ABV?$CStringT@DV?$StrTraitMFC_DLL@DV?$ChTraitsCRT@D@ATL@@@@@ATL@@AAVCTree@@AAVCElementAndOrderSet@@@Z$0
	DD	0ffffffffH
	DD	FLAT:__unwindfunclet$?BuildElementsFromString@CElementTreeBuilder@@AAE_NAAVCAnalysisData@@ABV?$CStringT@DV?$StrTraitMFC_DLL@DV?$ChTraitsCRT@D@ATL@@@@@ATL@@AAVCTree@@AAVCElementAndOrderSet@@@Z$1
	DD	01H
	DD	FLAT:__unwindfunclet$?BuildElementsFromString@CElementTreeBuilder@@AAE_NAAVCAnalysisData@@ABV?$CStringT@DV?$StrTraitMFC_DLL@DV?$ChTraitsCRT@D@ATL@@@@@ATL@@AAVCTree@@AAVCElementAndOrderSet@@@Z$2
	DD	02H
	DD	FLAT:__unwindfunclet$?BuildElementsFromString@CElementTreeBuilder@@AAE_NAAVCAnalysisData@@ABV?$CStringT@DV?$StrTraitMFC_DLL@DV?$ChTraitsCRT@D@ATL@@@@@ATL@@AAVCTree@@AAVCElementAndOrderSet@@@Z$3
	DD	01H
	DD	FLAT:__unwindfunclet$?BuildElementsFromString@CElementTreeBuilder@@AAE_NAAVCAnalysisData@@ABV?$CStringT@DV?$StrTraitMFC_DLL@DV?$ChTraitsCRT@D@ATL@@@@@ATL@@AAVCTree@@AAVCElementAndOrderSet@@@Z$3
xdata$x	ENDS
;	COMDAT xdata$x
xdata$x	SEGMENT
__ehfuncinfo$?BuildElementsFromString_ForUndoRedo@CElementTreeBuilder@@QAEJAAVCAnalysisData@@ABVCBlockIndex@@ABV?$CStringT@DV?$StrTraitMFC_DLL@DV?$ChTraitsCRT@D@ATL@@@@@ATL@@AAVCTree@@AAVCOrder@@@Z DD 019930522H
	DD	07H
	DD	FLAT:__unwindtable$?BuildElementsFromString_ForUndoRedo@CElementTreeBuilder@@QAEJAAVCAnalysisData@@ABVCBlockIndex@@ABV?$CStringT@DV?$StrTraitMFC_DLL@DV?$ChTraitsCRT@D@ATL@@@@@ATL@@AAVCTree@@AAVCOrder@@@Z
	DD	2 DUP(00H)
	DD	2 DUP(00H)
	DD	00H
	DD	01H
__unwindtable$?BuildElementsFromString_ForUndoRedo@CElementTreeBuilder@@QAEJAAVCAnalysisData@@ABVCBlockIndex@@ABV?$CStringT@DV?$StrTraitMFC_DLL@DV?$ChTraitsCRT@D@ATL@@@@@ATL@@AAVCTree@@AAVCOrder@@@Z DD 0ffffffffH
	DD	FLAT:__unwindfunclet$?BuildElementsFromString_ForUndoRedo@CElementTreeBuilder@@QAEJAAVCAnalysisData@@ABVCBlockIndex@@ABV?$CStringT@DV?$StrTraitMFC_DLL@DV?$ChTraitsCRT@D@ATL@@@@@ATL@@AAVCTree@@AAVCOrder@@@Z$0
	DD	00H
	DD	FLAT:__unwindfunclet$?BuildElementsFromString_ForUndoRedo@CElementTreeBuilder@@QAEJAAVCAnalysisData@@ABVCBlockIndex@@ABV?$CStringT@DV?$StrTraitMFC_DLL@DV?$ChTraitsCRT@D@ATL@@@@@ATL@@AAVCTree@@AAVCOrder@@@Z$1
	DD	01H
	DD	FLAT:__unwindfunclet$?BuildElementsFromString_ForUndoRedo@CElementTreeBuilder@@QAEJAAVCAnalysisData@@ABVCBlockIndex@@ABV?$CStringT@DV?$StrTraitMFC_DLL@DV?$ChTraitsCRT@D@ATL@@@@@ATL@@AAVCTree@@AAVCOrder@@@Z$4
	DD	01H
	DD	FLAT:__unwindfunclet$?BuildElementsFromString_ForUndoRedo@CElementTreeBuilder@@QAEJAAVCAnalysisData@@ABVCBlockIndex@@ABV?$CStringT@DV?$StrTraitMFC_DLL@DV?$ChTraitsCRT@D@ATL@@@@@ATL@@AAVCTree@@AAVCOrder@@@Z$2
	DD	00H
	DD	FLAT:__unwindfunclet$?BuildElementsFromString_ForUndoRedo@CElementTreeBuilder@@QAEJAAVCAnalysisData@@ABVCBlockIndex@@ABV?$CStringT@DV?$StrTraitMFC_DLL@DV?$ChTraitsCRT@D@ATL@@@@@ATL@@AAVCTree@@AAVCOrder@@@Z$2
	DD	0ffffffffH
	DD	FLAT:__unwindfunclet$?BuildElementsFromString_ForUndoRedo@CElementTreeBuilder@@QAEJAAVCAnalysisData@@ABVCBlockIndex@@ABV?$CStringT@DV?$StrTraitMFC_DLL@DV?$ChTraitsCRT@D@ATL@@@@@ATL@@AAVCTree@@AAVCOrder@@@Z$2
	DD	05H
	DD	FLAT:__unwindfunclet$?BuildElementsFromString_ForUndoRedo@CElementTreeBuilder@@QAEJAAVCAnalysisData@@ABVCBlockIndex@@ABV?$CStringT@DV?$StrTraitMFC_DLL@DV?$ChTraitsCRT@D@ATL@@@@@ATL@@AAVCTree@@AAVCOrder@@@Z$3
xdata$x	ENDS
;	COMDAT xdata$x
xdata$x	SEGMENT
__ehfuncinfo$?BuildElementsFromString@CElementTreeBuilder@@QAE_NAAVCAnalysisData@@ABV?$CStringT@DV?$StrTraitMFC_DLL@DV?$ChTraitsCRT@D@ATL@@@@@ATL@@AAVCTree@@AAVCOrder@@@Z DD 019930522H
	DD	06H
	DD	FLAT:__unwindtable$?BuildElementsFromString@CElementTreeBuilder@@QAE_NAAVCAnalysisData@@ABV?$CStringT@DV?$StrTraitMFC_DLL@DV?$ChTraitsCRT@D@ATL@@@@@ATL@@AAVCTree@@AAVCOrder@@@Z
	DD	2 DUP(00H)
	DD	2 DUP(00H)
	DD	00H
	DD	01H
__unwindtable$?BuildElementsFromString@CElementTreeBuilder@@QAE_NAAVCAnalysisData@@ABV?$CStringT@DV?$StrTraitMFC_DLL@DV?$ChTraitsCRT@D@ATL@@@@@ATL@@AAVCTree@@AAVCOrder@@@Z DD 0ffffffffH
	DD	FLAT:__unwindfunclet$?BuildElementsFromString@CElementTreeBuilder@@QAE_NAAVCAnalysisData@@ABV?$CStringT@DV?$StrTraitMFC_DLL@DV?$ChTraitsCRT@D@ATL@@@@@ATL@@AAVCTree@@AAVCOrder@@@Z$0
	DD	00H
	DD	FLAT:__unwindfunclet$?BuildElementsFromString@CElementTreeBuilder@@QAE_NAAVCAnalysisData@@ABV?$CStringT@DV?$StrTraitMFC_DLL@DV?$ChTraitsCRT@D@ATL@@@@@ATL@@AAVCTree@@AAVCOrder@@@Z$3
	DD	00H
	DD	FLAT:__unwindfunclet$?BuildElementsFromString@CElementTreeBuilder@@QAE_NAAVCAnalysisData@@ABV?$CStringT@DV?$StrTraitMFC_DLL@DV?$ChTraitsCRT@D@ATL@@@@@ATL@@AAVCTree@@AAVCOrder@@@Z$4
	DD	02H
	DD	FLAT:__unwindfunclet$?BuildElementsFromString@CElementTreeBuilder@@QAE_NAAVCAnalysisData@@ABV?$CStringT@DV?$StrTraitMFC_DLL@DV?$ChTraitsCRT@D@ATL@@@@@ATL@@AAVCTree@@AAVCOrder@@@Z$5
	DD	03H
	DD	FLAT:__unwindfunclet$?BuildElementsFromString@CElementTreeBuilder@@QAE_NAAVCAnalysisData@@ABV?$CStringT@DV?$StrTraitMFC_DLL@DV?$ChTraitsCRT@D@ATL@@@@@ATL@@AAVCTree@@AAVCOrder@@@Z$6
	DD	02H
	DD	FLAT:__unwindfunclet$?BuildElementsFromString@CElementTreeBuilder@@QAE_NAAVCAnalysisData@@ABV?$CStringT@DV?$StrTraitMFC_DLL@DV?$ChTraitsCRT@D@ATL@@@@@ATL@@AAVCTree@@AAVCOrder@@@Z$6
xdata$x	ENDS
;	COMDAT xdata$x
xdata$x	SEGMENT
__unwindtable$??HATL@@YA?AV?$CStringT@DV?$StrTraitMFC_DLL@DV?$ChTraitsCRT@D@ATL@@@@@0@ABV10@PBD@Z DD 0ffffffffH
	DD	FLAT:__unwindfunclet$??HATL@@YA?AV?$CStringT@DV?$StrTraitMFC_DLL@DV?$ChTraitsCRT@D@ATL@@@@@0@ABV10@PBD@Z$0
__ehfuncinfo$??HATL@@YA?AV?$CStringT@DV?$StrTraitMFC_DLL@DV?$ChTraitsCRT@D@ATL@@@@@0@ABV10@PBD@Z DD 019930522H
	DD	01H
	DD	FLAT:__unwindtable$??HATL@@YA?AV?$CStringT@DV?$StrTraitMFC_DLL@DV?$ChTraitsCRT@D@ATL@@@@@0@ABV10@PBD@Z
	DD	2 DUP(00H)
	DD	2 DUP(00H)
	DD	00H
	DD	01H
xdata$x	ENDS
;	COMDAT xdata$x
xdata$x	SEGMENT
__unwindtable$??HATL@@YA?AV?$CStringT@DV?$StrTraitMFC_DLL@DV?$ChTraitsCRT@D@ATL@@@@@0@ABV10@0@Z DD 0ffffffffH
	DD	FLAT:__unwindfunclet$??HATL@@YA?AV?$CStringT@DV?$StrTraitMFC_DLL@DV?$ChTraitsCRT@D@ATL@@@@@0@ABV10@0@Z$0
__ehfuncinfo$??HATL@@YA?AV?$CStringT@DV?$StrTraitMFC_DLL@DV?$ChTraitsCRT@D@ATL@@@@@0@ABV10@0@Z DD 019930522H
	DD	01H
	DD	FLAT:__unwindtable$??HATL@@YA?AV?$CStringT@DV?$StrTraitMFC_DLL@DV?$ChTraitsCRT@D@ATL@@@@@0@ABV10@0@Z
	DD	2 DUP(00H)
	DD	2 DUP(00H)
	DD	00H
	DD	01H
xdata$x	ENDS
; Function compile flags: /Ogtp
; File C:\Program Files (x86)\Microsoft Visual Studio\2019\Community\VC\Tools\MSVC\14.29.30133\include\xutility
;	COMDAT ??$_Copy_memmove@PAPAVCElementAndOrder@@PAPAV1@@std@@YAPAPAVCElementAndOrder@@PAPAV1@00@Z
_TEXT	SEGMENT
__First$ = 8						; size = 4
__Last$ = 12						; size = 4
__Dest$ = 16						; size = 4
??$_Copy_memmove@PAPAVCElementAndOrder@@PAPAV1@@std@@YAPAPAVCElementAndOrder@@PAPAV1@00@Z PROC ; std::_Copy_memmove<CElementAndOrder * *,CElementAndOrder * *>, COMDAT

; 4058 : _OutCtgIt _Copy_memmove(_CtgIt _First, _CtgIt _Last, _OutCtgIt _Dest) {

  00000	55		 push	 ebp
  00001	8b ec		 mov	 ebp, esp

; 4059 :     auto _FirstPtr              = _To_address(_First);
; 4060 :     auto _LastPtr               = _To_address(_Last);
; 4061 :     auto _DestPtr               = _To_address(_Dest);
; 4062 :     const char* const _First_ch = const_cast<const char*>(reinterpret_cast<const volatile char*>(_FirstPtr));
; 4063 :     const char* const _Last_ch  = const_cast<const char*>(reinterpret_cast<const volatile char*>(_LastPtr));
; 4064 :     char* const _Dest_ch        = const_cast<char*>(reinterpret_cast<const volatile char*>(_DestPtr));
; 4065 :     const auto _Count           = static_cast<size_t>(_Last_ch - _First_ch);

  00003	8b 45 08	 mov	 eax, DWORD PTR __First$[ebp]
  00006	56		 push	 esi

; 4066 :     _CSTD memmove(_Dest_ch, _First_ch, _Count);

  00007	8b 75 10	 mov	 esi, DWORD PTR __Dest$[ebp]
  0000a	57		 push	 edi
  0000b	8b 7d 0c	 mov	 edi, DWORD PTR __Last$[ebp]
  0000e	2b f8		 sub	 edi, eax
  00010	57		 push	 edi
  00011	50		 push	 eax
  00012	56		 push	 esi
  00013	e8 00 00 00 00	 call	 _memmove
  00018	83 c4 0c	 add	 esp, 12			; 0000000cH

; 4067 :     if constexpr (is_pointer_v<_OutCtgIt>) {
; 4068 :         return reinterpret_cast<_OutCtgIt>(_Dest_ch + _Count);

  0001b	8d 04 37	 lea	 eax, DWORD PTR [edi+esi]
  0001e	5f		 pop	 edi
  0001f	5e		 pop	 esi

; 4069 :     } else {
; 4070 :         return _Dest + (_LastPtr - _FirstPtr);
; 4071 :     }
; 4072 : }

  00020	5d		 pop	 ebp
  00021	c3		 ret	 0
??$_Copy_memmove@PAPAVCElementAndOrder@@PAPAV1@@std@@YAPAPAVCElementAndOrder@@PAPAV1@00@Z ENDP ; std::_Copy_memmove<CElementAndOrder * *,CElementAndOrder * *>
_TEXT	ENDS
; Function compile flags: /Ogtp
; File C:\Program Files (x86)\Microsoft Visual Studio\2019\Community\VC\Tools\MSVC\14.29.30133\include\xutility
;	COMDAT ??$_Copy_memmove@PAPAVCCoordinate@@PAPAV1@@std@@YAPAPAVCCoordinate@@PAPAV1@00@Z
_TEXT	SEGMENT
__First$ = 8						; size = 4
__Last$ = 12						; size = 4
__Dest$ = 16						; size = 4
??$_Copy_memmove@PAPAVCCoordinate@@PAPAV1@@std@@YAPAPAVCCoordinate@@PAPAV1@00@Z PROC ; std::_Copy_memmove<CCoordinate * *,CCoordinate * *>, COMDAT

; 4058 : _OutCtgIt _Copy_memmove(_CtgIt _First, _CtgIt _Last, _OutCtgIt _Dest) {

  00000	55		 push	 ebp
  00001	8b ec		 mov	 ebp, esp

; 4059 :     auto _FirstPtr              = _To_address(_First);
; 4060 :     auto _LastPtr               = _To_address(_Last);
; 4061 :     auto _DestPtr               = _To_address(_Dest);
; 4062 :     const char* const _First_ch = const_cast<const char*>(reinterpret_cast<const volatile char*>(_FirstPtr));
; 4063 :     const char* const _Last_ch  = const_cast<const char*>(reinterpret_cast<const volatile char*>(_LastPtr));
; 4064 :     char* const _Dest_ch        = const_cast<char*>(reinterpret_cast<const volatile char*>(_DestPtr));
; 4065 :     const auto _Count           = static_cast<size_t>(_Last_ch - _First_ch);

  00003	8b 45 08	 mov	 eax, DWORD PTR __First$[ebp]
  00006	56		 push	 esi

; 4066 :     _CSTD memmove(_Dest_ch, _First_ch, _Count);

  00007	8b 75 10	 mov	 esi, DWORD PTR __Dest$[ebp]
  0000a	57		 push	 edi
  0000b	8b 7d 0c	 mov	 edi, DWORD PTR __Last$[ebp]
  0000e	2b f8		 sub	 edi, eax
  00010	57		 push	 edi
  00011	50		 push	 eax
  00012	56		 push	 esi
  00013	e8 00 00 00 00	 call	 _memmove
  00018	83 c4 0c	 add	 esp, 12			; 0000000cH

; 4067 :     if constexpr (is_pointer_v<_OutCtgIt>) {
; 4068 :         return reinterpret_cast<_OutCtgIt>(_Dest_ch + _Count);

  0001b	8d 04 37	 lea	 eax, DWORD PTR [edi+esi]
  0001e	5f		 pop	 edi
  0001f	5e		 pop	 esi

; 4069 :     } else {
; 4070 :         return _Dest + (_LastPtr - _FirstPtr);
; 4071 :     }
; 4072 : }

  00020	5d		 pop	 ebp
  00021	c3		 ret	 0
??$_Copy_memmove@PAPAVCCoordinate@@PAPAV1@@std@@YAPAPAVCCoordinate@@PAPAV1@00@Z ENDP ; std::_Copy_memmove<CCoordinate * *,CCoordinate * *>
_TEXT	ENDS
; Function compile flags: /Ogtp
; File C:\Program Files (x86)\Microsoft Visual Studio\2019\Community\VC\Tools\MSVC\14.29.30133\include\xmemory
;	COMDAT ??$_Zero_range@PAPAVCElementAndOrder@@@std@@YAPAPAVCElementAndOrder@@QAPAV1@0@Z
_TEXT	SEGMENT
__First$ = 8						; size = 4
__Last$ = 12						; size = 4
??$_Zero_range@PAPAVCElementAndOrder@@@std@@YAPAPAVCElementAndOrder@@QAPAV1@0@Z PROC ; std::_Zero_range<CElementAndOrder * *>, COMDAT

; 1789 : _Ptr _Zero_range(const _Ptr _First, const _Ptr _Last) { // fill [_First, _Last) with zeroes

  00000	55		 push	 ebp
  00001	8b ec		 mov	 ebp, esp

; 1790 :     char* const _First_ch = reinterpret_cast<char*>(_To_address(_First));
; 1791 :     char* const _Last_ch  = reinterpret_cast<char*>(_To_address(_Last));
; 1792 :     _CSTD memset(_First_ch, 0, static_cast<size_t>(_Last_ch - _First_ch));

  00003	8b 55 08	 mov	 edx, DWORD PTR __First$[ebp]
  00006	8b 4d 0c	 mov	 ecx, DWORD PTR __Last$[ebp]
  00009	2b ca		 sub	 ecx, edx
  0000b	51		 push	 ecx
  0000c	6a 00		 push	 0
  0000e	52		 push	 edx
  0000f	e8 00 00 00 00	 call	 _memset

; 1793 :     return _Last;

  00014	8b 45 0c	 mov	 eax, DWORD PTR __Last$[ebp]
  00017	83 c4 0c	 add	 esp, 12			; 0000000cH

; 1794 : }

  0001a	5d		 pop	 ebp
  0001b	c3		 ret	 0
??$_Zero_range@PAPAVCElementAndOrder@@@std@@YAPAPAVCElementAndOrder@@QAPAV1@0@Z ENDP ; std::_Zero_range<CElementAndOrder * *>
_TEXT	ENDS
; Function compile flags: /Ogtp
; File C:\Program Files (x86)\Microsoft Visual Studio\2019\Community\VC\Tools\MSVC\14.29.30133\include\xmemory
;	COMDAT ??$_Zero_range@PAPAVCCoordinate@@@std@@YAPAPAVCCoordinate@@QAPAV1@0@Z
_TEXT	SEGMENT
__First$ = 8						; size = 4
__Last$ = 12						; size = 4
??$_Zero_range@PAPAVCCoordinate@@@std@@YAPAPAVCCoordinate@@QAPAV1@0@Z PROC ; std::_Zero_range<CCoordinate * *>, COMDAT

; 1789 : _Ptr _Zero_range(const _Ptr _First, const _Ptr _Last) { // fill [_First, _Last) with zeroes

  00000	55		 push	 ebp
  00001	8b ec		 mov	 ebp, esp

; 1790 :     char* const _First_ch = reinterpret_cast<char*>(_To_address(_First));
; 1791 :     char* const _Last_ch  = reinterpret_cast<char*>(_To_address(_Last));
; 1792 :     _CSTD memset(_First_ch, 0, static_cast<size_t>(_Last_ch - _First_ch));

  00003	8b 55 08	 mov	 edx, DWORD PTR __First$[ebp]
  00006	8b 4d 0c	 mov	 ecx, DWORD PTR __Last$[ebp]
  00009	2b ca		 sub	 ecx, edx
  0000b	51		 push	 ecx
  0000c	6a 00		 push	 0
  0000e	52		 push	 edx
  0000f	e8 00 00 00 00	 call	 _memset

; 1793 :     return _Last;

  00014	8b 45 0c	 mov	 eax, DWORD PTR __Last$[ebp]
  00017	83 c4 0c	 add	 esp, 12			; 0000000cH

; 1794 : }

  0001a	5d		 pop	 ebp
  0001b	c3		 ret	 0
??$_Zero_range@PAPAVCCoordinate@@@std@@YAPAPAVCCoordinate@@QAPAV1@0@Z ENDP ; std::_Zero_range<CCoordinate * *>
_TEXT	ENDS
; Function compile flags: /Ogtp
; File C:\Program Files (x86)\Microsoft Visual Studio\2019\Community\VC\Tools\MSVC\14.29.30133\include\xmemory
;	COMDAT ??$_Allocate_manually_vector_aligned@U_Default_allocate_traits@std@@@std@@YAPAXI@Z
_TEXT	SEGMENT
__Bytes$ = 8						; size = 4
??$_Allocate_manually_vector_aligned@U_Default_allocate_traits@std@@@std@@YAPAXI@Z PROC ; std::_Allocate_manually_vector_aligned<std::_Default_allocate_traits>, COMDAT

; 127  : __declspec(allocator) void* _Allocate_manually_vector_aligned(const size_t _Bytes) {

  00000	55		 push	 ebp
  00001	8b ec		 mov	 ebp, esp

; 128  :     // allocate _Bytes manually aligned to at least _Big_allocation_alignment
; 129  :     const size_t _Block_size = _Non_user_size + _Bytes;

  00003	8b 45 08	 mov	 eax, DWORD PTR __Bytes$[ebp]
  00006	8d 48 23	 lea	 ecx, DWORD PTR [eax+35]

; 130  :     if (_Block_size <= _Bytes) {

  00009	3b c8		 cmp	 ecx, eax
  0000b	0f 86 00 00 00
	00		 jbe	 ?_Throw_bad_array_new_length@std@@YAXXZ ; std::_Throw_bad_array_new_length

; 79   :         return ::operator new(_Bytes);

  00011	51		 push	 ecx
  00012	e8 00 00 00 00	 call	 ??2@YAPAXI@Z		; operator new

; 131  :         _Throw_bad_array_new_length(); // add overflow
; 132  :     }
; 133  : 
; 134  :     const uintptr_t _Ptr_container = reinterpret_cast<uintptr_t>(_Traits::_Allocate(_Block_size));

  00017	8b c8		 mov	 ecx, eax

; 79   :         return ::operator new(_Bytes);

  00019	83 c4 04	 add	 esp, 4

; 135  :     _STL_VERIFY(_Ptr_container != 0, "invalid argument"); // validate even in release since we're doing p[-1]

  0001c	85 c9		 test	 ecx, ecx
  0001e	74 0b		 je	 SHORT $LN7@Allocate_m

; 136  :     void* const _Ptr = reinterpret_cast<void*>((_Ptr_container + _Non_user_size) & ~(_Big_allocation_alignment - 1));

  00020	8d 41 23	 lea	 eax, DWORD PTR [ecx+35]
  00023	83 e0 e0	 and	 eax, -32		; ffffffe0H

; 137  :     static_cast<uintptr_t*>(_Ptr)[-1] = _Ptr_container;

  00026	89 48 fc	 mov	 DWORD PTR [eax-4], ecx

; 138  : 
; 139  : #ifdef _DEBUG
; 140  :     static_cast<uintptr_t*>(_Ptr)[-2] = _Big_allocation_sentinel;
; 141  : #endif // _DEBUG
; 142  :     return _Ptr;
; 143  : }

  00029	5d		 pop	 ebp
  0002a	c3		 ret	 0
$LN7@Allocate_m:

; 135  :     _STL_VERIFY(_Ptr_container != 0, "invalid argument"); // validate even in release since we're doing p[-1]

  0002b	ff 25 00 00 00
	00		 jmp	 DWORD PTR __imp___invalid_parameter_noinfo_noreturn
??$_Allocate_manually_vector_aligned@U_Default_allocate_traits@std@@@std@@YAPAXI@Z ENDP ; std::_Allocate_manually_vector_aligned<std::_Default_allocate_traits>
_TEXT	ENDS
; Function compile flags: /Ogtp
; File C:\Program Files (x86)\Microsoft Visual Studio\2019\Community\VC\Tools\MSVC\14.29.30133\include\xmemory
;	COMDAT ??$_Uninitialized_value_construct_n_unchecked1@PAPAVCElementAndOrder@@I@std@@YAPAPAVCElementAndOrder@@PAPAV1@I@Z
_TEXT	SEGMENT
__UFirst$ = 8						; size = 4
__Count$ = 12						; size = 4
??$_Uninitialized_value_construct_n_unchecked1@PAPAVCElementAndOrder@@I@std@@YAPAPAVCElementAndOrder@@PAPAV1@I@Z PROC ; std::_Uninitialized_value_construct_n_unchecked1<CElementAndOrder * *,unsigned int>, COMDAT

; 1821 : _NoThrowFwdIt _Uninitialized_value_construct_n_unchecked1(_NoThrowFwdIt _UFirst, _Diff _Count) {

  00000	55		 push	 ebp
  00001	8b ec		 mov	 ebp, esp

; 1822 :     // value-initialize all elements in [_UFirst, _UFirst + _Count_raw)
; 1823 :     _STL_INTERNAL_CHECK(_Count >= 0);
; 1824 :     if constexpr (_Use_memset_value_construct_v<_NoThrowFwdIt>) {
; 1825 :         return _Zero_range(_UFirst, _UFirst + _Count);

  00003	8b 45 0c	 mov	 eax, DWORD PTR __Count$[ebp]
  00006	56		 push	 esi

; 1792 :     _CSTD memset(_First_ch, 0, static_cast<size_t>(_Last_ch - _First_ch));

  00007	8b 75 08	 mov	 esi, DWORD PTR __UFirst$[ebp]

; 1821 : _NoThrowFwdIt _Uninitialized_value_construct_n_unchecked1(_NoThrowFwdIt _UFirst, _Diff _Count) {

  0000a	57		 push	 edi

; 1822 :     // value-initialize all elements in [_UFirst, _UFirst + _Count_raw)
; 1823 :     _STL_INTERNAL_CHECK(_Count >= 0);
; 1824 :     if constexpr (_Use_memset_value_construct_v<_NoThrowFwdIt>) {
; 1825 :         return _Zero_range(_UFirst, _UFirst + _Count);

  0000b	8d 3c 85 00 00
	00 00		 lea	 edi, DWORD PTR [eax*4]

; 1792 :     _CSTD memset(_First_ch, 0, static_cast<size_t>(_Last_ch - _First_ch));

  00012	57		 push	 edi
  00013	6a 00		 push	 0
  00015	56		 push	 esi
  00016	e8 00 00 00 00	 call	 _memset
  0001b	83 c4 0c	 add	 esp, 12			; 0000000cH

; 1822 :     // value-initialize all elements in [_UFirst, _UFirst + _Count_raw)
; 1823 :     _STL_INTERNAL_CHECK(_Count >= 0);
; 1824 :     if constexpr (_Use_memset_value_construct_v<_NoThrowFwdIt>) {
; 1825 :         return _Zero_range(_UFirst, _UFirst + _Count);

  0001e	8d 04 37	 lea	 eax, DWORD PTR [edi+esi]
  00021	5f		 pop	 edi
  00022	5e		 pop	 esi

; 1826 :     } else {
; 1827 :         _Uninitialized_backout<_NoThrowFwdIt> _Backout{_UFirst};
; 1828 :         for (; 0 < _Count; --_Count) {
; 1829 :             _Backout._Emplace_back();
; 1830 :         }
; 1831 : 
; 1832 :         return _Backout._Release();
; 1833 :     }
; 1834 : }

  00023	5d		 pop	 ebp
  00024	c3		 ret	 0
??$_Uninitialized_value_construct_n_unchecked1@PAPAVCElementAndOrder@@I@std@@YAPAPAVCElementAndOrder@@PAPAV1@I@Z ENDP ; std::_Uninitialized_value_construct_n_unchecked1<CElementAndOrder * *,unsigned int>
_TEXT	ENDS
; Function compile flags: /Ogtp
; File C:\Program Files (x86)\Microsoft Visual Studio\2019\Community\VC\Tools\MSVC\14.29.30133\include\xmemory
; File C:\Program Files (x86)\Microsoft Visual Studio\2019\Community\VC\Tools\MSVC\14.29.30133\include\xutility
; File C:\Program Files (x86)\Microsoft Visual Studio\2019\Community\VC\Tools\MSVC\14.29.30133\include\xmemory
; File C:\Program Files (x86)\Microsoft Visual Studio\2019\Community\VC\Tools\MSVC\14.29.30133\include\xutility
; File C:\Program Files (x86)\Microsoft Visual Studio\2019\Community\VC\Tools\MSVC\14.29.30133\include\xmemory
; File C:\Program Files (x86)\Microsoft Visual Studio\2019\Community\VC\Tools\MSVC\14.29.30133\include\xutility
; File C:\Program Files (x86)\Microsoft Visual Studio\2019\Community\VC\Tools\MSVC\14.29.30133\include\xmemory
;	COMDAT ??$uninitialized_copy@PAPAVCElementAndOrder@@PAPAV1@@std@@YAPAPAVCElementAndOrder@@QAPAV1@0PAPAV1@@Z
_TEXT	SEGMENT
__First$ = 8						; size = 4
__Last$ = 12						; size = 4
__Dest$ = 16						; size = 4
??$uninitialized_copy@PAPAVCElementAndOrder@@PAPAV1@@std@@YAPAPAVCElementAndOrder@@QAPAV1@0PAPAV1@@Z PROC ; std::uninitialized_copy<CElementAndOrder * *,CElementAndOrder * *>, COMDAT

; 1687 : _NoThrowFwdIt uninitialized_copy(const _InIt _First, const _InIt _Last, _NoThrowFwdIt _Dest) {

  00000	55		 push	 ebp
  00001	8b ec		 mov	 ebp, esp
; File C:\Program Files (x86)\Microsoft Visual Studio\2019\Community\VC\Tools\MSVC\14.29.30133\include\xutility

; 4065 :     const auto _Count           = static_cast<size_t>(_Last_ch - _First_ch);

  00003	8b 45 08	 mov	 eax, DWORD PTR __First$[ebp]
; File C:\Program Files (x86)\Microsoft Visual Studio\2019\Community\VC\Tools\MSVC\14.29.30133\include\xmemory

; 1687 : _NoThrowFwdIt uninitialized_copy(const _InIt _First, const _InIt _Last, _NoThrowFwdIt _Dest) {

  00006	56		 push	 esi
; File C:\Program Files (x86)\Microsoft Visual Studio\2019\Community\VC\Tools\MSVC\14.29.30133\include\xutility

; 4066 :     _CSTD memmove(_Dest_ch, _First_ch, _Count);

  00007	8b 75 10	 mov	 esi, DWORD PTR __Dest$[ebp]
; File C:\Program Files (x86)\Microsoft Visual Studio\2019\Community\VC\Tools\MSVC\14.29.30133\include\xmemory

; 1687 : _NoThrowFwdIt uninitialized_copy(const _InIt _First, const _InIt _Last, _NoThrowFwdIt _Dest) {

  0000a	57		 push	 edi
; File C:\Program Files (x86)\Microsoft Visual Studio\2019\Community\VC\Tools\MSVC\14.29.30133\include\xutility

; 4065 :     const auto _Count           = static_cast<size_t>(_Last_ch - _First_ch);

  0000b	8b 7d 0c	 mov	 edi, DWORD PTR __Last$[ebp]
  0000e	2b f8		 sub	 edi, eax

; 4066 :     _CSTD memmove(_Dest_ch, _First_ch, _Count);

  00010	57		 push	 edi
  00011	50		 push	 eax
  00012	56		 push	 esi
  00013	e8 00 00 00 00	 call	 _memmove
  00018	83 c4 0c	 add	 esp, 12			; 0000000cH

; 4067 :     if constexpr (is_pointer_v<_OutCtgIt>) {
; 4068 :         return reinterpret_cast<_OutCtgIt>(_Dest_ch + _Count);

  0001b	8d 04 37	 lea	 eax, DWORD PTR [edi+esi]
; File C:\Program Files (x86)\Microsoft Visual Studio\2019\Community\VC\Tools\MSVC\14.29.30133\include\xmemory

; 1694 :     return _Dest;

  0001e	5f		 pop	 edi
  0001f	5e		 pop	 esi

; 1695 : }

  00020	5d		 pop	 ebp
  00021	c3		 ret	 0
??$uninitialized_copy@PAPAVCElementAndOrder@@PAPAV1@@std@@YAPAPAVCElementAndOrder@@QAPAV1@0PAPAV1@@Z ENDP ; std::uninitialized_copy<CElementAndOrder * *,CElementAndOrder * *>
_TEXT	ENDS
; Function compile flags: /Ogtp
; File C:\Program Files (x86)\Microsoft Visual Studio\2019\Community\VC\Tools\MSVC\14.29.30133\include\xmemory
;	COMDAT ??$_Uninitialized_value_construct_n_unchecked1@PAPAVCCoordinate@@I@std@@YAPAPAVCCoordinate@@PAPAV1@I@Z
_TEXT	SEGMENT
__UFirst$ = 8						; size = 4
__Count$ = 12						; size = 4
??$_Uninitialized_value_construct_n_unchecked1@PAPAVCCoordinate@@I@std@@YAPAPAVCCoordinate@@PAPAV1@I@Z PROC ; std::_Uninitialized_value_construct_n_unchecked1<CCoordinate * *,unsigned int>, COMDAT

; 1821 : _NoThrowFwdIt _Uninitialized_value_construct_n_unchecked1(_NoThrowFwdIt _UFirst, _Diff _Count) {

  00000	55		 push	 ebp
  00001	8b ec		 mov	 ebp, esp

; 1822 :     // value-initialize all elements in [_UFirst, _UFirst + _Count_raw)
; 1823 :     _STL_INTERNAL_CHECK(_Count >= 0);
; 1824 :     if constexpr (_Use_memset_value_construct_v<_NoThrowFwdIt>) {
; 1825 :         return _Zero_range(_UFirst, _UFirst + _Count);

  00003	8b 45 0c	 mov	 eax, DWORD PTR __Count$[ebp]
  00006	56		 push	 esi

; 1792 :     _CSTD memset(_First_ch, 0, static_cast<size_t>(_Last_ch - _First_ch));

  00007	8b 75 08	 mov	 esi, DWORD PTR __UFirst$[ebp]

; 1821 : _NoThrowFwdIt _Uninitialized_value_construct_n_unchecked1(_NoThrowFwdIt _UFirst, _Diff _Count) {

  0000a	57		 push	 edi

; 1822 :     // value-initialize all elements in [_UFirst, _UFirst + _Count_raw)
; 1823 :     _STL_INTERNAL_CHECK(_Count >= 0);
; 1824 :     if constexpr (_Use_memset_value_construct_v<_NoThrowFwdIt>) {
; 1825 :         return _Zero_range(_UFirst, _UFirst + _Count);

  0000b	8d 3c 85 00 00
	00 00		 lea	 edi, DWORD PTR [eax*4]

; 1792 :     _CSTD memset(_First_ch, 0, static_cast<size_t>(_Last_ch - _First_ch));

  00012	57		 push	 edi
  00013	6a 00		 push	 0
  00015	56		 push	 esi
  00016	e8 00 00 00 00	 call	 _memset
  0001b	83 c4 0c	 add	 esp, 12			; 0000000cH

; 1822 :     // value-initialize all elements in [_UFirst, _UFirst + _Count_raw)
; 1823 :     _STL_INTERNAL_CHECK(_Count >= 0);
; 1824 :     if constexpr (_Use_memset_value_construct_v<_NoThrowFwdIt>) {
; 1825 :         return _Zero_range(_UFirst, _UFirst + _Count);

  0001e	8d 04 37	 lea	 eax, DWORD PTR [edi+esi]
  00021	5f		 pop	 edi
  00022	5e		 pop	 esi

; 1826 :     } else {
; 1827 :         _Uninitialized_backout<_NoThrowFwdIt> _Backout{_UFirst};
; 1828 :         for (; 0 < _Count; --_Count) {
; 1829 :             _Backout._Emplace_back();
; 1830 :         }
; 1831 : 
; 1832 :         return _Backout._Release();
; 1833 :     }
; 1834 : }

  00023	5d		 pop	 ebp
  00024	c3		 ret	 0
??$_Uninitialized_value_construct_n_unchecked1@PAPAVCCoordinate@@I@std@@YAPAPAVCCoordinate@@PAPAV1@I@Z ENDP ; std::_Uninitialized_value_construct_n_unchecked1<CCoordinate * *,unsigned int>
_TEXT	ENDS
; Function compile flags: /Ogtp
; File C:\Program Files (x86)\Microsoft Visual Studio\2019\Community\VC\Tools\MSVC\14.29.30133\include\xmemory
; File C:\Program Files (x86)\Microsoft Visual Studio\2019\Community\VC\Tools\MSVC\14.29.30133\include\xutility
; File C:\Program Files (x86)\Microsoft Visual Studio\2019\Community\VC\Tools\MSVC\14.29.30133\include\xmemory
; File C:\Program Files (x86)\Microsoft Visual Studio\2019\Community\VC\Tools\MSVC\14.29.30133\include\xutility
; File C:\Program Files (x86)\Microsoft Visual Studio\2019\Community\VC\Tools\MSVC\14.29.30133\include\xmemory
; File C:\Program Files (x86)\Microsoft Visual Studio\2019\Community\VC\Tools\MSVC\14.29.30133\include\xutility
; File C:\Program Files (x86)\Microsoft Visual Studio\2019\Community\VC\Tools\MSVC\14.29.30133\include\xmemory
;	COMDAT ??$uninitialized_copy@PAPAVCCoordinate@@PAPAV1@@std@@YAPAPAVCCoordinate@@QAPAV1@0PAPAV1@@Z
_TEXT	SEGMENT
__First$ = 8						; size = 4
__Last$ = 12						; size = 4
__Dest$ = 16						; size = 4
??$uninitialized_copy@PAPAVCCoordinate@@PAPAV1@@std@@YAPAPAVCCoordinate@@QAPAV1@0PAPAV1@@Z PROC ; std::uninitialized_copy<CCoordinate * *,CCoordinate * *>, COMDAT

; 1687 : _NoThrowFwdIt uninitialized_copy(const _InIt _First, const _InIt _Last, _NoThrowFwdIt _Dest) {

  00000	55		 push	 ebp
  00001	8b ec		 mov	 ebp, esp
; File C:\Program Files (x86)\Microsoft Visual Studio\2019\Community\VC\Tools\MSVC\14.29.30133\include\xutility

; 4065 :     const auto _Count           = static_cast<size_t>(_Last_ch - _First_ch);

  00003	8b 45 08	 mov	 eax, DWORD PTR __First$[ebp]
; File C:\Program Files (x86)\Microsoft Visual Studio\2019\Community\VC\Tools\MSVC\14.29.30133\include\xmemory

; 1687 : _NoThrowFwdIt uninitialized_copy(const _InIt _First, const _InIt _Last, _NoThrowFwdIt _Dest) {

  00006	56		 push	 esi
; File C:\Program Files (x86)\Microsoft Visual Studio\2019\Community\VC\Tools\MSVC\14.29.30133\include\xutility

; 4066 :     _CSTD memmove(_Dest_ch, _First_ch, _Count);

  00007	8b 75 10	 mov	 esi, DWORD PTR __Dest$[ebp]
; File C:\Program Files (x86)\Microsoft Visual Studio\2019\Community\VC\Tools\MSVC\14.29.30133\include\xmemory

; 1687 : _NoThrowFwdIt uninitialized_copy(const _InIt _First, const _InIt _Last, _NoThrowFwdIt _Dest) {

  0000a	57		 push	 edi
; File C:\Program Files (x86)\Microsoft Visual Studio\2019\Community\VC\Tools\MSVC\14.29.30133\include\xutility

; 4065 :     const auto _Count           = static_cast<size_t>(_Last_ch - _First_ch);

  0000b	8b 7d 0c	 mov	 edi, DWORD PTR __Last$[ebp]
  0000e	2b f8		 sub	 edi, eax

; 4066 :     _CSTD memmove(_Dest_ch, _First_ch, _Count);

  00010	57		 push	 edi
  00011	50		 push	 eax
  00012	56		 push	 esi
  00013	e8 00 00 00 00	 call	 _memmove
  00018	83 c4 0c	 add	 esp, 12			; 0000000cH

; 4067 :     if constexpr (is_pointer_v<_OutCtgIt>) {
; 4068 :         return reinterpret_cast<_OutCtgIt>(_Dest_ch + _Count);

  0001b	8d 04 37	 lea	 eax, DWORD PTR [edi+esi]
; File C:\Program Files (x86)\Microsoft Visual Studio\2019\Community\VC\Tools\MSVC\14.29.30133\include\xmemory

; 1694 :     return _Dest;

  0001e	5f		 pop	 edi
  0001f	5e		 pop	 esi

; 1695 : }

  00020	5d		 pop	 ebp
  00021	c3		 ret	 0
??$uninitialized_copy@PAPAVCCoordinate@@PAPAV1@@std@@YAPAPAVCCoordinate@@QAPAV1@0PAPAV1@@Z ENDP ; std::uninitialized_copy<CCoordinate * *,CCoordinate * *>
_TEXT	ENDS
; Function compile flags: /Ogtp
; File C:\Program Files (x86)\Microsoft Visual Studio\2019\Community\VC\Tools\MSVC\14.29.30133\include\deque
; File C:\Program Files (x86)\Microsoft Visual Studio\2019\Community\VC\Tools\MSVC\14.29.30133\include\xmemory
; File C:\Program Files (x86)\Microsoft Visual Studio\2019\Community\VC\Tools\MSVC\14.29.30133\include\deque
; File C:\Program Files (x86)\Microsoft Visual Studio\2019\Community\VC\Tools\MSVC\14.29.30133\include\xmemory
; File C:\Program Files (x86)\Microsoft Visual Studio\2019\Community\VC\Tools\MSVC\14.29.30133\include\deque
; File C:\Program Files (x86)\Microsoft Visual Studio\2019\Community\VC\Tools\MSVC\14.29.30133\include\xmemory
; File C:\Program Files (x86)\Microsoft Visual Studio\2019\Community\VC\Tools\MSVC\14.29.30133\include\deque
;	COMDAT ?_Tidy@?$deque@VCCoordinate@@V?$allocator@VCCoordinate@@@std@@@std@@AAEXXZ
_TEXT	SEGMENT
?_Tidy@?$deque@VCCoordinate@@V?$allocator@VCCoordinate@@@std@@@std@@AAEXXZ PROC ; std::deque<CCoordinate,std::allocator<CCoordinate> >::_Tidy, COMDAT
; _this$ = ecx

; 1471 :     void _Tidy() noexcept { // free all storage

  00000	56		 push	 esi
  00001	8b f1		 mov	 esi, ecx

; 1002 :         return _Mysize() == 0;

  00003	8b 4e 10	 mov	 ecx, DWORD PTR [esi+16]
  00006	85 c9		 test	 ecx, ecx

; 1472 :         _Orphan_all();
; 1473 : 
; 1474 :         _Alpty _Almap(_Getal());
; 1475 :         while (!empty()) {

  00008	74 37		 je	 SHORT $LN3@Tidy
  0000a	66 0f 1f 44 00
	00		 npad	 6
$LL2@Tidy:

; 559  :         return (_Off / _Block_size) & (_Mapsize - 1);

  00010	8b 46 0c	 mov	 eax, DWORD PTR [esi+12]
  00013	48		 dec	 eax
  00014	03 c8		 add	 ecx, eax
  00016	8b 46 08	 mov	 eax, DWORD PTR [esi+8]
  00019	48		 dec	 eax
  0001a	23 c8		 and	 ecx, eax

; 1145 :         _Alty_traits::destroy(_Getal(), _Unfancy(_Map()[_Block] + _Newoff % _Block_size));

  0001c	8b 46 04	 mov	 eax, DWORD PTR [esi+4]
  0001f	8b 0c 88	 mov	 ecx, DWORD PTR [eax+ecx*4]
  00022	8d 49 14	 lea	 ecx, DWORD PTR [ecx+20]
  00025	ff 15 00 00 00
	00		 call	 DWORD PTR __imp_??1?$CStringT@DV?$StrTraitMFC_DLL@DV?$ChTraitsCRT@D@ATL@@@@@ATL@@QAE@XZ

; 1146 :         if (--_Mysize() == 0) {

  0002b	8b 4e 10	 mov	 ecx, DWORD PTR [esi+16]
  0002e	83 e9 01	 sub	 ecx, 1
  00031	89 4e 10	 mov	 DWORD PTR [esi+16], ecx
  00034	75 07		 jne	 SHORT $LN69@Tidy

; 1147 :             _Myoff() = 0;

  00036	c7 46 0c 00 00
	00 00		 mov	 DWORD PTR [esi+12], 0
$LN69@Tidy:

; 1002 :         return _Mysize() == 0;

  0003d	85 c9		 test	 ecx, ecx

; 1472 :         _Orphan_all();
; 1473 : 
; 1474 :         _Alpty _Almap(_Getal());
; 1475 :         while (!empty()) {

  0003f	75 cf		 jne	 SHORT $LL2@Tidy
$LN3@Tidy:
  00041	57		 push	 edi

; 1479 :         for (size_type _Block = _Mapsize(); 0 < _Block;) { // free storage for a block and destroy pointer

  00042	8b 7e 08	 mov	 edi, DWORD PTR [esi+8]
  00045	85 ff		 test	 edi, edi
  00047	74 21		 je	 SHORT $LN5@Tidy
  00049	0f 1f 80 00 00
	00 00		 npad	 7
$LL4@Tidy:

; 1480 :             if (_Map()[--_Block]) { // free block and destroy its pointer

  00050	8b 46 04	 mov	 eax, DWORD PTR [esi+4]
  00053	4f		 dec	 edi
  00054	8b 04 b8	 mov	 eax, DWORD PTR [eax+edi*4]
  00057	85 c0		 test	 eax, eax
  00059	74 0b		 je	 SHORT $LN31@Tidy
; File C:\Program Files (x86)\Microsoft Visual Studio\2019\Community\VC\Tools\MSVC\14.29.30133\include\xmemory

; 255  :         ::operator delete(_Ptr, _Bytes);

  0005b	6a 20		 push	 32			; 00000020H
  0005d	50		 push	 eax
  0005e	e8 00 00 00 00	 call	 ??3@YAXPAXI@Z		; operator delete
  00063	83 c4 08	 add	 esp, 8
$LN31@Tidy:
; File C:\Program Files (x86)\Microsoft Visual Studio\2019\Community\VC\Tools\MSVC\14.29.30133\include\deque

; 1479 :         for (size_type _Block = _Mapsize(); 0 < _Block;) { // free storage for a block and destroy pointer

  00066	85 ff		 test	 edi, edi
  00068	75 e6		 jne	 SHORT $LL4@Tidy
$LN5@Tidy:

; 1481 :                 _Getal().deallocate(_Map()[_Block], _Block_size);
; 1482 :                 _Destroy_in_place(_Map()[_Block]);
; 1483 :             }
; 1484 :         }
; 1485 : 
; 1486 :         if (_Map() != _Mapptr()) {

  0006a	8b 46 04	 mov	 eax, DWORD PTR [esi+4]
  0006d	5f		 pop	 edi
  0006e	85 c0		 test	 eax, eax
  00070	74 2a		 je	 SHORT $LN49@Tidy
; File C:\Program Files (x86)\Microsoft Visual Studio\2019\Community\VC\Tools\MSVC\14.29.30133\include\xmemory

; 797  :         _Deallocate<_New_alignof<_Ty>>(_Ptr, sizeof(_Ty) * _Count);

  00072	8b 4e 08	 mov	 ecx, DWORD PTR [esi+8]
  00075	c1 e1 02	 shl	 ecx, 2

; 251  :         if (_Bytes >= _Big_allocation_threshold) { // boost the alignment of big allocations to help autovectorization

  00078	81 f9 00 10 00
	00		 cmp	 ecx, 4096		; 00001000H
  0007e	72 12		 jb	 SHORT $LN59@Tidy

; 150  :     const uintptr_t _Ptr_container   = _Ptr_user[-1];

  00080	8b 50 fc	 mov	 edx, DWORD PTR [eax-4]
  00083	83 c1 23	 add	 ecx, 35			; 00000023H

; 151  : 
; 152  :     // If the following asserts, it likely means that we are performing
; 153  :     // an aligned delete on memory coming from an unaligned allocation.
; 154  :     _STL_ASSERT(_Ptr_user[-2] == _Big_allocation_sentinel, "invalid argument");
; 155  : 
; 156  :     // Extra paranoia on aligned allocation/deallocation; ensure _Ptr_container is
; 157  :     // in range [_Min_back_shift, _Non_user_size]
; 158  : #ifdef _DEBUG
; 159  :     constexpr uintptr_t _Min_back_shift = 2 * sizeof(void*);
; 160  : #else // ^^^ _DEBUG ^^^ // vvv !_DEBUG vvv
; 161  :     constexpr uintptr_t _Min_back_shift = sizeof(void*);
; 162  : #endif // _DEBUG
; 163  :     const uintptr_t _Back_shift = reinterpret_cast<uintptr_t>(_Ptr) - _Ptr_container;

  00086	2b c2		 sub	 eax, edx

; 164  :     _STL_VERIFY(_Back_shift >= _Min_back_shift && _Back_shift <= _Non_user_size, "invalid argument");

  00088	83 c0 fc	 add	 eax, -4			; fffffffcH
  0008b	83 f8 1f	 cmp	 eax, 31			; 0000001fH
  0008e	77 1c		 ja	 SHORT $LN56@Tidy

; 165  :     _Ptr = reinterpret_cast<void*>(_Ptr_container);

  00090	8b c2		 mov	 eax, edx
$LN59@Tidy:

; 255  :         ::operator delete(_Ptr, _Bytes);

  00092	51		 push	 ecx
  00093	50		 push	 eax
  00094	e8 00 00 00 00	 call	 ??3@YAXPAXI@Z		; operator delete
  00099	83 c4 08	 add	 esp, 8
$LN49@Tidy:
; File C:\Program Files (x86)\Microsoft Visual Studio\2019\Community\VC\Tools\MSVC\14.29.30133\include\deque

; 1490 :         _Mapsize() = 0;

  0009c	c7 46 08 00 00
	00 00		 mov	 DWORD PTR [esi+8], 0

; 1491 :         _Map()     = _Mapptr();

  000a3	c7 46 04 00 00
	00 00		 mov	 DWORD PTR [esi+4], 0
  000aa	5e		 pop	 esi

; 1492 :     }

  000ab	c3		 ret	 0
$LN56@Tidy:
; File C:\Program Files (x86)\Microsoft Visual Studio\2019\Community\VC\Tools\MSVC\14.29.30133\include\xmemory

; 164  :     _STL_VERIFY(_Back_shift >= _Min_back_shift && _Back_shift <= _Non_user_size, "invalid argument");

  000ac	ff 15 00 00 00
	00		 call	 DWORD PTR __imp___invalid_parameter_noinfo_noreturn
$LN70@Tidy:
  000b2	cc		 int	 3
?_Tidy@?$deque@VCCoordinate@@V?$allocator@VCCoordinate@@@std@@@std@@AAEXXZ ENDP ; std::deque<CCoordinate,std::allocator<CCoordinate> >::_Tidy
_TEXT	ENDS
; Function compile flags: /Ogtp
; File C:\Program Files (x86)\Microsoft Visual Studio\2019\Community\VC\Tools\MSVC\14.29.30133\include\deque
; File C:\Program Files (x86)\Microsoft Visual Studio\2019\Community\VC\Tools\MSVC\14.29.30133\include\xmemory
; File C:\Program Files (x86)\Microsoft Visual Studio\2019\Community\VC\Tools\MSVC\14.29.30133\include\deque
; File C:\Program Files (x86)\Microsoft Visual Studio\2019\Community\VC\Tools\MSVC\14.29.30133\include\xutility
; File C:\Program Files (x86)\Microsoft Visual Studio\2019\Community\VC\Tools\MSVC\14.29.30133\include\deque
; File C:\Program Files (x86)\Microsoft Visual Studio\2019\Community\VC\Tools\MSVC\14.29.30133\include\xutility
; File C:\Program Files (x86)\Microsoft Visual Studio\2019\Community\VC\Tools\MSVC\14.29.30133\include\deque
; File C:\Program Files (x86)\Microsoft Visual Studio\2019\Community\VC\Tools\MSVC\14.29.30133\include\xutility
; File C:\Program Files (x86)\Microsoft Visual Studio\2019\Community\VC\Tools\MSVC\14.29.30133\include\deque
; File C:\Program Files (x86)\Microsoft Visual Studio\2019\Community\VC\Tools\MSVC\14.29.30133\include\xutility
; File C:\Program Files (x86)\Microsoft Visual Studio\2019\Community\VC\Tools\MSVC\14.29.30133\include\deque
; File C:\Program Files (x86)\Microsoft Visual Studio\2019\Community\VC\Tools\MSVC\14.29.30133\include\xutility
; File C:\Program Files (x86)\Microsoft Visual Studio\2019\Community\VC\Tools\MSVC\14.29.30133\include\xmemory
; File C:\Program Files (x86)\Microsoft Visual Studio\2019\Community\VC\Tools\MSVC\14.29.30133\include\xutility
; File C:\Program Files (x86)\Microsoft Visual Studio\2019\Community\VC\Tools\MSVC\14.29.30133\include\xmemory
; File C:\Program Files (x86)\Microsoft Visual Studio\2019\Community\VC\Tools\MSVC\14.29.30133\include\deque
; File C:\Program Files (x86)\Microsoft Visual Studio\2019\Community\VC\Tools\MSVC\14.29.30133\include\xutility
; File C:\Program Files (x86)\Microsoft Visual Studio\2019\Community\VC\Tools\MSVC\14.29.30133\include\deque
; File C:\Program Files (x86)\Microsoft Visual Studio\2019\Community\VC\Tools\MSVC\14.29.30133\include\xutility
; File C:\Program Files (x86)\Microsoft Visual Studio\2019\Community\VC\Tools\MSVC\14.29.30133\include\deque
; File C:\Program Files (x86)\Microsoft Visual Studio\2019\Community\VC\Tools\MSVC\14.29.30133\include\xutility
; File C:\Program Files (x86)\Microsoft Visual Studio\2019\Community\VC\Tools\MSVC\14.29.30133\include\xmemory
; File C:\Program Files (x86)\Microsoft Visual Studio\2019\Community\VC\Tools\MSVC\14.29.30133\include\xutility
; File C:\Program Files (x86)\Microsoft Visual Studio\2019\Community\VC\Tools\MSVC\14.29.30133\include\xmemory
; File C:\Program Files (x86)\Microsoft Visual Studio\2019\Community\VC\Tools\MSVC\14.29.30133\include\xutility
; File C:\Program Files (x86)\Microsoft Visual Studio\2019\Community\VC\Tools\MSVC\14.29.30133\include\xmemory
; File C:\Program Files (x86)\Microsoft Visual Studio\2019\Community\VC\Tools\MSVC\14.29.30133\include\deque
; File C:\Program Files (x86)\Microsoft Visual Studio\2019\Community\VC\Tools\MSVC\14.29.30133\include\xmemory
; File C:\Program Files (x86)\Microsoft Visual Studio\2019\Community\VC\Tools\MSVC\14.29.30133\include\deque
; File C:\Program Files (x86)\Microsoft Visual Studio\2019\Community\VC\Tools\MSVC\14.29.30133\include\xmemory
; File C:\Program Files (x86)\Microsoft Visual Studio\2019\Community\VC\Tools\MSVC\14.29.30133\include\deque
; File C:\Program Files (x86)\Microsoft Visual Studio\2019\Community\VC\Tools\MSVC\14.29.30133\include\xmemory
; File C:\Program Files (x86)\Microsoft Visual Studio\2019\Community\VC\Tools\MSVC\14.29.30133\include\deque
;	COMDAT ?_Growmap@?$deque@VCCoordinate@@V?$allocator@VCCoordinate@@@std@@@std@@AAEXI@Z
_TEXT	SEGMENT
__Myptr$1$ = -12					; size = 4
_this$1$ = -8						; size = 4
__Myboff$1$ = -4					; size = 4
$T1 = 8							; size = 4
__Count$ = 8						; size = 4
?_Growmap@?$deque@VCCoordinate@@V?$allocator@VCCoordinate@@@std@@@std@@AAEXI@Z PROC ; std::deque<CCoordinate,std::allocator<CCoordinate> >::_Growmap, COMDAT
; _this$ = ecx

; 1432 :     void _Growmap(size_type _Count) { // grow map by at least _Count pointers, _Mapsize() a power of 2

  00000	55		 push	 ebp
  00001	8b ec		 mov	 ebp, esp
  00003	83 ec 0c	 sub	 esp, 12			; 0000000cH
  00006	53		 push	 ebx
  00007	56		 push	 esi
  00008	8b f1		 mov	 esi, ecx

; 1433 :         static_assert(1 < _Minimum_map_size, "The _Xlen() test should always be performed.");
; 1434 : 
; 1435 :         _Alpty _Almap(_Getal());
; 1436 :         size_type _Newsize = 0 < _Mapsize() ? _Mapsize() : 1;

  0000a	b8 01 00 00 00	 mov	 eax, 1
  0000f	57		 push	 edi
  00010	8b 7d 08	 mov	 edi, DWORD PTR __Count$[ebp]
  00013	89 75 f8	 mov	 DWORD PTR _this$1$[ebp], esi
  00016	8b 56 08	 mov	 edx, DWORD PTR [esi+8]
  00019	85 d2		 test	 edx, edx
  0001b	0f 45 c2	 cmovne	 eax, edx
  0001e	66 90		 npad	 2
$LL2@Growmap:

; 1437 :         while (_Newsize - _Mapsize() < _Count || _Newsize < _Minimum_map_size) {

  00020	8b d8		 mov	 ebx, eax
  00022	2b da		 sub	 ebx, edx
  00024	3b df		 cmp	 ebx, edi
  00026	72 05		 jb	 SHORT $LN4@Growmap
  00028	83 f8 08	 cmp	 eax, 8
  0002b	73 13		 jae	 SHORT $LN3@Growmap
$LN4@Growmap:

; 1438 :             // scale _Newsize to 2^N >= _Mapsize() + _Count
; 1439 :             if (max_size() / _Block_size - _Newsize < _Newsize) {

  0002d	b9 ff ff ff 07	 mov	 ecx, 134217727		; 07ffffffH
  00032	2b c8		 sub	 ecx, eax
  00034	3b c8		 cmp	 ecx, eax
  00036	0f 82 4a 01 00
	00		 jb	 $LN138@Growmap

; 1441 :             }
; 1442 : 
; 1443 :             _Newsize *= 2;

  0003c	03 c0		 add	 eax, eax

; 1444 :         }

  0003e	eb e0		 jmp	 SHORT $LL2@Growmap
$LN3@Growmap:

; 1445 :         _Count = _Newsize - _Mapsize();
; 1446 : 
; 1447 :         size_type _Myboff = _Myoff() / _Block_size;

  00040	8b 7e 0c	 mov	 edi, DWORD PTR [esi+12]
  00043	89 7d fc	 mov	 DWORD PTR __Myboff$1$[ebp], edi
; File C:\Program Files (x86)\Microsoft Visual Studio\2019\Community\VC\Tools\MSVC\14.29.30133\include\xmemory

; 60   :         if (_Count > _Max_possible) {

  00046	3d ff ff ff 3f	 cmp	 eax, 1073741823		; 3fffffffH
  0004b	0f 87 3c 01 00
	00		 ja	 $LN142@Growmap

; 61   :             _Throw_bad_array_new_length(); // multiply overflow
; 62   :         }
; 63   :     }
; 64   : 
; 65   :     return _Count * _Ty_size;

  00051	c1 e0 02	 shl	 eax, 2

; 228  :         if (_Bytes >= _Big_allocation_threshold) { // boost the alignment of big allocations to help autovectorization

  00054	3d 00 10 00 00	 cmp	 eax, 4096		; 00001000H
  00059	72 27		 jb	 SHORT $LN19@Growmap

; 129  :     const size_t _Block_size = _Non_user_size + _Bytes;

  0005b	8d 48 23	 lea	 ecx, DWORD PTR [eax+35]

; 130  :     if (_Block_size <= _Bytes) {

  0005e	3b c8		 cmp	 ecx, eax
  00060	0f 86 27 01 00
	00		 jbe	 $LN142@Growmap

; 79   :         return ::operator new(_Bytes);

  00066	51		 push	 ecx
  00067	e8 00 00 00 00	 call	 ??2@YAPAXI@Z		; operator new
  0006c	83 c4 04	 add	 esp, 4

; 135  :     _STL_VERIFY(_Ptr_container != 0, "invalid argument"); // validate even in release since we're doing p[-1]

  0006f	85 c0		 test	 eax, eax
  00071	0f 84 09 01 00
	00		 je	 $LN130@Growmap

; 136  :     void* const _Ptr = reinterpret_cast<void*>((_Ptr_container + _Non_user_size) & ~(_Big_allocation_alignment - 1));

  00077	8d 50 23	 lea	 edx, DWORD PTR [eax+35]
  0007a	83 e2 e0	 and	 edx, -32		; ffffffe0H

; 137  :     static_cast<uintptr_t*>(_Ptr)[-1] = _Ptr_container;

  0007d	89 42 fc	 mov	 DWORD PTR [edx-4], eax

; 229  :             return _Allocate_manually_vector_aligned<_Traits>(_Bytes);

  00080	eb 13		 jmp	 SHORT $LN145@Growmap
$LN19@Growmap:

; 230  :         }
; 231  :     }
; 232  : #endif // defined(_M_IX86) || defined(_M_X64)
; 233  : 
; 234  :     if (_Bytes != 0) {

  00082	85 c0		 test	 eax, eax
  00084	74 0d		 je	 SHORT $LN20@Growmap

; 79   :         return ::operator new(_Bytes);

  00086	50		 push	 eax
  00087	e8 00 00 00 00	 call	 ??2@YAPAXI@Z		; operator new
  0008c	83 c4 04	 add	 esp, 4

; 235  :         return _Traits::_Allocate(_Bytes);

  0008f	8b d0		 mov	 edx, eax
  00091	eb 02		 jmp	 SHORT $LN145@Growmap
$LN20@Growmap:

; 236  :     }
; 237  : 
; 238  :     return nullptr;

  00093	33 d2		 xor	 edx, edx
$LN145@Growmap:
; File C:\Program Files (x86)\Microsoft Visual Studio\2019\Community\VC\Tools\MSVC\14.29.30133\include\deque

; 1451 :         _Myptr = _STD uninitialized_copy(_Map() + _Myboff, _Map() + _Mapsize(), _Myptr); // copy initial to end

  00095	8b 46 04	 mov	 eax, DWORD PTR [esi+4]
  00098	8b 76 08	 mov	 esi, DWORD PTR [esi+8]
  0009b	c1 e7 02	 shl	 edi, 2
  0009e	c1 e6 02	 shl	 esi, 2
  000a1	89 55 08	 mov	 DWORD PTR $T1[ebp], edx
  000a4	8d 0c 38	 lea	 ecx, DWORD PTR [eax+edi]
  000a7	03 fa		 add	 edi, edx
; File C:\Program Files (x86)\Microsoft Visual Studio\2019\Community\VC\Tools\MSVC\14.29.30133\include\xutility

; 4065 :     const auto _Count           = static_cast<size_t>(_Last_ch - _First_ch);

  000a9	2b f1		 sub	 esi, ecx
; File C:\Program Files (x86)\Microsoft Visual Studio\2019\Community\VC\Tools\MSVC\14.29.30133\include\deque

; 1451 :         _Myptr = _STD uninitialized_copy(_Map() + _Myboff, _Map() + _Mapsize(), _Myptr); // copy initial to end

  000ab	03 f0		 add	 esi, eax
; File C:\Program Files (x86)\Microsoft Visual Studio\2019\Community\VC\Tools\MSVC\14.29.30133\include\xutility

; 4066 :     _CSTD memmove(_Dest_ch, _First_ch, _Count);

  000ad	56		 push	 esi
  000ae	51		 push	 ecx
  000af	57		 push	 edi
  000b0	e8 00 00 00 00	 call	 _memmove
; File C:\Program Files (x86)\Microsoft Visual Studio\2019\Community\VC\Tools\MSVC\14.29.30133\include\deque

; 1452 :         if (_Myboff <= _Count) { // increment greater than offset of initial block

  000b5	8b 4d fc	 mov	 ecx, DWORD PTR __Myboff$1$[ebp]
; File C:\Program Files (x86)\Microsoft Visual Studio\2019\Community\VC\Tools\MSVC\14.29.30133\include\xutility

; 4068 :         return reinterpret_cast<_OutCtgIt>(_Dest_ch + _Count);

  000b8	8d 04 3e	 lea	 eax, DWORD PTR [esi+edi]
; File C:\Program Files (x86)\Microsoft Visual Studio\2019\Community\VC\Tools\MSVC\14.29.30133\include\deque

; 1451 :         _Myptr = _STD uninitialized_copy(_Map() + _Myboff, _Map() + _Mapsize(), _Myptr); // copy initial to end

  000bb	8b 75 f8	 mov	 esi, DWORD PTR _this$1$[ebp]
; File C:\Program Files (x86)\Microsoft Visual Studio\2019\Community\VC\Tools\MSVC\14.29.30133\include\xutility

; 4066 :     _CSTD memmove(_Dest_ch, _First_ch, _Count);

  000be	83 c4 0c	 add	 esp, 12			; 0000000cH

; 4068 :         return reinterpret_cast<_OutCtgIt>(_Dest_ch + _Count);

  000c1	89 45 f4	 mov	 DWORD PTR __Myptr$1$[ebp], eax
; File C:\Program Files (x86)\Microsoft Visual Studio\2019\Community\VC\Tools\MSVC\14.29.30133\include\deque

; 1451 :         _Myptr = _STD uninitialized_copy(_Map() + _Myboff, _Map() + _Mapsize(), _Myptr); // copy initial to end

  000c4	8b 56 04	 mov	 edx, DWORD PTR [esi+4]

; 1452 :         if (_Myboff <= _Count) { // increment greater than offset of initial block

  000c7	3b cb		 cmp	 ecx, ebx
  000c9	77 33		 ja	 SHORT $LN6@Growmap
; File C:\Program Files (x86)\Microsoft Visual Studio\2019\Community\VC\Tools\MSVC\14.29.30133\include\xutility

; 4066 :     _CSTD memmove(_Dest_ch, _First_ch, _Count);

  000cb	8d 3c 8d 00 00
	00 00		 lea	 edi, DWORD PTR [ecx*4]
  000d2	57		 push	 edi
  000d3	52		 push	 edx
  000d4	50		 push	 eax
  000d5	e8 00 00 00 00	 call	 _memmove
; File C:\Program Files (x86)\Microsoft Visual Studio\2019\Community\VC\Tools\MSVC\14.29.30133\include\xmemory

; 1792 :     _CSTD memset(_First_ch, 0, static_cast<size_t>(_Last_ch - _First_ch));

  000da	8b c3		 mov	 eax, ebx
  000dc	2b 45 fc	 sub	 eax, DWORD PTR __Myboff$1$[ebp]
  000df	c1 e0 02	 shl	 eax, 2
  000e2	50		 push	 eax
; File C:\Program Files (x86)\Microsoft Visual Studio\2019\Community\VC\Tools\MSVC\14.29.30133\include\xutility

; 4068 :         return reinterpret_cast<_OutCtgIt>(_Dest_ch + _Count);

  000e3	8b 45 f4	 mov	 eax, DWORD PTR __Myptr$1$[ebp]
  000e6	03 c7		 add	 eax, edi
; File C:\Program Files (x86)\Microsoft Visual Studio\2019\Community\VC\Tools\MSVC\14.29.30133\include\xmemory

; 1792 :     _CSTD memset(_First_ch, 0, static_cast<size_t>(_Last_ch - _First_ch));

  000e8	6a 00		 push	 0
  000ea	50		 push	 eax
  000eb	e8 00 00 00 00	 call	 _memset
  000f0	57		 push	 edi
  000f1	8b 7d 08	 mov	 edi, DWORD PTR $T1[ebp]
  000f4	6a 00		 push	 0
  000f6	57		 push	 edi
  000f7	e8 00 00 00 00	 call	 _memset
; File C:\Program Files (x86)\Microsoft Visual Studio\2019\Community\VC\Tools\MSVC\14.29.30133\include\deque

; 1456 :         } else { // increment not greater than offset of initial block

  000fc	eb 3f		 jmp	 SHORT $LN146@Growmap
$LN6@Growmap:

; 1457 :             _STD uninitialized_copy(_Map(), _Map() + _Count, _Myptr); // copy more old

  000fe	8d 3c 9d 00 00
	00 00		 lea	 edi, DWORD PTR [ebx*4]
; File C:\Program Files (x86)\Microsoft Visual Studio\2019\Community\VC\Tools\MSVC\14.29.30133\include\xutility

; 4066 :     _CSTD memmove(_Dest_ch, _First_ch, _Count);

  00105	57		 push	 edi
  00106	52		 push	 edx
  00107	50		 push	 eax
  00108	e8 00 00 00 00	 call	 _memmove
; File C:\Program Files (x86)\Microsoft Visual Studio\2019\Community\VC\Tools\MSVC\14.29.30133\include\deque

; 1458 :             _Myptr = _STD uninitialized_copy(_Map() + _Count, _Map() + _Myboff, _Newmap); // copy rest of old

  0010d	8b 76 04	 mov	 esi, DWORD PTR [esi+4]
  00110	8b 55 fc	 mov	 edx, DWORD PTR __Myboff$1$[ebp]
  00113	8d 04 37	 lea	 eax, DWORD PTR [edi+esi]
; File C:\Program Files (x86)\Microsoft Visual Studio\2019\Community\VC\Tools\MSVC\14.29.30133\include\xutility

; 4065 :     const auto _Count           = static_cast<size_t>(_Last_ch - _First_ch);

  00116	2b f0		 sub	 esi, eax
; File C:\Program Files (x86)\Microsoft Visual Studio\2019\Community\VC\Tools\MSVC\14.29.30133\include\deque

; 1458 :             _Myptr = _STD uninitialized_copy(_Map() + _Count, _Map() + _Myboff, _Newmap); // copy rest of old

  00118	8d 0c 95 00 00
	00 00		 lea	 ecx, DWORD PTR [edx*4]
  0011f	03 f1		 add	 esi, ecx
; File C:\Program Files (x86)\Microsoft Visual Studio\2019\Community\VC\Tools\MSVC\14.29.30133\include\xutility

; 4066 :     _CSTD memmove(_Dest_ch, _First_ch, _Count);

  00121	56		 push	 esi
  00122	50		 push	 eax
  00123	ff 75 08	 push	 DWORD PTR $T1[ebp]
  00126	e8 00 00 00 00	 call	 _memmove
; File C:\Program Files (x86)\Microsoft Visual Studio\2019\Community\VC\Tools\MSVC\14.29.30133\include\xmemory

; 1792 :     _CSTD memset(_First_ch, 0, static_cast<size_t>(_Last_ch - _First_ch));

  0012b	57		 push	 edi
; File C:\Program Files (x86)\Microsoft Visual Studio\2019\Community\VC\Tools\MSVC\14.29.30133\include\xutility

; 4068 :         return reinterpret_cast<_OutCtgIt>(_Dest_ch + _Count);

  0012c	8b 7d 08	 mov	 edi, DWORD PTR $T1[ebp]
; File C:\Program Files (x86)\Microsoft Visual Studio\2019\Community\VC\Tools\MSVC\14.29.30133\include\xmemory

; 1792 :     _CSTD memset(_First_ch, 0, static_cast<size_t>(_Last_ch - _First_ch));

  0012f	6a 00		 push	 0
; File C:\Program Files (x86)\Microsoft Visual Studio\2019\Community\VC\Tools\MSVC\14.29.30133\include\xutility

; 4068 :         return reinterpret_cast<_OutCtgIt>(_Dest_ch + _Count);

  00131	8d 04 3e	 lea	 eax, DWORD PTR [esi+edi]
; File C:\Program Files (x86)\Microsoft Visual Studio\2019\Community\VC\Tools\MSVC\14.29.30133\include\xmemory

; 1792 :     _CSTD memset(_First_ch, 0, static_cast<size_t>(_Last_ch - _First_ch));

  00134	50		 push	 eax
  00135	e8 00 00 00 00	 call	 _memset
  0013a	8b 75 f8	 mov	 esi, DWORD PTR _this$1$[ebp]
$LN146@Growmap:
; File C:\Program Files (x86)\Microsoft Visual Studio\2019\Community\VC\Tools\MSVC\14.29.30133\include\deque

; 1463 :         if (_Map() != _Mapptr()) {

  0013d	8b 46 04	 mov	 eax, DWORD PTR [esi+4]
  00140	83 c4 24	 add	 esp, 36			; 00000024H
  00143	85 c0		 test	 eax, eax
  00145	74 2a		 je	 SHORT $LN123@Growmap
; File C:\Program Files (x86)\Microsoft Visual Studio\2019\Community\VC\Tools\MSVC\14.29.30133\include\xmemory

; 797  :         _Deallocate<_New_alignof<_Ty>>(_Ptr, sizeof(_Ty) * _Count);

  00147	8b 4e 08	 mov	 ecx, DWORD PTR [esi+8]
  0014a	c1 e1 02	 shl	 ecx, 2

; 251  :         if (_Bytes >= _Big_allocation_threshold) { // boost the alignment of big allocations to help autovectorization

  0014d	81 f9 00 10 00
	00		 cmp	 ecx, 4096		; 00001000H
  00153	72 12		 jb	 SHORT $LN133@Growmap

; 150  :     const uintptr_t _Ptr_container   = _Ptr_user[-1];

  00155	8b 50 fc	 mov	 edx, DWORD PTR [eax-4]
  00158	83 c1 23	 add	 ecx, 35			; 00000023H

; 151  : 
; 152  :     // If the following asserts, it likely means that we are performing
; 153  :     // an aligned delete on memory coming from an unaligned allocation.
; 154  :     _STL_ASSERT(_Ptr_user[-2] == _Big_allocation_sentinel, "invalid argument");
; 155  : 
; 156  :     // Extra paranoia on aligned allocation/deallocation; ensure _Ptr_container is
; 157  :     // in range [_Min_back_shift, _Non_user_size]
; 158  : #ifdef _DEBUG
; 159  :     constexpr uintptr_t _Min_back_shift = 2 * sizeof(void*);
; 160  : #else // ^^^ _DEBUG ^^^ // vvv !_DEBUG vvv
; 161  :     constexpr uintptr_t _Min_back_shift = sizeof(void*);
; 162  : #endif // _DEBUG
; 163  :     const uintptr_t _Back_shift = reinterpret_cast<uintptr_t>(_Ptr) - _Ptr_container;

  0015b	2b c2		 sub	 eax, edx

; 164  :     _STL_VERIFY(_Back_shift >= _Min_back_shift && _Back_shift <= _Non_user_size, "invalid argument");

  0015d	83 c0 fc	 add	 eax, -4			; fffffffcH
  00160	83 f8 1f	 cmp	 eax, 31			; 0000001fH
  00163	77 1b		 ja	 SHORT $LN130@Growmap

; 165  :     _Ptr = reinterpret_cast<void*>(_Ptr_container);

  00165	8b c2		 mov	 eax, edx
$LN133@Growmap:

; 255  :         ::operator delete(_Ptr, _Bytes);

  00167	51		 push	 ecx
  00168	50		 push	 eax
  00169	e8 00 00 00 00	 call	 ??3@YAXPAXI@Z		; operator delete
  0016e	83 c4 08	 add	 esp, 8
$LN123@Growmap:
; File C:\Program Files (x86)\Microsoft Visual Studio\2019\Community\VC\Tools\MSVC\14.29.30133\include\deque

; 1468 :         _Mapsize() += _Count;

  00171	01 5e 08	 add	 DWORD PTR [esi+8], ebx
  00174	89 7e 04	 mov	 DWORD PTR [esi+4], edi
  00177	5f		 pop	 edi
  00178	5e		 pop	 esi
  00179	5b		 pop	 ebx

; 1469 :     }

  0017a	8b e5		 mov	 esp, ebp
  0017c	5d		 pop	 ebp
  0017d	c2 04 00	 ret	 4
$LN130@Growmap:
; File C:\Program Files (x86)\Microsoft Visual Studio\2019\Community\VC\Tools\MSVC\14.29.30133\include\xmemory

; 164  :     _STL_VERIFY(_Back_shift >= _Min_back_shift && _Back_shift <= _Non_user_size, "invalid argument");

  00180	ff 15 00 00 00
	00		 call	 DWORD PTR __imp___invalid_parameter_noinfo_noreturn
$LN138@Growmap:
; File C:\Program Files (x86)\Microsoft Visual Studio\2019\Community\VC\Tools\MSVC\14.29.30133\include\deque

; 1440 :                 _Xlen(); // result too long

  00186	8b ce		 mov	 ecx, esi
  00188	e8 00 00 00 00	 call	 ?_Xlen@?$deque@VCCoordinate@@V?$allocator@VCCoordinate@@@std@@@std@@ABEXXZ ; std::deque<CCoordinate,std::allocator<CCoordinate> >::_Xlen
$LN142@Growmap:
; File C:\Program Files (x86)\Microsoft Visual Studio\2019\Community\VC\Tools\MSVC\14.29.30133\include\xmemory

; 131  :         _Throw_bad_array_new_length(); // add overflow

  0018d	e8 00 00 00 00	 call	 ?_Throw_bad_array_new_length@std@@YAXXZ ; std::_Throw_bad_array_new_length
$LN144@Growmap:
  00192	cc		 int	 3
?_Growmap@?$deque@VCCoordinate@@V?$allocator@VCCoordinate@@@std@@@std@@AAEXI@Z ENDP ; std::deque<CCoordinate,std::allocator<CCoordinate> >::_Growmap
_TEXT	ENDS
; Function compile flags: /Ogtp
; File C:\Program Files (x86)\Microsoft Visual Studio\2019\Community\VC\Tools\MSVC\14.29.30133\include\deque
;	COMDAT ?_Xlen@?$deque@VCCoordinate@@V?$allocator@VCCoordinate@@@std@@@std@@ABEXXZ
_TEXT	SEGMENT
?_Xlen@?$deque@VCCoordinate@@V?$allocator@VCCoordinate@@@std@@@std@@ABEXXZ PROC ; std::deque<CCoordinate,std::allocator<CCoordinate> >::_Xlen, COMDAT
; _this$ = ecx

; 1425 :         _Xlength_error("deque<T> too long");

  00000	68 00 00 00 00	 push	 OFFSET ??_C@_0BC@KBDMBKEH@deque?$DMT?$DO?5too?5long@
  00005	e8 00 00 00 00	 call	 ?_Xlength_error@std@@YAXPBD@Z ; std::_Xlength_error
$LN3@Xlen:
  0000a	cc		 int	 3
?_Xlen@?$deque@VCCoordinate@@V?$allocator@VCCoordinate@@@std@@@std@@ABEXXZ ENDP ; std::deque<CCoordinate,std::allocator<CCoordinate> >::_Xlen
_TEXT	ENDS
; Function compile flags: /Ogtp
; File D:\git\src\IBK\IBK_DRFN\ProjSrc\SrcChartEx\ChartAddIn\ChartAnalysisToolAddIn\Include_Chart\DequeList.h
; File C:\Program Files (x86)\Microsoft Visual Studio\2019\Community\VC\Tools\MSVC\14.29.30133\include\deque
; File C:\Program Files (x86)\Microsoft Visual Studio\2019\Community\VC\Tools\MSVC\14.29.30133\include\utility
; File C:\Program Files (x86)\Microsoft Visual Studio\2019\Community\VC\Tools\MSVC\14.29.30133\include\xmemory
; File C:\Program Files (x86)\Microsoft Visual Studio\2019\Community\VC\Tools\MSVC\14.29.30133\include\utility
; File C:\Program Files (x86)\Microsoft Visual Studio\2019\Community\VC\Tools\MSVC\14.29.30133\include\xmemory
; File D:\git\src\IBK\IBK_DRFN\ProjSrc\SrcChartEx\ChartAddIn\ChartAnalysisToolAddIn\Include_Chart\DequeList.h
;	COMDAT ??1?$CDequeList@VCCoordinate@@@@QAE@XZ
_TEXT	SEGMENT
??1?$CDequeList@VCCoordinate@@@@QAE@XZ PROC		; CDequeList<CCoordinate>::~CDequeList<CCoordinate>, COMDAT
; _this$ = ecx

; 34   : 	~CDequeList() { m_deque.clear(); };

  00000	56		 push	 esi
  00001	8b f1		 mov	 esi, ecx
; File C:\Program Files (x86)\Microsoft Visual Studio\2019\Community\VC\Tools\MSVC\14.29.30133\include\deque

; 1332 :         _Tidy();

  00003	e8 00 00 00 00	 call	 ?_Tidy@?$deque@VCCoordinate@@V?$allocator@VCCoordinate@@@std@@@std@@AAEXXZ ; std::deque<CCoordinate,std::allocator<CCoordinate> >::_Tidy

; 861  :         _Tidy();

  00008	8b ce		 mov	 ecx, esi
  0000a	e8 00 00 00 00	 call	 ?_Tidy@?$deque@VCCoordinate@@V?$allocator@VCCoordinate@@@std@@@std@@AAEXXZ ; std::deque<CCoordinate,std::allocator<CCoordinate> >::_Tidy
; File C:\Program Files (x86)\Microsoft Visual Studio\2019\Community\VC\Tools\MSVC\14.29.30133\include\utility

; 602  :     _Ty _Old_val = static_cast<_Ty&&>(_Val);

  0000f	8b 06		 mov	 eax, DWORD PTR [esi]
; File C:\Program Files (x86)\Microsoft Visual Studio\2019\Community\VC\Tools\MSVC\14.29.30133\include\xmemory

; 255  :         ::operator delete(_Ptr, _Bytes);

  00011	6a 08		 push	 8
  00013	50		 push	 eax
; File C:\Program Files (x86)\Microsoft Visual Studio\2019\Community\VC\Tools\MSVC\14.29.30133\include\utility

; 603  :     _Val         = static_cast<_Other&&>(_New_val);

  00014	c7 06 00 00 00
	00		 mov	 DWORD PTR [esi], 0
; File C:\Program Files (x86)\Microsoft Visual Studio\2019\Community\VC\Tools\MSVC\14.29.30133\include\xmemory

; 255  :         ::operator delete(_Ptr, _Bytes);

  0001a	e8 00 00 00 00	 call	 ??3@YAXPAXI@Z		; operator delete
  0001f	83 c4 08	 add	 esp, 8
  00022	5e		 pop	 esi
; File D:\git\src\IBK\IBK_DRFN\ProjSrc\SrcChartEx\ChartAddIn\ChartAnalysisToolAddIn\Include_Chart\DequeList.h

; 34   : 	~CDequeList() { m_deque.clear(); };

  00023	c3		 ret	 0
??1?$CDequeList@VCCoordinate@@@@QAE@XZ ENDP		; CDequeList<CCoordinate>::~CDequeList<CCoordinate>
_TEXT	ENDS
; Function compile flags: /Ogtp
;	COMDAT ??1CCoordinate@@QAE@XZ
_TEXT	SEGMENT
??1CCoordinate@@QAE@XZ PROC				; CCoordinate::~CCoordinate, COMDAT
; _this$ = ecx
  00000	83 c1 14	 add	 ecx, 20			; 00000014H
  00003	ff 25 00 00 00
	00		 jmp	 DWORD PTR __imp_??1?$CStringT@DV?$StrTraitMFC_DLL@DV?$ChTraitsCRT@D@ATL@@@@@ATL@@QAE@XZ
??1CCoordinate@@QAE@XZ ENDP				; CCoordinate::~CCoordinate
_TEXT	ENDS
; Function compile flags: /Ogtp
;	COMDAT ??1CElementCommonEnvironment@@QAE@XZ
_TEXT	SEGMENT
??1CElementCommonEnvironment@@QAE@XZ PROC		; CElementCommonEnvironment::~CElementCommonEnvironment, COMDAT
; _this$ = ecx
  00000	56		 push	 esi
  00001	8b f1		 mov	 esi, ecx
  00003	8d 4e 38	 lea	 ecx, DWORD PTR [esi+56]
  00006	ff 15 00 00 00
	00		 call	 DWORD PTR __imp_??1?$CStringT@DV?$StrTraitMFC_DLL@DV?$ChTraitsCRT@D@ATL@@@@@ATL@@QAE@XZ
  0000c	8d 4e 34	 lea	 ecx, DWORD PTR [esi+52]
  0000f	ff 15 00 00 00
	00		 call	 DWORD PTR __imp_??1?$CStringT@DV?$StrTraitMFC_DLL@DV?$ChTraitsCRT@D@ATL@@@@@ATL@@QAE@XZ
  00015	8d 4e 30	 lea	 ecx, DWORD PTR [esi+48]
  00018	5e		 pop	 esi
  00019	ff 25 00 00 00
	00		 jmp	 DWORD PTR __imp_??1?$CStringT@DV?$StrTraitMFC_DLL@DV?$ChTraitsCRT@D@ATL@@@@@ATL@@QAE@XZ
??1CElementCommonEnvironment@@QAE@XZ ENDP		; CElementCommonEnvironment::~CElementCommonEnvironment
_TEXT	ENDS
; Function compile flags: /Ogtp
;	COMDAT ??1CDataTypeEnvironment@@QAE@XZ
_TEXT	SEGMENT
??1CDataTypeEnvironment@@QAE@XZ PROC			; CDataTypeEnvironment::~CDataTypeEnvironment, COMDAT
; _this$ = ecx
  00000	56		 push	 esi
  00001	8b f1		 mov	 esi, ecx
  00003	8d 4e 18	 lea	 ecx, DWORD PTR [esi+24]
  00006	ff 15 00 00 00
	00		 call	 DWORD PTR __imp_??1?$CStringT@DV?$StrTraitMFC_DLL@DV?$ChTraitsCRT@D@ATL@@@@@ATL@@QAE@XZ
  0000c	8d 4e 14	 lea	 ecx, DWORD PTR [esi+20]
  0000f	ff 15 00 00 00
	00		 call	 DWORD PTR __imp_??1?$CStringT@DV?$StrTraitMFC_DLL@DV?$ChTraitsCRT@D@ATL@@@@@ATL@@QAE@XZ
  00015	8d 4e 10	 lea	 ecx, DWORD PTR [esi+16]
  00018	5e		 pop	 esi
  00019	ff 25 00 00 00
	00		 jmp	 DWORD PTR __imp_??1?$CStringT@DV?$StrTraitMFC_DLL@DV?$ChTraitsCRT@D@ATL@@@@@ATL@@QAE@XZ
??1CDataTypeEnvironment@@QAE@XZ ENDP			; CDataTypeEnvironment::~CDataTypeEnvironment
_TEXT	ENDS
; Function compile flags: /Ogtp
; File D:\git\src\IBK\IBK_DRFN\ProjSrc\SrcChartEx\ChartAddIn\ChartAnalysisToolAddIn\AnalysisTool\ElementTreeBuilder.cpp
; File C:\Program Files (x86)\Microsoft Visual Studio\2019\Community\VC\Tools\MSVC\14.29.30133\atlmfc\include\atlsimpstr.h
; File D:\git\src\IBK\IBK_DRFN\ProjSrc\SrcChartEx\ChartAddIn\ChartAnalysisToolAddIn\AnalysisTool\ElementTreeBuilder.cpp
; File C:\Program Files (x86)\Microsoft Visual Studio\2019\Community\VC\Tools\MSVC\14.29.30133\atlmfc\include\atlsimpstr.h
; File D:\git\src\IBK\IBK_DRFN\ProjSrc\SrcChartEx\ChartAddIn\ChartAnalysisToolAddIn\AnalysisTool\ElementTreeBuilder.cpp
;	COMDAT ?GetTrimData@CElementTreeBuilder@@ABE?AV?$CStringT@DV?$StrTraitMFC_DLL@DV?$ChTraitsCRT@D@ATL@@@@@ATL@@AAV23@ABV23@@Z
_TEXT	SEGMENT
___$ReturnUdt$ = 8					; size = 4
_strData$ = 12						; size = 4
_strTrimData$ = 16					; size = 4
?GetTrimData@CElementTreeBuilder@@ABE?AV?$CStringT@DV?$StrTraitMFC_DLL@DV?$ChTraitsCRT@D@ATL@@@@@ATL@@AAV23@ABV23@@Z PROC ; CElementTreeBuilder::GetTrimData, COMDAT
; _this$ = ecx

; 809  : {

  00000	55		 push	 ebp
  00001	8b ec		 mov	 ebp, esp
; File C:\Program Files (x86)\Microsoft Visual Studio\2019\Community\VC\Tools\MSVC\14.29.30133\atlmfc\include\atlsimpstr.h

; 533  : 		return( GetLength() == 0 );

  00003	8b 4d 10	 mov	 ecx, DWORD PTR _strTrimData$[ebp]
; File D:\git\src\IBK\IBK_DRFN\ProjSrc\SrcChartEx\ChartAddIn\ChartAnalysisToolAddIn\AnalysisTool\ElementTreeBuilder.cpp

; 809  : {

  00006	56		 push	 esi
; File C:\Program Files (x86)\Microsoft Visual Studio\2019\Community\VC\Tools\MSVC\14.29.30133\atlmfc\include\atlsimpstr.h

; 533  : 		return( GetLength() == 0 );

  00007	8b 01		 mov	 eax, DWORD PTR [ecx]
  00009	83 78 f4 00	 cmp	 DWORD PTR [eax-12], 0
; File D:\git\src\IBK\IBK_DRFN\ProjSrc\SrcChartEx\ChartAddIn\ChartAnalysisToolAddIn\AnalysisTool\ElementTreeBuilder.cpp

; 810  : 	if(strTrimData.IsEmpty())

  0000d	75 14		 jne	 SHORT $LN2@GetTrimDat

; 811  : 		return strData;

  0000f	ff 75 0c	 push	 DWORD PTR _strData$[ebp]
  00012	8b 4d 08	 mov	 ecx, DWORD PTR ___$ReturnUdt$[ebp]
  00015	ff 15 00 00 00
	00		 call	 DWORD PTR __imp_??0?$CStringT@DV?$StrTraitMFC_DLL@DV?$ChTraitsCRT@D@ATL@@@@@ATL@@QAE@ABV01@@Z
  0001b	8b 45 08	 mov	 eax, DWORD PTR ___$ReturnUdt$[ebp]
  0001e	5e		 pop	 esi

; 814  : }

  0001f	5d		 pop	 ebp
  00020	c2 0c 00	 ret	 12			; 0000000cH
$LN2@GetTrimDat:

; 812  : 
; 813  : 	return CDataConversion::GetStringData(strData, strTrimData, false);

  00023	8b 75 08	 mov	 esi, DWORD PTR ___$ReturnUdt$[ebp]
  00026	6a 00		 push	 0
  00028	51		 push	 ecx
  00029	ff 75 0c	 push	 DWORD PTR _strData$[ebp]
  0002c	56		 push	 esi
  0002d	e8 00 00 00 00	 call	 ?GetStringData@CDataConversion@@SA?AV?$CStringT@DV?$StrTraitMFC_DLL@DV?$ChTraitsCRT@D@ATL@@@@@ATL@@AAV23@ABV23@_N@Z ; CDataConversion::GetStringData
  00032	83 c4 10	 add	 esp, 16			; 00000010H
  00035	8b c6		 mov	 eax, esi
  00037	5e		 pop	 esi

; 814  : }

  00038	5d		 pop	 ebp
  00039	c2 0c 00	 ret	 12			; 0000000cH
?GetTrimData@CElementTreeBuilder@@ABE?AV?$CStringT@DV?$StrTraitMFC_DLL@DV?$ChTraitsCRT@D@ATL@@@@@ATL@@AAV23@ABV23@@Z ENDP ; CElementTreeBuilder::GetTrimData
_TEXT	ENDS
; Function compile flags: /Ogtp
; File D:\git\src\IBK\IBK_DRFN\ProjSrc\SrcChartEx\ChartAddIn\ChartAnalysisToolAddIn\AnalysisTool\ElementTreeBuilder.cpp
;	COMDAT ?GetVertDataType@CElementTreeBuilder@@ABENABV?$CStringT@DV?$StrTraitMFC_DLL@DV?$ChTraitsCRT@D@ATL@@@@@ATL@@@Z
_TEXT	SEGMENT
$T2 = -32						; size = 8
$T3 = -28						; size = 4
$T4 = -24						; size = 4
$T5 = -20						; size = 4
$T6 = -16						; size = 4
__$EHRec$ = -12						; size = 12
_strNewData$7 = 8					; size = 4
_strData$ = 8						; size = 4
?GetVertDataType@CElementTreeBuilder@@ABENABV?$CStringT@DV?$StrTraitMFC_DLL@DV?$ChTraitsCRT@D@ATL@@@@@ATL@@@Z PROC ; CElementTreeBuilder::GetVertDataType, COMDAT
; _this$ = ecx

; 803  : {

  00000	55		 push	 ebp
  00001	8b ec		 mov	 ebp, esp
  00003	6a ff		 push	 -1
  00005	68 00 00 00 00	 push	 __ehhandler$?GetVertDataType@CElementTreeBuilder@@ABENABV?$CStringT@DV?$StrTraitMFC_DLL@DV?$ChTraitsCRT@D@ATL@@@@@ATL@@@Z
  0000a	64 a1 00 00 00
	00		 mov	 eax, DWORD PTR fs:0
  00010	50		 push	 eax
  00011	83 ec 14	 sub	 esp, 20			; 00000014H
  00014	a1 00 00 00 00	 mov	 eax, DWORD PTR ___security_cookie
  00019	33 c5		 xor	 eax, ebp
  0001b	50		 push	 eax
  0001c	8d 45 f4	 lea	 eax, DWORD PTR __$EHRec$[ebp]
  0001f	64 a3 00 00 00
	00		 mov	 DWORD PTR fs:0, eax

; 804  : 	return atof(GetData(strData, "<Vert>", "<\\Vert>\r\n"));

  00025	68 00 00 00 00	 push	 OFFSET ??_C@_09BIGAMANA@?$DM?2Vert?$DO?$AN?6@
  0002a	8d 4d e8	 lea	 ecx, DWORD PTR $T4[ebp]
  0002d	ff 15 00 00 00
	00		 call	 DWORD PTR __imp_??0?$CStringT@DV?$StrTraitMFC_DLL@DV?$ChTraitsCRT@D@ATL@@@@@ATL@@QAE@PBD@Z
  00033	68 00 00 00 00	 push	 OFFSET ??_C@_06FFFOEPJG@?$DMVert?$DO@
  00038	8d 4d ec	 lea	 ecx, DWORD PTR $T5[ebp]
  0003b	c7 45 fc 00 00
	00 00		 mov	 DWORD PTR __$EHRec$[ebp+8], 0
  00042	ff 15 00 00 00
	00		 call	 DWORD PTR __imp_??0?$CStringT@DV?$StrTraitMFC_DLL@DV?$ChTraitsCRT@D@ATL@@@@@ATL@@QAE@PBD@Z

; 384  : 	CString strNewData = strOrgData;

  00048	ff 75 08	 push	 DWORD PTR _strData$[ebp]
  0004b	8d 4d 08	 lea	 ecx, DWORD PTR _strNewData$7[ebp]

; 804  : 	return atof(GetData(strData, "<Vert>", "<\\Vert>\r\n"));

  0004e	c6 45 fc 01	 mov	 BYTE PTR __$EHRec$[ebp+8], 1

; 384  : 	CString strNewData = strOrgData;

  00052	ff 15 00 00 00
	00		 call	 DWORD PTR __imp_??0?$CStringT@DV?$StrTraitMFC_DLL@DV?$ChTraitsCRT@D@ATL@@@@@ATL@@QAE@ABV01@@Z

; 385  : 	CDataConversion::GetStringData(strNewData, strTrimStart);

  00058	6a 01		 push	 1
  0005a	8d 45 ec	 lea	 eax, DWORD PTR $T5[ebp]
  0005d	c6 45 fc 02	 mov	 BYTE PTR __$EHRec$[ebp+8], 2
  00061	50		 push	 eax
  00062	8d 45 08	 lea	 eax, DWORD PTR _strNewData$7[ebp]
  00065	50		 push	 eax
  00066	8d 45 e4	 lea	 eax, DWORD PTR $T3[ebp]
  00069	50		 push	 eax
  0006a	e8 00 00 00 00	 call	 ?GetStringData@CDataConversion@@SA?AV?$CStringT@DV?$StrTraitMFC_DLL@DV?$ChTraitsCRT@D@ATL@@@@@ATL@@AAV23@ABV23@_N@Z ; CDataConversion::GetStringData
  0006f	83 c4 10	 add	 esp, 16			; 00000010H
  00072	8d 4d e4	 lea	 ecx, DWORD PTR $T3[ebp]
  00075	ff 15 00 00 00
	00		 call	 DWORD PTR __imp_??1?$CStringT@DV?$StrTraitMFC_DLL@DV?$ChTraitsCRT@D@ATL@@@@@ATL@@QAE@XZ

; 386  : 	return CDataConversion::GetStringData(strNewData, strTrimEnd);

  0007b	6a 01		 push	 1
  0007d	8d 45 e8	 lea	 eax, DWORD PTR $T4[ebp]
  00080	50		 push	 eax
  00081	8d 45 08	 lea	 eax, DWORD PTR _strNewData$7[ebp]
  00084	50		 push	 eax
  00085	8d 45 f0	 lea	 eax, DWORD PTR $T6[ebp]
  00088	50		 push	 eax
  00089	e8 00 00 00 00	 call	 ?GetStringData@CDataConversion@@SA?AV?$CStringT@DV?$StrTraitMFC_DLL@DV?$ChTraitsCRT@D@ATL@@@@@ATL@@AAV23@ABV23@_N@Z ; CDataConversion::GetStringData
  0008e	83 c4 10	 add	 esp, 16			; 00000010H
  00091	8d 4d 08	 lea	 ecx, DWORD PTR _strNewData$7[ebp]
  00094	ff 15 00 00 00
	00		 call	 DWORD PTR __imp_??1?$CStringT@DV?$StrTraitMFC_DLL@DV?$ChTraitsCRT@D@ATL@@@@@ATL@@QAE@XZ

; 804  : 	return atof(GetData(strData, "<Vert>", "<\\Vert>\r\n"));

  0009a	ff 75 f0	 push	 DWORD PTR $T6[ebp]
  0009d	ff 15 00 00 00
	00		 call	 DWORD PTR __imp__atof
  000a3	83 c4 04	 add	 esp, 4
  000a6	8d 4d f0	 lea	 ecx, DWORD PTR $T6[ebp]
  000a9	dd 5d e0	 fstp	 QWORD PTR $T2[ebp]
  000ac	ff 15 00 00 00
	00		 call	 DWORD PTR __imp_??1?$CStringT@DV?$StrTraitMFC_DLL@DV?$ChTraitsCRT@D@ATL@@@@@ATL@@QAE@XZ
  000b2	8d 4d ec	 lea	 ecx, DWORD PTR $T5[ebp]
  000b5	ff 15 00 00 00
	00		 call	 DWORD PTR __imp_??1?$CStringT@DV?$StrTraitMFC_DLL@DV?$ChTraitsCRT@D@ATL@@@@@ATL@@QAE@XZ
  000bb	8d 4d e8	 lea	 ecx, DWORD PTR $T4[ebp]
  000be	ff 15 00 00 00
	00		 call	 DWORD PTR __imp_??1?$CStringT@DV?$StrTraitMFC_DLL@DV?$ChTraitsCRT@D@ATL@@@@@ATL@@QAE@XZ
  000c4	dd 45 e0	 fld	 QWORD PTR $T2[ebp]

; 805  : }

  000c7	8b 4d f4	 mov	 ecx, DWORD PTR __$EHRec$[ebp]
  000ca	64 89 0d 00 00
	00 00		 mov	 DWORD PTR fs:0, ecx
  000d1	59		 pop	 ecx
  000d2	8b e5		 mov	 esp, ebp
  000d4	5d		 pop	 ebp
  000d5	c2 04 00	 ret	 4
_TEXT	ENDS
;	COMDAT text$x
text$x	SEGMENT
__unwindfunclet$?GetVertDataType@CElementTreeBuilder@@ABENABV?$CStringT@DV?$StrTraitMFC_DLL@DV?$ChTraitsCRT@D@ATL@@@@@ATL@@@Z$0:
  00000	8d 4d e8	 lea	 ecx, DWORD PTR $T4[ebp]
  00003	ff 25 00 00 00
	00		 jmp	 DWORD PTR __imp_??1?$CStringT@DV?$StrTraitMFC_DLL@DV?$ChTraitsCRT@D@ATL@@@@@ATL@@QAE@XZ
__unwindfunclet$?GetVertDataType@CElementTreeBuilder@@ABENABV?$CStringT@DV?$StrTraitMFC_DLL@DV?$ChTraitsCRT@D@ATL@@@@@ATL@@@Z$1:
  00009	8d 4d ec	 lea	 ecx, DWORD PTR $T5[ebp]
  0000c	ff 25 00 00 00
	00		 jmp	 DWORD PTR __imp_??1?$CStringT@DV?$StrTraitMFC_DLL@DV?$ChTraitsCRT@D@ATL@@@@@ATL@@QAE@XZ
__unwindfunclet$?GetVertDataType@CElementTreeBuilder@@ABENABV?$CStringT@DV?$StrTraitMFC_DLL@DV?$ChTraitsCRT@D@ATL@@@@@ATL@@@Z$3:
  00012	8d 4d 08	 lea	 ecx, DWORD PTR _strNewData$7[ebp]
  00015	ff 25 00 00 00
	00		 jmp	 DWORD PTR __imp_??1?$CStringT@DV?$StrTraitMFC_DLL@DV?$ChTraitsCRT@D@ATL@@@@@ATL@@QAE@XZ
  0001b	cc		 int	 3
  0001c	cc		 int	 3
  0001d	cc		 int	 3
  0001e	cc		 int	 3
  0001f	cc		 int	 3
__ehhandler$?GetVertDataType@CElementTreeBuilder@@ABENABV?$CStringT@DV?$StrTraitMFC_DLL@DV?$ChTraitsCRT@D@ATL@@@@@ATL@@@Z:
  00020	90		 npad	 1
  00021	90		 npad	 1
  00022	8b 54 24 08	 mov	 edx, DWORD PTR [esp+8]
  00026	8d 42 0c	 lea	 eax, DWORD PTR [edx+12]
  00029	8b 4a e8	 mov	 ecx, DWORD PTR [edx-24]
  0002c	33 c8		 xor	 ecx, eax
  0002e	e8 00 00 00 00	 call	 @__security_check_cookie@4
  00033	b8 00 00 00 00	 mov	 eax, OFFSET __ehfuncinfo$?GetVertDataType@CElementTreeBuilder@@ABENABV?$CStringT@DV?$StrTraitMFC_DLL@DV?$ChTraitsCRT@D@ATL@@@@@ATL@@@Z
  00038	e9 00 00 00 00	 jmp	 ___CxxFrameHandler3
text$x	ENDS
?GetVertDataType@CElementTreeBuilder@@ABENABV?$CStringT@DV?$StrTraitMFC_DLL@DV?$ChTraitsCRT@D@ATL@@@@@ATL@@@Z ENDP ; CElementTreeBuilder::GetVertDataType
; Function compile flags: /Ogtp
; File D:\git\src\IBK\IBK_DRFN\ProjSrc\SrcChartEx\ChartAddIn\ChartAnalysisToolAddIn\AnalysisTool\ElementTreeBuilder.cpp
;	COMDAT ?GetCoordinateType@CElementTreeBuilder@@ABE?AW4COORDINATETYPE@CAnalysis@@ABV?$CStringT@DV?$StrTraitMFC_DLL@DV?$ChTraitsCRT@D@ATL@@@@@ATL@@@Z
_TEXT	SEGMENT
$T2 = -28						; size = 4
$T3 = -24						; size = 4
$T4 = -20						; size = 4
$T5 = -16						; size = 4
__$EHRec$ = -12						; size = 12
_strNewData$6 = 8					; size = 4
_strData$ = 8						; size = 4
?GetCoordinateType@CElementTreeBuilder@@ABE?AW4COORDINATETYPE@CAnalysis@@ABV?$CStringT@DV?$StrTraitMFC_DLL@DV?$ChTraitsCRT@D@ATL@@@@@ATL@@@Z PROC ; CElementTreeBuilder::GetCoordinateType, COMDAT
; _this$ = ecx

; 798  : {

  00000	55		 push	 ebp
  00001	8b ec		 mov	 ebp, esp
  00003	6a ff		 push	 -1
  00005	68 00 00 00 00	 push	 __ehhandler$?GetCoordinateType@CElementTreeBuilder@@ABE?AW4COORDINATETYPE@CAnalysis@@ABV?$CStringT@DV?$StrTraitMFC_DLL@DV?$ChTraitsCRT@D@ATL@@@@@ATL@@@Z
  0000a	64 a1 00 00 00
	00		 mov	 eax, DWORD PTR fs:0
  00010	50		 push	 eax
  00011	83 ec 10	 sub	 esp, 16			; 00000010H
  00014	56		 push	 esi
  00015	a1 00 00 00 00	 mov	 eax, DWORD PTR ___security_cookie
  0001a	33 c5		 xor	 eax, ebp
  0001c	50		 push	 eax
  0001d	8d 45 f4	 lea	 eax, DWORD PTR __$EHRec$[ebp]
  00020	64 a3 00 00 00
	00		 mov	 DWORD PTR fs:0, eax

; 799  : 	return ((CAnalysis::COORDINATETYPE) atoi(GetData(strData, "<Coordinate>", "<\\Coordinate>\r\n")));

  00026	68 00 00 00 00	 push	 OFFSET ??_C@_0BA@IFAPIPNB@?$DM?2Coordinate?$DO?$AN?6@
  0002b	8d 4d e8	 lea	 ecx, DWORD PTR $T3[ebp]
  0002e	ff 15 00 00 00
	00		 call	 DWORD PTR __imp_??0?$CStringT@DV?$StrTraitMFC_DLL@DV?$ChTraitsCRT@D@ATL@@@@@ATL@@QAE@PBD@Z
  00034	68 00 00 00 00	 push	 OFFSET ??_C@_0N@CAIHOMCE@?$DMCoordinate?$DO@
  00039	8d 4d ec	 lea	 ecx, DWORD PTR $T4[ebp]
  0003c	c7 45 fc 00 00
	00 00		 mov	 DWORD PTR __$EHRec$[ebp+8], 0
  00043	ff 15 00 00 00
	00		 call	 DWORD PTR __imp_??0?$CStringT@DV?$StrTraitMFC_DLL@DV?$ChTraitsCRT@D@ATL@@@@@ATL@@QAE@PBD@Z

; 384  : 	CString strNewData = strOrgData;

  00049	ff 75 08	 push	 DWORD PTR _strData$[ebp]
  0004c	8d 4d 08	 lea	 ecx, DWORD PTR _strNewData$6[ebp]

; 799  : 	return ((CAnalysis::COORDINATETYPE) atoi(GetData(strData, "<Coordinate>", "<\\Coordinate>\r\n")));

  0004f	c6 45 fc 01	 mov	 BYTE PTR __$EHRec$[ebp+8], 1

; 384  : 	CString strNewData = strOrgData;

  00053	ff 15 00 00 00
	00		 call	 DWORD PTR __imp_??0?$CStringT@DV?$StrTraitMFC_DLL@DV?$ChTraitsCRT@D@ATL@@@@@ATL@@QAE@ABV01@@Z

; 385  : 	CDataConversion::GetStringData(strNewData, strTrimStart);

  00059	6a 01		 push	 1
  0005b	8d 45 ec	 lea	 eax, DWORD PTR $T4[ebp]
  0005e	c6 45 fc 02	 mov	 BYTE PTR __$EHRec$[ebp+8], 2
  00062	50		 push	 eax
  00063	8d 45 08	 lea	 eax, DWORD PTR _strNewData$6[ebp]
  00066	50		 push	 eax
  00067	8d 45 e4	 lea	 eax, DWORD PTR $T2[ebp]
  0006a	50		 push	 eax
  0006b	e8 00 00 00 00	 call	 ?GetStringData@CDataConversion@@SA?AV?$CStringT@DV?$StrTraitMFC_DLL@DV?$ChTraitsCRT@D@ATL@@@@@ATL@@AAV23@ABV23@_N@Z ; CDataConversion::GetStringData
  00070	83 c4 10	 add	 esp, 16			; 00000010H
  00073	8d 4d e4	 lea	 ecx, DWORD PTR $T2[ebp]
  00076	ff 15 00 00 00
	00		 call	 DWORD PTR __imp_??1?$CStringT@DV?$StrTraitMFC_DLL@DV?$ChTraitsCRT@D@ATL@@@@@ATL@@QAE@XZ

; 386  : 	return CDataConversion::GetStringData(strNewData, strTrimEnd);

  0007c	6a 01		 push	 1
  0007e	8d 45 e8	 lea	 eax, DWORD PTR $T3[ebp]
  00081	50		 push	 eax
  00082	8d 45 08	 lea	 eax, DWORD PTR _strNewData$6[ebp]
  00085	50		 push	 eax
  00086	8d 45 f0	 lea	 eax, DWORD PTR $T5[ebp]
  00089	50		 push	 eax
  0008a	e8 00 00 00 00	 call	 ?GetStringData@CDataConversion@@SA?AV?$CStringT@DV?$StrTraitMFC_DLL@DV?$ChTraitsCRT@D@ATL@@@@@ATL@@AAV23@ABV23@_N@Z ; CDataConversion::GetStringData
  0008f	83 c4 10	 add	 esp, 16			; 00000010H
  00092	8d 4d 08	 lea	 ecx, DWORD PTR _strNewData$6[ebp]
  00095	ff 15 00 00 00
	00		 call	 DWORD PTR __imp_??1?$CStringT@DV?$StrTraitMFC_DLL@DV?$ChTraitsCRT@D@ATL@@@@@ATL@@QAE@XZ

; 799  : 	return ((CAnalysis::COORDINATETYPE) atoi(GetData(strData, "<Coordinate>", "<\\Coordinate>\r\n")));

  0009b	ff 75 f0	 push	 DWORD PTR $T5[ebp]
  0009e	ff 15 00 00 00
	00		 call	 DWORD PTR __imp__atoi
  000a4	83 c4 04	 add	 esp, 4
  000a7	8d 4d f0	 lea	 ecx, DWORD PTR $T5[ebp]
  000aa	8b f0		 mov	 esi, eax
  000ac	ff 15 00 00 00
	00		 call	 DWORD PTR __imp_??1?$CStringT@DV?$StrTraitMFC_DLL@DV?$ChTraitsCRT@D@ATL@@@@@ATL@@QAE@XZ
  000b2	8d 4d ec	 lea	 ecx, DWORD PTR $T4[ebp]
  000b5	ff 15 00 00 00
	00		 call	 DWORD PTR __imp_??1?$CStringT@DV?$StrTraitMFC_DLL@DV?$ChTraitsCRT@D@ATL@@@@@ATL@@QAE@XZ
  000bb	8d 4d e8	 lea	 ecx, DWORD PTR $T3[ebp]
  000be	ff 15 00 00 00
	00		 call	 DWORD PTR __imp_??1?$CStringT@DV?$StrTraitMFC_DLL@DV?$ChTraitsCRT@D@ATL@@@@@ATL@@QAE@XZ
  000c4	8b c6		 mov	 eax, esi

; 800  : }

  000c6	8b 4d f4	 mov	 ecx, DWORD PTR __$EHRec$[ebp]
  000c9	64 89 0d 00 00
	00 00		 mov	 DWORD PTR fs:0, ecx
  000d0	59		 pop	 ecx
  000d1	5e		 pop	 esi
  000d2	8b e5		 mov	 esp, ebp
  000d4	5d		 pop	 ebp
  000d5	c2 04 00	 ret	 4
_TEXT	ENDS
;	COMDAT text$x
text$x	SEGMENT
__unwindfunclet$?GetCoordinateType@CElementTreeBuilder@@ABE?AW4COORDINATETYPE@CAnalysis@@ABV?$CStringT@DV?$StrTraitMFC_DLL@DV?$ChTraitsCRT@D@ATL@@@@@ATL@@@Z$0:
  00000	8d 4d e8	 lea	 ecx, DWORD PTR $T3[ebp]
  00003	ff 25 00 00 00
	00		 jmp	 DWORD PTR __imp_??1?$CStringT@DV?$StrTraitMFC_DLL@DV?$ChTraitsCRT@D@ATL@@@@@ATL@@QAE@XZ
__unwindfunclet$?GetCoordinateType@CElementTreeBuilder@@ABE?AW4COORDINATETYPE@CAnalysis@@ABV?$CStringT@DV?$StrTraitMFC_DLL@DV?$ChTraitsCRT@D@ATL@@@@@ATL@@@Z$1:
  00009	8d 4d ec	 lea	 ecx, DWORD PTR $T4[ebp]
  0000c	ff 25 00 00 00
	00		 jmp	 DWORD PTR __imp_??1?$CStringT@DV?$StrTraitMFC_DLL@DV?$ChTraitsCRT@D@ATL@@@@@ATL@@QAE@XZ
__unwindfunclet$?GetCoordinateType@CElementTreeBuilder@@ABE?AW4COORDINATETYPE@CAnalysis@@ABV?$CStringT@DV?$StrTraitMFC_DLL@DV?$ChTraitsCRT@D@ATL@@@@@ATL@@@Z$3:
  00012	8d 4d 08	 lea	 ecx, DWORD PTR _strNewData$6[ebp]
  00015	ff 25 00 00 00
	00		 jmp	 DWORD PTR __imp_??1?$CStringT@DV?$StrTraitMFC_DLL@DV?$ChTraitsCRT@D@ATL@@@@@ATL@@QAE@XZ
  0001b	cc		 int	 3
  0001c	cc		 int	 3
  0001d	cc		 int	 3
  0001e	cc		 int	 3
  0001f	cc		 int	 3
__ehhandler$?GetCoordinateType@CElementTreeBuilder@@ABE?AW4COORDINATETYPE@CAnalysis@@ABV?$CStringT@DV?$StrTraitMFC_DLL@DV?$ChTraitsCRT@D@ATL@@@@@ATL@@@Z:
  00020	90		 npad	 1
  00021	90		 npad	 1
  00022	8b 54 24 08	 mov	 edx, DWORD PTR [esp+8]
  00026	8d 42 0c	 lea	 eax, DWORD PTR [edx+12]
  00029	8b 4a e8	 mov	 ecx, DWORD PTR [edx-24]
  0002c	33 c8		 xor	 ecx, eax
  0002e	e8 00 00 00 00	 call	 @__security_check_cookie@4
  00033	b8 00 00 00 00	 mov	 eax, OFFSET __ehfuncinfo$?GetCoordinateType@CElementTreeBuilder@@ABE?AW4COORDINATETYPE@CAnalysis@@ABV?$CStringT@DV?$StrTraitMFC_DLL@DV?$ChTraitsCRT@D@ATL@@@@@ATL@@@Z
  00038	e9 00 00 00 00	 jmp	 ___CxxFrameHandler3
text$x	ENDS
?GetCoordinateType@CElementTreeBuilder@@ABE?AW4COORDINATETYPE@CAnalysis@@ABV?$CStringT@DV?$StrTraitMFC_DLL@DV?$ChTraitsCRT@D@ATL@@@@@ATL@@@Z ENDP ; CElementTreeBuilder::GetCoordinateType
; Function compile flags: /Ogtp
; File D:\git\src\IBK\IBK_DRFN\ProjSrc\SrcChartEx\ChartAddIn\ChartAnalysisToolAddIn\AnalysisTool\ElementTreeBuilder.cpp
;	COMDAT ?GetDataTypeEnvironment@CElementTreeBuilder@@ABE?AVCDataTypeEnvironment@@ABV?$CStringT@DV?$StrTraitMFC_DLL@DV?$ChTraitsCRT@D@ATL@@@@@ATL@@@Z
_TEXT	SEGMENT
_dVert$ = -68						; size = 8
$T2 = -60						; size = 8
$T3 = -52						; size = 4
$T4 = -52						; size = 4
$T5 = -52						; size = 4
$T6 = -52						; size = 4
$T7 = -52						; size = 4
_strHorz$ = -48						; size = 4
_strExtData$ = -44					; size = 4
_strStrVert$ = -40					; size = 4
$T8 = -36						; size = 4
$T9 = -36						; size = 4
$T10 = -36						; size = 4
$T11 = -36						; size = 4
$T12 = -36						; size = 4
$T13 = -32						; size = 4
$T14 = -32						; size = 4
$T15 = -32						; size = 4
$T16 = -32						; size = 4
$T17 = -28						; size = 4
$T18 = -28						; size = 4
$T19 = -28						; size = 4
$T20 = -24						; size = 4
$T21 = -24						; size = 4
$T22 = -20						; size = 4
_strDataTypeData$ = -16					; size = 4
__$EHRec$ = -12						; size = 12
___$ReturnUdt$ = 8					; size = 4
_strNewData$23 = 12					; size = 4
_strNewData$24 = 12					; size = 4
_strNewData$25 = 12					; size = 4
_strNewData$26 = 12					; size = 4
_strNewData$27 = 12					; size = 4
_strNewData$28 = 12					; size = 4
_strData$ = 12						; size = 4
?GetDataTypeEnvironment@CElementTreeBuilder@@ABE?AVCDataTypeEnvironment@@ABV?$CStringT@DV?$StrTraitMFC_DLL@DV?$ChTraitsCRT@D@ATL@@@@@ATL@@@Z PROC ; CElementTreeBuilder::GetDataTypeEnvironment, COMDAT
; _this$ = ecx

; 783  : {

  00000	55		 push	 ebp
  00001	8b ec		 mov	 ebp, esp
  00003	6a ff		 push	 -1
  00005	68 00 00 00 00	 push	 __ehhandler$?GetDataTypeEnvironment@CElementTreeBuilder@@ABE?AVCDataTypeEnvironment@@ABV?$CStringT@DV?$StrTraitMFC_DLL@DV?$ChTraitsCRT@D@ATL@@@@@ATL@@@Z
  0000a	64 a1 00 00 00
	00		 mov	 eax, DWORD PTR fs:0
  00010	50		 push	 eax
  00011	83 ec 38	 sub	 esp, 56			; 00000038H
  00014	56		 push	 esi
  00015	57		 push	 edi
  00016	a1 00 00 00 00	 mov	 eax, DWORD PTR ___security_cookie
  0001b	33 c5		 xor	 eax, ebp
  0001d	50		 push	 eax
  0001e	8d 45 f4	 lea	 eax, DWORD PTR __$EHRec$[ebp]
  00021	64 a3 00 00 00
	00		 mov	 DWORD PTR fs:0, eax
  00027	8b f9		 mov	 edi, ecx

; 784  : 	CString strDataTypeData = GetData(strData, "<DataType>\r\n", "<\\DataType>\r\n");

  00029	68 00 00 00 00	 push	 OFFSET ??_C@_0O@DKHNMBCK@?$DM?2DataType?$DO?$AN?6@
  0002e	8d 4d e8	 lea	 ecx, DWORD PTR $T21[ebp]
  00031	ff 15 00 00 00
	00		 call	 DWORD PTR __imp_??0?$CStringT@DV?$StrTraitMFC_DLL@DV?$ChTraitsCRT@D@ATL@@@@@ATL@@QAE@PBD@Z
  00037	68 00 00 00 00	 push	 OFFSET ??_C@_0N@GLGCPBKI@?$DMDataType?$DO?$AN?6@
  0003c	8d 4d ec	 lea	 ecx, DWORD PTR $T22[ebp]
  0003f	c7 45 fc 00 00
	00 00		 mov	 DWORD PTR __$EHRec$[ebp+8], 0
  00046	ff 15 00 00 00
	00		 call	 DWORD PTR __imp_??0?$CStringT@DV?$StrTraitMFC_DLL@DV?$ChTraitsCRT@D@ATL@@@@@ATL@@QAE@PBD@Z

; 384  : 	CString strNewData = strOrgData;

  0004c	ff 75 0c	 push	 DWORD PTR _strData$[ebp]
  0004f	8d 4d 0c	 lea	 ecx, DWORD PTR _strNewData$28[ebp]

; 784  : 	CString strDataTypeData = GetData(strData, "<DataType>\r\n", "<\\DataType>\r\n");

  00052	c6 45 fc 01	 mov	 BYTE PTR __$EHRec$[ebp+8], 1

; 384  : 	CString strNewData = strOrgData;

  00056	ff 15 00 00 00
	00		 call	 DWORD PTR __imp_??0?$CStringT@DV?$StrTraitMFC_DLL@DV?$ChTraitsCRT@D@ATL@@@@@ATL@@QAE@ABV01@@Z

; 385  : 	CDataConversion::GetStringData(strNewData, strTrimStart);

  0005c	6a 01		 push	 1
  0005e	8d 45 ec	 lea	 eax, DWORD PTR $T22[ebp]
  00061	c6 45 fc 02	 mov	 BYTE PTR __$EHRec$[ebp+8], 2
  00065	50		 push	 eax
  00066	8d 45 0c	 lea	 eax, DWORD PTR _strNewData$28[ebp]
  00069	50		 push	 eax
  0006a	8d 45 dc	 lea	 eax, DWORD PTR $T9[ebp]
  0006d	50		 push	 eax
  0006e	e8 00 00 00 00	 call	 ?GetStringData@CDataConversion@@SA?AV?$CStringT@DV?$StrTraitMFC_DLL@DV?$ChTraitsCRT@D@ATL@@@@@ATL@@AAV23@ABV23@_N@Z ; CDataConversion::GetStringData
  00073	83 c4 10	 add	 esp, 16			; 00000010H
  00076	8d 4d dc	 lea	 ecx, DWORD PTR $T9[ebp]
  00079	ff 15 00 00 00
	00		 call	 DWORD PTR __imp_??1?$CStringT@DV?$StrTraitMFC_DLL@DV?$ChTraitsCRT@D@ATL@@@@@ATL@@QAE@XZ

; 386  : 	return CDataConversion::GetStringData(strNewData, strTrimEnd);

  0007f	6a 01		 push	 1
  00081	8d 45 e8	 lea	 eax, DWORD PTR $T21[ebp]
  00084	50		 push	 eax
  00085	8d 45 0c	 lea	 eax, DWORD PTR _strNewData$28[ebp]
  00088	50		 push	 eax
  00089	8d 45 f0	 lea	 eax, DWORD PTR _strDataTypeData$[ebp]
  0008c	50		 push	 eax
  0008d	e8 00 00 00 00	 call	 ?GetStringData@CDataConversion@@SA?AV?$CStringT@DV?$StrTraitMFC_DLL@DV?$ChTraitsCRT@D@ATL@@@@@ATL@@AAV23@ABV23@_N@Z ; CDataConversion::GetStringData
  00092	83 c4 10	 add	 esp, 16			; 00000010H
  00095	8d 4d 0c	 lea	 ecx, DWORD PTR _strNewData$28[ebp]
  00098	ff 15 00 00 00
	00		 call	 DWORD PTR __imp_??1?$CStringT@DV?$StrTraitMFC_DLL@DV?$ChTraitsCRT@D@ATL@@@@@ATL@@QAE@XZ

; 784  : 	CString strDataTypeData = GetData(strData, "<DataType>\r\n", "<\\DataType>\r\n");

  0009e	8d 4d ec	 lea	 ecx, DWORD PTR $T22[ebp]
  000a1	ff 15 00 00 00
	00		 call	 DWORD PTR __imp_??1?$CStringT@DV?$StrTraitMFC_DLL@DV?$ChTraitsCRT@D@ATL@@@@@ATL@@QAE@XZ
  000a7	8d 4d e8	 lea	 ecx, DWORD PTR $T21[ebp]
  000aa	c6 45 fc 05	 mov	 BYTE PTR __$EHRec$[ebp+8], 5
  000ae	ff 15 00 00 00
	00		 call	 DWORD PTR __imp_??1?$CStringT@DV?$StrTraitMFC_DLL@DV?$ChTraitsCRT@D@ATL@@@@@ATL@@QAE@XZ

; 799  : 	return ((CAnalysis::COORDINATETYPE) atoi(GetData(strData, "<Coordinate>", "<\\Coordinate>\r\n")));

  000b4	68 00 00 00 00	 push	 OFFSET ??_C@_0BA@IFAPIPNB@?$DM?2Coordinate?$DO?$AN?6@
  000b9	8d 4d dc	 lea	 ecx, DWORD PTR $T10[ebp]
  000bc	ff 15 00 00 00
	00		 call	 DWORD PTR __imp_??0?$CStringT@DV?$StrTraitMFC_DLL@DV?$ChTraitsCRT@D@ATL@@@@@ATL@@QAE@PBD@Z
  000c2	68 00 00 00 00	 push	 OFFSET ??_C@_0N@CAIHOMCE@?$DMCoordinate?$DO@
  000c7	8d 4d e0	 lea	 ecx, DWORD PTR $T14[ebp]
  000ca	c6 45 fc 06	 mov	 BYTE PTR __$EHRec$[ebp+8], 6
  000ce	ff 15 00 00 00
	00		 call	 DWORD PTR __imp_??0?$CStringT@DV?$StrTraitMFC_DLL@DV?$ChTraitsCRT@D@ATL@@@@@ATL@@QAE@PBD@Z

; 384  : 	CString strNewData = strOrgData;

  000d4	8d 45 f0	 lea	 eax, DWORD PTR _strDataTypeData$[ebp]

; 799  : 	return ((CAnalysis::COORDINATETYPE) atoi(GetData(strData, "<Coordinate>", "<\\Coordinate>\r\n")));

  000d7	c6 45 fc 07	 mov	 BYTE PTR __$EHRec$[ebp+8], 7

; 384  : 	CString strNewData = strOrgData;

  000db	50		 push	 eax
  000dc	8d 4d 0c	 lea	 ecx, DWORD PTR _strNewData$27[ebp]
  000df	ff 15 00 00 00
	00		 call	 DWORD PTR __imp_??0?$CStringT@DV?$StrTraitMFC_DLL@DV?$ChTraitsCRT@D@ATL@@@@@ATL@@QAE@ABV01@@Z

; 385  : 	CDataConversion::GetStringData(strNewData, strTrimStart);

  000e5	6a 01		 push	 1
  000e7	8d 45 e0	 lea	 eax, DWORD PTR $T14[ebp]
  000ea	c6 45 fc 08	 mov	 BYTE PTR __$EHRec$[ebp+8], 8
  000ee	50		 push	 eax
  000ef	8d 45 0c	 lea	 eax, DWORD PTR _strNewData$27[ebp]
  000f2	50		 push	 eax
  000f3	8d 45 cc	 lea	 eax, DWORD PTR $T7[ebp]
  000f6	50		 push	 eax
  000f7	e8 00 00 00 00	 call	 ?GetStringData@CDataConversion@@SA?AV?$CStringT@DV?$StrTraitMFC_DLL@DV?$ChTraitsCRT@D@ATL@@@@@ATL@@AAV23@ABV23@_N@Z ; CDataConversion::GetStringData
  000fc	83 c4 10	 add	 esp, 16			; 00000010H
  000ff	8d 4d cc	 lea	 ecx, DWORD PTR $T7[ebp]
  00102	ff 15 00 00 00
	00		 call	 DWORD PTR __imp_??1?$CStringT@DV?$StrTraitMFC_DLL@DV?$ChTraitsCRT@D@ATL@@@@@ATL@@QAE@XZ

; 386  : 	return CDataConversion::GetStringData(strNewData, strTrimEnd);

  00108	6a 01		 push	 1
  0010a	8d 45 dc	 lea	 eax, DWORD PTR $T10[ebp]
  0010d	50		 push	 eax
  0010e	8d 45 0c	 lea	 eax, DWORD PTR _strNewData$27[ebp]
  00111	50		 push	 eax
  00112	8d 45 e4	 lea	 eax, DWORD PTR $T18[ebp]
  00115	50		 push	 eax
  00116	e8 00 00 00 00	 call	 ?GetStringData@CDataConversion@@SA?AV?$CStringT@DV?$StrTraitMFC_DLL@DV?$ChTraitsCRT@D@ATL@@@@@ATL@@AAV23@ABV23@_N@Z ; CDataConversion::GetStringData
  0011b	83 c4 10	 add	 esp, 16			; 00000010H
  0011e	8d 4d 0c	 lea	 ecx, DWORD PTR _strNewData$27[ebp]
  00121	ff 15 00 00 00
	00		 call	 DWORD PTR __imp_??1?$CStringT@DV?$StrTraitMFC_DLL@DV?$ChTraitsCRT@D@ATL@@@@@ATL@@QAE@XZ

; 799  : 	return ((CAnalysis::COORDINATETYPE) atoi(GetData(strData, "<Coordinate>", "<\\Coordinate>\r\n")));

  00127	ff 75 e4	 push	 DWORD PTR $T18[ebp]
  0012a	ff 15 00 00 00
	00		 call	 DWORD PTR __imp__atoi
  00130	83 c4 04	 add	 esp, 4
  00133	8d 4d e4	 lea	 ecx, DWORD PTR $T18[ebp]
  00136	8b f0		 mov	 esi, eax
  00138	ff 15 00 00 00
	00		 call	 DWORD PTR __imp_??1?$CStringT@DV?$StrTraitMFC_DLL@DV?$ChTraitsCRT@D@ATL@@@@@ATL@@QAE@XZ
  0013e	8d 4d e0	 lea	 ecx, DWORD PTR $T14[ebp]
  00141	ff 15 00 00 00
	00		 call	 DWORD PTR __imp_??1?$CStringT@DV?$StrTraitMFC_DLL@DV?$ChTraitsCRT@D@ATL@@@@@ATL@@QAE@XZ
  00147	8d 4d dc	 lea	 ecx, DWORD PTR $T10[ebp]
  0014a	c6 45 fc 05	 mov	 BYTE PTR __$EHRec$[ebp+8], 5
  0014e	ff 15 00 00 00
	00		 call	 DWORD PTR __imp_??1?$CStringT@DV?$StrTraitMFC_DLL@DV?$ChTraitsCRT@D@ATL@@@@@ATL@@QAE@XZ

; 804  : 	return atof(GetData(strData, "<Vert>", "<\\Vert>\r\n"));

  00154	68 00 00 00 00	 push	 OFFSET ??_C@_09BIGAMANA@?$DM?2Vert?$DO?$AN?6@
  00159	8d 4d e4	 lea	 ecx, DWORD PTR $T17[ebp]
  0015c	ff 15 00 00 00
	00		 call	 DWORD PTR __imp_??0?$CStringT@DV?$StrTraitMFC_DLL@DV?$ChTraitsCRT@D@ATL@@@@@ATL@@QAE@PBD@Z
  00162	68 00 00 00 00	 push	 OFFSET ??_C@_06FFFOEPJG@?$DMVert?$DO@
  00167	8d 4d e0	 lea	 ecx, DWORD PTR $T13[ebp]
  0016a	c6 45 fc 09	 mov	 BYTE PTR __$EHRec$[ebp+8], 9
  0016e	ff 15 00 00 00
	00		 call	 DWORD PTR __imp_??0?$CStringT@DV?$StrTraitMFC_DLL@DV?$ChTraitsCRT@D@ATL@@@@@ATL@@QAE@PBD@Z

; 384  : 	CString strNewData = strOrgData;

  00174	8d 45 f0	 lea	 eax, DWORD PTR _strDataTypeData$[ebp]

; 804  : 	return atof(GetData(strData, "<Vert>", "<\\Vert>\r\n"));

  00177	c6 45 fc 0a	 mov	 BYTE PTR __$EHRec$[ebp+8], 10 ; 0000000aH

; 384  : 	CString strNewData = strOrgData;

  0017b	50		 push	 eax
  0017c	8d 4d 0c	 lea	 ecx, DWORD PTR _strNewData$25[ebp]
  0017f	ff 15 00 00 00
	00		 call	 DWORD PTR __imp_??0?$CStringT@DV?$StrTraitMFC_DLL@DV?$ChTraitsCRT@D@ATL@@@@@ATL@@QAE@ABV01@@Z

; 385  : 	CDataConversion::GetStringData(strNewData, strTrimStart);

  00185	6a 01		 push	 1
  00187	8d 45 e0	 lea	 eax, DWORD PTR $T13[ebp]
  0018a	c6 45 fc 0b	 mov	 BYTE PTR __$EHRec$[ebp+8], 11 ; 0000000bH
  0018e	50		 push	 eax
  0018f	8d 45 0c	 lea	 eax, DWORD PTR _strNewData$25[ebp]
  00192	50		 push	 eax
  00193	8d 45 cc	 lea	 eax, DWORD PTR $T6[ebp]
  00196	50		 push	 eax
  00197	e8 00 00 00 00	 call	 ?GetStringData@CDataConversion@@SA?AV?$CStringT@DV?$StrTraitMFC_DLL@DV?$ChTraitsCRT@D@ATL@@@@@ATL@@AAV23@ABV23@_N@Z ; CDataConversion::GetStringData
  0019c	83 c4 10	 add	 esp, 16			; 00000010H
  0019f	8d 4d cc	 lea	 ecx, DWORD PTR $T6[ebp]
  001a2	ff 15 00 00 00
	00		 call	 DWORD PTR __imp_??1?$CStringT@DV?$StrTraitMFC_DLL@DV?$ChTraitsCRT@D@ATL@@@@@ATL@@QAE@XZ

; 386  : 	return CDataConversion::GetStringData(strNewData, strTrimEnd);

  001a8	6a 01		 push	 1
  001aa	8d 45 e4	 lea	 eax, DWORD PTR $T17[ebp]
  001ad	50		 push	 eax
  001ae	8d 45 0c	 lea	 eax, DWORD PTR _strNewData$25[ebp]
  001b1	50		 push	 eax
  001b2	8d 45 dc	 lea	 eax, DWORD PTR $T8[ebp]
  001b5	50		 push	 eax
  001b6	e8 00 00 00 00	 call	 ?GetStringData@CDataConversion@@SA?AV?$CStringT@DV?$StrTraitMFC_DLL@DV?$ChTraitsCRT@D@ATL@@@@@ATL@@AAV23@ABV23@_N@Z ; CDataConversion::GetStringData
  001bb	83 c4 10	 add	 esp, 16			; 00000010H
  001be	8d 4d 0c	 lea	 ecx, DWORD PTR _strNewData$25[ebp]
  001c1	ff 15 00 00 00
	00		 call	 DWORD PTR __imp_??1?$CStringT@DV?$StrTraitMFC_DLL@DV?$ChTraitsCRT@D@ATL@@@@@ATL@@QAE@XZ

; 804  : 	return atof(GetData(strData, "<Vert>", "<\\Vert>\r\n"));

  001c7	ff 75 dc	 push	 DWORD PTR $T8[ebp]
  001ca	ff 15 00 00 00
	00		 call	 DWORD PTR __imp__atof
  001d0	83 c4 04	 add	 esp, 4
  001d3	8d 4d dc	 lea	 ecx, DWORD PTR $T8[ebp]
  001d6	dd 5d c4	 fstp	 QWORD PTR $T2[ebp]
  001d9	ff 15 00 00 00
	00		 call	 DWORD PTR __imp_??1?$CStringT@DV?$StrTraitMFC_DLL@DV?$ChTraitsCRT@D@ATL@@@@@ATL@@QAE@XZ
  001df	8d 4d e0	 lea	 ecx, DWORD PTR $T13[ebp]
  001e2	ff 15 00 00 00
	00		 call	 DWORD PTR __imp_??1?$CStringT@DV?$StrTraitMFC_DLL@DV?$ChTraitsCRT@D@ATL@@@@@ATL@@QAE@XZ
  001e8	8d 4d e4	 lea	 ecx, DWORD PTR $T17[ebp]
  001eb	c6 45 fc 05	 mov	 BYTE PTR __$EHRec$[ebp+8], 5
  001ef	ff 15 00 00 00
	00		 call	 DWORD PTR __imp_??1?$CStringT@DV?$StrTraitMFC_DLL@DV?$ChTraitsCRT@D@ATL@@@@@ATL@@QAE@XZ

; 785  : 	CAnalysis::COORDINATETYPE eCoordinateType = GetCoordinateType(strDataTypeData);
; 786  : 	double dVert = GetVertDataType(strDataTypeData);

  001f5	f2 0f 10 45 c4	 movsd	 xmm0, QWORD PTR $T2[ebp]

; 787  : 	CString strHorz = GetData(strDataTypeData, "<Horz>", "<\\Horz>\r\n");

  001fa	8d 4d e0	 lea	 ecx, DWORD PTR $T16[ebp]
  001fd	68 00 00 00 00	 push	 OFFSET ??_C@_09GKBBACOG@?$DM?2Horz?$DO?$AN?6@
  00202	f2 0f 11 45 bc	 movsd	 QWORD PTR _dVert$[ebp], xmm0
  00207	ff 15 00 00 00
	00		 call	 DWORD PTR __imp_??0?$CStringT@DV?$StrTraitMFC_DLL@DV?$ChTraitsCRT@D@ATL@@@@@ATL@@QAE@PBD@Z
  0020d	68 00 00 00 00	 push	 OFFSET ??_C@_06CMKMBJNG@?$DMHorz?$DO@
  00212	8d 4d dc	 lea	 ecx, DWORD PTR $T12[ebp]
  00215	c6 45 fc 0c	 mov	 BYTE PTR __$EHRec$[ebp+8], 12 ; 0000000cH
  00219	ff 15 00 00 00
	00		 call	 DWORD PTR __imp_??0?$CStringT@DV?$StrTraitMFC_DLL@DV?$ChTraitsCRT@D@ATL@@@@@ATL@@QAE@PBD@Z

; 384  : 	CString strNewData = strOrgData;

  0021f	8d 45 f0	 lea	 eax, DWORD PTR _strDataTypeData$[ebp]

; 787  : 	CString strHorz = GetData(strDataTypeData, "<Horz>", "<\\Horz>\r\n");

  00222	c6 45 fc 0d	 mov	 BYTE PTR __$EHRec$[ebp+8], 13 ; 0000000dH

; 384  : 	CString strNewData = strOrgData;

  00226	50		 push	 eax
  00227	8d 4d 0c	 lea	 ecx, DWORD PTR _strNewData$26[ebp]
  0022a	ff 15 00 00 00
	00		 call	 DWORD PTR __imp_??0?$CStringT@DV?$StrTraitMFC_DLL@DV?$ChTraitsCRT@D@ATL@@@@@ATL@@QAE@ABV01@@Z
  00230	c6 45 fc 0e	 mov	 BYTE PTR __$EHRec$[ebp+8], 14 ; 0000000eH

; 385  : 	CDataConversion::GetStringData(strNewData, strTrimStart);

  00234	6a 01		 push	 1
  00236	8d 45 dc	 lea	 eax, DWORD PTR $T12[ebp]
  00239	50		 push	 eax
  0023a	8d 45 0c	 lea	 eax, DWORD PTR _strNewData$26[ebp]
  0023d	50		 push	 eax
  0023e	8d 45 cc	 lea	 eax, DWORD PTR $T5[ebp]
  00241	50		 push	 eax
  00242	e8 00 00 00 00	 call	 ?GetStringData@CDataConversion@@SA?AV?$CStringT@DV?$StrTraitMFC_DLL@DV?$ChTraitsCRT@D@ATL@@@@@ATL@@AAV23@ABV23@_N@Z ; CDataConversion::GetStringData
  00247	83 c4 10	 add	 esp, 16			; 00000010H
  0024a	8d 4d cc	 lea	 ecx, DWORD PTR $T5[ebp]
  0024d	ff 15 00 00 00
	00		 call	 DWORD PTR __imp_??1?$CStringT@DV?$StrTraitMFC_DLL@DV?$ChTraitsCRT@D@ATL@@@@@ATL@@QAE@XZ

; 386  : 	return CDataConversion::GetStringData(strNewData, strTrimEnd);

  00253	6a 01		 push	 1
  00255	8d 45 e0	 lea	 eax, DWORD PTR $T16[ebp]
  00258	50		 push	 eax
  00259	8d 45 0c	 lea	 eax, DWORD PTR _strNewData$26[ebp]
  0025c	50		 push	 eax
  0025d	8d 45 d0	 lea	 eax, DWORD PTR _strHorz$[ebp]
  00260	50		 push	 eax
  00261	e8 00 00 00 00	 call	 ?GetStringData@CDataConversion@@SA?AV?$CStringT@DV?$StrTraitMFC_DLL@DV?$ChTraitsCRT@D@ATL@@@@@ATL@@AAV23@ABV23@_N@Z ; CDataConversion::GetStringData
  00266	83 c4 10	 add	 esp, 16			; 00000010H
  00269	8d 4d 0c	 lea	 ecx, DWORD PTR _strNewData$26[ebp]
  0026c	ff 15 00 00 00
	00		 call	 DWORD PTR __imp_??1?$CStringT@DV?$StrTraitMFC_DLL@DV?$ChTraitsCRT@D@ATL@@@@@ATL@@QAE@XZ

; 787  : 	CString strHorz = GetData(strDataTypeData, "<Horz>", "<\\Horz>\r\n");

  00272	8d 4d dc	 lea	 ecx, DWORD PTR $T12[ebp]
  00275	ff 15 00 00 00
	00		 call	 DWORD PTR __imp_??1?$CStringT@DV?$StrTraitMFC_DLL@DV?$ChTraitsCRT@D@ATL@@@@@ATL@@QAE@XZ
  0027b	8d 4d e0	 lea	 ecx, DWORD PTR $T16[ebp]
  0027e	c6 45 fc 11	 mov	 BYTE PTR __$EHRec$[ebp+8], 17 ; 00000011H
  00282	ff 15 00 00 00
	00		 call	 DWORD PTR __imp_??1?$CStringT@DV?$StrTraitMFC_DLL@DV?$ChTraitsCRT@D@ATL@@@@@ATL@@QAE@XZ

; 788  : 	// 2008.08.20   <<
; 789  : 	//return CDataTypeEnvironment(eCoordinateType, dVert, strHorz);
; 790  : 	CString strExtData = GetData(strDataTypeData, "<ExtData>", "<\\ExtData>\r\n");

  00288	68 00 00 00 00	 push	 OFFSET ??_C@_0N@ONMDHGBL@?$DM?2ExtData?$DO?$AN?6@
  0028d	8d 4d e8	 lea	 ecx, DWORD PTR $T20[ebp]
  00290	ff 15 00 00 00
	00		 call	 DWORD PTR __imp_??0?$CStringT@DV?$StrTraitMFC_DLL@DV?$ChTraitsCRT@D@ATL@@@@@ATL@@QAE@PBD@Z
  00296	68 00 00 00 00	 push	 OFFSET ??_C@_09EBDLFGEM@?$DMExtData?$DO@
  0029b	8d 4d e4	 lea	 ecx, DWORD PTR $T19[ebp]
  0029e	c6 45 fc 12	 mov	 BYTE PTR __$EHRec$[ebp+8], 18 ; 00000012H
  002a2	ff 15 00 00 00
	00		 call	 DWORD PTR __imp_??0?$CStringT@DV?$StrTraitMFC_DLL@DV?$ChTraitsCRT@D@ATL@@@@@ATL@@QAE@PBD@Z

; 384  : 	CString strNewData = strOrgData;

  002a8	8d 45 f0	 lea	 eax, DWORD PTR _strDataTypeData$[ebp]

; 788  : 	// 2008.08.20   <<
; 789  : 	//return CDataTypeEnvironment(eCoordinateType, dVert, strHorz);
; 790  : 	CString strExtData = GetData(strDataTypeData, "<ExtData>", "<\\ExtData>\r\n");

  002ab	c6 45 fc 13	 mov	 BYTE PTR __$EHRec$[ebp+8], 19 ; 00000013H

; 384  : 	CString strNewData = strOrgData;

  002af	50		 push	 eax
  002b0	8d 4d 0c	 lea	 ecx, DWORD PTR _strNewData$24[ebp]
  002b3	ff 15 00 00 00
	00		 call	 DWORD PTR __imp_??0?$CStringT@DV?$StrTraitMFC_DLL@DV?$ChTraitsCRT@D@ATL@@@@@ATL@@QAE@ABV01@@Z

; 385  : 	CDataConversion::GetStringData(strNewData, strTrimStart);

  002b9	6a 01		 push	 1
  002bb	8d 45 e4	 lea	 eax, DWORD PTR $T19[ebp]
  002be	c6 45 fc 14	 mov	 BYTE PTR __$EHRec$[ebp+8], 20 ; 00000014H
  002c2	50		 push	 eax
  002c3	8d 45 0c	 lea	 eax, DWORD PTR _strNewData$24[ebp]
  002c6	50		 push	 eax
  002c7	8d 45 cc	 lea	 eax, DWORD PTR $T4[ebp]
  002ca	50		 push	 eax
  002cb	e8 00 00 00 00	 call	 ?GetStringData@CDataConversion@@SA?AV?$CStringT@DV?$StrTraitMFC_DLL@DV?$ChTraitsCRT@D@ATL@@@@@ATL@@AAV23@ABV23@_N@Z ; CDataConversion::GetStringData
  002d0	83 c4 10	 add	 esp, 16			; 00000010H
  002d3	8d 4d cc	 lea	 ecx, DWORD PTR $T4[ebp]
  002d6	ff 15 00 00 00
	00		 call	 DWORD PTR __imp_??1?$CStringT@DV?$StrTraitMFC_DLL@DV?$ChTraitsCRT@D@ATL@@@@@ATL@@QAE@XZ

; 386  : 	return CDataConversion::GetStringData(strNewData, strTrimEnd);

  002dc	6a 01		 push	 1
  002de	8d 45 e8	 lea	 eax, DWORD PTR $T20[ebp]
  002e1	50		 push	 eax
  002e2	8d 45 0c	 lea	 eax, DWORD PTR _strNewData$24[ebp]
  002e5	50		 push	 eax
  002e6	8d 45 d4	 lea	 eax, DWORD PTR _strExtData$[ebp]
  002e9	50		 push	 eax
  002ea	e8 00 00 00 00	 call	 ?GetStringData@CDataConversion@@SA?AV?$CStringT@DV?$StrTraitMFC_DLL@DV?$ChTraitsCRT@D@ATL@@@@@ATL@@AAV23@ABV23@_N@Z ; CDataConversion::GetStringData
  002ef	83 c4 10	 add	 esp, 16			; 00000010H
  002f2	8d 4d 0c	 lea	 ecx, DWORD PTR _strNewData$24[ebp]
  002f5	ff 15 00 00 00
	00		 call	 DWORD PTR __imp_??1?$CStringT@DV?$StrTraitMFC_DLL@DV?$ChTraitsCRT@D@ATL@@@@@ATL@@QAE@XZ

; 788  : 	// 2008.08.20   <<
; 789  : 	//return CDataTypeEnvironment(eCoordinateType, dVert, strHorz);
; 790  : 	CString strExtData = GetData(strDataTypeData, "<ExtData>", "<\\ExtData>\r\n");

  002fb	8d 4d e4	 lea	 ecx, DWORD PTR $T19[ebp]
  002fe	ff 15 00 00 00
	00		 call	 DWORD PTR __imp_??1?$CStringT@DV?$StrTraitMFC_DLL@DV?$ChTraitsCRT@D@ATL@@@@@ATL@@QAE@XZ
  00304	8d 4d e8	 lea	 ecx, DWORD PTR $T20[ebp]
  00307	c6 45 fc 17	 mov	 BYTE PTR __$EHRec$[ebp+8], 23 ; 00000017H
  0030b	ff 15 00 00 00
	00		 call	 DWORD PTR __imp_??1?$CStringT@DV?$StrTraitMFC_DLL@DV?$ChTraitsCRT@D@ATL@@@@@ATL@@QAE@XZ

; 791  : 	// 2008.10.15 by LYH >> 8,32bit
; 792  : 	CString strStrVert = GetData(strDataTypeData, "<StrVert>", "<\\StrVert>\r\n");

  00311	68 00 00 00 00	 push	 OFFSET ??_C@_0N@HGCOAIDN@?$DM?2StrVert?$DO?$AN?6@
  00316	8d 4d e0	 lea	 ecx, DWORD PTR $T15[ebp]
  00319	ff 15 00 00 00
	00		 call	 DWORD PTR __imp_??0?$CStringT@DV?$StrTraitMFC_DLL@DV?$ChTraitsCRT@D@ATL@@@@@ATL@@QAE@PBD@Z
  0031f	c6 45 fc 18	 mov	 BYTE PTR __$EHRec$[ebp+8], 24 ; 00000018H
  00323	68 00 00 00 00	 push	 OFFSET ??_C@_09COIGHGNF@?$DMStrVert?$DO@
  00328	8d 4d dc	 lea	 ecx, DWORD PTR $T11[ebp]
  0032b	ff 15 00 00 00
	00		 call	 DWORD PTR __imp_??0?$CStringT@DV?$StrTraitMFC_DLL@DV?$ChTraitsCRT@D@ATL@@@@@ATL@@QAE@PBD@Z

; 384  : 	CString strNewData = strOrgData;

  00331	8d 45 f0	 lea	 eax, DWORD PTR _strDataTypeData$[ebp]

; 791  : 	// 2008.10.15 by LYH >> 8,32bit
; 792  : 	CString strStrVert = GetData(strDataTypeData, "<StrVert>", "<\\StrVert>\r\n");

  00334	c6 45 fc 19	 mov	 BYTE PTR __$EHRec$[ebp+8], 25 ; 00000019H

; 384  : 	CString strNewData = strOrgData;

  00338	50		 push	 eax
  00339	8d 4d 0c	 lea	 ecx, DWORD PTR _strNewData$23[ebp]
  0033c	ff 15 00 00 00
	00		 call	 DWORD PTR __imp_??0?$CStringT@DV?$StrTraitMFC_DLL@DV?$ChTraitsCRT@D@ATL@@@@@ATL@@QAE@ABV01@@Z

; 385  : 	CDataConversion::GetStringData(strNewData, strTrimStart);

  00342	6a 01		 push	 1
  00344	8d 45 dc	 lea	 eax, DWORD PTR $T11[ebp]
  00347	c6 45 fc 1a	 mov	 BYTE PTR __$EHRec$[ebp+8], 26 ; 0000001aH
  0034b	50		 push	 eax
  0034c	8d 45 0c	 lea	 eax, DWORD PTR _strNewData$23[ebp]
  0034f	50		 push	 eax
  00350	8d 45 cc	 lea	 eax, DWORD PTR $T3[ebp]
  00353	50		 push	 eax
  00354	e8 00 00 00 00	 call	 ?GetStringData@CDataConversion@@SA?AV?$CStringT@DV?$StrTraitMFC_DLL@DV?$ChTraitsCRT@D@ATL@@@@@ATL@@AAV23@ABV23@_N@Z ; CDataConversion::GetStringData
  00359	83 c4 10	 add	 esp, 16			; 00000010H
  0035c	8d 4d cc	 lea	 ecx, DWORD PTR $T3[ebp]
  0035f	ff 15 00 00 00
	00		 call	 DWORD PTR __imp_??1?$CStringT@DV?$StrTraitMFC_DLL@DV?$ChTraitsCRT@D@ATL@@@@@ATL@@QAE@XZ

; 386  : 	return CDataConversion::GetStringData(strNewData, strTrimEnd);

  00365	6a 01		 push	 1
  00367	8d 45 e0	 lea	 eax, DWORD PTR $T15[ebp]
  0036a	50		 push	 eax
  0036b	8d 45 0c	 lea	 eax, DWORD PTR _strNewData$23[ebp]
  0036e	50		 push	 eax
  0036f	8d 45 d8	 lea	 eax, DWORD PTR _strStrVert$[ebp]
  00372	50		 push	 eax
  00373	e8 00 00 00 00	 call	 ?GetStringData@CDataConversion@@SA?AV?$CStringT@DV?$StrTraitMFC_DLL@DV?$ChTraitsCRT@D@ATL@@@@@ATL@@AAV23@ABV23@_N@Z ; CDataConversion::GetStringData
  00378	83 c4 10	 add	 esp, 16			; 00000010H
  0037b	8d 4d 0c	 lea	 ecx, DWORD PTR _strNewData$23[ebp]
  0037e	ff 15 00 00 00
	00		 call	 DWORD PTR __imp_??1?$CStringT@DV?$StrTraitMFC_DLL@DV?$ChTraitsCRT@D@ATL@@@@@ATL@@QAE@XZ

; 791  : 	// 2008.10.15 by LYH >> 8,32bit
; 792  : 	CString strStrVert = GetData(strDataTypeData, "<StrVert>", "<\\StrVert>\r\n");

  00384	8d 4d dc	 lea	 ecx, DWORD PTR $T11[ebp]
  00387	ff 15 00 00 00
	00		 call	 DWORD PTR __imp_??1?$CStringT@DV?$StrTraitMFC_DLL@DV?$ChTraitsCRT@D@ATL@@@@@ATL@@QAE@XZ
  0038d	8d 4d e0	 lea	 ecx, DWORD PTR $T15[ebp]
  00390	c6 45 fc 1d	 mov	 BYTE PTR __$EHRec$[ebp+8], 29 ; 0000001dH
  00394	ff 15 00 00 00
	00		 call	 DWORD PTR __imp_??1?$CStringT@DV?$StrTraitMFC_DLL@DV?$ChTraitsCRT@D@ATL@@@@@ATL@@QAE@XZ

; 793  : 	return CDataTypeEnvironment(eCoordinateType, dVert, strHorz, strExtData, strStrVert, m_hOcxWnd, m_eChartMode);

  0039a	ff 77 04	 push	 DWORD PTR [edi+4]
  0039d	8b 4d 08	 mov	 ecx, DWORD PTR ___$ReturnUdt$[ebp]
  003a0	8d 45 d8	 lea	 eax, DWORD PTR _strStrVert$[ebp]
  003a3	ff 37		 push	 DWORD PTR [edi]
  003a5	50		 push	 eax
  003a6	8d 45 d4	 lea	 eax, DWORD PTR _strExtData$[ebp]
  003a9	50		 push	 eax
  003aa	8d 45 d0	 lea	 eax, DWORD PTR _strHorz$[ebp]
  003ad	50		 push	 eax
  003ae	8d 45 bc	 lea	 eax, DWORD PTR _dVert$[ebp]
  003b1	50		 push	 eax
  003b2	56		 push	 esi
  003b3	e8 00 00 00 00	 call	 ??0CDataTypeEnvironment@@QAE@W4COORDINATETYPE@CAnalysis@@ABNABV?$CStringT@DV?$StrTraitMFC_DLL@DV?$ChTraitsCRT@D@ATL@@@@@ATL@@22PAUHWND__@@W4CHART_MODE@CChartInfo@@@Z ; CDataTypeEnvironment::CDataTypeEnvironment
  003b8	8d 4d d8	 lea	 ecx, DWORD PTR _strStrVert$[ebp]
  003bb	ff 15 00 00 00
	00		 call	 DWORD PTR __imp_??1?$CStringT@DV?$StrTraitMFC_DLL@DV?$ChTraitsCRT@D@ATL@@@@@ATL@@QAE@XZ
  003c1	8d 4d d4	 lea	 ecx, DWORD PTR _strExtData$[ebp]
  003c4	ff 15 00 00 00
	00		 call	 DWORD PTR __imp_??1?$CStringT@DV?$StrTraitMFC_DLL@DV?$ChTraitsCRT@D@ATL@@@@@ATL@@QAE@XZ
  003ca	8d 4d d0	 lea	 ecx, DWORD PTR _strHorz$[ebp]
  003cd	ff 15 00 00 00
	00		 call	 DWORD PTR __imp_??1?$CStringT@DV?$StrTraitMFC_DLL@DV?$ChTraitsCRT@D@ATL@@@@@ATL@@QAE@XZ
  003d3	8d 4d f0	 lea	 ecx, DWORD PTR _strDataTypeData$[ebp]
  003d6	ff 15 00 00 00
	00		 call	 DWORD PTR __imp_??1?$CStringT@DV?$StrTraitMFC_DLL@DV?$ChTraitsCRT@D@ATL@@@@@ATL@@QAE@XZ
  003dc	8b 45 08	 mov	 eax, DWORD PTR ___$ReturnUdt$[ebp]

; 794  : 	//>>
; 795  : }

  003df	8b 4d f4	 mov	 ecx, DWORD PTR __$EHRec$[ebp]
  003e2	64 89 0d 00 00
	00 00		 mov	 DWORD PTR fs:0, ecx
  003e9	59		 pop	 ecx
  003ea	5f		 pop	 edi
  003eb	5e		 pop	 esi
  003ec	8b e5		 mov	 esp, ebp
  003ee	5d		 pop	 ebp
  003ef	c2 08 00	 ret	 8
_TEXT	ENDS
;	COMDAT text$x
text$x	SEGMENT
__unwindfunclet$?GetDataTypeEnvironment@CElementTreeBuilder@@ABE?AVCDataTypeEnvironment@@ABV?$CStringT@DV?$StrTraitMFC_DLL@DV?$ChTraitsCRT@D@ATL@@@@@ATL@@@Z$0:
  00000	8d 4d e8	 lea	 ecx, DWORD PTR $T21[ebp]
  00003	ff 25 00 00 00
	00		 jmp	 DWORD PTR __imp_??1?$CStringT@DV?$StrTraitMFC_DLL@DV?$ChTraitsCRT@D@ATL@@@@@ATL@@QAE@XZ
__unwindfunclet$?GetDataTypeEnvironment@CElementTreeBuilder@@ABE?AVCDataTypeEnvironment@@ABV?$CStringT@DV?$StrTraitMFC_DLL@DV?$ChTraitsCRT@D@ATL@@@@@ATL@@@Z$1:
  00009	8d 4d ec	 lea	 ecx, DWORD PTR $T22[ebp]
  0000c	ff 25 00 00 00
	00		 jmp	 DWORD PTR __imp_??1?$CStringT@DV?$StrTraitMFC_DLL@DV?$ChTraitsCRT@D@ATL@@@@@ATL@@QAE@XZ
__unwindfunclet$?GetDataTypeEnvironment@CElementTreeBuilder@@ABE?AVCDataTypeEnvironment@@ABV?$CStringT@DV?$StrTraitMFC_DLL@DV?$ChTraitsCRT@D@ATL@@@@@ATL@@@Z$13:
  00012	8d 4d 0c	 lea	 ecx, DWORD PTR _strNewData$28[ebp]
  00015	ff 25 00 00 00
	00		 jmp	 DWORD PTR __imp_??1?$CStringT@DV?$StrTraitMFC_DLL@DV?$ChTraitsCRT@D@ATL@@@@@ATL@@QAE@XZ
__unwindfunclet$?GetDataTypeEnvironment@CElementTreeBuilder@@ABE?AVCDataTypeEnvironment@@ABV?$CStringT@DV?$StrTraitMFC_DLL@DV?$ChTraitsCRT@D@ATL@@@@@ATL@@@Z$2:
  0001b	8d 4d f0	 lea	 ecx, DWORD PTR _strDataTypeData$[ebp]
  0001e	ff 25 00 00 00
	00		 jmp	 DWORD PTR __imp_??1?$CStringT@DV?$StrTraitMFC_DLL@DV?$ChTraitsCRT@D@ATL@@@@@ATL@@QAE@XZ
__unwindfunclet$?GetDataTypeEnvironment@CElementTreeBuilder@@ABE?AVCDataTypeEnvironment@@ABV?$CStringT@DV?$StrTraitMFC_DLL@DV?$ChTraitsCRT@D@ATL@@@@@ATL@@@Z$16:
  00024	8d 4d dc	 lea	 ecx, DWORD PTR $T10[ebp]
  00027	ff 25 00 00 00
	00		 jmp	 DWORD PTR __imp_??1?$CStringT@DV?$StrTraitMFC_DLL@DV?$ChTraitsCRT@D@ATL@@@@@ATL@@QAE@XZ
__unwindfunclet$?GetDataTypeEnvironment@CElementTreeBuilder@@ABE?AVCDataTypeEnvironment@@ABV?$CStringT@DV?$StrTraitMFC_DLL@DV?$ChTraitsCRT@D@ATL@@@@@ATL@@@Z$17:
  0002d	8d 4d e0	 lea	 ecx, DWORD PTR $T14[ebp]
  00030	ff 25 00 00 00
	00		 jmp	 DWORD PTR __imp_??1?$CStringT@DV?$StrTraitMFC_DLL@DV?$ChTraitsCRT@D@ATL@@@@@ATL@@QAE@XZ
__unwindfunclet$?GetDataTypeEnvironment@CElementTreeBuilder@@ABE?AVCDataTypeEnvironment@@ABV?$CStringT@DV?$StrTraitMFC_DLL@DV?$ChTraitsCRT@D@ATL@@@@@ATL@@@Z$19:
  00036	8d 4d 0c	 lea	 ecx, DWORD PTR _strNewData$27[ebp]
  00039	ff 25 00 00 00
	00		 jmp	 DWORD PTR __imp_??1?$CStringT@DV?$StrTraitMFC_DLL@DV?$ChTraitsCRT@D@ATL@@@@@ATL@@QAE@XZ
__unwindfunclet$?GetDataTypeEnvironment@CElementTreeBuilder@@ABE?AVCDataTypeEnvironment@@ABV?$CStringT@DV?$StrTraitMFC_DLL@DV?$ChTraitsCRT@D@ATL@@@@@ATL@@@Z$22:
  0003f	8d 4d e4	 lea	 ecx, DWORD PTR $T17[ebp]
  00042	ff 25 00 00 00
	00		 jmp	 DWORD PTR __imp_??1?$CStringT@DV?$StrTraitMFC_DLL@DV?$ChTraitsCRT@D@ATL@@@@@ATL@@QAE@XZ
__unwindfunclet$?GetDataTypeEnvironment@CElementTreeBuilder@@ABE?AVCDataTypeEnvironment@@ABV?$CStringT@DV?$StrTraitMFC_DLL@DV?$ChTraitsCRT@D@ATL@@@@@ATL@@@Z$23:
  00048	8d 4d e0	 lea	 ecx, DWORD PTR $T13[ebp]
  0004b	ff 25 00 00 00
	00		 jmp	 DWORD PTR __imp_??1?$CStringT@DV?$StrTraitMFC_DLL@DV?$ChTraitsCRT@D@ATL@@@@@ATL@@QAE@XZ
__unwindfunclet$?GetDataTypeEnvironment@CElementTreeBuilder@@ABE?AVCDataTypeEnvironment@@ABV?$CStringT@DV?$StrTraitMFC_DLL@DV?$ChTraitsCRT@D@ATL@@@@@ATL@@@Z$25:
  00051	8d 4d 0c	 lea	 ecx, DWORD PTR _strNewData$25[ebp]
  00054	ff 25 00 00 00
	00		 jmp	 DWORD PTR __imp_??1?$CStringT@DV?$StrTraitMFC_DLL@DV?$ChTraitsCRT@D@ATL@@@@@ATL@@QAE@XZ
__unwindfunclet$?GetDataTypeEnvironment@CElementTreeBuilder@@ABE?AVCDataTypeEnvironment@@ABV?$CStringT@DV?$StrTraitMFC_DLL@DV?$ChTraitsCRT@D@ATL@@@@@ATL@@@Z$3:
  0005a	8d 4d e0	 lea	 ecx, DWORD PTR $T16[ebp]
  0005d	ff 25 00 00 00
	00		 jmp	 DWORD PTR __imp_??1?$CStringT@DV?$StrTraitMFC_DLL@DV?$ChTraitsCRT@D@ATL@@@@@ATL@@QAE@XZ
__unwindfunclet$?GetDataTypeEnvironment@CElementTreeBuilder@@ABE?AVCDataTypeEnvironment@@ABV?$CStringT@DV?$StrTraitMFC_DLL@DV?$ChTraitsCRT@D@ATL@@@@@ATL@@@Z$4:
  00063	8d 4d dc	 lea	 ecx, DWORD PTR $T12[ebp]
  00066	ff 25 00 00 00
	00		 jmp	 DWORD PTR __imp_??1?$CStringT@DV?$StrTraitMFC_DLL@DV?$ChTraitsCRT@D@ATL@@@@@ATL@@QAE@XZ
__unwindfunclet$?GetDataTypeEnvironment@CElementTreeBuilder@@ABE?AVCDataTypeEnvironment@@ABV?$CStringT@DV?$StrTraitMFC_DLL@DV?$ChTraitsCRT@D@ATL@@@@@ATL@@@Z$28:
  0006c	8d 4d 0c	 lea	 ecx, DWORD PTR _strNewData$26[ebp]
  0006f	ff 25 00 00 00
	00		 jmp	 DWORD PTR __imp_??1?$CStringT@DV?$StrTraitMFC_DLL@DV?$ChTraitsCRT@D@ATL@@@@@ATL@@QAE@XZ
__unwindfunclet$?GetDataTypeEnvironment@CElementTreeBuilder@@ABE?AVCDataTypeEnvironment@@ABV?$CStringT@DV?$StrTraitMFC_DLL@DV?$ChTraitsCRT@D@ATL@@@@@ATL@@@Z$5:
  00075	8d 4d d0	 lea	 ecx, DWORD PTR _strHorz$[ebp]
  00078	ff 25 00 00 00
	00		 jmp	 DWORD PTR __imp_??1?$CStringT@DV?$StrTraitMFC_DLL@DV?$ChTraitsCRT@D@ATL@@@@@ATL@@QAE@XZ
__unwindfunclet$?GetDataTypeEnvironment@CElementTreeBuilder@@ABE?AVCDataTypeEnvironment@@ABV?$CStringT@DV?$StrTraitMFC_DLL@DV?$ChTraitsCRT@D@ATL@@@@@ATL@@@Z$6:
  0007e	8d 4d e8	 lea	 ecx, DWORD PTR $T20[ebp]
  00081	ff 25 00 00 00
	00		 jmp	 DWORD PTR __imp_??1?$CStringT@DV?$StrTraitMFC_DLL@DV?$ChTraitsCRT@D@ATL@@@@@ATL@@QAE@XZ
__unwindfunclet$?GetDataTypeEnvironment@CElementTreeBuilder@@ABE?AVCDataTypeEnvironment@@ABV?$CStringT@DV?$StrTraitMFC_DLL@DV?$ChTraitsCRT@D@ATL@@@@@ATL@@@Z$7:
  00087	8d 4d e4	 lea	 ecx, DWORD PTR $T19[ebp]
  0008a	ff 25 00 00 00
	00		 jmp	 DWORD PTR __imp_??1?$CStringT@DV?$StrTraitMFC_DLL@DV?$ChTraitsCRT@D@ATL@@@@@ATL@@QAE@XZ
__unwindfunclet$?GetDataTypeEnvironment@CElementTreeBuilder@@ABE?AVCDataTypeEnvironment@@ABV?$CStringT@DV?$StrTraitMFC_DLL@DV?$ChTraitsCRT@D@ATL@@@@@ATL@@@Z$31:
  00090	8d 4d 0c	 lea	 ecx, DWORD PTR _strNewData$24[ebp]
  00093	ff 25 00 00 00
	00		 jmp	 DWORD PTR __imp_??1?$CStringT@DV?$StrTraitMFC_DLL@DV?$ChTraitsCRT@D@ATL@@@@@ATL@@QAE@XZ
__unwindfunclet$?GetDataTypeEnvironment@CElementTreeBuilder@@ABE?AVCDataTypeEnvironment@@ABV?$CStringT@DV?$StrTraitMFC_DLL@DV?$ChTraitsCRT@D@ATL@@@@@ATL@@@Z$8:
  00099	8d 4d d4	 lea	 ecx, DWORD PTR _strExtData$[ebp]
  0009c	ff 25 00 00 00
	00		 jmp	 DWORD PTR __imp_??1?$CStringT@DV?$StrTraitMFC_DLL@DV?$ChTraitsCRT@D@ATL@@@@@ATL@@QAE@XZ
__unwindfunclet$?GetDataTypeEnvironment@CElementTreeBuilder@@ABE?AVCDataTypeEnvironment@@ABV?$CStringT@DV?$StrTraitMFC_DLL@DV?$ChTraitsCRT@D@ATL@@@@@ATL@@@Z$9:
  000a2	8d 4d e0	 lea	 ecx, DWORD PTR $T15[ebp]
  000a5	ff 25 00 00 00
	00		 jmp	 DWORD PTR __imp_??1?$CStringT@DV?$StrTraitMFC_DLL@DV?$ChTraitsCRT@D@ATL@@@@@ATL@@QAE@XZ
__unwindfunclet$?GetDataTypeEnvironment@CElementTreeBuilder@@ABE?AVCDataTypeEnvironment@@ABV?$CStringT@DV?$StrTraitMFC_DLL@DV?$ChTraitsCRT@D@ATL@@@@@ATL@@@Z$10:
  000ab	8d 4d dc	 lea	 ecx, DWORD PTR $T11[ebp]
  000ae	ff 25 00 00 00
	00		 jmp	 DWORD PTR __imp_??1?$CStringT@DV?$StrTraitMFC_DLL@DV?$ChTraitsCRT@D@ATL@@@@@ATL@@QAE@XZ
__unwindfunclet$?GetDataTypeEnvironment@CElementTreeBuilder@@ABE?AVCDataTypeEnvironment@@ABV?$CStringT@DV?$StrTraitMFC_DLL@DV?$ChTraitsCRT@D@ATL@@@@@ATL@@@Z$34:
  000b4	8d 4d 0c	 lea	 ecx, DWORD PTR _strNewData$23[ebp]
  000b7	ff 25 00 00 00
	00		 jmp	 DWORD PTR __imp_??1?$CStringT@DV?$StrTraitMFC_DLL@DV?$ChTraitsCRT@D@ATL@@@@@ATL@@QAE@XZ
__unwindfunclet$?GetDataTypeEnvironment@CElementTreeBuilder@@ABE?AVCDataTypeEnvironment@@ABV?$CStringT@DV?$StrTraitMFC_DLL@DV?$ChTraitsCRT@D@ATL@@@@@ATL@@@Z$11:
  000bd	8d 4d d8	 lea	 ecx, DWORD PTR _strStrVert$[ebp]
  000c0	ff 25 00 00 00
	00		 jmp	 DWORD PTR __imp_??1?$CStringT@DV?$StrTraitMFC_DLL@DV?$ChTraitsCRT@D@ATL@@@@@ATL@@QAE@XZ
  000c6	cc		 int	 3
  000c7	cc		 int	 3
  000c8	cc		 int	 3
  000c9	cc		 int	 3
  000ca	cc		 int	 3
__ehhandler$?GetDataTypeEnvironment@CElementTreeBuilder@@ABE?AVCDataTypeEnvironment@@ABV?$CStringT@DV?$StrTraitMFC_DLL@DV?$ChTraitsCRT@D@ATL@@@@@ATL@@@Z:
  000cb	90		 npad	 1
  000cc	90		 npad	 1
  000cd	8b 54 24 08	 mov	 edx, DWORD PTR [esp+8]
  000d1	8d 42 0c	 lea	 eax, DWORD PTR [edx+12]
  000d4	8b 4a bc	 mov	 ecx, DWORD PTR [edx-68]
  000d7	33 c8		 xor	 ecx, eax
  000d9	e8 00 00 00 00	 call	 @__security_check_cookie@4
  000de	b8 00 00 00 00	 mov	 eax, OFFSET __ehfuncinfo$?GetDataTypeEnvironment@CElementTreeBuilder@@ABE?AVCDataTypeEnvironment@@ABV?$CStringT@DV?$StrTraitMFC_DLL@DV?$ChTraitsCRT@D@ATL@@@@@ATL@@@Z
  000e3	e9 00 00 00 00	 jmp	 ___CxxFrameHandler3
text$x	ENDS
?GetDataTypeEnvironment@CElementTreeBuilder@@ABE?AVCDataTypeEnvironment@@ABV?$CStringT@DV?$StrTraitMFC_DLL@DV?$ChTraitsCRT@D@ATL@@@@@ATL@@@Z ENDP ; CElementTreeBuilder::GetDataTypeEnvironment
; Function compile flags: /Ogtp
; File D:\git\src\IBK\IBK_DRFN\ProjSrc\SrcChartEx\ChartAddIn\ChartAnalysisToolAddIn\AnalysisTool\ElementTreeBuilder.cpp
;	COMDAT ?GetStyle@CElementTreeBuilder@@ABE?AW4PenStyle@CToolEnumData@@ABV?$CStringT@DV?$StrTraitMFC_DLL@DV?$ChTraitsCRT@D@ATL@@@@@ATL@@@Z
_TEXT	SEGMENT
$T2 = -28						; size = 4
$T3 = -24						; size = 4
$T4 = -20						; size = 4
$T5 = -16						; size = 4
__$EHRec$ = -12						; size = 12
_strNewData$6 = 8					; size = 4
_strData$ = 8						; size = 4
?GetStyle@CElementTreeBuilder@@ABE?AW4PenStyle@CToolEnumData@@ABV?$CStringT@DV?$StrTraitMFC_DLL@DV?$ChTraitsCRT@D@ATL@@@@@ATL@@@Z PROC ; CElementTreeBuilder::GetStyle, COMDAT
; _this$ = ecx

; 777  : {

  00000	55		 push	 ebp
  00001	8b ec		 mov	 ebp, esp
  00003	6a ff		 push	 -1
  00005	68 00 00 00 00	 push	 __ehhandler$?GetStyle@CElementTreeBuilder@@ABE?AW4PenStyle@CToolEnumData@@ABV?$CStringT@DV?$StrTraitMFC_DLL@DV?$ChTraitsCRT@D@ATL@@@@@ATL@@@Z
  0000a	64 a1 00 00 00
	00		 mov	 eax, DWORD PTR fs:0
  00010	50		 push	 eax
  00011	83 ec 10	 sub	 esp, 16			; 00000010H
  00014	56		 push	 esi
  00015	a1 00 00 00 00	 mov	 eax, DWORD PTR ___security_cookie
  0001a	33 c5		 xor	 eax, ebp
  0001c	50		 push	 eax
  0001d	8d 45 f4	 lea	 eax, DWORD PTR __$EHRec$[ebp]
  00020	64 a3 00 00 00
	00		 mov	 DWORD PTR fs:0, eax

; 778  : 	return (CToolEnumData::PenStyle) atoi(GetData(strData, "<Style>", "<\\Style>\r\n"));

  00026	68 00 00 00 00	 push	 OFFSET ??_C@_0L@MDDCEFHI@?$DM?2Style?$DO?$AN?6@
  0002b	8d 4d e8	 lea	 ecx, DWORD PTR $T3[ebp]
  0002e	ff 15 00 00 00
	00		 call	 DWORD PTR __imp_??0?$CStringT@DV?$StrTraitMFC_DLL@DV?$ChTraitsCRT@D@ATL@@@@@ATL@@QAE@PBD@Z
  00034	68 00 00 00 00	 push	 OFFSET ??_C@_07EANKACOK@?$DMStyle?$DO@
  00039	8d 4d ec	 lea	 ecx, DWORD PTR $T4[ebp]
  0003c	c7 45 fc 00 00
	00 00		 mov	 DWORD PTR __$EHRec$[ebp+8], 0
  00043	ff 15 00 00 00
	00		 call	 DWORD PTR __imp_??0?$CStringT@DV?$StrTraitMFC_DLL@DV?$ChTraitsCRT@D@ATL@@@@@ATL@@QAE@PBD@Z

; 384  : 	CString strNewData = strOrgData;

  00049	ff 75 08	 push	 DWORD PTR _strData$[ebp]
  0004c	8d 4d 08	 lea	 ecx, DWORD PTR _strNewData$6[ebp]

; 778  : 	return (CToolEnumData::PenStyle) atoi(GetData(strData, "<Style>", "<\\Style>\r\n"));

  0004f	c6 45 fc 01	 mov	 BYTE PTR __$EHRec$[ebp+8], 1

; 384  : 	CString strNewData = strOrgData;

  00053	ff 15 00 00 00
	00		 call	 DWORD PTR __imp_??0?$CStringT@DV?$StrTraitMFC_DLL@DV?$ChTraitsCRT@D@ATL@@@@@ATL@@QAE@ABV01@@Z

; 385  : 	CDataConversion::GetStringData(strNewData, strTrimStart);

  00059	6a 01		 push	 1
  0005b	8d 45 ec	 lea	 eax, DWORD PTR $T4[ebp]
  0005e	c6 45 fc 02	 mov	 BYTE PTR __$EHRec$[ebp+8], 2
  00062	50		 push	 eax
  00063	8d 45 08	 lea	 eax, DWORD PTR _strNewData$6[ebp]
  00066	50		 push	 eax
  00067	8d 45 e4	 lea	 eax, DWORD PTR $T2[ebp]
  0006a	50		 push	 eax
  0006b	e8 00 00 00 00	 call	 ?GetStringData@CDataConversion@@SA?AV?$CStringT@DV?$StrTraitMFC_DLL@DV?$ChTraitsCRT@D@ATL@@@@@ATL@@AAV23@ABV23@_N@Z ; CDataConversion::GetStringData
  00070	83 c4 10	 add	 esp, 16			; 00000010H
  00073	8d 4d e4	 lea	 ecx, DWORD PTR $T2[ebp]
  00076	ff 15 00 00 00
	00		 call	 DWORD PTR __imp_??1?$CStringT@DV?$StrTraitMFC_DLL@DV?$ChTraitsCRT@D@ATL@@@@@ATL@@QAE@XZ

; 386  : 	return CDataConversion::GetStringData(strNewData, strTrimEnd);

  0007c	6a 01		 push	 1
  0007e	8d 45 e8	 lea	 eax, DWORD PTR $T3[ebp]
  00081	50		 push	 eax
  00082	8d 45 08	 lea	 eax, DWORD PTR _strNewData$6[ebp]
  00085	50		 push	 eax
  00086	8d 45 f0	 lea	 eax, DWORD PTR $T5[ebp]
  00089	50		 push	 eax
  0008a	e8 00 00 00 00	 call	 ?GetStringData@CDataConversion@@SA?AV?$CStringT@DV?$StrTraitMFC_DLL@DV?$ChTraitsCRT@D@ATL@@@@@ATL@@AAV23@ABV23@_N@Z ; CDataConversion::GetStringData
  0008f	83 c4 10	 add	 esp, 16			; 00000010H
  00092	8d 4d 08	 lea	 ecx, DWORD PTR _strNewData$6[ebp]
  00095	ff 15 00 00 00
	00		 call	 DWORD PTR __imp_??1?$CStringT@DV?$StrTraitMFC_DLL@DV?$ChTraitsCRT@D@ATL@@@@@ATL@@QAE@XZ

; 778  : 	return (CToolEnumData::PenStyle) atoi(GetData(strData, "<Style>", "<\\Style>\r\n"));

  0009b	ff 75 f0	 push	 DWORD PTR $T5[ebp]
  0009e	ff 15 00 00 00
	00		 call	 DWORD PTR __imp__atoi
  000a4	83 c4 04	 add	 esp, 4
  000a7	8d 4d f0	 lea	 ecx, DWORD PTR $T5[ebp]
  000aa	8b f0		 mov	 esi, eax
  000ac	ff 15 00 00 00
	00		 call	 DWORD PTR __imp_??1?$CStringT@DV?$StrTraitMFC_DLL@DV?$ChTraitsCRT@D@ATL@@@@@ATL@@QAE@XZ
  000b2	8d 4d ec	 lea	 ecx, DWORD PTR $T4[ebp]
  000b5	ff 15 00 00 00
	00		 call	 DWORD PTR __imp_??1?$CStringT@DV?$StrTraitMFC_DLL@DV?$ChTraitsCRT@D@ATL@@@@@ATL@@QAE@XZ
  000bb	8d 4d e8	 lea	 ecx, DWORD PTR $T3[ebp]
  000be	ff 15 00 00 00
	00		 call	 DWORD PTR __imp_??1?$CStringT@DV?$StrTraitMFC_DLL@DV?$ChTraitsCRT@D@ATL@@@@@ATL@@QAE@XZ
  000c4	8b c6		 mov	 eax, esi

; 779  : }

  000c6	8b 4d f4	 mov	 ecx, DWORD PTR __$EHRec$[ebp]
  000c9	64 89 0d 00 00
	00 00		 mov	 DWORD PTR fs:0, ecx
  000d0	59		 pop	 ecx
  000d1	5e		 pop	 esi
  000d2	8b e5		 mov	 esp, ebp
  000d4	5d		 pop	 ebp
  000d5	c2 04 00	 ret	 4
_TEXT	ENDS
;	COMDAT text$x
text$x	SEGMENT
__unwindfunclet$?GetStyle@CElementTreeBuilder@@ABE?AW4PenStyle@CToolEnumData@@ABV?$CStringT@DV?$StrTraitMFC_DLL@DV?$ChTraitsCRT@D@ATL@@@@@ATL@@@Z$0:
  00000	8d 4d e8	 lea	 ecx, DWORD PTR $T3[ebp]
  00003	ff 25 00 00 00
	00		 jmp	 DWORD PTR __imp_??1?$CStringT@DV?$StrTraitMFC_DLL@DV?$ChTraitsCRT@D@ATL@@@@@ATL@@QAE@XZ
__unwindfunclet$?GetStyle@CElementTreeBuilder@@ABE?AW4PenStyle@CToolEnumData@@ABV?$CStringT@DV?$StrTraitMFC_DLL@DV?$ChTraitsCRT@D@ATL@@@@@ATL@@@Z$1:
  00009	8d 4d ec	 lea	 ecx, DWORD PTR $T4[ebp]
  0000c	ff 25 00 00 00
	00		 jmp	 DWORD PTR __imp_??1?$CStringT@DV?$StrTraitMFC_DLL@DV?$ChTraitsCRT@D@ATL@@@@@ATL@@QAE@XZ
__unwindfunclet$?GetStyle@CElementTreeBuilder@@ABE?AW4PenStyle@CToolEnumData@@ABV?$CStringT@DV?$StrTraitMFC_DLL@DV?$ChTraitsCRT@D@ATL@@@@@ATL@@@Z$3:
  00012	8d 4d 08	 lea	 ecx, DWORD PTR _strNewData$6[ebp]
  00015	ff 25 00 00 00
	00		 jmp	 DWORD PTR __imp_??1?$CStringT@DV?$StrTraitMFC_DLL@DV?$ChTraitsCRT@D@ATL@@@@@ATL@@QAE@XZ
  0001b	cc		 int	 3
  0001c	cc		 int	 3
  0001d	cc		 int	 3
  0001e	cc		 int	 3
  0001f	cc		 int	 3
__ehhandler$?GetStyle@CElementTreeBuilder@@ABE?AW4PenStyle@CToolEnumData@@ABV?$CStringT@DV?$StrTraitMFC_DLL@DV?$ChTraitsCRT@D@ATL@@@@@ATL@@@Z:
  00020	90		 npad	 1
  00021	90		 npad	 1
  00022	8b 54 24 08	 mov	 edx, DWORD PTR [esp+8]
  00026	8d 42 0c	 lea	 eax, DWORD PTR [edx+12]
  00029	8b 4a e8	 mov	 ecx, DWORD PTR [edx-24]
  0002c	33 c8		 xor	 ecx, eax
  0002e	e8 00 00 00 00	 call	 @__security_check_cookie@4
  00033	b8 00 00 00 00	 mov	 eax, OFFSET __ehfuncinfo$?GetStyle@CElementTreeBuilder@@ABE?AW4PenStyle@CToolEnumData@@ABV?$CStringT@DV?$StrTraitMFC_DLL@DV?$ChTraitsCRT@D@ATL@@@@@ATL@@@Z
  00038	e9 00 00 00 00	 jmp	 ___CxxFrameHandler3
text$x	ENDS
?GetStyle@CElementTreeBuilder@@ABE?AW4PenStyle@CToolEnumData@@ABV?$CStringT@DV?$StrTraitMFC_DLL@DV?$ChTraitsCRT@D@ATL@@@@@ATL@@@Z ENDP ; CElementTreeBuilder::GetStyle
; Function compile flags: /Ogtp
; File D:\git\src\IBK\IBK_DRFN\ProjSrc\SrcChartEx\ChartAddIn\ChartAnalysisToolAddIn\AnalysisTool\ElementTreeBuilder.cpp
;	COMDAT ?GetWidth@CElementTreeBuilder@@ABEHABV?$CStringT@DV?$StrTraitMFC_DLL@DV?$ChTraitsCRT@D@ATL@@@@@ATL@@@Z
_TEXT	SEGMENT
$T2 = -28						; size = 4
$T3 = -24						; size = 4
$T4 = -20						; size = 4
$T5 = -16						; size = 4
__$EHRec$ = -12						; size = 12
_strNewData$6 = 8					; size = 4
_strData$ = 8						; size = 4
?GetWidth@CElementTreeBuilder@@ABEHABV?$CStringT@DV?$StrTraitMFC_DLL@DV?$ChTraitsCRT@D@ATL@@@@@ATL@@@Z PROC ; CElementTreeBuilder::GetWidth, COMDAT
; _this$ = ecx

; 772  : {

  00000	55		 push	 ebp
  00001	8b ec		 mov	 ebp, esp
  00003	6a ff		 push	 -1
  00005	68 00 00 00 00	 push	 __ehhandler$?GetWidth@CElementTreeBuilder@@ABEHABV?$CStringT@DV?$StrTraitMFC_DLL@DV?$ChTraitsCRT@D@ATL@@@@@ATL@@@Z
  0000a	64 a1 00 00 00
	00		 mov	 eax, DWORD PTR fs:0
  00010	50		 push	 eax
  00011	83 ec 10	 sub	 esp, 16			; 00000010H
  00014	56		 push	 esi
  00015	a1 00 00 00 00	 mov	 eax, DWORD PTR ___security_cookie
  0001a	33 c5		 xor	 eax, ebp
  0001c	50		 push	 eax
  0001d	8d 45 f4	 lea	 eax, DWORD PTR __$EHRec$[ebp]
  00020	64 a3 00 00 00
	00		 mov	 DWORD PTR fs:0, eax

; 773  : 	return atoi(GetData(strData, "<Width>", "<\\Width>\r\n"));

  00026	68 00 00 00 00	 push	 OFFSET ??_C@_0L@GIHMIJMH@?$DM?2Width?$DO?$AN?6@
  0002b	8d 4d e8	 lea	 ecx, DWORD PTR $T3[ebp]
  0002e	ff 15 00 00 00
	00		 call	 DWORD PTR __imp_??0?$CStringT@DV?$StrTraitMFC_DLL@DV?$ChTraitsCRT@D@ATL@@@@@ATL@@QAE@PBD@Z
  00034	68 00 00 00 00	 push	 OFFSET ??_C@_07ONIIIKM@?$DMWidth?$DO@
  00039	8d 4d ec	 lea	 ecx, DWORD PTR $T4[ebp]
  0003c	c7 45 fc 00 00
	00 00		 mov	 DWORD PTR __$EHRec$[ebp+8], 0
  00043	ff 15 00 00 00
	00		 call	 DWORD PTR __imp_??0?$CStringT@DV?$StrTraitMFC_DLL@DV?$ChTraitsCRT@D@ATL@@@@@ATL@@QAE@PBD@Z

; 384  : 	CString strNewData = strOrgData;

  00049	ff 75 08	 push	 DWORD PTR _strData$[ebp]
  0004c	8d 4d 08	 lea	 ecx, DWORD PTR _strNewData$6[ebp]

; 773  : 	return atoi(GetData(strData, "<Width>", "<\\Width>\r\n"));

  0004f	c6 45 fc 01	 mov	 BYTE PTR __$EHRec$[ebp+8], 1

; 384  : 	CString strNewData = strOrgData;

  00053	ff 15 00 00 00
	00		 call	 DWORD PTR __imp_??0?$CStringT@DV?$StrTraitMFC_DLL@DV?$ChTraitsCRT@D@ATL@@@@@ATL@@QAE@ABV01@@Z

; 385  : 	CDataConversion::GetStringData(strNewData, strTrimStart);

  00059	6a 01		 push	 1
  0005b	8d 45 ec	 lea	 eax, DWORD PTR $T4[ebp]
  0005e	c6 45 fc 02	 mov	 BYTE PTR __$EHRec$[ebp+8], 2
  00062	50		 push	 eax
  00063	8d 45 08	 lea	 eax, DWORD PTR _strNewData$6[ebp]
  00066	50		 push	 eax
  00067	8d 45 e4	 lea	 eax, DWORD PTR $T2[ebp]
  0006a	50		 push	 eax
  0006b	e8 00 00 00 00	 call	 ?GetStringData@CDataConversion@@SA?AV?$CStringT@DV?$StrTraitMFC_DLL@DV?$ChTraitsCRT@D@ATL@@@@@ATL@@AAV23@ABV23@_N@Z ; CDataConversion::GetStringData
  00070	83 c4 10	 add	 esp, 16			; 00000010H
  00073	8d 4d e4	 lea	 ecx, DWORD PTR $T2[ebp]
  00076	ff 15 00 00 00
	00		 call	 DWORD PTR __imp_??1?$CStringT@DV?$StrTraitMFC_DLL@DV?$ChTraitsCRT@D@ATL@@@@@ATL@@QAE@XZ

; 386  : 	return CDataConversion::GetStringData(strNewData, strTrimEnd);

  0007c	6a 01		 push	 1
  0007e	8d 45 e8	 lea	 eax, DWORD PTR $T3[ebp]
  00081	50		 push	 eax
  00082	8d 45 08	 lea	 eax, DWORD PTR _strNewData$6[ebp]
  00085	50		 push	 eax
  00086	8d 45 f0	 lea	 eax, DWORD PTR $T5[ebp]
  00089	50		 push	 eax
  0008a	e8 00 00 00 00	 call	 ?GetStringData@CDataConversion@@SA?AV?$CStringT@DV?$StrTraitMFC_DLL@DV?$ChTraitsCRT@D@ATL@@@@@ATL@@AAV23@ABV23@_N@Z ; CDataConversion::GetStringData
  0008f	83 c4 10	 add	 esp, 16			; 00000010H
  00092	8d 4d 08	 lea	 ecx, DWORD PTR _strNewData$6[ebp]
  00095	ff 15 00 00 00
	00		 call	 DWORD PTR __imp_??1?$CStringT@DV?$StrTraitMFC_DLL@DV?$ChTraitsCRT@D@ATL@@@@@ATL@@QAE@XZ

; 773  : 	return atoi(GetData(strData, "<Width>", "<\\Width>\r\n"));

  0009b	ff 75 f0	 push	 DWORD PTR $T5[ebp]
  0009e	ff 15 00 00 00
	00		 call	 DWORD PTR __imp__atoi
  000a4	83 c4 04	 add	 esp, 4
  000a7	8d 4d f0	 lea	 ecx, DWORD PTR $T5[ebp]
  000aa	8b f0		 mov	 esi, eax
  000ac	ff 15 00 00 00
	00		 call	 DWORD PTR __imp_??1?$CStringT@DV?$StrTraitMFC_DLL@DV?$ChTraitsCRT@D@ATL@@@@@ATL@@QAE@XZ
  000b2	8d 4d ec	 lea	 ecx, DWORD PTR $T4[ebp]
  000b5	ff 15 00 00 00
	00		 call	 DWORD PTR __imp_??1?$CStringT@DV?$StrTraitMFC_DLL@DV?$ChTraitsCRT@D@ATL@@@@@ATL@@QAE@XZ
  000bb	8d 4d e8	 lea	 ecx, DWORD PTR $T3[ebp]
  000be	ff 15 00 00 00
	00		 call	 DWORD PTR __imp_??1?$CStringT@DV?$StrTraitMFC_DLL@DV?$ChTraitsCRT@D@ATL@@@@@ATL@@QAE@XZ
  000c4	8b c6		 mov	 eax, esi

; 774  : }

  000c6	8b 4d f4	 mov	 ecx, DWORD PTR __$EHRec$[ebp]
  000c9	64 89 0d 00 00
	00 00		 mov	 DWORD PTR fs:0, ecx
  000d0	59		 pop	 ecx
  000d1	5e		 pop	 esi
  000d2	8b e5		 mov	 esp, ebp
  000d4	5d		 pop	 ebp
  000d5	c2 04 00	 ret	 4
_TEXT	ENDS
;	COMDAT text$x
text$x	SEGMENT
__unwindfunclet$?GetWidth@CElementTreeBuilder@@ABEHABV?$CStringT@DV?$StrTraitMFC_DLL@DV?$ChTraitsCRT@D@ATL@@@@@ATL@@@Z$0:
  00000	8d 4d e8	 lea	 ecx, DWORD PTR $T3[ebp]
  00003	ff 25 00 00 00
	00		 jmp	 DWORD PTR __imp_??1?$CStringT@DV?$StrTraitMFC_DLL@DV?$ChTraitsCRT@D@ATL@@@@@ATL@@QAE@XZ
__unwindfunclet$?GetWidth@CElementTreeBuilder@@ABEHABV?$CStringT@DV?$StrTraitMFC_DLL@DV?$ChTraitsCRT@D@ATL@@@@@ATL@@@Z$1:
  00009	8d 4d ec	 lea	 ecx, DWORD PTR $T4[ebp]
  0000c	ff 25 00 00 00
	00		 jmp	 DWORD PTR __imp_??1?$CStringT@DV?$StrTraitMFC_DLL@DV?$ChTraitsCRT@D@ATL@@@@@ATL@@QAE@XZ
__unwindfunclet$?GetWidth@CElementTreeBuilder@@ABEHABV?$CStringT@DV?$StrTraitMFC_DLL@DV?$ChTraitsCRT@D@ATL@@@@@ATL@@@Z$3:
  00012	8d 4d 08	 lea	 ecx, DWORD PTR _strNewData$6[ebp]
  00015	ff 25 00 00 00
	00		 jmp	 DWORD PTR __imp_??1?$CStringT@DV?$StrTraitMFC_DLL@DV?$ChTraitsCRT@D@ATL@@@@@ATL@@QAE@XZ
  0001b	cc		 int	 3
  0001c	cc		 int	 3
  0001d	cc		 int	 3
  0001e	cc		 int	 3
  0001f	cc		 int	 3
__ehhandler$?GetWidth@CElementTreeBuilder@@ABEHABV?$CStringT@DV?$StrTraitMFC_DLL@DV?$ChTraitsCRT@D@ATL@@@@@ATL@@@Z:
  00020	90		 npad	 1
  00021	90		 npad	 1
  00022	8b 54 24 08	 mov	 edx, DWORD PTR [esp+8]
  00026	8d 42 0c	 lea	 eax, DWORD PTR [edx+12]
  00029	8b 4a e8	 mov	 ecx, DWORD PTR [edx-24]
  0002c	33 c8		 xor	 ecx, eax
  0002e	e8 00 00 00 00	 call	 @__security_check_cookie@4
  00033	b8 00 00 00 00	 mov	 eax, OFFSET __ehfuncinfo$?GetWidth@CElementTreeBuilder@@ABEHABV?$CStringT@DV?$StrTraitMFC_DLL@DV?$ChTraitsCRT@D@ATL@@@@@ATL@@@Z
  00038	e9 00 00 00 00	 jmp	 ___CxxFrameHandler3
text$x	ENDS
?GetWidth@CElementTreeBuilder@@ABEHABV?$CStringT@DV?$StrTraitMFC_DLL@DV?$ChTraitsCRT@D@ATL@@@@@ATL@@@Z ENDP ; CElementTreeBuilder::GetWidth
; Function compile flags: /Ogtp
; File D:\git\src\IBK\IBK_DRFN\ProjSrc\SrcChartEx\ChartAddIn\ChartAnalysisToolAddIn\AnalysisTool\ElementTreeBuilder.cpp
;	COMDAT ?GetColor@CElementTreeBuilder@@ABEKABV?$CStringT@DV?$StrTraitMFC_DLL@DV?$ChTraitsCRT@D@ATL@@@@@ATL@@@Z
_TEXT	SEGMENT
$T2 = -28						; size = 4
$T3 = -24						; size = 4
$T4 = -20						; size = 4
$T5 = -16						; size = 4
__$EHRec$ = -12						; size = 12
_strNewData$6 = 8					; size = 4
_strData$ = 8						; size = 4
?GetColor@CElementTreeBuilder@@ABEKABV?$CStringT@DV?$StrTraitMFC_DLL@DV?$ChTraitsCRT@D@ATL@@@@@ATL@@@Z PROC ; CElementTreeBuilder::GetColor, COMDAT
; _this$ = ecx

; 767  : {

  00000	55		 push	 ebp
  00001	8b ec		 mov	 ebp, esp
  00003	6a ff		 push	 -1
  00005	68 00 00 00 00	 push	 __ehhandler$?GetColor@CElementTreeBuilder@@ABEKABV?$CStringT@DV?$StrTraitMFC_DLL@DV?$ChTraitsCRT@D@ATL@@@@@ATL@@@Z
  0000a	64 a1 00 00 00
	00		 mov	 eax, DWORD PTR fs:0
  00010	50		 push	 eax
  00011	83 ec 10	 sub	 esp, 16			; 00000010H
  00014	56		 push	 esi
  00015	a1 00 00 00 00	 mov	 eax, DWORD PTR ___security_cookie
  0001a	33 c5		 xor	 eax, ebp
  0001c	50		 push	 eax
  0001d	8d 45 f4	 lea	 eax, DWORD PTR __$EHRec$[ebp]
  00020	64 a3 00 00 00
	00		 mov	 DWORD PTR fs:0, eax

; 768  : 	return CDataConversion::Str2RGB(GetData(strData, "<Color>", "<\\Color>\r\n"));

  00026	68 00 00 00 00	 push	 OFFSET ??_C@_0L@CPJBKACB@?$DM?2Color?$DO?$AN?6@
  0002b	8d 4d e8	 lea	 ecx, DWORD PTR $T3[ebp]
  0002e	ff 15 00 00 00
	00		 call	 DWORD PTR __imp_??0?$CStringT@DV?$StrTraitMFC_DLL@DV?$ChTraitsCRT@D@ATL@@@@@ATL@@QAE@PBD@Z
  00034	68 00 00 00 00	 push	 OFFSET ??_C@_07ONMJGOJF@?$DMColor?$DO@
  00039	8d 4d ec	 lea	 ecx, DWORD PTR $T4[ebp]
  0003c	c7 45 fc 00 00
	00 00		 mov	 DWORD PTR __$EHRec$[ebp+8], 0
  00043	ff 15 00 00 00
	00		 call	 DWORD PTR __imp_??0?$CStringT@DV?$StrTraitMFC_DLL@DV?$ChTraitsCRT@D@ATL@@@@@ATL@@QAE@PBD@Z

; 384  : 	CString strNewData = strOrgData;

  00049	ff 75 08	 push	 DWORD PTR _strData$[ebp]
  0004c	8d 4d 08	 lea	 ecx, DWORD PTR _strNewData$6[ebp]

; 768  : 	return CDataConversion::Str2RGB(GetData(strData, "<Color>", "<\\Color>\r\n"));

  0004f	c6 45 fc 01	 mov	 BYTE PTR __$EHRec$[ebp+8], 1

; 384  : 	CString strNewData = strOrgData;

  00053	ff 15 00 00 00
	00		 call	 DWORD PTR __imp_??0?$CStringT@DV?$StrTraitMFC_DLL@DV?$ChTraitsCRT@D@ATL@@@@@ATL@@QAE@ABV01@@Z

; 385  : 	CDataConversion::GetStringData(strNewData, strTrimStart);

  00059	6a 01		 push	 1
  0005b	8d 45 ec	 lea	 eax, DWORD PTR $T4[ebp]
  0005e	c6 45 fc 02	 mov	 BYTE PTR __$EHRec$[ebp+8], 2
  00062	50		 push	 eax
  00063	8d 45 08	 lea	 eax, DWORD PTR _strNewData$6[ebp]
  00066	50		 push	 eax
  00067	8d 45 e4	 lea	 eax, DWORD PTR $T2[ebp]
  0006a	50		 push	 eax
  0006b	e8 00 00 00 00	 call	 ?GetStringData@CDataConversion@@SA?AV?$CStringT@DV?$StrTraitMFC_DLL@DV?$ChTraitsCRT@D@ATL@@@@@ATL@@AAV23@ABV23@_N@Z ; CDataConversion::GetStringData
  00070	83 c4 10	 add	 esp, 16			; 00000010H
  00073	8d 4d e4	 lea	 ecx, DWORD PTR $T2[ebp]
  00076	ff 15 00 00 00
	00		 call	 DWORD PTR __imp_??1?$CStringT@DV?$StrTraitMFC_DLL@DV?$ChTraitsCRT@D@ATL@@@@@ATL@@QAE@XZ

; 386  : 	return CDataConversion::GetStringData(strNewData, strTrimEnd);

  0007c	6a 01		 push	 1
  0007e	8d 45 e8	 lea	 eax, DWORD PTR $T3[ebp]
  00081	50		 push	 eax
  00082	8d 45 08	 lea	 eax, DWORD PTR _strNewData$6[ebp]
  00085	50		 push	 eax
  00086	8d 45 f0	 lea	 eax, DWORD PTR $T5[ebp]
  00089	50		 push	 eax
  0008a	e8 00 00 00 00	 call	 ?GetStringData@CDataConversion@@SA?AV?$CStringT@DV?$StrTraitMFC_DLL@DV?$ChTraitsCRT@D@ATL@@@@@ATL@@AAV23@ABV23@_N@Z ; CDataConversion::GetStringData
  0008f	83 c4 10	 add	 esp, 16			; 00000010H
  00092	8d 4d 08	 lea	 ecx, DWORD PTR _strNewData$6[ebp]
  00095	ff 15 00 00 00
	00		 call	 DWORD PTR __imp_??1?$CStringT@DV?$StrTraitMFC_DLL@DV?$ChTraitsCRT@D@ATL@@@@@ATL@@QAE@XZ

; 768  : 	return CDataConversion::Str2RGB(GetData(strData, "<Color>", "<\\Color>\r\n"));

  0009b	8d 45 f0	 lea	 eax, DWORD PTR $T5[ebp]
  0009e	c6 45 fc 03	 mov	 BYTE PTR __$EHRec$[ebp+8], 3
  000a2	50		 push	 eax
  000a3	e8 00 00 00 00	 call	 ?Str2RGB@CDataConversion@@SAKABV?$CStringT@DV?$StrTraitMFC_DLL@DV?$ChTraitsCRT@D@ATL@@@@@ATL@@@Z ; CDataConversion::Str2RGB
  000a8	83 c4 04	 add	 esp, 4
  000ab	8d 4d f0	 lea	 ecx, DWORD PTR $T5[ebp]
  000ae	8b f0		 mov	 esi, eax
  000b0	ff 15 00 00 00
	00		 call	 DWORD PTR __imp_??1?$CStringT@DV?$StrTraitMFC_DLL@DV?$ChTraitsCRT@D@ATL@@@@@ATL@@QAE@XZ
  000b6	8d 4d ec	 lea	 ecx, DWORD PTR $T4[ebp]
  000b9	ff 15 00 00 00
	00		 call	 DWORD PTR __imp_??1?$CStringT@DV?$StrTraitMFC_DLL@DV?$ChTraitsCRT@D@ATL@@@@@ATL@@QAE@XZ
  000bf	8d 4d e8	 lea	 ecx, DWORD PTR $T3[ebp]
  000c2	ff 15 00 00 00
	00		 call	 DWORD PTR __imp_??1?$CStringT@DV?$StrTraitMFC_DLL@DV?$ChTraitsCRT@D@ATL@@@@@ATL@@QAE@XZ
  000c8	8b c6		 mov	 eax, esi

; 769  : }

  000ca	8b 4d f4	 mov	 ecx, DWORD PTR __$EHRec$[ebp]
  000cd	64 89 0d 00 00
	00 00		 mov	 DWORD PTR fs:0, ecx
  000d4	59		 pop	 ecx
  000d5	5e		 pop	 esi
  000d6	8b e5		 mov	 esp, ebp
  000d8	5d		 pop	 ebp
  000d9	c2 04 00	 ret	 4
_TEXT	ENDS
;	COMDAT text$x
text$x	SEGMENT
__unwindfunclet$?GetColor@CElementTreeBuilder@@ABEKABV?$CStringT@DV?$StrTraitMFC_DLL@DV?$ChTraitsCRT@D@ATL@@@@@ATL@@@Z$0:
  00000	8d 4d e8	 lea	 ecx, DWORD PTR $T3[ebp]
  00003	ff 25 00 00 00
	00		 jmp	 DWORD PTR __imp_??1?$CStringT@DV?$StrTraitMFC_DLL@DV?$ChTraitsCRT@D@ATL@@@@@ATL@@QAE@XZ
__unwindfunclet$?GetColor@CElementTreeBuilder@@ABEKABV?$CStringT@DV?$StrTraitMFC_DLL@DV?$ChTraitsCRT@D@ATL@@@@@ATL@@@Z$1:
  00009	8d 4d ec	 lea	 ecx, DWORD PTR $T4[ebp]
  0000c	ff 25 00 00 00
	00		 jmp	 DWORD PTR __imp_??1?$CStringT@DV?$StrTraitMFC_DLL@DV?$ChTraitsCRT@D@ATL@@@@@ATL@@QAE@XZ
__unwindfunclet$?GetColor@CElementTreeBuilder@@ABEKABV?$CStringT@DV?$StrTraitMFC_DLL@DV?$ChTraitsCRT@D@ATL@@@@@ATL@@@Z$3:
  00012	8d 4d 08	 lea	 ecx, DWORD PTR _strNewData$6[ebp]
  00015	ff 25 00 00 00
	00		 jmp	 DWORD PTR __imp_??1?$CStringT@DV?$StrTraitMFC_DLL@DV?$ChTraitsCRT@D@ATL@@@@@ATL@@QAE@XZ
__unwindfunclet$?GetColor@CElementTreeBuilder@@ABEKABV?$CStringT@DV?$StrTraitMFC_DLL@DV?$ChTraitsCRT@D@ATL@@@@@ATL@@@Z$2:
  0001b	8d 4d f0	 lea	 ecx, DWORD PTR $T5[ebp]
  0001e	ff 25 00 00 00
	00		 jmp	 DWORD PTR __imp_??1?$CStringT@DV?$StrTraitMFC_DLL@DV?$ChTraitsCRT@D@ATL@@@@@ATL@@QAE@XZ
  00024	cc		 int	 3
  00025	cc		 int	 3
  00026	cc		 int	 3
  00027	cc		 int	 3
  00028	cc		 int	 3
__ehhandler$?GetColor@CElementTreeBuilder@@ABEKABV?$CStringT@DV?$StrTraitMFC_DLL@DV?$ChTraitsCRT@D@ATL@@@@@ATL@@@Z:
  00029	90		 npad	 1
  0002a	90		 npad	 1
  0002b	8b 54 24 08	 mov	 edx, DWORD PTR [esp+8]
  0002f	8d 42 0c	 lea	 eax, DWORD PTR [edx+12]
  00032	8b 4a e8	 mov	 ecx, DWORD PTR [edx-24]
  00035	33 c8		 xor	 ecx, eax
  00037	e8 00 00 00 00	 call	 @__security_check_cookie@4
  0003c	b8 00 00 00 00	 mov	 eax, OFFSET __ehfuncinfo$?GetColor@CElementTreeBuilder@@ABEKABV?$CStringT@DV?$StrTraitMFC_DLL@DV?$ChTraitsCRT@D@ATL@@@@@ATL@@@Z
  00041	e9 00 00 00 00	 jmp	 ___CxxFrameHandler3
text$x	ENDS
?GetColor@CElementTreeBuilder@@ABEKABV?$CStringT@DV?$StrTraitMFC_DLL@DV?$ChTraitsCRT@D@ATL@@@@@ATL@@@Z ENDP ; CElementTreeBuilder::GetColor
; Function compile flags: /Ogtp
; File D:\git\src\IBK\IBK_DRFN\ProjSrc\SrcChartEx\ChartAddIn\ChartAnalysisToolAddIn\AnalysisTool\ElementTreeBuilder.cpp
;	COMDAT ?GetPenEnvironment@CElementTreeBuilder@@ABE?AVCPenEnvironment@@ABV?$CStringT@DV?$StrTraitMFC_DLL@DV?$ChTraitsCRT@D@ATL@@@@@ATL@@@Z
_TEXT	SEGMENT
_color$ = -44						; size = 4
$T2 = -40						; size = 4
$T3 = -40						; size = 4
$T4 = -36						; size = 4
$T5 = -36						; size = 4
$T6 = -36						; size = 4
$T7 = -32						; size = 4
$T8 = -32						; size = 4
$T9 = -28						; size = 4
$T10 = -28						; size = 4
$T11 = -24						; size = 4
$T12 = -20						; size = 4
_strPenData$ = -16					; size = 4
__$EHRec$ = -12						; size = 12
___$ReturnUdt$ = 8					; size = 4
_strNewData$13 = 12					; size = 4
_strNewData$14 = 12					; size = 4
_strNewData$15 = 12					; size = 4
_strData$ = 12						; size = 4
?GetPenEnvironment@CElementTreeBuilder@@ABE?AVCPenEnvironment@@ABV?$CStringT@DV?$StrTraitMFC_DLL@DV?$ChTraitsCRT@D@ATL@@@@@ATL@@@Z PROC ; CElementTreeBuilder::GetPenEnvironment, COMDAT
; _this$ = ecx

; 758  : {

  00000	55		 push	 ebp
  00001	8b ec		 mov	 ebp, esp
  00003	6a ff		 push	 -1
  00005	68 00 00 00 00	 push	 __ehhandler$?GetPenEnvironment@CElementTreeBuilder@@ABE?AVCPenEnvironment@@ABV?$CStringT@DV?$StrTraitMFC_DLL@DV?$ChTraitsCRT@D@ATL@@@@@ATL@@@Z
  0000a	64 a1 00 00 00
	00		 mov	 eax, DWORD PTR fs:0
  00010	50		 push	 eax
  00011	83 ec 20	 sub	 esp, 32			; 00000020H
  00014	56		 push	 esi
  00015	57		 push	 edi
  00016	a1 00 00 00 00	 mov	 eax, DWORD PTR ___security_cookie
  0001b	33 c5		 xor	 eax, ebp
  0001d	50		 push	 eax
  0001e	8d 45 f4	 lea	 eax, DWORD PTR __$EHRec$[ebp]
  00021	64 a3 00 00 00
	00		 mov	 DWORD PTR fs:0, eax
  00027	8b f1		 mov	 esi, ecx

; 759  : 	CString strPenData = GetData(strData, "<Pen>\r\n", "<\\Pen>\r\n");

  00029	68 00 00 00 00	 push	 OFFSET ??_C@_08GMFHHECH@?$DM?2Pen?$DO?$AN?6@
  0002e	8d 4d e8	 lea	 ecx, DWORD PTR $T11[ebp]
  00031	ff 15 00 00 00
	00		 call	 DWORD PTR __imp_??0?$CStringT@DV?$StrTraitMFC_DLL@DV?$ChTraitsCRT@D@ATL@@@@@ATL@@QAE@PBD@Z
  00037	68 00 00 00 00	 push	 OFFSET ??_C@_07PHJCCMJN@?$DMPen?$DO?$AN?6@
  0003c	8d 4d ec	 lea	 ecx, DWORD PTR $T12[ebp]
  0003f	c7 45 fc 00 00
	00 00		 mov	 DWORD PTR __$EHRec$[ebp+8], 0
  00046	ff 15 00 00 00
	00		 call	 DWORD PTR __imp_??0?$CStringT@DV?$StrTraitMFC_DLL@DV?$ChTraitsCRT@D@ATL@@@@@ATL@@QAE@PBD@Z

; 384  : 	CString strNewData = strOrgData;

  0004c	ff 75 0c	 push	 DWORD PTR _strData$[ebp]
  0004f	8d 4d 0c	 lea	 ecx, DWORD PTR _strNewData$15[ebp]

; 759  : 	CString strPenData = GetData(strData, "<Pen>\r\n", "<\\Pen>\r\n");

  00052	c6 45 fc 01	 mov	 BYTE PTR __$EHRec$[ebp+8], 1

; 384  : 	CString strNewData = strOrgData;

  00056	ff 15 00 00 00
	00		 call	 DWORD PTR __imp_??0?$CStringT@DV?$StrTraitMFC_DLL@DV?$ChTraitsCRT@D@ATL@@@@@ATL@@QAE@ABV01@@Z

; 385  : 	CDataConversion::GetStringData(strNewData, strTrimStart);

  0005c	6a 01		 push	 1
  0005e	8d 45 ec	 lea	 eax, DWORD PTR $T12[ebp]
  00061	c6 45 fc 02	 mov	 BYTE PTR __$EHRec$[ebp+8], 2
  00065	50		 push	 eax
  00066	8d 45 0c	 lea	 eax, DWORD PTR _strNewData$15[ebp]
  00069	50		 push	 eax
  0006a	8d 45 dc	 lea	 eax, DWORD PTR $T5[ebp]
  0006d	50		 push	 eax
  0006e	e8 00 00 00 00	 call	 ?GetStringData@CDataConversion@@SA?AV?$CStringT@DV?$StrTraitMFC_DLL@DV?$ChTraitsCRT@D@ATL@@@@@ATL@@AAV23@ABV23@_N@Z ; CDataConversion::GetStringData
  00073	83 c4 10	 add	 esp, 16			; 00000010H
  00076	8d 4d dc	 lea	 ecx, DWORD PTR $T5[ebp]
  00079	ff 15 00 00 00
	00		 call	 DWORD PTR __imp_??1?$CStringT@DV?$StrTraitMFC_DLL@DV?$ChTraitsCRT@D@ATL@@@@@ATL@@QAE@XZ

; 386  : 	return CDataConversion::GetStringData(strNewData, strTrimEnd);

  0007f	6a 01		 push	 1
  00081	8d 45 e8	 lea	 eax, DWORD PTR $T11[ebp]
  00084	50		 push	 eax
  00085	8d 45 0c	 lea	 eax, DWORD PTR _strNewData$15[ebp]
  00088	50		 push	 eax
  00089	8d 45 f0	 lea	 eax, DWORD PTR _strPenData$[ebp]
  0008c	50		 push	 eax
  0008d	e8 00 00 00 00	 call	 ?GetStringData@CDataConversion@@SA?AV?$CStringT@DV?$StrTraitMFC_DLL@DV?$ChTraitsCRT@D@ATL@@@@@ATL@@AAV23@ABV23@_N@Z ; CDataConversion::GetStringData
  00092	83 c4 10	 add	 esp, 16			; 00000010H
  00095	8d 4d 0c	 lea	 ecx, DWORD PTR _strNewData$15[ebp]
  00098	ff 15 00 00 00
	00		 call	 DWORD PTR __imp_??1?$CStringT@DV?$StrTraitMFC_DLL@DV?$ChTraitsCRT@D@ATL@@@@@ATL@@QAE@XZ

; 759  : 	CString strPenData = GetData(strData, "<Pen>\r\n", "<\\Pen>\r\n");

  0009e	8d 4d ec	 lea	 ecx, DWORD PTR $T12[ebp]
  000a1	ff 15 00 00 00
	00		 call	 DWORD PTR __imp_??1?$CStringT@DV?$StrTraitMFC_DLL@DV?$ChTraitsCRT@D@ATL@@@@@ATL@@QAE@XZ
  000a7	8d 4d e8	 lea	 ecx, DWORD PTR $T11[ebp]
  000aa	c6 45 fc 05	 mov	 BYTE PTR __$EHRec$[ebp+8], 5
  000ae	ff 15 00 00 00
	00		 call	 DWORD PTR __imp_??1?$CStringT@DV?$StrTraitMFC_DLL@DV?$ChTraitsCRT@D@ATL@@@@@ATL@@QAE@XZ

; 760  : 	COLORREF color = GetColor(strPenData);

  000b4	8d 45 f0	 lea	 eax, DWORD PTR _strPenData$[ebp]
  000b7	8b ce		 mov	 ecx, esi
  000b9	50		 push	 eax
  000ba	e8 00 00 00 00	 call	 ?GetColor@CElementTreeBuilder@@ABEKABV?$CStringT@DV?$StrTraitMFC_DLL@DV?$ChTraitsCRT@D@ATL@@@@@ATL@@@Z ; CElementTreeBuilder::GetColor

; 773  : 	return atoi(GetData(strData, "<Width>", "<\\Width>\r\n"));

  000bf	68 00 00 00 00	 push	 OFFSET ??_C@_0L@GIHMIJMH@?$DM?2Width?$DO?$AN?6@
  000c4	8d 4d dc	 lea	 ecx, DWORD PTR $T6[ebp]

; 760  : 	COLORREF color = GetColor(strPenData);

  000c7	89 45 d4	 mov	 DWORD PTR _color$[ebp], eax

; 773  : 	return atoi(GetData(strData, "<Width>", "<\\Width>\r\n"));

  000ca	ff 15 00 00 00
	00		 call	 DWORD PTR __imp_??0?$CStringT@DV?$StrTraitMFC_DLL@DV?$ChTraitsCRT@D@ATL@@@@@ATL@@QAE@PBD@Z
  000d0	68 00 00 00 00	 push	 OFFSET ??_C@_07ONIIIKM@?$DMWidth?$DO@
  000d5	8d 4d e0	 lea	 ecx, DWORD PTR $T8[ebp]
  000d8	c6 45 fc 06	 mov	 BYTE PTR __$EHRec$[ebp+8], 6
  000dc	ff 15 00 00 00
	00		 call	 DWORD PTR __imp_??0?$CStringT@DV?$StrTraitMFC_DLL@DV?$ChTraitsCRT@D@ATL@@@@@ATL@@QAE@PBD@Z

; 384  : 	CString strNewData = strOrgData;

  000e2	8d 45 f0	 lea	 eax, DWORD PTR _strPenData$[ebp]

; 773  : 	return atoi(GetData(strData, "<Width>", "<\\Width>\r\n"));

  000e5	c6 45 fc 07	 mov	 BYTE PTR __$EHRec$[ebp+8], 7

; 384  : 	CString strNewData = strOrgData;

  000e9	50		 push	 eax
  000ea	8d 4d 0c	 lea	 ecx, DWORD PTR _strNewData$14[ebp]
  000ed	ff 15 00 00 00
	00		 call	 DWORD PTR __imp_??0?$CStringT@DV?$StrTraitMFC_DLL@DV?$ChTraitsCRT@D@ATL@@@@@ATL@@QAE@ABV01@@Z

; 385  : 	CDataConversion::GetStringData(strNewData, strTrimStart);

  000f3	6a 01		 push	 1
  000f5	8d 45 e0	 lea	 eax, DWORD PTR $T8[ebp]
  000f8	c6 45 fc 08	 mov	 BYTE PTR __$EHRec$[ebp+8], 8
  000fc	50		 push	 eax
  000fd	8d 45 0c	 lea	 eax, DWORD PTR _strNewData$14[ebp]
  00100	50		 push	 eax
  00101	8d 45 d8	 lea	 eax, DWORD PTR $T3[ebp]
  00104	50		 push	 eax
  00105	e8 00 00 00 00	 call	 ?GetStringData@CDataConversion@@SA?AV?$CStringT@DV?$StrTraitMFC_DLL@DV?$ChTraitsCRT@D@ATL@@@@@ATL@@AAV23@ABV23@_N@Z ; CDataConversion::GetStringData
  0010a	83 c4 10	 add	 esp, 16			; 00000010H
  0010d	8d 4d d8	 lea	 ecx, DWORD PTR $T3[ebp]
  00110	ff 15 00 00 00
	00		 call	 DWORD PTR __imp_??1?$CStringT@DV?$StrTraitMFC_DLL@DV?$ChTraitsCRT@D@ATL@@@@@ATL@@QAE@XZ

; 386  : 	return CDataConversion::GetStringData(strNewData, strTrimEnd);

  00116	8d 45 dc	 lea	 eax, DWORD PTR $T6[ebp]
  00119	6a 01		 push	 1
  0011b	50		 push	 eax
  0011c	8d 45 0c	 lea	 eax, DWORD PTR _strNewData$14[ebp]
  0011f	50		 push	 eax
  00120	8d 45 e4	 lea	 eax, DWORD PTR $T10[ebp]
  00123	50		 push	 eax
  00124	e8 00 00 00 00	 call	 ?GetStringData@CDataConversion@@SA?AV?$CStringT@DV?$StrTraitMFC_DLL@DV?$ChTraitsCRT@D@ATL@@@@@ATL@@AAV23@ABV23@_N@Z ; CDataConversion::GetStringData
  00129	83 c4 10	 add	 esp, 16			; 00000010H
  0012c	8d 4d 0c	 lea	 ecx, DWORD PTR _strNewData$14[ebp]
  0012f	ff 15 00 00 00
	00		 call	 DWORD PTR __imp_??1?$CStringT@DV?$StrTraitMFC_DLL@DV?$ChTraitsCRT@D@ATL@@@@@ATL@@QAE@XZ

; 773  : 	return atoi(GetData(strData, "<Width>", "<\\Width>\r\n"));

  00135	ff 75 e4	 push	 DWORD PTR $T10[ebp]
  00138	8b 35 00 00 00
	00		 mov	 esi, DWORD PTR __imp__atoi
  0013e	ff d6		 call	 esi
  00140	83 c4 04	 add	 esp, 4
  00143	8d 4d e4	 lea	 ecx, DWORD PTR $T10[ebp]
  00146	8b f8		 mov	 edi, eax
  00148	ff 15 00 00 00
	00		 call	 DWORD PTR __imp_??1?$CStringT@DV?$StrTraitMFC_DLL@DV?$ChTraitsCRT@D@ATL@@@@@ATL@@QAE@XZ
  0014e	8d 4d e0	 lea	 ecx, DWORD PTR $T8[ebp]
  00151	ff 15 00 00 00
	00		 call	 DWORD PTR __imp_??1?$CStringT@DV?$StrTraitMFC_DLL@DV?$ChTraitsCRT@D@ATL@@@@@ATL@@QAE@XZ
  00157	8d 4d dc	 lea	 ecx, DWORD PTR $T6[ebp]
  0015a	c6 45 fc 05	 mov	 BYTE PTR __$EHRec$[ebp+8], 5
  0015e	ff 15 00 00 00
	00		 call	 DWORD PTR __imp_??1?$CStringT@DV?$StrTraitMFC_DLL@DV?$ChTraitsCRT@D@ATL@@@@@ATL@@QAE@XZ

; 778  : 	return (CToolEnumData::PenStyle) atoi(GetData(strData, "<Style>", "<\\Style>\r\n"));

  00164	68 00 00 00 00	 push	 OFFSET ??_C@_0L@MDDCEFHI@?$DM?2Style?$DO?$AN?6@
  00169	8d 4d e4	 lea	 ecx, DWORD PTR $T9[ebp]
  0016c	ff 15 00 00 00
	00		 call	 DWORD PTR __imp_??0?$CStringT@DV?$StrTraitMFC_DLL@DV?$ChTraitsCRT@D@ATL@@@@@ATL@@QAE@PBD@Z
  00172	68 00 00 00 00	 push	 OFFSET ??_C@_07EANKACOK@?$DMStyle?$DO@
  00177	8d 4d e0	 lea	 ecx, DWORD PTR $T7[ebp]
  0017a	c6 45 fc 09	 mov	 BYTE PTR __$EHRec$[ebp+8], 9
  0017e	ff 15 00 00 00
	00		 call	 DWORD PTR __imp_??0?$CStringT@DV?$StrTraitMFC_DLL@DV?$ChTraitsCRT@D@ATL@@@@@ATL@@QAE@PBD@Z

; 384  : 	CString strNewData = strOrgData;

  00184	8d 45 f0	 lea	 eax, DWORD PTR _strPenData$[ebp]

; 778  : 	return (CToolEnumData::PenStyle) atoi(GetData(strData, "<Style>", "<\\Style>\r\n"));

  00187	c6 45 fc 0a	 mov	 BYTE PTR __$EHRec$[ebp+8], 10 ; 0000000aH

; 384  : 	CString strNewData = strOrgData;

  0018b	50		 push	 eax
  0018c	8d 4d 0c	 lea	 ecx, DWORD PTR _strNewData$13[ebp]
  0018f	ff 15 00 00 00
	00		 call	 DWORD PTR __imp_??0?$CStringT@DV?$StrTraitMFC_DLL@DV?$ChTraitsCRT@D@ATL@@@@@ATL@@QAE@ABV01@@Z

; 385  : 	CDataConversion::GetStringData(strNewData, strTrimStart);

  00195	6a 01		 push	 1
  00197	8d 45 e0	 lea	 eax, DWORD PTR $T7[ebp]
  0019a	c6 45 fc 0b	 mov	 BYTE PTR __$EHRec$[ebp+8], 11 ; 0000000bH
  0019e	50		 push	 eax
  0019f	8d 45 0c	 lea	 eax, DWORD PTR _strNewData$13[ebp]
  001a2	50		 push	 eax
  001a3	8d 45 d8	 lea	 eax, DWORD PTR $T2[ebp]
  001a6	50		 push	 eax
  001a7	e8 00 00 00 00	 call	 ?GetStringData@CDataConversion@@SA?AV?$CStringT@DV?$StrTraitMFC_DLL@DV?$ChTraitsCRT@D@ATL@@@@@ATL@@AAV23@ABV23@_N@Z ; CDataConversion::GetStringData
  001ac	83 c4 10	 add	 esp, 16			; 00000010H
  001af	8d 4d d8	 lea	 ecx, DWORD PTR $T2[ebp]
  001b2	ff 15 00 00 00
	00		 call	 DWORD PTR __imp_??1?$CStringT@DV?$StrTraitMFC_DLL@DV?$ChTraitsCRT@D@ATL@@@@@ATL@@QAE@XZ

; 386  : 	return CDataConversion::GetStringData(strNewData, strTrimEnd);

  001b8	6a 01		 push	 1
  001ba	8d 45 e4	 lea	 eax, DWORD PTR $T9[ebp]
  001bd	50		 push	 eax
  001be	8d 45 0c	 lea	 eax, DWORD PTR _strNewData$13[ebp]
  001c1	50		 push	 eax
  001c2	8d 45 dc	 lea	 eax, DWORD PTR $T4[ebp]
  001c5	50		 push	 eax
  001c6	e8 00 00 00 00	 call	 ?GetStringData@CDataConversion@@SA?AV?$CStringT@DV?$StrTraitMFC_DLL@DV?$ChTraitsCRT@D@ATL@@@@@ATL@@AAV23@ABV23@_N@Z ; CDataConversion::GetStringData
  001cb	83 c4 10	 add	 esp, 16			; 00000010H
  001ce	8d 4d 0c	 lea	 ecx, DWORD PTR _strNewData$13[ebp]
  001d1	ff 15 00 00 00
	00		 call	 DWORD PTR __imp_??1?$CStringT@DV?$StrTraitMFC_DLL@DV?$ChTraitsCRT@D@ATL@@@@@ATL@@QAE@XZ

; 778  : 	return (CToolEnumData::PenStyle) atoi(GetData(strData, "<Style>", "<\\Style>\r\n"));

  001d7	ff 75 dc	 push	 DWORD PTR $T4[ebp]
  001da	ff d6		 call	 esi
  001dc	83 c4 04	 add	 esp, 4
  001df	8d 4d dc	 lea	 ecx, DWORD PTR $T4[ebp]
  001e2	8b f0		 mov	 esi, eax
  001e4	ff 15 00 00 00
	00		 call	 DWORD PTR __imp_??1?$CStringT@DV?$StrTraitMFC_DLL@DV?$ChTraitsCRT@D@ATL@@@@@ATL@@QAE@XZ
  001ea	8d 4d e0	 lea	 ecx, DWORD PTR $T7[ebp]
  001ed	ff 15 00 00 00
	00		 call	 DWORD PTR __imp_??1?$CStringT@DV?$StrTraitMFC_DLL@DV?$ChTraitsCRT@D@ATL@@@@@ATL@@QAE@XZ
  001f3	8d 4d e4	 lea	 ecx, DWORD PTR $T9[ebp]
  001f6	c6 45 fc 05	 mov	 BYTE PTR __$EHRec$[ebp+8], 5
  001fa	ff 15 00 00 00
	00		 call	 DWORD PTR __imp_??1?$CStringT@DV?$StrTraitMFC_DLL@DV?$ChTraitsCRT@D@ATL@@@@@ATL@@QAE@XZ

; 761  : 	int nWidth = GetWidth(strPenData);
; 762  : 	CToolEnumData::PenStyle eStyle = GetStyle(strPenData);
; 763  : 	return CPenEnvironment(color, nWidth, eStyle);

  00200	8b 4d 08	 mov	 ecx, DWORD PTR ___$ReturnUdt$[ebp]
  00203	8d 45 d4	 lea	 eax, DWORD PTR _color$[ebp]
  00206	56		 push	 esi
  00207	57		 push	 edi
  00208	50		 push	 eax
  00209	e8 00 00 00 00	 call	 ??0CPenEnvironment@@QAE@ABKHW4PenStyle@CToolEnumData@@@Z ; CPenEnvironment::CPenEnvironment
  0020e	8d 4d f0	 lea	 ecx, DWORD PTR _strPenData$[ebp]
  00211	ff 15 00 00 00
	00		 call	 DWORD PTR __imp_??1?$CStringT@DV?$StrTraitMFC_DLL@DV?$ChTraitsCRT@D@ATL@@@@@ATL@@QAE@XZ
  00217	8b 45 08	 mov	 eax, DWORD PTR ___$ReturnUdt$[ebp]

; 764  : }

  0021a	8b 4d f4	 mov	 ecx, DWORD PTR __$EHRec$[ebp]
  0021d	64 89 0d 00 00
	00 00		 mov	 DWORD PTR fs:0, ecx
  00224	59		 pop	 ecx
  00225	5f		 pop	 edi
  00226	5e		 pop	 esi
  00227	8b e5		 mov	 esp, ebp
  00229	5d		 pop	 ebp
  0022a	c2 08 00	 ret	 8
_TEXT	ENDS
;	COMDAT text$x
text$x	SEGMENT
__unwindfunclet$?GetPenEnvironment@CElementTreeBuilder@@ABE?AVCPenEnvironment@@ABV?$CStringT@DV?$StrTraitMFC_DLL@DV?$ChTraitsCRT@D@ATL@@@@@ATL@@@Z$0:
  00000	8d 4d e8	 lea	 ecx, DWORD PTR $T11[ebp]
  00003	ff 25 00 00 00
	00		 jmp	 DWORD PTR __imp_??1?$CStringT@DV?$StrTraitMFC_DLL@DV?$ChTraitsCRT@D@ATL@@@@@ATL@@QAE@XZ
__unwindfunclet$?GetPenEnvironment@CElementTreeBuilder@@ABE?AVCPenEnvironment@@ABV?$CStringT@DV?$StrTraitMFC_DLL@DV?$ChTraitsCRT@D@ATL@@@@@ATL@@@Z$1:
  00009	8d 4d ec	 lea	 ecx, DWORD PTR $T12[ebp]
  0000c	ff 25 00 00 00
	00		 jmp	 DWORD PTR __imp_??1?$CStringT@DV?$StrTraitMFC_DLL@DV?$ChTraitsCRT@D@ATL@@@@@ATL@@QAE@XZ
__unwindfunclet$?GetPenEnvironment@CElementTreeBuilder@@ABE?AVCPenEnvironment@@ABV?$CStringT@DV?$StrTraitMFC_DLL@DV?$ChTraitsCRT@D@ATL@@@@@ATL@@@Z$3:
  00012	8d 4d 0c	 lea	 ecx, DWORD PTR _strNewData$15[ebp]
  00015	ff 25 00 00 00
	00		 jmp	 DWORD PTR __imp_??1?$CStringT@DV?$StrTraitMFC_DLL@DV?$ChTraitsCRT@D@ATL@@@@@ATL@@QAE@XZ
__unwindfunclet$?GetPenEnvironment@CElementTreeBuilder@@ABE?AVCPenEnvironment@@ABV?$CStringT@DV?$StrTraitMFC_DLL@DV?$ChTraitsCRT@D@ATL@@@@@ATL@@@Z$2:
  0001b	8d 4d f0	 lea	 ecx, DWORD PTR _strPenData$[ebp]
  0001e	ff 25 00 00 00
	00		 jmp	 DWORD PTR __imp_??1?$CStringT@DV?$StrTraitMFC_DLL@DV?$ChTraitsCRT@D@ATL@@@@@ATL@@QAE@XZ
__unwindfunclet$?GetPenEnvironment@CElementTreeBuilder@@ABE?AVCPenEnvironment@@ABV?$CStringT@DV?$StrTraitMFC_DLL@DV?$ChTraitsCRT@D@ATL@@@@@ATL@@@Z$6:
  00024	8d 4d dc	 lea	 ecx, DWORD PTR $T6[ebp]
  00027	ff 25 00 00 00
	00		 jmp	 DWORD PTR __imp_??1?$CStringT@DV?$StrTraitMFC_DLL@DV?$ChTraitsCRT@D@ATL@@@@@ATL@@QAE@XZ
__unwindfunclet$?GetPenEnvironment@CElementTreeBuilder@@ABE?AVCPenEnvironment@@ABV?$CStringT@DV?$StrTraitMFC_DLL@DV?$ChTraitsCRT@D@ATL@@@@@ATL@@@Z$7:
  0002d	8d 4d e0	 lea	 ecx, DWORD PTR $T8[ebp]
  00030	ff 25 00 00 00
	00		 jmp	 DWORD PTR __imp_??1?$CStringT@DV?$StrTraitMFC_DLL@DV?$ChTraitsCRT@D@ATL@@@@@ATL@@QAE@XZ
__unwindfunclet$?GetPenEnvironment@CElementTreeBuilder@@ABE?AVCPenEnvironment@@ABV?$CStringT@DV?$StrTraitMFC_DLL@DV?$ChTraitsCRT@D@ATL@@@@@ATL@@@Z$9:
  00036	8d 4d 0c	 lea	 ecx, DWORD PTR _strNewData$14[ebp]
  00039	ff 25 00 00 00
	00		 jmp	 DWORD PTR __imp_??1?$CStringT@DV?$StrTraitMFC_DLL@DV?$ChTraitsCRT@D@ATL@@@@@ATL@@QAE@XZ
__unwindfunclet$?GetPenEnvironment@CElementTreeBuilder@@ABE?AVCPenEnvironment@@ABV?$CStringT@DV?$StrTraitMFC_DLL@DV?$ChTraitsCRT@D@ATL@@@@@ATL@@@Z$12:
  0003f	8d 4d e4	 lea	 ecx, DWORD PTR $T9[ebp]
  00042	ff 25 00 00 00
	00		 jmp	 DWORD PTR __imp_??1?$CStringT@DV?$StrTraitMFC_DLL@DV?$ChTraitsCRT@D@ATL@@@@@ATL@@QAE@XZ
__unwindfunclet$?GetPenEnvironment@CElementTreeBuilder@@ABE?AVCPenEnvironment@@ABV?$CStringT@DV?$StrTraitMFC_DLL@DV?$ChTraitsCRT@D@ATL@@@@@ATL@@@Z$13:
  00048	8d 4d e0	 lea	 ecx, DWORD PTR $T7[ebp]
  0004b	ff 25 00 00 00
	00		 jmp	 DWORD PTR __imp_??1?$CStringT@DV?$StrTraitMFC_DLL@DV?$ChTraitsCRT@D@ATL@@@@@ATL@@QAE@XZ
__unwindfunclet$?GetPenEnvironment@CElementTreeBuilder@@ABE?AVCPenEnvironment@@ABV?$CStringT@DV?$StrTraitMFC_DLL@DV?$ChTraitsCRT@D@ATL@@@@@ATL@@@Z$15:
  00051	8d 4d 0c	 lea	 ecx, DWORD PTR _strNewData$13[ebp]
  00054	ff 25 00 00 00
	00		 jmp	 DWORD PTR __imp_??1?$CStringT@DV?$StrTraitMFC_DLL@DV?$ChTraitsCRT@D@ATL@@@@@ATL@@QAE@XZ
  0005a	cc		 int	 3
  0005b	cc		 int	 3
  0005c	cc		 int	 3
  0005d	cc		 int	 3
  0005e	cc		 int	 3
__ehhandler$?GetPenEnvironment@CElementTreeBuilder@@ABE?AVCPenEnvironment@@ABV?$CStringT@DV?$StrTraitMFC_DLL@DV?$ChTraitsCRT@D@ATL@@@@@ATL@@@Z:
  0005f	90		 npad	 1
  00060	90		 npad	 1
  00061	8b 54 24 08	 mov	 edx, DWORD PTR [esp+8]
  00065	8d 42 0c	 lea	 eax, DWORD PTR [edx+12]
  00068	8b 4a d4	 mov	 ecx, DWORD PTR [edx-44]
  0006b	33 c8		 xor	 ecx, eax
  0006d	e8 00 00 00 00	 call	 @__security_check_cookie@4
  00072	b8 00 00 00 00	 mov	 eax, OFFSET __ehfuncinfo$?GetPenEnvironment@CElementTreeBuilder@@ABE?AVCPenEnvironment@@ABV?$CStringT@DV?$StrTraitMFC_DLL@DV?$ChTraitsCRT@D@ATL@@@@@ATL@@@Z
  00077	e9 00 00 00 00	 jmp	 ___CxxFrameHandler3
text$x	ENDS
?GetPenEnvironment@CElementTreeBuilder@@ABE?AVCPenEnvironment@@ABV?$CStringT@DV?$StrTraitMFC_DLL@DV?$ChTraitsCRT@D@ATL@@@@@ATL@@@Z ENDP ; CElementTreeBuilder::GetPenEnvironment
; Function compile flags: /Ogtp
; File D:\git\src\IBK\IBK_DRFN\ProjSrc\SrcChartEx\ChartAddIn\ChartAnalysisToolAddIn\AnalysisTool\ElementTreeBuilder.cpp
;	COMDAT ?GetRightLineExt@CElementTreeBuilder@@ABEHABV?$CStringT@DV?$StrTraitMFC_DLL@DV?$ChTraitsCRT@D@ATL@@@@@ATL@@@Z
_TEXT	SEGMENT
$T2 = -28						; size = 4
$T3 = -24						; size = 4
$T4 = -20						; size = 4
$T5 = -16						; size = 4
__$EHRec$ = -12						; size = 12
_strNewData$6 = 8					; size = 4
_strData$ = 8						; size = 4
?GetRightLineExt@CElementTreeBuilder@@ABEHABV?$CStringT@DV?$StrTraitMFC_DLL@DV?$ChTraitsCRT@D@ATL@@@@@ATL@@@Z PROC ; CElementTreeBuilder::GetRightLineExt, COMDAT
; _this$ = ecx

; 752  : {

  00000	55		 push	 ebp
  00001	8b ec		 mov	 ebp, esp
  00003	6a ff		 push	 -1
  00005	68 00 00 00 00	 push	 __ehhandler$?GetRightLineExt@CElementTreeBuilder@@ABEHABV?$CStringT@DV?$StrTraitMFC_DLL@DV?$ChTraitsCRT@D@ATL@@@@@ATL@@@Z
  0000a	64 a1 00 00 00
	00		 mov	 eax, DWORD PTR fs:0
  00010	50		 push	 eax
  00011	83 ec 10	 sub	 esp, 16			; 00000010H
  00014	56		 push	 esi
  00015	a1 00 00 00 00	 mov	 eax, DWORD PTR ___security_cookie
  0001a	33 c5		 xor	 eax, ebp
  0001c	50		 push	 eax
  0001d	8d 45 f4	 lea	 eax, DWORD PTR __$EHRec$[ebp]
  00020	64 a3 00 00 00
	00		 mov	 DWORD PTR fs:0, eax

; 753  : 	return atoi(GetData(strData, "<RightExt>", "<\\RightExt>\r\n"));

  00026	68 00 00 00 00	 push	 OFFSET ??_C@_0O@CEMHHFOM@?$DM?2RightExt?$DO?$AN?6@
  0002b	8d 4d e8	 lea	 ecx, DWORD PTR $T3[ebp]
  0002e	ff 15 00 00 00
	00		 call	 DWORD PTR __imp_??0?$CStringT@DV?$StrTraitMFC_DLL@DV?$ChTraitsCRT@D@ATL@@@@@ATL@@QAE@PBD@Z
  00034	68 00 00 00 00	 push	 OFFSET ??_C@_0L@CFEIJGAO@?$DMRightExt?$DO@
  00039	8d 4d ec	 lea	 ecx, DWORD PTR $T4[ebp]
  0003c	c7 45 fc 00 00
	00 00		 mov	 DWORD PTR __$EHRec$[ebp+8], 0
  00043	ff 15 00 00 00
	00		 call	 DWORD PTR __imp_??0?$CStringT@DV?$StrTraitMFC_DLL@DV?$ChTraitsCRT@D@ATL@@@@@ATL@@QAE@PBD@Z

; 384  : 	CString strNewData = strOrgData;

  00049	ff 75 08	 push	 DWORD PTR _strData$[ebp]
  0004c	8d 4d 08	 lea	 ecx, DWORD PTR _strNewData$6[ebp]

; 753  : 	return atoi(GetData(strData, "<RightExt>", "<\\RightExt>\r\n"));

  0004f	c6 45 fc 01	 mov	 BYTE PTR __$EHRec$[ebp+8], 1

; 384  : 	CString strNewData = strOrgData;

  00053	ff 15 00 00 00
	00		 call	 DWORD PTR __imp_??0?$CStringT@DV?$StrTraitMFC_DLL@DV?$ChTraitsCRT@D@ATL@@@@@ATL@@QAE@ABV01@@Z

; 385  : 	CDataConversion::GetStringData(strNewData, strTrimStart);

  00059	6a 01		 push	 1
  0005b	8d 45 ec	 lea	 eax, DWORD PTR $T4[ebp]
  0005e	c6 45 fc 02	 mov	 BYTE PTR __$EHRec$[ebp+8], 2
  00062	50		 push	 eax
  00063	8d 45 08	 lea	 eax, DWORD PTR _strNewData$6[ebp]
  00066	50		 push	 eax
  00067	8d 45 e4	 lea	 eax, DWORD PTR $T2[ebp]
  0006a	50		 push	 eax
  0006b	e8 00 00 00 00	 call	 ?GetStringData@CDataConversion@@SA?AV?$CStringT@DV?$StrTraitMFC_DLL@DV?$ChTraitsCRT@D@ATL@@@@@ATL@@AAV23@ABV23@_N@Z ; CDataConversion::GetStringData
  00070	83 c4 10	 add	 esp, 16			; 00000010H
  00073	8d 4d e4	 lea	 ecx, DWORD PTR $T2[ebp]
  00076	ff 15 00 00 00
	00		 call	 DWORD PTR __imp_??1?$CStringT@DV?$StrTraitMFC_DLL@DV?$ChTraitsCRT@D@ATL@@@@@ATL@@QAE@XZ

; 386  : 	return CDataConversion::GetStringData(strNewData, strTrimEnd);

  0007c	6a 01		 push	 1
  0007e	8d 45 e8	 lea	 eax, DWORD PTR $T3[ebp]
  00081	50		 push	 eax
  00082	8d 45 08	 lea	 eax, DWORD PTR _strNewData$6[ebp]
  00085	50		 push	 eax
  00086	8d 45 f0	 lea	 eax, DWORD PTR $T5[ebp]
  00089	50		 push	 eax
  0008a	e8 00 00 00 00	 call	 ?GetStringData@CDataConversion@@SA?AV?$CStringT@DV?$StrTraitMFC_DLL@DV?$ChTraitsCRT@D@ATL@@@@@ATL@@AAV23@ABV23@_N@Z ; CDataConversion::GetStringData
  0008f	83 c4 10	 add	 esp, 16			; 00000010H
  00092	8d 4d 08	 lea	 ecx, DWORD PTR _strNewData$6[ebp]
  00095	ff 15 00 00 00
	00		 call	 DWORD PTR __imp_??1?$CStringT@DV?$StrTraitMFC_DLL@DV?$ChTraitsCRT@D@ATL@@@@@ATL@@QAE@XZ

; 753  : 	return atoi(GetData(strData, "<RightExt>", "<\\RightExt>\r\n"));

  0009b	ff 75 f0	 push	 DWORD PTR $T5[ebp]
  0009e	ff 15 00 00 00
	00		 call	 DWORD PTR __imp__atoi
  000a4	83 c4 04	 add	 esp, 4
  000a7	8d 4d f0	 lea	 ecx, DWORD PTR $T5[ebp]
  000aa	8b f0		 mov	 esi, eax
  000ac	ff 15 00 00 00
	00		 call	 DWORD PTR __imp_??1?$CStringT@DV?$StrTraitMFC_DLL@DV?$ChTraitsCRT@D@ATL@@@@@ATL@@QAE@XZ
  000b2	8d 4d ec	 lea	 ecx, DWORD PTR $T4[ebp]
  000b5	ff 15 00 00 00
	00		 call	 DWORD PTR __imp_??1?$CStringT@DV?$StrTraitMFC_DLL@DV?$ChTraitsCRT@D@ATL@@@@@ATL@@QAE@XZ
  000bb	8d 4d e8	 lea	 ecx, DWORD PTR $T3[ebp]
  000be	ff 15 00 00 00
	00		 call	 DWORD PTR __imp_??1?$CStringT@DV?$StrTraitMFC_DLL@DV?$ChTraitsCRT@D@ATL@@@@@ATL@@QAE@XZ
  000c4	8b c6		 mov	 eax, esi

; 754  : }

  000c6	8b 4d f4	 mov	 ecx, DWORD PTR __$EHRec$[ebp]
  000c9	64 89 0d 00 00
	00 00		 mov	 DWORD PTR fs:0, ecx
  000d0	59		 pop	 ecx
  000d1	5e		 pop	 esi
  000d2	8b e5		 mov	 esp, ebp
  000d4	5d		 pop	 ebp
  000d5	c2 04 00	 ret	 4
_TEXT	ENDS
;	COMDAT text$x
text$x	SEGMENT
__unwindfunclet$?GetRightLineExt@CElementTreeBuilder@@ABEHABV?$CStringT@DV?$StrTraitMFC_DLL@DV?$ChTraitsCRT@D@ATL@@@@@ATL@@@Z$0:
  00000	8d 4d e8	 lea	 ecx, DWORD PTR $T3[ebp]
  00003	ff 25 00 00 00
	00		 jmp	 DWORD PTR __imp_??1?$CStringT@DV?$StrTraitMFC_DLL@DV?$ChTraitsCRT@D@ATL@@@@@ATL@@QAE@XZ
__unwindfunclet$?GetRightLineExt@CElementTreeBuilder@@ABEHABV?$CStringT@DV?$StrTraitMFC_DLL@DV?$ChTraitsCRT@D@ATL@@@@@ATL@@@Z$1:
  00009	8d 4d ec	 lea	 ecx, DWORD PTR $T4[ebp]
  0000c	ff 25 00 00 00
	00		 jmp	 DWORD PTR __imp_??1?$CStringT@DV?$StrTraitMFC_DLL@DV?$ChTraitsCRT@D@ATL@@@@@ATL@@QAE@XZ
__unwindfunclet$?GetRightLineExt@CElementTreeBuilder@@ABEHABV?$CStringT@DV?$StrTraitMFC_DLL@DV?$ChTraitsCRT@D@ATL@@@@@ATL@@@Z$3:
  00012	8d 4d 08	 lea	 ecx, DWORD PTR _strNewData$6[ebp]
  00015	ff 25 00 00 00
	00		 jmp	 DWORD PTR __imp_??1?$CStringT@DV?$StrTraitMFC_DLL@DV?$ChTraitsCRT@D@ATL@@@@@ATL@@QAE@XZ
  0001b	cc		 int	 3
  0001c	cc		 int	 3
  0001d	cc		 int	 3
  0001e	cc		 int	 3
  0001f	cc		 int	 3
__ehhandler$?GetRightLineExt@CElementTreeBuilder@@ABEHABV?$CStringT@DV?$StrTraitMFC_DLL@DV?$ChTraitsCRT@D@ATL@@@@@ATL@@@Z:
  00020	90		 npad	 1
  00021	90		 npad	 1
  00022	8b 54 24 08	 mov	 edx, DWORD PTR [esp+8]
  00026	8d 42 0c	 lea	 eax, DWORD PTR [edx+12]
  00029	8b 4a e8	 mov	 ecx, DWORD PTR [edx-24]
  0002c	33 c8		 xor	 ecx, eax
  0002e	e8 00 00 00 00	 call	 @__security_check_cookie@4
  00033	b8 00 00 00 00	 mov	 eax, OFFSET __ehfuncinfo$?GetRightLineExt@CElementTreeBuilder@@ABEHABV?$CStringT@DV?$StrTraitMFC_DLL@DV?$ChTraitsCRT@D@ATL@@@@@ATL@@@Z
  00038	e9 00 00 00 00	 jmp	 ___CxxFrameHandler3
text$x	ENDS
?GetRightLineExt@CElementTreeBuilder@@ABEHABV?$CStringT@DV?$StrTraitMFC_DLL@DV?$ChTraitsCRT@D@ATL@@@@@ATL@@@Z ENDP ; CElementTreeBuilder::GetRightLineExt
; Function compile flags: /Ogtp
; File D:\git\src\IBK\IBK_DRFN\ProjSrc\SrcChartEx\ChartAddIn\ChartAnalysisToolAddIn\AnalysisTool\ElementTreeBuilder.cpp
;	COMDAT ?GetLeftLineExt@CElementTreeBuilder@@ABEHABV?$CStringT@DV?$StrTraitMFC_DLL@DV?$ChTraitsCRT@D@ATL@@@@@ATL@@@Z
_TEXT	SEGMENT
$T2 = -28						; size = 4
$T3 = -24						; size = 4
$T4 = -20						; size = 4
$T5 = -16						; size = 4
__$EHRec$ = -12						; size = 12
_strNewData$6 = 8					; size = 4
_strData$ = 8						; size = 4
?GetLeftLineExt@CElementTreeBuilder@@ABEHABV?$CStringT@DV?$StrTraitMFC_DLL@DV?$ChTraitsCRT@D@ATL@@@@@ATL@@@Z PROC ; CElementTreeBuilder::GetLeftLineExt, COMDAT
; _this$ = ecx

; 747  : {

  00000	55		 push	 ebp
  00001	8b ec		 mov	 ebp, esp
  00003	6a ff		 push	 -1
  00005	68 00 00 00 00	 push	 __ehhandler$?GetLeftLineExt@CElementTreeBuilder@@ABEHABV?$CStringT@DV?$StrTraitMFC_DLL@DV?$ChTraitsCRT@D@ATL@@@@@ATL@@@Z
  0000a	64 a1 00 00 00
	00		 mov	 eax, DWORD PTR fs:0
  00010	50		 push	 eax
  00011	83 ec 10	 sub	 esp, 16			; 00000010H
  00014	56		 push	 esi
  00015	a1 00 00 00 00	 mov	 eax, DWORD PTR ___security_cookie
  0001a	33 c5		 xor	 eax, ebp
  0001c	50		 push	 eax
  0001d	8d 45 f4	 lea	 eax, DWORD PTR __$EHRec$[ebp]
  00020	64 a3 00 00 00
	00		 mov	 DWORD PTR fs:0, eax

; 748  : 	return atoi(GetData(strData, "<LeftExt>", "<\\LeftExt>\r\n"));

  00026	68 00 00 00 00	 push	 OFFSET ??_C@_0N@KHBFLOEK@?$DM?2LeftExt?$DO?$AN?6@
  0002b	8d 4d e8	 lea	 ecx, DWORD PTR $T3[ebp]
  0002e	ff 15 00 00 00
	00		 call	 DWORD PTR __imp_??0?$CStringT@DV?$StrTraitMFC_DLL@DV?$ChTraitsCRT@D@ATL@@@@@ATL@@QAE@PBD@Z
  00034	68 00 00 00 00	 push	 OFFSET ??_C@_09JKGHBJEA@?$DMLeftExt?$DO@
  00039	8d 4d ec	 lea	 ecx, DWORD PTR $T4[ebp]
  0003c	c7 45 fc 00 00
	00 00		 mov	 DWORD PTR __$EHRec$[ebp+8], 0
  00043	ff 15 00 00 00
	00		 call	 DWORD PTR __imp_??0?$CStringT@DV?$StrTraitMFC_DLL@DV?$ChTraitsCRT@D@ATL@@@@@ATL@@QAE@PBD@Z

; 384  : 	CString strNewData = strOrgData;

  00049	ff 75 08	 push	 DWORD PTR _strData$[ebp]
  0004c	8d 4d 08	 lea	 ecx, DWORD PTR _strNewData$6[ebp]

; 748  : 	return atoi(GetData(strData, "<LeftExt>", "<\\LeftExt>\r\n"));

  0004f	c6 45 fc 01	 mov	 BYTE PTR __$EHRec$[ebp+8], 1

; 384  : 	CString strNewData = strOrgData;

  00053	ff 15 00 00 00
	00		 call	 DWORD PTR __imp_??0?$CStringT@DV?$StrTraitMFC_DLL@DV?$ChTraitsCRT@D@ATL@@@@@ATL@@QAE@ABV01@@Z

; 385  : 	CDataConversion::GetStringData(strNewData, strTrimStart);

  00059	6a 01		 push	 1
  0005b	8d 45 ec	 lea	 eax, DWORD PTR $T4[ebp]
  0005e	c6 45 fc 02	 mov	 BYTE PTR __$EHRec$[ebp+8], 2
  00062	50		 push	 eax
  00063	8d 45 08	 lea	 eax, DWORD PTR _strNewData$6[ebp]
  00066	50		 push	 eax
  00067	8d 45 e4	 lea	 eax, DWORD PTR $T2[ebp]
  0006a	50		 push	 eax
  0006b	e8 00 00 00 00	 call	 ?GetStringData@CDataConversion@@SA?AV?$CStringT@DV?$StrTraitMFC_DLL@DV?$ChTraitsCRT@D@ATL@@@@@ATL@@AAV23@ABV23@_N@Z ; CDataConversion::GetStringData
  00070	83 c4 10	 add	 esp, 16			; 00000010H
  00073	8d 4d e4	 lea	 ecx, DWORD PTR $T2[ebp]
  00076	ff 15 00 00 00
	00		 call	 DWORD PTR __imp_??1?$CStringT@DV?$StrTraitMFC_DLL@DV?$ChTraitsCRT@D@ATL@@@@@ATL@@QAE@XZ

; 386  : 	return CDataConversion::GetStringData(strNewData, strTrimEnd);

  0007c	6a 01		 push	 1
  0007e	8d 45 e8	 lea	 eax, DWORD PTR $T3[ebp]
  00081	50		 push	 eax
  00082	8d 45 08	 lea	 eax, DWORD PTR _strNewData$6[ebp]
  00085	50		 push	 eax
  00086	8d 45 f0	 lea	 eax, DWORD PTR $T5[ebp]
  00089	50		 push	 eax
  0008a	e8 00 00 00 00	 call	 ?GetStringData@CDataConversion@@SA?AV?$CStringT@DV?$StrTraitMFC_DLL@DV?$ChTraitsCRT@D@ATL@@@@@ATL@@AAV23@ABV23@_N@Z ; CDataConversion::GetStringData
  0008f	83 c4 10	 add	 esp, 16			; 00000010H
  00092	8d 4d 08	 lea	 ecx, DWORD PTR _strNewData$6[ebp]
  00095	ff 15 00 00 00
	00		 call	 DWORD PTR __imp_??1?$CStringT@DV?$StrTraitMFC_DLL@DV?$ChTraitsCRT@D@ATL@@@@@ATL@@QAE@XZ

; 748  : 	return atoi(GetData(strData, "<LeftExt>", "<\\LeftExt>\r\n"));

  0009b	ff 75 f0	 push	 DWORD PTR $T5[ebp]
  0009e	ff 15 00 00 00
	00		 call	 DWORD PTR __imp__atoi
  000a4	83 c4 04	 add	 esp, 4
  000a7	8d 4d f0	 lea	 ecx, DWORD PTR $T5[ebp]
  000aa	8b f0		 mov	 esi, eax
  000ac	ff 15 00 00 00
	00		 call	 DWORD PTR __imp_??1?$CStringT@DV?$StrTraitMFC_DLL@DV?$ChTraitsCRT@D@ATL@@@@@ATL@@QAE@XZ
  000b2	8d 4d ec	 lea	 ecx, DWORD PTR $T4[ebp]
  000b5	ff 15 00 00 00
	00		 call	 DWORD PTR __imp_??1?$CStringT@DV?$StrTraitMFC_DLL@DV?$ChTraitsCRT@D@ATL@@@@@ATL@@QAE@XZ
  000bb	8d 4d e8	 lea	 ecx, DWORD PTR $T3[ebp]
  000be	ff 15 00 00 00
	00		 call	 DWORD PTR __imp_??1?$CStringT@DV?$StrTraitMFC_DLL@DV?$ChTraitsCRT@D@ATL@@@@@ATL@@QAE@XZ
  000c4	8b c6		 mov	 eax, esi

; 749  : }

  000c6	8b 4d f4	 mov	 ecx, DWORD PTR __$EHRec$[ebp]
  000c9	64 89 0d 00 00
	00 00		 mov	 DWORD PTR fs:0, ecx
  000d0	59		 pop	 ecx
  000d1	5e		 pop	 esi
  000d2	8b e5		 mov	 esp, ebp
  000d4	5d		 pop	 ebp
  000d5	c2 04 00	 ret	 4
_TEXT	ENDS
;	COMDAT text$x
text$x	SEGMENT
__unwindfunclet$?GetLeftLineExt@CElementTreeBuilder@@ABEHABV?$CStringT@DV?$StrTraitMFC_DLL@DV?$ChTraitsCRT@D@ATL@@@@@ATL@@@Z$0:
  00000	8d 4d e8	 lea	 ecx, DWORD PTR $T3[ebp]
  00003	ff 25 00 00 00
	00		 jmp	 DWORD PTR __imp_??1?$CStringT@DV?$StrTraitMFC_DLL@DV?$ChTraitsCRT@D@ATL@@@@@ATL@@QAE@XZ
__unwindfunclet$?GetLeftLineExt@CElementTreeBuilder@@ABEHABV?$CStringT@DV?$StrTraitMFC_DLL@DV?$ChTraitsCRT@D@ATL@@@@@ATL@@@Z$1:
  00009	8d 4d ec	 lea	 ecx, DWORD PTR $T4[ebp]
  0000c	ff 25 00 00 00
	00		 jmp	 DWORD PTR __imp_??1?$CStringT@DV?$StrTraitMFC_DLL@DV?$ChTraitsCRT@D@ATL@@@@@ATL@@QAE@XZ
__unwindfunclet$?GetLeftLineExt@CElementTreeBuilder@@ABEHABV?$CStringT@DV?$StrTraitMFC_DLL@DV?$ChTraitsCRT@D@ATL@@@@@ATL@@@Z$3:
  00012	8d 4d 08	 lea	 ecx, DWORD PTR _strNewData$6[ebp]
  00015	ff 25 00 00 00
	00		 jmp	 DWORD PTR __imp_??1?$CStringT@DV?$StrTraitMFC_DLL@DV?$ChTraitsCRT@D@ATL@@@@@ATL@@QAE@XZ
  0001b	cc		 int	 3
  0001c	cc		 int	 3
  0001d	cc		 int	 3
  0001e	cc		 int	 3
  0001f	cc		 int	 3
__ehhandler$?GetLeftLineExt@CElementTreeBuilder@@ABEHABV?$CStringT@DV?$StrTraitMFC_DLL@DV?$ChTraitsCRT@D@ATL@@@@@ATL@@@Z:
  00020	90		 npad	 1
  00021	90		 npad	 1
  00022	8b 54 24 08	 mov	 edx, DWORD PTR [esp+8]
  00026	8d 42 0c	 lea	 eax, DWORD PTR [edx+12]
  00029	8b 4a e8	 mov	 ecx, DWORD PTR [edx-24]
  0002c	33 c8		 xor	 ecx, eax
  0002e	e8 00 00 00 00	 call	 @__security_check_cookie@4
  00033	b8 00 00 00 00	 mov	 eax, OFFSET __ehfuncinfo$?GetLeftLineExt@CElementTreeBuilder@@ABEHABV?$CStringT@DV?$StrTraitMFC_DLL@DV?$ChTraitsCRT@D@ATL@@@@@ATL@@@Z
  00038	e9 00 00 00 00	 jmp	 ___CxxFrameHandler3
text$x	ENDS
?GetLeftLineExt@CElementTreeBuilder@@ABEHABV?$CStringT@DV?$StrTraitMFC_DLL@DV?$ChTraitsCRT@D@ATL@@@@@ATL@@@Z ENDP ; CElementTreeBuilder::GetLeftLineExt
; Function compile flags: /Ogtp
; File D:\git\src\IBK\IBK_DRFN\ProjSrc\SrcChartEx\ChartAddIn\ChartAnalysisToolAddIn\AnalysisTool\ElementTreeBuilder.cpp
;	COMDAT ?GetLineExtEnvironment@CElementTreeBuilder@@ABE?AVCLineExtEnvironment@@ABV?$CStringT@DV?$StrTraitMFC_DLL@DV?$ChTraitsCRT@D@ATL@@@@@ATL@@@Z
_TEXT	SEGMENT
_nLeftExt$ = -48					; size = 4
_nRightExt$ = -44					; size = 4
$T2 = -40						; size = 4
$T3 = -40						; size = 4
$T4 = -36						; size = 4
$T5 = -36						; size = 4
$T6 = -36						; size = 4
$T7 = -32						; size = 4
$T8 = -32						; size = 4
$T9 = -28						; size = 4
$T10 = -28						; size = 4
$T11 = -24						; size = 4
$T12 = -20						; size = 4
_strLineExtData$ = -16					; size = 4
__$EHRec$ = -12						; size = 12
___$ReturnUdt$ = 8					; size = 4
_strNewData$13 = 12					; size = 4
_strNewData$14 = 12					; size = 4
_strNewData$15 = 12					; size = 4
_strData$ = 12						; size = 4
?GetLineExtEnvironment@CElementTreeBuilder@@ABE?AVCLineExtEnvironment@@ABV?$CStringT@DV?$StrTraitMFC_DLL@DV?$ChTraitsCRT@D@ATL@@@@@ATL@@@Z PROC ; CElementTreeBuilder::GetLineExtEnvironment, COMDAT
; _this$ = ecx

; 739  : {

  00000	55		 push	 ebp
  00001	8b ec		 mov	 ebp, esp
  00003	6a ff		 push	 -1
  00005	68 00 00 00 00	 push	 __ehhandler$?GetLineExtEnvironment@CElementTreeBuilder@@ABE?AVCLineExtEnvironment@@ABV?$CStringT@DV?$StrTraitMFC_DLL@DV?$ChTraitsCRT@D@ATL@@@@@ATL@@@Z
  0000a	64 a1 00 00 00
	00		 mov	 eax, DWORD PTR fs:0
  00010	50		 push	 eax
  00011	83 ec 24	 sub	 esp, 36			; 00000024H
  00014	56		 push	 esi
  00015	a1 00 00 00 00	 mov	 eax, DWORD PTR ___security_cookie
  0001a	33 c5		 xor	 eax, ebp
  0001c	50		 push	 eax
  0001d	8d 45 f4	 lea	 eax, DWORD PTR __$EHRec$[ebp]
  00020	64 a3 00 00 00
	00		 mov	 DWORD PTR fs:0, eax

; 740  : 	CString strLineExtData = GetData(strData, "<LineExt>\r\n", "<\\LineExt>\r\n");

  00026	68 00 00 00 00	 push	 OFFSET ??_C@_0N@LGOAMNGJ@?$DM?2LineExt?$DO?$AN?6@
  0002b	8d 4d e8	 lea	 ecx, DWORD PTR $T11[ebp]
  0002e	ff 15 00 00 00
	00		 call	 DWORD PTR __imp_??0?$CStringT@DV?$StrTraitMFC_DLL@DV?$ChTraitsCRT@D@ATL@@@@@ATL@@QAE@PBD@Z
  00034	68 00 00 00 00	 push	 OFFSET ??_C@_0M@HHNAHFFI@?$DMLineExt?$DO?$AN?6@
  00039	8d 4d ec	 lea	 ecx, DWORD PTR $T12[ebp]
  0003c	c7 45 fc 00 00
	00 00		 mov	 DWORD PTR __$EHRec$[ebp+8], 0
  00043	ff 15 00 00 00
	00		 call	 DWORD PTR __imp_??0?$CStringT@DV?$StrTraitMFC_DLL@DV?$ChTraitsCRT@D@ATL@@@@@ATL@@QAE@PBD@Z

; 384  : 	CString strNewData = strOrgData;

  00049	ff 75 0c	 push	 DWORD PTR _strData$[ebp]
  0004c	8d 4d 0c	 lea	 ecx, DWORD PTR _strNewData$15[ebp]

; 740  : 	CString strLineExtData = GetData(strData, "<LineExt>\r\n", "<\\LineExt>\r\n");

  0004f	c6 45 fc 01	 mov	 BYTE PTR __$EHRec$[ebp+8], 1

; 384  : 	CString strNewData = strOrgData;

  00053	ff 15 00 00 00
	00		 call	 DWORD PTR __imp_??0?$CStringT@DV?$StrTraitMFC_DLL@DV?$ChTraitsCRT@D@ATL@@@@@ATL@@QAE@ABV01@@Z

; 385  : 	CDataConversion::GetStringData(strNewData, strTrimStart);

  00059	6a 01		 push	 1
  0005b	8d 45 ec	 lea	 eax, DWORD PTR $T12[ebp]
  0005e	c6 45 fc 02	 mov	 BYTE PTR __$EHRec$[ebp+8], 2
  00062	50		 push	 eax
  00063	8d 45 0c	 lea	 eax, DWORD PTR _strNewData$15[ebp]
  00066	50		 push	 eax
  00067	8d 45 dc	 lea	 eax, DWORD PTR $T5[ebp]
  0006a	50		 push	 eax
  0006b	e8 00 00 00 00	 call	 ?GetStringData@CDataConversion@@SA?AV?$CStringT@DV?$StrTraitMFC_DLL@DV?$ChTraitsCRT@D@ATL@@@@@ATL@@AAV23@ABV23@_N@Z ; CDataConversion::GetStringData
  00070	83 c4 10	 add	 esp, 16			; 00000010H
  00073	8d 4d dc	 lea	 ecx, DWORD PTR $T5[ebp]
  00076	ff 15 00 00 00
	00		 call	 DWORD PTR __imp_??1?$CStringT@DV?$StrTraitMFC_DLL@DV?$ChTraitsCRT@D@ATL@@@@@ATL@@QAE@XZ

; 386  : 	return CDataConversion::GetStringData(strNewData, strTrimEnd);

  0007c	6a 01		 push	 1
  0007e	8d 45 e8	 lea	 eax, DWORD PTR $T11[ebp]
  00081	50		 push	 eax
  00082	8d 45 0c	 lea	 eax, DWORD PTR _strNewData$15[ebp]
  00085	50		 push	 eax
  00086	8d 45 f0	 lea	 eax, DWORD PTR _strLineExtData$[ebp]
  00089	50		 push	 eax
  0008a	e8 00 00 00 00	 call	 ?GetStringData@CDataConversion@@SA?AV?$CStringT@DV?$StrTraitMFC_DLL@DV?$ChTraitsCRT@D@ATL@@@@@ATL@@AAV23@ABV23@_N@Z ; CDataConversion::GetStringData
  0008f	83 c4 10	 add	 esp, 16			; 00000010H
  00092	8d 4d 0c	 lea	 ecx, DWORD PTR _strNewData$15[ebp]
  00095	ff 15 00 00 00
	00		 call	 DWORD PTR __imp_??1?$CStringT@DV?$StrTraitMFC_DLL@DV?$ChTraitsCRT@D@ATL@@@@@ATL@@QAE@XZ

; 740  : 	CString strLineExtData = GetData(strData, "<LineExt>\r\n", "<\\LineExt>\r\n");

  0009b	8d 4d ec	 lea	 ecx, DWORD PTR $T12[ebp]
  0009e	ff 15 00 00 00
	00		 call	 DWORD PTR __imp_??1?$CStringT@DV?$StrTraitMFC_DLL@DV?$ChTraitsCRT@D@ATL@@@@@ATL@@QAE@XZ
  000a4	8d 4d e8	 lea	 ecx, DWORD PTR $T11[ebp]
  000a7	c6 45 fc 05	 mov	 BYTE PTR __$EHRec$[ebp+8], 5
  000ab	ff 15 00 00 00
	00		 call	 DWORD PTR __imp_??1?$CStringT@DV?$StrTraitMFC_DLL@DV?$ChTraitsCRT@D@ATL@@@@@ATL@@QAE@XZ

; 748  : 	return atoi(GetData(strData, "<LeftExt>", "<\\LeftExt>\r\n"));

  000b1	68 00 00 00 00	 push	 OFFSET ??_C@_0N@KHBFLOEK@?$DM?2LeftExt?$DO?$AN?6@
  000b6	8d 4d dc	 lea	 ecx, DWORD PTR $T6[ebp]
  000b9	ff 15 00 00 00
	00		 call	 DWORD PTR __imp_??0?$CStringT@DV?$StrTraitMFC_DLL@DV?$ChTraitsCRT@D@ATL@@@@@ATL@@QAE@PBD@Z
  000bf	68 00 00 00 00	 push	 OFFSET ??_C@_09JKGHBJEA@?$DMLeftExt?$DO@
  000c4	8d 4d e0	 lea	 ecx, DWORD PTR $T8[ebp]
  000c7	c6 45 fc 06	 mov	 BYTE PTR __$EHRec$[ebp+8], 6
  000cb	ff 15 00 00 00
	00		 call	 DWORD PTR __imp_??0?$CStringT@DV?$StrTraitMFC_DLL@DV?$ChTraitsCRT@D@ATL@@@@@ATL@@QAE@PBD@Z

; 384  : 	CString strNewData = strOrgData;

  000d1	8d 45 f0	 lea	 eax, DWORD PTR _strLineExtData$[ebp]

; 748  : 	return atoi(GetData(strData, "<LeftExt>", "<\\LeftExt>\r\n"));

  000d4	c6 45 fc 07	 mov	 BYTE PTR __$EHRec$[ebp+8], 7

; 384  : 	CString strNewData = strOrgData;

  000d8	50		 push	 eax
  000d9	8d 4d 0c	 lea	 ecx, DWORD PTR _strNewData$14[ebp]
  000dc	ff 15 00 00 00
	00		 call	 DWORD PTR __imp_??0?$CStringT@DV?$StrTraitMFC_DLL@DV?$ChTraitsCRT@D@ATL@@@@@ATL@@QAE@ABV01@@Z

; 385  : 	CDataConversion::GetStringData(strNewData, strTrimStart);

  000e2	6a 01		 push	 1
  000e4	8d 45 e0	 lea	 eax, DWORD PTR $T8[ebp]
  000e7	c6 45 fc 08	 mov	 BYTE PTR __$EHRec$[ebp+8], 8
  000eb	50		 push	 eax
  000ec	8d 45 0c	 lea	 eax, DWORD PTR _strNewData$14[ebp]
  000ef	50		 push	 eax
  000f0	8d 45 d8	 lea	 eax, DWORD PTR $T3[ebp]
  000f3	50		 push	 eax
  000f4	e8 00 00 00 00	 call	 ?GetStringData@CDataConversion@@SA?AV?$CStringT@DV?$StrTraitMFC_DLL@DV?$ChTraitsCRT@D@ATL@@@@@ATL@@AAV23@ABV23@_N@Z ; CDataConversion::GetStringData
  000f9	83 c4 10	 add	 esp, 16			; 00000010H
  000fc	8d 4d d8	 lea	 ecx, DWORD PTR $T3[ebp]
  000ff	ff 15 00 00 00
	00		 call	 DWORD PTR __imp_??1?$CStringT@DV?$StrTraitMFC_DLL@DV?$ChTraitsCRT@D@ATL@@@@@ATL@@QAE@XZ

; 386  : 	return CDataConversion::GetStringData(strNewData, strTrimEnd);

  00105	6a 01		 push	 1
  00107	8d 45 dc	 lea	 eax, DWORD PTR $T6[ebp]
  0010a	50		 push	 eax
  0010b	8d 45 0c	 lea	 eax, DWORD PTR _strNewData$14[ebp]
  0010e	50		 push	 eax
  0010f	8d 45 e4	 lea	 eax, DWORD PTR $T10[ebp]
  00112	50		 push	 eax
  00113	e8 00 00 00 00	 call	 ?GetStringData@CDataConversion@@SA?AV?$CStringT@DV?$StrTraitMFC_DLL@DV?$ChTraitsCRT@D@ATL@@@@@ATL@@AAV23@ABV23@_N@Z ; CDataConversion::GetStringData
  00118	83 c4 10	 add	 esp, 16			; 00000010H
  0011b	8d 4d 0c	 lea	 ecx, DWORD PTR _strNewData$14[ebp]
  0011e	ff 15 00 00 00
	00		 call	 DWORD PTR __imp_??1?$CStringT@DV?$StrTraitMFC_DLL@DV?$ChTraitsCRT@D@ATL@@@@@ATL@@QAE@XZ

; 748  : 	return atoi(GetData(strData, "<LeftExt>", "<\\LeftExt>\r\n"));

  00124	ff 75 e4	 push	 DWORD PTR $T10[ebp]
  00127	ff 15 00 00 00
	00		 call	 DWORD PTR __imp__atoi
  0012d	83 c4 04	 add	 esp, 4
  00130	8d 4d e4	 lea	 ecx, DWORD PTR $T10[ebp]
  00133	8b f0		 mov	 esi, eax
  00135	ff 15 00 00 00
	00		 call	 DWORD PTR __imp_??1?$CStringT@DV?$StrTraitMFC_DLL@DV?$ChTraitsCRT@D@ATL@@@@@ATL@@QAE@XZ
  0013b	8d 4d e0	 lea	 ecx, DWORD PTR $T8[ebp]
  0013e	ff 15 00 00 00
	00		 call	 DWORD PTR __imp_??1?$CStringT@DV?$StrTraitMFC_DLL@DV?$ChTraitsCRT@D@ATL@@@@@ATL@@QAE@XZ
  00144	8d 4d dc	 lea	 ecx, DWORD PTR $T6[ebp]
  00147	c6 45 fc 05	 mov	 BYTE PTR __$EHRec$[ebp+8], 5
  0014b	ff 15 00 00 00
	00		 call	 DWORD PTR __imp_??1?$CStringT@DV?$StrTraitMFC_DLL@DV?$ChTraitsCRT@D@ATL@@@@@ATL@@QAE@XZ

; 753  : 	return atoi(GetData(strData, "<RightExt>", "<\\RightExt>\r\n"));

  00151	68 00 00 00 00	 push	 OFFSET ??_C@_0O@CEMHHFOM@?$DM?2RightExt?$DO?$AN?6@
  00156	8d 4d e4	 lea	 ecx, DWORD PTR $T9[ebp]

; 741  : 	int nLeftExt = GetLeftLineExt(strLineExtData);

  00159	89 75 d0	 mov	 DWORD PTR _nLeftExt$[ebp], esi

; 753  : 	return atoi(GetData(strData, "<RightExt>", "<\\RightExt>\r\n"));

  0015c	ff 15 00 00 00
	00		 call	 DWORD PTR __imp_??0?$CStringT@DV?$StrTraitMFC_DLL@DV?$ChTraitsCRT@D@ATL@@@@@ATL@@QAE@PBD@Z
  00162	68 00 00 00 00	 push	 OFFSET ??_C@_0L@CFEIJGAO@?$DMRightExt?$DO@
  00167	8d 4d e0	 lea	 ecx, DWORD PTR $T7[ebp]
  0016a	c6 45 fc 09	 mov	 BYTE PTR __$EHRec$[ebp+8], 9
  0016e	ff 15 00 00 00
	00		 call	 DWORD PTR __imp_??0?$CStringT@DV?$StrTraitMFC_DLL@DV?$ChTraitsCRT@D@ATL@@@@@ATL@@QAE@PBD@Z

; 384  : 	CString strNewData = strOrgData;

  00174	8d 45 f0	 lea	 eax, DWORD PTR _strLineExtData$[ebp]

; 753  : 	return atoi(GetData(strData, "<RightExt>", "<\\RightExt>\r\n"));

  00177	c6 45 fc 0a	 mov	 BYTE PTR __$EHRec$[ebp+8], 10 ; 0000000aH

; 384  : 	CString strNewData = strOrgData;

  0017b	50		 push	 eax
  0017c	8d 4d 0c	 lea	 ecx, DWORD PTR _strNewData$13[ebp]
  0017f	ff 15 00 00 00
	00		 call	 DWORD PTR __imp_??0?$CStringT@DV?$StrTraitMFC_DLL@DV?$ChTraitsCRT@D@ATL@@@@@ATL@@QAE@ABV01@@Z

; 385  : 	CDataConversion::GetStringData(strNewData, strTrimStart);

  00185	6a 01		 push	 1
  00187	8d 45 e0	 lea	 eax, DWORD PTR $T7[ebp]
  0018a	c6 45 fc 0b	 mov	 BYTE PTR __$EHRec$[ebp+8], 11 ; 0000000bH
  0018e	50		 push	 eax
  0018f	8d 45 0c	 lea	 eax, DWORD PTR _strNewData$13[ebp]
  00192	50		 push	 eax
  00193	8d 45 d8	 lea	 eax, DWORD PTR $T2[ebp]
  00196	50		 push	 eax
  00197	e8 00 00 00 00	 call	 ?GetStringData@CDataConversion@@SA?AV?$CStringT@DV?$StrTraitMFC_DLL@DV?$ChTraitsCRT@D@ATL@@@@@ATL@@AAV23@ABV23@_N@Z ; CDataConversion::GetStringData
  0019c	83 c4 10	 add	 esp, 16			; 00000010H
  0019f	8d 4d d8	 lea	 ecx, DWORD PTR $T2[ebp]
  001a2	ff 15 00 00 00
	00		 call	 DWORD PTR __imp_??1?$CStringT@DV?$StrTraitMFC_DLL@DV?$ChTraitsCRT@D@ATL@@@@@ATL@@QAE@XZ

; 386  : 	return CDataConversion::GetStringData(strNewData, strTrimEnd);

  001a8	6a 01		 push	 1
  001aa	8d 45 e4	 lea	 eax, DWORD PTR $T9[ebp]
  001ad	50		 push	 eax
  001ae	8d 45 0c	 lea	 eax, DWORD PTR _strNewData$13[ebp]
  001b1	50		 push	 eax
  001b2	8d 45 dc	 lea	 eax, DWORD PTR $T4[ebp]
  001b5	50		 push	 eax
  001b6	e8 00 00 00 00	 call	 ?GetStringData@CDataConversion@@SA?AV?$CStringT@DV?$StrTraitMFC_DLL@DV?$ChTraitsCRT@D@ATL@@@@@ATL@@AAV23@ABV23@_N@Z ; CDataConversion::GetStringData
  001bb	83 c4 10	 add	 esp, 16			; 00000010H
  001be	8d 4d 0c	 lea	 ecx, DWORD PTR _strNewData$13[ebp]
  001c1	ff 15 00 00 00
	00		 call	 DWORD PTR __imp_??1?$CStringT@DV?$StrTraitMFC_DLL@DV?$ChTraitsCRT@D@ATL@@@@@ATL@@QAE@XZ

; 753  : 	return atoi(GetData(strData, "<RightExt>", "<\\RightExt>\r\n"));

  001c7	ff 75 dc	 push	 DWORD PTR $T4[ebp]
  001ca	ff 15 00 00 00
	00		 call	 DWORD PTR __imp__atoi
  001d0	83 c4 04	 add	 esp, 4
  001d3	8d 4d dc	 lea	 ecx, DWORD PTR $T4[ebp]
  001d6	8b f0		 mov	 esi, eax
  001d8	ff 15 00 00 00
	00		 call	 DWORD PTR __imp_??1?$CStringT@DV?$StrTraitMFC_DLL@DV?$ChTraitsCRT@D@ATL@@@@@ATL@@QAE@XZ
  001de	8d 4d e0	 lea	 ecx, DWORD PTR $T7[ebp]
  001e1	ff 15 00 00 00
	00		 call	 DWORD PTR __imp_??1?$CStringT@DV?$StrTraitMFC_DLL@DV?$ChTraitsCRT@D@ATL@@@@@ATL@@QAE@XZ
  001e7	8d 4d e4	 lea	 ecx, DWORD PTR $T9[ebp]
  001ea	c6 45 fc 05	 mov	 BYTE PTR __$EHRec$[ebp+8], 5
  001ee	ff 15 00 00 00
	00		 call	 DWORD PTR __imp_??1?$CStringT@DV?$StrTraitMFC_DLL@DV?$ChTraitsCRT@D@ATL@@@@@ATL@@QAE@XZ

; 742  : 	int nRightExt = GetRightLineExt(strLineExtData);
; 743  : 	return CLineExtEnvironment(nLeftExt,nRightExt);

  001f4	8b 4d 08	 mov	 ecx, DWORD PTR ___$ReturnUdt$[ebp]
  001f7	8d 45 d4	 lea	 eax, DWORD PTR _nRightExt$[ebp]
  001fa	50		 push	 eax
  001fb	8d 45 d0	 lea	 eax, DWORD PTR _nLeftExt$[ebp]
  001fe	89 75 d4	 mov	 DWORD PTR _nRightExt$[ebp], esi
  00201	50		 push	 eax
  00202	e8 00 00 00 00	 call	 ??0CLineExtEnvironment@@QAE@ABH0@Z ; CLineExtEnvironment::CLineExtEnvironment
  00207	8d 4d f0	 lea	 ecx, DWORD PTR _strLineExtData$[ebp]
  0020a	ff 15 00 00 00
	00		 call	 DWORD PTR __imp_??1?$CStringT@DV?$StrTraitMFC_DLL@DV?$ChTraitsCRT@D@ATL@@@@@ATL@@QAE@XZ
  00210	8b 45 08	 mov	 eax, DWORD PTR ___$ReturnUdt$[ebp]

; 744  : }

  00213	8b 4d f4	 mov	 ecx, DWORD PTR __$EHRec$[ebp]
  00216	64 89 0d 00 00
	00 00		 mov	 DWORD PTR fs:0, ecx
  0021d	59		 pop	 ecx
  0021e	5e		 pop	 esi
  0021f	8b e5		 mov	 esp, ebp
  00221	5d		 pop	 ebp
  00222	c2 08 00	 ret	 8
_TEXT	ENDS
;	COMDAT text$x
text$x	SEGMENT
__unwindfunclet$?GetLineExtEnvironment@CElementTreeBuilder@@ABE?AVCLineExtEnvironment@@ABV?$CStringT@DV?$StrTraitMFC_DLL@DV?$ChTraitsCRT@D@ATL@@@@@ATL@@@Z$0:
  00000	8d 4d e8	 lea	 ecx, DWORD PTR $T11[ebp]
  00003	ff 25 00 00 00
	00		 jmp	 DWORD PTR __imp_??1?$CStringT@DV?$StrTraitMFC_DLL@DV?$ChTraitsCRT@D@ATL@@@@@ATL@@QAE@XZ
__unwindfunclet$?GetLineExtEnvironment@CElementTreeBuilder@@ABE?AVCLineExtEnvironment@@ABV?$CStringT@DV?$StrTraitMFC_DLL@DV?$ChTraitsCRT@D@ATL@@@@@ATL@@@Z$1:
  00009	8d 4d ec	 lea	 ecx, DWORD PTR $T12[ebp]
  0000c	ff 25 00 00 00
	00		 jmp	 DWORD PTR __imp_??1?$CStringT@DV?$StrTraitMFC_DLL@DV?$ChTraitsCRT@D@ATL@@@@@ATL@@QAE@XZ
__unwindfunclet$?GetLineExtEnvironment@CElementTreeBuilder@@ABE?AVCLineExtEnvironment@@ABV?$CStringT@DV?$StrTraitMFC_DLL@DV?$ChTraitsCRT@D@ATL@@@@@ATL@@@Z$3:
  00012	8d 4d 0c	 lea	 ecx, DWORD PTR _strNewData$15[ebp]
  00015	ff 25 00 00 00
	00		 jmp	 DWORD PTR __imp_??1?$CStringT@DV?$StrTraitMFC_DLL@DV?$ChTraitsCRT@D@ATL@@@@@ATL@@QAE@XZ
__unwindfunclet$?GetLineExtEnvironment@CElementTreeBuilder@@ABE?AVCLineExtEnvironment@@ABV?$CStringT@DV?$StrTraitMFC_DLL@DV?$ChTraitsCRT@D@ATL@@@@@ATL@@@Z$2:
  0001b	8d 4d f0	 lea	 ecx, DWORD PTR _strLineExtData$[ebp]
  0001e	ff 25 00 00 00
	00		 jmp	 DWORD PTR __imp_??1?$CStringT@DV?$StrTraitMFC_DLL@DV?$ChTraitsCRT@D@ATL@@@@@ATL@@QAE@XZ
__unwindfunclet$?GetLineExtEnvironment@CElementTreeBuilder@@ABE?AVCLineExtEnvironment@@ABV?$CStringT@DV?$StrTraitMFC_DLL@DV?$ChTraitsCRT@D@ATL@@@@@ATL@@@Z$6:
  00024	8d 4d dc	 lea	 ecx, DWORD PTR $T6[ebp]
  00027	ff 25 00 00 00
	00		 jmp	 DWORD PTR __imp_??1?$CStringT@DV?$StrTraitMFC_DLL@DV?$ChTraitsCRT@D@ATL@@@@@ATL@@QAE@XZ
__unwindfunclet$?GetLineExtEnvironment@CElementTreeBuilder@@ABE?AVCLineExtEnvironment@@ABV?$CStringT@DV?$StrTraitMFC_DLL@DV?$ChTraitsCRT@D@ATL@@@@@ATL@@@Z$7:
  0002d	8d 4d e0	 lea	 ecx, DWORD PTR $T8[ebp]
  00030	ff 25 00 00 00
	00		 jmp	 DWORD PTR __imp_??1?$CStringT@DV?$StrTraitMFC_DLL@DV?$ChTraitsCRT@D@ATL@@@@@ATL@@QAE@XZ
__unwindfunclet$?GetLineExtEnvironment@CElementTreeBuilder@@ABE?AVCLineExtEnvironment@@ABV?$CStringT@DV?$StrTraitMFC_DLL@DV?$ChTraitsCRT@D@ATL@@@@@ATL@@@Z$9:
  00036	8d 4d 0c	 lea	 ecx, DWORD PTR _strNewData$14[ebp]
  00039	ff 25 00 00 00
	00		 jmp	 DWORD PTR __imp_??1?$CStringT@DV?$StrTraitMFC_DLL@DV?$ChTraitsCRT@D@ATL@@@@@ATL@@QAE@XZ
__unwindfunclet$?GetLineExtEnvironment@CElementTreeBuilder@@ABE?AVCLineExtEnvironment@@ABV?$CStringT@DV?$StrTraitMFC_DLL@DV?$ChTraitsCRT@D@ATL@@@@@ATL@@@Z$12:
  0003f	8d 4d e4	 lea	 ecx, DWORD PTR $T9[ebp]
  00042	ff 25 00 00 00
	00		 jmp	 DWORD PTR __imp_??1?$CStringT@DV?$StrTraitMFC_DLL@DV?$ChTraitsCRT@D@ATL@@@@@ATL@@QAE@XZ
__unwindfunclet$?GetLineExtEnvironment@CElementTreeBuilder@@ABE?AVCLineExtEnvironment@@ABV?$CStringT@DV?$StrTraitMFC_DLL@DV?$ChTraitsCRT@D@ATL@@@@@ATL@@@Z$13:
  00048	8d 4d e0	 lea	 ecx, DWORD PTR $T7[ebp]
  0004b	ff 25 00 00 00
	00		 jmp	 DWORD PTR __imp_??1?$CStringT@DV?$StrTraitMFC_DLL@DV?$ChTraitsCRT@D@ATL@@@@@ATL@@QAE@XZ
__unwindfunclet$?GetLineExtEnvironment@CElementTreeBuilder@@ABE?AVCLineExtEnvironment@@ABV?$CStringT@DV?$StrTraitMFC_DLL@DV?$ChTraitsCRT@D@ATL@@@@@ATL@@@Z$15:
  00051	8d 4d 0c	 lea	 ecx, DWORD PTR _strNewData$13[ebp]
  00054	ff 25 00 00 00
	00		 jmp	 DWORD PTR __imp_??1?$CStringT@DV?$StrTraitMFC_DLL@DV?$ChTraitsCRT@D@ATL@@@@@ATL@@QAE@XZ
  0005a	cc		 int	 3
  0005b	cc		 int	 3
  0005c	cc		 int	 3
  0005d	cc		 int	 3
  0005e	cc		 int	 3
__ehhandler$?GetLineExtEnvironment@CElementTreeBuilder@@ABE?AVCLineExtEnvironment@@ABV?$CStringT@DV?$StrTraitMFC_DLL@DV?$ChTraitsCRT@D@ATL@@@@@ATL@@@Z:
  0005f	90		 npad	 1
  00060	90		 npad	 1
  00061	8b 54 24 08	 mov	 edx, DWORD PTR [esp+8]
  00065	8d 42 0c	 lea	 eax, DWORD PTR [edx+12]
  00068	8b 4a d4	 mov	 ecx, DWORD PTR [edx-44]
  0006b	33 c8		 xor	 ecx, eax
  0006d	e8 00 00 00 00	 call	 @__security_check_cookie@4
  00072	b8 00 00 00 00	 mov	 eax, OFFSET __ehfuncinfo$?GetLineExtEnvironment@CElementTreeBuilder@@ABE?AVCLineExtEnvironment@@ABV?$CStringT@DV?$StrTraitMFC_DLL@DV?$ChTraitsCRT@D@ATL@@@@@ATL@@@Z
  00077	e9 00 00 00 00	 jmp	 ___CxxFrameHandler3
text$x	ENDS
?GetLineExtEnvironment@CElementTreeBuilder@@ABE?AVCLineExtEnvironment@@ABV?$CStringT@DV?$StrTraitMFC_DLL@DV?$ChTraitsCRT@D@ATL@@@@@ATL@@@Z ENDP ; CElementTreeBuilder::GetLineExtEnvironment
; Function compile flags: /Ogtp
; File D:\git\src\IBK\IBK_DRFN\ProjSrc\SrcChartEx\ChartAddIn\ChartAnalysisToolAddIn\AnalysisTool\ElementTreeBuilder.cpp
;	COMDAT ?GetPriceRangeDivEnvironment@CElementTreeBuilder@@ABEHABV?$CStringT@DV?$StrTraitMFC_DLL@DV?$ChTraitsCRT@D@ATL@@@@@ATL@@@Z
_TEXT	SEGMENT
$T2 = -28						; size = 4
$T3 = -24						; size = 4
$T4 = -20						; size = 4
$T5 = -16						; size = 4
__$EHRec$ = -12						; size = 12
_strNewData$6 = 8					; size = 4
_strData$ = 8						; size = 4
?GetPriceRangeDivEnvironment@CElementTreeBuilder@@ABEHABV?$CStringT@DV?$StrTraitMFC_DLL@DV?$ChTraitsCRT@D@ATL@@@@@ATL@@@Z PROC ; CElementTreeBuilder::GetPriceRangeDivEnvironment, COMDAT
; _this$ = ecx

; 732  : {

  00000	55		 push	 ebp
  00001	8b ec		 mov	 ebp, esp
  00003	6a ff		 push	 -1
  00005	68 00 00 00 00	 push	 __ehhandler$?GetPriceRangeDivEnvironment@CElementTreeBuilder@@ABEHABV?$CStringT@DV?$StrTraitMFC_DLL@DV?$ChTraitsCRT@D@ATL@@@@@ATL@@@Z
  0000a	64 a1 00 00 00
	00		 mov	 eax, DWORD PTR fs:0
  00010	50		 push	 eax
  00011	83 ec 10	 sub	 esp, 16			; 00000010H
  00014	56		 push	 esi
  00015	a1 00 00 00 00	 mov	 eax, DWORD PTR ___security_cookie
  0001a	33 c5		 xor	 eax, ebp
  0001c	50		 push	 eax
  0001d	8d 45 f4	 lea	 eax, DWORD PTR __$EHRec$[ebp]
  00020	64 a3 00 00 00
	00		 mov	 DWORD PTR fs:0, eax

; 733  : 	int nData = atoi(GetData(strData, "<PriceRangeDiv>", "<\\PriceRangeDiv>\r\n"));

  00026	68 00 00 00 00	 push	 OFFSET ??_C@_0BD@JIABNAJN@?$DM?2PriceRangeDiv?$DO?$AN?6@
  0002b	8d 4d e8	 lea	 ecx, DWORD PTR $T3[ebp]
  0002e	ff 15 00 00 00
	00		 call	 DWORD PTR __imp_??0?$CStringT@DV?$StrTraitMFC_DLL@DV?$ChTraitsCRT@D@ATL@@@@@ATL@@QAE@PBD@Z
  00034	68 00 00 00 00	 push	 OFFSET ??_C@_0BA@OIJLDBGJ@?$DMPriceRangeDiv?$DO@
  00039	8d 4d ec	 lea	 ecx, DWORD PTR $T4[ebp]
  0003c	c7 45 fc 00 00
	00 00		 mov	 DWORD PTR __$EHRec$[ebp+8], 0
  00043	ff 15 00 00 00
	00		 call	 DWORD PTR __imp_??0?$CStringT@DV?$StrTraitMFC_DLL@DV?$ChTraitsCRT@D@ATL@@@@@ATL@@QAE@PBD@Z

; 384  : 	CString strNewData = strOrgData;

  00049	ff 75 08	 push	 DWORD PTR _strData$[ebp]
  0004c	8d 4d 08	 lea	 ecx, DWORD PTR _strNewData$6[ebp]

; 733  : 	int nData = atoi(GetData(strData, "<PriceRangeDiv>", "<\\PriceRangeDiv>\r\n"));

  0004f	c6 45 fc 01	 mov	 BYTE PTR __$EHRec$[ebp+8], 1

; 384  : 	CString strNewData = strOrgData;

  00053	ff 15 00 00 00
	00		 call	 DWORD PTR __imp_??0?$CStringT@DV?$StrTraitMFC_DLL@DV?$ChTraitsCRT@D@ATL@@@@@ATL@@QAE@ABV01@@Z

; 385  : 	CDataConversion::GetStringData(strNewData, strTrimStart);

  00059	6a 01		 push	 1
  0005b	8d 45 ec	 lea	 eax, DWORD PTR $T4[ebp]
  0005e	c6 45 fc 02	 mov	 BYTE PTR __$EHRec$[ebp+8], 2
  00062	50		 push	 eax
  00063	8d 45 08	 lea	 eax, DWORD PTR _strNewData$6[ebp]
  00066	50		 push	 eax
  00067	8d 45 e4	 lea	 eax, DWORD PTR $T2[ebp]
  0006a	50		 push	 eax
  0006b	e8 00 00 00 00	 call	 ?GetStringData@CDataConversion@@SA?AV?$CStringT@DV?$StrTraitMFC_DLL@DV?$ChTraitsCRT@D@ATL@@@@@ATL@@AAV23@ABV23@_N@Z ; CDataConversion::GetStringData
  00070	83 c4 10	 add	 esp, 16			; 00000010H
  00073	8d 4d e4	 lea	 ecx, DWORD PTR $T2[ebp]
  00076	ff 15 00 00 00
	00		 call	 DWORD PTR __imp_??1?$CStringT@DV?$StrTraitMFC_DLL@DV?$ChTraitsCRT@D@ATL@@@@@ATL@@QAE@XZ

; 386  : 	return CDataConversion::GetStringData(strNewData, strTrimEnd);

  0007c	6a 01		 push	 1
  0007e	8d 45 e8	 lea	 eax, DWORD PTR $T3[ebp]
  00081	50		 push	 eax
  00082	8d 45 08	 lea	 eax, DWORD PTR _strNewData$6[ebp]
  00085	50		 push	 eax
  00086	8d 45 f0	 lea	 eax, DWORD PTR $T5[ebp]
  00089	50		 push	 eax
  0008a	e8 00 00 00 00	 call	 ?GetStringData@CDataConversion@@SA?AV?$CStringT@DV?$StrTraitMFC_DLL@DV?$ChTraitsCRT@D@ATL@@@@@ATL@@AAV23@ABV23@_N@Z ; CDataConversion::GetStringData
  0008f	83 c4 10	 add	 esp, 16			; 00000010H
  00092	8d 4d 08	 lea	 ecx, DWORD PTR _strNewData$6[ebp]
  00095	ff 15 00 00 00
	00		 call	 DWORD PTR __imp_??1?$CStringT@DV?$StrTraitMFC_DLL@DV?$ChTraitsCRT@D@ATL@@@@@ATL@@QAE@XZ

; 733  : 	int nData = atoi(GetData(strData, "<PriceRangeDiv>", "<\\PriceRangeDiv>\r\n"));

  0009b	ff 75 f0	 push	 DWORD PTR $T5[ebp]
  0009e	ff 15 00 00 00
	00		 call	 DWORD PTR __imp__atoi
  000a4	83 c4 04	 add	 esp, 4
  000a7	8d 4d f0	 lea	 ecx, DWORD PTR $T5[ebp]
  000aa	8b f0		 mov	 esi, eax
  000ac	ff 15 00 00 00
	00		 call	 DWORD PTR __imp_??1?$CStringT@DV?$StrTraitMFC_DLL@DV?$ChTraitsCRT@D@ATL@@@@@ATL@@QAE@XZ
  000b2	8d 4d ec	 lea	 ecx, DWORD PTR $T4[ebp]
  000b5	ff 15 00 00 00
	00		 call	 DWORD PTR __imp_??1?$CStringT@DV?$StrTraitMFC_DLL@DV?$ChTraitsCRT@D@ATL@@@@@ATL@@QAE@XZ
  000bb	8d 4d e8	 lea	 ecx, DWORD PTR $T3[ebp]
  000be	ff 15 00 00 00
	00		 call	 DWORD PTR __imp_??1?$CStringT@DV?$StrTraitMFC_DLL@DV?$ChTraitsCRT@D@ATL@@@@@ATL@@QAE@XZ

; 734  : 	return nData;

  000c4	8b c6		 mov	 eax, esi

; 735  : }

  000c6	8b 4d f4	 mov	 ecx, DWORD PTR __$EHRec$[ebp]
  000c9	64 89 0d 00 00
	00 00		 mov	 DWORD PTR fs:0, ecx
  000d0	59		 pop	 ecx
  000d1	5e		 pop	 esi
  000d2	8b e5		 mov	 esp, ebp
  000d4	5d		 pop	 ebp
  000d5	c2 04 00	 ret	 4
_TEXT	ENDS
;	COMDAT text$x
text$x	SEGMENT
__unwindfunclet$?GetPriceRangeDivEnvironment@CElementTreeBuilder@@ABEHABV?$CStringT@DV?$StrTraitMFC_DLL@DV?$ChTraitsCRT@D@ATL@@@@@ATL@@@Z$0:
  00000	8d 4d e8	 lea	 ecx, DWORD PTR $T3[ebp]
  00003	ff 25 00 00 00
	00		 jmp	 DWORD PTR __imp_??1?$CStringT@DV?$StrTraitMFC_DLL@DV?$ChTraitsCRT@D@ATL@@@@@ATL@@QAE@XZ
__unwindfunclet$?GetPriceRangeDivEnvironment@CElementTreeBuilder@@ABEHABV?$CStringT@DV?$StrTraitMFC_DLL@DV?$ChTraitsCRT@D@ATL@@@@@ATL@@@Z$1:
  00009	8d 4d ec	 lea	 ecx, DWORD PTR $T4[ebp]
  0000c	ff 25 00 00 00
	00		 jmp	 DWORD PTR __imp_??1?$CStringT@DV?$StrTraitMFC_DLL@DV?$ChTraitsCRT@D@ATL@@@@@ATL@@QAE@XZ
__unwindfunclet$?GetPriceRangeDivEnvironment@CElementTreeBuilder@@ABEHABV?$CStringT@DV?$StrTraitMFC_DLL@DV?$ChTraitsCRT@D@ATL@@@@@ATL@@@Z$3:
  00012	8d 4d 08	 lea	 ecx, DWORD PTR _strNewData$6[ebp]
  00015	ff 25 00 00 00
	00		 jmp	 DWORD PTR __imp_??1?$CStringT@DV?$StrTraitMFC_DLL@DV?$ChTraitsCRT@D@ATL@@@@@ATL@@QAE@XZ
  0001b	cc		 int	 3
  0001c	cc		 int	 3
  0001d	cc		 int	 3
  0001e	cc		 int	 3
  0001f	cc		 int	 3
__ehhandler$?GetPriceRangeDivEnvironment@CElementTreeBuilder@@ABEHABV?$CStringT@DV?$StrTraitMFC_DLL@DV?$ChTraitsCRT@D@ATL@@@@@ATL@@@Z:
  00020	90		 npad	 1
  00021	90		 npad	 1
  00022	8b 54 24 08	 mov	 edx, DWORD PTR [esp+8]
  00026	8d 42 0c	 lea	 eax, DWORD PTR [edx+12]
  00029	8b 4a e8	 mov	 ecx, DWORD PTR [edx-24]
  0002c	33 c8		 xor	 ecx, eax
  0002e	e8 00 00 00 00	 call	 @__security_check_cookie@4
  00033	b8 00 00 00 00	 mov	 eax, OFFSET __ehfuncinfo$?GetPriceRangeDivEnvironment@CElementTreeBuilder@@ABEHABV?$CStringT@DV?$StrTraitMFC_DLL@DV?$ChTraitsCRT@D@ATL@@@@@ATL@@@Z
  00038	e9 00 00 00 00	 jmp	 ___CxxFrameHandler3
text$x	ENDS
?GetPriceRangeDivEnvironment@CElementTreeBuilder@@ABEHABV?$CStringT@DV?$StrTraitMFC_DLL@DV?$ChTraitsCRT@D@ATL@@@@@ATL@@@Z ENDP ; CElementTreeBuilder::GetPriceRangeDivEnvironment
; Function compile flags: /Ogtp
; File D:\git\src\IBK\IBK_DRFN\ProjSrc\SrcChartEx\ChartAddIn\ChartAnalysisToolAddIn\AnalysisTool\ElementTreeBuilder.cpp
;	COMDAT ?GetEquiDivEnvironment@CElementTreeBuilder@@ABEHABV?$CStringT@DV?$StrTraitMFC_DLL@DV?$ChTraitsCRT@D@ATL@@@@@ATL@@@Z
_TEXT	SEGMENT
$T2 = -28						; size = 4
$T3 = -24						; size = 4
$T4 = -20						; size = 4
$T5 = -16						; size = 4
__$EHRec$ = -12						; size = 12
_strNewData$6 = 8					; size = 4
_strData$ = 8						; size = 4
?GetEquiDivEnvironment@CElementTreeBuilder@@ABEHABV?$CStringT@DV?$StrTraitMFC_DLL@DV?$ChTraitsCRT@D@ATL@@@@@ATL@@@Z PROC ; CElementTreeBuilder::GetEquiDivEnvironment, COMDAT
; _this$ = ecx

; 725  : {

  00000	55		 push	 ebp
  00001	8b ec		 mov	 ebp, esp
  00003	6a ff		 push	 -1
  00005	68 00 00 00 00	 push	 __ehhandler$?GetEquiDivEnvironment@CElementTreeBuilder@@ABEHABV?$CStringT@DV?$StrTraitMFC_DLL@DV?$ChTraitsCRT@D@ATL@@@@@ATL@@@Z
  0000a	64 a1 00 00 00
	00		 mov	 eax, DWORD PTR fs:0
  00010	50		 push	 eax
  00011	83 ec 10	 sub	 esp, 16			; 00000010H
  00014	56		 push	 esi
  00015	a1 00 00 00 00	 mov	 eax, DWORD PTR ___security_cookie
  0001a	33 c5		 xor	 eax, ebp
  0001c	50		 push	 eax
  0001d	8d 45 f4	 lea	 eax, DWORD PTR __$EHRec$[ebp]
  00020	64 a3 00 00 00
	00		 mov	 DWORD PTR fs:0, eax

; 726  : 	int nData = atoi(GetData(strData, "<EquiDiv>", "<\\EquiDiv>\r\n"));

  00026	68 00 00 00 00	 push	 OFFSET ??_C@_0N@JENDHCPJ@?$DM?2EquiDiv?$DO?$AN?6@
  0002b	8d 4d e8	 lea	 ecx, DWORD PTR $T3[ebp]
  0002e	ff 15 00 00 00
	00		 call	 DWORD PTR __imp_??0?$CStringT@DV?$StrTraitMFC_DLL@DV?$ChTraitsCRT@D@ATL@@@@@ATL@@QAE@PBD@Z
  00034	68 00 00 00 00	 push	 OFFSET ??_C@_09PBAKMKPI@?$DMEquiDiv?$DO@
  00039	8d 4d ec	 lea	 ecx, DWORD PTR $T4[ebp]
  0003c	c7 45 fc 00 00
	00 00		 mov	 DWORD PTR __$EHRec$[ebp+8], 0
  00043	ff 15 00 00 00
	00		 call	 DWORD PTR __imp_??0?$CStringT@DV?$StrTraitMFC_DLL@DV?$ChTraitsCRT@D@ATL@@@@@ATL@@QAE@PBD@Z

; 384  : 	CString strNewData = strOrgData;

  00049	ff 75 08	 push	 DWORD PTR _strData$[ebp]
  0004c	8d 4d 08	 lea	 ecx, DWORD PTR _strNewData$6[ebp]

; 726  : 	int nData = atoi(GetData(strData, "<EquiDiv>", "<\\EquiDiv>\r\n"));

  0004f	c6 45 fc 01	 mov	 BYTE PTR __$EHRec$[ebp+8], 1

; 384  : 	CString strNewData = strOrgData;

  00053	ff 15 00 00 00
	00		 call	 DWORD PTR __imp_??0?$CStringT@DV?$StrTraitMFC_DLL@DV?$ChTraitsCRT@D@ATL@@@@@ATL@@QAE@ABV01@@Z

; 385  : 	CDataConversion::GetStringData(strNewData, strTrimStart);

  00059	6a 01		 push	 1
  0005b	8d 45 ec	 lea	 eax, DWORD PTR $T4[ebp]
  0005e	c6 45 fc 02	 mov	 BYTE PTR __$EHRec$[ebp+8], 2
  00062	50		 push	 eax
  00063	8d 45 08	 lea	 eax, DWORD PTR _strNewData$6[ebp]
  00066	50		 push	 eax
  00067	8d 45 e4	 lea	 eax, DWORD PTR $T2[ebp]
  0006a	50		 push	 eax
  0006b	e8 00 00 00 00	 call	 ?GetStringData@CDataConversion@@SA?AV?$CStringT@DV?$StrTraitMFC_DLL@DV?$ChTraitsCRT@D@ATL@@@@@ATL@@AAV23@ABV23@_N@Z ; CDataConversion::GetStringData
  00070	83 c4 10	 add	 esp, 16			; 00000010H
  00073	8d 4d e4	 lea	 ecx, DWORD PTR $T2[ebp]
  00076	ff 15 00 00 00
	00		 call	 DWORD PTR __imp_??1?$CStringT@DV?$StrTraitMFC_DLL@DV?$ChTraitsCRT@D@ATL@@@@@ATL@@QAE@XZ

; 386  : 	return CDataConversion::GetStringData(strNewData, strTrimEnd);

  0007c	6a 01		 push	 1
  0007e	8d 45 e8	 lea	 eax, DWORD PTR $T3[ebp]
  00081	50		 push	 eax
  00082	8d 45 08	 lea	 eax, DWORD PTR _strNewData$6[ebp]
  00085	50		 push	 eax
  00086	8d 45 f0	 lea	 eax, DWORD PTR $T5[ebp]
  00089	50		 push	 eax
  0008a	e8 00 00 00 00	 call	 ?GetStringData@CDataConversion@@SA?AV?$CStringT@DV?$StrTraitMFC_DLL@DV?$ChTraitsCRT@D@ATL@@@@@ATL@@AAV23@ABV23@_N@Z ; CDataConversion::GetStringData
  0008f	83 c4 10	 add	 esp, 16			; 00000010H
  00092	8d 4d 08	 lea	 ecx, DWORD PTR _strNewData$6[ebp]
  00095	ff 15 00 00 00
	00		 call	 DWORD PTR __imp_??1?$CStringT@DV?$StrTraitMFC_DLL@DV?$ChTraitsCRT@D@ATL@@@@@ATL@@QAE@XZ

; 726  : 	int nData = atoi(GetData(strData, "<EquiDiv>", "<\\EquiDiv>\r\n"));

  0009b	ff 75 f0	 push	 DWORD PTR $T5[ebp]
  0009e	ff 15 00 00 00
	00		 call	 DWORD PTR __imp__atoi
  000a4	83 c4 04	 add	 esp, 4
  000a7	8d 4d f0	 lea	 ecx, DWORD PTR $T5[ebp]
  000aa	8b f0		 mov	 esi, eax
  000ac	ff 15 00 00 00
	00		 call	 DWORD PTR __imp_??1?$CStringT@DV?$StrTraitMFC_DLL@DV?$ChTraitsCRT@D@ATL@@@@@ATL@@QAE@XZ
  000b2	8d 4d ec	 lea	 ecx, DWORD PTR $T4[ebp]
  000b5	ff 15 00 00 00
	00		 call	 DWORD PTR __imp_??1?$CStringT@DV?$StrTraitMFC_DLL@DV?$ChTraitsCRT@D@ATL@@@@@ATL@@QAE@XZ
  000bb	8d 4d e8	 lea	 ecx, DWORD PTR $T3[ebp]
  000be	ff 15 00 00 00
	00		 call	 DWORD PTR __imp_??1?$CStringT@DV?$StrTraitMFC_DLL@DV?$ChTraitsCRT@D@ATL@@@@@ATL@@QAE@XZ

; 727  : 	return nData;

  000c4	8b c6		 mov	 eax, esi

; 728  : }

  000c6	8b 4d f4	 mov	 ecx, DWORD PTR __$EHRec$[ebp]
  000c9	64 89 0d 00 00
	00 00		 mov	 DWORD PTR fs:0, ecx
  000d0	59		 pop	 ecx
  000d1	5e		 pop	 esi
  000d2	8b e5		 mov	 esp, ebp
  000d4	5d		 pop	 ebp
  000d5	c2 04 00	 ret	 4
_TEXT	ENDS
;	COMDAT text$x
text$x	SEGMENT
__unwindfunclet$?GetEquiDivEnvironment@CElementTreeBuilder@@ABEHABV?$CStringT@DV?$StrTraitMFC_DLL@DV?$ChTraitsCRT@D@ATL@@@@@ATL@@@Z$0:
  00000	8d 4d e8	 lea	 ecx, DWORD PTR $T3[ebp]
  00003	ff 25 00 00 00
	00		 jmp	 DWORD PTR __imp_??1?$CStringT@DV?$StrTraitMFC_DLL@DV?$ChTraitsCRT@D@ATL@@@@@ATL@@QAE@XZ
__unwindfunclet$?GetEquiDivEnvironment@CElementTreeBuilder@@ABEHABV?$CStringT@DV?$StrTraitMFC_DLL@DV?$ChTraitsCRT@D@ATL@@@@@ATL@@@Z$1:
  00009	8d 4d ec	 lea	 ecx, DWORD PTR $T4[ebp]
  0000c	ff 25 00 00 00
	00		 jmp	 DWORD PTR __imp_??1?$CStringT@DV?$StrTraitMFC_DLL@DV?$ChTraitsCRT@D@ATL@@@@@ATL@@QAE@XZ
__unwindfunclet$?GetEquiDivEnvironment@CElementTreeBuilder@@ABEHABV?$CStringT@DV?$StrTraitMFC_DLL@DV?$ChTraitsCRT@D@ATL@@@@@ATL@@@Z$3:
  00012	8d 4d 08	 lea	 ecx, DWORD PTR _strNewData$6[ebp]
  00015	ff 25 00 00 00
	00		 jmp	 DWORD PTR __imp_??1?$CStringT@DV?$StrTraitMFC_DLL@DV?$ChTraitsCRT@D@ATL@@@@@ATL@@QAE@XZ
  0001b	cc		 int	 3
  0001c	cc		 int	 3
  0001d	cc		 int	 3
  0001e	cc		 int	 3
  0001f	cc		 int	 3
__ehhandler$?GetEquiDivEnvironment@CElementTreeBuilder@@ABEHABV?$CStringT@DV?$StrTraitMFC_DLL@DV?$ChTraitsCRT@D@ATL@@@@@ATL@@@Z:
  00020	90		 npad	 1
  00021	90		 npad	 1
  00022	8b 54 24 08	 mov	 edx, DWORD PTR [esp+8]
  00026	8d 42 0c	 lea	 eax, DWORD PTR [edx+12]
  00029	8b 4a e8	 mov	 ecx, DWORD PTR [edx-24]
  0002c	33 c8		 xor	 ecx, eax
  0002e	e8 00 00 00 00	 call	 @__security_check_cookie@4
  00033	b8 00 00 00 00	 mov	 eax, OFFSET __ehfuncinfo$?GetEquiDivEnvironment@CElementTreeBuilder@@ABEHABV?$CStringT@DV?$StrTraitMFC_DLL@DV?$ChTraitsCRT@D@ATL@@@@@ATL@@@Z
  00038	e9 00 00 00 00	 jmp	 ___CxxFrameHandler3
text$x	ENDS
?GetEquiDivEnvironment@CElementTreeBuilder@@ABEHABV?$CStringT@DV?$StrTraitMFC_DLL@DV?$ChTraitsCRT@D@ATL@@@@@ATL@@@Z ENDP ; CElementTreeBuilder::GetEquiDivEnvironment
; Function compile flags: /Ogtp
; File D:\git\src\IBK\IBK_DRFN\ProjSrc\SrcChartEx\ChartAddIn\ChartAnalysisToolAddIn\AnalysisTool\ElementTreeBuilder.cpp
;	COMDAT ?GetAutoPrice@CElementTreeBuilder@@ABE_NABV?$CStringT@DV?$StrTraitMFC_DLL@DV?$ChTraitsCRT@D@ATL@@@@@ATL@@@Z
_TEXT	SEGMENT
$T2 = -28						; size = 4
$T3 = -24						; size = 4
$T4 = -20						; size = 4
$T5 = -16						; size = 4
__$EHRec$ = -12						; size = 12
_strNewData$6 = 8					; size = 4
_strData$ = 8						; size = 4
?GetAutoPrice@CElementTreeBuilder@@ABE_NABV?$CStringT@DV?$StrTraitMFC_DLL@DV?$ChTraitsCRT@D@ATL@@@@@ATL@@@Z PROC ; CElementTreeBuilder::GetAutoPrice, COMDAT
; _this$ = ecx

; 718  : {

  00000	55		 push	 ebp
  00001	8b ec		 mov	 ebp, esp
  00003	6a ff		 push	 -1
  00005	68 00 00 00 00	 push	 __ehhandler$?GetAutoPrice@CElementTreeBuilder@@ABE_NABV?$CStringT@DV?$StrTraitMFC_DLL@DV?$ChTraitsCRT@D@ATL@@@@@ATL@@@Z
  0000a	64 a1 00 00 00
	00		 mov	 eax, DWORD PTR fs:0
  00010	50		 push	 eax
  00011	83 ec 10	 sub	 esp, 16			; 00000010H
  00014	56		 push	 esi
  00015	a1 00 00 00 00	 mov	 eax, DWORD PTR ___security_cookie
  0001a	33 c5		 xor	 eax, ebp
  0001c	50		 push	 eax
  0001d	8d 45 f4	 lea	 eax, DWORD PTR __$EHRec$[ebp]
  00020	64 a3 00 00 00
	00		 mov	 DWORD PTR fs:0, eax

; 719  : 	int nData = atoi(GetData(strData, "<AutoPirce>", "<\\AutoPirce>\r\n"));

  00026	68 00 00 00 00	 push	 OFFSET ??_C@_0P@OFBFCELN@?$DM?2AutoPirce?$DO?$AN?6@
  0002b	8d 4d e8	 lea	 ecx, DWORD PTR $T3[ebp]
  0002e	ff 15 00 00 00
	00		 call	 DWORD PTR __imp_??0?$CStringT@DV?$StrTraitMFC_DLL@DV?$ChTraitsCRT@D@ATL@@@@@ATL@@QAE@PBD@Z
  00034	68 00 00 00 00	 push	 OFFSET ??_C@_0M@JPFNKEPJ@?$DMAutoPirce?$DO@
  00039	8d 4d ec	 lea	 ecx, DWORD PTR $T4[ebp]
  0003c	c7 45 fc 00 00
	00 00		 mov	 DWORD PTR __$EHRec$[ebp+8], 0
  00043	ff 15 00 00 00
	00		 call	 DWORD PTR __imp_??0?$CStringT@DV?$StrTraitMFC_DLL@DV?$ChTraitsCRT@D@ATL@@@@@ATL@@QAE@PBD@Z

; 384  : 	CString strNewData = strOrgData;

  00049	ff 75 08	 push	 DWORD PTR _strData$[ebp]
  0004c	8d 4d 08	 lea	 ecx, DWORD PTR _strNewData$6[ebp]

; 719  : 	int nData = atoi(GetData(strData, "<AutoPirce>", "<\\AutoPirce>\r\n"));

  0004f	c6 45 fc 01	 mov	 BYTE PTR __$EHRec$[ebp+8], 1

; 384  : 	CString strNewData = strOrgData;

  00053	ff 15 00 00 00
	00		 call	 DWORD PTR __imp_??0?$CStringT@DV?$StrTraitMFC_DLL@DV?$ChTraitsCRT@D@ATL@@@@@ATL@@QAE@ABV01@@Z

; 385  : 	CDataConversion::GetStringData(strNewData, strTrimStart);

  00059	6a 01		 push	 1
  0005b	8d 45 ec	 lea	 eax, DWORD PTR $T4[ebp]
  0005e	c6 45 fc 02	 mov	 BYTE PTR __$EHRec$[ebp+8], 2
  00062	50		 push	 eax
  00063	8d 45 08	 lea	 eax, DWORD PTR _strNewData$6[ebp]
  00066	50		 push	 eax
  00067	8d 45 e4	 lea	 eax, DWORD PTR $T2[ebp]
  0006a	50		 push	 eax
  0006b	e8 00 00 00 00	 call	 ?GetStringData@CDataConversion@@SA?AV?$CStringT@DV?$StrTraitMFC_DLL@DV?$ChTraitsCRT@D@ATL@@@@@ATL@@AAV23@ABV23@_N@Z ; CDataConversion::GetStringData
  00070	83 c4 10	 add	 esp, 16			; 00000010H
  00073	8d 4d e4	 lea	 ecx, DWORD PTR $T2[ebp]
  00076	ff 15 00 00 00
	00		 call	 DWORD PTR __imp_??1?$CStringT@DV?$StrTraitMFC_DLL@DV?$ChTraitsCRT@D@ATL@@@@@ATL@@QAE@XZ

; 386  : 	return CDataConversion::GetStringData(strNewData, strTrimEnd);

  0007c	6a 01		 push	 1
  0007e	8d 45 e8	 lea	 eax, DWORD PTR $T3[ebp]
  00081	50		 push	 eax
  00082	8d 45 08	 lea	 eax, DWORD PTR _strNewData$6[ebp]
  00085	50		 push	 eax
  00086	8d 45 f0	 lea	 eax, DWORD PTR $T5[ebp]
  00089	50		 push	 eax
  0008a	e8 00 00 00 00	 call	 ?GetStringData@CDataConversion@@SA?AV?$CStringT@DV?$StrTraitMFC_DLL@DV?$ChTraitsCRT@D@ATL@@@@@ATL@@AAV23@ABV23@_N@Z ; CDataConversion::GetStringData
  0008f	83 c4 10	 add	 esp, 16			; 00000010H
  00092	8d 4d 08	 lea	 ecx, DWORD PTR _strNewData$6[ebp]
  00095	ff 15 00 00 00
	00		 call	 DWORD PTR __imp_??1?$CStringT@DV?$StrTraitMFC_DLL@DV?$ChTraitsCRT@D@ATL@@@@@ATL@@QAE@XZ

; 719  : 	int nData = atoi(GetData(strData, "<AutoPirce>", "<\\AutoPirce>\r\n"));

  0009b	ff 75 f0	 push	 DWORD PTR $T5[ebp]
  0009e	ff 15 00 00 00
	00		 call	 DWORD PTR __imp__atoi
  000a4	83 c4 04	 add	 esp, 4
  000a7	8d 4d f0	 lea	 ecx, DWORD PTR $T5[ebp]
  000aa	8b f0		 mov	 esi, eax
  000ac	ff 15 00 00 00
	00		 call	 DWORD PTR __imp_??1?$CStringT@DV?$StrTraitMFC_DLL@DV?$ChTraitsCRT@D@ATL@@@@@ATL@@QAE@XZ
  000b2	8d 4d ec	 lea	 ecx, DWORD PTR $T4[ebp]
  000b5	ff 15 00 00 00
	00		 call	 DWORD PTR __imp_??1?$CStringT@DV?$StrTraitMFC_DLL@DV?$ChTraitsCRT@D@ATL@@@@@ATL@@QAE@XZ
  000bb	8d 4d e8	 lea	 ecx, DWORD PTR $T3[ebp]
  000be	ff 15 00 00 00
	00		 call	 DWORD PTR __imp_??1?$CStringT@DV?$StrTraitMFC_DLL@DV?$ChTraitsCRT@D@ATL@@@@@ATL@@QAE@XZ

; 720  : 	return (nData == 0 ? false: true);

  000c4	85 f6		 test	 esi, esi
  000c6	0f 95 c0	 setne	 al

; 721  : }

  000c9	8b 4d f4	 mov	 ecx, DWORD PTR __$EHRec$[ebp]
  000cc	64 89 0d 00 00
	00 00		 mov	 DWORD PTR fs:0, ecx
  000d3	59		 pop	 ecx
  000d4	5e		 pop	 esi
  000d5	8b e5		 mov	 esp, ebp
  000d7	5d		 pop	 ebp
  000d8	c2 04 00	 ret	 4
_TEXT	ENDS
;	COMDAT text$x
text$x	SEGMENT
__unwindfunclet$?GetAutoPrice@CElementTreeBuilder@@ABE_NABV?$CStringT@DV?$StrTraitMFC_DLL@DV?$ChTraitsCRT@D@ATL@@@@@ATL@@@Z$0:
  00000	8d 4d e8	 lea	 ecx, DWORD PTR $T3[ebp]
  00003	ff 25 00 00 00
	00		 jmp	 DWORD PTR __imp_??1?$CStringT@DV?$StrTraitMFC_DLL@DV?$ChTraitsCRT@D@ATL@@@@@ATL@@QAE@XZ
__unwindfunclet$?GetAutoPrice@CElementTreeBuilder@@ABE_NABV?$CStringT@DV?$StrTraitMFC_DLL@DV?$ChTraitsCRT@D@ATL@@@@@ATL@@@Z$1:
  00009	8d 4d ec	 lea	 ecx, DWORD PTR $T4[ebp]
  0000c	ff 25 00 00 00
	00		 jmp	 DWORD PTR __imp_??1?$CStringT@DV?$StrTraitMFC_DLL@DV?$ChTraitsCRT@D@ATL@@@@@ATL@@QAE@XZ
__unwindfunclet$?GetAutoPrice@CElementTreeBuilder@@ABE_NABV?$CStringT@DV?$StrTraitMFC_DLL@DV?$ChTraitsCRT@D@ATL@@@@@ATL@@@Z$3:
  00012	8d 4d 08	 lea	 ecx, DWORD PTR _strNewData$6[ebp]
  00015	ff 25 00 00 00
	00		 jmp	 DWORD PTR __imp_??1?$CStringT@DV?$StrTraitMFC_DLL@DV?$ChTraitsCRT@D@ATL@@@@@ATL@@QAE@XZ
  0001b	cc		 int	 3
  0001c	cc		 int	 3
  0001d	cc		 int	 3
  0001e	cc		 int	 3
  0001f	cc		 int	 3
__ehhandler$?GetAutoPrice@CElementTreeBuilder@@ABE_NABV?$CStringT@DV?$StrTraitMFC_DLL@DV?$ChTraitsCRT@D@ATL@@@@@ATL@@@Z:
  00020	90		 npad	 1
  00021	90		 npad	 1
  00022	8b 54 24 08	 mov	 edx, DWORD PTR [esp+8]
  00026	8d 42 0c	 lea	 eax, DWORD PTR [edx+12]
  00029	8b 4a e8	 mov	 ecx, DWORD PTR [edx-24]
  0002c	33 c8		 xor	 ecx, eax
  0002e	e8 00 00 00 00	 call	 @__security_check_cookie@4
  00033	b8 00 00 00 00	 mov	 eax, OFFSET __ehfuncinfo$?GetAutoPrice@CElementTreeBuilder@@ABE_NABV?$CStringT@DV?$StrTraitMFC_DLL@DV?$ChTraitsCRT@D@ATL@@@@@ATL@@@Z
  00038	e9 00 00 00 00	 jmp	 ___CxxFrameHandler3
text$x	ENDS
?GetAutoPrice@CElementTreeBuilder@@ABE_NABV?$CStringT@DV?$StrTraitMFC_DLL@DV?$ChTraitsCRT@D@ATL@@@@@ATL@@@Z ENDP ; CElementTreeBuilder::GetAutoPrice
; Function compile flags: /Ogtp
; File D:\git\src\IBK\IBK_DRFN\ProjSrc\SrcChartEx\ChartAddIn\ChartAnalysisToolAddIn\AnalysisTool\ElementTreeBuilder.cpp
;	COMDAT ?GetEnvironment@CElementTreeBuilder@@ABE?AVCElementCommonEnvironment@@ABV?$CStringT@DV?$StrTraitMFC_DLL@DV?$ChTraitsCRT@D@ATL@@@@@ATL@@@Z
_TEXT	SEGMENT
_dataType$ = -112					; size = 40
_pen$ = -72						; size = 12
_lineExt$ = -60						; size = 8
_bIsAutoPrice$ = -52					; size = 1
_nEquiDiv$ = -48					; size = 4
_nPriceRangeDiv$ = -44					; size = 4
$T2 = -40						; size = 4
$T3 = -40						; size = 4
$T4 = -40						; size = 4
$T5 = -36						; size = 4
$T6 = -36						; size = 4
$T7 = -36						; size = 4
$T8 = -36						; size = 4
$T9 = -32						; size = 4
$T10 = -32						; size = 4
$T11 = -32						; size = 4
$T12 = -28						; size = 4
$T13 = -28						; size = 4
$T14 = -28						; size = 4
$T15 = -24						; size = 4
$T16 = -20						; size = 4
_strEnvironment$ = -16					; size = 4
__$EHRec$ = -12						; size = 12
___$ReturnUdt$ = 8					; size = 4
_strNewData$17 = 12					; size = 4
_strNewData$18 = 12					; size = 4
_strNewData$19 = 12					; size = 4
_strNewData$20 = 12					; size = 4
_strData$ = 12						; size = 4
?GetEnvironment@CElementTreeBuilder@@ABE?AVCElementCommonEnvironment@@ABV?$CStringT@DV?$StrTraitMFC_DLL@DV?$ChTraitsCRT@D@ATL@@@@@ATL@@@Z PROC ; CElementTreeBuilder::GetEnvironment, COMDAT
; _this$ = ecx

; 705  : {

  00000	55		 push	 ebp
  00001	8b ec		 mov	 ebp, esp
  00003	6a ff		 push	 -1
  00005	68 00 00 00 00	 push	 __ehhandler$?GetEnvironment@CElementTreeBuilder@@ABE?AVCElementCommonEnvironment@@ABV?$CStringT@DV?$StrTraitMFC_DLL@DV?$ChTraitsCRT@D@ATL@@@@@ATL@@@Z
  0000a	64 a1 00 00 00
	00		 mov	 eax, DWORD PTR fs:0
  00010	50		 push	 eax
  00011	83 ec 64	 sub	 esp, 100		; 00000064H
  00014	53		 push	 ebx
  00015	56		 push	 esi
  00016	57		 push	 edi
  00017	a1 00 00 00 00	 mov	 eax, DWORD PTR ___security_cookie
  0001c	33 c5		 xor	 eax, ebp
  0001e	50		 push	 eax
  0001f	8d 45 f4	 lea	 eax, DWORD PTR __$EHRec$[ebp]
  00022	64 a3 00 00 00
	00		 mov	 DWORD PTR fs:0, eax
  00028	8b d9		 mov	 ebx, ecx

; 706  : 	CString strEnvironment = GetData(strData, "<CommonEnvironment>\r\n", "<\\CommonEnvironment>\r\n");

  0002a	68 00 00 00 00	 push	 OFFSET ??_C@_0BH@HNKNDMBN@?$DM?2CommonEnvironment?$DO?$AN?6@
  0002f	8d 4d e8	 lea	 ecx, DWORD PTR $T15[ebp]
  00032	ff 15 00 00 00
	00		 call	 DWORD PTR __imp_??0?$CStringT@DV?$StrTraitMFC_DLL@DV?$ChTraitsCRT@D@ATL@@@@@ATL@@QAE@PBD@Z
  00038	68 00 00 00 00	 push	 OFFSET ??_C@_0BG@OGIHHANM@?$DMCommonEnvironment?$DO?$AN?6@
  0003d	8d 4d ec	 lea	 ecx, DWORD PTR $T16[ebp]
  00040	c7 45 fc 00 00
	00 00		 mov	 DWORD PTR __$EHRec$[ebp+8], 0
  00047	ff 15 00 00 00
	00		 call	 DWORD PTR __imp_??0?$CStringT@DV?$StrTraitMFC_DLL@DV?$ChTraitsCRT@D@ATL@@@@@ATL@@QAE@PBD@Z

; 384  : 	CString strNewData = strOrgData;

  0004d	ff 75 0c	 push	 DWORD PTR _strData$[ebp]
  00050	8d 4d 0c	 lea	 ecx, DWORD PTR _strNewData$20[ebp]

; 706  : 	CString strEnvironment = GetData(strData, "<CommonEnvironment>\r\n", "<\\CommonEnvironment>\r\n");

  00053	c6 45 fc 01	 mov	 BYTE PTR __$EHRec$[ebp+8], 1

; 384  : 	CString strNewData = strOrgData;

  00057	ff 15 00 00 00
	00		 call	 DWORD PTR __imp_??0?$CStringT@DV?$StrTraitMFC_DLL@DV?$ChTraitsCRT@D@ATL@@@@@ATL@@QAE@ABV01@@Z

; 385  : 	CDataConversion::GetStringData(strNewData, strTrimStart);

  0005d	6a 01		 push	 1
  0005f	8d 45 ec	 lea	 eax, DWORD PTR $T16[ebp]
  00062	c6 45 fc 02	 mov	 BYTE PTR __$EHRec$[ebp+8], 2
  00066	50		 push	 eax
  00067	8d 45 0c	 lea	 eax, DWORD PTR _strNewData$20[ebp]
  0006a	50		 push	 eax
  0006b	8d 45 dc	 lea	 eax, DWORD PTR $T7[ebp]
  0006e	50		 push	 eax
  0006f	e8 00 00 00 00	 call	 ?GetStringData@CDataConversion@@SA?AV?$CStringT@DV?$StrTraitMFC_DLL@DV?$ChTraitsCRT@D@ATL@@@@@ATL@@AAV23@ABV23@_N@Z ; CDataConversion::GetStringData
  00074	83 c4 10	 add	 esp, 16			; 00000010H
  00077	8d 4d dc	 lea	 ecx, DWORD PTR $T7[ebp]
  0007a	ff 15 00 00 00
	00		 call	 DWORD PTR __imp_??1?$CStringT@DV?$StrTraitMFC_DLL@DV?$ChTraitsCRT@D@ATL@@@@@ATL@@QAE@XZ

; 386  : 	return CDataConversion::GetStringData(strNewData, strTrimEnd);

  00080	6a 01		 push	 1
  00082	8d 45 e8	 lea	 eax, DWORD PTR $T15[ebp]
  00085	50		 push	 eax
  00086	8d 45 0c	 lea	 eax, DWORD PTR _strNewData$20[ebp]
  00089	50		 push	 eax
  0008a	8d 45 f0	 lea	 eax, DWORD PTR _strEnvironment$[ebp]
  0008d	50		 push	 eax
  0008e	e8 00 00 00 00	 call	 ?GetStringData@CDataConversion@@SA?AV?$CStringT@DV?$StrTraitMFC_DLL@DV?$ChTraitsCRT@D@ATL@@@@@ATL@@AAV23@ABV23@_N@Z ; CDataConversion::GetStringData
  00093	83 c4 10	 add	 esp, 16			; 00000010H
  00096	8d 4d 0c	 lea	 ecx, DWORD PTR _strNewData$20[ebp]
  00099	ff 15 00 00 00
	00		 call	 DWORD PTR __imp_??1?$CStringT@DV?$StrTraitMFC_DLL@DV?$ChTraitsCRT@D@ATL@@@@@ATL@@QAE@XZ

; 706  : 	CString strEnvironment = GetData(strData, "<CommonEnvironment>\r\n", "<\\CommonEnvironment>\r\n");

  0009f	8d 4d ec	 lea	 ecx, DWORD PTR $T16[ebp]
  000a2	ff 15 00 00 00
	00		 call	 DWORD PTR __imp_??1?$CStringT@DV?$StrTraitMFC_DLL@DV?$ChTraitsCRT@D@ATL@@@@@ATL@@QAE@XZ
  000a8	8d 4d e8	 lea	 ecx, DWORD PTR $T15[ebp]
  000ab	c6 45 fc 05	 mov	 BYTE PTR __$EHRec$[ebp+8], 5
  000af	ff 15 00 00 00
	00		 call	 DWORD PTR __imp_??1?$CStringT@DV?$StrTraitMFC_DLL@DV?$ChTraitsCRT@D@ATL@@@@@ATL@@QAE@XZ

; 719  : 	int nData = atoi(GetData(strData, "<AutoPirce>", "<\\AutoPirce>\r\n"));

  000b5	68 00 00 00 00	 push	 OFFSET ??_C@_0P@OFBFCELN@?$DM?2AutoPirce?$DO?$AN?6@
  000ba	8d 4d dc	 lea	 ecx, DWORD PTR $T8[ebp]
  000bd	ff 15 00 00 00
	00		 call	 DWORD PTR __imp_??0?$CStringT@DV?$StrTraitMFC_DLL@DV?$ChTraitsCRT@D@ATL@@@@@ATL@@QAE@PBD@Z
  000c3	68 00 00 00 00	 push	 OFFSET ??_C@_0M@JPFNKEPJ@?$DMAutoPirce?$DO@
  000c8	8d 4d e0	 lea	 ecx, DWORD PTR $T11[ebp]
  000cb	c6 45 fc 06	 mov	 BYTE PTR __$EHRec$[ebp+8], 6
  000cf	ff 15 00 00 00
	00		 call	 DWORD PTR __imp_??0?$CStringT@DV?$StrTraitMFC_DLL@DV?$ChTraitsCRT@D@ATL@@@@@ATL@@QAE@PBD@Z

; 384  : 	CString strNewData = strOrgData;

  000d5	8d 45 f0	 lea	 eax, DWORD PTR _strEnvironment$[ebp]

; 719  : 	int nData = atoi(GetData(strData, "<AutoPirce>", "<\\AutoPirce>\r\n"));

  000d8	c6 45 fc 07	 mov	 BYTE PTR __$EHRec$[ebp+8], 7

; 384  : 	CString strNewData = strOrgData;

  000dc	50		 push	 eax
  000dd	8d 4d 0c	 lea	 ecx, DWORD PTR _strNewData$19[ebp]
  000e0	ff 15 00 00 00
	00		 call	 DWORD PTR __imp_??0?$CStringT@DV?$StrTraitMFC_DLL@DV?$ChTraitsCRT@D@ATL@@@@@ATL@@QAE@ABV01@@Z

; 385  : 	CDataConversion::GetStringData(strNewData, strTrimStart);

  000e6	6a 01		 push	 1
  000e8	8d 45 e0	 lea	 eax, DWORD PTR $T11[ebp]
  000eb	c6 45 fc 08	 mov	 BYTE PTR __$EHRec$[ebp+8], 8
  000ef	50		 push	 eax
  000f0	8d 45 0c	 lea	 eax, DWORD PTR _strNewData$19[ebp]
  000f3	50		 push	 eax
  000f4	8d 45 d8	 lea	 eax, DWORD PTR $T4[ebp]
  000f7	50		 push	 eax
  000f8	e8 00 00 00 00	 call	 ?GetStringData@CDataConversion@@SA?AV?$CStringT@DV?$StrTraitMFC_DLL@DV?$ChTraitsCRT@D@ATL@@@@@ATL@@AAV23@ABV23@_N@Z ; CDataConversion::GetStringData
  000fd	83 c4 10	 add	 esp, 16			; 00000010H
  00100	8d 4d d8	 lea	 ecx, DWORD PTR $T4[ebp]
  00103	ff 15 00 00 00
	00		 call	 DWORD PTR __imp_??1?$CStringT@DV?$StrTraitMFC_DLL@DV?$ChTraitsCRT@D@ATL@@@@@ATL@@QAE@XZ

; 386  : 	return CDataConversion::GetStringData(strNewData, strTrimEnd);

  00109	6a 01		 push	 1
  0010b	8d 45 dc	 lea	 eax, DWORD PTR $T8[ebp]
  0010e	50		 push	 eax
  0010f	8d 45 0c	 lea	 eax, DWORD PTR _strNewData$19[ebp]
  00112	50		 push	 eax
  00113	8d 45 e4	 lea	 eax, DWORD PTR $T14[ebp]
  00116	50		 push	 eax
  00117	e8 00 00 00 00	 call	 ?GetStringData@CDataConversion@@SA?AV?$CStringT@DV?$StrTraitMFC_DLL@DV?$ChTraitsCRT@D@ATL@@@@@ATL@@AAV23@ABV23@_N@Z ; CDataConversion::GetStringData
  0011c	83 c4 10	 add	 esp, 16			; 00000010H
  0011f	8d 4d 0c	 lea	 ecx, DWORD PTR _strNewData$19[ebp]
  00122	ff 15 00 00 00
	00		 call	 DWORD PTR __imp_??1?$CStringT@DV?$StrTraitMFC_DLL@DV?$ChTraitsCRT@D@ATL@@@@@ATL@@QAE@XZ

; 719  : 	int nData = atoi(GetData(strData, "<AutoPirce>", "<\\AutoPirce>\r\n"));

  00128	ff 75 e4	 push	 DWORD PTR $T14[ebp]
  0012b	8b 3d 00 00 00
	00		 mov	 edi, DWORD PTR __imp__atoi
  00131	ff d7		 call	 edi
  00133	83 c4 04	 add	 esp, 4
  00136	8d 4d e4	 lea	 ecx, DWORD PTR $T14[ebp]
  00139	8b f0		 mov	 esi, eax
  0013b	ff 15 00 00 00
	00		 call	 DWORD PTR __imp_??1?$CStringT@DV?$StrTraitMFC_DLL@DV?$ChTraitsCRT@D@ATL@@@@@ATL@@QAE@XZ
  00141	8d 4d e0	 lea	 ecx, DWORD PTR $T11[ebp]
  00144	ff 15 00 00 00
	00		 call	 DWORD PTR __imp_??1?$CStringT@DV?$StrTraitMFC_DLL@DV?$ChTraitsCRT@D@ATL@@@@@ATL@@QAE@XZ
  0014a	8d 4d dc	 lea	 ecx, DWORD PTR $T8[ebp]
  0014d	c6 45 fc 05	 mov	 BYTE PTR __$EHRec$[ebp+8], 5
  00151	ff 15 00 00 00
	00		 call	 DWORD PTR __imp_??1?$CStringT@DV?$StrTraitMFC_DLL@DV?$ChTraitsCRT@D@ATL@@@@@ATL@@QAE@XZ

; 720  : 	return (nData == 0 ? false: true);

  00157	85 f6		 test	 esi, esi

; 726  : 	int nData = atoi(GetData(strData, "<EquiDiv>", "<\\EquiDiv>\r\n"));

  00159	8d 4d e4	 lea	 ecx, DWORD PTR $T13[ebp]
  0015c	68 00 00 00 00	 push	 OFFSET ??_C@_0N@JENDHCPJ@?$DM?2EquiDiv?$DO?$AN?6@

; 720  : 	return (nData == 0 ? false: true);

  00161	0f 95 45 cc	 setne	 BYTE PTR _bIsAutoPrice$[ebp]

; 726  : 	int nData = atoi(GetData(strData, "<EquiDiv>", "<\\EquiDiv>\r\n"));

  00165	ff 15 00 00 00
	00		 call	 DWORD PTR __imp_??0?$CStringT@DV?$StrTraitMFC_DLL@DV?$ChTraitsCRT@D@ATL@@@@@ATL@@QAE@PBD@Z
  0016b	68 00 00 00 00	 push	 OFFSET ??_C@_09PBAKMKPI@?$DMEquiDiv?$DO@
  00170	8d 4d e0	 lea	 ecx, DWORD PTR $T10[ebp]
  00173	c6 45 fc 09	 mov	 BYTE PTR __$EHRec$[ebp+8], 9
  00177	ff 15 00 00 00
	00		 call	 DWORD PTR __imp_??0?$CStringT@DV?$StrTraitMFC_DLL@DV?$ChTraitsCRT@D@ATL@@@@@ATL@@QAE@PBD@Z

; 384  : 	CString strNewData = strOrgData;

  0017d	8d 45 f0	 lea	 eax, DWORD PTR _strEnvironment$[ebp]

; 726  : 	int nData = atoi(GetData(strData, "<EquiDiv>", "<\\EquiDiv>\r\n"));

  00180	c6 45 fc 0a	 mov	 BYTE PTR __$EHRec$[ebp+8], 10 ; 0000000aH

; 384  : 	CString strNewData = strOrgData;

  00184	50		 push	 eax
  00185	8d 4d 0c	 lea	 ecx, DWORD PTR _strNewData$18[ebp]
  00188	ff 15 00 00 00
	00		 call	 DWORD PTR __imp_??0?$CStringT@DV?$StrTraitMFC_DLL@DV?$ChTraitsCRT@D@ATL@@@@@ATL@@QAE@ABV01@@Z

; 385  : 	CDataConversion::GetStringData(strNewData, strTrimStart);

  0018e	6a 01		 push	 1
  00190	8d 45 e0	 lea	 eax, DWORD PTR $T10[ebp]
  00193	c6 45 fc 0b	 mov	 BYTE PTR __$EHRec$[ebp+8], 11 ; 0000000bH
  00197	50		 push	 eax
  00198	8d 45 0c	 lea	 eax, DWORD PTR _strNewData$18[ebp]
  0019b	50		 push	 eax
  0019c	8d 45 d8	 lea	 eax, DWORD PTR $T3[ebp]
  0019f	50		 push	 eax
  001a0	e8 00 00 00 00	 call	 ?GetStringData@CDataConversion@@SA?AV?$CStringT@DV?$StrTraitMFC_DLL@DV?$ChTraitsCRT@D@ATL@@@@@ATL@@AAV23@ABV23@_N@Z ; CDataConversion::GetStringData
  001a5	83 c4 10	 add	 esp, 16			; 00000010H
  001a8	8d 4d d8	 lea	 ecx, DWORD PTR $T3[ebp]
  001ab	ff 15 00 00 00
	00		 call	 DWORD PTR __imp_??1?$CStringT@DV?$StrTraitMFC_DLL@DV?$ChTraitsCRT@D@ATL@@@@@ATL@@QAE@XZ

; 386  : 	return CDataConversion::GetStringData(strNewData, strTrimEnd);

  001b1	6a 01		 push	 1
  001b3	8d 45 e4	 lea	 eax, DWORD PTR $T13[ebp]
  001b6	50		 push	 eax
  001b7	8d 45 0c	 lea	 eax, DWORD PTR _strNewData$18[ebp]
  001ba	50		 push	 eax
  001bb	8d 45 dc	 lea	 eax, DWORD PTR $T6[ebp]
  001be	50		 push	 eax
  001bf	e8 00 00 00 00	 call	 ?GetStringData@CDataConversion@@SA?AV?$CStringT@DV?$StrTraitMFC_DLL@DV?$ChTraitsCRT@D@ATL@@@@@ATL@@AAV23@ABV23@_N@Z ; CDataConversion::GetStringData
  001c4	83 c4 10	 add	 esp, 16			; 00000010H
  001c7	8d 4d 0c	 lea	 ecx, DWORD PTR _strNewData$18[ebp]
  001ca	ff 15 00 00 00
	00		 call	 DWORD PTR __imp_??1?$CStringT@DV?$StrTraitMFC_DLL@DV?$ChTraitsCRT@D@ATL@@@@@ATL@@QAE@XZ

; 726  : 	int nData = atoi(GetData(strData, "<EquiDiv>", "<\\EquiDiv>\r\n"));

  001d0	ff 75 dc	 push	 DWORD PTR $T6[ebp]
  001d3	ff d7		 call	 edi
  001d5	83 c4 04	 add	 esp, 4
  001d8	8d 4d dc	 lea	 ecx, DWORD PTR $T6[ebp]
  001db	8b f0		 mov	 esi, eax
  001dd	ff 15 00 00 00
	00		 call	 DWORD PTR __imp_??1?$CStringT@DV?$StrTraitMFC_DLL@DV?$ChTraitsCRT@D@ATL@@@@@ATL@@QAE@XZ
  001e3	8d 4d e0	 lea	 ecx, DWORD PTR $T10[ebp]
  001e6	ff 15 00 00 00
	00		 call	 DWORD PTR __imp_??1?$CStringT@DV?$StrTraitMFC_DLL@DV?$ChTraitsCRT@D@ATL@@@@@ATL@@QAE@XZ
  001ec	8d 4d e4	 lea	 ecx, DWORD PTR $T13[ebp]
  001ef	c6 45 fc 05	 mov	 BYTE PTR __$EHRec$[ebp+8], 5
  001f3	ff 15 00 00 00
	00		 call	 DWORD PTR __imp_??1?$CStringT@DV?$StrTraitMFC_DLL@DV?$ChTraitsCRT@D@ATL@@@@@ATL@@QAE@XZ

; 733  : 	int nData = atoi(GetData(strData, "<PriceRangeDiv>", "<\\PriceRangeDiv>\r\n"));

  001f9	68 00 00 00 00	 push	 OFFSET ??_C@_0BD@JIABNAJN@?$DM?2PriceRangeDiv?$DO?$AN?6@
  001fe	8d 4d e4	 lea	 ecx, DWORD PTR $T12[ebp]

; 707  : 	bool bIsAutoPrice = GetAutoPrice(strEnvironment);
; 708  : 	int nEquiDiv = GetEquiDivEnvironment(strEnvironment);

  00201	89 75 d0	 mov	 DWORD PTR _nEquiDiv$[ebp], esi

; 733  : 	int nData = atoi(GetData(strData, "<PriceRangeDiv>", "<\\PriceRangeDiv>\r\n"));

  00204	ff 15 00 00 00
	00		 call	 DWORD PTR __imp_??0?$CStringT@DV?$StrTraitMFC_DLL@DV?$ChTraitsCRT@D@ATL@@@@@ATL@@QAE@PBD@Z
  0020a	68 00 00 00 00	 push	 OFFSET ??_C@_0BA@OIJLDBGJ@?$DMPriceRangeDiv?$DO@
  0020f	8d 4d e0	 lea	 ecx, DWORD PTR $T9[ebp]
  00212	c6 45 fc 0c	 mov	 BYTE PTR __$EHRec$[ebp+8], 12 ; 0000000cH
  00216	ff 15 00 00 00
	00		 call	 DWORD PTR __imp_??0?$CStringT@DV?$StrTraitMFC_DLL@DV?$ChTraitsCRT@D@ATL@@@@@ATL@@QAE@PBD@Z

; 384  : 	CString strNewData = strOrgData;

  0021c	8d 45 f0	 lea	 eax, DWORD PTR _strEnvironment$[ebp]

; 733  : 	int nData = atoi(GetData(strData, "<PriceRangeDiv>", "<\\PriceRangeDiv>\r\n"));

  0021f	c6 45 fc 0d	 mov	 BYTE PTR __$EHRec$[ebp+8], 13 ; 0000000dH

; 384  : 	CString strNewData = strOrgData;

  00223	50		 push	 eax
  00224	8d 4d 0c	 lea	 ecx, DWORD PTR _strNewData$17[ebp]
  00227	ff 15 00 00 00
	00		 call	 DWORD PTR __imp_??0?$CStringT@DV?$StrTraitMFC_DLL@DV?$ChTraitsCRT@D@ATL@@@@@ATL@@QAE@ABV01@@Z

; 385  : 	CDataConversion::GetStringData(strNewData, strTrimStart);

  0022d	6a 01		 push	 1
  0022f	8d 45 e0	 lea	 eax, DWORD PTR $T9[ebp]
  00232	c6 45 fc 0e	 mov	 BYTE PTR __$EHRec$[ebp+8], 14 ; 0000000eH
  00236	50		 push	 eax
  00237	8d 45 0c	 lea	 eax, DWORD PTR _strNewData$17[ebp]
  0023a	50		 push	 eax
  0023b	8d 45 d8	 lea	 eax, DWORD PTR $T2[ebp]
  0023e	50		 push	 eax
  0023f	e8 00 00 00 00	 call	 ?GetStringData@CDataConversion@@SA?AV?$CStringT@DV?$StrTraitMFC_DLL@DV?$ChTraitsCRT@D@ATL@@@@@ATL@@AAV23@ABV23@_N@Z ; CDataConversion::GetStringData
  00244	83 c4 10	 add	 esp, 16			; 00000010H
  00247	8d 4d d8	 lea	 ecx, DWORD PTR $T2[ebp]
  0024a	ff 15 00 00 00
	00		 call	 DWORD PTR __imp_??1?$CStringT@DV?$StrTraitMFC_DLL@DV?$ChTraitsCRT@D@ATL@@@@@ATL@@QAE@XZ

; 386  : 	return CDataConversion::GetStringData(strNewData, strTrimEnd);

  00250	6a 01		 push	 1
  00252	8d 45 e4	 lea	 eax, DWORD PTR $T12[ebp]
  00255	50		 push	 eax
  00256	8d 45 0c	 lea	 eax, DWORD PTR _strNewData$17[ebp]
  00259	50		 push	 eax
  0025a	8d 45 dc	 lea	 eax, DWORD PTR $T5[ebp]
  0025d	50		 push	 eax
  0025e	e8 00 00 00 00	 call	 ?GetStringData@CDataConversion@@SA?AV?$CStringT@DV?$StrTraitMFC_DLL@DV?$ChTraitsCRT@D@ATL@@@@@ATL@@AAV23@ABV23@_N@Z ; CDataConversion::GetStringData
  00263	83 c4 10	 add	 esp, 16			; 00000010H
  00266	8d 4d 0c	 lea	 ecx, DWORD PTR _strNewData$17[ebp]
  00269	ff 15 00 00 00
	00		 call	 DWORD PTR __imp_??1?$CStringT@DV?$StrTraitMFC_DLL@DV?$ChTraitsCRT@D@ATL@@@@@ATL@@QAE@XZ

; 733  : 	int nData = atoi(GetData(strData, "<PriceRangeDiv>", "<\\PriceRangeDiv>\r\n"));

  0026f	ff 75 dc	 push	 DWORD PTR $T5[ebp]
  00272	ff d7		 call	 edi
  00274	83 c4 04	 add	 esp, 4
  00277	8d 4d dc	 lea	 ecx, DWORD PTR $T5[ebp]
  0027a	8b f0		 mov	 esi, eax
  0027c	ff 15 00 00 00
	00		 call	 DWORD PTR __imp_??1?$CStringT@DV?$StrTraitMFC_DLL@DV?$ChTraitsCRT@D@ATL@@@@@ATL@@QAE@XZ
  00282	8d 4d e0	 lea	 ecx, DWORD PTR $T9[ebp]
  00285	ff 15 00 00 00
	00		 call	 DWORD PTR __imp_??1?$CStringT@DV?$StrTraitMFC_DLL@DV?$ChTraitsCRT@D@ATL@@@@@ATL@@QAE@XZ
  0028b	8d 4d e4	 lea	 ecx, DWORD PTR $T12[ebp]
  0028e	c6 45 fc 05	 mov	 BYTE PTR __$EHRec$[ebp+8], 5
  00292	ff 15 00 00 00
	00		 call	 DWORD PTR __imp_??1?$CStringT@DV?$StrTraitMFC_DLL@DV?$ChTraitsCRT@D@ATL@@@@@ATL@@QAE@XZ

; 709  : 	int nPriceRangeDiv = GetPriceRangeDivEnvironment(strEnvironment);	// (2008/8/15 - Seung-Won, Bae) Add option for using price range.
; 710  : 	CLineExtEnvironment lineExt = GetLineExtEnvironment(strEnvironment);

  00298	8d 45 f0	 lea	 eax, DWORD PTR _strEnvironment$[ebp]
  0029b	89 75 d4	 mov	 DWORD PTR _nPriceRangeDiv$[ebp], esi
  0029e	50		 push	 eax
  0029f	8d 45 c4	 lea	 eax, DWORD PTR _lineExt$[ebp]
  002a2	8b cb		 mov	 ecx, ebx
  002a4	50		 push	 eax
  002a5	e8 00 00 00 00	 call	 ?GetLineExtEnvironment@CElementTreeBuilder@@ABE?AVCLineExtEnvironment@@ABV?$CStringT@DV?$StrTraitMFC_DLL@DV?$ChTraitsCRT@D@ATL@@@@@ATL@@@Z ; CElementTreeBuilder::GetLineExtEnvironment

; 711  : 	CPenEnvironment pen = GetPenEnvironment(strEnvironment);	

  002aa	8d 45 f0	 lea	 eax, DWORD PTR _strEnvironment$[ebp]
  002ad	8b cb		 mov	 ecx, ebx
  002af	50		 push	 eax
  002b0	8d 45 b8	 lea	 eax, DWORD PTR _pen$[ebp]
  002b3	50		 push	 eax
  002b4	e8 00 00 00 00	 call	 ?GetPenEnvironment@CElementTreeBuilder@@ABE?AVCPenEnvironment@@ABV?$CStringT@DV?$StrTraitMFC_DLL@DV?$ChTraitsCRT@D@ATL@@@@@ATL@@@Z ; CElementTreeBuilder::GetPenEnvironment

; 712  : 	CDataTypeEnvironment dataType = GetDataTypeEnvironment(strEnvironment);

  002b9	8d 45 f0	 lea	 eax, DWORD PTR _strEnvironment$[ebp]
  002bc	8b cb		 mov	 ecx, ebx
  002be	50		 push	 eax
  002bf	8d 45 90	 lea	 eax, DWORD PTR _dataType$[ebp]
  002c2	50		 push	 eax
  002c3	e8 00 00 00 00	 call	 ?GetDataTypeEnvironment@CElementTreeBuilder@@ABE?AVCDataTypeEnvironment@@ABV?$CStringT@DV?$StrTraitMFC_DLL@DV?$ChTraitsCRT@D@ATL@@@@@ATL@@@Z ; CElementTreeBuilder::GetDataTypeEnvironment

; 713  : 	return CElementCommonEnvironment(bIsAutoPrice,nEquiDiv,nPriceRangeDiv,pen, dataType,lineExt);

  002c8	8b 4d 08	 mov	 ecx, DWORD PTR ___$ReturnUdt$[ebp]
  002cb	8d 45 c4	 lea	 eax, DWORD PTR _lineExt$[ebp]
  002ce	50		 push	 eax
  002cf	8d 45 90	 lea	 eax, DWORD PTR _dataType$[ebp]
  002d2	c6 45 fc 0f	 mov	 BYTE PTR __$EHRec$[ebp+8], 15 ; 0000000fH
  002d6	50		 push	 eax
  002d7	8d 45 b8	 lea	 eax, DWORD PTR _pen$[ebp]
  002da	50		 push	 eax
  002db	8d 45 d4	 lea	 eax, DWORD PTR _nPriceRangeDiv$[ebp]
  002de	50		 push	 eax
  002df	8d 45 d0	 lea	 eax, DWORD PTR _nEquiDiv$[ebp]
  002e2	50		 push	 eax
  002e3	ff 75 cc	 push	 DWORD PTR _bIsAutoPrice$[ebp]
  002e6	e8 00 00 00 00	 call	 ??0CElementCommonEnvironment@@QAE@_NABH1ABVCPenEnvironment@@ABVCDataTypeEnvironment@@ABVCLineExtEnvironment@@@Z ; CElementCommonEnvironment::CElementCommonEnvironment
  002eb	8d 4d a8	 lea	 ecx, DWORD PTR _dataType$[ebp+24]
  002ee	ff 15 00 00 00
	00		 call	 DWORD PTR __imp_??1?$CStringT@DV?$StrTraitMFC_DLL@DV?$ChTraitsCRT@D@ATL@@@@@ATL@@QAE@XZ
  002f4	8d 4d a4	 lea	 ecx, DWORD PTR _dataType$[ebp+20]
  002f7	ff 15 00 00 00
	00		 call	 DWORD PTR __imp_??1?$CStringT@DV?$StrTraitMFC_DLL@DV?$ChTraitsCRT@D@ATL@@@@@ATL@@QAE@XZ
  002fd	8d 4d a0	 lea	 ecx, DWORD PTR _dataType$[ebp+16]
  00300	ff 15 00 00 00
	00		 call	 DWORD PTR __imp_??1?$CStringT@DV?$StrTraitMFC_DLL@DV?$ChTraitsCRT@D@ATL@@@@@ATL@@QAE@XZ
  00306	8d 4d f0	 lea	 ecx, DWORD PTR _strEnvironment$[ebp]
  00309	ff 15 00 00 00
	00		 call	 DWORD PTR __imp_??1?$CStringT@DV?$StrTraitMFC_DLL@DV?$ChTraitsCRT@D@ATL@@@@@ATL@@QAE@XZ
  0030f	8b 45 08	 mov	 eax, DWORD PTR ___$ReturnUdt$[ebp]

; 714  : }

  00312	8b 4d f4	 mov	 ecx, DWORD PTR __$EHRec$[ebp]
  00315	64 89 0d 00 00
	00 00		 mov	 DWORD PTR fs:0, ecx
  0031c	59		 pop	 ecx
  0031d	5f		 pop	 edi
  0031e	5e		 pop	 esi
  0031f	5b		 pop	 ebx
  00320	8b e5		 mov	 esp, ebp
  00322	5d		 pop	 ebp
  00323	c2 08 00	 ret	 8
_TEXT	ENDS
;	COMDAT text$x
text$x	SEGMENT
__unwindfunclet$?GetEnvironment@CElementTreeBuilder@@ABE?AVCElementCommonEnvironment@@ABV?$CStringT@DV?$StrTraitMFC_DLL@DV?$ChTraitsCRT@D@ATL@@@@@ATL@@@Z$0:
  00000	8d 4d e8	 lea	 ecx, DWORD PTR $T15[ebp]
  00003	ff 25 00 00 00
	00		 jmp	 DWORD PTR __imp_??1?$CStringT@DV?$StrTraitMFC_DLL@DV?$ChTraitsCRT@D@ATL@@@@@ATL@@QAE@XZ
__unwindfunclet$?GetEnvironment@CElementTreeBuilder@@ABE?AVCElementCommonEnvironment@@ABV?$CStringT@DV?$StrTraitMFC_DLL@DV?$ChTraitsCRT@D@ATL@@@@@ATL@@@Z$1:
  00009	8d 4d ec	 lea	 ecx, DWORD PTR $T16[ebp]
  0000c	ff 25 00 00 00
	00		 jmp	 DWORD PTR __imp_??1?$CStringT@DV?$StrTraitMFC_DLL@DV?$ChTraitsCRT@D@ATL@@@@@ATL@@QAE@XZ
__unwindfunclet$?GetEnvironment@CElementTreeBuilder@@ABE?AVCElementCommonEnvironment@@ABV?$CStringT@DV?$StrTraitMFC_DLL@DV?$ChTraitsCRT@D@ATL@@@@@ATL@@@Z$5:
  00012	8d 4d 0c	 lea	 ecx, DWORD PTR _strNewData$20[ebp]
  00015	ff 25 00 00 00
	00		 jmp	 DWORD PTR __imp_??1?$CStringT@DV?$StrTraitMFC_DLL@DV?$ChTraitsCRT@D@ATL@@@@@ATL@@QAE@XZ
__unwindfunclet$?GetEnvironment@CElementTreeBuilder@@ABE?AVCElementCommonEnvironment@@ABV?$CStringT@DV?$StrTraitMFC_DLL@DV?$ChTraitsCRT@D@ATL@@@@@ATL@@@Z$2:
  0001b	8d 4d f0	 lea	 ecx, DWORD PTR _strEnvironment$[ebp]
  0001e	ff 25 00 00 00
	00		 jmp	 DWORD PTR __imp_??1?$CStringT@DV?$StrTraitMFC_DLL@DV?$ChTraitsCRT@D@ATL@@@@@ATL@@QAE@XZ
__unwindfunclet$?GetEnvironment@CElementTreeBuilder@@ABE?AVCElementCommonEnvironment@@ABV?$CStringT@DV?$StrTraitMFC_DLL@DV?$ChTraitsCRT@D@ATL@@@@@ATL@@@Z$8:
  00024	8d 4d dc	 lea	 ecx, DWORD PTR $T8[ebp]
  00027	ff 25 00 00 00
	00		 jmp	 DWORD PTR __imp_??1?$CStringT@DV?$StrTraitMFC_DLL@DV?$ChTraitsCRT@D@ATL@@@@@ATL@@QAE@XZ
__unwindfunclet$?GetEnvironment@CElementTreeBuilder@@ABE?AVCElementCommonEnvironment@@ABV?$CStringT@DV?$StrTraitMFC_DLL@DV?$ChTraitsCRT@D@ATL@@@@@ATL@@@Z$9:
  0002d	8d 4d e0	 lea	 ecx, DWORD PTR $T11[ebp]
  00030	ff 25 00 00 00
	00		 jmp	 DWORD PTR __imp_??1?$CStringT@DV?$StrTraitMFC_DLL@DV?$ChTraitsCRT@D@ATL@@@@@ATL@@QAE@XZ
__unwindfunclet$?GetEnvironment@CElementTreeBuilder@@ABE?AVCElementCommonEnvironment@@ABV?$CStringT@DV?$StrTraitMFC_DLL@DV?$ChTraitsCRT@D@ATL@@@@@ATL@@@Z$11:
  00036	8d 4d 0c	 lea	 ecx, DWORD PTR _strNewData$19[ebp]
  00039	ff 25 00 00 00
	00		 jmp	 DWORD PTR __imp_??1?$CStringT@DV?$StrTraitMFC_DLL@DV?$ChTraitsCRT@D@ATL@@@@@ATL@@QAE@XZ
__unwindfunclet$?GetEnvironment@CElementTreeBuilder@@ABE?AVCElementCommonEnvironment@@ABV?$CStringT@DV?$StrTraitMFC_DLL@DV?$ChTraitsCRT@D@ATL@@@@@ATL@@@Z$14:
  0003f	8d 4d e4	 lea	 ecx, DWORD PTR $T13[ebp]
  00042	ff 25 00 00 00
	00		 jmp	 DWORD PTR __imp_??1?$CStringT@DV?$StrTraitMFC_DLL@DV?$ChTraitsCRT@D@ATL@@@@@ATL@@QAE@XZ
__unwindfunclet$?GetEnvironment@CElementTreeBuilder@@ABE?AVCElementCommonEnvironment@@ABV?$CStringT@DV?$StrTraitMFC_DLL@DV?$ChTraitsCRT@D@ATL@@@@@ATL@@@Z$15:
  00048	8d 4d e0	 lea	 ecx, DWORD PTR $T10[ebp]
  0004b	ff 25 00 00 00
	00		 jmp	 DWORD PTR __imp_??1?$CStringT@DV?$StrTraitMFC_DLL@DV?$ChTraitsCRT@D@ATL@@@@@ATL@@QAE@XZ
__unwindfunclet$?GetEnvironment@CElementTreeBuilder@@ABE?AVCElementCommonEnvironment@@ABV?$CStringT@DV?$StrTraitMFC_DLL@DV?$ChTraitsCRT@D@ATL@@@@@ATL@@@Z$17:
  00051	8d 4d 0c	 lea	 ecx, DWORD PTR _strNewData$18[ebp]
  00054	ff 25 00 00 00
	00		 jmp	 DWORD PTR __imp_??1?$CStringT@DV?$StrTraitMFC_DLL@DV?$ChTraitsCRT@D@ATL@@@@@ATL@@QAE@XZ
__unwindfunclet$?GetEnvironment@CElementTreeBuilder@@ABE?AVCElementCommonEnvironment@@ABV?$CStringT@DV?$StrTraitMFC_DLL@DV?$ChTraitsCRT@D@ATL@@@@@ATL@@@Z$20:
  0005a	8d 4d e4	 lea	 ecx, DWORD PTR $T12[ebp]
  0005d	ff 25 00 00 00
	00		 jmp	 DWORD PTR __imp_??1?$CStringT@DV?$StrTraitMFC_DLL@DV?$ChTraitsCRT@D@ATL@@@@@ATL@@QAE@XZ
__unwindfunclet$?GetEnvironment@CElementTreeBuilder@@ABE?AVCElementCommonEnvironment@@ABV?$CStringT@DV?$StrTraitMFC_DLL@DV?$ChTraitsCRT@D@ATL@@@@@ATL@@@Z$21:
  00063	8d 4d e0	 lea	 ecx, DWORD PTR $T9[ebp]
  00066	ff 25 00 00 00
	00		 jmp	 DWORD PTR __imp_??1?$CStringT@DV?$StrTraitMFC_DLL@DV?$ChTraitsCRT@D@ATL@@@@@ATL@@QAE@XZ
__unwindfunclet$?GetEnvironment@CElementTreeBuilder@@ABE?AVCElementCommonEnvironment@@ABV?$CStringT@DV?$StrTraitMFC_DLL@DV?$ChTraitsCRT@D@ATL@@@@@ATL@@@Z$23:
  0006c	8d 4d 0c	 lea	 ecx, DWORD PTR _strNewData$17[ebp]
  0006f	ff 25 00 00 00
	00		 jmp	 DWORD PTR __imp_??1?$CStringT@DV?$StrTraitMFC_DLL@DV?$ChTraitsCRT@D@ATL@@@@@ATL@@QAE@XZ
__unwindfunclet$?GetEnvironment@CElementTreeBuilder@@ABE?AVCElementCommonEnvironment@@ABV?$CStringT@DV?$StrTraitMFC_DLL@DV?$ChTraitsCRT@D@ATL@@@@@ATL@@@Z$3:
  00075	8d 4d 90	 lea	 ecx, DWORD PTR _dataType$[ebp]
  00078	e9 00 00 00 00	 jmp	 ??1CDataTypeEnvironment@@QAE@XZ
  0007d	cc		 int	 3
  0007e	cc		 int	 3
  0007f	cc		 int	 3
  00080	cc		 int	 3
  00081	cc		 int	 3
__ehhandler$?GetEnvironment@CElementTreeBuilder@@ABE?AVCElementCommonEnvironment@@ABV?$CStringT@DV?$StrTraitMFC_DLL@DV?$ChTraitsCRT@D@ATL@@@@@ATL@@@Z:
  00082	90		 npad	 1
  00083	90		 npad	 1
  00084	8b 54 24 08	 mov	 edx, DWORD PTR [esp+8]
  00088	8d 42 0c	 lea	 eax, DWORD PTR [edx+12]
  0008b	8b 4a 8c	 mov	 ecx, DWORD PTR [edx-116]
  0008e	33 c8		 xor	 ecx, eax
  00090	e8 00 00 00 00	 call	 @__security_check_cookie@4
  00095	b8 00 00 00 00	 mov	 eax, OFFSET __ehfuncinfo$?GetEnvironment@CElementTreeBuilder@@ABE?AVCElementCommonEnvironment@@ABV?$CStringT@DV?$StrTraitMFC_DLL@DV?$ChTraitsCRT@D@ATL@@@@@ATL@@@Z
  0009a	e9 00 00 00 00	 jmp	 ___CxxFrameHandler3
text$x	ENDS
?GetEnvironment@CElementTreeBuilder@@ABE?AVCElementCommonEnvironment@@ABV?$CStringT@DV?$StrTraitMFC_DLL@DV?$ChTraitsCRT@D@ATL@@@@@ATL@@@Z ENDP ; CElementTreeBuilder::GetEnvironment
; Function compile flags: /Ogtp
; File D:\git\src\IBK\IBK_DRFN\ProjSrc\SrcChartEx\ChartAddIn\ChartAnalysisToolAddIn\AnalysisTool\ElementTreeBuilder.cpp
; File C:\Program Files (x86)\Microsoft Visual Studio\2019\Community\VC\Tools\MSVC\14.29.30133\atlmfc\include\atlsimpstr.h
; File D:\git\src\IBK\IBK_DRFN\ProjSrc\SrcChartEx\ChartAddIn\ChartAnalysisToolAddIn\AnalysisTool\ElementTreeBuilder.cpp
;	COMDAT ?GetTextEnvironment@CElementTreeBuilder@@ABE?AVCTextEnvironment@@ABV?$CStringT@DV?$StrTraitMFC_DLL@DV?$ChTraitsCRT@D@ATL@@@@@ATL@@@Z
_TEXT	SEGMENT
$T2 = -28						; size = 4
$T3 = -24						; size = 4
$T4 = -20						; size = 4
_data$ = -16						; size = 4
__$EHRec$ = -12						; size = 12
___$ReturnUdt$ = 8					; size = 4
_strNewData$5 = 12					; size = 4
$T6 = 12						; size = 4
_strData$ = 12						; size = 4
?GetTextEnvironment@CElementTreeBuilder@@ABE?AVCTextEnvironment@@ABV?$CStringT@DV?$StrTraitMFC_DLL@DV?$ChTraitsCRT@D@ATL@@@@@ATL@@@Z PROC ; CElementTreeBuilder::GetTextEnvironment, COMDAT
; _this$ = ecx

; 695  : {

  00000	55		 push	 ebp
  00001	8b ec		 mov	 ebp, esp
  00003	6a ff		 push	 -1
  00005	68 00 00 00 00	 push	 __ehhandler$?GetTextEnvironment@CElementTreeBuilder@@ABE?AVCTextEnvironment@@ABV?$CStringT@DV?$StrTraitMFC_DLL@DV?$ChTraitsCRT@D@ATL@@@@@ATL@@@Z
  0000a	64 a1 00 00 00
	00		 mov	 eax, DWORD PTR fs:0
  00010	50		 push	 eax
  00011	83 ec 10	 sub	 esp, 16			; 00000010H
  00014	56		 push	 esi
  00015	a1 00 00 00 00	 mov	 eax, DWORD PTR ___security_cookie
  0001a	33 c5		 xor	 eax, ebp
  0001c	50		 push	 eax
  0001d	8d 45 f4	 lea	 eax, DWORD PTR __$EHRec$[ebp]
  00020	64 a3 00 00 00
	00		 mov	 DWORD PTR fs:0, eax
  00026	8b f1		 mov	 esi, ecx

; 696  : 	CString data = GetData(strData, "<TextEnvironment>\r\n", "<\\TextEnvironment>\r\n");

  00028	68 00 00 00 00	 push	 OFFSET ??_C@_0BF@CDOIDFHB@?$DM?2TextEnvironment?$DO?$AN?6@
  0002d	8d 4d e8	 lea	 ecx, DWORD PTR $T3[ebp]
  00030	ff 15 00 00 00
	00		 call	 DWORD PTR __imp_??0?$CStringT@DV?$StrTraitMFC_DLL@DV?$ChTraitsCRT@D@ATL@@@@@ATL@@QAE@PBD@Z
  00036	68 00 00 00 00	 push	 OFFSET ??_C@_0BE@KJBKKBJD@?$DMTextEnvironment?$DO?$AN?6@
  0003b	8d 4d ec	 lea	 ecx, DWORD PTR $T4[ebp]
  0003e	c7 45 fc 00 00
	00 00		 mov	 DWORD PTR __$EHRec$[ebp+8], 0
  00045	ff 15 00 00 00
	00		 call	 DWORD PTR __imp_??0?$CStringT@DV?$StrTraitMFC_DLL@DV?$ChTraitsCRT@D@ATL@@@@@ATL@@QAE@PBD@Z

; 384  : 	CString strNewData = strOrgData;

  0004b	ff 75 0c	 push	 DWORD PTR _strData$[ebp]
  0004e	8d 4d 0c	 lea	 ecx, DWORD PTR _strNewData$5[ebp]

; 696  : 	CString data = GetData(strData, "<TextEnvironment>\r\n", "<\\TextEnvironment>\r\n");

  00051	c6 45 fc 01	 mov	 BYTE PTR __$EHRec$[ebp+8], 1

; 384  : 	CString strNewData = strOrgData;

  00055	ff 15 00 00 00
	00		 call	 DWORD PTR __imp_??0?$CStringT@DV?$StrTraitMFC_DLL@DV?$ChTraitsCRT@D@ATL@@@@@ATL@@QAE@ABV01@@Z

; 385  : 	CDataConversion::GetStringData(strNewData, strTrimStart);

  0005b	6a 01		 push	 1
  0005d	8d 45 ec	 lea	 eax, DWORD PTR $T4[ebp]
  00060	c6 45 fc 02	 mov	 BYTE PTR __$EHRec$[ebp+8], 2
  00064	50		 push	 eax
  00065	8d 45 0c	 lea	 eax, DWORD PTR _strNewData$5[ebp]
  00068	50		 push	 eax
  00069	8d 45 e4	 lea	 eax, DWORD PTR $T2[ebp]
  0006c	50		 push	 eax
  0006d	e8 00 00 00 00	 call	 ?GetStringData@CDataConversion@@SA?AV?$CStringT@DV?$StrTraitMFC_DLL@DV?$ChTraitsCRT@D@ATL@@@@@ATL@@AAV23@ABV23@_N@Z ; CDataConversion::GetStringData
  00072	83 c4 10	 add	 esp, 16			; 00000010H
  00075	8d 4d e4	 lea	 ecx, DWORD PTR $T2[ebp]
  00078	ff 15 00 00 00
	00		 call	 DWORD PTR __imp_??1?$CStringT@DV?$StrTraitMFC_DLL@DV?$ChTraitsCRT@D@ATL@@@@@ATL@@QAE@XZ

; 386  : 	return CDataConversion::GetStringData(strNewData, strTrimEnd);

  0007e	6a 01		 push	 1
  00080	8d 45 e8	 lea	 eax, DWORD PTR $T3[ebp]
  00083	50		 push	 eax
  00084	8d 45 0c	 lea	 eax, DWORD PTR _strNewData$5[ebp]
  00087	50		 push	 eax
  00088	8d 45 f0	 lea	 eax, DWORD PTR _data$[ebp]
  0008b	50		 push	 eax
  0008c	e8 00 00 00 00	 call	 ?GetStringData@CDataConversion@@SA?AV?$CStringT@DV?$StrTraitMFC_DLL@DV?$ChTraitsCRT@D@ATL@@@@@ATL@@AAV23@ABV23@_N@Z ; CDataConversion::GetStringData
  00091	83 c4 10	 add	 esp, 16			; 00000010H
  00094	8d 4d 0c	 lea	 ecx, DWORD PTR _strNewData$5[ebp]
  00097	ff 15 00 00 00
	00		 call	 DWORD PTR __imp_??1?$CStringT@DV?$StrTraitMFC_DLL@DV?$ChTraitsCRT@D@ATL@@@@@ATL@@QAE@XZ

; 696  : 	CString data = GetData(strData, "<TextEnvironment>\r\n", "<\\TextEnvironment>\r\n");

  0009d	8d 4d ec	 lea	 ecx, DWORD PTR $T4[ebp]
  000a0	ff 15 00 00 00
	00		 call	 DWORD PTR __imp_??1?$CStringT@DV?$StrTraitMFC_DLL@DV?$ChTraitsCRT@D@ATL@@@@@ATL@@QAE@XZ
  000a6	8d 4d e8	 lea	 ecx, DWORD PTR $T3[ebp]
  000a9	c6 45 fc 05	 mov	 BYTE PTR __$EHRec$[ebp+8], 5
  000ad	ff 15 00 00 00
	00		 call	 DWORD PTR __imp_??1?$CStringT@DV?$StrTraitMFC_DLL@DV?$ChTraitsCRT@D@ATL@@@@@ATL@@QAE@XZ
; File C:\Program Files (x86)\Microsoft Visual Studio\2019\Community\VC\Tools\MSVC\14.29.30133\atlmfc\include\atlsimpstr.h

; 533  : 		return( GetLength() == 0 );

  000b3	8b 45 f0	 mov	 eax, DWORD PTR _data$[ebp]
  000b6	83 78 f4 00	 cmp	 DWORD PTR [eax-12], 0
; File D:\git\src\IBK\IBK_DRFN\ProjSrc\SrcChartEx\ChartAddIn\ChartAnalysisToolAddIn\AnalysisTool\ElementTreeBuilder.cpp

; 697  : 	if(data.IsEmpty())

  000ba	75 0a		 jne	 SHORT $LN2@GetTextEnv

; 698  : 		return CTextEnvironment();

  000bc	8b 4d 08	 mov	 ecx, DWORD PTR ___$ReturnUdt$[ebp]
  000bf	e8 00 00 00 00	 call	 ??0CTextEnvironment@@QAE@XZ ; CTextEnvironment::CTextEnvironment
  000c4	eb 1a		 jmp	 SHORT $LN20@GetTextEnv
$LN2@GetTextEnv:

; 699  : 
; 700  : 	return CTextEnvironment(GetColor(data));

  000c6	8d 45 f0	 lea	 eax, DWORD PTR _data$[ebp]
  000c9	8b ce		 mov	 ecx, esi
  000cb	50		 push	 eax
  000cc	e8 00 00 00 00	 call	 ?GetColor@CElementTreeBuilder@@ABEKABV?$CStringT@DV?$StrTraitMFC_DLL@DV?$ChTraitsCRT@D@ATL@@@@@ATL@@@Z ; CElementTreeBuilder::GetColor
  000d1	8b 4d 08	 mov	 ecx, DWORD PTR ___$ReturnUdt$[ebp]
  000d4	89 45 0c	 mov	 DWORD PTR $T6[ebp], eax
  000d7	8d 45 0c	 lea	 eax, DWORD PTR $T6[ebp]
  000da	50		 push	 eax
  000db	e8 00 00 00 00	 call	 ??0CTextEnvironment@@QAE@ABK@Z ; CTextEnvironment::CTextEnvironment
$LN20@GetTextEnv:

; 701  : }

  000e0	8d 4d f0	 lea	 ecx, DWORD PTR _data$[ebp]
  000e3	ff 15 00 00 00
	00		 call	 DWORD PTR __imp_??1?$CStringT@DV?$StrTraitMFC_DLL@DV?$ChTraitsCRT@D@ATL@@@@@ATL@@QAE@XZ
  000e9	8b 45 08	 mov	 eax, DWORD PTR ___$ReturnUdt$[ebp]
  000ec	8b 4d f4	 mov	 ecx, DWORD PTR __$EHRec$[ebp]
  000ef	64 89 0d 00 00
	00 00		 mov	 DWORD PTR fs:0, ecx
  000f6	59		 pop	 ecx
  000f7	5e		 pop	 esi
  000f8	8b e5		 mov	 esp, ebp
  000fa	5d		 pop	 ebp
  000fb	c2 08 00	 ret	 8
_TEXT	ENDS
;	COMDAT text$x
text$x	SEGMENT
__unwindfunclet$?GetTextEnvironment@CElementTreeBuilder@@ABE?AVCTextEnvironment@@ABV?$CStringT@DV?$StrTraitMFC_DLL@DV?$ChTraitsCRT@D@ATL@@@@@ATL@@@Z$0:
  00000	8d 4d e8	 lea	 ecx, DWORD PTR $T3[ebp]
  00003	ff 25 00 00 00
	00		 jmp	 DWORD PTR __imp_??1?$CStringT@DV?$StrTraitMFC_DLL@DV?$ChTraitsCRT@D@ATL@@@@@ATL@@QAE@XZ
__unwindfunclet$?GetTextEnvironment@CElementTreeBuilder@@ABE?AVCTextEnvironment@@ABV?$CStringT@DV?$StrTraitMFC_DLL@DV?$ChTraitsCRT@D@ATL@@@@@ATL@@@Z$1:
  00009	8d 4d ec	 lea	 ecx, DWORD PTR $T4[ebp]
  0000c	ff 25 00 00 00
	00		 jmp	 DWORD PTR __imp_??1?$CStringT@DV?$StrTraitMFC_DLL@DV?$ChTraitsCRT@D@ATL@@@@@ATL@@QAE@XZ
__unwindfunclet$?GetTextEnvironment@CElementTreeBuilder@@ABE?AVCTextEnvironment@@ABV?$CStringT@DV?$StrTraitMFC_DLL@DV?$ChTraitsCRT@D@ATL@@@@@ATL@@@Z$3:
  00012	8d 4d 0c	 lea	 ecx, DWORD PTR _strNewData$5[ebp]
  00015	ff 25 00 00 00
	00		 jmp	 DWORD PTR __imp_??1?$CStringT@DV?$StrTraitMFC_DLL@DV?$ChTraitsCRT@D@ATL@@@@@ATL@@QAE@XZ
__unwindfunclet$?GetTextEnvironment@CElementTreeBuilder@@ABE?AVCTextEnvironment@@ABV?$CStringT@DV?$StrTraitMFC_DLL@DV?$ChTraitsCRT@D@ATL@@@@@ATL@@@Z$2:
  0001b	8d 4d f0	 lea	 ecx, DWORD PTR _data$[ebp]
  0001e	ff 25 00 00 00
	00		 jmp	 DWORD PTR __imp_??1?$CStringT@DV?$StrTraitMFC_DLL@DV?$ChTraitsCRT@D@ATL@@@@@ATL@@QAE@XZ
  00024	cc		 int	 3
  00025	cc		 int	 3
  00026	cc		 int	 3
  00027	cc		 int	 3
  00028	cc		 int	 3
__ehhandler$?GetTextEnvironment@CElementTreeBuilder@@ABE?AVCTextEnvironment@@ABV?$CStringT@DV?$StrTraitMFC_DLL@DV?$ChTraitsCRT@D@ATL@@@@@ATL@@@Z:
  00029	90		 npad	 1
  0002a	90		 npad	 1
  0002b	8b 54 24 08	 mov	 edx, DWORD PTR [esp+8]
  0002f	8d 42 0c	 lea	 eax, DWORD PTR [edx+12]
  00032	8b 4a e8	 mov	 ecx, DWORD PTR [edx-24]
  00035	33 c8		 xor	 ecx, eax
  00037	e8 00 00 00 00	 call	 @__security_check_cookie@4
  0003c	b8 00 00 00 00	 mov	 eax, OFFSET __ehfuncinfo$?GetTextEnvironment@CElementTreeBuilder@@ABE?AVCTextEnvironment@@ABV?$CStringT@DV?$StrTraitMFC_DLL@DV?$ChTraitsCRT@D@ATL@@@@@ATL@@@Z
  00041	e9 00 00 00 00	 jmp	 ___CxxFrameHandler3
text$x	ENDS
?GetTextEnvironment@CElementTreeBuilder@@ABE?AVCTextEnvironment@@ABV?$CStringT@DV?$StrTraitMFC_DLL@DV?$ChTraitsCRT@D@ATL@@@@@ATL@@@Z ENDP ; CElementTreeBuilder::GetTextEnvironment
; Function compile flags: /Ogtp
; File D:\git\src\IBK\IBK_DRFN\ProjSrc\SrcChartEx\ChartAddIn\ChartAnalysisToolAddIn\AnalysisTool\ElementTreeBuilder.cpp
; File C:\Program Files (x86)\Microsoft Visual Studio\2019\Community\VC\Tools\MSVC\14.29.30133\atlmfc\include\atlsimpstr.h
; File D:\git\src\IBK\IBK_DRFN\ProjSrc\SrcChartEx\ChartAddIn\ChartAnalysisToolAddIn\AnalysisTool\ElementTreeBuilder.cpp
;	COMDAT ?GetTextHorzVertPosition@CElementTreeBuilder@@ABE_NABV?$CStringT@DV?$StrTraitMFC_DLL@DV?$ChTraitsCRT@D@ATL@@@@@ATL@@AAVCTextHorzVertPosition@@@Z
_TEXT	SEGMENT
$T2 = -36						; size = 4
$T3 = -36						; size = 4
$T4 = -36						; size = 4
$T5 = -36						; size = 4
$T6 = -32						; size = 4
$T7 = -32						; size = 4
$T8 = -32						; size = 4
$T9 = -32						; size = 4
$T10 = -32						; size = 4
$T11 = -28						; size = 4
$T12 = -28						; size = 4
$T13 = -28						; size = 4
$T14 = -28						; size = 4
$T15 = -24						; size = 4
$T16 = -20						; size = 4
_data$ = -16						; size = 4
__$EHRec$ = -12						; size = 12
_strNewData$17 = 8					; size = 4
_strNewData$18 = 8					; size = 4
_strNewData$19 = 8					; size = 4
_strNewData$20 = 8					; size = 4
_strNewData$21 = 8					; size = 4
$T22 = 8						; size = 4
_strData$ = 8						; size = 4
$T23 = 12						; size = 4
$T24 = 12						; size = 4
$T25 = 12						; size = 4
$T26 = 12						; size = 4
_position$ = 12						; size = 4
?GetTextHorzVertPosition@CElementTreeBuilder@@ABE_NABV?$CStringT@DV?$StrTraitMFC_DLL@DV?$ChTraitsCRT@D@ATL@@@@@ATL@@AAVCTextHorzVertPosition@@@Z PROC ; CElementTreeBuilder::GetTextHorzVertPosition, COMDAT
; _this$ = ecx

; 681  : {

  00000	55		 push	 ebp
  00001	8b ec		 mov	 ebp, esp
  00003	6a ff		 push	 -1
  00005	68 00 00 00 00	 push	 __ehhandler$?GetTextHorzVertPosition@CElementTreeBuilder@@ABE_NABV?$CStringT@DV?$StrTraitMFC_DLL@DV?$ChTraitsCRT@D@ATL@@@@@ATL@@AAVCTextHorzVertPosition@@@Z
  0000a	64 a1 00 00 00
	00		 mov	 eax, DWORD PTR fs:0
  00010	50		 push	 eax
  00011	83 ec 18	 sub	 esp, 24			; 00000018H
  00014	53		 push	 ebx
  00015	56		 push	 esi
  00016	57		 push	 edi
  00017	a1 00 00 00 00	 mov	 eax, DWORD PTR ___security_cookie
  0001c	33 c5		 xor	 eax, ebp
  0001e	50		 push	 eax
  0001f	8d 45 f4	 lea	 eax, DWORD PTR __$EHRec$[ebp]
  00022	64 a3 00 00 00
	00		 mov	 DWORD PTR fs:0, eax
  00028	8b f1		 mov	 esi, ecx

; 682  : 	CString data = GetData(strData, "<HorzVert>\r\n", "<\\HorzVert>\r\n");

  0002a	68 00 00 00 00	 push	 OFFSET ??_C@_0O@LMJJOFLI@?$DM?2HorzVert?$DO?$AN?6@
  0002f	8d 4d e8	 lea	 ecx, DWORD PTR $T15[ebp]
  00032	ff 15 00 00 00
	00		 call	 DWORD PTR __imp_??0?$CStringT@DV?$StrTraitMFC_DLL@DV?$ChTraitsCRT@D@ATL@@@@@ATL@@QAE@PBD@Z
  00038	68 00 00 00 00	 push	 OFFSET ??_C@_0N@ONIGNFDK@?$DMHorzVert?$DO?$AN?6@
  0003d	8d 4d ec	 lea	 ecx, DWORD PTR $T16[ebp]
  00040	c7 45 fc 00 00
	00 00		 mov	 DWORD PTR __$EHRec$[ebp+8], 0
  00047	ff 15 00 00 00
	00		 call	 DWORD PTR __imp_??0?$CStringT@DV?$StrTraitMFC_DLL@DV?$ChTraitsCRT@D@ATL@@@@@ATL@@QAE@PBD@Z

; 384  : 	CString strNewData = strOrgData;

  0004d	8b 7d 08	 mov	 edi, DWORD PTR _strData$[ebp]
  00050	8d 4d 08	 lea	 ecx, DWORD PTR _strNewData$21[ebp]
  00053	57		 push	 edi

; 682  : 	CString data = GetData(strData, "<HorzVert>\r\n", "<\\HorzVert>\r\n");

  00054	c6 45 fc 01	 mov	 BYTE PTR __$EHRec$[ebp+8], 1

; 384  : 	CString strNewData = strOrgData;

  00058	ff 15 00 00 00
	00		 call	 DWORD PTR __imp_??0?$CStringT@DV?$StrTraitMFC_DLL@DV?$ChTraitsCRT@D@ATL@@@@@ATL@@QAE@ABV01@@Z

; 385  : 	CDataConversion::GetStringData(strNewData, strTrimStart);

  0005e	6a 01		 push	 1
  00060	8d 45 ec	 lea	 eax, DWORD PTR $T16[ebp]
  00063	c6 45 fc 02	 mov	 BYTE PTR __$EHRec$[ebp+8], 2
  00067	50		 push	 eax
  00068	8d 45 08	 lea	 eax, DWORD PTR _strNewData$21[ebp]
  0006b	50		 push	 eax
  0006c	8d 45 e0	 lea	 eax, DWORD PTR $T6[ebp]
  0006f	50		 push	 eax
  00070	e8 00 00 00 00	 call	 ?GetStringData@CDataConversion@@SA?AV?$CStringT@DV?$StrTraitMFC_DLL@DV?$ChTraitsCRT@D@ATL@@@@@ATL@@AAV23@ABV23@_N@Z ; CDataConversion::GetStringData
  00075	83 c4 10	 add	 esp, 16			; 00000010H
  00078	8d 4d e0	 lea	 ecx, DWORD PTR $T6[ebp]
  0007b	ff 15 00 00 00
	00		 call	 DWORD PTR __imp_??1?$CStringT@DV?$StrTraitMFC_DLL@DV?$ChTraitsCRT@D@ATL@@@@@ATL@@QAE@XZ

; 386  : 	return CDataConversion::GetStringData(strNewData, strTrimEnd);

  00081	6a 01		 push	 1
  00083	8d 45 e8	 lea	 eax, DWORD PTR $T15[ebp]
  00086	50		 push	 eax
  00087	8d 45 08	 lea	 eax, DWORD PTR _strNewData$21[ebp]
  0008a	50		 push	 eax
  0008b	8d 45 f0	 lea	 eax, DWORD PTR _data$[ebp]
  0008e	50		 push	 eax
  0008f	e8 00 00 00 00	 call	 ?GetStringData@CDataConversion@@SA?AV?$CStringT@DV?$StrTraitMFC_DLL@DV?$ChTraitsCRT@D@ATL@@@@@ATL@@AAV23@ABV23@_N@Z ; CDataConversion::GetStringData
  00094	83 c4 10	 add	 esp, 16			; 00000010H
  00097	8d 4d 08	 lea	 ecx, DWORD PTR _strNewData$21[ebp]
  0009a	ff 15 00 00 00
	00		 call	 DWORD PTR __imp_??1?$CStringT@DV?$StrTraitMFC_DLL@DV?$ChTraitsCRT@D@ATL@@@@@ATL@@QAE@XZ

; 682  : 	CString data = GetData(strData, "<HorzVert>\r\n", "<\\HorzVert>\r\n");

  000a0	8d 4d ec	 lea	 ecx, DWORD PTR $T16[ebp]
  000a3	ff 15 00 00 00
	00		 call	 DWORD PTR __imp_??1?$CStringT@DV?$StrTraitMFC_DLL@DV?$ChTraitsCRT@D@ATL@@@@@ATL@@QAE@XZ
  000a9	8d 4d e8	 lea	 ecx, DWORD PTR $T15[ebp]
  000ac	c6 45 fc 05	 mov	 BYTE PTR __$EHRec$[ebp+8], 5
  000b0	ff 15 00 00 00
	00		 call	 DWORD PTR __imp_??1?$CStringT@DV?$StrTraitMFC_DLL@DV?$ChTraitsCRT@D@ATL@@@@@ATL@@QAE@XZ
; File C:\Program Files (x86)\Microsoft Visual Studio\2019\Community\VC\Tools\MSVC\14.29.30133\atlmfc\include\atlsimpstr.h

; 519  : 		return( GetData()->nDataLength );

  000b6	8b 45 f0	 mov	 eax, DWORD PTR _data$[ebp]

; 533  : 		return( GetLength() == 0 );

  000b9	83 78 f4 00	 cmp	 DWORD PTR [eax-12], 0
; File D:\git\src\IBK\IBK_DRFN\ProjSrc\SrcChartEx\ChartAddIn\ChartAnalysisToolAddIn\AnalysisTool\ElementTreeBuilder.cpp

; 683  : 	if(data.IsEmpty())

  000bd	75 07		 jne	 SHORT $LN2@GetTextHor
  000bf	32 db		 xor	 bl, bl
  000c1	e9 bf 02 00 00	 jmp	 $LN19@GetTextHor
$LN2@GetTextHor:

; 684  : 		return false;
; 685  : 
; 686  : 	position.SetTextEnvironment(GetTextEnvironment(strData));

  000c6	57		 push	 edi
  000c7	8d 45 08	 lea	 eax, DWORD PTR $T22[ebp]
  000ca	8b ce		 mov	 ecx, esi
  000cc	50		 push	 eax
  000cd	e8 00 00 00 00	 call	 ?GetTextEnvironment@CElementTreeBuilder@@ABE?AVCTextEnvironment@@ABV?$CStringT@DV?$StrTraitMFC_DLL@DV?$ChTraitsCRT@D@ATL@@@@@ATL@@@Z ; CElementTreeBuilder::GetTextEnvironment
  000d2	8b 75 0c	 mov	 esi, DWORD PTR _position$[ebp]
  000d5	8b ce		 mov	 ecx, esi
  000d7	50		 push	 eax
  000d8	e8 00 00 00 00	 call	 ?SetTextEnvironment@CTextPosition@@QAEXABVCTextEnvironment@@@Z ; CTextPosition::SetTextEnvironment

; 687  : 	position.SetLeft(CDataConversion::atob(GetData(data, "<Left>", "<\\Left>\r\n")));

  000dd	68 00 00 00 00	 push	 OFFSET ??_C@_09GNFMKNLO@?$DM?2Left?$DO?$AN?6@
  000e2	8d 4d e0	 lea	 ecx, DWORD PTR $T10[ebp]
  000e5	ff 15 00 00 00
	00		 call	 DWORD PTR __imp_??0?$CStringT@DV?$StrTraitMFC_DLL@DV?$ChTraitsCRT@D@ATL@@@@@ATL@@QAE@PBD@Z
  000eb	68 00 00 00 00	 push	 OFFSET ??_C@_06CIGIKOKD@?$DMLeft?$DO@
  000f0	8d 4d e4	 lea	 ecx, DWORD PTR $T14[ebp]
  000f3	c6 45 fc 06	 mov	 BYTE PTR __$EHRec$[ebp+8], 6
  000f7	ff 15 00 00 00
	00		 call	 DWORD PTR __imp_??0?$CStringT@DV?$StrTraitMFC_DLL@DV?$ChTraitsCRT@D@ATL@@@@@ATL@@QAE@PBD@Z

; 384  : 	CString strNewData = strOrgData;

  000fd	8d 45 f0	 lea	 eax, DWORD PTR _data$[ebp]

; 687  : 	position.SetLeft(CDataConversion::atob(GetData(data, "<Left>", "<\\Left>\r\n")));

  00100	c6 45 fc 07	 mov	 BYTE PTR __$EHRec$[ebp+8], 7

; 384  : 	CString strNewData = strOrgData;

  00104	50		 push	 eax
  00105	8d 4d 08	 lea	 ecx, DWORD PTR _strNewData$20[ebp]
  00108	ff 15 00 00 00
	00		 call	 DWORD PTR __imp_??0?$CStringT@DV?$StrTraitMFC_DLL@DV?$ChTraitsCRT@D@ATL@@@@@ATL@@QAE@ABV01@@Z

; 385  : 	CDataConversion::GetStringData(strNewData, strTrimStart);

  0010e	6a 01		 push	 1
  00110	8d 45 e4	 lea	 eax, DWORD PTR $T14[ebp]
  00113	c6 45 fc 08	 mov	 BYTE PTR __$EHRec$[ebp+8], 8
  00117	50		 push	 eax
  00118	8d 45 08	 lea	 eax, DWORD PTR _strNewData$20[ebp]
  0011b	50		 push	 eax
  0011c	8d 45 dc	 lea	 eax, DWORD PTR $T5[ebp]
  0011f	50		 push	 eax
  00120	e8 00 00 00 00	 call	 ?GetStringData@CDataConversion@@SA?AV?$CStringT@DV?$StrTraitMFC_DLL@DV?$ChTraitsCRT@D@ATL@@@@@ATL@@AAV23@ABV23@_N@Z ; CDataConversion::GetStringData
  00125	83 c4 10	 add	 esp, 16			; 00000010H
  00128	8d 4d dc	 lea	 ecx, DWORD PTR $T5[ebp]
  0012b	ff 15 00 00 00
	00		 call	 DWORD PTR __imp_??1?$CStringT@DV?$StrTraitMFC_DLL@DV?$ChTraitsCRT@D@ATL@@@@@ATL@@QAE@XZ

; 386  : 	return CDataConversion::GetStringData(strNewData, strTrimEnd);

  00131	6a 01		 push	 1
  00133	8d 45 e0	 lea	 eax, DWORD PTR $T10[ebp]
  00136	50		 push	 eax
  00137	8d 45 08	 lea	 eax, DWORD PTR _strNewData$20[ebp]
  0013a	50		 push	 eax
  0013b	8d 45 0c	 lea	 eax, DWORD PTR $T26[ebp]
  0013e	50		 push	 eax
  0013f	e8 00 00 00 00	 call	 ?GetStringData@CDataConversion@@SA?AV?$CStringT@DV?$StrTraitMFC_DLL@DV?$ChTraitsCRT@D@ATL@@@@@ATL@@AAV23@ABV23@_N@Z ; CDataConversion::GetStringData
  00144	83 c4 10	 add	 esp, 16			; 00000010H
  00147	8d 4d 08	 lea	 ecx, DWORD PTR _strNewData$20[ebp]
  0014a	ff 15 00 00 00
	00		 call	 DWORD PTR __imp_??1?$CStringT@DV?$StrTraitMFC_DLL@DV?$ChTraitsCRT@D@ATL@@@@@ATL@@QAE@XZ

; 687  : 	position.SetLeft(CDataConversion::atob(GetData(data, "<Left>", "<\\Left>\r\n")));

  00150	ff 75 0c	 push	 DWORD PTR $T26[ebp]
  00153	c6 45 fc 09	 mov	 BYTE PTR __$EHRec$[ebp+8], 9
  00157	e8 00 00 00 00	 call	 ?atob@CDataConversion@@SA_NPBD@Z ; CDataConversion::atob
  0015c	83 c4 04	 add	 esp, 4
  0015f	0f b6 c0	 movzx	 eax, al
  00162	8b ce		 mov	 ecx, esi
  00164	50		 push	 eax
  00165	e8 00 00 00 00	 call	 ?SetLeft@CTextHorzVertPosition@@QAEX_N@Z ; CTextHorzVertPosition::SetLeft
  0016a	8d 4d 0c	 lea	 ecx, DWORD PTR $T26[ebp]
  0016d	ff 15 00 00 00
	00		 call	 DWORD PTR __imp_??1?$CStringT@DV?$StrTraitMFC_DLL@DV?$ChTraitsCRT@D@ATL@@@@@ATL@@QAE@XZ
  00173	8d 4d e4	 lea	 ecx, DWORD PTR $T14[ebp]
  00176	ff 15 00 00 00
	00		 call	 DWORD PTR __imp_??1?$CStringT@DV?$StrTraitMFC_DLL@DV?$ChTraitsCRT@D@ATL@@@@@ATL@@QAE@XZ
  0017c	8d 4d e0	 lea	 ecx, DWORD PTR $T10[ebp]
  0017f	c6 45 fc 05	 mov	 BYTE PTR __$EHRec$[ebp+8], 5
  00183	ff 15 00 00 00
	00		 call	 DWORD PTR __imp_??1?$CStringT@DV?$StrTraitMFC_DLL@DV?$ChTraitsCRT@D@ATL@@@@@ATL@@QAE@XZ

; 688  : 	position.SetRight(CDataConversion::atob(GetData(data, "<Right>", "<\\Right>\r\n")));

  00189	68 00 00 00 00	 push	 OFFSET ??_C@_0L@MCAHGOHG@?$DM?2Right?$DO?$AN?6@
  0018e	8d 4d e4	 lea	 ecx, DWORD PTR $T13[ebp]
  00191	ff 15 00 00 00
	00		 call	 DWORD PTR __imp_??0?$CStringT@DV?$StrTraitMFC_DLL@DV?$ChTraitsCRT@D@ATL@@@@@ATL@@QAE@PBD@Z
  00197	68 00 00 00 00	 push	 OFFSET ??_C@_07BELDGPOI@?$DMRight?$DO@
  0019c	8d 4d e0	 lea	 ecx, DWORD PTR $T9[ebp]
  0019f	c6 45 fc 0a	 mov	 BYTE PTR __$EHRec$[ebp+8], 10 ; 0000000aH
  001a3	ff 15 00 00 00
	00		 call	 DWORD PTR __imp_??0?$CStringT@DV?$StrTraitMFC_DLL@DV?$ChTraitsCRT@D@ATL@@@@@ATL@@QAE@PBD@Z

; 384  : 	CString strNewData = strOrgData;

  001a9	8d 45 f0	 lea	 eax, DWORD PTR _data$[ebp]

; 688  : 	position.SetRight(CDataConversion::atob(GetData(data, "<Right>", "<\\Right>\r\n")));

  001ac	c6 45 fc 0b	 mov	 BYTE PTR __$EHRec$[ebp+8], 11 ; 0000000bH

; 384  : 	CString strNewData = strOrgData;

  001b0	50		 push	 eax
  001b1	8d 4d 08	 lea	 ecx, DWORD PTR _strNewData$19[ebp]
  001b4	ff 15 00 00 00
	00		 call	 DWORD PTR __imp_??0?$CStringT@DV?$StrTraitMFC_DLL@DV?$ChTraitsCRT@D@ATL@@@@@ATL@@QAE@ABV01@@Z
  001ba	c6 45 fc 0c	 mov	 BYTE PTR __$EHRec$[ebp+8], 12 ; 0000000cH

; 385  : 	CDataConversion::GetStringData(strNewData, strTrimStart);

  001be	8d 45 e0	 lea	 eax, DWORD PTR $T9[ebp]
  001c1	6a 01		 push	 1
  001c3	50		 push	 eax
  001c4	8d 45 08	 lea	 eax, DWORD PTR _strNewData$19[ebp]
  001c7	50		 push	 eax
  001c8	8d 45 dc	 lea	 eax, DWORD PTR $T4[ebp]
  001cb	50		 push	 eax
  001cc	e8 00 00 00 00	 call	 ?GetStringData@CDataConversion@@SA?AV?$CStringT@DV?$StrTraitMFC_DLL@DV?$ChTraitsCRT@D@ATL@@@@@ATL@@AAV23@ABV23@_N@Z ; CDataConversion::GetStringData
  001d1	83 c4 10	 add	 esp, 16			; 00000010H
  001d4	8d 4d dc	 lea	 ecx, DWORD PTR $T4[ebp]
  001d7	ff 15 00 00 00
	00		 call	 DWORD PTR __imp_??1?$CStringT@DV?$StrTraitMFC_DLL@DV?$ChTraitsCRT@D@ATL@@@@@ATL@@QAE@XZ

; 386  : 	return CDataConversion::GetStringData(strNewData, strTrimEnd);

  001dd	6a 01		 push	 1
  001df	8d 45 e4	 lea	 eax, DWORD PTR $T13[ebp]
  001e2	50		 push	 eax
  001e3	8d 45 08	 lea	 eax, DWORD PTR _strNewData$19[ebp]
  001e6	50		 push	 eax
  001e7	8d 45 0c	 lea	 eax, DWORD PTR $T25[ebp]
  001ea	50		 push	 eax
  001eb	e8 00 00 00 00	 call	 ?GetStringData@CDataConversion@@SA?AV?$CStringT@DV?$StrTraitMFC_DLL@DV?$ChTraitsCRT@D@ATL@@@@@ATL@@AAV23@ABV23@_N@Z ; CDataConversion::GetStringData
  001f0	83 c4 10	 add	 esp, 16			; 00000010H
  001f3	8d 4d 08	 lea	 ecx, DWORD PTR _strNewData$19[ebp]
  001f6	ff 15 00 00 00
	00		 call	 DWORD PTR __imp_??1?$CStringT@DV?$StrTraitMFC_DLL@DV?$ChTraitsCRT@D@ATL@@@@@ATL@@QAE@XZ

; 688  : 	position.SetRight(CDataConversion::atob(GetData(data, "<Right>", "<\\Right>\r\n")));

  001fc	ff 75 0c	 push	 DWORD PTR $T25[ebp]
  001ff	c6 45 fc 0d	 mov	 BYTE PTR __$EHRec$[ebp+8], 13 ; 0000000dH
  00203	e8 00 00 00 00	 call	 ?atob@CDataConversion@@SA_NPBD@Z ; CDataConversion::atob
  00208	83 c4 04	 add	 esp, 4
  0020b	0f b6 c0	 movzx	 eax, al
  0020e	8b ce		 mov	 ecx, esi
  00210	50		 push	 eax
  00211	e8 00 00 00 00	 call	 ?SetRight@CTextHorzVertPosition@@QAEX_N@Z ; CTextHorzVertPosition::SetRight
  00216	8d 4d 0c	 lea	 ecx, DWORD PTR $T25[ebp]
  00219	ff 15 00 00 00
	00		 call	 DWORD PTR __imp_??1?$CStringT@DV?$StrTraitMFC_DLL@DV?$ChTraitsCRT@D@ATL@@@@@ATL@@QAE@XZ
  0021f	8d 4d e0	 lea	 ecx, DWORD PTR $T9[ebp]
  00222	ff 15 00 00 00
	00		 call	 DWORD PTR __imp_??1?$CStringT@DV?$StrTraitMFC_DLL@DV?$ChTraitsCRT@D@ATL@@@@@ATL@@QAE@XZ
  00228	8d 4d e4	 lea	 ecx, DWORD PTR $T13[ebp]
  0022b	c6 45 fc 05	 mov	 BYTE PTR __$EHRec$[ebp+8], 5
  0022f	ff 15 00 00 00
	00		 call	 DWORD PTR __imp_??1?$CStringT@DV?$StrTraitMFC_DLL@DV?$ChTraitsCRT@D@ATL@@@@@ATL@@QAE@XZ

; 689  : 	position.SetTop(CDataConversion::atob(GetData(strData, "<Top>", "<\\Top>\r\n")));

  00235	68 00 00 00 00	 push	 OFFSET ??_C@_08OGFDFKLB@?$DM?2Top?$DO?$AN?6@
  0023a	8d 4d e4	 lea	 ecx, DWORD PTR $T12[ebp]
  0023d	ff 15 00 00 00
	00		 call	 DWORD PTR __imp_??0?$CStringT@DV?$StrTraitMFC_DLL@DV?$ChTraitsCRT@D@ATL@@@@@ATL@@QAE@PBD@Z
  00243	68 00 00 00 00	 push	 OFFSET ??_C@_05IGGHGEPJ@?$DMTop?$DO@
  00248	8d 4d e0	 lea	 ecx, DWORD PTR $T8[ebp]
  0024b	c6 45 fc 0e	 mov	 BYTE PTR __$EHRec$[ebp+8], 14 ; 0000000eH
  0024f	ff 15 00 00 00
	00		 call	 DWORD PTR __imp_??0?$CStringT@DV?$StrTraitMFC_DLL@DV?$ChTraitsCRT@D@ATL@@@@@ATL@@QAE@PBD@Z

; 384  : 	CString strNewData = strOrgData;

  00255	57		 push	 edi
  00256	8d 4d 08	 lea	 ecx, DWORD PTR _strNewData$18[ebp]

; 689  : 	position.SetTop(CDataConversion::atob(GetData(strData, "<Top>", "<\\Top>\r\n")));

  00259	c6 45 fc 0f	 mov	 BYTE PTR __$EHRec$[ebp+8], 15 ; 0000000fH

; 384  : 	CString strNewData = strOrgData;

  0025d	ff 15 00 00 00
	00		 call	 DWORD PTR __imp_??0?$CStringT@DV?$StrTraitMFC_DLL@DV?$ChTraitsCRT@D@ATL@@@@@ATL@@QAE@ABV01@@Z

; 385  : 	CDataConversion::GetStringData(strNewData, strTrimStart);

  00263	6a 01		 push	 1
  00265	8d 45 e0	 lea	 eax, DWORD PTR $T8[ebp]
  00268	c6 45 fc 10	 mov	 BYTE PTR __$EHRec$[ebp+8], 16 ; 00000010H
  0026c	50		 push	 eax
  0026d	8d 45 08	 lea	 eax, DWORD PTR _strNewData$18[ebp]
  00270	50		 push	 eax
  00271	8d 45 dc	 lea	 eax, DWORD PTR $T3[ebp]
  00274	50		 push	 eax
  00275	e8 00 00 00 00	 call	 ?GetStringData@CDataConversion@@SA?AV?$CStringT@DV?$StrTraitMFC_DLL@DV?$ChTraitsCRT@D@ATL@@@@@ATL@@AAV23@ABV23@_N@Z ; CDataConversion::GetStringData
  0027a	83 c4 10	 add	 esp, 16			; 00000010H
  0027d	8d 4d dc	 lea	 ecx, DWORD PTR $T3[ebp]
  00280	ff 15 00 00 00
	00		 call	 DWORD PTR __imp_??1?$CStringT@DV?$StrTraitMFC_DLL@DV?$ChTraitsCRT@D@ATL@@@@@ATL@@QAE@XZ

; 386  : 	return CDataConversion::GetStringData(strNewData, strTrimEnd);

  00286	6a 01		 push	 1
  00288	8d 45 e4	 lea	 eax, DWORD PTR $T12[ebp]
  0028b	50		 push	 eax
  0028c	8d 45 08	 lea	 eax, DWORD PTR _strNewData$18[ebp]
  0028f	50		 push	 eax
  00290	8d 45 0c	 lea	 eax, DWORD PTR $T24[ebp]
  00293	50		 push	 eax
  00294	e8 00 00 00 00	 call	 ?GetStringData@CDataConversion@@SA?AV?$CStringT@DV?$StrTraitMFC_DLL@DV?$ChTraitsCRT@D@ATL@@@@@ATL@@AAV23@ABV23@_N@Z ; CDataConversion::GetStringData
  00299	83 c4 10	 add	 esp, 16			; 00000010H
  0029c	8d 4d 08	 lea	 ecx, DWORD PTR _strNewData$18[ebp]
  0029f	ff 15 00 00 00
	00		 call	 DWORD PTR __imp_??1?$CStringT@DV?$StrTraitMFC_DLL@DV?$ChTraitsCRT@D@ATL@@@@@ATL@@QAE@XZ

; 689  : 	position.SetTop(CDataConversion::atob(GetData(strData, "<Top>", "<\\Top>\r\n")));

  002a5	ff 75 0c	 push	 DWORD PTR $T24[ebp]
  002a8	c6 45 fc 11	 mov	 BYTE PTR __$EHRec$[ebp+8], 17 ; 00000011H
  002ac	e8 00 00 00 00	 call	 ?atob@CDataConversion@@SA_NPBD@Z ; CDataConversion::atob
  002b1	83 c4 04	 add	 esp, 4
  002b4	0f b6 c0	 movzx	 eax, al
  002b7	8b ce		 mov	 ecx, esi
  002b9	50		 push	 eax
  002ba	e8 00 00 00 00	 call	 ?SetTop@CTextHorzVertPosition@@QAEX_N@Z ; CTextHorzVertPosition::SetTop
  002bf	8d 4d 0c	 lea	 ecx, DWORD PTR $T24[ebp]
  002c2	ff 15 00 00 00
	00		 call	 DWORD PTR __imp_??1?$CStringT@DV?$StrTraitMFC_DLL@DV?$ChTraitsCRT@D@ATL@@@@@ATL@@QAE@XZ
  002c8	8d 4d e0	 lea	 ecx, DWORD PTR $T8[ebp]
  002cb	ff 15 00 00 00
	00		 call	 DWORD PTR __imp_??1?$CStringT@DV?$StrTraitMFC_DLL@DV?$ChTraitsCRT@D@ATL@@@@@ATL@@QAE@XZ
  002d1	8d 4d e4	 lea	 ecx, DWORD PTR $T12[ebp]
  002d4	c6 45 fc 05	 mov	 BYTE PTR __$EHRec$[ebp+8], 5
  002d8	ff 15 00 00 00
	00		 call	 DWORD PTR __imp_??1?$CStringT@DV?$StrTraitMFC_DLL@DV?$ChTraitsCRT@D@ATL@@@@@ATL@@QAE@XZ

; 690  : 	position.SetBottom(CDataConversion::atob(GetData(strData, "<Bottom>", "<\\Bottom>\r\n")));

  002de	68 00 00 00 00	 push	 OFFSET ??_C@_0M@LEMGAFHE@?$DM?2Bottom?$DO?$AN?6@
  002e3	8d 4d e4	 lea	 ecx, DWORD PTR $T11[ebp]
  002e6	ff 15 00 00 00
	00		 call	 DWORD PTR __imp_??0?$CStringT@DV?$StrTraitMFC_DLL@DV?$ChTraitsCRT@D@ATL@@@@@ATL@@QAE@PBD@Z
  002ec	68 00 00 00 00	 push	 OFFSET ??_C@_08DJNLIMII@?$DMBottom?$DO@
  002f1	8d 4d e0	 lea	 ecx, DWORD PTR $T7[ebp]
  002f4	c6 45 fc 12	 mov	 BYTE PTR __$EHRec$[ebp+8], 18 ; 00000012H
  002f8	ff 15 00 00 00
	00		 call	 DWORD PTR __imp_??0?$CStringT@DV?$StrTraitMFC_DLL@DV?$ChTraitsCRT@D@ATL@@@@@ATL@@QAE@PBD@Z

; 384  : 	CString strNewData = strOrgData;

  002fe	57		 push	 edi
  002ff	8d 4d 08	 lea	 ecx, DWORD PTR _strNewData$17[ebp]

; 690  : 	position.SetBottom(CDataConversion::atob(GetData(strData, "<Bottom>", "<\\Bottom>\r\n")));

  00302	c6 45 fc 13	 mov	 BYTE PTR __$EHRec$[ebp+8], 19 ; 00000013H

; 384  : 	CString strNewData = strOrgData;

  00306	ff 15 00 00 00
	00		 call	 DWORD PTR __imp_??0?$CStringT@DV?$StrTraitMFC_DLL@DV?$ChTraitsCRT@D@ATL@@@@@ATL@@QAE@ABV01@@Z

; 385  : 	CDataConversion::GetStringData(strNewData, strTrimStart);

  0030c	6a 01		 push	 1
  0030e	8d 45 e0	 lea	 eax, DWORD PTR $T7[ebp]
  00311	c6 45 fc 14	 mov	 BYTE PTR __$EHRec$[ebp+8], 20 ; 00000014H
  00315	50		 push	 eax
  00316	8d 45 08	 lea	 eax, DWORD PTR _strNewData$17[ebp]
  00319	50		 push	 eax
  0031a	8d 45 dc	 lea	 eax, DWORD PTR $T2[ebp]
  0031d	50		 push	 eax
  0031e	e8 00 00 00 00	 call	 ?GetStringData@CDataConversion@@SA?AV?$CStringT@DV?$StrTraitMFC_DLL@DV?$ChTraitsCRT@D@ATL@@@@@ATL@@AAV23@ABV23@_N@Z ; CDataConversion::GetStringData
  00323	83 c4 10	 add	 esp, 16			; 00000010H
  00326	8d 4d dc	 lea	 ecx, DWORD PTR $T2[ebp]
  00329	ff 15 00 00 00
	00		 call	 DWORD PTR __imp_??1?$CStringT@DV?$StrTraitMFC_DLL@DV?$ChTraitsCRT@D@ATL@@@@@ATL@@QAE@XZ

; 386  : 	return CDataConversion::GetStringData(strNewData, strTrimEnd);

  0032f	6a 01		 push	 1
  00331	8d 45 e4	 lea	 eax, DWORD PTR $T11[ebp]
  00334	50		 push	 eax
  00335	8d 45 08	 lea	 eax, DWORD PTR _strNewData$17[ebp]
  00338	50		 push	 eax
  00339	8d 45 0c	 lea	 eax, DWORD PTR $T23[ebp]
  0033c	50		 push	 eax
  0033d	e8 00 00 00 00	 call	 ?GetStringData@CDataConversion@@SA?AV?$CStringT@DV?$StrTraitMFC_DLL@DV?$ChTraitsCRT@D@ATL@@@@@ATL@@AAV23@ABV23@_N@Z ; CDataConversion::GetStringData
  00342	83 c4 10	 add	 esp, 16			; 00000010H
  00345	8d 4d 08	 lea	 ecx, DWORD PTR _strNewData$17[ebp]
  00348	ff 15 00 00 00
	00		 call	 DWORD PTR __imp_??1?$CStringT@DV?$StrTraitMFC_DLL@DV?$ChTraitsCRT@D@ATL@@@@@ATL@@QAE@XZ

; 690  : 	position.SetBottom(CDataConversion::atob(GetData(strData, "<Bottom>", "<\\Bottom>\r\n")));

  0034e	ff 75 0c	 push	 DWORD PTR $T23[ebp]
  00351	c6 45 fc 15	 mov	 BYTE PTR __$EHRec$[ebp+8], 21 ; 00000015H
  00355	e8 00 00 00 00	 call	 ?atob@CDataConversion@@SA_NPBD@Z ; CDataConversion::atob
  0035a	83 c4 04	 add	 esp, 4
  0035d	0f b6 c0	 movzx	 eax, al
  00360	8b ce		 mov	 ecx, esi
  00362	50		 push	 eax
  00363	e8 00 00 00 00	 call	 ?SetBottom@CTextHorzVertPosition@@QAEX_N@Z ; CTextHorzVertPosition::SetBottom
  00368	8d 4d 0c	 lea	 ecx, DWORD PTR $T23[ebp]
  0036b	ff 15 00 00 00
	00		 call	 DWORD PTR __imp_??1?$CStringT@DV?$StrTraitMFC_DLL@DV?$ChTraitsCRT@D@ATL@@@@@ATL@@QAE@XZ
  00371	8d 4d e0	 lea	 ecx, DWORD PTR $T7[ebp]
  00374	ff 15 00 00 00
	00		 call	 DWORD PTR __imp_??1?$CStringT@DV?$StrTraitMFC_DLL@DV?$ChTraitsCRT@D@ATL@@@@@ATL@@QAE@XZ
  0037a	8d 4d e4	 lea	 ecx, DWORD PTR $T11[ebp]
  0037d	ff 15 00 00 00
	00		 call	 DWORD PTR __imp_??1?$CStringT@DV?$StrTraitMFC_DLL@DV?$ChTraitsCRT@D@ATL@@@@@ATL@@QAE@XZ

; 691  : 	return true;

  00383	b3 01		 mov	 bl, 1
$LN19@GetTextHor:
  00385	8d 4d f0	 lea	 ecx, DWORD PTR _data$[ebp]
  00388	ff 15 00 00 00
	00		 call	 DWORD PTR __imp_??1?$CStringT@DV?$StrTraitMFC_DLL@DV?$ChTraitsCRT@D@ATL@@@@@ATL@@QAE@XZ
  0038e	8a c3		 mov	 al, bl

; 692  : }

  00390	8b 4d f4	 mov	 ecx, DWORD PTR __$EHRec$[ebp]
  00393	64 89 0d 00 00
	00 00		 mov	 DWORD PTR fs:0, ecx
  0039a	59		 pop	 ecx
  0039b	5f		 pop	 edi
  0039c	5e		 pop	 esi
  0039d	5b		 pop	 ebx
  0039e	8b e5		 mov	 esp, ebp
  003a0	5d		 pop	 ebp
  003a1	c2 08 00	 ret	 8
_TEXT	ENDS
;	COMDAT text$x
text$x	SEGMENT
__unwindfunclet$?GetTextHorzVertPosition@CElementTreeBuilder@@ABE_NABV?$CStringT@DV?$StrTraitMFC_DLL@DV?$ChTraitsCRT@D@ATL@@@@@ATL@@AAVCTextHorzVertPosition@@@Z$0:
  00000	8d 4d e8	 lea	 ecx, DWORD PTR $T15[ebp]
  00003	ff 25 00 00 00
	00		 jmp	 DWORD PTR __imp_??1?$CStringT@DV?$StrTraitMFC_DLL@DV?$ChTraitsCRT@D@ATL@@@@@ATL@@QAE@XZ
__unwindfunclet$?GetTextHorzVertPosition@CElementTreeBuilder@@ABE_NABV?$CStringT@DV?$StrTraitMFC_DLL@DV?$ChTraitsCRT@D@ATL@@@@@ATL@@AAVCTextHorzVertPosition@@@Z$1:
  00009	8d 4d ec	 lea	 ecx, DWORD PTR $T16[ebp]
  0000c	ff 25 00 00 00
	00		 jmp	 DWORD PTR __imp_??1?$CStringT@DV?$StrTraitMFC_DLL@DV?$ChTraitsCRT@D@ATL@@@@@ATL@@QAE@XZ
__unwindfunclet$?GetTextHorzVertPosition@CElementTreeBuilder@@ABE_NABV?$CStringT@DV?$StrTraitMFC_DLL@DV?$ChTraitsCRT@D@ATL@@@@@ATL@@AAVCTextHorzVertPosition@@@Z$15:
  00012	8d 4d 08	 lea	 ecx, DWORD PTR _strNewData$21[ebp]
  00015	ff 25 00 00 00
	00		 jmp	 DWORD PTR __imp_??1?$CStringT@DV?$StrTraitMFC_DLL@DV?$ChTraitsCRT@D@ATL@@@@@ATL@@QAE@XZ
__unwindfunclet$?GetTextHorzVertPosition@CElementTreeBuilder@@ABE_NABV?$CStringT@DV?$StrTraitMFC_DLL@DV?$ChTraitsCRT@D@ATL@@@@@ATL@@AAVCTextHorzVertPosition@@@Z$2:
  0001b	8d 4d f0	 lea	 ecx, DWORD PTR _data$[ebp]
  0001e	ff 25 00 00 00
	00		 jmp	 DWORD PTR __imp_??1?$CStringT@DV?$StrTraitMFC_DLL@DV?$ChTraitsCRT@D@ATL@@@@@ATL@@QAE@XZ
__unwindfunclet$?GetTextHorzVertPosition@CElementTreeBuilder@@ABE_NABV?$CStringT@DV?$StrTraitMFC_DLL@DV?$ChTraitsCRT@D@ATL@@@@@ATL@@AAVCTextHorzVertPosition@@@Z$3:
  00024	8d 4d e0	 lea	 ecx, DWORD PTR $T10[ebp]
  00027	ff 25 00 00 00
	00		 jmp	 DWORD PTR __imp_??1?$CStringT@DV?$StrTraitMFC_DLL@DV?$ChTraitsCRT@D@ATL@@@@@ATL@@QAE@XZ
__unwindfunclet$?GetTextHorzVertPosition@CElementTreeBuilder@@ABE_NABV?$CStringT@DV?$StrTraitMFC_DLL@DV?$ChTraitsCRT@D@ATL@@@@@ATL@@AAVCTextHorzVertPosition@@@Z$4:
  0002d	8d 4d e4	 lea	 ecx, DWORD PTR $T14[ebp]
  00030	ff 25 00 00 00
	00		 jmp	 DWORD PTR __imp_??1?$CStringT@DV?$StrTraitMFC_DLL@DV?$ChTraitsCRT@D@ATL@@@@@ATL@@QAE@XZ
__unwindfunclet$?GetTextHorzVertPosition@CElementTreeBuilder@@ABE_NABV?$CStringT@DV?$StrTraitMFC_DLL@DV?$ChTraitsCRT@D@ATL@@@@@ATL@@AAVCTextHorzVertPosition@@@Z$18:
  00036	8d 4d 08	 lea	 ecx, DWORD PTR _strNewData$20[ebp]
  00039	ff 25 00 00 00
	00		 jmp	 DWORD PTR __imp_??1?$CStringT@DV?$StrTraitMFC_DLL@DV?$ChTraitsCRT@D@ATL@@@@@ATL@@QAE@XZ
__unwindfunclet$?GetTextHorzVertPosition@CElementTreeBuilder@@ABE_NABV?$CStringT@DV?$StrTraitMFC_DLL@DV?$ChTraitsCRT@D@ATL@@@@@ATL@@AAVCTextHorzVertPosition@@@Z$5:
  0003f	8d 4d 0c	 lea	 ecx, DWORD PTR $T26[ebp]
  00042	ff 25 00 00 00
	00		 jmp	 DWORD PTR __imp_??1?$CStringT@DV?$StrTraitMFC_DLL@DV?$ChTraitsCRT@D@ATL@@@@@ATL@@QAE@XZ
__unwindfunclet$?GetTextHorzVertPosition@CElementTreeBuilder@@ABE_NABV?$CStringT@DV?$StrTraitMFC_DLL@DV?$ChTraitsCRT@D@ATL@@@@@ATL@@AAVCTextHorzVertPosition@@@Z$6:
  00048	8d 4d e4	 lea	 ecx, DWORD PTR $T13[ebp]
  0004b	ff 25 00 00 00
	00		 jmp	 DWORD PTR __imp_??1?$CStringT@DV?$StrTraitMFC_DLL@DV?$ChTraitsCRT@D@ATL@@@@@ATL@@QAE@XZ
__unwindfunclet$?GetTextHorzVertPosition@CElementTreeBuilder@@ABE_NABV?$CStringT@DV?$StrTraitMFC_DLL@DV?$ChTraitsCRT@D@ATL@@@@@ATL@@AAVCTextHorzVertPosition@@@Z$7:
  00051	8d 4d e0	 lea	 ecx, DWORD PTR $T9[ebp]
  00054	ff 25 00 00 00
	00		 jmp	 DWORD PTR __imp_??1?$CStringT@DV?$StrTraitMFC_DLL@DV?$ChTraitsCRT@D@ATL@@@@@ATL@@QAE@XZ
__unwindfunclet$?GetTextHorzVertPosition@CElementTreeBuilder@@ABE_NABV?$CStringT@DV?$StrTraitMFC_DLL@DV?$ChTraitsCRT@D@ATL@@@@@ATL@@AAVCTextHorzVertPosition@@@Z$21:
  0005a	8d 4d 08	 lea	 ecx, DWORD PTR _strNewData$19[ebp]
  0005d	ff 25 00 00 00
	00		 jmp	 DWORD PTR __imp_??1?$CStringT@DV?$StrTraitMFC_DLL@DV?$ChTraitsCRT@D@ATL@@@@@ATL@@QAE@XZ
__unwindfunclet$?GetTextHorzVertPosition@CElementTreeBuilder@@ABE_NABV?$CStringT@DV?$StrTraitMFC_DLL@DV?$ChTraitsCRT@D@ATL@@@@@ATL@@AAVCTextHorzVertPosition@@@Z$8:
  00063	8d 4d 0c	 lea	 ecx, DWORD PTR $T25[ebp]
  00066	ff 25 00 00 00
	00		 jmp	 DWORD PTR __imp_??1?$CStringT@DV?$StrTraitMFC_DLL@DV?$ChTraitsCRT@D@ATL@@@@@ATL@@QAE@XZ
__unwindfunclet$?GetTextHorzVertPosition@CElementTreeBuilder@@ABE_NABV?$CStringT@DV?$StrTraitMFC_DLL@DV?$ChTraitsCRT@D@ATL@@@@@ATL@@AAVCTextHorzVertPosition@@@Z$9:
  0006c	8d 4d e4	 lea	 ecx, DWORD PTR $T12[ebp]
  0006f	ff 25 00 00 00
	00		 jmp	 DWORD PTR __imp_??1?$CStringT@DV?$StrTraitMFC_DLL@DV?$ChTraitsCRT@D@ATL@@@@@ATL@@QAE@XZ
__unwindfunclet$?GetTextHorzVertPosition@CElementTreeBuilder@@ABE_NABV?$CStringT@DV?$StrTraitMFC_DLL@DV?$ChTraitsCRT@D@ATL@@@@@ATL@@AAVCTextHorzVertPosition@@@Z$10:
  00075	8d 4d e0	 lea	 ecx, DWORD PTR $T8[ebp]
  00078	ff 25 00 00 00
	00		 jmp	 DWORD PTR __imp_??1?$CStringT@DV?$StrTraitMFC_DLL@DV?$ChTraitsCRT@D@ATL@@@@@ATL@@QAE@XZ
__unwindfunclet$?GetTextHorzVertPosition@CElementTreeBuilder@@ABE_NABV?$CStringT@DV?$StrTraitMFC_DLL@DV?$ChTraitsCRT@D@ATL@@@@@ATL@@AAVCTextHorzVertPosition@@@Z$24:
  0007e	8d 4d 08	 lea	 ecx, DWORD PTR _strNewData$18[ebp]
  00081	ff 25 00 00 00
	00		 jmp	 DWORD PTR __imp_??1?$CStringT@DV?$StrTraitMFC_DLL@DV?$ChTraitsCRT@D@ATL@@@@@ATL@@QAE@XZ
__unwindfunclet$?GetTextHorzVertPosition@CElementTreeBuilder@@ABE_NABV?$CStringT@DV?$StrTraitMFC_DLL@DV?$ChTraitsCRT@D@ATL@@@@@ATL@@AAVCTextHorzVertPosition@@@Z$11:
  00087	8d 4d 0c	 lea	 ecx, DWORD PTR $T24[ebp]
  0008a	ff 25 00 00 00
	00		 jmp	 DWORD PTR __imp_??1?$CStringT@DV?$StrTraitMFC_DLL@DV?$ChTraitsCRT@D@ATL@@@@@ATL@@QAE@XZ
__unwindfunclet$?GetTextHorzVertPosition@CElementTreeBuilder@@ABE_NABV?$CStringT@DV?$StrTraitMFC_DLL@DV?$ChTraitsCRT@D@ATL@@@@@ATL@@AAVCTextHorzVertPosition@@@Z$12:
  00090	8d 4d e4	 lea	 ecx, DWORD PTR $T11[ebp]
  00093	ff 25 00 00 00
	00		 jmp	 DWORD PTR __imp_??1?$CStringT@DV?$StrTraitMFC_DLL@DV?$ChTraitsCRT@D@ATL@@@@@ATL@@QAE@XZ
__unwindfunclet$?GetTextHorzVertPosition@CElementTreeBuilder@@ABE_NABV?$CStringT@DV?$StrTraitMFC_DLL@DV?$ChTraitsCRT@D@ATL@@@@@ATL@@AAVCTextHorzVertPosition@@@Z$13:
  00099	8d 4d e0	 lea	 ecx, DWORD PTR $T7[ebp]
  0009c	ff 25 00 00 00
	00		 jmp	 DWORD PTR __imp_??1?$CStringT@DV?$StrTraitMFC_DLL@DV?$ChTraitsCRT@D@ATL@@@@@ATL@@QAE@XZ
__unwindfunclet$?GetTextHorzVertPosition@CElementTreeBuilder@@ABE_NABV?$CStringT@DV?$StrTraitMFC_DLL@DV?$ChTraitsCRT@D@ATL@@@@@ATL@@AAVCTextHorzVertPosition@@@Z$27:
  000a2	8d 4d 08	 lea	 ecx, DWORD PTR _strNewData$17[ebp]
  000a5	ff 25 00 00 00
	00		 jmp	 DWORD PTR __imp_??1?$CStringT@DV?$StrTraitMFC_DLL@DV?$ChTraitsCRT@D@ATL@@@@@ATL@@QAE@XZ
__unwindfunclet$?GetTextHorzVertPosition@CElementTreeBuilder@@ABE_NABV?$CStringT@DV?$StrTraitMFC_DLL@DV?$ChTraitsCRT@D@ATL@@@@@ATL@@AAVCTextHorzVertPosition@@@Z$14:
  000ab	8d 4d 0c	 lea	 ecx, DWORD PTR $T23[ebp]
  000ae	ff 25 00 00 00
	00		 jmp	 DWORD PTR __imp_??1?$CStringT@DV?$StrTraitMFC_DLL@DV?$ChTraitsCRT@D@ATL@@@@@ATL@@QAE@XZ
  000b4	cc		 int	 3
  000b5	cc		 int	 3
  000b6	cc		 int	 3
  000b7	cc		 int	 3
  000b8	cc		 int	 3
__ehhandler$?GetTextHorzVertPosition@CElementTreeBuilder@@ABE_NABV?$CStringT@DV?$StrTraitMFC_DLL@DV?$ChTraitsCRT@D@ATL@@@@@ATL@@AAVCTextHorzVertPosition@@@Z:
  000b9	90		 npad	 1
  000ba	90		 npad	 1
  000bb	8b 54 24 08	 mov	 edx, DWORD PTR [esp+8]
  000bf	8d 42 0c	 lea	 eax, DWORD PTR [edx+12]
  000c2	8b 4a d8	 mov	 ecx, DWORD PTR [edx-40]
  000c5	33 c8		 xor	 ecx, eax
  000c7	e8 00 00 00 00	 call	 @__security_check_cookie@4
  000cc	b8 00 00 00 00	 mov	 eax, OFFSET __ehfuncinfo$?GetTextHorzVertPosition@CElementTreeBuilder@@ABE_NABV?$CStringT@DV?$StrTraitMFC_DLL@DV?$ChTraitsCRT@D@ATL@@@@@ATL@@AAVCTextHorzVertPosition@@@Z
  000d1	e9 00 00 00 00	 jmp	 ___CxxFrameHandler3
text$x	ENDS
?GetTextHorzVertPosition@CElementTreeBuilder@@ABE_NABV?$CStringT@DV?$StrTraitMFC_DLL@DV?$ChTraitsCRT@D@ATL@@@@@ATL@@AAVCTextHorzVertPosition@@@Z ENDP ; CElementTreeBuilder::GetTextHorzVertPosition
; Function compile flags: /Ogtp
; File D:\git\src\IBK\IBK_DRFN\ProjSrc\SrcChartEx\ChartAddIn\ChartAnalysisToolAddIn\AnalysisTool\ElementTreeBuilder.cpp
; File C:\Program Files (x86)\Microsoft Visual Studio\2019\Community\VC\Tools\MSVC\14.29.30133\atlmfc\include\atlsimpstr.h
; File D:\git\src\IBK\IBK_DRFN\ProjSrc\SrcChartEx\ChartAddIn\ChartAnalysisToolAddIn\AnalysisTool\ElementTreeBuilder.cpp
;	COMDAT ?GetTextVertPosition@CElementTreeBuilder@@ABE_NABV?$CStringT@DV?$StrTraitMFC_DLL@DV?$ChTraitsCRT@D@ATL@@@@@ATL@@AAVCTextVertPosition@@@Z
_TEXT	SEGMENT
$T2 = -36						; size = 4
$T3 = -36						; size = 4
_data$ = -32						; size = 4
$T4 = -28						; size = 4
$T5 = -28						; size = 4
$T6 = -28						; size = 4
$T7 = -24						; size = 4
$T8 = -24						; size = 4
$T9 = -20						; size = 4
$T10 = -16						; size = 4
__$EHRec$ = -12						; size = 12
_strNewData$11 = 8					; size = 4
_strNewData$12 = 8					; size = 4
_strNewData$13 = 8					; size = 4
$T14 = 8						; size = 4
_strData$ = 8						; size = 4
$T15 = 12						; size = 4
$T16 = 12						; size = 4
_position$ = 12						; size = 4
?GetTextVertPosition@CElementTreeBuilder@@ABE_NABV?$CStringT@DV?$StrTraitMFC_DLL@DV?$ChTraitsCRT@D@ATL@@@@@ATL@@AAVCTextVertPosition@@@Z PROC ; CElementTreeBuilder::GetTextVertPosition, COMDAT
; _this$ = ecx

; 669  : {

  00000	55		 push	 ebp
  00001	8b ec		 mov	 ebp, esp
  00003	6a ff		 push	 -1
  00005	68 00 00 00 00	 push	 __ehhandler$?GetTextVertPosition@CElementTreeBuilder@@ABE_NABV?$CStringT@DV?$StrTraitMFC_DLL@DV?$ChTraitsCRT@D@ATL@@@@@ATL@@AAVCTextVertPosition@@@Z
  0000a	64 a1 00 00 00
	00		 mov	 eax, DWORD PTR fs:0
  00010	50		 push	 eax
  00011	83 ec 18	 sub	 esp, 24			; 00000018H
  00014	53		 push	 ebx
  00015	56		 push	 esi
  00016	57		 push	 edi
  00017	a1 00 00 00 00	 mov	 eax, DWORD PTR ___security_cookie
  0001c	33 c5		 xor	 eax, ebp
  0001e	50		 push	 eax
  0001f	8d 45 f4	 lea	 eax, DWORD PTR __$EHRec$[ebp]
  00022	64 a3 00 00 00
	00		 mov	 DWORD PTR fs:0, eax
  00028	8b f1		 mov	 esi, ecx

; 670  : 	CString data = GetData(strData, "<Vert>\r\n", "<\\Vert>\r\n");

  0002a	68 00 00 00 00	 push	 OFFSET ??_C@_09BIGAMANA@?$DM?2Vert?$DO?$AN?6@
  0002f	8d 4d ec	 lea	 ecx, DWORD PTR $T9[ebp]
  00032	ff 15 00 00 00
	00		 call	 DWORD PTR __imp_??0?$CStringT@DV?$StrTraitMFC_DLL@DV?$ChTraitsCRT@D@ATL@@@@@ATL@@QAE@PBD@Z
  00038	68 00 00 00 00	 push	 OFFSET ??_C@_08DDEPFPBK@?$DMVert?$DO?$AN?6@
  0003d	8d 4d f0	 lea	 ecx, DWORD PTR $T10[ebp]
  00040	c7 45 fc 00 00
	00 00		 mov	 DWORD PTR __$EHRec$[ebp+8], 0
  00047	ff 15 00 00 00
	00		 call	 DWORD PTR __imp_??0?$CStringT@DV?$StrTraitMFC_DLL@DV?$ChTraitsCRT@D@ATL@@@@@ATL@@QAE@PBD@Z

; 384  : 	CString strNewData = strOrgData;

  0004d	8b 7d 08	 mov	 edi, DWORD PTR _strData$[ebp]
  00050	8d 4d 08	 lea	 ecx, DWORD PTR _strNewData$13[ebp]
  00053	57		 push	 edi

; 670  : 	CString data = GetData(strData, "<Vert>\r\n", "<\\Vert>\r\n");

  00054	c6 45 fc 01	 mov	 BYTE PTR __$EHRec$[ebp+8], 1

; 384  : 	CString strNewData = strOrgData;

  00058	ff 15 00 00 00
	00		 call	 DWORD PTR __imp_??0?$CStringT@DV?$StrTraitMFC_DLL@DV?$ChTraitsCRT@D@ATL@@@@@ATL@@QAE@ABV01@@Z

; 385  : 	CDataConversion::GetStringData(strNewData, strTrimStart);

  0005e	6a 01		 push	 1
  00060	8d 45 f0	 lea	 eax, DWORD PTR $T10[ebp]
  00063	c6 45 fc 02	 mov	 BYTE PTR __$EHRec$[ebp+8], 2
  00067	50		 push	 eax
  00068	8d 45 08	 lea	 eax, DWORD PTR _strNewData$13[ebp]
  0006b	50		 push	 eax
  0006c	8d 45 e4	 lea	 eax, DWORD PTR $T4[ebp]
  0006f	50		 push	 eax
  00070	e8 00 00 00 00	 call	 ?GetStringData@CDataConversion@@SA?AV?$CStringT@DV?$StrTraitMFC_DLL@DV?$ChTraitsCRT@D@ATL@@@@@ATL@@AAV23@ABV23@_N@Z ; CDataConversion::GetStringData
  00075	83 c4 10	 add	 esp, 16			; 00000010H
  00078	8d 4d e4	 lea	 ecx, DWORD PTR $T4[ebp]
  0007b	ff 15 00 00 00
	00		 call	 DWORD PTR __imp_??1?$CStringT@DV?$StrTraitMFC_DLL@DV?$ChTraitsCRT@D@ATL@@@@@ATL@@QAE@XZ

; 386  : 	return CDataConversion::GetStringData(strNewData, strTrimEnd);

  00081	6a 01		 push	 1
  00083	8d 45 ec	 lea	 eax, DWORD PTR $T9[ebp]
  00086	50		 push	 eax
  00087	8d 45 08	 lea	 eax, DWORD PTR _strNewData$13[ebp]
  0008a	50		 push	 eax
  0008b	8d 45 e0	 lea	 eax, DWORD PTR _data$[ebp]
  0008e	50		 push	 eax
  0008f	e8 00 00 00 00	 call	 ?GetStringData@CDataConversion@@SA?AV?$CStringT@DV?$StrTraitMFC_DLL@DV?$ChTraitsCRT@D@ATL@@@@@ATL@@AAV23@ABV23@_N@Z ; CDataConversion::GetStringData
  00094	83 c4 10	 add	 esp, 16			; 00000010H
  00097	8d 4d 08	 lea	 ecx, DWORD PTR _strNewData$13[ebp]
  0009a	ff 15 00 00 00
	00		 call	 DWORD PTR __imp_??1?$CStringT@DV?$StrTraitMFC_DLL@DV?$ChTraitsCRT@D@ATL@@@@@ATL@@QAE@XZ

; 670  : 	CString data = GetData(strData, "<Vert>\r\n", "<\\Vert>\r\n");

  000a0	8d 4d f0	 lea	 ecx, DWORD PTR $T10[ebp]
  000a3	ff 15 00 00 00
	00		 call	 DWORD PTR __imp_??1?$CStringT@DV?$StrTraitMFC_DLL@DV?$ChTraitsCRT@D@ATL@@@@@ATL@@QAE@XZ
  000a9	8d 4d ec	 lea	 ecx, DWORD PTR $T9[ebp]
  000ac	c6 45 fc 05	 mov	 BYTE PTR __$EHRec$[ebp+8], 5
  000b0	ff 15 00 00 00
	00		 call	 DWORD PTR __imp_??1?$CStringT@DV?$StrTraitMFC_DLL@DV?$ChTraitsCRT@D@ATL@@@@@ATL@@QAE@XZ
; File C:\Program Files (x86)\Microsoft Visual Studio\2019\Community\VC\Tools\MSVC\14.29.30133\atlmfc\include\atlsimpstr.h

; 519  : 		return( GetData()->nDataLength );

  000b6	8b 45 e0	 mov	 eax, DWORD PTR _data$[ebp]

; 533  : 		return( GetLength() == 0 );

  000b9	83 78 f4 00	 cmp	 DWORD PTR [eax-12], 0
; File D:\git\src\IBK\IBK_DRFN\ProjSrc\SrcChartEx\ChartAddIn\ChartAnalysisToolAddIn\AnalysisTool\ElementTreeBuilder.cpp

; 671  : 	if(data.IsEmpty())

  000bd	75 07		 jne	 SHORT $LN2@GetTextVer
  000bf	32 db		 xor	 bl, bl
  000c1	e9 67 01 00 00	 jmp	 $LN13@GetTextVer
$LN2@GetTextVer:

; 672  : 		return false;
; 673  : 
; 674  : 	position.SetTextEnvironment(GetTextEnvironment(strData));

  000c6	57		 push	 edi
  000c7	8d 45 08	 lea	 eax, DWORD PTR $T14[ebp]
  000ca	8b ce		 mov	 ecx, esi
  000cc	50		 push	 eax
  000cd	e8 00 00 00 00	 call	 ?GetTextEnvironment@CElementTreeBuilder@@ABE?AVCTextEnvironment@@ABV?$CStringT@DV?$StrTraitMFC_DLL@DV?$ChTraitsCRT@D@ATL@@@@@ATL@@@Z ; CElementTreeBuilder::GetTextEnvironment
  000d2	8b 75 0c	 mov	 esi, DWORD PTR _position$[ebp]
  000d5	8b ce		 mov	 ecx, esi
  000d7	50		 push	 eax
  000d8	e8 00 00 00 00	 call	 ?SetTextEnvironment@CTextPosition@@QAEXABVCTextEnvironment@@@Z ; CTextPosition::SetTextEnvironment

; 675  : 	position.SetTop(CDataConversion::atob(GetData(strData, "<Top>", "<\\Top>\r\n")));

  000dd	68 00 00 00 00	 push	 OFFSET ??_C@_08OGFDFKLB@?$DM?2Top?$DO?$AN?6@
  000e2	8d 4d e4	 lea	 ecx, DWORD PTR $T6[ebp]
  000e5	ff 15 00 00 00
	00		 call	 DWORD PTR __imp_??0?$CStringT@DV?$StrTraitMFC_DLL@DV?$ChTraitsCRT@D@ATL@@@@@ATL@@QAE@PBD@Z
  000eb	68 00 00 00 00	 push	 OFFSET ??_C@_05IGGHGEPJ@?$DMTop?$DO@
  000f0	8d 4d e8	 lea	 ecx, DWORD PTR $T8[ebp]
  000f3	c6 45 fc 06	 mov	 BYTE PTR __$EHRec$[ebp+8], 6
  000f7	ff 15 00 00 00
	00		 call	 DWORD PTR __imp_??0?$CStringT@DV?$StrTraitMFC_DLL@DV?$ChTraitsCRT@D@ATL@@@@@ATL@@QAE@PBD@Z

; 384  : 	CString strNewData = strOrgData;

  000fd	57		 push	 edi
  000fe	8d 4d 08	 lea	 ecx, DWORD PTR _strNewData$12[ebp]

; 675  : 	position.SetTop(CDataConversion::atob(GetData(strData, "<Top>", "<\\Top>\r\n")));

  00101	c6 45 fc 07	 mov	 BYTE PTR __$EHRec$[ebp+8], 7

; 384  : 	CString strNewData = strOrgData;

  00105	ff 15 00 00 00
	00		 call	 DWORD PTR __imp_??0?$CStringT@DV?$StrTraitMFC_DLL@DV?$ChTraitsCRT@D@ATL@@@@@ATL@@QAE@ABV01@@Z

; 385  : 	CDataConversion::GetStringData(strNewData, strTrimStart);

  0010b	6a 01		 push	 1
  0010d	8d 45 e8	 lea	 eax, DWORD PTR $T8[ebp]
  00110	c6 45 fc 08	 mov	 BYTE PTR __$EHRec$[ebp+8], 8
  00114	50		 push	 eax
  00115	8d 45 08	 lea	 eax, DWORD PTR _strNewData$12[ebp]
  00118	50		 push	 eax
  00119	8d 45 dc	 lea	 eax, DWORD PTR $T3[ebp]
  0011c	50		 push	 eax
  0011d	e8 00 00 00 00	 call	 ?GetStringData@CDataConversion@@SA?AV?$CStringT@DV?$StrTraitMFC_DLL@DV?$ChTraitsCRT@D@ATL@@@@@ATL@@AAV23@ABV23@_N@Z ; CDataConversion::GetStringData
  00122	83 c4 10	 add	 esp, 16			; 00000010H
  00125	8d 4d dc	 lea	 ecx, DWORD PTR $T3[ebp]
  00128	ff 15 00 00 00
	00		 call	 DWORD PTR __imp_??1?$CStringT@DV?$StrTraitMFC_DLL@DV?$ChTraitsCRT@D@ATL@@@@@ATL@@QAE@XZ

; 386  : 	return CDataConversion::GetStringData(strNewData, strTrimEnd);

  0012e	6a 01		 push	 1
  00130	8d 45 e4	 lea	 eax, DWORD PTR $T6[ebp]
  00133	50		 push	 eax
  00134	8d 45 08	 lea	 eax, DWORD PTR _strNewData$12[ebp]
  00137	50		 push	 eax
  00138	8d 45 0c	 lea	 eax, DWORD PTR $T16[ebp]
  0013b	50		 push	 eax
  0013c	e8 00 00 00 00	 call	 ?GetStringData@CDataConversion@@SA?AV?$CStringT@DV?$StrTraitMFC_DLL@DV?$ChTraitsCRT@D@ATL@@@@@ATL@@AAV23@ABV23@_N@Z ; CDataConversion::GetStringData
  00141	83 c4 10	 add	 esp, 16			; 00000010H
  00144	8d 4d 08	 lea	 ecx, DWORD PTR _strNewData$12[ebp]
  00147	ff 15 00 00 00
	00		 call	 DWORD PTR __imp_??1?$CStringT@DV?$StrTraitMFC_DLL@DV?$ChTraitsCRT@D@ATL@@@@@ATL@@QAE@XZ

; 675  : 	position.SetTop(CDataConversion::atob(GetData(strData, "<Top>", "<\\Top>\r\n")));

  0014d	ff 75 0c	 push	 DWORD PTR $T16[ebp]
  00150	c6 45 fc 09	 mov	 BYTE PTR __$EHRec$[ebp+8], 9
  00154	e8 00 00 00 00	 call	 ?atob@CDataConversion@@SA_NPBD@Z ; CDataConversion::atob
  00159	83 c4 04	 add	 esp, 4
  0015c	0f b6 c0	 movzx	 eax, al
  0015f	8b ce		 mov	 ecx, esi
  00161	50		 push	 eax
  00162	e8 00 00 00 00	 call	 ?SetTop@CTextVertPosition@@QAEX_N@Z ; CTextVertPosition::SetTop
  00167	8d 4d 0c	 lea	 ecx, DWORD PTR $T16[ebp]
  0016a	ff 15 00 00 00
	00		 call	 DWORD PTR __imp_??1?$CStringT@DV?$StrTraitMFC_DLL@DV?$ChTraitsCRT@D@ATL@@@@@ATL@@QAE@XZ
  00170	8d 4d e8	 lea	 ecx, DWORD PTR $T8[ebp]
  00173	ff 15 00 00 00
	00		 call	 DWORD PTR __imp_??1?$CStringT@DV?$StrTraitMFC_DLL@DV?$ChTraitsCRT@D@ATL@@@@@ATL@@QAE@XZ
  00179	8d 4d e4	 lea	 ecx, DWORD PTR $T6[ebp]
  0017c	c6 45 fc 05	 mov	 BYTE PTR __$EHRec$[ebp+8], 5
  00180	ff 15 00 00 00
	00		 call	 DWORD PTR __imp_??1?$CStringT@DV?$StrTraitMFC_DLL@DV?$ChTraitsCRT@D@ATL@@@@@ATL@@QAE@XZ

; 676  : 	position.SetBottom(CDataConversion::atob(GetData(strData, "<Bottom>", "<\\Bottom>\r\n")));

  00186	68 00 00 00 00	 push	 OFFSET ??_C@_0M@LEMGAFHE@?$DM?2Bottom?$DO?$AN?6@
  0018b	8d 4d e8	 lea	 ecx, DWORD PTR $T7[ebp]
  0018e	ff 15 00 00 00
	00		 call	 DWORD PTR __imp_??0?$CStringT@DV?$StrTraitMFC_DLL@DV?$ChTraitsCRT@D@ATL@@@@@ATL@@QAE@PBD@Z
  00194	68 00 00 00 00	 push	 OFFSET ??_C@_08DJNLIMII@?$DMBottom?$DO@
  00199	8d 4d e4	 lea	 ecx, DWORD PTR $T5[ebp]
  0019c	c6 45 fc 0a	 mov	 BYTE PTR __$EHRec$[ebp+8], 10 ; 0000000aH
  001a0	ff 15 00 00 00
	00		 call	 DWORD PTR __imp_??0?$CStringT@DV?$StrTraitMFC_DLL@DV?$ChTraitsCRT@D@ATL@@@@@ATL@@QAE@PBD@Z

; 384  : 	CString strNewData = strOrgData;

  001a6	57		 push	 edi
  001a7	8d 4d 08	 lea	 ecx, DWORD PTR _strNewData$11[ebp]

; 676  : 	position.SetBottom(CDataConversion::atob(GetData(strData, "<Bottom>", "<\\Bottom>\r\n")));

  001aa	c6 45 fc 0b	 mov	 BYTE PTR __$EHRec$[ebp+8], 11 ; 0000000bH

; 384  : 	CString strNewData = strOrgData;

  001ae	ff 15 00 00 00
	00		 call	 DWORD PTR __imp_??0?$CStringT@DV?$StrTraitMFC_DLL@DV?$ChTraitsCRT@D@ATL@@@@@ATL@@QAE@ABV01@@Z

; 385  : 	CDataConversion::GetStringData(strNewData, strTrimStart);

  001b4	8d 45 e4	 lea	 eax, DWORD PTR $T5[ebp]
  001b7	c6 45 fc 0c	 mov	 BYTE PTR __$EHRec$[ebp+8], 12 ; 0000000cH
  001bb	6a 01		 push	 1
  001bd	50		 push	 eax
  001be	8d 45 08	 lea	 eax, DWORD PTR _strNewData$11[ebp]
  001c1	50		 push	 eax
  001c2	8d 45 dc	 lea	 eax, DWORD PTR $T2[ebp]
  001c5	50		 push	 eax
  001c6	e8 00 00 00 00	 call	 ?GetStringData@CDataConversion@@SA?AV?$CStringT@DV?$StrTraitMFC_DLL@DV?$ChTraitsCRT@D@ATL@@@@@ATL@@AAV23@ABV23@_N@Z ; CDataConversion::GetStringData
  001cb	83 c4 10	 add	 esp, 16			; 00000010H
  001ce	8d 4d dc	 lea	 ecx, DWORD PTR $T2[ebp]
  001d1	ff 15 00 00 00
	00		 call	 DWORD PTR __imp_??1?$CStringT@DV?$StrTraitMFC_DLL@DV?$ChTraitsCRT@D@ATL@@@@@ATL@@QAE@XZ

; 386  : 	return CDataConversion::GetStringData(strNewData, strTrimEnd);

  001d7	6a 01		 push	 1
  001d9	8d 45 e8	 lea	 eax, DWORD PTR $T7[ebp]
  001dc	50		 push	 eax
  001dd	8d 45 08	 lea	 eax, DWORD PTR _strNewData$11[ebp]
  001e0	50		 push	 eax
  001e1	8d 45 0c	 lea	 eax, DWORD PTR $T15[ebp]
  001e4	50		 push	 eax
  001e5	e8 00 00 00 00	 call	 ?GetStringData@CDataConversion@@SA?AV?$CStringT@DV?$StrTraitMFC_DLL@DV?$ChTraitsCRT@D@ATL@@@@@ATL@@AAV23@ABV23@_N@Z ; CDataConversion::GetStringData
  001ea	83 c4 10	 add	 esp, 16			; 00000010H
  001ed	8d 4d 08	 lea	 ecx, DWORD PTR _strNewData$11[ebp]
  001f0	ff 15 00 00 00
	00		 call	 DWORD PTR __imp_??1?$CStringT@DV?$StrTraitMFC_DLL@DV?$ChTraitsCRT@D@ATL@@@@@ATL@@QAE@XZ

; 676  : 	position.SetBottom(CDataConversion::atob(GetData(strData, "<Bottom>", "<\\Bottom>\r\n")));

  001f6	ff 75 0c	 push	 DWORD PTR $T15[ebp]
  001f9	c6 45 fc 0d	 mov	 BYTE PTR __$EHRec$[ebp+8], 13 ; 0000000dH
  001fd	e8 00 00 00 00	 call	 ?atob@CDataConversion@@SA_NPBD@Z ; CDataConversion::atob
  00202	83 c4 04	 add	 esp, 4
  00205	0f b6 c0	 movzx	 eax, al
  00208	8b ce		 mov	 ecx, esi
  0020a	50		 push	 eax
  0020b	e8 00 00 00 00	 call	 ?SetBottom@CTextVertPosition@@QAEX_N@Z ; CTextVertPosition::SetBottom
  00210	8d 4d 0c	 lea	 ecx, DWORD PTR $T15[ebp]
  00213	ff 15 00 00 00
	00		 call	 DWORD PTR __imp_??1?$CStringT@DV?$StrTraitMFC_DLL@DV?$ChTraitsCRT@D@ATL@@@@@ATL@@QAE@XZ
  00219	8d 4d e4	 lea	 ecx, DWORD PTR $T5[ebp]
  0021c	ff 15 00 00 00
	00		 call	 DWORD PTR __imp_??1?$CStringT@DV?$StrTraitMFC_DLL@DV?$ChTraitsCRT@D@ATL@@@@@ATL@@QAE@XZ
  00222	8d 4d e8	 lea	 ecx, DWORD PTR $T7[ebp]
  00225	ff 15 00 00 00
	00		 call	 DWORD PTR __imp_??1?$CStringT@DV?$StrTraitMFC_DLL@DV?$ChTraitsCRT@D@ATL@@@@@ATL@@QAE@XZ

; 677  : 	return true;

  0022b	b3 01		 mov	 bl, 1
$LN13@GetTextVer:
  0022d	8d 4d e0	 lea	 ecx, DWORD PTR _data$[ebp]
  00230	ff 15 00 00 00
	00		 call	 DWORD PTR __imp_??1?$CStringT@DV?$StrTraitMFC_DLL@DV?$ChTraitsCRT@D@ATL@@@@@ATL@@QAE@XZ
  00236	8a c3		 mov	 al, bl

; 678  : }

  00238	8b 4d f4	 mov	 ecx, DWORD PTR __$EHRec$[ebp]
  0023b	64 89 0d 00 00
	00 00		 mov	 DWORD PTR fs:0, ecx
  00242	59		 pop	 ecx
  00243	5f		 pop	 edi
  00244	5e		 pop	 esi
  00245	5b		 pop	 ebx
  00246	8b e5		 mov	 esp, ebp
  00248	5d		 pop	 ebp
  00249	c2 08 00	 ret	 8
_TEXT	ENDS
;	COMDAT text$x
text$x	SEGMENT
__unwindfunclet$?GetTextVertPosition@CElementTreeBuilder@@ABE_NABV?$CStringT@DV?$StrTraitMFC_DLL@DV?$ChTraitsCRT@D@ATL@@@@@ATL@@AAVCTextVertPosition@@@Z$0:
  00000	8d 4d ec	 lea	 ecx, DWORD PTR $T9[ebp]
  00003	ff 25 00 00 00
	00		 jmp	 DWORD PTR __imp_??1?$CStringT@DV?$StrTraitMFC_DLL@DV?$ChTraitsCRT@D@ATL@@@@@ATL@@QAE@XZ
__unwindfunclet$?GetTextVertPosition@CElementTreeBuilder@@ABE_NABV?$CStringT@DV?$StrTraitMFC_DLL@DV?$ChTraitsCRT@D@ATL@@@@@ATL@@AAVCTextVertPosition@@@Z$1:
  00009	8d 4d f0	 lea	 ecx, DWORD PTR $T10[ebp]
  0000c	ff 25 00 00 00
	00		 jmp	 DWORD PTR __imp_??1?$CStringT@DV?$StrTraitMFC_DLL@DV?$ChTraitsCRT@D@ATL@@@@@ATL@@QAE@XZ
__unwindfunclet$?GetTextVertPosition@CElementTreeBuilder@@ABE_NABV?$CStringT@DV?$StrTraitMFC_DLL@DV?$ChTraitsCRT@D@ATL@@@@@ATL@@AAVCTextVertPosition@@@Z$9:
  00012	8d 4d 08	 lea	 ecx, DWORD PTR _strNewData$13[ebp]
  00015	ff 25 00 00 00
	00		 jmp	 DWORD PTR __imp_??1?$CStringT@DV?$StrTraitMFC_DLL@DV?$ChTraitsCRT@D@ATL@@@@@ATL@@QAE@XZ
__unwindfunclet$?GetTextVertPosition@CElementTreeBuilder@@ABE_NABV?$CStringT@DV?$StrTraitMFC_DLL@DV?$ChTraitsCRT@D@ATL@@@@@ATL@@AAVCTextVertPosition@@@Z$2:
  0001b	8d 4d e0	 lea	 ecx, DWORD PTR _data$[ebp]
  0001e	ff 25 00 00 00
	00		 jmp	 DWORD PTR __imp_??1?$CStringT@DV?$StrTraitMFC_DLL@DV?$ChTraitsCRT@D@ATL@@@@@ATL@@QAE@XZ
__unwindfunclet$?GetTextVertPosition@CElementTreeBuilder@@ABE_NABV?$CStringT@DV?$StrTraitMFC_DLL@DV?$ChTraitsCRT@D@ATL@@@@@ATL@@AAVCTextVertPosition@@@Z$3:
  00024	8d 4d e4	 lea	 ecx, DWORD PTR $T6[ebp]
  00027	ff 25 00 00 00
	00		 jmp	 DWORD PTR __imp_??1?$CStringT@DV?$StrTraitMFC_DLL@DV?$ChTraitsCRT@D@ATL@@@@@ATL@@QAE@XZ
__unwindfunclet$?GetTextVertPosition@CElementTreeBuilder@@ABE_NABV?$CStringT@DV?$StrTraitMFC_DLL@DV?$ChTraitsCRT@D@ATL@@@@@ATL@@AAVCTextVertPosition@@@Z$4:
  0002d	8d 4d e8	 lea	 ecx, DWORD PTR $T8[ebp]
  00030	ff 25 00 00 00
	00		 jmp	 DWORD PTR __imp_??1?$CStringT@DV?$StrTraitMFC_DLL@DV?$ChTraitsCRT@D@ATL@@@@@ATL@@QAE@XZ
__unwindfunclet$?GetTextVertPosition@CElementTreeBuilder@@ABE_NABV?$CStringT@DV?$StrTraitMFC_DLL@DV?$ChTraitsCRT@D@ATL@@@@@ATL@@AAVCTextVertPosition@@@Z$12:
  00036	8d 4d 08	 lea	 ecx, DWORD PTR _strNewData$12[ebp]
  00039	ff 25 00 00 00
	00		 jmp	 DWORD PTR __imp_??1?$CStringT@DV?$StrTraitMFC_DLL@DV?$ChTraitsCRT@D@ATL@@@@@ATL@@QAE@XZ
__unwindfunclet$?GetTextVertPosition@CElementTreeBuilder@@ABE_NABV?$CStringT@DV?$StrTraitMFC_DLL@DV?$ChTraitsCRT@D@ATL@@@@@ATL@@AAVCTextVertPosition@@@Z$5:
  0003f	8d 4d 0c	 lea	 ecx, DWORD PTR $T16[ebp]
  00042	ff 25 00 00 00
	00		 jmp	 DWORD PTR __imp_??1?$CStringT@DV?$StrTraitMFC_DLL@DV?$ChTraitsCRT@D@ATL@@@@@ATL@@QAE@XZ
__unwindfunclet$?GetTextVertPosition@CElementTreeBuilder@@ABE_NABV?$CStringT@DV?$StrTraitMFC_DLL@DV?$ChTraitsCRT@D@ATL@@@@@ATL@@AAVCTextVertPosition@@@Z$6:
  00048	8d 4d e8	 lea	 ecx, DWORD PTR $T7[ebp]
  0004b	ff 25 00 00 00
	00		 jmp	 DWORD PTR __imp_??1?$CStringT@DV?$StrTraitMFC_DLL@DV?$ChTraitsCRT@D@ATL@@@@@ATL@@QAE@XZ
__unwindfunclet$?GetTextVertPosition@CElementTreeBuilder@@ABE_NABV?$CStringT@DV?$StrTraitMFC_DLL@DV?$ChTraitsCRT@D@ATL@@@@@ATL@@AAVCTextVertPosition@@@Z$7:
  00051	8d 4d e4	 lea	 ecx, DWORD PTR $T5[ebp]
  00054	ff 25 00 00 00
	00		 jmp	 DWORD PTR __imp_??1?$CStringT@DV?$StrTraitMFC_DLL@DV?$ChTraitsCRT@D@ATL@@@@@ATL@@QAE@XZ
__unwindfunclet$?GetTextVertPosition@CElementTreeBuilder@@ABE_NABV?$CStringT@DV?$StrTraitMFC_DLL@DV?$ChTraitsCRT@D@ATL@@@@@ATL@@AAVCTextVertPosition@@@Z$15:
  0005a	8d 4d 08	 lea	 ecx, DWORD PTR _strNewData$11[ebp]
  0005d	ff 25 00 00 00
	00		 jmp	 DWORD PTR __imp_??1?$CStringT@DV?$StrTraitMFC_DLL@DV?$ChTraitsCRT@D@ATL@@@@@ATL@@QAE@XZ
__unwindfunclet$?GetTextVertPosition@CElementTreeBuilder@@ABE_NABV?$CStringT@DV?$StrTraitMFC_DLL@DV?$ChTraitsCRT@D@ATL@@@@@ATL@@AAVCTextVertPosition@@@Z$8:
  00063	8d 4d 0c	 lea	 ecx, DWORD PTR $T15[ebp]
  00066	ff 25 00 00 00
	00		 jmp	 DWORD PTR __imp_??1?$CStringT@DV?$StrTraitMFC_DLL@DV?$ChTraitsCRT@D@ATL@@@@@ATL@@QAE@XZ
  0006c	cc		 int	 3
  0006d	cc		 int	 3
  0006e	cc		 int	 3
  0006f	cc		 int	 3
  00070	cc		 int	 3
__ehhandler$?GetTextVertPosition@CElementTreeBuilder@@ABE_NABV?$CStringT@DV?$StrTraitMFC_DLL@DV?$ChTraitsCRT@D@ATL@@@@@ATL@@AAVCTextVertPosition@@@Z:
  00071	90		 npad	 1
  00072	90		 npad	 1
  00073	8b 54 24 08	 mov	 edx, DWORD PTR [esp+8]
  00077	8d 42 0c	 lea	 eax, DWORD PTR [edx+12]
  0007a	8b 4a d8	 mov	 ecx, DWORD PTR [edx-40]
  0007d	33 c8		 xor	 ecx, eax
  0007f	e8 00 00 00 00	 call	 @__security_check_cookie@4
  00084	b8 00 00 00 00	 mov	 eax, OFFSET __ehfuncinfo$?GetTextVertPosition@CElementTreeBuilder@@ABE_NABV?$CStringT@DV?$StrTraitMFC_DLL@DV?$ChTraitsCRT@D@ATL@@@@@ATL@@AAVCTextVertPosition@@@Z
  00089	e9 00 00 00 00	 jmp	 ___CxxFrameHandler3
text$x	ENDS
?GetTextVertPosition@CElementTreeBuilder@@ABE_NABV?$CStringT@DV?$StrTraitMFC_DLL@DV?$ChTraitsCRT@D@ATL@@@@@ATL@@AAVCTextVertPosition@@@Z ENDP ; CElementTreeBuilder::GetTextVertPosition
; Function compile flags: /Ogtp
; File D:\git\src\IBK\IBK_DRFN\ProjSrc\SrcChartEx\ChartAddIn\ChartAnalysisToolAddIn\AnalysisTool\ElementTreeBuilder.cpp
; File C:\Program Files (x86)\Microsoft Visual Studio\2019\Community\VC\Tools\MSVC\14.29.30133\atlmfc\include\atlsimpstr.h
; File D:\git\src\IBK\IBK_DRFN\ProjSrc\SrcChartEx\ChartAddIn\ChartAnalysisToolAddIn\AnalysisTool\ElementTreeBuilder.cpp
;	COMDAT ?GetTextHorzPosition@CElementTreeBuilder@@ABE_NABV?$CStringT@DV?$StrTraitMFC_DLL@DV?$ChTraitsCRT@D@ATL@@@@@ATL@@AAVCTextHorzPosition@@@Z
_TEXT	SEGMENT
$T2 = -36						; size = 4
$T3 = -36						; size = 4
$T4 = -36						; size = 4
$T5 = -32						; size = 4
$T6 = -32						; size = 4
$T7 = -32						; size = 4
$T8 = -32						; size = 4
$T9 = -28						; size = 4
$T10 = -28						; size = 4
$T11 = -28						; size = 4
$T12 = -24						; size = 4
$T13 = -20						; size = 4
_data$ = -16						; size = 4
__$EHRec$ = -12						; size = 12
_strNewData$14 = 8					; size = 4
_strNewData$15 = 8					; size = 4
_strNewData$16 = 8					; size = 4
_strNewData$17 = 8					; size = 4
$T18 = 8						; size = 4
_strData$ = 8						; size = 4
$T19 = 12						; size = 4
$T20 = 12						; size = 4
$T21 = 12						; size = 4
_position$ = 12						; size = 4
?GetTextHorzPosition@CElementTreeBuilder@@ABE_NABV?$CStringT@DV?$StrTraitMFC_DLL@DV?$ChTraitsCRT@D@ATL@@@@@ATL@@AAVCTextHorzPosition@@@Z PROC ; CElementTreeBuilder::GetTextHorzPosition, COMDAT
; _this$ = ecx

; 655  : {

  00000	55		 push	 ebp
  00001	8b ec		 mov	 ebp, esp
  00003	6a ff		 push	 -1
  00005	68 00 00 00 00	 push	 __ehhandler$?GetTextHorzPosition@CElementTreeBuilder@@ABE_NABV?$CStringT@DV?$StrTraitMFC_DLL@DV?$ChTraitsCRT@D@ATL@@@@@ATL@@AAVCTextHorzPosition@@@Z
  0000a	64 a1 00 00 00
	00		 mov	 eax, DWORD PTR fs:0
  00010	50		 push	 eax
  00011	83 ec 18	 sub	 esp, 24			; 00000018H
  00014	53		 push	 ebx
  00015	56		 push	 esi
  00016	57		 push	 edi
  00017	a1 00 00 00 00	 mov	 eax, DWORD PTR ___security_cookie
  0001c	33 c5		 xor	 eax, ebp
  0001e	50		 push	 eax
  0001f	8d 45 f4	 lea	 eax, DWORD PTR __$EHRec$[ebp]
  00022	64 a3 00 00 00
	00		 mov	 DWORD PTR fs:0, eax
  00028	8b f9		 mov	 edi, ecx

; 656  : 	//color
; 657  : 	CString data = GetData(strData, "<Horz>\r\n", "<\\Horz>\r\n");

  0002a	68 00 00 00 00	 push	 OFFSET ??_C@_09GKBBACOG@?$DM?2Horz?$DO?$AN?6@
  0002f	8d 4d e8	 lea	 ecx, DWORD PTR $T12[ebp]
  00032	ff 15 00 00 00
	00		 call	 DWORD PTR __imp_??0?$CStringT@DV?$StrTraitMFC_DLL@DV?$ChTraitsCRT@D@ATL@@@@@ATL@@QAE@PBD@Z
  00038	68 00 00 00 00	 push	 OFFSET ??_C@_08EBDOJNCM@?$DMHorz?$DO?$AN?6@
  0003d	8d 4d ec	 lea	 ecx, DWORD PTR $T13[ebp]
  00040	c7 45 fc 00 00
	00 00		 mov	 DWORD PTR __$EHRec$[ebp+8], 0
  00047	ff 15 00 00 00
	00		 call	 DWORD PTR __imp_??0?$CStringT@DV?$StrTraitMFC_DLL@DV?$ChTraitsCRT@D@ATL@@@@@ATL@@QAE@PBD@Z

; 384  : 	CString strNewData = strOrgData;

  0004d	8b 75 08	 mov	 esi, DWORD PTR _strData$[ebp]
  00050	8d 4d 08	 lea	 ecx, DWORD PTR _strNewData$17[ebp]
  00053	56		 push	 esi

; 656  : 	//color
; 657  : 	CString data = GetData(strData, "<Horz>\r\n", "<\\Horz>\r\n");

  00054	c6 45 fc 01	 mov	 BYTE PTR __$EHRec$[ebp+8], 1

; 384  : 	CString strNewData = strOrgData;

  00058	ff 15 00 00 00
	00		 call	 DWORD PTR __imp_??0?$CStringT@DV?$StrTraitMFC_DLL@DV?$ChTraitsCRT@D@ATL@@@@@ATL@@QAE@ABV01@@Z

; 385  : 	CDataConversion::GetStringData(strNewData, strTrimStart);

  0005e	6a 01		 push	 1
  00060	8d 45 ec	 lea	 eax, DWORD PTR $T13[ebp]
  00063	c6 45 fc 02	 mov	 BYTE PTR __$EHRec$[ebp+8], 2
  00067	50		 push	 eax
  00068	8d 45 08	 lea	 eax, DWORD PTR _strNewData$17[ebp]
  0006b	50		 push	 eax
  0006c	8d 45 e0	 lea	 eax, DWORD PTR $T5[ebp]
  0006f	50		 push	 eax
  00070	e8 00 00 00 00	 call	 ?GetStringData@CDataConversion@@SA?AV?$CStringT@DV?$StrTraitMFC_DLL@DV?$ChTraitsCRT@D@ATL@@@@@ATL@@AAV23@ABV23@_N@Z ; CDataConversion::GetStringData
  00075	83 c4 10	 add	 esp, 16			; 00000010H
  00078	8d 4d e0	 lea	 ecx, DWORD PTR $T5[ebp]
  0007b	ff 15 00 00 00
	00		 call	 DWORD PTR __imp_??1?$CStringT@DV?$StrTraitMFC_DLL@DV?$ChTraitsCRT@D@ATL@@@@@ATL@@QAE@XZ

; 386  : 	return CDataConversion::GetStringData(strNewData, strTrimEnd);

  00081	6a 01		 push	 1
  00083	8d 45 e8	 lea	 eax, DWORD PTR $T12[ebp]
  00086	50		 push	 eax
  00087	8d 45 08	 lea	 eax, DWORD PTR _strNewData$17[ebp]
  0008a	50		 push	 eax
  0008b	8d 45 f0	 lea	 eax, DWORD PTR _data$[ebp]
  0008e	50		 push	 eax
  0008f	e8 00 00 00 00	 call	 ?GetStringData@CDataConversion@@SA?AV?$CStringT@DV?$StrTraitMFC_DLL@DV?$ChTraitsCRT@D@ATL@@@@@ATL@@AAV23@ABV23@_N@Z ; CDataConversion::GetStringData
  00094	83 c4 10	 add	 esp, 16			; 00000010H
  00097	8d 4d 08	 lea	 ecx, DWORD PTR _strNewData$17[ebp]
  0009a	ff 15 00 00 00
	00		 call	 DWORD PTR __imp_??1?$CStringT@DV?$StrTraitMFC_DLL@DV?$ChTraitsCRT@D@ATL@@@@@ATL@@QAE@XZ

; 656  : 	//color
; 657  : 	CString data = GetData(strData, "<Horz>\r\n", "<\\Horz>\r\n");

  000a0	8d 4d ec	 lea	 ecx, DWORD PTR $T13[ebp]
  000a3	ff 15 00 00 00
	00		 call	 DWORD PTR __imp_??1?$CStringT@DV?$StrTraitMFC_DLL@DV?$ChTraitsCRT@D@ATL@@@@@ATL@@QAE@XZ
  000a9	8d 4d e8	 lea	 ecx, DWORD PTR $T12[ebp]
  000ac	c6 45 fc 05	 mov	 BYTE PTR __$EHRec$[ebp+8], 5
  000b0	ff 15 00 00 00
	00		 call	 DWORD PTR __imp_??1?$CStringT@DV?$StrTraitMFC_DLL@DV?$ChTraitsCRT@D@ATL@@@@@ATL@@QAE@XZ
; File C:\Program Files (x86)\Microsoft Visual Studio\2019\Community\VC\Tools\MSVC\14.29.30133\atlmfc\include\atlsimpstr.h

; 519  : 		return( GetData()->nDataLength );

  000b6	8b 45 f0	 mov	 eax, DWORD PTR _data$[ebp]

; 533  : 		return( GetLength() == 0 );

  000b9	83 78 f4 00	 cmp	 DWORD PTR [eax-12], 0
; File D:\git\src\IBK\IBK_DRFN\ProjSrc\SrcChartEx\ChartAddIn\ChartAnalysisToolAddIn\AnalysisTool\ElementTreeBuilder.cpp

; 658  : 	if(data.IsEmpty())

  000bd	75 07		 jne	 SHORT $LN2@GetTextHor
  000bf	32 db		 xor	 bl, bl
  000c1	e9 19 02 00 00	 jmp	 $LN16@GetTextHor
$LN2@GetTextHor:

; 659  : 		return false;
; 660  : 
; 661  : 	position.SetTextEnvironment(GetTextEnvironment(strData));

  000c6	56		 push	 esi
  000c7	8d 45 08	 lea	 eax, DWORD PTR $T18[ebp]
  000ca	8b cf		 mov	 ecx, edi
  000cc	50		 push	 eax
  000cd	e8 00 00 00 00	 call	 ?GetTextEnvironment@CElementTreeBuilder@@ABE?AVCTextEnvironment@@ABV?$CStringT@DV?$StrTraitMFC_DLL@DV?$ChTraitsCRT@D@ATL@@@@@ATL@@@Z ; CElementTreeBuilder::GetTextEnvironment
  000d2	8b 75 0c	 mov	 esi, DWORD PTR _position$[ebp]
  000d5	8b ce		 mov	 ecx, esi
  000d7	50		 push	 eax
  000d8	e8 00 00 00 00	 call	 ?SetTextEnvironment@CTextPosition@@QAEXABVCTextEnvironment@@@Z ; CTextPosition::SetTextEnvironment

; 662  : 	position.SetLeft(CDataConversion::atob(GetData(data, "<Left>", "<\\Left>\r\n")));

  000dd	68 00 00 00 00	 push	 OFFSET ??_C@_09GNFMKNLO@?$DM?2Left?$DO?$AN?6@
  000e2	8d 4d e0	 lea	 ecx, DWORD PTR $T8[ebp]
  000e5	ff 15 00 00 00
	00		 call	 DWORD PTR __imp_??0?$CStringT@DV?$StrTraitMFC_DLL@DV?$ChTraitsCRT@D@ATL@@@@@ATL@@QAE@PBD@Z
  000eb	68 00 00 00 00	 push	 OFFSET ??_C@_06CIGIKOKD@?$DMLeft?$DO@
  000f0	8d 4d e4	 lea	 ecx, DWORD PTR $T11[ebp]
  000f3	c6 45 fc 06	 mov	 BYTE PTR __$EHRec$[ebp+8], 6
  000f7	ff 15 00 00 00
	00		 call	 DWORD PTR __imp_??0?$CStringT@DV?$StrTraitMFC_DLL@DV?$ChTraitsCRT@D@ATL@@@@@ATL@@QAE@PBD@Z

; 384  : 	CString strNewData = strOrgData;

  000fd	8d 45 f0	 lea	 eax, DWORD PTR _data$[ebp]

; 662  : 	position.SetLeft(CDataConversion::atob(GetData(data, "<Left>", "<\\Left>\r\n")));

  00100	c6 45 fc 07	 mov	 BYTE PTR __$EHRec$[ebp+8], 7

; 384  : 	CString strNewData = strOrgData;

  00104	50		 push	 eax
  00105	8d 4d 08	 lea	 ecx, DWORD PTR _strNewData$16[ebp]
  00108	ff 15 00 00 00
	00		 call	 DWORD PTR __imp_??0?$CStringT@DV?$StrTraitMFC_DLL@DV?$ChTraitsCRT@D@ATL@@@@@ATL@@QAE@ABV01@@Z

; 385  : 	CDataConversion::GetStringData(strNewData, strTrimStart);

  0010e	6a 01		 push	 1
  00110	8d 45 e4	 lea	 eax, DWORD PTR $T11[ebp]
  00113	c6 45 fc 08	 mov	 BYTE PTR __$EHRec$[ebp+8], 8
  00117	50		 push	 eax
  00118	8d 45 08	 lea	 eax, DWORD PTR _strNewData$16[ebp]
  0011b	50		 push	 eax
  0011c	8d 45 dc	 lea	 eax, DWORD PTR $T4[ebp]
  0011f	50		 push	 eax
  00120	e8 00 00 00 00	 call	 ?GetStringData@CDataConversion@@SA?AV?$CStringT@DV?$StrTraitMFC_DLL@DV?$ChTraitsCRT@D@ATL@@@@@ATL@@AAV23@ABV23@_N@Z ; CDataConversion::GetStringData
  00125	83 c4 10	 add	 esp, 16			; 00000010H
  00128	8d 4d dc	 lea	 ecx, DWORD PTR $T4[ebp]
  0012b	ff 15 00 00 00
	00		 call	 DWORD PTR __imp_??1?$CStringT@DV?$StrTraitMFC_DLL@DV?$ChTraitsCRT@D@ATL@@@@@ATL@@QAE@XZ

; 386  : 	return CDataConversion::GetStringData(strNewData, strTrimEnd);

  00131	6a 01		 push	 1
  00133	8d 45 e0	 lea	 eax, DWORD PTR $T8[ebp]
  00136	50		 push	 eax
  00137	8d 45 08	 lea	 eax, DWORD PTR _strNewData$16[ebp]
  0013a	50		 push	 eax
  0013b	8d 45 0c	 lea	 eax, DWORD PTR $T21[ebp]
  0013e	50		 push	 eax
  0013f	e8 00 00 00 00	 call	 ?GetStringData@CDataConversion@@SA?AV?$CStringT@DV?$StrTraitMFC_DLL@DV?$ChTraitsCRT@D@ATL@@@@@ATL@@AAV23@ABV23@_N@Z ; CDataConversion::GetStringData
  00144	83 c4 10	 add	 esp, 16			; 00000010H
  00147	8d 4d 08	 lea	 ecx, DWORD PTR _strNewData$16[ebp]
  0014a	ff 15 00 00 00
	00		 call	 DWORD PTR __imp_??1?$CStringT@DV?$StrTraitMFC_DLL@DV?$ChTraitsCRT@D@ATL@@@@@ATL@@QAE@XZ

; 662  : 	position.SetLeft(CDataConversion::atob(GetData(data, "<Left>", "<\\Left>\r\n")));

  00150	ff 75 0c	 push	 DWORD PTR $T21[ebp]
  00153	c6 45 fc 09	 mov	 BYTE PTR __$EHRec$[ebp+8], 9
  00157	e8 00 00 00 00	 call	 ?atob@CDataConversion@@SA_NPBD@Z ; CDataConversion::atob
  0015c	83 c4 04	 add	 esp, 4
  0015f	0f b6 c0	 movzx	 eax, al
  00162	8b ce		 mov	 ecx, esi
  00164	50		 push	 eax
  00165	e8 00 00 00 00	 call	 ?SetLeft@CTextHorzPosition@@QAEX_N@Z ; CTextHorzPosition::SetLeft
  0016a	8d 4d 0c	 lea	 ecx, DWORD PTR $T21[ebp]
  0016d	ff 15 00 00 00
	00		 call	 DWORD PTR __imp_??1?$CStringT@DV?$StrTraitMFC_DLL@DV?$ChTraitsCRT@D@ATL@@@@@ATL@@QAE@XZ
  00173	8d 4d e4	 lea	 ecx, DWORD PTR $T11[ebp]
  00176	ff 15 00 00 00
	00		 call	 DWORD PTR __imp_??1?$CStringT@DV?$StrTraitMFC_DLL@DV?$ChTraitsCRT@D@ATL@@@@@ATL@@QAE@XZ
  0017c	8d 4d e0	 lea	 ecx, DWORD PTR $T8[ebp]
  0017f	c6 45 fc 05	 mov	 BYTE PTR __$EHRec$[ebp+8], 5
  00183	ff 15 00 00 00
	00		 call	 DWORD PTR __imp_??1?$CStringT@DV?$StrTraitMFC_DLL@DV?$ChTraitsCRT@D@ATL@@@@@ATL@@QAE@XZ

; 663  : 	position.SetRight(CDataConversion::atob(GetData(data, "<Right>", "<\\Right>\r\n")));

  00189	68 00 00 00 00	 push	 OFFSET ??_C@_0L@MCAHGOHG@?$DM?2Right?$DO?$AN?6@
  0018e	8d 4d e4	 lea	 ecx, DWORD PTR $T10[ebp]
  00191	ff 15 00 00 00
	00		 call	 DWORD PTR __imp_??0?$CStringT@DV?$StrTraitMFC_DLL@DV?$ChTraitsCRT@D@ATL@@@@@ATL@@QAE@PBD@Z
  00197	68 00 00 00 00	 push	 OFFSET ??_C@_07BELDGPOI@?$DMRight?$DO@
  0019c	8d 4d e0	 lea	 ecx, DWORD PTR $T7[ebp]
  0019f	c6 45 fc 0a	 mov	 BYTE PTR __$EHRec$[ebp+8], 10 ; 0000000aH
  001a3	ff 15 00 00 00
	00		 call	 DWORD PTR __imp_??0?$CStringT@DV?$StrTraitMFC_DLL@DV?$ChTraitsCRT@D@ATL@@@@@ATL@@QAE@PBD@Z

; 384  : 	CString strNewData = strOrgData;

  001a9	8d 45 f0	 lea	 eax, DWORD PTR _data$[ebp]

; 663  : 	position.SetRight(CDataConversion::atob(GetData(data, "<Right>", "<\\Right>\r\n")));

  001ac	c6 45 fc 0b	 mov	 BYTE PTR __$EHRec$[ebp+8], 11 ; 0000000bH

; 384  : 	CString strNewData = strOrgData;

  001b0	50		 push	 eax
  001b1	8d 4d 08	 lea	 ecx, DWORD PTR _strNewData$15[ebp]
  001b4	ff 15 00 00 00
	00		 call	 DWORD PTR __imp_??0?$CStringT@DV?$StrTraitMFC_DLL@DV?$ChTraitsCRT@D@ATL@@@@@ATL@@QAE@ABV01@@Z
  001ba	c6 45 fc 0c	 mov	 BYTE PTR __$EHRec$[ebp+8], 12 ; 0000000cH

; 385  : 	CDataConversion::GetStringData(strNewData, strTrimStart);

  001be	8d 45 e0	 lea	 eax, DWORD PTR $T7[ebp]
  001c1	6a 01		 push	 1
  001c3	50		 push	 eax
  001c4	8d 45 08	 lea	 eax, DWORD PTR _strNewData$15[ebp]
  001c7	50		 push	 eax
  001c8	8d 45 dc	 lea	 eax, DWORD PTR $T3[ebp]
  001cb	50		 push	 eax
  001cc	e8 00 00 00 00	 call	 ?GetStringData@CDataConversion@@SA?AV?$CStringT@DV?$StrTraitMFC_DLL@DV?$ChTraitsCRT@D@ATL@@@@@ATL@@AAV23@ABV23@_N@Z ; CDataConversion::GetStringData
  001d1	83 c4 10	 add	 esp, 16			; 00000010H
  001d4	8d 4d dc	 lea	 ecx, DWORD PTR $T3[ebp]
  001d7	ff 15 00 00 00
	00		 call	 DWORD PTR __imp_??1?$CStringT@DV?$StrTraitMFC_DLL@DV?$ChTraitsCRT@D@ATL@@@@@ATL@@QAE@XZ

; 386  : 	return CDataConversion::GetStringData(strNewData, strTrimEnd);

  001dd	6a 01		 push	 1
  001df	8d 45 e4	 lea	 eax, DWORD PTR $T10[ebp]
  001e2	50		 push	 eax
  001e3	8d 45 08	 lea	 eax, DWORD PTR _strNewData$15[ebp]
  001e6	50		 push	 eax
  001e7	8d 45 0c	 lea	 eax, DWORD PTR $T20[ebp]
  001ea	50		 push	 eax
  001eb	e8 00 00 00 00	 call	 ?GetStringData@CDataConversion@@SA?AV?$CStringT@DV?$StrTraitMFC_DLL@DV?$ChTraitsCRT@D@ATL@@@@@ATL@@AAV23@ABV23@_N@Z ; CDataConversion::GetStringData
  001f0	83 c4 10	 add	 esp, 16			; 00000010H
  001f3	8d 4d 08	 lea	 ecx, DWORD PTR _strNewData$15[ebp]
  001f6	ff 15 00 00 00
	00		 call	 DWORD PTR __imp_??1?$CStringT@DV?$StrTraitMFC_DLL@DV?$ChTraitsCRT@D@ATL@@@@@ATL@@QAE@XZ

; 663  : 	position.SetRight(CDataConversion::atob(GetData(data, "<Right>", "<\\Right>\r\n")));

  001fc	ff 75 0c	 push	 DWORD PTR $T20[ebp]
  001ff	c6 45 fc 0d	 mov	 BYTE PTR __$EHRec$[ebp+8], 13 ; 0000000dH
  00203	e8 00 00 00 00	 call	 ?atob@CDataConversion@@SA_NPBD@Z ; CDataConversion::atob
  00208	83 c4 04	 add	 esp, 4
  0020b	0f b6 c0	 movzx	 eax, al
  0020e	8b ce		 mov	 ecx, esi
  00210	50		 push	 eax
  00211	e8 00 00 00 00	 call	 ?SetRight@CTextHorzPosition@@QAEX_N@Z ; CTextHorzPosition::SetRight
  00216	8d 4d 0c	 lea	 ecx, DWORD PTR $T20[ebp]
  00219	ff 15 00 00 00
	00		 call	 DWORD PTR __imp_??1?$CStringT@DV?$StrTraitMFC_DLL@DV?$ChTraitsCRT@D@ATL@@@@@ATL@@QAE@XZ
  0021f	8d 4d e0	 lea	 ecx, DWORD PTR $T7[ebp]
  00222	ff 15 00 00 00
	00		 call	 DWORD PTR __imp_??1?$CStringT@DV?$StrTraitMFC_DLL@DV?$ChTraitsCRT@D@ATL@@@@@ATL@@QAE@XZ
  00228	8d 4d e4	 lea	 ecx, DWORD PTR $T10[ebp]
  0022b	c6 45 fc 05	 mov	 BYTE PTR __$EHRec$[ebp+8], 5
  0022f	ff 15 00 00 00
	00		 call	 DWORD PTR __imp_??1?$CStringT@DV?$StrTraitMFC_DLL@DV?$ChTraitsCRT@D@ATL@@@@@ATL@@QAE@XZ

; 664  : 	position.SetRightRate(CDataConversion::atob(GetData(data, "<Rate>", "<\\Rate>\r\n")));

  00235	68 00 00 00 00	 push	 OFFSET ??_C@_09ODLMLHBG@?$DM?2Rate?$DO?$AN?6@
  0023a	8d 4d e4	 lea	 ecx, DWORD PTR $T9[ebp]
  0023d	ff 15 00 00 00
	00		 call	 DWORD PTR __imp_??0?$CStringT@DV?$StrTraitMFC_DLL@DV?$ChTraitsCRT@D@ATL@@@@@ATL@@QAE@PBD@Z
  00243	68 00 00 00 00	 push	 OFFSET ??_C@_06DMADNNL@?$DMRate?$DO@
  00248	8d 4d e0	 lea	 ecx, DWORD PTR $T6[ebp]
  0024b	c6 45 fc 0e	 mov	 BYTE PTR __$EHRec$[ebp+8], 14 ; 0000000eH
  0024f	ff 15 00 00 00
	00		 call	 DWORD PTR __imp_??0?$CStringT@DV?$StrTraitMFC_DLL@DV?$ChTraitsCRT@D@ATL@@@@@ATL@@QAE@PBD@Z

; 384  : 	CString strNewData = strOrgData;

  00255	8d 45 f0	 lea	 eax, DWORD PTR _data$[ebp]

; 664  : 	position.SetRightRate(CDataConversion::atob(GetData(data, "<Rate>", "<\\Rate>\r\n")));

  00258	c6 45 fc 0f	 mov	 BYTE PTR __$EHRec$[ebp+8], 15 ; 0000000fH

; 384  : 	CString strNewData = strOrgData;

  0025c	50		 push	 eax
  0025d	8d 4d 08	 lea	 ecx, DWORD PTR _strNewData$14[ebp]
  00260	ff 15 00 00 00
	00		 call	 DWORD PTR __imp_??0?$CStringT@DV?$StrTraitMFC_DLL@DV?$ChTraitsCRT@D@ATL@@@@@ATL@@QAE@ABV01@@Z

; 385  : 	CDataConversion::GetStringData(strNewData, strTrimStart);

  00266	6a 01		 push	 1
  00268	8d 45 e0	 lea	 eax, DWORD PTR $T6[ebp]
  0026b	c6 45 fc 10	 mov	 BYTE PTR __$EHRec$[ebp+8], 16 ; 00000010H
  0026f	50		 push	 eax
  00270	8d 45 08	 lea	 eax, DWORD PTR _strNewData$14[ebp]
  00273	50		 push	 eax
  00274	8d 45 dc	 lea	 eax, DWORD PTR $T2[ebp]
  00277	50		 push	 eax
  00278	e8 00 00 00 00	 call	 ?GetStringData@CDataConversion@@SA?AV?$CStringT@DV?$StrTraitMFC_DLL@DV?$ChTraitsCRT@D@ATL@@@@@ATL@@AAV23@ABV23@_N@Z ; CDataConversion::GetStringData
  0027d	83 c4 10	 add	 esp, 16			; 00000010H
  00280	8d 4d dc	 lea	 ecx, DWORD PTR $T2[ebp]
  00283	ff 15 00 00 00
	00		 call	 DWORD PTR __imp_??1?$CStringT@DV?$StrTraitMFC_DLL@DV?$ChTraitsCRT@D@ATL@@@@@ATL@@QAE@XZ

; 386  : 	return CDataConversion::GetStringData(strNewData, strTrimEnd);

  00289	6a 01		 push	 1
  0028b	8d 45 e4	 lea	 eax, DWORD PTR $T9[ebp]
  0028e	50		 push	 eax
  0028f	8d 45 08	 lea	 eax, DWORD PTR _strNewData$14[ebp]
  00292	50		 push	 eax
  00293	8d 45 0c	 lea	 eax, DWORD PTR $T19[ebp]
  00296	50		 push	 eax
  00297	e8 00 00 00 00	 call	 ?GetStringData@CDataConversion@@SA?AV?$CStringT@DV?$StrTraitMFC_DLL@DV?$ChTraitsCRT@D@ATL@@@@@ATL@@AAV23@ABV23@_N@Z ; CDataConversion::GetStringData
  0029c	83 c4 10	 add	 esp, 16			; 00000010H
  0029f	8d 4d 08	 lea	 ecx, DWORD PTR _strNewData$14[ebp]
  002a2	ff 15 00 00 00
	00		 call	 DWORD PTR __imp_??1?$CStringT@DV?$StrTraitMFC_DLL@DV?$ChTraitsCRT@D@ATL@@@@@ATL@@QAE@XZ

; 664  : 	position.SetRightRate(CDataConversion::atob(GetData(data, "<Rate>", "<\\Rate>\r\n")));

  002a8	ff 75 0c	 push	 DWORD PTR $T19[ebp]
  002ab	c6 45 fc 11	 mov	 BYTE PTR __$EHRec$[ebp+8], 17 ; 00000011H
  002af	e8 00 00 00 00	 call	 ?atob@CDataConversion@@SA_NPBD@Z ; CDataConversion::atob
  002b4	83 c4 04	 add	 esp, 4
  002b7	0f b6 c0	 movzx	 eax, al
  002ba	50		 push	 eax
  002bb	8b ce		 mov	 ecx, esi
  002bd	e8 00 00 00 00	 call	 ?SetRightRate@CTextHorzPosition@@QAEX_N@Z ; CTextHorzPosition::SetRightRate
  002c2	8d 4d 0c	 lea	 ecx, DWORD PTR $T19[ebp]
  002c5	ff 15 00 00 00
	00		 call	 DWORD PTR __imp_??1?$CStringT@DV?$StrTraitMFC_DLL@DV?$ChTraitsCRT@D@ATL@@@@@ATL@@QAE@XZ
  002cb	8d 4d e0	 lea	 ecx, DWORD PTR $T6[ebp]
  002ce	ff 15 00 00 00
	00		 call	 DWORD PTR __imp_??1?$CStringT@DV?$StrTraitMFC_DLL@DV?$ChTraitsCRT@D@ATL@@@@@ATL@@QAE@XZ
  002d4	8d 4d e4	 lea	 ecx, DWORD PTR $T9[ebp]
  002d7	ff 15 00 00 00
	00		 call	 DWORD PTR __imp_??1?$CStringT@DV?$StrTraitMFC_DLL@DV?$ChTraitsCRT@D@ATL@@@@@ATL@@QAE@XZ

; 665  : 	return true;

  002dd	b3 01		 mov	 bl, 1
$LN16@GetTextHor:
  002df	8d 4d f0	 lea	 ecx, DWORD PTR _data$[ebp]
  002e2	ff 15 00 00 00
	00		 call	 DWORD PTR __imp_??1?$CStringT@DV?$StrTraitMFC_DLL@DV?$ChTraitsCRT@D@ATL@@@@@ATL@@QAE@XZ
  002e8	8a c3		 mov	 al, bl

; 666  : }

  002ea	8b 4d f4	 mov	 ecx, DWORD PTR __$EHRec$[ebp]
  002ed	64 89 0d 00 00
	00 00		 mov	 DWORD PTR fs:0, ecx
  002f4	59		 pop	 ecx
  002f5	5f		 pop	 edi
  002f6	5e		 pop	 esi
  002f7	5b		 pop	 ebx
  002f8	8b e5		 mov	 esp, ebp
  002fa	5d		 pop	 ebp
  002fb	c2 08 00	 ret	 8
_TEXT	ENDS
;	COMDAT text$x
text$x	SEGMENT
__unwindfunclet$?GetTextHorzPosition@CElementTreeBuilder@@ABE_NABV?$CStringT@DV?$StrTraitMFC_DLL@DV?$ChTraitsCRT@D@ATL@@@@@ATL@@AAVCTextHorzPosition@@@Z$0:
  00000	8d 4d e8	 lea	 ecx, DWORD PTR $T12[ebp]
  00003	ff 25 00 00 00
	00		 jmp	 DWORD PTR __imp_??1?$CStringT@DV?$StrTraitMFC_DLL@DV?$ChTraitsCRT@D@ATL@@@@@ATL@@QAE@XZ
__unwindfunclet$?GetTextHorzPosition@CElementTreeBuilder@@ABE_NABV?$CStringT@DV?$StrTraitMFC_DLL@DV?$ChTraitsCRT@D@ATL@@@@@ATL@@AAVCTextHorzPosition@@@Z$1:
  00009	8d 4d ec	 lea	 ecx, DWORD PTR $T13[ebp]
  0000c	ff 25 00 00 00
	00		 jmp	 DWORD PTR __imp_??1?$CStringT@DV?$StrTraitMFC_DLL@DV?$ChTraitsCRT@D@ATL@@@@@ATL@@QAE@XZ
__unwindfunclet$?GetTextHorzPosition@CElementTreeBuilder@@ABE_NABV?$CStringT@DV?$StrTraitMFC_DLL@DV?$ChTraitsCRT@D@ATL@@@@@ATL@@AAVCTextHorzPosition@@@Z$12:
  00012	8d 4d 08	 lea	 ecx, DWORD PTR _strNewData$17[ebp]
  00015	ff 25 00 00 00
	00		 jmp	 DWORD PTR __imp_??1?$CStringT@DV?$StrTraitMFC_DLL@DV?$ChTraitsCRT@D@ATL@@@@@ATL@@QAE@XZ
__unwindfunclet$?GetTextHorzPosition@CElementTreeBuilder@@ABE_NABV?$CStringT@DV?$StrTraitMFC_DLL@DV?$ChTraitsCRT@D@ATL@@@@@ATL@@AAVCTextHorzPosition@@@Z$2:
  0001b	8d 4d f0	 lea	 ecx, DWORD PTR _data$[ebp]
  0001e	ff 25 00 00 00
	00		 jmp	 DWORD PTR __imp_??1?$CStringT@DV?$StrTraitMFC_DLL@DV?$ChTraitsCRT@D@ATL@@@@@ATL@@QAE@XZ
__unwindfunclet$?GetTextHorzPosition@CElementTreeBuilder@@ABE_NABV?$CStringT@DV?$StrTraitMFC_DLL@DV?$ChTraitsCRT@D@ATL@@@@@ATL@@AAVCTextHorzPosition@@@Z$3:
  00024	8d 4d e0	 lea	 ecx, DWORD PTR $T8[ebp]
  00027	ff 25 00 00 00
	00		 jmp	 DWORD PTR __imp_??1?$CStringT@DV?$StrTraitMFC_DLL@DV?$ChTraitsCRT@D@ATL@@@@@ATL@@QAE@XZ
__unwindfunclet$?GetTextHorzPosition@CElementTreeBuilder@@ABE_NABV?$CStringT@DV?$StrTraitMFC_DLL@DV?$ChTraitsCRT@D@ATL@@@@@ATL@@AAVCTextHorzPosition@@@Z$4:
  0002d	8d 4d e4	 lea	 ecx, DWORD PTR $T11[ebp]
  00030	ff 25 00 00 00
	00		 jmp	 DWORD PTR __imp_??1?$CStringT@DV?$StrTraitMFC_DLL@DV?$ChTraitsCRT@D@ATL@@@@@ATL@@QAE@XZ
__unwindfunclet$?GetTextHorzPosition@CElementTreeBuilder@@ABE_NABV?$CStringT@DV?$StrTraitMFC_DLL@DV?$ChTraitsCRT@D@ATL@@@@@ATL@@AAVCTextHorzPosition@@@Z$15:
  00036	8d 4d 08	 lea	 ecx, DWORD PTR _strNewData$16[ebp]
  00039	ff 25 00 00 00
	00		 jmp	 DWORD PTR __imp_??1?$CStringT@DV?$StrTraitMFC_DLL@DV?$ChTraitsCRT@D@ATL@@@@@ATL@@QAE@XZ
__unwindfunclet$?GetTextHorzPosition@CElementTreeBuilder@@ABE_NABV?$CStringT@DV?$StrTraitMFC_DLL@DV?$ChTraitsCRT@D@ATL@@@@@ATL@@AAVCTextHorzPosition@@@Z$5:
  0003f	8d 4d 0c	 lea	 ecx, DWORD PTR $T21[ebp]
  00042	ff 25 00 00 00
	00		 jmp	 DWORD PTR __imp_??1?$CStringT@DV?$StrTraitMFC_DLL@DV?$ChTraitsCRT@D@ATL@@@@@ATL@@QAE@XZ
__unwindfunclet$?GetTextHorzPosition@CElementTreeBuilder@@ABE_NABV?$CStringT@DV?$StrTraitMFC_DLL@DV?$ChTraitsCRT@D@ATL@@@@@ATL@@AAVCTextHorzPosition@@@Z$6:
  00048	8d 4d e4	 lea	 ecx, DWORD PTR $T10[ebp]
  0004b	ff 25 00 00 00
	00		 jmp	 DWORD PTR __imp_??1?$CStringT@DV?$StrTraitMFC_DLL@DV?$ChTraitsCRT@D@ATL@@@@@ATL@@QAE@XZ
__unwindfunclet$?GetTextHorzPosition@CElementTreeBuilder@@ABE_NABV?$CStringT@DV?$StrTraitMFC_DLL@DV?$ChTraitsCRT@D@ATL@@@@@ATL@@AAVCTextHorzPosition@@@Z$7:
  00051	8d 4d e0	 lea	 ecx, DWORD PTR $T7[ebp]
  00054	ff 25 00 00 00
	00		 jmp	 DWORD PTR __imp_??1?$CStringT@DV?$StrTraitMFC_DLL@DV?$ChTraitsCRT@D@ATL@@@@@ATL@@QAE@XZ
__unwindfunclet$?GetTextHorzPosition@CElementTreeBuilder@@ABE_NABV?$CStringT@DV?$StrTraitMFC_DLL@DV?$ChTraitsCRT@D@ATL@@@@@ATL@@AAVCTextHorzPosition@@@Z$18:
  0005a	8d 4d 08	 lea	 ecx, DWORD PTR _strNewData$15[ebp]
  0005d	ff 25 00 00 00
	00		 jmp	 DWORD PTR __imp_??1?$CStringT@DV?$StrTraitMFC_DLL@DV?$ChTraitsCRT@D@ATL@@@@@ATL@@QAE@XZ
__unwindfunclet$?GetTextHorzPosition@CElementTreeBuilder@@ABE_NABV?$CStringT@DV?$StrTraitMFC_DLL@DV?$ChTraitsCRT@D@ATL@@@@@ATL@@AAVCTextHorzPosition@@@Z$8:
  00063	8d 4d 0c	 lea	 ecx, DWORD PTR $T20[ebp]
  00066	ff 25 00 00 00
	00		 jmp	 DWORD PTR __imp_??1?$CStringT@DV?$StrTraitMFC_DLL@DV?$ChTraitsCRT@D@ATL@@@@@ATL@@QAE@XZ
__unwindfunclet$?GetTextHorzPosition@CElementTreeBuilder@@ABE_NABV?$CStringT@DV?$StrTraitMFC_DLL@DV?$ChTraitsCRT@D@ATL@@@@@ATL@@AAVCTextHorzPosition@@@Z$9:
  0006c	8d 4d e4	 lea	 ecx, DWORD PTR $T9[ebp]
  0006f	ff 25 00 00 00
	00		 jmp	 DWORD PTR __imp_??1?$CStringT@DV?$StrTraitMFC_DLL@DV?$ChTraitsCRT@D@ATL@@@@@ATL@@QAE@XZ
__unwindfunclet$?GetTextHorzPosition@CElementTreeBuilder@@ABE_NABV?$CStringT@DV?$StrTraitMFC_DLL@DV?$ChTraitsCRT@D@ATL@@@@@ATL@@AAVCTextHorzPosition@@@Z$10:
  00075	8d 4d e0	 lea	 ecx, DWORD PTR $T6[ebp]
  00078	ff 25 00 00 00
	00		 jmp	 DWORD PTR __imp_??1?$CStringT@DV?$StrTraitMFC_DLL@DV?$ChTraitsCRT@D@ATL@@@@@ATL@@QAE@XZ
__unwindfunclet$?GetTextHorzPosition@CElementTreeBuilder@@ABE_NABV?$CStringT@DV?$StrTraitMFC_DLL@DV?$ChTraitsCRT@D@ATL@@@@@ATL@@AAVCTextHorzPosition@@@Z$21:
  0007e	8d 4d 08	 lea	 ecx, DWORD PTR _strNewData$14[ebp]
  00081	ff 25 00 00 00
	00		 jmp	 DWORD PTR __imp_??1?$CStringT@DV?$StrTraitMFC_DLL@DV?$ChTraitsCRT@D@ATL@@@@@ATL@@QAE@XZ
__unwindfunclet$?GetTextHorzPosition@CElementTreeBuilder@@ABE_NABV?$CStringT@DV?$StrTraitMFC_DLL@DV?$ChTraitsCRT@D@ATL@@@@@ATL@@AAVCTextHorzPosition@@@Z$11:
  00087	8d 4d 0c	 lea	 ecx, DWORD PTR $T19[ebp]
  0008a	ff 25 00 00 00
	00		 jmp	 DWORD PTR __imp_??1?$CStringT@DV?$StrTraitMFC_DLL@DV?$ChTraitsCRT@D@ATL@@@@@ATL@@QAE@XZ
  00090	cc		 int	 3
  00091	cc		 int	 3
  00092	cc		 int	 3
  00093	cc		 int	 3
  00094	cc		 int	 3
__ehhandler$?GetTextHorzPosition@CElementTreeBuilder@@ABE_NABV?$CStringT@DV?$StrTraitMFC_DLL@DV?$ChTraitsCRT@D@ATL@@@@@ATL@@AAVCTextHorzPosition@@@Z:
  00095	90		 npad	 1
  00096	90		 npad	 1
  00097	8b 54 24 08	 mov	 edx, DWORD PTR [esp+8]
  0009b	8d 42 0c	 lea	 eax, DWORD PTR [edx+12]
  0009e	8b 4a d8	 mov	 ecx, DWORD PTR [edx-40]
  000a1	33 c8		 xor	 ecx, eax
  000a3	e8 00 00 00 00	 call	 @__security_check_cookie@4
  000a8	b8 00 00 00 00	 mov	 eax, OFFSET __ehfuncinfo$?GetTextHorzPosition@CElementTreeBuilder@@ABE_NABV?$CStringT@DV?$StrTraitMFC_DLL@DV?$ChTraitsCRT@D@ATL@@@@@ATL@@AAVCTextHorzPosition@@@Z
  000ad	e9 00 00 00 00	 jmp	 ___CxxFrameHandler3
text$x	ENDS
?GetTextHorzPosition@CElementTreeBuilder@@ABE_NABV?$CStringT@DV?$StrTraitMFC_DLL@DV?$ChTraitsCRT@D@ATL@@@@@ATL@@AAVCTextHorzPosition@@@Z ENDP ; CElementTreeBuilder::GetTextHorzPosition
; Function compile flags: /Ogtp
; File D:\git\src\IBK\IBK_DRFN\ProjSrc\SrcChartEx\ChartAddIn\ChartAnalysisToolAddIn\AnalysisTool\ElementTreeBuilder.cpp
; File C:\Program Files (x86)\Microsoft Visual Studio\2019\Community\VC\Tools\MSVC\14.29.30133\atlmfc\include\atlsimpstr.h
; File D:\git\src\IBK\IBK_DRFN\ProjSrc\SrcChartEx\ChartAddIn\ChartAnalysisToolAddIn\AnalysisTool\ElementTreeBuilder.cpp
; File C:\Program Files (x86)\Microsoft Visual Studio\2019\Community\VC\Tools\MSVC\14.29.30133\atlmfc\include\atlsimpstr.h
; File D:\git\src\IBK\IBK_DRFN\ProjSrc\SrcChartEx\ChartAddIn\ChartAnalysisToolAddIn\AnalysisTool\ElementTreeBuilder.cpp
;	COMDAT ?GetTextShowPosition@CElementTreeBuilder@@ABE_NABV?$CStringT@DV?$StrTraitMFC_DLL@DV?$ChTraitsCRT@D@ATL@@@@@ATL@@AAVCTextShowPosition@@@Z
_TEXT	SEGMENT
$T2 = -36						; size = 4
$T3 = -36						; size = 4
$T4 = -32						; size = 4
$T5 = -28						; size = 4
$T6 = -28						; size = 4
$T7 = -24						; size = 4
_data$ = -20						; size = 4
_show$ = -16						; size = 4
__$EHRec$ = -12						; size = 12
_strNewData$8 = 8					; size = 4
_strNewData$9 = 8					; size = 4
$T10 = 8						; size = 4
_strData$ = 8						; size = 4
_position$ = 12						; size = 4
?GetTextShowPosition@CElementTreeBuilder@@ABE_NABV?$CStringT@DV?$StrTraitMFC_DLL@DV?$ChTraitsCRT@D@ATL@@@@@ATL@@AAVCTextShowPosition@@@Z PROC ; CElementTreeBuilder::GetTextShowPosition, COMDAT
; _this$ = ecx

; 638  : {

  00000	55		 push	 ebp
  00001	8b ec		 mov	 ebp, esp
  00003	6a ff		 push	 -1
  00005	68 00 00 00 00	 push	 __ehhandler$?GetTextShowPosition@CElementTreeBuilder@@ABE_NABV?$CStringT@DV?$StrTraitMFC_DLL@DV?$ChTraitsCRT@D@ATL@@@@@ATL@@AAVCTextShowPosition@@@Z
  0000a	64 a1 00 00 00
	00		 mov	 eax, DWORD PTR fs:0
  00010	50		 push	 eax
  00011	83 ec 18	 sub	 esp, 24			; 00000018H
  00014	53		 push	 ebx
  00015	56		 push	 esi
  00016	57		 push	 edi
  00017	a1 00 00 00 00	 mov	 eax, DWORD PTR ___security_cookie
  0001c	33 c5		 xor	 eax, ebp
  0001e	50		 push	 eax
  0001f	8d 45 f4	 lea	 eax, DWORD PTR __$EHRec$[ebp]
  00022	64 a3 00 00 00
	00		 mov	 DWORD PTR fs:0, eax
  00028	8b f9		 mov	 edi, ecx

; 639  : 	//color
; 640  : 	CString data = GetData(strData, "<Horz>\r\n", "<\\Horz>\r\n");

  0002a	68 00 00 00 00	 push	 OFFSET ??_C@_09GKBBACOG@?$DM?2Horz?$DO?$AN?6@
  0002f	8d 4d e4	 lea	 ecx, DWORD PTR $T6[ebp]
  00032	ff 15 00 00 00
	00		 call	 DWORD PTR __imp_??0?$CStringT@DV?$StrTraitMFC_DLL@DV?$ChTraitsCRT@D@ATL@@@@@ATL@@QAE@PBD@Z
  00038	68 00 00 00 00	 push	 OFFSET ??_C@_08EBDOJNCM@?$DMHorz?$DO?$AN?6@
  0003d	8d 4d e8	 lea	 ecx, DWORD PTR $T7[ebp]
  00040	c7 45 fc 00 00
	00 00		 mov	 DWORD PTR __$EHRec$[ebp+8], 0
  00047	ff 15 00 00 00
	00		 call	 DWORD PTR __imp_??0?$CStringT@DV?$StrTraitMFC_DLL@DV?$ChTraitsCRT@D@ATL@@@@@ATL@@QAE@PBD@Z

; 384  : 	CString strNewData = strOrgData;

  0004d	8b 75 08	 mov	 esi, DWORD PTR _strData$[ebp]
  00050	8d 4d 08	 lea	 ecx, DWORD PTR _strNewData$9[ebp]
  00053	56		 push	 esi

; 639  : 	//color
; 640  : 	CString data = GetData(strData, "<Horz>\r\n", "<\\Horz>\r\n");

  00054	c6 45 fc 01	 mov	 BYTE PTR __$EHRec$[ebp+8], 1

; 384  : 	CString strNewData = strOrgData;

  00058	ff 15 00 00 00
	00		 call	 DWORD PTR __imp_??0?$CStringT@DV?$StrTraitMFC_DLL@DV?$ChTraitsCRT@D@ATL@@@@@ATL@@QAE@ABV01@@Z

; 385  : 	CDataConversion::GetStringData(strNewData, strTrimStart);

  0005e	6a 01		 push	 1
  00060	8d 45 e8	 lea	 eax, DWORD PTR $T7[ebp]
  00063	c6 45 fc 02	 mov	 BYTE PTR __$EHRec$[ebp+8], 2
  00067	50		 push	 eax
  00068	8d 45 08	 lea	 eax, DWORD PTR _strNewData$9[ebp]
  0006b	50		 push	 eax
  0006c	8d 45 dc	 lea	 eax, DWORD PTR $T2[ebp]
  0006f	50		 push	 eax
  00070	e8 00 00 00 00	 call	 ?GetStringData@CDataConversion@@SA?AV?$CStringT@DV?$StrTraitMFC_DLL@DV?$ChTraitsCRT@D@ATL@@@@@ATL@@AAV23@ABV23@_N@Z ; CDataConversion::GetStringData
  00075	83 c4 10	 add	 esp, 16			; 00000010H
  00078	8d 4d dc	 lea	 ecx, DWORD PTR $T2[ebp]
  0007b	ff 15 00 00 00
	00		 call	 DWORD PTR __imp_??1?$CStringT@DV?$StrTraitMFC_DLL@DV?$ChTraitsCRT@D@ATL@@@@@ATL@@QAE@XZ

; 386  : 	return CDataConversion::GetStringData(strNewData, strTrimEnd);

  00081	6a 01		 push	 1
  00083	8d 45 e4	 lea	 eax, DWORD PTR $T6[ebp]
  00086	50		 push	 eax
  00087	8d 45 08	 lea	 eax, DWORD PTR _strNewData$9[ebp]
  0008a	50		 push	 eax
  0008b	8d 45 ec	 lea	 eax, DWORD PTR _data$[ebp]
  0008e	50		 push	 eax
  0008f	e8 00 00 00 00	 call	 ?GetStringData@CDataConversion@@SA?AV?$CStringT@DV?$StrTraitMFC_DLL@DV?$ChTraitsCRT@D@ATL@@@@@ATL@@AAV23@ABV23@_N@Z ; CDataConversion::GetStringData
  00094	83 c4 10	 add	 esp, 16			; 00000010H
  00097	8d 4d 08	 lea	 ecx, DWORD PTR _strNewData$9[ebp]
  0009a	ff 15 00 00 00
	00		 call	 DWORD PTR __imp_??1?$CStringT@DV?$StrTraitMFC_DLL@DV?$ChTraitsCRT@D@ATL@@@@@ATL@@QAE@XZ

; 639  : 	//color
; 640  : 	CString data = GetData(strData, "<Horz>\r\n", "<\\Horz>\r\n");

  000a0	8d 4d e8	 lea	 ecx, DWORD PTR $T7[ebp]
  000a3	ff 15 00 00 00
	00		 call	 DWORD PTR __imp_??1?$CStringT@DV?$StrTraitMFC_DLL@DV?$ChTraitsCRT@D@ATL@@@@@ATL@@QAE@XZ
  000a9	8d 4d e4	 lea	 ecx, DWORD PTR $T6[ebp]
  000ac	c6 45 fc 05	 mov	 BYTE PTR __$EHRec$[ebp+8], 5
  000b0	ff 15 00 00 00
	00		 call	 DWORD PTR __imp_??1?$CStringT@DV?$StrTraitMFC_DLL@DV?$ChTraitsCRT@D@ATL@@@@@ATL@@QAE@XZ
; File C:\Program Files (x86)\Microsoft Visual Studio\2019\Community\VC\Tools\MSVC\14.29.30133\atlmfc\include\atlsimpstr.h

; 519  : 		return( GetData()->nDataLength );

  000b6	8b 45 ec	 mov	 eax, DWORD PTR _data$[ebp]

; 533  : 		return( GetLength() == 0 );

  000b9	83 78 f4 00	 cmp	 DWORD PTR [eax-12], 0
; File D:\git\src\IBK\IBK_DRFN\ProjSrc\SrcChartEx\ChartAddIn\ChartAnalysisToolAddIn\AnalysisTool\ElementTreeBuilder.cpp

; 641  : 	if(data.IsEmpty())

  000bd	75 07		 jne	 SHORT $LN2@GetTextSho
  000bf	32 db		 xor	 bl, bl
  000c1	e9 cd 00 00 00	 jmp	 $LN11@GetTextSho
$LN2@GetTextSho:

; 642  : 		return false;
; 643  : 	
; 644  : 	CString show = GetData(data, "<Show>", "<\\Show>\r\n");

  000c6	68 00 00 00 00	 push	 OFFSET ??_C@_09MJLPMEOB@?$DM?2Show?$DO?$AN?6@
  000cb	8d 4d dc	 lea	 ecx, DWORD PTR $T3[ebp]
  000ce	ff 15 00 00 00
	00		 call	 DWORD PTR __imp_??0?$CStringT@DV?$StrTraitMFC_DLL@DV?$ChTraitsCRT@D@ATL@@@@@ATL@@QAE@PBD@Z
  000d4	68 00 00 00 00	 push	 OFFSET ??_C@_06FNDGCLIP@?$DMShow?$DO@
  000d9	8d 4d e0	 lea	 ecx, DWORD PTR $T4[ebp]
  000dc	c6 45 fc 06	 mov	 BYTE PTR __$EHRec$[ebp+8], 6
  000e0	ff 15 00 00 00
	00		 call	 DWORD PTR __imp_??0?$CStringT@DV?$StrTraitMFC_DLL@DV?$ChTraitsCRT@D@ATL@@@@@ATL@@QAE@PBD@Z

; 384  : 	CString strNewData = strOrgData;

  000e6	8d 45 ec	 lea	 eax, DWORD PTR _data$[ebp]

; 642  : 		return false;
; 643  : 	
; 644  : 	CString show = GetData(data, "<Show>", "<\\Show>\r\n");

  000e9	c6 45 fc 07	 mov	 BYTE PTR __$EHRec$[ebp+8], 7

; 384  : 	CString strNewData = strOrgData;

  000ed	50		 push	 eax
  000ee	8d 4d 08	 lea	 ecx, DWORD PTR _strNewData$8[ebp]
  000f1	ff 15 00 00 00
	00		 call	 DWORD PTR __imp_??0?$CStringT@DV?$StrTraitMFC_DLL@DV?$ChTraitsCRT@D@ATL@@@@@ATL@@QAE@ABV01@@Z

; 385  : 	CDataConversion::GetStringData(strNewData, strTrimStart);

  000f7	6a 01		 push	 1
  000f9	8d 45 e0	 lea	 eax, DWORD PTR $T4[ebp]
  000fc	c6 45 fc 08	 mov	 BYTE PTR __$EHRec$[ebp+8], 8
  00100	50		 push	 eax
  00101	8d 45 08	 lea	 eax, DWORD PTR _strNewData$8[ebp]
  00104	50		 push	 eax
  00105	8d 45 e4	 lea	 eax, DWORD PTR $T5[ebp]
  00108	50		 push	 eax
  00109	e8 00 00 00 00	 call	 ?GetStringData@CDataConversion@@SA?AV?$CStringT@DV?$StrTraitMFC_DLL@DV?$ChTraitsCRT@D@ATL@@@@@ATL@@AAV23@ABV23@_N@Z ; CDataConversion::GetStringData
  0010e	83 c4 10	 add	 esp, 16			; 00000010H
  00111	8d 4d e4	 lea	 ecx, DWORD PTR $T5[ebp]
  00114	ff 15 00 00 00
	00		 call	 DWORD PTR __imp_??1?$CStringT@DV?$StrTraitMFC_DLL@DV?$ChTraitsCRT@D@ATL@@@@@ATL@@QAE@XZ

; 386  : 	return CDataConversion::GetStringData(strNewData, strTrimEnd);

  0011a	6a 01		 push	 1
  0011c	8d 45 dc	 lea	 eax, DWORD PTR $T3[ebp]
  0011f	50		 push	 eax
  00120	8d 45 08	 lea	 eax, DWORD PTR _strNewData$8[ebp]
  00123	50		 push	 eax
  00124	8d 45 f0	 lea	 eax, DWORD PTR _show$[ebp]
  00127	50		 push	 eax
  00128	e8 00 00 00 00	 call	 ?GetStringData@CDataConversion@@SA?AV?$CStringT@DV?$StrTraitMFC_DLL@DV?$ChTraitsCRT@D@ATL@@@@@ATL@@AAV23@ABV23@_N@Z ; CDataConversion::GetStringData
  0012d	83 c4 10	 add	 esp, 16			; 00000010H
  00130	8d 4d 08	 lea	 ecx, DWORD PTR _strNewData$8[ebp]
  00133	ff 15 00 00 00
	00		 call	 DWORD PTR __imp_??1?$CStringT@DV?$StrTraitMFC_DLL@DV?$ChTraitsCRT@D@ATL@@@@@ATL@@QAE@XZ

; 642  : 		return false;
; 643  : 	
; 644  : 	CString show = GetData(data, "<Show>", "<\\Show>\r\n");

  00139	8d 4d e0	 lea	 ecx, DWORD PTR $T4[ebp]
  0013c	ff 15 00 00 00
	00		 call	 DWORD PTR __imp_??1?$CStringT@DV?$StrTraitMFC_DLL@DV?$ChTraitsCRT@D@ATL@@@@@ATL@@QAE@XZ
  00142	8d 4d dc	 lea	 ecx, DWORD PTR $T3[ebp]
  00145	c6 45 fc 0b	 mov	 BYTE PTR __$EHRec$[ebp+8], 11 ; 0000000bH
  00149	ff 15 00 00 00
	00		 call	 DWORD PTR __imp_??1?$CStringT@DV?$StrTraitMFC_DLL@DV?$ChTraitsCRT@D@ATL@@@@@ATL@@QAE@XZ
; File C:\Program Files (x86)\Microsoft Visual Studio\2019\Community\VC\Tools\MSVC\14.29.30133\atlmfc\include\atlsimpstr.h

; 533  : 		return( GetLength() == 0 );

  0014f	8b 45 f0	 mov	 eax, DWORD PTR _show$[ebp]
  00152	83 78 f4 00	 cmp	 DWORD PTR [eax-12], 0
; File D:\git\src\IBK\IBK_DRFN\ProjSrc\SrcChartEx\ChartAddIn\ChartAnalysisToolAddIn\AnalysisTool\ElementTreeBuilder.cpp

; 645  : 	if(show.IsEmpty())

  00156	75 04		 jne	 SHORT $LN3@GetTextSho
  00158	32 db		 xor	 bl, bl
  0015a	eb 2e		 jmp	 SHORT $LN12@GetTextSho
$LN3@GetTextSho:

; 646  : 		return false;
; 647  : 
; 648  : 	position.SetTextEnvironment(GetTextEnvironment(strData));

  0015c	56		 push	 esi
  0015d	8d 45 08	 lea	 eax, DWORD PTR $T10[ebp]
  00160	8b cf		 mov	 ecx, edi
  00162	50		 push	 eax
  00163	e8 00 00 00 00	 call	 ?GetTextEnvironment@CElementTreeBuilder@@ABE?AVCTextEnvironment@@ABV?$CStringT@DV?$StrTraitMFC_DLL@DV?$ChTraitsCRT@D@ATL@@@@@ATL@@@Z ; CElementTreeBuilder::GetTextEnvironment
  00168	8b 4d 0c	 mov	 ecx, DWORD PTR _position$[ebp]
  0016b	50		 push	 eax
  0016c	e8 00 00 00 00	 call	 ?SetTextEnvironment@CTextPosition@@QAEXABVCTextEnvironment@@@Z ; CTextPosition::SetTextEnvironment

; 649  : 	position.SetShow(CDataConversion::atob(show));

  00171	ff 75 f0	 push	 DWORD PTR _show$[ebp]
  00174	e8 00 00 00 00	 call	 ?atob@CDataConversion@@SA_NPBD@Z ; CDataConversion::atob
  00179	8b 4d 0c	 mov	 ecx, DWORD PTR _position$[ebp]
  0017c	83 c4 04	 add	 esp, 4
  0017f	0f b6 c0	 movzx	 eax, al
  00182	50		 push	 eax
  00183	e8 00 00 00 00	 call	 ?SetShow@CTextShowPosition@@QAEX_N@Z ; CTextShowPosition::SetShow

; 650  : 	return true;

  00188	b3 01		 mov	 bl, 1
$LN12@GetTextSho:
  0018a	8d 4d f0	 lea	 ecx, DWORD PTR _show$[ebp]
  0018d	ff 15 00 00 00
	00		 call	 DWORD PTR __imp_??1?$CStringT@DV?$StrTraitMFC_DLL@DV?$ChTraitsCRT@D@ATL@@@@@ATL@@QAE@XZ
$LN11@GetTextSho:
  00193	8d 4d ec	 lea	 ecx, DWORD PTR _data$[ebp]
  00196	ff 15 00 00 00
	00		 call	 DWORD PTR __imp_??1?$CStringT@DV?$StrTraitMFC_DLL@DV?$ChTraitsCRT@D@ATL@@@@@ATL@@QAE@XZ
  0019c	8a c3		 mov	 al, bl

; 651  : }

  0019e	8b 4d f4	 mov	 ecx, DWORD PTR __$EHRec$[ebp]
  001a1	64 89 0d 00 00
	00 00		 mov	 DWORD PTR fs:0, ecx
  001a8	59		 pop	 ecx
  001a9	5f		 pop	 edi
  001aa	5e		 pop	 esi
  001ab	5b		 pop	 ebx
  001ac	8b e5		 mov	 esp, ebp
  001ae	5d		 pop	 ebp
  001af	c2 08 00	 ret	 8
_TEXT	ENDS
;	COMDAT text$x
text$x	SEGMENT
__unwindfunclet$?GetTextShowPosition@CElementTreeBuilder@@ABE_NABV?$CStringT@DV?$StrTraitMFC_DLL@DV?$ChTraitsCRT@D@ATL@@@@@ATL@@AAVCTextShowPosition@@@Z$0:
  00000	8d 4d e4	 lea	 ecx, DWORD PTR $T6[ebp]
  00003	ff 25 00 00 00
	00		 jmp	 DWORD PTR __imp_??1?$CStringT@DV?$StrTraitMFC_DLL@DV?$ChTraitsCRT@D@ATL@@@@@ATL@@QAE@XZ
__unwindfunclet$?GetTextShowPosition@CElementTreeBuilder@@ABE_NABV?$CStringT@DV?$StrTraitMFC_DLL@DV?$ChTraitsCRT@D@ATL@@@@@ATL@@AAVCTextShowPosition@@@Z$1:
  00009	8d 4d e8	 lea	 ecx, DWORD PTR $T7[ebp]
  0000c	ff 25 00 00 00
	00		 jmp	 DWORD PTR __imp_??1?$CStringT@DV?$StrTraitMFC_DLL@DV?$ChTraitsCRT@D@ATL@@@@@ATL@@QAE@XZ
__unwindfunclet$?GetTextShowPosition@CElementTreeBuilder@@ABE_NABV?$CStringT@DV?$StrTraitMFC_DLL@DV?$ChTraitsCRT@D@ATL@@@@@ATL@@AAVCTextShowPosition@@@Z$6:
  00012	8d 4d 08	 lea	 ecx, DWORD PTR _strNewData$9[ebp]
  00015	ff 25 00 00 00
	00		 jmp	 DWORD PTR __imp_??1?$CStringT@DV?$StrTraitMFC_DLL@DV?$ChTraitsCRT@D@ATL@@@@@ATL@@QAE@XZ
__unwindfunclet$?GetTextShowPosition@CElementTreeBuilder@@ABE_NABV?$CStringT@DV?$StrTraitMFC_DLL@DV?$ChTraitsCRT@D@ATL@@@@@ATL@@AAVCTextShowPosition@@@Z$2:
  0001b	8d 4d ec	 lea	 ecx, DWORD PTR _data$[ebp]
  0001e	ff 25 00 00 00
	00		 jmp	 DWORD PTR __imp_??1?$CStringT@DV?$StrTraitMFC_DLL@DV?$ChTraitsCRT@D@ATL@@@@@ATL@@QAE@XZ
__unwindfunclet$?GetTextShowPosition@CElementTreeBuilder@@ABE_NABV?$CStringT@DV?$StrTraitMFC_DLL@DV?$ChTraitsCRT@D@ATL@@@@@ATL@@AAVCTextShowPosition@@@Z$3:
  00024	8d 4d dc	 lea	 ecx, DWORD PTR $T3[ebp]
  00027	ff 25 00 00 00
	00		 jmp	 DWORD PTR __imp_??1?$CStringT@DV?$StrTraitMFC_DLL@DV?$ChTraitsCRT@D@ATL@@@@@ATL@@QAE@XZ
__unwindfunclet$?GetTextShowPosition@CElementTreeBuilder@@ABE_NABV?$CStringT@DV?$StrTraitMFC_DLL@DV?$ChTraitsCRT@D@ATL@@@@@ATL@@AAVCTextShowPosition@@@Z$4:
  0002d	8d 4d e0	 lea	 ecx, DWORD PTR $T4[ebp]
  00030	ff 25 00 00 00
	00		 jmp	 DWORD PTR __imp_??1?$CStringT@DV?$StrTraitMFC_DLL@DV?$ChTraitsCRT@D@ATL@@@@@ATL@@QAE@XZ
__unwindfunclet$?GetTextShowPosition@CElementTreeBuilder@@ABE_NABV?$CStringT@DV?$StrTraitMFC_DLL@DV?$ChTraitsCRT@D@ATL@@@@@ATL@@AAVCTextShowPosition@@@Z$9:
  00036	8d 4d 08	 lea	 ecx, DWORD PTR _strNewData$8[ebp]
  00039	ff 25 00 00 00
	00		 jmp	 DWORD PTR __imp_??1?$CStringT@DV?$StrTraitMFC_DLL@DV?$ChTraitsCRT@D@ATL@@@@@ATL@@QAE@XZ
__unwindfunclet$?GetTextShowPosition@CElementTreeBuilder@@ABE_NABV?$CStringT@DV?$StrTraitMFC_DLL@DV?$ChTraitsCRT@D@ATL@@@@@ATL@@AAVCTextShowPosition@@@Z$5:
  0003f	8d 4d f0	 lea	 ecx, DWORD PTR _show$[ebp]
  00042	ff 25 00 00 00
	00		 jmp	 DWORD PTR __imp_??1?$CStringT@DV?$StrTraitMFC_DLL@DV?$ChTraitsCRT@D@ATL@@@@@ATL@@QAE@XZ
  00048	cc		 int	 3
  00049	cc		 int	 3
  0004a	cc		 int	 3
  0004b	cc		 int	 3
  0004c	cc		 int	 3
__ehhandler$?GetTextShowPosition@CElementTreeBuilder@@ABE_NABV?$CStringT@DV?$StrTraitMFC_DLL@DV?$ChTraitsCRT@D@ATL@@@@@ATL@@AAVCTextShowPosition@@@Z:
  0004d	90		 npad	 1
  0004e	90		 npad	 1
  0004f	8b 54 24 08	 mov	 edx, DWORD PTR [esp+8]
  00053	8d 42 0c	 lea	 eax, DWORD PTR [edx+12]
  00056	8b 4a d8	 mov	 ecx, DWORD PTR [edx-40]
  00059	33 c8		 xor	 ecx, eax
  0005b	e8 00 00 00 00	 call	 @__security_check_cookie@4
  00060	b8 00 00 00 00	 mov	 eax, OFFSET __ehfuncinfo$?GetTextShowPosition@CElementTreeBuilder@@ABE_NABV?$CStringT@DV?$StrTraitMFC_DLL@DV?$ChTraitsCRT@D@ATL@@@@@ATL@@AAVCTextShowPosition@@@Z
  00065	e9 00 00 00 00	 jmp	 ___CxxFrameHandler3
text$x	ENDS
?GetTextShowPosition@CElementTreeBuilder@@ABE_NABV?$CStringT@DV?$StrTraitMFC_DLL@DV?$ChTraitsCRT@D@ATL@@@@@ATL@@AAVCTextShowPosition@@@Z ENDP ; CElementTreeBuilder::GetTextShowPosition
; Function compile flags: /Ogtp
; File D:\git\src\IBK\IBK_DRFN\ProjSrc\SrcChartEx\ChartAddIn\ChartAnalysisToolAddIn\AnalysisTool\ElementTreeBuilder.cpp
; File C:\Program Files (x86)\Microsoft Visual Studio\2019\Community\VC\Tools\MSVC\14.29.30133\atlmfc\include\cstringt.h
; File D:\git\src\IBK\IBK_DRFN\ProjSrc\SrcChartEx\ChartAddIn\ChartAnalysisToolAddIn\AnalysisTool\ElementTreeBuilder.cpp
; File C:\Program Files (x86)\Microsoft Visual Studio\2019\Community\VC\Tools\MSVC\14.29.30133\atlmfc\include\cstringt.h
; File D:\git\src\IBK\IBK_DRFN\ProjSrc\SrcChartEx\ChartAddIn\ChartAnalysisToolAddIn\AnalysisTool\ElementTreeBuilder.cpp
; File C:\Program Files (x86)\Microsoft Visual Studio\2019\Community\VC\Tools\MSVC\14.29.30133\atlmfc\include\cstringt.h
; File D:\git\src\IBK\IBK_DRFN\ProjSrc\SrcChartEx\ChartAddIn\ChartAnalysisToolAddIn\AnalysisTool\ElementTreeBuilder.cpp
; File C:\Program Files (x86)\Microsoft Visual Studio\2019\Community\VC\Tools\MSVC\14.29.30133\atlmfc\include\atltime.h
; File D:\git\src\IBK\IBK_DRFN\ProjSrc\SrcChartEx\ChartAddIn\ChartAnalysisToolAddIn\AnalysisTool\ElementTreeBuilder.cpp
; File C:\Program Files (x86)\Microsoft Visual Studio\2019\Community\VC\Tools\MSVC\14.29.30133\atlmfc\include\atltime.h
; File D:\git\src\IBK\IBK_DRFN\ProjSrc\SrcChartEx\ChartAddIn\ChartAnalysisToolAddIn\AnalysisTool\ElementTreeBuilder.cpp
; File C:\Program Files (x86)\Microsoft Visual Studio\2019\Community\VC\Tools\MSVC\14.29.30133\atlmfc\include\atltime.h
; File D:\git\src\IBK\IBK_DRFN\ProjSrc\SrcChartEx\ChartAddIn\ChartAnalysisToolAddIn\AnalysisTool\ElementTreeBuilder.cpp
; File C:\Program Files (x86)\Microsoft Visual Studio\2019\Community\VC\Tools\MSVC\14.29.30133\atlmfc\include\atltime.h
; File D:\git\src\IBK\IBK_DRFN\ProjSrc\SrcChartEx\ChartAddIn\ChartAnalysisToolAddIn\AnalysisTool\ElementTreeBuilder.cpp
; File C:\Program Files (x86)\Microsoft Visual Studio\2019\Community\VC\Tools\MSVC\14.29.30133\atlmfc\include\atltime.h
; File D:\git\src\IBK\IBK_DRFN\ProjSrc\SrcChartEx\ChartAddIn\ChartAnalysisToolAddIn\AnalysisTool\ElementTreeBuilder.cpp
; File C:\Program Files (x86)\Microsoft Visual Studio\2019\Community\VC\Tools\MSVC\14.29.30133\atlmfc\include\cstringt.h
; File D:\git\src\IBK\IBK_DRFN\ProjSrc\SrcChartEx\ChartAddIn\ChartAnalysisToolAddIn\AnalysisTool\ElementTreeBuilder.cpp
; File C:\Program Files (x86)\Microsoft Visual Studio\2019\Community\VC\Tools\MSVC\14.29.30133\atlmfc\include\cstringt.h
; File D:\git\src\IBK\IBK_DRFN\ProjSrc\SrcChartEx\ChartAddIn\ChartAnalysisToolAddIn\AnalysisTool\ElementTreeBuilder.cpp
; File C:\Program Files (x86)\Microsoft Visual Studio\2019\Community\VC\Tools\MSVC\14.29.30133\atlmfc\include\cstringt.h
; File D:\git\src\IBK\IBK_DRFN\ProjSrc\SrcChartEx\ChartAddIn\ChartAnalysisToolAddIn\AnalysisTool\ElementTreeBuilder.cpp
; File C:\Program Files (x86)\Microsoft Visual Studio\2019\Community\VC\Tools\MSVC\14.29.30133\atlmfc\include\atlsimpstr.h
; File D:\git\src\IBK\IBK_DRFN\ProjSrc\SrcChartEx\ChartAddIn\ChartAnalysisToolAddIn\AnalysisTool\ElementTreeBuilder.cpp
; File C:\Program Files (x86)\Microsoft Visual Studio\2019\Community\VC\Tools\MSVC\14.29.30133\atlmfc\include\cstringt.h
; File D:\git\src\IBK\IBK_DRFN\ProjSrc\SrcChartEx\ChartAddIn\ChartAnalysisToolAddIn\AnalysisTool\ElementTreeBuilder.cpp
; File C:\Program Files (x86)\Microsoft Visual Studio\2019\Community\VC\Tools\MSVC\14.29.30133\atlmfc\include\cstringt.h
; File C:\Program Files (x86)\Microsoft Visual Studio\2019\Community\VC\Tools\MSVC\14.29.30133\atlmfc\include\atlsimpstr.h
; File C:\Program Files (x86)\Microsoft Visual Studio\2019\Community\VC\Tools\MSVC\14.29.30133\atlmfc\include\cstringt.h
; File D:\git\src\IBK\IBK_DRFN\ProjSrc\SrcChartEx\ChartAddIn\ChartAnalysisToolAddIn\AnalysisTool\ElementTreeBuilder.cpp
; File C:\Program Files (x86)\Microsoft Visual Studio\2019\Community\VC\Tools\MSVC\14.29.30133\atlmfc\include\cstringt.h
; File D:\git\src\IBK\IBK_DRFN\ProjSrc\SrcChartEx\ChartAddIn\ChartAnalysisToolAddIn\AnalysisTool\ElementTreeBuilder.cpp
; File C:\Program Files (x86)\Microsoft Visual Studio\2019\Community\VC\Tools\MSVC\14.29.30133\atlmfc\include\atlsimpstr.h
; File D:\git\src\IBK\IBK_DRFN\ProjSrc\SrcChartEx\ChartAddIn\ChartAnalysisToolAddIn\AnalysisTool\ElementTreeBuilder.cpp
; File C:\Program Files (x86)\Microsoft Visual Studio\2019\Community\VC\Tools\MSVC\14.29.30133\atlmfc\include\cstringt.h
; File D:\git\src\IBK\IBK_DRFN\ProjSrc\SrcChartEx\ChartAddIn\ChartAnalysisToolAddIn\AnalysisTool\ElementTreeBuilder.cpp
; File C:\Program Files (x86)\Microsoft Visual Studio\2019\Community\VC\Tools\MSVC\14.29.30133\atlmfc\include\cstringt.h
; File C:\Program Files (x86)\Microsoft Visual Studio\2019\Community\VC\Tools\MSVC\14.29.30133\atlmfc\include\atlsimpstr.h
; File C:\Program Files (x86)\Microsoft Visual Studio\2019\Community\VC\Tools\MSVC\14.29.30133\atlmfc\include\cstringt.h
; File D:\git\src\IBK\IBK_DRFN\ProjSrc\SrcChartEx\ChartAddIn\ChartAnalysisToolAddIn\AnalysisTool\ElementTreeBuilder.cpp
; File C:\Program Files (x86)\Microsoft Visual Studio\2019\Community\VC\Tools\MSVC\14.29.30133\atlmfc\include\cstringt.h
; File D:\git\src\IBK\IBK_DRFN\ProjSrc\SrcChartEx\ChartAddIn\ChartAnalysisToolAddIn\AnalysisTool\ElementTreeBuilder.cpp
; File C:\Program Files (x86)\Microsoft Visual Studio\2019\Community\VC\Tools\MSVC\14.29.30133\atlmfc\include\atlsimpstr.h
; File D:\git\src\IBK\IBK_DRFN\ProjSrc\SrcChartEx\ChartAddIn\ChartAnalysisToolAddIn\AnalysisTool\ElementTreeBuilder.cpp
; File C:\Program Files (x86)\Microsoft Visual Studio\2019\Community\VC\Tools\MSVC\14.29.30133\atlmfc\include\atlsimpstr.h
; File D:\git\src\IBK\IBK_DRFN\ProjSrc\SrcChartEx\ChartAddIn\ChartAnalysisToolAddIn\AnalysisTool\ElementTreeBuilder.cpp
; File C:\Program Files (x86)\Microsoft Visual Studio\2019\Community\VC\Tools\MSVC\14.29.30133\atlmfc\include\cstringt.h
; File D:\git\src\IBK\IBK_DRFN\ProjSrc\SrcChartEx\ChartAddIn\ChartAnalysisToolAddIn\AnalysisTool\ElementTreeBuilder.cpp
; File C:\Program Files (x86)\Microsoft Visual Studio\2019\Community\VC\Tools\MSVC\14.29.30133\atlmfc\include\cstringt.h
; File C:\Program Files (x86)\Microsoft Visual Studio\2019\Community\VC\Tools\MSVC\14.29.30133\atlmfc\include\atlsimpstr.h
; File C:\Program Files (x86)\Microsoft Visual Studio\2019\Community\VC\Tools\MSVC\14.29.30133\atlmfc\include\cstringt.h
; File D:\git\src\IBK\IBK_DRFN\ProjSrc\SrcChartEx\ChartAddIn\ChartAnalysisToolAddIn\AnalysisTool\ElementTreeBuilder.cpp
; File C:\Program Files (x86)\Microsoft Visual Studio\2019\Community\VC\Tools\MSVC\14.29.30133\atlmfc\include\cstringt.h
; File D:\git\src\IBK\IBK_DRFN\ProjSrc\SrcChartEx\ChartAddIn\ChartAnalysisToolAddIn\AnalysisTool\ElementTreeBuilder.cpp
; File C:\Program Files (x86)\Microsoft Visual Studio\2019\Community\VC\Tools\MSVC\14.29.30133\atlmfc\include\atlsimpstr.h
; File D:\git\src\IBK\IBK_DRFN\ProjSrc\SrcChartEx\ChartAddIn\ChartAnalysisToolAddIn\AnalysisTool\ElementTreeBuilder.cpp
; File C:\Program Files (x86)\Microsoft Visual Studio\2019\Community\VC\Tools\MSVC\14.29.30133\atlmfc\include\atlsimpstr.h
; File D:\git\src\IBK\IBK_DRFN\ProjSrc\SrcChartEx\ChartAddIn\ChartAnalysisToolAddIn\AnalysisTool\ElementTreeBuilder.cpp
; File C:\Program Files (x86)\Microsoft Visual Studio\2019\Community\VC\Tools\MSVC\14.29.30133\atlmfc\include\atltime.h
; File D:\git\src\IBK\IBK_DRFN\ProjSrc\SrcChartEx\ChartAddIn\ChartAnalysisToolAddIn\AnalysisTool\ElementTreeBuilder.cpp
;	COMDAT ?GetPoint@CElementTreeBuilder@@ABE?AVCCoordinate@@ABV?$CStringT@DV?$StrTraitMFC_DLL@DV?$ChTraitsCRT@D@ATL@@@@@ATL@@ABH@Z
_TEXT	SEGMENT
___$ReturnUdt$GSCopy$1$ = -452				; size = 4
$T2 = -448						; size = 4
_strY$ = -444						; size = 4
_strTimeDiff$ = -440					; size = 4
_strCurFull$3 = -436					; size = 4
$T4 = -432						; size = 4
tv669 = -428						; size = 8
_dX$ = -428						; size = 8
_nBlockTimeDiff$GSCopy$1$ = -420			; size = 4
___$ReturnUdt$GSCopy$ = -420				; size = 4
$T5 = -416						; size = 4
$T6 = -416						; size = 4
$T7 = -412						; size = 4
$T8 = -412						; size = 4
$T9 = -408						; size = 4
$T10 = -404						; size = 8
_timeCur$11 = -404					; size = 8
$T12 = -396						; size = 4
_strCurMon$13 = -396					; size = 4
_strTemp1$14 = -392					; size = 4
_strTemp1$15 = -392					; size = 4
_strDay$16 = -388					; size = 4
_strCurDate$17 = -384					; size = 4
$T18 = -384						; size = 4
tv879 = -380						; size = 4
$T19 = -380						; size = 4
$T20 = -380						; size = 4
$T21 = -380						; size = 4
$T22 = -380						; size = 4
_strCurYearMon$23 = -376				; size = 4
$T24 = -376						; size = 4
$T25 = -376						; size = 4
_strNewData$26 = -372					; size = 4
_strCurYear$27 = -372					; size = 4
_strMakeTime$28 = -368					; size = 4
_strYearMon$29 = -364					; size = 4
_strYear$30 = -364					; size = 4
$T31 = -364						; size = 4
_strType$ = -360					; size = 4
tv872 = -356						; size = 4
$T32 = -356						; size = 4
$T33 = -356						; size = 4
$T34 = -356						; size = 4
$T35 = -356						; size = 4
$T36 = -356						; size = 4
$T37 = -356						; size = 4
_strDay$38 = -352					; size = 4
_strMon$39 = -352					; size = 4
$T40 = -352						; size = 4
$T41 = -352						; size = 4
_strX$ = -348						; size = 4
_ptmTemp$42 = -344					; size = 36
_ptmTemp$43 = -344					; size = 36
_ptmTemp$44 = -308					; size = 36
_ptmTemp$45 = -308					; size = 36
_ptmTemp$46 = -308					; size = 36
_szBuffer$47 = -272					; size = 128
_szBuffer$48 = -272					; size = 128
_szBuffer$49 = -144					; size = 128
_szBuffer$50 = -144					; size = 128
_szBuffer$51 = -144					; size = 128
__$ArrayPad$ = -16					; size = 4
__$EHRec$ = -12						; size = 12
___$ReturnUdt$ = 8					; size = 4
_strData$ = 12						; size = 4
_nBlockTimeDiff$ = 16					; size = 4
?GetPoint@CElementTreeBuilder@@ABE?AVCCoordinate@@ABV?$CStringT@DV?$StrTraitMFC_DLL@DV?$ChTraitsCRT@D@ATL@@@@@ATL@@ABH@Z PROC ; CElementTreeBuilder::GetPoint, COMDAT
; _this$ = ecx

; 495  : {

  00000	55		 push	 ebp
  00001	8b ec		 mov	 ebp, esp
  00003	6a ff		 push	 -1
  00005	68 00 00 00 00	 push	 __ehhandler$?GetPoint@CElementTreeBuilder@@ABE?AVCCoordinate@@ABV?$CStringT@DV?$StrTraitMFC_DLL@DV?$ChTraitsCRT@D@ATL@@@@@ATL@@ABH@Z
  0000a	64 a1 00 00 00
	00		 mov	 eax, DWORD PTR fs:0
  00010	50		 push	 eax
  00011	81 ec b8 01 00
	00		 sub	 esp, 440		; 000001b8H
  00017	a1 00 00 00 00	 mov	 eax, DWORD PTR ___security_cookie
  0001c	33 c5		 xor	 eax, ebp
  0001e	89 45 f0	 mov	 DWORD PTR __$ArrayPad$[ebp], eax
  00021	53		 push	 ebx
  00022	56		 push	 esi
  00023	57		 push	 edi
  00024	50		 push	 eax
  00025	8d 45 f4	 lea	 eax, DWORD PTR __$EHRec$[ebp]
  00028	64 a3 00 00 00
	00		 mov	 DWORD PTR fs:0, eax
  0002e	8b 45 08	 mov	 eax, DWORD PTR ___$ReturnUdt$[ebp]

; 496  : 	//    - ojtaso (20080811)
; 497  : 	CString strType = GetData(strData, "<Point>", "<\\Point>\r\n");

  00031	8d 8d 80 fe ff
	ff		 lea	 ecx, DWORD PTR $T18[ebp]
  00037	8b 7d 10	 mov	 edi, DWORD PTR _nBlockTimeDiff$[ebp]
  0003a	8b 75 0c	 mov	 esi, DWORD PTR _strData$[ebp]
  0003d	89 85 5c fe ff
	ff		 mov	 DWORD PTR ___$ReturnUdt$GSCopy$[ebp], eax
  00043	68 00 00 00 00	 push	 OFFSET ??_C@_0L@KMPINHDH@?$DM?2Point?$DO?$AN?6@
  00048	89 85 3c fe ff
	ff		 mov	 DWORD PTR ___$ReturnUdt$GSCopy$1$[ebp], eax
  0004e	89 bd 5c fe ff
	ff		 mov	 DWORD PTR _nBlockTimeDiff$GSCopy$1$[ebp], edi
  00054	c7 85 68 fe ff
	ff 00 00 00 00	 mov	 DWORD PTR $T9[ebp], 0
  0005e	ff 15 00 00 00
	00		 call	 DWORD PTR __imp_??0?$CStringT@DV?$StrTraitMFC_DLL@DV?$ChTraitsCRT@D@ATL@@@@@ATL@@QAE@PBD@Z
  00064	68 00 00 00 00	 push	 OFFSET ??_C@_07MPCOHMGB@?$DMPoint?$DO@
  00069	8d 8d 88 fe ff
	ff		 lea	 ecx, DWORD PTR $T25[ebp]
  0006f	c7 45 fc 00 00
	00 00		 mov	 DWORD PTR __$EHRec$[ebp+8], 0
  00076	ff 15 00 00 00
	00		 call	 DWORD PTR __imp_??0?$CStringT@DV?$StrTraitMFC_DLL@DV?$ChTraitsCRT@D@ATL@@@@@ATL@@QAE@PBD@Z

; 384  : 	CString strNewData = strOrgData;

  0007c	56		 push	 esi
  0007d	8d 8d 8c fe ff
	ff		 lea	 ecx, DWORD PTR _strNewData$26[ebp]

; 496  : 	//    - ojtaso (20080811)
; 497  : 	CString strType = GetData(strData, "<Point>", "<\\Point>\r\n");

  00083	c6 45 fc 01	 mov	 BYTE PTR __$EHRec$[ebp+8], 1

; 384  : 	CString strNewData = strOrgData;

  00087	ff 15 00 00 00
	00		 call	 DWORD PTR __imp_??0?$CStringT@DV?$StrTraitMFC_DLL@DV?$ChTraitsCRT@D@ATL@@@@@ATL@@QAE@ABV01@@Z

; 385  : 	CDataConversion::GetStringData(strNewData, strTrimStart);

  0008d	6a 01		 push	 1
  0008f	8d 85 88 fe ff
	ff		 lea	 eax, DWORD PTR $T25[ebp]
  00095	c6 45 fc 02	 mov	 BYTE PTR __$EHRec$[ebp+8], 2
  00099	50		 push	 eax
  0009a	8d 85 8c fe ff
	ff		 lea	 eax, DWORD PTR _strNewData$26[ebp]
  000a0	50		 push	 eax
  000a1	8d 85 74 fe ff
	ff		 lea	 eax, DWORD PTR $T12[ebp]
  000a7	50		 push	 eax
  000a8	e8 00 00 00 00	 call	 ?GetStringData@CDataConversion@@SA?AV?$CStringT@DV?$StrTraitMFC_DLL@DV?$ChTraitsCRT@D@ATL@@@@@ATL@@AAV23@ABV23@_N@Z ; CDataConversion::GetStringData
  000ad	83 c4 10	 add	 esp, 16			; 00000010H
  000b0	8d 8d 74 fe ff
	ff		 lea	 ecx, DWORD PTR $T12[ebp]
  000b6	ff 15 00 00 00
	00		 call	 DWORD PTR __imp_??1?$CStringT@DV?$StrTraitMFC_DLL@DV?$ChTraitsCRT@D@ATL@@@@@ATL@@QAE@XZ

; 386  : 	return CDataConversion::GetStringData(strNewData, strTrimEnd);

  000bc	6a 01		 push	 1
  000be	8d 85 80 fe ff
	ff		 lea	 eax, DWORD PTR $T18[ebp]
  000c4	50		 push	 eax
  000c5	8d 85 8c fe ff
	ff		 lea	 eax, DWORD PTR _strNewData$26[ebp]
  000cb	50		 push	 eax
  000cc	8d 85 98 fe ff
	ff		 lea	 eax, DWORD PTR _strType$[ebp]
  000d2	50		 push	 eax
  000d3	e8 00 00 00 00	 call	 ?GetStringData@CDataConversion@@SA?AV?$CStringT@DV?$StrTraitMFC_DLL@DV?$ChTraitsCRT@D@ATL@@@@@ATL@@AAV23@ABV23@_N@Z ; CDataConversion::GetStringData
  000d8	83 c4 10	 add	 esp, 16			; 00000010H
  000db	8d 8d 8c fe ff
	ff		 lea	 ecx, DWORD PTR _strNewData$26[ebp]
  000e1	ff 15 00 00 00
	00		 call	 DWORD PTR __imp_??1?$CStringT@DV?$StrTraitMFC_DLL@DV?$ChTraitsCRT@D@ATL@@@@@ATL@@QAE@XZ

; 496  : 	//    - ojtaso (20080811)
; 497  : 	CString strType = GetData(strData, "<Point>", "<\\Point>\r\n");

  000e7	8d 8d 88 fe ff
	ff		 lea	 ecx, DWORD PTR $T25[ebp]
  000ed	ff 15 00 00 00
	00		 call	 DWORD PTR __imp_??1?$CStringT@DV?$StrTraitMFC_DLL@DV?$ChTraitsCRT@D@ATL@@@@@ATL@@QAE@XZ
  000f3	8d 8d 80 fe ff
	ff		 lea	 ecx, DWORD PTR $T18[ebp]
  000f9	c6 45 fc 05	 mov	 BYTE PTR __$EHRec$[ebp+8], 5
  000fd	ff 15 00 00 00
	00		 call	 DWORD PTR __imp_??1?$CStringT@DV?$StrTraitMFC_DLL@DV?$ChTraitsCRT@D@ATL@@@@@ATL@@QAE@XZ

; 498  : 	CString strX = CDataConversion::GetStringData(strType, ",");

  00103	68 00 00 00 00	 push	 OFFSET ??_C@_01IHBHIGKO@?0@
  00108	8d 8d 94 fe ff
	ff		 lea	 ecx, DWORD PTR $T31[ebp]
  0010e	ff 15 00 00 00
	00		 call	 DWORD PTR __imp_??0?$CStringT@DV?$StrTraitMFC_DLL@DV?$ChTraitsCRT@D@ATL@@@@@ATL@@QAE@PBD@Z
  00114	6a 01		 push	 1
  00116	8d 85 94 fe ff
	ff		 lea	 eax, DWORD PTR $T31[ebp]
  0011c	c6 45 fc 06	 mov	 BYTE PTR __$EHRec$[ebp+8], 6
  00120	50		 push	 eax
  00121	8d 85 98 fe ff
	ff		 lea	 eax, DWORD PTR _strType$[ebp]
  00127	50		 push	 eax
  00128	8d 85 a4 fe ff
	ff		 lea	 eax, DWORD PTR _strX$[ebp]
  0012e	50		 push	 eax
  0012f	e8 00 00 00 00	 call	 ?GetStringData@CDataConversion@@SA?AV?$CStringT@DV?$StrTraitMFC_DLL@DV?$ChTraitsCRT@D@ATL@@@@@ATL@@AAV23@ABV23@_N@Z ; CDataConversion::GetStringData
  00134	83 c4 10	 add	 esp, 16			; 00000010H
  00137	8d 8d 94 fe ff
	ff		 lea	 ecx, DWORD PTR $T31[ebp]
  0013d	c6 45 fc 08	 mov	 BYTE PTR __$EHRec$[ebp+8], 8
  00141	ff 15 00 00 00
	00		 call	 DWORD PTR __imp_??1?$CStringT@DV?$StrTraitMFC_DLL@DV?$ChTraitsCRT@D@ATL@@@@@ATL@@QAE@XZ

; 499  : 	CString strY = CDataConversion::GetStringData(strType, ",");

  00147	68 00 00 00 00	 push	 OFFSET ??_C@_01IHBHIGKO@?0@
  0014c	8d 8d 88 fe ff
	ff		 lea	 ecx, DWORD PTR $T24[ebp]
  00152	ff 15 00 00 00
	00		 call	 DWORD PTR __imp_??0?$CStringT@DV?$StrTraitMFC_DLL@DV?$ChTraitsCRT@D@ATL@@@@@ATL@@QAE@PBD@Z
  00158	6a 01		 push	 1
  0015a	8d 85 88 fe ff
	ff		 lea	 eax, DWORD PTR $T24[ebp]
  00160	c6 45 fc 09	 mov	 BYTE PTR __$EHRec$[ebp+8], 9
  00164	50		 push	 eax
  00165	8d 85 98 fe ff
	ff		 lea	 eax, DWORD PTR _strType$[ebp]
  0016b	50		 push	 eax
  0016c	8d 85 44 fe ff
	ff		 lea	 eax, DWORD PTR _strY$[ebp]
  00172	50		 push	 eax
  00173	e8 00 00 00 00	 call	 ?GetStringData@CDataConversion@@SA?AV?$CStringT@DV?$StrTraitMFC_DLL@DV?$ChTraitsCRT@D@ATL@@@@@ATL@@AAV23@ABV23@_N@Z ; CDataConversion::GetStringData
  00178	83 c4 10	 add	 esp, 16			; 00000010H
  0017b	8d 8d 88 fe ff
	ff		 lea	 ecx, DWORD PTR $T24[ebp]
  00181	c6 45 fc 0b	 mov	 BYTE PTR __$EHRec$[ebp+8], 11 ; 0000000bH
  00185	ff 15 00 00 00
	00		 call	 DWORD PTR __imp_??1?$CStringT@DV?$StrTraitMFC_DLL@DV?$ChTraitsCRT@D@ATL@@@@@ATL@@QAE@XZ

; 500  : 
; 501  : 	// 20081007 JS.Kim	 
; 502  : 	CString strTimeDiff = CDataConversion::GetStringData(strType, ",");

  0018b	68 00 00 00 00	 push	 OFFSET ??_C@_01IHBHIGKO@?0@
  00190	8d 8d 50 fe ff
	ff		 lea	 ecx, DWORD PTR $T4[ebp]
  00196	ff 15 00 00 00
	00		 call	 DWORD PTR __imp_??0?$CStringT@DV?$StrTraitMFC_DLL@DV?$ChTraitsCRT@D@ATL@@@@@ATL@@QAE@PBD@Z
  0019c	6a 01		 push	 1
  0019e	8d 85 50 fe ff
	ff		 lea	 eax, DWORD PTR $T4[ebp]
  001a4	c6 45 fc 0c	 mov	 BYTE PTR __$EHRec$[ebp+8], 12 ; 0000000cH
  001a8	50		 push	 eax
  001a9	8d 85 98 fe ff
	ff		 lea	 eax, DWORD PTR _strType$[ebp]
  001af	50		 push	 eax
  001b0	8d 85 48 fe ff
	ff		 lea	 eax, DWORD PTR _strTimeDiff$[ebp]
  001b6	50		 push	 eax
  001b7	e8 00 00 00 00	 call	 ?GetStringData@CDataConversion@@SA?AV?$CStringT@DV?$StrTraitMFC_DLL@DV?$ChTraitsCRT@D@ATL@@@@@ATL@@AAV23@ABV23@_N@Z ; CDataConversion::GetStringData
  001bc	83 c4 10	 add	 esp, 16			; 00000010H
  001bf	8d 8d 50 fe ff
	ff		 lea	 ecx, DWORD PTR $T4[ebp]
  001c5	c6 45 fc 0e	 mov	 BYTE PTR __$EHRec$[ebp+8], 14 ; 0000000eH
  001c9	ff 15 00 00 00
	00		 call	 DWORD PTR __imp_??1?$CStringT@DV?$StrTraitMFC_DLL@DV?$ChTraitsCRT@D@ATL@@@@@ATL@@QAE@XZ

; 507  : 	double dX = atof(strX);

  001cf	ff b5 a4 fe ff
	ff		 push	 DWORD PTR _strX$[ebp]
  001d5	ff 15 00 00 00
	00		 call	 DWORD PTR __imp__atof
  001db	83 c4 04	 add	 esp, 4
; File C:\Program Files (x86)\Microsoft Visual Studio\2019\Community\VC\Tools\MSVC\14.29.30133\atlmfc\include\cstringt.h

; 2567 : 		return( str1.Compare( psz2 ) != 0 );

  001de	8d 8d 98 fe ff
	ff		 lea	 ecx, DWORD PTR _strType$[ebp]
; File D:\git\src\IBK\IBK_DRFN\ProjSrc\SrcChartEx\ChartAddIn\ChartAnalysisToolAddIn\AnalysisTool\ElementTreeBuilder.cpp

; 507  : 	double dX = atof(strX);

  001e4	dd 9d 54 fe ff
	ff		 fstp	 QWORD PTR _dX$[ebp]
; File C:\Program Files (x86)\Microsoft Visual Studio\2019\Community\VC\Tools\MSVC\14.29.30133\atlmfc\include\cstringt.h

; 2567 : 		return( str1.Compare( psz2 ) != 0 );

  001ea	68 00 00 00 00	 push	 OFFSET ??_C@_0P@IMPIBBAB@YYYYMMDDHHMMSS@
  001ef	ff 15 00 00 00
	00		 call	 DWORD PTR __imp_?Compare@?$CStringT@DV?$StrTraitMFC_DLL@DV?$ChTraitsCRT@D@ATL@@@@@ATL@@QBEHPBD@Z
; File D:\git\src\IBK\IBK_DRFN\ProjSrc\SrcChartEx\ChartAddIn\ChartAnalysisToolAddIn\AnalysisTool\ElementTreeBuilder.cpp

; 519  : 	if (strType != _T("YYYYMMDDHHMMSS"))

  001f5	8b 1d 00 00 00
	00		 mov	 ebx, DWORD PTR __imp__atoi
; File C:\Program Files (x86)\Microsoft Visual Studio\2019\Community\VC\Tools\MSVC\14.29.30133\atlmfc\include\cstringt.h

; 2567 : 		return( str1.Compare( psz2 ) != 0 );

  001fb	85 c0		 test	 eax, eax
; File D:\git\src\IBK\IBK_DRFN\ProjSrc\SrcChartEx\ChartAddIn\ChartAnalysisToolAddIn\AnalysisTool\ElementTreeBuilder.cpp

; 519  : 	if (strType != _T("YYYYMMDDHHMMSS"))

  001fd	0f 84 83 08 00
	00		 je	 $LN2@GetPoint
; File C:\Program Files (x86)\Microsoft Visual Studio\2019\Community\VC\Tools\MSVC\14.29.30133\atlmfc\include\atltime.h

; 374  : 	return( CTime( ::_time64( NULL ) ) );

  00203	6a 00		 push	 0
  00205	ff 15 00 00 00
	00		 call	 DWORD PTR __imp___time64

; 1066 : 	if (_localtime64_s(&ptmTemp, &m_time) != 0)

  0020b	8b 35 00 00 00
	00		 mov	 esi, DWORD PTR __imp___localtime64_s

; 417  : 	m_time( time )

  00211	89 85 6c fe ff
	ff		 mov	 DWORD PTR _timeCur$11[ebp], eax

; 1066 : 	if (_localtime64_s(&ptmTemp, &m_time) != 0)

  00217	8d 85 6c fe ff
	ff		 lea	 eax, DWORD PTR _timeCur$11[ebp]
  0021d	50		 push	 eax
  0021e	8d 85 cc fe ff
	ff		 lea	 eax, DWORD PTR _ptmTemp$46[ebp]

; 417  : 	m_time( time )

  00224	89 95 70 fe ff
	ff		 mov	 DWORD PTR _timeCur$11[ebp+4], edx

; 1066 : 	if (_localtime64_s(&ptmTemp, &m_time) != 0)

  0022a	50		 push	 eax
  0022b	ff d6		 call	 esi
  0022d	83 c4 0c	 add	 esp, 12			; 0000000cH
  00230	85 c0		 test	 eax, eax
  00232	0f 85 30 09 00
	00		 jne	 $LN239@GetPoint

; 1069 : 	}
; 1070 : 
; 1071 : 	if (!_tcsftime(szBuffer, maxTimeBufferSize, pFormat, &ptmTemp))

  00238	8b 3d 00 00 00
	00		 mov	 edi, DWORD PTR __imp__strftime
  0023e	8d 85 cc fe ff
	ff		 lea	 eax, DWORD PTR _ptmTemp$46[ebp]
  00244	50		 push	 eax
  00245	68 00 00 00 00	 push	 OFFSET ??_C@_02FFEBEEPL@?$CFY@
  0024a	8d 85 70 ff ff
	ff		 lea	 eax, DWORD PTR _szBuffer$51[ebp]
  00250	68 80 00 00 00	 push	 128			; 00000080H
  00255	50		 push	 eax
  00256	ff d7		 call	 edi
  00258	83 c4 10	 add	 esp, 16			; 00000010H

; 1072 : 	{
; 1073 : 		szBuffer[0] = '\0';
; 1074 : 	}
; 1075 : 
; 1076 : 	return szBuffer;

  0025b	8d 8d 8c fe ff
	ff		 lea	 ecx, DWORD PTR _strCurYear$27[ebp]
  00261	f7 d8		 neg	 eax
  00263	1a c0		 sbb	 al, al
  00265	20 85 70 ff ff
	ff		 and	 BYTE PTR _szBuffer$51[ebp], al
  0026b	8d 85 70 ff ff
	ff		 lea	 eax, DWORD PTR _szBuffer$51[ebp]
  00271	50		 push	 eax
  00272	ff 15 00 00 00
	00		 call	 DWORD PTR __imp_??0?$CStringT@DV?$StrTraitMFC_DLL@DV?$ChTraitsCRT@D@ATL@@@@@ATL@@QAE@PBD@Z

; 1066 : 	if (_localtime64_s(&ptmTemp, &m_time) != 0)

  00278	8d 85 6c fe ff
	ff		 lea	 eax, DWORD PTR _timeCur$11[ebp]
; File D:\git\src\IBK\IBK_DRFN\ProjSrc\SrcChartEx\ChartAddIn\ChartAnalysisToolAddIn\AnalysisTool\ElementTreeBuilder.cpp

; 525  : 		CString strCurYear		= timeCur.Format("%Y");

  0027e	c6 45 fc 0f	 mov	 BYTE PTR __$EHRec$[ebp+8], 15 ; 0000000fH
; File C:\Program Files (x86)\Microsoft Visual Studio\2019\Community\VC\Tools\MSVC\14.29.30133\atlmfc\include\atltime.h

; 1066 : 	if (_localtime64_s(&ptmTemp, &m_time) != 0)

  00282	50		 push	 eax
  00283	8d 85 a8 fe ff
	ff		 lea	 eax, DWORD PTR _ptmTemp$43[ebp]
  00289	50		 push	 eax
  0028a	ff d6		 call	 esi
  0028c	83 c4 08	 add	 esp, 8
  0028f	85 c0		 test	 eax, eax
  00291	0f 85 db 08 00
	00		 jne	 $LN240@GetPoint

; 1069 : 	}
; 1070 : 
; 1071 : 	if (!_tcsftime(szBuffer, maxTimeBufferSize, pFormat, &ptmTemp))

  00297	8d 85 a8 fe ff
	ff		 lea	 eax, DWORD PTR _ptmTemp$43[ebp]
  0029d	50		 push	 eax
  0029e	68 00 00 00 00	 push	 OFFSET ??_C@_02OOGLLHAM@?$CFm@
  002a3	8d 85 f0 fe ff
	ff		 lea	 eax, DWORD PTR _szBuffer$48[ebp]
  002a9	68 80 00 00 00	 push	 128			; 00000080H
  002ae	50		 push	 eax
  002af	ff d7		 call	 edi
  002b1	83 c4 10	 add	 esp, 16			; 00000010H

; 1072 : 	{
; 1073 : 		szBuffer[0] = '\0';
; 1074 : 	}
; 1075 : 
; 1076 : 	return szBuffer;

  002b4	8d 8d 74 fe ff
	ff		 lea	 ecx, DWORD PTR _strCurMon$13[ebp]
  002ba	f7 d8		 neg	 eax
  002bc	1a c0		 sbb	 al, al
  002be	20 85 f0 fe ff
	ff		 and	 BYTE PTR _szBuffer$48[ebp], al
  002c4	8d 85 f0 fe ff
	ff		 lea	 eax, DWORD PTR _szBuffer$48[ebp]
  002ca	50		 push	 eax
  002cb	ff 15 00 00 00
	00		 call	 DWORD PTR __imp_??0?$CStringT@DV?$StrTraitMFC_DLL@DV?$ChTraitsCRT@D@ATL@@@@@ATL@@QAE@PBD@Z

; 1066 : 	if (_localtime64_s(&ptmTemp, &m_time) != 0)

  002d1	8d 85 6c fe ff
	ff		 lea	 eax, DWORD PTR _timeCur$11[ebp]
; File D:\git\src\IBK\IBK_DRFN\ProjSrc\SrcChartEx\ChartAddIn\ChartAnalysisToolAddIn\AnalysisTool\ElementTreeBuilder.cpp

; 526  : 		CString strCurMon		= timeCur.Format("%m");

  002d7	c6 45 fc 10	 mov	 BYTE PTR __$EHRec$[ebp+8], 16 ; 00000010H
; File C:\Program Files (x86)\Microsoft Visual Studio\2019\Community\VC\Tools\MSVC\14.29.30133\atlmfc\include\atltime.h

; 1066 : 	if (_localtime64_s(&ptmTemp, &m_time) != 0)

  002db	50		 push	 eax
  002dc	8d 85 cc fe ff
	ff		 lea	 eax, DWORD PTR _ptmTemp$45[ebp]
  002e2	50		 push	 eax
  002e3	ff d6		 call	 esi
  002e5	83 c4 08	 add	 esp, 8
  002e8	85 c0		 test	 eax, eax
  002ea	0f 85 8c 08 00
	00		 jne	 $LN241@GetPoint

; 1069 : 	}
; 1070 : 
; 1071 : 	if (!_tcsftime(szBuffer, maxTimeBufferSize, pFormat, &ptmTemp))

  002f0	8d 85 cc fe ff
	ff		 lea	 eax, DWORD PTR _ptmTemp$45[ebp]
  002f6	50		 push	 eax
  002f7	68 00 00 00 00	 push	 OFFSET ??_C@_04GICMHJFP@?$CFY?$CFm@
  002fc	8d 85 70 ff ff
	ff		 lea	 eax, DWORD PTR _szBuffer$50[ebp]
  00302	68 80 00 00 00	 push	 128			; 00000080H
  00307	50		 push	 eax
  00308	ff d7		 call	 edi
  0030a	83 c4 10	 add	 esp, 16			; 00000010H

; 1072 : 	{
; 1073 : 		szBuffer[0] = '\0';
; 1074 : 	}
; 1075 : 
; 1076 : 	return szBuffer;

  0030d	8d 8d 88 fe ff
	ff		 lea	 ecx, DWORD PTR _strCurYearMon$23[ebp]
  00313	f7 d8		 neg	 eax
  00315	1a c0		 sbb	 al, al
  00317	20 85 70 ff ff
	ff		 and	 BYTE PTR _szBuffer$50[ebp], al
  0031d	8d 85 70 ff ff
	ff		 lea	 eax, DWORD PTR _szBuffer$50[ebp]
  00323	50		 push	 eax
  00324	ff 15 00 00 00
	00		 call	 DWORD PTR __imp_??0?$CStringT@DV?$StrTraitMFC_DLL@DV?$ChTraitsCRT@D@ATL@@@@@ATL@@QAE@PBD@Z

; 1066 : 	if (_localtime64_s(&ptmTemp, &m_time) != 0)

  0032a	8d 85 6c fe ff
	ff		 lea	 eax, DWORD PTR _timeCur$11[ebp]
; File D:\git\src\IBK\IBK_DRFN\ProjSrc\SrcChartEx\ChartAddIn\ChartAnalysisToolAddIn\AnalysisTool\ElementTreeBuilder.cpp

; 527  : 		CString strCurYearMon	= timeCur.Format("%Y%m");

  00330	c6 45 fc 11	 mov	 BYTE PTR __$EHRec$[ebp+8], 17 ; 00000011H
; File C:\Program Files (x86)\Microsoft Visual Studio\2019\Community\VC\Tools\MSVC\14.29.30133\atlmfc\include\atltime.h

; 1066 : 	if (_localtime64_s(&ptmTemp, &m_time) != 0)

  00334	50		 push	 eax
  00335	8d 85 a8 fe ff
	ff		 lea	 eax, DWORD PTR _ptmTemp$42[ebp]
  0033b	50		 push	 eax
  0033c	ff d6		 call	 esi
  0033e	83 c4 08	 add	 esp, 8
  00341	85 c0		 test	 eax, eax
  00343	0f 85 3d 08 00
	00		 jne	 $LN242@GetPoint

; 1069 : 	}
; 1070 : 
; 1071 : 	if (!_tcsftime(szBuffer, maxTimeBufferSize, pFormat, &ptmTemp))

  00349	8d 85 a8 fe ff
	ff		 lea	 eax, DWORD PTR _ptmTemp$42[ebp]
  0034f	50		 push	 eax
  00350	68 00 00 00 00	 push	 OFFSET ??_C@_06CLONMKIH@?$CFY?$CFm?$CFd@
  00355	8d 85 f0 fe ff
	ff		 lea	 eax, DWORD PTR _szBuffer$47[ebp]
  0035b	68 80 00 00 00	 push	 128			; 00000080H
  00360	50		 push	 eax
  00361	ff d7		 call	 edi
  00363	83 c4 10	 add	 esp, 16			; 00000010H

; 1072 : 	{
; 1073 : 		szBuffer[0] = '\0';
; 1074 : 	}
; 1075 : 
; 1076 : 	return szBuffer;

  00366	8d 8d 80 fe ff
	ff		 lea	 ecx, DWORD PTR _strCurDate$17[ebp]
  0036c	f7 d8		 neg	 eax
  0036e	1a c0		 sbb	 al, al
  00370	20 85 f0 fe ff
	ff		 and	 BYTE PTR _szBuffer$47[ebp], al
  00376	8d 85 f0 fe ff
	ff		 lea	 eax, DWORD PTR _szBuffer$47[ebp]
  0037c	50		 push	 eax
  0037d	ff 15 00 00 00
	00		 call	 DWORD PTR __imp_??0?$CStringT@DV?$StrTraitMFC_DLL@DV?$ChTraitsCRT@D@ATL@@@@@ATL@@QAE@PBD@Z

; 1066 : 	if (_localtime64_s(&ptmTemp, &m_time) != 0)

  00383	8d 85 6c fe ff
	ff		 lea	 eax, DWORD PTR _timeCur$11[ebp]
; File D:\git\src\IBK\IBK_DRFN\ProjSrc\SrcChartEx\ChartAddIn\ChartAnalysisToolAddIn\AnalysisTool\ElementTreeBuilder.cpp

; 528  : 		CString strCurDate		= timeCur.Format("%Y%m%d");

  00389	c6 45 fc 12	 mov	 BYTE PTR __$EHRec$[ebp+8], 18 ; 00000012H
; File C:\Program Files (x86)\Microsoft Visual Studio\2019\Community\VC\Tools\MSVC\14.29.30133\atlmfc\include\atltime.h

; 1066 : 	if (_localtime64_s(&ptmTemp, &m_time) != 0)

  0038d	50		 push	 eax
  0038e	8d 85 cc fe ff
	ff		 lea	 eax, DWORD PTR _ptmTemp$44[ebp]
  00394	50		 push	 eax
  00395	ff d6		 call	 esi
  00397	83 c4 08	 add	 esp, 8
  0039a	85 c0		 test	 eax, eax
  0039c	0f 85 ee 07 00
	00		 jne	 $LN243@GetPoint

; 1069 : 	}
; 1070 : 
; 1071 : 	if (!_tcsftime(szBuffer, maxTimeBufferSize, pFormat, &ptmTemp))

  003a2	8d 85 cc fe ff
	ff		 lea	 eax, DWORD PTR _ptmTemp$44[ebp]
  003a8	50		 push	 eax
  003a9	68 00 00 00 00	 push	 OFFSET ??_C@_0N@BNMNAMM@?$CFY?$CFm?$CFd?$CFH?$CFM?$CFS@
  003ae	8d 85 70 ff ff
	ff		 lea	 eax, DWORD PTR _szBuffer$49[ebp]
  003b4	68 80 00 00 00	 push	 128			; 00000080H
  003b9	50		 push	 eax
  003ba	ff d7		 call	 edi
  003bc	83 c4 10	 add	 esp, 16			; 00000010H

; 1072 : 	{
; 1073 : 		szBuffer[0] = '\0';
; 1074 : 	}
; 1075 : 
; 1076 : 	return szBuffer;

  003bf	8d 8d 4c fe ff
	ff		 lea	 ecx, DWORD PTR _strCurFull$3[ebp]
  003c5	f7 d8		 neg	 eax
  003c7	1a c0		 sbb	 al, al
  003c9	20 85 70 ff ff
	ff		 and	 BYTE PTR _szBuffer$49[ebp], al
  003cf	8d 85 70 ff ff
	ff		 lea	 eax, DWORD PTR _szBuffer$49[ebp]
  003d5	50		 push	 eax
  003d6	ff 15 00 00 00
	00		 call	 DWORD PTR __imp_??0?$CStringT@DV?$StrTraitMFC_DLL@DV?$ChTraitsCRT@D@ATL@@@@@ATL@@QAE@PBD@Z
; File D:\git\src\IBK\IBK_DRFN\ProjSrc\SrcChartEx\ChartAddIn\ChartAnalysisToolAddIn\AnalysisTool\ElementTreeBuilder.cpp

; 531  : 		CString strMakeTime = _T("");

  003dc	68 00 00 00 00	 push	 OFFSET ??_C@_00CNPNBAHC@@
  003e1	8d 8d 90 fe ff
	ff		 lea	 ecx, DWORD PTR _strMakeTime$28[ebp]
  003e7	c6 45 fc 13	 mov	 BYTE PTR __$EHRec$[ebp+8], 19 ; 00000013H
  003eb	ff 15 00 00 00
	00		 call	 DWORD PTR __imp_??0?$CStringT@DV?$StrTraitMFC_DLL@DV?$ChTraitsCRT@D@ATL@@@@@ATL@@QAE@PBD@Z
; File C:\Program Files (x86)\Microsoft Visual Studio\2019\Community\VC\Tools\MSVC\14.29.30133\atlmfc\include\cstringt.h

; 2486 : 		return(str1.Compare(psz2) == 0);

  003f1	68 00 00 00 00	 push	 OFFSET ??_C@_08DKDJLCMP@YYYYMMDD@
  003f6	8d 8d 98 fe ff
	ff		 lea	 ecx, DWORD PTR _strType$[ebp]
; File D:\git\src\IBK\IBK_DRFN\ProjSrc\SrcChartEx\ChartAddIn\ChartAnalysisToolAddIn\AnalysisTool\ElementTreeBuilder.cpp

; 531  : 		CString strMakeTime = _T("");

  003fc	c6 45 fc 14	 mov	 BYTE PTR __$EHRec$[ebp+8], 20 ; 00000014H
; File C:\Program Files (x86)\Microsoft Visual Studio\2019\Community\VC\Tools\MSVC\14.29.30133\atlmfc\include\cstringt.h

; 2486 : 		return(str1.Compare(psz2) == 0);

  00400	ff 15 00 00 00
	00		 call	 DWORD PTR __imp_?Compare@?$CStringT@DV?$StrTraitMFC_DLL@DV?$ChTraitsCRT@D@ATL@@@@@ATL@@QBEHPBD@Z
; File D:\git\src\IBK\IBK_DRFN\ProjSrc\SrcChartEx\ChartAddIn\ChartAnalysisToolAddIn\AnalysisTool\ElementTreeBuilder.cpp

; 534  : 		if (strType == _T("YYYYMMDD"))

  00406	8b 3d 00 00 00
	00		 mov	 edi, DWORD PTR __imp___atoi64
; File C:\Program Files (x86)\Microsoft Visual Studio\2019\Community\VC\Tools\MSVC\14.29.30133\atlmfc\include\cstringt.h

; 2486 : 		return(str1.Compare(psz2) == 0);

  0040c	85 c0		 test	 eax, eax
; File D:\git\src\IBK\IBK_DRFN\ProjSrc\SrcChartEx\ChartAddIn\ChartAnalysisToolAddIn\AnalysisTool\ElementTreeBuilder.cpp

; 534  : 		if (strType == _T("YYYYMMDD"))

  0040e	0f 85 8f 00 00
	00		 jne	 $LN3@GetPoint
; File C:\Program Files (x86)\Microsoft Visual Studio\2019\Community\VC\Tools\MSVC\14.29.30133\atlmfc\include\atlsimpstr.h

; 519  : 		return( GetData()->nDataLength );

  00414	8b 85 a4 fe ff
	ff		 mov	 eax, DWORD PTR _strX$[ebp]
  0041a	8b 48 f4	 mov	 ecx, DWORD PTR [eax-12]
  0041d	8b 85 98 fe ff
	ff		 mov	 eax, DWORD PTR _strType$[ebp]
; File D:\git\src\IBK\IBK_DRFN\ProjSrc\SrcChartEx\ChartAddIn\ChartAnalysisToolAddIn\AnalysisTool\ElementTreeBuilder.cpp

; 537  : 			if( strX.GetLength() == strType.GetLength() )

  00423	3b 48 f4	 cmp	 ecx, DWORD PTR [eax-12]
  00426	75 70		 jne	 SHORT $LN5@GetPoint
; File C:\Program Files (x86)\Microsoft Visual Studio\2019\Community\VC\Tools\MSVC\14.29.30133\atlmfc\include\cstringt.h

; 2401 : 		CStringT strResult( str1.GetManager() );

  00428	8d 8d a4 fe ff
	ff		 lea	 ecx, DWORD PTR _strX$[ebp]
; File D:\git\src\IBK\IBK_DRFN\ProjSrc\SrcChartEx\ChartAddIn\ChartAnalysisToolAddIn\AnalysisTool\ElementTreeBuilder.cpp

; 538  : 				strMakeTime = strX + _T("000000");

  0042e	c6 45 fc 15	 mov	 BYTE PTR __$EHRec$[ebp+8], 21 ; 00000015H
; File C:\Program Files (x86)\Microsoft Visual Studio\2019\Community\VC\Tools\MSVC\14.29.30133\atlmfc\include\cstringt.h

; 2401 : 		CStringT strResult( str1.GetManager() );

  00432	ff 15 00 00 00
	00		 call	 DWORD PTR __imp_?GetManager@?$CStringT@DV?$StrTraitMFC_DLL@DV?$ChTraitsCRT@D@ATL@@@@@ATL@@QBEPAUIAtlStringMgr@2@XZ
  00438	50		 push	 eax
  00439	8d 8d a0 fe ff
	ff		 lea	 ecx, DWORD PTR $T41[ebp]
  0043f	ff 15 00 00 00
	00		 call	 DWORD PTR __imp_??0?$CStringT@DV?$StrTraitMFC_DLL@DV?$ChTraitsCRT@D@ATL@@@@@ATL@@QAE@PAUIAtlStringMgr@1@@Z
; File C:\Program Files (x86)\Microsoft Visual Studio\2019\Community\VC\Tools\MSVC\14.29.30133\atlmfc\include\atlsimpstr.h

; 519  : 		return( GetData()->nDataLength );

  00445	8b 85 a4 fe ff
	ff		 mov	 eax, DWORD PTR _strX$[ebp]
; File C:\Program Files (x86)\Microsoft Visual Studio\2019\Community\VC\Tools\MSVC\14.29.30133\atlmfc\include\cstringt.h

; 2403 : 		CThisSimpleString::Concatenate( strResult, str1, str1.GetLength(), psz2, CThisSimpleString::StringLength( psz2 ) );

  0044b	6a 06		 push	 6
  0044d	68 00 00 00 00	 push	 OFFSET ??_C@_06GEKNBBDK@000000@

; 2404 : 
; 2405 : 		return( strResult );

  00452	c7 85 68 fe ff
	ff fe 00 00 00	 mov	 DWORD PTR $T9[ebp], 254	; 000000feH
  0045c	ff 70 f4	 push	 DWORD PTR [eax-12]
  0045f	50		 push	 eax
  00460	8d 85 a0 fe ff
	ff		 lea	 eax, DWORD PTR $T41[ebp]
  00466	50		 push	 eax
  00467	ff 15 00 00 00
	00		 call	 DWORD PTR __imp_?Concatenate@?$CSimpleStringT@D$00@ATL@@KAXAAV12@PBDH1H@Z
  0046d	83 c4 14	 add	 esp, 20			; 00000014H
; File D:\git\src\IBK\IBK_DRFN\ProjSrc\SrcChartEx\ChartAddIn\ChartAnalysisToolAddIn\AnalysisTool\ElementTreeBuilder.cpp

; 538  : 				strMakeTime = strX + _T("000000");

  00470	8d 85 a0 fe ff
	ff		 lea	 eax, DWORD PTR $T41[ebp]
  00476	8d 8d 90 fe ff
	ff		 lea	 ecx, DWORD PTR _strMakeTime$28[ebp]
  0047c	50		 push	 eax
  0047d	ff 15 00 00 00
	00		 call	 DWORD PTR __imp_??4?$CStringT@DV?$StrTraitMFC_DLL@DV?$ChTraitsCRT@D@ATL@@@@@ATL@@QAEAAV01@ABV01@@Z
  00483	8d 8d a0 fe ff
	ff		 lea	 ecx, DWORD PTR $T41[ebp]
  00489	c6 45 fc 14	 mov	 BYTE PTR __$EHRec$[ebp+8], 20 ; 00000014H
  0048d	ff 15 00 00 00
	00		 call	 DWORD PTR __imp_??1?$CStringT@DV?$StrTraitMFC_DLL@DV?$ChTraitsCRT@D@ATL@@@@@ATL@@QAE@XZ
  00493	e9 71 05 00 00	 jmp	 $LN17@GetPoint
$LN5@GetPoint:

; 617  : 		}
; 618  : 
; 619  : 		//
; 620  : 		__int64 lMakeTime = _atoi64(strMakeTime);

  00498	8d 85 a4 fe ff
	ff		 lea	 eax, DWORD PTR _strX$[ebp]
  0049e	e9 59 05 00 00	 jmp	 $LN234@GetPoint
$LN3@GetPoint:
; File C:\Program Files (x86)\Microsoft Visual Studio\2019\Community\VC\Tools\MSVC\14.29.30133\atlmfc\include\cstringt.h

; 2486 : 		return(str1.Compare(psz2) == 0);

  004a3	68 00 00 00 00	 push	 OFFSET ??_C@_06EBMMBHJD@YYYYMM@
  004a8	8d 8d 98 fe ff
	ff		 lea	 ecx, DWORD PTR _strType$[ebp]
  004ae	ff 15 00 00 00
	00		 call	 DWORD PTR __imp_?Compare@?$CStringT@DV?$StrTraitMFC_DLL@DV?$ChTraitsCRT@D@ATL@@@@@ATL@@QBEHPBD@Z
  004b4	85 c0		 test	 eax, eax
; File D:\git\src\IBK\IBK_DRFN\ProjSrc\SrcChartEx\ChartAddIn\ChartAnalysisToolAddIn\AnalysisTool\ElementTreeBuilder.cpp

; 542  : 		else if (strType == _T("YYYYMM"))

  004b6	0f 85 84 00 00
	00		 jne	 $LN7@GetPoint
; File C:\Program Files (x86)\Microsoft Visual Studio\2019\Community\VC\Tools\MSVC\14.29.30133\atlmfc\include\atlsimpstr.h

; 519  : 		return( GetData()->nDataLength );

  004bc	8b 85 a4 fe ff
	ff		 mov	 eax, DWORD PTR _strX$[ebp]
  004c2	8b 48 f4	 mov	 ecx, DWORD PTR [eax-12]
  004c5	8b 85 98 fe ff
	ff		 mov	 eax, DWORD PTR _strType$[ebp]
; File D:\git\src\IBK\IBK_DRFN\ProjSrc\SrcChartEx\ChartAddIn\ChartAnalysisToolAddIn\AnalysisTool\ElementTreeBuilder.cpp

; 545  : 			if( strX.GetLength() == strType.GetLength() )

  004cb	3b 48 f4	 cmp	 ecx, DWORD PTR [eax-12]
  004ce	75 c8		 jne	 SHORT $LN5@GetPoint
; File C:\Program Files (x86)\Microsoft Visual Studio\2019\Community\VC\Tools\MSVC\14.29.30133\atlmfc\include\cstringt.h

; 2401 : 		CStringT strResult( str1.GetManager() );

  004d0	8d 8d a4 fe ff
	ff		 lea	 ecx, DWORD PTR _strX$[ebp]
; File D:\git\src\IBK\IBK_DRFN\ProjSrc\SrcChartEx\ChartAddIn\ChartAnalysisToolAddIn\AnalysisTool\ElementTreeBuilder.cpp

; 546  : 				strMakeTime = strX + _T("01000000");

  004d6	c6 45 fc 16	 mov	 BYTE PTR __$EHRec$[ebp+8], 22 ; 00000016H
; File C:\Program Files (x86)\Microsoft Visual Studio\2019\Community\VC\Tools\MSVC\14.29.30133\atlmfc\include\cstringt.h

; 2401 : 		CStringT strResult( str1.GetManager() );

  004da	ff 15 00 00 00
	00		 call	 DWORD PTR __imp_?GetManager@?$CStringT@DV?$StrTraitMFC_DLL@DV?$ChTraitsCRT@D@ATL@@@@@ATL@@QBEPAUIAtlStringMgr@2@XZ
  004e0	50		 push	 eax
  004e1	8d 8d a0 fe ff
	ff		 lea	 ecx, DWORD PTR $T40[ebp]
  004e7	ff 15 00 00 00
	00		 call	 DWORD PTR __imp_??0?$CStringT@DV?$StrTraitMFC_DLL@DV?$ChTraitsCRT@D@ATL@@@@@ATL@@QAE@PAUIAtlStringMgr@1@@Z
; File C:\Program Files (x86)\Microsoft Visual Studio\2019\Community\VC\Tools\MSVC\14.29.30133\atlmfc\include\atlsimpstr.h

; 519  : 		return( GetData()->nDataLength );

  004ed	8b 85 a4 fe ff
	ff		 mov	 eax, DWORD PTR _strX$[ebp]
; File C:\Program Files (x86)\Microsoft Visual Studio\2019\Community\VC\Tools\MSVC\14.29.30133\atlmfc\include\cstringt.h

; 2403 : 		CThisSimpleString::Concatenate( strResult, str1, str1.GetLength(), psz2, CThisSimpleString::StringLength( psz2 ) );

  004f3	6a 08		 push	 8
  004f5	68 00 00 00 00	 push	 OFFSET ??_C@_08HIJOEJNL@01000000@

; 2404 : 
; 2405 : 		return( strResult );

  004fa	c7 85 68 fe ff
	ff 7e 01 00 00	 mov	 DWORD PTR $T9[ebp], 382	; 0000017eH
  00504	ff 70 f4	 push	 DWORD PTR [eax-12]
  00507	50		 push	 eax
  00508	8d 85 a0 fe ff
	ff		 lea	 eax, DWORD PTR $T40[ebp]
  0050e	50		 push	 eax
  0050f	ff 15 00 00 00
	00		 call	 DWORD PTR __imp_?Concatenate@?$CSimpleStringT@D$00@ATL@@KAXAAV12@PBDH1H@Z
  00515	83 c4 14	 add	 esp, 20			; 00000014H
; File D:\git\src\IBK\IBK_DRFN\ProjSrc\SrcChartEx\ChartAddIn\ChartAnalysisToolAddIn\AnalysisTool\ElementTreeBuilder.cpp

; 546  : 				strMakeTime = strX + _T("01000000");

  00518	8d 85 a0 fe ff
	ff		 lea	 eax, DWORD PTR $T40[ebp]
  0051e	8d 8d 90 fe ff
	ff		 lea	 ecx, DWORD PTR _strMakeTime$28[ebp]
  00524	50		 push	 eax
  00525	ff 15 00 00 00
	00		 call	 DWORD PTR __imp_??4?$CStringT@DV?$StrTraitMFC_DLL@DV?$ChTraitsCRT@D@ATL@@@@@ATL@@QAEAAV01@ABV01@@Z
  0052b	8d 8d a0 fe ff
	ff		 lea	 ecx, DWORD PTR $T40[ebp]
  00531	c6 45 fc 14	 mov	 BYTE PTR __$EHRec$[ebp+8], 20 ; 00000014H
  00535	ff 15 00 00 00
	00		 call	 DWORD PTR __imp_??1?$CStringT@DV?$StrTraitMFC_DLL@DV?$ChTraitsCRT@D@ATL@@@@@ATL@@QAE@XZ
  0053b	e9 c9 04 00 00	 jmp	 $LN17@GetPoint
$LN7@GetPoint:
; File C:\Program Files (x86)\Microsoft Visual Studio\2019\Community\VC\Tools\MSVC\14.29.30133\atlmfc\include\cstringt.h

; 2486 : 		return(str1.Compare(psz2) == 0);

  00540	68 00 00 00 00	 push	 OFFSET ??_C@_08KLIIINKM@MMDDHHMM@
  00545	8d 8d 98 fe ff
	ff		 lea	 ecx, DWORD PTR _strType$[ebp]
  0054b	ff 15 00 00 00
	00		 call	 DWORD PTR __imp_?Compare@?$CStringT@DV?$StrTraitMFC_DLL@DV?$ChTraitsCRT@D@ATL@@@@@ATL@@QBEHPBD@Z
  00551	85 c0		 test	 eax, eax
; File D:\git\src\IBK\IBK_DRFN\ProjSrc\SrcChartEx\ChartAddIn\ChartAnalysisToolAddIn\AnalysisTool\ElementTreeBuilder.cpp

; 550  : 		else if (strType == _T("MMDDHHMM"))

  00553	0f 85 c5 02 00
	00		 jne	 $LN11@GetPoint

; 551  : 		{
; 552  : 			//   : PC +  + 0
; 553  : 			
; 554  : 			CString strMon;

  00559	8d 8d a0 fe ff
	ff		 lea	 ecx, DWORD PTR _strMon$39[ebp]
  0055f	ff 15 00 00 00
	00		 call	 DWORD PTR __imp_??0?$CStringT@DV?$StrTraitMFC_DLL@DV?$ChTraitsCRT@D@ATL@@@@@ATL@@QAE@XZ

; 555  : 			CString strDay;

  00565	8d 8d 7c fe ff
	ff		 lea	 ecx, DWORD PTR _strDay$16[ebp]
  0056b	ff 15 00 00 00
	00		 call	 DWORD PTR __imp_??0?$CStringT@DV?$StrTraitMFC_DLL@DV?$ChTraitsCRT@D@ATL@@@@@ATL@@QAE@XZ
; File C:\Program Files (x86)\Microsoft Visual Studio\2019\Community\VC\Tools\MSVC\14.29.30133\atlmfc\include\atlsimpstr.h

; 519  : 		return( GetData()->nDataLength );

  00571	8b 85 a4 fe ff
	ff		 mov	 eax, DWORD PTR _strX$[ebp]
; File D:\git\src\IBK\IBK_DRFN\ProjSrc\SrcChartEx\ChartAddIn\ChartAnalysisToolAddIn\AnalysisTool\ElementTreeBuilder.cpp

; 557  : 			if (strX.GetLength() == 7)

  00577	8d 8d a4 fe ff
	ff		 lea	 ecx, DWORD PTR _strX$[ebp]
  0057d	c6 45 fc 18	 mov	 BYTE PTR __$EHRec$[ebp+8], 24 ; 00000018H
  00581	83 78 f4 07	 cmp	 DWORD PTR [eax-12], 7
  00585	8d 85 9c fe ff
	ff		 lea	 eax, DWORD PTR $T37[ebp]
  0058b	75 56		 jne	 SHORT $LN13@GetPoint

; 558  : 			{
; 559  : 				// Data %02d      (, 5 05  5  )
; 560  : 				strMon.Format("%02d", atoi(strX.Left(1)));

  0058d	6a 01		 push	 1
  0058f	50		 push	 eax
  00590	ff 15 00 00 00
	00		 call	 DWORD PTR __imp_?Left@?$CStringT@DV?$StrTraitMFC_DLL@DV?$ChTraitsCRT@D@ATL@@@@@ATL@@QBE?AV12@H@Z
  00596	ff 30		 push	 DWORD PTR [eax]
  00598	c6 45 fc 19	 mov	 BYTE PTR __$EHRec$[ebp+8], 25 ; 00000019H
  0059c	ff d3		 call	 ebx
  0059e	8b 35 00 00 00
	00		 mov	 esi, DWORD PTR __imp_?Format@?$CStringT@DV?$StrTraitMFC_DLL@DV?$ChTraitsCRT@D@ATL@@@@@ATL@@QAAXPBDZZ
  005a4	50		 push	 eax
  005a5	8d 85 a0 fe ff
	ff		 lea	 eax, DWORD PTR _strMon$39[ebp]
  005ab	68 00 00 00 00	 push	 OFFSET ??_C@_04OGKJMPGK@?$CF02d@
  005b0	50		 push	 eax
  005b1	ff d6		 call	 esi
  005b3	83 c4 10	 add	 esp, 16			; 00000010H
  005b6	c6 45 fc 18	 mov	 BYTE PTR __$EHRec$[ebp+8], 24 ; 00000018H
  005ba	8d 8d 9c fe ff
	ff		 lea	 ecx, DWORD PTR $T37[ebp]
  005c0	ff 15 00 00 00
	00		 call	 DWORD PTR __imp_??1?$CStringT@DV?$StrTraitMFC_DLL@DV?$ChTraitsCRT@D@ATL@@@@@ATL@@QAE@XZ

; 561  : 				strDay.Format("%02d", atoi(strX.Mid(1,2)));

  005c6	6a 02		 push	 2
  005c8	6a 01		 push	 1
  005ca	8d 85 9c fe ff
	ff		 lea	 eax, DWORD PTR $T36[ebp]
  005d0	50		 push	 eax
  005d1	8d 8d a4 fe ff
	ff		 lea	 ecx, DWORD PTR _strX$[ebp]
  005d7	ff 15 00 00 00
	00		 call	 DWORD PTR __imp_?Mid@?$CStringT@DV?$StrTraitMFC_DLL@DV?$ChTraitsCRT@D@ATL@@@@@ATL@@QBE?AV12@HH@Z
  005dd	c6 45 fc 1a	 mov	 BYTE PTR __$EHRec$[ebp+8], 26 ; 0000001aH

; 562  : 			}

  005e1	eb 54		 jmp	 SHORT $LN235@GetPoint
$LN13@GetPoint:

; 563  : 			else
; 564  : 			{
; 565  : 				strMon.Format("%02d", atoi(strX.Left(2)));

  005e3	6a 02		 push	 2
  005e5	50		 push	 eax
  005e6	ff 15 00 00 00
	00		 call	 DWORD PTR __imp_?Left@?$CStringT@DV?$StrTraitMFC_DLL@DV?$ChTraitsCRT@D@ATL@@@@@ATL@@QBE?AV12@H@Z
  005ec	ff 30		 push	 DWORD PTR [eax]
  005ee	c6 45 fc 1b	 mov	 BYTE PTR __$EHRec$[ebp+8], 27 ; 0000001bH
  005f2	ff d3		 call	 ebx
  005f4	8b 35 00 00 00
	00		 mov	 esi, DWORD PTR __imp_?Format@?$CStringT@DV?$StrTraitMFC_DLL@DV?$ChTraitsCRT@D@ATL@@@@@ATL@@QAAXPBDZZ
  005fa	50		 push	 eax
  005fb	8d 85 a0 fe ff
	ff		 lea	 eax, DWORD PTR _strMon$39[ebp]
  00601	68 00 00 00 00	 push	 OFFSET ??_C@_04OGKJMPGK@?$CF02d@
  00606	50		 push	 eax
  00607	ff d6		 call	 esi
  00609	83 c4 10	 add	 esp, 16			; 00000010H
  0060c	c6 45 fc 18	 mov	 BYTE PTR __$EHRec$[ebp+8], 24 ; 00000018H
  00610	8d 8d 9c fe ff
	ff		 lea	 ecx, DWORD PTR $T35[ebp]
  00616	ff 15 00 00 00
	00		 call	 DWORD PTR __imp_??1?$CStringT@DV?$StrTraitMFC_DLL@DV?$ChTraitsCRT@D@ATL@@@@@ATL@@QAE@XZ

; 566  : 				strDay.Format("%02d", atoi(strX.Mid(2,2)));

  0061c	6a 02		 push	 2
  0061e	6a 02		 push	 2
  00620	8d 85 9c fe ff
	ff		 lea	 eax, DWORD PTR $T34[ebp]
  00626	50		 push	 eax
  00627	8d 8d a4 fe ff
	ff		 lea	 ecx, DWORD PTR _strX$[ebp]
  0062d	ff 15 00 00 00
	00		 call	 DWORD PTR __imp_?Mid@?$CStringT@DV?$StrTraitMFC_DLL@DV?$ChTraitsCRT@D@ATL@@@@@ATL@@QBE?AV12@HH@Z
  00633	c6 45 fc 1c	 mov	 BYTE PTR __$EHRec$[ebp+8], 28 ; 0000001cH
$LN235@GetPoint:

; 567  : 			}
; 568  : 
; 569  : 			CString strTemp1	= strCurYear + strMon + strDay;

  00637	ff 30		 push	 DWORD PTR [eax]
  00639	ff d3		 call	 ebx
  0063b	50		 push	 eax
  0063c	8d 85 7c fe ff
	ff		 lea	 eax, DWORD PTR _strDay$16[ebp]
  00642	68 00 00 00 00	 push	 OFFSET ??_C@_04OGKJMPGK@?$CF02d@
  00647	50		 push	 eax
  00648	ff d6		 call	 esi
  0064a	83 c4 10	 add	 esp, 16			; 00000010H
  0064d	c6 45 fc 18	 mov	 BYTE PTR __$EHRec$[ebp+8], 24 ; 00000018H
  00651	8d 8d 9c fe ff
	ff		 lea	 ecx, DWORD PTR $T34[ebp]
  00657	ff 15 00 00 00
	00		 call	 DWORD PTR __imp_??1?$CStringT@DV?$StrTraitMFC_DLL@DV?$ChTraitsCRT@D@ATL@@@@@ATL@@QAE@XZ
  0065d	8d 85 a0 fe ff
	ff		 lea	 eax, DWORD PTR _strMon$39[ebp]
  00663	50		 push	 eax
  00664	8d 85 8c fe ff
	ff		 lea	 eax, DWORD PTR _strCurYear$27[ebp]
  0066a	50		 push	 eax
  0066b	8d 85 9c fe ff
	ff		 lea	 eax, DWORD PTR $T33[ebp]
  00671	50		 push	 eax
  00672	e8 00 00 00 00	 call	 ??HATL@@YA?AV?$CStringT@DV?$StrTraitMFC_DLL@DV?$ChTraitsCRT@D@ATL@@@@@0@ABV10@0@Z ; ATL::operator+
  00677	8d 8d 7c fe ff
	ff		 lea	 ecx, DWORD PTR _strDay$16[ebp]
  0067d	c6 45 fc 1d	 mov	 BYTE PTR __$EHRec$[ebp+8], 29 ; 0000001dH
  00681	51		 push	 ecx
  00682	50		 push	 eax
  00683	8d 85 78 fe ff
	ff		 lea	 eax, DWORD PTR _strTemp1$15[ebp]
  00689	50		 push	 eax
  0068a	e8 00 00 00 00	 call	 ??HATL@@YA?AV?$CStringT@DV?$StrTraitMFC_DLL@DV?$ChTraitsCRT@D@ATL@@@@@0@ABV10@0@Z ; ATL::operator+
  0068f	83 c4 18	 add	 esp, 24			; 00000018H
  00692	8d 8d 9c fe ff
	ff		 lea	 ecx, DWORD PTR $T33[ebp]
  00698	c6 45 fc 1f	 mov	 BYTE PTR __$EHRec$[ebp+8], 31 ; 0000001fH
  0069c	ff 15 00 00 00
	00		 call	 DWORD PTR __imp_??1?$CStringT@DV?$StrTraitMFC_DLL@DV?$ChTraitsCRT@D@ATL@@@@@ATL@@QAE@XZ

; 570  : 			CString strYear		= strCurYear;

  006a2	8d 85 8c fe ff
	ff		 lea	 eax, DWORD PTR _strCurYear$27[ebp]
  006a8	50		 push	 eax
  006a9	8d 8d 94 fe ff
	ff		 lea	 ecx, DWORD PTR _strYear$30[ebp]
  006af	ff 15 00 00 00
	00		 call	 DWORD PTR __imp_??0?$CStringT@DV?$StrTraitMFC_DLL@DV?$ChTraitsCRT@D@ATL@@@@@ATL@@QAE@ABV01@@Z

; 571  : 
; 572  : 			//    PC   ... PC -1 .
; 573  : 			if (_atoi64(strTemp1) > _atoi64(strCurDate))

  006b5	ff b5 80 fe ff
	ff		 push	 DWORD PTR _strCurDate$17[ebp]
; File C:\Program Files (x86)\Microsoft Visual Studio\2019\Community\VC\Tools\MSVC\14.29.30133\atlmfc\include\atlsimpstr.h

; 377  : 		return( m_pszData );

  006bb	8b b5 78 fe ff
	ff		 mov	 esi, DWORD PTR _strTemp1$15[ebp]
; File D:\git\src\IBK\IBK_DRFN\ProjSrc\SrcChartEx\ChartAddIn\ChartAnalysisToolAddIn\AnalysisTool\ElementTreeBuilder.cpp

; 570  : 			CString strYear		= strCurYear;

  006c1	c6 45 fc 20	 mov	 BYTE PTR __$EHRec$[ebp+8], 32 ; 00000020H

; 571  : 
; 572  : 			//    PC   ... PC -1 .
; 573  : 			if (_atoi64(strTemp1) > _atoi64(strCurDate))

  006c5	ff d7		 call	 edi
  006c7	8b 0d 00 00 00
	00		 mov	 ecx, DWORD PTR __imp___atoi64
  006cd	8b fa		 mov	 edi, edx
  006cf	56		 push	 esi
  006d0	89 85 9c fe ff
	ff		 mov	 DWORD PTR tv872[ebp], eax
  006d6	ff d1		 call	 ecx
  006d8	83 c4 08	 add	 esp, 8
  006db	3b d7		 cmp	 edx, edi
  006dd	7c 29		 jl	 SHORT $LN15@GetPoint
  006df	7f 08		 jg	 SHORT $LN230@GetPoint
  006e1	3b 85 9c fe ff
	ff		 cmp	 eax, DWORD PTR tv872[ebp]
  006e7	76 1f		 jbe	 SHORT $LN15@GetPoint
$LN230@GetPoint:

; 574  : 			{
; 575  : 				strYear.Format("%04d", atoi(strCurYear) -1);

  006e9	ff b5 8c fe ff
	ff		 push	 DWORD PTR _strCurYear$27[ebp]
  006ef	ff d3		 call	 ebx
  006f1	48		 dec	 eax
  006f2	50		 push	 eax
  006f3	8d 85 94 fe ff
	ff		 lea	 eax, DWORD PTR _strYear$30[ebp]
  006f9	68 00 00 00 00	 push	 OFFSET ??_C@_04OCCELDNI@?$CF04d@
  006fe	50		 push	 eax
  006ff	ff 15 00 00 00
	00		 call	 DWORD PTR __imp_?Format@?$CStringT@DV?$StrTraitMFC_DLL@DV?$ChTraitsCRT@D@ATL@@@@@ATL@@QAAXPBDZZ
  00705	83 c4 10	 add	 esp, 16			; 00000010H
$LN15@GetPoint:

; 578  : 			strMakeTime = strYear + strMon + strDay + strX.Right(4) + _T("00");

  00708	6a 04		 push	 4
  0070a	8d 85 84 fe ff
	ff		 lea	 eax, DWORD PTR $T22[ebp]
  00710	50		 push	 eax
  00711	8d 8d a4 fe ff
	ff		 lea	 ecx, DWORD PTR _strX$[ebp]
  00717	ff 15 00 00 00
	00		 call	 DWORD PTR __imp_?Right@?$CStringT@DV?$StrTraitMFC_DLL@DV?$ChTraitsCRT@D@ATL@@@@@ATL@@QBE?AV12@H@Z
  0071d	8b f0		 mov	 esi, eax
  0071f	8d 85 a0 fe ff
	ff		 lea	 eax, DWORD PTR _strMon$39[ebp]
  00725	c6 45 fc 21	 mov	 BYTE PTR __$EHRec$[ebp+8], 33 ; 00000021H
  00729	50		 push	 eax
  0072a	8d 85 94 fe ff
	ff		 lea	 eax, DWORD PTR _strYear$30[ebp]
  00730	50		 push	 eax
  00731	8d 85 60 fe ff
	ff		 lea	 eax, DWORD PTR $T6[ebp]
  00737	50		 push	 eax
  00738	e8 00 00 00 00	 call	 ??HATL@@YA?AV?$CStringT@DV?$StrTraitMFC_DLL@DV?$ChTraitsCRT@D@ATL@@@@@0@ABV10@0@Z ; ATL::operator+
  0073d	8d 8d 7c fe ff
	ff		 lea	 ecx, DWORD PTR _strDay$16[ebp]
  00743	c6 45 fc 22	 mov	 BYTE PTR __$EHRec$[ebp+8], 34 ; 00000022H
  00747	51		 push	 ecx
  00748	50		 push	 eax
  00749	8d 85 64 fe ff
	ff		 lea	 eax, DWORD PTR $T8[ebp]
  0074f	50		 push	 eax
  00750	e8 00 00 00 00	 call	 ??HATL@@YA?AV?$CStringT@DV?$StrTraitMFC_DLL@DV?$ChTraitsCRT@D@ATL@@@@@0@ABV10@0@Z ; ATL::operator+
  00755	56		 push	 esi
  00756	50		 push	 eax
  00757	8d 85 40 fe ff
	ff		 lea	 eax, DWORD PTR $T2[ebp]
  0075d	c6 45 fc 23	 mov	 BYTE PTR __$EHRec$[ebp+8], 35 ; 00000023H
  00761	50		 push	 eax
  00762	e8 00 00 00 00	 call	 ??HATL@@YA?AV?$CStringT@DV?$StrTraitMFC_DLL@DV?$ChTraitsCRT@D@ATL@@@@@0@ABV10@0@Z ; ATL::operator+
  00767	83 c4 24	 add	 esp, 36			; 00000024H
  0076a	8b f0		 mov	 esi, eax
; File C:\Program Files (x86)\Microsoft Visual Studio\2019\Community\VC\Tools\MSVC\14.29.30133\atlmfc\include\cstringt.h

; 2401 : 		CStringT strResult( str1.GetManager() );

  0076c	8b ce		 mov	 ecx, esi
; File D:\git\src\IBK\IBK_DRFN\ProjSrc\SrcChartEx\ChartAddIn\ChartAnalysisToolAddIn\AnalysisTool\ElementTreeBuilder.cpp

; 578  : 			strMakeTime = strYear + strMon + strDay + strX.Right(4) + _T("00");

  0076e	c6 45 fc 25	 mov	 BYTE PTR __$EHRec$[ebp+8], 37 ; 00000025H
; File C:\Program Files (x86)\Microsoft Visual Studio\2019\Community\VC\Tools\MSVC\14.29.30133\atlmfc\include\cstringt.h

; 2401 : 		CStringT strResult( str1.GetManager() );

  00772	ff 15 00 00 00
	00		 call	 DWORD PTR __imp_?GetManager@?$CStringT@DV?$StrTraitMFC_DLL@DV?$ChTraitsCRT@D@ATL@@@@@ATL@@QBEPAUIAtlStringMgr@2@XZ
  00778	50		 push	 eax
  00779	8d 8d 9c fe ff
	ff		 lea	 ecx, DWORD PTR $T32[ebp]
  0077f	ff 15 00 00 00
	00		 call	 DWORD PTR __imp_??0?$CStringT@DV?$StrTraitMFC_DLL@DV?$ChTraitsCRT@D@ATL@@@@@ATL@@QAE@PAUIAtlStringMgr@1@@Z
; File C:\Program Files (x86)\Microsoft Visual Studio\2019\Community\VC\Tools\MSVC\14.29.30133\atlmfc\include\atlsimpstr.h

; 519  : 		return( GetData()->nDataLength );

  00785	8b 06		 mov	 eax, DWORD PTR [esi]
; File C:\Program Files (x86)\Microsoft Visual Studio\2019\Community\VC\Tools\MSVC\14.29.30133\atlmfc\include\cstringt.h

; 2403 : 		CThisSimpleString::Concatenate( strResult, str1, str1.GetLength(), psz2, CThisSimpleString::StringLength( psz2 ) );

  00787	6a 02		 push	 2
  00789	68 00 00 00 00	 push	 OFFSET ??_C@_02PLJDPFIO@00@

; 2404 : 
; 2405 : 		return( strResult );

  0078e	c7 85 68 fe ff
	ff 7e 02 00 00	 mov	 DWORD PTR $T9[ebp], 638	; 0000027eH
  00798	ff 70 f4	 push	 DWORD PTR [eax-12]
  0079b	50		 push	 eax
  0079c	8d 85 9c fe ff
	ff		 lea	 eax, DWORD PTR $T32[ebp]
  007a2	50		 push	 eax
  007a3	ff 15 00 00 00
	00		 call	 DWORD PTR __imp_?Concatenate@?$CSimpleStringT@D$00@ATL@@KAXAAV12@PBDH1H@Z
  007a9	83 c4 14	 add	 esp, 20			; 00000014H
; File D:\git\src\IBK\IBK_DRFN\ProjSrc\SrcChartEx\ChartAddIn\ChartAnalysisToolAddIn\AnalysisTool\ElementTreeBuilder.cpp

; 578  : 			strMakeTime = strYear + strMon + strDay + strX.Right(4) + _T("00");

  007ac	8d 85 9c fe ff
	ff		 lea	 eax, DWORD PTR $T32[ebp]
  007b2	8d 8d 90 fe ff
	ff		 lea	 ecx, DWORD PTR _strMakeTime$28[ebp]
  007b8	50		 push	 eax
  007b9	ff 15 00 00 00
	00		 call	 DWORD PTR __imp_??4?$CStringT@DV?$StrTraitMFC_DLL@DV?$ChTraitsCRT@D@ATL@@@@@ATL@@QAEAAV01@ABV01@@Z
  007bf	8d 8d 9c fe ff
	ff		 lea	 ecx, DWORD PTR $T32[ebp]
  007c5	ff 15 00 00 00
	00		 call	 DWORD PTR __imp_??1?$CStringT@DV?$StrTraitMFC_DLL@DV?$ChTraitsCRT@D@ATL@@@@@ATL@@QAE@XZ
  007cb	8d 8d 40 fe ff
	ff		 lea	 ecx, DWORD PTR $T2[ebp]
  007d1	ff 15 00 00 00
	00		 call	 DWORD PTR __imp_??1?$CStringT@DV?$StrTraitMFC_DLL@DV?$ChTraitsCRT@D@ATL@@@@@ATL@@QAE@XZ
  007d7	8d 8d 64 fe ff
	ff		 lea	 ecx, DWORD PTR $T8[ebp]
  007dd	ff 15 00 00 00
	00		 call	 DWORD PTR __imp_??1?$CStringT@DV?$StrTraitMFC_DLL@DV?$ChTraitsCRT@D@ATL@@@@@ATL@@QAE@XZ
  007e3	8d 8d 60 fe ff
	ff		 lea	 ecx, DWORD PTR $T6[ebp]
  007e9	ff 15 00 00 00
	00		 call	 DWORD PTR __imp_??1?$CStringT@DV?$StrTraitMFC_DLL@DV?$ChTraitsCRT@D@ATL@@@@@ATL@@QAE@XZ
  007ef	8d 8d 84 fe ff
	ff		 lea	 ecx, DWORD PTR $T22[ebp]
  007f5	ff 15 00 00 00
	00		 call	 DWORD PTR __imp_??1?$CStringT@DV?$StrTraitMFC_DLL@DV?$ChTraitsCRT@D@ATL@@@@@ATL@@QAE@XZ

; 579  : 		}

  007fb	8d 8d 94 fe ff
	ff		 lea	 ecx, DWORD PTR _strYear$30[ebp]
  00801	ff 15 00 00 00
	00		 call	 DWORD PTR __imp_??1?$CStringT@DV?$StrTraitMFC_DLL@DV?$ChTraitsCRT@D@ATL@@@@@ATL@@QAE@XZ
  00807	8d 8d 78 fe ff
	ff		 lea	 ecx, DWORD PTR _strTemp1$15[ebp]
  0080d	ff 15 00 00 00
	00		 call	 DWORD PTR __imp_??1?$CStringT@DV?$StrTraitMFC_DLL@DV?$ChTraitsCRT@D@ATL@@@@@ATL@@QAE@XZ
  00813	8d 8d 7c fe ff
	ff		 lea	 ecx, DWORD PTR _strDay$16[ebp]
  00819	e9 ba 01 00 00	 jmp	 $LN237@GetPoint
$LN11@GetPoint:
; File C:\Program Files (x86)\Microsoft Visual Studio\2019\Community\VC\Tools\MSVC\14.29.30133\atlmfc\include\cstringt.h

; 2486 : 		return(str1.Compare(psz2) == 0);

  0081e	68 00 00 00 00	 push	 OFFSET ??_C@_08JFMBEEDE@DDHHMMSS@
  00823	8d 8d 98 fe ff
	ff		 lea	 ecx, DWORD PTR _strType$[ebp]
  00829	ff 15 00 00 00
	00		 call	 DWORD PTR __imp_?Compare@?$CStringT@DV?$StrTraitMFC_DLL@DV?$ChTraitsCRT@D@ATL@@@@@ATL@@QBEHPBD@Z
  0082f	85 c0		 test	 eax, eax
; File D:\git\src\IBK\IBK_DRFN\ProjSrc\SrcChartEx\ChartAddIn\ChartAnalysisToolAddIn\AnalysisTool\ElementTreeBuilder.cpp

; 580  : 		else if (strType == _T("DDHHMMSS"))

  00831	0f 85 bf 01 00
	00		 jne	 $LN16@GetPoint

; 581  : 		{
; 582  : 			// /  : PC + 
; 583  : 
; 584  : 			CString strDay;

  00837	8d 8d a0 fe ff
	ff		 lea	 ecx, DWORD PTR _strDay$38[ebp]
  0083d	ff 15 00 00 00
	00		 call	 DWORD PTR __imp_??0?$CStringT@DV?$StrTraitMFC_DLL@DV?$ChTraitsCRT@D@ATL@@@@@ATL@@QAE@XZ
; File C:\Program Files (x86)\Microsoft Visual Studio\2019\Community\VC\Tools\MSVC\14.29.30133\atlmfc\include\atlsimpstr.h

; 519  : 		return( GetData()->nDataLength );

  00843	8b 85 a4 fe ff
	ff		 mov	 eax, DWORD PTR _strX$[ebp]
; File D:\git\src\IBK\IBK_DRFN\ProjSrc\SrcChartEx\ChartAddIn\ChartAnalysisToolAddIn\AnalysisTool\ElementTreeBuilder.cpp

; 586  : 			if (strX.GetLength() == 7)

  00849	8d 8d a4 fe ff
	ff		 lea	 ecx, DWORD PTR _strX$[ebp]
  0084f	c6 45 fc 26	 mov	 BYTE PTR __$EHRec$[ebp+8], 38 ; 00000026H
  00853	83 78 f4 07	 cmp	 DWORD PTR [eax-12], 7
  00857	8d 85 84 fe ff
	ff		 lea	 eax, DWORD PTR $T21[ebp]
  0085d	75 0f		 jne	 SHORT $LN18@GetPoint

; 587  : 				strDay.Format("%02d", atoi(strX.Left(1)));	// data %02d      (, 5 05  5  )

  0085f	6a 01		 push	 1
  00861	50		 push	 eax
  00862	ff 15 00 00 00
	00		 call	 DWORD PTR __imp_?Left@?$CStringT@DV?$StrTraitMFC_DLL@DV?$ChTraitsCRT@D@ATL@@@@@ATL@@QBE?AV12@H@Z
  00868	c6 45 fc 27	 mov	 BYTE PTR __$EHRec$[ebp+8], 39 ; 00000027H
  0086c	eb 0d		 jmp	 SHORT $LN236@GetPoint
$LN18@GetPoint:

; 588  : 			else
; 589  : 				strDay.Format("%02d", atoi(strX.Left(2)));

  0086e	6a 02		 push	 2
  00870	50		 push	 eax
  00871	ff 15 00 00 00
	00		 call	 DWORD PTR __imp_?Left@?$CStringT@DV?$StrTraitMFC_DLL@DV?$ChTraitsCRT@D@ATL@@@@@ATL@@QBE?AV12@H@Z
  00877	c6 45 fc 28	 mov	 BYTE PTR __$EHRec$[ebp+8], 40 ; 00000028H
$LN236@GetPoint:

; 590  : 
; 591  : 			CString strTemp1	= strCurYearMon + strDay;

  0087b	ff 30		 push	 DWORD PTR [eax]
  0087d	ff d3		 call	 ebx
  0087f	50		 push	 eax
  00880	8d 85 a0 fe ff
	ff		 lea	 eax, DWORD PTR _strDay$38[ebp]
  00886	68 00 00 00 00	 push	 OFFSET ??_C@_04OGKJMPGK@?$CF02d@
  0088b	50		 push	 eax
  0088c	ff 15 00 00 00
	00		 call	 DWORD PTR __imp_?Format@?$CStringT@DV?$StrTraitMFC_DLL@DV?$ChTraitsCRT@D@ATL@@@@@ATL@@QAAXPBDZZ
  00892	83 c4 10	 add	 esp, 16			; 00000010H
  00895	c6 45 fc 26	 mov	 BYTE PTR __$EHRec$[ebp+8], 38 ; 00000026H
  00899	8d 8d 84 fe ff
	ff		 lea	 ecx, DWORD PTR $T20[ebp]
  0089f	ff 15 00 00 00
	00		 call	 DWORD PTR __imp_??1?$CStringT@DV?$StrTraitMFC_DLL@DV?$ChTraitsCRT@D@ATL@@@@@ATL@@QAE@XZ
  008a5	8d 85 a0 fe ff
	ff		 lea	 eax, DWORD PTR _strDay$38[ebp]
  008ab	50		 push	 eax
  008ac	8d 85 88 fe ff
	ff		 lea	 eax, DWORD PTR _strCurYearMon$23[ebp]
  008b2	50		 push	 eax
  008b3	8d 85 78 fe ff
	ff		 lea	 eax, DWORD PTR _strTemp1$14[ebp]
  008b9	50		 push	 eax
  008ba	e8 00 00 00 00	 call	 ??HATL@@YA?AV?$CStringT@DV?$StrTraitMFC_DLL@DV?$ChTraitsCRT@D@ATL@@@@@0@ABV10@0@Z ; ATL::operator+
  008bf	83 c4 0c	 add	 esp, 12			; 0000000cH

; 592  : 			CString strYearMon	= strCurYearMon;

  008c2	8d 85 88 fe ff
	ff		 lea	 eax, DWORD PTR _strCurYearMon$23[ebp]
  008c8	c6 45 fc 29	 mov	 BYTE PTR __$EHRec$[ebp+8], 41 ; 00000029H
  008cc	50		 push	 eax
  008cd	8d 8d 94 fe ff
	ff		 lea	 ecx, DWORD PTR _strYearMon$29[ebp]
  008d3	ff 15 00 00 00
	00		 call	 DWORD PTR __imp_??0?$CStringT@DV?$StrTraitMFC_DLL@DV?$ChTraitsCRT@D@ATL@@@@@ATL@@QAE@ABV01@@Z

; 593  : 			
; 594  : 			//    PC   ... PC  -1 .
; 595  : 			if (_atoi64(strTemp1) > _atoi64(strCurDate))

  008d9	ff b5 80 fe ff
	ff		 push	 DWORD PTR _strCurDate$17[ebp]
; File C:\Program Files (x86)\Microsoft Visual Studio\2019\Community\VC\Tools\MSVC\14.29.30133\atlmfc\include\atlsimpstr.h

; 377  : 		return( m_pszData );

  008df	8b b5 78 fe ff
	ff		 mov	 esi, DWORD PTR _strTemp1$14[ebp]
; File D:\git\src\IBK\IBK_DRFN\ProjSrc\SrcChartEx\ChartAddIn\ChartAnalysisToolAddIn\AnalysisTool\ElementTreeBuilder.cpp

; 592  : 			CString strYearMon	= strCurYearMon;

  008e5	c6 45 fc 2a	 mov	 BYTE PTR __$EHRec$[ebp+8], 42 ; 0000002aH

; 593  : 			
; 594  : 			//    PC   ... PC  -1 .
; 595  : 			if (_atoi64(strTemp1) > _atoi64(strCurDate))

  008e9	ff d7		 call	 edi
  008eb	8b 0d 00 00 00
	00		 mov	 ecx, DWORD PTR __imp___atoi64
  008f1	8b fa		 mov	 edi, edx
  008f3	56		 push	 esi
  008f4	89 85 84 fe ff
	ff		 mov	 DWORD PTR tv879[ebp], eax
  008fa	ff d1		 call	 ecx
  008fc	83 c4 08	 add	 esp, 8
  008ff	3b d7		 cmp	 edx, edi
  00901	7c 44		 jl	 SHORT $LN20@GetPoint
  00903	7f 08		 jg	 SHORT $LN231@GetPoint
  00905	3b 85 84 fe ff
	ff		 cmp	 eax, DWORD PTR tv879[ebp]
  0090b	76 3a		 jbe	 SHORT $LN20@GetPoint
$LN231@GetPoint:

; 596  : 			{
; 597  : 				int nYear	= atoi(strCurYear);

  0090d	ff b5 8c fe ff
	ff		 push	 DWORD PTR _strCurYear$27[ebp]
  00913	ff d3		 call	 ebx

; 598  : 				int nMon	= atoi(strCurMon);

  00915	ff b5 74 fe ff
	ff		 push	 DWORD PTR _strCurMon$13[ebp]
  0091b	8b f0		 mov	 esi, eax
  0091d	ff d3		 call	 ebx
  0091f	83 c4 08	 add	 esp, 8

; 599  : 				if (nMon == 1)

  00922	83 f8 01	 cmp	 eax, 1
  00925	75 08		 jne	 SHORT $LN21@GetPoint

; 600  : 				{
; 601  : 					// pc 1 ...   -1   12 ...
; 602  : 					nMon = 12;

  00927	b8 0c 00 00 00	 mov	 eax, 12			; 0000000cH

; 603  : 					nYear--;

  0092c	4e		 dec	 esi

; 604  : 				}

  0092d	eb 01		 jmp	 SHORT $LN22@GetPoint
$LN21@GetPoint:

; 605  : 				else
; 606  : 				{
; 607  : 					nMon--;

  0092f	48		 dec	 eax
$LN22@GetPoint:

; 608  : 				}
; 609  : 				strYearMon.Format("%02d%02d", nYear, nMon);

  00930	50		 push	 eax
  00931	56		 push	 esi
  00932	8d 85 94 fe ff
	ff		 lea	 eax, DWORD PTR _strYearMon$29[ebp]
  00938	68 00 00 00 00	 push	 OFFSET ??_C@_08CHLAEBHP@?$CF02d?$CF02d@
  0093d	50		 push	 eax
  0093e	ff 15 00 00 00
	00		 call	 DWORD PTR __imp_?Format@?$CStringT@DV?$StrTraitMFC_DLL@DV?$ChTraitsCRT@D@ATL@@@@@ATL@@QAAXPBDZZ
  00944	83 c4 10	 add	 esp, 16			; 00000010H
$LN20@GetPoint:

; 610  : 			}
; 611  : 
; 612  : 			strMakeTime = strYearMon + strDay + strX.Right(6);

  00947	6a 06		 push	 6
  00949	8d 85 64 fe ff
	ff		 lea	 eax, DWORD PTR $T7[ebp]
  0094f	50		 push	 eax
  00950	8d 8d a4 fe ff
	ff		 lea	 ecx, DWORD PTR _strX$[ebp]
  00956	ff 15 00 00 00
	00		 call	 DWORD PTR __imp_?Right@?$CStringT@DV?$StrTraitMFC_DLL@DV?$ChTraitsCRT@D@ATL@@@@@ATL@@QBE?AV12@H@Z
  0095c	8b f0		 mov	 esi, eax
  0095e	8d 85 a0 fe ff
	ff		 lea	 eax, DWORD PTR _strDay$38[ebp]
  00964	c6 45 fc 2b	 mov	 BYTE PTR __$EHRec$[ebp+8], 43 ; 0000002bH
  00968	50		 push	 eax
  00969	8d 85 94 fe ff
	ff		 lea	 eax, DWORD PTR _strYearMon$29[ebp]
  0096f	50		 push	 eax
  00970	8d 85 60 fe ff
	ff		 lea	 eax, DWORD PTR $T5[ebp]
  00976	50		 push	 eax
  00977	e8 00 00 00 00	 call	 ??HATL@@YA?AV?$CStringT@DV?$StrTraitMFC_DLL@DV?$ChTraitsCRT@D@ATL@@@@@0@ABV10@0@Z ; ATL::operator+
  0097c	56		 push	 esi
  0097d	50		 push	 eax
  0097e	8d 85 84 fe ff
	ff		 lea	 eax, DWORD PTR $T19[ebp]
  00984	c6 45 fc 2c	 mov	 BYTE PTR __$EHRec$[ebp+8], 44 ; 0000002cH
  00988	50		 push	 eax
  00989	e8 00 00 00 00	 call	 ??HATL@@YA?AV?$CStringT@DV?$StrTraitMFC_DLL@DV?$ChTraitsCRT@D@ATL@@@@@0@ABV10@0@Z ; ATL::operator+
  0098e	83 c4 18	 add	 esp, 24			; 00000018H
  00991	50		 push	 eax
  00992	8d 8d 90 fe ff
	ff		 lea	 ecx, DWORD PTR _strMakeTime$28[ebp]
  00998	c6 45 fc 2d	 mov	 BYTE PTR __$EHRec$[ebp+8], 45 ; 0000002dH
  0099c	ff 15 00 00 00
	00		 call	 DWORD PTR __imp_??4?$CStringT@DV?$StrTraitMFC_DLL@DV?$ChTraitsCRT@D@ATL@@@@@ATL@@QAEAAV01@ABV01@@Z
  009a2	8d 8d 84 fe ff
	ff		 lea	 ecx, DWORD PTR $T19[ebp]
  009a8	ff 15 00 00 00
	00		 call	 DWORD PTR __imp_??1?$CStringT@DV?$StrTraitMFC_DLL@DV?$ChTraitsCRT@D@ATL@@@@@ATL@@QAE@XZ
  009ae	8d 8d 60 fe ff
	ff		 lea	 ecx, DWORD PTR $T5[ebp]
  009b4	ff 15 00 00 00
	00		 call	 DWORD PTR __imp_??1?$CStringT@DV?$StrTraitMFC_DLL@DV?$ChTraitsCRT@D@ATL@@@@@ATL@@QAE@XZ
  009ba	8d 8d 64 fe ff
	ff		 lea	 ecx, DWORD PTR $T7[ebp]
  009c0	ff 15 00 00 00
	00		 call	 DWORD PTR __imp_??1?$CStringT@DV?$StrTraitMFC_DLL@DV?$ChTraitsCRT@D@ATL@@@@@ATL@@QAE@XZ

; 613  : 		}

  009c6	8d 8d 94 fe ff
	ff		 lea	 ecx, DWORD PTR _strYearMon$29[ebp]
  009cc	ff 15 00 00 00
	00		 call	 DWORD PTR __imp_??1?$CStringT@DV?$StrTraitMFC_DLL@DV?$ChTraitsCRT@D@ATL@@@@@ATL@@QAE@XZ
  009d2	8d 8d 78 fe ff
	ff		 lea	 ecx, DWORD PTR _strTemp1$14[ebp]
$LN237@GetPoint:

; 617  : 		}
; 618  : 
; 619  : 		//
; 620  : 		__int64 lMakeTime = _atoi64(strMakeTime);

  009d8	ff 15 00 00 00
	00		 call	 DWORD PTR __imp_??1?$CStringT@DV?$StrTraitMFC_DLL@DV?$ChTraitsCRT@D@ATL@@@@@ATL@@QAE@XZ
  009de	8d 8d a0 fe ff
	ff		 lea	 ecx, DWORD PTR _strDay$38[ebp]
  009e4	c6 45 fc 14	 mov	 BYTE PTR __$EHRec$[ebp+8], 20 ; 00000014H
  009e8	ff 15 00 00 00
	00		 call	 DWORD PTR __imp_??1?$CStringT@DV?$StrTraitMFC_DLL@DV?$ChTraitsCRT@D@ATL@@@@@ATL@@QAE@XZ
  009ee	8b 3d 00 00 00
	00		 mov	 edi, DWORD PTR __imp___atoi64
  009f4	eb 13		 jmp	 SHORT $LN17@GetPoint
$LN16@GetPoint:

; 614  : 		else
; 615  : 		{
; 616  : 			strMakeTime = strCurFull;

  009f6	8d 85 4c fe ff
	ff		 lea	 eax, DWORD PTR _strCurFull$3[ebp]
$LN234@GetPoint:

; 617  : 		}
; 618  : 
; 619  : 		//
; 620  : 		__int64 lMakeTime = _atoi64(strMakeTime);

  009fc	50		 push	 eax
  009fd	8d 8d 90 fe ff
	ff		 lea	 ecx, DWORD PTR _strMakeTime$28[ebp]
  00a03	ff 15 00 00 00
	00		 call	 DWORD PTR __imp_??4?$CStringT@DV?$StrTraitMFC_DLL@DV?$ChTraitsCRT@D@ATL@@@@@ATL@@QAEAAV01@ABV01@@Z
$LN17@GetPoint:
  00a09	ff b5 90 fe ff
	ff		 push	 DWORD PTR _strMakeTime$28[ebp]
  00a0f	ff d7		 call	 edi
  00a11	83 c4 04	 add	 esp, 4

; 621  : 		dX = lMakeTime;

  00a14	8b c8		 mov	 ecx, eax
  00a16	e8 00 00 00 00	 call	 __ltod3

; 622  : 		strType = _T("YYYYMMDDHHMMSS");

  00a1b	68 00 00 00 00	 push	 OFFSET ??_C@_0P@IMPIBBAB@YYYYMMDDHHMMSS@
  00a20	8d 8d 98 fe ff
	ff		 lea	 ecx, DWORD PTR _strType$[ebp]
  00a26	f2 0f 11 85 54
	fe ff ff	 movsd	 QWORD PTR _dX$[ebp], xmm0
  00a2e	ff 15 00 00 00
	00		 call	 DWORD PTR __imp_??4?$CStringT@DV?$StrTraitMFC_DLL@DV?$ChTraitsCRT@D@ATL@@@@@ATL@@QAEAAV01@PBD@Z

; 623  : 	}

  00a34	8d 8d 90 fe ff
	ff		 lea	 ecx, DWORD PTR _strMakeTime$28[ebp]
  00a3a	ff 15 00 00 00
	00		 call	 DWORD PTR __imp_??1?$CStringT@DV?$StrTraitMFC_DLL@DV?$ChTraitsCRT@D@ATL@@@@@ATL@@QAE@XZ
  00a40	8d 8d 4c fe ff
	ff		 lea	 ecx, DWORD PTR _strCurFull$3[ebp]
  00a46	ff 15 00 00 00
	00		 call	 DWORD PTR __imp_??1?$CStringT@DV?$StrTraitMFC_DLL@DV?$ChTraitsCRT@D@ATL@@@@@ATL@@QAE@XZ
  00a4c	8d 8d 80 fe ff
	ff		 lea	 ecx, DWORD PTR _strCurDate$17[ebp]
  00a52	ff 15 00 00 00
	00		 call	 DWORD PTR __imp_??1?$CStringT@DV?$StrTraitMFC_DLL@DV?$ChTraitsCRT@D@ATL@@@@@ATL@@QAE@XZ
  00a58	8d 8d 88 fe ff
	ff		 lea	 ecx, DWORD PTR _strCurYearMon$23[ebp]
  00a5e	ff 15 00 00 00
	00		 call	 DWORD PTR __imp_??1?$CStringT@DV?$StrTraitMFC_DLL@DV?$ChTraitsCRT@D@ATL@@@@@ATL@@QAE@XZ
  00a64	8d 8d 74 fe ff
	ff		 lea	 ecx, DWORD PTR _strCurMon$13[ebp]
  00a6a	ff 15 00 00 00
	00		 call	 DWORD PTR __imp_??1?$CStringT@DV?$StrTraitMFC_DLL@DV?$ChTraitsCRT@D@ATL@@@@@ATL@@QAE@XZ
  00a70	8d 8d 8c fe ff
	ff		 lea	 ecx, DWORD PTR _strCurYear$27[ebp]
  00a76	c6 45 fc 0e	 mov	 BYTE PTR __$EHRec$[ebp+8], 14 ; 0000000eH
  00a7a	ff 15 00 00 00
	00		 call	 DWORD PTR __imp_??1?$CStringT@DV?$StrTraitMFC_DLL@DV?$ChTraitsCRT@D@ATL@@@@@ATL@@QAE@XZ
  00a80	8b bd 5c fe ff
	ff		 mov	 edi, DWORD PTR _nBlockTimeDiff$GSCopy$1$[ebp]
$LN2@GetPoint:

; 624  : 	// 2011.02.07 by SYS <<
; 625  : 
; 626  : 
; 627  : 	int nTimeDiff = atoi(strTimeDiff);

  00a86	ff b5 48 fe ff
	ff		 push	 DWORD PTR _strTimeDiff$[ebp]
  00a8c	ff d3		 call	 ebx
  00a8e	8b f0		 mov	 esi, eax
  00a90	83 c4 04	 add	 esp, 4

; 628  : 	if( nBlockTimeDiff != nTimeDiff )		

  00a93	39 37		 cmp	 DWORD PTR [edi], esi
  00a95	74 44		 je	 SHORT $LN23@GetPoint

; 629  : 		dX = CDataConversion::CalcTimeDiff(dX, nBlockTimeDiff - nTimeDiff, nBlockTimeDiff, strType);

  00a97	51		 push	 ecx
  00a98	8d 85 98 fe ff
	ff		 lea	 eax, DWORD PTR _strType$[ebp]
  00a9e	8b cc		 mov	 ecx, esp
  00aa0	50		 push	 eax
  00aa1	ff 15 00 00 00
	00		 call	 DWORD PTR __imp_??0?$CStringT@DV?$StrTraitMFC_DLL@DV?$ChTraitsCRT@D@ATL@@@@@ATL@@QAE@ABV01@@Z
  00aa7	8b 07		 mov	 eax, DWORD PTR [edi]
  00aa9	f2 0f 10 85 54
	fe ff ff	 movsd	 xmm0, QWORD PTR _dX$[ebp]
  00ab1	50		 push	 eax
  00ab2	2b c6		 sub	 eax, esi
  00ab4	50		 push	 eax
  00ab5	83 ec 08	 sub	 esp, 8
  00ab8	f2 0f 11 04 24	 movsd	 QWORD PTR [esp], xmm0
  00abd	e8 00 00 00 00	 call	 ?CalcTimeDiff@CDataConversion@@SANNHHV?$CStringT@DV?$StrTraitMFC_DLL@DV?$ChTraitsCRT@D@ATL@@@@@ATL@@@Z ; CDataConversion::CalcTimeDiff
  00ac2	dd 9d 54 fe ff
	ff		 fstp	 QWORD PTR tv669[ebp]
  00ac8	f2 0f 10 85 54
	fe ff ff	 movsd	 xmm0, QWORD PTR tv669[ebp]
  00ad0	83 c4 14	 add	 esp, 20			; 00000014H
  00ad3	f2 0f 11 85 54
	fe ff ff	 movsd	 QWORD PTR _dX$[ebp], xmm0
$LN23@GetPoint:

; 630  : 
; 631  : 	return CCoordinate(dX, atof(strY), nBlockTimeDiff, strType, 0);

  00adb	ff b5 44 fe ff
	ff		 push	 DWORD PTR _strY$[ebp]
  00ae1	ff 15 00 00 00
	00		 call	 DWORD PTR __imp__atof
  00ae7	8b 8d 3c fe ff
	ff		 mov	 ecx, DWORD PTR ___$ReturnUdt$GSCopy$1$[ebp]
  00aed	8d 85 98 fe ff
	ff		 lea	 eax, DWORD PTR _strType$[ebp]
  00af3	83 c4 04	 add	 esp, 4
  00af6	dd 9d 6c fe ff
	ff		 fstp	 QWORD PTR $T10[ebp]
  00afc	6a 00		 push	 0
  00afe	50		 push	 eax
  00aff	ff 37		 push	 DWORD PTR [edi]
  00b01	8d 85 6c fe ff
	ff		 lea	 eax, DWORD PTR $T10[ebp]
  00b07	50		 push	 eax
  00b08	8d 85 54 fe ff
	ff		 lea	 eax, DWORD PTR _dX$[ebp]
  00b0e	50		 push	 eax
  00b0f	e8 00 00 00 00	 call	 ??0CCoordinate@@QAE@ABN0HABV?$CStringT@DV?$StrTraitMFC_DLL@DV?$ChTraitsCRT@D@ATL@@@@@ATL@@H@Z ; CCoordinate::CCoordinate
  00b14	8d 8d 48 fe ff
	ff		 lea	 ecx, DWORD PTR _strTimeDiff$[ebp]
  00b1a	ff 15 00 00 00
	00		 call	 DWORD PTR __imp_??1?$CStringT@DV?$StrTraitMFC_DLL@DV?$ChTraitsCRT@D@ATL@@@@@ATL@@QAE@XZ
  00b20	8d 8d 44 fe ff
	ff		 lea	 ecx, DWORD PTR _strY$[ebp]
  00b26	ff 15 00 00 00
	00		 call	 DWORD PTR __imp_??1?$CStringT@DV?$StrTraitMFC_DLL@DV?$ChTraitsCRT@D@ATL@@@@@ATL@@QAE@XZ
  00b2c	8d 8d a4 fe ff
	ff		 lea	 ecx, DWORD PTR _strX$[ebp]
  00b32	ff 15 00 00 00
	00		 call	 DWORD PTR __imp_??1?$CStringT@DV?$StrTraitMFC_DLL@DV?$ChTraitsCRT@D@ATL@@@@@ATL@@QAE@XZ
  00b38	8d 8d 98 fe ff
	ff		 lea	 ecx, DWORD PTR _strType$[ebp]
  00b3e	ff 15 00 00 00
	00		 call	 DWORD PTR __imp_??1?$CStringT@DV?$StrTraitMFC_DLL@DV?$ChTraitsCRT@D@ATL@@@@@ATL@@QAE@XZ
  00b44	8b 85 3c fe ff
	ff		 mov	 eax, DWORD PTR ___$ReturnUdt$GSCopy$1$[ebp]

; 633  : }

  00b4a	8b 4d f4	 mov	 ecx, DWORD PTR __$EHRec$[ebp]
  00b4d	64 89 0d 00 00
	00 00		 mov	 DWORD PTR fs:0, ecx
  00b54	59		 pop	 ecx
  00b55	5f		 pop	 edi
  00b56	5e		 pop	 esi
  00b57	5b		 pop	 ebx
  00b58	8b 4d f0	 mov	 ecx, DWORD PTR __$ArrayPad$[ebp]
  00b5b	33 cd		 xor	 ecx, ebp
  00b5d	e8 00 00 00 00	 call	 @__security_check_cookie@4
  00b62	8b e5		 mov	 esp, ebp
  00b64	5d		 pop	 ebp
  00b65	c2 0c 00	 ret	 12			; 0000000cH
$LN239@GetPoint:
; File C:\Program Files (x86)\Microsoft Visual Studio\2019\Community\VC\Tools\MSVC\14.29.30133\atlmfc\include\atltime.h

; 1068 : 		AtlThrow(E_INVALIDARG);

  00b68	68 57 00 07 80	 push	 -2147024809		; 80070057H
  00b6d	e8 00 00 00 00	 call	 ?AtlThrowImpl@ATL@@YGXJ@Z ; ATL::AtlThrowImpl
$LN240@GetPoint:
  00b72	68 57 00 07 80	 push	 -2147024809		; 80070057H
  00b77	e8 00 00 00 00	 call	 ?AtlThrowImpl@ATL@@YGXJ@Z ; ATL::AtlThrowImpl
$LN241@GetPoint:
  00b7c	68 57 00 07 80	 push	 -2147024809		; 80070057H
  00b81	e8 00 00 00 00	 call	 ?AtlThrowImpl@ATL@@YGXJ@Z ; ATL::AtlThrowImpl
$LN242@GetPoint:
  00b86	68 57 00 07 80	 push	 -2147024809		; 80070057H
  00b8b	e8 00 00 00 00	 call	 ?AtlThrowImpl@ATL@@YGXJ@Z ; ATL::AtlThrowImpl
$LN243@GetPoint:
  00b90	68 57 00 07 80	 push	 -2147024809		; 80070057H
  00b95	e8 00 00 00 00	 call	 ?AtlThrowImpl@ATL@@YGXJ@Z ; ATL::AtlThrowImpl
$LN233@GetPoint:
  00b9a	cc		 int	 3
_TEXT	ENDS
;	COMDAT text$x
text$x	SEGMENT
__unwindfunclet$?GetPoint@CElementTreeBuilder@@ABE?AVCCoordinate@@ABV?$CStringT@DV?$StrTraitMFC_DLL@DV?$ChTraitsCRT@D@ATL@@@@@ATL@@ABH@Z$0:
  00000	8d 8d 80 fe ff
	ff		 lea	 ecx, DWORD PTR $T18[ebp]
  00006	ff 25 00 00 00
	00		 jmp	 DWORD PTR __imp_??1?$CStringT@DV?$StrTraitMFC_DLL@DV?$ChTraitsCRT@D@ATL@@@@@ATL@@QAE@XZ
__unwindfunclet$?GetPoint@CElementTreeBuilder@@ABE?AVCCoordinate@@ABV?$CStringT@DV?$StrTraitMFC_DLL@DV?$ChTraitsCRT@D@ATL@@@@@ATL@@ABH@Z$1:
  0000c	8d 8d 88 fe ff
	ff		 lea	 ecx, DWORD PTR $T25[ebp]
  00012	ff 25 00 00 00
	00		 jmp	 DWORD PTR __imp_??1?$CStringT@DV?$StrTraitMFC_DLL@DV?$ChTraitsCRT@D@ATL@@@@@ATL@@QAE@XZ
__unwindfunclet$?GetPoint@CElementTreeBuilder@@ABE?AVCCoordinate@@ABV?$CStringT@DV?$StrTraitMFC_DLL@DV?$ChTraitsCRT@D@ATL@@@@@ATL@@ABH@Z$41:
  00018	8d 8d 8c fe ff
	ff		 lea	 ecx, DWORD PTR _strNewData$26[ebp]
  0001e	ff 25 00 00 00
	00		 jmp	 DWORD PTR __imp_??1?$CStringT@DV?$StrTraitMFC_DLL@DV?$ChTraitsCRT@D@ATL@@@@@ATL@@QAE@XZ
__unwindfunclet$?GetPoint@CElementTreeBuilder@@ABE?AVCCoordinate@@ABV?$CStringT@DV?$StrTraitMFC_DLL@DV?$ChTraitsCRT@D@ATL@@@@@ATL@@ABH@Z$2:
  00024	8d 8d 98 fe ff
	ff		 lea	 ecx, DWORD PTR _strType$[ebp]
  0002a	ff 25 00 00 00
	00		 jmp	 DWORD PTR __imp_??1?$CStringT@DV?$StrTraitMFC_DLL@DV?$ChTraitsCRT@D@ATL@@@@@ATL@@QAE@XZ
__unwindfunclet$?GetPoint@CElementTreeBuilder@@ABE?AVCCoordinate@@ABV?$CStringT@DV?$StrTraitMFC_DLL@DV?$ChTraitsCRT@D@ATL@@@@@ATL@@ABH@Z$3:
  00030	8d 8d 94 fe ff
	ff		 lea	 ecx, DWORD PTR $T31[ebp]
  00036	ff 25 00 00 00
	00		 jmp	 DWORD PTR __imp_??1?$CStringT@DV?$StrTraitMFC_DLL@DV?$ChTraitsCRT@D@ATL@@@@@ATL@@QAE@XZ
__unwindfunclet$?GetPoint@CElementTreeBuilder@@ABE?AVCCoordinate@@ABV?$CStringT@DV?$StrTraitMFC_DLL@DV?$ChTraitsCRT@D@ATL@@@@@ATL@@ABH@Z$4:
  0003c	8d 8d a4 fe ff
	ff		 lea	 ecx, DWORD PTR _strX$[ebp]
  00042	ff 25 00 00 00
	00		 jmp	 DWORD PTR __imp_??1?$CStringT@DV?$StrTraitMFC_DLL@DV?$ChTraitsCRT@D@ATL@@@@@ATL@@QAE@XZ
__unwindfunclet$?GetPoint@CElementTreeBuilder@@ABE?AVCCoordinate@@ABV?$CStringT@DV?$StrTraitMFC_DLL@DV?$ChTraitsCRT@D@ATL@@@@@ATL@@ABH@Z$5:
  00048	8d 8d 88 fe ff
	ff		 lea	 ecx, DWORD PTR $T24[ebp]
  0004e	ff 25 00 00 00
	00		 jmp	 DWORD PTR __imp_??1?$CStringT@DV?$StrTraitMFC_DLL@DV?$ChTraitsCRT@D@ATL@@@@@ATL@@QAE@XZ
__unwindfunclet$?GetPoint@CElementTreeBuilder@@ABE?AVCCoordinate@@ABV?$CStringT@DV?$StrTraitMFC_DLL@DV?$ChTraitsCRT@D@ATL@@@@@ATL@@ABH@Z$6:
  00054	8d 8d 44 fe ff
	ff		 lea	 ecx, DWORD PTR _strY$[ebp]
  0005a	ff 25 00 00 00
	00		 jmp	 DWORD PTR __imp_??1?$CStringT@DV?$StrTraitMFC_DLL@DV?$ChTraitsCRT@D@ATL@@@@@ATL@@QAE@XZ
__unwindfunclet$?GetPoint@CElementTreeBuilder@@ABE?AVCCoordinate@@ABV?$CStringT@DV?$StrTraitMFC_DLL@DV?$ChTraitsCRT@D@ATL@@@@@ATL@@ABH@Z$7:
  00060	8d 8d 50 fe ff
	ff		 lea	 ecx, DWORD PTR $T4[ebp]
  00066	ff 25 00 00 00
	00		 jmp	 DWORD PTR __imp_??1?$CStringT@DV?$StrTraitMFC_DLL@DV?$ChTraitsCRT@D@ATL@@@@@ATL@@QAE@XZ
__unwindfunclet$?GetPoint@CElementTreeBuilder@@ABE?AVCCoordinate@@ABV?$CStringT@DV?$StrTraitMFC_DLL@DV?$ChTraitsCRT@D@ATL@@@@@ATL@@ABH@Z$8:
  0006c	8d 8d 48 fe ff
	ff		 lea	 ecx, DWORD PTR _strTimeDiff$[ebp]
  00072	ff 25 00 00 00
	00		 jmp	 DWORD PTR __imp_??1?$CStringT@DV?$StrTraitMFC_DLL@DV?$ChTraitsCRT@D@ATL@@@@@ATL@@QAE@XZ
__unwindfunclet$?GetPoint@CElementTreeBuilder@@ABE?AVCCoordinate@@ABV?$CStringT@DV?$StrTraitMFC_DLL@DV?$ChTraitsCRT@D@ATL@@@@@ATL@@ABH@Z$9:
  00078	8d 8d 8c fe ff
	ff		 lea	 ecx, DWORD PTR _strCurYear$27[ebp]
  0007e	ff 25 00 00 00
	00		 jmp	 DWORD PTR __imp_??1?$CStringT@DV?$StrTraitMFC_DLL@DV?$ChTraitsCRT@D@ATL@@@@@ATL@@QAE@XZ
__unwindfunclet$?GetPoint@CElementTreeBuilder@@ABE?AVCCoordinate@@ABV?$CStringT@DV?$StrTraitMFC_DLL@DV?$ChTraitsCRT@D@ATL@@@@@ATL@@ABH@Z$10:
  00084	8d 8d 74 fe ff
	ff		 lea	 ecx, DWORD PTR _strCurMon$13[ebp]
  0008a	ff 25 00 00 00
	00		 jmp	 DWORD PTR __imp_??1?$CStringT@DV?$StrTraitMFC_DLL@DV?$ChTraitsCRT@D@ATL@@@@@ATL@@QAE@XZ
__unwindfunclet$?GetPoint@CElementTreeBuilder@@ABE?AVCCoordinate@@ABV?$CStringT@DV?$StrTraitMFC_DLL@DV?$ChTraitsCRT@D@ATL@@@@@ATL@@ABH@Z$11:
  00090	8d 8d 88 fe ff
	ff		 lea	 ecx, DWORD PTR _strCurYearMon$23[ebp]
  00096	ff 25 00 00 00
	00		 jmp	 DWORD PTR __imp_??1?$CStringT@DV?$StrTraitMFC_DLL@DV?$ChTraitsCRT@D@ATL@@@@@ATL@@QAE@XZ
__unwindfunclet$?GetPoint@CElementTreeBuilder@@ABE?AVCCoordinate@@ABV?$CStringT@DV?$StrTraitMFC_DLL@DV?$ChTraitsCRT@D@ATL@@@@@ATL@@ABH@Z$12:
  0009c	8d 8d 80 fe ff
	ff		 lea	 ecx, DWORD PTR _strCurDate$17[ebp]
  000a2	ff 25 00 00 00
	00		 jmp	 DWORD PTR __imp_??1?$CStringT@DV?$StrTraitMFC_DLL@DV?$ChTraitsCRT@D@ATL@@@@@ATL@@QAE@XZ
__unwindfunclet$?GetPoint@CElementTreeBuilder@@ABE?AVCCoordinate@@ABV?$CStringT@DV?$StrTraitMFC_DLL@DV?$ChTraitsCRT@D@ATL@@@@@ATL@@ABH@Z$13:
  000a8	8d 8d 4c fe ff
	ff		 lea	 ecx, DWORD PTR _strCurFull$3[ebp]
  000ae	ff 25 00 00 00
	00		 jmp	 DWORD PTR __imp_??1?$CStringT@DV?$StrTraitMFC_DLL@DV?$ChTraitsCRT@D@ATL@@@@@ATL@@QAE@XZ
__unwindfunclet$?GetPoint@CElementTreeBuilder@@ABE?AVCCoordinate@@ABV?$CStringT@DV?$StrTraitMFC_DLL@DV?$ChTraitsCRT@D@ATL@@@@@ATL@@ABH@Z$14:
  000b4	8d 8d 90 fe ff
	ff		 lea	 ecx, DWORD PTR _strMakeTime$28[ebp]
  000ba	ff 25 00 00 00
	00		 jmp	 DWORD PTR __imp_??1?$CStringT@DV?$StrTraitMFC_DLL@DV?$ChTraitsCRT@D@ATL@@@@@ATL@@QAE@XZ
__unwindfunclet$?GetPoint@CElementTreeBuilder@@ABE?AVCCoordinate@@ABV?$CStringT@DV?$StrTraitMFC_DLL@DV?$ChTraitsCRT@D@ATL@@@@@ATL@@ABH@Z$49:
  000c0	8b 85 68 fe ff
	ff		 mov	 eax, DWORD PTR $T9[ebp]
  000c6	25 80 00 00 00	 and	 eax, 128		; 00000080H
  000cb	0f 84 16 00 00
	00		 je	 $LN140@GetPoint
  000d1	81 a5 68 fe ff
	ff 7f ff ff ff	 and	 DWORD PTR $T9[ebp], -129 ; ffffff7fH
  000db	8d 8d a0 fe ff
	ff		 lea	 ecx, DWORD PTR $T41[ebp]
  000e1	ff 25 00 00 00
	00		 jmp	 DWORD PTR __imp_??1?$CStringT@DV?$StrTraitMFC_DLL@DV?$ChTraitsCRT@D@ATL@@@@@ATL@@QAE@XZ
$LN140@GetPoint:
  000e7	c3		 ret	 0
__unwindfunclet$?GetPoint@CElementTreeBuilder@@ABE?AVCCoordinate@@ABV?$CStringT@DV?$StrTraitMFC_DLL@DV?$ChTraitsCRT@D@ATL@@@@@ATL@@ABH@Z$50:
  000e8	8b 85 68 fe ff
	ff		 mov	 eax, DWORD PTR $T9[ebp]
  000ee	25 00 01 00 00	 and	 eax, 256		; 00000100H
  000f3	0f 84 16 00 00
	00		 je	 $LN163@GetPoint
  000f9	81 a5 68 fe ff
	ff ff fe ff ff	 and	 DWORD PTR $T9[ebp], -257 ; fffffeffH
  00103	8d 8d a0 fe ff
	ff		 lea	 ecx, DWORD PTR $T40[ebp]
  00109	ff 25 00 00 00
	00		 jmp	 DWORD PTR __imp_??1?$CStringT@DV?$StrTraitMFC_DLL@DV?$ChTraitsCRT@D@ATL@@@@@ATL@@QAE@XZ
$LN163@GetPoint:
  0010f	c3		 ret	 0
__unwindfunclet$?GetPoint@CElementTreeBuilder@@ABE?AVCCoordinate@@ABV?$CStringT@DV?$StrTraitMFC_DLL@DV?$ChTraitsCRT@D@ATL@@@@@ATL@@ABH@Z$17:
  00110	8d 8d a0 fe ff
	ff		 lea	 ecx, DWORD PTR _strMon$39[ebp]
  00116	ff 25 00 00 00
	00		 jmp	 DWORD PTR __imp_??1?$CStringT@DV?$StrTraitMFC_DLL@DV?$ChTraitsCRT@D@ATL@@@@@ATL@@QAE@XZ
__unwindfunclet$?GetPoint@CElementTreeBuilder@@ABE?AVCCoordinate@@ABV?$CStringT@DV?$StrTraitMFC_DLL@DV?$ChTraitsCRT@D@ATL@@@@@ATL@@ABH@Z$18:
  0011c	8d 8d 7c fe ff
	ff		 lea	 ecx, DWORD PTR _strDay$16[ebp]
  00122	ff 25 00 00 00
	00		 jmp	 DWORD PTR __imp_??1?$CStringT@DV?$StrTraitMFC_DLL@DV?$ChTraitsCRT@D@ATL@@@@@ATL@@QAE@XZ
__unwindfunclet$?GetPoint@CElementTreeBuilder@@ABE?AVCCoordinate@@ABV?$CStringT@DV?$StrTraitMFC_DLL@DV?$ChTraitsCRT@D@ATL@@@@@ATL@@ABH@Z$19:
  00128	8d 8d 9c fe ff
	ff		 lea	 ecx, DWORD PTR $T37[ebp]
  0012e	ff 25 00 00 00
	00		 jmp	 DWORD PTR __imp_??1?$CStringT@DV?$StrTraitMFC_DLL@DV?$ChTraitsCRT@D@ATL@@@@@ATL@@QAE@XZ
__unwindfunclet$?GetPoint@CElementTreeBuilder@@ABE?AVCCoordinate@@ABV?$CStringT@DV?$StrTraitMFC_DLL@DV?$ChTraitsCRT@D@ATL@@@@@ATL@@ABH@Z$20:
  00134	8d 8d 9c fe ff
	ff		 lea	 ecx, DWORD PTR $T36[ebp]
  0013a	ff 25 00 00 00
	00		 jmp	 DWORD PTR __imp_??1?$CStringT@DV?$StrTraitMFC_DLL@DV?$ChTraitsCRT@D@ATL@@@@@ATL@@QAE@XZ
__unwindfunclet$?GetPoint@CElementTreeBuilder@@ABE?AVCCoordinate@@ABV?$CStringT@DV?$StrTraitMFC_DLL@DV?$ChTraitsCRT@D@ATL@@@@@ATL@@ABH@Z$21:
  00140	8d 8d 9c fe ff
	ff		 lea	 ecx, DWORD PTR $T35[ebp]
  00146	ff 25 00 00 00
	00		 jmp	 DWORD PTR __imp_??1?$CStringT@DV?$StrTraitMFC_DLL@DV?$ChTraitsCRT@D@ATL@@@@@ATL@@QAE@XZ
__unwindfunclet$?GetPoint@CElementTreeBuilder@@ABE?AVCCoordinate@@ABV?$CStringT@DV?$StrTraitMFC_DLL@DV?$ChTraitsCRT@D@ATL@@@@@ATL@@ABH@Z$22:
  0014c	8d 8d 9c fe ff
	ff		 lea	 ecx, DWORD PTR $T34[ebp]
  00152	ff 25 00 00 00
	00		 jmp	 DWORD PTR __imp_??1?$CStringT@DV?$StrTraitMFC_DLL@DV?$ChTraitsCRT@D@ATL@@@@@ATL@@QAE@XZ
__unwindfunclet$?GetPoint@CElementTreeBuilder@@ABE?AVCCoordinate@@ABV?$CStringT@DV?$StrTraitMFC_DLL@DV?$ChTraitsCRT@D@ATL@@@@@ATL@@ABH@Z$23:
  00158	8d 8d 9c fe ff
	ff		 lea	 ecx, DWORD PTR $T33[ebp]
  0015e	ff 25 00 00 00
	00		 jmp	 DWORD PTR __imp_??1?$CStringT@DV?$StrTraitMFC_DLL@DV?$ChTraitsCRT@D@ATL@@@@@ATL@@QAE@XZ
__unwindfunclet$?GetPoint@CElementTreeBuilder@@ABE?AVCCoordinate@@ABV?$CStringT@DV?$StrTraitMFC_DLL@DV?$ChTraitsCRT@D@ATL@@@@@ATL@@ABH@Z$24:
  00164	8d 8d 78 fe ff
	ff		 lea	 ecx, DWORD PTR _strTemp1$15[ebp]
  0016a	ff 25 00 00 00
	00		 jmp	 DWORD PTR __imp_??1?$CStringT@DV?$StrTraitMFC_DLL@DV?$ChTraitsCRT@D@ATL@@@@@ATL@@QAE@XZ
__unwindfunclet$?GetPoint@CElementTreeBuilder@@ABE?AVCCoordinate@@ABV?$CStringT@DV?$StrTraitMFC_DLL@DV?$ChTraitsCRT@D@ATL@@@@@ATL@@ABH@Z$25:
  00170	8d 8d 94 fe ff
	ff		 lea	 ecx, DWORD PTR _strYear$30[ebp]
  00176	ff 25 00 00 00
	00		 jmp	 DWORD PTR __imp_??1?$CStringT@DV?$StrTraitMFC_DLL@DV?$ChTraitsCRT@D@ATL@@@@@ATL@@QAE@XZ
__unwindfunclet$?GetPoint@CElementTreeBuilder@@ABE?AVCCoordinate@@ABV?$CStringT@DV?$StrTraitMFC_DLL@DV?$ChTraitsCRT@D@ATL@@@@@ATL@@ABH@Z$26:
  0017c	8d 8d 84 fe ff
	ff		 lea	 ecx, DWORD PTR $T22[ebp]
  00182	ff 25 00 00 00
	00		 jmp	 DWORD PTR __imp_??1?$CStringT@DV?$StrTraitMFC_DLL@DV?$ChTraitsCRT@D@ATL@@@@@ATL@@QAE@XZ
__unwindfunclet$?GetPoint@CElementTreeBuilder@@ABE?AVCCoordinate@@ABV?$CStringT@DV?$StrTraitMFC_DLL@DV?$ChTraitsCRT@D@ATL@@@@@ATL@@ABH@Z$27:
  00188	8d 8d 60 fe ff
	ff		 lea	 ecx, DWORD PTR $T6[ebp]
  0018e	ff 25 00 00 00
	00		 jmp	 DWORD PTR __imp_??1?$CStringT@DV?$StrTraitMFC_DLL@DV?$ChTraitsCRT@D@ATL@@@@@ATL@@QAE@XZ
__unwindfunclet$?GetPoint@CElementTreeBuilder@@ABE?AVCCoordinate@@ABV?$CStringT@DV?$StrTraitMFC_DLL@DV?$ChTraitsCRT@D@ATL@@@@@ATL@@ABH@Z$28:
  00194	8d 8d 64 fe ff
	ff		 lea	 ecx, DWORD PTR $T8[ebp]
  0019a	ff 25 00 00 00
	00		 jmp	 DWORD PTR __imp_??1?$CStringT@DV?$StrTraitMFC_DLL@DV?$ChTraitsCRT@D@ATL@@@@@ATL@@QAE@XZ
__unwindfunclet$?GetPoint@CElementTreeBuilder@@ABE?AVCCoordinate@@ABV?$CStringT@DV?$StrTraitMFC_DLL@DV?$ChTraitsCRT@D@ATL@@@@@ATL@@ABH@Z$29:
  001a0	8d 8d 40 fe ff
	ff		 lea	 ecx, DWORD PTR $T2[ebp]
  001a6	ff 25 00 00 00
	00		 jmp	 DWORD PTR __imp_??1?$CStringT@DV?$StrTraitMFC_DLL@DV?$ChTraitsCRT@D@ATL@@@@@ATL@@QAE@XZ
__unwindfunclet$?GetPoint@CElementTreeBuilder@@ABE?AVCCoordinate@@ABV?$CStringT@DV?$StrTraitMFC_DLL@DV?$ChTraitsCRT@D@ATL@@@@@ATL@@ABH@Z$51:
  001ac	8b 85 68 fe ff
	ff		 mov	 eax, DWORD PTR $T9[ebp]
  001b2	25 00 02 00 00	 and	 eax, 512		; 00000200H
  001b7	0f 84 16 00 00
	00		 je	 $LN196@GetPoint
  001bd	81 a5 68 fe ff
	ff ff fd ff ff	 and	 DWORD PTR $T9[ebp], -513 ; fffffdffH
  001c7	8d 8d 9c fe ff
	ff		 lea	 ecx, DWORD PTR $T32[ebp]
  001cd	ff 25 00 00 00
	00		 jmp	 DWORD PTR __imp_??1?$CStringT@DV?$StrTraitMFC_DLL@DV?$ChTraitsCRT@D@ATL@@@@@ATL@@QAE@XZ
$LN196@GetPoint:
  001d3	c3		 ret	 0
__unwindfunclet$?GetPoint@CElementTreeBuilder@@ABE?AVCCoordinate@@ABV?$CStringT@DV?$StrTraitMFC_DLL@DV?$ChTraitsCRT@D@ATL@@@@@ATL@@ABH@Z$31:
  001d4	8d 8d a0 fe ff
	ff		 lea	 ecx, DWORD PTR _strDay$38[ebp]
  001da	ff 25 00 00 00
	00		 jmp	 DWORD PTR __imp_??1?$CStringT@DV?$StrTraitMFC_DLL@DV?$ChTraitsCRT@D@ATL@@@@@ATL@@QAE@XZ
__unwindfunclet$?GetPoint@CElementTreeBuilder@@ABE?AVCCoordinate@@ABV?$CStringT@DV?$StrTraitMFC_DLL@DV?$ChTraitsCRT@D@ATL@@@@@ATL@@ABH@Z$32:
  001e0	8d 8d 84 fe ff
	ff		 lea	 ecx, DWORD PTR $T21[ebp]
  001e6	ff 25 00 00 00
	00		 jmp	 DWORD PTR __imp_??1?$CStringT@DV?$StrTraitMFC_DLL@DV?$ChTraitsCRT@D@ATL@@@@@ATL@@QAE@XZ
__unwindfunclet$?GetPoint@CElementTreeBuilder@@ABE?AVCCoordinate@@ABV?$CStringT@DV?$StrTraitMFC_DLL@DV?$ChTraitsCRT@D@ATL@@@@@ATL@@ABH@Z$33:
  001ec	8d 8d 84 fe ff
	ff		 lea	 ecx, DWORD PTR $T20[ebp]
  001f2	ff 25 00 00 00
	00		 jmp	 DWORD PTR __imp_??1?$CStringT@DV?$StrTraitMFC_DLL@DV?$ChTraitsCRT@D@ATL@@@@@ATL@@QAE@XZ
__unwindfunclet$?GetPoint@CElementTreeBuilder@@ABE?AVCCoordinate@@ABV?$CStringT@DV?$StrTraitMFC_DLL@DV?$ChTraitsCRT@D@ATL@@@@@ATL@@ABH@Z$34:
  001f8	8d 8d 78 fe ff
	ff		 lea	 ecx, DWORD PTR _strTemp1$14[ebp]
  001fe	ff 25 00 00 00
	00		 jmp	 DWORD PTR __imp_??1?$CStringT@DV?$StrTraitMFC_DLL@DV?$ChTraitsCRT@D@ATL@@@@@ATL@@QAE@XZ
__unwindfunclet$?GetPoint@CElementTreeBuilder@@ABE?AVCCoordinate@@ABV?$CStringT@DV?$StrTraitMFC_DLL@DV?$ChTraitsCRT@D@ATL@@@@@ATL@@ABH@Z$35:
  00204	8d 8d 94 fe ff
	ff		 lea	 ecx, DWORD PTR _strYearMon$29[ebp]
  0020a	ff 25 00 00 00
	00		 jmp	 DWORD PTR __imp_??1?$CStringT@DV?$StrTraitMFC_DLL@DV?$ChTraitsCRT@D@ATL@@@@@ATL@@QAE@XZ
__unwindfunclet$?GetPoint@CElementTreeBuilder@@ABE?AVCCoordinate@@ABV?$CStringT@DV?$StrTraitMFC_DLL@DV?$ChTraitsCRT@D@ATL@@@@@ATL@@ABH@Z$36:
  00210	8d 8d 64 fe ff
	ff		 lea	 ecx, DWORD PTR $T7[ebp]
  00216	ff 25 00 00 00
	00		 jmp	 DWORD PTR __imp_??1?$CStringT@DV?$StrTraitMFC_DLL@DV?$ChTraitsCRT@D@ATL@@@@@ATL@@QAE@XZ
__unwindfunclet$?GetPoint@CElementTreeBuilder@@ABE?AVCCoordinate@@ABV?$CStringT@DV?$StrTraitMFC_DLL@DV?$ChTraitsCRT@D@ATL@@@@@ATL@@ABH@Z$37:
  0021c	8d 8d 60 fe ff
	ff		 lea	 ecx, DWORD PTR $T5[ebp]
  00222	ff 25 00 00 00
	00		 jmp	 DWORD PTR __imp_??1?$CStringT@DV?$StrTraitMFC_DLL@DV?$ChTraitsCRT@D@ATL@@@@@ATL@@QAE@XZ
__unwindfunclet$?GetPoint@CElementTreeBuilder@@ABE?AVCCoordinate@@ABV?$CStringT@DV?$StrTraitMFC_DLL@DV?$ChTraitsCRT@D@ATL@@@@@ATL@@ABH@Z$38:
  00228	8d 8d 84 fe ff
	ff		 lea	 ecx, DWORD PTR $T19[ebp]
  0022e	ff 25 00 00 00
	00		 jmp	 DWORD PTR __imp_??1?$CStringT@DV?$StrTraitMFC_DLL@DV?$ChTraitsCRT@D@ATL@@@@@ATL@@QAE@XZ
  00234	cc		 int	 3
  00235	cc		 int	 3
  00236	cc		 int	 3
  00237	cc		 int	 3
  00238	cc		 int	 3
__ehhandler$?GetPoint@CElementTreeBuilder@@ABE?AVCCoordinate@@ABV?$CStringT@DV?$StrTraitMFC_DLL@DV?$ChTraitsCRT@D@ATL@@@@@ATL@@ABH@Z:
  00239	90		 npad	 1
  0023a	90		 npad	 1
  0023b	8b 54 24 08	 mov	 edx, DWORD PTR [esp+8]
  0023f	8d 42 0c	 lea	 eax, DWORD PTR [edx+12]
  00242	8b 8a 38 fe ff
	ff		 mov	 ecx, DWORD PTR [edx-456]
  00248	33 c8		 xor	 ecx, eax
  0024a	e8 00 00 00 00	 call	 @__security_check_cookie@4
  0024f	8b 4a fc	 mov	 ecx, DWORD PTR [edx-4]
  00252	33 c8		 xor	 ecx, eax
  00254	e8 00 00 00 00	 call	 @__security_check_cookie@4
  00259	b8 00 00 00 00	 mov	 eax, OFFSET __ehfuncinfo$?GetPoint@CElementTreeBuilder@@ABE?AVCCoordinate@@ABV?$CStringT@DV?$StrTraitMFC_DLL@DV?$ChTraitsCRT@D@ATL@@@@@ATL@@ABH@Z
  0025e	e9 00 00 00 00	 jmp	 ___CxxFrameHandler3
text$x	ENDS
?GetPoint@CElementTreeBuilder@@ABE?AVCCoordinate@@ABV?$CStringT@DV?$StrTraitMFC_DLL@DV?$ChTraitsCRT@D@ATL@@@@@ATL@@ABH@Z ENDP ; CElementTreeBuilder::GetPoint
; Function compile flags: /Ogtp
; File D:\git\src\IBK\IBK_DRFN\ProjSrc\SrcChartEx\ChartAddIn\ChartAnalysisToolAddIn\AnalysisTool\ElementTreeBuilder.cpp
; File C:\Program Files (x86)\Microsoft Visual Studio\2019\Community\VC\Tools\MSVC\14.29.30133\atlmfc\include\atlsimpstr.h
; File D:\git\src\IBK\IBK_DRFN\ProjSrc\SrcChartEx\ChartAddIn\ChartAnalysisToolAddIn\AnalysisTool\ElementTreeBuilder.cpp
; File C:\Program Files (x86)\Microsoft Visual Studio\2019\Community\VC\Tools\MSVC\14.29.30133\atlmfc\include\atlsimpstr.h
; File D:\git\src\IBK\IBK_DRFN\ProjSrc\SrcChartEx\ChartAddIn\ChartAnalysisToolAddIn\AnalysisTool\ElementTreeBuilder.cpp
; File C:\Program Files (x86)\Microsoft Visual Studio\2019\Community\VC\Tools\MSVC\14.29.30133\atlmfc\include\atlsimpstr.h
; File D:\git\src\IBK\IBK_DRFN\ProjSrc\SrcChartEx\ChartAddIn\ChartAnalysisToolAddIn\AnalysisTool\ElementTreeBuilder.cpp
; File C:\Program Files (x86)\Microsoft Visual Studio\2019\Community\VC\Tools\MSVC\14.29.30133\atlmfc\include\atlsimpstr.h
; File D:\git\src\IBK\IBK_DRFN\ProjSrc\SrcChartEx\ChartAddIn\ChartAnalysisToolAddIn\AnalysisTool\ElementTreeBuilder.cpp
; File C:\Program Files (x86)\Microsoft Visual Studio\2019\Community\VC\Tools\MSVC\14.29.30133\include\deque
; File D:\git\src\IBK\IBK_DRFN\ProjSrc\SrcChartEx\ChartAddIn\ChartAnalysisToolAddIn\AnalysisTool\ElementTreeBuilder.cpp
; File C:\Program Files (x86)\Microsoft Visual Studio\2019\Community\VC\Tools\MSVC\14.29.30133\include\deque
; File C:\Program Files (x86)\Microsoft Visual Studio\2019\Community\VC\Tools\MSVC\14.29.30133\include\xmemory
; File C:\Program Files (x86)\Microsoft Visual Studio\2019\Community\VC\Tools\MSVC\14.29.30133\include\deque
; File C:\Program Files (x86)\Microsoft Visual Studio\2019\Community\VC\Tools\MSVC\14.29.30133\include\xmemory
; File C:\Program Files (x86)\Microsoft Visual Studio\2019\Community\VC\Tools\MSVC\14.29.30133\include\deque
; File C:\Program Files (x86)\Microsoft Visual Studio\2019\Community\VC\Tools\MSVC\14.29.30133\include\xmemory
; File C:\Program Files (x86)\Microsoft Visual Studio\2019\Community\VC\Tools\MSVC\14.29.30133\include\deque
; File D:\git\src\IBK\IBK_DRFN\ProjSrc\SrcChartEx\ChartAddIn\ChartAnalysisToolAddIn\AnalysisTool\ElementTreeBuilder.cpp
; File C:\Program Files (x86)\Microsoft Visual Studio\2019\Community\VC\Tools\MSVC\14.29.30133\atlmfc\include\atlsimpstr.h
; File D:\git\src\IBK\IBK_DRFN\ProjSrc\SrcChartEx\ChartAddIn\ChartAnalysisToolAddIn\AnalysisTool\ElementTreeBuilder.cpp
; File C:\Program Files (x86)\Microsoft Visual Studio\2019\Community\VC\Tools\MSVC\14.29.30133\atlmfc\include\atlsimpstr.h
; File D:\git\src\IBK\IBK_DRFN\ProjSrc\SrcChartEx\ChartAddIn\ChartAnalysisToolAddIn\AnalysisTool\ElementTreeBuilder.cpp
; File C:\Program Files (x86)\Microsoft Visual Studio\2019\Community\VC\Tools\MSVC\14.29.30133\include\xmemory
; File D:\git\src\IBK\IBK_DRFN\ProjSrc\SrcChartEx\ChartAddIn\ChartAnalysisToolAddIn\AnalysisTool\ElementTreeBuilder.cpp
;	COMDAT ?GetPoint@CElementTreeBuilder@@ABEXABV?$CStringT@DV?$StrTraitMFC_DLL@DV?$ChTraitsCRT@D@ATL@@@@@ATL@@ABHAAV?$CDequeList@VCCoordinate@@@@@Z
_TEXT	SEGMENT
$T2 = -64						; size = 32
_this$1$ = -32						; size = 4
$T3 = -28						; size = 4
$T4 = -24						; size = 4
$T5 = -20						; size = 4
_strPoints$ = -16					; size = 4
__$EHRec$ = -12						; size = 12
_strNewData$6 = 8					; size = 4
_strPoint$7 = 8						; size = 4
_strData$ = 8						; size = 4
_nBlockTimeDiff$ = 12					; size = 4
$T8 = 16						; size = 4
_pointList$ = 16					; size = 4
?GetPoint@CElementTreeBuilder@@ABEXABV?$CStringT@DV?$StrTraitMFC_DLL@DV?$ChTraitsCRT@D@ATL@@@@@ATL@@ABHAAV?$CDequeList@VCCoordinate@@@@@Z PROC ; CElementTreeBuilder::GetPoint, COMDAT
; _this$ = ecx

; 482  : {

  00000	55		 push	 ebp
  00001	8b ec		 mov	 ebp, esp
  00003	6a ff		 push	 -1
  00005	68 00 00 00 00	 push	 __ehhandler$?GetPoint@CElementTreeBuilder@@ABEXABV?$CStringT@DV?$StrTraitMFC_DLL@DV?$ChTraitsCRT@D@ATL@@@@@ATL@@ABHAAV?$CDequeList@VCCoordinate@@@@@Z
  0000a	64 a1 00 00 00
	00		 mov	 eax, DWORD PTR fs:0
  00010	50		 push	 eax
  00011	83 ec 34	 sub	 esp, 52			; 00000034H
  00014	53		 push	 ebx
  00015	56		 push	 esi
  00016	57		 push	 edi
  00017	a1 00 00 00 00	 mov	 eax, DWORD PTR ___security_cookie
  0001c	33 c5		 xor	 eax, ebp
  0001e	50		 push	 eax
  0001f	8d 45 f4	 lea	 eax, DWORD PTR __$EHRec$[ebp]
  00022	64 a3 00 00 00
	00		 mov	 DWORD PTR fs:0, eax
  00028	8b d9		 mov	 ebx, ecx
  0002a	89 5d e0	 mov	 DWORD PTR _this$1$[ebp], ebx

; 483  : 	CString strPoints = GetData(strData, "<Points>\r\n", "<\\Points>\r\n");

  0002d	68 00 00 00 00	 push	 OFFSET ??_C@_0M@FEMGIGA@?$DM?2Points?$DO?$AN?6@
  00032	8d 4d e8	 lea	 ecx, DWORD PTR $T4[ebp]
  00035	ff 15 00 00 00
	00		 call	 DWORD PTR __imp_??0?$CStringT@DV?$StrTraitMFC_DLL@DV?$ChTraitsCRT@D@ATL@@@@@ATL@@QAE@PBD@Z
  0003b	68 00 00 00 00	 push	 OFFSET ??_C@_0L@FEOJPCFO@?$DMPoints?$DO?$AN?6@
  00040	8d 4d ec	 lea	 ecx, DWORD PTR $T5[ebp]
  00043	c7 45 fc 00 00
	00 00		 mov	 DWORD PTR __$EHRec$[ebp+8], 0
  0004a	ff 15 00 00 00
	00		 call	 DWORD PTR __imp_??0?$CStringT@DV?$StrTraitMFC_DLL@DV?$ChTraitsCRT@D@ATL@@@@@ATL@@QAE@PBD@Z

; 384  : 	CString strNewData = strOrgData;

  00050	ff 75 08	 push	 DWORD PTR _strData$[ebp]
  00053	8d 4d 08	 lea	 ecx, DWORD PTR _strNewData$6[ebp]

; 483  : 	CString strPoints = GetData(strData, "<Points>\r\n", "<\\Points>\r\n");

  00056	c6 45 fc 01	 mov	 BYTE PTR __$EHRec$[ebp+8], 1

; 384  : 	CString strNewData = strOrgData;

  0005a	ff 15 00 00 00
	00		 call	 DWORD PTR __imp_??0?$CStringT@DV?$StrTraitMFC_DLL@DV?$ChTraitsCRT@D@ATL@@@@@ATL@@QAE@ABV01@@Z

; 385  : 	CDataConversion::GetStringData(strNewData, strTrimStart);

  00060	6a 01		 push	 1
  00062	8d 45 ec	 lea	 eax, DWORD PTR $T5[ebp]
  00065	c6 45 fc 02	 mov	 BYTE PTR __$EHRec$[ebp+8], 2
  00069	50		 push	 eax
  0006a	8d 45 08	 lea	 eax, DWORD PTR _strNewData$6[ebp]
  0006d	50		 push	 eax
  0006e	8d 45 e4	 lea	 eax, DWORD PTR $T3[ebp]
  00071	50		 push	 eax
  00072	e8 00 00 00 00	 call	 ?GetStringData@CDataConversion@@SA?AV?$CStringT@DV?$StrTraitMFC_DLL@DV?$ChTraitsCRT@D@ATL@@@@@ATL@@AAV23@ABV23@_N@Z ; CDataConversion::GetStringData
  00077	83 c4 10	 add	 esp, 16			; 00000010H
  0007a	8d 4d e4	 lea	 ecx, DWORD PTR $T3[ebp]
  0007d	ff 15 00 00 00
	00		 call	 DWORD PTR __imp_??1?$CStringT@DV?$StrTraitMFC_DLL@DV?$ChTraitsCRT@D@ATL@@@@@ATL@@QAE@XZ

; 386  : 	return CDataConversion::GetStringData(strNewData, strTrimEnd);

  00083	6a 01		 push	 1
  00085	8d 45 e8	 lea	 eax, DWORD PTR $T4[ebp]
  00088	50		 push	 eax
  00089	8d 45 08	 lea	 eax, DWORD PTR _strNewData$6[ebp]
  0008c	50		 push	 eax
  0008d	8d 45 f0	 lea	 eax, DWORD PTR _strPoints$[ebp]
  00090	50		 push	 eax
  00091	e8 00 00 00 00	 call	 ?GetStringData@CDataConversion@@SA?AV?$CStringT@DV?$StrTraitMFC_DLL@DV?$ChTraitsCRT@D@ATL@@@@@ATL@@AAV23@ABV23@_N@Z ; CDataConversion::GetStringData
  00096	83 c4 10	 add	 esp, 16			; 00000010H
  00099	8d 4d 08	 lea	 ecx, DWORD PTR _strNewData$6[ebp]
  0009c	ff 15 00 00 00
	00		 call	 DWORD PTR __imp_??1?$CStringT@DV?$StrTraitMFC_DLL@DV?$ChTraitsCRT@D@ATL@@@@@ATL@@QAE@XZ

; 483  : 	CString strPoints = GetData(strData, "<Points>\r\n", "<\\Points>\r\n");

  000a2	8d 4d ec	 lea	 ecx, DWORD PTR $T5[ebp]
  000a5	ff 15 00 00 00
	00		 call	 DWORD PTR __imp_??1?$CStringT@DV?$StrTraitMFC_DLL@DV?$ChTraitsCRT@D@ATL@@@@@ATL@@QAE@XZ
  000ab	8d 4d e8	 lea	 ecx, DWORD PTR $T4[ebp]
  000ae	c6 45 fc 05	 mov	 BYTE PTR __$EHRec$[ebp+8], 5
  000b2	ff 15 00 00 00
	00		 call	 DWORD PTR __imp_??1?$CStringT@DV?$StrTraitMFC_DLL@DV?$ChTraitsCRT@D@ATL@@@@@ATL@@QAE@XZ
; File C:\Program Files (x86)\Microsoft Visual Studio\2019\Community\VC\Tools\MSVC\14.29.30133\atlmfc\include\atlsimpstr.h

; 519  : 		return( GetData()->nDataLength );

  000b8	8b 45 f0	 mov	 eax, DWORD PTR _strPoints$[ebp]

; 533  : 		return( GetLength() == 0 );

  000bb	83 78 f4 00	 cmp	 DWORD PTR [eax-12], 0
; File D:\git\src\IBK\IBK_DRFN\ProjSrc\SrcChartEx\ChartAddIn\ChartAnalysisToolAddIn\AnalysisTool\ElementTreeBuilder.cpp

; 484  : 	while(!strPoints.IsEmpty())

  000bf	0f 84 07 01 00
	00		 je	 $LN3@GetPoint
  000c5	8b 75 10	 mov	 esi, DWORD PTR _pointList$[ebp]
  000c8	0f 1f 84 00 00
	00 00 00	 npad	 8
$LL2@GetPoint:

; 486  : 		CString strPoint = GetTrimData(strPoints, "<\\Point>\r\n");

  000d0	68 00 00 00 00	 push	 OFFSET ??_C@_0L@KMPINHDH@?$DM?2Point?$DO?$AN?6@
  000d5	8d 4d 10	 lea	 ecx, DWORD PTR $T8[ebp]
  000d8	ff 15 00 00 00
	00		 call	 DWORD PTR __imp_??0?$CStringT@DV?$StrTraitMFC_DLL@DV?$ChTraitsCRT@D@ATL@@@@@ATL@@QAE@PBD@Z
; File C:\Program Files (x86)\Microsoft Visual Studio\2019\Community\VC\Tools\MSVC\14.29.30133\atlmfc\include\atlsimpstr.h

; 519  : 		return( GetData()->nDataLength );

  000de	8b 45 10	 mov	 eax, DWORD PTR $T8[ebp]
; File D:\git\src\IBK\IBK_DRFN\ProjSrc\SrcChartEx\ChartAddIn\ChartAnalysisToolAddIn\AnalysisTool\ElementTreeBuilder.cpp

; 486  : 		CString strPoint = GetTrimData(strPoints, "<\\Point>\r\n");

  000e1	c6 45 fc 06	 mov	 BYTE PTR __$EHRec$[ebp+8], 6
; File C:\Program Files (x86)\Microsoft Visual Studio\2019\Community\VC\Tools\MSVC\14.29.30133\atlmfc\include\atlsimpstr.h

; 533  : 		return( GetLength() == 0 );

  000e5	83 78 f4 00	 cmp	 DWORD PTR [eax-12], 0
; File D:\git\src\IBK\IBK_DRFN\ProjSrc\SrcChartEx\ChartAddIn\ChartAnalysisToolAddIn\AnalysisTool\ElementTreeBuilder.cpp

; 810  : 	if(strTrimData.IsEmpty())

  000e9	75 0f		 jne	 SHORT $LN26@GetPoint

; 811  : 		return strData;

  000eb	8d 45 f0	 lea	 eax, DWORD PTR _strPoints$[ebp]
  000ee	50		 push	 eax
  000ef	8d 4d 08	 lea	 ecx, DWORD PTR _strPoint$7[ebp]
  000f2	ff 15 00 00 00
	00		 call	 DWORD PTR __imp_??0?$CStringT@DV?$StrTraitMFC_DLL@DV?$ChTraitsCRT@D@ATL@@@@@ATL@@QAE@ABV01@@Z
  000f8	eb 16		 jmp	 SHORT $LN25@GetPoint
$LN26@GetPoint:

; 812  : 
; 813  : 	return CDataConversion::GetStringData(strData, strTrimData, false);

  000fa	6a 00		 push	 0
  000fc	8d 45 10	 lea	 eax, DWORD PTR $T8[ebp]
  000ff	50		 push	 eax
  00100	8d 45 f0	 lea	 eax, DWORD PTR _strPoints$[ebp]
  00103	50		 push	 eax
  00104	8d 45 08	 lea	 eax, DWORD PTR _strPoint$7[ebp]
  00107	50		 push	 eax
  00108	e8 00 00 00 00	 call	 ?GetStringData@CDataConversion@@SA?AV?$CStringT@DV?$StrTraitMFC_DLL@DV?$ChTraitsCRT@D@ATL@@@@@ATL@@AAV23@ABV23@_N@Z ; CDataConversion::GetStringData
  0010d	83 c4 10	 add	 esp, 16			; 00000010H
$LN25@GetPoint:

; 486  : 		CString strPoint = GetTrimData(strPoints, "<\\Point>\r\n");

  00110	8d 4d 10	 lea	 ecx, DWORD PTR $T8[ebp]
  00113	c6 45 fc 08	 mov	 BYTE PTR __$EHRec$[ebp+8], 8
  00117	ff 15 00 00 00
	00		 call	 DWORD PTR __imp_??1?$CStringT@DV?$StrTraitMFC_DLL@DV?$ChTraitsCRT@D@ATL@@@@@ATL@@QAE@XZ
; File C:\Program Files (x86)\Microsoft Visual Studio\2019\Community\VC\Tools\MSVC\14.29.30133\atlmfc\include\atlsimpstr.h

; 519  : 		return( GetData()->nDataLength );

  0011d	8b 45 08	 mov	 eax, DWORD PTR _strPoint$7[ebp]

; 533  : 		return( GetLength() == 0 );

  00120	83 78 f4 00	 cmp	 DWORD PTR [eax-12], 0
; File D:\git\src\IBK\IBK_DRFN\ProjSrc\SrcChartEx\ChartAddIn\ChartAnalysisToolAddIn\AnalysisTool\ElementTreeBuilder.cpp

; 487  : 		if(strPoint.IsEmpty())

  00124	0f 84 99 00 00
	00		 je	 $LN90@GetPoint

; 490  : 		pointList.AddTail(GetPoint(strPoint, nBlockTimeDiff));

  0012a	ff 75 0c	 push	 DWORD PTR _nBlockTimeDiff$[ebp]
  0012d	8d 45 08	 lea	 eax, DWORD PTR _strPoint$7[ebp]
  00130	8b cb		 mov	 ecx, ebx
  00132	50		 push	 eax
  00133	8d 45 c0	 lea	 eax, DWORD PTR $T2[ebp]
  00136	50		 push	 eax
  00137	e8 00 00 00 00	 call	 ?GetPoint@CElementTreeBuilder@@ABE?AVCCoordinate@@ABV?$CStringT@DV?$StrTraitMFC_DLL@DV?$ChTraitsCRT@D@ATL@@@@@ATL@@ABH@Z ; CElementTreeBuilder::GetPoint
  0013c	8b d8		 mov	 ebx, eax
; File C:\Program Files (x86)\Microsoft Visual Studio\2019\Community\VC\Tools\MSVC\14.29.30133\include\deque

; 1106 :         if ((_Myoff() + _Mysize()) % _Block_size == 0 && _Mapsize() <= (_Mysize() + _Block_size) / _Block_size) {

  0013e	8b 56 10	 mov	 edx, DWORD PTR [esi+16]
  00141	8b 4e 08	 mov	 ecx, DWORD PTR [esi+8]
; File D:\git\src\IBK\IBK_DRFN\ProjSrc\SrcChartEx\ChartAddIn\ChartAnalysisToolAddIn\AnalysisTool\ElementTreeBuilder.cpp

; 490  : 		pointList.AddTail(GetPoint(strPoint, nBlockTimeDiff));

  00144	c6 45 fc 09	 mov	 BYTE PTR __$EHRec$[ebp+8], 9
; File C:\Program Files (x86)\Microsoft Visual Studio\2019\Community\VC\Tools\MSVC\14.29.30133\include\deque

; 1106 :         if ((_Myoff() + _Mysize()) % _Block_size == 0 && _Mapsize() <= (_Mysize() + _Block_size) / _Block_size) {

  00148	8d 42 01	 lea	 eax, DWORD PTR [edx+1]
  0014b	3b c8		 cmp	 ecx, eax
  0014d	77 0f		 ja	 SHORT $LN47@GetPoint

; 1107 :             _Growmap(1);

  0014f	6a 01		 push	 1
  00151	8b ce		 mov	 ecx, esi
  00153	e8 00 00 00 00	 call	 ?_Growmap@?$deque@VCCoordinate@@V?$allocator@VCCoordinate@@@std@@@std@@AAEXI@Z ; std::deque<CCoordinate,std::allocator<CCoordinate> >::_Growmap
  00158	8b 4e 08	 mov	 ecx, DWORD PTR [esi+8]
  0015b	8b 56 10	 mov	 edx, DWORD PTR [esi+16]
$LN47@GetPoint:

; 1108 :         }
; 1109 :         _Myoff() &= _Mapsize() * _Block_size - 1;

  0015e	8d 41 ff	 lea	 eax, DWORD PTR [ecx-1]

; 559  :         return (_Off / _Block_size) & (_Mapsize - 1);

  00161	49		 dec	 ecx

; 1109 :         _Myoff() &= _Mapsize() * _Block_size - 1;

  00162	21 46 0c	 and	 DWORD PTR [esi+12], eax
  00165	8b 46 0c	 mov	 eax, DWORD PTR [esi+12]

; 1110 :         size_type _Newoff = _Myoff() + _Mysize();

  00168	03 c2		 add	 eax, edx

; 559  :         return (_Off / _Block_size) & (_Mapsize - 1);

  0016a	23 c8		 and	 ecx, eax

; 1112 :         if (_Map()[_Block] == nullptr) {

  0016c	8d 3c 8d 00 00
	00 00		 lea	 edi, DWORD PTR [ecx*4]
  00173	8b 4e 04	 mov	 ecx, DWORD PTR [esi+4]
  00176	83 3c 39 00	 cmp	 DWORD PTR [ecx+edi], 0
  0017a	75 13		 jne	 SHORT $LN96@GetPoint
; File C:\Program Files (x86)\Microsoft Visual Studio\2019\Community\VC\Tools\MSVC\14.29.30133\include\xmemory

; 79   :         return ::operator new(_Bytes);

  0017c	6a 20		 push	 32			; 00000020H
  0017e	e8 00 00 00 00	 call	 ??2@YAPAXI@Z		; operator new
; File C:\Program Files (x86)\Microsoft Visual Studio\2019\Community\VC\Tools\MSVC\14.29.30133\include\deque

; 1113 :             _Map()[_Block] = _Getal().allocate(_Block_size);

  00183	8b 4e 04	 mov	 ecx, DWORD PTR [esi+4]
; File C:\Program Files (x86)\Microsoft Visual Studio\2019\Community\VC\Tools\MSVC\14.29.30133\include\xmemory

; 79   :         return ::operator new(_Bytes);

  00186	83 c4 04	 add	 esp, 4
; File C:\Program Files (x86)\Microsoft Visual Studio\2019\Community\VC\Tools\MSVC\14.29.30133\include\deque

; 1113 :             _Map()[_Block] = _Getal().allocate(_Block_size);

  00189	89 04 0f	 mov	 DWORD PTR [edi+ecx], eax
  0018c	8b 4e 04	 mov	 ecx, DWORD PTR [esi+4]
$LN96@GetPoint:
; File C:\Program Files (x86)\Microsoft Visual Studio\2019\Community\VC\Tools\MSVC\14.29.30133\include\xmemory

; 681  :             ::new (_Voidify_iter(_Ptr)) _Objty(_STD forward<_Types>(_Args)...);

  0018f	8b 0c 0f	 mov	 ecx, DWORD PTR [edi+ecx]
  00192	53		 push	 ebx
  00193	e8 00 00 00 00	 call	 ??0CCoordinate@@QAE@ABV0@@Z ; CCoordinate::CCoordinate
; File C:\Program Files (x86)\Microsoft Visual Studio\2019\Community\VC\Tools\MSVC\14.29.30133\include\deque

; 1119 :         ++_Mysize();

  00198	ff 46 10	 inc	 DWORD PTR [esi+16]
  0019b	8d 4d d4	 lea	 ecx, DWORD PTR $T2[ebp+20]
  0019e	ff 15 00 00 00
	00		 call	 DWORD PTR __imp_??1?$CStringT@DV?$StrTraitMFC_DLL@DV?$ChTraitsCRT@D@ATL@@@@@ATL@@QAE@XZ
; File D:\git\src\IBK\IBK_DRFN\ProjSrc\SrcChartEx\ChartAddIn\ChartAnalysisToolAddIn\AnalysisTool\ElementTreeBuilder.cpp

; 491  : 	}

  001a4	8d 4d 08	 lea	 ecx, DWORD PTR _strPoint$7[ebp]
  001a7	c6 45 fc 05	 mov	 BYTE PTR __$EHRec$[ebp+8], 5
  001ab	ff 15 00 00 00
	00		 call	 DWORD PTR __imp_??1?$CStringT@DV?$StrTraitMFC_DLL@DV?$ChTraitsCRT@D@ATL@@@@@ATL@@QAE@XZ
; File C:\Program Files (x86)\Microsoft Visual Studio\2019\Community\VC\Tools\MSVC\14.29.30133\atlmfc\include\atlsimpstr.h

; 533  : 		return( GetLength() == 0 );

  001b1	8b 45 f0	 mov	 eax, DWORD PTR _strPoints$[ebp]
; File D:\git\src\IBK\IBK_DRFN\ProjSrc\SrcChartEx\ChartAddIn\ChartAnalysisToolAddIn\AnalysisTool\ElementTreeBuilder.cpp

; 484  : 	while(!strPoints.IsEmpty())

  001b4	8b 5d e0	 mov	 ebx, DWORD PTR _this$1$[ebp]
; File C:\Program Files (x86)\Microsoft Visual Studio\2019\Community\VC\Tools\MSVC\14.29.30133\atlmfc\include\atlsimpstr.h

; 533  : 		return( GetLength() == 0 );

  001b7	83 78 f4 00	 cmp	 DWORD PTR [eax-12], 0
; File D:\git\src\IBK\IBK_DRFN\ProjSrc\SrcChartEx\ChartAddIn\ChartAnalysisToolAddIn\AnalysisTool\ElementTreeBuilder.cpp

; 484  : 	while(!strPoints.IsEmpty())

  001bb	0f 85 0f ff ff
	ff		 jne	 $LL2@GetPoint
; File C:\Program Files (x86)\Microsoft Visual Studio\2019\Community\VC\Tools\MSVC\14.29.30133\include\xmemory

; 130  :     if (_Block_size <= _Bytes) {

  001c1	eb 09		 jmp	 SHORT $LN3@GetPoint
$LN90@GetPoint:
; File D:\git\src\IBK\IBK_DRFN\ProjSrc\SrcChartEx\ChartAddIn\ChartAnalysisToolAddIn\AnalysisTool\ElementTreeBuilder.cpp

; 488  : 			return;

  001c3	8d 4d 08	 lea	 ecx, DWORD PTR _strPoint$7[ebp]
  001c6	ff 15 00 00 00
	00		 call	 DWORD PTR __imp_??1?$CStringT@DV?$StrTraitMFC_DLL@DV?$ChTraitsCRT@D@ATL@@@@@ATL@@QAE@XZ
$LN3@GetPoint:

; 492  : }

  001cc	8d 4d f0	 lea	 ecx, DWORD PTR _strPoints$[ebp]
  001cf	ff 15 00 00 00
	00		 call	 DWORD PTR __imp_??1?$CStringT@DV?$StrTraitMFC_DLL@DV?$ChTraitsCRT@D@ATL@@@@@ATL@@QAE@XZ
  001d5	8b 4d f4	 mov	 ecx, DWORD PTR __$EHRec$[ebp]
  001d8	64 89 0d 00 00
	00 00		 mov	 DWORD PTR fs:0, ecx
  001df	59		 pop	 ecx
  001e0	5f		 pop	 edi
  001e1	5e		 pop	 esi
  001e2	5b		 pop	 ebx
  001e3	8b e5		 mov	 esp, ebp
  001e5	5d		 pop	 ebp
  001e6	c2 0c 00	 ret	 12			; 0000000cH
_TEXT	ENDS
;	COMDAT text$x
text$x	SEGMENT
__unwindfunclet$?GetPoint@CElementTreeBuilder@@ABEXABV?$CStringT@DV?$StrTraitMFC_DLL@DV?$ChTraitsCRT@D@ATL@@@@@ATL@@ABHAAV?$CDequeList@VCCoordinate@@@@@Z$0:
  00000	8d 4d e8	 lea	 ecx, DWORD PTR $T4[ebp]
  00003	ff 25 00 00 00
	00		 jmp	 DWORD PTR __imp_??1?$CStringT@DV?$StrTraitMFC_DLL@DV?$ChTraitsCRT@D@ATL@@@@@ATL@@QAE@XZ
__unwindfunclet$?GetPoint@CElementTreeBuilder@@ABEXABV?$CStringT@DV?$StrTraitMFC_DLL@DV?$ChTraitsCRT@D@ATL@@@@@ATL@@ABHAAV?$CDequeList@VCCoordinate@@@@@Z$1:
  00009	8d 4d ec	 lea	 ecx, DWORD PTR $T5[ebp]
  0000c	ff 25 00 00 00
	00		 jmp	 DWORD PTR __imp_??1?$CStringT@DV?$StrTraitMFC_DLL@DV?$ChTraitsCRT@D@ATL@@@@@ATL@@QAE@XZ
__unwindfunclet$?GetPoint@CElementTreeBuilder@@ABEXABV?$CStringT@DV?$StrTraitMFC_DLL@DV?$ChTraitsCRT@D@ATL@@@@@ATL@@ABHAAV?$CDequeList@VCCoordinate@@@@@Z$6:
  00012	8d 4d 08	 lea	 ecx, DWORD PTR _strNewData$6[ebp]
  00015	ff 25 00 00 00
	00		 jmp	 DWORD PTR __imp_??1?$CStringT@DV?$StrTraitMFC_DLL@DV?$ChTraitsCRT@D@ATL@@@@@ATL@@QAE@XZ
__unwindfunclet$?GetPoint@CElementTreeBuilder@@ABEXABV?$CStringT@DV?$StrTraitMFC_DLL@DV?$ChTraitsCRT@D@ATL@@@@@ATL@@ABHAAV?$CDequeList@VCCoordinate@@@@@Z$2:
  0001b	8d 4d f0	 lea	 ecx, DWORD PTR _strPoints$[ebp]
  0001e	ff 25 00 00 00
	00		 jmp	 DWORD PTR __imp_??1?$CStringT@DV?$StrTraitMFC_DLL@DV?$ChTraitsCRT@D@ATL@@@@@ATL@@QAE@XZ
__unwindfunclet$?GetPoint@CElementTreeBuilder@@ABEXABV?$CStringT@DV?$StrTraitMFC_DLL@DV?$ChTraitsCRT@D@ATL@@@@@ATL@@ABHAAV?$CDequeList@VCCoordinate@@@@@Z$3:
  00024	8d 4d 10	 lea	 ecx, DWORD PTR $T8[ebp]
  00027	ff 25 00 00 00
	00		 jmp	 DWORD PTR __imp_??1?$CStringT@DV?$StrTraitMFC_DLL@DV?$ChTraitsCRT@D@ATL@@@@@ATL@@QAE@XZ
__unwindfunclet$?GetPoint@CElementTreeBuilder@@ABEXABV?$CStringT@DV?$StrTraitMFC_DLL@DV?$ChTraitsCRT@D@ATL@@@@@ATL@@ABHAAV?$CDequeList@VCCoordinate@@@@@Z$4:
  0002d	8d 4d 08	 lea	 ecx, DWORD PTR _strPoint$7[ebp]
  00030	ff 25 00 00 00
	00		 jmp	 DWORD PTR __imp_??1?$CStringT@DV?$StrTraitMFC_DLL@DV?$ChTraitsCRT@D@ATL@@@@@ATL@@QAE@XZ
__unwindfunclet$?GetPoint@CElementTreeBuilder@@ABEXABV?$CStringT@DV?$StrTraitMFC_DLL@DV?$ChTraitsCRT@D@ATL@@@@@ATL@@ABHAAV?$CDequeList@VCCoordinate@@@@@Z$5:
  00036	8d 4d c0	 lea	 ecx, DWORD PTR $T2[ebp]
  00039	e9 00 00 00 00	 jmp	 ??1CCoordinate@@QAE@XZ
  0003e	cc		 int	 3
  0003f	cc		 int	 3
  00040	cc		 int	 3
  00041	cc		 int	 3
  00042	cc		 int	 3
__ehhandler$?GetPoint@CElementTreeBuilder@@ABEXABV?$CStringT@DV?$StrTraitMFC_DLL@DV?$ChTraitsCRT@D@ATL@@@@@ATL@@ABHAAV?$CDequeList@VCCoordinate@@@@@Z:
  00043	90		 npad	 1
  00044	90		 npad	 1
  00045	8b 54 24 08	 mov	 edx, DWORD PTR [esp+8]
  00049	8d 42 0c	 lea	 eax, DWORD PTR [edx+12]
  0004c	8b 4a bc	 mov	 ecx, DWORD PTR [edx-68]
  0004f	33 c8		 xor	 ecx, eax
  00051	e8 00 00 00 00	 call	 @__security_check_cookie@4
  00056	b8 00 00 00 00	 mov	 eax, OFFSET __ehfuncinfo$?GetPoint@CElementTreeBuilder@@ABEXABV?$CStringT@DV?$StrTraitMFC_DLL@DV?$ChTraitsCRT@D@ATL@@@@@ATL@@ABHAAV?$CDequeList@VCCoordinate@@@@@Z
  0005b	e9 00 00 00 00	 jmp	 ___CxxFrameHandler3
text$x	ENDS
?GetPoint@CElementTreeBuilder@@ABEXABV?$CStringT@DV?$StrTraitMFC_DLL@DV?$ChTraitsCRT@D@ATL@@@@@ATL@@ABHAAV?$CDequeList@VCCoordinate@@@@@Z ENDP ; CElementTreeBuilder::GetPoint
; Function compile flags: /Ogtp
; File D:\git\src\IBK\IBK_DRFN\ProjSrc\SrcChartEx\ChartAddIn\ChartAnalysisToolAddIn\AnalysisTool\ElementTreeBuilder.cpp
;	COMDAT ?GetToolType@CElementTreeBuilder@@ABE?AW4TOOLTYPE@CAnalysis@@ABV?$CStringT@DV?$StrTraitMFC_DLL@DV?$ChTraitsCRT@D@ATL@@@@@ATL@@@Z
_TEXT	SEGMENT
$T2 = -28						; size = 4
_strToolType$ = -24					; size = 4
$T3 = -20						; size = 4
$T4 = -16						; size = 4
__$EHRec$ = -12						; size = 12
_strNewData$5 = 8					; size = 4
_strData$ = 8						; size = 4
?GetToolType@CElementTreeBuilder@@ABE?AW4TOOLTYPE@CAnalysis@@ABV?$CStringT@DV?$StrTraitMFC_DLL@DV?$ChTraitsCRT@D@ATL@@@@@ATL@@@Z PROC ; CElementTreeBuilder::GetToolType, COMDAT
; _this$ = ecx

; 397  : {

  00000	55		 push	 ebp
  00001	8b ec		 mov	 ebp, esp
  00003	6a ff		 push	 -1
  00005	68 00 00 00 00	 push	 __ehhandler$?GetToolType@CElementTreeBuilder@@ABE?AW4TOOLTYPE@CAnalysis@@ABV?$CStringT@DV?$StrTraitMFC_DLL@DV?$ChTraitsCRT@D@ATL@@@@@ATL@@@Z
  0000a	64 a1 00 00 00
	00		 mov	 eax, DWORD PTR fs:0
  00010	50		 push	 eax
  00011	83 ec 10	 sub	 esp, 16			; 00000010H
  00014	56		 push	 esi
  00015	a1 00 00 00 00	 mov	 eax, DWORD PTR ___security_cookie
  0001a	33 c5		 xor	 eax, ebp
  0001c	50		 push	 eax
  0001d	8d 45 f4	 lea	 eax, DWORD PTR __$EHRec$[ebp]
  00020	64 a3 00 00 00
	00		 mov	 DWORD PTR fs:0, eax

; 398  : 	CString strToolType = GetData(strData, "<ToolType>", "<\\ToolType>\r\n");

  00026	68 00 00 00 00	 push	 OFFSET ??_C@_0O@EKBCJKJI@?$DM?2ToolType?$DO?$AN?6@
  0002b	8d 4d ec	 lea	 ecx, DWORD PTR $T3[ebp]
  0002e	ff 15 00 00 00
	00		 call	 DWORD PTR __imp_??0?$CStringT@DV?$StrTraitMFC_DLL@DV?$ChTraitsCRT@D@ATL@@@@@ATL@@QAE@PBD@Z
  00034	68 00 00 00 00	 push	 OFFSET ??_C@_0L@MHMLBBHM@?$DMToolType?$DO@
  00039	8d 4d f0	 lea	 ecx, DWORD PTR $T4[ebp]
  0003c	c7 45 fc 00 00
	00 00		 mov	 DWORD PTR __$EHRec$[ebp+8], 0
  00043	ff 15 00 00 00
	00		 call	 DWORD PTR __imp_??0?$CStringT@DV?$StrTraitMFC_DLL@DV?$ChTraitsCRT@D@ATL@@@@@ATL@@QAE@PBD@Z

; 384  : 	CString strNewData = strOrgData;

  00049	ff 75 08	 push	 DWORD PTR _strData$[ebp]
  0004c	8d 4d 08	 lea	 ecx, DWORD PTR _strNewData$5[ebp]

; 398  : 	CString strToolType = GetData(strData, "<ToolType>", "<\\ToolType>\r\n");

  0004f	c6 45 fc 01	 mov	 BYTE PTR __$EHRec$[ebp+8], 1

; 384  : 	CString strNewData = strOrgData;

  00053	ff 15 00 00 00
	00		 call	 DWORD PTR __imp_??0?$CStringT@DV?$StrTraitMFC_DLL@DV?$ChTraitsCRT@D@ATL@@@@@ATL@@QAE@ABV01@@Z

; 385  : 	CDataConversion::GetStringData(strNewData, strTrimStart);

  00059	6a 01		 push	 1
  0005b	8d 45 f0	 lea	 eax, DWORD PTR $T4[ebp]
  0005e	c6 45 fc 02	 mov	 BYTE PTR __$EHRec$[ebp+8], 2
  00062	50		 push	 eax
  00063	8d 45 08	 lea	 eax, DWORD PTR _strNewData$5[ebp]
  00066	50		 push	 eax
  00067	8d 45 e4	 lea	 eax, DWORD PTR $T2[ebp]
  0006a	50		 push	 eax
  0006b	e8 00 00 00 00	 call	 ?GetStringData@CDataConversion@@SA?AV?$CStringT@DV?$StrTraitMFC_DLL@DV?$ChTraitsCRT@D@ATL@@@@@ATL@@AAV23@ABV23@_N@Z ; CDataConversion::GetStringData
  00070	83 c4 10	 add	 esp, 16			; 00000010H
  00073	8d 4d e4	 lea	 ecx, DWORD PTR $T2[ebp]
  00076	ff 15 00 00 00
	00		 call	 DWORD PTR __imp_??1?$CStringT@DV?$StrTraitMFC_DLL@DV?$ChTraitsCRT@D@ATL@@@@@ATL@@QAE@XZ

; 386  : 	return CDataConversion::GetStringData(strNewData, strTrimEnd);

  0007c	6a 01		 push	 1
  0007e	8d 45 ec	 lea	 eax, DWORD PTR $T3[ebp]
  00081	50		 push	 eax
  00082	8d 45 08	 lea	 eax, DWORD PTR _strNewData$5[ebp]
  00085	50		 push	 eax
  00086	8d 45 e8	 lea	 eax, DWORD PTR _strToolType$[ebp]
  00089	50		 push	 eax
  0008a	e8 00 00 00 00	 call	 ?GetStringData@CDataConversion@@SA?AV?$CStringT@DV?$StrTraitMFC_DLL@DV?$ChTraitsCRT@D@ATL@@@@@ATL@@AAV23@ABV23@_N@Z ; CDataConversion::GetStringData
  0008f	83 c4 10	 add	 esp, 16			; 00000010H
  00092	8d 4d 08	 lea	 ecx, DWORD PTR _strNewData$5[ebp]
  00095	ff 15 00 00 00
	00		 call	 DWORD PTR __imp_??1?$CStringT@DV?$StrTraitMFC_DLL@DV?$ChTraitsCRT@D@ATL@@@@@ATL@@QAE@XZ

; 398  : 	CString strToolType = GetData(strData, "<ToolType>", "<\\ToolType>\r\n");

  0009b	8d 4d f0	 lea	 ecx, DWORD PTR $T4[ebp]
  0009e	ff 15 00 00 00
	00		 call	 DWORD PTR __imp_??1?$CStringT@DV?$StrTraitMFC_DLL@DV?$ChTraitsCRT@D@ATL@@@@@ATL@@QAE@XZ
  000a4	8d 4d ec	 lea	 ecx, DWORD PTR $T3[ebp]
  000a7	ff 15 00 00 00
	00		 call	 DWORD PTR __imp_??1?$CStringT@DV?$StrTraitMFC_DLL@DV?$ChTraitsCRT@D@ATL@@@@@ATL@@QAE@XZ

; 399  : 	CToolEnumData::ElementType eElementType = (CToolEnumData::ElementType) atoi(strToolType);

  000ad	ff 75 e8	 push	 DWORD PTR _strToolType$[ebp]
  000b0	ff 15 00 00 00
	00		 call	 DWORD PTR __imp__atoi

; 400  : 	switch(eElementType)

  000b6	48		 dec	 eax
  000b7	83 c4 04	 add	 esp, 4
  000ba	83 f8 23	 cmp	 eax, 35			; 00000023H
  000bd	0f 87 2f 01 00
	00		 ja	 $LN2@GetToolTyp
  000c3	ff 24 85 00 00
	00 00		 jmp	 DWORD PTR $LN86@GetToolTyp[eax*4]
$LN4@GetToolTyp:
  000ca	be 01 00 00 00	 mov	 esi, 1
  000cf	e9 21 01 00 00	 jmp	 $LN77@GetToolTyp
$LN5@GetToolTyp:

; 401  : 	{
; 402  : 	case CToolEnumData::Cross_Line:		// (mouse move  .)
; 403  : 		//return CAnalysis::EN_ANALYSIS_DOWN_CROSS;
; 404  : 		return CAnalysis::EN_ANALYSIS_MOVE_CROSS;
; 405  : 	case CToolEnumData::Vert_Line:		// 
; 406  : 		return CAnalysis::EN_ANALYSIS_VERT_LINE;

  000d4	be 03 00 00 00	 mov	 esi, 3
  000d9	e9 17 01 00 00	 jmp	 $LN77@GetToolTyp
$LN6@GetToolTyp:

; 407  : 	case CToolEnumData::Horz_Line:		// 
; 408  : 		return CAnalysis::EN_ANALYSIS_HORZ_LINE;

  000de	be 04 00 00 00	 mov	 esi, 4
  000e3	e9 0d 01 00 00	 jmp	 $LN77@GetToolTyp
$LN7@GetToolTyp:

; 409  : 	case CToolEnumData::Line:			// 
; 410  : 		return CAnalysis::EN_ANALYSIS_LINE;

  000e8	be 05 00 00 00	 mov	 esi, 5
  000ed	e9 03 01 00 00	 jmp	 $LN77@GetToolTyp
$LN8@GetToolTyp:

; 411  : 	case CToolEnumData::Trisection:		// 
; 412  : 		return CAnalysis::EN_ANALYSIS_TRISECT;

  000f2	be 06 00 00 00	 mov	 esi, 6
  000f7	e9 f9 00 00 00	 jmp	 $LN77@GetToolTyp
$LN9@GetToolTyp:

; 413  : 	case CToolEnumData::Quadrisect:		// 
; 414  : 		return CAnalysis::EN_ANALYSIS_QUARTER;

  000fc	be 07 00 00 00	 mov	 esi, 7
  00101	e9 ef 00 00 00	 jmp	 $LN77@GetToolTyp
$LN10@GetToolTyp:

; 415  : 	case CToolEnumData::Fibo_Semicircle://  
; 416  : 		return CAnalysis::EN_ANALYSIS_FIBO_SEMICIRCLE;

  00106	be 08 00 00 00	 mov	 esi, 8
  0010b	e9 e5 00 00 00	 jmp	 $LN77@GetToolTyp
$LN11@GetToolTyp:

; 417  : 	case CToolEnumData::Fibo_Circle:	//  
; 418  : 		return CAnalysis::EN_ANALYSIS_FIBO_CIRCLE;

  00110	be 09 00 00 00	 mov	 esi, 9
  00115	e9 db 00 00 00	 jmp	 $LN77@GetToolTyp
$LN12@GetToolTyp:

; 419  : 	case CToolEnumData::Fibo_Fan_Line:	//  
; 420  : 		return CAnalysis::EN_ANALYSIS_FIBO_FAN_LINE;

  0011a	be 0a 00 00 00	 mov	 esi, 10			; 0000000aH
  0011f	e9 d1 00 00 00	 jmp	 $LN77@GetToolTyp
$LN13@GetToolTyp:

; 421  : 	case CToolEnumData::Fibo_Retrace:	//  ()
; 422  : 		return CAnalysis::EN_ANALYSIS_FIBO_RETRACE;

  00124	be 0b 00 00 00	 mov	 esi, 11			; 0000000bH
  00129	e9 c7 00 00 00	 jmp	 $LN77@GetToolTyp
$LN14@GetToolTyp:

; 423  : 	case CToolEnumData::Fibo_Time:		//  
; 424  : 		return CAnalysis::EN_ANALYSIS_FIBO_TIME;

  0012e	be 0c 00 00 00	 mov	 esi, 12			; 0000000cH
  00133	e9 bd 00 00 00	 jmp	 $LN77@GetToolTyp
$LN15@GetToolTyp:

; 425  : 	case CToolEnumData::Gann_Line1:		// (45  .)
; 426  : 		return CAnalysis::EN_ANALYSIS_GANN_LINE45;

  00138	be 0d 00 00 00	 mov	 esi, 13			; 0000000dH
  0013d	e9 b3 00 00 00	 jmp	 $LN77@GetToolTyp
$LN16@GetToolTyp:

; 427  : 	case CToolEnumData::Gann_Line2:		// (45  .)
; 428  : 		return CAnalysis::EN_ANALYSIS_GANN_LINE315;

  00142	be 0e 00 00 00	 mov	 esi, 14			; 0000000eH
  00147	e9 a9 00 00 00	 jmp	 $LN77@GetToolTyp
$LN17@GetToolTyp:

; 429  : 	case CToolEnumData::Gann_Fan1:		// (45  .)
; 430  : 		return CAnalysis::EN_ANALYSIS_GANN_FAN45;

  0014c	be 0f 00 00 00	 mov	 esi, 15			; 0000000fH
  00151	e9 9f 00 00 00	 jmp	 $LN77@GetToolTyp
$LN18@GetToolTyp:

; 431  : 	case CToolEnumData::Gann_Fan2:		// (45  .)
; 432  : 		return CAnalysis::EN_ANALYSIS_GANN_FAN135;

  00156	be 10 00 00 00	 mov	 esi, 16			; 00000010H
  0015b	e9 95 00 00 00	 jmp	 $LN77@GetToolTyp
$LN19@GetToolTyp:

; 433  : 	case CToolEnumData::Gann_Fan3:		// (45  .)
; 434  : 		return CAnalysis::EN_ANALYSIS_GANN_FAN225;

  00160	be 11 00 00 00	 mov	 esi, 17			; 00000011H
  00165	e9 8b 00 00 00	 jmp	 $LN77@GetToolTyp
$LN20@GetToolTyp:

; 435  : 	case CToolEnumData::Gann_Fan4:		// (45  .)
; 436  : 		return CAnalysis::EN_ANALYSIS_GANN_FAN315;

  0016a	be 12 00 00 00	 mov	 esi, 18			; 00000012H
  0016f	e9 81 00 00 00	 jmp	 $LN77@GetToolTyp
$LN21@GetToolTyp:

; 437  : 	case CToolEnumData::Gann_Grid:		// 
; 438  : 		return CAnalysis::EN_ANALYSIS_GANN_GRID;

  00174	be 13 00 00 00	 mov	 esi, 19			; 00000013H
  00179	eb 7a		 jmp	 SHORT $LN77@GetToolTyp
$LN22@GetToolTyp:

; 439  : 	case CToolEnumData::AndrewsPitchfork://  
; 440  : 		return CAnalysis::EN_ANALYSIS_ANDREWS_PITCHFORK;

  0017b	be 14 00 00 00	 mov	 esi, 20			; 00000014H
  00180	eb 73		 jmp	 SHORT $LN77@GetToolTyp
$LN23@GetToolTyp:

; 441  : 	case CToolEnumData::ElliotWave_Line://  
; 442  : 		return CAnalysis::EN_ANALYSIS_ELLIOT_WAVE_LINE;

  00182	be 15 00 00 00	 mov	 esi, 21			; 00000015H
  00187	eb 6c		 jmp	 SHORT $LN77@GetToolTyp
$LN24@GetToolTyp:

; 443  : 	case CToolEnumData::Cycle_Line:		//  
; 444  : 		return CAnalysis::EN_ANALYSIS_CYCLE_LINES;

  00189	be 16 00 00 00	 mov	 esi, 22			; 00000016H
  0018e	eb 65		 jmp	 SHORT $LN77@GetToolTyp
$LN25@GetToolTyp:

; 445  : 	case CToolEnumData::Cut_Line:		//  
; 446  : 		return CAnalysis::EN_ANALYSIS_CUT_LINE;

  00190	be 17 00 00 00	 mov	 esi, 23			; 00000017H
  00195	eb 5e		 jmp	 SHORT $LN77@GetToolTyp
$LN26@GetToolTyp:

; 447  : 	case CToolEnumData::Speed_Line:		//  
; 448  : 		return CAnalysis::EN_ANALYSIS_SPEED_LINE;

  00197	be 18 00 00 00	 mov	 esi, 24			; 00000018H
  0019c	eb 57		 jmp	 SHORT $LN77@GetToolTyp
$LN27@GetToolTyp:

; 449  : 	case CToolEnumData::Speed_Fan:		//  FAN
; 450  : 		return CAnalysis::EN_ANALYSIS_SPEED_FAN;

  0019e	be 19 00 00 00	 mov	 esi, 25			; 00000019H
  001a3	eb 50		 jmp	 SHORT $LN77@GetToolTyp
$LN28@GetToolTyp:

; 451  : 	case CToolEnumData::Speed_Arc:			//  
; 452  : 		return CAnalysis::EN_ANALYSIS_SPEED_ARC;		

  001a5	be 1a 00 00 00	 mov	 esi, 26			; 0000001aH
  001aa	eb 49		 jmp	 SHORT $LN77@GetToolTyp
$LN29@GetToolTyp:

; 453  : 	case CToolEnumData::Linear_Regression://  ()
; 454  : 		return CAnalysis::EN_ANALYSIS_LINEAR_REGRESSION;

  001ac	be 1b 00 00 00	 mov	 esi, 27			; 0000001bH
  001b1	eb 42		 jmp	 SHORT $LN77@GetToolTyp
$LN30@GetToolTyp:

; 455  : 	case CToolEnumData::Raff_Regression:	// Raff ()
; 456  : 		return CAnalysis::EN_ANALYSIS_RAFF_REGRESSION;

  001b3	be 1c 00 00 00	 mov	 esi, 28			; 0000001cH
  001b8	eb 3b		 jmp	 SHORT $LN77@GetToolTyp
$LN31@GetToolTyp:

; 457  : 	case CToolEnumData::Angle_Line:			// 
; 458  : 		return CAnalysis::EN_ANALYSIS_ANGLE_LINE;

  001ba	be 1d 00 00 00	 mov	 esi, 29			; 0000001dH
  001bf	eb 34		 jmp	 SHORT $LN77@GetToolTyp
$LN32@GetToolTyp:

; 459  : 	case CToolEnumData::Candle_Line:			// 
; 460  : 		return CAnalysis::EN_ANALYSIS_CANDLE_LINE;

  001c1	be 1e 00 00 00	 mov	 esi, 30			; 0000001eH
  001c6	eb 2d		 jmp	 SHORT $LN77@GetToolTyp
$LN33@GetToolTyp:

; 461  : 	case CToolEnumData::Candle_Bong:			// 
; 462  : 		return CAnalysis::EN_ANALYSIS_CANDLE_BONG;

  001c8	be 1f 00 00 00	 mov	 esi, 31			; 0000001fH
  001cd	eb 26		 jmp	 SHORT $LN77@GetToolTyp
$LN34@GetToolTyp:

; 463  : 	case CToolEnumData::Adjust_Ratio:			// 
; 464  : 		return CAnalysis::EN_ANALYSIS_ADJUST_RATIO;

  001cf	be 20 00 00 00	 mov	 esi, 32			; 00000020H
  001d4	eb 1f		 jmp	 SHORT $LN77@GetToolTyp
$LN35@GetToolTyp:

; 465  : 	case CToolEnumData::Period_Summary:			// 
; 466  : 		return CAnalysis::EN_ANALYSIS_PERIOD_SUMMARY;

  001d6	be 21 00 00 00	 mov	 esi, 33			; 00000021H
  001db	eb 18		 jmp	 SHORT $LN77@GetToolTyp
$LN36@GetToolTyp:

; 467  : 	case CToolEnumData::Tracing_ToolTip:		// 
; 468  : 		return CAnalysis::EN_ANALYSIS_TRACING_TT;

  001dd	be 22 00 00 00	 mov	 esi, 34			; 00000022H
  001e2	eb 11		 jmp	 SHORT $LN77@GetToolTyp
$LN37@GetToolTyp:

; 469  : 	case CToolEnumData::Pencil_Line:			// 
; 470  : 		return CAnalysis::EN_ANALYSIS_PENCIL_LINE;

  001e4	be 23 00 00 00	 mov	 esi, 35			; 00000023H
  001e9	eb 0a		 jmp	 SHORT $LN77@GetToolTyp
$LN38@GetToolTyp:

; 471  : 	// 2014.09.24  : 0010862: [7111]    []  IBK    >>
; 472  : 	case CToolEnumData::Balance_Basic:// 
; 473  : 		return CAnalysis::EN_ANALYSIS_BALANCE_BASIC;

  001eb	be 24 00 00 00	 mov	 esi, 36			; 00000024H
  001f0	eb 03		 jmp	 SHORT $LN77@GetToolTyp
$LN2@GetToolTyp:

; 474  : 	// 2014.09.24  : 0010862: [7111]    []  IBK    <<
; 475  : 	};
; 476  : 		
; 477  : 	return CAnalysis::EN_ANALYSIS_NONE;

  001f2	83 ce ff	 or	 esi, -1
$LN77@GetToolTyp:
  001f5	8d 4d e8	 lea	 ecx, DWORD PTR _strToolType$[ebp]
  001f8	ff 15 00 00 00
	00		 call	 DWORD PTR __imp_??1?$CStringT@DV?$StrTraitMFC_DLL@DV?$ChTraitsCRT@D@ATL@@@@@ATL@@QAE@XZ
  001fe	8b c6		 mov	 eax, esi

; 478  : }

  00200	8b 4d f4	 mov	 ecx, DWORD PTR __$EHRec$[ebp]
  00203	64 89 0d 00 00
	00 00		 mov	 DWORD PTR fs:0, ecx
  0020a	59		 pop	 ecx
  0020b	5e		 pop	 esi
  0020c	8b e5		 mov	 esp, ebp
  0020e	5d		 pop	 ebp
  0020f	c2 04 00	 ret	 4
  00212	66 90		 npad	 2
$LN86@GetToolTyp:
  00214	00 00 00 00	 DD	 $LN4@GetToolTyp
  00218	00 00 00 00	 DD	 $LN2@GetToolTyp
  0021c	00 00 00 00	 DD	 $LN5@GetToolTyp
  00220	00 00 00 00	 DD	 $LN6@GetToolTyp
  00224	00 00 00 00	 DD	 $LN7@GetToolTyp
  00228	00 00 00 00	 DD	 $LN8@GetToolTyp
  0022c	00 00 00 00	 DD	 $LN9@GetToolTyp
  00230	00 00 00 00	 DD	 $LN10@GetToolTyp
  00234	00 00 00 00	 DD	 $LN11@GetToolTyp
  00238	00 00 00 00	 DD	 $LN12@GetToolTyp
  0023c	00 00 00 00	 DD	 $LN13@GetToolTyp
  00240	00 00 00 00	 DD	 $LN14@GetToolTyp
  00244	00 00 00 00	 DD	 $LN15@GetToolTyp
  00248	00 00 00 00	 DD	 $LN16@GetToolTyp
  0024c	00 00 00 00	 DD	 $LN17@GetToolTyp
  00250	00 00 00 00	 DD	 $LN18@GetToolTyp
  00254	00 00 00 00	 DD	 $LN19@GetToolTyp
  00258	00 00 00 00	 DD	 $LN20@GetToolTyp
  0025c	00 00 00 00	 DD	 $LN21@GetToolTyp
  00260	00 00 00 00	 DD	 $LN22@GetToolTyp
  00264	00 00 00 00	 DD	 $LN23@GetToolTyp
  00268	00 00 00 00	 DD	 $LN24@GetToolTyp
  0026c	00 00 00 00	 DD	 $LN25@GetToolTyp
  00270	00 00 00 00	 DD	 $LN26@GetToolTyp
  00274	00 00 00 00	 DD	 $LN27@GetToolTyp
  00278	00 00 00 00	 DD	 $LN28@GetToolTyp
  0027c	00 00 00 00	 DD	 $LN29@GetToolTyp
  00280	00 00 00 00	 DD	 $LN30@GetToolTyp
  00284	00 00 00 00	 DD	 $LN31@GetToolTyp
  00288	00 00 00 00	 DD	 $LN32@GetToolTyp
  0028c	00 00 00 00	 DD	 $LN33@GetToolTyp
  00290	00 00 00 00	 DD	 $LN34@GetToolTyp
  00294	00 00 00 00	 DD	 $LN35@GetToolTyp
  00298	00 00 00 00	 DD	 $LN36@GetToolTyp
  0029c	00 00 00 00	 DD	 $LN37@GetToolTyp
  002a0	00 00 00 00	 DD	 $LN38@GetToolTyp
_TEXT	ENDS
;	COMDAT text$x
text$x	SEGMENT
__unwindfunclet$?GetToolType@CElementTreeBuilder@@ABE?AW4TOOLTYPE@CAnalysis@@ABV?$CStringT@DV?$StrTraitMFC_DLL@DV?$ChTraitsCRT@D@ATL@@@@@ATL@@@Z$0:
  00000	8d 4d ec	 lea	 ecx, DWORD PTR $T3[ebp]
  00003	ff 25 00 00 00
	00		 jmp	 DWORD PTR __imp_??1?$CStringT@DV?$StrTraitMFC_DLL@DV?$ChTraitsCRT@D@ATL@@@@@ATL@@QAE@XZ
__unwindfunclet$?GetToolType@CElementTreeBuilder@@ABE?AW4TOOLTYPE@CAnalysis@@ABV?$CStringT@DV?$StrTraitMFC_DLL@DV?$ChTraitsCRT@D@ATL@@@@@ATL@@@Z$1:
  00009	8d 4d f0	 lea	 ecx, DWORD PTR $T4[ebp]
  0000c	ff 25 00 00 00
	00		 jmp	 DWORD PTR __imp_??1?$CStringT@DV?$StrTraitMFC_DLL@DV?$ChTraitsCRT@D@ATL@@@@@ATL@@QAE@XZ
__unwindfunclet$?GetToolType@CElementTreeBuilder@@ABE?AW4TOOLTYPE@CAnalysis@@ABV?$CStringT@DV?$StrTraitMFC_DLL@DV?$ChTraitsCRT@D@ATL@@@@@ATL@@@Z$3:
  00012	8d 4d 08	 lea	 ecx, DWORD PTR _strNewData$5[ebp]
  00015	ff 25 00 00 00
	00		 jmp	 DWORD PTR __imp_??1?$CStringT@DV?$StrTraitMFC_DLL@DV?$ChTraitsCRT@D@ATL@@@@@ATL@@QAE@XZ
  0001b	cc		 int	 3
  0001c	cc		 int	 3
  0001d	cc		 int	 3
  0001e	cc		 int	 3
  0001f	cc		 int	 3
__ehhandler$?GetToolType@CElementTreeBuilder@@ABE?AW4TOOLTYPE@CAnalysis@@ABV?$CStringT@DV?$StrTraitMFC_DLL@DV?$ChTraitsCRT@D@ATL@@@@@ATL@@@Z:
  00020	90		 npad	 1
  00021	90		 npad	 1
  00022	8b 54 24 08	 mov	 edx, DWORD PTR [esp+8]
  00026	8d 42 0c	 lea	 eax, DWORD PTR [edx+12]
  00029	8b 4a e8	 mov	 ecx, DWORD PTR [edx-24]
  0002c	33 c8		 xor	 ecx, eax
  0002e	e8 00 00 00 00	 call	 @__security_check_cookie@4
  00033	b8 00 00 00 00	 mov	 eax, OFFSET __ehfuncinfo$?GetToolType@CElementTreeBuilder@@ABE?AW4TOOLTYPE@CAnalysis@@ABV?$CStringT@DV?$StrTraitMFC_DLL@DV?$ChTraitsCRT@D@ATL@@@@@ATL@@@Z
  00038	e9 00 00 00 00	 jmp	 ___CxxFrameHandler3
text$x	ENDS
?GetToolType@CElementTreeBuilder@@ABE?AW4TOOLTYPE@CAnalysis@@ABV?$CStringT@DV?$StrTraitMFC_DLL@DV?$ChTraitsCRT@D@ATL@@@@@ATL@@@Z ENDP ; CElementTreeBuilder::GetToolType
; Function compile flags: /Ogtp
; File D:\git\src\IBK\IBK_DRFN\ProjSrc\SrcChartEx\ChartAddIn\ChartAnalysisToolAddIn\AnalysisTool\ElementTreeBuilder.cpp
;	COMDAT ?GetIndex@CElementTreeBuilder@@ABEHABV?$CStringT@DV?$StrTraitMFC_DLL@DV?$ChTraitsCRT@D@ATL@@@@@ATL@@@Z
_TEXT	SEGMENT
$T2 = -28						; size = 4
$T3 = -24						; size = 4
$T4 = -20						; size = 4
$T5 = -16						; size = 4
__$EHRec$ = -12						; size = 12
_strNewData$6 = 8					; size = 4
_strData$ = 8						; size = 4
?GetIndex@CElementTreeBuilder@@ABEHABV?$CStringT@DV?$StrTraitMFC_DLL@DV?$ChTraitsCRT@D@ATL@@@@@ATL@@@Z PROC ; CElementTreeBuilder::GetIndex, COMDAT
; _this$ = ecx

; 391  : {

  00000	55		 push	 ebp
  00001	8b ec		 mov	 ebp, esp
  00003	6a ff		 push	 -1
  00005	68 00 00 00 00	 push	 __ehhandler$?GetIndex@CElementTreeBuilder@@ABEHABV?$CStringT@DV?$StrTraitMFC_DLL@DV?$ChTraitsCRT@D@ATL@@@@@ATL@@@Z
  0000a	64 a1 00 00 00
	00		 mov	 eax, DWORD PTR fs:0
  00010	50		 push	 eax
  00011	83 ec 10	 sub	 esp, 16			; 00000010H
  00014	56		 push	 esi
  00015	a1 00 00 00 00	 mov	 eax, DWORD PTR ___security_cookie
  0001a	33 c5		 xor	 eax, ebp
  0001c	50		 push	 eax
  0001d	8d 45 f4	 lea	 eax, DWORD PTR __$EHRec$[ebp]
  00020	64 a3 00 00 00
	00		 mov	 DWORD PTR fs:0, eax

; 392  : 	return atoi(GetData(strData, "<Index>", "<\\Index>\r\n"));

  00026	68 00 00 00 00	 push	 OFFSET ??_C@_0L@KONBFPIB@?$DM?2Index?$DO?$AN?6@
  0002b	8d 4d e8	 lea	 ecx, DWORD PTR $T3[ebp]
  0002e	ff 15 00 00 00
	00		 call	 DWORD PTR __imp_??0?$CStringT@DV?$StrTraitMFC_DLL@DV?$ChTraitsCRT@D@ATL@@@@@ATL@@QAE@PBD@Z
  00034	68 00 00 00 00	 push	 OFFSET ??_C@_07NALPMMAN@?$DMIndex?$DO@
  00039	8d 4d ec	 lea	 ecx, DWORD PTR $T4[ebp]
  0003c	c7 45 fc 00 00
	00 00		 mov	 DWORD PTR __$EHRec$[ebp+8], 0
  00043	ff 15 00 00 00
	00		 call	 DWORD PTR __imp_??0?$CStringT@DV?$StrTraitMFC_DLL@DV?$ChTraitsCRT@D@ATL@@@@@ATL@@QAE@PBD@Z

; 384  : 	CString strNewData = strOrgData;

  00049	ff 75 08	 push	 DWORD PTR _strData$[ebp]
  0004c	8d 4d 08	 lea	 ecx, DWORD PTR _strNewData$6[ebp]

; 392  : 	return atoi(GetData(strData, "<Index>", "<\\Index>\r\n"));

  0004f	c6 45 fc 01	 mov	 BYTE PTR __$EHRec$[ebp+8], 1

; 384  : 	CString strNewData = strOrgData;

  00053	ff 15 00 00 00
	00		 call	 DWORD PTR __imp_??0?$CStringT@DV?$StrTraitMFC_DLL@DV?$ChTraitsCRT@D@ATL@@@@@ATL@@QAE@ABV01@@Z

; 385  : 	CDataConversion::GetStringData(strNewData, strTrimStart);

  00059	6a 01		 push	 1
  0005b	8d 45 ec	 lea	 eax, DWORD PTR $T4[ebp]
  0005e	c6 45 fc 02	 mov	 BYTE PTR __$EHRec$[ebp+8], 2
  00062	50		 push	 eax
  00063	8d 45 08	 lea	 eax, DWORD PTR _strNewData$6[ebp]
  00066	50		 push	 eax
  00067	8d 45 e4	 lea	 eax, DWORD PTR $T2[ebp]
  0006a	50		 push	 eax
  0006b	e8 00 00 00 00	 call	 ?GetStringData@CDataConversion@@SA?AV?$CStringT@DV?$StrTraitMFC_DLL@DV?$ChTraitsCRT@D@ATL@@@@@ATL@@AAV23@ABV23@_N@Z ; CDataConversion::GetStringData
  00070	83 c4 10	 add	 esp, 16			; 00000010H
  00073	8d 4d e4	 lea	 ecx, DWORD PTR $T2[ebp]
  00076	ff 15 00 00 00
	00		 call	 DWORD PTR __imp_??1?$CStringT@DV?$StrTraitMFC_DLL@DV?$ChTraitsCRT@D@ATL@@@@@ATL@@QAE@XZ

; 386  : 	return CDataConversion::GetStringData(strNewData, strTrimEnd);

  0007c	6a 01		 push	 1
  0007e	8d 45 e8	 lea	 eax, DWORD PTR $T3[ebp]
  00081	50		 push	 eax
  00082	8d 45 08	 lea	 eax, DWORD PTR _strNewData$6[ebp]
  00085	50		 push	 eax
  00086	8d 45 f0	 lea	 eax, DWORD PTR $T5[ebp]
  00089	50		 push	 eax
  0008a	e8 00 00 00 00	 call	 ?GetStringData@CDataConversion@@SA?AV?$CStringT@DV?$StrTraitMFC_DLL@DV?$ChTraitsCRT@D@ATL@@@@@ATL@@AAV23@ABV23@_N@Z ; CDataConversion::GetStringData
  0008f	83 c4 10	 add	 esp, 16			; 00000010H
  00092	8d 4d 08	 lea	 ecx, DWORD PTR _strNewData$6[ebp]
  00095	ff 15 00 00 00
	00		 call	 DWORD PTR __imp_??1?$CStringT@DV?$StrTraitMFC_DLL@DV?$ChTraitsCRT@D@ATL@@@@@ATL@@QAE@XZ

; 392  : 	return atoi(GetData(strData, "<Index>", "<\\Index>\r\n"));

  0009b	ff 75 f0	 push	 DWORD PTR $T5[ebp]
  0009e	ff 15 00 00 00
	00		 call	 DWORD PTR __imp__atoi
  000a4	83 c4 04	 add	 esp, 4
  000a7	8d 4d f0	 lea	 ecx, DWORD PTR $T5[ebp]
  000aa	8b f0		 mov	 esi, eax
  000ac	ff 15 00 00 00
	00		 call	 DWORD PTR __imp_??1?$CStringT@DV?$StrTraitMFC_DLL@DV?$ChTraitsCRT@D@ATL@@@@@ATL@@QAE@XZ
  000b2	8d 4d ec	 lea	 ecx, DWORD PTR $T4[ebp]
  000b5	ff 15 00 00 00
	00		 call	 DWORD PTR __imp_??1?$CStringT@DV?$StrTraitMFC_DLL@DV?$ChTraitsCRT@D@ATL@@@@@ATL@@QAE@XZ
  000bb	8d 4d e8	 lea	 ecx, DWORD PTR $T3[ebp]
  000be	ff 15 00 00 00
	00		 call	 DWORD PTR __imp_??1?$CStringT@DV?$StrTraitMFC_DLL@DV?$ChTraitsCRT@D@ATL@@@@@ATL@@QAE@XZ
  000c4	8b c6		 mov	 eax, esi

; 393  : }

  000c6	8b 4d f4	 mov	 ecx, DWORD PTR __$EHRec$[ebp]
  000c9	64 89 0d 00 00
	00 00		 mov	 DWORD PTR fs:0, ecx
  000d0	59		 pop	 ecx
  000d1	5e		 pop	 esi
  000d2	8b e5		 mov	 esp, ebp
  000d4	5d		 pop	 ebp
  000d5	c2 04 00	 ret	 4
_TEXT	ENDS
;	COMDAT text$x
text$x	SEGMENT
__unwindfunclet$?GetIndex@CElementTreeBuilder@@ABEHABV?$CStringT@DV?$StrTraitMFC_DLL@DV?$ChTraitsCRT@D@ATL@@@@@ATL@@@Z$0:
  00000	8d 4d e8	 lea	 ecx, DWORD PTR $T3[ebp]
  00003	ff 25 00 00 00
	00		 jmp	 DWORD PTR __imp_??1?$CStringT@DV?$StrTraitMFC_DLL@DV?$ChTraitsCRT@D@ATL@@@@@ATL@@QAE@XZ
__unwindfunclet$?GetIndex@CElementTreeBuilder@@ABEHABV?$CStringT@DV?$StrTraitMFC_DLL@DV?$ChTraitsCRT@D@ATL@@@@@ATL@@@Z$1:
  00009	8d 4d ec	 lea	 ecx, DWORD PTR $T4[ebp]
  0000c	ff 25 00 00 00
	00		 jmp	 DWORD PTR __imp_??1?$CStringT@DV?$StrTraitMFC_DLL@DV?$ChTraitsCRT@D@ATL@@@@@ATL@@QAE@XZ
__unwindfunclet$?GetIndex@CElementTreeBuilder@@ABEHABV?$CStringT@DV?$StrTraitMFC_DLL@DV?$ChTraitsCRT@D@ATL@@@@@ATL@@@Z$3:
  00012	8d 4d 08	 lea	 ecx, DWORD PTR _strNewData$6[ebp]
  00015	ff 25 00 00 00
	00		 jmp	 DWORD PTR __imp_??1?$CStringT@DV?$StrTraitMFC_DLL@DV?$ChTraitsCRT@D@ATL@@@@@ATL@@QAE@XZ
  0001b	cc		 int	 3
  0001c	cc		 int	 3
  0001d	cc		 int	 3
  0001e	cc		 int	 3
  0001f	cc		 int	 3
__ehhandler$?GetIndex@CElementTreeBuilder@@ABEHABV?$CStringT@DV?$StrTraitMFC_DLL@DV?$ChTraitsCRT@D@ATL@@@@@ATL@@@Z:
  00020	90		 npad	 1
  00021	90		 npad	 1
  00022	8b 54 24 08	 mov	 edx, DWORD PTR [esp+8]
  00026	8d 42 0c	 lea	 eax, DWORD PTR [edx+12]
  00029	8b 4a e8	 mov	 ecx, DWORD PTR [edx-24]
  0002c	33 c8		 xor	 ecx, eax
  0002e	e8 00 00 00 00	 call	 @__security_check_cookie@4
  00033	b8 00 00 00 00	 mov	 eax, OFFSET __ehfuncinfo$?GetIndex@CElementTreeBuilder@@ABEHABV?$CStringT@DV?$StrTraitMFC_DLL@DV?$ChTraitsCRT@D@ATL@@@@@ATL@@@Z
  00038	e9 00 00 00 00	 jmp	 ___CxxFrameHandler3
text$x	ENDS
?GetIndex@CElementTreeBuilder@@ABEHABV?$CStringT@DV?$StrTraitMFC_DLL@DV?$ChTraitsCRT@D@ATL@@@@@ATL@@@Z ENDP ; CElementTreeBuilder::GetIndex
; Function compile flags: /Ogtp
; File D:\git\src\IBK\IBK_DRFN\ProjSrc\SrcChartEx\ChartAddIn\ChartAnalysisToolAddIn\AnalysisTool\ElementTreeBuilder.cpp
;	COMDAT ?GetData@CElementTreeBuilder@@ABE?AV?$CStringT@DV?$StrTraitMFC_DLL@DV?$ChTraitsCRT@D@ATL@@@@@ATL@@ABV23@00@Z
_TEXT	SEGMENT
__$EHRec$ = -12						; size = 12
___$ReturnUdt$ = 8					; size = 4
_strNewData$ = 12					; size = 4
_strOrgData$ = 12					; size = 4
$T2 = 16						; size = 4
_strTrimStart$ = 16					; size = 4
_strTrimEnd$ = 20					; size = 4
?GetData@CElementTreeBuilder@@ABE?AV?$CStringT@DV?$StrTraitMFC_DLL@DV?$ChTraitsCRT@D@ATL@@@@@ATL@@ABV23@00@Z PROC ; CElementTreeBuilder::GetData, COMDAT
; _this$ = ecx

; 383  : {

  00000	55		 push	 ebp
  00001	8b ec		 mov	 ebp, esp
  00003	6a ff		 push	 -1
  00005	68 00 00 00 00	 push	 __ehhandler$?GetData@CElementTreeBuilder@@ABE?AV?$CStringT@DV?$StrTraitMFC_DLL@DV?$ChTraitsCRT@D@ATL@@@@@ATL@@ABV23@00@Z
  0000a	64 a1 00 00 00
	00		 mov	 eax, DWORD PTR fs:0
  00010	50		 push	 eax
  00011	a1 00 00 00 00	 mov	 eax, DWORD PTR ___security_cookie
  00016	33 c5		 xor	 eax, ebp
  00018	50		 push	 eax
  00019	8d 45 f4	 lea	 eax, DWORD PTR __$EHRec$[ebp]
  0001c	64 a3 00 00 00
	00		 mov	 DWORD PTR fs:0, eax

; 384  : 	CString strNewData = strOrgData;

  00022	ff 75 0c	 push	 DWORD PTR _strOrgData$[ebp]
  00025	8d 4d 0c	 lea	 ecx, DWORD PTR _strNewData$[ebp]
  00028	ff 15 00 00 00
	00		 call	 DWORD PTR __imp_??0?$CStringT@DV?$StrTraitMFC_DLL@DV?$ChTraitsCRT@D@ATL@@@@@ATL@@QAE@ABV01@@Z

; 385  : 	CDataConversion::GetStringData(strNewData, strTrimStart);

  0002e	6a 01		 push	 1
  00030	ff 75 10	 push	 DWORD PTR _strTrimStart$[ebp]
  00033	8d 45 0c	 lea	 eax, DWORD PTR _strNewData$[ebp]
  00036	c7 45 fc 00 00
	00 00		 mov	 DWORD PTR __$EHRec$[ebp+8], 0
  0003d	50		 push	 eax
  0003e	8d 45 10	 lea	 eax, DWORD PTR $T2[ebp]
  00041	50		 push	 eax
  00042	e8 00 00 00 00	 call	 ?GetStringData@CDataConversion@@SA?AV?$CStringT@DV?$StrTraitMFC_DLL@DV?$ChTraitsCRT@D@ATL@@@@@ATL@@AAV23@ABV23@_N@Z ; CDataConversion::GetStringData
  00047	83 c4 10	 add	 esp, 16			; 00000010H
  0004a	8d 4d 10	 lea	 ecx, DWORD PTR $T2[ebp]
  0004d	ff 15 00 00 00
	00		 call	 DWORD PTR __imp_??1?$CStringT@DV?$StrTraitMFC_DLL@DV?$ChTraitsCRT@D@ATL@@@@@ATL@@QAE@XZ

; 386  : 	return CDataConversion::GetStringData(strNewData, strTrimEnd);

  00053	6a 01		 push	 1
  00055	ff 75 14	 push	 DWORD PTR _strTrimEnd$[ebp]
  00058	8d 45 0c	 lea	 eax, DWORD PTR _strNewData$[ebp]
  0005b	50		 push	 eax
  0005c	ff 75 08	 push	 DWORD PTR ___$ReturnUdt$[ebp]
  0005f	e8 00 00 00 00	 call	 ?GetStringData@CDataConversion@@SA?AV?$CStringT@DV?$StrTraitMFC_DLL@DV?$ChTraitsCRT@D@ATL@@@@@ATL@@AAV23@ABV23@_N@Z ; CDataConversion::GetStringData
  00064	83 c4 10	 add	 esp, 16			; 00000010H
  00067	8d 4d 0c	 lea	 ecx, DWORD PTR _strNewData$[ebp]
  0006a	ff 15 00 00 00
	00		 call	 DWORD PTR __imp_??1?$CStringT@DV?$StrTraitMFC_DLL@DV?$ChTraitsCRT@D@ATL@@@@@ATL@@QAE@XZ
  00070	8b 45 08	 mov	 eax, DWORD PTR ___$ReturnUdt$[ebp]

; 387  : }

  00073	8b 4d f4	 mov	 ecx, DWORD PTR __$EHRec$[ebp]
  00076	64 89 0d 00 00
	00 00		 mov	 DWORD PTR fs:0, ecx
  0007d	59		 pop	 ecx
  0007e	8b e5		 mov	 esp, ebp
  00080	5d		 pop	 ebp
  00081	c2 10 00	 ret	 16			; 00000010H
_TEXT	ENDS
;	COMDAT text$x
text$x	SEGMENT
__unwindfunclet$?GetData@CElementTreeBuilder@@ABE?AV?$CStringT@DV?$StrTraitMFC_DLL@DV?$ChTraitsCRT@D@ATL@@@@@ATL@@ABV23@00@Z$0:
  00000	8d 4d 0c	 lea	 ecx, DWORD PTR _strNewData$[ebp]
  00003	ff 25 00 00 00
	00		 jmp	 DWORD PTR __imp_??1?$CStringT@DV?$StrTraitMFC_DLL@DV?$ChTraitsCRT@D@ATL@@@@@ATL@@QAE@XZ
  00009	cc		 int	 3
  0000a	cc		 int	 3
  0000b	cc		 int	 3
  0000c	cc		 int	 3
  0000d	cc		 int	 3
__ehhandler$?GetData@CElementTreeBuilder@@ABE?AV?$CStringT@DV?$StrTraitMFC_DLL@DV?$ChTraitsCRT@D@ATL@@@@@ATL@@ABV23@00@Z:
  0000e	90		 npad	 1
  0000f	90		 npad	 1
  00010	8b 54 24 08	 mov	 edx, DWORD PTR [esp+8]
  00014	8d 42 0c	 lea	 eax, DWORD PTR [edx+12]
  00017	8b 4a fc	 mov	 ecx, DWORD PTR [edx-4]
  0001a	33 c8		 xor	 ecx, eax
  0001c	e8 00 00 00 00	 call	 @__security_check_cookie@4
  00021	b8 00 00 00 00	 mov	 eax, OFFSET __ehfuncinfo$?GetData@CElementTreeBuilder@@ABE?AV?$CStringT@DV?$StrTraitMFC_DLL@DV?$ChTraitsCRT@D@ATL@@@@@ATL@@ABV23@00@Z
  00026	e9 00 00 00 00	 jmp	 ___CxxFrameHandler3
text$x	ENDS
?GetData@CElementTreeBuilder@@ABE?AV?$CStringT@DV?$StrTraitMFC_DLL@DV?$ChTraitsCRT@D@ATL@@@@@ATL@@ABV23@00@Z ENDP ; CElementTreeBuilder::GetData
; Function compile flags: /Ogtp
; File D:\git\src\IBK\IBK_DRFN\ProjSrc\SrcChartEx\ChartAddIn\ChartAnalysisToolAddIn\AnalysisTool\ElementTreeBuilder.cpp
; File C:\Program Files (x86)\Microsoft Visual Studio\2019\Community\VC\Tools\MSVC\14.29.30133\include\deque
; File D:\git\src\IBK\IBK_DRFN\ProjSrc\SrcChartEx\ChartAddIn\ChartAnalysisToolAddIn\Include_Chart\DequeList.h
; File C:\Program Files (x86)\Microsoft Visual Studio\2019\Community\VC\Tools\MSVC\14.29.30133\include\deque
; File D:\git\src\IBK\IBK_DRFN\ProjSrc\SrcChartEx\ChartAddIn\ChartAnalysisToolAddIn\AnalysisTool\ElementTreeBuilder.cpp
; File C:\Program Files (x86)\Microsoft Visual Studio\2019\Community\VC\Tools\MSVC\14.29.30133\include\deque
; File D:\git\src\IBK\IBK_DRFN\ProjSrc\SrcChartEx\ChartAddIn\ChartAnalysisToolAddIn\Include_Chart\DequeList.h
; File C:\Program Files (x86)\Microsoft Visual Studio\2019\Community\VC\Tools\MSVC\14.29.30133\include\deque
; File D:\git\src\IBK\IBK_DRFN\ProjSrc\SrcChartEx\ChartAddIn\ChartAnalysisToolAddIn\AnalysisTool\ElementTreeBuilder.cpp
; File D:\git\src\IBK\IBK_DRFN\ProjSrc\SrcChartEx\ChartAddIn\ChartAnalysisToolAddIn\Include_Chart\DequeList.h
; File D:\git\src\IBK\IBK_DRFN\ProjSrc\SrcChartEx\ChartAddIn\ChartAnalysisToolAddIn\AnalysisTool\ElementTreeBuilder.cpp
; File C:\Program Files (x86)\Microsoft Visual Studio\2019\Community\VC\Tools\MSVC\14.29.30133\include\deque
; File D:\git\src\IBK\IBK_DRFN\ProjSrc\SrcChartEx\ChartAddIn\ChartAnalysisToolAddIn\Include_Chart\DequeList.h
; File C:\Program Files (x86)\Microsoft Visual Studio\2019\Community\VC\Tools\MSVC\14.29.30133\include\deque
; File D:\git\src\IBK\IBK_DRFN\ProjSrc\SrcChartEx\ChartAddIn\ChartAnalysisToolAddIn\AnalysisTool\ElementTreeBuilder.cpp
; File D:\git\src\IBK\IBK_DRFN\ProjSrc\SrcChartEx\ChartAddIn\ChartAnalysisToolAddIn\Include_Chart\DequeList.h
; File D:\git\src\IBK\IBK_DRFN\ProjSrc\SrcChartEx\ChartAddIn\ChartAnalysisToolAddIn\AnalysisTool\ElementTreeBuilder.cpp
; File C:\Program Files (x86)\Microsoft Visual Studio\2019\Community\VC\Tools\MSVC\14.29.30133\include\deque
; File D:\git\src\IBK\IBK_DRFN\ProjSrc\SrcChartEx\ChartAddIn\ChartAnalysisToolAddIn\Include_Chart\DequeList.h
; File D:\git\src\IBK\IBK_DRFN\ProjSrc\SrcChartEx\ChartAddIn\ChartAnalysisToolAddIn\AnalysisTool\ElementTreeBuilder.cpp
;	COMDAT ?MakeElement@CElementTreeBuilder@@AAEPAVCElement@@W4TOOLTYPE@CAnalysis@@ABV?$CDequeList@VCCoordinate@@@@PBVCTextPosition@@ABVCElementCommonEnvironment@@@Z
_TEXT	SEGMENT
$T2 = -180						; size = 32
$T3 = -148						; size = 32
$T4 = -116						; size = 32
$T5 = -84						; size = 32
$T6 = -52						; size = 32
$T7 = -52						; size = 32
__$EHRec$ = -12						; size = 12
_eToolType$ = 8						; size = 4
_pointList$ = 12					; size = 4
_pTextPosition$ = 16					; size = 4
_environment$ = 20					; size = 4
?MakeElement@CElementTreeBuilder@@AAEPAVCElement@@W4TOOLTYPE@CAnalysis@@ABV?$CDequeList@VCCoordinate@@@@PBVCTextPosition@@ABVCElementCommonEnvironment@@@Z PROC ; CElementTreeBuilder::MakeElement, COMDAT
; _this$ = ecx

; 365  : {

  00000	55		 push	 ebp
  00001	8b ec		 mov	 ebp, esp
  00003	6a ff		 push	 -1
  00005	68 00 00 00 00	 push	 __ehhandler$?MakeElement@CElementTreeBuilder@@AAEPAVCElement@@W4TOOLTYPE@CAnalysis@@ABV?$CDequeList@VCCoordinate@@@@PBVCTextPosition@@ABVCElementCommonEnvironment@@@Z
  0000a	64 a1 00 00 00
	00		 mov	 eax, DWORD PTR fs:0
  00010	50		 push	 eax
  00011	81 ec a8 00 00
	00		 sub	 esp, 168		; 000000a8H
  00017	56		 push	 esi
  00018	a1 00 00 00 00	 mov	 eax, DWORD PTR ___security_cookie
  0001d	33 c5		 xor	 eax, ebp
  0001f	50		 push	 eax
  00020	8d 45 f4	 lea	 eax, DWORD PTR __$EHRec$[ebp]
  00023	64 a3 00 00 00
	00		 mov	 DWORD PTR fs:0, eax

; 366  : 	switch(pointList.GetCount())

  00029	8b 75 0c	 mov	 esi, DWORD PTR _pointList$[ebp]
  0002c	8b 46 10	 mov	 eax, DWORD PTR [esi+16]
  0002f	83 e8 01	 sub	 eax, 1
  00032	0f 84 36 01 00
	00		 je	 $LN4@MakeElemen
  00038	83 e8 01	 sub	 eax, 1
  0003b	0f 84 bb 00 00
	00		 je	 $LN5@MakeElemen
  00041	83 e8 01	 sub	 eax, 1
  00044	74 21		 je	 SHORT $LN6@MakeElemen

; 374  : 	default:
; 375  : 		return CElementFactory::Make(eToolType,pointList,environment);

  00046	ff 75 14	 push	 DWORD PTR _environment$[ebp]
  00049	56		 push	 esi
  0004a	ff 75 08	 push	 DWORD PTR _eToolType$[ebp]
  0004d	e8 00 00 00 00	 call	 ?Make@CElementFactory@@SAPAVCElement@@W4TOOLTYPE@CAnalysis@@ABV?$CDequeList@VCCoordinate@@@@ABVCElementCommonEnvironment@@@Z ; CElementFactory::Make
  00052	83 c4 0c	 add	 esp, 12			; 0000000cH

; 376  : 	}
; 377  : 
; 378  : 	return NULL;
; 379  : }

  00055	8b 4d f4	 mov	 ecx, DWORD PTR __$EHRec$[ebp]
  00058	64 89 0d 00 00
	00 00		 mov	 DWORD PTR fs:0, ecx
  0005f	59		 pop	 ecx
  00060	5e		 pop	 esi
  00061	8b e5		 mov	 esp, ebp
  00063	5d		 pop	 ebp
  00064	c2 10 00	 ret	 16			; 00000010H
$LN6@MakeElemen:
; File C:\Program Files (x86)\Microsoft Visual Studio\2019\Community\VC\Tools\MSVC\14.29.30133\include\deque

; 909  :         return _Unchecked_const_iterator(_Myoff(), _STD addressof(_Get_data()));

  00067	8b 46 0c	 mov	 eax, DWORD PTR [esi+12]

; 559  :         return (_Off / _Block_size) & (_Mapsize - 1);

  0006a	8b 4e 08	 mov	 ecx, DWORD PTR [esi+8]

; 78   :         _Myoff += _Off;

  0006d	83 c0 02	 add	 eax, 2

; 559  :         return (_Off / _Block_size) & (_Mapsize - 1);

  00070	49		 dec	 ecx
  00071	23 c8		 and	 ecx, eax

; 1030 :         return *(_Unchecked_begin() + static_cast<difference_type>(_Pos));

  00073	8b 46 04	 mov	 eax, DWORD PTR [esi+4]
; File D:\git\src\IBK\IBK_DRFN\ProjSrc\SrcChartEx\ChartAddIn\ChartAnalysisToolAddIn\Include_Chart\DequeList.h

; 84   : 		return m_deque[nIndex];

  00076	ff 34 88	 push	 DWORD PTR [eax+ecx*4]
  00079	8d 8d 6c ff ff
	ff		 lea	 ecx, DWORD PTR $T3[ebp]
  0007f	e8 00 00 00 00	 call	 ??0CCoordinate@@QAE@ABV0@@Z ; CCoordinate::CCoordinate
; File C:\Program Files (x86)\Microsoft Visual Studio\2019\Community\VC\Tools\MSVC\14.29.30133\include\deque

; 909  :         return _Unchecked_const_iterator(_Myoff(), _STD addressof(_Get_data()));

  00084	8b 46 0c	 mov	 eax, DWORD PTR [esi+12]

; 559  :         return (_Off / _Block_size) & (_Mapsize - 1);

  00087	8b 4e 08	 mov	 ecx, DWORD PTR [esi+8]

; 78   :         _Myoff += _Off;

  0008a	40		 inc	 eax

; 559  :         return (_Off / _Block_size) & (_Mapsize - 1);

  0008b	49		 dec	 ecx
; File D:\git\src\IBK\IBK_DRFN\ProjSrc\SrcChartEx\ChartAddIn\ChartAnalysisToolAddIn\AnalysisTool\ElementTreeBuilder.cpp

; 373  : 		return CElementFactory::Make(eToolType,pointList.GetAt(0),pointList.GetAt(1),pointList.GetAt(2),pTextPosition,environment);

  0008c	c7 45 fc 03 00
	00 00		 mov	 DWORD PTR __$EHRec$[ebp+8], 3
; File C:\Program Files (x86)\Microsoft Visual Studio\2019\Community\VC\Tools\MSVC\14.29.30133\include\deque

; 559  :         return (_Off / _Block_size) & (_Mapsize - 1);

  00093	23 c8		 and	 ecx, eax

; 1030 :         return *(_Unchecked_begin() + static_cast<difference_type>(_Pos));

  00095	8b 46 04	 mov	 eax, DWORD PTR [esi+4]
; File D:\git\src\IBK\IBK_DRFN\ProjSrc\SrcChartEx\ChartAddIn\ChartAnalysisToolAddIn\Include_Chart\DequeList.h

; 84   : 		return m_deque[nIndex];

  00098	ff 34 88	 push	 DWORD PTR [eax+ecx*4]
  0009b	8d 4d 8c	 lea	 ecx, DWORD PTR $T4[ebp]
  0009e	e8 00 00 00 00	 call	 ??0CCoordinate@@QAE@ABV0@@Z ; CCoordinate::CCoordinate
; File C:\Program Files (x86)\Microsoft Visual Studio\2019\Community\VC\Tools\MSVC\14.29.30133\include\deque

; 559  :         return (_Off / _Block_size) & (_Mapsize - 1);

  000a3	8b 4e 08	 mov	 ecx, DWORD PTR [esi+8]

; 1030 :         return *(_Unchecked_begin() + static_cast<difference_type>(_Pos));

  000a6	8b 46 04	 mov	 eax, DWORD PTR [esi+4]

; 559  :         return (_Off / _Block_size) & (_Mapsize - 1);

  000a9	49		 dec	 ecx
  000aa	23 4e 0c	 and	 ecx, DWORD PTR [esi+12]
; File D:\git\src\IBK\IBK_DRFN\ProjSrc\SrcChartEx\ChartAddIn\ChartAnalysisToolAddIn\AnalysisTool\ElementTreeBuilder.cpp

; 373  : 		return CElementFactory::Make(eToolType,pointList.GetAt(0),pointList.GetAt(1),pointList.GetAt(2),pTextPosition,environment);

  000ad	c6 45 fc 04	 mov	 BYTE PTR __$EHRec$[ebp+8], 4
; File D:\git\src\IBK\IBK_DRFN\ProjSrc\SrcChartEx\ChartAddIn\ChartAnalysisToolAddIn\Include_Chart\DequeList.h

; 84   : 		return m_deque[nIndex];

  000b1	ff 34 88	 push	 DWORD PTR [eax+ecx*4]
  000b4	8d 4d ac	 lea	 ecx, DWORD PTR $T5[ebp]
  000b7	e8 00 00 00 00	 call	 ??0CCoordinate@@QAE@ABV0@@Z ; CCoordinate::CCoordinate
; File D:\git\src\IBK\IBK_DRFN\ProjSrc\SrcChartEx\ChartAddIn\ChartAnalysisToolAddIn\AnalysisTool\ElementTreeBuilder.cpp

; 373  : 		return CElementFactory::Make(eToolType,pointList.GetAt(0),pointList.GetAt(1),pointList.GetAt(2),pTextPosition,environment);

  000bc	ff 75 14	 push	 DWORD PTR _environment$[ebp]
  000bf	8d 85 6c ff ff
	ff		 lea	 eax, DWORD PTR $T3[ebp]
  000c5	c6 45 fc 05	 mov	 BYTE PTR __$EHRec$[ebp+8], 5
  000c9	ff 75 10	 push	 DWORD PTR _pTextPosition$[ebp]
  000cc	50		 push	 eax
  000cd	8d 45 8c	 lea	 eax, DWORD PTR $T4[ebp]
  000d0	50		 push	 eax
  000d1	8d 45 ac	 lea	 eax, DWORD PTR $T5[ebp]
  000d4	50		 push	 eax
  000d5	ff 75 08	 push	 DWORD PTR _eToolType$[ebp]
  000d8	e8 00 00 00 00	 call	 ?Make@CElementFactory@@SAPAVCElement@@W4TOOLTYPE@CAnalysis@@ABVCCoordinate@@11PBVCTextPosition@@ABVCElementCommonEnvironment@@@Z ; CElementFactory::Make
  000dd	83 c4 18	 add	 esp, 24			; 00000018H
  000e0	8d 4d c0	 lea	 ecx, DWORD PTR $T5[ebp+20]
  000e3	8b f0		 mov	 esi, eax
  000e5	ff 15 00 00 00
	00		 call	 DWORD PTR __imp_??1?$CStringT@DV?$StrTraitMFC_DLL@DV?$ChTraitsCRT@D@ATL@@@@@ATL@@QAE@XZ
  000eb	8d 4d a0	 lea	 ecx, DWORD PTR $T4[ebp+20]
  000ee	ff 15 00 00 00
	00		 call	 DWORD PTR __imp_??1?$CStringT@DV?$StrTraitMFC_DLL@DV?$ChTraitsCRT@D@ATL@@@@@ATL@@QAE@XZ
  000f4	8d 4d 80	 lea	 ecx, DWORD PTR $T3[ebp+20]
  000f7	e9 aa 00 00 00	 jmp	 $LN142@MakeElemen
$LN5@MakeElemen:
; File C:\Program Files (x86)\Microsoft Visual Studio\2019\Community\VC\Tools\MSVC\14.29.30133\include\deque

; 909  :         return _Unchecked_const_iterator(_Myoff(), _STD addressof(_Get_data()));

  000fc	8b 46 0c	 mov	 eax, DWORD PTR [esi+12]

; 559  :         return (_Off / _Block_size) & (_Mapsize - 1);

  000ff	8b 4e 08	 mov	 ecx, DWORD PTR [esi+8]

; 78   :         _Myoff += _Off;

  00102	40		 inc	 eax

; 559  :         return (_Off / _Block_size) & (_Mapsize - 1);

  00103	49		 dec	 ecx
  00104	23 c8		 and	 ecx, eax

; 1030 :         return *(_Unchecked_begin() + static_cast<difference_type>(_Pos));

  00106	8b 46 04	 mov	 eax, DWORD PTR [esi+4]
; File D:\git\src\IBK\IBK_DRFN\ProjSrc\SrcChartEx\ChartAddIn\ChartAnalysisToolAddIn\Include_Chart\DequeList.h

; 84   : 		return m_deque[nIndex];

  00109	ff 34 88	 push	 DWORD PTR [eax+ecx*4]
  0010c	8d 4d cc	 lea	 ecx, DWORD PTR $T6[ebp]
  0010f	e8 00 00 00 00	 call	 ??0CCoordinate@@QAE@ABV0@@Z ; CCoordinate::CCoordinate
; File C:\Program Files (x86)\Microsoft Visual Studio\2019\Community\VC\Tools\MSVC\14.29.30133\include\deque

; 559  :         return (_Off / _Block_size) & (_Mapsize - 1);

  00114	8b 4e 08	 mov	 ecx, DWORD PTR [esi+8]

; 1030 :         return *(_Unchecked_begin() + static_cast<difference_type>(_Pos));

  00117	8b 46 04	 mov	 eax, DWORD PTR [esi+4]

; 559  :         return (_Off / _Block_size) & (_Mapsize - 1);

  0011a	49		 dec	 ecx
  0011b	23 4e 0c	 and	 ecx, DWORD PTR [esi+12]
; File D:\git\src\IBK\IBK_DRFN\ProjSrc\SrcChartEx\ChartAddIn\ChartAnalysisToolAddIn\AnalysisTool\ElementTreeBuilder.cpp

; 371  : 		return CElementFactory::Make(eToolType,pointList.GetAt(0),pointList.GetAt(1),pTextPosition,environment);

  0011e	c7 45 fc 01 00
	00 00		 mov	 DWORD PTR __$EHRec$[ebp+8], 1
; File D:\git\src\IBK\IBK_DRFN\ProjSrc\SrcChartEx\ChartAddIn\ChartAnalysisToolAddIn\Include_Chart\DequeList.h

; 84   : 		return m_deque[nIndex];

  00125	ff 34 88	 push	 DWORD PTR [eax+ecx*4]
  00128	8d 8d 4c ff ff
	ff		 lea	 ecx, DWORD PTR $T2[ebp]
  0012e	e8 00 00 00 00	 call	 ??0CCoordinate@@QAE@ABV0@@Z ; CCoordinate::CCoordinate
; File D:\git\src\IBK\IBK_DRFN\ProjSrc\SrcChartEx\ChartAddIn\ChartAnalysisToolAddIn\AnalysisTool\ElementTreeBuilder.cpp

; 371  : 		return CElementFactory::Make(eToolType,pointList.GetAt(0),pointList.GetAt(1),pTextPosition,environment);

  00133	83 ec 08	 sub	 esp, 8
  00136	c6 45 fc 02	 mov	 BYTE PTR __$EHRec$[ebp+8], 2
  0013a	0f 57 c0	 xorps	 xmm0, xmm0
  0013d	8d 45 cc	 lea	 eax, DWORD PTR $T6[ebp]
  00140	f2 0f 11 04 24	 movsd	 QWORD PTR [esp], xmm0
  00145	ff 75 14	 push	 DWORD PTR _environment$[ebp]
  00148	ff 75 10	 push	 DWORD PTR _pTextPosition$[ebp]
  0014b	50		 push	 eax
  0014c	8d 85 4c ff ff
	ff		 lea	 eax, DWORD PTR $T2[ebp]
  00152	50		 push	 eax
  00153	ff 75 08	 push	 DWORD PTR _eToolType$[ebp]
  00156	e8 00 00 00 00	 call	 ?Make@CElementFactory@@SAPAVCElement@@W4TOOLTYPE@CAnalysis@@ABVCCoordinate@@1PBVCTextPosition@@ABVCElementCommonEnvironment@@N@Z ; CElementFactory::Make
  0015b	83 c4 1c	 add	 esp, 28			; 0000001cH
  0015e	8d 8d 60 ff ff
	ff		 lea	 ecx, DWORD PTR $T2[ebp+20]
  00164	8b f0		 mov	 esi, eax
  00166	ff 15 00 00 00
	00		 call	 DWORD PTR __imp_??1?$CStringT@DV?$StrTraitMFC_DLL@DV?$ChTraitsCRT@D@ATL@@@@@ATL@@QAE@XZ
  0016c	eb 35		 jmp	 SHORT $LN143@MakeElemen
$LN4@MakeElemen:
; File C:\Program Files (x86)\Microsoft Visual Studio\2019\Community\VC\Tools\MSVC\14.29.30133\include\deque

; 559  :         return (_Off / _Block_size) & (_Mapsize - 1);

  0016e	8b 46 08	 mov	 eax, DWORD PTR [esi+8]

; 909  :         return _Unchecked_const_iterator(_Myoff(), _STD addressof(_Get_data()));

  00171	8b 4e 0c	 mov	 ecx, DWORD PTR [esi+12]

; 559  :         return (_Off / _Block_size) & (_Mapsize - 1);

  00174	48		 dec	 eax
  00175	23 c8		 and	 ecx, eax

; 1030 :         return *(_Unchecked_begin() + static_cast<difference_type>(_Pos));

  00177	8b 46 04	 mov	 eax, DWORD PTR [esi+4]
; File D:\git\src\IBK\IBK_DRFN\ProjSrc\SrcChartEx\ChartAddIn\ChartAnalysisToolAddIn\Include_Chart\DequeList.h

; 84   : 		return m_deque[nIndex];

  0017a	ff 34 88	 push	 DWORD PTR [eax+ecx*4]
  0017d	8d 4d cc	 lea	 ecx, DWORD PTR $T7[ebp]
  00180	e8 00 00 00 00	 call	 ??0CCoordinate@@QAE@ABV0@@Z ; CCoordinate::CCoordinate
; File D:\git\src\IBK\IBK_DRFN\ProjSrc\SrcChartEx\ChartAddIn\ChartAnalysisToolAddIn\AnalysisTool\ElementTreeBuilder.cpp

; 369  : 		return CElementFactory::Make(eToolType,pointList.GetAt(0),pTextPosition,environment);

  00185	ff 75 14	 push	 DWORD PTR _environment$[ebp]
  00188	8d 45 cc	 lea	 eax, DWORD PTR $T7[ebp]
  0018b	c7 45 fc 00 00
	00 00		 mov	 DWORD PTR __$EHRec$[ebp+8], 0
  00192	ff 75 10	 push	 DWORD PTR _pTextPosition$[ebp]
  00195	50		 push	 eax
  00196	ff 75 08	 push	 DWORD PTR _eToolType$[ebp]
  00199	e8 00 00 00 00	 call	 ?Make@CElementFactory@@SAPAVCElement@@W4TOOLTYPE@CAnalysis@@ABVCCoordinate@@PBVCTextPosition@@ABVCElementCommonEnvironment@@@Z ; CElementFactory::Make
  0019e	83 c4 10	 add	 esp, 16			; 00000010H
  001a1	8b f0		 mov	 esi, eax
$LN143@MakeElemen:

; 376  : 	}
; 377  : 
; 378  : 	return NULL;
; 379  : }

  001a3	8d 4d e0	 lea	 ecx, DWORD PTR $T7[ebp+20]
$LN142@MakeElemen:
  001a6	ff 15 00 00 00
	00		 call	 DWORD PTR __imp_??1?$CStringT@DV?$StrTraitMFC_DLL@DV?$ChTraitsCRT@D@ATL@@@@@ATL@@QAE@XZ
  001ac	8b c6		 mov	 eax, esi
  001ae	8b 4d f4	 mov	 ecx, DWORD PTR __$EHRec$[ebp]
  001b1	64 89 0d 00 00
	00 00		 mov	 DWORD PTR fs:0, ecx
  001b8	59		 pop	 ecx
  001b9	5e		 pop	 esi
  001ba	8b e5		 mov	 esp, ebp
  001bc	5d		 pop	 ebp
  001bd	c2 10 00	 ret	 16			; 00000010H
_TEXT	ENDS
;	COMDAT text$x
text$x	SEGMENT
__unwindfunclet$?MakeElement@CElementTreeBuilder@@AAEPAVCElement@@W4TOOLTYPE@CAnalysis@@ABV?$CDequeList@VCCoordinate@@@@PBVCTextPosition@@ABVCElementCommonEnvironment@@@Z$3:
  00000	8d 8d 6c ff ff
	ff		 lea	 ecx, DWORD PTR $T3[ebp]
  00006	e9 00 00 00 00	 jmp	 ??1CCoordinate@@QAE@XZ
__unwindfunclet$?MakeElement@CElementTreeBuilder@@AAEPAVCElement@@W4TOOLTYPE@CAnalysis@@ABV?$CDequeList@VCCoordinate@@@@PBVCTextPosition@@ABVCElementCommonEnvironment@@@Z$4:
  0000b	8d 4d 8c	 lea	 ecx, DWORD PTR $T4[ebp]
  0000e	e9 00 00 00 00	 jmp	 ??1CCoordinate@@QAE@XZ
__unwindfunclet$?MakeElement@CElementTreeBuilder@@AAEPAVCElement@@W4TOOLTYPE@CAnalysis@@ABV?$CDequeList@VCCoordinate@@@@PBVCTextPosition@@ABVCElementCommonEnvironment@@@Z$5:
  00013	8d 4d ac	 lea	 ecx, DWORD PTR $T5[ebp]
  00016	e9 00 00 00 00	 jmp	 ??1CCoordinate@@QAE@XZ
__unwindfunclet$?MakeElement@CElementTreeBuilder@@AAEPAVCElement@@W4TOOLTYPE@CAnalysis@@ABV?$CDequeList@VCCoordinate@@@@PBVCTextPosition@@ABVCElementCommonEnvironment@@@Z$1:
  0001b	8d 4d cc	 lea	 ecx, DWORD PTR $T6[ebp]
  0001e	e9 00 00 00 00	 jmp	 ??1CCoordinate@@QAE@XZ
__unwindfunclet$?MakeElement@CElementTreeBuilder@@AAEPAVCElement@@W4TOOLTYPE@CAnalysis@@ABV?$CDequeList@VCCoordinate@@@@PBVCTextPosition@@ABVCElementCommonEnvironment@@@Z$2:
  00023	8d 8d 4c ff ff
	ff		 lea	 ecx, DWORD PTR $T2[ebp]
  00029	e9 00 00 00 00	 jmp	 ??1CCoordinate@@QAE@XZ
__unwindfunclet$?MakeElement@CElementTreeBuilder@@AAEPAVCElement@@W4TOOLTYPE@CAnalysis@@ABV?$CDequeList@VCCoordinate@@@@PBVCTextPosition@@ABVCElementCommonEnvironment@@@Z$0:
  0002e	8d 4d cc	 lea	 ecx, DWORD PTR $T7[ebp]
  00031	e9 00 00 00 00	 jmp	 ??1CCoordinate@@QAE@XZ
  00036	cc		 int	 3
  00037	cc		 int	 3
  00038	cc		 int	 3
  00039	cc		 int	 3
  0003a	cc		 int	 3
__ehhandler$?MakeElement@CElementTreeBuilder@@AAEPAVCElement@@W4TOOLTYPE@CAnalysis@@ABV?$CDequeList@VCCoordinate@@@@PBVCTextPosition@@ABVCElementCommonEnvironment@@@Z:
  0003b	90		 npad	 1
  0003c	90		 npad	 1
  0003d	8b 54 24 08	 mov	 edx, DWORD PTR [esp+8]
  00041	8d 42 0c	 lea	 eax, DWORD PTR [edx+12]
  00044	8b 8a 50 ff ff
	ff		 mov	 ecx, DWORD PTR [edx-176]
  0004a	33 c8		 xor	 ecx, eax
  0004c	e8 00 00 00 00	 call	 @__security_check_cookie@4
  00051	b8 00 00 00 00	 mov	 eax, OFFSET __ehfuncinfo$?MakeElement@CElementTreeBuilder@@AAEPAVCElement@@W4TOOLTYPE@CAnalysis@@ABV?$CDequeList@VCCoordinate@@@@PBVCTextPosition@@ABVCElementCommonEnvironment@@@Z
  00056	e9 00 00 00 00	 jmp	 ___CxxFrameHandler3
text$x	ENDS
?MakeElement@CElementTreeBuilder@@AAEPAVCElement@@W4TOOLTYPE@CAnalysis@@ABV?$CDequeList@VCCoordinate@@@@PBVCTextPosition@@ABVCElementCommonEnvironment@@@Z ENDP ; CElementTreeBuilder::MakeElement
; Function compile flags: /Ogtp
; File D:\git\src\IBK\IBK_DRFN\ProjSrc\SrcChartEx\ChartAddIn\ChartAnalysisToolAddIn\AnalysisTool\ElementTreeBuilder.cpp
; File C:\Program Files (x86)\Microsoft Visual Studio\2019\Community\VC\Tools\MSVC\14.29.30133\atlmfc\include\atlsimpstr.h
; File D:\git\src\IBK\IBK_DRFN\ProjSrc\SrcChartEx\ChartAddIn\ChartAnalysisToolAddIn\AnalysisTool\ElementTreeBuilder.cpp
;	COMDAT ?MakeElement@CElementTreeBuilder@@AAEPAVCElement@@W4TOOLTYPE@CAnalysis@@ABV?$CDequeList@VCCoordinate@@@@ABV?$CStringT@DV?$StrTraitMFC_DLL@DV?$ChTraitsCRT@D@ATL@@@@@ATL@@ABVCElementCommonEnvironment@@@Z
_TEXT	SEGMENT
_horzVertPosition$ = -76				; size = 12
_vertPosition$ = -64					; size = 12
_horzPosition$ = -52					; size = 12
_showPosition$ = -40					; size = 12
$T2 = -28						; size = 4
$T3 = -24						; size = 4
$T4 = -20						; size = 4
_strData$ = -16						; size = 4
__$EHRec$ = -12						; size = 12
_eToolType$ = 8						; size = 4
_pointList$ = 12					; size = 4
_strNewData$5 = 16					; size = 4
_strTextPosition$ = 16					; size = 4
_environment$ = 20					; size = 4
?MakeElement@CElementTreeBuilder@@AAEPAVCElement@@W4TOOLTYPE@CAnalysis@@ABV?$CDequeList@VCCoordinate@@@@ABV?$CStringT@DV?$StrTraitMFC_DLL@DV?$ChTraitsCRT@D@ATL@@@@@ATL@@ABVCElementCommonEnvironment@@@Z PROC ; CElementTreeBuilder::MakeElement, COMDAT
; _this$ = ecx

; 339  : {

  00000	55		 push	 ebp
  00001	8b ec		 mov	 ebp, esp
  00003	6a ff		 push	 -1
  00005	68 00 00 00 00	 push	 __ehhandler$?MakeElement@CElementTreeBuilder@@AAEPAVCElement@@W4TOOLTYPE@CAnalysis@@ABV?$CDequeList@VCCoordinate@@@@ABV?$CStringT@DV?$StrTraitMFC_DLL@DV?$ChTraitsCRT@D@ATL@@@@@ATL@@ABVCElementCommonEnvironment@@@Z
  0000a	64 a1 00 00 00
	00		 mov	 eax, DWORD PTR fs:0
  00010	50		 push	 eax
  00011	83 ec 40	 sub	 esp, 64			; 00000040H
  00014	56		 push	 esi
  00015	a1 00 00 00 00	 mov	 eax, DWORD PTR ___security_cookie
  0001a	33 c5		 xor	 eax, ebp
  0001c	50		 push	 eax
  0001d	8d 45 f4	 lea	 eax, DWORD PTR __$EHRec$[ebp]
  00020	64 a3 00 00 00
	00		 mov	 DWORD PTR fs:0, eax
  00026	8b f1		 mov	 esi, ecx

; 340  : 	CString strData = GetData(strTextPosition, "<PartEnvironment>\r\n", "<\\PartEnvironment>\r\n");

  00028	68 00 00 00 00	 push	 OFFSET ??_C@_0BF@PDAEDAMM@?$DM?2PartEnvironment?$DO?$AN?6@
  0002d	8d 4d e8	 lea	 ecx, DWORD PTR $T3[ebp]
  00030	ff 15 00 00 00
	00		 call	 DWORD PTR __imp_??0?$CStringT@DV?$StrTraitMFC_DLL@DV?$ChTraitsCRT@D@ATL@@@@@ATL@@QAE@PBD@Z
  00036	68 00 00 00 00	 push	 OFFSET ??_C@_0BE@HJPGKECO@?$DMPartEnvironment?$DO?$AN?6@
  0003b	8d 4d ec	 lea	 ecx, DWORD PTR $T4[ebp]
  0003e	c7 45 fc 00 00
	00 00		 mov	 DWORD PTR __$EHRec$[ebp+8], 0
  00045	ff 15 00 00 00
	00		 call	 DWORD PTR __imp_??0?$CStringT@DV?$StrTraitMFC_DLL@DV?$ChTraitsCRT@D@ATL@@@@@ATL@@QAE@PBD@Z

; 384  : 	CString strNewData = strOrgData;

  0004b	ff 75 10	 push	 DWORD PTR _strTextPosition$[ebp]
  0004e	8d 4d 10	 lea	 ecx, DWORD PTR _strNewData$5[ebp]

; 340  : 	CString strData = GetData(strTextPosition, "<PartEnvironment>\r\n", "<\\PartEnvironment>\r\n");

  00051	c6 45 fc 01	 mov	 BYTE PTR __$EHRec$[ebp+8], 1

; 384  : 	CString strNewData = strOrgData;

  00055	ff 15 00 00 00
	00		 call	 DWORD PTR __imp_??0?$CStringT@DV?$StrTraitMFC_DLL@DV?$ChTraitsCRT@D@ATL@@@@@ATL@@QAE@ABV01@@Z

; 385  : 	CDataConversion::GetStringData(strNewData, strTrimStart);

  0005b	6a 01		 push	 1
  0005d	8d 45 ec	 lea	 eax, DWORD PTR $T4[ebp]
  00060	c6 45 fc 02	 mov	 BYTE PTR __$EHRec$[ebp+8], 2
  00064	50		 push	 eax
  00065	8d 45 10	 lea	 eax, DWORD PTR _strNewData$5[ebp]
  00068	50		 push	 eax
  00069	8d 45 e4	 lea	 eax, DWORD PTR $T2[ebp]
  0006c	50		 push	 eax
  0006d	e8 00 00 00 00	 call	 ?GetStringData@CDataConversion@@SA?AV?$CStringT@DV?$StrTraitMFC_DLL@DV?$ChTraitsCRT@D@ATL@@@@@ATL@@AAV23@ABV23@_N@Z ; CDataConversion::GetStringData
  00072	83 c4 10	 add	 esp, 16			; 00000010H
  00075	8d 4d e4	 lea	 ecx, DWORD PTR $T2[ebp]
  00078	ff 15 00 00 00
	00		 call	 DWORD PTR __imp_??1?$CStringT@DV?$StrTraitMFC_DLL@DV?$ChTraitsCRT@D@ATL@@@@@ATL@@QAE@XZ

; 386  : 	return CDataConversion::GetStringData(strNewData, strTrimEnd);

  0007e	6a 01		 push	 1
  00080	8d 45 e8	 lea	 eax, DWORD PTR $T3[ebp]
  00083	50		 push	 eax
  00084	8d 45 10	 lea	 eax, DWORD PTR _strNewData$5[ebp]
  00087	50		 push	 eax
  00088	8d 45 f0	 lea	 eax, DWORD PTR _strData$[ebp]
  0008b	50		 push	 eax
  0008c	e8 00 00 00 00	 call	 ?GetStringData@CDataConversion@@SA?AV?$CStringT@DV?$StrTraitMFC_DLL@DV?$ChTraitsCRT@D@ATL@@@@@ATL@@AAV23@ABV23@_N@Z ; CDataConversion::GetStringData
  00091	83 c4 10	 add	 esp, 16			; 00000010H
  00094	8d 4d 10	 lea	 ecx, DWORD PTR _strNewData$5[ebp]
  00097	ff 15 00 00 00
	00		 call	 DWORD PTR __imp_??1?$CStringT@DV?$StrTraitMFC_DLL@DV?$ChTraitsCRT@D@ATL@@@@@ATL@@QAE@XZ

; 340  : 	CString strData = GetData(strTextPosition, "<PartEnvironment>\r\n", "<\\PartEnvironment>\r\n");

  0009d	8d 4d ec	 lea	 ecx, DWORD PTR $T4[ebp]
  000a0	ff 15 00 00 00
	00		 call	 DWORD PTR __imp_??1?$CStringT@DV?$StrTraitMFC_DLL@DV?$ChTraitsCRT@D@ATL@@@@@ATL@@QAE@XZ
  000a6	8d 4d e8	 lea	 ecx, DWORD PTR $T3[ebp]
  000a9	c6 45 fc 05	 mov	 BYTE PTR __$EHRec$[ebp+8], 5
  000ad	ff 15 00 00 00
	00		 call	 DWORD PTR __imp_??1?$CStringT@DV?$StrTraitMFC_DLL@DV?$ChTraitsCRT@D@ATL@@@@@ATL@@QAE@XZ
; File C:\Program Files (x86)\Microsoft Visual Studio\2019\Community\VC\Tools\MSVC\14.29.30133\atlmfc\include\atlsimpstr.h

; 533  : 		return( GetLength() == 0 );

  000b3	8b 45 f0	 mov	 eax, DWORD PTR _strData$[ebp]
  000b6	83 78 f4 00	 cmp	 DWORD PTR [eax-12], 0
; File D:\git\src\IBK\IBK_DRFN\ProjSrc\SrcChartEx\ChartAddIn\ChartAnalysisToolAddIn\AnalysisTool\ElementTreeBuilder.cpp

; 342  : 	if(strData.IsEmpty())

  000ba	0f 84 80 00 00
	00		 je	 $LN6@MakeElemen

; 343  : 		return MakeElement(eToolType, pointList, NULL, environment);
; 344  : 
; 345  : 	CTextShowPosition showPosition;

  000c0	8d 4d d8	 lea	 ecx, DWORD PTR _showPosition$[ebp]
  000c3	e8 00 00 00 00	 call	 ??0CTextShowPosition@@QAE@XZ ; CTextShowPosition::CTextShowPosition

; 346  : 	if(GetTextShowPosition(strData, showPosition))

  000c8	8d 45 d8	 lea	 eax, DWORD PTR _showPosition$[ebp]
  000cb	8b ce		 mov	 ecx, esi
  000cd	50		 push	 eax
  000ce	8d 45 f0	 lea	 eax, DWORD PTR _strData$[ebp]
  000d1	50		 push	 eax
  000d2	e8 00 00 00 00	 call	 ?GetTextShowPosition@CElementTreeBuilder@@ABE_NABV?$CStringT@DV?$StrTraitMFC_DLL@DV?$ChTraitsCRT@D@ATL@@@@@ATL@@AAVCTextShowPosition@@@Z ; CElementTreeBuilder::GetTextShowPosition
  000d7	84 c0		 test	 al, al
  000d9	74 05		 je	 SHORT $LN3@MakeElemen

; 347  : 		return MakeElement(eToolType, pointList, &showPosition, environment);

  000db	8d 45 d8	 lea	 eax, DWORD PTR _showPosition$[ebp]
  000de	eb 62		 jmp	 SHORT $LN15@MakeElemen
$LN3@MakeElemen:

; 348  : 
; 349  : 	CTextHorzPosition horzPosition;

  000e0	8d 4d cc	 lea	 ecx, DWORD PTR _horzPosition$[ebp]
  000e3	e8 00 00 00 00	 call	 ??0CTextHorzPosition@@QAE@XZ ; CTextHorzPosition::CTextHorzPosition

; 350  : 	if(GetTextHorzPosition(strData, horzPosition))

  000e8	8d 45 cc	 lea	 eax, DWORD PTR _horzPosition$[ebp]
  000eb	8b ce		 mov	 ecx, esi
  000ed	50		 push	 eax
  000ee	8d 45 f0	 lea	 eax, DWORD PTR _strData$[ebp]
  000f1	50		 push	 eax
  000f2	e8 00 00 00 00	 call	 ?GetTextHorzPosition@CElementTreeBuilder@@ABE_NABV?$CStringT@DV?$StrTraitMFC_DLL@DV?$ChTraitsCRT@D@ATL@@@@@ATL@@AAVCTextHorzPosition@@@Z ; CElementTreeBuilder::GetTextHorzPosition
  000f7	84 c0		 test	 al, al
  000f9	74 05		 je	 SHORT $LN4@MakeElemen

; 351  : 		return MakeElement(eToolType, pointList, &horzPosition, environment);

  000fb	8d 45 cc	 lea	 eax, DWORD PTR _horzPosition$[ebp]
  000fe	eb 42		 jmp	 SHORT $LN15@MakeElemen
$LN4@MakeElemen:

; 352  : 
; 353  : 	CTextVertPosition vertPosition;

  00100	8d 4d c0	 lea	 ecx, DWORD PTR _vertPosition$[ebp]
  00103	e8 00 00 00 00	 call	 ??0CTextVertPosition@@QAE@XZ ; CTextVertPosition::CTextVertPosition

; 354  : 	if(GetTextVertPosition(strData, vertPosition))

  00108	8d 45 c0	 lea	 eax, DWORD PTR _vertPosition$[ebp]
  0010b	8b ce		 mov	 ecx, esi
  0010d	50		 push	 eax
  0010e	8d 45 f0	 lea	 eax, DWORD PTR _strData$[ebp]
  00111	50		 push	 eax
  00112	e8 00 00 00 00	 call	 ?GetTextVertPosition@CElementTreeBuilder@@ABE_NABV?$CStringT@DV?$StrTraitMFC_DLL@DV?$ChTraitsCRT@D@ATL@@@@@ATL@@AAVCTextVertPosition@@@Z ; CElementTreeBuilder::GetTextVertPosition
  00117	84 c0		 test	 al, al
  00119	74 05		 je	 SHORT $LN5@MakeElemen

; 355  : 		return MakeElement(eToolType, pointList, &vertPosition, environment);

  0011b	8d 45 c0	 lea	 eax, DWORD PTR _vertPosition$[ebp]
  0011e	eb 22		 jmp	 SHORT $LN15@MakeElemen
$LN5@MakeElemen:

; 356  : 
; 357  : 	CTextHorzVertPosition horzVertPosition;

  00120	8d 4d b4	 lea	 ecx, DWORD PTR _horzVertPosition$[ebp]
  00123	e8 00 00 00 00	 call	 ??0CTextHorzVertPosition@@QAE@XZ ; CTextHorzVertPosition::CTextHorzVertPosition

; 358  : 	if(GetTextHorzVertPosition(strData, horzVertPosition))

  00128	8d 45 b4	 lea	 eax, DWORD PTR _horzVertPosition$[ebp]
  0012b	8b ce		 mov	 ecx, esi
  0012d	50		 push	 eax
  0012e	8d 45 f0	 lea	 eax, DWORD PTR _strData$[ebp]
  00131	50		 push	 eax
  00132	e8 00 00 00 00	 call	 ?GetTextHorzVertPosition@CElementTreeBuilder@@ABE_NABV?$CStringT@DV?$StrTraitMFC_DLL@DV?$ChTraitsCRT@D@ATL@@@@@ATL@@AAVCTextHorzVertPosition@@@Z ; CElementTreeBuilder::GetTextHorzVertPosition
  00137	84 c0		 test	 al, al
  00139	74 05		 je	 SHORT $LN6@MakeElemen

; 359  : 		return MakeElement(eToolType, pointList, &horzVertPosition, environment);

  0013b	8d 45 b4	 lea	 eax, DWORD PTR _horzVertPosition$[ebp]
  0013e	eb 02		 jmp	 SHORT $LN15@MakeElemen
$LN6@MakeElemen:

; 360  : 
; 361  : 	return MakeElement(eToolType, pointList, NULL, environment);

  00140	33 c0		 xor	 eax, eax
$LN15@MakeElemen:
  00142	ff 75 14	 push	 DWORD PTR _environment$[ebp]
  00145	8b ce		 mov	 ecx, esi
  00147	50		 push	 eax
  00148	ff 75 0c	 push	 DWORD PTR _pointList$[ebp]
  0014b	ff 75 08	 push	 DWORD PTR _eToolType$[ebp]
  0014e	e8 00 00 00 00	 call	 ?MakeElement@CElementTreeBuilder@@AAEPAVCElement@@W4TOOLTYPE@CAnalysis@@ABV?$CDequeList@VCCoordinate@@@@PBVCTextPosition@@ABVCElementCommonEnvironment@@@Z ; CElementTreeBuilder::MakeElement
  00153	8d 4d f0	 lea	 ecx, DWORD PTR _strData$[ebp]
  00156	8b f0		 mov	 esi, eax
  00158	ff 15 00 00 00
	00		 call	 DWORD PTR __imp_??1?$CStringT@DV?$StrTraitMFC_DLL@DV?$ChTraitsCRT@D@ATL@@@@@ATL@@QAE@XZ
  0015e	8b c6		 mov	 eax, esi

; 362  : }

  00160	8b 4d f4	 mov	 ecx, DWORD PTR __$EHRec$[ebp]
  00163	64 89 0d 00 00
	00 00		 mov	 DWORD PTR fs:0, ecx
  0016a	59		 pop	 ecx
  0016b	5e		 pop	 esi
  0016c	8b e5		 mov	 esp, ebp
  0016e	5d		 pop	 ebp
  0016f	c2 10 00	 ret	 16			; 00000010H
_TEXT	ENDS
;	COMDAT text$x
text$x	SEGMENT
__unwindfunclet$?MakeElement@CElementTreeBuilder@@AAEPAVCElement@@W4TOOLTYPE@CAnalysis@@ABV?$CDequeList@VCCoordinate@@@@ABV?$CStringT@DV?$StrTraitMFC_DLL@DV?$ChTraitsCRT@D@ATL@@@@@ATL@@ABVCElementCommonEnvironment@@@Z$0:
  00000	8d 4d e8	 lea	 ecx, DWORD PTR $T3[ebp]
  00003	ff 25 00 00 00
	00		 jmp	 DWORD PTR __imp_??1?$CStringT@DV?$StrTraitMFC_DLL@DV?$ChTraitsCRT@D@ATL@@@@@ATL@@QAE@XZ
__unwindfunclet$?MakeElement@CElementTreeBuilder@@AAEPAVCElement@@W4TOOLTYPE@CAnalysis@@ABV?$CDequeList@VCCoordinate@@@@ABV?$CStringT@DV?$StrTraitMFC_DLL@DV?$ChTraitsCRT@D@ATL@@@@@ATL@@ABVCElementCommonEnvironment@@@Z$1:
  00009	8d 4d ec	 lea	 ecx, DWORD PTR $T4[ebp]
  0000c	ff 25 00 00 00
	00		 jmp	 DWORD PTR __imp_??1?$CStringT@DV?$StrTraitMFC_DLL@DV?$ChTraitsCRT@D@ATL@@@@@ATL@@QAE@XZ
__unwindfunclet$?MakeElement@CElementTreeBuilder@@AAEPAVCElement@@W4TOOLTYPE@CAnalysis@@ABV?$CDequeList@VCCoordinate@@@@ABV?$CStringT@DV?$StrTraitMFC_DLL@DV?$ChTraitsCRT@D@ATL@@@@@ATL@@ABVCElementCommonEnvironment@@@Z$3:
  00012	8d 4d 10	 lea	 ecx, DWORD PTR _strNewData$5[ebp]
  00015	ff 25 00 00 00
	00		 jmp	 DWORD PTR __imp_??1?$CStringT@DV?$StrTraitMFC_DLL@DV?$ChTraitsCRT@D@ATL@@@@@ATL@@QAE@XZ
__unwindfunclet$?MakeElement@CElementTreeBuilder@@AAEPAVCElement@@W4TOOLTYPE@CAnalysis@@ABV?$CDequeList@VCCoordinate@@@@ABV?$CStringT@DV?$StrTraitMFC_DLL@DV?$ChTraitsCRT@D@ATL@@@@@ATL@@ABVCElementCommonEnvironment@@@Z$2:
  0001b	8d 4d f0	 lea	 ecx, DWORD PTR _strData$[ebp]
  0001e	ff 25 00 00 00
	00		 jmp	 DWORD PTR __imp_??1?$CStringT@DV?$StrTraitMFC_DLL@DV?$ChTraitsCRT@D@ATL@@@@@ATL@@QAE@XZ
  00024	cc		 int	 3
  00025	cc		 int	 3
  00026	cc		 int	 3
  00027	cc		 int	 3
  00028	cc		 int	 3
__ehhandler$?MakeElement@CElementTreeBuilder@@AAEPAVCElement@@W4TOOLTYPE@CAnalysis@@ABV?$CDequeList@VCCoordinate@@@@ABV?$CStringT@DV?$StrTraitMFC_DLL@DV?$ChTraitsCRT@D@ATL@@@@@ATL@@ABVCElementCommonEnvironment@@@Z:
  00029	90		 npad	 1
  0002a	90		 npad	 1
  0002b	8b 54 24 08	 mov	 edx, DWORD PTR [esp+8]
  0002f	8d 42 0c	 lea	 eax, DWORD PTR [edx+12]
  00032	8b 4a b8	 mov	 ecx, DWORD PTR [edx-72]
  00035	33 c8		 xor	 ecx, eax
  00037	e8 00 00 00 00	 call	 @__security_check_cookie@4
  0003c	b8 00 00 00 00	 mov	 eax, OFFSET __ehfuncinfo$?MakeElement@CElementTreeBuilder@@AAEPAVCElement@@W4TOOLTYPE@CAnalysis@@ABV?$CDequeList@VCCoordinate@@@@ABV?$CStringT@DV?$StrTraitMFC_DLL@DV?$ChTraitsCRT@D@ATL@@@@@ATL@@ABVCElementCommonEnvironment@@@Z
  00041	e9 00 00 00 00	 jmp	 ___CxxFrameHandler3
text$x	ENDS
?MakeElement@CElementTreeBuilder@@AAEPAVCElement@@W4TOOLTYPE@CAnalysis@@ABV?$CDequeList@VCCoordinate@@@@ABV?$CStringT@DV?$StrTraitMFC_DLL@DV?$ChTraitsCRT@D@ATL@@@@@ATL@@ABVCElementCommonEnvironment@@@Z ENDP ; CElementTreeBuilder::MakeElement
; Function compile flags: /Ogtp
; File D:\git\src\IBK\IBK_DRFN\ProjSrc\SrcChartEx\ChartAddIn\ChartAnalysisToolAddIn\AnalysisTool\ElementTreeBuilder.cpp
; File C:\Program Files (x86)\Microsoft Visual Studio\2019\Community\VC\Tools\MSVC\14.29.30133\include\deque
; File C:\Program Files (x86)\Microsoft Visual Studio\2019\Community\VC\Tools\MSVC\14.29.30133\include\xmemory
; File D:\git\src\IBK\IBK_DRFN\ProjSrc\SrcChartEx\ChartAddIn\ChartAnalysisToolAddIn\AnalysisTool\ElementTreeBuilder.cpp
; File C:\Program Files (x86)\Microsoft Visual Studio\2019\Community\VC\Tools\MSVC\14.29.30133\include\xmemory
; File D:\git\src\IBK\IBK_DRFN\ProjSrc\SrcChartEx\ChartAddIn\ChartAnalysisToolAddIn\AnalysisTool\ElementTreeBuilder.cpp
; File C:\Program Files (x86)\Microsoft Visual Studio\2019\Community\VC\Tools\MSVC\14.29.30133\atlmfc\include\atlsimpstr.h
; File D:\git\src\IBK\IBK_DRFN\ProjSrc\SrcChartEx\ChartAddIn\ChartAnalysisToolAddIn\AnalysisTool\ElementTreeBuilder.cpp
; File C:\Program Files (x86)\Microsoft Visual Studio\2019\Community\VC\Tools\MSVC\14.29.30133\include\deque
; File C:\Program Files (x86)\Microsoft Visual Studio\2019\Community\VC\Tools\MSVC\14.29.30133\include\xmemory
; File C:\Program Files (x86)\Microsoft Visual Studio\2019\Community\VC\Tools\MSVC\14.29.30133\include\deque
; File C:\Program Files (x86)\Microsoft Visual Studio\2019\Community\VC\Tools\MSVC\14.29.30133\include\xmemory
; File C:\Program Files (x86)\Microsoft Visual Studio\2019\Community\VC\Tools\MSVC\14.29.30133\include\deque
; File C:\Program Files (x86)\Microsoft Visual Studio\2019\Community\VC\Tools\MSVC\14.29.30133\include\xmemory
; File C:\Program Files (x86)\Microsoft Visual Studio\2019\Community\VC\Tools\MSVC\14.29.30133\include\deque
; File C:\Program Files (x86)\Microsoft Visual Studio\2019\Community\VC\Tools\MSVC\14.29.30133\include\xmemory
; File C:\Program Files (x86)\Microsoft Visual Studio\2019\Community\VC\Tools\MSVC\14.29.30133\include\utility
; File C:\Program Files (x86)\Microsoft Visual Studio\2019\Community\VC\Tools\MSVC\14.29.30133\include\xmemory
; File C:\Program Files (x86)\Microsoft Visual Studio\2019\Community\VC\Tools\MSVC\14.29.30133\include\deque
; File C:\Program Files (x86)\Microsoft Visual Studio\2019\Community\VC\Tools\MSVC\14.29.30133\include\utility
; File C:\Program Files (x86)\Microsoft Visual Studio\2019\Community\VC\Tools\MSVC\14.29.30133\include\xmemory
; File D:\git\src\IBK\IBK_DRFN\ProjSrc\SrcChartEx\ChartAddIn\ChartAnalysisToolAddIn\AnalysisTool\ElementTreeBuilder.cpp
;	COMDAT ?MakeElement@CElementTreeBuilder@@AAEPAVCElement@@ABV?$CStringT@DV?$StrTraitMFC_DLL@DV?$ChTraitsCRT@D@ATL@@@@@ATL@@ABH@Z
_TEXT	SEGMENT
_environment$ = -168					; size = 72
_horzVertPosition$2 = -96				; size = 12
_vertPosition$3 = -84					; size = 12
_horzPosition$4 = -72					; size = 12
_showPosition$5 = -60					; size = 12
$T6 = -48						; size = 4
$T7 = -44						; size = 4
$T8 = -40						; size = 4
_strData$ = -36						; size = 4
_pointList$ = -32					; size = 20
__$EHRec$ = -12						; size = 12
_strData$9 = 8						; size = 4
_strElementData$ = 8					; size = 4
_strNewData$10 = 12					; size = 4
_nBlockTimeDiff$ = 12					; size = 4
?MakeElement@CElementTreeBuilder@@AAEPAVCElement@@ABV?$CStringT@DV?$StrTraitMFC_DLL@DV?$ChTraitsCRT@D@ATL@@@@@ATL@@ABH@Z PROC ; CElementTreeBuilder::MakeElement, COMDAT
; _this$ = ecx

; 323  : {

  00000	55		 push	 ebp
  00001	8b ec		 mov	 ebp, esp
  00003	6a ff		 push	 -1
  00005	68 00 00 00 00	 push	 __ehhandler$?MakeElement@CElementTreeBuilder@@AAEPAVCElement@@ABV?$CStringT@DV?$StrTraitMFC_DLL@DV?$ChTraitsCRT@D@ATL@@@@@ATL@@ABH@Z
  0000a	64 a1 00 00 00
	00		 mov	 eax, DWORD PTR fs:0
  00010	50		 push	 eax
  00011	81 ec 9c 00 00
	00		 sub	 esp, 156		; 0000009cH
  00017	56		 push	 esi
  00018	57		 push	 edi
  00019	a1 00 00 00 00	 mov	 eax, DWORD PTR ___security_cookie
  0001e	33 c5		 xor	 eax, ebp
  00020	50		 push	 eax
  00021	8d 45 f4	 lea	 eax, DWORD PTR __$EHRec$[ebp]
  00024	64 a3 00 00 00
	00		 mov	 DWORD PTR fs:0, eax
  0002a	8b f1		 mov	 esi, ecx

; 324  : 	CString strData = strElementData;

  0002c	ff 75 08	 push	 DWORD PTR _strElementData$[ebp]
  0002f	8d 4d dc	 lea	 ecx, DWORD PTR _strData$[ebp]
  00032	ff 15 00 00 00
	00		 call	 DWORD PTR __imp_??0?$CStringT@DV?$StrTraitMFC_DLL@DV?$ChTraitsCRT@D@ATL@@@@@ATL@@QAE@ABV01@@Z

; 326  : 	CAnalysis::TOOLTYPE eToolType = GetToolType(strData);

  00038	8d 45 dc	 lea	 eax, DWORD PTR _strData$[ebp]
  0003b	c7 45 fc 00 00
	00 00		 mov	 DWORD PTR __$EHRec$[ebp+8], 0
  00042	50		 push	 eax
  00043	8b ce		 mov	 ecx, esi
  00045	e8 00 00 00 00	 call	 ?GetToolType@CElementTreeBuilder@@ABE?AW4TOOLTYPE@CAnalysis@@ABV?$CStringT@DV?$StrTraitMFC_DLL@DV?$ChTraitsCRT@D@ATL@@@@@ATL@@@Z ; CElementTreeBuilder::GetToolType
  0004a	0f 57 c0	 xorps	 xmm0, xmm0
; File C:\Program Files (x86)\Microsoft Visual Studio\2019\Community\VC\Tools\MSVC\14.29.30133\include\deque

; 555  :     _Deque_val() noexcept : _Map(), _Mapsize(0), _Myoff(0), _Mysize(0) {}

  0004d	c7 45 f0 00 00
	00 00		 mov	 DWORD PTR _pointList$[ebp+16], 0
; File C:\Program Files (x86)\Microsoft Visual Studio\2019\Community\VC\Tools\MSVC\14.29.30133\include\xmemory

; 79   :         return ::operator new(_Bytes);

  00054	6a 08		 push	 8
; File D:\git\src\IBK\IBK_DRFN\ProjSrc\SrcChartEx\ChartAddIn\ChartAnalysisToolAddIn\AnalysisTool\ElementTreeBuilder.cpp

; 326  : 	CAnalysis::TOOLTYPE eToolType = GetToolType(strData);

  00056	8b f8		 mov	 edi, eax
; File C:\Program Files (x86)\Microsoft Visual Studio\2019\Community\VC\Tools\MSVC\14.29.30133\include\xmemory

; 1033 :     _Container_proxy* _Myproxy = nullptr;

  00058	0f 11 45 e0	 movups	 XMMWORD PTR _pointList$[ebp], xmm0

; 79   :         return ::operator new(_Bytes);

  0005c	e8 00 00 00 00	 call	 ??2@YAPAXI@Z		; operator new

; 1021 :         _New_proxy->_Mycont = this;

  00061	8d 4d e0	 lea	 ecx, DWORD PTR _pointList$[ebp]

; 79   :         return ::operator new(_Bytes);

  00064	83 c4 04	 add	 esp, 4

; 1003 :     mutable _Iterator_base12* _Myfirstiter = nullptr;

  00067	c7 40 04 00 00
	00 00		 mov	 DWORD PTR [eax+4], 0

; 1020 :         _Myproxy            = _New_proxy;

  0006e	89 45 e0	 mov	 DWORD PTR _pointList$[ebp], eax

; 1021 :         _New_proxy->_Mycont = this;

  00071	89 08		 mov	 DWORD PTR [eax], ecx
; File D:\git\src\IBK\IBK_DRFN\ProjSrc\SrcChartEx\ChartAddIn\ChartAnalysisToolAddIn\AnalysisTool\ElementTreeBuilder.cpp

; 331  : 	GetPoint(strData, nBlockTimeDiff, pointList);

  00073	8b c1		 mov	 eax, ecx
  00075	c6 45 fc 01	 mov	 BYTE PTR __$EHRec$[ebp+8], 1
  00079	50		 push	 eax
  0007a	ff 75 0c	 push	 DWORD PTR _nBlockTimeDiff$[ebp]
  0007d	8d 45 dc	 lea	 eax, DWORD PTR _strData$[ebp]
  00080	8b ce		 mov	 ecx, esi
  00082	50		 push	 eax
  00083	e8 00 00 00 00	 call	 ?GetPoint@CElementTreeBuilder@@ABEXABV?$CStringT@DV?$StrTraitMFC_DLL@DV?$ChTraitsCRT@D@ATL@@@@@ATL@@ABHAAV?$CDequeList@VCCoordinate@@@@@Z ; CElementTreeBuilder::GetPoint

; 332  : 	// environment
; 333  : 	CElementCommonEnvironment environment = GetEnvironment(strData);

  00088	8d 45 dc	 lea	 eax, DWORD PTR _strData$[ebp]
  0008b	8b ce		 mov	 ecx, esi
  0008d	50		 push	 eax
  0008e	8d 85 58 ff ff
	ff		 lea	 eax, DWORD PTR _environment$[ebp]
  00094	50		 push	 eax
  00095	e8 00 00 00 00	 call	 ?GetEnvironment@CElementTreeBuilder@@ABE?AVCElementCommonEnvironment@@ABV?$CStringT@DV?$StrTraitMFC_DLL@DV?$ChTraitsCRT@D@ATL@@@@@ATL@@@Z ; CElementTreeBuilder::GetEnvironment

; 340  : 	CString strData = GetData(strTextPosition, "<PartEnvironment>\r\n", "<\\PartEnvironment>\r\n");

  0009a	68 00 00 00 00	 push	 OFFSET ??_C@_0BF@PDAEDAMM@?$DM?2PartEnvironment?$DO?$AN?6@
  0009f	8d 4d d4	 lea	 ecx, DWORD PTR $T7[ebp]

; 332  : 	// environment
; 333  : 	CElementCommonEnvironment environment = GetEnvironment(strData);

  000a2	c6 45 fc 02	 mov	 BYTE PTR __$EHRec$[ebp+8], 2

; 340  : 	CString strData = GetData(strTextPosition, "<PartEnvironment>\r\n", "<\\PartEnvironment>\r\n");

  000a6	ff 15 00 00 00
	00		 call	 DWORD PTR __imp_??0?$CStringT@DV?$StrTraitMFC_DLL@DV?$ChTraitsCRT@D@ATL@@@@@ATL@@QAE@PBD@Z
  000ac	68 00 00 00 00	 push	 OFFSET ??_C@_0BE@HJPGKECO@?$DMPartEnvironment?$DO?$AN?6@
  000b1	8d 4d d8	 lea	 ecx, DWORD PTR $T8[ebp]
  000b4	c6 45 fc 03	 mov	 BYTE PTR __$EHRec$[ebp+8], 3
  000b8	ff 15 00 00 00
	00		 call	 DWORD PTR __imp_??0?$CStringT@DV?$StrTraitMFC_DLL@DV?$ChTraitsCRT@D@ATL@@@@@ATL@@QAE@PBD@Z

; 384  : 	CString strNewData = strOrgData;

  000be	8d 45 dc	 lea	 eax, DWORD PTR _strData$[ebp]

; 340  : 	CString strData = GetData(strTextPosition, "<PartEnvironment>\r\n", "<\\PartEnvironment>\r\n");

  000c1	c6 45 fc 04	 mov	 BYTE PTR __$EHRec$[ebp+8], 4

; 384  : 	CString strNewData = strOrgData;

  000c5	50		 push	 eax
  000c6	8d 4d 0c	 lea	 ecx, DWORD PTR _strNewData$10[ebp]
  000c9	ff 15 00 00 00
	00		 call	 DWORD PTR __imp_??0?$CStringT@DV?$StrTraitMFC_DLL@DV?$ChTraitsCRT@D@ATL@@@@@ATL@@QAE@ABV01@@Z

; 385  : 	CDataConversion::GetStringData(strNewData, strTrimStart);

  000cf	6a 01		 push	 1
  000d1	8d 45 d8	 lea	 eax, DWORD PTR $T8[ebp]
  000d4	c6 45 fc 05	 mov	 BYTE PTR __$EHRec$[ebp+8], 5
  000d8	50		 push	 eax
  000d9	8d 45 0c	 lea	 eax, DWORD PTR _strNewData$10[ebp]
  000dc	50		 push	 eax
  000dd	8d 45 d0	 lea	 eax, DWORD PTR $T6[ebp]
  000e0	50		 push	 eax
  000e1	e8 00 00 00 00	 call	 ?GetStringData@CDataConversion@@SA?AV?$CStringT@DV?$StrTraitMFC_DLL@DV?$ChTraitsCRT@D@ATL@@@@@ATL@@AAV23@ABV23@_N@Z ; CDataConversion::GetStringData
  000e6	83 c4 10	 add	 esp, 16			; 00000010H
  000e9	8d 4d d0	 lea	 ecx, DWORD PTR $T6[ebp]
  000ec	ff 15 00 00 00
	00		 call	 DWORD PTR __imp_??1?$CStringT@DV?$StrTraitMFC_DLL@DV?$ChTraitsCRT@D@ATL@@@@@ATL@@QAE@XZ

; 386  : 	return CDataConversion::GetStringData(strNewData, strTrimEnd);

  000f2	6a 01		 push	 1
  000f4	8d 45 d4	 lea	 eax, DWORD PTR $T7[ebp]
  000f7	50		 push	 eax
  000f8	8d 45 0c	 lea	 eax, DWORD PTR _strNewData$10[ebp]
  000fb	50		 push	 eax
  000fc	8d 45 08	 lea	 eax, DWORD PTR _strData$9[ebp]
  000ff	50		 push	 eax
  00100	e8 00 00 00 00	 call	 ?GetStringData@CDataConversion@@SA?AV?$CStringT@DV?$StrTraitMFC_DLL@DV?$ChTraitsCRT@D@ATL@@@@@ATL@@AAV23@ABV23@_N@Z ; CDataConversion::GetStringData
  00105	83 c4 10	 add	 esp, 16			; 00000010H
  00108	8d 4d 0c	 lea	 ecx, DWORD PTR _strNewData$10[ebp]
  0010b	ff 15 00 00 00
	00		 call	 DWORD PTR __imp_??1?$CStringT@DV?$StrTraitMFC_DLL@DV?$ChTraitsCRT@D@ATL@@@@@ATL@@QAE@XZ

; 340  : 	CString strData = GetData(strTextPosition, "<PartEnvironment>\r\n", "<\\PartEnvironment>\r\n");

  00111	8d 4d d8	 lea	 ecx, DWORD PTR $T8[ebp]
  00114	ff 15 00 00 00
	00		 call	 DWORD PTR __imp_??1?$CStringT@DV?$StrTraitMFC_DLL@DV?$ChTraitsCRT@D@ATL@@@@@ATL@@QAE@XZ
  0011a	c6 45 fc 08	 mov	 BYTE PTR __$EHRec$[ebp+8], 8
  0011e	8d 4d d4	 lea	 ecx, DWORD PTR $T7[ebp]
  00121	ff 15 00 00 00
	00		 call	 DWORD PTR __imp_??1?$CStringT@DV?$StrTraitMFC_DLL@DV?$ChTraitsCRT@D@ATL@@@@@ATL@@QAE@XZ
; File C:\Program Files (x86)\Microsoft Visual Studio\2019\Community\VC\Tools\MSVC\14.29.30133\atlmfc\include\atlsimpstr.h

; 533  : 		return( GetLength() == 0 );

  00127	8b 45 08	 mov	 eax, DWORD PTR _strData$9[ebp]
  0012a	83 78 f4 00	 cmp	 DWORD PTR [eax-12], 0
; File D:\git\src\IBK\IBK_DRFN\ProjSrc\SrcChartEx\ChartAddIn\ChartAnalysisToolAddIn\AnalysisTool\ElementTreeBuilder.cpp

; 342  : 	if(strData.IsEmpty())

  0012e	0f 84 a3 00 00
	00		 je	 $LN58@MakeElemen

; 343  : 		return MakeElement(eToolType, pointList, NULL, environment);
; 344  : 
; 345  : 	CTextShowPosition showPosition;

  00134	8d 4d c4	 lea	 ecx, DWORD PTR _showPosition$5[ebp]
  00137	e8 00 00 00 00	 call	 ??0CTextShowPosition@@QAE@XZ ; CTextShowPosition::CTextShowPosition

; 346  : 	if(GetTextShowPosition(strData, showPosition))

  0013c	8d 45 c4	 lea	 eax, DWORD PTR _showPosition$5[ebp]
  0013f	8b ce		 mov	 ecx, esi
  00141	50		 push	 eax
  00142	8d 45 08	 lea	 eax, DWORD PTR _strData$9[ebp]
  00145	50		 push	 eax
  00146	e8 00 00 00 00	 call	 ?GetTextShowPosition@CElementTreeBuilder@@ABE_NABV?$CStringT@DV?$StrTraitMFC_DLL@DV?$ChTraitsCRT@D@ATL@@@@@ATL@@AAVCTextShowPosition@@@Z ; CElementTreeBuilder::GetTextShowPosition
  0014b	84 c0		 test	 al, al
  0014d	74 10		 je	 SHORT $LN55@MakeElemen

; 347  : 		return MakeElement(eToolType, pointList, &showPosition, environment);

  0014f	8d 85 58 ff ff
	ff		 lea	 eax, DWORD PTR _environment$[ebp]
  00155	50		 push	 eax
  00156	8d 45 c4	 lea	 eax, DWORD PTR _showPosition$5[ebp]
  00159	50		 push	 eax
  0015a	e9 81 00 00 00	 jmp	 $LN260@MakeElemen
$LN55@MakeElemen:

; 348  : 
; 349  : 	CTextHorzPosition horzPosition;

  0015f	8d 4d b8	 lea	 ecx, DWORD PTR _horzPosition$4[ebp]
  00162	e8 00 00 00 00	 call	 ??0CTextHorzPosition@@QAE@XZ ; CTextHorzPosition::CTextHorzPosition

; 350  : 	if(GetTextHorzPosition(strData, horzPosition))

  00167	8d 45 b8	 lea	 eax, DWORD PTR _horzPosition$4[ebp]
  0016a	8b ce		 mov	 ecx, esi
  0016c	50		 push	 eax
  0016d	8d 45 08	 lea	 eax, DWORD PTR _strData$9[ebp]
  00170	50		 push	 eax
  00171	e8 00 00 00 00	 call	 ?GetTextHorzPosition@CElementTreeBuilder@@ABE_NABV?$CStringT@DV?$StrTraitMFC_DLL@DV?$ChTraitsCRT@D@ATL@@@@@ATL@@AAVCTextHorzPosition@@@Z ; CElementTreeBuilder::GetTextHorzPosition
  00176	84 c0		 test	 al, al
  00178	74 0d		 je	 SHORT $LN56@MakeElemen

; 351  : 		return MakeElement(eToolType, pointList, &horzPosition, environment);

  0017a	8d 85 58 ff ff
	ff		 lea	 eax, DWORD PTR _environment$[ebp]
  00180	50		 push	 eax
  00181	8d 45 b8	 lea	 eax, DWORD PTR _horzPosition$4[ebp]
  00184	50		 push	 eax
  00185	eb 59		 jmp	 SHORT $LN260@MakeElemen
$LN56@MakeElemen:

; 352  : 
; 353  : 	CTextVertPosition vertPosition;

  00187	8d 4d ac	 lea	 ecx, DWORD PTR _vertPosition$3[ebp]
  0018a	e8 00 00 00 00	 call	 ??0CTextVertPosition@@QAE@XZ ; CTextVertPosition::CTextVertPosition

; 354  : 	if(GetTextVertPosition(strData, vertPosition))

  0018f	8d 45 ac	 lea	 eax, DWORD PTR _vertPosition$3[ebp]
  00192	8b ce		 mov	 ecx, esi
  00194	50		 push	 eax
  00195	8d 45 08	 lea	 eax, DWORD PTR _strData$9[ebp]
  00198	50		 push	 eax
  00199	e8 00 00 00 00	 call	 ?GetTextVertPosition@CElementTreeBuilder@@ABE_NABV?$CStringT@DV?$StrTraitMFC_DLL@DV?$ChTraitsCRT@D@ATL@@@@@ATL@@AAVCTextVertPosition@@@Z ; CElementTreeBuilder::GetTextVertPosition
  0019e	84 c0		 test	 al, al
  001a0	74 0d		 je	 SHORT $LN57@MakeElemen

; 355  : 		return MakeElement(eToolType, pointList, &vertPosition, environment);

  001a2	8d 85 58 ff ff
	ff		 lea	 eax, DWORD PTR _environment$[ebp]
  001a8	50		 push	 eax
  001a9	8d 45 ac	 lea	 eax, DWORD PTR _vertPosition$3[ebp]
  001ac	50		 push	 eax
  001ad	eb 31		 jmp	 SHORT $LN260@MakeElemen
$LN57@MakeElemen:

; 356  : 
; 357  : 	CTextHorzVertPosition horzVertPosition;

  001af	8d 4d a0	 lea	 ecx, DWORD PTR _horzVertPosition$2[ebp]
  001b2	e8 00 00 00 00	 call	 ??0CTextHorzVertPosition@@QAE@XZ ; CTextHorzVertPosition::CTextHorzVertPosition

; 358  : 	if(GetTextHorzVertPosition(strData, horzVertPosition))

  001b7	8d 45 a0	 lea	 eax, DWORD PTR _horzVertPosition$2[ebp]
  001ba	8b ce		 mov	 ecx, esi
  001bc	50		 push	 eax
  001bd	8d 45 08	 lea	 eax, DWORD PTR _strData$9[ebp]
  001c0	50		 push	 eax
  001c1	e8 00 00 00 00	 call	 ?GetTextHorzVertPosition@CElementTreeBuilder@@ABE_NABV?$CStringT@DV?$StrTraitMFC_DLL@DV?$ChTraitsCRT@D@ATL@@@@@ATL@@AAVCTextHorzVertPosition@@@Z ; CElementTreeBuilder::GetTextHorzVertPosition
  001c6	84 c0		 test	 al, al
  001c8	74 0d		 je	 SHORT $LN58@MakeElemen

; 359  : 		return MakeElement(eToolType, pointList, &horzVertPosition, environment);

  001ca	8d 85 58 ff ff
	ff		 lea	 eax, DWORD PTR _environment$[ebp]
  001d0	50		 push	 eax
  001d1	8d 45 a0	 lea	 eax, DWORD PTR _horzVertPosition$2[ebp]
  001d4	50		 push	 eax
  001d5	eb 09		 jmp	 SHORT $LN260@MakeElemen
$LN58@MakeElemen:
; File C:\Program Files (x86)\Microsoft Visual Studio\2019\Community\VC\Tools\MSVC\14.29.30133\include\deque

; 1002 :         return _Mysize() == 0;

  001d7	8d 85 58 ff ff
	ff		 lea	 eax, DWORD PTR _environment$[ebp]
  001dd	50		 push	 eax
  001de	6a 00		 push	 0
$LN260@MakeElemen:
  001e0	8d 45 e0	 lea	 eax, DWORD PTR _pointList$[ebp]
  001e3	8b ce		 mov	 ecx, esi
  001e5	50		 push	 eax
  001e6	57		 push	 edi
  001e7	e8 00 00 00 00	 call	 ?MakeElement@CElementTreeBuilder@@AAEPAVCElement@@W4TOOLTYPE@CAnalysis@@ABV?$CDequeList@VCCoordinate@@@@PBVCTextPosition@@ABVCElementCommonEnvironment@@@Z ; CElementTreeBuilder::MakeElement
  001ec	8d 4d 08	 lea	 ecx, DWORD PTR _strData$9[ebp]
  001ef	8b f8		 mov	 edi, eax
  001f1	ff 15 00 00 00
	00		 call	 DWORD PTR __imp_??1?$CStringT@DV?$StrTraitMFC_DLL@DV?$ChTraitsCRT@D@ATL@@@@@ATL@@QAE@XZ
  001f7	8d 4d 90	 lea	 ecx, DWORD PTR _environment$[ebp+56]
  001fa	ff 15 00 00 00
	00		 call	 DWORD PTR __imp_??1?$CStringT@DV?$StrTraitMFC_DLL@DV?$ChTraitsCRT@D@ATL@@@@@ATL@@QAE@XZ
  00200	8d 4d 8c	 lea	 ecx, DWORD PTR _environment$[ebp+52]
  00203	ff 15 00 00 00
	00		 call	 DWORD PTR __imp_??1?$CStringT@DV?$StrTraitMFC_DLL@DV?$ChTraitsCRT@D@ATL@@@@@ATL@@QAE@XZ
  00209	8d 4d 88	 lea	 ecx, DWORD PTR _environment$[ebp+48]
  0020c	ff 15 00 00 00
	00		 call	 DWORD PTR __imp_??1?$CStringT@DV?$StrTraitMFC_DLL@DV?$ChTraitsCRT@D@ATL@@@@@ATL@@QAE@XZ
  00212	8b 45 f0	 mov	 eax, DWORD PTR _pointList$[ebp+16]

; 1475 :         while (!empty()) {

  00215	8b 4d ec	 mov	 ecx, DWORD PTR _pointList$[ebp+12]

; 1002 :         return _Mysize() == 0;

  00218	85 c0		 test	 eax, eax

; 1475 :         while (!empty()) {

  0021a	74 37		 je	 SHORT $LN88@MakeElemen
  0021c	0f 1f 40 00	 npad	 4
$LL87@MakeElemen:

; 559  :         return (_Off / _Block_size) & (_Mapsize - 1);

  00220	48		 dec	 eax
  00221	03 c8		 add	 ecx, eax
  00223	8b 45 e8	 mov	 eax, DWORD PTR _pointList$[ebp+8]
  00226	48		 dec	 eax
  00227	23 c8		 and	 ecx, eax

; 1145 :         _Alty_traits::destroy(_Getal(), _Unfancy(_Map()[_Block] + _Newoff % _Block_size));

  00229	8b 45 e4	 mov	 eax, DWORD PTR _pointList$[ebp+4]
  0022c	8b 0c 88	 mov	 ecx, DWORD PTR [eax+ecx*4]
  0022f	8d 49 14	 lea	 ecx, DWORD PTR [ecx+20]
  00232	ff 15 00 00 00
	00		 call	 DWORD PTR __imp_??1?$CStringT@DV?$StrTraitMFC_DLL@DV?$ChTraitsCRT@D@ATL@@@@@ATL@@QAE@XZ

; 1146 :         if (--_Mysize() == 0) {

  00238	8b 45 f0	 mov	 eax, DWORD PTR _pointList$[ebp+16]
  0023b	ba 00 00 00 00	 mov	 edx, 0
  00240	8b 4d ec	 mov	 ecx, DWORD PTR _pointList$[ebp+12]
  00243	83 e8 01	 sub	 eax, 1
  00246	89 45 f0	 mov	 DWORD PTR _pointList$[ebp+16], eax
  00249	0f 44 ca	 cmove	 ecx, edx
  0024c	89 4d ec	 mov	 DWORD PTR _pointList$[ebp+12], ecx

; 1002 :         return _Mysize() == 0;

  0024f	85 c0		 test	 eax, eax

; 1475 :         while (!empty()) {

  00251	75 cd		 jne	 SHORT $LL87@MakeElemen
$LN88@MakeElemen:

; 1479 :         for (size_type _Block = _Mapsize(); 0 < _Block;) { // free storage for a block and destroy pointer

  00253	8b 75 e8	 mov	 esi, DWORD PTR _pointList$[ebp+8]
  00256	8b 55 e4	 mov	 edx, DWORD PTR _pointList$[ebp+4]
  00259	85 f6		 test	 esi, esi
  0025b	74 27		 je	 SHORT $LN90@MakeElemen
  0025d	0f 1f 00	 npad	 3
$LL89@MakeElemen:

; 1480 :             if (_Map()[--_Block]) { // free block and destroy its pointer

  00260	8b 44 b2 fc	 mov	 eax, DWORD PTR [edx+esi*4-4]
  00264	4e		 dec	 esi
  00265	85 c0		 test	 eax, eax
  00267	74 0e		 je	 SHORT $LN116@MakeElemen
; File C:\Program Files (x86)\Microsoft Visual Studio\2019\Community\VC\Tools\MSVC\14.29.30133\include\xmemory

; 255  :         ::operator delete(_Ptr, _Bytes);

  00269	6a 20		 push	 32			; 00000020H
  0026b	50		 push	 eax
  0026c	e8 00 00 00 00	 call	 ??3@YAXPAXI@Z		; operator delete
  00271	8b 55 e4	 mov	 edx, DWORD PTR _pointList$[ebp+4]
  00274	83 c4 08	 add	 esp, 8
$LN116@MakeElemen:
; File C:\Program Files (x86)\Microsoft Visual Studio\2019\Community\VC\Tools\MSVC\14.29.30133\include\deque

; 1479 :         for (size_type _Block = _Mapsize(); 0 < _Block;) { // free storage for a block and destroy pointer

  00277	85 f6		 test	 esi, esi
  00279	75 e5		 jne	 SHORT $LL89@MakeElemen
  0027b	8b 45 f0	 mov	 eax, DWORD PTR _pointList$[ebp+16]
  0027e	8b 4d ec	 mov	 ecx, DWORD PTR _pointList$[ebp+12]
  00281	8b 75 e8	 mov	 esi, DWORD PTR _pointList$[ebp+8]
$LN90@MakeElemen:

; 1481 :                 _Getal().deallocate(_Map()[_Block], _Block_size);
; 1482 :                 _Destroy_in_place(_Map()[_Block]);
; 1483 :             }
; 1484 :         }
; 1485 : 
; 1486 :         if (_Map() != _Mapptr()) {

  00284	85 d2		 test	 edx, edx
  00286	74 31		 je	 SHORT $LN134@MakeElemen
; File C:\Program Files (x86)\Microsoft Visual Studio\2019\Community\VC\Tools\MSVC\14.29.30133\include\xmemory

; 797  :         _Deallocate<_New_alignof<_Ty>>(_Ptr, sizeof(_Ty) * _Count);

  00288	c1 e6 02	 shl	 esi, 2
  0028b	8b c2		 mov	 eax, edx

; 251  :         if (_Bytes >= _Big_allocation_threshold) { // boost the alignment of big allocations to help autovectorization

  0028d	81 fe 00 10 00
	00		 cmp	 esi, 4096		; 00001000H
  00293	72 14		 jb	 SHORT $LN144@MakeElemen

; 150  :     const uintptr_t _Ptr_container   = _Ptr_user[-1];

  00295	8b 52 fc	 mov	 edx, DWORD PTR [edx-4]
  00298	83 c6 23	 add	 esi, 35			; 00000023H
  0029b	2b c2		 sub	 eax, edx

; 151  : 
; 152  :     // If the following asserts, it likely means that we are performing
; 153  :     // an aligned delete on memory coming from an unaligned allocation.
; 154  :     _STL_ASSERT(_Ptr_user[-2] == _Big_allocation_sentinel, "invalid argument");
; 155  : 
; 156  :     // Extra paranoia on aligned allocation/deallocation; ensure _Ptr_container is
; 157  :     // in range [_Min_back_shift, _Non_user_size]
; 158  : #ifdef _DEBUG
; 159  :     constexpr uintptr_t _Min_back_shift = 2 * sizeof(void*);
; 160  : #else // ^^^ _DEBUG ^^^ // vvv !_DEBUG vvv
; 161  :     constexpr uintptr_t _Min_back_shift = sizeof(void*);
; 162  : #endif // _DEBUG
; 163  :     const uintptr_t _Back_shift = reinterpret_cast<uintptr_t>(_Ptr) - _Ptr_container;
; 164  :     _STL_VERIFY(_Back_shift >= _Min_back_shift && _Back_shift <= _Non_user_size, "invalid argument");

  0029d	83 c0 fc	 add	 eax, -4			; fffffffcH
  002a0	83 f8 1f	 cmp	 eax, 31			; 0000001fH
  002a3	0f 87 96 00 00
	00		 ja	 $LN206@MakeElemen
$LN144@MakeElemen:

; 255  :         ::operator delete(_Ptr, _Bytes);

  002a9	56		 push	 esi
  002aa	52		 push	 edx
  002ab	e8 00 00 00 00	 call	 ??3@YAXPAXI@Z		; operator delete
  002b0	8b 45 f0	 mov	 eax, DWORD PTR _pointList$[ebp+16]
  002b3	83 c4 08	 add	 esp, 8
  002b6	8b 4d ec	 mov	 ecx, DWORD PTR _pointList$[ebp+12]
$LN134@MakeElemen:
; File C:\Program Files (x86)\Microsoft Visual Studio\2019\Community\VC\Tools\MSVC\14.29.30133\include\deque

; 1490 :         _Mapsize() = 0;

  002b9	33 f6		 xor	 esi, esi

; 1491 :         _Map()     = _Mapptr();

  002bb	33 d2		 xor	 edx, edx
  002bd	89 75 e8	 mov	 DWORD PTR _pointList$[ebp+8], esi
  002c0	89 55 e4	 mov	 DWORD PTR _pointList$[ebp+4], edx

; 1002 :         return _Mysize() == 0;

  002c3	85 c0		 test	 eax, eax

; 1475 :         while (!empty()) {

  002c5	74 33		 je	 SHORT $LN153@MakeElemen
$LL152@MakeElemen:

; 559  :         return (_Off / _Block_size) & (_Mapsize - 1);

  002c7	49		 dec	 ecx
  002c8	4e		 dec	 esi
  002c9	03 c1		 add	 eax, ecx
  002cb	23 c6		 and	 eax, esi

; 1145 :         _Alty_traits::destroy(_Getal(), _Unfancy(_Map()[_Block] + _Newoff % _Block_size));

  002cd	8b 0c 82	 mov	 ecx, DWORD PTR [edx+eax*4]
  002d0	8d 49 14	 lea	 ecx, DWORD PTR [ecx+20]
  002d3	ff 15 00 00 00
	00		 call	 DWORD PTR __imp_??1?$CStringT@DV?$StrTraitMFC_DLL@DV?$ChTraitsCRT@D@ATL@@@@@ATL@@QAE@XZ

; 1146 :         if (--_Mysize() == 0) {

  002d9	8b 45 f0	 mov	 eax, DWORD PTR _pointList$[ebp+16]
  002dc	ba 00 00 00 00	 mov	 edx, 0
  002e1	8b 4d ec	 mov	 ecx, DWORD PTR _pointList$[ebp+12]
  002e4	83 e8 01	 sub	 eax, 1

; 1475 :         while (!empty()) {

  002e7	8b 75 e8	 mov	 esi, DWORD PTR _pointList$[ebp+8]

; 1146 :         if (--_Mysize() == 0) {

  002ea	0f 44 ca	 cmove	 ecx, edx
  002ed	89 45 f0	 mov	 DWORD PTR _pointList$[ebp+16], eax

; 1475 :         while (!empty()) {

  002f0	8b 55 e4	 mov	 edx, DWORD PTR _pointList$[ebp+4]

; 1146 :         if (--_Mysize() == 0) {

  002f3	89 4d ec	 mov	 DWORD PTR _pointList$[ebp+12], ecx

; 1002 :         return _Mysize() == 0;

  002f6	85 c0		 test	 eax, eax

; 1475 :         while (!empty()) {

  002f8	75 cd		 jne	 SHORT $LL152@MakeElemen
$LN153@MakeElemen:

; 1479 :         for (size_type _Block = _Mapsize(); 0 < _Block;) { // free storage for a block and destroy pointer

  002fa	85 f6		 test	 esi, esi
  002fc	74 20		 je	 SHORT $LN155@MakeElemen
  002fe	66 90		 npad	 2
$LL154@MakeElemen:

; 1480 :             if (_Map()[--_Block]) { // free block and destroy its pointer

  00300	8b 44 b2 fc	 mov	 eax, DWORD PTR [edx+esi*4-4]
  00304	4e		 dec	 esi
  00305	85 c0		 test	 eax, eax
  00307	74 0e		 je	 SHORT $LN181@MakeElemen
; File C:\Program Files (x86)\Microsoft Visual Studio\2019\Community\VC\Tools\MSVC\14.29.30133\include\xmemory

; 255  :         ::operator delete(_Ptr, _Bytes);

  00309	6a 20		 push	 32			; 00000020H
  0030b	50		 push	 eax
  0030c	e8 00 00 00 00	 call	 ??3@YAXPAXI@Z		; operator delete
  00311	8b 55 e4	 mov	 edx, DWORD PTR _pointList$[ebp+4]
  00314	83 c4 08	 add	 esp, 8
$LN181@MakeElemen:
; File C:\Program Files (x86)\Microsoft Visual Studio\2019\Community\VC\Tools\MSVC\14.29.30133\include\deque

; 1479 :         for (size_type _Block = _Mapsize(); 0 < _Block;) { // free storage for a block and destroy pointer

  00317	85 f6		 test	 esi, esi
  00319	75 e5		 jne	 SHORT $LL154@MakeElemen
  0031b	8b 75 e8	 mov	 esi, DWORD PTR _pointList$[ebp+8]
$LN155@MakeElemen:

; 1481 :                 _Getal().deallocate(_Map()[_Block], _Block_size);
; 1482 :                 _Destroy_in_place(_Map()[_Block]);
; 1483 :             }
; 1484 :         }
; 1485 : 
; 1486 :         if (_Map() != _Mapptr()) {

  0031e	85 d2		 test	 edx, edx
  00320	74 2d		 je	 SHORT $LN199@MakeElemen
; File C:\Program Files (x86)\Microsoft Visual Studio\2019\Community\VC\Tools\MSVC\14.29.30133\include\xmemory

; 797  :         _Deallocate<_New_alignof<_Ty>>(_Ptr, sizeof(_Ty) * _Count);

  00322	c1 e6 02	 shl	 esi, 2
  00325	8b c2		 mov	 eax, edx

; 251  :         if (_Bytes >= _Big_allocation_threshold) { // boost the alignment of big allocations to help autovectorization

  00327	81 fe 00 10 00
	00		 cmp	 esi, 4096		; 00001000H
  0032d	72 16		 jb	 SHORT $LN209@MakeElemen

; 150  :     const uintptr_t _Ptr_container   = _Ptr_user[-1];

  0032f	8b 52 fc	 mov	 edx, DWORD PTR [edx-4]
  00332	83 c6 23	 add	 esi, 35			; 00000023H
  00335	2b c2		 sub	 eax, edx

; 151  : 
; 152  :     // If the following asserts, it likely means that we are performing
; 153  :     // an aligned delete on memory coming from an unaligned allocation.
; 154  :     _STL_ASSERT(_Ptr_user[-2] == _Big_allocation_sentinel, "invalid argument");
; 155  : 
; 156  :     // Extra paranoia on aligned allocation/deallocation; ensure _Ptr_container is
; 157  :     // in range [_Min_back_shift, _Non_user_size]
; 158  : #ifdef _DEBUG
; 159  :     constexpr uintptr_t _Min_back_shift = 2 * sizeof(void*);
; 160  : #else // ^^^ _DEBUG ^^^ // vvv !_DEBUG vvv
; 161  :     constexpr uintptr_t _Min_back_shift = sizeof(void*);
; 162  : #endif // _DEBUG
; 163  :     const uintptr_t _Back_shift = reinterpret_cast<uintptr_t>(_Ptr) - _Ptr_container;
; 164  :     _STL_VERIFY(_Back_shift >= _Min_back_shift && _Back_shift <= _Non_user_size, "invalid argument");

  00337	83 c0 fc	 add	 eax, -4			; fffffffcH
  0033a	83 f8 1f	 cmp	 eax, 31			; 0000001fH
  0033d	76 06		 jbe	 SHORT $LN209@MakeElemen
$LN206@MakeElemen:
  0033f	ff 15 00 00 00
	00		 call	 DWORD PTR __imp___invalid_parameter_noinfo_noreturn
$LN209@MakeElemen:

; 255  :         ::operator delete(_Ptr, _Bytes);

  00345	56		 push	 esi
  00346	52		 push	 edx
  00347	e8 00 00 00 00	 call	 ??3@YAXPAXI@Z		; operator delete
  0034c	83 c4 08	 add	 esp, 8
$LN199@MakeElemen:
; File C:\Program Files (x86)\Microsoft Visual Studio\2019\Community\VC\Tools\MSVC\14.29.30133\include\utility

; 602  :     _Ty _Old_val = static_cast<_Ty&&>(_Val);

  0034f	8b 4d e0	 mov	 ecx, DWORD PTR _pointList$[ebp]
; File C:\Program Files (x86)\Microsoft Visual Studio\2019\Community\VC\Tools\MSVC\14.29.30133\include\xmemory

; 255  :         ::operator delete(_Ptr, _Bytes);

  00352	6a 08		 push	 8
  00354	51		 push	 ecx
; File C:\Program Files (x86)\Microsoft Visual Studio\2019\Community\VC\Tools\MSVC\14.29.30133\include\deque

; 1490 :         _Mapsize() = 0;

  00355	c7 45 e8 00 00
	00 00		 mov	 DWORD PTR _pointList$[ebp+8], 0

; 1491 :         _Map()     = _Mapptr();

  0035c	c7 45 e4 00 00
	00 00		 mov	 DWORD PTR _pointList$[ebp+4], 0
; File C:\Program Files (x86)\Microsoft Visual Studio\2019\Community\VC\Tools\MSVC\14.29.30133\include\utility

; 603  :     _Val         = static_cast<_Other&&>(_New_val);

  00363	c7 45 e0 00 00
	00 00		 mov	 DWORD PTR _pointList$[ebp], 0
; File C:\Program Files (x86)\Microsoft Visual Studio\2019\Community\VC\Tools\MSVC\14.29.30133\include\xmemory

; 255  :         ::operator delete(_Ptr, _Bytes);

  0036a	e8 00 00 00 00	 call	 ??3@YAXPAXI@Z		; operator delete
  0036f	83 c4 08	 add	 esp, 8
; File D:\git\src\IBK\IBK_DRFN\ProjSrc\SrcChartEx\ChartAddIn\ChartAnalysisToolAddIn\AnalysisTool\ElementTreeBuilder.cpp

; 335  : 	return MakeElement(eToolType, pointList, strData, environment);

  00372	8d 4d dc	 lea	 ecx, DWORD PTR _strData$[ebp]
  00375	ff 15 00 00 00
	00		 call	 DWORD PTR __imp_??1?$CStringT@DV?$StrTraitMFC_DLL@DV?$ChTraitsCRT@D@ATL@@@@@ATL@@QAE@XZ
  0037b	8b c7		 mov	 eax, edi

; 336  : }

  0037d	8b 4d f4	 mov	 ecx, DWORD PTR __$EHRec$[ebp]
  00380	64 89 0d 00 00
	00 00		 mov	 DWORD PTR fs:0, ecx
  00387	59		 pop	 ecx
  00388	5f		 pop	 edi
  00389	5e		 pop	 esi
  0038a	8b e5		 mov	 esp, ebp
  0038c	5d		 pop	 ebp
  0038d	c2 08 00	 ret	 8
$LN259@MakeElemen:
_TEXT	ENDS
;	COMDAT text$x
text$x	SEGMENT
__unwindfunclet$?MakeElement@CElementTreeBuilder@@AAEPAVCElement@@ABV?$CStringT@DV?$StrTraitMFC_DLL@DV?$ChTraitsCRT@D@ATL@@@@@ATL@@ABH@Z$0:
  00000	8d 4d dc	 lea	 ecx, DWORD PTR _strData$[ebp]
  00003	ff 25 00 00 00
	00		 jmp	 DWORD PTR __imp_??1?$CStringT@DV?$StrTraitMFC_DLL@DV?$ChTraitsCRT@D@ATL@@@@@ATL@@QAE@XZ
__unwindfunclet$?MakeElement@CElementTreeBuilder@@AAEPAVCElement@@ABV?$CStringT@DV?$StrTraitMFC_DLL@DV?$ChTraitsCRT@D@ATL@@@@@ATL@@ABH@Z$1:
  00009	8d 4d e0	 lea	 ecx, DWORD PTR _pointList$[ebp]
  0000c	e9 00 00 00 00	 jmp	 ??1?$CDequeList@VCCoordinate@@@@QAE@XZ ; CDequeList<CCoordinate>::~CDequeList<CCoordinate>
__unwindfunclet$?MakeElement@CElementTreeBuilder@@AAEPAVCElement@@ABV?$CStringT@DV?$StrTraitMFC_DLL@DV?$ChTraitsCRT@D@ATL@@@@@ATL@@ABH@Z$2:
  00011	8d 8d 58 ff ff
	ff		 lea	 ecx, DWORD PTR _environment$[ebp]
  00017	e9 00 00 00 00	 jmp	 ??1CElementCommonEnvironment@@QAE@XZ
__unwindfunclet$?MakeElement@CElementTreeBuilder@@AAEPAVCElement@@ABV?$CStringT@DV?$StrTraitMFC_DLL@DV?$ChTraitsCRT@D@ATL@@@@@ATL@@ABH@Z$4:
  0001c	8d 4d d4	 lea	 ecx, DWORD PTR $T7[ebp]
  0001f	ff 25 00 00 00
	00		 jmp	 DWORD PTR __imp_??1?$CStringT@DV?$StrTraitMFC_DLL@DV?$ChTraitsCRT@D@ATL@@@@@ATL@@QAE@XZ
__unwindfunclet$?MakeElement@CElementTreeBuilder@@AAEPAVCElement@@ABV?$CStringT@DV?$StrTraitMFC_DLL@DV?$ChTraitsCRT@D@ATL@@@@@ATL@@ABH@Z$5:
  00025	8d 4d d8	 lea	 ecx, DWORD PTR $T8[ebp]
  00028	ff 25 00 00 00
	00		 jmp	 DWORD PTR __imp_??1?$CStringT@DV?$StrTraitMFC_DLL@DV?$ChTraitsCRT@D@ATL@@@@@ATL@@QAE@XZ
__unwindfunclet$?MakeElement@CElementTreeBuilder@@AAEPAVCElement@@ABV?$CStringT@DV?$StrTraitMFC_DLL@DV?$ChTraitsCRT@D@ATL@@@@@ATL@@ABH@Z$7:
  0002e	8d 4d 0c	 lea	 ecx, DWORD PTR _strNewData$10[ebp]
  00031	ff 25 00 00 00
	00		 jmp	 DWORD PTR __imp_??1?$CStringT@DV?$StrTraitMFC_DLL@DV?$ChTraitsCRT@D@ATL@@@@@ATL@@QAE@XZ
__unwindfunclet$?MakeElement@CElementTreeBuilder@@AAEPAVCElement@@ABV?$CStringT@DV?$StrTraitMFC_DLL@DV?$ChTraitsCRT@D@ATL@@@@@ATL@@ABH@Z$6:
  00037	8d 4d 08	 lea	 ecx, DWORD PTR _strData$9[ebp]
  0003a	ff 25 00 00 00
	00		 jmp	 DWORD PTR __imp_??1?$CStringT@DV?$StrTraitMFC_DLL@DV?$ChTraitsCRT@D@ATL@@@@@ATL@@QAE@XZ
  00040	cc		 int	 3
  00041	cc		 int	 3
  00042	cc		 int	 3
  00043	cc		 int	 3
  00044	cc		 int	 3
__ehhandler$?MakeElement@CElementTreeBuilder@@AAEPAVCElement@@ABV?$CStringT@DV?$StrTraitMFC_DLL@DV?$ChTraitsCRT@D@ATL@@@@@ATL@@ABH@Z:
  00045	90		 npad	 1
  00046	90		 npad	 1
  00047	8b 54 24 08	 mov	 edx, DWORD PTR [esp+8]
  0004b	8d 42 0c	 lea	 eax, DWORD PTR [edx+12]
  0004e	8b 8a 58 ff ff
	ff		 mov	 ecx, DWORD PTR [edx-168]
  00054	33 c8		 xor	 ecx, eax
  00056	e8 00 00 00 00	 call	 @__security_check_cookie@4
  0005b	b8 00 00 00 00	 mov	 eax, OFFSET __ehfuncinfo$?MakeElement@CElementTreeBuilder@@AAEPAVCElement@@ABV?$CStringT@DV?$StrTraitMFC_DLL@DV?$ChTraitsCRT@D@ATL@@@@@ATL@@ABH@Z
  00060	e9 00 00 00 00	 jmp	 ___CxxFrameHandler3
text$x	ENDS
?MakeElement@CElementTreeBuilder@@AAEPAVCElement@@ABV?$CStringT@DV?$StrTraitMFC_DLL@DV?$ChTraitsCRT@D@ATL@@@@@ATL@@ABH@Z ENDP ; CElementTreeBuilder::MakeElement
; Function compile flags: /Ogtp
; File D:\git\src\IBK\IBK_DRFN\ProjSrc\SrcChartEx\ChartAddIn\ChartAnalysisToolAddIn\AnalysisTool\ElementTreeBuilder.cpp
; File C:\Program Files (x86)\Microsoft Visual Studio\2019\Community\VC\Tools\MSVC\14.29.30133\include\deque
; File C:\Program Files (x86)\Microsoft Visual Studio\2019\Community\VC\Tools\MSVC\14.29.30133\include\xmemory
; File C:\Program Files (x86)\Microsoft Visual Studio\2019\Community\VC\Tools\MSVC\14.29.30133\include\deque
; File C:\Program Files (x86)\Microsoft Visual Studio\2019\Community\VC\Tools\MSVC\14.29.30133\include\xmemory
; File C:\Program Files (x86)\Microsoft Visual Studio\2019\Community\VC\Tools\MSVC\14.29.30133\include\deque
; File D:\git\src\IBK\IBK_DRFN\ProjSrc\SrcChartEx\ChartAddIn\ChartAnalysisToolAddIn\AnalysisTool\ElementTreeBuilder.cpp
;	COMDAT ?AddElement@CElementTreeBuilder@@AAEXABVCBlockIndex@@HPAVCElement@@AAVCTree@@AAVCElementAndOrderSet@@@Z
_TEXT	SEGMENT
_blockIndex$ = 8					; size = 4
_nIndex$ = 12						; size = 4
tv514 = 16						; size = 4
_pElement$ = 16						; size = 4
_elementTree$ = 20					; size = 4
_elementAndOrderSet$ = 24				; size = 4
?AddElement@CElementTreeBuilder@@AAEXABVCBlockIndex@@HPAVCElement@@AAVCTree@@AAVCElementAndOrderSet@@@Z PROC ; CElementTreeBuilder::AddElement, COMDAT
; _this$ = ecx

; 310  : {

  00000	55		 push	 ebp
  00001	8b ec		 mov	 ebp, esp
  00003	57		 push	 edi

; 311  : 	// CTree element .
; 312  : 	if(pElement == NULL)

  00004	8b 7d 10	 mov	 edi, DWORD PTR _pElement$[ebp]
  00007	85 ff		 test	 edi, edi
  00009	0f 84 91 00 00
	00		 je	 $LN52@AddElement

; 313  : 		return;
; 314  : 
; 315  : 	elementTree.Add(blockIndex, pElement);

  0000f	8b 4d 14	 mov	 ecx, DWORD PTR _elementTree$[ebp]
  00012	53		 push	 ebx
  00013	56		 push	 esi
  00014	57		 push	 edi
  00015	ff 75 08	 push	 DWORD PTR _blockIndex$[ebp]
  00018	e8 00 00 00 00	 call	 ?Add@CTree@@QAEXABVCBlockIndex@@PAVCElement@@@Z ; CTree::Add
; File C:\Program Files (x86)\Microsoft Visual Studio\2019\Community\VC\Tools\MSVC\14.29.30133\include\deque

; 1106 :         if ((_Myoff() + _Mysize()) % _Block_size == 0 && _Mapsize() <= (_Mysize() + _Block_size) / _Block_size) {

  0001d	8b 75 18	 mov	 esi, DWORD PTR _elementAndOrderSet$[ebp]
  00020	8b 4e 10	 mov	 ecx, DWORD PTR [esi+16]
  00023	8b d9		 mov	 ebx, ecx
  00025	8b 56 0c	 mov	 edx, DWORD PTR [esi+12]
  00028	8d 04 0a	 lea	 eax, DWORD PTR [edx+ecx]
  0002b	a8 01		 test	 al, 1
  0002d	75 19		 jne	 SHORT $LN13@AddElement
  0002f	8d 41 02	 lea	 eax, DWORD PTR [ecx+2]
  00032	d1 e8		 shr	 eax, 1
  00034	39 46 08	 cmp	 DWORD PTR [esi+8], eax
  00037	77 0f		 ja	 SHORT $LN13@AddElement

; 1107 :             _Growmap(1);

  00039	6a 01		 push	 1
  0003b	8b ce		 mov	 ecx, esi
  0003d	e8 00 00 00 00	 call	 ?_Growmap@?$deque@VCElementAndOrder@@V?$allocator@VCElementAndOrder@@@std@@@std@@AAEXI@Z ; std::deque<CElementAndOrder,std::allocator<CElementAndOrder> >::_Growmap
  00042	8b 56 0c	 mov	 edx, DWORD PTR [esi+12]
  00045	8b 5e 10	 mov	 ebx, DWORD PTR [esi+16]
$LN13@AddElement:

; 1108 :         }
; 1109 :         _Myoff() &= _Mapsize() * _Block_size - 1;

  00048	8b 4e 08	 mov	 ecx, DWORD PTR [esi+8]
  0004b	8d 04 4d ff ff
	ff ff		 lea	 eax, DWORD PTR [ecx*2-1]

; 559  :         return (_Off / _Block_size) & (_Mapsize - 1);

  00052	49		 dec	 ecx

; 1109 :         _Myoff() &= _Mapsize() * _Block_size - 1;

  00053	23 c2		 and	 eax, edx
  00055	89 46 0c	 mov	 DWORD PTR [esi+12], eax

; 1110 :         size_type _Newoff = _Myoff() + _Mysize();

  00058	03 d8		 add	 ebx, eax

; 559  :         return (_Off / _Block_size) & (_Mapsize - 1);

  0005a	8b c3		 mov	 eax, ebx
  0005c	d1 e8		 shr	 eax, 1
  0005e	23 c8		 and	 ecx, eax

; 1112 :         if (_Map()[_Block] == nullptr) {

  00060	8d 04 8d 00 00
	00 00		 lea	 eax, DWORD PTR [ecx*4]
  00067	8b 4e 04	 mov	 ecx, DWORD PTR [esi+4]
  0006a	89 45 10	 mov	 DWORD PTR tv514[ebp], eax
  0006d	83 3c 01 00	 cmp	 DWORD PTR [ecx+eax], 0
  00071	75 18		 jne	 SHORT $LN14@AddElement
; File C:\Program Files (x86)\Microsoft Visual Studio\2019\Community\VC\Tools\MSVC\14.29.30133\include\xmemory

; 79   :         return ::operator new(_Bytes);

  00073	6a 10		 push	 16			; 00000010H
  00075	e8 00 00 00 00	 call	 ??2@YAPAXI@Z		; operator new
; File C:\Program Files (x86)\Microsoft Visual Studio\2019\Community\VC\Tools\MSVC\14.29.30133\include\deque

; 1113 :             _Map()[_Block] = _Getal().allocate(_Block_size);

  0007a	8b 4e 04	 mov	 ecx, DWORD PTR [esi+4]
; File C:\Program Files (x86)\Microsoft Visual Studio\2019\Community\VC\Tools\MSVC\14.29.30133\include\xmemory

; 79   :         return ::operator new(_Bytes);

  0007d	83 c4 04	 add	 esp, 4
; File C:\Program Files (x86)\Microsoft Visual Studio\2019\Community\VC\Tools\MSVC\14.29.30133\include\deque

; 1113 :             _Map()[_Block] = _Getal().allocate(_Block_size);

  00080	8b 55 10	 mov	 edx, DWORD PTR tv514[ebp]
  00083	89 04 0a	 mov	 DWORD PTR [edx+ecx], eax
  00086	8b c2		 mov	 eax, edx
  00088	8b 4e 04	 mov	 ecx, DWORD PTR [esi+4]
$LN14@AddElement:

; 1114 :         }
; 1115 : 
; 1116 :         _Alty_traits::construct(

  0008b	8b 04 08	 mov	 eax, DWORD PTR [eax+ecx]
  0008e	83 e3 01	 and	 ebx, 1
  00091	8b 4d 0c	 mov	 ecx, DWORD PTR _nIndex$[ebp]
  00094	89 0c d8	 mov	 DWORD PTR [eax+ebx*8], ecx
  00097	89 7c d8 04	 mov	 DWORD PTR [eax+ebx*8+4], edi

; 1117 :             _Getal(), _Unfancy(_Map()[_Block] + _Newoff % _Block_size), _STD forward<_Tys>(_Vals)...);
; 1118 : 
; 1119 :         ++_Mysize();

  0009b	ff 46 10	 inc	 DWORD PTR [esi+16]
  0009e	5e		 pop	 esi
  0009f	5b		 pop	 ebx
$LN52@AddElement:
  000a0	5f		 pop	 edi
; File D:\git\src\IBK\IBK_DRFN\ProjSrc\SrcChartEx\ChartAddIn\ChartAnalysisToolAddIn\AnalysisTool\ElementTreeBuilder.cpp

; 320  : }

  000a1	5d		 pop	 ebp
  000a2	c2 14 00	 ret	 20			; 00000014H
?AddElement@CElementTreeBuilder@@AAEXABVCBlockIndex@@HPAVCElement@@AAVCTree@@AAVCElementAndOrderSet@@@Z ENDP ; CElementTreeBuilder::AddElement
_TEXT	ENDS
; Function compile flags: /Ogtp
; File D:\git\src\IBK\IBK_DRFN\ProjSrc\SrcChartEx\ChartAddIn\ChartAnalysisToolAddIn\AnalysisTool\ElementTreeBuilder.cpp
; File C:\Program Files (x86)\Microsoft Visual Studio\2019\Community\VC\Tools\MSVC\14.29.30133\include\deque
; File D:\git\src\IBK\IBK_DRFN\ProjSrc\SrcChartEx\ChartAddIn\ChartAnalysisToolAddIn\Include_Chart\DequeList.h
; File C:\Program Files (x86)\Microsoft Visual Studio\2019\Community\VC\Tools\MSVC\14.29.30133\include\deque
; File D:\git\src\IBK\IBK_DRFN\ProjSrc\SrcChartEx\ChartAddIn\ChartAnalysisToolAddIn\Include_Chart\DequeList.h
; File D:\git\src\IBK\IBK_DRFN\ProjSrc\SrcChartEx\ChartAddIn\ChartAnalysisToolAddIn\AnalysisTool\ElementTreeBuilder.cpp
;	COMDAT ?BuildElementsFromString@CElementTreeBuilder@@AAEXAAVCAnalysisData@@ABVCElementAndOrderSet@@AAVCOrder@@@Z
_TEXT	SEGMENT
_analysisData$ = 8					; size = 4
_elementAndOrderSet$ = 12				; size = 4
_elementOrder$ = 16					; size = 4
?BuildElementsFromString@CElementTreeBuilder@@AAEXAAVCAnalysisData@@ABVCElementAndOrderSet@@AAVCOrder@@@Z PROC ; CElementTreeBuilder::BuildElementsFromString, COMDAT
; _this$ = ecx

; 298  : {

  00000	55		 push	 ebp
  00001	8b ec		 mov	 ebp, esp
  00003	83 ec 08	 sub	 esp, 8
  00006	53		 push	 ebx
  00007	56		 push	 esi

; 299  : 	for(int nIndex = 0; nIndex <= elementAndOrderSet.GetMaxIndex(); nIndex++)

  00008	8b 75 0c	 mov	 esi, DWORD PTR _elementAndOrderSet$[ebp]
  0000b	33 db		 xor	 ebx, ebx
  0000d	8b ce		 mov	 ecx, esi
  0000f	e8 00 00 00 00	 call	 ?GetMaxIndex@CElementAndOrderSet@@QBEHXZ ; CElementAndOrderSet::GetMaxIndex
  00014	85 c0		 test	 eax, eax
  00016	78 75		 js	 SHORT $LN3@BuildEleme
  00018	57		 push	 edi
  00019	0f 1f 80 00 00
	00 00		 npad	 7
$LL4@BuildEleme:

; 94   : 	for(int i = 0; i < m_ElementAndOrderSet.GetCount(); i++)

  00020	8b 7e 10	 mov	 edi, DWORD PTR [esi+16]
  00023	33 c0		 xor	 eax, eax
  00025	85 ff		 test	 edi, edi
  00027	7e 57		 jle	 SHORT $LN2@BuildEleme
  00029	0f 1f 80 00 00
	00 00		 npad	 7
$LL10@BuildEleme:

; 85   : 	if(nIndex < 0 || nIndex >= m_ElementAndOrderSet.GetCount())

  00030	85 c0		 test	 eax, eax
  00032	78 2f		 js	 SHORT $LN42@BuildEleme
  00034	3b c7		 cmp	 eax, edi
  00036	7d 2b		 jge	 SHORT $LN42@BuildEleme
; File C:\Program Files (x86)\Microsoft Visual Studio\2019\Community\VC\Tools\MSVC\14.29.30133\include\deque

; 43   :         : _Mycont(static_cast<const _Mydeque*>(_Pdeque)), _Myoff(_Off) {}

  00038	8b 4e 0c	 mov	 ecx, DWORD PTR [esi+12]

; 78   :         _Myoff += _Off;

  0003b	8d 34 01	 lea	 esi, DWORD PTR [ecx+eax]

; 559  :         return (_Off / _Block_size) & (_Mapsize - 1);

  0003e	8b 4d 0c	 mov	 ecx, DWORD PTR _elementAndOrderSet$[ebp]

; 78   :         _Myoff += _Off;

  00041	8b d6		 mov	 edx, esi
  00043	d1 ea		 shr	 edx, 1

; 559  :         return (_Off / _Block_size) & (_Mapsize - 1);

  00045	8b 49 08	 mov	 ecx, DWORD PTR [ecx+8]
  00048	49		 dec	 ecx
  00049	23 d1		 and	 edx, ecx
; File D:\git\src\IBK\IBK_DRFN\ProjSrc\SrcChartEx\ChartAddIn\ChartAnalysisToolAddIn\Include_Chart\DequeList.h

; 84   : 		return m_deque[nIndex];

  0004b	8b 4d 0c	 mov	 ecx, DWORD PTR _elementAndOrderSet$[ebp]
; File C:\Program Files (x86)\Microsoft Visual Studio\2019\Community\VC\Tools\MSVC\14.29.30133\include\deque

; 48   :         return _Mycont->_Map[_Block][_Off];

  0004e	83 e6 01	 and	 esi, 1
; File D:\git\src\IBK\IBK_DRFN\ProjSrc\SrcChartEx\ChartAddIn\ChartAnalysisToolAddIn\Include_Chart\DequeList.h

; 84   : 		return m_deque[nIndex];

  00051	8b 49 04	 mov	 ecx, DWORD PTR [ecx+4]
  00054	8b 0c 91	 mov	 ecx, DWORD PTR [ecx+edx*4]
  00057	8b 14 f1	 mov	 edx, DWORD PTR [ecx+esi*8]
  0005a	8b 4c f1 04	 mov	 ecx, DWORD PTR [ecx+esi*8+4]
  0005e	8b 75 0c	 mov	 esi, DWORD PTR _elementAndOrderSet$[ebp]
  00061	eb 05		 jmp	 SHORT $LN13@BuildEleme
$LN42@BuildEleme:
; File D:\git\src\IBK\IBK_DRFN\ProjSrc\SrcChartEx\ChartAddIn\ChartAnalysisToolAddIn\AnalysisTool\ElementTreeBuilder.cpp

; 30   : 	m_pElement(pElement)

  00063	33 c9		 xor	 ecx, ecx
  00065	83 ca ff	 or	 edx, -1
$LN13@BuildEleme:

; 97   : 		if(elementAndOrder.GetIndex() == nIndex)

  00068	3b d3		 cmp	 edx, ebx
  0006a	74 07		 je	 SHORT $LN7@BuildEleme

; 86   : 		return CElementAndOrder(-1, NULL);
; 87   : 
; 88   : 	return m_ElementAndOrderSet.GetAt(nIndex);
; 89   : }
; 90   : 
; 91   : //  index element.
; 92   : CElement* CElementAndOrderSet::GetElement(const int nIndex) const
; 93   : {
; 94   : 	for(int i = 0; i < m_ElementAndOrderSet.GetCount(); i++)

  0006c	40		 inc	 eax
  0006d	3b c7		 cmp	 eax, edi
  0006f	7c bf		 jl	 SHORT $LL10@BuildEleme

; 95   : 	{
; 96   : 		CElementAndOrder elementAndOrder = GetData(i);
; 97   : 		if(elementAndOrder.GetIndex() == nIndex)

  00071	eb 0d		 jmp	 SHORT $LN2@BuildEleme
$LN7@BuildEleme:

; 300  : 	{
; 301  : 		CElement* pElement = elementAndOrderSet.GetElement(nIndex);
; 302  : 		if( pElement) elementOrder.AddTail(pElement);

  00073	85 c9		 test	 ecx, ecx
  00075	74 09		 je	 SHORT $LN2@BuildEleme
  00077	51		 push	 ecx
  00078	8b 4d 10	 mov	 ecx, DWORD PTR _elementOrder$[ebp]
  0007b	e8 00 00 00 00	 call	 ?AddTail@COrder@@QAEXPAVCElement@@@Z ; COrder::AddTail
$LN2@BuildEleme:

; 299  : 	for(int nIndex = 0; nIndex <= elementAndOrderSet.GetMaxIndex(); nIndex++)

  00080	8b ce		 mov	 ecx, esi
  00082	43		 inc	 ebx
  00083	e8 00 00 00 00	 call	 ?GetMaxIndex@CElementAndOrderSet@@QBEHXZ ; CElementAndOrderSet::GetMaxIndex
  00088	3b d8		 cmp	 ebx, eax
  0008a	7e 94		 jle	 SHORT $LL4@BuildEleme
  0008c	5f		 pop	 edi
$LN3@BuildEleme:
  0008d	5e		 pop	 esi

; 303  : 	}
; 304  : }

  0008e	5b		 pop	 ebx
  0008f	8b e5		 mov	 esp, ebp
  00091	5d		 pop	 ebp
  00092	c2 0c 00	 ret	 12			; 0000000cH
?BuildElementsFromString@CElementTreeBuilder@@AAEXAAVCAnalysisData@@ABVCElementAndOrderSet@@AAVCOrder@@@Z ENDP ; CElementTreeBuilder::BuildElementsFromString
_TEXT	ENDS
; Function compile flags: /Ogtp
; File D:\git\src\IBK\IBK_DRFN\ProjSrc\SrcChartEx\ChartAddIn\ChartAnalysisToolAddIn\AnalysisTool\ElementTreeBuilder.cpp
; File C:\Program Files (x86)\Microsoft Visual Studio\2019\Community\VC\Tools\MSVC\14.29.30133\atlmfc\include\atlsimpstr.h
; File D:\git\src\IBK\IBK_DRFN\ProjSrc\SrcChartEx\ChartAddIn\ChartAnalysisToolAddIn\AnalysisTool\ElementTreeBuilder.cpp
;	COMDAT ?BuildElementsFromString_Element@CElementTreeBuilder@@AAEXAAVCAnalysisData@@ABVCBlockIndex@@ABV?$CStringT@DV?$StrTraitMFC_DLL@DV?$ChTraitsCRT@D@ATL@@@@@ATL@@AAVCTree@@AAVCElementAndOrderSet@@@Z
_TEXT	SEGMENT
_this$1$ = -40						; size = 4
_nIndex$1$ = -36					; size = 4
_pIChartManager$1$ = -32				; size = 4
$T2 = -32						; size = 4
$T3 = -28						; size = 4
$T4 = -24						; size = 4
_strNewData$5 = -20					; size = 4
_nTimeDiff$ = -20					; size = 4
_elementData$ = -16					; size = 4
__$EHRec$ = -12						; size = 12
_analysisData$ = 8					; size = 4
_blockIndex$ = 12					; size = 4
_strElementData$ = 16					; size = 4
_elementTree$ = 20					; size = 4
_elementAndOrderSet$ = 24				; size = 4
?BuildElementsFromString_Element@CElementTreeBuilder@@AAEXAAVCAnalysisData@@ABVCBlockIndex@@ABV?$CStringT@DV?$StrTraitMFC_DLL@DV?$ChTraitsCRT@D@ATL@@@@@ATL@@AAVCTree@@AAVCElementAndOrderSet@@@Z PROC ; CElementTreeBuilder::BuildElementsFromString_Element, COMDAT
; _this$ = ecx

; 257  : {

  00000	55		 push	 ebp
  00001	8b ec		 mov	 ebp, esp
  00003	6a ff		 push	 -1
  00005	68 00 00 00 00	 push	 __ehhandler$?BuildElementsFromString_Element@CElementTreeBuilder@@AAEXAAVCAnalysisData@@ABVCBlockIndex@@ABV?$CStringT@DV?$StrTraitMFC_DLL@DV?$ChTraitsCRT@D@ATL@@@@@ATL@@AAVCTree@@AAVCElementAndOrderSet@@@Z
  0000a	64 a1 00 00 00
	00		 mov	 eax, DWORD PTR fs:0
  00010	50		 push	 eax
  00011	83 ec 1c	 sub	 esp, 28			; 0000001cH
  00014	53		 push	 ebx
  00015	56		 push	 esi
  00016	57		 push	 edi
  00017	a1 00 00 00 00	 mov	 eax, DWORD PTR ___security_cookie
  0001c	33 c5		 xor	 eax, ebp
  0001e	50		 push	 eax
  0001f	8d 45 f4	 lea	 eax, DWORD PTR __$EHRec$[ebp]
  00022	64 a3 00 00 00
	00		 mov	 DWORD PTR fs:0, eax
  00028	8b d9		 mov	 ebx, ecx
  0002a	89 5d d8	 mov	 DWORD PTR _this$1$[ebp], ebx
; File C:\Program Files (x86)\Microsoft Visual Studio\2019\Community\VC\Tools\MSVC\14.29.30133\atlmfc\include\atlsimpstr.h

; 519  : 		return( GetData()->nDataLength );

  0002d	8b 75 10	 mov	 esi, DWORD PTR _strElementData$[ebp]
  00030	8b 06		 mov	 eax, DWORD PTR [esi]

; 533  : 		return( GetLength() == 0 );

  00032	83 78 f4 00	 cmp	 DWORD PTR [eax-12], 0
; File D:\git\src\IBK\IBK_DRFN\ProjSrc\SrcChartEx\ChartAddIn\ChartAnalysisToolAddIn\AnalysisTool\ElementTreeBuilder.cpp

; 258  : 	if(strElementData.IsEmpty())

  00036	0f 84 55 01 00
	00		 je	 $LN1@BuildEleme

; 259  : 		return;
; 260  : 
; 261  : 	CString elementData = GetData(strElementData, "<Element>\r\n", "<\\Element>\r\n");

  0003c	68 00 00 00 00	 push	 OFFSET ??_C@_0N@GAAGGFNK@?$DM?2Element?$DO?$AN?6@
  00041	8d 4d e4	 lea	 ecx, DWORD PTR $T3[ebp]
  00044	ff 15 00 00 00
	00		 call	 DWORD PTR __imp_??0?$CStringT@DV?$StrTraitMFC_DLL@DV?$ChTraitsCRT@D@ATL@@@@@ATL@@QAE@PBD@Z
  0004a	68 00 00 00 00	 push	 OFFSET ??_C@_0M@KBDGNNOL@?$DMElement?$DO?$AN?6@
  0004f	8d 4d e8	 lea	 ecx, DWORD PTR $T4[ebp]
  00052	c7 45 fc 00 00
	00 00		 mov	 DWORD PTR __$EHRec$[ebp+8], 0
  00059	ff 15 00 00 00
	00		 call	 DWORD PTR __imp_??0?$CStringT@DV?$StrTraitMFC_DLL@DV?$ChTraitsCRT@D@ATL@@@@@ATL@@QAE@PBD@Z

; 384  : 	CString strNewData = strOrgData;

  0005f	56		 push	 esi
  00060	8d 4d ec	 lea	 ecx, DWORD PTR _strNewData$5[ebp]

; 259  : 		return;
; 260  : 
; 261  : 	CString elementData = GetData(strElementData, "<Element>\r\n", "<\\Element>\r\n");

  00063	c6 45 fc 01	 mov	 BYTE PTR __$EHRec$[ebp+8], 1

; 384  : 	CString strNewData = strOrgData;

  00067	ff 15 00 00 00
	00		 call	 DWORD PTR __imp_??0?$CStringT@DV?$StrTraitMFC_DLL@DV?$ChTraitsCRT@D@ATL@@@@@ATL@@QAE@ABV01@@Z

; 385  : 	CDataConversion::GetStringData(strNewData, strTrimStart);

  0006d	6a 01		 push	 1
  0006f	8d 45 e8	 lea	 eax, DWORD PTR $T4[ebp]
  00072	c6 45 fc 02	 mov	 BYTE PTR __$EHRec$[ebp+8], 2
  00076	50		 push	 eax
  00077	8d 45 ec	 lea	 eax, DWORD PTR _strNewData$5[ebp]
  0007a	50		 push	 eax
  0007b	8d 45 e0	 lea	 eax, DWORD PTR $T2[ebp]
  0007e	50		 push	 eax
  0007f	e8 00 00 00 00	 call	 ?GetStringData@CDataConversion@@SA?AV?$CStringT@DV?$StrTraitMFC_DLL@DV?$ChTraitsCRT@D@ATL@@@@@ATL@@AAV23@ABV23@_N@Z ; CDataConversion::GetStringData
  00084	83 c4 10	 add	 esp, 16			; 00000010H
  00087	8d 4d e0	 lea	 ecx, DWORD PTR $T2[ebp]
  0008a	ff 15 00 00 00
	00		 call	 DWORD PTR __imp_??1?$CStringT@DV?$StrTraitMFC_DLL@DV?$ChTraitsCRT@D@ATL@@@@@ATL@@QAE@XZ

; 386  : 	return CDataConversion::GetStringData(strNewData, strTrimEnd);

  00090	6a 01		 push	 1
  00092	8d 45 e4	 lea	 eax, DWORD PTR $T3[ebp]
  00095	50		 push	 eax
  00096	8d 45 ec	 lea	 eax, DWORD PTR _strNewData$5[ebp]
  00099	50		 push	 eax
  0009a	8d 45 f0	 lea	 eax, DWORD PTR _elementData$[ebp]
  0009d	50		 push	 eax
  0009e	e8 00 00 00 00	 call	 ?GetStringData@CDataConversion@@SA?AV?$CStringT@DV?$StrTraitMFC_DLL@DV?$ChTraitsCRT@D@ATL@@@@@ATL@@AAV23@ABV23@_N@Z ; CDataConversion::GetStringData
  000a3	83 c4 10	 add	 esp, 16			; 00000010H
  000a6	8d 4d ec	 lea	 ecx, DWORD PTR _strNewData$5[ebp]
  000a9	ff 15 00 00 00
	00		 call	 DWORD PTR __imp_??1?$CStringT@DV?$StrTraitMFC_DLL@DV?$ChTraitsCRT@D@ATL@@@@@ATL@@QAE@XZ

; 259  : 		return;
; 260  : 
; 261  : 	CString elementData = GetData(strElementData, "<Element>\r\n", "<\\Element>\r\n");

  000af	8d 4d e8	 lea	 ecx, DWORD PTR $T4[ebp]
  000b2	ff 15 00 00 00
	00		 call	 DWORD PTR __imp_??1?$CStringT@DV?$StrTraitMFC_DLL@DV?$ChTraitsCRT@D@ATL@@@@@ATL@@QAE@XZ
  000b8	8d 4d e4	 lea	 ecx, DWORD PTR $T3[ebp]
  000bb	c6 45 fc 05	 mov	 BYTE PTR __$EHRec$[ebp+8], 5
  000bf	ff 15 00 00 00
	00		 call	 DWORD PTR __imp_??1?$CStringT@DV?$StrTraitMFC_DLL@DV?$ChTraitsCRT@D@ATL@@@@@ATL@@QAE@XZ

; 262  : 	// index
; 263  : 	int nIndex = GetIndex(elementData);

  000c5	8d 45 f0	 lea	 eax, DWORD PTR _elementData$[ebp]
  000c8	8b cb		 mov	 ecx, ebx
  000ca	50		 push	 eax
  000cb	e8 00 00 00 00	 call	 ?GetIndex@CElementTreeBuilder@@ABEHABV?$CStringT@DV?$StrTraitMFC_DLL@DV?$ChTraitsCRT@D@ATL@@@@@ATL@@@Z ; CElementTreeBuilder::GetIndex

; 264  : 
; 265  : 	// 20081007 JS.Kim	 . <<	
; 266  : 	//CElement *pElement = MakeElement(elementData);
; 267  : 	int nTimeDiff = 0;
; 268  : 	IChartManager *pIChartManager = analysisData.GetMainBlock();

  000d0	8b 4d 08	 mov	 ecx, DWORD PTR _analysisData$[ebp]
  000d3	89 45 dc	 mov	 DWORD PTR _nIndex$1$[ebp], eax
  000d6	c7 45 ec 00 00
	00 00		 mov	 DWORD PTR _nTimeDiff$[ebp], 0
  000dd	e8 00 00 00 00	 call	 ?GetMainBlock@CAnalysisData@@QBEPAUIChartManager133101@@XZ ; CAnalysisData::GetMainBlock

; 269  : 	IBlock *pIBlock = pIChartManager->GetBlock( blockIndex.GetRow(), blockIndex.GetColumn());

  000e2	8b 4d 0c	 mov	 ecx, DWORD PTR _blockIndex$[ebp]
  000e5	89 45 e0	 mov	 DWORD PTR _pIChartManager$1$[ebp], eax
  000e8	8b 10		 mov	 edx, DWORD PTR [eax]
  000ea	ff 71 04	 push	 DWORD PTR [ecx+4]
  000ed	ff 31		 push	 DWORD PTR [ecx]
  000ef	8b c8		 mov	 ecx, eax
  000f1	ff 52 38	 call	 DWORD PTR [edx+56]
  000f4	8b f0		 mov	 esi, eax

; 270  : 	IPacket *pIPacket = NULL;
; 271  : 	if( pIBlock )

  000f6	85 f6		 test	 esi, esi
  000f8	74 30		 je	 SHORT $LN4@BuildEleme

; 272  : 	{
; 273  : 		// 20080925 JS.Kim	   Scale .     .
; 274  : 		pIPacket = pIBlock->GetHorzScaleDataPacket();

  000fa	8b 16		 mov	 edx, DWORD PTR [esi]
  000fc	8b ce		 mov	 ecx, esi
  000fe	ff 52 20	 call	 DWORD PTR [edx+32]
  00101	8b f8		 mov	 edi, eax

; 275  : 		// pIPacket = pIBlock->GetDatePacket();
; 276  : 		if( pIPacket) nTimeDiff = pIPacket->GetBaseTimeDifference();

  00103	85 ff		 test	 edi, edi
  00105	74 23		 je	 SHORT $LN4@BuildEleme
  00107	8b 17		 mov	 edx, DWORD PTR [edi]
  00109	8b cf		 mov	 ecx, edi
  0010b	ff 52 60	 call	 DWORD PTR [edx+96]
  0010e	89 45 ec	 mov	 DWORD PTR _nTimeDiff$[ebp], eax
  00111	8b cb		 mov	 ecx, ebx
  00113	8d 45 ec	 lea	 eax, DWORD PTR _nTimeDiff$[ebp]
  00116	50		 push	 eax
  00117	8d 45 f0	 lea	 eax, DWORD PTR _elementData$[ebp]
  0011a	50		 push	 eax
  0011b	e8 00 00 00 00	 call	 ?MakeElement@CElementTreeBuilder@@AAEPAVCElement@@ABV?$CStringT@DV?$StrTraitMFC_DLL@DV?$ChTraitsCRT@D@ATL@@@@@ATL@@ABH@Z ; CElementTreeBuilder::MakeElement
  00120	8b d8		 mov	 ebx, eax

; 280  : 
; 281  : 	if( pIPacket )		pIPacket->Release();

  00122	8b 07		 mov	 eax, DWORD PTR [edi]
  00124	57		 push	 edi
  00125	ff 50 08	 call	 DWORD PTR [eax+8]
  00128	eb 11		 jmp	 SHORT $LN5@BuildEleme
$LN4@BuildEleme:

; 277  : 	}
; 278  : 
; 279  : 	CElement *pElement = MakeElement(elementData, nTimeDiff);

  0012a	8d 45 ec	 lea	 eax, DWORD PTR _nTimeDiff$[ebp]
  0012d	8b cb		 mov	 ecx, ebx
  0012f	50		 push	 eax
  00130	8d 45 f0	 lea	 eax, DWORD PTR _elementData$[ebp]
  00133	50		 push	 eax
  00134	e8 00 00 00 00	 call	 ?MakeElement@CElementTreeBuilder@@AAEPAVCElement@@ABV?$CStringT@DV?$StrTraitMFC_DLL@DV?$ChTraitsCRT@D@ATL@@@@@ATL@@ABH@Z ; CElementTreeBuilder::MakeElement
  00139	8b d8		 mov	 ebx, eax
$LN5@BuildEleme:

; 282  : 	if( pIBlock	)		pIBlock->Release();	

  0013b	85 f6		 test	 esi, esi
  0013d	74 06		 je	 SHORT $LN6@BuildEleme
  0013f	8b 0e		 mov	 ecx, DWORD PTR [esi]
  00141	56		 push	 esi
  00142	ff 51 08	 call	 DWORD PTR [ecx+8]
$LN6@BuildEleme:

; 283  : 	pIChartManager->Release();	

  00145	8b 4d e0	 mov	 ecx, DWORD PTR _pIChartManager$1$[ebp]
  00148	51		 push	 ecx
  00149	8b 01		 mov	 eax, DWORD PTR [ecx]
  0014b	ff 50 08	 call	 DWORD PTR [eax+8]

; 284  : 	//>>
; 285  : 
; 286  : 	analysisData.RegisterElementToOrderManager((long)pElement);

  0014e	8b 4d 08	 mov	 ecx, DWORD PTR _analysisData$[ebp]
  00151	53		 push	 ebx
  00152	e8 00 00 00 00	 call	 ?RegisterElementToOrderManager@CAnalysisData@@QAEXJ@Z ; CAnalysisData::RegisterElementToOrderManager

; 287  : 	// element .
; 288  : 	AddElement(blockIndex, nIndex,pElement,elementTree, elementAndOrderSet);

  00157	ff 75 18	 push	 DWORD PTR _elementAndOrderSet$[ebp]
  0015a	8b 4d d8	 mov	 ecx, DWORD PTR _this$1$[ebp]
  0015d	ff 75 14	 push	 DWORD PTR _elementTree$[ebp]
  00160	53		 push	 ebx
  00161	ff 75 dc	 push	 DWORD PTR _nIndex$1$[ebp]
  00164	ff 75 0c	 push	 DWORD PTR _blockIndex$[ebp]
  00167	e8 00 00 00 00	 call	 ?AddElement@CElementTreeBuilder@@AAEXABVCBlockIndex@@HPAVCElement@@AAVCTree@@AAVCElementAndOrderSet@@@Z ; CElementTreeBuilder::AddElement

; 289  : 	
; 290  : 	// Undo / Redo
; 291  : 	analysisData.GetUndoRedoManager().RegisterElementToUnRedoManager(URT_NEW_OR_DEL, (long)pElement, "", strElementData);

  0016c	8b 45 10	 mov	 eax, DWORD PTR _strElementData$[ebp]
  0016f	8b 4d 08	 mov	 ecx, DWORD PTR _analysisData$[ebp]
  00172	ff 30		 push	 DWORD PTR [eax]
  00174	68 00 00 00 00	 push	 OFFSET ??_C@_00CNPNBAHC@@
  00179	53		 push	 ebx
  0017a	6a 01		 push	 1
  0017c	e8 00 00 00 00	 call	 ?GetUndoRedoManager@CAnalysisData@@QAEAAVCUndoRedoManager@@XZ ; CAnalysisData::GetUndoRedoManager
  00181	8b c8		 mov	 ecx, eax
  00183	e8 00 00 00 00	 call	 ?RegisterElementToUnRedoManager@CUndoRedoManager@@QAEXHJPBD0@Z ; CUndoRedoManager::RegisterElementToUnRedoManager

; 292  : }

  00188	8d 4d f0	 lea	 ecx, DWORD PTR _elementData$[ebp]
  0018b	ff 15 00 00 00
	00		 call	 DWORD PTR __imp_??1?$CStringT@DV?$StrTraitMFC_DLL@DV?$ChTraitsCRT@D@ATL@@@@@ATL@@QAE@XZ
$LN1@BuildEleme:
  00191	8b 4d f4	 mov	 ecx, DWORD PTR __$EHRec$[ebp]
  00194	64 89 0d 00 00
	00 00		 mov	 DWORD PTR fs:0, ecx
  0019b	59		 pop	 ecx
  0019c	5f		 pop	 edi
  0019d	5e		 pop	 esi
  0019e	5b		 pop	 ebx
  0019f	8b e5		 mov	 esp, ebp
  001a1	5d		 pop	 ebp
  001a2	c2 14 00	 ret	 20			; 00000014H
_TEXT	ENDS
;	COMDAT text$x
text$x	SEGMENT
__unwindfunclet$?BuildElementsFromString_Element@CElementTreeBuilder@@AAEXAAVCAnalysisData@@ABVCBlockIndex@@ABV?$CStringT@DV?$StrTraitMFC_DLL@DV?$ChTraitsCRT@D@ATL@@@@@ATL@@AAVCTree@@AAVCElementAndOrderSet@@@Z$0:
  00000	8d 4d e4	 lea	 ecx, DWORD PTR $T3[ebp]
  00003	ff 25 00 00 00
	00		 jmp	 DWORD PTR __imp_??1?$CStringT@DV?$StrTraitMFC_DLL@DV?$ChTraitsCRT@D@ATL@@@@@ATL@@QAE@XZ
__unwindfunclet$?BuildElementsFromString_Element@CElementTreeBuilder@@AAEXAAVCAnalysisData@@ABVCBlockIndex@@ABV?$CStringT@DV?$StrTraitMFC_DLL@DV?$ChTraitsCRT@D@ATL@@@@@ATL@@AAVCTree@@AAVCElementAndOrderSet@@@Z$1:
  00009	8d 4d e8	 lea	 ecx, DWORD PTR $T4[ebp]
  0000c	ff 25 00 00 00
	00		 jmp	 DWORD PTR __imp_??1?$CStringT@DV?$StrTraitMFC_DLL@DV?$ChTraitsCRT@D@ATL@@@@@ATL@@QAE@XZ
__unwindfunclet$?BuildElementsFromString_Element@CElementTreeBuilder@@AAEXAAVCAnalysisData@@ABVCBlockIndex@@ABV?$CStringT@DV?$StrTraitMFC_DLL@DV?$ChTraitsCRT@D@ATL@@@@@ATL@@AAVCTree@@AAVCElementAndOrderSet@@@Z$3:
  00012	8d 4d ec	 lea	 ecx, DWORD PTR _strNewData$5[ebp]
  00015	ff 25 00 00 00
	00		 jmp	 DWORD PTR __imp_??1?$CStringT@DV?$StrTraitMFC_DLL@DV?$ChTraitsCRT@D@ATL@@@@@ATL@@QAE@XZ
__unwindfunclet$?BuildElementsFromString_Element@CElementTreeBuilder@@AAEXAAVCAnalysisData@@ABVCBlockIndex@@ABV?$CStringT@DV?$StrTraitMFC_DLL@DV?$ChTraitsCRT@D@ATL@@@@@ATL@@AAVCTree@@AAVCElementAndOrderSet@@@Z$2:
  0001b	8d 4d f0	 lea	 ecx, DWORD PTR _elementData$[ebp]
  0001e	ff 25 00 00 00
	00		 jmp	 DWORD PTR __imp_??1?$CStringT@DV?$StrTraitMFC_DLL@DV?$ChTraitsCRT@D@ATL@@@@@ATL@@QAE@XZ
  00024	cc		 int	 3
  00025	cc		 int	 3
  00026	cc		 int	 3
  00027	cc		 int	 3
  00028	cc		 int	 3
__ehhandler$?BuildElementsFromString_Element@CElementTreeBuilder@@AAEXAAVCAnalysisData@@ABVCBlockIndex@@ABV?$CStringT@DV?$StrTraitMFC_DLL@DV?$ChTraitsCRT@D@ATL@@@@@ATL@@AAVCTree@@AAVCElementAndOrderSet@@@Z:
  00029	90		 npad	 1
  0002a	90		 npad	 1
  0002b	8b 54 24 08	 mov	 edx, DWORD PTR [esp+8]
  0002f	8d 42 0c	 lea	 eax, DWORD PTR [edx+12]
  00032	8b 4a d4	 mov	 ecx, DWORD PTR [edx-44]
  00035	33 c8		 xor	 ecx, eax
  00037	e8 00 00 00 00	 call	 @__security_check_cookie@4
  0003c	b8 00 00 00 00	 mov	 eax, OFFSET __ehfuncinfo$?BuildElementsFromString_Element@CElementTreeBuilder@@AAEXAAVCAnalysisData@@ABVCBlockIndex@@ABV?$CStringT@DV?$StrTraitMFC_DLL@DV?$ChTraitsCRT@D@ATL@@@@@ATL@@AAVCTree@@AAVCElementAndOrderSet@@@Z
  00041	e9 00 00 00 00	 jmp	 ___CxxFrameHandler3
text$x	ENDS
?BuildElementsFromString_Element@CElementTreeBuilder@@AAEXAAVCAnalysisData@@ABVCBlockIndex@@ABV?$CStringT@DV?$StrTraitMFC_DLL@DV?$ChTraitsCRT@D@ATL@@@@@ATL@@AAVCTree@@AAVCElementAndOrderSet@@@Z ENDP ; CElementTreeBuilder::BuildElementsFromString_Element
; Function compile flags: /Ogtp
; File D:\git\src\IBK\IBK_DRFN\ProjSrc\SrcChartEx\ChartAddIn\ChartAnalysisToolAddIn\AnalysisTool\ElementTreeBuilder.cpp
; File C:\Program Files (x86)\Microsoft Visual Studio\2019\Community\VC\Tools\MSVC\14.29.30133\atlmfc\include\atlsimpstr.h
; File D:\git\src\IBK\IBK_DRFN\ProjSrc\SrcChartEx\ChartAddIn\ChartAnalysisToolAddIn\AnalysisTool\ElementTreeBuilder.cpp
; File C:\Program Files (x86)\Microsoft Visual Studio\2019\Community\VC\Tools\MSVC\14.29.30133\atlmfc\include\atlsimpstr.h
; File D:\git\src\IBK\IBK_DRFN\ProjSrc\SrcChartEx\ChartAddIn\ChartAnalysisToolAddIn\AnalysisTool\ElementTreeBuilder.cpp
;	COMDAT ?BuildElementsFromString_Row@CElementTreeBuilder@@AAEXAAVCAnalysisData@@ABVCBlockIndex@@ABV?$CStringT@DV?$StrTraitMFC_DLL@DV?$ChTraitsCRT@D@ATL@@@@@ATL@@AAVCTree@@AAVCElementAndOrderSet@@@Z
_TEXT	SEGMENT
_this$1$ = -32						; size = 4
$T2 = -28						; size = 4
$T3 = -24						; size = 4
$T4 = -20						; size = 4
$T5 = -20						; size = 4
_elementsData$ = -16					; size = 4
__$EHRec$ = -12						; size = 12
_analysisData$ = 8					; size = 4
_blockIndex$ = 12					; size = 4
_strNewData$6 = 16					; size = 4
$T7 = 16						; size = 4
_strRowData$ = 16					; size = 4
_elementTree$ = 20					; size = 4
_elementData$8 = 24					; size = 4
_elementAndOrderSet$ = 24				; size = 4
?BuildElementsFromString_Row@CElementTreeBuilder@@AAEXAAVCAnalysisData@@ABVCBlockIndex@@ABV?$CStringT@DV?$StrTraitMFC_DLL@DV?$ChTraitsCRT@D@ATL@@@@@ATL@@AAVCTree@@AAVCElementAndOrderSet@@@Z PROC ; CElementTreeBuilder::BuildElementsFromString_Row, COMDAT
; _this$ = ecx

; 245  : {

  00000	55		 push	 ebp
  00001	8b ec		 mov	 ebp, esp
  00003	6a ff		 push	 -1
  00005	68 00 00 00 00	 push	 __ehhandler$?BuildElementsFromString_Row@CElementTreeBuilder@@AAEXAAVCAnalysisData@@ABVCBlockIndex@@ABV?$CStringT@DV?$StrTraitMFC_DLL@DV?$ChTraitsCRT@D@ATL@@@@@ATL@@AAVCTree@@AAVCElementAndOrderSet@@@Z
  0000a	64 a1 00 00 00
	00		 mov	 eax, DWORD PTR fs:0
  00010	50		 push	 eax
  00011	83 ec 14	 sub	 esp, 20			; 00000014H
  00014	53		 push	 ebx
  00015	56		 push	 esi
  00016	57		 push	 edi
  00017	a1 00 00 00 00	 mov	 eax, DWORD PTR ___security_cookie
  0001c	33 c5		 xor	 eax, ebp
  0001e	50		 push	 eax
  0001f	8d 45 f4	 lea	 eax, DWORD PTR __$EHRec$[ebp]
  00022	64 a3 00 00 00
	00		 mov	 DWORD PTR fs:0, eax
  00028	89 4d e0	 mov	 DWORD PTR _this$1$[ebp], ecx

; 246  : 	int nTotalCount = CDataConversion::GetStringDataCount(strRowData, "<Element>\r\n");

  0002b	68 00 00 00 00	 push	 OFFSET ??_C@_0M@KBDGNNOL@?$DMElement?$DO?$AN?6@
  00030	8d 4d ec	 lea	 ecx, DWORD PTR $T5[ebp]
  00033	ff 15 00 00 00
	00		 call	 DWORD PTR __imp_??0?$CStringT@DV?$StrTraitMFC_DLL@DV?$ChTraitsCRT@D@ATL@@@@@ATL@@QAE@PBD@Z
  00039	8b 75 10	 mov	 esi, DWORD PTR _strRowData$[ebp]
  0003c	8d 45 ec	 lea	 eax, DWORD PTR $T5[ebp]
  0003f	50		 push	 eax
  00040	56		 push	 esi
  00041	c7 45 fc 00 00
	00 00		 mov	 DWORD PTR __$EHRec$[ebp+8], 0
  00048	e8 00 00 00 00	 call	 ?GetStringDataCount@CDataConversion@@SAHABV?$CStringT@DV?$StrTraitMFC_DLL@DV?$ChTraitsCRT@D@ATL@@@@@ATL@@0@Z ; CDataConversion::GetStringDataCount
  0004d	83 c4 08	 add	 esp, 8
  00050	c7 45 fc ff ff
	ff ff		 mov	 DWORD PTR __$EHRec$[ebp+8], -1
  00057	8d 4d ec	 lea	 ecx, DWORD PTR $T5[ebp]
  0005a	8b f8		 mov	 edi, eax
  0005c	ff 15 00 00 00
	00		 call	 DWORD PTR __imp_??1?$CStringT@DV?$StrTraitMFC_DLL@DV?$ChTraitsCRT@D@ATL@@@@@ATL@@QAE@XZ

; 247  : 	CString elementsData = GetData(strRowData, "<Row>\r\n", "<\\Row>\r\n");

  00062	68 00 00 00 00	 push	 OFFSET ??_C@_08DHKDLDJL@?$DM?2Row?$DO?$AN?6@
  00067	8d 4d e8	 lea	 ecx, DWORD PTR $T3[ebp]
  0006a	ff 15 00 00 00
	00		 call	 DWORD PTR __imp_??0?$CStringT@DV?$StrTraitMFC_DLL@DV?$ChTraitsCRT@D@ATL@@@@@ATL@@QAE@PBD@Z
  00070	68 00 00 00 00	 push	 OFFSET ??_C@_07KMGGOLCB@?$DMRow?$DO?$AN?6@
  00075	8d 4d ec	 lea	 ecx, DWORD PTR $T4[ebp]
  00078	c7 45 fc 01 00
	00 00		 mov	 DWORD PTR __$EHRec$[ebp+8], 1
  0007f	ff 15 00 00 00
	00		 call	 DWORD PTR __imp_??0?$CStringT@DV?$StrTraitMFC_DLL@DV?$ChTraitsCRT@D@ATL@@@@@ATL@@QAE@PBD@Z

; 384  : 	CString strNewData = strOrgData;

  00085	56		 push	 esi
  00086	8d 4d 10	 lea	 ecx, DWORD PTR _strNewData$6[ebp]

; 247  : 	CString elementsData = GetData(strRowData, "<Row>\r\n", "<\\Row>\r\n");

  00089	c6 45 fc 02	 mov	 BYTE PTR __$EHRec$[ebp+8], 2

; 384  : 	CString strNewData = strOrgData;

  0008d	ff 15 00 00 00
	00		 call	 DWORD PTR __imp_??0?$CStringT@DV?$StrTraitMFC_DLL@DV?$ChTraitsCRT@D@ATL@@@@@ATL@@QAE@ABV01@@Z

; 385  : 	CDataConversion::GetStringData(strNewData, strTrimStart);

  00093	6a 01		 push	 1
  00095	8d 45 ec	 lea	 eax, DWORD PTR $T4[ebp]
  00098	c6 45 fc 03	 mov	 BYTE PTR __$EHRec$[ebp+8], 3
  0009c	50		 push	 eax
  0009d	8d 45 10	 lea	 eax, DWORD PTR _strNewData$6[ebp]
  000a0	50		 push	 eax
  000a1	8d 45 e4	 lea	 eax, DWORD PTR $T2[ebp]
  000a4	50		 push	 eax
  000a5	e8 00 00 00 00	 call	 ?GetStringData@CDataConversion@@SA?AV?$CStringT@DV?$StrTraitMFC_DLL@DV?$ChTraitsCRT@D@ATL@@@@@ATL@@AAV23@ABV23@_N@Z ; CDataConversion::GetStringData
  000aa	83 c4 10	 add	 esp, 16			; 00000010H
  000ad	8d 4d e4	 lea	 ecx, DWORD PTR $T2[ebp]
  000b0	ff 15 00 00 00
	00		 call	 DWORD PTR __imp_??1?$CStringT@DV?$StrTraitMFC_DLL@DV?$ChTraitsCRT@D@ATL@@@@@ATL@@QAE@XZ

; 386  : 	return CDataConversion::GetStringData(strNewData, strTrimEnd);

  000b6	6a 01		 push	 1
  000b8	8d 45 e8	 lea	 eax, DWORD PTR $T3[ebp]
  000bb	50		 push	 eax
  000bc	8d 45 10	 lea	 eax, DWORD PTR _strNewData$6[ebp]
  000bf	50		 push	 eax
  000c0	8d 45 f0	 lea	 eax, DWORD PTR _elementsData$[ebp]
  000c3	50		 push	 eax
  000c4	e8 00 00 00 00	 call	 ?GetStringData@CDataConversion@@SA?AV?$CStringT@DV?$StrTraitMFC_DLL@DV?$ChTraitsCRT@D@ATL@@@@@ATL@@AAV23@ABV23@_N@Z ; CDataConversion::GetStringData
  000c9	83 c4 10	 add	 esp, 16			; 00000010H
  000cc	8d 4d 10	 lea	 ecx, DWORD PTR _strNewData$6[ebp]
  000cf	ff 15 00 00 00
	00		 call	 DWORD PTR __imp_??1?$CStringT@DV?$StrTraitMFC_DLL@DV?$ChTraitsCRT@D@ATL@@@@@ATL@@QAE@XZ

; 247  : 	CString elementsData = GetData(strRowData, "<Row>\r\n", "<\\Row>\r\n");

  000d5	8d 4d ec	 lea	 ecx, DWORD PTR $T4[ebp]
  000d8	ff 15 00 00 00
	00		 call	 DWORD PTR __imp_??1?$CStringT@DV?$StrTraitMFC_DLL@DV?$ChTraitsCRT@D@ATL@@@@@ATL@@QAE@XZ
  000de	8d 4d e8	 lea	 ecx, DWORD PTR $T3[ebp]
  000e1	c6 45 fc 06	 mov	 BYTE PTR __$EHRec$[ebp+8], 6
  000e5	ff 15 00 00 00
	00		 call	 DWORD PTR __imp_??1?$CStringT@DV?$StrTraitMFC_DLL@DV?$ChTraitsCRT@D@ATL@@@@@ATL@@QAE@XZ

; 248  : 	for(int nIndex = 0; nIndex < nTotalCount; nIndex++)

  000eb	85 ff		 test	 edi, edi
  000ed	0f 8e 80 00 00
	00		 jle	 $LN3@BuildEleme

; 246  : 	int nTotalCount = CDataConversion::GetStringDataCount(strRowData, "<Element>\r\n");

  000f3	8b 75 18	 mov	 esi, DWORD PTR _elementAndOrderSet$[ebp]
  000f6	8b 5d 14	 mov	 ebx, DWORD PTR _elementTree$[ebp]
  000f9	0f 1f 80 00 00
	00 00		 npad	 7
$LL4@BuildEleme:

; 250  : 		CString elementData = GetTrimData(elementsData, "<\\Element>\r\n");

  00100	68 00 00 00 00	 push	 OFFSET ??_C@_0N@GAAGGFNK@?$DM?2Element?$DO?$AN?6@
  00105	8d 4d 10	 lea	 ecx, DWORD PTR $T7[ebp]
  00108	ff 15 00 00 00
	00		 call	 DWORD PTR __imp_??0?$CStringT@DV?$StrTraitMFC_DLL@DV?$ChTraitsCRT@D@ATL@@@@@ATL@@QAE@PBD@Z
; File C:\Program Files (x86)\Microsoft Visual Studio\2019\Community\VC\Tools\MSVC\14.29.30133\atlmfc\include\atlsimpstr.h

; 519  : 		return( GetData()->nDataLength );

  0010e	8b 45 10	 mov	 eax, DWORD PTR $T7[ebp]
; File D:\git\src\IBK\IBK_DRFN\ProjSrc\SrcChartEx\ChartAddIn\ChartAnalysisToolAddIn\AnalysisTool\ElementTreeBuilder.cpp

; 250  : 		CString elementData = GetTrimData(elementsData, "<\\Element>\r\n");

  00111	c6 45 fc 07	 mov	 BYTE PTR __$EHRec$[ebp+8], 7
; File C:\Program Files (x86)\Microsoft Visual Studio\2019\Community\VC\Tools\MSVC\14.29.30133\atlmfc\include\atlsimpstr.h

; 533  : 		return( GetLength() == 0 );

  00115	83 78 f4 00	 cmp	 DWORD PTR [eax-12], 0
; File D:\git\src\IBK\IBK_DRFN\ProjSrc\SrcChartEx\ChartAddIn\ChartAnalysisToolAddIn\AnalysisTool\ElementTreeBuilder.cpp

; 810  : 	if(strTrimData.IsEmpty())

  00119	75 0f		 jne	 SHORT $LN19@BuildEleme

; 811  : 		return strData;

  0011b	8d 45 f0	 lea	 eax, DWORD PTR _elementsData$[ebp]
  0011e	50		 push	 eax
  0011f	8d 4d 18	 lea	 ecx, DWORD PTR _elementData$8[ebp]
  00122	ff 15 00 00 00
	00		 call	 DWORD PTR __imp_??0?$CStringT@DV?$StrTraitMFC_DLL@DV?$ChTraitsCRT@D@ATL@@@@@ATL@@QAE@ABV01@@Z
  00128	eb 16		 jmp	 SHORT $LN18@BuildEleme
$LN19@BuildEleme:

; 812  : 
; 813  : 	return CDataConversion::GetStringData(strData, strTrimData, false);

  0012a	6a 00		 push	 0
  0012c	8d 45 10	 lea	 eax, DWORD PTR $T7[ebp]
  0012f	50		 push	 eax
  00130	8d 45 f0	 lea	 eax, DWORD PTR _elementsData$[ebp]
  00133	50		 push	 eax
  00134	8d 45 18	 lea	 eax, DWORD PTR _elementData$8[ebp]
  00137	50		 push	 eax
  00138	e8 00 00 00 00	 call	 ?GetStringData@CDataConversion@@SA?AV?$CStringT@DV?$StrTraitMFC_DLL@DV?$ChTraitsCRT@D@ATL@@@@@ATL@@AAV23@ABV23@_N@Z ; CDataConversion::GetStringData
  0013d	83 c4 10	 add	 esp, 16			; 00000010H
$LN18@BuildEleme:

; 250  : 		CString elementData = GetTrimData(elementsData, "<\\Element>\r\n");

  00140	8d 4d 10	 lea	 ecx, DWORD PTR $T7[ebp]
  00143	c6 45 fc 09	 mov	 BYTE PTR __$EHRec$[ebp+8], 9
  00147	ff 15 00 00 00
	00		 call	 DWORD PTR __imp_??1?$CStringT@DV?$StrTraitMFC_DLL@DV?$ChTraitsCRT@D@ATL@@@@@ATL@@QAE@XZ

; 251  : 		BuildElementsFromString_Element(analysisData,blockIndex, elementData, elementTree, elementAndOrderSet);

  0014d	8b 4d e0	 mov	 ecx, DWORD PTR _this$1$[ebp]
  00150	8d 45 18	 lea	 eax, DWORD PTR _elementData$8[ebp]
  00153	56		 push	 esi
  00154	53		 push	 ebx
  00155	50		 push	 eax
  00156	ff 75 0c	 push	 DWORD PTR _blockIndex$[ebp]
  00159	ff 75 08	 push	 DWORD PTR _analysisData$[ebp]
  0015c	e8 00 00 00 00	 call	 ?BuildElementsFromString_Element@CElementTreeBuilder@@AAEXAAVCAnalysisData@@ABVCBlockIndex@@ABV?$CStringT@DV?$StrTraitMFC_DLL@DV?$ChTraitsCRT@D@ATL@@@@@ATL@@AAVCTree@@AAVCElementAndOrderSet@@@Z ; CElementTreeBuilder::BuildElementsFromString_Element

; 252  : 	}

  00161	8d 4d 18	 lea	 ecx, DWORD PTR _elementData$8[ebp]
  00164	c6 45 fc 06	 mov	 BYTE PTR __$EHRec$[ebp+8], 6
  00168	ff 15 00 00 00
	00		 call	 DWORD PTR __imp_??1?$CStringT@DV?$StrTraitMFC_DLL@DV?$ChTraitsCRT@D@ATL@@@@@ATL@@QAE@XZ
  0016e	83 ef 01	 sub	 edi, 1
  00171	75 8d		 jne	 SHORT $LL4@BuildEleme
$LN3@BuildEleme:

; 253  : }

  00173	8d 4d f0	 lea	 ecx, DWORD PTR _elementsData$[ebp]
  00176	ff 15 00 00 00
	00		 call	 DWORD PTR __imp_??1?$CStringT@DV?$StrTraitMFC_DLL@DV?$ChTraitsCRT@D@ATL@@@@@ATL@@QAE@XZ
  0017c	8b 4d f4	 mov	 ecx, DWORD PTR __$EHRec$[ebp]
  0017f	64 89 0d 00 00
	00 00		 mov	 DWORD PTR fs:0, ecx
  00186	59		 pop	 ecx
  00187	5f		 pop	 edi
  00188	5e		 pop	 esi
  00189	5b		 pop	 ebx
  0018a	8b e5		 mov	 esp, ebp
  0018c	5d		 pop	 ebp
  0018d	c2 14 00	 ret	 20			; 00000014H
_TEXT	ENDS
;	COMDAT text$x
text$x	SEGMENT
__unwindfunclet$?BuildElementsFromString_Row@CElementTreeBuilder@@AAEXAAVCAnalysisData@@ABVCBlockIndex@@ABV?$CStringT@DV?$StrTraitMFC_DLL@DV?$ChTraitsCRT@D@ATL@@@@@ATL@@AAVCTree@@AAVCElementAndOrderSet@@@Z$0:
  00000	8d 4d ec	 lea	 ecx, DWORD PTR $T5[ebp]
  00003	ff 25 00 00 00
	00		 jmp	 DWORD PTR __imp_??1?$CStringT@DV?$StrTraitMFC_DLL@DV?$ChTraitsCRT@D@ATL@@@@@ATL@@QAE@XZ
__unwindfunclet$?BuildElementsFromString_Row@CElementTreeBuilder@@AAEXAAVCAnalysisData@@ABVCBlockIndex@@ABV?$CStringT@DV?$StrTraitMFC_DLL@DV?$ChTraitsCRT@D@ATL@@@@@ATL@@AAVCTree@@AAVCElementAndOrderSet@@@Z$1:
  00009	8d 4d e8	 lea	 ecx, DWORD PTR $T3[ebp]
  0000c	ff 25 00 00 00
	00		 jmp	 DWORD PTR __imp_??1?$CStringT@DV?$StrTraitMFC_DLL@DV?$ChTraitsCRT@D@ATL@@@@@ATL@@QAE@XZ
__unwindfunclet$?BuildElementsFromString_Row@CElementTreeBuilder@@AAEXAAVCAnalysisData@@ABVCBlockIndex@@ABV?$CStringT@DV?$StrTraitMFC_DLL@DV?$ChTraitsCRT@D@ATL@@@@@ATL@@AAVCTree@@AAVCElementAndOrderSet@@@Z$2:
  00012	8d 4d ec	 lea	 ecx, DWORD PTR $T4[ebp]
  00015	ff 25 00 00 00
	00		 jmp	 DWORD PTR __imp_??1?$CStringT@DV?$StrTraitMFC_DLL@DV?$ChTraitsCRT@D@ATL@@@@@ATL@@QAE@XZ
__unwindfunclet$?BuildElementsFromString_Row@CElementTreeBuilder@@AAEXAAVCAnalysisData@@ABVCBlockIndex@@ABV?$CStringT@DV?$StrTraitMFC_DLL@DV?$ChTraitsCRT@D@ATL@@@@@ATL@@AAVCTree@@AAVCElementAndOrderSet@@@Z$6:
  0001b	8d 4d 10	 lea	 ecx, DWORD PTR _strNewData$6[ebp]
  0001e	ff 25 00 00 00
	00		 jmp	 DWORD PTR __imp_??1?$CStringT@DV?$StrTraitMFC_DLL@DV?$ChTraitsCRT@D@ATL@@@@@ATL@@QAE@XZ
__unwindfunclet$?BuildElementsFromString_Row@CElementTreeBuilder@@AAEXAAVCAnalysisData@@ABVCBlockIndex@@ABV?$CStringT@DV?$StrTraitMFC_DLL@DV?$ChTraitsCRT@D@ATL@@@@@ATL@@AAVCTree@@AAVCElementAndOrderSet@@@Z$3:
  00024	8d 4d f0	 lea	 ecx, DWORD PTR _elementsData$[ebp]
  00027	ff 25 00 00 00
	00		 jmp	 DWORD PTR __imp_??1?$CStringT@DV?$StrTraitMFC_DLL@DV?$ChTraitsCRT@D@ATL@@@@@ATL@@QAE@XZ
__unwindfunclet$?BuildElementsFromString_Row@CElementTreeBuilder@@AAEXAAVCAnalysisData@@ABVCBlockIndex@@ABV?$CStringT@DV?$StrTraitMFC_DLL@DV?$ChTraitsCRT@D@ATL@@@@@ATL@@AAVCTree@@AAVCElementAndOrderSet@@@Z$4:
  0002d	8d 4d 10	 lea	 ecx, DWORD PTR $T7[ebp]
  00030	ff 25 00 00 00
	00		 jmp	 DWORD PTR __imp_??1?$CStringT@DV?$StrTraitMFC_DLL@DV?$ChTraitsCRT@D@ATL@@@@@ATL@@QAE@XZ
__unwindfunclet$?BuildElementsFromString_Row@CElementTreeBuilder@@AAEXAAVCAnalysisData@@ABVCBlockIndex@@ABV?$CStringT@DV?$StrTraitMFC_DLL@DV?$ChTraitsCRT@D@ATL@@@@@ATL@@AAVCTree@@AAVCElementAndOrderSet@@@Z$5:
  00036	8d 4d 18	 lea	 ecx, DWORD PTR _elementData$8[ebp]
  00039	ff 25 00 00 00
	00		 jmp	 DWORD PTR __imp_??1?$CStringT@DV?$StrTraitMFC_DLL@DV?$ChTraitsCRT@D@ATL@@@@@ATL@@QAE@XZ
  0003f	cc		 int	 3
  00040	cc		 int	 3
  00041	cc		 int	 3
  00042	cc		 int	 3
  00043	cc		 int	 3
__ehhandler$?BuildElementsFromString_Row@CElementTreeBuilder@@AAEXAAVCAnalysisData@@ABVCBlockIndex@@ABV?$CStringT@DV?$StrTraitMFC_DLL@DV?$ChTraitsCRT@D@ATL@@@@@ATL@@AAVCTree@@AAVCElementAndOrderSet@@@Z:
  00044	90		 npad	 1
  00045	90		 npad	 1
  00046	8b 54 24 08	 mov	 edx, DWORD PTR [esp+8]
  0004a	8d 42 0c	 lea	 eax, DWORD PTR [edx+12]
  0004d	8b 4a dc	 mov	 ecx, DWORD PTR [edx-36]
  00050	33 c8		 xor	 ecx, eax
  00052	e8 00 00 00 00	 call	 @__security_check_cookie@4
  00057	b8 00 00 00 00	 mov	 eax, OFFSET __ehfuncinfo$?BuildElementsFromString_Row@CElementTreeBuilder@@AAEXAAVCAnalysisData@@ABVCBlockIndex@@ABV?$CStringT@DV?$StrTraitMFC_DLL@DV?$ChTraitsCRT@D@ATL@@@@@ATL@@AAVCTree@@AAVCElementAndOrderSet@@@Z
  0005c	e9 00 00 00 00	 jmp	 ___CxxFrameHandler3
text$x	ENDS
?BuildElementsFromString_Row@CElementTreeBuilder@@AAEXAAVCAnalysisData@@ABVCBlockIndex@@ABV?$CStringT@DV?$StrTraitMFC_DLL@DV?$ChTraitsCRT@D@ATL@@@@@ATL@@AAVCTree@@AAVCElementAndOrderSet@@@Z ENDP ; CElementTreeBuilder::BuildElementsFromString_Row
; Function compile flags: /Ogtp
; File D:\git\src\IBK\IBK_DRFN\ProjSrc\SrcChartEx\ChartAddIn\ChartAnalysisToolAddIn\AnalysisTool\ElementTreeBuilder.cpp
; File C:\Program Files (x86)\Microsoft Visual Studio\2019\Community\VC\Tools\MSVC\14.29.30133\atlmfc\include\atlsimpstr.h
; File D:\git\src\IBK\IBK_DRFN\ProjSrc\SrcChartEx\ChartAddIn\ChartAnalysisToolAddIn\AnalysisTool\ElementTreeBuilder.cpp
; File C:\Program Files (x86)\Microsoft Visual Studio\2019\Community\VC\Tools\MSVC\14.29.30133\atlmfc\include\atlsimpstr.h
; File D:\git\src\IBK\IBK_DRFN\ProjSrc\SrcChartEx\ChartAddIn\ChartAnalysisToolAddIn\AnalysisTool\ElementTreeBuilder.cpp
; File D:\git\src\IBK\IBK_DRFN\ProjSrc\SrcChartEx\ChartAddIn\ChartAnalysisToolAddIn\Include_Chart\BlockBaseData.h
; File D:\git\src\IBK\IBK_DRFN\ProjSrc\SrcChartEx\ChartAddIn\ChartAnalysisToolAddIn\AnalysisTool\ElementTreeBuilder.cpp
; File D:\git\src\IBK\IBK_DRFN\ProjSrc\SrcChartEx\ChartAddIn\ChartAnalysisToolAddIn\Include_Chart\BlockBaseData.h
; File D:\git\src\IBK\IBK_DRFN\ProjSrc\SrcChartEx\ChartAddIn\ChartAnalysisToolAddIn\AnalysisTool\ElementTreeBuilder.cpp
; File C:\Program Files (x86)\Microsoft Visual Studio\2019\Community\VC\Tools\MSVC\14.29.30133\atlmfc\include\atlsimpstr.h
; File D:\git\src\IBK\IBK_DRFN\ProjSrc\SrcChartEx\ChartAddIn\ChartAnalysisToolAddIn\AnalysisTool\ElementTreeBuilder.cpp
; File C:\Program Files (x86)\Microsoft Visual Studio\2019\Community\VC\Tools\MSVC\14.29.30133\atlmfc\include\atlsimpstr.h
; File D:\git\src\IBK\IBK_DRFN\ProjSrc\SrcChartEx\ChartAddIn\ChartAnalysisToolAddIn\AnalysisTool\ElementTreeBuilder.cpp
;	COMDAT ?BuildElementsFromString_Column@CElementTreeBuilder@@AAEXAAVCAnalysisData@@HABV?$CStringT@DV?$StrTraitMFC_DLL@DV?$ChTraitsCRT@D@ATL@@@@@ATL@@AAVCTree@@AAVCElementAndOrderSet@@@Z
_TEXT	SEGMENT
$T2 = -72						; size = 8
_nTotalCount$1$ = -64					; size = 4
_this$1$ = -60						; size = 4
$T3 = -56						; size = 4
_nIndex$1$ = -52					; size = 4
$T4 = -52						; size = 4
$T5 = -48						; size = 4
$T6 = -44						; size = 4
$T7 = -40						; size = 4
$T8 = -36						; size = 4
$T9 = -32						; size = 4
$T10 = -32						; size = 4
_rowsData$ = -28					; size = 4
_elementsData$11 = -24					; size = 4
_elementData$12 = -20					; size = 4
$T13 = -16						; size = 4
__$EHRec$ = -12						; size = 12
_analysisData$ = 8					; size = 4
_nColumnIndex$ = 12					; size = 4
_strNewData$14 = 16					; size = 4
_rowData$15 = 16					; size = 4
_strColumnData$ = 16					; size = 4
_strNewData$16 = 20					; size = 4
_elementTree$ = 20					; size = 4
$T17 = 24						; size = 4
_elementAndOrderSet$ = 24				; size = 4
?BuildElementsFromString_Column@CElementTreeBuilder@@AAEXAAVCAnalysisData@@HABV?$CStringT@DV?$StrTraitMFC_DLL@DV?$ChTraitsCRT@D@ATL@@@@@ATL@@AAVCTree@@AAVCElementAndOrderSet@@@Z PROC ; CElementTreeBuilder::BuildElementsFromString_Column, COMDAT
; _this$ = ecx

; 233  : {

  00000	55		 push	 ebp
  00001	8b ec		 mov	 ebp, esp
  00003	6a ff		 push	 -1
  00005	68 00 00 00 00	 push	 __ehhandler$?BuildElementsFromString_Column@CElementTreeBuilder@@AAEXAAVCAnalysisData@@HABV?$CStringT@DV?$StrTraitMFC_DLL@DV?$ChTraitsCRT@D@ATL@@@@@ATL@@AAVCTree@@AAVCElementAndOrderSet@@@Z
  0000a	64 a1 00 00 00
	00		 mov	 eax, DWORD PTR fs:0
  00010	50		 push	 eax
  00011	83 ec 3c	 sub	 esp, 60			; 0000003cH
  00014	53		 push	 ebx
  00015	56		 push	 esi
  00016	57		 push	 edi
  00017	a1 00 00 00 00	 mov	 eax, DWORD PTR ___security_cookie
  0001c	33 c5		 xor	 eax, ebp
  0001e	50		 push	 eax
  0001f	8d 45 f4	 lea	 eax, DWORD PTR __$EHRec$[ebp]
  00022	64 a3 00 00 00
	00		 mov	 DWORD PTR fs:0, eax
  00028	89 4d c4	 mov	 DWORD PTR _this$1$[ebp], ecx

; 234  : 	int nTotalCount = CDataConversion::GetStringDataCount(strColumnData, "<Row>\r\n");

  0002b	68 00 00 00 00	 push	 OFFSET ??_C@_07KMGGOLCB@?$DMRow?$DO?$AN?6@
  00030	8d 4d e0	 lea	 ecx, DWORD PTR $T10[ebp]
  00033	ff 15 00 00 00
	00		 call	 DWORD PTR __imp_??0?$CStringT@DV?$StrTraitMFC_DLL@DV?$ChTraitsCRT@D@ATL@@@@@ATL@@QAE@PBD@Z
  00039	8b 75 10	 mov	 esi, DWORD PTR _strColumnData$[ebp]
  0003c	8d 45 e0	 lea	 eax, DWORD PTR $T10[ebp]
  0003f	50		 push	 eax
  00040	56		 push	 esi
  00041	c7 45 fc 00 00
	00 00		 mov	 DWORD PTR __$EHRec$[ebp+8], 0
  00048	e8 00 00 00 00	 call	 ?GetStringDataCount@CDataConversion@@SAHABV?$CStringT@DV?$StrTraitMFC_DLL@DV?$ChTraitsCRT@D@ATL@@@@@ATL@@0@Z ; CDataConversion::GetStringDataCount
  0004d	83 c4 08	 add	 esp, 8
  00050	c7 45 fc ff ff
	ff ff		 mov	 DWORD PTR __$EHRec$[ebp+8], -1
  00057	8b d8		 mov	 ebx, eax
  00059	8d 4d e0	 lea	 ecx, DWORD PTR $T10[ebp]
  0005c	89 5d c0	 mov	 DWORD PTR _nTotalCount$1$[ebp], ebx
  0005f	ff 15 00 00 00
	00		 call	 DWORD PTR __imp_??1?$CStringT@DV?$StrTraitMFC_DLL@DV?$ChTraitsCRT@D@ATL@@@@@ATL@@QAE@XZ

; 235  : 	CString rowsData = GetData(strColumnData, "<Column>\r\n", "<\\Column>\r\n");

  00065	68 00 00 00 00	 push	 OFFSET ??_C@_0M@FIEFJELL@?$DM?2Column?$DO?$AN?6@
  0006a	8d 4d dc	 lea	 ecx, DWORD PTR $T8[ebp]
  0006d	ff 15 00 00 00
	00		 call	 DWORD PTR __imp_??0?$CStringT@DV?$StrTraitMFC_DLL@DV?$ChTraitsCRT@D@ATL@@@@@ATL@@QAE@PBD@Z
  00073	68 00 00 00 00	 push	 OFFSET ??_C@_0L@JOAAOIF@?$DMColumn?$DO?$AN?6@
  00078	8d 4d e0	 lea	 ecx, DWORD PTR $T9[ebp]
  0007b	c7 45 fc 01 00
	00 00		 mov	 DWORD PTR __$EHRec$[ebp+8], 1
  00082	ff 15 00 00 00
	00		 call	 DWORD PTR __imp_??0?$CStringT@DV?$StrTraitMFC_DLL@DV?$ChTraitsCRT@D@ATL@@@@@ATL@@QAE@PBD@Z

; 384  : 	CString strNewData = strOrgData;

  00088	56		 push	 esi
  00089	8d 4d 10	 lea	 ecx, DWORD PTR _strNewData$14[ebp]

; 235  : 	CString rowsData = GetData(strColumnData, "<Column>\r\n", "<\\Column>\r\n");

  0008c	c6 45 fc 02	 mov	 BYTE PTR __$EHRec$[ebp+8], 2

; 384  : 	CString strNewData = strOrgData;

  00090	ff 15 00 00 00
	00		 call	 DWORD PTR __imp_??0?$CStringT@DV?$StrTraitMFC_DLL@DV?$ChTraitsCRT@D@ATL@@@@@ATL@@QAE@ABV01@@Z

; 385  : 	CDataConversion::GetStringData(strNewData, strTrimStart);

  00096	6a 01		 push	 1
  00098	8d 45 e0	 lea	 eax, DWORD PTR $T9[ebp]
  0009b	c6 45 fc 03	 mov	 BYTE PTR __$EHRec$[ebp+8], 3
  0009f	50		 push	 eax
  000a0	8d 45 10	 lea	 eax, DWORD PTR _strNewData$14[ebp]
  000a3	50		 push	 eax
  000a4	8d 45 cc	 lea	 eax, DWORD PTR $T4[ebp]
  000a7	50		 push	 eax
  000a8	e8 00 00 00 00	 call	 ?GetStringData@CDataConversion@@SA?AV?$CStringT@DV?$StrTraitMFC_DLL@DV?$ChTraitsCRT@D@ATL@@@@@ATL@@AAV23@ABV23@_N@Z ; CDataConversion::GetStringData
  000ad	83 c4 10	 add	 esp, 16			; 00000010H
  000b0	8d 4d cc	 lea	 ecx, DWORD PTR $T4[ebp]
  000b3	ff 15 00 00 00
	00		 call	 DWORD PTR __imp_??1?$CStringT@DV?$StrTraitMFC_DLL@DV?$ChTraitsCRT@D@ATL@@@@@ATL@@QAE@XZ

; 386  : 	return CDataConversion::GetStringData(strNewData, strTrimEnd);

  000b9	6a 01		 push	 1
  000bb	8d 45 dc	 lea	 eax, DWORD PTR $T8[ebp]
  000be	50		 push	 eax
  000bf	8d 45 10	 lea	 eax, DWORD PTR _strNewData$14[ebp]
  000c2	50		 push	 eax
  000c3	8d 45 e4	 lea	 eax, DWORD PTR _rowsData$[ebp]
  000c6	50		 push	 eax
  000c7	e8 00 00 00 00	 call	 ?GetStringData@CDataConversion@@SA?AV?$CStringT@DV?$StrTraitMFC_DLL@DV?$ChTraitsCRT@D@ATL@@@@@ATL@@AAV23@ABV23@_N@Z ; CDataConversion::GetStringData
  000cc	83 c4 10	 add	 esp, 16			; 00000010H
  000cf	8d 4d 10	 lea	 ecx, DWORD PTR _strNewData$14[ebp]
  000d2	ff 15 00 00 00
	00		 call	 DWORD PTR __imp_??1?$CStringT@DV?$StrTraitMFC_DLL@DV?$ChTraitsCRT@D@ATL@@@@@ATL@@QAE@XZ

; 235  : 	CString rowsData = GetData(strColumnData, "<Column>\r\n", "<\\Column>\r\n");

  000d8	8d 4d e0	 lea	 ecx, DWORD PTR $T9[ebp]
  000db	ff 15 00 00 00
	00		 call	 DWORD PTR __imp_??1?$CStringT@DV?$StrTraitMFC_DLL@DV?$ChTraitsCRT@D@ATL@@@@@ATL@@QAE@XZ
  000e1	8d 4d dc	 lea	 ecx, DWORD PTR $T8[ebp]
  000e4	c6 45 fc 06	 mov	 BYTE PTR __$EHRec$[ebp+8], 6
  000e8	ff 15 00 00 00
	00		 call	 DWORD PTR __imp_??1?$CStringT@DV?$StrTraitMFC_DLL@DV?$ChTraitsCRT@D@ATL@@@@@ATL@@QAE@XZ

; 236  : 	for(int nIndex = 0; nIndex < nTotalCount; nIndex++)

  000ee	33 f6		 xor	 esi, esi
  000f0	89 75 cc	 mov	 DWORD PTR _nIndex$1$[ebp], esi
  000f3	85 db		 test	 ebx, ebx
  000f5	0f 8e bf 01 00
	00		 jle	 $LN3@BuildEleme
  000fb	8b 7d 18	 mov	 edi, DWORD PTR _elementAndOrderSet$[ebp]
  000fe	8b 5d 14	 mov	 ebx, DWORD PTR _elementTree$[ebp]
$LL4@BuildEleme:

; 238  : 		CString rowData = GetTrimData(rowsData, "<\\Row>\r\n");

  00101	68 00 00 00 00	 push	 OFFSET ??_C@_08DHKDLDJL@?$DM?2Row?$DO?$AN?6@
  00106	8d 4d 18	 lea	 ecx, DWORD PTR $T17[ebp]
  00109	ff 15 00 00 00
	00		 call	 DWORD PTR __imp_??0?$CStringT@DV?$StrTraitMFC_DLL@DV?$ChTraitsCRT@D@ATL@@@@@ATL@@QAE@PBD@Z
; File C:\Program Files (x86)\Microsoft Visual Studio\2019\Community\VC\Tools\MSVC\14.29.30133\atlmfc\include\atlsimpstr.h

; 519  : 		return( GetData()->nDataLength );

  0010f	8b 45 18	 mov	 eax, DWORD PTR $T17[ebp]
; File D:\git\src\IBK\IBK_DRFN\ProjSrc\SrcChartEx\ChartAddIn\ChartAnalysisToolAddIn\AnalysisTool\ElementTreeBuilder.cpp

; 238  : 		CString rowData = GetTrimData(rowsData, "<\\Row>\r\n");

  00112	c6 45 fc 07	 mov	 BYTE PTR __$EHRec$[ebp+8], 7
; File C:\Program Files (x86)\Microsoft Visual Studio\2019\Community\VC\Tools\MSVC\14.29.30133\atlmfc\include\atlsimpstr.h

; 533  : 		return( GetLength() == 0 );

  00116	83 78 f4 00	 cmp	 DWORD PTR [eax-12], 0
; File D:\git\src\IBK\IBK_DRFN\ProjSrc\SrcChartEx\ChartAddIn\ChartAnalysisToolAddIn\AnalysisTool\ElementTreeBuilder.cpp

; 810  : 	if(strTrimData.IsEmpty())

  0011a	75 0f		 jne	 SHORT $LN19@BuildEleme

; 811  : 		return strData;

  0011c	8d 45 e4	 lea	 eax, DWORD PTR _rowsData$[ebp]
  0011f	50		 push	 eax
  00120	8d 4d 10	 lea	 ecx, DWORD PTR _rowData$15[ebp]
  00123	ff 15 00 00 00
	00		 call	 DWORD PTR __imp_??0?$CStringT@DV?$StrTraitMFC_DLL@DV?$ChTraitsCRT@D@ATL@@@@@ATL@@QAE@ABV01@@Z
  00129	eb 16		 jmp	 SHORT $LN18@BuildEleme
$LN19@BuildEleme:

; 812  : 
; 813  : 	return CDataConversion::GetStringData(strData, strTrimData, false);

  0012b	6a 00		 push	 0
  0012d	8d 45 18	 lea	 eax, DWORD PTR $T17[ebp]
  00130	50		 push	 eax
  00131	8d 45 e4	 lea	 eax, DWORD PTR _rowsData$[ebp]
  00134	50		 push	 eax
  00135	8d 45 10	 lea	 eax, DWORD PTR _rowData$15[ebp]
  00138	50		 push	 eax
  00139	e8 00 00 00 00	 call	 ?GetStringData@CDataConversion@@SA?AV?$CStringT@DV?$StrTraitMFC_DLL@DV?$ChTraitsCRT@D@ATL@@@@@ATL@@AAV23@ABV23@_N@Z ; CDataConversion::GetStringData
  0013e	83 c4 10	 add	 esp, 16			; 00000010H
$LN18@BuildEleme:

; 238  : 		CString rowData = GetTrimData(rowsData, "<\\Row>\r\n");

  00141	8d 4d 18	 lea	 ecx, DWORD PTR $T17[ebp]
  00144	c6 45 fc 09	 mov	 BYTE PTR __$EHRec$[ebp+8], 9
  00148	ff 15 00 00 00
	00		 call	 DWORD PTR __imp_??1?$CStringT@DV?$StrTraitMFC_DLL@DV?$ChTraitsCRT@D@ATL@@@@@ATL@@QAE@XZ
; File D:\git\src\IBK\IBK_DRFN\ProjSrc\SrcChartEx\ChartAddIn\ChartAnalysisToolAddIn\Include_Chart\BlockBaseData.h

; 20   : 	CBlockIndex(const int row, const int column) { m_nRow = row; m_nColumn = column; };

  0014e	8b 45 0c	 mov	 eax, DWORD PTR _nColumnIndex$[ebp]
; File D:\git\src\IBK\IBK_DRFN\ProjSrc\SrcChartEx\ChartAddIn\ChartAnalysisToolAddIn\AnalysisTool\ElementTreeBuilder.cpp

; 246  : 	int nTotalCount = CDataConversion::GetStringDataCount(strRowData, "<Element>\r\n");

  00151	8d 4d d8	 lea	 ecx, DWORD PTR $T7[ebp]
  00154	68 00 00 00 00	 push	 OFFSET ??_C@_0M@KBDGNNOL@?$DMElement?$DO?$AN?6@
; File D:\git\src\IBK\IBK_DRFN\ProjSrc\SrcChartEx\ChartAddIn\ChartAnalysisToolAddIn\Include_Chart\BlockBaseData.h

; 20   : 	CBlockIndex(const int row, const int column) { m_nRow = row; m_nColumn = column; };

  00159	89 75 b8	 mov	 DWORD PTR $T2[ebp], esi
  0015c	89 45 bc	 mov	 DWORD PTR $T2[ebp+4], eax
; File D:\git\src\IBK\IBK_DRFN\ProjSrc\SrcChartEx\ChartAddIn\ChartAnalysisToolAddIn\AnalysisTool\ElementTreeBuilder.cpp

; 246  : 	int nTotalCount = CDataConversion::GetStringDataCount(strRowData, "<Element>\r\n");

  0015f	ff 15 00 00 00
	00		 call	 DWORD PTR __imp_??0?$CStringT@DV?$StrTraitMFC_DLL@DV?$ChTraitsCRT@D@ATL@@@@@ATL@@QAE@PBD@Z
  00165	8d 45 d8	 lea	 eax, DWORD PTR $T7[ebp]
  00168	c6 45 fc 0a	 mov	 BYTE PTR __$EHRec$[ebp+8], 10 ; 0000000aH
  0016c	50		 push	 eax
  0016d	8d 45 10	 lea	 eax, DWORD PTR _rowData$15[ebp]
  00170	50		 push	 eax
  00171	e8 00 00 00 00	 call	 ?GetStringDataCount@CDataConversion@@SAHABV?$CStringT@DV?$StrTraitMFC_DLL@DV?$ChTraitsCRT@D@ATL@@@@@ATL@@0@Z ; CDataConversion::GetStringDataCount
  00176	83 c4 08	 add	 esp, 8
  00179	c6 45 fc 09	 mov	 BYTE PTR __$EHRec$[ebp+8], 9
  0017d	8d 4d d8	 lea	 ecx, DWORD PTR $T7[ebp]
  00180	8b f0		 mov	 esi, eax
  00182	ff 15 00 00 00
	00		 call	 DWORD PTR __imp_??1?$CStringT@DV?$StrTraitMFC_DLL@DV?$ChTraitsCRT@D@ATL@@@@@ATL@@QAE@XZ

; 247  : 	CString elementsData = GetData(strRowData, "<Row>\r\n", "<\\Row>\r\n");

  00188	68 00 00 00 00	 push	 OFFSET ??_C@_08DHKDLDJL@?$DM?2Row?$DO?$AN?6@
  0018d	8d 4d d0	 lea	 ecx, DWORD PTR $T5[ebp]
  00190	ff 15 00 00 00
	00		 call	 DWORD PTR __imp_??0?$CStringT@DV?$StrTraitMFC_DLL@DV?$ChTraitsCRT@D@ATL@@@@@ATL@@QAE@PBD@Z
  00196	68 00 00 00 00	 push	 OFFSET ??_C@_07KMGGOLCB@?$DMRow?$DO?$AN?6@
  0019b	8d 4d d4	 lea	 ecx, DWORD PTR $T6[ebp]
  0019e	c6 45 fc 0b	 mov	 BYTE PTR __$EHRec$[ebp+8], 11 ; 0000000bH
  001a2	ff 15 00 00 00
	00		 call	 DWORD PTR __imp_??0?$CStringT@DV?$StrTraitMFC_DLL@DV?$ChTraitsCRT@D@ATL@@@@@ATL@@QAE@PBD@Z

; 384  : 	CString strNewData = strOrgData;

  001a8	8d 45 10	 lea	 eax, DWORD PTR _rowData$15[ebp]

; 247  : 	CString elementsData = GetData(strRowData, "<Row>\r\n", "<\\Row>\r\n");

  001ab	c6 45 fc 0c	 mov	 BYTE PTR __$EHRec$[ebp+8], 12 ; 0000000cH

; 384  : 	CString strNewData = strOrgData;

  001af	50		 push	 eax
  001b0	8d 4d 14	 lea	 ecx, DWORD PTR _strNewData$16[ebp]
  001b3	ff 15 00 00 00
	00		 call	 DWORD PTR __imp_??0?$CStringT@DV?$StrTraitMFC_DLL@DV?$ChTraitsCRT@D@ATL@@@@@ATL@@QAE@ABV01@@Z

; 385  : 	CDataConversion::GetStringData(strNewData, strTrimStart);

  001b9	6a 01		 push	 1
  001bb	8d 45 d4	 lea	 eax, DWORD PTR $T6[ebp]
  001be	c6 45 fc 0d	 mov	 BYTE PTR __$EHRec$[ebp+8], 13 ; 0000000dH
  001c2	50		 push	 eax
  001c3	8d 45 14	 lea	 eax, DWORD PTR _strNewData$16[ebp]
  001c6	50		 push	 eax
  001c7	8d 45 c8	 lea	 eax, DWORD PTR $T3[ebp]
  001ca	50		 push	 eax
  001cb	e8 00 00 00 00	 call	 ?GetStringData@CDataConversion@@SA?AV?$CStringT@DV?$StrTraitMFC_DLL@DV?$ChTraitsCRT@D@ATL@@@@@ATL@@AAV23@ABV23@_N@Z ; CDataConversion::GetStringData
  001d0	83 c4 10	 add	 esp, 16			; 00000010H
  001d3	8d 4d c8	 lea	 ecx, DWORD PTR $T3[ebp]
  001d6	ff 15 00 00 00
	00		 call	 DWORD PTR __imp_??1?$CStringT@DV?$StrTraitMFC_DLL@DV?$ChTraitsCRT@D@ATL@@@@@ATL@@QAE@XZ

; 386  : 	return CDataConversion::GetStringData(strNewData, strTrimEnd);

  001dc	6a 01		 push	 1
  001de	8d 45 d0	 lea	 eax, DWORD PTR $T5[ebp]
  001e1	50		 push	 eax
  001e2	8d 45 14	 lea	 eax, DWORD PTR _strNewData$16[ebp]
  001e5	50		 push	 eax
  001e6	8d 45 e8	 lea	 eax, DWORD PTR _elementsData$11[ebp]
  001e9	50		 push	 eax
  001ea	e8 00 00 00 00	 call	 ?GetStringData@CDataConversion@@SA?AV?$CStringT@DV?$StrTraitMFC_DLL@DV?$ChTraitsCRT@D@ATL@@@@@ATL@@AAV23@ABV23@_N@Z ; CDataConversion::GetStringData
  001ef	83 c4 10	 add	 esp, 16			; 00000010H
  001f2	8d 4d 14	 lea	 ecx, DWORD PTR _strNewData$16[ebp]
  001f5	ff 15 00 00 00
	00		 call	 DWORD PTR __imp_??1?$CStringT@DV?$StrTraitMFC_DLL@DV?$ChTraitsCRT@D@ATL@@@@@ATL@@QAE@XZ

; 247  : 	CString elementsData = GetData(strRowData, "<Row>\r\n", "<\\Row>\r\n");

  001fb	8d 4d d4	 lea	 ecx, DWORD PTR $T6[ebp]
  001fe	ff 15 00 00 00
	00		 call	 DWORD PTR __imp_??1?$CStringT@DV?$StrTraitMFC_DLL@DV?$ChTraitsCRT@D@ATL@@@@@ATL@@QAE@XZ
  00204	8d 4d d0	 lea	 ecx, DWORD PTR $T5[ebp]
  00207	c6 45 fc 10	 mov	 BYTE PTR __$EHRec$[ebp+8], 16 ; 00000010H
  0020b	ff 15 00 00 00
	00		 call	 DWORD PTR __imp_??1?$CStringT@DV?$StrTraitMFC_DLL@DV?$ChTraitsCRT@D@ATL@@@@@ATL@@QAE@XZ

; 248  : 	for(int nIndex = 0; nIndex < nTotalCount; nIndex++)

  00211	85 f6		 test	 esi, esi
  00213	0f 8e 7b 00 00
	00		 jle	 $LN33@BuildEleme
  00219	0f 1f 80 00 00
	00 00		 npad	 7
$LL34@BuildEleme:

; 250  : 		CString elementData = GetTrimData(elementsData, "<\\Element>\r\n");

  00220	68 00 00 00 00	 push	 OFFSET ??_C@_0N@GAAGGFNK@?$DM?2Element?$DO?$AN?6@
  00225	8d 4d f0	 lea	 ecx, DWORD PTR $T13[ebp]
  00228	ff 15 00 00 00
	00		 call	 DWORD PTR __imp_??0?$CStringT@DV?$StrTraitMFC_DLL@DV?$ChTraitsCRT@D@ATL@@@@@ATL@@QAE@PBD@Z
; File C:\Program Files (x86)\Microsoft Visual Studio\2019\Community\VC\Tools\MSVC\14.29.30133\atlmfc\include\atlsimpstr.h

; 519  : 		return( GetData()->nDataLength );

  0022e	8b 45 f0	 mov	 eax, DWORD PTR $T13[ebp]
; File D:\git\src\IBK\IBK_DRFN\ProjSrc\SrcChartEx\ChartAddIn\ChartAnalysisToolAddIn\AnalysisTool\ElementTreeBuilder.cpp

; 250  : 		CString elementData = GetTrimData(elementsData, "<\\Element>\r\n");

  00231	c6 45 fc 11	 mov	 BYTE PTR __$EHRec$[ebp+8], 17 ; 00000011H
; File C:\Program Files (x86)\Microsoft Visual Studio\2019\Community\VC\Tools\MSVC\14.29.30133\atlmfc\include\atlsimpstr.h

; 533  : 		return( GetLength() == 0 );

  00235	83 78 f4 00	 cmp	 DWORD PTR [eax-12], 0
; File D:\git\src\IBK\IBK_DRFN\ProjSrc\SrcChartEx\ChartAddIn\ChartAnalysisToolAddIn\AnalysisTool\ElementTreeBuilder.cpp

; 810  : 	if(strTrimData.IsEmpty())

  00239	75 0f		 jne	 SHORT $LN49@BuildEleme

; 811  : 		return strData;

  0023b	8d 45 e8	 lea	 eax, DWORD PTR _elementsData$11[ebp]
  0023e	50		 push	 eax
  0023f	8d 4d ec	 lea	 ecx, DWORD PTR _elementData$12[ebp]
  00242	ff 15 00 00 00
	00		 call	 DWORD PTR __imp_??0?$CStringT@DV?$StrTraitMFC_DLL@DV?$ChTraitsCRT@D@ATL@@@@@ATL@@QAE@ABV01@@Z
  00248	eb 16		 jmp	 SHORT $LN48@BuildEleme
$LN49@BuildEleme:

; 812  : 
; 813  : 	return CDataConversion::GetStringData(strData, strTrimData, false);

  0024a	6a 00		 push	 0
  0024c	8d 45 f0	 lea	 eax, DWORD PTR $T13[ebp]
  0024f	50		 push	 eax
  00250	8d 45 e8	 lea	 eax, DWORD PTR _elementsData$11[ebp]
  00253	50		 push	 eax
  00254	8d 45 ec	 lea	 eax, DWORD PTR _elementData$12[ebp]
  00257	50		 push	 eax
  00258	e8 00 00 00 00	 call	 ?GetStringData@CDataConversion@@SA?AV?$CStringT@DV?$StrTraitMFC_DLL@DV?$ChTraitsCRT@D@ATL@@@@@ATL@@AAV23@ABV23@_N@Z ; CDataConversion::GetStringData
  0025d	83 c4 10	 add	 esp, 16			; 00000010H
$LN48@BuildEleme:

; 250  : 		CString elementData = GetTrimData(elementsData, "<\\Element>\r\n");

  00260	8d 4d f0	 lea	 ecx, DWORD PTR $T13[ebp]
  00263	c6 45 fc 13	 mov	 BYTE PTR __$EHRec$[ebp+8], 19 ; 00000013H
  00267	ff 15 00 00 00
	00		 call	 DWORD PTR __imp_??1?$CStringT@DV?$StrTraitMFC_DLL@DV?$ChTraitsCRT@D@ATL@@@@@ATL@@QAE@XZ

; 251  : 		BuildElementsFromString_Element(analysisData,blockIndex, elementData, elementTree, elementAndOrderSet);

  0026d	8b 4d c4	 mov	 ecx, DWORD PTR _this$1$[ebp]
  00270	8d 45 ec	 lea	 eax, DWORD PTR _elementData$12[ebp]
  00273	57		 push	 edi
  00274	53		 push	 ebx
  00275	50		 push	 eax
  00276	8d 45 b8	 lea	 eax, DWORD PTR $T2[ebp]
  00279	50		 push	 eax
  0027a	ff 75 08	 push	 DWORD PTR _analysisData$[ebp]
  0027d	e8 00 00 00 00	 call	 ?BuildElementsFromString_Element@CElementTreeBuilder@@AAEXAAVCAnalysisData@@ABVCBlockIndex@@ABV?$CStringT@DV?$StrTraitMFC_DLL@DV?$ChTraitsCRT@D@ATL@@@@@ATL@@AAVCTree@@AAVCElementAndOrderSet@@@Z ; CElementTreeBuilder::BuildElementsFromString_Element

; 252  : 	}

  00282	8d 4d ec	 lea	 ecx, DWORD PTR _elementData$12[ebp]
  00285	c6 45 fc 10	 mov	 BYTE PTR __$EHRec$[ebp+8], 16 ; 00000010H
  00289	ff 15 00 00 00
	00		 call	 DWORD PTR __imp_??1?$CStringT@DV?$StrTraitMFC_DLL@DV?$ChTraitsCRT@D@ATL@@@@@ATL@@QAE@XZ
  0028f	83 ee 01	 sub	 esi, 1
  00292	75 8c		 jne	 SHORT $LL34@BuildEleme
$LN33@BuildEleme:

; 253  : }

  00294	8d 4d e8	 lea	 ecx, DWORD PTR _elementsData$11[ebp]
  00297	ff 15 00 00 00
	00		 call	 DWORD PTR __imp_??1?$CStringT@DV?$StrTraitMFC_DLL@DV?$ChTraitsCRT@D@ATL@@@@@ATL@@QAE@XZ

; 239  : 		BuildElementsFromString_Row(analysisData,CBlockIndex(nIndex, nColumnIndex), rowData, elementTree, elementAndOrderSet);
; 240  : 	}

  0029d	8d 4d 10	 lea	 ecx, DWORD PTR _rowData$15[ebp]
  002a0	c6 45 fc 06	 mov	 BYTE PTR __$EHRec$[ebp+8], 6
  002a4	ff 15 00 00 00
	00		 call	 DWORD PTR __imp_??1?$CStringT@DV?$StrTraitMFC_DLL@DV?$ChTraitsCRT@D@ATL@@@@@ATL@@QAE@XZ
  002aa	8b 75 cc	 mov	 esi, DWORD PTR _nIndex$1$[ebp]
  002ad	46		 inc	 esi
  002ae	89 75 cc	 mov	 DWORD PTR _nIndex$1$[ebp], esi
  002b1	3b 75 c0	 cmp	 esi, DWORD PTR _nTotalCount$1$[ebp]
  002b4	0f 8c 47 fe ff
	ff		 jl	 $LL4@BuildEleme
$LN3@BuildEleme:

; 241  : }

  002ba	8d 4d e4	 lea	 ecx, DWORD PTR _rowsData$[ebp]
  002bd	ff 15 00 00 00
	00		 call	 DWORD PTR __imp_??1?$CStringT@DV?$StrTraitMFC_DLL@DV?$ChTraitsCRT@D@ATL@@@@@ATL@@QAE@XZ
  002c3	8b 4d f4	 mov	 ecx, DWORD PTR __$EHRec$[ebp]
  002c6	64 89 0d 00 00
	00 00		 mov	 DWORD PTR fs:0, ecx
  002cd	59		 pop	 ecx
  002ce	5f		 pop	 edi
  002cf	5e		 pop	 esi
  002d0	5b		 pop	 ebx
  002d1	8b e5		 mov	 esp, ebp
  002d3	5d		 pop	 ebp
  002d4	c2 14 00	 ret	 20			; 00000014H
_TEXT	ENDS
;	COMDAT text$x
text$x	SEGMENT
__unwindfunclet$?BuildElementsFromString_Column@CElementTreeBuilder@@AAEXAAVCAnalysisData@@HABV?$CStringT@DV?$StrTraitMFC_DLL@DV?$ChTraitsCRT@D@ATL@@@@@ATL@@AAVCTree@@AAVCElementAndOrderSet@@@Z$0:
  00000	8d 4d e0	 lea	 ecx, DWORD PTR $T10[ebp]
  00003	ff 25 00 00 00
	00		 jmp	 DWORD PTR __imp_??1?$CStringT@DV?$StrTraitMFC_DLL@DV?$ChTraitsCRT@D@ATL@@@@@ATL@@QAE@XZ
__unwindfunclet$?BuildElementsFromString_Column@CElementTreeBuilder@@AAEXAAVCAnalysisData@@HABV?$CStringT@DV?$StrTraitMFC_DLL@DV?$ChTraitsCRT@D@ATL@@@@@ATL@@AAVCTree@@AAVCElementAndOrderSet@@@Z$1:
  00009	8d 4d dc	 lea	 ecx, DWORD PTR $T8[ebp]
  0000c	ff 25 00 00 00
	00		 jmp	 DWORD PTR __imp_??1?$CStringT@DV?$StrTraitMFC_DLL@DV?$ChTraitsCRT@D@ATL@@@@@ATL@@QAE@XZ
__unwindfunclet$?BuildElementsFromString_Column@CElementTreeBuilder@@AAEXAAVCAnalysisData@@HABV?$CStringT@DV?$StrTraitMFC_DLL@DV?$ChTraitsCRT@D@ATL@@@@@ATL@@AAVCTree@@AAVCElementAndOrderSet@@@Z$2:
  00012	8d 4d e0	 lea	 ecx, DWORD PTR $T9[ebp]
  00015	ff 25 00 00 00
	00		 jmp	 DWORD PTR __imp_??1?$CStringT@DV?$StrTraitMFC_DLL@DV?$ChTraitsCRT@D@ATL@@@@@ATL@@QAE@XZ
__unwindfunclet$?BuildElementsFromString_Column@CElementTreeBuilder@@AAEXAAVCAnalysisData@@HABV?$CStringT@DV?$StrTraitMFC_DLL@DV?$ChTraitsCRT@D@ATL@@@@@ATL@@AAVCTree@@AAVCElementAndOrderSet@@@Z$6:
  0001b	8d 4d 10	 lea	 ecx, DWORD PTR _strNewData$14[ebp]
  0001e	ff 25 00 00 00
	00		 jmp	 DWORD PTR __imp_??1?$CStringT@DV?$StrTraitMFC_DLL@DV?$ChTraitsCRT@D@ATL@@@@@ATL@@QAE@XZ
__unwindfunclet$?BuildElementsFromString_Column@CElementTreeBuilder@@AAEXAAVCAnalysisData@@HABV?$CStringT@DV?$StrTraitMFC_DLL@DV?$ChTraitsCRT@D@ATL@@@@@ATL@@AAVCTree@@AAVCElementAndOrderSet@@@Z$3:
  00024	8d 4d e4	 lea	 ecx, DWORD PTR _rowsData$[ebp]
  00027	ff 25 00 00 00
	00		 jmp	 DWORD PTR __imp_??1?$CStringT@DV?$StrTraitMFC_DLL@DV?$ChTraitsCRT@D@ATL@@@@@ATL@@QAE@XZ
__unwindfunclet$?BuildElementsFromString_Column@CElementTreeBuilder@@AAEXAAVCAnalysisData@@HABV?$CStringT@DV?$StrTraitMFC_DLL@DV?$ChTraitsCRT@D@ATL@@@@@ATL@@AAVCTree@@AAVCElementAndOrderSet@@@Z$4:
  0002d	8d 4d 18	 lea	 ecx, DWORD PTR $T17[ebp]
  00030	ff 25 00 00 00
	00		 jmp	 DWORD PTR __imp_??1?$CStringT@DV?$StrTraitMFC_DLL@DV?$ChTraitsCRT@D@ATL@@@@@ATL@@QAE@XZ
__unwindfunclet$?BuildElementsFromString_Column@CElementTreeBuilder@@AAEXAAVCAnalysisData@@HABV?$CStringT@DV?$StrTraitMFC_DLL@DV?$ChTraitsCRT@D@ATL@@@@@ATL@@AAVCTree@@AAVCElementAndOrderSet@@@Z$5:
  00036	8d 4d 10	 lea	 ecx, DWORD PTR _rowData$15[ebp]
  00039	ff 25 00 00 00
	00		 jmp	 DWORD PTR __imp_??1?$CStringT@DV?$StrTraitMFC_DLL@DV?$ChTraitsCRT@D@ATL@@@@@ATL@@QAE@XZ
__unwindfunclet$?BuildElementsFromString_Column@CElementTreeBuilder@@AAEXAAVCAnalysisData@@HABV?$CStringT@DV?$StrTraitMFC_DLL@DV?$ChTraitsCRT@D@ATL@@@@@ATL@@AAVCTree@@AAVCElementAndOrderSet@@@Z$10:
  0003f	8d 4d d8	 lea	 ecx, DWORD PTR $T7[ebp]
  00042	ff 25 00 00 00
	00		 jmp	 DWORD PTR __imp_??1?$CStringT@DV?$StrTraitMFC_DLL@DV?$ChTraitsCRT@D@ATL@@@@@ATL@@QAE@XZ
__unwindfunclet$?BuildElementsFromString_Column@CElementTreeBuilder@@AAEXAAVCAnalysisData@@HABV?$CStringT@DV?$StrTraitMFC_DLL@DV?$ChTraitsCRT@D@ATL@@@@@ATL@@AAVCTree@@AAVCElementAndOrderSet@@@Z$11:
  00048	8d 4d d0	 lea	 ecx, DWORD PTR $T5[ebp]
  0004b	ff 25 00 00 00
	00		 jmp	 DWORD PTR __imp_??1?$CStringT@DV?$StrTraitMFC_DLL@DV?$ChTraitsCRT@D@ATL@@@@@ATL@@QAE@XZ
__unwindfunclet$?BuildElementsFromString_Column@CElementTreeBuilder@@AAEXAAVCAnalysisData@@HABV?$CStringT@DV?$StrTraitMFC_DLL@DV?$ChTraitsCRT@D@ATL@@@@@ATL@@AAVCTree@@AAVCElementAndOrderSet@@@Z$12:
  00051	8d 4d d4	 lea	 ecx, DWORD PTR $T6[ebp]
  00054	ff 25 00 00 00
	00		 jmp	 DWORD PTR __imp_??1?$CStringT@DV?$StrTraitMFC_DLL@DV?$ChTraitsCRT@D@ATL@@@@@ATL@@QAE@XZ
__unwindfunclet$?BuildElementsFromString_Column@CElementTreeBuilder@@AAEXAAVCAnalysisData@@HABV?$CStringT@DV?$StrTraitMFC_DLL@DV?$ChTraitsCRT@D@ATL@@@@@ATL@@AAVCTree@@AAVCElementAndOrderSet@@@Z$16:
  0005a	8d 4d 14	 lea	 ecx, DWORD PTR _strNewData$16[ebp]
  0005d	ff 25 00 00 00
	00		 jmp	 DWORD PTR __imp_??1?$CStringT@DV?$StrTraitMFC_DLL@DV?$ChTraitsCRT@D@ATL@@@@@ATL@@QAE@XZ
__unwindfunclet$?BuildElementsFromString_Column@CElementTreeBuilder@@AAEXAAVCAnalysisData@@HABV?$CStringT@DV?$StrTraitMFC_DLL@DV?$ChTraitsCRT@D@ATL@@@@@ATL@@AAVCTree@@AAVCElementAndOrderSet@@@Z$13:
  00063	8d 4d e8	 lea	 ecx, DWORD PTR _elementsData$11[ebp]
  00066	ff 25 00 00 00
	00		 jmp	 DWORD PTR __imp_??1?$CStringT@DV?$StrTraitMFC_DLL@DV?$ChTraitsCRT@D@ATL@@@@@ATL@@QAE@XZ
__unwindfunclet$?BuildElementsFromString_Column@CElementTreeBuilder@@AAEXAAVCAnalysisData@@HABV?$CStringT@DV?$StrTraitMFC_DLL@DV?$ChTraitsCRT@D@ATL@@@@@ATL@@AAVCTree@@AAVCElementAndOrderSet@@@Z$14:
  0006c	8d 4d f0	 lea	 ecx, DWORD PTR $T13[ebp]
  0006f	ff 25 00 00 00
	00		 jmp	 DWORD PTR __imp_??1?$CStringT@DV?$StrTraitMFC_DLL@DV?$ChTraitsCRT@D@ATL@@@@@ATL@@QAE@XZ
__unwindfunclet$?BuildElementsFromString_Column@CElementTreeBuilder@@AAEXAAVCAnalysisData@@HABV?$CStringT@DV?$StrTraitMFC_DLL@DV?$ChTraitsCRT@D@ATL@@@@@ATL@@AAVCTree@@AAVCElementAndOrderSet@@@Z$15:
  00075	8d 4d ec	 lea	 ecx, DWORD PTR _elementData$12[ebp]
  00078	ff 25 00 00 00
	00		 jmp	 DWORD PTR __imp_??1?$CStringT@DV?$StrTraitMFC_DLL@DV?$ChTraitsCRT@D@ATL@@@@@ATL@@QAE@XZ
  0007e	cc		 int	 3
  0007f	cc		 int	 3
  00080	cc		 int	 3
  00081	cc		 int	 3
  00082	cc		 int	 3
__ehhandler$?BuildElementsFromString_Column@CElementTreeBuilder@@AAEXAAVCAnalysisData@@HABV?$CStringT@DV?$StrTraitMFC_DLL@DV?$ChTraitsCRT@D@ATL@@@@@ATL@@AAVCTree@@AAVCElementAndOrderSet@@@Z:
  00083	90		 npad	 1
  00084	90		 npad	 1
  00085	8b 54 24 08	 mov	 edx, DWORD PTR [esp+8]
  00089	8d 42 0c	 lea	 eax, DWORD PTR [edx+12]
  0008c	8b 4a b4	 mov	 ecx, DWORD PTR [edx-76]
  0008f	33 c8		 xor	 ecx, eax
  00091	e8 00 00 00 00	 call	 @__security_check_cookie@4
  00096	b8 00 00 00 00	 mov	 eax, OFFSET __ehfuncinfo$?BuildElementsFromString_Column@CElementTreeBuilder@@AAEXAAVCAnalysisData@@HABV?$CStringT@DV?$StrTraitMFC_DLL@DV?$ChTraitsCRT@D@ATL@@@@@ATL@@AAVCTree@@AAVCElementAndOrderSet@@@Z
  0009b	e9 00 00 00 00	 jmp	 ___CxxFrameHandler3
text$x	ENDS
?BuildElementsFromString_Column@CElementTreeBuilder@@AAEXAAVCAnalysisData@@HABV?$CStringT@DV?$StrTraitMFC_DLL@DV?$ChTraitsCRT@D@ATL@@@@@ATL@@AAVCTree@@AAVCElementAndOrderSet@@@Z ENDP ; CElementTreeBuilder::BuildElementsFromString_Column
; Function compile flags: /Ogtp
; File D:\git\src\IBK\IBK_DRFN\ProjSrc\SrcChartEx\ChartAddIn\ChartAnalysisToolAddIn\AnalysisTool\ElementTreeBuilder.cpp
; File C:\Program Files (x86)\Microsoft Visual Studio\2019\Community\VC\Tools\MSVC\14.29.30133\atlmfc\include\atlsimpstr.h
; File D:\git\src\IBK\IBK_DRFN\ProjSrc\SrcChartEx\ChartAddIn\ChartAnalysisToolAddIn\AnalysisTool\ElementTreeBuilder.cpp
; File C:\Program Files (x86)\Microsoft Visual Studio\2019\Community\VC\Tools\MSVC\14.29.30133\atlmfc\include\atlsimpstr.h
; File D:\git\src\IBK\IBK_DRFN\ProjSrc\SrcChartEx\ChartAddIn\ChartAnalysisToolAddIn\AnalysisTool\ElementTreeBuilder.cpp
;	COMDAT ?BuildElementsFromString@CElementTreeBuilder@@AAE_NAAVCAnalysisData@@ABV?$CStringT@DV?$StrTraitMFC_DLL@DV?$ChTraitsCRT@D@ATL@@@@@ATL@@AAVCTree@@AAVCElementAndOrderSet@@@Z
_TEXT	SEGMENT
_this$1$ = -24						; size = 4
$T2 = -20						; size = 4
_columnsData$ = -16					; size = 4
__$EHRec$ = -12						; size = 12
_analysisData$ = 8					; size = 4
$T3 = 12						; size = 4
_strElementsData$ = 12					; size = 4
_elementTree$ = 16					; size = 4
_columnData$4 = 20					; size = 4
_elementAndOrderSet$ = 20				; size = 4
?BuildElementsFromString@CElementTreeBuilder@@AAE_NAAVCAnalysisData@@ABV?$CStringT@DV?$StrTraitMFC_DLL@DV?$ChTraitsCRT@D@ATL@@@@@ATL@@AAVCTree@@AAVCElementAndOrderSet@@@Z PROC ; CElementTreeBuilder::BuildElementsFromString, COMDAT
; _this$ = ecx

; 219  : {

  00000	55		 push	 ebp
  00001	8b ec		 mov	 ebp, esp
  00003	6a ff		 push	 -1
  00005	68 00 00 00 00	 push	 __ehhandler$?BuildElementsFromString@CElementTreeBuilder@@AAE_NAAVCAnalysisData@@ABV?$CStringT@DV?$StrTraitMFC_DLL@DV?$ChTraitsCRT@D@ATL@@@@@ATL@@AAVCTree@@AAVCElementAndOrderSet@@@Z
  0000a	64 a1 00 00 00
	00		 mov	 eax, DWORD PTR fs:0
  00010	50		 push	 eax
  00011	83 ec 0c	 sub	 esp, 12			; 0000000cH
  00014	53		 push	 ebx
  00015	56		 push	 esi
  00016	57		 push	 edi
  00017	a1 00 00 00 00	 mov	 eax, DWORD PTR ___security_cookie
  0001c	33 c5		 xor	 eax, ebp
  0001e	50		 push	 eax
  0001f	8d 45 f4	 lea	 eax, DWORD PTR __$EHRec$[ebp]
  00022	64 a3 00 00 00
	00		 mov	 DWORD PTR fs:0, eax
  00028	89 4d e8	 mov	 DWORD PTR _this$1$[ebp], ecx

; 220  : 	int nTotalCount = CDataConversion::GetStringDataCount(strElementsData, "<Column>\r\n");

  0002b	68 00 00 00 00	 push	 OFFSET ??_C@_0L@JOAAOIF@?$DMColumn?$DO?$AN?6@
  00030	8d 4d ec	 lea	 ecx, DWORD PTR $T2[ebp]
  00033	ff 15 00 00 00
	00		 call	 DWORD PTR __imp_??0?$CStringT@DV?$StrTraitMFC_DLL@DV?$ChTraitsCRT@D@ATL@@@@@ATL@@QAE@PBD@Z
  00039	8b 75 0c	 mov	 esi, DWORD PTR _strElementsData$[ebp]
  0003c	8d 45 ec	 lea	 eax, DWORD PTR $T2[ebp]
  0003f	50		 push	 eax
  00040	56		 push	 esi
  00041	c7 45 fc 00 00
	00 00		 mov	 DWORD PTR __$EHRec$[ebp+8], 0
  00048	e8 00 00 00 00	 call	 ?GetStringDataCount@CDataConversion@@SAHABV?$CStringT@DV?$StrTraitMFC_DLL@DV?$ChTraitsCRT@D@ATL@@@@@ATL@@0@Z ; CDataConversion::GetStringDataCount
  0004d	83 c4 08	 add	 esp, 8
  00050	c7 45 fc ff ff
	ff ff		 mov	 DWORD PTR __$EHRec$[ebp+8], -1
  00057	8d 4d ec	 lea	 ecx, DWORD PTR $T2[ebp]
  0005a	8b f8		 mov	 edi, eax
  0005c	ff 15 00 00 00
	00		 call	 DWORD PTR __imp_??1?$CStringT@DV?$StrTraitMFC_DLL@DV?$ChTraitsCRT@D@ATL@@@@@ATL@@QAE@XZ

; 221  : 	CString columnsData = strElementsData;

  00062	56		 push	 esi
  00063	8d 4d f0	 lea	 ecx, DWORD PTR _columnsData$[ebp]
  00066	ff 15 00 00 00
	00		 call	 DWORD PTR __imp_??0?$CStringT@DV?$StrTraitMFC_DLL@DV?$ChTraitsCRT@D@ATL@@@@@ATL@@QAE@ABV01@@Z

; 222  : 	for(int nIndex = 0; nIndex < nTotalCount; nIndex++)

  0006c	33 f6		 xor	 esi, esi
  0006e	c7 45 fc 01 00
	00 00		 mov	 DWORD PTR __$EHRec$[ebp+8], 1
  00075	85 ff		 test	 edi, edi
  00077	7e 7a		 jle	 SHORT $LN3@BuildEleme
  00079	8b 5d 14	 mov	 ebx, DWORD PTR _elementAndOrderSet$[ebp]
  0007c	0f 1f 40 00	 npad	 4
$LL4@BuildEleme:

; 224  : 		CString columnData = GetTrimData(columnsData, "<\\Column>\r\n");

  00080	68 00 00 00 00	 push	 OFFSET ??_C@_0M@FIEFJELL@?$DM?2Column?$DO?$AN?6@
  00085	8d 4d 0c	 lea	 ecx, DWORD PTR $T3[ebp]
  00088	ff 15 00 00 00
	00		 call	 DWORD PTR __imp_??0?$CStringT@DV?$StrTraitMFC_DLL@DV?$ChTraitsCRT@D@ATL@@@@@ATL@@QAE@PBD@Z
; File C:\Program Files (x86)\Microsoft Visual Studio\2019\Community\VC\Tools\MSVC\14.29.30133\atlmfc\include\atlsimpstr.h

; 519  : 		return( GetData()->nDataLength );

  0008e	8b 45 0c	 mov	 eax, DWORD PTR $T3[ebp]
; File D:\git\src\IBK\IBK_DRFN\ProjSrc\SrcChartEx\ChartAddIn\ChartAnalysisToolAddIn\AnalysisTool\ElementTreeBuilder.cpp

; 224  : 		CString columnData = GetTrimData(columnsData, "<\\Column>\r\n");

  00091	c6 45 fc 02	 mov	 BYTE PTR __$EHRec$[ebp+8], 2
; File C:\Program Files (x86)\Microsoft Visual Studio\2019\Community\VC\Tools\MSVC\14.29.30133\atlmfc\include\atlsimpstr.h

; 533  : 		return( GetLength() == 0 );

  00095	83 78 f4 00	 cmp	 DWORD PTR [eax-12], 0
; File D:\git\src\IBK\IBK_DRFN\ProjSrc\SrcChartEx\ChartAddIn\ChartAnalysisToolAddIn\AnalysisTool\ElementTreeBuilder.cpp

; 810  : 	if(strTrimData.IsEmpty())

  00099	75 0f		 jne	 SHORT $LN11@BuildEleme

; 811  : 		return strData;

  0009b	8d 45 f0	 lea	 eax, DWORD PTR _columnsData$[ebp]
  0009e	50		 push	 eax
  0009f	8d 4d 14	 lea	 ecx, DWORD PTR _columnData$4[ebp]
  000a2	ff 15 00 00 00
	00		 call	 DWORD PTR __imp_??0?$CStringT@DV?$StrTraitMFC_DLL@DV?$ChTraitsCRT@D@ATL@@@@@ATL@@QAE@ABV01@@Z
  000a8	eb 16		 jmp	 SHORT $LN10@BuildEleme
$LN11@BuildEleme:

; 812  : 
; 813  : 	return CDataConversion::GetStringData(strData, strTrimData, false);

  000aa	6a 00		 push	 0
  000ac	8d 45 0c	 lea	 eax, DWORD PTR $T3[ebp]
  000af	50		 push	 eax
  000b0	8d 45 f0	 lea	 eax, DWORD PTR _columnsData$[ebp]
  000b3	50		 push	 eax
  000b4	8d 45 14	 lea	 eax, DWORD PTR _columnData$4[ebp]
  000b7	50		 push	 eax
  000b8	e8 00 00 00 00	 call	 ?GetStringData@CDataConversion@@SA?AV?$CStringT@DV?$StrTraitMFC_DLL@DV?$ChTraitsCRT@D@ATL@@@@@ATL@@AAV23@ABV23@_N@Z ; CDataConversion::GetStringData
  000bd	83 c4 10	 add	 esp, 16			; 00000010H
$LN10@BuildEleme:

; 224  : 		CString columnData = GetTrimData(columnsData, "<\\Column>\r\n");

  000c0	8d 4d 0c	 lea	 ecx, DWORD PTR $T3[ebp]
  000c3	c6 45 fc 04	 mov	 BYTE PTR __$EHRec$[ebp+8], 4
  000c7	ff 15 00 00 00
	00		 call	 DWORD PTR __imp_??1?$CStringT@DV?$StrTraitMFC_DLL@DV?$ChTraitsCRT@D@ATL@@@@@ATL@@QAE@XZ

; 225  : 		BuildElementsFromString_Column(analysisData,nIndex, columnData, elementTree, elementAndOrderSet);

  000cd	8b 4d e8	 mov	 ecx, DWORD PTR _this$1$[ebp]
  000d0	8d 45 14	 lea	 eax, DWORD PTR _columnData$4[ebp]
  000d3	53		 push	 ebx
  000d4	ff 75 10	 push	 DWORD PTR _elementTree$[ebp]
  000d7	50		 push	 eax
  000d8	56		 push	 esi
  000d9	ff 75 08	 push	 DWORD PTR _analysisData$[ebp]
  000dc	e8 00 00 00 00	 call	 ?BuildElementsFromString_Column@CElementTreeBuilder@@AAEXAAVCAnalysisData@@HABV?$CStringT@DV?$StrTraitMFC_DLL@DV?$ChTraitsCRT@D@ATL@@@@@ATL@@AAVCTree@@AAVCElementAndOrderSet@@@Z ; CElementTreeBuilder::BuildElementsFromString_Column

; 226  : 	}

  000e1	8d 4d 14	 lea	 ecx, DWORD PTR _columnData$4[ebp]
  000e4	c6 45 fc 01	 mov	 BYTE PTR __$EHRec$[ebp+8], 1
  000e8	ff 15 00 00 00
	00		 call	 DWORD PTR __imp_??1?$CStringT@DV?$StrTraitMFC_DLL@DV?$ChTraitsCRT@D@ATL@@@@@ATL@@QAE@XZ
  000ee	46		 inc	 esi
  000ef	3b f7		 cmp	 esi, edi
  000f1	7c 8d		 jl	 SHORT $LL4@BuildEleme
$LN3@BuildEleme:

; 227  : 
; 228  : 	return (nTotalCount > 0);

  000f3	8d 4d f0	 lea	 ecx, DWORD PTR _columnsData$[ebp]
  000f6	ff 15 00 00 00
	00		 call	 DWORD PTR __imp_??1?$CStringT@DV?$StrTraitMFC_DLL@DV?$ChTraitsCRT@D@ATL@@@@@ATL@@QAE@XZ
  000fc	85 ff		 test	 edi, edi
  000fe	0f 9f c0	 setg	 al

; 229  : }

  00101	8b 4d f4	 mov	 ecx, DWORD PTR __$EHRec$[ebp]
  00104	64 89 0d 00 00
	00 00		 mov	 DWORD PTR fs:0, ecx
  0010b	59		 pop	 ecx
  0010c	5f		 pop	 edi
  0010d	5e		 pop	 esi
  0010e	5b		 pop	 ebx
  0010f	8b e5		 mov	 esp, ebp
  00111	5d		 pop	 ebp
  00112	c2 10 00	 ret	 16			; 00000010H
_TEXT	ENDS
;	COMDAT text$x
text$x	SEGMENT
__unwindfunclet$?BuildElementsFromString@CElementTreeBuilder@@AAE_NAAVCAnalysisData@@ABV?$CStringT@DV?$StrTraitMFC_DLL@DV?$ChTraitsCRT@D@ATL@@@@@ATL@@AAVCTree@@AAVCElementAndOrderSet@@@Z$0:
  00000	8d 4d ec	 lea	 ecx, DWORD PTR $T2[ebp]
  00003	ff 25 00 00 00
	00		 jmp	 DWORD PTR __imp_??1?$CStringT@DV?$StrTraitMFC_DLL@DV?$ChTraitsCRT@D@ATL@@@@@ATL@@QAE@XZ
__unwindfunclet$?BuildElementsFromString@CElementTreeBuilder@@AAE_NAAVCAnalysisData@@ABV?$CStringT@DV?$StrTraitMFC_DLL@DV?$ChTraitsCRT@D@ATL@@@@@ATL@@AAVCTree@@AAVCElementAndOrderSet@@@Z$1:
  00009	8d 4d f0	 lea	 ecx, DWORD PTR _columnsData$[ebp]
  0000c	ff 25 00 00 00
	00		 jmp	 DWORD PTR __imp_??1?$CStringT@DV?$StrTraitMFC_DLL@DV?$ChTraitsCRT@D@ATL@@@@@ATL@@QAE@XZ
__unwindfunclet$?BuildElementsFromString@CElementTreeBuilder@@AAE_NAAVCAnalysisData@@ABV?$CStringT@DV?$StrTraitMFC_DLL@DV?$ChTraitsCRT@D@ATL@@@@@ATL@@AAVCTree@@AAVCElementAndOrderSet@@@Z$2:
  00012	8d 4d 0c	 lea	 ecx, DWORD PTR $T3[ebp]
  00015	ff 25 00 00 00
	00		 jmp	 DWORD PTR __imp_??1?$CStringT@DV?$StrTraitMFC_DLL@DV?$ChTraitsCRT@D@ATL@@@@@ATL@@QAE@XZ
__unwindfunclet$?BuildElementsFromString@CElementTreeBuilder@@AAE_NAAVCAnalysisData@@ABV?$CStringT@DV?$StrTraitMFC_DLL@DV?$ChTraitsCRT@D@ATL@@@@@ATL@@AAVCTree@@AAVCElementAndOrderSet@@@Z$3:
  0001b	8d 4d 14	 lea	 ecx, DWORD PTR _columnData$4[ebp]
  0001e	ff 25 00 00 00
	00		 jmp	 DWORD PTR __imp_??1?$CStringT@DV?$StrTraitMFC_DLL@DV?$ChTraitsCRT@D@ATL@@@@@ATL@@QAE@XZ
  00024	cc		 int	 3
  00025	cc		 int	 3
  00026	cc		 int	 3
  00027	cc		 int	 3
  00028	cc		 int	 3
__ehhandler$?BuildElementsFromString@CElementTreeBuilder@@AAE_NAAVCAnalysisData@@ABV?$CStringT@DV?$StrTraitMFC_DLL@DV?$ChTraitsCRT@D@ATL@@@@@ATL@@AAVCTree@@AAVCElementAndOrderSet@@@Z:
  00029	90		 npad	 1
  0002a	90		 npad	 1
  0002b	8b 54 24 08	 mov	 edx, DWORD PTR [esp+8]
  0002f	8d 42 0c	 lea	 eax, DWORD PTR [edx+12]
  00032	8b 4a e4	 mov	 ecx, DWORD PTR [edx-28]
  00035	33 c8		 xor	 ecx, eax
  00037	e8 00 00 00 00	 call	 @__security_check_cookie@4
  0003c	b8 00 00 00 00	 mov	 eax, OFFSET __ehfuncinfo$?BuildElementsFromString@CElementTreeBuilder@@AAE_NAAVCAnalysisData@@ABV?$CStringT@DV?$StrTraitMFC_DLL@DV?$ChTraitsCRT@D@ATL@@@@@ATL@@AAVCTree@@AAVCElementAndOrderSet@@@Z
  00041	e9 00 00 00 00	 jmp	 ___CxxFrameHandler3
text$x	ENDS
?BuildElementsFromString@CElementTreeBuilder@@AAE_NAAVCAnalysisData@@ABV?$CStringT@DV?$StrTraitMFC_DLL@DV?$ChTraitsCRT@D@ATL@@@@@ATL@@AAVCTree@@AAVCElementAndOrderSet@@@Z ENDP ; CElementTreeBuilder::BuildElementsFromString
; Function compile flags: /Ogtp
; File D:\git\src\IBK\IBK_DRFN\ProjSrc\SrcChartEx\ChartAddIn\ChartAnalysisToolAddIn\AnalysisTool\ElementTreeBuilder.cpp
; File C:\Program Files (x86)\Microsoft Visual Studio\2019\Community\VC\Tools\MSVC\14.29.30133\atlmfc\include\atlsimpstr.h
; File D:\git\src\IBK\IBK_DRFN\ProjSrc\SrcChartEx\ChartAddIn\ChartAnalysisToolAddIn\AnalysisTool\ElementTreeBuilder.cpp
; File C:\Program Files (x86)\Microsoft Visual Studio\2019\Community\VC\Tools\MSVC\14.29.30133\include\xmemory
; File C:\Program Files (x86)\Microsoft Visual Studio\2019\Community\VC\Tools\MSVC\14.29.30133\include\deque
; File C:\Program Files (x86)\Microsoft Visual Studio\2019\Community\VC\Tools\MSVC\14.29.30133\include\xmemory
; File D:\git\src\IBK\IBK_DRFN\ProjSrc\SrcChartEx\ChartAddIn\ChartAnalysisToolAddIn\AnalysisTool\ElementTreeBuilder.cpp
; File C:\Program Files (x86)\Microsoft Visual Studio\2019\Community\VC\Tools\MSVC\14.29.30133\include\deque
; File C:\Program Files (x86)\Microsoft Visual Studio\2019\Community\VC\Tools\MSVC\14.29.30133\include\xmemory
; File C:\Program Files (x86)\Microsoft Visual Studio\2019\Community\VC\Tools\MSVC\14.29.30133\include\deque
; File C:\Program Files (x86)\Microsoft Visual Studio\2019\Community\VC\Tools\MSVC\14.29.30133\include\xmemory
; File C:\Program Files (x86)\Microsoft Visual Studio\2019\Community\VC\Tools\MSVC\14.29.30133\include\deque
; File C:\Program Files (x86)\Microsoft Visual Studio\2019\Community\VC\Tools\MSVC\14.29.30133\include\utility
; File C:\Program Files (x86)\Microsoft Visual Studio\2019\Community\VC\Tools\MSVC\14.29.30133\include\xmemory
; File C:\Program Files (x86)\Microsoft Visual Studio\2019\Community\VC\Tools\MSVC\14.29.30133\include\deque
; File C:\Program Files (x86)\Microsoft Visual Studio\2019\Community\VC\Tools\MSVC\14.29.30133\include\utility
; File C:\Program Files (x86)\Microsoft Visual Studio\2019\Community\VC\Tools\MSVC\14.29.30133\include\xmemory
; File D:\git\src\IBK\IBK_DRFN\ProjSrc\SrcChartEx\ChartAddIn\ChartAnalysisToolAddIn\AnalysisTool\ElementTreeBuilder.cpp
;	COMDAT ?BuildElementsFromString_ForUndoRedo@CElementTreeBuilder@@QAEJAAVCAnalysisData@@ABVCBlockIndex@@ABV?$CStringT@DV?$StrTraitMFC_DLL@DV?$ChTraitsCRT@D@ATL@@@@@ATL@@AAVCTree@@AAVCOrder@@@Z
_TEXT	SEGMENT
_elementAndOrderSet$ = -52				; size = 20
_nIndex$1$ = -32					; size = 4
$T2 = -32						; size = 4
_this$1$ = -28						; size = 4
$T3 = -24						; size = 4
$T4 = -20						; size = 4
_elementData$ = -16					; size = 4
__$EHRec$ = -12						; size = 12
_analysisData$ = 8					; size = 4
_blockIndex$ = 12					; size = 4
_pElement$1$ = 16					; size = 4
_strNewData$5 = 16					; size = 4
$T6 = 16						; size = 4
_strElementData$ = 16					; size = 4
_elementTree$ = 20					; size = 4
_elementOrder$ = 24					; size = 4
?BuildElementsFromString_ForUndoRedo@CElementTreeBuilder@@QAEJAAVCAnalysisData@@ABVCBlockIndex@@ABV?$CStringT@DV?$StrTraitMFC_DLL@DV?$ChTraitsCRT@D@ATL@@@@@ATL@@AAVCTree@@AAVCOrder@@@Z PROC ; CElementTreeBuilder::BuildElementsFromString_ForUndoRedo, COMDAT
; _this$ = ecx

; 181  : {

  00000	55		 push	 ebp
  00001	8b ec		 mov	 ebp, esp
  00003	6a ff		 push	 -1
  00005	68 00 00 00 00	 push	 __ehhandler$?BuildElementsFromString_ForUndoRedo@CElementTreeBuilder@@QAEJAAVCAnalysisData@@ABVCBlockIndex@@ABV?$CStringT@DV?$StrTraitMFC_DLL@DV?$ChTraitsCRT@D@ATL@@@@@ATL@@AAVCTree@@AAVCOrder@@@Z
  0000a	64 a1 00 00 00
	00		 mov	 eax, DWORD PTR fs:0
  00010	50		 push	 eax
  00011	83 ec 28	 sub	 esp, 40			; 00000028H
  00014	53		 push	 ebx
  00015	56		 push	 esi
  00016	57		 push	 edi
  00017	a1 00 00 00 00	 mov	 eax, DWORD PTR ___security_cookie
  0001c	33 c5		 xor	 eax, ebp
  0001e	50		 push	 eax
  0001f	8d 45 f4	 lea	 eax, DWORD PTR __$EHRec$[ebp]
  00022	64 a3 00 00 00
	00		 mov	 DWORD PTR fs:0, eax
  00028	8b d9		 mov	 ebx, ecx
  0002a	89 5d e4	 mov	 DWORD PTR _this$1$[ebp], ebx
; File C:\Program Files (x86)\Microsoft Visual Studio\2019\Community\VC\Tools\MSVC\14.29.30133\atlmfc\include\atlsimpstr.h

; 519  : 		return( GetData()->nDataLength );

  0002d	8b 75 10	 mov	 esi, DWORD PTR _strElementData$[ebp]
  00030	8b 06		 mov	 eax, DWORD PTR [esi]

; 533  : 		return( GetLength() == 0 );

  00032	83 78 f4 00	 cmp	 DWORD PTR [eax-12], 0
; File D:\git\src\IBK\IBK_DRFN\ProjSrc\SrcChartEx\ChartAddIn\ChartAnalysisToolAddIn\AnalysisTool\ElementTreeBuilder.cpp

; 182  : 	if(strElementData.IsEmpty())		return 0;

  00036	75 16		 jne	 SHORT $LN2@BuildEleme
  00038	33 c0		 xor	 eax, eax

; 213  : }

  0003a	8b 4d f4	 mov	 ecx, DWORD PTR __$EHRec$[ebp]
  0003d	64 89 0d 00 00
	00 00		 mov	 DWORD PTR fs:0, ecx
  00044	59		 pop	 ecx
  00045	5f		 pop	 edi
  00046	5e		 pop	 esi
  00047	5b		 pop	 ebx
  00048	8b e5		 mov	 esp, ebp
  0004a	5d		 pop	 ebp
  0004b	c2 14 00	 ret	 20			; 00000014H
$LN2@BuildEleme:

; 183  : 
; 184  : 	CString elementData = GetData(strElementData, "<Element>\r\n", "<\\Element>\r\n");

  0004e	68 00 00 00 00	 push	 OFFSET ??_C@_0N@GAAGGFNK@?$DM?2Element?$DO?$AN?6@
  00053	8d 4d e8	 lea	 ecx, DWORD PTR $T3[ebp]
  00056	ff 15 00 00 00
	00		 call	 DWORD PTR __imp_??0?$CStringT@DV?$StrTraitMFC_DLL@DV?$ChTraitsCRT@D@ATL@@@@@ATL@@QAE@PBD@Z
  0005c	68 00 00 00 00	 push	 OFFSET ??_C@_0M@KBDGNNOL@?$DMElement?$DO?$AN?6@
  00061	8d 4d ec	 lea	 ecx, DWORD PTR $T4[ebp]
  00064	c7 45 fc 00 00
	00 00		 mov	 DWORD PTR __$EHRec$[ebp+8], 0
  0006b	ff 15 00 00 00
	00		 call	 DWORD PTR __imp_??0?$CStringT@DV?$StrTraitMFC_DLL@DV?$ChTraitsCRT@D@ATL@@@@@ATL@@QAE@PBD@Z

; 384  : 	CString strNewData = strOrgData;

  00071	56		 push	 esi
  00072	8d 4d 10	 lea	 ecx, DWORD PTR _strNewData$5[ebp]

; 183  : 
; 184  : 	CString elementData = GetData(strElementData, "<Element>\r\n", "<\\Element>\r\n");

  00075	c6 45 fc 01	 mov	 BYTE PTR __$EHRec$[ebp+8], 1

; 384  : 	CString strNewData = strOrgData;

  00079	ff 15 00 00 00
	00		 call	 DWORD PTR __imp_??0?$CStringT@DV?$StrTraitMFC_DLL@DV?$ChTraitsCRT@D@ATL@@@@@ATL@@QAE@ABV01@@Z

; 385  : 	CDataConversion::GetStringData(strNewData, strTrimStart);

  0007f	6a 01		 push	 1
  00081	8d 45 ec	 lea	 eax, DWORD PTR $T4[ebp]
  00084	c6 45 fc 02	 mov	 BYTE PTR __$EHRec$[ebp+8], 2
  00088	50		 push	 eax
  00089	8d 45 10	 lea	 eax, DWORD PTR _strNewData$5[ebp]
  0008c	50		 push	 eax
  0008d	8d 45 e0	 lea	 eax, DWORD PTR $T2[ebp]
  00090	50		 push	 eax
  00091	e8 00 00 00 00	 call	 ?GetStringData@CDataConversion@@SA?AV?$CStringT@DV?$StrTraitMFC_DLL@DV?$ChTraitsCRT@D@ATL@@@@@ATL@@AAV23@ABV23@_N@Z ; CDataConversion::GetStringData
  00096	83 c4 10	 add	 esp, 16			; 00000010H
  00099	8d 4d e0	 lea	 ecx, DWORD PTR $T2[ebp]
  0009c	ff 15 00 00 00
	00		 call	 DWORD PTR __imp_??1?$CStringT@DV?$StrTraitMFC_DLL@DV?$ChTraitsCRT@D@ATL@@@@@ATL@@QAE@XZ

; 386  : 	return CDataConversion::GetStringData(strNewData, strTrimEnd);

  000a2	6a 01		 push	 1
  000a4	8d 45 e8	 lea	 eax, DWORD PTR $T3[ebp]
  000a7	50		 push	 eax
  000a8	8d 45 10	 lea	 eax, DWORD PTR _strNewData$5[ebp]
  000ab	50		 push	 eax
  000ac	8d 45 f0	 lea	 eax, DWORD PTR _elementData$[ebp]
  000af	50		 push	 eax
  000b0	e8 00 00 00 00	 call	 ?GetStringData@CDataConversion@@SA?AV?$CStringT@DV?$StrTraitMFC_DLL@DV?$ChTraitsCRT@D@ATL@@@@@ATL@@AAV23@ABV23@_N@Z ; CDataConversion::GetStringData
  000b5	83 c4 10	 add	 esp, 16			; 00000010H
  000b8	8d 4d 10	 lea	 ecx, DWORD PTR _strNewData$5[ebp]
  000bb	ff 15 00 00 00
	00		 call	 DWORD PTR __imp_??1?$CStringT@DV?$StrTraitMFC_DLL@DV?$ChTraitsCRT@D@ATL@@@@@ATL@@QAE@XZ

; 183  : 
; 184  : 	CString elementData = GetData(strElementData, "<Element>\r\n", "<\\Element>\r\n");

  000c1	8d 4d ec	 lea	 ecx, DWORD PTR $T4[ebp]
  000c4	ff 15 00 00 00
	00		 call	 DWORD PTR __imp_??1?$CStringT@DV?$StrTraitMFC_DLL@DV?$ChTraitsCRT@D@ATL@@@@@ATL@@QAE@XZ
  000ca	8d 4d e8	 lea	 ecx, DWORD PTR $T3[ebp]
  000cd	c6 45 fc 05	 mov	 BYTE PTR __$EHRec$[ebp+8], 5
  000d1	ff 15 00 00 00
	00		 call	 DWORD PTR __imp_??1?$CStringT@DV?$StrTraitMFC_DLL@DV?$ChTraitsCRT@D@ATL@@@@@ATL@@QAE@XZ

; 185  : 
; 186  : 	// Get Index
; 187  : 	int nIndex = GetIndex(elementData);

  000d7	8d 45 f0	 lea	 eax, DWORD PTR _elementData$[ebp]
  000da	8b cb		 mov	 ecx, ebx
  000dc	50		 push	 eax
  000dd	e8 00 00 00 00	 call	 ?GetIndex@CElementTreeBuilder@@ABEHABV?$CStringT@DV?$StrTraitMFC_DLL@DV?$ChTraitsCRT@D@ATL@@@@@ATL@@@Z ; CElementTreeBuilder::GetIndex

; 188  : 
; 189  : 	// Tree Element Add
; 190  : 	// 20081007 JS.Kim	 . <<	
; 191  : 	//CElement *pElement = MakeElement(elementData);
; 192  : 	IChartManager *pIChartManager = analysisData.GetMainBlock();

  000e2	8b 4d 08	 mov	 ecx, DWORD PTR _analysisData$[ebp]
  000e5	89 45 e0	 mov	 DWORD PTR _nIndex$1$[ebp], eax
  000e8	e8 00 00 00 00	 call	 ?GetMainBlock@CAnalysisData@@QBEPAUIChartManager133101@@XZ ; CAnalysisData::GetMainBlock
  000ed	8b d8		 mov	 ebx, eax

; 193  : 	IBlock *pIBlock = pIChartManager->GetBlock( blockIndex.GetRow(), blockIndex.GetColumn());

  000ef	8b 45 0c	 mov	 eax, DWORD PTR _blockIndex$[ebp]
  000f2	8b cb		 mov	 ecx, ebx
  000f4	ff 70 04	 push	 DWORD PTR [eax+4]
  000f7	8b 13		 mov	 edx, DWORD PTR [ebx]
  000f9	ff 30		 push	 DWORD PTR [eax]
  000fb	ff 52 38	 call	 DWORD PTR [edx+56]
  000fe	8b f8		 mov	 edi, eax

; 194  : 	// 20080925 JS.Kim	   Scale .     .
; 195  : 	IPacket *pIPacket = pIBlock->GetHorzScaleDataPacket();

  00100	8b cf		 mov	 ecx, edi
  00102	8b 17		 mov	 edx, DWORD PTR [edi]
  00104	ff 52 20	 call	 DWORD PTR [edx+32]
  00107	8b f0		 mov	 esi, eax

; 196  : 	//	IPacket *pIPacket = pIBlock->GetDatePacket();
; 197  : 
; 198  : 	CElement *pElement = MakeElement(elementData, pIPacket->GetBaseTimeDifference());

  00109	8b ce		 mov	 ecx, esi
  0010b	8b 16		 mov	 edx, DWORD PTR [esi]
  0010d	ff 52 60	 call	 DWORD PTR [edx+96]
  00110	8b 4d e4	 mov	 ecx, DWORD PTR _this$1$[ebp]
  00113	89 45 10	 mov	 DWORD PTR $T6[ebp], eax
  00116	8d 45 10	 lea	 eax, DWORD PTR $T6[ebp]
  00119	50		 push	 eax
  0011a	8d 45 f0	 lea	 eax, DWORD PTR _elementData$[ebp]
  0011d	50		 push	 eax
  0011e	e8 00 00 00 00	 call	 ?MakeElement@CElementTreeBuilder@@AAEPAVCElement@@ABV?$CStringT@DV?$StrTraitMFC_DLL@DV?$ChTraitsCRT@D@ATL@@@@@ATL@@ABH@Z ; CElementTreeBuilder::MakeElement

; 199  : 
; 200  : 	pIPacket->Release();

  00123	8b 0e		 mov	 ecx, DWORD PTR [esi]
  00125	56		 push	 esi
  00126	89 45 10	 mov	 DWORD PTR _pElement$1$[ebp], eax
  00129	ff 51 08	 call	 DWORD PTR [ecx+8]

; 201  : 	pIBlock->Release();	

  0012c	8b 0f		 mov	 ecx, DWORD PTR [edi]
  0012e	57		 push	 edi
  0012f	ff 51 08	 call	 DWORD PTR [ecx+8]

; 202  : 	pIChartManager->Release();	

  00132	8b 0b		 mov	 ecx, DWORD PTR [ebx]
  00134	53		 push	 ebx
  00135	ff 51 08	 call	 DWORD PTR [ecx+8]

; 203  : 	//>>
; 204  : 
; 205  : 	analysisData.RegisterElementToOrderManager((long)pElement);

  00138	8b 7d 10	 mov	 edi, DWORD PTR _pElement$1$[ebp]
  0013b	8b 75 08	 mov	 esi, DWORD PTR _analysisData$[ebp]
  0013e	8b ce		 mov	 ecx, esi
  00140	57		 push	 edi
  00141	e8 00 00 00 00	 call	 ?RegisterElementToOrderManager@CAnalysisData@@QAEXJ@Z ; CAnalysisData::RegisterElementToOrderManager
; File C:\Program Files (x86)\Microsoft Visual Studio\2019\Community\VC\Tools\MSVC\14.29.30133\include\xmemory

; 79   :         return ::operator new(_Bytes);

  00146	6a 08		 push	 8

; 1033 :     _Container_proxy* _Myproxy = nullptr;

  00148	c7 45 cc 00 00
	00 00		 mov	 DWORD PTR _elementAndOrderSet$[ebp], 0
; File C:\Program Files (x86)\Microsoft Visual Studio\2019\Community\VC\Tools\MSVC\14.29.30133\include\deque

; 555  :     _Deque_val() noexcept : _Map(), _Mapsize(0), _Myoff(0), _Mysize(0) {}

  0014f	c7 45 d0 00 00
	00 00		 mov	 DWORD PTR _elementAndOrderSet$[ebp+4], 0
  00156	c7 45 d4 00 00
	00 00		 mov	 DWORD PTR _elementAndOrderSet$[ebp+8], 0
  0015d	c7 45 d8 00 00
	00 00		 mov	 DWORD PTR _elementAndOrderSet$[ebp+12], 0
  00164	c7 45 dc 00 00
	00 00		 mov	 DWORD PTR _elementAndOrderSet$[ebp+16], 0
; File C:\Program Files (x86)\Microsoft Visual Studio\2019\Community\VC\Tools\MSVC\14.29.30133\include\xmemory

; 79   :         return ::operator new(_Bytes);

  0016b	e8 00 00 00 00	 call	 ??2@YAPAXI@Z		; operator new

; 1021 :         _New_proxy->_Mycont = this;

  00170	8d 4d cc	 lea	 ecx, DWORD PTR _elementAndOrderSet$[ebp]

; 79   :         return ::operator new(_Bytes);

  00173	83 c4 04	 add	 esp, 4

; 1003 :     mutable _Iterator_base12* _Myfirstiter = nullptr;

  00176	c7 40 04 00 00
	00 00		 mov	 DWORD PTR [eax+4], 0

; 1020 :         _Myproxy            = _New_proxy;

  0017d	89 45 cc	 mov	 DWORD PTR _elementAndOrderSet$[ebp], eax

; 1021 :         _New_proxy->_Mycont = this;

  00180	89 08		 mov	 DWORD PTR [eax], ecx
; File D:\git\src\IBK\IBK_DRFN\ProjSrc\SrcChartEx\ChartAddIn\ChartAnalysisToolAddIn\AnalysisTool\ElementTreeBuilder.cpp

; 207  : 	AddElement(blockIndex, nIndex,pElement,elementTree, elementAndOrderSet);

  00182	8b c1		 mov	 eax, ecx
  00184	c6 45 fc 06	 mov	 BYTE PTR __$EHRec$[ebp+8], 6
  00188	8b 4d e4	 mov	 ecx, DWORD PTR _this$1$[ebp]
  0018b	50		 push	 eax
  0018c	ff 75 14	 push	 DWORD PTR _elementTree$[ebp]
  0018f	57		 push	 edi
  00190	ff 75 e0	 push	 DWORD PTR _nIndex$1$[ebp]
  00193	ff 75 0c	 push	 DWORD PTR _blockIndex$[ebp]
  00196	e8 00 00 00 00	 call	 ?AddElement@CElementTreeBuilder@@AAEXABVCBlockIndex@@HPAVCElement@@AAVCTree@@AAVCElementAndOrderSet@@@Z ; CElementTreeBuilder::AddElement

; 208  : 
; 209  : 	// Order Element Add
; 210  : 	BuildElementsFromString(analysisData,elementAndOrderSet, elementOrder);

  0019b	ff 75 18	 push	 DWORD PTR _elementOrder$[ebp]
  0019e	8b 4d e4	 mov	 ecx, DWORD PTR _this$1$[ebp]
  001a1	8d 45 cc	 lea	 eax, DWORD PTR _elementAndOrderSet$[ebp]
  001a4	50		 push	 eax
  001a5	56		 push	 esi
  001a6	e8 00 00 00 00	 call	 ?BuildElementsFromString@CElementTreeBuilder@@AAEXAAVCAnalysisData@@ABVCElementAndOrderSet@@AAVCOrder@@@Z ; CElementTreeBuilder::BuildElementsFromString
; File C:\Program Files (x86)\Microsoft Visual Studio\2019\Community\VC\Tools\MSVC\14.29.30133\include\deque

; 1002 :         return _Mysize() == 0;

  001ab	8b 45 dc	 mov	 eax, DWORD PTR _elementAndOrderSet$[ebp+16]
  001ae	85 c0		 test	 eax, eax

; 1475 :         while (!empty()) {

  001b0	74 0f		 je	 SHORT $LN230@BuildEleme
$LL80@BuildEleme:

; 1146 :         if (--_Mysize() == 0) {

  001b2	83 c0 ff	 add	 eax, -1
  001b5	89 45 dc	 mov	 DWORD PTR _elementAndOrderSet$[ebp+16], eax
  001b8	75 f8		 jne	 SHORT $LL80@BuildEleme

; 1147 :             _Myoff() = 0;

  001ba	c7 45 d8 00 00
	00 00		 mov	 DWORD PTR _elementAndOrderSet$[ebp+12], 0
$LN230@BuildEleme:

; 1479 :         for (size_type _Block = _Mapsize(); 0 < _Block;) { // free storage for a block and destroy pointer

  001c1	8b 75 d4	 mov	 esi, DWORD PTR _elementAndOrderSet$[ebp+8]
  001c4	8b 4d d0	 mov	 ecx, DWORD PTR _elementAndOrderSet$[ebp+4]
  001c7	85 f6		 test	 esi, esi
  001c9	74 26		 je	 SHORT $LN83@BuildEleme
  001cb	0f 1f 44 00 00	 npad	 5
$LL82@BuildEleme:

; 1480 :             if (_Map()[--_Block]) { // free block and destroy its pointer

  001d0	8b 44 b1 fc	 mov	 eax, DWORD PTR [ecx+esi*4-4]
  001d4	4e		 dec	 esi
  001d5	85 c0		 test	 eax, eax
  001d7	74 0e		 je	 SHORT $LN101@BuildEleme
; File C:\Program Files (x86)\Microsoft Visual Studio\2019\Community\VC\Tools\MSVC\14.29.30133\include\xmemory

; 255  :         ::operator delete(_Ptr, _Bytes);

  001d9	6a 10		 push	 16			; 00000010H
  001db	50		 push	 eax
  001dc	e8 00 00 00 00	 call	 ??3@YAXPAXI@Z		; operator delete
  001e1	8b 4d d0	 mov	 ecx, DWORD PTR _elementAndOrderSet$[ebp+4]
  001e4	83 c4 08	 add	 esp, 8
$LN101@BuildEleme:
; File C:\Program Files (x86)\Microsoft Visual Studio\2019\Community\VC\Tools\MSVC\14.29.30133\include\deque

; 1479 :         for (size_type _Block = _Mapsize(); 0 < _Block;) { // free storage for a block and destroy pointer

  001e7	85 f6		 test	 esi, esi
  001e9	75 e5		 jne	 SHORT $LL82@BuildEleme
  001eb	8b 45 dc	 mov	 eax, DWORD PTR _elementAndOrderSet$[ebp+16]
  001ee	8b 75 d4	 mov	 esi, DWORD PTR _elementAndOrderSet$[ebp+8]
$LN83@BuildEleme:

; 1481 :                 _Getal().deallocate(_Map()[_Block], _Block_size);
; 1482 :                 _Destroy_in_place(_Map()[_Block]);
; 1483 :             }
; 1484 :         }
; 1485 : 
; 1486 :         if (_Map() != _Mapptr()) {

  001f1	85 c9		 test	 ecx, ecx
  001f3	74 30		 je	 SHORT $LN119@BuildEleme
; File C:\Program Files (x86)\Microsoft Visual Studio\2019\Community\VC\Tools\MSVC\14.29.30133\include\xmemory

; 797  :         _Deallocate<_New_alignof<_Ty>>(_Ptr, sizeof(_Ty) * _Count);

  001f5	c1 e6 02	 shl	 esi, 2
  001f8	8b c1		 mov	 eax, ecx

; 251  :         if (_Bytes >= _Big_allocation_threshold) { // boost the alignment of big allocations to help autovectorization

  001fa	81 fe 00 10 00
	00		 cmp	 esi, 4096		; 00001000H
  00200	72 16		 jb	 SHORT $LN129@BuildEleme

; 150  :     const uintptr_t _Ptr_container   = _Ptr_user[-1];

  00202	8b 49 fc	 mov	 ecx, DWORD PTR [ecx-4]
  00205	83 c6 23	 add	 esi, 35			; 00000023H
  00208	2b c1		 sub	 eax, ecx

; 151  : 
; 152  :     // If the following asserts, it likely means that we are performing
; 153  :     // an aligned delete on memory coming from an unaligned allocation.
; 154  :     _STL_ASSERT(_Ptr_user[-2] == _Big_allocation_sentinel, "invalid argument");
; 155  : 
; 156  :     // Extra paranoia on aligned allocation/deallocation; ensure _Ptr_container is
; 157  :     // in range [_Min_back_shift, _Non_user_size]
; 158  : #ifdef _DEBUG
; 159  :     constexpr uintptr_t _Min_back_shift = 2 * sizeof(void*);
; 160  : #else // ^^^ _DEBUG ^^^ // vvv !_DEBUG vvv
; 161  :     constexpr uintptr_t _Min_back_shift = sizeof(void*);
; 162  : #endif // _DEBUG
; 163  :     const uintptr_t _Back_shift = reinterpret_cast<uintptr_t>(_Ptr) - _Ptr_container;
; 164  :     _STL_VERIFY(_Back_shift >= _Min_back_shift && _Back_shift <= _Non_user_size, "invalid argument");

  0020a	83 c0 fc	 add	 eax, -4			; fffffffcH
  0020d	83 f8 1f	 cmp	 eax, 31			; 0000001fH
  00210	76 06		 jbe	 SHORT $LN129@BuildEleme
  00212	ff 15 00 00 00
	00		 call	 DWORD PTR __imp___invalid_parameter_noinfo_noreturn
$LN129@BuildEleme:

; 255  :         ::operator delete(_Ptr, _Bytes);

  00218	56		 push	 esi
  00219	51		 push	 ecx
  0021a	e8 00 00 00 00	 call	 ??3@YAXPAXI@Z		; operator delete
  0021f	8b 45 dc	 mov	 eax, DWORD PTR _elementAndOrderSet$[ebp+16]
  00222	83 c4 08	 add	 esp, 8
$LN119@BuildEleme:
; File C:\Program Files (x86)\Microsoft Visual Studio\2019\Community\VC\Tools\MSVC\14.29.30133\include\deque

; 1002 :         return _Mysize() == 0;

  00225	85 c0		 test	 eax, eax

; 1475 :         while (!empty()) {

  00227	74 12		 je	 SHORT $LN229@BuildEleme
  00229	0f 1f 80 00 00
	00 00		 npad	 7
$LL137@BuildEleme:

; 1146 :         if (--_Mysize() == 0) {

  00230	83 c0 ff	 add	 eax, -1
  00233	75 fb		 jne	 SHORT $LL137@BuildEleme
  00235	89 45 dc	 mov	 DWORD PTR _elementAndOrderSet$[ebp+16], eax

; 1147 :             _Myoff() = 0;

  00238	89 45 d8	 mov	 DWORD PTR _elementAndOrderSet$[ebp+12], eax
$LN229@BuildEleme:
; File C:\Program Files (x86)\Microsoft Visual Studio\2019\Community\VC\Tools\MSVC\14.29.30133\include\utility

; 602  :     _Ty _Old_val = static_cast<_Ty&&>(_Val);

  0023b	8b 45 cc	 mov	 eax, DWORD PTR _elementAndOrderSet$[ebp]
; File C:\Program Files (x86)\Microsoft Visual Studio\2019\Community\VC\Tools\MSVC\14.29.30133\include\xmemory

; 255  :         ::operator delete(_Ptr, _Bytes);

  0023e	6a 08		 push	 8
  00240	50		 push	 eax
; File C:\Program Files (x86)\Microsoft Visual Studio\2019\Community\VC\Tools\MSVC\14.29.30133\include\deque

; 1490 :         _Mapsize() = 0;

  00241	c7 45 d4 00 00
	00 00		 mov	 DWORD PTR _elementAndOrderSet$[ebp+8], 0

; 1491 :         _Map()     = _Mapptr();

  00248	c7 45 d0 00 00
	00 00		 mov	 DWORD PTR _elementAndOrderSet$[ebp+4], 0
; File C:\Program Files (x86)\Microsoft Visual Studio\2019\Community\VC\Tools\MSVC\14.29.30133\include\utility

; 603  :     _Val         = static_cast<_Other&&>(_New_val);

  0024f	c7 45 cc 00 00
	00 00		 mov	 DWORD PTR _elementAndOrderSet$[ebp], 0
; File C:\Program Files (x86)\Microsoft Visual Studio\2019\Community\VC\Tools\MSVC\14.29.30133\include\xmemory

; 255  :         ::operator delete(_Ptr, _Bytes);

  00256	e8 00 00 00 00	 call	 ??3@YAXPAXI@Z		; operator delete
  0025b	83 c4 08	 add	 esp, 8
; File D:\git\src\IBK\IBK_DRFN\ProjSrc\SrcChartEx\ChartAddIn\ChartAnalysisToolAddIn\AnalysisTool\ElementTreeBuilder.cpp

; 212  : 	return (long)pElement;

  0025e	8d 4d f0	 lea	 ecx, DWORD PTR _elementData$[ebp]
  00261	ff 15 00 00 00
	00		 call	 DWORD PTR __imp_??1?$CStringT@DV?$StrTraitMFC_DLL@DV?$ChTraitsCRT@D@ATL@@@@@ATL@@QAE@XZ
  00267	8b c7		 mov	 eax, edi

; 213  : }

  00269	8b 4d f4	 mov	 ecx, DWORD PTR __$EHRec$[ebp]
  0026c	64 89 0d 00 00
	00 00		 mov	 DWORD PTR fs:0, ecx
  00273	59		 pop	 ecx
  00274	5f		 pop	 edi
  00275	5e		 pop	 esi
  00276	5b		 pop	 ebx
  00277	8b e5		 mov	 esp, ebp
  00279	5d		 pop	 ebp
  0027a	c2 14 00	 ret	 20			; 00000014H
$LN235@BuildEleme:
_TEXT	ENDS
;	COMDAT text$x
text$x	SEGMENT
__unwindfunclet$?BuildElementsFromString_ForUndoRedo@CElementTreeBuilder@@QAEJAAVCAnalysisData@@ABVCBlockIndex@@ABV?$CStringT@DV?$StrTraitMFC_DLL@DV?$ChTraitsCRT@D@ATL@@@@@ATL@@AAVCTree@@AAVCOrder@@@Z$0:
  00000	8d 4d e8	 lea	 ecx, DWORD PTR $T3[ebp]
  00003	ff 25 00 00 00
	00		 jmp	 DWORD PTR __imp_??1?$CStringT@DV?$StrTraitMFC_DLL@DV?$ChTraitsCRT@D@ATL@@@@@ATL@@QAE@XZ
__unwindfunclet$?BuildElementsFromString_ForUndoRedo@CElementTreeBuilder@@QAEJAAVCAnalysisData@@ABVCBlockIndex@@ABV?$CStringT@DV?$StrTraitMFC_DLL@DV?$ChTraitsCRT@D@ATL@@@@@ATL@@AAVCTree@@AAVCOrder@@@Z$1:
  00009	8d 4d ec	 lea	 ecx, DWORD PTR $T4[ebp]
  0000c	ff 25 00 00 00
	00		 jmp	 DWORD PTR __imp_??1?$CStringT@DV?$StrTraitMFC_DLL@DV?$ChTraitsCRT@D@ATL@@@@@ATL@@QAE@XZ
__unwindfunclet$?BuildElementsFromString_ForUndoRedo@CElementTreeBuilder@@QAEJAAVCAnalysisData@@ABVCBlockIndex@@ABV?$CStringT@DV?$StrTraitMFC_DLL@DV?$ChTraitsCRT@D@ATL@@@@@ATL@@AAVCTree@@AAVCOrder@@@Z$4:
  00012	8d 4d 10	 lea	 ecx, DWORD PTR _strNewData$5[ebp]
  00015	ff 25 00 00 00
	00		 jmp	 DWORD PTR __imp_??1?$CStringT@DV?$StrTraitMFC_DLL@DV?$ChTraitsCRT@D@ATL@@@@@ATL@@QAE@XZ
__unwindfunclet$?BuildElementsFromString_ForUndoRedo@CElementTreeBuilder@@QAEJAAVCAnalysisData@@ABVCBlockIndex@@ABV?$CStringT@DV?$StrTraitMFC_DLL@DV?$ChTraitsCRT@D@ATL@@@@@ATL@@AAVCTree@@AAVCOrder@@@Z$2:
  0001b	8d 4d f0	 lea	 ecx, DWORD PTR _elementData$[ebp]
  0001e	ff 25 00 00 00
	00		 jmp	 DWORD PTR __imp_??1?$CStringT@DV?$StrTraitMFC_DLL@DV?$ChTraitsCRT@D@ATL@@@@@ATL@@QAE@XZ
__unwindfunclet$?BuildElementsFromString_ForUndoRedo@CElementTreeBuilder@@QAEJAAVCAnalysisData@@ABVCBlockIndex@@ABV?$CStringT@DV?$StrTraitMFC_DLL@DV?$ChTraitsCRT@D@ATL@@@@@ATL@@AAVCTree@@AAVCOrder@@@Z$3:
  00024	8d 4d cc	 lea	 ecx, DWORD PTR _elementAndOrderSet$[ebp]
  00027	e9 00 00 00 00	 jmp	 ??1CElementAndOrderSet@@QAE@XZ
  0002c	cc		 int	 3
  0002d	cc		 int	 3
  0002e	cc		 int	 3
  0002f	cc		 int	 3
  00030	cc		 int	 3
__ehhandler$?BuildElementsFromString_ForUndoRedo@CElementTreeBuilder@@QAEJAAVCAnalysisData@@ABVCBlockIndex@@ABV?$CStringT@DV?$StrTraitMFC_DLL@DV?$ChTraitsCRT@D@ATL@@@@@ATL@@AAVCTree@@AAVCOrder@@@Z:
  00031	90		 npad	 1
  00032	90		 npad	 1
  00033	8b 54 24 08	 mov	 edx, DWORD PTR [esp+8]
  00037	8d 42 0c	 lea	 eax, DWORD PTR [edx+12]
  0003a	8b 4a c8	 mov	 ecx, DWORD PTR [edx-56]
  0003d	33 c8		 xor	 ecx, eax
  0003f	e8 00 00 00 00	 call	 @__security_check_cookie@4
  00044	b8 00 00 00 00	 mov	 eax, OFFSET __ehfuncinfo$?BuildElementsFromString_ForUndoRedo@CElementTreeBuilder@@QAEJAAVCAnalysisData@@ABVCBlockIndex@@ABV?$CStringT@DV?$StrTraitMFC_DLL@DV?$ChTraitsCRT@D@ATL@@@@@ATL@@AAVCTree@@AAVCOrder@@@Z
  00049	e9 00 00 00 00	 jmp	 ___CxxFrameHandler3
text$x	ENDS
?BuildElementsFromString_ForUndoRedo@CElementTreeBuilder@@QAEJAAVCAnalysisData@@ABVCBlockIndex@@ABV?$CStringT@DV?$StrTraitMFC_DLL@DV?$ChTraitsCRT@D@ATL@@@@@ATL@@AAVCTree@@AAVCOrder@@@Z ENDP ; CElementTreeBuilder::BuildElementsFromString_ForUndoRedo
; Function compile flags: /Ogtp
; File D:\git\src\IBK\IBK_DRFN\ProjSrc\SrcChartEx\ChartAddIn\ChartAnalysisToolAddIn\AnalysisTool\ElementTreeBuilder.cpp
; File C:\Program Files (x86)\Microsoft Visual Studio\2019\Community\VC\Tools\MSVC\14.29.30133\include\xmemory
; File C:\Program Files (x86)\Microsoft Visual Studio\2019\Community\VC\Tools\MSVC\14.29.30133\include\deque
; File C:\Program Files (x86)\Microsoft Visual Studio\2019\Community\VC\Tools\MSVC\14.29.30133\include\xmemory
; File D:\git\src\IBK\IBK_DRFN\ProjSrc\SrcChartEx\ChartAddIn\ChartAnalysisToolAddIn\AnalysisTool\ElementTreeBuilder.cpp
; File C:\Program Files (x86)\Microsoft Visual Studio\2019\Community\VC\Tools\MSVC\14.29.30133\atlmfc\include\atlsimpstr.h
; File D:\git\src\IBK\IBK_DRFN\ProjSrc\SrcChartEx\ChartAddIn\ChartAnalysisToolAddIn\AnalysisTool\ElementTreeBuilder.cpp
; File C:\Program Files (x86)\Microsoft Visual Studio\2019\Community\VC\Tools\MSVC\14.29.30133\atlmfc\include\atlsimpstr.h
; File D:\git\src\IBK\IBK_DRFN\ProjSrc\SrcChartEx\ChartAddIn\ChartAnalysisToolAddIn\AnalysisTool\ElementTreeBuilder.cpp
; File C:\Program Files (x86)\Microsoft Visual Studio\2019\Community\VC\Tools\MSVC\14.29.30133\include\deque
; File C:\Program Files (x86)\Microsoft Visual Studio\2019\Community\VC\Tools\MSVC\14.29.30133\include\xmemory
; File C:\Program Files (x86)\Microsoft Visual Studio\2019\Community\VC\Tools\MSVC\14.29.30133\include\deque
; File C:\Program Files (x86)\Microsoft Visual Studio\2019\Community\VC\Tools\MSVC\14.29.30133\include\xmemory
; File C:\Program Files (x86)\Microsoft Visual Studio\2019\Community\VC\Tools\MSVC\14.29.30133\include\deque
; File C:\Program Files (x86)\Microsoft Visual Studio\2019\Community\VC\Tools\MSVC\14.29.30133\include\utility
; File C:\Program Files (x86)\Microsoft Visual Studio\2019\Community\VC\Tools\MSVC\14.29.30133\include\xmemory
; File C:\Program Files (x86)\Microsoft Visual Studio\2019\Community\VC\Tools\MSVC\14.29.30133\include\deque
; File C:\Program Files (x86)\Microsoft Visual Studio\2019\Community\VC\Tools\MSVC\14.29.30133\include\utility
; File C:\Program Files (x86)\Microsoft Visual Studio\2019\Community\VC\Tools\MSVC\14.29.30133\include\xmemory
; File D:\git\src\IBK\IBK_DRFN\ProjSrc\SrcChartEx\ChartAddIn\ChartAnalysisToolAddIn\AnalysisTool\ElementTreeBuilder.cpp
;	COMDAT ?BuildElementsFromString@CElementTreeBuilder@@QAE_NAAVCAnalysisData@@ABV?$CStringT@DV?$StrTraitMFC_DLL@DV?$ChTraitsCRT@D@ATL@@@@@ATL@@AAVCTree@@AAVCOrder@@@Z
_TEXT	SEGMENT
_elementAndOrderSet$ = -48				; size = 20
$T2 = -24						; size = 4
_columnsData$3 = -20					; size = 4
_columnData$4 = -16					; size = 4
__$EHRec$ = -12						; size = 12
_analysisData$ = 8					; size = 4
$T5 = 12						; size = 4
_strElementsData$ = 12					; size = 4
_elementTree$ = 16					; size = 4
_elementOrder$ = 20					; size = 4
?BuildElementsFromString@CElementTreeBuilder@@QAE_NAAVCAnalysisData@@ABV?$CStringT@DV?$StrTraitMFC_DLL@DV?$ChTraitsCRT@D@ATL@@@@@ATL@@AAVCTree@@AAVCOrder@@@Z PROC ; CElementTreeBuilder::BuildElementsFromString, COMDAT
; _this$ = ecx

; 167  : {

  00000	55		 push	 ebp
  00001	8b ec		 mov	 ebp, esp
  00003	6a ff		 push	 -1
  00005	68 00 00 00 00	 push	 __ehhandler$?BuildElementsFromString@CElementTreeBuilder@@QAE_NAAVCAnalysisData@@ABV?$CStringT@DV?$StrTraitMFC_DLL@DV?$ChTraitsCRT@D@ATL@@@@@ATL@@AAVCTree@@AAVCOrder@@@Z
  0000a	64 a1 00 00 00
	00		 mov	 eax, DWORD PTR fs:0
  00010	50		 push	 eax
  00011	83 ec 24	 sub	 esp, 36			; 00000024H
  00014	53		 push	 ebx
  00015	56		 push	 esi
  00016	57		 push	 edi
  00017	a1 00 00 00 00	 mov	 eax, DWORD PTR ___security_cookie
  0001c	33 c5		 xor	 eax, ebp
  0001e	50		 push	 eax
  0001f	8d 45 f4	 lea	 eax, DWORD PTR __$EHRec$[ebp]
  00022	64 a3 00 00 00
	00		 mov	 DWORD PTR fs:0, eax
  00028	8b d9		 mov	 ebx, ecx
; File C:\Program Files (x86)\Microsoft Visual Studio\2019\Community\VC\Tools\MSVC\14.29.30133\include\xmemory

; 79   :         return ::operator new(_Bytes);

  0002a	6a 08		 push	 8

; 1033 :     _Container_proxy* _Myproxy = nullptr;

  0002c	c7 45 d0 00 00
	00 00		 mov	 DWORD PTR _elementAndOrderSet$[ebp], 0
; File C:\Program Files (x86)\Microsoft Visual Studio\2019\Community\VC\Tools\MSVC\14.29.30133\include\deque

; 555  :     _Deque_val() noexcept : _Map(), _Mapsize(0), _Myoff(0), _Mysize(0) {}

  00033	c7 45 d4 00 00
	00 00		 mov	 DWORD PTR _elementAndOrderSet$[ebp+4], 0
  0003a	c7 45 d8 00 00
	00 00		 mov	 DWORD PTR _elementAndOrderSet$[ebp+8], 0
  00041	c7 45 dc 00 00
	00 00		 mov	 DWORD PTR _elementAndOrderSet$[ebp+12], 0
  00048	c7 45 e0 00 00
	00 00		 mov	 DWORD PTR _elementAndOrderSet$[ebp+16], 0
; File C:\Program Files (x86)\Microsoft Visual Studio\2019\Community\VC\Tools\MSVC\14.29.30133\include\xmemory

; 79   :         return ::operator new(_Bytes);

  0004f	e8 00 00 00 00	 call	 ??2@YAPAXI@Z		; operator new

; 1021 :         _New_proxy->_Mycont = this;

  00054	8d 4d d0	 lea	 ecx, DWORD PTR _elementAndOrderSet$[ebp]

; 79   :         return ::operator new(_Bytes);

  00057	83 c4 04	 add	 esp, 4

; 1003 :     mutable _Iterator_base12* _Myfirstiter = nullptr;

  0005a	c7 40 04 00 00
	00 00		 mov	 DWORD PTR [eax+4], 0

; 1020 :         _Myproxy            = _New_proxy;

  00061	89 45 d0	 mov	 DWORD PTR _elementAndOrderSet$[ebp], eax

; 1021 :         _New_proxy->_Mycont = this;

  00064	89 08		 mov	 DWORD PTR [eax], ecx
; File D:\git\src\IBK\IBK_DRFN\ProjSrc\SrcChartEx\ChartAddIn\ChartAnalysisToolAddIn\AnalysisTool\ElementTreeBuilder.cpp

; 220  : 	int nTotalCount = CDataConversion::GetStringDataCount(strElementsData, "<Column>\r\n");

  00066	68 00 00 00 00	 push	 OFFSET ??_C@_0L@JOAAOIF@?$DMColumn?$DO?$AN?6@
  0006b	8d 4d e8	 lea	 ecx, DWORD PTR $T2[ebp]

; 168  : 	CElementAndOrderSet elementAndOrderSet;

  0006e	c7 45 fc 00 00
	00 00		 mov	 DWORD PTR __$EHRec$[ebp+8], 0

; 220  : 	int nTotalCount = CDataConversion::GetStringDataCount(strElementsData, "<Column>\r\n");

  00075	ff 15 00 00 00
	00		 call	 DWORD PTR __imp_??0?$CStringT@DV?$StrTraitMFC_DLL@DV?$ChTraitsCRT@D@ATL@@@@@ATL@@QAE@PBD@Z
  0007b	8b 75 0c	 mov	 esi, DWORD PTR _strElementsData$[ebp]
  0007e	8d 45 e8	 lea	 eax, DWORD PTR $T2[ebp]
  00081	50		 push	 eax
  00082	56		 push	 esi
  00083	c6 45 fc 01	 mov	 BYTE PTR __$EHRec$[ebp+8], 1
  00087	e8 00 00 00 00	 call	 ?GetStringDataCount@CDataConversion@@SAHABV?$CStringT@DV?$StrTraitMFC_DLL@DV?$ChTraitsCRT@D@ATL@@@@@ATL@@0@Z ; CDataConversion::GetStringDataCount
  0008c	83 c4 08	 add	 esp, 8
  0008f	c6 45 fc 00	 mov	 BYTE PTR __$EHRec$[ebp+8], 0
  00093	8d 4d e8	 lea	 ecx, DWORD PTR $T2[ebp]
  00096	8b f8		 mov	 edi, eax
  00098	ff 15 00 00 00
	00		 call	 DWORD PTR __imp_??1?$CStringT@DV?$StrTraitMFC_DLL@DV?$ChTraitsCRT@D@ATL@@@@@ATL@@QAE@XZ

; 221  : 	CString columnsData = strElementsData;

  0009e	56		 push	 esi
  0009f	8d 4d ec	 lea	 ecx, DWORD PTR _columnsData$3[ebp]
  000a2	ff 15 00 00 00
	00		 call	 DWORD PTR __imp_??0?$CStringT@DV?$StrTraitMFC_DLL@DV?$ChTraitsCRT@D@ATL@@@@@ATL@@QAE@ABV01@@Z

; 222  : 	for(int nIndex = 0; nIndex < nTotalCount; nIndex++)

  000a8	33 f6		 xor	 esi, esi
  000aa	c6 45 fc 02	 mov	 BYTE PTR __$EHRec$[ebp+8], 2
  000ae	85 ff		 test	 edi, edi
  000b0	7e 75		 jle	 SHORT $LN59@BuildEleme
$LL60@BuildEleme:

; 224  : 		CString columnData = GetTrimData(columnsData, "<\\Column>\r\n");

  000b2	68 00 00 00 00	 push	 OFFSET ??_C@_0M@FIEFJELL@?$DM?2Column?$DO?$AN?6@
  000b7	8d 4d 0c	 lea	 ecx, DWORD PTR $T5[ebp]
  000ba	ff 15 00 00 00
	00		 call	 DWORD PTR __imp_??0?$CStringT@DV?$StrTraitMFC_DLL@DV?$ChTraitsCRT@D@ATL@@@@@ATL@@QAE@PBD@Z
; File C:\Program Files (x86)\Microsoft Visual Studio\2019\Community\VC\Tools\MSVC\14.29.30133\atlmfc\include\atlsimpstr.h

; 519  : 		return( GetData()->nDataLength );

  000c0	8b 45 0c	 mov	 eax, DWORD PTR $T5[ebp]
; File D:\git\src\IBK\IBK_DRFN\ProjSrc\SrcChartEx\ChartAddIn\ChartAnalysisToolAddIn\AnalysisTool\ElementTreeBuilder.cpp

; 224  : 		CString columnData = GetTrimData(columnsData, "<\\Column>\r\n");

  000c3	c6 45 fc 03	 mov	 BYTE PTR __$EHRec$[ebp+8], 3
; File C:\Program Files (x86)\Microsoft Visual Studio\2019\Community\VC\Tools\MSVC\14.29.30133\atlmfc\include\atlsimpstr.h

; 533  : 		return( GetLength() == 0 );

  000c7	83 78 f4 00	 cmp	 DWORD PTR [eax-12], 0
; File D:\git\src\IBK\IBK_DRFN\ProjSrc\SrcChartEx\ChartAddIn\ChartAnalysisToolAddIn\AnalysisTool\ElementTreeBuilder.cpp

; 810  : 	if(strTrimData.IsEmpty())

  000cb	75 0f		 jne	 SHORT $LN67@BuildEleme

; 811  : 		return strData;

  000cd	8d 45 ec	 lea	 eax, DWORD PTR _columnsData$3[ebp]
  000d0	50		 push	 eax
  000d1	8d 4d f0	 lea	 ecx, DWORD PTR _columnData$4[ebp]
  000d4	ff 15 00 00 00
	00		 call	 DWORD PTR __imp_??0?$CStringT@DV?$StrTraitMFC_DLL@DV?$ChTraitsCRT@D@ATL@@@@@ATL@@QAE@ABV01@@Z
  000da	eb 16		 jmp	 SHORT $LN66@BuildEleme
$LN67@BuildEleme:

; 812  : 
; 813  : 	return CDataConversion::GetStringData(strData, strTrimData, false);

  000dc	6a 00		 push	 0
  000de	8d 45 0c	 lea	 eax, DWORD PTR $T5[ebp]
  000e1	50		 push	 eax
  000e2	8d 45 ec	 lea	 eax, DWORD PTR _columnsData$3[ebp]
  000e5	50		 push	 eax
  000e6	8d 45 f0	 lea	 eax, DWORD PTR _columnData$4[ebp]
  000e9	50		 push	 eax
  000ea	e8 00 00 00 00	 call	 ?GetStringData@CDataConversion@@SA?AV?$CStringT@DV?$StrTraitMFC_DLL@DV?$ChTraitsCRT@D@ATL@@@@@ATL@@AAV23@ABV23@_N@Z ; CDataConversion::GetStringData
  000ef	83 c4 10	 add	 esp, 16			; 00000010H
$LN66@BuildEleme:

; 224  : 		CString columnData = GetTrimData(columnsData, "<\\Column>\r\n");

  000f2	8d 4d 0c	 lea	 ecx, DWORD PTR $T5[ebp]
  000f5	c6 45 fc 05	 mov	 BYTE PTR __$EHRec$[ebp+8], 5
  000f9	ff 15 00 00 00
	00		 call	 DWORD PTR __imp_??1?$CStringT@DV?$StrTraitMFC_DLL@DV?$ChTraitsCRT@D@ATL@@@@@ATL@@QAE@XZ

; 225  : 		BuildElementsFromString_Column(analysisData,nIndex, columnData, elementTree, elementAndOrderSet);

  000ff	8d 45 d0	 lea	 eax, DWORD PTR _elementAndOrderSet$[ebp]
  00102	8b cb		 mov	 ecx, ebx
  00104	50		 push	 eax
  00105	ff 75 10	 push	 DWORD PTR _elementTree$[ebp]
  00108	8d 45 f0	 lea	 eax, DWORD PTR _columnData$4[ebp]
  0010b	50		 push	 eax
  0010c	56		 push	 esi
  0010d	ff 75 08	 push	 DWORD PTR _analysisData$[ebp]
  00110	e8 00 00 00 00	 call	 ?BuildElementsFromString_Column@CElementTreeBuilder@@AAEXAAVCAnalysisData@@HABV?$CStringT@DV?$StrTraitMFC_DLL@DV?$ChTraitsCRT@D@ATL@@@@@ATL@@AAVCTree@@AAVCElementAndOrderSet@@@Z ; CElementTreeBuilder::BuildElementsFromString_Column

; 226  : 	}

  00115	8d 4d f0	 lea	 ecx, DWORD PTR _columnData$4[ebp]
  00118	c6 45 fc 02	 mov	 BYTE PTR __$EHRec$[ebp+8], 2
  0011c	ff 15 00 00 00
	00		 call	 DWORD PTR __imp_??1?$CStringT@DV?$StrTraitMFC_DLL@DV?$ChTraitsCRT@D@ATL@@@@@ATL@@QAE@XZ
  00122	46		 inc	 esi
  00123	3b f7		 cmp	 esi, edi
  00125	7c 8b		 jl	 SHORT $LL60@BuildEleme
$LN59@BuildEleme:

; 227  : 
; 228  : 	return (nTotalCount > 0);

  00127	8d 4d ec	 lea	 ecx, DWORD PTR _columnsData$3[ebp]
  0012a	c6 45 fc 00	 mov	 BYTE PTR __$EHRec$[ebp+8], 0
  0012e	ff 15 00 00 00
	00		 call	 DWORD PTR __imp_??1?$CStringT@DV?$StrTraitMFC_DLL@DV?$ChTraitsCRT@D@ATL@@@@@ATL@@QAE@XZ

; 169  : 	// CTree 
; 170  : 	if(!BuildElementsFromString(analysisData,strElementsData, elementTree, elementAndOrderSet))

  00134	85 ff		 test	 edi, edi
  00136	7f 04		 jg	 SHORT $LN2@BuildEleme
  00138	32 db		 xor	 bl, bl
  0013a	eb 13		 jmp	 SHORT $LN5@BuildEleme
$LN2@BuildEleme:

; 171  : 		return false;
; 172  : 
; 173  : 	// COrder 
; 174  : 	BuildElementsFromString(analysisData,elementAndOrderSet, elementOrder);

  0013c	ff 75 14	 push	 DWORD PTR _elementOrder$[ebp]
  0013f	8d 45 d0	 lea	 eax, DWORD PTR _elementAndOrderSet$[ebp]
  00142	8b cb		 mov	 ecx, ebx
  00144	50		 push	 eax
  00145	ff 75 08	 push	 DWORD PTR _analysisData$[ebp]
  00148	e8 00 00 00 00	 call	 ?BuildElementsFromString@CElementTreeBuilder@@AAEXAAVCAnalysisData@@ABVCElementAndOrderSet@@AAVCOrder@@@Z ; CElementTreeBuilder::BuildElementsFromString

; 176  : 	return true;

  0014d	b3 01		 mov	 bl, 1
$LN5@BuildEleme:
; File C:\Program Files (x86)\Microsoft Visual Studio\2019\Community\VC\Tools\MSVC\14.29.30133\include\deque

; 1002 :         return _Mysize() == 0;

  0014f	8b 45 e0	 mov	 eax, DWORD PTR _elementAndOrderSet$[ebp+16]
  00152	85 c0		 test	 eax, eax

; 1475 :         while (!empty()) {

  00154	74 0f		 je	 SHORT $LN240@BuildEleme
$LL86@BuildEleme:

; 1146 :         if (--_Mysize() == 0) {

  00156	83 c0 ff	 add	 eax, -1
  00159	89 45 e0	 mov	 DWORD PTR _elementAndOrderSet$[ebp+16], eax
  0015c	75 f8		 jne	 SHORT $LL86@BuildEleme

; 1147 :             _Myoff() = 0;

  0015e	c7 45 dc 00 00
	00 00		 mov	 DWORD PTR _elementAndOrderSet$[ebp+12], 0
$LN240@BuildEleme:

; 1479 :         for (size_type _Block = _Mapsize(); 0 < _Block;) { // free storage for a block and destroy pointer

  00165	8b 75 d8	 mov	 esi, DWORD PTR _elementAndOrderSet$[ebp+8]
  00168	8b 4d d4	 mov	 ecx, DWORD PTR _elementAndOrderSet$[ebp+4]
  0016b	85 f6		 test	 esi, esi
  0016d	74 22		 je	 SHORT $LN89@BuildEleme
  0016f	90		 npad	 1
$LL88@BuildEleme:

; 1480 :             if (_Map()[--_Block]) { // free block and destroy its pointer

  00170	8b 44 b1 fc	 mov	 eax, DWORD PTR [ecx+esi*4-4]
  00174	4e		 dec	 esi
  00175	85 c0		 test	 eax, eax
  00177	74 0e		 je	 SHORT $LN107@BuildEleme
; File C:\Program Files (x86)\Microsoft Visual Studio\2019\Community\VC\Tools\MSVC\14.29.30133\include\xmemory

; 255  :         ::operator delete(_Ptr, _Bytes);

  00179	6a 10		 push	 16			; 00000010H
  0017b	50		 push	 eax
  0017c	e8 00 00 00 00	 call	 ??3@YAXPAXI@Z		; operator delete
  00181	8b 4d d4	 mov	 ecx, DWORD PTR _elementAndOrderSet$[ebp+4]
  00184	83 c4 08	 add	 esp, 8
$LN107@BuildEleme:
; File C:\Program Files (x86)\Microsoft Visual Studio\2019\Community\VC\Tools\MSVC\14.29.30133\include\deque

; 1479 :         for (size_type _Block = _Mapsize(); 0 < _Block;) { // free storage for a block and destroy pointer

  00187	85 f6		 test	 esi, esi
  00189	75 e5		 jne	 SHORT $LL88@BuildEleme
  0018b	8b 45 e0	 mov	 eax, DWORD PTR _elementAndOrderSet$[ebp+16]
  0018e	8b 75 d8	 mov	 esi, DWORD PTR _elementAndOrderSet$[ebp+8]
$LN89@BuildEleme:

; 1481 :                 _Getal().deallocate(_Map()[_Block], _Block_size);
; 1482 :                 _Destroy_in_place(_Map()[_Block]);
; 1483 :             }
; 1484 :         }
; 1485 : 
; 1486 :         if (_Map() != _Mapptr()) {

  00191	85 c9		 test	 ecx, ecx
  00193	74 30		 je	 SHORT $LN125@BuildEleme
; File C:\Program Files (x86)\Microsoft Visual Studio\2019\Community\VC\Tools\MSVC\14.29.30133\include\xmemory

; 797  :         _Deallocate<_New_alignof<_Ty>>(_Ptr, sizeof(_Ty) * _Count);

  00195	c1 e6 02	 shl	 esi, 2
  00198	8b c1		 mov	 eax, ecx

; 251  :         if (_Bytes >= _Big_allocation_threshold) { // boost the alignment of big allocations to help autovectorization

  0019a	81 fe 00 10 00
	00		 cmp	 esi, 4096		; 00001000H
  001a0	72 16		 jb	 SHORT $LN135@BuildEleme

; 150  :     const uintptr_t _Ptr_container   = _Ptr_user[-1];

  001a2	8b 49 fc	 mov	 ecx, DWORD PTR [ecx-4]
  001a5	83 c6 23	 add	 esi, 35			; 00000023H
  001a8	2b c1		 sub	 eax, ecx

; 151  : 
; 152  :     // If the following asserts, it likely means that we are performing
; 153  :     // an aligned delete on memory coming from an unaligned allocation.
; 154  :     _STL_ASSERT(_Ptr_user[-2] == _Big_allocation_sentinel, "invalid argument");
; 155  : 
; 156  :     // Extra paranoia on aligned allocation/deallocation; ensure _Ptr_container is
; 157  :     // in range [_Min_back_shift, _Non_user_size]
; 158  : #ifdef _DEBUG
; 159  :     constexpr uintptr_t _Min_back_shift = 2 * sizeof(void*);
; 160  : #else // ^^^ _DEBUG ^^^ // vvv !_DEBUG vvv
; 161  :     constexpr uintptr_t _Min_back_shift = sizeof(void*);
; 162  : #endif // _DEBUG
; 163  :     const uintptr_t _Back_shift = reinterpret_cast<uintptr_t>(_Ptr) - _Ptr_container;
; 164  :     _STL_VERIFY(_Back_shift >= _Min_back_shift && _Back_shift <= _Non_user_size, "invalid argument");

  001aa	83 c0 fc	 add	 eax, -4			; fffffffcH
  001ad	83 f8 1f	 cmp	 eax, 31			; 0000001fH
  001b0	76 06		 jbe	 SHORT $LN135@BuildEleme
  001b2	ff 15 00 00 00
	00		 call	 DWORD PTR __imp___invalid_parameter_noinfo_noreturn
$LN135@BuildEleme:

; 255  :         ::operator delete(_Ptr, _Bytes);

  001b8	56		 push	 esi
  001b9	51		 push	 ecx
  001ba	e8 00 00 00 00	 call	 ??3@YAXPAXI@Z		; operator delete
  001bf	8b 45 e0	 mov	 eax, DWORD PTR _elementAndOrderSet$[ebp+16]
  001c2	83 c4 08	 add	 esp, 8
$LN125@BuildEleme:
; File C:\Program Files (x86)\Microsoft Visual Studio\2019\Community\VC\Tools\MSVC\14.29.30133\include\deque

; 1002 :         return _Mysize() == 0;

  001c5	85 c0		 test	 eax, eax

; 1475 :         while (!empty()) {

  001c7	74 12		 je	 SHORT $LN239@BuildEleme
  001c9	0f 1f 80 00 00
	00 00		 npad	 7
$LL143@BuildEleme:

; 1146 :         if (--_Mysize() == 0) {

  001d0	83 c0 ff	 add	 eax, -1
  001d3	75 fb		 jne	 SHORT $LL143@BuildEleme
  001d5	89 45 e0	 mov	 DWORD PTR _elementAndOrderSet$[ebp+16], eax

; 1147 :             _Myoff() = 0;

  001d8	89 45 dc	 mov	 DWORD PTR _elementAndOrderSet$[ebp+12], eax
$LN239@BuildEleme:
; File C:\Program Files (x86)\Microsoft Visual Studio\2019\Community\VC\Tools\MSVC\14.29.30133\include\utility

; 602  :     _Ty _Old_val = static_cast<_Ty&&>(_Val);

  001db	8b 4d d0	 mov	 ecx, DWORD PTR _elementAndOrderSet$[ebp]
; File C:\Program Files (x86)\Microsoft Visual Studio\2019\Community\VC\Tools\MSVC\14.29.30133\include\xmemory

; 255  :         ::operator delete(_Ptr, _Bytes);

  001de	6a 08		 push	 8
  001e0	51		 push	 ecx
; File C:\Program Files (x86)\Microsoft Visual Studio\2019\Community\VC\Tools\MSVC\14.29.30133\include\deque

; 1490 :         _Mapsize() = 0;

  001e1	c7 45 d8 00 00
	00 00		 mov	 DWORD PTR _elementAndOrderSet$[ebp+8], 0

; 1491 :         _Map()     = _Mapptr();

  001e8	c7 45 d4 00 00
	00 00		 mov	 DWORD PTR _elementAndOrderSet$[ebp+4], 0
; File C:\Program Files (x86)\Microsoft Visual Studio\2019\Community\VC\Tools\MSVC\14.29.30133\include\utility

; 603  :     _Val         = static_cast<_Other&&>(_New_val);

  001ef	c7 45 d0 00 00
	00 00		 mov	 DWORD PTR _elementAndOrderSet$[ebp], 0
; File C:\Program Files (x86)\Microsoft Visual Studio\2019\Community\VC\Tools\MSVC\14.29.30133\include\xmemory

; 255  :         ::operator delete(_Ptr, _Bytes);

  001f6	e8 00 00 00 00	 call	 ??3@YAXPAXI@Z		; operator delete
  001fb	83 c4 08	 add	 esp, 8
; File D:\git\src\IBK\IBK_DRFN\ProjSrc\SrcChartEx\ChartAddIn\ChartAnalysisToolAddIn\AnalysisTool\ElementTreeBuilder.cpp

; 176  : 	return true;

  001fe	8a c3		 mov	 al, bl

; 177  : }

  00200	8b 4d f4	 mov	 ecx, DWORD PTR __$EHRec$[ebp]
  00203	64 89 0d 00 00
	00 00		 mov	 DWORD PTR fs:0, ecx
  0020a	59		 pop	 ecx
  0020b	5f		 pop	 edi
  0020c	5e		 pop	 esi
  0020d	5b		 pop	 ebx
  0020e	8b e5		 mov	 esp, ebp
  00210	5d		 pop	 ebp
  00211	c2 10 00	 ret	 16			; 00000010H
$LN245@BuildEleme:
_TEXT	ENDS
;	COMDAT text$x
text$x	SEGMENT
__unwindfunclet$?BuildElementsFromString@CElementTreeBuilder@@QAE_NAAVCAnalysisData@@ABV?$CStringT@DV?$StrTraitMFC_DLL@DV?$ChTraitsCRT@D@ATL@@@@@ATL@@AAVCTree@@AAVCOrder@@@Z$0:
  00000	8d 4d d0	 lea	 ecx, DWORD PTR _elementAndOrderSet$[ebp]
  00003	e9 00 00 00 00	 jmp	 ??1CElementAndOrderSet@@QAE@XZ
__unwindfunclet$?BuildElementsFromString@CElementTreeBuilder@@QAE_NAAVCAnalysisData@@ABV?$CStringT@DV?$StrTraitMFC_DLL@DV?$ChTraitsCRT@D@ATL@@@@@ATL@@AAVCTree@@AAVCOrder@@@Z$3:
  00008	8d 4d e8	 lea	 ecx, DWORD PTR $T2[ebp]
  0000b	ff 25 00 00 00
	00		 jmp	 DWORD PTR __imp_??1?$CStringT@DV?$StrTraitMFC_DLL@DV?$ChTraitsCRT@D@ATL@@@@@ATL@@QAE@XZ
__unwindfunclet$?BuildElementsFromString@CElementTreeBuilder@@QAE_NAAVCAnalysisData@@ABV?$CStringT@DV?$StrTraitMFC_DLL@DV?$ChTraitsCRT@D@ATL@@@@@ATL@@AAVCTree@@AAVCOrder@@@Z$4:
  00011	8d 4d ec	 lea	 ecx, DWORD PTR _columnsData$3[ebp]
  00014	ff 25 00 00 00
	00		 jmp	 DWORD PTR __imp_??1?$CStringT@DV?$StrTraitMFC_DLL@DV?$ChTraitsCRT@D@ATL@@@@@ATL@@QAE@XZ
__unwindfunclet$?BuildElementsFromString@CElementTreeBuilder@@QAE_NAAVCAnalysisData@@ABV?$CStringT@DV?$StrTraitMFC_DLL@DV?$ChTraitsCRT@D@ATL@@@@@ATL@@AAVCTree@@AAVCOrder@@@Z$5:
  0001a	8d 4d 0c	 lea	 ecx, DWORD PTR $T5[ebp]
  0001d	ff 25 00 00 00
	00		 jmp	 DWORD PTR __imp_??1?$CStringT@DV?$StrTraitMFC_DLL@DV?$ChTraitsCRT@D@ATL@@@@@ATL@@QAE@XZ
__unwindfunclet$?BuildElementsFromString@CElementTreeBuilder@@QAE_NAAVCAnalysisData@@ABV?$CStringT@DV?$StrTraitMFC_DLL@DV?$ChTraitsCRT@D@ATL@@@@@ATL@@AAVCTree@@AAVCOrder@@@Z$6:
  00023	8d 4d f0	 lea	 ecx, DWORD PTR _columnData$4[ebp]
  00026	ff 25 00 00 00
	00		 jmp	 DWORD PTR __imp_??1?$CStringT@DV?$StrTraitMFC_DLL@DV?$ChTraitsCRT@D@ATL@@@@@ATL@@QAE@XZ
  0002c	cc		 int	 3
  0002d	cc		 int	 3
  0002e	cc		 int	 3
  0002f	cc		 int	 3
  00030	cc		 int	 3
__ehhandler$?BuildElementsFromString@CElementTreeBuilder@@QAE_NAAVCAnalysisData@@ABV?$CStringT@DV?$StrTraitMFC_DLL@DV?$ChTraitsCRT@D@ATL@@@@@ATL@@AAVCTree@@AAVCOrder@@@Z:
  00031	90		 npad	 1
  00032	90		 npad	 1
  00033	8b 54 24 08	 mov	 edx, DWORD PTR [esp+8]
  00037	8d 42 0c	 lea	 eax, DWORD PTR [edx+12]
  0003a	8b 4a cc	 mov	 ecx, DWORD PTR [edx-52]
  0003d	33 c8		 xor	 ecx, eax
  0003f	e8 00 00 00 00	 call	 @__security_check_cookie@4
  00044	b8 00 00 00 00	 mov	 eax, OFFSET __ehfuncinfo$?BuildElementsFromString@CElementTreeBuilder@@QAE_NAAVCAnalysisData@@ABV?$CStringT@DV?$StrTraitMFC_DLL@DV?$ChTraitsCRT@D@ATL@@@@@ATL@@AAVCTree@@AAVCOrder@@@Z
  00049	e9 00 00 00 00	 jmp	 ___CxxFrameHandler3
text$x	ENDS
?BuildElementsFromString@CElementTreeBuilder@@QAE_NAAVCAnalysisData@@ABV?$CStringT@DV?$StrTraitMFC_DLL@DV?$ChTraitsCRT@D@ATL@@@@@ATL@@AAVCTree@@AAVCOrder@@@Z ENDP ; CElementTreeBuilder::BuildElementsFromString
; Function compile flags: /Ogtp
; File C:\Program Files (x86)\Microsoft Visual Studio\2019\Community\VC\Tools\MSVC\14.29.30133\include\deque
; File C:\Program Files (x86)\Microsoft Visual Studio\2019\Community\VC\Tools\MSVC\14.29.30133\include\utility
; File C:\Program Files (x86)\Microsoft Visual Studio\2019\Community\VC\Tools\MSVC\14.29.30133\include\xmemory
; File C:\Program Files (x86)\Microsoft Visual Studio\2019\Community\VC\Tools\MSVC\14.29.30133\include\utility
; File C:\Program Files (x86)\Microsoft Visual Studio\2019\Community\VC\Tools\MSVC\14.29.30133\include\xmemory
;	COMDAT ??1CElementAndOrderSet@@QAE@XZ
_TEXT	SEGMENT
??1CElementAndOrderSet@@QAE@XZ PROC			; CElementAndOrderSet::~CElementAndOrderSet, COMDAT
; _this$ = ecx
; File C:\Program Files (x86)\Microsoft Visual Studio\2019\Community\VC\Tools\MSVC\14.29.30133\include\deque

; 1332 :         _Tidy();

  00000	56		 push	 esi
  00001	8b f1		 mov	 esi, ecx
  00003	e8 00 00 00 00	 call	 ?_Tidy@?$deque@VCElementAndOrder@@V?$allocator@VCElementAndOrder@@@std@@@std@@AAEXXZ ; std::deque<CElementAndOrder,std::allocator<CElementAndOrder> >::_Tidy

; 861  :         _Tidy();

  00008	8b ce		 mov	 ecx, esi
  0000a	e8 00 00 00 00	 call	 ?_Tidy@?$deque@VCElementAndOrder@@V?$allocator@VCElementAndOrder@@@std@@@std@@AAEXXZ ; std::deque<CElementAndOrder,std::allocator<CElementAndOrder> >::_Tidy
; File C:\Program Files (x86)\Microsoft Visual Studio\2019\Community\VC\Tools\MSVC\14.29.30133\include\utility

; 602  :     _Ty _Old_val = static_cast<_Ty&&>(_Val);

  0000f	8b 06		 mov	 eax, DWORD PTR [esi]
; File C:\Program Files (x86)\Microsoft Visual Studio\2019\Community\VC\Tools\MSVC\14.29.30133\include\xmemory

; 255  :         ::operator delete(_Ptr, _Bytes);

  00011	6a 08		 push	 8
  00013	50		 push	 eax
; File C:\Program Files (x86)\Microsoft Visual Studio\2019\Community\VC\Tools\MSVC\14.29.30133\include\utility

; 603  :     _Val         = static_cast<_Other&&>(_New_val);

  00014	c7 06 00 00 00
	00		 mov	 DWORD PTR [esi], 0
; File C:\Program Files (x86)\Microsoft Visual Studio\2019\Community\VC\Tools\MSVC\14.29.30133\include\xmemory

; 255  :         ::operator delete(_Ptr, _Bytes);

  0001a	e8 00 00 00 00	 call	 ??3@YAXPAXI@Z		; operator delete
  0001f	83 c4 08	 add	 esp, 8
  00022	5e		 pop	 esi
  00023	c3		 ret	 0
??1CElementAndOrderSet@@QAE@XZ ENDP			; CElementAndOrderSet::~CElementAndOrderSet
_TEXT	ENDS
; Function compile flags: /Ogtp
; File C:\Program Files (x86)\Microsoft Visual Studio\2019\Community\VC\Tools\MSVC\14.29.30133\include\deque
; File C:\Program Files (x86)\Microsoft Visual Studio\2019\Community\VC\Tools\MSVC\14.29.30133\include\xmemory
; File C:\Program Files (x86)\Microsoft Visual Studio\2019\Community\VC\Tools\MSVC\14.29.30133\include\deque
; File C:\Program Files (x86)\Microsoft Visual Studio\2019\Community\VC\Tools\MSVC\14.29.30133\include\xmemory
; File C:\Program Files (x86)\Microsoft Visual Studio\2019\Community\VC\Tools\MSVC\14.29.30133\include\deque
; File C:\Program Files (x86)\Microsoft Visual Studio\2019\Community\VC\Tools\MSVC\14.29.30133\include\xmemory
; File C:\Program Files (x86)\Microsoft Visual Studio\2019\Community\VC\Tools\MSVC\14.29.30133\include\deque
;	COMDAT ?_Tidy@?$deque@VCElementAndOrder@@V?$allocator@VCElementAndOrder@@@std@@@std@@AAEXXZ
_TEXT	SEGMENT
?_Tidy@?$deque@VCElementAndOrder@@V?$allocator@VCElementAndOrder@@@std@@@std@@AAEXXZ PROC ; std::deque<CElementAndOrder,std::allocator<CElementAndOrder> >::_Tidy, COMDAT
; _this$ = ecx

; 1471 :     void _Tidy() noexcept { // free all storage

  00000	57		 push	 edi
  00001	8b f9		 mov	 edi, ecx

; 1002 :         return _Mysize() == 0;

  00003	8b 4f 10	 mov	 ecx, DWORD PTR [edi+16]
  00006	85 c9		 test	 ecx, ecx

; 1472 :         _Orphan_all();
; 1473 : 
; 1474 :         _Alpty _Almap(_Getal());
; 1475 :         while (!empty()) {

  00008	74 15		 je	 SHORT $LN60@Tidy
  0000a	66 0f 1f 44 00
	00		 npad	 6
$LL2@Tidy:

; 1146 :         if (--_Mysize() == 0) {

  00010	8d 41 ff	 lea	 eax, DWORD PTR [ecx-1]
  00013	89 47 10	 mov	 DWORD PTR [edi+16], eax
  00016	8b c8		 mov	 ecx, eax
  00018	85 c0		 test	 eax, eax
  0001a	75 f4		 jne	 SHORT $LL2@Tidy

; 1147 :             _Myoff() = 0;

  0001c	89 47 0c	 mov	 DWORD PTR [edi+12], eax
$LN60@Tidy:
  0001f	56		 push	 esi

; 1479 :         for (size_type _Block = _Mapsize(); 0 < _Block;) { // free storage for a block and destroy pointer

  00020	8b 77 08	 mov	 esi, DWORD PTR [edi+8]
  00023	85 f6		 test	 esi, esi
  00025	74 1a		 je	 SHORT $LN5@Tidy
$LL4@Tidy:

; 1480 :             if (_Map()[--_Block]) { // free block and destroy its pointer

  00027	8b 47 04	 mov	 eax, DWORD PTR [edi+4]
  0002a	4e		 dec	 esi
  0002b	8b 04 b0	 mov	 eax, DWORD PTR [eax+esi*4]
  0002e	85 c0		 test	 eax, eax
  00030	74 0b		 je	 SHORT $LN23@Tidy
; File C:\Program Files (x86)\Microsoft Visual Studio\2019\Community\VC\Tools\MSVC\14.29.30133\include\xmemory

; 255  :         ::operator delete(_Ptr, _Bytes);

  00032	6a 10		 push	 16			; 00000010H
  00034	50		 push	 eax
  00035	e8 00 00 00 00	 call	 ??3@YAXPAXI@Z		; operator delete
  0003a	83 c4 08	 add	 esp, 8
$LN23@Tidy:
; File C:\Program Files (x86)\Microsoft Visual Studio\2019\Community\VC\Tools\MSVC\14.29.30133\include\deque

; 1479 :         for (size_type _Block = _Mapsize(); 0 < _Block;) { // free storage for a block and destroy pointer

  0003d	85 f6		 test	 esi, esi
  0003f	75 e6		 jne	 SHORT $LL4@Tidy
$LN5@Tidy:

; 1481 :                 _Getal().deallocate(_Map()[_Block], _Block_size);
; 1482 :                 _Destroy_in_place(_Map()[_Block]);
; 1483 :             }
; 1484 :         }
; 1485 : 
; 1486 :         if (_Map() != _Mapptr()) {

  00041	8b 47 04	 mov	 eax, DWORD PTR [edi+4]
  00044	5e		 pop	 esi
  00045	85 c0		 test	 eax, eax
  00047	74 2a		 je	 SHORT $LN41@Tidy
; File C:\Program Files (x86)\Microsoft Visual Studio\2019\Community\VC\Tools\MSVC\14.29.30133\include\xmemory

; 797  :         _Deallocate<_New_alignof<_Ty>>(_Ptr, sizeof(_Ty) * _Count);

  00049	8b 4f 08	 mov	 ecx, DWORD PTR [edi+8]
  0004c	c1 e1 02	 shl	 ecx, 2

; 251  :         if (_Bytes >= _Big_allocation_threshold) { // boost the alignment of big allocations to help autovectorization

  0004f	81 f9 00 10 00
	00		 cmp	 ecx, 4096		; 00001000H
  00055	72 12		 jb	 SHORT $LN51@Tidy

; 150  :     const uintptr_t _Ptr_container   = _Ptr_user[-1];

  00057	8b 50 fc	 mov	 edx, DWORD PTR [eax-4]
  0005a	83 c1 23	 add	 ecx, 35			; 00000023H

; 151  : 
; 152  :     // If the following asserts, it likely means that we are performing
; 153  :     // an aligned delete on memory coming from an unaligned allocation.
; 154  :     _STL_ASSERT(_Ptr_user[-2] == _Big_allocation_sentinel, "invalid argument");
; 155  : 
; 156  :     // Extra paranoia on aligned allocation/deallocation; ensure _Ptr_container is
; 157  :     // in range [_Min_back_shift, _Non_user_size]
; 158  : #ifdef _DEBUG
; 159  :     constexpr uintptr_t _Min_back_shift = 2 * sizeof(void*);
; 160  : #else // ^^^ _DEBUG ^^^ // vvv !_DEBUG vvv
; 161  :     constexpr uintptr_t _Min_back_shift = sizeof(void*);
; 162  : #endif // _DEBUG
; 163  :     const uintptr_t _Back_shift = reinterpret_cast<uintptr_t>(_Ptr) - _Ptr_container;

  0005d	2b c2		 sub	 eax, edx

; 164  :     _STL_VERIFY(_Back_shift >= _Min_back_shift && _Back_shift <= _Non_user_size, "invalid argument");

  0005f	83 c0 fc	 add	 eax, -4			; fffffffcH
  00062	83 f8 1f	 cmp	 eax, 31			; 0000001fH
  00065	77 1c		 ja	 SHORT $LN48@Tidy

; 165  :     _Ptr = reinterpret_cast<void*>(_Ptr_container);

  00067	8b c2		 mov	 eax, edx
$LN51@Tidy:

; 255  :         ::operator delete(_Ptr, _Bytes);

  00069	51		 push	 ecx
  0006a	50		 push	 eax
  0006b	e8 00 00 00 00	 call	 ??3@YAXPAXI@Z		; operator delete
  00070	83 c4 08	 add	 esp, 8
$LN41@Tidy:
; File C:\Program Files (x86)\Microsoft Visual Studio\2019\Community\VC\Tools\MSVC\14.29.30133\include\deque

; 1490 :         _Mapsize() = 0;

  00073	c7 47 08 00 00
	00 00		 mov	 DWORD PTR [edi+8], 0

; 1491 :         _Map()     = _Mapptr();

  0007a	c7 47 04 00 00
	00 00		 mov	 DWORD PTR [edi+4], 0
  00081	5f		 pop	 edi

; 1492 :     }

  00082	c3		 ret	 0
$LN48@Tidy:
; File C:\Program Files (x86)\Microsoft Visual Studio\2019\Community\VC\Tools\MSVC\14.29.30133\include\xmemory

; 164  :     _STL_VERIFY(_Back_shift >= _Min_back_shift && _Back_shift <= _Non_user_size, "invalid argument");

  00083	ff 15 00 00 00
	00		 call	 DWORD PTR __imp___invalid_parameter_noinfo_noreturn
$LN62@Tidy:
  00089	cc		 int	 3
?_Tidy@?$deque@VCElementAndOrder@@V?$allocator@VCElementAndOrder@@@std@@@std@@AAEXXZ ENDP ; std::deque<CElementAndOrder,std::allocator<CElementAndOrder> >::_Tidy
_TEXT	ENDS
; Function compile flags: /Ogtp
; File C:\Program Files (x86)\Microsoft Visual Studio\2019\Community\VC\Tools\MSVC\14.29.30133\include\deque
; File C:\Program Files (x86)\Microsoft Visual Studio\2019\Community\VC\Tools\MSVC\14.29.30133\include\xmemory
; File C:\Program Files (x86)\Microsoft Visual Studio\2019\Community\VC\Tools\MSVC\14.29.30133\include\deque
; File C:\Program Files (x86)\Microsoft Visual Studio\2019\Community\VC\Tools\MSVC\14.29.30133\include\xutility
; File C:\Program Files (x86)\Microsoft Visual Studio\2019\Community\VC\Tools\MSVC\14.29.30133\include\deque
; File C:\Program Files (x86)\Microsoft Visual Studio\2019\Community\VC\Tools\MSVC\14.29.30133\include\xutility
; File C:\Program Files (x86)\Microsoft Visual Studio\2019\Community\VC\Tools\MSVC\14.29.30133\include\deque
; File C:\Program Files (x86)\Microsoft Visual Studio\2019\Community\VC\Tools\MSVC\14.29.30133\include\xutility
; File C:\Program Files (x86)\Microsoft Visual Studio\2019\Community\VC\Tools\MSVC\14.29.30133\include\deque
; File C:\Program Files (x86)\Microsoft Visual Studio\2019\Community\VC\Tools\MSVC\14.29.30133\include\xutility
; File C:\Program Files (x86)\Microsoft Visual Studio\2019\Community\VC\Tools\MSVC\14.29.30133\include\xmemory
; File C:\Program Files (x86)\Microsoft Visual Studio\2019\Community\VC\Tools\MSVC\14.29.30133\include\xutility
; File C:\Program Files (x86)\Microsoft Visual Studio\2019\Community\VC\Tools\MSVC\14.29.30133\include\xmemory
; File C:\Program Files (x86)\Microsoft Visual Studio\2019\Community\VC\Tools\MSVC\14.29.30133\include\xutility
; File C:\Program Files (x86)\Microsoft Visual Studio\2019\Community\VC\Tools\MSVC\14.29.30133\include\xmemory
; File C:\Program Files (x86)\Microsoft Visual Studio\2019\Community\VC\Tools\MSVC\14.29.30133\include\deque
; File C:\Program Files (x86)\Microsoft Visual Studio\2019\Community\VC\Tools\MSVC\14.29.30133\include\xutility
; File C:\Program Files (x86)\Microsoft Visual Studio\2019\Community\VC\Tools\MSVC\14.29.30133\include\deque
; File C:\Program Files (x86)\Microsoft Visual Studio\2019\Community\VC\Tools\MSVC\14.29.30133\include\xutility
; File C:\Program Files (x86)\Microsoft Visual Studio\2019\Community\VC\Tools\MSVC\14.29.30133\include\deque
; File C:\Program Files (x86)\Microsoft Visual Studio\2019\Community\VC\Tools\MSVC\14.29.30133\include\xutility
; File C:\Program Files (x86)\Microsoft Visual Studio\2019\Community\VC\Tools\MSVC\14.29.30133\include\xmemory
; File C:\Program Files (x86)\Microsoft Visual Studio\2019\Community\VC\Tools\MSVC\14.29.30133\include\xutility
; File C:\Program Files (x86)\Microsoft Visual Studio\2019\Community\VC\Tools\MSVC\14.29.30133\include\xmemory
; File C:\Program Files (x86)\Microsoft Visual Studio\2019\Community\VC\Tools\MSVC\14.29.30133\include\xutility
; File C:\Program Files (x86)\Microsoft Visual Studio\2019\Community\VC\Tools\MSVC\14.29.30133\include\xmemory
; File C:\Program Files (x86)\Microsoft Visual Studio\2019\Community\VC\Tools\MSVC\14.29.30133\include\deque
; File C:\Program Files (x86)\Microsoft Visual Studio\2019\Community\VC\Tools\MSVC\14.29.30133\include\xmemory
; File C:\Program Files (x86)\Microsoft Visual Studio\2019\Community\VC\Tools\MSVC\14.29.30133\include\deque
; File C:\Program Files (x86)\Microsoft Visual Studio\2019\Community\VC\Tools\MSVC\14.29.30133\include\xmemory
; File C:\Program Files (x86)\Microsoft Visual Studio\2019\Community\VC\Tools\MSVC\14.29.30133\include\deque
; File C:\Program Files (x86)\Microsoft Visual Studio\2019\Community\VC\Tools\MSVC\14.29.30133\include\xmemory
; File C:\Program Files (x86)\Microsoft Visual Studio\2019\Community\VC\Tools\MSVC\14.29.30133\include\deque
;	COMDAT ?_Growmap@?$deque@VCElementAndOrder@@V?$allocator@VCElementAndOrder@@@std@@@std@@AAEXI@Z
_TEXT	SEGMENT
__Myptr$1$ = -16					; size = 4
__Myboff$1$ = -12					; size = 4
_this$1$ = -8						; size = 4
__Count$1$ = -4						; size = 4
$T1 = 8							; size = 4
__Count$ = 8						; size = 4
?_Growmap@?$deque@VCElementAndOrder@@V?$allocator@VCElementAndOrder@@@std@@@std@@AAEXI@Z PROC ; std::deque<CElementAndOrder,std::allocator<CElementAndOrder> >::_Growmap, COMDAT
; _this$ = ecx

; 1432 :     void _Growmap(size_type _Count) { // grow map by at least _Count pointers, _Mapsize() a power of 2

  00000	55		 push	 ebp
  00001	8b ec		 mov	 ebp, esp
  00003	83 ec 10	 sub	 esp, 16			; 00000010H
  00006	53		 push	 ebx
  00007	56		 push	 esi
  00008	8b f1		 mov	 esi, ecx

; 1433 :         static_assert(1 < _Minimum_map_size, "The _Xlen() test should always be performed.");
; 1434 : 
; 1435 :         _Alpty _Almap(_Getal());
; 1436 :         size_type _Newsize = 0 < _Mapsize() ? _Mapsize() : 1;

  0000a	b8 01 00 00 00	 mov	 eax, 1
  0000f	57		 push	 edi
  00010	8b 7d 08	 mov	 edi, DWORD PTR __Count$[ebp]
  00013	89 75 f8	 mov	 DWORD PTR _this$1$[ebp], esi
  00016	8b 56 08	 mov	 edx, DWORD PTR [esi+8]
  00019	85 d2		 test	 edx, edx
  0001b	0f 45 c2	 cmovne	 eax, edx
  0001e	66 90		 npad	 2
$LL2@Growmap:

; 1437 :         while (_Newsize - _Mapsize() < _Count || _Newsize < _Minimum_map_size) {

  00020	8b d8		 mov	 ebx, eax
  00022	2b da		 sub	 ebx, edx
  00024	3b df		 cmp	 ebx, edi
  00026	72 05		 jb	 SHORT $LN4@Growmap
  00028	83 f8 08	 cmp	 eax, 8
  0002b	73 13		 jae	 SHORT $LN3@Growmap
$LN4@Growmap:

; 1438 :             // scale _Newsize to 2^N >= _Mapsize() + _Count
; 1439 :             if (max_size() / _Block_size - _Newsize < _Newsize) {

  0002d	b9 ff ff ff 0f	 mov	 ecx, 268435455		; 0fffffffH
  00032	2b c8		 sub	 ecx, eax
  00034	3b c8		 cmp	 ecx, eax
  00036	0f 82 48 01 00
	00		 jb	 $LN138@Growmap

; 1441 :             }
; 1442 : 
; 1443 :             _Newsize *= 2;

  0003c	03 c0		 add	 eax, eax

; 1444 :         }

  0003e	eb e0		 jmp	 SHORT $LL2@Growmap
$LN3@Growmap:

; 1445 :         _Count = _Newsize - _Mapsize();
; 1446 : 
; 1447 :         size_type _Myboff = _Myoff() / _Block_size;

  00040	8b 7e 0c	 mov	 edi, DWORD PTR [esi+12]
  00043	d1 ef		 shr	 edi, 1
  00045	89 7d f4	 mov	 DWORD PTR __Myboff$1$[ebp], edi
; File C:\Program Files (x86)\Microsoft Visual Studio\2019\Community\VC\Tools\MSVC\14.29.30133\include\xmemory

; 60   :         if (_Count > _Max_possible) {

  00048	3d ff ff ff 3f	 cmp	 eax, 1073741823		; 3fffffffH
  0004d	0f 87 38 01 00
	00		 ja	 $LN142@Growmap

; 61   :             _Throw_bad_array_new_length(); // multiply overflow
; 62   :         }
; 63   :     }
; 64   : 
; 65   :     return _Count * _Ty_size;

  00053	c1 e0 02	 shl	 eax, 2

; 228  :         if (_Bytes >= _Big_allocation_threshold) { // boost the alignment of big allocations to help autovectorization

  00056	3d 00 10 00 00	 cmp	 eax, 4096		; 00001000H
  0005b	72 27		 jb	 SHORT $LN19@Growmap

; 129  :     const size_t _Block_size = _Non_user_size + _Bytes;

  0005d	8d 48 23	 lea	 ecx, DWORD PTR [eax+35]

; 130  :     if (_Block_size <= _Bytes) {

  00060	3b c8		 cmp	 ecx, eax
  00062	0f 86 23 01 00
	00		 jbe	 $LN142@Growmap

; 79   :         return ::operator new(_Bytes);

  00068	51		 push	 ecx
  00069	e8 00 00 00 00	 call	 ??2@YAPAXI@Z		; operator new
  0006e	83 c4 04	 add	 esp, 4

; 135  :     _STL_VERIFY(_Ptr_container != 0, "invalid argument"); // validate even in release since we're doing p[-1]

  00071	85 c0		 test	 eax, eax
  00073	0f 84 05 01 00
	00		 je	 $LN130@Growmap

; 136  :     void* const _Ptr = reinterpret_cast<void*>((_Ptr_container + _Non_user_size) & ~(_Big_allocation_alignment - 1));

  00079	8d 50 23	 lea	 edx, DWORD PTR [eax+35]
  0007c	83 e2 e0	 and	 edx, -32		; ffffffe0H

; 137  :     static_cast<uintptr_t*>(_Ptr)[-1] = _Ptr_container;

  0007f	89 42 fc	 mov	 DWORD PTR [edx-4], eax

; 229  :             return _Allocate_manually_vector_aligned<_Traits>(_Bytes);

  00082	eb 13		 jmp	 SHORT $LN145@Growmap
$LN19@Growmap:

; 230  :         }
; 231  :     }
; 232  : #endif // defined(_M_IX86) || defined(_M_X64)
; 233  : 
; 234  :     if (_Bytes != 0) {

  00084	85 c0		 test	 eax, eax
  00086	74 0d		 je	 SHORT $LN20@Growmap

; 79   :         return ::operator new(_Bytes);

  00088	50		 push	 eax
  00089	e8 00 00 00 00	 call	 ??2@YAPAXI@Z		; operator new
  0008e	83 c4 04	 add	 esp, 4

; 235  :         return _Traits::_Allocate(_Bytes);

  00091	8b d0		 mov	 edx, eax
  00093	eb 02		 jmp	 SHORT $LN145@Growmap
$LN20@Growmap:

; 236  :     }
; 237  : 
; 238  :     return nullptr;

  00095	33 d2		 xor	 edx, edx
$LN145@Growmap:
; File C:\Program Files (x86)\Microsoft Visual Studio\2019\Community\VC\Tools\MSVC\14.29.30133\include\deque

; 1451 :         _Myptr = _STD uninitialized_copy(_Map() + _Myboff, _Map() + _Mapsize(), _Myptr); // copy initial to end

  00097	8b 46 04	 mov	 eax, DWORD PTR [esi+4]
  0009a	8b 76 08	 mov	 esi, DWORD PTR [esi+8]
  0009d	c1 e7 02	 shl	 edi, 2
  000a0	c1 e6 02	 shl	 esi, 2
  000a3	89 7d fc	 mov	 DWORD PTR __Count$1$[ebp], edi
  000a6	89 55 08	 mov	 DWORD PTR $T1[ebp], edx
  000a9	8d 0c 38	 lea	 ecx, DWORD PTR [eax+edi]
  000ac	03 fa		 add	 edi, edx
; File C:\Program Files (x86)\Microsoft Visual Studio\2019\Community\VC\Tools\MSVC\14.29.30133\include\xutility

; 4065 :     const auto _Count           = static_cast<size_t>(_Last_ch - _First_ch);

  000ae	2b f1		 sub	 esi, ecx
; File C:\Program Files (x86)\Microsoft Visual Studio\2019\Community\VC\Tools\MSVC\14.29.30133\include\deque

; 1451 :         _Myptr = _STD uninitialized_copy(_Map() + _Myboff, _Map() + _Mapsize(), _Myptr); // copy initial to end

  000b0	03 f0		 add	 esi, eax
; File C:\Program Files (x86)\Microsoft Visual Studio\2019\Community\VC\Tools\MSVC\14.29.30133\include\xutility

; 4066 :     _CSTD memmove(_Dest_ch, _First_ch, _Count);

  000b2	56		 push	 esi
  000b3	51		 push	 ecx
  000b4	57		 push	 edi
  000b5	e8 00 00 00 00	 call	 _memmove

; 4068 :         return reinterpret_cast<_OutCtgIt>(_Dest_ch + _Count);

  000ba	8d 04 3e	 lea	 eax, DWORD PTR [esi+edi]
  000bd	83 c4 0c	 add	 esp, 12			; 0000000cH
; File C:\Program Files (x86)\Microsoft Visual Studio\2019\Community\VC\Tools\MSVC\14.29.30133\include\deque

; 1451 :         _Myptr = _STD uninitialized_copy(_Map() + _Myboff, _Map() + _Mapsize(), _Myptr); // copy initial to end

  000c0	8b 75 f8	 mov	 esi, DWORD PTR _this$1$[ebp]

; 1452 :         if (_Myboff <= _Count) { // increment greater than offset of initial block

  000c3	8b 7d f4	 mov	 edi, DWORD PTR __Myboff$1$[ebp]
; File C:\Program Files (x86)\Microsoft Visual Studio\2019\Community\VC\Tools\MSVC\14.29.30133\include\xutility

; 4068 :         return reinterpret_cast<_OutCtgIt>(_Dest_ch + _Count);

  000c6	89 45 f0	 mov	 DWORD PTR __Myptr$1$[ebp], eax
; File C:\Program Files (x86)\Microsoft Visual Studio\2019\Community\VC\Tools\MSVC\14.29.30133\include\deque

; 1451 :         _Myptr = _STD uninitialized_copy(_Map() + _Myboff, _Map() + _Mapsize(), _Myptr); // copy initial to end

  000c9	8b 56 04	 mov	 edx, DWORD PTR [esi+4]

; 1452 :         if (_Myboff <= _Count) { // increment greater than offset of initial block

  000cc	3b fb		 cmp	 edi, ebx
  000ce	77 35		 ja	 SHORT $LN6@Growmap
; File C:\Program Files (x86)\Microsoft Visual Studio\2019\Community\VC\Tools\MSVC\14.29.30133\include\xutility

; 4066 :     _CSTD memmove(_Dest_ch, _First_ch, _Count);

  000d0	8d 0c bd 00 00
	00 00		 lea	 ecx, DWORD PTR [edi*4]
  000d7	51		 push	 ecx
  000d8	52		 push	 edx
  000d9	50		 push	 eax
  000da	e8 00 00 00 00	 call	 _memmove
; File C:\Program Files (x86)\Microsoft Visual Studio\2019\Community\VC\Tools\MSVC\14.29.30133\include\xmemory

; 1792 :     _CSTD memset(_First_ch, 0, static_cast<size_t>(_Last_ch - _First_ch));

  000df	8b c3		 mov	 eax, ebx
  000e1	2b c7		 sub	 eax, edi
; File C:\Program Files (x86)\Microsoft Visual Studio\2019\Community\VC\Tools\MSVC\14.29.30133\include\xutility

; 4068 :         return reinterpret_cast<_OutCtgIt>(_Dest_ch + _Count);

  000e3	8b 7d fc	 mov	 edi, DWORD PTR __Count$1$[ebp]
; File C:\Program Files (x86)\Microsoft Visual Studio\2019\Community\VC\Tools\MSVC\14.29.30133\include\xmemory

; 1792 :     _CSTD memset(_First_ch, 0, static_cast<size_t>(_Last_ch - _First_ch));

  000e6	c1 e0 02	 shl	 eax, 2
  000e9	50		 push	 eax
; File C:\Program Files (x86)\Microsoft Visual Studio\2019\Community\VC\Tools\MSVC\14.29.30133\include\xutility

; 4068 :         return reinterpret_cast<_OutCtgIt>(_Dest_ch + _Count);

  000ea	8b 45 f0	 mov	 eax, DWORD PTR __Myptr$1$[ebp]
  000ed	03 c7		 add	 eax, edi
; File C:\Program Files (x86)\Microsoft Visual Studio\2019\Community\VC\Tools\MSVC\14.29.30133\include\xmemory

; 1792 :     _CSTD memset(_First_ch, 0, static_cast<size_t>(_Last_ch - _First_ch));

  000ef	6a 00		 push	 0
  000f1	50		 push	 eax
  000f2	e8 00 00 00 00	 call	 _memset
  000f7	57		 push	 edi
  000f8	8b 7d 08	 mov	 edi, DWORD PTR $T1[ebp]
  000fb	6a 00		 push	 0
  000fd	57		 push	 edi
  000fe	e8 00 00 00 00	 call	 _memset
; File C:\Program Files (x86)\Microsoft Visual Studio\2019\Community\VC\Tools\MSVC\14.29.30133\include\deque

; 1456 :         } else { // increment not greater than offset of initial block

  00103	eb 36		 jmp	 SHORT $LN146@Growmap
$LN6@Growmap:

; 1457 :             _STD uninitialized_copy(_Map(), _Map() + _Count, _Myptr); // copy more old

  00105	8d 3c 9d 00 00
	00 00		 lea	 edi, DWORD PTR [ebx*4]
; File C:\Program Files (x86)\Microsoft Visual Studio\2019\Community\VC\Tools\MSVC\14.29.30133\include\xutility

; 4066 :     _CSTD memmove(_Dest_ch, _First_ch, _Count);

  0010c	57		 push	 edi
  0010d	52		 push	 edx
  0010e	50		 push	 eax
  0010f	e8 00 00 00 00	 call	 _memmove
; File C:\Program Files (x86)\Microsoft Visual Studio\2019\Community\VC\Tools\MSVC\14.29.30133\include\deque

; 1458 :             _Myptr = _STD uninitialized_copy(_Map() + _Count, _Map() + _Myboff, _Newmap); // copy rest of old

  00114	8b 76 04	 mov	 esi, DWORD PTR [esi+4]
  00117	8d 04 37	 lea	 eax, DWORD PTR [edi+esi]
; File C:\Program Files (x86)\Microsoft Visual Studio\2019\Community\VC\Tools\MSVC\14.29.30133\include\xutility

; 4065 :     const auto _Count           = static_cast<size_t>(_Last_ch - _First_ch);

  0011a	2b f0		 sub	 esi, eax
; File C:\Program Files (x86)\Microsoft Visual Studio\2019\Community\VC\Tools\MSVC\14.29.30133\include\deque

; 1458 :             _Myptr = _STD uninitialized_copy(_Map() + _Count, _Map() + _Myboff, _Newmap); // copy rest of old

  0011c	03 75 fc	 add	 esi, DWORD PTR __Count$1$[ebp]
; File C:\Program Files (x86)\Microsoft Visual Studio\2019\Community\VC\Tools\MSVC\14.29.30133\include\xutility

; 4066 :     _CSTD memmove(_Dest_ch, _First_ch, _Count);

  0011f	56		 push	 esi
  00120	50		 push	 eax
  00121	ff 75 08	 push	 DWORD PTR $T1[ebp]
  00124	e8 00 00 00 00	 call	 _memmove
; File C:\Program Files (x86)\Microsoft Visual Studio\2019\Community\VC\Tools\MSVC\14.29.30133\include\xmemory

; 1792 :     _CSTD memset(_First_ch, 0, static_cast<size_t>(_Last_ch - _First_ch));

  00129	57		 push	 edi
; File C:\Program Files (x86)\Microsoft Visual Studio\2019\Community\VC\Tools\MSVC\14.29.30133\include\xutility

; 4068 :         return reinterpret_cast<_OutCtgIt>(_Dest_ch + _Count);

  0012a	8b 7d 08	 mov	 edi, DWORD PTR $T1[ebp]
; File C:\Program Files (x86)\Microsoft Visual Studio\2019\Community\VC\Tools\MSVC\14.29.30133\include\xmemory

; 1792 :     _CSTD memset(_First_ch, 0, static_cast<size_t>(_Last_ch - _First_ch));

  0012d	6a 00		 push	 0
; File C:\Program Files (x86)\Microsoft Visual Studio\2019\Community\VC\Tools\MSVC\14.29.30133\include\xutility

; 4068 :         return reinterpret_cast<_OutCtgIt>(_Dest_ch + _Count);

  0012f	8d 04 3e	 lea	 eax, DWORD PTR [esi+edi]
; File C:\Program Files (x86)\Microsoft Visual Studio\2019\Community\VC\Tools\MSVC\14.29.30133\include\xmemory

; 1792 :     _CSTD memset(_First_ch, 0, static_cast<size_t>(_Last_ch - _First_ch));

  00132	50		 push	 eax
  00133	e8 00 00 00 00	 call	 _memset
  00138	8b 75 f8	 mov	 esi, DWORD PTR _this$1$[ebp]
$LN146@Growmap:
; File C:\Program Files (x86)\Microsoft Visual Studio\2019\Community\VC\Tools\MSVC\14.29.30133\include\deque

; 1463 :         if (_Map() != _Mapptr()) {

  0013b	8b 46 04	 mov	 eax, DWORD PTR [esi+4]
  0013e	83 c4 24	 add	 esp, 36			; 00000024H
  00141	85 c0		 test	 eax, eax
  00143	74 2a		 je	 SHORT $LN123@Growmap
; File C:\Program Files (x86)\Microsoft Visual Studio\2019\Community\VC\Tools\MSVC\14.29.30133\include\xmemory

; 797  :         _Deallocate<_New_alignof<_Ty>>(_Ptr, sizeof(_Ty) * _Count);

  00145	8b 4e 08	 mov	 ecx, DWORD PTR [esi+8]
  00148	c1 e1 02	 shl	 ecx, 2

; 251  :         if (_Bytes >= _Big_allocation_threshold) { // boost the alignment of big allocations to help autovectorization

  0014b	81 f9 00 10 00
	00		 cmp	 ecx, 4096		; 00001000H
  00151	72 12		 jb	 SHORT $LN133@Growmap

; 150  :     const uintptr_t _Ptr_container   = _Ptr_user[-1];

  00153	8b 50 fc	 mov	 edx, DWORD PTR [eax-4]
  00156	83 c1 23	 add	 ecx, 35			; 00000023H

; 151  : 
; 152  :     // If the following asserts, it likely means that we are performing
; 153  :     // an aligned delete on memory coming from an unaligned allocation.
; 154  :     _STL_ASSERT(_Ptr_user[-2] == _Big_allocation_sentinel, "invalid argument");
; 155  : 
; 156  :     // Extra paranoia on aligned allocation/deallocation; ensure _Ptr_container is
; 157  :     // in range [_Min_back_shift, _Non_user_size]
; 158  : #ifdef _DEBUG
; 159  :     constexpr uintptr_t _Min_back_shift = 2 * sizeof(void*);
; 160  : #else // ^^^ _DEBUG ^^^ // vvv !_DEBUG vvv
; 161  :     constexpr uintptr_t _Min_back_shift = sizeof(void*);
; 162  : #endif // _DEBUG
; 163  :     const uintptr_t _Back_shift = reinterpret_cast<uintptr_t>(_Ptr) - _Ptr_container;

  00159	2b c2		 sub	 eax, edx

; 164  :     _STL_VERIFY(_Back_shift >= _Min_back_shift && _Back_shift <= _Non_user_size, "invalid argument");

  0015b	83 c0 fc	 add	 eax, -4			; fffffffcH
  0015e	83 f8 1f	 cmp	 eax, 31			; 0000001fH
  00161	77 1b		 ja	 SHORT $LN130@Growmap

; 165  :     _Ptr = reinterpret_cast<void*>(_Ptr_container);

  00163	8b c2		 mov	 eax, edx
$LN133@Growmap:

; 255  :         ::operator delete(_Ptr, _Bytes);

  00165	51		 push	 ecx
  00166	50		 push	 eax
  00167	e8 00 00 00 00	 call	 ??3@YAXPAXI@Z		; operator delete
  0016c	83 c4 08	 add	 esp, 8
$LN123@Growmap:
; File C:\Program Files (x86)\Microsoft Visual Studio\2019\Community\VC\Tools\MSVC\14.29.30133\include\deque

; 1468 :         _Mapsize() += _Count;

  0016f	01 5e 08	 add	 DWORD PTR [esi+8], ebx
  00172	89 7e 04	 mov	 DWORD PTR [esi+4], edi
  00175	5f		 pop	 edi
  00176	5e		 pop	 esi
  00177	5b		 pop	 ebx

; 1469 :     }

  00178	8b e5		 mov	 esp, ebp
  0017a	5d		 pop	 ebp
  0017b	c2 04 00	 ret	 4
$LN130@Growmap:
; File C:\Program Files (x86)\Microsoft Visual Studio\2019\Community\VC\Tools\MSVC\14.29.30133\include\xmemory

; 164  :     _STL_VERIFY(_Back_shift >= _Min_back_shift && _Back_shift <= _Non_user_size, "invalid argument");

  0017e	ff 15 00 00 00
	00		 call	 DWORD PTR __imp___invalid_parameter_noinfo_noreturn
$LN138@Growmap:
; File C:\Program Files (x86)\Microsoft Visual Studio\2019\Community\VC\Tools\MSVC\14.29.30133\include\deque

; 1440 :                 _Xlen(); // result too long

  00184	8b ce		 mov	 ecx, esi
  00186	e8 00 00 00 00	 call	 ?_Xlen@?$deque@VCElementAndOrder@@V?$allocator@VCElementAndOrder@@@std@@@std@@ABEXXZ ; std::deque<CElementAndOrder,std::allocator<CElementAndOrder> >::_Xlen
$LN142@Growmap:
; File C:\Program Files (x86)\Microsoft Visual Studio\2019\Community\VC\Tools\MSVC\14.29.30133\include\xmemory

; 131  :         _Throw_bad_array_new_length(); // add overflow

  0018b	e8 00 00 00 00	 call	 ?_Throw_bad_array_new_length@std@@YAXXZ ; std::_Throw_bad_array_new_length
$LN144@Growmap:
  00190	cc		 int	 3
?_Growmap@?$deque@VCElementAndOrder@@V?$allocator@VCElementAndOrder@@@std@@@std@@AAEXI@Z ENDP ; std::deque<CElementAndOrder,std::allocator<CElementAndOrder> >::_Growmap
_TEXT	ENDS
; Function compile flags: /Ogtp
; File C:\Program Files (x86)\Microsoft Visual Studio\2019\Community\VC\Tools\MSVC\14.29.30133\include\deque
;	COMDAT ?_Xlen@?$deque@VCElementAndOrder@@V?$allocator@VCElementAndOrder@@@std@@@std@@ABEXXZ
_TEXT	SEGMENT
?_Xlen@?$deque@VCElementAndOrder@@V?$allocator@VCElementAndOrder@@@std@@@std@@ABEXXZ PROC ; std::deque<CElementAndOrder,std::allocator<CElementAndOrder> >::_Xlen, COMDAT
; _this$ = ecx

; 1425 :         _Xlength_error("deque<T> too long");

  00000	68 00 00 00 00	 push	 OFFSET ??_C@_0BC@KBDMBKEH@deque?$DMT?$DO?5too?5long@
  00005	e8 00 00 00 00	 call	 ?_Xlength_error@std@@YAXPBD@Z ; std::_Xlength_error
$LN3@Xlen:
  0000a	cc		 int	 3
?_Xlen@?$deque@VCElementAndOrder@@V?$allocator@VCElementAndOrder@@@std@@@std@@ABEXXZ ENDP ; std::deque<CElementAndOrder,std::allocator<CElementAndOrder> >::_Xlen
_TEXT	ENDS
; Function compile flags: /Ogtp
; File D:\git\src\IBK\IBK_DRFN\ProjSrc\SrcChartEx\ChartAddIn\ChartAnalysisToolAddIn\AnalysisTool\ElementTreeBuilder.cpp
; File C:\Program Files (x86)\Microsoft Visual Studio\2019\Community\VC\Tools\MSVC\14.29.30133\include\deque
; File D:\git\src\IBK\IBK_DRFN\ProjSrc\SrcChartEx\ChartAddIn\ChartAnalysisToolAddIn\Include_Chart\DequeList.h
; File C:\Program Files (x86)\Microsoft Visual Studio\2019\Community\VC\Tools\MSVC\14.29.30133\include\deque
; File D:\git\src\IBK\IBK_DRFN\ProjSrc\SrcChartEx\ChartAddIn\ChartAnalysisToolAddIn\Include_Chart\DequeList.h
; File D:\git\src\IBK\IBK_DRFN\ProjSrc\SrcChartEx\ChartAddIn\ChartAnalysisToolAddIn\AnalysisTool\ElementTreeBuilder.cpp
;	COMDAT ?GetElement@CElementAndOrderSet@@QBEPAVCElement@@H@Z
_TEXT	SEGMENT
__Tmp$1$ = -4						; size = 4
_nIndex$ = 8						; size = 4
?GetElement@CElementAndOrderSet@@QBEPAVCElement@@H@Z PROC ; CElementAndOrderSet::GetElement, COMDAT
; _this$ = ecx

; 93   : {

  00000	55		 push	 ebp
  00001	8b ec		 mov	 ebp, esp
  00003	83 ec 0c	 sub	 esp, 12			; 0000000cH
  00006	53		 push	 ebx
  00007	8b 5d 08	 mov	 ebx, DWORD PTR _nIndex$[ebp]

; 94   : 	for(int i = 0; i < m_ElementAndOrderSet.GetCount(); i++)

  0000a	33 c0		 xor	 eax, eax
  0000c	56		 push	 esi
  0000d	57		 push	 edi
  0000e	8b 79 10	 mov	 edi, DWORD PTR [ecx+16]
  00011	89 4d fc	 mov	 DWORD PTR __Tmp$1$[ebp], ecx
  00014	85 ff		 test	 edi, edi
  00016	7e 41		 jle	 SHORT $LN3@GetElement
$LL4@GetElement:

; 85   : 	if(nIndex < 0 || nIndex >= m_ElementAndOrderSet.GetCount())

  00018	85 c0		 test	 eax, eax
  0001a	78 2c		 js	 SHORT $LN9@GetElement
  0001c	3b c7		 cmp	 eax, edi
  0001e	7d 28		 jge	 SHORT $LN9@GetElement
; File C:\Program Files (x86)\Microsoft Visual Studio\2019\Community\VC\Tools\MSVC\14.29.30133\include\deque

; 43   :         : _Mycont(static_cast<const _Mydeque*>(_Pdeque)), _Myoff(_Off) {}

  00020	8b 49 0c	 mov	 ecx, DWORD PTR [ecx+12]

; 78   :         _Myoff += _Off;

  00023	8d 34 01	 lea	 esi, DWORD PTR [ecx+eax]

; 559  :         return (_Off / _Block_size) & (_Mapsize - 1);

  00026	8b 4d fc	 mov	 ecx, DWORD PTR __Tmp$1$[ebp]

; 78   :         _Myoff += _Off;

  00029	8b d6		 mov	 edx, esi
  0002b	d1 ea		 shr	 edx, 1

; 559  :         return (_Off / _Block_size) & (_Mapsize - 1);

  0002d	8b 49 08	 mov	 ecx, DWORD PTR [ecx+8]
  00030	49		 dec	 ecx
  00031	23 d1		 and	 edx, ecx
; File D:\git\src\IBK\IBK_DRFN\ProjSrc\SrcChartEx\ChartAddIn\ChartAnalysisToolAddIn\Include_Chart\DequeList.h

; 84   : 		return m_deque[nIndex];

  00033	8b 4d fc	 mov	 ecx, DWORD PTR __Tmp$1$[ebp]
; File C:\Program Files (x86)\Microsoft Visual Studio\2019\Community\VC\Tools\MSVC\14.29.30133\include\deque

; 48   :         return _Mycont->_Map[_Block][_Off];

  00036	83 e6 01	 and	 esi, 1
; File D:\git\src\IBK\IBK_DRFN\ProjSrc\SrcChartEx\ChartAddIn\ChartAnalysisToolAddIn\Include_Chart\DequeList.h

; 84   : 		return m_deque[nIndex];

  00039	8b 49 04	 mov	 ecx, DWORD PTR [ecx+4]
  0003c	8b 0c 91	 mov	 ecx, DWORD PTR [ecx+edx*4]
  0003f	8b 14 f1	 mov	 edx, DWORD PTR [ecx+esi*8]
  00042	8b 4c f1 04	 mov	 ecx, DWORD PTR [ecx+esi*8+4]
  00046	eb 05		 jmp	 SHORT $LN7@GetElement
$LN9@GetElement:
; File D:\git\src\IBK\IBK_DRFN\ProjSrc\SrcChartEx\ChartAddIn\ChartAnalysisToolAddIn\AnalysisTool\ElementTreeBuilder.cpp

; 30   : 	m_pElement(pElement)

  00048	33 c9		 xor	 ecx, ecx
  0004a	83 ca ff	 or	 edx, -1
$LN7@GetElement:

; 95   : 	{
; 96   : 		CElementAndOrder elementAndOrder = GetData(i);
; 97   : 		if(elementAndOrder.GetIndex() == nIndex)

  0004d	3b d3		 cmp	 edx, ebx
  0004f	74 13		 je	 SHORT $LN30@GetElement

; 94   : 	for(int i = 0; i < m_ElementAndOrderSet.GetCount(); i++)

  00051	8b 4d fc	 mov	 ecx, DWORD PTR __Tmp$1$[ebp]
  00054	40		 inc	 eax
  00055	3b c7		 cmp	 eax, edi
  00057	7c bf		 jl	 SHORT $LL4@GetElement
$LN3@GetElement:
  00059	5f		 pop	 edi

; 98   : 			return elementAndOrder.GetElement();
; 99   : 	}
; 100  : 
; 101  : 	return NULL;
; 102  : }

  0005a	5e		 pop	 esi
  0005b	33 c0		 xor	 eax, eax
  0005d	5b		 pop	 ebx
  0005e	8b e5		 mov	 esp, ebp
  00060	5d		 pop	 ebp
  00061	c2 04 00	 ret	 4
$LN30@GetElement:
  00064	5f		 pop	 edi
  00065	5e		 pop	 esi
  00066	8b c1		 mov	 eax, ecx
  00068	5b		 pop	 ebx
  00069	8b e5		 mov	 esp, ebp
  0006b	5d		 pop	 ebp
  0006c	c2 04 00	 ret	 4
?GetElement@CElementAndOrderSet@@QBEPAVCElement@@H@Z ENDP ; CElementAndOrderSet::GetElement
_TEXT	ENDS
; Function compile flags: /Ogtp
; File D:\git\src\IBK\IBK_DRFN\ProjSrc\SrcChartEx\ChartAddIn\ChartAnalysisToolAddIn\AnalysisTool\ElementTreeBuilder.cpp
; File C:\Program Files (x86)\Microsoft Visual Studio\2019\Community\VC\Tools\MSVC\14.29.30133\include\deque
; File D:\git\src\IBK\IBK_DRFN\ProjSrc\SrcChartEx\ChartAddIn\ChartAnalysisToolAddIn\Include_Chart\DequeList.h
; File C:\Program Files (x86)\Microsoft Visual Studio\2019\Community\VC\Tools\MSVC\14.29.30133\include\deque
; File D:\git\src\IBK\IBK_DRFN\ProjSrc\SrcChartEx\ChartAddIn\ChartAnalysisToolAddIn\Include_Chart\DequeList.h
; File D:\git\src\IBK\IBK_DRFN\ProjSrc\SrcChartEx\ChartAddIn\ChartAnalysisToolAddIn\AnalysisTool\ElementTreeBuilder.cpp
;	COMDAT ?GetData@CElementAndOrderSet@@QBE?AVCElementAndOrder@@H@Z
_TEXT	SEGMENT
___$ReturnUdt$ = 8					; size = 4
_nIndex$ = 12						; size = 4
?GetData@CElementAndOrderSet@@QBE?AVCElementAndOrder@@H@Z PROC ; CElementAndOrderSet::GetData, COMDAT
; _this$ = ecx

; 84   : {

  00000	55		 push	 ebp
  00001	8b ec		 mov	 ebp, esp

; 85   : 	if(nIndex < 0 || nIndex >= m_ElementAndOrderSet.GetCount())

  00003	8b 55 0c	 mov	 edx, DWORD PTR _nIndex$[ebp]
  00006	83 ec 08	 sub	 esp, 8
  00009	56		 push	 esi
  0000a	8b f1		 mov	 esi, ecx
  0000c	85 d2		 test	 edx, edx
  0000e	78 33		 js	 SHORT $LN3@GetData
  00010	3b 56 10	 cmp	 edx, DWORD PTR [esi+16]
  00013	7d 2e		 jge	 SHORT $LN3@GetData
; File C:\Program Files (x86)\Microsoft Visual Studio\2019\Community\VC\Tools\MSVC\14.29.30133\include\deque

; 43   :         : _Mycont(static_cast<const _Mydeque*>(_Pdeque)), _Myoff(_Off) {}

  00015	8b 46 0c	 mov	 eax, DWORD PTR [esi+12]

; 78   :         _Myoff += _Off;

  00018	03 d0		 add	 edx, eax

; 559  :         return (_Off / _Block_size) & (_Mapsize - 1);

  0001a	8b 46 08	 mov	 eax, DWORD PTR [esi+8]

; 78   :         _Myoff += _Off;

  0001d	8b ca		 mov	 ecx, edx

; 559  :         return (_Off / _Block_size) & (_Mapsize - 1);

  0001f	48		 dec	 eax

; 78   :         _Myoff += _Off;

  00020	d1 e9		 shr	 ecx, 1

; 559  :         return (_Off / _Block_size) & (_Mapsize - 1);

  00022	23 c8		 and	 ecx, eax
; File D:\git\src\IBK\IBK_DRFN\ProjSrc\SrcChartEx\ChartAddIn\ChartAnalysisToolAddIn\Include_Chart\DequeList.h

; 84   : 		return m_deque[nIndex];

  00024	8b 46 04	 mov	 eax, DWORD PTR [esi+4]
; File C:\Program Files (x86)\Microsoft Visual Studio\2019\Community\VC\Tools\MSVC\14.29.30133\include\deque

; 48   :         return _Mycont->_Map[_Block][_Off];

  00027	83 e2 01	 and	 edx, 1
  0002a	5e		 pop	 esi
; File D:\git\src\IBK\IBK_DRFN\ProjSrc\SrcChartEx\ChartAddIn\ChartAnalysisToolAddIn\Include_Chart\DequeList.h

; 84   : 		return m_deque[nIndex];

  0002b	8b 04 88	 mov	 eax, DWORD PTR [eax+ecx*4]
  0002e	8b 0c d0	 mov	 ecx, DWORD PTR [eax+edx*8]
  00031	8b 54 d0 04	 mov	 edx, DWORD PTR [eax+edx*8+4]
  00035	8b 45 08	 mov	 eax, DWORD PTR ___$ReturnUdt$[ebp]
  00038	89 08		 mov	 DWORD PTR [eax], ecx
  0003a	89 50 04	 mov	 DWORD PTR [eax+4], edx
; File D:\git\src\IBK\IBK_DRFN\ProjSrc\SrcChartEx\ChartAddIn\ChartAnalysisToolAddIn\AnalysisTool\ElementTreeBuilder.cpp

; 89   : }

  0003d	8b e5		 mov	 esp, ebp
  0003f	5d		 pop	 ebp
  00040	c2 08 00	 ret	 8
$LN3@GetData:

; 29   : 	m_nIndex(nIndex),

  00043	8b 45 08	 mov	 eax, DWORD PTR ___$ReturnUdt$[ebp]
  00046	5e		 pop	 esi
  00047	c7 00 ff ff ff
	ff		 mov	 DWORD PTR [eax], -1

; 30   : 	m_pElement(pElement)

  0004d	c7 40 04 00 00
	00 00		 mov	 DWORD PTR [eax+4], 0

; 89   : }

  00054	8b e5		 mov	 esp, ebp
  00056	5d		 pop	 ebp
  00057	c2 08 00	 ret	 8
?GetData@CElementAndOrderSet@@QBE?AVCElementAndOrder@@H@Z ENDP ; CElementAndOrderSet::GetData
_TEXT	ENDS
; Function compile flags: /Ogtp
; File D:\git\src\IBK\IBK_DRFN\ProjSrc\SrcChartEx\ChartAddIn\ChartAnalysisToolAddIn\AnalysisTool\ElementTreeBuilder.cpp
; File C:\Program Files (x86)\Microsoft Visual Studio\2019\Community\VC\Tools\MSVC\14.29.30133\include\deque
; File D:\git\src\IBK\IBK_DRFN\ProjSrc\SrcChartEx\ChartAddIn\ChartAnalysisToolAddIn\AnalysisTool\ElementTreeBuilder.cpp
;	COMDAT ?GetMaxIndex@CElementAndOrderSet@@QBEHXZ
_TEXT	SEGMENT
?GetMaxIndex@CElementAndOrderSet@@QBEHXZ PROC		; CElementAndOrderSet::GetMaxIndex, COMDAT
; _this$ = ecx

; 71   : {

  00000	55		 push	 ebp
  00001	8b ec		 mov	 ebp, esp
  00003	83 ec 08	 sub	 esp, 8
  00006	53		 push	 ebx
  00007	56		 push	 esi
  00008	57		 push	 edi
  00009	8b f9		 mov	 edi, ecx

; 72   : 	int nMaxIndex = -1;

  0000b	33 db		 xor	 ebx, ebx
  0000d	83 ce ff	 or	 esi, -1

; 73   : 	for(int nIndex = 0; nIndex < m_ElementAndOrderSet.GetCount(); nIndex++)

  00010	39 5f 10	 cmp	 DWORD PTR [edi+16], ebx
  00013	7e 2c		 jle	 SHORT $LN27@GetMaxInde
; File C:\Program Files (x86)\Microsoft Visual Studio\2019\Community\VC\Tools\MSVC\14.29.30133\include\deque

; 43   :         : _Mycont(static_cast<const _Mydeque*>(_Pdeque)), _Myoff(_Off) {}

  00015	8b 47 0c	 mov	 eax, DWORD PTR [edi+12]
$LL4@GetMaxInde:

; 78   :         _Myoff += _Off;

  00018	8d 14 18	 lea	 edx, DWORD PTR [eax+ebx]

; 559  :         return (_Off / _Block_size) & (_Mapsize - 1);

  0001b	8b 47 08	 mov	 eax, DWORD PTR [edi+8]
  0001e	48		 dec	 eax

; 78   :         _Myoff += _Off;

  0001f	8b ca		 mov	 ecx, edx
  00021	d1 e9		 shr	 ecx, 1

; 48   :         return _Mycont->_Map[_Block][_Off];

  00023	83 e2 01	 and	 edx, 1

; 559  :         return (_Off / _Block_size) & (_Mapsize - 1);

  00026	23 c8		 and	 ecx, eax

; 48   :         return _Mycont->_Map[_Block][_Off];

  00028	8b 47 04	 mov	 eax, DWORD PTR [edi+4]
  0002b	8b 04 88	 mov	 eax, DWORD PTR [eax+ecx*4]
  0002e	8b 0c d0	 mov	 ecx, DWORD PTR [eax+edx*8]
; File D:\git\src\IBK\IBK_DRFN\ProjSrc\SrcChartEx\ChartAddIn\ChartAnalysisToolAddIn\AnalysisTool\ElementTreeBuilder.cpp

; 73   : 	for(int nIndex = 0; nIndex < m_ElementAndOrderSet.GetCount(); nIndex++)

  00031	3b ce		 cmp	 ecx, esi
  00033	8b 47 0c	 mov	 eax, DWORD PTR [edi+12]
  00036	0f 4e ce	 cmovle	 ecx, esi
  00039	43		 inc	 ebx
  0003a	8b f1		 mov	 esi, ecx
  0003c	3b 5f 10	 cmp	 ebx, DWORD PTR [edi+16]
  0003f	7c d7		 jl	 SHORT $LL4@GetMaxInde
$LN27@GetMaxInde:
  00041	5f		 pop	 edi

; 74   : 	{
; 75   : 		int nData = m_ElementAndOrderSet.GetAt(nIndex).GetIndex();
; 76   : 		if(nData > nMaxIndex)
; 77   : 			nMaxIndex = nData;
; 78   : 	}
; 79   : 	return nMaxIndex;
; 80   : }

  00042	8b c6		 mov	 eax, esi
  00044	5e		 pop	 esi
  00045	5b		 pop	 ebx
  00046	8b e5		 mov	 esp, ebp
  00048	5d		 pop	 ebp
  00049	c3		 ret	 0
?GetMaxIndex@CElementAndOrderSet@@QBEHXZ ENDP		; CElementAndOrderSet::GetMaxIndex
_TEXT	ENDS
; Function compile flags: /Ogtp
; File D:\git\src\IBK\IBK_DRFN\ProjSrc\SrcChartEx\ChartAddIn\ChartAnalysisToolAddIn\AnalysisTool\ElementTreeBuilder.cpp
;	COMDAT ?GetCount@CElementAndOrderSet@@QBEHXZ
_TEXT	SEGMENT
?GetCount@CElementAndOrderSet@@QBEHXZ PROC		; CElementAndOrderSet::GetCount, COMDAT
; _this$ = ecx

; 66   : 	return m_ElementAndOrderSet.GetCount();

  00000	8b 41 10	 mov	 eax, DWORD PTR [ecx+16]

; 67   : }

  00003	c3		 ret	 0
?GetCount@CElementAndOrderSet@@QBEHXZ ENDP		; CElementAndOrderSet::GetCount
_TEXT	ENDS
; Function compile flags: /Ogtp
; File D:\git\src\IBK\IBK_DRFN\ProjSrc\SrcChartEx\ChartAddIn\ChartAnalysisToolAddIn\AnalysisTool\ElementTreeBuilder.cpp
; File C:\Program Files (x86)\Microsoft Visual Studio\2019\Community\VC\Tools\MSVC\14.29.30133\include\deque
; File C:\Program Files (x86)\Microsoft Visual Studio\2019\Community\VC\Tools\MSVC\14.29.30133\include\xmemory
; File C:\Program Files (x86)\Microsoft Visual Studio\2019\Community\VC\Tools\MSVC\14.29.30133\include\deque
; File C:\Program Files (x86)\Microsoft Visual Studio\2019\Community\VC\Tools\MSVC\14.29.30133\include\xmemory
; File C:\Program Files (x86)\Microsoft Visual Studio\2019\Community\VC\Tools\MSVC\14.29.30133\include\deque
; File D:\git\src\IBK\IBK_DRFN\ProjSrc\SrcChartEx\ChartAddIn\ChartAnalysisToolAddIn\AnalysisTool\ElementTreeBuilder.cpp
;	COMDAT ?AddTail@CElementAndOrderSet@@QAEXABVCElementAndOrder@@@Z
_TEXT	SEGMENT
_elementAndOrder$ = 8					; size = 4
?AddTail@CElementAndOrderSet@@QAEXABVCElementAndOrder@@@Z PROC ; CElementAndOrderSet::AddTail, COMDAT
; _this$ = ecx

; 58   : {

  00000	55		 push	 ebp
  00001	8b ec		 mov	 ebp, esp
  00003	53		 push	 ebx
  00004	56		 push	 esi
  00005	8b f1		 mov	 esi, ecx
  00007	57		 push	 edi
; File C:\Program Files (x86)\Microsoft Visual Studio\2019\Community\VC\Tools\MSVC\14.29.30133\include\deque

; 1106 :         if ((_Myoff() + _Mysize()) % _Block_size == 0 && _Mapsize() <= (_Mysize() + _Block_size) / _Block_size) {

  00008	8b 4e 10	 mov	 ecx, DWORD PTR [esi+16]
  0000b	8b f9		 mov	 edi, ecx
  0000d	8b 56 0c	 mov	 edx, DWORD PTR [esi+12]
  00010	8d 04 0a	 lea	 eax, DWORD PTR [edx+ecx]
  00013	a8 01		 test	 al, 1
  00015	75 19		 jne	 SHORT $LN8@AddTail
  00017	8d 41 02	 lea	 eax, DWORD PTR [ecx+2]
  0001a	d1 e8		 shr	 eax, 1
  0001c	39 46 08	 cmp	 DWORD PTR [esi+8], eax
  0001f	77 0f		 ja	 SHORT $LN8@AddTail

; 1107 :             _Growmap(1);

  00021	6a 01		 push	 1
  00023	8b ce		 mov	 ecx, esi
  00025	e8 00 00 00 00	 call	 ?_Growmap@?$deque@VCElementAndOrder@@V?$allocator@VCElementAndOrder@@@std@@@std@@AAEXI@Z ; std::deque<CElementAndOrder,std::allocator<CElementAndOrder> >::_Growmap
  0002a	8b 56 0c	 mov	 edx, DWORD PTR [esi+12]
  0002d	8b 7e 10	 mov	 edi, DWORD PTR [esi+16]
$LN8@AddTail:

; 1108 :         }
; 1109 :         _Myoff() &= _Mapsize() * _Block_size - 1;

  00030	8b 4e 08	 mov	 ecx, DWORD PTR [esi+8]
  00033	8d 04 4d ff ff
	ff ff		 lea	 eax, DWORD PTR [ecx*2-1]

; 559  :         return (_Off / _Block_size) & (_Mapsize - 1);

  0003a	49		 dec	 ecx

; 1109 :         _Myoff() &= _Mapsize() * _Block_size - 1;

  0003b	23 c2		 and	 eax, edx

; 1110 :         size_type _Newoff = _Myoff() + _Mysize();

  0003d	03 f8		 add	 edi, eax
  0003f	89 46 0c	 mov	 DWORD PTR [esi+12], eax

; 559  :         return (_Off / _Block_size) & (_Mapsize - 1);

  00042	8b c7		 mov	 eax, edi
  00044	d1 e8		 shr	 eax, 1
  00046	23 c8		 and	 ecx, eax

; 1112 :         if (_Map()[_Block] == nullptr) {

  00048	8b 46 04	 mov	 eax, DWORD PTR [esi+4]
  0004b	83 3c 88 00	 cmp	 DWORD PTR [eax+ecx*4], 0
  0004f	8d 1c 8d 00 00
	00 00		 lea	 ebx, DWORD PTR [ecx*4]
  00056	75 10		 jne	 SHORT $LN9@AddTail
; File C:\Program Files (x86)\Microsoft Visual Studio\2019\Community\VC\Tools\MSVC\14.29.30133\include\xmemory

; 79   :         return ::operator new(_Bytes);

  00058	6a 10		 push	 16			; 00000010H
  0005a	e8 00 00 00 00	 call	 ??2@YAPAXI@Z		; operator new
; File C:\Program Files (x86)\Microsoft Visual Studio\2019\Community\VC\Tools\MSVC\14.29.30133\include\deque

; 1113 :             _Map()[_Block] = _Getal().allocate(_Block_size);

  0005f	8b 4e 04	 mov	 ecx, DWORD PTR [esi+4]
; File C:\Program Files (x86)\Microsoft Visual Studio\2019\Community\VC\Tools\MSVC\14.29.30133\include\xmemory

; 79   :         return ::operator new(_Bytes);

  00062	83 c4 04	 add	 esp, 4
; File C:\Program Files (x86)\Microsoft Visual Studio\2019\Community\VC\Tools\MSVC\14.29.30133\include\deque

; 1113 :             _Map()[_Block] = _Getal().allocate(_Block_size);

  00065	89 04 0b	 mov	 DWORD PTR [ebx+ecx], eax
$LN9@AddTail:

; 1114 :         }
; 1115 : 
; 1116 :         _Alty_traits::construct(

  00068	8b 45 08	 mov	 eax, DWORD PTR _elementAndOrder$[ebp]
  0006b	83 e7 01	 and	 edi, 1
  0006e	8b 08		 mov	 ecx, DWORD PTR [eax]
  00070	8b 50 04	 mov	 edx, DWORD PTR [eax+4]
  00073	8b 46 04	 mov	 eax, DWORD PTR [esi+4]
  00076	8b 04 03	 mov	 eax, DWORD PTR [ebx+eax]
  00079	89 0c f8	 mov	 DWORD PTR [eax+edi*8], ecx
  0007c	89 54 f8 04	 mov	 DWORD PTR [eax+edi*8+4], edx

; 1117 :             _Getal(), _Unfancy(_Map()[_Block] + _Newoff % _Block_size), _STD forward<_Tys>(_Vals)...);
; 1118 : 
; 1119 :         ++_Mysize();

  00080	ff 46 10	 inc	 DWORD PTR [esi+16]
  00083	5f		 pop	 edi
  00084	5e		 pop	 esi
  00085	5b		 pop	 ebx
; File D:\git\src\IBK\IBK_DRFN\ProjSrc\SrcChartEx\ChartAddIn\ChartAnalysisToolAddIn\AnalysisTool\ElementTreeBuilder.cpp

; 60   : }

  00086	5d		 pop	 ebp
  00087	c2 04 00	 ret	 4
?AddTail@CElementAndOrderSet@@QAEXABVCElementAndOrder@@@Z ENDP ; CElementAndOrderSet::AddTail
_TEXT	ENDS
; Function compile flags: /Ogtp
; File D:\git\src\IBK\IBK_DRFN\ProjSrc\SrcChartEx\ChartAddIn\ChartAnalysisToolAddIn\AnalysisTool\ElementTreeBuilder.cpp
;	COMDAT ?GetElement@CElementAndOrder@@QBEPAVCElement@@XZ
_TEXT	SEGMENT
?GetElement@CElementAndOrder@@QBEPAVCElement@@XZ PROC	; CElementAndOrder::GetElement, COMDAT
; _this$ = ecx

; 51   : 	return m_pElement;

  00000	8b 41 04	 mov	 eax, DWORD PTR [ecx+4]

; 52   : }

  00003	c3		 ret	 0
?GetElement@CElementAndOrder@@QBEPAVCElement@@XZ ENDP	; CElementAndOrder::GetElement
_TEXT	ENDS
; Function compile flags: /Ogtp
; File D:\git\src\IBK\IBK_DRFN\ProjSrc\SrcChartEx\ChartAddIn\ChartAnalysisToolAddIn\AnalysisTool\ElementTreeBuilder.cpp
;	COMDAT ?GetIndex@CElementAndOrder@@QBEHXZ
_TEXT	SEGMENT
?GetIndex@CElementAndOrder@@QBEHXZ PROC			; CElementAndOrder::GetIndex, COMDAT
; _this$ = ecx

; 46   : 	return m_nIndex;

  00000	8b 01		 mov	 eax, DWORD PTR [ecx]

; 47   : }

  00002	c3		 ret	 0
?GetIndex@CElementAndOrder@@QBEHXZ ENDP			; CElementAndOrder::GetIndex
_TEXT	ENDS
; Function compile flags: /Ogtp
; File D:\git\src\IBK\IBK_DRFN\ProjSrc\SrcChartEx\ChartAddIn\ChartAnalysisToolAddIn\AnalysisTool\ElementTreeBuilder.cpp
;	COMDAT ??4CElementAndOrder@@QAEAAV0@ABV0@@Z
_TEXT	SEGMENT
_elementAndOrder$ = 8					; size = 4
??4CElementAndOrder@@QAEAAV0@ABV0@@Z PROC		; CElementAndOrder::operator=, COMDAT
; _this$ = ecx

; 35   : {

  00000	55		 push	 ebp
  00001	8b ec		 mov	 ebp, esp

; 36   : 	if(this == &elementAndOrder)

  00003	8b 55 08	 mov	 edx, DWORD PTR _elementAndOrder$[ebp]
  00006	3b ca		 cmp	 ecx, edx
  00008	74 0a		 je	 SHORT $LN4@operator

; 37   : 		return *this;
; 38   : 
; 39   : 	m_nIndex = elementAndOrder.GetIndex();

  0000a	8b 02		 mov	 eax, DWORD PTR [edx]
  0000c	89 01		 mov	 DWORD PTR [ecx], eax

; 40   : 	m_pElement = elementAndOrder.GetElement();

  0000e	8b 42 04	 mov	 eax, DWORD PTR [edx+4]
  00011	89 41 04	 mov	 DWORD PTR [ecx+4], eax
$LN4@operator:

; 41   : 	return *this;
; 42   : }

  00014	8b c1		 mov	 eax, ecx
  00016	5d		 pop	 ebp
  00017	c2 04 00	 ret	 4
??4CElementAndOrder@@QAEAAV0@ABV0@@Z ENDP		; CElementAndOrder::operator=
_TEXT	ENDS
; Function compile flags: /Ogtp
; File D:\git\src\IBK\IBK_DRFN\ProjSrc\SrcChartEx\ChartAddIn\ChartAnalysisToolAddIn\AnalysisTool\ElementTreeBuilder.cpp
;	COMDAT ??0CElementAndOrder@@QAE@HPAVCElement@@@Z
_TEXT	SEGMENT
_nIndex$ = 8						; size = 4
_pElement$ = 12						; size = 4
??0CElementAndOrder@@QAE@HPAVCElement@@@Z PROC		; CElementAndOrder::CElementAndOrder, COMDAT
; _this$ = ecx

; 31   : {

  00000	55		 push	 ebp
  00001	8b ec		 mov	 ebp, esp

; 29   : 	m_nIndex(nIndex),

  00003	8b 45 08	 mov	 eax, DWORD PTR _nIndex$[ebp]
  00006	89 01		 mov	 DWORD PTR [ecx], eax

; 30   : 	m_pElement(pElement)

  00008	8b 45 0c	 mov	 eax, DWORD PTR _pElement$[ebp]
  0000b	89 41 04	 mov	 DWORD PTR [ecx+4], eax

; 32   : }

  0000e	8b c1		 mov	 eax, ecx
  00010	5d		 pop	 ebp
  00011	c2 08 00	 ret	 8
??0CElementAndOrder@@QAE@HPAVCElement@@@Z ENDP		; CElementAndOrder::CElementAndOrder
_TEXT	ENDS
; Function compile flags: /Ogtp
; File C:\Program Files (x86)\Microsoft Visual Studio\2019\Community\VC\Tools\MSVC\14.29.30133\include\exception
;	COMDAT ?_Throw_bad_array_new_length@std@@YAXXZ
_TEXT	SEGMENT
$T1 = -12						; size = 12
?_Throw_bad_array_new_length@std@@YAXXZ PROC		; std::_Throw_bad_array_new_length, COMDAT

; 315  : [[noreturn]] inline void _Throw_bad_array_new_length() {

  00000	55		 push	 ebp
  00001	8b ec		 mov	 ebp, esp
  00003	83 ec 0c	 sub	 esp, 12			; 0000000cH

; 316  :     _THROW(bad_array_new_length{});

  00006	8d 4d f4	 lea	 ecx, DWORD PTR $T1[ebp]
  00009	e8 00 00 00 00	 call	 ??0bad_array_new_length@std@@QAE@XZ ; std::bad_array_new_length::bad_array_new_length
  0000e	68 00 00 00 00	 push	 OFFSET __TI3?AVbad_array_new_length@std@@
  00013	8d 45 f4	 lea	 eax, DWORD PTR $T1[ebp]
  00016	50		 push	 eax
  00017	e8 00 00 00 00	 call	 __CxxThrowException@8
$LN3@Throw_bad_:
  0001c	cc		 int	 3
?_Throw_bad_array_new_length@std@@YAXXZ ENDP		; std::_Throw_bad_array_new_length
_TEXT	ENDS
; Function compile flags: /Ogtp
; File C:\Program Files (x86)\Microsoft Visual Studio\2019\Community\VC\Tools\MSVC\14.29.30133\include\vcruntime_exception.h
;	COMDAT ??_Gbad_array_new_length@std@@UAEPAXI@Z
_TEXT	SEGMENT
___flags$ = 8						; size = 4
??_Gbad_array_new_length@std@@UAEPAXI@Z PROC		; std::bad_array_new_length::`scalar deleting destructor', COMDAT
; _this$ = ecx
  00000	55		 push	 ebp
  00001	8b ec		 mov	 ebp, esp

; 89   :     {

  00003	56		 push	 esi
  00004	8b f1		 mov	 esi, ecx

; 90   :         __std_exception_destroy(&_Data);

  00006	8d 46 04	 lea	 eax, DWORD PTR [esi+4]
  00009	c7 06 00 00 00
	00		 mov	 DWORD PTR [esi], OFFSET ??_7exception@std@@6B@
  0000f	50		 push	 eax
  00010	e8 00 00 00 00	 call	 ___std_exception_destroy
  00015	83 c4 04	 add	 esp, 4
  00018	f6 45 08 01	 test	 BYTE PTR ___flags$[ebp], 1
  0001c	74 0b		 je	 SHORT $LN12@scalar
  0001e	6a 0c		 push	 12			; 0000000cH
  00020	56		 push	 esi
  00021	e8 00 00 00 00	 call	 ??3@YAXPAXI@Z		; operator delete
  00026	83 c4 08	 add	 esp, 8
$LN12@scalar:
  00029	8b c6		 mov	 eax, esi
  0002b	5e		 pop	 esi
  0002c	5d		 pop	 ebp
  0002d	c2 04 00	 ret	 4
??_Gbad_array_new_length@std@@UAEPAXI@Z ENDP		; std::bad_array_new_length::`scalar deleting destructor'
_TEXT	ENDS
; Function compile flags: /Ogtp
; File C:\Program Files (x86)\Microsoft Visual Studio\2019\Community\VC\Tools\MSVC\14.29.30133\include\vcruntime_exception.h
;	COMDAT ??0bad_array_new_length@std@@QAE@ABV01@@Z
_TEXT	SEGMENT
___that$ = 8						; size = 4
??0bad_array_new_length@std@@QAE@ABV01@@Z PROC		; std::bad_array_new_length::bad_array_new_length, COMDAT
; _this$ = ecx
  00000	55		 push	 ebp
  00001	8b ec		 mov	 ebp, esp

; 72   :     {

  00003	56		 push	 esi
  00004	8b f1		 mov	 esi, ecx
  00006	0f 57 c0	 xorps	 xmm0, xmm0

; 71   :         : _Data()

  00009	8d 46 04	 lea	 eax, DWORD PTR [esi+4]

; 73   :         __std_exception_copy(&_Other._Data, &_Data);

  0000c	50		 push	 eax
  0000d	c7 06 00 00 00
	00		 mov	 DWORD PTR [esi], OFFSET ??_7exception@std@@6B@
  00013	66 0f d6 00	 movq	 QWORD PTR [eax], xmm0
  00017	8b 45 08	 mov	 eax, DWORD PTR ___that$[ebp]
  0001a	83 c0 04	 add	 eax, 4
  0001d	50		 push	 eax
  0001e	e8 00 00 00 00	 call	 ___std_exception_copy
  00023	83 c4 08	 add	 esp, 8
  00026	c7 06 00 00 00
	00		 mov	 DWORD PTR [esi], OFFSET ??_7bad_array_new_length@std@@6B@
  0002c	8b c6		 mov	 eax, esi
  0002e	5e		 pop	 esi
  0002f	5d		 pop	 ebp
  00030	c2 04 00	 ret	 4
??0bad_array_new_length@std@@QAE@ABV01@@Z ENDP		; std::bad_array_new_length::bad_array_new_length
_TEXT	ENDS
; Function compile flags: /Ogtp
; File C:\Program Files (x86)\Microsoft Visual Studio\2019\Community\VC\Tools\MSVC\14.29.30133\include\vcruntime_exception.h
;	COMDAT ??1bad_array_new_length@std@@UAE@XZ
_TEXT	SEGMENT
??1bad_array_new_length@std@@UAE@XZ PROC		; std::bad_array_new_length::~bad_array_new_length, COMDAT
; _this$ = ecx

; 90   :         __std_exception_destroy(&_Data);

  00000	8d 41 04	 lea	 eax, DWORD PTR [ecx+4]
  00003	c7 01 00 00 00
	00		 mov	 DWORD PTR [ecx], OFFSET ??_7exception@std@@6B@
  00009	50		 push	 eax
  0000a	e8 00 00 00 00	 call	 ___std_exception_destroy
  0000f	59		 pop	 ecx
  00010	c3		 ret	 0
??1bad_array_new_length@std@@UAE@XZ ENDP		; std::bad_array_new_length::~bad_array_new_length
_TEXT	ENDS
; Function compile flags: /Ogtp
; File C:\Program Files (x86)\Microsoft Visual Studio\2019\Community\VC\Tools\MSVC\14.29.30133\include\vcruntime_exception.h
;	COMDAT ??0bad_array_new_length@std@@QAE@XZ
_TEXT	SEGMENT
??0bad_array_new_length@std@@QAE@XZ PROC		; std::bad_array_new_length::bad_array_new_length, COMDAT
; _this$ = ecx

; 141  :     {

  00000	0f 57 c0	 xorps	 xmm0, xmm0

; 142  :     }

  00003	8b c1		 mov	 eax, ecx

; 65   :         : _Data()

  00005	66 0f d6 41 04	 movq	 QWORD PTR [ecx+4], xmm0

; 66   :     {
; 67   :         _Data._What = _Message;

  0000a	c7 41 04 00 00
	00 00		 mov	 DWORD PTR [ecx+4], OFFSET ??_C@_0BF@KINCDENJ@bad?5array?5new?5length@

; 141  :     {

  00011	c7 01 00 00 00
	00		 mov	 DWORD PTR [ecx], OFFSET ??_7bad_array_new_length@std@@6B@

; 142  :     }

  00017	c3		 ret	 0
??0bad_array_new_length@std@@QAE@XZ ENDP		; std::bad_array_new_length::bad_array_new_length
_TEXT	ENDS
; Function compile flags: /Ogtp
; File C:\Program Files (x86)\Microsoft Visual Studio\2019\Community\VC\Tools\MSVC\14.29.30133\include\vcruntime_exception.h
;	COMDAT ??_Gbad_alloc@std@@UAEPAXI@Z
_TEXT	SEGMENT
___flags$ = 8						; size = 4
??_Gbad_alloc@std@@UAEPAXI@Z PROC			; std::bad_alloc::`scalar deleting destructor', COMDAT
; _this$ = ecx
  00000	55		 push	 ebp
  00001	8b ec		 mov	 ebp, esp

; 89   :     {

  00003	56		 push	 esi
  00004	8b f1		 mov	 esi, ecx

; 90   :         __std_exception_destroy(&_Data);

  00006	8d 46 04	 lea	 eax, DWORD PTR [esi+4]
  00009	c7 06 00 00 00
	00		 mov	 DWORD PTR [esi], OFFSET ??_7exception@std@@6B@
  0000f	50		 push	 eax
  00010	e8 00 00 00 00	 call	 ___std_exception_destroy
  00015	83 c4 04	 add	 esp, 4
  00018	f6 45 08 01	 test	 BYTE PTR ___flags$[ebp], 1
  0001c	74 0b		 je	 SHORT $LN9@scalar
  0001e	6a 0c		 push	 12			; 0000000cH
  00020	56		 push	 esi
  00021	e8 00 00 00 00	 call	 ??3@YAXPAXI@Z		; operator delete
  00026	83 c4 08	 add	 esp, 8
$LN9@scalar:
  00029	8b c6		 mov	 eax, esi
  0002b	5e		 pop	 esi
  0002c	5d		 pop	 ebp
  0002d	c2 04 00	 ret	 4
??_Gbad_alloc@std@@UAEPAXI@Z ENDP			; std::bad_alloc::`scalar deleting destructor'
_TEXT	ENDS
; Function compile flags: /Ogtp
; File C:\Program Files (x86)\Microsoft Visual Studio\2019\Community\VC\Tools\MSVC\14.29.30133\include\vcruntime_exception.h
;	COMDAT ??0bad_alloc@std@@QAE@ABV01@@Z
_TEXT	SEGMENT
___that$ = 8						; size = 4
??0bad_alloc@std@@QAE@ABV01@@Z PROC			; std::bad_alloc::bad_alloc, COMDAT
; _this$ = ecx
  00000	55		 push	 ebp
  00001	8b ec		 mov	 ebp, esp

; 72   :     {

  00003	56		 push	 esi
  00004	8b f1		 mov	 esi, ecx
  00006	0f 57 c0	 xorps	 xmm0, xmm0

; 71   :         : _Data()

  00009	8d 46 04	 lea	 eax, DWORD PTR [esi+4]

; 73   :         __std_exception_copy(&_Other._Data, &_Data);

  0000c	50		 push	 eax
  0000d	c7 06 00 00 00
	00		 mov	 DWORD PTR [esi], OFFSET ??_7exception@std@@6B@
  00013	66 0f d6 00	 movq	 QWORD PTR [eax], xmm0
  00017	8b 45 08	 mov	 eax, DWORD PTR ___that$[ebp]
  0001a	83 c0 04	 add	 eax, 4
  0001d	50		 push	 eax
  0001e	e8 00 00 00 00	 call	 ___std_exception_copy
  00023	83 c4 08	 add	 esp, 8
  00026	c7 06 00 00 00
	00		 mov	 DWORD PTR [esi], OFFSET ??_7bad_alloc@std@@6B@
  0002c	8b c6		 mov	 eax, esi
  0002e	5e		 pop	 esi
  0002f	5d		 pop	 ebp
  00030	c2 04 00	 ret	 4
??0bad_alloc@std@@QAE@ABV01@@Z ENDP			; std::bad_alloc::bad_alloc
_TEXT	ENDS
; Function compile flags: /Ogtp
; File C:\Program Files (x86)\Microsoft Visual Studio\2019\Community\VC\Tools\MSVC\14.29.30133\include\vcruntime_exception.h
;	COMDAT ??_Gexception@std@@UAEPAXI@Z
_TEXT	SEGMENT
___flags$ = 8						; size = 4
??_Gexception@std@@UAEPAXI@Z PROC			; std::exception::`scalar deleting destructor', COMDAT
; _this$ = ecx
  00000	55		 push	 ebp
  00001	8b ec		 mov	 ebp, esp

; 89   :     {

  00003	56		 push	 esi
  00004	8b f1		 mov	 esi, ecx

; 90   :         __std_exception_destroy(&_Data);

  00006	8d 46 04	 lea	 eax, DWORD PTR [esi+4]
  00009	c7 06 00 00 00
	00		 mov	 DWORD PTR [esi], OFFSET ??_7exception@std@@6B@
  0000f	50		 push	 eax
  00010	e8 00 00 00 00	 call	 ___std_exception_destroy
  00015	83 c4 04	 add	 esp, 4
  00018	f6 45 08 01	 test	 BYTE PTR ___flags$[ebp], 1
  0001c	74 0b		 je	 SHORT $LN6@scalar
  0001e	6a 0c		 push	 12			; 0000000cH
  00020	56		 push	 esi
  00021	e8 00 00 00 00	 call	 ??3@YAXPAXI@Z		; operator delete
  00026	83 c4 08	 add	 esp, 8
$LN6@scalar:
  00029	8b c6		 mov	 eax, esi
  0002b	5e		 pop	 esi
  0002c	5d		 pop	 ebp
  0002d	c2 04 00	 ret	 4
??_Gexception@std@@UAEPAXI@Z ENDP			; std::exception::`scalar deleting destructor'
_TEXT	ENDS
; Function compile flags: /Ogtp
; File C:\Program Files (x86)\Microsoft Visual Studio\2019\Community\VC\Tools\MSVC\14.29.30133\include\vcruntime_exception.h
;	COMDAT ?what@exception@std@@UBEPBDXZ
_TEXT	SEGMENT
?what@exception@std@@UBEPBDXZ PROC			; std::exception::what, COMDAT
; _this$ = ecx

; 95   :         return _Data._What ? _Data._What : "Unknown exception";

  00000	8b 49 04	 mov	 ecx, DWORD PTR [ecx+4]
  00003	b8 00 00 00 00	 mov	 eax, OFFSET ??_C@_0BC@EOODALEL@Unknown?5exception@
  00008	85 c9		 test	 ecx, ecx
  0000a	0f 45 c1	 cmovne	 eax, ecx

; 96   :     }

  0000d	c3		 ret	 0
?what@exception@std@@UBEPBDXZ ENDP			; std::exception::what
_TEXT	ENDS
; Function compile flags: /Ogtp
; File C:\Program Files (x86)\Microsoft Visual Studio\2019\Community\VC\Tools\MSVC\14.29.30133\include\vcruntime_exception.h
;	COMDAT ??1exception@std@@UAE@XZ
_TEXT	SEGMENT
??1exception@std@@UAE@XZ PROC				; std::exception::~exception, COMDAT
; _this$ = ecx

; 90   :         __std_exception_destroy(&_Data);

  00000	8d 41 04	 lea	 eax, DWORD PTR [ecx+4]
  00003	c7 01 00 00 00
	00		 mov	 DWORD PTR [ecx], OFFSET ??_7exception@std@@6B@
  00009	50		 push	 eax
  0000a	e8 00 00 00 00	 call	 ___std_exception_destroy
  0000f	59		 pop	 ecx

; 91   :     }

  00010	c3		 ret	 0
??1exception@std@@UAE@XZ ENDP				; std::exception::~exception
_TEXT	ENDS
; Function compile flags: /Ogtp
; File C:\Program Files (x86)\Microsoft Visual Studio\2019\Community\VC\Tools\MSVC\14.29.30133\include\vcruntime_exception.h
;	COMDAT ??0exception@std@@QAE@ABV01@@Z
_TEXT	SEGMENT
__Other$ = 8						; size = 4
??0exception@std@@QAE@ABV01@@Z PROC			; std::exception::exception, COMDAT
; _this$ = ecx

; 72   :     {

  00000	55		 push	 ebp
  00001	8b ec		 mov	 ebp, esp
  00003	56		 push	 esi
  00004	8b f1		 mov	 esi, ecx
  00006	0f 57 c0	 xorps	 xmm0, xmm0
  00009	8d 46 04	 lea	 eax, DWORD PTR [esi+4]

; 73   :         __std_exception_copy(&_Other._Data, &_Data);

  0000c	50		 push	 eax
  0000d	c7 06 00 00 00
	00		 mov	 DWORD PTR [esi], OFFSET ??_7exception@std@@6B@
  00013	66 0f d6 00	 movq	 QWORD PTR [eax], xmm0
  00017	8b 45 08	 mov	 eax, DWORD PTR __Other$[ebp]
  0001a	83 c0 04	 add	 eax, 4
  0001d	50		 push	 eax
  0001e	e8 00 00 00 00	 call	 ___std_exception_copy
  00023	83 c4 08	 add	 esp, 8

; 74   :     }

  00026	8b c6		 mov	 eax, esi
  00028	5e		 pop	 esi
  00029	5d		 pop	 ebp
  0002a	c2 04 00	 ret	 4
??0exception@std@@QAE@ABV01@@Z ENDP			; std::exception::exception
_TEXT	ENDS
; Function compile flags: /Ogtp
; File C:\Program Files (x86)\Microsoft Visual Studio\2019\Community\VC\Tools\MSVC\14.29.30133\atlmfc\include\cstringt.h
; File C:\Program Files (x86)\Microsoft Visual Studio\2019\Community\VC\Tools\MSVC\14.29.30133\atlmfc\include\atlsimpstr.h
; File C:\Program Files (x86)\Microsoft Visual Studio\2019\Community\VC\Tools\MSVC\14.29.30133\atlmfc\include\cstringt.h
; File C:\Program Files (x86)\Microsoft Visual Studio\2019\Community\VC\Tools\MSVC\14.29.30133\atlmfc\include\atlsimpstr.h
; File C:\Program Files (x86)\Microsoft Visual Studio\2019\Community\VC\Tools\MSVC\14.29.30133\atlmfc\include\cstringt.h
;	COMDAT ??HATL@@YA?AV?$CStringT@DV?$StrTraitMFC_DLL@DV?$ChTraitsCRT@D@ATL@@@@@0@ABV10@0@Z
_TEXT	SEGMENT
$T2 = -16						; size = 4
__$EHRec$ = -12						; size = 12
___$ReturnUdt$ = 8					; size = 4
_str1$ = 12						; size = 4
_str2$ = 16						; size = 4
??HATL@@YA?AV?$CStringT@DV?$StrTraitMFC_DLL@DV?$ChTraitsCRT@D@ATL@@@@@0@ABV10@0@Z PROC ; ATL::operator+, COMDAT

; 2389 : 	{

  00000	55		 push	 ebp
  00001	8b ec		 mov	 ebp, esp
  00003	6a ff		 push	 -1
  00005	68 00 00 00 00	 push	 __ehhandler$??HATL@@YA?AV?$CStringT@DV?$StrTraitMFC_DLL@DV?$ChTraitsCRT@D@ATL@@@@@0@ABV10@0@Z
  0000a	64 a1 00 00 00
	00		 mov	 eax, DWORD PTR fs:0
  00010	50		 push	 eax
  00011	51		 push	 ecx
  00012	56		 push	 esi
  00013	57		 push	 edi
  00014	a1 00 00 00 00	 mov	 eax, DWORD PTR ___security_cookie
  00019	33 c5		 xor	 eax, ebp
  0001b	50		 push	 eax
  0001c	8d 45 f4	 lea	 eax, DWORD PTR __$EHRec$[ebp]
  0001f	64 a3 00 00 00
	00		 mov	 DWORD PTR fs:0, eax

; 2390 : 		CStringT strResult( str1.GetManager() );

  00025	8b 75 0c	 mov	 esi, DWORD PTR _str1$[ebp]
  00028	8b ce		 mov	 ecx, esi
  0002a	c7 45 f0 00 00
	00 00		 mov	 DWORD PTR $T2[ebp], 0
  00031	ff 15 00 00 00
	00		 call	 DWORD PTR __imp_?GetManager@?$CStringT@DV?$StrTraitMFC_DLL@DV?$ChTraitsCRT@D@ATL@@@@@ATL@@QBEPAUIAtlStringMgr@2@XZ
  00037	8b 7d 08	 mov	 edi, DWORD PTR ___$ReturnUdt$[ebp]
  0003a	8b cf		 mov	 ecx, edi
  0003c	50		 push	 eax
  0003d	ff 15 00 00 00
	00		 call	 DWORD PTR __imp_??0?$CStringT@DV?$StrTraitMFC_DLL@DV?$ChTraitsCRT@D@ATL@@@@@ATL@@QAE@PAUIAtlStringMgr@1@@Z
; File C:\Program Files (x86)\Microsoft Visual Studio\2019\Community\VC\Tools\MSVC\14.29.30133\atlmfc\include\atlsimpstr.h

; 519  : 		return( GetData()->nDataLength );

  00043	8b 45 10	 mov	 eax, DWORD PTR _str2$[ebp]
  00046	8b 16		 mov	 edx, DWORD PTR [esi]
; File C:\Program Files (x86)\Microsoft Visual Studio\2019\Community\VC\Tools\MSVC\14.29.30133\atlmfc\include\cstringt.h

; 2394 : 		return( strResult );

  00048	c7 45 fc 00 00
	00 00		 mov	 DWORD PTR __$EHRec$[ebp+8], 0
  0004f	c7 45 f0 01 00
	00 00		 mov	 DWORD PTR $T2[ebp], 1
; File C:\Program Files (x86)\Microsoft Visual Studio\2019\Community\VC\Tools\MSVC\14.29.30133\atlmfc\include\atlsimpstr.h

; 519  : 		return( GetData()->nDataLength );

  00056	8b 08		 mov	 ecx, DWORD PTR [eax]
; File C:\Program Files (x86)\Microsoft Visual Studio\2019\Community\VC\Tools\MSVC\14.29.30133\atlmfc\include\cstringt.h

; 2392 : 		CThisSimpleString::Concatenate( strResult, str1, str1.GetLength(), str2, str2.GetLength() );

  00058	ff 71 f4	 push	 DWORD PTR [ecx-12]
  0005b	51		 push	 ecx
  0005c	ff 72 f4	 push	 DWORD PTR [edx-12]
  0005f	52		 push	 edx
  00060	57		 push	 edi
  00061	ff 15 00 00 00
	00		 call	 DWORD PTR __imp_?Concatenate@?$CSimpleStringT@D$00@ATL@@KAXAAV12@PBDH1H@Z
  00067	83 c4 14	 add	 esp, 20			; 00000014H

; 2394 : 		return( strResult );

  0006a	8b c7		 mov	 eax, edi

; 2395 : 	}

  0006c	8b 4d f4	 mov	 ecx, DWORD PTR __$EHRec$[ebp]
  0006f	64 89 0d 00 00
	00 00		 mov	 DWORD PTR fs:0, ecx
  00076	59		 pop	 ecx
  00077	5f		 pop	 edi
  00078	5e		 pop	 esi
  00079	8b e5		 mov	 esp, ebp
  0007b	5d		 pop	 ebp
  0007c	c3		 ret	 0
_TEXT	ENDS
;	COMDAT text$x
text$x	SEGMENT
__unwindfunclet$??HATL@@YA?AV?$CStringT@DV?$StrTraitMFC_DLL@DV?$ChTraitsCRT@D@ATL@@@@@0@ABV10@0@Z$0:
  00000	8b 45 f0	 mov	 eax, DWORD PTR $T2[ebp]
  00003	83 e0 01	 and	 eax, 1
  00006	0f 84 0d 00 00
	00		 je	 $LN4@operator
  0000c	83 65 f0 fe	 and	 DWORD PTR $T2[ebp], -2	; fffffffeH
  00010	8b 4d 08	 mov	 ecx, DWORD PTR ___$ReturnUdt$[ebp]
  00013	ff 25 00 00 00
	00		 jmp	 DWORD PTR __imp_??1?$CStringT@DV?$StrTraitMFC_DLL@DV?$ChTraitsCRT@D@ATL@@@@@ATL@@QAE@XZ
$LN4@operator:
  00019	c3		 ret	 0
  0001a	cc		 int	 3
  0001b	cc		 int	 3
  0001c	cc		 int	 3
  0001d	cc		 int	 3
  0001e	cc		 int	 3
__ehhandler$??HATL@@YA?AV?$CStringT@DV?$StrTraitMFC_DLL@DV?$ChTraitsCRT@D@ATL@@@@@0@ABV10@0@Z:
  0001f	90		 npad	 1
  00020	90		 npad	 1
  00021	8b 54 24 08	 mov	 edx, DWORD PTR [esp+8]
  00025	8d 42 0c	 lea	 eax, DWORD PTR [edx+12]
  00028	8b 4a f0	 mov	 ecx, DWORD PTR [edx-16]
  0002b	33 c8		 xor	 ecx, eax
  0002d	e8 00 00 00 00	 call	 @__security_check_cookie@4
  00032	b8 00 00 00 00	 mov	 eax, OFFSET __ehfuncinfo$??HATL@@YA?AV?$CStringT@DV?$StrTraitMFC_DLL@DV?$ChTraitsCRT@D@ATL@@@@@0@ABV10@0@Z
  00037	e9 00 00 00 00	 jmp	 ___CxxFrameHandler3
text$x	ENDS
??HATL@@YA?AV?$CStringT@DV?$StrTraitMFC_DLL@DV?$ChTraitsCRT@D@ATL@@@@@0@ABV10@0@Z ENDP ; ATL::operator+
; Function compile flags: /Ogtp
; File C:\Program Files (x86)\Microsoft Visual Studio\2019\Community\VC\Tools\MSVC\14.29.30133\atlmfc\include\atlexcept.h
;	COMDAT ?AtlThrowImpl@ATL@@YGXJ@Z
_TEXT	SEGMENT
_hr$ = 8						; size = 4
?AtlThrowImpl@ATL@@YGXJ@Z PROC				; ATL::AtlThrowImpl, COMDAT

; 65   : {

  00000	55		 push	 ebp
  00001	8b ec		 mov	 ebp, esp

; 66   : 	ATLTRACE(atlTraceException, 0, _T("AtlThrow: hr = 0x%x\n"), hr );
; 67   : #ifdef _AFX
; 68   : 	if( hr == E_OUTOFMEMORY )

  00003	8b 45 08	 mov	 eax, DWORD PTR _hr$[ebp]
  00006	3d 0e 00 07 80	 cmp	 eax, -2147024882	; 8007000eH
  0000b	75 05		 jne	 SHORT $LN2@AtlThrowIm

; 69   : 	{
; 70   : 		AfxThrowMemoryException();

  0000d	e8 00 00 00 00	 call	 ?AfxThrowMemoryException@@YGXXZ ; AfxThrowMemoryException
$LN2@AtlThrowIm:

; 71   : 	}
; 72   : 	else
; 73   : 	{
; 74   : 		AfxThrowOleException( hr );

  00012	50		 push	 eax
  00013	e8 00 00 00 00	 call	 ?AfxThrowOleException@@YGXJ@Z ; AfxThrowOleException
$LN5@AtlThrowIm:
  00018	cc		 int	 3
?AtlThrowImpl@ATL@@YGXJ@Z ENDP				; ATL::AtlThrowImpl
_TEXT	ENDS
; Function compile flags: /Ogtp
; File D:\git\src\IBK\IBK_DRFN\ProjSrc\SrcChartEx\ChartAddIn\ChartAnalysisToolAddIn\AnalysisTool\ElementTreeBuilder.cpp
;	COMDAT ?__empty_global_delete@@YAXPAXI@Z
_TEXT	SEGMENT
___formal$ = 8						; size = 4
___formal$ = 12						; size = 4
?__empty_global_delete@@YAXPAXI@Z PROC			; __empty_global_delete, COMDAT

  00000	c2 00 00	 ret	 0
?__empty_global_delete@@YAXPAXI@Z ENDP			; __empty_global_delete
_TEXT	ENDS
; Function compile flags: /Ogtp
; File D:\git\src\IBK\IBK_DRFN\ProjSrc\SrcChartEx\ChartAddIn\ChartAnalysisToolAddIn\AnalysisTool\ElementTreeBuilder.cpp
;	COMDAT ?__empty_global_delete@@YAXPAX@Z
_TEXT	SEGMENT
___formal$ = 8						; size = 4
?__empty_global_delete@@YAXPAX@Z PROC			; __empty_global_delete, COMDAT

  00000	c2 00 00	 ret	 0
?__empty_global_delete@@YAXPAX@Z ENDP			; __empty_global_delete
_TEXT	ENDS
END
