; Listing generated by Microsoft (R) Optimizing Compiler Version 19.29.30145.0 

	TITLE	D:\git\src\IBK\IBK_DRFN\#DRfn-CS\_Obj\AnalysisTool\ElementEnvironment.obj
	.686P
	.XMM
	include listing.inc
	.model	flat

INCLUDELIB MSVCRT
INCLUDELIB OLDNAMES

PUBLIC	?__empty_global_delete@@YAXPAX@Z		; __empty_global_delete
PUBLIC	?__empty_global_delete@@YAXPAXI@Z		; __empty_global_delete
PUBLIC	??HATL@@YA?AV?$CStringT@DV?$StrTraitMFC_DLL@DV?$ChTraitsCRT@D@ATL@@@@@0@ABV10@0@Z ; ATL::operator+
PUBLIC	??HATL@@YA?AV?$CStringT@DV?$StrTraitMFC_DLL@DV?$ChTraitsCRT@D@ATL@@@@@0@ABV10@PBD@Z ; ATL::operator+
PUBLIC	??HATL@@YA?AV?$CStringT@DV?$StrTraitMFC_DLL@DV?$ChTraitsCRT@D@ATL@@@@@0@PBDABV10@@Z ; ATL::operator+
PUBLIC	??4CPenEnvironment@@QAEAAV0@ABV0@@Z		; CPenEnvironment::operator=
PUBLIC	??0CPenEnvironment@@QAE@XZ			; CPenEnvironment::CPenEnvironment
PUBLIC	??0CPenEnvironment@@QAE@ABKHW4PenStyle@CToolEnumData@@@Z ; CPenEnvironment::CPenEnvironment
PUBLIC	??0CPenEnvironment@@QAE@PAV0@@Z			; CPenEnvironment::CPenEnvironment
PUBLIC	?CreatePen@CPenEnvironment@@QAEX_NAAVCPen@@@Z	; CPenEnvironment::CreatePen
PUBLIC	?Set@CPenEnvironment@@QAEXABV1@@Z		; CPenEnvironment::Set
PUBLIC	?SetColor@CPenEnvironment@@QAEXABK@Z		; CPenEnvironment::SetColor
PUBLIC	?SetWidth@CPenEnvironment@@QAEXH@Z		; CPenEnvironment::SetWidth
PUBLIC	?SetStyle@CPenEnvironment@@QAEXW4PenStyle@CToolEnumData@@@Z ; CPenEnvironment::SetStyle
PUBLIC	?GetColor@CPenEnvironment@@QBEKXZ		; CPenEnvironment::GetColor
PUBLIC	?GetWidth@CPenEnvironment@@QBEHXZ		; CPenEnvironment::GetWidth
PUBLIC	?GetStyle@CPenEnvironment@@QBE?AW4PenStyle@CToolEnumData@@XZ ; CPenEnvironment::GetStyle
PUBLIC	?GetSavedData@CPenEnvironment@@QBE?AV?$CStringT@DV?$StrTraitMFC_DLL@DV?$ChTraitsCRT@D@ATL@@@@@ATL@@XZ ; CPenEnvironment::GetSavedData
PUBLIC	?GetStyle_Draw@CPenEnvironment@@ABEHXZ		; CPenEnvironment::GetStyle_Draw
PUBLIC	?GetSavedColor@CPenEnvironment@@ABE?AV?$CStringT@DV?$StrTraitMFC_DLL@DV?$ChTraitsCRT@D@ATL@@@@@ATL@@XZ ; CPenEnvironment::GetSavedColor
PUBLIC	?GetSavedWidth@CPenEnvironment@@ABE?AV?$CStringT@DV?$StrTraitMFC_DLL@DV?$ChTraitsCRT@D@ATL@@@@@ATL@@XZ ; CPenEnvironment::GetSavedWidth
PUBLIC	?GetSavedStyle@CPenEnvironment@@ABE?AV?$CStringT@DV?$StrTraitMFC_DLL@DV?$ChTraitsCRT@D@ATL@@@@@ATL@@XZ ; CPenEnvironment::GetSavedStyle
PUBLIC	??4CDataTypeEnvironment@@QAEAAV0@ABV0@@Z	; CDataTypeEnvironment::operator=
PUBLIC	??0CDataTypeEnvironment@@QAE@XZ			; CDataTypeEnvironment::CDataTypeEnvironment
PUBLIC	??0CDataTypeEnvironment@@QAE@W4COORDINATETYPE@CAnalysis@@ABNABV?$CStringT@DV?$StrTraitMFC_DLL@DV?$ChTraitsCRT@D@ATL@@@@@ATL@@PAUHWND__@@W4CHART_MODE@CChartInfo@@@Z ; CDataTypeEnvironment::CDataTypeEnvironment
PUBLIC	??0CDataTypeEnvironment@@QAE@W4COORDINATETYPE@CAnalysis@@ABNABV?$CStringT@DV?$StrTraitMFC_DLL@DV?$ChTraitsCRT@D@ATL@@@@@ATL@@2PAUHWND__@@W4CHART_MODE@CChartInfo@@@Z ; CDataTypeEnvironment::CDataTypeEnvironment
PUBLIC	??0CDataTypeEnvironment@@QAE@W4COORDINATETYPE@CAnalysis@@ABNABV?$CStringT@DV?$StrTraitMFC_DLL@DV?$ChTraitsCRT@D@ATL@@@@@ATL@@22PAUHWND__@@W4CHART_MODE@CChartInfo@@@Z ; CDataTypeEnvironment::CDataTypeEnvironment
PUBLIC	??0CDataTypeEnvironment@@QAE@PBV0@@Z		; CDataTypeEnvironment::CDataTypeEnvironment
PUBLIC	?Reset_AbsolutePoint@CDataTypeEnvironment@@QAEXXZ ; CDataTypeEnvironment::Reset_AbsolutePoint
PUBLIC	?SetCoordinateType@CDataTypeEnvironment@@QAEXW4COORDINATETYPE@CAnalysis@@@Z ; CDataTypeEnvironment::SetCoordinateType
PUBLIC	?SetVert@CDataTypeEnvironment@@QAEXABN@Z	; CDataTypeEnvironment::SetVert
PUBLIC	?SetHorz@CDataTypeEnvironment@@QAEXABV?$CStringT@DV?$StrTraitMFC_DLL@DV?$ChTraitsCRT@D@ATL@@@@@ATL@@@Z ; CDataTypeEnvironment::SetHorz
PUBLIC	?SetExtData@CDataTypeEnvironment@@QAEXABV?$CStringT@DV?$StrTraitMFC_DLL@DV?$ChTraitsCRT@D@ATL@@@@@ATL@@@Z ; CDataTypeEnvironment::SetExtData
PUBLIC	?SetStrVert@CDataTypeEnvironment@@QAEXABV?$CStringT@DV?$StrTraitMFC_DLL@DV?$ChTraitsCRT@D@ATL@@@@@ATL@@@Z ; CDataTypeEnvironment::SetStrVert
PUBLIC	?IsRelativePointType@CDataTypeEnvironment@@QBE_NXZ ; CDataTypeEnvironment::IsRelativePointType
PUBLIC	?IsDateType@CDataTypeEnvironment@@QBE_NXZ	; CDataTypeEnvironment::IsDateType
PUBLIC	?GetCoordinateType@CDataTypeEnvironment@@QBE?AW4COORDINATETYPE@CAnalysis@@XZ ; CDataTypeEnvironment::GetCoordinateType
PUBLIC	?GetVert@CDataTypeEnvironment@@QBENXZ		; CDataTypeEnvironment::GetVert
PUBLIC	?GetHorz@CDataTypeEnvironment@@QBE?AV?$CStringT@DV?$StrTraitMFC_DLL@DV?$ChTraitsCRT@D@ATL@@@@@ATL@@XZ ; CDataTypeEnvironment::GetHorz
PUBLIC	?GetDateCompart@CDataTypeEnvironment@@QBE?AV?$CStringT@DV?$StrTraitMFC_DLL@DV?$ChTraitsCRT@D@ATL@@@@@ATL@@XZ ; CDataTypeEnvironment::GetDateCompart
PUBLIC	?GetTimeCompart@CDataTypeEnvironment@@QBE?AV?$CStringT@DV?$StrTraitMFC_DLL@DV?$ChTraitsCRT@D@ATL@@@@@ATL@@XZ ; CDataTypeEnvironment::GetTimeCompart
PUBLIC	?GetExtData@CDataTypeEnvironment@@QBE?AV?$CStringT@DV?$StrTraitMFC_DLL@DV?$ChTraitsCRT@D@ATL@@@@@ATL@@XZ ; CDataTypeEnvironment::GetExtData
PUBLIC	?GetStrVert@CDataTypeEnvironment@@QBE?AV?$CStringT@DV?$StrTraitMFC_DLL@DV?$ChTraitsCRT@D@ATL@@@@@ATL@@XZ ; CDataTypeEnvironment::GetStrVert
PUBLIC	?GetSavedData@CDataTypeEnvironment@@QBE?AV?$CStringT@DV?$StrTraitMFC_DLL@DV?$ChTraitsCRT@D@ATL@@@@@ATL@@XZ ; CDataTypeEnvironment::GetSavedData
PUBLIC	?GetSavedCoordinateType@CDataTypeEnvironment@@ABE?AV?$CStringT@DV?$StrTraitMFC_DLL@DV?$ChTraitsCRT@D@ATL@@@@@ATL@@XZ ; CDataTypeEnvironment::GetSavedCoordinateType
PUBLIC	?GetSavedVert@CDataTypeEnvironment@@ABE?AV?$CStringT@DV?$StrTraitMFC_DLL@DV?$ChTraitsCRT@D@ATL@@@@@ATL@@XZ ; CDataTypeEnvironment::GetSavedVert
PUBLIC	?GetSavedHorz@CDataTypeEnvironment@@ABE?AV?$CStringT@DV?$StrTraitMFC_DLL@DV?$ChTraitsCRT@D@ATL@@@@@ATL@@XZ ; CDataTypeEnvironment::GetSavedHorz
PUBLIC	?GetSavedExtData@CDataTypeEnvironment@@ABE?AV?$CStringT@DV?$StrTraitMFC_DLL@DV?$ChTraitsCRT@D@ATL@@@@@ATL@@XZ ; CDataTypeEnvironment::GetSavedExtData
PUBLIC	?GetSavedStrVert@CDataTypeEnvironment@@ABE?AV?$CStringT@DV?$StrTraitMFC_DLL@DV?$ChTraitsCRT@D@ATL@@@@@ATL@@XZ ; CDataTypeEnvironment::GetSavedStrVert
PUBLIC	??1CDataTypeEnvironment@@QAE@XZ			; CDataTypeEnvironment::~CDataTypeEnvironment
PUBLIC	??4CLineExtEnvironment@@QAEAAV0@ABV0@@Z		; CLineExtEnvironment::operator=
PUBLIC	??0CLineExtEnvironment@@QAE@XZ			; CLineExtEnvironment::CLineExtEnvironment
PUBLIC	??0CLineExtEnvironment@@QAE@ABH0@Z		; CLineExtEnvironment::CLineExtEnvironment
PUBLIC	??0CLineExtEnvironment@@QAE@ABV0@@Z		; CLineExtEnvironment::CLineExtEnvironment
PUBLIC	??0CLineExtEnvironment@@QAE@PAV0@@Z		; CLineExtEnvironment::CLineExtEnvironment
PUBLIC	?Set@CLineExtEnvironment@@QAEXABV1@@Z		; CLineExtEnvironment::Set
PUBLIC	?SetLineExt@CLineExtEnvironment@@QAEXABH0@Z	; CLineExtEnvironment::SetLineExt
PUBLIC	?GetLeftExt@CLineExtEnvironment@@QBEHXZ		; CLineExtEnvironment::GetLeftExt
PUBLIC	?GetRightExt@CLineExtEnvironment@@QBEHXZ	; CLineExtEnvironment::GetRightExt
PUBLIC	?GetSavedData@CLineExtEnvironment@@QBE?AV?$CStringT@DV?$StrTraitMFC_DLL@DV?$ChTraitsCRT@D@ATL@@@@@ATL@@XZ ; CLineExtEnvironment::GetSavedData
PUBLIC	?GetSavedLineExt@CLineExtEnvironment@@ABE?AV?$CStringT@DV?$StrTraitMFC_DLL@DV?$ChTraitsCRT@D@ATL@@@@@ATL@@XZ ; CLineExtEnvironment::GetSavedLineExt
PUBLIC	??4CElementCommonEnvironment@@QAEAAV0@ABV0@@Z	; CElementCommonEnvironment::operator=
PUBLIC	??0CElementCommonEnvironment@@QAE@XZ		; CElementCommonEnvironment::CElementCommonEnvironment
PUBLIC	??0CElementCommonEnvironment@@QAE@_NABH1ABVCPenEnvironment@@ABVCDataTypeEnvironment@@ABVCLineExtEnvironment@@@Z ; CElementCommonEnvironment::CElementCommonEnvironment
PUBLIC	?SetAutoPrice@CElementCommonEnvironment@@QAEX_N@Z ; CElementCommonEnvironment::SetAutoPrice
PUBLIC	?IsAutoPrice@CElementCommonEnvironment@@QBE_NXZ	; CElementCommonEnvironment::IsAutoPrice
PUBLIC	?GetEquiDiv@CElementCommonEnvironment@@QBEHXZ	; CElementCommonEnvironment::GetEquiDiv
PUBLIC	?GetEquiDiv@CElementCommonEnvironment@@QAEAAHXZ	; CElementCommonEnvironment::GetEquiDiv
PUBLIC	?SetEquiDiv@CElementCommonEnvironment@@QAEXH@Z	; CElementCommonEnvironment::SetEquiDiv
PUBLIC	?GetPriceRangeDiv@CElementCommonEnvironment@@QBEHXZ ; CElementCommonEnvironment::GetPriceRangeDiv
PUBLIC	?GetPriceRangeDiv@CElementCommonEnvironment@@QAEAAHXZ ; CElementCommonEnvironment::GetPriceRangeDiv
PUBLIC	?SetPriceRangeDiv@CElementCommonEnvironment@@QAEXH@Z ; CElementCommonEnvironment::SetPriceRangeDiv
PUBLIC	?IsLeftLineExt@CElementCommonEnvironment@@QBEHXZ ; CElementCommonEnvironment::IsLeftLineExt
PUBLIC	?IsRightLineExt@CElementCommonEnvironment@@QBEHXZ ; CElementCommonEnvironment::IsRightLineExt
PUBLIC	?SetLineExt@CElementCommonEnvironment@@QAEXHH@Z	; CElementCommonEnvironment::SetLineExt
PUBLIC	?GetLineExt@CElementCommonEnvironment@@QBE?AVCLineExtEnvironment@@XZ ; CElementCommonEnvironment::GetLineExt
PUBLIC	?GetLineExt@CElementCommonEnvironment@@QAEAAVCLineExtEnvironment@@XZ ; CElementCommonEnvironment::GetLineExt
PUBLIC	?GetPen@CElementCommonEnvironment@@QBE?AVCPenEnvironment@@XZ ; CElementCommonEnvironment::GetPen
PUBLIC	?GetDataType@CElementCommonEnvironment@@QBE?AVCDataTypeEnvironment@@XZ ; CElementCommonEnvironment::GetDataType
PUBLIC	?GetPen@CElementCommonEnvironment@@QAEAAVCPenEnvironment@@XZ ; CElementCommonEnvironment::GetPen
PUBLIC	?GetDataType@CElementCommonEnvironment@@QAEAAVCDataTypeEnvironment@@XZ ; CElementCommonEnvironment::GetDataType
PUBLIC	?GetSavedData@CElementCommonEnvironment@@QBE?AV?$CStringT@DV?$StrTraitMFC_DLL@DV?$ChTraitsCRT@D@ATL@@@@@ATL@@XZ ; CElementCommonEnvironment::GetSavedData
PUBLIC	?GetSaveData_AutoPrice@CElementCommonEnvironment@@ABE?AV?$CStringT@DV?$StrTraitMFC_DLL@DV?$ChTraitsCRT@D@ATL@@@@@ATL@@XZ ; CElementCommonEnvironment::GetSaveData_AutoPrice
PUBLIC	?GetSaveData_EquiDiv@CElementCommonEnvironment@@ABE?AV?$CStringT@DV?$StrTraitMFC_DLL@DV?$ChTraitsCRT@D@ATL@@@@@ATL@@XZ ; CElementCommonEnvironment::GetSaveData_EquiDiv
PUBLIC	?GetSaveData_PriceRangeDiv@CElementCommonEnvironment@@ABE?AV?$CStringT@DV?$StrTraitMFC_DLL@DV?$ChTraitsCRT@D@ATL@@@@@ATL@@XZ ; CElementCommonEnvironment::GetSaveData_PriceRangeDiv
PUBLIC	??4CTextEnvironment@@QAEAAV0@ABV0@@Z		; CTextEnvironment::operator=
PUBLIC	??0CTextEnvironment@@QAE@XZ			; CTextEnvironment::CTextEnvironment
PUBLIC	??0CTextEnvironment@@QAE@ABK@Z			; CTextEnvironment::CTextEnvironment
PUBLIC	??0CTextEnvironment@@QAE@ABV0@@Z		; CTextEnvironment::CTextEnvironment
PUBLIC	??0CTextEnvironment@@QAE@PAV0@@Z		; CTextEnvironment::CTextEnvironment
PUBLIC	?Set@CTextEnvironment@@QAEXABV1@@Z		; CTextEnvironment::Set
PUBLIC	?SetColor@CTextEnvironment@@QAEXABK@Z		; CTextEnvironment::SetColor
PUBLIC	?GetColor@CTextEnvironment@@QBEKXZ		; CTextEnvironment::GetColor
PUBLIC	?GetSavedData@CTextEnvironment@@QBE?AV?$CStringT@DV?$StrTraitMFC_DLL@DV?$ChTraitsCRT@D@ATL@@@@@ATL@@XZ ; CTextEnvironment::GetSavedData
PUBLIC	?GetSavedColor@CTextEnvironment@@ABE?AV?$CStringT@DV?$StrTraitMFC_DLL@DV?$ChTraitsCRT@D@ATL@@@@@ATL@@XZ ; CTextEnvironment::GetSavedColor
PUBLIC	??4CTextPosition@@QAEAAV0@ABV0@@Z		; CTextPosition::operator=
PUBLIC	??0CTextPosition@@QAE@XZ			; CTextPosition::CTextPosition
PUBLIC	??0CTextPosition@@QAE@ABVCTextEnvironment@@@Z	; CTextPosition::CTextPosition
PUBLIC	?Set@CTextPosition@@UAEXPBV1@@Z			; CTextPosition::Set
PUBLIC	?SetTextEnvironment@CTextPosition@@QAEXABVCTextEnvironment@@@Z ; CTextPosition::SetTextEnvironment
PUBLIC	?GetTextEnvironment@CTextPosition@@QBE?AVCTextEnvironment@@XZ ; CTextPosition::GetTextEnvironment
PUBLIC	?GetTextEnvironment@CTextPosition@@QAEAAVCTextEnvironment@@XZ ; CTextPosition::GetTextEnvironment
PUBLIC	?GetSavedData@CTextPosition@@QBE?AV?$CStringT@DV?$StrTraitMFC_DLL@DV?$ChTraitsCRT@D@ATL@@@@@ATL@@XZ ; CTextPosition::GetSavedData
PUBLIC	?GetDataOfOneLine@CTextPosition@@IBE?AV?$CStringT@DV?$StrTraitMFC_DLL@DV?$ChTraitsCRT@D@ATL@@@@@ATL@@_NABV23@@Z ; CTextPosition::GetDataOfOneLine
PUBLIC	?GetSavedData_TextPosition@CTextPosition@@ABE?AV?$CStringT@DV?$StrTraitMFC_DLL@DV?$ChTraitsCRT@D@ATL@@@@@ATL@@XZ ; CTextPosition::GetSavedData_TextPosition
PUBLIC	??0CTextShowPosition@@QAE@XZ			; CTextShowPosition::CTextShowPosition
PUBLIC	??0CTextShowPosition@@QAE@ABVCTextEnvironment@@_N@Z ; CTextShowPosition::CTextShowPosition
PUBLIC	??0CTextShowPosition@@QAE@ABV0@@Z		; CTextShowPosition::CTextShowPosition
PUBLIC	?Set@CTextShowPosition@@UAEXPBVCTextPosition@@@Z ; CTextShowPosition::Set
PUBLIC	?SetShow@CTextShowPosition@@QAEX_N@Z		; CTextShowPosition::SetShow
PUBLIC	?IsShow@CTextShowPosition@@QBE_NXZ		; CTextShowPosition::IsShow
PUBLIC	?GetSavedRealTextPositionData@CTextShowPosition@@MBE?AV?$CStringT@DV?$StrTraitMFC_DLL@DV?$ChTraitsCRT@D@ATL@@@@@ATL@@XZ ; CTextShowPosition::GetSavedRealTextPositionData
PUBLIC	??0CTextHorzPosition@@QAE@XZ			; CTextHorzPosition::CTextHorzPosition
PUBLIC	??0CTextHorzPosition@@QAE@ABVCTextEnvironment@@_N11@Z ; CTextHorzPosition::CTextHorzPosition
PUBLIC	??0CTextHorzPosition@@QAE@ABV0@@Z		; CTextHorzPosition::CTextHorzPosition
PUBLIC	?Set@CTextHorzPosition@@UAEXPBVCTextPosition@@@Z ; CTextHorzPosition::Set
PUBLIC	?SetLeft@CTextHorzPosition@@QAEX_N@Z		; CTextHorzPosition::SetLeft
PUBLIC	?SetRight@CTextHorzPosition@@QAEX_N@Z		; CTextHorzPosition::SetRight
PUBLIC	?SetRightRate@CTextHorzPosition@@QAEX_N@Z	; CTextHorzPosition::SetRightRate
PUBLIC	?GetLeft@CTextHorzPosition@@QBE_NXZ		; CTextHorzPosition::GetLeft
PUBLIC	?GetRight@CTextHorzPosition@@QBE_NXZ		; CTextHorzPosition::GetRight
PUBLIC	?GetRightRate@CTextHorzPosition@@QBE_NXZ	; CTextHorzPosition::GetRightRate
PUBLIC	?GetSavedRealTextPositionData@CTextHorzPosition@@MBE?AV?$CStringT@DV?$StrTraitMFC_DLL@DV?$ChTraitsCRT@D@ATL@@@@@ATL@@XZ ; CTextHorzPosition::GetSavedRealTextPositionData
PUBLIC	??0CTextVertPosition@@QAE@XZ			; CTextVertPosition::CTextVertPosition
PUBLIC	??0CTextVertPosition@@QAE@ABVCTextEnvironment@@_N1@Z ; CTextVertPosition::CTextVertPosition
PUBLIC	??0CTextVertPosition@@QAE@ABV0@@Z		; CTextVertPosition::CTextVertPosition
PUBLIC	?Set@CTextVertPosition@@UAEXPBVCTextPosition@@@Z ; CTextVertPosition::Set
PUBLIC	?SetTop@CTextVertPosition@@QAEX_N@Z		; CTextVertPosition::SetTop
PUBLIC	?SetBottom@CTextVertPosition@@QAEX_N@Z		; CTextVertPosition::SetBottom
PUBLIC	?GetTop@CTextVertPosition@@QBE_NXZ		; CTextVertPosition::GetTop
PUBLIC	?GetBottom@CTextVertPosition@@QBE_NXZ		; CTextVertPosition::GetBottom
PUBLIC	?GetSavedRealTextPositionData@CTextVertPosition@@MBE?AV?$CStringT@DV?$StrTraitMFC_DLL@DV?$ChTraitsCRT@D@ATL@@@@@ATL@@XZ ; CTextVertPosition::GetSavedRealTextPositionData
PUBLIC	??4CTextHorzVertPosition@@QAEAAV0@ABV0@@Z	; CTextHorzVertPosition::operator=
PUBLIC	??0CTextHorzVertPosition@@QAE@XZ		; CTextHorzVertPosition::CTextHorzVertPosition
PUBLIC	??0CTextHorzVertPosition@@QAE@ABVCTextEnvironment@@_N111@Z ; CTextHorzVertPosition::CTextHorzVertPosition
PUBLIC	?Set@CTextHorzVertPosition@@UAEXPBVCTextPosition@@@Z ; CTextHorzVertPosition::Set
PUBLIC	?SetLeft@CTextHorzVertPosition@@QAEX_N@Z	; CTextHorzVertPosition::SetLeft
PUBLIC	?SetRight@CTextHorzVertPosition@@QAEX_N@Z	; CTextHorzVertPosition::SetRight
PUBLIC	?SetTop@CTextHorzVertPosition@@QAEX_N@Z		; CTextHorzVertPosition::SetTop
PUBLIC	?SetBottom@CTextHorzVertPosition@@QAEX_N@Z	; CTextHorzVertPosition::SetBottom
PUBLIC	?GetLeft@CTextHorzVertPosition@@QBE_NXZ		; CTextHorzVertPosition::GetLeft
PUBLIC	?GetRight@CTextHorzVertPosition@@QBE_NXZ	; CTextHorzVertPosition::GetRight
PUBLIC	?GetTop@CTextHorzVertPosition@@QBE_NXZ		; CTextHorzVertPosition::GetTop
PUBLIC	?GetBottom@CTextHorzVertPosition@@QBE_NXZ	; CTextHorzVertPosition::GetBottom
PUBLIC	?GetHorz@CTextHorzVertPosition@@QBE?AVCTextHorzPosition@@XZ ; CTextHorzVertPosition::GetHorz
PUBLIC	?GetVert@CTextHorzVertPosition@@QBE?AVCTextVertPosition@@XZ ; CTextHorzVertPosition::GetVert
PUBLIC	?GetSavedRealTextPositionData@CTextHorzVertPosition@@MBE?AV?$CStringT@DV?$StrTraitMFC_DLL@DV?$ChTraitsCRT@D@ATL@@@@@ATL@@XZ ; CTextHorzVertPosition::GetSavedRealTextPositionData
PUBLIC	??_C@_00CNPNBAHC@@				; `string'
PUBLIC	??_7CTextPosition@@6B@				; CTextPosition::`vftable'
PUBLIC	??_7CTextShowPosition@@6B@			; CTextShowPosition::`vftable'
PUBLIC	??_7CTextHorzPosition@@6B@			; CTextHorzPosition::`vftable'
PUBLIC	??_7CTextVertPosition@@6B@			; CTextVertPosition::`vftable'
PUBLIC	??_7CTextHorzVertPosition@@6B@			; CTextHorzVertPosition::`vftable'
PUBLIC	??_C@_0BG@BEDOAAKG@?$DMPen?$DO?$AN?6?$CFs?$CFs?$CFs?$DM?2Pen?$DO?$AN?6@ ; `string'
PUBLIC	??_C@_0L@CPJBKACB@?$DM?2Color?$DO?$AN?6@	; `string'
PUBLIC	??_C@_07ONMJGOJF@?$DMColor?$DO@			; `string'
PUBLIC	??_C@_0L@GIHMIJMH@?$DM?2Width?$DO?$AN?6@	; `string'
PUBLIC	??_C@_07ONIIIKM@?$DMWidth?$DO@			; `string'
PUBLIC	??_C@_0L@MDDCEFHI@?$DM?2Style?$DO?$AN?6@	; `string'
PUBLIC	??_C@_07EANKACOK@?$DMStyle?$DO@			; `string'
PUBLIC	??_C@_01HIHLOKLC@1@				; `string'
PUBLIC	??_C@_01KMDKNFGN@?1@				; `string'
PUBLIC	??_C@_01JLIPDDHJ@?3@				; `string'
PUBLIC	??_C@_0N@GLGCPBKI@?$DMDataType?$DO?$AN?6@	; `string'
PUBLIC	??_C@_0CE@NMDKCJFM@?$DMDataType?$DO?$AN?6?$CFs?$CFs?$CFs?$CFs?$CFs?$DM?2DataTyp@ ; `string'
PUBLIC	??_C@_0BA@IFAPIPNB@?$DM?2Coordinate?$DO?$AN?6@	; `string'
PUBLIC	??_C@_0N@CAIHOMCE@?$DMCoordinate?$DO@		; `string'
PUBLIC	??_C@_09BIGAMANA@?$DM?2Vert?$DO?$AN?6@		; `string'
PUBLIC	??_C@_06FFFOEPJG@?$DMVert?$DO@			; `string'
PUBLIC	??_C@_09GKBBACOG@?$DM?2Horz?$DO?$AN?6@		; `string'
PUBLIC	??_C@_06CMKMBJNG@?$DMHorz?$DO@			; `string'
PUBLIC	??_C@_0N@ONMDHGBL@?$DM?2ExtData?$DO?$AN?6@	; `string'
PUBLIC	??_C@_09EBDLFGEM@?$DMExtData?$DO@		; `string'
PUBLIC	??_C@_0N@HGCOAIDN@?$DM?2StrVert?$DO?$AN?6@	; `string'
PUBLIC	??_C@_09COIGHGNF@?$DMStrVert?$DO@		; `string'
PUBLIC	??_C@_0DI@GHGECPII@?$DMCommonEnvironment?$DO?$AN?6?$CFs?$CFs?$CFs?$CFs?$CFs@ ; `string'
PUBLIC	??_C@_0BM@ELHGNBJI@?$DMAutoPirce?$DO?$CFd?$DM?2AutoPirce?$DO?$AN?6@ ; `string'
PUBLIC	??_C@_0BI@JFOMILGF@?$DMEquiDiv?$DO?$CFd?$DM?2EquiDiv?$DO?$AN?6@ ; `string'
PUBLIC	??_C@_0CE@KBAOJFJE@?$DMPriceRangeDiv?$DO?$CFd?$DM?2PriceRangeDi@ ; `string'
PUBLIC	??_C@_0BK@FDALAKDP@?$DMLineExt?$DO?$AN?6?$CFs?$DM?2LineExt?$DO?$AN?6@ ; `string'
PUBLIC	??_C@_0O@CEMHHFOM@?$DM?2RightExt?$DO?$AN?6@	; `string'
PUBLIC	??_C@_0L@CFEIJGAO@?$DMRightExt?$DO@		; `string'
PUBLIC	??_C@_0N@KHBFLOEK@?$DM?2LeftExt?$DO?$AN?6@	; `string'
PUBLIC	??_C@_09JKGHBJEA@?$DMLeftExt?$DO@		; `string'
PUBLIC	??_C@_0CK@OGEBLLHG@?$DMTextEnvironment?$DO?$AN?6?$CFs?$DM?2TextEnvi@ ; `string'
PUBLIC	??_C@_0CM@MGBIECEJ@?$DMPartEnvironment?$DO?$AN?6?$CFs?$CFs?$DM?2PartEn@ ; `string'
PUBLIC	??_C@_0O@LNMCLPEF@?$DM?$CFs?$DO?$CFd?$DM?2?$CFs?$DO?$AN?6@ ; `string'
PUBLIC	??_C@_0CE@NIHIPAJG@?$DMTextPosition?$DO?$AN?6?$CFs?$DM?2TextPositio@ ; `string'
PUBLIC	??_C@_04JLAJABDJ@Show@				; `string'
PUBLIC	??_C@_0BE@CKCBMKAP@?$DMHorz?$DO?$AN?6?$CFs?$DM?2Horz?$DO?$AN?6@ ; `string'
PUBLIC	??_C@_04LDOGFLEB@Rate@				; `string'
PUBLIC	??_C@_05DADPALEM@Right@				; `string'
PUBLIC	??_C@_04KPCPLBPL@Left@				; `string'
PUBLIC	??_C@_0BI@GMNKDDJL@?$DMHorz?$DO?$AN?6?$CFs?$CFs?$CFs?$DM?2Horz?$DO?$AN?6@ ; `string'
PUBLIC	??_C@_08DDEPFPBK@?$DMVert?$DO?$AN?6@		; `string'
PUBLIC	??_C@_03PGGAENPN@Top@				; `string'
PUBLIC	??_C@_06DDHCBBGN@Bottom@			; `string'
PUBLIC	??_C@_0N@ONIGNFDK@?$DMHorzVert?$DO?$AN?6@	; `string'
PUBLIC	??_C@_0O@LMJJOFLI@?$DM?2HorzVert?$DO?$AN?6@	; `string'
PUBLIC	??_R4CTextPosition@@6B@				; CTextPosition::`RTTI Complete Object Locator'
PUBLIC	??_R0?AVCTextPosition@@@8			; CTextPosition `RTTI Type Descriptor'
PUBLIC	??_R3CTextPosition@@8				; CTextPosition::`RTTI Class Hierarchy Descriptor'
PUBLIC	??_R2CTextPosition@@8				; CTextPosition::`RTTI Base Class Array'
PUBLIC	??_R1A@?0A@EA@CTextPosition@@8			; CTextPosition::`RTTI Base Class Descriptor at (0,-1,0,64)'
PUBLIC	??_R4CTextShowPosition@@6B@			; CTextShowPosition::`RTTI Complete Object Locator'
PUBLIC	??_R0?AVCTextShowPosition@@@8			; CTextShowPosition `RTTI Type Descriptor'
PUBLIC	??_R3CTextShowPosition@@8			; CTextShowPosition::`RTTI Class Hierarchy Descriptor'
PUBLIC	??_R2CTextShowPosition@@8			; CTextShowPosition::`RTTI Base Class Array'
PUBLIC	??_R1A@?0A@EA@CTextShowPosition@@8		; CTextShowPosition::`RTTI Base Class Descriptor at (0,-1,0,64)'
PUBLIC	??_R4CTextHorzPosition@@6B@			; CTextHorzPosition::`RTTI Complete Object Locator'
PUBLIC	??_R0?AVCTextHorzPosition@@@8			; CTextHorzPosition `RTTI Type Descriptor'
PUBLIC	??_R3CTextHorzPosition@@8			; CTextHorzPosition::`RTTI Class Hierarchy Descriptor'
PUBLIC	??_R2CTextHorzPosition@@8			; CTextHorzPosition::`RTTI Base Class Array'
PUBLIC	??_R1A@?0A@EA@CTextHorzPosition@@8		; CTextHorzPosition::`RTTI Base Class Descriptor at (0,-1,0,64)'
PUBLIC	??_R4CTextVertPosition@@6B@			; CTextVertPosition::`RTTI Complete Object Locator'
PUBLIC	??_R0?AVCTextVertPosition@@@8			; CTextVertPosition `RTTI Type Descriptor'
PUBLIC	??_R3CTextVertPosition@@8			; CTextVertPosition::`RTTI Class Hierarchy Descriptor'
PUBLIC	??_R2CTextVertPosition@@8			; CTextVertPosition::`RTTI Base Class Array'
PUBLIC	??_R1A@?0A@EA@CTextVertPosition@@8		; CTextVertPosition::`RTTI Base Class Descriptor at (0,-1,0,64)'
PUBLIC	??_R4CTextHorzVertPosition@@6B@			; CTextHorzVertPosition::`RTTI Complete Object Locator'
PUBLIC	??_R0?AVCTextHorzVertPosition@@@8		; CTextHorzVertPosition `RTTI Type Descriptor'
PUBLIC	??_R3CTextHorzVertPosition@@8			; CTextHorzVertPosition::`RTTI Class Hierarchy Descriptor'
PUBLIC	??_R2CTextHorzVertPosition@@8			; CTextHorzVertPosition::`RTTI Base Class Array'
PUBLIC	??_R1A@?0A@EA@CTextHorzVertPosition@@8		; CTextHorzVertPosition::`RTTI Base Class Descriptor at (0,-1,0,64)'
PUBLIC	__real@3ff0000000000000
EXTRN	__purecall:PROC
EXTRN	__imp__CreatePen@12:PROC
EXTRN	__imp_?Concatenate@?$CSimpleStringT@D$00@ATL@@KAXAAV12@PBDH1H@Z:PROC
EXTRN	__imp_??0?$CStringT@DV?$StrTraitMFC_DLL@DV?$ChTraitsCRT@D@ATL@@@@@ATL@@QAE@XZ:PROC
EXTRN	__imp_??0?$CStringT@DV?$StrTraitMFC_DLL@DV?$ChTraitsCRT@D@ATL@@@@@ATL@@QAE@PAUIAtlStringMgr@1@@Z:PROC
EXTRN	__imp_??0?$CStringT@DV?$StrTraitMFC_DLL@DV?$ChTraitsCRT@D@ATL@@@@@ATL@@QAE@ABV01@@Z:PROC
EXTRN	__imp_??0?$CStringT@DV?$StrTraitMFC_DLL@DV?$ChTraitsCRT@D@ATL@@@@@ATL@@QAE@PBD@Z:PROC
EXTRN	__imp_??1?$CStringT@DV?$StrTraitMFC_DLL@DV?$ChTraitsCRT@D@ATL@@@@@ATL@@QAE@XZ:PROC
EXTRN	__imp_??4?$CStringT@DV?$StrTraitMFC_DLL@DV?$ChTraitsCRT@D@ATL@@@@@ATL@@QAEAAV01@ABV01@@Z:PROC
EXTRN	__imp_??4?$CStringT@DV?$StrTraitMFC_DLL@DV?$ChTraitsCRT@D@ATL@@@@@ATL@@QAEAAV01@PBD@Z:PROC
EXTRN	__imp_??Y?$CStringT@DV?$StrTraitMFC_DLL@DV?$ChTraitsCRT@D@ATL@@@@@ATL@@QAEAAV01@ABV?$CSimpleStringT@D$00@1@@Z:PROC
EXTRN	__imp_??Y?$CStringT@DV?$StrTraitMFC_DLL@DV?$ChTraitsCRT@D@ATL@@@@@ATL@@QAEAAV01@PBD@Z:PROC
EXTRN	__imp_?GetManager@?$CStringT@DV?$StrTraitMFC_DLL@DV?$ChTraitsCRT@D@ATL@@@@@ATL@@QBEPAUIAtlStringMgr@2@XZ:PROC
EXTRN	__imp_?Find@?$CStringT@DV?$StrTraitMFC_DLL@DV?$ChTraitsCRT@D@ATL@@@@@ATL@@QBEHPBDH@Z:PROC
EXTRN	__imp_?Format@?$CStringT@DV?$StrTraitMFC_DLL@DV?$ChTraitsCRT@D@ATL@@@@@ATL@@QAAXPBDZZ:PROC
EXTRN	?Attach@CGdiObject@@QAEHPAX@Z:PROC		; CGdiObject::Attach
EXTRN	?RGB2Str@CDataConversion@@SA?AV?$CStringT@DV?$StrTraitMFC_DLL@DV?$ChTraitsCRT@D@ATL@@@@@ATL@@K@Z:PROC ; CDataConversion::RGB2Str
EXTRN	?IntToString@CDataConversion@@SA?AV?$CStringT@DV?$StrTraitMFC_DLL@DV?$ChTraitsCRT@D@ATL@@@@@ATL@@H@Z:PROC ; CDataConversion::IntToString
EXTRN	?DoubleToString@CDataConversion@@SA?AV?$CStringT@DV?$StrTraitMFC_DLL@DV?$ChTraitsCRT@D@ATL@@@@@ATL@@ABN@Z:PROC ; CDataConversion::DoubleToString
EXTRN	@__security_check_cookie@4:PROC
EXTRN	___CxxFrameHandler3:PROC
EXTRN	??_7type_info@@6B@:QWORD			; type_info::`vftable'
EXTRN	___security_cookie:DWORD
EXTRN	__fltused:DWORD
;	COMDAT __real@3ff0000000000000
CONST	SEGMENT
__real@3ff0000000000000 DQ 03ff0000000000000r	; 1
CONST	ENDS
;	COMDAT ??_R1A@?0A@EA@CTextHorzVertPosition@@8
rdata$r	SEGMENT
??_R1A@?0A@EA@CTextHorzVertPosition@@8 DD FLAT:??_R0?AVCTextHorzVertPosition@@@8 ; CTextHorzVertPosition::`RTTI Base Class Descriptor at (0,-1,0,64)'
	DD	01H
	DD	00H
	DD	0ffffffffH
	DD	00H
	DD	040H
	DD	FLAT:??_R3CTextHorzVertPosition@@8
rdata$r	ENDS
;	COMDAT ??_R2CTextHorzVertPosition@@8
rdata$r	SEGMENT
??_R2CTextHorzVertPosition@@8 DD FLAT:??_R1A@?0A@EA@CTextHorzVertPosition@@8 ; CTextHorzVertPosition::`RTTI Base Class Array'
	DD	FLAT:??_R1A@?0A@EA@CTextPosition@@8
rdata$r	ENDS
;	COMDAT ??_R3CTextHorzVertPosition@@8
rdata$r	SEGMENT
??_R3CTextHorzVertPosition@@8 DD 00H			; CTextHorzVertPosition::`RTTI Class Hierarchy Descriptor'
	DD	00H
	DD	02H
	DD	FLAT:??_R2CTextHorzVertPosition@@8
rdata$r	ENDS
;	COMDAT ??_R0?AVCTextHorzVertPosition@@@8
data$rs	SEGMENT
??_R0?AVCTextHorzVertPosition@@@8 DD FLAT:??_7type_info@@6B@ ; CTextHorzVertPosition `RTTI Type Descriptor'
	DD	00H
	DB	'.?AVCTextHorzVertPosition@@', 00H
data$rs	ENDS
;	COMDAT ??_R4CTextHorzVertPosition@@6B@
rdata$r	SEGMENT
??_R4CTextHorzVertPosition@@6B@ DD 00H			; CTextHorzVertPosition::`RTTI Complete Object Locator'
	DD	00H
	DD	00H
	DD	FLAT:??_R0?AVCTextHorzVertPosition@@@8
	DD	FLAT:??_R3CTextHorzVertPosition@@8
rdata$r	ENDS
;	COMDAT ??_R1A@?0A@EA@CTextVertPosition@@8
rdata$r	SEGMENT
??_R1A@?0A@EA@CTextVertPosition@@8 DD FLAT:??_R0?AVCTextVertPosition@@@8 ; CTextVertPosition::`RTTI Base Class Descriptor at (0,-1,0,64)'
	DD	01H
	DD	00H
	DD	0ffffffffH
	DD	00H
	DD	040H
	DD	FLAT:??_R3CTextVertPosition@@8
rdata$r	ENDS
;	COMDAT ??_R2CTextVertPosition@@8
rdata$r	SEGMENT
??_R2CTextVertPosition@@8 DD FLAT:??_R1A@?0A@EA@CTextVertPosition@@8 ; CTextVertPosition::`RTTI Base Class Array'
	DD	FLAT:??_R1A@?0A@EA@CTextPosition@@8
rdata$r	ENDS
;	COMDAT ??_R3CTextVertPosition@@8
rdata$r	SEGMENT
??_R3CTextVertPosition@@8 DD 00H			; CTextVertPosition::`RTTI Class Hierarchy Descriptor'
	DD	00H
	DD	02H
	DD	FLAT:??_R2CTextVertPosition@@8
rdata$r	ENDS
;	COMDAT ??_R0?AVCTextVertPosition@@@8
data$rs	SEGMENT
??_R0?AVCTextVertPosition@@@8 DD FLAT:??_7type_info@@6B@ ; CTextVertPosition `RTTI Type Descriptor'
	DD	00H
	DB	'.?AVCTextVertPosition@@', 00H
data$rs	ENDS
;	COMDAT ??_R4CTextVertPosition@@6B@
rdata$r	SEGMENT
??_R4CTextVertPosition@@6B@ DD 00H			; CTextVertPosition::`RTTI Complete Object Locator'
	DD	00H
	DD	00H
	DD	FLAT:??_R0?AVCTextVertPosition@@@8
	DD	FLAT:??_R3CTextVertPosition@@8
rdata$r	ENDS
;	COMDAT ??_R1A@?0A@EA@CTextHorzPosition@@8
rdata$r	SEGMENT
??_R1A@?0A@EA@CTextHorzPosition@@8 DD FLAT:??_R0?AVCTextHorzPosition@@@8 ; CTextHorzPosition::`RTTI Base Class Descriptor at (0,-1,0,64)'
	DD	01H
	DD	00H
	DD	0ffffffffH
	DD	00H
	DD	040H
	DD	FLAT:??_R3CTextHorzPosition@@8
rdata$r	ENDS
;	COMDAT ??_R2CTextHorzPosition@@8
rdata$r	SEGMENT
??_R2CTextHorzPosition@@8 DD FLAT:??_R1A@?0A@EA@CTextHorzPosition@@8 ; CTextHorzPosition::`RTTI Base Class Array'
	DD	FLAT:??_R1A@?0A@EA@CTextPosition@@8
rdata$r	ENDS
;	COMDAT ??_R3CTextHorzPosition@@8
rdata$r	SEGMENT
??_R3CTextHorzPosition@@8 DD 00H			; CTextHorzPosition::`RTTI Class Hierarchy Descriptor'
	DD	00H
	DD	02H
	DD	FLAT:??_R2CTextHorzPosition@@8
rdata$r	ENDS
;	COMDAT ??_R0?AVCTextHorzPosition@@@8
data$rs	SEGMENT
??_R0?AVCTextHorzPosition@@@8 DD FLAT:??_7type_info@@6B@ ; CTextHorzPosition `RTTI Type Descriptor'
	DD	00H
	DB	'.?AVCTextHorzPosition@@', 00H
data$rs	ENDS
;	COMDAT ??_R4CTextHorzPosition@@6B@
rdata$r	SEGMENT
??_R4CTextHorzPosition@@6B@ DD 00H			; CTextHorzPosition::`RTTI Complete Object Locator'
	DD	00H
	DD	00H
	DD	FLAT:??_R0?AVCTextHorzPosition@@@8
	DD	FLAT:??_R3CTextHorzPosition@@8
rdata$r	ENDS
;	COMDAT ??_R1A@?0A@EA@CTextShowPosition@@8
rdata$r	SEGMENT
??_R1A@?0A@EA@CTextShowPosition@@8 DD FLAT:??_R0?AVCTextShowPosition@@@8 ; CTextShowPosition::`RTTI Base Class Descriptor at (0,-1,0,64)'
	DD	01H
	DD	00H
	DD	0ffffffffH
	DD	00H
	DD	040H
	DD	FLAT:??_R3CTextShowPosition@@8
rdata$r	ENDS
;	COMDAT ??_R2CTextShowPosition@@8
rdata$r	SEGMENT
??_R2CTextShowPosition@@8 DD FLAT:??_R1A@?0A@EA@CTextShowPosition@@8 ; CTextShowPosition::`RTTI Base Class Array'
	DD	FLAT:??_R1A@?0A@EA@CTextPosition@@8
rdata$r	ENDS
;	COMDAT ??_R3CTextShowPosition@@8
rdata$r	SEGMENT
??_R3CTextShowPosition@@8 DD 00H			; CTextShowPosition::`RTTI Class Hierarchy Descriptor'
	DD	00H
	DD	02H
	DD	FLAT:??_R2CTextShowPosition@@8
rdata$r	ENDS
;	COMDAT ??_R0?AVCTextShowPosition@@@8
data$rs	SEGMENT
??_R0?AVCTextShowPosition@@@8 DD FLAT:??_7type_info@@6B@ ; CTextShowPosition `RTTI Type Descriptor'
	DD	00H
	DB	'.?AVCTextShowPosition@@', 00H
data$rs	ENDS
;	COMDAT ??_R4CTextShowPosition@@6B@
rdata$r	SEGMENT
??_R4CTextShowPosition@@6B@ DD 00H			; CTextShowPosition::`RTTI Complete Object Locator'
	DD	00H
	DD	00H
	DD	FLAT:??_R0?AVCTextShowPosition@@@8
	DD	FLAT:??_R3CTextShowPosition@@8
rdata$r	ENDS
;	COMDAT ??_R1A@?0A@EA@CTextPosition@@8
rdata$r	SEGMENT
??_R1A@?0A@EA@CTextPosition@@8 DD FLAT:??_R0?AVCTextPosition@@@8 ; CTextPosition::`RTTI Base Class Descriptor at (0,-1,0,64)'
	DD	00H
	DD	00H
	DD	0ffffffffH
	DD	00H
	DD	040H
	DD	FLAT:??_R3CTextPosition@@8
rdata$r	ENDS
;	COMDAT ??_R2CTextPosition@@8
rdata$r	SEGMENT
??_R2CTextPosition@@8 DD FLAT:??_R1A@?0A@EA@CTextPosition@@8 ; CTextPosition::`RTTI Base Class Array'
rdata$r	ENDS
;	COMDAT ??_R3CTextPosition@@8
rdata$r	SEGMENT
??_R3CTextPosition@@8 DD 00H				; CTextPosition::`RTTI Class Hierarchy Descriptor'
	DD	00H
	DD	01H
	DD	FLAT:??_R2CTextPosition@@8
rdata$r	ENDS
;	COMDAT ??_R0?AVCTextPosition@@@8
data$rs	SEGMENT
??_R0?AVCTextPosition@@@8 DD FLAT:??_7type_info@@6B@	; CTextPosition `RTTI Type Descriptor'
	DD	00H
	DB	'.?AVCTextPosition@@', 00H
data$rs	ENDS
;	COMDAT ??_R4CTextPosition@@6B@
rdata$r	SEGMENT
??_R4CTextPosition@@6B@ DD 00H				; CTextPosition::`RTTI Complete Object Locator'
	DD	00H
	DD	00H
	DD	FLAT:??_R0?AVCTextPosition@@@8
	DD	FLAT:??_R3CTextPosition@@8
rdata$r	ENDS
;	COMDAT ??_C@_0O@LMJJOFLI@?$DM?2HorzVert?$DO?$AN?6@
CONST	SEGMENT
??_C@_0O@LMJJOFLI@?$DM?2HorzVert?$DO?$AN?6@ DB '<\HorzVert>', 0dH, 0aH, 00H ; `string'
CONST	ENDS
;	COMDAT ??_C@_0N@ONIGNFDK@?$DMHorzVert?$DO?$AN?6@
CONST	SEGMENT
??_C@_0N@ONIGNFDK@?$DMHorzVert?$DO?$AN?6@ DB '<HorzVert>', 0dH, 0aH, 00H ; `string'
CONST	ENDS
;	COMDAT ??_C@_06DDHCBBGN@Bottom@
CONST	SEGMENT
??_C@_06DDHCBBGN@Bottom@ DB 'Bottom', 00H		; `string'
CONST	ENDS
;	COMDAT ??_C@_03PGGAENPN@Top@
CONST	SEGMENT
??_C@_03PGGAENPN@Top@ DB 'Top', 00H			; `string'
CONST	ENDS
;	COMDAT ??_C@_08DDEPFPBK@?$DMVert?$DO?$AN?6@
CONST	SEGMENT
??_C@_08DDEPFPBK@?$DMVert?$DO?$AN?6@ DB '<Vert>', 0dH, 0aH, 00H ; `string'
CONST	ENDS
;	COMDAT ??_C@_0BI@GMNKDDJL@?$DMHorz?$DO?$AN?6?$CFs?$CFs?$CFs?$DM?2Horz?$DO?$AN?6@
CONST	SEGMENT
??_C@_0BI@GMNKDDJL@?$DMHorz?$DO?$AN?6?$CFs?$CFs?$CFs?$DM?2Horz?$DO?$AN?6@ DB '<'
	DB	'Horz>', 0dH, 0aH, '%s%s%s<\Horz>', 0dH, 0aH, 00H ; `string'
CONST	ENDS
;	COMDAT ??_C@_04KPCPLBPL@Left@
CONST	SEGMENT
??_C@_04KPCPLBPL@Left@ DB 'Left', 00H			; `string'
CONST	ENDS
;	COMDAT ??_C@_05DADPALEM@Right@
CONST	SEGMENT
??_C@_05DADPALEM@Right@ DB 'Right', 00H			; `string'
CONST	ENDS
;	COMDAT ??_C@_04LDOGFLEB@Rate@
CONST	SEGMENT
??_C@_04LDOGFLEB@Rate@ DB 'Rate', 00H			; `string'
CONST	ENDS
;	COMDAT ??_C@_0BE@CKCBMKAP@?$DMHorz?$DO?$AN?6?$CFs?$DM?2Horz?$DO?$AN?6@
CONST	SEGMENT
??_C@_0BE@CKCBMKAP@?$DMHorz?$DO?$AN?6?$CFs?$DM?2Horz?$DO?$AN?6@ DB '<Horz'
	DB	'>', 0dH, 0aH, '%s<\Horz>', 0dH, 0aH, 00H	; `string'
CONST	ENDS
;	COMDAT ??_C@_04JLAJABDJ@Show@
CONST	SEGMENT
??_C@_04JLAJABDJ@Show@ DB 'Show', 00H			; `string'
CONST	ENDS
;	COMDAT ??_C@_0CE@NIHIPAJG@?$DMTextPosition?$DO?$AN?6?$CFs?$DM?2TextPositio@
CONST	SEGMENT
??_C@_0CE@NIHIPAJG@?$DMTextPosition?$DO?$AN?6?$CFs?$DM?2TextPositio@ DB '<'
	DB	'TextPosition>', 0dH, 0aH, '%s<\TextPosition>', 0dH, 0aH, 00H ; `string'
CONST	ENDS
;	COMDAT ??_C@_0O@LNMCLPEF@?$DM?$CFs?$DO?$CFd?$DM?2?$CFs?$DO?$AN?6@
CONST	SEGMENT
??_C@_0O@LNMCLPEF@?$DM?$CFs?$DO?$CFd?$DM?2?$CFs?$DO?$AN?6@ DB '<%s>%d<\%s'
	DB	'>', 0dH, 0aH, 00H				; `string'
CONST	ENDS
;	COMDAT ??_C@_0CM@MGBIECEJ@?$DMPartEnvironment?$DO?$AN?6?$CFs?$CFs?$DM?2PartEn@
CONST	SEGMENT
??_C@_0CM@MGBIECEJ@?$DMPartEnvironment?$DO?$AN?6?$CFs?$CFs?$DM?2PartEn@ DB '<'
	DB	'PartEnvironment>', 0dH, 0aH, '%s%s<\PartEnvironment>', 0dH, 0aH
	DB	00H						; `string'
CONST	ENDS
;	COMDAT ??_C@_0CK@OGEBLLHG@?$DMTextEnvironment?$DO?$AN?6?$CFs?$DM?2TextEnvi@
CONST	SEGMENT
??_C@_0CK@OGEBLLHG@?$DMTextEnvironment?$DO?$AN?6?$CFs?$DM?2TextEnvi@ DB '<'
	DB	'TextEnvironment>', 0dH, 0aH, '%s<\TextEnvironment>', 0dH, 0aH
	DB	00H						; `string'
CONST	ENDS
;	COMDAT ??_C@_09JKGHBJEA@?$DMLeftExt?$DO@
CONST	SEGMENT
??_C@_09JKGHBJEA@?$DMLeftExt?$DO@ DB '<LeftExt>', 00H	; `string'
CONST	ENDS
;	COMDAT ??_C@_0N@KHBFLOEK@?$DM?2LeftExt?$DO?$AN?6@
CONST	SEGMENT
??_C@_0N@KHBFLOEK@?$DM?2LeftExt?$DO?$AN?6@ DB '<\LeftExt>', 0dH, 0aH, 00H ; `string'
CONST	ENDS
;	COMDAT ??_C@_0L@CFEIJGAO@?$DMRightExt?$DO@
CONST	SEGMENT
??_C@_0L@CFEIJGAO@?$DMRightExt?$DO@ DB '<RightExt>', 00H ; `string'
CONST	ENDS
;	COMDAT ??_C@_0O@CEMHHFOM@?$DM?2RightExt?$DO?$AN?6@
CONST	SEGMENT
??_C@_0O@CEMHHFOM@?$DM?2RightExt?$DO?$AN?6@ DB '<\RightExt>', 0dH, 0aH, 00H ; `string'
CONST	ENDS
;	COMDAT ??_C@_0BK@FDALAKDP@?$DMLineExt?$DO?$AN?6?$CFs?$DM?2LineExt?$DO?$AN?6@
CONST	SEGMENT
??_C@_0BK@FDALAKDP@?$DMLineExt?$DO?$AN?6?$CFs?$DM?2LineExt?$DO?$AN?6@ DB '<'
	DB	'LineExt>', 0dH, 0aH, '%s<\LineExt>', 0dH, 0aH, 00H ; `string'
CONST	ENDS
;	COMDAT ??_C@_0CE@KBAOJFJE@?$DMPriceRangeDiv?$DO?$CFd?$DM?2PriceRangeDi@
CONST	SEGMENT
??_C@_0CE@KBAOJFJE@?$DMPriceRangeDiv?$DO?$CFd?$DM?2PriceRangeDi@ DB '<Pri'
	DB	'ceRangeDiv>%d<\PriceRangeDiv>', 0dH, 0aH, 00H ; `string'
CONST	ENDS
;	COMDAT ??_C@_0BI@JFOMILGF@?$DMEquiDiv?$DO?$CFd?$DM?2EquiDiv?$DO?$AN?6@
CONST	SEGMENT
??_C@_0BI@JFOMILGF@?$DMEquiDiv?$DO?$CFd?$DM?2EquiDiv?$DO?$AN?6@ DB '<Equi'
	DB	'Div>%d<\EquiDiv>', 0dH, 0aH, 00H		; `string'
CONST	ENDS
;	COMDAT ??_C@_0BM@ELHGNBJI@?$DMAutoPirce?$DO?$CFd?$DM?2AutoPirce?$DO?$AN?6@
CONST	SEGMENT
??_C@_0BM@ELHGNBJI@?$DMAutoPirce?$DO?$CFd?$DM?2AutoPirce?$DO?$AN?6@ DB '<'
	DB	'AutoPirce>%d<\AutoPirce>', 0dH, 0aH, 00H	; `string'
CONST	ENDS
;	COMDAT ??_C@_0DI@GHGECPII@?$DMCommonEnvironment?$DO?$AN?6?$CFs?$CFs?$CFs?$CFs?$CFs@
CONST	SEGMENT
??_C@_0DI@GHGECPII@?$DMCommonEnvironment?$DO?$AN?6?$CFs?$CFs?$CFs?$CFs?$CFs@ DB '<'
	DB	'CommonEnvironment>', 0dH, 0aH, '%s%s%s%s%s%s<\CommonEnvironme'
	DB	'nt>', 0dH, 0aH, 00H				; `string'
CONST	ENDS
;	COMDAT ??_C@_09COIGHGNF@?$DMStrVert?$DO@
CONST	SEGMENT
??_C@_09COIGHGNF@?$DMStrVert?$DO@ DB '<StrVert>', 00H	; `string'
CONST	ENDS
;	COMDAT ??_C@_0N@HGCOAIDN@?$DM?2StrVert?$DO?$AN?6@
CONST	SEGMENT
??_C@_0N@HGCOAIDN@?$DM?2StrVert?$DO?$AN?6@ DB '<\StrVert>', 0dH, 0aH, 00H ; `string'
CONST	ENDS
;	COMDAT ??_C@_09EBDLFGEM@?$DMExtData?$DO@
CONST	SEGMENT
??_C@_09EBDLFGEM@?$DMExtData?$DO@ DB '<ExtData>', 00H	; `string'
CONST	ENDS
;	COMDAT ??_C@_0N@ONMDHGBL@?$DM?2ExtData?$DO?$AN?6@
CONST	SEGMENT
??_C@_0N@ONMDHGBL@?$DM?2ExtData?$DO?$AN?6@ DB '<\ExtData>', 0dH, 0aH, 00H ; `string'
CONST	ENDS
;	COMDAT ??_C@_06CMKMBJNG@?$DMHorz?$DO@
CONST	SEGMENT
??_C@_06CMKMBJNG@?$DMHorz?$DO@ DB '<Horz>', 00H		; `string'
CONST	ENDS
;	COMDAT ??_C@_09GKBBACOG@?$DM?2Horz?$DO?$AN?6@
CONST	SEGMENT
??_C@_09GKBBACOG@?$DM?2Horz?$DO?$AN?6@ DB '<\Horz>', 0dH, 0aH, 00H ; `string'
CONST	ENDS
;	COMDAT ??_C@_06FFFOEPJG@?$DMVert?$DO@
CONST	SEGMENT
??_C@_06FFFOEPJG@?$DMVert?$DO@ DB '<Vert>', 00H		; `string'
CONST	ENDS
;	COMDAT ??_C@_09BIGAMANA@?$DM?2Vert?$DO?$AN?6@
CONST	SEGMENT
??_C@_09BIGAMANA@?$DM?2Vert?$DO?$AN?6@ DB '<\Vert>', 0dH, 0aH, 00H ; `string'
CONST	ENDS
;	COMDAT ??_C@_0N@CAIHOMCE@?$DMCoordinate?$DO@
CONST	SEGMENT
??_C@_0N@CAIHOMCE@?$DMCoordinate?$DO@ DB '<Coordinate>', 00H ; `string'
CONST	ENDS
;	COMDAT ??_C@_0BA@IFAPIPNB@?$DM?2Coordinate?$DO?$AN?6@
CONST	SEGMENT
??_C@_0BA@IFAPIPNB@?$DM?2Coordinate?$DO?$AN?6@ DB '<\Coordinate>', 0dH, 0aH
	DB	00H						; `string'
CONST	ENDS
;	COMDAT ??_C@_0CE@NMDKCJFM@?$DMDataType?$DO?$AN?6?$CFs?$CFs?$CFs?$CFs?$CFs?$DM?2DataTyp@
CONST	SEGMENT
??_C@_0CE@NMDKCJFM@?$DMDataType?$DO?$AN?6?$CFs?$CFs?$CFs?$CFs?$CFs?$DM?2DataTyp@ DB '<'
	DB	'DataType>', 0dH, 0aH, '%s%s%s%s%s<\DataType>', 0dH, 0aH, 00H ; `string'
CONST	ENDS
;	COMDAT ??_C@_0N@GLGCPBKI@?$DMDataType?$DO?$AN?6@
CONST	SEGMENT
??_C@_0N@GLGCPBKI@?$DMDataType?$DO?$AN?6@ DB '<DataType>', 0dH, 0aH, 00H ; `string'
CONST	ENDS
;	COMDAT ??_C@_01JLIPDDHJ@?3@
CONST	SEGMENT
??_C@_01JLIPDDHJ@?3@ DB ':', 00H			; `string'
CONST	ENDS
;	COMDAT ??_C@_01KMDKNFGN@?1@
CONST	SEGMENT
??_C@_01KMDKNFGN@?1@ DB '/', 00H			; `string'
CONST	ENDS
;	COMDAT ??_C@_01HIHLOKLC@1@
CONST	SEGMENT
??_C@_01HIHLOKLC@1@ DB '1', 00H				; `string'
CONST	ENDS
;	COMDAT ??_C@_07EANKACOK@?$DMStyle?$DO@
CONST	SEGMENT
??_C@_07EANKACOK@?$DMStyle?$DO@ DB '<Style>', 00H	; `string'
CONST	ENDS
;	COMDAT ??_C@_0L@MDDCEFHI@?$DM?2Style?$DO?$AN?6@
CONST	SEGMENT
??_C@_0L@MDDCEFHI@?$DM?2Style?$DO?$AN?6@ DB '<\Style>', 0dH, 0aH, 00H ; `string'
CONST	ENDS
;	COMDAT ??_C@_07ONIIIKM@?$DMWidth?$DO@
CONST	SEGMENT
??_C@_07ONIIIKM@?$DMWidth?$DO@ DB '<Width>', 00H	; `string'
CONST	ENDS
;	COMDAT ??_C@_0L@GIHMIJMH@?$DM?2Width?$DO?$AN?6@
CONST	SEGMENT
??_C@_0L@GIHMIJMH@?$DM?2Width?$DO?$AN?6@ DB '<\Width>', 0dH, 0aH, 00H ; `string'
CONST	ENDS
;	COMDAT ??_C@_07ONMJGOJF@?$DMColor?$DO@
CONST	SEGMENT
??_C@_07ONMJGOJF@?$DMColor?$DO@ DB '<Color>', 00H	; `string'
CONST	ENDS
;	COMDAT ??_C@_0L@CPJBKACB@?$DM?2Color?$DO?$AN?6@
CONST	SEGMENT
??_C@_0L@CPJBKACB@?$DM?2Color?$DO?$AN?6@ DB '<\Color>', 0dH, 0aH, 00H ; `string'
CONST	ENDS
;	COMDAT ??_C@_0BG@BEDOAAKG@?$DMPen?$DO?$AN?6?$CFs?$CFs?$CFs?$DM?2Pen?$DO?$AN?6@
CONST	SEGMENT
??_C@_0BG@BEDOAAKG@?$DMPen?$DO?$AN?6?$CFs?$CFs?$CFs?$DM?2Pen?$DO?$AN?6@ DB '<'
	DB	'Pen>', 0dH, 0aH, '%s%s%s<\Pen>', 0dH, 0aH, 00H ; `string'
CONST	ENDS
;	COMDAT ??_7CTextHorzVertPosition@@6B@
CONST	SEGMENT
??_7CTextHorzVertPosition@@6B@ DD FLAT:??_R4CTextHorzVertPosition@@6B@ ; CTextHorzVertPosition::`vftable'
	DD	FLAT:?Set@CTextHorzVertPosition@@UAEXPBVCTextPosition@@@Z
	DD	FLAT:?GetSavedRealTextPositionData@CTextHorzVertPosition@@MBE?AV?$CStringT@DV?$StrTraitMFC_DLL@DV?$ChTraitsCRT@D@ATL@@@@@ATL@@XZ
CONST	ENDS
;	COMDAT ??_7CTextVertPosition@@6B@
CONST	SEGMENT
??_7CTextVertPosition@@6B@ DD FLAT:??_R4CTextVertPosition@@6B@ ; CTextVertPosition::`vftable'
	DD	FLAT:?Set@CTextVertPosition@@UAEXPBVCTextPosition@@@Z
	DD	FLAT:?GetSavedRealTextPositionData@CTextVertPosition@@MBE?AV?$CStringT@DV?$StrTraitMFC_DLL@DV?$ChTraitsCRT@D@ATL@@@@@ATL@@XZ
CONST	ENDS
;	COMDAT ??_7CTextHorzPosition@@6B@
CONST	SEGMENT
??_7CTextHorzPosition@@6B@ DD FLAT:??_R4CTextHorzPosition@@6B@ ; CTextHorzPosition::`vftable'
	DD	FLAT:?Set@CTextHorzPosition@@UAEXPBVCTextPosition@@@Z
	DD	FLAT:?GetSavedRealTextPositionData@CTextHorzPosition@@MBE?AV?$CStringT@DV?$StrTraitMFC_DLL@DV?$ChTraitsCRT@D@ATL@@@@@ATL@@XZ
CONST	ENDS
;	COMDAT ??_7CTextShowPosition@@6B@
CONST	SEGMENT
??_7CTextShowPosition@@6B@ DD FLAT:??_R4CTextShowPosition@@6B@ ; CTextShowPosition::`vftable'
	DD	FLAT:?Set@CTextShowPosition@@UAEXPBVCTextPosition@@@Z
	DD	FLAT:?GetSavedRealTextPositionData@CTextShowPosition@@MBE?AV?$CStringT@DV?$StrTraitMFC_DLL@DV?$ChTraitsCRT@D@ATL@@@@@ATL@@XZ
CONST	ENDS
;	COMDAT ??_7CTextPosition@@6B@
CONST	SEGMENT
??_7CTextPosition@@6B@ DD FLAT:??_R4CTextPosition@@6B@	; CTextPosition::`vftable'
	DD	FLAT:?Set@CTextPosition@@UAEXPBV1@@Z
	DD	FLAT:__purecall
CONST	ENDS
;	COMDAT ??_C@_00CNPNBAHC@@
CONST	SEGMENT
??_C@_00CNPNBAHC@@ DB 00H				; `string'
CONST	ENDS
;	COMDAT xdata$x
xdata$x	SEGMENT
__ehfuncinfo$?GetSavedRealTextPositionData@CTextHorzVertPosition@@MBE?AV?$CStringT@DV?$StrTraitMFC_DLL@DV?$ChTraitsCRT@D@ATL@@@@@ATL@@XZ DD 019930522H
	DD	09H
	DD	FLAT:__unwindtable$?GetSavedRealTextPositionData@CTextHorzVertPosition@@MBE?AV?$CStringT@DV?$StrTraitMFC_DLL@DV?$ChTraitsCRT@D@ATL@@@@@ATL@@XZ
	DD	2 DUP(00H)
	DD	2 DUP(00H)
	DD	00H
	DD	01H
__unwindtable$?GetSavedRealTextPositionData@CTextHorzVertPosition@@MBE?AV?$CStringT@DV?$StrTraitMFC_DLL@DV?$ChTraitsCRT@D@ATL@@@@@ATL@@XZ DD 0ffffffffH
	DD	FLAT:__unwindfunclet$?GetSavedRealTextPositionData@CTextHorzVertPosition@@MBE?AV?$CStringT@DV?$StrTraitMFC_DLL@DV?$ChTraitsCRT@D@ATL@@@@@ATL@@XZ$0
	DD	00H
	DD	FLAT:__unwindfunclet$?GetSavedRealTextPositionData@CTextHorzVertPosition@@MBE?AV?$CStringT@DV?$StrTraitMFC_DLL@DV?$ChTraitsCRT@D@ATL@@@@@ATL@@XZ$1
	DD	01H
	DD	FLAT:__unwindfunclet$?GetSavedRealTextPositionData@CTextHorzVertPosition@@MBE?AV?$CStringT@DV?$StrTraitMFC_DLL@DV?$ChTraitsCRT@D@ATL@@@@@ATL@@XZ$9
	DD	00H
	DD	FLAT:__unwindfunclet$?GetSavedRealTextPositionData@CTextHorzVertPosition@@MBE?AV?$CStringT@DV?$StrTraitMFC_DLL@DV?$ChTraitsCRT@D@ATL@@@@@ATL@@XZ$3
	DD	03H
	DD	FLAT:__unwindfunclet$?GetSavedRealTextPositionData@CTextHorzVertPosition@@MBE?AV?$CStringT@DV?$StrTraitMFC_DLL@DV?$ChTraitsCRT@D@ATL@@@@@ATL@@XZ$10
	DD	00H
	DD	FLAT:__unwindfunclet$?GetSavedRealTextPositionData@CTextHorzVertPosition@@MBE?AV?$CStringT@DV?$StrTraitMFC_DLL@DV?$ChTraitsCRT@D@ATL@@@@@ATL@@XZ$5
	DD	05H
	DD	FLAT:__unwindfunclet$?GetSavedRealTextPositionData@CTextHorzVertPosition@@MBE?AV?$CStringT@DV?$StrTraitMFC_DLL@DV?$ChTraitsCRT@D@ATL@@@@@ATL@@XZ$11
	DD	00H
	DD	FLAT:__unwindfunclet$?GetSavedRealTextPositionData@CTextHorzVertPosition@@MBE?AV?$CStringT@DV?$StrTraitMFC_DLL@DV?$ChTraitsCRT@D@ATL@@@@@ATL@@XZ$7
	DD	07H
	DD	FLAT:__unwindfunclet$?GetSavedRealTextPositionData@CTextHorzVertPosition@@MBE?AV?$CStringT@DV?$StrTraitMFC_DLL@DV?$ChTraitsCRT@D@ATL@@@@@ATL@@XZ$12
xdata$x	ENDS
;	COMDAT xdata$x
xdata$x	SEGMENT
__ehfuncinfo$?GetSavedRealTextPositionData@CTextVertPosition@@MBE?AV?$CStringT@DV?$StrTraitMFC_DLL@DV?$ChTraitsCRT@D@ATL@@@@@ATL@@XZ DD 019930522H
	DD	05H
	DD	FLAT:__unwindtable$?GetSavedRealTextPositionData@CTextVertPosition@@MBE?AV?$CStringT@DV?$StrTraitMFC_DLL@DV?$ChTraitsCRT@D@ATL@@@@@ATL@@XZ
	DD	2 DUP(00H)
	DD	2 DUP(00H)
	DD	00H
	DD	01H
__unwindtable$?GetSavedRealTextPositionData@CTextVertPosition@@MBE?AV?$CStringT@DV?$StrTraitMFC_DLL@DV?$ChTraitsCRT@D@ATL@@@@@ATL@@XZ DD 0ffffffffH
	DD	FLAT:__unwindfunclet$?GetSavedRealTextPositionData@CTextVertPosition@@MBE?AV?$CStringT@DV?$StrTraitMFC_DLL@DV?$ChTraitsCRT@D@ATL@@@@@ATL@@XZ$0
	DD	00H
	DD	FLAT:__unwindfunclet$?GetSavedRealTextPositionData@CTextVertPosition@@MBE?AV?$CStringT@DV?$StrTraitMFC_DLL@DV?$ChTraitsCRT@D@ATL@@@@@ATL@@XZ$1
	DD	01H
	DD	FLAT:__unwindfunclet$?GetSavedRealTextPositionData@CTextVertPosition@@MBE?AV?$CStringT@DV?$StrTraitMFC_DLL@DV?$ChTraitsCRT@D@ATL@@@@@ATL@@XZ$5
	DD	00H
	DD	FLAT:__unwindfunclet$?GetSavedRealTextPositionData@CTextVertPosition@@MBE?AV?$CStringT@DV?$StrTraitMFC_DLL@DV?$ChTraitsCRT@D@ATL@@@@@ATL@@XZ$3
	DD	03H
	DD	FLAT:__unwindfunclet$?GetSavedRealTextPositionData@CTextVertPosition@@MBE?AV?$CStringT@DV?$StrTraitMFC_DLL@DV?$ChTraitsCRT@D@ATL@@@@@ATL@@XZ$6
xdata$x	ENDS
;	COMDAT xdata$x
xdata$x	SEGMENT
__ehfuncinfo$?GetSavedRealTextPositionData@CTextHorzPosition@@MBE?AV?$CStringT@DV?$StrTraitMFC_DLL@DV?$ChTraitsCRT@D@ATL@@@@@ATL@@XZ DD 019930522H
	DD	07H
	DD	FLAT:__unwindtable$?GetSavedRealTextPositionData@CTextHorzPosition@@MBE?AV?$CStringT@DV?$StrTraitMFC_DLL@DV?$ChTraitsCRT@D@ATL@@@@@ATL@@XZ
	DD	2 DUP(00H)
	DD	2 DUP(00H)
	DD	00H
	DD	01H
__unwindtable$?GetSavedRealTextPositionData@CTextHorzPosition@@MBE?AV?$CStringT@DV?$StrTraitMFC_DLL@DV?$ChTraitsCRT@D@ATL@@@@@ATL@@XZ DD 0ffffffffH
	DD	FLAT:__unwindfunclet$?GetSavedRealTextPositionData@CTextHorzPosition@@MBE?AV?$CStringT@DV?$StrTraitMFC_DLL@DV?$ChTraitsCRT@D@ATL@@@@@ATL@@XZ$0
	DD	00H
	DD	FLAT:__unwindfunclet$?GetSavedRealTextPositionData@CTextHorzPosition@@MBE?AV?$CStringT@DV?$StrTraitMFC_DLL@DV?$ChTraitsCRT@D@ATL@@@@@ATL@@XZ$1
	DD	01H
	DD	FLAT:__unwindfunclet$?GetSavedRealTextPositionData@CTextHorzPosition@@MBE?AV?$CStringT@DV?$StrTraitMFC_DLL@DV?$ChTraitsCRT@D@ATL@@@@@ATL@@XZ$2
	DD	02H
	DD	FLAT:__unwindfunclet$?GetSavedRealTextPositionData@CTextHorzPosition@@MBE?AV?$CStringT@DV?$StrTraitMFC_DLL@DV?$ChTraitsCRT@D@ATL@@@@@ATL@@XZ$3
	DD	03H
	DD	FLAT:__unwindfunclet$?GetSavedRealTextPositionData@CTextHorzPosition@@MBE?AV?$CStringT@DV?$StrTraitMFC_DLL@DV?$ChTraitsCRT@D@ATL@@@@@ATL@@XZ$7
	DD	04H
	DD	FLAT:__unwindfunclet$?GetSavedRealTextPositionData@CTextHorzPosition@@MBE?AV?$CStringT@DV?$StrTraitMFC_DLL@DV?$ChTraitsCRT@D@ATL@@@@@ATL@@XZ$8
	DD	05H
	DD	FLAT:__unwindfunclet$?GetSavedRealTextPositionData@CTextHorzPosition@@MBE?AV?$CStringT@DV?$StrTraitMFC_DLL@DV?$ChTraitsCRT@D@ATL@@@@@ATL@@XZ$9
xdata$x	ENDS
;	COMDAT xdata$x
xdata$x	SEGMENT
__unwindtable$?GetSavedRealTextPositionData@CTextShowPosition@@MBE?AV?$CStringT@DV?$StrTraitMFC_DLL@DV?$ChTraitsCRT@D@ATL@@@@@ATL@@XZ DD 0ffffffffH
	DD	FLAT:__unwindfunclet$?GetSavedRealTextPositionData@CTextShowPosition@@MBE?AV?$CStringT@DV?$StrTraitMFC_DLL@DV?$ChTraitsCRT@D@ATL@@@@@ATL@@XZ$0
	DD	00H
	DD	FLAT:__unwindfunclet$?GetSavedRealTextPositionData@CTextShowPosition@@MBE?AV?$CStringT@DV?$StrTraitMFC_DLL@DV?$ChTraitsCRT@D@ATL@@@@@ATL@@XZ$1
	DD	01H
	DD	FLAT:__unwindfunclet$?GetSavedRealTextPositionData@CTextShowPosition@@MBE?AV?$CStringT@DV?$StrTraitMFC_DLL@DV?$ChTraitsCRT@D@ATL@@@@@ATL@@XZ$3
__ehfuncinfo$?GetSavedRealTextPositionData@CTextShowPosition@@MBE?AV?$CStringT@DV?$StrTraitMFC_DLL@DV?$ChTraitsCRT@D@ATL@@@@@ATL@@XZ DD 019930522H
	DD	03H
	DD	FLAT:__unwindtable$?GetSavedRealTextPositionData@CTextShowPosition@@MBE?AV?$CStringT@DV?$StrTraitMFC_DLL@DV?$ChTraitsCRT@D@ATL@@@@@ATL@@XZ
	DD	2 DUP(00H)
	DD	2 DUP(00H)
	DD	00H
	DD	01H
xdata$x	ENDS
;	COMDAT xdata$x
xdata$x	SEGMENT
__unwindtable$?GetSavedData_TextPosition@CTextPosition@@ABE?AV?$CStringT@DV?$StrTraitMFC_DLL@DV?$ChTraitsCRT@D@ATL@@@@@ATL@@XZ DD 0ffffffffH
	DD	FLAT:__unwindfunclet$?GetSavedData_TextPosition@CTextPosition@@ABE?AV?$CStringT@DV?$StrTraitMFC_DLL@DV?$ChTraitsCRT@D@ATL@@@@@ATL@@XZ$0
	DD	00H
	DD	FLAT:__unwindfunclet$?GetSavedData_TextPosition@CTextPosition@@ABE?AV?$CStringT@DV?$StrTraitMFC_DLL@DV?$ChTraitsCRT@D@ATL@@@@@ATL@@XZ$1
__ehfuncinfo$?GetSavedData_TextPosition@CTextPosition@@ABE?AV?$CStringT@DV?$StrTraitMFC_DLL@DV?$ChTraitsCRT@D@ATL@@@@@ATL@@XZ DD 019930522H
	DD	02H
	DD	FLAT:__unwindtable$?GetSavedData_TextPosition@CTextPosition@@ABE?AV?$CStringT@DV?$StrTraitMFC_DLL@DV?$ChTraitsCRT@D@ATL@@@@@ATL@@XZ
	DD	2 DUP(00H)
	DD	2 DUP(00H)
	DD	00H
	DD	01H
xdata$x	ENDS
;	COMDAT xdata$x
xdata$x	SEGMENT
__unwindtable$?GetDataOfOneLine@CTextPosition@@IBE?AV?$CStringT@DV?$StrTraitMFC_DLL@DV?$ChTraitsCRT@D@ATL@@@@@ATL@@_NABV23@@Z DD 0ffffffffH
	DD	FLAT:__unwindfunclet$?GetDataOfOneLine@CTextPosition@@IBE?AV?$CStringT@DV?$StrTraitMFC_DLL@DV?$ChTraitsCRT@D@ATL@@@@@ATL@@_NABV23@@Z$0
__ehfuncinfo$?GetDataOfOneLine@CTextPosition@@IBE?AV?$CStringT@DV?$StrTraitMFC_DLL@DV?$ChTraitsCRT@D@ATL@@@@@ATL@@_NABV23@@Z DD 019930522H
	DD	01H
	DD	FLAT:__unwindtable$?GetDataOfOneLine@CTextPosition@@IBE?AV?$CStringT@DV?$StrTraitMFC_DLL@DV?$ChTraitsCRT@D@ATL@@@@@ATL@@_NABV23@@Z
	DD	2 DUP(00H)
	DD	2 DUP(00H)
	DD	00H
	DD	01H
xdata$x	ENDS
;	COMDAT xdata$x
xdata$x	SEGMENT
__ehfuncinfo$?GetSavedData@CTextPosition@@QBE?AV?$CStringT@DV?$StrTraitMFC_DLL@DV?$ChTraitsCRT@D@ATL@@@@@ATL@@XZ DD 019930522H
	DD	08H
	DD	FLAT:__unwindtable$?GetSavedData@CTextPosition@@QBE?AV?$CStringT@DV?$StrTraitMFC_DLL@DV?$ChTraitsCRT@D@ATL@@@@@ATL@@XZ
	DD	2 DUP(00H)
	DD	2 DUP(00H)
	DD	00H
	DD	01H
__unwindtable$?GetSavedData@CTextPosition@@QBE?AV?$CStringT@DV?$StrTraitMFC_DLL@DV?$ChTraitsCRT@D@ATL@@@@@ATL@@XZ DD 0ffffffffH
	DD	FLAT:__unwindfunclet$?GetSavedData@CTextPosition@@QBE?AV?$CStringT@DV?$StrTraitMFC_DLL@DV?$ChTraitsCRT@D@ATL@@@@@ATL@@XZ$0
	DD	00H
	DD	FLAT:__unwindfunclet$?GetSavedData@CTextPosition@@QBE?AV?$CStringT@DV?$StrTraitMFC_DLL@DV?$ChTraitsCRT@D@ATL@@@@@ATL@@XZ$3
	DD	01H
	DD	FLAT:__unwindfunclet$?GetSavedData@CTextPosition@@QBE?AV?$CStringT@DV?$StrTraitMFC_DLL@DV?$ChTraitsCRT@D@ATL@@@@@ATL@@XZ$4
	DD	01H
	DD	FLAT:__unwindfunclet$?GetSavedData@CTextPosition@@QBE?AV?$CStringT@DV?$StrTraitMFC_DLL@DV?$ChTraitsCRT@D@ATL@@@@@ATL@@XZ$5
	DD	03H
	DD	FLAT:__unwindfunclet$?GetSavedData@CTextPosition@@QBE?AV?$CStringT@DV?$StrTraitMFC_DLL@DV?$ChTraitsCRT@D@ATL@@@@@ATL@@XZ$7
	DD	04H
	DD	FLAT:__unwindfunclet$?GetSavedData@CTextPosition@@QBE?AV?$CStringT@DV?$StrTraitMFC_DLL@DV?$ChTraitsCRT@D@ATL@@@@@ATL@@XZ$8
	DD	05H
	DD	FLAT:__unwindfunclet$?GetSavedData@CTextPosition@@QBE?AV?$CStringT@DV?$StrTraitMFC_DLL@DV?$ChTraitsCRT@D@ATL@@@@@ATL@@XZ$11
	DD	03H
	DD	FLAT:__unwindfunclet$?GetSavedData@CTextPosition@@QBE?AV?$CStringT@DV?$StrTraitMFC_DLL@DV?$ChTraitsCRT@D@ATL@@@@@ATL@@XZ$6
xdata$x	ENDS
;	COMDAT xdata$x
xdata$x	SEGMENT
__unwindtable$?GetSavedColor@CTextEnvironment@@ABE?AV?$CStringT@DV?$StrTraitMFC_DLL@DV?$ChTraitsCRT@D@ATL@@@@@ATL@@XZ DD 0ffffffffH
	DD	FLAT:__unwindfunclet$?GetSavedColor@CTextEnvironment@@ABE?AV?$CStringT@DV?$StrTraitMFC_DLL@DV?$ChTraitsCRT@D@ATL@@@@@ATL@@XZ$0
	DD	00H
	DD	FLAT:__unwindfunclet$?GetSavedColor@CTextEnvironment@@ABE?AV?$CStringT@DV?$StrTraitMFC_DLL@DV?$ChTraitsCRT@D@ATL@@@@@ATL@@XZ$1
	DD	01H
	DD	FLAT:__unwindfunclet$?GetSavedColor@CTextEnvironment@@ABE?AV?$CStringT@DV?$StrTraitMFC_DLL@DV?$ChTraitsCRT@D@ATL@@@@@ATL@@XZ$4
__ehfuncinfo$?GetSavedColor@CTextEnvironment@@ABE?AV?$CStringT@DV?$StrTraitMFC_DLL@DV?$ChTraitsCRT@D@ATL@@@@@ATL@@XZ DD 019930522H
	DD	03H
	DD	FLAT:__unwindtable$?GetSavedColor@CTextEnvironment@@ABE?AV?$CStringT@DV?$StrTraitMFC_DLL@DV?$ChTraitsCRT@D@ATL@@@@@ATL@@XZ
	DD	2 DUP(00H)
	DD	2 DUP(00H)
	DD	00H
	DD	01H
xdata$x	ENDS
;	COMDAT xdata$x
xdata$x	SEGMENT
__ehfuncinfo$?GetSavedData@CTextEnvironment@@QBE?AV?$CStringT@DV?$StrTraitMFC_DLL@DV?$ChTraitsCRT@D@ATL@@@@@ATL@@XZ DD 019930522H
	DD	05H
	DD	FLAT:__unwindtable$?GetSavedData@CTextEnvironment@@QBE?AV?$CStringT@DV?$StrTraitMFC_DLL@DV?$ChTraitsCRT@D@ATL@@@@@ATL@@XZ
	DD	2 DUP(00H)
	DD	2 DUP(00H)
	DD	00H
	DD	01H
__unwindtable$?GetSavedData@CTextEnvironment@@QBE?AV?$CStringT@DV?$StrTraitMFC_DLL@DV?$ChTraitsCRT@D@ATL@@@@@ATL@@XZ DD 0ffffffffH
	DD	FLAT:__unwindfunclet$?GetSavedData@CTextEnvironment@@QBE?AV?$CStringT@DV?$StrTraitMFC_DLL@DV?$ChTraitsCRT@D@ATL@@@@@ATL@@XZ$0
	DD	00H
	DD	FLAT:__unwindfunclet$?GetSavedData@CTextEnvironment@@QBE?AV?$CStringT@DV?$StrTraitMFC_DLL@DV?$ChTraitsCRT@D@ATL@@@@@ATL@@XZ$2
	DD	01H
	DD	FLAT:__unwindfunclet$?GetSavedData@CTextEnvironment@@QBE?AV?$CStringT@DV?$StrTraitMFC_DLL@DV?$ChTraitsCRT@D@ATL@@@@@ATL@@XZ$3
	DD	02H
	DD	FLAT:__unwindfunclet$?GetSavedData@CTextEnvironment@@QBE?AV?$CStringT@DV?$StrTraitMFC_DLL@DV?$ChTraitsCRT@D@ATL@@@@@ATL@@XZ$6
	DD	00H
	DD	FLAT:__unwindfunclet$?GetSavedData@CTextEnvironment@@QBE?AV?$CStringT@DV?$StrTraitMFC_DLL@DV?$ChTraitsCRT@D@ATL@@@@@ATL@@XZ$1
xdata$x	ENDS
;	COMDAT xdata$x
xdata$x	SEGMENT
__unwindtable$?GetSaveData_PriceRangeDiv@CElementCommonEnvironment@@ABE?AV?$CStringT@DV?$StrTraitMFC_DLL@DV?$ChTraitsCRT@D@ATL@@@@@ATL@@XZ DD 0ffffffffH
	DD	FLAT:__unwindfunclet$?GetSaveData_PriceRangeDiv@CElementCommonEnvironment@@ABE?AV?$CStringT@DV?$StrTraitMFC_DLL@DV?$ChTraitsCRT@D@ATL@@@@@ATL@@XZ$0
__ehfuncinfo$?GetSaveData_PriceRangeDiv@CElementCommonEnvironment@@ABE?AV?$CStringT@DV?$StrTraitMFC_DLL@DV?$ChTraitsCRT@D@ATL@@@@@ATL@@XZ DD 019930522H
	DD	01H
	DD	FLAT:__unwindtable$?GetSaveData_PriceRangeDiv@CElementCommonEnvironment@@ABE?AV?$CStringT@DV?$StrTraitMFC_DLL@DV?$ChTraitsCRT@D@ATL@@@@@ATL@@XZ
	DD	2 DUP(00H)
	DD	2 DUP(00H)
	DD	00H
	DD	01H
xdata$x	ENDS
;	COMDAT xdata$x
xdata$x	SEGMENT
__unwindtable$?GetSaveData_EquiDiv@CElementCommonEnvironment@@ABE?AV?$CStringT@DV?$StrTraitMFC_DLL@DV?$ChTraitsCRT@D@ATL@@@@@ATL@@XZ DD 0ffffffffH
	DD	FLAT:__unwindfunclet$?GetSaveData_EquiDiv@CElementCommonEnvironment@@ABE?AV?$CStringT@DV?$StrTraitMFC_DLL@DV?$ChTraitsCRT@D@ATL@@@@@ATL@@XZ$0
__ehfuncinfo$?GetSaveData_EquiDiv@CElementCommonEnvironment@@ABE?AV?$CStringT@DV?$StrTraitMFC_DLL@DV?$ChTraitsCRT@D@ATL@@@@@ATL@@XZ DD 019930522H
	DD	01H
	DD	FLAT:__unwindtable$?GetSaveData_EquiDiv@CElementCommonEnvironment@@ABE?AV?$CStringT@DV?$StrTraitMFC_DLL@DV?$ChTraitsCRT@D@ATL@@@@@ATL@@XZ
	DD	2 DUP(00H)
	DD	2 DUP(00H)
	DD	00H
	DD	01H
xdata$x	ENDS
;	COMDAT xdata$x
xdata$x	SEGMENT
__unwindtable$?GetSaveData_AutoPrice@CElementCommonEnvironment@@ABE?AV?$CStringT@DV?$StrTraitMFC_DLL@DV?$ChTraitsCRT@D@ATL@@@@@ATL@@XZ DD 0ffffffffH
	DD	FLAT:__unwindfunclet$?GetSaveData_AutoPrice@CElementCommonEnvironment@@ABE?AV?$CStringT@DV?$StrTraitMFC_DLL@DV?$ChTraitsCRT@D@ATL@@@@@ATL@@XZ$0
__ehfuncinfo$?GetSaveData_AutoPrice@CElementCommonEnvironment@@ABE?AV?$CStringT@DV?$StrTraitMFC_DLL@DV?$ChTraitsCRT@D@ATL@@@@@ATL@@XZ DD 019930522H
	DD	01H
	DD	FLAT:__unwindtable$?GetSaveData_AutoPrice@CElementCommonEnvironment@@ABE?AV?$CStringT@DV?$StrTraitMFC_DLL@DV?$ChTraitsCRT@D@ATL@@@@@ATL@@XZ
	DD	2 DUP(00H)
	DD	2 DUP(00H)
	DD	00H
	DD	01H
xdata$x	ENDS
;	COMDAT xdata$x
xdata$x	SEGMENT
__ehfuncinfo$?GetSavedData@CElementCommonEnvironment@@QBE?AV?$CStringT@DV?$StrTraitMFC_DLL@DV?$ChTraitsCRT@D@ATL@@@@@ATL@@XZ DD 019930522H
	DD	0fH
	DD	FLAT:__unwindtable$?GetSavedData@CElementCommonEnvironment@@QBE?AV?$CStringT@DV?$StrTraitMFC_DLL@DV?$ChTraitsCRT@D@ATL@@@@@ATL@@XZ
	DD	2 DUP(00H)
	DD	2 DUP(00H)
	DD	00H
	DD	01H
__unwindtable$?GetSavedData@CElementCommonEnvironment@@QBE?AV?$CStringT@DV?$StrTraitMFC_DLL@DV?$ChTraitsCRT@D@ATL@@@@@ATL@@XZ DD 0ffffffffH
	DD	FLAT:__unwindfunclet$?GetSavedData@CElementCommonEnvironment@@QBE?AV?$CStringT@DV?$StrTraitMFC_DLL@DV?$ChTraitsCRT@D@ATL@@@@@ATL@@XZ$0
	DD	00H
	DD	FLAT:__unwindfunclet$?GetSavedData@CElementCommonEnvironment@@QBE?AV?$CStringT@DV?$StrTraitMFC_DLL@DV?$ChTraitsCRT@D@ATL@@@@@ATL@@XZ$1
	DD	01H
	DD	FLAT:__unwindfunclet$?GetSavedData@CElementCommonEnvironment@@QBE?AV?$CStringT@DV?$StrTraitMFC_DLL@DV?$ChTraitsCRT@D@ATL@@@@@ATL@@XZ$2
	DD	02H
	DD	FLAT:__unwindfunclet$?GetSavedData@CElementCommonEnvironment@@QBE?AV?$CStringT@DV?$StrTraitMFC_DLL@DV?$ChTraitsCRT@D@ATL@@@@@ATL@@XZ$7
	DD	03H
	DD	FLAT:__unwindfunclet$?GetSavedData@CElementCommonEnvironment@@QBE?AV?$CStringT@DV?$StrTraitMFC_DLL@DV?$ChTraitsCRT@D@ATL@@@@@ATL@@XZ$8
	DD	04H
	DD	FLAT:__unwindfunclet$?GetSavedData@CElementCommonEnvironment@@QBE?AV?$CStringT@DV?$StrTraitMFC_DLL@DV?$ChTraitsCRT@D@ATL@@@@@ATL@@XZ$9
	DD	05H
	DD	FLAT:__unwindfunclet$?GetSavedData@CElementCommonEnvironment@@QBE?AV?$CStringT@DV?$StrTraitMFC_DLL@DV?$ChTraitsCRT@D@ATL@@@@@ATL@@XZ$11
	DD	06H
	DD	FLAT:__unwindfunclet$?GetSavedData@CElementCommonEnvironment@@QBE?AV?$CStringT@DV?$StrTraitMFC_DLL@DV?$ChTraitsCRT@D@ATL@@@@@ATL@@XZ$12
	DD	07H
	DD	FLAT:__unwindfunclet$?GetSavedData@CElementCommonEnvironment@@QBE?AV?$CStringT@DV?$StrTraitMFC_DLL@DV?$ChTraitsCRT@D@ATL@@@@@ATL@@XZ$13
	DD	08H
	DD	FLAT:__unwindfunclet$?GetSavedData@CElementCommonEnvironment@@QBE?AV?$CStringT@DV?$StrTraitMFC_DLL@DV?$ChTraitsCRT@D@ATL@@@@@ATL@@XZ$14
	DD	09H
	DD	FLAT:__unwindfunclet$?GetSavedData@CElementCommonEnvironment@@QBE?AV?$CStringT@DV?$StrTraitMFC_DLL@DV?$ChTraitsCRT@D@ATL@@@@@ATL@@XZ$15
	DD	0aH
	DD	FLAT:__unwindfunclet$?GetSavedData@CElementCommonEnvironment@@QBE?AV?$CStringT@DV?$StrTraitMFC_DLL@DV?$ChTraitsCRT@D@ATL@@@@@ATL@@XZ$16
	DD	0bH
	DD	FLAT:__unwindfunclet$?GetSavedData@CElementCommonEnvironment@@QBE?AV?$CStringT@DV?$StrTraitMFC_DLL@DV?$ChTraitsCRT@D@ATL@@@@@ATL@@XZ$22
	DD	05H
	DD	FLAT:__unwindfunclet$?GetSavedData@CElementCommonEnvironment@@QBE?AV?$CStringT@DV?$StrTraitMFC_DLL@DV?$ChTraitsCRT@D@ATL@@@@@ATL@@XZ$10
	DD	05H
	DD	FLAT:__unwindfunclet$?GetSavedData@CElementCommonEnvironment@@QBE?AV?$CStringT@DV?$StrTraitMFC_DLL@DV?$ChTraitsCRT@D@ATL@@@@@ATL@@XZ$23
xdata$x	ENDS
;	COMDAT xdata$x
xdata$x	SEGMENT
__unwindtable$?GetDataType@CElementCommonEnvironment@@QBE?AVCDataTypeEnvironment@@XZ DD 0ffffffffH
	DD	FLAT:__unwindfunclet$?GetDataType@CElementCommonEnvironment@@QBE?AVCDataTypeEnvironment@@XZ$1
	DD	00H
	DD	FLAT:__unwindfunclet$?GetDataType@CElementCommonEnvironment@@QBE?AVCDataTypeEnvironment@@XZ$2
__ehfuncinfo$?GetDataType@CElementCommonEnvironment@@QBE?AVCDataTypeEnvironment@@XZ DD 019930522H
	DD	02H
	DD	FLAT:__unwindtable$?GetDataType@CElementCommonEnvironment@@QBE?AVCDataTypeEnvironment@@XZ
	DD	2 DUP(00H)
	DD	2 DUP(00H)
	DD	00H
	DD	01H
xdata$x	ENDS
;	COMDAT xdata$x
xdata$x	SEGMENT
__unwindtable$??0CElementCommonEnvironment@@QAE@_NABH1ABVCPenEnvironment@@ABVCDataTypeEnvironment@@ABVCLineExtEnvironment@@@Z DD 0ffffffffH
	DD	FLAT:__unwindfunclet$??0CElementCommonEnvironment@@QAE@_NABH1ABVCPenEnvironment@@ABVCDataTypeEnvironment@@ABVCLineExtEnvironment@@@Z$1
	DD	00H
	DD	FLAT:__unwindfunclet$??0CElementCommonEnvironment@@QAE@_NABH1ABVCPenEnvironment@@ABVCDataTypeEnvironment@@ABVCLineExtEnvironment@@@Z$2
__ehfuncinfo$??0CElementCommonEnvironment@@QAE@_NABH1ABVCPenEnvironment@@ABVCDataTypeEnvironment@@ABVCLineExtEnvironment@@@Z DD 019930522H
	DD	02H
	DD	FLAT:__unwindtable$??0CElementCommonEnvironment@@QAE@_NABH1ABVCPenEnvironment@@ABVCDataTypeEnvironment@@ABVCLineExtEnvironment@@@Z
	DD	2 DUP(00H)
	DD	2 DUP(00H)
	DD	00H
	DD	01H
xdata$x	ENDS
;	COMDAT xdata$x
xdata$x	SEGMENT
__ehfuncinfo$??4CElementCommonEnvironment@@QAEAAV0@ABV0@@Z DD 019930522H
	DD	06H
	DD	FLAT:__unwindtable$??4CElementCommonEnvironment@@QAEAAV0@ABV0@@Z
	DD	2 DUP(00H)
	DD	2 DUP(00H)
	DD	00H
	DD	01H
__unwindtable$??4CElementCommonEnvironment@@QAEAAV0@ABV0@@Z DD 0ffffffffH
	DD	FLAT:__unwindfunclet$??4CElementCommonEnvironment@@QAEAAV0@ABV0@@Z$2
	DD	00H
	DD	FLAT:__unwindfunclet$??4CElementCommonEnvironment@@QAEAAV0@ABV0@@Z$3
	DD	0ffffffffH
	DD	FLAT:__unwindfunclet$??4CElementCommonEnvironment@@QAEAAV0@ABV0@@Z$0
	DD	02H
	DD	FLAT:__unwindfunclet$??4CElementCommonEnvironment@@QAEAAV0@ABV0@@Z$5
	DD	02H
	DD	FLAT:__unwindfunclet$??4CElementCommonEnvironment@@QAEAAV0@ABV0@@Z$6
	DD	02H
	DD	FLAT:__unwindfunclet$??4CElementCommonEnvironment@@QAEAAV0@ABV0@@Z$7
xdata$x	ENDS
;	COMDAT xdata$x
xdata$x	SEGMENT
__ehfuncinfo$?GetSavedLineExt@CLineExtEnvironment@@ABE?AV?$CStringT@DV?$StrTraitMFC_DLL@DV?$ChTraitsCRT@D@ATL@@@@@ATL@@XZ DD 019930522H
	DD	07H
	DD	FLAT:__unwindtable$?GetSavedLineExt@CLineExtEnvironment@@ABE?AV?$CStringT@DV?$StrTraitMFC_DLL@DV?$ChTraitsCRT@D@ATL@@@@@ATL@@XZ
	DD	2 DUP(00H)
	DD	2 DUP(00H)
	DD	00H
	DD	01H
__unwindtable$?GetSavedLineExt@CLineExtEnvironment@@ABE?AV?$CStringT@DV?$StrTraitMFC_DLL@DV?$ChTraitsCRT@D@ATL@@@@@ATL@@XZ DD 0ffffffffH
	DD	FLAT:__unwindfunclet$?GetSavedLineExt@CLineExtEnvironment@@ABE?AV?$CStringT@DV?$StrTraitMFC_DLL@DV?$ChTraitsCRT@D@ATL@@@@@ATL@@XZ$0
	DD	00H
	DD	FLAT:__unwindfunclet$?GetSavedLineExt@CLineExtEnvironment@@ABE?AV?$CStringT@DV?$StrTraitMFC_DLL@DV?$ChTraitsCRT@D@ATL@@@@@ATL@@XZ$1
	DD	01H
	DD	FLAT:__unwindfunclet$?GetSavedLineExt@CLineExtEnvironment@@ABE?AV?$CStringT@DV?$StrTraitMFC_DLL@DV?$ChTraitsCRT@D@ATL@@@@@ATL@@XZ$2
	DD	02H
	DD	FLAT:__unwindfunclet$?GetSavedLineExt@CLineExtEnvironment@@ABE?AV?$CStringT@DV?$StrTraitMFC_DLL@DV?$ChTraitsCRT@D@ATL@@@@@ATL@@XZ$3
	DD	03H
	DD	FLAT:__unwindfunclet$?GetSavedLineExt@CLineExtEnvironment@@ABE?AV?$CStringT@DV?$StrTraitMFC_DLL@DV?$ChTraitsCRT@D@ATL@@@@@ATL@@XZ$4
	DD	04H
	DD	FLAT:__unwindfunclet$?GetSavedLineExt@CLineExtEnvironment@@ABE?AV?$CStringT@DV?$StrTraitMFC_DLL@DV?$ChTraitsCRT@D@ATL@@@@@ATL@@XZ$5
	DD	05H
	DD	FLAT:__unwindfunclet$?GetSavedLineExt@CLineExtEnvironment@@ABE?AV?$CStringT@DV?$StrTraitMFC_DLL@DV?$ChTraitsCRT@D@ATL@@@@@ATL@@XZ$11
xdata$x	ENDS
;	COMDAT xdata$x
xdata$x	SEGMENT
__ehfuncinfo$?GetSavedData@CLineExtEnvironment@@QBE?AV?$CStringT@DV?$StrTraitMFC_DLL@DV?$ChTraitsCRT@D@ATL@@@@@ATL@@XZ DD 019930522H
	DD	09H
	DD	FLAT:__unwindtable$?GetSavedData@CLineExtEnvironment@@QBE?AV?$CStringT@DV?$StrTraitMFC_DLL@DV?$ChTraitsCRT@D@ATL@@@@@ATL@@XZ
	DD	2 DUP(00H)
	DD	2 DUP(00H)
	DD	00H
	DD	01H
__unwindtable$?GetSavedData@CLineExtEnvironment@@QBE?AV?$CStringT@DV?$StrTraitMFC_DLL@DV?$ChTraitsCRT@D@ATL@@@@@ATL@@XZ DD 0ffffffffH
	DD	FLAT:__unwindfunclet$?GetSavedData@CLineExtEnvironment@@QBE?AV?$CStringT@DV?$StrTraitMFC_DLL@DV?$ChTraitsCRT@D@ATL@@@@@ATL@@XZ$0
	DD	00H
	DD	FLAT:__unwindfunclet$?GetSavedData@CLineExtEnvironment@@QBE?AV?$CStringT@DV?$StrTraitMFC_DLL@DV?$ChTraitsCRT@D@ATL@@@@@ATL@@XZ$2
	DD	01H
	DD	FLAT:__unwindfunclet$?GetSavedData@CLineExtEnvironment@@QBE?AV?$CStringT@DV?$StrTraitMFC_DLL@DV?$ChTraitsCRT@D@ATL@@@@@ATL@@XZ$3
	DD	02H
	DD	FLAT:__unwindfunclet$?GetSavedData@CLineExtEnvironment@@QBE?AV?$CStringT@DV?$StrTraitMFC_DLL@DV?$ChTraitsCRT@D@ATL@@@@@ATL@@XZ$4
	DD	03H
	DD	FLAT:__unwindfunclet$?GetSavedData@CLineExtEnvironment@@QBE?AV?$CStringT@DV?$StrTraitMFC_DLL@DV?$ChTraitsCRT@D@ATL@@@@@ATL@@XZ$5
	DD	04H
	DD	FLAT:__unwindfunclet$?GetSavedData@CLineExtEnvironment@@QBE?AV?$CStringT@DV?$StrTraitMFC_DLL@DV?$ChTraitsCRT@D@ATL@@@@@ATL@@XZ$6
	DD	05H
	DD	FLAT:__unwindfunclet$?GetSavedData@CLineExtEnvironment@@QBE?AV?$CStringT@DV?$StrTraitMFC_DLL@DV?$ChTraitsCRT@D@ATL@@@@@ATL@@XZ$7
	DD	06H
	DD	FLAT:__unwindfunclet$?GetSavedData@CLineExtEnvironment@@QBE?AV?$CStringT@DV?$StrTraitMFC_DLL@DV?$ChTraitsCRT@D@ATL@@@@@ATL@@XZ$13
	DD	00H
	DD	FLAT:__unwindfunclet$?GetSavedData@CLineExtEnvironment@@QBE?AV?$CStringT@DV?$StrTraitMFC_DLL@DV?$ChTraitsCRT@D@ATL@@@@@ATL@@XZ$1
xdata$x	ENDS
;	COMDAT xdata$x
xdata$x	SEGMENT
__unwindtable$??0CDataTypeEnvironment@@QAE@ABV0@@Z DD 0ffffffffH
	DD	FLAT:__unwindfunclet$??0CDataTypeEnvironment@@QAE@ABV0@@Z$0
	DD	00H
	DD	FLAT:__unwindfunclet$??0CDataTypeEnvironment@@QAE@ABV0@@Z$1
__ehfuncinfo$??0CDataTypeEnvironment@@QAE@ABV0@@Z DD 019930522H
	DD	02H
	DD	FLAT:__unwindtable$??0CDataTypeEnvironment@@QAE@ABV0@@Z
	DD	2 DUP(00H)
	DD	2 DUP(00H)
	DD	00H
	DD	01H
xdata$x	ENDS
;	COMDAT xdata$x
xdata$x	SEGMENT
__unwindtable$?GetSavedStrVert@CDataTypeEnvironment@@ABE?AV?$CStringT@DV?$StrTraitMFC_DLL@DV?$ChTraitsCRT@D@ATL@@@@@ATL@@XZ DD 0ffffffffH
	DD	FLAT:__unwindfunclet$?GetSavedStrVert@CDataTypeEnvironment@@ABE?AV?$CStringT@DV?$StrTraitMFC_DLL@DV?$ChTraitsCRT@D@ATL@@@@@ATL@@XZ$2
	DD	00H
	DD	FLAT:__unwindfunclet$?GetSavedStrVert@CDataTypeEnvironment@@ABE?AV?$CStringT@DV?$StrTraitMFC_DLL@DV?$ChTraitsCRT@D@ATL@@@@@ATL@@XZ$3
__ehfuncinfo$?GetSavedStrVert@CDataTypeEnvironment@@ABE?AV?$CStringT@DV?$StrTraitMFC_DLL@DV?$ChTraitsCRT@D@ATL@@@@@ATL@@XZ DD 019930522H
	DD	02H
	DD	FLAT:__unwindtable$?GetSavedStrVert@CDataTypeEnvironment@@ABE?AV?$CStringT@DV?$StrTraitMFC_DLL@DV?$ChTraitsCRT@D@ATL@@@@@ATL@@XZ
	DD	2 DUP(00H)
	DD	2 DUP(00H)
	DD	00H
	DD	01H
xdata$x	ENDS
;	COMDAT xdata$x
xdata$x	SEGMENT
__unwindtable$?GetSavedExtData@CDataTypeEnvironment@@ABE?AV?$CStringT@DV?$StrTraitMFC_DLL@DV?$ChTraitsCRT@D@ATL@@@@@ATL@@XZ DD 0ffffffffH
	DD	FLAT:__unwindfunclet$?GetSavedExtData@CDataTypeEnvironment@@ABE?AV?$CStringT@DV?$StrTraitMFC_DLL@DV?$ChTraitsCRT@D@ATL@@@@@ATL@@XZ$2
	DD	00H
	DD	FLAT:__unwindfunclet$?GetSavedExtData@CDataTypeEnvironment@@ABE?AV?$CStringT@DV?$StrTraitMFC_DLL@DV?$ChTraitsCRT@D@ATL@@@@@ATL@@XZ$3
__ehfuncinfo$?GetSavedExtData@CDataTypeEnvironment@@ABE?AV?$CStringT@DV?$StrTraitMFC_DLL@DV?$ChTraitsCRT@D@ATL@@@@@ATL@@XZ DD 019930522H
	DD	02H
	DD	FLAT:__unwindtable$?GetSavedExtData@CDataTypeEnvironment@@ABE?AV?$CStringT@DV?$StrTraitMFC_DLL@DV?$ChTraitsCRT@D@ATL@@@@@ATL@@XZ
	DD	2 DUP(00H)
	DD	2 DUP(00H)
	DD	00H
	DD	01H
xdata$x	ENDS
;	COMDAT xdata$x
xdata$x	SEGMENT
__unwindtable$?GetSavedHorz@CDataTypeEnvironment@@ABE?AV?$CStringT@DV?$StrTraitMFC_DLL@DV?$ChTraitsCRT@D@ATL@@@@@ATL@@XZ DD 0ffffffffH
	DD	FLAT:__unwindfunclet$?GetSavedHorz@CDataTypeEnvironment@@ABE?AV?$CStringT@DV?$StrTraitMFC_DLL@DV?$ChTraitsCRT@D@ATL@@@@@ATL@@XZ$2
	DD	00H
	DD	FLAT:__unwindfunclet$?GetSavedHorz@CDataTypeEnvironment@@ABE?AV?$CStringT@DV?$StrTraitMFC_DLL@DV?$ChTraitsCRT@D@ATL@@@@@ATL@@XZ$3
__ehfuncinfo$?GetSavedHorz@CDataTypeEnvironment@@ABE?AV?$CStringT@DV?$StrTraitMFC_DLL@DV?$ChTraitsCRT@D@ATL@@@@@ATL@@XZ DD 019930522H
	DD	02H
	DD	FLAT:__unwindtable$?GetSavedHorz@CDataTypeEnvironment@@ABE?AV?$CStringT@DV?$StrTraitMFC_DLL@DV?$ChTraitsCRT@D@ATL@@@@@ATL@@XZ
	DD	2 DUP(00H)
	DD	2 DUP(00H)
	DD	00H
	DD	01H
xdata$x	ENDS
;	COMDAT xdata$x
xdata$x	SEGMENT
__unwindtable$?GetSavedVert@CDataTypeEnvironment@@ABE?AV?$CStringT@DV?$StrTraitMFC_DLL@DV?$ChTraitsCRT@D@ATL@@@@@ATL@@XZ DD 0ffffffffH
	DD	FLAT:__unwindfunclet$?GetSavedVert@CDataTypeEnvironment@@ABE?AV?$CStringT@DV?$StrTraitMFC_DLL@DV?$ChTraitsCRT@D@ATL@@@@@ATL@@XZ$0
	DD	00H
	DD	FLAT:__unwindfunclet$?GetSavedVert@CDataTypeEnvironment@@ABE?AV?$CStringT@DV?$StrTraitMFC_DLL@DV?$ChTraitsCRT@D@ATL@@@@@ATL@@XZ$1
	DD	01H
	DD	FLAT:__unwindfunclet$?GetSavedVert@CDataTypeEnvironment@@ABE?AV?$CStringT@DV?$StrTraitMFC_DLL@DV?$ChTraitsCRT@D@ATL@@@@@ATL@@XZ$4
__ehfuncinfo$?GetSavedVert@CDataTypeEnvironment@@ABE?AV?$CStringT@DV?$StrTraitMFC_DLL@DV?$ChTraitsCRT@D@ATL@@@@@ATL@@XZ DD 019930522H
	DD	03H
	DD	FLAT:__unwindtable$?GetSavedVert@CDataTypeEnvironment@@ABE?AV?$CStringT@DV?$StrTraitMFC_DLL@DV?$ChTraitsCRT@D@ATL@@@@@ATL@@XZ
	DD	2 DUP(00H)
	DD	2 DUP(00H)
	DD	00H
	DD	01H
xdata$x	ENDS
;	COMDAT xdata$x
xdata$x	SEGMENT
__unwindtable$?GetSavedCoordinateType@CDataTypeEnvironment@@ABE?AV?$CStringT@DV?$StrTraitMFC_DLL@DV?$ChTraitsCRT@D@ATL@@@@@ATL@@XZ DD 0ffffffffH
	DD	FLAT:__unwindfunclet$?GetSavedCoordinateType@CDataTypeEnvironment@@ABE?AV?$CStringT@DV?$StrTraitMFC_DLL@DV?$ChTraitsCRT@D@ATL@@@@@ATL@@XZ$0
	DD	00H
	DD	FLAT:__unwindfunclet$?GetSavedCoordinateType@CDataTypeEnvironment@@ABE?AV?$CStringT@DV?$StrTraitMFC_DLL@DV?$ChTraitsCRT@D@ATL@@@@@ATL@@XZ$1
	DD	01H
	DD	FLAT:__unwindfunclet$?GetSavedCoordinateType@CDataTypeEnvironment@@ABE?AV?$CStringT@DV?$StrTraitMFC_DLL@DV?$ChTraitsCRT@D@ATL@@@@@ATL@@XZ$4
__ehfuncinfo$?GetSavedCoordinateType@CDataTypeEnvironment@@ABE?AV?$CStringT@DV?$StrTraitMFC_DLL@DV?$ChTraitsCRT@D@ATL@@@@@ATL@@XZ DD 019930522H
	DD	03H
	DD	FLAT:__unwindtable$?GetSavedCoordinateType@CDataTypeEnvironment@@ABE?AV?$CStringT@DV?$StrTraitMFC_DLL@DV?$ChTraitsCRT@D@ATL@@@@@ATL@@XZ
	DD	2 DUP(00H)
	DD	2 DUP(00H)
	DD	00H
	DD	01H
xdata$x	ENDS
;	COMDAT xdata$x
xdata$x	SEGMENT
__ehfuncinfo$?GetSavedData@CDataTypeEnvironment@@QBE?AV?$CStringT@DV?$StrTraitMFC_DLL@DV?$ChTraitsCRT@D@ATL@@@@@ATL@@XZ DD 019930522H
	DD	012H
	DD	FLAT:__unwindtable$?GetSavedData@CDataTypeEnvironment@@QBE?AV?$CStringT@DV?$StrTraitMFC_DLL@DV?$ChTraitsCRT@D@ATL@@@@@ATL@@XZ
	DD	2 DUP(00H)
	DD	2 DUP(00H)
	DD	00H
	DD	01H
__unwindtable$?GetSavedData@CDataTypeEnvironment@@QBE?AV?$CStringT@DV?$StrTraitMFC_DLL@DV?$ChTraitsCRT@D@ATL@@@@@ATL@@XZ DD 0ffffffffH
	DD	FLAT:__unwindfunclet$?GetSavedData@CDataTypeEnvironment@@QBE?AV?$CStringT@DV?$StrTraitMFC_DLL@DV?$ChTraitsCRT@D@ATL@@@@@ATL@@XZ$0
	DD	00H
	DD	FLAT:__unwindfunclet$?GetSavedData@CDataTypeEnvironment@@QBE?AV?$CStringT@DV?$StrTraitMFC_DLL@DV?$ChTraitsCRT@D@ATL@@@@@ATL@@XZ$8
	DD	01H
	DD	FLAT:__unwindfunclet$?GetSavedData@CDataTypeEnvironment@@QBE?AV?$CStringT@DV?$StrTraitMFC_DLL@DV?$ChTraitsCRT@D@ATL@@@@@ATL@@XZ$9
	DD	00H
	DD	FLAT:__unwindfunclet$?GetSavedData@CDataTypeEnvironment@@QBE?AV?$CStringT@DV?$StrTraitMFC_DLL@DV?$ChTraitsCRT@D@ATL@@@@@ATL@@XZ$1
	DD	03H
	DD	FLAT:__unwindfunclet$?GetSavedData@CDataTypeEnvironment@@QBE?AV?$CStringT@DV?$StrTraitMFC_DLL@DV?$ChTraitsCRT@D@ATL@@@@@ATL@@XZ$12
	DD	04H
	DD	FLAT:__unwindfunclet$?GetSavedData@CDataTypeEnvironment@@QBE?AV?$CStringT@DV?$StrTraitMFC_DLL@DV?$ChTraitsCRT@D@ATL@@@@@ATL@@XZ$13
	DD	03H
	DD	FLAT:__unwindfunclet$?GetSavedData@CDataTypeEnvironment@@QBE?AV?$CStringT@DV?$StrTraitMFC_DLL@DV?$ChTraitsCRT@D@ATL@@@@@ATL@@XZ$2
	DD	06H
	DD	FLAT:__unwindfunclet$?GetSavedData@CDataTypeEnvironment@@QBE?AV?$CStringT@DV?$StrTraitMFC_DLL@DV?$ChTraitsCRT@D@ATL@@@@@ATL@@XZ$16
	DD	07H
	DD	FLAT:__unwindfunclet$?GetSavedData@CDataTypeEnvironment@@QBE?AV?$CStringT@DV?$StrTraitMFC_DLL@DV?$ChTraitsCRT@D@ATL@@@@@ATL@@XZ$17
	DD	06H
	DD	FLAT:__unwindfunclet$?GetSavedData@CDataTypeEnvironment@@QBE?AV?$CStringT@DV?$StrTraitMFC_DLL@DV?$ChTraitsCRT@D@ATL@@@@@ATL@@XZ$3
	DD	09H
	DD	FLAT:__unwindfunclet$?GetSavedData@CDataTypeEnvironment@@QBE?AV?$CStringT@DV?$StrTraitMFC_DLL@DV?$ChTraitsCRT@D@ATL@@@@@ATL@@XZ$18
	DD	0aH
	DD	FLAT:__unwindfunclet$?GetSavedData@CDataTypeEnvironment@@QBE?AV?$CStringT@DV?$StrTraitMFC_DLL@DV?$ChTraitsCRT@D@ATL@@@@@ATL@@XZ$19
	DD	0bH
	DD	FLAT:__unwindfunclet$?GetSavedData@CDataTypeEnvironment@@QBE?AV?$CStringT@DV?$StrTraitMFC_DLL@DV?$ChTraitsCRT@D@ATL@@@@@ATL@@XZ$22
	DD	09H
	DD	FLAT:__unwindfunclet$?GetSavedData@CDataTypeEnvironment@@QBE?AV?$CStringT@DV?$StrTraitMFC_DLL@DV?$ChTraitsCRT@D@ATL@@@@@ATL@@XZ$4
	DD	0dH
	DD	FLAT:__unwindfunclet$?GetSavedData@CDataTypeEnvironment@@QBE?AV?$CStringT@DV?$StrTraitMFC_DLL@DV?$ChTraitsCRT@D@ATL@@@@@ATL@@XZ$23
	DD	0eH
	DD	FLAT:__unwindfunclet$?GetSavedData@CDataTypeEnvironment@@QBE?AV?$CStringT@DV?$StrTraitMFC_DLL@DV?$ChTraitsCRT@D@ATL@@@@@ATL@@XZ$24
	DD	0fH
	DD	FLAT:__unwindfunclet$?GetSavedData@CDataTypeEnvironment@@QBE?AV?$CStringT@DV?$StrTraitMFC_DLL@DV?$ChTraitsCRT@D@ATL@@@@@ATL@@XZ$27
	DD	0dH
	DD	FLAT:__unwindfunclet$?GetSavedData@CDataTypeEnvironment@@QBE?AV?$CStringT@DV?$StrTraitMFC_DLL@DV?$ChTraitsCRT@D@ATL@@@@@ATL@@XZ$5
xdata$x	ENDS
;	COMDAT xdata$x
xdata$x	SEGMENT
__ehfuncinfo$??0CDataTypeEnvironment@@QAE@PBV0@@Z DD 019930522H
	DD	06H
	DD	FLAT:__unwindtable$??0CDataTypeEnvironment@@QAE@PBV0@@Z
	DD	2 DUP(00H)
	DD	2 DUP(00H)
	DD	00H
	DD	01H
__unwindtable$??0CDataTypeEnvironment@@QAE@PBV0@@Z DD 0ffffffffH
	DD	FLAT:__unwindfunclet$??0CDataTypeEnvironment@@QAE@PBV0@@Z$0
	DD	00H
	DD	FLAT:__unwindfunclet$??0CDataTypeEnvironment@@QAE@PBV0@@Z$1
	DD	01H
	DD	FLAT:__unwindfunclet$??0CDataTypeEnvironment@@QAE@PBV0@@Z$2
	DD	02H
	DD	FLAT:__unwindfunclet$??0CDataTypeEnvironment@@QAE@PBV0@@Z$3
	DD	02H
	DD	FLAT:__unwindfunclet$??0CDataTypeEnvironment@@QAE@PBV0@@Z$4
	DD	02H
	DD	FLAT:__unwindfunclet$??0CDataTypeEnvironment@@QAE@PBV0@@Z$5
xdata$x	ENDS
;	COMDAT xdata$x
xdata$x	SEGMENT
__unwindtable$??0CDataTypeEnvironment@@QAE@W4COORDINATETYPE@CAnalysis@@ABNABV?$CStringT@DV?$StrTraitMFC_DLL@DV?$ChTraitsCRT@D@ATL@@@@@ATL@@22PAUHWND__@@W4CHART_MODE@CChartInfo@@@Z DD 0ffffffffH
	DD	FLAT:__unwindfunclet$??0CDataTypeEnvironment@@QAE@W4COORDINATETYPE@CAnalysis@@ABNABV?$CStringT@DV?$StrTraitMFC_DLL@DV?$ChTraitsCRT@D@ATL@@@@@ATL@@22PAUHWND__@@W4CHART_MODE@CChartInfo@@@Z$0
	DD	00H
	DD	FLAT:__unwindfunclet$??0CDataTypeEnvironment@@QAE@W4COORDINATETYPE@CAnalysis@@ABNABV?$CStringT@DV?$StrTraitMFC_DLL@DV?$ChTraitsCRT@D@ATL@@@@@ATL@@22PAUHWND__@@W4CHART_MODE@CChartInfo@@@Z$1
__ehfuncinfo$??0CDataTypeEnvironment@@QAE@W4COORDINATETYPE@CAnalysis@@ABNABV?$CStringT@DV?$StrTraitMFC_DLL@DV?$ChTraitsCRT@D@ATL@@@@@ATL@@22PAUHWND__@@W4CHART_MODE@CChartInfo@@@Z DD 019930522H
	DD	02H
	DD	FLAT:__unwindtable$??0CDataTypeEnvironment@@QAE@W4COORDINATETYPE@CAnalysis@@ABNABV?$CStringT@DV?$StrTraitMFC_DLL@DV?$ChTraitsCRT@D@ATL@@@@@ATL@@22PAUHWND__@@W4CHART_MODE@CChartInfo@@@Z
	DD	2 DUP(00H)
	DD	2 DUP(00H)
	DD	00H
	DD	01H
xdata$x	ENDS
;	COMDAT xdata$x
xdata$x	SEGMENT
__unwindtable$??0CDataTypeEnvironment@@QAE@W4COORDINATETYPE@CAnalysis@@ABNABV?$CStringT@DV?$StrTraitMFC_DLL@DV?$ChTraitsCRT@D@ATL@@@@@ATL@@2PAUHWND__@@W4CHART_MODE@CChartInfo@@@Z DD 0ffffffffH
	DD	FLAT:__unwindfunclet$??0CDataTypeEnvironment@@QAE@W4COORDINATETYPE@CAnalysis@@ABNABV?$CStringT@DV?$StrTraitMFC_DLL@DV?$ChTraitsCRT@D@ATL@@@@@ATL@@2PAUHWND__@@W4CHART_MODE@CChartInfo@@@Z$0
__ehfuncinfo$??0CDataTypeEnvironment@@QAE@W4COORDINATETYPE@CAnalysis@@ABNABV?$CStringT@DV?$StrTraitMFC_DLL@DV?$ChTraitsCRT@D@ATL@@@@@ATL@@2PAUHWND__@@W4CHART_MODE@CChartInfo@@@Z DD 019930522H
	DD	01H
	DD	FLAT:__unwindtable$??0CDataTypeEnvironment@@QAE@W4COORDINATETYPE@CAnalysis@@ABNABV?$CStringT@DV?$StrTraitMFC_DLL@DV?$ChTraitsCRT@D@ATL@@@@@ATL@@2PAUHWND__@@W4CHART_MODE@CChartInfo@@@Z
	DD	2 DUP(00H)
	DD	2 DUP(00H)
	DD	00H
	DD	01H
xdata$x	ENDS
;	COMDAT xdata$x
xdata$x	SEGMENT
__unwindtable$??4CDataTypeEnvironment@@QAEAAV0@ABV0@@Z DD 0ffffffffH
	DD	FLAT:__unwindfunclet$??4CDataTypeEnvironment@@QAEAAV0@ABV0@@Z$0
	DD	0ffffffffH
	DD	FLAT:__unwindfunclet$??4CDataTypeEnvironment@@QAEAAV0@ABV0@@Z$1
	DD	0ffffffffH
	DD	FLAT:__unwindfunclet$??4CDataTypeEnvironment@@QAEAAV0@ABV0@@Z$2
__ehfuncinfo$??4CDataTypeEnvironment@@QAEAAV0@ABV0@@Z DD 019930522H
	DD	03H
	DD	FLAT:__unwindtable$??4CDataTypeEnvironment@@QAEAAV0@ABV0@@Z
	DD	2 DUP(00H)
	DD	2 DUP(00H)
	DD	00H
	DD	01H
xdata$x	ENDS
;	COMDAT xdata$x
xdata$x	SEGMENT
__unwindtable$?GetSavedStyle@CPenEnvironment@@ABE?AV?$CStringT@DV?$StrTraitMFC_DLL@DV?$ChTraitsCRT@D@ATL@@@@@ATL@@XZ DD 0ffffffffH
	DD	FLAT:__unwindfunclet$?GetSavedStyle@CPenEnvironment@@ABE?AV?$CStringT@DV?$StrTraitMFC_DLL@DV?$ChTraitsCRT@D@ATL@@@@@ATL@@XZ$0
	DD	00H
	DD	FLAT:__unwindfunclet$?GetSavedStyle@CPenEnvironment@@ABE?AV?$CStringT@DV?$StrTraitMFC_DLL@DV?$ChTraitsCRT@D@ATL@@@@@ATL@@XZ$1
	DD	01H
	DD	FLAT:__unwindfunclet$?GetSavedStyle@CPenEnvironment@@ABE?AV?$CStringT@DV?$StrTraitMFC_DLL@DV?$ChTraitsCRT@D@ATL@@@@@ATL@@XZ$4
__ehfuncinfo$?GetSavedStyle@CPenEnvironment@@ABE?AV?$CStringT@DV?$StrTraitMFC_DLL@DV?$ChTraitsCRT@D@ATL@@@@@ATL@@XZ DD 019930522H
	DD	03H
	DD	FLAT:__unwindtable$?GetSavedStyle@CPenEnvironment@@ABE?AV?$CStringT@DV?$StrTraitMFC_DLL@DV?$ChTraitsCRT@D@ATL@@@@@ATL@@XZ
	DD	2 DUP(00H)
	DD	2 DUP(00H)
	DD	00H
	DD	01H
xdata$x	ENDS
;	COMDAT xdata$x
xdata$x	SEGMENT
__unwindtable$?GetSavedWidth@CPenEnvironment@@ABE?AV?$CStringT@DV?$StrTraitMFC_DLL@DV?$ChTraitsCRT@D@ATL@@@@@ATL@@XZ DD 0ffffffffH
	DD	FLAT:__unwindfunclet$?GetSavedWidth@CPenEnvironment@@ABE?AV?$CStringT@DV?$StrTraitMFC_DLL@DV?$ChTraitsCRT@D@ATL@@@@@ATL@@XZ$0
	DD	00H
	DD	FLAT:__unwindfunclet$?GetSavedWidth@CPenEnvironment@@ABE?AV?$CStringT@DV?$StrTraitMFC_DLL@DV?$ChTraitsCRT@D@ATL@@@@@ATL@@XZ$1
	DD	01H
	DD	FLAT:__unwindfunclet$?GetSavedWidth@CPenEnvironment@@ABE?AV?$CStringT@DV?$StrTraitMFC_DLL@DV?$ChTraitsCRT@D@ATL@@@@@ATL@@XZ$4
__ehfuncinfo$?GetSavedWidth@CPenEnvironment@@ABE?AV?$CStringT@DV?$StrTraitMFC_DLL@DV?$ChTraitsCRT@D@ATL@@@@@ATL@@XZ DD 019930522H
	DD	03H
	DD	FLAT:__unwindtable$?GetSavedWidth@CPenEnvironment@@ABE?AV?$CStringT@DV?$StrTraitMFC_DLL@DV?$ChTraitsCRT@D@ATL@@@@@ATL@@XZ
	DD	2 DUP(00H)
	DD	2 DUP(00H)
	DD	00H
	DD	01H
xdata$x	ENDS
;	COMDAT xdata$x
xdata$x	SEGMENT
__unwindtable$?GetSavedColor@CPenEnvironment@@ABE?AV?$CStringT@DV?$StrTraitMFC_DLL@DV?$ChTraitsCRT@D@ATL@@@@@ATL@@XZ DD 0ffffffffH
	DD	FLAT:__unwindfunclet$?GetSavedColor@CPenEnvironment@@ABE?AV?$CStringT@DV?$StrTraitMFC_DLL@DV?$ChTraitsCRT@D@ATL@@@@@ATL@@XZ$0
	DD	00H
	DD	FLAT:__unwindfunclet$?GetSavedColor@CPenEnvironment@@ABE?AV?$CStringT@DV?$StrTraitMFC_DLL@DV?$ChTraitsCRT@D@ATL@@@@@ATL@@XZ$1
	DD	01H
	DD	FLAT:__unwindfunclet$?GetSavedColor@CPenEnvironment@@ABE?AV?$CStringT@DV?$StrTraitMFC_DLL@DV?$ChTraitsCRT@D@ATL@@@@@ATL@@XZ$4
__ehfuncinfo$?GetSavedColor@CPenEnvironment@@ABE?AV?$CStringT@DV?$StrTraitMFC_DLL@DV?$ChTraitsCRT@D@ATL@@@@@ATL@@XZ DD 019930522H
	DD	03H
	DD	FLAT:__unwindtable$?GetSavedColor@CPenEnvironment@@ABE?AV?$CStringT@DV?$StrTraitMFC_DLL@DV?$ChTraitsCRT@D@ATL@@@@@ATL@@XZ
	DD	2 DUP(00H)
	DD	2 DUP(00H)
	DD	00H
	DD	01H
xdata$x	ENDS
;	COMDAT xdata$x
xdata$x	SEGMENT
__ehfuncinfo$?GetSavedData@CPenEnvironment@@QBE?AV?$CStringT@DV?$StrTraitMFC_DLL@DV?$ChTraitsCRT@D@ATL@@@@@ATL@@XZ DD 019930522H
	DD	0dH
	DD	FLAT:__unwindtable$?GetSavedData@CPenEnvironment@@QBE?AV?$CStringT@DV?$StrTraitMFC_DLL@DV?$ChTraitsCRT@D@ATL@@@@@ATL@@XZ
	DD	2 DUP(00H)
	DD	2 DUP(00H)
	DD	00H
	DD	01H
__unwindtable$?GetSavedData@CPenEnvironment@@QBE?AV?$CStringT@DV?$StrTraitMFC_DLL@DV?$ChTraitsCRT@D@ATL@@@@@ATL@@XZ DD 0ffffffffH
	DD	FLAT:__unwindfunclet$?GetSavedData@CPenEnvironment@@QBE?AV?$CStringT@DV?$StrTraitMFC_DLL@DV?$ChTraitsCRT@D@ATL@@@@@ATL@@XZ$0
	DD	00H
	DD	FLAT:__unwindfunclet$?GetSavedData@CPenEnvironment@@QBE?AV?$CStringT@DV?$StrTraitMFC_DLL@DV?$ChTraitsCRT@D@ATL@@@@@ATL@@XZ$4
	DD	01H
	DD	FLAT:__unwindfunclet$?GetSavedData@CPenEnvironment@@QBE?AV?$CStringT@DV?$StrTraitMFC_DLL@DV?$ChTraitsCRT@D@ATL@@@@@ATL@@XZ$5
	DD	02H
	DD	FLAT:__unwindfunclet$?GetSavedData@CPenEnvironment@@QBE?AV?$CStringT@DV?$StrTraitMFC_DLL@DV?$ChTraitsCRT@D@ATL@@@@@ATL@@XZ$8
	DD	00H
	DD	FLAT:__unwindfunclet$?GetSavedData@CPenEnvironment@@QBE?AV?$CStringT@DV?$StrTraitMFC_DLL@DV?$ChTraitsCRT@D@ATL@@@@@ATL@@XZ$1
	DD	04H
	DD	FLAT:__unwindfunclet$?GetSavedData@CPenEnvironment@@QBE?AV?$CStringT@DV?$StrTraitMFC_DLL@DV?$ChTraitsCRT@D@ATL@@@@@ATL@@XZ$9
	DD	05H
	DD	FLAT:__unwindfunclet$?GetSavedData@CPenEnvironment@@QBE?AV?$CStringT@DV?$StrTraitMFC_DLL@DV?$ChTraitsCRT@D@ATL@@@@@ATL@@XZ$10
	DD	06H
	DD	FLAT:__unwindfunclet$?GetSavedData@CPenEnvironment@@QBE?AV?$CStringT@DV?$StrTraitMFC_DLL@DV?$ChTraitsCRT@D@ATL@@@@@ATL@@XZ$13
	DD	04H
	DD	FLAT:__unwindfunclet$?GetSavedData@CPenEnvironment@@QBE?AV?$CStringT@DV?$StrTraitMFC_DLL@DV?$ChTraitsCRT@D@ATL@@@@@ATL@@XZ$2
	DD	08H
	DD	FLAT:__unwindfunclet$?GetSavedData@CPenEnvironment@@QBE?AV?$CStringT@DV?$StrTraitMFC_DLL@DV?$ChTraitsCRT@D@ATL@@@@@ATL@@XZ$14
	DD	09H
	DD	FLAT:__unwindfunclet$?GetSavedData@CPenEnvironment@@QBE?AV?$CStringT@DV?$StrTraitMFC_DLL@DV?$ChTraitsCRT@D@ATL@@@@@ATL@@XZ$15
	DD	0aH
	DD	FLAT:__unwindfunclet$?GetSavedData@CPenEnvironment@@QBE?AV?$CStringT@DV?$StrTraitMFC_DLL@DV?$ChTraitsCRT@D@ATL@@@@@ATL@@XZ$18
	DD	08H
	DD	FLAT:__unwindfunclet$?GetSavedData@CPenEnvironment@@QBE?AV?$CStringT@DV?$StrTraitMFC_DLL@DV?$ChTraitsCRT@D@ATL@@@@@ATL@@XZ$3
xdata$x	ENDS
;	COMDAT xdata$x
xdata$x	SEGMENT
__unwindtable$??HATL@@YA?AV?$CStringT@DV?$StrTraitMFC_DLL@DV?$ChTraitsCRT@D@ATL@@@@@0@PBDABV10@@Z DD 0ffffffffH
	DD	FLAT:__unwindfunclet$??HATL@@YA?AV?$CStringT@DV?$StrTraitMFC_DLL@DV?$ChTraitsCRT@D@ATL@@@@@0@PBDABV10@@Z$0
__ehfuncinfo$??HATL@@YA?AV?$CStringT@DV?$StrTraitMFC_DLL@DV?$ChTraitsCRT@D@ATL@@@@@0@PBDABV10@@Z DD 019930522H
	DD	01H
	DD	FLAT:__unwindtable$??HATL@@YA?AV?$CStringT@DV?$StrTraitMFC_DLL@DV?$ChTraitsCRT@D@ATL@@@@@0@PBDABV10@@Z
	DD	2 DUP(00H)
	DD	2 DUP(00H)
	DD	00H
	DD	01H
xdata$x	ENDS
;	COMDAT xdata$x
xdata$x	SEGMENT
__unwindtable$??HATL@@YA?AV?$CStringT@DV?$StrTraitMFC_DLL@DV?$ChTraitsCRT@D@ATL@@@@@0@ABV10@PBD@Z DD 0ffffffffH
	DD	FLAT:__unwindfunclet$??HATL@@YA?AV?$CStringT@DV?$StrTraitMFC_DLL@DV?$ChTraitsCRT@D@ATL@@@@@0@ABV10@PBD@Z$0
__ehfuncinfo$??HATL@@YA?AV?$CStringT@DV?$StrTraitMFC_DLL@DV?$ChTraitsCRT@D@ATL@@@@@0@ABV10@PBD@Z DD 019930522H
	DD	01H
	DD	FLAT:__unwindtable$??HATL@@YA?AV?$CStringT@DV?$StrTraitMFC_DLL@DV?$ChTraitsCRT@D@ATL@@@@@0@ABV10@PBD@Z
	DD	2 DUP(00H)
	DD	2 DUP(00H)
	DD	00H
	DD	01H
xdata$x	ENDS
;	COMDAT xdata$x
xdata$x	SEGMENT
__unwindtable$??HATL@@YA?AV?$CStringT@DV?$StrTraitMFC_DLL@DV?$ChTraitsCRT@D@ATL@@@@@0@ABV10@0@Z DD 0ffffffffH
	DD	FLAT:__unwindfunclet$??HATL@@YA?AV?$CStringT@DV?$StrTraitMFC_DLL@DV?$ChTraitsCRT@D@ATL@@@@@0@ABV10@0@Z$0
__ehfuncinfo$??HATL@@YA?AV?$CStringT@DV?$StrTraitMFC_DLL@DV?$ChTraitsCRT@D@ATL@@@@@0@ABV10@0@Z DD 019930522H
	DD	01H
	DD	FLAT:__unwindtable$??HATL@@YA?AV?$CStringT@DV?$StrTraitMFC_DLL@DV?$ChTraitsCRT@D@ATL@@@@@0@ABV10@0@Z
	DD	2 DUP(00H)
	DD	2 DUP(00H)
	DD	00H
	DD	01H
xdata$x	ENDS
; Function compile flags: /Ogtp
; File D:\git\src\IBK\IBK_DRFN\ProjSrc\SrcChartEx\ChartAddIn\ChartAnalysisToolAddIn\Include_Analysis\ElementEnvironment.cpp
;	COMDAT ?GetSavedRealTextPositionData@CTextHorzVertPosition@@MBE?AV?$CStringT@DV?$StrTraitMFC_DLL@DV?$ChTraitsCRT@D@ATL@@@@@ATL@@XZ
_TEXT	SEGMENT
$T2 = -24						; size = 4
$T3 = -24						; size = 4
$T4 = -24						; size = 4
$T5 = -24						; size = 4
$T6 = -20						; size = 4
$T7 = -20						; size = 4
$T8 = -20						; size = 4
$T9 = -20						; size = 4
$T10 = -16						; size = 4
__$EHRec$ = -12						; size = 12
___$ReturnUdt$ = 8					; size = 4
?GetSavedRealTextPositionData@CTextHorzVertPosition@@MBE?AV?$CStringT@DV?$StrTraitMFC_DLL@DV?$ChTraitsCRT@D@ATL@@@@@ATL@@XZ PROC ; CTextHorzVertPosition::GetSavedRealTextPositionData, COMDAT
; _this$ = ecx

; 1237 : {

  00000	55		 push	 ebp
  00001	8b ec		 mov	 ebp, esp
  00003	6a ff		 push	 -1
  00005	68 00 00 00 00	 push	 __ehhandler$?GetSavedRealTextPositionData@CTextHorzVertPosition@@MBE?AV?$CStringT@DV?$StrTraitMFC_DLL@DV?$ChTraitsCRT@D@ATL@@@@@ATL@@XZ
  0000a	64 a1 00 00 00
	00		 mov	 eax, DWORD PTR fs:0
  00010	50		 push	 eax
  00011	83 ec 0c	 sub	 esp, 12			; 0000000cH
  00014	53		 push	 ebx
  00015	56		 push	 esi
  00016	57		 push	 edi
  00017	a1 00 00 00 00	 mov	 eax, DWORD PTR ___security_cookie
  0001c	33 c5		 xor	 eax, ebp
  0001e	50		 push	 eax
  0001f	8d 45 f4	 lea	 eax, DWORD PTR __$EHRec$[ebp]
  00022	64 a3 00 00 00
	00		 mov	 DWORD PTR fs:0, eax
  00028	8b f9		 mov	 edi, ecx
  0002a	c7 45 f0 00 00
	00 00		 mov	 DWORD PTR $T10[ebp], 0

; 1238 : 	CString strSaved("<HorzVert>\r\n");

  00031	8b 4d 08	 mov	 ecx, DWORD PTR ___$ReturnUdt$[ebp]
  00034	68 00 00 00 00	 push	 OFFSET ??_C@_0N@ONIGNFDK@?$DMHorzVert?$DO?$AN?6@
  00039	c7 45 fc 00 00
	00 00		 mov	 DWORD PTR __$EHRec$[ebp+8], 0
  00040	ff 15 00 00 00
	00		 call	 DWORD PTR __imp_??0?$CStringT@DV?$StrTraitMFC_DLL@DV?$ChTraitsCRT@D@ATL@@@@@ATL@@QAE@PBD@Z

; 1244 : 	return strSaved;

  00046	68 00 00 00 00	 push	 OFFSET ??_C@_04KPCPLBPL@Left@
  0004b	8d 4d e8	 lea	 ecx, DWORD PTR $T5[ebp]
  0004e	c7 45 fc 00 00
	00 00		 mov	 DWORD PTR __$EHRec$[ebp+8], 0
  00055	c7 45 f0 01 00
	00 00		 mov	 DWORD PTR $T10[ebp], 1
  0005c	ff 15 00 00 00
	00		 call	 DWORD PTR __imp_??0?$CStringT@DV?$StrTraitMFC_DLL@DV?$ChTraitsCRT@D@ATL@@@@@ATL@@QAE@PBD@Z
  00062	8a 5f 08	 mov	 bl, BYTE PTR [edi+8]
  00065	c7 45 fc 01 00
	00 00		 mov	 DWORD PTR __$EHRec$[ebp+8], 1

; 878  : 	CString data;

  0006c	8d 4d ec	 lea	 ecx, DWORD PTR $T9[ebp]

; 1239 : 	strSaved += CTextPosition::GetDataOfOneLine(m_bLeft, "Left");

  0006f	c6 45 fc 02	 mov	 BYTE PTR __$EHRec$[ebp+8], 2

; 878  : 	CString data;

  00073	ff 15 00 00 00
	00		 call	 DWORD PTR __imp_??0?$CStringT@DV?$StrTraitMFC_DLL@DV?$ChTraitsCRT@D@ATL@@@@@ATL@@QAE@XZ

; 879  : 	data.Format("<%s>%d<\\%s>\r\n", strData, bData, strData);

  00079	8b 45 e8	 mov	 eax, DWORD PTR $T5[ebp]
  0007c	8b 35 00 00 00
	00		 mov	 esi, DWORD PTR __imp_?Format@?$CStringT@DV?$StrTraitMFC_DLL@DV?$ChTraitsCRT@D@ATL@@@@@ATL@@QAAXPBDZZ
  00082	50		 push	 eax
  00083	0f b6 cb	 movzx	 ecx, bl
  00086	51		 push	 ecx
  00087	50		 push	 eax
  00088	8d 45 ec	 lea	 eax, DWORD PTR $T9[ebp]

; 880  : 	return data;

  0008b	c7 45 f0 03 00
	00 00		 mov	 DWORD PTR $T10[ebp], 3
  00092	68 00 00 00 00	 push	 OFFSET ??_C@_0O@LNMCLPEF@?$DM?$CFs?$DO?$CFd?$DM?2?$CFs?$DO?$AN?6@
  00097	50		 push	 eax
  00098	ff d6		 call	 esi

; 1239 : 	strSaved += CTextPosition::GetDataOfOneLine(m_bLeft, "Left");

  0009a	8b 4d 08	 mov	 ecx, DWORD PTR ___$ReturnUdt$[ebp]
  0009d	8d 45 ec	 lea	 eax, DWORD PTR $T9[ebp]

; 879  : 	data.Format("<%s>%d<\\%s>\r\n", strData, bData, strData);

  000a0	83 c4 14	 add	 esp, 20			; 00000014H

; 1239 : 	strSaved += CTextPosition::GetDataOfOneLine(m_bLeft, "Left");

  000a3	50		 push	 eax
  000a4	ff 15 00 00 00
	00		 call	 DWORD PTR __imp_??Y?$CStringT@DV?$StrTraitMFC_DLL@DV?$ChTraitsCRT@D@ATL@@@@@ATL@@QAEAAV01@ABV?$CSimpleStringT@D$00@1@@Z
  000aa	8d 4d ec	 lea	 ecx, DWORD PTR $T9[ebp]
  000ad	c7 45 f0 01 00
	00 00		 mov	 DWORD PTR $T10[ebp], 1
  000b4	ff 15 00 00 00
	00		 call	 DWORD PTR __imp_??1?$CStringT@DV?$StrTraitMFC_DLL@DV?$ChTraitsCRT@D@ATL@@@@@ATL@@QAE@XZ
  000ba	8d 4d e8	 lea	 ecx, DWORD PTR $T5[ebp]
  000bd	c6 45 fc 00	 mov	 BYTE PTR __$EHRec$[ebp+8], 0
  000c1	ff 15 00 00 00
	00		 call	 DWORD PTR __imp_??1?$CStringT@DV?$StrTraitMFC_DLL@DV?$ChTraitsCRT@D@ATL@@@@@ATL@@QAE@XZ

; 1240 : 	strSaved += CTextPosition::GetDataOfOneLine(m_bRight, "Right");

  000c7	68 00 00 00 00	 push	 OFFSET ??_C@_05DADPALEM@Right@
  000cc	8d 4d e8	 lea	 ecx, DWORD PTR $T4[ebp]
  000cf	ff 15 00 00 00
	00		 call	 DWORD PTR __imp_??0?$CStringT@DV?$StrTraitMFC_DLL@DV?$ChTraitsCRT@D@ATL@@@@@ATL@@QAE@PBD@Z
  000d5	8a 5f 09	 mov	 bl, BYTE PTR [edi+9]
  000d8	c7 45 fc 03 00
	00 00		 mov	 DWORD PTR __$EHRec$[ebp+8], 3

; 878  : 	CString data;

  000df	8d 4d ec	 lea	 ecx, DWORD PTR $T8[ebp]

; 1240 : 	strSaved += CTextPosition::GetDataOfOneLine(m_bRight, "Right");

  000e2	c6 45 fc 04	 mov	 BYTE PTR __$EHRec$[ebp+8], 4

; 878  : 	CString data;

  000e6	ff 15 00 00 00
	00		 call	 DWORD PTR __imp_??0?$CStringT@DV?$StrTraitMFC_DLL@DV?$ChTraitsCRT@D@ATL@@@@@ATL@@QAE@XZ

; 879  : 	data.Format("<%s>%d<\\%s>\r\n", strData, bData, strData);

  000ec	8b 45 e8	 mov	 eax, DWORD PTR $T4[ebp]
  000ef	50		 push	 eax
  000f0	0f b6 cb	 movzx	 ecx, bl
  000f3	51		 push	 ecx
  000f4	50		 push	 eax
  000f5	8d 45 ec	 lea	 eax, DWORD PTR $T8[ebp]

; 880  : 	return data;

  000f8	c7 45 f0 05 00
	00 00		 mov	 DWORD PTR $T10[ebp], 5
  000ff	68 00 00 00 00	 push	 OFFSET ??_C@_0O@LNMCLPEF@?$DM?$CFs?$DO?$CFd?$DM?2?$CFs?$DO?$AN?6@
  00104	50		 push	 eax
  00105	ff d6		 call	 esi

; 1240 : 	strSaved += CTextPosition::GetDataOfOneLine(m_bRight, "Right");

  00107	8b 4d 08	 mov	 ecx, DWORD PTR ___$ReturnUdt$[ebp]
  0010a	8d 45 ec	 lea	 eax, DWORD PTR $T8[ebp]

; 879  : 	data.Format("<%s>%d<\\%s>\r\n", strData, bData, strData);

  0010d	83 c4 14	 add	 esp, 20			; 00000014H

; 1240 : 	strSaved += CTextPosition::GetDataOfOneLine(m_bRight, "Right");

  00110	50		 push	 eax
  00111	ff 15 00 00 00
	00		 call	 DWORD PTR __imp_??Y?$CStringT@DV?$StrTraitMFC_DLL@DV?$ChTraitsCRT@D@ATL@@@@@ATL@@QAEAAV01@ABV?$CSimpleStringT@D$00@1@@Z
  00117	8d 4d ec	 lea	 ecx, DWORD PTR $T8[ebp]
  0011a	c7 45 f0 01 00
	00 00		 mov	 DWORD PTR $T10[ebp], 1
  00121	ff 15 00 00 00
	00		 call	 DWORD PTR __imp_??1?$CStringT@DV?$StrTraitMFC_DLL@DV?$ChTraitsCRT@D@ATL@@@@@ATL@@QAE@XZ
  00127	8d 4d e8	 lea	 ecx, DWORD PTR $T4[ebp]
  0012a	c6 45 fc 00	 mov	 BYTE PTR __$EHRec$[ebp+8], 0
  0012e	ff 15 00 00 00
	00		 call	 DWORD PTR __imp_??1?$CStringT@DV?$StrTraitMFC_DLL@DV?$ChTraitsCRT@D@ATL@@@@@ATL@@QAE@XZ

; 1241 : 	strSaved += CTextPosition::GetDataOfOneLine(m_bTop, "Top");

  00134	68 00 00 00 00	 push	 OFFSET ??_C@_03PGGAENPN@Top@
  00139	8d 4d e8	 lea	 ecx, DWORD PTR $T3[ebp]
  0013c	ff 15 00 00 00
	00		 call	 DWORD PTR __imp_??0?$CStringT@DV?$StrTraitMFC_DLL@DV?$ChTraitsCRT@D@ATL@@@@@ATL@@QAE@PBD@Z
  00142	8a 5f 0a	 mov	 bl, BYTE PTR [edi+10]
  00145	c7 45 fc 05 00
	00 00		 mov	 DWORD PTR __$EHRec$[ebp+8], 5

; 878  : 	CString data;

  0014c	8d 4d ec	 lea	 ecx, DWORD PTR $T7[ebp]

; 1241 : 	strSaved += CTextPosition::GetDataOfOneLine(m_bTop, "Top");

  0014f	c6 45 fc 06	 mov	 BYTE PTR __$EHRec$[ebp+8], 6

; 878  : 	CString data;

  00153	ff 15 00 00 00
	00		 call	 DWORD PTR __imp_??0?$CStringT@DV?$StrTraitMFC_DLL@DV?$ChTraitsCRT@D@ATL@@@@@ATL@@QAE@XZ

; 879  : 	data.Format("<%s>%d<\\%s>\r\n", strData, bData, strData);

  00159	8b 45 e8	 mov	 eax, DWORD PTR $T3[ebp]
  0015c	50		 push	 eax
  0015d	0f b6 cb	 movzx	 ecx, bl
  00160	51		 push	 ecx
  00161	50		 push	 eax
  00162	8d 45 ec	 lea	 eax, DWORD PTR $T7[ebp]

; 880  : 	return data;

  00165	c7 45 f0 09 00
	00 00		 mov	 DWORD PTR $T10[ebp], 9
  0016c	68 00 00 00 00	 push	 OFFSET ??_C@_0O@LNMCLPEF@?$DM?$CFs?$DO?$CFd?$DM?2?$CFs?$DO?$AN?6@
  00171	50		 push	 eax
  00172	ff d6		 call	 esi

; 1241 : 	strSaved += CTextPosition::GetDataOfOneLine(m_bTop, "Top");

  00174	8b 4d 08	 mov	 ecx, DWORD PTR ___$ReturnUdt$[ebp]
  00177	8d 45 ec	 lea	 eax, DWORD PTR $T7[ebp]

; 879  : 	data.Format("<%s>%d<\\%s>\r\n", strData, bData, strData);

  0017a	83 c4 14	 add	 esp, 20			; 00000014H

; 1241 : 	strSaved += CTextPosition::GetDataOfOneLine(m_bTop, "Top");

  0017d	50		 push	 eax
  0017e	ff 15 00 00 00
	00		 call	 DWORD PTR __imp_??Y?$CStringT@DV?$StrTraitMFC_DLL@DV?$ChTraitsCRT@D@ATL@@@@@ATL@@QAEAAV01@ABV?$CSimpleStringT@D$00@1@@Z
  00184	8d 4d ec	 lea	 ecx, DWORD PTR $T7[ebp]
  00187	c7 45 f0 01 00
	00 00		 mov	 DWORD PTR $T10[ebp], 1
  0018e	ff 15 00 00 00
	00		 call	 DWORD PTR __imp_??1?$CStringT@DV?$StrTraitMFC_DLL@DV?$ChTraitsCRT@D@ATL@@@@@ATL@@QAE@XZ
  00194	8d 4d e8	 lea	 ecx, DWORD PTR $T3[ebp]
  00197	c6 45 fc 00	 mov	 BYTE PTR __$EHRec$[ebp+8], 0
  0019b	ff 15 00 00 00
	00		 call	 DWORD PTR __imp_??1?$CStringT@DV?$StrTraitMFC_DLL@DV?$ChTraitsCRT@D@ATL@@@@@ATL@@QAE@XZ

; 1242 : 	strSaved += CTextPosition::GetDataOfOneLine(m_bBottom, "Bottom");

  001a1	68 00 00 00 00	 push	 OFFSET ??_C@_06DDHCBBGN@Bottom@
  001a6	8d 4d e8	 lea	 ecx, DWORD PTR $T2[ebp]
  001a9	ff 15 00 00 00
	00		 call	 DWORD PTR __imp_??0?$CStringT@DV?$StrTraitMFC_DLL@DV?$ChTraitsCRT@D@ATL@@@@@ATL@@QAE@PBD@Z
  001af	8a 5f 0b	 mov	 bl, BYTE PTR [edi+11]
  001b2	c7 45 fc 07 00
	00 00		 mov	 DWORD PTR __$EHRec$[ebp+8], 7

; 878  : 	CString data;

  001b9	8d 4d ec	 lea	 ecx, DWORD PTR $T6[ebp]

; 1242 : 	strSaved += CTextPosition::GetDataOfOneLine(m_bBottom, "Bottom");

  001bc	c6 45 fc 08	 mov	 BYTE PTR __$EHRec$[ebp+8], 8

; 878  : 	CString data;

  001c0	ff 15 00 00 00
	00		 call	 DWORD PTR __imp_??0?$CStringT@DV?$StrTraitMFC_DLL@DV?$ChTraitsCRT@D@ATL@@@@@ATL@@QAE@XZ

; 879  : 	data.Format("<%s>%d<\\%s>\r\n", strData, bData, strData);

  001c6	8b 45 e8	 mov	 eax, DWORD PTR $T2[ebp]
  001c9	50		 push	 eax
  001ca	0f b6 cb	 movzx	 ecx, bl
  001cd	51		 push	 ecx
  001ce	50		 push	 eax
  001cf	8d 45 ec	 lea	 eax, DWORD PTR $T6[ebp]

; 880  : 	return data;

  001d2	c7 45 f0 11 00
	00 00		 mov	 DWORD PTR $T10[ebp], 17	; 00000011H
  001d9	68 00 00 00 00	 push	 OFFSET ??_C@_0O@LNMCLPEF@?$DM?$CFs?$DO?$CFd?$DM?2?$CFs?$DO?$AN?6@
  001de	50		 push	 eax
  001df	ff d6		 call	 esi

; 1242 : 	strSaved += CTextPosition::GetDataOfOneLine(m_bBottom, "Bottom");

  001e1	8b 5d 08	 mov	 ebx, DWORD PTR ___$ReturnUdt$[ebp]
  001e4	8d 45 ec	 lea	 eax, DWORD PTR $T6[ebp]

; 879  : 	data.Format("<%s>%d<\\%s>\r\n", strData, bData, strData);

  001e7	83 c4 14	 add	 esp, 20			; 00000014H

; 1242 : 	strSaved += CTextPosition::GetDataOfOneLine(m_bBottom, "Bottom");

  001ea	8b cb		 mov	 ecx, ebx
  001ec	50		 push	 eax
  001ed	ff 15 00 00 00
	00		 call	 DWORD PTR __imp_??Y?$CStringT@DV?$StrTraitMFC_DLL@DV?$ChTraitsCRT@D@ATL@@@@@ATL@@QAEAAV01@ABV?$CSimpleStringT@D$00@1@@Z
  001f3	8d 4d ec	 lea	 ecx, DWORD PTR $T6[ebp]
  001f6	c7 45 f0 01 00
	00 00		 mov	 DWORD PTR $T10[ebp], 1
  001fd	ff 15 00 00 00
	00		 call	 DWORD PTR __imp_??1?$CStringT@DV?$StrTraitMFC_DLL@DV?$ChTraitsCRT@D@ATL@@@@@ATL@@QAE@XZ
  00203	8d 4d e8	 lea	 ecx, DWORD PTR $T2[ebp]
  00206	c6 45 fc 00	 mov	 BYTE PTR __$EHRec$[ebp+8], 0
  0020a	ff 15 00 00 00
	00		 call	 DWORD PTR __imp_??1?$CStringT@DV?$StrTraitMFC_DLL@DV?$ChTraitsCRT@D@ATL@@@@@ATL@@QAE@XZ

; 1243 : 	strSaved += "<\\HorzVert>\r\n";

  00210	68 00 00 00 00	 push	 OFFSET ??_C@_0O@LMJJOFLI@?$DM?2HorzVert?$DO?$AN?6@
  00215	8b cb		 mov	 ecx, ebx
  00217	ff 15 00 00 00
	00		 call	 DWORD PTR __imp_??Y?$CStringT@DV?$StrTraitMFC_DLL@DV?$ChTraitsCRT@D@ATL@@@@@ATL@@QAEAAV01@PBD@Z

; 1244 : 	return strSaved;

  0021d	8b c3		 mov	 eax, ebx

; 1245 : }

  0021f	8b 4d f4	 mov	 ecx, DWORD PTR __$EHRec$[ebp]
  00222	64 89 0d 00 00
	00 00		 mov	 DWORD PTR fs:0, ecx
  00229	59		 pop	 ecx
  0022a	5f		 pop	 edi
  0022b	5e		 pop	 esi
  0022c	5b		 pop	 ebx
  0022d	8b e5		 mov	 esp, ebp
  0022f	5d		 pop	 ebp
  00230	c2 04 00	 ret	 4
_TEXT	ENDS
;	COMDAT text$x
text$x	SEGMENT
__unwindfunclet$?GetSavedRealTextPositionData@CTextHorzVertPosition@@MBE?AV?$CStringT@DV?$StrTraitMFC_DLL@DV?$ChTraitsCRT@D@ATL@@@@@ATL@@XZ$0:
  00000	8b 45 f0	 mov	 eax, DWORD PTR $T10[ebp]
  00003	83 e0 01	 and	 eax, 1
  00006	0f 84 0d 00 00
	00		 je	 $LN4@GetSavedRe
  0000c	83 65 f0 fe	 and	 DWORD PTR $T10[ebp], -2	; fffffffeH
  00010	8b 4d 08	 mov	 ecx, DWORD PTR ___$ReturnUdt$[ebp]
  00013	ff 25 00 00 00
	00		 jmp	 DWORD PTR __imp_??1?$CStringT@DV?$StrTraitMFC_DLL@DV?$ChTraitsCRT@D@ATL@@@@@ATL@@QAE@XZ
$LN4@GetSavedRe:
  00019	c3		 ret	 0
__unwindfunclet$?GetSavedRealTextPositionData@CTextHorzVertPosition@@MBE?AV?$CStringT@DV?$StrTraitMFC_DLL@DV?$ChTraitsCRT@D@ATL@@@@@ATL@@XZ$1:
  0001a	8d 4d e8	 lea	 ecx, DWORD PTR $T5[ebp]
  0001d	ff 25 00 00 00
	00		 jmp	 DWORD PTR __imp_??1?$CStringT@DV?$StrTraitMFC_DLL@DV?$ChTraitsCRT@D@ATL@@@@@ATL@@QAE@XZ
__unwindfunclet$?GetSavedRealTextPositionData@CTextHorzVertPosition@@MBE?AV?$CStringT@DV?$StrTraitMFC_DLL@DV?$ChTraitsCRT@D@ATL@@@@@ATL@@XZ$9:
  00023	8b 45 f0	 mov	 eax, DWORD PTR $T10[ebp]
  00026	83 e0 02	 and	 eax, 2
  00029	0f 84 0d 00 00
	00		 je	 $LN16@GetSavedRe
  0002f	83 65 f0 fd	 and	 DWORD PTR $T10[ebp], -3	; fffffffdH
  00033	8d 4d ec	 lea	 ecx, DWORD PTR $T9[ebp]
  00036	ff 25 00 00 00
	00		 jmp	 DWORD PTR __imp_??1?$CStringT@DV?$StrTraitMFC_DLL@DV?$ChTraitsCRT@D@ATL@@@@@ATL@@QAE@XZ
$LN16@GetSavedRe:
  0003c	c3		 ret	 0
__unwindfunclet$?GetSavedRealTextPositionData@CTextHorzVertPosition@@MBE?AV?$CStringT@DV?$StrTraitMFC_DLL@DV?$ChTraitsCRT@D@ATL@@@@@ATL@@XZ$3:
  0003d	8d 4d e8	 lea	 ecx, DWORD PTR $T4[ebp]
  00040	ff 25 00 00 00
	00		 jmp	 DWORD PTR __imp_??1?$CStringT@DV?$StrTraitMFC_DLL@DV?$ChTraitsCRT@D@ATL@@@@@ATL@@QAE@XZ
__unwindfunclet$?GetSavedRealTextPositionData@CTextHorzVertPosition@@MBE?AV?$CStringT@DV?$StrTraitMFC_DLL@DV?$ChTraitsCRT@D@ATL@@@@@ATL@@XZ$10:
  00046	8b 45 f0	 mov	 eax, DWORD PTR $T10[ebp]
  00049	83 e0 04	 and	 eax, 4
  0004c	0f 84 0d 00 00
	00		 je	 $LN20@GetSavedRe
  00052	83 65 f0 fb	 and	 DWORD PTR $T10[ebp], -5	; fffffffbH
  00056	8d 4d ec	 lea	 ecx, DWORD PTR $T8[ebp]
  00059	ff 25 00 00 00
	00		 jmp	 DWORD PTR __imp_??1?$CStringT@DV?$StrTraitMFC_DLL@DV?$ChTraitsCRT@D@ATL@@@@@ATL@@QAE@XZ
$LN20@GetSavedRe:
  0005f	c3		 ret	 0
__unwindfunclet$?GetSavedRealTextPositionData@CTextHorzVertPosition@@MBE?AV?$CStringT@DV?$StrTraitMFC_DLL@DV?$ChTraitsCRT@D@ATL@@@@@ATL@@XZ$5:
  00060	8d 4d e8	 lea	 ecx, DWORD PTR $T3[ebp]
  00063	ff 25 00 00 00
	00		 jmp	 DWORD PTR __imp_??1?$CStringT@DV?$StrTraitMFC_DLL@DV?$ChTraitsCRT@D@ATL@@@@@ATL@@QAE@XZ
__unwindfunclet$?GetSavedRealTextPositionData@CTextHorzVertPosition@@MBE?AV?$CStringT@DV?$StrTraitMFC_DLL@DV?$ChTraitsCRT@D@ATL@@@@@ATL@@XZ$11:
  00069	8b 45 f0	 mov	 eax, DWORD PTR $T10[ebp]
  0006c	83 e0 08	 and	 eax, 8
  0006f	0f 84 0d 00 00
	00		 je	 $LN24@GetSavedRe
  00075	83 65 f0 f7	 and	 DWORD PTR $T10[ebp], -9	; fffffff7H
  00079	8d 4d ec	 lea	 ecx, DWORD PTR $T7[ebp]
  0007c	ff 25 00 00 00
	00		 jmp	 DWORD PTR __imp_??1?$CStringT@DV?$StrTraitMFC_DLL@DV?$ChTraitsCRT@D@ATL@@@@@ATL@@QAE@XZ
$LN24@GetSavedRe:
  00082	c3		 ret	 0
__unwindfunclet$?GetSavedRealTextPositionData@CTextHorzVertPosition@@MBE?AV?$CStringT@DV?$StrTraitMFC_DLL@DV?$ChTraitsCRT@D@ATL@@@@@ATL@@XZ$7:
  00083	8d 4d e8	 lea	 ecx, DWORD PTR $T2[ebp]
  00086	ff 25 00 00 00
	00		 jmp	 DWORD PTR __imp_??1?$CStringT@DV?$StrTraitMFC_DLL@DV?$ChTraitsCRT@D@ATL@@@@@ATL@@QAE@XZ
__unwindfunclet$?GetSavedRealTextPositionData@CTextHorzVertPosition@@MBE?AV?$CStringT@DV?$StrTraitMFC_DLL@DV?$ChTraitsCRT@D@ATL@@@@@ATL@@XZ$12:
  0008c	8b 45 f0	 mov	 eax, DWORD PTR $T10[ebp]
  0008f	83 e0 10	 and	 eax, 16			; 00000010H
  00092	0f 84 0d 00 00
	00		 je	 $LN28@GetSavedRe
  00098	83 65 f0 ef	 and	 DWORD PTR $T10[ebp], -17 ; ffffffefH
  0009c	8d 4d ec	 lea	 ecx, DWORD PTR $T6[ebp]
  0009f	ff 25 00 00 00
	00		 jmp	 DWORD PTR __imp_??1?$CStringT@DV?$StrTraitMFC_DLL@DV?$ChTraitsCRT@D@ATL@@@@@ATL@@QAE@XZ
$LN28@GetSavedRe:
  000a5	c3		 ret	 0
  000a6	cc		 int	 3
  000a7	cc		 int	 3
  000a8	cc		 int	 3
  000a9	cc		 int	 3
  000aa	cc		 int	 3
__ehhandler$?GetSavedRealTextPositionData@CTextHorzVertPosition@@MBE?AV?$CStringT@DV?$StrTraitMFC_DLL@DV?$ChTraitsCRT@D@ATL@@@@@ATL@@XZ:
  000ab	90		 npad	 1
  000ac	90		 npad	 1
  000ad	8b 54 24 08	 mov	 edx, DWORD PTR [esp+8]
  000b1	8d 42 0c	 lea	 eax, DWORD PTR [edx+12]
  000b4	8b 4a e4	 mov	 ecx, DWORD PTR [edx-28]
  000b7	33 c8		 xor	 ecx, eax
  000b9	e8 00 00 00 00	 call	 @__security_check_cookie@4
  000be	b8 00 00 00 00	 mov	 eax, OFFSET __ehfuncinfo$?GetSavedRealTextPositionData@CTextHorzVertPosition@@MBE?AV?$CStringT@DV?$StrTraitMFC_DLL@DV?$ChTraitsCRT@D@ATL@@@@@ATL@@XZ
  000c3	e9 00 00 00 00	 jmp	 ___CxxFrameHandler3
text$x	ENDS
?GetSavedRealTextPositionData@CTextHorzVertPosition@@MBE?AV?$CStringT@DV?$StrTraitMFC_DLL@DV?$ChTraitsCRT@D@ATL@@@@@ATL@@XZ ENDP ; CTextHorzVertPosition::GetSavedRealTextPositionData
; Function compile flags: /Ogtp
; File D:\git\src\IBK\IBK_DRFN\ProjSrc\SrcChartEx\ChartAddIn\ChartAnalysisToolAddIn\Include_Analysis\ElementEnvironment.cpp
;	COMDAT ?GetVert@CTextHorzVertPosition@@QBE?AVCTextVertPosition@@XZ
_TEXT	SEGMENT
___$ReturnUdt$ = 8					; size = 4
?GetVert@CTextHorzVertPosition@@QBE?AVCTextVertPosition@@XZ PROC ; CTextHorzVertPosition::GetVert, COMDAT
; _this$ = ecx

; 1224 : {

  00000	55		 push	 ebp
  00001	8b ec		 mov	 ebp, esp

; 765  : 	m_color = environment.GetColor();

  00003	8b 45 08	 mov	 eax, DWORD PTR ___$ReturnUdt$[ebp]
  00006	8b 51 04	 mov	 edx, DWORD PTR [ecx+4]

; 1224 : {

  00009	53		 push	 ebx

; 1225 : 	return CTextVertPosition(CTextPosition::GetTextEnvironment(), m_bTop, m_bBottom);

  0000a	8a 59 0b	 mov	 bl, BYTE PTR [ecx+11]
  0000d	8a 49 0a	 mov	 cl, BYTE PTR [ecx+10]

; 1063 : 	m_bBottom(bBottom)

  00010	88 58 09	 mov	 BYTE PTR [eax+9], bl

; 765  : 	m_color = environment.GetColor();

  00013	89 50 04	 mov	 DWORD PTR [eax+4], edx

; 1064 : {

  00016	c7 00 00 00 00
	00		 mov	 DWORD PTR [eax], OFFSET ??_7CTextVertPosition@@6B@

; 766  : }
; 767  : 
; 768  : CTextEnvironment::CTextEnvironment(CTextEnvironment* pEnvironment)
; 769  : {
; 770  : 	if(pEnvironment == NULL)
; 771  : 		return;
; 772  : 
; 773  : 	m_color = pEnvironment->GetColor();
; 774  : }
; 775  : 
; 776  : 
; 777  : // public =====================================================================
; 778  : void CTextEnvironment::Set(const CTextEnvironment& environment)
; 779  : {
; 780  : 	m_color = environment.GetColor();
; 781  : }
; 782  : 
; 783  : void CTextEnvironment::SetColor(const COLORREF& color)
; 784  : {
; 785  : 	m_color = color;
; 786  : }
; 787  : 
; 788  : // ----------------------------------------------------------------------------
; 789  : COLORREF CTextEnvironment::GetColor() const
; 790  : {
; 791  : 	return m_color;
; 792  : }
; 793  : 
; 794  : // <TextEnvironment>
; 795  : // <Color>0,0,0<\\Color>
; 796  : // <\\TextEnvironment>
; 797  : CString CTextEnvironment::GetSavedData() const
; 798  : {
; 799  : 	CString strSaved;
; 800  : 	strSaved.Format("<TextEnvironment>\r\n%s<\\TextEnvironment>\r\n", GetSavedColor());
; 801  : 	return strSaved;
; 802  : }
; 803  : 
; 804  : 
; 805  : // private ====================================================================
; 806  : CString CTextEnvironment::GetSavedColor() const
; 807  : {
; 808  : 	return ("<Color>" + CDataConversion::RGB2Str(m_color) + "<\\Color>\r\n");
; 809  : }
; 810  : 
; 811  : 
; 812  : ///////////////////////////////////////////////////////////////////////////////
; 813  : // class CTextPosition
; 814  : 
; 815  : CTextPosition& CTextPosition::operator=(const CTextPosition& environment)
; 816  : {
; 817  : 	if(this == &environment)
; 818  : 		return *this;
; 819  : 
; 820  : 	m_textEnvironment = environment.GetTextEnvironment();
; 821  : 	return *this;
; 822  : }
; 823  : 
; 824  : // ----------------------------------------------------------------------------
; 825  : CTextPosition::CTextPosition()
; 826  : {
; 827  : }
; 828  : 
; 829  : CTextPosition::CTextPosition(const CTextEnvironment& textEnvironment):
; 830  : 	m_textEnvironment(textEnvironment)
; 831  : {
; 832  : }
; 833  : 
; 834  : // public =====================================================================
; 835  : void CTextPosition::Set(const CTextPosition* pTextPosition)
; 836  : {
; 837  : 	if(pTextPosition == NULL)
; 838  : 		return;
; 839  : 	SetTextEnvironment(pTextPosition->GetTextEnvironment());
; 840  : }
; 841  : 
; 842  : void CTextPosition::SetTextEnvironment(const CTextEnvironment& textEnvironment)
; 843  : {
; 844  : 	m_textEnvironment = textEnvironment;
; 845  : }
; 846  : 
; 847  : // ----------------------------------------------------------------------------
; 848  : CTextEnvironment CTextPosition::GetTextEnvironment() const
; 849  : {
; 850  : 	return m_textEnvironment;
; 851  : }
; 852  : 
; 853  : CTextEnvironment& CTextPosition::GetTextEnvironment()
; 854  : {
; 855  : 	return m_textEnvironment;
; 856  : }
; 857  : 
; 858  : // <PartEnvironment>
; 859  : // <TextEnvironment>
; 860  : // <Color>0,0,0<\\Color>
; 861  : // <\\TextEnvironment>
; 862  : // <TextPosition>
; 863  : // ...
; 864  : // <\\TextPosition>
; 865  : // <\\PartEnvironment>
; 866  : CString CTextPosition::GetSavedData() const
; 867  : {
; 868  : 	CString strSaved;
; 869  : 	strSaved.Format("<PartEnvironment>\r\n%s%s<\\PartEnvironment>\r\n", 
; 870  : 		m_textEnvironment.GetSavedData(), GetSavedData_TextPosition());
; 871  : 	return strSaved;
; 872  : }
; 873  : 
; 874  : 
; 875  : // protected ==================================================================
; 876  : CString CTextPosition::GetDataOfOneLine(const bool bData, const CString& strData) const
; 877  : {
; 878  : 	CString data;
; 879  : 	data.Format("<%s>%d<\\%s>\r\n", strData, bData, strData);
; 880  : 	return data;
; 881  : }
; 882  : 
; 883  : // private ====================================================================
; 884  : // <TextPosition>
; 885  : // <Horz>
; 886  : // <Show>0<\\Show>
; 887  : // <\\Horz>
; 888  : // <Horz>
; 889  : // <Left>0<\\Left>
; 890  : // <Right>0<\\Right>
; 891  : // <\\Horz>
; 892  : // <Vert>
; 893  : // <Top>0<\\Top>
; 894  : // <Bottom>0<\\Bottom>
; 895  : // <\\Vert>
; 896  : // <\\TextPosition>
; 897  : CString CTextPosition::GetSavedData_TextPosition() const
; 898  : {
; 899  : 	CString strSaved;
; 900  : 	strSaved.Format("<TextPosition>\r\n%s<\\TextPosition>\r\n", 
; 901  : 		GetSavedRealTextPositionData());
; 902  : 	return strSaved;
; 903  : }
; 904  : 
; 905  : 
; 906  : ///////////////////////////////////////////////////////////////////////////////
; 907  : // class CTextShowPosition
; 908  : 
; 909  : CTextShowPosition::CTextShowPosition():
; 910  : 	m_bShow(true)
; 911  : {
; 912  : }
; 913  : 
; 914  : CTextShowPosition::CTextShowPosition(const CTextEnvironment& environment, const bool bShow):
; 915  : 	CTextPosition(environment), 
; 916  : 	m_bShow(bShow)
; 917  : {
; 918  : }
; 919  : 
; 920  : CTextShowPosition::CTextShowPosition(const CTextShowPosition& position):
; 921  : 	CTextPosition(position.GetTextEnvironment()), 
; 922  : 	m_bShow(position.IsShow())
; 923  : {
; 924  : }
; 925  : 
; 926  : 
; 927  : // public =====================================================================
; 928  : void CTextShowPosition::Set(const CTextPosition* pTextPosition)
; 929  : {
; 930  : 	if(pTextPosition == NULL)
; 931  : 		return;
; 932  : 
; 933  : 	CTextShowPosition* pTextShowPosition = (CTextShowPosition*) pTextPosition;
; 934  : 	assert(pTextShowPosition != NULL);
; 935  : 	SetShow(pTextShowPosition->IsShow());
; 936  : 
; 937  : 	CTextPosition::Set(pTextPosition);
; 938  : }
; 939  : 
; 940  : void CTextShowPosition::SetShow(const bool bShow)
; 941  : {
; 942  : 	m_bShow = bShow;
; 943  : }
; 944  : 
; 945  : bool CTextShowPosition::IsShow() const
; 946  : {
; 947  : 	return m_bShow;
; 948  : }
; 949  : 
; 950  : // protected ==================================================================
; 951  : // <Horz>
; 952  : // <Show>0<\\Show>
; 953  : // <\\Horz>
; 954  : CString CTextShowPosition::GetSavedRealTextPositionData() const
; 955  : {
; 956  : 	CString strSaved;
; 957  : 	strSaved.Format("<Horz>\r\n%s<\\Horz>\r\n", 
; 958  : 		CTextPosition::GetDataOfOneLine(m_bShow, "Show"));// 2008.08.20    
; 959  : 	return strSaved;
; 960  : }
; 961  : 
; 962  : 
; 963  : ///////////////////////////////////////////////////////////////////////////////
; 964  : // class CTextHorzPosition
; 965  : 
; 966  : CTextHorzPosition::CTextHorzPosition():
; 967  : 	m_bLeft(true),
; 968  : 	m_bRight(true)
; 969  : {
; 970  : }
; 971  : 
; 972  : CTextHorzPosition::CTextHorzPosition(const CTextEnvironment& environment, const bool bLeft, const bool bRight, const bool bRightRate):
; 973  : 	CTextPosition(environment), 
; 974  : 	m_bLeft(bLeft),
; 975  : 	m_bRight(bRight),
; 976  : 	m_bRightRate(bRightRate)
; 977  : {
; 978  : }
; 979  : 
; 980  : CTextHorzPosition::CTextHorzPosition(const CTextHorzPosition& position):
; 981  : 	CTextPosition(position.GetTextEnvironment()), 
; 982  : 	m_bLeft(position.GetLeft()),
; 983  : 	m_bRight(position.GetRight()),
; 984  : 	m_bRightRate(position.GetRightRate())
; 985  : {
; 986  : }
; 987  : 
; 988  : 
; 989  : // public =====================================================================
; 990  : void CTextHorzPosition::Set(const CTextPosition* pTextPosition)
; 991  : {
; 992  : 	if(pTextPosition == NULL)
; 993  : 		return;
; 994  : 
; 995  : 	CTextHorzPosition* pTextHorzPosition = (CTextHorzPosition*) pTextPosition;
; 996  : 	assert(pTextHorzPosition != NULL);
; 997  : 	SetLeft(pTextHorzPosition->GetLeft());
; 998  : 	SetRight(pTextHorzPosition->GetRight());
; 999  : 	SetRightRate(pTextHorzPosition->GetRightRate());
; 1000 : 
; 1001 : 	CTextPosition::Set(pTextPosition);
; 1002 : }
; 1003 : 
; 1004 : void CTextHorzPosition::SetLeft(const bool bLeft)
; 1005 : {
; 1006 : 	m_bLeft = bLeft;
; 1007 : }
; 1008 : 
; 1009 : void CTextHorzPosition::SetRight(const bool bRight)
; 1010 : {
; 1011 : 	m_bRight = bRight;
; 1012 : }
; 1013 : 
; 1014 : void CTextHorzPosition::SetRightRate(const bool bValue)
; 1015 : {
; 1016 : 	m_bRightRate = bValue;
; 1017 : }
; 1018 : 
; 1019 : bool CTextHorzPosition::GetLeft() const
; 1020 : {
; 1021 : 	return m_bLeft;
; 1022 : }
; 1023 : 
; 1024 : bool CTextHorzPosition::GetRight() const
; 1025 : {
; 1026 : 	return m_bRight;
; 1027 : }
; 1028 : 
; 1029 : bool CTextHorzPosition::GetRightRate() const
; 1030 : {
; 1031 : 	return m_bRightRate;
; 1032 : }
; 1033 : 
; 1034 : // protected ==================================================================
; 1035 : // <Horz>
; 1036 : // <Left>0<\\Left>
; 1037 : // <Right>0<\\Right>
; 1038 : // <Rate>0<\\Rate>
; 1039 : // <\\Horz>
; 1040 : CString CTextHorzPosition::GetSavedRealTextPositionData() const
; 1041 : {
; 1042 : 	CString strSaved;
; 1043 : 	strSaved.Format("<Horz>\r\n%s%s%s<\\Horz>\r\n", 
; 1044 : 		CTextPosition::GetDataOfOneLine(m_bLeft, "Left"), 
; 1045 : 		CTextPosition::GetDataOfOneLine(m_bRight, "Right"),
; 1046 : 		CTextPosition::GetDataOfOneLine(m_bRightRate, "Rate"));
; 1047 : 	return strSaved;
; 1048 : }
; 1049 : 
; 1050 : 
; 1051 : ///////////////////////////////////////////////////////////////////////////////
; 1052 : // class CTextVertPosition
; 1053 : 
; 1054 : CTextVertPosition::CTextVertPosition():
; 1055 : 	m_bTop(true),
; 1056 : 	m_bBottom(true)
; 1057 : {
; 1058 : }
; 1059 : 
; 1060 : CTextVertPosition::CTextVertPosition(const CTextEnvironment& environment, const bool bTop, const bool bBottom):
; 1061 : 	CTextPosition(environment), 
; 1062 : 	m_bTop(bTop),

  0001c	88 48 08	 mov	 BYTE PTR [eax+8], cl

; 1225 : 	return CTextVertPosition(CTextPosition::GetTextEnvironment(), m_bTop, m_bBottom);

  0001f	5b		 pop	 ebx

; 1226 : }

  00020	5d		 pop	 ebp
  00021	c2 04 00	 ret	 4
?GetVert@CTextHorzVertPosition@@QBE?AVCTextVertPosition@@XZ ENDP ; CTextHorzVertPosition::GetVert
_TEXT	ENDS
; Function compile flags: /Ogtp
; File D:\git\src\IBK\IBK_DRFN\ProjSrc\SrcChartEx\ChartAddIn\ChartAnalysisToolAddIn\Include_Analysis\ElementEnvironment.cpp
;	COMDAT ?GetHorz@CTextHorzVertPosition@@QBE?AVCTextHorzPosition@@XZ
_TEXT	SEGMENT
___$ReturnUdt$ = 8					; size = 4
?GetHorz@CTextHorzVertPosition@@QBE?AVCTextHorzPosition@@XZ PROC ; CTextHorzVertPosition::GetHorz, COMDAT
; _this$ = ecx

; 1219 : {

  00000	55		 push	 ebp
  00001	8b ec		 mov	 ebp, esp

; 765  : 	m_color = environment.GetColor();

  00003	8b 45 08	 mov	 eax, DWORD PTR ___$ReturnUdt$[ebp]
  00006	8b 51 04	 mov	 edx, DWORD PTR [ecx+4]

; 1219 : {

  00009	53		 push	 ebx

; 1220 : 	return CTextHorzPosition(CTextPosition::GetTextEnvironment(), m_bLeft, m_bRight);

  0000a	8a 59 09	 mov	 bl, BYTE PTR [ecx+9]
  0000d	8a 49 08	 mov	 cl, BYTE PTR [ecx+8]

; 975  : 	m_bRight(bRight),

  00010	88 58 09	 mov	 BYTE PTR [eax+9], bl

; 765  : 	m_color = environment.GetColor();

  00013	89 50 04	 mov	 DWORD PTR [eax+4], edx

; 977  : {

  00016	c7 00 00 00 00
	00		 mov	 DWORD PTR [eax], OFFSET ??_7CTextHorzPosition@@6B@

; 766  : }
; 767  : 
; 768  : CTextEnvironment::CTextEnvironment(CTextEnvironment* pEnvironment)
; 769  : {
; 770  : 	if(pEnvironment == NULL)
; 771  : 		return;
; 772  : 
; 773  : 	m_color = pEnvironment->GetColor();
; 774  : }
; 775  : 
; 776  : 
; 777  : // public =====================================================================
; 778  : void CTextEnvironment::Set(const CTextEnvironment& environment)
; 779  : {
; 780  : 	m_color = environment.GetColor();
; 781  : }
; 782  : 
; 783  : void CTextEnvironment::SetColor(const COLORREF& color)
; 784  : {
; 785  : 	m_color = color;
; 786  : }
; 787  : 
; 788  : // ----------------------------------------------------------------------------
; 789  : COLORREF CTextEnvironment::GetColor() const
; 790  : {
; 791  : 	return m_color;
; 792  : }
; 793  : 
; 794  : // <TextEnvironment>
; 795  : // <Color>0,0,0<\\Color>
; 796  : // <\\TextEnvironment>
; 797  : CString CTextEnvironment::GetSavedData() const
; 798  : {
; 799  : 	CString strSaved;
; 800  : 	strSaved.Format("<TextEnvironment>\r\n%s<\\TextEnvironment>\r\n", GetSavedColor());
; 801  : 	return strSaved;
; 802  : }
; 803  : 
; 804  : 
; 805  : // private ====================================================================
; 806  : CString CTextEnvironment::GetSavedColor() const
; 807  : {
; 808  : 	return ("<Color>" + CDataConversion::RGB2Str(m_color) + "<\\Color>\r\n");
; 809  : }
; 810  : 
; 811  : 
; 812  : ///////////////////////////////////////////////////////////////////////////////
; 813  : // class CTextPosition
; 814  : 
; 815  : CTextPosition& CTextPosition::operator=(const CTextPosition& environment)
; 816  : {
; 817  : 	if(this == &environment)
; 818  : 		return *this;
; 819  : 
; 820  : 	m_textEnvironment = environment.GetTextEnvironment();
; 821  : 	return *this;
; 822  : }
; 823  : 
; 824  : // ----------------------------------------------------------------------------
; 825  : CTextPosition::CTextPosition()
; 826  : {
; 827  : }
; 828  : 
; 829  : CTextPosition::CTextPosition(const CTextEnvironment& textEnvironment):
; 830  : 	m_textEnvironment(textEnvironment)
; 831  : {
; 832  : }
; 833  : 
; 834  : // public =====================================================================
; 835  : void CTextPosition::Set(const CTextPosition* pTextPosition)
; 836  : {
; 837  : 	if(pTextPosition == NULL)
; 838  : 		return;
; 839  : 	SetTextEnvironment(pTextPosition->GetTextEnvironment());
; 840  : }
; 841  : 
; 842  : void CTextPosition::SetTextEnvironment(const CTextEnvironment& textEnvironment)
; 843  : {
; 844  : 	m_textEnvironment = textEnvironment;
; 845  : }
; 846  : 
; 847  : // ----------------------------------------------------------------------------
; 848  : CTextEnvironment CTextPosition::GetTextEnvironment() const
; 849  : {
; 850  : 	return m_textEnvironment;
; 851  : }
; 852  : 
; 853  : CTextEnvironment& CTextPosition::GetTextEnvironment()
; 854  : {
; 855  : 	return m_textEnvironment;
; 856  : }
; 857  : 
; 858  : // <PartEnvironment>
; 859  : // <TextEnvironment>
; 860  : // <Color>0,0,0<\\Color>
; 861  : // <\\TextEnvironment>
; 862  : // <TextPosition>
; 863  : // ...
; 864  : // <\\TextPosition>
; 865  : // <\\PartEnvironment>
; 866  : CString CTextPosition::GetSavedData() const
; 867  : {
; 868  : 	CString strSaved;
; 869  : 	strSaved.Format("<PartEnvironment>\r\n%s%s<\\PartEnvironment>\r\n", 
; 870  : 		m_textEnvironment.GetSavedData(), GetSavedData_TextPosition());
; 871  : 	return strSaved;
; 872  : }
; 873  : 
; 874  : 
; 875  : // protected ==================================================================
; 876  : CString CTextPosition::GetDataOfOneLine(const bool bData, const CString& strData) const
; 877  : {
; 878  : 	CString data;
; 879  : 	data.Format("<%s>%d<\\%s>\r\n", strData, bData, strData);
; 880  : 	return data;
; 881  : }
; 882  : 
; 883  : // private ====================================================================
; 884  : // <TextPosition>
; 885  : // <Horz>
; 886  : // <Show>0<\\Show>
; 887  : // <\\Horz>
; 888  : // <Horz>
; 889  : // <Left>0<\\Left>
; 890  : // <Right>0<\\Right>
; 891  : // <\\Horz>
; 892  : // <Vert>
; 893  : // <Top>0<\\Top>
; 894  : // <Bottom>0<\\Bottom>
; 895  : // <\\Vert>
; 896  : // <\\TextPosition>
; 897  : CString CTextPosition::GetSavedData_TextPosition() const
; 898  : {
; 899  : 	CString strSaved;
; 900  : 	strSaved.Format("<TextPosition>\r\n%s<\\TextPosition>\r\n", 
; 901  : 		GetSavedRealTextPositionData());
; 902  : 	return strSaved;
; 903  : }
; 904  : 
; 905  : 
; 906  : ///////////////////////////////////////////////////////////////////////////////
; 907  : // class CTextShowPosition
; 908  : 
; 909  : CTextShowPosition::CTextShowPosition():
; 910  : 	m_bShow(true)
; 911  : {
; 912  : }
; 913  : 
; 914  : CTextShowPosition::CTextShowPosition(const CTextEnvironment& environment, const bool bShow):
; 915  : 	CTextPosition(environment), 
; 916  : 	m_bShow(bShow)
; 917  : {
; 918  : }
; 919  : 
; 920  : CTextShowPosition::CTextShowPosition(const CTextShowPosition& position):
; 921  : 	CTextPosition(position.GetTextEnvironment()), 
; 922  : 	m_bShow(position.IsShow())
; 923  : {
; 924  : }
; 925  : 
; 926  : 
; 927  : // public =====================================================================
; 928  : void CTextShowPosition::Set(const CTextPosition* pTextPosition)
; 929  : {
; 930  : 	if(pTextPosition == NULL)
; 931  : 		return;
; 932  : 
; 933  : 	CTextShowPosition* pTextShowPosition = (CTextShowPosition*) pTextPosition;
; 934  : 	assert(pTextShowPosition != NULL);
; 935  : 	SetShow(pTextShowPosition->IsShow());
; 936  : 
; 937  : 	CTextPosition::Set(pTextPosition);
; 938  : }
; 939  : 
; 940  : void CTextShowPosition::SetShow(const bool bShow)
; 941  : {
; 942  : 	m_bShow = bShow;
; 943  : }
; 944  : 
; 945  : bool CTextShowPosition::IsShow() const
; 946  : {
; 947  : 	return m_bShow;
; 948  : }
; 949  : 
; 950  : // protected ==================================================================
; 951  : // <Horz>
; 952  : // <Show>0<\\Show>
; 953  : // <\\Horz>
; 954  : CString CTextShowPosition::GetSavedRealTextPositionData() const
; 955  : {
; 956  : 	CString strSaved;
; 957  : 	strSaved.Format("<Horz>\r\n%s<\\Horz>\r\n", 
; 958  : 		CTextPosition::GetDataOfOneLine(m_bShow, "Show"));// 2008.08.20    
; 959  : 	return strSaved;
; 960  : }
; 961  : 
; 962  : 
; 963  : ///////////////////////////////////////////////////////////////////////////////
; 964  : // class CTextHorzPosition
; 965  : 
; 966  : CTextHorzPosition::CTextHorzPosition():
; 967  : 	m_bLeft(true),
; 968  : 	m_bRight(true)
; 969  : {
; 970  : }
; 971  : 
; 972  : CTextHorzPosition::CTextHorzPosition(const CTextEnvironment& environment, const bool bLeft, const bool bRight, const bool bRightRate):
; 973  : 	CTextPosition(environment), 
; 974  : 	m_bLeft(bLeft),

  0001c	88 48 08	 mov	 BYTE PTR [eax+8], cl

; 976  : 	m_bRightRate(bRightRate)

  0001f	c6 40 0a 01	 mov	 BYTE PTR [eax+10], 1

; 1220 : 	return CTextHorzPosition(CTextPosition::GetTextEnvironment(), m_bLeft, m_bRight);

  00023	5b		 pop	 ebx

; 1221 : }

  00024	5d		 pop	 ebp
  00025	c2 04 00	 ret	 4
?GetHorz@CTextHorzVertPosition@@QBE?AVCTextHorzPosition@@XZ ENDP ; CTextHorzVertPosition::GetHorz
_TEXT	ENDS
; Function compile flags: /Ogtp
; File D:\git\src\IBK\IBK_DRFN\ProjSrc\SrcChartEx\ChartAddIn\ChartAnalysisToolAddIn\Include_Analysis\ElementEnvironment.cpp
;	COMDAT ?GetBottom@CTextHorzVertPosition@@QBE_NXZ
_TEXT	SEGMENT
?GetBottom@CTextHorzVertPosition@@QBE_NXZ PROC		; CTextHorzVertPosition::GetBottom, COMDAT
; _this$ = ecx

; 1214 : 	return m_bBottom;

  00000	8a 41 0b	 mov	 al, BYTE PTR [ecx+11]

; 1215 : }

  00003	c3		 ret	 0
?GetBottom@CTextHorzVertPosition@@QBE_NXZ ENDP		; CTextHorzVertPosition::GetBottom
_TEXT	ENDS
; Function compile flags: /Ogtp
; File D:\git\src\IBK\IBK_DRFN\ProjSrc\SrcChartEx\ChartAddIn\ChartAnalysisToolAddIn\Include_Analysis\ElementEnvironment.cpp
;	COMDAT ?GetTop@CTextHorzVertPosition@@QBE_NXZ
_TEXT	SEGMENT
?GetTop@CTextHorzVertPosition@@QBE_NXZ PROC		; CTextHorzVertPosition::GetTop, COMDAT
; _this$ = ecx

; 1209 : 	return m_bTop;

  00000	8a 41 0a	 mov	 al, BYTE PTR [ecx+10]

; 1210 : }

  00003	c3		 ret	 0
?GetTop@CTextHorzVertPosition@@QBE_NXZ ENDP		; CTextHorzVertPosition::GetTop
_TEXT	ENDS
; Function compile flags: /Ogtp
; File D:\git\src\IBK\IBK_DRFN\ProjSrc\SrcChartEx\ChartAddIn\ChartAnalysisToolAddIn\Include_Analysis\ElementEnvironment.cpp
;	COMDAT ?GetRight@CTextHorzVertPosition@@QBE_NXZ
_TEXT	SEGMENT
?GetRight@CTextHorzVertPosition@@QBE_NXZ PROC		; CTextHorzVertPosition::GetRight, COMDAT
; _this$ = ecx

; 1204 : 	return m_bRight;

  00000	8a 41 09	 mov	 al, BYTE PTR [ecx+9]

; 1205 : }

  00003	c3		 ret	 0
?GetRight@CTextHorzVertPosition@@QBE_NXZ ENDP		; CTextHorzVertPosition::GetRight
_TEXT	ENDS
; Function compile flags: /Ogtp
; File D:\git\src\IBK\IBK_DRFN\ProjSrc\SrcChartEx\ChartAddIn\ChartAnalysisToolAddIn\Include_Analysis\ElementEnvironment.cpp
;	COMDAT ?GetLeft@CTextHorzVertPosition@@QBE_NXZ
_TEXT	SEGMENT
?GetLeft@CTextHorzVertPosition@@QBE_NXZ PROC		; CTextHorzVertPosition::GetLeft, COMDAT
; _this$ = ecx

; 1199 : 	return m_bLeft;

  00000	8a 41 08	 mov	 al, BYTE PTR [ecx+8]

; 1200 : }

  00003	c3		 ret	 0
?GetLeft@CTextHorzVertPosition@@QBE_NXZ ENDP		; CTextHorzVertPosition::GetLeft
_TEXT	ENDS
; Function compile flags: /Ogtp
; File D:\git\src\IBK\IBK_DRFN\ProjSrc\SrcChartEx\ChartAddIn\ChartAnalysisToolAddIn\Include_Analysis\ElementEnvironment.cpp
;	COMDAT ?SetBottom@CTextHorzVertPosition@@QAEX_N@Z
_TEXT	SEGMENT
_bBottom$ = 8						; size = 1
?SetBottom@CTextHorzVertPosition@@QAEX_N@Z PROC		; CTextHorzVertPosition::SetBottom, COMDAT
; _this$ = ecx

; 1192 : {

  00000	55		 push	 ebp
  00001	8b ec		 mov	 ebp, esp

; 1193 : 	m_bBottom = bBottom;

  00003	8a 45 08	 mov	 al, BYTE PTR _bBottom$[ebp]
  00006	88 41 0b	 mov	 BYTE PTR [ecx+11], al

; 1194 : }

  00009	5d		 pop	 ebp
  0000a	c2 04 00	 ret	 4
?SetBottom@CTextHorzVertPosition@@QAEX_N@Z ENDP		; CTextHorzVertPosition::SetBottom
_TEXT	ENDS
; Function compile flags: /Ogtp
; File D:\git\src\IBK\IBK_DRFN\ProjSrc\SrcChartEx\ChartAddIn\ChartAnalysisToolAddIn\Include_Analysis\ElementEnvironment.cpp
;	COMDAT ?SetTop@CTextHorzVertPosition@@QAEX_N@Z
_TEXT	SEGMENT
_bTop$ = 8						; size = 1
?SetTop@CTextHorzVertPosition@@QAEX_N@Z PROC		; CTextHorzVertPosition::SetTop, COMDAT
; _this$ = ecx

; 1187 : {

  00000	55		 push	 ebp
  00001	8b ec		 mov	 ebp, esp

; 1188 : 	m_bTop = bTop;

  00003	8a 45 08	 mov	 al, BYTE PTR _bTop$[ebp]
  00006	88 41 0a	 mov	 BYTE PTR [ecx+10], al

; 1189 : }

  00009	5d		 pop	 ebp
  0000a	c2 04 00	 ret	 4
?SetTop@CTextHorzVertPosition@@QAEX_N@Z ENDP		; CTextHorzVertPosition::SetTop
_TEXT	ENDS
; Function compile flags: /Ogtp
; File D:\git\src\IBK\IBK_DRFN\ProjSrc\SrcChartEx\ChartAddIn\ChartAnalysisToolAddIn\Include_Analysis\ElementEnvironment.cpp
;	COMDAT ?SetRight@CTextHorzVertPosition@@QAEX_N@Z
_TEXT	SEGMENT
_bRight$ = 8						; size = 1
?SetRight@CTextHorzVertPosition@@QAEX_N@Z PROC		; CTextHorzVertPosition::SetRight, COMDAT
; _this$ = ecx

; 1182 : {

  00000	55		 push	 ebp
  00001	8b ec		 mov	 ebp, esp

; 1183 : 	m_bRight = bRight;

  00003	8a 45 08	 mov	 al, BYTE PTR _bRight$[ebp]
  00006	88 41 09	 mov	 BYTE PTR [ecx+9], al

; 1184 : }

  00009	5d		 pop	 ebp
  0000a	c2 04 00	 ret	 4
?SetRight@CTextHorzVertPosition@@QAEX_N@Z ENDP		; CTextHorzVertPosition::SetRight
_TEXT	ENDS
; Function compile flags: /Ogtp
; File D:\git\src\IBK\IBK_DRFN\ProjSrc\SrcChartEx\ChartAddIn\ChartAnalysisToolAddIn\Include_Analysis\ElementEnvironment.cpp
;	COMDAT ?SetLeft@CTextHorzVertPosition@@QAEX_N@Z
_TEXT	SEGMENT
_bLeft$ = 8						; size = 1
?SetLeft@CTextHorzVertPosition@@QAEX_N@Z PROC		; CTextHorzVertPosition::SetLeft, COMDAT
; _this$ = ecx

; 1177 : {

  00000	55		 push	 ebp
  00001	8b ec		 mov	 ebp, esp

; 1178 : 	m_bLeft = bLeft;

  00003	8a 45 08	 mov	 al, BYTE PTR _bLeft$[ebp]
  00006	88 41 08	 mov	 BYTE PTR [ecx+8], al

; 1179 : }

  00009	5d		 pop	 ebp
  0000a	c2 04 00	 ret	 4
?SetLeft@CTextHorzVertPosition@@QAEX_N@Z ENDP		; CTextHorzVertPosition::SetLeft
_TEXT	ENDS
; Function compile flags: /Ogtp
; File D:\git\src\IBK\IBK_DRFN\ProjSrc\SrcChartEx\ChartAddIn\ChartAnalysisToolAddIn\Include_Analysis\ElementEnvironment.cpp
;	COMDAT ?Set@CTextHorzVertPosition@@UAEXPBVCTextPosition@@@Z
_TEXT	SEGMENT
$T1 = -4						; size = 4
_pTextPosition$ = 8					; size = 4
?Set@CTextHorzVertPosition@@UAEXPBVCTextPosition@@@Z PROC ; CTextHorzVertPosition::Set, COMDAT
; _this$ = ecx

; 1162 : {

  00000	55		 push	 ebp
  00001	8b ec		 mov	 ebp, esp
  00003	51		 push	 ecx

; 1163 : 	if(pTextPosition == NULL)

  00004	8b 55 08	 mov	 edx, DWORD PTR _pTextPosition$[ebp]
  00007	85 d2		 test	 edx, edx
  00009	74 2b		 je	 SHORT $LN13@Set

; 1164 : 		return;
; 1165 : 
; 1166 : 	CTextHorzVertPosition* pTextHorzVertPosition = (CTextHorzVertPosition*) pTextPosition;
; 1167 : 	assert(pTextHorzVertPosition != NULL);
; 1168 : 	SetLeft(pTextHorzVertPosition->GetLeft());

  0000b	0f b6 42 08	 movzx	 eax, BYTE PTR [edx+8]
  0000f	88 41 08	 mov	 BYTE PTR [ecx+8], al

; 1169 : 	SetRight(pTextHorzVertPosition->GetRight());

  00012	0f b6 42 09	 movzx	 eax, BYTE PTR [edx+9]
  00016	88 41 09	 mov	 BYTE PTR [ecx+9], al

; 1170 : 	SetTop(pTextHorzVertPosition->GetTop());

  00019	0f b6 42 0a	 movzx	 eax, BYTE PTR [edx+10]
  0001d	88 41 0a	 mov	 BYTE PTR [ecx+10], al

; 1171 : 	SetBottom(pTextHorzVertPosition->GetBottom());

  00020	0f b6 42 0b	 movzx	 eax, BYTE PTR [edx+11]
  00024	88 41 0b	 mov	 BYTE PTR [ecx+11], al

; 844  : 	m_textEnvironment = textEnvironment;

  00027	83 c1 04	 add	 ecx, 4

; 745  : 	if(this == &environment)

  0002a	8d 45 fc	 lea	 eax, DWORD PTR $T1[ebp]
  0002d	3b c8		 cmp	 ecx, eax
  0002f	74 05		 je	 SHORT $LN13@Set

; 746  : 		return *this;
; 747  : 
; 748  : 	m_color = environment.GetColor();

  00031	8b 42 04	 mov	 eax, DWORD PTR [edx+4]
  00034	89 01		 mov	 DWORD PTR [ecx], eax
$LN13@Set:

; 1172 : 
; 1173 : 	CTextPosition::Set(pTextPosition);
; 1174 : }

  00036	8b e5		 mov	 esp, ebp
  00038	5d		 pop	 ebp
  00039	c2 04 00	 ret	 4
?Set@CTextHorzVertPosition@@UAEXPBVCTextPosition@@@Z ENDP ; CTextHorzVertPosition::Set
_TEXT	ENDS
; Function compile flags: /Ogtp
; File D:\git\src\IBK\IBK_DRFN\ProjSrc\SrcChartEx\ChartAddIn\ChartAnalysisToolAddIn\Include_Analysis\ElementEnvironment.cpp
;	COMDAT ??0CTextHorzVertPosition@@QAE@ABVCTextEnvironment@@_N111@Z
_TEXT	SEGMENT
_environment$ = 8					; size = 4
_bLeft$ = 12						; size = 1
_bRight$ = 16						; size = 1
_bTop$ = 20						; size = 1
_bBottom$ = 24						; size = 1
??0CTextHorzVertPosition@@QAE@ABVCTextEnvironment@@_N111@Z PROC ; CTextHorzVertPosition::CTextHorzVertPosition, COMDAT
; _this$ = ecx

; 1156 : {

  00000	55		 push	 ebp
  00001	8b ec		 mov	 ebp, esp

; 765  : 	m_color = environment.GetColor();

  00003	8b 45 08	 mov	 eax, DWORD PTR _environment$[ebp]

; 831  : {

  00006	c7 01 00 00 00
	00		 mov	 DWORD PTR [ecx], OFFSET ??_7CTextPosition@@6B@

; 765  : 	m_color = environment.GetColor();

  0000c	8b 00		 mov	 eax, DWORD PTR [eax]
  0000e	89 41 04	 mov	 DWORD PTR [ecx+4], eax

; 832  : }
; 833  : 
; 834  : // public =====================================================================
; 835  : void CTextPosition::Set(const CTextPosition* pTextPosition)
; 836  : {
; 837  : 	if(pTextPosition == NULL)
; 838  : 		return;
; 839  : 	SetTextEnvironment(pTextPosition->GetTextEnvironment());
; 840  : }
; 841  : 
; 842  : void CTextPosition::SetTextEnvironment(const CTextEnvironment& textEnvironment)
; 843  : {
; 844  : 	m_textEnvironment = textEnvironment;
; 845  : }
; 846  : 
; 847  : // ----------------------------------------------------------------------------
; 848  : CTextEnvironment CTextPosition::GetTextEnvironment() const
; 849  : {
; 850  : 	return m_textEnvironment;
; 851  : }
; 852  : 
; 853  : CTextEnvironment& CTextPosition::GetTextEnvironment()
; 854  : {
; 855  : 	return m_textEnvironment;
; 856  : }
; 857  : 
; 858  : // <PartEnvironment>
; 859  : // <TextEnvironment>
; 860  : // <Color>0,0,0<\\Color>
; 861  : // <\\TextEnvironment>
; 862  : // <TextPosition>
; 863  : // ...
; 864  : // <\\TextPosition>
; 865  : // <\\PartEnvironment>
; 866  : CString CTextPosition::GetSavedData() const
; 867  : {
; 868  : 	CString strSaved;
; 869  : 	strSaved.Format("<PartEnvironment>\r\n%s%s<\\PartEnvironment>\r\n", 
; 870  : 		m_textEnvironment.GetSavedData(), GetSavedData_TextPosition());
; 871  : 	return strSaved;
; 872  : }
; 873  : 
; 874  : 
; 875  : // protected ==================================================================
; 876  : CString CTextPosition::GetDataOfOneLine(const bool bData, const CString& strData) const
; 877  : {
; 878  : 	CString data;
; 879  : 	data.Format("<%s>%d<\\%s>\r\n", strData, bData, strData);
; 880  : 	return data;
; 881  : }
; 882  : 
; 883  : // private ====================================================================
; 884  : // <TextPosition>
; 885  : // <Horz>
; 886  : // <Show>0<\\Show>
; 887  : // <\\Horz>
; 888  : // <Horz>
; 889  : // <Left>0<\\Left>
; 890  : // <Right>0<\\Right>
; 891  : // <\\Horz>
; 892  : // <Vert>
; 893  : // <Top>0<\\Top>
; 894  : // <Bottom>0<\\Bottom>
; 895  : // <\\Vert>
; 896  : // <\\TextPosition>
; 897  : CString CTextPosition::GetSavedData_TextPosition() const
; 898  : {
; 899  : 	CString strSaved;
; 900  : 	strSaved.Format("<TextPosition>\r\n%s<\\TextPosition>\r\n", 
; 901  : 		GetSavedRealTextPositionData());
; 902  : 	return strSaved;
; 903  : }
; 904  : 
; 905  : 
; 906  : ///////////////////////////////////////////////////////////////////////////////
; 907  : // class CTextShowPosition
; 908  : 
; 909  : CTextShowPosition::CTextShowPosition():
; 910  : 	m_bShow(true)
; 911  : {
; 912  : }
; 913  : 
; 914  : CTextShowPosition::CTextShowPosition(const CTextEnvironment& environment, const bool bShow):
; 915  : 	CTextPosition(environment), 
; 916  : 	m_bShow(bShow)
; 917  : {
; 918  : }
; 919  : 
; 920  : CTextShowPosition::CTextShowPosition(const CTextShowPosition& position):
; 921  : 	CTextPosition(position.GetTextEnvironment()), 
; 922  : 	m_bShow(position.IsShow())
; 923  : {
; 924  : }
; 925  : 
; 926  : 
; 927  : // public =====================================================================
; 928  : void CTextShowPosition::Set(const CTextPosition* pTextPosition)
; 929  : {
; 930  : 	if(pTextPosition == NULL)
; 931  : 		return;
; 932  : 
; 933  : 	CTextShowPosition* pTextShowPosition = (CTextShowPosition*) pTextPosition;
; 934  : 	assert(pTextShowPosition != NULL);
; 935  : 	SetShow(pTextShowPosition->IsShow());
; 936  : 
; 937  : 	CTextPosition::Set(pTextPosition);
; 938  : }
; 939  : 
; 940  : void CTextShowPosition::SetShow(const bool bShow)
; 941  : {
; 942  : 	m_bShow = bShow;
; 943  : }
; 944  : 
; 945  : bool CTextShowPosition::IsShow() const
; 946  : {
; 947  : 	return m_bShow;
; 948  : }
; 949  : 
; 950  : // protected ==================================================================
; 951  : // <Horz>
; 952  : // <Show>0<\\Show>
; 953  : // <\\Horz>
; 954  : CString CTextShowPosition::GetSavedRealTextPositionData() const
; 955  : {
; 956  : 	CString strSaved;
; 957  : 	strSaved.Format("<Horz>\r\n%s<\\Horz>\r\n", 
; 958  : 		CTextPosition::GetDataOfOneLine(m_bShow, "Show"));// 2008.08.20    
; 959  : 	return strSaved;
; 960  : }
; 961  : 
; 962  : 
; 963  : ///////////////////////////////////////////////////////////////////////////////
; 964  : // class CTextHorzPosition
; 965  : 
; 966  : CTextHorzPosition::CTextHorzPosition():
; 967  : 	m_bLeft(true),
; 968  : 	m_bRight(true)
; 969  : {
; 970  : }
; 971  : 
; 972  : CTextHorzPosition::CTextHorzPosition(const CTextEnvironment& environment, const bool bLeft, const bool bRight, const bool bRightRate):
; 973  : 	CTextPosition(environment), 
; 974  : 	m_bLeft(bLeft),
; 975  : 	m_bRight(bRight),
; 976  : 	m_bRightRate(bRightRate)
; 977  : {
; 978  : }
; 979  : 
; 980  : CTextHorzPosition::CTextHorzPosition(const CTextHorzPosition& position):
; 981  : 	CTextPosition(position.GetTextEnvironment()), 
; 982  : 	m_bLeft(position.GetLeft()),
; 983  : 	m_bRight(position.GetRight()),
; 984  : 	m_bRightRate(position.GetRightRate())
; 985  : {
; 986  : }
; 987  : 
; 988  : 
; 989  : // public =====================================================================
; 990  : void CTextHorzPosition::Set(const CTextPosition* pTextPosition)
; 991  : {
; 992  : 	if(pTextPosition == NULL)
; 993  : 		return;
; 994  : 
; 995  : 	CTextHorzPosition* pTextHorzPosition = (CTextHorzPosition*) pTextPosition;
; 996  : 	assert(pTextHorzPosition != NULL);
; 997  : 	SetLeft(pTextHorzPosition->GetLeft());
; 998  : 	SetRight(pTextHorzPosition->GetRight());
; 999  : 	SetRightRate(pTextHorzPosition->GetRightRate());
; 1000 : 
; 1001 : 	CTextPosition::Set(pTextPosition);
; 1002 : }
; 1003 : 
; 1004 : void CTextHorzPosition::SetLeft(const bool bLeft)
; 1005 : {
; 1006 : 	m_bLeft = bLeft;
; 1007 : }
; 1008 : 
; 1009 : void CTextHorzPosition::SetRight(const bool bRight)
; 1010 : {
; 1011 : 	m_bRight = bRight;
; 1012 : }
; 1013 : 
; 1014 : void CTextHorzPosition::SetRightRate(const bool bValue)
; 1015 : {
; 1016 : 	m_bRightRate = bValue;
; 1017 : }
; 1018 : 
; 1019 : bool CTextHorzPosition::GetLeft() const
; 1020 : {
; 1021 : 	return m_bLeft;
; 1022 : }
; 1023 : 
; 1024 : bool CTextHorzPosition::GetRight() const
; 1025 : {
; 1026 : 	return m_bRight;
; 1027 : }
; 1028 : 
; 1029 : bool CTextHorzPosition::GetRightRate() const
; 1030 : {
; 1031 : 	return m_bRightRate;
; 1032 : }
; 1033 : 
; 1034 : // protected ==================================================================
; 1035 : // <Horz>
; 1036 : // <Left>0<\\Left>
; 1037 : // <Right>0<\\Right>
; 1038 : // <Rate>0<\\Rate>
; 1039 : // <\\Horz>
; 1040 : CString CTextHorzPosition::GetSavedRealTextPositionData() const
; 1041 : {
; 1042 : 	CString strSaved;
; 1043 : 	strSaved.Format("<Horz>\r\n%s%s%s<\\Horz>\r\n", 
; 1044 : 		CTextPosition::GetDataOfOneLine(m_bLeft, "Left"), 
; 1045 : 		CTextPosition::GetDataOfOneLine(m_bRight, "Right"),
; 1046 : 		CTextPosition::GetDataOfOneLine(m_bRightRate, "Rate"));
; 1047 : 	return strSaved;
; 1048 : }
; 1049 : 
; 1050 : 
; 1051 : ///////////////////////////////////////////////////////////////////////////////
; 1052 : // class CTextVertPosition
; 1053 : 
; 1054 : CTextVertPosition::CTextVertPosition():
; 1055 : 	m_bTop(true),
; 1056 : 	m_bBottom(true)
; 1057 : {
; 1058 : }
; 1059 : 
; 1060 : CTextVertPosition::CTextVertPosition(const CTextEnvironment& environment, const bool bTop, const bool bBottom):
; 1061 : 	CTextPosition(environment), 
; 1062 : 	m_bTop(bTop),
; 1063 : 	m_bBottom(bBottom)
; 1064 : {
; 1065 : }
; 1066 : 
; 1067 : CTextVertPosition::CTextVertPosition(const CTextVertPosition& position):
; 1068 : 	CTextPosition(position.GetTextEnvironment()), 
; 1069 : 	m_bTop(position.GetTop()),
; 1070 : 	m_bBottom(position.GetBottom())
; 1071 : {
; 1072 : }
; 1073 : 
; 1074 : 
; 1075 : // public =====================================================================
; 1076 : void CTextVertPosition::Set(const CTextPosition* pTextPosition)
; 1077 : {
; 1078 : 	if(pTextPosition == NULL)
; 1079 : 		return;
; 1080 : 
; 1081 : 	CTextVertPosition* pTextVertPosition = (CTextVertPosition*) pTextPosition;
; 1082 : 	assert(pTextVertPosition != NULL);
; 1083 : 	SetTop(pTextVertPosition->GetTop());
; 1084 : 	SetBottom(pTextVertPosition->GetBottom());
; 1085 : 
; 1086 : 	CTextPosition::Set(pTextPosition);
; 1087 : }
; 1088 : 
; 1089 : void CTextVertPosition::SetTop(const bool bTop)
; 1090 : {
; 1091 : 	m_bTop = bTop;
; 1092 : }
; 1093 : 
; 1094 : void CTextVertPosition::SetBottom(const bool bBottom)
; 1095 : {
; 1096 : 	m_bBottom = bBottom;
; 1097 : }
; 1098 : 
; 1099 : bool CTextVertPosition::GetTop() const
; 1100 : {
; 1101 : 	return m_bTop;
; 1102 : }
; 1103 : 
; 1104 : bool CTextVertPosition::GetBottom() const
; 1105 : {
; 1106 : 	return m_bBottom;
; 1107 : }
; 1108 : 
; 1109 : // protected ==================================================================
; 1110 : // <Vert>
; 1111 : // <Top>0<\\Top>
; 1112 : // <Bottom>0<\\Bottom>
; 1113 : // <\\Vert>
; 1114 : CString CTextVertPosition::GetSavedRealTextPositionData() const
; 1115 : {
; 1116 : 	CString strSaved("<Vert>\r\n");
; 1117 : 	strSaved += CTextPosition::GetDataOfOneLine(m_bTop, "Top");
; 1118 : 	strSaved += CTextPosition::GetDataOfOneLine(m_bBottom, "Bottom");
; 1119 : 	strSaved += "<\\Vert>\r\n";
; 1120 : 	return strSaved;
; 1121 : }
; 1122 : 
; 1123 : 
; 1124 : ///////////////////////////////////////////////////////////////////////////////
; 1125 : // class CTextHorzVertPosition
; 1126 : 
; 1127 : CTextHorzVertPosition& CTextHorzVertPosition::operator=(const CTextHorzVertPosition& position)
; 1128 : {
; 1129 : 	if(this == &position)
; 1130 : 		return *this;
; 1131 : 
; 1132 : 	CTextPosition::SetTextEnvironment(position.GetTextEnvironment());
; 1133 : 
; 1134 : 	m_bLeft = position.GetLeft();
; 1135 : 	m_bRight = position.GetRight();
; 1136 : 	m_bTop = position.GetTop();
; 1137 : 	m_bBottom = position.GetBottom();
; 1138 : 	return *this;
; 1139 : }
; 1140 : 
; 1141 : CTextHorzVertPosition::CTextHorzVertPosition():
; 1142 : 	m_bLeft(true), 
; 1143 : 	m_bRight(true),
; 1144 : 	m_bTop(true),
; 1145 : 	m_bBottom(true)
; 1146 : {
; 1147 : }
; 1148 : 	
; 1149 : CTextHorzVertPosition::CTextHorzVertPosition(const CTextEnvironment& environment, 
; 1150 : 		const bool bLeft, const bool bRight, const bool bTop, const bool bBottom):
; 1151 : 	CTextPosition(environment), 
; 1152 : 	m_bLeft(bLeft), 

  00011	8a 45 0c	 mov	 al, BYTE PTR _bLeft$[ebp]
  00014	88 41 08	 mov	 BYTE PTR [ecx+8], al

; 1153 : 	m_bRight(bRight),

  00017	8a 45 10	 mov	 al, BYTE PTR _bRight$[ebp]
  0001a	88 41 09	 mov	 BYTE PTR [ecx+9], al

; 1154 : 	m_bTop(bTop),

  0001d	8a 45 14	 mov	 al, BYTE PTR _bTop$[ebp]
  00020	88 41 0a	 mov	 BYTE PTR [ecx+10], al

; 1155 : 	m_bBottom(bBottom)

  00023	8a 45 18	 mov	 al, BYTE PTR _bBottom$[ebp]
  00026	88 41 0b	 mov	 BYTE PTR [ecx+11], al

; 1157 : }

  00029	8b c1		 mov	 eax, ecx
  0002b	c7 01 00 00 00
	00		 mov	 DWORD PTR [ecx], OFFSET ??_7CTextHorzVertPosition@@6B@
  00031	5d		 pop	 ebp
  00032	c2 14 00	 ret	 20			; 00000014H
??0CTextHorzVertPosition@@QAE@ABVCTextEnvironment@@_N111@Z ENDP ; CTextHorzVertPosition::CTextHorzVertPosition
_TEXT	ENDS
; Function compile flags: /Ogtp
; File D:\git\src\IBK\IBK_DRFN\ProjSrc\SrcChartEx\ChartAddIn\ChartAnalysisToolAddIn\Include_Analysis\ElementEnvironment.cpp
;	COMDAT ??0CTextHorzVertPosition@@QAE@XZ
_TEXT	SEGMENT
??0CTextHorzVertPosition@@QAE@XZ PROC			; CTextHorzVertPosition::CTextHorzVertPosition, COMDAT
; _this$ = ecx

; 754  : 	m_color(RGB(0, 0, 0))

  00000	c7 41 04 00 00
	00 00		 mov	 DWORD PTR [ecx+4], 0

; 1147 : }

  00007	8b c1		 mov	 eax, ecx
  00009	c7 01 00 00 00
	00		 mov	 DWORD PTR [ecx], OFFSET ??_7CTextHorzVertPosition@@6B@
  0000f	c7 41 08 01 01
	01 01		 mov	 DWORD PTR [ecx+8], 16843009 ; 01010101H
  00016	c3		 ret	 0
??0CTextHorzVertPosition@@QAE@XZ ENDP			; CTextHorzVertPosition::CTextHorzVertPosition
_TEXT	ENDS
; Function compile flags: /Ogtp
; File D:\git\src\IBK\IBK_DRFN\ProjSrc\SrcChartEx\ChartAddIn\ChartAnalysisToolAddIn\Include_Analysis\ElementEnvironment.cpp
;	COMDAT ??4CTextHorzVertPosition@@QAEAAV0@ABV0@@Z
_TEXT	SEGMENT
$T1 = -4						; size = 4
_position$ = 8						; size = 4
??4CTextHorzVertPosition@@QAEAAV0@ABV0@@Z PROC		; CTextHorzVertPosition::operator=, COMDAT
; _this$ = ecx

; 1128 : {

  00000	55		 push	 ebp
  00001	8b ec		 mov	 ebp, esp
  00003	51		 push	 ecx

; 1129 : 	if(this == &position)

  00004	8b 55 08	 mov	 edx, DWORD PTR _position$[ebp]
  00007	3b ca		 cmp	 ecx, edx
  00009	74 2d		 je	 SHORT $LN13@operator
  0000b	56		 push	 esi

; 844  : 	m_textEnvironment = textEnvironment;

  0000c	8d 71 04	 lea	 esi, DWORD PTR [ecx+4]

; 745  : 	if(this == &environment)

  0000f	8d 45 fc	 lea	 eax, DWORD PTR $T1[ebp]
  00012	3b f0		 cmp	 esi, eax
  00014	74 05		 je	 SHORT $LN10@operator

; 746  : 		return *this;
; 747  : 
; 748  : 	m_color = environment.GetColor();

  00016	8b 42 04	 mov	 eax, DWORD PTR [edx+4]
  00019	89 06		 mov	 DWORD PTR [esi], eax
$LN10@operator:

; 1130 : 		return *this;
; 1131 : 
; 1132 : 	CTextPosition::SetTextEnvironment(position.GetTextEnvironment());
; 1133 : 
; 1134 : 	m_bLeft = position.GetLeft();

  0001b	0f b6 42 08	 movzx	 eax, BYTE PTR [edx+8]
  0001f	88 41 08	 mov	 BYTE PTR [ecx+8], al

; 1135 : 	m_bRight = position.GetRight();

  00022	0f b6 42 09	 movzx	 eax, BYTE PTR [edx+9]
  00026	88 41 09	 mov	 BYTE PTR [ecx+9], al

; 1136 : 	m_bTop = position.GetTop();

  00029	0f b6 42 0a	 movzx	 eax, BYTE PTR [edx+10]
  0002d	88 41 0a	 mov	 BYTE PTR [ecx+10], al

; 1137 : 	m_bBottom = position.GetBottom();

  00030	0f b6 42 0b	 movzx	 eax, BYTE PTR [edx+11]
  00034	88 41 0b	 mov	 BYTE PTR [ecx+11], al

; 1138 : 	return *this;

  00037	5e		 pop	 esi
$LN13@operator:

; 1139 : }

  00038	8b c1		 mov	 eax, ecx
  0003a	8b e5		 mov	 esp, ebp
  0003c	5d		 pop	 ebp
  0003d	c2 04 00	 ret	 4
??4CTextHorzVertPosition@@QAEAAV0@ABV0@@Z ENDP		; CTextHorzVertPosition::operator=
_TEXT	ENDS
; Function compile flags: /Ogtp
; File D:\git\src\IBK\IBK_DRFN\ProjSrc\SrcChartEx\ChartAddIn\ChartAnalysisToolAddIn\Include_Analysis\ElementEnvironment.cpp
;	COMDAT ?GetSavedRealTextPositionData@CTextVertPosition@@MBE?AV?$CStringT@DV?$StrTraitMFC_DLL@DV?$ChTraitsCRT@D@ATL@@@@@ATL@@XZ
_TEXT	SEGMENT
$T2 = -24						; size = 4
$T3 = -24						; size = 4
$T4 = -20						; size = 4
$T5 = -20						; size = 4
$T6 = -16						; size = 4
__$EHRec$ = -12						; size = 12
___$ReturnUdt$ = 8					; size = 4
?GetSavedRealTextPositionData@CTextVertPosition@@MBE?AV?$CStringT@DV?$StrTraitMFC_DLL@DV?$ChTraitsCRT@D@ATL@@@@@ATL@@XZ PROC ; CTextVertPosition::GetSavedRealTextPositionData, COMDAT
; _this$ = ecx

; 1115 : {

  00000	55		 push	 ebp
  00001	8b ec		 mov	 ebp, esp
  00003	6a ff		 push	 -1
  00005	68 00 00 00 00	 push	 __ehhandler$?GetSavedRealTextPositionData@CTextVertPosition@@MBE?AV?$CStringT@DV?$StrTraitMFC_DLL@DV?$ChTraitsCRT@D@ATL@@@@@ATL@@XZ
  0000a	64 a1 00 00 00
	00		 mov	 eax, DWORD PTR fs:0
  00010	50		 push	 eax
  00011	83 ec 0c	 sub	 esp, 12			; 0000000cH
  00014	53		 push	 ebx
  00015	57		 push	 edi
  00016	a1 00 00 00 00	 mov	 eax, DWORD PTR ___security_cookie
  0001b	33 c5		 xor	 eax, ebp
  0001d	50		 push	 eax
  0001e	8d 45 f4	 lea	 eax, DWORD PTR __$EHRec$[ebp]
  00021	64 a3 00 00 00
	00		 mov	 DWORD PTR fs:0, eax
  00027	8b f9		 mov	 edi, ecx
  00029	c7 45 f0 00 00
	00 00		 mov	 DWORD PTR $T6[ebp], 0

; 1116 : 	CString strSaved("<Vert>\r\n");

  00030	8b 4d 08	 mov	 ecx, DWORD PTR ___$ReturnUdt$[ebp]
  00033	68 00 00 00 00	 push	 OFFSET ??_C@_08DDEPFPBK@?$DMVert?$DO?$AN?6@
  00038	c7 45 fc 00 00
	00 00		 mov	 DWORD PTR __$EHRec$[ebp+8], 0
  0003f	ff 15 00 00 00
	00		 call	 DWORD PTR __imp_??0?$CStringT@DV?$StrTraitMFC_DLL@DV?$ChTraitsCRT@D@ATL@@@@@ATL@@QAE@PBD@Z

; 1120 : 	return strSaved;

  00045	68 00 00 00 00	 push	 OFFSET ??_C@_03PGGAENPN@Top@
  0004a	8d 4d e8	 lea	 ecx, DWORD PTR $T3[ebp]
  0004d	c7 45 fc 00 00
	00 00		 mov	 DWORD PTR __$EHRec$[ebp+8], 0
  00054	c7 45 f0 01 00
	00 00		 mov	 DWORD PTR $T6[ebp], 1
  0005b	ff 15 00 00 00
	00		 call	 DWORD PTR __imp_??0?$CStringT@DV?$StrTraitMFC_DLL@DV?$ChTraitsCRT@D@ATL@@@@@ATL@@QAE@PBD@Z
  00061	8a 5f 08	 mov	 bl, BYTE PTR [edi+8]
  00064	c7 45 fc 01 00
	00 00		 mov	 DWORD PTR __$EHRec$[ebp+8], 1

; 878  : 	CString data;

  0006b	8d 4d ec	 lea	 ecx, DWORD PTR $T5[ebp]

; 1117 : 	strSaved += CTextPosition::GetDataOfOneLine(m_bTop, "Top");

  0006e	c6 45 fc 02	 mov	 BYTE PTR __$EHRec$[ebp+8], 2

; 878  : 	CString data;

  00072	ff 15 00 00 00
	00		 call	 DWORD PTR __imp_??0?$CStringT@DV?$StrTraitMFC_DLL@DV?$ChTraitsCRT@D@ATL@@@@@ATL@@QAE@XZ

; 879  : 	data.Format("<%s>%d<\\%s>\r\n", strData, bData, strData);

  00078	8b 45 e8	 mov	 eax, DWORD PTR $T3[ebp]
  0007b	50		 push	 eax
  0007c	0f b6 cb	 movzx	 ecx, bl
  0007f	51		 push	 ecx
  00080	50		 push	 eax
  00081	8d 45 ec	 lea	 eax, DWORD PTR $T5[ebp]

; 880  : 	return data;

  00084	c7 45 f0 03 00
	00 00		 mov	 DWORD PTR $T6[ebp], 3
  0008b	68 00 00 00 00	 push	 OFFSET ??_C@_0O@LNMCLPEF@?$DM?$CFs?$DO?$CFd?$DM?2?$CFs?$DO?$AN?6@
  00090	50		 push	 eax
  00091	ff 15 00 00 00
	00		 call	 DWORD PTR __imp_?Format@?$CStringT@DV?$StrTraitMFC_DLL@DV?$ChTraitsCRT@D@ATL@@@@@ATL@@QAAXPBDZZ

; 1117 : 	strSaved += CTextPosition::GetDataOfOneLine(m_bTop, "Top");

  00097	8b 4d 08	 mov	 ecx, DWORD PTR ___$ReturnUdt$[ebp]
  0009a	8d 45 ec	 lea	 eax, DWORD PTR $T5[ebp]

; 879  : 	data.Format("<%s>%d<\\%s>\r\n", strData, bData, strData);

  0009d	83 c4 14	 add	 esp, 20			; 00000014H

; 1117 : 	strSaved += CTextPosition::GetDataOfOneLine(m_bTop, "Top");

  000a0	50		 push	 eax
  000a1	ff 15 00 00 00
	00		 call	 DWORD PTR __imp_??Y?$CStringT@DV?$StrTraitMFC_DLL@DV?$ChTraitsCRT@D@ATL@@@@@ATL@@QAEAAV01@ABV?$CSimpleStringT@D$00@1@@Z
  000a7	8d 4d ec	 lea	 ecx, DWORD PTR $T5[ebp]
  000aa	c7 45 f0 01 00
	00 00		 mov	 DWORD PTR $T6[ebp], 1
  000b1	ff 15 00 00 00
	00		 call	 DWORD PTR __imp_??1?$CStringT@DV?$StrTraitMFC_DLL@DV?$ChTraitsCRT@D@ATL@@@@@ATL@@QAE@XZ
  000b7	8d 4d e8	 lea	 ecx, DWORD PTR $T3[ebp]
  000ba	c6 45 fc 00	 mov	 BYTE PTR __$EHRec$[ebp+8], 0
  000be	ff 15 00 00 00
	00		 call	 DWORD PTR __imp_??1?$CStringT@DV?$StrTraitMFC_DLL@DV?$ChTraitsCRT@D@ATL@@@@@ATL@@QAE@XZ

; 1118 : 	strSaved += CTextPosition::GetDataOfOneLine(m_bBottom, "Bottom");

  000c4	68 00 00 00 00	 push	 OFFSET ??_C@_06DDHCBBGN@Bottom@
  000c9	8d 4d e8	 lea	 ecx, DWORD PTR $T2[ebp]
  000cc	ff 15 00 00 00
	00		 call	 DWORD PTR __imp_??0?$CStringT@DV?$StrTraitMFC_DLL@DV?$ChTraitsCRT@D@ATL@@@@@ATL@@QAE@PBD@Z
  000d2	8a 5f 09	 mov	 bl, BYTE PTR [edi+9]
  000d5	c7 45 fc 03 00
	00 00		 mov	 DWORD PTR __$EHRec$[ebp+8], 3

; 878  : 	CString data;

  000dc	8d 4d ec	 lea	 ecx, DWORD PTR $T4[ebp]

; 1118 : 	strSaved += CTextPosition::GetDataOfOneLine(m_bBottom, "Bottom");

  000df	c6 45 fc 04	 mov	 BYTE PTR __$EHRec$[ebp+8], 4

; 878  : 	CString data;

  000e3	ff 15 00 00 00
	00		 call	 DWORD PTR __imp_??0?$CStringT@DV?$StrTraitMFC_DLL@DV?$ChTraitsCRT@D@ATL@@@@@ATL@@QAE@XZ

; 879  : 	data.Format("<%s>%d<\\%s>\r\n", strData, bData, strData);

  000e9	8b 45 e8	 mov	 eax, DWORD PTR $T2[ebp]
  000ec	50		 push	 eax
  000ed	0f b6 cb	 movzx	 ecx, bl
  000f0	51		 push	 ecx
  000f1	50		 push	 eax
  000f2	8d 45 ec	 lea	 eax, DWORD PTR $T4[ebp]

; 880  : 	return data;

  000f5	c7 45 f0 05 00
	00 00		 mov	 DWORD PTR $T6[ebp], 5
  000fc	68 00 00 00 00	 push	 OFFSET ??_C@_0O@LNMCLPEF@?$DM?$CFs?$DO?$CFd?$DM?2?$CFs?$DO?$AN?6@
  00101	50		 push	 eax
  00102	ff 15 00 00 00
	00		 call	 DWORD PTR __imp_?Format@?$CStringT@DV?$StrTraitMFC_DLL@DV?$ChTraitsCRT@D@ATL@@@@@ATL@@QAAXPBDZZ

; 1118 : 	strSaved += CTextPosition::GetDataOfOneLine(m_bBottom, "Bottom");

  00108	8b 5d 08	 mov	 ebx, DWORD PTR ___$ReturnUdt$[ebp]
  0010b	8d 45 ec	 lea	 eax, DWORD PTR $T4[ebp]

; 879  : 	data.Format("<%s>%d<\\%s>\r\n", strData, bData, strData);

  0010e	83 c4 14	 add	 esp, 20			; 00000014H

; 1118 : 	strSaved += CTextPosition::GetDataOfOneLine(m_bBottom, "Bottom");

  00111	8b cb		 mov	 ecx, ebx
  00113	50		 push	 eax
  00114	ff 15 00 00 00
	00		 call	 DWORD PTR __imp_??Y?$CStringT@DV?$StrTraitMFC_DLL@DV?$ChTraitsCRT@D@ATL@@@@@ATL@@QAEAAV01@ABV?$CSimpleStringT@D$00@1@@Z
  0011a	8d 4d ec	 lea	 ecx, DWORD PTR $T4[ebp]
  0011d	c7 45 f0 01 00
	00 00		 mov	 DWORD PTR $T6[ebp], 1
  00124	ff 15 00 00 00
	00		 call	 DWORD PTR __imp_??1?$CStringT@DV?$StrTraitMFC_DLL@DV?$ChTraitsCRT@D@ATL@@@@@ATL@@QAE@XZ
  0012a	8d 4d e8	 lea	 ecx, DWORD PTR $T2[ebp]
  0012d	c6 45 fc 00	 mov	 BYTE PTR __$EHRec$[ebp+8], 0
  00131	ff 15 00 00 00
	00		 call	 DWORD PTR __imp_??1?$CStringT@DV?$StrTraitMFC_DLL@DV?$ChTraitsCRT@D@ATL@@@@@ATL@@QAE@XZ

; 1119 : 	strSaved += "<\\Vert>\r\n";

  00137	68 00 00 00 00	 push	 OFFSET ??_C@_09BIGAMANA@?$DM?2Vert?$DO?$AN?6@
  0013c	8b cb		 mov	 ecx, ebx
  0013e	ff 15 00 00 00
	00		 call	 DWORD PTR __imp_??Y?$CStringT@DV?$StrTraitMFC_DLL@DV?$ChTraitsCRT@D@ATL@@@@@ATL@@QAEAAV01@PBD@Z

; 1120 : 	return strSaved;

  00144	8b c3		 mov	 eax, ebx

; 1121 : }

  00146	8b 4d f4	 mov	 ecx, DWORD PTR __$EHRec$[ebp]
  00149	64 89 0d 00 00
	00 00		 mov	 DWORD PTR fs:0, ecx
  00150	59		 pop	 ecx
  00151	5f		 pop	 edi
  00152	5b		 pop	 ebx
  00153	8b e5		 mov	 esp, ebp
  00155	5d		 pop	 ebp
  00156	c2 04 00	 ret	 4
_TEXT	ENDS
;	COMDAT text$x
text$x	SEGMENT
__unwindfunclet$?GetSavedRealTextPositionData@CTextVertPosition@@MBE?AV?$CStringT@DV?$StrTraitMFC_DLL@DV?$ChTraitsCRT@D@ATL@@@@@ATL@@XZ$0:
  00000	8b 45 f0	 mov	 eax, DWORD PTR $T6[ebp]
  00003	83 e0 01	 and	 eax, 1
  00006	0f 84 0d 00 00
	00		 je	 $LN4@GetSavedRe
  0000c	83 65 f0 fe	 and	 DWORD PTR $T6[ebp], -2	; fffffffeH
  00010	8b 4d 08	 mov	 ecx, DWORD PTR ___$ReturnUdt$[ebp]
  00013	ff 25 00 00 00
	00		 jmp	 DWORD PTR __imp_??1?$CStringT@DV?$StrTraitMFC_DLL@DV?$ChTraitsCRT@D@ATL@@@@@ATL@@QAE@XZ
$LN4@GetSavedRe:
  00019	c3		 ret	 0
__unwindfunclet$?GetSavedRealTextPositionData@CTextVertPosition@@MBE?AV?$CStringT@DV?$StrTraitMFC_DLL@DV?$ChTraitsCRT@D@ATL@@@@@ATL@@XZ$1:
  0001a	8d 4d e8	 lea	 ecx, DWORD PTR $T3[ebp]
  0001d	ff 25 00 00 00
	00		 jmp	 DWORD PTR __imp_??1?$CStringT@DV?$StrTraitMFC_DLL@DV?$ChTraitsCRT@D@ATL@@@@@ATL@@QAE@XZ
__unwindfunclet$?GetSavedRealTextPositionData@CTextVertPosition@@MBE?AV?$CStringT@DV?$StrTraitMFC_DLL@DV?$ChTraitsCRT@D@ATL@@@@@ATL@@XZ$5:
  00023	8b 45 f0	 mov	 eax, DWORD PTR $T6[ebp]
  00026	83 e0 02	 and	 eax, 2
  00029	0f 84 0d 00 00
	00		 je	 $LN12@GetSavedRe
  0002f	83 65 f0 fd	 and	 DWORD PTR $T6[ebp], -3	; fffffffdH
  00033	8d 4d ec	 lea	 ecx, DWORD PTR $T5[ebp]
  00036	ff 25 00 00 00
	00		 jmp	 DWORD PTR __imp_??1?$CStringT@DV?$StrTraitMFC_DLL@DV?$ChTraitsCRT@D@ATL@@@@@ATL@@QAE@XZ
$LN12@GetSavedRe:
  0003c	c3		 ret	 0
__unwindfunclet$?GetSavedRealTextPositionData@CTextVertPosition@@MBE?AV?$CStringT@DV?$StrTraitMFC_DLL@DV?$ChTraitsCRT@D@ATL@@@@@ATL@@XZ$3:
  0003d	8d 4d e8	 lea	 ecx, DWORD PTR $T2[ebp]
  00040	ff 25 00 00 00
	00		 jmp	 DWORD PTR __imp_??1?$CStringT@DV?$StrTraitMFC_DLL@DV?$ChTraitsCRT@D@ATL@@@@@ATL@@QAE@XZ
__unwindfunclet$?GetSavedRealTextPositionData@CTextVertPosition@@MBE?AV?$CStringT@DV?$StrTraitMFC_DLL@DV?$ChTraitsCRT@D@ATL@@@@@ATL@@XZ$6:
  00046	8b 45 f0	 mov	 eax, DWORD PTR $T6[ebp]
  00049	83 e0 04	 and	 eax, 4
  0004c	0f 84 0d 00 00
	00		 je	 $LN16@GetSavedRe
  00052	83 65 f0 fb	 and	 DWORD PTR $T6[ebp], -5	; fffffffbH
  00056	8d 4d ec	 lea	 ecx, DWORD PTR $T4[ebp]
  00059	ff 25 00 00 00
	00		 jmp	 DWORD PTR __imp_??1?$CStringT@DV?$StrTraitMFC_DLL@DV?$ChTraitsCRT@D@ATL@@@@@ATL@@QAE@XZ
$LN16@GetSavedRe:
  0005f	c3		 ret	 0
  00060	cc		 int	 3
  00061	cc		 int	 3
  00062	cc		 int	 3
  00063	cc		 int	 3
  00064	cc		 int	 3
__ehhandler$?GetSavedRealTextPositionData@CTextVertPosition@@MBE?AV?$CStringT@DV?$StrTraitMFC_DLL@DV?$ChTraitsCRT@D@ATL@@@@@ATL@@XZ:
  00065	90		 npad	 1
  00066	90		 npad	 1
  00067	8b 54 24 08	 mov	 edx, DWORD PTR [esp+8]
  0006b	8d 42 0c	 lea	 eax, DWORD PTR [edx+12]
  0006e	8b 4a e8	 mov	 ecx, DWORD PTR [edx-24]
  00071	33 c8		 xor	 ecx, eax
  00073	e8 00 00 00 00	 call	 @__security_check_cookie@4
  00078	b8 00 00 00 00	 mov	 eax, OFFSET __ehfuncinfo$?GetSavedRealTextPositionData@CTextVertPosition@@MBE?AV?$CStringT@DV?$StrTraitMFC_DLL@DV?$ChTraitsCRT@D@ATL@@@@@ATL@@XZ
  0007d	e9 00 00 00 00	 jmp	 ___CxxFrameHandler3
text$x	ENDS
?GetSavedRealTextPositionData@CTextVertPosition@@MBE?AV?$CStringT@DV?$StrTraitMFC_DLL@DV?$ChTraitsCRT@D@ATL@@@@@ATL@@XZ ENDP ; CTextVertPosition::GetSavedRealTextPositionData
; Function compile flags: /Ogtp
; File D:\git\src\IBK\IBK_DRFN\ProjSrc\SrcChartEx\ChartAddIn\ChartAnalysisToolAddIn\Include_Analysis\ElementEnvironment.cpp
;	COMDAT ?GetBottom@CTextVertPosition@@QBE_NXZ
_TEXT	SEGMENT
?GetBottom@CTextVertPosition@@QBE_NXZ PROC		; CTextVertPosition::GetBottom, COMDAT
; _this$ = ecx

; 1106 : 	return m_bBottom;

  00000	8a 41 09	 mov	 al, BYTE PTR [ecx+9]

; 1107 : }

  00003	c3		 ret	 0
?GetBottom@CTextVertPosition@@QBE_NXZ ENDP		; CTextVertPosition::GetBottom
_TEXT	ENDS
; Function compile flags: /Ogtp
; File D:\git\src\IBK\IBK_DRFN\ProjSrc\SrcChartEx\ChartAddIn\ChartAnalysisToolAddIn\Include_Analysis\ElementEnvironment.cpp
;	COMDAT ?GetTop@CTextVertPosition@@QBE_NXZ
_TEXT	SEGMENT
?GetTop@CTextVertPosition@@QBE_NXZ PROC			; CTextVertPosition::GetTop, COMDAT
; _this$ = ecx

; 1101 : 	return m_bTop;

  00000	8a 41 08	 mov	 al, BYTE PTR [ecx+8]

; 1102 : }

  00003	c3		 ret	 0
?GetTop@CTextVertPosition@@QBE_NXZ ENDP			; CTextVertPosition::GetTop
_TEXT	ENDS
; Function compile flags: /Ogtp
; File D:\git\src\IBK\IBK_DRFN\ProjSrc\SrcChartEx\ChartAddIn\ChartAnalysisToolAddIn\Include_Analysis\ElementEnvironment.cpp
;	COMDAT ?SetBottom@CTextVertPosition@@QAEX_N@Z
_TEXT	SEGMENT
_bBottom$ = 8						; size = 1
?SetBottom@CTextVertPosition@@QAEX_N@Z PROC		; CTextVertPosition::SetBottom, COMDAT
; _this$ = ecx

; 1095 : {

  00000	55		 push	 ebp
  00001	8b ec		 mov	 ebp, esp

; 1096 : 	m_bBottom = bBottom;

  00003	8a 45 08	 mov	 al, BYTE PTR _bBottom$[ebp]
  00006	88 41 09	 mov	 BYTE PTR [ecx+9], al

; 1097 : }

  00009	5d		 pop	 ebp
  0000a	c2 04 00	 ret	 4
?SetBottom@CTextVertPosition@@QAEX_N@Z ENDP		; CTextVertPosition::SetBottom
_TEXT	ENDS
; Function compile flags: /Ogtp
; File D:\git\src\IBK\IBK_DRFN\ProjSrc\SrcChartEx\ChartAddIn\ChartAnalysisToolAddIn\Include_Analysis\ElementEnvironment.cpp
;	COMDAT ?SetTop@CTextVertPosition@@QAEX_N@Z
_TEXT	SEGMENT
_bTop$ = 8						; size = 1
?SetTop@CTextVertPosition@@QAEX_N@Z PROC		; CTextVertPosition::SetTop, COMDAT
; _this$ = ecx

; 1090 : {

  00000	55		 push	 ebp
  00001	8b ec		 mov	 ebp, esp

; 1091 : 	m_bTop = bTop;

  00003	8a 45 08	 mov	 al, BYTE PTR _bTop$[ebp]
  00006	88 41 08	 mov	 BYTE PTR [ecx+8], al

; 1092 : }

  00009	5d		 pop	 ebp
  0000a	c2 04 00	 ret	 4
?SetTop@CTextVertPosition@@QAEX_N@Z ENDP		; CTextVertPosition::SetTop
_TEXT	ENDS
; Function compile flags: /Ogtp
; File D:\git\src\IBK\IBK_DRFN\ProjSrc\SrcChartEx\ChartAddIn\ChartAnalysisToolAddIn\Include_Analysis\ElementEnvironment.cpp
;	COMDAT ?Set@CTextVertPosition@@UAEXPBVCTextPosition@@@Z
_TEXT	SEGMENT
$T1 = -4						; size = 4
_pTextPosition$ = 8					; size = 4
?Set@CTextVertPosition@@UAEXPBVCTextPosition@@@Z PROC	; CTextVertPosition::Set, COMDAT
; _this$ = ecx

; 1077 : {

  00000	55		 push	 ebp
  00001	8b ec		 mov	 ebp, esp
  00003	51		 push	 ecx

; 1078 : 	if(pTextPosition == NULL)

  00004	8b 55 08	 mov	 edx, DWORD PTR _pTextPosition$[ebp]
  00007	85 d2		 test	 edx, edx
  00009	74 1d		 je	 SHORT $LN13@Set

; 1079 : 		return;
; 1080 : 
; 1081 : 	CTextVertPosition* pTextVertPosition = (CTextVertPosition*) pTextPosition;
; 1082 : 	assert(pTextVertPosition != NULL);
; 1083 : 	SetTop(pTextVertPosition->GetTop());

  0000b	0f b6 42 08	 movzx	 eax, BYTE PTR [edx+8]
  0000f	88 41 08	 mov	 BYTE PTR [ecx+8], al

; 1084 : 	SetBottom(pTextVertPosition->GetBottom());

  00012	0f b6 42 09	 movzx	 eax, BYTE PTR [edx+9]
  00016	88 41 09	 mov	 BYTE PTR [ecx+9], al

; 844  : 	m_textEnvironment = textEnvironment;

  00019	83 c1 04	 add	 ecx, 4

; 745  : 	if(this == &environment)

  0001c	8d 45 fc	 lea	 eax, DWORD PTR $T1[ebp]
  0001f	3b c8		 cmp	 ecx, eax
  00021	74 05		 je	 SHORT $LN13@Set

; 746  : 		return *this;
; 747  : 
; 748  : 	m_color = environment.GetColor();

  00023	8b 42 04	 mov	 eax, DWORD PTR [edx+4]
  00026	89 01		 mov	 DWORD PTR [ecx], eax
$LN13@Set:

; 1085 : 
; 1086 : 	CTextPosition::Set(pTextPosition);
; 1087 : }

  00028	8b e5		 mov	 esp, ebp
  0002a	5d		 pop	 ebp
  0002b	c2 04 00	 ret	 4
?Set@CTextVertPosition@@UAEXPBVCTextPosition@@@Z ENDP	; CTextVertPosition::Set
_TEXT	ENDS
; Function compile flags: /Ogtp
; File D:\git\src\IBK\IBK_DRFN\ProjSrc\SrcChartEx\ChartAddIn\ChartAnalysisToolAddIn\Include_Analysis\ElementEnvironment.cpp
;	COMDAT ??0CTextVertPosition@@QAE@ABV0@@Z
_TEXT	SEGMENT
_position$ = 8						; size = 4
??0CTextVertPosition@@QAE@ABV0@@Z PROC			; CTextVertPosition::CTextVertPosition, COMDAT
; _this$ = ecx

; 1071 : {

  00000	55		 push	 ebp
  00001	8b ec		 mov	 ebp, esp

; 765  : 	m_color = environment.GetColor();

  00003	8b 55 08	 mov	 edx, DWORD PTR _position$[ebp]
  00006	8b 42 04	 mov	 eax, DWORD PTR [edx+4]
  00009	89 41 04	 mov	 DWORD PTR [ecx+4], eax

; 1071 : {

  0000c	c7 01 00 00 00
	00		 mov	 DWORD PTR [ecx], OFFSET ??_7CTextVertPosition@@6B@

; 766  : }
; 767  : 
; 768  : CTextEnvironment::CTextEnvironment(CTextEnvironment* pEnvironment)
; 769  : {
; 770  : 	if(pEnvironment == NULL)
; 771  : 		return;
; 772  : 
; 773  : 	m_color = pEnvironment->GetColor();
; 774  : }
; 775  : 
; 776  : 
; 777  : // public =====================================================================
; 778  : void CTextEnvironment::Set(const CTextEnvironment& environment)
; 779  : {
; 780  : 	m_color = environment.GetColor();
; 781  : }
; 782  : 
; 783  : void CTextEnvironment::SetColor(const COLORREF& color)
; 784  : {
; 785  : 	m_color = color;
; 786  : }
; 787  : 
; 788  : // ----------------------------------------------------------------------------
; 789  : COLORREF CTextEnvironment::GetColor() const
; 790  : {
; 791  : 	return m_color;
; 792  : }
; 793  : 
; 794  : // <TextEnvironment>
; 795  : // <Color>0,0,0<\\Color>
; 796  : // <\\TextEnvironment>
; 797  : CString CTextEnvironment::GetSavedData() const
; 798  : {
; 799  : 	CString strSaved;
; 800  : 	strSaved.Format("<TextEnvironment>\r\n%s<\\TextEnvironment>\r\n", GetSavedColor());
; 801  : 	return strSaved;
; 802  : }
; 803  : 
; 804  : 
; 805  : // private ====================================================================
; 806  : CString CTextEnvironment::GetSavedColor() const
; 807  : {
; 808  : 	return ("<Color>" + CDataConversion::RGB2Str(m_color) + "<\\Color>\r\n");
; 809  : }
; 810  : 
; 811  : 
; 812  : ///////////////////////////////////////////////////////////////////////////////
; 813  : // class CTextPosition
; 814  : 
; 815  : CTextPosition& CTextPosition::operator=(const CTextPosition& environment)
; 816  : {
; 817  : 	if(this == &environment)
; 818  : 		return *this;
; 819  : 
; 820  : 	m_textEnvironment = environment.GetTextEnvironment();
; 821  : 	return *this;
; 822  : }
; 823  : 
; 824  : // ----------------------------------------------------------------------------
; 825  : CTextPosition::CTextPosition()
; 826  : {
; 827  : }
; 828  : 
; 829  : CTextPosition::CTextPosition(const CTextEnvironment& textEnvironment):
; 830  : 	m_textEnvironment(textEnvironment)
; 831  : {
; 832  : }
; 833  : 
; 834  : // public =====================================================================
; 835  : void CTextPosition::Set(const CTextPosition* pTextPosition)
; 836  : {
; 837  : 	if(pTextPosition == NULL)
; 838  : 		return;
; 839  : 	SetTextEnvironment(pTextPosition->GetTextEnvironment());
; 840  : }
; 841  : 
; 842  : void CTextPosition::SetTextEnvironment(const CTextEnvironment& textEnvironment)
; 843  : {
; 844  : 	m_textEnvironment = textEnvironment;
; 845  : }
; 846  : 
; 847  : // ----------------------------------------------------------------------------
; 848  : CTextEnvironment CTextPosition::GetTextEnvironment() const
; 849  : {
; 850  : 	return m_textEnvironment;
; 851  : }
; 852  : 
; 853  : CTextEnvironment& CTextPosition::GetTextEnvironment()
; 854  : {
; 855  : 	return m_textEnvironment;
; 856  : }
; 857  : 
; 858  : // <PartEnvironment>
; 859  : // <TextEnvironment>
; 860  : // <Color>0,0,0<\\Color>
; 861  : // <\\TextEnvironment>
; 862  : // <TextPosition>
; 863  : // ...
; 864  : // <\\TextPosition>
; 865  : // <\\PartEnvironment>
; 866  : CString CTextPosition::GetSavedData() const
; 867  : {
; 868  : 	CString strSaved;
; 869  : 	strSaved.Format("<PartEnvironment>\r\n%s%s<\\PartEnvironment>\r\n", 
; 870  : 		m_textEnvironment.GetSavedData(), GetSavedData_TextPosition());
; 871  : 	return strSaved;
; 872  : }
; 873  : 
; 874  : 
; 875  : // protected ==================================================================
; 876  : CString CTextPosition::GetDataOfOneLine(const bool bData, const CString& strData) const
; 877  : {
; 878  : 	CString data;
; 879  : 	data.Format("<%s>%d<\\%s>\r\n", strData, bData, strData);
; 880  : 	return data;
; 881  : }
; 882  : 
; 883  : // private ====================================================================
; 884  : // <TextPosition>
; 885  : // <Horz>
; 886  : // <Show>0<\\Show>
; 887  : // <\\Horz>
; 888  : // <Horz>
; 889  : // <Left>0<\\Left>
; 890  : // <Right>0<\\Right>
; 891  : // <\\Horz>
; 892  : // <Vert>
; 893  : // <Top>0<\\Top>
; 894  : // <Bottom>0<\\Bottom>
; 895  : // <\\Vert>
; 896  : // <\\TextPosition>
; 897  : CString CTextPosition::GetSavedData_TextPosition() const
; 898  : {
; 899  : 	CString strSaved;
; 900  : 	strSaved.Format("<TextPosition>\r\n%s<\\TextPosition>\r\n", 
; 901  : 		GetSavedRealTextPositionData());
; 902  : 	return strSaved;
; 903  : }
; 904  : 
; 905  : 
; 906  : ///////////////////////////////////////////////////////////////////////////////
; 907  : // class CTextShowPosition
; 908  : 
; 909  : CTextShowPosition::CTextShowPosition():
; 910  : 	m_bShow(true)
; 911  : {
; 912  : }
; 913  : 
; 914  : CTextShowPosition::CTextShowPosition(const CTextEnvironment& environment, const bool bShow):
; 915  : 	CTextPosition(environment), 
; 916  : 	m_bShow(bShow)
; 917  : {
; 918  : }
; 919  : 
; 920  : CTextShowPosition::CTextShowPosition(const CTextShowPosition& position):
; 921  : 	CTextPosition(position.GetTextEnvironment()), 
; 922  : 	m_bShow(position.IsShow())
; 923  : {
; 924  : }
; 925  : 
; 926  : 
; 927  : // public =====================================================================
; 928  : void CTextShowPosition::Set(const CTextPosition* pTextPosition)
; 929  : {
; 930  : 	if(pTextPosition == NULL)
; 931  : 		return;
; 932  : 
; 933  : 	CTextShowPosition* pTextShowPosition = (CTextShowPosition*) pTextPosition;
; 934  : 	assert(pTextShowPosition != NULL);
; 935  : 	SetShow(pTextShowPosition->IsShow());
; 936  : 
; 937  : 	CTextPosition::Set(pTextPosition);
; 938  : }
; 939  : 
; 940  : void CTextShowPosition::SetShow(const bool bShow)
; 941  : {
; 942  : 	m_bShow = bShow;
; 943  : }
; 944  : 
; 945  : bool CTextShowPosition::IsShow() const
; 946  : {
; 947  : 	return m_bShow;
; 948  : }
; 949  : 
; 950  : // protected ==================================================================
; 951  : // <Horz>
; 952  : // <Show>0<\\Show>
; 953  : // <\\Horz>
; 954  : CString CTextShowPosition::GetSavedRealTextPositionData() const
; 955  : {
; 956  : 	CString strSaved;
; 957  : 	strSaved.Format("<Horz>\r\n%s<\\Horz>\r\n", 
; 958  : 		CTextPosition::GetDataOfOneLine(m_bShow, "Show"));// 2008.08.20    
; 959  : 	return strSaved;
; 960  : }
; 961  : 
; 962  : 
; 963  : ///////////////////////////////////////////////////////////////////////////////
; 964  : // class CTextHorzPosition
; 965  : 
; 966  : CTextHorzPosition::CTextHorzPosition():
; 967  : 	m_bLeft(true),
; 968  : 	m_bRight(true)
; 969  : {
; 970  : }
; 971  : 
; 972  : CTextHorzPosition::CTextHorzPosition(const CTextEnvironment& environment, const bool bLeft, const bool bRight, const bool bRightRate):
; 973  : 	CTextPosition(environment), 
; 974  : 	m_bLeft(bLeft),
; 975  : 	m_bRight(bRight),
; 976  : 	m_bRightRate(bRightRate)
; 977  : {
; 978  : }
; 979  : 
; 980  : CTextHorzPosition::CTextHorzPosition(const CTextHorzPosition& position):
; 981  : 	CTextPosition(position.GetTextEnvironment()), 
; 982  : 	m_bLeft(position.GetLeft()),
; 983  : 	m_bRight(position.GetRight()),
; 984  : 	m_bRightRate(position.GetRightRate())
; 985  : {
; 986  : }
; 987  : 
; 988  : 
; 989  : // public =====================================================================
; 990  : void CTextHorzPosition::Set(const CTextPosition* pTextPosition)
; 991  : {
; 992  : 	if(pTextPosition == NULL)
; 993  : 		return;
; 994  : 
; 995  : 	CTextHorzPosition* pTextHorzPosition = (CTextHorzPosition*) pTextPosition;
; 996  : 	assert(pTextHorzPosition != NULL);
; 997  : 	SetLeft(pTextHorzPosition->GetLeft());
; 998  : 	SetRight(pTextHorzPosition->GetRight());
; 999  : 	SetRightRate(pTextHorzPosition->GetRightRate());
; 1000 : 
; 1001 : 	CTextPosition::Set(pTextPosition);
; 1002 : }
; 1003 : 
; 1004 : void CTextHorzPosition::SetLeft(const bool bLeft)
; 1005 : {
; 1006 : 	m_bLeft = bLeft;
; 1007 : }
; 1008 : 
; 1009 : void CTextHorzPosition::SetRight(const bool bRight)
; 1010 : {
; 1011 : 	m_bRight = bRight;
; 1012 : }
; 1013 : 
; 1014 : void CTextHorzPosition::SetRightRate(const bool bValue)
; 1015 : {
; 1016 : 	m_bRightRate = bValue;
; 1017 : }
; 1018 : 
; 1019 : bool CTextHorzPosition::GetLeft() const
; 1020 : {
; 1021 : 	return m_bLeft;
; 1022 : }
; 1023 : 
; 1024 : bool CTextHorzPosition::GetRight() const
; 1025 : {
; 1026 : 	return m_bRight;
; 1027 : }
; 1028 : 
; 1029 : bool CTextHorzPosition::GetRightRate() const
; 1030 : {
; 1031 : 	return m_bRightRate;
; 1032 : }
; 1033 : 
; 1034 : // protected ==================================================================
; 1035 : // <Horz>
; 1036 : // <Left>0<\\Left>
; 1037 : // <Right>0<\\Right>
; 1038 : // <Rate>0<\\Rate>
; 1039 : // <\\Horz>
; 1040 : CString CTextHorzPosition::GetSavedRealTextPositionData() const
; 1041 : {
; 1042 : 	CString strSaved;
; 1043 : 	strSaved.Format("<Horz>\r\n%s%s%s<\\Horz>\r\n", 
; 1044 : 		CTextPosition::GetDataOfOneLine(m_bLeft, "Left"), 
; 1045 : 		CTextPosition::GetDataOfOneLine(m_bRight, "Right"),
; 1046 : 		CTextPosition::GetDataOfOneLine(m_bRightRate, "Rate"));
; 1047 : 	return strSaved;
; 1048 : }
; 1049 : 
; 1050 : 
; 1051 : ///////////////////////////////////////////////////////////////////////////////
; 1052 : // class CTextVertPosition
; 1053 : 
; 1054 : CTextVertPosition::CTextVertPosition():
; 1055 : 	m_bTop(true),
; 1056 : 	m_bBottom(true)
; 1057 : {
; 1058 : }
; 1059 : 
; 1060 : CTextVertPosition::CTextVertPosition(const CTextEnvironment& environment, const bool bTop, const bool bBottom):
; 1061 : 	CTextPosition(environment), 
; 1062 : 	m_bTop(bTop),
; 1063 : 	m_bBottom(bBottom)
; 1064 : {
; 1065 : }
; 1066 : 
; 1067 : CTextVertPosition::CTextVertPosition(const CTextVertPosition& position):
; 1068 : 	CTextPosition(position.GetTextEnvironment()), 
; 1069 : 	m_bTop(position.GetTop()),

  00012	0f b6 42 08	 movzx	 eax, BYTE PTR [edx+8]
  00016	88 41 08	 mov	 BYTE PTR [ecx+8], al

; 1070 : 	m_bBottom(position.GetBottom())

  00019	0f b6 42 09	 movzx	 eax, BYTE PTR [edx+9]
  0001d	88 41 09	 mov	 BYTE PTR [ecx+9], al

; 1072 : }

  00020	8b c1		 mov	 eax, ecx
  00022	5d		 pop	 ebp
  00023	c2 04 00	 ret	 4
??0CTextVertPosition@@QAE@ABV0@@Z ENDP			; CTextVertPosition::CTextVertPosition
_TEXT	ENDS
; Function compile flags: /Ogtp
; File D:\git\src\IBK\IBK_DRFN\ProjSrc\SrcChartEx\ChartAddIn\ChartAnalysisToolAddIn\Include_Analysis\ElementEnvironment.cpp
;	COMDAT ??0CTextVertPosition@@QAE@ABVCTextEnvironment@@_N1@Z
_TEXT	SEGMENT
_environment$ = 8					; size = 4
_bTop$ = 12						; size = 1
_bBottom$ = 16						; size = 1
??0CTextVertPosition@@QAE@ABVCTextEnvironment@@_N1@Z PROC ; CTextVertPosition::CTextVertPosition, COMDAT
; _this$ = ecx

; 1064 : {

  00000	55		 push	 ebp
  00001	8b ec		 mov	 ebp, esp

; 765  : 	m_color = environment.GetColor();

  00003	8b 45 08	 mov	 eax, DWORD PTR _environment$[ebp]

; 831  : {

  00006	c7 01 00 00 00
	00		 mov	 DWORD PTR [ecx], OFFSET ??_7CTextPosition@@6B@

; 765  : 	m_color = environment.GetColor();

  0000c	8b 00		 mov	 eax, DWORD PTR [eax]
  0000e	89 41 04	 mov	 DWORD PTR [ecx+4], eax

; 832  : }
; 833  : 
; 834  : // public =====================================================================
; 835  : void CTextPosition::Set(const CTextPosition* pTextPosition)
; 836  : {
; 837  : 	if(pTextPosition == NULL)
; 838  : 		return;
; 839  : 	SetTextEnvironment(pTextPosition->GetTextEnvironment());
; 840  : }
; 841  : 
; 842  : void CTextPosition::SetTextEnvironment(const CTextEnvironment& textEnvironment)
; 843  : {
; 844  : 	m_textEnvironment = textEnvironment;
; 845  : }
; 846  : 
; 847  : // ----------------------------------------------------------------------------
; 848  : CTextEnvironment CTextPosition::GetTextEnvironment() const
; 849  : {
; 850  : 	return m_textEnvironment;
; 851  : }
; 852  : 
; 853  : CTextEnvironment& CTextPosition::GetTextEnvironment()
; 854  : {
; 855  : 	return m_textEnvironment;
; 856  : }
; 857  : 
; 858  : // <PartEnvironment>
; 859  : // <TextEnvironment>
; 860  : // <Color>0,0,0<\\Color>
; 861  : // <\\TextEnvironment>
; 862  : // <TextPosition>
; 863  : // ...
; 864  : // <\\TextPosition>
; 865  : // <\\PartEnvironment>
; 866  : CString CTextPosition::GetSavedData() const
; 867  : {
; 868  : 	CString strSaved;
; 869  : 	strSaved.Format("<PartEnvironment>\r\n%s%s<\\PartEnvironment>\r\n", 
; 870  : 		m_textEnvironment.GetSavedData(), GetSavedData_TextPosition());
; 871  : 	return strSaved;
; 872  : }
; 873  : 
; 874  : 
; 875  : // protected ==================================================================
; 876  : CString CTextPosition::GetDataOfOneLine(const bool bData, const CString& strData) const
; 877  : {
; 878  : 	CString data;
; 879  : 	data.Format("<%s>%d<\\%s>\r\n", strData, bData, strData);
; 880  : 	return data;
; 881  : }
; 882  : 
; 883  : // private ====================================================================
; 884  : // <TextPosition>
; 885  : // <Horz>
; 886  : // <Show>0<\\Show>
; 887  : // <\\Horz>
; 888  : // <Horz>
; 889  : // <Left>0<\\Left>
; 890  : // <Right>0<\\Right>
; 891  : // <\\Horz>
; 892  : // <Vert>
; 893  : // <Top>0<\\Top>
; 894  : // <Bottom>0<\\Bottom>
; 895  : // <\\Vert>
; 896  : // <\\TextPosition>
; 897  : CString CTextPosition::GetSavedData_TextPosition() const
; 898  : {
; 899  : 	CString strSaved;
; 900  : 	strSaved.Format("<TextPosition>\r\n%s<\\TextPosition>\r\n", 
; 901  : 		GetSavedRealTextPositionData());
; 902  : 	return strSaved;
; 903  : }
; 904  : 
; 905  : 
; 906  : ///////////////////////////////////////////////////////////////////////////////
; 907  : // class CTextShowPosition
; 908  : 
; 909  : CTextShowPosition::CTextShowPosition():
; 910  : 	m_bShow(true)
; 911  : {
; 912  : }
; 913  : 
; 914  : CTextShowPosition::CTextShowPosition(const CTextEnvironment& environment, const bool bShow):
; 915  : 	CTextPosition(environment), 
; 916  : 	m_bShow(bShow)
; 917  : {
; 918  : }
; 919  : 
; 920  : CTextShowPosition::CTextShowPosition(const CTextShowPosition& position):
; 921  : 	CTextPosition(position.GetTextEnvironment()), 
; 922  : 	m_bShow(position.IsShow())
; 923  : {
; 924  : }
; 925  : 
; 926  : 
; 927  : // public =====================================================================
; 928  : void CTextShowPosition::Set(const CTextPosition* pTextPosition)
; 929  : {
; 930  : 	if(pTextPosition == NULL)
; 931  : 		return;
; 932  : 
; 933  : 	CTextShowPosition* pTextShowPosition = (CTextShowPosition*) pTextPosition;
; 934  : 	assert(pTextShowPosition != NULL);
; 935  : 	SetShow(pTextShowPosition->IsShow());
; 936  : 
; 937  : 	CTextPosition::Set(pTextPosition);
; 938  : }
; 939  : 
; 940  : void CTextShowPosition::SetShow(const bool bShow)
; 941  : {
; 942  : 	m_bShow = bShow;
; 943  : }
; 944  : 
; 945  : bool CTextShowPosition::IsShow() const
; 946  : {
; 947  : 	return m_bShow;
; 948  : }
; 949  : 
; 950  : // protected ==================================================================
; 951  : // <Horz>
; 952  : // <Show>0<\\Show>
; 953  : // <\\Horz>
; 954  : CString CTextShowPosition::GetSavedRealTextPositionData() const
; 955  : {
; 956  : 	CString strSaved;
; 957  : 	strSaved.Format("<Horz>\r\n%s<\\Horz>\r\n", 
; 958  : 		CTextPosition::GetDataOfOneLine(m_bShow, "Show"));// 2008.08.20    
; 959  : 	return strSaved;
; 960  : }
; 961  : 
; 962  : 
; 963  : ///////////////////////////////////////////////////////////////////////////////
; 964  : // class CTextHorzPosition
; 965  : 
; 966  : CTextHorzPosition::CTextHorzPosition():
; 967  : 	m_bLeft(true),
; 968  : 	m_bRight(true)
; 969  : {
; 970  : }
; 971  : 
; 972  : CTextHorzPosition::CTextHorzPosition(const CTextEnvironment& environment, const bool bLeft, const bool bRight, const bool bRightRate):
; 973  : 	CTextPosition(environment), 
; 974  : 	m_bLeft(bLeft),
; 975  : 	m_bRight(bRight),
; 976  : 	m_bRightRate(bRightRate)
; 977  : {
; 978  : }
; 979  : 
; 980  : CTextHorzPosition::CTextHorzPosition(const CTextHorzPosition& position):
; 981  : 	CTextPosition(position.GetTextEnvironment()), 
; 982  : 	m_bLeft(position.GetLeft()),
; 983  : 	m_bRight(position.GetRight()),
; 984  : 	m_bRightRate(position.GetRightRate())
; 985  : {
; 986  : }
; 987  : 
; 988  : 
; 989  : // public =====================================================================
; 990  : void CTextHorzPosition::Set(const CTextPosition* pTextPosition)
; 991  : {
; 992  : 	if(pTextPosition == NULL)
; 993  : 		return;
; 994  : 
; 995  : 	CTextHorzPosition* pTextHorzPosition = (CTextHorzPosition*) pTextPosition;
; 996  : 	assert(pTextHorzPosition != NULL);
; 997  : 	SetLeft(pTextHorzPosition->GetLeft());
; 998  : 	SetRight(pTextHorzPosition->GetRight());
; 999  : 	SetRightRate(pTextHorzPosition->GetRightRate());
; 1000 : 
; 1001 : 	CTextPosition::Set(pTextPosition);
; 1002 : }
; 1003 : 
; 1004 : void CTextHorzPosition::SetLeft(const bool bLeft)
; 1005 : {
; 1006 : 	m_bLeft = bLeft;
; 1007 : }
; 1008 : 
; 1009 : void CTextHorzPosition::SetRight(const bool bRight)
; 1010 : {
; 1011 : 	m_bRight = bRight;
; 1012 : }
; 1013 : 
; 1014 : void CTextHorzPosition::SetRightRate(const bool bValue)
; 1015 : {
; 1016 : 	m_bRightRate = bValue;
; 1017 : }
; 1018 : 
; 1019 : bool CTextHorzPosition::GetLeft() const
; 1020 : {
; 1021 : 	return m_bLeft;
; 1022 : }
; 1023 : 
; 1024 : bool CTextHorzPosition::GetRight() const
; 1025 : {
; 1026 : 	return m_bRight;
; 1027 : }
; 1028 : 
; 1029 : bool CTextHorzPosition::GetRightRate() const
; 1030 : {
; 1031 : 	return m_bRightRate;
; 1032 : }
; 1033 : 
; 1034 : // protected ==================================================================
; 1035 : // <Horz>
; 1036 : // <Left>0<\\Left>
; 1037 : // <Right>0<\\Right>
; 1038 : // <Rate>0<\\Rate>
; 1039 : // <\\Horz>
; 1040 : CString CTextHorzPosition::GetSavedRealTextPositionData() const
; 1041 : {
; 1042 : 	CString strSaved;
; 1043 : 	strSaved.Format("<Horz>\r\n%s%s%s<\\Horz>\r\n", 
; 1044 : 		CTextPosition::GetDataOfOneLine(m_bLeft, "Left"), 
; 1045 : 		CTextPosition::GetDataOfOneLine(m_bRight, "Right"),
; 1046 : 		CTextPosition::GetDataOfOneLine(m_bRightRate, "Rate"));
; 1047 : 	return strSaved;
; 1048 : }
; 1049 : 
; 1050 : 
; 1051 : ///////////////////////////////////////////////////////////////////////////////
; 1052 : // class CTextVertPosition
; 1053 : 
; 1054 : CTextVertPosition::CTextVertPosition():
; 1055 : 	m_bTop(true),
; 1056 : 	m_bBottom(true)
; 1057 : {
; 1058 : }
; 1059 : 
; 1060 : CTextVertPosition::CTextVertPosition(const CTextEnvironment& environment, const bool bTop, const bool bBottom):
; 1061 : 	CTextPosition(environment), 
; 1062 : 	m_bTop(bTop),

  00011	8a 45 0c	 mov	 al, BYTE PTR _bTop$[ebp]
  00014	88 41 08	 mov	 BYTE PTR [ecx+8], al

; 1063 : 	m_bBottom(bBottom)

  00017	8a 45 10	 mov	 al, BYTE PTR _bBottom$[ebp]
  0001a	88 41 09	 mov	 BYTE PTR [ecx+9], al

; 1065 : }

  0001d	8b c1		 mov	 eax, ecx
  0001f	c7 01 00 00 00
	00		 mov	 DWORD PTR [ecx], OFFSET ??_7CTextVertPosition@@6B@
  00025	5d		 pop	 ebp
  00026	c2 0c 00	 ret	 12			; 0000000cH
??0CTextVertPosition@@QAE@ABVCTextEnvironment@@_N1@Z ENDP ; CTextVertPosition::CTextVertPosition
_TEXT	ENDS
; Function compile flags: /Ogtp
; File D:\git\src\IBK\IBK_DRFN\ProjSrc\SrcChartEx\ChartAddIn\ChartAnalysisToolAddIn\Include_Analysis\ElementEnvironment.cpp
;	COMDAT ??0CTextVertPosition@@QAE@XZ
_TEXT	SEGMENT
??0CTextVertPosition@@QAE@XZ PROC			; CTextVertPosition::CTextVertPosition, COMDAT
; _this$ = ecx

; 754  : 	m_color(RGB(0, 0, 0))

  00000	c7 41 04 00 00
	00 00		 mov	 DWORD PTR [ecx+4], 0

; 1058 : }

  00007	8b c1		 mov	 eax, ecx
  00009	c7 01 00 00 00
	00		 mov	 DWORD PTR [ecx], OFFSET ??_7CTextVertPosition@@6B@
  0000f	66 c7 41 08 01
	01		 mov	 WORD PTR [ecx+8], 257	; 00000101H
  00015	c3		 ret	 0
??0CTextVertPosition@@QAE@XZ ENDP			; CTextVertPosition::CTextVertPosition
_TEXT	ENDS
; Function compile flags: /Ogtp
; File D:\git\src\IBK\IBK_DRFN\ProjSrc\SrcChartEx\ChartAddIn\ChartAnalysisToolAddIn\Include_Analysis\ElementEnvironment.cpp
;	COMDAT ?GetSavedRealTextPositionData@CTextHorzPosition@@MBE?AV?$CStringT@DV?$StrTraitMFC_DLL@DV?$ChTraitsCRT@D@ATL@@@@@ATL@@XZ
_TEXT	SEGMENT
$T2 = -40						; size = 4
$T3 = -36						; size = 4
$T4 = -32						; size = 4
$T5 = -28						; size = 4
$T6 = -24						; size = 4
$T7 = -20						; size = 4
$T8 = -16						; size = 4
__$EHRec$ = -12						; size = 12
___$ReturnUdt$ = 8					; size = 4
?GetSavedRealTextPositionData@CTextHorzPosition@@MBE?AV?$CStringT@DV?$StrTraitMFC_DLL@DV?$ChTraitsCRT@D@ATL@@@@@ATL@@XZ PROC ; CTextHorzPosition::GetSavedRealTextPositionData, COMDAT
; _this$ = ecx

; 1041 : {

  00000	55		 push	 ebp
  00001	8b ec		 mov	 ebp, esp
  00003	6a ff		 push	 -1
  00005	68 00 00 00 00	 push	 __ehhandler$?GetSavedRealTextPositionData@CTextHorzPosition@@MBE?AV?$CStringT@DV?$StrTraitMFC_DLL@DV?$ChTraitsCRT@D@ATL@@@@@ATL@@XZ
  0000a	64 a1 00 00 00
	00		 mov	 eax, DWORD PTR fs:0
  00010	50		 push	 eax
  00011	83 ec 1c	 sub	 esp, 28			; 0000001cH
  00014	53		 push	 ebx
  00015	56		 push	 esi
  00016	57		 push	 edi
  00017	a1 00 00 00 00	 mov	 eax, DWORD PTR ___security_cookie
  0001c	33 c5		 xor	 eax, ebp
  0001e	50		 push	 eax
  0001f	8d 45 f4	 lea	 eax, DWORD PTR __$EHRec$[ebp]
  00022	64 a3 00 00 00
	00		 mov	 DWORD PTR fs:0, eax
  00028	8b f9		 mov	 edi, ecx
  0002a	c7 45 f0 00 00
	00 00		 mov	 DWORD PTR $T8[ebp], 0

; 1042 : 	CString strSaved;

  00031	8b 4d 08	 mov	 ecx, DWORD PTR ___$ReturnUdt$[ebp]
  00034	ff 15 00 00 00
	00		 call	 DWORD PTR __imp_??0?$CStringT@DV?$StrTraitMFC_DLL@DV?$ChTraitsCRT@D@ATL@@@@@ATL@@QAE@XZ

; 1044 : 		CTextPosition::GetDataOfOneLine(m_bLeft, "Left"), 
; 1045 : 		CTextPosition::GetDataOfOneLine(m_bRight, "Right"),
; 1046 : 		CTextPosition::GetDataOfOneLine(m_bRightRate, "Rate"));
; 1047 : 	return strSaved;

  0003a	68 00 00 00 00	 push	 OFFSET ??_C@_04LDOGFLEB@Rate@
  0003f	8d 4d d8	 lea	 ecx, DWORD PTR $T2[ebp]
  00042	c7 45 fc 00 00
	00 00		 mov	 DWORD PTR __$EHRec$[ebp+8], 0
  00049	c7 45 f0 01 00
	00 00		 mov	 DWORD PTR $T8[ebp], 1
  00050	ff 15 00 00 00
	00		 call	 DWORD PTR __imp_??0?$CStringT@DV?$StrTraitMFC_DLL@DV?$ChTraitsCRT@D@ATL@@@@@ATL@@QAE@PBD@Z
  00056	68 00 00 00 00	 push	 OFFSET ??_C@_05DADPALEM@Right@
  0005b	8d 4d dc	 lea	 ecx, DWORD PTR $T3[ebp]
  0005e	c7 45 fc 01 00
	00 00		 mov	 DWORD PTR __$EHRec$[ebp+8], 1
  00065	ff 15 00 00 00
	00		 call	 DWORD PTR __imp_??0?$CStringT@DV?$StrTraitMFC_DLL@DV?$ChTraitsCRT@D@ATL@@@@@ATL@@QAE@PBD@Z
  0006b	68 00 00 00 00	 push	 OFFSET ??_C@_04KPCPLBPL@Left@
  00070	8d 4d e0	 lea	 ecx, DWORD PTR $T4[ebp]
  00073	c6 45 fc 02	 mov	 BYTE PTR __$EHRec$[ebp+8], 2
  00077	ff 15 00 00 00
	00		 call	 DWORD PTR __imp_??0?$CStringT@DV?$StrTraitMFC_DLL@DV?$ChTraitsCRT@D@ATL@@@@@ATL@@QAE@PBD@Z
  0007d	8a 5f 0a	 mov	 bl, BYTE PTR [edi+10]

; 878  : 	CString data;

  00080	8d 4d e4	 lea	 ecx, DWORD PTR $T5[ebp]

; 1043 : 	strSaved.Format("<Horz>\r\n%s%s%s<\\Horz>\r\n", 

  00083	c6 45 fc 04	 mov	 BYTE PTR __$EHRec$[ebp+8], 4

; 878  : 	CString data;

  00087	ff 15 00 00 00
	00		 call	 DWORD PTR __imp_??0?$CStringT@DV?$StrTraitMFC_DLL@DV?$ChTraitsCRT@D@ATL@@@@@ATL@@QAE@XZ

; 879  : 	data.Format("<%s>%d<\\%s>\r\n", strData, bData, strData);

  0008d	8b 45 d8	 mov	 eax, DWORD PTR $T2[ebp]
  00090	8b 35 00 00 00
	00		 mov	 esi, DWORD PTR __imp_?Format@?$CStringT@DV?$StrTraitMFC_DLL@DV?$ChTraitsCRT@D@ATL@@@@@ATL@@QAAXPBDZZ
  00096	50		 push	 eax
  00097	0f b6 cb	 movzx	 ecx, bl
  0009a	51		 push	 ecx
  0009b	50		 push	 eax
  0009c	8d 45 e4	 lea	 eax, DWORD PTR $T5[ebp]

; 880  : 	return data;

  0009f	c7 45 f0 03 00
	00 00		 mov	 DWORD PTR $T8[ebp], 3
  000a6	68 00 00 00 00	 push	 OFFSET ??_C@_0O@LNMCLPEF@?$DM?$CFs?$DO?$CFd?$DM?2?$CFs?$DO?$AN?6@
  000ab	50		 push	 eax
  000ac	ff d6		 call	 esi

; 1043 : 	strSaved.Format("<Horz>\r\n%s%s%s<\\Horz>\r\n", 

  000ae	8a 5f 09	 mov	 bl, BYTE PTR [edi+9]

; 879  : 	data.Format("<%s>%d<\\%s>\r\n", strData, bData, strData);

  000b1	83 c4 14	 add	 esp, 20			; 00000014H

; 878  : 	CString data;

  000b4	8d 4d e8	 lea	 ecx, DWORD PTR $T6[ebp]

; 1043 : 	strSaved.Format("<Horz>\r\n%s%s%s<\\Horz>\r\n", 

  000b7	c6 45 fc 05	 mov	 BYTE PTR __$EHRec$[ebp+8], 5

; 878  : 	CString data;

  000bb	ff 15 00 00 00
	00		 call	 DWORD PTR __imp_??0?$CStringT@DV?$StrTraitMFC_DLL@DV?$ChTraitsCRT@D@ATL@@@@@ATL@@QAE@XZ

; 879  : 	data.Format("<%s>%d<\\%s>\r\n", strData, bData, strData);

  000c1	8b 45 dc	 mov	 eax, DWORD PTR $T3[ebp]
  000c4	50		 push	 eax
  000c5	0f b6 cb	 movzx	 ecx, bl
  000c8	51		 push	 ecx
  000c9	50		 push	 eax
  000ca	8d 45 e8	 lea	 eax, DWORD PTR $T6[ebp]

; 880  : 	return data;

  000cd	c7 45 f0 07 00
	00 00		 mov	 DWORD PTR $T8[ebp], 7
  000d4	68 00 00 00 00	 push	 OFFSET ??_C@_0O@LNMCLPEF@?$DM?$CFs?$DO?$CFd?$DM?2?$CFs?$DO?$AN?6@
  000d9	50		 push	 eax
  000da	ff d6		 call	 esi

; 1043 : 	strSaved.Format("<Horz>\r\n%s%s%s<\\Horz>\r\n", 

  000dc	8a 5f 08	 mov	 bl, BYTE PTR [edi+8]

; 879  : 	data.Format("<%s>%d<\\%s>\r\n", strData, bData, strData);

  000df	83 c4 14	 add	 esp, 20			; 00000014H

; 878  : 	CString data;

  000e2	8d 4d ec	 lea	 ecx, DWORD PTR $T7[ebp]

; 1043 : 	strSaved.Format("<Horz>\r\n%s%s%s<\\Horz>\r\n", 

  000e5	c6 45 fc 06	 mov	 BYTE PTR __$EHRec$[ebp+8], 6

; 878  : 	CString data;

  000e9	ff 15 00 00 00
	00		 call	 DWORD PTR __imp_??0?$CStringT@DV?$StrTraitMFC_DLL@DV?$ChTraitsCRT@D@ATL@@@@@ATL@@QAE@XZ

; 879  : 	data.Format("<%s>%d<\\%s>\r\n", strData, bData, strData);

  000ef	8b 45 e0	 mov	 eax, DWORD PTR $T4[ebp]
  000f2	50		 push	 eax
  000f3	0f b6 cb	 movzx	 ecx, bl
  000f6	51		 push	 ecx
  000f7	50		 push	 eax
  000f8	8d 45 ec	 lea	 eax, DWORD PTR $T7[ebp]

; 880  : 	return data;

  000fb	c7 45 f0 0f 00
	00 00		 mov	 DWORD PTR $T8[ebp], 15	; 0000000fH
  00102	68 00 00 00 00	 push	 OFFSET ??_C@_0O@LNMCLPEF@?$DM?$CFs?$DO?$CFd?$DM?2?$CFs?$DO?$AN?6@
  00107	50		 push	 eax
  00108	ff d6		 call	 esi

; 1043 : 	strSaved.Format("<Horz>\r\n%s%s%s<\\Horz>\r\n", 

  0010a	ff 75 e4	 push	 DWORD PTR $T5[ebp]
  0010d	8b 7d 08	 mov	 edi, DWORD PTR ___$ReturnUdt$[ebp]
  00110	ff 75 e8	 push	 DWORD PTR $T6[ebp]
  00113	ff 75 ec	 push	 DWORD PTR $T7[ebp]
  00116	68 00 00 00 00	 push	 OFFSET ??_C@_0BI@GMNKDDJL@?$DMHorz?$DO?$AN?6?$CFs?$CFs?$CFs?$DM?2Horz?$DO?$AN?6@
  0011b	57		 push	 edi
  0011c	ff d6		 call	 esi
  0011e	83 c4 28	 add	 esp, 40			; 00000028H
  00121	8d 4d ec	 lea	 ecx, DWORD PTR $T7[ebp]
  00124	ff 15 00 00 00
	00		 call	 DWORD PTR __imp_??1?$CStringT@DV?$StrTraitMFC_DLL@DV?$ChTraitsCRT@D@ATL@@@@@ATL@@QAE@XZ
  0012a	8d 4d e8	 lea	 ecx, DWORD PTR $T6[ebp]
  0012d	ff 15 00 00 00
	00		 call	 DWORD PTR __imp_??1?$CStringT@DV?$StrTraitMFC_DLL@DV?$ChTraitsCRT@D@ATL@@@@@ATL@@QAE@XZ
  00133	8d 4d e4	 lea	 ecx, DWORD PTR $T5[ebp]
  00136	ff 15 00 00 00
	00		 call	 DWORD PTR __imp_??1?$CStringT@DV?$StrTraitMFC_DLL@DV?$ChTraitsCRT@D@ATL@@@@@ATL@@QAE@XZ
  0013c	8d 4d e0	 lea	 ecx, DWORD PTR $T4[ebp]
  0013f	ff 15 00 00 00
	00		 call	 DWORD PTR __imp_??1?$CStringT@DV?$StrTraitMFC_DLL@DV?$ChTraitsCRT@D@ATL@@@@@ATL@@QAE@XZ
  00145	8d 4d dc	 lea	 ecx, DWORD PTR $T3[ebp]
  00148	ff 15 00 00 00
	00		 call	 DWORD PTR __imp_??1?$CStringT@DV?$StrTraitMFC_DLL@DV?$ChTraitsCRT@D@ATL@@@@@ATL@@QAE@XZ
  0014e	8d 4d d8	 lea	 ecx, DWORD PTR $T2[ebp]
  00151	ff 15 00 00 00
	00		 call	 DWORD PTR __imp_??1?$CStringT@DV?$StrTraitMFC_DLL@DV?$ChTraitsCRT@D@ATL@@@@@ATL@@QAE@XZ

; 1044 : 		CTextPosition::GetDataOfOneLine(m_bLeft, "Left"), 
; 1045 : 		CTextPosition::GetDataOfOneLine(m_bRight, "Right"),
; 1046 : 		CTextPosition::GetDataOfOneLine(m_bRightRate, "Rate"));
; 1047 : 	return strSaved;

  00157	8b c7		 mov	 eax, edi

; 1048 : }

  00159	8b 4d f4	 mov	 ecx, DWORD PTR __$EHRec$[ebp]
  0015c	64 89 0d 00 00
	00 00		 mov	 DWORD PTR fs:0, ecx
  00163	59		 pop	 ecx
  00164	5f		 pop	 edi
  00165	5e		 pop	 esi
  00166	5b		 pop	 ebx
  00167	8b e5		 mov	 esp, ebp
  00169	5d		 pop	 ebp
  0016a	c2 04 00	 ret	 4
_TEXT	ENDS
;	COMDAT text$x
text$x	SEGMENT
__unwindfunclet$?GetSavedRealTextPositionData@CTextHorzPosition@@MBE?AV?$CStringT@DV?$StrTraitMFC_DLL@DV?$ChTraitsCRT@D@ATL@@@@@ATL@@XZ$0:
  00000	8b 45 f0	 mov	 eax, DWORD PTR $T8[ebp]
  00003	83 e0 01	 and	 eax, 1
  00006	0f 84 0d 00 00
	00		 je	 $LN4@GetSavedRe
  0000c	83 65 f0 fe	 and	 DWORD PTR $T8[ebp], -2	; fffffffeH
  00010	8b 4d 08	 mov	 ecx, DWORD PTR ___$ReturnUdt$[ebp]
  00013	ff 25 00 00 00
	00		 jmp	 DWORD PTR __imp_??1?$CStringT@DV?$StrTraitMFC_DLL@DV?$ChTraitsCRT@D@ATL@@@@@ATL@@QAE@XZ
$LN4@GetSavedRe:
  00019	c3		 ret	 0
__unwindfunclet$?GetSavedRealTextPositionData@CTextHorzPosition@@MBE?AV?$CStringT@DV?$StrTraitMFC_DLL@DV?$ChTraitsCRT@D@ATL@@@@@ATL@@XZ$1:
  0001a	8d 4d d8	 lea	 ecx, DWORD PTR $T2[ebp]
  0001d	ff 25 00 00 00
	00		 jmp	 DWORD PTR __imp_??1?$CStringT@DV?$StrTraitMFC_DLL@DV?$ChTraitsCRT@D@ATL@@@@@ATL@@QAE@XZ
__unwindfunclet$?GetSavedRealTextPositionData@CTextHorzPosition@@MBE?AV?$CStringT@DV?$StrTraitMFC_DLL@DV?$ChTraitsCRT@D@ATL@@@@@ATL@@XZ$2:
  00023	8d 4d dc	 lea	 ecx, DWORD PTR $T3[ebp]
  00026	ff 25 00 00 00
	00		 jmp	 DWORD PTR __imp_??1?$CStringT@DV?$StrTraitMFC_DLL@DV?$ChTraitsCRT@D@ATL@@@@@ATL@@QAE@XZ
__unwindfunclet$?GetSavedRealTextPositionData@CTextHorzPosition@@MBE?AV?$CStringT@DV?$StrTraitMFC_DLL@DV?$ChTraitsCRT@D@ATL@@@@@ATL@@XZ$3:
  0002c	8d 4d e0	 lea	 ecx, DWORD PTR $T4[ebp]
  0002f	ff 25 00 00 00
	00		 jmp	 DWORD PTR __imp_??1?$CStringT@DV?$StrTraitMFC_DLL@DV?$ChTraitsCRT@D@ATL@@@@@ATL@@QAE@XZ
__unwindfunclet$?GetSavedRealTextPositionData@CTextHorzPosition@@MBE?AV?$CStringT@DV?$StrTraitMFC_DLL@DV?$ChTraitsCRT@D@ATL@@@@@ATL@@XZ$7:
  00035	8b 45 f0	 mov	 eax, DWORD PTR $T8[ebp]
  00038	83 e0 02	 and	 eax, 2
  0003b	0f 84 0d 00 00
	00		 je	 $LN14@GetSavedRe
  00041	83 65 f0 fd	 and	 DWORD PTR $T8[ebp], -3	; fffffffdH
  00045	8d 4d e4	 lea	 ecx, DWORD PTR $T5[ebp]
  00048	ff 25 00 00 00
	00		 jmp	 DWORD PTR __imp_??1?$CStringT@DV?$StrTraitMFC_DLL@DV?$ChTraitsCRT@D@ATL@@@@@ATL@@QAE@XZ
$LN14@GetSavedRe:
  0004e	c3		 ret	 0
__unwindfunclet$?GetSavedRealTextPositionData@CTextHorzPosition@@MBE?AV?$CStringT@DV?$StrTraitMFC_DLL@DV?$ChTraitsCRT@D@ATL@@@@@ATL@@XZ$8:
  0004f	8b 45 f0	 mov	 eax, DWORD PTR $T8[ebp]
  00052	83 e0 04	 and	 eax, 4
  00055	0f 84 0d 00 00
	00		 je	 $LN18@GetSavedRe
  0005b	83 65 f0 fb	 and	 DWORD PTR $T8[ebp], -5	; fffffffbH
  0005f	8d 4d e8	 lea	 ecx, DWORD PTR $T6[ebp]
  00062	ff 25 00 00 00
	00		 jmp	 DWORD PTR __imp_??1?$CStringT@DV?$StrTraitMFC_DLL@DV?$ChTraitsCRT@D@ATL@@@@@ATL@@QAE@XZ
$LN18@GetSavedRe:
  00068	c3		 ret	 0
__unwindfunclet$?GetSavedRealTextPositionData@CTextHorzPosition@@MBE?AV?$CStringT@DV?$StrTraitMFC_DLL@DV?$ChTraitsCRT@D@ATL@@@@@ATL@@XZ$9:
  00069	8b 45 f0	 mov	 eax, DWORD PTR $T8[ebp]
  0006c	83 e0 08	 and	 eax, 8
  0006f	0f 84 0d 00 00
	00		 je	 $LN22@GetSavedRe
  00075	83 65 f0 f7	 and	 DWORD PTR $T8[ebp], -9	; fffffff7H
  00079	8d 4d ec	 lea	 ecx, DWORD PTR $T7[ebp]
  0007c	ff 25 00 00 00
	00		 jmp	 DWORD PTR __imp_??1?$CStringT@DV?$StrTraitMFC_DLL@DV?$ChTraitsCRT@D@ATL@@@@@ATL@@QAE@XZ
$LN22@GetSavedRe:
  00082	c3		 ret	 0
  00083	cc		 int	 3
  00084	cc		 int	 3
  00085	cc		 int	 3
  00086	cc		 int	 3
  00087	cc		 int	 3
__ehhandler$?GetSavedRealTextPositionData@CTextHorzPosition@@MBE?AV?$CStringT@DV?$StrTraitMFC_DLL@DV?$ChTraitsCRT@D@ATL@@@@@ATL@@XZ:
  00088	90		 npad	 1
  00089	90		 npad	 1
  0008a	8b 54 24 08	 mov	 edx, DWORD PTR [esp+8]
  0008e	8d 42 0c	 lea	 eax, DWORD PTR [edx+12]
  00091	8b 4a d4	 mov	 ecx, DWORD PTR [edx-44]
  00094	33 c8		 xor	 ecx, eax
  00096	e8 00 00 00 00	 call	 @__security_check_cookie@4
  0009b	b8 00 00 00 00	 mov	 eax, OFFSET __ehfuncinfo$?GetSavedRealTextPositionData@CTextHorzPosition@@MBE?AV?$CStringT@DV?$StrTraitMFC_DLL@DV?$ChTraitsCRT@D@ATL@@@@@ATL@@XZ
  000a0	e9 00 00 00 00	 jmp	 ___CxxFrameHandler3
text$x	ENDS
?GetSavedRealTextPositionData@CTextHorzPosition@@MBE?AV?$CStringT@DV?$StrTraitMFC_DLL@DV?$ChTraitsCRT@D@ATL@@@@@ATL@@XZ ENDP ; CTextHorzPosition::GetSavedRealTextPositionData
; Function compile flags: /Ogtp
; File D:\git\src\IBK\IBK_DRFN\ProjSrc\SrcChartEx\ChartAddIn\ChartAnalysisToolAddIn\Include_Analysis\ElementEnvironment.cpp
;	COMDAT ?GetRightRate@CTextHorzPosition@@QBE_NXZ
_TEXT	SEGMENT
?GetRightRate@CTextHorzPosition@@QBE_NXZ PROC		; CTextHorzPosition::GetRightRate, COMDAT
; _this$ = ecx

; 1031 : 	return m_bRightRate;

  00000	8a 41 0a	 mov	 al, BYTE PTR [ecx+10]

; 1032 : }

  00003	c3		 ret	 0
?GetRightRate@CTextHorzPosition@@QBE_NXZ ENDP		; CTextHorzPosition::GetRightRate
_TEXT	ENDS
; Function compile flags: /Ogtp
; File D:\git\src\IBK\IBK_DRFN\ProjSrc\SrcChartEx\ChartAddIn\ChartAnalysisToolAddIn\Include_Analysis\ElementEnvironment.cpp
;	COMDAT ?GetRight@CTextHorzPosition@@QBE_NXZ
_TEXT	SEGMENT
?GetRight@CTextHorzPosition@@QBE_NXZ PROC		; CTextHorzPosition::GetRight, COMDAT
; _this$ = ecx

; 1026 : 	return m_bRight;

  00000	8a 41 09	 mov	 al, BYTE PTR [ecx+9]

; 1027 : }

  00003	c3		 ret	 0
?GetRight@CTextHorzPosition@@QBE_NXZ ENDP		; CTextHorzPosition::GetRight
_TEXT	ENDS
; Function compile flags: /Ogtp
; File D:\git\src\IBK\IBK_DRFN\ProjSrc\SrcChartEx\ChartAddIn\ChartAnalysisToolAddIn\Include_Analysis\ElementEnvironment.cpp
;	COMDAT ?GetLeft@CTextHorzPosition@@QBE_NXZ
_TEXT	SEGMENT
?GetLeft@CTextHorzPosition@@QBE_NXZ PROC		; CTextHorzPosition::GetLeft, COMDAT
; _this$ = ecx

; 1021 : 	return m_bLeft;

  00000	8a 41 08	 mov	 al, BYTE PTR [ecx+8]

; 1022 : }

  00003	c3		 ret	 0
?GetLeft@CTextHorzPosition@@QBE_NXZ ENDP		; CTextHorzPosition::GetLeft
_TEXT	ENDS
; Function compile flags: /Ogtp
; File D:\git\src\IBK\IBK_DRFN\ProjSrc\SrcChartEx\ChartAddIn\ChartAnalysisToolAddIn\Include_Analysis\ElementEnvironment.cpp
;	COMDAT ?SetRightRate@CTextHorzPosition@@QAEX_N@Z
_TEXT	SEGMENT
_bValue$ = 8						; size = 1
?SetRightRate@CTextHorzPosition@@QAEX_N@Z PROC		; CTextHorzPosition::SetRightRate, COMDAT
; _this$ = ecx

; 1015 : {

  00000	55		 push	 ebp
  00001	8b ec		 mov	 ebp, esp

; 1016 : 	m_bRightRate = bValue;

  00003	8a 45 08	 mov	 al, BYTE PTR _bValue$[ebp]
  00006	88 41 0a	 mov	 BYTE PTR [ecx+10], al

; 1017 : }

  00009	5d		 pop	 ebp
  0000a	c2 04 00	 ret	 4
?SetRightRate@CTextHorzPosition@@QAEX_N@Z ENDP		; CTextHorzPosition::SetRightRate
_TEXT	ENDS
; Function compile flags: /Ogtp
; File D:\git\src\IBK\IBK_DRFN\ProjSrc\SrcChartEx\ChartAddIn\ChartAnalysisToolAddIn\Include_Analysis\ElementEnvironment.cpp
;	COMDAT ?SetRight@CTextHorzPosition@@QAEX_N@Z
_TEXT	SEGMENT
_bRight$ = 8						; size = 1
?SetRight@CTextHorzPosition@@QAEX_N@Z PROC		; CTextHorzPosition::SetRight, COMDAT
; _this$ = ecx

; 1010 : {

  00000	55		 push	 ebp
  00001	8b ec		 mov	 ebp, esp

; 1011 : 	m_bRight = bRight;

  00003	8a 45 08	 mov	 al, BYTE PTR _bRight$[ebp]
  00006	88 41 09	 mov	 BYTE PTR [ecx+9], al

; 1012 : }

  00009	5d		 pop	 ebp
  0000a	c2 04 00	 ret	 4
?SetRight@CTextHorzPosition@@QAEX_N@Z ENDP		; CTextHorzPosition::SetRight
_TEXT	ENDS
; Function compile flags: /Ogtp
; File D:\git\src\IBK\IBK_DRFN\ProjSrc\SrcChartEx\ChartAddIn\ChartAnalysisToolAddIn\Include_Analysis\ElementEnvironment.cpp
;	COMDAT ?SetLeft@CTextHorzPosition@@QAEX_N@Z
_TEXT	SEGMENT
_bLeft$ = 8						; size = 1
?SetLeft@CTextHorzPosition@@QAEX_N@Z PROC		; CTextHorzPosition::SetLeft, COMDAT
; _this$ = ecx

; 1005 : {

  00000	55		 push	 ebp
  00001	8b ec		 mov	 ebp, esp

; 1006 : 	m_bLeft = bLeft;

  00003	8a 45 08	 mov	 al, BYTE PTR _bLeft$[ebp]
  00006	88 41 08	 mov	 BYTE PTR [ecx+8], al

; 1007 : }

  00009	5d		 pop	 ebp
  0000a	c2 04 00	 ret	 4
?SetLeft@CTextHorzPosition@@QAEX_N@Z ENDP		; CTextHorzPosition::SetLeft
_TEXT	ENDS
; Function compile flags: /Ogtp
; File D:\git\src\IBK\IBK_DRFN\ProjSrc\SrcChartEx\ChartAddIn\ChartAnalysisToolAddIn\Include_Analysis\ElementEnvironment.cpp
;	COMDAT ?Set@CTextHorzPosition@@UAEXPBVCTextPosition@@@Z
_TEXT	SEGMENT
$T1 = -4						; size = 4
_pTextPosition$ = 8					; size = 4
?Set@CTextHorzPosition@@UAEXPBVCTextPosition@@@Z PROC	; CTextHorzPosition::Set, COMDAT
; _this$ = ecx

; 991  : {

  00000	55		 push	 ebp
  00001	8b ec		 mov	 ebp, esp
  00003	51		 push	 ecx

; 992  : 	if(pTextPosition == NULL)

  00004	8b 55 08	 mov	 edx, DWORD PTR _pTextPosition$[ebp]
  00007	85 d2		 test	 edx, edx
  00009	74 24		 je	 SHORT $LN13@Set

; 993  : 		return;
; 994  : 
; 995  : 	CTextHorzPosition* pTextHorzPosition = (CTextHorzPosition*) pTextPosition;
; 996  : 	assert(pTextHorzPosition != NULL);
; 997  : 	SetLeft(pTextHorzPosition->GetLeft());

  0000b	0f b6 42 08	 movzx	 eax, BYTE PTR [edx+8]
  0000f	88 41 08	 mov	 BYTE PTR [ecx+8], al

; 998  : 	SetRight(pTextHorzPosition->GetRight());

  00012	0f b6 42 09	 movzx	 eax, BYTE PTR [edx+9]
  00016	88 41 09	 mov	 BYTE PTR [ecx+9], al

; 999  : 	SetRightRate(pTextHorzPosition->GetRightRate());

  00019	0f b6 42 0a	 movzx	 eax, BYTE PTR [edx+10]
  0001d	88 41 0a	 mov	 BYTE PTR [ecx+10], al

; 844  : 	m_textEnvironment = textEnvironment;

  00020	83 c1 04	 add	 ecx, 4

; 745  : 	if(this == &environment)

  00023	8d 45 fc	 lea	 eax, DWORD PTR $T1[ebp]
  00026	3b c8		 cmp	 ecx, eax
  00028	74 05		 je	 SHORT $LN13@Set

; 746  : 		return *this;
; 747  : 
; 748  : 	m_color = environment.GetColor();

  0002a	8b 42 04	 mov	 eax, DWORD PTR [edx+4]
  0002d	89 01		 mov	 DWORD PTR [ecx], eax
$LN13@Set:

; 1000 : 
; 1001 : 	CTextPosition::Set(pTextPosition);
; 1002 : }

  0002f	8b e5		 mov	 esp, ebp
  00031	5d		 pop	 ebp
  00032	c2 04 00	 ret	 4
?Set@CTextHorzPosition@@UAEXPBVCTextPosition@@@Z ENDP	; CTextHorzPosition::Set
_TEXT	ENDS
; Function compile flags: /Ogtp
; File D:\git\src\IBK\IBK_DRFN\ProjSrc\SrcChartEx\ChartAddIn\ChartAnalysisToolAddIn\Include_Analysis\ElementEnvironment.cpp
;	COMDAT ??0CTextHorzPosition@@QAE@ABV0@@Z
_TEXT	SEGMENT
_position$ = 8						; size = 4
??0CTextHorzPosition@@QAE@ABV0@@Z PROC			; CTextHorzPosition::CTextHorzPosition, COMDAT
; _this$ = ecx

; 985  : {

  00000	55		 push	 ebp
  00001	8b ec		 mov	 ebp, esp

; 765  : 	m_color = environment.GetColor();

  00003	8b 55 08	 mov	 edx, DWORD PTR _position$[ebp]
  00006	8b 42 04	 mov	 eax, DWORD PTR [edx+4]
  00009	89 41 04	 mov	 DWORD PTR [ecx+4], eax

; 985  : {

  0000c	c7 01 00 00 00
	00		 mov	 DWORD PTR [ecx], OFFSET ??_7CTextHorzPosition@@6B@

; 766  : }
; 767  : 
; 768  : CTextEnvironment::CTextEnvironment(CTextEnvironment* pEnvironment)
; 769  : {
; 770  : 	if(pEnvironment == NULL)
; 771  : 		return;
; 772  : 
; 773  : 	m_color = pEnvironment->GetColor();
; 774  : }
; 775  : 
; 776  : 
; 777  : // public =====================================================================
; 778  : void CTextEnvironment::Set(const CTextEnvironment& environment)
; 779  : {
; 780  : 	m_color = environment.GetColor();
; 781  : }
; 782  : 
; 783  : void CTextEnvironment::SetColor(const COLORREF& color)
; 784  : {
; 785  : 	m_color = color;
; 786  : }
; 787  : 
; 788  : // ----------------------------------------------------------------------------
; 789  : COLORREF CTextEnvironment::GetColor() const
; 790  : {
; 791  : 	return m_color;
; 792  : }
; 793  : 
; 794  : // <TextEnvironment>
; 795  : // <Color>0,0,0<\\Color>
; 796  : // <\\TextEnvironment>
; 797  : CString CTextEnvironment::GetSavedData() const
; 798  : {
; 799  : 	CString strSaved;
; 800  : 	strSaved.Format("<TextEnvironment>\r\n%s<\\TextEnvironment>\r\n", GetSavedColor());
; 801  : 	return strSaved;
; 802  : }
; 803  : 
; 804  : 
; 805  : // private ====================================================================
; 806  : CString CTextEnvironment::GetSavedColor() const
; 807  : {
; 808  : 	return ("<Color>" + CDataConversion::RGB2Str(m_color) + "<\\Color>\r\n");
; 809  : }
; 810  : 
; 811  : 
; 812  : ///////////////////////////////////////////////////////////////////////////////
; 813  : // class CTextPosition
; 814  : 
; 815  : CTextPosition& CTextPosition::operator=(const CTextPosition& environment)
; 816  : {
; 817  : 	if(this == &environment)
; 818  : 		return *this;
; 819  : 
; 820  : 	m_textEnvironment = environment.GetTextEnvironment();
; 821  : 	return *this;
; 822  : }
; 823  : 
; 824  : // ----------------------------------------------------------------------------
; 825  : CTextPosition::CTextPosition()
; 826  : {
; 827  : }
; 828  : 
; 829  : CTextPosition::CTextPosition(const CTextEnvironment& textEnvironment):
; 830  : 	m_textEnvironment(textEnvironment)
; 831  : {
; 832  : }
; 833  : 
; 834  : // public =====================================================================
; 835  : void CTextPosition::Set(const CTextPosition* pTextPosition)
; 836  : {
; 837  : 	if(pTextPosition == NULL)
; 838  : 		return;
; 839  : 	SetTextEnvironment(pTextPosition->GetTextEnvironment());
; 840  : }
; 841  : 
; 842  : void CTextPosition::SetTextEnvironment(const CTextEnvironment& textEnvironment)
; 843  : {
; 844  : 	m_textEnvironment = textEnvironment;
; 845  : }
; 846  : 
; 847  : // ----------------------------------------------------------------------------
; 848  : CTextEnvironment CTextPosition::GetTextEnvironment() const
; 849  : {
; 850  : 	return m_textEnvironment;
; 851  : }
; 852  : 
; 853  : CTextEnvironment& CTextPosition::GetTextEnvironment()
; 854  : {
; 855  : 	return m_textEnvironment;
; 856  : }
; 857  : 
; 858  : // <PartEnvironment>
; 859  : // <TextEnvironment>
; 860  : // <Color>0,0,0<\\Color>
; 861  : // <\\TextEnvironment>
; 862  : // <TextPosition>
; 863  : // ...
; 864  : // <\\TextPosition>
; 865  : // <\\PartEnvironment>
; 866  : CString CTextPosition::GetSavedData() const
; 867  : {
; 868  : 	CString strSaved;
; 869  : 	strSaved.Format("<PartEnvironment>\r\n%s%s<\\PartEnvironment>\r\n", 
; 870  : 		m_textEnvironment.GetSavedData(), GetSavedData_TextPosition());
; 871  : 	return strSaved;
; 872  : }
; 873  : 
; 874  : 
; 875  : // protected ==================================================================
; 876  : CString CTextPosition::GetDataOfOneLine(const bool bData, const CString& strData) const
; 877  : {
; 878  : 	CString data;
; 879  : 	data.Format("<%s>%d<\\%s>\r\n", strData, bData, strData);
; 880  : 	return data;
; 881  : }
; 882  : 
; 883  : // private ====================================================================
; 884  : // <TextPosition>
; 885  : // <Horz>
; 886  : // <Show>0<\\Show>
; 887  : // <\\Horz>
; 888  : // <Horz>
; 889  : // <Left>0<\\Left>
; 890  : // <Right>0<\\Right>
; 891  : // <\\Horz>
; 892  : // <Vert>
; 893  : // <Top>0<\\Top>
; 894  : // <Bottom>0<\\Bottom>
; 895  : // <\\Vert>
; 896  : // <\\TextPosition>
; 897  : CString CTextPosition::GetSavedData_TextPosition() const
; 898  : {
; 899  : 	CString strSaved;
; 900  : 	strSaved.Format("<TextPosition>\r\n%s<\\TextPosition>\r\n", 
; 901  : 		GetSavedRealTextPositionData());
; 902  : 	return strSaved;
; 903  : }
; 904  : 
; 905  : 
; 906  : ///////////////////////////////////////////////////////////////////////////////
; 907  : // class CTextShowPosition
; 908  : 
; 909  : CTextShowPosition::CTextShowPosition():
; 910  : 	m_bShow(true)
; 911  : {
; 912  : }
; 913  : 
; 914  : CTextShowPosition::CTextShowPosition(const CTextEnvironment& environment, const bool bShow):
; 915  : 	CTextPosition(environment), 
; 916  : 	m_bShow(bShow)
; 917  : {
; 918  : }
; 919  : 
; 920  : CTextShowPosition::CTextShowPosition(const CTextShowPosition& position):
; 921  : 	CTextPosition(position.GetTextEnvironment()), 
; 922  : 	m_bShow(position.IsShow())
; 923  : {
; 924  : }
; 925  : 
; 926  : 
; 927  : // public =====================================================================
; 928  : void CTextShowPosition::Set(const CTextPosition* pTextPosition)
; 929  : {
; 930  : 	if(pTextPosition == NULL)
; 931  : 		return;
; 932  : 
; 933  : 	CTextShowPosition* pTextShowPosition = (CTextShowPosition*) pTextPosition;
; 934  : 	assert(pTextShowPosition != NULL);
; 935  : 	SetShow(pTextShowPosition->IsShow());
; 936  : 
; 937  : 	CTextPosition::Set(pTextPosition);
; 938  : }
; 939  : 
; 940  : void CTextShowPosition::SetShow(const bool bShow)
; 941  : {
; 942  : 	m_bShow = bShow;
; 943  : }
; 944  : 
; 945  : bool CTextShowPosition::IsShow() const
; 946  : {
; 947  : 	return m_bShow;
; 948  : }
; 949  : 
; 950  : // protected ==================================================================
; 951  : // <Horz>
; 952  : // <Show>0<\\Show>
; 953  : // <\\Horz>
; 954  : CString CTextShowPosition::GetSavedRealTextPositionData() const
; 955  : {
; 956  : 	CString strSaved;
; 957  : 	strSaved.Format("<Horz>\r\n%s<\\Horz>\r\n", 
; 958  : 		CTextPosition::GetDataOfOneLine(m_bShow, "Show"));// 2008.08.20    
; 959  : 	return strSaved;
; 960  : }
; 961  : 
; 962  : 
; 963  : ///////////////////////////////////////////////////////////////////////////////
; 964  : // class CTextHorzPosition
; 965  : 
; 966  : CTextHorzPosition::CTextHorzPosition():
; 967  : 	m_bLeft(true),
; 968  : 	m_bRight(true)
; 969  : {
; 970  : }
; 971  : 
; 972  : CTextHorzPosition::CTextHorzPosition(const CTextEnvironment& environment, const bool bLeft, const bool bRight, const bool bRightRate):
; 973  : 	CTextPosition(environment), 
; 974  : 	m_bLeft(bLeft),
; 975  : 	m_bRight(bRight),
; 976  : 	m_bRightRate(bRightRate)
; 977  : {
; 978  : }
; 979  : 
; 980  : CTextHorzPosition::CTextHorzPosition(const CTextHorzPosition& position):
; 981  : 	CTextPosition(position.GetTextEnvironment()), 
; 982  : 	m_bLeft(position.GetLeft()),

  00012	0f b6 42 08	 movzx	 eax, BYTE PTR [edx+8]
  00016	88 41 08	 mov	 BYTE PTR [ecx+8], al

; 983  : 	m_bRight(position.GetRight()),

  00019	0f b6 42 09	 movzx	 eax, BYTE PTR [edx+9]
  0001d	88 41 09	 mov	 BYTE PTR [ecx+9], al

; 984  : 	m_bRightRate(position.GetRightRate())

  00020	0f b6 42 0a	 movzx	 eax, BYTE PTR [edx+10]
  00024	88 41 0a	 mov	 BYTE PTR [ecx+10], al

; 986  : }

  00027	8b c1		 mov	 eax, ecx
  00029	5d		 pop	 ebp
  0002a	c2 04 00	 ret	 4
??0CTextHorzPosition@@QAE@ABV0@@Z ENDP			; CTextHorzPosition::CTextHorzPosition
_TEXT	ENDS
; Function compile flags: /Ogtp
; File D:\git\src\IBK\IBK_DRFN\ProjSrc\SrcChartEx\ChartAddIn\ChartAnalysisToolAddIn\Include_Analysis\ElementEnvironment.cpp
;	COMDAT ??0CTextHorzPosition@@QAE@ABVCTextEnvironment@@_N11@Z
_TEXT	SEGMENT
_environment$ = 8					; size = 4
_bLeft$ = 12						; size = 1
_bRight$ = 16						; size = 1
_bRightRate$ = 20					; size = 1
??0CTextHorzPosition@@QAE@ABVCTextEnvironment@@_N11@Z PROC ; CTextHorzPosition::CTextHorzPosition, COMDAT
; _this$ = ecx

; 977  : {

  00000	55		 push	 ebp
  00001	8b ec		 mov	 ebp, esp

; 765  : 	m_color = environment.GetColor();

  00003	8b 45 08	 mov	 eax, DWORD PTR _environment$[ebp]

; 831  : {

  00006	c7 01 00 00 00
	00		 mov	 DWORD PTR [ecx], OFFSET ??_7CTextPosition@@6B@

; 765  : 	m_color = environment.GetColor();

  0000c	8b 00		 mov	 eax, DWORD PTR [eax]
  0000e	89 41 04	 mov	 DWORD PTR [ecx+4], eax

; 832  : }
; 833  : 
; 834  : // public =====================================================================
; 835  : void CTextPosition::Set(const CTextPosition* pTextPosition)
; 836  : {
; 837  : 	if(pTextPosition == NULL)
; 838  : 		return;
; 839  : 	SetTextEnvironment(pTextPosition->GetTextEnvironment());
; 840  : }
; 841  : 
; 842  : void CTextPosition::SetTextEnvironment(const CTextEnvironment& textEnvironment)
; 843  : {
; 844  : 	m_textEnvironment = textEnvironment;
; 845  : }
; 846  : 
; 847  : // ----------------------------------------------------------------------------
; 848  : CTextEnvironment CTextPosition::GetTextEnvironment() const
; 849  : {
; 850  : 	return m_textEnvironment;
; 851  : }
; 852  : 
; 853  : CTextEnvironment& CTextPosition::GetTextEnvironment()
; 854  : {
; 855  : 	return m_textEnvironment;
; 856  : }
; 857  : 
; 858  : // <PartEnvironment>
; 859  : // <TextEnvironment>
; 860  : // <Color>0,0,0<\\Color>
; 861  : // <\\TextEnvironment>
; 862  : // <TextPosition>
; 863  : // ...
; 864  : // <\\TextPosition>
; 865  : // <\\PartEnvironment>
; 866  : CString CTextPosition::GetSavedData() const
; 867  : {
; 868  : 	CString strSaved;
; 869  : 	strSaved.Format("<PartEnvironment>\r\n%s%s<\\PartEnvironment>\r\n", 
; 870  : 		m_textEnvironment.GetSavedData(), GetSavedData_TextPosition());
; 871  : 	return strSaved;
; 872  : }
; 873  : 
; 874  : 
; 875  : // protected ==================================================================
; 876  : CString CTextPosition::GetDataOfOneLine(const bool bData, const CString& strData) const
; 877  : {
; 878  : 	CString data;
; 879  : 	data.Format("<%s>%d<\\%s>\r\n", strData, bData, strData);
; 880  : 	return data;
; 881  : }
; 882  : 
; 883  : // private ====================================================================
; 884  : // <TextPosition>
; 885  : // <Horz>
; 886  : // <Show>0<\\Show>
; 887  : // <\\Horz>
; 888  : // <Horz>
; 889  : // <Left>0<\\Left>
; 890  : // <Right>0<\\Right>
; 891  : // <\\Horz>
; 892  : // <Vert>
; 893  : // <Top>0<\\Top>
; 894  : // <Bottom>0<\\Bottom>
; 895  : // <\\Vert>
; 896  : // <\\TextPosition>
; 897  : CString CTextPosition::GetSavedData_TextPosition() const
; 898  : {
; 899  : 	CString strSaved;
; 900  : 	strSaved.Format("<TextPosition>\r\n%s<\\TextPosition>\r\n", 
; 901  : 		GetSavedRealTextPositionData());
; 902  : 	return strSaved;
; 903  : }
; 904  : 
; 905  : 
; 906  : ///////////////////////////////////////////////////////////////////////////////
; 907  : // class CTextShowPosition
; 908  : 
; 909  : CTextShowPosition::CTextShowPosition():
; 910  : 	m_bShow(true)
; 911  : {
; 912  : }
; 913  : 
; 914  : CTextShowPosition::CTextShowPosition(const CTextEnvironment& environment, const bool bShow):
; 915  : 	CTextPosition(environment), 
; 916  : 	m_bShow(bShow)
; 917  : {
; 918  : }
; 919  : 
; 920  : CTextShowPosition::CTextShowPosition(const CTextShowPosition& position):
; 921  : 	CTextPosition(position.GetTextEnvironment()), 
; 922  : 	m_bShow(position.IsShow())
; 923  : {
; 924  : }
; 925  : 
; 926  : 
; 927  : // public =====================================================================
; 928  : void CTextShowPosition::Set(const CTextPosition* pTextPosition)
; 929  : {
; 930  : 	if(pTextPosition == NULL)
; 931  : 		return;
; 932  : 
; 933  : 	CTextShowPosition* pTextShowPosition = (CTextShowPosition*) pTextPosition;
; 934  : 	assert(pTextShowPosition != NULL);
; 935  : 	SetShow(pTextShowPosition->IsShow());
; 936  : 
; 937  : 	CTextPosition::Set(pTextPosition);
; 938  : }
; 939  : 
; 940  : void CTextShowPosition::SetShow(const bool bShow)
; 941  : {
; 942  : 	m_bShow = bShow;
; 943  : }
; 944  : 
; 945  : bool CTextShowPosition::IsShow() const
; 946  : {
; 947  : 	return m_bShow;
; 948  : }
; 949  : 
; 950  : // protected ==================================================================
; 951  : // <Horz>
; 952  : // <Show>0<\\Show>
; 953  : // <\\Horz>
; 954  : CString CTextShowPosition::GetSavedRealTextPositionData() const
; 955  : {
; 956  : 	CString strSaved;
; 957  : 	strSaved.Format("<Horz>\r\n%s<\\Horz>\r\n", 
; 958  : 		CTextPosition::GetDataOfOneLine(m_bShow, "Show"));// 2008.08.20    
; 959  : 	return strSaved;
; 960  : }
; 961  : 
; 962  : 
; 963  : ///////////////////////////////////////////////////////////////////////////////
; 964  : // class CTextHorzPosition
; 965  : 
; 966  : CTextHorzPosition::CTextHorzPosition():
; 967  : 	m_bLeft(true),
; 968  : 	m_bRight(true)
; 969  : {
; 970  : }
; 971  : 
; 972  : CTextHorzPosition::CTextHorzPosition(const CTextEnvironment& environment, const bool bLeft, const bool bRight, const bool bRightRate):
; 973  : 	CTextPosition(environment), 
; 974  : 	m_bLeft(bLeft),

  00011	8a 45 0c	 mov	 al, BYTE PTR _bLeft$[ebp]
  00014	88 41 08	 mov	 BYTE PTR [ecx+8], al

; 975  : 	m_bRight(bRight),

  00017	8a 45 10	 mov	 al, BYTE PTR _bRight$[ebp]
  0001a	88 41 09	 mov	 BYTE PTR [ecx+9], al

; 976  : 	m_bRightRate(bRightRate)

  0001d	8a 45 14	 mov	 al, BYTE PTR _bRightRate$[ebp]
  00020	88 41 0a	 mov	 BYTE PTR [ecx+10], al

; 978  : }

  00023	8b c1		 mov	 eax, ecx
  00025	c7 01 00 00 00
	00		 mov	 DWORD PTR [ecx], OFFSET ??_7CTextHorzPosition@@6B@
  0002b	5d		 pop	 ebp
  0002c	c2 10 00	 ret	 16			; 00000010H
??0CTextHorzPosition@@QAE@ABVCTextEnvironment@@_N11@Z ENDP ; CTextHorzPosition::CTextHorzPosition
_TEXT	ENDS
; Function compile flags: /Ogtp
; File D:\git\src\IBK\IBK_DRFN\ProjSrc\SrcChartEx\ChartAddIn\ChartAnalysisToolAddIn\Include_Analysis\ElementEnvironment.cpp
;	COMDAT ??0CTextHorzPosition@@QAE@XZ
_TEXT	SEGMENT
??0CTextHorzPosition@@QAE@XZ PROC			; CTextHorzPosition::CTextHorzPosition, COMDAT
; _this$ = ecx

; 754  : 	m_color(RGB(0, 0, 0))

  00000	c7 41 04 00 00
	00 00		 mov	 DWORD PTR [ecx+4], 0

; 970  : }

  00007	8b c1		 mov	 eax, ecx
  00009	c7 01 00 00 00
	00		 mov	 DWORD PTR [ecx], OFFSET ??_7CTextHorzPosition@@6B@
  0000f	66 c7 41 08 01
	01		 mov	 WORD PTR [ecx+8], 257	; 00000101H
  00015	c3		 ret	 0
??0CTextHorzPosition@@QAE@XZ ENDP			; CTextHorzPosition::CTextHorzPosition
_TEXT	ENDS
; Function compile flags: /Ogtp
; File D:\git\src\IBK\IBK_DRFN\ProjSrc\SrcChartEx\ChartAddIn\ChartAnalysisToolAddIn\Include_Analysis\ElementEnvironment.cpp
;	COMDAT ?GetSavedRealTextPositionData@CTextShowPosition@@MBE?AV?$CStringT@DV?$StrTraitMFC_DLL@DV?$ChTraitsCRT@D@ATL@@@@@ATL@@XZ
_TEXT	SEGMENT
$T2 = -24						; size = 4
$T3 = -20						; size = 4
$T4 = -16						; size = 4
__$EHRec$ = -12						; size = 12
___$ReturnUdt$ = 8					; size = 4
?GetSavedRealTextPositionData@CTextShowPosition@@MBE?AV?$CStringT@DV?$StrTraitMFC_DLL@DV?$ChTraitsCRT@D@ATL@@@@@ATL@@XZ PROC ; CTextShowPosition::GetSavedRealTextPositionData, COMDAT
; _this$ = ecx

; 955  : {

  00000	55		 push	 ebp
  00001	8b ec		 mov	 ebp, esp
  00003	6a ff		 push	 -1
  00005	68 00 00 00 00	 push	 __ehhandler$?GetSavedRealTextPositionData@CTextShowPosition@@MBE?AV?$CStringT@DV?$StrTraitMFC_DLL@DV?$ChTraitsCRT@D@ATL@@@@@ATL@@XZ
  0000a	64 a1 00 00 00
	00		 mov	 eax, DWORD PTR fs:0
  00010	50		 push	 eax
  00011	83 ec 0c	 sub	 esp, 12			; 0000000cH
  00014	53		 push	 ebx
  00015	56		 push	 esi
  00016	57		 push	 edi
  00017	a1 00 00 00 00	 mov	 eax, DWORD PTR ___security_cookie
  0001c	33 c5		 xor	 eax, ebp
  0001e	50		 push	 eax
  0001f	8d 45 f4	 lea	 eax, DWORD PTR __$EHRec$[ebp]
  00022	64 a3 00 00 00
	00		 mov	 DWORD PTR fs:0, eax
  00028	8b f1		 mov	 esi, ecx
  0002a	c7 45 ec 00 00
	00 00		 mov	 DWORD PTR $T3[ebp], 0

; 956  : 	CString strSaved;

  00031	8b 7d 08	 mov	 edi, DWORD PTR ___$ReturnUdt$[ebp]
  00034	8b cf		 mov	 ecx, edi
  00036	ff 15 00 00 00
	00		 call	 DWORD PTR __imp_??0?$CStringT@DV?$StrTraitMFC_DLL@DV?$ChTraitsCRT@D@ATL@@@@@ATL@@QAE@XZ

; 958  : 		CTextPosition::GetDataOfOneLine(m_bShow, "Show"));// 2008.08.20    
; 959  : 	return strSaved;

  0003c	68 00 00 00 00	 push	 OFFSET ??_C@_04JLAJABDJ@Show@
  00041	8d 4d e8	 lea	 ecx, DWORD PTR $T2[ebp]
  00044	c7 45 fc 00 00
	00 00		 mov	 DWORD PTR __$EHRec$[ebp+8], 0
  0004b	c7 45 ec 01 00
	00 00		 mov	 DWORD PTR $T3[ebp], 1
  00052	ff 15 00 00 00
	00		 call	 DWORD PTR __imp_??0?$CStringT@DV?$StrTraitMFC_DLL@DV?$ChTraitsCRT@D@ATL@@@@@ATL@@QAE@PBD@Z
  00058	8a 5e 08	 mov	 bl, BYTE PTR [esi+8]
  0005b	c7 45 fc 01 00
	00 00		 mov	 DWORD PTR __$EHRec$[ebp+8], 1

; 878  : 	CString data;

  00062	8d 4d f0	 lea	 ecx, DWORD PTR $T4[ebp]

; 957  : 	strSaved.Format("<Horz>\r\n%s<\\Horz>\r\n", 

  00065	c6 45 fc 02	 mov	 BYTE PTR __$EHRec$[ebp+8], 2

; 878  : 	CString data;

  00069	ff 15 00 00 00
	00		 call	 DWORD PTR __imp_??0?$CStringT@DV?$StrTraitMFC_DLL@DV?$ChTraitsCRT@D@ATL@@@@@ATL@@QAE@XZ

; 879  : 	data.Format("<%s>%d<\\%s>\r\n", strData, bData, strData);

  0006f	8b 45 e8	 mov	 eax, DWORD PTR $T2[ebp]
  00072	8b 35 00 00 00
	00		 mov	 esi, DWORD PTR __imp_?Format@?$CStringT@DV?$StrTraitMFC_DLL@DV?$ChTraitsCRT@D@ATL@@@@@ATL@@QAAXPBDZZ
  00078	50		 push	 eax
  00079	0f b6 cb	 movzx	 ecx, bl
  0007c	51		 push	 ecx
  0007d	50		 push	 eax
  0007e	8d 45 f0	 lea	 eax, DWORD PTR $T4[ebp]

; 880  : 	return data;

  00081	c7 45 ec 03 00
	00 00		 mov	 DWORD PTR $T3[ebp], 3
  00088	68 00 00 00 00	 push	 OFFSET ??_C@_0O@LNMCLPEF@?$DM?$CFs?$DO?$CFd?$DM?2?$CFs?$DO?$AN?6@
  0008d	50		 push	 eax
  0008e	ff d6		 call	 esi

; 957  : 	strSaved.Format("<Horz>\r\n%s<\\Horz>\r\n", 

  00090	ff 75 f0	 push	 DWORD PTR $T4[ebp]
  00093	68 00 00 00 00	 push	 OFFSET ??_C@_0BE@CKCBMKAP@?$DMHorz?$DO?$AN?6?$CFs?$DM?2Horz?$DO?$AN?6@
  00098	57		 push	 edi
  00099	ff d6		 call	 esi
  0009b	83 c4 20	 add	 esp, 32			; 00000020H
  0009e	8d 4d f0	 lea	 ecx, DWORD PTR $T4[ebp]
  000a1	ff 15 00 00 00
	00		 call	 DWORD PTR __imp_??1?$CStringT@DV?$StrTraitMFC_DLL@DV?$ChTraitsCRT@D@ATL@@@@@ATL@@QAE@XZ
  000a7	8d 4d e8	 lea	 ecx, DWORD PTR $T2[ebp]
  000aa	ff 15 00 00 00
	00		 call	 DWORD PTR __imp_??1?$CStringT@DV?$StrTraitMFC_DLL@DV?$ChTraitsCRT@D@ATL@@@@@ATL@@QAE@XZ

; 958  : 		CTextPosition::GetDataOfOneLine(m_bShow, "Show"));// 2008.08.20    
; 959  : 	return strSaved;

  000b0	8b c7		 mov	 eax, edi

; 960  : }

  000b2	8b 4d f4	 mov	 ecx, DWORD PTR __$EHRec$[ebp]
  000b5	64 89 0d 00 00
	00 00		 mov	 DWORD PTR fs:0, ecx
  000bc	59		 pop	 ecx
  000bd	5f		 pop	 edi
  000be	5e		 pop	 esi
  000bf	5b		 pop	 ebx
  000c0	8b e5		 mov	 esp, ebp
  000c2	5d		 pop	 ebp
  000c3	c2 04 00	 ret	 4
_TEXT	ENDS
;	COMDAT text$x
text$x	SEGMENT
__unwindfunclet$?GetSavedRealTextPositionData@CTextShowPosition@@MBE?AV?$CStringT@DV?$StrTraitMFC_DLL@DV?$ChTraitsCRT@D@ATL@@@@@ATL@@XZ$0:
  00000	8b 45 ec	 mov	 eax, DWORD PTR $T3[ebp]
  00003	83 e0 01	 and	 eax, 1
  00006	0f 84 0d 00 00
	00		 je	 $LN4@GetSavedRe
  0000c	83 65 ec fe	 and	 DWORD PTR $T3[ebp], -2	; fffffffeH
  00010	8b 4d 08	 mov	 ecx, DWORD PTR ___$ReturnUdt$[ebp]
  00013	ff 25 00 00 00
	00		 jmp	 DWORD PTR __imp_??1?$CStringT@DV?$StrTraitMFC_DLL@DV?$ChTraitsCRT@D@ATL@@@@@ATL@@QAE@XZ
$LN4@GetSavedRe:
  00019	c3		 ret	 0
__unwindfunclet$?GetSavedRealTextPositionData@CTextShowPosition@@MBE?AV?$CStringT@DV?$StrTraitMFC_DLL@DV?$ChTraitsCRT@D@ATL@@@@@ATL@@XZ$1:
  0001a	8d 4d e8	 lea	 ecx, DWORD PTR $T2[ebp]
  0001d	ff 25 00 00 00
	00		 jmp	 DWORD PTR __imp_??1?$CStringT@DV?$StrTraitMFC_DLL@DV?$ChTraitsCRT@D@ATL@@@@@ATL@@QAE@XZ
__unwindfunclet$?GetSavedRealTextPositionData@CTextShowPosition@@MBE?AV?$CStringT@DV?$StrTraitMFC_DLL@DV?$ChTraitsCRT@D@ATL@@@@@ATL@@XZ$3:
  00023	8b 45 ec	 mov	 eax, DWORD PTR $T3[ebp]
  00026	83 e0 02	 and	 eax, 2
  00029	0f 84 0d 00 00
	00		 je	 $LN10@GetSavedRe
  0002f	83 65 ec fd	 and	 DWORD PTR $T3[ebp], -3	; fffffffdH
  00033	8d 4d f0	 lea	 ecx, DWORD PTR $T4[ebp]
  00036	ff 25 00 00 00
	00		 jmp	 DWORD PTR __imp_??1?$CStringT@DV?$StrTraitMFC_DLL@DV?$ChTraitsCRT@D@ATL@@@@@ATL@@QAE@XZ
$LN10@GetSavedRe:
  0003c	c3		 ret	 0
  0003d	cc		 int	 3
  0003e	cc		 int	 3
  0003f	cc		 int	 3
  00040	cc		 int	 3
  00041	cc		 int	 3
__ehhandler$?GetSavedRealTextPositionData@CTextShowPosition@@MBE?AV?$CStringT@DV?$StrTraitMFC_DLL@DV?$ChTraitsCRT@D@ATL@@@@@ATL@@XZ:
  00042	90		 npad	 1
  00043	90		 npad	 1
  00044	8b 54 24 08	 mov	 edx, DWORD PTR [esp+8]
  00048	8d 42 0c	 lea	 eax, DWORD PTR [edx+12]
  0004b	8b 4a e4	 mov	 ecx, DWORD PTR [edx-28]
  0004e	33 c8		 xor	 ecx, eax
  00050	e8 00 00 00 00	 call	 @__security_check_cookie@4
  00055	b8 00 00 00 00	 mov	 eax, OFFSET __ehfuncinfo$?GetSavedRealTextPositionData@CTextShowPosition@@MBE?AV?$CStringT@DV?$StrTraitMFC_DLL@DV?$ChTraitsCRT@D@ATL@@@@@ATL@@XZ
  0005a	e9 00 00 00 00	 jmp	 ___CxxFrameHandler3
text$x	ENDS
?GetSavedRealTextPositionData@CTextShowPosition@@MBE?AV?$CStringT@DV?$StrTraitMFC_DLL@DV?$ChTraitsCRT@D@ATL@@@@@ATL@@XZ ENDP ; CTextShowPosition::GetSavedRealTextPositionData
; Function compile flags: /Ogtp
; File D:\git\src\IBK\IBK_DRFN\ProjSrc\SrcChartEx\ChartAddIn\ChartAnalysisToolAddIn\Include_Analysis\ElementEnvironment.cpp
;	COMDAT ?IsShow@CTextShowPosition@@QBE_NXZ
_TEXT	SEGMENT
?IsShow@CTextShowPosition@@QBE_NXZ PROC			; CTextShowPosition::IsShow, COMDAT
; _this$ = ecx

; 947  : 	return m_bShow;

  00000	8a 41 08	 mov	 al, BYTE PTR [ecx+8]

; 948  : }

  00003	c3		 ret	 0
?IsShow@CTextShowPosition@@QBE_NXZ ENDP			; CTextShowPosition::IsShow
_TEXT	ENDS
; Function compile flags: /Ogtp
; File D:\git\src\IBK\IBK_DRFN\ProjSrc\SrcChartEx\ChartAddIn\ChartAnalysisToolAddIn\Include_Analysis\ElementEnvironment.cpp
;	COMDAT ?SetShow@CTextShowPosition@@QAEX_N@Z
_TEXT	SEGMENT
_bShow$ = 8						; size = 1
?SetShow@CTextShowPosition@@QAEX_N@Z PROC		; CTextShowPosition::SetShow, COMDAT
; _this$ = ecx

; 941  : {

  00000	55		 push	 ebp
  00001	8b ec		 mov	 ebp, esp

; 942  : 	m_bShow = bShow;

  00003	8a 45 08	 mov	 al, BYTE PTR _bShow$[ebp]
  00006	88 41 08	 mov	 BYTE PTR [ecx+8], al

; 943  : }

  00009	5d		 pop	 ebp
  0000a	c2 04 00	 ret	 4
?SetShow@CTextShowPosition@@QAEX_N@Z ENDP		; CTextShowPosition::SetShow
_TEXT	ENDS
; Function compile flags: /Ogtp
; File D:\git\src\IBK\IBK_DRFN\ProjSrc\SrcChartEx\ChartAddIn\ChartAnalysisToolAddIn\Include_Analysis\ElementEnvironment.cpp
;	COMDAT ?Set@CTextShowPosition@@UAEXPBVCTextPosition@@@Z
_TEXT	SEGMENT
$T1 = -4						; size = 4
_pTextPosition$ = 8					; size = 4
?Set@CTextShowPosition@@UAEXPBVCTextPosition@@@Z PROC	; CTextShowPosition::Set, COMDAT
; _this$ = ecx

; 929  : {

  00000	55		 push	 ebp
  00001	8b ec		 mov	 ebp, esp
  00003	51		 push	 ecx

; 930  : 	if(pTextPosition == NULL)

  00004	8b 55 08	 mov	 edx, DWORD PTR _pTextPosition$[ebp]
  00007	85 d2		 test	 edx, edx
  00009	74 15		 je	 SHORT $LN13@Set

; 931  : 		return;
; 932  : 
; 933  : 	CTextShowPosition* pTextShowPosition = (CTextShowPosition*) pTextPosition;
; 934  : 	assert(pTextShowPosition != NULL);
; 935  : 	SetShow(pTextShowPosition->IsShow());

  0000b	8a 42 08	 mov	 al, BYTE PTR [edx+8]
  0000e	88 41 08	 mov	 BYTE PTR [ecx+8], al

; 844  : 	m_textEnvironment = textEnvironment;

  00011	83 c1 04	 add	 ecx, 4

; 745  : 	if(this == &environment)

  00014	8d 45 fc	 lea	 eax, DWORD PTR $T1[ebp]
  00017	3b c8		 cmp	 ecx, eax
  00019	74 05		 je	 SHORT $LN13@Set

; 746  : 		return *this;
; 747  : 
; 748  : 	m_color = environment.GetColor();

  0001b	8b 42 04	 mov	 eax, DWORD PTR [edx+4]
  0001e	89 01		 mov	 DWORD PTR [ecx], eax
$LN13@Set:

; 936  : 
; 937  : 	CTextPosition::Set(pTextPosition);
; 938  : }

  00020	8b e5		 mov	 esp, ebp
  00022	5d		 pop	 ebp
  00023	c2 04 00	 ret	 4
?Set@CTextShowPosition@@UAEXPBVCTextPosition@@@Z ENDP	; CTextShowPosition::Set
_TEXT	ENDS
; Function compile flags: /Ogtp
; File D:\git\src\IBK\IBK_DRFN\ProjSrc\SrcChartEx\ChartAddIn\ChartAnalysisToolAddIn\Include_Analysis\ElementEnvironment.cpp
;	COMDAT ??0CTextShowPosition@@QAE@ABV0@@Z
_TEXT	SEGMENT
_position$ = 8						; size = 4
??0CTextShowPosition@@QAE@ABV0@@Z PROC			; CTextShowPosition::CTextShowPosition, COMDAT
; _this$ = ecx

; 923  : {

  00000	55		 push	 ebp
  00001	8b ec		 mov	 ebp, esp

; 765  : 	m_color = environment.GetColor();

  00003	8b 55 08	 mov	 edx, DWORD PTR _position$[ebp]
  00006	8b 42 04	 mov	 eax, DWORD PTR [edx+4]
  00009	89 41 04	 mov	 DWORD PTR [ecx+4], eax

; 923  : {

  0000c	c7 01 00 00 00
	00		 mov	 DWORD PTR [ecx], OFFSET ??_7CTextShowPosition@@6B@

; 766  : }
; 767  : 
; 768  : CTextEnvironment::CTextEnvironment(CTextEnvironment* pEnvironment)
; 769  : {
; 770  : 	if(pEnvironment == NULL)
; 771  : 		return;
; 772  : 
; 773  : 	m_color = pEnvironment->GetColor();
; 774  : }
; 775  : 
; 776  : 
; 777  : // public =====================================================================
; 778  : void CTextEnvironment::Set(const CTextEnvironment& environment)
; 779  : {
; 780  : 	m_color = environment.GetColor();
; 781  : }
; 782  : 
; 783  : void CTextEnvironment::SetColor(const COLORREF& color)
; 784  : {
; 785  : 	m_color = color;
; 786  : }
; 787  : 
; 788  : // ----------------------------------------------------------------------------
; 789  : COLORREF CTextEnvironment::GetColor() const
; 790  : {
; 791  : 	return m_color;
; 792  : }
; 793  : 
; 794  : // <TextEnvironment>
; 795  : // <Color>0,0,0<\\Color>
; 796  : // <\\TextEnvironment>
; 797  : CString CTextEnvironment::GetSavedData() const
; 798  : {
; 799  : 	CString strSaved;
; 800  : 	strSaved.Format("<TextEnvironment>\r\n%s<\\TextEnvironment>\r\n", GetSavedColor());
; 801  : 	return strSaved;
; 802  : }
; 803  : 
; 804  : 
; 805  : // private ====================================================================
; 806  : CString CTextEnvironment::GetSavedColor() const
; 807  : {
; 808  : 	return ("<Color>" + CDataConversion::RGB2Str(m_color) + "<\\Color>\r\n");
; 809  : }
; 810  : 
; 811  : 
; 812  : ///////////////////////////////////////////////////////////////////////////////
; 813  : // class CTextPosition
; 814  : 
; 815  : CTextPosition& CTextPosition::operator=(const CTextPosition& environment)
; 816  : {
; 817  : 	if(this == &environment)
; 818  : 		return *this;
; 819  : 
; 820  : 	m_textEnvironment = environment.GetTextEnvironment();
; 821  : 	return *this;
; 822  : }
; 823  : 
; 824  : // ----------------------------------------------------------------------------
; 825  : CTextPosition::CTextPosition()
; 826  : {
; 827  : }
; 828  : 
; 829  : CTextPosition::CTextPosition(const CTextEnvironment& textEnvironment):
; 830  : 	m_textEnvironment(textEnvironment)
; 831  : {
; 832  : }
; 833  : 
; 834  : // public =====================================================================
; 835  : void CTextPosition::Set(const CTextPosition* pTextPosition)
; 836  : {
; 837  : 	if(pTextPosition == NULL)
; 838  : 		return;
; 839  : 	SetTextEnvironment(pTextPosition->GetTextEnvironment());
; 840  : }
; 841  : 
; 842  : void CTextPosition::SetTextEnvironment(const CTextEnvironment& textEnvironment)
; 843  : {
; 844  : 	m_textEnvironment = textEnvironment;
; 845  : }
; 846  : 
; 847  : // ----------------------------------------------------------------------------
; 848  : CTextEnvironment CTextPosition::GetTextEnvironment() const
; 849  : {
; 850  : 	return m_textEnvironment;
; 851  : }
; 852  : 
; 853  : CTextEnvironment& CTextPosition::GetTextEnvironment()
; 854  : {
; 855  : 	return m_textEnvironment;
; 856  : }
; 857  : 
; 858  : // <PartEnvironment>
; 859  : // <TextEnvironment>
; 860  : // <Color>0,0,0<\\Color>
; 861  : // <\\TextEnvironment>
; 862  : // <TextPosition>
; 863  : // ...
; 864  : // <\\TextPosition>
; 865  : // <\\PartEnvironment>
; 866  : CString CTextPosition::GetSavedData() const
; 867  : {
; 868  : 	CString strSaved;
; 869  : 	strSaved.Format("<PartEnvironment>\r\n%s%s<\\PartEnvironment>\r\n", 
; 870  : 		m_textEnvironment.GetSavedData(), GetSavedData_TextPosition());
; 871  : 	return strSaved;
; 872  : }
; 873  : 
; 874  : 
; 875  : // protected ==================================================================
; 876  : CString CTextPosition::GetDataOfOneLine(const bool bData, const CString& strData) const
; 877  : {
; 878  : 	CString data;
; 879  : 	data.Format("<%s>%d<\\%s>\r\n", strData, bData, strData);
; 880  : 	return data;
; 881  : }
; 882  : 
; 883  : // private ====================================================================
; 884  : // <TextPosition>
; 885  : // <Horz>
; 886  : // <Show>0<\\Show>
; 887  : // <\\Horz>
; 888  : // <Horz>
; 889  : // <Left>0<\\Left>
; 890  : // <Right>0<\\Right>
; 891  : // <\\Horz>
; 892  : // <Vert>
; 893  : // <Top>0<\\Top>
; 894  : // <Bottom>0<\\Bottom>
; 895  : // <\\Vert>
; 896  : // <\\TextPosition>
; 897  : CString CTextPosition::GetSavedData_TextPosition() const
; 898  : {
; 899  : 	CString strSaved;
; 900  : 	strSaved.Format("<TextPosition>\r\n%s<\\TextPosition>\r\n", 
; 901  : 		GetSavedRealTextPositionData());
; 902  : 	return strSaved;
; 903  : }
; 904  : 
; 905  : 
; 906  : ///////////////////////////////////////////////////////////////////////////////
; 907  : // class CTextShowPosition
; 908  : 
; 909  : CTextShowPosition::CTextShowPosition():
; 910  : 	m_bShow(true)
; 911  : {
; 912  : }
; 913  : 
; 914  : CTextShowPosition::CTextShowPosition(const CTextEnvironment& environment, const bool bShow):
; 915  : 	CTextPosition(environment), 
; 916  : 	m_bShow(bShow)
; 917  : {
; 918  : }
; 919  : 
; 920  : CTextShowPosition::CTextShowPosition(const CTextShowPosition& position):
; 921  : 	CTextPosition(position.GetTextEnvironment()), 
; 922  : 	m_bShow(position.IsShow())

  00012	8a 42 08	 mov	 al, BYTE PTR [edx+8]
  00015	88 41 08	 mov	 BYTE PTR [ecx+8], al

; 924  : }

  00018	8b c1		 mov	 eax, ecx
  0001a	5d		 pop	 ebp
  0001b	c2 04 00	 ret	 4
??0CTextShowPosition@@QAE@ABV0@@Z ENDP			; CTextShowPosition::CTextShowPosition
_TEXT	ENDS
; Function compile flags: /Ogtp
; File D:\git\src\IBK\IBK_DRFN\ProjSrc\SrcChartEx\ChartAddIn\ChartAnalysisToolAddIn\Include_Analysis\ElementEnvironment.cpp
;	COMDAT ??0CTextShowPosition@@QAE@ABVCTextEnvironment@@_N@Z
_TEXT	SEGMENT
_environment$ = 8					; size = 4
_bShow$ = 12						; size = 1
??0CTextShowPosition@@QAE@ABVCTextEnvironment@@_N@Z PROC ; CTextShowPosition::CTextShowPosition, COMDAT
; _this$ = ecx

; 917  : {

  00000	55		 push	 ebp
  00001	8b ec		 mov	 ebp, esp

; 765  : 	m_color = environment.GetColor();

  00003	8b 45 08	 mov	 eax, DWORD PTR _environment$[ebp]

; 831  : {

  00006	c7 01 00 00 00
	00		 mov	 DWORD PTR [ecx], OFFSET ??_7CTextPosition@@6B@

; 765  : 	m_color = environment.GetColor();

  0000c	8b 00		 mov	 eax, DWORD PTR [eax]
  0000e	89 41 04	 mov	 DWORD PTR [ecx+4], eax

; 832  : }
; 833  : 
; 834  : // public =====================================================================
; 835  : void CTextPosition::Set(const CTextPosition* pTextPosition)
; 836  : {
; 837  : 	if(pTextPosition == NULL)
; 838  : 		return;
; 839  : 	SetTextEnvironment(pTextPosition->GetTextEnvironment());
; 840  : }
; 841  : 
; 842  : void CTextPosition::SetTextEnvironment(const CTextEnvironment& textEnvironment)
; 843  : {
; 844  : 	m_textEnvironment = textEnvironment;
; 845  : }
; 846  : 
; 847  : // ----------------------------------------------------------------------------
; 848  : CTextEnvironment CTextPosition::GetTextEnvironment() const
; 849  : {
; 850  : 	return m_textEnvironment;
; 851  : }
; 852  : 
; 853  : CTextEnvironment& CTextPosition::GetTextEnvironment()
; 854  : {
; 855  : 	return m_textEnvironment;
; 856  : }
; 857  : 
; 858  : // <PartEnvironment>
; 859  : // <TextEnvironment>
; 860  : // <Color>0,0,0<\\Color>
; 861  : // <\\TextEnvironment>
; 862  : // <TextPosition>
; 863  : // ...
; 864  : // <\\TextPosition>
; 865  : // <\\PartEnvironment>
; 866  : CString CTextPosition::GetSavedData() const
; 867  : {
; 868  : 	CString strSaved;
; 869  : 	strSaved.Format("<PartEnvironment>\r\n%s%s<\\PartEnvironment>\r\n", 
; 870  : 		m_textEnvironment.GetSavedData(), GetSavedData_TextPosition());
; 871  : 	return strSaved;
; 872  : }
; 873  : 
; 874  : 
; 875  : // protected ==================================================================
; 876  : CString CTextPosition::GetDataOfOneLine(const bool bData, const CString& strData) const
; 877  : {
; 878  : 	CString data;
; 879  : 	data.Format("<%s>%d<\\%s>\r\n", strData, bData, strData);
; 880  : 	return data;
; 881  : }
; 882  : 
; 883  : // private ====================================================================
; 884  : // <TextPosition>
; 885  : // <Horz>
; 886  : // <Show>0<\\Show>
; 887  : // <\\Horz>
; 888  : // <Horz>
; 889  : // <Left>0<\\Left>
; 890  : // <Right>0<\\Right>
; 891  : // <\\Horz>
; 892  : // <Vert>
; 893  : // <Top>0<\\Top>
; 894  : // <Bottom>0<\\Bottom>
; 895  : // <\\Vert>
; 896  : // <\\TextPosition>
; 897  : CString CTextPosition::GetSavedData_TextPosition() const
; 898  : {
; 899  : 	CString strSaved;
; 900  : 	strSaved.Format("<TextPosition>\r\n%s<\\TextPosition>\r\n", 
; 901  : 		GetSavedRealTextPositionData());
; 902  : 	return strSaved;
; 903  : }
; 904  : 
; 905  : 
; 906  : ///////////////////////////////////////////////////////////////////////////////
; 907  : // class CTextShowPosition
; 908  : 
; 909  : CTextShowPosition::CTextShowPosition():
; 910  : 	m_bShow(true)
; 911  : {
; 912  : }
; 913  : 
; 914  : CTextShowPosition::CTextShowPosition(const CTextEnvironment& environment, const bool bShow):
; 915  : 	CTextPosition(environment), 
; 916  : 	m_bShow(bShow)

  00011	8a 45 0c	 mov	 al, BYTE PTR _bShow$[ebp]
  00014	88 41 08	 mov	 BYTE PTR [ecx+8], al

; 918  : }

  00017	8b c1		 mov	 eax, ecx
  00019	c7 01 00 00 00
	00		 mov	 DWORD PTR [ecx], OFFSET ??_7CTextShowPosition@@6B@
  0001f	5d		 pop	 ebp
  00020	c2 08 00	 ret	 8
??0CTextShowPosition@@QAE@ABVCTextEnvironment@@_N@Z ENDP ; CTextShowPosition::CTextShowPosition
_TEXT	ENDS
; Function compile flags: /Ogtp
; File D:\git\src\IBK\IBK_DRFN\ProjSrc\SrcChartEx\ChartAddIn\ChartAnalysisToolAddIn\Include_Analysis\ElementEnvironment.cpp
;	COMDAT ??0CTextShowPosition@@QAE@XZ
_TEXT	SEGMENT
??0CTextShowPosition@@QAE@XZ PROC			; CTextShowPosition::CTextShowPosition, COMDAT
; _this$ = ecx

; 754  : 	m_color(RGB(0, 0, 0))

  00000	c7 41 04 00 00
	00 00		 mov	 DWORD PTR [ecx+4], 0

; 912  : }

  00007	8b c1		 mov	 eax, ecx
  00009	c7 01 00 00 00
	00		 mov	 DWORD PTR [ecx], OFFSET ??_7CTextShowPosition@@6B@
  0000f	c6 41 08 01	 mov	 BYTE PTR [ecx+8], 1
  00013	c3		 ret	 0
??0CTextShowPosition@@QAE@XZ ENDP			; CTextShowPosition::CTextShowPosition
_TEXT	ENDS
; Function compile flags: /Ogtp
; File D:\git\src\IBK\IBK_DRFN\ProjSrc\SrcChartEx\ChartAddIn\ChartAnalysisToolAddIn\Include_Analysis\ElementEnvironment.cpp
;	COMDAT ?GetSavedData_TextPosition@CTextPosition@@ABE?AV?$CStringT@DV?$StrTraitMFC_DLL@DV?$ChTraitsCRT@D@ATL@@@@@ATL@@XZ
_TEXT	SEGMENT
$T2 = -20						; size = 4
$T3 = -16						; size = 4
__$EHRec$ = -12						; size = 12
___$ReturnUdt$ = 8					; size = 4
?GetSavedData_TextPosition@CTextPosition@@ABE?AV?$CStringT@DV?$StrTraitMFC_DLL@DV?$ChTraitsCRT@D@ATL@@@@@ATL@@XZ PROC ; CTextPosition::GetSavedData_TextPosition, COMDAT
; _this$ = ecx

; 898  : {

  00000	55		 push	 ebp
  00001	8b ec		 mov	 ebp, esp
  00003	6a ff		 push	 -1
  00005	68 00 00 00 00	 push	 __ehhandler$?GetSavedData_TextPosition@CTextPosition@@ABE?AV?$CStringT@DV?$StrTraitMFC_DLL@DV?$ChTraitsCRT@D@ATL@@@@@ATL@@XZ
  0000a	64 a1 00 00 00
	00		 mov	 eax, DWORD PTR fs:0
  00010	50		 push	 eax
  00011	83 ec 08	 sub	 esp, 8
  00014	56		 push	 esi
  00015	57		 push	 edi
  00016	a1 00 00 00 00	 mov	 eax, DWORD PTR ___security_cookie
  0001b	33 c5		 xor	 eax, ebp
  0001d	50		 push	 eax
  0001e	8d 45 f4	 lea	 eax, DWORD PTR __$EHRec$[ebp]
  00021	64 a3 00 00 00
	00		 mov	 DWORD PTR fs:0, eax
  00027	8b f1		 mov	 esi, ecx
  00029	c7 45 f0 00 00
	00 00		 mov	 DWORD PTR $T3[ebp], 0

; 899  : 	CString strSaved;

  00030	8b 7d 08	 mov	 edi, DWORD PTR ___$ReturnUdt$[ebp]
  00033	8b cf		 mov	 ecx, edi
  00035	ff 15 00 00 00
	00		 call	 DWORD PTR __imp_??0?$CStringT@DV?$StrTraitMFC_DLL@DV?$ChTraitsCRT@D@ATL@@@@@ATL@@QAE@XZ

; 900  : 	strSaved.Format("<TextPosition>\r\n%s<\\TextPosition>\r\n", 
; 901  : 		GetSavedRealTextPositionData());
; 902  : 	return strSaved;

  0003b	8b 06		 mov	 eax, DWORD PTR [esi]
  0003d	8d 4d ec	 lea	 ecx, DWORD PTR $T2[ebp]
  00040	51		 push	 ecx
  00041	8b ce		 mov	 ecx, esi
  00043	c7 45 fc 00 00
	00 00		 mov	 DWORD PTR __$EHRec$[ebp+8], 0
  0004a	c7 45 f0 01 00
	00 00		 mov	 DWORD PTR $T3[ebp], 1
  00051	ff 50 04	 call	 DWORD PTR [eax+4]
  00054	ff 30		 push	 DWORD PTR [eax]
  00056	c7 45 fc 01 00
	00 00		 mov	 DWORD PTR __$EHRec$[ebp+8], 1
  0005d	68 00 00 00 00	 push	 OFFSET ??_C@_0CE@NIHIPAJG@?$DMTextPosition?$DO?$AN?6?$CFs?$DM?2TextPositio@
  00062	57		 push	 edi
  00063	ff 15 00 00 00
	00		 call	 DWORD PTR __imp_?Format@?$CStringT@DV?$StrTraitMFC_DLL@DV?$ChTraitsCRT@D@ATL@@@@@ATL@@QAAXPBDZZ
  00069	83 c4 0c	 add	 esp, 12			; 0000000cH
  0006c	8d 4d ec	 lea	 ecx, DWORD PTR $T2[ebp]
  0006f	ff 15 00 00 00
	00		 call	 DWORD PTR __imp_??1?$CStringT@DV?$StrTraitMFC_DLL@DV?$ChTraitsCRT@D@ATL@@@@@ATL@@QAE@XZ
  00075	8b c7		 mov	 eax, edi

; 903  : }

  00077	8b 4d f4	 mov	 ecx, DWORD PTR __$EHRec$[ebp]
  0007a	64 89 0d 00 00
	00 00		 mov	 DWORD PTR fs:0, ecx
  00081	59		 pop	 ecx
  00082	5f		 pop	 edi
  00083	5e		 pop	 esi
  00084	8b e5		 mov	 esp, ebp
  00086	5d		 pop	 ebp
  00087	c2 04 00	 ret	 4
_TEXT	ENDS
;	COMDAT text$x
text$x	SEGMENT
__unwindfunclet$?GetSavedData_TextPosition@CTextPosition@@ABE?AV?$CStringT@DV?$StrTraitMFC_DLL@DV?$ChTraitsCRT@D@ATL@@@@@ATL@@XZ$0:
  00000	8b 45 f0	 mov	 eax, DWORD PTR $T3[ebp]
  00003	83 e0 01	 and	 eax, 1
  00006	0f 84 0d 00 00
	00		 je	 $LN4@GetSavedDa
  0000c	83 65 f0 fe	 and	 DWORD PTR $T3[ebp], -2	; fffffffeH
  00010	8b 4d 08	 mov	 ecx, DWORD PTR ___$ReturnUdt$[ebp]
  00013	ff 25 00 00 00
	00		 jmp	 DWORD PTR __imp_??1?$CStringT@DV?$StrTraitMFC_DLL@DV?$ChTraitsCRT@D@ATL@@@@@ATL@@QAE@XZ
$LN4@GetSavedDa:
  00019	c3		 ret	 0
__unwindfunclet$?GetSavedData_TextPosition@CTextPosition@@ABE?AV?$CStringT@DV?$StrTraitMFC_DLL@DV?$ChTraitsCRT@D@ATL@@@@@ATL@@XZ$1:
  0001a	8d 4d ec	 lea	 ecx, DWORD PTR $T2[ebp]
  0001d	ff 25 00 00 00
	00		 jmp	 DWORD PTR __imp_??1?$CStringT@DV?$StrTraitMFC_DLL@DV?$ChTraitsCRT@D@ATL@@@@@ATL@@QAE@XZ
  00023	cc		 int	 3
  00024	cc		 int	 3
  00025	cc		 int	 3
  00026	cc		 int	 3
  00027	cc		 int	 3
__ehhandler$?GetSavedData_TextPosition@CTextPosition@@ABE?AV?$CStringT@DV?$StrTraitMFC_DLL@DV?$ChTraitsCRT@D@ATL@@@@@ATL@@XZ:
  00028	90		 npad	 1
  00029	90		 npad	 1
  0002a	8b 54 24 08	 mov	 edx, DWORD PTR [esp+8]
  0002e	8d 42 0c	 lea	 eax, DWORD PTR [edx+12]
  00031	8b 4a ec	 mov	 ecx, DWORD PTR [edx-20]
  00034	33 c8		 xor	 ecx, eax
  00036	e8 00 00 00 00	 call	 @__security_check_cookie@4
  0003b	b8 00 00 00 00	 mov	 eax, OFFSET __ehfuncinfo$?GetSavedData_TextPosition@CTextPosition@@ABE?AV?$CStringT@DV?$StrTraitMFC_DLL@DV?$ChTraitsCRT@D@ATL@@@@@ATL@@XZ
  00040	e9 00 00 00 00	 jmp	 ___CxxFrameHandler3
text$x	ENDS
?GetSavedData_TextPosition@CTextPosition@@ABE?AV?$CStringT@DV?$StrTraitMFC_DLL@DV?$ChTraitsCRT@D@ATL@@@@@ATL@@XZ ENDP ; CTextPosition::GetSavedData_TextPosition
; Function compile flags: /Ogtp
; File D:\git\src\IBK\IBK_DRFN\ProjSrc\SrcChartEx\ChartAddIn\ChartAnalysisToolAddIn\Include_Analysis\ElementEnvironment.cpp
;	COMDAT ?GetDataOfOneLine@CTextPosition@@IBE?AV?$CStringT@DV?$StrTraitMFC_DLL@DV?$ChTraitsCRT@D@ATL@@@@@ATL@@_NABV23@@Z
_TEXT	SEGMENT
$T2 = -16						; size = 4
__$EHRec$ = -12						; size = 12
___$ReturnUdt$ = 8					; size = 4
_bData$ = 12						; size = 1
_strData$ = 16						; size = 4
?GetDataOfOneLine@CTextPosition@@IBE?AV?$CStringT@DV?$StrTraitMFC_DLL@DV?$ChTraitsCRT@D@ATL@@@@@ATL@@_NABV23@@Z PROC ; CTextPosition::GetDataOfOneLine, COMDAT
; _this$ = ecx

; 877  : {

  00000	55		 push	 ebp
  00001	8b ec		 mov	 ebp, esp
  00003	6a ff		 push	 -1
  00005	68 00 00 00 00	 push	 __ehhandler$?GetDataOfOneLine@CTextPosition@@IBE?AV?$CStringT@DV?$StrTraitMFC_DLL@DV?$ChTraitsCRT@D@ATL@@@@@ATL@@_NABV23@@Z
  0000a	64 a1 00 00 00
	00		 mov	 eax, DWORD PTR fs:0
  00010	50		 push	 eax
  00011	51		 push	 ecx
  00012	56		 push	 esi
  00013	a1 00 00 00 00	 mov	 eax, DWORD PTR ___security_cookie
  00018	33 c5		 xor	 eax, ebp
  0001a	50		 push	 eax
  0001b	8d 45 f4	 lea	 eax, DWORD PTR __$EHRec$[ebp]
  0001e	64 a3 00 00 00
	00		 mov	 DWORD PTR fs:0, eax
  00024	c7 45 f0 00 00
	00 00		 mov	 DWORD PTR $T2[ebp], 0

; 878  : 	CString data;

  0002b	8b 75 08	 mov	 esi, DWORD PTR ___$ReturnUdt$[ebp]
  0002e	8b ce		 mov	 ecx, esi
  00030	ff 15 00 00 00
	00		 call	 DWORD PTR __imp_??0?$CStringT@DV?$StrTraitMFC_DLL@DV?$ChTraitsCRT@D@ATL@@@@@ATL@@QAE@XZ

; 879  : 	data.Format("<%s>%d<\\%s>\r\n", strData, bData, strData);
; 880  : 	return data;

  00036	8b 55 10	 mov	 edx, DWORD PTR _strData$[ebp]
  00039	0f b6 4d 0c	 movzx	 ecx, BYTE PTR _bData$[ebp]
  0003d	c7 45 fc 00 00
	00 00		 mov	 DWORD PTR __$EHRec$[ebp+8], 0
  00044	c7 45 f0 01 00
	00 00		 mov	 DWORD PTR $T2[ebp], 1
  0004b	ff 32		 push	 DWORD PTR [edx]
  0004d	51		 push	 ecx
  0004e	ff 32		 push	 DWORD PTR [edx]
  00050	68 00 00 00 00	 push	 OFFSET ??_C@_0O@LNMCLPEF@?$DM?$CFs?$DO?$CFd?$DM?2?$CFs?$DO?$AN?6@
  00055	56		 push	 esi
  00056	ff 15 00 00 00
	00		 call	 DWORD PTR __imp_?Format@?$CStringT@DV?$StrTraitMFC_DLL@DV?$ChTraitsCRT@D@ATL@@@@@ATL@@QAAXPBDZZ
  0005c	83 c4 14	 add	 esp, 20			; 00000014H
  0005f	8b c6		 mov	 eax, esi

; 881  : }

  00061	8b 4d f4	 mov	 ecx, DWORD PTR __$EHRec$[ebp]
  00064	64 89 0d 00 00
	00 00		 mov	 DWORD PTR fs:0, ecx
  0006b	59		 pop	 ecx
  0006c	5e		 pop	 esi
  0006d	8b e5		 mov	 esp, ebp
  0006f	5d		 pop	 ebp
  00070	c2 0c 00	 ret	 12			; 0000000cH
_TEXT	ENDS
;	COMDAT text$x
text$x	SEGMENT
__unwindfunclet$?GetDataOfOneLine@CTextPosition@@IBE?AV?$CStringT@DV?$StrTraitMFC_DLL@DV?$ChTraitsCRT@D@ATL@@@@@ATL@@_NABV23@@Z$0:
  00000	8b 45 f0	 mov	 eax, DWORD PTR $T2[ebp]
  00003	83 e0 01	 and	 eax, 1
  00006	0f 84 0d 00 00
	00		 je	 $LN4@GetDataOfO
  0000c	83 65 f0 fe	 and	 DWORD PTR $T2[ebp], -2	; fffffffeH
  00010	8b 4d 08	 mov	 ecx, DWORD PTR ___$ReturnUdt$[ebp]
  00013	ff 25 00 00 00
	00		 jmp	 DWORD PTR __imp_??1?$CStringT@DV?$StrTraitMFC_DLL@DV?$ChTraitsCRT@D@ATL@@@@@ATL@@QAE@XZ
$LN4@GetDataOfO:
  00019	c3		 ret	 0
  0001a	cc		 int	 3
  0001b	cc		 int	 3
  0001c	cc		 int	 3
  0001d	cc		 int	 3
  0001e	cc		 int	 3
__ehhandler$?GetDataOfOneLine@CTextPosition@@IBE?AV?$CStringT@DV?$StrTraitMFC_DLL@DV?$ChTraitsCRT@D@ATL@@@@@ATL@@_NABV23@@Z:
  0001f	90		 npad	 1
  00020	90		 npad	 1
  00021	8b 54 24 08	 mov	 edx, DWORD PTR [esp+8]
  00025	8d 42 0c	 lea	 eax, DWORD PTR [edx+12]
  00028	8b 4a f4	 mov	 ecx, DWORD PTR [edx-12]
  0002b	33 c8		 xor	 ecx, eax
  0002d	e8 00 00 00 00	 call	 @__security_check_cookie@4
  00032	b8 00 00 00 00	 mov	 eax, OFFSET __ehfuncinfo$?GetDataOfOneLine@CTextPosition@@IBE?AV?$CStringT@DV?$StrTraitMFC_DLL@DV?$ChTraitsCRT@D@ATL@@@@@ATL@@_NABV23@@Z
  00037	e9 00 00 00 00	 jmp	 ___CxxFrameHandler3
text$x	ENDS
?GetDataOfOneLine@CTextPosition@@IBE?AV?$CStringT@DV?$StrTraitMFC_DLL@DV?$ChTraitsCRT@D@ATL@@@@@ATL@@_NABV23@@Z ENDP ; CTextPosition::GetDataOfOneLine
; Function compile flags: /Ogtp
; File D:\git\src\IBK\IBK_DRFN\ProjSrc\SrcChartEx\ChartAddIn\ChartAnalysisToolAddIn\Include_Analysis\ElementEnvironment.cpp
; File C:\Program Files (x86)\Microsoft Visual Studio\2019\Community\VC\Tools\MSVC\14.29.30133\atlmfc\include\cstringt.h
; File D:\git\src\IBK\IBK_DRFN\ProjSrc\SrcChartEx\ChartAddIn\ChartAnalysisToolAddIn\Include_Analysis\ElementEnvironment.cpp
; File C:\Program Files (x86)\Microsoft Visual Studio\2019\Community\VC\Tools\MSVC\14.29.30133\atlmfc\include\cstringt.h
; File C:\Program Files (x86)\Microsoft Visual Studio\2019\Community\VC\Tools\MSVC\14.29.30133\atlmfc\include\atlsimpstr.h
; File C:\Program Files (x86)\Microsoft Visual Studio\2019\Community\VC\Tools\MSVC\14.29.30133\atlmfc\include\cstringt.h
; File D:\git\src\IBK\IBK_DRFN\ProjSrc\SrcChartEx\ChartAddIn\ChartAnalysisToolAddIn\Include_Analysis\ElementEnvironment.cpp
;	COMDAT ?GetSavedData@CTextPosition@@QBE?AV?$CStringT@DV?$StrTraitMFC_DLL@DV?$ChTraitsCRT@D@ATL@@@@@ATL@@XZ
_TEXT	SEGMENT
$T2 = -36						; size = 4
$T3 = -32						; size = 4
$T4 = -28						; size = 4
$T5 = -24						; size = 4
$T6 = -20						; size = 4
$T7 = -20						; size = 4
$T8 = -16						; size = 4
__$EHRec$ = -12						; size = 12
___$ReturnUdt$ = 8					; size = 4
?GetSavedData@CTextPosition@@QBE?AV?$CStringT@DV?$StrTraitMFC_DLL@DV?$ChTraitsCRT@D@ATL@@@@@ATL@@XZ PROC ; CTextPosition::GetSavedData, COMDAT
; _this$ = ecx

; 867  : {

  00000	55		 push	 ebp
  00001	8b ec		 mov	 ebp, esp
  00003	6a ff		 push	 -1
  00005	68 00 00 00 00	 push	 __ehhandler$?GetSavedData@CTextPosition@@QBE?AV?$CStringT@DV?$StrTraitMFC_DLL@DV?$ChTraitsCRT@D@ATL@@@@@ATL@@XZ
  0000a	64 a1 00 00 00
	00		 mov	 eax, DWORD PTR fs:0
  00010	50		 push	 eax
  00011	83 ec 18	 sub	 esp, 24			; 00000018H
  00014	53		 push	 ebx
  00015	56		 push	 esi
  00016	57		 push	 edi
  00017	a1 00 00 00 00	 mov	 eax, DWORD PTR ___security_cookie
  0001c	33 c5		 xor	 eax, ebp
  0001e	50		 push	 eax
  0001f	8d 45 f4	 lea	 eax, DWORD PTR __$EHRec$[ebp]
  00022	64 a3 00 00 00
	00		 mov	 DWORD PTR fs:0, eax
  00028	8b f1		 mov	 esi, ecx
  0002a	c7 45 f0 00 00
	00 00		 mov	 DWORD PTR $T8[ebp], 0

; 868  : 	CString strSaved;

  00031	8b 5d 08	 mov	 ebx, DWORD PTR ___$ReturnUdt$[ebp]
  00034	8b cb		 mov	 ecx, ebx
  00036	ff 15 00 00 00
	00		 call	 DWORD PTR __imp_??0?$CStringT@DV?$StrTraitMFC_DLL@DV?$ChTraitsCRT@D@ATL@@@@@ATL@@QAE@XZ

; 899  : 	CString strSaved;

  0003c	8d 4d e4	 lea	 ecx, DWORD PTR $T4[ebp]

; 869  : 	strSaved.Format("<PartEnvironment>\r\n%s%s<\\PartEnvironment>\r\n", 

  0003f	c7 45 fc 01 00
	00 00		 mov	 DWORD PTR __$EHRec$[ebp+8], 1

; 899  : 	CString strSaved;

  00046	ff 15 00 00 00
	00		 call	 DWORD PTR __imp_??0?$CStringT@DV?$StrTraitMFC_DLL@DV?$ChTraitsCRT@D@ATL@@@@@ATL@@QAE@XZ

; 900  : 	strSaved.Format("<TextPosition>\r\n%s<\\TextPosition>\r\n", 

  0004c	8b 06		 mov	 eax, DWORD PTR [esi]
  0004e	8d 4d ec	 lea	 ecx, DWORD PTR $T7[ebp]
  00051	51		 push	 ecx
  00052	8b ce		 mov	 ecx, esi

; 901  : 		GetSavedRealTextPositionData());
; 902  : 	return strSaved;

  00054	c7 45 f0 03 00
	00 00		 mov	 DWORD PTR $T8[ebp], 3
  0005b	ff 50 04	 call	 DWORD PTR [eax+4]
  0005e	ff 30		 push	 DWORD PTR [eax]
  00060	8b 3d 00 00 00
	00		 mov	 edi, DWORD PTR __imp_?Format@?$CStringT@DV?$StrTraitMFC_DLL@DV?$ChTraitsCRT@D@ATL@@@@@ATL@@QAAXPBDZZ
  00066	8d 45 e4	 lea	 eax, DWORD PTR $T4[ebp]
  00069	68 00 00 00 00	 push	 OFFSET ??_C@_0CE@NIHIPAJG@?$DMTextPosition?$DO?$AN?6?$CFs?$DM?2TextPositio@
  0006e	50		 push	 eax
  0006f	c6 45 fc 02	 mov	 BYTE PTR __$EHRec$[ebp+8], 2
  00073	ff d7		 call	 edi
  00075	83 c4 0c	 add	 esp, 12			; 0000000cH
  00078	8d 4d ec	 lea	 ecx, DWORD PTR $T7[ebp]
  0007b	ff 15 00 00 00
	00		 call	 DWORD PTR __imp_??1?$CStringT@DV?$StrTraitMFC_DLL@DV?$ChTraitsCRT@D@ATL@@@@@ATL@@QAE@XZ

; 799  : 	CString strSaved;

  00081	8d 4d e8	 lea	 ecx, DWORD PTR $T5[ebp]

; 869  : 	strSaved.Format("<PartEnvironment>\r\n%s%s<\\PartEnvironment>\r\n", 

  00084	c6 45 fc 03	 mov	 BYTE PTR __$EHRec$[ebp+8], 3

; 799  : 	CString strSaved;

  00088	ff 15 00 00 00
	00		 call	 DWORD PTR __imp_??0?$CStringT@DV?$StrTraitMFC_DLL@DV?$ChTraitsCRT@D@ATL@@@@@ATL@@QAE@XZ

; 808  : 	return ("<Color>" + CDataConversion::RGB2Str(m_color) + "<\\Color>\r\n");

  0008e	ff 76 04	 push	 DWORD PTR [esi+4]
  00091	8d 45 dc	 lea	 eax, DWORD PTR $T2[ebp]

; 801  : 	return strSaved;

  00094	c7 45 f0 07 00
	00 00		 mov	 DWORD PTR $T8[ebp], 7

; 808  : 	return ("<Color>" + CDataConversion::RGB2Str(m_color) + "<\\Color>\r\n");

  0009b	50		 push	 eax
  0009c	e8 00 00 00 00	 call	 ?RGB2Str@CDataConversion@@SA?AV?$CStringT@DV?$StrTraitMFC_DLL@DV?$ChTraitsCRT@D@ATL@@@@@ATL@@K@Z ; CDataConversion::RGB2Str
  000a1	50		 push	 eax
  000a2	8d 45 e0	 lea	 eax, DWORD PTR $T3[ebp]
  000a5	c6 45 fc 04	 mov	 BYTE PTR __$EHRec$[ebp+8], 4
  000a9	68 00 00 00 00	 push	 OFFSET ??_C@_07ONMJGOJF@?$DMColor?$DO@
  000ae	50		 push	 eax
  000af	e8 00 00 00 00	 call	 ??HATL@@YA?AV?$CStringT@DV?$StrTraitMFC_DLL@DV?$ChTraitsCRT@D@ATL@@@@@0@PBDABV10@@Z ; ATL::operator+
  000b4	83 c4 14	 add	 esp, 20			; 00000014H
  000b7	8b f0		 mov	 esi, eax
; File C:\Program Files (x86)\Microsoft Visual Studio\2019\Community\VC\Tools\MSVC\14.29.30133\atlmfc\include\cstringt.h

; 2401 : 		CStringT strResult( str1.GetManager() );

  000b9	8b ce		 mov	 ecx, esi
; File D:\git\src\IBK\IBK_DRFN\ProjSrc\SrcChartEx\ChartAddIn\ChartAnalysisToolAddIn\Include_Analysis\ElementEnvironment.cpp

; 808  : 	return ("<Color>" + CDataConversion::RGB2Str(m_color) + "<\\Color>\r\n");

  000bb	c6 45 fc 06	 mov	 BYTE PTR __$EHRec$[ebp+8], 6
; File C:\Program Files (x86)\Microsoft Visual Studio\2019\Community\VC\Tools\MSVC\14.29.30133\atlmfc\include\cstringt.h

; 2401 : 		CStringT strResult( str1.GetManager() );

  000bf	ff 15 00 00 00
	00		 call	 DWORD PTR __imp_?GetManager@?$CStringT@DV?$StrTraitMFC_DLL@DV?$ChTraitsCRT@D@ATL@@@@@ATL@@QBEPAUIAtlStringMgr@2@XZ
  000c5	50		 push	 eax
  000c6	8d 4d ec	 lea	 ecx, DWORD PTR $T6[ebp]
  000c9	ff 15 00 00 00
	00		 call	 DWORD PTR __imp_??0?$CStringT@DV?$StrTraitMFC_DLL@DV?$ChTraitsCRT@D@ATL@@@@@ATL@@QAE@PAUIAtlStringMgr@1@@Z
; File C:\Program Files (x86)\Microsoft Visual Studio\2019\Community\VC\Tools\MSVC\14.29.30133\atlmfc\include\atlsimpstr.h

; 519  : 		return( GetData()->nDataLength );

  000cf	8b 06		 mov	 eax, DWORD PTR [esi]
; File C:\Program Files (x86)\Microsoft Visual Studio\2019\Community\VC\Tools\MSVC\14.29.30133\atlmfc\include\cstringt.h

; 2403 : 		CThisSimpleString::Concatenate( strResult, str1, str1.GetLength(), psz2, CThisSimpleString::StringLength( psz2 ) );

  000d1	6a 0a		 push	 10			; 0000000aH
  000d3	68 00 00 00 00	 push	 OFFSET ??_C@_0L@CPJBKACB@?$DM?2Color?$DO?$AN?6@

; 2404 : 
; 2405 : 		return( strResult );

  000d8	c7 45 f0 27 00
	00 00		 mov	 DWORD PTR $T8[ebp], 39	; 00000027H
  000df	ff 70 f4	 push	 DWORD PTR [eax-12]
  000e2	50		 push	 eax
  000e3	8d 45 ec	 lea	 eax, DWORD PTR $T6[ebp]
  000e6	50		 push	 eax
  000e7	ff 15 00 00 00
	00		 call	 DWORD PTR __imp_?Concatenate@?$CSimpleStringT@D$00@ATL@@KAXAAV12@PBDH1H@Z
  000ed	83 c4 14	 add	 esp, 20			; 00000014H
; File D:\git\src\IBK\IBK_DRFN\ProjSrc\SrcChartEx\ChartAddIn\ChartAnalysisToolAddIn\Include_Analysis\ElementEnvironment.cpp

; 808  : 	return ("<Color>" + CDataConversion::RGB2Str(m_color) + "<\\Color>\r\n");

  000f0	c7 45 fc 05 00
	00 00		 mov	 DWORD PTR __$EHRec$[ebp+8], 5
  000f7	8d 4d e0	 lea	 ecx, DWORD PTR $T3[ebp]
  000fa	c7 45 f0 0f 00
	00 00		 mov	 DWORD PTR $T8[ebp], 15	; 0000000fH
  00101	ff 15 00 00 00
	00		 call	 DWORD PTR __imp_??1?$CStringT@DV?$StrTraitMFC_DLL@DV?$ChTraitsCRT@D@ATL@@@@@ATL@@QAE@XZ
  00107	8d 4d dc	 lea	 ecx, DWORD PTR $T2[ebp]
  0010a	ff 15 00 00 00
	00		 call	 DWORD PTR __imp_??1?$CStringT@DV?$StrTraitMFC_DLL@DV?$ChTraitsCRT@D@ATL@@@@@ATL@@QAE@XZ

; 800  : 	strSaved.Format("<TextEnvironment>\r\n%s<\\TextEnvironment>\r\n", GetSavedColor());

  00110	ff 75 ec	 push	 DWORD PTR $T6[ebp]
  00113	8d 45 e8	 lea	 eax, DWORD PTR $T5[ebp]
  00116	c6 45 fc 07	 mov	 BYTE PTR __$EHRec$[ebp+8], 7
  0011a	68 00 00 00 00	 push	 OFFSET ??_C@_0CK@OGEBLLHG@?$DMTextEnvironment?$DO?$AN?6?$CFs?$DM?2TextEnvi@
  0011f	50		 push	 eax
  00120	ff d7		 call	 edi
  00122	83 c4 0c	 add	 esp, 12			; 0000000cH
  00125	c6 45 fc 03	 mov	 BYTE PTR __$EHRec$[ebp+8], 3
  00129	8d 4d ec	 lea	 ecx, DWORD PTR $T6[ebp]
  0012c	ff 15 00 00 00
	00		 call	 DWORD PTR __imp_??1?$CStringT@DV?$StrTraitMFC_DLL@DV?$ChTraitsCRT@D@ATL@@@@@ATL@@QAE@XZ

; 869  : 	strSaved.Format("<PartEnvironment>\r\n%s%s<\\PartEnvironment>\r\n", 

  00132	ff 75 e4	 push	 DWORD PTR $T4[ebp]
  00135	ff 75 e8	 push	 DWORD PTR $T5[ebp]
  00138	68 00 00 00 00	 push	 OFFSET ??_C@_0CM@MGBIECEJ@?$DMPartEnvironment?$DO?$AN?6?$CFs?$CFs?$DM?2PartEn@
  0013d	53		 push	 ebx
  0013e	ff d7		 call	 edi
  00140	83 c4 10	 add	 esp, 16			; 00000010H
  00143	8d 4d e8	 lea	 ecx, DWORD PTR $T5[ebp]
  00146	ff 15 00 00 00
	00		 call	 DWORD PTR __imp_??1?$CStringT@DV?$StrTraitMFC_DLL@DV?$ChTraitsCRT@D@ATL@@@@@ATL@@QAE@XZ
  0014c	8d 4d e4	 lea	 ecx, DWORD PTR $T4[ebp]
  0014f	ff 15 00 00 00
	00		 call	 DWORD PTR __imp_??1?$CStringT@DV?$StrTraitMFC_DLL@DV?$ChTraitsCRT@D@ATL@@@@@ATL@@QAE@XZ

; 870  : 		m_textEnvironment.GetSavedData(), GetSavedData_TextPosition());
; 871  : 	return strSaved;

  00155	8b c3		 mov	 eax, ebx

; 872  : }

  00157	8b 4d f4	 mov	 ecx, DWORD PTR __$EHRec$[ebp]
  0015a	64 89 0d 00 00
	00 00		 mov	 DWORD PTR fs:0, ecx
  00161	59		 pop	 ecx
  00162	5f		 pop	 edi
  00163	5e		 pop	 esi
  00164	5b		 pop	 ebx
  00165	8b e5		 mov	 esp, ebp
  00167	5d		 pop	 ebp
  00168	c2 04 00	 ret	 4
_TEXT	ENDS
;	COMDAT text$x
text$x	SEGMENT
__unwindfunclet$?GetSavedData@CTextPosition@@QBE?AV?$CStringT@DV?$StrTraitMFC_DLL@DV?$ChTraitsCRT@D@ATL@@@@@ATL@@XZ$0:
  00000	8b 45 f0	 mov	 eax, DWORD PTR $T8[ebp]
  00003	83 e0 01	 and	 eax, 1
  00006	0f 84 0d 00 00
	00		 je	 $LN4@GetSavedDa
  0000c	83 65 f0 fe	 and	 DWORD PTR $T8[ebp], -2	; fffffffeH
  00010	8b 4d 08	 mov	 ecx, DWORD PTR ___$ReturnUdt$[ebp]
  00013	ff 25 00 00 00
	00		 jmp	 DWORD PTR __imp_??1?$CStringT@DV?$StrTraitMFC_DLL@DV?$ChTraitsCRT@D@ATL@@@@@ATL@@QAE@XZ
$LN4@GetSavedDa:
  00019	c3		 ret	 0
__unwindfunclet$?GetSavedData@CTextPosition@@QBE?AV?$CStringT@DV?$StrTraitMFC_DLL@DV?$ChTraitsCRT@D@ATL@@@@@ATL@@XZ$3:
  0001a	8b 45 f0	 mov	 eax, DWORD PTR $T8[ebp]
  0001d	83 e0 02	 and	 eax, 2
  00020	0f 84 0d 00 00
	00		 je	 $LN10@GetSavedDa
  00026	83 65 f0 fd	 and	 DWORD PTR $T8[ebp], -3	; fffffffdH
  0002a	8d 4d e4	 lea	 ecx, DWORD PTR $T4[ebp]
  0002d	ff 25 00 00 00
	00		 jmp	 DWORD PTR __imp_??1?$CStringT@DV?$StrTraitMFC_DLL@DV?$ChTraitsCRT@D@ATL@@@@@ATL@@QAE@XZ
$LN10@GetSavedDa:
  00033	c3		 ret	 0
__unwindfunclet$?GetSavedData@CTextPosition@@QBE?AV?$CStringT@DV?$StrTraitMFC_DLL@DV?$ChTraitsCRT@D@ATL@@@@@ATL@@XZ$4:
  00034	8d 4d ec	 lea	 ecx, DWORD PTR $T7[ebp]
  00037	ff 25 00 00 00
	00		 jmp	 DWORD PTR __imp_??1?$CStringT@DV?$StrTraitMFC_DLL@DV?$ChTraitsCRT@D@ATL@@@@@ATL@@QAE@XZ
__unwindfunclet$?GetSavedData@CTextPosition@@QBE?AV?$CStringT@DV?$StrTraitMFC_DLL@DV?$ChTraitsCRT@D@ATL@@@@@ATL@@XZ$5:
  0003d	8b 45 f0	 mov	 eax, DWORD PTR $T8[ebp]
  00040	83 e0 04	 and	 eax, 4
  00043	0f 84 0d 00 00
	00		 je	 $LN15@GetSavedDa
  00049	83 65 f0 fb	 and	 DWORD PTR $T8[ebp], -5	; fffffffbH
  0004d	8d 4d e8	 lea	 ecx, DWORD PTR $T5[ebp]
  00050	ff 25 00 00 00
	00		 jmp	 DWORD PTR __imp_??1?$CStringT@DV?$StrTraitMFC_DLL@DV?$ChTraitsCRT@D@ATL@@@@@ATL@@QAE@XZ
$LN15@GetSavedDa:
  00056	c3		 ret	 0
__unwindfunclet$?GetSavedData@CTextPosition@@QBE?AV?$CStringT@DV?$StrTraitMFC_DLL@DV?$ChTraitsCRT@D@ATL@@@@@ATL@@XZ$7:
  00057	8d 4d dc	 lea	 ecx, DWORD PTR $T2[ebp]
  0005a	ff 25 00 00 00
	00		 jmp	 DWORD PTR __imp_??1?$CStringT@DV?$StrTraitMFC_DLL@DV?$ChTraitsCRT@D@ATL@@@@@ATL@@QAE@XZ
__unwindfunclet$?GetSavedData@CTextPosition@@QBE?AV?$CStringT@DV?$StrTraitMFC_DLL@DV?$ChTraitsCRT@D@ATL@@@@@ATL@@XZ$8:
  00060	8d 4d e0	 lea	 ecx, DWORD PTR $T3[ebp]
  00063	ff 25 00 00 00
	00		 jmp	 DWORD PTR __imp_??1?$CStringT@DV?$StrTraitMFC_DLL@DV?$ChTraitsCRT@D@ATL@@@@@ATL@@QAE@XZ
__unwindfunclet$?GetSavedData@CTextPosition@@QBE?AV?$CStringT@DV?$StrTraitMFC_DLL@DV?$ChTraitsCRT@D@ATL@@@@@ATL@@XZ$11:
  00069	8b 45 f0	 mov	 eax, DWORD PTR $T8[ebp]
  0006c	83 e0 20	 and	 eax, 32			; 00000020H
  0006f	0f 84 0d 00 00
	00		 je	 $LN39@GetSavedDa
  00075	83 65 f0 df	 and	 DWORD PTR $T8[ebp], -33	; ffffffdfH
  00079	8d 4d ec	 lea	 ecx, DWORD PTR $T6[ebp]
  0007c	ff 25 00 00 00
	00		 jmp	 DWORD PTR __imp_??1?$CStringT@DV?$StrTraitMFC_DLL@DV?$ChTraitsCRT@D@ATL@@@@@ATL@@QAE@XZ
$LN39@GetSavedDa:
  00082	c3		 ret	 0
__unwindfunclet$?GetSavedData@CTextPosition@@QBE?AV?$CStringT@DV?$StrTraitMFC_DLL@DV?$ChTraitsCRT@D@ATL@@@@@ATL@@XZ$6:
  00083	8d 4d ec	 lea	 ecx, DWORD PTR $T6[ebp]
  00086	ff 25 00 00 00
	00		 jmp	 DWORD PTR __imp_??1?$CStringT@DV?$StrTraitMFC_DLL@DV?$ChTraitsCRT@D@ATL@@@@@ATL@@QAE@XZ
  0008c	cc		 int	 3
  0008d	cc		 int	 3
  0008e	cc		 int	 3
  0008f	cc		 int	 3
  00090	cc		 int	 3
__ehhandler$?GetSavedData@CTextPosition@@QBE?AV?$CStringT@DV?$StrTraitMFC_DLL@DV?$ChTraitsCRT@D@ATL@@@@@ATL@@XZ:
  00091	90		 npad	 1
  00092	90		 npad	 1
  00093	8b 54 24 08	 mov	 edx, DWORD PTR [esp+8]
  00097	8d 42 0c	 lea	 eax, DWORD PTR [edx+12]
  0009a	8b 4a d8	 mov	 ecx, DWORD PTR [edx-40]
  0009d	33 c8		 xor	 ecx, eax
  0009f	e8 00 00 00 00	 call	 @__security_check_cookie@4
  000a4	b8 00 00 00 00	 mov	 eax, OFFSET __ehfuncinfo$?GetSavedData@CTextPosition@@QBE?AV?$CStringT@DV?$StrTraitMFC_DLL@DV?$ChTraitsCRT@D@ATL@@@@@ATL@@XZ
  000a9	e9 00 00 00 00	 jmp	 ___CxxFrameHandler3
text$x	ENDS
?GetSavedData@CTextPosition@@QBE?AV?$CStringT@DV?$StrTraitMFC_DLL@DV?$ChTraitsCRT@D@ATL@@@@@ATL@@XZ ENDP ; CTextPosition::GetSavedData
; Function compile flags: /Ogtp
; File D:\git\src\IBK\IBK_DRFN\ProjSrc\SrcChartEx\ChartAddIn\ChartAnalysisToolAddIn\Include_Analysis\ElementEnvironment.cpp
;	COMDAT ?GetTextEnvironment@CTextPosition@@QAEAAVCTextEnvironment@@XZ
_TEXT	SEGMENT
?GetTextEnvironment@CTextPosition@@QAEAAVCTextEnvironment@@XZ PROC ; CTextPosition::GetTextEnvironment, COMDAT
; _this$ = ecx

; 855  : 	return m_textEnvironment;

  00000	8d 41 04	 lea	 eax, DWORD PTR [ecx+4]

; 856  : }

  00003	c3		 ret	 0
?GetTextEnvironment@CTextPosition@@QAEAAVCTextEnvironment@@XZ ENDP ; CTextPosition::GetTextEnvironment
_TEXT	ENDS
; Function compile flags: /Ogtp
; File D:\git\src\IBK\IBK_DRFN\ProjSrc\SrcChartEx\ChartAddIn\ChartAnalysisToolAddIn\Include_Analysis\ElementEnvironment.cpp
;	COMDAT ?GetTextEnvironment@CTextPosition@@QBE?AVCTextEnvironment@@XZ
_TEXT	SEGMENT
___$ReturnUdt$ = 8					; size = 4
?GetTextEnvironment@CTextPosition@@QBE?AVCTextEnvironment@@XZ PROC ; CTextPosition::GetTextEnvironment, COMDAT
; _this$ = ecx

; 849  : {

  00000	55		 push	 ebp
  00001	8b ec		 mov	 ebp, esp

; 765  : 	m_color = environment.GetColor();

  00003	8b 45 08	 mov	 eax, DWORD PTR ___$ReturnUdt$[ebp]
  00006	8b 49 04	 mov	 ecx, DWORD PTR [ecx+4]
  00009	89 08		 mov	 DWORD PTR [eax], ecx

; 850  : 	return m_textEnvironment;
; 851  : }

  0000b	5d		 pop	 ebp
  0000c	c2 04 00	 ret	 4
?GetTextEnvironment@CTextPosition@@QBE?AVCTextEnvironment@@XZ ENDP ; CTextPosition::GetTextEnvironment
_TEXT	ENDS
; Function compile flags: /Ogtp
; File D:\git\src\IBK\IBK_DRFN\ProjSrc\SrcChartEx\ChartAddIn\ChartAnalysisToolAddIn\Include_Analysis\ElementEnvironment.cpp
;	COMDAT ?SetTextEnvironment@CTextPosition@@QAEXABVCTextEnvironment@@@Z
_TEXT	SEGMENT
_textEnvironment$ = 8					; size = 4
?SetTextEnvironment@CTextPosition@@QAEXABVCTextEnvironment@@@Z PROC ; CTextPosition::SetTextEnvironment, COMDAT
; _this$ = ecx

; 843  : {

  00000	55		 push	 ebp
  00001	8b ec		 mov	 ebp, esp

; 745  : 	if(this == &environment)

  00003	8b 45 08	 mov	 eax, DWORD PTR _textEnvironment$[ebp]

; 844  : 	m_textEnvironment = textEnvironment;

  00006	83 c1 04	 add	 ecx, 4

; 745  : 	if(this == &environment)

  00009	3b c8		 cmp	 ecx, eax
  0000b	74 04		 je	 SHORT $LN3@SetTextEnv

; 746  : 		return *this;
; 747  : 
; 748  : 	m_color = environment.GetColor();

  0000d	8b 00		 mov	 eax, DWORD PTR [eax]
  0000f	89 01		 mov	 DWORD PTR [ecx], eax
$LN3@SetTextEnv:

; 845  : }

  00011	5d		 pop	 ebp
  00012	c2 04 00	 ret	 4
?SetTextEnvironment@CTextPosition@@QAEXABVCTextEnvironment@@@Z ENDP ; CTextPosition::SetTextEnvironment
_TEXT	ENDS
; Function compile flags: /Ogtp
; File D:\git\src\IBK\IBK_DRFN\ProjSrc\SrcChartEx\ChartAddIn\ChartAnalysisToolAddIn\Include_Analysis\ElementEnvironment.cpp
;	COMDAT ?Set@CTextPosition@@UAEXPBV1@@Z
_TEXT	SEGMENT
$T1 = -4						; size = 4
_pTextPosition$ = 8					; size = 4
?Set@CTextPosition@@UAEXPBV1@@Z PROC			; CTextPosition::Set, COMDAT
; _this$ = ecx

; 836  : {

  00000	55		 push	 ebp
  00001	8b ec		 mov	 ebp, esp
  00003	51		 push	 ecx

; 837  : 	if(pTextPosition == NULL)

  00004	8b 45 08	 mov	 eax, DWORD PTR _pTextPosition$[ebp]
  00007	85 c0		 test	 eax, eax
  00009	74 0f		 je	 SHORT $LN10@Set

; 844  : 	m_textEnvironment = textEnvironment;

  0000b	83 c1 04	 add	 ecx, 4

; 745  : 	if(this == &environment)

  0000e	8d 55 fc	 lea	 edx, DWORD PTR $T1[ebp]
  00011	3b ca		 cmp	 ecx, edx
  00013	74 05		 je	 SHORT $LN10@Set

; 746  : 		return *this;
; 747  : 
; 748  : 	m_color = environment.GetColor();

  00015	8b 40 04	 mov	 eax, DWORD PTR [eax+4]
  00018	89 01		 mov	 DWORD PTR [ecx], eax
$LN10@Set:

; 838  : 		return;
; 839  : 	SetTextEnvironment(pTextPosition->GetTextEnvironment());
; 840  : }

  0001a	8b e5		 mov	 esp, ebp
  0001c	5d		 pop	 ebp
  0001d	c2 04 00	 ret	 4
?Set@CTextPosition@@UAEXPBV1@@Z ENDP			; CTextPosition::Set
_TEXT	ENDS
; Function compile flags: /Ogtp
; File D:\git\src\IBK\IBK_DRFN\ProjSrc\SrcChartEx\ChartAddIn\ChartAnalysisToolAddIn\Include_Analysis\ElementEnvironment.cpp
;	COMDAT ??0CTextPosition@@QAE@ABVCTextEnvironment@@@Z
_TEXT	SEGMENT
_textEnvironment$ = 8					; size = 4
??0CTextPosition@@QAE@ABVCTextEnvironment@@@Z PROC	; CTextPosition::CTextPosition, COMDAT
; _this$ = ecx

; 831  : {

  00000	55		 push	 ebp
  00001	8b ec		 mov	 ebp, esp

; 765  : 	m_color = environment.GetColor();

  00003	8b 45 08	 mov	 eax, DWORD PTR _textEnvironment$[ebp]

; 831  : {

  00006	c7 01 00 00 00
	00		 mov	 DWORD PTR [ecx], OFFSET ??_7CTextPosition@@6B@

; 765  : 	m_color = environment.GetColor();

  0000c	8b 00		 mov	 eax, DWORD PTR [eax]
  0000e	89 41 04	 mov	 DWORD PTR [ecx+4], eax

; 832  : }

  00011	8b c1		 mov	 eax, ecx
  00013	5d		 pop	 ebp
  00014	c2 04 00	 ret	 4
??0CTextPosition@@QAE@ABVCTextEnvironment@@@Z ENDP	; CTextPosition::CTextPosition
_TEXT	ENDS
; Function compile flags: /Ogtp
; File D:\git\src\IBK\IBK_DRFN\ProjSrc\SrcChartEx\ChartAddIn\ChartAnalysisToolAddIn\Include_Analysis\ElementEnvironment.cpp
;	COMDAT ??0CTextPosition@@QAE@XZ
_TEXT	SEGMENT
??0CTextPosition@@QAE@XZ PROC				; CTextPosition::CTextPosition, COMDAT
; _this$ = ecx

; 826  : {

  00000	c7 01 00 00 00
	00		 mov	 DWORD PTR [ecx], OFFSET ??_7CTextPosition@@6B@

; 827  : }

  00006	8b c1		 mov	 eax, ecx

; 754  : 	m_color(RGB(0, 0, 0))

  00008	c7 41 04 00 00
	00 00		 mov	 DWORD PTR [ecx+4], 0

; 827  : }

  0000f	c3		 ret	 0
??0CTextPosition@@QAE@XZ ENDP				; CTextPosition::CTextPosition
_TEXT	ENDS
; Function compile flags: /Ogtp
; File D:\git\src\IBK\IBK_DRFN\ProjSrc\SrcChartEx\ChartAddIn\ChartAnalysisToolAddIn\Include_Analysis\ElementEnvironment.cpp
;	COMDAT ??4CTextPosition@@QAEAAV0@ABV0@@Z
_TEXT	SEGMENT
$T1 = -4						; size = 4
_environment$ = 8					; size = 4
??4CTextPosition@@QAEAAV0@ABV0@@Z PROC			; CTextPosition::operator=, COMDAT
; _this$ = ecx

; 816  : {

  00000	55		 push	 ebp
  00001	8b ec		 mov	 ebp, esp
  00003	51		 push	 ecx

; 817  : 	if(this == &environment)

  00004	8b 45 08	 mov	 eax, DWORD PTR _environment$[ebp]
  00007	3b c8		 cmp	 ecx, eax
  00009	74 11		 je	 SHORT $LN12@operator

; 818  : 		return *this;
; 819  : 
; 820  : 	m_textEnvironment = environment.GetTextEnvironment();

  0000b	56		 push	 esi

; 745  : 	if(this == &environment)

  0000c	8d 75 fc	 lea	 esi, DWORD PTR $T1[ebp]

; 818  : 		return *this;
; 819  : 
; 820  : 	m_textEnvironment = environment.GetTextEnvironment();

  0000f	8d 51 04	 lea	 edx, DWORD PTR [ecx+4]

; 745  : 	if(this == &environment)

  00012	3b d6		 cmp	 edx, esi
  00014	5e		 pop	 esi
  00015	74 05		 je	 SHORT $LN12@operator

; 746  : 		return *this;
; 747  : 
; 748  : 	m_color = environment.GetColor();

  00017	8b 40 04	 mov	 eax, DWORD PTR [eax+4]
  0001a	89 02		 mov	 DWORD PTR [edx], eax
$LN12@operator:

; 821  : 	return *this;
; 822  : }

  0001c	8b c1		 mov	 eax, ecx
  0001e	8b e5		 mov	 esp, ebp
  00020	5d		 pop	 ebp
  00021	c2 04 00	 ret	 4
??4CTextPosition@@QAEAAV0@ABV0@@Z ENDP			; CTextPosition::operator=
_TEXT	ENDS
; Function compile flags: /Ogtp
; File D:\git\src\IBK\IBK_DRFN\ProjSrc\SrcChartEx\ChartAddIn\ChartAnalysisToolAddIn\Include_Analysis\ElementEnvironment.cpp
; File C:\Program Files (x86)\Microsoft Visual Studio\2019\Community\VC\Tools\MSVC\14.29.30133\atlmfc\include\cstringt.h
; File D:\git\src\IBK\IBK_DRFN\ProjSrc\SrcChartEx\ChartAddIn\ChartAnalysisToolAddIn\Include_Analysis\ElementEnvironment.cpp
; File C:\Program Files (x86)\Microsoft Visual Studio\2019\Community\VC\Tools\MSVC\14.29.30133\atlmfc\include\cstringt.h
; File C:\Program Files (x86)\Microsoft Visual Studio\2019\Community\VC\Tools\MSVC\14.29.30133\atlmfc\include\atlsimpstr.h
; File C:\Program Files (x86)\Microsoft Visual Studio\2019\Community\VC\Tools\MSVC\14.29.30133\atlmfc\include\cstringt.h
; File D:\git\src\IBK\IBK_DRFN\ProjSrc\SrcChartEx\ChartAddIn\ChartAnalysisToolAddIn\Include_Analysis\ElementEnvironment.cpp
;	COMDAT ?GetSavedColor@CTextEnvironment@@ABE?AV?$CStringT@DV?$StrTraitMFC_DLL@DV?$ChTraitsCRT@D@ATL@@@@@ATL@@XZ
_TEXT	SEGMENT
$T2 = -24						; size = 4
$T3 = -20						; size = 4
$T4 = -16						; size = 4
__$EHRec$ = -12						; size = 12
___$ReturnUdt$ = 8					; size = 4
?GetSavedColor@CTextEnvironment@@ABE?AV?$CStringT@DV?$StrTraitMFC_DLL@DV?$ChTraitsCRT@D@ATL@@@@@ATL@@XZ PROC ; CTextEnvironment::GetSavedColor, COMDAT
; _this$ = ecx

; 807  : {

  00000	55		 push	 ebp
  00001	8b ec		 mov	 ebp, esp
  00003	6a ff		 push	 -1
  00005	68 00 00 00 00	 push	 __ehhandler$?GetSavedColor@CTextEnvironment@@ABE?AV?$CStringT@DV?$StrTraitMFC_DLL@DV?$ChTraitsCRT@D@ATL@@@@@ATL@@XZ
  0000a	64 a1 00 00 00
	00		 mov	 eax, DWORD PTR fs:0
  00010	50		 push	 eax
  00011	83 ec 0c	 sub	 esp, 12			; 0000000cH
  00014	56		 push	 esi
  00015	57		 push	 edi
  00016	a1 00 00 00 00	 mov	 eax, DWORD PTR ___security_cookie
  0001b	33 c5		 xor	 eax, ebp
  0001d	50		 push	 eax
  0001e	8d 45 f4	 lea	 eax, DWORD PTR __$EHRec$[ebp]
  00021	64 a3 00 00 00
	00		 mov	 DWORD PTR fs:0, eax
  00027	c7 45 f0 00 00
	00 00		 mov	 DWORD PTR $T4[ebp], 0

; 808  : 	return ("<Color>" + CDataConversion::RGB2Str(m_color) + "<\\Color>\r\n");

  0002e	8d 45 e8	 lea	 eax, DWORD PTR $T2[ebp]
  00031	ff 31		 push	 DWORD PTR [ecx]
  00033	50		 push	 eax
  00034	e8 00 00 00 00	 call	 ?RGB2Str@CDataConversion@@SA?AV?$CStringT@DV?$StrTraitMFC_DLL@DV?$ChTraitsCRT@D@ATL@@@@@ATL@@K@Z ; CDataConversion::RGB2Str
  00039	50		 push	 eax
  0003a	8d 45 ec	 lea	 eax, DWORD PTR $T3[ebp]
  0003d	c7 45 fc 00 00
	00 00		 mov	 DWORD PTR __$EHRec$[ebp+8], 0
  00044	68 00 00 00 00	 push	 OFFSET ??_C@_07ONMJGOJF@?$DMColor?$DO@
  00049	50		 push	 eax
  0004a	e8 00 00 00 00	 call	 ??HATL@@YA?AV?$CStringT@DV?$StrTraitMFC_DLL@DV?$ChTraitsCRT@D@ATL@@@@@0@PBDABV10@@Z ; ATL::operator+
  0004f	83 c4 14	 add	 esp, 20			; 00000014H
  00052	8b f0		 mov	 esi, eax
; File C:\Program Files (x86)\Microsoft Visual Studio\2019\Community\VC\Tools\MSVC\14.29.30133\atlmfc\include\cstringt.h

; 2401 : 		CStringT strResult( str1.GetManager() );

  00054	8b ce		 mov	 ecx, esi
; File D:\git\src\IBK\IBK_DRFN\ProjSrc\SrcChartEx\ChartAddIn\ChartAnalysisToolAddIn\Include_Analysis\ElementEnvironment.cpp

; 808  : 	return ("<Color>" + CDataConversion::RGB2Str(m_color) + "<\\Color>\r\n");

  00056	c6 45 fc 02	 mov	 BYTE PTR __$EHRec$[ebp+8], 2
; File C:\Program Files (x86)\Microsoft Visual Studio\2019\Community\VC\Tools\MSVC\14.29.30133\atlmfc\include\cstringt.h

; 2401 : 		CStringT strResult( str1.GetManager() );

  0005a	ff 15 00 00 00
	00		 call	 DWORD PTR __imp_?GetManager@?$CStringT@DV?$StrTraitMFC_DLL@DV?$ChTraitsCRT@D@ATL@@@@@ATL@@QBEPAUIAtlStringMgr@2@XZ
  00060	8b 7d 08	 mov	 edi, DWORD PTR ___$ReturnUdt$[ebp]
  00063	8b cf		 mov	 ecx, edi
  00065	50		 push	 eax
  00066	ff 15 00 00 00
	00		 call	 DWORD PTR __imp_??0?$CStringT@DV?$StrTraitMFC_DLL@DV?$ChTraitsCRT@D@ATL@@@@@ATL@@QAE@PAUIAtlStringMgr@1@@Z
; File C:\Program Files (x86)\Microsoft Visual Studio\2019\Community\VC\Tools\MSVC\14.29.30133\atlmfc\include\atlsimpstr.h

; 519  : 		return( GetData()->nDataLength );

  0006c	8b 0e		 mov	 ecx, DWORD PTR [esi]
; File C:\Program Files (x86)\Microsoft Visual Studio\2019\Community\VC\Tools\MSVC\14.29.30133\atlmfc\include\cstringt.h

; 2403 : 		CThisSimpleString::Concatenate( strResult, str1, str1.GetLength(), psz2, CThisSimpleString::StringLength( psz2 ) );

  0006e	6a 0a		 push	 10			; 0000000aH
  00070	68 00 00 00 00	 push	 OFFSET ??_C@_0L@CPJBKACB@?$DM?2Color?$DO?$AN?6@

; 2404 : 
; 2405 : 		return( strResult );

  00075	c7 45 f0 04 00
	00 00		 mov	 DWORD PTR $T4[ebp], 4
  0007c	ff 71 f4	 push	 DWORD PTR [ecx-12]
  0007f	51		 push	 ecx
  00080	57		 push	 edi
  00081	ff 15 00 00 00
	00		 call	 DWORD PTR __imp_?Concatenate@?$CSimpleStringT@D$00@ATL@@KAXAAV12@PBDH1H@Z
  00087	83 c4 14	 add	 esp, 20			; 00000014H
; File D:\git\src\IBK\IBK_DRFN\ProjSrc\SrcChartEx\ChartAddIn\ChartAnalysisToolAddIn\Include_Analysis\ElementEnvironment.cpp

; 808  : 	return ("<Color>" + CDataConversion::RGB2Str(m_color) + "<\\Color>\r\n");

  0008a	8d 4d ec	 lea	 ecx, DWORD PTR $T3[ebp]
  0008d	ff 15 00 00 00
	00		 call	 DWORD PTR __imp_??1?$CStringT@DV?$StrTraitMFC_DLL@DV?$ChTraitsCRT@D@ATL@@@@@ATL@@QAE@XZ
  00093	8d 4d e8	 lea	 ecx, DWORD PTR $T2[ebp]
  00096	ff 15 00 00 00
	00		 call	 DWORD PTR __imp_??1?$CStringT@DV?$StrTraitMFC_DLL@DV?$ChTraitsCRT@D@ATL@@@@@ATL@@QAE@XZ
  0009c	8b c7		 mov	 eax, edi

; 809  : }

  0009e	8b 4d f4	 mov	 ecx, DWORD PTR __$EHRec$[ebp]
  000a1	64 89 0d 00 00
	00 00		 mov	 DWORD PTR fs:0, ecx
  000a8	59		 pop	 ecx
  000a9	5f		 pop	 edi
  000aa	5e		 pop	 esi
  000ab	8b e5		 mov	 esp, ebp
  000ad	5d		 pop	 ebp
  000ae	c2 04 00	 ret	 4
_TEXT	ENDS
;	COMDAT text$x
text$x	SEGMENT
__unwindfunclet$?GetSavedColor@CTextEnvironment@@ABE?AV?$CStringT@DV?$StrTraitMFC_DLL@DV?$ChTraitsCRT@D@ATL@@@@@ATL@@XZ$0:
  00000	8d 4d e8	 lea	 ecx, DWORD PTR $T2[ebp]
  00003	ff 25 00 00 00
	00		 jmp	 DWORD PTR __imp_??1?$CStringT@DV?$StrTraitMFC_DLL@DV?$ChTraitsCRT@D@ATL@@@@@ATL@@QAE@XZ
__unwindfunclet$?GetSavedColor@CTextEnvironment@@ABE?AV?$CStringT@DV?$StrTraitMFC_DLL@DV?$ChTraitsCRT@D@ATL@@@@@ATL@@XZ$1:
  00009	8d 4d ec	 lea	 ecx, DWORD PTR $T3[ebp]
  0000c	ff 25 00 00 00
	00		 jmp	 DWORD PTR __imp_??1?$CStringT@DV?$StrTraitMFC_DLL@DV?$ChTraitsCRT@D@ATL@@@@@ATL@@QAE@XZ
__unwindfunclet$?GetSavedColor@CTextEnvironment@@ABE?AV?$CStringT@DV?$StrTraitMFC_DLL@DV?$ChTraitsCRT@D@ATL@@@@@ATL@@XZ$4:
  00012	8b 45 f0	 mov	 eax, DWORD PTR $T4[ebp]
  00015	83 e0 04	 and	 eax, 4
  00018	0f 84 0d 00 00
	00		 je	 $LN23@GetSavedCo
  0001e	83 65 f0 fb	 and	 DWORD PTR $T4[ebp], -5	; fffffffbH
  00022	8b 4d 08	 mov	 ecx, DWORD PTR ___$ReturnUdt$[ebp]
  00025	ff 25 00 00 00
	00		 jmp	 DWORD PTR __imp_??1?$CStringT@DV?$StrTraitMFC_DLL@DV?$ChTraitsCRT@D@ATL@@@@@ATL@@QAE@XZ
$LN23@GetSavedCo:
  0002b	c3		 ret	 0
  0002c	cc		 int	 3
  0002d	cc		 int	 3
  0002e	cc		 int	 3
  0002f	cc		 int	 3
  00030	cc		 int	 3
__ehhandler$?GetSavedColor@CTextEnvironment@@ABE?AV?$CStringT@DV?$StrTraitMFC_DLL@DV?$ChTraitsCRT@D@ATL@@@@@ATL@@XZ:
  00031	90		 npad	 1
  00032	90		 npad	 1
  00033	8b 54 24 08	 mov	 edx, DWORD PTR [esp+8]
  00037	8d 42 0c	 lea	 eax, DWORD PTR [edx+12]
  0003a	8b 4a e8	 mov	 ecx, DWORD PTR [edx-24]
  0003d	33 c8		 xor	 ecx, eax
  0003f	e8 00 00 00 00	 call	 @__security_check_cookie@4
  00044	b8 00 00 00 00	 mov	 eax, OFFSET __ehfuncinfo$?GetSavedColor@CTextEnvironment@@ABE?AV?$CStringT@DV?$StrTraitMFC_DLL@DV?$ChTraitsCRT@D@ATL@@@@@ATL@@XZ
  00049	e9 00 00 00 00	 jmp	 ___CxxFrameHandler3
text$x	ENDS
?GetSavedColor@CTextEnvironment@@ABE?AV?$CStringT@DV?$StrTraitMFC_DLL@DV?$ChTraitsCRT@D@ATL@@@@@ATL@@XZ ENDP ; CTextEnvironment::GetSavedColor
; Function compile flags: /Ogtp
; File D:\git\src\IBK\IBK_DRFN\ProjSrc\SrcChartEx\ChartAddIn\ChartAnalysisToolAddIn\Include_Analysis\ElementEnvironment.cpp
; File C:\Program Files (x86)\Microsoft Visual Studio\2019\Community\VC\Tools\MSVC\14.29.30133\atlmfc\include\cstringt.h
; File D:\git\src\IBK\IBK_DRFN\ProjSrc\SrcChartEx\ChartAddIn\ChartAnalysisToolAddIn\Include_Analysis\ElementEnvironment.cpp
; File C:\Program Files (x86)\Microsoft Visual Studio\2019\Community\VC\Tools\MSVC\14.29.30133\atlmfc\include\cstringt.h
; File C:\Program Files (x86)\Microsoft Visual Studio\2019\Community\VC\Tools\MSVC\14.29.30133\atlmfc\include\atlsimpstr.h
; File C:\Program Files (x86)\Microsoft Visual Studio\2019\Community\VC\Tools\MSVC\14.29.30133\atlmfc\include\cstringt.h
; File D:\git\src\IBK\IBK_DRFN\ProjSrc\SrcChartEx\ChartAddIn\ChartAnalysisToolAddIn\Include_Analysis\ElementEnvironment.cpp
;	COMDAT ?GetSavedData@CTextEnvironment@@QBE?AV?$CStringT@DV?$StrTraitMFC_DLL@DV?$ChTraitsCRT@D@ATL@@@@@ATL@@XZ
_TEXT	SEGMENT
$T2 = -28						; size = 4
$T3 = -24						; size = 4
$T4 = -20						; size = 4
$T5 = -16						; size = 4
__$EHRec$ = -12						; size = 12
___$ReturnUdt$ = 8					; size = 4
?GetSavedData@CTextEnvironment@@QBE?AV?$CStringT@DV?$StrTraitMFC_DLL@DV?$ChTraitsCRT@D@ATL@@@@@ATL@@XZ PROC ; CTextEnvironment::GetSavedData, COMDAT
; _this$ = ecx

; 798  : {

  00000	55		 push	 ebp
  00001	8b ec		 mov	 ebp, esp
  00003	6a ff		 push	 -1
  00005	68 00 00 00 00	 push	 __ehhandler$?GetSavedData@CTextEnvironment@@QBE?AV?$CStringT@DV?$StrTraitMFC_DLL@DV?$ChTraitsCRT@D@ATL@@@@@ATL@@XZ
  0000a	64 a1 00 00 00
	00		 mov	 eax, DWORD PTR fs:0
  00010	50		 push	 eax
  00011	83 ec 10	 sub	 esp, 16			; 00000010H
  00014	56		 push	 esi
  00015	57		 push	 edi
  00016	a1 00 00 00 00	 mov	 eax, DWORD PTR ___security_cookie
  0001b	33 c5		 xor	 eax, ebp
  0001d	50		 push	 eax
  0001e	8d 45 f4	 lea	 eax, DWORD PTR __$EHRec$[ebp]
  00021	64 a3 00 00 00
	00		 mov	 DWORD PTR fs:0, eax
  00027	8b f1		 mov	 esi, ecx
  00029	c7 45 f0 00 00
	00 00		 mov	 DWORD PTR $T5[ebp], 0

; 799  : 	CString strSaved;

  00030	8b 7d 08	 mov	 edi, DWORD PTR ___$ReturnUdt$[ebp]
  00033	8b cf		 mov	 ecx, edi
  00035	ff 15 00 00 00
	00		 call	 DWORD PTR __imp_??0?$CStringT@DV?$StrTraitMFC_DLL@DV?$ChTraitsCRT@D@ATL@@@@@ATL@@QAE@XZ

; 808  : 	return ("<Color>" + CDataConversion::RGB2Str(m_color) + "<\\Color>\r\n");

  0003b	ff 36		 push	 DWORD PTR [esi]
  0003d	8d 45 e4	 lea	 eax, DWORD PTR $T2[ebp]

; 801  : 	return strSaved;

  00040	c7 45 fc 00 00
	00 00		 mov	 DWORD PTR __$EHRec$[ebp+8], 0

; 808  : 	return ("<Color>" + CDataConversion::RGB2Str(m_color) + "<\\Color>\r\n");

  00047	50		 push	 eax

; 801  : 	return strSaved;

  00048	c7 45 f0 01 00
	00 00		 mov	 DWORD PTR $T5[ebp], 1

; 808  : 	return ("<Color>" + CDataConversion::RGB2Str(m_color) + "<\\Color>\r\n");

  0004f	e8 00 00 00 00	 call	 ?RGB2Str@CDataConversion@@SA?AV?$CStringT@DV?$StrTraitMFC_DLL@DV?$ChTraitsCRT@D@ATL@@@@@ATL@@K@Z ; CDataConversion::RGB2Str
  00054	50		 push	 eax
  00055	8d 45 e8	 lea	 eax, DWORD PTR $T3[ebp]
  00058	c7 45 fc 01 00
	00 00		 mov	 DWORD PTR __$EHRec$[ebp+8], 1
  0005f	68 00 00 00 00	 push	 OFFSET ??_C@_07ONMJGOJF@?$DMColor?$DO@
  00064	50		 push	 eax
  00065	e8 00 00 00 00	 call	 ??HATL@@YA?AV?$CStringT@DV?$StrTraitMFC_DLL@DV?$ChTraitsCRT@D@ATL@@@@@0@PBDABV10@@Z ; ATL::operator+
  0006a	83 c4 14	 add	 esp, 20			; 00000014H
  0006d	8b f0		 mov	 esi, eax
; File C:\Program Files (x86)\Microsoft Visual Studio\2019\Community\VC\Tools\MSVC\14.29.30133\atlmfc\include\cstringt.h

; 2401 : 		CStringT strResult( str1.GetManager() );

  0006f	8b ce		 mov	 ecx, esi
; File D:\git\src\IBK\IBK_DRFN\ProjSrc\SrcChartEx\ChartAddIn\ChartAnalysisToolAddIn\Include_Analysis\ElementEnvironment.cpp

; 808  : 	return ("<Color>" + CDataConversion::RGB2Str(m_color) + "<\\Color>\r\n");

  00071	c6 45 fc 03	 mov	 BYTE PTR __$EHRec$[ebp+8], 3
; File C:\Program Files (x86)\Microsoft Visual Studio\2019\Community\VC\Tools\MSVC\14.29.30133\atlmfc\include\cstringt.h

; 2401 : 		CStringT strResult( str1.GetManager() );

  00075	ff 15 00 00 00
	00		 call	 DWORD PTR __imp_?GetManager@?$CStringT@DV?$StrTraitMFC_DLL@DV?$ChTraitsCRT@D@ATL@@@@@ATL@@QBEPAUIAtlStringMgr@2@XZ
  0007b	50		 push	 eax
  0007c	8d 4d ec	 lea	 ecx, DWORD PTR $T4[ebp]
  0007f	ff 15 00 00 00
	00		 call	 DWORD PTR __imp_??0?$CStringT@DV?$StrTraitMFC_DLL@DV?$ChTraitsCRT@D@ATL@@@@@ATL@@QAE@PAUIAtlStringMgr@1@@Z
; File C:\Program Files (x86)\Microsoft Visual Studio\2019\Community\VC\Tools\MSVC\14.29.30133\atlmfc\include\atlsimpstr.h

; 519  : 		return( GetData()->nDataLength );

  00085	8b 06		 mov	 eax, DWORD PTR [esi]
; File C:\Program Files (x86)\Microsoft Visual Studio\2019\Community\VC\Tools\MSVC\14.29.30133\atlmfc\include\cstringt.h

; 2403 : 		CThisSimpleString::Concatenate( strResult, str1, str1.GetLength(), psz2, CThisSimpleString::StringLength( psz2 ) );

  00087	6a 0a		 push	 10			; 0000000aH
  00089	68 00 00 00 00	 push	 OFFSET ??_C@_0L@CPJBKACB@?$DM?2Color?$DO?$AN?6@

; 2404 : 
; 2405 : 		return( strResult );

  0008e	c7 45 f0 09 00
	00 00		 mov	 DWORD PTR $T5[ebp], 9
  00095	ff 70 f4	 push	 DWORD PTR [eax-12]
  00098	50		 push	 eax
  00099	8d 45 ec	 lea	 eax, DWORD PTR $T4[ebp]
  0009c	50		 push	 eax
  0009d	ff 15 00 00 00
	00		 call	 DWORD PTR __imp_?Concatenate@?$CSimpleStringT@D$00@ATL@@KAXAAV12@PBDH1H@Z
  000a3	83 c4 14	 add	 esp, 20			; 00000014H
; File D:\git\src\IBK\IBK_DRFN\ProjSrc\SrcChartEx\ChartAddIn\ChartAnalysisToolAddIn\Include_Analysis\ElementEnvironment.cpp

; 808  : 	return ("<Color>" + CDataConversion::RGB2Str(m_color) + "<\\Color>\r\n");

  000a6	c7 45 f0 03 00
	00 00		 mov	 DWORD PTR $T5[ebp], 3
  000ad	8d 4d e8	 lea	 ecx, DWORD PTR $T3[ebp]
  000b0	ff 15 00 00 00
	00		 call	 DWORD PTR __imp_??1?$CStringT@DV?$StrTraitMFC_DLL@DV?$ChTraitsCRT@D@ATL@@@@@ATL@@QAE@XZ
  000b6	8d 4d e4	 lea	 ecx, DWORD PTR $T2[ebp]
  000b9	ff 15 00 00 00
	00		 call	 DWORD PTR __imp_??1?$CStringT@DV?$StrTraitMFC_DLL@DV?$ChTraitsCRT@D@ATL@@@@@ATL@@QAE@XZ

; 800  : 	strSaved.Format("<TextEnvironment>\r\n%s<\\TextEnvironment>\r\n", GetSavedColor());

  000bf	ff 75 ec	 push	 DWORD PTR $T4[ebp]
  000c2	c7 45 fc 04 00
	00 00		 mov	 DWORD PTR __$EHRec$[ebp+8], 4
  000c9	68 00 00 00 00	 push	 OFFSET ??_C@_0CK@OGEBLLHG@?$DMTextEnvironment?$DO?$AN?6?$CFs?$DM?2TextEnvi@
  000ce	57		 push	 edi
  000cf	ff 15 00 00 00
	00		 call	 DWORD PTR __imp_?Format@?$CStringT@DV?$StrTraitMFC_DLL@DV?$ChTraitsCRT@D@ATL@@@@@ATL@@QAAXPBDZZ
  000d5	83 c4 0c	 add	 esp, 12			; 0000000cH
  000d8	8d 4d ec	 lea	 ecx, DWORD PTR $T4[ebp]
  000db	ff 15 00 00 00
	00		 call	 DWORD PTR __imp_??1?$CStringT@DV?$StrTraitMFC_DLL@DV?$ChTraitsCRT@D@ATL@@@@@ATL@@QAE@XZ

; 801  : 	return strSaved;

  000e1	8b c7		 mov	 eax, edi

; 802  : }

  000e3	8b 4d f4	 mov	 ecx, DWORD PTR __$EHRec$[ebp]
  000e6	64 89 0d 00 00
	00 00		 mov	 DWORD PTR fs:0, ecx
  000ed	59		 pop	 ecx
  000ee	5f		 pop	 edi
  000ef	5e		 pop	 esi
  000f0	8b e5		 mov	 esp, ebp
  000f2	5d		 pop	 ebp
  000f3	c2 04 00	 ret	 4
_TEXT	ENDS
;	COMDAT text$x
text$x	SEGMENT
__unwindfunclet$?GetSavedData@CTextEnvironment@@QBE?AV?$CStringT@DV?$StrTraitMFC_DLL@DV?$ChTraitsCRT@D@ATL@@@@@ATL@@XZ$0:
  00000	8b 45 f0	 mov	 eax, DWORD PTR $T5[ebp]
  00003	83 e0 01	 and	 eax, 1
  00006	0f 84 0d 00 00
	00		 je	 $LN4@GetSavedDa
  0000c	83 65 f0 fe	 and	 DWORD PTR $T5[ebp], -2	; fffffffeH
  00010	8b 4d 08	 mov	 ecx, DWORD PTR ___$ReturnUdt$[ebp]
  00013	ff 25 00 00 00
	00		 jmp	 DWORD PTR __imp_??1?$CStringT@DV?$StrTraitMFC_DLL@DV?$ChTraitsCRT@D@ATL@@@@@ATL@@QAE@XZ
$LN4@GetSavedDa:
  00019	c3		 ret	 0
__unwindfunclet$?GetSavedData@CTextEnvironment@@QBE?AV?$CStringT@DV?$StrTraitMFC_DLL@DV?$ChTraitsCRT@D@ATL@@@@@ATL@@XZ$2:
  0001a	8d 4d e4	 lea	 ecx, DWORD PTR $T2[ebp]
  0001d	ff 25 00 00 00
	00		 jmp	 DWORD PTR __imp_??1?$CStringT@DV?$StrTraitMFC_DLL@DV?$ChTraitsCRT@D@ATL@@@@@ATL@@QAE@XZ
__unwindfunclet$?GetSavedData@CTextEnvironment@@QBE?AV?$CStringT@DV?$StrTraitMFC_DLL@DV?$ChTraitsCRT@D@ATL@@@@@ATL@@XZ$3:
  00023	8d 4d e8	 lea	 ecx, DWORD PTR $T3[ebp]
  00026	ff 25 00 00 00
	00		 jmp	 DWORD PTR __imp_??1?$CStringT@DV?$StrTraitMFC_DLL@DV?$ChTraitsCRT@D@ATL@@@@@ATL@@QAE@XZ
__unwindfunclet$?GetSavedData@CTextEnvironment@@QBE?AV?$CStringT@DV?$StrTraitMFC_DLL@DV?$ChTraitsCRT@D@ATL@@@@@ATL@@XZ$6:
  0002c	8b 45 f0	 mov	 eax, DWORD PTR $T5[ebp]
  0002f	83 e0 08	 and	 eax, 8
  00032	0f 84 0d 00 00
	00		 je	 $LN28@GetSavedDa
  00038	83 65 f0 f7	 and	 DWORD PTR $T5[ebp], -9	; fffffff7H
  0003c	8d 4d ec	 lea	 ecx, DWORD PTR $T4[ebp]
  0003f	ff 25 00 00 00
	00		 jmp	 DWORD PTR __imp_??1?$CStringT@DV?$StrTraitMFC_DLL@DV?$ChTraitsCRT@D@ATL@@@@@ATL@@QAE@XZ
$LN28@GetSavedDa:
  00045	c3		 ret	 0
__unwindfunclet$?GetSavedData@CTextEnvironment@@QBE?AV?$CStringT@DV?$StrTraitMFC_DLL@DV?$ChTraitsCRT@D@ATL@@@@@ATL@@XZ$1:
  00046	8d 4d ec	 lea	 ecx, DWORD PTR $T4[ebp]
  00049	ff 25 00 00 00
	00		 jmp	 DWORD PTR __imp_??1?$CStringT@DV?$StrTraitMFC_DLL@DV?$ChTraitsCRT@D@ATL@@@@@ATL@@QAE@XZ
  0004f	cc		 int	 3
  00050	cc		 int	 3
  00051	cc		 int	 3
  00052	cc		 int	 3
  00053	cc		 int	 3
__ehhandler$?GetSavedData@CTextEnvironment@@QBE?AV?$CStringT@DV?$StrTraitMFC_DLL@DV?$ChTraitsCRT@D@ATL@@@@@ATL@@XZ:
  00054	90		 npad	 1
  00055	90		 npad	 1
  00056	8b 54 24 08	 mov	 edx, DWORD PTR [esp+8]
  0005a	8d 42 0c	 lea	 eax, DWORD PTR [edx+12]
  0005d	8b 4a e4	 mov	 ecx, DWORD PTR [edx-28]
  00060	33 c8		 xor	 ecx, eax
  00062	e8 00 00 00 00	 call	 @__security_check_cookie@4
  00067	b8 00 00 00 00	 mov	 eax, OFFSET __ehfuncinfo$?GetSavedData@CTextEnvironment@@QBE?AV?$CStringT@DV?$StrTraitMFC_DLL@DV?$ChTraitsCRT@D@ATL@@@@@ATL@@XZ
  0006c	e9 00 00 00 00	 jmp	 ___CxxFrameHandler3
text$x	ENDS
?GetSavedData@CTextEnvironment@@QBE?AV?$CStringT@DV?$StrTraitMFC_DLL@DV?$ChTraitsCRT@D@ATL@@@@@ATL@@XZ ENDP ; CTextEnvironment::GetSavedData
; Function compile flags: /Ogtp
; File D:\git\src\IBK\IBK_DRFN\ProjSrc\SrcChartEx\ChartAddIn\ChartAnalysisToolAddIn\Include_Analysis\ElementEnvironment.cpp
;	COMDAT ?GetColor@CTextEnvironment@@QBEKXZ
_TEXT	SEGMENT
?GetColor@CTextEnvironment@@QBEKXZ PROC			; CTextEnvironment::GetColor, COMDAT
; _this$ = ecx

; 791  : 	return m_color;

  00000	8b 01		 mov	 eax, DWORD PTR [ecx]

; 792  : }

  00002	c3		 ret	 0
?GetColor@CTextEnvironment@@QBEKXZ ENDP			; CTextEnvironment::GetColor
_TEXT	ENDS
; Function compile flags: /Ogtp
; File D:\git\src\IBK\IBK_DRFN\ProjSrc\SrcChartEx\ChartAddIn\ChartAnalysisToolAddIn\Include_Analysis\ElementEnvironment.cpp
;	COMDAT ?SetColor@CTextEnvironment@@QAEXABK@Z
_TEXT	SEGMENT
_color$ = 8						; size = 4
?SetColor@CTextEnvironment@@QAEXABK@Z PROC		; CTextEnvironment::SetColor, COMDAT
; _this$ = ecx

; 784  : {

  00000	55		 push	 ebp
  00001	8b ec		 mov	 ebp, esp

; 785  : 	m_color = color;

  00003	8b 45 08	 mov	 eax, DWORD PTR _color$[ebp]
  00006	8b 00		 mov	 eax, DWORD PTR [eax]
  00008	89 01		 mov	 DWORD PTR [ecx], eax

; 786  : }

  0000a	5d		 pop	 ebp
  0000b	c2 04 00	 ret	 4
?SetColor@CTextEnvironment@@QAEXABK@Z ENDP		; CTextEnvironment::SetColor
_TEXT	ENDS
; Function compile flags: /Ogtp
; File D:\git\src\IBK\IBK_DRFN\ProjSrc\SrcChartEx\ChartAddIn\ChartAnalysisToolAddIn\Include_Analysis\ElementEnvironment.cpp
;	COMDAT ?Set@CTextEnvironment@@QAEXABV1@@Z
_TEXT	SEGMENT
_environment$ = 8					; size = 4
?Set@CTextEnvironment@@QAEXABV1@@Z PROC			; CTextEnvironment::Set, COMDAT
; _this$ = ecx

; 779  : {

  00000	55		 push	 ebp
  00001	8b ec		 mov	 ebp, esp

; 780  : 	m_color = environment.GetColor();

  00003	8b 45 08	 mov	 eax, DWORD PTR _environment$[ebp]
  00006	8b 00		 mov	 eax, DWORD PTR [eax]
  00008	89 01		 mov	 DWORD PTR [ecx], eax

; 781  : }

  0000a	5d		 pop	 ebp
  0000b	c2 04 00	 ret	 4
?Set@CTextEnvironment@@QAEXABV1@@Z ENDP			; CTextEnvironment::Set
_TEXT	ENDS
; Function compile flags: /Ogtp
; File D:\git\src\IBK\IBK_DRFN\ProjSrc\SrcChartEx\ChartAddIn\ChartAnalysisToolAddIn\Include_Analysis\ElementEnvironment.cpp
;	COMDAT ??0CTextEnvironment@@QAE@PAV0@@Z
_TEXT	SEGMENT
_pEnvironment$ = 8					; size = 4
??0CTextEnvironment@@QAE@PAV0@@Z PROC			; CTextEnvironment::CTextEnvironment, COMDAT
; _this$ = ecx

; 769  : {

  00000	55		 push	 ebp
  00001	8b ec		 mov	 ebp, esp

; 770  : 	if(pEnvironment == NULL)

  00003	8b 45 08	 mov	 eax, DWORD PTR _pEnvironment$[ebp]
  00006	85 c0		 test	 eax, eax
  00008	74 04		 je	 SHORT $LN4@CTextEnvir

; 771  : 		return;
; 772  : 
; 773  : 	m_color = pEnvironment->GetColor();

  0000a	8b 00		 mov	 eax, DWORD PTR [eax]
  0000c	89 01		 mov	 DWORD PTR [ecx], eax
$LN4@CTextEnvir:

; 774  : }

  0000e	8b c1		 mov	 eax, ecx
  00010	5d		 pop	 ebp
  00011	c2 04 00	 ret	 4
??0CTextEnvironment@@QAE@PAV0@@Z ENDP			; CTextEnvironment::CTextEnvironment
_TEXT	ENDS
; Function compile flags: /Ogtp
; File D:\git\src\IBK\IBK_DRFN\ProjSrc\SrcChartEx\ChartAddIn\ChartAnalysisToolAddIn\Include_Analysis\ElementEnvironment.cpp
;	COMDAT ??0CTextEnvironment@@QAE@ABV0@@Z
_TEXT	SEGMENT
_environment$ = 8					; size = 4
??0CTextEnvironment@@QAE@ABV0@@Z PROC			; CTextEnvironment::CTextEnvironment, COMDAT
; _this$ = ecx

; 764  : {

  00000	55		 push	 ebp
  00001	8b ec		 mov	 ebp, esp

; 765  : 	m_color = environment.GetColor();

  00003	8b 45 08	 mov	 eax, DWORD PTR _environment$[ebp]
  00006	8b 00		 mov	 eax, DWORD PTR [eax]
  00008	89 01		 mov	 DWORD PTR [ecx], eax

; 766  : }

  0000a	8b c1		 mov	 eax, ecx
  0000c	5d		 pop	 ebp
  0000d	c2 04 00	 ret	 4
??0CTextEnvironment@@QAE@ABV0@@Z ENDP			; CTextEnvironment::CTextEnvironment
_TEXT	ENDS
; Function compile flags: /Ogtp
; File D:\git\src\IBK\IBK_DRFN\ProjSrc\SrcChartEx\ChartAddIn\ChartAnalysisToolAddIn\Include_Analysis\ElementEnvironment.cpp
;	COMDAT ??0CTextEnvironment@@QAE@ABK@Z
_TEXT	SEGMENT
_color$ = 8						; size = 4
??0CTextEnvironment@@QAE@ABK@Z PROC			; CTextEnvironment::CTextEnvironment, COMDAT
; _this$ = ecx

; 760  : {

  00000	55		 push	 ebp
  00001	8b ec		 mov	 ebp, esp

; 759  : 	m_color(color)

  00003	8b 45 08	 mov	 eax, DWORD PTR _color$[ebp]
  00006	8b 00		 mov	 eax, DWORD PTR [eax]
  00008	89 01		 mov	 DWORD PTR [ecx], eax

; 761  : }

  0000a	8b c1		 mov	 eax, ecx
  0000c	5d		 pop	 ebp
  0000d	c2 04 00	 ret	 4
??0CTextEnvironment@@QAE@ABK@Z ENDP			; CTextEnvironment::CTextEnvironment
_TEXT	ENDS
; Function compile flags: /Ogtp
; File D:\git\src\IBK\IBK_DRFN\ProjSrc\SrcChartEx\ChartAddIn\ChartAnalysisToolAddIn\Include_Analysis\ElementEnvironment.cpp
;	COMDAT ??0CTextEnvironment@@QAE@XZ
_TEXT	SEGMENT
??0CTextEnvironment@@QAE@XZ PROC			; CTextEnvironment::CTextEnvironment, COMDAT
; _this$ = ecx

; 754  : 	m_color(RGB(0, 0, 0))

  00000	c7 01 00 00 00
	00		 mov	 DWORD PTR [ecx], 0

; 756  : }

  00006	8b c1		 mov	 eax, ecx
  00008	c3		 ret	 0
??0CTextEnvironment@@QAE@XZ ENDP			; CTextEnvironment::CTextEnvironment
_TEXT	ENDS
; Function compile flags: /Ogtp
; File D:\git\src\IBK\IBK_DRFN\ProjSrc\SrcChartEx\ChartAddIn\ChartAnalysisToolAddIn\Include_Analysis\ElementEnvironment.cpp
;	COMDAT ??4CTextEnvironment@@QAEAAV0@ABV0@@Z
_TEXT	SEGMENT
_environment$ = 8					; size = 4
??4CTextEnvironment@@QAEAAV0@ABV0@@Z PROC		; CTextEnvironment::operator=, COMDAT
; _this$ = ecx

; 744  : {

  00000	55		 push	 ebp
  00001	8b ec		 mov	 ebp, esp

; 745  : 	if(this == &environment)

  00003	8b 45 08	 mov	 eax, DWORD PTR _environment$[ebp]
  00006	3b c8		 cmp	 ecx, eax
  00008	74 04		 je	 SHORT $LN4@operator

; 746  : 		return *this;
; 747  : 
; 748  : 	m_color = environment.GetColor();

  0000a	8b 00		 mov	 eax, DWORD PTR [eax]
  0000c	89 01		 mov	 DWORD PTR [ecx], eax
$LN4@operator:

; 749  : 	return *this;
; 750  : }

  0000e	8b c1		 mov	 eax, ecx
  00010	5d		 pop	 ebp
  00011	c2 04 00	 ret	 4
??4CTextEnvironment@@QAEAAV0@ABV0@@Z ENDP		; CTextEnvironment::operator=
_TEXT	ENDS
; Function compile flags: /Ogtp
; File D:\git\src\IBK\IBK_DRFN\ProjSrc\SrcChartEx\ChartAddIn\ChartAnalysisToolAddIn\Include_Analysis\ElementEnvironment.cpp
;	COMDAT ?GetSaveData_PriceRangeDiv@CElementCommonEnvironment@@ABE?AV?$CStringT@DV?$StrTraitMFC_DLL@DV?$ChTraitsCRT@D@ATL@@@@@ATL@@XZ
_TEXT	SEGMENT
$T2 = -16						; size = 4
__$EHRec$ = -12						; size = 12
___$ReturnUdt$ = 8					; size = 4
?GetSaveData_PriceRangeDiv@CElementCommonEnvironment@@ABE?AV?$CStringT@DV?$StrTraitMFC_DLL@DV?$ChTraitsCRT@D@ATL@@@@@ATL@@XZ PROC ; CElementCommonEnvironment::GetSaveData_PriceRangeDiv, COMDAT
; _this$ = ecx

; 629  : {

  00000	55		 push	 ebp
  00001	8b ec		 mov	 ebp, esp
  00003	6a ff		 push	 -1
  00005	68 00 00 00 00	 push	 __ehhandler$?GetSaveData_PriceRangeDiv@CElementCommonEnvironment@@ABE?AV?$CStringT@DV?$StrTraitMFC_DLL@DV?$ChTraitsCRT@D@ATL@@@@@ATL@@XZ
  0000a	64 a1 00 00 00
	00		 mov	 eax, DWORD PTR fs:0
  00010	50		 push	 eax
  00011	51		 push	 ecx
  00012	56		 push	 esi
  00013	57		 push	 edi
  00014	a1 00 00 00 00	 mov	 eax, DWORD PTR ___security_cookie
  00019	33 c5		 xor	 eax, ebp
  0001b	50		 push	 eax
  0001c	8d 45 f4	 lea	 eax, DWORD PTR __$EHRec$[ebp]
  0001f	64 a3 00 00 00
	00		 mov	 DWORD PTR fs:0, eax
  00025	8b f1		 mov	 esi, ecx
  00027	c7 45 f0 00 00
	00 00		 mov	 DWORD PTR $T2[ebp], 0

; 630  : 	CString strSaved;

  0002e	8b 7d 08	 mov	 edi, DWORD PTR ___$ReturnUdt$[ebp]
  00031	8b cf		 mov	 ecx, edi
  00033	ff 15 00 00 00
	00		 call	 DWORD PTR __imp_??0?$CStringT@DV?$StrTraitMFC_DLL@DV?$ChTraitsCRT@D@ATL@@@@@ATL@@QAE@XZ

; 631  : 	strSaved.Format("<PriceRangeDiv>%d<\\PriceRangeDiv>\r\n", m_nPriceRangeDiv);
; 632  : 	return strSaved;

  00039	ff 76 08	 push	 DWORD PTR [esi+8]
  0003c	c7 45 fc 00 00
	00 00		 mov	 DWORD PTR __$EHRec$[ebp+8], 0
  00043	68 00 00 00 00	 push	 OFFSET ??_C@_0CE@KBAOJFJE@?$DMPriceRangeDiv?$DO?$CFd?$DM?2PriceRangeDi@
  00048	57		 push	 edi
  00049	c7 45 f0 01 00
	00 00		 mov	 DWORD PTR $T2[ebp], 1
  00050	ff 15 00 00 00
	00		 call	 DWORD PTR __imp_?Format@?$CStringT@DV?$StrTraitMFC_DLL@DV?$ChTraitsCRT@D@ATL@@@@@ATL@@QAAXPBDZZ
  00056	83 c4 0c	 add	 esp, 12			; 0000000cH
  00059	8b c7		 mov	 eax, edi

; 633  : }

  0005b	8b 4d f4	 mov	 ecx, DWORD PTR __$EHRec$[ebp]
  0005e	64 89 0d 00 00
	00 00		 mov	 DWORD PTR fs:0, ecx
  00065	59		 pop	 ecx
  00066	5f		 pop	 edi
  00067	5e		 pop	 esi
  00068	8b e5		 mov	 esp, ebp
  0006a	5d		 pop	 ebp
  0006b	c2 04 00	 ret	 4
_TEXT	ENDS
;	COMDAT text$x
text$x	SEGMENT
__unwindfunclet$?GetSaveData_PriceRangeDiv@CElementCommonEnvironment@@ABE?AV?$CStringT@DV?$StrTraitMFC_DLL@DV?$ChTraitsCRT@D@ATL@@@@@ATL@@XZ$0:
  00000	8b 45 f0	 mov	 eax, DWORD PTR $T2[ebp]
  00003	83 e0 01	 and	 eax, 1
  00006	0f 84 0d 00 00
	00		 je	 $LN4@GetSaveDat
  0000c	83 65 f0 fe	 and	 DWORD PTR $T2[ebp], -2	; fffffffeH
  00010	8b 4d 08	 mov	 ecx, DWORD PTR ___$ReturnUdt$[ebp]
  00013	ff 25 00 00 00
	00		 jmp	 DWORD PTR __imp_??1?$CStringT@DV?$StrTraitMFC_DLL@DV?$ChTraitsCRT@D@ATL@@@@@ATL@@QAE@XZ
$LN4@GetSaveDat:
  00019	c3		 ret	 0
  0001a	cc		 int	 3
  0001b	cc		 int	 3
  0001c	cc		 int	 3
  0001d	cc		 int	 3
  0001e	cc		 int	 3
__ehhandler$?GetSaveData_PriceRangeDiv@CElementCommonEnvironment@@ABE?AV?$CStringT@DV?$StrTraitMFC_DLL@DV?$ChTraitsCRT@D@ATL@@@@@ATL@@XZ:
  0001f	90		 npad	 1
  00020	90		 npad	 1
  00021	8b 54 24 08	 mov	 edx, DWORD PTR [esp+8]
  00025	8d 42 0c	 lea	 eax, DWORD PTR [edx+12]
  00028	8b 4a f0	 mov	 ecx, DWORD PTR [edx-16]
  0002b	33 c8		 xor	 ecx, eax
  0002d	e8 00 00 00 00	 call	 @__security_check_cookie@4
  00032	b8 00 00 00 00	 mov	 eax, OFFSET __ehfuncinfo$?GetSaveData_PriceRangeDiv@CElementCommonEnvironment@@ABE?AV?$CStringT@DV?$StrTraitMFC_DLL@DV?$ChTraitsCRT@D@ATL@@@@@ATL@@XZ
  00037	e9 00 00 00 00	 jmp	 ___CxxFrameHandler3
text$x	ENDS
?GetSaveData_PriceRangeDiv@CElementCommonEnvironment@@ABE?AV?$CStringT@DV?$StrTraitMFC_DLL@DV?$ChTraitsCRT@D@ATL@@@@@ATL@@XZ ENDP ; CElementCommonEnvironment::GetSaveData_PriceRangeDiv
; Function compile flags: /Ogtp
; File D:\git\src\IBK\IBK_DRFN\ProjSrc\SrcChartEx\ChartAddIn\ChartAnalysisToolAddIn\Include_Analysis\ElementEnvironment.cpp
;	COMDAT ?GetSaveData_EquiDiv@CElementCommonEnvironment@@ABE?AV?$CStringT@DV?$StrTraitMFC_DLL@DV?$ChTraitsCRT@D@ATL@@@@@ATL@@XZ
_TEXT	SEGMENT
$T2 = -16						; size = 4
__$EHRec$ = -12						; size = 12
___$ReturnUdt$ = 8					; size = 4
?GetSaveData_EquiDiv@CElementCommonEnvironment@@ABE?AV?$CStringT@DV?$StrTraitMFC_DLL@DV?$ChTraitsCRT@D@ATL@@@@@ATL@@XZ PROC ; CElementCommonEnvironment::GetSaveData_EquiDiv, COMDAT
; _this$ = ecx

; 621  : {

  00000	55		 push	 ebp
  00001	8b ec		 mov	 ebp, esp
  00003	6a ff		 push	 -1
  00005	68 00 00 00 00	 push	 __ehhandler$?GetSaveData_EquiDiv@CElementCommonEnvironment@@ABE?AV?$CStringT@DV?$StrTraitMFC_DLL@DV?$ChTraitsCRT@D@ATL@@@@@ATL@@XZ
  0000a	64 a1 00 00 00
	00		 mov	 eax, DWORD PTR fs:0
  00010	50		 push	 eax
  00011	51		 push	 ecx
  00012	56		 push	 esi
  00013	57		 push	 edi
  00014	a1 00 00 00 00	 mov	 eax, DWORD PTR ___security_cookie
  00019	33 c5		 xor	 eax, ebp
  0001b	50		 push	 eax
  0001c	8d 45 f4	 lea	 eax, DWORD PTR __$EHRec$[ebp]
  0001f	64 a3 00 00 00
	00		 mov	 DWORD PTR fs:0, eax
  00025	8b f1		 mov	 esi, ecx
  00027	c7 45 f0 00 00
	00 00		 mov	 DWORD PTR $T2[ebp], 0

; 622  : 	CString strSaved;

  0002e	8b 7d 08	 mov	 edi, DWORD PTR ___$ReturnUdt$[ebp]
  00031	8b cf		 mov	 ecx, edi
  00033	ff 15 00 00 00
	00		 call	 DWORD PTR __imp_??0?$CStringT@DV?$StrTraitMFC_DLL@DV?$ChTraitsCRT@D@ATL@@@@@ATL@@QAE@XZ

; 623  : 	strSaved.Format("<EquiDiv>%d<\\EquiDiv>\r\n", m_nEquiDiv);
; 624  : 	return strSaved;

  00039	ff 76 04	 push	 DWORD PTR [esi+4]
  0003c	c7 45 fc 00 00
	00 00		 mov	 DWORD PTR __$EHRec$[ebp+8], 0
  00043	68 00 00 00 00	 push	 OFFSET ??_C@_0BI@JFOMILGF@?$DMEquiDiv?$DO?$CFd?$DM?2EquiDiv?$DO?$AN?6@
  00048	57		 push	 edi
  00049	c7 45 f0 01 00
	00 00		 mov	 DWORD PTR $T2[ebp], 1
  00050	ff 15 00 00 00
	00		 call	 DWORD PTR __imp_?Format@?$CStringT@DV?$StrTraitMFC_DLL@DV?$ChTraitsCRT@D@ATL@@@@@ATL@@QAAXPBDZZ
  00056	83 c4 0c	 add	 esp, 12			; 0000000cH
  00059	8b c7		 mov	 eax, edi

; 625  : }

  0005b	8b 4d f4	 mov	 ecx, DWORD PTR __$EHRec$[ebp]
  0005e	64 89 0d 00 00
	00 00		 mov	 DWORD PTR fs:0, ecx
  00065	59		 pop	 ecx
  00066	5f		 pop	 edi
  00067	5e		 pop	 esi
  00068	8b e5		 mov	 esp, ebp
  0006a	5d		 pop	 ebp
  0006b	c2 04 00	 ret	 4
_TEXT	ENDS
;	COMDAT text$x
text$x	SEGMENT
__unwindfunclet$?GetSaveData_EquiDiv@CElementCommonEnvironment@@ABE?AV?$CStringT@DV?$StrTraitMFC_DLL@DV?$ChTraitsCRT@D@ATL@@@@@ATL@@XZ$0:
  00000	8b 45 f0	 mov	 eax, DWORD PTR $T2[ebp]
  00003	83 e0 01	 and	 eax, 1
  00006	0f 84 0d 00 00
	00		 je	 $LN4@GetSaveDat
  0000c	83 65 f0 fe	 and	 DWORD PTR $T2[ebp], -2	; fffffffeH
  00010	8b 4d 08	 mov	 ecx, DWORD PTR ___$ReturnUdt$[ebp]
  00013	ff 25 00 00 00
	00		 jmp	 DWORD PTR __imp_??1?$CStringT@DV?$StrTraitMFC_DLL@DV?$ChTraitsCRT@D@ATL@@@@@ATL@@QAE@XZ
$LN4@GetSaveDat:
  00019	c3		 ret	 0
  0001a	cc		 int	 3
  0001b	cc		 int	 3
  0001c	cc		 int	 3
  0001d	cc		 int	 3
  0001e	cc		 int	 3
__ehhandler$?GetSaveData_EquiDiv@CElementCommonEnvironment@@ABE?AV?$CStringT@DV?$StrTraitMFC_DLL@DV?$ChTraitsCRT@D@ATL@@@@@ATL@@XZ:
  0001f	90		 npad	 1
  00020	90		 npad	 1
  00021	8b 54 24 08	 mov	 edx, DWORD PTR [esp+8]
  00025	8d 42 0c	 lea	 eax, DWORD PTR [edx+12]
  00028	8b 4a f0	 mov	 ecx, DWORD PTR [edx-16]
  0002b	33 c8		 xor	 ecx, eax
  0002d	e8 00 00 00 00	 call	 @__security_check_cookie@4
  00032	b8 00 00 00 00	 mov	 eax, OFFSET __ehfuncinfo$?GetSaveData_EquiDiv@CElementCommonEnvironment@@ABE?AV?$CStringT@DV?$StrTraitMFC_DLL@DV?$ChTraitsCRT@D@ATL@@@@@ATL@@XZ
  00037	e9 00 00 00 00	 jmp	 ___CxxFrameHandler3
text$x	ENDS
?GetSaveData_EquiDiv@CElementCommonEnvironment@@ABE?AV?$CStringT@DV?$StrTraitMFC_DLL@DV?$ChTraitsCRT@D@ATL@@@@@ATL@@XZ ENDP ; CElementCommonEnvironment::GetSaveData_EquiDiv
; Function compile flags: /Ogtp
; File D:\git\src\IBK\IBK_DRFN\ProjSrc\SrcChartEx\ChartAddIn\ChartAnalysisToolAddIn\Include_Analysis\ElementEnvironment.cpp
;	COMDAT ?GetSaveData_AutoPrice@CElementCommonEnvironment@@ABE?AV?$CStringT@DV?$StrTraitMFC_DLL@DV?$ChTraitsCRT@D@ATL@@@@@ATL@@XZ
_TEXT	SEGMENT
$T2 = -16						; size = 4
__$EHRec$ = -12						; size = 12
___$ReturnUdt$ = 8					; size = 4
?GetSaveData_AutoPrice@CElementCommonEnvironment@@ABE?AV?$CStringT@DV?$StrTraitMFC_DLL@DV?$ChTraitsCRT@D@ATL@@@@@ATL@@XZ PROC ; CElementCommonEnvironment::GetSaveData_AutoPrice, COMDAT
; _this$ = ecx

; 614  : {

  00000	55		 push	 ebp
  00001	8b ec		 mov	 ebp, esp
  00003	6a ff		 push	 -1
  00005	68 00 00 00 00	 push	 __ehhandler$?GetSaveData_AutoPrice@CElementCommonEnvironment@@ABE?AV?$CStringT@DV?$StrTraitMFC_DLL@DV?$ChTraitsCRT@D@ATL@@@@@ATL@@XZ
  0000a	64 a1 00 00 00
	00		 mov	 eax, DWORD PTR fs:0
  00010	50		 push	 eax
  00011	51		 push	 ecx
  00012	56		 push	 esi
  00013	57		 push	 edi
  00014	a1 00 00 00 00	 mov	 eax, DWORD PTR ___security_cookie
  00019	33 c5		 xor	 eax, ebp
  0001b	50		 push	 eax
  0001c	8d 45 f4	 lea	 eax, DWORD PTR __$EHRec$[ebp]
  0001f	64 a3 00 00 00
	00		 mov	 DWORD PTR fs:0, eax
  00025	8b f1		 mov	 esi, ecx
  00027	c7 45 f0 00 00
	00 00		 mov	 DWORD PTR $T2[ebp], 0

; 615  : 	CString strSaved;

  0002e	8b 7d 08	 mov	 edi, DWORD PTR ___$ReturnUdt$[ebp]
  00031	8b cf		 mov	 ecx, edi
  00033	ff 15 00 00 00
	00		 call	 DWORD PTR __imp_??0?$CStringT@DV?$StrTraitMFC_DLL@DV?$ChTraitsCRT@D@ATL@@@@@ATL@@QAE@XZ

; 616  : 	strSaved.Format("<AutoPirce>%d<\\AutoPirce>\r\n", m_bIsAutoPrice);
; 617  : 	return strSaved;

  00039	0f b6 0e	 movzx	 ecx, BYTE PTR [esi]
  0003c	51		 push	 ecx
  0003d	68 00 00 00 00	 push	 OFFSET ??_C@_0BM@ELHGNBJI@?$DMAutoPirce?$DO?$CFd?$DM?2AutoPirce?$DO?$AN?6@
  00042	57		 push	 edi
  00043	c7 45 fc 00 00
	00 00		 mov	 DWORD PTR __$EHRec$[ebp+8], 0
  0004a	c7 45 f0 01 00
	00 00		 mov	 DWORD PTR $T2[ebp], 1
  00051	ff 15 00 00 00
	00		 call	 DWORD PTR __imp_?Format@?$CStringT@DV?$StrTraitMFC_DLL@DV?$ChTraitsCRT@D@ATL@@@@@ATL@@QAAXPBDZZ
  00057	83 c4 0c	 add	 esp, 12			; 0000000cH
  0005a	8b c7		 mov	 eax, edi

; 618  : }

  0005c	8b 4d f4	 mov	 ecx, DWORD PTR __$EHRec$[ebp]
  0005f	64 89 0d 00 00
	00 00		 mov	 DWORD PTR fs:0, ecx
  00066	59		 pop	 ecx
  00067	5f		 pop	 edi
  00068	5e		 pop	 esi
  00069	8b e5		 mov	 esp, ebp
  0006b	5d		 pop	 ebp
  0006c	c2 04 00	 ret	 4
_TEXT	ENDS
;	COMDAT text$x
text$x	SEGMENT
__unwindfunclet$?GetSaveData_AutoPrice@CElementCommonEnvironment@@ABE?AV?$CStringT@DV?$StrTraitMFC_DLL@DV?$ChTraitsCRT@D@ATL@@@@@ATL@@XZ$0:
  00000	8b 45 f0	 mov	 eax, DWORD PTR $T2[ebp]
  00003	83 e0 01	 and	 eax, 1
  00006	0f 84 0d 00 00
	00		 je	 $LN4@GetSaveDat
  0000c	83 65 f0 fe	 and	 DWORD PTR $T2[ebp], -2	; fffffffeH
  00010	8b 4d 08	 mov	 ecx, DWORD PTR ___$ReturnUdt$[ebp]
  00013	ff 25 00 00 00
	00		 jmp	 DWORD PTR __imp_??1?$CStringT@DV?$StrTraitMFC_DLL@DV?$ChTraitsCRT@D@ATL@@@@@ATL@@QAE@XZ
$LN4@GetSaveDat:
  00019	c3		 ret	 0
  0001a	cc		 int	 3
  0001b	cc		 int	 3
  0001c	cc		 int	 3
  0001d	cc		 int	 3
  0001e	cc		 int	 3
__ehhandler$?GetSaveData_AutoPrice@CElementCommonEnvironment@@ABE?AV?$CStringT@DV?$StrTraitMFC_DLL@DV?$ChTraitsCRT@D@ATL@@@@@ATL@@XZ:
  0001f	90		 npad	 1
  00020	90		 npad	 1
  00021	8b 54 24 08	 mov	 edx, DWORD PTR [esp+8]
  00025	8d 42 0c	 lea	 eax, DWORD PTR [edx+12]
  00028	8b 4a f0	 mov	 ecx, DWORD PTR [edx-16]
  0002b	33 c8		 xor	 ecx, eax
  0002d	e8 00 00 00 00	 call	 @__security_check_cookie@4
  00032	b8 00 00 00 00	 mov	 eax, OFFSET __ehfuncinfo$?GetSaveData_AutoPrice@CElementCommonEnvironment@@ABE?AV?$CStringT@DV?$StrTraitMFC_DLL@DV?$ChTraitsCRT@D@ATL@@@@@ATL@@XZ
  00037	e9 00 00 00 00	 jmp	 ___CxxFrameHandler3
text$x	ENDS
?GetSaveData_AutoPrice@CElementCommonEnvironment@@ABE?AV?$CStringT@DV?$StrTraitMFC_DLL@DV?$ChTraitsCRT@D@ATL@@@@@ATL@@XZ ENDP ; CElementCommonEnvironment::GetSaveData_AutoPrice
; Function compile flags: /Ogtp
; File D:\git\src\IBK\IBK_DRFN\ProjSrc\SrcChartEx\ChartAddIn\ChartAnalysisToolAddIn\Include_Analysis\ElementEnvironment.cpp
; File C:\Program Files (x86)\Microsoft Visual Studio\2019\Community\VC\Tools\MSVC\14.29.30133\atlmfc\include\cstringt.h
; File D:\git\src\IBK\IBK_DRFN\ProjSrc\SrcChartEx\ChartAddIn\ChartAnalysisToolAddIn\Include_Analysis\ElementEnvironment.cpp
; File C:\Program Files (x86)\Microsoft Visual Studio\2019\Community\VC\Tools\MSVC\14.29.30133\atlmfc\include\cstringt.h
; File C:\Program Files (x86)\Microsoft Visual Studio\2019\Community\VC\Tools\MSVC\14.29.30133\atlmfc\include\atlsimpstr.h
; File C:\Program Files (x86)\Microsoft Visual Studio\2019\Community\VC\Tools\MSVC\14.29.30133\atlmfc\include\cstringt.h
; File D:\git\src\IBK\IBK_DRFN\ProjSrc\SrcChartEx\ChartAddIn\ChartAnalysisToolAddIn\Include_Analysis\ElementEnvironment.cpp
;	COMDAT ?GetSavedData@CElementCommonEnvironment@@QBE?AV?$CStringT@DV?$StrTraitMFC_DLL@DV?$ChTraitsCRT@D@ATL@@@@@ATL@@XZ
_TEXT	SEGMENT
$T2 = -76						; size = 4
$T3 = -72						; size = 4
tv486 = -68						; size = 4
$T4 = -64						; size = 4
$T5 = -60						; size = 4
$T6 = -56						; size = 4
$T7 = -52						; size = 4
$T8 = -48						; size = 4
$T9 = -44						; size = 4
_this$1$ = -40						; size = 4
$T10 = -36						; size = 4
$T11 = -32						; size = 4
$T12 = -28						; size = 4
$T13 = -24						; size = 4
$T14 = -20						; size = 4
$T15 = -16						; size = 4
__$EHRec$ = -12						; size = 12
___$ReturnUdt$ = 8					; size = 4
?GetSavedData@CElementCommonEnvironment@@QBE?AV?$CStringT@DV?$StrTraitMFC_DLL@DV?$ChTraitsCRT@D@ATL@@@@@ATL@@XZ PROC ; CElementCommonEnvironment::GetSavedData, COMDAT
; _this$ = ecx

; 605  : {

  00000	55		 push	 ebp
  00001	8b ec		 mov	 ebp, esp
  00003	6a ff		 push	 -1
  00005	68 00 00 00 00	 push	 __ehhandler$?GetSavedData@CElementCommonEnvironment@@QBE?AV?$CStringT@DV?$StrTraitMFC_DLL@DV?$ChTraitsCRT@D@ATL@@@@@ATL@@XZ
  0000a	64 a1 00 00 00
	00		 mov	 eax, DWORD PTR fs:0
  00010	50		 push	 eax
  00011	83 ec 40	 sub	 esp, 64			; 00000040H
  00014	53		 push	 ebx
  00015	56		 push	 esi
  00016	57		 push	 edi
  00017	a1 00 00 00 00	 mov	 eax, DWORD PTR ___security_cookie
  0001c	33 c5		 xor	 eax, ebp
  0001e	50		 push	 eax
  0001f	8d 45 f4	 lea	 eax, DWORD PTR __$EHRec$[ebp]
  00022	64 a3 00 00 00
	00		 mov	 DWORD PTR fs:0, eax
  00028	8b f1		 mov	 esi, ecx
  0002a	89 75 d8	 mov	 DWORD PTR _this$1$[ebp], esi
  0002d	c7 45 f0 00 00
	00 00		 mov	 DWORD PTR $T15[ebp], 0

; 606  : 	CString strSaved;

  00034	8b 4d 08	 mov	 ecx, DWORD PTR ___$ReturnUdt$[ebp]
  00037	ff 15 00 00 00
	00		 call	 DWORD PTR __imp_??0?$CStringT@DV?$StrTraitMFC_DLL@DV?$ChTraitsCRT@D@ATL@@@@@ATL@@QAE@XZ

; 608  : 		GetSaveData_AutoPrice(),m_lineExt.GetSavedData(),GetSaveData_EquiDiv(),GetSaveData_PriceRangeDiv(),m_pen.GetSavedData(),m_dataType.GetSavedData());
; 609  : 	return strSaved;

  0003d	8d 45 b4	 lea	 eax, DWORD PTR $T2[ebp]
  00040	c7 45 fc 00 00
	00 00		 mov	 DWORD PTR __$EHRec$[ebp+8], 0
  00047	50		 push	 eax
  00048	8d 4e 20	 lea	 ecx, DWORD PTR [esi+32]
  0004b	c7 45 f0 01 00
	00 00		 mov	 DWORD PTR $T15[ebp], 1
  00052	e8 00 00 00 00	 call	 ?GetSavedData@CDataTypeEnvironment@@QBE?AV?$CStringT@DV?$StrTraitMFC_DLL@DV?$ChTraitsCRT@D@ATL@@@@@ATL@@XZ ; CDataTypeEnvironment::GetSavedData
  00057	89 45 bc	 mov	 DWORD PTR tv486[ebp], eax
  0005a	8d 45 b8	 lea	 eax, DWORD PTR $T3[ebp]
  0005d	c7 45 fc 01 00
	00 00		 mov	 DWORD PTR __$EHRec$[ebp+8], 1
  00064	50		 push	 eax
  00065	8d 4e 14	 lea	 ecx, DWORD PTR [esi+20]
  00068	e8 00 00 00 00	 call	 ?GetSavedData@CPenEnvironment@@QBE?AV?$CStringT@DV?$StrTraitMFC_DLL@DV?$ChTraitsCRT@D@ATL@@@@@ATL@@XZ ; CPenEnvironment::GetSavedData
  0006d	8b f8		 mov	 edi, eax

; 630  : 	CString strSaved;

  0006f	8d 4d dc	 lea	 ecx, DWORD PTR $T10[ebp]

; 607  : 	strSaved.Format("<CommonEnvironment>\r\n%s%s%s%s%s%s<\\CommonEnvironment>\r\n", 

  00072	c6 45 fc 03	 mov	 BYTE PTR __$EHRec$[ebp+8], 3

; 630  : 	CString strSaved;

  00076	ff 15 00 00 00
	00		 call	 DWORD PTR __imp_??0?$CStringT@DV?$StrTraitMFC_DLL@DV?$ChTraitsCRT@D@ATL@@@@@ATL@@QAE@XZ

; 631  : 	strSaved.Format("<PriceRangeDiv>%d<\\PriceRangeDiv>\r\n", m_nPriceRangeDiv);

  0007c	ff 76 08	 push	 DWORD PTR [esi+8]
  0007f	8b 1d 00 00 00
	00		 mov	 ebx, DWORD PTR __imp_?Format@?$CStringT@DV?$StrTraitMFC_DLL@DV?$ChTraitsCRT@D@ATL@@@@@ATL@@QAAXPBDZZ
  00085	8d 45 dc	 lea	 eax, DWORD PTR $T10[ebp]
  00088	68 00 00 00 00	 push	 OFFSET ??_C@_0CE@KBAOJFJE@?$DMPriceRangeDiv?$DO?$CFd?$DM?2PriceRangeDi@
  0008d	50		 push	 eax

; 632  : 	return strSaved;

  0008e	c7 45 f0 03 00
	00 00		 mov	 DWORD PTR $T15[ebp], 3
  00095	ff d3		 call	 ebx
  00097	83 c4 0c	 add	 esp, 12			; 0000000cH

; 622  : 	CString strSaved;

  0009a	8d 4d e0	 lea	 ecx, DWORD PTR $T11[ebp]

; 607  : 	strSaved.Format("<CommonEnvironment>\r\n%s%s%s%s%s%s<\\CommonEnvironment>\r\n", 

  0009d	c6 45 fc 04	 mov	 BYTE PTR __$EHRec$[ebp+8], 4

; 622  : 	CString strSaved;

  000a1	ff 15 00 00 00
	00		 call	 DWORD PTR __imp_??0?$CStringT@DV?$StrTraitMFC_DLL@DV?$ChTraitsCRT@D@ATL@@@@@ATL@@QAE@XZ

; 623  : 	strSaved.Format("<EquiDiv>%d<\\EquiDiv>\r\n", m_nEquiDiv);

  000a7	ff 76 04	 push	 DWORD PTR [esi+4]
  000aa	8d 45 e0	 lea	 eax, DWORD PTR $T11[ebp]

; 624  : 	return strSaved;

  000ad	c7 45 f0 07 00
	00 00		 mov	 DWORD PTR $T15[ebp], 7
  000b4	68 00 00 00 00	 push	 OFFSET ??_C@_0BI@JFOMILGF@?$DMEquiDiv?$DO?$CFd?$DM?2EquiDiv?$DO?$AN?6@
  000b9	50		 push	 eax
  000ba	ff d3		 call	 ebx
  000bc	83 c4 0c	 add	 esp, 12			; 0000000cH

; 727  : 	CString strSaved;

  000bf	8d 4d e4	 lea	 ecx, DWORD PTR $T12[ebp]

; 607  : 	strSaved.Format("<CommonEnvironment>\r\n%s%s%s%s%s%s<\\CommonEnvironment>\r\n", 

  000c2	c6 45 fc 05	 mov	 BYTE PTR __$EHRec$[ebp+8], 5

; 727  : 	CString strSaved;

  000c6	ff 15 00 00 00
	00		 call	 DWORD PTR __imp_??0?$CStringT@DV?$StrTraitMFC_DLL@DV?$ChTraitsCRT@D@ATL@@@@@ATL@@QAE@XZ

; 736  : 	return ("<LeftExt>" + CDataConversion::IntToString(m_nLeftExt) + "<\\LeftExt>\r\n"+\

  000cc	ff 76 10	 push	 DWORD PTR [esi+16]
  000cf	8d 45 c0	 lea	 eax, DWORD PTR $T4[ebp]

; 729  : 	return strSaved;

  000d2	c7 45 f0 0f 00
	00 00		 mov	 DWORD PTR $T15[ebp], 15	; 0000000fH

; 736  : 	return ("<LeftExt>" + CDataConversion::IntToString(m_nLeftExt) + "<\\LeftExt>\r\n"+\

  000d9	50		 push	 eax
  000da	e8 00 00 00 00	 call	 ?IntToString@CDataConversion@@SA?AV?$CStringT@DV?$StrTraitMFC_DLL@DV?$ChTraitsCRT@D@ATL@@@@@ATL@@H@Z ; CDataConversion::IntToString
  000df	8b f0		 mov	 esi, eax
  000e1	8b 45 d8	 mov	 eax, DWORD PTR _this$1$[ebp]
  000e4	c6 45 fc 06	 mov	 BYTE PTR __$EHRec$[ebp+8], 6
  000e8	ff 70 0c	 push	 DWORD PTR [eax+12]
  000eb	8d 45 c4	 lea	 eax, DWORD PTR $T5[ebp]
  000ee	50		 push	 eax
  000ef	e8 00 00 00 00	 call	 ?IntToString@CDataConversion@@SA?AV?$CStringT@DV?$StrTraitMFC_DLL@DV?$ChTraitsCRT@D@ATL@@@@@ATL@@H@Z ; CDataConversion::IntToString
  000f4	50		 push	 eax
  000f5	8d 45 c8	 lea	 eax, DWORD PTR $T6[ebp]
  000f8	c6 45 fc 07	 mov	 BYTE PTR __$EHRec$[ebp+8], 7
  000fc	68 00 00 00 00	 push	 OFFSET ??_C@_09JKGHBJEA@?$DMLeftExt?$DO@
  00101	50		 push	 eax
  00102	e8 00 00 00 00	 call	 ??HATL@@YA?AV?$CStringT@DV?$StrTraitMFC_DLL@DV?$ChTraitsCRT@D@ATL@@@@@0@PBDABV10@@Z ; ATL::operator+
  00107	68 00 00 00 00	 push	 OFFSET ??_C@_0N@KHBFLOEK@?$DM?2LeftExt?$DO?$AN?6@
  0010c	50		 push	 eax
  0010d	8d 45 cc	 lea	 eax, DWORD PTR $T7[ebp]
  00110	c6 45 fc 08	 mov	 BYTE PTR __$EHRec$[ebp+8], 8
  00114	50		 push	 eax
  00115	e8 00 00 00 00	 call	 ??HATL@@YA?AV?$CStringT@DV?$StrTraitMFC_DLL@DV?$ChTraitsCRT@D@ATL@@@@@0@ABV10@PBD@Z ; ATL::operator+
  0011a	68 00 00 00 00	 push	 OFFSET ??_C@_0L@CFEIJGAO@?$DMRightExt?$DO@
  0011f	50		 push	 eax
  00120	8d 45 d0	 lea	 eax, DWORD PTR $T8[ebp]
  00123	c6 45 fc 09	 mov	 BYTE PTR __$EHRec$[ebp+8], 9
  00127	50		 push	 eax
  00128	e8 00 00 00 00	 call	 ??HATL@@YA?AV?$CStringT@DV?$StrTraitMFC_DLL@DV?$ChTraitsCRT@D@ATL@@@@@0@ABV10@PBD@Z ; ATL::operator+
  0012d	56		 push	 esi
  0012e	50		 push	 eax
  0012f	8d 45 d4	 lea	 eax, DWORD PTR $T9[ebp]
  00132	c6 45 fc 0a	 mov	 BYTE PTR __$EHRec$[ebp+8], 10 ; 0000000aH
  00136	50		 push	 eax
  00137	e8 00 00 00 00	 call	 ??HATL@@YA?AV?$CStringT@DV?$StrTraitMFC_DLL@DV?$ChTraitsCRT@D@ATL@@@@@0@ABV10@0@Z ; ATL::operator+
  0013c	83 c4 40	 add	 esp, 64			; 00000040H
  0013f	8b f0		 mov	 esi, eax
; File C:\Program Files (x86)\Microsoft Visual Studio\2019\Community\VC\Tools\MSVC\14.29.30133\atlmfc\include\cstringt.h

; 2401 : 		CStringT strResult( str1.GetManager() );

  00141	8b ce		 mov	 ecx, esi
; File D:\git\src\IBK\IBK_DRFN\ProjSrc\SrcChartEx\ChartAddIn\ChartAnalysisToolAddIn\Include_Analysis\ElementEnvironment.cpp

; 736  : 	return ("<LeftExt>" + CDataConversion::IntToString(m_nLeftExt) + "<\\LeftExt>\r\n"+\

  00143	c6 45 fc 0c	 mov	 BYTE PTR __$EHRec$[ebp+8], 12 ; 0000000cH
; File C:\Program Files (x86)\Microsoft Visual Studio\2019\Community\VC\Tools\MSVC\14.29.30133\atlmfc\include\cstringt.h

; 2401 : 		CStringT strResult( str1.GetManager() );

  00147	ff 15 00 00 00
	00		 call	 DWORD PTR __imp_?GetManager@?$CStringT@DV?$StrTraitMFC_DLL@DV?$ChTraitsCRT@D@ATL@@@@@ATL@@QBEPAUIAtlStringMgr@2@XZ
  0014d	50		 push	 eax
  0014e	8d 4d ec	 lea	 ecx, DWORD PTR $T14[ebp]
  00151	ff 15 00 00 00
	00		 call	 DWORD PTR __imp_??0?$CStringT@DV?$StrTraitMFC_DLL@DV?$ChTraitsCRT@D@ATL@@@@@ATL@@QAE@PAUIAtlStringMgr@1@@Z
; File C:\Program Files (x86)\Microsoft Visual Studio\2019\Community\VC\Tools\MSVC\14.29.30133\atlmfc\include\atlsimpstr.h

; 519  : 		return( GetData()->nDataLength );

  00157	8b 06		 mov	 eax, DWORD PTR [esi]
; File C:\Program Files (x86)\Microsoft Visual Studio\2019\Community\VC\Tools\MSVC\14.29.30133\atlmfc\include\cstringt.h

; 2403 : 		CThisSimpleString::Concatenate( strResult, str1, str1.GetLength(), psz2, CThisSimpleString::StringLength( psz2 ) );

  00159	6a 0d		 push	 13			; 0000000dH
  0015b	68 00 00 00 00	 push	 OFFSET ??_C@_0O@CEMHHFOM@?$DM?2RightExt?$DO?$AN?6@

; 2404 : 
; 2405 : 		return( strResult );

  00160	c7 45 f0 0f 02
	00 00		 mov	 DWORD PTR $T15[ebp], 527 ; 0000020fH
  00167	ff 70 f4	 push	 DWORD PTR [eax-12]
  0016a	50		 push	 eax
  0016b	8d 45 ec	 lea	 eax, DWORD PTR $T14[ebp]
  0016e	50		 push	 eax
  0016f	ff 15 00 00 00
	00		 call	 DWORD PTR __imp_?Concatenate@?$CSimpleStringT@D$00@ATL@@KAXAAV12@PBDH1H@Z
  00175	83 c4 14	 add	 esp, 20			; 00000014H
; File D:\git\src\IBK\IBK_DRFN\ProjSrc\SrcChartEx\ChartAddIn\ChartAnalysisToolAddIn\Include_Analysis\ElementEnvironment.cpp

; 736  : 	return ("<LeftExt>" + CDataConversion::IntToString(m_nLeftExt) + "<\\LeftExt>\r\n"+\

  00178	c7 45 fc 0b 00
	00 00		 mov	 DWORD PTR __$EHRec$[ebp+8], 11 ; 0000000bH
  0017f	8d 4d d4	 lea	 ecx, DWORD PTR $T9[ebp]
  00182	c7 45 f0 1f 00
	00 00		 mov	 DWORD PTR $T15[ebp], 31	; 0000001fH
  00189	ff 15 00 00 00
	00		 call	 DWORD PTR __imp_??1?$CStringT@DV?$StrTraitMFC_DLL@DV?$ChTraitsCRT@D@ATL@@@@@ATL@@QAE@XZ
  0018f	8d 4d d0	 lea	 ecx, DWORD PTR $T8[ebp]
  00192	ff 15 00 00 00
	00		 call	 DWORD PTR __imp_??1?$CStringT@DV?$StrTraitMFC_DLL@DV?$ChTraitsCRT@D@ATL@@@@@ATL@@QAE@XZ
  00198	8d 4d cc	 lea	 ecx, DWORD PTR $T7[ebp]
  0019b	ff 15 00 00 00
	00		 call	 DWORD PTR __imp_??1?$CStringT@DV?$StrTraitMFC_DLL@DV?$ChTraitsCRT@D@ATL@@@@@ATL@@QAE@XZ
  001a1	8d 4d c8	 lea	 ecx, DWORD PTR $T6[ebp]
  001a4	ff 15 00 00 00
	00		 call	 DWORD PTR __imp_??1?$CStringT@DV?$StrTraitMFC_DLL@DV?$ChTraitsCRT@D@ATL@@@@@ATL@@QAE@XZ
  001aa	8d 4d c4	 lea	 ecx, DWORD PTR $T5[ebp]
  001ad	ff 15 00 00 00
	00		 call	 DWORD PTR __imp_??1?$CStringT@DV?$StrTraitMFC_DLL@DV?$ChTraitsCRT@D@ATL@@@@@ATL@@QAE@XZ
  001b3	8d 4d c0	 lea	 ecx, DWORD PTR $T4[ebp]
  001b6	ff 15 00 00 00
	00		 call	 DWORD PTR __imp_??1?$CStringT@DV?$StrTraitMFC_DLL@DV?$ChTraitsCRT@D@ATL@@@@@ATL@@QAE@XZ

; 728  : 	strSaved.Format("<LineExt>\r\n%s<\\LineExt>\r\n", GetSavedLineExt());

  001bc	ff 75 ec	 push	 DWORD PTR $T14[ebp]
  001bf	8d 45 e4	 lea	 eax, DWORD PTR $T12[ebp]
  001c2	c6 45 fc 0d	 mov	 BYTE PTR __$EHRec$[ebp+8], 13 ; 0000000dH
  001c6	68 00 00 00 00	 push	 OFFSET ??_C@_0BK@FDALAKDP@?$DMLineExt?$DO?$AN?6?$CFs?$DM?2LineExt?$DO?$AN?6@
  001cb	50		 push	 eax
  001cc	ff d3		 call	 ebx
  001ce	83 c4 0c	 add	 esp, 12			; 0000000cH
  001d1	8d 4d ec	 lea	 ecx, DWORD PTR $T14[ebp]
  001d4	ff 15 00 00 00
	00		 call	 DWORD PTR __imp_??1?$CStringT@DV?$StrTraitMFC_DLL@DV?$ChTraitsCRT@D@ATL@@@@@ATL@@QAE@XZ

; 615  : 	CString strSaved;

  001da	8d 4d e8	 lea	 ecx, DWORD PTR $T13[ebp]

; 607  : 	strSaved.Format("<CommonEnvironment>\r\n%s%s%s%s%s%s<\\CommonEnvironment>\r\n", 

  001dd	c6 45 fc 0e	 mov	 BYTE PTR __$EHRec$[ebp+8], 14 ; 0000000eH

; 615  : 	CString strSaved;

  001e1	ff 15 00 00 00
	00		 call	 DWORD PTR __imp_??0?$CStringT@DV?$StrTraitMFC_DLL@DV?$ChTraitsCRT@D@ATL@@@@@ATL@@QAE@XZ

; 616  : 	strSaved.Format("<AutoPirce>%d<\\AutoPirce>\r\n", m_bIsAutoPrice);

  001e7	8b 45 d8	 mov	 eax, DWORD PTR _this$1$[ebp]

; 617  : 	return strSaved;

  001ea	c7 45 f0 1f 04
	00 00		 mov	 DWORD PTR $T15[ebp], 1055 ; 0000041fH
  001f1	0f b6 00	 movzx	 eax, BYTE PTR [eax]
  001f4	50		 push	 eax
  001f5	8d 45 e8	 lea	 eax, DWORD PTR $T13[ebp]
  001f8	68 00 00 00 00	 push	 OFFSET ??_C@_0BM@ELHGNBJI@?$DMAutoPirce?$DO?$CFd?$DM?2AutoPirce?$DO?$AN?6@
  001fd	50		 push	 eax
  001fe	ff d3		 call	 ebx

; 607  : 	strSaved.Format("<CommonEnvironment>\r\n%s%s%s%s%s%s<\\CommonEnvironment>\r\n", 

  00200	8b 45 bc	 mov	 eax, DWORD PTR tv486[ebp]
  00203	8b 75 08	 mov	 esi, DWORD PTR ___$ReturnUdt$[ebp]
  00206	ff 30		 push	 DWORD PTR [eax]
  00208	ff 37		 push	 DWORD PTR [edi]
  0020a	ff 75 dc	 push	 DWORD PTR $T10[ebp]
  0020d	ff 75 e0	 push	 DWORD PTR $T11[ebp]
  00210	ff 75 e4	 push	 DWORD PTR $T12[ebp]
  00213	ff 75 e8	 push	 DWORD PTR $T13[ebp]
  00216	68 00 00 00 00	 push	 OFFSET ??_C@_0DI@GHGECPII@?$DMCommonEnvironment?$DO?$AN?6?$CFs?$CFs?$CFs?$CFs?$CFs@
  0021b	56		 push	 esi
  0021c	ff d3		 call	 ebx
  0021e	83 c4 2c	 add	 esp, 44			; 0000002cH
  00221	8d 4d e8	 lea	 ecx, DWORD PTR $T13[ebp]
  00224	ff 15 00 00 00
	00		 call	 DWORD PTR __imp_??1?$CStringT@DV?$StrTraitMFC_DLL@DV?$ChTraitsCRT@D@ATL@@@@@ATL@@QAE@XZ
  0022a	8d 4d e4	 lea	 ecx, DWORD PTR $T12[ebp]
  0022d	ff 15 00 00 00
	00		 call	 DWORD PTR __imp_??1?$CStringT@DV?$StrTraitMFC_DLL@DV?$ChTraitsCRT@D@ATL@@@@@ATL@@QAE@XZ
  00233	8d 4d e0	 lea	 ecx, DWORD PTR $T11[ebp]
  00236	ff 15 00 00 00
	00		 call	 DWORD PTR __imp_??1?$CStringT@DV?$StrTraitMFC_DLL@DV?$ChTraitsCRT@D@ATL@@@@@ATL@@QAE@XZ
  0023c	8d 4d dc	 lea	 ecx, DWORD PTR $T10[ebp]
  0023f	ff 15 00 00 00
	00		 call	 DWORD PTR __imp_??1?$CStringT@DV?$StrTraitMFC_DLL@DV?$ChTraitsCRT@D@ATL@@@@@ATL@@QAE@XZ
  00245	8d 4d b8	 lea	 ecx, DWORD PTR $T3[ebp]
  00248	ff 15 00 00 00
	00		 call	 DWORD PTR __imp_??1?$CStringT@DV?$StrTraitMFC_DLL@DV?$ChTraitsCRT@D@ATL@@@@@ATL@@QAE@XZ
  0024e	8d 4d b4	 lea	 ecx, DWORD PTR $T2[ebp]
  00251	ff 15 00 00 00
	00		 call	 DWORD PTR __imp_??1?$CStringT@DV?$StrTraitMFC_DLL@DV?$ChTraitsCRT@D@ATL@@@@@ATL@@QAE@XZ

; 608  : 		GetSaveData_AutoPrice(),m_lineExt.GetSavedData(),GetSaveData_EquiDiv(),GetSaveData_PriceRangeDiv(),m_pen.GetSavedData(),m_dataType.GetSavedData());
; 609  : 	return strSaved;

  00257	8b c6		 mov	 eax, esi

; 610  : }

  00259	8b 4d f4	 mov	 ecx, DWORD PTR __$EHRec$[ebp]
  0025c	64 89 0d 00 00
	00 00		 mov	 DWORD PTR fs:0, ecx
  00263	59		 pop	 ecx
  00264	5f		 pop	 edi
  00265	5e		 pop	 esi
  00266	5b		 pop	 ebx
  00267	8b e5		 mov	 esp, ebp
  00269	5d		 pop	 ebp
  0026a	c2 04 00	 ret	 4
_TEXT	ENDS
;	COMDAT text$x
text$x	SEGMENT
__unwindfunclet$?GetSavedData@CElementCommonEnvironment@@QBE?AV?$CStringT@DV?$StrTraitMFC_DLL@DV?$ChTraitsCRT@D@ATL@@@@@ATL@@XZ$0:
  00000	8b 45 f0	 mov	 eax, DWORD PTR $T15[ebp]
  00003	83 e0 01	 and	 eax, 1
  00006	0f 84 0d 00 00
	00		 je	 $LN4@GetSavedDa
  0000c	83 65 f0 fe	 and	 DWORD PTR $T15[ebp], -2	; fffffffeH
  00010	8b 4d 08	 mov	 ecx, DWORD PTR ___$ReturnUdt$[ebp]
  00013	ff 25 00 00 00
	00		 jmp	 DWORD PTR __imp_??1?$CStringT@DV?$StrTraitMFC_DLL@DV?$ChTraitsCRT@D@ATL@@@@@ATL@@QAE@XZ
$LN4@GetSavedDa:
  00019	c3		 ret	 0
__unwindfunclet$?GetSavedData@CElementCommonEnvironment@@QBE?AV?$CStringT@DV?$StrTraitMFC_DLL@DV?$ChTraitsCRT@D@ATL@@@@@ATL@@XZ$1:
  0001a	8d 4d b4	 lea	 ecx, DWORD PTR $T2[ebp]
  0001d	ff 25 00 00 00
	00		 jmp	 DWORD PTR __imp_??1?$CStringT@DV?$StrTraitMFC_DLL@DV?$ChTraitsCRT@D@ATL@@@@@ATL@@QAE@XZ
__unwindfunclet$?GetSavedData@CElementCommonEnvironment@@QBE?AV?$CStringT@DV?$StrTraitMFC_DLL@DV?$ChTraitsCRT@D@ATL@@@@@ATL@@XZ$2:
  00023	8d 4d b8	 lea	 ecx, DWORD PTR $T3[ebp]
  00026	ff 25 00 00 00
	00		 jmp	 DWORD PTR __imp_??1?$CStringT@DV?$StrTraitMFC_DLL@DV?$ChTraitsCRT@D@ATL@@@@@ATL@@QAE@XZ
__unwindfunclet$?GetSavedData@CElementCommonEnvironment@@QBE?AV?$CStringT@DV?$StrTraitMFC_DLL@DV?$ChTraitsCRT@D@ATL@@@@@ATL@@XZ$7:
  0002c	8b 45 f0	 mov	 eax, DWORD PTR $T15[ebp]
  0002f	83 e0 02	 and	 eax, 2
  00032	0f 84 0d 00 00
	00		 je	 $LN14@GetSavedDa
  00038	83 65 f0 fd	 and	 DWORD PTR $T15[ebp], -3	; fffffffdH
  0003c	8d 4d dc	 lea	 ecx, DWORD PTR $T10[ebp]
  0003f	ff 25 00 00 00
	00		 jmp	 DWORD PTR __imp_??1?$CStringT@DV?$StrTraitMFC_DLL@DV?$ChTraitsCRT@D@ATL@@@@@ATL@@QAE@XZ
$LN14@GetSavedDa:
  00045	c3		 ret	 0
__unwindfunclet$?GetSavedData@CElementCommonEnvironment@@QBE?AV?$CStringT@DV?$StrTraitMFC_DLL@DV?$ChTraitsCRT@D@ATL@@@@@ATL@@XZ$8:
  00046	8b 45 f0	 mov	 eax, DWORD PTR $T15[ebp]
  00049	83 e0 04	 and	 eax, 4
  0004c	0f 84 0d 00 00
	00		 je	 $LN18@GetSavedDa
  00052	83 65 f0 fb	 and	 DWORD PTR $T15[ebp], -5	; fffffffbH
  00056	8d 4d e0	 lea	 ecx, DWORD PTR $T11[ebp]
  00059	ff 25 00 00 00
	00		 jmp	 DWORD PTR __imp_??1?$CStringT@DV?$StrTraitMFC_DLL@DV?$ChTraitsCRT@D@ATL@@@@@ATL@@QAE@XZ
$LN18@GetSavedDa:
  0005f	c3		 ret	 0
__unwindfunclet$?GetSavedData@CElementCommonEnvironment@@QBE?AV?$CStringT@DV?$StrTraitMFC_DLL@DV?$ChTraitsCRT@D@ATL@@@@@ATL@@XZ$9:
  00060	8b 45 f0	 mov	 eax, DWORD PTR $T15[ebp]
  00063	83 e0 08	 and	 eax, 8
  00066	0f 84 0d 00 00
	00		 je	 $LN22@GetSavedDa
  0006c	83 65 f0 f7	 and	 DWORD PTR $T15[ebp], -9	; fffffff7H
  00070	8d 4d e4	 lea	 ecx, DWORD PTR $T12[ebp]
  00073	ff 25 00 00 00
	00		 jmp	 DWORD PTR __imp_??1?$CStringT@DV?$StrTraitMFC_DLL@DV?$ChTraitsCRT@D@ATL@@@@@ATL@@QAE@XZ
$LN22@GetSavedDa:
  00079	c3		 ret	 0
__unwindfunclet$?GetSavedData@CElementCommonEnvironment@@QBE?AV?$CStringT@DV?$StrTraitMFC_DLL@DV?$ChTraitsCRT@D@ATL@@@@@ATL@@XZ$11:
  0007a	8d 4d c0	 lea	 ecx, DWORD PTR $T4[ebp]
  0007d	ff 25 00 00 00
	00		 jmp	 DWORD PTR __imp_??1?$CStringT@DV?$StrTraitMFC_DLL@DV?$ChTraitsCRT@D@ATL@@@@@ATL@@QAE@XZ
__unwindfunclet$?GetSavedData@CElementCommonEnvironment@@QBE?AV?$CStringT@DV?$StrTraitMFC_DLL@DV?$ChTraitsCRT@D@ATL@@@@@ATL@@XZ$12:
  00083	8d 4d c4	 lea	 ecx, DWORD PTR $T5[ebp]
  00086	ff 25 00 00 00
	00		 jmp	 DWORD PTR __imp_??1?$CStringT@DV?$StrTraitMFC_DLL@DV?$ChTraitsCRT@D@ATL@@@@@ATL@@QAE@XZ
__unwindfunclet$?GetSavedData@CElementCommonEnvironment@@QBE?AV?$CStringT@DV?$StrTraitMFC_DLL@DV?$ChTraitsCRT@D@ATL@@@@@ATL@@XZ$13:
  0008c	8d 4d c8	 lea	 ecx, DWORD PTR $T6[ebp]
  0008f	ff 25 00 00 00
	00		 jmp	 DWORD PTR __imp_??1?$CStringT@DV?$StrTraitMFC_DLL@DV?$ChTraitsCRT@D@ATL@@@@@ATL@@QAE@XZ
__unwindfunclet$?GetSavedData@CElementCommonEnvironment@@QBE?AV?$CStringT@DV?$StrTraitMFC_DLL@DV?$ChTraitsCRT@D@ATL@@@@@ATL@@XZ$14:
  00095	8d 4d cc	 lea	 ecx, DWORD PTR $T7[ebp]
  00098	ff 25 00 00 00
	00		 jmp	 DWORD PTR __imp_??1?$CStringT@DV?$StrTraitMFC_DLL@DV?$ChTraitsCRT@D@ATL@@@@@ATL@@QAE@XZ
__unwindfunclet$?GetSavedData@CElementCommonEnvironment@@QBE?AV?$CStringT@DV?$StrTraitMFC_DLL@DV?$ChTraitsCRT@D@ATL@@@@@ATL@@XZ$15:
  0009e	8d 4d d0	 lea	 ecx, DWORD PTR $T8[ebp]
  000a1	ff 25 00 00 00
	00		 jmp	 DWORD PTR __imp_??1?$CStringT@DV?$StrTraitMFC_DLL@DV?$ChTraitsCRT@D@ATL@@@@@ATL@@QAE@XZ
__unwindfunclet$?GetSavedData@CElementCommonEnvironment@@QBE?AV?$CStringT@DV?$StrTraitMFC_DLL@DV?$ChTraitsCRT@D@ATL@@@@@ATL@@XZ$16:
  000a7	8d 4d d4	 lea	 ecx, DWORD PTR $T9[ebp]
  000aa	ff 25 00 00 00
	00		 jmp	 DWORD PTR __imp_??1?$CStringT@DV?$StrTraitMFC_DLL@DV?$ChTraitsCRT@D@ATL@@@@@ATL@@QAE@XZ
__unwindfunclet$?GetSavedData@CElementCommonEnvironment@@QBE?AV?$CStringT@DV?$StrTraitMFC_DLL@DV?$ChTraitsCRT@D@ATL@@@@@ATL@@XZ$22:
  000b0	8b 45 f0	 mov	 eax, DWORD PTR $T15[ebp]
  000b3	25 00 02 00 00	 and	 eax, 512		; 00000200H
  000b8	0f 84 10 00 00
	00		 je	 $LN92@GetSavedDa
  000be	81 65 f0 ff fd
	ff ff		 and	 DWORD PTR $T15[ebp], -513 ; fffffdffH
  000c5	8d 4d ec	 lea	 ecx, DWORD PTR $T14[ebp]
  000c8	ff 25 00 00 00
	00		 jmp	 DWORD PTR __imp_??1?$CStringT@DV?$StrTraitMFC_DLL@DV?$ChTraitsCRT@D@ATL@@@@@ATL@@QAE@XZ
$LN92@GetSavedDa:
  000ce	c3		 ret	 0
__unwindfunclet$?GetSavedData@CElementCommonEnvironment@@QBE?AV?$CStringT@DV?$StrTraitMFC_DLL@DV?$ChTraitsCRT@D@ATL@@@@@ATL@@XZ$10:
  000cf	8d 4d ec	 lea	 ecx, DWORD PTR $T14[ebp]
  000d2	ff 25 00 00 00
	00		 jmp	 DWORD PTR __imp_??1?$CStringT@DV?$StrTraitMFC_DLL@DV?$ChTraitsCRT@D@ATL@@@@@ATL@@QAE@XZ
__unwindfunclet$?GetSavedData@CElementCommonEnvironment@@QBE?AV?$CStringT@DV?$StrTraitMFC_DLL@DV?$ChTraitsCRT@D@ATL@@@@@ATL@@XZ$23:
  000d8	8b 45 f0	 mov	 eax, DWORD PTR $T15[ebp]
  000db	25 00 04 00 00	 and	 eax, 1024		; 00000400H
  000e0	0f 84 10 00 00
	00		 je	 $LN105@GetSavedDa
  000e6	81 65 f0 ff fb
	ff ff		 and	 DWORD PTR $T15[ebp], -1025 ; fffffbffH
  000ed	8d 4d e8	 lea	 ecx, DWORD PTR $T13[ebp]
  000f0	ff 25 00 00 00
	00		 jmp	 DWORD PTR __imp_??1?$CStringT@DV?$StrTraitMFC_DLL@DV?$ChTraitsCRT@D@ATL@@@@@ATL@@QAE@XZ
$LN105@GetSavedDa:
  000f6	c3		 ret	 0
  000f7	cc		 int	 3
  000f8	cc		 int	 3
  000f9	cc		 int	 3
  000fa	cc		 int	 3
  000fb	cc		 int	 3
__ehhandler$?GetSavedData@CElementCommonEnvironment@@QBE?AV?$CStringT@DV?$StrTraitMFC_DLL@DV?$ChTraitsCRT@D@ATL@@@@@ATL@@XZ:
  000fc	90		 npad	 1
  000fd	90		 npad	 1
  000fe	8b 54 24 08	 mov	 edx, DWORD PTR [esp+8]
  00102	8d 42 0c	 lea	 eax, DWORD PTR [edx+12]
  00105	8b 4a b0	 mov	 ecx, DWORD PTR [edx-80]
  00108	33 c8		 xor	 ecx, eax
  0010a	e8 00 00 00 00	 call	 @__security_check_cookie@4
  0010f	b8 00 00 00 00	 mov	 eax, OFFSET __ehfuncinfo$?GetSavedData@CElementCommonEnvironment@@QBE?AV?$CStringT@DV?$StrTraitMFC_DLL@DV?$ChTraitsCRT@D@ATL@@@@@ATL@@XZ
  00114	e9 00 00 00 00	 jmp	 ___CxxFrameHandler3
text$x	ENDS
?GetSavedData@CElementCommonEnvironment@@QBE?AV?$CStringT@DV?$StrTraitMFC_DLL@DV?$ChTraitsCRT@D@ATL@@@@@ATL@@XZ ENDP ; CElementCommonEnvironment::GetSavedData
; Function compile flags: /Ogtp
; File D:\git\src\IBK\IBK_DRFN\ProjSrc\SrcChartEx\ChartAddIn\ChartAnalysisToolAddIn\Include_Analysis\ElementEnvironment.cpp
;	COMDAT ?GetDataType@CElementCommonEnvironment@@QAEAAVCDataTypeEnvironment@@XZ
_TEXT	SEGMENT
?GetDataType@CElementCommonEnvironment@@QAEAAVCDataTypeEnvironment@@XZ PROC ; CElementCommonEnvironment::GetDataType, COMDAT
; _this$ = ecx

; 581  : 	return m_dataType;

  00000	8d 41 20	 lea	 eax, DWORD PTR [ecx+32]

; 582  : }

  00003	c3		 ret	 0
?GetDataType@CElementCommonEnvironment@@QAEAAVCDataTypeEnvironment@@XZ ENDP ; CElementCommonEnvironment::GetDataType
_TEXT	ENDS
; Function compile flags: /Ogtp
; File D:\git\src\IBK\IBK_DRFN\ProjSrc\SrcChartEx\ChartAddIn\ChartAnalysisToolAddIn\Include_Analysis\ElementEnvironment.cpp
;	COMDAT ?GetPen@CElementCommonEnvironment@@QAEAAVCPenEnvironment@@XZ
_TEXT	SEGMENT
?GetPen@CElementCommonEnvironment@@QAEAAVCPenEnvironment@@XZ PROC ; CElementCommonEnvironment::GetPen, COMDAT
; _this$ = ecx

; 576  : 	return m_pen;

  00000	8d 41 14	 lea	 eax, DWORD PTR [ecx+20]

; 577  : }

  00003	c3		 ret	 0
?GetPen@CElementCommonEnvironment@@QAEAAVCPenEnvironment@@XZ ENDP ; CElementCommonEnvironment::GetPen
_TEXT	ENDS
; Function compile flags: /Ogtp
; File D:\git\src\IBK\IBK_DRFN\ProjSrc\SrcChartEx\ChartAddIn\ChartAnalysisToolAddIn\Include_Analysis\ElementEnvironment.cpp
;	COMDAT ?GetDataType@CElementCommonEnvironment@@QBE?AVCDataTypeEnvironment@@XZ
_TEXT	SEGMENT
__$EHRec$ = -12						; size = 12
___$ReturnUdt$ = 8					; size = 4
?GetDataType@CElementCommonEnvironment@@QBE?AVCDataTypeEnvironment@@XZ PROC ; CElementCommonEnvironment::GetDataType, COMDAT
; _this$ = ecx

; 570  : {

  00000	55		 push	 ebp
  00001	8b ec		 mov	 ebp, esp
  00003	6a ff		 push	 -1
  00005	68 00 00 00 00	 push	 __ehhandler$?GetDataType@CElementCommonEnvironment@@QBE?AVCDataTypeEnvironment@@XZ
  0000a	64 a1 00 00 00
	00		 mov	 eax, DWORD PTR fs:0
  00010	50		 push	 eax
  00011	56		 push	 esi
  00012	57		 push	 edi
  00013	a1 00 00 00 00	 mov	 eax, DWORD PTR ___security_cookie
  00018	33 c5		 xor	 eax, ebp
  0001a	50		 push	 eax
  0001b	8d 45 f4	 lea	 eax, DWORD PTR __$EHRec$[ebp]
  0001e	64 a3 00 00 00
	00		 mov	 DWORD PTR fs:0, eax
  00024	8b f9		 mov	 edi, ecx

; 571  : 	return m_dataType;

  00026	8b 75 08	 mov	 esi, DWORD PTR ___$ReturnUdt$[ebp]
  00029	8b 47 20	 mov	 eax, DWORD PTR [edi+32]
  0002c	89 06		 mov	 DWORD PTR [esi], eax
  0002e	8d 4e 10	 lea	 ecx, DWORD PTR [esi+16]
  00031	f2 0f 10 47 28	 movsd	 xmm0, QWORD PTR [edi+40]
  00036	8d 47 30	 lea	 eax, DWORD PTR [edi+48]
  00039	50		 push	 eax
  0003a	f2 0f 11 46 08	 movsd	 QWORD PTR [esi+8], xmm0
  0003f	ff 15 00 00 00
	00		 call	 DWORD PTR __imp_??0?$CStringT@DV?$StrTraitMFC_DLL@DV?$ChTraitsCRT@D@ATL@@@@@ATL@@QAE@ABV01@@Z
  00045	8d 47 34	 lea	 eax, DWORD PTR [edi+52]
  00048	c7 45 fc 00 00
	00 00		 mov	 DWORD PTR __$EHRec$[ebp+8], 0
  0004f	50		 push	 eax
  00050	8d 4e 14	 lea	 ecx, DWORD PTR [esi+20]
  00053	ff 15 00 00 00
	00		 call	 DWORD PTR __imp_??0?$CStringT@DV?$StrTraitMFC_DLL@DV?$ChTraitsCRT@D@ATL@@@@@ATL@@QAE@ABV01@@Z
  00059	8d 4f 38	 lea	 ecx, DWORD PTR [edi+56]
  0005c	c6 45 fc 01	 mov	 BYTE PTR __$EHRec$[ebp+8], 1
  00060	51		 push	 ecx
  00061	8d 4e 18	 lea	 ecx, DWORD PTR [esi+24]
  00064	ff 15 00 00 00
	00		 call	 DWORD PTR __imp_??0?$CStringT@DV?$StrTraitMFC_DLL@DV?$ChTraitsCRT@D@ATL@@@@@ATL@@QAE@ABV01@@Z
  0006a	8b 4f 3c	 mov	 ecx, DWORD PTR [edi+60]
  0006d	8b c6		 mov	 eax, esi
  0006f	89 4e 1c	 mov	 DWORD PTR [esi+28], ecx
  00072	8b 4f 40	 mov	 ecx, DWORD PTR [edi+64]
  00075	89 4e 20	 mov	 DWORD PTR [esi+32], ecx

; 572  : }

  00078	8b 4d f4	 mov	 ecx, DWORD PTR __$EHRec$[ebp]
  0007b	64 89 0d 00 00
	00 00		 mov	 DWORD PTR fs:0, ecx
  00082	59		 pop	 ecx
  00083	5f		 pop	 edi
  00084	5e		 pop	 esi
  00085	8b e5		 mov	 esp, ebp
  00087	5d		 pop	 ebp
  00088	c2 04 00	 ret	 4
_TEXT	ENDS
;	COMDAT text$x
text$x	SEGMENT
__unwindfunclet$?GetDataType@CElementCommonEnvironment@@QBE?AVCDataTypeEnvironment@@XZ$1:
  00000	8b 4d 08	 mov	 ecx, DWORD PTR ___$ReturnUdt$[ebp]
  00003	83 c1 10	 add	 ecx, 16			; 00000010H
  00006	ff 25 00 00 00
	00		 jmp	 DWORD PTR __imp_??1?$CStringT@DV?$StrTraitMFC_DLL@DV?$ChTraitsCRT@D@ATL@@@@@ATL@@QAE@XZ
__unwindfunclet$?GetDataType@CElementCommonEnvironment@@QBE?AVCDataTypeEnvironment@@XZ$2:
  0000c	8b 4d 08	 mov	 ecx, DWORD PTR ___$ReturnUdt$[ebp]
  0000f	83 c1 14	 add	 ecx, 20			; 00000014H
  00012	ff 25 00 00 00
	00		 jmp	 DWORD PTR __imp_??1?$CStringT@DV?$StrTraitMFC_DLL@DV?$ChTraitsCRT@D@ATL@@@@@ATL@@QAE@XZ
  00018	cc		 int	 3
  00019	cc		 int	 3
  0001a	cc		 int	 3
  0001b	cc		 int	 3
  0001c	cc		 int	 3
__ehhandler$?GetDataType@CElementCommonEnvironment@@QBE?AVCDataTypeEnvironment@@XZ:
  0001d	90		 npad	 1
  0001e	90		 npad	 1
  0001f	8b 54 24 08	 mov	 edx, DWORD PTR [esp+8]
  00023	8d 42 0c	 lea	 eax, DWORD PTR [edx+12]
  00026	8b 4a f4	 mov	 ecx, DWORD PTR [edx-12]
  00029	33 c8		 xor	 ecx, eax
  0002b	e8 00 00 00 00	 call	 @__security_check_cookie@4
  00030	b8 00 00 00 00	 mov	 eax, OFFSET __ehfuncinfo$?GetDataType@CElementCommonEnvironment@@QBE?AVCDataTypeEnvironment@@XZ
  00035	e9 00 00 00 00	 jmp	 ___CxxFrameHandler3
text$x	ENDS
?GetDataType@CElementCommonEnvironment@@QBE?AVCDataTypeEnvironment@@XZ ENDP ; CElementCommonEnvironment::GetDataType
; Function compile flags: /Ogtp
; File D:\git\src\IBK\IBK_DRFN\ProjSrc\SrcChartEx\ChartAddIn\ChartAnalysisToolAddIn\Include_Analysis\ElementEnvironment.cpp
;	COMDAT ?GetPen@CElementCommonEnvironment@@QBE?AVCPenEnvironment@@XZ
_TEXT	SEGMENT
___$ReturnUdt$ = 8					; size = 4
?GetPen@CElementCommonEnvironment@@QBE?AVCPenEnvironment@@XZ PROC ; CElementCommonEnvironment::GetPen, COMDAT
; _this$ = ecx

; 550  : {

  00000	55		 push	 ebp
  00001	8b ec		 mov	 ebp, esp

; 551  : 	return m_pen;

  00003	8b 45 08	 mov	 eax, DWORD PTR ___$ReturnUdt$[ebp]
  00006	f3 0f 7e 41 14	 movq	 xmm0, QWORD PTR [ecx+20]
  0000b	8b 49 1c	 mov	 ecx, DWORD PTR [ecx+28]
  0000e	66 0f d6 00	 movq	 QWORD PTR [eax], xmm0
  00012	89 48 08	 mov	 DWORD PTR [eax+8], ecx

; 552  : }

  00015	5d		 pop	 ebp
  00016	c2 04 00	 ret	 4
?GetPen@CElementCommonEnvironment@@QBE?AVCPenEnvironment@@XZ ENDP ; CElementCommonEnvironment::GetPen
_TEXT	ENDS
; Function compile flags: /Ogtp
; File D:\git\src\IBK\IBK_DRFN\ProjSrc\SrcChartEx\ChartAddIn\ChartAnalysisToolAddIn\Include_Analysis\ElementEnvironment.cpp
;	COMDAT ?GetLineExt@CElementCommonEnvironment@@QAEAAVCLineExtEnvironment@@XZ
_TEXT	SEGMENT
?GetLineExt@CElementCommonEnvironment@@QAEAAVCLineExtEnvironment@@XZ PROC ; CElementCommonEnvironment::GetLineExt, COMDAT
; _this$ = ecx

; 566  : 	return m_lineExt;

  00000	8d 41 0c	 lea	 eax, DWORD PTR [ecx+12]

; 567  : }

  00003	c3		 ret	 0
?GetLineExt@CElementCommonEnvironment@@QAEAAVCLineExtEnvironment@@XZ ENDP ; CElementCommonEnvironment::GetLineExt
_TEXT	ENDS
; Function compile flags: /Ogtp
; File D:\git\src\IBK\IBK_DRFN\ProjSrc\SrcChartEx\ChartAddIn\ChartAnalysisToolAddIn\Include_Analysis\ElementEnvironment.cpp
;	COMDAT ?GetLineExt@CElementCommonEnvironment@@QBE?AVCLineExtEnvironment@@XZ
_TEXT	SEGMENT
___$ReturnUdt$ = 8					; size = 4
?GetLineExt@CElementCommonEnvironment@@QBE?AVCLineExtEnvironment@@XZ PROC ; CElementCommonEnvironment::GetLineExt, COMDAT
; _this$ = ecx

; 560  : {

  00000	55		 push	 ebp
  00001	8b ec		 mov	 ebp, esp

; 679  : 	if(&environment == NULL)

  00003	8b 45 08	 mov	 eax, DWORD PTR ___$ReturnUdt$[ebp]

; 561  : 	return m_lineExt;

  00006	8d 51 0c	 lea	 edx, DWORD PTR [ecx+12]

; 679  : 	if(&environment == NULL)

  00009	85 d2		 test	 edx, edx
  0000b	74 0a		 je	 SHORT $LN3@GetLineExt

; 680  : 	{
; 681  : 		return;
; 682  : 	}
; 683  : 
; 684  : 	m_nLeftExt = environment.GetLeftExt();

  0000d	8b 0a		 mov	 ecx, DWORD PTR [edx]
  0000f	89 08		 mov	 DWORD PTR [eax], ecx

; 685  : 	m_nRightExt = environment.GetRightExt();

  00011	8b 4a 04	 mov	 ecx, DWORD PTR [edx+4]
  00014	89 48 04	 mov	 DWORD PTR [eax+4], ecx
$LN3@GetLineExt:

; 562  : }

  00017	5d		 pop	 ebp
  00018	c2 04 00	 ret	 4
?GetLineExt@CElementCommonEnvironment@@QBE?AVCLineExtEnvironment@@XZ ENDP ; CElementCommonEnvironment::GetLineExt
_TEXT	ENDS
; Function compile flags: /Ogtp
; File D:\git\src\IBK\IBK_DRFN\ProjSrc\SrcChartEx\ChartAddIn\ChartAnalysisToolAddIn\Include_Analysis\ElementEnvironment.cpp
;	COMDAT ?SetLineExt@CElementCommonEnvironment@@QAEXHH@Z
_TEXT	SEGMENT
_nLeftExt$ = 8						; size = 4
_nRightExt$ = 12					; size = 4
?SetLineExt@CElementCommonEnvironment@@QAEXHH@Z PROC	; CElementCommonEnvironment::SetLineExt, COMDAT
; _this$ = ecx

; 555  : {

  00000	55		 push	 ebp
  00001	8b ec		 mov	 ebp, esp

; 706  : 	m_nLeftExt = nLeft;

  00003	8b 45 08	 mov	 eax, DWORD PTR _nLeftExt$[ebp]
  00006	89 41 0c	 mov	 DWORD PTR [ecx+12], eax

; 707  : 	m_nRightExt = nRight;

  00009	8b 45 0c	 mov	 eax, DWORD PTR _nRightExt$[ebp]
  0000c	89 41 10	 mov	 DWORD PTR [ecx+16], eax

; 556  : 	m_lineExt.SetLineExt(nLeftExt,nRightExt);
; 557  : }

  0000f	5d		 pop	 ebp
  00010	c2 08 00	 ret	 8
?SetLineExt@CElementCommonEnvironment@@QAEXHH@Z ENDP	; CElementCommonEnvironment::SetLineExt
_TEXT	ENDS
; Function compile flags: /Ogtp
; File D:\git\src\IBK\IBK_DRFN\ProjSrc\SrcChartEx\ChartAddIn\ChartAnalysisToolAddIn\Include_Analysis\ElementEnvironment.cpp
;	COMDAT ?IsRightLineExt@CElementCommonEnvironment@@QBEHXZ
_TEXT	SEGMENT
?IsRightLineExt@CElementCommonEnvironment@@QBEHXZ PROC	; CElementCommonEnvironment::IsRightLineExt, COMDAT
; _this$ = ecx

; 506  : 	BOOL bRightLineExt = FALSE;
; 507  : 	if(m_lineExt.GetRightExt() == 1)
; 508  : 	{
; 509  : 		bRightLineExt = TRUE;
; 510  : 	}
; 511  : 
; 512  : 	return bRightLineExt;

  00000	33 c0		 xor	 eax, eax
  00002	83 79 10 01	 cmp	 DWORD PTR [ecx+16], 1
  00006	0f 94 c0	 sete	 al

; 513  : }

  00009	c3		 ret	 0
?IsRightLineExt@CElementCommonEnvironment@@QBEHXZ ENDP	; CElementCommonEnvironment::IsRightLineExt
_TEXT	ENDS
; Function compile flags: /Ogtp
; File D:\git\src\IBK\IBK_DRFN\ProjSrc\SrcChartEx\ChartAddIn\ChartAnalysisToolAddIn\Include_Analysis\ElementEnvironment.cpp
;	COMDAT ?IsLeftLineExt@CElementCommonEnvironment@@QBEHXZ
_TEXT	SEGMENT
?IsLeftLineExt@CElementCommonEnvironment@@QBEHXZ PROC	; CElementCommonEnvironment::IsLeftLineExt, COMDAT
; _this$ = ecx

; 495  : 	BOOL bLeftLineExt = FALSE;
; 496  : 	if(m_lineExt.GetLeftExt() == 1)
; 497  : 	{
; 498  : 		bLeftLineExt = TRUE;
; 499  : 	}
; 500  : 
; 501  : 	return bLeftLineExt;

  00000	33 c0		 xor	 eax, eax
  00002	83 79 0c 01	 cmp	 DWORD PTR [ecx+12], 1
  00006	0f 94 c0	 sete	 al

; 502  : }

  00009	c3		 ret	 0
?IsLeftLineExt@CElementCommonEnvironment@@QBEHXZ ENDP	; CElementCommonEnvironment::IsLeftLineExt
_TEXT	ENDS
; Function compile flags: /Ogtp
; File D:\git\src\IBK\IBK_DRFN\ProjSrc\SrcChartEx\ChartAddIn\ChartAnalysisToolAddIn\Include_Analysis\ElementEnvironment.cpp
;	COMDAT ?SetPriceRangeDiv@CElementCommonEnvironment@@QAEXH@Z
_TEXT	SEGMENT
_nPriceRangeDiv$ = 8					; size = 4
?SetPriceRangeDiv@CElementCommonEnvironment@@QAEXH@Z PROC ; CElementCommonEnvironment::SetPriceRangeDiv, COMDAT
; _this$ = ecx

; 545  : {

  00000	55		 push	 ebp
  00001	8b ec		 mov	 ebp, esp

; 546  : 	m_nPriceRangeDiv = nPriceRangeDiv;

  00003	8b 45 08	 mov	 eax, DWORD PTR _nPriceRangeDiv$[ebp]
  00006	89 41 08	 mov	 DWORD PTR [ecx+8], eax

; 547  : }

  00009	5d		 pop	 ebp
  0000a	c2 04 00	 ret	 4
?SetPriceRangeDiv@CElementCommonEnvironment@@QAEXH@Z ENDP ; CElementCommonEnvironment::SetPriceRangeDiv
_TEXT	ENDS
; Function compile flags: /Ogtp
; File D:\git\src\IBK\IBK_DRFN\ProjSrc\SrcChartEx\ChartAddIn\ChartAnalysisToolAddIn\Include_Analysis\ElementEnvironment.cpp
;	COMDAT ?GetPriceRangeDiv@CElementCommonEnvironment@@QAEAAHXZ
_TEXT	SEGMENT
?GetPriceRangeDiv@CElementCommonEnvironment@@QAEAAHXZ PROC ; CElementCommonEnvironment::GetPriceRangeDiv, COMDAT
; _this$ = ecx

; 542  : 	return m_nPriceRangeDiv;

  00000	8d 41 08	 lea	 eax, DWORD PTR [ecx+8]

; 543  : }

  00003	c3		 ret	 0
?GetPriceRangeDiv@CElementCommonEnvironment@@QAEAAHXZ ENDP ; CElementCommonEnvironment::GetPriceRangeDiv
_TEXT	ENDS
; Function compile flags: /Ogtp
; File D:\git\src\IBK\IBK_DRFN\ProjSrc\SrcChartEx\ChartAddIn\ChartAnalysisToolAddIn\Include_Analysis\ElementEnvironment.cpp
;	COMDAT ?GetPriceRangeDiv@CElementCommonEnvironment@@QBEHXZ
_TEXT	SEGMENT
?GetPriceRangeDiv@CElementCommonEnvironment@@QBEHXZ PROC ; CElementCommonEnvironment::GetPriceRangeDiv, COMDAT
; _this$ = ecx

; 538  : 	return m_nPriceRangeDiv;

  00000	8b 41 08	 mov	 eax, DWORD PTR [ecx+8]

; 539  : }

  00003	c3		 ret	 0
?GetPriceRangeDiv@CElementCommonEnvironment@@QBEHXZ ENDP ; CElementCommonEnvironment::GetPriceRangeDiv
_TEXT	ENDS
; Function compile flags: /Ogtp
; File D:\git\src\IBK\IBK_DRFN\ProjSrc\SrcChartEx\ChartAddIn\ChartAnalysisToolAddIn\Include_Analysis\ElementEnvironment.cpp
;	COMDAT ?SetEquiDiv@CElementCommonEnvironment@@QAEXH@Z
_TEXT	SEGMENT
_nEquiDiv$ = 8						; size = 4
?SetEquiDiv@CElementCommonEnvironment@@QAEXH@Z PROC	; CElementCommonEnvironment::SetEquiDiv, COMDAT
; _this$ = ecx

; 531  : {

  00000	55		 push	 ebp
  00001	8b ec		 mov	 ebp, esp

; 532  : 	m_nEquiDiv = nEquiDiv;

  00003	8b 45 08	 mov	 eax, DWORD PTR _nEquiDiv$[ebp]
  00006	89 41 04	 mov	 DWORD PTR [ecx+4], eax

; 533  : }

  00009	5d		 pop	 ebp
  0000a	c2 04 00	 ret	 4
?SetEquiDiv@CElementCommonEnvironment@@QAEXH@Z ENDP	; CElementCommonEnvironment::SetEquiDiv
_TEXT	ENDS
; Function compile flags: /Ogtp
; File D:\git\src\IBK\IBK_DRFN\ProjSrc\SrcChartEx\ChartAddIn\ChartAnalysisToolAddIn\Include_Analysis\ElementEnvironment.cpp
;	COMDAT ?GetEquiDiv@CElementCommonEnvironment@@QAEAAHXZ
_TEXT	SEGMENT
?GetEquiDiv@CElementCommonEnvironment@@QAEAAHXZ PROC	; CElementCommonEnvironment::GetEquiDiv, COMDAT
; _this$ = ecx

; 527  : 	return m_nEquiDiv;

  00000	8d 41 04	 lea	 eax, DWORD PTR [ecx+4]

; 528  : }

  00003	c3		 ret	 0
?GetEquiDiv@CElementCommonEnvironment@@QAEAAHXZ ENDP	; CElementCommonEnvironment::GetEquiDiv
_TEXT	ENDS
; Function compile flags: /Ogtp
; File D:\git\src\IBK\IBK_DRFN\ProjSrc\SrcChartEx\ChartAddIn\ChartAnalysisToolAddIn\Include_Analysis\ElementEnvironment.cpp
;	COMDAT ?GetEquiDiv@CElementCommonEnvironment@@QBEHXZ
_TEXT	SEGMENT
?GetEquiDiv@CElementCommonEnvironment@@QBEHXZ PROC	; CElementCommonEnvironment::GetEquiDiv, COMDAT
; _this$ = ecx

; 522  : 	return m_nEquiDiv;

  00000	8b 41 04	 mov	 eax, DWORD PTR [ecx+4]

; 523  : }

  00003	c3		 ret	 0
?GetEquiDiv@CElementCommonEnvironment@@QBEHXZ ENDP	; CElementCommonEnvironment::GetEquiDiv
_TEXT	ENDS
; Function compile flags: /Ogtp
; File D:\git\src\IBK\IBK_DRFN\ProjSrc\SrcChartEx\ChartAddIn\ChartAnalysisToolAddIn\Include_Analysis\ElementEnvironment.cpp
;	COMDAT ?IsAutoPrice@CElementCommonEnvironment@@QBE_NXZ
_TEXT	SEGMENT
?IsAutoPrice@CElementCommonEnvironment@@QBE_NXZ PROC	; CElementCommonEnvironment::IsAutoPrice, COMDAT
; _this$ = ecx

; 517  : 	return m_bIsAutoPrice;

  00000	8a 01		 mov	 al, BYTE PTR [ecx]

; 518  : }

  00002	c3		 ret	 0
?IsAutoPrice@CElementCommonEnvironment@@QBE_NXZ ENDP	; CElementCommonEnvironment::IsAutoPrice
_TEXT	ENDS
; Function compile flags: /Ogtp
; File D:\git\src\IBK\IBK_DRFN\ProjSrc\SrcChartEx\ChartAddIn\ChartAnalysisToolAddIn\Include_Analysis\ElementEnvironment.cpp
;	COMDAT ?SetAutoPrice@CElementCommonEnvironment@@QAEX_N@Z
_TEXT	SEGMENT
_bIsAutoPrice$ = 8					; size = 1
?SetAutoPrice@CElementCommonEnvironment@@QAEX_N@Z PROC	; CElementCommonEnvironment::SetAutoPrice, COMDAT
; _this$ = ecx

; 489  : {

  00000	55		 push	 ebp
  00001	8b ec		 mov	 ebp, esp

; 490  : 	m_bIsAutoPrice = bIsAutoPrice;

  00003	8a 45 08	 mov	 al, BYTE PTR _bIsAutoPrice$[ebp]
  00006	88 01		 mov	 BYTE PTR [ecx], al

; 491  : }

  00008	5d		 pop	 ebp
  00009	c2 04 00	 ret	 4
?SetAutoPrice@CElementCommonEnvironment@@QAEX_N@Z ENDP	; CElementCommonEnvironment::SetAutoPrice
_TEXT	ENDS
; Function compile flags: /Ogtp
; File D:\git\src\IBK\IBK_DRFN\ProjSrc\SrcChartEx\ChartAddIn\ChartAnalysisToolAddIn\Include_Analysis\ElementEnvironment.cpp
;	COMDAT ??0CElementCommonEnvironment@@QAE@_NABH1ABVCPenEnvironment@@ABVCDataTypeEnvironment@@ABVCLineExtEnvironment@@@Z
_TEXT	SEGMENT
_this$ = -16						; size = 4
__$EHRec$ = -12						; size = 12
_this$ = 8						; size = 4
_bIsAutoPrice$ = 8					; size = 1
_nEquiDiv$ = 12						; size = 4
_nPriceRangeDiv$ = 16					; size = 4
_pen$ = 20						; size = 4
_dataType$ = 24						; size = 4
_lineExt$ = 28						; size = 4
??0CElementCommonEnvironment@@QAE@_NABH1ABVCPenEnvironment@@ABVCDataTypeEnvironment@@ABVCLineExtEnvironment@@@Z PROC ; CElementCommonEnvironment::CElementCommonEnvironment, COMDAT
; _this$ = ecx

; 484  : {

  00000	55		 push	 ebp
  00001	8b ec		 mov	 ebp, esp
  00003	6a ff		 push	 -1
  00005	68 00 00 00 00	 push	 __ehhandler$??0CElementCommonEnvironment@@QAE@_NABH1ABVCPenEnvironment@@ABVCDataTypeEnvironment@@ABVCLineExtEnvironment@@@Z
  0000a	64 a1 00 00 00
	00		 mov	 eax, DWORD PTR fs:0
  00010	50		 push	 eax
  00011	51		 push	 ecx
  00012	53		 push	 ebx
  00013	56		 push	 esi
  00014	57		 push	 edi
  00015	a1 00 00 00 00	 mov	 eax, DWORD PTR ___security_cookie
  0001a	33 c5		 xor	 eax, ebp
  0001c	50		 push	 eax
  0001d	8d 45 f4	 lea	 eax, DWORD PTR __$EHRec$[ebp]
  00020	64 a3 00 00 00
	00		 mov	 DWORD PTR fs:0, eax
  00026	8b d9		 mov	 ebx, ecx
  00028	89 5d f0	 mov	 DWORD PTR _this$[ebp], ebx

; 478  : 	m_bIsAutoPrice(bIsAutoPrice),

  0002b	8a 45 08	 mov	 al, BYTE PTR _bIsAutoPrice$[ebp]

; 679  : 	if(&environment == NULL)

  0002e	8b 4d 1c	 mov	 ecx, DWORD PTR _lineExt$[ebp]

; 478  : 	m_bIsAutoPrice(bIsAutoPrice),

  00031	88 03		 mov	 BYTE PTR [ebx], al

; 479  : 	m_nEquiDiv(nEquiDiv),

  00033	8b 45 0c	 mov	 eax, DWORD PTR _nEquiDiv$[ebp]
  00036	8b 00		 mov	 eax, DWORD PTR [eax]
  00038	89 43 04	 mov	 DWORD PTR [ebx+4], eax

; 480  : 	m_nPriceRangeDiv( nPriceRangeDiv),	// (2008/8/15 - Seung-Won, Bae) Add option for using price range.

  0003b	8b 45 10	 mov	 eax, DWORD PTR _nPriceRangeDiv$[ebp]
  0003e	8b 00		 mov	 eax, DWORD PTR [eax]
  00040	89 43 08	 mov	 DWORD PTR [ebx+8], eax

; 679  : 	if(&environment == NULL)

  00043	85 c9		 test	 ecx, ecx
  00045	74 0b		 je	 SHORT $LN4@CElementCo

; 680  : 	{
; 681  : 		return;
; 682  : 	}
; 683  : 
; 684  : 	m_nLeftExt = environment.GetLeftExt();

  00047	8b 01		 mov	 eax, DWORD PTR [ecx]
  00049	89 43 0c	 mov	 DWORD PTR [ebx+12], eax

; 685  : 	m_nRightExt = environment.GetRightExt();

  0004c	8b 41 04	 mov	 eax, DWORD PTR [ecx+4]
  0004f	89 43 10	 mov	 DWORD PTR [ebx+16], eax
$LN4@CElementCo:

; 481  : 	m_pen(pen),

  00052	8b 45 14	 mov	 eax, DWORD PTR _pen$[ebp]

; 482  : 	m_dataType(dataType),

  00055	8d 7b 20	 lea	 edi, DWORD PTR [ebx+32]
  00058	8b 75 18	 mov	 esi, DWORD PTR _dataType$[ebp]
  0005b	8d 4f 10	 lea	 ecx, DWORD PTR [edi+16]
  0005e	f3 0f 7e 00	 movq	 xmm0, QWORD PTR [eax]
  00062	66 0f d6 43 14	 movq	 QWORD PTR [ebx+20], xmm0
  00067	8b 40 08	 mov	 eax, DWORD PTR [eax+8]
  0006a	89 43 1c	 mov	 DWORD PTR [ebx+28], eax
  0006d	89 7d 08	 mov	 DWORD PTR _this$[ebp], edi
  00070	8b 06		 mov	 eax, DWORD PTR [esi]
  00072	89 07		 mov	 DWORD PTR [edi], eax
  00074	8d 46 10	 lea	 eax, DWORD PTR [esi+16]
  00077	f2 0f 10 46 08	 movsd	 xmm0, QWORD PTR [esi+8]
  0007c	50		 push	 eax
  0007d	f2 0f 11 47 08	 movsd	 QWORD PTR [edi+8], xmm0
  00082	ff 15 00 00 00
	00		 call	 DWORD PTR __imp_??0?$CStringT@DV?$StrTraitMFC_DLL@DV?$ChTraitsCRT@D@ATL@@@@@ATL@@QAE@ABV01@@Z
  00088	8d 46 14	 lea	 eax, DWORD PTR [esi+20]
  0008b	c7 45 fc 00 00
	00 00		 mov	 DWORD PTR __$EHRec$[ebp+8], 0
  00092	50		 push	 eax
  00093	8d 4f 14	 lea	 ecx, DWORD PTR [edi+20]
  00096	ff 15 00 00 00
	00		 call	 DWORD PTR __imp_??0?$CStringT@DV?$StrTraitMFC_DLL@DV?$ChTraitsCRT@D@ATL@@@@@ATL@@QAE@ABV01@@Z
  0009c	8d 46 18	 lea	 eax, DWORD PTR [esi+24]
  0009f	c6 45 fc 01	 mov	 BYTE PTR __$EHRec$[ebp+8], 1
  000a3	50		 push	 eax
  000a4	8d 4f 18	 lea	 ecx, DWORD PTR [edi+24]
  000a7	ff 15 00 00 00
	00		 call	 DWORD PTR __imp_??0?$CStringT@DV?$StrTraitMFC_DLL@DV?$ChTraitsCRT@D@ATL@@@@@ATL@@QAE@ABV01@@Z
  000ad	8b 46 1c	 mov	 eax, DWORD PTR [esi+28]
  000b0	89 47 1c	 mov	 DWORD PTR [edi+28], eax
  000b3	8b 46 20	 mov	 eax, DWORD PTR [esi+32]
  000b6	89 47 20	 mov	 DWORD PTR [edi+32], eax

; 485  : }

  000b9	8b c3		 mov	 eax, ebx
  000bb	8b 4d f4	 mov	 ecx, DWORD PTR __$EHRec$[ebp]
  000be	64 89 0d 00 00
	00 00		 mov	 DWORD PTR fs:0, ecx
  000c5	59		 pop	 ecx
  000c6	5f		 pop	 edi
  000c7	5e		 pop	 esi
  000c8	5b		 pop	 ebx
  000c9	8b e5		 mov	 esp, ebp
  000cb	5d		 pop	 ebp
  000cc	c2 18 00	 ret	 24			; 00000018H
_TEXT	ENDS
;	COMDAT text$x
text$x	SEGMENT
__unwindfunclet$??0CElementCommonEnvironment@@QAE@_NABH1ABVCPenEnvironment@@ABVCDataTypeEnvironment@@ABVCLineExtEnvironment@@@Z$1:
  00000	8b 4d 08	 mov	 ecx, DWORD PTR _this$[ebp]
  00003	83 c1 10	 add	 ecx, 16			; 00000010H
  00006	ff 25 00 00 00
	00		 jmp	 DWORD PTR __imp_??1?$CStringT@DV?$StrTraitMFC_DLL@DV?$ChTraitsCRT@D@ATL@@@@@ATL@@QAE@XZ
__unwindfunclet$??0CElementCommonEnvironment@@QAE@_NABH1ABVCPenEnvironment@@ABVCDataTypeEnvironment@@ABVCLineExtEnvironment@@@Z$2:
  0000c	8b 4d 08	 mov	 ecx, DWORD PTR _this$[ebp]
  0000f	83 c1 14	 add	 ecx, 20			; 00000014H
  00012	ff 25 00 00 00
	00		 jmp	 DWORD PTR __imp_??1?$CStringT@DV?$StrTraitMFC_DLL@DV?$ChTraitsCRT@D@ATL@@@@@ATL@@QAE@XZ
  00018	cc		 int	 3
  00019	cc		 int	 3
  0001a	cc		 int	 3
  0001b	cc		 int	 3
  0001c	cc		 int	 3
__ehhandler$??0CElementCommonEnvironment@@QAE@_NABH1ABVCPenEnvironment@@ABVCDataTypeEnvironment@@ABVCLineExtEnvironment@@@Z:
  0001d	90		 npad	 1
  0001e	90		 npad	 1
  0001f	8b 54 24 08	 mov	 edx, DWORD PTR [esp+8]
  00023	8d 42 0c	 lea	 eax, DWORD PTR [edx+12]
  00026	8b 4a ec	 mov	 ecx, DWORD PTR [edx-20]
  00029	33 c8		 xor	 ecx, eax
  0002b	e8 00 00 00 00	 call	 @__security_check_cookie@4
  00030	b8 00 00 00 00	 mov	 eax, OFFSET __ehfuncinfo$??0CElementCommonEnvironment@@QAE@_NABH1ABVCPenEnvironment@@ABVCDataTypeEnvironment@@ABVCLineExtEnvironment@@@Z
  00035	e9 00 00 00 00	 jmp	 ___CxxFrameHandler3
text$x	ENDS
??0CElementCommonEnvironment@@QAE@_NABH1ABVCPenEnvironment@@ABVCDataTypeEnvironment@@ABVCLineExtEnvironment@@@Z ENDP ; CElementCommonEnvironment::CElementCommonEnvironment
; Function compile flags: /Ogtp
; File D:\git\src\IBK\IBK_DRFN\ProjSrc\SrcChartEx\ChartAddIn\ChartAnalysisToolAddIn\Include_Analysis\ElementEnvironment.cpp
;	COMDAT ??0CElementCommonEnvironment@@QAE@XZ
_TEXT	SEGMENT
_this$ = -4						; size = 4
??0CElementCommonEnvironment@@QAE@XZ PROC		; CElementCommonEnvironment::CElementCommonEnvironment, COMDAT
; _this$ = ecx

; 468  : {

  00000	55		 push	 ebp
  00001	8b ec		 mov	 ebp, esp
  00003	51		 push	 ecx

; 236  : 	m_dVert(1.0)

  00004	f2 0f 10 05 00
	00 00 00	 movsd	 xmm0, QWORD PTR __real@3ff0000000000000

; 468  : {

  0000c	56		 push	 esi
  0000d	8b f1		 mov	 esi, ecx
  0000f	89 75 fc	 mov	 DWORD PTR _this$[ebp], esi

; 243  : }
; 244  : 
; 245  : CDataTypeEnvironment::CDataTypeEnvironment(const CAnalysis::COORDINATETYPE eCoordinateType, const double& dVert, const CString& strHorz, HWND p_hOcxWnd, CChartInfo::CHART_MODE p_eChartMode):
; 246  : 	m_eCoordinateType(eCoordinateType),
; 247  : 	m_dVert(dVert),
; 248  : 	m_strHorz(strHorz)
; 249  : {
; 250  : 	// (2008/5/14 - Seung-Won, Bae) for Multi-Language of Special Date or Price Unit Text
; 251  : 	m_hOcxWnd = p_hOcxWnd;
; 252  : 
; 253  : 	// (2009/9/15 - Seung-Won, Bae) Do not support special time for WorldOn.
; 254  : 	m_eChartMode = p_eChartMode;
; 255  : }
; 256  : 
; 257  : // 2008.08.20   
; 258  : CDataTypeEnvironment::CDataTypeEnvironment(const CAnalysis::COORDINATETYPE eCoordinateType, const double& dVert, const CString& strHorz, const CString& strExtData, HWND p_hOcxWnd, CChartInfo::CHART_MODE p_eChartMode):
; 259  : 	m_eCoordinateType(eCoordinateType),
; 260  : 	m_dVert(dVert),
; 261  : 	m_strHorz(strHorz),
; 262  : 	m_strExtData(strExtData)
; 263  : {
; 264  : 	// (2008/5/14 - Seung-Won, Bae) for Multi-Language of Special Date or Price Unit Text
; 265  : 	m_hOcxWnd = p_hOcxWnd;
; 266  : 
; 267  : 	// (2009/9/15 - Seung-Won, Bae) Do not support special time for WorldOn.
; 268  : 	m_eChartMode = p_eChartMode;
; 269  : }
; 270  : // 2008.10.15 by LYH >> 8,32bit
; 271  : CDataTypeEnvironment::CDataTypeEnvironment(const CAnalysis::COORDINATETYPE eCoordinateType, const double& dVert, const CString& strHorz, const CString& strExtData, const CString& strVert, HWND p_hOcxWnd, CChartInfo::CHART_MODE p_eChartMode):
; 272  : 	m_eCoordinateType(eCoordinateType),
; 273  : 	m_dVert(dVert),
; 274  : 	m_strHorz(strHorz),
; 275  : 	m_strExtData(strExtData),
; 276  : 	m_strVert(strVert)
; 277  : {
; 278  : 	// (2008/5/14 - Seung-Won, Bae) for Multi-Language of Special Date or Price Unit Text
; 279  : 	m_hOcxWnd = p_hOcxWnd;
; 280  : 
; 281  : 	// (2009/9/15 - Seung-Won, Bae) Do not support special time for WorldOn.
; 282  : 	m_eChartMode = p_eChartMode;
; 283  : }
; 284  : // 2008.10.15 by LYH <<
; 285  : 
; 286  : CDataTypeEnvironment::CDataTypeEnvironment(const CDataTypeEnvironment* pEnvironment)
; 287  : {
; 288  : 	if(pEnvironment == NULL)
; 289  : 		return;
; 290  : 
; 291  : 	m_eCoordinateType = pEnvironment->GetCoordinateType();
; 292  : 	m_dVert = pEnvironment->GetVert();
; 293  : 	m_strHorz = pEnvironment->GetHorz();
; 294  : 	m_strExtData = pEnvironment->GetExtData();	// 2008.08.20   
; 295  : 	m_strVert = pEnvironment->GetStrVert();		// 2008.10.15 by LYH >> 8,32bit
; 296  : 
; 297  : 	// (2008/5/14 - Seung-Won, Bae) for Multi-Language of Special Date or Price Unit Text
; 298  : 	m_hOcxWnd = pEnvironment->GetOcxHwnd();
; 299  : 
; 300  : 	// (2009/9/15 - Seung-Won, Bae) Do not support special time for WorldOn.
; 301  : 	m_eChartMode = pEnvironment->GetChartMode();
; 302  : }
; 303  : 
; 304  : // public =====================================================================
; 305  : void CDataTypeEnvironment::Reset_AbsolutePoint()
; 306  : {
; 307  : 	m_eCoordinateType = CAnalysis::ABSOLUTE_POINT;
; 308  : 	m_dVert = 1.0;
; 309  : 	m_strHorz = "";
; 310  : }
; 311  : 
; 312  : void CDataTypeEnvironment::SetCoordinateType(const CAnalysis::COORDINATETYPE eCoordinateType)
; 313  : {
; 314  : 	m_eCoordinateType = eCoordinateType;
; 315  : }
; 316  : 
; 317  : void CDataTypeEnvironment::SetVert(const double& dDataType)
; 318  : {
; 319  : 	m_dVert = dDataType;
; 320  : }
; 321  : 
; 322  : void CDataTypeEnvironment::SetHorz(const CString& strDataType)
; 323  : {
; 324  : 	m_strHorz = strDataType;
; 325  : }
; 326  : 
; 327  : // 2008.08.20   
; 328  : void CDataTypeEnvironment::SetExtData(const CString& strExtData)
; 329  : {
; 330  : 	m_strExtData = strExtData;
; 331  : }
; 332  : 
; 333  : // 2008.10.15 by LYH >> 8,32bit
; 334  : void CDataTypeEnvironment::SetStrVert(const CString& strDataType)
; 335  : {
; 336  : 	m_strVert = strDataType;
; 337  : }
; 338  : // 2008.10.15 by LYH <<
; 339  : 
; 340  : // ----------------------------------------------------------------------------
; 341  : bool CDataTypeEnvironment::IsRelativePointType() const
; 342  : {
; 343  : 	return (m_eCoordinateType == CAnalysis::RELATIVE_POINT);
; 344  : }
; 345  : 
; 346  : bool CDataTypeEnvironment::IsDateType() const
; 347  : {
; 348  : 	if(m_strHorz.IsEmpty())
; 349  : 		return false;
; 350  : 
; 351  : 	return (m_strHorz.Find("1") < 0);
; 352  : }
; 353  : 
; 354  : CAnalysis::COORDINATETYPE CDataTypeEnvironment::GetCoordinateType() const
; 355  : {
; 356  : 	return m_eCoordinateType;
; 357  : }
; 358  : 
; 359  : double CDataTypeEnvironment::GetVert() const
; 360  : {
; 361  : 	return m_dVert;
; 362  : }
; 363  : 
; 364  : CString CDataTypeEnvironment::GetHorz() const
; 365  : {
; 366  : 	return m_strHorz;
; 367  : }
; 368  : 
; 369  : // 2008.08.20   
; 370  : CString CDataTypeEnvironment::GetExtData() const
; 371  : {
; 372  : 	return m_strExtData;
; 373  : }
; 374  : 
; 375  : // 2008.10.15 by LYH >> 8,32bit
; 376  : CString CDataTypeEnvironment::GetStrVert() const
; 377  : {
; 378  : 	return m_strVert;
; 379  : }
; 380  : // 2008.10.15 by LYH <<
; 381  : 
; 382  : // ----------------------------------------------------------------------------
; 383  : CString CDataTypeEnvironment::GetDateCompart() const
; 384  : {
; 385  : 	if(m_strHorz.GetLength() > 0)
; 386  : 		return "/";
; 387  : 	return "";
; 388  : }
; 389  : 
; 390  : CString CDataTypeEnvironment::GetTimeCompart() const
; 391  : {
; 392  : 	if(m_strHorz.GetLength() > 0)
; 393  : 		return ":";
; 394  : 	return "";
; 395  : }
; 396  : 
; 397  : // <DataType>
; 398  : // <Coordinate>0<\\Coordinate>
; 399  : // <Vert>1<\\Vert>
; 400  : // <Horz>YYYYMMDD<\\Horz>
; 401  : // <ExtData>2360,3820<\\ExtData>
; 402  : // <\\DataType>
; 403  : CString CDataTypeEnvironment::GetSavedData() const
; 404  : {
; 405  : 	CString strSaved("<DataType>\r\n");
; 406  : 	// 2008.08.20   		GetSavedExtData()
; 407  : 	// 2008.10.15 by LYH >> 8,32bit		GetSavedStrVert() 
; 408  : 	strSaved.Format("<DataType>\r\n%s%s%s%s%s<\\DataType>\r\n", 
; 409  : 		GetSavedCoordinateType(), GetSavedVert(), GetSavedHorz(), GetSavedExtData(), GetSavedStrVert());
; 410  : 	return strSaved;
; 411  : }
; 412  : 
; 413  : 
; 414  : // private ====================================================================
; 415  : CString CDataTypeEnvironment::GetSavedCoordinateType() const
; 416  : {
; 417  : 	return ("<Coordinate>" + CDataConversion::IntToString((int)m_eCoordinateType) + "<\\Coordinate>\r\n");
; 418  : }
; 419  : 
; 420  : CString CDataTypeEnvironment::GetSavedVert() const
; 421  : {
; 422  : 	return ("<Vert>" + CDataConversion::DoubleToString(m_dVert) + "<\\Vert>\r\n");
; 423  : }
; 424  : 
; 425  : CString CDataTypeEnvironment::GetSavedHorz() const
; 426  : {
; 427  : 	return ("<Horz>" + m_strHorz + "<\\Horz>\r\n");
; 428  : }
; 429  : 
; 430  : // 2008.08.20   
; 431  : CString CDataTypeEnvironment::GetSavedExtData() const
; 432  : {
; 433  : 	return ("<ExtData>" + m_strExtData + "<\\ExtData>\r\n");
; 434  : }
; 435  : 
; 436  : // 2008.10.15 by LYH >> 8,32bit
; 437  : CString CDataTypeEnvironment::GetSavedStrVert() const
; 438  : {
; 439  : 	return ("<StrVert>" + m_strVert + "<\\StrVert>\r\n");
; 440  : }
; 441  : // 2008.10.15 by LYH <<
; 442  : 
; 443  : ///////////////////////////////////////////////////////////////////////////////
; 444  : // class CElementCommonEnvironment
; 445  : 
; 446  : CElementCommonEnvironment& CElementCommonEnvironment::operator=(const CElementCommonEnvironment& environment)
; 447  : {
; 448  : 	if(this == &environment)
; 449  : 		return *this;
; 450  : 
; 451  : 	m_bIsAutoPrice = environment.IsAutoPrice();
; 452  : 	m_pen = environment.GetPen();
; 453  : 	m_dataType = environment.GetDataType();
; 454  : 
; 455  : 	m_lineExt			= environment.GetLineExt();
; 456  : 	m_nEquiDiv			= environment.GetEquiDiv();
; 457  : 	m_nPriceRangeDiv	= environment.GetPriceRangeDiv();	// (2008/8/15 - Seung-Won, Bae) Add option for using price range.
; 458  : 	return *this;
; 459  : }
; 460  : 
; 461  : 
; 462  : // public =====================================================================
; 463  : CElementCommonEnvironment::CElementCommonEnvironment():
; 464  : 	m_bIsAutoPrice(false),

  00012	c6 06 00	 mov	 BYTE PTR [esi], 0

; 237  : {

  00015	8d 4e 30	 lea	 ecx, DWORD PTR [esi+48]

; 465  : 	m_lineExt(0,0),
; 466  : 	m_nEquiDiv(0),

  00018	c7 46 04 00 00
	00 00		 mov	 DWORD PTR [esi+4], 0

; 467  : 	m_nPriceRangeDiv(0)		// (2008/8/15 - Seung-Won, Bae) Add option for using price range.

  0001f	c7 46 08 00 00
	00 00		 mov	 DWORD PTR [esi+8], 0

; 672  : 	m_nLeftExt(nLeft),

  00026	c7 46 0c 00 00
	00 00		 mov	 DWORD PTR [esi+12], 0

; 673  : 	m_nRightExt(nRight)

  0002d	c7 46 10 00 00
	00 00		 mov	 DWORD PTR [esi+16], 0

; 87   : 	m_color(RGB(0, 0, 0)),

  00034	c7 46 14 00 00
	00 00		 mov	 DWORD PTR [esi+20], 0

; 88   : 	m_nWidth(1),

  0003b	c7 46 18 01 00
	00 00		 mov	 DWORD PTR [esi+24], 1

; 89   : 	m_eStyle(CToolEnumData::Solid)

  00042	c7 46 1c 00 00
	00 00		 mov	 DWORD PTR [esi+28], 0

; 235  : 	m_eCoordinateType(CAnalysis::RELATIVE_POINT),

  00049	c7 46 20 00 00
	00 00		 mov	 DWORD PTR [esi+32], 0

; 236  : 	m_dVert(1.0)

  00050	f2 0f 11 46 28	 movsd	 QWORD PTR [esi+40], xmm0

; 237  : {

  00055	ff 15 00 00 00
	00		 call	 DWORD PTR __imp_??0?$CStringT@DV?$StrTraitMFC_DLL@DV?$ChTraitsCRT@D@ATL@@@@@ATL@@QAE@XZ
  0005b	8d 4e 34	 lea	 ecx, DWORD PTR [esi+52]
  0005e	ff 15 00 00 00
	00		 call	 DWORD PTR __imp_??0?$CStringT@DV?$StrTraitMFC_DLL@DV?$ChTraitsCRT@D@ATL@@@@@ATL@@QAE@XZ
  00064	8d 4e 38	 lea	 ecx, DWORD PTR [esi+56]
  00067	ff 15 00 00 00
	00		 call	 DWORD PTR __imp_??0?$CStringT@DV?$StrTraitMFC_DLL@DV?$ChTraitsCRT@D@ATL@@@@@ATL@@QAE@XZ

; 238  : 	// (2008/5/14 - Seung-Won, Bae) for Multi-Language of Special Date or Price Unit Text
; 239  : 	m_hOcxWnd = NULL;

  0006d	c7 46 3c 00 00
	00 00		 mov	 DWORD PTR [esi+60], 0

; 469  : }

  00074	8b c6		 mov	 eax, esi

; 242  : 	m_eChartMode = CChartInfo::HTS;

  00076	c7 46 40 01 00
	00 00		 mov	 DWORD PTR [esi+64], 1

; 469  : }

  0007d	5e		 pop	 esi
  0007e	8b e5		 mov	 esp, ebp
  00080	5d		 pop	 ebp
  00081	c3		 ret	 0
??0CElementCommonEnvironment@@QAE@XZ ENDP		; CElementCommonEnvironment::CElementCommonEnvironment
_TEXT	ENDS
; Function compile flags: /Ogtp
; File D:\git\src\IBK\IBK_DRFN\ProjSrc\SrcChartEx\ChartAddIn\ChartAnalysisToolAddIn\Include_Analysis\ElementEnvironment.cpp
;	COMDAT ??4CElementCommonEnvironment@@QAEAAV0@ABV0@@Z
_TEXT	SEGMENT
$T2 = -72						; size = 40
$T3 = -32						; size = 12
$T4 = -20						; size = 8
__$EHRec$ = -12						; size = 12
$T5 = 8							; size = 4
$T6 = 8							; size = 4
$T7 = 8							; size = 4
_environment$ = 8					; size = 4
??4CElementCommonEnvironment@@QAEAAV0@ABV0@@Z PROC	; CElementCommonEnvironment::operator=, COMDAT
; _this$ = ecx

; 447  : {

  00000	55		 push	 ebp
  00001	8b ec		 mov	 ebp, esp
  00003	6a ff		 push	 -1
  00005	68 00 00 00 00	 push	 __ehhandler$??4CElementCommonEnvironment@@QAEAAV0@ABV0@@Z
  0000a	64 a1 00 00 00
	00		 mov	 eax, DWORD PTR fs:0
  00010	50		 push	 eax
  00011	83 ec 3c	 sub	 esp, 60			; 0000003cH
  00014	53		 push	 ebx
  00015	56		 push	 esi
  00016	57		 push	 edi
  00017	a1 00 00 00 00	 mov	 eax, DWORD PTR ___security_cookie
  0001c	33 c5		 xor	 eax, ebp
  0001e	50		 push	 eax
  0001f	8d 45 f4	 lea	 eax, DWORD PTR __$EHRec$[ebp]
  00022	64 a3 00 00 00
	00		 mov	 DWORD PTR fs:0, eax
  00028	8b f9		 mov	 edi, ecx

; 448  : 	if(this == &environment)

  0002a	8b 75 08	 mov	 esi, DWORD PTR _environment$[ebp]
  0002d	3b fe		 cmp	 edi, esi
  0002f	0f 84 6e 01 00
	00		 je	 $LN50@operator

; 449  : 		return *this;
; 450  : 
; 451  : 	m_bIsAutoPrice = environment.IsAutoPrice();

  00035	8a 06		 mov	 al, BYTE PTR [esi]

; 452  : 	m_pen = environment.GetPen();

  00037	8d 4f 14	 lea	 ecx, DWORD PTR [edi+20]
  0003a	88 07		 mov	 BYTE PTR [edi], al

; 76   : 	if(this == &environment)

  0003c	8d 45 e0	 lea	 eax, DWORD PTR $T3[ebp]

; 551  : 	return m_pen;

  0003f	f3 0f 7e 46 14	 movq	 xmm0, QWORD PTR [esi+20]
  00044	8b 56 1c	 mov	 edx, DWORD PTR [esi+28]
  00047	66 0f d6 45 e0	 movq	 QWORD PTR $T3[ebp], xmm0

; 76   : 	if(this == &environment)

  0004c	3b c8		 cmp	 ecx, eax
  0004e	74 0e		 je	 SHORT $LN7@operator

; 77   : 		return *this;
; 78   : 
; 79   : 	m_color = environment.GetColor();

  00050	8b 45 e0	 mov	 eax, DWORD PTR $T3[ebp]
  00053	89 01		 mov	 DWORD PTR [ecx], eax

; 80   : 	m_nWidth = environment.GetWidth();

  00055	8b 45 e4	 mov	 eax, DWORD PTR $T3[ebp+4]
  00058	89 41 04	 mov	 DWORD PTR [ecx+4], eax

; 81   : 	m_eStyle = environment.GetStyle();

  0005b	89 51 08	 mov	 DWORD PTR [ecx+8], edx
$LN7@operator:
  0005e	8b 46 20	 mov	 eax, DWORD PTR [esi+32]
  00061	8d 4d c8	 lea	 ecx, DWORD PTR $T2[ebp+16]
  00064	f2 0f 10 46 28	 movsd	 xmm0, QWORD PTR [esi+40]
  00069	89 45 b8	 mov	 DWORD PTR $T2[ebp], eax
  0006c	8d 46 30	 lea	 eax, DWORD PTR [esi+48]
  0006f	50		 push	 eax
  00070	f2 0f 11 45 c0	 movsd	 QWORD PTR $T2[ebp+8], xmm0
  00075	ff 15 00 00 00
	00		 call	 DWORD PTR __imp_??0?$CStringT@DV?$StrTraitMFC_DLL@DV?$ChTraitsCRT@D@ATL@@@@@ATL@@QAE@ABV01@@Z
  0007b	8d 46 34	 lea	 eax, DWORD PTR [esi+52]
  0007e	c7 45 fc 00 00
	00 00		 mov	 DWORD PTR __$EHRec$[ebp+8], 0
  00085	50		 push	 eax
  00086	8d 4d cc	 lea	 ecx, DWORD PTR $T2[ebp+20]
  00089	ff 15 00 00 00
	00		 call	 DWORD PTR __imp_??0?$CStringT@DV?$StrTraitMFC_DLL@DV?$ChTraitsCRT@D@ATL@@@@@ATL@@QAE@ABV01@@Z
  0008f	8d 46 38	 lea	 eax, DWORD PTR [esi+56]
  00092	c6 45 fc 01	 mov	 BYTE PTR __$EHRec$[ebp+8], 1
  00096	50		 push	 eax
  00097	8d 4d d0	 lea	 ecx, DWORD PTR $T2[ebp+24]
  0009a	ff 15 00 00 00
	00		 call	 DWORD PTR __imp_??0?$CStringT@DV?$StrTraitMFC_DLL@DV?$ChTraitsCRT@D@ATL@@@@@ATL@@QAE@ABV01@@Z
  000a0	8b 46 3c	 mov	 eax, DWORD PTR [esi+60]
  000a3	89 45 d4	 mov	 DWORD PTR $T2[ebp+28], eax
  000a6	8b 46 40	 mov	 eax, DWORD PTR [esi+64]
  000a9	89 45 d8	 mov	 DWORD PTR $T2[ebp+32], eax

; 453  : 	m_dataType = environment.GetDataType();

  000ac	8d 5f 20	 lea	 ebx, DWORD PTR [edi+32]
  000af	c7 45 fc 02 00
	00 00		 mov	 DWORD PTR __$EHRec$[ebp+8], 2

; 213  : 	if(this == &environment)

  000b6	8d 45 b8	 lea	 eax, DWORD PTR $T2[ebp]
  000b9	3b d8		 cmp	 ebx, eax
  000bb	0f 84 98 00 00
	00		 je	 $LN19@operator

; 214  : 		return *this;
; 215  : 
; 216  : 	m_eCoordinateType = environment.GetCoordinateType();

  000c1	8b 45 b8	 mov	 eax, DWORD PTR $T2[ebp]

; 366  : 	return m_strHorz;

  000c4	8d 4d 08	 lea	 ecx, DWORD PTR $T7[ebp]

; 217  : 	m_dVert = environment.GetVert();

  000c7	f2 0f 10 45 c0	 movsd	 xmm0, QWORD PTR $T2[ebp+8]
  000cc	89 03		 mov	 DWORD PTR [ebx], eax

; 366  : 	return m_strHorz;

  000ce	8d 45 c8	 lea	 eax, DWORD PTR $T2[ebp+16]
  000d1	50		 push	 eax

; 217  : 	m_dVert = environment.GetVert();

  000d2	f2 0f 11 43 08	 movsd	 QWORD PTR [ebx+8], xmm0

; 366  : 	return m_strHorz;

  000d7	ff 15 00 00 00
	00		 call	 DWORD PTR __imp_??0?$CStringT@DV?$StrTraitMFC_DLL@DV?$ChTraitsCRT@D@ATL@@@@@ATL@@QAE@ABV01@@Z

; 218  : 	m_strHorz = environment.GetHorz();

  000dd	8d 45 08	 lea	 eax, DWORD PTR $T7[ebp]
  000e0	c6 45 fc 03	 mov	 BYTE PTR __$EHRec$[ebp+8], 3
  000e4	50		 push	 eax
  000e5	8d 4b 10	 lea	 ecx, DWORD PTR [ebx+16]
  000e8	ff 15 00 00 00
	00		 call	 DWORD PTR __imp_??4?$CStringT@DV?$StrTraitMFC_DLL@DV?$ChTraitsCRT@D@ATL@@@@@ATL@@QAEAAV01@ABV01@@Z
  000ee	8d 4d 08	 lea	 ecx, DWORD PTR $T7[ebp]
  000f1	c6 45 fc 02	 mov	 BYTE PTR __$EHRec$[ebp+8], 2
  000f5	ff 15 00 00 00
	00		 call	 DWORD PTR __imp_??1?$CStringT@DV?$StrTraitMFC_DLL@DV?$ChTraitsCRT@D@ATL@@@@@ATL@@QAE@XZ

; 372  : 	return m_strExtData;

  000fb	8d 45 cc	 lea	 eax, DWORD PTR $T2[ebp+20]
  000fe	50		 push	 eax
  000ff	8d 4d 08	 lea	 ecx, DWORD PTR $T6[ebp]
  00102	ff 15 00 00 00
	00		 call	 DWORD PTR __imp_??0?$CStringT@DV?$StrTraitMFC_DLL@DV?$ChTraitsCRT@D@ATL@@@@@ATL@@QAE@ABV01@@Z

; 219  : 	m_strExtData = environment.GetExtData();	// 2008.08.20   

  00108	8d 45 08	 lea	 eax, DWORD PTR $T6[ebp]
  0010b	c6 45 fc 04	 mov	 BYTE PTR __$EHRec$[ebp+8], 4
  0010f	50		 push	 eax
  00110	8d 4b 14	 lea	 ecx, DWORD PTR [ebx+20]
  00113	ff 15 00 00 00
	00		 call	 DWORD PTR __imp_??4?$CStringT@DV?$StrTraitMFC_DLL@DV?$ChTraitsCRT@D@ATL@@@@@ATL@@QAEAAV01@ABV01@@Z
  00119	8d 4d 08	 lea	 ecx, DWORD PTR $T6[ebp]
  0011c	c6 45 fc 02	 mov	 BYTE PTR __$EHRec$[ebp+8], 2
  00120	ff 15 00 00 00
	00		 call	 DWORD PTR __imp_??1?$CStringT@DV?$StrTraitMFC_DLL@DV?$ChTraitsCRT@D@ATL@@@@@ATL@@QAE@XZ

; 378  : 	return m_strVert;

  00126	8d 45 d0	 lea	 eax, DWORD PTR $T2[ebp+24]
  00129	50		 push	 eax
  0012a	8d 4d 08	 lea	 ecx, DWORD PTR $T5[ebp]
  0012d	ff 15 00 00 00
	00		 call	 DWORD PTR __imp_??0?$CStringT@DV?$StrTraitMFC_DLL@DV?$ChTraitsCRT@D@ATL@@@@@ATL@@QAE@ABV01@@Z

; 220  : 	m_strVert = environment.GetStrVert();		// 2008.10.15 by LYH >> 8,32bit

  00133	8d 45 08	 lea	 eax, DWORD PTR $T5[ebp]
  00136	c6 45 fc 05	 mov	 BYTE PTR __$EHRec$[ebp+8], 5
  0013a	50		 push	 eax
  0013b	8d 4b 18	 lea	 ecx, DWORD PTR [ebx+24]
  0013e	ff 15 00 00 00
	00		 call	 DWORD PTR __imp_??4?$CStringT@DV?$StrTraitMFC_DLL@DV?$ChTraitsCRT@D@ATL@@@@@ATL@@QAEAAV01@ABV01@@Z
  00144	8d 4d 08	 lea	 ecx, DWORD PTR $T5[ebp]
  00147	ff 15 00 00 00
	00		 call	 DWORD PTR __imp_??1?$CStringT@DV?$StrTraitMFC_DLL@DV?$ChTraitsCRT@D@ATL@@@@@ATL@@QAE@XZ

; 221  : 	
; 222  : 	// (2008/5/14 - Seung-Won, Bae) for Multi-Language of Special Date or Price Unit Text
; 223  : 	m_hOcxWnd = environment.GetOcxHwnd();

  0014d	8b 45 d4	 mov	 eax, DWORD PTR $T2[ebp+28]
  00150	89 43 1c	 mov	 DWORD PTR [ebx+28], eax

; 224  : 
; 225  : 	// (2009/9/15 - Seung-Won, Bae) Do not support special time for WorldOn.
; 226  : 	m_eChartMode = environment.GetChartMode();

  00153	8b 45 d8	 mov	 eax, DWORD PTR $T2[ebp+32]
  00156	89 43 20	 mov	 DWORD PTR [ebx+32], eax
$LN19@operator:
  00159	8d 4d d0	 lea	 ecx, DWORD PTR $T2[ebp+24]
  0015c	ff 15 00 00 00
	00		 call	 DWORD PTR __imp_??1?$CStringT@DV?$StrTraitMFC_DLL@DV?$ChTraitsCRT@D@ATL@@@@@ATL@@QAE@XZ
  00162	8d 4d cc	 lea	 ecx, DWORD PTR $T2[ebp+20]
  00165	ff 15 00 00 00
	00		 call	 DWORD PTR __imp_??1?$CStringT@DV?$StrTraitMFC_DLL@DV?$ChTraitsCRT@D@ATL@@@@@ATL@@QAE@XZ
  0016b	8d 4d c8	 lea	 ecx, DWORD PTR $T2[ebp+16]
  0016e	ff 15 00 00 00
	00		 call	 DWORD PTR __imp_??1?$CStringT@DV?$StrTraitMFC_DLL@DV?$ChTraitsCRT@D@ATL@@@@@ATL@@QAE@XZ

; 561  : 	return m_lineExt;

  00174	8d 46 0c	 lea	 eax, DWORD PTR [esi+12]

; 679  : 	if(&environment == NULL)

  00177	85 c0		 test	 eax, eax
  00179	74 07		 je	 SHORT $LN48@operator

; 680  : 	{
; 681  : 		return;
; 682  : 	}
; 683  : 
; 684  : 	m_nLeftExt = environment.GetLeftExt();

  0017b	8b 08		 mov	 ecx, DWORD PTR [eax]

; 685  : 	m_nRightExt = environment.GetRightExt();

  0017d	8b 50 04	 mov	 edx, DWORD PTR [eax+4]
  00180	eb 06		 jmp	 SHORT $LN42@operator
$LN48@operator:

; 662  : 	return *this;
; 663  : }
; 664  : 
; 665  : CLineExtEnvironment::CLineExtEnvironment():
; 666  : 	m_nLeftExt(-1),
; 667  : 	m_nRightExt(-1)
; 668  : {
; 669  : }
; 670  : 
; 671  : CLineExtEnvironment::CLineExtEnvironment(const int& nLeft,const int& nRight):
; 672  : 	m_nLeftExt(nLeft),
; 673  : 	m_nRightExt(nRight)
; 674  : {
; 675  : }
; 676  : 
; 677  : CLineExtEnvironment::CLineExtEnvironment(const CLineExtEnvironment& environment)
; 678  : {
; 679  : 	if(&environment == NULL)

  00182	8b 55 f0	 mov	 edx, DWORD PTR $T4[ebp+4]
  00185	8b 4d ec	 mov	 ecx, DWORD PTR $T4[ebp]
$LN42@operator:

; 454  : 
; 455  : 	m_lineExt			= environment.GetLineExt();

  00188	8d 47 0c	 lea	 eax, DWORD PTR [edi+12]

; 657  : 	if(this == &environment)

  0018b	8d 5d ec	 lea	 ebx, DWORD PTR $T4[ebp]
  0018e	3b c3		 cmp	 eax, ebx
  00190	74 05		 je	 SHORT $LN45@operator

; 658  : 		return *this;
; 659  : 
; 660  : 	m_nLeftExt = environment.GetLeftExt();

  00192	89 08		 mov	 DWORD PTR [eax], ecx

; 661  : 	m_nRightExt = environment.GetRightExt();

  00194	89 50 04	 mov	 DWORD PTR [eax+4], edx
$LN45@operator:

; 456  : 	m_nEquiDiv			= environment.GetEquiDiv();

  00197	8b 46 04	 mov	 eax, DWORD PTR [esi+4]
  0019a	89 47 04	 mov	 DWORD PTR [edi+4], eax

; 457  : 	m_nPriceRangeDiv	= environment.GetPriceRangeDiv();	// (2008/8/15 - Seung-Won, Bae) Add option for using price range.

  0019d	8b 46 08	 mov	 eax, DWORD PTR [esi+8]
  001a0	89 47 08	 mov	 DWORD PTR [edi+8], eax
$LN50@operator:

; 458  : 	return *this;
; 459  : }

  001a3	8b c7		 mov	 eax, edi
  001a5	8b 4d f4	 mov	 ecx, DWORD PTR __$EHRec$[ebp]
  001a8	64 89 0d 00 00
	00 00		 mov	 DWORD PTR fs:0, ecx
  001af	59		 pop	 ecx
  001b0	5f		 pop	 edi
  001b1	5e		 pop	 esi
  001b2	5b		 pop	 ebx
  001b3	8b e5		 mov	 esp, ebp
  001b5	5d		 pop	 ebp
  001b6	c2 04 00	 ret	 4
_TEXT	ENDS
;	COMDAT text$x
text$x	SEGMENT
__unwindfunclet$??4CElementCommonEnvironment@@QAEAAV0@ABV0@@Z$2:
  00000	8d 4d c8	 lea	 ecx, DWORD PTR $T2[ebp+16]
  00003	ff 25 00 00 00
	00		 jmp	 DWORD PTR __imp_??1?$CStringT@DV?$StrTraitMFC_DLL@DV?$ChTraitsCRT@D@ATL@@@@@ATL@@QAE@XZ
__unwindfunclet$??4CElementCommonEnvironment@@QAEAAV0@ABV0@@Z$3:
  00009	8d 4d cc	 lea	 ecx, DWORD PTR $T2[ebp+20]
  0000c	ff 25 00 00 00
	00		 jmp	 DWORD PTR __imp_??1?$CStringT@DV?$StrTraitMFC_DLL@DV?$ChTraitsCRT@D@ATL@@@@@ATL@@QAE@XZ
__unwindfunclet$??4CElementCommonEnvironment@@QAEAAV0@ABV0@@Z$0:
  00012	8d 4d b8	 lea	 ecx, DWORD PTR $T2[ebp]
  00015	e9 00 00 00 00	 jmp	 ??1CDataTypeEnvironment@@QAE@XZ
__unwindfunclet$??4CElementCommonEnvironment@@QAEAAV0@ABV0@@Z$5:
  0001a	8d 4d 08	 lea	 ecx, DWORD PTR $T7[ebp]
  0001d	ff 25 00 00 00
	00		 jmp	 DWORD PTR __imp_??1?$CStringT@DV?$StrTraitMFC_DLL@DV?$ChTraitsCRT@D@ATL@@@@@ATL@@QAE@XZ
__unwindfunclet$??4CElementCommonEnvironment@@QAEAAV0@ABV0@@Z$6:
  00023	8d 4d 08	 lea	 ecx, DWORD PTR $T6[ebp]
  00026	ff 25 00 00 00
	00		 jmp	 DWORD PTR __imp_??1?$CStringT@DV?$StrTraitMFC_DLL@DV?$ChTraitsCRT@D@ATL@@@@@ATL@@QAE@XZ
__unwindfunclet$??4CElementCommonEnvironment@@QAEAAV0@ABV0@@Z$7:
  0002c	8d 4d 08	 lea	 ecx, DWORD PTR $T5[ebp]
  0002f	ff 25 00 00 00
	00		 jmp	 DWORD PTR __imp_??1?$CStringT@DV?$StrTraitMFC_DLL@DV?$ChTraitsCRT@D@ATL@@@@@ATL@@QAE@XZ
  00035	cc		 int	 3
  00036	cc		 int	 3
  00037	cc		 int	 3
  00038	cc		 int	 3
  00039	cc		 int	 3
__ehhandler$??4CElementCommonEnvironment@@QAEAAV0@ABV0@@Z:
  0003a	90		 npad	 1
  0003b	90		 npad	 1
  0003c	8b 54 24 08	 mov	 edx, DWORD PTR [esp+8]
  00040	8d 42 0c	 lea	 eax, DWORD PTR [edx+12]
  00043	8b 4a b4	 mov	 ecx, DWORD PTR [edx-76]
  00046	33 c8		 xor	 ecx, eax
  00048	e8 00 00 00 00	 call	 @__security_check_cookie@4
  0004d	b8 00 00 00 00	 mov	 eax, OFFSET __ehfuncinfo$??4CElementCommonEnvironment@@QAEAAV0@ABV0@@Z
  00052	e9 00 00 00 00	 jmp	 ___CxxFrameHandler3
text$x	ENDS
??4CElementCommonEnvironment@@QAEAAV0@ABV0@@Z ENDP	; CElementCommonEnvironment::operator=
; Function compile flags: /Ogtp
; File D:\git\src\IBK\IBK_DRFN\ProjSrc\SrcChartEx\ChartAddIn\ChartAnalysisToolAddIn\Include_Analysis\ElementEnvironment.cpp
; File C:\Program Files (x86)\Microsoft Visual Studio\2019\Community\VC\Tools\MSVC\14.29.30133\atlmfc\include\cstringt.h
; File D:\git\src\IBK\IBK_DRFN\ProjSrc\SrcChartEx\ChartAddIn\ChartAnalysisToolAddIn\Include_Analysis\ElementEnvironment.cpp
; File C:\Program Files (x86)\Microsoft Visual Studio\2019\Community\VC\Tools\MSVC\14.29.30133\atlmfc\include\cstringt.h
; File C:\Program Files (x86)\Microsoft Visual Studio\2019\Community\VC\Tools\MSVC\14.29.30133\atlmfc\include\atlsimpstr.h
; File C:\Program Files (x86)\Microsoft Visual Studio\2019\Community\VC\Tools\MSVC\14.29.30133\atlmfc\include\cstringt.h
; File D:\git\src\IBK\IBK_DRFN\ProjSrc\SrcChartEx\ChartAddIn\ChartAnalysisToolAddIn\Include_Analysis\ElementEnvironment.cpp
;	COMDAT ?GetSavedLineExt@CLineExtEnvironment@@ABE?AV?$CStringT@DV?$StrTraitMFC_DLL@DV?$ChTraitsCRT@D@ATL@@@@@ATL@@XZ
_TEXT	SEGMENT
$T2 = -40						; size = 4
$T3 = -36						; size = 4
$T4 = -32						; size = 4
$T5 = -28						; size = 4
$T6 = -24						; size = 4
$T7 = -20						; size = 4
$T8 = -16						; size = 4
__$EHRec$ = -12						; size = 12
___$ReturnUdt$ = 8					; size = 4
?GetSavedLineExt@CLineExtEnvironment@@ABE?AV?$CStringT@DV?$StrTraitMFC_DLL@DV?$ChTraitsCRT@D@ATL@@@@@ATL@@XZ PROC ; CLineExtEnvironment::GetSavedLineExt, COMDAT
; _this$ = ecx

; 735  : {

  00000	55		 push	 ebp
  00001	8b ec		 mov	 ebp, esp
  00003	6a ff		 push	 -1
  00005	68 00 00 00 00	 push	 __ehhandler$?GetSavedLineExt@CLineExtEnvironment@@ABE?AV?$CStringT@DV?$StrTraitMFC_DLL@DV?$ChTraitsCRT@D@ATL@@@@@ATL@@XZ
  0000a	64 a1 00 00 00
	00		 mov	 eax, DWORD PTR fs:0
  00010	50		 push	 eax
  00011	83 ec 1c	 sub	 esp, 28			; 0000001cH
  00014	56		 push	 esi
  00015	57		 push	 edi
  00016	a1 00 00 00 00	 mov	 eax, DWORD PTR ___security_cookie
  0001b	33 c5		 xor	 eax, ebp
  0001d	50		 push	 eax
  0001e	8d 45 f4	 lea	 eax, DWORD PTR __$EHRec$[ebp]
  00021	64 a3 00 00 00
	00		 mov	 DWORD PTR fs:0, eax
  00027	8b f1		 mov	 esi, ecx
  00029	c7 45 f0 00 00
	00 00		 mov	 DWORD PTR $T8[ebp], 0

; 736  : 	return ("<LeftExt>" + CDataConversion::IntToString(m_nLeftExt) + "<\\LeftExt>\r\n"+\

  00030	8d 45 d8	 lea	 eax, DWORD PTR $T2[ebp]
  00033	ff 76 04	 push	 DWORD PTR [esi+4]
  00036	50		 push	 eax
  00037	e8 00 00 00 00	 call	 ?IntToString@CDataConversion@@SA?AV?$CStringT@DV?$StrTraitMFC_DLL@DV?$ChTraitsCRT@D@ATL@@@@@ATL@@H@Z ; CDataConversion::IntToString
  0003c	8b f8		 mov	 edi, eax
  0003e	ff 36		 push	 DWORD PTR [esi]
  00040	8d 45 dc	 lea	 eax, DWORD PTR $T3[ebp]
  00043	c7 45 fc 00 00
	00 00		 mov	 DWORD PTR __$EHRec$[ebp+8], 0
  0004a	50		 push	 eax
  0004b	e8 00 00 00 00	 call	 ?IntToString@CDataConversion@@SA?AV?$CStringT@DV?$StrTraitMFC_DLL@DV?$ChTraitsCRT@D@ATL@@@@@ATL@@H@Z ; CDataConversion::IntToString
  00050	50		 push	 eax
  00051	8d 45 e0	 lea	 eax, DWORD PTR $T4[ebp]
  00054	c6 45 fc 01	 mov	 BYTE PTR __$EHRec$[ebp+8], 1
  00058	68 00 00 00 00	 push	 OFFSET ??_C@_09JKGHBJEA@?$DMLeftExt?$DO@
  0005d	50		 push	 eax
  0005e	e8 00 00 00 00	 call	 ??HATL@@YA?AV?$CStringT@DV?$StrTraitMFC_DLL@DV?$ChTraitsCRT@D@ATL@@@@@0@PBDABV10@@Z ; ATL::operator+
  00063	68 00 00 00 00	 push	 OFFSET ??_C@_0N@KHBFLOEK@?$DM?2LeftExt?$DO?$AN?6@
  00068	50		 push	 eax
  00069	8d 45 e4	 lea	 eax, DWORD PTR $T5[ebp]
  0006c	c6 45 fc 02	 mov	 BYTE PTR __$EHRec$[ebp+8], 2
  00070	50		 push	 eax
  00071	e8 00 00 00 00	 call	 ??HATL@@YA?AV?$CStringT@DV?$StrTraitMFC_DLL@DV?$ChTraitsCRT@D@ATL@@@@@0@ABV10@PBD@Z ; ATL::operator+
  00076	68 00 00 00 00	 push	 OFFSET ??_C@_0L@CFEIJGAO@?$DMRightExt?$DO@
  0007b	50		 push	 eax
  0007c	8d 45 e8	 lea	 eax, DWORD PTR $T6[ebp]
  0007f	c6 45 fc 03	 mov	 BYTE PTR __$EHRec$[ebp+8], 3
  00083	50		 push	 eax
  00084	e8 00 00 00 00	 call	 ??HATL@@YA?AV?$CStringT@DV?$StrTraitMFC_DLL@DV?$ChTraitsCRT@D@ATL@@@@@0@ABV10@PBD@Z ; ATL::operator+
  00089	57		 push	 edi
  0008a	50		 push	 eax
  0008b	8d 45 ec	 lea	 eax, DWORD PTR $T7[ebp]
  0008e	c6 45 fc 04	 mov	 BYTE PTR __$EHRec$[ebp+8], 4
  00092	50		 push	 eax
  00093	e8 00 00 00 00	 call	 ??HATL@@YA?AV?$CStringT@DV?$StrTraitMFC_DLL@DV?$ChTraitsCRT@D@ATL@@@@@0@ABV10@0@Z ; ATL::operator+
  00098	83 c4 40	 add	 esp, 64			; 00000040H
  0009b	8b f0		 mov	 esi, eax
; File C:\Program Files (x86)\Microsoft Visual Studio\2019\Community\VC\Tools\MSVC\14.29.30133\atlmfc\include\cstringt.h

; 2401 : 		CStringT strResult( str1.GetManager() );

  0009d	8b ce		 mov	 ecx, esi
; File D:\git\src\IBK\IBK_DRFN\ProjSrc\SrcChartEx\ChartAddIn\ChartAnalysisToolAddIn\Include_Analysis\ElementEnvironment.cpp

; 736  : 	return ("<LeftExt>" + CDataConversion::IntToString(m_nLeftExt) + "<\\LeftExt>\r\n"+\

  0009f	c6 45 fc 06	 mov	 BYTE PTR __$EHRec$[ebp+8], 6
; File C:\Program Files (x86)\Microsoft Visual Studio\2019\Community\VC\Tools\MSVC\14.29.30133\atlmfc\include\cstringt.h

; 2401 : 		CStringT strResult( str1.GetManager() );

  000a3	ff 15 00 00 00
	00		 call	 DWORD PTR __imp_?GetManager@?$CStringT@DV?$StrTraitMFC_DLL@DV?$ChTraitsCRT@D@ATL@@@@@ATL@@QBEPAUIAtlStringMgr@2@XZ
  000a9	8b 7d 08	 mov	 edi, DWORD PTR ___$ReturnUdt$[ebp]
  000ac	8b cf		 mov	 ecx, edi
  000ae	50		 push	 eax
  000af	ff 15 00 00 00
	00		 call	 DWORD PTR __imp_??0?$CStringT@DV?$StrTraitMFC_DLL@DV?$ChTraitsCRT@D@ATL@@@@@ATL@@QAE@PAUIAtlStringMgr@1@@Z
; File C:\Program Files (x86)\Microsoft Visual Studio\2019\Community\VC\Tools\MSVC\14.29.30133\atlmfc\include\atlsimpstr.h

; 519  : 		return( GetData()->nDataLength );

  000b5	8b 06		 mov	 eax, DWORD PTR [esi]
; File C:\Program Files (x86)\Microsoft Visual Studio\2019\Community\VC\Tools\MSVC\14.29.30133\atlmfc\include\cstringt.h

; 2403 : 		CThisSimpleString::Concatenate( strResult, str1, str1.GetLength(), psz2, CThisSimpleString::StringLength( psz2 ) );

  000b7	6a 0d		 push	 13			; 0000000dH
  000b9	68 00 00 00 00	 push	 OFFSET ??_C@_0O@CEMHHFOM@?$DM?2RightExt?$DO?$AN?6@

; 2404 : 
; 2405 : 		return( strResult );

  000be	c7 45 f0 20 00
	00 00		 mov	 DWORD PTR $T8[ebp], 32	; 00000020H
  000c5	ff 70 f4	 push	 DWORD PTR [eax-12]
  000c8	50		 push	 eax
  000c9	57		 push	 edi
  000ca	ff 15 00 00 00
	00		 call	 DWORD PTR __imp_?Concatenate@?$CSimpleStringT@D$00@ATL@@KAXAAV12@PBDH1H@Z
  000d0	83 c4 14	 add	 esp, 20			; 00000014H
; File D:\git\src\IBK\IBK_DRFN\ProjSrc\SrcChartEx\ChartAddIn\ChartAnalysisToolAddIn\Include_Analysis\ElementEnvironment.cpp

; 736  : 	return ("<LeftExt>" + CDataConversion::IntToString(m_nLeftExt) + "<\\LeftExt>\r\n"+\

  000d3	8d 4d ec	 lea	 ecx, DWORD PTR $T7[ebp]
  000d6	ff 15 00 00 00
	00		 call	 DWORD PTR __imp_??1?$CStringT@DV?$StrTraitMFC_DLL@DV?$ChTraitsCRT@D@ATL@@@@@ATL@@QAE@XZ
  000dc	8d 4d e8	 lea	 ecx, DWORD PTR $T6[ebp]
  000df	ff 15 00 00 00
	00		 call	 DWORD PTR __imp_??1?$CStringT@DV?$StrTraitMFC_DLL@DV?$ChTraitsCRT@D@ATL@@@@@ATL@@QAE@XZ
  000e5	8d 4d e4	 lea	 ecx, DWORD PTR $T5[ebp]
  000e8	ff 15 00 00 00
	00		 call	 DWORD PTR __imp_??1?$CStringT@DV?$StrTraitMFC_DLL@DV?$ChTraitsCRT@D@ATL@@@@@ATL@@QAE@XZ
  000ee	8d 4d e0	 lea	 ecx, DWORD PTR $T4[ebp]
  000f1	ff 15 00 00 00
	00		 call	 DWORD PTR __imp_??1?$CStringT@DV?$StrTraitMFC_DLL@DV?$ChTraitsCRT@D@ATL@@@@@ATL@@QAE@XZ
  000f7	8d 4d dc	 lea	 ecx, DWORD PTR $T3[ebp]
  000fa	ff 15 00 00 00
	00		 call	 DWORD PTR __imp_??1?$CStringT@DV?$StrTraitMFC_DLL@DV?$ChTraitsCRT@D@ATL@@@@@ATL@@QAE@XZ
  00100	8d 4d d8	 lea	 ecx, DWORD PTR $T2[ebp]
  00103	ff 15 00 00 00
	00		 call	 DWORD PTR __imp_??1?$CStringT@DV?$StrTraitMFC_DLL@DV?$ChTraitsCRT@D@ATL@@@@@ATL@@QAE@XZ
  00109	8b c7		 mov	 eax, edi

; 737  : 			"<RightExt>"  + CDataConversion::IntToString(m_nRightExt) + "<\\RightExt>\r\n");
; 738  : }

  0010b	8b 4d f4	 mov	 ecx, DWORD PTR __$EHRec$[ebp]
  0010e	64 89 0d 00 00
	00 00		 mov	 DWORD PTR fs:0, ecx
  00115	59		 pop	 ecx
  00116	5f		 pop	 edi
  00117	5e		 pop	 esi
  00118	8b e5		 mov	 esp, ebp
  0011a	5d		 pop	 ebp
  0011b	c2 04 00	 ret	 4
_TEXT	ENDS
;	COMDAT text$x
text$x	SEGMENT
__unwindfunclet$?GetSavedLineExt@CLineExtEnvironment@@ABE?AV?$CStringT@DV?$StrTraitMFC_DLL@DV?$ChTraitsCRT@D@ATL@@@@@ATL@@XZ$0:
  00000	8d 4d d8	 lea	 ecx, DWORD PTR $T2[ebp]
  00003	ff 25 00 00 00
	00		 jmp	 DWORD PTR __imp_??1?$CStringT@DV?$StrTraitMFC_DLL@DV?$ChTraitsCRT@D@ATL@@@@@ATL@@QAE@XZ
__unwindfunclet$?GetSavedLineExt@CLineExtEnvironment@@ABE?AV?$CStringT@DV?$StrTraitMFC_DLL@DV?$ChTraitsCRT@D@ATL@@@@@ATL@@XZ$1:
  00009	8d 4d dc	 lea	 ecx, DWORD PTR $T3[ebp]
  0000c	ff 25 00 00 00
	00		 jmp	 DWORD PTR __imp_??1?$CStringT@DV?$StrTraitMFC_DLL@DV?$ChTraitsCRT@D@ATL@@@@@ATL@@QAE@XZ
__unwindfunclet$?GetSavedLineExt@CLineExtEnvironment@@ABE?AV?$CStringT@DV?$StrTraitMFC_DLL@DV?$ChTraitsCRT@D@ATL@@@@@ATL@@XZ$2:
  00012	8d 4d e0	 lea	 ecx, DWORD PTR $T4[ebp]
  00015	ff 25 00 00 00
	00		 jmp	 DWORD PTR __imp_??1?$CStringT@DV?$StrTraitMFC_DLL@DV?$ChTraitsCRT@D@ATL@@@@@ATL@@QAE@XZ
__unwindfunclet$?GetSavedLineExt@CLineExtEnvironment@@ABE?AV?$CStringT@DV?$StrTraitMFC_DLL@DV?$ChTraitsCRT@D@ATL@@@@@ATL@@XZ$3:
  0001b	8d 4d e4	 lea	 ecx, DWORD PTR $T5[ebp]
  0001e	ff 25 00 00 00
	00		 jmp	 DWORD PTR __imp_??1?$CStringT@DV?$StrTraitMFC_DLL@DV?$ChTraitsCRT@D@ATL@@@@@ATL@@QAE@XZ
__unwindfunclet$?GetSavedLineExt@CLineExtEnvironment@@ABE?AV?$CStringT@DV?$StrTraitMFC_DLL@DV?$ChTraitsCRT@D@ATL@@@@@ATL@@XZ$4:
  00024	8d 4d e8	 lea	 ecx, DWORD PTR $T6[ebp]
  00027	ff 25 00 00 00
	00		 jmp	 DWORD PTR __imp_??1?$CStringT@DV?$StrTraitMFC_DLL@DV?$ChTraitsCRT@D@ATL@@@@@ATL@@QAE@XZ
__unwindfunclet$?GetSavedLineExt@CLineExtEnvironment@@ABE?AV?$CStringT@DV?$StrTraitMFC_DLL@DV?$ChTraitsCRT@D@ATL@@@@@ATL@@XZ$5:
  0002d	8d 4d ec	 lea	 ecx, DWORD PTR $T7[ebp]
  00030	ff 25 00 00 00
	00		 jmp	 DWORD PTR __imp_??1?$CStringT@DV?$StrTraitMFC_DLL@DV?$ChTraitsCRT@D@ATL@@@@@ATL@@QAE@XZ
__unwindfunclet$?GetSavedLineExt@CLineExtEnvironment@@ABE?AV?$CStringT@DV?$StrTraitMFC_DLL@DV?$ChTraitsCRT@D@ATL@@@@@ATL@@XZ$11:
  00036	8b 45 f0	 mov	 eax, DWORD PTR $T8[ebp]
  00039	83 e0 20	 and	 eax, 32			; 00000020H
  0003c	0f 84 0d 00 00
	00		 je	 $LN69@GetSavedLi
  00042	83 65 f0 df	 and	 DWORD PTR $T8[ebp], -33	; ffffffdfH
  00046	8b 4d 08	 mov	 ecx, DWORD PTR ___$ReturnUdt$[ebp]
  00049	ff 25 00 00 00
	00		 jmp	 DWORD PTR __imp_??1?$CStringT@DV?$StrTraitMFC_DLL@DV?$ChTraitsCRT@D@ATL@@@@@ATL@@QAE@XZ
$LN69@GetSavedLi:
  0004f	c3		 ret	 0
  00050	cc		 int	 3
  00051	cc		 int	 3
  00052	cc		 int	 3
  00053	cc		 int	 3
  00054	cc		 int	 3
__ehhandler$?GetSavedLineExt@CLineExtEnvironment@@ABE?AV?$CStringT@DV?$StrTraitMFC_DLL@DV?$ChTraitsCRT@D@ATL@@@@@ATL@@XZ:
  00055	90		 npad	 1
  00056	90		 npad	 1
  00057	8b 54 24 08	 mov	 edx, DWORD PTR [esp+8]
  0005b	8d 42 0c	 lea	 eax, DWORD PTR [edx+12]
  0005e	8b 4a d8	 mov	 ecx, DWORD PTR [edx-40]
  00061	33 c8		 xor	 ecx, eax
  00063	e8 00 00 00 00	 call	 @__security_check_cookie@4
  00068	b8 00 00 00 00	 mov	 eax, OFFSET __ehfuncinfo$?GetSavedLineExt@CLineExtEnvironment@@ABE?AV?$CStringT@DV?$StrTraitMFC_DLL@DV?$ChTraitsCRT@D@ATL@@@@@ATL@@XZ
  0006d	e9 00 00 00 00	 jmp	 ___CxxFrameHandler3
text$x	ENDS
?GetSavedLineExt@CLineExtEnvironment@@ABE?AV?$CStringT@DV?$StrTraitMFC_DLL@DV?$ChTraitsCRT@D@ATL@@@@@ATL@@XZ ENDP ; CLineExtEnvironment::GetSavedLineExt
; Function compile flags: /Ogtp
; File D:\git\src\IBK\IBK_DRFN\ProjSrc\SrcChartEx\ChartAddIn\ChartAnalysisToolAddIn\Include_Analysis\ElementEnvironment.cpp
; File C:\Program Files (x86)\Microsoft Visual Studio\2019\Community\VC\Tools\MSVC\14.29.30133\atlmfc\include\cstringt.h
; File D:\git\src\IBK\IBK_DRFN\ProjSrc\SrcChartEx\ChartAddIn\ChartAnalysisToolAddIn\Include_Analysis\ElementEnvironment.cpp
; File C:\Program Files (x86)\Microsoft Visual Studio\2019\Community\VC\Tools\MSVC\14.29.30133\atlmfc\include\cstringt.h
; File C:\Program Files (x86)\Microsoft Visual Studio\2019\Community\VC\Tools\MSVC\14.29.30133\atlmfc\include\atlsimpstr.h
; File C:\Program Files (x86)\Microsoft Visual Studio\2019\Community\VC\Tools\MSVC\14.29.30133\atlmfc\include\cstringt.h
; File D:\git\src\IBK\IBK_DRFN\ProjSrc\SrcChartEx\ChartAddIn\ChartAnalysisToolAddIn\Include_Analysis\ElementEnvironment.cpp
;	COMDAT ?GetSavedData@CLineExtEnvironment@@QBE?AV?$CStringT@DV?$StrTraitMFC_DLL@DV?$ChTraitsCRT@D@ATL@@@@@ATL@@XZ
_TEXT	SEGMENT
$T2 = -44						; size = 4
$T3 = -40						; size = 4
$T4 = -36						; size = 4
$T5 = -32						; size = 4
$T6 = -28						; size = 4
$T7 = -24						; size = 4
$T8 = -20						; size = 4
$T9 = -16						; size = 4
__$EHRec$ = -12						; size = 12
___$ReturnUdt$ = 8					; size = 4
?GetSavedData@CLineExtEnvironment@@QBE?AV?$CStringT@DV?$StrTraitMFC_DLL@DV?$ChTraitsCRT@D@ATL@@@@@ATL@@XZ PROC ; CLineExtEnvironment::GetSavedData, COMDAT
; _this$ = ecx

; 726  : {

  00000	55		 push	 ebp
  00001	8b ec		 mov	 ebp, esp
  00003	6a ff		 push	 -1
  00005	68 00 00 00 00	 push	 __ehhandler$?GetSavedData@CLineExtEnvironment@@QBE?AV?$CStringT@DV?$StrTraitMFC_DLL@DV?$ChTraitsCRT@D@ATL@@@@@ATL@@XZ
  0000a	64 a1 00 00 00
	00		 mov	 eax, DWORD PTR fs:0
  00010	50		 push	 eax
  00011	83 ec 20	 sub	 esp, 32			; 00000020H
  00014	53		 push	 ebx
  00015	56		 push	 esi
  00016	57		 push	 edi
  00017	a1 00 00 00 00	 mov	 eax, DWORD PTR ___security_cookie
  0001c	33 c5		 xor	 eax, ebp
  0001e	50		 push	 eax
  0001f	8d 45 f4	 lea	 eax, DWORD PTR __$EHRec$[ebp]
  00022	64 a3 00 00 00
	00		 mov	 DWORD PTR fs:0, eax
  00028	8b f1		 mov	 esi, ecx
  0002a	c7 45 f0 00 00
	00 00		 mov	 DWORD PTR $T9[ebp], 0

; 727  : 	CString strSaved;

  00031	8b 5d 08	 mov	 ebx, DWORD PTR ___$ReturnUdt$[ebp]
  00034	8b cb		 mov	 ecx, ebx
  00036	ff 15 00 00 00
	00		 call	 DWORD PTR __imp_??0?$CStringT@DV?$StrTraitMFC_DLL@DV?$ChTraitsCRT@D@ATL@@@@@ATL@@QAE@XZ

; 736  : 	return ("<LeftExt>" + CDataConversion::IntToString(m_nLeftExt) + "<\\LeftExt>\r\n"+\

  0003c	ff 76 04	 push	 DWORD PTR [esi+4]
  0003f	8d 45 d4	 lea	 eax, DWORD PTR $T2[ebp]

; 729  : 	return strSaved;

  00042	c7 45 fc 00 00
	00 00		 mov	 DWORD PTR __$EHRec$[ebp+8], 0

; 736  : 	return ("<LeftExt>" + CDataConversion::IntToString(m_nLeftExt) + "<\\LeftExt>\r\n"+\

  00049	50		 push	 eax

; 729  : 	return strSaved;

  0004a	c7 45 f0 01 00
	00 00		 mov	 DWORD PTR $T9[ebp], 1

; 736  : 	return ("<LeftExt>" + CDataConversion::IntToString(m_nLeftExt) + "<\\LeftExt>\r\n"+\

  00051	e8 00 00 00 00	 call	 ?IntToString@CDataConversion@@SA?AV?$CStringT@DV?$StrTraitMFC_DLL@DV?$ChTraitsCRT@D@ATL@@@@@ATL@@H@Z ; CDataConversion::IntToString
  00056	8b f8		 mov	 edi, eax
  00058	ff 36		 push	 DWORD PTR [esi]
  0005a	8d 45 d8	 lea	 eax, DWORD PTR $T3[ebp]
  0005d	c7 45 fc 01 00
	00 00		 mov	 DWORD PTR __$EHRec$[ebp+8], 1
  00064	50		 push	 eax
  00065	e8 00 00 00 00	 call	 ?IntToString@CDataConversion@@SA?AV?$CStringT@DV?$StrTraitMFC_DLL@DV?$ChTraitsCRT@D@ATL@@@@@ATL@@H@Z ; CDataConversion::IntToString
  0006a	50		 push	 eax
  0006b	8d 45 dc	 lea	 eax, DWORD PTR $T4[ebp]
  0006e	c6 45 fc 02	 mov	 BYTE PTR __$EHRec$[ebp+8], 2
  00072	68 00 00 00 00	 push	 OFFSET ??_C@_09JKGHBJEA@?$DMLeftExt?$DO@
  00077	50		 push	 eax
  00078	e8 00 00 00 00	 call	 ??HATL@@YA?AV?$CStringT@DV?$StrTraitMFC_DLL@DV?$ChTraitsCRT@D@ATL@@@@@0@PBDABV10@@Z ; ATL::operator+
  0007d	68 00 00 00 00	 push	 OFFSET ??_C@_0N@KHBFLOEK@?$DM?2LeftExt?$DO?$AN?6@
  00082	50		 push	 eax
  00083	8d 45 e0	 lea	 eax, DWORD PTR $T5[ebp]
  00086	c6 45 fc 03	 mov	 BYTE PTR __$EHRec$[ebp+8], 3
  0008a	50		 push	 eax
  0008b	e8 00 00 00 00	 call	 ??HATL@@YA?AV?$CStringT@DV?$StrTraitMFC_DLL@DV?$ChTraitsCRT@D@ATL@@@@@0@ABV10@PBD@Z ; ATL::operator+
  00090	68 00 00 00 00	 push	 OFFSET ??_C@_0L@CFEIJGAO@?$DMRightExt?$DO@
  00095	50		 push	 eax
  00096	8d 45 e4	 lea	 eax, DWORD PTR $T6[ebp]
  00099	c6 45 fc 04	 mov	 BYTE PTR __$EHRec$[ebp+8], 4
  0009d	50		 push	 eax
  0009e	e8 00 00 00 00	 call	 ??HATL@@YA?AV?$CStringT@DV?$StrTraitMFC_DLL@DV?$ChTraitsCRT@D@ATL@@@@@0@ABV10@PBD@Z ; ATL::operator+
  000a3	57		 push	 edi
  000a4	50		 push	 eax
  000a5	8d 45 e8	 lea	 eax, DWORD PTR $T7[ebp]
  000a8	c6 45 fc 05	 mov	 BYTE PTR __$EHRec$[ebp+8], 5
  000ac	50		 push	 eax
  000ad	e8 00 00 00 00	 call	 ??HATL@@YA?AV?$CStringT@DV?$StrTraitMFC_DLL@DV?$ChTraitsCRT@D@ATL@@@@@0@ABV10@0@Z ; ATL::operator+
  000b2	83 c4 40	 add	 esp, 64			; 00000040H
  000b5	8b f0		 mov	 esi, eax
; File C:\Program Files (x86)\Microsoft Visual Studio\2019\Community\VC\Tools\MSVC\14.29.30133\atlmfc\include\cstringt.h

; 2401 : 		CStringT strResult( str1.GetManager() );

  000b7	8b ce		 mov	 ecx, esi
; File D:\git\src\IBK\IBK_DRFN\ProjSrc\SrcChartEx\ChartAddIn\ChartAnalysisToolAddIn\Include_Analysis\ElementEnvironment.cpp

; 736  : 	return ("<LeftExt>" + CDataConversion::IntToString(m_nLeftExt) + "<\\LeftExt>\r\n"+\

  000b9	c6 45 fc 07	 mov	 BYTE PTR __$EHRec$[ebp+8], 7
; File C:\Program Files (x86)\Microsoft Visual Studio\2019\Community\VC\Tools\MSVC\14.29.30133\atlmfc\include\cstringt.h

; 2401 : 		CStringT strResult( str1.GetManager() );

  000bd	ff 15 00 00 00
	00		 call	 DWORD PTR __imp_?GetManager@?$CStringT@DV?$StrTraitMFC_DLL@DV?$ChTraitsCRT@D@ATL@@@@@ATL@@QBEPAUIAtlStringMgr@2@XZ
  000c3	50		 push	 eax
  000c4	8d 4d ec	 lea	 ecx, DWORD PTR $T8[ebp]
  000c7	ff 15 00 00 00
	00		 call	 DWORD PTR __imp_??0?$CStringT@DV?$StrTraitMFC_DLL@DV?$ChTraitsCRT@D@ATL@@@@@ATL@@QAE@PAUIAtlStringMgr@1@@Z
; File C:\Program Files (x86)\Microsoft Visual Studio\2019\Community\VC\Tools\MSVC\14.29.30133\atlmfc\include\atlsimpstr.h

; 519  : 		return( GetData()->nDataLength );

  000cd	8b 06		 mov	 eax, DWORD PTR [esi]
; File C:\Program Files (x86)\Microsoft Visual Studio\2019\Community\VC\Tools\MSVC\14.29.30133\atlmfc\include\cstringt.h

; 2403 : 		CThisSimpleString::Concatenate( strResult, str1, str1.GetLength(), psz2, CThisSimpleString::StringLength( psz2 ) );

  000cf	6a 0d		 push	 13			; 0000000dH
  000d1	68 00 00 00 00	 push	 OFFSET ??_C@_0O@CEMHHFOM@?$DM?2RightExt?$DO?$AN?6@

; 2404 : 
; 2405 : 		return( strResult );

  000d6	c7 45 f0 41 00
	00 00		 mov	 DWORD PTR $T9[ebp], 65	; 00000041H
  000dd	ff 70 f4	 push	 DWORD PTR [eax-12]
  000e0	50		 push	 eax
  000e1	8d 45 ec	 lea	 eax, DWORD PTR $T8[ebp]
  000e4	50		 push	 eax
  000e5	ff 15 00 00 00
	00		 call	 DWORD PTR __imp_?Concatenate@?$CSimpleStringT@D$00@ATL@@KAXAAV12@PBDH1H@Z
  000eb	83 c4 14	 add	 esp, 20			; 00000014H
; File D:\git\src\IBK\IBK_DRFN\ProjSrc\SrcChartEx\ChartAddIn\ChartAnalysisToolAddIn\Include_Analysis\ElementEnvironment.cpp

; 736  : 	return ("<LeftExt>" + CDataConversion::IntToString(m_nLeftExt) + "<\\LeftExt>\r\n"+\

  000ee	c7 45 f0 03 00
	00 00		 mov	 DWORD PTR $T9[ebp], 3
  000f5	8d 4d e8	 lea	 ecx, DWORD PTR $T7[ebp]
  000f8	ff 15 00 00 00
	00		 call	 DWORD PTR __imp_??1?$CStringT@DV?$StrTraitMFC_DLL@DV?$ChTraitsCRT@D@ATL@@@@@ATL@@QAE@XZ
  000fe	8d 4d e4	 lea	 ecx, DWORD PTR $T6[ebp]
  00101	ff 15 00 00 00
	00		 call	 DWORD PTR __imp_??1?$CStringT@DV?$StrTraitMFC_DLL@DV?$ChTraitsCRT@D@ATL@@@@@ATL@@QAE@XZ
  00107	8d 4d e0	 lea	 ecx, DWORD PTR $T5[ebp]
  0010a	ff 15 00 00 00
	00		 call	 DWORD PTR __imp_??1?$CStringT@DV?$StrTraitMFC_DLL@DV?$ChTraitsCRT@D@ATL@@@@@ATL@@QAE@XZ
  00110	8d 4d dc	 lea	 ecx, DWORD PTR $T4[ebp]
  00113	ff 15 00 00 00
	00		 call	 DWORD PTR __imp_??1?$CStringT@DV?$StrTraitMFC_DLL@DV?$ChTraitsCRT@D@ATL@@@@@ATL@@QAE@XZ
  00119	8d 4d d8	 lea	 ecx, DWORD PTR $T3[ebp]
  0011c	ff 15 00 00 00
	00		 call	 DWORD PTR __imp_??1?$CStringT@DV?$StrTraitMFC_DLL@DV?$ChTraitsCRT@D@ATL@@@@@ATL@@QAE@XZ
  00122	8d 4d d4	 lea	 ecx, DWORD PTR $T2[ebp]
  00125	ff 15 00 00 00
	00		 call	 DWORD PTR __imp_??1?$CStringT@DV?$StrTraitMFC_DLL@DV?$ChTraitsCRT@D@ATL@@@@@ATL@@QAE@XZ

; 728  : 	strSaved.Format("<LineExt>\r\n%s<\\LineExt>\r\n", GetSavedLineExt());

  0012b	c7 45 fc 08 00
	00 00		 mov	 DWORD PTR __$EHRec$[ebp+8], 8
  00132	ff 75 ec	 push	 DWORD PTR $T8[ebp]
  00135	68 00 00 00 00	 push	 OFFSET ??_C@_0BK@FDALAKDP@?$DMLineExt?$DO?$AN?6?$CFs?$DM?2LineExt?$DO?$AN?6@
  0013a	53		 push	 ebx
  0013b	ff 15 00 00 00
	00		 call	 DWORD PTR __imp_?Format@?$CStringT@DV?$StrTraitMFC_DLL@DV?$ChTraitsCRT@D@ATL@@@@@ATL@@QAAXPBDZZ
  00141	83 c4 0c	 add	 esp, 12			; 0000000cH
  00144	8d 4d ec	 lea	 ecx, DWORD PTR $T8[ebp]
  00147	ff 15 00 00 00
	00		 call	 DWORD PTR __imp_??1?$CStringT@DV?$StrTraitMFC_DLL@DV?$ChTraitsCRT@D@ATL@@@@@ATL@@QAE@XZ

; 729  : 	return strSaved;

  0014d	8b c3		 mov	 eax, ebx

; 730  : }

  0014f	8b 4d f4	 mov	 ecx, DWORD PTR __$EHRec$[ebp]
  00152	64 89 0d 00 00
	00 00		 mov	 DWORD PTR fs:0, ecx
  00159	59		 pop	 ecx
  0015a	5f		 pop	 edi
  0015b	5e		 pop	 esi
  0015c	5b		 pop	 ebx
  0015d	8b e5		 mov	 esp, ebp
  0015f	5d		 pop	 ebp
  00160	c2 04 00	 ret	 4
_TEXT	ENDS
;	COMDAT text$x
text$x	SEGMENT
__unwindfunclet$?GetSavedData@CLineExtEnvironment@@QBE?AV?$CStringT@DV?$StrTraitMFC_DLL@DV?$ChTraitsCRT@D@ATL@@@@@ATL@@XZ$0:
  00000	8b 45 f0	 mov	 eax, DWORD PTR $T9[ebp]
  00003	83 e0 01	 and	 eax, 1
  00006	0f 84 0d 00 00
	00		 je	 $LN4@GetSavedDa
  0000c	83 65 f0 fe	 and	 DWORD PTR $T9[ebp], -2	; fffffffeH
  00010	8b 4d 08	 mov	 ecx, DWORD PTR ___$ReturnUdt$[ebp]
  00013	ff 25 00 00 00
	00		 jmp	 DWORD PTR __imp_??1?$CStringT@DV?$StrTraitMFC_DLL@DV?$ChTraitsCRT@D@ATL@@@@@ATL@@QAE@XZ
$LN4@GetSavedDa:
  00019	c3		 ret	 0
__unwindfunclet$?GetSavedData@CLineExtEnvironment@@QBE?AV?$CStringT@DV?$StrTraitMFC_DLL@DV?$ChTraitsCRT@D@ATL@@@@@ATL@@XZ$2:
  0001a	8d 4d d4	 lea	 ecx, DWORD PTR $T2[ebp]
  0001d	ff 25 00 00 00
	00		 jmp	 DWORD PTR __imp_??1?$CStringT@DV?$StrTraitMFC_DLL@DV?$ChTraitsCRT@D@ATL@@@@@ATL@@QAE@XZ
__unwindfunclet$?GetSavedData@CLineExtEnvironment@@QBE?AV?$CStringT@DV?$StrTraitMFC_DLL@DV?$ChTraitsCRT@D@ATL@@@@@ATL@@XZ$3:
  00023	8d 4d d8	 lea	 ecx, DWORD PTR $T3[ebp]
  00026	ff 25 00 00 00
	00		 jmp	 DWORD PTR __imp_??1?$CStringT@DV?$StrTraitMFC_DLL@DV?$ChTraitsCRT@D@ATL@@@@@ATL@@QAE@XZ
__unwindfunclet$?GetSavedData@CLineExtEnvironment@@QBE?AV?$CStringT@DV?$StrTraitMFC_DLL@DV?$ChTraitsCRT@D@ATL@@@@@ATL@@XZ$4:
  0002c	8d 4d dc	 lea	 ecx, DWORD PTR $T4[ebp]
  0002f	ff 25 00 00 00
	00		 jmp	 DWORD PTR __imp_??1?$CStringT@DV?$StrTraitMFC_DLL@DV?$ChTraitsCRT@D@ATL@@@@@ATL@@QAE@XZ
__unwindfunclet$?GetSavedData@CLineExtEnvironment@@QBE?AV?$CStringT@DV?$StrTraitMFC_DLL@DV?$ChTraitsCRT@D@ATL@@@@@ATL@@XZ$5:
  00035	8d 4d e0	 lea	 ecx, DWORD PTR $T5[ebp]
  00038	ff 25 00 00 00
	00		 jmp	 DWORD PTR __imp_??1?$CStringT@DV?$StrTraitMFC_DLL@DV?$ChTraitsCRT@D@ATL@@@@@ATL@@QAE@XZ
__unwindfunclet$?GetSavedData@CLineExtEnvironment@@QBE?AV?$CStringT@DV?$StrTraitMFC_DLL@DV?$ChTraitsCRT@D@ATL@@@@@ATL@@XZ$6:
  0003e	8d 4d e4	 lea	 ecx, DWORD PTR $T6[ebp]
  00041	ff 25 00 00 00
	00		 jmp	 DWORD PTR __imp_??1?$CStringT@DV?$StrTraitMFC_DLL@DV?$ChTraitsCRT@D@ATL@@@@@ATL@@QAE@XZ
__unwindfunclet$?GetSavedData@CLineExtEnvironment@@QBE?AV?$CStringT@DV?$StrTraitMFC_DLL@DV?$ChTraitsCRT@D@ATL@@@@@ATL@@XZ$7:
  00047	8d 4d e8	 lea	 ecx, DWORD PTR $T7[ebp]
  0004a	ff 25 00 00 00
	00		 jmp	 DWORD PTR __imp_??1?$CStringT@DV?$StrTraitMFC_DLL@DV?$ChTraitsCRT@D@ATL@@@@@ATL@@QAE@XZ
__unwindfunclet$?GetSavedData@CLineExtEnvironment@@QBE?AV?$CStringT@DV?$StrTraitMFC_DLL@DV?$ChTraitsCRT@D@ATL@@@@@ATL@@XZ$13:
  00050	8b 45 f0	 mov	 eax, DWORD PTR $T9[ebp]
  00053	83 e0 40	 and	 eax, 64			; 00000040H
  00056	0f 84 0d 00 00
	00		 je	 $LN74@GetSavedDa
  0005c	83 65 f0 bf	 and	 DWORD PTR $T9[ebp], -65	; ffffffbfH
  00060	8d 4d ec	 lea	 ecx, DWORD PTR $T8[ebp]
  00063	ff 25 00 00 00
	00		 jmp	 DWORD PTR __imp_??1?$CStringT@DV?$StrTraitMFC_DLL@DV?$ChTraitsCRT@D@ATL@@@@@ATL@@QAE@XZ
$LN74@GetSavedDa:
  00069	c3		 ret	 0
__unwindfunclet$?GetSavedData@CLineExtEnvironment@@QBE?AV?$CStringT@DV?$StrTraitMFC_DLL@DV?$ChTraitsCRT@D@ATL@@@@@ATL@@XZ$1:
  0006a	8d 4d ec	 lea	 ecx, DWORD PTR $T8[ebp]
  0006d	ff 25 00 00 00
	00		 jmp	 DWORD PTR __imp_??1?$CStringT@DV?$StrTraitMFC_DLL@DV?$ChTraitsCRT@D@ATL@@@@@ATL@@QAE@XZ
  00073	cc		 int	 3
  00074	cc		 int	 3
  00075	cc		 int	 3
  00076	cc		 int	 3
  00077	cc		 int	 3
__ehhandler$?GetSavedData@CLineExtEnvironment@@QBE?AV?$CStringT@DV?$StrTraitMFC_DLL@DV?$ChTraitsCRT@D@ATL@@@@@ATL@@XZ:
  00078	90		 npad	 1
  00079	90		 npad	 1
  0007a	8b 54 24 08	 mov	 edx, DWORD PTR [esp+8]
  0007e	8d 42 0c	 lea	 eax, DWORD PTR [edx+12]
  00081	8b 4a d0	 mov	 ecx, DWORD PTR [edx-48]
  00084	33 c8		 xor	 ecx, eax
  00086	e8 00 00 00 00	 call	 @__security_check_cookie@4
  0008b	b8 00 00 00 00	 mov	 eax, OFFSET __ehfuncinfo$?GetSavedData@CLineExtEnvironment@@QBE?AV?$CStringT@DV?$StrTraitMFC_DLL@DV?$ChTraitsCRT@D@ATL@@@@@ATL@@XZ
  00090	e9 00 00 00 00	 jmp	 ___CxxFrameHandler3
text$x	ENDS
?GetSavedData@CLineExtEnvironment@@QBE?AV?$CStringT@DV?$StrTraitMFC_DLL@DV?$ChTraitsCRT@D@ATL@@@@@ATL@@XZ ENDP ; CLineExtEnvironment::GetSavedData
; Function compile flags: /Ogtp
; File D:\git\src\IBK\IBK_DRFN\ProjSrc\SrcChartEx\ChartAddIn\ChartAnalysisToolAddIn\Include_Analysis\ElementEnvironment.cpp
;	COMDAT ?GetRightExt@CLineExtEnvironment@@QBEHXZ
_TEXT	SEGMENT
?GetRightExt@CLineExtEnvironment@@QBEHXZ PROC		; CLineExtEnvironment::GetRightExt, COMDAT
; _this$ = ecx

; 718  : 	return m_nRightExt;

  00000	8b 41 04	 mov	 eax, DWORD PTR [ecx+4]

; 719  : }

  00003	c3		 ret	 0
?GetRightExt@CLineExtEnvironment@@QBEHXZ ENDP		; CLineExtEnvironment::GetRightExt
_TEXT	ENDS
; Function compile flags: /Ogtp
; File D:\git\src\IBK\IBK_DRFN\ProjSrc\SrcChartEx\ChartAddIn\ChartAnalysisToolAddIn\Include_Analysis\ElementEnvironment.cpp
;	COMDAT ?GetLeftExt@CLineExtEnvironment@@QBEHXZ
_TEXT	SEGMENT
?GetLeftExt@CLineExtEnvironment@@QBEHXZ PROC		; CLineExtEnvironment::GetLeftExt, COMDAT
; _this$ = ecx

; 713  : 	return m_nLeftExt;

  00000	8b 01		 mov	 eax, DWORD PTR [ecx]

; 714  : }

  00002	c3		 ret	 0
?GetLeftExt@CLineExtEnvironment@@QBEHXZ ENDP		; CLineExtEnvironment::GetLeftExt
_TEXT	ENDS
; Function compile flags: /Ogtp
; File D:\git\src\IBK\IBK_DRFN\ProjSrc\SrcChartEx\ChartAddIn\ChartAnalysisToolAddIn\Include_Analysis\ElementEnvironment.cpp
;	COMDAT ?SetLineExt@CLineExtEnvironment@@QAEXABH0@Z
_TEXT	SEGMENT
_nLeft$ = 8						; size = 4
_nRight$ = 12						; size = 4
?SetLineExt@CLineExtEnvironment@@QAEXABH0@Z PROC	; CLineExtEnvironment::SetLineExt, COMDAT
; _this$ = ecx

; 705  : {

  00000	55		 push	 ebp
  00001	8b ec		 mov	 ebp, esp

; 706  : 	m_nLeftExt = nLeft;

  00003	8b 45 08	 mov	 eax, DWORD PTR _nLeft$[ebp]
  00006	8b 00		 mov	 eax, DWORD PTR [eax]
  00008	89 01		 mov	 DWORD PTR [ecx], eax

; 707  : 	m_nRightExt = nRight;

  0000a	8b 45 0c	 mov	 eax, DWORD PTR _nRight$[ebp]
  0000d	8b 00		 mov	 eax, DWORD PTR [eax]
  0000f	89 41 04	 mov	 DWORD PTR [ecx+4], eax

; 708  : }

  00012	5d		 pop	 ebp
  00013	c2 08 00	 ret	 8
?SetLineExt@CLineExtEnvironment@@QAEXABH0@Z ENDP	; CLineExtEnvironment::SetLineExt
_TEXT	ENDS
; Function compile flags: /Ogtp
; File D:\git\src\IBK\IBK_DRFN\ProjSrc\SrcChartEx\ChartAddIn\ChartAnalysisToolAddIn\Include_Analysis\ElementEnvironment.cpp
;	COMDAT ?Set@CLineExtEnvironment@@QAEXABV1@@Z
_TEXT	SEGMENT
_environment$ = 8					; size = 4
?Set@CLineExtEnvironment@@QAEXABV1@@Z PROC		; CLineExtEnvironment::Set, COMDAT
; _this$ = ecx

; 699  : {

  00000	55		 push	 ebp
  00001	8b ec		 mov	 ebp, esp

; 700  : 	m_nLeftExt = environment.GetLeftExt();

  00003	8b 55 08	 mov	 edx, DWORD PTR _environment$[ebp]
  00006	8b 02		 mov	 eax, DWORD PTR [edx]
  00008	89 01		 mov	 DWORD PTR [ecx], eax

; 701  : 	m_nRightExt = environment.GetRightExt();

  0000a	8b 42 04	 mov	 eax, DWORD PTR [edx+4]
  0000d	89 41 04	 mov	 DWORD PTR [ecx+4], eax

; 702  : }

  00010	5d		 pop	 ebp
  00011	c2 04 00	 ret	 4
?Set@CLineExtEnvironment@@QAEXABV1@@Z ENDP		; CLineExtEnvironment::Set
_TEXT	ENDS
; Function compile flags: /Ogtp
; File D:\git\src\IBK\IBK_DRFN\ProjSrc\SrcChartEx\ChartAddIn\ChartAnalysisToolAddIn\Include_Analysis\ElementEnvironment.cpp
;	COMDAT ??0CLineExtEnvironment@@QAE@PAV0@@Z
_TEXT	SEGMENT
_pEnvironment$ = 8					; size = 4
??0CLineExtEnvironment@@QAE@PAV0@@Z PROC		; CLineExtEnvironment::CLineExtEnvironment, COMDAT
; _this$ = ecx

; 689  : {

  00000	55		 push	 ebp
  00001	8b ec		 mov	 ebp, esp

; 690  : 	if(pEnvironment == NULL)

  00003	8b 55 08	 mov	 edx, DWORD PTR _pEnvironment$[ebp]
  00006	85 d2		 test	 edx, edx
  00008	74 0a		 je	 SHORT $LN4@CLineExtEn

; 691  : 		return;
; 692  : 
; 693  : 	m_nLeftExt = pEnvironment->GetLeftExt();

  0000a	8b 02		 mov	 eax, DWORD PTR [edx]
  0000c	89 01		 mov	 DWORD PTR [ecx], eax

; 694  : 	m_nRightExt = pEnvironment->GetRightExt();

  0000e	8b 42 04	 mov	 eax, DWORD PTR [edx+4]
  00011	89 41 04	 mov	 DWORD PTR [ecx+4], eax
$LN4@CLineExtEn:

; 695  : }

  00014	8b c1		 mov	 eax, ecx
  00016	5d		 pop	 ebp
  00017	c2 04 00	 ret	 4
??0CLineExtEnvironment@@QAE@PAV0@@Z ENDP		; CLineExtEnvironment::CLineExtEnvironment
_TEXT	ENDS
; Function compile flags: /Ogtp
; File D:\git\src\IBK\IBK_DRFN\ProjSrc\SrcChartEx\ChartAddIn\ChartAnalysisToolAddIn\Include_Analysis\ElementEnvironment.cpp
;	COMDAT ??0CLineExtEnvironment@@QAE@ABV0@@Z
_TEXT	SEGMENT
_environment$ = 8					; size = 4
??0CLineExtEnvironment@@QAE@ABV0@@Z PROC		; CLineExtEnvironment::CLineExtEnvironment, COMDAT
; _this$ = ecx

; 678  : {

  00000	55		 push	 ebp
  00001	8b ec		 mov	 ebp, esp

; 679  : 	if(&environment == NULL)

  00003	8b 55 08	 mov	 edx, DWORD PTR _environment$[ebp]
  00006	85 d2		 test	 edx, edx
  00008	74 0a		 je	 SHORT $LN4@CLineExtEn

; 680  : 	{
; 681  : 		return;
; 682  : 	}
; 683  : 
; 684  : 	m_nLeftExt = environment.GetLeftExt();

  0000a	8b 02		 mov	 eax, DWORD PTR [edx]
  0000c	89 01		 mov	 DWORD PTR [ecx], eax

; 685  : 	m_nRightExt = environment.GetRightExt();

  0000e	8b 42 04	 mov	 eax, DWORD PTR [edx+4]
  00011	89 41 04	 mov	 DWORD PTR [ecx+4], eax
$LN4@CLineExtEn:

; 686  : }

  00014	8b c1		 mov	 eax, ecx
  00016	5d		 pop	 ebp
  00017	c2 04 00	 ret	 4
??0CLineExtEnvironment@@QAE@ABV0@@Z ENDP		; CLineExtEnvironment::CLineExtEnvironment
_TEXT	ENDS
; Function compile flags: /Ogtp
; File D:\git\src\IBK\IBK_DRFN\ProjSrc\SrcChartEx\ChartAddIn\ChartAnalysisToolAddIn\Include_Analysis\ElementEnvironment.cpp
;	COMDAT ??0CLineExtEnvironment@@QAE@ABH0@Z
_TEXT	SEGMENT
_nLeft$ = 8						; size = 4
_nRight$ = 12						; size = 4
??0CLineExtEnvironment@@QAE@ABH0@Z PROC			; CLineExtEnvironment::CLineExtEnvironment, COMDAT
; _this$ = ecx

; 674  : {

  00000	55		 push	 ebp
  00001	8b ec		 mov	 ebp, esp

; 672  : 	m_nLeftExt(nLeft),

  00003	8b 45 08	 mov	 eax, DWORD PTR _nLeft$[ebp]
  00006	8b 00		 mov	 eax, DWORD PTR [eax]
  00008	89 01		 mov	 DWORD PTR [ecx], eax

; 673  : 	m_nRightExt(nRight)

  0000a	8b 45 0c	 mov	 eax, DWORD PTR _nRight$[ebp]
  0000d	8b 00		 mov	 eax, DWORD PTR [eax]
  0000f	89 41 04	 mov	 DWORD PTR [ecx+4], eax

; 675  : }

  00012	8b c1		 mov	 eax, ecx
  00014	5d		 pop	 ebp
  00015	c2 08 00	 ret	 8
??0CLineExtEnvironment@@QAE@ABH0@Z ENDP			; CLineExtEnvironment::CLineExtEnvironment
_TEXT	ENDS
; Function compile flags: /Ogtp
; File D:\git\src\IBK\IBK_DRFN\ProjSrc\SrcChartEx\ChartAddIn\ChartAnalysisToolAddIn\Include_Analysis\ElementEnvironment.cpp
;	COMDAT ??0CLineExtEnvironment@@QAE@XZ
_TEXT	SEGMENT
??0CLineExtEnvironment@@QAE@XZ PROC			; CLineExtEnvironment::CLineExtEnvironment, COMDAT
; _this$ = ecx

; 666  : 	m_nLeftExt(-1),

  00000	c7 01 ff ff ff
	ff		 mov	 DWORD PTR [ecx], -1

; 669  : }

  00006	8b c1		 mov	 eax, ecx
  00008	c7 41 04 ff ff
	ff ff		 mov	 DWORD PTR [ecx+4], -1
  0000f	c3		 ret	 0
??0CLineExtEnvironment@@QAE@XZ ENDP			; CLineExtEnvironment::CLineExtEnvironment
_TEXT	ENDS
; Function compile flags: /Ogtp
; File D:\git\src\IBK\IBK_DRFN\ProjSrc\SrcChartEx\ChartAddIn\ChartAnalysisToolAddIn\Include_Analysis\ElementEnvironment.cpp
;	COMDAT ??4CLineExtEnvironment@@QAEAAV0@ABV0@@Z
_TEXT	SEGMENT
_environment$ = 8					; size = 4
??4CLineExtEnvironment@@QAEAAV0@ABV0@@Z PROC		; CLineExtEnvironment::operator=, COMDAT
; _this$ = ecx

; 656  : {

  00000	55		 push	 ebp
  00001	8b ec		 mov	 ebp, esp

; 657  : 	if(this == &environment)

  00003	8b 55 08	 mov	 edx, DWORD PTR _environment$[ebp]
  00006	3b ca		 cmp	 ecx, edx
  00008	74 0a		 je	 SHORT $LN4@operator

; 658  : 		return *this;
; 659  : 
; 660  : 	m_nLeftExt = environment.GetLeftExt();

  0000a	8b 02		 mov	 eax, DWORD PTR [edx]
  0000c	89 01		 mov	 DWORD PTR [ecx], eax

; 661  : 	m_nRightExt = environment.GetRightExt();

  0000e	8b 42 04	 mov	 eax, DWORD PTR [edx+4]
  00011	89 41 04	 mov	 DWORD PTR [ecx+4], eax
$LN4@operator:

; 662  : 	return *this;
; 663  : }

  00014	8b c1		 mov	 eax, ecx
  00016	5d		 pop	 ebp
  00017	c2 04 00	 ret	 4
??4CLineExtEnvironment@@QAEAAV0@ABV0@@Z ENDP		; CLineExtEnvironment::operator=
_TEXT	ENDS
; Function compile flags: /Ogtp
;	COMDAT ??1CDataTypeEnvironment@@QAE@XZ
_TEXT	SEGMENT
??1CDataTypeEnvironment@@QAE@XZ PROC			; CDataTypeEnvironment::~CDataTypeEnvironment, COMDAT
; _this$ = ecx
  00000	56		 push	 esi
  00001	8b f1		 mov	 esi, ecx
  00003	8d 4e 18	 lea	 ecx, DWORD PTR [esi+24]
  00006	ff 15 00 00 00
	00		 call	 DWORD PTR __imp_??1?$CStringT@DV?$StrTraitMFC_DLL@DV?$ChTraitsCRT@D@ATL@@@@@ATL@@QAE@XZ
  0000c	8d 4e 14	 lea	 ecx, DWORD PTR [esi+20]
  0000f	ff 15 00 00 00
	00		 call	 DWORD PTR __imp_??1?$CStringT@DV?$StrTraitMFC_DLL@DV?$ChTraitsCRT@D@ATL@@@@@ATL@@QAE@XZ
  00015	8d 4e 10	 lea	 ecx, DWORD PTR [esi+16]
  00018	5e		 pop	 esi
  00019	ff 25 00 00 00
	00		 jmp	 DWORD PTR __imp_??1?$CStringT@DV?$StrTraitMFC_DLL@DV?$ChTraitsCRT@D@ATL@@@@@ATL@@QAE@XZ
??1CDataTypeEnvironment@@QAE@XZ ENDP			; CDataTypeEnvironment::~CDataTypeEnvironment
_TEXT	ENDS
; Function compile flags: /Ogtp
; File D:\git\src\IBK\IBK_DRFN\ProjSrc\SrcChartEx\ChartAddIn\ChartAnalysisToolAddIn\Include_Analysis\ElementEnvironment.cpp
; File C:\Program Files (x86)\Microsoft Visual Studio\2019\Community\VC\Tools\MSVC\14.29.30133\atlmfc\include\cstringt.h
; File D:\git\src\IBK\IBK_DRFN\ProjSrc\SrcChartEx\ChartAddIn\ChartAnalysisToolAddIn\Include_Analysis\ElementEnvironment.cpp
; File C:\Program Files (x86)\Microsoft Visual Studio\2019\Community\VC\Tools\MSVC\14.29.30133\atlmfc\include\cstringt.h
; File C:\Program Files (x86)\Microsoft Visual Studio\2019\Community\VC\Tools\MSVC\14.29.30133\atlmfc\include\atlsimpstr.h
; File C:\Program Files (x86)\Microsoft Visual Studio\2019\Community\VC\Tools\MSVC\14.29.30133\atlmfc\include\cstringt.h
; File D:\git\src\IBK\IBK_DRFN\ProjSrc\SrcChartEx\ChartAddIn\ChartAnalysisToolAddIn\Include_Analysis\ElementEnvironment.cpp
; File C:\Program Files (x86)\Microsoft Visual Studio\2019\Community\VC\Tools\MSVC\14.29.30133\atlmfc\include\cstringt.h
; File D:\git\src\IBK\IBK_DRFN\ProjSrc\SrcChartEx\ChartAddIn\ChartAnalysisToolAddIn\Include_Analysis\ElementEnvironment.cpp
;	COMDAT ?GetSavedStrVert@CDataTypeEnvironment@@ABE?AV?$CStringT@DV?$StrTraitMFC_DLL@DV?$ChTraitsCRT@D@ATL@@@@@ATL@@XZ
_TEXT	SEGMENT
$T2 = -20						; size = 4
$T3 = -16						; size = 4
__$EHRec$ = -12						; size = 12
___$ReturnUdt$ = 8					; size = 4
?GetSavedStrVert@CDataTypeEnvironment@@ABE?AV?$CStringT@DV?$StrTraitMFC_DLL@DV?$ChTraitsCRT@D@ATL@@@@@ATL@@XZ PROC ; CDataTypeEnvironment::GetSavedStrVert, COMDAT
; _this$ = ecx

; 438  : {

  00000	55		 push	 ebp
  00001	8b ec		 mov	 ebp, esp
  00003	6a ff		 push	 -1
  00005	68 00 00 00 00	 push	 __ehhandler$?GetSavedStrVert@CDataTypeEnvironment@@ABE?AV?$CStringT@DV?$StrTraitMFC_DLL@DV?$ChTraitsCRT@D@ATL@@@@@ATL@@XZ
  0000a	64 a1 00 00 00
	00		 mov	 eax, DWORD PTR fs:0
  00010	50		 push	 eax
  00011	83 ec 08	 sub	 esp, 8
  00014	56		 push	 esi
  00015	a1 00 00 00 00	 mov	 eax, DWORD PTR ___security_cookie
  0001a	33 c5		 xor	 eax, ebp
  0001c	50		 push	 eax
  0001d	8d 45 f4	 lea	 eax, DWORD PTR __$EHRec$[ebp]
  00020	64 a3 00 00 00
	00		 mov	 DWORD PTR fs:0, eax
  00026	c7 45 ec 00 00
	00 00		 mov	 DWORD PTR $T2[ebp], 0

; 439  : 	return ("<StrVert>" + m_strVert + "<\\StrVert>\r\n");

  0002d	8d 71 18	 lea	 esi, DWORD PTR [ecx+24]
; File C:\Program Files (x86)\Microsoft Visual Studio\2019\Community\VC\Tools\MSVC\14.29.30133\atlmfc\include\cstringt.h

; 2412 : 		CStringT strResult( str2.GetManager() );

  00030	8b ce		 mov	 ecx, esi
; File D:\git\src\IBK\IBK_DRFN\ProjSrc\SrcChartEx\ChartAddIn\ChartAnalysisToolAddIn\Include_Analysis\ElementEnvironment.cpp

; 439  : 	return ("<StrVert>" + m_strVert + "<\\StrVert>\r\n");

  00032	c7 45 fc 00 00
	00 00		 mov	 DWORD PTR __$EHRec$[ebp+8], 0
; File C:\Program Files (x86)\Microsoft Visual Studio\2019\Community\VC\Tools\MSVC\14.29.30133\atlmfc\include\cstringt.h

; 2412 : 		CStringT strResult( str2.GetManager() );

  00039	ff 15 00 00 00
	00		 call	 DWORD PTR __imp_?GetManager@?$CStringT@DV?$StrTraitMFC_DLL@DV?$ChTraitsCRT@D@ATL@@@@@ATL@@QBEPAUIAtlStringMgr@2@XZ
  0003f	50		 push	 eax
  00040	8d 4d f0	 lea	 ecx, DWORD PTR $T3[ebp]
  00043	ff 15 00 00 00
	00		 call	 DWORD PTR __imp_??0?$CStringT@DV?$StrTraitMFC_DLL@DV?$ChTraitsCRT@D@ATL@@@@@ATL@@QAE@PAUIAtlStringMgr@1@@Z
; File C:\Program Files (x86)\Microsoft Visual Studio\2019\Community\VC\Tools\MSVC\14.29.30133\atlmfc\include\atlsimpstr.h

; 519  : 		return( GetData()->nDataLength );

  00049	8b 06		 mov	 eax, DWORD PTR [esi]
; File C:\Program Files (x86)\Microsoft Visual Studio\2019\Community\VC\Tools\MSVC\14.29.30133\atlmfc\include\cstringt.h

; 2416 : 		return( strResult );

  0004b	c7 45 ec 02 00
	00 00		 mov	 DWORD PTR $T2[ebp], 2
  00052	ff 70 f4	 push	 DWORD PTR [eax-12]
  00055	50		 push	 eax
  00056	6a 09		 push	 9
  00058	8d 45 f0	 lea	 eax, DWORD PTR $T3[ebp]
  0005b	68 00 00 00 00	 push	 OFFSET ??_C@_09COIGHGNF@?$DMStrVert?$DO@
  00060	50		 push	 eax
  00061	ff 15 00 00 00
	00		 call	 DWORD PTR __imp_?Concatenate@?$CSimpleStringT@D$00@ATL@@KAXAAV12@PBDH1H@Z
  00067	83 c4 14	 add	 esp, 20			; 00000014H

; 2401 : 		CStringT strResult( str1.GetManager() );

  0006a	8d 4d f0	 lea	 ecx, DWORD PTR $T3[ebp]
; File D:\git\src\IBK\IBK_DRFN\ProjSrc\SrcChartEx\ChartAddIn\ChartAnalysisToolAddIn\Include_Analysis\ElementEnvironment.cpp

; 439  : 	return ("<StrVert>" + m_strVert + "<\\StrVert>\r\n");

  0006d	c6 45 fc 01	 mov	 BYTE PTR __$EHRec$[ebp+8], 1
; File C:\Program Files (x86)\Microsoft Visual Studio\2019\Community\VC\Tools\MSVC\14.29.30133\atlmfc\include\cstringt.h

; 2401 : 		CStringT strResult( str1.GetManager() );

  00071	ff 15 00 00 00
	00		 call	 DWORD PTR __imp_?GetManager@?$CStringT@DV?$StrTraitMFC_DLL@DV?$ChTraitsCRT@D@ATL@@@@@ATL@@QBEPAUIAtlStringMgr@2@XZ
  00077	8b 75 08	 mov	 esi, DWORD PTR ___$ReturnUdt$[ebp]
  0007a	8b ce		 mov	 ecx, esi
  0007c	50		 push	 eax
  0007d	ff 15 00 00 00
	00		 call	 DWORD PTR __imp_??0?$CStringT@DV?$StrTraitMFC_DLL@DV?$ChTraitsCRT@D@ATL@@@@@ATL@@QAE@PAUIAtlStringMgr@1@@Z

; 2402 : 
; 2403 : 		CThisSimpleString::Concatenate( strResult, str1, str1.GetLength(), psz2, CThisSimpleString::StringLength( psz2 ) );

  00083	8b 4d f0	 mov	 ecx, DWORD PTR $T3[ebp]
  00086	6a 0c		 push	 12			; 0000000cH
  00088	68 00 00 00 00	 push	 OFFSET ??_C@_0N@HGCOAIDN@?$DM?2StrVert?$DO?$AN?6@

; 2404 : 
; 2405 : 		return( strResult );

  0008d	c7 45 ec 06 00
	00 00		 mov	 DWORD PTR $T2[ebp], 6
  00094	ff 71 f4	 push	 DWORD PTR [ecx-12]
  00097	51		 push	 ecx
  00098	56		 push	 esi
  00099	ff 15 00 00 00
	00		 call	 DWORD PTR __imp_?Concatenate@?$CSimpleStringT@D$00@ATL@@KAXAAV12@PBDH1H@Z
  0009f	83 c4 14	 add	 esp, 20			; 00000014H
; File D:\git\src\IBK\IBK_DRFN\ProjSrc\SrcChartEx\ChartAddIn\ChartAnalysisToolAddIn\Include_Analysis\ElementEnvironment.cpp

; 439  : 	return ("<StrVert>" + m_strVert + "<\\StrVert>\r\n");

  000a2	8d 4d f0	 lea	 ecx, DWORD PTR $T3[ebp]
  000a5	ff 15 00 00 00
	00		 call	 DWORD PTR __imp_??1?$CStringT@DV?$StrTraitMFC_DLL@DV?$ChTraitsCRT@D@ATL@@@@@ATL@@QAE@XZ
  000ab	8b c6		 mov	 eax, esi

; 440  : }

  000ad	8b 4d f4	 mov	 ecx, DWORD PTR __$EHRec$[ebp]
  000b0	64 89 0d 00 00
	00 00		 mov	 DWORD PTR fs:0, ecx
  000b7	59		 pop	 ecx
  000b8	5e		 pop	 esi
  000b9	8b e5		 mov	 esp, ebp
  000bb	5d		 pop	 ebp
  000bc	c2 04 00	 ret	 4
_TEXT	ENDS
;	COMDAT text$x
text$x	SEGMENT
__unwindfunclet$?GetSavedStrVert@CDataTypeEnvironment@@ABE?AV?$CStringT@DV?$StrTraitMFC_DLL@DV?$ChTraitsCRT@D@ATL@@@@@ATL@@XZ$2:
  00000	8b 45 ec	 mov	 eax, DWORD PTR $T2[ebp]
  00003	83 e0 02	 and	 eax, 2
  00006	0f 84 0d 00 00
	00		 je	 $LN9@GetSavedSt
  0000c	83 65 ec fd	 and	 DWORD PTR $T2[ebp], -3	; fffffffdH
  00010	8d 4d f0	 lea	 ecx, DWORD PTR $T3[ebp]
  00013	ff 25 00 00 00
	00		 jmp	 DWORD PTR __imp_??1?$CStringT@DV?$StrTraitMFC_DLL@DV?$ChTraitsCRT@D@ATL@@@@@ATL@@QAE@XZ
$LN9@GetSavedSt:
  00019	c3		 ret	 0
__unwindfunclet$?GetSavedStrVert@CDataTypeEnvironment@@ABE?AV?$CStringT@DV?$StrTraitMFC_DLL@DV?$ChTraitsCRT@D@ATL@@@@@ATL@@XZ$3:
  0001a	8b 45 ec	 mov	 eax, DWORD PTR $T2[ebp]
  0001d	83 e0 04	 and	 eax, 4
  00020	0f 84 0d 00 00
	00		 je	 $LN22@GetSavedSt
  00026	83 65 ec fb	 and	 DWORD PTR $T2[ebp], -5	; fffffffbH
  0002a	8b 4d 08	 mov	 ecx, DWORD PTR ___$ReturnUdt$[ebp]
  0002d	ff 25 00 00 00
	00		 jmp	 DWORD PTR __imp_??1?$CStringT@DV?$StrTraitMFC_DLL@DV?$ChTraitsCRT@D@ATL@@@@@ATL@@QAE@XZ
$LN22@GetSavedSt:
  00033	c3		 ret	 0
  00034	cc		 int	 3
  00035	cc		 int	 3
  00036	cc		 int	 3
  00037	cc		 int	 3
  00038	cc		 int	 3
__ehhandler$?GetSavedStrVert@CDataTypeEnvironment@@ABE?AV?$CStringT@DV?$StrTraitMFC_DLL@DV?$ChTraitsCRT@D@ATL@@@@@ATL@@XZ:
  00039	90		 npad	 1
  0003a	90		 npad	 1
  0003b	8b 54 24 08	 mov	 edx, DWORD PTR [esp+8]
  0003f	8d 42 0c	 lea	 eax, DWORD PTR [edx+12]
  00042	8b 4a f0	 mov	 ecx, DWORD PTR [edx-16]
  00045	33 c8		 xor	 ecx, eax
  00047	e8 00 00 00 00	 call	 @__security_check_cookie@4
  0004c	b8 00 00 00 00	 mov	 eax, OFFSET __ehfuncinfo$?GetSavedStrVert@CDataTypeEnvironment@@ABE?AV?$CStringT@DV?$StrTraitMFC_DLL@DV?$ChTraitsCRT@D@ATL@@@@@ATL@@XZ
  00051	e9 00 00 00 00	 jmp	 ___CxxFrameHandler3
text$x	ENDS
?GetSavedStrVert@CDataTypeEnvironment@@ABE?AV?$CStringT@DV?$StrTraitMFC_DLL@DV?$ChTraitsCRT@D@ATL@@@@@ATL@@XZ ENDP ; CDataTypeEnvironment::GetSavedStrVert
; Function compile flags: /Ogtp
; File D:\git\src\IBK\IBK_DRFN\ProjSrc\SrcChartEx\ChartAddIn\ChartAnalysisToolAddIn\Include_Analysis\ElementEnvironment.cpp
; File C:\Program Files (x86)\Microsoft Visual Studio\2019\Community\VC\Tools\MSVC\14.29.30133\atlmfc\include\cstringt.h
; File D:\git\src\IBK\IBK_DRFN\ProjSrc\SrcChartEx\ChartAddIn\ChartAnalysisToolAddIn\Include_Analysis\ElementEnvironment.cpp
; File C:\Program Files (x86)\Microsoft Visual Studio\2019\Community\VC\Tools\MSVC\14.29.30133\atlmfc\include\cstringt.h
; File C:\Program Files (x86)\Microsoft Visual Studio\2019\Community\VC\Tools\MSVC\14.29.30133\atlmfc\include\atlsimpstr.h
; File C:\Program Files (x86)\Microsoft Visual Studio\2019\Community\VC\Tools\MSVC\14.29.30133\atlmfc\include\cstringt.h
; File D:\git\src\IBK\IBK_DRFN\ProjSrc\SrcChartEx\ChartAddIn\ChartAnalysisToolAddIn\Include_Analysis\ElementEnvironment.cpp
; File C:\Program Files (x86)\Microsoft Visual Studio\2019\Community\VC\Tools\MSVC\14.29.30133\atlmfc\include\cstringt.h
; File D:\git\src\IBK\IBK_DRFN\ProjSrc\SrcChartEx\ChartAddIn\ChartAnalysisToolAddIn\Include_Analysis\ElementEnvironment.cpp
;	COMDAT ?GetSavedExtData@CDataTypeEnvironment@@ABE?AV?$CStringT@DV?$StrTraitMFC_DLL@DV?$ChTraitsCRT@D@ATL@@@@@ATL@@XZ
_TEXT	SEGMENT
$T2 = -20						; size = 4
$T3 = -16						; size = 4
__$EHRec$ = -12						; size = 12
___$ReturnUdt$ = 8					; size = 4
?GetSavedExtData@CDataTypeEnvironment@@ABE?AV?$CStringT@DV?$StrTraitMFC_DLL@DV?$ChTraitsCRT@D@ATL@@@@@ATL@@XZ PROC ; CDataTypeEnvironment::GetSavedExtData, COMDAT
; _this$ = ecx

; 432  : {

  00000	55		 push	 ebp
  00001	8b ec		 mov	 ebp, esp
  00003	6a ff		 push	 -1
  00005	68 00 00 00 00	 push	 __ehhandler$?GetSavedExtData@CDataTypeEnvironment@@ABE?AV?$CStringT@DV?$StrTraitMFC_DLL@DV?$ChTraitsCRT@D@ATL@@@@@ATL@@XZ
  0000a	64 a1 00 00 00
	00		 mov	 eax, DWORD PTR fs:0
  00010	50		 push	 eax
  00011	83 ec 08	 sub	 esp, 8
  00014	56		 push	 esi
  00015	a1 00 00 00 00	 mov	 eax, DWORD PTR ___security_cookie
  0001a	33 c5		 xor	 eax, ebp
  0001c	50		 push	 eax
  0001d	8d 45 f4	 lea	 eax, DWORD PTR __$EHRec$[ebp]
  00020	64 a3 00 00 00
	00		 mov	 DWORD PTR fs:0, eax
  00026	c7 45 ec 00 00
	00 00		 mov	 DWORD PTR $T2[ebp], 0

; 433  : 	return ("<ExtData>" + m_strExtData + "<\\ExtData>\r\n");

  0002d	8d 71 14	 lea	 esi, DWORD PTR [ecx+20]
; File C:\Program Files (x86)\Microsoft Visual Studio\2019\Community\VC\Tools\MSVC\14.29.30133\atlmfc\include\cstringt.h

; 2412 : 		CStringT strResult( str2.GetManager() );

  00030	8b ce		 mov	 ecx, esi
; File D:\git\src\IBK\IBK_DRFN\ProjSrc\SrcChartEx\ChartAddIn\ChartAnalysisToolAddIn\Include_Analysis\ElementEnvironment.cpp

; 433  : 	return ("<ExtData>" + m_strExtData + "<\\ExtData>\r\n");

  00032	c7 45 fc 00 00
	00 00		 mov	 DWORD PTR __$EHRec$[ebp+8], 0
; File C:\Program Files (x86)\Microsoft Visual Studio\2019\Community\VC\Tools\MSVC\14.29.30133\atlmfc\include\cstringt.h

; 2412 : 		CStringT strResult( str2.GetManager() );

  00039	ff 15 00 00 00
	00		 call	 DWORD PTR __imp_?GetManager@?$CStringT@DV?$StrTraitMFC_DLL@DV?$ChTraitsCRT@D@ATL@@@@@ATL@@QBEPAUIAtlStringMgr@2@XZ
  0003f	50		 push	 eax
  00040	8d 4d f0	 lea	 ecx, DWORD PTR $T3[ebp]
  00043	ff 15 00 00 00
	00		 call	 DWORD PTR __imp_??0?$CStringT@DV?$StrTraitMFC_DLL@DV?$ChTraitsCRT@D@ATL@@@@@ATL@@QAE@PAUIAtlStringMgr@1@@Z
; File C:\Program Files (x86)\Microsoft Visual Studio\2019\Community\VC\Tools\MSVC\14.29.30133\atlmfc\include\atlsimpstr.h

; 519  : 		return( GetData()->nDataLength );

  00049	8b 06		 mov	 eax, DWORD PTR [esi]
; File C:\Program Files (x86)\Microsoft Visual Studio\2019\Community\VC\Tools\MSVC\14.29.30133\atlmfc\include\cstringt.h

; 2416 : 		return( strResult );

  0004b	c7 45 ec 02 00
	00 00		 mov	 DWORD PTR $T2[ebp], 2
  00052	ff 70 f4	 push	 DWORD PTR [eax-12]
  00055	50		 push	 eax
  00056	6a 09		 push	 9
  00058	8d 45 f0	 lea	 eax, DWORD PTR $T3[ebp]
  0005b	68 00 00 00 00	 push	 OFFSET ??_C@_09EBDLFGEM@?$DMExtData?$DO@
  00060	50		 push	 eax
  00061	ff 15 00 00 00
	00		 call	 DWORD PTR __imp_?Concatenate@?$CSimpleStringT@D$00@ATL@@KAXAAV12@PBDH1H@Z
  00067	83 c4 14	 add	 esp, 20			; 00000014H

; 2401 : 		CStringT strResult( str1.GetManager() );

  0006a	8d 4d f0	 lea	 ecx, DWORD PTR $T3[ebp]
; File D:\git\src\IBK\IBK_DRFN\ProjSrc\SrcChartEx\ChartAddIn\ChartAnalysisToolAddIn\Include_Analysis\ElementEnvironment.cpp

; 433  : 	return ("<ExtData>" + m_strExtData + "<\\ExtData>\r\n");

  0006d	c6 45 fc 01	 mov	 BYTE PTR __$EHRec$[ebp+8], 1
; File C:\Program Files (x86)\Microsoft Visual Studio\2019\Community\VC\Tools\MSVC\14.29.30133\atlmfc\include\cstringt.h

; 2401 : 		CStringT strResult( str1.GetManager() );

  00071	ff 15 00 00 00
	00		 call	 DWORD PTR __imp_?GetManager@?$CStringT@DV?$StrTraitMFC_DLL@DV?$ChTraitsCRT@D@ATL@@@@@ATL@@QBEPAUIAtlStringMgr@2@XZ
  00077	8b 75 08	 mov	 esi, DWORD PTR ___$ReturnUdt$[ebp]
  0007a	8b ce		 mov	 ecx, esi
  0007c	50		 push	 eax
  0007d	ff 15 00 00 00
	00		 call	 DWORD PTR __imp_??0?$CStringT@DV?$StrTraitMFC_DLL@DV?$ChTraitsCRT@D@ATL@@@@@ATL@@QAE@PAUIAtlStringMgr@1@@Z

; 2402 : 
; 2403 : 		CThisSimpleString::Concatenate( strResult, str1, str1.GetLength(), psz2, CThisSimpleString::StringLength( psz2 ) );

  00083	8b 4d f0	 mov	 ecx, DWORD PTR $T3[ebp]
  00086	6a 0c		 push	 12			; 0000000cH
  00088	68 00 00 00 00	 push	 OFFSET ??_C@_0N@ONMDHGBL@?$DM?2ExtData?$DO?$AN?6@

; 2404 : 
; 2405 : 		return( strResult );

  0008d	c7 45 ec 06 00
	00 00		 mov	 DWORD PTR $T2[ebp], 6
  00094	ff 71 f4	 push	 DWORD PTR [ecx-12]
  00097	51		 push	 ecx
  00098	56		 push	 esi
  00099	ff 15 00 00 00
	00		 call	 DWORD PTR __imp_?Concatenate@?$CSimpleStringT@D$00@ATL@@KAXAAV12@PBDH1H@Z
  0009f	83 c4 14	 add	 esp, 20			; 00000014H
; File D:\git\src\IBK\IBK_DRFN\ProjSrc\SrcChartEx\ChartAddIn\ChartAnalysisToolAddIn\Include_Analysis\ElementEnvironment.cpp

; 433  : 	return ("<ExtData>" + m_strExtData + "<\\ExtData>\r\n");

  000a2	8d 4d f0	 lea	 ecx, DWORD PTR $T3[ebp]
  000a5	ff 15 00 00 00
	00		 call	 DWORD PTR __imp_??1?$CStringT@DV?$StrTraitMFC_DLL@DV?$ChTraitsCRT@D@ATL@@@@@ATL@@QAE@XZ
  000ab	8b c6		 mov	 eax, esi

; 434  : }

  000ad	8b 4d f4	 mov	 ecx, DWORD PTR __$EHRec$[ebp]
  000b0	64 89 0d 00 00
	00 00		 mov	 DWORD PTR fs:0, ecx
  000b7	59		 pop	 ecx
  000b8	5e		 pop	 esi
  000b9	8b e5		 mov	 esp, ebp
  000bb	5d		 pop	 ebp
  000bc	c2 04 00	 ret	 4
_TEXT	ENDS
;	COMDAT text$x
text$x	SEGMENT
__unwindfunclet$?GetSavedExtData@CDataTypeEnvironment@@ABE?AV?$CStringT@DV?$StrTraitMFC_DLL@DV?$ChTraitsCRT@D@ATL@@@@@ATL@@XZ$2:
  00000	8b 45 ec	 mov	 eax, DWORD PTR $T2[ebp]
  00003	83 e0 02	 and	 eax, 2
  00006	0f 84 0d 00 00
	00		 je	 $LN9@GetSavedEx
  0000c	83 65 ec fd	 and	 DWORD PTR $T2[ebp], -3	; fffffffdH
  00010	8d 4d f0	 lea	 ecx, DWORD PTR $T3[ebp]
  00013	ff 25 00 00 00
	00		 jmp	 DWORD PTR __imp_??1?$CStringT@DV?$StrTraitMFC_DLL@DV?$ChTraitsCRT@D@ATL@@@@@ATL@@QAE@XZ
$LN9@GetSavedEx:
  00019	c3		 ret	 0
__unwindfunclet$?GetSavedExtData@CDataTypeEnvironment@@ABE?AV?$CStringT@DV?$StrTraitMFC_DLL@DV?$ChTraitsCRT@D@ATL@@@@@ATL@@XZ$3:
  0001a	8b 45 ec	 mov	 eax, DWORD PTR $T2[ebp]
  0001d	83 e0 04	 and	 eax, 4
  00020	0f 84 0d 00 00
	00		 je	 $LN22@GetSavedEx
  00026	83 65 ec fb	 and	 DWORD PTR $T2[ebp], -5	; fffffffbH
  0002a	8b 4d 08	 mov	 ecx, DWORD PTR ___$ReturnUdt$[ebp]
  0002d	ff 25 00 00 00
	00		 jmp	 DWORD PTR __imp_??1?$CStringT@DV?$StrTraitMFC_DLL@DV?$ChTraitsCRT@D@ATL@@@@@ATL@@QAE@XZ
$LN22@GetSavedEx:
  00033	c3		 ret	 0
  00034	cc		 int	 3
  00035	cc		 int	 3
  00036	cc		 int	 3
  00037	cc		 int	 3
  00038	cc		 int	 3
__ehhandler$?GetSavedExtData@CDataTypeEnvironment@@ABE?AV?$CStringT@DV?$StrTraitMFC_DLL@DV?$ChTraitsCRT@D@ATL@@@@@ATL@@XZ:
  00039	90		 npad	 1
  0003a	90		 npad	 1
  0003b	8b 54 24 08	 mov	 edx, DWORD PTR [esp+8]
  0003f	8d 42 0c	 lea	 eax, DWORD PTR [edx+12]
  00042	8b 4a f0	 mov	 ecx, DWORD PTR [edx-16]
  00045	33 c8		 xor	 ecx, eax
  00047	e8 00 00 00 00	 call	 @__security_check_cookie@4
  0004c	b8 00 00 00 00	 mov	 eax, OFFSET __ehfuncinfo$?GetSavedExtData@CDataTypeEnvironment@@ABE?AV?$CStringT@DV?$StrTraitMFC_DLL@DV?$ChTraitsCRT@D@ATL@@@@@ATL@@XZ
  00051	e9 00 00 00 00	 jmp	 ___CxxFrameHandler3
text$x	ENDS
?GetSavedExtData@CDataTypeEnvironment@@ABE?AV?$CStringT@DV?$StrTraitMFC_DLL@DV?$ChTraitsCRT@D@ATL@@@@@ATL@@XZ ENDP ; CDataTypeEnvironment::GetSavedExtData
; Function compile flags: /Ogtp
; File D:\git\src\IBK\IBK_DRFN\ProjSrc\SrcChartEx\ChartAddIn\ChartAnalysisToolAddIn\Include_Analysis\ElementEnvironment.cpp
; File C:\Program Files (x86)\Microsoft Visual Studio\2019\Community\VC\Tools\MSVC\14.29.30133\atlmfc\include\cstringt.h
; File D:\git\src\IBK\IBK_DRFN\ProjSrc\SrcChartEx\ChartAddIn\ChartAnalysisToolAddIn\Include_Analysis\ElementEnvironment.cpp
; File C:\Program Files (x86)\Microsoft Visual Studio\2019\Community\VC\Tools\MSVC\14.29.30133\atlmfc\include\cstringt.h
; File C:\Program Files (x86)\Microsoft Visual Studio\2019\Community\VC\Tools\MSVC\14.29.30133\atlmfc\include\atlsimpstr.h
; File C:\Program Files (x86)\Microsoft Visual Studio\2019\Community\VC\Tools\MSVC\14.29.30133\atlmfc\include\cstringt.h
; File D:\git\src\IBK\IBK_DRFN\ProjSrc\SrcChartEx\ChartAddIn\ChartAnalysisToolAddIn\Include_Analysis\ElementEnvironment.cpp
; File C:\Program Files (x86)\Microsoft Visual Studio\2019\Community\VC\Tools\MSVC\14.29.30133\atlmfc\include\cstringt.h
; File D:\git\src\IBK\IBK_DRFN\ProjSrc\SrcChartEx\ChartAddIn\ChartAnalysisToolAddIn\Include_Analysis\ElementEnvironment.cpp
;	COMDAT ?GetSavedHorz@CDataTypeEnvironment@@ABE?AV?$CStringT@DV?$StrTraitMFC_DLL@DV?$ChTraitsCRT@D@ATL@@@@@ATL@@XZ
_TEXT	SEGMENT
$T2 = -20						; size = 4
$T3 = -16						; size = 4
__$EHRec$ = -12						; size = 12
___$ReturnUdt$ = 8					; size = 4
?GetSavedHorz@CDataTypeEnvironment@@ABE?AV?$CStringT@DV?$StrTraitMFC_DLL@DV?$ChTraitsCRT@D@ATL@@@@@ATL@@XZ PROC ; CDataTypeEnvironment::GetSavedHorz, COMDAT
; _this$ = ecx

; 426  : {

  00000	55		 push	 ebp
  00001	8b ec		 mov	 ebp, esp
  00003	6a ff		 push	 -1
  00005	68 00 00 00 00	 push	 __ehhandler$?GetSavedHorz@CDataTypeEnvironment@@ABE?AV?$CStringT@DV?$StrTraitMFC_DLL@DV?$ChTraitsCRT@D@ATL@@@@@ATL@@XZ
  0000a	64 a1 00 00 00
	00		 mov	 eax, DWORD PTR fs:0
  00010	50		 push	 eax
  00011	83 ec 08	 sub	 esp, 8
  00014	56		 push	 esi
  00015	a1 00 00 00 00	 mov	 eax, DWORD PTR ___security_cookie
  0001a	33 c5		 xor	 eax, ebp
  0001c	50		 push	 eax
  0001d	8d 45 f4	 lea	 eax, DWORD PTR __$EHRec$[ebp]
  00020	64 a3 00 00 00
	00		 mov	 DWORD PTR fs:0, eax
  00026	c7 45 ec 00 00
	00 00		 mov	 DWORD PTR $T2[ebp], 0

; 427  : 	return ("<Horz>" + m_strHorz + "<\\Horz>\r\n");

  0002d	8d 71 10	 lea	 esi, DWORD PTR [ecx+16]
; File C:\Program Files (x86)\Microsoft Visual Studio\2019\Community\VC\Tools\MSVC\14.29.30133\atlmfc\include\cstringt.h

; 2412 : 		CStringT strResult( str2.GetManager() );

  00030	8b ce		 mov	 ecx, esi
; File D:\git\src\IBK\IBK_DRFN\ProjSrc\SrcChartEx\ChartAddIn\ChartAnalysisToolAddIn\Include_Analysis\ElementEnvironment.cpp

; 427  : 	return ("<Horz>" + m_strHorz + "<\\Horz>\r\n");

  00032	c7 45 fc 00 00
	00 00		 mov	 DWORD PTR __$EHRec$[ebp+8], 0
; File C:\Program Files (x86)\Microsoft Visual Studio\2019\Community\VC\Tools\MSVC\14.29.30133\atlmfc\include\cstringt.h

; 2412 : 		CStringT strResult( str2.GetManager() );

  00039	ff 15 00 00 00
	00		 call	 DWORD PTR __imp_?GetManager@?$CStringT@DV?$StrTraitMFC_DLL@DV?$ChTraitsCRT@D@ATL@@@@@ATL@@QBEPAUIAtlStringMgr@2@XZ
  0003f	50		 push	 eax
  00040	8d 4d f0	 lea	 ecx, DWORD PTR $T3[ebp]
  00043	ff 15 00 00 00
	00		 call	 DWORD PTR __imp_??0?$CStringT@DV?$StrTraitMFC_DLL@DV?$ChTraitsCRT@D@ATL@@@@@ATL@@QAE@PAUIAtlStringMgr@1@@Z
; File C:\Program Files (x86)\Microsoft Visual Studio\2019\Community\VC\Tools\MSVC\14.29.30133\atlmfc\include\atlsimpstr.h

; 519  : 		return( GetData()->nDataLength );

  00049	8b 06		 mov	 eax, DWORD PTR [esi]
; File C:\Program Files (x86)\Microsoft Visual Studio\2019\Community\VC\Tools\MSVC\14.29.30133\atlmfc\include\cstringt.h

; 2416 : 		return( strResult );

  0004b	c7 45 ec 02 00
	00 00		 mov	 DWORD PTR $T2[ebp], 2
  00052	ff 70 f4	 push	 DWORD PTR [eax-12]
  00055	50		 push	 eax
  00056	6a 06		 push	 6
  00058	8d 45 f0	 lea	 eax, DWORD PTR $T3[ebp]
  0005b	68 00 00 00 00	 push	 OFFSET ??_C@_06CMKMBJNG@?$DMHorz?$DO@
  00060	50		 push	 eax
  00061	ff 15 00 00 00
	00		 call	 DWORD PTR __imp_?Concatenate@?$CSimpleStringT@D$00@ATL@@KAXAAV12@PBDH1H@Z
  00067	83 c4 14	 add	 esp, 20			; 00000014H

; 2401 : 		CStringT strResult( str1.GetManager() );

  0006a	8d 4d f0	 lea	 ecx, DWORD PTR $T3[ebp]
; File D:\git\src\IBK\IBK_DRFN\ProjSrc\SrcChartEx\ChartAddIn\ChartAnalysisToolAddIn\Include_Analysis\ElementEnvironment.cpp

; 427  : 	return ("<Horz>" + m_strHorz + "<\\Horz>\r\n");

  0006d	c6 45 fc 01	 mov	 BYTE PTR __$EHRec$[ebp+8], 1
; File C:\Program Files (x86)\Microsoft Visual Studio\2019\Community\VC\Tools\MSVC\14.29.30133\atlmfc\include\cstringt.h

; 2401 : 		CStringT strResult( str1.GetManager() );

  00071	ff 15 00 00 00
	00		 call	 DWORD PTR __imp_?GetManager@?$CStringT@DV?$StrTraitMFC_DLL@DV?$ChTraitsCRT@D@ATL@@@@@ATL@@QBEPAUIAtlStringMgr@2@XZ
  00077	8b 75 08	 mov	 esi, DWORD PTR ___$ReturnUdt$[ebp]
  0007a	8b ce		 mov	 ecx, esi
  0007c	50		 push	 eax
  0007d	ff 15 00 00 00
	00		 call	 DWORD PTR __imp_??0?$CStringT@DV?$StrTraitMFC_DLL@DV?$ChTraitsCRT@D@ATL@@@@@ATL@@QAE@PAUIAtlStringMgr@1@@Z

; 2402 : 
; 2403 : 		CThisSimpleString::Concatenate( strResult, str1, str1.GetLength(), psz2, CThisSimpleString::StringLength( psz2 ) );

  00083	8b 4d f0	 mov	 ecx, DWORD PTR $T3[ebp]
  00086	6a 09		 push	 9
  00088	68 00 00 00 00	 push	 OFFSET ??_C@_09GKBBACOG@?$DM?2Horz?$DO?$AN?6@

; 2404 : 
; 2405 : 		return( strResult );

  0008d	c7 45 ec 06 00
	00 00		 mov	 DWORD PTR $T2[ebp], 6
  00094	ff 71 f4	 push	 DWORD PTR [ecx-12]
  00097	51		 push	 ecx
  00098	56		 push	 esi
  00099	ff 15 00 00 00
	00		 call	 DWORD PTR __imp_?Concatenate@?$CSimpleStringT@D$00@ATL@@KAXAAV12@PBDH1H@Z
  0009f	83 c4 14	 add	 esp, 20			; 00000014H
; File D:\git\src\IBK\IBK_DRFN\ProjSrc\SrcChartEx\ChartAddIn\ChartAnalysisToolAddIn\Include_Analysis\ElementEnvironment.cpp

; 427  : 	return ("<Horz>" + m_strHorz + "<\\Horz>\r\n");

  000a2	8d 4d f0	 lea	 ecx, DWORD PTR $T3[ebp]
  000a5	ff 15 00 00 00
	00		 call	 DWORD PTR __imp_??1?$CStringT@DV?$StrTraitMFC_DLL@DV?$ChTraitsCRT@D@ATL@@@@@ATL@@QAE@XZ
  000ab	8b c6		 mov	 eax, esi

; 428  : }

  000ad	8b 4d f4	 mov	 ecx, DWORD PTR __$EHRec$[ebp]
  000b0	64 89 0d 00 00
	00 00		 mov	 DWORD PTR fs:0, ecx
  000b7	59		 pop	 ecx
  000b8	5e		 pop	 esi
  000b9	8b e5		 mov	 esp, ebp
  000bb	5d		 pop	 ebp
  000bc	c2 04 00	 ret	 4
_TEXT	ENDS
;	COMDAT text$x
text$x	SEGMENT
__unwindfunclet$?GetSavedHorz@CDataTypeEnvironment@@ABE?AV?$CStringT@DV?$StrTraitMFC_DLL@DV?$ChTraitsCRT@D@ATL@@@@@ATL@@XZ$2:
  00000	8b 45 ec	 mov	 eax, DWORD PTR $T2[ebp]
  00003	83 e0 02	 and	 eax, 2
  00006	0f 84 0d 00 00
	00		 je	 $LN9@GetSavedHo
  0000c	83 65 ec fd	 and	 DWORD PTR $T2[ebp], -3	; fffffffdH
  00010	8d 4d f0	 lea	 ecx, DWORD PTR $T3[ebp]
  00013	ff 25 00 00 00
	00		 jmp	 DWORD PTR __imp_??1?$CStringT@DV?$StrTraitMFC_DLL@DV?$ChTraitsCRT@D@ATL@@@@@ATL@@QAE@XZ
$LN9@GetSavedHo:
  00019	c3		 ret	 0
__unwindfunclet$?GetSavedHorz@CDataTypeEnvironment@@ABE?AV?$CStringT@DV?$StrTraitMFC_DLL@DV?$ChTraitsCRT@D@ATL@@@@@ATL@@XZ$3:
  0001a	8b 45 ec	 mov	 eax, DWORD PTR $T2[ebp]
  0001d	83 e0 04	 and	 eax, 4
  00020	0f 84 0d 00 00
	00		 je	 $LN22@GetSavedHo
  00026	83 65 ec fb	 and	 DWORD PTR $T2[ebp], -5	; fffffffbH
  0002a	8b 4d 08	 mov	 ecx, DWORD PTR ___$ReturnUdt$[ebp]
  0002d	ff 25 00 00 00
	00		 jmp	 DWORD PTR __imp_??1?$CStringT@DV?$StrTraitMFC_DLL@DV?$ChTraitsCRT@D@ATL@@@@@ATL@@QAE@XZ
$LN22@GetSavedHo:
  00033	c3		 ret	 0
  00034	cc		 int	 3
  00035	cc		 int	 3
  00036	cc		 int	 3
  00037	cc		 int	 3
  00038	cc		 int	 3
__ehhandler$?GetSavedHorz@CDataTypeEnvironment@@ABE?AV?$CStringT@DV?$StrTraitMFC_DLL@DV?$ChTraitsCRT@D@ATL@@@@@ATL@@XZ:
  00039	90		 npad	 1
  0003a	90		 npad	 1
  0003b	8b 54 24 08	 mov	 edx, DWORD PTR [esp+8]
  0003f	8d 42 0c	 lea	 eax, DWORD PTR [edx+12]
  00042	8b 4a f0	 mov	 ecx, DWORD PTR [edx-16]
  00045	33 c8		 xor	 ecx, eax
  00047	e8 00 00 00 00	 call	 @__security_check_cookie@4
  0004c	b8 00 00 00 00	 mov	 eax, OFFSET __ehfuncinfo$?GetSavedHorz@CDataTypeEnvironment@@ABE?AV?$CStringT@DV?$StrTraitMFC_DLL@DV?$ChTraitsCRT@D@ATL@@@@@ATL@@XZ
  00051	e9 00 00 00 00	 jmp	 ___CxxFrameHandler3
text$x	ENDS
?GetSavedHorz@CDataTypeEnvironment@@ABE?AV?$CStringT@DV?$StrTraitMFC_DLL@DV?$ChTraitsCRT@D@ATL@@@@@ATL@@XZ ENDP ; CDataTypeEnvironment::GetSavedHorz
; Function compile flags: /Ogtp
; File D:\git\src\IBK\IBK_DRFN\ProjSrc\SrcChartEx\ChartAddIn\ChartAnalysisToolAddIn\Include_Analysis\ElementEnvironment.cpp
; File C:\Program Files (x86)\Microsoft Visual Studio\2019\Community\VC\Tools\MSVC\14.29.30133\atlmfc\include\cstringt.h
; File D:\git\src\IBK\IBK_DRFN\ProjSrc\SrcChartEx\ChartAddIn\ChartAnalysisToolAddIn\Include_Analysis\ElementEnvironment.cpp
; File C:\Program Files (x86)\Microsoft Visual Studio\2019\Community\VC\Tools\MSVC\14.29.30133\atlmfc\include\cstringt.h
; File C:\Program Files (x86)\Microsoft Visual Studio\2019\Community\VC\Tools\MSVC\14.29.30133\atlmfc\include\atlsimpstr.h
; File C:\Program Files (x86)\Microsoft Visual Studio\2019\Community\VC\Tools\MSVC\14.29.30133\atlmfc\include\cstringt.h
; File D:\git\src\IBK\IBK_DRFN\ProjSrc\SrcChartEx\ChartAddIn\ChartAnalysisToolAddIn\Include_Analysis\ElementEnvironment.cpp
;	COMDAT ?GetSavedVert@CDataTypeEnvironment@@ABE?AV?$CStringT@DV?$StrTraitMFC_DLL@DV?$ChTraitsCRT@D@ATL@@@@@ATL@@XZ
_TEXT	SEGMENT
$T2 = -24						; size = 4
$T3 = -20						; size = 4
$T4 = -16						; size = 4
__$EHRec$ = -12						; size = 12
___$ReturnUdt$ = 8					; size = 4
?GetSavedVert@CDataTypeEnvironment@@ABE?AV?$CStringT@DV?$StrTraitMFC_DLL@DV?$ChTraitsCRT@D@ATL@@@@@ATL@@XZ PROC ; CDataTypeEnvironment::GetSavedVert, COMDAT
; _this$ = ecx

; 421  : {

  00000	55		 push	 ebp
  00001	8b ec		 mov	 ebp, esp
  00003	6a ff		 push	 -1
  00005	68 00 00 00 00	 push	 __ehhandler$?GetSavedVert@CDataTypeEnvironment@@ABE?AV?$CStringT@DV?$StrTraitMFC_DLL@DV?$ChTraitsCRT@D@ATL@@@@@ATL@@XZ
  0000a	64 a1 00 00 00
	00		 mov	 eax, DWORD PTR fs:0
  00010	50		 push	 eax
  00011	83 ec 0c	 sub	 esp, 12			; 0000000cH
  00014	56		 push	 esi
  00015	57		 push	 edi
  00016	a1 00 00 00 00	 mov	 eax, DWORD PTR ___security_cookie
  0001b	33 c5		 xor	 eax, ebp
  0001d	50		 push	 eax
  0001e	8d 45 f4	 lea	 eax, DWORD PTR __$EHRec$[ebp]
  00021	64 a3 00 00 00
	00		 mov	 DWORD PTR fs:0, eax

; 422  : 	return ("<Vert>" + CDataConversion::DoubleToString(m_dVert) + "<\\Vert>\r\n");

  00027	8d 41 08	 lea	 eax, DWORD PTR [ecx+8]
  0002a	c7 45 f0 00 00
	00 00		 mov	 DWORD PTR $T4[ebp], 0
  00031	50		 push	 eax
  00032	8d 45 e8	 lea	 eax, DWORD PTR $T2[ebp]
  00035	50		 push	 eax
  00036	e8 00 00 00 00	 call	 ?DoubleToString@CDataConversion@@SA?AV?$CStringT@DV?$StrTraitMFC_DLL@DV?$ChTraitsCRT@D@ATL@@@@@ATL@@ABN@Z ; CDataConversion::DoubleToString
  0003b	50		 push	 eax
  0003c	8d 45 ec	 lea	 eax, DWORD PTR $T3[ebp]
  0003f	c7 45 fc 00 00
	00 00		 mov	 DWORD PTR __$EHRec$[ebp+8], 0
  00046	68 00 00 00 00	 push	 OFFSET ??_C@_06FFFOEPJG@?$DMVert?$DO@
  0004b	50		 push	 eax
  0004c	e8 00 00 00 00	 call	 ??HATL@@YA?AV?$CStringT@DV?$StrTraitMFC_DLL@DV?$ChTraitsCRT@D@ATL@@@@@0@PBDABV10@@Z ; ATL::operator+
  00051	83 c4 14	 add	 esp, 20			; 00000014H
  00054	8b f0		 mov	 esi, eax
; File C:\Program Files (x86)\Microsoft Visual Studio\2019\Community\VC\Tools\MSVC\14.29.30133\atlmfc\include\cstringt.h

; 2401 : 		CStringT strResult( str1.GetManager() );

  00056	8b ce		 mov	 ecx, esi
; File D:\git\src\IBK\IBK_DRFN\ProjSrc\SrcChartEx\ChartAddIn\ChartAnalysisToolAddIn\Include_Analysis\ElementEnvironment.cpp

; 422  : 	return ("<Vert>" + CDataConversion::DoubleToString(m_dVert) + "<\\Vert>\r\n");

  00058	c6 45 fc 02	 mov	 BYTE PTR __$EHRec$[ebp+8], 2
; File C:\Program Files (x86)\Microsoft Visual Studio\2019\Community\VC\Tools\MSVC\14.29.30133\atlmfc\include\cstringt.h

; 2401 : 		CStringT strResult( str1.GetManager() );

  0005c	ff 15 00 00 00
	00		 call	 DWORD PTR __imp_?GetManager@?$CStringT@DV?$StrTraitMFC_DLL@DV?$ChTraitsCRT@D@ATL@@@@@ATL@@QBEPAUIAtlStringMgr@2@XZ
  00062	8b 7d 08	 mov	 edi, DWORD PTR ___$ReturnUdt$[ebp]
  00065	8b cf		 mov	 ecx, edi
  00067	50		 push	 eax
  00068	ff 15 00 00 00
	00		 call	 DWORD PTR __imp_??0?$CStringT@DV?$StrTraitMFC_DLL@DV?$ChTraitsCRT@D@ATL@@@@@ATL@@QAE@PAUIAtlStringMgr@1@@Z
; File C:\Program Files (x86)\Microsoft Visual Studio\2019\Community\VC\Tools\MSVC\14.29.30133\atlmfc\include\atlsimpstr.h

; 519  : 		return( GetData()->nDataLength );

  0006e	8b 0e		 mov	 ecx, DWORD PTR [esi]
; File C:\Program Files (x86)\Microsoft Visual Studio\2019\Community\VC\Tools\MSVC\14.29.30133\atlmfc\include\cstringt.h

; 2403 : 		CThisSimpleString::Concatenate( strResult, str1, str1.GetLength(), psz2, CThisSimpleString::StringLength( psz2 ) );

  00070	6a 09		 push	 9
  00072	68 00 00 00 00	 push	 OFFSET ??_C@_09BIGAMANA@?$DM?2Vert?$DO?$AN?6@

; 2404 : 
; 2405 : 		return( strResult );

  00077	c7 45 f0 04 00
	00 00		 mov	 DWORD PTR $T4[ebp], 4
  0007e	ff 71 f4	 push	 DWORD PTR [ecx-12]
  00081	51		 push	 ecx
  00082	57		 push	 edi
  00083	ff 15 00 00 00
	00		 call	 DWORD PTR __imp_?Concatenate@?$CSimpleStringT@D$00@ATL@@KAXAAV12@PBDH1H@Z
  00089	83 c4 14	 add	 esp, 20			; 00000014H
; File D:\git\src\IBK\IBK_DRFN\ProjSrc\SrcChartEx\ChartAddIn\ChartAnalysisToolAddIn\Include_Analysis\ElementEnvironment.cpp

; 422  : 	return ("<Vert>" + CDataConversion::DoubleToString(m_dVert) + "<\\Vert>\r\n");

  0008c	8d 4d ec	 lea	 ecx, DWORD PTR $T3[ebp]
  0008f	ff 15 00 00 00
	00		 call	 DWORD PTR __imp_??1?$CStringT@DV?$StrTraitMFC_DLL@DV?$ChTraitsCRT@D@ATL@@@@@ATL@@QAE@XZ
  00095	8d 4d e8	 lea	 ecx, DWORD PTR $T2[ebp]
  00098	ff 15 00 00 00
	00		 call	 DWORD PTR __imp_??1?$CStringT@DV?$StrTraitMFC_DLL@DV?$ChTraitsCRT@D@ATL@@@@@ATL@@QAE@XZ
  0009e	8b c7		 mov	 eax, edi

; 423  : }

  000a0	8b 4d f4	 mov	 ecx, DWORD PTR __$EHRec$[ebp]
  000a3	64 89 0d 00 00
	00 00		 mov	 DWORD PTR fs:0, ecx
  000aa	59		 pop	 ecx
  000ab	5f		 pop	 edi
  000ac	5e		 pop	 esi
  000ad	8b e5		 mov	 esp, ebp
  000af	5d		 pop	 ebp
  000b0	c2 04 00	 ret	 4
_TEXT	ENDS
;	COMDAT text$x
text$x	SEGMENT
__unwindfunclet$?GetSavedVert@CDataTypeEnvironment@@ABE?AV?$CStringT@DV?$StrTraitMFC_DLL@DV?$ChTraitsCRT@D@ATL@@@@@ATL@@XZ$0:
  00000	8d 4d e8	 lea	 ecx, DWORD PTR $T2[ebp]
  00003	ff 25 00 00 00
	00		 jmp	 DWORD PTR __imp_??1?$CStringT@DV?$StrTraitMFC_DLL@DV?$ChTraitsCRT@D@ATL@@@@@ATL@@QAE@XZ
__unwindfunclet$?GetSavedVert@CDataTypeEnvironment@@ABE?AV?$CStringT@DV?$StrTraitMFC_DLL@DV?$ChTraitsCRT@D@ATL@@@@@ATL@@XZ$1:
  00009	8d 4d ec	 lea	 ecx, DWORD PTR $T3[ebp]
  0000c	ff 25 00 00 00
	00		 jmp	 DWORD PTR __imp_??1?$CStringT@DV?$StrTraitMFC_DLL@DV?$ChTraitsCRT@D@ATL@@@@@ATL@@QAE@XZ
__unwindfunclet$?GetSavedVert@CDataTypeEnvironment@@ABE?AV?$CStringT@DV?$StrTraitMFC_DLL@DV?$ChTraitsCRT@D@ATL@@@@@ATL@@XZ$4:
  00012	8b 45 f0	 mov	 eax, DWORD PTR $T4[ebp]
  00015	83 e0 04	 and	 eax, 4
  00018	0f 84 0d 00 00
	00		 je	 $LN23@GetSavedVe
  0001e	83 65 f0 fb	 and	 DWORD PTR $T4[ebp], -5	; fffffffbH
  00022	8b 4d 08	 mov	 ecx, DWORD PTR ___$ReturnUdt$[ebp]
  00025	ff 25 00 00 00
	00		 jmp	 DWORD PTR __imp_??1?$CStringT@DV?$StrTraitMFC_DLL@DV?$ChTraitsCRT@D@ATL@@@@@ATL@@QAE@XZ
$LN23@GetSavedVe:
  0002b	c3		 ret	 0
  0002c	cc		 int	 3
  0002d	cc		 int	 3
  0002e	cc		 int	 3
  0002f	cc		 int	 3
  00030	cc		 int	 3
__ehhandler$?GetSavedVert@CDataTypeEnvironment@@ABE?AV?$CStringT@DV?$StrTraitMFC_DLL@DV?$ChTraitsCRT@D@ATL@@@@@ATL@@XZ:
  00031	90		 npad	 1
  00032	90		 npad	 1
  00033	8b 54 24 08	 mov	 edx, DWORD PTR [esp+8]
  00037	8d 42 0c	 lea	 eax, DWORD PTR [edx+12]
  0003a	8b 4a e8	 mov	 ecx, DWORD PTR [edx-24]
  0003d	33 c8		 xor	 ecx, eax
  0003f	e8 00 00 00 00	 call	 @__security_check_cookie@4
  00044	b8 00 00 00 00	 mov	 eax, OFFSET __ehfuncinfo$?GetSavedVert@CDataTypeEnvironment@@ABE?AV?$CStringT@DV?$StrTraitMFC_DLL@DV?$ChTraitsCRT@D@ATL@@@@@ATL@@XZ
  00049	e9 00 00 00 00	 jmp	 ___CxxFrameHandler3
text$x	ENDS
?GetSavedVert@CDataTypeEnvironment@@ABE?AV?$CStringT@DV?$StrTraitMFC_DLL@DV?$ChTraitsCRT@D@ATL@@@@@ATL@@XZ ENDP ; CDataTypeEnvironment::GetSavedVert
; Function compile flags: /Ogtp
; File D:\git\src\IBK\IBK_DRFN\ProjSrc\SrcChartEx\ChartAddIn\ChartAnalysisToolAddIn\Include_Analysis\ElementEnvironment.cpp
; File C:\Program Files (x86)\Microsoft Visual Studio\2019\Community\VC\Tools\MSVC\14.29.30133\atlmfc\include\cstringt.h
; File D:\git\src\IBK\IBK_DRFN\ProjSrc\SrcChartEx\ChartAddIn\ChartAnalysisToolAddIn\Include_Analysis\ElementEnvironment.cpp
; File C:\Program Files (x86)\Microsoft Visual Studio\2019\Community\VC\Tools\MSVC\14.29.30133\atlmfc\include\cstringt.h
; File C:\Program Files (x86)\Microsoft Visual Studio\2019\Community\VC\Tools\MSVC\14.29.30133\atlmfc\include\atlsimpstr.h
; File C:\Program Files (x86)\Microsoft Visual Studio\2019\Community\VC\Tools\MSVC\14.29.30133\atlmfc\include\cstringt.h
; File D:\git\src\IBK\IBK_DRFN\ProjSrc\SrcChartEx\ChartAddIn\ChartAnalysisToolAddIn\Include_Analysis\ElementEnvironment.cpp
;	COMDAT ?GetSavedCoordinateType@CDataTypeEnvironment@@ABE?AV?$CStringT@DV?$StrTraitMFC_DLL@DV?$ChTraitsCRT@D@ATL@@@@@ATL@@XZ
_TEXT	SEGMENT
$T2 = -24						; size = 4
$T3 = -20						; size = 4
$T4 = -16						; size = 4
__$EHRec$ = -12						; size = 12
___$ReturnUdt$ = 8					; size = 4
?GetSavedCoordinateType@CDataTypeEnvironment@@ABE?AV?$CStringT@DV?$StrTraitMFC_DLL@DV?$ChTraitsCRT@D@ATL@@@@@ATL@@XZ PROC ; CDataTypeEnvironment::GetSavedCoordinateType, COMDAT
; _this$ = ecx

; 416  : {

  00000	55		 push	 ebp
  00001	8b ec		 mov	 ebp, esp
  00003	6a ff		 push	 -1
  00005	68 00 00 00 00	 push	 __ehhandler$?GetSavedCoordinateType@CDataTypeEnvironment@@ABE?AV?$CStringT@DV?$StrTraitMFC_DLL@DV?$ChTraitsCRT@D@ATL@@@@@ATL@@XZ
  0000a	64 a1 00 00 00
	00		 mov	 eax, DWORD PTR fs:0
  00010	50		 push	 eax
  00011	83 ec 0c	 sub	 esp, 12			; 0000000cH
  00014	56		 push	 esi
  00015	57		 push	 edi
  00016	a1 00 00 00 00	 mov	 eax, DWORD PTR ___security_cookie
  0001b	33 c5		 xor	 eax, ebp
  0001d	50		 push	 eax
  0001e	8d 45 f4	 lea	 eax, DWORD PTR __$EHRec$[ebp]
  00021	64 a3 00 00 00
	00		 mov	 DWORD PTR fs:0, eax
  00027	c7 45 f0 00 00
	00 00		 mov	 DWORD PTR $T4[ebp], 0

; 417  : 	return ("<Coordinate>" + CDataConversion::IntToString((int)m_eCoordinateType) + "<\\Coordinate>\r\n");

  0002e	8d 45 e8	 lea	 eax, DWORD PTR $T2[ebp]
  00031	ff 31		 push	 DWORD PTR [ecx]
  00033	50		 push	 eax
  00034	e8 00 00 00 00	 call	 ?IntToString@CDataConversion@@SA?AV?$CStringT@DV?$StrTraitMFC_DLL@DV?$ChTraitsCRT@D@ATL@@@@@ATL@@H@Z ; CDataConversion::IntToString
  00039	50		 push	 eax
  0003a	8d 45 ec	 lea	 eax, DWORD PTR $T3[ebp]
  0003d	c7 45 fc 00 00
	00 00		 mov	 DWORD PTR __$EHRec$[ebp+8], 0
  00044	68 00 00 00 00	 push	 OFFSET ??_C@_0N@CAIHOMCE@?$DMCoordinate?$DO@
  00049	50		 push	 eax
  0004a	e8 00 00 00 00	 call	 ??HATL@@YA?AV?$CStringT@DV?$StrTraitMFC_DLL@DV?$ChTraitsCRT@D@ATL@@@@@0@PBDABV10@@Z ; ATL::operator+
  0004f	83 c4 14	 add	 esp, 20			; 00000014H
  00052	8b f0		 mov	 esi, eax
; File C:\Program Files (x86)\Microsoft Visual Studio\2019\Community\VC\Tools\MSVC\14.29.30133\atlmfc\include\cstringt.h

; 2401 : 		CStringT strResult( str1.GetManager() );

  00054	8b ce		 mov	 ecx, esi
; File D:\git\src\IBK\IBK_DRFN\ProjSrc\SrcChartEx\ChartAddIn\ChartAnalysisToolAddIn\Include_Analysis\ElementEnvironment.cpp

; 417  : 	return ("<Coordinate>" + CDataConversion::IntToString((int)m_eCoordinateType) + "<\\Coordinate>\r\n");

  00056	c6 45 fc 02	 mov	 BYTE PTR __$EHRec$[ebp+8], 2
; File C:\Program Files (x86)\Microsoft Visual Studio\2019\Community\VC\Tools\MSVC\14.29.30133\atlmfc\include\cstringt.h

; 2401 : 		CStringT strResult( str1.GetManager() );

  0005a	ff 15 00 00 00
	00		 call	 DWORD PTR __imp_?GetManager@?$CStringT@DV?$StrTraitMFC_DLL@DV?$ChTraitsCRT@D@ATL@@@@@ATL@@QBEPAUIAtlStringMgr@2@XZ
  00060	8b 7d 08	 mov	 edi, DWORD PTR ___$ReturnUdt$[ebp]
  00063	8b cf		 mov	 ecx, edi
  00065	50		 push	 eax
  00066	ff 15 00 00 00
	00		 call	 DWORD PTR __imp_??0?$CStringT@DV?$StrTraitMFC_DLL@DV?$ChTraitsCRT@D@ATL@@@@@ATL@@QAE@PAUIAtlStringMgr@1@@Z
; File C:\Program Files (x86)\Microsoft Visual Studio\2019\Community\VC\Tools\MSVC\14.29.30133\atlmfc\include\atlsimpstr.h

; 519  : 		return( GetData()->nDataLength );

  0006c	8b 0e		 mov	 ecx, DWORD PTR [esi]
; File C:\Program Files (x86)\Microsoft Visual Studio\2019\Community\VC\Tools\MSVC\14.29.30133\atlmfc\include\cstringt.h

; 2403 : 		CThisSimpleString::Concatenate( strResult, str1, str1.GetLength(), psz2, CThisSimpleString::StringLength( psz2 ) );

  0006e	6a 0f		 push	 15			; 0000000fH
  00070	68 00 00 00 00	 push	 OFFSET ??_C@_0BA@IFAPIPNB@?$DM?2Coordinate?$DO?$AN?6@

; 2404 : 
; 2405 : 		return( strResult );

  00075	c7 45 f0 04 00
	00 00		 mov	 DWORD PTR $T4[ebp], 4
  0007c	ff 71 f4	 push	 DWORD PTR [ecx-12]
  0007f	51		 push	 ecx
  00080	57		 push	 edi
  00081	ff 15 00 00 00
	00		 call	 DWORD PTR __imp_?Concatenate@?$CSimpleStringT@D$00@ATL@@KAXAAV12@PBDH1H@Z
  00087	83 c4 14	 add	 esp, 20			; 00000014H
; File D:\git\src\IBK\IBK_DRFN\ProjSrc\SrcChartEx\ChartAddIn\ChartAnalysisToolAddIn\Include_Analysis\ElementEnvironment.cpp

; 417  : 	return ("<Coordinate>" + CDataConversion::IntToString((int)m_eCoordinateType) + "<\\Coordinate>\r\n");

  0008a	8d 4d ec	 lea	 ecx, DWORD PTR $T3[ebp]
  0008d	ff 15 00 00 00
	00		 call	 DWORD PTR __imp_??1?$CStringT@DV?$StrTraitMFC_DLL@DV?$ChTraitsCRT@D@ATL@@@@@ATL@@QAE@XZ
  00093	8d 4d e8	 lea	 ecx, DWORD PTR $T2[ebp]
  00096	ff 15 00 00 00
	00		 call	 DWORD PTR __imp_??1?$CStringT@DV?$StrTraitMFC_DLL@DV?$ChTraitsCRT@D@ATL@@@@@ATL@@QAE@XZ
  0009c	8b c7		 mov	 eax, edi

; 418  : }

  0009e	8b 4d f4	 mov	 ecx, DWORD PTR __$EHRec$[ebp]
  000a1	64 89 0d 00 00
	00 00		 mov	 DWORD PTR fs:0, ecx
  000a8	59		 pop	 ecx
  000a9	5f		 pop	 edi
  000aa	5e		 pop	 esi
  000ab	8b e5		 mov	 esp, ebp
  000ad	5d		 pop	 ebp
  000ae	c2 04 00	 ret	 4
_TEXT	ENDS
;	COMDAT text$x
text$x	SEGMENT
__unwindfunclet$?GetSavedCoordinateType@CDataTypeEnvironment@@ABE?AV?$CStringT@DV?$StrTraitMFC_DLL@DV?$ChTraitsCRT@D@ATL@@@@@ATL@@XZ$0:
  00000	8d 4d e8	 lea	 ecx, DWORD PTR $T2[ebp]
  00003	ff 25 00 00 00
	00		 jmp	 DWORD PTR __imp_??1?$CStringT@DV?$StrTraitMFC_DLL@DV?$ChTraitsCRT@D@ATL@@@@@ATL@@QAE@XZ
__unwindfunclet$?GetSavedCoordinateType@CDataTypeEnvironment@@ABE?AV?$CStringT@DV?$StrTraitMFC_DLL@DV?$ChTraitsCRT@D@ATL@@@@@ATL@@XZ$1:
  00009	8d 4d ec	 lea	 ecx, DWORD PTR $T3[ebp]
  0000c	ff 25 00 00 00
	00		 jmp	 DWORD PTR __imp_??1?$CStringT@DV?$StrTraitMFC_DLL@DV?$ChTraitsCRT@D@ATL@@@@@ATL@@QAE@XZ
__unwindfunclet$?GetSavedCoordinateType@CDataTypeEnvironment@@ABE?AV?$CStringT@DV?$StrTraitMFC_DLL@DV?$ChTraitsCRT@D@ATL@@@@@ATL@@XZ$4:
  00012	8b 45 f0	 mov	 eax, DWORD PTR $T4[ebp]
  00015	83 e0 04	 and	 eax, 4
  00018	0f 84 0d 00 00
	00		 je	 $LN23@GetSavedCo
  0001e	83 65 f0 fb	 and	 DWORD PTR $T4[ebp], -5	; fffffffbH
  00022	8b 4d 08	 mov	 ecx, DWORD PTR ___$ReturnUdt$[ebp]
  00025	ff 25 00 00 00
	00		 jmp	 DWORD PTR __imp_??1?$CStringT@DV?$StrTraitMFC_DLL@DV?$ChTraitsCRT@D@ATL@@@@@ATL@@QAE@XZ
$LN23@GetSavedCo:
  0002b	c3		 ret	 0
  0002c	cc		 int	 3
  0002d	cc		 int	 3
  0002e	cc		 int	 3
  0002f	cc		 int	 3
  00030	cc		 int	 3
__ehhandler$?GetSavedCoordinateType@CDataTypeEnvironment@@ABE?AV?$CStringT@DV?$StrTraitMFC_DLL@DV?$ChTraitsCRT@D@ATL@@@@@ATL@@XZ:
  00031	90		 npad	 1
  00032	90		 npad	 1
  00033	8b 54 24 08	 mov	 edx, DWORD PTR [esp+8]
  00037	8d 42 0c	 lea	 eax, DWORD PTR [edx+12]
  0003a	8b 4a e8	 mov	 ecx, DWORD PTR [edx-24]
  0003d	33 c8		 xor	 ecx, eax
  0003f	e8 00 00 00 00	 call	 @__security_check_cookie@4
  00044	b8 00 00 00 00	 mov	 eax, OFFSET __ehfuncinfo$?GetSavedCoordinateType@CDataTypeEnvironment@@ABE?AV?$CStringT@DV?$StrTraitMFC_DLL@DV?$ChTraitsCRT@D@ATL@@@@@ATL@@XZ
  00049	e9 00 00 00 00	 jmp	 ___CxxFrameHandler3
text$x	ENDS
?GetSavedCoordinateType@CDataTypeEnvironment@@ABE?AV?$CStringT@DV?$StrTraitMFC_DLL@DV?$ChTraitsCRT@D@ATL@@@@@ATL@@XZ ENDP ; CDataTypeEnvironment::GetSavedCoordinateType
; Function compile flags: /Ogtp
; File D:\git\src\IBK\IBK_DRFN\ProjSrc\SrcChartEx\ChartAddIn\ChartAnalysisToolAddIn\Include_Analysis\ElementEnvironment.cpp
; File C:\Program Files (x86)\Microsoft Visual Studio\2019\Community\VC\Tools\MSVC\14.29.30133\atlmfc\include\cstringt.h
; File D:\git\src\IBK\IBK_DRFN\ProjSrc\SrcChartEx\ChartAddIn\ChartAnalysisToolAddIn\Include_Analysis\ElementEnvironment.cpp
; File C:\Program Files (x86)\Microsoft Visual Studio\2019\Community\VC\Tools\MSVC\14.29.30133\atlmfc\include\cstringt.h
; File C:\Program Files (x86)\Microsoft Visual Studio\2019\Community\VC\Tools\MSVC\14.29.30133\atlmfc\include\atlsimpstr.h
; File C:\Program Files (x86)\Microsoft Visual Studio\2019\Community\VC\Tools\MSVC\14.29.30133\atlmfc\include\cstringt.h
; File D:\git\src\IBK\IBK_DRFN\ProjSrc\SrcChartEx\ChartAddIn\ChartAnalysisToolAddIn\Include_Analysis\ElementEnvironment.cpp
; File C:\Program Files (x86)\Microsoft Visual Studio\2019\Community\VC\Tools\MSVC\14.29.30133\atlmfc\include\cstringt.h
; File C:\Program Files (x86)\Microsoft Visual Studio\2019\Community\VC\Tools\MSVC\14.29.30133\atlmfc\include\atlsimpstr.h
; File C:\Program Files (x86)\Microsoft Visual Studio\2019\Community\VC\Tools\MSVC\14.29.30133\atlmfc\include\cstringt.h
; File D:\git\src\IBK\IBK_DRFN\ProjSrc\SrcChartEx\ChartAddIn\ChartAnalysisToolAddIn\Include_Analysis\ElementEnvironment.cpp
; File C:\Program Files (x86)\Microsoft Visual Studio\2019\Community\VC\Tools\MSVC\14.29.30133\atlmfc\include\cstringt.h
; File D:\git\src\IBK\IBK_DRFN\ProjSrc\SrcChartEx\ChartAddIn\ChartAnalysisToolAddIn\Include_Analysis\ElementEnvironment.cpp
; File C:\Program Files (x86)\Microsoft Visual Studio\2019\Community\VC\Tools\MSVC\14.29.30133\atlmfc\include\cstringt.h
; File C:\Program Files (x86)\Microsoft Visual Studio\2019\Community\VC\Tools\MSVC\14.29.30133\atlmfc\include\atlsimpstr.h
; File C:\Program Files (x86)\Microsoft Visual Studio\2019\Community\VC\Tools\MSVC\14.29.30133\atlmfc\include\cstringt.h
; File D:\git\src\IBK\IBK_DRFN\ProjSrc\SrcChartEx\ChartAddIn\ChartAnalysisToolAddIn\Include_Analysis\ElementEnvironment.cpp
; File C:\Program Files (x86)\Microsoft Visual Studio\2019\Community\VC\Tools\MSVC\14.29.30133\atlmfc\include\cstringt.h
; File C:\Program Files (x86)\Microsoft Visual Studio\2019\Community\VC\Tools\MSVC\14.29.30133\atlmfc\include\atlsimpstr.h
; File C:\Program Files (x86)\Microsoft Visual Studio\2019\Community\VC\Tools\MSVC\14.29.30133\atlmfc\include\cstringt.h
; File D:\git\src\IBK\IBK_DRFN\ProjSrc\SrcChartEx\ChartAddIn\ChartAnalysisToolAddIn\Include_Analysis\ElementEnvironment.cpp
; File C:\Program Files (x86)\Microsoft Visual Studio\2019\Community\VC\Tools\MSVC\14.29.30133\atlmfc\include\cstringt.h
; File D:\git\src\IBK\IBK_DRFN\ProjSrc\SrcChartEx\ChartAddIn\ChartAnalysisToolAddIn\Include_Analysis\ElementEnvironment.cpp
; File C:\Program Files (x86)\Microsoft Visual Studio\2019\Community\VC\Tools\MSVC\14.29.30133\atlmfc\include\cstringt.h
; File C:\Program Files (x86)\Microsoft Visual Studio\2019\Community\VC\Tools\MSVC\14.29.30133\atlmfc\include\atlsimpstr.h
; File C:\Program Files (x86)\Microsoft Visual Studio\2019\Community\VC\Tools\MSVC\14.29.30133\atlmfc\include\cstringt.h
; File D:\git\src\IBK\IBK_DRFN\ProjSrc\SrcChartEx\ChartAddIn\ChartAnalysisToolAddIn\Include_Analysis\ElementEnvironment.cpp
; File C:\Program Files (x86)\Microsoft Visual Studio\2019\Community\VC\Tools\MSVC\14.29.30133\atlmfc\include\cstringt.h
; File C:\Program Files (x86)\Microsoft Visual Studio\2019\Community\VC\Tools\MSVC\14.29.30133\atlmfc\include\atlsimpstr.h
; File C:\Program Files (x86)\Microsoft Visual Studio\2019\Community\VC\Tools\MSVC\14.29.30133\atlmfc\include\cstringt.h
; File D:\git\src\IBK\IBK_DRFN\ProjSrc\SrcChartEx\ChartAddIn\ChartAnalysisToolAddIn\Include_Analysis\ElementEnvironment.cpp
; File C:\Program Files (x86)\Microsoft Visual Studio\2019\Community\VC\Tools\MSVC\14.29.30133\atlmfc\include\cstringt.h
; File D:\git\src\IBK\IBK_DRFN\ProjSrc\SrcChartEx\ChartAddIn\ChartAnalysisToolAddIn\Include_Analysis\ElementEnvironment.cpp
; File C:\Program Files (x86)\Microsoft Visual Studio\2019\Community\VC\Tools\MSVC\14.29.30133\atlmfc\include\cstringt.h
; File C:\Program Files (x86)\Microsoft Visual Studio\2019\Community\VC\Tools\MSVC\14.29.30133\atlmfc\include\atlsimpstr.h
; File C:\Program Files (x86)\Microsoft Visual Studio\2019\Community\VC\Tools\MSVC\14.29.30133\atlmfc\include\cstringt.h
; File D:\git\src\IBK\IBK_DRFN\ProjSrc\SrcChartEx\ChartAddIn\ChartAnalysisToolAddIn\Include_Analysis\ElementEnvironment.cpp
; File C:\Program Files (x86)\Microsoft Visual Studio\2019\Community\VC\Tools\MSVC\14.29.30133\atlmfc\include\cstringt.h
; File D:\git\src\IBK\IBK_DRFN\ProjSrc\SrcChartEx\ChartAddIn\ChartAnalysisToolAddIn\Include_Analysis\ElementEnvironment.cpp
; File C:\Program Files (x86)\Microsoft Visual Studio\2019\Community\VC\Tools\MSVC\14.29.30133\atlmfc\include\cstringt.h
; File C:\Program Files (x86)\Microsoft Visual Studio\2019\Community\VC\Tools\MSVC\14.29.30133\atlmfc\include\atlsimpstr.h
; File C:\Program Files (x86)\Microsoft Visual Studio\2019\Community\VC\Tools\MSVC\14.29.30133\atlmfc\include\cstringt.h
; File D:\git\src\IBK\IBK_DRFN\ProjSrc\SrcChartEx\ChartAddIn\ChartAnalysisToolAddIn\Include_Analysis\ElementEnvironment.cpp
;	COMDAT ?GetSavedData@CDataTypeEnvironment@@QBE?AV?$CStringT@DV?$StrTraitMFC_DLL@DV?$ChTraitsCRT@D@ATL@@@@@ATL@@XZ
_TEXT	SEGMENT
$T2 = -52						; size = 4
$T3 = -48						; size = 4
$T4 = -44						; size = 4
$T5 = -40						; size = 4
$T6 = -36						; size = 4
$T7 = -32						; size = 4
$T8 = -28						; size = 4
$T9 = -24						; size = 4
$T10 = -20						; size = 4
$T11 = -20						; size = 4
$T12 = -20						; size = 4
$T13 = -20						; size = 4
$T14 = -16						; size = 4
__$EHRec$ = -12						; size = 12
___$ReturnUdt$ = 8					; size = 4
?GetSavedData@CDataTypeEnvironment@@QBE?AV?$CStringT@DV?$StrTraitMFC_DLL@DV?$ChTraitsCRT@D@ATL@@@@@ATL@@XZ PROC ; CDataTypeEnvironment::GetSavedData, COMDAT
; _this$ = ecx

; 404  : {

  00000	55		 push	 ebp
  00001	8b ec		 mov	 ebp, esp
  00003	6a ff		 push	 -1
  00005	68 00 00 00 00	 push	 __ehhandler$?GetSavedData@CDataTypeEnvironment@@QBE?AV?$CStringT@DV?$StrTraitMFC_DLL@DV?$ChTraitsCRT@D@ATL@@@@@ATL@@XZ
  0000a	64 a1 00 00 00
	00		 mov	 eax, DWORD PTR fs:0
  00010	50		 push	 eax
  00011	83 ec 28	 sub	 esp, 40			; 00000028H
  00014	53		 push	 ebx
  00015	56		 push	 esi
  00016	57		 push	 edi
  00017	a1 00 00 00 00	 mov	 eax, DWORD PTR ___security_cookie
  0001c	33 c5		 xor	 eax, ebp
  0001e	50		 push	 eax
  0001f	8d 45 f4	 lea	 eax, DWORD PTR __$EHRec$[ebp]
  00022	64 a3 00 00 00
	00		 mov	 DWORD PTR fs:0, eax
  00028	8b f9		 mov	 edi, ecx
  0002a	c7 45 f0 00 00
	00 00		 mov	 DWORD PTR $T14[ebp], 0

; 405  : 	CString strSaved("<DataType>\r\n");

  00031	8b 5d 08	 mov	 ebx, DWORD PTR ___$ReturnUdt$[ebp]
  00034	8b cb		 mov	 ecx, ebx
  00036	68 00 00 00 00	 push	 OFFSET ??_C@_0N@GLGCPBKI@?$DMDataType?$DO?$AN?6@
  0003b	c7 45 fc 00 00
	00 00		 mov	 DWORD PTR __$EHRec$[ebp+8], 0
  00042	ff 15 00 00 00
	00		 call	 DWORD PTR __imp_??0?$CStringT@DV?$StrTraitMFC_DLL@DV?$ChTraitsCRT@D@ATL@@@@@ATL@@QAE@PBD@Z
; File C:\Program Files (x86)\Microsoft Visual Studio\2019\Community\VC\Tools\MSVC\14.29.30133\atlmfc\include\cstringt.h

; 2412 : 		CStringT strResult( str2.GetManager() );

  00048	8d 4f 18	 lea	 ecx, DWORD PTR [edi+24]
; File D:\git\src\IBK\IBK_DRFN\ProjSrc\SrcChartEx\ChartAddIn\ChartAnalysisToolAddIn\Include_Analysis\ElementEnvironment.cpp

; 439  : 	return ("<StrVert>" + m_strVert + "<\\StrVert>\r\n");

  0004b	c7 45 fc 01 00
	00 00		 mov	 DWORD PTR __$EHRec$[ebp+8], 1
; File C:\Program Files (x86)\Microsoft Visual Studio\2019\Community\VC\Tools\MSVC\14.29.30133\atlmfc\include\cstringt.h

; 2412 : 		CStringT strResult( str2.GetManager() );

  00052	ff 15 00 00 00
	00		 call	 DWORD PTR __imp_?GetManager@?$CStringT@DV?$StrTraitMFC_DLL@DV?$ChTraitsCRT@D@ATL@@@@@ATL@@QBEPAUIAtlStringMgr@2@XZ
  00058	50		 push	 eax
  00059	8d 4d ec	 lea	 ecx, DWORD PTR $T13[ebp]
  0005c	ff 15 00 00 00
	00		 call	 DWORD PTR __imp_??0?$CStringT@DV?$StrTraitMFC_DLL@DV?$ChTraitsCRT@D@ATL@@@@@ATL@@QAE@PAUIAtlStringMgr@1@@Z
; File C:\Program Files (x86)\Microsoft Visual Studio\2019\Community\VC\Tools\MSVC\14.29.30133\atlmfc\include\atlsimpstr.h

; 519  : 		return( GetData()->nDataLength );

  00062	8b 47 18	 mov	 eax, DWORD PTR [edi+24]
; File C:\Program Files (x86)\Microsoft Visual Studio\2019\Community\VC\Tools\MSVC\14.29.30133\atlmfc\include\cstringt.h

; 2416 : 		return( strResult );

  00065	c7 45 f0 05 00
	00 00		 mov	 DWORD PTR $T14[ebp], 5
  0006c	ff 70 f4	 push	 DWORD PTR [eax-12]
  0006f	50		 push	 eax
  00070	6a 09		 push	 9
  00072	8d 45 ec	 lea	 eax, DWORD PTR $T13[ebp]
  00075	68 00 00 00 00	 push	 OFFSET ??_C@_09COIGHGNF@?$DMStrVert?$DO@
  0007a	50		 push	 eax
  0007b	ff 15 00 00 00
	00		 call	 DWORD PTR __imp_?Concatenate@?$CSimpleStringT@D$00@ATL@@KAXAAV12@PBDH1H@Z
  00081	83 c4 14	 add	 esp, 20			; 00000014H

; 2401 : 		CStringT strResult( str1.GetManager() );

  00084	8d 4d ec	 lea	 ecx, DWORD PTR $T13[ebp]
; File D:\git\src\IBK\IBK_DRFN\ProjSrc\SrcChartEx\ChartAddIn\ChartAnalysisToolAddIn\Include_Analysis\ElementEnvironment.cpp

; 439  : 	return ("<StrVert>" + m_strVert + "<\\StrVert>\r\n");

  00087	c6 45 fc 02	 mov	 BYTE PTR __$EHRec$[ebp+8], 2
; File C:\Program Files (x86)\Microsoft Visual Studio\2019\Community\VC\Tools\MSVC\14.29.30133\atlmfc\include\cstringt.h

; 2401 : 		CStringT strResult( str1.GetManager() );

  0008b	ff 15 00 00 00
	00		 call	 DWORD PTR __imp_?GetManager@?$CStringT@DV?$StrTraitMFC_DLL@DV?$ChTraitsCRT@D@ATL@@@@@ATL@@QBEPAUIAtlStringMgr@2@XZ
  00091	50		 push	 eax
  00092	8d 4d d8	 lea	 ecx, DWORD PTR $T5[ebp]
  00095	ff 15 00 00 00
	00		 call	 DWORD PTR __imp_??0?$CStringT@DV?$StrTraitMFC_DLL@DV?$ChTraitsCRT@D@ATL@@@@@ATL@@QAE@PAUIAtlStringMgr@1@@Z
; File C:\Program Files (x86)\Microsoft Visual Studio\2019\Community\VC\Tools\MSVC\14.29.30133\atlmfc\include\atlsimpstr.h

; 519  : 		return( GetData()->nDataLength );

  0009b	8b 45 ec	 mov	 eax, DWORD PTR $T13[ebp]
; File C:\Program Files (x86)\Microsoft Visual Studio\2019\Community\VC\Tools\MSVC\14.29.30133\atlmfc\include\cstringt.h

; 2403 : 		CThisSimpleString::Concatenate( strResult, str1, str1.GetLength(), psz2, CThisSimpleString::StringLength( psz2 ) );

  0009e	6a 0c		 push	 12			; 0000000cH
  000a0	68 00 00 00 00	 push	 OFFSET ??_C@_0N@HGCOAIDN@?$DM?2StrVert?$DO?$AN?6@

; 2404 : 
; 2405 : 		return( strResult );

  000a5	c7 45 f0 0d 00
	00 00		 mov	 DWORD PTR $T14[ebp], 13	; 0000000dH
  000ac	ff 70 f4	 push	 DWORD PTR [eax-12]
  000af	50		 push	 eax
  000b0	8d 45 d8	 lea	 eax, DWORD PTR $T5[ebp]
  000b3	50		 push	 eax
  000b4	ff 15 00 00 00
	00		 call	 DWORD PTR __imp_?Concatenate@?$CSimpleStringT@D$00@ATL@@KAXAAV12@PBDH1H@Z
  000ba	83 c4 14	 add	 esp, 20			; 00000014H
; File D:\git\src\IBK\IBK_DRFN\ProjSrc\SrcChartEx\ChartAddIn\ChartAnalysisToolAddIn\Include_Analysis\ElementEnvironment.cpp

; 439  : 	return ("<StrVert>" + m_strVert + "<\\StrVert>\r\n");

  000bd	8d 4d ec	 lea	 ecx, DWORD PTR $T13[ebp]
  000c0	ff 15 00 00 00
	00		 call	 DWORD PTR __imp_??1?$CStringT@DV?$StrTraitMFC_DLL@DV?$ChTraitsCRT@D@ATL@@@@@ATL@@QAE@XZ

; 406  : 	// 2008.08.20   		GetSavedExtData()
; 407  : 	// 2008.10.15 by LYH >> 8,32bit		GetSavedStrVert() 
; 408  : 	strSaved.Format("<DataType>\r\n%s%s%s%s%s<\\DataType>\r\n", 

  000c6	c7 45 fc 03 00
	00 00		 mov	 DWORD PTR __$EHRec$[ebp+8], 3
; File C:\Program Files (x86)\Microsoft Visual Studio\2019\Community\VC\Tools\MSVC\14.29.30133\atlmfc\include\cstringt.h

; 2412 : 		CStringT strResult( str2.GetManager() );

  000cd	8d 4f 14	 lea	 ecx, DWORD PTR [edi+20]
; File D:\git\src\IBK\IBK_DRFN\ProjSrc\SrcChartEx\ChartAddIn\ChartAnalysisToolAddIn\Include_Analysis\ElementEnvironment.cpp

; 433  : 	return ("<ExtData>" + m_strExtData + "<\\ExtData>\r\n");

  000d0	c6 45 fc 04	 mov	 BYTE PTR __$EHRec$[ebp+8], 4
; File C:\Program Files (x86)\Microsoft Visual Studio\2019\Community\VC\Tools\MSVC\14.29.30133\atlmfc\include\cstringt.h

; 2412 : 		CStringT strResult( str2.GetManager() );

  000d4	ff 15 00 00 00
	00		 call	 DWORD PTR __imp_?GetManager@?$CStringT@DV?$StrTraitMFC_DLL@DV?$ChTraitsCRT@D@ATL@@@@@ATL@@QBEPAUIAtlStringMgr@2@XZ
  000da	50		 push	 eax
  000db	8d 4d ec	 lea	 ecx, DWORD PTR $T12[ebp]
  000de	ff 15 00 00 00
	00		 call	 DWORD PTR __imp_??0?$CStringT@DV?$StrTraitMFC_DLL@DV?$ChTraitsCRT@D@ATL@@@@@ATL@@QAE@PAUIAtlStringMgr@1@@Z
; File C:\Program Files (x86)\Microsoft Visual Studio\2019\Community\VC\Tools\MSVC\14.29.30133\atlmfc\include\atlsimpstr.h

; 519  : 		return( GetData()->nDataLength );

  000e4	8b 47 14	 mov	 eax, DWORD PTR [edi+20]
; File C:\Program Files (x86)\Microsoft Visual Studio\2019\Community\VC\Tools\MSVC\14.29.30133\atlmfc\include\cstringt.h

; 2416 : 		return( strResult );

  000e7	c7 45 f0 23 00
	00 00		 mov	 DWORD PTR $T14[ebp], 35	; 00000023H
  000ee	ff 70 f4	 push	 DWORD PTR [eax-12]
  000f1	50		 push	 eax
  000f2	6a 09		 push	 9
  000f4	8d 45 ec	 lea	 eax, DWORD PTR $T12[ebp]
  000f7	68 00 00 00 00	 push	 OFFSET ??_C@_09EBDLFGEM@?$DMExtData?$DO@
  000fc	50		 push	 eax
  000fd	ff 15 00 00 00
	00		 call	 DWORD PTR __imp_?Concatenate@?$CSimpleStringT@D$00@ATL@@KAXAAV12@PBDH1H@Z
  00103	83 c4 14	 add	 esp, 20			; 00000014H

; 2401 : 		CStringT strResult( str1.GetManager() );

  00106	8d 4d ec	 lea	 ecx, DWORD PTR $T12[ebp]
; File D:\git\src\IBK\IBK_DRFN\ProjSrc\SrcChartEx\ChartAddIn\ChartAnalysisToolAddIn\Include_Analysis\ElementEnvironment.cpp

; 433  : 	return ("<ExtData>" + m_strExtData + "<\\ExtData>\r\n");

  00109	c6 45 fc 05	 mov	 BYTE PTR __$EHRec$[ebp+8], 5
; File C:\Program Files (x86)\Microsoft Visual Studio\2019\Community\VC\Tools\MSVC\14.29.30133\atlmfc\include\cstringt.h

; 2401 : 		CStringT strResult( str1.GetManager() );

  0010d	ff 15 00 00 00
	00		 call	 DWORD PTR __imp_?GetManager@?$CStringT@DV?$StrTraitMFC_DLL@DV?$ChTraitsCRT@D@ATL@@@@@ATL@@QBEPAUIAtlStringMgr@2@XZ
  00113	50		 push	 eax
  00114	8d 4d dc	 lea	 ecx, DWORD PTR $T6[ebp]
  00117	ff 15 00 00 00
	00		 call	 DWORD PTR __imp_??0?$CStringT@DV?$StrTraitMFC_DLL@DV?$ChTraitsCRT@D@ATL@@@@@ATL@@QAE@PAUIAtlStringMgr@1@@Z
; File C:\Program Files (x86)\Microsoft Visual Studio\2019\Community\VC\Tools\MSVC\14.29.30133\atlmfc\include\atlsimpstr.h

; 519  : 		return( GetData()->nDataLength );

  0011d	8b 45 ec	 mov	 eax, DWORD PTR $T12[ebp]
; File C:\Program Files (x86)\Microsoft Visual Studio\2019\Community\VC\Tools\MSVC\14.29.30133\atlmfc\include\cstringt.h

; 2403 : 		CThisSimpleString::Concatenate( strResult, str1, str1.GetLength(), psz2, CThisSimpleString::StringLength( psz2 ) );

  00120	6a 0c		 push	 12			; 0000000cH
  00122	68 00 00 00 00	 push	 OFFSET ??_C@_0N@ONMDHGBL@?$DM?2ExtData?$DO?$AN?6@

; 2404 : 
; 2405 : 		return( strResult );

  00127	c7 45 f0 63 00
	00 00		 mov	 DWORD PTR $T14[ebp], 99	; 00000063H
  0012e	ff 70 f4	 push	 DWORD PTR [eax-12]
  00131	50		 push	 eax
  00132	8d 45 dc	 lea	 eax, DWORD PTR $T6[ebp]
  00135	50		 push	 eax
  00136	ff 15 00 00 00
	00		 call	 DWORD PTR __imp_?Concatenate@?$CSimpleStringT@D$00@ATL@@KAXAAV12@PBDH1H@Z
  0013c	83 c4 14	 add	 esp, 20			; 00000014H
; File D:\git\src\IBK\IBK_DRFN\ProjSrc\SrcChartEx\ChartAddIn\ChartAnalysisToolAddIn\Include_Analysis\ElementEnvironment.cpp

; 433  : 	return ("<ExtData>" + m_strExtData + "<\\ExtData>\r\n");

  0013f	c7 45 fc 04 00
	00 00		 mov	 DWORD PTR __$EHRec$[ebp+8], 4
  00146	8d 4d ec	 lea	 ecx, DWORD PTR $T12[ebp]
  00149	ff 15 00 00 00
	00		 call	 DWORD PTR __imp_??1?$CStringT@DV?$StrTraitMFC_DLL@DV?$ChTraitsCRT@D@ATL@@@@@ATL@@QAE@XZ
; File C:\Program Files (x86)\Microsoft Visual Studio\2019\Community\VC\Tools\MSVC\14.29.30133\atlmfc\include\cstringt.h

; 2412 : 		CStringT strResult( str2.GetManager() );

  0014f	8d 4f 10	 lea	 ecx, DWORD PTR [edi+16]
; File D:\git\src\IBK\IBK_DRFN\ProjSrc\SrcChartEx\ChartAddIn\ChartAnalysisToolAddIn\Include_Analysis\ElementEnvironment.cpp

; 427  : 	return ("<Horz>" + m_strHorz + "<\\Horz>\r\n");

  00152	c6 45 fc 07	 mov	 BYTE PTR __$EHRec$[ebp+8], 7
; File C:\Program Files (x86)\Microsoft Visual Studio\2019\Community\VC\Tools\MSVC\14.29.30133\atlmfc\include\cstringt.h

; 2412 : 		CStringT strResult( str2.GetManager() );

  00156	ff 15 00 00 00
	00		 call	 DWORD PTR __imp_?GetManager@?$CStringT@DV?$StrTraitMFC_DLL@DV?$ChTraitsCRT@D@ATL@@@@@ATL@@QBEPAUIAtlStringMgr@2@XZ
  0015c	50		 push	 eax
  0015d	8d 4d ec	 lea	 ecx, DWORD PTR $T11[ebp]
  00160	ff 15 00 00 00
	00		 call	 DWORD PTR __imp_??0?$CStringT@DV?$StrTraitMFC_DLL@DV?$ChTraitsCRT@D@ATL@@@@@ATL@@QAE@PAUIAtlStringMgr@1@@Z
; File C:\Program Files (x86)\Microsoft Visual Studio\2019\Community\VC\Tools\MSVC\14.29.30133\atlmfc\include\atlsimpstr.h

; 519  : 		return( GetData()->nDataLength );

  00166	8b 47 10	 mov	 eax, DWORD PTR [edi+16]
; File C:\Program Files (x86)\Microsoft Visual Studio\2019\Community\VC\Tools\MSVC\14.29.30133\atlmfc\include\cstringt.h

; 2416 : 		return( strResult );

  00169	c7 45 f0 13 01
	00 00		 mov	 DWORD PTR $T14[ebp], 275 ; 00000113H
  00170	ff 70 f4	 push	 DWORD PTR [eax-12]
  00173	50		 push	 eax
  00174	6a 06		 push	 6
  00176	8d 45 ec	 lea	 eax, DWORD PTR $T11[ebp]
  00179	68 00 00 00 00	 push	 OFFSET ??_C@_06CMKMBJNG@?$DMHorz?$DO@
  0017e	50		 push	 eax
  0017f	ff 15 00 00 00
	00		 call	 DWORD PTR __imp_?Concatenate@?$CSimpleStringT@D$00@ATL@@KAXAAV12@PBDH1H@Z
  00185	83 c4 14	 add	 esp, 20			; 00000014H

; 2401 : 		CStringT strResult( str1.GetManager() );

  00188	8d 4d ec	 lea	 ecx, DWORD PTR $T11[ebp]
; File D:\git\src\IBK\IBK_DRFN\ProjSrc\SrcChartEx\ChartAddIn\ChartAnalysisToolAddIn\Include_Analysis\ElementEnvironment.cpp

; 427  : 	return ("<Horz>" + m_strHorz + "<\\Horz>\r\n");

  0018b	c6 45 fc 08	 mov	 BYTE PTR __$EHRec$[ebp+8], 8
; File C:\Program Files (x86)\Microsoft Visual Studio\2019\Community\VC\Tools\MSVC\14.29.30133\atlmfc\include\cstringt.h

; 2401 : 		CStringT strResult( str1.GetManager() );

  0018f	ff 15 00 00 00
	00		 call	 DWORD PTR __imp_?GetManager@?$CStringT@DV?$StrTraitMFC_DLL@DV?$ChTraitsCRT@D@ATL@@@@@ATL@@QBEPAUIAtlStringMgr@2@XZ
  00195	50		 push	 eax
  00196	8d 4d e0	 lea	 ecx, DWORD PTR $T7[ebp]
  00199	ff 15 00 00 00
	00		 call	 DWORD PTR __imp_??0?$CStringT@DV?$StrTraitMFC_DLL@DV?$ChTraitsCRT@D@ATL@@@@@ATL@@QAE@PAUIAtlStringMgr@1@@Z
; File C:\Program Files (x86)\Microsoft Visual Studio\2019\Community\VC\Tools\MSVC\14.29.30133\atlmfc\include\atlsimpstr.h

; 519  : 		return( GetData()->nDataLength );

  0019f	8b 45 ec	 mov	 eax, DWORD PTR $T11[ebp]
; File C:\Program Files (x86)\Microsoft Visual Studio\2019\Community\VC\Tools\MSVC\14.29.30133\atlmfc\include\cstringt.h

; 2403 : 		CThisSimpleString::Concatenate( strResult, str1, str1.GetLength(), psz2, CThisSimpleString::StringLength( psz2 ) );

  001a2	6a 09		 push	 9
  001a4	68 00 00 00 00	 push	 OFFSET ??_C@_09GKBBACOG@?$DM?2Horz?$DO?$AN?6@

; 2404 : 
; 2405 : 		return( strResult );

  001a9	c7 45 f0 13 03
	00 00		 mov	 DWORD PTR $T14[ebp], 787 ; 00000313H
  001b0	ff 70 f4	 push	 DWORD PTR [eax-12]
  001b3	50		 push	 eax
  001b4	8d 45 e0	 lea	 eax, DWORD PTR $T7[ebp]
  001b7	50		 push	 eax
  001b8	ff 15 00 00 00
	00		 call	 DWORD PTR __imp_?Concatenate@?$CSimpleStringT@D$00@ATL@@KAXAAV12@PBDH1H@Z
  001be	83 c4 14	 add	 esp, 20			; 00000014H
; File D:\git\src\IBK\IBK_DRFN\ProjSrc\SrcChartEx\ChartAddIn\ChartAnalysisToolAddIn\Include_Analysis\ElementEnvironment.cpp

; 427  : 	return ("<Horz>" + m_strHorz + "<\\Horz>\r\n");

  001c1	c7 45 fc 07 00
	00 00		 mov	 DWORD PTR __$EHRec$[ebp+8], 7
  001c8	8d 4d ec	 lea	 ecx, DWORD PTR $T11[ebp]
  001cb	c7 45 f0 93 00
	00 00		 mov	 DWORD PTR $T14[ebp], 147 ; 00000093H
  001d2	ff 15 00 00 00
	00		 call	 DWORD PTR __imp_??1?$CStringT@DV?$StrTraitMFC_DLL@DV?$ChTraitsCRT@D@ATL@@@@@ATL@@QAE@XZ

; 422  : 	return ("<Vert>" + CDataConversion::DoubleToString(m_dVert) + "<\\Vert>\r\n");

  001d8	8d 47 08	 lea	 eax, DWORD PTR [edi+8]

; 406  : 	// 2008.08.20   		GetSavedExtData()
; 407  : 	// 2008.10.15 by LYH >> 8,32bit		GetSavedStrVert() 
; 408  : 	strSaved.Format("<DataType>\r\n%s%s%s%s%s<\\DataType>\r\n", 

  001db	c6 45 fc 09	 mov	 BYTE PTR __$EHRec$[ebp+8], 9

; 422  : 	return ("<Vert>" + CDataConversion::DoubleToString(m_dVert) + "<\\Vert>\r\n");

  001df	50		 push	 eax
  001e0	8d 45 d0	 lea	 eax, DWORD PTR $T3[ebp]
  001e3	50		 push	 eax
  001e4	e8 00 00 00 00	 call	 ?DoubleToString@CDataConversion@@SA?AV?$CStringT@DV?$StrTraitMFC_DLL@DV?$ChTraitsCRT@D@ATL@@@@@ATL@@ABN@Z ; CDataConversion::DoubleToString
  001e9	50		 push	 eax
  001ea	8d 45 d4	 lea	 eax, DWORD PTR $T4[ebp]
  001ed	c6 45 fc 0a	 mov	 BYTE PTR __$EHRec$[ebp+8], 10 ; 0000000aH
  001f1	68 00 00 00 00	 push	 OFFSET ??_C@_06FFFOEPJG@?$DMVert?$DO@
  001f6	50		 push	 eax
  001f7	e8 00 00 00 00	 call	 ??HATL@@YA?AV?$CStringT@DV?$StrTraitMFC_DLL@DV?$ChTraitsCRT@D@ATL@@@@@0@PBDABV10@@Z ; ATL::operator+
  001fc	83 c4 14	 add	 esp, 20			; 00000014H
  001ff	8b f0		 mov	 esi, eax
; File C:\Program Files (x86)\Microsoft Visual Studio\2019\Community\VC\Tools\MSVC\14.29.30133\atlmfc\include\cstringt.h

; 2401 : 		CStringT strResult( str1.GetManager() );

  00201	8b ce		 mov	 ecx, esi
; File D:\git\src\IBK\IBK_DRFN\ProjSrc\SrcChartEx\ChartAddIn\ChartAnalysisToolAddIn\Include_Analysis\ElementEnvironment.cpp

; 422  : 	return ("<Vert>" + CDataConversion::DoubleToString(m_dVert) + "<\\Vert>\r\n");

  00203	c6 45 fc 0c	 mov	 BYTE PTR __$EHRec$[ebp+8], 12 ; 0000000cH
; File C:\Program Files (x86)\Microsoft Visual Studio\2019\Community\VC\Tools\MSVC\14.29.30133\atlmfc\include\cstringt.h

; 2401 : 		CStringT strResult( str1.GetManager() );

  00207	ff 15 00 00 00
	00		 call	 DWORD PTR __imp_?GetManager@?$CStringT@DV?$StrTraitMFC_DLL@DV?$ChTraitsCRT@D@ATL@@@@@ATL@@QBEPAUIAtlStringMgr@2@XZ
  0020d	50		 push	 eax
  0020e	8d 4d e4	 lea	 ecx, DWORD PTR $T8[ebp]
  00211	ff 15 00 00 00
	00		 call	 DWORD PTR __imp_??0?$CStringT@DV?$StrTraitMFC_DLL@DV?$ChTraitsCRT@D@ATL@@@@@ATL@@QAE@PAUIAtlStringMgr@1@@Z
; File C:\Program Files (x86)\Microsoft Visual Studio\2019\Community\VC\Tools\MSVC\14.29.30133\atlmfc\include\atlsimpstr.h

; 519  : 		return( GetData()->nDataLength );

  00217	8b 06		 mov	 eax, DWORD PTR [esi]
; File C:\Program Files (x86)\Microsoft Visual Studio\2019\Community\VC\Tools\MSVC\14.29.30133\atlmfc\include\cstringt.h

; 2403 : 		CThisSimpleString::Concatenate( strResult, str1, str1.GetLength(), psz2, CThisSimpleString::StringLength( psz2 ) );

  00219	6a 09		 push	 9
  0021b	68 00 00 00 00	 push	 OFFSET ??_C@_09BIGAMANA@?$DM?2Vert?$DO?$AN?6@

; 2404 : 
; 2405 : 		return( strResult );

  00220	c7 45 f0 93 10
	00 00		 mov	 DWORD PTR $T14[ebp], 4243 ; 00001093H
  00227	ff 70 f4	 push	 DWORD PTR [eax-12]
  0022a	50		 push	 eax
  0022b	8d 45 e4	 lea	 eax, DWORD PTR $T8[ebp]
  0022e	50		 push	 eax
  0022f	ff 15 00 00 00
	00		 call	 DWORD PTR __imp_?Concatenate@?$CSimpleStringT@D$00@ATL@@KAXAAV12@PBDH1H@Z
  00235	83 c4 14	 add	 esp, 20			; 00000014H
; File D:\git\src\IBK\IBK_DRFN\ProjSrc\SrcChartEx\ChartAddIn\ChartAnalysisToolAddIn\Include_Analysis\ElementEnvironment.cpp

; 422  : 	return ("<Vert>" + CDataConversion::DoubleToString(m_dVert) + "<\\Vert>\r\n");

  00238	c7 45 fc 0b 00
	00 00		 mov	 DWORD PTR __$EHRec$[ebp+8], 11 ; 0000000bH
  0023f	8d 4d d4	 lea	 ecx, DWORD PTR $T4[ebp]
  00242	c7 45 f0 93 04
	00 00		 mov	 DWORD PTR $T14[ebp], 1171 ; 00000493H
  00249	ff 15 00 00 00
	00		 call	 DWORD PTR __imp_??1?$CStringT@DV?$StrTraitMFC_DLL@DV?$ChTraitsCRT@D@ATL@@@@@ATL@@QAE@XZ
  0024f	8d 4d d0	 lea	 ecx, DWORD PTR $T3[ebp]
  00252	ff 15 00 00 00
	00		 call	 DWORD PTR __imp_??1?$CStringT@DV?$StrTraitMFC_DLL@DV?$ChTraitsCRT@D@ATL@@@@@ATL@@QAE@XZ

; 417  : 	return ("<Coordinate>" + CDataConversion::IntToString((int)m_eCoordinateType) + "<\\Coordinate>\r\n");

  00258	ff 37		 push	 DWORD PTR [edi]
  0025a	8d 45 cc	 lea	 eax, DWORD PTR $T2[ebp]

; 406  : 	// 2008.08.20   		GetSavedExtData()
; 407  : 	// 2008.10.15 by LYH >> 8,32bit		GetSavedStrVert() 
; 408  : 	strSaved.Format("<DataType>\r\n%s%s%s%s%s<\\DataType>\r\n", 

  0025d	c6 45 fc 0d	 mov	 BYTE PTR __$EHRec$[ebp+8], 13 ; 0000000dH

; 417  : 	return ("<Coordinate>" + CDataConversion::IntToString((int)m_eCoordinateType) + "<\\Coordinate>\r\n");

  00261	50		 push	 eax
  00262	e8 00 00 00 00	 call	 ?IntToString@CDataConversion@@SA?AV?$CStringT@DV?$StrTraitMFC_DLL@DV?$ChTraitsCRT@D@ATL@@@@@ATL@@H@Z ; CDataConversion::IntToString
  00267	50		 push	 eax
  00268	8d 45 ec	 lea	 eax, DWORD PTR $T10[ebp]
  0026b	c6 45 fc 0e	 mov	 BYTE PTR __$EHRec$[ebp+8], 14 ; 0000000eH
  0026f	68 00 00 00 00	 push	 OFFSET ??_C@_0N@CAIHOMCE@?$DMCoordinate?$DO@
  00274	50		 push	 eax
  00275	e8 00 00 00 00	 call	 ??HATL@@YA?AV?$CStringT@DV?$StrTraitMFC_DLL@DV?$ChTraitsCRT@D@ATL@@@@@0@PBDABV10@@Z ; ATL::operator+
  0027a	83 c4 14	 add	 esp, 20			; 00000014H
  0027d	8b f0		 mov	 esi, eax
; File C:\Program Files (x86)\Microsoft Visual Studio\2019\Community\VC\Tools\MSVC\14.29.30133\atlmfc\include\cstringt.h

; 2401 : 		CStringT strResult( str1.GetManager() );

  0027f	8b ce		 mov	 ecx, esi
; File D:\git\src\IBK\IBK_DRFN\ProjSrc\SrcChartEx\ChartAddIn\ChartAnalysisToolAddIn\Include_Analysis\ElementEnvironment.cpp

; 417  : 	return ("<Coordinate>" + CDataConversion::IntToString((int)m_eCoordinateType) + "<\\Coordinate>\r\n");

  00281	c6 45 fc 10	 mov	 BYTE PTR __$EHRec$[ebp+8], 16 ; 00000010H
; File C:\Program Files (x86)\Microsoft Visual Studio\2019\Community\VC\Tools\MSVC\14.29.30133\atlmfc\include\cstringt.h

; 2401 : 		CStringT strResult( str1.GetManager() );

  00285	ff 15 00 00 00
	00		 call	 DWORD PTR __imp_?GetManager@?$CStringT@DV?$StrTraitMFC_DLL@DV?$ChTraitsCRT@D@ATL@@@@@ATL@@QBEPAUIAtlStringMgr@2@XZ
  0028b	50		 push	 eax
  0028c	8d 4d e8	 lea	 ecx, DWORD PTR $T9[ebp]
  0028f	ff 15 00 00 00
	00		 call	 DWORD PTR __imp_??0?$CStringT@DV?$StrTraitMFC_DLL@DV?$ChTraitsCRT@D@ATL@@@@@ATL@@QAE@PAUIAtlStringMgr@1@@Z
; File C:\Program Files (x86)\Microsoft Visual Studio\2019\Community\VC\Tools\MSVC\14.29.30133\atlmfc\include\atlsimpstr.h

; 519  : 		return( GetData()->nDataLength );

  00295	8b 06		 mov	 eax, DWORD PTR [esi]
; File C:\Program Files (x86)\Microsoft Visual Studio\2019\Community\VC\Tools\MSVC\14.29.30133\atlmfc\include\cstringt.h

; 2403 : 		CThisSimpleString::Concatenate( strResult, str1, str1.GetLength(), psz2, CThisSimpleString::StringLength( psz2 ) );

  00297	6a 0f		 push	 15			; 0000000fH
  00299	68 00 00 00 00	 push	 OFFSET ??_C@_0BA@IFAPIPNB@?$DM?2Coordinate?$DO?$AN?6@

; 2404 : 
; 2405 : 		return( strResult );

  0029e	c7 45 f0 93 84
	00 00		 mov	 DWORD PTR $T14[ebp], 33939 ; 00008493H
  002a5	ff 70 f4	 push	 DWORD PTR [eax-12]
  002a8	50		 push	 eax
  002a9	8d 45 e8	 lea	 eax, DWORD PTR $T9[ebp]
  002ac	50		 push	 eax
  002ad	ff 15 00 00 00
	00		 call	 DWORD PTR __imp_?Concatenate@?$CSimpleStringT@D$00@ATL@@KAXAAV12@PBDH1H@Z
  002b3	83 c4 14	 add	 esp, 20			; 00000014H
; File D:\git\src\IBK\IBK_DRFN\ProjSrc\SrcChartEx\ChartAddIn\ChartAnalysisToolAddIn\Include_Analysis\ElementEnvironment.cpp

; 417  : 	return ("<Coordinate>" + CDataConversion::IntToString((int)m_eCoordinateType) + "<\\Coordinate>\r\n");

  002b6	c7 45 fc 0f 00
	00 00		 mov	 DWORD PTR __$EHRec$[ebp+8], 15 ; 0000000fH
  002bd	8d 4d ec	 lea	 ecx, DWORD PTR $T10[ebp]
  002c0	c7 45 f0 93 24
	00 00		 mov	 DWORD PTR $T14[ebp], 9363 ; 00002493H
  002c7	ff 15 00 00 00
	00		 call	 DWORD PTR __imp_??1?$CStringT@DV?$StrTraitMFC_DLL@DV?$ChTraitsCRT@D@ATL@@@@@ATL@@QAE@XZ
  002cd	8d 4d cc	 lea	 ecx, DWORD PTR $T2[ebp]
  002d0	ff 15 00 00 00
	00		 call	 DWORD PTR __imp_??1?$CStringT@DV?$StrTraitMFC_DLL@DV?$ChTraitsCRT@D@ATL@@@@@ATL@@QAE@XZ

; 406  : 	// 2008.08.20   		GetSavedExtData()
; 407  : 	// 2008.10.15 by LYH >> 8,32bit		GetSavedStrVert() 
; 408  : 	strSaved.Format("<DataType>\r\n%s%s%s%s%s<\\DataType>\r\n", 

  002d6	ff 75 d8	 push	 DWORD PTR $T5[ebp]
  002d9	c6 45 fc 11	 mov	 BYTE PTR __$EHRec$[ebp+8], 17 ; 00000011H
  002dd	ff 75 dc	 push	 DWORD PTR $T6[ebp]
  002e0	ff 75 e0	 push	 DWORD PTR $T7[ebp]
  002e3	ff 75 e4	 push	 DWORD PTR $T8[ebp]
  002e6	ff 75 e8	 push	 DWORD PTR $T9[ebp]
  002e9	68 00 00 00 00	 push	 OFFSET ??_C@_0CE@NMDKCJFM@?$DMDataType?$DO?$AN?6?$CFs?$CFs?$CFs?$CFs?$CFs?$DM?2DataTyp@
  002ee	53		 push	 ebx
  002ef	ff 15 00 00 00
	00		 call	 DWORD PTR __imp_?Format@?$CStringT@DV?$StrTraitMFC_DLL@DV?$ChTraitsCRT@D@ATL@@@@@ATL@@QAAXPBDZZ
  002f5	83 c4 1c	 add	 esp, 28			; 0000001cH
  002f8	8d 4d e8	 lea	 ecx, DWORD PTR $T9[ebp]
  002fb	ff 15 00 00 00
	00		 call	 DWORD PTR __imp_??1?$CStringT@DV?$StrTraitMFC_DLL@DV?$ChTraitsCRT@D@ATL@@@@@ATL@@QAE@XZ
  00301	8d 4d e4	 lea	 ecx, DWORD PTR $T8[ebp]
  00304	ff 15 00 00 00
	00		 call	 DWORD PTR __imp_??1?$CStringT@DV?$StrTraitMFC_DLL@DV?$ChTraitsCRT@D@ATL@@@@@ATL@@QAE@XZ
  0030a	8d 4d e0	 lea	 ecx, DWORD PTR $T7[ebp]
  0030d	ff 15 00 00 00
	00		 call	 DWORD PTR __imp_??1?$CStringT@DV?$StrTraitMFC_DLL@DV?$ChTraitsCRT@D@ATL@@@@@ATL@@QAE@XZ
  00313	8d 4d dc	 lea	 ecx, DWORD PTR $T6[ebp]
  00316	ff 15 00 00 00
	00		 call	 DWORD PTR __imp_??1?$CStringT@DV?$StrTraitMFC_DLL@DV?$ChTraitsCRT@D@ATL@@@@@ATL@@QAE@XZ
  0031c	8d 4d d8	 lea	 ecx, DWORD PTR $T5[ebp]
  0031f	ff 15 00 00 00
	00		 call	 DWORD PTR __imp_??1?$CStringT@DV?$StrTraitMFC_DLL@DV?$ChTraitsCRT@D@ATL@@@@@ATL@@QAE@XZ

; 409  : 		GetSavedCoordinateType(), GetSavedVert(), GetSavedHorz(), GetSavedExtData(), GetSavedStrVert());
; 410  : 	return strSaved;

  00325	8b c3		 mov	 eax, ebx

; 411  : }

  00327	8b 4d f4	 mov	 ecx, DWORD PTR __$EHRec$[ebp]
  0032a	64 89 0d 00 00
	00 00		 mov	 DWORD PTR fs:0, ecx
  00331	59		 pop	 ecx
  00332	5f		 pop	 edi
  00333	5e		 pop	 esi
  00334	5b		 pop	 ebx
  00335	8b e5		 mov	 esp, ebp
  00337	5d		 pop	 ebp
  00338	c2 04 00	 ret	 4
_TEXT	ENDS
;	COMDAT text$x
text$x	SEGMENT
__unwindfunclet$?GetSavedData@CDataTypeEnvironment@@QBE?AV?$CStringT@DV?$StrTraitMFC_DLL@DV?$ChTraitsCRT@D@ATL@@@@@ATL@@XZ$0:
  00000	8b 45 f0	 mov	 eax, DWORD PTR $T14[ebp]
  00003	83 e0 01	 and	 eax, 1
  00006	0f 84 0d 00 00
	00		 je	 $LN4@GetSavedDa
  0000c	83 65 f0 fe	 and	 DWORD PTR $T14[ebp], -2	; fffffffeH
  00010	8b 4d 08	 mov	 ecx, DWORD PTR ___$ReturnUdt$[ebp]
  00013	ff 25 00 00 00
	00		 jmp	 DWORD PTR __imp_??1?$CStringT@DV?$StrTraitMFC_DLL@DV?$ChTraitsCRT@D@ATL@@@@@ATL@@QAE@XZ
$LN4@GetSavedDa:
  00019	c3		 ret	 0
__unwindfunclet$?GetSavedData@CDataTypeEnvironment@@QBE?AV?$CStringT@DV?$StrTraitMFC_DLL@DV?$ChTraitsCRT@D@ATL@@@@@ATL@@XZ$8:
  0001a	8b 45 f0	 mov	 eax, DWORD PTR $T14[ebp]
  0001d	83 e0 04	 and	 eax, 4
  00020	0f 84 0d 00 00
	00		 je	 $LN18@GetSavedDa
  00026	83 65 f0 fb	 and	 DWORD PTR $T14[ebp], -5	; fffffffbH
  0002a	8d 4d ec	 lea	 ecx, DWORD PTR $T13[ebp]
  0002d	ff 25 00 00 00
	00		 jmp	 DWORD PTR __imp_??1?$CStringT@DV?$StrTraitMFC_DLL@DV?$ChTraitsCRT@D@ATL@@@@@ATL@@QAE@XZ
$LN18@GetSavedDa:
  00033	c3		 ret	 0
__unwindfunclet$?GetSavedData@CDataTypeEnvironment@@QBE?AV?$CStringT@DV?$StrTraitMFC_DLL@DV?$ChTraitsCRT@D@ATL@@@@@ATL@@XZ$9:
  00034	8b 45 f0	 mov	 eax, DWORD PTR $T14[ebp]
  00037	83 e0 08	 and	 eax, 8
  0003a	0f 84 0d 00 00
	00		 je	 $LN31@GetSavedDa
  00040	83 65 f0 f7	 and	 DWORD PTR $T14[ebp], -9	; fffffff7H
  00044	8d 4d d8	 lea	 ecx, DWORD PTR $T5[ebp]
  00047	ff 25 00 00 00
	00		 jmp	 DWORD PTR __imp_??1?$CStringT@DV?$StrTraitMFC_DLL@DV?$ChTraitsCRT@D@ATL@@@@@ATL@@QAE@XZ
$LN31@GetSavedDa:
  0004d	c3		 ret	 0
__unwindfunclet$?GetSavedData@CDataTypeEnvironment@@QBE?AV?$CStringT@DV?$StrTraitMFC_DLL@DV?$ChTraitsCRT@D@ATL@@@@@ATL@@XZ$1:
  0004e	8d 4d d8	 lea	 ecx, DWORD PTR $T5[ebp]
  00051	ff 25 00 00 00
	00		 jmp	 DWORD PTR __imp_??1?$CStringT@DV?$StrTraitMFC_DLL@DV?$ChTraitsCRT@D@ATL@@@@@ATL@@QAE@XZ
__unwindfunclet$?GetSavedData@CDataTypeEnvironment@@QBE?AV?$CStringT@DV?$StrTraitMFC_DLL@DV?$ChTraitsCRT@D@ATL@@@@@ATL@@XZ$12:
  00057	8b 45 f0	 mov	 eax, DWORD PTR $T14[ebp]
  0005a	83 e0 20	 and	 eax, 32			; 00000020H
  0005d	0f 84 0d 00 00
	00		 je	 $LN49@GetSavedDa
  00063	83 65 f0 df	 and	 DWORD PTR $T14[ebp], -33 ; ffffffdfH
  00067	8d 4d ec	 lea	 ecx, DWORD PTR $T12[ebp]
  0006a	ff 25 00 00 00
	00		 jmp	 DWORD PTR __imp_??1?$CStringT@DV?$StrTraitMFC_DLL@DV?$ChTraitsCRT@D@ATL@@@@@ATL@@QAE@XZ
$LN49@GetSavedDa:
  00070	c3		 ret	 0
__unwindfunclet$?GetSavedData@CDataTypeEnvironment@@QBE?AV?$CStringT@DV?$StrTraitMFC_DLL@DV?$ChTraitsCRT@D@ATL@@@@@ATL@@XZ$13:
  00071	8b 45 f0	 mov	 eax, DWORD PTR $T14[ebp]
  00074	83 e0 40	 and	 eax, 64			; 00000040H
  00077	0f 84 0d 00 00
	00		 je	 $LN62@GetSavedDa
  0007d	83 65 f0 bf	 and	 DWORD PTR $T14[ebp], -65 ; ffffffbfH
  00081	8d 4d dc	 lea	 ecx, DWORD PTR $T6[ebp]
  00084	ff 25 00 00 00
	00		 jmp	 DWORD PTR __imp_??1?$CStringT@DV?$StrTraitMFC_DLL@DV?$ChTraitsCRT@D@ATL@@@@@ATL@@QAE@XZ
$LN62@GetSavedDa:
  0008a	c3		 ret	 0
__unwindfunclet$?GetSavedData@CDataTypeEnvironment@@QBE?AV?$CStringT@DV?$StrTraitMFC_DLL@DV?$ChTraitsCRT@D@ATL@@@@@ATL@@XZ$2:
  0008b	8d 4d dc	 lea	 ecx, DWORD PTR $T6[ebp]
  0008e	ff 25 00 00 00
	00		 jmp	 DWORD PTR __imp_??1?$CStringT@DV?$StrTraitMFC_DLL@DV?$ChTraitsCRT@D@ATL@@@@@ATL@@QAE@XZ
__unwindfunclet$?GetSavedData@CDataTypeEnvironment@@QBE?AV?$CStringT@DV?$StrTraitMFC_DLL@DV?$ChTraitsCRT@D@ATL@@@@@ATL@@XZ$16:
  00094	8b 45 f0	 mov	 eax, DWORD PTR $T14[ebp]
  00097	25 00 01 00 00	 and	 eax, 256		; 00000100H
  0009c	0f 84 10 00 00
	00		 je	 $LN80@GetSavedDa
  000a2	81 65 f0 ff fe
	ff ff		 and	 DWORD PTR $T14[ebp], -257 ; fffffeffH
  000a9	8d 4d ec	 lea	 ecx, DWORD PTR $T11[ebp]
  000ac	ff 25 00 00 00
	00		 jmp	 DWORD PTR __imp_??1?$CStringT@DV?$StrTraitMFC_DLL@DV?$ChTraitsCRT@D@ATL@@@@@ATL@@QAE@XZ
$LN80@GetSavedDa:
  000b2	c3		 ret	 0
__unwindfunclet$?GetSavedData@CDataTypeEnvironment@@QBE?AV?$CStringT@DV?$StrTraitMFC_DLL@DV?$ChTraitsCRT@D@ATL@@@@@ATL@@XZ$17:
  000b3	8b 45 f0	 mov	 eax, DWORD PTR $T14[ebp]
  000b6	25 00 02 00 00	 and	 eax, 512		; 00000200H
  000bb	0f 84 10 00 00
	00		 je	 $LN93@GetSavedDa
  000c1	81 65 f0 ff fd
	ff ff		 and	 DWORD PTR $T14[ebp], -513 ; fffffdffH
  000c8	8d 4d e0	 lea	 ecx, DWORD PTR $T7[ebp]
  000cb	ff 25 00 00 00
	00		 jmp	 DWORD PTR __imp_??1?$CStringT@DV?$StrTraitMFC_DLL@DV?$ChTraitsCRT@D@ATL@@@@@ATL@@QAE@XZ
$LN93@GetSavedDa:
  000d1	c3		 ret	 0
__unwindfunclet$?GetSavedData@CDataTypeEnvironment@@QBE?AV?$CStringT@DV?$StrTraitMFC_DLL@DV?$ChTraitsCRT@D@ATL@@@@@ATL@@XZ$3:
  000d2	8d 4d e0	 lea	 ecx, DWORD PTR $T7[ebp]
  000d5	ff 25 00 00 00
	00		 jmp	 DWORD PTR __imp_??1?$CStringT@DV?$StrTraitMFC_DLL@DV?$ChTraitsCRT@D@ATL@@@@@ATL@@QAE@XZ
__unwindfunclet$?GetSavedData@CDataTypeEnvironment@@QBE?AV?$CStringT@DV?$StrTraitMFC_DLL@DV?$ChTraitsCRT@D@ATL@@@@@ATL@@XZ$18:
  000db	8d 4d d0	 lea	 ecx, DWORD PTR $T3[ebp]
  000de	ff 25 00 00 00
	00		 jmp	 DWORD PTR __imp_??1?$CStringT@DV?$StrTraitMFC_DLL@DV?$ChTraitsCRT@D@ATL@@@@@ATL@@QAE@XZ
__unwindfunclet$?GetSavedData@CDataTypeEnvironment@@QBE?AV?$CStringT@DV?$StrTraitMFC_DLL@DV?$ChTraitsCRT@D@ATL@@@@@ATL@@XZ$19:
  000e4	8d 4d d4	 lea	 ecx, DWORD PTR $T4[ebp]
  000e7	ff 25 00 00 00
	00		 jmp	 DWORD PTR __imp_??1?$CStringT@DV?$StrTraitMFC_DLL@DV?$ChTraitsCRT@D@ATL@@@@@ATL@@QAE@XZ
__unwindfunclet$?GetSavedData@CDataTypeEnvironment@@QBE?AV?$CStringT@DV?$StrTraitMFC_DLL@DV?$ChTraitsCRT@D@ATL@@@@@ATL@@XZ$22:
  000ed	8b 45 f0	 mov	 eax, DWORD PTR $T14[ebp]
  000f0	25 00 10 00 00	 and	 eax, 4096		; 00001000H
  000f5	0f 84 10 00 00
	00		 je	 $LN125@GetSavedDa
  000fb	81 65 f0 ff ef
	ff ff		 and	 DWORD PTR $T14[ebp], -4097 ; ffffefffH
  00102	8d 4d e4	 lea	 ecx, DWORD PTR $T8[ebp]
  00105	ff 25 00 00 00
	00		 jmp	 DWORD PTR __imp_??1?$CStringT@DV?$StrTraitMFC_DLL@DV?$ChTraitsCRT@D@ATL@@@@@ATL@@QAE@XZ
$LN125@GetSavedDa:
  0010b	c3		 ret	 0
__unwindfunclet$?GetSavedData@CDataTypeEnvironment@@QBE?AV?$CStringT@DV?$StrTraitMFC_DLL@DV?$ChTraitsCRT@D@ATL@@@@@ATL@@XZ$4:
  0010c	8d 4d e4	 lea	 ecx, DWORD PTR $T8[ebp]
  0010f	ff 25 00 00 00
	00		 jmp	 DWORD PTR __imp_??1?$CStringT@DV?$StrTraitMFC_DLL@DV?$ChTraitsCRT@D@ATL@@@@@ATL@@QAE@XZ
__unwindfunclet$?GetSavedData@CDataTypeEnvironment@@QBE?AV?$CStringT@DV?$StrTraitMFC_DLL@DV?$ChTraitsCRT@D@ATL@@@@@ATL@@XZ$23:
  00115	8d 4d cc	 lea	 ecx, DWORD PTR $T2[ebp]
  00118	ff 25 00 00 00
	00		 jmp	 DWORD PTR __imp_??1?$CStringT@DV?$StrTraitMFC_DLL@DV?$ChTraitsCRT@D@ATL@@@@@ATL@@QAE@XZ
__unwindfunclet$?GetSavedData@CDataTypeEnvironment@@QBE?AV?$CStringT@DV?$StrTraitMFC_DLL@DV?$ChTraitsCRT@D@ATL@@@@@ATL@@XZ$24:
  0011e	8d 4d ec	 lea	 ecx, DWORD PTR $T10[ebp]
  00121	ff 25 00 00 00
	00		 jmp	 DWORD PTR __imp_??1?$CStringT@DV?$StrTraitMFC_DLL@DV?$ChTraitsCRT@D@ATL@@@@@ATL@@QAE@XZ
__unwindfunclet$?GetSavedData@CDataTypeEnvironment@@QBE?AV?$CStringT@DV?$StrTraitMFC_DLL@DV?$ChTraitsCRT@D@ATL@@@@@ATL@@XZ$27:
  00127	8b 45 f0	 mov	 eax, DWORD PTR $T14[ebp]
  0012a	25 00 80 00 00	 and	 eax, 32768		; 00008000H
  0012f	0f 84 10 00 00
	00		 je	 $LN157@GetSavedDa
  00135	81 65 f0 ff 7f
	ff ff		 and	 DWORD PTR $T14[ebp], -32769 ; ffff7fffH
  0013c	8d 4d e8	 lea	 ecx, DWORD PTR $T9[ebp]
  0013f	ff 25 00 00 00
	00		 jmp	 DWORD PTR __imp_??1?$CStringT@DV?$StrTraitMFC_DLL@DV?$ChTraitsCRT@D@ATL@@@@@ATL@@QAE@XZ
$LN157@GetSavedDa:
  00145	c3		 ret	 0
__unwindfunclet$?GetSavedData@CDataTypeEnvironment@@QBE?AV?$CStringT@DV?$StrTraitMFC_DLL@DV?$ChTraitsCRT@D@ATL@@@@@ATL@@XZ$5:
  00146	8d 4d e8	 lea	 ecx, DWORD PTR $T9[ebp]
  00149	ff 25 00 00 00
	00		 jmp	 DWORD PTR __imp_??1?$CStringT@DV?$StrTraitMFC_DLL@DV?$ChTraitsCRT@D@ATL@@@@@ATL@@QAE@XZ
  0014f	cc		 int	 3
  00150	cc		 int	 3
  00151	cc		 int	 3
  00152	cc		 int	 3
  00153	cc		 int	 3
__ehhandler$?GetSavedData@CDataTypeEnvironment@@QBE?AV?$CStringT@DV?$StrTraitMFC_DLL@DV?$ChTraitsCRT@D@ATL@@@@@ATL@@XZ:
  00154	90		 npad	 1
  00155	90		 npad	 1
  00156	8b 54 24 08	 mov	 edx, DWORD PTR [esp+8]
  0015a	8d 42 0c	 lea	 eax, DWORD PTR [edx+12]
  0015d	8b 4a c8	 mov	 ecx, DWORD PTR [edx-56]
  00160	33 c8		 xor	 ecx, eax
  00162	e8 00 00 00 00	 call	 @__security_check_cookie@4
  00167	b8 00 00 00 00	 mov	 eax, OFFSET __ehfuncinfo$?GetSavedData@CDataTypeEnvironment@@QBE?AV?$CStringT@DV?$StrTraitMFC_DLL@DV?$ChTraitsCRT@D@ATL@@@@@ATL@@XZ
  0016c	e9 00 00 00 00	 jmp	 ___CxxFrameHandler3
text$x	ENDS
?GetSavedData@CDataTypeEnvironment@@QBE?AV?$CStringT@DV?$StrTraitMFC_DLL@DV?$ChTraitsCRT@D@ATL@@@@@ATL@@XZ ENDP ; CDataTypeEnvironment::GetSavedData
; Function compile flags: /Ogtp
; File D:\git\src\IBK\IBK_DRFN\ProjSrc\SrcChartEx\ChartAddIn\ChartAnalysisToolAddIn\Include_Analysis\ElementEnvironment.cpp
;	COMDAT ?GetStrVert@CDataTypeEnvironment@@QBE?AV?$CStringT@DV?$StrTraitMFC_DLL@DV?$ChTraitsCRT@D@ATL@@@@@ATL@@XZ
_TEXT	SEGMENT
___$ReturnUdt$ = 8					; size = 4
?GetStrVert@CDataTypeEnvironment@@QBE?AV?$CStringT@DV?$StrTraitMFC_DLL@DV?$ChTraitsCRT@D@ATL@@@@@ATL@@XZ PROC ; CDataTypeEnvironment::GetStrVert, COMDAT
; _this$ = ecx

; 377  : {

  00000	55		 push	 ebp
  00001	8b ec		 mov	 ebp, esp

; 378  : 	return m_strVert;

  00003	8d 41 18	 lea	 eax, DWORD PTR [ecx+24]
  00006	8b 4d 08	 mov	 ecx, DWORD PTR ___$ReturnUdt$[ebp]
  00009	50		 push	 eax
  0000a	ff 15 00 00 00
	00		 call	 DWORD PTR __imp_??0?$CStringT@DV?$StrTraitMFC_DLL@DV?$ChTraitsCRT@D@ATL@@@@@ATL@@QAE@ABV01@@Z
  00010	8b 45 08	 mov	 eax, DWORD PTR ___$ReturnUdt$[ebp]

; 379  : }

  00013	5d		 pop	 ebp
  00014	c2 04 00	 ret	 4
?GetStrVert@CDataTypeEnvironment@@QBE?AV?$CStringT@DV?$StrTraitMFC_DLL@DV?$ChTraitsCRT@D@ATL@@@@@ATL@@XZ ENDP ; CDataTypeEnvironment::GetStrVert
_TEXT	ENDS
; Function compile flags: /Ogtp
; File D:\git\src\IBK\IBK_DRFN\ProjSrc\SrcChartEx\ChartAddIn\ChartAnalysisToolAddIn\Include_Analysis\ElementEnvironment.cpp
;	COMDAT ?GetExtData@CDataTypeEnvironment@@QBE?AV?$CStringT@DV?$StrTraitMFC_DLL@DV?$ChTraitsCRT@D@ATL@@@@@ATL@@XZ
_TEXT	SEGMENT
___$ReturnUdt$ = 8					; size = 4
?GetExtData@CDataTypeEnvironment@@QBE?AV?$CStringT@DV?$StrTraitMFC_DLL@DV?$ChTraitsCRT@D@ATL@@@@@ATL@@XZ PROC ; CDataTypeEnvironment::GetExtData, COMDAT
; _this$ = ecx

; 371  : {

  00000	55		 push	 ebp
  00001	8b ec		 mov	 ebp, esp

; 372  : 	return m_strExtData;

  00003	8d 41 14	 lea	 eax, DWORD PTR [ecx+20]
  00006	8b 4d 08	 mov	 ecx, DWORD PTR ___$ReturnUdt$[ebp]
  00009	50		 push	 eax
  0000a	ff 15 00 00 00
	00		 call	 DWORD PTR __imp_??0?$CStringT@DV?$StrTraitMFC_DLL@DV?$ChTraitsCRT@D@ATL@@@@@ATL@@QAE@ABV01@@Z
  00010	8b 45 08	 mov	 eax, DWORD PTR ___$ReturnUdt$[ebp]

; 373  : }

  00013	5d		 pop	 ebp
  00014	c2 04 00	 ret	 4
?GetExtData@CDataTypeEnvironment@@QBE?AV?$CStringT@DV?$StrTraitMFC_DLL@DV?$ChTraitsCRT@D@ATL@@@@@ATL@@XZ ENDP ; CDataTypeEnvironment::GetExtData
_TEXT	ENDS
; Function compile flags: /Ogtp
; File D:\git\src\IBK\IBK_DRFN\ProjSrc\SrcChartEx\ChartAddIn\ChartAnalysisToolAddIn\Include_Analysis\ElementEnvironment.cpp
;	COMDAT ?GetTimeCompart@CDataTypeEnvironment@@QBE?AV?$CStringT@DV?$StrTraitMFC_DLL@DV?$ChTraitsCRT@D@ATL@@@@@ATL@@XZ
_TEXT	SEGMENT
___$ReturnUdt$ = 8					; size = 4
?GetTimeCompart@CDataTypeEnvironment@@QBE?AV?$CStringT@DV?$StrTraitMFC_DLL@DV?$ChTraitsCRT@D@ATL@@@@@ATL@@XZ PROC ; CDataTypeEnvironment::GetTimeCompart, COMDAT
; _this$ = ecx

; 391  : {

  00000	55		 push	 ebp
  00001	8b ec		 mov	 ebp, esp

; 392  : 	if(m_strHorz.GetLength() > 0)

  00003	8b 41 10	 mov	 eax, DWORD PTR [ecx+16]
  00006	8b 4d 08	 mov	 ecx, DWORD PTR ___$ReturnUdt$[ebp]
  00009	56		 push	 esi
  0000a	83 78 f4 00	 cmp	 DWORD PTR [eax-12], 0
  0000e	7e 13		 jle	 SHORT $LN2@GetTimeCom

; 393  : 		return ":";

  00010	68 00 00 00 00	 push	 OFFSET ??_C@_01JLIPDDHJ@?3@

; 395  : }

  00015	ff 15 00 00 00
	00		 call	 DWORD PTR __imp_??0?$CStringT@DV?$StrTraitMFC_DLL@DV?$ChTraitsCRT@D@ATL@@@@@ATL@@QAE@PBD@Z
  0001b	8b 45 08	 mov	 eax, DWORD PTR ___$ReturnUdt$[ebp]
  0001e	5e		 pop	 esi
  0001f	5d		 pop	 ebp
  00020	c2 04 00	 ret	 4
$LN2@GetTimeCom:

; 394  : 	return "";

  00023	68 00 00 00 00	 push	 OFFSET ??_C@_00CNPNBAHC@@

; 395  : }

  00028	ff 15 00 00 00
	00		 call	 DWORD PTR __imp_??0?$CStringT@DV?$StrTraitMFC_DLL@DV?$ChTraitsCRT@D@ATL@@@@@ATL@@QAE@PBD@Z
  0002e	8b 45 08	 mov	 eax, DWORD PTR ___$ReturnUdt$[ebp]
  00031	5e		 pop	 esi
  00032	5d		 pop	 ebp
  00033	c2 04 00	 ret	 4
?GetTimeCompart@CDataTypeEnvironment@@QBE?AV?$CStringT@DV?$StrTraitMFC_DLL@DV?$ChTraitsCRT@D@ATL@@@@@ATL@@XZ ENDP ; CDataTypeEnvironment::GetTimeCompart
_TEXT	ENDS
; Function compile flags: /Ogtp
; File D:\git\src\IBK\IBK_DRFN\ProjSrc\SrcChartEx\ChartAddIn\ChartAnalysisToolAddIn\Include_Analysis\ElementEnvironment.cpp
;	COMDAT ?GetDateCompart@CDataTypeEnvironment@@QBE?AV?$CStringT@DV?$StrTraitMFC_DLL@DV?$ChTraitsCRT@D@ATL@@@@@ATL@@XZ
_TEXT	SEGMENT
___$ReturnUdt$ = 8					; size = 4
?GetDateCompart@CDataTypeEnvironment@@QBE?AV?$CStringT@DV?$StrTraitMFC_DLL@DV?$ChTraitsCRT@D@ATL@@@@@ATL@@XZ PROC ; CDataTypeEnvironment::GetDateCompart, COMDAT
; _this$ = ecx

; 384  : {

  00000	55		 push	 ebp
  00001	8b ec		 mov	 ebp, esp

; 385  : 	if(m_strHorz.GetLength() > 0)

  00003	8b 41 10	 mov	 eax, DWORD PTR [ecx+16]
  00006	8b 4d 08	 mov	 ecx, DWORD PTR ___$ReturnUdt$[ebp]
  00009	56		 push	 esi
  0000a	83 78 f4 00	 cmp	 DWORD PTR [eax-12], 0
  0000e	7e 13		 jle	 SHORT $LN2@GetDateCom

; 386  : 		return "/";

  00010	68 00 00 00 00	 push	 OFFSET ??_C@_01KMDKNFGN@?1@

; 388  : }

  00015	ff 15 00 00 00
	00		 call	 DWORD PTR __imp_??0?$CStringT@DV?$StrTraitMFC_DLL@DV?$ChTraitsCRT@D@ATL@@@@@ATL@@QAE@PBD@Z
  0001b	8b 45 08	 mov	 eax, DWORD PTR ___$ReturnUdt$[ebp]
  0001e	5e		 pop	 esi
  0001f	5d		 pop	 ebp
  00020	c2 04 00	 ret	 4
$LN2@GetDateCom:

; 387  : 	return "";

  00023	68 00 00 00 00	 push	 OFFSET ??_C@_00CNPNBAHC@@

; 388  : }

  00028	ff 15 00 00 00
	00		 call	 DWORD PTR __imp_??0?$CStringT@DV?$StrTraitMFC_DLL@DV?$ChTraitsCRT@D@ATL@@@@@ATL@@QAE@PBD@Z
  0002e	8b 45 08	 mov	 eax, DWORD PTR ___$ReturnUdt$[ebp]
  00031	5e		 pop	 esi
  00032	5d		 pop	 ebp
  00033	c2 04 00	 ret	 4
?GetDateCompart@CDataTypeEnvironment@@QBE?AV?$CStringT@DV?$StrTraitMFC_DLL@DV?$ChTraitsCRT@D@ATL@@@@@ATL@@XZ ENDP ; CDataTypeEnvironment::GetDateCompart
_TEXT	ENDS
; Function compile flags: /Ogtp
; File D:\git\src\IBK\IBK_DRFN\ProjSrc\SrcChartEx\ChartAddIn\ChartAnalysisToolAddIn\Include_Analysis\ElementEnvironment.cpp
;	COMDAT ?GetHorz@CDataTypeEnvironment@@QBE?AV?$CStringT@DV?$StrTraitMFC_DLL@DV?$ChTraitsCRT@D@ATL@@@@@ATL@@XZ
_TEXT	SEGMENT
___$ReturnUdt$ = 8					; size = 4
?GetHorz@CDataTypeEnvironment@@QBE?AV?$CStringT@DV?$StrTraitMFC_DLL@DV?$ChTraitsCRT@D@ATL@@@@@ATL@@XZ PROC ; CDataTypeEnvironment::GetHorz, COMDAT
; _this$ = ecx

; 365  : {

  00000	55		 push	 ebp
  00001	8b ec		 mov	 ebp, esp

; 366  : 	return m_strHorz;

  00003	8d 41 10	 lea	 eax, DWORD PTR [ecx+16]
  00006	8b 4d 08	 mov	 ecx, DWORD PTR ___$ReturnUdt$[ebp]
  00009	50		 push	 eax
  0000a	ff 15 00 00 00
	00		 call	 DWORD PTR __imp_??0?$CStringT@DV?$StrTraitMFC_DLL@DV?$ChTraitsCRT@D@ATL@@@@@ATL@@QAE@ABV01@@Z
  00010	8b 45 08	 mov	 eax, DWORD PTR ___$ReturnUdt$[ebp]

; 367  : }

  00013	5d		 pop	 ebp
  00014	c2 04 00	 ret	 4
?GetHorz@CDataTypeEnvironment@@QBE?AV?$CStringT@DV?$StrTraitMFC_DLL@DV?$ChTraitsCRT@D@ATL@@@@@ATL@@XZ ENDP ; CDataTypeEnvironment::GetHorz
_TEXT	ENDS
; Function compile flags: /Ogtp
; File D:\git\src\IBK\IBK_DRFN\ProjSrc\SrcChartEx\ChartAddIn\ChartAnalysisToolAddIn\Include_Analysis\ElementEnvironment.cpp
;	COMDAT ?GetVert@CDataTypeEnvironment@@QBENXZ
_TEXT	SEGMENT
?GetVert@CDataTypeEnvironment@@QBENXZ PROC		; CDataTypeEnvironment::GetVert, COMDAT
; _this$ = ecx

; 361  : 	return m_dVert;

  00000	dd 41 08	 fld	 QWORD PTR [ecx+8]

; 362  : }

  00003	c3		 ret	 0
?GetVert@CDataTypeEnvironment@@QBENXZ ENDP		; CDataTypeEnvironment::GetVert
_TEXT	ENDS
; Function compile flags: /Ogtp
; File D:\git\src\IBK\IBK_DRFN\ProjSrc\SrcChartEx\ChartAddIn\ChartAnalysisToolAddIn\Include_Analysis\ElementEnvironment.cpp
;	COMDAT ?GetCoordinateType@CDataTypeEnvironment@@QBE?AW4COORDINATETYPE@CAnalysis@@XZ
_TEXT	SEGMENT
?GetCoordinateType@CDataTypeEnvironment@@QBE?AW4COORDINATETYPE@CAnalysis@@XZ PROC ; CDataTypeEnvironment::GetCoordinateType, COMDAT
; _this$ = ecx

; 356  : 	return m_eCoordinateType;

  00000	8b 01		 mov	 eax, DWORD PTR [ecx]

; 357  : }

  00002	c3		 ret	 0
?GetCoordinateType@CDataTypeEnvironment@@QBE?AW4COORDINATETYPE@CAnalysis@@XZ ENDP ; CDataTypeEnvironment::GetCoordinateType
_TEXT	ENDS
; Function compile flags: /Ogtp
; File D:\git\src\IBK\IBK_DRFN\ProjSrc\SrcChartEx\ChartAddIn\ChartAnalysisToolAddIn\Include_Analysis\ElementEnvironment.cpp
; File C:\Program Files (x86)\Microsoft Visual Studio\2019\Community\VC\Tools\MSVC\14.29.30133\atlmfc\include\atlsimpstr.h
; File D:\git\src\IBK\IBK_DRFN\ProjSrc\SrcChartEx\ChartAddIn\ChartAnalysisToolAddIn\Include_Analysis\ElementEnvironment.cpp
;	COMDAT ?IsDateType@CDataTypeEnvironment@@QBE_NXZ
_TEXT	SEGMENT
?IsDateType@CDataTypeEnvironment@@QBE_NXZ PROC		; CDataTypeEnvironment::IsDateType, COMDAT
; _this$ = ecx
; File C:\Program Files (x86)\Microsoft Visual Studio\2019\Community\VC\Tools\MSVC\14.29.30133\atlmfc\include\atlsimpstr.h

; 533  : 		return( GetLength() == 0 );

  00000	8b 41 10	 mov	 eax, DWORD PTR [ecx+16]

; 800  : 		return( reinterpret_cast< CStringData* >( m_pszData )-1 );

  00003	83 c1 10	 add	 ecx, 16			; 00000010H

; 533  : 		return( GetLength() == 0 );

  00006	83 78 f4 00	 cmp	 DWORD PTR [eax-12], 0
; File D:\git\src\IBK\IBK_DRFN\ProjSrc\SrcChartEx\ChartAddIn\ChartAnalysisToolAddIn\Include_Analysis\ElementEnvironment.cpp

; 348  : 	if(m_strHorz.IsEmpty())

  0000a	75 03		 jne	 SHORT $LN2@IsDateType

; 349  : 		return false;

  0000c	32 c0		 xor	 al, al

; 352  : }

  0000e	c3		 ret	 0
$LN2@IsDateType:

; 350  : 
; 351  : 	return (m_strHorz.Find("1") < 0);

  0000f	6a 00		 push	 0
  00011	68 00 00 00 00	 push	 OFFSET ??_C@_01HIHLOKLC@1@
  00016	ff 15 00 00 00
	00		 call	 DWORD PTR __imp_?Find@?$CStringT@DV?$StrTraitMFC_DLL@DV?$ChTraitsCRT@D@ATL@@@@@ATL@@QBEHPBDH@Z
  0001c	85 c0		 test	 eax, eax
  0001e	0f 98 c0	 sets	 al

; 352  : }

  00021	c3		 ret	 0
?IsDateType@CDataTypeEnvironment@@QBE_NXZ ENDP		; CDataTypeEnvironment::IsDateType
_TEXT	ENDS
; Function compile flags: /Ogtp
; File D:\git\src\IBK\IBK_DRFN\ProjSrc\SrcChartEx\ChartAddIn\ChartAnalysisToolAddIn\Include_Analysis\ElementEnvironment.cpp
;	COMDAT ?IsRelativePointType@CDataTypeEnvironment@@QBE_NXZ
_TEXT	SEGMENT
?IsRelativePointType@CDataTypeEnvironment@@QBE_NXZ PROC	; CDataTypeEnvironment::IsRelativePointType, COMDAT
; _this$ = ecx

; 343  : 	return (m_eCoordinateType == CAnalysis::RELATIVE_POINT);

  00000	83 39 00	 cmp	 DWORD PTR [ecx], 0
  00003	0f 94 c0	 sete	 al

; 344  : }

  00006	c3		 ret	 0
?IsRelativePointType@CDataTypeEnvironment@@QBE_NXZ ENDP	; CDataTypeEnvironment::IsRelativePointType
_TEXT	ENDS
; Function compile flags: /Ogtp
; File D:\git\src\IBK\IBK_DRFN\ProjSrc\SrcChartEx\ChartAddIn\ChartAnalysisToolAddIn\Include_Analysis\ElementEnvironment.cpp
;	COMDAT ?SetStrVert@CDataTypeEnvironment@@QAEXABV?$CStringT@DV?$StrTraitMFC_DLL@DV?$ChTraitsCRT@D@ATL@@@@@ATL@@@Z
_TEXT	SEGMENT
_strDataType$ = 8					; size = 4
?SetStrVert@CDataTypeEnvironment@@QAEXABV?$CStringT@DV?$StrTraitMFC_DLL@DV?$ChTraitsCRT@D@ATL@@@@@ATL@@@Z PROC ; CDataTypeEnvironment::SetStrVert, COMDAT
; _this$ = ecx

; 335  : {

  00000	55		 push	 ebp
  00001	8b ec		 mov	 ebp, esp

; 336  : 	m_strVert = strDataType;

  00003	83 c1 18	 add	 ecx, 24			; 00000018H

; 337  : }

  00006	5d		 pop	 ebp

; 336  : 	m_strVert = strDataType;

  00007	ff 25 00 00 00
	00		 jmp	 DWORD PTR __imp_??4?$CStringT@DV?$StrTraitMFC_DLL@DV?$ChTraitsCRT@D@ATL@@@@@ATL@@QAEAAV01@ABV01@@Z
?SetStrVert@CDataTypeEnvironment@@QAEXABV?$CStringT@DV?$StrTraitMFC_DLL@DV?$ChTraitsCRT@D@ATL@@@@@ATL@@@Z ENDP ; CDataTypeEnvironment::SetStrVert
_TEXT	ENDS
; Function compile flags: /Ogtp
; File D:\git\src\IBK\IBK_DRFN\ProjSrc\SrcChartEx\ChartAddIn\ChartAnalysisToolAddIn\Include_Analysis\ElementEnvironment.cpp
;	COMDAT ?SetExtData@CDataTypeEnvironment@@QAEXABV?$CStringT@DV?$StrTraitMFC_DLL@DV?$ChTraitsCRT@D@ATL@@@@@ATL@@@Z
_TEXT	SEGMENT
_strExtData$ = 8					; size = 4
?SetExtData@CDataTypeEnvironment@@QAEXABV?$CStringT@DV?$StrTraitMFC_DLL@DV?$ChTraitsCRT@D@ATL@@@@@ATL@@@Z PROC ; CDataTypeEnvironment::SetExtData, COMDAT
; _this$ = ecx

; 329  : {

  00000	55		 push	 ebp
  00001	8b ec		 mov	 ebp, esp

; 330  : 	m_strExtData = strExtData;

  00003	83 c1 14	 add	 ecx, 20			; 00000014H

; 331  : }

  00006	5d		 pop	 ebp

; 330  : 	m_strExtData = strExtData;

  00007	ff 25 00 00 00
	00		 jmp	 DWORD PTR __imp_??4?$CStringT@DV?$StrTraitMFC_DLL@DV?$ChTraitsCRT@D@ATL@@@@@ATL@@QAEAAV01@ABV01@@Z
?SetExtData@CDataTypeEnvironment@@QAEXABV?$CStringT@DV?$StrTraitMFC_DLL@DV?$ChTraitsCRT@D@ATL@@@@@ATL@@@Z ENDP ; CDataTypeEnvironment::SetExtData
_TEXT	ENDS
; Function compile flags: /Ogtp
; File D:\git\src\IBK\IBK_DRFN\ProjSrc\SrcChartEx\ChartAddIn\ChartAnalysisToolAddIn\Include_Analysis\ElementEnvironment.cpp
;	COMDAT ?SetHorz@CDataTypeEnvironment@@QAEXABV?$CStringT@DV?$StrTraitMFC_DLL@DV?$ChTraitsCRT@D@ATL@@@@@ATL@@@Z
_TEXT	SEGMENT
_strDataType$ = 8					; size = 4
?SetHorz@CDataTypeEnvironment@@QAEXABV?$CStringT@DV?$StrTraitMFC_DLL@DV?$ChTraitsCRT@D@ATL@@@@@ATL@@@Z PROC ; CDataTypeEnvironment::SetHorz, COMDAT
; _this$ = ecx

; 323  : {

  00000	55		 push	 ebp
  00001	8b ec		 mov	 ebp, esp

; 324  : 	m_strHorz = strDataType;

  00003	83 c1 10	 add	 ecx, 16			; 00000010H

; 325  : }

  00006	5d		 pop	 ebp

; 324  : 	m_strHorz = strDataType;

  00007	ff 25 00 00 00
	00		 jmp	 DWORD PTR __imp_??4?$CStringT@DV?$StrTraitMFC_DLL@DV?$ChTraitsCRT@D@ATL@@@@@ATL@@QAEAAV01@ABV01@@Z
?SetHorz@CDataTypeEnvironment@@QAEXABV?$CStringT@DV?$StrTraitMFC_DLL@DV?$ChTraitsCRT@D@ATL@@@@@ATL@@@Z ENDP ; CDataTypeEnvironment::SetHorz
_TEXT	ENDS
; Function compile flags: /Ogtp
; File D:\git\src\IBK\IBK_DRFN\ProjSrc\SrcChartEx\ChartAddIn\ChartAnalysisToolAddIn\Include_Analysis\ElementEnvironment.cpp
;	COMDAT ?SetVert@CDataTypeEnvironment@@QAEXABN@Z
_TEXT	SEGMENT
_dDataType$ = 8						; size = 4
?SetVert@CDataTypeEnvironment@@QAEXABN@Z PROC		; CDataTypeEnvironment::SetVert, COMDAT
; _this$ = ecx

; 318  : {

  00000	55		 push	 ebp
  00001	8b ec		 mov	 ebp, esp

; 319  : 	m_dVert = dDataType;

  00003	8b 45 08	 mov	 eax, DWORD PTR _dDataType$[ebp]
  00006	f2 0f 10 00	 movsd	 xmm0, QWORD PTR [eax]
  0000a	f2 0f 11 41 08	 movsd	 QWORD PTR [ecx+8], xmm0

; 320  : }

  0000f	5d		 pop	 ebp
  00010	c2 04 00	 ret	 4
?SetVert@CDataTypeEnvironment@@QAEXABN@Z ENDP		; CDataTypeEnvironment::SetVert
_TEXT	ENDS
; Function compile flags: /Ogtp
; File D:\git\src\IBK\IBK_DRFN\ProjSrc\SrcChartEx\ChartAddIn\ChartAnalysisToolAddIn\Include_Analysis\ElementEnvironment.cpp
;	COMDAT ?SetCoordinateType@CDataTypeEnvironment@@QAEXW4COORDINATETYPE@CAnalysis@@@Z
_TEXT	SEGMENT
_eCoordinateType$ = 8					; size = 4
?SetCoordinateType@CDataTypeEnvironment@@QAEXW4COORDINATETYPE@CAnalysis@@@Z PROC ; CDataTypeEnvironment::SetCoordinateType, COMDAT
; _this$ = ecx

; 313  : {

  00000	55		 push	 ebp
  00001	8b ec		 mov	 ebp, esp

; 314  : 	m_eCoordinateType = eCoordinateType;

  00003	8b 45 08	 mov	 eax, DWORD PTR _eCoordinateType$[ebp]
  00006	89 01		 mov	 DWORD PTR [ecx], eax

; 315  : }

  00008	5d		 pop	 ebp
  00009	c2 04 00	 ret	 4
?SetCoordinateType@CDataTypeEnvironment@@QAEXW4COORDINATETYPE@CAnalysis@@@Z ENDP ; CDataTypeEnvironment::SetCoordinateType
_TEXT	ENDS
; Function compile flags: /Ogtp
; File D:\git\src\IBK\IBK_DRFN\ProjSrc\SrcChartEx\ChartAddIn\ChartAnalysisToolAddIn\Include_Analysis\ElementEnvironment.cpp
;	COMDAT ?Reset_AbsolutePoint@CDataTypeEnvironment@@QAEXXZ
_TEXT	SEGMENT
?Reset_AbsolutePoint@CDataTypeEnvironment@@QAEXXZ PROC	; CDataTypeEnvironment::Reset_AbsolutePoint, COMDAT
; _this$ = ecx

; 307  : 	m_eCoordinateType = CAnalysis::ABSOLUTE_POINT;
; 308  : 	m_dVert = 1.0;

  00000	f2 0f 10 05 00
	00 00 00	 movsd	 xmm0, QWORD PTR __real@3ff0000000000000
  00008	c7 01 01 00 00
	00		 mov	 DWORD PTR [ecx], 1
  0000e	f2 0f 11 41 08	 movsd	 QWORD PTR [ecx+8], xmm0

; 309  : 	m_strHorz = "";

  00013	83 c1 10	 add	 ecx, 16			; 00000010H
  00016	68 00 00 00 00	 push	 OFFSET ??_C@_00CNPNBAHC@@
  0001b	ff 15 00 00 00
	00		 call	 DWORD PTR __imp_??4?$CStringT@DV?$StrTraitMFC_DLL@DV?$ChTraitsCRT@D@ATL@@@@@ATL@@QAEAAV01@PBD@Z

; 310  : }

  00021	c3		 ret	 0
?Reset_AbsolutePoint@CDataTypeEnvironment@@QAEXXZ ENDP	; CDataTypeEnvironment::Reset_AbsolutePoint
_TEXT	ENDS
; Function compile flags: /Ogtp
; File D:\git\src\IBK\IBK_DRFN\ProjSrc\SrcChartEx\ChartAddIn\ChartAnalysisToolAddIn\Include_Analysis\ElementEnvironment.cpp
;	COMDAT ??0CDataTypeEnvironment@@QAE@PBV0@@Z
_TEXT	SEGMENT
_this$ = -16						; size = 4
__$EHRec$ = -12						; size = 12
$T2 = 8							; size = 4
$T3 = 8							; size = 4
$T4 = 8							; size = 4
_pEnvironment$ = 8					; size = 4
??0CDataTypeEnvironment@@QAE@PBV0@@Z PROC		; CDataTypeEnvironment::CDataTypeEnvironment, COMDAT
; _this$ = ecx

; 287  : {

  00000	55		 push	 ebp
  00001	8b ec		 mov	 ebp, esp
  00003	6a ff		 push	 -1
  00005	68 00 00 00 00	 push	 __ehhandler$??0CDataTypeEnvironment@@QAE@PBV0@@Z
  0000a	64 a1 00 00 00
	00		 mov	 eax, DWORD PTR fs:0
  00010	50		 push	 eax
  00011	51		 push	 ecx
  00012	53		 push	 ebx
  00013	56		 push	 esi
  00014	57		 push	 edi
  00015	a1 00 00 00 00	 mov	 eax, DWORD PTR ___security_cookie
  0001a	33 c5		 xor	 eax, ebp
  0001c	50		 push	 eax
  0001d	8d 45 f4	 lea	 eax, DWORD PTR __$EHRec$[ebp]
  00020	64 a3 00 00 00
	00		 mov	 DWORD PTR fs:0, eax
  00026	8b f1		 mov	 esi, ecx
  00028	89 75 f0	 mov	 DWORD PTR _this$[ebp], esi
  0002b	8d 4e 10	 lea	 ecx, DWORD PTR [esi+16]
  0002e	ff 15 00 00 00
	00		 call	 DWORD PTR __imp_??0?$CStringT@DV?$StrTraitMFC_DLL@DV?$ChTraitsCRT@D@ATL@@@@@ATL@@QAE@XZ
  00034	8d 4e 14	 lea	 ecx, DWORD PTR [esi+20]
  00037	c7 45 fc 00 00
	00 00		 mov	 DWORD PTR __$EHRec$[ebp+8], 0
  0003e	ff 15 00 00 00
	00		 call	 DWORD PTR __imp_??0?$CStringT@DV?$StrTraitMFC_DLL@DV?$ChTraitsCRT@D@ATL@@@@@ATL@@QAE@XZ
  00044	8d 4e 18	 lea	 ecx, DWORD PTR [esi+24]
  00047	ff 15 00 00 00
	00		 call	 DWORD PTR __imp_??0?$CStringT@DV?$StrTraitMFC_DLL@DV?$ChTraitsCRT@D@ATL@@@@@ATL@@QAE@XZ

; 288  : 	if(pEnvironment == NULL)

  0004d	8b 7d 08	 mov	 edi, DWORD PTR _pEnvironment$[ebp]
  00050	c6 45 fc 02	 mov	 BYTE PTR __$EHRec$[ebp+8], 2
  00054	85 ff		 test	 edi, edi
  00056	0f 84 97 00 00
	00		 je	 $LN22@CDataTypeE

; 289  : 		return;
; 290  : 
; 291  : 	m_eCoordinateType = pEnvironment->GetCoordinateType();

  0005c	8b 07		 mov	 eax, DWORD PTR [edi]

; 366  : 	return m_strHorz;

  0005e	8d 4d 08	 lea	 ecx, DWORD PTR $T4[ebp]

; 289  : 		return;
; 290  : 
; 291  : 	m_eCoordinateType = pEnvironment->GetCoordinateType();

  00061	89 06		 mov	 DWORD PTR [esi], eax

; 366  : 	return m_strHorz;

  00063	8d 47 10	 lea	 eax, DWORD PTR [edi+16]

; 292  : 	m_dVert = pEnvironment->GetVert();

  00066	f2 0f 10 47 08	 movsd	 xmm0, QWORD PTR [edi+8]

; 366  : 	return m_strHorz;

  0006b	50		 push	 eax

; 292  : 	m_dVert = pEnvironment->GetVert();

  0006c	f2 0f 11 46 08	 movsd	 QWORD PTR [esi+8], xmm0

; 366  : 	return m_strHorz;

  00071	ff 15 00 00 00
	00		 call	 DWORD PTR __imp_??0?$CStringT@DV?$StrTraitMFC_DLL@DV?$ChTraitsCRT@D@ATL@@@@@ATL@@QAE@ABV01@@Z

; 293  : 	m_strHorz = pEnvironment->GetHorz();

  00077	8d 45 08	 lea	 eax, DWORD PTR $T4[ebp]
  0007a	c6 45 fc 03	 mov	 BYTE PTR __$EHRec$[ebp+8], 3
  0007e	50		 push	 eax
  0007f	8d 4e 10	 lea	 ecx, DWORD PTR [esi+16]
  00082	ff 15 00 00 00
	00		 call	 DWORD PTR __imp_??4?$CStringT@DV?$StrTraitMFC_DLL@DV?$ChTraitsCRT@D@ATL@@@@@ATL@@QAEAAV01@ABV01@@Z
  00088	8d 4d 08	 lea	 ecx, DWORD PTR $T4[ebp]
  0008b	c6 45 fc 02	 mov	 BYTE PTR __$EHRec$[ebp+8], 2
  0008f	ff 15 00 00 00
	00		 call	 DWORD PTR __imp_??1?$CStringT@DV?$StrTraitMFC_DLL@DV?$ChTraitsCRT@D@ATL@@@@@ATL@@QAE@XZ

; 372  : 	return m_strExtData;

  00095	8d 47 14	 lea	 eax, DWORD PTR [edi+20]
  00098	50		 push	 eax
  00099	8d 4d 08	 lea	 ecx, DWORD PTR $T3[ebp]
  0009c	ff 15 00 00 00
	00		 call	 DWORD PTR __imp_??0?$CStringT@DV?$StrTraitMFC_DLL@DV?$ChTraitsCRT@D@ATL@@@@@ATL@@QAE@ABV01@@Z

; 294  : 	m_strExtData = pEnvironment->GetExtData();	// 2008.08.20   

  000a2	8d 45 08	 lea	 eax, DWORD PTR $T3[ebp]
  000a5	c6 45 fc 04	 mov	 BYTE PTR __$EHRec$[ebp+8], 4
  000a9	50		 push	 eax
  000aa	8d 4e 14	 lea	 ecx, DWORD PTR [esi+20]
  000ad	ff 15 00 00 00
	00		 call	 DWORD PTR __imp_??4?$CStringT@DV?$StrTraitMFC_DLL@DV?$ChTraitsCRT@D@ATL@@@@@ATL@@QAEAAV01@ABV01@@Z
  000b3	8d 4d 08	 lea	 ecx, DWORD PTR $T3[ebp]
  000b6	c6 45 fc 02	 mov	 BYTE PTR __$EHRec$[ebp+8], 2
  000ba	ff 15 00 00 00
	00		 call	 DWORD PTR __imp_??1?$CStringT@DV?$StrTraitMFC_DLL@DV?$ChTraitsCRT@D@ATL@@@@@ATL@@QAE@XZ

; 378  : 	return m_strVert;

  000c0	8d 47 18	 lea	 eax, DWORD PTR [edi+24]
  000c3	50		 push	 eax
  000c4	8d 4d 08	 lea	 ecx, DWORD PTR $T2[ebp]
  000c7	ff 15 00 00 00
	00		 call	 DWORD PTR __imp_??0?$CStringT@DV?$StrTraitMFC_DLL@DV?$ChTraitsCRT@D@ATL@@@@@ATL@@QAE@ABV01@@Z

; 295  : 	m_strVert = pEnvironment->GetStrVert();		// 2008.10.15 by LYH >> 8,32bit

  000cd	8d 45 08	 lea	 eax, DWORD PTR $T2[ebp]
  000d0	c6 45 fc 05	 mov	 BYTE PTR __$EHRec$[ebp+8], 5
  000d4	50		 push	 eax
  000d5	8d 4e 18	 lea	 ecx, DWORD PTR [esi+24]
  000d8	ff 15 00 00 00
	00		 call	 DWORD PTR __imp_??4?$CStringT@DV?$StrTraitMFC_DLL@DV?$ChTraitsCRT@D@ATL@@@@@ATL@@QAEAAV01@ABV01@@Z
  000de	8d 4d 08	 lea	 ecx, DWORD PTR $T2[ebp]
  000e1	ff 15 00 00 00
	00		 call	 DWORD PTR __imp_??1?$CStringT@DV?$StrTraitMFC_DLL@DV?$ChTraitsCRT@D@ATL@@@@@ATL@@QAE@XZ

; 296  : 
; 297  : 	// (2008/5/14 - Seung-Won, Bae) for Multi-Language of Special Date or Price Unit Text
; 298  : 	m_hOcxWnd = pEnvironment->GetOcxHwnd();

  000e7	8b 47 1c	 mov	 eax, DWORD PTR [edi+28]
  000ea	89 46 1c	 mov	 DWORD PTR [esi+28], eax

; 299  : 
; 300  : 	// (2009/9/15 - Seung-Won, Bae) Do not support special time for WorldOn.
; 301  : 	m_eChartMode = pEnvironment->GetChartMode();

  000ed	8b 47 20	 mov	 eax, DWORD PTR [edi+32]
  000f0	89 46 20	 mov	 DWORD PTR [esi+32], eax
$LN22@CDataTypeE:

; 302  : }

  000f3	8b c6		 mov	 eax, esi
  000f5	8b 4d f4	 mov	 ecx, DWORD PTR __$EHRec$[ebp]
  000f8	64 89 0d 00 00
	00 00		 mov	 DWORD PTR fs:0, ecx
  000ff	59		 pop	 ecx
  00100	5f		 pop	 edi
  00101	5e		 pop	 esi
  00102	5b		 pop	 ebx
  00103	8b e5		 mov	 esp, ebp
  00105	5d		 pop	 ebp
  00106	c2 04 00	 ret	 4
_TEXT	ENDS
;	COMDAT text$x
text$x	SEGMENT
__unwindfunclet$??0CDataTypeEnvironment@@QAE@PBV0@@Z$0:
  00000	8b 4d f0	 mov	 ecx, DWORD PTR _this$[ebp]
  00003	83 c1 10	 add	 ecx, 16			; 00000010H
  00006	ff 25 00 00 00
	00		 jmp	 DWORD PTR __imp_??1?$CStringT@DV?$StrTraitMFC_DLL@DV?$ChTraitsCRT@D@ATL@@@@@ATL@@QAE@XZ
__unwindfunclet$??0CDataTypeEnvironment@@QAE@PBV0@@Z$1:
  0000c	8b 4d f0	 mov	 ecx, DWORD PTR _this$[ebp]
  0000f	83 c1 14	 add	 ecx, 20			; 00000014H
  00012	ff 25 00 00 00
	00		 jmp	 DWORD PTR __imp_??1?$CStringT@DV?$StrTraitMFC_DLL@DV?$ChTraitsCRT@D@ATL@@@@@ATL@@QAE@XZ
__unwindfunclet$??0CDataTypeEnvironment@@QAE@PBV0@@Z$2:
  00018	8b 4d f0	 mov	 ecx, DWORD PTR _this$[ebp]
  0001b	83 c1 18	 add	 ecx, 24			; 00000018H
  0001e	ff 25 00 00 00
	00		 jmp	 DWORD PTR __imp_??1?$CStringT@DV?$StrTraitMFC_DLL@DV?$ChTraitsCRT@D@ATL@@@@@ATL@@QAE@XZ
__unwindfunclet$??0CDataTypeEnvironment@@QAE@PBV0@@Z$3:
  00024	8d 4d 08	 lea	 ecx, DWORD PTR $T4[ebp]
  00027	ff 25 00 00 00
	00		 jmp	 DWORD PTR __imp_??1?$CStringT@DV?$StrTraitMFC_DLL@DV?$ChTraitsCRT@D@ATL@@@@@ATL@@QAE@XZ
__unwindfunclet$??0CDataTypeEnvironment@@QAE@PBV0@@Z$4:
  0002d	8d 4d 08	 lea	 ecx, DWORD PTR $T3[ebp]
  00030	ff 25 00 00 00
	00		 jmp	 DWORD PTR __imp_??1?$CStringT@DV?$StrTraitMFC_DLL@DV?$ChTraitsCRT@D@ATL@@@@@ATL@@QAE@XZ
__unwindfunclet$??0CDataTypeEnvironment@@QAE@PBV0@@Z$5:
  00036	8d 4d 08	 lea	 ecx, DWORD PTR $T2[ebp]
  00039	ff 25 00 00 00
	00		 jmp	 DWORD PTR __imp_??1?$CStringT@DV?$StrTraitMFC_DLL@DV?$ChTraitsCRT@D@ATL@@@@@ATL@@QAE@XZ
  0003f	cc		 int	 3
  00040	cc		 int	 3
  00041	cc		 int	 3
  00042	cc		 int	 3
  00043	cc		 int	 3
__ehhandler$??0CDataTypeEnvironment@@QAE@PBV0@@Z:
  00044	90		 npad	 1
  00045	90		 npad	 1
  00046	8b 54 24 08	 mov	 edx, DWORD PTR [esp+8]
  0004a	8d 42 0c	 lea	 eax, DWORD PTR [edx+12]
  0004d	8b 4a ec	 mov	 ecx, DWORD PTR [edx-20]
  00050	33 c8		 xor	 ecx, eax
  00052	e8 00 00 00 00	 call	 @__security_check_cookie@4
  00057	b8 00 00 00 00	 mov	 eax, OFFSET __ehfuncinfo$??0CDataTypeEnvironment@@QAE@PBV0@@Z
  0005c	e9 00 00 00 00	 jmp	 ___CxxFrameHandler3
text$x	ENDS
??0CDataTypeEnvironment@@QAE@PBV0@@Z ENDP		; CDataTypeEnvironment::CDataTypeEnvironment
; Function compile flags: /Ogtp
; File D:\git\src\IBK\IBK_DRFN\ProjSrc\SrcChartEx\ChartAddIn\ChartAnalysisToolAddIn\Include_Analysis\ElementEnvironment.cpp
;	COMDAT ??0CDataTypeEnvironment@@QAE@W4COORDINATETYPE@CAnalysis@@ABNABV?$CStringT@DV?$StrTraitMFC_DLL@DV?$ChTraitsCRT@D@ATL@@@@@ATL@@22PAUHWND__@@W4CHART_MODE@CChartInfo@@@Z
_TEXT	SEGMENT
_this$ = -16						; size = 4
__$EHRec$ = -12						; size = 12
_eCoordinateType$ = 8					; size = 4
_dVert$ = 12						; size = 4
_strHorz$ = 16						; size = 4
_strExtData$ = 20					; size = 4
_strVert$ = 24						; size = 4
_p_hOcxWnd$ = 28					; size = 4
_p_eChartMode$ = 32					; size = 4
??0CDataTypeEnvironment@@QAE@W4COORDINATETYPE@CAnalysis@@ABNABV?$CStringT@DV?$StrTraitMFC_DLL@DV?$ChTraitsCRT@D@ATL@@@@@ATL@@22PAUHWND__@@W4CHART_MODE@CChartInfo@@@Z PROC ; CDataTypeEnvironment::CDataTypeEnvironment, COMDAT
; _this$ = ecx

; 277  : {

  00000	55		 push	 ebp
  00001	8b ec		 mov	 ebp, esp
  00003	6a ff		 push	 -1
  00005	68 00 00 00 00	 push	 __ehhandler$??0CDataTypeEnvironment@@QAE@W4COORDINATETYPE@CAnalysis@@ABNABV?$CStringT@DV?$StrTraitMFC_DLL@DV?$ChTraitsCRT@D@ATL@@@@@ATL@@22PAUHWND__@@W4CHART_MODE@CChartInfo@@@Z
  0000a	64 a1 00 00 00
	00		 mov	 eax, DWORD PTR fs:0
  00010	50		 push	 eax
  00011	51		 push	 ecx
  00012	56		 push	 esi
  00013	a1 00 00 00 00	 mov	 eax, DWORD PTR ___security_cookie
  00018	33 c5		 xor	 eax, ebp
  0001a	50		 push	 eax
  0001b	8d 45 f4	 lea	 eax, DWORD PTR __$EHRec$[ebp]
  0001e	64 a3 00 00 00
	00		 mov	 DWORD PTR fs:0, eax
  00024	8b f1		 mov	 esi, ecx
  00026	89 75 f0	 mov	 DWORD PTR _this$[ebp], esi

; 272  : 	m_eCoordinateType(eCoordinateType),

  00029	8b 45 08	 mov	 eax, DWORD PTR _eCoordinateType$[ebp]

; 273  : 	m_dVert(dVert),
; 274  : 	m_strHorz(strHorz),

  0002c	8d 4e 10	 lea	 ecx, DWORD PTR [esi+16]
  0002f	ff 75 10	 push	 DWORD PTR _strHorz$[ebp]
  00032	89 06		 mov	 DWORD PTR [esi], eax
  00034	8b 45 0c	 mov	 eax, DWORD PTR _dVert$[ebp]
  00037	f2 0f 10 00	 movsd	 xmm0, QWORD PTR [eax]
  0003b	f2 0f 11 46 08	 movsd	 QWORD PTR [esi+8], xmm0
  00040	ff 15 00 00 00
	00		 call	 DWORD PTR __imp_??0?$CStringT@DV?$StrTraitMFC_DLL@DV?$ChTraitsCRT@D@ATL@@@@@ATL@@QAE@ABV01@@Z

; 275  : 	m_strExtData(strExtData),

  00046	ff 75 14	 push	 DWORD PTR _strExtData$[ebp]
  00049	8d 4e 14	 lea	 ecx, DWORD PTR [esi+20]
  0004c	c7 45 fc 00 00
	00 00		 mov	 DWORD PTR __$EHRec$[ebp+8], 0
  00053	ff 15 00 00 00
	00		 call	 DWORD PTR __imp_??0?$CStringT@DV?$StrTraitMFC_DLL@DV?$ChTraitsCRT@D@ATL@@@@@ATL@@QAE@ABV01@@Z

; 276  : 	m_strVert(strVert)

  00059	ff 75 18	 push	 DWORD PTR _strVert$[ebp]
  0005c	8d 4e 18	 lea	 ecx, DWORD PTR [esi+24]
  0005f	c6 45 fc 01	 mov	 BYTE PTR __$EHRec$[ebp+8], 1
  00063	ff 15 00 00 00
	00		 call	 DWORD PTR __imp_??0?$CStringT@DV?$StrTraitMFC_DLL@DV?$ChTraitsCRT@D@ATL@@@@@ATL@@QAE@ABV01@@Z

; 278  : 	// (2008/5/14 - Seung-Won, Bae) for Multi-Language of Special Date or Price Unit Text
; 279  : 	m_hOcxWnd = p_hOcxWnd;

  00069	8b 45 1c	 mov	 eax, DWORD PTR _p_hOcxWnd$[ebp]
  0006c	89 46 1c	 mov	 DWORD PTR [esi+28], eax

; 280  : 
; 281  : 	// (2009/9/15 - Seung-Won, Bae) Do not support special time for WorldOn.
; 282  : 	m_eChartMode = p_eChartMode;

  0006f	8b 45 20	 mov	 eax, DWORD PTR _p_eChartMode$[ebp]
  00072	89 46 20	 mov	 DWORD PTR [esi+32], eax

; 283  : }

  00075	8b c6		 mov	 eax, esi
  00077	8b 4d f4	 mov	 ecx, DWORD PTR __$EHRec$[ebp]
  0007a	64 89 0d 00 00
	00 00		 mov	 DWORD PTR fs:0, ecx
  00081	59		 pop	 ecx
  00082	5e		 pop	 esi
  00083	8b e5		 mov	 esp, ebp
  00085	5d		 pop	 ebp
  00086	c2 1c 00	 ret	 28			; 0000001cH
_TEXT	ENDS
;	COMDAT text$x
text$x	SEGMENT
__unwindfunclet$??0CDataTypeEnvironment@@QAE@W4COORDINATETYPE@CAnalysis@@ABNABV?$CStringT@DV?$StrTraitMFC_DLL@DV?$ChTraitsCRT@D@ATL@@@@@ATL@@22PAUHWND__@@W4CHART_MODE@CChartInfo@@@Z$0:
  00000	8b 4d f0	 mov	 ecx, DWORD PTR _this$[ebp]
  00003	83 c1 10	 add	 ecx, 16			; 00000010H
  00006	ff 25 00 00 00
	00		 jmp	 DWORD PTR __imp_??1?$CStringT@DV?$StrTraitMFC_DLL@DV?$ChTraitsCRT@D@ATL@@@@@ATL@@QAE@XZ
__unwindfunclet$??0CDataTypeEnvironment@@QAE@W4COORDINATETYPE@CAnalysis@@ABNABV?$CStringT@DV?$StrTraitMFC_DLL@DV?$ChTraitsCRT@D@ATL@@@@@ATL@@22PAUHWND__@@W4CHART_MODE@CChartInfo@@@Z$1:
  0000c	8b 4d f0	 mov	 ecx, DWORD PTR _this$[ebp]
  0000f	83 c1 14	 add	 ecx, 20			; 00000014H
  00012	ff 25 00 00 00
	00		 jmp	 DWORD PTR __imp_??1?$CStringT@DV?$StrTraitMFC_DLL@DV?$ChTraitsCRT@D@ATL@@@@@ATL@@QAE@XZ
  00018	cc		 int	 3
  00019	cc		 int	 3
  0001a	cc		 int	 3
  0001b	cc		 int	 3
  0001c	cc		 int	 3
__ehhandler$??0CDataTypeEnvironment@@QAE@W4COORDINATETYPE@CAnalysis@@ABNABV?$CStringT@DV?$StrTraitMFC_DLL@DV?$ChTraitsCRT@D@ATL@@@@@ATL@@22PAUHWND__@@W4CHART_MODE@CChartInfo@@@Z:
  0001d	90		 npad	 1
  0001e	90		 npad	 1
  0001f	8b 54 24 08	 mov	 edx, DWORD PTR [esp+8]
  00023	8d 42 0c	 lea	 eax, DWORD PTR [edx+12]
  00026	8b 4a f4	 mov	 ecx, DWORD PTR [edx-12]
  00029	33 c8		 xor	 ecx, eax
  0002b	e8 00 00 00 00	 call	 @__security_check_cookie@4
  00030	b8 00 00 00 00	 mov	 eax, OFFSET __ehfuncinfo$??0CDataTypeEnvironment@@QAE@W4COORDINATETYPE@CAnalysis@@ABNABV?$CStringT@DV?$StrTraitMFC_DLL@DV?$ChTraitsCRT@D@ATL@@@@@ATL@@22PAUHWND__@@W4CHART_MODE@CChartInfo@@@Z
  00035	e9 00 00 00 00	 jmp	 ___CxxFrameHandler3
text$x	ENDS
??0CDataTypeEnvironment@@QAE@W4COORDINATETYPE@CAnalysis@@ABNABV?$CStringT@DV?$StrTraitMFC_DLL@DV?$ChTraitsCRT@D@ATL@@@@@ATL@@22PAUHWND__@@W4CHART_MODE@CChartInfo@@@Z ENDP ; CDataTypeEnvironment::CDataTypeEnvironment
; Function compile flags: /Ogtp
; File D:\git\src\IBK\IBK_DRFN\ProjSrc\SrcChartEx\ChartAddIn\ChartAnalysisToolAddIn\Include_Analysis\ElementEnvironment.cpp
;	COMDAT ??0CDataTypeEnvironment@@QAE@W4COORDINATETYPE@CAnalysis@@ABNABV?$CStringT@DV?$StrTraitMFC_DLL@DV?$ChTraitsCRT@D@ATL@@@@@ATL@@2PAUHWND__@@W4CHART_MODE@CChartInfo@@@Z
_TEXT	SEGMENT
_this$ = -16						; size = 4
__$EHRec$ = -12						; size = 12
_eCoordinateType$ = 8					; size = 4
_dVert$ = 12						; size = 4
_strHorz$ = 16						; size = 4
_strExtData$ = 20					; size = 4
_p_hOcxWnd$ = 24					; size = 4
_p_eChartMode$ = 28					; size = 4
??0CDataTypeEnvironment@@QAE@W4COORDINATETYPE@CAnalysis@@ABNABV?$CStringT@DV?$StrTraitMFC_DLL@DV?$ChTraitsCRT@D@ATL@@@@@ATL@@2PAUHWND__@@W4CHART_MODE@CChartInfo@@@Z PROC ; CDataTypeEnvironment::CDataTypeEnvironment, COMDAT
; _this$ = ecx

; 263  : {

  00000	55		 push	 ebp
  00001	8b ec		 mov	 ebp, esp
  00003	6a ff		 push	 -1
  00005	68 00 00 00 00	 push	 __ehhandler$??0CDataTypeEnvironment@@QAE@W4COORDINATETYPE@CAnalysis@@ABNABV?$CStringT@DV?$StrTraitMFC_DLL@DV?$ChTraitsCRT@D@ATL@@@@@ATL@@2PAUHWND__@@W4CHART_MODE@CChartInfo@@@Z
  0000a	64 a1 00 00 00
	00		 mov	 eax, DWORD PTR fs:0
  00010	50		 push	 eax
  00011	51		 push	 ecx
  00012	56		 push	 esi
  00013	a1 00 00 00 00	 mov	 eax, DWORD PTR ___security_cookie
  00018	33 c5		 xor	 eax, ebp
  0001a	50		 push	 eax
  0001b	8d 45 f4	 lea	 eax, DWORD PTR __$EHRec$[ebp]
  0001e	64 a3 00 00 00
	00		 mov	 DWORD PTR fs:0, eax
  00024	8b f1		 mov	 esi, ecx
  00026	89 75 f0	 mov	 DWORD PTR _this$[ebp], esi

; 259  : 	m_eCoordinateType(eCoordinateType),

  00029	8b 45 08	 mov	 eax, DWORD PTR _eCoordinateType$[ebp]

; 260  : 	m_dVert(dVert),
; 261  : 	m_strHorz(strHorz),

  0002c	8d 4e 10	 lea	 ecx, DWORD PTR [esi+16]
  0002f	ff 75 10	 push	 DWORD PTR _strHorz$[ebp]
  00032	89 06		 mov	 DWORD PTR [esi], eax
  00034	8b 45 0c	 mov	 eax, DWORD PTR _dVert$[ebp]
  00037	f2 0f 10 00	 movsd	 xmm0, QWORD PTR [eax]
  0003b	f2 0f 11 46 08	 movsd	 QWORD PTR [esi+8], xmm0
  00040	ff 15 00 00 00
	00		 call	 DWORD PTR __imp_??0?$CStringT@DV?$StrTraitMFC_DLL@DV?$ChTraitsCRT@D@ATL@@@@@ATL@@QAE@ABV01@@Z

; 262  : 	m_strExtData(strExtData)

  00046	ff 75 14	 push	 DWORD PTR _strExtData$[ebp]
  00049	8d 4e 14	 lea	 ecx, DWORD PTR [esi+20]
  0004c	c7 45 fc 00 00
	00 00		 mov	 DWORD PTR __$EHRec$[ebp+8], 0
  00053	ff 15 00 00 00
	00		 call	 DWORD PTR __imp_??0?$CStringT@DV?$StrTraitMFC_DLL@DV?$ChTraitsCRT@D@ATL@@@@@ATL@@QAE@ABV01@@Z

; 263  : {

  00059	8d 4e 18	 lea	 ecx, DWORD PTR [esi+24]
  0005c	ff 15 00 00 00
	00		 call	 DWORD PTR __imp_??0?$CStringT@DV?$StrTraitMFC_DLL@DV?$ChTraitsCRT@D@ATL@@@@@ATL@@QAE@XZ

; 264  : 	// (2008/5/14 - Seung-Won, Bae) for Multi-Language of Special Date or Price Unit Text
; 265  : 	m_hOcxWnd = p_hOcxWnd;

  00062	8b 45 18	 mov	 eax, DWORD PTR _p_hOcxWnd$[ebp]
  00065	89 46 1c	 mov	 DWORD PTR [esi+28], eax

; 266  : 
; 267  : 	// (2009/9/15 - Seung-Won, Bae) Do not support special time for WorldOn.
; 268  : 	m_eChartMode = p_eChartMode;

  00068	8b 45 1c	 mov	 eax, DWORD PTR _p_eChartMode$[ebp]
  0006b	89 46 20	 mov	 DWORD PTR [esi+32], eax

; 269  : }

  0006e	8b c6		 mov	 eax, esi
  00070	8b 4d f4	 mov	 ecx, DWORD PTR __$EHRec$[ebp]
  00073	64 89 0d 00 00
	00 00		 mov	 DWORD PTR fs:0, ecx
  0007a	59		 pop	 ecx
  0007b	5e		 pop	 esi
  0007c	8b e5		 mov	 esp, ebp
  0007e	5d		 pop	 ebp
  0007f	c2 18 00	 ret	 24			; 00000018H
_TEXT	ENDS
;	COMDAT text$x
text$x	SEGMENT
__unwindfunclet$??0CDataTypeEnvironment@@QAE@W4COORDINATETYPE@CAnalysis@@ABNABV?$CStringT@DV?$StrTraitMFC_DLL@DV?$ChTraitsCRT@D@ATL@@@@@ATL@@2PAUHWND__@@W4CHART_MODE@CChartInfo@@@Z$0:
  00000	8b 4d f0	 mov	 ecx, DWORD PTR _this$[ebp]
  00003	83 c1 10	 add	 ecx, 16			; 00000010H
  00006	ff 25 00 00 00
	00		 jmp	 DWORD PTR __imp_??1?$CStringT@DV?$StrTraitMFC_DLL@DV?$ChTraitsCRT@D@ATL@@@@@ATL@@QAE@XZ
  0000c	cc		 int	 3
  0000d	cc		 int	 3
  0000e	cc		 int	 3
  0000f	cc		 int	 3
  00010	cc		 int	 3
__ehhandler$??0CDataTypeEnvironment@@QAE@W4COORDINATETYPE@CAnalysis@@ABNABV?$CStringT@DV?$StrTraitMFC_DLL@DV?$ChTraitsCRT@D@ATL@@@@@ATL@@2PAUHWND__@@W4CHART_MODE@CChartInfo@@@Z:
  00011	90		 npad	 1
  00012	90		 npad	 1
  00013	8b 54 24 08	 mov	 edx, DWORD PTR [esp+8]
  00017	8d 42 0c	 lea	 eax, DWORD PTR [edx+12]
  0001a	8b 4a f4	 mov	 ecx, DWORD PTR [edx-12]
  0001d	33 c8		 xor	 ecx, eax
  0001f	e8 00 00 00 00	 call	 @__security_check_cookie@4
  00024	b8 00 00 00 00	 mov	 eax, OFFSET __ehfuncinfo$??0CDataTypeEnvironment@@QAE@W4COORDINATETYPE@CAnalysis@@ABNABV?$CStringT@DV?$StrTraitMFC_DLL@DV?$ChTraitsCRT@D@ATL@@@@@ATL@@2PAUHWND__@@W4CHART_MODE@CChartInfo@@@Z
  00029	e9 00 00 00 00	 jmp	 ___CxxFrameHandler3
text$x	ENDS
??0CDataTypeEnvironment@@QAE@W4COORDINATETYPE@CAnalysis@@ABNABV?$CStringT@DV?$StrTraitMFC_DLL@DV?$ChTraitsCRT@D@ATL@@@@@ATL@@2PAUHWND__@@W4CHART_MODE@CChartInfo@@@Z ENDP ; CDataTypeEnvironment::CDataTypeEnvironment
; Function compile flags: /Ogtp
; File D:\git\src\IBK\IBK_DRFN\ProjSrc\SrcChartEx\ChartAddIn\ChartAnalysisToolAddIn\Include_Analysis\ElementEnvironment.cpp
;	COMDAT ??0CDataTypeEnvironment@@QAE@W4COORDINATETYPE@CAnalysis@@ABNABV?$CStringT@DV?$StrTraitMFC_DLL@DV?$ChTraitsCRT@D@ATL@@@@@ATL@@PAUHWND__@@W4CHART_MODE@CChartInfo@@@Z
_TEXT	SEGMENT
_this$ = -4						; size = 4
_eCoordinateType$ = 8					; size = 4
_dVert$ = 12						; size = 4
_strHorz$ = 16						; size = 4
_p_hOcxWnd$ = 20					; size = 4
_p_eChartMode$ = 24					; size = 4
??0CDataTypeEnvironment@@QAE@W4COORDINATETYPE@CAnalysis@@ABNABV?$CStringT@DV?$StrTraitMFC_DLL@DV?$ChTraitsCRT@D@ATL@@@@@ATL@@PAUHWND__@@W4CHART_MODE@CChartInfo@@@Z PROC ; CDataTypeEnvironment::CDataTypeEnvironment, COMDAT
; _this$ = ecx

; 249  : {

  00000	55		 push	 ebp
  00001	8b ec		 mov	 ebp, esp
  00003	51		 push	 ecx

; 246  : 	m_eCoordinateType(eCoordinateType),

  00004	8b 45 08	 mov	 eax, DWORD PTR _eCoordinateType$[ebp]
  00007	56		 push	 esi

; 247  : 	m_dVert(dVert),
; 248  : 	m_strHorz(strHorz)

  00008	ff 75 10	 push	 DWORD PTR _strHorz$[ebp]
  0000b	8b f1		 mov	 esi, ecx
  0000d	89 75 fc	 mov	 DWORD PTR _this$[ebp], esi
  00010	89 06		 mov	 DWORD PTR [esi], eax
  00012	8d 4e 10	 lea	 ecx, DWORD PTR [esi+16]
  00015	8b 45 0c	 mov	 eax, DWORD PTR _dVert$[ebp]
  00018	f2 0f 10 00	 movsd	 xmm0, QWORD PTR [eax]
  0001c	f2 0f 11 46 08	 movsd	 QWORD PTR [esi+8], xmm0
  00021	ff 15 00 00 00
	00		 call	 DWORD PTR __imp_??0?$CStringT@DV?$StrTraitMFC_DLL@DV?$ChTraitsCRT@D@ATL@@@@@ATL@@QAE@ABV01@@Z

; 249  : {

  00027	8d 4e 14	 lea	 ecx, DWORD PTR [esi+20]
  0002a	ff 15 00 00 00
	00		 call	 DWORD PTR __imp_??0?$CStringT@DV?$StrTraitMFC_DLL@DV?$ChTraitsCRT@D@ATL@@@@@ATL@@QAE@XZ
  00030	8d 4e 18	 lea	 ecx, DWORD PTR [esi+24]
  00033	ff 15 00 00 00
	00		 call	 DWORD PTR __imp_??0?$CStringT@DV?$StrTraitMFC_DLL@DV?$ChTraitsCRT@D@ATL@@@@@ATL@@QAE@XZ

; 250  : 	// (2008/5/14 - Seung-Won, Bae) for Multi-Language of Special Date or Price Unit Text
; 251  : 	m_hOcxWnd = p_hOcxWnd;

  00039	8b 45 14	 mov	 eax, DWORD PTR _p_hOcxWnd$[ebp]
  0003c	89 46 1c	 mov	 DWORD PTR [esi+28], eax

; 252  : 
; 253  : 	// (2009/9/15 - Seung-Won, Bae) Do not support special time for WorldOn.
; 254  : 	m_eChartMode = p_eChartMode;

  0003f	8b 45 18	 mov	 eax, DWORD PTR _p_eChartMode$[ebp]
  00042	89 46 20	 mov	 DWORD PTR [esi+32], eax

; 255  : }

  00045	8b c6		 mov	 eax, esi
  00047	5e		 pop	 esi
  00048	8b e5		 mov	 esp, ebp
  0004a	5d		 pop	 ebp
  0004b	c2 14 00	 ret	 20			; 00000014H
??0CDataTypeEnvironment@@QAE@W4COORDINATETYPE@CAnalysis@@ABNABV?$CStringT@DV?$StrTraitMFC_DLL@DV?$ChTraitsCRT@D@ATL@@@@@ATL@@PAUHWND__@@W4CHART_MODE@CChartInfo@@@Z ENDP ; CDataTypeEnvironment::CDataTypeEnvironment
_TEXT	ENDS
; Function compile flags: /Ogtp
; File D:\git\src\IBK\IBK_DRFN\ProjSrc\SrcChartEx\ChartAddIn\ChartAnalysisToolAddIn\Include_Analysis\ElementEnvironment.cpp
;	COMDAT ??0CDataTypeEnvironment@@QAE@XZ
_TEXT	SEGMENT
_this$ = -4						; size = 4
??0CDataTypeEnvironment@@QAE@XZ PROC			; CDataTypeEnvironment::CDataTypeEnvironment, COMDAT
; _this$ = ecx

; 237  : {

  00000	55		 push	 ebp
  00001	8b ec		 mov	 ebp, esp
  00003	51		 push	 ecx

; 236  : 	m_dVert(1.0)

  00004	f2 0f 10 05 00
	00 00 00	 movsd	 xmm0, QWORD PTR __real@3ff0000000000000
  0000c	56		 push	 esi
  0000d	8b f1		 mov	 esi, ecx
  0000f	89 75 fc	 mov	 DWORD PTR _this$[ebp], esi

; 237  : {

  00012	8d 4e 10	 lea	 ecx, DWORD PTR [esi+16]
  00015	c7 06 00 00 00
	00		 mov	 DWORD PTR [esi], 0
  0001b	f2 0f 11 46 08	 movsd	 QWORD PTR [esi+8], xmm0
  00020	ff 15 00 00 00
	00		 call	 DWORD PTR __imp_??0?$CStringT@DV?$StrTraitMFC_DLL@DV?$ChTraitsCRT@D@ATL@@@@@ATL@@QAE@XZ
  00026	8d 4e 14	 lea	 ecx, DWORD PTR [esi+20]
  00029	ff 15 00 00 00
	00		 call	 DWORD PTR __imp_??0?$CStringT@DV?$StrTraitMFC_DLL@DV?$ChTraitsCRT@D@ATL@@@@@ATL@@QAE@XZ
  0002f	8d 4e 18	 lea	 ecx, DWORD PTR [esi+24]
  00032	ff 15 00 00 00
	00		 call	 DWORD PTR __imp_??0?$CStringT@DV?$StrTraitMFC_DLL@DV?$ChTraitsCRT@D@ATL@@@@@ATL@@QAE@XZ

; 238  : 	// (2008/5/14 - Seung-Won, Bae) for Multi-Language of Special Date or Price Unit Text
; 239  : 	m_hOcxWnd = NULL;

  00038	c7 46 1c 00 00
	00 00		 mov	 DWORD PTR [esi+28], 0

; 240  : 
; 241  : 	// (2009/9/15 - Seung-Won, Bae) Do not support special time for WorldOn.
; 242  : 	m_eChartMode = CChartInfo::HTS;
; 243  : }

  0003f	8b c6		 mov	 eax, esi
  00041	c7 46 20 01 00
	00 00		 mov	 DWORD PTR [esi+32], 1
  00048	5e		 pop	 esi
  00049	8b e5		 mov	 esp, ebp
  0004b	5d		 pop	 ebp
  0004c	c3		 ret	 0
??0CDataTypeEnvironment@@QAE@XZ ENDP			; CDataTypeEnvironment::CDataTypeEnvironment
_TEXT	ENDS
; Function compile flags: /Ogtp
; File D:\git\src\IBK\IBK_DRFN\ProjSrc\SrcChartEx\ChartAddIn\ChartAnalysisToolAddIn\Include_Analysis\ElementEnvironment.cpp
;	COMDAT ??4CDataTypeEnvironment@@QAEAAV0@ABV0@@Z
_TEXT	SEGMENT
$T2 = -16						; size = 4
__$EHRec$ = -12						; size = 12
$T3 = 8							; size = 4
$T4 = 8							; size = 4
_environment$ = 8					; size = 4
??4CDataTypeEnvironment@@QAEAAV0@ABV0@@Z PROC		; CDataTypeEnvironment::operator=, COMDAT
; _this$ = ecx

; 212  : {

  00000	55		 push	 ebp
  00001	8b ec		 mov	 ebp, esp
  00003	6a ff		 push	 -1
  00005	68 00 00 00 00	 push	 __ehhandler$??4CDataTypeEnvironment@@QAEAAV0@ABV0@@Z
  0000a	64 a1 00 00 00
	00		 mov	 eax, DWORD PTR fs:0
  00010	50		 push	 eax
  00011	51		 push	 ecx
  00012	56		 push	 esi
  00013	57		 push	 edi
  00014	a1 00 00 00 00	 mov	 eax, DWORD PTR ___security_cookie
  00019	33 c5		 xor	 eax, ebp
  0001b	50		 push	 eax
  0001c	8d 45 f4	 lea	 eax, DWORD PTR __$EHRec$[ebp]
  0001f	64 a3 00 00 00
	00		 mov	 DWORD PTR fs:0, eax
  00025	8b f1		 mov	 esi, ecx

; 213  : 	if(this == &environment)

  00027	8b 7d 08	 mov	 edi, DWORD PTR _environment$[ebp]
  0002a	3b f7		 cmp	 esi, edi
  0002c	0f 84 a6 00 00
	00		 je	 $LN20@operator

; 214  : 		return *this;
; 215  : 
; 216  : 	m_eCoordinateType = environment.GetCoordinateType();

  00032	8b 07		 mov	 eax, DWORD PTR [edi]

; 366  : 	return m_strHorz;

  00034	8d 4d 08	 lea	 ecx, DWORD PTR $T4[ebp]

; 214  : 		return *this;
; 215  : 
; 216  : 	m_eCoordinateType = environment.GetCoordinateType();

  00037	89 06		 mov	 DWORD PTR [esi], eax

; 366  : 	return m_strHorz;

  00039	8d 47 10	 lea	 eax, DWORD PTR [edi+16]

; 217  : 	m_dVert = environment.GetVert();

  0003c	f2 0f 10 47 08	 movsd	 xmm0, QWORD PTR [edi+8]

; 366  : 	return m_strHorz;

  00041	50		 push	 eax

; 217  : 	m_dVert = environment.GetVert();

  00042	f2 0f 11 46 08	 movsd	 QWORD PTR [esi+8], xmm0

; 366  : 	return m_strHorz;

  00047	ff 15 00 00 00
	00		 call	 DWORD PTR __imp_??0?$CStringT@DV?$StrTraitMFC_DLL@DV?$ChTraitsCRT@D@ATL@@@@@ATL@@QAE@ABV01@@Z

; 218  : 	m_strHorz = environment.GetHorz();

  0004d	8d 45 08	 lea	 eax, DWORD PTR $T4[ebp]
  00050	c7 45 fc 00 00
	00 00		 mov	 DWORD PTR __$EHRec$[ebp+8], 0
  00057	50		 push	 eax
  00058	8d 4e 10	 lea	 ecx, DWORD PTR [esi+16]
  0005b	ff 15 00 00 00
	00		 call	 DWORD PTR __imp_??4?$CStringT@DV?$StrTraitMFC_DLL@DV?$ChTraitsCRT@D@ATL@@@@@ATL@@QAEAAV01@ABV01@@Z
  00061	8d 4d 08	 lea	 ecx, DWORD PTR $T4[ebp]
  00064	c7 45 fc ff ff
	ff ff		 mov	 DWORD PTR __$EHRec$[ebp+8], -1
  0006b	ff 15 00 00 00
	00		 call	 DWORD PTR __imp_??1?$CStringT@DV?$StrTraitMFC_DLL@DV?$ChTraitsCRT@D@ATL@@@@@ATL@@QAE@XZ

; 372  : 	return m_strExtData;

  00071	8d 47 14	 lea	 eax, DWORD PTR [edi+20]
  00074	50		 push	 eax
  00075	8d 4d 08	 lea	 ecx, DWORD PTR $T3[ebp]
  00078	ff 15 00 00 00
	00		 call	 DWORD PTR __imp_??0?$CStringT@DV?$StrTraitMFC_DLL@DV?$ChTraitsCRT@D@ATL@@@@@ATL@@QAE@ABV01@@Z

; 219  : 	m_strExtData = environment.GetExtData();	// 2008.08.20   

  0007e	8d 45 08	 lea	 eax, DWORD PTR $T3[ebp]
  00081	c7 45 fc 01 00
	00 00		 mov	 DWORD PTR __$EHRec$[ebp+8], 1
  00088	50		 push	 eax
  00089	8d 4e 14	 lea	 ecx, DWORD PTR [esi+20]
  0008c	ff 15 00 00 00
	00		 call	 DWORD PTR __imp_??4?$CStringT@DV?$StrTraitMFC_DLL@DV?$ChTraitsCRT@D@ATL@@@@@ATL@@QAEAAV01@ABV01@@Z
  00092	8d 4d 08	 lea	 ecx, DWORD PTR $T3[ebp]
  00095	c7 45 fc ff ff
	ff ff		 mov	 DWORD PTR __$EHRec$[ebp+8], -1
  0009c	ff 15 00 00 00
	00		 call	 DWORD PTR __imp_??1?$CStringT@DV?$StrTraitMFC_DLL@DV?$ChTraitsCRT@D@ATL@@@@@ATL@@QAE@XZ

; 378  : 	return m_strVert;

  000a2	8d 47 18	 lea	 eax, DWORD PTR [edi+24]
  000a5	50		 push	 eax
  000a6	8d 4d f0	 lea	 ecx, DWORD PTR $T2[ebp]
  000a9	ff 15 00 00 00
	00		 call	 DWORD PTR __imp_??0?$CStringT@DV?$StrTraitMFC_DLL@DV?$ChTraitsCRT@D@ATL@@@@@ATL@@QAE@ABV01@@Z

; 220  : 	m_strVert = environment.GetStrVert();		// 2008.10.15 by LYH >> 8,32bit

  000af	8d 45 f0	 lea	 eax, DWORD PTR $T2[ebp]
  000b2	c7 45 fc 02 00
	00 00		 mov	 DWORD PTR __$EHRec$[ebp+8], 2
  000b9	50		 push	 eax
  000ba	8d 4e 18	 lea	 ecx, DWORD PTR [esi+24]
  000bd	ff 15 00 00 00
	00		 call	 DWORD PTR __imp_??4?$CStringT@DV?$StrTraitMFC_DLL@DV?$ChTraitsCRT@D@ATL@@@@@ATL@@QAEAAV01@ABV01@@Z
  000c3	8d 4d f0	 lea	 ecx, DWORD PTR $T2[ebp]
  000c6	ff 15 00 00 00
	00		 call	 DWORD PTR __imp_??1?$CStringT@DV?$StrTraitMFC_DLL@DV?$ChTraitsCRT@D@ATL@@@@@ATL@@QAE@XZ

; 221  : 	
; 222  : 	// (2008/5/14 - Seung-Won, Bae) for Multi-Language of Special Date or Price Unit Text
; 223  : 	m_hOcxWnd = environment.GetOcxHwnd();

  000cc	8b 47 1c	 mov	 eax, DWORD PTR [edi+28]
  000cf	89 46 1c	 mov	 DWORD PTR [esi+28], eax

; 224  : 
; 225  : 	// (2009/9/15 - Seung-Won, Bae) Do not support special time for WorldOn.
; 226  : 	m_eChartMode = environment.GetChartMode();

  000d2	8b 47 20	 mov	 eax, DWORD PTR [edi+32]
  000d5	89 46 20	 mov	 DWORD PTR [esi+32], eax
$LN20@operator:

; 227  : 
; 228  : 	return *this;
; 229  : }

  000d8	8b c6		 mov	 eax, esi
  000da	8b 4d f4	 mov	 ecx, DWORD PTR __$EHRec$[ebp]
  000dd	64 89 0d 00 00
	00 00		 mov	 DWORD PTR fs:0, ecx
  000e4	59		 pop	 ecx
  000e5	5f		 pop	 edi
  000e6	5e		 pop	 esi
  000e7	8b e5		 mov	 esp, ebp
  000e9	5d		 pop	 ebp
  000ea	c2 04 00	 ret	 4
_TEXT	ENDS
;	COMDAT text$x
text$x	SEGMENT
__unwindfunclet$??4CDataTypeEnvironment@@QAEAAV0@ABV0@@Z$0:
  00000	8d 4d 08	 lea	 ecx, DWORD PTR $T4[ebp]
  00003	ff 25 00 00 00
	00		 jmp	 DWORD PTR __imp_??1?$CStringT@DV?$StrTraitMFC_DLL@DV?$ChTraitsCRT@D@ATL@@@@@ATL@@QAE@XZ
__unwindfunclet$??4CDataTypeEnvironment@@QAEAAV0@ABV0@@Z$1:
  00009	8d 4d 08	 lea	 ecx, DWORD PTR $T3[ebp]
  0000c	ff 25 00 00 00
	00		 jmp	 DWORD PTR __imp_??1?$CStringT@DV?$StrTraitMFC_DLL@DV?$ChTraitsCRT@D@ATL@@@@@ATL@@QAE@XZ
__unwindfunclet$??4CDataTypeEnvironment@@QAEAAV0@ABV0@@Z$2:
  00012	8d 4d f0	 lea	 ecx, DWORD PTR $T2[ebp]
  00015	ff 25 00 00 00
	00		 jmp	 DWORD PTR __imp_??1?$CStringT@DV?$StrTraitMFC_DLL@DV?$ChTraitsCRT@D@ATL@@@@@ATL@@QAE@XZ
  0001b	cc		 int	 3
  0001c	cc		 int	 3
  0001d	cc		 int	 3
  0001e	cc		 int	 3
  0001f	cc		 int	 3
__ehhandler$??4CDataTypeEnvironment@@QAEAAV0@ABV0@@Z:
  00020	90		 npad	 1
  00021	90		 npad	 1
  00022	8b 54 24 08	 mov	 edx, DWORD PTR [esp+8]
  00026	8d 42 0c	 lea	 eax, DWORD PTR [edx+12]
  00029	8b 4a f0	 mov	 ecx, DWORD PTR [edx-16]
  0002c	33 c8		 xor	 ecx, eax
  0002e	e8 00 00 00 00	 call	 @__security_check_cookie@4
  00033	b8 00 00 00 00	 mov	 eax, OFFSET __ehfuncinfo$??4CDataTypeEnvironment@@QAEAAV0@ABV0@@Z
  00038	e9 00 00 00 00	 jmp	 ___CxxFrameHandler3
text$x	ENDS
??4CDataTypeEnvironment@@QAEAAV0@ABV0@@Z ENDP		; CDataTypeEnvironment::operator=
; Function compile flags: /Ogtp
; File D:\git\src\IBK\IBK_DRFN\ProjSrc\SrcChartEx\ChartAddIn\ChartAnalysisToolAddIn\Include_Analysis\ElementEnvironment.cpp
; File C:\Program Files (x86)\Microsoft Visual Studio\2019\Community\VC\Tools\MSVC\14.29.30133\atlmfc\include\cstringt.h
; File D:\git\src\IBK\IBK_DRFN\ProjSrc\SrcChartEx\ChartAddIn\ChartAnalysisToolAddIn\Include_Analysis\ElementEnvironment.cpp
; File C:\Program Files (x86)\Microsoft Visual Studio\2019\Community\VC\Tools\MSVC\14.29.30133\atlmfc\include\cstringt.h
; File C:\Program Files (x86)\Microsoft Visual Studio\2019\Community\VC\Tools\MSVC\14.29.30133\atlmfc\include\atlsimpstr.h
; File C:\Program Files (x86)\Microsoft Visual Studio\2019\Community\VC\Tools\MSVC\14.29.30133\atlmfc\include\cstringt.h
; File D:\git\src\IBK\IBK_DRFN\ProjSrc\SrcChartEx\ChartAddIn\ChartAnalysisToolAddIn\Include_Analysis\ElementEnvironment.cpp
;	COMDAT ?GetSavedStyle@CPenEnvironment@@ABE?AV?$CStringT@DV?$StrTraitMFC_DLL@DV?$ChTraitsCRT@D@ATL@@@@@ATL@@XZ
_TEXT	SEGMENT
$T2 = -24						; size = 4
$T3 = -20						; size = 4
$T4 = -16						; size = 4
__$EHRec$ = -12						; size = 12
___$ReturnUdt$ = 8					; size = 4
?GetSavedStyle@CPenEnvironment@@ABE?AV?$CStringT@DV?$StrTraitMFC_DLL@DV?$ChTraitsCRT@D@ATL@@@@@ATL@@XZ PROC ; CPenEnvironment::GetSavedStyle, COMDAT
; _this$ = ecx

; 203  : {

  00000	55		 push	 ebp
  00001	8b ec		 mov	 ebp, esp
  00003	6a ff		 push	 -1
  00005	68 00 00 00 00	 push	 __ehhandler$?GetSavedStyle@CPenEnvironment@@ABE?AV?$CStringT@DV?$StrTraitMFC_DLL@DV?$ChTraitsCRT@D@ATL@@@@@ATL@@XZ
  0000a	64 a1 00 00 00
	00		 mov	 eax, DWORD PTR fs:0
  00010	50		 push	 eax
  00011	83 ec 0c	 sub	 esp, 12			; 0000000cH
  00014	56		 push	 esi
  00015	57		 push	 edi
  00016	a1 00 00 00 00	 mov	 eax, DWORD PTR ___security_cookie
  0001b	33 c5		 xor	 eax, ebp
  0001d	50		 push	 eax
  0001e	8d 45 f4	 lea	 eax, DWORD PTR __$EHRec$[ebp]
  00021	64 a3 00 00 00
	00		 mov	 DWORD PTR fs:0, eax
  00027	c7 45 f0 00 00
	00 00		 mov	 DWORD PTR $T4[ebp], 0

; 204  : 	return ("<Style>" + CDataConversion::IntToString((int)m_eStyle) + "<\\Style>\r\n");

  0002e	8d 45 e8	 lea	 eax, DWORD PTR $T2[ebp]
  00031	ff 71 08	 push	 DWORD PTR [ecx+8]
  00034	50		 push	 eax
  00035	e8 00 00 00 00	 call	 ?IntToString@CDataConversion@@SA?AV?$CStringT@DV?$StrTraitMFC_DLL@DV?$ChTraitsCRT@D@ATL@@@@@ATL@@H@Z ; CDataConversion::IntToString
  0003a	50		 push	 eax
  0003b	8d 45 ec	 lea	 eax, DWORD PTR $T3[ebp]
  0003e	c7 45 fc 00 00
	00 00		 mov	 DWORD PTR __$EHRec$[ebp+8], 0
  00045	68 00 00 00 00	 push	 OFFSET ??_C@_07EANKACOK@?$DMStyle?$DO@
  0004a	50		 push	 eax
  0004b	e8 00 00 00 00	 call	 ??HATL@@YA?AV?$CStringT@DV?$StrTraitMFC_DLL@DV?$ChTraitsCRT@D@ATL@@@@@0@PBDABV10@@Z ; ATL::operator+
  00050	83 c4 14	 add	 esp, 20			; 00000014H
  00053	8b f0		 mov	 esi, eax
; File C:\Program Files (x86)\Microsoft Visual Studio\2019\Community\VC\Tools\MSVC\14.29.30133\atlmfc\include\cstringt.h

; 2401 : 		CStringT strResult( str1.GetManager() );

  00055	8b ce		 mov	 ecx, esi
; File D:\git\src\IBK\IBK_DRFN\ProjSrc\SrcChartEx\ChartAddIn\ChartAnalysisToolAddIn\Include_Analysis\ElementEnvironment.cpp

; 204  : 	return ("<Style>" + CDataConversion::IntToString((int)m_eStyle) + "<\\Style>\r\n");

  00057	c6 45 fc 02	 mov	 BYTE PTR __$EHRec$[ebp+8], 2
; File C:\Program Files (x86)\Microsoft Visual Studio\2019\Community\VC\Tools\MSVC\14.29.30133\atlmfc\include\cstringt.h

; 2401 : 		CStringT strResult( str1.GetManager() );

  0005b	ff 15 00 00 00
	00		 call	 DWORD PTR __imp_?GetManager@?$CStringT@DV?$StrTraitMFC_DLL@DV?$ChTraitsCRT@D@ATL@@@@@ATL@@QBEPAUIAtlStringMgr@2@XZ
  00061	8b 7d 08	 mov	 edi, DWORD PTR ___$ReturnUdt$[ebp]
  00064	8b cf		 mov	 ecx, edi
  00066	50		 push	 eax
  00067	ff 15 00 00 00
	00		 call	 DWORD PTR __imp_??0?$CStringT@DV?$StrTraitMFC_DLL@DV?$ChTraitsCRT@D@ATL@@@@@ATL@@QAE@PAUIAtlStringMgr@1@@Z
; File C:\Program Files (x86)\Microsoft Visual Studio\2019\Community\VC\Tools\MSVC\14.29.30133\atlmfc\include\atlsimpstr.h

; 519  : 		return( GetData()->nDataLength );

  0006d	8b 0e		 mov	 ecx, DWORD PTR [esi]
; File C:\Program Files (x86)\Microsoft Visual Studio\2019\Community\VC\Tools\MSVC\14.29.30133\atlmfc\include\cstringt.h

; 2403 : 		CThisSimpleString::Concatenate( strResult, str1, str1.GetLength(), psz2, CThisSimpleString::StringLength( psz2 ) );

  0006f	6a 0a		 push	 10			; 0000000aH
  00071	68 00 00 00 00	 push	 OFFSET ??_C@_0L@MDDCEFHI@?$DM?2Style?$DO?$AN?6@

; 2404 : 
; 2405 : 		return( strResult );

  00076	c7 45 f0 04 00
	00 00		 mov	 DWORD PTR $T4[ebp], 4
  0007d	ff 71 f4	 push	 DWORD PTR [ecx-12]
  00080	51		 push	 ecx
  00081	57		 push	 edi
  00082	ff 15 00 00 00
	00		 call	 DWORD PTR __imp_?Concatenate@?$CSimpleStringT@D$00@ATL@@KAXAAV12@PBDH1H@Z
  00088	83 c4 14	 add	 esp, 20			; 00000014H
; File D:\git\src\IBK\IBK_DRFN\ProjSrc\SrcChartEx\ChartAddIn\ChartAnalysisToolAddIn\Include_Analysis\ElementEnvironment.cpp

; 204  : 	return ("<Style>" + CDataConversion::IntToString((int)m_eStyle) + "<\\Style>\r\n");

  0008b	8d 4d ec	 lea	 ecx, DWORD PTR $T3[ebp]
  0008e	ff 15 00 00 00
	00		 call	 DWORD PTR __imp_??1?$CStringT@DV?$StrTraitMFC_DLL@DV?$ChTraitsCRT@D@ATL@@@@@ATL@@QAE@XZ
  00094	8d 4d e8	 lea	 ecx, DWORD PTR $T2[ebp]
  00097	ff 15 00 00 00
	00		 call	 DWORD PTR __imp_??1?$CStringT@DV?$StrTraitMFC_DLL@DV?$ChTraitsCRT@D@ATL@@@@@ATL@@QAE@XZ
  0009d	8b c7		 mov	 eax, edi

; 205  : }

  0009f	8b 4d f4	 mov	 ecx, DWORD PTR __$EHRec$[ebp]
  000a2	64 89 0d 00 00
	00 00		 mov	 DWORD PTR fs:0, ecx
  000a9	59		 pop	 ecx
  000aa	5f		 pop	 edi
  000ab	5e		 pop	 esi
  000ac	8b e5		 mov	 esp, ebp
  000ae	5d		 pop	 ebp
  000af	c2 04 00	 ret	 4
_TEXT	ENDS
;	COMDAT text$x
text$x	SEGMENT
__unwindfunclet$?GetSavedStyle@CPenEnvironment@@ABE?AV?$CStringT@DV?$StrTraitMFC_DLL@DV?$ChTraitsCRT@D@ATL@@@@@ATL@@XZ$0:
  00000	8d 4d e8	 lea	 ecx, DWORD PTR $T2[ebp]
  00003	ff 25 00 00 00
	00		 jmp	 DWORD PTR __imp_??1?$CStringT@DV?$StrTraitMFC_DLL@DV?$ChTraitsCRT@D@ATL@@@@@ATL@@QAE@XZ
__unwindfunclet$?GetSavedStyle@CPenEnvironment@@ABE?AV?$CStringT@DV?$StrTraitMFC_DLL@DV?$ChTraitsCRT@D@ATL@@@@@ATL@@XZ$1:
  00009	8d 4d ec	 lea	 ecx, DWORD PTR $T3[ebp]
  0000c	ff 25 00 00 00
	00		 jmp	 DWORD PTR __imp_??1?$CStringT@DV?$StrTraitMFC_DLL@DV?$ChTraitsCRT@D@ATL@@@@@ATL@@QAE@XZ
__unwindfunclet$?GetSavedStyle@CPenEnvironment@@ABE?AV?$CStringT@DV?$StrTraitMFC_DLL@DV?$ChTraitsCRT@D@ATL@@@@@ATL@@XZ$4:
  00012	8b 45 f0	 mov	 eax, DWORD PTR $T4[ebp]
  00015	83 e0 04	 and	 eax, 4
  00018	0f 84 0d 00 00
	00		 je	 $LN23@GetSavedSt
  0001e	83 65 f0 fb	 and	 DWORD PTR $T4[ebp], -5	; fffffffbH
  00022	8b 4d 08	 mov	 ecx, DWORD PTR ___$ReturnUdt$[ebp]
  00025	ff 25 00 00 00
	00		 jmp	 DWORD PTR __imp_??1?$CStringT@DV?$StrTraitMFC_DLL@DV?$ChTraitsCRT@D@ATL@@@@@ATL@@QAE@XZ
$LN23@GetSavedSt:
  0002b	c3		 ret	 0
  0002c	cc		 int	 3
  0002d	cc		 int	 3
  0002e	cc		 int	 3
  0002f	cc		 int	 3
  00030	cc		 int	 3
__ehhandler$?GetSavedStyle@CPenEnvironment@@ABE?AV?$CStringT@DV?$StrTraitMFC_DLL@DV?$ChTraitsCRT@D@ATL@@@@@ATL@@XZ:
  00031	90		 npad	 1
  00032	90		 npad	 1
  00033	8b 54 24 08	 mov	 edx, DWORD PTR [esp+8]
  00037	8d 42 0c	 lea	 eax, DWORD PTR [edx+12]
  0003a	8b 4a e8	 mov	 ecx, DWORD PTR [edx-24]
  0003d	33 c8		 xor	 ecx, eax
  0003f	e8 00 00 00 00	 call	 @__security_check_cookie@4
  00044	b8 00 00 00 00	 mov	 eax, OFFSET __ehfuncinfo$?GetSavedStyle@CPenEnvironment@@ABE?AV?$CStringT@DV?$StrTraitMFC_DLL@DV?$ChTraitsCRT@D@ATL@@@@@ATL@@XZ
  00049	e9 00 00 00 00	 jmp	 ___CxxFrameHandler3
text$x	ENDS
?GetSavedStyle@CPenEnvironment@@ABE?AV?$CStringT@DV?$StrTraitMFC_DLL@DV?$ChTraitsCRT@D@ATL@@@@@ATL@@XZ ENDP ; CPenEnvironment::GetSavedStyle
; Function compile flags: /Ogtp
; File D:\git\src\IBK\IBK_DRFN\ProjSrc\SrcChartEx\ChartAddIn\ChartAnalysisToolAddIn\Include_Analysis\ElementEnvironment.cpp
; File C:\Program Files (x86)\Microsoft Visual Studio\2019\Community\VC\Tools\MSVC\14.29.30133\atlmfc\include\cstringt.h
; File D:\git\src\IBK\IBK_DRFN\ProjSrc\SrcChartEx\ChartAddIn\ChartAnalysisToolAddIn\Include_Analysis\ElementEnvironment.cpp
; File C:\Program Files (x86)\Microsoft Visual Studio\2019\Community\VC\Tools\MSVC\14.29.30133\atlmfc\include\cstringt.h
; File C:\Program Files (x86)\Microsoft Visual Studio\2019\Community\VC\Tools\MSVC\14.29.30133\atlmfc\include\atlsimpstr.h
; File C:\Program Files (x86)\Microsoft Visual Studio\2019\Community\VC\Tools\MSVC\14.29.30133\atlmfc\include\cstringt.h
; File D:\git\src\IBK\IBK_DRFN\ProjSrc\SrcChartEx\ChartAddIn\ChartAnalysisToolAddIn\Include_Analysis\ElementEnvironment.cpp
;	COMDAT ?GetSavedWidth@CPenEnvironment@@ABE?AV?$CStringT@DV?$StrTraitMFC_DLL@DV?$ChTraitsCRT@D@ATL@@@@@ATL@@XZ
_TEXT	SEGMENT
$T2 = -24						; size = 4
$T3 = -20						; size = 4
$T4 = -16						; size = 4
__$EHRec$ = -12						; size = 12
___$ReturnUdt$ = 8					; size = 4
?GetSavedWidth@CPenEnvironment@@ABE?AV?$CStringT@DV?$StrTraitMFC_DLL@DV?$ChTraitsCRT@D@ATL@@@@@ATL@@XZ PROC ; CPenEnvironment::GetSavedWidth, COMDAT
; _this$ = ecx

; 198  : {

  00000	55		 push	 ebp
  00001	8b ec		 mov	 ebp, esp
  00003	6a ff		 push	 -1
  00005	68 00 00 00 00	 push	 __ehhandler$?GetSavedWidth@CPenEnvironment@@ABE?AV?$CStringT@DV?$StrTraitMFC_DLL@DV?$ChTraitsCRT@D@ATL@@@@@ATL@@XZ
  0000a	64 a1 00 00 00
	00		 mov	 eax, DWORD PTR fs:0
  00010	50		 push	 eax
  00011	83 ec 0c	 sub	 esp, 12			; 0000000cH
  00014	56		 push	 esi
  00015	57		 push	 edi
  00016	a1 00 00 00 00	 mov	 eax, DWORD PTR ___security_cookie
  0001b	33 c5		 xor	 eax, ebp
  0001d	50		 push	 eax
  0001e	8d 45 f4	 lea	 eax, DWORD PTR __$EHRec$[ebp]
  00021	64 a3 00 00 00
	00		 mov	 DWORD PTR fs:0, eax
  00027	c7 45 f0 00 00
	00 00		 mov	 DWORD PTR $T4[ebp], 0

; 199  : 	return ("<Width>" + CDataConversion::IntToString(m_nWidth) + "<\\Width>\r\n");

  0002e	8d 45 e8	 lea	 eax, DWORD PTR $T2[ebp]
  00031	ff 71 04	 push	 DWORD PTR [ecx+4]
  00034	50		 push	 eax
  00035	e8 00 00 00 00	 call	 ?IntToString@CDataConversion@@SA?AV?$CStringT@DV?$StrTraitMFC_DLL@DV?$ChTraitsCRT@D@ATL@@@@@ATL@@H@Z ; CDataConversion::IntToString
  0003a	50		 push	 eax
  0003b	8d 45 ec	 lea	 eax, DWORD PTR $T3[ebp]
  0003e	c7 45 fc 00 00
	00 00		 mov	 DWORD PTR __$EHRec$[ebp+8], 0
  00045	68 00 00 00 00	 push	 OFFSET ??_C@_07ONIIIKM@?$DMWidth?$DO@
  0004a	50		 push	 eax
  0004b	e8 00 00 00 00	 call	 ??HATL@@YA?AV?$CStringT@DV?$StrTraitMFC_DLL@DV?$ChTraitsCRT@D@ATL@@@@@0@PBDABV10@@Z ; ATL::operator+
  00050	83 c4 14	 add	 esp, 20			; 00000014H
  00053	8b f0		 mov	 esi, eax
; File C:\Program Files (x86)\Microsoft Visual Studio\2019\Community\VC\Tools\MSVC\14.29.30133\atlmfc\include\cstringt.h

; 2401 : 		CStringT strResult( str1.GetManager() );

  00055	8b ce		 mov	 ecx, esi
; File D:\git\src\IBK\IBK_DRFN\ProjSrc\SrcChartEx\ChartAddIn\ChartAnalysisToolAddIn\Include_Analysis\ElementEnvironment.cpp

; 199  : 	return ("<Width>" + CDataConversion::IntToString(m_nWidth) + "<\\Width>\r\n");

  00057	c6 45 fc 02	 mov	 BYTE PTR __$EHRec$[ebp+8], 2
; File C:\Program Files (x86)\Microsoft Visual Studio\2019\Community\VC\Tools\MSVC\14.29.30133\atlmfc\include\cstringt.h

; 2401 : 		CStringT strResult( str1.GetManager() );

  0005b	ff 15 00 00 00
	00		 call	 DWORD PTR __imp_?GetManager@?$CStringT@DV?$StrTraitMFC_DLL@DV?$ChTraitsCRT@D@ATL@@@@@ATL@@QBEPAUIAtlStringMgr@2@XZ
  00061	8b 7d 08	 mov	 edi, DWORD PTR ___$ReturnUdt$[ebp]
  00064	8b cf		 mov	 ecx, edi
  00066	50		 push	 eax
  00067	ff 15 00 00 00
	00		 call	 DWORD PTR __imp_??0?$CStringT@DV?$StrTraitMFC_DLL@DV?$ChTraitsCRT@D@ATL@@@@@ATL@@QAE@PAUIAtlStringMgr@1@@Z
; File C:\Program Files (x86)\Microsoft Visual Studio\2019\Community\VC\Tools\MSVC\14.29.30133\atlmfc\include\atlsimpstr.h

; 519  : 		return( GetData()->nDataLength );

  0006d	8b 0e		 mov	 ecx, DWORD PTR [esi]
; File C:\Program Files (x86)\Microsoft Visual Studio\2019\Community\VC\Tools\MSVC\14.29.30133\atlmfc\include\cstringt.h

; 2403 : 		CThisSimpleString::Concatenate( strResult, str1, str1.GetLength(), psz2, CThisSimpleString::StringLength( psz2 ) );

  0006f	6a 0a		 push	 10			; 0000000aH
  00071	68 00 00 00 00	 push	 OFFSET ??_C@_0L@GIHMIJMH@?$DM?2Width?$DO?$AN?6@

; 2404 : 
; 2405 : 		return( strResult );

  00076	c7 45 f0 04 00
	00 00		 mov	 DWORD PTR $T4[ebp], 4
  0007d	ff 71 f4	 push	 DWORD PTR [ecx-12]
  00080	51		 push	 ecx
  00081	57		 push	 edi
  00082	ff 15 00 00 00
	00		 call	 DWORD PTR __imp_?Concatenate@?$CSimpleStringT@D$00@ATL@@KAXAAV12@PBDH1H@Z
  00088	83 c4 14	 add	 esp, 20			; 00000014H
; File D:\git\src\IBK\IBK_DRFN\ProjSrc\SrcChartEx\ChartAddIn\ChartAnalysisToolAddIn\Include_Analysis\ElementEnvironment.cpp

; 199  : 	return ("<Width>" + CDataConversion::IntToString(m_nWidth) + "<\\Width>\r\n");

  0008b	8d 4d ec	 lea	 ecx, DWORD PTR $T3[ebp]
  0008e	ff 15 00 00 00
	00		 call	 DWORD PTR __imp_??1?$CStringT@DV?$StrTraitMFC_DLL@DV?$ChTraitsCRT@D@ATL@@@@@ATL@@QAE@XZ
  00094	8d 4d e8	 lea	 ecx, DWORD PTR $T2[ebp]
  00097	ff 15 00 00 00
	00		 call	 DWORD PTR __imp_??1?$CStringT@DV?$StrTraitMFC_DLL@DV?$ChTraitsCRT@D@ATL@@@@@ATL@@QAE@XZ
  0009d	8b c7		 mov	 eax, edi

; 200  : }

  0009f	8b 4d f4	 mov	 ecx, DWORD PTR __$EHRec$[ebp]
  000a2	64 89 0d 00 00
	00 00		 mov	 DWORD PTR fs:0, ecx
  000a9	59		 pop	 ecx
  000aa	5f		 pop	 edi
  000ab	5e		 pop	 esi
  000ac	8b e5		 mov	 esp, ebp
  000ae	5d		 pop	 ebp
  000af	c2 04 00	 ret	 4
_TEXT	ENDS
;	COMDAT text$x
text$x	SEGMENT
__unwindfunclet$?GetSavedWidth@CPenEnvironment@@ABE?AV?$CStringT@DV?$StrTraitMFC_DLL@DV?$ChTraitsCRT@D@ATL@@@@@ATL@@XZ$0:
  00000	8d 4d e8	 lea	 ecx, DWORD PTR $T2[ebp]
  00003	ff 25 00 00 00
	00		 jmp	 DWORD PTR __imp_??1?$CStringT@DV?$StrTraitMFC_DLL@DV?$ChTraitsCRT@D@ATL@@@@@ATL@@QAE@XZ
__unwindfunclet$?GetSavedWidth@CPenEnvironment@@ABE?AV?$CStringT@DV?$StrTraitMFC_DLL@DV?$ChTraitsCRT@D@ATL@@@@@ATL@@XZ$1:
  00009	8d 4d ec	 lea	 ecx, DWORD PTR $T3[ebp]
  0000c	ff 25 00 00 00
	00		 jmp	 DWORD PTR __imp_??1?$CStringT@DV?$StrTraitMFC_DLL@DV?$ChTraitsCRT@D@ATL@@@@@ATL@@QAE@XZ
__unwindfunclet$?GetSavedWidth@CPenEnvironment@@ABE?AV?$CStringT@DV?$StrTraitMFC_DLL@DV?$ChTraitsCRT@D@ATL@@@@@ATL@@XZ$4:
  00012	8b 45 f0	 mov	 eax, DWORD PTR $T4[ebp]
  00015	83 e0 04	 and	 eax, 4
  00018	0f 84 0d 00 00
	00		 je	 $LN23@GetSavedWi
  0001e	83 65 f0 fb	 and	 DWORD PTR $T4[ebp], -5	; fffffffbH
  00022	8b 4d 08	 mov	 ecx, DWORD PTR ___$ReturnUdt$[ebp]
  00025	ff 25 00 00 00
	00		 jmp	 DWORD PTR __imp_??1?$CStringT@DV?$StrTraitMFC_DLL@DV?$ChTraitsCRT@D@ATL@@@@@ATL@@QAE@XZ
$LN23@GetSavedWi:
  0002b	c3		 ret	 0
  0002c	cc		 int	 3
  0002d	cc		 int	 3
  0002e	cc		 int	 3
  0002f	cc		 int	 3
  00030	cc		 int	 3
__ehhandler$?GetSavedWidth@CPenEnvironment@@ABE?AV?$CStringT@DV?$StrTraitMFC_DLL@DV?$ChTraitsCRT@D@ATL@@@@@ATL@@XZ:
  00031	90		 npad	 1
  00032	90		 npad	 1
  00033	8b 54 24 08	 mov	 edx, DWORD PTR [esp+8]
  00037	8d 42 0c	 lea	 eax, DWORD PTR [edx+12]
  0003a	8b 4a e8	 mov	 ecx, DWORD PTR [edx-24]
  0003d	33 c8		 xor	 ecx, eax
  0003f	e8 00 00 00 00	 call	 @__security_check_cookie@4
  00044	b8 00 00 00 00	 mov	 eax, OFFSET __ehfuncinfo$?GetSavedWidth@CPenEnvironment@@ABE?AV?$CStringT@DV?$StrTraitMFC_DLL@DV?$ChTraitsCRT@D@ATL@@@@@ATL@@XZ
  00049	e9 00 00 00 00	 jmp	 ___CxxFrameHandler3
text$x	ENDS
?GetSavedWidth@CPenEnvironment@@ABE?AV?$CStringT@DV?$StrTraitMFC_DLL@DV?$ChTraitsCRT@D@ATL@@@@@ATL@@XZ ENDP ; CPenEnvironment::GetSavedWidth
; Function compile flags: /Ogtp
; File D:\git\src\IBK\IBK_DRFN\ProjSrc\SrcChartEx\ChartAddIn\ChartAnalysisToolAddIn\Include_Analysis\ElementEnvironment.cpp
; File C:\Program Files (x86)\Microsoft Visual Studio\2019\Community\VC\Tools\MSVC\14.29.30133\atlmfc\include\cstringt.h
; File D:\git\src\IBK\IBK_DRFN\ProjSrc\SrcChartEx\ChartAddIn\ChartAnalysisToolAddIn\Include_Analysis\ElementEnvironment.cpp
; File C:\Program Files (x86)\Microsoft Visual Studio\2019\Community\VC\Tools\MSVC\14.29.30133\atlmfc\include\cstringt.h
; File C:\Program Files (x86)\Microsoft Visual Studio\2019\Community\VC\Tools\MSVC\14.29.30133\atlmfc\include\atlsimpstr.h
; File C:\Program Files (x86)\Microsoft Visual Studio\2019\Community\VC\Tools\MSVC\14.29.30133\atlmfc\include\cstringt.h
; File D:\git\src\IBK\IBK_DRFN\ProjSrc\SrcChartEx\ChartAddIn\ChartAnalysisToolAddIn\Include_Analysis\ElementEnvironment.cpp
;	COMDAT ?GetSavedColor@CPenEnvironment@@ABE?AV?$CStringT@DV?$StrTraitMFC_DLL@DV?$ChTraitsCRT@D@ATL@@@@@ATL@@XZ
_TEXT	SEGMENT
$T2 = -24						; size = 4
$T3 = -20						; size = 4
$T4 = -16						; size = 4
__$EHRec$ = -12						; size = 12
___$ReturnUdt$ = 8					; size = 4
?GetSavedColor@CPenEnvironment@@ABE?AV?$CStringT@DV?$StrTraitMFC_DLL@DV?$ChTraitsCRT@D@ATL@@@@@ATL@@XZ PROC ; CPenEnvironment::GetSavedColor, COMDAT
; _this$ = ecx

; 193  : {

  00000	55		 push	 ebp
  00001	8b ec		 mov	 ebp, esp
  00003	6a ff		 push	 -1
  00005	68 00 00 00 00	 push	 __ehhandler$?GetSavedColor@CPenEnvironment@@ABE?AV?$CStringT@DV?$StrTraitMFC_DLL@DV?$ChTraitsCRT@D@ATL@@@@@ATL@@XZ
  0000a	64 a1 00 00 00
	00		 mov	 eax, DWORD PTR fs:0
  00010	50		 push	 eax
  00011	83 ec 0c	 sub	 esp, 12			; 0000000cH
  00014	56		 push	 esi
  00015	57		 push	 edi
  00016	a1 00 00 00 00	 mov	 eax, DWORD PTR ___security_cookie
  0001b	33 c5		 xor	 eax, ebp
  0001d	50		 push	 eax
  0001e	8d 45 f4	 lea	 eax, DWORD PTR __$EHRec$[ebp]
  00021	64 a3 00 00 00
	00		 mov	 DWORD PTR fs:0, eax
  00027	c7 45 f0 00 00
	00 00		 mov	 DWORD PTR $T4[ebp], 0

; 194  : 	return ("<Color>" + CDataConversion::RGB2Str(m_color) + "<\\Color>\r\n");

  0002e	8d 45 e8	 lea	 eax, DWORD PTR $T2[ebp]
  00031	ff 31		 push	 DWORD PTR [ecx]
  00033	50		 push	 eax
  00034	e8 00 00 00 00	 call	 ?RGB2Str@CDataConversion@@SA?AV?$CStringT@DV?$StrTraitMFC_DLL@DV?$ChTraitsCRT@D@ATL@@@@@ATL@@K@Z ; CDataConversion::RGB2Str
  00039	50		 push	 eax
  0003a	8d 45 ec	 lea	 eax, DWORD PTR $T3[ebp]
  0003d	c7 45 fc 00 00
	00 00		 mov	 DWORD PTR __$EHRec$[ebp+8], 0
  00044	68 00 00 00 00	 push	 OFFSET ??_C@_07ONMJGOJF@?$DMColor?$DO@
  00049	50		 push	 eax
  0004a	e8 00 00 00 00	 call	 ??HATL@@YA?AV?$CStringT@DV?$StrTraitMFC_DLL@DV?$ChTraitsCRT@D@ATL@@@@@0@PBDABV10@@Z ; ATL::operator+
  0004f	83 c4 14	 add	 esp, 20			; 00000014H
  00052	8b f0		 mov	 esi, eax
; File C:\Program Files (x86)\Microsoft Visual Studio\2019\Community\VC\Tools\MSVC\14.29.30133\atlmfc\include\cstringt.h

; 2401 : 		CStringT strResult( str1.GetManager() );

  00054	8b ce		 mov	 ecx, esi
; File D:\git\src\IBK\IBK_DRFN\ProjSrc\SrcChartEx\ChartAddIn\ChartAnalysisToolAddIn\Include_Analysis\ElementEnvironment.cpp

; 194  : 	return ("<Color>" + CDataConversion::RGB2Str(m_color) + "<\\Color>\r\n");

  00056	c6 45 fc 02	 mov	 BYTE PTR __$EHRec$[ebp+8], 2
; File C:\Program Files (x86)\Microsoft Visual Studio\2019\Community\VC\Tools\MSVC\14.29.30133\atlmfc\include\cstringt.h

; 2401 : 		CStringT strResult( str1.GetManager() );

  0005a	ff 15 00 00 00
	00		 call	 DWORD PTR __imp_?GetManager@?$CStringT@DV?$StrTraitMFC_DLL@DV?$ChTraitsCRT@D@ATL@@@@@ATL@@QBEPAUIAtlStringMgr@2@XZ
  00060	8b 7d 08	 mov	 edi, DWORD PTR ___$ReturnUdt$[ebp]
  00063	8b cf		 mov	 ecx, edi
  00065	50		 push	 eax
  00066	ff 15 00 00 00
	00		 call	 DWORD PTR __imp_??0?$CStringT@DV?$StrTraitMFC_DLL@DV?$ChTraitsCRT@D@ATL@@@@@ATL@@QAE@PAUIAtlStringMgr@1@@Z
; File C:\Program Files (x86)\Microsoft Visual Studio\2019\Community\VC\Tools\MSVC\14.29.30133\atlmfc\include\atlsimpstr.h

; 519  : 		return( GetData()->nDataLength );

  0006c	8b 0e		 mov	 ecx, DWORD PTR [esi]
; File C:\Program Files (x86)\Microsoft Visual Studio\2019\Community\VC\Tools\MSVC\14.29.30133\atlmfc\include\cstringt.h

; 2403 : 		CThisSimpleString::Concatenate( strResult, str1, str1.GetLength(), psz2, CThisSimpleString::StringLength( psz2 ) );

  0006e	6a 0a		 push	 10			; 0000000aH
  00070	68 00 00 00 00	 push	 OFFSET ??_C@_0L@CPJBKACB@?$DM?2Color?$DO?$AN?6@

; 2404 : 
; 2405 : 		return( strResult );

  00075	c7 45 f0 04 00
	00 00		 mov	 DWORD PTR $T4[ebp], 4
  0007c	ff 71 f4	 push	 DWORD PTR [ecx-12]
  0007f	51		 push	 ecx
  00080	57		 push	 edi
  00081	ff 15 00 00 00
	00		 call	 DWORD PTR __imp_?Concatenate@?$CSimpleStringT@D$00@ATL@@KAXAAV12@PBDH1H@Z
  00087	83 c4 14	 add	 esp, 20			; 00000014H
; File D:\git\src\IBK\IBK_DRFN\ProjSrc\SrcChartEx\ChartAddIn\ChartAnalysisToolAddIn\Include_Analysis\ElementEnvironment.cpp

; 194  : 	return ("<Color>" + CDataConversion::RGB2Str(m_color) + "<\\Color>\r\n");

  0008a	8d 4d ec	 lea	 ecx, DWORD PTR $T3[ebp]
  0008d	ff 15 00 00 00
	00		 call	 DWORD PTR __imp_??1?$CStringT@DV?$StrTraitMFC_DLL@DV?$ChTraitsCRT@D@ATL@@@@@ATL@@QAE@XZ
  00093	8d 4d e8	 lea	 ecx, DWORD PTR $T2[ebp]
  00096	ff 15 00 00 00
	00		 call	 DWORD PTR __imp_??1?$CStringT@DV?$StrTraitMFC_DLL@DV?$ChTraitsCRT@D@ATL@@@@@ATL@@QAE@XZ
  0009c	8b c7		 mov	 eax, edi

; 195  : }

  0009e	8b 4d f4	 mov	 ecx, DWORD PTR __$EHRec$[ebp]
  000a1	64 89 0d 00 00
	00 00		 mov	 DWORD PTR fs:0, ecx
  000a8	59		 pop	 ecx
  000a9	5f		 pop	 edi
  000aa	5e		 pop	 esi
  000ab	8b e5		 mov	 esp, ebp
  000ad	5d		 pop	 ebp
  000ae	c2 04 00	 ret	 4
_TEXT	ENDS
;	COMDAT text$x
text$x	SEGMENT
__unwindfunclet$?GetSavedColor@CPenEnvironment@@ABE?AV?$CStringT@DV?$StrTraitMFC_DLL@DV?$ChTraitsCRT@D@ATL@@@@@ATL@@XZ$0:
  00000	8d 4d e8	 lea	 ecx, DWORD PTR $T2[ebp]
  00003	ff 25 00 00 00
	00		 jmp	 DWORD PTR __imp_??1?$CStringT@DV?$StrTraitMFC_DLL@DV?$ChTraitsCRT@D@ATL@@@@@ATL@@QAE@XZ
__unwindfunclet$?GetSavedColor@CPenEnvironment@@ABE?AV?$CStringT@DV?$StrTraitMFC_DLL@DV?$ChTraitsCRT@D@ATL@@@@@ATL@@XZ$1:
  00009	8d 4d ec	 lea	 ecx, DWORD PTR $T3[ebp]
  0000c	ff 25 00 00 00
	00		 jmp	 DWORD PTR __imp_??1?$CStringT@DV?$StrTraitMFC_DLL@DV?$ChTraitsCRT@D@ATL@@@@@ATL@@QAE@XZ
__unwindfunclet$?GetSavedColor@CPenEnvironment@@ABE?AV?$CStringT@DV?$StrTraitMFC_DLL@DV?$ChTraitsCRT@D@ATL@@@@@ATL@@XZ$4:
  00012	8b 45 f0	 mov	 eax, DWORD PTR $T4[ebp]
  00015	83 e0 04	 and	 eax, 4
  00018	0f 84 0d 00 00
	00		 je	 $LN23@GetSavedCo
  0001e	83 65 f0 fb	 and	 DWORD PTR $T4[ebp], -5	; fffffffbH
  00022	8b 4d 08	 mov	 ecx, DWORD PTR ___$ReturnUdt$[ebp]
  00025	ff 25 00 00 00
	00		 jmp	 DWORD PTR __imp_??1?$CStringT@DV?$StrTraitMFC_DLL@DV?$ChTraitsCRT@D@ATL@@@@@ATL@@QAE@XZ
$LN23@GetSavedCo:
  0002b	c3		 ret	 0
  0002c	cc		 int	 3
  0002d	cc		 int	 3
  0002e	cc		 int	 3
  0002f	cc		 int	 3
  00030	cc		 int	 3
__ehhandler$?GetSavedColor@CPenEnvironment@@ABE?AV?$CStringT@DV?$StrTraitMFC_DLL@DV?$ChTraitsCRT@D@ATL@@@@@ATL@@XZ:
  00031	90		 npad	 1
  00032	90		 npad	 1
  00033	8b 54 24 08	 mov	 edx, DWORD PTR [esp+8]
  00037	8d 42 0c	 lea	 eax, DWORD PTR [edx+12]
  0003a	8b 4a e8	 mov	 ecx, DWORD PTR [edx-24]
  0003d	33 c8		 xor	 ecx, eax
  0003f	e8 00 00 00 00	 call	 @__security_check_cookie@4
  00044	b8 00 00 00 00	 mov	 eax, OFFSET __ehfuncinfo$?GetSavedColor@CPenEnvironment@@ABE?AV?$CStringT@DV?$StrTraitMFC_DLL@DV?$ChTraitsCRT@D@ATL@@@@@ATL@@XZ
  00049	e9 00 00 00 00	 jmp	 ___CxxFrameHandler3
text$x	ENDS
?GetSavedColor@CPenEnvironment@@ABE?AV?$CStringT@DV?$StrTraitMFC_DLL@DV?$ChTraitsCRT@D@ATL@@@@@ATL@@XZ ENDP ; CPenEnvironment::GetSavedColor
; Function compile flags: /Ogtp
; File D:\git\src\IBK\IBK_DRFN\ProjSrc\SrcChartEx\ChartAddIn\ChartAnalysisToolAddIn\Include_Analysis\ElementEnvironment.cpp
;	COMDAT ?GetStyle_Draw@CPenEnvironment@@ABEHXZ
_TEXT	SEGMENT
?GetStyle_Draw@CPenEnvironment@@ABEHXZ PROC		; CPenEnvironment::GetStyle_Draw, COMDAT
; _this$ = ecx

; 175  : 	switch(m_eStyle){

  00000	8b 41 08	 mov	 eax, DWORD PTR [ecx+8]
  00003	83 f8 04	 cmp	 eax, 4
  00006	77 1f		 ja	 SHORT $LN2@GetStyle_D
  00008	ff 24 85 00 00
	00 00		 jmp	 DWORD PTR $LN10@GetStyle_D[eax*4]
$LN5@GetStyle_D:

; 176  : 	case CToolEnumData::Solid:
; 177  : 		return PS_SOLID;
; 178  : 	case CToolEnumData::Dot:
; 179  : 		return PS_DOT;

  0000f	b8 02 00 00 00	 mov	 eax, 2

; 190  : }

  00014	c3		 ret	 0
$LN6@GetStyle_D:

; 180  : 	case CToolEnumData::Dash:
; 181  : 		return PS_DASH;

  00015	b8 01 00 00 00	 mov	 eax, 1

; 190  : }

  0001a	c3		 ret	 0
$LN7@GetStyle_D:

; 182  : 	case CToolEnumData::DashDot:
; 183  : 		return PS_DASHDOT;

  0001b	b8 03 00 00 00	 mov	 eax, 3

; 190  : }

  00020	c3		 ret	 0
$LN8@GetStyle_D:

; 184  : 	case CToolEnumData::DashDotDot:
; 185  : 		return PS_DASHDOTDOT;

  00021	b8 04 00 00 00	 mov	 eax, 4

; 190  : }

  00026	c3		 ret	 0
$LN2@GetStyle_D:

; 186  : 	}
; 187  : 	assert(false);
; 188  : 
; 189  : 	return PS_SOLID;

  00027	33 c0		 xor	 eax, eax

; 190  : }

  00029	c3		 ret	 0
  0002a	66 90		 npad	 2
$LN10@GetStyle_D:
  0002c	00 00 00 00	 DD	 $LN2@GetStyle_D
  00030	00 00 00 00	 DD	 $LN5@GetStyle_D
  00034	00 00 00 00	 DD	 $LN6@GetStyle_D
  00038	00 00 00 00	 DD	 $LN7@GetStyle_D
  0003c	00 00 00 00	 DD	 $LN8@GetStyle_D
?GetStyle_Draw@CPenEnvironment@@ABEHXZ ENDP		; CPenEnvironment::GetStyle_Draw
_TEXT	ENDS
; Function compile flags: /Ogtp
; File D:\git\src\IBK\IBK_DRFN\ProjSrc\SrcChartEx\ChartAddIn\ChartAnalysisToolAddIn\Include_Analysis\ElementEnvironment.cpp
; File C:\Program Files (x86)\Microsoft Visual Studio\2019\Community\VC\Tools\MSVC\14.29.30133\atlmfc\include\cstringt.h
; File D:\git\src\IBK\IBK_DRFN\ProjSrc\SrcChartEx\ChartAddIn\ChartAnalysisToolAddIn\Include_Analysis\ElementEnvironment.cpp
; File C:\Program Files (x86)\Microsoft Visual Studio\2019\Community\VC\Tools\MSVC\14.29.30133\atlmfc\include\cstringt.h
; File C:\Program Files (x86)\Microsoft Visual Studio\2019\Community\VC\Tools\MSVC\14.29.30133\atlmfc\include\atlsimpstr.h
; File C:\Program Files (x86)\Microsoft Visual Studio\2019\Community\VC\Tools\MSVC\14.29.30133\atlmfc\include\cstringt.h
; File D:\git\src\IBK\IBK_DRFN\ProjSrc\SrcChartEx\ChartAddIn\ChartAnalysisToolAddIn\Include_Analysis\ElementEnvironment.cpp
; File C:\Program Files (x86)\Microsoft Visual Studio\2019\Community\VC\Tools\MSVC\14.29.30133\atlmfc\include\cstringt.h
; File D:\git\src\IBK\IBK_DRFN\ProjSrc\SrcChartEx\ChartAddIn\ChartAnalysisToolAddIn\Include_Analysis\ElementEnvironment.cpp
; File C:\Program Files (x86)\Microsoft Visual Studio\2019\Community\VC\Tools\MSVC\14.29.30133\atlmfc\include\cstringt.h
; File C:\Program Files (x86)\Microsoft Visual Studio\2019\Community\VC\Tools\MSVC\14.29.30133\atlmfc\include\atlsimpstr.h
; File C:\Program Files (x86)\Microsoft Visual Studio\2019\Community\VC\Tools\MSVC\14.29.30133\atlmfc\include\cstringt.h
; File D:\git\src\IBK\IBK_DRFN\ProjSrc\SrcChartEx\ChartAddIn\ChartAnalysisToolAddIn\Include_Analysis\ElementEnvironment.cpp
; File C:\Program Files (x86)\Microsoft Visual Studio\2019\Community\VC\Tools\MSVC\14.29.30133\atlmfc\include\cstringt.h
; File D:\git\src\IBK\IBK_DRFN\ProjSrc\SrcChartEx\ChartAddIn\ChartAnalysisToolAddIn\Include_Analysis\ElementEnvironment.cpp
; File C:\Program Files (x86)\Microsoft Visual Studio\2019\Community\VC\Tools\MSVC\14.29.30133\atlmfc\include\cstringt.h
; File C:\Program Files (x86)\Microsoft Visual Studio\2019\Community\VC\Tools\MSVC\14.29.30133\atlmfc\include\atlsimpstr.h
; File C:\Program Files (x86)\Microsoft Visual Studio\2019\Community\VC\Tools\MSVC\14.29.30133\atlmfc\include\cstringt.h
; File D:\git\src\IBK\IBK_DRFN\ProjSrc\SrcChartEx\ChartAddIn\ChartAnalysisToolAddIn\Include_Analysis\ElementEnvironment.cpp
;	COMDAT ?GetSavedData@CPenEnvironment@@QBE?AV?$CStringT@DV?$StrTraitMFC_DLL@DV?$ChTraitsCRT@D@ATL@@@@@ATL@@XZ
_TEXT	SEGMENT
$T2 = -44						; size = 4
$T3 = -40						; size = 4
$T4 = -36						; size = 4
$T5 = -36						; size = 4
$T6 = -32						; size = 4
$T7 = -32						; size = 4
$T8 = -28						; size = 4
$T9 = -24						; size = 4
$T10 = -20						; size = 4
$T11 = -16						; size = 4
__$EHRec$ = -12						; size = 12
___$ReturnUdt$ = 8					; size = 4
?GetSavedData@CPenEnvironment@@QBE?AV?$CStringT@DV?$StrTraitMFC_DLL@DV?$ChTraitsCRT@D@ATL@@@@@ATL@@XZ PROC ; CPenEnvironment::GetSavedData, COMDAT
; _this$ = ecx

; 164  : {

  00000	55		 push	 ebp
  00001	8b ec		 mov	 ebp, esp
  00003	6a ff		 push	 -1
  00005	68 00 00 00 00	 push	 __ehhandler$?GetSavedData@CPenEnvironment@@QBE?AV?$CStringT@DV?$StrTraitMFC_DLL@DV?$ChTraitsCRT@D@ATL@@@@@ATL@@XZ
  0000a	64 a1 00 00 00
	00		 mov	 eax, DWORD PTR fs:0
  00010	50		 push	 eax
  00011	83 ec 20	 sub	 esp, 32			; 00000020H
  00014	53		 push	 ebx
  00015	56		 push	 esi
  00016	57		 push	 edi
  00017	a1 00 00 00 00	 mov	 eax, DWORD PTR ___security_cookie
  0001c	33 c5		 xor	 eax, ebp
  0001e	50		 push	 eax
  0001f	8d 45 f4	 lea	 eax, DWORD PTR __$EHRec$[ebp]
  00022	64 a3 00 00 00
	00		 mov	 DWORD PTR fs:0, eax
  00028	8b f9		 mov	 edi, ecx
  0002a	c7 45 f0 00 00
	00 00		 mov	 DWORD PTR $T11[ebp], 0

; 165  : 	CString strSaved;

  00031	8b 5d 08	 mov	 ebx, DWORD PTR ___$ReturnUdt$[ebp]
  00034	8b cb		 mov	 ecx, ebx
  00036	ff 15 00 00 00
	00		 call	 DWORD PTR __imp_??0?$CStringT@DV?$StrTraitMFC_DLL@DV?$ChTraitsCRT@D@ATL@@@@@ATL@@QAE@XZ

; 204  : 	return ("<Style>" + CDataConversion::IntToString((int)m_eStyle) + "<\\Style>\r\n");

  0003c	ff 77 08	 push	 DWORD PTR [edi+8]
  0003f	8d 45 dc	 lea	 eax, DWORD PTR $T5[ebp]

; 167  : 		GetSavedColor(), GetSavedWidth(), GetSavedStyle());
; 168  : 	return strSaved;

  00042	c7 45 fc 00 00
	00 00		 mov	 DWORD PTR __$EHRec$[ebp+8], 0

; 204  : 	return ("<Style>" + CDataConversion::IntToString((int)m_eStyle) + "<\\Style>\r\n");

  00049	50		 push	 eax

; 167  : 		GetSavedColor(), GetSavedWidth(), GetSavedStyle());
; 168  : 	return strSaved;

  0004a	c7 45 f0 01 00
	00 00		 mov	 DWORD PTR $T11[ebp], 1

; 204  : 	return ("<Style>" + CDataConversion::IntToString((int)m_eStyle) + "<\\Style>\r\n");

  00051	e8 00 00 00 00	 call	 ?IntToString@CDataConversion@@SA?AV?$CStringT@DV?$StrTraitMFC_DLL@DV?$ChTraitsCRT@D@ATL@@@@@ATL@@H@Z ; CDataConversion::IntToString
  00056	50		 push	 eax
  00057	8d 45 e0	 lea	 eax, DWORD PTR $T7[ebp]
  0005a	c7 45 fc 01 00
	00 00		 mov	 DWORD PTR __$EHRec$[ebp+8], 1
  00061	68 00 00 00 00	 push	 OFFSET ??_C@_07EANKACOK@?$DMStyle?$DO@
  00066	50		 push	 eax
  00067	e8 00 00 00 00	 call	 ??HATL@@YA?AV?$CStringT@DV?$StrTraitMFC_DLL@DV?$ChTraitsCRT@D@ATL@@@@@0@PBDABV10@@Z ; ATL::operator+
  0006c	83 c4 14	 add	 esp, 20			; 00000014H
  0006f	8b f0		 mov	 esi, eax
; File C:\Program Files (x86)\Microsoft Visual Studio\2019\Community\VC\Tools\MSVC\14.29.30133\atlmfc\include\cstringt.h

; 2401 : 		CStringT strResult( str1.GetManager() );

  00071	8b ce		 mov	 ecx, esi
; File D:\git\src\IBK\IBK_DRFN\ProjSrc\SrcChartEx\ChartAddIn\ChartAnalysisToolAddIn\Include_Analysis\ElementEnvironment.cpp

; 204  : 	return ("<Style>" + CDataConversion::IntToString((int)m_eStyle) + "<\\Style>\r\n");

  00073	c6 45 fc 03	 mov	 BYTE PTR __$EHRec$[ebp+8], 3
; File C:\Program Files (x86)\Microsoft Visual Studio\2019\Community\VC\Tools\MSVC\14.29.30133\atlmfc\include\cstringt.h

; 2401 : 		CStringT strResult( str1.GetManager() );

  00077	ff 15 00 00 00
	00		 call	 DWORD PTR __imp_?GetManager@?$CStringT@DV?$StrTraitMFC_DLL@DV?$ChTraitsCRT@D@ATL@@@@@ATL@@QBEPAUIAtlStringMgr@2@XZ
  0007d	50		 push	 eax
  0007e	8d 4d e4	 lea	 ecx, DWORD PTR $T8[ebp]
  00081	ff 15 00 00 00
	00		 call	 DWORD PTR __imp_??0?$CStringT@DV?$StrTraitMFC_DLL@DV?$ChTraitsCRT@D@ATL@@@@@ATL@@QAE@PAUIAtlStringMgr@1@@Z
; File C:\Program Files (x86)\Microsoft Visual Studio\2019\Community\VC\Tools\MSVC\14.29.30133\atlmfc\include\atlsimpstr.h

; 519  : 		return( GetData()->nDataLength );

  00087	8b 06		 mov	 eax, DWORD PTR [esi]
; File C:\Program Files (x86)\Microsoft Visual Studio\2019\Community\VC\Tools\MSVC\14.29.30133\atlmfc\include\cstringt.h

; 2403 : 		CThisSimpleString::Concatenate( strResult, str1, str1.GetLength(), psz2, CThisSimpleString::StringLength( psz2 ) );

  00089	6a 0a		 push	 10			; 0000000aH
  0008b	68 00 00 00 00	 push	 OFFSET ??_C@_0L@MDDCEFHI@?$DM?2Style?$DO?$AN?6@

; 2404 : 
; 2405 : 		return( strResult );

  00090	c7 45 f0 09 00
	00 00		 mov	 DWORD PTR $T11[ebp], 9
  00097	ff 70 f4	 push	 DWORD PTR [eax-12]
  0009a	50		 push	 eax
  0009b	8d 45 e4	 lea	 eax, DWORD PTR $T8[ebp]
  0009e	50		 push	 eax
  0009f	ff 15 00 00 00
	00		 call	 DWORD PTR __imp_?Concatenate@?$CSimpleStringT@D$00@ATL@@KAXAAV12@PBDH1H@Z
  000a5	83 c4 14	 add	 esp, 20			; 00000014H
; File D:\git\src\IBK\IBK_DRFN\ProjSrc\SrcChartEx\ChartAddIn\ChartAnalysisToolAddIn\Include_Analysis\ElementEnvironment.cpp

; 204  : 	return ("<Style>" + CDataConversion::IntToString((int)m_eStyle) + "<\\Style>\r\n");

  000a8	c7 45 f0 03 00
	00 00		 mov	 DWORD PTR $T11[ebp], 3
  000af	8d 4d e0	 lea	 ecx, DWORD PTR $T7[ebp]
  000b2	ff 15 00 00 00
	00		 call	 DWORD PTR __imp_??1?$CStringT@DV?$StrTraitMFC_DLL@DV?$ChTraitsCRT@D@ATL@@@@@ATL@@QAE@XZ
  000b8	8d 4d dc	 lea	 ecx, DWORD PTR $T5[ebp]
  000bb	ff 15 00 00 00
	00		 call	 DWORD PTR __imp_??1?$CStringT@DV?$StrTraitMFC_DLL@DV?$ChTraitsCRT@D@ATL@@@@@ATL@@QAE@XZ

; 199  : 	return ("<Width>" + CDataConversion::IntToString(m_nWidth) + "<\\Width>\r\n");

  000c1	ff 77 04	 push	 DWORD PTR [edi+4]
  000c4	8d 45 d4	 lea	 eax, DWORD PTR $T2[ebp]

; 166  : 	strSaved.Format("<Pen>\r\n%s%s%s<\\Pen>\r\n", 

  000c7	c7 45 fc 04 00
	00 00		 mov	 DWORD PTR __$EHRec$[ebp+8], 4

; 199  : 	return ("<Width>" + CDataConversion::IntToString(m_nWidth) + "<\\Width>\r\n");

  000ce	50		 push	 eax
  000cf	e8 00 00 00 00	 call	 ?IntToString@CDataConversion@@SA?AV?$CStringT@DV?$StrTraitMFC_DLL@DV?$ChTraitsCRT@D@ATL@@@@@ATL@@H@Z ; CDataConversion::IntToString
  000d4	50		 push	 eax
  000d5	8d 45 d8	 lea	 eax, DWORD PTR $T3[ebp]
  000d8	c6 45 fc 05	 mov	 BYTE PTR __$EHRec$[ebp+8], 5
  000dc	68 00 00 00 00	 push	 OFFSET ??_C@_07ONIIIKM@?$DMWidth?$DO@
  000e1	50		 push	 eax
  000e2	e8 00 00 00 00	 call	 ??HATL@@YA?AV?$CStringT@DV?$StrTraitMFC_DLL@DV?$ChTraitsCRT@D@ATL@@@@@0@PBDABV10@@Z ; ATL::operator+
  000e7	83 c4 14	 add	 esp, 20			; 00000014H
  000ea	8b f0		 mov	 esi, eax
; File C:\Program Files (x86)\Microsoft Visual Studio\2019\Community\VC\Tools\MSVC\14.29.30133\atlmfc\include\cstringt.h

; 2401 : 		CStringT strResult( str1.GetManager() );

  000ec	8b ce		 mov	 ecx, esi
; File D:\git\src\IBK\IBK_DRFN\ProjSrc\SrcChartEx\ChartAddIn\ChartAnalysisToolAddIn\Include_Analysis\ElementEnvironment.cpp

; 199  : 	return ("<Width>" + CDataConversion::IntToString(m_nWidth) + "<\\Width>\r\n");

  000ee	c6 45 fc 07	 mov	 BYTE PTR __$EHRec$[ebp+8], 7
; File C:\Program Files (x86)\Microsoft Visual Studio\2019\Community\VC\Tools\MSVC\14.29.30133\atlmfc\include\cstringt.h

; 2401 : 		CStringT strResult( str1.GetManager() );

  000f2	ff 15 00 00 00
	00		 call	 DWORD PTR __imp_?GetManager@?$CStringT@DV?$StrTraitMFC_DLL@DV?$ChTraitsCRT@D@ATL@@@@@ATL@@QBEPAUIAtlStringMgr@2@XZ
  000f8	50		 push	 eax
  000f9	8d 4d e8	 lea	 ecx, DWORD PTR $T9[ebp]
  000fc	ff 15 00 00 00
	00		 call	 DWORD PTR __imp_??0?$CStringT@DV?$StrTraitMFC_DLL@DV?$ChTraitsCRT@D@ATL@@@@@ATL@@QAE@PAUIAtlStringMgr@1@@Z
; File C:\Program Files (x86)\Microsoft Visual Studio\2019\Community\VC\Tools\MSVC\14.29.30133\atlmfc\include\atlsimpstr.h

; 519  : 		return( GetData()->nDataLength );

  00102	8b 06		 mov	 eax, DWORD PTR [esi]
; File C:\Program Files (x86)\Microsoft Visual Studio\2019\Community\VC\Tools\MSVC\14.29.30133\atlmfc\include\cstringt.h

; 2403 : 		CThisSimpleString::Concatenate( strResult, str1, str1.GetLength(), psz2, CThisSimpleString::StringLength( psz2 ) );

  00104	6a 0a		 push	 10			; 0000000aH
  00106	68 00 00 00 00	 push	 OFFSET ??_C@_0L@GIHMIJMH@?$DM?2Width?$DO?$AN?6@

; 2404 : 
; 2405 : 		return( strResult );

  0010b	c7 45 f0 43 00
	00 00		 mov	 DWORD PTR $T11[ebp], 67	; 00000043H
  00112	ff 70 f4	 push	 DWORD PTR [eax-12]
  00115	50		 push	 eax
  00116	8d 45 e8	 lea	 eax, DWORD PTR $T9[ebp]
  00119	50		 push	 eax
  0011a	ff 15 00 00 00
	00		 call	 DWORD PTR __imp_?Concatenate@?$CSimpleStringT@D$00@ATL@@KAXAAV12@PBDH1H@Z
  00120	83 c4 14	 add	 esp, 20			; 00000014H
; File D:\git\src\IBK\IBK_DRFN\ProjSrc\SrcChartEx\ChartAddIn\ChartAnalysisToolAddIn\Include_Analysis\ElementEnvironment.cpp

; 199  : 	return ("<Width>" + CDataConversion::IntToString(m_nWidth) + "<\\Width>\r\n");

  00123	c7 45 fc 06 00
	00 00		 mov	 DWORD PTR __$EHRec$[ebp+8], 6
  0012a	8d 4d d8	 lea	 ecx, DWORD PTR $T3[ebp]
  0012d	c7 45 f0 13 00
	00 00		 mov	 DWORD PTR $T11[ebp], 19	; 00000013H
  00134	ff 15 00 00 00
	00		 call	 DWORD PTR __imp_??1?$CStringT@DV?$StrTraitMFC_DLL@DV?$ChTraitsCRT@D@ATL@@@@@ATL@@QAE@XZ
  0013a	8d 4d d4	 lea	 ecx, DWORD PTR $T2[ebp]
  0013d	ff 15 00 00 00
	00		 call	 DWORD PTR __imp_??1?$CStringT@DV?$StrTraitMFC_DLL@DV?$ChTraitsCRT@D@ATL@@@@@ATL@@QAE@XZ

; 194  : 	return ("<Color>" + CDataConversion::RGB2Str(m_color) + "<\\Color>\r\n");

  00143	ff 37		 push	 DWORD PTR [edi]
  00145	8d 45 e0	 lea	 eax, DWORD PTR $T6[ebp]

; 166  : 	strSaved.Format("<Pen>\r\n%s%s%s<\\Pen>\r\n", 

  00148	c6 45 fc 08	 mov	 BYTE PTR __$EHRec$[ebp+8], 8

; 194  : 	return ("<Color>" + CDataConversion::RGB2Str(m_color) + "<\\Color>\r\n");

  0014c	50		 push	 eax
  0014d	e8 00 00 00 00	 call	 ?RGB2Str@CDataConversion@@SA?AV?$CStringT@DV?$StrTraitMFC_DLL@DV?$ChTraitsCRT@D@ATL@@@@@ATL@@K@Z ; CDataConversion::RGB2Str
  00152	50		 push	 eax
  00153	8d 45 dc	 lea	 eax, DWORD PTR $T4[ebp]
  00156	c6 45 fc 09	 mov	 BYTE PTR __$EHRec$[ebp+8], 9
  0015a	68 00 00 00 00	 push	 OFFSET ??_C@_07ONMJGOJF@?$DMColor?$DO@
  0015f	50		 push	 eax
  00160	e8 00 00 00 00	 call	 ??HATL@@YA?AV?$CStringT@DV?$StrTraitMFC_DLL@DV?$ChTraitsCRT@D@ATL@@@@@0@PBDABV10@@Z ; ATL::operator+
  00165	83 c4 14	 add	 esp, 20			; 00000014H
  00168	8b f0		 mov	 esi, eax
; File C:\Program Files (x86)\Microsoft Visual Studio\2019\Community\VC\Tools\MSVC\14.29.30133\atlmfc\include\cstringt.h

; 2401 : 		CStringT strResult( str1.GetManager() );

  0016a	8b ce		 mov	 ecx, esi
; File D:\git\src\IBK\IBK_DRFN\ProjSrc\SrcChartEx\ChartAddIn\ChartAnalysisToolAddIn\Include_Analysis\ElementEnvironment.cpp

; 194  : 	return ("<Color>" + CDataConversion::RGB2Str(m_color) + "<\\Color>\r\n");

  0016c	c6 45 fc 0b	 mov	 BYTE PTR __$EHRec$[ebp+8], 11 ; 0000000bH
; File C:\Program Files (x86)\Microsoft Visual Studio\2019\Community\VC\Tools\MSVC\14.29.30133\atlmfc\include\cstringt.h

; 2401 : 		CStringT strResult( str1.GetManager() );

  00170	ff 15 00 00 00
	00		 call	 DWORD PTR __imp_?GetManager@?$CStringT@DV?$StrTraitMFC_DLL@DV?$ChTraitsCRT@D@ATL@@@@@ATL@@QBEPAUIAtlStringMgr@2@XZ
  00176	50		 push	 eax
  00177	8d 4d ec	 lea	 ecx, DWORD PTR $T10[ebp]
  0017a	ff 15 00 00 00
	00		 call	 DWORD PTR __imp_??0?$CStringT@DV?$StrTraitMFC_DLL@DV?$ChTraitsCRT@D@ATL@@@@@ATL@@QAE@PAUIAtlStringMgr@1@@Z
; File C:\Program Files (x86)\Microsoft Visual Studio\2019\Community\VC\Tools\MSVC\14.29.30133\atlmfc\include\atlsimpstr.h

; 519  : 		return( GetData()->nDataLength );

  00180	8b 06		 mov	 eax, DWORD PTR [esi]
; File C:\Program Files (x86)\Microsoft Visual Studio\2019\Community\VC\Tools\MSVC\14.29.30133\atlmfc\include\cstringt.h

; 2403 : 		CThisSimpleString::Concatenate( strResult, str1, str1.GetLength(), psz2, CThisSimpleString::StringLength( psz2 ) );

  00182	6a 0a		 push	 10			; 0000000aH
  00184	68 00 00 00 00	 push	 OFFSET ??_C@_0L@CPJBKACB@?$DM?2Color?$DO?$AN?6@

; 2404 : 
; 2405 : 		return( strResult );

  00189	c7 45 f0 13 02
	00 00		 mov	 DWORD PTR $T11[ebp], 531 ; 00000213H
  00190	ff 70 f4	 push	 DWORD PTR [eax-12]
  00193	50		 push	 eax
  00194	8d 45 ec	 lea	 eax, DWORD PTR $T10[ebp]
  00197	50		 push	 eax
  00198	ff 15 00 00 00
	00		 call	 DWORD PTR __imp_?Concatenate@?$CSimpleStringT@D$00@ATL@@KAXAAV12@PBDH1H@Z
  0019e	83 c4 14	 add	 esp, 20			; 00000014H
; File D:\git\src\IBK\IBK_DRFN\ProjSrc\SrcChartEx\ChartAddIn\ChartAnalysisToolAddIn\Include_Analysis\ElementEnvironment.cpp

; 194  : 	return ("<Color>" + CDataConversion::RGB2Str(m_color) + "<\\Color>\r\n");

  001a1	c7 45 fc 0a 00
	00 00		 mov	 DWORD PTR __$EHRec$[ebp+8], 10 ; 0000000aH
  001a8	8d 4d dc	 lea	 ecx, DWORD PTR $T4[ebp]
  001ab	c7 45 f0 93 00
	00 00		 mov	 DWORD PTR $T11[ebp], 147 ; 00000093H
  001b2	ff 15 00 00 00
	00		 call	 DWORD PTR __imp_??1?$CStringT@DV?$StrTraitMFC_DLL@DV?$ChTraitsCRT@D@ATL@@@@@ATL@@QAE@XZ
  001b8	8d 4d e0	 lea	 ecx, DWORD PTR $T6[ebp]
  001bb	ff 15 00 00 00
	00		 call	 DWORD PTR __imp_??1?$CStringT@DV?$StrTraitMFC_DLL@DV?$ChTraitsCRT@D@ATL@@@@@ATL@@QAE@XZ

; 166  : 	strSaved.Format("<Pen>\r\n%s%s%s<\\Pen>\r\n", 

  001c1	ff 75 e4	 push	 DWORD PTR $T8[ebp]
  001c4	c6 45 fc 0c	 mov	 BYTE PTR __$EHRec$[ebp+8], 12 ; 0000000cH
  001c8	ff 75 e8	 push	 DWORD PTR $T9[ebp]
  001cb	ff 75 ec	 push	 DWORD PTR $T10[ebp]
  001ce	68 00 00 00 00	 push	 OFFSET ??_C@_0BG@BEDOAAKG@?$DMPen?$DO?$AN?6?$CFs?$CFs?$CFs?$DM?2Pen?$DO?$AN?6@
  001d3	53		 push	 ebx
  001d4	ff 15 00 00 00
	00		 call	 DWORD PTR __imp_?Format@?$CStringT@DV?$StrTraitMFC_DLL@DV?$ChTraitsCRT@D@ATL@@@@@ATL@@QAAXPBDZZ
  001da	83 c4 14	 add	 esp, 20			; 00000014H
  001dd	8d 4d ec	 lea	 ecx, DWORD PTR $T10[ebp]
  001e0	ff 15 00 00 00
	00		 call	 DWORD PTR __imp_??1?$CStringT@DV?$StrTraitMFC_DLL@DV?$ChTraitsCRT@D@ATL@@@@@ATL@@QAE@XZ
  001e6	8d 4d e8	 lea	 ecx, DWORD PTR $T9[ebp]
  001e9	ff 15 00 00 00
	00		 call	 DWORD PTR __imp_??1?$CStringT@DV?$StrTraitMFC_DLL@DV?$ChTraitsCRT@D@ATL@@@@@ATL@@QAE@XZ
  001ef	8d 4d e4	 lea	 ecx, DWORD PTR $T8[ebp]
  001f2	ff 15 00 00 00
	00		 call	 DWORD PTR __imp_??1?$CStringT@DV?$StrTraitMFC_DLL@DV?$ChTraitsCRT@D@ATL@@@@@ATL@@QAE@XZ

; 167  : 		GetSavedColor(), GetSavedWidth(), GetSavedStyle());
; 168  : 	return strSaved;

  001f8	8b c3		 mov	 eax, ebx

; 169  : }

  001fa	8b 4d f4	 mov	 ecx, DWORD PTR __$EHRec$[ebp]
  001fd	64 89 0d 00 00
	00 00		 mov	 DWORD PTR fs:0, ecx
  00204	59		 pop	 ecx
  00205	5f		 pop	 edi
  00206	5e		 pop	 esi
  00207	5b		 pop	 ebx
  00208	8b e5		 mov	 esp, ebp
  0020a	5d		 pop	 ebp
  0020b	c2 04 00	 ret	 4
_TEXT	ENDS
;	COMDAT text$x
text$x	SEGMENT
__unwindfunclet$?GetSavedData@CPenEnvironment@@QBE?AV?$CStringT@DV?$StrTraitMFC_DLL@DV?$ChTraitsCRT@D@ATL@@@@@ATL@@XZ$0:
  00000	8b 45 f0	 mov	 eax, DWORD PTR $T11[ebp]
  00003	83 e0 01	 and	 eax, 1
  00006	0f 84 0d 00 00
	00		 je	 $LN4@GetSavedDa
  0000c	83 65 f0 fe	 and	 DWORD PTR $T11[ebp], -2	; fffffffeH
  00010	8b 4d 08	 mov	 ecx, DWORD PTR ___$ReturnUdt$[ebp]
  00013	ff 25 00 00 00
	00		 jmp	 DWORD PTR __imp_??1?$CStringT@DV?$StrTraitMFC_DLL@DV?$ChTraitsCRT@D@ATL@@@@@ATL@@QAE@XZ
$LN4@GetSavedDa:
  00019	c3		 ret	 0
__unwindfunclet$?GetSavedData@CPenEnvironment@@QBE?AV?$CStringT@DV?$StrTraitMFC_DLL@DV?$ChTraitsCRT@D@ATL@@@@@ATL@@XZ$4:
  0001a	8d 4d dc	 lea	 ecx, DWORD PTR $T5[ebp]
  0001d	ff 25 00 00 00
	00		 jmp	 DWORD PTR __imp_??1?$CStringT@DV?$StrTraitMFC_DLL@DV?$ChTraitsCRT@D@ATL@@@@@ATL@@QAE@XZ
__unwindfunclet$?GetSavedData@CPenEnvironment@@QBE?AV?$CStringT@DV?$StrTraitMFC_DLL@DV?$ChTraitsCRT@D@ATL@@@@@ATL@@XZ$5:
  00023	8d 4d e0	 lea	 ecx, DWORD PTR $T7[ebp]
  00026	ff 25 00 00 00
	00		 jmp	 DWORD PTR __imp_??1?$CStringT@DV?$StrTraitMFC_DLL@DV?$ChTraitsCRT@D@ATL@@@@@ATL@@QAE@XZ
__unwindfunclet$?GetSavedData@CPenEnvironment@@QBE?AV?$CStringT@DV?$StrTraitMFC_DLL@DV?$ChTraitsCRT@D@ATL@@@@@ATL@@XZ$8:
  0002c	8b 45 f0	 mov	 eax, DWORD PTR $T11[ebp]
  0002f	83 e0 08	 and	 eax, 8
  00032	0f 84 0d 00 00
	00		 je	 $LN30@GetSavedDa
  00038	83 65 f0 f7	 and	 DWORD PTR $T11[ebp], -9	; fffffff7H
  0003c	8d 4d e4	 lea	 ecx, DWORD PTR $T8[ebp]
  0003f	ff 25 00 00 00
	00		 jmp	 DWORD PTR __imp_??1?$CStringT@DV?$StrTraitMFC_DLL@DV?$ChTraitsCRT@D@ATL@@@@@ATL@@QAE@XZ
$LN30@GetSavedDa:
  00045	c3		 ret	 0
__unwindfunclet$?GetSavedData@CPenEnvironment@@QBE?AV?$CStringT@DV?$StrTraitMFC_DLL@DV?$ChTraitsCRT@D@ATL@@@@@ATL@@XZ$1:
  00046	8d 4d e4	 lea	 ecx, DWORD PTR $T8[ebp]
  00049	ff 25 00 00 00
	00		 jmp	 DWORD PTR __imp_??1?$CStringT@DV?$StrTraitMFC_DLL@DV?$ChTraitsCRT@D@ATL@@@@@ATL@@QAE@XZ
__unwindfunclet$?GetSavedData@CPenEnvironment@@QBE?AV?$CStringT@DV?$StrTraitMFC_DLL@DV?$ChTraitsCRT@D@ATL@@@@@ATL@@XZ$9:
  0004f	8d 4d d4	 lea	 ecx, DWORD PTR $T2[ebp]
  00052	ff 25 00 00 00
	00		 jmp	 DWORD PTR __imp_??1?$CStringT@DV?$StrTraitMFC_DLL@DV?$ChTraitsCRT@D@ATL@@@@@ATL@@QAE@XZ
__unwindfunclet$?GetSavedData@CPenEnvironment@@QBE?AV?$CStringT@DV?$StrTraitMFC_DLL@DV?$ChTraitsCRT@D@ATL@@@@@ATL@@XZ$10:
  00058	8d 4d d8	 lea	 ecx, DWORD PTR $T3[ebp]
  0005b	ff 25 00 00 00
	00		 jmp	 DWORD PTR __imp_??1?$CStringT@DV?$StrTraitMFC_DLL@DV?$ChTraitsCRT@D@ATL@@@@@ATL@@QAE@XZ
__unwindfunclet$?GetSavedData@CPenEnvironment@@QBE?AV?$CStringT@DV?$StrTraitMFC_DLL@DV?$ChTraitsCRT@D@ATL@@@@@ATL@@XZ$13:
  00061	8b 45 f0	 mov	 eax, DWORD PTR $T11[ebp]
  00064	83 e0 40	 and	 eax, 64			; 00000040H
  00067	0f 84 0d 00 00
	00		 je	 $LN62@GetSavedDa
  0006d	83 65 f0 bf	 and	 DWORD PTR $T11[ebp], -65 ; ffffffbfH
  00071	8d 4d e8	 lea	 ecx, DWORD PTR $T9[ebp]
  00074	ff 25 00 00 00
	00		 jmp	 DWORD PTR __imp_??1?$CStringT@DV?$StrTraitMFC_DLL@DV?$ChTraitsCRT@D@ATL@@@@@ATL@@QAE@XZ
$LN62@GetSavedDa:
  0007a	c3		 ret	 0
__unwindfunclet$?GetSavedData@CPenEnvironment@@QBE?AV?$CStringT@DV?$StrTraitMFC_DLL@DV?$ChTraitsCRT@D@ATL@@@@@ATL@@XZ$2:
  0007b	8d 4d e8	 lea	 ecx, DWORD PTR $T9[ebp]
  0007e	ff 25 00 00 00
	00		 jmp	 DWORD PTR __imp_??1?$CStringT@DV?$StrTraitMFC_DLL@DV?$ChTraitsCRT@D@ATL@@@@@ATL@@QAE@XZ
__unwindfunclet$?GetSavedData@CPenEnvironment@@QBE?AV?$CStringT@DV?$StrTraitMFC_DLL@DV?$ChTraitsCRT@D@ATL@@@@@ATL@@XZ$14:
  00084	8d 4d e0	 lea	 ecx, DWORD PTR $T6[ebp]
  00087	ff 25 00 00 00
	00		 jmp	 DWORD PTR __imp_??1?$CStringT@DV?$StrTraitMFC_DLL@DV?$ChTraitsCRT@D@ATL@@@@@ATL@@QAE@XZ
__unwindfunclet$?GetSavedData@CPenEnvironment@@QBE?AV?$CStringT@DV?$StrTraitMFC_DLL@DV?$ChTraitsCRT@D@ATL@@@@@ATL@@XZ$15:
  0008d	8d 4d dc	 lea	 ecx, DWORD PTR $T4[ebp]
  00090	ff 25 00 00 00
	00		 jmp	 DWORD PTR __imp_??1?$CStringT@DV?$StrTraitMFC_DLL@DV?$ChTraitsCRT@D@ATL@@@@@ATL@@QAE@XZ
__unwindfunclet$?GetSavedData@CPenEnvironment@@QBE?AV?$CStringT@DV?$StrTraitMFC_DLL@DV?$ChTraitsCRT@D@ATL@@@@@ATL@@XZ$18:
  00096	8b 45 f0	 mov	 eax, DWORD PTR $T11[ebp]
  00099	25 00 02 00 00	 and	 eax, 512		; 00000200H
  0009e	0f 84 10 00 00
	00		 je	 $LN94@GetSavedDa
  000a4	81 65 f0 ff fd
	ff ff		 and	 DWORD PTR $T11[ebp], -513 ; fffffdffH
  000ab	8d 4d ec	 lea	 ecx, DWORD PTR $T10[ebp]
  000ae	ff 25 00 00 00
	00		 jmp	 DWORD PTR __imp_??1?$CStringT@DV?$StrTraitMFC_DLL@DV?$ChTraitsCRT@D@ATL@@@@@ATL@@QAE@XZ
$LN94@GetSavedDa:
  000b4	c3		 ret	 0
__unwindfunclet$?GetSavedData@CPenEnvironment@@QBE?AV?$CStringT@DV?$StrTraitMFC_DLL@DV?$ChTraitsCRT@D@ATL@@@@@ATL@@XZ$3:
  000b5	8d 4d ec	 lea	 ecx, DWORD PTR $T10[ebp]
  000b8	ff 25 00 00 00
	00		 jmp	 DWORD PTR __imp_??1?$CStringT@DV?$StrTraitMFC_DLL@DV?$ChTraitsCRT@D@ATL@@@@@ATL@@QAE@XZ
  000be	cc		 int	 3
  000bf	cc		 int	 3
  000c0	cc		 int	 3
  000c1	cc		 int	 3
  000c2	cc		 int	 3
__ehhandler$?GetSavedData@CPenEnvironment@@QBE?AV?$CStringT@DV?$StrTraitMFC_DLL@DV?$ChTraitsCRT@D@ATL@@@@@ATL@@XZ:
  000c3	90		 npad	 1
  000c4	90		 npad	 1
  000c5	8b 54 24 08	 mov	 edx, DWORD PTR [esp+8]
  000c9	8d 42 0c	 lea	 eax, DWORD PTR [edx+12]
  000cc	8b 4a d0	 mov	 ecx, DWORD PTR [edx-48]
  000cf	33 c8		 xor	 ecx, eax
  000d1	e8 00 00 00 00	 call	 @__security_check_cookie@4
  000d6	b8 00 00 00 00	 mov	 eax, OFFSET __ehfuncinfo$?GetSavedData@CPenEnvironment@@QBE?AV?$CStringT@DV?$StrTraitMFC_DLL@DV?$ChTraitsCRT@D@ATL@@@@@ATL@@XZ
  000db	e9 00 00 00 00	 jmp	 ___CxxFrameHandler3
text$x	ENDS
?GetSavedData@CPenEnvironment@@QBE?AV?$CStringT@DV?$StrTraitMFC_DLL@DV?$ChTraitsCRT@D@ATL@@@@@ATL@@XZ ENDP ; CPenEnvironment::GetSavedData
; Function compile flags: /Ogtp
; File D:\git\src\IBK\IBK_DRFN\ProjSrc\SrcChartEx\ChartAddIn\ChartAnalysisToolAddIn\Include_Analysis\ElementEnvironment.cpp
;	COMDAT ?GetStyle@CPenEnvironment@@QBE?AW4PenStyle@CToolEnumData@@XZ
_TEXT	SEGMENT
?GetStyle@CPenEnvironment@@QBE?AW4PenStyle@CToolEnumData@@XZ PROC ; CPenEnvironment::GetStyle, COMDAT
; _this$ = ecx

; 155  : 	return m_eStyle;

  00000	8b 41 08	 mov	 eax, DWORD PTR [ecx+8]

; 156  : }

  00003	c3		 ret	 0
?GetStyle@CPenEnvironment@@QBE?AW4PenStyle@CToolEnumData@@XZ ENDP ; CPenEnvironment::GetStyle
_TEXT	ENDS
; Function compile flags: /Ogtp
; File D:\git\src\IBK\IBK_DRFN\ProjSrc\SrcChartEx\ChartAddIn\ChartAnalysisToolAddIn\Include_Analysis\ElementEnvironment.cpp
;	COMDAT ?GetWidth@CPenEnvironment@@QBEHXZ
_TEXT	SEGMENT
?GetWidth@CPenEnvironment@@QBEHXZ PROC			; CPenEnvironment::GetWidth, COMDAT
; _this$ = ecx

; 150  : 	return m_nWidth;

  00000	8b 41 04	 mov	 eax, DWORD PTR [ecx+4]

; 151  : }

  00003	c3		 ret	 0
?GetWidth@CPenEnvironment@@QBEHXZ ENDP			; CPenEnvironment::GetWidth
_TEXT	ENDS
; Function compile flags: /Ogtp
; File D:\git\src\IBK\IBK_DRFN\ProjSrc\SrcChartEx\ChartAddIn\ChartAnalysisToolAddIn\Include_Analysis\ElementEnvironment.cpp
;	COMDAT ?GetColor@CPenEnvironment@@QBEKXZ
_TEXT	SEGMENT
?GetColor@CPenEnvironment@@QBEKXZ PROC			; CPenEnvironment::GetColor, COMDAT
; _this$ = ecx

; 145  : 	return m_color;

  00000	8b 01		 mov	 eax, DWORD PTR [ecx]

; 146  : }

  00002	c3		 ret	 0
?GetColor@CPenEnvironment@@QBEKXZ ENDP			; CPenEnvironment::GetColor
_TEXT	ENDS
; Function compile flags: /Ogtp
; File D:\git\src\IBK\IBK_DRFN\ProjSrc\SrcChartEx\ChartAddIn\ChartAnalysisToolAddIn\Include_Analysis\ElementEnvironment.cpp
;	COMDAT ?SetStyle@CPenEnvironment@@QAEXW4PenStyle@CToolEnumData@@@Z
_TEXT	SEGMENT
_eStyle$ = 8						; size = 4
?SetStyle@CPenEnvironment@@QAEXW4PenStyle@CToolEnumData@@@Z PROC ; CPenEnvironment::SetStyle, COMDAT
; _this$ = ecx

; 138  : {

  00000	55		 push	 ebp
  00001	8b ec		 mov	 ebp, esp

; 139  : 	m_eStyle = eStyle;

  00003	8b 45 08	 mov	 eax, DWORD PTR _eStyle$[ebp]
  00006	89 41 08	 mov	 DWORD PTR [ecx+8], eax

; 140  : }

  00009	5d		 pop	 ebp
  0000a	c2 04 00	 ret	 4
?SetStyle@CPenEnvironment@@QAEXW4PenStyle@CToolEnumData@@@Z ENDP ; CPenEnvironment::SetStyle
_TEXT	ENDS
; Function compile flags: /Ogtp
; File D:\git\src\IBK\IBK_DRFN\ProjSrc\SrcChartEx\ChartAddIn\ChartAnalysisToolAddIn\Include_Analysis\ElementEnvironment.cpp
;	COMDAT ?SetWidth@CPenEnvironment@@QAEXH@Z
_TEXT	SEGMENT
_nWidth$ = 8						; size = 4
?SetWidth@CPenEnvironment@@QAEXH@Z PROC			; CPenEnvironment::SetWidth, COMDAT
; _this$ = ecx

; 133  : {

  00000	55		 push	 ebp
  00001	8b ec		 mov	 ebp, esp

; 134  : 	m_nWidth = nWidth;

  00003	8b 45 08	 mov	 eax, DWORD PTR _nWidth$[ebp]
  00006	89 41 04	 mov	 DWORD PTR [ecx+4], eax

; 135  : }

  00009	5d		 pop	 ebp
  0000a	c2 04 00	 ret	 4
?SetWidth@CPenEnvironment@@QAEXH@Z ENDP			; CPenEnvironment::SetWidth
_TEXT	ENDS
; Function compile flags: /Ogtp
; File D:\git\src\IBK\IBK_DRFN\ProjSrc\SrcChartEx\ChartAddIn\ChartAnalysisToolAddIn\Include_Analysis\ElementEnvironment.cpp
;	COMDAT ?SetColor@CPenEnvironment@@QAEXABK@Z
_TEXT	SEGMENT
_color$ = 8						; size = 4
?SetColor@CPenEnvironment@@QAEXABK@Z PROC		; CPenEnvironment::SetColor, COMDAT
; _this$ = ecx

; 128  : {

  00000	55		 push	 ebp
  00001	8b ec		 mov	 ebp, esp

; 129  : 	m_color = color;

  00003	8b 45 08	 mov	 eax, DWORD PTR _color$[ebp]
  00006	8b 00		 mov	 eax, DWORD PTR [eax]
  00008	89 01		 mov	 DWORD PTR [ecx], eax

; 130  : }

  0000a	5d		 pop	 ebp
  0000b	c2 04 00	 ret	 4
?SetColor@CPenEnvironment@@QAEXABK@Z ENDP		; CPenEnvironment::SetColor
_TEXT	ENDS
; Function compile flags: /Ogtp
; File D:\git\src\IBK\IBK_DRFN\ProjSrc\SrcChartEx\ChartAddIn\ChartAnalysisToolAddIn\Include_Analysis\ElementEnvironment.cpp
;	COMDAT ?Set@CPenEnvironment@@QAEXABV1@@Z
_TEXT	SEGMENT
_environment$ = 8					; size = 4
?Set@CPenEnvironment@@QAEXABV1@@Z PROC			; CPenEnvironment::Set, COMDAT
; _this$ = ecx

; 121  : {

  00000	55		 push	 ebp
  00001	8b ec		 mov	 ebp, esp

; 122  : 	m_color = environment.GetColor();

  00003	8b 55 08	 mov	 edx, DWORD PTR _environment$[ebp]
  00006	8b 02		 mov	 eax, DWORD PTR [edx]
  00008	89 01		 mov	 DWORD PTR [ecx], eax

; 123  : 	m_nWidth = environment.GetWidth();

  0000a	8b 42 04	 mov	 eax, DWORD PTR [edx+4]
  0000d	89 41 04	 mov	 DWORD PTR [ecx+4], eax

; 124  : 	m_eStyle = environment.GetStyle();

  00010	8b 42 08	 mov	 eax, DWORD PTR [edx+8]
  00013	89 41 08	 mov	 DWORD PTR [ecx+8], eax

; 125  : }

  00016	5d		 pop	 ebp
  00017	c2 04 00	 ret	 4
?Set@CPenEnvironment@@QAEXABV1@@Z ENDP			; CPenEnvironment::Set
_TEXT	ENDS
; Function compile flags: /Ogtp
; File D:\git\src\IBK\IBK_DRFN\ProjSrc\SrcChartEx\ChartAddIn\ChartAnalysisToolAddIn\Include_Analysis\ElementEnvironment.cpp
; File C:\Program Files (x86)\Microsoft Visual Studio\2019\Community\VC\Tools\MSVC\14.29.30133\atlmfc\include\afxwin1.inl
; File D:\git\src\IBK\IBK_DRFN\ProjSrc\SrcChartEx\ChartAddIn\ChartAnalysisToolAddIn\Include_Analysis\ElementEnvironment.cpp
; File C:\Program Files (x86)\Microsoft Visual Studio\2019\Community\VC\Tools\MSVC\14.29.30133\atlmfc\include\afxwin1.inl
; File D:\git\src\IBK\IBK_DRFN\ProjSrc\SrcChartEx\ChartAddIn\ChartAnalysisToolAddIn\Include_Analysis\ElementEnvironment.cpp
; File C:\Program Files (x86)\Microsoft Visual Studio\2019\Community\VC\Tools\MSVC\14.29.30133\atlmfc\include\afxwin1.inl
; File D:\git\src\IBK\IBK_DRFN\ProjSrc\SrcChartEx\ChartAddIn\ChartAnalysisToolAddIn\Include_Analysis\ElementEnvironment.cpp
; File C:\Program Files (x86)\Microsoft Visual Studio\2019\Community\VC\Tools\MSVC\14.29.30133\atlmfc\include\afxwin1.inl
; File D:\git\src\IBK\IBK_DRFN\ProjSrc\SrcChartEx\ChartAddIn\ChartAnalysisToolAddIn\Include_Analysis\ElementEnvironment.cpp
; File C:\Program Files (x86)\Microsoft Visual Studio\2019\Community\VC\Tools\MSVC\14.29.30133\atlmfc\include\afxwin1.inl
; File D:\git\src\IBK\IBK_DRFN\ProjSrc\SrcChartEx\ChartAddIn\ChartAnalysisToolAddIn\Include_Analysis\ElementEnvironment.cpp
; File C:\Program Files (x86)\Microsoft Visual Studio\2019\Community\VC\Tools\MSVC\14.29.30133\atlmfc\include\afxwin1.inl
; File D:\git\src\IBK\IBK_DRFN\ProjSrc\SrcChartEx\ChartAddIn\ChartAnalysisToolAddIn\Include_Analysis\ElementEnvironment.cpp
; File C:\Program Files (x86)\Microsoft Visual Studio\2019\Community\VC\Tools\MSVC\14.29.30133\atlmfc\include\afxwin1.inl
; File D:\git\src\IBK\IBK_DRFN\ProjSrc\SrcChartEx\ChartAddIn\ChartAnalysisToolAddIn\Include_Analysis\ElementEnvironment.cpp
; File C:\Program Files (x86)\Microsoft Visual Studio\2019\Community\VC\Tools\MSVC\14.29.30133\atlmfc\include\afxwin1.inl
; File D:\git\src\IBK\IBK_DRFN\ProjSrc\SrcChartEx\ChartAddIn\ChartAnalysisToolAddIn\Include_Analysis\ElementEnvironment.cpp
; File C:\Program Files (x86)\Microsoft Visual Studio\2019\Community\VC\Tools\MSVC\14.29.30133\atlmfc\include\afxwin1.inl
; File D:\git\src\IBK\IBK_DRFN\ProjSrc\SrcChartEx\ChartAddIn\ChartAnalysisToolAddIn\Include_Analysis\ElementEnvironment.cpp
; File C:\Program Files (x86)\Microsoft Visual Studio\2019\Community\VC\Tools\MSVC\14.29.30133\atlmfc\include\afxwin1.inl
; File D:\git\src\IBK\IBK_DRFN\ProjSrc\SrcChartEx\ChartAddIn\ChartAnalysisToolAddIn\Include_Analysis\ElementEnvironment.cpp
;	COMDAT ?CreatePen@CPenEnvironment@@QAEX_NAAVCPen@@@Z
_TEXT	SEGMENT
_bIsElement$ = 8					; size = 1
_pen$ = 12						; size = 4
?CreatePen@CPenEnvironment@@QAEX_NAAVCPen@@@Z PROC	; CPenEnvironment::CreatePen, COMDAT
; _this$ = ecx

; 113  : {

  00000	55		 push	 ebp
  00001	8b ec		 mov	 ebp, esp

; 114  : 	if(bIsElement)

  00003	80 7d 08 00	 cmp	 BYTE PTR _bIsElement$[ebp], 0
  00007	0f 84 a2 00 00
	00		 je	 $LN2@CreatePen

; 175  : 	switch(m_eStyle){

  0000d	8b 41 08	 mov	 eax, DWORD PTR [ecx+8]
  00010	83 f8 04	 cmp	 eax, 4
  00013	77 7f		 ja	 SHORT $LN6@CreatePen
  00015	ff 24 85 00 00
	00 00		 jmp	 DWORD PTR $LN18@CreatePen[eax*4]
$LN9@CreatePen:
; File C:\Program Files (x86)\Microsoft Visual Studio\2019\Community\VC\Tools\MSVC\14.29.30133\atlmfc\include\afxwin1.inl

; 108  : 	{ return Attach(::CreatePen(nPenStyle, nWidth, crColor)); }

  0001c	ff 31		 push	 DWORD PTR [ecx]
; File D:\git\src\IBK\IBK_DRFN\ProjSrc\SrcChartEx\ChartAddIn\ChartAnalysisToolAddIn\Include_Analysis\ElementEnvironment.cpp

; 179  : 		return PS_DOT;

  0001e	b8 02 00 00 00	 mov	 eax, 2
; File C:\Program Files (x86)\Microsoft Visual Studio\2019\Community\VC\Tools\MSVC\14.29.30133\atlmfc\include\afxwin1.inl

; 108  : 	{ return Attach(::CreatePen(nPenStyle, nWidth, crColor)); }

  00023	ff 71 04	 push	 DWORD PTR [ecx+4]
  00026	50		 push	 eax
; File D:\git\src\IBK\IBK_DRFN\ProjSrc\SrcChartEx\ChartAddIn\ChartAnalysisToolAddIn\Include_Analysis\ElementEnvironment.cpp

; 118  : }

  00027	ff 15 00 00 00
	00		 call	 DWORD PTR __imp__CreatePen@12
  0002d	8b 4d 0c	 mov	 ecx, DWORD PTR _pen$[ebp]
  00030	50		 push	 eax
  00031	e8 00 00 00 00	 call	 ?Attach@CGdiObject@@QAEHPAX@Z ; CGdiObject::Attach
  00036	5d		 pop	 ebp
  00037	c2 08 00	 ret	 8
$LN10@CreatePen:
; File C:\Program Files (x86)\Microsoft Visual Studio\2019\Community\VC\Tools\MSVC\14.29.30133\atlmfc\include\afxwin1.inl

; 108  : 	{ return Attach(::CreatePen(nPenStyle, nWidth, crColor)); }

  0003a	ff 31		 push	 DWORD PTR [ecx]
; File D:\git\src\IBK\IBK_DRFN\ProjSrc\SrcChartEx\ChartAddIn\ChartAnalysisToolAddIn\Include_Analysis\ElementEnvironment.cpp

; 181  : 		return PS_DASH;

  0003c	b8 01 00 00 00	 mov	 eax, 1
; File C:\Program Files (x86)\Microsoft Visual Studio\2019\Community\VC\Tools\MSVC\14.29.30133\atlmfc\include\afxwin1.inl

; 108  : 	{ return Attach(::CreatePen(nPenStyle, nWidth, crColor)); }

  00041	ff 71 04	 push	 DWORD PTR [ecx+4]
  00044	50		 push	 eax
; File D:\git\src\IBK\IBK_DRFN\ProjSrc\SrcChartEx\ChartAddIn\ChartAnalysisToolAddIn\Include_Analysis\ElementEnvironment.cpp

; 118  : }

  00045	ff 15 00 00 00
	00		 call	 DWORD PTR __imp__CreatePen@12
  0004b	8b 4d 0c	 mov	 ecx, DWORD PTR _pen$[ebp]
  0004e	50		 push	 eax
  0004f	e8 00 00 00 00	 call	 ?Attach@CGdiObject@@QAEHPAX@Z ; CGdiObject::Attach
  00054	5d		 pop	 ebp
  00055	c2 08 00	 ret	 8
$LN11@CreatePen:
; File C:\Program Files (x86)\Microsoft Visual Studio\2019\Community\VC\Tools\MSVC\14.29.30133\atlmfc\include\afxwin1.inl

; 108  : 	{ return Attach(::CreatePen(nPenStyle, nWidth, crColor)); }

  00058	ff 31		 push	 DWORD PTR [ecx]
; File D:\git\src\IBK\IBK_DRFN\ProjSrc\SrcChartEx\ChartAddIn\ChartAnalysisToolAddIn\Include_Analysis\ElementEnvironment.cpp

; 183  : 		return PS_DASHDOT;

  0005a	b8 03 00 00 00	 mov	 eax, 3
; File C:\Program Files (x86)\Microsoft Visual Studio\2019\Community\VC\Tools\MSVC\14.29.30133\atlmfc\include\afxwin1.inl

; 108  : 	{ return Attach(::CreatePen(nPenStyle, nWidth, crColor)); }

  0005f	ff 71 04	 push	 DWORD PTR [ecx+4]
  00062	50		 push	 eax
; File D:\git\src\IBK\IBK_DRFN\ProjSrc\SrcChartEx\ChartAddIn\ChartAnalysisToolAddIn\Include_Analysis\ElementEnvironment.cpp

; 118  : }

  00063	ff 15 00 00 00
	00		 call	 DWORD PTR __imp__CreatePen@12
  00069	8b 4d 0c	 mov	 ecx, DWORD PTR _pen$[ebp]
  0006c	50		 push	 eax
  0006d	e8 00 00 00 00	 call	 ?Attach@CGdiObject@@QAEHPAX@Z ; CGdiObject::Attach
  00072	5d		 pop	 ebp
  00073	c2 08 00	 ret	 8
$LN12@CreatePen:
; File C:\Program Files (x86)\Microsoft Visual Studio\2019\Community\VC\Tools\MSVC\14.29.30133\atlmfc\include\afxwin1.inl

; 108  : 	{ return Attach(::CreatePen(nPenStyle, nWidth, crColor)); }

  00076	ff 31		 push	 DWORD PTR [ecx]
; File D:\git\src\IBK\IBK_DRFN\ProjSrc\SrcChartEx\ChartAddIn\ChartAnalysisToolAddIn\Include_Analysis\ElementEnvironment.cpp

; 185  : 		return PS_DASHDOTDOT;

  00078	b8 04 00 00 00	 mov	 eax, 4
; File C:\Program Files (x86)\Microsoft Visual Studio\2019\Community\VC\Tools\MSVC\14.29.30133\atlmfc\include\afxwin1.inl

; 108  : 	{ return Attach(::CreatePen(nPenStyle, nWidth, crColor)); }

  0007d	ff 71 04	 push	 DWORD PTR [ecx+4]
  00080	50		 push	 eax
; File D:\git\src\IBK\IBK_DRFN\ProjSrc\SrcChartEx\ChartAddIn\ChartAnalysisToolAddIn\Include_Analysis\ElementEnvironment.cpp

; 118  : }

  00081	ff 15 00 00 00
	00		 call	 DWORD PTR __imp__CreatePen@12
  00087	8b 4d 0c	 mov	 ecx, DWORD PTR _pen$[ebp]
  0008a	50		 push	 eax
  0008b	e8 00 00 00 00	 call	 ?Attach@CGdiObject@@QAEHPAX@Z ; CGdiObject::Attach
  00090	5d		 pop	 ebp
  00091	c2 08 00	 ret	 8
$LN6@CreatePen:
; File C:\Program Files (x86)\Microsoft Visual Studio\2019\Community\VC\Tools\MSVC\14.29.30133\atlmfc\include\afxwin1.inl

; 108  : 	{ return Attach(::CreatePen(nPenStyle, nWidth, crColor)); }

  00094	ff 31		 push	 DWORD PTR [ecx]
  00096	33 c0		 xor	 eax, eax
  00098	ff 71 04	 push	 DWORD PTR [ecx+4]
  0009b	50		 push	 eax
; File D:\git\src\IBK\IBK_DRFN\ProjSrc\SrcChartEx\ChartAddIn\ChartAnalysisToolAddIn\Include_Analysis\ElementEnvironment.cpp

; 118  : }

  0009c	ff 15 00 00 00
	00		 call	 DWORD PTR __imp__CreatePen@12
  000a2	8b 4d 0c	 mov	 ecx, DWORD PTR _pen$[ebp]
  000a5	50		 push	 eax
  000a6	e8 00 00 00 00	 call	 ?Attach@CGdiObject@@QAEHPAX@Z ; CGdiObject::Attach
  000ab	5d		 pop	 ebp
  000ac	c2 08 00	 ret	 8
$LN2@CreatePen:
; File C:\Program Files (x86)\Microsoft Visual Studio\2019\Community\VC\Tools\MSVC\14.29.30133\atlmfc\include\afxwin1.inl

; 108  : 	{ return Attach(::CreatePen(nPenStyle, nWidth, crColor)); }

  000af	ff 31		 push	 DWORD PTR [ecx]
  000b1	6a 01		 push	 1
  000b3	6a 00		 push	 0
; File D:\git\src\IBK\IBK_DRFN\ProjSrc\SrcChartEx\ChartAddIn\ChartAnalysisToolAddIn\Include_Analysis\ElementEnvironment.cpp

; 118  : }

  000b5	ff 15 00 00 00
	00		 call	 DWORD PTR __imp__CreatePen@12
  000bb	8b 4d 0c	 mov	 ecx, DWORD PTR _pen$[ebp]
  000be	50		 push	 eax
  000bf	e8 00 00 00 00	 call	 ?Attach@CGdiObject@@QAEHPAX@Z ; CGdiObject::Attach
  000c4	5d		 pop	 ebp
  000c5	c2 08 00	 ret	 8
$LN18@CreatePen:
  000c8	00 00 00 00	 DD	 $LN6@CreatePen
  000cc	00 00 00 00	 DD	 $LN9@CreatePen
  000d0	00 00 00 00	 DD	 $LN10@CreatePen
  000d4	00 00 00 00	 DD	 $LN11@CreatePen
  000d8	00 00 00 00	 DD	 $LN12@CreatePen
?CreatePen@CPenEnvironment@@QAEX_NAAVCPen@@@Z ENDP	; CPenEnvironment::CreatePen
_TEXT	ENDS
; Function compile flags: /Ogtp
; File D:\git\src\IBK\IBK_DRFN\ProjSrc\SrcChartEx\ChartAddIn\ChartAnalysisToolAddIn\Include_Analysis\ElementEnvironment.cpp
;	COMDAT ??0CPenEnvironment@@QAE@PAV0@@Z
_TEXT	SEGMENT
_pEnvironment$ = 8					; size = 4
??0CPenEnvironment@@QAE@PAV0@@Z PROC			; CPenEnvironment::CPenEnvironment, COMDAT
; _this$ = ecx

; 101  : {

  00000	55		 push	 ebp
  00001	8b ec		 mov	 ebp, esp

; 102  : 	if(pEnvironment == NULL)

  00003	8b 55 08	 mov	 edx, DWORD PTR _pEnvironment$[ebp]
  00006	85 d2		 test	 edx, edx
  00008	74 10		 je	 SHORT $LN4@CPenEnviro

; 103  : 		return;
; 104  : 
; 105  : 	m_color = pEnvironment->GetColor();

  0000a	8b 02		 mov	 eax, DWORD PTR [edx]
  0000c	89 01		 mov	 DWORD PTR [ecx], eax

; 106  : 	m_nWidth = pEnvironment->GetWidth();

  0000e	8b 42 04	 mov	 eax, DWORD PTR [edx+4]
  00011	89 41 04	 mov	 DWORD PTR [ecx+4], eax

; 107  : 	m_eStyle = pEnvironment->GetStyle();

  00014	8b 42 08	 mov	 eax, DWORD PTR [edx+8]
  00017	89 41 08	 mov	 DWORD PTR [ecx+8], eax
$LN4@CPenEnviro:

; 108  : }

  0001a	8b c1		 mov	 eax, ecx
  0001c	5d		 pop	 ebp
  0001d	c2 04 00	 ret	 4
??0CPenEnvironment@@QAE@PAV0@@Z ENDP			; CPenEnvironment::CPenEnvironment
_TEXT	ENDS
; Function compile flags: /Ogtp
; File D:\git\src\IBK\IBK_DRFN\ProjSrc\SrcChartEx\ChartAddIn\ChartAnalysisToolAddIn\Include_Analysis\ElementEnvironment.cpp
;	COMDAT ??0CPenEnvironment@@QAE@ABKHW4PenStyle@CToolEnumData@@@Z
_TEXT	SEGMENT
_color$ = 8						; size = 4
_nWidth$ = 12						; size = 4
_eStyle$ = 16						; size = 4
??0CPenEnvironment@@QAE@ABKHW4PenStyle@CToolEnumData@@@Z PROC ; CPenEnvironment::CPenEnvironment, COMDAT
; _this$ = ecx

; 97   : {

  00000	55		 push	 ebp
  00001	8b ec		 mov	 ebp, esp

; 94   : 	m_color(color),

  00003	8b 45 08	 mov	 eax, DWORD PTR _color$[ebp]
  00006	8b 00		 mov	 eax, DWORD PTR [eax]
  00008	89 01		 mov	 DWORD PTR [ecx], eax

; 95   : 	m_nWidth(nWidth),

  0000a	8b 45 0c	 mov	 eax, DWORD PTR _nWidth$[ebp]
  0000d	89 41 04	 mov	 DWORD PTR [ecx+4], eax

; 96   : 	m_eStyle(eStyle)

  00010	8b 45 10	 mov	 eax, DWORD PTR _eStyle$[ebp]
  00013	89 41 08	 mov	 DWORD PTR [ecx+8], eax

; 98   : }

  00016	8b c1		 mov	 eax, ecx
  00018	5d		 pop	 ebp
  00019	c2 0c 00	 ret	 12			; 0000000cH
??0CPenEnvironment@@QAE@ABKHW4PenStyle@CToolEnumData@@@Z ENDP ; CPenEnvironment::CPenEnvironment
_TEXT	ENDS
; Function compile flags: /Ogtp
; File D:\git\src\IBK\IBK_DRFN\ProjSrc\SrcChartEx\ChartAddIn\ChartAnalysisToolAddIn\Include_Analysis\ElementEnvironment.cpp
;	COMDAT ??0CPenEnvironment@@QAE@XZ
_TEXT	SEGMENT
??0CPenEnvironment@@QAE@XZ PROC				; CPenEnvironment::CPenEnvironment, COMDAT
; _this$ = ecx

; 87   : 	m_color(RGB(0, 0, 0)),

  00000	c7 01 00 00 00
	00		 mov	 DWORD PTR [ecx], 0

; 91   : }

  00006	8b c1		 mov	 eax, ecx
  00008	c7 41 04 01 00
	00 00		 mov	 DWORD PTR [ecx+4], 1
  0000f	c7 41 08 00 00
	00 00		 mov	 DWORD PTR [ecx+8], 0
  00016	c3		 ret	 0
??0CPenEnvironment@@QAE@XZ ENDP				; CPenEnvironment::CPenEnvironment
_TEXT	ENDS
; Function compile flags: /Ogtp
; File D:\git\src\IBK\IBK_DRFN\ProjSrc\SrcChartEx\ChartAddIn\ChartAnalysisToolAddIn\Include_Analysis\ElementEnvironment.cpp
;	COMDAT ??4CPenEnvironment@@QAEAAV0@ABV0@@Z
_TEXT	SEGMENT
_environment$ = 8					; size = 4
??4CPenEnvironment@@QAEAAV0@ABV0@@Z PROC		; CPenEnvironment::operator=, COMDAT
; _this$ = ecx

; 75   : {

  00000	55		 push	 ebp
  00001	8b ec		 mov	 ebp, esp

; 76   : 	if(this == &environment)

  00003	8b 55 08	 mov	 edx, DWORD PTR _environment$[ebp]
  00006	3b ca		 cmp	 ecx, edx
  00008	74 10		 je	 SHORT $LN4@operator

; 77   : 		return *this;
; 78   : 
; 79   : 	m_color = environment.GetColor();

  0000a	8b 02		 mov	 eax, DWORD PTR [edx]
  0000c	89 01		 mov	 DWORD PTR [ecx], eax

; 80   : 	m_nWidth = environment.GetWidth();

  0000e	8b 42 04	 mov	 eax, DWORD PTR [edx+4]
  00011	89 41 04	 mov	 DWORD PTR [ecx+4], eax

; 81   : 	m_eStyle = environment.GetStyle();

  00014	8b 42 08	 mov	 eax, DWORD PTR [edx+8]
  00017	89 41 08	 mov	 DWORD PTR [ecx+8], eax
$LN4@operator:

; 82   : 	return *this;
; 83   : }

  0001a	8b c1		 mov	 eax, ecx
  0001c	5d		 pop	 ebp
  0001d	c2 04 00	 ret	 4
??4CPenEnvironment@@QAEAAV0@ABV0@@Z ENDP		; CPenEnvironment::operator=
_TEXT	ENDS
; Function compile flags: /Ogtp
; File C:\Program Files (x86)\Microsoft Visual Studio\2019\Community\VC\Tools\MSVC\14.29.30133\atlmfc\include\cstringt.h
; File C:\Program Files (x86)\Microsoft Visual Studio\2019\Community\VC\Tools\MSVC\14.29.30133\atlmfc\include\atlsimpstr.h
; File C:\Program Files (x86)\Microsoft Visual Studio\2019\Community\VC\Tools\MSVC\14.29.30133\atlmfc\include\cstringt.h
; File C:\Program Files (x86)\Microsoft Visual Studio\2019\Community\VC\Tools\MSVC\14.29.30133\atlmfc\include\atlsimpstr.h
; File C:\Program Files (x86)\Microsoft Visual Studio\2019\Community\VC\Tools\MSVC\14.29.30133\atlmfc\include\cstringt.h
;	COMDAT ??HATL@@YA?AV?$CStringT@DV?$StrTraitMFC_DLL@DV?$ChTraitsCRT@D@ATL@@@@@0@PBDABV10@@Z
_TEXT	SEGMENT
$T2 = -16						; size = 4
__$EHRec$ = -12						; size = 12
___$ReturnUdt$ = 8					; size = 4
_psz1$ = 12						; size = 4
_str2$ = 16						; size = 4
??HATL@@YA?AV?$CStringT@DV?$StrTraitMFC_DLL@DV?$ChTraitsCRT@D@ATL@@@@@0@PBDABV10@@Z PROC ; ATL::operator+, COMDAT

; 2411 : 	{

  00000	55		 push	 ebp
  00001	8b ec		 mov	 ebp, esp
  00003	6a ff		 push	 -1
  00005	68 00 00 00 00	 push	 __ehhandler$??HATL@@YA?AV?$CStringT@DV?$StrTraitMFC_DLL@DV?$ChTraitsCRT@D@ATL@@@@@0@PBDABV10@@Z
  0000a	64 a1 00 00 00
	00		 mov	 eax, DWORD PTR fs:0
  00010	50		 push	 eax
  00011	51		 push	 ecx
  00012	53		 push	 ebx
  00013	56		 push	 esi
  00014	57		 push	 edi
  00015	a1 00 00 00 00	 mov	 eax, DWORD PTR ___security_cookie
  0001a	33 c5		 xor	 eax, ebp
  0001c	50		 push	 eax
  0001d	8d 45 f4	 lea	 eax, DWORD PTR __$EHRec$[ebp]
  00020	64 a3 00 00 00
	00		 mov	 DWORD PTR fs:0, eax

; 2412 : 		CStringT strResult( str2.GetManager() );

  00026	8b 75 10	 mov	 esi, DWORD PTR _str2$[ebp]
  00029	8b ce		 mov	 ecx, esi
  0002b	c7 45 f0 00 00
	00 00		 mov	 DWORD PTR $T2[ebp], 0
  00032	ff 15 00 00 00
	00		 call	 DWORD PTR __imp_?GetManager@?$CStringT@DV?$StrTraitMFC_DLL@DV?$ChTraitsCRT@D@ATL@@@@@ATL@@QBEPAUIAtlStringMgr@2@XZ
  00038	8b 7d 08	 mov	 edi, DWORD PTR ___$ReturnUdt$[ebp]
  0003b	8b cf		 mov	 ecx, edi
  0003d	50		 push	 eax
  0003e	ff 15 00 00 00
	00		 call	 DWORD PTR __imp_??0?$CStringT@DV?$StrTraitMFC_DLL@DV?$ChTraitsCRT@D@ATL@@@@@ATL@@QAE@PAUIAtlStringMgr@1@@Z
; File C:\Program Files (x86)\Microsoft Visual Studio\2019\Community\VC\Tools\MSVC\14.29.30133\atlmfc\include\atlsimpstr.h

; 722  : 		if( psz == NULL )

  00044	8b 55 0c	 mov	 edx, DWORD PTR _psz1$[ebp]

; 519  : 		return( GetData()->nDataLength );

  00047	8b 36		 mov	 esi, DWORD PTR [esi]
; File C:\Program Files (x86)\Microsoft Visual Studio\2019\Community\VC\Tools\MSVC\14.29.30133\atlmfc\include\cstringt.h

; 2416 : 		return( strResult );

  00049	c7 45 fc 00 00
	00 00		 mov	 DWORD PTR __$EHRec$[ebp+8], 0
  00050	c7 45 f0 01 00
	00 00		 mov	 DWORD PTR $T2[ebp], 1
; File C:\Program Files (x86)\Microsoft Visual Studio\2019\Community\VC\Tools\MSVC\14.29.30133\atlmfc\include\atlsimpstr.h

; 722  : 		if( psz == NULL )

  00057	85 d2		 test	 edx, edx
  00059	75 04		 jne	 SHORT $LN12@operator

; 723  : 		{
; 724  : 			return( 0 );

  0005b	33 c9		 xor	 ecx, ecx
  0005d	eb 0e		 jmp	 SHORT $LN11@operator
$LN12@operator:

; 725  : 		}
; 726  : 		return( int( strlen( psz ) ) );

  0005f	8b ca		 mov	 ecx, edx
  00061	8d 59 01	 lea	 ebx, DWORD PTR [ecx+1]
$LL14@operator:
  00064	8a 01		 mov	 al, BYTE PTR [ecx]
  00066	41		 inc	 ecx
  00067	84 c0		 test	 al, al
  00069	75 f9		 jne	 SHORT $LL14@operator
  0006b	2b cb		 sub	 ecx, ebx
$LN11@operator:
; File C:\Program Files (x86)\Microsoft Visual Studio\2019\Community\VC\Tools\MSVC\14.29.30133\atlmfc\include\cstringt.h

; 2414 : 		CThisSimpleString::Concatenate( strResult, psz1, CThisSimpleString::StringLength( psz1 ), str2, str2.GetLength() );

  0006d	ff 76 f4	 push	 DWORD PTR [esi-12]
  00070	56		 push	 esi
  00071	51		 push	 ecx
  00072	52		 push	 edx
  00073	57		 push	 edi
  00074	ff 15 00 00 00
	00		 call	 DWORD PTR __imp_?Concatenate@?$CSimpleStringT@D$00@ATL@@KAXAAV12@PBDH1H@Z
  0007a	83 c4 14	 add	 esp, 20			; 00000014H

; 2416 : 		return( strResult );

  0007d	8b c7		 mov	 eax, edi

; 2417 : 	}

  0007f	8b 4d f4	 mov	 ecx, DWORD PTR __$EHRec$[ebp]
  00082	64 89 0d 00 00
	00 00		 mov	 DWORD PTR fs:0, ecx
  00089	59		 pop	 ecx
  0008a	5f		 pop	 edi
  0008b	5e		 pop	 esi
  0008c	5b		 pop	 ebx
  0008d	8b e5		 mov	 esp, ebp
  0008f	5d		 pop	 ebp
  00090	c3		 ret	 0
_TEXT	ENDS
;	COMDAT text$x
text$x	SEGMENT
__unwindfunclet$??HATL@@YA?AV?$CStringT@DV?$StrTraitMFC_DLL@DV?$ChTraitsCRT@D@ATL@@@@@0@PBDABV10@@Z$0:
  00000	8b 45 f0	 mov	 eax, DWORD PTR $T2[ebp]
  00003	83 e0 01	 and	 eax, 1
  00006	0f 84 0d 00 00
	00		 je	 $LN4@operator
  0000c	83 65 f0 fe	 and	 DWORD PTR $T2[ebp], -2	; fffffffeH
  00010	8b 4d 08	 mov	 ecx, DWORD PTR ___$ReturnUdt$[ebp]
  00013	ff 25 00 00 00
	00		 jmp	 DWORD PTR __imp_??1?$CStringT@DV?$StrTraitMFC_DLL@DV?$ChTraitsCRT@D@ATL@@@@@ATL@@QAE@XZ
$LN4@operator:
  00019	c3		 ret	 0
  0001a	cc		 int	 3
  0001b	cc		 int	 3
  0001c	cc		 int	 3
  0001d	cc		 int	 3
  0001e	cc		 int	 3
__ehhandler$??HATL@@YA?AV?$CStringT@DV?$StrTraitMFC_DLL@DV?$ChTraitsCRT@D@ATL@@@@@0@PBDABV10@@Z:
  0001f	90		 npad	 1
  00020	90		 npad	 1
  00021	8b 54 24 08	 mov	 edx, DWORD PTR [esp+8]
  00025	8d 42 0c	 lea	 eax, DWORD PTR [edx+12]
  00028	8b 4a ec	 mov	 ecx, DWORD PTR [edx-20]
  0002b	33 c8		 xor	 ecx, eax
  0002d	e8 00 00 00 00	 call	 @__security_check_cookie@4
  00032	b8 00 00 00 00	 mov	 eax, OFFSET __ehfuncinfo$??HATL@@YA?AV?$CStringT@DV?$StrTraitMFC_DLL@DV?$ChTraitsCRT@D@ATL@@@@@0@PBDABV10@@Z
  00037	e9 00 00 00 00	 jmp	 ___CxxFrameHandler3
text$x	ENDS
??HATL@@YA?AV?$CStringT@DV?$StrTraitMFC_DLL@DV?$ChTraitsCRT@D@ATL@@@@@0@PBDABV10@@Z ENDP ; ATL::operator+
; Function compile flags: /Ogtp
; File C:\Program Files (x86)\Microsoft Visual Studio\2019\Community\VC\Tools\MSVC\14.29.30133\atlmfc\include\cstringt.h
; File C:\Program Files (x86)\Microsoft Visual Studio\2019\Community\VC\Tools\MSVC\14.29.30133\atlmfc\include\atlsimpstr.h
; File C:\Program Files (x86)\Microsoft Visual Studio\2019\Community\VC\Tools\MSVC\14.29.30133\atlmfc\include\cstringt.h
; File C:\Program Files (x86)\Microsoft Visual Studio\2019\Community\VC\Tools\MSVC\14.29.30133\atlmfc\include\atlsimpstr.h
; File C:\Program Files (x86)\Microsoft Visual Studio\2019\Community\VC\Tools\MSVC\14.29.30133\atlmfc\include\cstringt.h
;	COMDAT ??HATL@@YA?AV?$CStringT@DV?$StrTraitMFC_DLL@DV?$ChTraitsCRT@D@ATL@@@@@0@ABV10@PBD@Z
_TEXT	SEGMENT
$T2 = -16						; size = 4
__$EHRec$ = -12						; size = 12
___$ReturnUdt$ = 8					; size = 4
_str1$ = 12						; size = 4
_psz2$ = 16						; size = 4
??HATL@@YA?AV?$CStringT@DV?$StrTraitMFC_DLL@DV?$ChTraitsCRT@D@ATL@@@@@0@ABV10@PBD@Z PROC ; ATL::operator+, COMDAT

; 2400 : 	{

  00000	55		 push	 ebp
  00001	8b ec		 mov	 ebp, esp
  00003	6a ff		 push	 -1
  00005	68 00 00 00 00	 push	 __ehhandler$??HATL@@YA?AV?$CStringT@DV?$StrTraitMFC_DLL@DV?$ChTraitsCRT@D@ATL@@@@@0@ABV10@PBD@Z
  0000a	64 a1 00 00 00
	00		 mov	 eax, DWORD PTR fs:0
  00010	50		 push	 eax
  00011	51		 push	 ecx
  00012	53		 push	 ebx
  00013	56		 push	 esi
  00014	57		 push	 edi
  00015	a1 00 00 00 00	 mov	 eax, DWORD PTR ___security_cookie
  0001a	33 c5		 xor	 eax, ebp
  0001c	50		 push	 eax
  0001d	8d 45 f4	 lea	 eax, DWORD PTR __$EHRec$[ebp]
  00020	64 a3 00 00 00
	00		 mov	 DWORD PTR fs:0, eax

; 2401 : 		CStringT strResult( str1.GetManager() );

  00026	8b 5d 0c	 mov	 ebx, DWORD PTR _str1$[ebp]
  00029	8b cb		 mov	 ecx, ebx
  0002b	c7 45 f0 00 00
	00 00		 mov	 DWORD PTR $T2[ebp], 0
  00032	ff 15 00 00 00
	00		 call	 DWORD PTR __imp_?GetManager@?$CStringT@DV?$StrTraitMFC_DLL@DV?$ChTraitsCRT@D@ATL@@@@@ATL@@QBEPAUIAtlStringMgr@2@XZ
  00038	8b 7d 08	 mov	 edi, DWORD PTR ___$ReturnUdt$[ebp]
  0003b	8b cf		 mov	 ecx, edi
  0003d	50		 push	 eax
  0003e	ff 15 00 00 00
	00		 call	 DWORD PTR __imp_??0?$CStringT@DV?$StrTraitMFC_DLL@DV?$ChTraitsCRT@D@ATL@@@@@ATL@@QAE@PAUIAtlStringMgr@1@@Z
; File C:\Program Files (x86)\Microsoft Visual Studio\2019\Community\VC\Tools\MSVC\14.29.30133\atlmfc\include\atlsimpstr.h

; 722  : 		if( psz == NULL )

  00044	8b 75 10	 mov	 esi, DWORD PTR _psz2$[ebp]
; File C:\Program Files (x86)\Microsoft Visual Studio\2019\Community\VC\Tools\MSVC\14.29.30133\atlmfc\include\cstringt.h

; 2405 : 		return( strResult );

  00047	c7 45 fc 00 00
	00 00		 mov	 DWORD PTR __$EHRec$[ebp+8], 0
  0004e	c7 45 f0 01 00
	00 00		 mov	 DWORD PTR $T2[ebp], 1
; File C:\Program Files (x86)\Microsoft Visual Studio\2019\Community\VC\Tools\MSVC\14.29.30133\atlmfc\include\atlsimpstr.h

; 722  : 		if( psz == NULL )

  00055	85 f6		 test	 esi, esi
  00057	75 04		 jne	 SHORT $LN6@operator

; 723  : 		{
; 724  : 			return( 0 );

  00059	33 d2		 xor	 edx, edx
  0005b	eb 0e		 jmp	 SHORT $LN5@operator
$LN6@operator:

; 725  : 		}
; 726  : 		return( int( strlen( psz ) ) );

  0005d	8b d6		 mov	 edx, esi
  0005f	8d 4a 01	 lea	 ecx, DWORD PTR [edx+1]
$LL14@operator:
  00062	8a 02		 mov	 al, BYTE PTR [edx]
  00064	42		 inc	 edx
  00065	84 c0		 test	 al, al
  00067	75 f9		 jne	 SHORT $LL14@operator
  00069	2b d1		 sub	 edx, ecx
$LN5@operator:

; 519  : 		return( GetData()->nDataLength );

  0006b	8b 0b		 mov	 ecx, DWORD PTR [ebx]
; File C:\Program Files (x86)\Microsoft Visual Studio\2019\Community\VC\Tools\MSVC\14.29.30133\atlmfc\include\cstringt.h

; 2403 : 		CThisSimpleString::Concatenate( strResult, str1, str1.GetLength(), psz2, CThisSimpleString::StringLength( psz2 ) );

  0006d	52		 push	 edx
  0006e	56		 push	 esi
  0006f	ff 71 f4	 push	 DWORD PTR [ecx-12]
  00072	51		 push	 ecx
  00073	57		 push	 edi
  00074	ff 15 00 00 00
	00		 call	 DWORD PTR __imp_?Concatenate@?$CSimpleStringT@D$00@ATL@@KAXAAV12@PBDH1H@Z
  0007a	83 c4 14	 add	 esp, 20			; 00000014H

; 2405 : 		return( strResult );

  0007d	8b c7		 mov	 eax, edi

; 2406 : 	}

  0007f	8b 4d f4	 mov	 ecx, DWORD PTR __$EHRec$[ebp]
  00082	64 89 0d 00 00
	00 00		 mov	 DWORD PTR fs:0, ecx
  00089	59		 pop	 ecx
  0008a	5f		 pop	 edi
  0008b	5e		 pop	 esi
  0008c	5b		 pop	 ebx
  0008d	8b e5		 mov	 esp, ebp
  0008f	5d		 pop	 ebp
  00090	c3		 ret	 0
_TEXT	ENDS
;	COMDAT text$x
text$x	SEGMENT
__unwindfunclet$??HATL@@YA?AV?$CStringT@DV?$StrTraitMFC_DLL@DV?$ChTraitsCRT@D@ATL@@@@@0@ABV10@PBD@Z$0:
  00000	8b 45 f0	 mov	 eax, DWORD PTR $T2[ebp]
  00003	83 e0 01	 and	 eax, 1
  00006	0f 84 0d 00 00
	00		 je	 $LN4@operator
  0000c	83 65 f0 fe	 and	 DWORD PTR $T2[ebp], -2	; fffffffeH
  00010	8b 4d 08	 mov	 ecx, DWORD PTR ___$ReturnUdt$[ebp]
  00013	ff 25 00 00 00
	00		 jmp	 DWORD PTR __imp_??1?$CStringT@DV?$StrTraitMFC_DLL@DV?$ChTraitsCRT@D@ATL@@@@@ATL@@QAE@XZ
$LN4@operator:
  00019	c3		 ret	 0
  0001a	cc		 int	 3
  0001b	cc		 int	 3
  0001c	cc		 int	 3
  0001d	cc		 int	 3
  0001e	cc		 int	 3
__ehhandler$??HATL@@YA?AV?$CStringT@DV?$StrTraitMFC_DLL@DV?$ChTraitsCRT@D@ATL@@@@@0@ABV10@PBD@Z:
  0001f	90		 npad	 1
  00020	90		 npad	 1
  00021	8b 54 24 08	 mov	 edx, DWORD PTR [esp+8]
  00025	8d 42 0c	 lea	 eax, DWORD PTR [edx+12]
  00028	8b 4a ec	 mov	 ecx, DWORD PTR [edx-20]
  0002b	33 c8		 xor	 ecx, eax
  0002d	e8 00 00 00 00	 call	 @__security_check_cookie@4
  00032	b8 00 00 00 00	 mov	 eax, OFFSET __ehfuncinfo$??HATL@@YA?AV?$CStringT@DV?$StrTraitMFC_DLL@DV?$ChTraitsCRT@D@ATL@@@@@0@ABV10@PBD@Z
  00037	e9 00 00 00 00	 jmp	 ___CxxFrameHandler3
text$x	ENDS
??HATL@@YA?AV?$CStringT@DV?$StrTraitMFC_DLL@DV?$ChTraitsCRT@D@ATL@@@@@0@ABV10@PBD@Z ENDP ; ATL::operator+
; Function compile flags: /Ogtp
; File C:\Program Files (x86)\Microsoft Visual Studio\2019\Community\VC\Tools\MSVC\14.29.30133\atlmfc\include\cstringt.h
; File C:\Program Files (x86)\Microsoft Visual Studio\2019\Community\VC\Tools\MSVC\14.29.30133\atlmfc\include\atlsimpstr.h
; File C:\Program Files (x86)\Microsoft Visual Studio\2019\Community\VC\Tools\MSVC\14.29.30133\atlmfc\include\cstringt.h
; File C:\Program Files (x86)\Microsoft Visual Studio\2019\Community\VC\Tools\MSVC\14.29.30133\atlmfc\include\atlsimpstr.h
; File C:\Program Files (x86)\Microsoft Visual Studio\2019\Community\VC\Tools\MSVC\14.29.30133\atlmfc\include\cstringt.h
;	COMDAT ??HATL@@YA?AV?$CStringT@DV?$StrTraitMFC_DLL@DV?$ChTraitsCRT@D@ATL@@@@@0@ABV10@0@Z
_TEXT	SEGMENT
$T2 = -16						; size = 4
__$EHRec$ = -12						; size = 12
___$ReturnUdt$ = 8					; size = 4
_str1$ = 12						; size = 4
_str2$ = 16						; size = 4
??HATL@@YA?AV?$CStringT@DV?$StrTraitMFC_DLL@DV?$ChTraitsCRT@D@ATL@@@@@0@ABV10@0@Z PROC ; ATL::operator+, COMDAT

; 2389 : 	{

  00000	55		 push	 ebp
  00001	8b ec		 mov	 ebp, esp
  00003	6a ff		 push	 -1
  00005	68 00 00 00 00	 push	 __ehhandler$??HATL@@YA?AV?$CStringT@DV?$StrTraitMFC_DLL@DV?$ChTraitsCRT@D@ATL@@@@@0@ABV10@0@Z
  0000a	64 a1 00 00 00
	00		 mov	 eax, DWORD PTR fs:0
  00010	50		 push	 eax
  00011	51		 push	 ecx
  00012	56		 push	 esi
  00013	57		 push	 edi
  00014	a1 00 00 00 00	 mov	 eax, DWORD PTR ___security_cookie
  00019	33 c5		 xor	 eax, ebp
  0001b	50		 push	 eax
  0001c	8d 45 f4	 lea	 eax, DWORD PTR __$EHRec$[ebp]
  0001f	64 a3 00 00 00
	00		 mov	 DWORD PTR fs:0, eax

; 2390 : 		CStringT strResult( str1.GetManager() );

  00025	8b 75 0c	 mov	 esi, DWORD PTR _str1$[ebp]
  00028	8b ce		 mov	 ecx, esi
  0002a	c7 45 f0 00 00
	00 00		 mov	 DWORD PTR $T2[ebp], 0
  00031	ff 15 00 00 00
	00		 call	 DWORD PTR __imp_?GetManager@?$CStringT@DV?$StrTraitMFC_DLL@DV?$ChTraitsCRT@D@ATL@@@@@ATL@@QBEPAUIAtlStringMgr@2@XZ
  00037	8b 7d 08	 mov	 edi, DWORD PTR ___$ReturnUdt$[ebp]
  0003a	8b cf		 mov	 ecx, edi
  0003c	50		 push	 eax
  0003d	ff 15 00 00 00
	00		 call	 DWORD PTR __imp_??0?$CStringT@DV?$StrTraitMFC_DLL@DV?$ChTraitsCRT@D@ATL@@@@@ATL@@QAE@PAUIAtlStringMgr@1@@Z
; File C:\Program Files (x86)\Microsoft Visual Studio\2019\Community\VC\Tools\MSVC\14.29.30133\atlmfc\include\atlsimpstr.h

; 519  : 		return( GetData()->nDataLength );

  00043	8b 45 10	 mov	 eax, DWORD PTR _str2$[ebp]
  00046	8b 16		 mov	 edx, DWORD PTR [esi]
; File C:\Program Files (x86)\Microsoft Visual Studio\2019\Community\VC\Tools\MSVC\14.29.30133\atlmfc\include\cstringt.h

; 2394 : 		return( strResult );

  00048	c7 45 fc 00 00
	00 00		 mov	 DWORD PTR __$EHRec$[ebp+8], 0
  0004f	c7 45 f0 01 00
	00 00		 mov	 DWORD PTR $T2[ebp], 1
; File C:\Program Files (x86)\Microsoft Visual Studio\2019\Community\VC\Tools\MSVC\14.29.30133\atlmfc\include\atlsimpstr.h

; 519  : 		return( GetData()->nDataLength );

  00056	8b 08		 mov	 ecx, DWORD PTR [eax]
; File C:\Program Files (x86)\Microsoft Visual Studio\2019\Community\VC\Tools\MSVC\14.29.30133\atlmfc\include\cstringt.h

; 2392 : 		CThisSimpleString::Concatenate( strResult, str1, str1.GetLength(), str2, str2.GetLength() );

  00058	ff 71 f4	 push	 DWORD PTR [ecx-12]
  0005b	51		 push	 ecx
  0005c	ff 72 f4	 push	 DWORD PTR [edx-12]
  0005f	52		 push	 edx
  00060	57		 push	 edi
  00061	ff 15 00 00 00
	00		 call	 DWORD PTR __imp_?Concatenate@?$CSimpleStringT@D$00@ATL@@KAXAAV12@PBDH1H@Z
  00067	83 c4 14	 add	 esp, 20			; 00000014H

; 2394 : 		return( strResult );

  0006a	8b c7		 mov	 eax, edi

; 2395 : 	}

  0006c	8b 4d f4	 mov	 ecx, DWORD PTR __$EHRec$[ebp]
  0006f	64 89 0d 00 00
	00 00		 mov	 DWORD PTR fs:0, ecx
  00076	59		 pop	 ecx
  00077	5f		 pop	 edi
  00078	5e		 pop	 esi
  00079	8b e5		 mov	 esp, ebp
  0007b	5d		 pop	 ebp
  0007c	c3		 ret	 0
_TEXT	ENDS
;	COMDAT text$x
text$x	SEGMENT
__unwindfunclet$??HATL@@YA?AV?$CStringT@DV?$StrTraitMFC_DLL@DV?$ChTraitsCRT@D@ATL@@@@@0@ABV10@0@Z$0:
  00000	8b 45 f0	 mov	 eax, DWORD PTR $T2[ebp]
  00003	83 e0 01	 and	 eax, 1
  00006	0f 84 0d 00 00
	00		 je	 $LN4@operator
  0000c	83 65 f0 fe	 and	 DWORD PTR $T2[ebp], -2	; fffffffeH
  00010	8b 4d 08	 mov	 ecx, DWORD PTR ___$ReturnUdt$[ebp]
  00013	ff 25 00 00 00
	00		 jmp	 DWORD PTR __imp_??1?$CStringT@DV?$StrTraitMFC_DLL@DV?$ChTraitsCRT@D@ATL@@@@@ATL@@QAE@XZ
$LN4@operator:
  00019	c3		 ret	 0
  0001a	cc		 int	 3
  0001b	cc		 int	 3
  0001c	cc		 int	 3
  0001d	cc		 int	 3
  0001e	cc		 int	 3
__ehhandler$??HATL@@YA?AV?$CStringT@DV?$StrTraitMFC_DLL@DV?$ChTraitsCRT@D@ATL@@@@@0@ABV10@0@Z:
  0001f	90		 npad	 1
  00020	90		 npad	 1
  00021	8b 54 24 08	 mov	 edx, DWORD PTR [esp+8]
  00025	8d 42 0c	 lea	 eax, DWORD PTR [edx+12]
  00028	8b 4a f0	 mov	 ecx, DWORD PTR [edx-16]
  0002b	33 c8		 xor	 ecx, eax
  0002d	e8 00 00 00 00	 call	 @__security_check_cookie@4
  00032	b8 00 00 00 00	 mov	 eax, OFFSET __ehfuncinfo$??HATL@@YA?AV?$CStringT@DV?$StrTraitMFC_DLL@DV?$ChTraitsCRT@D@ATL@@@@@0@ABV10@0@Z
  00037	e9 00 00 00 00	 jmp	 ___CxxFrameHandler3
text$x	ENDS
??HATL@@YA?AV?$CStringT@DV?$StrTraitMFC_DLL@DV?$ChTraitsCRT@D@ATL@@@@@0@ABV10@0@Z ENDP ; ATL::operator+
; Function compile flags: /Ogtp
; File D:\git\src\IBK\IBK_DRFN\ProjSrc\SrcChartEx\ChartAddIn\ChartAnalysisToolAddIn\Include_Analysis\ElementEnvironment.cpp
;	COMDAT ?__empty_global_delete@@YAXPAXI@Z
_TEXT	SEGMENT
___formal$ = 8						; size = 4
___formal$ = 12						; size = 4
?__empty_global_delete@@YAXPAXI@Z PROC			; __empty_global_delete, COMDAT

  00000	c2 00 00	 ret	 0
?__empty_global_delete@@YAXPAXI@Z ENDP			; __empty_global_delete
_TEXT	ENDS
; Function compile flags: /Ogtp
; File D:\git\src\IBK\IBK_DRFN\ProjSrc\SrcChartEx\ChartAddIn\ChartAnalysisToolAddIn\Include_Analysis\ElementEnvironment.cpp
;	COMDAT ?__empty_global_delete@@YAXPAX@Z
_TEXT	SEGMENT
___formal$ = 8						; size = 4
?__empty_global_delete@@YAXPAX@Z PROC			; __empty_global_delete, COMDAT

  00000	c2 00 00	 ret	 0
?__empty_global_delete@@YAXPAX@Z ENDP			; __empty_global_delete
_TEXT	ENDS
END
