; Listing generated by Microsoft (R) Optimizing Compiler Version 19.29.30145.0 

	TITLE	D:\git\src\IBK\IBK_DRFN\#DRfn-CS\_Obj\AnalysisTool\FiboGannTool.obj
	.686P
	.XMM
	include listing.inc
	.model	flat

INCLUDELIB MSVCRT
INCLUDELIB OLDNAMES

PUBLIC	?__empty_global_delete@@YAXPAX@Z		; __empty_global_delete
PUBLIC	?__empty_global_delete@@YAXPAXI@Z		; __empty_global_delete
PUBLIC	?_Tidy@?$deque@VCBlockRegion@@V?$allocator@VCBlockRegion@@@std@@@std@@AAEXXZ ; std::deque<CBlockRegion,std::allocator<CBlockRegion> >::_Tidy
PUBLIC	??1CPoints@@QAE@XZ				; CPoints::~CPoints
PUBLIC	??1COnePointMoveTool@@QAE@XZ			; COnePointMoveTool::~COnePointMoveTool
PUBLIC	??1CTwoPointDownTool@@QAE@XZ			; CTwoPointDownTool::~CTwoPointDownTool
PUBLIC	??0CFiboSemicircleTool@@QAE@PAVCAnalysisData@@W4COORDINATETYPE@CAnalysis@@@Z ; CFiboSemicircleTool::CFiboSemicircleTool
PUBLIC	?SetTextPosition@CFiboSemicircleTool@@QAEXABVCTextShowPosition@@@Z ; CFiboSemicircleTool::SetTextPosition
PUBLIC	?SetTextPosition@CFiboSemicircleTool@@QAEX_N@Z	; CFiboSemicircleTool::SetTextPosition
PUBLIC	?GetToolType@CFiboSemicircleTool@@MBE?AW4TOOLTYPE@CAnalysis@@XZ ; CFiboSemicircleTool::GetToolType
PUBLIC	?GetTwoPointDrawer@CFiboSemicircleTool@@MAEAAVCTwoPointDrawer@@XZ ; CFiboSemicircleTool::GetTwoPointDrawer
PUBLIC	?GetTextPosition@CFiboSemicircleTool@@MBEPBVCTextPosition@@XZ ; CFiboSemicircleTool::GetTextPosition
PUBLIC	?GetTextPosition@CFiboSemicircleTool@@MAEPAVCTextPosition@@XZ ; CFiboSemicircleTool::GetTextPosition
PUBLIC	??0CFiboCircleTool@@QAE@PAVCAnalysisData@@W4COORDINATETYPE@CAnalysis@@@Z ; CFiboCircleTool::CFiboCircleTool
PUBLIC	?SetTextPosition@CFiboCircleTool@@QAEXABVCTextShowPosition@@@Z ; CFiboCircleTool::SetTextPosition
PUBLIC	?SetTextPosition@CFiboCircleTool@@QAEX_N@Z	; CFiboCircleTool::SetTextPosition
PUBLIC	?GetToolType@CFiboCircleTool@@MBE?AW4TOOLTYPE@CAnalysis@@XZ ; CFiboCircleTool::GetToolType
PUBLIC	?GetTwoPointDrawer@CFiboCircleTool@@MAEAAVCTwoPointDrawer@@XZ ; CFiboCircleTool::GetTwoPointDrawer
PUBLIC	?GetTextPosition@CFiboCircleTool@@MBEPBVCTextPosition@@XZ ; CFiboCircleTool::GetTextPosition
PUBLIC	?GetTextPosition@CFiboCircleTool@@MAEPAVCTextPosition@@XZ ; CFiboCircleTool::GetTextPosition
PUBLIC	??0CFiboPenLineTool@@QAE@PAVCAnalysisData@@W4COORDINATETYPE@CAnalysis@@@Z ; CFiboPenLineTool::CFiboPenLineTool
PUBLIC	?SetTextPosition@CFiboPenLineTool@@QAEXABVCTextShowPosition@@@Z ; CFiboPenLineTool::SetTextPosition
PUBLIC	?SetTextPosition@CFiboPenLineTool@@QAEX_N@Z	; CFiboPenLineTool::SetTextPosition
PUBLIC	?GetToolType@CFiboPenLineTool@@MBE?AW4TOOLTYPE@CAnalysis@@XZ ; CFiboPenLineTool::GetToolType
PUBLIC	?GetTwoPointDrawer@CFiboPenLineTool@@MAEAAVCTwoPointDrawer@@XZ ; CFiboPenLineTool::GetTwoPointDrawer
PUBLIC	?GetTextPosition@CFiboPenLineTool@@MBEPBVCTextPosition@@XZ ; CFiboPenLineTool::GetTextPosition
PUBLIC	?GetTextPosition@CFiboPenLineTool@@MAEPAVCTextPosition@@XZ ; CFiboPenLineTool::GetTextPosition
PUBLIC	??0CFiboRetraceTool@@QAE@PAVCAnalysisData@@W4COORDINATETYPE@CAnalysis@@@Z ; CFiboRetraceTool::CFiboRetraceTool
PUBLIC	?SetTextPosition@CFiboRetraceTool@@QAEXABVCTextShowPosition@@@Z ; CFiboRetraceTool::SetTextPosition
PUBLIC	?SetTextPosition@CFiboRetraceTool@@QAEX_N@Z	; CFiboRetraceTool::SetTextPosition
PUBLIC	?SetTextEnvironment@CFiboRetraceTool@@QAEXABVCTextEnvironment@@@Z ; CFiboRetraceTool::SetTextEnvironment
PUBLIC	?GetToolType@CFiboRetraceTool@@MBE?AW4TOOLTYPE@CAnalysis@@XZ ; CFiboRetraceTool::GetToolType
PUBLIC	?GetTextPosition@CFiboRetraceTool@@MBEPBVCTextPosition@@XZ ; CFiboRetraceTool::GetTextPosition
PUBLIC	?GetTextPosition@CFiboRetraceTool@@MAEPAVCTextPosition@@XZ ; CFiboRetraceTool::GetTextPosition
PUBLIC	?GetTwoPointDrawer@CFiboRetraceTool@@MAEAAVCTwoPointDrawer@@XZ ; CFiboRetraceTool::GetTwoPointDrawer
PUBLIC	?IsMakeElement@CFiboRetraceTool@@MBE_NABVCPoint@@@Z ; CFiboRetraceTool::IsMakeElement
PUBLIC	??0CFiboTimeTool@@QAE@PAVCAnalysisData@@W4COORDINATETYPE@CAnalysis@@@Z ; CFiboTimeTool::CFiboTimeTool
PUBLIC	?SetTextPosition@CFiboTimeTool@@QAEXABVCTextShowPosition@@@Z ; CFiboTimeTool::SetTextPosition
PUBLIC	?SetTextPosition@CFiboTimeTool@@QAEX_N@Z	; CFiboTimeTool::SetTextPosition
PUBLIC	?OnLButtonUp@CFiboTimeTool@@UAEXPAVCDC@@ABVCPoint@@@Z ; CFiboTimeTool::OnLButtonUp
PUBLIC	?GetToolType@CFiboTimeTool@@MBE?AW4TOOLTYPE@CAnalysis@@XZ ; CFiboTimeTool::GetToolType
PUBLIC	?GetOnePointDrawer@CFiboTimeTool@@MAEAAVCOnePointDrawer@@XZ ; CFiboTimeTool::GetOnePointDrawer
PUBLIC	?GetTextPosition@CFiboTimeTool@@MBEPBVCTextPosition@@XZ ; CFiboTimeTool::GetTextPosition
PUBLIC	?GetTextPosition@CFiboTimeTool@@MAEPAVCTextPosition@@XZ ; CFiboTimeTool::GetTextPosition
PUBLIC	??0CGannTool@@QAE@PAVCAnalysisData@@W4COORDINATETYPE@CAnalysis@@@Z ; CGannTool::CGannTool
PUBLIC	?OnLButtonUp@CGannTool@@UAEXPAVCDC@@ABVCPoint@@@Z ; CGannTool::OnLButtonUp
PUBLIC	?GetTwoPoints@CGannTool@@MBE?AVCPoints@@XZ	; CGannTool::GetTwoPoints
PUBLIC	??1CGannTool@@QAE@XZ				; CGannTool::~CGannTool
PUBLIC	??0CGannLineTool@@QAE@PAVCAnalysisData@@W4COORDINATETYPE@CAnalysis@@@Z ; CGannLineTool::CGannLineTool
PUBLIC	?GetTwoPointDrawer@CGannLineTool@@MAEAAVCTwoPointDrawer@@XZ ; CGannLineTool::GetTwoPointDrawer
PUBLIC	?GetGannDrawer@CGannLineTool@@MBEABVCGannDrawer@@XZ ; CGannLineTool::GetGannDrawer
PUBLIC	??0CGannLine45Tool@@QAE@PAVCAnalysisData@@W4COORDINATETYPE@CAnalysis@@@Z ; CGannLine45Tool::CGannLine45Tool
PUBLIC	?GetToolType@CGannLine45Tool@@MBE?AW4TOOLTYPE@CAnalysis@@XZ ; CGannLine45Tool::GetToolType
PUBLIC	??0CGannLine315Tool@@QAE@PAVCAnalysisData@@W4COORDINATETYPE@CAnalysis@@@Z ; CGannLine315Tool::CGannLine315Tool
PUBLIC	?GetToolType@CGannLine315Tool@@MBE?AW4TOOLTYPE@CAnalysis@@XZ ; CGannLine315Tool::GetToolType
PUBLIC	?GetTwoPoints@CGannLine315Tool@@MBE?AVCPoints@@XZ ; CGannLine315Tool::GetTwoPoints
PUBLIC	??0CGannFanTool@@QAE@PAVCAnalysisData@@W4COORDINATETYPE@CAnalysis@@@Z ; CGannFanTool::CGannFanTool
PUBLIC	?SetTextPosition@CGannFanTool@@QAEXABVCTextShowPosition@@@Z ; CGannFanTool::SetTextPosition
PUBLIC	?SetTextPosition@CGannFanTool@@QAEX_N@Z		; CGannFanTool::SetTextPosition
PUBLIC	?GetTwoPointDrawer@CGannFanTool@@MAEAAVCTwoPointDrawer@@XZ ; CGannFanTool::GetTwoPointDrawer
PUBLIC	?GetTextPosition@CGannFanTool@@MBEPBVCTextPosition@@XZ ; CGannFanTool::GetTextPosition
PUBLIC	?GetTextPosition@CGannFanTool@@MAEPAVCTextPosition@@XZ ; CGannFanTool::GetTextPosition
PUBLIC	?GetGannDrawer@CGannFanTool@@MBEABVCGannDrawer@@XZ ; CGannFanTool::GetGannDrawer
PUBLIC	??0CGannFan45Tool@@QAE@PAVCAnalysisData@@W4COORDINATETYPE@CAnalysis@@@Z ; CGannFan45Tool::CGannFan45Tool
PUBLIC	?GetToolType@CGannFan45Tool@@MBE?AW4TOOLTYPE@CAnalysis@@XZ ; CGannFan45Tool::GetToolType
PUBLIC	??0CGannFan135Tool@@QAE@PAVCAnalysisData@@W4COORDINATETYPE@CAnalysis@@@Z ; CGannFan135Tool::CGannFan135Tool
PUBLIC	?GetToolType@CGannFan135Tool@@MBE?AW4TOOLTYPE@CAnalysis@@XZ ; CGannFan135Tool::GetToolType
PUBLIC	?GetTwoPoints@CGannFan135Tool@@MBE?AVCPoints@@XZ ; CGannFan135Tool::GetTwoPoints
PUBLIC	??0CGannFan225Tool@@QAE@PAVCAnalysisData@@W4COORDINATETYPE@CAnalysis@@@Z ; CGannFan225Tool::CGannFan225Tool
PUBLIC	?GetToolType@CGannFan225Tool@@MBE?AW4TOOLTYPE@CAnalysis@@XZ ; CGannFan225Tool::GetToolType
PUBLIC	?GetTwoPoints@CGannFan225Tool@@MBE?AVCPoints@@XZ ; CGannFan225Tool::GetTwoPoints
PUBLIC	??0CGannFan315Tool@@QAE@PAVCAnalysisData@@W4COORDINATETYPE@CAnalysis@@@Z ; CGannFan315Tool::CGannFan315Tool
PUBLIC	?GetToolType@CGannFan315Tool@@MBE?AW4TOOLTYPE@CAnalysis@@XZ ; CGannFan315Tool::GetToolType
PUBLIC	?GetTwoPoints@CGannFan315Tool@@MBE?AVCPoints@@XZ ; CGannFan315Tool::GetTwoPoints
PUBLIC	??0CGannGridTool@@QAE@PAVCAnalysisData@@W4COORDINATETYPE@CAnalysis@@@Z ; CGannGridTool::CGannGridTool
PUBLIC	?GetToolType@CGannGridTool@@MBE?AW4TOOLTYPE@CAnalysis@@XZ ; CGannGridTool::GetToolType
PUBLIC	?GetTwoPointDrawer@CGannGridTool@@MAEAAVCTwoPointDrawer@@XZ ; CGannGridTool::GetTwoPointDrawer
PUBLIC	?GetGannDrawer@CGannGridTool@@MBEABVCGannDrawer@@XZ ; CGannGridTool::GetGannDrawer
PUBLIC	?IsDrawing@CFiboTimeDrawer@@$2PPPPPPPM@A@BE_NABVCRect@@ABVCPoint@@@Z ; CFiboTimeDrawer::IsDrawing
PUBLIC	?DrawShape@CFiboTimeDrawer@@$2PPPPPPPM@A@AEXPAVCDC@@ABVCOnePointDrawingData@@ABVCDisplayData@@ABVCPoint@@_N@Z ; CFiboTimeDrawer::DrawShape
PUBLIC	?DrawTextA@CFiboTimeDrawer@@$2PPPPPPPM@A@AEXPAVCDC@@ABVCOnePointDrawingData@@@Z ; CFiboTimeDrawer::DrawTextA
PUBLIC	?GetGripRegion@CVertLineDrawer@@$2PPPPPPPM@BI@AE?AVCRect@@ABV2@ABVCPoint@@@Z ; CVertLineDrawer::GetGripRegion
PUBLIC	??_7COnePointDrawer@@6B@			; COnePointDrawer::`vftable'
PUBLIC	??_7CTwoPointDrawer@@6B@			; CTwoPointDrawer::`vftable'
PUBLIC	??_7CFiboDrawer@@6B@				; CFiboDrawer::`vftable'
PUBLIC	??_7CFiboArcDrawer@@6B@				; CFiboArcDrawer::`vftable'
PUBLIC	??_7CFiboSemicircleDrawer@@6B@			; CFiboSemicircleDrawer::`vftable'
PUBLIC	??_8CFiboSemicircleDrawer@@7B@			; CFiboSemicircleDrawer::`vbtable'
PUBLIC	??_7CFiboCircleDrawer@@6B@			; CFiboCircleDrawer::`vftable'
PUBLIC	??_8CFiboCircleDrawer@@7B@			; CFiboCircleDrawer::`vbtable'
PUBLIC	??_7CFiboPenLineDrawer@@6B@			; CFiboPenLineDrawer::`vftable'
PUBLIC	??_8CFiboPenLineDrawer@@7B@			; CFiboPenLineDrawer::`vbtable'
PUBLIC	??_7CFiboRetraceDrawer@@6B@			; CFiboRetraceDrawer::`vftable'
PUBLIC	??_8CFiboRetraceDrawer@@7B@			; CFiboRetraceDrawer::`vbtable'
PUBLIC	??_7CFiboTimeDrawer@@6B@			; CFiboTimeDrawer::`vftable'
PUBLIC	??_8CFiboTimeDrawer@@7BCVertLineDrawer@@@	; CFiboTimeDrawer::`vbtable'
PUBLIC	??_8CFiboTimeDrawer@@7BCOnePointDrawer@@@	; CFiboTimeDrawer::`vbtable'
PUBLIC	??_7CGannDrawer@@6B@				; CGannDrawer::`vftable'
PUBLIC	??_7CGannLineDrawer@@6B@			; CGannLineDrawer::`vftable'
PUBLIC	??_8CGannLineDrawer@@7B@			; CGannLineDrawer::`vbtable'
PUBLIC	??_7CGannFanDrawer@@6B@				; CGannFanDrawer::`vftable'
PUBLIC	??_8CGannFanDrawer@@7B@				; CGannFanDrawer::`vbtable'
PUBLIC	??_7CGannGridDrawer@@6B@			; CGannGridDrawer::`vftable'
PUBLIC	??_8CGannGridDrawer@@7B@			; CGannGridDrawer::`vbtable'
PUBLIC	??_7CFiboSemicircleTool@@6B@			; CFiboSemicircleTool::`vftable'
PUBLIC	??_7CFiboCircleTool@@6B@			; CFiboCircleTool::`vftable'
PUBLIC	??_7CFiboPenLineTool@@6B@			; CFiboPenLineTool::`vftable'
PUBLIC	??_7CFiboRetraceTool@@6B@			; CFiboRetraceTool::`vftable'
PUBLIC	??_7CFiboTimeTool@@6B@				; CFiboTimeTool::`vftable'
PUBLIC	??_7CGannTool@@6B@				; CGannTool::`vftable'
PUBLIC	??_7CGannLineTool@@6B@				; CGannLineTool::`vftable'
PUBLIC	??_7CGannLine45Tool@@6B@			; CGannLine45Tool::`vftable'
PUBLIC	??_7CGannLine315Tool@@6B@			; CGannLine315Tool::`vftable'
PUBLIC	??_7CGannFanTool@@6B@				; CGannFanTool::`vftable'
PUBLIC	??_7CGannFan45Tool@@6B@				; CGannFan45Tool::`vftable'
PUBLIC	??_7CGannFan135Tool@@6B@			; CGannFan135Tool::`vftable'
PUBLIC	??_7CGannFan225Tool@@6B@			; CGannFan225Tool::`vftable'
PUBLIC	??_7CGannFan315Tool@@6B@			; CGannFan315Tool::`vftable'
PUBLIC	??_7CGannGridTool@@6B@				; CGannGridTool::`vftable'
PUBLIC	??_R4COnePointDrawer@@6B@			; COnePointDrawer::`RTTI Complete Object Locator'
PUBLIC	??_R0?AVCOnePointDrawer@@@8			; COnePointDrawer `RTTI Type Descriptor'
PUBLIC	??_R3COnePointDrawer@@8				; COnePointDrawer::`RTTI Class Hierarchy Descriptor'
PUBLIC	??_R2COnePointDrawer@@8				; COnePointDrawer::`RTTI Base Class Array'
PUBLIC	??_R1A@?0A@EA@COnePointDrawer@@8		; COnePointDrawer::`RTTI Base Class Descriptor at (0,-1,0,64)'
PUBLIC	??_R1A@33FA@CDrawer@@8				; CDrawer::`RTTI Base Class Descriptor at (0,4,4,80)'
PUBLIC	??_R0?AVCDrawer@@@8				; CDrawer `RTTI Type Descriptor'
PUBLIC	??_R3CDrawer@@8					; CDrawer::`RTTI Class Hierarchy Descriptor'
PUBLIC	??_R2CDrawer@@8					; CDrawer::`RTTI Base Class Array'
PUBLIC	??_R1A@?0A@EA@CDrawer@@8			; CDrawer::`RTTI Base Class Descriptor at (0,-1,0,64)'
PUBLIC	??_R4CTwoPointDrawer@@6B@			; CTwoPointDrawer::`RTTI Complete Object Locator'
PUBLIC	??_R0?AVCTwoPointDrawer@@@8			; CTwoPointDrawer `RTTI Type Descriptor'
PUBLIC	??_R3CTwoPointDrawer@@8				; CTwoPointDrawer::`RTTI Class Hierarchy Descriptor'
PUBLIC	??_R2CTwoPointDrawer@@8				; CTwoPointDrawer::`RTTI Base Class Array'
PUBLIC	??_R1A@?0A@EA@CTwoPointDrawer@@8		; CTwoPointDrawer::`RTTI Base Class Descriptor at (0,-1,0,64)'
PUBLIC	??_R4CFiboDrawer@@6B@				; CFiboDrawer::`RTTI Complete Object Locator'
PUBLIC	??_R0?AVCFiboDrawer@@@8				; CFiboDrawer `RTTI Type Descriptor'
PUBLIC	??_R3CFiboDrawer@@8				; CFiboDrawer::`RTTI Class Hierarchy Descriptor'
PUBLIC	??_R2CFiboDrawer@@8				; CFiboDrawer::`RTTI Base Class Array'
PUBLIC	??_R1A@?0A@EA@CFiboDrawer@@8			; CFiboDrawer::`RTTI Base Class Descriptor at (0,-1,0,64)'
PUBLIC	??_R4CFiboArcDrawer@@6B@			; CFiboArcDrawer::`RTTI Complete Object Locator'
PUBLIC	??_R0?AVCFiboArcDrawer@@@8			; CFiboArcDrawer `RTTI Type Descriptor'
PUBLIC	??_R3CFiboArcDrawer@@8				; CFiboArcDrawer::`RTTI Class Hierarchy Descriptor'
PUBLIC	??_R2CFiboArcDrawer@@8				; CFiboArcDrawer::`RTTI Base Class Array'
PUBLIC	??_R1A@?0A@EA@CFiboArcDrawer@@8			; CFiboArcDrawer::`RTTI Base Class Descriptor at (0,-1,0,64)'
PUBLIC	??_R4CFiboSemicircleDrawer@@6B@			; CFiboSemicircleDrawer::`RTTI Complete Object Locator'
PUBLIC	??_R0?AVCFiboSemicircleDrawer@@@8		; CFiboSemicircleDrawer `RTTI Type Descriptor'
PUBLIC	??_R3CFiboSemicircleDrawer@@8			; CFiboSemicircleDrawer::`RTTI Class Hierarchy Descriptor'
PUBLIC	??_R2CFiboSemicircleDrawer@@8			; CFiboSemicircleDrawer::`RTTI Base Class Array'
PUBLIC	??_R1A@?0A@EA@CFiboSemicircleDrawer@@8		; CFiboSemicircleDrawer::`RTTI Base Class Descriptor at (0,-1,0,64)'
PUBLIC	??_R4CFiboCircleDrawer@@6B@			; CFiboCircleDrawer::`RTTI Complete Object Locator'
PUBLIC	??_R0?AVCFiboCircleDrawer@@@8			; CFiboCircleDrawer `RTTI Type Descriptor'
PUBLIC	??_R3CFiboCircleDrawer@@8			; CFiboCircleDrawer::`RTTI Class Hierarchy Descriptor'
PUBLIC	??_R2CFiboCircleDrawer@@8			; CFiboCircleDrawer::`RTTI Base Class Array'
PUBLIC	??_R1A@?0A@EA@CFiboCircleDrawer@@8		; CFiboCircleDrawer::`RTTI Base Class Descriptor at (0,-1,0,64)'
PUBLIC	??_R4CFiboPenLineDrawer@@6B@			; CFiboPenLineDrawer::`RTTI Complete Object Locator'
PUBLIC	??_R0?AVCFiboPenLineDrawer@@@8			; CFiboPenLineDrawer `RTTI Type Descriptor'
PUBLIC	??_R3CFiboPenLineDrawer@@8			; CFiboPenLineDrawer::`RTTI Class Hierarchy Descriptor'
PUBLIC	??_R2CFiboPenLineDrawer@@8			; CFiboPenLineDrawer::`RTTI Base Class Array'
PUBLIC	??_R1A@?0A@EA@CFiboPenLineDrawer@@8		; CFiboPenLineDrawer::`RTTI Base Class Descriptor at (0,-1,0,64)'
PUBLIC	??_R4CFiboRetraceDrawer@@6B@			; CFiboRetraceDrawer::`RTTI Complete Object Locator'
PUBLIC	??_R0?AVCFiboRetraceDrawer@@@8			; CFiboRetraceDrawer `RTTI Type Descriptor'
PUBLIC	??_R3CFiboRetraceDrawer@@8			; CFiboRetraceDrawer::`RTTI Class Hierarchy Descriptor'
PUBLIC	??_R2CFiboRetraceDrawer@@8			; CFiboRetraceDrawer::`RTTI Base Class Array'
PUBLIC	??_R1A@?0A@EA@CFiboRetraceDrawer@@8		; CFiboRetraceDrawer::`RTTI Base Class Descriptor at (0,-1,0,64)'
PUBLIC	??_R4CFiboTimeDrawer@@6B@			; CFiboTimeDrawer::`RTTI Complete Object Locator'
PUBLIC	??_R0?AVCFiboTimeDrawer@@@8			; CFiboTimeDrawer `RTTI Type Descriptor'
PUBLIC	??_R3CFiboTimeDrawer@@8				; CFiboTimeDrawer::`RTTI Class Hierarchy Descriptor'
PUBLIC	??_R2CFiboTimeDrawer@@8				; CFiboTimeDrawer::`RTTI Base Class Array'
PUBLIC	??_R1A@?0A@EA@CFiboTimeDrawer@@8		; CFiboTimeDrawer::`RTTI Base Class Descriptor at (0,-1,0,64)'
PUBLIC	??_R1A@?0A@EA@CVertLineDrawer@@8		; CVertLineDrawer::`RTTI Base Class Descriptor at (0,-1,0,64)'
PUBLIC	??_R0?AVCVertLineDrawer@@@8			; CVertLineDrawer `RTTI Type Descriptor'
PUBLIC	??_R3CVertLineDrawer@@8				; CVertLineDrawer::`RTTI Class Hierarchy Descriptor'
PUBLIC	??_R2CVertLineDrawer@@8				; CVertLineDrawer::`RTTI Base Class Array'
PUBLIC	??_R1A@A@7FA@COnePointDrawer@@8			; COnePointDrawer::`RTTI Base Class Descriptor at (0,0,8,80)'
PUBLIC	??_R1A@A@3FA@CDrawer@@8				; CDrawer::`RTTI Base Class Descriptor at (0,0,4,80)'
PUBLIC	??_R4CGannDrawer@@6B@				; CGannDrawer::`RTTI Complete Object Locator'
PUBLIC	??_R0?AVCGannDrawer@@@8				; CGannDrawer `RTTI Type Descriptor'
PUBLIC	??_R3CGannDrawer@@8				; CGannDrawer::`RTTI Class Hierarchy Descriptor'
PUBLIC	??_R2CGannDrawer@@8				; CGannDrawer::`RTTI Base Class Array'
PUBLIC	??_R1A@?0A@EA@CGannDrawer@@8			; CGannDrawer::`RTTI Base Class Descriptor at (0,-1,0,64)'
PUBLIC	??_R4CGannLineDrawer@@6B@			; CGannLineDrawer::`RTTI Complete Object Locator'
PUBLIC	??_R0?AVCGannLineDrawer@@@8			; CGannLineDrawer `RTTI Type Descriptor'
PUBLIC	??_R3CGannLineDrawer@@8				; CGannLineDrawer::`RTTI Class Hierarchy Descriptor'
PUBLIC	??_R2CGannLineDrawer@@8				; CGannLineDrawer::`RTTI Base Class Array'
PUBLIC	??_R1A@?0A@EA@CGannLineDrawer@@8		; CGannLineDrawer::`RTTI Base Class Descriptor at (0,-1,0,64)'
PUBLIC	??_R4CGannFanDrawer@@6B@			; CGannFanDrawer::`RTTI Complete Object Locator'
PUBLIC	??_R0?AVCGannFanDrawer@@@8			; CGannFanDrawer `RTTI Type Descriptor'
PUBLIC	??_R3CGannFanDrawer@@8				; CGannFanDrawer::`RTTI Class Hierarchy Descriptor'
PUBLIC	??_R2CGannFanDrawer@@8				; CGannFanDrawer::`RTTI Base Class Array'
PUBLIC	??_R1A@?0A@EA@CGannFanDrawer@@8			; CGannFanDrawer::`RTTI Base Class Descriptor at (0,-1,0,64)'
PUBLIC	??_R4CGannGridDrawer@@6B@			; CGannGridDrawer::`RTTI Complete Object Locator'
PUBLIC	??_R0?AVCGannGridDrawer@@@8			; CGannGridDrawer `RTTI Type Descriptor'
PUBLIC	??_R3CGannGridDrawer@@8				; CGannGridDrawer::`RTTI Class Hierarchy Descriptor'
PUBLIC	??_R2CGannGridDrawer@@8				; CGannGridDrawer::`RTTI Base Class Array'
PUBLIC	??_R1A@?0A@EA@CGannGridDrawer@@8		; CGannGridDrawer::`RTTI Base Class Descriptor at (0,-1,0,64)'
PUBLIC	??_R4CFiboSemicircleTool@@6B@			; CFiboSemicircleTool::`RTTI Complete Object Locator'
PUBLIC	??_R0?AVCFiboSemicircleTool@@@8			; CFiboSemicircleTool `RTTI Type Descriptor'
PUBLIC	??_R3CFiboSemicircleTool@@8			; CFiboSemicircleTool::`RTTI Class Hierarchy Descriptor'
PUBLIC	??_R2CFiboSemicircleTool@@8			; CFiboSemicircleTool::`RTTI Base Class Array'
PUBLIC	??_R1A@?0A@EA@CFiboSemicircleTool@@8		; CFiboSemicircleTool::`RTTI Base Class Descriptor at (0,-1,0,64)'
PUBLIC	??_R1A@?0A@EA@CTwoPointDownTool@@8		; CTwoPointDownTool::`RTTI Base Class Descriptor at (0,-1,0,64)'
PUBLIC	??_R0?AVCTwoPointDownTool@@@8			; CTwoPointDownTool `RTTI Type Descriptor'
PUBLIC	??_R3CTwoPointDownTool@@8			; CTwoPointDownTool::`RTTI Class Hierarchy Descriptor'
PUBLIC	??_R2CTwoPointDownTool@@8			; CTwoPointDownTool::`RTTI Base Class Array'
PUBLIC	??_R1A@?0A@EA@COneOrTwoPointTool@@8		; COneOrTwoPointTool::`RTTI Base Class Descriptor at (0,-1,0,64)'
PUBLIC	??_R0?AVCOneOrTwoPointTool@@@8			; COneOrTwoPointTool `RTTI Type Descriptor'
PUBLIC	??_R3COneOrTwoPointTool@@8			; COneOrTwoPointTool::`RTTI Class Hierarchy Descriptor'
PUBLIC	??_R2COneOrTwoPointTool@@8			; COneOrTwoPointTool::`RTTI Base Class Array'
PUBLIC	??_R1A@?0A@EA@CDownTool@@8			; CDownTool::`RTTI Base Class Descriptor at (0,-1,0,64)'
PUBLIC	??_R0?AVCDownTool@@@8				; CDownTool `RTTI Type Descriptor'
PUBLIC	??_R3CDownTool@@8				; CDownTool::`RTTI Class Hierarchy Descriptor'
PUBLIC	??_R2CDownTool@@8				; CDownTool::`RTTI Base Class Array'
PUBLIC	??_R1A@?0A@EA@CTool@@8				; CTool::`RTTI Base Class Descriptor at (0,-1,0,64)'
PUBLIC	??_R0?AVCTool@@@8				; CTool `RTTI Type Descriptor'
PUBLIC	??_R3CTool@@8					; CTool::`RTTI Class Hierarchy Descriptor'
PUBLIC	??_R2CTool@@8					; CTool::`RTTI Base Class Array'
PUBLIC	??_R4CFiboCircleTool@@6B@			; CFiboCircleTool::`RTTI Complete Object Locator'
PUBLIC	??_R0?AVCFiboCircleTool@@@8			; CFiboCircleTool `RTTI Type Descriptor'
PUBLIC	??_R3CFiboCircleTool@@8				; CFiboCircleTool::`RTTI Class Hierarchy Descriptor'
PUBLIC	??_R2CFiboCircleTool@@8				; CFiboCircleTool::`RTTI Base Class Array'
PUBLIC	??_R1A@?0A@EA@CFiboCircleTool@@8		; CFiboCircleTool::`RTTI Base Class Descriptor at (0,-1,0,64)'
PUBLIC	??_R4CFiboPenLineTool@@6B@			; CFiboPenLineTool::`RTTI Complete Object Locator'
PUBLIC	??_R0?AVCFiboPenLineTool@@@8			; CFiboPenLineTool `RTTI Type Descriptor'
PUBLIC	??_R3CFiboPenLineTool@@8			; CFiboPenLineTool::`RTTI Class Hierarchy Descriptor'
PUBLIC	??_R2CFiboPenLineTool@@8			; CFiboPenLineTool::`RTTI Base Class Array'
PUBLIC	??_R1A@?0A@EA@CFiboPenLineTool@@8		; CFiboPenLineTool::`RTTI Base Class Descriptor at (0,-1,0,64)'
PUBLIC	??_R4CFiboRetraceTool@@6B@			; CFiboRetraceTool::`RTTI Complete Object Locator'
PUBLIC	??_R0?AVCFiboRetraceTool@@@8			; CFiboRetraceTool `RTTI Type Descriptor'
PUBLIC	??_R3CFiboRetraceTool@@8			; CFiboRetraceTool::`RTTI Class Hierarchy Descriptor'
PUBLIC	??_R2CFiboRetraceTool@@8			; CFiboRetraceTool::`RTTI Base Class Array'
PUBLIC	??_R1A@?0A@EA@CFiboRetraceTool@@8		; CFiboRetraceTool::`RTTI Base Class Descriptor at (0,-1,0,64)'
PUBLIC	??_R4CFiboTimeTool@@6B@				; CFiboTimeTool::`RTTI Complete Object Locator'
PUBLIC	??_R0?AVCFiboTimeTool@@@8			; CFiboTimeTool `RTTI Type Descriptor'
PUBLIC	??_R3CFiboTimeTool@@8				; CFiboTimeTool::`RTTI Class Hierarchy Descriptor'
PUBLIC	??_R2CFiboTimeTool@@8				; CFiboTimeTool::`RTTI Base Class Array'
PUBLIC	??_R1A@?0A@EA@CFiboTimeTool@@8			; CFiboTimeTool::`RTTI Base Class Descriptor at (0,-1,0,64)'
PUBLIC	??_R1A@?0A@EA@COnePointMoveTool@@8		; COnePointMoveTool::`RTTI Base Class Descriptor at (0,-1,0,64)'
PUBLIC	??_R0?AVCOnePointMoveTool@@@8			; COnePointMoveTool `RTTI Type Descriptor'
PUBLIC	??_R3COnePointMoveTool@@8			; COnePointMoveTool::`RTTI Class Hierarchy Descriptor'
PUBLIC	??_R2COnePointMoveTool@@8			; COnePointMoveTool::`RTTI Base Class Array'
PUBLIC	??_R1A@?0A@EA@CMoveTool@@8			; CMoveTool::`RTTI Base Class Descriptor at (0,-1,0,64)'
PUBLIC	??_R0?AVCMoveTool@@@8				; CMoveTool `RTTI Type Descriptor'
PUBLIC	??_R3CMoveTool@@8				; CMoveTool::`RTTI Class Hierarchy Descriptor'
PUBLIC	??_R2CMoveTool@@8				; CMoveTool::`RTTI Base Class Array'
PUBLIC	??_R4CGannTool@@6B@				; CGannTool::`RTTI Complete Object Locator'
PUBLIC	??_R0?AVCGannTool@@@8				; CGannTool `RTTI Type Descriptor'
PUBLIC	??_R3CGannTool@@8				; CGannTool::`RTTI Class Hierarchy Descriptor'
PUBLIC	??_R2CGannTool@@8				; CGannTool::`RTTI Base Class Array'
PUBLIC	??_R1A@?0A@EA@CGannTool@@8			; CGannTool::`RTTI Base Class Descriptor at (0,-1,0,64)'
PUBLIC	??_R1A@?0A@EA@CTwoPointMoveTool@@8		; CTwoPointMoveTool::`RTTI Base Class Descriptor at (0,-1,0,64)'
PUBLIC	??_R0?AVCTwoPointMoveTool@@@8			; CTwoPointMoveTool `RTTI Type Descriptor'
PUBLIC	??_R3CTwoPointMoveTool@@8			; CTwoPointMoveTool::`RTTI Class Hierarchy Descriptor'
PUBLIC	??_R2CTwoPointMoveTool@@8			; CTwoPointMoveTool::`RTTI Base Class Array'
PUBLIC	??_R4CGannLineTool@@6B@				; CGannLineTool::`RTTI Complete Object Locator'
PUBLIC	??_R0?AVCGannLineTool@@@8			; CGannLineTool `RTTI Type Descriptor'
PUBLIC	??_R3CGannLineTool@@8				; CGannLineTool::`RTTI Class Hierarchy Descriptor'
PUBLIC	??_R2CGannLineTool@@8				; CGannLineTool::`RTTI Base Class Array'
PUBLIC	??_R1A@?0A@EA@CGannLineTool@@8			; CGannLineTool::`RTTI Base Class Descriptor at (0,-1,0,64)'
PUBLIC	??_R4CGannLine45Tool@@6B@			; CGannLine45Tool::`RTTI Complete Object Locator'
PUBLIC	??_R0?AVCGannLine45Tool@@@8			; CGannLine45Tool `RTTI Type Descriptor'
PUBLIC	??_R3CGannLine45Tool@@8				; CGannLine45Tool::`RTTI Class Hierarchy Descriptor'
PUBLIC	??_R2CGannLine45Tool@@8				; CGannLine45Tool::`RTTI Base Class Array'
PUBLIC	??_R1A@?0A@EA@CGannLine45Tool@@8		; CGannLine45Tool::`RTTI Base Class Descriptor at (0,-1,0,64)'
PUBLIC	??_R4CGannLine315Tool@@6B@			; CGannLine315Tool::`RTTI Complete Object Locator'
PUBLIC	??_R0?AVCGannLine315Tool@@@8			; CGannLine315Tool `RTTI Type Descriptor'
PUBLIC	??_R3CGannLine315Tool@@8			; CGannLine315Tool::`RTTI Class Hierarchy Descriptor'
PUBLIC	??_R2CGannLine315Tool@@8			; CGannLine315Tool::`RTTI Base Class Array'
PUBLIC	??_R1A@?0A@EA@CGannLine315Tool@@8		; CGannLine315Tool::`RTTI Base Class Descriptor at (0,-1,0,64)'
PUBLIC	??_R4CGannFanTool@@6B@				; CGannFanTool::`RTTI Complete Object Locator'
PUBLIC	??_R0?AVCGannFanTool@@@8			; CGannFanTool `RTTI Type Descriptor'
PUBLIC	??_R3CGannFanTool@@8				; CGannFanTool::`RTTI Class Hierarchy Descriptor'
PUBLIC	??_R2CGannFanTool@@8				; CGannFanTool::`RTTI Base Class Array'
PUBLIC	??_R1A@?0A@EA@CGannFanTool@@8			; CGannFanTool::`RTTI Base Class Descriptor at (0,-1,0,64)'
PUBLIC	??_R4CGannFan45Tool@@6B@			; CGannFan45Tool::`RTTI Complete Object Locator'
PUBLIC	??_R0?AVCGannFan45Tool@@@8			; CGannFan45Tool `RTTI Type Descriptor'
PUBLIC	??_R3CGannFan45Tool@@8				; CGannFan45Tool::`RTTI Class Hierarchy Descriptor'
PUBLIC	??_R2CGannFan45Tool@@8				; CGannFan45Tool::`RTTI Base Class Array'
PUBLIC	??_R1A@?0A@EA@CGannFan45Tool@@8			; CGannFan45Tool::`RTTI Base Class Descriptor at (0,-1,0,64)'
PUBLIC	??_R4CGannFan135Tool@@6B@			; CGannFan135Tool::`RTTI Complete Object Locator'
PUBLIC	??_R0?AVCGannFan135Tool@@@8			; CGannFan135Tool `RTTI Type Descriptor'
PUBLIC	??_R3CGannFan135Tool@@8				; CGannFan135Tool::`RTTI Class Hierarchy Descriptor'
PUBLIC	??_R2CGannFan135Tool@@8				; CGannFan135Tool::`RTTI Base Class Array'
PUBLIC	??_R1A@?0A@EA@CGannFan135Tool@@8		; CGannFan135Tool::`RTTI Base Class Descriptor at (0,-1,0,64)'
PUBLIC	??_R4CGannFan225Tool@@6B@			; CGannFan225Tool::`RTTI Complete Object Locator'
PUBLIC	??_R0?AVCGannFan225Tool@@@8			; CGannFan225Tool `RTTI Type Descriptor'
PUBLIC	??_R3CGannFan225Tool@@8				; CGannFan225Tool::`RTTI Class Hierarchy Descriptor'
PUBLIC	??_R2CGannFan225Tool@@8				; CGannFan225Tool::`RTTI Base Class Array'
PUBLIC	??_R1A@?0A@EA@CGannFan225Tool@@8		; CGannFan225Tool::`RTTI Base Class Descriptor at (0,-1,0,64)'
PUBLIC	??_R4CGannFan315Tool@@6B@			; CGannFan315Tool::`RTTI Complete Object Locator'
PUBLIC	??_R0?AVCGannFan315Tool@@@8			; CGannFan315Tool `RTTI Type Descriptor'
PUBLIC	??_R3CGannFan315Tool@@8				; CGannFan315Tool::`RTTI Class Hierarchy Descriptor'
PUBLIC	??_R2CGannFan315Tool@@8				; CGannFan315Tool::`RTTI Base Class Array'
PUBLIC	??_R1A@?0A@EA@CGannFan315Tool@@8		; CGannFan315Tool::`RTTI Base Class Descriptor at (0,-1,0,64)'
PUBLIC	??_R4CGannGridTool@@6B@				; CGannGridTool::`RTTI Complete Object Locator'
PUBLIC	??_R0?AVCGannGridTool@@@8			; CGannGridTool `RTTI Type Descriptor'
PUBLIC	??_R3CGannGridTool@@8				; CGannGridTool::`RTTI Class Hierarchy Descriptor'
PUBLIC	??_R2CGannGridTool@@8				; CGannGridTool::`RTTI Base Class Array'
PUBLIC	??_R1A@?0A@EA@CGannGridTool@@8			; CGannGridTool::`RTTI Base Class Descriptor at (0,-1,0,64)'
EXTRN	__purecall:PROC
EXTRN	??3@YAXPAXI@Z:PROC				; operator delete
EXTRN	___std_terminate:PROC
EXTRN	__imp___invalid_parameter_noinfo_noreturn:PROC
EXTRN	__imp_??0?$CStringT@DV?$StrTraitMFC_DLL@DV?$ChTraitsCRT@D@ATL@@@@@ATL@@QAE@XZ:PROC
EXTRN	__imp_??1?$CStringT@DV?$StrTraitMFC_DLL@DV?$ChTraitsCRT@D@ATL@@@@@ATL@@QAE@XZ:PROC
EXTRN	??0CDWordArray@@QAE@XZ:PROC			; CDWordArray::CDWordArray
EXTRN	??1CDWordArray@@UAE@XZ:PROC			; CDWordArray::~CDWordArray
EXTRN	??1CObList@@UAE@XZ:PROC				; CObList::~CObList
EXTRN	??0CTextEnvironment@@QAE@ABK@Z:PROC		; CTextEnvironment::CTextEnvironment
EXTRN	??4CTextPosition@@QAEAAV0@ABV0@@Z:PROC		; CTextPosition::operator=
EXTRN	?SetTextEnvironment@CTextPosition@@QAEXABVCTextEnvironment@@@Z:PROC ; CTextPosition::SetTextEnvironment
EXTRN	??0CTextShowPosition@@QAE@ABVCTextEnvironment@@_N@Z:PROC ; CTextShowPosition::CTextShowPosition
EXTRN	?SetShow@CTextShowPosition@@QAEX_N@Z:PROC	; CTextShowPosition::SetShow
EXTRN	?GetDrawingPoint@CPoints@@QBE?AVCPoint@@XZ:PROC	; CPoints::GetDrawingPoint
EXTRN	?SetProcessStarting@CTool@@QAEX_N@Z:PROC	; CTool::SetProcessStarting
EXTRN	?OnRButtonUp@CTool@@UAEXPAVCDC@@ABVCPoint@@@Z:PROC ; CTool::OnRButtonUp
EXTRN	?GetCoordinateCalculator@CTool@@UBEAAVCCoordinateCalculator@@XZ:PROC ; CTool::GetCoordinateCalculator
EXTRN	?GetTextPosition@CTool@@MBEPBVCTextPosition@@XZ:PROC ; CTool::GetTextPosition
EXTRN	?GetTextPosition@CTool@@MAEPAVCTextPosition@@XZ:PROC ; CTool::GetTextPosition
EXTRN	?IsMakeElement@CTool@@MBE_NABVCPoint@@@Z:PROC	; CTool::IsMakeElement
EXTRN	?GetAnalysisData@CTool@@MBEPAVCAnalysisData@@XZ:PROC ; CTool::GetAnalysisData
EXTRN	?Initialize@CMoveTool@@UAEXXZ:PROC		; CMoveTool::Initialize
EXTRN	?OnLButtonDown@CMoveTool@@UAEPAVCElement@@PAVCDC@@ABVCPoint@@@Z:PROC ; CMoveTool::OnLButtonDown
EXTRN	?OnLButtonUp@CMoveTool@@UAEXPAVCDC@@ABVCPoint@@@Z:PROC ; CMoveTool::OnLButtonUp
EXTRN	?OnMouseMove@CMoveTool@@UAE_NPAVCDC@@ABVCPoint@@H@Z:PROC ; CMoveTool::OnMouseMove
EXTRN	?OnDraw@CMoveTool@@UAEXPAVCDC@@@Z:PROC		; CMoveTool::OnDraw
EXTRN	?PointInDrawingRegion@CMoveTool@@MBE_NABVCPoint@@@Z:PROC ; CMoveTool::PointInDrawingRegion
EXTRN	?SavePoints@CMoveTool@@MAEXABVCPoints@@@Z:PROC	; CMoveTool::SavePoints
EXTRN	?GetPoints@CMoveTool@@IBE?AVCPoints@@XZ:PROC	; CMoveTool::GetPoints
EXTRN	??0COnePointMoveTool@@IAE@PAVCAnalysisData@@W4COORDINATETYPE@CAnalysis@@@Z:PROC ; COnePointMoveTool::COnePointMoveTool
EXTRN	?DrawTool@COnePointMoveTool@@MAEXPAVCDC@@@Z:PROC ; COnePointMoveTool::DrawTool
EXTRN	?MakeElement@COnePointMoveTool@@MAEPAVCElement@@ABVCElementCommonEnvironment@@@Z:PROC ; COnePointMoveTool::MakeElement
EXTRN	??0CTwoPointMoveTool@@IAE@PAVCAnalysisData@@W4COORDINATETYPE@CAnalysis@@@Z:PROC ; CTwoPointMoveTool::CTwoPointMoveTool
EXTRN	?DrawTool@CTwoPointMoveTool@@MAEXPAVCDC@@@Z:PROC ; CTwoPointMoveTool::DrawTool
EXTRN	?MakeElement@CTwoPointMoveTool@@MAEPAVCElement@@ABVCElementCommonEnvironment@@@Z:PROC ; CTwoPointMoveTool::MakeElement
EXTRN	?GetPoints@CTwoPointMoveTool@@IBE?AVCPoints@@ABVCPoint@@HH@Z:PROC ; CTwoPointMoveTool::GetPoints
EXTRN	?Initialize@CDownTool@@UAEXXZ:PROC		; CDownTool::Initialize
EXTRN	?OnLButtonUp@COneOrTwoPointTool@@UAEXPAVCDC@@ABVCPoint@@@Z:PROC ; COneOrTwoPointTool::OnLButtonUp
EXTRN	?OnMouseMove@COneOrTwoPointTool@@UAE_NPAVCDC@@ABVCPoint@@H@Z:PROC ; COneOrTwoPointTool::OnMouseMove
EXTRN	?OnDraw@COneOrTwoPointTool@@UAEXPAVCDC@@@Z:PROC	; COneOrTwoPointTool::OnDraw
EXTRN	?SavePoints@COneOrTwoPointTool@@MAEXABVCPoints@@@Z:PROC ; COneOrTwoPointTool::SavePoints
EXTRN	??0CTwoPointDownTool@@IAE@PAVCAnalysisData@@W4COORDINATETYPE@CAnalysis@@@Z:PROC ; CTwoPointDownTool::CTwoPointDownTool
EXTRN	?OnLButtonDown@CTwoPointDownTool@@UAEPAVCElement@@PAVCDC@@ABVCPoint@@@Z:PROC ; CTwoPointDownTool::OnLButtonDown
EXTRN	?PointInDrawingRegion@CTwoPointDownTool@@MBE_NABVCPoint@@@Z:PROC ; CTwoPointDownTool::PointInDrawingRegion
EXTRN	?IsMakeElement@CTwoPointDownTool@@MBE_NABVCPoint@@@Z:PROC ; CTwoPointDownTool::IsMakeElement
EXTRN	?MakeElement@CTwoPointDownTool@@MAEPAVCElement@@ABVCElementCommonEnvironment@@@Z:PROC ; CTwoPointDownTool::MakeElement
EXTRN	?MouseMove@CTwoPointDownTool@@MAE_NPAVCDC@@ABVCPoint@@@Z:PROC ; CTwoPointDownTool::MouseMove
EXTRN	?Draw_UpPoint@CTwoPointDownTool@@MAEXPAVCDC@@@Z:PROC ; CTwoPointDownTool::Draw_UpPoint
EXTRN	?GetDownPoints@CTwoPointDownTool@@IBE?AVCPoints@@XZ:PROC ; CTwoPointDownTool::GetDownPoints
EXTRN	??0CDrawer@@QAE@XZ:PROC				; CDrawer::CDrawer
EXTRN	?DrawShadow@COnePointDrawer@@MAEXPAVCDC@@ABVCDisplayData@@ABVCPoint@@_N@Z:PROC ; COnePointDrawer::DrawShadow
EXTRN	?DrawTextA@COnePointDrawer@@MAEXPAVCDC@@ABVCOnePointDrawingData@@@Z:PROC ; COnePointDrawer::DrawTextA
EXTRN	?IsDrawing@CTwoPointDrawer@@MBE_NABVCRect@@ABVCPoint@@1@Z:PROC ; CTwoPointDrawer::IsDrawing
EXTRN	?DrawShadow@CTwoPointDrawer@@MAEXPAVCDC@@ABVCRect@@ABVCPoint@@2@Z:PROC ; CTwoPointDrawer::DrawShadow
EXTRN	?DrawTextA@CTwoPointDrawer@@MAEXPAVCDC@@ABVCTwoPointDrawingData@@@Z:PROC ; CTwoPointDrawer::DrawTextA
EXTRN	??0CVertLineDrawer@@QAE@XZ:PROC			; CVertLineDrawer::CVertLineDrawer
EXTRN	?GetGripRegion@CVertLineDrawer@@MAE?AVCRect@@ABV2@ABVCPoint@@@Z:PROC ; CVertLineDrawer::GetGripRegion
EXTRN	?DrawShape@CFiboDrawer@@UAEXPAVCDC@@ABVCTwoPointDrawingData@@ABVCPoint@@2@Z:PROC ; CFiboDrawer::DrawShape
EXTRN	?DrawShadow@CFiboDrawer@@UAEXPAVCDC@@ABVCRect@@ABVCPoint@@2@Z:PROC ; CFiboDrawer::DrawShadow
EXTRN	?GetCount@CFiboDrawer@@UBEHXZ:PROC		; CFiboDrawer::GetCount
EXTRN	?GetCoefficient@CFiboDrawer@@MBENH@Z:PROC	; CFiboDrawer::GetCoefficient
EXTRN	?DrawFiboShape@CFiboArcDrawer@@MAE_NPAVCDC@@ABVCRect@@ABVCPoint@@2HHH@Z:PROC ; CFiboArcDrawer::DrawFiboShape
EXTRN	?DrawFiboShape@CFiboArcDrawer@@MAE_NPAVCDC@@HABVCTwoPointDrawingData@@@Z:PROC ; CFiboArcDrawer::DrawFiboShape
EXTRN	?DrawTextA@CFiboSemicircleDrawer@@MAEXPAVCDC@@ABVCTwoPointDrawingData@@@Z:PROC ; CFiboSemicircleDrawer::DrawTextA
EXTRN	?DrawArc@CFiboSemicircleDrawer@@MAEXPAVCDC@@ABVCRect@@HH@Z:PROC ; CFiboSemicircleDrawer::DrawArc
EXTRN	?DrawTextA@CFiboCircleDrawer@@MAEXPAVCDC@@ABVCTwoPointDrawingData@@@Z:PROC ; CFiboCircleDrawer::DrawTextA
EXTRN	?DrawArc@CFiboCircleDrawer@@MAEXPAVCDC@@ABVCRect@@HH@Z:PROC ; CFiboCircleDrawer::DrawArc
EXTRN	?DrawTextA@CFiboPenLineDrawer@@UAEXPAVCDC@@ABVCTwoPointDrawingData@@@Z:PROC ; CFiboPenLineDrawer::DrawTextA
EXTRN	?DrawFiboShape@CFiboPenLineDrawer@@MAE_NPAVCDC@@ABVCRect@@ABVCPoint@@2HHH@Z:PROC ; CFiboPenLineDrawer::DrawFiboShape
EXTRN	?DrawFiboShape@CFiboPenLineDrawer@@MAE_NPAVCDC@@HABVCTwoPointDrawingData@@@Z:PROC ; CFiboPenLineDrawer::DrawFiboShape
EXTRN	?DrawTextA@CFiboRetraceDrawer@@MAEXPAVCDC@@ABVCTwoPointDrawingData@@@Z:PROC ; CFiboRetraceDrawer::DrawTextA
EXTRN	?DrawFiboShape@CFiboRetraceDrawer@@MAE_NPAVCDC@@ABVCRect@@ABVCPoint@@2HHH@Z:PROC ; CFiboRetraceDrawer::DrawFiboShape
EXTRN	?DrawFiboShape@CFiboRetraceDrawer@@MAE_NPAVCDC@@HABVCTwoPointDrawingData@@@Z:PROC ; CFiboRetraceDrawer::DrawFiboShape
EXTRN	?IsDrawing@CFiboTimeDrawer@@MBE_NABVCRect@@ABVCPoint@@@Z:PROC ; CFiboTimeDrawer::IsDrawing
EXTRN	?DrawShape@CFiboTimeDrawer@@MAEXPAVCDC@@ABVCOnePointDrawingData@@ABVCDisplayData@@ABVCPoint@@_N@Z:PROC ; CFiboTimeDrawer::DrawShape
EXTRN	?DrawTextA@CFiboTimeDrawer@@MAEXPAVCDC@@ABVCOnePointDrawingData@@@Z:PROC ; CFiboTimeDrawer::DrawTextA
EXTRN	?DrawShape@CGannDrawer@@UAEXPAVCDC@@ABVCTwoPointDrawingData@@ABVCPoint@@2@Z:PROC ; CGannDrawer::DrawShape
EXTRN	?DrawShape@CGannLineDrawer@@MAEXPAVCDC@@ABVCRect@@ABVCPoint@@2@Z:PROC ; CGannLineDrawer::DrawShape
EXTRN	?DrawTextA@CGannFanDrawer@@MAEXPAVCDC@@ABVCTwoPointDrawingData@@@Z:PROC ; CGannFanDrawer::DrawTextA
EXTRN	?DrawShape@CGannFanDrawer@@MAEXPAVCDC@@ABVCRect@@ABVCPoint@@2@Z:PROC ; CGannFanDrawer::DrawShape
EXTRN	?DrawShape@CGannGridDrawer@@MAEXPAVCDC@@ABVCRect@@ABVCPoint@@2@Z:PROC ; CGannGridDrawer::DrawShape
EXTRN	@__security_check_cookie@4:PROC
EXTRN	___CxxFrameHandler3:PROC
EXTRN	??_7type_info@@6B@:QWORD			; type_info::`vftable'
EXTRN	___security_cookie:DWORD
;	COMDAT ??_R1A@?0A@EA@CGannGridTool@@8
rdata$r	SEGMENT
??_R1A@?0A@EA@CGannGridTool@@8 DD FLAT:??_R0?AVCGannGridTool@@@8 ; CGannGridTool::`RTTI Base Class Descriptor at (0,-1,0,64)'
	DD	04H
	DD	00H
	DD	0ffffffffH
	DD	00H
	DD	040H
	DD	FLAT:??_R3CGannGridTool@@8
rdata$r	ENDS
;	COMDAT ??_R2CGannGridTool@@8
rdata$r	SEGMENT
??_R2CGannGridTool@@8 DD FLAT:??_R1A@?0A@EA@CGannGridTool@@8 ; CGannGridTool::`RTTI Base Class Array'
	DD	FLAT:??_R1A@?0A@EA@CGannTool@@8
	DD	FLAT:??_R1A@?0A@EA@CTwoPointMoveTool@@8
	DD	FLAT:??_R1A@?0A@EA@CMoveTool@@8
	DD	FLAT:??_R1A@?0A@EA@CTool@@8
rdata$r	ENDS
;	COMDAT ??_R3CGannGridTool@@8
rdata$r	SEGMENT
??_R3CGannGridTool@@8 DD 00H				; CGannGridTool::`RTTI Class Hierarchy Descriptor'
	DD	00H
	DD	05H
	DD	FLAT:??_R2CGannGridTool@@8
rdata$r	ENDS
;	COMDAT ??_R0?AVCGannGridTool@@@8
data$rs	SEGMENT
??_R0?AVCGannGridTool@@@8 DD FLAT:??_7type_info@@6B@	; CGannGridTool `RTTI Type Descriptor'
	DD	00H
	DB	'.?AVCGannGridTool@@', 00H
data$rs	ENDS
;	COMDAT ??_R4CGannGridTool@@6B@
rdata$r	SEGMENT
??_R4CGannGridTool@@6B@ DD 00H				; CGannGridTool::`RTTI Complete Object Locator'
	DD	00H
	DD	00H
	DD	FLAT:??_R0?AVCGannGridTool@@@8
	DD	FLAT:??_R3CGannGridTool@@8
rdata$r	ENDS
;	COMDAT ??_R1A@?0A@EA@CGannFan315Tool@@8
rdata$r	SEGMENT
??_R1A@?0A@EA@CGannFan315Tool@@8 DD FLAT:??_R0?AVCGannFan315Tool@@@8 ; CGannFan315Tool::`RTTI Base Class Descriptor at (0,-1,0,64)'
	DD	05H
	DD	00H
	DD	0ffffffffH
	DD	00H
	DD	040H
	DD	FLAT:??_R3CGannFan315Tool@@8
rdata$r	ENDS
;	COMDAT ??_R2CGannFan315Tool@@8
rdata$r	SEGMENT
??_R2CGannFan315Tool@@8 DD FLAT:??_R1A@?0A@EA@CGannFan315Tool@@8 ; CGannFan315Tool::`RTTI Base Class Array'
	DD	FLAT:??_R1A@?0A@EA@CGannFanTool@@8
	DD	FLAT:??_R1A@?0A@EA@CGannTool@@8
	DD	FLAT:??_R1A@?0A@EA@CTwoPointMoveTool@@8
	DD	FLAT:??_R1A@?0A@EA@CMoveTool@@8
	DD	FLAT:??_R1A@?0A@EA@CTool@@8
rdata$r	ENDS
;	COMDAT ??_R3CGannFan315Tool@@8
rdata$r	SEGMENT
??_R3CGannFan315Tool@@8 DD 00H				; CGannFan315Tool::`RTTI Class Hierarchy Descriptor'
	DD	00H
	DD	06H
	DD	FLAT:??_R2CGannFan315Tool@@8
rdata$r	ENDS
;	COMDAT ??_R0?AVCGannFan315Tool@@@8
data$rs	SEGMENT
??_R0?AVCGannFan315Tool@@@8 DD FLAT:??_7type_info@@6B@	; CGannFan315Tool `RTTI Type Descriptor'
	DD	00H
	DB	'.?AVCGannFan315Tool@@', 00H
data$rs	ENDS
;	COMDAT ??_R4CGannFan315Tool@@6B@
rdata$r	SEGMENT
??_R4CGannFan315Tool@@6B@ DD 00H			; CGannFan315Tool::`RTTI Complete Object Locator'
	DD	00H
	DD	00H
	DD	FLAT:??_R0?AVCGannFan315Tool@@@8
	DD	FLAT:??_R3CGannFan315Tool@@8
rdata$r	ENDS
;	COMDAT ??_R1A@?0A@EA@CGannFan225Tool@@8
rdata$r	SEGMENT
??_R1A@?0A@EA@CGannFan225Tool@@8 DD FLAT:??_R0?AVCGannFan225Tool@@@8 ; CGannFan225Tool::`RTTI Base Class Descriptor at (0,-1,0,64)'
	DD	05H
	DD	00H
	DD	0ffffffffH
	DD	00H
	DD	040H
	DD	FLAT:??_R3CGannFan225Tool@@8
rdata$r	ENDS
;	COMDAT ??_R2CGannFan225Tool@@8
rdata$r	SEGMENT
??_R2CGannFan225Tool@@8 DD FLAT:??_R1A@?0A@EA@CGannFan225Tool@@8 ; CGannFan225Tool::`RTTI Base Class Array'
	DD	FLAT:??_R1A@?0A@EA@CGannFanTool@@8
	DD	FLAT:??_R1A@?0A@EA@CGannTool@@8
	DD	FLAT:??_R1A@?0A@EA@CTwoPointMoveTool@@8
	DD	FLAT:??_R1A@?0A@EA@CMoveTool@@8
	DD	FLAT:??_R1A@?0A@EA@CTool@@8
rdata$r	ENDS
;	COMDAT ??_R3CGannFan225Tool@@8
rdata$r	SEGMENT
??_R3CGannFan225Tool@@8 DD 00H				; CGannFan225Tool::`RTTI Class Hierarchy Descriptor'
	DD	00H
	DD	06H
	DD	FLAT:??_R2CGannFan225Tool@@8
rdata$r	ENDS
;	COMDAT ??_R0?AVCGannFan225Tool@@@8
data$rs	SEGMENT
??_R0?AVCGannFan225Tool@@@8 DD FLAT:??_7type_info@@6B@	; CGannFan225Tool `RTTI Type Descriptor'
	DD	00H
	DB	'.?AVCGannFan225Tool@@', 00H
data$rs	ENDS
;	COMDAT ??_R4CGannFan225Tool@@6B@
rdata$r	SEGMENT
??_R4CGannFan225Tool@@6B@ DD 00H			; CGannFan225Tool::`RTTI Complete Object Locator'
	DD	00H
	DD	00H
	DD	FLAT:??_R0?AVCGannFan225Tool@@@8
	DD	FLAT:??_R3CGannFan225Tool@@8
rdata$r	ENDS
;	COMDAT ??_R1A@?0A@EA@CGannFan135Tool@@8
rdata$r	SEGMENT
??_R1A@?0A@EA@CGannFan135Tool@@8 DD FLAT:??_R0?AVCGannFan135Tool@@@8 ; CGannFan135Tool::`RTTI Base Class Descriptor at (0,-1,0,64)'
	DD	05H
	DD	00H
	DD	0ffffffffH
	DD	00H
	DD	040H
	DD	FLAT:??_R3CGannFan135Tool@@8
rdata$r	ENDS
;	COMDAT ??_R2CGannFan135Tool@@8
rdata$r	SEGMENT
??_R2CGannFan135Tool@@8 DD FLAT:??_R1A@?0A@EA@CGannFan135Tool@@8 ; CGannFan135Tool::`RTTI Base Class Array'
	DD	FLAT:??_R1A@?0A@EA@CGannFanTool@@8
	DD	FLAT:??_R1A@?0A@EA@CGannTool@@8
	DD	FLAT:??_R1A@?0A@EA@CTwoPointMoveTool@@8
	DD	FLAT:??_R1A@?0A@EA@CMoveTool@@8
	DD	FLAT:??_R1A@?0A@EA@CTool@@8
rdata$r	ENDS
;	COMDAT ??_R3CGannFan135Tool@@8
rdata$r	SEGMENT
??_R3CGannFan135Tool@@8 DD 00H				; CGannFan135Tool::`RTTI Class Hierarchy Descriptor'
	DD	00H
	DD	06H
	DD	FLAT:??_R2CGannFan135Tool@@8
rdata$r	ENDS
;	COMDAT ??_R0?AVCGannFan135Tool@@@8
data$rs	SEGMENT
??_R0?AVCGannFan135Tool@@@8 DD FLAT:??_7type_info@@6B@	; CGannFan135Tool `RTTI Type Descriptor'
	DD	00H
	DB	'.?AVCGannFan135Tool@@', 00H
data$rs	ENDS
;	COMDAT ??_R4CGannFan135Tool@@6B@
rdata$r	SEGMENT
??_R4CGannFan135Tool@@6B@ DD 00H			; CGannFan135Tool::`RTTI Complete Object Locator'
	DD	00H
	DD	00H
	DD	FLAT:??_R0?AVCGannFan135Tool@@@8
	DD	FLAT:??_R3CGannFan135Tool@@8
rdata$r	ENDS
;	COMDAT ??_R1A@?0A@EA@CGannFan45Tool@@8
rdata$r	SEGMENT
??_R1A@?0A@EA@CGannFan45Tool@@8 DD FLAT:??_R0?AVCGannFan45Tool@@@8 ; CGannFan45Tool::`RTTI Base Class Descriptor at (0,-1,0,64)'
	DD	05H
	DD	00H
	DD	0ffffffffH
	DD	00H
	DD	040H
	DD	FLAT:??_R3CGannFan45Tool@@8
rdata$r	ENDS
;	COMDAT ??_R2CGannFan45Tool@@8
rdata$r	SEGMENT
??_R2CGannFan45Tool@@8 DD FLAT:??_R1A@?0A@EA@CGannFan45Tool@@8 ; CGannFan45Tool::`RTTI Base Class Array'
	DD	FLAT:??_R1A@?0A@EA@CGannFanTool@@8
	DD	FLAT:??_R1A@?0A@EA@CGannTool@@8
	DD	FLAT:??_R1A@?0A@EA@CTwoPointMoveTool@@8
	DD	FLAT:??_R1A@?0A@EA@CMoveTool@@8
	DD	FLAT:??_R1A@?0A@EA@CTool@@8
rdata$r	ENDS
;	COMDAT ??_R3CGannFan45Tool@@8
rdata$r	SEGMENT
??_R3CGannFan45Tool@@8 DD 00H				; CGannFan45Tool::`RTTI Class Hierarchy Descriptor'
	DD	00H
	DD	06H
	DD	FLAT:??_R2CGannFan45Tool@@8
rdata$r	ENDS
;	COMDAT ??_R0?AVCGannFan45Tool@@@8
data$rs	SEGMENT
??_R0?AVCGannFan45Tool@@@8 DD FLAT:??_7type_info@@6B@	; CGannFan45Tool `RTTI Type Descriptor'
	DD	00H
	DB	'.?AVCGannFan45Tool@@', 00H
data$rs	ENDS
;	COMDAT ??_R4CGannFan45Tool@@6B@
rdata$r	SEGMENT
??_R4CGannFan45Tool@@6B@ DD 00H				; CGannFan45Tool::`RTTI Complete Object Locator'
	DD	00H
	DD	00H
	DD	FLAT:??_R0?AVCGannFan45Tool@@@8
	DD	FLAT:??_R3CGannFan45Tool@@8
rdata$r	ENDS
;	COMDAT ??_R1A@?0A@EA@CGannFanTool@@8
rdata$r	SEGMENT
??_R1A@?0A@EA@CGannFanTool@@8 DD FLAT:??_R0?AVCGannFanTool@@@8 ; CGannFanTool::`RTTI Base Class Descriptor at (0,-1,0,64)'
	DD	04H
	DD	00H
	DD	0ffffffffH
	DD	00H
	DD	040H
	DD	FLAT:??_R3CGannFanTool@@8
rdata$r	ENDS
;	COMDAT ??_R2CGannFanTool@@8
rdata$r	SEGMENT
??_R2CGannFanTool@@8 DD FLAT:??_R1A@?0A@EA@CGannFanTool@@8 ; CGannFanTool::`RTTI Base Class Array'
	DD	FLAT:??_R1A@?0A@EA@CGannTool@@8
	DD	FLAT:??_R1A@?0A@EA@CTwoPointMoveTool@@8
	DD	FLAT:??_R1A@?0A@EA@CMoveTool@@8
	DD	FLAT:??_R1A@?0A@EA@CTool@@8
rdata$r	ENDS
;	COMDAT ??_R3CGannFanTool@@8
rdata$r	SEGMENT
??_R3CGannFanTool@@8 DD 00H				; CGannFanTool::`RTTI Class Hierarchy Descriptor'
	DD	00H
	DD	05H
	DD	FLAT:??_R2CGannFanTool@@8
rdata$r	ENDS
;	COMDAT ??_R0?AVCGannFanTool@@@8
data$rs	SEGMENT
??_R0?AVCGannFanTool@@@8 DD FLAT:??_7type_info@@6B@	; CGannFanTool `RTTI Type Descriptor'
	DD	00H
	DB	'.?AVCGannFanTool@@', 00H
data$rs	ENDS
;	COMDAT ??_R4CGannFanTool@@6B@
rdata$r	SEGMENT
??_R4CGannFanTool@@6B@ DD 00H				; CGannFanTool::`RTTI Complete Object Locator'
	DD	00H
	DD	00H
	DD	FLAT:??_R0?AVCGannFanTool@@@8
	DD	FLAT:??_R3CGannFanTool@@8
rdata$r	ENDS
;	COMDAT ??_R1A@?0A@EA@CGannLine315Tool@@8
rdata$r	SEGMENT
??_R1A@?0A@EA@CGannLine315Tool@@8 DD FLAT:??_R0?AVCGannLine315Tool@@@8 ; CGannLine315Tool::`RTTI Base Class Descriptor at (0,-1,0,64)'
	DD	05H
	DD	00H
	DD	0ffffffffH
	DD	00H
	DD	040H
	DD	FLAT:??_R3CGannLine315Tool@@8
rdata$r	ENDS
;	COMDAT ??_R2CGannLine315Tool@@8
rdata$r	SEGMENT
??_R2CGannLine315Tool@@8 DD FLAT:??_R1A@?0A@EA@CGannLine315Tool@@8 ; CGannLine315Tool::`RTTI Base Class Array'
	DD	FLAT:??_R1A@?0A@EA@CGannLineTool@@8
	DD	FLAT:??_R1A@?0A@EA@CGannTool@@8
	DD	FLAT:??_R1A@?0A@EA@CTwoPointMoveTool@@8
	DD	FLAT:??_R1A@?0A@EA@CMoveTool@@8
	DD	FLAT:??_R1A@?0A@EA@CTool@@8
rdata$r	ENDS
;	COMDAT ??_R3CGannLine315Tool@@8
rdata$r	SEGMENT
??_R3CGannLine315Tool@@8 DD 00H				; CGannLine315Tool::`RTTI Class Hierarchy Descriptor'
	DD	00H
	DD	06H
	DD	FLAT:??_R2CGannLine315Tool@@8
rdata$r	ENDS
;	COMDAT ??_R0?AVCGannLine315Tool@@@8
data$rs	SEGMENT
??_R0?AVCGannLine315Tool@@@8 DD FLAT:??_7type_info@@6B@	; CGannLine315Tool `RTTI Type Descriptor'
	DD	00H
	DB	'.?AVCGannLine315Tool@@', 00H
data$rs	ENDS
;	COMDAT ??_R4CGannLine315Tool@@6B@
rdata$r	SEGMENT
??_R4CGannLine315Tool@@6B@ DD 00H			; CGannLine315Tool::`RTTI Complete Object Locator'
	DD	00H
	DD	00H
	DD	FLAT:??_R0?AVCGannLine315Tool@@@8
	DD	FLAT:??_R3CGannLine315Tool@@8
rdata$r	ENDS
;	COMDAT ??_R1A@?0A@EA@CGannLine45Tool@@8
rdata$r	SEGMENT
??_R1A@?0A@EA@CGannLine45Tool@@8 DD FLAT:??_R0?AVCGannLine45Tool@@@8 ; CGannLine45Tool::`RTTI Base Class Descriptor at (0,-1,0,64)'
	DD	05H
	DD	00H
	DD	0ffffffffH
	DD	00H
	DD	040H
	DD	FLAT:??_R3CGannLine45Tool@@8
rdata$r	ENDS
;	COMDAT ??_R2CGannLine45Tool@@8
rdata$r	SEGMENT
??_R2CGannLine45Tool@@8 DD FLAT:??_R1A@?0A@EA@CGannLine45Tool@@8 ; CGannLine45Tool::`RTTI Base Class Array'
	DD	FLAT:??_R1A@?0A@EA@CGannLineTool@@8
	DD	FLAT:??_R1A@?0A@EA@CGannTool@@8
	DD	FLAT:??_R1A@?0A@EA@CTwoPointMoveTool@@8
	DD	FLAT:??_R1A@?0A@EA@CMoveTool@@8
	DD	FLAT:??_R1A@?0A@EA@CTool@@8
rdata$r	ENDS
;	COMDAT ??_R3CGannLine45Tool@@8
rdata$r	SEGMENT
??_R3CGannLine45Tool@@8 DD 00H				; CGannLine45Tool::`RTTI Class Hierarchy Descriptor'
	DD	00H
	DD	06H
	DD	FLAT:??_R2CGannLine45Tool@@8
rdata$r	ENDS
;	COMDAT ??_R0?AVCGannLine45Tool@@@8
data$rs	SEGMENT
??_R0?AVCGannLine45Tool@@@8 DD FLAT:??_7type_info@@6B@	; CGannLine45Tool `RTTI Type Descriptor'
	DD	00H
	DB	'.?AVCGannLine45Tool@@', 00H
data$rs	ENDS
;	COMDAT ??_R4CGannLine45Tool@@6B@
rdata$r	SEGMENT
??_R4CGannLine45Tool@@6B@ DD 00H			; CGannLine45Tool::`RTTI Complete Object Locator'
	DD	00H
	DD	00H
	DD	FLAT:??_R0?AVCGannLine45Tool@@@8
	DD	FLAT:??_R3CGannLine45Tool@@8
rdata$r	ENDS
;	COMDAT ??_R1A@?0A@EA@CGannLineTool@@8
rdata$r	SEGMENT
??_R1A@?0A@EA@CGannLineTool@@8 DD FLAT:??_R0?AVCGannLineTool@@@8 ; CGannLineTool::`RTTI Base Class Descriptor at (0,-1,0,64)'
	DD	04H
	DD	00H
	DD	0ffffffffH
	DD	00H
	DD	040H
	DD	FLAT:??_R3CGannLineTool@@8
rdata$r	ENDS
;	COMDAT ??_R2CGannLineTool@@8
rdata$r	SEGMENT
??_R2CGannLineTool@@8 DD FLAT:??_R1A@?0A@EA@CGannLineTool@@8 ; CGannLineTool::`RTTI Base Class Array'
	DD	FLAT:??_R1A@?0A@EA@CGannTool@@8
	DD	FLAT:??_R1A@?0A@EA@CTwoPointMoveTool@@8
	DD	FLAT:??_R1A@?0A@EA@CMoveTool@@8
	DD	FLAT:??_R1A@?0A@EA@CTool@@8
rdata$r	ENDS
;	COMDAT ??_R3CGannLineTool@@8
rdata$r	SEGMENT
??_R3CGannLineTool@@8 DD 00H				; CGannLineTool::`RTTI Class Hierarchy Descriptor'
	DD	00H
	DD	05H
	DD	FLAT:??_R2CGannLineTool@@8
rdata$r	ENDS
;	COMDAT ??_R0?AVCGannLineTool@@@8
data$rs	SEGMENT
??_R0?AVCGannLineTool@@@8 DD FLAT:??_7type_info@@6B@	; CGannLineTool `RTTI Type Descriptor'
	DD	00H
	DB	'.?AVCGannLineTool@@', 00H
data$rs	ENDS
;	COMDAT ??_R4CGannLineTool@@6B@
rdata$r	SEGMENT
??_R4CGannLineTool@@6B@ DD 00H				; CGannLineTool::`RTTI Complete Object Locator'
	DD	00H
	DD	00H
	DD	FLAT:??_R0?AVCGannLineTool@@@8
	DD	FLAT:??_R3CGannLineTool@@8
rdata$r	ENDS
;	COMDAT ??_R2CTwoPointMoveTool@@8
rdata$r	SEGMENT
??_R2CTwoPointMoveTool@@8 DD FLAT:??_R1A@?0A@EA@CTwoPointMoveTool@@8 ; CTwoPointMoveTool::`RTTI Base Class Array'
	DD	FLAT:??_R1A@?0A@EA@CMoveTool@@8
	DD	FLAT:??_R1A@?0A@EA@CTool@@8
rdata$r	ENDS
;	COMDAT ??_R3CTwoPointMoveTool@@8
rdata$r	SEGMENT
??_R3CTwoPointMoveTool@@8 DD 00H			; CTwoPointMoveTool::`RTTI Class Hierarchy Descriptor'
	DD	00H
	DD	03H
	DD	FLAT:??_R2CTwoPointMoveTool@@8
rdata$r	ENDS
;	COMDAT ??_R0?AVCTwoPointMoveTool@@@8
data$rs	SEGMENT
??_R0?AVCTwoPointMoveTool@@@8 DD FLAT:??_7type_info@@6B@ ; CTwoPointMoveTool `RTTI Type Descriptor'
	DD	00H
	DB	'.?AVCTwoPointMoveTool@@', 00H
data$rs	ENDS
;	COMDAT ??_R1A@?0A@EA@CTwoPointMoveTool@@8
rdata$r	SEGMENT
??_R1A@?0A@EA@CTwoPointMoveTool@@8 DD FLAT:??_R0?AVCTwoPointMoveTool@@@8 ; CTwoPointMoveTool::`RTTI Base Class Descriptor at (0,-1,0,64)'
	DD	02H
	DD	00H
	DD	0ffffffffH
	DD	00H
	DD	040H
	DD	FLAT:??_R3CTwoPointMoveTool@@8
rdata$r	ENDS
;	COMDAT ??_R1A@?0A@EA@CGannTool@@8
rdata$r	SEGMENT
??_R1A@?0A@EA@CGannTool@@8 DD FLAT:??_R0?AVCGannTool@@@8 ; CGannTool::`RTTI Base Class Descriptor at (0,-1,0,64)'
	DD	03H
	DD	00H
	DD	0ffffffffH
	DD	00H
	DD	040H
	DD	FLAT:??_R3CGannTool@@8
rdata$r	ENDS
;	COMDAT ??_R2CGannTool@@8
rdata$r	SEGMENT
??_R2CGannTool@@8 DD FLAT:??_R1A@?0A@EA@CGannTool@@8	; CGannTool::`RTTI Base Class Array'
	DD	FLAT:??_R1A@?0A@EA@CTwoPointMoveTool@@8
	DD	FLAT:??_R1A@?0A@EA@CMoveTool@@8
	DD	FLAT:??_R1A@?0A@EA@CTool@@8
rdata$r	ENDS
;	COMDAT ??_R3CGannTool@@8
rdata$r	SEGMENT
??_R3CGannTool@@8 DD 00H				; CGannTool::`RTTI Class Hierarchy Descriptor'
	DD	00H
	DD	04H
	DD	FLAT:??_R2CGannTool@@8
rdata$r	ENDS
;	COMDAT ??_R0?AVCGannTool@@@8
data$rs	SEGMENT
??_R0?AVCGannTool@@@8 DD FLAT:??_7type_info@@6B@	; CGannTool `RTTI Type Descriptor'
	DD	00H
	DB	'.?AVCGannTool@@', 00H
data$rs	ENDS
;	COMDAT ??_R4CGannTool@@6B@
rdata$r	SEGMENT
??_R4CGannTool@@6B@ DD 00H				; CGannTool::`RTTI Complete Object Locator'
	DD	00H
	DD	00H
	DD	FLAT:??_R0?AVCGannTool@@@8
	DD	FLAT:??_R3CGannTool@@8
rdata$r	ENDS
;	COMDAT ??_R2CMoveTool@@8
rdata$r	SEGMENT
??_R2CMoveTool@@8 DD FLAT:??_R1A@?0A@EA@CMoveTool@@8	; CMoveTool::`RTTI Base Class Array'
	DD	FLAT:??_R1A@?0A@EA@CTool@@8
rdata$r	ENDS
;	COMDAT ??_R3CMoveTool@@8
rdata$r	SEGMENT
??_R3CMoveTool@@8 DD 00H				; CMoveTool::`RTTI Class Hierarchy Descriptor'
	DD	00H
	DD	02H
	DD	FLAT:??_R2CMoveTool@@8
rdata$r	ENDS
;	COMDAT ??_R0?AVCMoveTool@@@8
data$rs	SEGMENT
??_R0?AVCMoveTool@@@8 DD FLAT:??_7type_info@@6B@	; CMoveTool `RTTI Type Descriptor'
	DD	00H
	DB	'.?AVCMoveTool@@', 00H
data$rs	ENDS
;	COMDAT ??_R1A@?0A@EA@CMoveTool@@8
rdata$r	SEGMENT
??_R1A@?0A@EA@CMoveTool@@8 DD FLAT:??_R0?AVCMoveTool@@@8 ; CMoveTool::`RTTI Base Class Descriptor at (0,-1,0,64)'
	DD	01H
	DD	00H
	DD	0ffffffffH
	DD	00H
	DD	040H
	DD	FLAT:??_R3CMoveTool@@8
rdata$r	ENDS
;	COMDAT ??_R2COnePointMoveTool@@8
rdata$r	SEGMENT
??_R2COnePointMoveTool@@8 DD FLAT:??_R1A@?0A@EA@COnePointMoveTool@@8 ; COnePointMoveTool::`RTTI Base Class Array'
	DD	FLAT:??_R1A@?0A@EA@CMoveTool@@8
	DD	FLAT:??_R1A@?0A@EA@CTool@@8
rdata$r	ENDS
;	COMDAT ??_R3COnePointMoveTool@@8
rdata$r	SEGMENT
??_R3COnePointMoveTool@@8 DD 00H			; COnePointMoveTool::`RTTI Class Hierarchy Descriptor'
	DD	00H
	DD	03H
	DD	FLAT:??_R2COnePointMoveTool@@8
rdata$r	ENDS
;	COMDAT ??_R0?AVCOnePointMoveTool@@@8
data$rs	SEGMENT
??_R0?AVCOnePointMoveTool@@@8 DD FLAT:??_7type_info@@6B@ ; COnePointMoveTool `RTTI Type Descriptor'
	DD	00H
	DB	'.?AVCOnePointMoveTool@@', 00H
data$rs	ENDS
;	COMDAT ??_R1A@?0A@EA@COnePointMoveTool@@8
rdata$r	SEGMENT
??_R1A@?0A@EA@COnePointMoveTool@@8 DD FLAT:??_R0?AVCOnePointMoveTool@@@8 ; COnePointMoveTool::`RTTI Base Class Descriptor at (0,-1,0,64)'
	DD	02H
	DD	00H
	DD	0ffffffffH
	DD	00H
	DD	040H
	DD	FLAT:??_R3COnePointMoveTool@@8
rdata$r	ENDS
;	COMDAT ??_R1A@?0A@EA@CFiboTimeTool@@8
rdata$r	SEGMENT
??_R1A@?0A@EA@CFiboTimeTool@@8 DD FLAT:??_R0?AVCFiboTimeTool@@@8 ; CFiboTimeTool::`RTTI Base Class Descriptor at (0,-1,0,64)'
	DD	03H
	DD	00H
	DD	0ffffffffH
	DD	00H
	DD	040H
	DD	FLAT:??_R3CFiboTimeTool@@8
rdata$r	ENDS
;	COMDAT ??_R2CFiboTimeTool@@8
rdata$r	SEGMENT
??_R2CFiboTimeTool@@8 DD FLAT:??_R1A@?0A@EA@CFiboTimeTool@@8 ; CFiboTimeTool::`RTTI Base Class Array'
	DD	FLAT:??_R1A@?0A@EA@COnePointMoveTool@@8
	DD	FLAT:??_R1A@?0A@EA@CMoveTool@@8
	DD	FLAT:??_R1A@?0A@EA@CTool@@8
rdata$r	ENDS
;	COMDAT ??_R3CFiboTimeTool@@8
rdata$r	SEGMENT
??_R3CFiboTimeTool@@8 DD 00H				; CFiboTimeTool::`RTTI Class Hierarchy Descriptor'
	DD	00H
	DD	04H
	DD	FLAT:??_R2CFiboTimeTool@@8
rdata$r	ENDS
;	COMDAT ??_R0?AVCFiboTimeTool@@@8
data$rs	SEGMENT
??_R0?AVCFiboTimeTool@@@8 DD FLAT:??_7type_info@@6B@	; CFiboTimeTool `RTTI Type Descriptor'
	DD	00H
	DB	'.?AVCFiboTimeTool@@', 00H
data$rs	ENDS
;	COMDAT ??_R4CFiboTimeTool@@6B@
rdata$r	SEGMENT
??_R4CFiboTimeTool@@6B@ DD 00H				; CFiboTimeTool::`RTTI Complete Object Locator'
	DD	00H
	DD	00H
	DD	FLAT:??_R0?AVCFiboTimeTool@@@8
	DD	FLAT:??_R3CFiboTimeTool@@8
rdata$r	ENDS
;	COMDAT ??_R1A@?0A@EA@CFiboRetraceTool@@8
rdata$r	SEGMENT
??_R1A@?0A@EA@CFiboRetraceTool@@8 DD FLAT:??_R0?AVCFiboRetraceTool@@@8 ; CFiboRetraceTool::`RTTI Base Class Descriptor at (0,-1,0,64)'
	DD	04H
	DD	00H
	DD	0ffffffffH
	DD	00H
	DD	040H
	DD	FLAT:??_R3CFiboRetraceTool@@8
rdata$r	ENDS
;	COMDAT ??_R2CFiboRetraceTool@@8
rdata$r	SEGMENT
??_R2CFiboRetraceTool@@8 DD FLAT:??_R1A@?0A@EA@CFiboRetraceTool@@8 ; CFiboRetraceTool::`RTTI Base Class Array'
	DD	FLAT:??_R1A@?0A@EA@CTwoPointDownTool@@8
	DD	FLAT:??_R1A@?0A@EA@COneOrTwoPointTool@@8
	DD	FLAT:??_R1A@?0A@EA@CDownTool@@8
	DD	FLAT:??_R1A@?0A@EA@CTool@@8
rdata$r	ENDS
;	COMDAT ??_R3CFiboRetraceTool@@8
rdata$r	SEGMENT
??_R3CFiboRetraceTool@@8 DD 00H				; CFiboRetraceTool::`RTTI Class Hierarchy Descriptor'
	DD	00H
	DD	05H
	DD	FLAT:??_R2CFiboRetraceTool@@8
rdata$r	ENDS
;	COMDAT ??_R0?AVCFiboRetraceTool@@@8
data$rs	SEGMENT
??_R0?AVCFiboRetraceTool@@@8 DD FLAT:??_7type_info@@6B@	; CFiboRetraceTool `RTTI Type Descriptor'
	DD	00H
	DB	'.?AVCFiboRetraceTool@@', 00H
data$rs	ENDS
;	COMDAT ??_R4CFiboRetraceTool@@6B@
rdata$r	SEGMENT
??_R4CFiboRetraceTool@@6B@ DD 00H			; CFiboRetraceTool::`RTTI Complete Object Locator'
	DD	00H
	DD	00H
	DD	FLAT:??_R0?AVCFiboRetraceTool@@@8
	DD	FLAT:??_R3CFiboRetraceTool@@8
rdata$r	ENDS
;	COMDAT ??_R1A@?0A@EA@CFiboPenLineTool@@8
rdata$r	SEGMENT
??_R1A@?0A@EA@CFiboPenLineTool@@8 DD FLAT:??_R0?AVCFiboPenLineTool@@@8 ; CFiboPenLineTool::`RTTI Base Class Descriptor at (0,-1,0,64)'
	DD	04H
	DD	00H
	DD	0ffffffffH
	DD	00H
	DD	040H
	DD	FLAT:??_R3CFiboPenLineTool@@8
rdata$r	ENDS
;	COMDAT ??_R2CFiboPenLineTool@@8
rdata$r	SEGMENT
??_R2CFiboPenLineTool@@8 DD FLAT:??_R1A@?0A@EA@CFiboPenLineTool@@8 ; CFiboPenLineTool::`RTTI Base Class Array'
	DD	FLAT:??_R1A@?0A@EA@CTwoPointDownTool@@8
	DD	FLAT:??_R1A@?0A@EA@COneOrTwoPointTool@@8
	DD	FLAT:??_R1A@?0A@EA@CDownTool@@8
	DD	FLAT:??_R1A@?0A@EA@CTool@@8
rdata$r	ENDS
;	COMDAT ??_R3CFiboPenLineTool@@8
rdata$r	SEGMENT
??_R3CFiboPenLineTool@@8 DD 00H				; CFiboPenLineTool::`RTTI Class Hierarchy Descriptor'
	DD	00H
	DD	05H
	DD	FLAT:??_R2CFiboPenLineTool@@8
rdata$r	ENDS
;	COMDAT ??_R0?AVCFiboPenLineTool@@@8
data$rs	SEGMENT
??_R0?AVCFiboPenLineTool@@@8 DD FLAT:??_7type_info@@6B@	; CFiboPenLineTool `RTTI Type Descriptor'
	DD	00H
	DB	'.?AVCFiboPenLineTool@@', 00H
data$rs	ENDS
;	COMDAT ??_R4CFiboPenLineTool@@6B@
rdata$r	SEGMENT
??_R4CFiboPenLineTool@@6B@ DD 00H			; CFiboPenLineTool::`RTTI Complete Object Locator'
	DD	00H
	DD	00H
	DD	FLAT:??_R0?AVCFiboPenLineTool@@@8
	DD	FLAT:??_R3CFiboPenLineTool@@8
rdata$r	ENDS
;	COMDAT ??_R1A@?0A@EA@CFiboCircleTool@@8
rdata$r	SEGMENT
??_R1A@?0A@EA@CFiboCircleTool@@8 DD FLAT:??_R0?AVCFiboCircleTool@@@8 ; CFiboCircleTool::`RTTI Base Class Descriptor at (0,-1,0,64)'
	DD	04H
	DD	00H
	DD	0ffffffffH
	DD	00H
	DD	040H
	DD	FLAT:??_R3CFiboCircleTool@@8
rdata$r	ENDS
;	COMDAT ??_R2CFiboCircleTool@@8
rdata$r	SEGMENT
??_R2CFiboCircleTool@@8 DD FLAT:??_R1A@?0A@EA@CFiboCircleTool@@8 ; CFiboCircleTool::`RTTI Base Class Array'
	DD	FLAT:??_R1A@?0A@EA@CTwoPointDownTool@@8
	DD	FLAT:??_R1A@?0A@EA@COneOrTwoPointTool@@8
	DD	FLAT:??_R1A@?0A@EA@CDownTool@@8
	DD	FLAT:??_R1A@?0A@EA@CTool@@8
rdata$r	ENDS
;	COMDAT ??_R3CFiboCircleTool@@8
rdata$r	SEGMENT
??_R3CFiboCircleTool@@8 DD 00H				; CFiboCircleTool::`RTTI Class Hierarchy Descriptor'
	DD	00H
	DD	05H
	DD	FLAT:??_R2CFiboCircleTool@@8
rdata$r	ENDS
;	COMDAT ??_R0?AVCFiboCircleTool@@@8
data$rs	SEGMENT
??_R0?AVCFiboCircleTool@@@8 DD FLAT:??_7type_info@@6B@	; CFiboCircleTool `RTTI Type Descriptor'
	DD	00H
	DB	'.?AVCFiboCircleTool@@', 00H
data$rs	ENDS
;	COMDAT ??_R4CFiboCircleTool@@6B@
rdata$r	SEGMENT
??_R4CFiboCircleTool@@6B@ DD 00H			; CFiboCircleTool::`RTTI Complete Object Locator'
	DD	00H
	DD	00H
	DD	FLAT:??_R0?AVCFiboCircleTool@@@8
	DD	FLAT:??_R3CFiboCircleTool@@8
rdata$r	ENDS
;	COMDAT ??_R2CTool@@8
rdata$r	SEGMENT
??_R2CTool@@8 DD FLAT:??_R1A@?0A@EA@CTool@@8		; CTool::`RTTI Base Class Array'
rdata$r	ENDS
;	COMDAT ??_R3CTool@@8
rdata$r	SEGMENT
??_R3CTool@@8 DD 00H					; CTool::`RTTI Class Hierarchy Descriptor'
	DD	00H
	DD	01H
	DD	FLAT:??_R2CTool@@8
rdata$r	ENDS
;	COMDAT ??_R0?AVCTool@@@8
data$rs	SEGMENT
??_R0?AVCTool@@@8 DD FLAT:??_7type_info@@6B@		; CTool `RTTI Type Descriptor'
	DD	00H
	DB	'.?AVCTool@@', 00H
data$rs	ENDS
;	COMDAT ??_R1A@?0A@EA@CTool@@8
rdata$r	SEGMENT
??_R1A@?0A@EA@CTool@@8 DD FLAT:??_R0?AVCTool@@@8	; CTool::`RTTI Base Class Descriptor at (0,-1,0,64)'
	DD	00H
	DD	00H
	DD	0ffffffffH
	DD	00H
	DD	040H
	DD	FLAT:??_R3CTool@@8
rdata$r	ENDS
;	COMDAT ??_R2CDownTool@@8
rdata$r	SEGMENT
??_R2CDownTool@@8 DD FLAT:??_R1A@?0A@EA@CDownTool@@8	; CDownTool::`RTTI Base Class Array'
	DD	FLAT:??_R1A@?0A@EA@CTool@@8
rdata$r	ENDS
;	COMDAT ??_R3CDownTool@@8
rdata$r	SEGMENT
??_R3CDownTool@@8 DD 00H				; CDownTool::`RTTI Class Hierarchy Descriptor'
	DD	00H
	DD	02H
	DD	FLAT:??_R2CDownTool@@8
rdata$r	ENDS
;	COMDAT ??_R0?AVCDownTool@@@8
data$rs	SEGMENT
??_R0?AVCDownTool@@@8 DD FLAT:??_7type_info@@6B@	; CDownTool `RTTI Type Descriptor'
	DD	00H
	DB	'.?AVCDownTool@@', 00H
data$rs	ENDS
;	COMDAT ??_R1A@?0A@EA@CDownTool@@8
rdata$r	SEGMENT
??_R1A@?0A@EA@CDownTool@@8 DD FLAT:??_R0?AVCDownTool@@@8 ; CDownTool::`RTTI Base Class Descriptor at (0,-1,0,64)'
	DD	01H
	DD	00H
	DD	0ffffffffH
	DD	00H
	DD	040H
	DD	FLAT:??_R3CDownTool@@8
rdata$r	ENDS
;	COMDAT ??_R2COneOrTwoPointTool@@8
rdata$r	SEGMENT
??_R2COneOrTwoPointTool@@8 DD FLAT:??_R1A@?0A@EA@COneOrTwoPointTool@@8 ; COneOrTwoPointTool::`RTTI Base Class Array'
	DD	FLAT:??_R1A@?0A@EA@CDownTool@@8
	DD	FLAT:??_R1A@?0A@EA@CTool@@8
rdata$r	ENDS
;	COMDAT ??_R3COneOrTwoPointTool@@8
rdata$r	SEGMENT
??_R3COneOrTwoPointTool@@8 DD 00H			; COneOrTwoPointTool::`RTTI Class Hierarchy Descriptor'
	DD	00H
	DD	03H
	DD	FLAT:??_R2COneOrTwoPointTool@@8
rdata$r	ENDS
;	COMDAT ??_R0?AVCOneOrTwoPointTool@@@8
data$rs	SEGMENT
??_R0?AVCOneOrTwoPointTool@@@8 DD FLAT:??_7type_info@@6B@ ; COneOrTwoPointTool `RTTI Type Descriptor'
	DD	00H
	DB	'.?AVCOneOrTwoPointTool@@', 00H
data$rs	ENDS
;	COMDAT ??_R1A@?0A@EA@COneOrTwoPointTool@@8
rdata$r	SEGMENT
??_R1A@?0A@EA@COneOrTwoPointTool@@8 DD FLAT:??_R0?AVCOneOrTwoPointTool@@@8 ; COneOrTwoPointTool::`RTTI Base Class Descriptor at (0,-1,0,64)'
	DD	02H
	DD	00H
	DD	0ffffffffH
	DD	00H
	DD	040H
	DD	FLAT:??_R3COneOrTwoPointTool@@8
rdata$r	ENDS
;	COMDAT ??_R2CTwoPointDownTool@@8
rdata$r	SEGMENT
??_R2CTwoPointDownTool@@8 DD FLAT:??_R1A@?0A@EA@CTwoPointDownTool@@8 ; CTwoPointDownTool::`RTTI Base Class Array'
	DD	FLAT:??_R1A@?0A@EA@COneOrTwoPointTool@@8
	DD	FLAT:??_R1A@?0A@EA@CDownTool@@8
	DD	FLAT:??_R1A@?0A@EA@CTool@@8
rdata$r	ENDS
;	COMDAT ??_R3CTwoPointDownTool@@8
rdata$r	SEGMENT
??_R3CTwoPointDownTool@@8 DD 00H			; CTwoPointDownTool::`RTTI Class Hierarchy Descriptor'
	DD	00H
	DD	04H
	DD	FLAT:??_R2CTwoPointDownTool@@8
rdata$r	ENDS
;	COMDAT ??_R0?AVCTwoPointDownTool@@@8
data$rs	SEGMENT
??_R0?AVCTwoPointDownTool@@@8 DD FLAT:??_7type_info@@6B@ ; CTwoPointDownTool `RTTI Type Descriptor'
	DD	00H
	DB	'.?AVCTwoPointDownTool@@', 00H
data$rs	ENDS
;	COMDAT ??_R1A@?0A@EA@CTwoPointDownTool@@8
rdata$r	SEGMENT
??_R1A@?0A@EA@CTwoPointDownTool@@8 DD FLAT:??_R0?AVCTwoPointDownTool@@@8 ; CTwoPointDownTool::`RTTI Base Class Descriptor at (0,-1,0,64)'
	DD	03H
	DD	00H
	DD	0ffffffffH
	DD	00H
	DD	040H
	DD	FLAT:??_R3CTwoPointDownTool@@8
rdata$r	ENDS
;	COMDAT ??_R1A@?0A@EA@CFiboSemicircleTool@@8
rdata$r	SEGMENT
??_R1A@?0A@EA@CFiboSemicircleTool@@8 DD FLAT:??_R0?AVCFiboSemicircleTool@@@8 ; CFiboSemicircleTool::`RTTI Base Class Descriptor at (0,-1,0,64)'
	DD	04H
	DD	00H
	DD	0ffffffffH
	DD	00H
	DD	040H
	DD	FLAT:??_R3CFiboSemicircleTool@@8
rdata$r	ENDS
;	COMDAT ??_R2CFiboSemicircleTool@@8
rdata$r	SEGMENT
??_R2CFiboSemicircleTool@@8 DD FLAT:??_R1A@?0A@EA@CFiboSemicircleTool@@8 ; CFiboSemicircleTool::`RTTI Base Class Array'
	DD	FLAT:??_R1A@?0A@EA@CTwoPointDownTool@@8
	DD	FLAT:??_R1A@?0A@EA@COneOrTwoPointTool@@8
	DD	FLAT:??_R1A@?0A@EA@CDownTool@@8
	DD	FLAT:??_R1A@?0A@EA@CTool@@8
rdata$r	ENDS
;	COMDAT ??_R3CFiboSemicircleTool@@8
rdata$r	SEGMENT
??_R3CFiboSemicircleTool@@8 DD 00H			; CFiboSemicircleTool::`RTTI Class Hierarchy Descriptor'
	DD	00H
	DD	05H
	DD	FLAT:??_R2CFiboSemicircleTool@@8
rdata$r	ENDS
;	COMDAT ??_R0?AVCFiboSemicircleTool@@@8
data$rs	SEGMENT
??_R0?AVCFiboSemicircleTool@@@8 DD FLAT:??_7type_info@@6B@ ; CFiboSemicircleTool `RTTI Type Descriptor'
	DD	00H
	DB	'.?AVCFiboSemicircleTool@@', 00H
data$rs	ENDS
;	COMDAT ??_R4CFiboSemicircleTool@@6B@
rdata$r	SEGMENT
??_R4CFiboSemicircleTool@@6B@ DD 00H			; CFiboSemicircleTool::`RTTI Complete Object Locator'
	DD	00H
	DD	00H
	DD	FLAT:??_R0?AVCFiboSemicircleTool@@@8
	DD	FLAT:??_R3CFiboSemicircleTool@@8
rdata$r	ENDS
;	COMDAT ??_R1A@?0A@EA@CGannGridDrawer@@8
rdata$r	SEGMENT
??_R1A@?0A@EA@CGannGridDrawer@@8 DD FLAT:??_R0?AVCGannGridDrawer@@@8 ; CGannGridDrawer::`RTTI Base Class Descriptor at (0,-1,0,64)'
	DD	03H
	DD	00H
	DD	0ffffffffH
	DD	00H
	DD	040H
	DD	FLAT:??_R3CGannGridDrawer@@8
rdata$r	ENDS
;	COMDAT ??_R2CGannGridDrawer@@8
rdata$r	SEGMENT
??_R2CGannGridDrawer@@8 DD FLAT:??_R1A@?0A@EA@CGannGridDrawer@@8 ; CGannGridDrawer::`RTTI Base Class Array'
	DD	FLAT:??_R1A@?0A@EA@CGannDrawer@@8
	DD	FLAT:??_R1A@?0A@EA@CTwoPointDrawer@@8
	DD	FLAT:??_R1A@33FA@CDrawer@@8
rdata$r	ENDS
;	COMDAT ??_R3CGannGridDrawer@@8
rdata$r	SEGMENT
??_R3CGannGridDrawer@@8 DD 00H				; CGannGridDrawer::`RTTI Class Hierarchy Descriptor'
	DD	00H
	DD	04H
	DD	FLAT:??_R2CGannGridDrawer@@8
rdata$r	ENDS
;	COMDAT ??_R0?AVCGannGridDrawer@@@8
data$rs	SEGMENT
??_R0?AVCGannGridDrawer@@@8 DD FLAT:??_7type_info@@6B@	; CGannGridDrawer `RTTI Type Descriptor'
	DD	00H
	DB	'.?AVCGannGridDrawer@@', 00H
data$rs	ENDS
;	COMDAT ??_R4CGannGridDrawer@@6B@
rdata$r	SEGMENT
??_R4CGannGridDrawer@@6B@ DD 00H			; CGannGridDrawer::`RTTI Complete Object Locator'
	DD	00H
	DD	00H
	DD	FLAT:??_R0?AVCGannGridDrawer@@@8
	DD	FLAT:??_R3CGannGridDrawer@@8
rdata$r	ENDS
;	COMDAT ??_R1A@?0A@EA@CGannFanDrawer@@8
rdata$r	SEGMENT
??_R1A@?0A@EA@CGannFanDrawer@@8 DD FLAT:??_R0?AVCGannFanDrawer@@@8 ; CGannFanDrawer::`RTTI Base Class Descriptor at (0,-1,0,64)'
	DD	04H
	DD	00H
	DD	0ffffffffH
	DD	00H
	DD	040H
	DD	FLAT:??_R3CGannFanDrawer@@8
rdata$r	ENDS
;	COMDAT ??_R2CGannFanDrawer@@8
rdata$r	SEGMENT
??_R2CGannFanDrawer@@8 DD FLAT:??_R1A@?0A@EA@CGannFanDrawer@@8 ; CGannFanDrawer::`RTTI Base Class Array'
	DD	FLAT:??_R1A@?0A@EA@CGannLineDrawer@@8
	DD	FLAT:??_R1A@?0A@EA@CGannDrawer@@8
	DD	FLAT:??_R1A@?0A@EA@CTwoPointDrawer@@8
	DD	FLAT:??_R1A@33FA@CDrawer@@8
rdata$r	ENDS
;	COMDAT ??_R3CGannFanDrawer@@8
rdata$r	SEGMENT
??_R3CGannFanDrawer@@8 DD 00H				; CGannFanDrawer::`RTTI Class Hierarchy Descriptor'
	DD	00H
	DD	05H
	DD	FLAT:??_R2CGannFanDrawer@@8
rdata$r	ENDS
;	COMDAT ??_R0?AVCGannFanDrawer@@@8
data$rs	SEGMENT
??_R0?AVCGannFanDrawer@@@8 DD FLAT:??_7type_info@@6B@	; CGannFanDrawer `RTTI Type Descriptor'
	DD	00H
	DB	'.?AVCGannFanDrawer@@', 00H
data$rs	ENDS
;	COMDAT ??_R4CGannFanDrawer@@6B@
rdata$r	SEGMENT
??_R4CGannFanDrawer@@6B@ DD 00H				; CGannFanDrawer::`RTTI Complete Object Locator'
	DD	00H
	DD	00H
	DD	FLAT:??_R0?AVCGannFanDrawer@@@8
	DD	FLAT:??_R3CGannFanDrawer@@8
rdata$r	ENDS
;	COMDAT ??_R1A@?0A@EA@CGannLineDrawer@@8
rdata$r	SEGMENT
??_R1A@?0A@EA@CGannLineDrawer@@8 DD FLAT:??_R0?AVCGannLineDrawer@@@8 ; CGannLineDrawer::`RTTI Base Class Descriptor at (0,-1,0,64)'
	DD	03H
	DD	00H
	DD	0ffffffffH
	DD	00H
	DD	040H
	DD	FLAT:??_R3CGannLineDrawer@@8
rdata$r	ENDS
;	COMDAT ??_R2CGannLineDrawer@@8
rdata$r	SEGMENT
??_R2CGannLineDrawer@@8 DD FLAT:??_R1A@?0A@EA@CGannLineDrawer@@8 ; CGannLineDrawer::`RTTI Base Class Array'
	DD	FLAT:??_R1A@?0A@EA@CGannDrawer@@8
	DD	FLAT:??_R1A@?0A@EA@CTwoPointDrawer@@8
	DD	FLAT:??_R1A@33FA@CDrawer@@8
rdata$r	ENDS
;	COMDAT ??_R3CGannLineDrawer@@8
rdata$r	SEGMENT
??_R3CGannLineDrawer@@8 DD 00H				; CGannLineDrawer::`RTTI Class Hierarchy Descriptor'
	DD	00H
	DD	04H
	DD	FLAT:??_R2CGannLineDrawer@@8
rdata$r	ENDS
;	COMDAT ??_R0?AVCGannLineDrawer@@@8
data$rs	SEGMENT
??_R0?AVCGannLineDrawer@@@8 DD FLAT:??_7type_info@@6B@	; CGannLineDrawer `RTTI Type Descriptor'
	DD	00H
	DB	'.?AVCGannLineDrawer@@', 00H
data$rs	ENDS
;	COMDAT ??_R4CGannLineDrawer@@6B@
rdata$r	SEGMENT
??_R4CGannLineDrawer@@6B@ DD 00H			; CGannLineDrawer::`RTTI Complete Object Locator'
	DD	00H
	DD	00H
	DD	FLAT:??_R0?AVCGannLineDrawer@@@8
	DD	FLAT:??_R3CGannLineDrawer@@8
rdata$r	ENDS
;	COMDAT ??_R1A@?0A@EA@CGannDrawer@@8
rdata$r	SEGMENT
??_R1A@?0A@EA@CGannDrawer@@8 DD FLAT:??_R0?AVCGannDrawer@@@8 ; CGannDrawer::`RTTI Base Class Descriptor at (0,-1,0,64)'
	DD	02H
	DD	00H
	DD	0ffffffffH
	DD	00H
	DD	040H
	DD	FLAT:??_R3CGannDrawer@@8
rdata$r	ENDS
;	COMDAT ??_R2CGannDrawer@@8
rdata$r	SEGMENT
??_R2CGannDrawer@@8 DD FLAT:??_R1A@?0A@EA@CGannDrawer@@8 ; CGannDrawer::`RTTI Base Class Array'
	DD	FLAT:??_R1A@?0A@EA@CTwoPointDrawer@@8
	DD	FLAT:??_R1A@33FA@CDrawer@@8
rdata$r	ENDS
;	COMDAT ??_R3CGannDrawer@@8
rdata$r	SEGMENT
??_R3CGannDrawer@@8 DD 00H				; CGannDrawer::`RTTI Class Hierarchy Descriptor'
	DD	00H
	DD	03H
	DD	FLAT:??_R2CGannDrawer@@8
rdata$r	ENDS
;	COMDAT ??_R0?AVCGannDrawer@@@8
data$rs	SEGMENT
??_R0?AVCGannDrawer@@@8 DD FLAT:??_7type_info@@6B@	; CGannDrawer `RTTI Type Descriptor'
	DD	00H
	DB	'.?AVCGannDrawer@@', 00H
data$rs	ENDS
;	COMDAT ??_R4CGannDrawer@@6B@
rdata$r	SEGMENT
??_R4CGannDrawer@@6B@ DD 00H				; CGannDrawer::`RTTI Complete Object Locator'
	DD	00H
	DD	00H
	DD	FLAT:??_R0?AVCGannDrawer@@@8
	DD	FLAT:??_R3CGannDrawer@@8
rdata$r	ENDS
;	COMDAT ??_R1A@A@3FA@CDrawer@@8
rdata$r	SEGMENT
??_R1A@A@3FA@CDrawer@@8 DD FLAT:??_R0?AVCDrawer@@@8	; CDrawer::`RTTI Base Class Descriptor at (0,0,4,80)'
	DD	00H
	DD	00H
	DD	00H
	DD	04H
	DD	050H
	DD	FLAT:??_R3CDrawer@@8
rdata$r	ENDS
;	COMDAT ??_R1A@A@7FA@COnePointDrawer@@8
rdata$r	SEGMENT
??_R1A@A@7FA@COnePointDrawer@@8 DD FLAT:??_R0?AVCOnePointDrawer@@@8 ; COnePointDrawer::`RTTI Base Class Descriptor at (0,0,8,80)'
	DD	01H
	DD	00H
	DD	00H
	DD	08H
	DD	050H
	DD	FLAT:??_R3COnePointDrawer@@8
rdata$r	ENDS
;	COMDAT ??_R2CVertLineDrawer@@8
rdata$r	SEGMENT
??_R2CVertLineDrawer@@8 DD FLAT:??_R1A@?0A@EA@CVertLineDrawer@@8 ; CVertLineDrawer::`RTTI Base Class Array'
	DD	FLAT:??_R1A@A@7FA@COnePointDrawer@@8
	DD	FLAT:??_R1A@A@3FA@CDrawer@@8
rdata$r	ENDS
;	COMDAT ??_R3CVertLineDrawer@@8
rdata$r	SEGMENT
??_R3CVertLineDrawer@@8 DD 00H				; CVertLineDrawer::`RTTI Class Hierarchy Descriptor'
	DD	00H
	DD	03H
	DD	FLAT:??_R2CVertLineDrawer@@8
rdata$r	ENDS
;	COMDAT ??_R0?AVCVertLineDrawer@@@8
data$rs	SEGMENT
??_R0?AVCVertLineDrawer@@@8 DD FLAT:??_7type_info@@6B@	; CVertLineDrawer `RTTI Type Descriptor'
	DD	00H
	DB	'.?AVCVertLineDrawer@@', 00H
data$rs	ENDS
;	COMDAT ??_R1A@?0A@EA@CVertLineDrawer@@8
rdata$r	SEGMENT
??_R1A@?0A@EA@CVertLineDrawer@@8 DD FLAT:??_R0?AVCVertLineDrawer@@@8 ; CVertLineDrawer::`RTTI Base Class Descriptor at (0,-1,0,64)'
	DD	02H
	DD	00H
	DD	0ffffffffH
	DD	00H
	DD	040H
	DD	FLAT:??_R3CVertLineDrawer@@8
rdata$r	ENDS
;	COMDAT ??_R1A@?0A@EA@CFiboTimeDrawer@@8
rdata$r	SEGMENT
??_R1A@?0A@EA@CFiboTimeDrawer@@8 DD FLAT:??_R0?AVCFiboTimeDrawer@@@8 ; CFiboTimeDrawer::`RTTI Base Class Descriptor at (0,-1,0,64)'
	DD	03H
	DD	00H
	DD	0ffffffffH
	DD	00H
	DD	040H
	DD	FLAT:??_R3CFiboTimeDrawer@@8
rdata$r	ENDS
;	COMDAT ??_R2CFiboTimeDrawer@@8
rdata$r	SEGMENT
??_R2CFiboTimeDrawer@@8 DD FLAT:??_R1A@?0A@EA@CFiboTimeDrawer@@8 ; CFiboTimeDrawer::`RTTI Base Class Array'
	DD	FLAT:??_R1A@?0A@EA@CVertLineDrawer@@8
	DD	FLAT:??_R1A@A@7FA@COnePointDrawer@@8
	DD	FLAT:??_R1A@A@3FA@CDrawer@@8
rdata$r	ENDS
;	COMDAT ??_R3CFiboTimeDrawer@@8
rdata$r	SEGMENT
??_R3CFiboTimeDrawer@@8 DD 00H				; CFiboTimeDrawer::`RTTI Class Hierarchy Descriptor'
	DD	00H
	DD	04H
	DD	FLAT:??_R2CFiboTimeDrawer@@8
rdata$r	ENDS
;	COMDAT ??_R0?AVCFiboTimeDrawer@@@8
data$rs	SEGMENT
??_R0?AVCFiboTimeDrawer@@@8 DD FLAT:??_7type_info@@6B@	; CFiboTimeDrawer `RTTI Type Descriptor'
	DD	00H
	DB	'.?AVCFiboTimeDrawer@@', 00H
data$rs	ENDS
;	COMDAT ??_R4CFiboTimeDrawer@@6B@
rdata$r	SEGMENT
??_R4CFiboTimeDrawer@@6B@ DD 00H			; CFiboTimeDrawer::`RTTI Complete Object Locator'
	DD	03cH
	DD	04H
	DD	FLAT:??_R0?AVCFiboTimeDrawer@@@8
	DD	FLAT:??_R3CFiboTimeDrawer@@8
rdata$r	ENDS
;	COMDAT ??_R1A@?0A@EA@CFiboRetraceDrawer@@8
rdata$r	SEGMENT
??_R1A@?0A@EA@CFiboRetraceDrawer@@8 DD FLAT:??_R0?AVCFiboRetraceDrawer@@@8 ; CFiboRetraceDrawer::`RTTI Base Class Descriptor at (0,-1,0,64)'
	DD	03H
	DD	00H
	DD	0ffffffffH
	DD	00H
	DD	040H
	DD	FLAT:??_R3CFiboRetraceDrawer@@8
rdata$r	ENDS
;	COMDAT ??_R2CFiboRetraceDrawer@@8
rdata$r	SEGMENT
??_R2CFiboRetraceDrawer@@8 DD FLAT:??_R1A@?0A@EA@CFiboRetraceDrawer@@8 ; CFiboRetraceDrawer::`RTTI Base Class Array'
	DD	FLAT:??_R1A@?0A@EA@CFiboDrawer@@8
	DD	FLAT:??_R1A@?0A@EA@CTwoPointDrawer@@8
	DD	FLAT:??_R1A@33FA@CDrawer@@8
rdata$r	ENDS
;	COMDAT ??_R3CFiboRetraceDrawer@@8
rdata$r	SEGMENT
??_R3CFiboRetraceDrawer@@8 DD 00H			; CFiboRetraceDrawer::`RTTI Class Hierarchy Descriptor'
	DD	00H
	DD	04H
	DD	FLAT:??_R2CFiboRetraceDrawer@@8
rdata$r	ENDS
;	COMDAT ??_R0?AVCFiboRetraceDrawer@@@8
data$rs	SEGMENT
??_R0?AVCFiboRetraceDrawer@@@8 DD FLAT:??_7type_info@@6B@ ; CFiboRetraceDrawer `RTTI Type Descriptor'
	DD	00H
	DB	'.?AVCFiboRetraceDrawer@@', 00H
data$rs	ENDS
;	COMDAT ??_R4CFiboRetraceDrawer@@6B@
rdata$r	SEGMENT
??_R4CFiboRetraceDrawer@@6B@ DD 00H			; CFiboRetraceDrawer::`RTTI Complete Object Locator'
	DD	00H
	DD	00H
	DD	FLAT:??_R0?AVCFiboRetraceDrawer@@@8
	DD	FLAT:??_R3CFiboRetraceDrawer@@8
rdata$r	ENDS
;	COMDAT ??_R1A@?0A@EA@CFiboPenLineDrawer@@8
rdata$r	SEGMENT
??_R1A@?0A@EA@CFiboPenLineDrawer@@8 DD FLAT:??_R0?AVCFiboPenLineDrawer@@@8 ; CFiboPenLineDrawer::`RTTI Base Class Descriptor at (0,-1,0,64)'
	DD	03H
	DD	00H
	DD	0ffffffffH
	DD	00H
	DD	040H
	DD	FLAT:??_R3CFiboPenLineDrawer@@8
rdata$r	ENDS
;	COMDAT ??_R2CFiboPenLineDrawer@@8
rdata$r	SEGMENT
??_R2CFiboPenLineDrawer@@8 DD FLAT:??_R1A@?0A@EA@CFiboPenLineDrawer@@8 ; CFiboPenLineDrawer::`RTTI Base Class Array'
	DD	FLAT:??_R1A@?0A@EA@CFiboDrawer@@8
	DD	FLAT:??_R1A@?0A@EA@CTwoPointDrawer@@8
	DD	FLAT:??_R1A@33FA@CDrawer@@8
rdata$r	ENDS
;	COMDAT ??_R3CFiboPenLineDrawer@@8
rdata$r	SEGMENT
??_R3CFiboPenLineDrawer@@8 DD 00H			; CFiboPenLineDrawer::`RTTI Class Hierarchy Descriptor'
	DD	00H
	DD	04H
	DD	FLAT:??_R2CFiboPenLineDrawer@@8
rdata$r	ENDS
;	COMDAT ??_R0?AVCFiboPenLineDrawer@@@8
data$rs	SEGMENT
??_R0?AVCFiboPenLineDrawer@@@8 DD FLAT:??_7type_info@@6B@ ; CFiboPenLineDrawer `RTTI Type Descriptor'
	DD	00H
	DB	'.?AVCFiboPenLineDrawer@@', 00H
data$rs	ENDS
;	COMDAT ??_R4CFiboPenLineDrawer@@6B@
rdata$r	SEGMENT
??_R4CFiboPenLineDrawer@@6B@ DD 00H			; CFiboPenLineDrawer::`RTTI Complete Object Locator'
	DD	00H
	DD	00H
	DD	FLAT:??_R0?AVCFiboPenLineDrawer@@@8
	DD	FLAT:??_R3CFiboPenLineDrawer@@8
rdata$r	ENDS
;	COMDAT ??_R1A@?0A@EA@CFiboCircleDrawer@@8
rdata$r	SEGMENT
??_R1A@?0A@EA@CFiboCircleDrawer@@8 DD FLAT:??_R0?AVCFiboCircleDrawer@@@8 ; CFiboCircleDrawer::`RTTI Base Class Descriptor at (0,-1,0,64)'
	DD	04H
	DD	00H
	DD	0ffffffffH
	DD	00H
	DD	040H
	DD	FLAT:??_R3CFiboCircleDrawer@@8
rdata$r	ENDS
;	COMDAT ??_R2CFiboCircleDrawer@@8
rdata$r	SEGMENT
??_R2CFiboCircleDrawer@@8 DD FLAT:??_R1A@?0A@EA@CFiboCircleDrawer@@8 ; CFiboCircleDrawer::`RTTI Base Class Array'
	DD	FLAT:??_R1A@?0A@EA@CFiboArcDrawer@@8
	DD	FLAT:??_R1A@?0A@EA@CFiboDrawer@@8
	DD	FLAT:??_R1A@?0A@EA@CTwoPointDrawer@@8
	DD	FLAT:??_R1A@33FA@CDrawer@@8
rdata$r	ENDS
;	COMDAT ??_R3CFiboCircleDrawer@@8
rdata$r	SEGMENT
??_R3CFiboCircleDrawer@@8 DD 00H			; CFiboCircleDrawer::`RTTI Class Hierarchy Descriptor'
	DD	00H
	DD	05H
	DD	FLAT:??_R2CFiboCircleDrawer@@8
rdata$r	ENDS
;	COMDAT ??_R0?AVCFiboCircleDrawer@@@8
data$rs	SEGMENT
??_R0?AVCFiboCircleDrawer@@@8 DD FLAT:??_7type_info@@6B@ ; CFiboCircleDrawer `RTTI Type Descriptor'
	DD	00H
	DB	'.?AVCFiboCircleDrawer@@', 00H
data$rs	ENDS
;	COMDAT ??_R4CFiboCircleDrawer@@6B@
rdata$r	SEGMENT
??_R4CFiboCircleDrawer@@6B@ DD 00H			; CFiboCircleDrawer::`RTTI Complete Object Locator'
	DD	00H
	DD	00H
	DD	FLAT:??_R0?AVCFiboCircleDrawer@@@8
	DD	FLAT:??_R3CFiboCircleDrawer@@8
rdata$r	ENDS
;	COMDAT ??_R1A@?0A@EA@CFiboSemicircleDrawer@@8
rdata$r	SEGMENT
??_R1A@?0A@EA@CFiboSemicircleDrawer@@8 DD FLAT:??_R0?AVCFiboSemicircleDrawer@@@8 ; CFiboSemicircleDrawer::`RTTI Base Class Descriptor at (0,-1,0,64)'
	DD	04H
	DD	00H
	DD	0ffffffffH
	DD	00H
	DD	040H
	DD	FLAT:??_R3CFiboSemicircleDrawer@@8
rdata$r	ENDS
;	COMDAT ??_R2CFiboSemicircleDrawer@@8
rdata$r	SEGMENT
??_R2CFiboSemicircleDrawer@@8 DD FLAT:??_R1A@?0A@EA@CFiboSemicircleDrawer@@8 ; CFiboSemicircleDrawer::`RTTI Base Class Array'
	DD	FLAT:??_R1A@?0A@EA@CFiboArcDrawer@@8
	DD	FLAT:??_R1A@?0A@EA@CFiboDrawer@@8
	DD	FLAT:??_R1A@?0A@EA@CTwoPointDrawer@@8
	DD	FLAT:??_R1A@33FA@CDrawer@@8
rdata$r	ENDS
;	COMDAT ??_R3CFiboSemicircleDrawer@@8
rdata$r	SEGMENT
??_R3CFiboSemicircleDrawer@@8 DD 00H			; CFiboSemicircleDrawer::`RTTI Class Hierarchy Descriptor'
	DD	00H
	DD	05H
	DD	FLAT:??_R2CFiboSemicircleDrawer@@8
rdata$r	ENDS
;	COMDAT ??_R0?AVCFiboSemicircleDrawer@@@8
data$rs	SEGMENT
??_R0?AVCFiboSemicircleDrawer@@@8 DD FLAT:??_7type_info@@6B@ ; CFiboSemicircleDrawer `RTTI Type Descriptor'
	DD	00H
	DB	'.?AVCFiboSemicircleDrawer@@', 00H
data$rs	ENDS
;	COMDAT ??_R4CFiboSemicircleDrawer@@6B@
rdata$r	SEGMENT
??_R4CFiboSemicircleDrawer@@6B@ DD 00H			; CFiboSemicircleDrawer::`RTTI Complete Object Locator'
	DD	00H
	DD	00H
	DD	FLAT:??_R0?AVCFiboSemicircleDrawer@@@8
	DD	FLAT:??_R3CFiboSemicircleDrawer@@8
rdata$r	ENDS
;	COMDAT ??_R1A@?0A@EA@CFiboArcDrawer@@8
rdata$r	SEGMENT
??_R1A@?0A@EA@CFiboArcDrawer@@8 DD FLAT:??_R0?AVCFiboArcDrawer@@@8 ; CFiboArcDrawer::`RTTI Base Class Descriptor at (0,-1,0,64)'
	DD	03H
	DD	00H
	DD	0ffffffffH
	DD	00H
	DD	040H
	DD	FLAT:??_R3CFiboArcDrawer@@8
rdata$r	ENDS
;	COMDAT ??_R2CFiboArcDrawer@@8
rdata$r	SEGMENT
??_R2CFiboArcDrawer@@8 DD FLAT:??_R1A@?0A@EA@CFiboArcDrawer@@8 ; CFiboArcDrawer::`RTTI Base Class Array'
	DD	FLAT:??_R1A@?0A@EA@CFiboDrawer@@8
	DD	FLAT:??_R1A@?0A@EA@CTwoPointDrawer@@8
	DD	FLAT:??_R1A@33FA@CDrawer@@8
rdata$r	ENDS
;	COMDAT ??_R3CFiboArcDrawer@@8
rdata$r	SEGMENT
??_R3CFiboArcDrawer@@8 DD 00H				; CFiboArcDrawer::`RTTI Class Hierarchy Descriptor'
	DD	00H
	DD	04H
	DD	FLAT:??_R2CFiboArcDrawer@@8
rdata$r	ENDS
;	COMDAT ??_R0?AVCFiboArcDrawer@@@8
data$rs	SEGMENT
??_R0?AVCFiboArcDrawer@@@8 DD FLAT:??_7type_info@@6B@	; CFiboArcDrawer `RTTI Type Descriptor'
	DD	00H
	DB	'.?AVCFiboArcDrawer@@', 00H
data$rs	ENDS
;	COMDAT ??_R4CFiboArcDrawer@@6B@
rdata$r	SEGMENT
??_R4CFiboArcDrawer@@6B@ DD 00H				; CFiboArcDrawer::`RTTI Complete Object Locator'
	DD	00H
	DD	00H
	DD	FLAT:??_R0?AVCFiboArcDrawer@@@8
	DD	FLAT:??_R3CFiboArcDrawer@@8
rdata$r	ENDS
;	COMDAT ??_R1A@?0A@EA@CFiboDrawer@@8
rdata$r	SEGMENT
??_R1A@?0A@EA@CFiboDrawer@@8 DD FLAT:??_R0?AVCFiboDrawer@@@8 ; CFiboDrawer::`RTTI Base Class Descriptor at (0,-1,0,64)'
	DD	02H
	DD	00H
	DD	0ffffffffH
	DD	00H
	DD	040H
	DD	FLAT:??_R3CFiboDrawer@@8
rdata$r	ENDS
;	COMDAT ??_R2CFiboDrawer@@8
rdata$r	SEGMENT
??_R2CFiboDrawer@@8 DD FLAT:??_R1A@?0A@EA@CFiboDrawer@@8 ; CFiboDrawer::`RTTI Base Class Array'
	DD	FLAT:??_R1A@?0A@EA@CTwoPointDrawer@@8
	DD	FLAT:??_R1A@33FA@CDrawer@@8
rdata$r	ENDS
;	COMDAT ??_R3CFiboDrawer@@8
rdata$r	SEGMENT
??_R3CFiboDrawer@@8 DD 00H				; CFiboDrawer::`RTTI Class Hierarchy Descriptor'
	DD	00H
	DD	03H
	DD	FLAT:??_R2CFiboDrawer@@8
rdata$r	ENDS
;	COMDAT ??_R0?AVCFiboDrawer@@@8
data$rs	SEGMENT
??_R0?AVCFiboDrawer@@@8 DD FLAT:??_7type_info@@6B@	; CFiboDrawer `RTTI Type Descriptor'
	DD	00H
	DB	'.?AVCFiboDrawer@@', 00H
data$rs	ENDS
;	COMDAT ??_R4CFiboDrawer@@6B@
rdata$r	SEGMENT
??_R4CFiboDrawer@@6B@ DD 00H				; CFiboDrawer::`RTTI Complete Object Locator'
	DD	00H
	DD	00H
	DD	FLAT:??_R0?AVCFiboDrawer@@@8
	DD	FLAT:??_R3CFiboDrawer@@8
rdata$r	ENDS
;	COMDAT ??_R1A@?0A@EA@CTwoPointDrawer@@8
rdata$r	SEGMENT
??_R1A@?0A@EA@CTwoPointDrawer@@8 DD FLAT:??_R0?AVCTwoPointDrawer@@@8 ; CTwoPointDrawer::`RTTI Base Class Descriptor at (0,-1,0,64)'
	DD	01H
	DD	00H
	DD	0ffffffffH
	DD	00H
	DD	040H
	DD	FLAT:??_R3CTwoPointDrawer@@8
rdata$r	ENDS
;	COMDAT ??_R2CTwoPointDrawer@@8
rdata$r	SEGMENT
??_R2CTwoPointDrawer@@8 DD FLAT:??_R1A@?0A@EA@CTwoPointDrawer@@8 ; CTwoPointDrawer::`RTTI Base Class Array'
	DD	FLAT:??_R1A@33FA@CDrawer@@8
rdata$r	ENDS
;	COMDAT ??_R3CTwoPointDrawer@@8
rdata$r	SEGMENT
??_R3CTwoPointDrawer@@8 DD 00H				; CTwoPointDrawer::`RTTI Class Hierarchy Descriptor'
	DD	00H
	DD	02H
	DD	FLAT:??_R2CTwoPointDrawer@@8
rdata$r	ENDS
;	COMDAT ??_R0?AVCTwoPointDrawer@@@8
data$rs	SEGMENT
??_R0?AVCTwoPointDrawer@@@8 DD FLAT:??_7type_info@@6B@	; CTwoPointDrawer `RTTI Type Descriptor'
	DD	00H
	DB	'.?AVCTwoPointDrawer@@', 00H
data$rs	ENDS
;	COMDAT ??_R4CTwoPointDrawer@@6B@
rdata$r	SEGMENT
??_R4CTwoPointDrawer@@6B@ DD 00H			; CTwoPointDrawer::`RTTI Complete Object Locator'
	DD	00H
	DD	00H
	DD	FLAT:??_R0?AVCTwoPointDrawer@@@8
	DD	FLAT:??_R3CTwoPointDrawer@@8
rdata$r	ENDS
;	COMDAT ??_R1A@?0A@EA@CDrawer@@8
rdata$r	SEGMENT
??_R1A@?0A@EA@CDrawer@@8 DD FLAT:??_R0?AVCDrawer@@@8	; CDrawer::`RTTI Base Class Descriptor at (0,-1,0,64)'
	DD	00H
	DD	00H
	DD	0ffffffffH
	DD	00H
	DD	040H
	DD	FLAT:??_R3CDrawer@@8
rdata$r	ENDS
;	COMDAT ??_R2CDrawer@@8
rdata$r	SEGMENT
??_R2CDrawer@@8 DD FLAT:??_R1A@?0A@EA@CDrawer@@8	; CDrawer::`RTTI Base Class Array'
rdata$r	ENDS
;	COMDAT ??_R3CDrawer@@8
rdata$r	SEGMENT
??_R3CDrawer@@8 DD 00H					; CDrawer::`RTTI Class Hierarchy Descriptor'
	DD	00H
	DD	01H
	DD	FLAT:??_R2CDrawer@@8
rdata$r	ENDS
;	COMDAT ??_R0?AVCDrawer@@@8
data$rs	SEGMENT
??_R0?AVCDrawer@@@8 DD FLAT:??_7type_info@@6B@		; CDrawer `RTTI Type Descriptor'
	DD	00H
	DB	'.?AVCDrawer@@', 00H
data$rs	ENDS
;	COMDAT ??_R1A@33FA@CDrawer@@8
rdata$r	SEGMENT
??_R1A@33FA@CDrawer@@8 DD FLAT:??_R0?AVCDrawer@@@8	; CDrawer::`RTTI Base Class Descriptor at (0,4,4,80)'
	DD	00H
	DD	00H
	DD	04H
	DD	04H
	DD	050H
	DD	FLAT:??_R3CDrawer@@8
rdata$r	ENDS
;	COMDAT ??_R1A@?0A@EA@COnePointDrawer@@8
rdata$r	SEGMENT
??_R1A@?0A@EA@COnePointDrawer@@8 DD FLAT:??_R0?AVCOnePointDrawer@@@8 ; COnePointDrawer::`RTTI Base Class Descriptor at (0,-1,0,64)'
	DD	01H
	DD	00H
	DD	0ffffffffH
	DD	00H
	DD	040H
	DD	FLAT:??_R3COnePointDrawer@@8
rdata$r	ENDS
;	COMDAT ??_R2COnePointDrawer@@8
rdata$r	SEGMENT
??_R2COnePointDrawer@@8 DD FLAT:??_R1A@?0A@EA@COnePointDrawer@@8 ; COnePointDrawer::`RTTI Base Class Array'
	DD	FLAT:??_R1A@33FA@CDrawer@@8
rdata$r	ENDS
;	COMDAT ??_R3COnePointDrawer@@8
rdata$r	SEGMENT
??_R3COnePointDrawer@@8 DD 00H				; COnePointDrawer::`RTTI Class Hierarchy Descriptor'
	DD	00H
	DD	02H
	DD	FLAT:??_R2COnePointDrawer@@8
rdata$r	ENDS
;	COMDAT ??_R0?AVCOnePointDrawer@@@8
data$rs	SEGMENT
??_R0?AVCOnePointDrawer@@@8 DD FLAT:??_7type_info@@6B@	; COnePointDrawer `RTTI Type Descriptor'
	DD	00H
	DB	'.?AVCOnePointDrawer@@', 00H
data$rs	ENDS
;	COMDAT ??_R4COnePointDrawer@@6B@
rdata$r	SEGMENT
??_R4COnePointDrawer@@6B@ DD 00H			; COnePointDrawer::`RTTI Complete Object Locator'
	DD	00H
	DD	00H
	DD	FLAT:??_R0?AVCOnePointDrawer@@@8
	DD	FLAT:??_R3COnePointDrawer@@8
rdata$r	ENDS
;	COMDAT ??_7CGannGridTool@@6B@
CONST	SEGMENT
??_7CGannGridTool@@6B@ DD FLAT:??_R4CGannGridTool@@6B@	; CGannGridTool::`vftable'
	DD	FLAT:?Initialize@CMoveTool@@UAEXXZ
	DD	FLAT:?OnLButtonDown@CMoveTool@@UAEPAVCElement@@PAVCDC@@ABVCPoint@@@Z
	DD	FLAT:?OnLButtonUp@CGannTool@@UAEXPAVCDC@@ABVCPoint@@@Z
	DD	FLAT:?OnMouseMove@CMoveTool@@UAE_NPAVCDC@@ABVCPoint@@H@Z
	DD	FLAT:?OnRButtonUp@CTool@@UAEXPAVCDC@@ABVCPoint@@@Z
	DD	FLAT:?OnDraw@CMoveTool@@UAEXPAVCDC@@@Z
	DD	FLAT:?GetCoordinateCalculator@CTool@@UBEAAVCCoordinateCalculator@@XZ
	DD	FLAT:?PointInDrawingRegion@CMoveTool@@MBE_NABVCPoint@@@Z
	DD	FLAT:?SavePoints@CMoveTool@@MAEXABVCPoints@@@Z
	DD	FLAT:?GetToolType@CGannGridTool@@MBE?AW4TOOLTYPE@CAnalysis@@XZ
	DD	FLAT:?GetTextPosition@CTool@@MAEPAVCTextPosition@@XZ
	DD	FLAT:?GetTextPosition@CTool@@MBEPBVCTextPosition@@XZ
	DD	FLAT:?IsMakeElement@CTool@@MBE_NABVCPoint@@@Z
	DD	FLAT:?MakeElement@CTwoPointMoveTool@@MAEPAVCElement@@ABVCElementCommonEnvironment@@@Z
	DD	FLAT:?GetAnalysisData@CTool@@MBEPAVCAnalysisData@@XZ
	DD	FLAT:?DrawTool@CTwoPointMoveTool@@MAEXPAVCDC@@@Z
	DD	FLAT:?GetTwoPointDrawer@CGannGridTool@@MAEAAVCTwoPointDrawer@@XZ
	DD	FLAT:?GetTwoPoints@CGannTool@@MBE?AVCPoints@@XZ
	DD	FLAT:?GetGannDrawer@CGannGridTool@@MBEABVCGannDrawer@@XZ
CONST	ENDS
;	COMDAT ??_7CGannFan315Tool@@6B@
CONST	SEGMENT
??_7CGannFan315Tool@@6B@ DD FLAT:??_R4CGannFan315Tool@@6B@ ; CGannFan315Tool::`vftable'
	DD	FLAT:?Initialize@CMoveTool@@UAEXXZ
	DD	FLAT:?OnLButtonDown@CMoveTool@@UAEPAVCElement@@PAVCDC@@ABVCPoint@@@Z
	DD	FLAT:?OnLButtonUp@CGannTool@@UAEXPAVCDC@@ABVCPoint@@@Z
	DD	FLAT:?OnMouseMove@CMoveTool@@UAE_NPAVCDC@@ABVCPoint@@H@Z
	DD	FLAT:?OnRButtonUp@CTool@@UAEXPAVCDC@@ABVCPoint@@@Z
	DD	FLAT:?OnDraw@CMoveTool@@UAEXPAVCDC@@@Z
	DD	FLAT:?GetCoordinateCalculator@CTool@@UBEAAVCCoordinateCalculator@@XZ
	DD	FLAT:?PointInDrawingRegion@CMoveTool@@MBE_NABVCPoint@@@Z
	DD	FLAT:?SavePoints@CMoveTool@@MAEXABVCPoints@@@Z
	DD	FLAT:?GetToolType@CGannFan315Tool@@MBE?AW4TOOLTYPE@CAnalysis@@XZ
	DD	FLAT:?GetTextPosition@CGannFanTool@@MAEPAVCTextPosition@@XZ
	DD	FLAT:?GetTextPosition@CGannFanTool@@MBEPBVCTextPosition@@XZ
	DD	FLAT:?IsMakeElement@CTool@@MBE_NABVCPoint@@@Z
	DD	FLAT:?MakeElement@CTwoPointMoveTool@@MAEPAVCElement@@ABVCElementCommonEnvironment@@@Z
	DD	FLAT:?GetAnalysisData@CTool@@MBEPAVCAnalysisData@@XZ
	DD	FLAT:?DrawTool@CTwoPointMoveTool@@MAEXPAVCDC@@@Z
	DD	FLAT:?GetTwoPointDrawer@CGannFanTool@@MAEAAVCTwoPointDrawer@@XZ
	DD	FLAT:?GetTwoPoints@CGannFan315Tool@@MBE?AVCPoints@@XZ
	DD	FLAT:?GetGannDrawer@CGannFanTool@@MBEABVCGannDrawer@@XZ
CONST	ENDS
;	COMDAT ??_7CGannFan225Tool@@6B@
CONST	SEGMENT
??_7CGannFan225Tool@@6B@ DD FLAT:??_R4CGannFan225Tool@@6B@ ; CGannFan225Tool::`vftable'
	DD	FLAT:?Initialize@CMoveTool@@UAEXXZ
	DD	FLAT:?OnLButtonDown@CMoveTool@@UAEPAVCElement@@PAVCDC@@ABVCPoint@@@Z
	DD	FLAT:?OnLButtonUp@CGannTool@@UAEXPAVCDC@@ABVCPoint@@@Z
	DD	FLAT:?OnMouseMove@CMoveTool@@UAE_NPAVCDC@@ABVCPoint@@H@Z
	DD	FLAT:?OnRButtonUp@CTool@@UAEXPAVCDC@@ABVCPoint@@@Z
	DD	FLAT:?OnDraw@CMoveTool@@UAEXPAVCDC@@@Z
	DD	FLAT:?GetCoordinateCalculator@CTool@@UBEAAVCCoordinateCalculator@@XZ
	DD	FLAT:?PointInDrawingRegion@CMoveTool@@MBE_NABVCPoint@@@Z
	DD	FLAT:?SavePoints@CMoveTool@@MAEXABVCPoints@@@Z
	DD	FLAT:?GetToolType@CGannFan225Tool@@MBE?AW4TOOLTYPE@CAnalysis@@XZ
	DD	FLAT:?GetTextPosition@CGannFanTool@@MAEPAVCTextPosition@@XZ
	DD	FLAT:?GetTextPosition@CGannFanTool@@MBEPBVCTextPosition@@XZ
	DD	FLAT:?IsMakeElement@CTool@@MBE_NABVCPoint@@@Z
	DD	FLAT:?MakeElement@CTwoPointMoveTool@@MAEPAVCElement@@ABVCElementCommonEnvironment@@@Z
	DD	FLAT:?GetAnalysisData@CTool@@MBEPAVCAnalysisData@@XZ
	DD	FLAT:?DrawTool@CTwoPointMoveTool@@MAEXPAVCDC@@@Z
	DD	FLAT:?GetTwoPointDrawer@CGannFanTool@@MAEAAVCTwoPointDrawer@@XZ
	DD	FLAT:?GetTwoPoints@CGannFan225Tool@@MBE?AVCPoints@@XZ
	DD	FLAT:?GetGannDrawer@CGannFanTool@@MBEABVCGannDrawer@@XZ
CONST	ENDS
;	COMDAT ??_7CGannFan135Tool@@6B@
CONST	SEGMENT
??_7CGannFan135Tool@@6B@ DD FLAT:??_R4CGannFan135Tool@@6B@ ; CGannFan135Tool::`vftable'
	DD	FLAT:?Initialize@CMoveTool@@UAEXXZ
	DD	FLAT:?OnLButtonDown@CMoveTool@@UAEPAVCElement@@PAVCDC@@ABVCPoint@@@Z
	DD	FLAT:?OnLButtonUp@CGannTool@@UAEXPAVCDC@@ABVCPoint@@@Z
	DD	FLAT:?OnMouseMove@CMoveTool@@UAE_NPAVCDC@@ABVCPoint@@H@Z
	DD	FLAT:?OnRButtonUp@CTool@@UAEXPAVCDC@@ABVCPoint@@@Z
	DD	FLAT:?OnDraw@CMoveTool@@UAEXPAVCDC@@@Z
	DD	FLAT:?GetCoordinateCalculator@CTool@@UBEAAVCCoordinateCalculator@@XZ
	DD	FLAT:?PointInDrawingRegion@CMoveTool@@MBE_NABVCPoint@@@Z
	DD	FLAT:?SavePoints@CMoveTool@@MAEXABVCPoints@@@Z
	DD	FLAT:?GetToolType@CGannFan135Tool@@MBE?AW4TOOLTYPE@CAnalysis@@XZ
	DD	FLAT:?GetTextPosition@CGannFanTool@@MAEPAVCTextPosition@@XZ
	DD	FLAT:?GetTextPosition@CGannFanTool@@MBEPBVCTextPosition@@XZ
	DD	FLAT:?IsMakeElement@CTool@@MBE_NABVCPoint@@@Z
	DD	FLAT:?MakeElement@CTwoPointMoveTool@@MAEPAVCElement@@ABVCElementCommonEnvironment@@@Z
	DD	FLAT:?GetAnalysisData@CTool@@MBEPAVCAnalysisData@@XZ
	DD	FLAT:?DrawTool@CTwoPointMoveTool@@MAEXPAVCDC@@@Z
	DD	FLAT:?GetTwoPointDrawer@CGannFanTool@@MAEAAVCTwoPointDrawer@@XZ
	DD	FLAT:?GetTwoPoints@CGannFan135Tool@@MBE?AVCPoints@@XZ
	DD	FLAT:?GetGannDrawer@CGannFanTool@@MBEABVCGannDrawer@@XZ
CONST	ENDS
;	COMDAT ??_7CGannFan45Tool@@6B@
CONST	SEGMENT
??_7CGannFan45Tool@@6B@ DD FLAT:??_R4CGannFan45Tool@@6B@ ; CGannFan45Tool::`vftable'
	DD	FLAT:?Initialize@CMoveTool@@UAEXXZ
	DD	FLAT:?OnLButtonDown@CMoveTool@@UAEPAVCElement@@PAVCDC@@ABVCPoint@@@Z
	DD	FLAT:?OnLButtonUp@CGannTool@@UAEXPAVCDC@@ABVCPoint@@@Z
	DD	FLAT:?OnMouseMove@CMoveTool@@UAE_NPAVCDC@@ABVCPoint@@H@Z
	DD	FLAT:?OnRButtonUp@CTool@@UAEXPAVCDC@@ABVCPoint@@@Z
	DD	FLAT:?OnDraw@CMoveTool@@UAEXPAVCDC@@@Z
	DD	FLAT:?GetCoordinateCalculator@CTool@@UBEAAVCCoordinateCalculator@@XZ
	DD	FLAT:?PointInDrawingRegion@CMoveTool@@MBE_NABVCPoint@@@Z
	DD	FLAT:?SavePoints@CMoveTool@@MAEXABVCPoints@@@Z
	DD	FLAT:?GetToolType@CGannFan45Tool@@MBE?AW4TOOLTYPE@CAnalysis@@XZ
	DD	FLAT:?GetTextPosition@CGannFanTool@@MAEPAVCTextPosition@@XZ
	DD	FLAT:?GetTextPosition@CGannFanTool@@MBEPBVCTextPosition@@XZ
	DD	FLAT:?IsMakeElement@CTool@@MBE_NABVCPoint@@@Z
	DD	FLAT:?MakeElement@CTwoPointMoveTool@@MAEPAVCElement@@ABVCElementCommonEnvironment@@@Z
	DD	FLAT:?GetAnalysisData@CTool@@MBEPAVCAnalysisData@@XZ
	DD	FLAT:?DrawTool@CTwoPointMoveTool@@MAEXPAVCDC@@@Z
	DD	FLAT:?GetTwoPointDrawer@CGannFanTool@@MAEAAVCTwoPointDrawer@@XZ
	DD	FLAT:?GetTwoPoints@CGannTool@@MBE?AVCPoints@@XZ
	DD	FLAT:?GetGannDrawer@CGannFanTool@@MBEABVCGannDrawer@@XZ
CONST	ENDS
;	COMDAT ??_7CGannFanTool@@6B@
CONST	SEGMENT
??_7CGannFanTool@@6B@ DD FLAT:??_R4CGannFanTool@@6B@	; CGannFanTool::`vftable'
	DD	FLAT:?Initialize@CMoveTool@@UAEXXZ
	DD	FLAT:?OnLButtonDown@CMoveTool@@UAEPAVCElement@@PAVCDC@@ABVCPoint@@@Z
	DD	FLAT:?OnLButtonUp@CGannTool@@UAEXPAVCDC@@ABVCPoint@@@Z
	DD	FLAT:?OnMouseMove@CMoveTool@@UAE_NPAVCDC@@ABVCPoint@@H@Z
	DD	FLAT:?OnRButtonUp@CTool@@UAEXPAVCDC@@ABVCPoint@@@Z
	DD	FLAT:?OnDraw@CMoveTool@@UAEXPAVCDC@@@Z
	DD	FLAT:?GetCoordinateCalculator@CTool@@UBEAAVCCoordinateCalculator@@XZ
	DD	FLAT:?PointInDrawingRegion@CMoveTool@@MBE_NABVCPoint@@@Z
	DD	FLAT:?SavePoints@CMoveTool@@MAEXABVCPoints@@@Z
	DD	FLAT:__purecall
	DD	FLAT:?GetTextPosition@CGannFanTool@@MAEPAVCTextPosition@@XZ
	DD	FLAT:?GetTextPosition@CGannFanTool@@MBEPBVCTextPosition@@XZ
	DD	FLAT:?IsMakeElement@CTool@@MBE_NABVCPoint@@@Z
	DD	FLAT:?MakeElement@CTwoPointMoveTool@@MAEPAVCElement@@ABVCElementCommonEnvironment@@@Z
	DD	FLAT:?GetAnalysisData@CTool@@MBEPAVCAnalysisData@@XZ
	DD	FLAT:?DrawTool@CTwoPointMoveTool@@MAEXPAVCDC@@@Z
	DD	FLAT:?GetTwoPointDrawer@CGannFanTool@@MAEAAVCTwoPointDrawer@@XZ
	DD	FLAT:?GetTwoPoints@CGannTool@@MBE?AVCPoints@@XZ
	DD	FLAT:?GetGannDrawer@CGannFanTool@@MBEABVCGannDrawer@@XZ
CONST	ENDS
;	COMDAT ??_7CGannLine315Tool@@6B@
CONST	SEGMENT
??_7CGannLine315Tool@@6B@ DD FLAT:??_R4CGannLine315Tool@@6B@ ; CGannLine315Tool::`vftable'
	DD	FLAT:?Initialize@CMoveTool@@UAEXXZ
	DD	FLAT:?OnLButtonDown@CMoveTool@@UAEPAVCElement@@PAVCDC@@ABVCPoint@@@Z
	DD	FLAT:?OnLButtonUp@CGannTool@@UAEXPAVCDC@@ABVCPoint@@@Z
	DD	FLAT:?OnMouseMove@CMoveTool@@UAE_NPAVCDC@@ABVCPoint@@H@Z
	DD	FLAT:?OnRButtonUp@CTool@@UAEXPAVCDC@@ABVCPoint@@@Z
	DD	FLAT:?OnDraw@CMoveTool@@UAEXPAVCDC@@@Z
	DD	FLAT:?GetCoordinateCalculator@CTool@@UBEAAVCCoordinateCalculator@@XZ
	DD	FLAT:?PointInDrawingRegion@CMoveTool@@MBE_NABVCPoint@@@Z
	DD	FLAT:?SavePoints@CMoveTool@@MAEXABVCPoints@@@Z
	DD	FLAT:?GetToolType@CGannLine315Tool@@MBE?AW4TOOLTYPE@CAnalysis@@XZ
	DD	FLAT:?GetTextPosition@CTool@@MAEPAVCTextPosition@@XZ
	DD	FLAT:?GetTextPosition@CTool@@MBEPBVCTextPosition@@XZ
	DD	FLAT:?IsMakeElement@CTool@@MBE_NABVCPoint@@@Z
	DD	FLAT:?MakeElement@CTwoPointMoveTool@@MAEPAVCElement@@ABVCElementCommonEnvironment@@@Z
	DD	FLAT:?GetAnalysisData@CTool@@MBEPAVCAnalysisData@@XZ
	DD	FLAT:?DrawTool@CTwoPointMoveTool@@MAEXPAVCDC@@@Z
	DD	FLAT:?GetTwoPointDrawer@CGannLineTool@@MAEAAVCTwoPointDrawer@@XZ
	DD	FLAT:?GetTwoPoints@CGannLine315Tool@@MBE?AVCPoints@@XZ
	DD	FLAT:?GetGannDrawer@CGannLineTool@@MBEABVCGannDrawer@@XZ
CONST	ENDS
;	COMDAT ??_7CGannLine45Tool@@6B@
CONST	SEGMENT
??_7CGannLine45Tool@@6B@ DD FLAT:??_R4CGannLine45Tool@@6B@ ; CGannLine45Tool::`vftable'
	DD	FLAT:?Initialize@CMoveTool@@UAEXXZ
	DD	FLAT:?OnLButtonDown@CMoveTool@@UAEPAVCElement@@PAVCDC@@ABVCPoint@@@Z
	DD	FLAT:?OnLButtonUp@CGannTool@@UAEXPAVCDC@@ABVCPoint@@@Z
	DD	FLAT:?OnMouseMove@CMoveTool@@UAE_NPAVCDC@@ABVCPoint@@H@Z
	DD	FLAT:?OnRButtonUp@CTool@@UAEXPAVCDC@@ABVCPoint@@@Z
	DD	FLAT:?OnDraw@CMoveTool@@UAEXPAVCDC@@@Z
	DD	FLAT:?GetCoordinateCalculator@CTool@@UBEAAVCCoordinateCalculator@@XZ
	DD	FLAT:?PointInDrawingRegion@CMoveTool@@MBE_NABVCPoint@@@Z
	DD	FLAT:?SavePoints@CMoveTool@@MAEXABVCPoints@@@Z
	DD	FLAT:?GetToolType@CGannLine45Tool@@MBE?AW4TOOLTYPE@CAnalysis@@XZ
	DD	FLAT:?GetTextPosition@CTool@@MAEPAVCTextPosition@@XZ
	DD	FLAT:?GetTextPosition@CTool@@MBEPBVCTextPosition@@XZ
	DD	FLAT:?IsMakeElement@CTool@@MBE_NABVCPoint@@@Z
	DD	FLAT:?MakeElement@CTwoPointMoveTool@@MAEPAVCElement@@ABVCElementCommonEnvironment@@@Z
	DD	FLAT:?GetAnalysisData@CTool@@MBEPAVCAnalysisData@@XZ
	DD	FLAT:?DrawTool@CTwoPointMoveTool@@MAEXPAVCDC@@@Z
	DD	FLAT:?GetTwoPointDrawer@CGannLineTool@@MAEAAVCTwoPointDrawer@@XZ
	DD	FLAT:?GetTwoPoints@CGannTool@@MBE?AVCPoints@@XZ
	DD	FLAT:?GetGannDrawer@CGannLineTool@@MBEABVCGannDrawer@@XZ
CONST	ENDS
;	COMDAT ??_7CGannLineTool@@6B@
CONST	SEGMENT
??_7CGannLineTool@@6B@ DD FLAT:??_R4CGannLineTool@@6B@	; CGannLineTool::`vftable'
	DD	FLAT:?Initialize@CMoveTool@@UAEXXZ
	DD	FLAT:?OnLButtonDown@CMoveTool@@UAEPAVCElement@@PAVCDC@@ABVCPoint@@@Z
	DD	FLAT:?OnLButtonUp@CGannTool@@UAEXPAVCDC@@ABVCPoint@@@Z
	DD	FLAT:?OnMouseMove@CMoveTool@@UAE_NPAVCDC@@ABVCPoint@@H@Z
	DD	FLAT:?OnRButtonUp@CTool@@UAEXPAVCDC@@ABVCPoint@@@Z
	DD	FLAT:?OnDraw@CMoveTool@@UAEXPAVCDC@@@Z
	DD	FLAT:?GetCoordinateCalculator@CTool@@UBEAAVCCoordinateCalculator@@XZ
	DD	FLAT:?PointInDrawingRegion@CMoveTool@@MBE_NABVCPoint@@@Z
	DD	FLAT:?SavePoints@CMoveTool@@MAEXABVCPoints@@@Z
	DD	FLAT:__purecall
	DD	FLAT:?GetTextPosition@CTool@@MAEPAVCTextPosition@@XZ
	DD	FLAT:?GetTextPosition@CTool@@MBEPBVCTextPosition@@XZ
	DD	FLAT:?IsMakeElement@CTool@@MBE_NABVCPoint@@@Z
	DD	FLAT:?MakeElement@CTwoPointMoveTool@@MAEPAVCElement@@ABVCElementCommonEnvironment@@@Z
	DD	FLAT:?GetAnalysisData@CTool@@MBEPAVCAnalysisData@@XZ
	DD	FLAT:?DrawTool@CTwoPointMoveTool@@MAEXPAVCDC@@@Z
	DD	FLAT:?GetTwoPointDrawer@CGannLineTool@@MAEAAVCTwoPointDrawer@@XZ
	DD	FLAT:?GetTwoPoints@CGannTool@@MBE?AVCPoints@@XZ
	DD	FLAT:?GetGannDrawer@CGannLineTool@@MBEABVCGannDrawer@@XZ
CONST	ENDS
;	COMDAT ??_7CGannTool@@6B@
CONST	SEGMENT
??_7CGannTool@@6B@ DD FLAT:??_R4CGannTool@@6B@		; CGannTool::`vftable'
	DD	FLAT:?Initialize@CMoveTool@@UAEXXZ
	DD	FLAT:?OnLButtonDown@CMoveTool@@UAEPAVCElement@@PAVCDC@@ABVCPoint@@@Z
	DD	FLAT:?OnLButtonUp@CGannTool@@UAEXPAVCDC@@ABVCPoint@@@Z
	DD	FLAT:?OnMouseMove@CMoveTool@@UAE_NPAVCDC@@ABVCPoint@@H@Z
	DD	FLAT:?OnRButtonUp@CTool@@UAEXPAVCDC@@ABVCPoint@@@Z
	DD	FLAT:?OnDraw@CMoveTool@@UAEXPAVCDC@@@Z
	DD	FLAT:?GetCoordinateCalculator@CTool@@UBEAAVCCoordinateCalculator@@XZ
	DD	FLAT:?PointInDrawingRegion@CMoveTool@@MBE_NABVCPoint@@@Z
	DD	FLAT:?SavePoints@CMoveTool@@MAEXABVCPoints@@@Z
	DD	FLAT:__purecall
	DD	FLAT:?GetTextPosition@CTool@@MAEPAVCTextPosition@@XZ
	DD	FLAT:?GetTextPosition@CTool@@MBEPBVCTextPosition@@XZ
	DD	FLAT:?IsMakeElement@CTool@@MBE_NABVCPoint@@@Z
	DD	FLAT:?MakeElement@CTwoPointMoveTool@@MAEPAVCElement@@ABVCElementCommonEnvironment@@@Z
	DD	FLAT:?GetAnalysisData@CTool@@MBEPAVCAnalysisData@@XZ
	DD	FLAT:?DrawTool@CTwoPointMoveTool@@MAEXPAVCDC@@@Z
	DD	FLAT:__purecall
	DD	FLAT:?GetTwoPoints@CGannTool@@MBE?AVCPoints@@XZ
	DD	FLAT:__purecall
CONST	ENDS
;	COMDAT ??_7CFiboTimeTool@@6B@
CONST	SEGMENT
??_7CFiboTimeTool@@6B@ DD FLAT:??_R4CFiboTimeTool@@6B@	; CFiboTimeTool::`vftable'
	DD	FLAT:?Initialize@CMoveTool@@UAEXXZ
	DD	FLAT:?OnLButtonDown@CMoveTool@@UAEPAVCElement@@PAVCDC@@ABVCPoint@@@Z
	DD	FLAT:?OnLButtonUp@CFiboTimeTool@@UAEXPAVCDC@@ABVCPoint@@@Z
	DD	FLAT:?OnMouseMove@CMoveTool@@UAE_NPAVCDC@@ABVCPoint@@H@Z
	DD	FLAT:?OnRButtonUp@CTool@@UAEXPAVCDC@@ABVCPoint@@@Z
	DD	FLAT:?OnDraw@CMoveTool@@UAEXPAVCDC@@@Z
	DD	FLAT:?GetCoordinateCalculator@CTool@@UBEAAVCCoordinateCalculator@@XZ
	DD	FLAT:?PointInDrawingRegion@CMoveTool@@MBE_NABVCPoint@@@Z
	DD	FLAT:?SavePoints@CMoveTool@@MAEXABVCPoints@@@Z
	DD	FLAT:?GetToolType@CFiboTimeTool@@MBE?AW4TOOLTYPE@CAnalysis@@XZ
	DD	FLAT:?GetTextPosition@CFiboTimeTool@@MAEPAVCTextPosition@@XZ
	DD	FLAT:?GetTextPosition@CFiboTimeTool@@MBEPBVCTextPosition@@XZ
	DD	FLAT:?IsMakeElement@CTool@@MBE_NABVCPoint@@@Z
	DD	FLAT:?MakeElement@COnePointMoveTool@@MAEPAVCElement@@ABVCElementCommonEnvironment@@@Z
	DD	FLAT:?GetAnalysisData@CTool@@MBEPAVCAnalysisData@@XZ
	DD	FLAT:?DrawTool@COnePointMoveTool@@MAEXPAVCDC@@@Z
	DD	FLAT:?GetOnePointDrawer@CFiboTimeTool@@MAEAAVCOnePointDrawer@@XZ
CONST	ENDS
;	COMDAT ??_7CFiboRetraceTool@@6B@
CONST	SEGMENT
??_7CFiboRetraceTool@@6B@ DD FLAT:??_R4CFiboRetraceTool@@6B@ ; CFiboRetraceTool::`vftable'
	DD	FLAT:?Initialize@CDownTool@@UAEXXZ
	DD	FLAT:?OnLButtonDown@CTwoPointDownTool@@UAEPAVCElement@@PAVCDC@@ABVCPoint@@@Z
	DD	FLAT:?OnLButtonUp@COneOrTwoPointTool@@UAEXPAVCDC@@ABVCPoint@@@Z
	DD	FLAT:?OnMouseMove@COneOrTwoPointTool@@UAE_NPAVCDC@@ABVCPoint@@H@Z
	DD	FLAT:?OnRButtonUp@CTool@@UAEXPAVCDC@@ABVCPoint@@@Z
	DD	FLAT:?OnDraw@COneOrTwoPointTool@@UAEXPAVCDC@@@Z
	DD	FLAT:?GetCoordinateCalculator@CTool@@UBEAAVCCoordinateCalculator@@XZ
	DD	FLAT:?PointInDrawingRegion@CTwoPointDownTool@@MBE_NABVCPoint@@@Z
	DD	FLAT:?SavePoints@COneOrTwoPointTool@@MAEXABVCPoints@@@Z
	DD	FLAT:?GetToolType@CFiboRetraceTool@@MBE?AW4TOOLTYPE@CAnalysis@@XZ
	DD	FLAT:?GetTextPosition@CFiboRetraceTool@@MAEPAVCTextPosition@@XZ
	DD	FLAT:?GetTextPosition@CFiboRetraceTool@@MBEPBVCTextPosition@@XZ
	DD	FLAT:?IsMakeElement@CFiboRetraceTool@@MBE_NABVCPoint@@@Z
	DD	FLAT:?MakeElement@CTwoPointDownTool@@MAEPAVCElement@@ABVCElementCommonEnvironment@@@Z
	DD	FLAT:?GetAnalysisData@CTool@@MBEPAVCAnalysisData@@XZ
	DD	FLAT:?MouseMove@CTwoPointDownTool@@MAE_NPAVCDC@@ABVCPoint@@@Z
	DD	FLAT:?Draw_UpPoint@CTwoPointDownTool@@MAEXPAVCDC@@@Z
	DD	FLAT:?GetTwoPointDrawer@CFiboRetraceTool@@MAEAAVCTwoPointDrawer@@XZ
CONST	ENDS
;	COMDAT ??_7CFiboPenLineTool@@6B@
CONST	SEGMENT
??_7CFiboPenLineTool@@6B@ DD FLAT:??_R4CFiboPenLineTool@@6B@ ; CFiboPenLineTool::`vftable'
	DD	FLAT:?Initialize@CDownTool@@UAEXXZ
	DD	FLAT:?OnLButtonDown@CTwoPointDownTool@@UAEPAVCElement@@PAVCDC@@ABVCPoint@@@Z
	DD	FLAT:?OnLButtonUp@COneOrTwoPointTool@@UAEXPAVCDC@@ABVCPoint@@@Z
	DD	FLAT:?OnMouseMove@COneOrTwoPointTool@@UAE_NPAVCDC@@ABVCPoint@@H@Z
	DD	FLAT:?OnRButtonUp@CTool@@UAEXPAVCDC@@ABVCPoint@@@Z
	DD	FLAT:?OnDraw@COneOrTwoPointTool@@UAEXPAVCDC@@@Z
	DD	FLAT:?GetCoordinateCalculator@CTool@@UBEAAVCCoordinateCalculator@@XZ
	DD	FLAT:?PointInDrawingRegion@CTwoPointDownTool@@MBE_NABVCPoint@@@Z
	DD	FLAT:?SavePoints@COneOrTwoPointTool@@MAEXABVCPoints@@@Z
	DD	FLAT:?GetToolType@CFiboPenLineTool@@MBE?AW4TOOLTYPE@CAnalysis@@XZ
	DD	FLAT:?GetTextPosition@CFiboPenLineTool@@MAEPAVCTextPosition@@XZ
	DD	FLAT:?GetTextPosition@CFiboPenLineTool@@MBEPBVCTextPosition@@XZ
	DD	FLAT:?IsMakeElement@CTwoPointDownTool@@MBE_NABVCPoint@@@Z
	DD	FLAT:?MakeElement@CTwoPointDownTool@@MAEPAVCElement@@ABVCElementCommonEnvironment@@@Z
	DD	FLAT:?GetAnalysisData@CTool@@MBEPAVCAnalysisData@@XZ
	DD	FLAT:?MouseMove@CTwoPointDownTool@@MAE_NPAVCDC@@ABVCPoint@@@Z
	DD	FLAT:?Draw_UpPoint@CTwoPointDownTool@@MAEXPAVCDC@@@Z
	DD	FLAT:?GetTwoPointDrawer@CFiboPenLineTool@@MAEAAVCTwoPointDrawer@@XZ
CONST	ENDS
;	COMDAT ??_7CFiboCircleTool@@6B@
CONST	SEGMENT
??_7CFiboCircleTool@@6B@ DD FLAT:??_R4CFiboCircleTool@@6B@ ; CFiboCircleTool::`vftable'
	DD	FLAT:?Initialize@CDownTool@@UAEXXZ
	DD	FLAT:?OnLButtonDown@CTwoPointDownTool@@UAEPAVCElement@@PAVCDC@@ABVCPoint@@@Z
	DD	FLAT:?OnLButtonUp@COneOrTwoPointTool@@UAEXPAVCDC@@ABVCPoint@@@Z
	DD	FLAT:?OnMouseMove@COneOrTwoPointTool@@UAE_NPAVCDC@@ABVCPoint@@H@Z
	DD	FLAT:?OnRButtonUp@CTool@@UAEXPAVCDC@@ABVCPoint@@@Z
	DD	FLAT:?OnDraw@COneOrTwoPointTool@@UAEXPAVCDC@@@Z
	DD	FLAT:?GetCoordinateCalculator@CTool@@UBEAAVCCoordinateCalculator@@XZ
	DD	FLAT:?PointInDrawingRegion@CTwoPointDownTool@@MBE_NABVCPoint@@@Z
	DD	FLAT:?SavePoints@COneOrTwoPointTool@@MAEXABVCPoints@@@Z
	DD	FLAT:?GetToolType@CFiboCircleTool@@MBE?AW4TOOLTYPE@CAnalysis@@XZ
	DD	FLAT:?GetTextPosition@CFiboCircleTool@@MAEPAVCTextPosition@@XZ
	DD	FLAT:?GetTextPosition@CFiboCircleTool@@MBEPBVCTextPosition@@XZ
	DD	FLAT:?IsMakeElement@CTwoPointDownTool@@MBE_NABVCPoint@@@Z
	DD	FLAT:?MakeElement@CTwoPointDownTool@@MAEPAVCElement@@ABVCElementCommonEnvironment@@@Z
	DD	FLAT:?GetAnalysisData@CTool@@MBEPAVCAnalysisData@@XZ
	DD	FLAT:?MouseMove@CTwoPointDownTool@@MAE_NPAVCDC@@ABVCPoint@@@Z
	DD	FLAT:?Draw_UpPoint@CTwoPointDownTool@@MAEXPAVCDC@@@Z
	DD	FLAT:?GetTwoPointDrawer@CFiboCircleTool@@MAEAAVCTwoPointDrawer@@XZ
CONST	ENDS
;	COMDAT ??_7CFiboSemicircleTool@@6B@
CONST	SEGMENT
??_7CFiboSemicircleTool@@6B@ DD FLAT:??_R4CFiboSemicircleTool@@6B@ ; CFiboSemicircleTool::`vftable'
	DD	FLAT:?Initialize@CDownTool@@UAEXXZ
	DD	FLAT:?OnLButtonDown@CTwoPointDownTool@@UAEPAVCElement@@PAVCDC@@ABVCPoint@@@Z
	DD	FLAT:?OnLButtonUp@COneOrTwoPointTool@@UAEXPAVCDC@@ABVCPoint@@@Z
	DD	FLAT:?OnMouseMove@COneOrTwoPointTool@@UAE_NPAVCDC@@ABVCPoint@@H@Z
	DD	FLAT:?OnRButtonUp@CTool@@UAEXPAVCDC@@ABVCPoint@@@Z
	DD	FLAT:?OnDraw@COneOrTwoPointTool@@UAEXPAVCDC@@@Z
	DD	FLAT:?GetCoordinateCalculator@CTool@@UBEAAVCCoordinateCalculator@@XZ
	DD	FLAT:?PointInDrawingRegion@CTwoPointDownTool@@MBE_NABVCPoint@@@Z
	DD	FLAT:?SavePoints@COneOrTwoPointTool@@MAEXABVCPoints@@@Z
	DD	FLAT:?GetToolType@CFiboSemicircleTool@@MBE?AW4TOOLTYPE@CAnalysis@@XZ
	DD	FLAT:?GetTextPosition@CFiboSemicircleTool@@MAEPAVCTextPosition@@XZ
	DD	FLAT:?GetTextPosition@CFiboSemicircleTool@@MBEPBVCTextPosition@@XZ
	DD	FLAT:?IsMakeElement@CTwoPointDownTool@@MBE_NABVCPoint@@@Z
	DD	FLAT:?MakeElement@CTwoPointDownTool@@MAEPAVCElement@@ABVCElementCommonEnvironment@@@Z
	DD	FLAT:?GetAnalysisData@CTool@@MBEPAVCAnalysisData@@XZ
	DD	FLAT:?MouseMove@CTwoPointDownTool@@MAE_NPAVCDC@@ABVCPoint@@@Z
	DD	FLAT:?Draw_UpPoint@CTwoPointDownTool@@MAEXPAVCDC@@@Z
	DD	FLAT:?GetTwoPointDrawer@CFiboSemicircleTool@@MAEAAVCTwoPointDrawer@@XZ
CONST	ENDS
;	COMDAT ??_8CGannGridDrawer@@7B@
CONST	SEGMENT
??_8CGannGridDrawer@@7B@ DD 0fffffffcH			; CGannGridDrawer::`vbtable'
	DD	04H
CONST	ENDS
;	COMDAT ??_7CGannGridDrawer@@6B@
CONST	SEGMENT
??_7CGannGridDrawer@@6B@ DD FLAT:??_R4CGannGridDrawer@@6B@ ; CGannGridDrawer::`vftable'
	DD	FLAT:?IsDrawing@CTwoPointDrawer@@MBE_NABVCRect@@ABVCPoint@@1@Z
	DD	FLAT:?DrawShape@CGannDrawer@@UAEXPAVCDC@@ABVCTwoPointDrawingData@@ABVCPoint@@2@Z
	DD	FLAT:?DrawShadow@CTwoPointDrawer@@MAEXPAVCDC@@ABVCRect@@ABVCPoint@@2@Z
	DD	FLAT:?DrawTextA@CTwoPointDrawer@@MAEXPAVCDC@@ABVCTwoPointDrawingData@@@Z
	DD	FLAT:?DrawShape@CGannGridDrawer@@MAEXPAVCDC@@ABVCRect@@ABVCPoint@@2@Z
CONST	ENDS
;	COMDAT ??_8CGannFanDrawer@@7B@
CONST	SEGMENT
??_8CGannFanDrawer@@7B@ DD 0fffffffcH			; CGannFanDrawer::`vbtable'
	DD	04H
CONST	ENDS
;	COMDAT ??_7CGannFanDrawer@@6B@
CONST	SEGMENT
??_7CGannFanDrawer@@6B@ DD FLAT:??_R4CGannFanDrawer@@6B@ ; CGannFanDrawer::`vftable'
	DD	FLAT:?IsDrawing@CTwoPointDrawer@@MBE_NABVCRect@@ABVCPoint@@1@Z
	DD	FLAT:?DrawShape@CGannDrawer@@UAEXPAVCDC@@ABVCTwoPointDrawingData@@ABVCPoint@@2@Z
	DD	FLAT:?DrawShadow@CTwoPointDrawer@@MAEXPAVCDC@@ABVCRect@@ABVCPoint@@2@Z
	DD	FLAT:?DrawTextA@CGannFanDrawer@@MAEXPAVCDC@@ABVCTwoPointDrawingData@@@Z
	DD	FLAT:?DrawShape@CGannFanDrawer@@MAEXPAVCDC@@ABVCRect@@ABVCPoint@@2@Z
CONST	ENDS
;	COMDAT ??_8CGannLineDrawer@@7B@
CONST	SEGMENT
??_8CGannLineDrawer@@7B@ DD 0fffffffcH			; CGannLineDrawer::`vbtable'
	DD	04H
CONST	ENDS
;	COMDAT ??_7CGannLineDrawer@@6B@
CONST	SEGMENT
??_7CGannLineDrawer@@6B@ DD FLAT:??_R4CGannLineDrawer@@6B@ ; CGannLineDrawer::`vftable'
	DD	FLAT:?IsDrawing@CTwoPointDrawer@@MBE_NABVCRect@@ABVCPoint@@1@Z
	DD	FLAT:?DrawShape@CGannDrawer@@UAEXPAVCDC@@ABVCTwoPointDrawingData@@ABVCPoint@@2@Z
	DD	FLAT:?DrawShadow@CTwoPointDrawer@@MAEXPAVCDC@@ABVCRect@@ABVCPoint@@2@Z
	DD	FLAT:?DrawTextA@CTwoPointDrawer@@MAEXPAVCDC@@ABVCTwoPointDrawingData@@@Z
	DD	FLAT:?DrawShape@CGannLineDrawer@@MAEXPAVCDC@@ABVCRect@@ABVCPoint@@2@Z
CONST	ENDS
;	COMDAT ??_7CGannDrawer@@6B@
CONST	SEGMENT
??_7CGannDrawer@@6B@ DD FLAT:??_R4CGannDrawer@@6B@	; CGannDrawer::`vftable'
	DD	FLAT:?IsDrawing@CTwoPointDrawer@@MBE_NABVCRect@@ABVCPoint@@1@Z
	DD	FLAT:?DrawShape@CGannDrawer@@UAEXPAVCDC@@ABVCTwoPointDrawingData@@ABVCPoint@@2@Z
	DD	FLAT:?DrawShadow@CTwoPointDrawer@@MAEXPAVCDC@@ABVCRect@@ABVCPoint@@2@Z
	DD	FLAT:?DrawTextA@CTwoPointDrawer@@MAEXPAVCDC@@ABVCTwoPointDrawingData@@@Z
	DD	FLAT:__purecall
CONST	ENDS
;	COMDAT ??_8CFiboTimeDrawer@@7BCOnePointDrawer@@@
CONST	SEGMENT
??_8CFiboTimeDrawer@@7BCOnePointDrawer@@@ DD 0fffffffcH	; CFiboTimeDrawer::`vbtable'
	DD	0ffffffe4H
CONST	ENDS
;	COMDAT ??_8CFiboTimeDrawer@@7BCVertLineDrawer@@@
CONST	SEGMENT
??_8CFiboTimeDrawer@@7BCVertLineDrawer@@@ DD 00H	; CFiboTimeDrawer::`vbtable'
	DD	024H
	DD	03cH
CONST	ENDS
;	COMDAT ??_7CFiboTimeDrawer@@6B@
CONST	SEGMENT
??_7CFiboTimeDrawer@@6B@ DD FLAT:??_R4CFiboTimeDrawer@@6B@ ; CFiboTimeDrawer::`vftable'
	DD	FLAT:?IsDrawing@CFiboTimeDrawer@@$2PPPPPPPM@A@BE_NABVCRect@@ABVCPoint@@@Z
	DD	FLAT:?DrawShape@CFiboTimeDrawer@@$2PPPPPPPM@A@AEXPAVCDC@@ABVCOnePointDrawingData@@ABVCDisplayData@@ABVCPoint@@_N@Z
	DD	FLAT:?DrawShadow@COnePointDrawer@@MAEXPAVCDC@@ABVCDisplayData@@ABVCPoint@@_N@Z
	DD	FLAT:?DrawTextA@CFiboTimeDrawer@@$2PPPPPPPM@A@AEXPAVCDC@@ABVCOnePointDrawingData@@@Z
	DD	FLAT:?GetGripRegion@CVertLineDrawer@@$2PPPPPPPM@BI@AE?AVCRect@@ABV2@ABVCPoint@@@Z
CONST	ENDS
;	COMDAT ??_8CFiboRetraceDrawer@@7B@
CONST	SEGMENT
??_8CFiboRetraceDrawer@@7B@ DD 0fffffffcH		; CFiboRetraceDrawer::`vbtable'
	DD	01cH
CONST	ENDS
;	COMDAT ??_7CFiboRetraceDrawer@@6B@
CONST	SEGMENT
??_7CFiboRetraceDrawer@@6B@ DD FLAT:??_R4CFiboRetraceDrawer@@6B@ ; CFiboRetraceDrawer::`vftable'
	DD	FLAT:?IsDrawing@CTwoPointDrawer@@MBE_NABVCRect@@ABVCPoint@@1@Z
	DD	FLAT:?DrawShape@CFiboDrawer@@UAEXPAVCDC@@ABVCTwoPointDrawingData@@ABVCPoint@@2@Z
	DD	FLAT:?DrawShadow@CFiboDrawer@@UAEXPAVCDC@@ABVCRect@@ABVCPoint@@2@Z
	DD	FLAT:?DrawTextA@CFiboRetraceDrawer@@MAEXPAVCDC@@ABVCTwoPointDrawingData@@@Z
	DD	FLAT:?GetCount@CFiboDrawer@@UBEHXZ
	DD	FLAT:?GetCoefficient@CFiboDrawer@@MBENH@Z
	DD	FLAT:?DrawFiboShape@CFiboRetraceDrawer@@MAE_NPAVCDC@@HABVCTwoPointDrawingData@@@Z
	DD	FLAT:?DrawFiboShape@CFiboRetraceDrawer@@MAE_NPAVCDC@@ABVCRect@@ABVCPoint@@2HHH@Z
CONST	ENDS
;	COMDAT ??_8CFiboPenLineDrawer@@7B@
CONST	SEGMENT
??_8CFiboPenLineDrawer@@7B@ DD 0fffffffcH		; CFiboPenLineDrawer::`vbtable'
	DD	01cH
CONST	ENDS
;	COMDAT ??_7CFiboPenLineDrawer@@6B@
CONST	SEGMENT
??_7CFiboPenLineDrawer@@6B@ DD FLAT:??_R4CFiboPenLineDrawer@@6B@ ; CFiboPenLineDrawer::`vftable'
	DD	FLAT:?IsDrawing@CTwoPointDrawer@@MBE_NABVCRect@@ABVCPoint@@1@Z
	DD	FLAT:?DrawShape@CFiboDrawer@@UAEXPAVCDC@@ABVCTwoPointDrawingData@@ABVCPoint@@2@Z
	DD	FLAT:?DrawShadow@CFiboDrawer@@UAEXPAVCDC@@ABVCRect@@ABVCPoint@@2@Z
	DD	FLAT:?DrawTextA@CFiboPenLineDrawer@@UAEXPAVCDC@@ABVCTwoPointDrawingData@@@Z
	DD	FLAT:?GetCount@CFiboDrawer@@UBEHXZ
	DD	FLAT:?GetCoefficient@CFiboDrawer@@MBENH@Z
	DD	FLAT:?DrawFiboShape@CFiboPenLineDrawer@@MAE_NPAVCDC@@HABVCTwoPointDrawingData@@@Z
	DD	FLAT:?DrawFiboShape@CFiboPenLineDrawer@@MAE_NPAVCDC@@ABVCRect@@ABVCPoint@@2HHH@Z
CONST	ENDS
;	COMDAT ??_8CFiboCircleDrawer@@7B@
CONST	SEGMENT
??_8CFiboCircleDrawer@@7B@ DD 0fffffffcH		; CFiboCircleDrawer::`vbtable'
	DD	01cH
CONST	ENDS
;	COMDAT ??_7CFiboCircleDrawer@@6B@
CONST	SEGMENT
??_7CFiboCircleDrawer@@6B@ DD FLAT:??_R4CFiboCircleDrawer@@6B@ ; CFiboCircleDrawer::`vftable'
	DD	FLAT:?IsDrawing@CTwoPointDrawer@@MBE_NABVCRect@@ABVCPoint@@1@Z
	DD	FLAT:?DrawShape@CFiboDrawer@@UAEXPAVCDC@@ABVCTwoPointDrawingData@@ABVCPoint@@2@Z
	DD	FLAT:?DrawShadow@CFiboDrawer@@UAEXPAVCDC@@ABVCRect@@ABVCPoint@@2@Z
	DD	FLAT:?DrawTextA@CFiboCircleDrawer@@MAEXPAVCDC@@ABVCTwoPointDrawingData@@@Z
	DD	FLAT:?GetCount@CFiboDrawer@@UBEHXZ
	DD	FLAT:?GetCoefficient@CFiboDrawer@@MBENH@Z
	DD	FLAT:?DrawFiboShape@CFiboArcDrawer@@MAE_NPAVCDC@@HABVCTwoPointDrawingData@@@Z
	DD	FLAT:?DrawFiboShape@CFiboArcDrawer@@MAE_NPAVCDC@@ABVCRect@@ABVCPoint@@2HHH@Z
	DD	FLAT:?DrawArc@CFiboCircleDrawer@@MAEXPAVCDC@@ABVCRect@@HH@Z
CONST	ENDS
;	COMDAT ??_8CFiboSemicircleDrawer@@7B@
CONST	SEGMENT
??_8CFiboSemicircleDrawer@@7B@ DD 0fffffffcH		; CFiboSemicircleDrawer::`vbtable'
	DD	01cH
CONST	ENDS
;	COMDAT ??_7CFiboSemicircleDrawer@@6B@
CONST	SEGMENT
??_7CFiboSemicircleDrawer@@6B@ DD FLAT:??_R4CFiboSemicircleDrawer@@6B@ ; CFiboSemicircleDrawer::`vftable'
	DD	FLAT:?IsDrawing@CTwoPointDrawer@@MBE_NABVCRect@@ABVCPoint@@1@Z
	DD	FLAT:?DrawShape@CFiboDrawer@@UAEXPAVCDC@@ABVCTwoPointDrawingData@@ABVCPoint@@2@Z
	DD	FLAT:?DrawShadow@CFiboDrawer@@UAEXPAVCDC@@ABVCRect@@ABVCPoint@@2@Z
	DD	FLAT:?DrawTextA@CFiboSemicircleDrawer@@MAEXPAVCDC@@ABVCTwoPointDrawingData@@@Z
	DD	FLAT:?GetCount@CFiboDrawer@@UBEHXZ
	DD	FLAT:?GetCoefficient@CFiboDrawer@@MBENH@Z
	DD	FLAT:?DrawFiboShape@CFiboArcDrawer@@MAE_NPAVCDC@@HABVCTwoPointDrawingData@@@Z
	DD	FLAT:?DrawFiboShape@CFiboArcDrawer@@MAE_NPAVCDC@@ABVCRect@@ABVCPoint@@2HHH@Z
	DD	FLAT:?DrawArc@CFiboSemicircleDrawer@@MAEXPAVCDC@@ABVCRect@@HH@Z
CONST	ENDS
;	COMDAT ??_7CFiboArcDrawer@@6B@
CONST	SEGMENT
??_7CFiboArcDrawer@@6B@ DD FLAT:??_R4CFiboArcDrawer@@6B@ ; CFiboArcDrawer::`vftable'
	DD	FLAT:?IsDrawing@CTwoPointDrawer@@MBE_NABVCRect@@ABVCPoint@@1@Z
	DD	FLAT:?DrawShape@CFiboDrawer@@UAEXPAVCDC@@ABVCTwoPointDrawingData@@ABVCPoint@@2@Z
	DD	FLAT:?DrawShadow@CFiboDrawer@@UAEXPAVCDC@@ABVCRect@@ABVCPoint@@2@Z
	DD	FLAT:?DrawTextA@CTwoPointDrawer@@MAEXPAVCDC@@ABVCTwoPointDrawingData@@@Z
	DD	FLAT:?GetCount@CFiboDrawer@@UBEHXZ
	DD	FLAT:?GetCoefficient@CFiboDrawer@@MBENH@Z
	DD	FLAT:?DrawFiboShape@CFiboArcDrawer@@MAE_NPAVCDC@@HABVCTwoPointDrawingData@@@Z
	DD	FLAT:?DrawFiboShape@CFiboArcDrawer@@MAE_NPAVCDC@@ABVCRect@@ABVCPoint@@2HHH@Z
	DD	FLAT:__purecall
CONST	ENDS
;	COMDAT ??_7CFiboDrawer@@6B@
CONST	SEGMENT
??_7CFiboDrawer@@6B@ DD FLAT:??_R4CFiboDrawer@@6B@	; CFiboDrawer::`vftable'
	DD	FLAT:?IsDrawing@CTwoPointDrawer@@MBE_NABVCRect@@ABVCPoint@@1@Z
	DD	FLAT:?DrawShape@CFiboDrawer@@UAEXPAVCDC@@ABVCTwoPointDrawingData@@ABVCPoint@@2@Z
	DD	FLAT:?DrawShadow@CFiboDrawer@@UAEXPAVCDC@@ABVCRect@@ABVCPoint@@2@Z
	DD	FLAT:?DrawTextA@CTwoPointDrawer@@MAEXPAVCDC@@ABVCTwoPointDrawingData@@@Z
	DD	FLAT:?GetCount@CFiboDrawer@@UBEHXZ
	DD	FLAT:?GetCoefficient@CFiboDrawer@@MBENH@Z
	DD	FLAT:__purecall
	DD	FLAT:__purecall
CONST	ENDS
;	COMDAT ??_7CTwoPointDrawer@@6B@
CONST	SEGMENT
??_7CTwoPointDrawer@@6B@ DD FLAT:??_R4CTwoPointDrawer@@6B@ ; CTwoPointDrawer::`vftable'
	DD	FLAT:?IsDrawing@CTwoPointDrawer@@MBE_NABVCRect@@ABVCPoint@@1@Z
	DD	FLAT:__purecall
	DD	FLAT:?DrawShadow@CTwoPointDrawer@@MAEXPAVCDC@@ABVCRect@@ABVCPoint@@2@Z
	DD	FLAT:?DrawTextA@CTwoPointDrawer@@MAEXPAVCDC@@ABVCTwoPointDrawingData@@@Z
CONST	ENDS
;	COMDAT ??_7COnePointDrawer@@6B@
CONST	SEGMENT
??_7COnePointDrawer@@6B@ DD FLAT:??_R4COnePointDrawer@@6B@ ; COnePointDrawer::`vftable'
	DD	FLAT:__purecall
	DD	FLAT:__purecall
	DD	FLAT:?DrawShadow@COnePointDrawer@@MAEXPAVCDC@@ABVCDisplayData@@ABVCPoint@@_N@Z
	DD	FLAT:?DrawTextA@COnePointDrawer@@MAEXPAVCDC@@ABVCOnePointDrawingData@@@Z
	DD	FLAT:__purecall
CONST	ENDS
;	COMDAT xdata$x
xdata$x	SEGMENT
__unwindtable$??0CGannGridTool@@QAE@PAVCAnalysisData@@W4COORDINATETYPE@CAnalysis@@@Z DD 0ffffffffH
	DD	FLAT:___std_terminate
__ehfuncinfo$??0CGannGridTool@@QAE@PAVCAnalysisData@@W4COORDINATETYPE@CAnalysis@@@Z DD 019930522H
	DD	01H
	DD	FLAT:__unwindtable$??0CGannGridTool@@QAE@PAVCAnalysisData@@W4COORDINATETYPE@CAnalysis@@@Z
	DD	2 DUP(00H)
	DD	2 DUP(00H)
	DD	00H
	DD	01H
xdata$x	ENDS
;	COMDAT xdata$x
xdata$x	SEGMENT
__unwindtable$?GetTwoPoints@CGannFan315Tool@@MBE?AVCPoints@@XZ DD 0ffffffffH
	DD	FLAT:__unwindfunclet$?GetTwoPoints@CGannFan315Tool@@MBE?AVCPoints@@XZ$0
__ehfuncinfo$?GetTwoPoints@CGannFan315Tool@@MBE?AVCPoints@@XZ DD 019930522H
	DD	01H
	DD	FLAT:__unwindtable$?GetTwoPoints@CGannFan315Tool@@MBE?AVCPoints@@XZ
	DD	2 DUP(00H)
	DD	2 DUP(00H)
	DD	00H
	DD	01H
xdata$x	ENDS
;	COMDAT xdata$x
xdata$x	SEGMENT
__unwindtable$?GetTwoPoints@CGannFan225Tool@@MBE?AVCPoints@@XZ DD 0ffffffffH
	DD	FLAT:__unwindfunclet$?GetTwoPoints@CGannFan225Tool@@MBE?AVCPoints@@XZ$0
__ehfuncinfo$?GetTwoPoints@CGannFan225Tool@@MBE?AVCPoints@@XZ DD 019930522H
	DD	01H
	DD	FLAT:__unwindtable$?GetTwoPoints@CGannFan225Tool@@MBE?AVCPoints@@XZ
	DD	2 DUP(00H)
	DD	2 DUP(00H)
	DD	00H
	DD	01H
xdata$x	ENDS
;	COMDAT xdata$x
xdata$x	SEGMENT
__unwindtable$?GetTwoPoints@CGannFan135Tool@@MBE?AVCPoints@@XZ DD 0ffffffffH
	DD	FLAT:__unwindfunclet$?GetTwoPoints@CGannFan135Tool@@MBE?AVCPoints@@XZ$0
__ehfuncinfo$?GetTwoPoints@CGannFan135Tool@@MBE?AVCPoints@@XZ DD 019930522H
	DD	01H
	DD	FLAT:__unwindtable$?GetTwoPoints@CGannFan135Tool@@MBE?AVCPoints@@XZ
	DD	2 DUP(00H)
	DD	2 DUP(00H)
	DD	00H
	DD	01H
xdata$x	ENDS
;	COMDAT xdata$x
xdata$x	SEGMENT
__unwindtable$??0CGannFanTool@@QAE@PAVCAnalysisData@@W4COORDINATETYPE@CAnalysis@@@Z DD 0ffffffffH
	DD	FLAT:__unwindfunclet$??0CGannFanTool@@QAE@PAVCAnalysisData@@W4COORDINATETYPE@CAnalysis@@@Z$0
	DD	00H
	DD	FLAT:___std_terminate
	DD	01H
	DD	FLAT:___std_terminate
__ehfuncinfo$??0CGannFanTool@@QAE@PAVCAnalysisData@@W4COORDINATETYPE@CAnalysis@@@Z DD 019930522H
	DD	03H
	DD	FLAT:__unwindtable$??0CGannFanTool@@QAE@PAVCAnalysisData@@W4COORDINATETYPE@CAnalysis@@@Z
	DD	2 DUP(00H)
	DD	2 DUP(00H)
	DD	00H
	DD	01H
xdata$x	ENDS
;	COMDAT xdata$x
xdata$x	SEGMENT
__unwindtable$?GetTwoPoints@CGannLine315Tool@@MBE?AVCPoints@@XZ DD 0ffffffffH
	DD	FLAT:__unwindfunclet$?GetTwoPoints@CGannLine315Tool@@MBE?AVCPoints@@XZ$0
__ehfuncinfo$?GetTwoPoints@CGannLine315Tool@@MBE?AVCPoints@@XZ DD 019930522H
	DD	01H
	DD	FLAT:__unwindtable$?GetTwoPoints@CGannLine315Tool@@MBE?AVCPoints@@XZ
	DD	2 DUP(00H)
	DD	2 DUP(00H)
	DD	00H
	DD	01H
xdata$x	ENDS
;	COMDAT xdata$x
xdata$x	SEGMENT
__unwindtable$??0CGannLine315Tool@@QAE@PAVCAnalysisData@@W4COORDINATETYPE@CAnalysis@@@Z DD 0ffffffffH
	DD	FLAT:___std_terminate
__ehfuncinfo$??0CGannLine315Tool@@QAE@PAVCAnalysisData@@W4COORDINATETYPE@CAnalysis@@@Z DD 019930522H
	DD	01H
	DD	FLAT:__unwindtable$??0CGannLine315Tool@@QAE@PAVCAnalysisData@@W4COORDINATETYPE@CAnalysis@@@Z
	DD	2 DUP(00H)
	DD	2 DUP(00H)
	DD	00H
	DD	01H
xdata$x	ENDS
;	COMDAT xdata$x
xdata$x	SEGMENT
__unwindtable$??0CGannLine45Tool@@QAE@PAVCAnalysisData@@W4COORDINATETYPE@CAnalysis@@@Z DD 0ffffffffH
	DD	FLAT:___std_terminate
__ehfuncinfo$??0CGannLine45Tool@@QAE@PAVCAnalysisData@@W4COORDINATETYPE@CAnalysis@@@Z DD 019930522H
	DD	01H
	DD	FLAT:__unwindtable$??0CGannLine45Tool@@QAE@PAVCAnalysisData@@W4COORDINATETYPE@CAnalysis@@@Z
	DD	2 DUP(00H)
	DD	2 DUP(00H)
	DD	00H
	DD	01H
xdata$x	ENDS
;	COMDAT xdata$x
xdata$x	SEGMENT
__unwindtable$??0CGannLineTool@@QAE@PAVCAnalysisData@@W4COORDINATETYPE@CAnalysis@@@Z DD 0ffffffffH
	DD	FLAT:___std_terminate
__ehfuncinfo$??0CGannLineTool@@QAE@PAVCAnalysisData@@W4COORDINATETYPE@CAnalysis@@@Z DD 019930522H
	DD	01H
	DD	FLAT:__unwindtable$??0CGannLineTool@@QAE@PAVCAnalysisData@@W4COORDINATETYPE@CAnalysis@@@Z
	DD	2 DUP(00H)
	DD	2 DUP(00H)
	DD	00H
	DD	01H
xdata$x	ENDS
;	COMDAT xdata$x
xdata$x	SEGMENT
__unwindtable$?GetTwoPoints@CGannTool@@MBE?AVCPoints@@XZ DD 0ffffffffH
	DD	FLAT:__unwindfunclet$?GetTwoPoints@CGannTool@@MBE?AVCPoints@@XZ$0
__ehfuncinfo$?GetTwoPoints@CGannTool@@MBE?AVCPoints@@XZ DD 019930522H
	DD	01H
	DD	FLAT:__unwindtable$?GetTwoPoints@CGannTool@@MBE?AVCPoints@@XZ
	DD	2 DUP(00H)
	DD	2 DUP(00H)
	DD	00H
	DD	01H
xdata$x	ENDS
;	COMDAT xdata$x
xdata$x	SEGMENT
__unwindtable$??0CFiboTimeTool@@QAE@PAVCAnalysisData@@W4COORDINATETYPE@CAnalysis@@@Z DD 0ffffffffH
	DD	FLAT:__unwindfunclet$??0CFiboTimeTool@@QAE@PAVCAnalysisData@@W4COORDINATETYPE@CAnalysis@@@Z$0
__ehfuncinfo$??0CFiboTimeTool@@QAE@PAVCAnalysisData@@W4COORDINATETYPE@CAnalysis@@@Z DD 019930522H
	DD	01H
	DD	FLAT:__unwindtable$??0CFiboTimeTool@@QAE@PAVCAnalysisData@@W4COORDINATETYPE@CAnalysis@@@Z
	DD	2 DUP(00H)
	DD	2 DUP(00H)
	DD	00H
	DD	01H
xdata$x	ENDS
;	COMDAT xdata$x
xdata$x	SEGMENT
__unwindtable$?IsMakeElement@CFiboRetraceTool@@MBE_NABVCPoint@@@Z DD 0ffffffffH
	DD	FLAT:__unwindfunclet$?IsMakeElement@CFiboRetraceTool@@MBE_NABVCPoint@@@Z$0
__ehfuncinfo$?IsMakeElement@CFiboRetraceTool@@MBE_NABVCPoint@@@Z DD 019930522H
	DD	01H
	DD	FLAT:__unwindtable$?IsMakeElement@CFiboRetraceTool@@MBE_NABVCPoint@@@Z
	DD	2 DUP(00H)
	DD	2 DUP(00H)
	DD	00H
	DD	01H
xdata$x	ENDS
;	COMDAT xdata$x
xdata$x	SEGMENT
__unwindtable$??0CFiboRetraceTool@@QAE@PAVCAnalysisData@@W4COORDINATETYPE@CAnalysis@@@Z DD 0ffffffffH
	DD	FLAT:__unwindfunclet$??0CFiboRetraceTool@@QAE@PAVCAnalysisData@@W4COORDINATETYPE@CAnalysis@@@Z$0
__ehfuncinfo$??0CFiboRetraceTool@@QAE@PAVCAnalysisData@@W4COORDINATETYPE@CAnalysis@@@Z DD 019930522H
	DD	01H
	DD	FLAT:__unwindtable$??0CFiboRetraceTool@@QAE@PAVCAnalysisData@@W4COORDINATETYPE@CAnalysis@@@Z
	DD	2 DUP(00H)
	DD	2 DUP(00H)
	DD	00H
	DD	01H
xdata$x	ENDS
;	COMDAT xdata$x
xdata$x	SEGMENT
__unwindtable$??0CFiboPenLineTool@@QAE@PAVCAnalysisData@@W4COORDINATETYPE@CAnalysis@@@Z DD 0ffffffffH
	DD	FLAT:__unwindfunclet$??0CFiboPenLineTool@@QAE@PAVCAnalysisData@@W4COORDINATETYPE@CAnalysis@@@Z$0
__ehfuncinfo$??0CFiboPenLineTool@@QAE@PAVCAnalysisData@@W4COORDINATETYPE@CAnalysis@@@Z DD 019930522H
	DD	01H
	DD	FLAT:__unwindtable$??0CFiboPenLineTool@@QAE@PAVCAnalysisData@@W4COORDINATETYPE@CAnalysis@@@Z
	DD	2 DUP(00H)
	DD	2 DUP(00H)
	DD	00H
	DD	01H
xdata$x	ENDS
;	COMDAT xdata$x
xdata$x	SEGMENT
__unwindtable$??0CFiboCircleTool@@QAE@PAVCAnalysisData@@W4COORDINATETYPE@CAnalysis@@@Z DD 0ffffffffH
	DD	FLAT:__unwindfunclet$??0CFiboCircleTool@@QAE@PAVCAnalysisData@@W4COORDINATETYPE@CAnalysis@@@Z$0
__ehfuncinfo$??0CFiboCircleTool@@QAE@PAVCAnalysisData@@W4COORDINATETYPE@CAnalysis@@@Z DD 019930522H
	DD	01H
	DD	FLAT:__unwindtable$??0CFiboCircleTool@@QAE@PAVCAnalysisData@@W4COORDINATETYPE@CAnalysis@@@Z
	DD	2 DUP(00H)
	DD	2 DUP(00H)
	DD	00H
	DD	01H
xdata$x	ENDS
;	COMDAT xdata$x
xdata$x	SEGMENT
__unwindtable$??0CFiboSemicircleTool@@QAE@PAVCAnalysisData@@W4COORDINATETYPE@CAnalysis@@@Z DD 0ffffffffH
	DD	FLAT:__unwindfunclet$??0CFiboSemicircleTool@@QAE@PAVCAnalysisData@@W4COORDINATETYPE@CAnalysis@@@Z$0
__ehfuncinfo$??0CFiboSemicircleTool@@QAE@PAVCAnalysisData@@W4COORDINATETYPE@CAnalysis@@@Z DD 019930522H
	DD	01H
	DD	FLAT:__unwindtable$??0CFiboSemicircleTool@@QAE@PAVCAnalysisData@@W4COORDINATETYPE@CAnalysis@@@Z
	DD	2 DUP(00H)
	DD	2 DUP(00H)
	DD	00H
	DD	01H
xdata$x	ENDS
;	COMDAT xdata$x
xdata$x	SEGMENT
__ehfuncinfo$??0CGannGridDrawer@@QAE@XZ DD 019930522H
	DD	00H
	DD	00H
	DD	2 DUP(00H)
	DD	2 DUP(00H)
	DD	00H
	DD	05H
xdata$x	ENDS
;	COMDAT xdata$x
xdata$x	SEGMENT
__unwindtable$??0CGannFanDrawer@@QAE@XZ DD 0ffffffffH
	DD	FLAT:___std_terminate
__ehfuncinfo$??0CGannFanDrawer@@QAE@XZ DD 019930522H
	DD	01H
	DD	FLAT:__unwindtable$??0CGannFanDrawer@@QAE@XZ
	DD	2 DUP(00H)
	DD	2 DUP(00H)
	DD	00H
	DD	05H
xdata$x	ENDS
;	COMDAT xdata$x
xdata$x	SEGMENT
__ehfuncinfo$??0CGannLineDrawer@@QAE@XZ DD 019930522H
	DD	00H
	DD	00H
	DD	2 DUP(00H)
	DD	2 DUP(00H)
	DD	00H
	DD	05H
xdata$x	ENDS
; Function compile flags: /Odsp
;	COMDAT ?GetGripRegion@CVertLineDrawer@@$2PPPPPPPM@BI@AE?AVCRect@@ABV2@ABVCPoint@@@Z
_TEXT	SEGMENT
?GetGripRegion@CVertLineDrawer@@$2PPPPPPPM@BI@AE?AVCRect@@ABV2@ABVCPoint@@@Z PROC ; CVertLineDrawer::GetGripRegion, COMDAT
  00000	2b 49 fc	 sub	 ecx, DWORD PTR [ecx-4]
  00003	83 e9 18	 sub	 ecx, 24			; 00000018H
  00006	e9 00 00 00 00	 jmp	 ?GetGripRegion@CVertLineDrawer@@MAE?AVCRect@@ABV2@ABVCPoint@@@Z ; CVertLineDrawer::GetGripRegion
?GetGripRegion@CVertLineDrawer@@$2PPPPPPPM@BI@AE?AVCRect@@ABV2@ABVCPoint@@@Z ENDP ; CVertLineDrawer::GetGripRegion
_TEXT	ENDS
; Function compile flags: /Odsp
;	COMDAT ?DrawTextA@CFiboTimeDrawer@@$2PPPPPPPM@A@AEXPAVCDC@@ABVCOnePointDrawingData@@@Z
_TEXT	SEGMENT
?DrawTextA@CFiboTimeDrawer@@$2PPPPPPPM@A@AEXPAVCDC@@ABVCOnePointDrawingData@@@Z PROC ; CFiboTimeDrawer::DrawTextA, COMDAT
  00000	2b 49 fc	 sub	 ecx, DWORD PTR [ecx-4]
  00003	e9 00 00 00 00	 jmp	 ?DrawTextA@CFiboTimeDrawer@@MAEXPAVCDC@@ABVCOnePointDrawingData@@@Z ; CFiboTimeDrawer::DrawTextA
?DrawTextA@CFiboTimeDrawer@@$2PPPPPPPM@A@AEXPAVCDC@@ABVCOnePointDrawingData@@@Z ENDP ; CFiboTimeDrawer::DrawTextA
_TEXT	ENDS
; Function compile flags: /Odsp
;	COMDAT ?DrawShape@CFiboTimeDrawer@@$2PPPPPPPM@A@AEXPAVCDC@@ABVCOnePointDrawingData@@ABVCDisplayData@@ABVCPoint@@_N@Z
_TEXT	SEGMENT
?DrawShape@CFiboTimeDrawer@@$2PPPPPPPM@A@AEXPAVCDC@@ABVCOnePointDrawingData@@ABVCDisplayData@@ABVCPoint@@_N@Z PROC ; CFiboTimeDrawer::DrawShape, COMDAT
  00000	2b 49 fc	 sub	 ecx, DWORD PTR [ecx-4]
  00003	e9 00 00 00 00	 jmp	 ?DrawShape@CFiboTimeDrawer@@MAEXPAVCDC@@ABVCOnePointDrawingData@@ABVCDisplayData@@ABVCPoint@@_N@Z ; CFiboTimeDrawer::DrawShape
?DrawShape@CFiboTimeDrawer@@$2PPPPPPPM@A@AEXPAVCDC@@ABVCOnePointDrawingData@@ABVCDisplayData@@ABVCPoint@@_N@Z ENDP ; CFiboTimeDrawer::DrawShape
_TEXT	ENDS
; Function compile flags: /Odsp
;	COMDAT ?IsDrawing@CFiboTimeDrawer@@$2PPPPPPPM@A@BE_NABVCRect@@ABVCPoint@@@Z
_TEXT	SEGMENT
?IsDrawing@CFiboTimeDrawer@@$2PPPPPPPM@A@BE_NABVCRect@@ABVCPoint@@@Z PROC ; CFiboTimeDrawer::IsDrawing, COMDAT
  00000	2b 49 fc	 sub	 ecx, DWORD PTR [ecx-4]
  00003	e9 00 00 00 00	 jmp	 ?IsDrawing@CFiboTimeDrawer@@MBE_NABVCRect@@ABVCPoint@@@Z ; CFiboTimeDrawer::IsDrawing
?IsDrawing@CFiboTimeDrawer@@$2PPPPPPPM@A@BE_NABVCRect@@ABVCPoint@@@Z ENDP ; CFiboTimeDrawer::IsDrawing
_TEXT	ENDS
; Function compile flags: /Ogtp
; File D:\git\src\IBK\IBK_DRFN\ProjSrc\SrcChartEx\ChartAddIn\ChartAnalysisToolAddIn\AnalysisTool\FiboGannTool.cpp
;	COMDAT ?GetGannDrawer@CGannGridTool@@MBEABVCGannDrawer@@XZ
_TEXT	SEGMENT
?GetGannDrawer@CGannGridTool@@MBEABVCGannDrawer@@XZ PROC ; CGannGridTool::GetGannDrawer, COMDAT
; _this$ = ecx

; 451  : 	return m_gannGridDrawer;

  00000	8d 81 b0 00 00
	00		 lea	 eax, DWORD PTR [ecx+176]

; 452  : }

  00006	c3		 ret	 0
?GetGannDrawer@CGannGridTool@@MBEABVCGannDrawer@@XZ ENDP ; CGannGridTool::GetGannDrawer
_TEXT	ENDS
; Function compile flags: /Ogtp
; File D:\git\src\IBK\IBK_DRFN\ProjSrc\SrcChartEx\ChartAddIn\ChartAnalysisToolAddIn\AnalysisTool\FiboGannTool.cpp
;	COMDAT ?GetTwoPointDrawer@CGannGridTool@@MAEAAVCTwoPointDrawer@@XZ
_TEXT	SEGMENT
?GetTwoPointDrawer@CGannGridTool@@MAEAAVCTwoPointDrawer@@XZ PROC ; CGannGridTool::GetTwoPointDrawer, COMDAT
; _this$ = ecx

; 446  : 	return m_gannGridDrawer;

  00000	8d 81 b0 00 00
	00		 lea	 eax, DWORD PTR [ecx+176]

; 447  : }

  00006	c3		 ret	 0
?GetTwoPointDrawer@CGannGridTool@@MAEAAVCTwoPointDrawer@@XZ ENDP ; CGannGridTool::GetTwoPointDrawer
_TEXT	ENDS
; Function compile flags: /Ogtp
; File D:\git\src\IBK\IBK_DRFN\ProjSrc\SrcChartEx\ChartAddIn\ChartAnalysisToolAddIn\AnalysisTool\FiboGannTool.cpp
;	COMDAT ?GetToolType@CGannGridTool@@MBE?AW4TOOLTYPE@CAnalysis@@XZ
_TEXT	SEGMENT
?GetToolType@CGannGridTool@@MBE?AW4TOOLTYPE@CAnalysis@@XZ PROC ; CGannGridTool::GetToolType, COMDAT
; _this$ = ecx

; 441  : 	return CAnalysis::EN_ANALYSIS_GANN_GRID;

  00000	b8 13 00 00 00	 mov	 eax, 19			; 00000013H

; 442  : }

  00005	c3		 ret	 0
?GetToolType@CGannGridTool@@MBE?AW4TOOLTYPE@CAnalysis@@XZ ENDP ; CGannGridTool::GetToolType
_TEXT	ENDS
; Function compile flags: /Ogtp
; File D:\git\src\IBK\IBK_DRFN\ProjSrc\SrcChartEx\ChartAddIn\ChartAnalysisToolAddIn\AnalysisTool\FiboGannTool.cpp
;	COMDAT ??0CGannGridTool@@QAE@PAVCAnalysisData@@W4COORDINATETYPE@CAnalysis@@@Z
_TEXT	SEGMENT
_this$ = -16						; size = 4
__$EHRec$ = -12						; size = 12
_pAnalysisData$ = 8					; size = 4
_eCoordinateType$ = 12					; size = 4
??0CGannGridTool@@QAE@PAVCAnalysisData@@W4COORDINATETYPE@CAnalysis@@@Z PROC ; CGannGridTool::CGannGridTool, COMDAT
; _this$ = ecx

; 435  : {

  00000	55		 push	 ebp
  00001	8b ec		 mov	 ebp, esp
  00003	6a ff		 push	 -1
  00005	68 00 00 00 00	 push	 __ehhandler$??0CGannGridTool@@QAE@PAVCAnalysisData@@W4COORDINATETYPE@CAnalysis@@@Z
  0000a	64 a1 00 00 00
	00		 mov	 eax, DWORD PTR fs:0
  00010	50		 push	 eax
  00011	51		 push	 ecx
  00012	56		 push	 esi
  00013	a1 00 00 00 00	 mov	 eax, DWORD PTR ___security_cookie
  00018	33 c5		 xor	 eax, ebp
  0001a	50		 push	 eax
  0001b	8d 45 f4	 lea	 eax, DWORD PTR __$EHRec$[ebp]
  0001e	64 a3 00 00 00
	00		 mov	 DWORD PTR fs:0, eax
  00024	8b f1		 mov	 esi, ecx
  00026	89 75 f0	 mov	 DWORD PTR _this$[ebp], esi

; 246  : 	: CTwoPointMoveTool(pAnalysisData, eCoordinateType)

  00029	ff 75 0c	 push	 DWORD PTR _eCoordinateType$[ebp]
  0002c	ff 75 08	 push	 DWORD PTR _pAnalysisData$[ebp]
  0002f	e8 00 00 00 00	 call	 ??0CTwoPointMoveTool@@IAE@PAVCAnalysisData@@W4COORDINATETYPE@CAnalysis@@@Z ; CTwoPointMoveTool::CTwoPointMoveTool

; 435  : {

  00034	c7 06 00 00 00
	00		 mov	 DWORD PTR [esi], OFFSET ??_7CGannGridTool@@6B@
  0003a	8d 8e b8 00 00
	00		 lea	 ecx, DWORD PTR [esi+184]
  00040	c7 45 fc 00 00
	00 00		 mov	 DWORD PTR __$EHRec$[ebp+8], 0
  00047	c7 86 b4 00 00
	00 00 00 00 00	 mov	 DWORD PTR [esi+180], OFFSET ??_8CGannGridDrawer@@7B@
  00051	e8 00 00 00 00	 call	 ??0CDrawer@@QAE@XZ	; CDrawer::CDrawer
  00056	c7 86 b0 00 00
	00 00 00 00 00	 mov	 DWORD PTR [esi+176], OFFSET ??_7CGannGridDrawer@@6B@

; 436  : }

  00060	8b c6		 mov	 eax, esi
  00062	8b 4d f4	 mov	 ecx, DWORD PTR __$EHRec$[ebp]
  00065	64 89 0d 00 00
	00 00		 mov	 DWORD PTR fs:0, ecx
  0006c	59		 pop	 ecx
  0006d	5e		 pop	 esi
  0006e	8b e5		 mov	 esp, ebp
  00070	5d		 pop	 ebp
  00071	c2 08 00	 ret	 8
  00074	cc		 int	 3
  00075	cc		 int	 3
  00076	cc		 int	 3
  00077	cc		 int	 3
  00078	cc		 int	 3
_TEXT	ENDS
;	COMDAT text$x
text$x	SEGMENT
__ehhandler$??0CGannGridTool@@QAE@PAVCAnalysisData@@W4COORDINATETYPE@CAnalysis@@@Z:
  00000	90		 npad	 1
  00001	90		 npad	 1
  00002	8b 54 24 08	 mov	 edx, DWORD PTR [esp+8]
  00006	8d 42 0c	 lea	 eax, DWORD PTR [edx+12]
  00009	8b 4a f4	 mov	 ecx, DWORD PTR [edx-12]
  0000c	33 c8		 xor	 ecx, eax
  0000e	e8 00 00 00 00	 call	 @__security_check_cookie@4
  00013	b8 00 00 00 00	 mov	 eax, OFFSET __ehfuncinfo$??0CGannGridTool@@QAE@PAVCAnalysisData@@W4COORDINATETYPE@CAnalysis@@@Z
  00018	e9 00 00 00 00	 jmp	 ___CxxFrameHandler3
text$x	ENDS
??0CGannGridTool@@QAE@PAVCAnalysisData@@W4COORDINATETYPE@CAnalysis@@@Z ENDP ; CGannGridTool::CGannGridTool
; Function compile flags: /Ogtp
; File D:\git\src\IBK\IBK_DRFN\ProjSrc\SrcChartEx\ChartAddIn\ChartAnalysisToolAddIn\AnalysisTool\FiboGannTool.cpp
;	COMDAT ?GetTwoPoints@CGannFan315Tool@@MBE?AVCPoints@@XZ
_TEXT	SEGMENT
$T2 = -60						; size = 40
$T3 = -20						; size = 8
__$EHRec$ = -12						; size = 12
___$ReturnUdt$ = 8					; size = 4
?GetTwoPoints@CGannFan315Tool@@MBE?AVCPoints@@XZ PROC	; CGannFan315Tool::GetTwoPoints, COMDAT
; _this$ = ecx

; 426  : {

  00000	55		 push	 ebp
  00001	8b ec		 mov	 ebp, esp
  00003	6a ff		 push	 -1
  00005	68 00 00 00 00	 push	 __ehhandler$?GetTwoPoints@CGannFan315Tool@@MBE?AVCPoints@@XZ
  0000a	64 a1 00 00 00
	00		 mov	 eax, DWORD PTR fs:0
  00010	50		 push	 eax
  00011	83 ec 30	 sub	 esp, 48			; 00000030H
  00014	57		 push	 edi
  00015	a1 00 00 00 00	 mov	 eax, DWORD PTR ___security_cookie
  0001a	33 c5		 xor	 eax, ebp
  0001c	50		 push	 eax
  0001d	8d 45 f4	 lea	 eax, DWORD PTR __$EHRec$[ebp]
  00020	64 a3 00 00 00
	00		 mov	 DWORD PTR fs:0, eax
  00026	8b f9		 mov	 edi, ecx

; 427  : 	return CTwoPointMoveTool::GetPoints(CMoveTool::GetPoints().GetDrawingPoint(), -45);

  00028	8d 45 c4	 lea	 eax, DWORD PTR $T2[ebp]
  0002b	50		 push	 eax
  0002c	e8 00 00 00 00	 call	 ?GetPoints@CMoveTool@@IBE?AVCPoints@@XZ ; CMoveTool::GetPoints
  00031	6a 0c		 push	 12			; 0000000cH
  00033	6a d3		 push	 -45			; ffffffd3H
  00035	8d 4d ec	 lea	 ecx, DWORD PTR $T3[ebp]
  00038	c7 45 fc 00 00
	00 00		 mov	 DWORD PTR __$EHRec$[ebp+8], 0
  0003f	51		 push	 ecx
  00040	8b c8		 mov	 ecx, eax
  00042	e8 00 00 00 00	 call	 ?GetDrawingPoint@CPoints@@QBE?AVCPoint@@XZ ; CPoints::GetDrawingPoint
  00047	50		 push	 eax
  00048	ff 75 08	 push	 DWORD PTR ___$ReturnUdt$[ebp]
  0004b	8b cf		 mov	 ecx, edi
  0004d	e8 00 00 00 00	 call	 ?GetPoints@CTwoPointMoveTool@@IBE?AVCPoints@@ABVCPoint@@HH@Z ; CTwoPointMoveTool::GetPoints
  00052	8d 4d d8	 lea	 ecx, DWORD PTR $T2[ebp+20]
  00055	ff 15 00 00 00
	00		 call	 DWORD PTR __imp_??1?$CStringT@DV?$StrTraitMFC_DLL@DV?$ChTraitsCRT@D@ATL@@@@@ATL@@QAE@XZ
  0005b	8b 45 08	 mov	 eax, DWORD PTR ___$ReturnUdt$[ebp]

; 428  : }

  0005e	8b 4d f4	 mov	 ecx, DWORD PTR __$EHRec$[ebp]
  00061	64 89 0d 00 00
	00 00		 mov	 DWORD PTR fs:0, ecx
  00068	59		 pop	 ecx
  00069	5f		 pop	 edi
  0006a	8b e5		 mov	 esp, ebp
  0006c	5d		 pop	 ebp
  0006d	c2 04 00	 ret	 4
_TEXT	ENDS
;	COMDAT text$x
text$x	SEGMENT
__unwindfunclet$?GetTwoPoints@CGannFan315Tool@@MBE?AVCPoints@@XZ$0:
  00000	8d 4d c4	 lea	 ecx, DWORD PTR $T2[ebp]
  00003	e9 00 00 00 00	 jmp	 ??1CPoints@@QAE@XZ
  00008	cc		 int	 3
  00009	cc		 int	 3
  0000a	cc		 int	 3
  0000b	cc		 int	 3
  0000c	cc		 int	 3
__ehhandler$?GetTwoPoints@CGannFan315Tool@@MBE?AVCPoints@@XZ:
  0000d	90		 npad	 1
  0000e	90		 npad	 1
  0000f	8b 54 24 08	 mov	 edx, DWORD PTR [esp+8]
  00013	8d 42 0c	 lea	 eax, DWORD PTR [edx+12]
  00016	8b 4a c8	 mov	 ecx, DWORD PTR [edx-56]
  00019	33 c8		 xor	 ecx, eax
  0001b	e8 00 00 00 00	 call	 @__security_check_cookie@4
  00020	b8 00 00 00 00	 mov	 eax, OFFSET __ehfuncinfo$?GetTwoPoints@CGannFan315Tool@@MBE?AVCPoints@@XZ
  00025	e9 00 00 00 00	 jmp	 ___CxxFrameHandler3
text$x	ENDS
?GetTwoPoints@CGannFan315Tool@@MBE?AVCPoints@@XZ ENDP	; CGannFan315Tool::GetTwoPoints
; Function compile flags: /Ogtp
; File D:\git\src\IBK\IBK_DRFN\ProjSrc\SrcChartEx\ChartAddIn\ChartAnalysisToolAddIn\AnalysisTool\FiboGannTool.cpp
;	COMDAT ?GetToolType@CGannFan315Tool@@MBE?AW4TOOLTYPE@CAnalysis@@XZ
_TEXT	SEGMENT
?GetToolType@CGannFan315Tool@@MBE?AW4TOOLTYPE@CAnalysis@@XZ PROC ; CGannFan315Tool::GetToolType, COMDAT
; _this$ = ecx

; 422  : 	return CAnalysis::EN_ANALYSIS_GANN_FAN315;

  00000	b8 12 00 00 00	 mov	 eax, 18			; 00000012H

; 423  : }

  00005	c3		 ret	 0
?GetToolType@CGannFan315Tool@@MBE?AW4TOOLTYPE@CAnalysis@@XZ ENDP ; CGannFan315Tool::GetToolType
_TEXT	ENDS
; Function compile flags: /Ogtp
; File D:\git\src\IBK\IBK_DRFN\ProjSrc\SrcChartEx\ChartAddIn\ChartAnalysisToolAddIn\AnalysisTool\FiboGannTool.cpp
;	COMDAT ??0CGannFan315Tool@@QAE@PAVCAnalysisData@@W4COORDINATETYPE@CAnalysis@@@Z
_TEXT	SEGMENT
_this$ = -4						; size = 4
_pAnalysisData$ = 8					; size = 4
_eCoordinateType$ = 12					; size = 4
??0CGannFan315Tool@@QAE@PAVCAnalysisData@@W4COORDINATETYPE@CAnalysis@@@Z PROC ; CGannFan315Tool::CGannFan315Tool, COMDAT
; _this$ = ecx

; 416  : {

  00000	55		 push	 ebp
  00001	8b ec		 mov	 ebp, esp
  00003	51		 push	 ecx
  00004	56		 push	 esi
  00005	ff 75 0c	 push	 DWORD PTR _eCoordinateType$[ebp]
  00008	8b f1		 mov	 esi, ecx
  0000a	ff 75 08	 push	 DWORD PTR _pAnalysisData$[ebp]
  0000d	89 75 fc	 mov	 DWORD PTR _this$[ebp], esi
  00010	e8 00 00 00 00	 call	 ??0CGannFanTool@@QAE@PAVCAnalysisData@@W4COORDINATETYPE@CAnalysis@@@Z ; CGannFanTool::CGannFanTool
  00015	c7 06 00 00 00
	00		 mov	 DWORD PTR [esi], OFFSET ??_7CGannFan315Tool@@6B@

; 417  : }

  0001b	8b c6		 mov	 eax, esi
  0001d	5e		 pop	 esi
  0001e	8b e5		 mov	 esp, ebp
  00020	5d		 pop	 ebp
  00021	c2 08 00	 ret	 8
??0CGannFan315Tool@@QAE@PAVCAnalysisData@@W4COORDINATETYPE@CAnalysis@@@Z ENDP ; CGannFan315Tool::CGannFan315Tool
_TEXT	ENDS
; Function compile flags: /Ogtp
; File D:\git\src\IBK\IBK_DRFN\ProjSrc\SrcChartEx\ChartAddIn\ChartAnalysisToolAddIn\AnalysisTool\FiboGannTool.cpp
;	COMDAT ?GetTwoPoints@CGannFan225Tool@@MBE?AVCPoints@@XZ
_TEXT	SEGMENT
$T2 = -60						; size = 40
$T3 = -20						; size = 8
__$EHRec$ = -12						; size = 12
___$ReturnUdt$ = 8					; size = 4
?GetTwoPoints@CGannFan225Tool@@MBE?AVCPoints@@XZ PROC	; CGannFan225Tool::GetTwoPoints, COMDAT
; _this$ = ecx

; 406  : {

  00000	55		 push	 ebp
  00001	8b ec		 mov	 ebp, esp
  00003	6a ff		 push	 -1
  00005	68 00 00 00 00	 push	 __ehhandler$?GetTwoPoints@CGannFan225Tool@@MBE?AVCPoints@@XZ
  0000a	64 a1 00 00 00
	00		 mov	 eax, DWORD PTR fs:0
  00010	50		 push	 eax
  00011	83 ec 30	 sub	 esp, 48			; 00000030H
  00014	57		 push	 edi
  00015	a1 00 00 00 00	 mov	 eax, DWORD PTR ___security_cookie
  0001a	33 c5		 xor	 eax, ebp
  0001c	50		 push	 eax
  0001d	8d 45 f4	 lea	 eax, DWORD PTR __$EHRec$[ebp]
  00020	64 a3 00 00 00
	00		 mov	 DWORD PTR fs:0, eax
  00026	8b f9		 mov	 edi, ecx

; 407  : 	return CTwoPointMoveTool::GetPoints(CMoveTool::GetPoints().GetDrawingPoint(), 225, -8);

  00028	8d 45 c4	 lea	 eax, DWORD PTR $T2[ebp]
  0002b	50		 push	 eax
  0002c	e8 00 00 00 00	 call	 ?GetPoints@CMoveTool@@IBE?AVCPoints@@XZ ; CMoveTool::GetPoints
  00031	6a f8		 push	 -8			; fffffff8H
  00033	68 e1 00 00 00	 push	 225			; 000000e1H
  00038	8d 4d ec	 lea	 ecx, DWORD PTR $T3[ebp]
  0003b	c7 45 fc 00 00
	00 00		 mov	 DWORD PTR __$EHRec$[ebp+8], 0
  00042	51		 push	 ecx
  00043	8b c8		 mov	 ecx, eax
  00045	e8 00 00 00 00	 call	 ?GetDrawingPoint@CPoints@@QBE?AVCPoint@@XZ ; CPoints::GetDrawingPoint
  0004a	50		 push	 eax
  0004b	ff 75 08	 push	 DWORD PTR ___$ReturnUdt$[ebp]
  0004e	8b cf		 mov	 ecx, edi
  00050	e8 00 00 00 00	 call	 ?GetPoints@CTwoPointMoveTool@@IBE?AVCPoints@@ABVCPoint@@HH@Z ; CTwoPointMoveTool::GetPoints
  00055	8d 4d d8	 lea	 ecx, DWORD PTR $T2[ebp+20]
  00058	ff 15 00 00 00
	00		 call	 DWORD PTR __imp_??1?$CStringT@DV?$StrTraitMFC_DLL@DV?$ChTraitsCRT@D@ATL@@@@@ATL@@QAE@XZ
  0005e	8b 45 08	 mov	 eax, DWORD PTR ___$ReturnUdt$[ebp]

; 408  : }

  00061	8b 4d f4	 mov	 ecx, DWORD PTR __$EHRec$[ebp]
  00064	64 89 0d 00 00
	00 00		 mov	 DWORD PTR fs:0, ecx
  0006b	59		 pop	 ecx
  0006c	5f		 pop	 edi
  0006d	8b e5		 mov	 esp, ebp
  0006f	5d		 pop	 ebp
  00070	c2 04 00	 ret	 4
_TEXT	ENDS
;	COMDAT text$x
text$x	SEGMENT
__unwindfunclet$?GetTwoPoints@CGannFan225Tool@@MBE?AVCPoints@@XZ$0:
  00000	8d 4d c4	 lea	 ecx, DWORD PTR $T2[ebp]
  00003	e9 00 00 00 00	 jmp	 ??1CPoints@@QAE@XZ
  00008	cc		 int	 3
  00009	cc		 int	 3
  0000a	cc		 int	 3
  0000b	cc		 int	 3
  0000c	cc		 int	 3
__ehhandler$?GetTwoPoints@CGannFan225Tool@@MBE?AVCPoints@@XZ:
  0000d	90		 npad	 1
  0000e	90		 npad	 1
  0000f	8b 54 24 08	 mov	 edx, DWORD PTR [esp+8]
  00013	8d 42 0c	 lea	 eax, DWORD PTR [edx+12]
  00016	8b 4a c8	 mov	 ecx, DWORD PTR [edx-56]
  00019	33 c8		 xor	 ecx, eax
  0001b	e8 00 00 00 00	 call	 @__security_check_cookie@4
  00020	b8 00 00 00 00	 mov	 eax, OFFSET __ehfuncinfo$?GetTwoPoints@CGannFan225Tool@@MBE?AVCPoints@@XZ
  00025	e9 00 00 00 00	 jmp	 ___CxxFrameHandler3
text$x	ENDS
?GetTwoPoints@CGannFan225Tool@@MBE?AVCPoints@@XZ ENDP	; CGannFan225Tool::GetTwoPoints
; Function compile flags: /Ogtp
; File D:\git\src\IBK\IBK_DRFN\ProjSrc\SrcChartEx\ChartAddIn\ChartAnalysisToolAddIn\AnalysisTool\FiboGannTool.cpp
;	COMDAT ?GetToolType@CGannFan225Tool@@MBE?AW4TOOLTYPE@CAnalysis@@XZ
_TEXT	SEGMENT
?GetToolType@CGannFan225Tool@@MBE?AW4TOOLTYPE@CAnalysis@@XZ PROC ; CGannFan225Tool::GetToolType, COMDAT
; _this$ = ecx

; 402  : 	return CAnalysis::EN_ANALYSIS_GANN_FAN225;

  00000	b8 11 00 00 00	 mov	 eax, 17			; 00000011H

; 403  : }

  00005	c3		 ret	 0
?GetToolType@CGannFan225Tool@@MBE?AW4TOOLTYPE@CAnalysis@@XZ ENDP ; CGannFan225Tool::GetToolType
_TEXT	ENDS
; Function compile flags: /Ogtp
; File D:\git\src\IBK\IBK_DRFN\ProjSrc\SrcChartEx\ChartAddIn\ChartAnalysisToolAddIn\AnalysisTool\FiboGannTool.cpp
;	COMDAT ??0CGannFan225Tool@@QAE@PAVCAnalysisData@@W4COORDINATETYPE@CAnalysis@@@Z
_TEXT	SEGMENT
_this$ = -4						; size = 4
_pAnalysisData$ = 8					; size = 4
_eCoordinateType$ = 12					; size = 4
??0CGannFan225Tool@@QAE@PAVCAnalysisData@@W4COORDINATETYPE@CAnalysis@@@Z PROC ; CGannFan225Tool::CGannFan225Tool, COMDAT
; _this$ = ecx

; 396  : {

  00000	55		 push	 ebp
  00001	8b ec		 mov	 ebp, esp
  00003	51		 push	 ecx
  00004	56		 push	 esi
  00005	ff 75 0c	 push	 DWORD PTR _eCoordinateType$[ebp]
  00008	8b f1		 mov	 esi, ecx
  0000a	ff 75 08	 push	 DWORD PTR _pAnalysisData$[ebp]
  0000d	89 75 fc	 mov	 DWORD PTR _this$[ebp], esi
  00010	e8 00 00 00 00	 call	 ??0CGannFanTool@@QAE@PAVCAnalysisData@@W4COORDINATETYPE@CAnalysis@@@Z ; CGannFanTool::CGannFanTool
  00015	c7 06 00 00 00
	00		 mov	 DWORD PTR [esi], OFFSET ??_7CGannFan225Tool@@6B@

; 397  : }

  0001b	8b c6		 mov	 eax, esi
  0001d	5e		 pop	 esi
  0001e	8b e5		 mov	 esp, ebp
  00020	5d		 pop	 ebp
  00021	c2 08 00	 ret	 8
??0CGannFan225Tool@@QAE@PAVCAnalysisData@@W4COORDINATETYPE@CAnalysis@@@Z ENDP ; CGannFan225Tool::CGannFan225Tool
_TEXT	ENDS
; Function compile flags: /Ogtp
; File D:\git\src\IBK\IBK_DRFN\ProjSrc\SrcChartEx\ChartAddIn\ChartAnalysisToolAddIn\AnalysisTool\FiboGannTool.cpp
;	COMDAT ?GetTwoPoints@CGannFan135Tool@@MBE?AVCPoints@@XZ
_TEXT	SEGMENT
$T2 = -60						; size = 40
$T3 = -20						; size = 8
__$EHRec$ = -12						; size = 12
___$ReturnUdt$ = 8					; size = 4
?GetTwoPoints@CGannFan135Tool@@MBE?AVCPoints@@XZ PROC	; CGannFan135Tool::GetTwoPoints, COMDAT
; _this$ = ecx

; 387  : {

  00000	55		 push	 ebp
  00001	8b ec		 mov	 ebp, esp
  00003	6a ff		 push	 -1
  00005	68 00 00 00 00	 push	 __ehhandler$?GetTwoPoints@CGannFan135Tool@@MBE?AVCPoints@@XZ
  0000a	64 a1 00 00 00
	00		 mov	 eax, DWORD PTR fs:0
  00010	50		 push	 eax
  00011	83 ec 30	 sub	 esp, 48			; 00000030H
  00014	57		 push	 edi
  00015	a1 00 00 00 00	 mov	 eax, DWORD PTR ___security_cookie
  0001a	33 c5		 xor	 eax, ebp
  0001c	50		 push	 eax
  0001d	8d 45 f4	 lea	 eax, DWORD PTR __$EHRec$[ebp]
  00020	64 a3 00 00 00
	00		 mov	 DWORD PTR fs:0, eax
  00026	8b f9		 mov	 edi, ecx

; 388  : 	return CTwoPointMoveTool::GetPoints(CMoveTool::GetPoints().GetDrawingPoint(), 135, -8);

  00028	8d 45 c4	 lea	 eax, DWORD PTR $T2[ebp]
  0002b	50		 push	 eax
  0002c	e8 00 00 00 00	 call	 ?GetPoints@CMoveTool@@IBE?AVCPoints@@XZ ; CMoveTool::GetPoints
  00031	6a f8		 push	 -8			; fffffff8H
  00033	68 87 00 00 00	 push	 135			; 00000087H
  00038	8d 4d ec	 lea	 ecx, DWORD PTR $T3[ebp]
  0003b	c7 45 fc 00 00
	00 00		 mov	 DWORD PTR __$EHRec$[ebp+8], 0
  00042	51		 push	 ecx
  00043	8b c8		 mov	 ecx, eax
  00045	e8 00 00 00 00	 call	 ?GetDrawingPoint@CPoints@@QBE?AVCPoint@@XZ ; CPoints::GetDrawingPoint
  0004a	50		 push	 eax
  0004b	ff 75 08	 push	 DWORD PTR ___$ReturnUdt$[ebp]
  0004e	8b cf		 mov	 ecx, edi
  00050	e8 00 00 00 00	 call	 ?GetPoints@CTwoPointMoveTool@@IBE?AVCPoints@@ABVCPoint@@HH@Z ; CTwoPointMoveTool::GetPoints
  00055	8d 4d d8	 lea	 ecx, DWORD PTR $T2[ebp+20]
  00058	ff 15 00 00 00
	00		 call	 DWORD PTR __imp_??1?$CStringT@DV?$StrTraitMFC_DLL@DV?$ChTraitsCRT@D@ATL@@@@@ATL@@QAE@XZ
  0005e	8b 45 08	 mov	 eax, DWORD PTR ___$ReturnUdt$[ebp]

; 389  : }

  00061	8b 4d f4	 mov	 ecx, DWORD PTR __$EHRec$[ebp]
  00064	64 89 0d 00 00
	00 00		 mov	 DWORD PTR fs:0, ecx
  0006b	59		 pop	 ecx
  0006c	5f		 pop	 edi
  0006d	8b e5		 mov	 esp, ebp
  0006f	5d		 pop	 ebp
  00070	c2 04 00	 ret	 4
_TEXT	ENDS
;	COMDAT text$x
text$x	SEGMENT
__unwindfunclet$?GetTwoPoints@CGannFan135Tool@@MBE?AVCPoints@@XZ$0:
  00000	8d 4d c4	 lea	 ecx, DWORD PTR $T2[ebp]
  00003	e9 00 00 00 00	 jmp	 ??1CPoints@@QAE@XZ
  00008	cc		 int	 3
  00009	cc		 int	 3
  0000a	cc		 int	 3
  0000b	cc		 int	 3
  0000c	cc		 int	 3
__ehhandler$?GetTwoPoints@CGannFan135Tool@@MBE?AVCPoints@@XZ:
  0000d	90		 npad	 1
  0000e	90		 npad	 1
  0000f	8b 54 24 08	 mov	 edx, DWORD PTR [esp+8]
  00013	8d 42 0c	 lea	 eax, DWORD PTR [edx+12]
  00016	8b 4a c8	 mov	 ecx, DWORD PTR [edx-56]
  00019	33 c8		 xor	 ecx, eax
  0001b	e8 00 00 00 00	 call	 @__security_check_cookie@4
  00020	b8 00 00 00 00	 mov	 eax, OFFSET __ehfuncinfo$?GetTwoPoints@CGannFan135Tool@@MBE?AVCPoints@@XZ
  00025	e9 00 00 00 00	 jmp	 ___CxxFrameHandler3
text$x	ENDS
?GetTwoPoints@CGannFan135Tool@@MBE?AVCPoints@@XZ ENDP	; CGannFan135Tool::GetTwoPoints
; Function compile flags: /Ogtp
; File D:\git\src\IBK\IBK_DRFN\ProjSrc\SrcChartEx\ChartAddIn\ChartAnalysisToolAddIn\AnalysisTool\FiboGannTool.cpp
;	COMDAT ?GetToolType@CGannFan135Tool@@MBE?AW4TOOLTYPE@CAnalysis@@XZ
_TEXT	SEGMENT
?GetToolType@CGannFan135Tool@@MBE?AW4TOOLTYPE@CAnalysis@@XZ PROC ; CGannFan135Tool::GetToolType, COMDAT
; _this$ = ecx

; 383  : 	return CAnalysis::EN_ANALYSIS_GANN_FAN135;

  00000	b8 10 00 00 00	 mov	 eax, 16			; 00000010H

; 384  : }

  00005	c3		 ret	 0
?GetToolType@CGannFan135Tool@@MBE?AW4TOOLTYPE@CAnalysis@@XZ ENDP ; CGannFan135Tool::GetToolType
_TEXT	ENDS
; Function compile flags: /Ogtp
; File D:\git\src\IBK\IBK_DRFN\ProjSrc\SrcChartEx\ChartAddIn\ChartAnalysisToolAddIn\AnalysisTool\FiboGannTool.cpp
;	COMDAT ??0CGannFan135Tool@@QAE@PAVCAnalysisData@@W4COORDINATETYPE@CAnalysis@@@Z
_TEXT	SEGMENT
_this$ = -4						; size = 4
_pAnalysisData$ = 8					; size = 4
_eCoordinateType$ = 12					; size = 4
??0CGannFan135Tool@@QAE@PAVCAnalysisData@@W4COORDINATETYPE@CAnalysis@@@Z PROC ; CGannFan135Tool::CGannFan135Tool, COMDAT
; _this$ = ecx

; 377  : {

  00000	55		 push	 ebp
  00001	8b ec		 mov	 ebp, esp
  00003	51		 push	 ecx
  00004	56		 push	 esi
  00005	ff 75 0c	 push	 DWORD PTR _eCoordinateType$[ebp]
  00008	8b f1		 mov	 esi, ecx
  0000a	ff 75 08	 push	 DWORD PTR _pAnalysisData$[ebp]
  0000d	89 75 fc	 mov	 DWORD PTR _this$[ebp], esi
  00010	e8 00 00 00 00	 call	 ??0CGannFanTool@@QAE@PAVCAnalysisData@@W4COORDINATETYPE@CAnalysis@@@Z ; CGannFanTool::CGannFanTool
  00015	c7 06 00 00 00
	00		 mov	 DWORD PTR [esi], OFFSET ??_7CGannFan135Tool@@6B@

; 378  : }

  0001b	8b c6		 mov	 eax, esi
  0001d	5e		 pop	 esi
  0001e	8b e5		 mov	 esp, ebp
  00020	5d		 pop	 ebp
  00021	c2 08 00	 ret	 8
??0CGannFan135Tool@@QAE@PAVCAnalysisData@@W4COORDINATETYPE@CAnalysis@@@Z ENDP ; CGannFan135Tool::CGannFan135Tool
_TEXT	ENDS
; Function compile flags: /Ogtp
; File D:\git\src\IBK\IBK_DRFN\ProjSrc\SrcChartEx\ChartAddIn\ChartAnalysisToolAddIn\AnalysisTool\FiboGannTool.cpp
;	COMDAT ?GetToolType@CGannFan45Tool@@MBE?AW4TOOLTYPE@CAnalysis@@XZ
_TEXT	SEGMENT
?GetToolType@CGannFan45Tool@@MBE?AW4TOOLTYPE@CAnalysis@@XZ PROC ; CGannFan45Tool::GetToolType, COMDAT
; _this$ = ecx

; 369  : 	return CAnalysis::EN_ANALYSIS_GANN_FAN45;

  00000	b8 0f 00 00 00	 mov	 eax, 15			; 0000000fH

; 370  : }

  00005	c3		 ret	 0
?GetToolType@CGannFan45Tool@@MBE?AW4TOOLTYPE@CAnalysis@@XZ ENDP ; CGannFan45Tool::GetToolType
_TEXT	ENDS
; Function compile flags: /Ogtp
; File D:\git\src\IBK\IBK_DRFN\ProjSrc\SrcChartEx\ChartAddIn\ChartAnalysisToolAddIn\AnalysisTool\FiboGannTool.cpp
;	COMDAT ??0CGannFan45Tool@@QAE@PAVCAnalysisData@@W4COORDINATETYPE@CAnalysis@@@Z
_TEXT	SEGMENT
_this$ = -4						; size = 4
_pAnalysisData$ = 8					; size = 4
_eCoordinateType$ = 12					; size = 4
??0CGannFan45Tool@@QAE@PAVCAnalysisData@@W4COORDINATETYPE@CAnalysis@@@Z PROC ; CGannFan45Tool::CGannFan45Tool, COMDAT
; _this$ = ecx

; 363  : {

  00000	55		 push	 ebp
  00001	8b ec		 mov	 ebp, esp
  00003	51		 push	 ecx
  00004	56		 push	 esi
  00005	ff 75 0c	 push	 DWORD PTR _eCoordinateType$[ebp]
  00008	8b f1		 mov	 esi, ecx
  0000a	ff 75 08	 push	 DWORD PTR _pAnalysisData$[ebp]
  0000d	89 75 fc	 mov	 DWORD PTR _this$[ebp], esi
  00010	e8 00 00 00 00	 call	 ??0CGannFanTool@@QAE@PAVCAnalysisData@@W4COORDINATETYPE@CAnalysis@@@Z ; CGannFanTool::CGannFanTool
  00015	c7 06 00 00 00
	00		 mov	 DWORD PTR [esi], OFFSET ??_7CGannFan45Tool@@6B@

; 364  : }

  0001b	8b c6		 mov	 eax, esi
  0001d	5e		 pop	 esi
  0001e	8b e5		 mov	 esp, ebp
  00020	5d		 pop	 ebp
  00021	c2 08 00	 ret	 8
??0CGannFan45Tool@@QAE@PAVCAnalysisData@@W4COORDINATETYPE@CAnalysis@@@Z ENDP ; CGannFan45Tool::CGannFan45Tool
_TEXT	ENDS
; Function compile flags: /Ogtp
; File D:\git\src\IBK\IBK_DRFN\ProjSrc\SrcChartEx\ChartAddIn\ChartAnalysisToolAddIn\AnalysisTool\FiboGannTool.cpp
;	COMDAT ?GetGannDrawer@CGannFanTool@@MBEABVCGannDrawer@@XZ
_TEXT	SEGMENT
?GetGannDrawer@CGannFanTool@@MBEABVCGannDrawer@@XZ PROC	; CGannFanTool::GetGannDrawer, COMDAT
; _this$ = ecx

; 346  : 	return m_gannFanDrawer;

  00000	8d 81 bc 00 00
	00		 lea	 eax, DWORD PTR [ecx+188]

; 347  : }

  00006	c3		 ret	 0
?GetGannDrawer@CGannFanTool@@MBEABVCGannDrawer@@XZ ENDP	; CGannFanTool::GetGannDrawer
_TEXT	ENDS
; Function compile flags: /Ogtp
; File D:\git\src\IBK\IBK_DRFN\ProjSrc\SrcChartEx\ChartAddIn\ChartAnalysisToolAddIn\AnalysisTool\FiboGannTool.cpp
;	COMDAT ?GetTextPosition@CGannFanTool@@MAEPAVCTextPosition@@XZ
_TEXT	SEGMENT
?GetTextPosition@CGannFanTool@@MAEPAVCTextPosition@@XZ PROC ; CGannFanTool::GetTextPosition, COMDAT
; _this$ = ecx

; 356  : 	return &m_textPosition;

  00000	8d 81 b0 00 00
	00		 lea	 eax, DWORD PTR [ecx+176]

; 357  : }

  00006	c3		 ret	 0
?GetTextPosition@CGannFanTool@@MAEPAVCTextPosition@@XZ ENDP ; CGannFanTool::GetTextPosition
_TEXT	ENDS
; Function compile flags: /Ogtp
; File D:\git\src\IBK\IBK_DRFN\ProjSrc\SrcChartEx\ChartAddIn\ChartAnalysisToolAddIn\AnalysisTool\FiboGannTool.cpp
;	COMDAT ?GetTextPosition@CGannFanTool@@MBEPBVCTextPosition@@XZ
_TEXT	SEGMENT
?GetTextPosition@CGannFanTool@@MBEPBVCTextPosition@@XZ PROC ; CGannFanTool::GetTextPosition, COMDAT
; _this$ = ecx

; 351  : 	return &m_textPosition;

  00000	8d 81 b0 00 00
	00		 lea	 eax, DWORD PTR [ecx+176]

; 352  : }

  00006	c3		 ret	 0
?GetTextPosition@CGannFanTool@@MBEPBVCTextPosition@@XZ ENDP ; CGannFanTool::GetTextPosition
_TEXT	ENDS
; Function compile flags: /Ogtp
; File D:\git\src\IBK\IBK_DRFN\ProjSrc\SrcChartEx\ChartAddIn\ChartAnalysisToolAddIn\AnalysisTool\FiboGannTool.cpp
;	COMDAT ?GetTwoPointDrawer@CGannFanTool@@MAEAAVCTwoPointDrawer@@XZ
_TEXT	SEGMENT
?GetTwoPointDrawer@CGannFanTool@@MAEAAVCTwoPointDrawer@@XZ PROC ; CGannFanTool::GetTwoPointDrawer, COMDAT
; _this$ = ecx

; 341  : 	return m_gannFanDrawer;

  00000	8d 81 bc 00 00
	00		 lea	 eax, DWORD PTR [ecx+188]

; 342  : }

  00006	c3		 ret	 0
?GetTwoPointDrawer@CGannFanTool@@MAEAAVCTwoPointDrawer@@XZ ENDP ; CGannFanTool::GetTwoPointDrawer
_TEXT	ENDS
; Function compile flags: /Ogtp
; File D:\git\src\IBK\IBK_DRFN\ProjSrc\SrcChartEx\ChartAddIn\ChartAnalysisToolAddIn\AnalysisTool\FiboGannTool.cpp
;	COMDAT ?SetTextPosition@CGannFanTool@@QAEX_N@Z
_TEXT	SEGMENT
_bShow$ = 8						; size = 1
?SetTextPosition@CGannFanTool@@QAEX_N@Z PROC		; CGannFanTool::SetTextPosition, COMDAT
; _this$ = ecx

; 335  : {

  00000	55		 push	 ebp
  00001	8b ec		 mov	 ebp, esp

; 336  : 	m_textPosition.SetShow(bShow);

  00003	81 c1 b0 00 00
	00		 add	 ecx, 176		; 000000b0H

; 337  : }

  00009	5d		 pop	 ebp

; 336  : 	m_textPosition.SetShow(bShow);

  0000a	e9 00 00 00 00	 jmp	 ?SetShow@CTextShowPosition@@QAEX_N@Z ; CTextShowPosition::SetShow
?SetTextPosition@CGannFanTool@@QAEX_N@Z ENDP		; CGannFanTool::SetTextPosition
_TEXT	ENDS
; Function compile flags: /Ogtp
; File D:\git\src\IBK\IBK_DRFN\ProjSrc\SrcChartEx\ChartAddIn\ChartAnalysisToolAddIn\AnalysisTool\FiboGannTool.cpp
;	COMDAT ?SetTextPosition@CGannFanTool@@QAEXABVCTextShowPosition@@@Z
_TEXT	SEGMENT
_position$ = 8						; size = 4
?SetTextPosition@CGannFanTool@@QAEXABVCTextShowPosition@@@Z PROC ; CGannFanTool::SetTextPosition, COMDAT
; _this$ = ecx

; 330  : {

  00000	55		 push	 ebp
  00001	8b ec		 mov	 ebp, esp
  00003	56		 push	 esi

; 331  : 	m_textPosition = position;

  00004	8b 75 08	 mov	 esi, DWORD PTR _position$[ebp]
  00007	57		 push	 edi
  00008	8d b9 b0 00 00
	00		 lea	 edi, DWORD PTR [ecx+176]
  0000e	56		 push	 esi
  0000f	8b cf		 mov	 ecx, edi
  00011	e8 00 00 00 00	 call	 ??4CTextPosition@@QAEAAV0@ABV0@@Z ; CTextPosition::operator=
  00016	8a 46 08	 mov	 al, BYTE PTR [esi+8]
  00019	88 47 08	 mov	 BYTE PTR [edi+8], al
  0001c	5f		 pop	 edi
  0001d	5e		 pop	 esi

; 332  : }

  0001e	5d		 pop	 ebp
  0001f	c2 04 00	 ret	 4
?SetTextPosition@CGannFanTool@@QAEXABVCTextShowPosition@@@Z ENDP ; CGannFanTool::SetTextPosition
_TEXT	ENDS
; Function compile flags: /Ogtp
; File D:\git\src\IBK\IBK_DRFN\ProjSrc\SrcChartEx\ChartAddIn\ChartAnalysisToolAddIn\AnalysisTool\FiboGannTool.cpp
;	COMDAT ??0CGannFanTool@@QAE@PAVCAnalysisData@@W4COORDINATETYPE@CAnalysis@@@Z
_TEXT	SEGMENT
_this$ = -16						; size = 4
__$EHRec$ = -12						; size = 12
$T2 = 8							; size = 4
_pAnalysisData$ = 8					; size = 4
$T3 = 12						; size = 4
_eCoordinateType$ = 12					; size = 4
??0CGannFanTool@@QAE@PAVCAnalysisData@@W4COORDINATETYPE@CAnalysis@@@Z PROC ; CGannFanTool::CGannFanTool, COMDAT
; _this$ = ecx

; 326  : {

  00000	55		 push	 ebp
  00001	8b ec		 mov	 ebp, esp
  00003	6a ff		 push	 -1
  00005	68 00 00 00 00	 push	 __ehhandler$??0CGannFanTool@@QAE@PAVCAnalysisData@@W4COORDINATETYPE@CAnalysis@@@Z
  0000a	64 a1 00 00 00
	00		 mov	 eax, DWORD PTR fs:0
  00010	50		 push	 eax
  00011	51		 push	 ecx
  00012	56		 push	 esi
  00013	a1 00 00 00 00	 mov	 eax, DWORD PTR ___security_cookie
  00018	33 c5		 xor	 eax, ebp
  0001a	50		 push	 eax
  0001b	8d 45 f4	 lea	 eax, DWORD PTR __$EHRec$[ebp]
  0001e	64 a3 00 00 00
	00		 mov	 DWORD PTR fs:0, eax
  00024	8b f1		 mov	 esi, ecx
  00026	89 75 f0	 mov	 DWORD PTR _this$[ebp], esi

; 246  : 	: CTwoPointMoveTool(pAnalysisData, eCoordinateType)

  00029	ff 75 0c	 push	 DWORD PTR _eCoordinateType$[ebp]
  0002c	ff 75 08	 push	 DWORD PTR _pAnalysisData$[ebp]
  0002f	e8 00 00 00 00	 call	 ??0CTwoPointMoveTool@@IAE@PAVCAnalysisData@@W4COORDINATETYPE@CAnalysis@@@Z ; CTwoPointMoveTool::CTwoPointMoveTool

; 247  : {
; 248  : }
; 249  : 
; 250  : // 20080916          <<
; 251  : void CGannTool::OnLButtonUp(CDC* pDC, const CPoint& point)
; 252  : {
; 253  : 	CTwoPointMoveTool::OnLButtonUp(pDC, point);
; 254  : 	CTool::SetProcessStarting(false);
; 255  : }
; 256  : //>>
; 257  : 
; 258  : // protected ==================================================================
; 259  : CPoints CGannTool::GetTwoPoints() const
; 260  : {
; 261  : 	return CTwoPointMoveTool::GetPoints(CMoveTool::GetPoints().GetDrawingPoint(), 45);
; 262  : }
; 263  : 
; 264  : 
; 265  : ///////////////////////////////////////////////////////////////////////////////
; 266  : // class CGannLineTool -- 
; 267  : 
; 268  : CGannLineTool::CGannLineTool(CAnalysisData* pAnalysisData, const CAnalysis::COORDINATETYPE eCoordinateType)
; 269  : 	: CGannTool(pAnalysisData, eCoordinateType)
; 270  : {
; 271  : }
; 272  : 
; 273  : // protected ==================================================================
; 274  : CTwoPointDrawer& CGannLineTool::GetTwoPointDrawer()
; 275  : {
; 276  : 	return m_gannLineDrawer;
; 277  : }
; 278  : 
; 279  : const CGannDrawer& CGannLineTool::GetGannDrawer() const
; 280  : {
; 281  : 	return m_gannLineDrawer;
; 282  : }
; 283  : 
; 284  : 
; 285  : ///////////////////////////////////////////////////////////////////////////////
; 286  : // class CGannLine45Tool -- (45)
; 287  : 
; 288  : CGannLine45Tool::CGannLine45Tool(CAnalysisData* pAnalysisData, const CAnalysis::COORDINATETYPE eCoordinateType)
; 289  : 	: CGannLineTool(pAnalysisData, eCoordinateType)
; 290  : {
; 291  : }
; 292  : 
; 293  : // protected ==================================================================
; 294  : CAnalysis::TOOLTYPE CGannLine45Tool::GetToolType() const
; 295  : {
; 296  : 	return CAnalysis::EN_ANALYSIS_GANN_LINE45;
; 297  : }
; 298  : 
; 299  : 
; 300  : ///////////////////////////////////////////////////////////////////////////////
; 301  : // class CGannLine45Tool -- (315 == -45)
; 302  : 
; 303  : CGannLine315Tool::CGannLine315Tool(CAnalysisData* pAnalysisData, const CAnalysis::COORDINATETYPE eCoordinateType)
; 304  : 	: CGannLineTool(pAnalysisData, eCoordinateType)
; 305  : {
; 306  : }
; 307  : 
; 308  : // protected ==================================================================
; 309  : CAnalysis::TOOLTYPE CGannLine315Tool::GetToolType() const
; 310  : {
; 311  : 	return CAnalysis::EN_ANALYSIS_GANN_LINE315;
; 312  : }
; 313  : 
; 314  : CPoints CGannLine315Tool::GetTwoPoints() const
; 315  : {
; 316  : 	return CTwoPointMoveTool::GetPoints(CMoveTool::GetPoints().GetDrawingPoint(), -45);
; 317  : }
; 318  : 
; 319  : 
; 320  : ///////////////////////////////////////////////////////////////////////////////
; 321  : // class CGannFanTool -- 
; 322  : 
; 323  : CGannFanTool::CGannFanTool(CAnalysisData* pAnalysisData, const CAnalysis::COORDINATETYPE eCoordinateType)
; 324  : 	: CGannTool(pAnalysisData, eCoordinateType),
; 325  : 	m_textPosition(CTextEnvironment(RGB(0, 0, 0)), true)

  00034	6a 01		 push	 1
  00036	8d 45 0c	 lea	 eax, DWORD PTR $T3[ebp]
  00039	c7 45 fc 00 00
	00 00		 mov	 DWORD PTR __$EHRec$[ebp+8], 0
  00040	50		 push	 eax
  00041	8d 4d 08	 lea	 ecx, DWORD PTR $T2[ebp]

; 326  : {

  00044	c7 06 00 00 00
	00		 mov	 DWORD PTR [esi], OFFSET ??_7CGannFanTool@@6B@
  0004a	c7 45 0c 00 00
	00 00		 mov	 DWORD PTR $T3[ebp], 0
  00051	e8 00 00 00 00	 call	 ??0CTextEnvironment@@QAE@ABK@Z ; CTextEnvironment::CTextEnvironment
  00056	50		 push	 eax
  00057	8d 8e b0 00 00
	00		 lea	 ecx, DWORD PTR [esi+176]
  0005d	e8 00 00 00 00	 call	 ??0CTextShowPosition@@QAE@ABVCTextEnvironment@@_N@Z ; CTextShowPosition::CTextShowPosition
  00062	8d 8e c4 00 00
	00		 lea	 ecx, DWORD PTR [esi+196]
  00068	c6 45 fc 01	 mov	 BYTE PTR __$EHRec$[ebp+8], 1
  0006c	c7 86 c0 00 00
	00 00 00 00 00	 mov	 DWORD PTR [esi+192], OFFSET ??_8CGannFanDrawer@@7B@
  00076	e8 00 00 00 00	 call	 ??0CDrawer@@QAE@XZ	; CDrawer::CDrawer
  0007b	c7 86 bc 00 00
	00 00 00 00 00	 mov	 DWORD PTR [esi+188], OFFSET ??_7CGannFanDrawer@@6B@

; 327  : }

  00085	8b c6		 mov	 eax, esi
  00087	8b 4d f4	 mov	 ecx, DWORD PTR __$EHRec$[ebp]
  0008a	64 89 0d 00 00
	00 00		 mov	 DWORD PTR fs:0, ecx
  00091	59		 pop	 ecx
  00092	5e		 pop	 esi
  00093	8b e5		 mov	 esp, ebp
  00095	5d		 pop	 ebp
  00096	c2 08 00	 ret	 8
_TEXT	ENDS
;	COMDAT text$x
text$x	SEGMENT
__unwindfunclet$??0CGannFanTool@@QAE@PAVCAnalysisData@@W4COORDINATETYPE@CAnalysis@@@Z$0:
  00000	8b 4d f0	 mov	 ecx, DWORD PTR _this$[ebp]
  00003	e9 00 00 00 00	 jmp	 ??1CGannTool@@QAE@XZ
  00008	cc		 int	 3
  00009	cc		 int	 3
  0000a	cc		 int	 3
  0000b	cc		 int	 3
  0000c	cc		 int	 3
__ehhandler$??0CGannFanTool@@QAE@PAVCAnalysisData@@W4COORDINATETYPE@CAnalysis@@@Z:
  0000d	90		 npad	 1
  0000e	90		 npad	 1
  0000f	8b 54 24 08	 mov	 edx, DWORD PTR [esp+8]
  00013	8d 42 0c	 lea	 eax, DWORD PTR [edx+12]
  00016	8b 4a f4	 mov	 ecx, DWORD PTR [edx-12]
  00019	33 c8		 xor	 ecx, eax
  0001b	e8 00 00 00 00	 call	 @__security_check_cookie@4
  00020	b8 00 00 00 00	 mov	 eax, OFFSET __ehfuncinfo$??0CGannFanTool@@QAE@PAVCAnalysisData@@W4COORDINATETYPE@CAnalysis@@@Z
  00025	e9 00 00 00 00	 jmp	 ___CxxFrameHandler3
text$x	ENDS
??0CGannFanTool@@QAE@PAVCAnalysisData@@W4COORDINATETYPE@CAnalysis@@@Z ENDP ; CGannFanTool::CGannFanTool
; Function compile flags: /Ogtp
; File D:\git\src\IBK\IBK_DRFN\ProjSrc\SrcChartEx\ChartAddIn\ChartAnalysisToolAddIn\AnalysisTool\FiboGannTool.cpp
;	COMDAT ?GetTwoPoints@CGannLine315Tool@@MBE?AVCPoints@@XZ
_TEXT	SEGMENT
$T2 = -60						; size = 40
$T3 = -20						; size = 8
__$EHRec$ = -12						; size = 12
___$ReturnUdt$ = 8					; size = 4
?GetTwoPoints@CGannLine315Tool@@MBE?AVCPoints@@XZ PROC	; CGannLine315Tool::GetTwoPoints, COMDAT
; _this$ = ecx

; 315  : {

  00000	55		 push	 ebp
  00001	8b ec		 mov	 ebp, esp
  00003	6a ff		 push	 -1
  00005	68 00 00 00 00	 push	 __ehhandler$?GetTwoPoints@CGannLine315Tool@@MBE?AVCPoints@@XZ
  0000a	64 a1 00 00 00
	00		 mov	 eax, DWORD PTR fs:0
  00010	50		 push	 eax
  00011	83 ec 30	 sub	 esp, 48			; 00000030H
  00014	57		 push	 edi
  00015	a1 00 00 00 00	 mov	 eax, DWORD PTR ___security_cookie
  0001a	33 c5		 xor	 eax, ebp
  0001c	50		 push	 eax
  0001d	8d 45 f4	 lea	 eax, DWORD PTR __$EHRec$[ebp]
  00020	64 a3 00 00 00
	00		 mov	 DWORD PTR fs:0, eax
  00026	8b f9		 mov	 edi, ecx

; 316  : 	return CTwoPointMoveTool::GetPoints(CMoveTool::GetPoints().GetDrawingPoint(), -45);

  00028	8d 45 c4	 lea	 eax, DWORD PTR $T2[ebp]
  0002b	50		 push	 eax
  0002c	e8 00 00 00 00	 call	 ?GetPoints@CMoveTool@@IBE?AVCPoints@@XZ ; CMoveTool::GetPoints
  00031	6a 0c		 push	 12			; 0000000cH
  00033	6a d3		 push	 -45			; ffffffd3H
  00035	8d 4d ec	 lea	 ecx, DWORD PTR $T3[ebp]
  00038	c7 45 fc 00 00
	00 00		 mov	 DWORD PTR __$EHRec$[ebp+8], 0
  0003f	51		 push	 ecx
  00040	8b c8		 mov	 ecx, eax
  00042	e8 00 00 00 00	 call	 ?GetDrawingPoint@CPoints@@QBE?AVCPoint@@XZ ; CPoints::GetDrawingPoint
  00047	50		 push	 eax
  00048	ff 75 08	 push	 DWORD PTR ___$ReturnUdt$[ebp]
  0004b	8b cf		 mov	 ecx, edi
  0004d	e8 00 00 00 00	 call	 ?GetPoints@CTwoPointMoveTool@@IBE?AVCPoints@@ABVCPoint@@HH@Z ; CTwoPointMoveTool::GetPoints
  00052	8d 4d d8	 lea	 ecx, DWORD PTR $T2[ebp+20]
  00055	ff 15 00 00 00
	00		 call	 DWORD PTR __imp_??1?$CStringT@DV?$StrTraitMFC_DLL@DV?$ChTraitsCRT@D@ATL@@@@@ATL@@QAE@XZ
  0005b	8b 45 08	 mov	 eax, DWORD PTR ___$ReturnUdt$[ebp]

; 317  : }

  0005e	8b 4d f4	 mov	 ecx, DWORD PTR __$EHRec$[ebp]
  00061	64 89 0d 00 00
	00 00		 mov	 DWORD PTR fs:0, ecx
  00068	59		 pop	 ecx
  00069	5f		 pop	 edi
  0006a	8b e5		 mov	 esp, ebp
  0006c	5d		 pop	 ebp
  0006d	c2 04 00	 ret	 4
_TEXT	ENDS
;	COMDAT text$x
text$x	SEGMENT
__unwindfunclet$?GetTwoPoints@CGannLine315Tool@@MBE?AVCPoints@@XZ$0:
  00000	8d 4d c4	 lea	 ecx, DWORD PTR $T2[ebp]
  00003	e9 00 00 00 00	 jmp	 ??1CPoints@@QAE@XZ
  00008	cc		 int	 3
  00009	cc		 int	 3
  0000a	cc		 int	 3
  0000b	cc		 int	 3
  0000c	cc		 int	 3
__ehhandler$?GetTwoPoints@CGannLine315Tool@@MBE?AVCPoints@@XZ:
  0000d	90		 npad	 1
  0000e	90		 npad	 1
  0000f	8b 54 24 08	 mov	 edx, DWORD PTR [esp+8]
  00013	8d 42 0c	 lea	 eax, DWORD PTR [edx+12]
  00016	8b 4a c8	 mov	 ecx, DWORD PTR [edx-56]
  00019	33 c8		 xor	 ecx, eax
  0001b	e8 00 00 00 00	 call	 @__security_check_cookie@4
  00020	b8 00 00 00 00	 mov	 eax, OFFSET __ehfuncinfo$?GetTwoPoints@CGannLine315Tool@@MBE?AVCPoints@@XZ
  00025	e9 00 00 00 00	 jmp	 ___CxxFrameHandler3
text$x	ENDS
?GetTwoPoints@CGannLine315Tool@@MBE?AVCPoints@@XZ ENDP	; CGannLine315Tool::GetTwoPoints
; Function compile flags: /Ogtp
; File D:\git\src\IBK\IBK_DRFN\ProjSrc\SrcChartEx\ChartAddIn\ChartAnalysisToolAddIn\AnalysisTool\FiboGannTool.cpp
;	COMDAT ?GetToolType@CGannLine315Tool@@MBE?AW4TOOLTYPE@CAnalysis@@XZ
_TEXT	SEGMENT
?GetToolType@CGannLine315Tool@@MBE?AW4TOOLTYPE@CAnalysis@@XZ PROC ; CGannLine315Tool::GetToolType, COMDAT
; _this$ = ecx

; 311  : 	return CAnalysis::EN_ANALYSIS_GANN_LINE315;

  00000	b8 0e 00 00 00	 mov	 eax, 14			; 0000000eH

; 312  : }

  00005	c3		 ret	 0
?GetToolType@CGannLine315Tool@@MBE?AW4TOOLTYPE@CAnalysis@@XZ ENDP ; CGannLine315Tool::GetToolType
_TEXT	ENDS
; Function compile flags: /Ogtp
; File D:\git\src\IBK\IBK_DRFN\ProjSrc\SrcChartEx\ChartAddIn\ChartAnalysisToolAddIn\AnalysisTool\FiboGannTool.cpp
;	COMDAT ??0CGannLine315Tool@@QAE@PAVCAnalysisData@@W4COORDINATETYPE@CAnalysis@@@Z
_TEXT	SEGMENT
_this$ = -16						; size = 4
__$EHRec$ = -12						; size = 12
_pAnalysisData$ = 8					; size = 4
_eCoordinateType$ = 12					; size = 4
??0CGannLine315Tool@@QAE@PAVCAnalysisData@@W4COORDINATETYPE@CAnalysis@@@Z PROC ; CGannLine315Tool::CGannLine315Tool, COMDAT
; _this$ = ecx

; 305  : {

  00000	55		 push	 ebp
  00001	8b ec		 mov	 ebp, esp
  00003	6a ff		 push	 -1
  00005	68 00 00 00 00	 push	 __ehhandler$??0CGannLine315Tool@@QAE@PAVCAnalysisData@@W4COORDINATETYPE@CAnalysis@@@Z
  0000a	64 a1 00 00 00
	00		 mov	 eax, DWORD PTR fs:0
  00010	50		 push	 eax
  00011	51		 push	 ecx
  00012	56		 push	 esi
  00013	a1 00 00 00 00	 mov	 eax, DWORD PTR ___security_cookie
  00018	33 c5		 xor	 eax, ebp
  0001a	50		 push	 eax
  0001b	8d 45 f4	 lea	 eax, DWORD PTR __$EHRec$[ebp]
  0001e	64 a3 00 00 00
	00		 mov	 DWORD PTR fs:0, eax
  00024	8b f1		 mov	 esi, ecx
  00026	89 75 f0	 mov	 DWORD PTR _this$[ebp], esi

; 246  : 	: CTwoPointMoveTool(pAnalysisData, eCoordinateType)

  00029	ff 75 0c	 push	 DWORD PTR _eCoordinateType$[ebp]
  0002c	ff 75 08	 push	 DWORD PTR _pAnalysisData$[ebp]
  0002f	e8 00 00 00 00	 call	 ??0CTwoPointMoveTool@@IAE@PAVCAnalysisData@@W4COORDINATETYPE@CAnalysis@@@Z ; CTwoPointMoveTool::CTwoPointMoveTool

; 270  : {

  00034	c7 06 00 00 00
	00		 mov	 DWORD PTR [esi], OFFSET ??_7CGannLineTool@@6B@
  0003a	8d 8e b8 00 00
	00		 lea	 ecx, DWORD PTR [esi+184]
  00040	c7 45 fc 00 00
	00 00		 mov	 DWORD PTR __$EHRec$[ebp+8], 0
  00047	c7 86 b4 00 00
	00 00 00 00 00	 mov	 DWORD PTR [esi+180], OFFSET ??_8CGannLineDrawer@@7B@
  00051	e8 00 00 00 00	 call	 ??0CDrawer@@QAE@XZ	; CDrawer::CDrawer
  00056	c7 86 b0 00 00
	00 00 00 00 00	 mov	 DWORD PTR [esi+176], OFFSET ??_7CGannLineDrawer@@6B@

; 306  : }

  00060	8b c6		 mov	 eax, esi
  00062	c7 06 00 00 00
	00		 mov	 DWORD PTR [esi], OFFSET ??_7CGannLine315Tool@@6B@
  00068	8b 4d f4	 mov	 ecx, DWORD PTR __$EHRec$[ebp]
  0006b	64 89 0d 00 00
	00 00		 mov	 DWORD PTR fs:0, ecx
  00072	59		 pop	 ecx
  00073	5e		 pop	 esi
  00074	8b e5		 mov	 esp, ebp
  00076	5d		 pop	 ebp
  00077	c2 08 00	 ret	 8
  0007a	cc		 int	 3
  0007b	cc		 int	 3
  0007c	cc		 int	 3
  0007d	cc		 int	 3
  0007e	cc		 int	 3
_TEXT	ENDS
;	COMDAT text$x
text$x	SEGMENT
__ehhandler$??0CGannLine315Tool@@QAE@PAVCAnalysisData@@W4COORDINATETYPE@CAnalysis@@@Z:
  00000	90		 npad	 1
  00001	90		 npad	 1
  00002	8b 54 24 08	 mov	 edx, DWORD PTR [esp+8]
  00006	8d 42 0c	 lea	 eax, DWORD PTR [edx+12]
  00009	8b 4a f4	 mov	 ecx, DWORD PTR [edx-12]
  0000c	33 c8		 xor	 ecx, eax
  0000e	e8 00 00 00 00	 call	 @__security_check_cookie@4
  00013	b8 00 00 00 00	 mov	 eax, OFFSET __ehfuncinfo$??0CGannLine315Tool@@QAE@PAVCAnalysisData@@W4COORDINATETYPE@CAnalysis@@@Z
  00018	e9 00 00 00 00	 jmp	 ___CxxFrameHandler3
text$x	ENDS
??0CGannLine315Tool@@QAE@PAVCAnalysisData@@W4COORDINATETYPE@CAnalysis@@@Z ENDP ; CGannLine315Tool::CGannLine315Tool
; Function compile flags: /Ogtp
; File D:\git\src\IBK\IBK_DRFN\ProjSrc\SrcChartEx\ChartAddIn\ChartAnalysisToolAddIn\AnalysisTool\FiboGannTool.cpp
;	COMDAT ?GetToolType@CGannLine45Tool@@MBE?AW4TOOLTYPE@CAnalysis@@XZ
_TEXT	SEGMENT
?GetToolType@CGannLine45Tool@@MBE?AW4TOOLTYPE@CAnalysis@@XZ PROC ; CGannLine45Tool::GetToolType, COMDAT
; _this$ = ecx

; 296  : 	return CAnalysis::EN_ANALYSIS_GANN_LINE45;

  00000	b8 0d 00 00 00	 mov	 eax, 13			; 0000000dH

; 297  : }

  00005	c3		 ret	 0
?GetToolType@CGannLine45Tool@@MBE?AW4TOOLTYPE@CAnalysis@@XZ ENDP ; CGannLine45Tool::GetToolType
_TEXT	ENDS
; Function compile flags: /Ogtp
; File D:\git\src\IBK\IBK_DRFN\ProjSrc\SrcChartEx\ChartAddIn\ChartAnalysisToolAddIn\AnalysisTool\FiboGannTool.cpp
;	COMDAT ??0CGannLine45Tool@@QAE@PAVCAnalysisData@@W4COORDINATETYPE@CAnalysis@@@Z
_TEXT	SEGMENT
_this$ = -16						; size = 4
__$EHRec$ = -12						; size = 12
_pAnalysisData$ = 8					; size = 4
_eCoordinateType$ = 12					; size = 4
??0CGannLine45Tool@@QAE@PAVCAnalysisData@@W4COORDINATETYPE@CAnalysis@@@Z PROC ; CGannLine45Tool::CGannLine45Tool, COMDAT
; _this$ = ecx

; 290  : {

  00000	55		 push	 ebp
  00001	8b ec		 mov	 ebp, esp
  00003	6a ff		 push	 -1
  00005	68 00 00 00 00	 push	 __ehhandler$??0CGannLine45Tool@@QAE@PAVCAnalysisData@@W4COORDINATETYPE@CAnalysis@@@Z
  0000a	64 a1 00 00 00
	00		 mov	 eax, DWORD PTR fs:0
  00010	50		 push	 eax
  00011	51		 push	 ecx
  00012	56		 push	 esi
  00013	a1 00 00 00 00	 mov	 eax, DWORD PTR ___security_cookie
  00018	33 c5		 xor	 eax, ebp
  0001a	50		 push	 eax
  0001b	8d 45 f4	 lea	 eax, DWORD PTR __$EHRec$[ebp]
  0001e	64 a3 00 00 00
	00		 mov	 DWORD PTR fs:0, eax
  00024	8b f1		 mov	 esi, ecx
  00026	89 75 f0	 mov	 DWORD PTR _this$[ebp], esi

; 246  : 	: CTwoPointMoveTool(pAnalysisData, eCoordinateType)

  00029	ff 75 0c	 push	 DWORD PTR _eCoordinateType$[ebp]
  0002c	ff 75 08	 push	 DWORD PTR _pAnalysisData$[ebp]
  0002f	e8 00 00 00 00	 call	 ??0CTwoPointMoveTool@@IAE@PAVCAnalysisData@@W4COORDINATETYPE@CAnalysis@@@Z ; CTwoPointMoveTool::CTwoPointMoveTool

; 270  : {

  00034	c7 06 00 00 00
	00		 mov	 DWORD PTR [esi], OFFSET ??_7CGannLineTool@@6B@
  0003a	8d 8e b8 00 00
	00		 lea	 ecx, DWORD PTR [esi+184]
  00040	c7 45 fc 00 00
	00 00		 mov	 DWORD PTR __$EHRec$[ebp+8], 0
  00047	c7 86 b4 00 00
	00 00 00 00 00	 mov	 DWORD PTR [esi+180], OFFSET ??_8CGannLineDrawer@@7B@
  00051	e8 00 00 00 00	 call	 ??0CDrawer@@QAE@XZ	; CDrawer::CDrawer
  00056	c7 86 b0 00 00
	00 00 00 00 00	 mov	 DWORD PTR [esi+176], OFFSET ??_7CGannLineDrawer@@6B@

; 291  : }

  00060	8b c6		 mov	 eax, esi
  00062	c7 06 00 00 00
	00		 mov	 DWORD PTR [esi], OFFSET ??_7CGannLine45Tool@@6B@
  00068	8b 4d f4	 mov	 ecx, DWORD PTR __$EHRec$[ebp]
  0006b	64 89 0d 00 00
	00 00		 mov	 DWORD PTR fs:0, ecx
  00072	59		 pop	 ecx
  00073	5e		 pop	 esi
  00074	8b e5		 mov	 esp, ebp
  00076	5d		 pop	 ebp
  00077	c2 08 00	 ret	 8
  0007a	cc		 int	 3
  0007b	cc		 int	 3
  0007c	cc		 int	 3
  0007d	cc		 int	 3
  0007e	cc		 int	 3
_TEXT	ENDS
;	COMDAT text$x
text$x	SEGMENT
__ehhandler$??0CGannLine45Tool@@QAE@PAVCAnalysisData@@W4COORDINATETYPE@CAnalysis@@@Z:
  00000	90		 npad	 1
  00001	90		 npad	 1
  00002	8b 54 24 08	 mov	 edx, DWORD PTR [esp+8]
  00006	8d 42 0c	 lea	 eax, DWORD PTR [edx+12]
  00009	8b 4a f4	 mov	 ecx, DWORD PTR [edx-12]
  0000c	33 c8		 xor	 ecx, eax
  0000e	e8 00 00 00 00	 call	 @__security_check_cookie@4
  00013	b8 00 00 00 00	 mov	 eax, OFFSET __ehfuncinfo$??0CGannLine45Tool@@QAE@PAVCAnalysisData@@W4COORDINATETYPE@CAnalysis@@@Z
  00018	e9 00 00 00 00	 jmp	 ___CxxFrameHandler3
text$x	ENDS
??0CGannLine45Tool@@QAE@PAVCAnalysisData@@W4COORDINATETYPE@CAnalysis@@@Z ENDP ; CGannLine45Tool::CGannLine45Tool
; Function compile flags: /Ogtp
; File D:\git\src\IBK\IBK_DRFN\ProjSrc\SrcChartEx\ChartAddIn\ChartAnalysisToolAddIn\AnalysisTool\FiboGannTool.cpp
;	COMDAT ?GetGannDrawer@CGannLineTool@@MBEABVCGannDrawer@@XZ
_TEXT	SEGMENT
?GetGannDrawer@CGannLineTool@@MBEABVCGannDrawer@@XZ PROC ; CGannLineTool::GetGannDrawer, COMDAT
; _this$ = ecx

; 281  : 	return m_gannLineDrawer;

  00000	8d 81 b0 00 00
	00		 lea	 eax, DWORD PTR [ecx+176]

; 282  : }

  00006	c3		 ret	 0
?GetGannDrawer@CGannLineTool@@MBEABVCGannDrawer@@XZ ENDP ; CGannLineTool::GetGannDrawer
_TEXT	ENDS
; Function compile flags: /Ogtp
; File D:\git\src\IBK\IBK_DRFN\ProjSrc\SrcChartEx\ChartAddIn\ChartAnalysisToolAddIn\AnalysisTool\FiboGannTool.cpp
;	COMDAT ?GetTwoPointDrawer@CGannLineTool@@MAEAAVCTwoPointDrawer@@XZ
_TEXT	SEGMENT
?GetTwoPointDrawer@CGannLineTool@@MAEAAVCTwoPointDrawer@@XZ PROC ; CGannLineTool::GetTwoPointDrawer, COMDAT
; _this$ = ecx

; 276  : 	return m_gannLineDrawer;

  00000	8d 81 b0 00 00
	00		 lea	 eax, DWORD PTR [ecx+176]

; 277  : }

  00006	c3		 ret	 0
?GetTwoPointDrawer@CGannLineTool@@MAEAAVCTwoPointDrawer@@XZ ENDP ; CGannLineTool::GetTwoPointDrawer
_TEXT	ENDS
; Function compile flags: /Ogtp
; File D:\git\src\IBK\IBK_DRFN\ProjSrc\SrcChartEx\ChartAddIn\ChartAnalysisToolAddIn\AnalysisTool\FiboGannTool.cpp
;	COMDAT ??0CGannLineTool@@QAE@PAVCAnalysisData@@W4COORDINATETYPE@CAnalysis@@@Z
_TEXT	SEGMENT
_this$ = -16						; size = 4
__$EHRec$ = -12						; size = 12
_pAnalysisData$ = 8					; size = 4
_eCoordinateType$ = 12					; size = 4
??0CGannLineTool@@QAE@PAVCAnalysisData@@W4COORDINATETYPE@CAnalysis@@@Z PROC ; CGannLineTool::CGannLineTool, COMDAT
; _this$ = ecx

; 270  : {

  00000	55		 push	 ebp
  00001	8b ec		 mov	 ebp, esp
  00003	6a ff		 push	 -1
  00005	68 00 00 00 00	 push	 __ehhandler$??0CGannLineTool@@QAE@PAVCAnalysisData@@W4COORDINATETYPE@CAnalysis@@@Z
  0000a	64 a1 00 00 00
	00		 mov	 eax, DWORD PTR fs:0
  00010	50		 push	 eax
  00011	51		 push	 ecx
  00012	56		 push	 esi
  00013	a1 00 00 00 00	 mov	 eax, DWORD PTR ___security_cookie
  00018	33 c5		 xor	 eax, ebp
  0001a	50		 push	 eax
  0001b	8d 45 f4	 lea	 eax, DWORD PTR __$EHRec$[ebp]
  0001e	64 a3 00 00 00
	00		 mov	 DWORD PTR fs:0, eax
  00024	8b f1		 mov	 esi, ecx
  00026	89 75 f0	 mov	 DWORD PTR _this$[ebp], esi

; 246  : 	: CTwoPointMoveTool(pAnalysisData, eCoordinateType)

  00029	ff 75 0c	 push	 DWORD PTR _eCoordinateType$[ebp]
  0002c	ff 75 08	 push	 DWORD PTR _pAnalysisData$[ebp]
  0002f	e8 00 00 00 00	 call	 ??0CTwoPointMoveTool@@IAE@PAVCAnalysisData@@W4COORDINATETYPE@CAnalysis@@@Z ; CTwoPointMoveTool::CTwoPointMoveTool

; 270  : {

  00034	c7 06 00 00 00
	00		 mov	 DWORD PTR [esi], OFFSET ??_7CGannLineTool@@6B@
  0003a	8d 8e b8 00 00
	00		 lea	 ecx, DWORD PTR [esi+184]
  00040	c7 45 fc 00 00
	00 00		 mov	 DWORD PTR __$EHRec$[ebp+8], 0
  00047	c7 86 b4 00 00
	00 00 00 00 00	 mov	 DWORD PTR [esi+180], OFFSET ??_8CGannLineDrawer@@7B@
  00051	e8 00 00 00 00	 call	 ??0CDrawer@@QAE@XZ	; CDrawer::CDrawer
  00056	c7 86 b0 00 00
	00 00 00 00 00	 mov	 DWORD PTR [esi+176], OFFSET ??_7CGannLineDrawer@@6B@

; 271  : }

  00060	8b c6		 mov	 eax, esi
  00062	8b 4d f4	 mov	 ecx, DWORD PTR __$EHRec$[ebp]
  00065	64 89 0d 00 00
	00 00		 mov	 DWORD PTR fs:0, ecx
  0006c	59		 pop	 ecx
  0006d	5e		 pop	 esi
  0006e	8b e5		 mov	 esp, ebp
  00070	5d		 pop	 ebp
  00071	c2 08 00	 ret	 8
  00074	cc		 int	 3
  00075	cc		 int	 3
  00076	cc		 int	 3
  00077	cc		 int	 3
  00078	cc		 int	 3
_TEXT	ENDS
;	COMDAT text$x
text$x	SEGMENT
__ehhandler$??0CGannLineTool@@QAE@PAVCAnalysisData@@W4COORDINATETYPE@CAnalysis@@@Z:
  00000	90		 npad	 1
  00001	90		 npad	 1
  00002	8b 54 24 08	 mov	 edx, DWORD PTR [esp+8]
  00006	8d 42 0c	 lea	 eax, DWORD PTR [edx+12]
  00009	8b 4a f4	 mov	 ecx, DWORD PTR [edx-12]
  0000c	33 c8		 xor	 ecx, eax
  0000e	e8 00 00 00 00	 call	 @__security_check_cookie@4
  00013	b8 00 00 00 00	 mov	 eax, OFFSET __ehfuncinfo$??0CGannLineTool@@QAE@PAVCAnalysisData@@W4COORDINATETYPE@CAnalysis@@@Z
  00018	e9 00 00 00 00	 jmp	 ___CxxFrameHandler3
text$x	ENDS
??0CGannLineTool@@QAE@PAVCAnalysisData@@W4COORDINATETYPE@CAnalysis@@@Z ENDP ; CGannLineTool::CGannLineTool
; Function compile flags: /Ogtp
; File C:\Program Files (x86)\Microsoft Visual Studio\2019\Community\VC\Tools\MSVC\14.29.30133\include\deque
; File C:\Program Files (x86)\Microsoft Visual Studio\2019\Community\VC\Tools\MSVC\14.29.30133\include\utility
; File C:\Program Files (x86)\Microsoft Visual Studio\2019\Community\VC\Tools\MSVC\14.29.30133\include\xmemory
; File C:\Program Files (x86)\Microsoft Visual Studio\2019\Community\VC\Tools\MSVC\14.29.30133\include\utility
; File C:\Program Files (x86)\Microsoft Visual Studio\2019\Community\VC\Tools\MSVC\14.29.30133\include\xmemory
;	COMDAT ??1CGannTool@@QAE@XZ
_TEXT	SEGMENT
??1CGannTool@@QAE@XZ PROC				; CGannTool::~CGannTool, COMDAT
; _this$ = ecx
; File C:\Program Files (x86)\Microsoft Visual Studio\2019\Community\VC\Tools\MSVC\14.29.30133\include\deque

; 1332 :         _Tidy();

  00000	56		 push	 esi
  00001	8b f1		 mov	 esi, ecx
  00003	8d 8e 9c 00 00
	00		 lea	 ecx, DWORD PTR [esi+156]
  00009	ff 15 00 00 00
	00		 call	 DWORD PTR __imp_??1?$CStringT@DV?$StrTraitMFC_DLL@DV?$ChTraitsCRT@D@ATL@@@@@ATL@@QAE@XZ
  0000f	8d 4e 60	 lea	 ecx, DWORD PTR [esi+96]
  00012	ff 15 00 00 00
	00		 call	 DWORD PTR __imp_??1?$CStringT@DV?$StrTraitMFC_DLL@DV?$ChTraitsCRT@D@ATL@@@@@ATL@@QAE@XZ
  00018	8d 4e 5c	 lea	 ecx, DWORD PTR [esi+92]
  0001b	ff 15 00 00 00
	00		 call	 DWORD PTR __imp_??1?$CStringT@DV?$StrTraitMFC_DLL@DV?$ChTraitsCRT@D@ATL@@@@@ATL@@QAE@XZ
  00021	8d 4e 58	 lea	 ecx, DWORD PTR [esi+88]
  00024	ff 15 00 00 00
	00		 call	 DWORD PTR __imp_??1?$CStringT@DV?$StrTraitMFC_DLL@DV?$ChTraitsCRT@D@ATL@@@@@ATL@@QAE@XZ
  0002a	8d 4e 14	 lea	 ecx, DWORD PTR [esi+20]
  0002d	e8 00 00 00 00	 call	 ?_Tidy@?$deque@VCBlockRegion@@V?$allocator@VCBlockRegion@@@std@@@std@@AAEXXZ ; std::deque<CBlockRegion,std::allocator<CBlockRegion> >::_Tidy

; 861  :         _Tidy();

  00032	8d 4e 14	 lea	 ecx, DWORD PTR [esi+20]
  00035	e8 00 00 00 00	 call	 ?_Tidy@?$deque@VCBlockRegion@@V?$allocator@VCBlockRegion@@@std@@@std@@AAEXXZ ; std::deque<CBlockRegion,std::allocator<CBlockRegion> >::_Tidy
; File C:\Program Files (x86)\Microsoft Visual Studio\2019\Community\VC\Tools\MSVC\14.29.30133\include\utility

; 602  :     _Ty _Old_val = static_cast<_Ty&&>(_Val);

  0003a	8b 46 14	 mov	 eax, DWORD PTR [esi+20]
; File C:\Program Files (x86)\Microsoft Visual Studio\2019\Community\VC\Tools\MSVC\14.29.30133\include\xmemory

; 255  :         ::operator delete(_Ptr, _Bytes);

  0003d	6a 08		 push	 8
  0003f	50		 push	 eax
; File C:\Program Files (x86)\Microsoft Visual Studio\2019\Community\VC\Tools\MSVC\14.29.30133\include\utility

; 603  :     _Val         = static_cast<_Other&&>(_New_val);

  00040	c7 46 14 00 00
	00 00		 mov	 DWORD PTR [esi+20], 0
; File C:\Program Files (x86)\Microsoft Visual Studio\2019\Community\VC\Tools\MSVC\14.29.30133\include\xmemory

; 255  :         ::operator delete(_Ptr, _Bytes);

  00047	e8 00 00 00 00	 call	 ??3@YAXPAXI@Z		; operator delete
  0004c	83 c4 08	 add	 esp, 8
  0004f	5e		 pop	 esi
  00050	c3		 ret	 0
??1CGannTool@@QAE@XZ ENDP				; CGannTool::~CGannTool
_TEXT	ENDS
; Function compile flags: /Ogtp
; File D:\git\src\IBK\IBK_DRFN\ProjSrc\SrcChartEx\ChartAddIn\ChartAnalysisToolAddIn\AnalysisTool\FiboGannTool.cpp
;	COMDAT ?GetTwoPoints@CGannTool@@MBE?AVCPoints@@XZ
_TEXT	SEGMENT
$T2 = -60						; size = 40
$T3 = -20						; size = 8
__$EHRec$ = -12						; size = 12
___$ReturnUdt$ = 8					; size = 4
?GetTwoPoints@CGannTool@@MBE?AVCPoints@@XZ PROC		; CGannTool::GetTwoPoints, COMDAT
; _this$ = ecx

; 260  : {

  00000	55		 push	 ebp
  00001	8b ec		 mov	 ebp, esp
  00003	6a ff		 push	 -1
  00005	68 00 00 00 00	 push	 __ehhandler$?GetTwoPoints@CGannTool@@MBE?AVCPoints@@XZ
  0000a	64 a1 00 00 00
	00		 mov	 eax, DWORD PTR fs:0
  00010	50		 push	 eax
  00011	83 ec 30	 sub	 esp, 48			; 00000030H
  00014	57		 push	 edi
  00015	a1 00 00 00 00	 mov	 eax, DWORD PTR ___security_cookie
  0001a	33 c5		 xor	 eax, ebp
  0001c	50		 push	 eax
  0001d	8d 45 f4	 lea	 eax, DWORD PTR __$EHRec$[ebp]
  00020	64 a3 00 00 00
	00		 mov	 DWORD PTR fs:0, eax
  00026	8b f9		 mov	 edi, ecx

; 261  : 	return CTwoPointMoveTool::GetPoints(CMoveTool::GetPoints().GetDrawingPoint(), 45);

  00028	8d 45 c4	 lea	 eax, DWORD PTR $T2[ebp]
  0002b	50		 push	 eax
  0002c	e8 00 00 00 00	 call	 ?GetPoints@CMoveTool@@IBE?AVCPoints@@XZ ; CMoveTool::GetPoints
  00031	6a 0c		 push	 12			; 0000000cH
  00033	6a 2d		 push	 45			; 0000002dH
  00035	8d 4d ec	 lea	 ecx, DWORD PTR $T3[ebp]
  00038	c7 45 fc 00 00
	00 00		 mov	 DWORD PTR __$EHRec$[ebp+8], 0
  0003f	51		 push	 ecx
  00040	8b c8		 mov	 ecx, eax
  00042	e8 00 00 00 00	 call	 ?GetDrawingPoint@CPoints@@QBE?AVCPoint@@XZ ; CPoints::GetDrawingPoint
  00047	50		 push	 eax
  00048	ff 75 08	 push	 DWORD PTR ___$ReturnUdt$[ebp]
  0004b	8b cf		 mov	 ecx, edi
  0004d	e8 00 00 00 00	 call	 ?GetPoints@CTwoPointMoveTool@@IBE?AVCPoints@@ABVCPoint@@HH@Z ; CTwoPointMoveTool::GetPoints
  00052	8d 4d d8	 lea	 ecx, DWORD PTR $T2[ebp+20]
  00055	ff 15 00 00 00
	00		 call	 DWORD PTR __imp_??1?$CStringT@DV?$StrTraitMFC_DLL@DV?$ChTraitsCRT@D@ATL@@@@@ATL@@QAE@XZ
  0005b	8b 45 08	 mov	 eax, DWORD PTR ___$ReturnUdt$[ebp]

; 262  : }

  0005e	8b 4d f4	 mov	 ecx, DWORD PTR __$EHRec$[ebp]
  00061	64 89 0d 00 00
	00 00		 mov	 DWORD PTR fs:0, ecx
  00068	59		 pop	 ecx
  00069	5f		 pop	 edi
  0006a	8b e5		 mov	 esp, ebp
  0006c	5d		 pop	 ebp
  0006d	c2 04 00	 ret	 4
_TEXT	ENDS
;	COMDAT text$x
text$x	SEGMENT
__unwindfunclet$?GetTwoPoints@CGannTool@@MBE?AVCPoints@@XZ$0:
  00000	8d 4d c4	 lea	 ecx, DWORD PTR $T2[ebp]
  00003	e9 00 00 00 00	 jmp	 ??1CPoints@@QAE@XZ
  00008	cc		 int	 3
  00009	cc		 int	 3
  0000a	cc		 int	 3
  0000b	cc		 int	 3
  0000c	cc		 int	 3
__ehhandler$?GetTwoPoints@CGannTool@@MBE?AVCPoints@@XZ:
  0000d	90		 npad	 1
  0000e	90		 npad	 1
  0000f	8b 54 24 08	 mov	 edx, DWORD PTR [esp+8]
  00013	8d 42 0c	 lea	 eax, DWORD PTR [edx+12]
  00016	8b 4a c8	 mov	 ecx, DWORD PTR [edx-56]
  00019	33 c8		 xor	 ecx, eax
  0001b	e8 00 00 00 00	 call	 @__security_check_cookie@4
  00020	b8 00 00 00 00	 mov	 eax, OFFSET __ehfuncinfo$?GetTwoPoints@CGannTool@@MBE?AVCPoints@@XZ
  00025	e9 00 00 00 00	 jmp	 ___CxxFrameHandler3
text$x	ENDS
?GetTwoPoints@CGannTool@@MBE?AVCPoints@@XZ ENDP		; CGannTool::GetTwoPoints
; Function compile flags: /Ogtp
; File D:\git\src\IBK\IBK_DRFN\ProjSrc\SrcChartEx\ChartAddIn\ChartAnalysisToolAddIn\AnalysisTool\FiboGannTool.cpp
;	COMDAT ?OnLButtonUp@CGannTool@@UAEXPAVCDC@@ABVCPoint@@@Z
_TEXT	SEGMENT
_pDC$ = 8						; size = 4
_point$ = 12						; size = 4
?OnLButtonUp@CGannTool@@UAEXPAVCDC@@ABVCPoint@@@Z PROC	; CGannTool::OnLButtonUp, COMDAT
; _this$ = ecx

; 252  : {

  00000	55		 push	 ebp
  00001	8b ec		 mov	 ebp, esp
  00003	56		 push	 esi

; 253  : 	CTwoPointMoveTool::OnLButtonUp(pDC, point);

  00004	ff 75 0c	 push	 DWORD PTR _point$[ebp]
  00007	8b f1		 mov	 esi, ecx
  00009	ff 75 08	 push	 DWORD PTR _pDC$[ebp]
  0000c	e8 00 00 00 00	 call	 ?OnLButtonUp@CMoveTool@@UAEXPAVCDC@@ABVCPoint@@@Z ; CMoveTool::OnLButtonUp

; 254  : 	CTool::SetProcessStarting(false);

  00011	6a 00		 push	 0
  00013	8b ce		 mov	 ecx, esi
  00015	e8 00 00 00 00	 call	 ?SetProcessStarting@CTool@@QAEX_N@Z ; CTool::SetProcessStarting
  0001a	5e		 pop	 esi

; 255  : }

  0001b	5d		 pop	 ebp
  0001c	c2 08 00	 ret	 8
?OnLButtonUp@CGannTool@@UAEXPAVCDC@@ABVCPoint@@@Z ENDP	; CGannTool::OnLButtonUp
_TEXT	ENDS
; Function compile flags: /Ogtp
; File D:\git\src\IBK\IBK_DRFN\ProjSrc\SrcChartEx\ChartAddIn\ChartAnalysisToolAddIn\AnalysisTool\FiboGannTool.cpp
;	COMDAT ??0CGannTool@@QAE@PAVCAnalysisData@@W4COORDINATETYPE@CAnalysis@@@Z
_TEXT	SEGMENT
_this$ = -4						; size = 4
_pAnalysisData$ = 8					; size = 4
_eCoordinateType$ = 12					; size = 4
??0CGannTool@@QAE@PAVCAnalysisData@@W4COORDINATETYPE@CAnalysis@@@Z PROC ; CGannTool::CGannTool, COMDAT
; _this$ = ecx

; 247  : {

  00000	55		 push	 ebp
  00001	8b ec		 mov	 ebp, esp
  00003	51		 push	 ecx
  00004	56		 push	 esi
  00005	ff 75 0c	 push	 DWORD PTR _eCoordinateType$[ebp]
  00008	8b f1		 mov	 esi, ecx
  0000a	ff 75 08	 push	 DWORD PTR _pAnalysisData$[ebp]
  0000d	89 75 fc	 mov	 DWORD PTR _this$[ebp], esi
  00010	e8 00 00 00 00	 call	 ??0CTwoPointMoveTool@@IAE@PAVCAnalysisData@@W4COORDINATETYPE@CAnalysis@@@Z ; CTwoPointMoveTool::CTwoPointMoveTool
  00015	c7 06 00 00 00
	00		 mov	 DWORD PTR [esi], OFFSET ??_7CGannTool@@6B@

; 248  : }

  0001b	8b c6		 mov	 eax, esi
  0001d	5e		 pop	 esi
  0001e	8b e5		 mov	 esp, ebp
  00020	5d		 pop	 ebp
  00021	c2 08 00	 ret	 8
??0CGannTool@@QAE@PAVCAnalysisData@@W4COORDINATETYPE@CAnalysis@@@Z ENDP ; CGannTool::CGannTool
_TEXT	ENDS
; Function compile flags: /Ogtp
; File D:\git\src\IBK\IBK_DRFN\ProjSrc\SrcChartEx\ChartAddIn\ChartAnalysisToolAddIn\AnalysisTool\FiboGannTool.cpp
;	COMDAT ?GetTextPosition@CFiboTimeTool@@MAEPAVCTextPosition@@XZ
_TEXT	SEGMENT
?GetTextPosition@CFiboTimeTool@@MAEPAVCTextPosition@@XZ PROC ; CFiboTimeTool::GetTextPosition, COMDAT
; _this$ = ecx

; 238  : 	return &m_textPosition;

  00000	8d 81 b0 00 00
	00		 lea	 eax, DWORD PTR [ecx+176]

; 239  : }

  00006	c3		 ret	 0
?GetTextPosition@CFiboTimeTool@@MAEPAVCTextPosition@@XZ ENDP ; CFiboTimeTool::GetTextPosition
_TEXT	ENDS
; Function compile flags: /Ogtp
; File D:\git\src\IBK\IBK_DRFN\ProjSrc\SrcChartEx\ChartAddIn\ChartAnalysisToolAddIn\AnalysisTool\FiboGannTool.cpp
;	COMDAT ?GetTextPosition@CFiboTimeTool@@MBEPBVCTextPosition@@XZ
_TEXT	SEGMENT
?GetTextPosition@CFiboTimeTool@@MBEPBVCTextPosition@@XZ PROC ; CFiboTimeTool::GetTextPosition, COMDAT
; _this$ = ecx

; 233  : 	return &m_textPosition;

  00000	8d 81 b0 00 00
	00		 lea	 eax, DWORD PTR [ecx+176]

; 234  : }

  00006	c3		 ret	 0
?GetTextPosition@CFiboTimeTool@@MBEPBVCTextPosition@@XZ ENDP ; CFiboTimeTool::GetTextPosition
_TEXT	ENDS
; Function compile flags: /Ogtp
; File D:\git\src\IBK\IBK_DRFN\ProjSrc\SrcChartEx\ChartAddIn\ChartAnalysisToolAddIn\AnalysisTool\FiboGannTool.cpp
;	COMDAT ?GetOnePointDrawer@CFiboTimeTool@@MAEAAVCOnePointDrawer@@XZ
_TEXT	SEGMENT
?GetOnePointDrawer@CFiboTimeTool@@MAEAAVCOnePointDrawer@@XZ PROC ; CFiboTimeTool::GetOnePointDrawer, COMDAT
; _this$ = ecx

; 227  : 	return m_fiboTimeDrawer;

  00000	8b 81 bc 00 00
	00		 mov	 eax, DWORD PTR [ecx+188]
  00006	8b 40 08	 mov	 eax, DWORD PTR [eax+8]
  00009	05 bc 00 00 00	 add	 eax, 188		; 000000bcH
  0000e	03 c1		 add	 eax, ecx

; 228  : }

  00010	c3		 ret	 0
?GetOnePointDrawer@CFiboTimeTool@@MAEAAVCOnePointDrawer@@XZ ENDP ; CFiboTimeTool::GetOnePointDrawer
_TEXT	ENDS
; Function compile flags: /Ogtp
; File D:\git\src\IBK\IBK_DRFN\ProjSrc\SrcChartEx\ChartAddIn\ChartAnalysisToolAddIn\AnalysisTool\FiboGannTool.cpp
;	COMDAT ?GetToolType@CFiboTimeTool@@MBE?AW4TOOLTYPE@CAnalysis@@XZ
_TEXT	SEGMENT
?GetToolType@CFiboTimeTool@@MBE?AW4TOOLTYPE@CAnalysis@@XZ PROC ; CFiboTimeTool::GetToolType, COMDAT
; _this$ = ecx

; 222  : 	return CAnalysis::EN_ANALYSIS_FIBO_TIME;

  00000	b8 0c 00 00 00	 mov	 eax, 12			; 0000000cH

; 223  : }

  00005	c3		 ret	 0
?GetToolType@CFiboTimeTool@@MBE?AW4TOOLTYPE@CAnalysis@@XZ ENDP ; CFiboTimeTool::GetToolType
_TEXT	ENDS
; Function compile flags: /Ogtp
; File D:\git\src\IBK\IBK_DRFN\ProjSrc\SrcChartEx\ChartAddIn\ChartAnalysisToolAddIn\AnalysisTool\FiboGannTool.cpp
;	COMDAT ?OnLButtonUp@CFiboTimeTool@@UAEXPAVCDC@@ABVCPoint@@@Z
_TEXT	SEGMENT
_pDC$ = 8						; size = 4
_point$ = 12						; size = 4
?OnLButtonUp@CFiboTimeTool@@UAEXPAVCDC@@ABVCPoint@@@Z PROC ; CFiboTimeTool::OnLButtonUp, COMDAT
; _this$ = ecx

; 213  : {

  00000	55		 push	 ebp
  00001	8b ec		 mov	 ebp, esp
  00003	56		 push	 esi

; 214  : 	COnePointMoveTool::OnLButtonUp(pDC, point);

  00004	ff 75 0c	 push	 DWORD PTR _point$[ebp]
  00007	8b f1		 mov	 esi, ecx
  00009	ff 75 08	 push	 DWORD PTR _pDC$[ebp]
  0000c	e8 00 00 00 00	 call	 ?OnLButtonUp@CMoveTool@@UAEXPAVCDC@@ABVCPoint@@@Z ; CMoveTool::OnLButtonUp

; 215  : 	CTool::SetProcessStarting(false);

  00011	6a 00		 push	 0
  00013	8b ce		 mov	 ecx, esi
  00015	e8 00 00 00 00	 call	 ?SetProcessStarting@CTool@@QAEX_N@Z ; CTool::SetProcessStarting
  0001a	5e		 pop	 esi

; 216  : }

  0001b	5d		 pop	 ebp
  0001c	c2 08 00	 ret	 8
?OnLButtonUp@CFiboTimeTool@@UAEXPAVCDC@@ABVCPoint@@@Z ENDP ; CFiboTimeTool::OnLButtonUp
_TEXT	ENDS
; Function compile flags: /Ogtp
; File D:\git\src\IBK\IBK_DRFN\ProjSrc\SrcChartEx\ChartAddIn\ChartAnalysisToolAddIn\AnalysisTool\FiboGannTool.cpp
;	COMDAT ?SetTextPosition@CFiboTimeTool@@QAEX_N@Z
_TEXT	SEGMENT
_bShow$ = 8						; size = 1
?SetTextPosition@CFiboTimeTool@@QAEX_N@Z PROC		; CFiboTimeTool::SetTextPosition, COMDAT
; _this$ = ecx

; 207  : {

  00000	55		 push	 ebp
  00001	8b ec		 mov	 ebp, esp

; 208  : 	m_textPosition.SetShow(bShow);

  00003	81 c1 b0 00 00
	00		 add	 ecx, 176		; 000000b0H

; 209  : }

  00009	5d		 pop	 ebp

; 208  : 	m_textPosition.SetShow(bShow);

  0000a	e9 00 00 00 00	 jmp	 ?SetShow@CTextShowPosition@@QAEX_N@Z ; CTextShowPosition::SetShow
?SetTextPosition@CFiboTimeTool@@QAEX_N@Z ENDP		; CFiboTimeTool::SetTextPosition
_TEXT	ENDS
; Function compile flags: /Ogtp
; File D:\git\src\IBK\IBK_DRFN\ProjSrc\SrcChartEx\ChartAddIn\ChartAnalysisToolAddIn\AnalysisTool\FiboGannTool.cpp
;	COMDAT ?SetTextPosition@CFiboTimeTool@@QAEXABVCTextShowPosition@@@Z
_TEXT	SEGMENT
_position$ = 8						; size = 4
?SetTextPosition@CFiboTimeTool@@QAEXABVCTextShowPosition@@@Z PROC ; CFiboTimeTool::SetTextPosition, COMDAT
; _this$ = ecx

; 201  : {

  00000	55		 push	 ebp
  00001	8b ec		 mov	 ebp, esp
  00003	56		 push	 esi

; 202  : 	m_textPosition = position;

  00004	8b 75 08	 mov	 esi, DWORD PTR _position$[ebp]
  00007	57		 push	 edi
  00008	8d b9 b0 00 00
	00		 lea	 edi, DWORD PTR [ecx+176]
  0000e	56		 push	 esi
  0000f	8b cf		 mov	 ecx, edi
  00011	e8 00 00 00 00	 call	 ??4CTextPosition@@QAEAAV0@ABV0@@Z ; CTextPosition::operator=
  00016	8a 46 08	 mov	 al, BYTE PTR [esi+8]
  00019	88 47 08	 mov	 BYTE PTR [edi+8], al
  0001c	5f		 pop	 edi
  0001d	5e		 pop	 esi

; 203  : }

  0001e	5d		 pop	 ebp
  0001f	c2 04 00	 ret	 4
?SetTextPosition@CFiboTimeTool@@QAEXABVCTextShowPosition@@@Z ENDP ; CFiboTimeTool::SetTextPosition
_TEXT	ENDS
; Function compile flags: /Ogtp
; File D:\git\src\IBK\IBK_DRFN\ProjSrc\SrcChartEx\ChartAddIn\ChartAnalysisToolAddIn\AnalysisTool\FiboGannTool.cpp
;	COMDAT ??0CFiboTimeTool@@QAE@PAVCAnalysisData@@W4COORDINATETYPE@CAnalysis@@@Z
_TEXT	SEGMENT
_this$ = -16						; size = 4
__$EHRec$ = -12						; size = 12
$T2 = 8							; size = 4
_pAnalysisData$ = 8					; size = 4
_this$ = 12						; size = 4
$T3 = 12						; size = 4
_eCoordinateType$ = 12					; size = 4
??0CFiboTimeTool@@QAE@PAVCAnalysisData@@W4COORDINATETYPE@CAnalysis@@@Z PROC ; CFiboTimeTool::CFiboTimeTool, COMDAT
; _this$ = ecx

; 196  : {

  00000	55		 push	 ebp
  00001	8b ec		 mov	 ebp, esp
  00003	6a ff		 push	 -1
  00005	68 00 00 00 00	 push	 __ehhandler$??0CFiboTimeTool@@QAE@PAVCAnalysisData@@W4COORDINATETYPE@CAnalysis@@@Z
  0000a	64 a1 00 00 00
	00		 mov	 eax, DWORD PTR fs:0
  00010	50		 push	 eax
  00011	51		 push	 ecx
  00012	56		 push	 esi
  00013	57		 push	 edi
  00014	a1 00 00 00 00	 mov	 eax, DWORD PTR ___security_cookie
  00019	33 c5		 xor	 eax, ebp
  0001b	50		 push	 eax
  0001c	8d 45 f4	 lea	 eax, DWORD PTR __$EHRec$[ebp]
  0001f	64 a3 00 00 00
	00		 mov	 DWORD PTR fs:0, eax
  00025	8b f9		 mov	 edi, ecx
  00027	89 7d f0	 mov	 DWORD PTR _this$[ebp], edi

; 194  : 	: COnePointMoveTool(pAnalysisData, eCoordinateType),

  0002a	ff 75 0c	 push	 DWORD PTR _eCoordinateType$[ebp]
  0002d	ff 75 08	 push	 DWORD PTR _pAnalysisData$[ebp]
  00030	e8 00 00 00 00	 call	 ??0COnePointMoveTool@@IAE@PAVCAnalysisData@@W4COORDINATETYPE@CAnalysis@@@Z ; COnePointMoveTool::COnePointMoveTool

; 195  : 	m_textPosition(CTextEnvironment(RGB(0, 0, 0)), true)

  00035	6a 01		 push	 1
  00037	8d 45 0c	 lea	 eax, DWORD PTR $T3[ebp]
  0003a	c7 45 fc 00 00
	00 00		 mov	 DWORD PTR __$EHRec$[ebp+8], 0
  00041	50		 push	 eax
  00042	8d 4d 08	 lea	 ecx, DWORD PTR $T2[ebp]

; 196  : {

  00045	c7 07 00 00 00
	00		 mov	 DWORD PTR [edi], OFFSET ??_7CFiboTimeTool@@6B@
  0004b	c7 45 0c 00 00
	00 00		 mov	 DWORD PTR $T3[ebp], 0
  00052	e8 00 00 00 00	 call	 ??0CTextEnvironment@@QAE@ABK@Z ; CTextEnvironment::CTextEnvironment
  00057	50		 push	 eax
  00058	8d 8f b0 00 00
	00		 lea	 ecx, DWORD PTR [edi+176]
  0005e	e8 00 00 00 00	 call	 ??0CTextShowPosition@@QAE@ABVCTextEnvironment@@_N@Z ; CTextShowPosition::CTextShowPosition
  00063	8d b7 bc 00 00
	00		 lea	 esi, DWORD PTR [edi+188]
  00069	89 75 0c	 mov	 DWORD PTR _this$[ebp], esi
  0006c	8d 4e 24	 lea	 ecx, DWORD PTR [esi+36]
  0006f	c7 06 00 00 00
	00		 mov	 DWORD PTR [esi], OFFSET ??_8CFiboTimeDrawer@@7BCVertLineDrawer@@@
  00075	c7 46 40 00 00
	00 00		 mov	 DWORD PTR [esi+64], OFFSET ??_8CFiboTimeDrawer@@7BCOnePointDrawer@@@
  0007c	e8 00 00 00 00	 call	 ??0CDrawer@@QAE@XZ	; CDrawer::CDrawer
  00081	6a 00		 push	 0
  00083	8b ce		 mov	 ecx, esi
  00085	c7 46 3c 00 00
	00 00		 mov	 DWORD PTR [esi+60], OFFSET ??_7COnePointDrawer@@6B@
  0008c	e8 00 00 00 00	 call	 ??0CVertLineDrawer@@QAE@XZ ; CVertLineDrawer::CVertLineDrawer
  00091	8b 06		 mov	 eax, DWORD PTR [esi]
  00093	8d 4e 0c	 lea	 ecx, DWORD PTR [esi+12]
  00096	8b 40 08	 mov	 eax, DWORD PTR [eax+8]
  00099	c7 04 06 00 00
	00 00		 mov	 DWORD PTR [esi+eax], OFFSET ??_7CFiboTimeDrawer@@6B@
  000a0	8b 06		 mov	 eax, DWORD PTR [esi]
  000a2	8b 40 08	 mov	 eax, DWORD PTR [eax+8]
  000a5	c7 44 30 fc 00
	00 00 00	 mov	 DWORD PTR [eax+esi-4], 0
  000ad	e8 00 00 00 00	 call	 ??0CDWordArray@@QAE@XZ	; CDWordArray::CDWordArray
  000b2	8d 4e 20	 lea	 ecx, DWORD PTR [esi+32]
  000b5	ff 15 00 00 00
	00		 call	 DWORD PTR __imp_??0?$CStringT@DV?$StrTraitMFC_DLL@DV?$ChTraitsCRT@D@ATL@@@@@ATL@@QAE@XZ

; 197  : }

  000bb	8b c7		 mov	 eax, edi
  000bd	8b 4d f4	 mov	 ecx, DWORD PTR __$EHRec$[ebp]
  000c0	64 89 0d 00 00
	00 00		 mov	 DWORD PTR fs:0, ecx
  000c7	59		 pop	 ecx
  000c8	5f		 pop	 edi
  000c9	5e		 pop	 esi
  000ca	8b e5		 mov	 esp, ebp
  000cc	5d		 pop	 ebp
  000cd	c2 08 00	 ret	 8
_TEXT	ENDS
;	COMDAT text$x
text$x	SEGMENT
__unwindfunclet$??0CFiboTimeTool@@QAE@PAVCAnalysisData@@W4COORDINATETYPE@CAnalysis@@@Z$0:
  00000	8b 4d f0	 mov	 ecx, DWORD PTR _this$[ebp]
  00003	e9 00 00 00 00	 jmp	 ??1COnePointMoveTool@@QAE@XZ
  00008	cc		 int	 3
  00009	cc		 int	 3
  0000a	cc		 int	 3
  0000b	cc		 int	 3
  0000c	cc		 int	 3
__ehhandler$??0CFiboTimeTool@@QAE@PAVCAnalysisData@@W4COORDINATETYPE@CAnalysis@@@Z:
  0000d	90		 npad	 1
  0000e	90		 npad	 1
  0000f	8b 54 24 08	 mov	 edx, DWORD PTR [esp+8]
  00013	8d 42 0c	 lea	 eax, DWORD PTR [edx+12]
  00016	8b 4a f0	 mov	 ecx, DWORD PTR [edx-16]
  00019	33 c8		 xor	 ecx, eax
  0001b	e8 00 00 00 00	 call	 @__security_check_cookie@4
  00020	b8 00 00 00 00	 mov	 eax, OFFSET __ehfuncinfo$??0CFiboTimeTool@@QAE@PAVCAnalysisData@@W4COORDINATETYPE@CAnalysis@@@Z
  00025	e9 00 00 00 00	 jmp	 ___CxxFrameHandler3
text$x	ENDS
??0CFiboTimeTool@@QAE@PAVCAnalysisData@@W4COORDINATETYPE@CAnalysis@@@Z ENDP ; CFiboTimeTool::CFiboTimeTool
; Function compile flags: /Ogtp
; File D:\git\src\IBK\IBK_DRFN\ProjSrc\SrcChartEx\ChartAddIn\ChartAnalysisToolAddIn\AnalysisTool\FiboGannTool.cpp
;	COMDAT ?IsMakeElement@CFiboRetraceTool@@MBE_NABVCPoint@@@Z
_TEXT	SEGMENT
$T2 = -60						; size = 40
$T3 = -20						; size = 8
__$EHRec$ = -12						; size = 12
_point$ = 8						; size = 4
?IsMakeElement@CFiboRetraceTool@@MBE_NABVCPoint@@@Z PROC ; CFiboRetraceTool::IsMakeElement, COMDAT
; _this$ = ecx

; 163  : {

  00000	55		 push	 ebp
  00001	8b ec		 mov	 ebp, esp
  00003	6a ff		 push	 -1
  00005	68 00 00 00 00	 push	 __ehhandler$?IsMakeElement@CFiboRetraceTool@@MBE_NABVCPoint@@@Z
  0000a	64 a1 00 00 00
	00		 mov	 eax, DWORD PTR fs:0
  00010	50		 push	 eax
  00011	83 ec 30	 sub	 esp, 48			; 00000030H
  00014	53		 push	 ebx
  00015	56		 push	 esi
  00016	57		 push	 edi
  00017	a1 00 00 00 00	 mov	 eax, DWORD PTR ___security_cookie
  0001c	33 c5		 xor	 eax, ebp
  0001e	50		 push	 eax
  0001f	8d 45 f4	 lea	 eax, DWORD PTR __$EHRec$[ebp]
  00022	64 a3 00 00 00
	00		 mov	 DWORD PTR fs:0, eax
  00028	8b d9		 mov	 ebx, ecx

; 164  : 	if(CTwoPointDownTool::GetDownPoints().GetDrawingPoint().y == point.y)

  0002a	8d 45 c4	 lea	 eax, DWORD PTR $T2[ebp]
  0002d	50		 push	 eax
  0002e	e8 00 00 00 00	 call	 ?GetDownPoints@CTwoPointDownTool@@IBE?AVCPoints@@XZ ; CTwoPointDownTool::GetDownPoints
  00033	8d 4d ec	 lea	 ecx, DWORD PTR $T3[ebp]
  00036	c7 45 fc 00 00
	00 00		 mov	 DWORD PTR __$EHRec$[ebp+8], 0
  0003d	51		 push	 ecx
  0003e	8b c8		 mov	 ecx, eax
  00040	e8 00 00 00 00	 call	 ?GetDrawingPoint@CPoints@@QBE?AVCPoint@@XZ ; CPoints::GetDrawingPoint
  00045	8b 75 08	 mov	 esi, DWORD PTR _point$[ebp]
  00048	8d 4d d8	 lea	 ecx, DWORD PTR $T2[ebp+20]
  0004b	c7 45 fc ff ff
	ff ff		 mov	 DWORD PTR __$EHRec$[ebp+8], -1
  00052	8b 78 04	 mov	 edi, DWORD PTR [eax+4]
  00055	8b 76 04	 mov	 esi, DWORD PTR [esi+4]
  00058	ff 15 00 00 00
	00		 call	 DWORD PTR __imp_??1?$CStringT@DV?$StrTraitMFC_DLL@DV?$ChTraitsCRT@D@ATL@@@@@ATL@@QAE@XZ
  0005e	3b fe		 cmp	 edi, esi
  00060	75 16		 jne	 SHORT $LN2@IsMakeElem

; 165  : 		return false;

  00062	32 c0		 xor	 al, al

; 168  : }

  00064	8b 4d f4	 mov	 ecx, DWORD PTR __$EHRec$[ebp]
  00067	64 89 0d 00 00
	00 00		 mov	 DWORD PTR fs:0, ecx
  0006e	59		 pop	 ecx
  0006f	5f		 pop	 edi
  00070	5e		 pop	 esi
  00071	5b		 pop	 ebx
  00072	8b e5		 mov	 esp, ebp
  00074	5d		 pop	 ebp
  00075	c2 04 00	 ret	 4
$LN2@IsMakeElem:

; 166  : 
; 167  : 	return CTwoPointDownTool::IsMakeElement(point);

  00078	ff 75 08	 push	 DWORD PTR _point$[ebp]
  0007b	8b cb		 mov	 ecx, ebx
  0007d	e8 00 00 00 00	 call	 ?IsMakeElement@CTwoPointDownTool@@MBE_NABVCPoint@@@Z ; CTwoPointDownTool::IsMakeElement

; 168  : }

  00082	8b 4d f4	 mov	 ecx, DWORD PTR __$EHRec$[ebp]
  00085	64 89 0d 00 00
	00 00		 mov	 DWORD PTR fs:0, ecx
  0008c	59		 pop	 ecx
  0008d	5f		 pop	 edi
  0008e	5e		 pop	 esi
  0008f	5b		 pop	 ebx
  00090	8b e5		 mov	 esp, ebp
  00092	5d		 pop	 ebp
  00093	c2 04 00	 ret	 4
_TEXT	ENDS
;	COMDAT text$x
text$x	SEGMENT
__unwindfunclet$?IsMakeElement@CFiboRetraceTool@@MBE_NABVCPoint@@@Z$0:
  00000	8d 4d c4	 lea	 ecx, DWORD PTR $T2[ebp]
  00003	e9 00 00 00 00	 jmp	 ??1CPoints@@QAE@XZ
  00008	cc		 int	 3
  00009	cc		 int	 3
  0000a	cc		 int	 3
  0000b	cc		 int	 3
  0000c	cc		 int	 3
__ehhandler$?IsMakeElement@CFiboRetraceTool@@MBE_NABVCPoint@@@Z:
  0000d	90		 npad	 1
  0000e	90		 npad	 1
  0000f	8b 54 24 08	 mov	 edx, DWORD PTR [esp+8]
  00013	8d 42 0c	 lea	 eax, DWORD PTR [edx+12]
  00016	8b 4a c0	 mov	 ecx, DWORD PTR [edx-64]
  00019	33 c8		 xor	 ecx, eax
  0001b	e8 00 00 00 00	 call	 @__security_check_cookie@4
  00020	b8 00 00 00 00	 mov	 eax, OFFSET __ehfuncinfo$?IsMakeElement@CFiboRetraceTool@@MBE_NABVCPoint@@@Z
  00025	e9 00 00 00 00	 jmp	 ___CxxFrameHandler3
text$x	ENDS
?IsMakeElement@CFiboRetraceTool@@MBE_NABVCPoint@@@Z ENDP ; CFiboRetraceTool::IsMakeElement
; Function compile flags: /Ogtp
; File D:\git\src\IBK\IBK_DRFN\ProjSrc\SrcChartEx\ChartAddIn\ChartAnalysisToolAddIn\AnalysisTool\FiboGannTool.cpp
;	COMDAT ?GetTwoPointDrawer@CFiboRetraceTool@@MAEAAVCTwoPointDrawer@@XZ
_TEXT	SEGMENT
?GetTwoPointDrawer@CFiboRetraceTool@@MAEAAVCTwoPointDrawer@@XZ PROC ; CFiboRetraceTool::GetTwoPointDrawer, COMDAT
; _this$ = ecx

; 187  : 	return m_fiboRetraceDrawer;

  00000	8d 81 04 01 00
	00		 lea	 eax, DWORD PTR [ecx+260]

; 188  : }

  00006	c3		 ret	 0
?GetTwoPointDrawer@CFiboRetraceTool@@MAEAAVCTwoPointDrawer@@XZ ENDP ; CFiboRetraceTool::GetTwoPointDrawer
_TEXT	ENDS
; Function compile flags: /Ogtp
; File D:\git\src\IBK\IBK_DRFN\ProjSrc\SrcChartEx\ChartAddIn\ChartAnalysisToolAddIn\AnalysisTool\FiboGannTool.cpp
;	COMDAT ?GetTextPosition@CFiboRetraceTool@@MAEPAVCTextPosition@@XZ
_TEXT	SEGMENT
?GetTextPosition@CFiboRetraceTool@@MAEPAVCTextPosition@@XZ PROC ; CFiboRetraceTool::GetTextPosition, COMDAT
; _this$ = ecx

; 182  : 	return &m_textPosition;

  00000	8d 81 f8 00 00
	00		 lea	 eax, DWORD PTR [ecx+248]

; 183  : }

  00006	c3		 ret	 0
?GetTextPosition@CFiboRetraceTool@@MAEPAVCTextPosition@@XZ ENDP ; CFiboRetraceTool::GetTextPosition
_TEXT	ENDS
; Function compile flags: /Ogtp
; File D:\git\src\IBK\IBK_DRFN\ProjSrc\SrcChartEx\ChartAddIn\ChartAnalysisToolAddIn\AnalysisTool\FiboGannTool.cpp
;	COMDAT ?GetTextPosition@CFiboRetraceTool@@MBEPBVCTextPosition@@XZ
_TEXT	SEGMENT
?GetTextPosition@CFiboRetraceTool@@MBEPBVCTextPosition@@XZ PROC ; CFiboRetraceTool::GetTextPosition, COMDAT
; _this$ = ecx

; 177  : 	return &m_textPosition;

  00000	8d 81 f8 00 00
	00		 lea	 eax, DWORD PTR [ecx+248]

; 178  : }

  00006	c3		 ret	 0
?GetTextPosition@CFiboRetraceTool@@MBEPBVCTextPosition@@XZ ENDP ; CFiboRetraceTool::GetTextPosition
_TEXT	ENDS
; Function compile flags: /Ogtp
; File D:\git\src\IBK\IBK_DRFN\ProjSrc\SrcChartEx\ChartAddIn\ChartAnalysisToolAddIn\AnalysisTool\FiboGannTool.cpp
;	COMDAT ?GetToolType@CFiboRetraceTool@@MBE?AW4TOOLTYPE@CAnalysis@@XZ
_TEXT	SEGMENT
?GetToolType@CFiboRetraceTool@@MBE?AW4TOOLTYPE@CAnalysis@@XZ PROC ; CFiboRetraceTool::GetToolType, COMDAT
; _this$ = ecx

; 172  : 	return CAnalysis::EN_ANALYSIS_FIBO_RETRACE;

  00000	b8 0b 00 00 00	 mov	 eax, 11			; 0000000bH

; 173  : }

  00005	c3		 ret	 0
?GetToolType@CFiboRetraceTool@@MBE?AW4TOOLTYPE@CAnalysis@@XZ ENDP ; CFiboRetraceTool::GetToolType
_TEXT	ENDS
; Function compile flags: /Ogtp
; File D:\git\src\IBK\IBK_DRFN\ProjSrc\SrcChartEx\ChartAddIn\ChartAnalysisToolAddIn\AnalysisTool\FiboGannTool.cpp
;	COMDAT ?SetTextEnvironment@CFiboRetraceTool@@QAEXABVCTextEnvironment@@@Z
_TEXT	SEGMENT
_textEnvironment$ = 8					; size = 4
?SetTextEnvironment@CFiboRetraceTool@@QAEXABVCTextEnvironment@@@Z PROC ; CFiboRetraceTool::SetTextEnvironment, COMDAT
; _this$ = ecx

; 157  : {

  00000	55		 push	 ebp
  00001	8b ec		 mov	 ebp, esp

; 158  : 	m_textPosition.SetTextEnvironment(textEnvironment);

  00003	81 c1 f8 00 00
	00		 add	 ecx, 248		; 000000f8H

; 159  : }

  00009	5d		 pop	 ebp

; 158  : 	m_textPosition.SetTextEnvironment(textEnvironment);

  0000a	e9 00 00 00 00	 jmp	 ?SetTextEnvironment@CTextPosition@@QAEXABVCTextEnvironment@@@Z ; CTextPosition::SetTextEnvironment
?SetTextEnvironment@CFiboRetraceTool@@QAEXABVCTextEnvironment@@@Z ENDP ; CFiboRetraceTool::SetTextEnvironment
_TEXT	ENDS
; Function compile flags: /Ogtp
; File D:\git\src\IBK\IBK_DRFN\ProjSrc\SrcChartEx\ChartAddIn\ChartAnalysisToolAddIn\AnalysisTool\FiboGannTool.cpp
;	COMDAT ?SetTextPosition@CFiboRetraceTool@@QAEX_N@Z
_TEXT	SEGMENT
_bShow$ = 8						; size = 1
?SetTextPosition@CFiboRetraceTool@@QAEX_N@Z PROC	; CFiboRetraceTool::SetTextPosition, COMDAT
; _this$ = ecx

; 152  : {

  00000	55		 push	 ebp
  00001	8b ec		 mov	 ebp, esp

; 153  : 	m_textPosition.SetShow(bShow);

  00003	81 c1 f8 00 00
	00		 add	 ecx, 248		; 000000f8H

; 154  : }

  00009	5d		 pop	 ebp

; 153  : 	m_textPosition.SetShow(bShow);

  0000a	e9 00 00 00 00	 jmp	 ?SetShow@CTextShowPosition@@QAEX_N@Z ; CTextShowPosition::SetShow
?SetTextPosition@CFiboRetraceTool@@QAEX_N@Z ENDP	; CFiboRetraceTool::SetTextPosition
_TEXT	ENDS
; Function compile flags: /Ogtp
; File D:\git\src\IBK\IBK_DRFN\ProjSrc\SrcChartEx\ChartAddIn\ChartAnalysisToolAddIn\AnalysisTool\FiboGannTool.cpp
;	COMDAT ?SetTextPosition@CFiboRetraceTool@@QAEXABVCTextShowPosition@@@Z
_TEXT	SEGMENT
_position$ = 8						; size = 4
?SetTextPosition@CFiboRetraceTool@@QAEXABVCTextShowPosition@@@Z PROC ; CFiboRetraceTool::SetTextPosition, COMDAT
; _this$ = ecx

; 147  : {

  00000	55		 push	 ebp
  00001	8b ec		 mov	 ebp, esp
  00003	56		 push	 esi

; 148  : 	m_textPosition = position;

  00004	8b 75 08	 mov	 esi, DWORD PTR _position$[ebp]
  00007	57		 push	 edi
  00008	8d b9 f8 00 00
	00		 lea	 edi, DWORD PTR [ecx+248]
  0000e	56		 push	 esi
  0000f	8b cf		 mov	 ecx, edi
  00011	e8 00 00 00 00	 call	 ??4CTextPosition@@QAEAAV0@ABV0@@Z ; CTextPosition::operator=
  00016	8a 46 08	 mov	 al, BYTE PTR [esi+8]
  00019	88 47 08	 mov	 BYTE PTR [edi+8], al
  0001c	5f		 pop	 edi
  0001d	5e		 pop	 esi

; 149  : }

  0001e	5d		 pop	 ebp
  0001f	c2 04 00	 ret	 4
?SetTextPosition@CFiboRetraceTool@@QAEXABVCTextShowPosition@@@Z ENDP ; CFiboRetraceTool::SetTextPosition
_TEXT	ENDS
; Function compile flags: /Ogtp
; File D:\git\src\IBK\IBK_DRFN\ProjSrc\SrcChartEx\ChartAddIn\ChartAnalysisToolAddIn\AnalysisTool\FiboGannTool.cpp
;	COMDAT ??0CFiboRetraceTool@@QAE@PAVCAnalysisData@@W4COORDINATETYPE@CAnalysis@@@Z
_TEXT	SEGMENT
_this$ = -16						; size = 4
__$EHRec$ = -12						; size = 12
$T2 = 8							; size = 4
_pAnalysisData$ = 8					; size = 4
_this$ = 12						; size = 4
$T3 = 12						; size = 4
_eCoordinateType$ = 12					; size = 4
??0CFiboRetraceTool@@QAE@PAVCAnalysisData@@W4COORDINATETYPE@CAnalysis@@@Z PROC ; CFiboRetraceTool::CFiboRetraceTool, COMDAT
; _this$ = ecx

; 143  : {

  00000	55		 push	 ebp
  00001	8b ec		 mov	 ebp, esp
  00003	6a ff		 push	 -1
  00005	68 00 00 00 00	 push	 __ehhandler$??0CFiboRetraceTool@@QAE@PAVCAnalysisData@@W4COORDINATETYPE@CAnalysis@@@Z
  0000a	64 a1 00 00 00
	00		 mov	 eax, DWORD PTR fs:0
  00010	50		 push	 eax
  00011	51		 push	 ecx
  00012	56		 push	 esi
  00013	57		 push	 edi
  00014	a1 00 00 00 00	 mov	 eax, DWORD PTR ___security_cookie
  00019	33 c5		 xor	 eax, ebp
  0001b	50		 push	 eax
  0001c	8d 45 f4	 lea	 eax, DWORD PTR __$EHRec$[ebp]
  0001f	64 a3 00 00 00
	00		 mov	 DWORD PTR fs:0, eax
  00025	8b f9		 mov	 edi, ecx
  00027	89 7d f0	 mov	 DWORD PTR _this$[ebp], edi

; 141  : 	: CTwoPointDownTool(pAnalysisData, eCoordinateType),

  0002a	ff 75 0c	 push	 DWORD PTR _eCoordinateType$[ebp]
  0002d	ff 75 08	 push	 DWORD PTR _pAnalysisData$[ebp]
  00030	e8 00 00 00 00	 call	 ??0CTwoPointDownTool@@IAE@PAVCAnalysisData@@W4COORDINATETYPE@CAnalysis@@@Z ; CTwoPointDownTool::CTwoPointDownTool

; 142  : 	m_textPosition(CTextEnvironment(RGB(0, 0, 0)), true)	

  00035	6a 01		 push	 1
  00037	8d 45 0c	 lea	 eax, DWORD PTR $T3[ebp]
  0003a	c7 45 fc 00 00
	00 00		 mov	 DWORD PTR __$EHRec$[ebp+8], 0
  00041	50		 push	 eax
  00042	8d 4d 08	 lea	 ecx, DWORD PTR $T2[ebp]

; 143  : {

  00045	c7 07 00 00 00
	00		 mov	 DWORD PTR [edi], OFFSET ??_7CFiboRetraceTool@@6B@
  0004b	c7 45 0c 00 00
	00 00		 mov	 DWORD PTR $T3[ebp], 0
  00052	e8 00 00 00 00	 call	 ??0CTextEnvironment@@QAE@ABK@Z ; CTextEnvironment::CTextEnvironment
  00057	50		 push	 eax
  00058	8d 8f f8 00 00
	00		 lea	 ecx, DWORD PTR [edi+248]
  0005e	e8 00 00 00 00	 call	 ??0CTextShowPosition@@QAE@ABVCTextEnvironment@@_N@Z ; CTextShowPosition::CTextShowPosition
  00063	8d b7 04 01 00
	00		 lea	 esi, DWORD PTR [edi+260]
  00069	89 75 0c	 mov	 DWORD PTR _this$[ebp], esi
  0006c	8d 4e 20	 lea	 ecx, DWORD PTR [esi+32]
  0006f	c7 46 04 00 00
	00 00		 mov	 DWORD PTR [esi+4], OFFSET ??_8CFiboRetraceDrawer@@7B@
  00076	e8 00 00 00 00	 call	 ??0CDrawer@@QAE@XZ	; CDrawer::CDrawer
  0007b	8d 4e 08	 lea	 ecx, DWORD PTR [esi+8]
  0007e	c7 06 00 00 00
	00		 mov	 DWORD PTR [esi], OFFSET ??_7CFiboDrawer@@6B@
  00084	e8 00 00 00 00	 call	 ??0CDWordArray@@QAE@XZ	; CDWordArray::CDWordArray
  00089	8d 4e 1c	 lea	 ecx, DWORD PTR [esi+28]
  0008c	ff 15 00 00 00
	00		 call	 DWORD PTR __imp_??0?$CStringT@DV?$StrTraitMFC_DLL@DV?$ChTraitsCRT@D@ATL@@@@@ATL@@QAE@XZ
  00092	c7 06 00 00 00
	00		 mov	 DWORD PTR [esi], OFFSET ??_7CFiboRetraceDrawer@@6B@

; 144  : }

  00098	8b c7		 mov	 eax, edi
  0009a	8b 4d f4	 mov	 ecx, DWORD PTR __$EHRec$[ebp]
  0009d	64 89 0d 00 00
	00 00		 mov	 DWORD PTR fs:0, ecx
  000a4	59		 pop	 ecx
  000a5	5f		 pop	 edi
  000a6	5e		 pop	 esi
  000a7	8b e5		 mov	 esp, ebp
  000a9	5d		 pop	 ebp
  000aa	c2 08 00	 ret	 8
_TEXT	ENDS
;	COMDAT text$x
text$x	SEGMENT
__unwindfunclet$??0CFiboRetraceTool@@QAE@PAVCAnalysisData@@W4COORDINATETYPE@CAnalysis@@@Z$0:
  00000	8b 4d f0	 mov	 ecx, DWORD PTR _this$[ebp]
  00003	e9 00 00 00 00	 jmp	 ??1CTwoPointDownTool@@QAE@XZ
  00008	cc		 int	 3
  00009	cc		 int	 3
  0000a	cc		 int	 3
  0000b	cc		 int	 3
  0000c	cc		 int	 3
__ehhandler$??0CFiboRetraceTool@@QAE@PAVCAnalysisData@@W4COORDINATETYPE@CAnalysis@@@Z:
  0000d	90		 npad	 1
  0000e	90		 npad	 1
  0000f	8b 54 24 08	 mov	 edx, DWORD PTR [esp+8]
  00013	8d 42 0c	 lea	 eax, DWORD PTR [edx+12]
  00016	8b 4a f0	 mov	 ecx, DWORD PTR [edx-16]
  00019	33 c8		 xor	 ecx, eax
  0001b	e8 00 00 00 00	 call	 @__security_check_cookie@4
  00020	b8 00 00 00 00	 mov	 eax, OFFSET __ehfuncinfo$??0CFiboRetraceTool@@QAE@PAVCAnalysisData@@W4COORDINATETYPE@CAnalysis@@@Z
  00025	e9 00 00 00 00	 jmp	 ___CxxFrameHandler3
text$x	ENDS
??0CFiboRetraceTool@@QAE@PAVCAnalysisData@@W4COORDINATETYPE@CAnalysis@@@Z ENDP ; CFiboRetraceTool::CFiboRetraceTool
; Function compile flags: /Ogtp
; File D:\git\src\IBK\IBK_DRFN\ProjSrc\SrcChartEx\ChartAddIn\ChartAnalysisToolAddIn\AnalysisTool\FiboGannTool.cpp
;	COMDAT ?GetTextPosition@CFiboPenLineTool@@MAEPAVCTextPosition@@XZ
_TEXT	SEGMENT
?GetTextPosition@CFiboPenLineTool@@MAEPAVCTextPosition@@XZ PROC ; CFiboPenLineTool::GetTextPosition, COMDAT
; _this$ = ecx

; 135  : 	return &m_textPosition;

  00000	8d 81 f8 00 00
	00		 lea	 eax, DWORD PTR [ecx+248]

; 136  : }

  00006	c3		 ret	 0
?GetTextPosition@CFiboPenLineTool@@MAEPAVCTextPosition@@XZ ENDP ; CFiboPenLineTool::GetTextPosition
_TEXT	ENDS
; Function compile flags: /Ogtp
; File D:\git\src\IBK\IBK_DRFN\ProjSrc\SrcChartEx\ChartAddIn\ChartAnalysisToolAddIn\AnalysisTool\FiboGannTool.cpp
;	COMDAT ?GetTextPosition@CFiboPenLineTool@@MBEPBVCTextPosition@@XZ
_TEXT	SEGMENT
?GetTextPosition@CFiboPenLineTool@@MBEPBVCTextPosition@@XZ PROC ; CFiboPenLineTool::GetTextPosition, COMDAT
; _this$ = ecx

; 130  : 	return &m_textPosition;

  00000	8d 81 f8 00 00
	00		 lea	 eax, DWORD PTR [ecx+248]

; 131  : }

  00006	c3		 ret	 0
?GetTextPosition@CFiboPenLineTool@@MBEPBVCTextPosition@@XZ ENDP ; CFiboPenLineTool::GetTextPosition
_TEXT	ENDS
; Function compile flags: /Ogtp
; File D:\git\src\IBK\IBK_DRFN\ProjSrc\SrcChartEx\ChartAddIn\ChartAnalysisToolAddIn\AnalysisTool\FiboGannTool.cpp
;	COMDAT ?GetTwoPointDrawer@CFiboPenLineTool@@MAEAAVCTwoPointDrawer@@XZ
_TEXT	SEGMENT
?GetTwoPointDrawer@CFiboPenLineTool@@MAEAAVCTwoPointDrawer@@XZ PROC ; CFiboPenLineTool::GetTwoPointDrawer, COMDAT
; _this$ = ecx

; 125  : 	return m_fiboPenLineDrawer;

  00000	8d 81 04 01 00
	00		 lea	 eax, DWORD PTR [ecx+260]

; 126  : }

  00006	c3		 ret	 0
?GetTwoPointDrawer@CFiboPenLineTool@@MAEAAVCTwoPointDrawer@@XZ ENDP ; CFiboPenLineTool::GetTwoPointDrawer
_TEXT	ENDS
; Function compile flags: /Ogtp
; File D:\git\src\IBK\IBK_DRFN\ProjSrc\SrcChartEx\ChartAddIn\ChartAnalysisToolAddIn\AnalysisTool\FiboGannTool.cpp
;	COMDAT ?GetToolType@CFiboPenLineTool@@MBE?AW4TOOLTYPE@CAnalysis@@XZ
_TEXT	SEGMENT
?GetToolType@CFiboPenLineTool@@MBE?AW4TOOLTYPE@CAnalysis@@XZ PROC ; CFiboPenLineTool::GetToolType, COMDAT
; _this$ = ecx

; 120  : 	return CAnalysis::EN_ANALYSIS_FIBO_FAN_LINE;

  00000	b8 0a 00 00 00	 mov	 eax, 10			; 0000000aH

; 121  : }

  00005	c3		 ret	 0
?GetToolType@CFiboPenLineTool@@MBE?AW4TOOLTYPE@CAnalysis@@XZ ENDP ; CFiboPenLineTool::GetToolType
_TEXT	ENDS
; Function compile flags: /Ogtp
; File D:\git\src\IBK\IBK_DRFN\ProjSrc\SrcChartEx\ChartAddIn\ChartAnalysisToolAddIn\AnalysisTool\FiboGannTool.cpp
;	COMDAT ?SetTextPosition@CFiboPenLineTool@@QAEX_N@Z
_TEXT	SEGMENT
_bShow$ = 8						; size = 1
?SetTextPosition@CFiboPenLineTool@@QAEX_N@Z PROC	; CFiboPenLineTool::SetTextPosition, COMDAT
; _this$ = ecx

; 114  : {

  00000	55		 push	 ebp
  00001	8b ec		 mov	 ebp, esp

; 115  : 	m_textPosition.SetShow(bShow);

  00003	81 c1 f8 00 00
	00		 add	 ecx, 248		; 000000f8H

; 116  : }

  00009	5d		 pop	 ebp

; 115  : 	m_textPosition.SetShow(bShow);

  0000a	e9 00 00 00 00	 jmp	 ?SetShow@CTextShowPosition@@QAEX_N@Z ; CTextShowPosition::SetShow
?SetTextPosition@CFiboPenLineTool@@QAEX_N@Z ENDP	; CFiboPenLineTool::SetTextPosition
_TEXT	ENDS
; Function compile flags: /Ogtp
; File D:\git\src\IBK\IBK_DRFN\ProjSrc\SrcChartEx\ChartAddIn\ChartAnalysisToolAddIn\AnalysisTool\FiboGannTool.cpp
;	COMDAT ?SetTextPosition@CFiboPenLineTool@@QAEXABVCTextShowPosition@@@Z
_TEXT	SEGMENT
_position$ = 8						; size = 4
?SetTextPosition@CFiboPenLineTool@@QAEXABVCTextShowPosition@@@Z PROC ; CFiboPenLineTool::SetTextPosition, COMDAT
; _this$ = ecx

; 109  : {

  00000	55		 push	 ebp
  00001	8b ec		 mov	 ebp, esp
  00003	56		 push	 esi

; 110  : 	m_textPosition = position;

  00004	8b 75 08	 mov	 esi, DWORD PTR _position$[ebp]
  00007	57		 push	 edi
  00008	8d b9 f8 00 00
	00		 lea	 edi, DWORD PTR [ecx+248]
  0000e	56		 push	 esi
  0000f	8b cf		 mov	 ecx, edi
  00011	e8 00 00 00 00	 call	 ??4CTextPosition@@QAEAAV0@ABV0@@Z ; CTextPosition::operator=
  00016	8a 46 08	 mov	 al, BYTE PTR [esi+8]
  00019	88 47 08	 mov	 BYTE PTR [edi+8], al
  0001c	5f		 pop	 edi
  0001d	5e		 pop	 esi

; 111  : }

  0001e	5d		 pop	 ebp
  0001f	c2 04 00	 ret	 4
?SetTextPosition@CFiboPenLineTool@@QAEXABVCTextShowPosition@@@Z ENDP ; CFiboPenLineTool::SetTextPosition
_TEXT	ENDS
; Function compile flags: /Ogtp
; File D:\git\src\IBK\IBK_DRFN\ProjSrc\SrcChartEx\ChartAddIn\ChartAnalysisToolAddIn\AnalysisTool\FiboGannTool.cpp
;	COMDAT ??0CFiboPenLineTool@@QAE@PAVCAnalysisData@@W4COORDINATETYPE@CAnalysis@@@Z
_TEXT	SEGMENT
_this$ = -16						; size = 4
__$EHRec$ = -12						; size = 12
$T2 = 8							; size = 4
_pAnalysisData$ = 8					; size = 4
_this$ = 12						; size = 4
$T3 = 12						; size = 4
_eCoordinateType$ = 12					; size = 4
??0CFiboPenLineTool@@QAE@PAVCAnalysisData@@W4COORDINATETYPE@CAnalysis@@@Z PROC ; CFiboPenLineTool::CFiboPenLineTool, COMDAT
; _this$ = ecx

; 105  : {

  00000	55		 push	 ebp
  00001	8b ec		 mov	 ebp, esp
  00003	6a ff		 push	 -1
  00005	68 00 00 00 00	 push	 __ehhandler$??0CFiboPenLineTool@@QAE@PAVCAnalysisData@@W4COORDINATETYPE@CAnalysis@@@Z
  0000a	64 a1 00 00 00
	00		 mov	 eax, DWORD PTR fs:0
  00010	50		 push	 eax
  00011	51		 push	 ecx
  00012	56		 push	 esi
  00013	57		 push	 edi
  00014	a1 00 00 00 00	 mov	 eax, DWORD PTR ___security_cookie
  00019	33 c5		 xor	 eax, ebp
  0001b	50		 push	 eax
  0001c	8d 45 f4	 lea	 eax, DWORD PTR __$EHRec$[ebp]
  0001f	64 a3 00 00 00
	00		 mov	 DWORD PTR fs:0, eax
  00025	8b f9		 mov	 edi, ecx
  00027	89 7d f0	 mov	 DWORD PTR _this$[ebp], edi

; 103  : 	: CTwoPointDownTool(pAnalysisData, eCoordinateType),

  0002a	ff 75 0c	 push	 DWORD PTR _eCoordinateType$[ebp]
  0002d	ff 75 08	 push	 DWORD PTR _pAnalysisData$[ebp]
  00030	e8 00 00 00 00	 call	 ??0CTwoPointDownTool@@IAE@PAVCAnalysisData@@W4COORDINATETYPE@CAnalysis@@@Z ; CTwoPointDownTool::CTwoPointDownTool

; 104  : 	m_textPosition(CTextEnvironment(RGB(0, 0, 0)), true)	

  00035	6a 01		 push	 1
  00037	8d 45 0c	 lea	 eax, DWORD PTR $T3[ebp]
  0003a	c7 45 fc 00 00
	00 00		 mov	 DWORD PTR __$EHRec$[ebp+8], 0
  00041	50		 push	 eax
  00042	8d 4d 08	 lea	 ecx, DWORD PTR $T2[ebp]

; 105  : {

  00045	c7 07 00 00 00
	00		 mov	 DWORD PTR [edi], OFFSET ??_7CFiboPenLineTool@@6B@
  0004b	c7 45 0c 00 00
	00 00		 mov	 DWORD PTR $T3[ebp], 0
  00052	e8 00 00 00 00	 call	 ??0CTextEnvironment@@QAE@ABK@Z ; CTextEnvironment::CTextEnvironment
  00057	50		 push	 eax
  00058	8d 8f f8 00 00
	00		 lea	 ecx, DWORD PTR [edi+248]
  0005e	e8 00 00 00 00	 call	 ??0CTextShowPosition@@QAE@ABVCTextEnvironment@@_N@Z ; CTextShowPosition::CTextShowPosition
  00063	8d b7 04 01 00
	00		 lea	 esi, DWORD PTR [edi+260]
  00069	89 75 0c	 mov	 DWORD PTR _this$[ebp], esi
  0006c	8d 4e 20	 lea	 ecx, DWORD PTR [esi+32]
  0006f	c7 46 04 00 00
	00 00		 mov	 DWORD PTR [esi+4], OFFSET ??_8CFiboPenLineDrawer@@7B@
  00076	e8 00 00 00 00	 call	 ??0CDrawer@@QAE@XZ	; CDrawer::CDrawer
  0007b	8d 4e 08	 lea	 ecx, DWORD PTR [esi+8]
  0007e	c7 06 00 00 00
	00		 mov	 DWORD PTR [esi], OFFSET ??_7CFiboDrawer@@6B@
  00084	e8 00 00 00 00	 call	 ??0CDWordArray@@QAE@XZ	; CDWordArray::CDWordArray
  00089	8d 4e 1c	 lea	 ecx, DWORD PTR [esi+28]
  0008c	ff 15 00 00 00
	00		 call	 DWORD PTR __imp_??0?$CStringT@DV?$StrTraitMFC_DLL@DV?$ChTraitsCRT@D@ATL@@@@@ATL@@QAE@XZ
  00092	c7 06 00 00 00
	00		 mov	 DWORD PTR [esi], OFFSET ??_7CFiboPenLineDrawer@@6B@

; 106  : }

  00098	8b c7		 mov	 eax, edi
  0009a	8b 4d f4	 mov	 ecx, DWORD PTR __$EHRec$[ebp]
  0009d	64 89 0d 00 00
	00 00		 mov	 DWORD PTR fs:0, ecx
  000a4	59		 pop	 ecx
  000a5	5f		 pop	 edi
  000a6	5e		 pop	 esi
  000a7	8b e5		 mov	 esp, ebp
  000a9	5d		 pop	 ebp
  000aa	c2 08 00	 ret	 8
_TEXT	ENDS
;	COMDAT text$x
text$x	SEGMENT
__unwindfunclet$??0CFiboPenLineTool@@QAE@PAVCAnalysisData@@W4COORDINATETYPE@CAnalysis@@@Z$0:
  00000	8b 4d f0	 mov	 ecx, DWORD PTR _this$[ebp]
  00003	e9 00 00 00 00	 jmp	 ??1CTwoPointDownTool@@QAE@XZ
  00008	cc		 int	 3
  00009	cc		 int	 3
  0000a	cc		 int	 3
  0000b	cc		 int	 3
  0000c	cc		 int	 3
__ehhandler$??0CFiboPenLineTool@@QAE@PAVCAnalysisData@@W4COORDINATETYPE@CAnalysis@@@Z:
  0000d	90		 npad	 1
  0000e	90		 npad	 1
  0000f	8b 54 24 08	 mov	 edx, DWORD PTR [esp+8]
  00013	8d 42 0c	 lea	 eax, DWORD PTR [edx+12]
  00016	8b 4a f0	 mov	 ecx, DWORD PTR [edx-16]
  00019	33 c8		 xor	 ecx, eax
  0001b	e8 00 00 00 00	 call	 @__security_check_cookie@4
  00020	b8 00 00 00 00	 mov	 eax, OFFSET __ehfuncinfo$??0CFiboPenLineTool@@QAE@PAVCAnalysisData@@W4COORDINATETYPE@CAnalysis@@@Z
  00025	e9 00 00 00 00	 jmp	 ___CxxFrameHandler3
text$x	ENDS
??0CFiboPenLineTool@@QAE@PAVCAnalysisData@@W4COORDINATETYPE@CAnalysis@@@Z ENDP ; CFiboPenLineTool::CFiboPenLineTool
; Function compile flags: /Ogtp
; File D:\git\src\IBK\IBK_DRFN\ProjSrc\SrcChartEx\ChartAddIn\ChartAnalysisToolAddIn\AnalysisTool\FiboGannTool.cpp
;	COMDAT ?GetTextPosition@CFiboCircleTool@@MAEPAVCTextPosition@@XZ
_TEXT	SEGMENT
?GetTextPosition@CFiboCircleTool@@MAEPAVCTextPosition@@XZ PROC ; CFiboCircleTool::GetTextPosition, COMDAT
; _this$ = ecx

; 96   : 	return &m_textPosition;

  00000	8d 81 f8 00 00
	00		 lea	 eax, DWORD PTR [ecx+248]

; 97   : }

  00006	c3		 ret	 0
?GetTextPosition@CFiboCircleTool@@MAEPAVCTextPosition@@XZ ENDP ; CFiboCircleTool::GetTextPosition
_TEXT	ENDS
; Function compile flags: /Ogtp
; File D:\git\src\IBK\IBK_DRFN\ProjSrc\SrcChartEx\ChartAddIn\ChartAnalysisToolAddIn\AnalysisTool\FiboGannTool.cpp
;	COMDAT ?GetTextPosition@CFiboCircleTool@@MBEPBVCTextPosition@@XZ
_TEXT	SEGMENT
?GetTextPosition@CFiboCircleTool@@MBEPBVCTextPosition@@XZ PROC ; CFiboCircleTool::GetTextPosition, COMDAT
; _this$ = ecx

; 91   : 	return &m_textPosition;

  00000	8d 81 f8 00 00
	00		 lea	 eax, DWORD PTR [ecx+248]

; 92   : }

  00006	c3		 ret	 0
?GetTextPosition@CFiboCircleTool@@MBEPBVCTextPosition@@XZ ENDP ; CFiboCircleTool::GetTextPosition
_TEXT	ENDS
; Function compile flags: /Ogtp
; File D:\git\src\IBK\IBK_DRFN\ProjSrc\SrcChartEx\ChartAddIn\ChartAnalysisToolAddIn\AnalysisTool\FiboGannTool.cpp
;	COMDAT ?GetTwoPointDrawer@CFiboCircleTool@@MAEAAVCTwoPointDrawer@@XZ
_TEXT	SEGMENT
?GetTwoPointDrawer@CFiboCircleTool@@MAEAAVCTwoPointDrawer@@XZ PROC ; CFiboCircleTool::GetTwoPointDrawer, COMDAT
; _this$ = ecx

; 86   : 	return m_fiboCircleDrawer;

  00000	8d 81 04 01 00
	00		 lea	 eax, DWORD PTR [ecx+260]

; 87   : }

  00006	c3		 ret	 0
?GetTwoPointDrawer@CFiboCircleTool@@MAEAAVCTwoPointDrawer@@XZ ENDP ; CFiboCircleTool::GetTwoPointDrawer
_TEXT	ENDS
; Function compile flags: /Ogtp
; File D:\git\src\IBK\IBK_DRFN\ProjSrc\SrcChartEx\ChartAddIn\ChartAnalysisToolAddIn\AnalysisTool\FiboGannTool.cpp
;	COMDAT ?GetToolType@CFiboCircleTool@@MBE?AW4TOOLTYPE@CAnalysis@@XZ
_TEXT	SEGMENT
?GetToolType@CFiboCircleTool@@MBE?AW4TOOLTYPE@CAnalysis@@XZ PROC ; CFiboCircleTool::GetToolType, COMDAT
; _this$ = ecx

; 81   : 	return CAnalysis::EN_ANALYSIS_FIBO_CIRCLE;

  00000	b8 09 00 00 00	 mov	 eax, 9

; 82   : }

  00005	c3		 ret	 0
?GetToolType@CFiboCircleTool@@MBE?AW4TOOLTYPE@CAnalysis@@XZ ENDP ; CFiboCircleTool::GetToolType
_TEXT	ENDS
; Function compile flags: /Ogtp
; File D:\git\src\IBK\IBK_DRFN\ProjSrc\SrcChartEx\ChartAddIn\ChartAnalysisToolAddIn\AnalysisTool\FiboGannTool.cpp
;	COMDAT ?SetTextPosition@CFiboCircleTool@@QAEX_N@Z
_TEXT	SEGMENT
_bShow$ = 8						; size = 1
?SetTextPosition@CFiboCircleTool@@QAEX_N@Z PROC		; CFiboCircleTool::SetTextPosition, COMDAT
; _this$ = ecx

; 74   : {

  00000	55		 push	 ebp
  00001	8b ec		 mov	 ebp, esp

; 75   : 	m_textPosition.SetShow(bShow);

  00003	81 c1 f8 00 00
	00		 add	 ecx, 248		; 000000f8H

; 76   : }

  00009	5d		 pop	 ebp

; 75   : 	m_textPosition.SetShow(bShow);

  0000a	e9 00 00 00 00	 jmp	 ?SetShow@CTextShowPosition@@QAEX_N@Z ; CTextShowPosition::SetShow
?SetTextPosition@CFiboCircleTool@@QAEX_N@Z ENDP		; CFiboCircleTool::SetTextPosition
_TEXT	ENDS
; Function compile flags: /Ogtp
; File D:\git\src\IBK\IBK_DRFN\ProjSrc\SrcChartEx\ChartAddIn\ChartAnalysisToolAddIn\AnalysisTool\FiboGannTool.cpp
;	COMDAT ?SetTextPosition@CFiboCircleTool@@QAEXABVCTextShowPosition@@@Z
_TEXT	SEGMENT
_position$ = 8						; size = 4
?SetTextPosition@CFiboCircleTool@@QAEXABVCTextShowPosition@@@Z PROC ; CFiboCircleTool::SetTextPosition, COMDAT
; _this$ = ecx

; 69   : {

  00000	55		 push	 ebp
  00001	8b ec		 mov	 ebp, esp
  00003	56		 push	 esi

; 70   : 	m_textPosition = position;

  00004	8b 75 08	 mov	 esi, DWORD PTR _position$[ebp]
  00007	57		 push	 edi
  00008	8d b9 f8 00 00
	00		 lea	 edi, DWORD PTR [ecx+248]
  0000e	56		 push	 esi
  0000f	8b cf		 mov	 ecx, edi
  00011	e8 00 00 00 00	 call	 ??4CTextPosition@@QAEAAV0@ABV0@@Z ; CTextPosition::operator=
  00016	8a 46 08	 mov	 al, BYTE PTR [esi+8]
  00019	88 47 08	 mov	 BYTE PTR [edi+8], al
  0001c	5f		 pop	 edi
  0001d	5e		 pop	 esi

; 71   : }

  0001e	5d		 pop	 ebp
  0001f	c2 04 00	 ret	 4
?SetTextPosition@CFiboCircleTool@@QAEXABVCTextShowPosition@@@Z ENDP ; CFiboCircleTool::SetTextPosition
_TEXT	ENDS
; Function compile flags: /Ogtp
; File D:\git\src\IBK\IBK_DRFN\ProjSrc\SrcChartEx\ChartAddIn\ChartAnalysisToolAddIn\AnalysisTool\FiboGannTool.cpp
;	COMDAT ??0CFiboCircleTool@@QAE@PAVCAnalysisData@@W4COORDINATETYPE@CAnalysis@@@Z
_TEXT	SEGMENT
_this$ = -16						; size = 4
__$EHRec$ = -12						; size = 12
$T2 = 8							; size = 4
_pAnalysisData$ = 8					; size = 4
_this$ = 12						; size = 4
$T3 = 12						; size = 4
_eCoordinateType$ = 12					; size = 4
??0CFiboCircleTool@@QAE@PAVCAnalysisData@@W4COORDINATETYPE@CAnalysis@@@Z PROC ; CFiboCircleTool::CFiboCircleTool, COMDAT
; _this$ = ecx

; 65   : {

  00000	55		 push	 ebp
  00001	8b ec		 mov	 ebp, esp
  00003	6a ff		 push	 -1
  00005	68 00 00 00 00	 push	 __ehhandler$??0CFiboCircleTool@@QAE@PAVCAnalysisData@@W4COORDINATETYPE@CAnalysis@@@Z
  0000a	64 a1 00 00 00
	00		 mov	 eax, DWORD PTR fs:0
  00010	50		 push	 eax
  00011	51		 push	 ecx
  00012	56		 push	 esi
  00013	57		 push	 edi
  00014	a1 00 00 00 00	 mov	 eax, DWORD PTR ___security_cookie
  00019	33 c5		 xor	 eax, ebp
  0001b	50		 push	 eax
  0001c	8d 45 f4	 lea	 eax, DWORD PTR __$EHRec$[ebp]
  0001f	64 a3 00 00 00
	00		 mov	 DWORD PTR fs:0, eax
  00025	8b f9		 mov	 edi, ecx
  00027	89 7d f0	 mov	 DWORD PTR _this$[ebp], edi

; 63   : 	: CTwoPointDownTool(pAnalysisData, eCoordinateType),

  0002a	ff 75 0c	 push	 DWORD PTR _eCoordinateType$[ebp]
  0002d	ff 75 08	 push	 DWORD PTR _pAnalysisData$[ebp]
  00030	e8 00 00 00 00	 call	 ??0CTwoPointDownTool@@IAE@PAVCAnalysisData@@W4COORDINATETYPE@CAnalysis@@@Z ; CTwoPointDownTool::CTwoPointDownTool

; 64   : 	m_textPosition(CTextEnvironment(RGB(0, 0, 0)), true)

  00035	6a 01		 push	 1
  00037	8d 45 0c	 lea	 eax, DWORD PTR $T3[ebp]
  0003a	c7 45 fc 00 00
	00 00		 mov	 DWORD PTR __$EHRec$[ebp+8], 0
  00041	50		 push	 eax
  00042	8d 4d 08	 lea	 ecx, DWORD PTR $T2[ebp]

; 65   : {

  00045	c7 07 00 00 00
	00		 mov	 DWORD PTR [edi], OFFSET ??_7CFiboCircleTool@@6B@
  0004b	c7 45 0c 00 00
	00 00		 mov	 DWORD PTR $T3[ebp], 0
  00052	e8 00 00 00 00	 call	 ??0CTextEnvironment@@QAE@ABK@Z ; CTextEnvironment::CTextEnvironment
  00057	50		 push	 eax
  00058	8d 8f f8 00 00
	00		 lea	 ecx, DWORD PTR [edi+248]
  0005e	e8 00 00 00 00	 call	 ??0CTextShowPosition@@QAE@ABVCTextEnvironment@@_N@Z ; CTextShowPosition::CTextShowPosition
  00063	8d b7 04 01 00
	00		 lea	 esi, DWORD PTR [edi+260]
  00069	89 75 0c	 mov	 DWORD PTR _this$[ebp], esi
  0006c	8d 4e 20	 lea	 ecx, DWORD PTR [esi+32]
  0006f	c7 46 04 00 00
	00 00		 mov	 DWORD PTR [esi+4], OFFSET ??_8CFiboCircleDrawer@@7B@
  00076	e8 00 00 00 00	 call	 ??0CDrawer@@QAE@XZ	; CDrawer::CDrawer
  0007b	8d 4e 08	 lea	 ecx, DWORD PTR [esi+8]
  0007e	c7 06 00 00 00
	00		 mov	 DWORD PTR [esi], OFFSET ??_7CFiboDrawer@@6B@
  00084	e8 00 00 00 00	 call	 ??0CDWordArray@@QAE@XZ	; CDWordArray::CDWordArray
  00089	8d 4e 1c	 lea	 ecx, DWORD PTR [esi+28]
  0008c	ff 15 00 00 00
	00		 call	 DWORD PTR __imp_??0?$CStringT@DV?$StrTraitMFC_DLL@DV?$ChTraitsCRT@D@ATL@@@@@ATL@@QAE@XZ
  00092	c7 06 00 00 00
	00		 mov	 DWORD PTR [esi], OFFSET ??_7CFiboCircleDrawer@@6B@

; 66   : }

  00098	8b c7		 mov	 eax, edi
  0009a	8b 4d f4	 mov	 ecx, DWORD PTR __$EHRec$[ebp]
  0009d	64 89 0d 00 00
	00 00		 mov	 DWORD PTR fs:0, ecx
  000a4	59		 pop	 ecx
  000a5	5f		 pop	 edi
  000a6	5e		 pop	 esi
  000a7	8b e5		 mov	 esp, ebp
  000a9	5d		 pop	 ebp
  000aa	c2 08 00	 ret	 8
_TEXT	ENDS
;	COMDAT text$x
text$x	SEGMENT
__unwindfunclet$??0CFiboCircleTool@@QAE@PAVCAnalysisData@@W4COORDINATETYPE@CAnalysis@@@Z$0:
  00000	8b 4d f0	 mov	 ecx, DWORD PTR _this$[ebp]
  00003	e9 00 00 00 00	 jmp	 ??1CTwoPointDownTool@@QAE@XZ
  00008	cc		 int	 3
  00009	cc		 int	 3
  0000a	cc		 int	 3
  0000b	cc		 int	 3
  0000c	cc		 int	 3
__ehhandler$??0CFiboCircleTool@@QAE@PAVCAnalysisData@@W4COORDINATETYPE@CAnalysis@@@Z:
  0000d	90		 npad	 1
  0000e	90		 npad	 1
  0000f	8b 54 24 08	 mov	 edx, DWORD PTR [esp+8]
  00013	8d 42 0c	 lea	 eax, DWORD PTR [edx+12]
  00016	8b 4a f0	 mov	 ecx, DWORD PTR [edx-16]
  00019	33 c8		 xor	 ecx, eax
  0001b	e8 00 00 00 00	 call	 @__security_check_cookie@4
  00020	b8 00 00 00 00	 mov	 eax, OFFSET __ehfuncinfo$??0CFiboCircleTool@@QAE@PAVCAnalysisData@@W4COORDINATETYPE@CAnalysis@@@Z
  00025	e9 00 00 00 00	 jmp	 ___CxxFrameHandler3
text$x	ENDS
??0CFiboCircleTool@@QAE@PAVCAnalysisData@@W4COORDINATETYPE@CAnalysis@@@Z ENDP ; CFiboCircleTool::CFiboCircleTool
; Function compile flags: /Ogtp
; File D:\git\src\IBK\IBK_DRFN\ProjSrc\SrcChartEx\ChartAddIn\ChartAnalysisToolAddIn\AnalysisTool\FiboGannTool.cpp
;	COMDAT ?GetTextPosition@CFiboSemicircleTool@@MAEPAVCTextPosition@@XZ
_TEXT	SEGMENT
?GetTextPosition@CFiboSemicircleTool@@MAEPAVCTextPosition@@XZ PROC ; CFiboSemicircleTool::GetTextPosition, COMDAT
; _this$ = ecx

; 56   : 	return &m_textPosition;

  00000	8d 81 f8 00 00
	00		 lea	 eax, DWORD PTR [ecx+248]

; 57   : }

  00006	c3		 ret	 0
?GetTextPosition@CFiboSemicircleTool@@MAEPAVCTextPosition@@XZ ENDP ; CFiboSemicircleTool::GetTextPosition
_TEXT	ENDS
; Function compile flags: /Ogtp
; File D:\git\src\IBK\IBK_DRFN\ProjSrc\SrcChartEx\ChartAddIn\ChartAnalysisToolAddIn\AnalysisTool\FiboGannTool.cpp
;	COMDAT ?GetTextPosition@CFiboSemicircleTool@@MBEPBVCTextPosition@@XZ
_TEXT	SEGMENT
?GetTextPosition@CFiboSemicircleTool@@MBEPBVCTextPosition@@XZ PROC ; CFiboSemicircleTool::GetTextPosition, COMDAT
; _this$ = ecx

; 51   : 	return &m_textPosition;

  00000	8d 81 f8 00 00
	00		 lea	 eax, DWORD PTR [ecx+248]

; 52   : }

  00006	c3		 ret	 0
?GetTextPosition@CFiboSemicircleTool@@MBEPBVCTextPosition@@XZ ENDP ; CFiboSemicircleTool::GetTextPosition
_TEXT	ENDS
; Function compile flags: /Ogtp
; File D:\git\src\IBK\IBK_DRFN\ProjSrc\SrcChartEx\ChartAddIn\ChartAnalysisToolAddIn\AnalysisTool\FiboGannTool.cpp
;	COMDAT ?GetTwoPointDrawer@CFiboSemicircleTool@@MAEAAVCTwoPointDrawer@@XZ
_TEXT	SEGMENT
?GetTwoPointDrawer@CFiboSemicircleTool@@MAEAAVCTwoPointDrawer@@XZ PROC ; CFiboSemicircleTool::GetTwoPointDrawer, COMDAT
; _this$ = ecx

; 46   : 	return m_fiboSemicircleDrawer;

  00000	8d 81 04 01 00
	00		 lea	 eax, DWORD PTR [ecx+260]

; 47   : }

  00006	c3		 ret	 0
?GetTwoPointDrawer@CFiboSemicircleTool@@MAEAAVCTwoPointDrawer@@XZ ENDP ; CFiboSemicircleTool::GetTwoPointDrawer
_TEXT	ENDS
; Function compile flags: /Ogtp
; File D:\git\src\IBK\IBK_DRFN\ProjSrc\SrcChartEx\ChartAddIn\ChartAnalysisToolAddIn\AnalysisTool\FiboGannTool.cpp
;	COMDAT ?GetToolType@CFiboSemicircleTool@@MBE?AW4TOOLTYPE@CAnalysis@@XZ
_TEXT	SEGMENT
?GetToolType@CFiboSemicircleTool@@MBE?AW4TOOLTYPE@CAnalysis@@XZ PROC ; CFiboSemicircleTool::GetToolType, COMDAT
; _this$ = ecx

; 41   : 	return CAnalysis::EN_ANALYSIS_FIBO_SEMICIRCLE;

  00000	b8 08 00 00 00	 mov	 eax, 8

; 42   : }

  00005	c3		 ret	 0
?GetToolType@CFiboSemicircleTool@@MBE?AW4TOOLTYPE@CAnalysis@@XZ ENDP ; CFiboSemicircleTool::GetToolType
_TEXT	ENDS
; Function compile flags: /Ogtp
; File D:\git\src\IBK\IBK_DRFN\ProjSrc\SrcChartEx\ChartAddIn\ChartAnalysisToolAddIn\AnalysisTool\FiboGannTool.cpp
;	COMDAT ?SetTextPosition@CFiboSemicircleTool@@QAEX_N@Z
_TEXT	SEGMENT
_bShow$ = 8						; size = 1
?SetTextPosition@CFiboSemicircleTool@@QAEX_N@Z PROC	; CFiboSemicircleTool::SetTextPosition, COMDAT
; _this$ = ecx

; 34   : {

  00000	55		 push	 ebp
  00001	8b ec		 mov	 ebp, esp

; 35   : 	m_textPosition.SetShow(bShow);

  00003	81 c1 f8 00 00
	00		 add	 ecx, 248		; 000000f8H

; 36   : }

  00009	5d		 pop	 ebp

; 35   : 	m_textPosition.SetShow(bShow);

  0000a	e9 00 00 00 00	 jmp	 ?SetShow@CTextShowPosition@@QAEX_N@Z ; CTextShowPosition::SetShow
?SetTextPosition@CFiboSemicircleTool@@QAEX_N@Z ENDP	; CFiboSemicircleTool::SetTextPosition
_TEXT	ENDS
; Function compile flags: /Ogtp
; File D:\git\src\IBK\IBK_DRFN\ProjSrc\SrcChartEx\ChartAddIn\ChartAnalysisToolAddIn\AnalysisTool\FiboGannTool.cpp
;	COMDAT ?SetTextPosition@CFiboSemicircleTool@@QAEXABVCTextShowPosition@@@Z
_TEXT	SEGMENT
_position$ = 8						; size = 4
?SetTextPosition@CFiboSemicircleTool@@QAEXABVCTextShowPosition@@@Z PROC ; CFiboSemicircleTool::SetTextPosition, COMDAT
; _this$ = ecx

; 29   : {

  00000	55		 push	 ebp
  00001	8b ec		 mov	 ebp, esp
  00003	56		 push	 esi

; 30   : 	m_textPosition = position;

  00004	8b 75 08	 mov	 esi, DWORD PTR _position$[ebp]
  00007	57		 push	 edi
  00008	8d b9 f8 00 00
	00		 lea	 edi, DWORD PTR [ecx+248]
  0000e	56		 push	 esi
  0000f	8b cf		 mov	 ecx, edi
  00011	e8 00 00 00 00	 call	 ??4CTextPosition@@QAEAAV0@ABV0@@Z ; CTextPosition::operator=
  00016	8a 46 08	 mov	 al, BYTE PTR [esi+8]
  00019	88 47 08	 mov	 BYTE PTR [edi+8], al
  0001c	5f		 pop	 edi
  0001d	5e		 pop	 esi

; 31   : }

  0001e	5d		 pop	 ebp
  0001f	c2 04 00	 ret	 4
?SetTextPosition@CFiboSemicircleTool@@QAEXABVCTextShowPosition@@@Z ENDP ; CFiboSemicircleTool::SetTextPosition
_TEXT	ENDS
; Function compile flags: /Ogtp
; File D:\git\src\IBK\IBK_DRFN\ProjSrc\SrcChartEx\ChartAddIn\ChartAnalysisToolAddIn\AnalysisTool\FiboGannTool.cpp
;	COMDAT ??0CFiboSemicircleTool@@QAE@PAVCAnalysisData@@W4COORDINATETYPE@CAnalysis@@@Z
_TEXT	SEGMENT
_this$ = -16						; size = 4
__$EHRec$ = -12						; size = 12
$T2 = 8							; size = 4
_pAnalysisData$ = 8					; size = 4
_this$ = 12						; size = 4
$T3 = 12						; size = 4
_eCoordinateType$ = 12					; size = 4
??0CFiboSemicircleTool@@QAE@PAVCAnalysisData@@W4COORDINATETYPE@CAnalysis@@@Z PROC ; CFiboSemicircleTool::CFiboSemicircleTool, COMDAT
; _this$ = ecx

; 25   : {

  00000	55		 push	 ebp
  00001	8b ec		 mov	 ebp, esp
  00003	6a ff		 push	 -1
  00005	68 00 00 00 00	 push	 __ehhandler$??0CFiboSemicircleTool@@QAE@PAVCAnalysisData@@W4COORDINATETYPE@CAnalysis@@@Z
  0000a	64 a1 00 00 00
	00		 mov	 eax, DWORD PTR fs:0
  00010	50		 push	 eax
  00011	51		 push	 ecx
  00012	56		 push	 esi
  00013	57		 push	 edi
  00014	a1 00 00 00 00	 mov	 eax, DWORD PTR ___security_cookie
  00019	33 c5		 xor	 eax, ebp
  0001b	50		 push	 eax
  0001c	8d 45 f4	 lea	 eax, DWORD PTR __$EHRec$[ebp]
  0001f	64 a3 00 00 00
	00		 mov	 DWORD PTR fs:0, eax
  00025	8b f9		 mov	 edi, ecx
  00027	89 7d f0	 mov	 DWORD PTR _this$[ebp], edi

; 23   : 	: CTwoPointDownTool(pAnalysisData, eCoordinateType),

  0002a	ff 75 0c	 push	 DWORD PTR _eCoordinateType$[ebp]
  0002d	ff 75 08	 push	 DWORD PTR _pAnalysisData$[ebp]
  00030	e8 00 00 00 00	 call	 ??0CTwoPointDownTool@@IAE@PAVCAnalysisData@@W4COORDINATETYPE@CAnalysis@@@Z ; CTwoPointDownTool::CTwoPointDownTool

; 24   : 	m_textPosition(CTextEnvironment(RGB(0, 0, 0)), true)

  00035	6a 01		 push	 1
  00037	8d 45 0c	 lea	 eax, DWORD PTR $T3[ebp]
  0003a	c7 45 fc 00 00
	00 00		 mov	 DWORD PTR __$EHRec$[ebp+8], 0
  00041	50		 push	 eax
  00042	8d 4d 08	 lea	 ecx, DWORD PTR $T2[ebp]

; 25   : {

  00045	c7 07 00 00 00
	00		 mov	 DWORD PTR [edi], OFFSET ??_7CFiboSemicircleTool@@6B@
  0004b	c7 45 0c 00 00
	00 00		 mov	 DWORD PTR $T3[ebp], 0
  00052	e8 00 00 00 00	 call	 ??0CTextEnvironment@@QAE@ABK@Z ; CTextEnvironment::CTextEnvironment
  00057	50		 push	 eax
  00058	8d 8f f8 00 00
	00		 lea	 ecx, DWORD PTR [edi+248]
  0005e	e8 00 00 00 00	 call	 ??0CTextShowPosition@@QAE@ABVCTextEnvironment@@_N@Z ; CTextShowPosition::CTextShowPosition
  00063	8d b7 04 01 00
	00		 lea	 esi, DWORD PTR [edi+260]
  00069	89 75 0c	 mov	 DWORD PTR _this$[ebp], esi
  0006c	8d 4e 20	 lea	 ecx, DWORD PTR [esi+32]
  0006f	c7 46 04 00 00
	00 00		 mov	 DWORD PTR [esi+4], OFFSET ??_8CFiboSemicircleDrawer@@7B@
  00076	e8 00 00 00 00	 call	 ??0CDrawer@@QAE@XZ	; CDrawer::CDrawer
  0007b	8d 4e 08	 lea	 ecx, DWORD PTR [esi+8]
  0007e	c7 06 00 00 00
	00		 mov	 DWORD PTR [esi], OFFSET ??_7CFiboDrawer@@6B@
  00084	e8 00 00 00 00	 call	 ??0CDWordArray@@QAE@XZ	; CDWordArray::CDWordArray
  00089	8d 4e 1c	 lea	 ecx, DWORD PTR [esi+28]
  0008c	ff 15 00 00 00
	00		 call	 DWORD PTR __imp_??0?$CStringT@DV?$StrTraitMFC_DLL@DV?$ChTraitsCRT@D@ATL@@@@@ATL@@QAE@XZ
  00092	c7 06 00 00 00
	00		 mov	 DWORD PTR [esi], OFFSET ??_7CFiboSemicircleDrawer@@6B@

; 26   : }

  00098	8b c7		 mov	 eax, edi
  0009a	8b 4d f4	 mov	 ecx, DWORD PTR __$EHRec$[ebp]
  0009d	64 89 0d 00 00
	00 00		 mov	 DWORD PTR fs:0, ecx
  000a4	59		 pop	 ecx
  000a5	5f		 pop	 edi
  000a6	5e		 pop	 esi
  000a7	8b e5		 mov	 esp, ebp
  000a9	5d		 pop	 ebp
  000aa	c2 08 00	 ret	 8
_TEXT	ENDS
;	COMDAT text$x
text$x	SEGMENT
__unwindfunclet$??0CFiboSemicircleTool@@QAE@PAVCAnalysisData@@W4COORDINATETYPE@CAnalysis@@@Z$0:
  00000	8b 4d f0	 mov	 ecx, DWORD PTR _this$[ebp]
  00003	e9 00 00 00 00	 jmp	 ??1CTwoPointDownTool@@QAE@XZ
  00008	cc		 int	 3
  00009	cc		 int	 3
  0000a	cc		 int	 3
  0000b	cc		 int	 3
  0000c	cc		 int	 3
__ehhandler$??0CFiboSemicircleTool@@QAE@PAVCAnalysisData@@W4COORDINATETYPE@CAnalysis@@@Z:
  0000d	90		 npad	 1
  0000e	90		 npad	 1
  0000f	8b 54 24 08	 mov	 edx, DWORD PTR [esp+8]
  00013	8d 42 0c	 lea	 eax, DWORD PTR [edx+12]
  00016	8b 4a f0	 mov	 ecx, DWORD PTR [edx-16]
  00019	33 c8		 xor	 ecx, eax
  0001b	e8 00 00 00 00	 call	 @__security_check_cookie@4
  00020	b8 00 00 00 00	 mov	 eax, OFFSET __ehfuncinfo$??0CFiboSemicircleTool@@QAE@PAVCAnalysisData@@W4COORDINATETYPE@CAnalysis@@@Z
  00025	e9 00 00 00 00	 jmp	 ___CxxFrameHandler3
text$x	ENDS
??0CFiboSemicircleTool@@QAE@PAVCAnalysisData@@W4COORDINATETYPE@CAnalysis@@@Z ENDP ; CFiboSemicircleTool::CFiboSemicircleTool
; Function compile flags: /Ogtp
; File C:\Program Files (x86)\Microsoft Visual Studio\2019\Community\VC\Tools\MSVC\14.29.30133\include\deque
; File C:\Program Files (x86)\Microsoft Visual Studio\2019\Community\VC\Tools\MSVC\14.29.30133\include\utility
; File C:\Program Files (x86)\Microsoft Visual Studio\2019\Community\VC\Tools\MSVC\14.29.30133\include\xmemory
; File C:\Program Files (x86)\Microsoft Visual Studio\2019\Community\VC\Tools\MSVC\14.29.30133\include\utility
; File C:\Program Files (x86)\Microsoft Visual Studio\2019\Community\VC\Tools\MSVC\14.29.30133\include\xmemory
;	COMDAT ??1CTwoPointDownTool@@QAE@XZ
_TEXT	SEGMENT
??1CTwoPointDownTool@@QAE@XZ PROC			; CTwoPointDownTool::~CTwoPointDownTool, COMDAT
; _this$ = ecx
; File C:\Program Files (x86)\Microsoft Visual Studio\2019\Community\VC\Tools\MSVC\14.29.30133\include\deque

; 1332 :         _Tidy();

  00000	56		 push	 esi
  00001	8b f1		 mov	 esi, ecx
  00003	8d 8e e4 00 00
	00		 lea	 ecx, DWORD PTR [esi+228]
  00009	ff 15 00 00 00
	00		 call	 DWORD PTR __imp_??1?$CStringT@DV?$StrTraitMFC_DLL@DV?$ChTraitsCRT@D@ATL@@@@@ATL@@QAE@XZ
  0000f	8d 8e bc 00 00
	00		 lea	 ecx, DWORD PTR [esi+188]
  00015	ff 15 00 00 00
	00		 call	 DWORD PTR __imp_??1?$CStringT@DV?$StrTraitMFC_DLL@DV?$ChTraitsCRT@D@ATL@@@@@ATL@@QAE@XZ
  0001b	8d 8e 80 00 00
	00		 lea	 ecx, DWORD PTR [esi+128]
  00021	e8 00 00 00 00	 call	 ??1CObList@@UAE@XZ	; CObList::~CObList
  00026	8d 4e 60	 lea	 ecx, DWORD PTR [esi+96]
  00029	ff 15 00 00 00
	00		 call	 DWORD PTR __imp_??1?$CStringT@DV?$StrTraitMFC_DLL@DV?$ChTraitsCRT@D@ATL@@@@@ATL@@QAE@XZ
  0002f	8d 4e 5c	 lea	 ecx, DWORD PTR [esi+92]
  00032	ff 15 00 00 00
	00		 call	 DWORD PTR __imp_??1?$CStringT@DV?$StrTraitMFC_DLL@DV?$ChTraitsCRT@D@ATL@@@@@ATL@@QAE@XZ
  00038	8d 4e 58	 lea	 ecx, DWORD PTR [esi+88]
  0003b	ff 15 00 00 00
	00		 call	 DWORD PTR __imp_??1?$CStringT@DV?$StrTraitMFC_DLL@DV?$ChTraitsCRT@D@ATL@@@@@ATL@@QAE@XZ
  00041	8d 4e 14	 lea	 ecx, DWORD PTR [esi+20]
  00044	e8 00 00 00 00	 call	 ?_Tidy@?$deque@VCBlockRegion@@V?$allocator@VCBlockRegion@@@std@@@std@@AAEXXZ ; std::deque<CBlockRegion,std::allocator<CBlockRegion> >::_Tidy

; 861  :         _Tidy();

  00049	8d 4e 14	 lea	 ecx, DWORD PTR [esi+20]
  0004c	e8 00 00 00 00	 call	 ?_Tidy@?$deque@VCBlockRegion@@V?$allocator@VCBlockRegion@@@std@@@std@@AAEXXZ ; std::deque<CBlockRegion,std::allocator<CBlockRegion> >::_Tidy
; File C:\Program Files (x86)\Microsoft Visual Studio\2019\Community\VC\Tools\MSVC\14.29.30133\include\utility

; 602  :     _Ty _Old_val = static_cast<_Ty&&>(_Val);

  00051	8b 46 14	 mov	 eax, DWORD PTR [esi+20]
; File C:\Program Files (x86)\Microsoft Visual Studio\2019\Community\VC\Tools\MSVC\14.29.30133\include\xmemory

; 255  :         ::operator delete(_Ptr, _Bytes);

  00054	6a 08		 push	 8
  00056	50		 push	 eax
; File C:\Program Files (x86)\Microsoft Visual Studio\2019\Community\VC\Tools\MSVC\14.29.30133\include\utility

; 603  :     _Val         = static_cast<_Other&&>(_New_val);

  00057	c7 46 14 00 00
	00 00		 mov	 DWORD PTR [esi+20], 0
; File C:\Program Files (x86)\Microsoft Visual Studio\2019\Community\VC\Tools\MSVC\14.29.30133\include\xmemory

; 255  :         ::operator delete(_Ptr, _Bytes);

  0005e	e8 00 00 00 00	 call	 ??3@YAXPAXI@Z		; operator delete
  00063	83 c4 08	 add	 esp, 8
  00066	5e		 pop	 esi
  00067	c3		 ret	 0
??1CTwoPointDownTool@@QAE@XZ ENDP			; CTwoPointDownTool::~CTwoPointDownTool
_TEXT	ENDS
; Function compile flags: /Ogtp
; File C:\Program Files (x86)\Microsoft Visual Studio\2019\Community\VC\Tools\MSVC\14.29.30133\include\deque
; File C:\Program Files (x86)\Microsoft Visual Studio\2019\Community\VC\Tools\MSVC\14.29.30133\include\utility
; File C:\Program Files (x86)\Microsoft Visual Studio\2019\Community\VC\Tools\MSVC\14.29.30133\include\xmemory
; File C:\Program Files (x86)\Microsoft Visual Studio\2019\Community\VC\Tools\MSVC\14.29.30133\include\utility
; File C:\Program Files (x86)\Microsoft Visual Studio\2019\Community\VC\Tools\MSVC\14.29.30133\include\xmemory
;	COMDAT ??1COnePointMoveTool@@QAE@XZ
_TEXT	SEGMENT
??1COnePointMoveTool@@QAE@XZ PROC			; COnePointMoveTool::~COnePointMoveTool, COMDAT
; _this$ = ecx
; File C:\Program Files (x86)\Microsoft Visual Studio\2019\Community\VC\Tools\MSVC\14.29.30133\include\deque

; 1332 :         _Tidy();

  00000	56		 push	 esi
  00001	8b f1		 mov	 esi, ecx
  00003	8d 8e 9c 00 00
	00		 lea	 ecx, DWORD PTR [esi+156]
  00009	ff 15 00 00 00
	00		 call	 DWORD PTR __imp_??1?$CStringT@DV?$StrTraitMFC_DLL@DV?$ChTraitsCRT@D@ATL@@@@@ATL@@QAE@XZ
  0000f	8d 4e 60	 lea	 ecx, DWORD PTR [esi+96]
  00012	ff 15 00 00 00
	00		 call	 DWORD PTR __imp_??1?$CStringT@DV?$StrTraitMFC_DLL@DV?$ChTraitsCRT@D@ATL@@@@@ATL@@QAE@XZ
  00018	8d 4e 5c	 lea	 ecx, DWORD PTR [esi+92]
  0001b	ff 15 00 00 00
	00		 call	 DWORD PTR __imp_??1?$CStringT@DV?$StrTraitMFC_DLL@DV?$ChTraitsCRT@D@ATL@@@@@ATL@@QAE@XZ
  00021	8d 4e 58	 lea	 ecx, DWORD PTR [esi+88]
  00024	ff 15 00 00 00
	00		 call	 DWORD PTR __imp_??1?$CStringT@DV?$StrTraitMFC_DLL@DV?$ChTraitsCRT@D@ATL@@@@@ATL@@QAE@XZ
  0002a	8d 4e 14	 lea	 ecx, DWORD PTR [esi+20]
  0002d	e8 00 00 00 00	 call	 ?_Tidy@?$deque@VCBlockRegion@@V?$allocator@VCBlockRegion@@@std@@@std@@AAEXXZ ; std::deque<CBlockRegion,std::allocator<CBlockRegion> >::_Tidy

; 861  :         _Tidy();

  00032	8d 4e 14	 lea	 ecx, DWORD PTR [esi+20]
  00035	e8 00 00 00 00	 call	 ?_Tidy@?$deque@VCBlockRegion@@V?$allocator@VCBlockRegion@@@std@@@std@@AAEXXZ ; std::deque<CBlockRegion,std::allocator<CBlockRegion> >::_Tidy
; File C:\Program Files (x86)\Microsoft Visual Studio\2019\Community\VC\Tools\MSVC\14.29.30133\include\utility

; 602  :     _Ty _Old_val = static_cast<_Ty&&>(_Val);

  0003a	8b 46 14	 mov	 eax, DWORD PTR [esi+20]
; File C:\Program Files (x86)\Microsoft Visual Studio\2019\Community\VC\Tools\MSVC\14.29.30133\include\xmemory

; 255  :         ::operator delete(_Ptr, _Bytes);

  0003d	6a 08		 push	 8
  0003f	50		 push	 eax
; File C:\Program Files (x86)\Microsoft Visual Studio\2019\Community\VC\Tools\MSVC\14.29.30133\include\utility

; 603  :     _Val         = static_cast<_Other&&>(_New_val);

  00040	c7 46 14 00 00
	00 00		 mov	 DWORD PTR [esi+20], 0
; File C:\Program Files (x86)\Microsoft Visual Studio\2019\Community\VC\Tools\MSVC\14.29.30133\include\xmemory

; 255  :         ::operator delete(_Ptr, _Bytes);

  00047	e8 00 00 00 00	 call	 ??3@YAXPAXI@Z		; operator delete
  0004c	83 c4 08	 add	 esp, 8
  0004f	5e		 pop	 esi
  00050	c3		 ret	 0
??1COnePointMoveTool@@QAE@XZ ENDP			; COnePointMoveTool::~COnePointMoveTool
_TEXT	ENDS
; Function compile flags: /Ogtp
;	COMDAT ??1CPoints@@QAE@XZ
_TEXT	SEGMENT
??1CPoints@@QAE@XZ PROC					; CPoints::~CPoints, COMDAT
; _this$ = ecx
  00000	83 c1 14	 add	 ecx, 20			; 00000014H
  00003	ff 25 00 00 00
	00		 jmp	 DWORD PTR __imp_??1?$CStringT@DV?$StrTraitMFC_DLL@DV?$ChTraitsCRT@D@ATL@@@@@ATL@@QAE@XZ
??1CPoints@@QAE@XZ ENDP					; CPoints::~CPoints
_TEXT	ENDS
; Function compile flags: /Ogtp
; File C:\Program Files (x86)\Microsoft Visual Studio\2019\Community\VC\Tools\MSVC\14.29.30133\include\deque
; File C:\Program Files (x86)\Microsoft Visual Studio\2019\Community\VC\Tools\MSVC\14.29.30133\include\xmemory
; File C:\Program Files (x86)\Microsoft Visual Studio\2019\Community\VC\Tools\MSVC\14.29.30133\include\deque
; File C:\Program Files (x86)\Microsoft Visual Studio\2019\Community\VC\Tools\MSVC\14.29.30133\include\xmemory
; File C:\Program Files (x86)\Microsoft Visual Studio\2019\Community\VC\Tools\MSVC\14.29.30133\include\deque
; File C:\Program Files (x86)\Microsoft Visual Studio\2019\Community\VC\Tools\MSVC\14.29.30133\include\xmemory
; File C:\Program Files (x86)\Microsoft Visual Studio\2019\Community\VC\Tools\MSVC\14.29.30133\include\deque
;	COMDAT ?_Tidy@?$deque@VCBlockRegion@@V?$allocator@VCBlockRegion@@@std@@@std@@AAEXXZ
_TEXT	SEGMENT
?_Tidy@?$deque@VCBlockRegion@@V?$allocator@VCBlockRegion@@@std@@@std@@AAEXXZ PROC ; std::deque<CBlockRegion,std::allocator<CBlockRegion> >::_Tidy, COMDAT
; _this$ = ecx

; 1471 :     void _Tidy() noexcept { // free all storage

  00000	57		 push	 edi
  00001	8b f9		 mov	 edi, ecx

; 1002 :         return _Mysize() == 0;

  00003	8b 4f 10	 mov	 ecx, DWORD PTR [edi+16]
  00006	85 c9		 test	 ecx, ecx

; 1472 :         _Orphan_all();
; 1473 : 
; 1474 :         _Alpty _Almap(_Getal());
; 1475 :         while (!empty()) {

  00008	74 15		 je	 SHORT $LN60@Tidy
  0000a	66 0f 1f 44 00
	00		 npad	 6
$LL2@Tidy:

; 1146 :         if (--_Mysize() == 0) {

  00010	8d 41 ff	 lea	 eax, DWORD PTR [ecx-1]
  00013	89 47 10	 mov	 DWORD PTR [edi+16], eax
  00016	8b c8		 mov	 ecx, eax
  00018	85 c0		 test	 eax, eax
  0001a	75 f4		 jne	 SHORT $LL2@Tidy

; 1147 :             _Myoff() = 0;

  0001c	89 47 0c	 mov	 DWORD PTR [edi+12], eax
$LN60@Tidy:
  0001f	56		 push	 esi

; 1479 :         for (size_type _Block = _Mapsize(); 0 < _Block;) { // free storage for a block and destroy pointer

  00020	8b 77 08	 mov	 esi, DWORD PTR [edi+8]
  00023	85 f6		 test	 esi, esi
  00025	74 1a		 je	 SHORT $LN5@Tidy
$LL4@Tidy:

; 1480 :             if (_Map()[--_Block]) { // free block and destroy its pointer

  00027	8b 47 04	 mov	 eax, DWORD PTR [edi+4]
  0002a	4e		 dec	 esi
  0002b	8b 04 b0	 mov	 eax, DWORD PTR [eax+esi*4]
  0002e	85 c0		 test	 eax, eax
  00030	74 0b		 je	 SHORT $LN23@Tidy
; File C:\Program Files (x86)\Microsoft Visual Studio\2019\Community\VC\Tools\MSVC\14.29.30133\include\xmemory

; 255  :         ::operator delete(_Ptr, _Bytes);

  00032	6a 60		 push	 96			; 00000060H
  00034	50		 push	 eax
  00035	e8 00 00 00 00	 call	 ??3@YAXPAXI@Z		; operator delete
  0003a	83 c4 08	 add	 esp, 8
$LN23@Tidy:
; File C:\Program Files (x86)\Microsoft Visual Studio\2019\Community\VC\Tools\MSVC\14.29.30133\include\deque

; 1479 :         for (size_type _Block = _Mapsize(); 0 < _Block;) { // free storage for a block and destroy pointer

  0003d	85 f6		 test	 esi, esi
  0003f	75 e6		 jne	 SHORT $LL4@Tidy
$LN5@Tidy:

; 1481 :                 _Getal().deallocate(_Map()[_Block], _Block_size);
; 1482 :                 _Destroy_in_place(_Map()[_Block]);
; 1483 :             }
; 1484 :         }
; 1485 : 
; 1486 :         if (_Map() != _Mapptr()) {

  00041	8b 47 04	 mov	 eax, DWORD PTR [edi+4]
  00044	5e		 pop	 esi
  00045	85 c0		 test	 eax, eax
  00047	74 2a		 je	 SHORT $LN41@Tidy
; File C:\Program Files (x86)\Microsoft Visual Studio\2019\Community\VC\Tools\MSVC\14.29.30133\include\xmemory

; 797  :         _Deallocate<_New_alignof<_Ty>>(_Ptr, sizeof(_Ty) * _Count);

  00049	8b 4f 08	 mov	 ecx, DWORD PTR [edi+8]
  0004c	c1 e1 02	 shl	 ecx, 2

; 251  :         if (_Bytes >= _Big_allocation_threshold) { // boost the alignment of big allocations to help autovectorization

  0004f	81 f9 00 10 00
	00		 cmp	 ecx, 4096		; 00001000H
  00055	72 12		 jb	 SHORT $LN51@Tidy

; 150  :     const uintptr_t _Ptr_container   = _Ptr_user[-1];

  00057	8b 50 fc	 mov	 edx, DWORD PTR [eax-4]
  0005a	83 c1 23	 add	 ecx, 35			; 00000023H

; 151  : 
; 152  :     // If the following asserts, it likely means that we are performing
; 153  :     // an aligned delete on memory coming from an unaligned allocation.
; 154  :     _STL_ASSERT(_Ptr_user[-2] == _Big_allocation_sentinel, "invalid argument");
; 155  : 
; 156  :     // Extra paranoia on aligned allocation/deallocation; ensure _Ptr_container is
; 157  :     // in range [_Min_back_shift, _Non_user_size]
; 158  : #ifdef _DEBUG
; 159  :     constexpr uintptr_t _Min_back_shift = 2 * sizeof(void*);
; 160  : #else // ^^^ _DEBUG ^^^ // vvv !_DEBUG vvv
; 161  :     constexpr uintptr_t _Min_back_shift = sizeof(void*);
; 162  : #endif // _DEBUG
; 163  :     const uintptr_t _Back_shift = reinterpret_cast<uintptr_t>(_Ptr) - _Ptr_container;

  0005d	2b c2		 sub	 eax, edx

; 164  :     _STL_VERIFY(_Back_shift >= _Min_back_shift && _Back_shift <= _Non_user_size, "invalid argument");

  0005f	83 c0 fc	 add	 eax, -4			; fffffffcH
  00062	83 f8 1f	 cmp	 eax, 31			; 0000001fH
  00065	77 1c		 ja	 SHORT $LN48@Tidy

; 165  :     _Ptr = reinterpret_cast<void*>(_Ptr_container);

  00067	8b c2		 mov	 eax, edx
$LN51@Tidy:

; 255  :         ::operator delete(_Ptr, _Bytes);

  00069	51		 push	 ecx
  0006a	50		 push	 eax
  0006b	e8 00 00 00 00	 call	 ??3@YAXPAXI@Z		; operator delete
  00070	83 c4 08	 add	 esp, 8
$LN41@Tidy:
; File C:\Program Files (x86)\Microsoft Visual Studio\2019\Community\VC\Tools\MSVC\14.29.30133\include\deque

; 1490 :         _Mapsize() = 0;

  00073	c7 47 08 00 00
	00 00		 mov	 DWORD PTR [edi+8], 0

; 1491 :         _Map()     = _Mapptr();

  0007a	c7 47 04 00 00
	00 00		 mov	 DWORD PTR [edi+4], 0
  00081	5f		 pop	 edi

; 1492 :     }

  00082	c3		 ret	 0
$LN48@Tidy:
; File C:\Program Files (x86)\Microsoft Visual Studio\2019\Community\VC\Tools\MSVC\14.29.30133\include\xmemory

; 164  :     _STL_VERIFY(_Back_shift >= _Min_back_shift && _Back_shift <= _Non_user_size, "invalid argument");

  00083	ff 15 00 00 00
	00		 call	 DWORD PTR __imp___invalid_parameter_noinfo_noreturn
$LN62@Tidy:
  00089	cc		 int	 3
?_Tidy@?$deque@VCBlockRegion@@V?$allocator@VCBlockRegion@@@std@@@std@@AAEXXZ ENDP ; std::deque<CBlockRegion,std::allocator<CBlockRegion> >::_Tidy
_TEXT	ENDS
; Function compile flags: /Ogtp
; File D:\git\src\IBK\IBK_DRFN\ProjSrc\SrcChartEx\ChartAddIn\ChartAnalysisToolAddIn\AnalysisTool\FiboGannTool.cpp
;	COMDAT ?__empty_global_delete@@YAXPAXI@Z
_TEXT	SEGMENT
___formal$ = 8						; size = 4
___formal$ = 12						; size = 4
?__empty_global_delete@@YAXPAXI@Z PROC			; __empty_global_delete, COMDAT

  00000	c2 00 00	 ret	 0
?__empty_global_delete@@YAXPAXI@Z ENDP			; __empty_global_delete
_TEXT	ENDS
; Function compile flags: /Ogtp
; File D:\git\src\IBK\IBK_DRFN\ProjSrc\SrcChartEx\ChartAddIn\ChartAnalysisToolAddIn\AnalysisTool\FiboGannTool.cpp
;	COMDAT ?__empty_global_delete@@YAXPAX@Z
_TEXT	SEGMENT
___formal$ = 8						; size = 4
?__empty_global_delete@@YAXPAX@Z PROC			; __empty_global_delete, COMDAT

  00000	c2 00 00	 ret	 0
?__empty_global_delete@@YAXPAX@Z ENDP			; __empty_global_delete
_TEXT	ENDS
END
