; Listing generated by Microsoft (R) Optimizing Compiler Version 19.29.30145.0 

	TITLE	D:\git\src\IBK\IBK_DRFN\#DRfn-CS\_Obj\AnalysisTool\FiboGann.obj
	.686P
	.XMM
	include listing.inc
	.model	flat

INCLUDELIB MSVCRT
INCLUDELIB OLDNAMES

PUBLIC	?__empty_global_delete@@YAXPAX@Z		; __empty_global_delete
PUBLIC	?__empty_global_delete@@YAXPAXI@Z		; __empty_global_delete
PUBLIC	??1CElementCommonEnvironment@@QAE@XZ		; CElementCommonEnvironment::~CElementCommonEnvironment
PUBLIC	??1CElement@@UAE@XZ				; CElement::~CElement
PUBLIC	??_GCElement@@UAEPAXI@Z				; CElement::`scalar deleting destructor'
PUBLIC	??1CTwoPointElement@@UAE@XZ			; CTwoPointElement::~CTwoPointElement
PUBLIC	??1CVertElement@@UAE@XZ				; CVertElement::~CVertElement
PUBLIC	??1CFiboSemicircleDrawer@@QAE@XZ		; CFiboSemicircleDrawer::~CFiboSemicircleDrawer
PUBLIC	??1CFiboCircleDrawer@@QAE@XZ			; CFiboCircleDrawer::~CFiboCircleDrawer
PUBLIC	??1CFiboPenLineDrawer@@QAE@XZ			; CFiboPenLineDrawer::~CFiboPenLineDrawer
PUBLIC	??1CFiboRetraceDrawer@@QAE@XZ			; CFiboRetraceDrawer::~CFiboRetraceDrawer
PUBLIC	??1CFiboTimeDrawer@@QAE@XZ			; CFiboTimeDrawer::~CFiboTimeDrawer
PUBLIC	??0CFiboArc@@QAE@ABVCCoordinate@@0ABVCElementCommonEnvironment@@@Z ; CFiboArc::CFiboArc
PUBLIC	?ElementInRegion@CFiboArc@@MBE_NABVCRect@@ABVCPoint@@11@Z ; CFiboArc::ElementInRegion
PUBLIC	?GetModifyType@CFiboArc@@MBE?AW4ModifyType@CToolEnumData@@ABVCRect@@ABVCPoint@@11@Z ; CFiboArc::GetModifyType
PUBLIC	?GetDrawingRegion_EndPoint@CFiboArc@@MBE?AVCPoint@@ABV2@0H@Z ; CFiboArc::GetDrawingRegion_EndPoint
PUBLIC	?GetPoint_ApplyRadius@CFiboArc@@IBEHHH_N@Z	; CFiboArc::GetPoint_ApplyRadius
PUBLIC	?PointInCircleAround@CFiboArc@@ABE_NHH@Z	; CFiboArc::PointInCircleAround
PUBLIC	?GetDrawingRegion_StartPoint@CFiboArc@@ABE?AVCPoint@@ABV2@0H@Z ; CFiboArc::GetDrawingRegion_StartPoint
PUBLIC	?GetDrawingRegion_StartPoint@CFiboArc@@ABEHHHH@Z ; CFiboArc::GetDrawingRegion_StartPoint
PUBLIC	??1CFiboArc@@UAE@XZ				; CFiboArc::~CFiboArc
PUBLIC	??_GCFiboArc@@UAEPAXI@Z				; CFiboArc::`scalar deleting destructor'
PUBLIC	??0CFiboSemicircle@@QAE@ABVCTextShowPosition@@ABVCCoordinate@@1ABVCElementCommonEnvironment@@@Z ; CFiboSemicircle::CFiboSemicircle
PUBLIC	?GetElementType@CFiboSemicircle@@UBE?AW4ElementType@CToolEnumData@@XZ ; CFiboSemicircle::GetElementType
PUBLIC	?GetTwoPointDrawer@CFiboSemicircle@@MAEAAVCTwoPointDrawer@@XZ ; CFiboSemicircle::GetTwoPointDrawer
PUBLIC	?GetRadius@CFiboSemicircle@@MBEHABVCPoint@@0H@Z	; CFiboSemicircle::GetRadius
PUBLIC	?GetTextPosition@CFiboSemicircle@@MBEPBVCTextPosition@@XZ ; CFiboSemicircle::GetTextPosition
PUBLIC	?GetTextPosition@CFiboSemicircle@@MAEPAVCTextPosition@@XZ ; CFiboSemicircle::GetTextPosition
PUBLIC	??_GCFiboSemicircle@@UAEPAXI@Z			; CFiboSemicircle::`scalar deleting destructor'
PUBLIC	??0CFiboCircle@@QAE@ABVCTextShowPosition@@ABVCCoordinate@@1ABVCElementCommonEnvironment@@@Z ; CFiboCircle::CFiboCircle
PUBLIC	?GetElementType@CFiboCircle@@UBE?AW4ElementType@CToolEnumData@@XZ ; CFiboCircle::GetElementType
PUBLIC	?GetTwoPointDrawer@CFiboCircle@@MAEAAVCTwoPointDrawer@@XZ ; CFiboCircle::GetTwoPointDrawer
PUBLIC	?GetRadius@CFiboCircle@@MBEHABVCPoint@@0H@Z	; CFiboCircle::GetRadius
PUBLIC	?GetDrawingRegion_EndPoint@CFiboCircle@@MBE?AVCPoint@@ABV2@0H@Z ; CFiboCircle::GetDrawingRegion_EndPoint
PUBLIC	?GetTextPosition@CFiboCircle@@MBEPBVCTextPosition@@XZ ; CFiboCircle::GetTextPosition
PUBLIC	?GetTextPosition@CFiboCircle@@MAEPAVCTextPosition@@XZ ; CFiboCircle::GetTextPosition
PUBLIC	??_GCFiboCircle@@UAEPAXI@Z			; CFiboCircle::`scalar deleting destructor'
PUBLIC	??0CFiboPenLine@@QAE@ABVCTextShowPosition@@ABVCCoordinate@@1ABVCElementCommonEnvironment@@@Z ; CFiboPenLine::CFiboPenLine
PUBLIC	?GetElementType@CFiboPenLine@@UBE?AW4ElementType@CToolEnumData@@XZ ; CFiboPenLine::GetElementType
PUBLIC	?GetTwoPointDrawer@CFiboPenLine@@MAEAAVCTwoPointDrawer@@XZ ; CFiboPenLine::GetTwoPointDrawer
PUBLIC	?ElementInRegion@CFiboPenLine@@MBE_NABVCRect@@ABVCPoint@@11@Z ; CFiboPenLine::ElementInRegion
PUBLIC	?GetModifyType@CFiboPenLine@@MBE?AW4ModifyType@CToolEnumData@@ABVCRect@@ABVCPoint@@11@Z ; CFiboPenLine::GetModifyType
PUBLIC	?GetTextPosition@CFiboPenLine@@MBEPBVCTextPosition@@XZ ; CFiboPenLine::GetTextPosition
PUBLIC	?GetTextPosition@CFiboPenLine@@MAEPAVCTextPosition@@XZ ; CFiboPenLine::GetTextPosition
PUBLIC	?GetModifyType@CFiboPenLine@@ABE?AW4ModifyType@CToolEnumData@@ABVCPoint@@000@Z ; CFiboPenLine::GetModifyType
PUBLIC	??_GCFiboPenLine@@UAEPAXI@Z			; CFiboPenLine::`scalar deleting destructor'
PUBLIC	??0CFiboRetrace@@QAE@ABVCTextShowPosition@@ABVCCoordinate@@1ABVCElementCommonEnvironment@@@Z ; CFiboRetrace::CFiboRetrace
PUBLIC	?GetElementType@CFiboRetrace@@UBE?AW4ElementType@CToolEnumData@@XZ ; CFiboRetrace::GetElementType
PUBLIC	?GetTextPosition@CFiboRetrace@@MBEPBVCTextPosition@@XZ ; CFiboRetrace::GetTextPosition
PUBLIC	?GetTextPosition@CFiboRetrace@@MAEPAVCTextPosition@@XZ ; CFiboRetrace::GetTextPosition
PUBLIC	?GetTwoPointDrawer@CFiboRetrace@@MAEAAVCTwoPointDrawer@@XZ ; CFiboRetrace::GetTwoPointDrawer
PUBLIC	?ElementInRegion@CFiboRetrace@@MBE_NABVCRect@@ABVCPoint@@11@Z ; CFiboRetrace::ElementInRegion
PUBLIC	?GetModifyType@CFiboRetrace@@MBE?AW4ModifyType@CToolEnumData@@ABVCRect@@ABVCPoint@@11@Z ; CFiboRetrace::GetModifyType
PUBLIC	?GetModifyType@CFiboRetrace@@ABE?AW4ModifyType@CToolEnumData@@HHABVCPoint@@0@Z ; CFiboRetrace::GetModifyType
PUBLIC	??_GCFiboRetrace@@UAEPAXI@Z			; CFiboRetrace::`scalar deleting destructor'
PUBLIC	??0CFiboTime@@QAE@ABVCCoordinate@@ABVCElementCommonEnvironment@@@Z ; CFiboTime::CFiboTime
PUBLIC	??0CFiboTime@@QAE@ABVCTextShowPosition@@ABVCCoordinate@@ABVCElementCommonEnvironment@@@Z ; CFiboTime::CFiboTime
PUBLIC	?GetElementType@CFiboTime@@UBE?AW4ElementType@CToolEnumData@@XZ ; CFiboTime::GetElementType
PUBLIC	?ElementModify_YValue@CFiboTime@@UAEXABVCElementModifyData@@@Z ; CFiboTime::ElementModify_YValue
PUBLIC	?GetTextPosition@CFiboTime@@MBEPBVCTextPosition@@XZ ; CFiboTime::GetTextPosition
PUBLIC	?GetTextPosition@CFiboTime@@MAEPAVCTextPosition@@XZ ; CFiboTime::GetTextPosition
PUBLIC	?GetOnePointDrawer@CFiboTime@@MAEAAVCOnePointDrawer@@XZ ; CFiboTime::GetOnePointDrawer
PUBLIC	?GetModifyType@CFiboTime@@MBE?AW4ModifyType@CToolEnumData@@ABVCDisplayData@@ABVCPoint@@1@Z ; CFiboTime::GetModifyType
PUBLIC	?GetGripPoint@CFiboTime@@MAE?AVCPoint@@ABVCCoordinateCalculatorData@@@Z ; CFiboTime::GetGripPoint
PUBLIC	?GetDisplayData@CFiboTime@@ABE?AVCDisplayData@@ABVCCoordinateCalculatorData@@@Z ; CFiboTime::GetDisplayData
PUBLIC	??_GCFiboTime@@UAEPAXI@Z			; CFiboTime::`scalar deleting destructor'
PUBLIC	??0CGann@@QAE@ABVCCoordinate@@0ABVCElementCommonEnvironment@@@Z ; CGann::CGann
PUBLIC	?GetTwoPointDrawer@CGann@@MAEAAVCTwoPointDrawer@@XZ ; CGann::GetTwoPointDrawer
PUBLIC	?ElementInRegion@CGann@@MBE_NABVCRect@@ABVCPoint@@11@Z ; CGann::ElementInRegion
PUBLIC	?GetModifyType@CGann@@MBE?AW4ModifyType@CToolEnumData@@ABVCRect@@ABVCPoint@@11@Z ; CGann::GetModifyType
PUBLIC	?IsInAscendingPowers@CGann@@ABE_NHHH@Z		; CGann::IsInAscendingPowers
PUBLIC	?GetModifyType_SidePoints@CGann@@ABE?AW4ModifyType@CToolEnumData@@ABVCPoint@@00@Z ; CGann::GetModifyType_SidePoints
PUBLIC	??1CGann@@UAE@XZ				; CGann::~CGann
PUBLIC	??_GCGann@@UAEPAXI@Z				; CGann::`scalar deleting destructor'
PUBLIC	??0CGannLine@@QAE@ABVCCoordinate@@0ABVCElementCommonEnvironment@@H@Z ; CGannLine::CGannLine
PUBLIC	?GetElementType@CGannLine@@UBE?AW4ElementType@CToolEnumData@@XZ ; CGannLine::GetElementType
PUBLIC	?GetGannDrawer@CGannLine@@MAEAAVCGannDrawer@@XZ	; CGannLine::GetGannDrawer
PUBLIC	?GetModifyType_Lines@CGannLine@@MBE?AW4ModifyType@CToolEnumData@@ABVCRect@@ABVCPoint@@11@Z ; CGannLine::GetModifyType_Lines
PUBLIC	??_GCGannLine@@UAEPAXI@Z			; CGannLine::`scalar deleting destructor'
PUBLIC	??0CGannFan@@QAE@ABVCTextShowPosition@@ABVCCoordinate@@1ABVCElementCommonEnvironment@@H@Z ; CGannFan::CGannFan
PUBLIC	?GetElementType@CGannFan@@UBE?AW4ElementType@CToolEnumData@@XZ ; CGannFan::GetElementType
PUBLIC	?GetGannDrawer@CGannFan@@MAEAAVCGannDrawer@@XZ	; CGannFan::GetGannDrawer
PUBLIC	?GetTextPosition@CGannFan@@MBEPBVCTextPosition@@XZ ; CGannFan::GetTextPosition
PUBLIC	?GetTextPosition@CGannFan@@MAEPAVCTextPosition@@XZ ; CGannFan::GetTextPosition
PUBLIC	?GetModifyType@CGannFan@@MBE?AW4ModifyType@CToolEnumData@@ABVCRect@@ABVCPoint@@11@Z ; CGannFan::GetModifyType
PUBLIC	?GetModifyType_Lines@CGannFan@@MBE?AW4ModifyType@CToolEnumData@@ABVCRect@@ABVCPoint@@11@Z ; CGannFan::GetModifyType_Lines
PUBLIC	??_GCGannFan@@UAEPAXI@Z				; CGannFan::`scalar deleting destructor'
PUBLIC	??0CGannGrid@@QAE@ABVCCoordinate@@0ABVCElementCommonEnvironment@@@Z ; CGannGrid::CGannGrid
PUBLIC	?GetElementType@CGannGrid@@UBE?AW4ElementType@CToolEnumData@@XZ ; CGannGrid::GetElementType
PUBLIC	?GetTwoPointDrawer@CGannGrid@@MAEAAVCTwoPointDrawer@@XZ ; CGannGrid::GetTwoPointDrawer
PUBLIC	?ElementInRegion@CGannGrid@@MBE_NABVCRect@@ABVCPoint@@11@Z ; CGannGrid::ElementInRegion
PUBLIC	?GetModifyType@CGannGrid@@MBE?AW4ModifyType@CToolEnumData@@ABVCRect@@ABVCPoint@@11@Z ; CGannGrid::GetModifyType
PUBLIC	?ElementInRegion@CGannGrid@@ABE_NHHH@Z		; CGannGrid::ElementInRegion
PUBLIC	?GetModifyType_SideLines@CGannGrid@@ABE?AW4ModifyType@CToolEnumData@@ABVCRect@@ABVCPoint@@11@Z ; CGannGrid::GetModifyType_SideLines
PUBLIC	?GetModifyType_Lines@CGannGrid@@ABE_NABVCRect@@ABVCPoint@@1H1AAW4ModifyType@CToolEnumData@@@Z ; CGannGrid::GetModifyType_Lines
PUBLIC	?GetSymmetryPointOfXAxis@CGannGrid@@ABE?AVCPoint@@ABV2@0@Z ; CGannGrid::GetSymmetryPointOfXAxis
PUBLIC	??_GCGannGrid@@UAEPAXI@Z			; CGannGrid::`scalar deleting destructor'
PUBLIC	?IsDrawing@CFiboTimeDrawer@@$2PPPPPPPM@A@BE_NABVCRect@@ABVCPoint@@@Z ; CFiboTimeDrawer::IsDrawing
PUBLIC	?DrawShape@CFiboTimeDrawer@@$2PPPPPPPM@A@AEXPAVCDC@@ABVCOnePointDrawingData@@ABVCDisplayData@@ABVCPoint@@_N@Z ; CFiboTimeDrawer::DrawShape
PUBLIC	?DrawTextA@CFiboTimeDrawer@@$2PPPPPPPM@A@AEXPAVCDC@@ABVCOnePointDrawingData@@@Z ; CFiboTimeDrawer::DrawTextA
PUBLIC	?GetGripRegion@CVertLineDrawer@@$2PPPPPPPM@BI@AE?AVCRect@@ABV2@ABVCPoint@@@Z ; CVertLineDrawer::GetGripRegion
PUBLIC	??_7CElement@@6B@				; CElement::`vftable'
PUBLIC	??_7COnePointDrawer@@6B@			; COnePointDrawer::`vftable'
PUBLIC	??_7CTwoPointDrawer@@6B@			; CTwoPointDrawer::`vftable'
PUBLIC	??_7CFiboDrawer@@6B@				; CFiboDrawer::`vftable'
PUBLIC	??_7CFiboArcDrawer@@6B@				; CFiboArcDrawer::`vftable'
PUBLIC	??_7CFiboSemicircleDrawer@@6B@			; CFiboSemicircleDrawer::`vftable'
PUBLIC	??_8CFiboSemicircleDrawer@@7B@			; CFiboSemicircleDrawer::`vbtable'
PUBLIC	??_7CFiboCircleDrawer@@6B@			; CFiboCircleDrawer::`vftable'
PUBLIC	??_8CFiboCircleDrawer@@7B@			; CFiboCircleDrawer::`vbtable'
PUBLIC	??_7CFiboPenLineDrawer@@6B@			; CFiboPenLineDrawer::`vftable'
PUBLIC	??_8CFiboPenLineDrawer@@7B@			; CFiboPenLineDrawer::`vbtable'
PUBLIC	??_7CFiboRetraceDrawer@@6B@			; CFiboRetraceDrawer::`vftable'
PUBLIC	??_8CFiboRetraceDrawer@@7B@			; CFiboRetraceDrawer::`vbtable'
PUBLIC	??_7CFiboTimeDrawer@@6B@			; CFiboTimeDrawer::`vftable'
PUBLIC	??_8CFiboTimeDrawer@@7BCVertLineDrawer@@@	; CFiboTimeDrawer::`vbtable'
PUBLIC	??_8CFiboTimeDrawer@@7BCOnePointDrawer@@@	; CFiboTimeDrawer::`vbtable'
PUBLIC	??_7CGannDrawer@@6B@				; CGannDrawer::`vftable'
PUBLIC	??_7CGannLineDrawer@@6B@			; CGannLineDrawer::`vftable'
PUBLIC	??_8CGannLineDrawer@@7B@			; CGannLineDrawer::`vbtable'
PUBLIC	??_7CGannFanDrawer@@6B@				; CGannFanDrawer::`vftable'
PUBLIC	??_8CGannFanDrawer@@7B@				; CGannFanDrawer::`vbtable'
PUBLIC	??_7CGannGridDrawer@@6B@			; CGannGridDrawer::`vftable'
PUBLIC	??_8CGannGridDrawer@@7B@			; CGannGridDrawer::`vbtable'
PUBLIC	??_7CFiboArc@@6B@				; CFiboArc::`vftable'
PUBLIC	??_7CFiboSemicircle@@6B@			; CFiboSemicircle::`vftable'
PUBLIC	??_7CFiboCircle@@6B@				; CFiboCircle::`vftable'
PUBLIC	??_7CFiboPenLine@@6B@				; CFiboPenLine::`vftable'
PUBLIC	??_7CFiboRetrace@@6B@				; CFiboRetrace::`vftable'
PUBLIC	??_7CFiboTime@@6B@				; CFiboTime::`vftable'
PUBLIC	??_7CGann@@6B@					; CGann::`vftable'
PUBLIC	??_7CGannLine@@6B@				; CGannLine::`vftable'
PUBLIC	??_7CGannFan@@6B@				; CGannFan::`vftable'
PUBLIC	??_7CGannGrid@@6B@				; CGannGrid::`vftable'
PUBLIC	??_R4CElement@@6B@				; CElement::`RTTI Complete Object Locator'
PUBLIC	??_R0?AVCElement@@@8				; CElement `RTTI Type Descriptor'
PUBLIC	??_R3CElement@@8				; CElement::`RTTI Class Hierarchy Descriptor'
PUBLIC	??_R2CElement@@8				; CElement::`RTTI Base Class Array'
PUBLIC	??_R1A@?0A@EA@CElement@@8			; CElement::`RTTI Base Class Descriptor at (0,-1,0,64)'
PUBLIC	??_R4COnePointDrawer@@6B@			; COnePointDrawer::`RTTI Complete Object Locator'
PUBLIC	??_R0?AVCOnePointDrawer@@@8			; COnePointDrawer `RTTI Type Descriptor'
PUBLIC	??_R3COnePointDrawer@@8				; COnePointDrawer::`RTTI Class Hierarchy Descriptor'
PUBLIC	??_R2COnePointDrawer@@8				; COnePointDrawer::`RTTI Base Class Array'
PUBLIC	??_R1A@?0A@EA@COnePointDrawer@@8		; COnePointDrawer::`RTTI Base Class Descriptor at (0,-1,0,64)'
PUBLIC	??_R1A@33FA@CDrawer@@8				; CDrawer::`RTTI Base Class Descriptor at (0,4,4,80)'
PUBLIC	??_R0?AVCDrawer@@@8				; CDrawer `RTTI Type Descriptor'
PUBLIC	??_R3CDrawer@@8					; CDrawer::`RTTI Class Hierarchy Descriptor'
PUBLIC	??_R2CDrawer@@8					; CDrawer::`RTTI Base Class Array'
PUBLIC	??_R1A@?0A@EA@CDrawer@@8			; CDrawer::`RTTI Base Class Descriptor at (0,-1,0,64)'
PUBLIC	??_R4CTwoPointDrawer@@6B@			; CTwoPointDrawer::`RTTI Complete Object Locator'
PUBLIC	??_R0?AVCTwoPointDrawer@@@8			; CTwoPointDrawer `RTTI Type Descriptor'
PUBLIC	??_R3CTwoPointDrawer@@8				; CTwoPointDrawer::`RTTI Class Hierarchy Descriptor'
PUBLIC	??_R2CTwoPointDrawer@@8				; CTwoPointDrawer::`RTTI Base Class Array'
PUBLIC	??_R1A@?0A@EA@CTwoPointDrawer@@8		; CTwoPointDrawer::`RTTI Base Class Descriptor at (0,-1,0,64)'
PUBLIC	??_R4CFiboDrawer@@6B@				; CFiboDrawer::`RTTI Complete Object Locator'
PUBLIC	??_R0?AVCFiboDrawer@@@8				; CFiboDrawer `RTTI Type Descriptor'
PUBLIC	??_R3CFiboDrawer@@8				; CFiboDrawer::`RTTI Class Hierarchy Descriptor'
PUBLIC	??_R2CFiboDrawer@@8				; CFiboDrawer::`RTTI Base Class Array'
PUBLIC	??_R1A@?0A@EA@CFiboDrawer@@8			; CFiboDrawer::`RTTI Base Class Descriptor at (0,-1,0,64)'
PUBLIC	??_R4CFiboArcDrawer@@6B@			; CFiboArcDrawer::`RTTI Complete Object Locator'
PUBLIC	??_R0?AVCFiboArcDrawer@@@8			; CFiboArcDrawer `RTTI Type Descriptor'
PUBLIC	??_R3CFiboArcDrawer@@8				; CFiboArcDrawer::`RTTI Class Hierarchy Descriptor'
PUBLIC	??_R2CFiboArcDrawer@@8				; CFiboArcDrawer::`RTTI Base Class Array'
PUBLIC	??_R1A@?0A@EA@CFiboArcDrawer@@8			; CFiboArcDrawer::`RTTI Base Class Descriptor at (0,-1,0,64)'
PUBLIC	??_R4CFiboSemicircleDrawer@@6B@			; CFiboSemicircleDrawer::`RTTI Complete Object Locator'
PUBLIC	??_R0?AVCFiboSemicircleDrawer@@@8		; CFiboSemicircleDrawer `RTTI Type Descriptor'
PUBLIC	??_R3CFiboSemicircleDrawer@@8			; CFiboSemicircleDrawer::`RTTI Class Hierarchy Descriptor'
PUBLIC	??_R2CFiboSemicircleDrawer@@8			; CFiboSemicircleDrawer::`RTTI Base Class Array'
PUBLIC	??_R1A@?0A@EA@CFiboSemicircleDrawer@@8		; CFiboSemicircleDrawer::`RTTI Base Class Descriptor at (0,-1,0,64)'
PUBLIC	??_R4CFiboCircleDrawer@@6B@			; CFiboCircleDrawer::`RTTI Complete Object Locator'
PUBLIC	??_R0?AVCFiboCircleDrawer@@@8			; CFiboCircleDrawer `RTTI Type Descriptor'
PUBLIC	??_R3CFiboCircleDrawer@@8			; CFiboCircleDrawer::`RTTI Class Hierarchy Descriptor'
PUBLIC	??_R2CFiboCircleDrawer@@8			; CFiboCircleDrawer::`RTTI Base Class Array'
PUBLIC	??_R1A@?0A@EA@CFiboCircleDrawer@@8		; CFiboCircleDrawer::`RTTI Base Class Descriptor at (0,-1,0,64)'
PUBLIC	??_R4CFiboPenLineDrawer@@6B@			; CFiboPenLineDrawer::`RTTI Complete Object Locator'
PUBLIC	??_R0?AVCFiboPenLineDrawer@@@8			; CFiboPenLineDrawer `RTTI Type Descriptor'
PUBLIC	??_R3CFiboPenLineDrawer@@8			; CFiboPenLineDrawer::`RTTI Class Hierarchy Descriptor'
PUBLIC	??_R2CFiboPenLineDrawer@@8			; CFiboPenLineDrawer::`RTTI Base Class Array'
PUBLIC	??_R1A@?0A@EA@CFiboPenLineDrawer@@8		; CFiboPenLineDrawer::`RTTI Base Class Descriptor at (0,-1,0,64)'
PUBLIC	??_R4CFiboRetraceDrawer@@6B@			; CFiboRetraceDrawer::`RTTI Complete Object Locator'
PUBLIC	??_R0?AVCFiboRetraceDrawer@@@8			; CFiboRetraceDrawer `RTTI Type Descriptor'
PUBLIC	??_R3CFiboRetraceDrawer@@8			; CFiboRetraceDrawer::`RTTI Class Hierarchy Descriptor'
PUBLIC	??_R2CFiboRetraceDrawer@@8			; CFiboRetraceDrawer::`RTTI Base Class Array'
PUBLIC	??_R1A@?0A@EA@CFiboRetraceDrawer@@8		; CFiboRetraceDrawer::`RTTI Base Class Descriptor at (0,-1,0,64)'
PUBLIC	??_R4CFiboTimeDrawer@@6B@			; CFiboTimeDrawer::`RTTI Complete Object Locator'
PUBLIC	??_R0?AVCFiboTimeDrawer@@@8			; CFiboTimeDrawer `RTTI Type Descriptor'
PUBLIC	??_R3CFiboTimeDrawer@@8				; CFiboTimeDrawer::`RTTI Class Hierarchy Descriptor'
PUBLIC	??_R2CFiboTimeDrawer@@8				; CFiboTimeDrawer::`RTTI Base Class Array'
PUBLIC	??_R1A@?0A@EA@CFiboTimeDrawer@@8		; CFiboTimeDrawer::`RTTI Base Class Descriptor at (0,-1,0,64)'
PUBLIC	??_R1A@?0A@EA@CVertLineDrawer@@8		; CVertLineDrawer::`RTTI Base Class Descriptor at (0,-1,0,64)'
PUBLIC	??_R0?AVCVertLineDrawer@@@8			; CVertLineDrawer `RTTI Type Descriptor'
PUBLIC	??_R3CVertLineDrawer@@8				; CVertLineDrawer::`RTTI Class Hierarchy Descriptor'
PUBLIC	??_R2CVertLineDrawer@@8				; CVertLineDrawer::`RTTI Base Class Array'
PUBLIC	??_R1A@A@7FA@COnePointDrawer@@8			; COnePointDrawer::`RTTI Base Class Descriptor at (0,0,8,80)'
PUBLIC	??_R1A@A@3FA@CDrawer@@8				; CDrawer::`RTTI Base Class Descriptor at (0,0,4,80)'
PUBLIC	??_R4CGannDrawer@@6B@				; CGannDrawer::`RTTI Complete Object Locator'
PUBLIC	??_R0?AVCGannDrawer@@@8				; CGannDrawer `RTTI Type Descriptor'
PUBLIC	??_R3CGannDrawer@@8				; CGannDrawer::`RTTI Class Hierarchy Descriptor'
PUBLIC	??_R2CGannDrawer@@8				; CGannDrawer::`RTTI Base Class Array'
PUBLIC	??_R1A@?0A@EA@CGannDrawer@@8			; CGannDrawer::`RTTI Base Class Descriptor at (0,-1,0,64)'
PUBLIC	??_R4CGannLineDrawer@@6B@			; CGannLineDrawer::`RTTI Complete Object Locator'
PUBLIC	??_R0?AVCGannLineDrawer@@@8			; CGannLineDrawer `RTTI Type Descriptor'
PUBLIC	??_R3CGannLineDrawer@@8				; CGannLineDrawer::`RTTI Class Hierarchy Descriptor'
PUBLIC	??_R2CGannLineDrawer@@8				; CGannLineDrawer::`RTTI Base Class Array'
PUBLIC	??_R1A@?0A@EA@CGannLineDrawer@@8		; CGannLineDrawer::`RTTI Base Class Descriptor at (0,-1,0,64)'
PUBLIC	??_R4CGannFanDrawer@@6B@			; CGannFanDrawer::`RTTI Complete Object Locator'
PUBLIC	??_R0?AVCGannFanDrawer@@@8			; CGannFanDrawer `RTTI Type Descriptor'
PUBLIC	??_R3CGannFanDrawer@@8				; CGannFanDrawer::`RTTI Class Hierarchy Descriptor'
PUBLIC	??_R2CGannFanDrawer@@8				; CGannFanDrawer::`RTTI Base Class Array'
PUBLIC	??_R1A@?0A@EA@CGannFanDrawer@@8			; CGannFanDrawer::`RTTI Base Class Descriptor at (0,-1,0,64)'
PUBLIC	??_R4CGannGridDrawer@@6B@			; CGannGridDrawer::`RTTI Complete Object Locator'
PUBLIC	??_R0?AVCGannGridDrawer@@@8			; CGannGridDrawer `RTTI Type Descriptor'
PUBLIC	??_R3CGannGridDrawer@@8				; CGannGridDrawer::`RTTI Class Hierarchy Descriptor'
PUBLIC	??_R2CGannGridDrawer@@8				; CGannGridDrawer::`RTTI Base Class Array'
PUBLIC	??_R1A@?0A@EA@CGannGridDrawer@@8		; CGannGridDrawer::`RTTI Base Class Descriptor at (0,-1,0,64)'
PUBLIC	??_R4CFiboArc@@6B@				; CFiboArc::`RTTI Complete Object Locator'
PUBLIC	??_R0?AVCFiboArc@@@8				; CFiboArc `RTTI Type Descriptor'
PUBLIC	??_R3CFiboArc@@8				; CFiboArc::`RTTI Class Hierarchy Descriptor'
PUBLIC	??_R2CFiboArc@@8				; CFiboArc::`RTTI Base Class Array'
PUBLIC	??_R1A@?0A@EA@CFiboArc@@8			; CFiboArc::`RTTI Base Class Descriptor at (0,-1,0,64)'
PUBLIC	??_R1A@?0A@EA@CTwoPointElement@@8		; CTwoPointElement::`RTTI Base Class Descriptor at (0,-1,0,64)'
PUBLIC	??_R0?AVCTwoPointElement@@@8			; CTwoPointElement `RTTI Type Descriptor'
PUBLIC	??_R3CTwoPointElement@@8			; CTwoPointElement::`RTTI Class Hierarchy Descriptor'
PUBLIC	??_R2CTwoPointElement@@8			; CTwoPointElement::`RTTI Base Class Array'
PUBLIC	??_R4CFiboSemicircle@@6B@			; CFiboSemicircle::`RTTI Complete Object Locator'
PUBLIC	??_R0?AVCFiboSemicircle@@@8			; CFiboSemicircle `RTTI Type Descriptor'
PUBLIC	??_R3CFiboSemicircle@@8				; CFiboSemicircle::`RTTI Class Hierarchy Descriptor'
PUBLIC	??_R2CFiboSemicircle@@8				; CFiboSemicircle::`RTTI Base Class Array'
PUBLIC	??_R1A@?0A@EA@CFiboSemicircle@@8		; CFiboSemicircle::`RTTI Base Class Descriptor at (0,-1,0,64)'
PUBLIC	??_R4CFiboCircle@@6B@				; CFiboCircle::`RTTI Complete Object Locator'
PUBLIC	??_R0?AVCFiboCircle@@@8				; CFiboCircle `RTTI Type Descriptor'
PUBLIC	??_R3CFiboCircle@@8				; CFiboCircle::`RTTI Class Hierarchy Descriptor'
PUBLIC	??_R2CFiboCircle@@8				; CFiboCircle::`RTTI Base Class Array'
PUBLIC	??_R1A@?0A@EA@CFiboCircle@@8			; CFiboCircle::`RTTI Base Class Descriptor at (0,-1,0,64)'
PUBLIC	??_R4CFiboPenLine@@6B@				; CFiboPenLine::`RTTI Complete Object Locator'
PUBLIC	??_R0?AVCFiboPenLine@@@8			; CFiboPenLine `RTTI Type Descriptor'
PUBLIC	??_R3CFiboPenLine@@8				; CFiboPenLine::`RTTI Class Hierarchy Descriptor'
PUBLIC	??_R2CFiboPenLine@@8				; CFiboPenLine::`RTTI Base Class Array'
PUBLIC	??_R1A@?0A@EA@CFiboPenLine@@8			; CFiboPenLine::`RTTI Base Class Descriptor at (0,-1,0,64)'
PUBLIC	??_R4CFiboRetrace@@6B@				; CFiboRetrace::`RTTI Complete Object Locator'
PUBLIC	??_R0?AVCFiboRetrace@@@8			; CFiboRetrace `RTTI Type Descriptor'
PUBLIC	??_R3CFiboRetrace@@8				; CFiboRetrace::`RTTI Class Hierarchy Descriptor'
PUBLIC	??_R2CFiboRetrace@@8				; CFiboRetrace::`RTTI Base Class Array'
PUBLIC	??_R1A@?0A@EA@CFiboRetrace@@8			; CFiboRetrace::`RTTI Base Class Descriptor at (0,-1,0,64)'
PUBLIC	??_R4CFiboTime@@6B@				; CFiboTime::`RTTI Complete Object Locator'
PUBLIC	??_R0?AVCFiboTime@@@8				; CFiboTime `RTTI Type Descriptor'
PUBLIC	??_R3CFiboTime@@8				; CFiboTime::`RTTI Class Hierarchy Descriptor'
PUBLIC	??_R2CFiboTime@@8				; CFiboTime::`RTTI Base Class Array'
PUBLIC	??_R1A@?0A@EA@CFiboTime@@8			; CFiboTime::`RTTI Base Class Descriptor at (0,-1,0,64)'
PUBLIC	??_R1A@?0A@EA@CVertElement@@8			; CVertElement::`RTTI Base Class Descriptor at (0,-1,0,64)'
PUBLIC	??_R0?AVCVertElement@@@8			; CVertElement `RTTI Type Descriptor'
PUBLIC	??_R3CVertElement@@8				; CVertElement::`RTTI Class Hierarchy Descriptor'
PUBLIC	??_R2CVertElement@@8				; CVertElement::`RTTI Base Class Array'
PUBLIC	??_R1A@?0A@EA@COnePointElement@@8		; COnePointElement::`RTTI Base Class Descriptor at (0,-1,0,64)'
PUBLIC	??_R0?AVCOnePointElement@@@8			; COnePointElement `RTTI Type Descriptor'
PUBLIC	??_R3COnePointElement@@8			; COnePointElement::`RTTI Class Hierarchy Descriptor'
PUBLIC	??_R2COnePointElement@@8			; COnePointElement::`RTTI Base Class Array'
PUBLIC	??_R4CGann@@6B@					; CGann::`RTTI Complete Object Locator'
PUBLIC	??_R0?AVCGann@@@8				; CGann `RTTI Type Descriptor'
PUBLIC	??_R3CGann@@8					; CGann::`RTTI Class Hierarchy Descriptor'
PUBLIC	??_R2CGann@@8					; CGann::`RTTI Base Class Array'
PUBLIC	??_R1A@?0A@EA@CGann@@8				; CGann::`RTTI Base Class Descriptor at (0,-1,0,64)'
PUBLIC	??_R4CGannLine@@6B@				; CGannLine::`RTTI Complete Object Locator'
PUBLIC	??_R0?AVCGannLine@@@8				; CGannLine `RTTI Type Descriptor'
PUBLIC	??_R3CGannLine@@8				; CGannLine::`RTTI Class Hierarchy Descriptor'
PUBLIC	??_R2CGannLine@@8				; CGannLine::`RTTI Base Class Array'
PUBLIC	??_R1A@?0A@EA@CGannLine@@8			; CGannLine::`RTTI Base Class Descriptor at (0,-1,0,64)'
PUBLIC	??_R4CGannFan@@6B@				; CGannFan::`RTTI Complete Object Locator'
PUBLIC	??_R0?AVCGannFan@@@8				; CGannFan `RTTI Type Descriptor'
PUBLIC	??_R3CGannFan@@8				; CGannFan::`RTTI Class Hierarchy Descriptor'
PUBLIC	??_R2CGannFan@@8				; CGannFan::`RTTI Base Class Array'
PUBLIC	??_R1A@?0A@EA@CGannFan@@8			; CGannFan::`RTTI Base Class Descriptor at (0,-1,0,64)'
PUBLIC	??_R4CGannGrid@@6B@				; CGannGrid::`RTTI Complete Object Locator'
PUBLIC	??_R0?AVCGannGrid@@@8				; CGannGrid `RTTI Type Descriptor'
PUBLIC	??_R3CGannGrid@@8				; CGannGrid::`RTTI Class Hierarchy Descriptor'
PUBLIC	??_R2CGannGrid@@8				; CGannGrid::`RTTI Base Class Array'
PUBLIC	??_R1A@?0A@EA@CGannGrid@@8			; CGannGrid::`RTTI Base Class Descriptor at (0,-1,0,64)'
EXTRN	__purecall:PROC
EXTRN	??3@YAXPAXI@Z:PROC				; operator delete
EXTRN	___std_terminate:PROC
EXTRN	__imp_??0?$CStringT@DV?$StrTraitMFC_DLL@DV?$ChTraitsCRT@D@ATL@@@@@ATL@@QAE@XZ:PROC
EXTRN	__imp_??1?$CStringT@DV?$StrTraitMFC_DLL@DV?$ChTraitsCRT@D@ATL@@@@@ATL@@QAE@XZ:PROC
EXTRN	??0CDWordArray@@QAE@XZ:PROC			; CDWordArray::CDWordArray
EXTRN	??1CDWordArray@@UAE@XZ:PROC			; CDWordArray::~CDWordArray
EXTRN	?GetCoordinateType@CDataTypeEnvironment@@QBE?AW4COORDINATETYPE@CAnalysis@@XZ:PROC ; CDataTypeEnvironment::GetCoordinateType
EXTRN	?IsLeftLineExt@CElementCommonEnvironment@@QBEHXZ:PROC ; CElementCommonEnvironment::IsLeftLineExt
EXTRN	?IsRightLineExt@CElementCommonEnvironment@@QBEHXZ:PROC ; CElementCommonEnvironment::IsRightLineExt
EXTRN	?GetDataType@CElementCommonEnvironment@@QAEAAVCDataTypeEnvironment@@XZ:PROC ; CElementCommonEnvironment::GetDataType
EXTRN	??0CTextShowPosition@@QAE@XZ:PROC		; CTextShowPosition::CTextShowPosition
EXTRN	??0CTextShowPosition@@QAE@ABV0@@Z:PROC		; CTextShowPosition::CTextShowPosition
EXTRN	?SetShow@CTextShowPosition@@QAEX_N@Z:PROC	; CTextShowPosition::SetShow
EXTRN	?GetCommonEnvironment@CElement@@QBE?AVCElementCommonEnvironment@@XZ:PROC ; CElement::GetCommonEnvironment
EXTRN	?GetTextPosition@CElement@@UBEPBVCTextPosition@@XZ:PROC ; CElement::GetTextPosition
EXTRN	?GetTextPosition@CElement@@UAEPAVCTextPosition@@XZ:PROC ; CElement::GetTextPosition
EXTRN	?Draw@CElement@@UAEXPAVCDC@@ABVCDrawingRegions@@ABVCCoordinateCalculatorData@@@Z:PROC ; CElement::Draw
EXTRN	??_ECElement@@UAEPAXI@Z:PROC			; CElement::`vector deleting destructor'
EXTRN	?GetRegion@CCoordinateCalculatorData@@QBE?AVCRect@@XZ:PROC ; CCoordinateCalculatorData::GetRegion
EXTRN	?GetDisplayDataStart@CCoordinateCalculatorData@@QBEHXZ:PROC ; CCoordinateCalculatorData::GetDisplayDataStart
EXTRN	?GetDisplayDataEnd@CCoordinateCalculatorData@@QBEHXZ:PROC ; CCoordinateCalculatorData::GetDisplayDataEnd
EXTRN	??0CGraphPartRegion@@QAE@ABVCRect@@0@Z:PROC	; CGraphPartRegion::CGraphPartRegion
EXTRN	??0CDisplayAttributes@@QAE@HH@Z:PROC		; CDisplayAttributes::CDisplayAttributes
EXTRN	??0CDisplayData@@QAE@W4COORDINATETYPE@CAnalysis@@ABVCGraphPartRegion@@ABVCDisplayAttributes@@@Z:PROC ; CDisplayData::CDisplayData
EXTRN	?GetDisplayRegion@CDisplayData@@QBE?AVCRect@@XZ:PROC ; CDisplayData::GetDisplayRegion
EXTRN	?GetPoints@COnePointElement@@UAEXAAVCElementPointList@@@Z:PROC ; COnePointElement::GetPoints
EXTRN	?GetModifyType@COnePointElement@@UBE?AW4ModifyType@CToolEnumData@@PAVCExtractingDataOfModifyType@@@Z:PROC ; COnePointElement::GetModifyType
EXTRN	?GetCoordinate@COnePointElement@@UBE?AVCCoordinate@@W4ModifyType@CToolEnumData@@@Z:PROC ; COnePointElement::GetCoordinate
EXTRN	?DrawShadowAndGrip@COnePointElement@@UAEXPAVCDC@@ABVCDrawingRegions@@ABVCCoordinateCalculatorData@@@Z:PROC ; COnePointElement::DrawShadowAndGrip
EXTRN	?DrawSelected@COnePointElement@@UAEXPAVCDC@@ABVCSelectedElementDrawingData@@@Z:PROC ; COnePointElement::DrawSelected
EXTRN	?GetSavedPoints@COnePointElement@@MBE?AV?$CStringT@DV?$StrTraitMFC_DLL@DV?$ChTraitsCRT@D@ATL@@@@@ATL@@XZ:PROC ; COnePointElement::GetSavedPoints
EXTRN	?RealDraw@COnePointElement@@MAEXPAVCDC@@ABVCDrawingRegions@@ABVCCoordinateCalculatorData@@@Z:PROC ; COnePointElement::RealDraw
EXTRN	?GetGripPoint@COnePointElement@@MAE?AVCPoint@@ABVCCoordinateCalculatorData@@@Z:PROC ; COnePointElement::GetGripPoint
EXTRN	??0CTwoPointElement@@QAE@ABVCCoordinate@@0ABVCElementCommonEnvironment@@@Z:PROC ; CTwoPointElement::CTwoPointElement
EXTRN	?GetPoints@CTwoPointElement@@UAEXAAVCElementPointList@@@Z:PROC ; CTwoPointElement::GetPoints
EXTRN	?GetModifyType@CTwoPointElement@@UBE?AW4ModifyType@CToolEnumData@@PAVCExtractingDataOfModifyType@@@Z:PROC ; CTwoPointElement::GetModifyType
EXTRN	?ElementModify@CTwoPointElement@@UAEXABVCElementModifyData@@@Z:PROC ; CTwoPointElement::ElementModify
EXTRN	?ElementModify_YValue@CTwoPointElement@@UAEXABVCElementModifyData@@@Z:PROC ; CTwoPointElement::ElementModify_YValue
EXTRN	?ElementModify_Coordinate@CTwoPointElement@@UAEXABVCCoordinate@@W4ModifyType@CToolEnumData@@@Z:PROC ; CTwoPointElement::ElementModify_Coordinate
EXTRN	?GetCoordinate@CTwoPointElement@@UBE?AVCCoordinate@@W4ModifyType@CToolEnumData@@@Z:PROC ; CTwoPointElement::GetCoordinate
EXTRN	?DrawShadowAndGrip@CTwoPointElement@@UAEXPAVCDC@@ABVCDrawingRegions@@ABVCCoordinateCalculatorData@@@Z:PROC ; CTwoPointElement::DrawShadowAndGrip
EXTRN	?DrawSelected@CTwoPointElement@@UAEXPAVCDC@@ABVCSelectedElementDrawingData@@@Z:PROC ; CTwoPointElement::DrawSelected
EXTRN	?GetSavedPoints@CTwoPointElement@@MBE?AV?$CStringT@DV?$StrTraitMFC_DLL@DV?$ChTraitsCRT@D@ATL@@@@@ATL@@XZ:PROC ; CTwoPointElement::GetSavedPoints
EXTRN	?RealDraw@CTwoPointElement@@MAEXPAVCDC@@ABVCDrawingRegions@@ABVCCoordinateCalculatorData@@@Z:PROC ; CTwoPointElement::RealDraw
EXTRN	?ElementInRegion@CTwoPointElement@@MBE_NABVCRect@@ABVCPoint@@11@Z:PROC ; CTwoPointElement::ElementInRegion
EXTRN	?GetModifyType@CTwoPointElement@@MBE?AW4ModifyType@CToolEnumData@@ABVCRect@@ABVCPoint@@11@Z:PROC ; CTwoPointElement::GetModifyType
EXTRN	?GetModifyType@CTwoPointElement@@MBE?AW4ModifyType@CToolEnumData@@ABVCDisplayData@@ABVCPoint@@11@Z:PROC ; CTwoPointElement::GetModifyType
EXTRN	?GetModifyType_SidePoints@CTwoPointElement@@IBE?AW4ModifyType@CToolEnumData@@ABVCPoint@@00@Z:PROC ; CTwoPointElement::GetModifyType_SidePoints
EXTRN	?GetModifyType_Line@CTwoPointElement@@IBE?AW4ModifyType@CToolEnumData@@ABVCPoint@@00@Z:PROC ; CTwoPointElement::GetModifyType_Line
EXTRN	??0CVertElement@@QAE@ABVCCoordinate@@ABVCElementCommonEnvironment@@@Z:PROC ; CVertElement::CVertElement
EXTRN	?ElementModify@CVertElement@@UAEXABVCElementModifyData@@@Z:PROC ; CVertElement::ElementModify
EXTRN	?ElementModify_Coordinate@CVertElement@@UAEXABVCCoordinate@@W4ModifyType@CToolEnumData@@@Z:PROC ; CVertElement::ElementModify_Coordinate
EXTRN	?GetModifyType@CVertElement@@MBE?AW4ModifyType@CToolEnumData@@ABVCDisplayData@@ABVCPoint@@1@Z:PROC ; CVertElement::GetModifyType
EXTRN	??0CDrawer@@QAE@XZ:PROC				; CDrawer::CDrawer
EXTRN	?DrawShadow@COnePointDrawer@@MAEXPAVCDC@@ABVCDisplayData@@ABVCPoint@@_N@Z:PROC ; COnePointDrawer::DrawShadow
EXTRN	?DrawTextA@COnePointDrawer@@MAEXPAVCDC@@ABVCOnePointDrawingData@@@Z:PROC ; COnePointDrawer::DrawTextA
EXTRN	?IsDrawing@CTwoPointDrawer@@MBE_NABVCRect@@ABVCPoint@@1@Z:PROC ; CTwoPointDrawer::IsDrawing
EXTRN	?DrawShadow@CTwoPointDrawer@@MAEXPAVCDC@@ABVCRect@@ABVCPoint@@2@Z:PROC ; CTwoPointDrawer::DrawShadow
EXTRN	?DrawTextA@CTwoPointDrawer@@MAEXPAVCDC@@ABVCTwoPointDrawingData@@@Z:PROC ; CTwoPointDrawer::DrawTextA
EXTRN	??0CVertLineDrawer@@QAE@XZ:PROC			; CVertLineDrawer::CVertLineDrawer
EXTRN	?GetGripRegion@CVertLineDrawer@@MAE?AVCRect@@ABV2@ABVCPoint@@@Z:PROC ; CVertLineDrawer::GetGripRegion
EXTRN	?DrawShape@CFiboDrawer@@UAEXPAVCDC@@ABVCTwoPointDrawingData@@ABVCPoint@@2@Z:PROC ; CFiboDrawer::DrawShape
EXTRN	?DrawShadow@CFiboDrawer@@UAEXPAVCDC@@ABVCRect@@ABVCPoint@@2@Z:PROC ; CFiboDrawer::DrawShadow
EXTRN	?GetCount@CFiboDrawer@@UBEHXZ:PROC		; CFiboDrawer::GetCount
EXTRN	?GetCoefficient@CFiboDrawer@@MBENH@Z:PROC	; CFiboDrawer::GetCoefficient
EXTRN	?GetRadius@CFiboArcDrawer@@QBEHABVCPoint@@0H@Z:PROC ; CFiboArcDrawer::GetRadius
EXTRN	?DrawFiboShape@CFiboArcDrawer@@MAE_NPAVCDC@@ABVCRect@@ABVCPoint@@2HHH@Z:PROC ; CFiboArcDrawer::DrawFiboShape
EXTRN	?DrawFiboShape@CFiboArcDrawer@@MAE_NPAVCDC@@HABVCTwoPointDrawingData@@@Z:PROC ; CFiboArcDrawer::DrawFiboShape
EXTRN	?DrawTextA@CFiboSemicircleDrawer@@MAEXPAVCDC@@ABVCTwoPointDrawingData@@@Z:PROC ; CFiboSemicircleDrawer::DrawTextA
EXTRN	?DrawArc@CFiboSemicircleDrawer@@MAEXPAVCDC@@ABVCRect@@HH@Z:PROC ; CFiboSemicircleDrawer::DrawArc
EXTRN	?DrawTextA@CFiboCircleDrawer@@MAEXPAVCDC@@ABVCTwoPointDrawingData@@@Z:PROC ; CFiboCircleDrawer::DrawTextA
EXTRN	?DrawArc@CFiboCircleDrawer@@MAEXPAVCDC@@ABVCRect@@HH@Z:PROC ; CFiboCircleDrawer::DrawArc
EXTRN	?DrawTextA@CFiboPenLineDrawer@@UAEXPAVCDC@@ABVCTwoPointDrawingData@@@Z:PROC ; CFiboPenLineDrawer::DrawTextA
EXTRN	?GetPoint@CFiboPenLineDrawer@@QBE_NABVCRect@@ABVCPoint@@1HAAV3@@Z:PROC ; CFiboPenLineDrawer::GetPoint
EXTRN	?DrawFiboShape@CFiboPenLineDrawer@@MAE_NPAVCDC@@ABVCRect@@ABVCPoint@@2HHH@Z:PROC ; CFiboPenLineDrawer::DrawFiboShape
EXTRN	?DrawFiboShape@CFiboPenLineDrawer@@MAE_NPAVCDC@@HABVCTwoPointDrawingData@@@Z:PROC ; CFiboPenLineDrawer::DrawFiboShape
EXTRN	?GetPoint@CFiboRetraceDrawer@@QBE_NABVCRect@@ABVCPoint@@1HAAV3@@Z:PROC ; CFiboRetraceDrawer::GetPoint
EXTRN	?DrawTextA@CFiboRetraceDrawer@@MAEXPAVCDC@@ABVCTwoPointDrawingData@@@Z:PROC ; CFiboRetraceDrawer::DrawTextA
EXTRN	?DrawFiboShape@CFiboRetraceDrawer@@MAE_NPAVCDC@@ABVCRect@@ABVCPoint@@2HHH@Z:PROC ; CFiboRetraceDrawer::DrawFiboShape
EXTRN	?DrawFiboShape@CFiboRetraceDrawer@@MAE_NPAVCDC@@HABVCTwoPointDrawingData@@@Z:PROC ; CFiboRetraceDrawer::DrawFiboShape
EXTRN	?GetPoint@CFiboTimeDrawer@@QBE_NABVCDisplayData@@ABVCPoint@@HAAV3@@Z:PROC ; CFiboTimeDrawer::GetPoint
EXTRN	?IsDrawing@CFiboTimeDrawer@@MBE_NABVCRect@@ABVCPoint@@@Z:PROC ; CFiboTimeDrawer::IsDrawing
EXTRN	?DrawShape@CFiboTimeDrawer@@MAEXPAVCDC@@ABVCOnePointDrawingData@@ABVCDisplayData@@ABVCPoint@@_N@Z:PROC ; CFiboTimeDrawer::DrawShape
EXTRN	?DrawTextA@CFiboTimeDrawer@@MAEXPAVCDC@@ABVCOnePointDrawingData@@@Z:PROC ; CFiboTimeDrawer::DrawTextA
EXTRN	?DrawShape@CGannDrawer@@UAEXPAVCDC@@ABVCTwoPointDrawingData@@ABVCPoint@@2@Z:PROC ; CGannDrawer::DrawShape
EXTRN	?GetLineEndPoint@CGannLineDrawer@@QBE_NABVCRect@@ABVCPoint@@1AAV3@@Z:PROC ; CGannLineDrawer::GetLineEndPoint
EXTRN	?DrawShape@CGannLineDrawer@@MAEXPAVCDC@@ABVCRect@@ABVCPoint@@2@Z:PROC ; CGannLineDrawer::DrawShape
EXTRN	?GetCount@CGannFanDrawer@@QBEHXZ:PROC		; CGannFanDrawer::GetCount
EXTRN	?GetLineEndPoint@CGannFanDrawer@@QBE_NABVCRect@@ABVCPoint@@1HAAV3@@Z:PROC ; CGannFanDrawer::GetLineEndPoint
EXTRN	?DrawTextA@CGannFanDrawer@@MAEXPAVCDC@@ABVCTwoPointDrawingData@@@Z:PROC ; CGannFanDrawer::DrawTextA
EXTRN	?DrawShape@CGannFanDrawer@@MAEXPAVCDC@@ABVCRect@@ABVCPoint@@2@Z:PROC ; CGannFanDrawer::DrawShape
EXTRN	?GetLineEndPoints@CGannGridDrawer@@QBE_NABVCRect@@ABVCPoint@@1HAAV3@2@Z:PROC ; CGannGridDrawer::GetLineEndPoints
EXTRN	?DrawShape@CGannGridDrawer@@MAEXPAVCDC@@ABVCRect@@ABVCPoint@@2@Z:PROC ; CGannGridDrawer::DrawShape
EXTRN	??_ECFiboArc@@UAEPAXI@Z:PROC			; CFiboArc::`vector deleting destructor'
EXTRN	??_ECFiboSemicircle@@UAEPAXI@Z:PROC		; CFiboSemicircle::`vector deleting destructor'
EXTRN	??_ECFiboCircle@@UAEPAXI@Z:PROC			; CFiboCircle::`vector deleting destructor'
EXTRN	??_ECFiboPenLine@@UAEPAXI@Z:PROC		; CFiboPenLine::`vector deleting destructor'
EXTRN	??_ECFiboRetrace@@UAEPAXI@Z:PROC		; CFiboRetrace::`vector deleting destructor'
EXTRN	??_ECFiboTime@@UAEPAXI@Z:PROC			; CFiboTime::`vector deleting destructor'
EXTRN	??_ECGann@@UAEPAXI@Z:PROC			; CGann::`vector deleting destructor'
EXTRN	??_ECGannLine@@UAEPAXI@Z:PROC			; CGannLine::`vector deleting destructor'
EXTRN	??_ECGannFan@@UAEPAXI@Z:PROC			; CGannFan::`vector deleting destructor'
EXTRN	??_ECGannGrid@@UAEPAXI@Z:PROC			; CGannGrid::`vector deleting destructor'
EXTRN	??0CSelectableRegionCalculator@@QAE@XZ:PROC	; CSelectableRegionCalculator::CSelectableRegionCalculator
EXTRN	?GetProximityRange@CSelectableRegionCalculator@@QBEHXZ:PROC ; CSelectableRegionCalculator::GetProximityRange
EXTRN	?Round@CMath@@SAHN@Z:PROC			; CMath::Round
EXTRN	?Distance@CMath@@SANABVCPoint@@0@Z:PROC		; CMath::Distance
EXTRN	@__security_check_cookie@4:PROC
EXTRN	___CxxFrameHandler3:PROC
EXTRN	??_7type_info@@6B@:QWORD			; type_info::`vftable'
EXTRN	___security_cookie:DWORD
EXTRN	__fltused:DWORD
;	COMDAT ??_R1A@?0A@EA@CGannGrid@@8
rdata$r	SEGMENT
??_R1A@?0A@EA@CGannGrid@@8 DD FLAT:??_R0?AVCGannGrid@@@8 ; CGannGrid::`RTTI Base Class Descriptor at (0,-1,0,64)'
	DD	02H
	DD	00H
	DD	0ffffffffH
	DD	00H
	DD	040H
	DD	FLAT:??_R3CGannGrid@@8
rdata$r	ENDS
;	COMDAT ??_R2CGannGrid@@8
rdata$r	SEGMENT
??_R2CGannGrid@@8 DD FLAT:??_R1A@?0A@EA@CGannGrid@@8	; CGannGrid::`RTTI Base Class Array'
	DD	FLAT:??_R1A@?0A@EA@CTwoPointElement@@8
	DD	FLAT:??_R1A@?0A@EA@CElement@@8
rdata$r	ENDS
;	COMDAT ??_R3CGannGrid@@8
rdata$r	SEGMENT
??_R3CGannGrid@@8 DD 00H				; CGannGrid::`RTTI Class Hierarchy Descriptor'
	DD	00H
	DD	03H
	DD	FLAT:??_R2CGannGrid@@8
rdata$r	ENDS
;	COMDAT ??_R0?AVCGannGrid@@@8
data$rs	SEGMENT
??_R0?AVCGannGrid@@@8 DD FLAT:??_7type_info@@6B@	; CGannGrid `RTTI Type Descriptor'
	DD	00H
	DB	'.?AVCGannGrid@@', 00H
data$rs	ENDS
;	COMDAT ??_R4CGannGrid@@6B@
rdata$r	SEGMENT
??_R4CGannGrid@@6B@ DD 00H				; CGannGrid::`RTTI Complete Object Locator'
	DD	00H
	DD	00H
	DD	FLAT:??_R0?AVCGannGrid@@@8
	DD	FLAT:??_R3CGannGrid@@8
rdata$r	ENDS
;	COMDAT ??_R1A@?0A@EA@CGannFan@@8
rdata$r	SEGMENT
??_R1A@?0A@EA@CGannFan@@8 DD FLAT:??_R0?AVCGannFan@@@8	; CGannFan::`RTTI Base Class Descriptor at (0,-1,0,64)'
	DD	03H
	DD	00H
	DD	0ffffffffH
	DD	00H
	DD	040H
	DD	FLAT:??_R3CGannFan@@8
rdata$r	ENDS
;	COMDAT ??_R2CGannFan@@8
rdata$r	SEGMENT
??_R2CGannFan@@8 DD FLAT:??_R1A@?0A@EA@CGannFan@@8	; CGannFan::`RTTI Base Class Array'
	DD	FLAT:??_R1A@?0A@EA@CGann@@8
	DD	FLAT:??_R1A@?0A@EA@CTwoPointElement@@8
	DD	FLAT:??_R1A@?0A@EA@CElement@@8
rdata$r	ENDS
;	COMDAT ??_R3CGannFan@@8
rdata$r	SEGMENT
??_R3CGannFan@@8 DD 00H					; CGannFan::`RTTI Class Hierarchy Descriptor'
	DD	00H
	DD	04H
	DD	FLAT:??_R2CGannFan@@8
rdata$r	ENDS
;	COMDAT ??_R0?AVCGannFan@@@8
data$rs	SEGMENT
??_R0?AVCGannFan@@@8 DD FLAT:??_7type_info@@6B@		; CGannFan `RTTI Type Descriptor'
	DD	00H
	DB	'.?AVCGannFan@@', 00H
data$rs	ENDS
;	COMDAT ??_R4CGannFan@@6B@
rdata$r	SEGMENT
??_R4CGannFan@@6B@ DD 00H				; CGannFan::`RTTI Complete Object Locator'
	DD	00H
	DD	00H
	DD	FLAT:??_R0?AVCGannFan@@@8
	DD	FLAT:??_R3CGannFan@@8
rdata$r	ENDS
;	COMDAT ??_R1A@?0A@EA@CGannLine@@8
rdata$r	SEGMENT
??_R1A@?0A@EA@CGannLine@@8 DD FLAT:??_R0?AVCGannLine@@@8 ; CGannLine::`RTTI Base Class Descriptor at (0,-1,0,64)'
	DD	03H
	DD	00H
	DD	0ffffffffH
	DD	00H
	DD	040H
	DD	FLAT:??_R3CGannLine@@8
rdata$r	ENDS
;	COMDAT ??_R2CGannLine@@8
rdata$r	SEGMENT
??_R2CGannLine@@8 DD FLAT:??_R1A@?0A@EA@CGannLine@@8	; CGannLine::`RTTI Base Class Array'
	DD	FLAT:??_R1A@?0A@EA@CGann@@8
	DD	FLAT:??_R1A@?0A@EA@CTwoPointElement@@8
	DD	FLAT:??_R1A@?0A@EA@CElement@@8
rdata$r	ENDS
;	COMDAT ??_R3CGannLine@@8
rdata$r	SEGMENT
??_R3CGannLine@@8 DD 00H				; CGannLine::`RTTI Class Hierarchy Descriptor'
	DD	00H
	DD	04H
	DD	FLAT:??_R2CGannLine@@8
rdata$r	ENDS
;	COMDAT ??_R0?AVCGannLine@@@8
data$rs	SEGMENT
??_R0?AVCGannLine@@@8 DD FLAT:??_7type_info@@6B@	; CGannLine `RTTI Type Descriptor'
	DD	00H
	DB	'.?AVCGannLine@@', 00H
data$rs	ENDS
;	COMDAT ??_R4CGannLine@@6B@
rdata$r	SEGMENT
??_R4CGannLine@@6B@ DD 00H				; CGannLine::`RTTI Complete Object Locator'
	DD	00H
	DD	00H
	DD	FLAT:??_R0?AVCGannLine@@@8
	DD	FLAT:??_R3CGannLine@@8
rdata$r	ENDS
;	COMDAT ??_R1A@?0A@EA@CGann@@8
rdata$r	SEGMENT
??_R1A@?0A@EA@CGann@@8 DD FLAT:??_R0?AVCGann@@@8	; CGann::`RTTI Base Class Descriptor at (0,-1,0,64)'
	DD	02H
	DD	00H
	DD	0ffffffffH
	DD	00H
	DD	040H
	DD	FLAT:??_R3CGann@@8
rdata$r	ENDS
;	COMDAT ??_R2CGann@@8
rdata$r	SEGMENT
??_R2CGann@@8 DD FLAT:??_R1A@?0A@EA@CGann@@8		; CGann::`RTTI Base Class Array'
	DD	FLAT:??_R1A@?0A@EA@CTwoPointElement@@8
	DD	FLAT:??_R1A@?0A@EA@CElement@@8
rdata$r	ENDS
;	COMDAT ??_R3CGann@@8
rdata$r	SEGMENT
??_R3CGann@@8 DD 00H					; CGann::`RTTI Class Hierarchy Descriptor'
	DD	00H
	DD	03H
	DD	FLAT:??_R2CGann@@8
rdata$r	ENDS
;	COMDAT ??_R0?AVCGann@@@8
data$rs	SEGMENT
??_R0?AVCGann@@@8 DD FLAT:??_7type_info@@6B@		; CGann `RTTI Type Descriptor'
	DD	00H
	DB	'.?AVCGann@@', 00H
data$rs	ENDS
;	COMDAT ??_R4CGann@@6B@
rdata$r	SEGMENT
??_R4CGann@@6B@ DD 00H					; CGann::`RTTI Complete Object Locator'
	DD	00H
	DD	00H
	DD	FLAT:??_R0?AVCGann@@@8
	DD	FLAT:??_R3CGann@@8
rdata$r	ENDS
;	COMDAT ??_R2COnePointElement@@8
rdata$r	SEGMENT
??_R2COnePointElement@@8 DD FLAT:??_R1A@?0A@EA@COnePointElement@@8 ; COnePointElement::`RTTI Base Class Array'
	DD	FLAT:??_R1A@?0A@EA@CElement@@8
rdata$r	ENDS
;	COMDAT ??_R3COnePointElement@@8
rdata$r	SEGMENT
??_R3COnePointElement@@8 DD 00H				; COnePointElement::`RTTI Class Hierarchy Descriptor'
	DD	00H
	DD	02H
	DD	FLAT:??_R2COnePointElement@@8
rdata$r	ENDS
;	COMDAT ??_R0?AVCOnePointElement@@@8
data$rs	SEGMENT
??_R0?AVCOnePointElement@@@8 DD FLAT:??_7type_info@@6B@	; COnePointElement `RTTI Type Descriptor'
	DD	00H
	DB	'.?AVCOnePointElement@@', 00H
data$rs	ENDS
;	COMDAT ??_R1A@?0A@EA@COnePointElement@@8
rdata$r	SEGMENT
??_R1A@?0A@EA@COnePointElement@@8 DD FLAT:??_R0?AVCOnePointElement@@@8 ; COnePointElement::`RTTI Base Class Descriptor at (0,-1,0,64)'
	DD	01H
	DD	00H
	DD	0ffffffffH
	DD	00H
	DD	040H
	DD	FLAT:??_R3COnePointElement@@8
rdata$r	ENDS
;	COMDAT ??_R2CVertElement@@8
rdata$r	SEGMENT
??_R2CVertElement@@8 DD FLAT:??_R1A@?0A@EA@CVertElement@@8 ; CVertElement::`RTTI Base Class Array'
	DD	FLAT:??_R1A@?0A@EA@COnePointElement@@8
	DD	FLAT:??_R1A@?0A@EA@CElement@@8
rdata$r	ENDS
;	COMDAT ??_R3CVertElement@@8
rdata$r	SEGMENT
??_R3CVertElement@@8 DD 00H				; CVertElement::`RTTI Class Hierarchy Descriptor'
	DD	00H
	DD	03H
	DD	FLAT:??_R2CVertElement@@8
rdata$r	ENDS
;	COMDAT ??_R0?AVCVertElement@@@8
data$rs	SEGMENT
??_R0?AVCVertElement@@@8 DD FLAT:??_7type_info@@6B@	; CVertElement `RTTI Type Descriptor'
	DD	00H
	DB	'.?AVCVertElement@@', 00H
data$rs	ENDS
;	COMDAT ??_R1A@?0A@EA@CVertElement@@8
rdata$r	SEGMENT
??_R1A@?0A@EA@CVertElement@@8 DD FLAT:??_R0?AVCVertElement@@@8 ; CVertElement::`RTTI Base Class Descriptor at (0,-1,0,64)'
	DD	02H
	DD	00H
	DD	0ffffffffH
	DD	00H
	DD	040H
	DD	FLAT:??_R3CVertElement@@8
rdata$r	ENDS
;	COMDAT ??_R1A@?0A@EA@CFiboTime@@8
rdata$r	SEGMENT
??_R1A@?0A@EA@CFiboTime@@8 DD FLAT:??_R0?AVCFiboTime@@@8 ; CFiboTime::`RTTI Base Class Descriptor at (0,-1,0,64)'
	DD	03H
	DD	00H
	DD	0ffffffffH
	DD	00H
	DD	040H
	DD	FLAT:??_R3CFiboTime@@8
rdata$r	ENDS
;	COMDAT ??_R2CFiboTime@@8
rdata$r	SEGMENT
??_R2CFiboTime@@8 DD FLAT:??_R1A@?0A@EA@CFiboTime@@8	; CFiboTime::`RTTI Base Class Array'
	DD	FLAT:??_R1A@?0A@EA@CVertElement@@8
	DD	FLAT:??_R1A@?0A@EA@COnePointElement@@8
	DD	FLAT:??_R1A@?0A@EA@CElement@@8
rdata$r	ENDS
;	COMDAT ??_R3CFiboTime@@8
rdata$r	SEGMENT
??_R3CFiboTime@@8 DD 00H				; CFiboTime::`RTTI Class Hierarchy Descriptor'
	DD	00H
	DD	04H
	DD	FLAT:??_R2CFiboTime@@8
rdata$r	ENDS
;	COMDAT ??_R0?AVCFiboTime@@@8
data$rs	SEGMENT
??_R0?AVCFiboTime@@@8 DD FLAT:??_7type_info@@6B@	; CFiboTime `RTTI Type Descriptor'
	DD	00H
	DB	'.?AVCFiboTime@@', 00H
data$rs	ENDS
;	COMDAT ??_R4CFiboTime@@6B@
rdata$r	SEGMENT
??_R4CFiboTime@@6B@ DD 00H				; CFiboTime::`RTTI Complete Object Locator'
	DD	00H
	DD	00H
	DD	FLAT:??_R0?AVCFiboTime@@@8
	DD	FLAT:??_R3CFiboTime@@8
rdata$r	ENDS
;	COMDAT ??_R1A@?0A@EA@CFiboRetrace@@8
rdata$r	SEGMENT
??_R1A@?0A@EA@CFiboRetrace@@8 DD FLAT:??_R0?AVCFiboRetrace@@@8 ; CFiboRetrace::`RTTI Base Class Descriptor at (0,-1,0,64)'
	DD	02H
	DD	00H
	DD	0ffffffffH
	DD	00H
	DD	040H
	DD	FLAT:??_R3CFiboRetrace@@8
rdata$r	ENDS
;	COMDAT ??_R2CFiboRetrace@@8
rdata$r	SEGMENT
??_R2CFiboRetrace@@8 DD FLAT:??_R1A@?0A@EA@CFiboRetrace@@8 ; CFiboRetrace::`RTTI Base Class Array'
	DD	FLAT:??_R1A@?0A@EA@CTwoPointElement@@8
	DD	FLAT:??_R1A@?0A@EA@CElement@@8
rdata$r	ENDS
;	COMDAT ??_R3CFiboRetrace@@8
rdata$r	SEGMENT
??_R3CFiboRetrace@@8 DD 00H				; CFiboRetrace::`RTTI Class Hierarchy Descriptor'
	DD	00H
	DD	03H
	DD	FLAT:??_R2CFiboRetrace@@8
rdata$r	ENDS
;	COMDAT ??_R0?AVCFiboRetrace@@@8
data$rs	SEGMENT
??_R0?AVCFiboRetrace@@@8 DD FLAT:??_7type_info@@6B@	; CFiboRetrace `RTTI Type Descriptor'
	DD	00H
	DB	'.?AVCFiboRetrace@@', 00H
data$rs	ENDS
;	COMDAT ??_R4CFiboRetrace@@6B@
rdata$r	SEGMENT
??_R4CFiboRetrace@@6B@ DD 00H				; CFiboRetrace::`RTTI Complete Object Locator'
	DD	00H
	DD	00H
	DD	FLAT:??_R0?AVCFiboRetrace@@@8
	DD	FLAT:??_R3CFiboRetrace@@8
rdata$r	ENDS
;	COMDAT ??_R1A@?0A@EA@CFiboPenLine@@8
rdata$r	SEGMENT
??_R1A@?0A@EA@CFiboPenLine@@8 DD FLAT:??_R0?AVCFiboPenLine@@@8 ; CFiboPenLine::`RTTI Base Class Descriptor at (0,-1,0,64)'
	DD	02H
	DD	00H
	DD	0ffffffffH
	DD	00H
	DD	040H
	DD	FLAT:??_R3CFiboPenLine@@8
rdata$r	ENDS
;	COMDAT ??_R2CFiboPenLine@@8
rdata$r	SEGMENT
??_R2CFiboPenLine@@8 DD FLAT:??_R1A@?0A@EA@CFiboPenLine@@8 ; CFiboPenLine::`RTTI Base Class Array'
	DD	FLAT:??_R1A@?0A@EA@CTwoPointElement@@8
	DD	FLAT:??_R1A@?0A@EA@CElement@@8
rdata$r	ENDS
;	COMDAT ??_R3CFiboPenLine@@8
rdata$r	SEGMENT
??_R3CFiboPenLine@@8 DD 00H				; CFiboPenLine::`RTTI Class Hierarchy Descriptor'
	DD	00H
	DD	03H
	DD	FLAT:??_R2CFiboPenLine@@8
rdata$r	ENDS
;	COMDAT ??_R0?AVCFiboPenLine@@@8
data$rs	SEGMENT
??_R0?AVCFiboPenLine@@@8 DD FLAT:??_7type_info@@6B@	; CFiboPenLine `RTTI Type Descriptor'
	DD	00H
	DB	'.?AVCFiboPenLine@@', 00H
data$rs	ENDS
;	COMDAT ??_R4CFiboPenLine@@6B@
rdata$r	SEGMENT
??_R4CFiboPenLine@@6B@ DD 00H				; CFiboPenLine::`RTTI Complete Object Locator'
	DD	00H
	DD	00H
	DD	FLAT:??_R0?AVCFiboPenLine@@@8
	DD	FLAT:??_R3CFiboPenLine@@8
rdata$r	ENDS
;	COMDAT ??_R1A@?0A@EA@CFiboCircle@@8
rdata$r	SEGMENT
??_R1A@?0A@EA@CFiboCircle@@8 DD FLAT:??_R0?AVCFiboCircle@@@8 ; CFiboCircle::`RTTI Base Class Descriptor at (0,-1,0,64)'
	DD	03H
	DD	00H
	DD	0ffffffffH
	DD	00H
	DD	040H
	DD	FLAT:??_R3CFiboCircle@@8
rdata$r	ENDS
;	COMDAT ??_R2CFiboCircle@@8
rdata$r	SEGMENT
??_R2CFiboCircle@@8 DD FLAT:??_R1A@?0A@EA@CFiboCircle@@8 ; CFiboCircle::`RTTI Base Class Array'
	DD	FLAT:??_R1A@?0A@EA@CFiboArc@@8
	DD	FLAT:??_R1A@?0A@EA@CTwoPointElement@@8
	DD	FLAT:??_R1A@?0A@EA@CElement@@8
rdata$r	ENDS
;	COMDAT ??_R3CFiboCircle@@8
rdata$r	SEGMENT
??_R3CFiboCircle@@8 DD 00H				; CFiboCircle::`RTTI Class Hierarchy Descriptor'
	DD	00H
	DD	04H
	DD	FLAT:??_R2CFiboCircle@@8
rdata$r	ENDS
;	COMDAT ??_R0?AVCFiboCircle@@@8
data$rs	SEGMENT
??_R0?AVCFiboCircle@@@8 DD FLAT:??_7type_info@@6B@	; CFiboCircle `RTTI Type Descriptor'
	DD	00H
	DB	'.?AVCFiboCircle@@', 00H
data$rs	ENDS
;	COMDAT ??_R4CFiboCircle@@6B@
rdata$r	SEGMENT
??_R4CFiboCircle@@6B@ DD 00H				; CFiboCircle::`RTTI Complete Object Locator'
	DD	00H
	DD	00H
	DD	FLAT:??_R0?AVCFiboCircle@@@8
	DD	FLAT:??_R3CFiboCircle@@8
rdata$r	ENDS
;	COMDAT ??_R1A@?0A@EA@CFiboSemicircle@@8
rdata$r	SEGMENT
??_R1A@?0A@EA@CFiboSemicircle@@8 DD FLAT:??_R0?AVCFiboSemicircle@@@8 ; CFiboSemicircle::`RTTI Base Class Descriptor at (0,-1,0,64)'
	DD	03H
	DD	00H
	DD	0ffffffffH
	DD	00H
	DD	040H
	DD	FLAT:??_R3CFiboSemicircle@@8
rdata$r	ENDS
;	COMDAT ??_R2CFiboSemicircle@@8
rdata$r	SEGMENT
??_R2CFiboSemicircle@@8 DD FLAT:??_R1A@?0A@EA@CFiboSemicircle@@8 ; CFiboSemicircle::`RTTI Base Class Array'
	DD	FLAT:??_R1A@?0A@EA@CFiboArc@@8
	DD	FLAT:??_R1A@?0A@EA@CTwoPointElement@@8
	DD	FLAT:??_R1A@?0A@EA@CElement@@8
rdata$r	ENDS
;	COMDAT ??_R3CFiboSemicircle@@8
rdata$r	SEGMENT
??_R3CFiboSemicircle@@8 DD 00H				; CFiboSemicircle::`RTTI Class Hierarchy Descriptor'
	DD	00H
	DD	04H
	DD	FLAT:??_R2CFiboSemicircle@@8
rdata$r	ENDS
;	COMDAT ??_R0?AVCFiboSemicircle@@@8
data$rs	SEGMENT
??_R0?AVCFiboSemicircle@@@8 DD FLAT:??_7type_info@@6B@	; CFiboSemicircle `RTTI Type Descriptor'
	DD	00H
	DB	'.?AVCFiboSemicircle@@', 00H
data$rs	ENDS
;	COMDAT ??_R4CFiboSemicircle@@6B@
rdata$r	SEGMENT
??_R4CFiboSemicircle@@6B@ DD 00H			; CFiboSemicircle::`RTTI Complete Object Locator'
	DD	00H
	DD	00H
	DD	FLAT:??_R0?AVCFiboSemicircle@@@8
	DD	FLAT:??_R3CFiboSemicircle@@8
rdata$r	ENDS
;	COMDAT ??_R2CTwoPointElement@@8
rdata$r	SEGMENT
??_R2CTwoPointElement@@8 DD FLAT:??_R1A@?0A@EA@CTwoPointElement@@8 ; CTwoPointElement::`RTTI Base Class Array'
	DD	FLAT:??_R1A@?0A@EA@CElement@@8
rdata$r	ENDS
;	COMDAT ??_R3CTwoPointElement@@8
rdata$r	SEGMENT
??_R3CTwoPointElement@@8 DD 00H				; CTwoPointElement::`RTTI Class Hierarchy Descriptor'
	DD	00H
	DD	02H
	DD	FLAT:??_R2CTwoPointElement@@8
rdata$r	ENDS
;	COMDAT ??_R0?AVCTwoPointElement@@@8
data$rs	SEGMENT
??_R0?AVCTwoPointElement@@@8 DD FLAT:??_7type_info@@6B@	; CTwoPointElement `RTTI Type Descriptor'
	DD	00H
	DB	'.?AVCTwoPointElement@@', 00H
data$rs	ENDS
;	COMDAT ??_R1A@?0A@EA@CTwoPointElement@@8
rdata$r	SEGMENT
??_R1A@?0A@EA@CTwoPointElement@@8 DD FLAT:??_R0?AVCTwoPointElement@@@8 ; CTwoPointElement::`RTTI Base Class Descriptor at (0,-1,0,64)'
	DD	01H
	DD	00H
	DD	0ffffffffH
	DD	00H
	DD	040H
	DD	FLAT:??_R3CTwoPointElement@@8
rdata$r	ENDS
;	COMDAT ??_R1A@?0A@EA@CFiboArc@@8
rdata$r	SEGMENT
??_R1A@?0A@EA@CFiboArc@@8 DD FLAT:??_R0?AVCFiboArc@@@8	; CFiboArc::`RTTI Base Class Descriptor at (0,-1,0,64)'
	DD	02H
	DD	00H
	DD	0ffffffffH
	DD	00H
	DD	040H
	DD	FLAT:??_R3CFiboArc@@8
rdata$r	ENDS
;	COMDAT ??_R2CFiboArc@@8
rdata$r	SEGMENT
??_R2CFiboArc@@8 DD FLAT:??_R1A@?0A@EA@CFiboArc@@8	; CFiboArc::`RTTI Base Class Array'
	DD	FLAT:??_R1A@?0A@EA@CTwoPointElement@@8
	DD	FLAT:??_R1A@?0A@EA@CElement@@8
rdata$r	ENDS
;	COMDAT ??_R3CFiboArc@@8
rdata$r	SEGMENT
??_R3CFiboArc@@8 DD 00H					; CFiboArc::`RTTI Class Hierarchy Descriptor'
	DD	00H
	DD	03H
	DD	FLAT:??_R2CFiboArc@@8
rdata$r	ENDS
;	COMDAT ??_R0?AVCFiboArc@@@8
data$rs	SEGMENT
??_R0?AVCFiboArc@@@8 DD FLAT:??_7type_info@@6B@		; CFiboArc `RTTI Type Descriptor'
	DD	00H
	DB	'.?AVCFiboArc@@', 00H
data$rs	ENDS
;	COMDAT ??_R4CFiboArc@@6B@
rdata$r	SEGMENT
??_R4CFiboArc@@6B@ DD 00H				; CFiboArc::`RTTI Complete Object Locator'
	DD	00H
	DD	00H
	DD	FLAT:??_R0?AVCFiboArc@@@8
	DD	FLAT:??_R3CFiboArc@@8
rdata$r	ENDS
;	COMDAT ??_R1A@?0A@EA@CGannGridDrawer@@8
rdata$r	SEGMENT
??_R1A@?0A@EA@CGannGridDrawer@@8 DD FLAT:??_R0?AVCGannGridDrawer@@@8 ; CGannGridDrawer::`RTTI Base Class Descriptor at (0,-1,0,64)'
	DD	03H
	DD	00H
	DD	0ffffffffH
	DD	00H
	DD	040H
	DD	FLAT:??_R3CGannGridDrawer@@8
rdata$r	ENDS
;	COMDAT ??_R2CGannGridDrawer@@8
rdata$r	SEGMENT
??_R2CGannGridDrawer@@8 DD FLAT:??_R1A@?0A@EA@CGannGridDrawer@@8 ; CGannGridDrawer::`RTTI Base Class Array'
	DD	FLAT:??_R1A@?0A@EA@CGannDrawer@@8
	DD	FLAT:??_R1A@?0A@EA@CTwoPointDrawer@@8
	DD	FLAT:??_R1A@33FA@CDrawer@@8
rdata$r	ENDS
;	COMDAT ??_R3CGannGridDrawer@@8
rdata$r	SEGMENT
??_R3CGannGridDrawer@@8 DD 00H				; CGannGridDrawer::`RTTI Class Hierarchy Descriptor'
	DD	00H
	DD	04H
	DD	FLAT:??_R2CGannGridDrawer@@8
rdata$r	ENDS
;	COMDAT ??_R0?AVCGannGridDrawer@@@8
data$rs	SEGMENT
??_R0?AVCGannGridDrawer@@@8 DD FLAT:??_7type_info@@6B@	; CGannGridDrawer `RTTI Type Descriptor'
	DD	00H
	DB	'.?AVCGannGridDrawer@@', 00H
data$rs	ENDS
;	COMDAT ??_R4CGannGridDrawer@@6B@
rdata$r	SEGMENT
??_R4CGannGridDrawer@@6B@ DD 00H			; CGannGridDrawer::`RTTI Complete Object Locator'
	DD	00H
	DD	00H
	DD	FLAT:??_R0?AVCGannGridDrawer@@@8
	DD	FLAT:??_R3CGannGridDrawer@@8
rdata$r	ENDS
;	COMDAT ??_R1A@?0A@EA@CGannFanDrawer@@8
rdata$r	SEGMENT
??_R1A@?0A@EA@CGannFanDrawer@@8 DD FLAT:??_R0?AVCGannFanDrawer@@@8 ; CGannFanDrawer::`RTTI Base Class Descriptor at (0,-1,0,64)'
	DD	04H
	DD	00H
	DD	0ffffffffH
	DD	00H
	DD	040H
	DD	FLAT:??_R3CGannFanDrawer@@8
rdata$r	ENDS
;	COMDAT ??_R2CGannFanDrawer@@8
rdata$r	SEGMENT
??_R2CGannFanDrawer@@8 DD FLAT:??_R1A@?0A@EA@CGannFanDrawer@@8 ; CGannFanDrawer::`RTTI Base Class Array'
	DD	FLAT:??_R1A@?0A@EA@CGannLineDrawer@@8
	DD	FLAT:??_R1A@?0A@EA@CGannDrawer@@8
	DD	FLAT:??_R1A@?0A@EA@CTwoPointDrawer@@8
	DD	FLAT:??_R1A@33FA@CDrawer@@8
rdata$r	ENDS
;	COMDAT ??_R3CGannFanDrawer@@8
rdata$r	SEGMENT
??_R3CGannFanDrawer@@8 DD 00H				; CGannFanDrawer::`RTTI Class Hierarchy Descriptor'
	DD	00H
	DD	05H
	DD	FLAT:??_R2CGannFanDrawer@@8
rdata$r	ENDS
;	COMDAT ??_R0?AVCGannFanDrawer@@@8
data$rs	SEGMENT
??_R0?AVCGannFanDrawer@@@8 DD FLAT:??_7type_info@@6B@	; CGannFanDrawer `RTTI Type Descriptor'
	DD	00H
	DB	'.?AVCGannFanDrawer@@', 00H
data$rs	ENDS
;	COMDAT ??_R4CGannFanDrawer@@6B@
rdata$r	SEGMENT
??_R4CGannFanDrawer@@6B@ DD 00H				; CGannFanDrawer::`RTTI Complete Object Locator'
	DD	00H
	DD	00H
	DD	FLAT:??_R0?AVCGannFanDrawer@@@8
	DD	FLAT:??_R3CGannFanDrawer@@8
rdata$r	ENDS
;	COMDAT ??_R1A@?0A@EA@CGannLineDrawer@@8
rdata$r	SEGMENT
??_R1A@?0A@EA@CGannLineDrawer@@8 DD FLAT:??_R0?AVCGannLineDrawer@@@8 ; CGannLineDrawer::`RTTI Base Class Descriptor at (0,-1,0,64)'
	DD	03H
	DD	00H
	DD	0ffffffffH
	DD	00H
	DD	040H
	DD	FLAT:??_R3CGannLineDrawer@@8
rdata$r	ENDS
;	COMDAT ??_R2CGannLineDrawer@@8
rdata$r	SEGMENT
??_R2CGannLineDrawer@@8 DD FLAT:??_R1A@?0A@EA@CGannLineDrawer@@8 ; CGannLineDrawer::`RTTI Base Class Array'
	DD	FLAT:??_R1A@?0A@EA@CGannDrawer@@8
	DD	FLAT:??_R1A@?0A@EA@CTwoPointDrawer@@8
	DD	FLAT:??_R1A@33FA@CDrawer@@8
rdata$r	ENDS
;	COMDAT ??_R3CGannLineDrawer@@8
rdata$r	SEGMENT
??_R3CGannLineDrawer@@8 DD 00H				; CGannLineDrawer::`RTTI Class Hierarchy Descriptor'
	DD	00H
	DD	04H
	DD	FLAT:??_R2CGannLineDrawer@@8
rdata$r	ENDS
;	COMDAT ??_R0?AVCGannLineDrawer@@@8
data$rs	SEGMENT
??_R0?AVCGannLineDrawer@@@8 DD FLAT:??_7type_info@@6B@	; CGannLineDrawer `RTTI Type Descriptor'
	DD	00H
	DB	'.?AVCGannLineDrawer@@', 00H
data$rs	ENDS
;	COMDAT ??_R4CGannLineDrawer@@6B@
rdata$r	SEGMENT
??_R4CGannLineDrawer@@6B@ DD 00H			; CGannLineDrawer::`RTTI Complete Object Locator'
	DD	00H
	DD	00H
	DD	FLAT:??_R0?AVCGannLineDrawer@@@8
	DD	FLAT:??_R3CGannLineDrawer@@8
rdata$r	ENDS
;	COMDAT ??_R1A@?0A@EA@CGannDrawer@@8
rdata$r	SEGMENT
??_R1A@?0A@EA@CGannDrawer@@8 DD FLAT:??_R0?AVCGannDrawer@@@8 ; CGannDrawer::`RTTI Base Class Descriptor at (0,-1,0,64)'
	DD	02H
	DD	00H
	DD	0ffffffffH
	DD	00H
	DD	040H
	DD	FLAT:??_R3CGannDrawer@@8
rdata$r	ENDS
;	COMDAT ??_R2CGannDrawer@@8
rdata$r	SEGMENT
??_R2CGannDrawer@@8 DD FLAT:??_R1A@?0A@EA@CGannDrawer@@8 ; CGannDrawer::`RTTI Base Class Array'
	DD	FLAT:??_R1A@?0A@EA@CTwoPointDrawer@@8
	DD	FLAT:??_R1A@33FA@CDrawer@@8
rdata$r	ENDS
;	COMDAT ??_R3CGannDrawer@@8
rdata$r	SEGMENT
??_R3CGannDrawer@@8 DD 00H				; CGannDrawer::`RTTI Class Hierarchy Descriptor'
	DD	00H
	DD	03H
	DD	FLAT:??_R2CGannDrawer@@8
rdata$r	ENDS
;	COMDAT ??_R0?AVCGannDrawer@@@8
data$rs	SEGMENT
??_R0?AVCGannDrawer@@@8 DD FLAT:??_7type_info@@6B@	; CGannDrawer `RTTI Type Descriptor'
	DD	00H
	DB	'.?AVCGannDrawer@@', 00H
data$rs	ENDS
;	COMDAT ??_R4CGannDrawer@@6B@
rdata$r	SEGMENT
??_R4CGannDrawer@@6B@ DD 00H				; CGannDrawer::`RTTI Complete Object Locator'
	DD	00H
	DD	00H
	DD	FLAT:??_R0?AVCGannDrawer@@@8
	DD	FLAT:??_R3CGannDrawer@@8
rdata$r	ENDS
;	COMDAT ??_R1A@A@3FA@CDrawer@@8
rdata$r	SEGMENT
??_R1A@A@3FA@CDrawer@@8 DD FLAT:??_R0?AVCDrawer@@@8	; CDrawer::`RTTI Base Class Descriptor at (0,0,4,80)'
	DD	00H
	DD	00H
	DD	00H
	DD	04H
	DD	050H
	DD	FLAT:??_R3CDrawer@@8
rdata$r	ENDS
;	COMDAT ??_R1A@A@7FA@COnePointDrawer@@8
rdata$r	SEGMENT
??_R1A@A@7FA@COnePointDrawer@@8 DD FLAT:??_R0?AVCOnePointDrawer@@@8 ; COnePointDrawer::`RTTI Base Class Descriptor at (0,0,8,80)'
	DD	01H
	DD	00H
	DD	00H
	DD	08H
	DD	050H
	DD	FLAT:??_R3COnePointDrawer@@8
rdata$r	ENDS
;	COMDAT ??_R2CVertLineDrawer@@8
rdata$r	SEGMENT
??_R2CVertLineDrawer@@8 DD FLAT:??_R1A@?0A@EA@CVertLineDrawer@@8 ; CVertLineDrawer::`RTTI Base Class Array'
	DD	FLAT:??_R1A@A@7FA@COnePointDrawer@@8
	DD	FLAT:??_R1A@A@3FA@CDrawer@@8
rdata$r	ENDS
;	COMDAT ??_R3CVertLineDrawer@@8
rdata$r	SEGMENT
??_R3CVertLineDrawer@@8 DD 00H				; CVertLineDrawer::`RTTI Class Hierarchy Descriptor'
	DD	00H
	DD	03H
	DD	FLAT:??_R2CVertLineDrawer@@8
rdata$r	ENDS
;	COMDAT ??_R0?AVCVertLineDrawer@@@8
data$rs	SEGMENT
??_R0?AVCVertLineDrawer@@@8 DD FLAT:??_7type_info@@6B@	; CVertLineDrawer `RTTI Type Descriptor'
	DD	00H
	DB	'.?AVCVertLineDrawer@@', 00H
data$rs	ENDS
;	COMDAT ??_R1A@?0A@EA@CVertLineDrawer@@8
rdata$r	SEGMENT
??_R1A@?0A@EA@CVertLineDrawer@@8 DD FLAT:??_R0?AVCVertLineDrawer@@@8 ; CVertLineDrawer::`RTTI Base Class Descriptor at (0,-1,0,64)'
	DD	02H
	DD	00H
	DD	0ffffffffH
	DD	00H
	DD	040H
	DD	FLAT:??_R3CVertLineDrawer@@8
rdata$r	ENDS
;	COMDAT ??_R1A@?0A@EA@CFiboTimeDrawer@@8
rdata$r	SEGMENT
??_R1A@?0A@EA@CFiboTimeDrawer@@8 DD FLAT:??_R0?AVCFiboTimeDrawer@@@8 ; CFiboTimeDrawer::`RTTI Base Class Descriptor at (0,-1,0,64)'
	DD	03H
	DD	00H
	DD	0ffffffffH
	DD	00H
	DD	040H
	DD	FLAT:??_R3CFiboTimeDrawer@@8
rdata$r	ENDS
;	COMDAT ??_R2CFiboTimeDrawer@@8
rdata$r	SEGMENT
??_R2CFiboTimeDrawer@@8 DD FLAT:??_R1A@?0A@EA@CFiboTimeDrawer@@8 ; CFiboTimeDrawer::`RTTI Base Class Array'
	DD	FLAT:??_R1A@?0A@EA@CVertLineDrawer@@8
	DD	FLAT:??_R1A@A@7FA@COnePointDrawer@@8
	DD	FLAT:??_R1A@A@3FA@CDrawer@@8
rdata$r	ENDS
;	COMDAT ??_R3CFiboTimeDrawer@@8
rdata$r	SEGMENT
??_R3CFiboTimeDrawer@@8 DD 00H				; CFiboTimeDrawer::`RTTI Class Hierarchy Descriptor'
	DD	00H
	DD	04H
	DD	FLAT:??_R2CFiboTimeDrawer@@8
rdata$r	ENDS
;	COMDAT ??_R0?AVCFiboTimeDrawer@@@8
data$rs	SEGMENT
??_R0?AVCFiboTimeDrawer@@@8 DD FLAT:??_7type_info@@6B@	; CFiboTimeDrawer `RTTI Type Descriptor'
	DD	00H
	DB	'.?AVCFiboTimeDrawer@@', 00H
data$rs	ENDS
;	COMDAT ??_R4CFiboTimeDrawer@@6B@
rdata$r	SEGMENT
??_R4CFiboTimeDrawer@@6B@ DD 00H			; CFiboTimeDrawer::`RTTI Complete Object Locator'
	DD	03cH
	DD	04H
	DD	FLAT:??_R0?AVCFiboTimeDrawer@@@8
	DD	FLAT:??_R3CFiboTimeDrawer@@8
rdata$r	ENDS
;	COMDAT ??_R1A@?0A@EA@CFiboRetraceDrawer@@8
rdata$r	SEGMENT
??_R1A@?0A@EA@CFiboRetraceDrawer@@8 DD FLAT:??_R0?AVCFiboRetraceDrawer@@@8 ; CFiboRetraceDrawer::`RTTI Base Class Descriptor at (0,-1,0,64)'
	DD	03H
	DD	00H
	DD	0ffffffffH
	DD	00H
	DD	040H
	DD	FLAT:??_R3CFiboRetraceDrawer@@8
rdata$r	ENDS
;	COMDAT ??_R2CFiboRetraceDrawer@@8
rdata$r	SEGMENT
??_R2CFiboRetraceDrawer@@8 DD FLAT:??_R1A@?0A@EA@CFiboRetraceDrawer@@8 ; CFiboRetraceDrawer::`RTTI Base Class Array'
	DD	FLAT:??_R1A@?0A@EA@CFiboDrawer@@8
	DD	FLAT:??_R1A@?0A@EA@CTwoPointDrawer@@8
	DD	FLAT:??_R1A@33FA@CDrawer@@8
rdata$r	ENDS
;	COMDAT ??_R3CFiboRetraceDrawer@@8
rdata$r	SEGMENT
??_R3CFiboRetraceDrawer@@8 DD 00H			; CFiboRetraceDrawer::`RTTI Class Hierarchy Descriptor'
	DD	00H
	DD	04H
	DD	FLAT:??_R2CFiboRetraceDrawer@@8
rdata$r	ENDS
;	COMDAT ??_R0?AVCFiboRetraceDrawer@@@8
data$rs	SEGMENT
??_R0?AVCFiboRetraceDrawer@@@8 DD FLAT:??_7type_info@@6B@ ; CFiboRetraceDrawer `RTTI Type Descriptor'
	DD	00H
	DB	'.?AVCFiboRetraceDrawer@@', 00H
data$rs	ENDS
;	COMDAT ??_R4CFiboRetraceDrawer@@6B@
rdata$r	SEGMENT
??_R4CFiboRetraceDrawer@@6B@ DD 00H			; CFiboRetraceDrawer::`RTTI Complete Object Locator'
	DD	00H
	DD	00H
	DD	FLAT:??_R0?AVCFiboRetraceDrawer@@@8
	DD	FLAT:??_R3CFiboRetraceDrawer@@8
rdata$r	ENDS
;	COMDAT ??_R1A@?0A@EA@CFiboPenLineDrawer@@8
rdata$r	SEGMENT
??_R1A@?0A@EA@CFiboPenLineDrawer@@8 DD FLAT:??_R0?AVCFiboPenLineDrawer@@@8 ; CFiboPenLineDrawer::`RTTI Base Class Descriptor at (0,-1,0,64)'
	DD	03H
	DD	00H
	DD	0ffffffffH
	DD	00H
	DD	040H
	DD	FLAT:??_R3CFiboPenLineDrawer@@8
rdata$r	ENDS
;	COMDAT ??_R2CFiboPenLineDrawer@@8
rdata$r	SEGMENT
??_R2CFiboPenLineDrawer@@8 DD FLAT:??_R1A@?0A@EA@CFiboPenLineDrawer@@8 ; CFiboPenLineDrawer::`RTTI Base Class Array'
	DD	FLAT:??_R1A@?0A@EA@CFiboDrawer@@8
	DD	FLAT:??_R1A@?0A@EA@CTwoPointDrawer@@8
	DD	FLAT:??_R1A@33FA@CDrawer@@8
rdata$r	ENDS
;	COMDAT ??_R3CFiboPenLineDrawer@@8
rdata$r	SEGMENT
??_R3CFiboPenLineDrawer@@8 DD 00H			; CFiboPenLineDrawer::`RTTI Class Hierarchy Descriptor'
	DD	00H
	DD	04H
	DD	FLAT:??_R2CFiboPenLineDrawer@@8
rdata$r	ENDS
;	COMDAT ??_R0?AVCFiboPenLineDrawer@@@8
data$rs	SEGMENT
??_R0?AVCFiboPenLineDrawer@@@8 DD FLAT:??_7type_info@@6B@ ; CFiboPenLineDrawer `RTTI Type Descriptor'
	DD	00H
	DB	'.?AVCFiboPenLineDrawer@@', 00H
data$rs	ENDS
;	COMDAT ??_R4CFiboPenLineDrawer@@6B@
rdata$r	SEGMENT
??_R4CFiboPenLineDrawer@@6B@ DD 00H			; CFiboPenLineDrawer::`RTTI Complete Object Locator'
	DD	00H
	DD	00H
	DD	FLAT:??_R0?AVCFiboPenLineDrawer@@@8
	DD	FLAT:??_R3CFiboPenLineDrawer@@8
rdata$r	ENDS
;	COMDAT ??_R1A@?0A@EA@CFiboCircleDrawer@@8
rdata$r	SEGMENT
??_R1A@?0A@EA@CFiboCircleDrawer@@8 DD FLAT:??_R0?AVCFiboCircleDrawer@@@8 ; CFiboCircleDrawer::`RTTI Base Class Descriptor at (0,-1,0,64)'
	DD	04H
	DD	00H
	DD	0ffffffffH
	DD	00H
	DD	040H
	DD	FLAT:??_R3CFiboCircleDrawer@@8
rdata$r	ENDS
;	COMDAT ??_R2CFiboCircleDrawer@@8
rdata$r	SEGMENT
??_R2CFiboCircleDrawer@@8 DD FLAT:??_R1A@?0A@EA@CFiboCircleDrawer@@8 ; CFiboCircleDrawer::`RTTI Base Class Array'
	DD	FLAT:??_R1A@?0A@EA@CFiboArcDrawer@@8
	DD	FLAT:??_R1A@?0A@EA@CFiboDrawer@@8
	DD	FLAT:??_R1A@?0A@EA@CTwoPointDrawer@@8
	DD	FLAT:??_R1A@33FA@CDrawer@@8
rdata$r	ENDS
;	COMDAT ??_R3CFiboCircleDrawer@@8
rdata$r	SEGMENT
??_R3CFiboCircleDrawer@@8 DD 00H			; CFiboCircleDrawer::`RTTI Class Hierarchy Descriptor'
	DD	00H
	DD	05H
	DD	FLAT:??_R2CFiboCircleDrawer@@8
rdata$r	ENDS
;	COMDAT ??_R0?AVCFiboCircleDrawer@@@8
data$rs	SEGMENT
??_R0?AVCFiboCircleDrawer@@@8 DD FLAT:??_7type_info@@6B@ ; CFiboCircleDrawer `RTTI Type Descriptor'
	DD	00H
	DB	'.?AVCFiboCircleDrawer@@', 00H
data$rs	ENDS
;	COMDAT ??_R4CFiboCircleDrawer@@6B@
rdata$r	SEGMENT
??_R4CFiboCircleDrawer@@6B@ DD 00H			; CFiboCircleDrawer::`RTTI Complete Object Locator'
	DD	00H
	DD	00H
	DD	FLAT:??_R0?AVCFiboCircleDrawer@@@8
	DD	FLAT:??_R3CFiboCircleDrawer@@8
rdata$r	ENDS
;	COMDAT ??_R1A@?0A@EA@CFiboSemicircleDrawer@@8
rdata$r	SEGMENT
??_R1A@?0A@EA@CFiboSemicircleDrawer@@8 DD FLAT:??_R0?AVCFiboSemicircleDrawer@@@8 ; CFiboSemicircleDrawer::`RTTI Base Class Descriptor at (0,-1,0,64)'
	DD	04H
	DD	00H
	DD	0ffffffffH
	DD	00H
	DD	040H
	DD	FLAT:??_R3CFiboSemicircleDrawer@@8
rdata$r	ENDS
;	COMDAT ??_R2CFiboSemicircleDrawer@@8
rdata$r	SEGMENT
??_R2CFiboSemicircleDrawer@@8 DD FLAT:??_R1A@?0A@EA@CFiboSemicircleDrawer@@8 ; CFiboSemicircleDrawer::`RTTI Base Class Array'
	DD	FLAT:??_R1A@?0A@EA@CFiboArcDrawer@@8
	DD	FLAT:??_R1A@?0A@EA@CFiboDrawer@@8
	DD	FLAT:??_R1A@?0A@EA@CTwoPointDrawer@@8
	DD	FLAT:??_R1A@33FA@CDrawer@@8
rdata$r	ENDS
;	COMDAT ??_R3CFiboSemicircleDrawer@@8
rdata$r	SEGMENT
??_R3CFiboSemicircleDrawer@@8 DD 00H			; CFiboSemicircleDrawer::`RTTI Class Hierarchy Descriptor'
	DD	00H
	DD	05H
	DD	FLAT:??_R2CFiboSemicircleDrawer@@8
rdata$r	ENDS
;	COMDAT ??_R0?AVCFiboSemicircleDrawer@@@8
data$rs	SEGMENT
??_R0?AVCFiboSemicircleDrawer@@@8 DD FLAT:??_7type_info@@6B@ ; CFiboSemicircleDrawer `RTTI Type Descriptor'
	DD	00H
	DB	'.?AVCFiboSemicircleDrawer@@', 00H
data$rs	ENDS
;	COMDAT ??_R4CFiboSemicircleDrawer@@6B@
rdata$r	SEGMENT
??_R4CFiboSemicircleDrawer@@6B@ DD 00H			; CFiboSemicircleDrawer::`RTTI Complete Object Locator'
	DD	00H
	DD	00H
	DD	FLAT:??_R0?AVCFiboSemicircleDrawer@@@8
	DD	FLAT:??_R3CFiboSemicircleDrawer@@8
rdata$r	ENDS
;	COMDAT ??_R1A@?0A@EA@CFiboArcDrawer@@8
rdata$r	SEGMENT
??_R1A@?0A@EA@CFiboArcDrawer@@8 DD FLAT:??_R0?AVCFiboArcDrawer@@@8 ; CFiboArcDrawer::`RTTI Base Class Descriptor at (0,-1,0,64)'
	DD	03H
	DD	00H
	DD	0ffffffffH
	DD	00H
	DD	040H
	DD	FLAT:??_R3CFiboArcDrawer@@8
rdata$r	ENDS
;	COMDAT ??_R2CFiboArcDrawer@@8
rdata$r	SEGMENT
??_R2CFiboArcDrawer@@8 DD FLAT:??_R1A@?0A@EA@CFiboArcDrawer@@8 ; CFiboArcDrawer::`RTTI Base Class Array'
	DD	FLAT:??_R1A@?0A@EA@CFiboDrawer@@8
	DD	FLAT:??_R1A@?0A@EA@CTwoPointDrawer@@8
	DD	FLAT:??_R1A@33FA@CDrawer@@8
rdata$r	ENDS
;	COMDAT ??_R3CFiboArcDrawer@@8
rdata$r	SEGMENT
??_R3CFiboArcDrawer@@8 DD 00H				; CFiboArcDrawer::`RTTI Class Hierarchy Descriptor'
	DD	00H
	DD	04H
	DD	FLAT:??_R2CFiboArcDrawer@@8
rdata$r	ENDS
;	COMDAT ??_R0?AVCFiboArcDrawer@@@8
data$rs	SEGMENT
??_R0?AVCFiboArcDrawer@@@8 DD FLAT:??_7type_info@@6B@	; CFiboArcDrawer `RTTI Type Descriptor'
	DD	00H
	DB	'.?AVCFiboArcDrawer@@', 00H
data$rs	ENDS
;	COMDAT ??_R4CFiboArcDrawer@@6B@
rdata$r	SEGMENT
??_R4CFiboArcDrawer@@6B@ DD 00H				; CFiboArcDrawer::`RTTI Complete Object Locator'
	DD	00H
	DD	00H
	DD	FLAT:??_R0?AVCFiboArcDrawer@@@8
	DD	FLAT:??_R3CFiboArcDrawer@@8
rdata$r	ENDS
;	COMDAT ??_R1A@?0A@EA@CFiboDrawer@@8
rdata$r	SEGMENT
??_R1A@?0A@EA@CFiboDrawer@@8 DD FLAT:??_R0?AVCFiboDrawer@@@8 ; CFiboDrawer::`RTTI Base Class Descriptor at (0,-1,0,64)'
	DD	02H
	DD	00H
	DD	0ffffffffH
	DD	00H
	DD	040H
	DD	FLAT:??_R3CFiboDrawer@@8
rdata$r	ENDS
;	COMDAT ??_R2CFiboDrawer@@8
rdata$r	SEGMENT
??_R2CFiboDrawer@@8 DD FLAT:??_R1A@?0A@EA@CFiboDrawer@@8 ; CFiboDrawer::`RTTI Base Class Array'
	DD	FLAT:??_R1A@?0A@EA@CTwoPointDrawer@@8
	DD	FLAT:??_R1A@33FA@CDrawer@@8
rdata$r	ENDS
;	COMDAT ??_R3CFiboDrawer@@8
rdata$r	SEGMENT
??_R3CFiboDrawer@@8 DD 00H				; CFiboDrawer::`RTTI Class Hierarchy Descriptor'
	DD	00H
	DD	03H
	DD	FLAT:??_R2CFiboDrawer@@8
rdata$r	ENDS
;	COMDAT ??_R0?AVCFiboDrawer@@@8
data$rs	SEGMENT
??_R0?AVCFiboDrawer@@@8 DD FLAT:??_7type_info@@6B@	; CFiboDrawer `RTTI Type Descriptor'
	DD	00H
	DB	'.?AVCFiboDrawer@@', 00H
data$rs	ENDS
;	COMDAT ??_R4CFiboDrawer@@6B@
rdata$r	SEGMENT
??_R4CFiboDrawer@@6B@ DD 00H				; CFiboDrawer::`RTTI Complete Object Locator'
	DD	00H
	DD	00H
	DD	FLAT:??_R0?AVCFiboDrawer@@@8
	DD	FLAT:??_R3CFiboDrawer@@8
rdata$r	ENDS
;	COMDAT ??_R1A@?0A@EA@CTwoPointDrawer@@8
rdata$r	SEGMENT
??_R1A@?0A@EA@CTwoPointDrawer@@8 DD FLAT:??_R0?AVCTwoPointDrawer@@@8 ; CTwoPointDrawer::`RTTI Base Class Descriptor at (0,-1,0,64)'
	DD	01H
	DD	00H
	DD	0ffffffffH
	DD	00H
	DD	040H
	DD	FLAT:??_R3CTwoPointDrawer@@8
rdata$r	ENDS
;	COMDAT ??_R2CTwoPointDrawer@@8
rdata$r	SEGMENT
??_R2CTwoPointDrawer@@8 DD FLAT:??_R1A@?0A@EA@CTwoPointDrawer@@8 ; CTwoPointDrawer::`RTTI Base Class Array'
	DD	FLAT:??_R1A@33FA@CDrawer@@8
rdata$r	ENDS
;	COMDAT ??_R3CTwoPointDrawer@@8
rdata$r	SEGMENT
??_R3CTwoPointDrawer@@8 DD 00H				; CTwoPointDrawer::`RTTI Class Hierarchy Descriptor'
	DD	00H
	DD	02H
	DD	FLAT:??_R2CTwoPointDrawer@@8
rdata$r	ENDS
;	COMDAT ??_R0?AVCTwoPointDrawer@@@8
data$rs	SEGMENT
??_R0?AVCTwoPointDrawer@@@8 DD FLAT:??_7type_info@@6B@	; CTwoPointDrawer `RTTI Type Descriptor'
	DD	00H
	DB	'.?AVCTwoPointDrawer@@', 00H
data$rs	ENDS
;	COMDAT ??_R4CTwoPointDrawer@@6B@
rdata$r	SEGMENT
??_R4CTwoPointDrawer@@6B@ DD 00H			; CTwoPointDrawer::`RTTI Complete Object Locator'
	DD	00H
	DD	00H
	DD	FLAT:??_R0?AVCTwoPointDrawer@@@8
	DD	FLAT:??_R3CTwoPointDrawer@@8
rdata$r	ENDS
;	COMDAT ??_R1A@?0A@EA@CDrawer@@8
rdata$r	SEGMENT
??_R1A@?0A@EA@CDrawer@@8 DD FLAT:??_R0?AVCDrawer@@@8	; CDrawer::`RTTI Base Class Descriptor at (0,-1,0,64)'
	DD	00H
	DD	00H
	DD	0ffffffffH
	DD	00H
	DD	040H
	DD	FLAT:??_R3CDrawer@@8
rdata$r	ENDS
;	COMDAT ??_R2CDrawer@@8
rdata$r	SEGMENT
??_R2CDrawer@@8 DD FLAT:??_R1A@?0A@EA@CDrawer@@8	; CDrawer::`RTTI Base Class Array'
rdata$r	ENDS
;	COMDAT ??_R3CDrawer@@8
rdata$r	SEGMENT
??_R3CDrawer@@8 DD 00H					; CDrawer::`RTTI Class Hierarchy Descriptor'
	DD	00H
	DD	01H
	DD	FLAT:??_R2CDrawer@@8
rdata$r	ENDS
;	COMDAT ??_R0?AVCDrawer@@@8
data$rs	SEGMENT
??_R0?AVCDrawer@@@8 DD FLAT:??_7type_info@@6B@		; CDrawer `RTTI Type Descriptor'
	DD	00H
	DB	'.?AVCDrawer@@', 00H
data$rs	ENDS
;	COMDAT ??_R1A@33FA@CDrawer@@8
rdata$r	SEGMENT
??_R1A@33FA@CDrawer@@8 DD FLAT:??_R0?AVCDrawer@@@8	; CDrawer::`RTTI Base Class Descriptor at (0,4,4,80)'
	DD	00H
	DD	00H
	DD	04H
	DD	04H
	DD	050H
	DD	FLAT:??_R3CDrawer@@8
rdata$r	ENDS
;	COMDAT ??_R1A@?0A@EA@COnePointDrawer@@8
rdata$r	SEGMENT
??_R1A@?0A@EA@COnePointDrawer@@8 DD FLAT:??_R0?AVCOnePointDrawer@@@8 ; COnePointDrawer::`RTTI Base Class Descriptor at (0,-1,0,64)'
	DD	01H
	DD	00H
	DD	0ffffffffH
	DD	00H
	DD	040H
	DD	FLAT:??_R3COnePointDrawer@@8
rdata$r	ENDS
;	COMDAT ??_R2COnePointDrawer@@8
rdata$r	SEGMENT
??_R2COnePointDrawer@@8 DD FLAT:??_R1A@?0A@EA@COnePointDrawer@@8 ; COnePointDrawer::`RTTI Base Class Array'
	DD	FLAT:??_R1A@33FA@CDrawer@@8
rdata$r	ENDS
;	COMDAT ??_R3COnePointDrawer@@8
rdata$r	SEGMENT
??_R3COnePointDrawer@@8 DD 00H				; COnePointDrawer::`RTTI Class Hierarchy Descriptor'
	DD	00H
	DD	02H
	DD	FLAT:??_R2COnePointDrawer@@8
rdata$r	ENDS
;	COMDAT ??_R0?AVCOnePointDrawer@@@8
data$rs	SEGMENT
??_R0?AVCOnePointDrawer@@@8 DD FLAT:??_7type_info@@6B@	; COnePointDrawer `RTTI Type Descriptor'
	DD	00H
	DB	'.?AVCOnePointDrawer@@', 00H
data$rs	ENDS
;	COMDAT ??_R4COnePointDrawer@@6B@
rdata$r	SEGMENT
??_R4COnePointDrawer@@6B@ DD 00H			; COnePointDrawer::`RTTI Complete Object Locator'
	DD	00H
	DD	00H
	DD	FLAT:??_R0?AVCOnePointDrawer@@@8
	DD	FLAT:??_R3COnePointDrawer@@8
rdata$r	ENDS
;	COMDAT ??_R1A@?0A@EA@CElement@@8
rdata$r	SEGMENT
??_R1A@?0A@EA@CElement@@8 DD FLAT:??_R0?AVCElement@@@8	; CElement::`RTTI Base Class Descriptor at (0,-1,0,64)'
	DD	00H
	DD	00H
	DD	0ffffffffH
	DD	00H
	DD	040H
	DD	FLAT:??_R3CElement@@8
rdata$r	ENDS
;	COMDAT ??_R2CElement@@8
rdata$r	SEGMENT
??_R2CElement@@8 DD FLAT:??_R1A@?0A@EA@CElement@@8	; CElement::`RTTI Base Class Array'
rdata$r	ENDS
;	COMDAT ??_R3CElement@@8
rdata$r	SEGMENT
??_R3CElement@@8 DD 00H					; CElement::`RTTI Class Hierarchy Descriptor'
	DD	00H
	DD	01H
	DD	FLAT:??_R2CElement@@8
rdata$r	ENDS
;	COMDAT ??_R0?AVCElement@@@8
data$rs	SEGMENT
??_R0?AVCElement@@@8 DD FLAT:??_7type_info@@6B@		; CElement `RTTI Type Descriptor'
	DD	00H
	DB	'.?AVCElement@@', 00H
data$rs	ENDS
;	COMDAT ??_R4CElement@@6B@
rdata$r	SEGMENT
??_R4CElement@@6B@ DD 00H				; CElement::`RTTI Complete Object Locator'
	DD	00H
	DD	00H
	DD	FLAT:??_R0?AVCElement@@@8
	DD	FLAT:??_R3CElement@@8
rdata$r	ENDS
;	COMDAT ??_7CGannGrid@@6B@
CONST	SEGMENT
??_7CGannGrid@@6B@ DD FLAT:??_R4CGannGrid@@6B@		; CGannGrid::`vftable'
	DD	FLAT:??_ECGannGrid@@UAEPAXI@Z
	DD	FLAT:?GetElementType@CGannGrid@@UBE?AW4ElementType@CToolEnumData@@XZ
	DD	FLAT:?GetPoints@CTwoPointElement@@UAEXAAVCElementPointList@@@Z
	DD	FLAT:?GetTextPosition@CElement@@UAEPAVCTextPosition@@XZ
	DD	FLAT:?GetTextPosition@CElement@@UBEPBVCTextPosition@@XZ
	DD	FLAT:?GetModifyType@CTwoPointElement@@UBE?AW4ModifyType@CToolEnumData@@PAVCExtractingDataOfModifyType@@@Z
	DD	FLAT:?GetCoordinate@CTwoPointElement@@UBE?AVCCoordinate@@W4ModifyType@CToolEnumData@@@Z
	DD	FLAT:?ElementModify@CTwoPointElement@@UAEXABVCElementModifyData@@@Z
	DD	FLAT:?ElementModify_YValue@CTwoPointElement@@UAEXABVCElementModifyData@@@Z
	DD	FLAT:?ElementModify_Coordinate@CTwoPointElement@@UAEXABVCCoordinate@@W4ModifyType@CToolEnumData@@@Z
	DD	FLAT:?Draw@CElement@@UAEXPAVCDC@@ABVCDrawingRegions@@ABVCCoordinateCalculatorData@@@Z
	DD	FLAT:?DrawShadowAndGrip@CTwoPointElement@@UAEXPAVCDC@@ABVCDrawingRegions@@ABVCCoordinateCalculatorData@@@Z
	DD	FLAT:?DrawSelected@CTwoPointElement@@UAEXPAVCDC@@ABVCSelectedElementDrawingData@@@Z
	DD	FLAT:?GetSavedPoints@CTwoPointElement@@MBE?AV?$CStringT@DV?$StrTraitMFC_DLL@DV?$ChTraitsCRT@D@ATL@@@@@ATL@@XZ
	DD	FLAT:?RealDraw@CTwoPointElement@@MAEXPAVCDC@@ABVCDrawingRegions@@ABVCCoordinateCalculatorData@@@Z
	DD	FLAT:?GetModifyType@CTwoPointElement@@MBE?AW4ModifyType@CToolEnumData@@ABVCDisplayData@@ABVCPoint@@11@Z
	DD	FLAT:?GetModifyType@CGannGrid@@MBE?AW4ModifyType@CToolEnumData@@ABVCRect@@ABVCPoint@@11@Z
	DD	FLAT:?GetTwoPointDrawer@CGannGrid@@MAEAAVCTwoPointDrawer@@XZ
	DD	FLAT:?ElementInRegion@CGannGrid@@MBE_NABVCRect@@ABVCPoint@@11@Z
CONST	ENDS
;	COMDAT ??_7CGannFan@@6B@
CONST	SEGMENT
??_7CGannFan@@6B@ DD FLAT:??_R4CGannFan@@6B@		; CGannFan::`vftable'
	DD	FLAT:??_ECGannFan@@UAEPAXI@Z
	DD	FLAT:?GetElementType@CGannFan@@UBE?AW4ElementType@CToolEnumData@@XZ
	DD	FLAT:?GetPoints@CTwoPointElement@@UAEXAAVCElementPointList@@@Z
	DD	FLAT:?GetTextPosition@CGannFan@@MAEPAVCTextPosition@@XZ
	DD	FLAT:?GetTextPosition@CGannFan@@MBEPBVCTextPosition@@XZ
	DD	FLAT:?GetModifyType@CTwoPointElement@@UBE?AW4ModifyType@CToolEnumData@@PAVCExtractingDataOfModifyType@@@Z
	DD	FLAT:?GetCoordinate@CTwoPointElement@@UBE?AVCCoordinate@@W4ModifyType@CToolEnumData@@@Z
	DD	FLAT:?ElementModify@CTwoPointElement@@UAEXABVCElementModifyData@@@Z
	DD	FLAT:?ElementModify_YValue@CTwoPointElement@@UAEXABVCElementModifyData@@@Z
	DD	FLAT:?ElementModify_Coordinate@CTwoPointElement@@UAEXABVCCoordinate@@W4ModifyType@CToolEnumData@@@Z
	DD	FLAT:?Draw@CElement@@UAEXPAVCDC@@ABVCDrawingRegions@@ABVCCoordinateCalculatorData@@@Z
	DD	FLAT:?DrawShadowAndGrip@CTwoPointElement@@UAEXPAVCDC@@ABVCDrawingRegions@@ABVCCoordinateCalculatorData@@@Z
	DD	FLAT:?DrawSelected@CTwoPointElement@@UAEXPAVCDC@@ABVCSelectedElementDrawingData@@@Z
	DD	FLAT:?GetSavedPoints@CTwoPointElement@@MBE?AV?$CStringT@DV?$StrTraitMFC_DLL@DV?$ChTraitsCRT@D@ATL@@@@@ATL@@XZ
	DD	FLAT:?RealDraw@CTwoPointElement@@MAEXPAVCDC@@ABVCDrawingRegions@@ABVCCoordinateCalculatorData@@@Z
	DD	FLAT:?GetModifyType@CTwoPointElement@@MBE?AW4ModifyType@CToolEnumData@@ABVCDisplayData@@ABVCPoint@@11@Z
	DD	FLAT:?GetModifyType@CGannFan@@MBE?AW4ModifyType@CToolEnumData@@ABVCRect@@ABVCPoint@@11@Z
	DD	FLAT:?GetTwoPointDrawer@CGann@@MAEAAVCTwoPointDrawer@@XZ
	DD	FLAT:?ElementInRegion@CGann@@MBE_NABVCRect@@ABVCPoint@@11@Z
	DD	FLAT:?GetGannDrawer@CGannFan@@MAEAAVCGannDrawer@@XZ
	DD	FLAT:?GetModifyType_Lines@CGannFan@@MBE?AW4ModifyType@CToolEnumData@@ABVCRect@@ABVCPoint@@11@Z
CONST	ENDS
;	COMDAT ??_7CGannLine@@6B@
CONST	SEGMENT
??_7CGannLine@@6B@ DD FLAT:??_R4CGannLine@@6B@		; CGannLine::`vftable'
	DD	FLAT:??_ECGannLine@@UAEPAXI@Z
	DD	FLAT:?GetElementType@CGannLine@@UBE?AW4ElementType@CToolEnumData@@XZ
	DD	FLAT:?GetPoints@CTwoPointElement@@UAEXAAVCElementPointList@@@Z
	DD	FLAT:?GetTextPosition@CElement@@UAEPAVCTextPosition@@XZ
	DD	FLAT:?GetTextPosition@CElement@@UBEPBVCTextPosition@@XZ
	DD	FLAT:?GetModifyType@CTwoPointElement@@UBE?AW4ModifyType@CToolEnumData@@PAVCExtractingDataOfModifyType@@@Z
	DD	FLAT:?GetCoordinate@CTwoPointElement@@UBE?AVCCoordinate@@W4ModifyType@CToolEnumData@@@Z
	DD	FLAT:?ElementModify@CTwoPointElement@@UAEXABVCElementModifyData@@@Z
	DD	FLAT:?ElementModify_YValue@CTwoPointElement@@UAEXABVCElementModifyData@@@Z
	DD	FLAT:?ElementModify_Coordinate@CTwoPointElement@@UAEXABVCCoordinate@@W4ModifyType@CToolEnumData@@@Z
	DD	FLAT:?Draw@CElement@@UAEXPAVCDC@@ABVCDrawingRegions@@ABVCCoordinateCalculatorData@@@Z
	DD	FLAT:?DrawShadowAndGrip@CTwoPointElement@@UAEXPAVCDC@@ABVCDrawingRegions@@ABVCCoordinateCalculatorData@@@Z
	DD	FLAT:?DrawSelected@CTwoPointElement@@UAEXPAVCDC@@ABVCSelectedElementDrawingData@@@Z
	DD	FLAT:?GetSavedPoints@CTwoPointElement@@MBE?AV?$CStringT@DV?$StrTraitMFC_DLL@DV?$ChTraitsCRT@D@ATL@@@@@ATL@@XZ
	DD	FLAT:?RealDraw@CTwoPointElement@@MAEXPAVCDC@@ABVCDrawingRegions@@ABVCCoordinateCalculatorData@@@Z
	DD	FLAT:?GetModifyType@CTwoPointElement@@MBE?AW4ModifyType@CToolEnumData@@ABVCDisplayData@@ABVCPoint@@11@Z
	DD	FLAT:?GetModifyType@CGann@@MBE?AW4ModifyType@CToolEnumData@@ABVCRect@@ABVCPoint@@11@Z
	DD	FLAT:?GetTwoPointDrawer@CGann@@MAEAAVCTwoPointDrawer@@XZ
	DD	FLAT:?ElementInRegion@CGann@@MBE_NABVCRect@@ABVCPoint@@11@Z
	DD	FLAT:?GetGannDrawer@CGannLine@@MAEAAVCGannDrawer@@XZ
	DD	FLAT:?GetModifyType_Lines@CGannLine@@MBE?AW4ModifyType@CToolEnumData@@ABVCRect@@ABVCPoint@@11@Z
CONST	ENDS
;	COMDAT ??_7CGann@@6B@
CONST	SEGMENT
??_7CGann@@6B@ DD FLAT:??_R4CGann@@6B@			; CGann::`vftable'
	DD	FLAT:??_ECGann@@UAEPAXI@Z
	DD	FLAT:__purecall
	DD	FLAT:?GetPoints@CTwoPointElement@@UAEXAAVCElementPointList@@@Z
	DD	FLAT:?GetTextPosition@CElement@@UAEPAVCTextPosition@@XZ
	DD	FLAT:?GetTextPosition@CElement@@UBEPBVCTextPosition@@XZ
	DD	FLAT:?GetModifyType@CTwoPointElement@@UBE?AW4ModifyType@CToolEnumData@@PAVCExtractingDataOfModifyType@@@Z
	DD	FLAT:?GetCoordinate@CTwoPointElement@@UBE?AVCCoordinate@@W4ModifyType@CToolEnumData@@@Z
	DD	FLAT:?ElementModify@CTwoPointElement@@UAEXABVCElementModifyData@@@Z
	DD	FLAT:?ElementModify_YValue@CTwoPointElement@@UAEXABVCElementModifyData@@@Z
	DD	FLAT:?ElementModify_Coordinate@CTwoPointElement@@UAEXABVCCoordinate@@W4ModifyType@CToolEnumData@@@Z
	DD	FLAT:?Draw@CElement@@UAEXPAVCDC@@ABVCDrawingRegions@@ABVCCoordinateCalculatorData@@@Z
	DD	FLAT:?DrawShadowAndGrip@CTwoPointElement@@UAEXPAVCDC@@ABVCDrawingRegions@@ABVCCoordinateCalculatorData@@@Z
	DD	FLAT:?DrawSelected@CTwoPointElement@@UAEXPAVCDC@@ABVCSelectedElementDrawingData@@@Z
	DD	FLAT:?GetSavedPoints@CTwoPointElement@@MBE?AV?$CStringT@DV?$StrTraitMFC_DLL@DV?$ChTraitsCRT@D@ATL@@@@@ATL@@XZ
	DD	FLAT:?RealDraw@CTwoPointElement@@MAEXPAVCDC@@ABVCDrawingRegions@@ABVCCoordinateCalculatorData@@@Z
	DD	FLAT:?GetModifyType@CTwoPointElement@@MBE?AW4ModifyType@CToolEnumData@@ABVCDisplayData@@ABVCPoint@@11@Z
	DD	FLAT:?GetModifyType@CGann@@MBE?AW4ModifyType@CToolEnumData@@ABVCRect@@ABVCPoint@@11@Z
	DD	FLAT:?GetTwoPointDrawer@CGann@@MAEAAVCTwoPointDrawer@@XZ
	DD	FLAT:?ElementInRegion@CGann@@MBE_NABVCRect@@ABVCPoint@@11@Z
	DD	FLAT:__purecall
	DD	FLAT:__purecall
CONST	ENDS
;	COMDAT ??_7CFiboTime@@6B@
CONST	SEGMENT
??_7CFiboTime@@6B@ DD FLAT:??_R4CFiboTime@@6B@		; CFiboTime::`vftable'
	DD	FLAT:??_ECFiboTime@@UAEPAXI@Z
	DD	FLAT:?GetElementType@CFiboTime@@UBE?AW4ElementType@CToolEnumData@@XZ
	DD	FLAT:?GetPoints@COnePointElement@@UAEXAAVCElementPointList@@@Z
	DD	FLAT:?GetTextPosition@CFiboTime@@MAEPAVCTextPosition@@XZ
	DD	FLAT:?GetTextPosition@CFiboTime@@MBEPBVCTextPosition@@XZ
	DD	FLAT:?GetModifyType@COnePointElement@@UBE?AW4ModifyType@CToolEnumData@@PAVCExtractingDataOfModifyType@@@Z
	DD	FLAT:?GetCoordinate@COnePointElement@@UBE?AVCCoordinate@@W4ModifyType@CToolEnumData@@@Z
	DD	FLAT:?ElementModify@CVertElement@@UAEXABVCElementModifyData@@@Z
	DD	FLAT:?ElementModify_YValue@CFiboTime@@UAEXABVCElementModifyData@@@Z
	DD	FLAT:?ElementModify_Coordinate@CVertElement@@UAEXABVCCoordinate@@W4ModifyType@CToolEnumData@@@Z
	DD	FLAT:?Draw@CElement@@UAEXPAVCDC@@ABVCDrawingRegions@@ABVCCoordinateCalculatorData@@@Z
	DD	FLAT:?DrawShadowAndGrip@COnePointElement@@UAEXPAVCDC@@ABVCDrawingRegions@@ABVCCoordinateCalculatorData@@@Z
	DD	FLAT:?DrawSelected@COnePointElement@@UAEXPAVCDC@@ABVCSelectedElementDrawingData@@@Z
	DD	FLAT:?GetSavedPoints@COnePointElement@@MBE?AV?$CStringT@DV?$StrTraitMFC_DLL@DV?$ChTraitsCRT@D@ATL@@@@@ATL@@XZ
	DD	FLAT:?RealDraw@COnePointElement@@MAEXPAVCDC@@ABVCDrawingRegions@@ABVCCoordinateCalculatorData@@@Z
	DD	FLAT:?GetModifyType@CFiboTime@@MBE?AW4ModifyType@CToolEnumData@@ABVCDisplayData@@ABVCPoint@@1@Z
	DD	FLAT:?GetOnePointDrawer@CFiboTime@@MAEAAVCOnePointDrawer@@XZ
	DD	FLAT:?GetGripPoint@CFiboTime@@MAE?AVCPoint@@ABVCCoordinateCalculatorData@@@Z
CONST	ENDS
;	COMDAT ??_7CFiboRetrace@@6B@
CONST	SEGMENT
??_7CFiboRetrace@@6B@ DD FLAT:??_R4CFiboRetrace@@6B@	; CFiboRetrace::`vftable'
	DD	FLAT:??_ECFiboRetrace@@UAEPAXI@Z
	DD	FLAT:?GetElementType@CFiboRetrace@@UBE?AW4ElementType@CToolEnumData@@XZ
	DD	FLAT:?GetPoints@CTwoPointElement@@UAEXAAVCElementPointList@@@Z
	DD	FLAT:?GetTextPosition@CFiboRetrace@@MAEPAVCTextPosition@@XZ
	DD	FLAT:?GetTextPosition@CFiboRetrace@@MBEPBVCTextPosition@@XZ
	DD	FLAT:?GetModifyType@CTwoPointElement@@UBE?AW4ModifyType@CToolEnumData@@PAVCExtractingDataOfModifyType@@@Z
	DD	FLAT:?GetCoordinate@CTwoPointElement@@UBE?AVCCoordinate@@W4ModifyType@CToolEnumData@@@Z
	DD	FLAT:?ElementModify@CTwoPointElement@@UAEXABVCElementModifyData@@@Z
	DD	FLAT:?ElementModify_YValue@CTwoPointElement@@UAEXABVCElementModifyData@@@Z
	DD	FLAT:?ElementModify_Coordinate@CTwoPointElement@@UAEXABVCCoordinate@@W4ModifyType@CToolEnumData@@@Z
	DD	FLAT:?Draw@CElement@@UAEXPAVCDC@@ABVCDrawingRegions@@ABVCCoordinateCalculatorData@@@Z
	DD	FLAT:?DrawShadowAndGrip@CTwoPointElement@@UAEXPAVCDC@@ABVCDrawingRegions@@ABVCCoordinateCalculatorData@@@Z
	DD	FLAT:?DrawSelected@CTwoPointElement@@UAEXPAVCDC@@ABVCSelectedElementDrawingData@@@Z
	DD	FLAT:?GetSavedPoints@CTwoPointElement@@MBE?AV?$CStringT@DV?$StrTraitMFC_DLL@DV?$ChTraitsCRT@D@ATL@@@@@ATL@@XZ
	DD	FLAT:?RealDraw@CTwoPointElement@@MAEXPAVCDC@@ABVCDrawingRegions@@ABVCCoordinateCalculatorData@@@Z
	DD	FLAT:?GetModifyType@CTwoPointElement@@MBE?AW4ModifyType@CToolEnumData@@ABVCDisplayData@@ABVCPoint@@11@Z
	DD	FLAT:?GetModifyType@CFiboRetrace@@MBE?AW4ModifyType@CToolEnumData@@ABVCRect@@ABVCPoint@@11@Z
	DD	FLAT:?GetTwoPointDrawer@CFiboRetrace@@MAEAAVCTwoPointDrawer@@XZ
	DD	FLAT:?ElementInRegion@CFiboRetrace@@MBE_NABVCRect@@ABVCPoint@@11@Z
CONST	ENDS
;	COMDAT ??_7CFiboPenLine@@6B@
CONST	SEGMENT
??_7CFiboPenLine@@6B@ DD FLAT:??_R4CFiboPenLine@@6B@	; CFiboPenLine::`vftable'
	DD	FLAT:??_ECFiboPenLine@@UAEPAXI@Z
	DD	FLAT:?GetElementType@CFiboPenLine@@UBE?AW4ElementType@CToolEnumData@@XZ
	DD	FLAT:?GetPoints@CTwoPointElement@@UAEXAAVCElementPointList@@@Z
	DD	FLAT:?GetTextPosition@CFiboPenLine@@MAEPAVCTextPosition@@XZ
	DD	FLAT:?GetTextPosition@CFiboPenLine@@MBEPBVCTextPosition@@XZ
	DD	FLAT:?GetModifyType@CTwoPointElement@@UBE?AW4ModifyType@CToolEnumData@@PAVCExtractingDataOfModifyType@@@Z
	DD	FLAT:?GetCoordinate@CTwoPointElement@@UBE?AVCCoordinate@@W4ModifyType@CToolEnumData@@@Z
	DD	FLAT:?ElementModify@CTwoPointElement@@UAEXABVCElementModifyData@@@Z
	DD	FLAT:?ElementModify_YValue@CTwoPointElement@@UAEXABVCElementModifyData@@@Z
	DD	FLAT:?ElementModify_Coordinate@CTwoPointElement@@UAEXABVCCoordinate@@W4ModifyType@CToolEnumData@@@Z
	DD	FLAT:?Draw@CElement@@UAEXPAVCDC@@ABVCDrawingRegions@@ABVCCoordinateCalculatorData@@@Z
	DD	FLAT:?DrawShadowAndGrip@CTwoPointElement@@UAEXPAVCDC@@ABVCDrawingRegions@@ABVCCoordinateCalculatorData@@@Z
	DD	FLAT:?DrawSelected@CTwoPointElement@@UAEXPAVCDC@@ABVCSelectedElementDrawingData@@@Z
	DD	FLAT:?GetSavedPoints@CTwoPointElement@@MBE?AV?$CStringT@DV?$StrTraitMFC_DLL@DV?$ChTraitsCRT@D@ATL@@@@@ATL@@XZ
	DD	FLAT:?RealDraw@CTwoPointElement@@MAEXPAVCDC@@ABVCDrawingRegions@@ABVCCoordinateCalculatorData@@@Z
	DD	FLAT:?GetModifyType@CTwoPointElement@@MBE?AW4ModifyType@CToolEnumData@@ABVCDisplayData@@ABVCPoint@@11@Z
	DD	FLAT:?GetModifyType@CFiboPenLine@@MBE?AW4ModifyType@CToolEnumData@@ABVCRect@@ABVCPoint@@11@Z
	DD	FLAT:?GetTwoPointDrawer@CFiboPenLine@@MAEAAVCTwoPointDrawer@@XZ
	DD	FLAT:?ElementInRegion@CFiboPenLine@@MBE_NABVCRect@@ABVCPoint@@11@Z
CONST	ENDS
;	COMDAT ??_7CFiboCircle@@6B@
CONST	SEGMENT
??_7CFiboCircle@@6B@ DD FLAT:??_R4CFiboCircle@@6B@	; CFiboCircle::`vftable'
	DD	FLAT:??_ECFiboCircle@@UAEPAXI@Z
	DD	FLAT:?GetElementType@CFiboCircle@@UBE?AW4ElementType@CToolEnumData@@XZ
	DD	FLAT:?GetPoints@CTwoPointElement@@UAEXAAVCElementPointList@@@Z
	DD	FLAT:?GetTextPosition@CFiboCircle@@MAEPAVCTextPosition@@XZ
	DD	FLAT:?GetTextPosition@CFiboCircle@@MBEPBVCTextPosition@@XZ
	DD	FLAT:?GetModifyType@CTwoPointElement@@UBE?AW4ModifyType@CToolEnumData@@PAVCExtractingDataOfModifyType@@@Z
	DD	FLAT:?GetCoordinate@CTwoPointElement@@UBE?AVCCoordinate@@W4ModifyType@CToolEnumData@@@Z
	DD	FLAT:?ElementModify@CTwoPointElement@@UAEXABVCElementModifyData@@@Z
	DD	FLAT:?ElementModify_YValue@CTwoPointElement@@UAEXABVCElementModifyData@@@Z
	DD	FLAT:?ElementModify_Coordinate@CTwoPointElement@@UAEXABVCCoordinate@@W4ModifyType@CToolEnumData@@@Z
	DD	FLAT:?Draw@CElement@@UAEXPAVCDC@@ABVCDrawingRegions@@ABVCCoordinateCalculatorData@@@Z
	DD	FLAT:?DrawShadowAndGrip@CTwoPointElement@@UAEXPAVCDC@@ABVCDrawingRegions@@ABVCCoordinateCalculatorData@@@Z
	DD	FLAT:?DrawSelected@CTwoPointElement@@UAEXPAVCDC@@ABVCSelectedElementDrawingData@@@Z
	DD	FLAT:?GetSavedPoints@CTwoPointElement@@MBE?AV?$CStringT@DV?$StrTraitMFC_DLL@DV?$ChTraitsCRT@D@ATL@@@@@ATL@@XZ
	DD	FLAT:?RealDraw@CTwoPointElement@@MAEXPAVCDC@@ABVCDrawingRegions@@ABVCCoordinateCalculatorData@@@Z
	DD	FLAT:?GetModifyType@CTwoPointElement@@MBE?AW4ModifyType@CToolEnumData@@ABVCDisplayData@@ABVCPoint@@11@Z
	DD	FLAT:?GetModifyType@CFiboArc@@MBE?AW4ModifyType@CToolEnumData@@ABVCRect@@ABVCPoint@@11@Z
	DD	FLAT:?GetTwoPointDrawer@CFiboCircle@@MAEAAVCTwoPointDrawer@@XZ
	DD	FLAT:?ElementInRegion@CFiboArc@@MBE_NABVCRect@@ABVCPoint@@11@Z
	DD	FLAT:?GetRadius@CFiboCircle@@MBEHABVCPoint@@0H@Z
	DD	FLAT:?GetDrawingRegion_EndPoint@CFiboCircle@@MBE?AVCPoint@@ABV2@0H@Z
CONST	ENDS
;	COMDAT ??_7CFiboSemicircle@@6B@
CONST	SEGMENT
??_7CFiboSemicircle@@6B@ DD FLAT:??_R4CFiboSemicircle@@6B@ ; CFiboSemicircle::`vftable'
	DD	FLAT:??_ECFiboSemicircle@@UAEPAXI@Z
	DD	FLAT:?GetElementType@CFiboSemicircle@@UBE?AW4ElementType@CToolEnumData@@XZ
	DD	FLAT:?GetPoints@CTwoPointElement@@UAEXAAVCElementPointList@@@Z
	DD	FLAT:?GetTextPosition@CFiboSemicircle@@MAEPAVCTextPosition@@XZ
	DD	FLAT:?GetTextPosition@CFiboSemicircle@@MBEPBVCTextPosition@@XZ
	DD	FLAT:?GetModifyType@CTwoPointElement@@UBE?AW4ModifyType@CToolEnumData@@PAVCExtractingDataOfModifyType@@@Z
	DD	FLAT:?GetCoordinate@CTwoPointElement@@UBE?AVCCoordinate@@W4ModifyType@CToolEnumData@@@Z
	DD	FLAT:?ElementModify@CTwoPointElement@@UAEXABVCElementModifyData@@@Z
	DD	FLAT:?ElementModify_YValue@CTwoPointElement@@UAEXABVCElementModifyData@@@Z
	DD	FLAT:?ElementModify_Coordinate@CTwoPointElement@@UAEXABVCCoordinate@@W4ModifyType@CToolEnumData@@@Z
	DD	FLAT:?Draw@CElement@@UAEXPAVCDC@@ABVCDrawingRegions@@ABVCCoordinateCalculatorData@@@Z
	DD	FLAT:?DrawShadowAndGrip@CTwoPointElement@@UAEXPAVCDC@@ABVCDrawingRegions@@ABVCCoordinateCalculatorData@@@Z
	DD	FLAT:?DrawSelected@CTwoPointElement@@UAEXPAVCDC@@ABVCSelectedElementDrawingData@@@Z
	DD	FLAT:?GetSavedPoints@CTwoPointElement@@MBE?AV?$CStringT@DV?$StrTraitMFC_DLL@DV?$ChTraitsCRT@D@ATL@@@@@ATL@@XZ
	DD	FLAT:?RealDraw@CTwoPointElement@@MAEXPAVCDC@@ABVCDrawingRegions@@ABVCCoordinateCalculatorData@@@Z
	DD	FLAT:?GetModifyType@CTwoPointElement@@MBE?AW4ModifyType@CToolEnumData@@ABVCDisplayData@@ABVCPoint@@11@Z
	DD	FLAT:?GetModifyType@CFiboArc@@MBE?AW4ModifyType@CToolEnumData@@ABVCRect@@ABVCPoint@@11@Z
	DD	FLAT:?GetTwoPointDrawer@CFiboSemicircle@@MAEAAVCTwoPointDrawer@@XZ
	DD	FLAT:?ElementInRegion@CFiboArc@@MBE_NABVCRect@@ABVCPoint@@11@Z
	DD	FLAT:?GetRadius@CFiboSemicircle@@MBEHABVCPoint@@0H@Z
	DD	FLAT:?GetDrawingRegion_EndPoint@CFiboArc@@MBE?AVCPoint@@ABV2@0H@Z
CONST	ENDS
;	COMDAT ??_7CFiboArc@@6B@
CONST	SEGMENT
??_7CFiboArc@@6B@ DD FLAT:??_R4CFiboArc@@6B@		; CFiboArc::`vftable'
	DD	FLAT:??_ECFiboArc@@UAEPAXI@Z
	DD	FLAT:__purecall
	DD	FLAT:?GetPoints@CTwoPointElement@@UAEXAAVCElementPointList@@@Z
	DD	FLAT:?GetTextPosition@CElement@@UAEPAVCTextPosition@@XZ
	DD	FLAT:?GetTextPosition@CElement@@UBEPBVCTextPosition@@XZ
	DD	FLAT:?GetModifyType@CTwoPointElement@@UBE?AW4ModifyType@CToolEnumData@@PAVCExtractingDataOfModifyType@@@Z
	DD	FLAT:?GetCoordinate@CTwoPointElement@@UBE?AVCCoordinate@@W4ModifyType@CToolEnumData@@@Z
	DD	FLAT:?ElementModify@CTwoPointElement@@UAEXABVCElementModifyData@@@Z
	DD	FLAT:?ElementModify_YValue@CTwoPointElement@@UAEXABVCElementModifyData@@@Z
	DD	FLAT:?ElementModify_Coordinate@CTwoPointElement@@UAEXABVCCoordinate@@W4ModifyType@CToolEnumData@@@Z
	DD	FLAT:?Draw@CElement@@UAEXPAVCDC@@ABVCDrawingRegions@@ABVCCoordinateCalculatorData@@@Z
	DD	FLAT:?DrawShadowAndGrip@CTwoPointElement@@UAEXPAVCDC@@ABVCDrawingRegions@@ABVCCoordinateCalculatorData@@@Z
	DD	FLAT:?DrawSelected@CTwoPointElement@@UAEXPAVCDC@@ABVCSelectedElementDrawingData@@@Z
	DD	FLAT:?GetSavedPoints@CTwoPointElement@@MBE?AV?$CStringT@DV?$StrTraitMFC_DLL@DV?$ChTraitsCRT@D@ATL@@@@@ATL@@XZ
	DD	FLAT:?RealDraw@CTwoPointElement@@MAEXPAVCDC@@ABVCDrawingRegions@@ABVCCoordinateCalculatorData@@@Z
	DD	FLAT:?GetModifyType@CTwoPointElement@@MBE?AW4ModifyType@CToolEnumData@@ABVCDisplayData@@ABVCPoint@@11@Z
	DD	FLAT:?GetModifyType@CFiboArc@@MBE?AW4ModifyType@CToolEnumData@@ABVCRect@@ABVCPoint@@11@Z
	DD	FLAT:__purecall
	DD	FLAT:?ElementInRegion@CFiboArc@@MBE_NABVCRect@@ABVCPoint@@11@Z
	DD	FLAT:__purecall
	DD	FLAT:?GetDrawingRegion_EndPoint@CFiboArc@@MBE?AVCPoint@@ABV2@0H@Z
CONST	ENDS
;	COMDAT ??_8CGannGridDrawer@@7B@
CONST	SEGMENT
??_8CGannGridDrawer@@7B@ DD 0fffffffcH			; CGannGridDrawer::`vbtable'
	DD	04H
CONST	ENDS
;	COMDAT ??_7CGannGridDrawer@@6B@
CONST	SEGMENT
??_7CGannGridDrawer@@6B@ DD FLAT:??_R4CGannGridDrawer@@6B@ ; CGannGridDrawer::`vftable'
	DD	FLAT:?IsDrawing@CTwoPointDrawer@@MBE_NABVCRect@@ABVCPoint@@1@Z
	DD	FLAT:?DrawShape@CGannDrawer@@UAEXPAVCDC@@ABVCTwoPointDrawingData@@ABVCPoint@@2@Z
	DD	FLAT:?DrawShadow@CTwoPointDrawer@@MAEXPAVCDC@@ABVCRect@@ABVCPoint@@2@Z
	DD	FLAT:?DrawTextA@CTwoPointDrawer@@MAEXPAVCDC@@ABVCTwoPointDrawingData@@@Z
	DD	FLAT:?DrawShape@CGannGridDrawer@@MAEXPAVCDC@@ABVCRect@@ABVCPoint@@2@Z
CONST	ENDS
;	COMDAT ??_8CGannFanDrawer@@7B@
CONST	SEGMENT
??_8CGannFanDrawer@@7B@ DD 0fffffffcH			; CGannFanDrawer::`vbtable'
	DD	04H
CONST	ENDS
;	COMDAT ??_7CGannFanDrawer@@6B@
CONST	SEGMENT
??_7CGannFanDrawer@@6B@ DD FLAT:??_R4CGannFanDrawer@@6B@ ; CGannFanDrawer::`vftable'
	DD	FLAT:?IsDrawing@CTwoPointDrawer@@MBE_NABVCRect@@ABVCPoint@@1@Z
	DD	FLAT:?DrawShape@CGannDrawer@@UAEXPAVCDC@@ABVCTwoPointDrawingData@@ABVCPoint@@2@Z
	DD	FLAT:?DrawShadow@CTwoPointDrawer@@MAEXPAVCDC@@ABVCRect@@ABVCPoint@@2@Z
	DD	FLAT:?DrawTextA@CGannFanDrawer@@MAEXPAVCDC@@ABVCTwoPointDrawingData@@@Z
	DD	FLAT:?DrawShape@CGannFanDrawer@@MAEXPAVCDC@@ABVCRect@@ABVCPoint@@2@Z
CONST	ENDS
;	COMDAT ??_8CGannLineDrawer@@7B@
CONST	SEGMENT
??_8CGannLineDrawer@@7B@ DD 0fffffffcH			; CGannLineDrawer::`vbtable'
	DD	04H
CONST	ENDS
;	COMDAT ??_7CGannLineDrawer@@6B@
CONST	SEGMENT
??_7CGannLineDrawer@@6B@ DD FLAT:??_R4CGannLineDrawer@@6B@ ; CGannLineDrawer::`vftable'
	DD	FLAT:?IsDrawing@CTwoPointDrawer@@MBE_NABVCRect@@ABVCPoint@@1@Z
	DD	FLAT:?DrawShape@CGannDrawer@@UAEXPAVCDC@@ABVCTwoPointDrawingData@@ABVCPoint@@2@Z
	DD	FLAT:?DrawShadow@CTwoPointDrawer@@MAEXPAVCDC@@ABVCRect@@ABVCPoint@@2@Z
	DD	FLAT:?DrawTextA@CTwoPointDrawer@@MAEXPAVCDC@@ABVCTwoPointDrawingData@@@Z
	DD	FLAT:?DrawShape@CGannLineDrawer@@MAEXPAVCDC@@ABVCRect@@ABVCPoint@@2@Z
CONST	ENDS
;	COMDAT ??_7CGannDrawer@@6B@
CONST	SEGMENT
??_7CGannDrawer@@6B@ DD FLAT:??_R4CGannDrawer@@6B@	; CGannDrawer::`vftable'
	DD	FLAT:?IsDrawing@CTwoPointDrawer@@MBE_NABVCRect@@ABVCPoint@@1@Z
	DD	FLAT:?DrawShape@CGannDrawer@@UAEXPAVCDC@@ABVCTwoPointDrawingData@@ABVCPoint@@2@Z
	DD	FLAT:?DrawShadow@CTwoPointDrawer@@MAEXPAVCDC@@ABVCRect@@ABVCPoint@@2@Z
	DD	FLAT:?DrawTextA@CTwoPointDrawer@@MAEXPAVCDC@@ABVCTwoPointDrawingData@@@Z
	DD	FLAT:__purecall
CONST	ENDS
;	COMDAT ??_8CFiboTimeDrawer@@7BCOnePointDrawer@@@
CONST	SEGMENT
??_8CFiboTimeDrawer@@7BCOnePointDrawer@@@ DD 0fffffffcH	; CFiboTimeDrawer::`vbtable'
	DD	0ffffffe4H
CONST	ENDS
;	COMDAT ??_8CFiboTimeDrawer@@7BCVertLineDrawer@@@
CONST	SEGMENT
??_8CFiboTimeDrawer@@7BCVertLineDrawer@@@ DD 00H	; CFiboTimeDrawer::`vbtable'
	DD	024H
	DD	03cH
CONST	ENDS
;	COMDAT ??_7CFiboTimeDrawer@@6B@
CONST	SEGMENT
??_7CFiboTimeDrawer@@6B@ DD FLAT:??_R4CFiboTimeDrawer@@6B@ ; CFiboTimeDrawer::`vftable'
	DD	FLAT:?IsDrawing@CFiboTimeDrawer@@$2PPPPPPPM@A@BE_NABVCRect@@ABVCPoint@@@Z
	DD	FLAT:?DrawShape@CFiboTimeDrawer@@$2PPPPPPPM@A@AEXPAVCDC@@ABVCOnePointDrawingData@@ABVCDisplayData@@ABVCPoint@@_N@Z
	DD	FLAT:?DrawShadow@COnePointDrawer@@MAEXPAVCDC@@ABVCDisplayData@@ABVCPoint@@_N@Z
	DD	FLAT:?DrawTextA@CFiboTimeDrawer@@$2PPPPPPPM@A@AEXPAVCDC@@ABVCOnePointDrawingData@@@Z
	DD	FLAT:?GetGripRegion@CVertLineDrawer@@$2PPPPPPPM@BI@AE?AVCRect@@ABV2@ABVCPoint@@@Z
CONST	ENDS
;	COMDAT ??_8CFiboRetraceDrawer@@7B@
CONST	SEGMENT
??_8CFiboRetraceDrawer@@7B@ DD 0fffffffcH		; CFiboRetraceDrawer::`vbtable'
	DD	01cH
CONST	ENDS
;	COMDAT ??_7CFiboRetraceDrawer@@6B@
CONST	SEGMENT
??_7CFiboRetraceDrawer@@6B@ DD FLAT:??_R4CFiboRetraceDrawer@@6B@ ; CFiboRetraceDrawer::`vftable'
	DD	FLAT:?IsDrawing@CTwoPointDrawer@@MBE_NABVCRect@@ABVCPoint@@1@Z
	DD	FLAT:?DrawShape@CFiboDrawer@@UAEXPAVCDC@@ABVCTwoPointDrawingData@@ABVCPoint@@2@Z
	DD	FLAT:?DrawShadow@CFiboDrawer@@UAEXPAVCDC@@ABVCRect@@ABVCPoint@@2@Z
	DD	FLAT:?DrawTextA@CFiboRetraceDrawer@@MAEXPAVCDC@@ABVCTwoPointDrawingData@@@Z
	DD	FLAT:?GetCount@CFiboDrawer@@UBEHXZ
	DD	FLAT:?GetCoefficient@CFiboDrawer@@MBENH@Z
	DD	FLAT:?DrawFiboShape@CFiboRetraceDrawer@@MAE_NPAVCDC@@HABVCTwoPointDrawingData@@@Z
	DD	FLAT:?DrawFiboShape@CFiboRetraceDrawer@@MAE_NPAVCDC@@ABVCRect@@ABVCPoint@@2HHH@Z
CONST	ENDS
;	COMDAT ??_8CFiboPenLineDrawer@@7B@
CONST	SEGMENT
??_8CFiboPenLineDrawer@@7B@ DD 0fffffffcH		; CFiboPenLineDrawer::`vbtable'
	DD	01cH
CONST	ENDS
;	COMDAT ??_7CFiboPenLineDrawer@@6B@
CONST	SEGMENT
??_7CFiboPenLineDrawer@@6B@ DD FLAT:??_R4CFiboPenLineDrawer@@6B@ ; CFiboPenLineDrawer::`vftable'
	DD	FLAT:?IsDrawing@CTwoPointDrawer@@MBE_NABVCRect@@ABVCPoint@@1@Z
	DD	FLAT:?DrawShape@CFiboDrawer@@UAEXPAVCDC@@ABVCTwoPointDrawingData@@ABVCPoint@@2@Z
	DD	FLAT:?DrawShadow@CFiboDrawer@@UAEXPAVCDC@@ABVCRect@@ABVCPoint@@2@Z
	DD	FLAT:?DrawTextA@CFiboPenLineDrawer@@UAEXPAVCDC@@ABVCTwoPointDrawingData@@@Z
	DD	FLAT:?GetCount@CFiboDrawer@@UBEHXZ
	DD	FLAT:?GetCoefficient@CFiboDrawer@@MBENH@Z
	DD	FLAT:?DrawFiboShape@CFiboPenLineDrawer@@MAE_NPAVCDC@@HABVCTwoPointDrawingData@@@Z
	DD	FLAT:?DrawFiboShape@CFiboPenLineDrawer@@MAE_NPAVCDC@@ABVCRect@@ABVCPoint@@2HHH@Z
CONST	ENDS
;	COMDAT ??_8CFiboCircleDrawer@@7B@
CONST	SEGMENT
??_8CFiboCircleDrawer@@7B@ DD 0fffffffcH		; CFiboCircleDrawer::`vbtable'
	DD	01cH
CONST	ENDS
;	COMDAT ??_7CFiboCircleDrawer@@6B@
CONST	SEGMENT
??_7CFiboCircleDrawer@@6B@ DD FLAT:??_R4CFiboCircleDrawer@@6B@ ; CFiboCircleDrawer::`vftable'
	DD	FLAT:?IsDrawing@CTwoPointDrawer@@MBE_NABVCRect@@ABVCPoint@@1@Z
	DD	FLAT:?DrawShape@CFiboDrawer@@UAEXPAVCDC@@ABVCTwoPointDrawingData@@ABVCPoint@@2@Z
	DD	FLAT:?DrawShadow@CFiboDrawer@@UAEXPAVCDC@@ABVCRect@@ABVCPoint@@2@Z
	DD	FLAT:?DrawTextA@CFiboCircleDrawer@@MAEXPAVCDC@@ABVCTwoPointDrawingData@@@Z
	DD	FLAT:?GetCount@CFiboDrawer@@UBEHXZ
	DD	FLAT:?GetCoefficient@CFiboDrawer@@MBENH@Z
	DD	FLAT:?DrawFiboShape@CFiboArcDrawer@@MAE_NPAVCDC@@HABVCTwoPointDrawingData@@@Z
	DD	FLAT:?DrawFiboShape@CFiboArcDrawer@@MAE_NPAVCDC@@ABVCRect@@ABVCPoint@@2HHH@Z
	DD	FLAT:?DrawArc@CFiboCircleDrawer@@MAEXPAVCDC@@ABVCRect@@HH@Z
CONST	ENDS
;	COMDAT ??_8CFiboSemicircleDrawer@@7B@
CONST	SEGMENT
??_8CFiboSemicircleDrawer@@7B@ DD 0fffffffcH		; CFiboSemicircleDrawer::`vbtable'
	DD	01cH
CONST	ENDS
;	COMDAT ??_7CFiboSemicircleDrawer@@6B@
CONST	SEGMENT
??_7CFiboSemicircleDrawer@@6B@ DD FLAT:??_R4CFiboSemicircleDrawer@@6B@ ; CFiboSemicircleDrawer::`vftable'
	DD	FLAT:?IsDrawing@CTwoPointDrawer@@MBE_NABVCRect@@ABVCPoint@@1@Z
	DD	FLAT:?DrawShape@CFiboDrawer@@UAEXPAVCDC@@ABVCTwoPointDrawingData@@ABVCPoint@@2@Z
	DD	FLAT:?DrawShadow@CFiboDrawer@@UAEXPAVCDC@@ABVCRect@@ABVCPoint@@2@Z
	DD	FLAT:?DrawTextA@CFiboSemicircleDrawer@@MAEXPAVCDC@@ABVCTwoPointDrawingData@@@Z
	DD	FLAT:?GetCount@CFiboDrawer@@UBEHXZ
	DD	FLAT:?GetCoefficient@CFiboDrawer@@MBENH@Z
	DD	FLAT:?DrawFiboShape@CFiboArcDrawer@@MAE_NPAVCDC@@HABVCTwoPointDrawingData@@@Z
	DD	FLAT:?DrawFiboShape@CFiboArcDrawer@@MAE_NPAVCDC@@ABVCRect@@ABVCPoint@@2HHH@Z
	DD	FLAT:?DrawArc@CFiboSemicircleDrawer@@MAEXPAVCDC@@ABVCRect@@HH@Z
CONST	ENDS
;	COMDAT ??_7CFiboArcDrawer@@6B@
CONST	SEGMENT
??_7CFiboArcDrawer@@6B@ DD FLAT:??_R4CFiboArcDrawer@@6B@ ; CFiboArcDrawer::`vftable'
	DD	FLAT:?IsDrawing@CTwoPointDrawer@@MBE_NABVCRect@@ABVCPoint@@1@Z
	DD	FLAT:?DrawShape@CFiboDrawer@@UAEXPAVCDC@@ABVCTwoPointDrawingData@@ABVCPoint@@2@Z
	DD	FLAT:?DrawShadow@CFiboDrawer@@UAEXPAVCDC@@ABVCRect@@ABVCPoint@@2@Z
	DD	FLAT:?DrawTextA@CTwoPointDrawer@@MAEXPAVCDC@@ABVCTwoPointDrawingData@@@Z
	DD	FLAT:?GetCount@CFiboDrawer@@UBEHXZ
	DD	FLAT:?GetCoefficient@CFiboDrawer@@MBENH@Z
	DD	FLAT:?DrawFiboShape@CFiboArcDrawer@@MAE_NPAVCDC@@HABVCTwoPointDrawingData@@@Z
	DD	FLAT:?DrawFiboShape@CFiboArcDrawer@@MAE_NPAVCDC@@ABVCRect@@ABVCPoint@@2HHH@Z
	DD	FLAT:__purecall
CONST	ENDS
;	COMDAT ??_7CFiboDrawer@@6B@
CONST	SEGMENT
??_7CFiboDrawer@@6B@ DD FLAT:??_R4CFiboDrawer@@6B@	; CFiboDrawer::`vftable'
	DD	FLAT:?IsDrawing@CTwoPointDrawer@@MBE_NABVCRect@@ABVCPoint@@1@Z
	DD	FLAT:?DrawShape@CFiboDrawer@@UAEXPAVCDC@@ABVCTwoPointDrawingData@@ABVCPoint@@2@Z
	DD	FLAT:?DrawShadow@CFiboDrawer@@UAEXPAVCDC@@ABVCRect@@ABVCPoint@@2@Z
	DD	FLAT:?DrawTextA@CTwoPointDrawer@@MAEXPAVCDC@@ABVCTwoPointDrawingData@@@Z
	DD	FLAT:?GetCount@CFiboDrawer@@UBEHXZ
	DD	FLAT:?GetCoefficient@CFiboDrawer@@MBENH@Z
	DD	FLAT:__purecall
	DD	FLAT:__purecall
CONST	ENDS
;	COMDAT ??_7CTwoPointDrawer@@6B@
CONST	SEGMENT
??_7CTwoPointDrawer@@6B@ DD FLAT:??_R4CTwoPointDrawer@@6B@ ; CTwoPointDrawer::`vftable'
	DD	FLAT:?IsDrawing@CTwoPointDrawer@@MBE_NABVCRect@@ABVCPoint@@1@Z
	DD	FLAT:__purecall
	DD	FLAT:?DrawShadow@CTwoPointDrawer@@MAEXPAVCDC@@ABVCRect@@ABVCPoint@@2@Z
	DD	FLAT:?DrawTextA@CTwoPointDrawer@@MAEXPAVCDC@@ABVCTwoPointDrawingData@@@Z
CONST	ENDS
;	COMDAT ??_7COnePointDrawer@@6B@
CONST	SEGMENT
??_7COnePointDrawer@@6B@ DD FLAT:??_R4COnePointDrawer@@6B@ ; COnePointDrawer::`vftable'
	DD	FLAT:__purecall
	DD	FLAT:__purecall
	DD	FLAT:?DrawShadow@COnePointDrawer@@MAEXPAVCDC@@ABVCDisplayData@@ABVCPoint@@_N@Z
	DD	FLAT:?DrawTextA@COnePointDrawer@@MAEXPAVCDC@@ABVCOnePointDrawingData@@@Z
	DD	FLAT:__purecall
CONST	ENDS
;	COMDAT ??_7CElement@@6B@
CONST	SEGMENT
??_7CElement@@6B@ DD FLAT:??_R4CElement@@6B@		; CElement::`vftable'
	DD	FLAT:??_ECElement@@UAEPAXI@Z
	DD	FLAT:__purecall
	DD	FLAT:__purecall
	DD	FLAT:?GetTextPosition@CElement@@UAEPAVCTextPosition@@XZ
	DD	FLAT:?GetTextPosition@CElement@@UBEPBVCTextPosition@@XZ
	DD	FLAT:__purecall
	DD	FLAT:__purecall
	DD	FLAT:__purecall
	DD	FLAT:__purecall
	DD	FLAT:__purecall
	DD	FLAT:?Draw@CElement@@UAEXPAVCDC@@ABVCDrawingRegions@@ABVCCoordinateCalculatorData@@@Z
	DD	FLAT:__purecall
	DD	FLAT:__purecall
	DD	FLAT:__purecall
	DD	FLAT:__purecall
CONST	ENDS
;	COMDAT xdata$x
xdata$x	SEGMENT
__unwindtable$??0CGannGrid@@QAE@ABVCCoordinate@@0ABVCElementCommonEnvironment@@@Z DD 0ffffffffH
	DD	FLAT:___std_terminate
__ehfuncinfo$??0CGannGrid@@QAE@ABVCCoordinate@@0ABVCElementCommonEnvironment@@@Z DD 019930522H
	DD	01H
	DD	FLAT:__unwindtable$??0CGannGrid@@QAE@ABVCCoordinate@@0ABVCElementCommonEnvironment@@@Z
	DD	2 DUP(00H)
	DD	2 DUP(00H)
	DD	00H
	DD	01H
xdata$x	ENDS
;	COMDAT xdata$x
xdata$x	SEGMENT
__unwindtable$??0CGannFan@@QAE@ABVCTextShowPosition@@ABVCCoordinate@@1ABVCElementCommonEnvironment@@H@Z DD 0ffffffffH
	DD	FLAT:__unwindfunclet$??0CGannFan@@QAE@ABVCTextShowPosition@@ABVCCoordinate@@1ABVCElementCommonEnvironment@@H@Z$0
	DD	00H
	DD	FLAT:___std_terminate
	DD	01H
	DD	FLAT:___std_terminate
__ehfuncinfo$??0CGannFan@@QAE@ABVCTextShowPosition@@ABVCCoordinate@@1ABVCElementCommonEnvironment@@H@Z DD 019930522H
	DD	03H
	DD	FLAT:__unwindtable$??0CGannFan@@QAE@ABVCTextShowPosition@@ABVCCoordinate@@1ABVCElementCommonEnvironment@@H@Z
	DD	2 DUP(00H)
	DD	2 DUP(00H)
	DD	00H
	DD	01H
xdata$x	ENDS
;	COMDAT xdata$x
xdata$x	SEGMENT
__unwindtable$??0CGannLine@@QAE@ABVCCoordinate@@0ABVCElementCommonEnvironment@@H@Z DD 0ffffffffH
	DD	FLAT:___std_terminate
__ehfuncinfo$??0CGannLine@@QAE@ABVCCoordinate@@0ABVCElementCommonEnvironment@@H@Z DD 019930522H
	DD	01H
	DD	FLAT:__unwindtable$??0CGannLine@@QAE@ABVCCoordinate@@0ABVCElementCommonEnvironment@@H@Z
	DD	2 DUP(00H)
	DD	2 DUP(00H)
	DD	00H
	DD	01H
xdata$x	ENDS
;	COMDAT xdata$x
xdata$x	SEGMENT
__unwindtable$?GetDisplayData@CFiboTime@@ABE?AVCDisplayData@@ABVCCoordinateCalculatorData@@@Z DD 0ffffffffH
	DD	FLAT:__unwindfunclet$?GetDisplayData@CFiboTime@@ABE?AVCDisplayData@@ABVCCoordinateCalculatorData@@@Z$0
__ehfuncinfo$?GetDisplayData@CFiboTime@@ABE?AVCDisplayData@@ABVCCoordinateCalculatorData@@@Z DD 019930522H
	DD	01H
	DD	FLAT:__unwindtable$?GetDisplayData@CFiboTime@@ABE?AVCDisplayData@@ABVCCoordinateCalculatorData@@@Z
	DD	2 DUP(00H)
	DD	2 DUP(00H)
	DD	00H
	DD	01H
xdata$x	ENDS
;	COMDAT xdata$x
xdata$x	SEGMENT
__unwindtable$?GetGripPoint@CFiboTime@@MAE?AVCPoint@@ABVCCoordinateCalculatorData@@@Z DD 0ffffffffH
	DD	FLAT:__unwindfunclet$?GetGripPoint@CFiboTime@@MAE?AVCPoint@@ABVCCoordinateCalculatorData@@@Z$0
__ehfuncinfo$?GetGripPoint@CFiboTime@@MAE?AVCPoint@@ABVCCoordinateCalculatorData@@@Z DD 019930522H
	DD	01H
	DD	FLAT:__unwindtable$?GetGripPoint@CFiboTime@@MAE?AVCPoint@@ABVCCoordinateCalculatorData@@@Z
	DD	2 DUP(00H)
	DD	2 DUP(00H)
	DD	00H
	DD	01H
xdata$x	ENDS
;	COMDAT xdata$x
xdata$x	SEGMENT
__unwindtable$??0CFiboTime@@QAE@ABVCTextShowPosition@@ABVCCoordinate@@ABVCElementCommonEnvironment@@@Z DD 0ffffffffH
	DD	FLAT:__unwindfunclet$??0CFiboTime@@QAE@ABVCTextShowPosition@@ABVCCoordinate@@ABVCElementCommonEnvironment@@@Z$0
	DD	00H
	DD	FLAT:__unwindfunclet$??0CFiboTime@@QAE@ABVCTextShowPosition@@ABVCCoordinate@@ABVCElementCommonEnvironment@@@Z$1
__ehfuncinfo$??0CFiboTime@@QAE@ABVCTextShowPosition@@ABVCCoordinate@@ABVCElementCommonEnvironment@@@Z DD 019930522H
	DD	02H
	DD	FLAT:__unwindtable$??0CFiboTime@@QAE@ABVCTextShowPosition@@ABVCCoordinate@@ABVCElementCommonEnvironment@@@Z
	DD	2 DUP(00H)
	DD	2 DUP(00H)
	DD	00H
	DD	01H
xdata$x	ENDS
;	COMDAT xdata$x
xdata$x	SEGMENT
__unwindtable$??0CFiboTime@@QAE@ABVCCoordinate@@ABVCElementCommonEnvironment@@@Z DD 0ffffffffH
	DD	FLAT:__unwindfunclet$??0CFiboTime@@QAE@ABVCCoordinate@@ABVCElementCommonEnvironment@@@Z$0
	DD	00H
	DD	FLAT:__unwindfunclet$??0CFiboTime@@QAE@ABVCCoordinate@@ABVCElementCommonEnvironment@@@Z$1
__ehfuncinfo$??0CFiboTime@@QAE@ABVCCoordinate@@ABVCElementCommonEnvironment@@@Z DD 019930522H
	DD	02H
	DD	FLAT:__unwindtable$??0CFiboTime@@QAE@ABVCCoordinate@@ABVCElementCommonEnvironment@@@Z
	DD	2 DUP(00H)
	DD	2 DUP(00H)
	DD	00H
	DD	01H
xdata$x	ENDS
;	COMDAT xdata$x
xdata$x	SEGMENT
__unwindtable$?GetModifyType@CFiboRetrace@@MBE?AW4ModifyType@CToolEnumData@@ABVCRect@@ABVCPoint@@11@Z DD 0ffffffffH
	DD	FLAT:__unwindfunclet$?GetModifyType@CFiboRetrace@@MBE?AW4ModifyType@CToolEnumData@@ABVCRect@@ABVCPoint@@11@Z$0
	DD	0ffffffffH
	DD	FLAT:__unwindfunclet$?GetModifyType@CFiboRetrace@@MBE?AW4ModifyType@CToolEnumData@@ABVCRect@@ABVCPoint@@11@Z$1
__ehfuncinfo$?GetModifyType@CFiboRetrace@@MBE?AW4ModifyType@CToolEnumData@@ABVCRect@@ABVCPoint@@11@Z DD 019930522H
	DD	02H
	DD	FLAT:__unwindtable$?GetModifyType@CFiboRetrace@@MBE?AW4ModifyType@CToolEnumData@@ABVCRect@@ABVCPoint@@11@Z
	DD	2 DUP(00H)
	DD	2 DUP(00H)
	DD	00H
	DD	01H
xdata$x	ENDS
;	COMDAT xdata$x
xdata$x	SEGMENT
__unwindtable$??0CFiboRetrace@@QAE@ABVCTextShowPosition@@ABVCCoordinate@@1ABVCElementCommonEnvironment@@@Z DD 0ffffffffH
	DD	FLAT:__unwindfunclet$??0CFiboRetrace@@QAE@ABVCTextShowPosition@@ABVCCoordinate@@1ABVCElementCommonEnvironment@@@Z$0
	DD	00H
	DD	FLAT:__unwindfunclet$??0CFiboRetrace@@QAE@ABVCTextShowPosition@@ABVCCoordinate@@1ABVCElementCommonEnvironment@@@Z$1
__ehfuncinfo$??0CFiboRetrace@@QAE@ABVCTextShowPosition@@ABVCCoordinate@@1ABVCElementCommonEnvironment@@@Z DD 019930522H
	DD	02H
	DD	FLAT:__unwindtable$??0CFiboRetrace@@QAE@ABVCTextShowPosition@@ABVCCoordinate@@1ABVCElementCommonEnvironment@@@Z
	DD	2 DUP(00H)
	DD	2 DUP(00H)
	DD	00H
	DD	01H
xdata$x	ENDS
;	COMDAT xdata$x
xdata$x	SEGMENT
__unwindtable$??0CFiboPenLine@@QAE@ABVCTextShowPosition@@ABVCCoordinate@@1ABVCElementCommonEnvironment@@@Z DD 0ffffffffH
	DD	FLAT:__unwindfunclet$??0CFiboPenLine@@QAE@ABVCTextShowPosition@@ABVCCoordinate@@1ABVCElementCommonEnvironment@@@Z$0
	DD	00H
	DD	FLAT:__unwindfunclet$??0CFiboPenLine@@QAE@ABVCTextShowPosition@@ABVCCoordinate@@1ABVCElementCommonEnvironment@@@Z$1
__ehfuncinfo$??0CFiboPenLine@@QAE@ABVCTextShowPosition@@ABVCCoordinate@@1ABVCElementCommonEnvironment@@@Z DD 019930522H
	DD	02H
	DD	FLAT:__unwindtable$??0CFiboPenLine@@QAE@ABVCTextShowPosition@@ABVCCoordinate@@1ABVCElementCommonEnvironment@@@Z
	DD	2 DUP(00H)
	DD	2 DUP(00H)
	DD	00H
	DD	01H
xdata$x	ENDS
;	COMDAT xdata$x
xdata$x	SEGMENT
__unwindtable$??0CFiboCircle@@QAE@ABVCTextShowPosition@@ABVCCoordinate@@1ABVCElementCommonEnvironment@@@Z DD 0ffffffffH
	DD	FLAT:__unwindfunclet$??0CFiboCircle@@QAE@ABVCTextShowPosition@@ABVCCoordinate@@1ABVCElementCommonEnvironment@@@Z$0
	DD	00H
	DD	FLAT:__unwindfunclet$??0CFiboCircle@@QAE@ABVCTextShowPosition@@ABVCCoordinate@@1ABVCElementCommonEnvironment@@@Z$1
__ehfuncinfo$??0CFiboCircle@@QAE@ABVCTextShowPosition@@ABVCCoordinate@@1ABVCElementCommonEnvironment@@@Z DD 019930522H
	DD	02H
	DD	FLAT:__unwindtable$??0CFiboCircle@@QAE@ABVCTextShowPosition@@ABVCCoordinate@@1ABVCElementCommonEnvironment@@@Z
	DD	2 DUP(00H)
	DD	2 DUP(00H)
	DD	00H
	DD	01H
xdata$x	ENDS
;	COMDAT xdata$x
xdata$x	SEGMENT
__unwindtable$??0CFiboSemicircle@@QAE@ABVCTextShowPosition@@ABVCCoordinate@@1ABVCElementCommonEnvironment@@@Z DD 0ffffffffH
	DD	FLAT:__unwindfunclet$??0CFiboSemicircle@@QAE@ABVCTextShowPosition@@ABVCCoordinate@@1ABVCElementCommonEnvironment@@@Z$0
	DD	00H
	DD	FLAT:__unwindfunclet$??0CFiboSemicircle@@QAE@ABVCTextShowPosition@@ABVCCoordinate@@1ABVCElementCommonEnvironment@@@Z$1
__ehfuncinfo$??0CFiboSemicircle@@QAE@ABVCTextShowPosition@@ABVCCoordinate@@1ABVCElementCommonEnvironment@@@Z DD 019930522H
	DD	02H
	DD	FLAT:__unwindtable$??0CFiboSemicircle@@QAE@ABVCTextShowPosition@@ABVCCoordinate@@1ABVCElementCommonEnvironment@@@Z
	DD	2 DUP(00H)
	DD	2 DUP(00H)
	DD	00H
	DD	01H
xdata$x	ENDS
;	COMDAT xdata$x
xdata$x	SEGMENT
__ehfuncinfo$??0CGannGridDrawer@@QAE@XZ DD 019930522H
	DD	00H
	DD	00H
	DD	2 DUP(00H)
	DD	2 DUP(00H)
	DD	00H
	DD	05H
xdata$x	ENDS
;	COMDAT xdata$x
xdata$x	SEGMENT
__unwindtable$??0CGannFanDrawer@@QAE@XZ DD 0ffffffffH
	DD	FLAT:___std_terminate
__ehfuncinfo$??0CGannFanDrawer@@QAE@XZ DD 019930522H
	DD	01H
	DD	FLAT:__unwindtable$??0CGannFanDrawer@@QAE@XZ
	DD	2 DUP(00H)
	DD	2 DUP(00H)
	DD	00H
	DD	05H
xdata$x	ENDS
;	COMDAT xdata$x
xdata$x	SEGMENT
__ehfuncinfo$??0CGannLineDrawer@@QAE@XZ DD 019930522H
	DD	00H
	DD	00H
	DD	2 DUP(00H)
	DD	2 DUP(00H)
	DD	00H
	DD	05H
xdata$x	ENDS
; Function compile flags: /Odsp
;	COMDAT ?GetGripRegion@CVertLineDrawer@@$2PPPPPPPM@BI@AE?AVCRect@@ABV2@ABVCPoint@@@Z
_TEXT	SEGMENT
?GetGripRegion@CVertLineDrawer@@$2PPPPPPPM@BI@AE?AVCRect@@ABV2@ABVCPoint@@@Z PROC ; CVertLineDrawer::GetGripRegion, COMDAT
  00000	2b 49 fc	 sub	 ecx, DWORD PTR [ecx-4]
  00003	83 e9 18	 sub	 ecx, 24			; 00000018H
  00006	e9 00 00 00 00	 jmp	 ?GetGripRegion@CVertLineDrawer@@MAE?AVCRect@@ABV2@ABVCPoint@@@Z ; CVertLineDrawer::GetGripRegion
?GetGripRegion@CVertLineDrawer@@$2PPPPPPPM@BI@AE?AVCRect@@ABV2@ABVCPoint@@@Z ENDP ; CVertLineDrawer::GetGripRegion
_TEXT	ENDS
; Function compile flags: /Odsp
;	COMDAT ?DrawTextA@CFiboTimeDrawer@@$2PPPPPPPM@A@AEXPAVCDC@@ABVCOnePointDrawingData@@@Z
_TEXT	SEGMENT
?DrawTextA@CFiboTimeDrawer@@$2PPPPPPPM@A@AEXPAVCDC@@ABVCOnePointDrawingData@@@Z PROC ; CFiboTimeDrawer::DrawTextA, COMDAT
  00000	2b 49 fc	 sub	 ecx, DWORD PTR [ecx-4]
  00003	e9 00 00 00 00	 jmp	 ?DrawTextA@CFiboTimeDrawer@@MAEXPAVCDC@@ABVCOnePointDrawingData@@@Z ; CFiboTimeDrawer::DrawTextA
?DrawTextA@CFiboTimeDrawer@@$2PPPPPPPM@A@AEXPAVCDC@@ABVCOnePointDrawingData@@@Z ENDP ; CFiboTimeDrawer::DrawTextA
_TEXT	ENDS
; Function compile flags: /Odsp
;	COMDAT ?DrawShape@CFiboTimeDrawer@@$2PPPPPPPM@A@AEXPAVCDC@@ABVCOnePointDrawingData@@ABVCDisplayData@@ABVCPoint@@_N@Z
_TEXT	SEGMENT
?DrawShape@CFiboTimeDrawer@@$2PPPPPPPM@A@AEXPAVCDC@@ABVCOnePointDrawingData@@ABVCDisplayData@@ABVCPoint@@_N@Z PROC ; CFiboTimeDrawer::DrawShape, COMDAT
  00000	2b 49 fc	 sub	 ecx, DWORD PTR [ecx-4]
  00003	e9 00 00 00 00	 jmp	 ?DrawShape@CFiboTimeDrawer@@MAEXPAVCDC@@ABVCOnePointDrawingData@@ABVCDisplayData@@ABVCPoint@@_N@Z ; CFiboTimeDrawer::DrawShape
?DrawShape@CFiboTimeDrawer@@$2PPPPPPPM@A@AEXPAVCDC@@ABVCOnePointDrawingData@@ABVCDisplayData@@ABVCPoint@@_N@Z ENDP ; CFiboTimeDrawer::DrawShape
_TEXT	ENDS
; Function compile flags: /Odsp
;	COMDAT ?IsDrawing@CFiboTimeDrawer@@$2PPPPPPPM@A@BE_NABVCRect@@ABVCPoint@@@Z
_TEXT	SEGMENT
?IsDrawing@CFiboTimeDrawer@@$2PPPPPPPM@A@BE_NABVCRect@@ABVCPoint@@@Z PROC ; CFiboTimeDrawer::IsDrawing, COMDAT
  00000	2b 49 fc	 sub	 ecx, DWORD PTR [ecx-4]
  00003	e9 00 00 00 00	 jmp	 ?IsDrawing@CFiboTimeDrawer@@MBE_NABVCRect@@ABVCPoint@@@Z ; CFiboTimeDrawer::IsDrawing
?IsDrawing@CFiboTimeDrawer@@$2PPPPPPPM@A@BE_NABVCRect@@ABVCPoint@@@Z ENDP ; CFiboTimeDrawer::IsDrawing
_TEXT	ENDS
; Function compile flags: /Ogtp
; File D:\git\src\IBK\IBK_DRFN\ProjSrc\SrcChartEx\ChartAddIn\ChartAnalysisToolAddIn\AnalysisTool\Element.h
;	COMDAT ??_GCGannGrid@@UAEPAXI@Z
_TEXT	SEGMENT
___flags$ = 8						; size = 4
??_GCGannGrid@@UAEPAXI@Z PROC				; CGannGrid::`scalar deleting destructor', COMDAT
; _this$ = ecx
  00000	55		 push	 ebp
  00001	8b ec		 mov	 ebp, esp

; 31   : 	virtual ~CElement()	{}

  00003	56		 push	 esi
  00004	8b f1		 mov	 esi, ecx
  00006	8d 8e 84 00 00
	00		 lea	 ecx, DWORD PTR [esi+132]
  0000c	ff 15 00 00 00
	00		 call	 DWORD PTR __imp_??1?$CStringT@DV?$StrTraitMFC_DLL@DV?$ChTraitsCRT@D@ATL@@@@@ATL@@QAE@XZ
  00012	8d 4e 64	 lea	 ecx, DWORD PTR [esi+100]
  00015	ff 15 00 00 00
	00		 call	 DWORD PTR __imp_??1?$CStringT@DV?$StrTraitMFC_DLL@DV?$ChTraitsCRT@D@ATL@@@@@ATL@@QAE@XZ
  0001b	8d 4e 40	 lea	 ecx, DWORD PTR [esi+64]
  0001e	c7 06 00 00 00
	00		 mov	 DWORD PTR [esi], OFFSET ??_7CElement@@6B@
  00024	ff 15 00 00 00
	00		 call	 DWORD PTR __imp_??1?$CStringT@DV?$StrTraitMFC_DLL@DV?$ChTraitsCRT@D@ATL@@@@@ATL@@QAE@XZ
  0002a	8d 4e 3c	 lea	 ecx, DWORD PTR [esi+60]
  0002d	ff 15 00 00 00
	00		 call	 DWORD PTR __imp_??1?$CStringT@DV?$StrTraitMFC_DLL@DV?$ChTraitsCRT@D@ATL@@@@@ATL@@QAE@XZ
  00033	8d 4e 38	 lea	 ecx, DWORD PTR [esi+56]
  00036	ff 15 00 00 00
	00		 call	 DWORD PTR __imp_??1?$CStringT@DV?$StrTraitMFC_DLL@DV?$ChTraitsCRT@D@ATL@@@@@ATL@@QAE@XZ
  0003c	f6 45 08 01	 test	 BYTE PTR ___flags$[ebp], 1
  00040	74 0e		 je	 SHORT $LN25@scalar
  00042	68 b0 00 00 00	 push	 176			; 000000b0H
  00047	56		 push	 esi
  00048	e8 00 00 00 00	 call	 ??3@YAXPAXI@Z		; operator delete
  0004d	83 c4 08	 add	 esp, 8
$LN25@scalar:
  00050	8b c6		 mov	 eax, esi
  00052	5e		 pop	 esi
  00053	5d		 pop	 ebp
  00054	c2 04 00	 ret	 4
??_GCGannGrid@@UAEPAXI@Z ENDP				; CGannGrid::`scalar deleting destructor'
_TEXT	ENDS
; Function compile flags: /Ogtp
; File D:\git\src\IBK\IBK_DRFN\ProjSrc\SrcChartEx\ChartAddIn\ChartAnalysisToolAddIn\AnalysisTool\FiboGann.cpp
; File C:\Program Files (x86)\Microsoft Visual Studio\2019\Community\VC\Tools\MSVC\14.29.30133\atlmfc\include\atltypes.h
; File D:\git\src\IBK\IBK_DRFN\ProjSrc\SrcChartEx\ChartAddIn\ChartAnalysisToolAddIn\AnalysisTool\FiboGann.cpp
; File C:\Program Files (x86)\Microsoft Visual Studio\2019\Community\VC\Tools\MSVC\14.29.30133\atlmfc\include\atltypes.h
; File D:\git\src\IBK\IBK_DRFN\ProjSrc\SrcChartEx\ChartAddIn\ChartAnalysisToolAddIn\AnalysisTool\FiboGann.cpp
;	COMDAT ?GetSymmetryPointOfXAxis@CGannGrid@@ABE?AVCPoint@@ABV2@0@Z
_TEXT	SEGMENT
___$ReturnUdt$ = 8					; size = 4
_orgPt$ = 12						; size = 4
_point$ = 16						; size = 4
?GetSymmetryPointOfXAxis@CGannGrid@@ABE?AVCPoint@@ABV2@0@Z PROC ; CGannGrid::GetSymmetryPointOfXAxis, COMDAT
; _this$ = ecx

; 691  : {

  00000	55		 push	 ebp
  00001	8b ec		 mov	 ebp, esp
; File C:\Program Files (x86)\Microsoft Visual Studio\2019\Community\VC\Tools\MSVC\14.29.30133\atlmfc\include\atltypes.h

; 408  : 	x = initX;

  00003	8b 55 10	 mov	 edx, DWORD PTR _point$[ebp]
  00006	8b 45 08	 mov	 eax, DWORD PTR ___$ReturnUdt$[ebp]
  00009	8b 0a		 mov	 ecx, DWORD PTR [edx]
  0000b	89 08		 mov	 DWORD PTR [eax], ecx
; File D:\git\src\IBK\IBK_DRFN\ProjSrc\SrcChartEx\ChartAddIn\ChartAnalysisToolAddIn\AnalysisTool\FiboGann.cpp

; 692  : 	return CPoint(point.x, (orgPt.y + (orgPt.y - point.y)));

  0000d	8b 4d 0c	 mov	 ecx, DWORD PTR _orgPt$[ebp]
  00010	8b 49 04	 mov	 ecx, DWORD PTR [ecx+4]
  00013	03 c9		 add	 ecx, ecx
  00015	2b 4a 04	 sub	 ecx, DWORD PTR [edx+4]
; File C:\Program Files (x86)\Microsoft Visual Studio\2019\Community\VC\Tools\MSVC\14.29.30133\atlmfc\include\atltypes.h

; 409  : 	y = initY;

  00018	89 48 04	 mov	 DWORD PTR [eax+4], ecx
; File D:\git\src\IBK\IBK_DRFN\ProjSrc\SrcChartEx\ChartAddIn\ChartAnalysisToolAddIn\AnalysisTool\FiboGann.cpp

; 693  : }

  0001b	5d		 pop	 ebp
  0001c	c2 0c 00	 ret	 12			; 0000000cH
?GetSymmetryPointOfXAxis@CGannGrid@@ABE?AVCPoint@@ABV2@0@Z ENDP ; CGannGrid::GetSymmetryPointOfXAxis
_TEXT	ENDS
; Function compile flags: /Ogtp
; File D:\git\src\IBK\IBK_DRFN\ProjSrc\SrcChartEx\ChartAddIn\ChartAnalysisToolAddIn\AnalysisTool\FiboGann.cpp
; File C:\Program Files (x86)\Microsoft Visual Studio\2019\Community\VC\Tools\MSVC\14.29.30133\atlmfc\include\atltypes.h
; File D:\git\src\IBK\IBK_DRFN\ProjSrc\SrcChartEx\ChartAddIn\ChartAnalysisToolAddIn\AnalysisTool\FiboGann.cpp
; File C:\Program Files (x86)\Microsoft Visual Studio\2019\Community\VC\Tools\MSVC\14.29.30133\atlmfc\include\atltypes.h
; File D:\git\src\IBK\IBK_DRFN\ProjSrc\SrcChartEx\ChartAddIn\ChartAnalysisToolAddIn\AnalysisTool\FiboGann.cpp
; File C:\Program Files (x86)\Microsoft Visual Studio\2019\Community\VC\Tools\MSVC\14.29.30133\atlmfc\include\atltypes.h
; File D:\git\src\IBK\IBK_DRFN\ProjSrc\SrcChartEx\ChartAddIn\ChartAnalysisToolAddIn\AnalysisTool\FiboGann.cpp
; File C:\Program Files (x86)\Microsoft Visual Studio\2019\Community\VC\Tools\MSVC\14.29.30133\atlmfc\include\atltypes.h
; File D:\git\src\IBK\IBK_DRFN\ProjSrc\SrcChartEx\ChartAddIn\ChartAnalysisToolAddIn\AnalysisTool\FiboGann.cpp
; File C:\Program Files (x86)\Microsoft Visual Studio\2019\Community\VC\Tools\MSVC\14.29.30133\atlmfc\include\atltypes.h
; File D:\git\src\IBK\IBK_DRFN\ProjSrc\SrcChartEx\ChartAddIn\ChartAnalysisToolAddIn\AnalysisTool\FiboGann.cpp
; File C:\Program Files (x86)\Microsoft Visual Studio\2019\Community\VC\Tools\MSVC\14.29.30133\atlmfc\include\atltypes.h
; File D:\git\src\IBK\IBK_DRFN\ProjSrc\SrcChartEx\ChartAddIn\ChartAnalysisToolAddIn\AnalysisTool\FiboGann.cpp
; File C:\Program Files (x86)\Microsoft Visual Studio\2019\Community\VC\Tools\MSVC\14.29.30133\atlmfc\include\atltypes.h
; File D:\git\src\IBK\IBK_DRFN\ProjSrc\SrcChartEx\ChartAddIn\ChartAnalysisToolAddIn\AnalysisTool\FiboGann.cpp
; File C:\Program Files (x86)\Microsoft Visual Studio\2019\Community\VC\Tools\MSVC\14.29.30133\atlmfc\include\atltypes.h
; File D:\git\src\IBK\IBK_DRFN\ProjSrc\SrcChartEx\ChartAddIn\ChartAnalysisToolAddIn\AnalysisTool\FiboGann.cpp
;	COMDAT ?GetModifyType_Lines@CGannGrid@@ABE_NABVCRect@@ABVCPoint@@1H1AAW4ModifyType@CToolEnumData@@@Z
_TEXT	SEGMENT
$T1 = -32						; size = 8
$T2 = -24						; size = 8
_startPt$ = -16						; size = 8
_endPt$ = -8						; size = 8
_region$ = 8						; size = 4
_linePt1$ = 12						; size = 4
_linePt2$ = 16						; size = 4
_nIndex$ = 20						; size = 4
_point$ = 24						; size = 4
_modifyType$ = 28					; size = 4
?GetModifyType_Lines@CGannGrid@@ABE_NABVCRect@@ABVCPoint@@1H1AAW4ModifyType@CToolEnumData@@@Z PROC ; CGannGrid::GetModifyType_Lines, COMDAT
; _this$ = ecx

; 675  : {

  00000	55		 push	 ebp
  00001	8b ec		 mov	 ebp, esp
  00003	83 ec 20	 sub	 esp, 32			; 00000020H
  00006	56		 push	 esi

; 677  : 	if(!m_gannGridDrawer.GetLineEndPoints(region, linePt1, linePt2, nIndex, startPt, endPt))

  00007	8d 45 f8	 lea	 eax, DWORD PTR _endPt$[ebp]
; File C:\Program Files (x86)\Microsoft Visual Studio\2019\Community\VC\Tools\MSVC\14.29.30133\atlmfc\include\atltypes.h

; 400  : 	x = 0;

  0000a	c7 45 f0 00 00
	00 00		 mov	 DWORD PTR _startPt$[ebp], 0
; File D:\git\src\IBK\IBK_DRFN\ProjSrc\SrcChartEx\ChartAddIn\ChartAnalysisToolAddIn\AnalysisTool\FiboGann.cpp

; 677  : 	if(!m_gannGridDrawer.GetLineEndPoints(region, linePt1, linePt2, nIndex, startPt, endPt))

  00011	50		 push	 eax
  00012	8d 45 f0	 lea	 eax, DWORD PTR _startPt$[ebp]
; File C:\Program Files (x86)\Microsoft Visual Studio\2019\Community\VC\Tools\MSVC\14.29.30133\atlmfc\include\atltypes.h

; 401  : 	y = 0;

  00015	c7 45 f4 00 00
	00 00		 mov	 DWORD PTR _startPt$[ebp+4], 0
; File D:\git\src\IBK\IBK_DRFN\ProjSrc\SrcChartEx\ChartAddIn\ChartAnalysisToolAddIn\AnalysisTool\FiboGann.cpp

; 677  : 	if(!m_gannGridDrawer.GetLineEndPoints(region, linePt1, linePt2, nIndex, startPt, endPt))

  0001c	50		 push	 eax
  0001d	ff 75 14	 push	 DWORD PTR _nIndex$[ebp]
  00020	8b f1		 mov	 esi, ecx
; File C:\Program Files (x86)\Microsoft Visual Studio\2019\Community\VC\Tools\MSVC\14.29.30133\atlmfc\include\atltypes.h

; 400  : 	x = 0;

  00022	c7 45 f8 00 00
	00 00		 mov	 DWORD PTR _endPt$[ebp], 0
; File D:\git\src\IBK\IBK_DRFN\ProjSrc\SrcChartEx\ChartAddIn\ChartAnalysisToolAddIn\AnalysisTool\FiboGann.cpp

; 677  : 	if(!m_gannGridDrawer.GetLineEndPoints(region, linePt1, linePt2, nIndex, startPt, endPt))

  00029	ff 75 10	 push	 DWORD PTR _linePt2$[ebp]
; File C:\Program Files (x86)\Microsoft Visual Studio\2019\Community\VC\Tools\MSVC\14.29.30133\atlmfc\include\atltypes.h

; 401  : 	y = 0;

  0002c	c7 45 fc 00 00
	00 00		 mov	 DWORD PTR _endPt$[ebp+4], 0
; File D:\git\src\IBK\IBK_DRFN\ProjSrc\SrcChartEx\ChartAddIn\ChartAnalysisToolAddIn\AnalysisTool\FiboGann.cpp

; 677  : 	if(!m_gannGridDrawer.GetLineEndPoints(region, linePt1, linePt2, nIndex, startPt, endPt))

  00033	ff 75 0c	 push	 DWORD PTR _linePt1$[ebp]
  00036	8d 8e 90 00 00
	00		 lea	 ecx, DWORD PTR [esi+144]
  0003c	ff 75 08	 push	 DWORD PTR _region$[ebp]
  0003f	e8 00 00 00 00	 call	 ?GetLineEndPoints@CGannGridDrawer@@QBE_NABVCRect@@ABVCPoint@@1HAAV3@2@Z ; CGannGridDrawer::GetLineEndPoints
  00044	84 c0		 test	 al, al
  00046	75 07		 jne	 SHORT $LN2@GetModifyT
  00048	5e		 pop	 esi

; 687  : }

  00049	8b e5		 mov	 esp, ebp
  0004b	5d		 pop	 ebp
  0004c	c2 18 00	 ret	 24			; 00000018H
$LN2@GetModifyT:
  0004f	53		 push	 ebx

; 678  : 		return false;
; 679  : 
; 680  : 	// 1
; 681  : 	modifyType = CTwoPointElement::GetModifyType_Line(startPt, endPt, point);

  00050	ff 75 18	 push	 DWORD PTR _point$[ebp]
  00053	8d 45 f8	 lea	 eax, DWORD PTR _endPt$[ebp]
  00056	8b ce		 mov	 ecx, esi
  00058	50		 push	 eax
  00059	8d 45 f0	 lea	 eax, DWORD PTR _startPt$[ebp]
  0005c	50		 push	 eax
  0005d	e8 00 00 00 00	 call	 ?GetModifyType_Line@CTwoPointElement@@IBE?AW4ModifyType@CToolEnumData@@ABVCPoint@@00@Z ; CTwoPointElement::GetModifyType_Line
  00062	8b 5d 1c	 mov	 ebx, DWORD PTR _modifyType$[ebp]
  00065	89 03		 mov	 DWORD PTR [ebx], eax

; 682  : 	// 2
; 683  : 	if(modifyType == CToolEnumData::MODIFY_NONE)

  00067	85 c0		 test	 eax, eax
  00069	75 36		 jne	 SHORT $LN3@GetModifyT
; File C:\Program Files (x86)\Microsoft Visual Studio\2019\Community\VC\Tools\MSVC\14.29.30133\atlmfc\include\atltypes.h

; 408  : 	x = initX;

  0006b	8b 45 f8	 mov	 eax, DWORD PTR _endPt$[ebp]
; File D:\git\src\IBK\IBK_DRFN\ProjSrc\SrcChartEx\ChartAddIn\ChartAnalysisToolAddIn\AnalysisTool\FiboGann.cpp

; 684  : 		modifyType = CTwoPointElement::GetModifyType_Line(GetSymmetryPointOfXAxis(linePt1, startPt), GetSymmetryPointOfXAxis(linePt1, endPt), point);

  0006e	ff 75 18	 push	 DWORD PTR _point$[ebp]
; File C:\Program Files (x86)\Microsoft Visual Studio\2019\Community\VC\Tools\MSVC\14.29.30133\atlmfc\include\atltypes.h

; 408  : 	x = initX;

  00071	89 45 e8	 mov	 DWORD PTR $T2[ebp], eax
; File D:\git\src\IBK\IBK_DRFN\ProjSrc\SrcChartEx\ChartAddIn\ChartAnalysisToolAddIn\AnalysisTool\FiboGann.cpp

; 692  : 	return CPoint(point.x, (orgPt.y + (orgPt.y - point.y)));

  00074	8b 45 0c	 mov	 eax, DWORD PTR _linePt1$[ebp]
  00077	8b 48 04	 mov	 ecx, DWORD PTR [eax+4]
  0007a	03 c9		 add	 ecx, ecx
  0007c	8b c1		 mov	 eax, ecx
  0007e	2b 4d f4	 sub	 ecx, DWORD PTR _startPt$[ebp+4]
  00081	2b 45 fc	 sub	 eax, DWORD PTR _endPt$[ebp+4]
; File C:\Program Files (x86)\Microsoft Visual Studio\2019\Community\VC\Tools\MSVC\14.29.30133\atlmfc\include\atltypes.h

; 409  : 	y = initY;

  00084	89 45 ec	 mov	 DWORD PTR $T2[ebp+4], eax

; 408  : 	x = initX;

  00087	8b 45 f0	 mov	 eax, DWORD PTR _startPt$[ebp]
  0008a	89 45 e0	 mov	 DWORD PTR $T1[ebp], eax
; File D:\git\src\IBK\IBK_DRFN\ProjSrc\SrcChartEx\ChartAddIn\ChartAnalysisToolAddIn\AnalysisTool\FiboGann.cpp

; 684  : 		modifyType = CTwoPointElement::GetModifyType_Line(GetSymmetryPointOfXAxis(linePt1, startPt), GetSymmetryPointOfXAxis(linePt1, endPt), point);

  0008d	8d 45 e8	 lea	 eax, DWORD PTR $T2[ebp]
  00090	50		 push	 eax
  00091	8d 45 e0	 lea	 eax, DWORD PTR $T1[ebp]
; File C:\Program Files (x86)\Microsoft Visual Studio\2019\Community\VC\Tools\MSVC\14.29.30133\atlmfc\include\atltypes.h

; 409  : 	y = initY;

  00094	89 4d e4	 mov	 DWORD PTR $T1[ebp+4], ecx
; File D:\git\src\IBK\IBK_DRFN\ProjSrc\SrcChartEx\ChartAddIn\ChartAnalysisToolAddIn\AnalysisTool\FiboGann.cpp

; 684  : 		modifyType = CTwoPointElement::GetModifyType_Line(GetSymmetryPointOfXAxis(linePt1, startPt), GetSymmetryPointOfXAxis(linePt1, endPt), point);

  00097	50		 push	 eax
  00098	8b ce		 mov	 ecx, esi
  0009a	e8 00 00 00 00	 call	 ?GetModifyType_Line@CTwoPointElement@@IBE?AW4ModifyType@CToolEnumData@@ABVCPoint@@00@Z ; CTwoPointElement::GetModifyType_Line
  0009f	89 03		 mov	 DWORD PTR [ebx], eax
$LN3@GetModifyT:

; 685  : 
; 686  : 	return true;

  000a1	5b		 pop	 ebx
  000a2	b0 01		 mov	 al, 1
  000a4	5e		 pop	 esi

; 687  : }

  000a5	8b e5		 mov	 esp, ebp
  000a7	5d		 pop	 ebp
  000a8	c2 18 00	 ret	 24			; 00000018H
?GetModifyType_Lines@CGannGrid@@ABE_NABVCRect@@ABVCPoint@@1H1AAW4ModifyType@CToolEnumData@@@Z ENDP ; CGannGrid::GetModifyType_Lines
_TEXT	ENDS
; Function compile flags: /Ogtp
; File D:\git\src\IBK\IBK_DRFN\ProjSrc\SrcChartEx\ChartAddIn\ChartAnalysisToolAddIn\AnalysisTool\FiboGann.cpp
; File C:\Program Files (x86)\Microsoft Visual Studio\2019\Community\VC\Tools\MSVC\14.29.30133\atlmfc\include\atltypes.h
; File D:\git\src\IBK\IBK_DRFN\ProjSrc\SrcChartEx\ChartAddIn\ChartAnalysisToolAddIn\AnalysisTool\FiboGann.cpp
; File C:\Program Files (x86)\Microsoft Visual Studio\2019\Community\VC\Tools\MSVC\14.29.30133\atlmfc\include\atltypes.h
; File D:\git\src\IBK\IBK_DRFN\ProjSrc\SrcChartEx\ChartAddIn\ChartAnalysisToolAddIn\AnalysisTool\FiboGann.cpp
; File C:\Program Files (x86)\Microsoft Visual Studio\2019\Community\VC\Tools\MSVC\14.29.30133\atlmfc\include\atltypes.h
; File D:\git\src\IBK\IBK_DRFN\ProjSrc\SrcChartEx\ChartAddIn\ChartAnalysisToolAddIn\AnalysisTool\FiboGann.cpp
; File C:\Program Files (x86)\Microsoft Visual Studio\2019\Community\VC\Tools\MSVC\14.29.30133\atlmfc\include\atltypes.h
; File D:\git\src\IBK\IBK_DRFN\ProjSrc\SrcChartEx\ChartAddIn\ChartAnalysisToolAddIn\AnalysisTool\FiboGann.cpp
; File C:\Program Files (x86)\Microsoft Visual Studio\2019\Community\VC\Tools\MSVC\14.29.30133\atlmfc\include\atltypes.h
; File D:\git\src\IBK\IBK_DRFN\ProjSrc\SrcChartEx\ChartAddIn\ChartAnalysisToolAddIn\AnalysisTool\FiboGann.cpp
; File C:\Program Files (x86)\Microsoft Visual Studio\2019\Community\VC\Tools\MSVC\14.29.30133\atlmfc\include\atltypes.h
; File D:\git\src\IBK\IBK_DRFN\ProjSrc\SrcChartEx\ChartAddIn\ChartAnalysisToolAddIn\AnalysisTool\FiboGann.cpp
; File C:\Program Files (x86)\Microsoft Visual Studio\2019\Community\VC\Tools\MSVC\14.29.30133\atlmfc\include\atltypes.h
; File D:\git\src\IBK\IBK_DRFN\ProjSrc\SrcChartEx\ChartAddIn\ChartAnalysisToolAddIn\AnalysisTool\FiboGann.cpp
; File C:\Program Files (x86)\Microsoft Visual Studio\2019\Community\VC\Tools\MSVC\14.29.30133\atlmfc\include\atltypes.h
; File D:\git\src\IBK\IBK_DRFN\ProjSrc\SrcChartEx\ChartAddIn\ChartAnalysisToolAddIn\AnalysisTool\FiboGann.cpp
;	COMDAT ?GetModifyType_SideLines@CGannGrid@@ABE?AW4ModifyType@CToolEnumData@@ABVCRect@@ABVCPoint@@11@Z
_TEXT	SEGMENT
$T1 = -32						; size = 8
$T2 = -24						; size = 8
_startPt$3 = -16					; size = 8
_endPt$4 = -8						; size = 8
_region$ = 8						; size = 4
_drawingPt1$ = 12					; size = 4
_drawingPt2$ = 16					; size = 4
_point$ = 20						; size = 4
?GetModifyType_SideLines@CGannGrid@@ABE?AW4ModifyType@CToolEnumData@@ABVCRect@@ABVCPoint@@11@Z PROC ; CGannGrid::GetModifyType_SideLines, COMDAT
; _this$ = ecx

; 655  : {

  00000	55		 push	 ebp
  00001	8b ec		 mov	 ebp, esp
  00003	83 ec 20	 sub	 esp, 32			; 00000020H
  00006	53		 push	 ebx

; 656  : 	int nIndex = 0;

  00007	8b 5d 0c	 mov	 ebx, DWORD PTR _drawingPt1$[ebp]
  0000a	56		 push	 esi
  0000b	57		 push	 edi
  0000c	8b f9		 mov	 edi, ecx
  0000e	33 f6		 xor	 esi, esi
$LN31@GetModifyT:

; 677  : 	if(!m_gannGridDrawer.GetLineEndPoints(region, linePt1, linePt2, nIndex, startPt, endPt))

  00010	8d 45 f8	 lea	 eax, DWORD PTR _endPt$4[ebp]
; File C:\Program Files (x86)\Microsoft Visual Studio\2019\Community\VC\Tools\MSVC\14.29.30133\atlmfc\include\atltypes.h

; 400  : 	x = 0;

  00013	c7 45 f0 00 00
	00 00		 mov	 DWORD PTR _startPt$3[ebp], 0
; File D:\git\src\IBK\IBK_DRFN\ProjSrc\SrcChartEx\ChartAddIn\ChartAnalysisToolAddIn\AnalysisTool\FiboGann.cpp

; 677  : 	if(!m_gannGridDrawer.GetLineEndPoints(region, linePt1, linePt2, nIndex, startPt, endPt))

  0001a	50		 push	 eax
  0001b	8d 45 f0	 lea	 eax, DWORD PTR _startPt$3[ebp]
; File C:\Program Files (x86)\Microsoft Visual Studio\2019\Community\VC\Tools\MSVC\14.29.30133\atlmfc\include\atltypes.h

; 401  : 	y = 0;

  0001e	c7 45 f4 00 00
	00 00		 mov	 DWORD PTR _startPt$3[ebp+4], 0
; File D:\git\src\IBK\IBK_DRFN\ProjSrc\SrcChartEx\ChartAddIn\ChartAnalysisToolAddIn\AnalysisTool\FiboGann.cpp

; 677  : 	if(!m_gannGridDrawer.GetLineEndPoints(region, linePt1, linePt2, nIndex, startPt, endPt))

  00025	50		 push	 eax
  00026	56		 push	 esi
  00027	ff 75 10	 push	 DWORD PTR _drawingPt2$[ebp]
; File C:\Program Files (x86)\Microsoft Visual Studio\2019\Community\VC\Tools\MSVC\14.29.30133\atlmfc\include\atltypes.h

; 400  : 	x = 0;

  0002a	8d 8f 90 00 00
	00		 lea	 ecx, DWORD PTR [edi+144]
  00030	c7 45 f8 00 00
	00 00		 mov	 DWORD PTR _endPt$4[ebp], 0
; File D:\git\src\IBK\IBK_DRFN\ProjSrc\SrcChartEx\ChartAddIn\ChartAnalysisToolAddIn\AnalysisTool\FiboGann.cpp

; 677  : 	if(!m_gannGridDrawer.GetLineEndPoints(region, linePt1, linePt2, nIndex, startPt, endPt))

  00037	53		 push	 ebx
  00038	ff 75 08	 push	 DWORD PTR _region$[ebp]
; File C:\Program Files (x86)\Microsoft Visual Studio\2019\Community\VC\Tools\MSVC\14.29.30133\atlmfc\include\atltypes.h

; 401  : 	y = 0;

  0003b	c7 45 fc 00 00
	00 00		 mov	 DWORD PTR _endPt$4[ebp+4], 0
; File D:\git\src\IBK\IBK_DRFN\ProjSrc\SrcChartEx\ChartAddIn\ChartAnalysisToolAddIn\AnalysisTool\FiboGann.cpp

; 677  : 	if(!m_gannGridDrawer.GetLineEndPoints(region, linePt1, linePt2, nIndex, startPt, endPt))

  00042	e8 00 00 00 00	 call	 ?GetLineEndPoints@CGannGridDrawer@@QBE_NABVCRect@@ABVCPoint@@1HAAV3@2@Z ; CGannGridDrawer::GetLineEndPoints
  00047	84 c0		 test	 al, al
  00049	74 51		 je	 SHORT $LN30@GetModifyT

; 678  : 		return false;
; 679  : 
; 680  : 	// 1
; 681  : 	modifyType = CTwoPointElement::GetModifyType_Line(startPt, endPt, point);

  0004b	ff 75 14	 push	 DWORD PTR _point$[ebp]
  0004e	8d 45 f8	 lea	 eax, DWORD PTR _endPt$4[ebp]
  00051	8b cf		 mov	 ecx, edi
  00053	50		 push	 eax
  00054	8d 45 f0	 lea	 eax, DWORD PTR _startPt$3[ebp]
  00057	50		 push	 eax
  00058	e8 00 00 00 00	 call	 ?GetModifyType_Line@CTwoPointElement@@IBE?AW4ModifyType@CToolEnumData@@ABVCPoint@@00@Z ; CTwoPointElement::GetModifyType_Line

; 682  : 	// 2
; 683  : 	if(modifyType == CToolEnumData::MODIFY_NONE)

  0005d	85 c0		 test	 eax, eax
  0005f	75 3d		 jne	 SHORT $LN1@GetModifyT

; 692  : 	return CPoint(point.x, (orgPt.y + (orgPt.y - point.y)));

  00061	8b 4b 04	 mov	 ecx, DWORD PTR [ebx+4]
; File C:\Program Files (x86)\Microsoft Visual Studio\2019\Community\VC\Tools\MSVC\14.29.30133\atlmfc\include\atltypes.h

; 408  : 	x = initX;

  00064	8b 45 f8	 mov	 eax, DWORD PTR _endPt$4[ebp]
; File D:\git\src\IBK\IBK_DRFN\ProjSrc\SrcChartEx\ChartAddIn\ChartAnalysisToolAddIn\AnalysisTool\FiboGann.cpp

; 692  : 	return CPoint(point.x, (orgPt.y + (orgPt.y - point.y)));

  00067	03 c9		 add	 ecx, ecx

; 684  : 		modifyType = CTwoPointElement::GetModifyType_Line(GetSymmetryPointOfXAxis(linePt1, startPt), GetSymmetryPointOfXAxis(linePt1, endPt), point);

  00069	ff 75 14	 push	 DWORD PTR _point$[ebp]
; File C:\Program Files (x86)\Microsoft Visual Studio\2019\Community\VC\Tools\MSVC\14.29.30133\atlmfc\include\atltypes.h

; 408  : 	x = initX;

  0006c	89 45 e8	 mov	 DWORD PTR $T2[ebp], eax
; File D:\git\src\IBK\IBK_DRFN\ProjSrc\SrcChartEx\ChartAddIn\ChartAnalysisToolAddIn\AnalysisTool\FiboGann.cpp

; 692  : 	return CPoint(point.x, (orgPt.y + (orgPt.y - point.y)));

  0006f	8b c1		 mov	 eax, ecx
  00071	2b 45 fc	 sub	 eax, DWORD PTR _endPt$4[ebp+4]
  00074	2b 4d f4	 sub	 ecx, DWORD PTR _startPt$3[ebp+4]
; File C:\Program Files (x86)\Microsoft Visual Studio\2019\Community\VC\Tools\MSVC\14.29.30133\atlmfc\include\atltypes.h

; 409  : 	y = initY;

  00077	89 45 ec	 mov	 DWORD PTR $T2[ebp+4], eax

; 408  : 	x = initX;

  0007a	8b 45 f0	 mov	 eax, DWORD PTR _startPt$3[ebp]
  0007d	89 45 e0	 mov	 DWORD PTR $T1[ebp], eax
; File D:\git\src\IBK\IBK_DRFN\ProjSrc\SrcChartEx\ChartAddIn\ChartAnalysisToolAddIn\AnalysisTool\FiboGann.cpp

; 684  : 		modifyType = CTwoPointElement::GetModifyType_Line(GetSymmetryPointOfXAxis(linePt1, startPt), GetSymmetryPointOfXAxis(linePt1, endPt), point);

  00080	8d 45 e8	 lea	 eax, DWORD PTR $T2[ebp]
  00083	50		 push	 eax
  00084	8d 45 e0	 lea	 eax, DWORD PTR $T1[ebp]
; File C:\Program Files (x86)\Microsoft Visual Studio\2019\Community\VC\Tools\MSVC\14.29.30133\atlmfc\include\atltypes.h

; 409  : 	y = initY;

  00087	89 4d e4	 mov	 DWORD PTR $T1[ebp+4], ecx
; File D:\git\src\IBK\IBK_DRFN\ProjSrc\SrcChartEx\ChartAddIn\ChartAnalysisToolAddIn\AnalysisTool\FiboGann.cpp

; 684  : 		modifyType = CTwoPointElement::GetModifyType_Line(GetSymmetryPointOfXAxis(linePt1, startPt), GetSymmetryPointOfXAxis(linePt1, endPt), point);

  0008a	50		 push	 eax
  0008b	8b cf		 mov	 ecx, edi
  0008d	e8 00 00 00 00	 call	 ?GetModifyType_Line@CTwoPointElement@@IBE?AW4ModifyType@CToolEnumData@@ABVCPoint@@00@Z ; CTwoPointElement::GetModifyType_Line

; 657  : 	while(true){
; 658  : 		CToolEnumData::ModifyType modifyType = CToolEnumData::MODIFY_NONE;
; 659  : 		if(!GetModifyType_Lines(region, drawingPt1, drawingPt2, nIndex, point, modifyType))
; 660  : 			break;
; 661  : 
; 662  : 		if(modifyType != CToolEnumData::MODIFY_NONE)

  00092	85 c0		 test	 eax, eax
  00094	75 08		 jne	 SHORT $LN1@GetModifyT

; 663  : 			return modifyType;
; 664  : 		nIndex++;	

  00096	46		 inc	 esi

; 665  : 	}

  00097	e9 74 ff ff ff	 jmp	 $LN31@GetModifyT
$LN30@GetModifyT:

; 666  : 
; 667  : 	return CToolEnumData::MODIFY_NONE;

  0009c	33 c0		 xor	 eax, eax
$LN1@GetModifyT:
  0009e	5f		 pop	 edi

; 668  : }

  0009f	5e		 pop	 esi
  000a0	5b		 pop	 ebx
  000a1	8b e5		 mov	 esp, ebp
  000a3	5d		 pop	 ebp
  000a4	c2 10 00	 ret	 16			; 00000010H
?GetModifyType_SideLines@CGannGrid@@ABE?AW4ModifyType@CToolEnumData@@ABVCRect@@ABVCPoint@@11@Z ENDP ; CGannGrid::GetModifyType_SideLines
_TEXT	ENDS
; Function compile flags: /Ogtp
; File D:\git\src\IBK\IBK_DRFN\ProjSrc\SrcChartEx\ChartAddIn\ChartAnalysisToolAddIn\AnalysisTool\FiboGann.cpp
;	COMDAT ?ElementInRegion@CGannGrid@@ABE_NHHH@Z
_TEXT	SEGMENT
_minRegion$ = 8						; size = 4
_maxRegion$ = 12					; size = 4
_data$ = 16						; size = 4
?ElementInRegion@CGannGrid@@ABE_NHHH@Z PROC		; CGannGrid::ElementInRegion, COMDAT
; _this$ = ecx

; 647  : {

  00000	55		 push	 ebp
  00001	8b ec		 mov	 ebp, esp

; 648  : 	return (data >= minRegion && data <= maxRegion);

  00003	8b 45 10	 mov	 eax, DWORD PTR _data$[ebp]
  00006	3b 45 08	 cmp	 eax, DWORD PTR _minRegion$[ebp]
  00009	7c 0b		 jl	 SHORT $LN3@ElementInR
  0000b	3b 45 0c	 cmp	 eax, DWORD PTR _maxRegion$[ebp]
  0000e	7f 06		 jg	 SHORT $LN3@ElementInR
  00010	b0 01		 mov	 al, 1

; 649  : }

  00012	5d		 pop	 ebp
  00013	c2 0c 00	 ret	 12			; 0000000cH
$LN3@ElementInR:

; 648  : 	return (data >= minRegion && data <= maxRegion);

  00016	32 c0		 xor	 al, al

; 649  : }

  00018	5d		 pop	 ebp
  00019	c2 0c 00	 ret	 12			; 0000000cH
?ElementInRegion@CGannGrid@@ABE_NHHH@Z ENDP		; CGannGrid::ElementInRegion
_TEXT	ENDS
; Function compile flags: /Ogtp
; File D:\git\src\IBK\IBK_DRFN\ProjSrc\SrcChartEx\ChartAddIn\ChartAnalysisToolAddIn\AnalysisTool\FiboGann.cpp
;	COMDAT ?GetModifyType@CGannGrid@@MBE?AW4ModifyType@CToolEnumData@@ABVCRect@@ABVCPoint@@11@Z
_TEXT	SEGMENT
_region$ = 8						; size = 4
_drawingStartPt$ = 12					; size = 4
_drawingEndPt$ = 16					; size = 4
_point$ = 20						; size = 4
?GetModifyType@CGannGrid@@MBE?AW4ModifyType@CToolEnumData@@ABVCRect@@ABVCPoint@@11@Z PROC ; CGannGrid::GetModifyType, COMDAT
; _this$ = ecx

; 628  : {

  00000	55		 push	 ebp
  00001	8b ec		 mov	 ebp, esp
  00003	53		 push	 ebx

; 629  : 	// element 
; 630  : 	CToolEnumData::ModifyType modifyType = CTwoPointElement::GetModifyType_SidePoints(drawingStartPt, drawingEndPt, point);

  00004	8b 5d 10	 mov	 ebx, DWORD PTR _drawingEndPt$[ebp]
  00007	56		 push	 esi
  00008	57		 push	 edi
  00009	8b 7d 14	 mov	 edi, DWORD PTR _point$[ebp]
  0000c	8b f1		 mov	 esi, ecx
  0000e	57		 push	 edi
  0000f	53		 push	 ebx
  00010	ff 75 0c	 push	 DWORD PTR _drawingStartPt$[ebp]
  00013	e8 00 00 00 00	 call	 ?GetModifyType_SidePoints@CTwoPointElement@@IBE?AW4ModifyType@CToolEnumData@@ABVCPoint@@00@Z ; CTwoPointElement::GetModifyType_SidePoints

; 631  : 	if(modifyType != CToolEnumData::MODIFY_NONE)

  00018	85 c0		 test	 eax, eax
  0001a	75 22		 jne	 SHORT $LN1@GetModifyT

; 632  : 		return modifyType;
; 633  : 
; 634  : 	// start point 
; 635  : 	modifyType = GetModifyType_SideLines(region, drawingStartPt, drawingEndPt, point);

  0001c	57		 push	 edi
  0001d	53		 push	 ebx
  0001e	ff 75 0c	 push	 DWORD PTR _drawingStartPt$[ebp]
  00021	8b ce		 mov	 ecx, esi
  00023	ff 75 08	 push	 DWORD PTR _region$[ebp]
  00026	e8 00 00 00 00	 call	 ?GetModifyType_SideLines@CGannGrid@@ABE?AW4ModifyType@CToolEnumData@@ABVCRect@@ABVCPoint@@11@Z ; CGannGrid::GetModifyType_SideLines

; 636  : 	if(modifyType != CToolEnumData::MODIFY_NONE)

  0002b	85 c0		 test	 eax, eax
  0002d	75 0f		 jne	 SHORT $LN1@GetModifyT

; 637  : 		return modifyType;
; 638  : 
; 639  : 	// end point 
; 640  : 	return GetModifyType_SideLines(region, drawingEndPt, drawingStartPt, point);

  0002f	57		 push	 edi
  00030	ff 75 0c	 push	 DWORD PTR _drawingStartPt$[ebp]
  00033	8b ce		 mov	 ecx, esi
  00035	53		 push	 ebx
  00036	ff 75 08	 push	 DWORD PTR _region$[ebp]
  00039	e8 00 00 00 00	 call	 ?GetModifyType_SideLines@CGannGrid@@ABE?AW4ModifyType@CToolEnumData@@ABVCRect@@ABVCPoint@@11@Z ; CGannGrid::GetModifyType_SideLines
$LN1@GetModifyT:

; 641  : }

  0003e	5f		 pop	 edi
  0003f	5e		 pop	 esi
  00040	5b		 pop	 ebx
  00041	5d		 pop	 ebp
  00042	c2 10 00	 ret	 16			; 00000010H
?GetModifyType@CGannGrid@@MBE?AW4ModifyType@CToolEnumData@@ABVCRect@@ABVCPoint@@11@Z ENDP ; CGannGrid::GetModifyType
_TEXT	ENDS
; Function compile flags: /Ogtp
; File D:\git\src\IBK\IBK_DRFN\ProjSrc\SrcChartEx\ChartAddIn\ChartAnalysisToolAddIn\AnalysisTool\FiboGann.cpp
;	COMDAT ?ElementInRegion@CGannGrid@@MBE_NABVCRect@@ABVCPoint@@11@Z
_TEXT	SEGMENT
_region$ = 8						; size = 4
_startPoint$ = 12					; size = 4
_endPoint$ = 16						; size = 4
___formal$ = 20						; size = 4
?ElementInRegion@CGannGrid@@MBE_NABVCRect@@ABVCPoint@@11@Z PROC ; CGannGrid::ElementInRegion, COMDAT
; _this$ = ecx

; 619  : {

  00000	55		 push	 ebp
  00001	8b ec		 mov	 ebp, esp

; 620  : 	if(ElementInRegion(region.top, region.bottom, startPoint.y))

  00003	8b 45 0c	 mov	 eax, DWORD PTR _startPoint$[ebp]

; 648  : 	return (data >= minRegion && data <= maxRegion);

  00006	8b 4d 08	 mov	 ecx, DWORD PTR _region$[ebp]

; 620  : 	if(ElementInRegion(region.top, region.bottom, startPoint.y))

  00009	8b 40 04	 mov	 eax, DWORD PTR [eax+4]

; 648  : 	return (data >= minRegion && data <= maxRegion);

  0000c	8b 51 04	 mov	 edx, DWORD PTR [ecx+4]
  0000f	3b c2		 cmp	 eax, edx
  00011	7c 0b		 jl	 SHORT $LN2@ElementInR
  00013	3b 41 0c	 cmp	 eax, DWORD PTR [ecx+12]
  00016	7f 06		 jg	 SHORT $LN2@ElementInR
$LN15@ElementInR:

; 624  : }

  00018	b0 01		 mov	 al, 1
  0001a	5d		 pop	 ebp
  0001b	c2 10 00	 ret	 16			; 00000010H
$LN2@ElementInR:

; 621  : 		return true;
; 622  : 
; 623  : 	return ElementInRegion(region.top, region.bottom, endPoint.y);

  0001e	8b 45 10	 mov	 eax, DWORD PTR _endPoint$[ebp]
  00021	8b 40 04	 mov	 eax, DWORD PTR [eax+4]

; 648  : 	return (data >= minRegion && data <= maxRegion);

  00024	3b c2		 cmp	 eax, edx
  00026	7c 05		 jl	 SHORT $LN10@ElementInR
  00028	3b 41 0c	 cmp	 eax, DWORD PTR [ecx+12]
  0002b	7e eb		 jle	 SHORT $LN15@ElementInR
$LN10@ElementInR:
  0002d	32 c0		 xor	 al, al

; 624  : }

  0002f	5d		 pop	 ebp
  00030	c2 10 00	 ret	 16			; 00000010H
?ElementInRegion@CGannGrid@@MBE_NABVCRect@@ABVCPoint@@11@Z ENDP ; CGannGrid::ElementInRegion
_TEXT	ENDS
; Function compile flags: /Ogtp
; File D:\git\src\IBK\IBK_DRFN\ProjSrc\SrcChartEx\ChartAddIn\ChartAnalysisToolAddIn\AnalysisTool\FiboGann.cpp
;	COMDAT ?GetTwoPointDrawer@CGannGrid@@MAEAAVCTwoPointDrawer@@XZ
_TEXT	SEGMENT
?GetTwoPointDrawer@CGannGrid@@MAEAAVCTwoPointDrawer@@XZ PROC ; CGannGrid::GetTwoPointDrawer, COMDAT
; _this$ = ecx

; 613  : 	return m_gannGridDrawer;

  00000	8d 81 90 00 00
	00		 lea	 eax, DWORD PTR [ecx+144]

; 614  : }

  00006	c3		 ret	 0
?GetTwoPointDrawer@CGannGrid@@MAEAAVCTwoPointDrawer@@XZ ENDP ; CGannGrid::GetTwoPointDrawer
_TEXT	ENDS
; Function compile flags: /Ogtp
; File D:\git\src\IBK\IBK_DRFN\ProjSrc\SrcChartEx\ChartAddIn\ChartAnalysisToolAddIn\AnalysisTool\FiboGann.cpp
;	COMDAT ?GetElementType@CGannGrid@@UBE?AW4ElementType@CToolEnumData@@XZ
_TEXT	SEGMENT
?GetElementType@CGannGrid@@UBE?AW4ElementType@CToolEnumData@@XZ PROC ; CGannGrid::GetElementType, COMDAT
; _this$ = ecx

; 607  : 	return CToolEnumData::Gann_Grid;

  00000	b8 13 00 00 00	 mov	 eax, 19			; 00000013H

; 608  : }

  00005	c3		 ret	 0
?GetElementType@CGannGrid@@UBE?AW4ElementType@CToolEnumData@@XZ ENDP ; CGannGrid::GetElementType
_TEXT	ENDS
; Function compile flags: /Ogtp
; File D:\git\src\IBK\IBK_DRFN\ProjSrc\SrcChartEx\ChartAddIn\ChartAnalysisToolAddIn\AnalysisTool\FiboGann.cpp
;	COMDAT ??0CGannGrid@@QAE@ABVCCoordinate@@0ABVCElementCommonEnvironment@@@Z
_TEXT	SEGMENT
_this$ = -16						; size = 4
__$EHRec$ = -12						; size = 12
_point1$ = 8						; size = 4
_point2$ = 12						; size = 4
_environment$ = 16					; size = 4
??0CGannGrid@@QAE@ABVCCoordinate@@0ABVCElementCommonEnvironment@@@Z PROC ; CGannGrid::CGannGrid, COMDAT
; _this$ = ecx

; 602  : {

  00000	55		 push	 ebp
  00001	8b ec		 mov	 ebp, esp
  00003	6a ff		 push	 -1
  00005	68 00 00 00 00	 push	 __ehhandler$??0CGannGrid@@QAE@ABVCCoordinate@@0ABVCElementCommonEnvironment@@@Z
  0000a	64 a1 00 00 00
	00		 mov	 eax, DWORD PTR fs:0
  00010	50		 push	 eax
  00011	51		 push	 ecx
  00012	56		 push	 esi
  00013	a1 00 00 00 00	 mov	 eax, DWORD PTR ___security_cookie
  00018	33 c5		 xor	 eax, ebp
  0001a	50		 push	 eax
  0001b	8d 45 f4	 lea	 eax, DWORD PTR __$EHRec$[ebp]
  0001e	64 a3 00 00 00
	00		 mov	 DWORD PTR fs:0, eax
  00024	8b f1		 mov	 esi, ecx
  00026	89 75 f0	 mov	 DWORD PTR _this$[ebp], esi

; 601  : 	CTwoPointElement(point1, point2, environment)

  00029	ff 75 10	 push	 DWORD PTR _environment$[ebp]
  0002c	ff 75 0c	 push	 DWORD PTR _point2$[ebp]
  0002f	ff 75 08	 push	 DWORD PTR _point1$[ebp]
  00032	e8 00 00 00 00	 call	 ??0CTwoPointElement@@QAE@ABVCCoordinate@@0ABVCElementCommonEnvironment@@@Z ; CTwoPointElement::CTwoPointElement

; 602  : {

  00037	c7 06 00 00 00
	00		 mov	 DWORD PTR [esi], OFFSET ??_7CGannGrid@@6B@
  0003d	8d 8e 98 00 00
	00		 lea	 ecx, DWORD PTR [esi+152]
  00043	c7 45 fc 00 00
	00 00		 mov	 DWORD PTR __$EHRec$[ebp+8], 0
  0004a	c7 86 94 00 00
	00 00 00 00 00	 mov	 DWORD PTR [esi+148], OFFSET ??_8CGannGridDrawer@@7B@
  00054	e8 00 00 00 00	 call	 ??0CDrawer@@QAE@XZ	; CDrawer::CDrawer
  00059	c7 86 90 00 00
	00 00 00 00 00	 mov	 DWORD PTR [esi+144], OFFSET ??_7CGannGridDrawer@@6B@

; 603  : }

  00063	8b c6		 mov	 eax, esi
  00065	8b 4d f4	 mov	 ecx, DWORD PTR __$EHRec$[ebp]
  00068	64 89 0d 00 00
	00 00		 mov	 DWORD PTR fs:0, ecx
  0006f	59		 pop	 ecx
  00070	5e		 pop	 esi
  00071	8b e5		 mov	 esp, ebp
  00073	5d		 pop	 ebp
  00074	c2 0c 00	 ret	 12			; 0000000cH
  00077	cc		 int	 3
  00078	cc		 int	 3
  00079	cc		 int	 3
  0007a	cc		 int	 3
  0007b	cc		 int	 3
_TEXT	ENDS
;	COMDAT text$x
text$x	SEGMENT
__ehhandler$??0CGannGrid@@QAE@ABVCCoordinate@@0ABVCElementCommonEnvironment@@@Z:
  00000	90		 npad	 1
  00001	90		 npad	 1
  00002	8b 54 24 08	 mov	 edx, DWORD PTR [esp+8]
  00006	8d 42 0c	 lea	 eax, DWORD PTR [edx+12]
  00009	8b 4a f4	 mov	 ecx, DWORD PTR [edx-12]
  0000c	33 c8		 xor	 ecx, eax
  0000e	e8 00 00 00 00	 call	 @__security_check_cookie@4
  00013	b8 00 00 00 00	 mov	 eax, OFFSET __ehfuncinfo$??0CGannGrid@@QAE@ABVCCoordinate@@0ABVCElementCommonEnvironment@@@Z
  00018	e9 00 00 00 00	 jmp	 ___CxxFrameHandler3
text$x	ENDS
??0CGannGrid@@QAE@ABVCCoordinate@@0ABVCElementCommonEnvironment@@@Z ENDP ; CGannGrid::CGannGrid
; Function compile flags: /Ogtp
; File D:\git\src\IBK\IBK_DRFN\ProjSrc\SrcChartEx\ChartAddIn\ChartAnalysisToolAddIn\AnalysisTool\Element.h
;	COMDAT ??_GCGannFan@@UAEPAXI@Z
_TEXT	SEGMENT
___flags$ = 8						; size = 4
??_GCGannFan@@UAEPAXI@Z PROC				; CGannFan::`scalar deleting destructor', COMDAT
; _this$ = ecx
  00000	55		 push	 ebp
  00001	8b ec		 mov	 ebp, esp

; 31   : 	virtual ~CElement()	{}

  00003	56		 push	 esi
  00004	8b f1		 mov	 esi, ecx
  00006	8d 8e 84 00 00
	00		 lea	 ecx, DWORD PTR [esi+132]
  0000c	ff 15 00 00 00
	00		 call	 DWORD PTR __imp_??1?$CStringT@DV?$StrTraitMFC_DLL@DV?$ChTraitsCRT@D@ATL@@@@@ATL@@QAE@XZ
  00012	8d 4e 64	 lea	 ecx, DWORD PTR [esi+100]
  00015	ff 15 00 00 00
	00		 call	 DWORD PTR __imp_??1?$CStringT@DV?$StrTraitMFC_DLL@DV?$ChTraitsCRT@D@ATL@@@@@ATL@@QAE@XZ
  0001b	8d 4e 40	 lea	 ecx, DWORD PTR [esi+64]
  0001e	c7 06 00 00 00
	00		 mov	 DWORD PTR [esi], OFFSET ??_7CElement@@6B@
  00024	ff 15 00 00 00
	00		 call	 DWORD PTR __imp_??1?$CStringT@DV?$StrTraitMFC_DLL@DV?$ChTraitsCRT@D@ATL@@@@@ATL@@QAE@XZ
  0002a	8d 4e 3c	 lea	 ecx, DWORD PTR [esi+60]
  0002d	ff 15 00 00 00
	00		 call	 DWORD PTR __imp_??1?$CStringT@DV?$StrTraitMFC_DLL@DV?$ChTraitsCRT@D@ATL@@@@@ATL@@QAE@XZ
  00033	8d 4e 38	 lea	 ecx, DWORD PTR [esi+56]
  00036	ff 15 00 00 00
	00		 call	 DWORD PTR __imp_??1?$CStringT@DV?$StrTraitMFC_DLL@DV?$ChTraitsCRT@D@ATL@@@@@ATL@@QAE@XZ
  0003c	f6 45 08 01	 test	 BYTE PTR ___flags$[ebp], 1
  00040	74 0e		 je	 SHORT $LN28@scalar
  00042	68 c0 00 00 00	 push	 192			; 000000c0H
  00047	56		 push	 esi
  00048	e8 00 00 00 00	 call	 ??3@YAXPAXI@Z		; operator delete
  0004d	83 c4 08	 add	 esp, 8
$LN28@scalar:
  00050	8b c6		 mov	 eax, esi
  00052	5e		 pop	 esi
  00053	5d		 pop	 ebp
  00054	c2 04 00	 ret	 4
??_GCGannFan@@UAEPAXI@Z ENDP				; CGannFan::`scalar deleting destructor'
_TEXT	ENDS
; Function compile flags: /Ogtp
; File D:\git\src\IBK\IBK_DRFN\ProjSrc\SrcChartEx\ChartAddIn\ChartAnalysisToolAddIn\AnalysisTool\FiboGann.cpp
; File C:\Program Files (x86)\Microsoft Visual Studio\2019\Community\VC\Tools\MSVC\14.29.30133\atlmfc\include\atltypes.h
; File D:\git\src\IBK\IBK_DRFN\ProjSrc\SrcChartEx\ChartAddIn\ChartAnalysisToolAddIn\AnalysisTool\FiboGann.cpp
; File C:\Program Files (x86)\Microsoft Visual Studio\2019\Community\VC\Tools\MSVC\14.29.30133\atlmfc\include\atltypes.h
; File D:\git\src\IBK\IBK_DRFN\ProjSrc\SrcChartEx\ChartAddIn\ChartAnalysisToolAddIn\AnalysisTool\FiboGann.cpp
;	COMDAT ?GetModifyType_Lines@CGannFan@@MBE?AW4ModifyType@CToolEnumData@@ABVCRect@@ABVCPoint@@11@Z
_TEXT	SEGMENT
_realEndPoint$1 = -12					; size = 8
_this$1$ = -4						; size = 4
_region$ = 8						; size = 4
_startPoint$ = 12					; size = 4
_endPoint$ = 16						; size = 4
_point$ = 20						; size = 4
?GetModifyType_Lines@CGannFan@@MBE?AW4ModifyType@CToolEnumData@@ABVCRect@@ABVCPoint@@11@Z PROC ; CGannFan::GetModifyType_Lines, COMDAT
; _this$ = ecx

; 583  : {

  00000	55		 push	 ebp
  00001	8b ec		 mov	 ebp, esp
  00003	83 ec 0c	 sub	 esp, 12			; 0000000cH
  00006	8b c1		 mov	 eax, ecx
  00008	53		 push	 ebx
  00009	56		 push	 esi
  0000a	57		 push	 edi

; 584  : 	for(int nIndex = 0; nIndex < m_gannFanDrawer.GetCount(); nIndex++){

  0000b	8d b8 a0 00 00
	00		 lea	 edi, DWORD PTR [eax+160]
  00011	89 45 fc	 mov	 DWORD PTR _this$1$[ebp], eax
  00014	8b cf		 mov	 ecx, edi
  00016	33 f6		 xor	 esi, esi
  00018	e8 00 00 00 00	 call	 ?GetCount@CGannFanDrawer@@QBEHXZ ; CGannFanDrawer::GetCount
  0001d	85 c0		 test	 eax, eax
  0001f	7e 48		 jle	 SHORT $LN15@GetModifyT
  00021	8b 5d 0c	 mov	 ebx, DWORD PTR _startPoint$[ebp]
$LL4@GetModifyT:

; 586  : 		if(!m_gannFanDrawer.GetLineEndPoint(region, startPoint, endPoint, nIndex, realEndPoint))

  00024	8d 45 f4	 lea	 eax, DWORD PTR _realEndPoint$1[ebp]
; File C:\Program Files (x86)\Microsoft Visual Studio\2019\Community\VC\Tools\MSVC\14.29.30133\atlmfc\include\atltypes.h

; 400  : 	x = 0;

  00027	c7 45 f4 00 00
	00 00		 mov	 DWORD PTR _realEndPoint$1[ebp], 0
; File D:\git\src\IBK\IBK_DRFN\ProjSrc\SrcChartEx\ChartAddIn\ChartAnalysisToolAddIn\AnalysisTool\FiboGann.cpp

; 586  : 		if(!m_gannFanDrawer.GetLineEndPoint(region, startPoint, endPoint, nIndex, realEndPoint))

  0002e	50		 push	 eax
  0002f	56		 push	 esi
  00030	ff 75 10	 push	 DWORD PTR _endPoint$[ebp]
  00033	8b cf		 mov	 ecx, edi
; File C:\Program Files (x86)\Microsoft Visual Studio\2019\Community\VC\Tools\MSVC\14.29.30133\atlmfc\include\atltypes.h

; 401  : 	y = 0;

  00035	c7 45 f8 00 00
	00 00		 mov	 DWORD PTR _realEndPoint$1[ebp+4], 0
; File D:\git\src\IBK\IBK_DRFN\ProjSrc\SrcChartEx\ChartAddIn\ChartAnalysisToolAddIn\AnalysisTool\FiboGann.cpp

; 586  : 		if(!m_gannFanDrawer.GetLineEndPoint(region, startPoint, endPoint, nIndex, realEndPoint))

  0003c	53		 push	 ebx
  0003d	ff 75 08	 push	 DWORD PTR _region$[ebp]
  00040	e8 00 00 00 00	 call	 ?GetLineEndPoint@CGannFanDrawer@@QBE_NABVCRect@@ABVCPoint@@1HAAV3@@Z ; CGannFanDrawer::GetLineEndPoint
  00045	84 c0		 test	 al, al
  00047	74 14		 je	 SHORT $LN2@GetModifyT

; 587  : 			continue;
; 588  : 
; 589  : 		CToolEnumData::ModifyType modifyType = CTwoPointElement::GetModifyType_Line(startPoint, realEndPoint, point);

  00049	ff 75 14	 push	 DWORD PTR _point$[ebp]
  0004c	8b 4d fc	 mov	 ecx, DWORD PTR _this$1$[ebp]
  0004f	8d 45 f4	 lea	 eax, DWORD PTR _realEndPoint$1[ebp]
  00052	50		 push	 eax
  00053	53		 push	 ebx
  00054	e8 00 00 00 00	 call	 ?GetModifyType_Line@CTwoPointElement@@IBE?AW4ModifyType@CToolEnumData@@ABVCPoint@@00@Z ; CTwoPointElement::GetModifyType_Line

; 590  : 		if(modifyType != CToolEnumData::MODIFY_NONE)

  00059	85 c0		 test	 eax, eax
  0005b	75 0e		 jne	 SHORT $LN1@GetModifyT
$LN2@GetModifyT:

; 584  : 	for(int nIndex = 0; nIndex < m_gannFanDrawer.GetCount(); nIndex++){

  0005d	8b cf		 mov	 ecx, edi
  0005f	46		 inc	 esi
  00060	e8 00 00 00 00	 call	 ?GetCount@CGannFanDrawer@@QBEHXZ ; CGannFanDrawer::GetCount
  00065	3b f0		 cmp	 esi, eax
  00067	7c bb		 jl	 SHORT $LL4@GetModifyT
$LN15@GetModifyT:

; 591  : 			return modifyType;
; 592  : 	}
; 593  : 	
; 594  : 	return CToolEnumData::MODIFY_NONE;

  00069	33 c0		 xor	 eax, eax
$LN1@GetModifyT:
  0006b	5f		 pop	 edi

; 595  : }

  0006c	5e		 pop	 esi
  0006d	5b		 pop	 ebx
  0006e	8b e5		 mov	 esp, ebp
  00070	5d		 pop	 ebp
  00071	c2 10 00	 ret	 16			; 00000010H
?GetModifyType_Lines@CGannFan@@MBE?AW4ModifyType@CToolEnumData@@ABVCRect@@ABVCPoint@@11@Z ENDP ; CGannFan::GetModifyType_Lines
_TEXT	ENDS
; Function compile flags: /Ogtp
; File D:\git\src\IBK\IBK_DRFN\ProjSrc\SrcChartEx\ChartAddIn\ChartAnalysisToolAddIn\AnalysisTool\FiboGann.cpp
;	COMDAT ?GetModifyType@CGannFan@@MBE?AW4ModifyType@CToolEnumData@@ABVCRect@@ABVCPoint@@11@Z
_TEXT	SEGMENT
_region$ = 8						; size = 4
_drawingStartPt$ = 12					; size = 4
_drawingEndPt$ = 16					; size = 4
_point$ = 20						; size = 4
?GetModifyType@CGannFan@@MBE?AW4ModifyType@CToolEnumData@@ABVCRect@@ABVCPoint@@11@Z PROC ; CGannFan::GetModifyType, COMDAT
; _this$ = ecx

; 576  : {

  00000	55		 push	 ebp
  00001	8b ec		 mov	 ebp, esp

; 577  : 	// line
; 578  : 	return GetModifyType_Lines(region, drawingStartPt, drawingEndPt, point);

  00003	8b 01		 mov	 eax, DWORD PTR [ecx]

; 579  : }

  00005	5d		 pop	 ebp

; 577  : 	// line
; 578  : 	return GetModifyType_Lines(region, drawingStartPt, drawingEndPt, point);

  00006	ff 60 50	 jmp	 DWORD PTR [eax+80]
?GetModifyType@CGannFan@@MBE?AW4ModifyType@CToolEnumData@@ABVCRect@@ABVCPoint@@11@Z ENDP ; CGannFan::GetModifyType
_TEXT	ENDS
; Function compile flags: /Ogtp
; File D:\git\src\IBK\IBK_DRFN\ProjSrc\SrcChartEx\ChartAddIn\ChartAnalysisToolAddIn\AnalysisTool\FiboGann.cpp
;	COMDAT ?GetTextPosition@CGannFan@@MAEPAVCTextPosition@@XZ
_TEXT	SEGMENT
?GetTextPosition@CGannFan@@MAEPAVCTextPosition@@XZ PROC	; CGannFan::GetTextPosition, COMDAT
; _this$ = ecx

; 571  : 	return &m_textPosition;

  00000	8d 81 90 00 00
	00		 lea	 eax, DWORD PTR [ecx+144]

; 572  : }

  00006	c3		 ret	 0
?GetTextPosition@CGannFan@@MAEPAVCTextPosition@@XZ ENDP	; CGannFan::GetTextPosition
_TEXT	ENDS
; Function compile flags: /Ogtp
; File D:\git\src\IBK\IBK_DRFN\ProjSrc\SrcChartEx\ChartAddIn\ChartAnalysisToolAddIn\AnalysisTool\FiboGann.cpp
;	COMDAT ?GetTextPosition@CGannFan@@MBEPBVCTextPosition@@XZ
_TEXT	SEGMENT
?GetTextPosition@CGannFan@@MBEPBVCTextPosition@@XZ PROC	; CGannFan::GetTextPosition, COMDAT
; _this$ = ecx

; 566  : 	return &m_textPosition;

  00000	8d 81 90 00 00
	00		 lea	 eax, DWORD PTR [ecx+144]

; 567  : }

  00006	c3		 ret	 0
?GetTextPosition@CGannFan@@MBEPBVCTextPosition@@XZ ENDP	; CGannFan::GetTextPosition
_TEXT	ENDS
; Function compile flags: /Ogtp
; File D:\git\src\IBK\IBK_DRFN\ProjSrc\SrcChartEx\ChartAddIn\ChartAnalysisToolAddIn\AnalysisTool\FiboGann.cpp
;	COMDAT ?GetGannDrawer@CGannFan@@MAEAAVCGannDrawer@@XZ
_TEXT	SEGMENT
?GetGannDrawer@CGannFan@@MAEAAVCGannDrawer@@XZ PROC	; CGannFan::GetGannDrawer, COMDAT
; _this$ = ecx

; 561  : 	return m_gannFanDrawer;

  00000	8d 81 a0 00 00
	00		 lea	 eax, DWORD PTR [ecx+160]

; 562  : }

  00006	c3		 ret	 0
?GetGannDrawer@CGannFan@@MAEAAVCGannDrawer@@XZ ENDP	; CGannFan::GetGannDrawer
_TEXT	ENDS
; Function compile flags: /Ogtp
; File D:\git\src\IBK\IBK_DRFN\ProjSrc\SrcChartEx\ChartAddIn\ChartAnalysisToolAddIn\AnalysisTool\FiboGann.cpp
;	COMDAT ?GetElementType@CGannFan@@UBE?AW4ElementType@CToolEnumData@@XZ
_TEXT	SEGMENT
?GetElementType@CGannFan@@UBE?AW4ElementType@CToolEnumData@@XZ PROC ; CGannFan::GetElementType, COMDAT
; _this$ = ecx

; 548  : 	if(m_nGannFanType==0)

  00000	8b 89 9c 00 00
	00		 mov	 ecx, DWORD PTR [ecx+156]
  00006	85 c9		 test	 ecx, ecx
  00008	75 04		 jne	 SHORT $LN2@GetElement

; 549  : 		return CToolEnumData::Gann_Fan1;

  0000a	8d 41 0f	 lea	 eax, DWORD PTR [ecx+15]

; 553  : 		return CToolEnumData::Gann_Fan3;
; 554  : 	else 
; 555  : 		return CToolEnumData::Gann_Fan4;
; 556  : }

  0000d	c3		 ret	 0
$LN2@GetElement:

; 550  : 	else if(m_nGannFanType==1)

  0000e	83 f9 01	 cmp	 ecx, 1
  00011	75 06		 jne	 SHORT $LN4@GetElement

; 551  : 		return CToolEnumData::Gann_Fan2;

  00013	b8 10 00 00 00	 mov	 eax, 16			; 00000010H

; 553  : 		return CToolEnumData::Gann_Fan3;
; 554  : 	else 
; 555  : 		return CToolEnumData::Gann_Fan4;
; 556  : }

  00018	c3		 ret	 0
$LN4@GetElement:

; 552  : 	else if(m_nGannFanType==2)

  00019	33 c0		 xor	 eax, eax
  0001b	83 f9 02	 cmp	 ecx, 2
  0001e	0f 95 c0	 setne	 al
  00021	83 c0 11	 add	 eax, 17			; 00000011H

; 553  : 		return CToolEnumData::Gann_Fan3;
; 554  : 	else 
; 555  : 		return CToolEnumData::Gann_Fan4;
; 556  : }

  00024	c3		 ret	 0
?GetElementType@CGannFan@@UBE?AW4ElementType@CToolEnumData@@XZ ENDP ; CGannFan::GetElementType
_TEXT	ENDS
; Function compile flags: /Ogtp
; File D:\git\src\IBK\IBK_DRFN\ProjSrc\SrcChartEx\ChartAddIn\ChartAnalysisToolAddIn\AnalysisTool\FiboGann.cpp
;	COMDAT ??0CGannFan@@QAE@ABVCTextShowPosition@@ABVCCoordinate@@1ABVCElementCommonEnvironment@@H@Z
_TEXT	SEGMENT
_this$ = -16						; size = 4
__$EHRec$ = -12						; size = 12
_position$ = 8						; size = 4
_point1$ = 12						; size = 4
_point2$ = 16						; size = 4
_environment$ = 20					; size = 4
_nGannType$ = 24					; size = 4
??0CGannFan@@QAE@ABVCTextShowPosition@@ABVCCoordinate@@1ABVCElementCommonEnvironment@@H@Z PROC ; CGannFan::CGannFan, COMDAT
; _this$ = ecx

; 543  : {

  00000	55		 push	 ebp
  00001	8b ec		 mov	 ebp, esp
  00003	6a ff		 push	 -1
  00005	68 00 00 00 00	 push	 __ehhandler$??0CGannFan@@QAE@ABVCTextShowPosition@@ABVCCoordinate@@1ABVCElementCommonEnvironment@@H@Z
  0000a	64 a1 00 00 00
	00		 mov	 eax, DWORD PTR fs:0
  00010	50		 push	 eax
  00011	51		 push	 ecx
  00012	56		 push	 esi
  00013	a1 00 00 00 00	 mov	 eax, DWORD PTR ___security_cookie
  00018	33 c5		 xor	 eax, ebp
  0001a	50		 push	 eax
  0001b	8d 45 f4	 lea	 eax, DWORD PTR __$EHRec$[ebp]
  0001e	64 a3 00 00 00
	00		 mov	 DWORD PTR fs:0, eax
  00024	8b f1		 mov	 esi, ecx
  00026	89 75 f0	 mov	 DWORD PTR _this$[ebp], esi

; 440  : 	CTwoPointElement(point1, point2, environment)

  00029	ff 75 14	 push	 DWORD PTR _environment$[ebp]
  0002c	ff 75 10	 push	 DWORD PTR _point2$[ebp]
  0002f	ff 75 0c	 push	 DWORD PTR _point1$[ebp]
  00032	e8 00 00 00 00	 call	 ??0CTwoPointElement@@QAE@ABVCCoordinate@@0ABVCElementCommonEnvironment@@@Z ; CTwoPointElement::CTwoPointElement

; 542  : 	m_textPosition(position)

  00037	ff 75 08	 push	 DWORD PTR _position$[ebp]
  0003a	8d 8e 90 00 00
	00		 lea	 ecx, DWORD PTR [esi+144]
  00040	c7 45 fc 00 00
	00 00		 mov	 DWORD PTR __$EHRec$[ebp+8], 0

; 543  : {

  00047	c7 06 00 00 00
	00		 mov	 DWORD PTR [esi], OFFSET ??_7CGannFan@@6B@
  0004d	e8 00 00 00 00	 call	 ??0CTextShowPosition@@QAE@ABV0@@Z ; CTextShowPosition::CTextShowPosition

; 441  : {
; 442  : }
; 443  : 
; 444  : // protected ==================================================================
; 445  : CTwoPointDrawer& CGann::GetTwoPointDrawer()
; 446  : {
; 447  : 	return (CTwoPointDrawer&) GetGannDrawer();
; 448  : }
; 449  : 
; 450  : // ----------------------------------------------------------------------------
; 451  : //   Element  
; 452  : bool CGann::ElementInRegion(const CRect& region, const CPoint& startPoint, const CPoint& endPoint, const CPoint& /*point*/) const
; 453  : {
; 454  : 	//  
; 455  : 	if(IsInAscendingPowers(region.right, startPoint.x, endPoint.x))
; 456  : 		return false;
; 457  : 	//  
; 458  : 	if(IsInAscendingPowers(endPoint.x, startPoint.x, region.left))
; 459  : 		return false;
; 460  : 	//  
; 461  : 	if(IsInAscendingPowers(endPoint.y, startPoint.y, region.top))
; 462  : 		return false;
; 463  : 	//  
; 464  : 	if(IsInAscendingPowers(region.bottom, startPoint.y, endPoint.y))
; 465  : 		return false;
; 466  : 
; 467  : 	return true;
; 468  : }
; 469  : 
; 470  : //  element    
; 471  : CToolEnumData::ModifyType CGann::GetModifyType(const CRect& region, const CPoint& drawingStartPt, const CPoint& drawingEndPt, const CPoint& point) const
; 472  : {
; 473  : 	// element 
; 474  : 	CToolEnumData::ModifyType modifyType = GetModifyType_SidePoints(drawingStartPt, drawingEndPt, point);
; 475  : 	if(modifyType != CToolEnumData::MODIFY_NONE)
; 476  : 		return modifyType;
; 477  : 
; 478  : 	// line
; 479  : 	return GetModifyType_Lines(region, drawingStartPt, drawingEndPt, point);
; 480  : }
; 481  : 
; 482  : // private ====================================================================
; 483  : //    --> nData1 <= nData2 <= nData3
; 484  : bool CGann::IsInAscendingPowers(const int nData1, const int nData2, const int nData3) const
; 485  : {
; 486  : 	return (nData1 <= nData2 && nData2 <= nData3);
; 487  : }
; 488  : 
; 489  : // modify type .  -> element 
; 490  : CToolEnumData::ModifyType CGann::GetModifyType_SidePoints(const CPoint& pt1, const CPoint& pt2, const CPoint& point) const
; 491  : {
; 492  : 	CToolEnumData::ModifyType modifyType = CTwoPointElement::GetModifyType_SidePoints(pt1, pt2, point);
; 493  : 
; 494  : 	if(modifyType == CToolEnumData::MODIFY_START)
; 495  : 		return CToolEnumData::MODIFY_CENTER;
; 496  : 	return modifyType;
; 497  : }
; 498  : 
; 499  : ///////////////////////////////////////////////////////////////////////////////
; 500  : // class CGannLine
; 501  : 
; 502  : CGannLine::CGannLine(const CCoordinate& point1, const CCoordinate& point2, const CElementCommonEnvironment& environment,int nGannType):
; 503  : 	CGann(point1, point2, environment),
; 504  : 	m_nGannLineType(nGannType)
; 505  : {
; 506  : }
; 507  : 
; 508  : CToolEnumData::ElementType CGannLine::GetElementType() const
; 509  : {
; 510  : 	if(m_nGannLineType == 0)
; 511  : 	{
; 512  : 		return CToolEnumData::Gann_Line1;
; 513  : 	}
; 514  : 	else
; 515  : 	{
; 516  : 		return CToolEnumData::Gann_Line2;
; 517  : 	}
; 518  : }
; 519  : 
; 520  : // protected ==================================================================
; 521  : CGannDrawer& CGannLine::GetGannDrawer()
; 522  : {
; 523  : 	return m_gannLineDrawer;
; 524  : }
; 525  : 
; 526  : CToolEnumData::ModifyType CGannLine::GetModifyType_Lines(const CRect& region, const CPoint& startPoint, const CPoint& endPoint, const CPoint& point) const
; 527  : {
; 528  : 	CPoint realEndPoint;
; 529  : 	if(!m_gannLineDrawer.GetLineEndPoint(region, startPoint, endPoint, realEndPoint))
; 530  : 		return CToolEnumData::MODIFY_NONE;
; 531  : 
; 532  : 	return CTwoPointElement::GetModifyType_Line(startPoint, realEndPoint, point);
; 533  : }
; 534  : 
; 535  : ///////////////////////////////////////////////////////////////////////////////
; 536  : // class CGannFan
; 537  : 
; 538  : CGannFan::CGannFan(const CTextShowPosition& position,const CCoordinate& point1, 
; 539  : 				   const CCoordinate& point2, const CElementCommonEnvironment& environment,int nGannType):
; 540  : 	CGann(point1, point2, environment),
; 541  : 	m_nGannFanType(nGannType),

  00052	8b 45 18	 mov	 eax, DWORD PTR _nGannType$[ebp]
  00055	89 86 9c 00 00
	00		 mov	 DWORD PTR [esi+156], eax
  0005b	8d 8e a8 00 00
	00		 lea	 ecx, DWORD PTR [esi+168]
  00061	c6 45 fc 01	 mov	 BYTE PTR __$EHRec$[ebp+8], 1
  00065	c7 86 a4 00 00
	00 00 00 00 00	 mov	 DWORD PTR [esi+164], OFFSET ??_8CGannFanDrawer@@7B@
  0006f	e8 00 00 00 00	 call	 ??0CDrawer@@QAE@XZ	; CDrawer::CDrawer
  00074	c7 86 a0 00 00
	00 00 00 00 00	 mov	 DWORD PTR [esi+160], OFFSET ??_7CGannFanDrawer@@6B@

; 544  : }

  0007e	8b c6		 mov	 eax, esi
  00080	8b 4d f4	 mov	 ecx, DWORD PTR __$EHRec$[ebp]
  00083	64 89 0d 00 00
	00 00		 mov	 DWORD PTR fs:0, ecx
  0008a	59		 pop	 ecx
  0008b	5e		 pop	 esi
  0008c	8b e5		 mov	 esp, ebp
  0008e	5d		 pop	 ebp
  0008f	c2 14 00	 ret	 20			; 00000014H
_TEXT	ENDS
;	COMDAT text$x
text$x	SEGMENT
__unwindfunclet$??0CGannFan@@QAE@ABVCTextShowPosition@@ABVCCoordinate@@1ABVCElementCommonEnvironment@@H@Z$0:
  00000	8b 4d f0	 mov	 ecx, DWORD PTR _this$[ebp]
  00003	e9 00 00 00 00	 jmp	 ??1CGann@@UAE@XZ
  00008	cc		 int	 3
  00009	cc		 int	 3
  0000a	cc		 int	 3
  0000b	cc		 int	 3
  0000c	cc		 int	 3
__ehhandler$??0CGannFan@@QAE@ABVCTextShowPosition@@ABVCCoordinate@@1ABVCElementCommonEnvironment@@H@Z:
  0000d	90		 npad	 1
  0000e	90		 npad	 1
  0000f	8b 54 24 08	 mov	 edx, DWORD PTR [esp+8]
  00013	8d 42 0c	 lea	 eax, DWORD PTR [edx+12]
  00016	8b 4a f4	 mov	 ecx, DWORD PTR [edx-12]
  00019	33 c8		 xor	 ecx, eax
  0001b	e8 00 00 00 00	 call	 @__security_check_cookie@4
  00020	b8 00 00 00 00	 mov	 eax, OFFSET __ehfuncinfo$??0CGannFan@@QAE@ABVCTextShowPosition@@ABVCCoordinate@@1ABVCElementCommonEnvironment@@H@Z
  00025	e9 00 00 00 00	 jmp	 ___CxxFrameHandler3
text$x	ENDS
??0CGannFan@@QAE@ABVCTextShowPosition@@ABVCCoordinate@@1ABVCElementCommonEnvironment@@H@Z ENDP ; CGannFan::CGannFan
; Function compile flags: /Ogtp
; File D:\git\src\IBK\IBK_DRFN\ProjSrc\SrcChartEx\ChartAddIn\ChartAnalysisToolAddIn\AnalysisTool\Element.h
;	COMDAT ??_GCGannLine@@UAEPAXI@Z
_TEXT	SEGMENT
___flags$ = 8						; size = 4
??_GCGannLine@@UAEPAXI@Z PROC				; CGannLine::`scalar deleting destructor', COMDAT
; _this$ = ecx
  00000	55		 push	 ebp
  00001	8b ec		 mov	 ebp, esp

; 31   : 	virtual ~CElement()	{}

  00003	56		 push	 esi
  00004	8b f1		 mov	 esi, ecx
  00006	8d 8e 84 00 00
	00		 lea	 ecx, DWORD PTR [esi+132]
  0000c	ff 15 00 00 00
	00		 call	 DWORD PTR __imp_??1?$CStringT@DV?$StrTraitMFC_DLL@DV?$ChTraitsCRT@D@ATL@@@@@ATL@@QAE@XZ
  00012	8d 4e 64	 lea	 ecx, DWORD PTR [esi+100]
  00015	ff 15 00 00 00
	00		 call	 DWORD PTR __imp_??1?$CStringT@DV?$StrTraitMFC_DLL@DV?$ChTraitsCRT@D@ATL@@@@@ATL@@QAE@XZ
  0001b	8d 4e 40	 lea	 ecx, DWORD PTR [esi+64]
  0001e	c7 06 00 00 00
	00		 mov	 DWORD PTR [esi], OFFSET ??_7CElement@@6B@
  00024	ff 15 00 00 00
	00		 call	 DWORD PTR __imp_??1?$CStringT@DV?$StrTraitMFC_DLL@DV?$ChTraitsCRT@D@ATL@@@@@ATL@@QAE@XZ
  0002a	8d 4e 3c	 lea	 ecx, DWORD PTR [esi+60]
  0002d	ff 15 00 00 00
	00		 call	 DWORD PTR __imp_??1?$CStringT@DV?$StrTraitMFC_DLL@DV?$ChTraitsCRT@D@ATL@@@@@ATL@@QAE@XZ
  00033	8d 4e 38	 lea	 ecx, DWORD PTR [esi+56]
  00036	ff 15 00 00 00
	00		 call	 DWORD PTR __imp_??1?$CStringT@DV?$StrTraitMFC_DLL@DV?$ChTraitsCRT@D@ATL@@@@@ATL@@QAE@XZ
  0003c	f6 45 08 01	 test	 BYTE PTR ___flags$[ebp], 1
  00040	74 0e		 je	 SHORT $LN28@scalar
  00042	68 b0 00 00 00	 push	 176			; 000000b0H
  00047	56		 push	 esi
  00048	e8 00 00 00 00	 call	 ??3@YAXPAXI@Z		; operator delete
  0004d	83 c4 08	 add	 esp, 8
$LN28@scalar:
  00050	8b c6		 mov	 eax, esi
  00052	5e		 pop	 esi
  00053	5d		 pop	 ebp
  00054	c2 04 00	 ret	 4
??_GCGannLine@@UAEPAXI@Z ENDP				; CGannLine::`scalar deleting destructor'
_TEXT	ENDS
; Function compile flags: /Ogtp
; File D:\git\src\IBK\IBK_DRFN\ProjSrc\SrcChartEx\ChartAddIn\ChartAnalysisToolAddIn\AnalysisTool\FiboGann.cpp
; File C:\Program Files (x86)\Microsoft Visual Studio\2019\Community\VC\Tools\MSVC\14.29.30133\atlmfc\include\atltypes.h
; File D:\git\src\IBK\IBK_DRFN\ProjSrc\SrcChartEx\ChartAddIn\ChartAnalysisToolAddIn\AnalysisTool\FiboGann.cpp
; File C:\Program Files (x86)\Microsoft Visual Studio\2019\Community\VC\Tools\MSVC\14.29.30133\atlmfc\include\atltypes.h
; File D:\git\src\IBK\IBK_DRFN\ProjSrc\SrcChartEx\ChartAddIn\ChartAnalysisToolAddIn\AnalysisTool\FiboGann.cpp
;	COMDAT ?GetModifyType_Lines@CGannLine@@MBE?AW4ModifyType@CToolEnumData@@ABVCRect@@ABVCPoint@@11@Z
_TEXT	SEGMENT
_realEndPoint$ = -8					; size = 8
_region$ = 8						; size = 4
_startPoint$ = 12					; size = 4
_endPoint$ = 16						; size = 4
_point$ = 20						; size = 4
?GetModifyType_Lines@CGannLine@@MBE?AW4ModifyType@CToolEnumData@@ABVCRect@@ABVCPoint@@11@Z PROC ; CGannLine::GetModifyType_Lines, COMDAT
; _this$ = ecx

; 527  : {

  00000	55		 push	 ebp
  00001	8b ec		 mov	 ebp, esp
  00003	83 ec 08	 sub	 esp, 8
  00006	56		 push	 esi

; 529  : 	if(!m_gannLineDrawer.GetLineEndPoint(region, startPoint, endPoint, realEndPoint))

  00007	8d 45 f8	 lea	 eax, DWORD PTR _realEndPoint$[ebp]
; File C:\Program Files (x86)\Microsoft Visual Studio\2019\Community\VC\Tools\MSVC\14.29.30133\atlmfc\include\atltypes.h

; 400  : 	x = 0;

  0000a	c7 45 f8 00 00
	00 00		 mov	 DWORD PTR _realEndPoint$[ebp], 0
; File D:\git\src\IBK\IBK_DRFN\ProjSrc\SrcChartEx\ChartAddIn\ChartAnalysisToolAddIn\AnalysisTool\FiboGann.cpp

; 529  : 	if(!m_gannLineDrawer.GetLineEndPoint(region, startPoint, endPoint, realEndPoint))

  00011	50		 push	 eax
  00012	ff 75 10	 push	 DWORD PTR _endPoint$[ebp]
  00015	8b f1		 mov	 esi, ecx
; File C:\Program Files (x86)\Microsoft Visual Studio\2019\Community\VC\Tools\MSVC\14.29.30133\atlmfc\include\atltypes.h

; 401  : 	y = 0;

  00017	c7 45 fc 00 00
	00 00		 mov	 DWORD PTR _realEndPoint$[ebp+4], 0
; File D:\git\src\IBK\IBK_DRFN\ProjSrc\SrcChartEx\ChartAddIn\ChartAnalysisToolAddIn\AnalysisTool\FiboGann.cpp

; 529  : 	if(!m_gannLineDrawer.GetLineEndPoint(region, startPoint, endPoint, realEndPoint))

  0001e	ff 75 0c	 push	 DWORD PTR _startPoint$[ebp]
  00021	ff 75 08	 push	 DWORD PTR _region$[ebp]
  00024	8d 8e 94 00 00
	00		 lea	 ecx, DWORD PTR [esi+148]
  0002a	e8 00 00 00 00	 call	 ?GetLineEndPoint@CGannLineDrawer@@QBE_NABVCRect@@ABVCPoint@@1AAV3@@Z ; CGannLineDrawer::GetLineEndPoint
  0002f	84 c0		 test	 al, al
  00031	75 09		 jne	 SHORT $LN2@GetModifyT

; 530  : 		return CToolEnumData::MODIFY_NONE;

  00033	33 c0		 xor	 eax, eax
  00035	5e		 pop	 esi

; 533  : }

  00036	8b e5		 mov	 esp, ebp
  00038	5d		 pop	 ebp
  00039	c2 10 00	 ret	 16			; 00000010H
$LN2@GetModifyT:

; 531  : 
; 532  : 	return CTwoPointElement::GetModifyType_Line(startPoint, realEndPoint, point);

  0003c	ff 75 14	 push	 DWORD PTR _point$[ebp]
  0003f	8d 45 f8	 lea	 eax, DWORD PTR _realEndPoint$[ebp]
  00042	8b ce		 mov	 ecx, esi
  00044	50		 push	 eax
  00045	ff 75 0c	 push	 DWORD PTR _startPoint$[ebp]
  00048	e8 00 00 00 00	 call	 ?GetModifyType_Line@CTwoPointElement@@IBE?AW4ModifyType@CToolEnumData@@ABVCPoint@@00@Z ; CTwoPointElement::GetModifyType_Line
  0004d	5e		 pop	 esi

; 533  : }

  0004e	8b e5		 mov	 esp, ebp
  00050	5d		 pop	 ebp
  00051	c2 10 00	 ret	 16			; 00000010H
?GetModifyType_Lines@CGannLine@@MBE?AW4ModifyType@CToolEnumData@@ABVCRect@@ABVCPoint@@11@Z ENDP ; CGannLine::GetModifyType_Lines
_TEXT	ENDS
; Function compile flags: /Ogtp
; File D:\git\src\IBK\IBK_DRFN\ProjSrc\SrcChartEx\ChartAddIn\ChartAnalysisToolAddIn\AnalysisTool\FiboGann.cpp
;	COMDAT ?GetGannDrawer@CGannLine@@MAEAAVCGannDrawer@@XZ
_TEXT	SEGMENT
?GetGannDrawer@CGannLine@@MAEAAVCGannDrawer@@XZ PROC	; CGannLine::GetGannDrawer, COMDAT
; _this$ = ecx

; 523  : 	return m_gannLineDrawer;

  00000	8d 81 94 00 00
	00		 lea	 eax, DWORD PTR [ecx+148]

; 524  : }

  00006	c3		 ret	 0
?GetGannDrawer@CGannLine@@MAEAAVCGannDrawer@@XZ ENDP	; CGannLine::GetGannDrawer
_TEXT	ENDS
; Function compile flags: /Ogtp
; File D:\git\src\IBK\IBK_DRFN\ProjSrc\SrcChartEx\ChartAddIn\ChartAnalysisToolAddIn\AnalysisTool\FiboGann.cpp
;	COMDAT ?GetElementType@CGannLine@@UBE?AW4ElementType@CToolEnumData@@XZ
_TEXT	SEGMENT
?GetElementType@CGannLine@@UBE?AW4ElementType@CToolEnumData@@XZ PROC ; CGannLine::GetElementType, COMDAT
; _this$ = ecx

; 510  : 	if(m_nGannLineType == 0)

  00000	33 c0		 xor	 eax, eax
  00002	39 81 90 00 00
	00		 cmp	 DWORD PTR [ecx+144], eax
  00008	0f 95 c0	 setne	 al
  0000b	83 c0 0d	 add	 eax, 13			; 0000000dH

; 511  : 	{
; 512  : 		return CToolEnumData::Gann_Line1;
; 513  : 	}
; 514  : 	else
; 515  : 	{
; 516  : 		return CToolEnumData::Gann_Line2;
; 517  : 	}
; 518  : }

  0000e	c3		 ret	 0
?GetElementType@CGannLine@@UBE?AW4ElementType@CToolEnumData@@XZ ENDP ; CGannLine::GetElementType
_TEXT	ENDS
; Function compile flags: /Ogtp
; File D:\git\src\IBK\IBK_DRFN\ProjSrc\SrcChartEx\ChartAddIn\ChartAnalysisToolAddIn\AnalysisTool\FiboGann.cpp
;	COMDAT ??0CGannLine@@QAE@ABVCCoordinate@@0ABVCElementCommonEnvironment@@H@Z
_TEXT	SEGMENT
_this$ = -16						; size = 4
__$EHRec$ = -12						; size = 12
_point1$ = 8						; size = 4
_point2$ = 12						; size = 4
_environment$ = 16					; size = 4
_nGannType$ = 20					; size = 4
??0CGannLine@@QAE@ABVCCoordinate@@0ABVCElementCommonEnvironment@@H@Z PROC ; CGannLine::CGannLine, COMDAT
; _this$ = ecx

; 505  : {

  00000	55		 push	 ebp
  00001	8b ec		 mov	 ebp, esp
  00003	6a ff		 push	 -1
  00005	68 00 00 00 00	 push	 __ehhandler$??0CGannLine@@QAE@ABVCCoordinate@@0ABVCElementCommonEnvironment@@H@Z
  0000a	64 a1 00 00 00
	00		 mov	 eax, DWORD PTR fs:0
  00010	50		 push	 eax
  00011	51		 push	 ecx
  00012	56		 push	 esi
  00013	a1 00 00 00 00	 mov	 eax, DWORD PTR ___security_cookie
  00018	33 c5		 xor	 eax, ebp
  0001a	50		 push	 eax
  0001b	8d 45 f4	 lea	 eax, DWORD PTR __$EHRec$[ebp]
  0001e	64 a3 00 00 00
	00		 mov	 DWORD PTR fs:0, eax
  00024	8b f1		 mov	 esi, ecx
  00026	89 75 f0	 mov	 DWORD PTR _this$[ebp], esi

; 440  : 	CTwoPointElement(point1, point2, environment)

  00029	ff 75 10	 push	 DWORD PTR _environment$[ebp]
  0002c	ff 75 0c	 push	 DWORD PTR _point2$[ebp]
  0002f	ff 75 08	 push	 DWORD PTR _point1$[ebp]
  00032	e8 00 00 00 00	 call	 ??0CTwoPointElement@@QAE@ABVCCoordinate@@0ABVCElementCommonEnvironment@@@Z ; CTwoPointElement::CTwoPointElement

; 441  : {
; 442  : }
; 443  : 
; 444  : // protected ==================================================================
; 445  : CTwoPointDrawer& CGann::GetTwoPointDrawer()
; 446  : {
; 447  : 	return (CTwoPointDrawer&) GetGannDrawer();
; 448  : }
; 449  : 
; 450  : // ----------------------------------------------------------------------------
; 451  : //   Element  
; 452  : bool CGann::ElementInRegion(const CRect& region, const CPoint& startPoint, const CPoint& endPoint, const CPoint& /*point*/) const
; 453  : {
; 454  : 	//  
; 455  : 	if(IsInAscendingPowers(region.right, startPoint.x, endPoint.x))
; 456  : 		return false;
; 457  : 	//  
; 458  : 	if(IsInAscendingPowers(endPoint.x, startPoint.x, region.left))
; 459  : 		return false;
; 460  : 	//  
; 461  : 	if(IsInAscendingPowers(endPoint.y, startPoint.y, region.top))
; 462  : 		return false;
; 463  : 	//  
; 464  : 	if(IsInAscendingPowers(region.bottom, startPoint.y, endPoint.y))
; 465  : 		return false;
; 466  : 
; 467  : 	return true;
; 468  : }
; 469  : 
; 470  : //  element    
; 471  : CToolEnumData::ModifyType CGann::GetModifyType(const CRect& region, const CPoint& drawingStartPt, const CPoint& drawingEndPt, const CPoint& point) const
; 472  : {
; 473  : 	// element 
; 474  : 	CToolEnumData::ModifyType modifyType = GetModifyType_SidePoints(drawingStartPt, drawingEndPt, point);
; 475  : 	if(modifyType != CToolEnumData::MODIFY_NONE)
; 476  : 		return modifyType;
; 477  : 
; 478  : 	// line
; 479  : 	return GetModifyType_Lines(region, drawingStartPt, drawingEndPt, point);
; 480  : }
; 481  : 
; 482  : // private ====================================================================
; 483  : //    --> nData1 <= nData2 <= nData3
; 484  : bool CGann::IsInAscendingPowers(const int nData1, const int nData2, const int nData3) const
; 485  : {
; 486  : 	return (nData1 <= nData2 && nData2 <= nData3);
; 487  : }
; 488  : 
; 489  : // modify type .  -> element 
; 490  : CToolEnumData::ModifyType CGann::GetModifyType_SidePoints(const CPoint& pt1, const CPoint& pt2, const CPoint& point) const
; 491  : {
; 492  : 	CToolEnumData::ModifyType modifyType = CTwoPointElement::GetModifyType_SidePoints(pt1, pt2, point);
; 493  : 
; 494  : 	if(modifyType == CToolEnumData::MODIFY_START)
; 495  : 		return CToolEnumData::MODIFY_CENTER;
; 496  : 	return modifyType;
; 497  : }
; 498  : 
; 499  : ///////////////////////////////////////////////////////////////////////////////
; 500  : // class CGannLine
; 501  : 
; 502  : CGannLine::CGannLine(const CCoordinate& point1, const CCoordinate& point2, const CElementCommonEnvironment& environment,int nGannType):
; 503  : 	CGann(point1, point2, environment),
; 504  : 	m_nGannLineType(nGannType)

  00037	8b 45 14	 mov	 eax, DWORD PTR _nGannType$[ebp]
  0003a	c7 06 00 00 00
	00		 mov	 DWORD PTR [esi], OFFSET ??_7CGannLine@@6B@
  00040	89 86 90 00 00
	00		 mov	 DWORD PTR [esi+144], eax
  00046	8d 8e 9c 00 00
	00		 lea	 ecx, DWORD PTR [esi+156]
  0004c	c7 45 fc 00 00
	00 00		 mov	 DWORD PTR __$EHRec$[ebp+8], 0
  00053	c7 86 98 00 00
	00 00 00 00 00	 mov	 DWORD PTR [esi+152], OFFSET ??_8CGannLineDrawer@@7B@
  0005d	e8 00 00 00 00	 call	 ??0CDrawer@@QAE@XZ	; CDrawer::CDrawer
  00062	c7 86 94 00 00
	00 00 00 00 00	 mov	 DWORD PTR [esi+148], OFFSET ??_7CGannLineDrawer@@6B@

; 506  : }

  0006c	8b c6		 mov	 eax, esi
  0006e	8b 4d f4	 mov	 ecx, DWORD PTR __$EHRec$[ebp]
  00071	64 89 0d 00 00
	00 00		 mov	 DWORD PTR fs:0, ecx
  00078	59		 pop	 ecx
  00079	5e		 pop	 esi
  0007a	8b e5		 mov	 esp, ebp
  0007c	5d		 pop	 ebp
  0007d	c2 10 00	 ret	 16			; 00000010H
  00080	cc		 int	 3
  00081	cc		 int	 3
  00082	cc		 int	 3
  00083	cc		 int	 3
  00084	cc		 int	 3
_TEXT	ENDS
;	COMDAT text$x
text$x	SEGMENT
__ehhandler$??0CGannLine@@QAE@ABVCCoordinate@@0ABVCElementCommonEnvironment@@H@Z:
  00000	90		 npad	 1
  00001	90		 npad	 1
  00002	8b 54 24 08	 mov	 edx, DWORD PTR [esp+8]
  00006	8d 42 0c	 lea	 eax, DWORD PTR [edx+12]
  00009	8b 4a f4	 mov	 ecx, DWORD PTR [edx-12]
  0000c	33 c8		 xor	 ecx, eax
  0000e	e8 00 00 00 00	 call	 @__security_check_cookie@4
  00013	b8 00 00 00 00	 mov	 eax, OFFSET __ehfuncinfo$??0CGannLine@@QAE@ABVCCoordinate@@0ABVCElementCommonEnvironment@@H@Z
  00018	e9 00 00 00 00	 jmp	 ___CxxFrameHandler3
text$x	ENDS
??0CGannLine@@QAE@ABVCCoordinate@@0ABVCElementCommonEnvironment@@H@Z ENDP ; CGannLine::CGannLine
; Function compile flags: /Ogtp
; File D:\git\src\IBK\IBK_DRFN\ProjSrc\SrcChartEx\ChartAddIn\ChartAnalysisToolAddIn\AnalysisTool\Element.h
;	COMDAT ??_GCGann@@UAEPAXI@Z
_TEXT	SEGMENT
___flags$ = 8						; size = 4
??_GCGann@@UAEPAXI@Z PROC				; CGann::`scalar deleting destructor', COMDAT
; _this$ = ecx
  00000	55		 push	 ebp
  00001	8b ec		 mov	 ebp, esp

; 31   : 	virtual ~CElement()	{}

  00003	56		 push	 esi
  00004	8b f1		 mov	 esi, ecx
  00006	8d 8e 84 00 00
	00		 lea	 ecx, DWORD PTR [esi+132]
  0000c	ff 15 00 00 00
	00		 call	 DWORD PTR __imp_??1?$CStringT@DV?$StrTraitMFC_DLL@DV?$ChTraitsCRT@D@ATL@@@@@ATL@@QAE@XZ
  00012	8d 4e 64	 lea	 ecx, DWORD PTR [esi+100]
  00015	ff 15 00 00 00
	00		 call	 DWORD PTR __imp_??1?$CStringT@DV?$StrTraitMFC_DLL@DV?$ChTraitsCRT@D@ATL@@@@@ATL@@QAE@XZ
  0001b	8d 4e 40	 lea	 ecx, DWORD PTR [esi+64]
  0001e	c7 06 00 00 00
	00		 mov	 DWORD PTR [esi], OFFSET ??_7CElement@@6B@
  00024	ff 15 00 00 00
	00		 call	 DWORD PTR __imp_??1?$CStringT@DV?$StrTraitMFC_DLL@DV?$ChTraitsCRT@D@ATL@@@@@ATL@@QAE@XZ
  0002a	8d 4e 3c	 lea	 ecx, DWORD PTR [esi+60]
  0002d	ff 15 00 00 00
	00		 call	 DWORD PTR __imp_??1?$CStringT@DV?$StrTraitMFC_DLL@DV?$ChTraitsCRT@D@ATL@@@@@ATL@@QAE@XZ
  00033	8d 4e 38	 lea	 ecx, DWORD PTR [esi+56]
  00036	ff 15 00 00 00
	00		 call	 DWORD PTR __imp_??1?$CStringT@DV?$StrTraitMFC_DLL@DV?$ChTraitsCRT@D@ATL@@@@@ATL@@QAE@XZ
  0003c	f6 45 08 01	 test	 BYTE PTR ___flags$[ebp], 1
  00040	74 0e		 je	 SHORT $LN25@scalar
  00042	68 90 00 00 00	 push	 144			; 00000090H
  00047	56		 push	 esi
  00048	e8 00 00 00 00	 call	 ??3@YAXPAXI@Z		; operator delete
  0004d	83 c4 08	 add	 esp, 8
$LN25@scalar:
  00050	8b c6		 mov	 eax, esi
  00052	5e		 pop	 esi
  00053	5d		 pop	 ebp
  00054	c2 04 00	 ret	 4
??_GCGann@@UAEPAXI@Z ENDP				; CGann::`scalar deleting destructor'
_TEXT	ENDS
; Function compile flags: /Ogtp
; File D:\git\src\IBK\IBK_DRFN\ProjSrc\SrcChartEx\ChartAddIn\ChartAnalysisToolAddIn\AnalysisTool\Element.h
;	COMDAT ??1CGann@@UAE@XZ
_TEXT	SEGMENT
??1CGann@@UAE@XZ PROC					; CGann::~CGann, COMDAT
; _this$ = ecx

; 31   : 	virtual ~CElement()	{}

  00000	56		 push	 esi
  00001	8b f1		 mov	 esi, ecx
  00003	8d 8e 84 00 00
	00		 lea	 ecx, DWORD PTR [esi+132]
  00009	ff 15 00 00 00
	00		 call	 DWORD PTR __imp_??1?$CStringT@DV?$StrTraitMFC_DLL@DV?$ChTraitsCRT@D@ATL@@@@@ATL@@QAE@XZ
  0000f	8d 4e 64	 lea	 ecx, DWORD PTR [esi+100]
  00012	ff 15 00 00 00
	00		 call	 DWORD PTR __imp_??1?$CStringT@DV?$StrTraitMFC_DLL@DV?$ChTraitsCRT@D@ATL@@@@@ATL@@QAE@XZ
  00018	8d 4e 40	 lea	 ecx, DWORD PTR [esi+64]
  0001b	c7 06 00 00 00
	00		 mov	 DWORD PTR [esi], OFFSET ??_7CElement@@6B@
  00021	ff 15 00 00 00
	00		 call	 DWORD PTR __imp_??1?$CStringT@DV?$StrTraitMFC_DLL@DV?$ChTraitsCRT@D@ATL@@@@@ATL@@QAE@XZ
  00027	8d 4e 3c	 lea	 ecx, DWORD PTR [esi+60]
  0002a	ff 15 00 00 00
	00		 call	 DWORD PTR __imp_??1?$CStringT@DV?$StrTraitMFC_DLL@DV?$ChTraitsCRT@D@ATL@@@@@ATL@@QAE@XZ
  00030	8d 4e 38	 lea	 ecx, DWORD PTR [esi+56]
  00033	5e		 pop	 esi
  00034	ff 25 00 00 00
	00		 jmp	 DWORD PTR __imp_??1?$CStringT@DV?$StrTraitMFC_DLL@DV?$ChTraitsCRT@D@ATL@@@@@ATL@@QAE@XZ
??1CGann@@UAE@XZ ENDP					; CGann::~CGann
_TEXT	ENDS
; Function compile flags: /Ogtp
; File D:\git\src\IBK\IBK_DRFN\ProjSrc\SrcChartEx\ChartAddIn\ChartAnalysisToolAddIn\AnalysisTool\FiboGann.cpp
;	COMDAT ?GetModifyType_SidePoints@CGann@@ABE?AW4ModifyType@CToolEnumData@@ABVCPoint@@00@Z
_TEXT	SEGMENT
_pt1$ = 8						; size = 4
_pt2$ = 12						; size = 4
_point$ = 16						; size = 4
?GetModifyType_SidePoints@CGann@@ABE?AW4ModifyType@CToolEnumData@@ABVCPoint@@00@Z PROC ; CGann::GetModifyType_SidePoints, COMDAT
; _this$ = ecx

; 491  : {

  00000	55		 push	 ebp
  00001	8b ec		 mov	 ebp, esp

; 492  : 	CToolEnumData::ModifyType modifyType = CTwoPointElement::GetModifyType_SidePoints(pt1, pt2, point);

  00003	ff 75 10	 push	 DWORD PTR _point$[ebp]
  00006	ff 75 0c	 push	 DWORD PTR _pt2$[ebp]
  00009	ff 75 08	 push	 DWORD PTR _pt1$[ebp]
  0000c	e8 00 00 00 00	 call	 ?GetModifyType_SidePoints@CTwoPointElement@@IBE?AW4ModifyType@CToolEnumData@@ABVCPoint@@00@Z ; CTwoPointElement::GetModifyType_SidePoints

; 493  : 
; 494  : 	if(modifyType == CToolEnumData::MODIFY_START)

  00011	83 f8 02	 cmp	 eax, 2
  00014	b9 01 00 00 00	 mov	 ecx, 1
  00019	0f 44 c1	 cmove	 eax, ecx

; 495  : 		return CToolEnumData::MODIFY_CENTER;
; 496  : 	return modifyType;
; 497  : }

  0001c	5d		 pop	 ebp
  0001d	c2 0c 00	 ret	 12			; 0000000cH
?GetModifyType_SidePoints@CGann@@ABE?AW4ModifyType@CToolEnumData@@ABVCPoint@@00@Z ENDP ; CGann::GetModifyType_SidePoints
_TEXT	ENDS
; Function compile flags: /Ogtp
; File D:\git\src\IBK\IBK_DRFN\ProjSrc\SrcChartEx\ChartAddIn\ChartAnalysisToolAddIn\AnalysisTool\FiboGann.cpp
;	COMDAT ?IsInAscendingPowers@CGann@@ABE_NHHH@Z
_TEXT	SEGMENT
_nData1$ = 8						; size = 4
_nData2$ = 12						; size = 4
_nData3$ = 16						; size = 4
?IsInAscendingPowers@CGann@@ABE_NHHH@Z PROC		; CGann::IsInAscendingPowers, COMDAT
; _this$ = ecx

; 485  : {

  00000	55		 push	 ebp
  00001	8b ec		 mov	 ebp, esp

; 486  : 	return (nData1 <= nData2 && nData2 <= nData3);

  00003	8b 45 0c	 mov	 eax, DWORD PTR _nData2$[ebp]
  00006	39 45 08	 cmp	 DWORD PTR _nData1$[ebp], eax
  00009	7f 0b		 jg	 SHORT $LN3@IsInAscend
  0000b	3b 45 10	 cmp	 eax, DWORD PTR _nData3$[ebp]
  0000e	7f 06		 jg	 SHORT $LN3@IsInAscend
  00010	b0 01		 mov	 al, 1

; 487  : }

  00012	5d		 pop	 ebp
  00013	c2 0c 00	 ret	 12			; 0000000cH
$LN3@IsInAscend:

; 486  : 	return (nData1 <= nData2 && nData2 <= nData3);

  00016	32 c0		 xor	 al, al

; 487  : }

  00018	5d		 pop	 ebp
  00019	c2 0c 00	 ret	 12			; 0000000cH
?IsInAscendingPowers@CGann@@ABE_NHHH@Z ENDP		; CGann::IsInAscendingPowers
_TEXT	ENDS
; Function compile flags: /Ogtp
; File D:\git\src\IBK\IBK_DRFN\ProjSrc\SrcChartEx\ChartAddIn\ChartAnalysisToolAddIn\AnalysisTool\FiboGann.cpp
;	COMDAT ?GetModifyType@CGann@@MBE?AW4ModifyType@CToolEnumData@@ABVCRect@@ABVCPoint@@11@Z
_TEXT	SEGMENT
_region$ = 8						; size = 4
_drawingStartPt$ = 12					; size = 4
_drawingEndPt$ = 16					; size = 4
_point$ = 20						; size = 4
?GetModifyType@CGann@@MBE?AW4ModifyType@CToolEnumData@@ABVCRect@@ABVCPoint@@11@Z PROC ; CGann::GetModifyType, COMDAT
; _this$ = ecx

; 472  : {

  00000	55		 push	 ebp
  00001	8b ec		 mov	 ebp, esp
  00003	56		 push	 esi

; 492  : 	CToolEnumData::ModifyType modifyType = CTwoPointElement::GetModifyType_SidePoints(pt1, pt2, point);

  00004	ff 75 14	 push	 DWORD PTR _point$[ebp]

; 472  : {

  00007	8b f1		 mov	 esi, ecx

; 492  : 	CToolEnumData::ModifyType modifyType = CTwoPointElement::GetModifyType_SidePoints(pt1, pt2, point);

  00009	ff 75 10	 push	 DWORD PTR _drawingEndPt$[ebp]
  0000c	ff 75 0c	 push	 DWORD PTR _drawingStartPt$[ebp]
  0000f	e8 00 00 00 00	 call	 ?GetModifyType_SidePoints@CTwoPointElement@@IBE?AW4ModifyType@CToolEnumData@@ABVCPoint@@00@Z ; CTwoPointElement::GetModifyType_SidePoints

; 493  : 
; 494  : 	if(modifyType == CToolEnumData::MODIFY_START)

  00014	83 f8 02	 cmp	 eax, 2
  00017	75 0a		 jne	 SHORT $LN5@GetModifyT

; 495  : 		return CToolEnumData::MODIFY_CENTER;

  00019	b8 01 00 00 00	 mov	 eax, 1
  0001e	5e		 pop	 esi

; 480  : }

  0001f	5d		 pop	 ebp
  00020	c2 10 00	 ret	 16			; 00000010H
$LN5@GetModifyT:

; 473  : 	// element 
; 474  : 	CToolEnumData::ModifyType modifyType = GetModifyType_SidePoints(drawingStartPt, drawingEndPt, point);
; 475  : 	if(modifyType != CToolEnumData::MODIFY_NONE)

  00023	85 c0		 test	 eax, eax
  00025	75 13		 jne	 SHORT $LN1@GetModifyT

; 476  : 		return modifyType;
; 477  : 
; 478  : 	// line
; 479  : 	return GetModifyType_Lines(region, drawingStartPt, drawingEndPt, point);

  00027	ff 75 14	 push	 DWORD PTR _point$[ebp]
  0002a	8b 06		 mov	 eax, DWORD PTR [esi]
  0002c	8b ce		 mov	 ecx, esi
  0002e	ff 75 10	 push	 DWORD PTR _drawingEndPt$[ebp]
  00031	ff 75 0c	 push	 DWORD PTR _drawingStartPt$[ebp]
  00034	ff 75 08	 push	 DWORD PTR _region$[ebp]
  00037	ff 50 50	 call	 DWORD PTR [eax+80]
$LN1@GetModifyT:
  0003a	5e		 pop	 esi

; 480  : }

  0003b	5d		 pop	 ebp
  0003c	c2 10 00	 ret	 16			; 00000010H
?GetModifyType@CGann@@MBE?AW4ModifyType@CToolEnumData@@ABVCRect@@ABVCPoint@@11@Z ENDP ; CGann::GetModifyType
_TEXT	ENDS
; Function compile flags: /Ogtp
; File D:\git\src\IBK\IBK_DRFN\ProjSrc\SrcChartEx\ChartAddIn\ChartAnalysisToolAddIn\AnalysisTool\FiboGann.cpp
;	COMDAT ?ElementInRegion@CGann@@MBE_NABVCRect@@ABVCPoint@@11@Z
_TEXT	SEGMENT
_region$ = 8						; size = 4
_startPoint$ = 12					; size = 4
_endPoint$ = 16						; size = 4
___formal$ = 20						; size = 4
?ElementInRegion@CGann@@MBE_NABVCRect@@ABVCPoint@@11@Z PROC ; CGann::ElementInRegion, COMDAT
; _this$ = ecx

; 453  : {

  00000	55		 push	 ebp
  00001	8b ec		 mov	 ebp, esp

; 486  : 	return (nData1 <= nData2 && nData2 <= nData3);

  00003	8b 4d 08	 mov	 ecx, DWORD PTR _region$[ebp]
  00006	8b 55 10	 mov	 edx, DWORD PTR _endPoint$[ebp]

; 453  : {

  00009	56		 push	 esi

; 454  : 	//  
; 455  : 	if(IsInAscendingPowers(region.right, startPoint.x, endPoint.x))

  0000a	8b 75 0c	 mov	 esi, DWORD PTR _startPoint$[ebp]
  0000d	8b 06		 mov	 eax, DWORD PTR [esi]

; 486  : 	return (nData1 <= nData2 && nData2 <= nData3);

  0000f	39 41 08	 cmp	 DWORD PTR [ecx+8], eax
  00012	7f 04		 jg	 SHORT $LN2@ElementInR
  00014	3b 02		 cmp	 eax, DWORD PTR [edx]
  00016	7e 20		 jle	 SHORT $LN27@ElementInR
$LN2@ElementInR:
  00018	39 02		 cmp	 DWORD PTR [edx], eax
  0001a	7f 04		 jg	 SHORT $LN3@ElementInR
  0001c	3b 01		 cmp	 eax, DWORD PTR [ecx]
  0001e	7e 18		 jle	 SHORT $LN27@ElementInR
$LN3@ElementInR:

; 456  : 		return false;
; 457  : 	//  
; 458  : 	if(IsInAscendingPowers(endPoint.x, startPoint.x, region.left))
; 459  : 		return false;
; 460  : 	//  
; 461  : 	if(IsInAscendingPowers(endPoint.y, startPoint.y, region.top))

  00020	8b 46 04	 mov	 eax, DWORD PTR [esi+4]

; 486  : 	return (nData1 <= nData2 && nData2 <= nData3);

  00023	8b 52 04	 mov	 edx, DWORD PTR [edx+4]
  00026	3b d0		 cmp	 edx, eax
  00028	7f 05		 jg	 SHORT $LN4@ElementInR
  0002a	3b 41 04	 cmp	 eax, DWORD PTR [ecx+4]
  0002d	7e 09		 jle	 SHORT $LN27@ElementInR
$LN4@ElementInR:
  0002f	39 41 0c	 cmp	 DWORD PTR [ecx+12], eax
  00032	7f 0b		 jg	 SHORT $LN5@ElementInR
  00034	3b c2		 cmp	 eax, edx
  00036	7f 07		 jg	 SHORT $LN5@ElementInR
$LN27@ElementInR:

; 462  : 		return false;
; 463  : 	//  
; 464  : 	if(IsInAscendingPowers(region.bottom, startPoint.y, endPoint.y))
; 465  : 		return false;

  00038	32 c0		 xor	 al, al
  0003a	5e		 pop	 esi

; 468  : }

  0003b	5d		 pop	 ebp
  0003c	c2 10 00	 ret	 16			; 00000010H
$LN5@ElementInR:

; 466  : 
; 467  : 	return true;

  0003f	b0 01		 mov	 al, 1
  00041	5e		 pop	 esi

; 468  : }

  00042	5d		 pop	 ebp
  00043	c2 10 00	 ret	 16			; 00000010H
?ElementInRegion@CGann@@MBE_NABVCRect@@ABVCPoint@@11@Z ENDP ; CGann::ElementInRegion
_TEXT	ENDS
; Function compile flags: /Ogtp
; File D:\git\src\IBK\IBK_DRFN\ProjSrc\SrcChartEx\ChartAddIn\ChartAnalysisToolAddIn\AnalysisTool\FiboGann.cpp
;	COMDAT ?GetTwoPointDrawer@CGann@@MAEAAVCTwoPointDrawer@@XZ
_TEXT	SEGMENT
?GetTwoPointDrawer@CGann@@MAEAAVCTwoPointDrawer@@XZ PROC ; CGann::GetTwoPointDrawer, COMDAT
; _this$ = ecx

; 447  : 	return (CTwoPointDrawer&) GetGannDrawer();

  00000	8b 01		 mov	 eax, DWORD PTR [ecx]
  00002	ff 60 4c	 jmp	 DWORD PTR [eax+76]
?GetTwoPointDrawer@CGann@@MAEAAVCTwoPointDrawer@@XZ ENDP ; CGann::GetTwoPointDrawer
_TEXT	ENDS
; Function compile flags: /Ogtp
; File D:\git\src\IBK\IBK_DRFN\ProjSrc\SrcChartEx\ChartAddIn\ChartAnalysisToolAddIn\AnalysisTool\FiboGann.cpp
;	COMDAT ??0CGann@@QAE@ABVCCoordinate@@0ABVCElementCommonEnvironment@@@Z
_TEXT	SEGMENT
_this$ = -4						; size = 4
_point1$ = 8						; size = 4
_point2$ = 12						; size = 4
_environment$ = 16					; size = 4
??0CGann@@QAE@ABVCCoordinate@@0ABVCElementCommonEnvironment@@@Z PROC ; CGann::CGann, COMDAT
; _this$ = ecx

; 441  : {

  00000	55		 push	 ebp
  00001	8b ec		 mov	 ebp, esp
  00003	51		 push	 ecx
  00004	56		 push	 esi
  00005	ff 75 10	 push	 DWORD PTR _environment$[ebp]
  00008	8b f1		 mov	 esi, ecx
  0000a	ff 75 0c	 push	 DWORD PTR _point2$[ebp]
  0000d	89 75 fc	 mov	 DWORD PTR _this$[ebp], esi
  00010	ff 75 08	 push	 DWORD PTR _point1$[ebp]
  00013	e8 00 00 00 00	 call	 ??0CTwoPointElement@@QAE@ABVCCoordinate@@0ABVCElementCommonEnvironment@@@Z ; CTwoPointElement::CTwoPointElement
  00018	c7 06 00 00 00
	00		 mov	 DWORD PTR [esi], OFFSET ??_7CGann@@6B@

; 442  : }

  0001e	8b c6		 mov	 eax, esi
  00020	5e		 pop	 esi
  00021	8b e5		 mov	 esp, ebp
  00023	5d		 pop	 ebp
  00024	c2 0c 00	 ret	 12			; 0000000cH
??0CGann@@QAE@ABVCCoordinate@@0ABVCElementCommonEnvironment@@@Z ENDP ; CGann::CGann
_TEXT	ENDS
; Function compile flags: /Ogtp
; File D:\git\src\IBK\IBK_DRFN\ProjSrc\SrcChartEx\ChartAddIn\ChartAnalysisToolAddIn\AnalysisTool\Element.h
;	COMDAT ??_GCFiboTime@@UAEPAXI@Z
_TEXT	SEGMENT
___flags$ = 8						; size = 4
??_GCFiboTime@@UAEPAXI@Z PROC				; CFiboTime::`scalar deleting destructor', COMDAT
; _this$ = ecx
  00000	55		 push	 ebp
  00001	8b ec		 mov	 ebp, esp

; 31   : 	virtual ~CElement()	{}

  00003	56		 push	 esi
  00004	8b f1		 mov	 esi, ecx
  00006	8d 8e 90 00 00
	00		 lea	 ecx, DWORD PTR [esi+144]
  0000c	ff 15 00 00 00
	00		 call	 DWORD PTR __imp_??1?$CStringT@DV?$StrTraitMFC_DLL@DV?$ChTraitsCRT@D@ATL@@@@@ATL@@QAE@XZ
  00012	8d 4e 7c	 lea	 ecx, DWORD PTR [esi+124]
  00015	e8 00 00 00 00	 call	 ??1CDWordArray@@UAE@XZ	; CDWordArray::~CDWordArray
  0001a	8d 4e 64	 lea	 ecx, DWORD PTR [esi+100]
  0001d	ff 15 00 00 00
	00		 call	 DWORD PTR __imp_??1?$CStringT@DV?$StrTraitMFC_DLL@DV?$ChTraitsCRT@D@ATL@@@@@ATL@@QAE@XZ
  00023	8d 4e 40	 lea	 ecx, DWORD PTR [esi+64]
  00026	c7 06 00 00 00
	00		 mov	 DWORD PTR [esi], OFFSET ??_7CElement@@6B@
  0002c	ff 15 00 00 00
	00		 call	 DWORD PTR __imp_??1?$CStringT@DV?$StrTraitMFC_DLL@DV?$ChTraitsCRT@D@ATL@@@@@ATL@@QAE@XZ
  00032	8d 4e 3c	 lea	 ecx, DWORD PTR [esi+60]
  00035	ff 15 00 00 00
	00		 call	 DWORD PTR __imp_??1?$CStringT@DV?$StrTraitMFC_DLL@DV?$ChTraitsCRT@D@ATL@@@@@ATL@@QAE@XZ
  0003b	8d 4e 38	 lea	 ecx, DWORD PTR [esi+56]
  0003e	ff 15 00 00 00
	00		 call	 DWORD PTR __imp_??1?$CStringT@DV?$StrTraitMFC_DLL@DV?$ChTraitsCRT@D@ATL@@@@@ATL@@QAE@XZ
  00044	f6 45 08 01	 test	 BYTE PTR ___flags$[ebp], 1
  00048	74 0e		 je	 SHORT $LN28@scalar
  0004a	68 c0 00 00 00	 push	 192			; 000000c0H
  0004f	56		 push	 esi
  00050	e8 00 00 00 00	 call	 ??3@YAXPAXI@Z		; operator delete
  00055	83 c4 08	 add	 esp, 8
$LN28@scalar:
  00058	8b c6		 mov	 eax, esi
  0005a	5e		 pop	 esi
  0005b	5d		 pop	 ebp
  0005c	c2 04 00	 ret	 4
??_GCFiboTime@@UAEPAXI@Z ENDP				; CFiboTime::`scalar deleting destructor'
_TEXT	ENDS
; Function compile flags: /Ogtp
; File D:\git\src\IBK\IBK_DRFN\ProjSrc\SrcChartEx\ChartAddIn\ChartAnalysisToolAddIn\AnalysisTool\FiboGann.cpp
;	COMDAT ?GetDisplayData@CFiboTime@@ABE?AVCDisplayData@@ABVCCoordinateCalculatorData@@@Z
_TEXT	SEGMENT
$T2 = -160						; size = 72
$T3 = -88						; size = 8
$T4 = -80						; size = 32
$T5 = -48						; size = 16
$T6 = -32						; size = 16
__$ArrayPad$ = -16					; size = 4
__$EHRec$ = -12						; size = 12
___$ReturnUdt$ = 8					; size = 4
_calData$ = 12						; size = 4
?GetDisplayData@CFiboTime@@ABE?AVCDisplayData@@ABVCCoordinateCalculatorData@@@Z PROC ; CFiboTime::GetDisplayData, COMDAT
; _this$ = ecx

; 430  : {

  00000	55		 push	 ebp
  00001	8b ec		 mov	 ebp, esp
  00003	6a ff		 push	 -1
  00005	68 00 00 00 00	 push	 __ehhandler$?GetDisplayData@CFiboTime@@ABE?AVCDisplayData@@ABVCCoordinateCalculatorData@@@Z
  0000a	64 a1 00 00 00
	00		 mov	 eax, DWORD PTR fs:0
  00010	50		 push	 eax
  00011	81 ec 94 00 00
	00		 sub	 esp, 148		; 00000094H
  00017	a1 00 00 00 00	 mov	 eax, DWORD PTR ___security_cookie
  0001c	33 c5		 xor	 eax, ebp
  0001e	89 45 f0	 mov	 DWORD PTR __$ArrayPad$[ebp], eax
  00021	53		 push	 ebx
  00022	56		 push	 esi
  00023	57		 push	 edi
  00024	50		 push	 eax
  00025	8d 45 f4	 lea	 eax, DWORD PTR __$EHRec$[ebp]
  00028	64 a3 00 00 00
	00		 mov	 DWORD PTR fs:0, eax
  0002e	8b 5d 08	 mov	 ebx, DWORD PTR ___$ReturnUdt$[ebp]

; 431  : 	return CDisplayData(CElement::GetCommonEnvironment().GetDataType().GetCoordinateType(), 

  00031	8d 85 60 ff ff
	ff		 lea	 eax, DWORD PTR $T2[ebp]
  00037	8b 75 0c	 mov	 esi, DWORD PTR _calData$[ebp]
  0003a	50		 push	 eax
  0003b	e8 00 00 00 00	 call	 ?GetCommonEnvironment@CElement@@QBE?AVCElementCommonEnvironment@@XZ ; CElement::GetCommonEnvironment
  00040	8b f8		 mov	 edi, eax
  00042	8b ce		 mov	 ecx, esi
  00044	c7 45 fc 00 00
	00 00		 mov	 DWORD PTR __$EHRec$[ebp+8], 0
  0004b	e8 00 00 00 00	 call	 ?GetDisplayDataEnd@CCoordinateCalculatorData@@QBEHXZ ; CCoordinateCalculatorData::GetDisplayDataEnd
  00050	50		 push	 eax
  00051	8b ce		 mov	 ecx, esi
  00053	e8 00 00 00 00	 call	 ?GetDisplayDataStart@CCoordinateCalculatorData@@QBEHXZ ; CCoordinateCalculatorData::GetDisplayDataStart
  00058	50		 push	 eax
  00059	8d 4d a8	 lea	 ecx, DWORD PTR $T3[ebp]
  0005c	e8 00 00 00 00	 call	 ??0CDisplayAttributes@@QAE@HH@Z ; CDisplayAttributes::CDisplayAttributes
  00061	50		 push	 eax
  00062	8d 45 e0	 lea	 eax, DWORD PTR $T6[ebp]
  00065	8b ce		 mov	 ecx, esi
  00067	50		 push	 eax
  00068	e8 00 00 00 00	 call	 ?GetRegion@CCoordinateCalculatorData@@QBE?AVCRect@@XZ ; CCoordinateCalculatorData::GetRegion
  0006d	50		 push	 eax
  0006e	8d 45 d0	 lea	 eax, DWORD PTR $T5[ebp]
  00071	8b ce		 mov	 ecx, esi
  00073	50		 push	 eax
  00074	e8 00 00 00 00	 call	 ?GetRegion@CCoordinateCalculatorData@@QBE?AVCRect@@XZ ; CCoordinateCalculatorData::GetRegion
  00079	50		 push	 eax
  0007a	8d 4d b0	 lea	 ecx, DWORD PTR $T4[ebp]
  0007d	e8 00 00 00 00	 call	 ??0CGraphPartRegion@@QAE@ABVCRect@@0@Z ; CGraphPartRegion::CGraphPartRegion
  00082	50		 push	 eax
  00083	8b cf		 mov	 ecx, edi
  00085	e8 00 00 00 00	 call	 ?GetDataType@CElementCommonEnvironment@@QAEAAVCDataTypeEnvironment@@XZ ; CElementCommonEnvironment::GetDataType
  0008a	8b c8		 mov	 ecx, eax
  0008c	e8 00 00 00 00	 call	 ?GetCoordinateType@CDataTypeEnvironment@@QBE?AW4COORDINATETYPE@CAnalysis@@XZ ; CDataTypeEnvironment::GetCoordinateType
  00091	50		 push	 eax
  00092	8b cb		 mov	 ecx, ebx
  00094	e8 00 00 00 00	 call	 ??0CDisplayData@@QAE@W4COORDINATETYPE@CAnalysis@@ABVCGraphPartRegion@@ABVCDisplayAttributes@@@Z ; CDisplayData::CDisplayData
  00099	8d 4d 98	 lea	 ecx, DWORD PTR $T2[ebp+56]
  0009c	ff 15 00 00 00
	00		 call	 DWORD PTR __imp_??1?$CStringT@DV?$StrTraitMFC_DLL@DV?$ChTraitsCRT@D@ATL@@@@@ATL@@QAE@XZ
  000a2	8d 4d 94	 lea	 ecx, DWORD PTR $T2[ebp+52]
  000a5	ff 15 00 00 00
	00		 call	 DWORD PTR __imp_??1?$CStringT@DV?$StrTraitMFC_DLL@DV?$ChTraitsCRT@D@ATL@@@@@ATL@@QAE@XZ
  000ab	8d 4d 90	 lea	 ecx, DWORD PTR $T2[ebp+48]
  000ae	ff 15 00 00 00
	00		 call	 DWORD PTR __imp_??1?$CStringT@DV?$StrTraitMFC_DLL@DV?$ChTraitsCRT@D@ATL@@@@@ATL@@QAE@XZ
  000b4	8b c3		 mov	 eax, ebx

; 432  : 		CGraphPartRegion(calData.GetRegion(), calData.GetRegion()), 
; 433  : 		CDisplayAttributes(calData.GetDisplayDataStart(), calData.GetDisplayDataEnd()));
; 434  : }

  000b6	8b 4d f4	 mov	 ecx, DWORD PTR __$EHRec$[ebp]
  000b9	64 89 0d 00 00
	00 00		 mov	 DWORD PTR fs:0, ecx
  000c0	59		 pop	 ecx
  000c1	5f		 pop	 edi
  000c2	5e		 pop	 esi
  000c3	5b		 pop	 ebx
  000c4	8b 4d f0	 mov	 ecx, DWORD PTR __$ArrayPad$[ebp]
  000c7	33 cd		 xor	 ecx, ebp
  000c9	e8 00 00 00 00	 call	 @__security_check_cookie@4
  000ce	8b e5		 mov	 esp, ebp
  000d0	5d		 pop	 ebp
  000d1	c2 08 00	 ret	 8
_TEXT	ENDS
;	COMDAT text$x
text$x	SEGMENT
__unwindfunclet$?GetDisplayData@CFiboTime@@ABE?AVCDisplayData@@ABVCCoordinateCalculatorData@@@Z$0:
  00000	8d 8d 60 ff ff
	ff		 lea	 ecx, DWORD PTR $T2[ebp]
  00006	e9 00 00 00 00	 jmp	 ??1CElementCommonEnvironment@@QAE@XZ
  0000b	cc		 int	 3
  0000c	cc		 int	 3
  0000d	cc		 int	 3
  0000e	cc		 int	 3
  0000f	cc		 int	 3
__ehhandler$?GetDisplayData@CFiboTime@@ABE?AVCDisplayData@@ABVCCoordinateCalculatorData@@@Z:
  00010	90		 npad	 1
  00011	90		 npad	 1
  00012	8b 54 24 08	 mov	 edx, DWORD PTR [esp+8]
  00016	8d 42 0c	 lea	 eax, DWORD PTR [edx+12]
  00019	8b 8a 5c ff ff
	ff		 mov	 ecx, DWORD PTR [edx-164]
  0001f	33 c8		 xor	 ecx, eax
  00021	e8 00 00 00 00	 call	 @__security_check_cookie@4
  00026	8b 4a fc	 mov	 ecx, DWORD PTR [edx-4]
  00029	33 c8		 xor	 ecx, eax
  0002b	e8 00 00 00 00	 call	 @__security_check_cookie@4
  00030	b8 00 00 00 00	 mov	 eax, OFFSET __ehfuncinfo$?GetDisplayData@CFiboTime@@ABE?AVCDisplayData@@ABVCCoordinateCalculatorData@@@Z
  00035	e9 00 00 00 00	 jmp	 ___CxxFrameHandler3
text$x	ENDS
?GetDisplayData@CFiboTime@@ABE?AVCDisplayData@@ABVCCoordinateCalculatorData@@@Z ENDP ; CFiboTime::GetDisplayData
; Function compile flags: /Ogtp
; File D:\git\src\IBK\IBK_DRFN\ProjSrc\SrcChartEx\ChartAddIn\ChartAnalysisToolAddIn\AnalysisTool\FiboGann.cpp
; File C:\Program Files (x86)\Microsoft Visual Studio\2019\Community\VC\Tools\MSVC\14.29.30133\atlmfc\include\atltypes.h
; File D:\git\src\IBK\IBK_DRFN\ProjSrc\SrcChartEx\ChartAddIn\ChartAnalysisToolAddIn\AnalysisTool\FiboGann.cpp
;	COMDAT ?GetGripPoint@CFiboTime@@MAE?AVCPoint@@ABVCCoordinateCalculatorData@@@Z
_TEXT	SEGMENT
$T2 = -224						; size = 72
$T3 = -152						; size = 8
_fiboPoint$ = -144					; size = 8
___$ReturnUdt$GSCopy$1$ = -136				; size = 4
_point$ = -132						; size = 8
$T4 = -124						; size = 32
$T5 = -92						; size = 44
$T6 = -48						; size = 16
$T7 = -32						; size = 16
__$ArrayPad$ = -16					; size = 4
__$EHRec$ = -12						; size = 12
___$ReturnUdt$ = 8					; size = 4
_calData$ = 12						; size = 4
?GetGripPoint@CFiboTime@@MAE?AVCPoint@@ABVCCoordinateCalculatorData@@@Z PROC ; CFiboTime::GetGripPoint, COMDAT
; _this$ = ecx

; 416  : {

  00000	55		 push	 ebp
  00001	8b ec		 mov	 ebp, esp
  00003	6a ff		 push	 -1
  00005	68 00 00 00 00	 push	 __ehhandler$?GetGripPoint@CFiboTime@@MAE?AVCPoint@@ABVCCoordinateCalculatorData@@@Z
  0000a	64 a1 00 00 00
	00		 mov	 eax, DWORD PTR fs:0
  00010	50		 push	 eax
  00011	81 ec d4 00 00
	00		 sub	 esp, 212		; 000000d4H
  00017	a1 00 00 00 00	 mov	 eax, DWORD PTR ___security_cookie
  0001c	33 c5		 xor	 eax, ebp
  0001e	89 45 f0	 mov	 DWORD PTR __$ArrayPad$[ebp], eax
  00021	53		 push	 ebx
  00022	56		 push	 esi
  00023	57		 push	 edi
  00024	50		 push	 eax
  00025	8d 45 f4	 lea	 eax, DWORD PTR __$EHRec$[ebp]
  00028	64 a3 00 00 00
	00		 mov	 DWORD PTR fs:0, eax
  0002e	8b d9		 mov	 ebx, ecx
  00030	8b 45 08	 mov	 eax, DWORD PTR ___$ReturnUdt$[ebp]
  00033	8b 7d 0c	 mov	 edi, DWORD PTR _calData$[ebp]
  00036	89 85 78 ff ff
	ff		 mov	 DWORD PTR ___$ReturnUdt$GSCopy$1$[ebp], eax

; 417  : 	// 
; 418  : 	CPoint point = COnePointElement::GetGripPoint(calData);

  0003c	8d 85 7c ff ff
	ff		 lea	 eax, DWORD PTR _point$[ebp]
  00042	57		 push	 edi
  00043	50		 push	 eax
  00044	e8 00 00 00 00	 call	 ?GetGripPoint@COnePointElement@@MAE?AVCPoint@@ABVCCoordinateCalculatorData@@@Z ; COnePointElement::GetGripPoint

; 419  : 	CPoint fiboPoint(point);

  00049	8b 85 7c ff ff
	ff		 mov	 eax, DWORD PTR _point$[ebp]
  0004f	8b 4d 80	 mov	 ecx, DWORD PTR _point$[ebp+4]
  00052	89 85 70 ff ff
	ff		 mov	 DWORD PTR _fiboPoint$[ebp], eax

; 431  : 	return CDisplayData(CElement::GetCommonEnvironment().GetDataType().GetCoordinateType(), 

  00058	8d 85 20 ff ff
	ff		 lea	 eax, DWORD PTR $T2[ebp]

; 419  : 	CPoint fiboPoint(point);

  0005e	89 8d 74 ff ff
	ff		 mov	 DWORD PTR _fiboPoint$[ebp+4], ecx

; 431  : 	return CDisplayData(CElement::GetCommonEnvironment().GetDataType().GetCoordinateType(), 

  00064	8b cb		 mov	 ecx, ebx
  00066	50		 push	 eax
  00067	e8 00 00 00 00	 call	 ?GetCommonEnvironment@CElement@@QBE?AVCElementCommonEnvironment@@XZ ; CElement::GetCommonEnvironment
  0006c	8b f0		 mov	 esi, eax
  0006e	8b cf		 mov	 ecx, edi
  00070	c7 45 fc 00 00
	00 00		 mov	 DWORD PTR __$EHRec$[ebp+8], 0
  00077	e8 00 00 00 00	 call	 ?GetDisplayDataEnd@CCoordinateCalculatorData@@QBEHXZ ; CCoordinateCalculatorData::GetDisplayDataEnd
  0007c	50		 push	 eax
  0007d	8b cf		 mov	 ecx, edi
  0007f	e8 00 00 00 00	 call	 ?GetDisplayDataStart@CCoordinateCalculatorData@@QBEHXZ ; CCoordinateCalculatorData::GetDisplayDataStart
  00084	50		 push	 eax
  00085	8d 8d 68 ff ff
	ff		 lea	 ecx, DWORD PTR $T3[ebp]
  0008b	e8 00 00 00 00	 call	 ??0CDisplayAttributes@@QAE@HH@Z ; CDisplayAttributes::CDisplayAttributes
  00090	50		 push	 eax
  00091	8d 45 e0	 lea	 eax, DWORD PTR $T7[ebp]
  00094	8b cf		 mov	 ecx, edi
  00096	50		 push	 eax
  00097	e8 00 00 00 00	 call	 ?GetRegion@CCoordinateCalculatorData@@QBE?AVCRect@@XZ ; CCoordinateCalculatorData::GetRegion
  0009c	50		 push	 eax
  0009d	8d 45 d0	 lea	 eax, DWORD PTR $T6[ebp]
  000a0	8b cf		 mov	 ecx, edi
  000a2	50		 push	 eax
  000a3	e8 00 00 00 00	 call	 ?GetRegion@CCoordinateCalculatorData@@QBE?AVCRect@@XZ ; CCoordinateCalculatorData::GetRegion
  000a8	50		 push	 eax
  000a9	8d 4d 84	 lea	 ecx, DWORD PTR $T4[ebp]
  000ac	e8 00 00 00 00	 call	 ??0CGraphPartRegion@@QAE@ABVCRect@@0@Z ; CGraphPartRegion::CGraphPartRegion
  000b1	50		 push	 eax
  000b2	8b ce		 mov	 ecx, esi
  000b4	e8 00 00 00 00	 call	 ?GetDataType@CElementCommonEnvironment@@QAEAAVCDataTypeEnvironment@@XZ ; CElementCommonEnvironment::GetDataType
  000b9	8b c8		 mov	 ecx, eax
  000bb	e8 00 00 00 00	 call	 ?GetCoordinateType@CDataTypeEnvironment@@QBE?AW4COORDINATETYPE@CAnalysis@@XZ ; CDataTypeEnvironment::GetCoordinateType
  000c0	50		 push	 eax
  000c1	8d 4d a4	 lea	 ecx, DWORD PTR $T5[ebp]
  000c4	e8 00 00 00 00	 call	 ??0CDisplayData@@QAE@W4COORDINATETYPE@CAnalysis@@ABVCGraphPartRegion@@ABVCDisplayAttributes@@@Z ; CDisplayData::CDisplayData
  000c9	8d 8d 58 ff ff
	ff		 lea	 ecx, DWORD PTR $T2[ebp+56]
  000cf	c7 45 fc ff ff
	ff ff		 mov	 DWORD PTR __$EHRec$[ebp+8], -1
  000d6	ff 15 00 00 00
	00		 call	 DWORD PTR __imp_??1?$CStringT@DV?$StrTraitMFC_DLL@DV?$ChTraitsCRT@D@ATL@@@@@ATL@@QAE@XZ
  000dc	8d 8d 54 ff ff
	ff		 lea	 ecx, DWORD PTR $T2[ebp+52]
  000e2	ff 15 00 00 00
	00		 call	 DWORD PTR __imp_??1?$CStringT@DV?$StrTraitMFC_DLL@DV?$ChTraitsCRT@D@ATL@@@@@ATL@@QAE@XZ
  000e8	8d 8d 50 ff ff
	ff		 lea	 ecx, DWORD PTR $T2[ebp+48]
  000ee	ff 15 00 00 00
	00		 call	 DWORD PTR __imp_??1?$CStringT@DV?$StrTraitMFC_DLL@DV?$ChTraitsCRT@D@ATL@@@@@ATL@@QAE@XZ

; 420  : 	m_fiboTimeDrawer.GetPoint(GetDisplayData(calData), point, 0, fiboPoint);

  000f4	8d 85 70 ff ff
	ff		 lea	 eax, DWORD PTR _fiboPoint$[ebp]
  000fa	50		 push	 eax
  000fb	6a 00		 push	 0
  000fd	8d 85 7c ff ff
	ff		 lea	 eax, DWORD PTR _point$[ebp]
  00103	50		 push	 eax
  00104	8d 45 a4	 lea	 eax, DWORD PTR $T5[ebp]
  00107	50		 push	 eax
  00108	8d 4b 70	 lea	 ecx, DWORD PTR [ebx+112]
  0010b	e8 00 00 00 00	 call	 ?GetPoint@CFiboTimeDrawer@@QBE_NABVCDisplayData@@ABVCPoint@@HAAV3@@Z ; CFiboTimeDrawer::GetPoint
; File C:\Program Files (x86)\Microsoft Visual Studio\2019\Community\VC\Tools\MSVC\14.29.30133\atlmfc\include\atltypes.h

; 408  : 	x = initX;

  00110	8b 85 78 ff ff
	ff		 mov	 eax, DWORD PTR ___$ReturnUdt$GSCopy$1$[ebp]
  00116	8b 8d 70 ff ff
	ff		 mov	 ecx, DWORD PTR _fiboPoint$[ebp]
  0011c	89 08		 mov	 DWORD PTR [eax], ecx

; 409  : 	y = initY;

  0011e	8b 4d 80	 mov	 ecx, DWORD PTR _point$[ebp+4]
  00121	89 48 04	 mov	 DWORD PTR [eax+4], ecx
; File D:\git\src\IBK\IBK_DRFN\ProjSrc\SrcChartEx\ChartAddIn\ChartAnalysisToolAddIn\AnalysisTool\FiboGann.cpp

; 423  : }

  00124	8b 4d f4	 mov	 ecx, DWORD PTR __$EHRec$[ebp]
  00127	64 89 0d 00 00
	00 00		 mov	 DWORD PTR fs:0, ecx
  0012e	59		 pop	 ecx
  0012f	5f		 pop	 edi
  00130	5e		 pop	 esi
  00131	5b		 pop	 ebx
  00132	8b 4d f0	 mov	 ecx, DWORD PTR __$ArrayPad$[ebp]
  00135	33 cd		 xor	 ecx, ebp
  00137	e8 00 00 00 00	 call	 @__security_check_cookie@4
  0013c	8b e5		 mov	 esp, ebp
  0013e	5d		 pop	 ebp
  0013f	c2 08 00	 ret	 8
_TEXT	ENDS
;	COMDAT text$x
text$x	SEGMENT
__unwindfunclet$?GetGripPoint@CFiboTime@@MAE?AVCPoint@@ABVCCoordinateCalculatorData@@@Z$0:
  00000	8d 8d 20 ff ff
	ff		 lea	 ecx, DWORD PTR $T2[ebp]
  00006	e9 00 00 00 00	 jmp	 ??1CElementCommonEnvironment@@QAE@XZ
  0000b	cc		 int	 3
  0000c	cc		 int	 3
  0000d	cc		 int	 3
  0000e	cc		 int	 3
  0000f	cc		 int	 3
__ehhandler$?GetGripPoint@CFiboTime@@MAE?AVCPoint@@ABVCCoordinateCalculatorData@@@Z:
  00010	90		 npad	 1
  00011	90		 npad	 1
  00012	8b 54 24 08	 mov	 edx, DWORD PTR [esp+8]
  00016	8d 42 0c	 lea	 eax, DWORD PTR [edx+12]
  00019	8b 8a 1c ff ff
	ff		 mov	 ecx, DWORD PTR [edx-228]
  0001f	33 c8		 xor	 ecx, eax
  00021	e8 00 00 00 00	 call	 @__security_check_cookie@4
  00026	8b 4a fc	 mov	 ecx, DWORD PTR [edx-4]
  00029	33 c8		 xor	 ecx, eax
  0002b	e8 00 00 00 00	 call	 @__security_check_cookie@4
  00030	b8 00 00 00 00	 mov	 eax, OFFSET __ehfuncinfo$?GetGripPoint@CFiboTime@@MAE?AVCPoint@@ABVCCoordinateCalculatorData@@@Z
  00035	e9 00 00 00 00	 jmp	 ___CxxFrameHandler3
text$x	ENDS
?GetGripPoint@CFiboTime@@MAE?AVCPoint@@ABVCCoordinateCalculatorData@@@Z ENDP ; CFiboTime::GetGripPoint
; Function compile flags: /Ogtp
; File D:\git\src\IBK\IBK_DRFN\ProjSrc\SrcChartEx\ChartAddIn\ChartAnalysisToolAddIn\AnalysisTool\FiboGann.cpp
;	COMDAT ?GetModifyType@CFiboTime@@MBE?AW4ModifyType@CToolEnumData@@ABVCDisplayData@@ABVCPoint@@1@Z
_TEXT	SEGMENT
tv171 = -40						; size = 4
_point$GSCopy$1$ = -36					; size = 4
_this$GSCopy$1$ = -32					; size = 4
_fiboPoint$ = -28					; size = 8
$T1 = -20						; size = 16
__$ArrayPad$ = -4					; size = 4
_displayData$ = 8					; size = 4
_elementDrawingPt$ = 12					; size = 4
_point$ = 16						; size = 4
?GetModifyType@CFiboTime@@MBE?AW4ModifyType@CToolEnumData@@ABVCDisplayData@@ABVCPoint@@1@Z PROC ; CFiboTime::GetModifyType, COMDAT
; _this$ = ecx

; 396  : {

  00000	55		 push	 ebp
  00001	8b ec		 mov	 ebp, esp
  00003	83 ec 28	 sub	 esp, 40			; 00000028H
  00006	a1 00 00 00 00	 mov	 eax, DWORD PTR ___security_cookie
  0000b	33 c5		 xor	 eax, ebp
  0000d	89 45 fc	 mov	 DWORD PTR __$ArrayPad$[ebp], eax
  00010	8b 45 10	 mov	 eax, DWORD PTR _point$[ebp]
  00013	53		 push	 ebx
  00014	8b 5d 0c	 mov	 ebx, DWORD PTR _elementDrawingPt$[ebp]
  00017	56		 push	 esi
  00018	89 45 dc	 mov	 DWORD PTR _point$GSCopy$1$[ebp], eax

; 397  : 	int nIndex = -1;

  0001b	83 ce ff	 or	 esi, -1
  0001e	57		 push	 edi

; 398  : 	CPoint fiboPoint = elementDrawingPt;

  0001f	8b 03		 mov	 eax, DWORD PTR [ebx]
  00021	8b 7d 08	 mov	 edi, DWORD PTR _displayData$[ebp]
  00024	8b 53 04	 mov	 edx, DWORD PTR [ebx+4]
  00027	89 45 e4	 mov	 DWORD PTR _fiboPoint$[ebp], eax

; 399  : 
; 400  : 	while(fiboPoint.x <= displayData.GetDisplayRegion().right){

  0002a	8d 45 ec	 lea	 eax, DWORD PTR $T1[ebp]
  0002d	89 4d e0	 mov	 DWORD PTR _this$GSCopy$1$[ebp], ecx
  00030	8b cf		 mov	 ecx, edi
  00032	50		 push	 eax
  00033	89 55 e8	 mov	 DWORD PTR _fiboPoint$[ebp+4], edx
  00036	e8 00 00 00 00	 call	 ?GetDisplayRegion@CDisplayData@@QBE?AVCRect@@XZ ; CDisplayData::GetDisplayRegion
  0003b	8b 4d e4	 mov	 ecx, DWORD PTR _fiboPoint$[ebp]
  0003e	3b 48 08	 cmp	 ecx, DWORD PTR [eax+8]
  00041	7f 57		 jg	 SHORT $LN3@GetModifyT
  00043	8b 45 e0	 mov	 eax, DWORD PTR _this$GSCopy$1$[ebp]
  00046	83 c0 70	 add	 eax, 112		; 00000070H
  00049	89 45 d8	 mov	 DWORD PTR tv171[ebp], eax
  0004c	0f 1f 40 00	 npad	 4
$LL2@GetModifyT:

; 401  : 		if(!m_fiboTimeDrawer.GetPoint(displayData, elementDrawingPt, ++nIndex, fiboPoint))

  00050	8d 4d e4	 lea	 ecx, DWORD PTR _fiboPoint$[ebp]
  00053	46		 inc	 esi
  00054	51		 push	 ecx
  00055	56		 push	 esi
  00056	53		 push	 ebx
  00057	57		 push	 edi
  00058	8b c8		 mov	 ecx, eax
  0005a	e8 00 00 00 00	 call	 ?GetPoint@CFiboTimeDrawer@@QBE_NABVCDisplayData@@ABVCPoint@@HAAV3@@Z ; CFiboTimeDrawer::GetPoint
  0005f	84 c0		 test	 al, al
  00061	74 37		 je	 SHORT $LN3@GetModifyT

; 402  : 			break;
; 403  : 
; 404  : 		if(nIndex > 5 && elementDrawingPt.x == fiboPoint.x)

  00063	83 fe 05	 cmp	 esi, 5
  00066	7e 07		 jle	 SHORT $LN5@GetModifyT
  00068	8b 03		 mov	 eax, DWORD PTR [ebx]
  0006a	3b 45 e4	 cmp	 eax, DWORD PTR _fiboPoint$[ebp]
  0006d	74 2b		 je	 SHORT $LN3@GetModifyT
$LN5@GetModifyT:

; 405  : 			break;
; 406  : 
; 407  : 		if(CVertElement::GetModifyType(displayData, fiboPoint, point) == CToolEnumData::MODIFY_X)

  0006f	ff 75 dc	 push	 DWORD PTR _point$GSCopy$1$[ebp]
  00072	8b 4d e0	 mov	 ecx, DWORD PTR _this$GSCopy$1$[ebp]
  00075	8d 45 e4	 lea	 eax, DWORD PTR _fiboPoint$[ebp]
  00078	50		 push	 eax
  00079	57		 push	 edi
  0007a	e8 00 00 00 00	 call	 ?GetModifyType@CVertElement@@MBE?AW4ModifyType@CToolEnumData@@ABVCDisplayData@@ABVCPoint@@1@Z ; CVertElement::GetModifyType
  0007f	83 f8 05	 cmp	 eax, 5
  00082	74 2b		 je	 SHORT $LN11@GetModifyT

; 399  : 
; 400  : 	while(fiboPoint.x <= displayData.GetDisplayRegion().right){

  00084	8d 45 ec	 lea	 eax, DWORD PTR $T1[ebp]
  00087	8b cf		 mov	 ecx, edi
  00089	50		 push	 eax
  0008a	e8 00 00 00 00	 call	 ?GetDisplayRegion@CDisplayData@@QBE?AVCRect@@XZ ; CDisplayData::GetDisplayRegion
  0008f	8b 4d e4	 mov	 ecx, DWORD PTR _fiboPoint$[ebp]
  00092	3b 48 08	 cmp	 ecx, DWORD PTR [eax+8]
  00095	8b 45 d8	 mov	 eax, DWORD PTR tv171[ebp]
  00098	7e b6		 jle	 SHORT $LL2@GetModifyT
$LN3@GetModifyT:
  0009a	5f		 pop	 edi

; 408  : 			return CToolEnumData::MODIFY_X;
; 409  : 	}
; 410  : 
; 411  : 	return CToolEnumData::MODIFY_NONE;
; 412  : }

  0009b	5e		 pop	 esi
  0009c	33 c0		 xor	 eax, eax
  0009e	5b		 pop	 ebx
  0009f	8b 4d fc	 mov	 ecx, DWORD PTR __$ArrayPad$[ebp]
  000a2	33 cd		 xor	 ecx, ebp
  000a4	e8 00 00 00 00	 call	 @__security_check_cookie@4
  000a9	8b e5		 mov	 esp, ebp
  000ab	5d		 pop	 ebp
  000ac	c2 0c 00	 ret	 12			; 0000000cH
$LN11@GetModifyT:
  000af	8b 4d fc	 mov	 ecx, DWORD PTR __$ArrayPad$[ebp]
  000b2	b8 05 00 00 00	 mov	 eax, 5
  000b7	5f		 pop	 edi
  000b8	5e		 pop	 esi
  000b9	33 cd		 xor	 ecx, ebp
  000bb	5b		 pop	 ebx
  000bc	e8 00 00 00 00	 call	 @__security_check_cookie@4
  000c1	8b e5		 mov	 esp, ebp
  000c3	5d		 pop	 ebp
  000c4	c2 0c 00	 ret	 12			; 0000000cH
?GetModifyType@CFiboTime@@MBE?AW4ModifyType@CToolEnumData@@ABVCDisplayData@@ABVCPoint@@1@Z ENDP ; CFiboTime::GetModifyType
_TEXT	ENDS
; Function compile flags: /Ogtp
; File D:\git\src\IBK\IBK_DRFN\ProjSrc\SrcChartEx\ChartAddIn\ChartAnalysisToolAddIn\AnalysisTool\FiboGann.cpp
;	COMDAT ?GetOnePointDrawer@CFiboTime@@MAEAAVCOnePointDrawer@@XZ
_TEXT	SEGMENT
?GetOnePointDrawer@CFiboTime@@MAEAAVCOnePointDrawer@@XZ PROC ; CFiboTime::GetOnePointDrawer, COMDAT
; _this$ = ecx

; 391  : 	return m_fiboTimeDrawer;

  00000	8b 41 70	 mov	 eax, DWORD PTR [ecx+112]
  00003	8b 40 08	 mov	 eax, DWORD PTR [eax+8]
  00006	83 c0 70	 add	 eax, 112		; 00000070H
  00009	03 c1		 add	 eax, ecx

; 392  : }

  0000b	c3		 ret	 0
?GetOnePointDrawer@CFiboTime@@MAEAAVCOnePointDrawer@@XZ ENDP ; CFiboTime::GetOnePointDrawer
_TEXT	ENDS
; Function compile flags: /Ogtp
; File D:\git\src\IBK\IBK_DRFN\ProjSrc\SrcChartEx\ChartAddIn\ChartAnalysisToolAddIn\AnalysisTool\FiboGann.cpp
;	COMDAT ?GetTextPosition@CFiboTime@@MAEPAVCTextPosition@@XZ
_TEXT	SEGMENT
?GetTextPosition@CFiboTime@@MAEPAVCTextPosition@@XZ PROC ; CFiboTime::GetTextPosition, COMDAT
; _this$ = ecx

; 385  : 	return &m_textPosition;

  00000	8d 81 b4 00 00
	00		 lea	 eax, DWORD PTR [ecx+180]

; 386  : }

  00006	c3		 ret	 0
?GetTextPosition@CFiboTime@@MAEPAVCTextPosition@@XZ ENDP ; CFiboTime::GetTextPosition
_TEXT	ENDS
; Function compile flags: /Ogtp
; File D:\git\src\IBK\IBK_DRFN\ProjSrc\SrcChartEx\ChartAddIn\ChartAnalysisToolAddIn\AnalysisTool\FiboGann.cpp
;	COMDAT ?GetTextPosition@CFiboTime@@MBEPBVCTextPosition@@XZ
_TEXT	SEGMENT
?GetTextPosition@CFiboTime@@MBEPBVCTextPosition@@XZ PROC ; CFiboTime::GetTextPosition, COMDAT
; _this$ = ecx

; 380  : 	return &m_textPosition;

  00000	8d 81 b4 00 00
	00		 lea	 eax, DWORD PTR [ecx+180]

; 381  : }

  00006	c3		 ret	 0
?GetTextPosition@CFiboTime@@MBEPBVCTextPosition@@XZ ENDP ; CFiboTime::GetTextPosition
_TEXT	ENDS
; Function compile flags: /Ogtp
; File D:\git\src\IBK\IBK_DRFN\ProjSrc\SrcChartEx\ChartAddIn\ChartAnalysisToolAddIn\AnalysisTool\FiboGann.cpp
;	COMDAT ?ElementModify_YValue@CFiboTime@@UAEXABVCElementModifyData@@@Z
_TEXT	SEGMENT
_elementModifyData$ = 8					; size = 4
?ElementModify_YValue@CFiboTime@@UAEXABVCElementModifyData@@@Z PROC ; CFiboTime::ElementModify_YValue, COMDAT
; _this$ = ecx

; 427  : }

  00000	c2 04 00	 ret	 4
?ElementModify_YValue@CFiboTime@@UAEXABVCElementModifyData@@@Z ENDP ; CFiboTime::ElementModify_YValue
_TEXT	ENDS
; Function compile flags: /Ogtp
; File D:\git\src\IBK\IBK_DRFN\ProjSrc\SrcChartEx\ChartAddIn\ChartAnalysisToolAddIn\AnalysisTool\FiboGann.cpp
;	COMDAT ?GetElementType@CFiboTime@@UBE?AW4ElementType@CToolEnumData@@XZ
_TEXT	SEGMENT
?GetElementType@CFiboTime@@UBE?AW4ElementType@CToolEnumData@@XZ PROC ; CFiboTime::GetElementType, COMDAT
; _this$ = ecx

; 373  : 	return CToolEnumData::Fibo_Time;

  00000	b8 0c 00 00 00	 mov	 eax, 12			; 0000000cH

; 374  : }

  00005	c3		 ret	 0
?GetElementType@CFiboTime@@UBE?AW4ElementType@CToolEnumData@@XZ ENDP ; CFiboTime::GetElementType
_TEXT	ENDS
; Function compile flags: /Ogtp
; File D:\git\src\IBK\IBK_DRFN\ProjSrc\SrcChartEx\ChartAddIn\ChartAnalysisToolAddIn\AnalysisTool\FiboGann.cpp
;	COMDAT ??0CFiboTime@@QAE@ABVCTextShowPosition@@ABVCCoordinate@@ABVCElementCommonEnvironment@@@Z
_TEXT	SEGMENT
_this$ = -16						; size = 4
__$EHRec$ = -12						; size = 12
_position$ = 8						; size = 4
_point$ = 12						; size = 4
_this$ = 16						; size = 4
_environment$ = 16					; size = 4
??0CFiboTime@@QAE@ABVCTextShowPosition@@ABVCCoordinate@@ABVCElementCommonEnvironment@@@Z PROC ; CFiboTime::CFiboTime, COMDAT
; _this$ = ecx

; 368  : {

  00000	55		 push	 ebp
  00001	8b ec		 mov	 ebp, esp
  00003	6a ff		 push	 -1
  00005	68 00 00 00 00	 push	 __ehhandler$??0CFiboTime@@QAE@ABVCTextShowPosition@@ABVCCoordinate@@ABVCElementCommonEnvironment@@@Z
  0000a	64 a1 00 00 00
	00		 mov	 eax, DWORD PTR fs:0
  00010	50		 push	 eax
  00011	51		 push	 ecx
  00012	56		 push	 esi
  00013	57		 push	 edi
  00014	a1 00 00 00 00	 mov	 eax, DWORD PTR ___security_cookie
  00019	33 c5		 xor	 eax, ebp
  0001b	50		 push	 eax
  0001c	8d 45 f4	 lea	 eax, DWORD PTR __$EHRec$[ebp]
  0001f	64 a3 00 00 00
	00		 mov	 DWORD PTR fs:0, eax
  00025	8b f9		 mov	 edi, ecx
  00027	89 7d f0	 mov	 DWORD PTR _this$[ebp], edi

; 366  : 	CVertElement(point, environment),

  0002a	ff 75 10	 push	 DWORD PTR _environment$[ebp]
  0002d	ff 75 0c	 push	 DWORD PTR _point$[ebp]
  00030	e8 00 00 00 00	 call	 ??0CVertElement@@QAE@ABVCCoordinate@@ABVCElementCommonEnvironment@@@Z ; CVertElement::CVertElement

; 368  : {

  00035	8d 77 70	 lea	 esi, DWORD PTR [edi+112]
  00038	c7 07 00 00 00
	00		 mov	 DWORD PTR [edi], OFFSET ??_7CFiboTime@@6B@
  0003e	8d 4e 24	 lea	 ecx, DWORD PTR [esi+36]
  00041	c7 45 fc 00 00
	00 00		 mov	 DWORD PTR __$EHRec$[ebp+8], 0
  00048	89 75 10	 mov	 DWORD PTR _this$[ebp], esi
  0004b	c7 06 00 00 00
	00		 mov	 DWORD PTR [esi], OFFSET ??_8CFiboTimeDrawer@@7BCVertLineDrawer@@@
  00051	c7 46 40 00 00
	00 00		 mov	 DWORD PTR [esi+64], OFFSET ??_8CFiboTimeDrawer@@7BCOnePointDrawer@@@
  00058	e8 00 00 00 00	 call	 ??0CDrawer@@QAE@XZ	; CDrawer::CDrawer
  0005d	6a 00		 push	 0
  0005f	8b ce		 mov	 ecx, esi
  00061	c7 46 3c 00 00
	00 00		 mov	 DWORD PTR [esi+60], OFFSET ??_7COnePointDrawer@@6B@
  00068	e8 00 00 00 00	 call	 ??0CVertLineDrawer@@QAE@XZ ; CVertLineDrawer::CVertLineDrawer
  0006d	8b 06		 mov	 eax, DWORD PTR [esi]
  0006f	8d 4e 0c	 lea	 ecx, DWORD PTR [esi+12]
  00072	8b 40 08	 mov	 eax, DWORD PTR [eax+8]
  00075	c7 04 06 00 00
	00 00		 mov	 DWORD PTR [esi+eax], OFFSET ??_7CFiboTimeDrawer@@6B@
  0007c	8b 06		 mov	 eax, DWORD PTR [esi]
  0007e	8b 40 08	 mov	 eax, DWORD PTR [eax+8]
  00081	c7 44 30 fc 00
	00 00 00	 mov	 DWORD PTR [eax+esi-4], 0
  00089	e8 00 00 00 00	 call	 ??0CDWordArray@@QAE@XZ	; CDWordArray::CDWordArray
  0008e	8d 4e 20	 lea	 ecx, DWORD PTR [esi+32]
  00091	ff 15 00 00 00
	00		 call	 DWORD PTR __imp_??0?$CStringT@DV?$StrTraitMFC_DLL@DV?$ChTraitsCRT@D@ATL@@@@@ATL@@QAE@XZ
  00097	ff 75 08	 push	 DWORD PTR _position$[ebp]
  0009a	8d 8f b4 00 00
	00		 lea	 ecx, DWORD PTR [edi+180]
  000a0	c6 45 fc 01	 mov	 BYTE PTR __$EHRec$[ebp+8], 1
  000a4	e8 00 00 00 00	 call	 ??0CTextShowPosition@@QAE@ABV0@@Z ; CTextShowPosition::CTextShowPosition

; 369  : }

  000a9	8b c7		 mov	 eax, edi
  000ab	8b 4d f4	 mov	 ecx, DWORD PTR __$EHRec$[ebp]
  000ae	64 89 0d 00 00
	00 00		 mov	 DWORD PTR fs:0, ecx
  000b5	59		 pop	 ecx
  000b6	5f		 pop	 edi
  000b7	5e		 pop	 esi
  000b8	8b e5		 mov	 esp, ebp
  000ba	5d		 pop	 ebp
  000bb	c2 0c 00	 ret	 12			; 0000000cH
_TEXT	ENDS
;	COMDAT text$x
text$x	SEGMENT
__unwindfunclet$??0CFiboTime@@QAE@ABVCTextShowPosition@@ABVCCoordinate@@ABVCElementCommonEnvironment@@@Z$0:
  00000	8b 4d f0	 mov	 ecx, DWORD PTR _this$[ebp]
  00003	e9 00 00 00 00	 jmp	 ??1CVertElement@@UAE@XZ
__unwindfunclet$??0CFiboTime@@QAE@ABVCTextShowPosition@@ABVCCoordinate@@ABVCElementCommonEnvironment@@@Z$1:
  00008	8b 4d f0	 mov	 ecx, DWORD PTR _this$[ebp]
  0000b	83 c1 70	 add	 ecx, 112		; 00000070H
  0000e	e9 00 00 00 00	 jmp	 ??1CFiboTimeDrawer@@QAE@XZ
  00013	cc		 int	 3
  00014	cc		 int	 3
  00015	cc		 int	 3
  00016	cc		 int	 3
  00017	cc		 int	 3
__ehhandler$??0CFiboTime@@QAE@ABVCTextShowPosition@@ABVCCoordinate@@ABVCElementCommonEnvironment@@@Z:
  00018	90		 npad	 1
  00019	90		 npad	 1
  0001a	8b 54 24 08	 mov	 edx, DWORD PTR [esp+8]
  0001e	8d 42 0c	 lea	 eax, DWORD PTR [edx+12]
  00021	8b 4a f0	 mov	 ecx, DWORD PTR [edx-16]
  00024	33 c8		 xor	 ecx, eax
  00026	e8 00 00 00 00	 call	 @__security_check_cookie@4
  0002b	b8 00 00 00 00	 mov	 eax, OFFSET __ehfuncinfo$??0CFiboTime@@QAE@ABVCTextShowPosition@@ABVCCoordinate@@ABVCElementCommonEnvironment@@@Z
  00030	e9 00 00 00 00	 jmp	 ___CxxFrameHandler3
text$x	ENDS
??0CFiboTime@@QAE@ABVCTextShowPosition@@ABVCCoordinate@@ABVCElementCommonEnvironment@@@Z ENDP ; CFiboTime::CFiboTime
; Function compile flags: /Ogtp
; File D:\git\src\IBK\IBK_DRFN\ProjSrc\SrcChartEx\ChartAddIn\ChartAnalysisToolAddIn\AnalysisTool\FiboGann.cpp
;	COMDAT ??0CFiboTime@@QAE@ABVCCoordinate@@ABVCElementCommonEnvironment@@@Z
_TEXT	SEGMENT
_this$ = -16						; size = 4
__$EHRec$ = -12						; size = 12
_point$ = 8						; size = 4
_this$ = 12						; size = 4
_environment$ = 12					; size = 4
??0CFiboTime@@QAE@ABVCCoordinate@@ABVCElementCommonEnvironment@@@Z PROC ; CFiboTime::CFiboTime, COMDAT
; _this$ = ecx

; 361  : {

  00000	55		 push	 ebp
  00001	8b ec		 mov	 ebp, esp
  00003	6a ff		 push	 -1
  00005	68 00 00 00 00	 push	 __ehhandler$??0CFiboTime@@QAE@ABVCCoordinate@@ABVCElementCommonEnvironment@@@Z
  0000a	64 a1 00 00 00
	00		 mov	 eax, DWORD PTR fs:0
  00010	50		 push	 eax
  00011	51		 push	 ecx
  00012	56		 push	 esi
  00013	57		 push	 edi
  00014	a1 00 00 00 00	 mov	 eax, DWORD PTR ___security_cookie
  00019	33 c5		 xor	 eax, ebp
  0001b	50		 push	 eax
  0001c	8d 45 f4	 lea	 eax, DWORD PTR __$EHRec$[ebp]
  0001f	64 a3 00 00 00
	00		 mov	 DWORD PTR fs:0, eax
  00025	8b f9		 mov	 edi, ecx
  00027	89 7d f0	 mov	 DWORD PTR _this$[ebp], edi

; 360  : 	CVertElement(point, environment)

  0002a	ff 75 0c	 push	 DWORD PTR _environment$[ebp]
  0002d	ff 75 08	 push	 DWORD PTR _point$[ebp]
  00030	e8 00 00 00 00	 call	 ??0CVertElement@@QAE@ABVCCoordinate@@ABVCElementCommonEnvironment@@@Z ; CVertElement::CVertElement

; 361  : {

  00035	8d 77 70	 lea	 esi, DWORD PTR [edi+112]
  00038	c7 07 00 00 00
	00		 mov	 DWORD PTR [edi], OFFSET ??_7CFiboTime@@6B@
  0003e	8d 4e 24	 lea	 ecx, DWORD PTR [esi+36]
  00041	c7 45 fc 00 00
	00 00		 mov	 DWORD PTR __$EHRec$[ebp+8], 0
  00048	89 75 0c	 mov	 DWORD PTR _this$[ebp], esi
  0004b	c7 06 00 00 00
	00		 mov	 DWORD PTR [esi], OFFSET ??_8CFiboTimeDrawer@@7BCVertLineDrawer@@@
  00051	c7 46 40 00 00
	00 00		 mov	 DWORD PTR [esi+64], OFFSET ??_8CFiboTimeDrawer@@7BCOnePointDrawer@@@
  00058	e8 00 00 00 00	 call	 ??0CDrawer@@QAE@XZ	; CDrawer::CDrawer
  0005d	6a 00		 push	 0
  0005f	8b ce		 mov	 ecx, esi
  00061	c7 46 3c 00 00
	00 00		 mov	 DWORD PTR [esi+60], OFFSET ??_7COnePointDrawer@@6B@
  00068	e8 00 00 00 00	 call	 ??0CVertLineDrawer@@QAE@XZ ; CVertLineDrawer::CVertLineDrawer
  0006d	8b 06		 mov	 eax, DWORD PTR [esi]
  0006f	8d 4e 0c	 lea	 ecx, DWORD PTR [esi+12]
  00072	8b 40 08	 mov	 eax, DWORD PTR [eax+8]
  00075	c7 04 06 00 00
	00 00		 mov	 DWORD PTR [esi+eax], OFFSET ??_7CFiboTimeDrawer@@6B@
  0007c	8b 06		 mov	 eax, DWORD PTR [esi]
  0007e	8b 40 08	 mov	 eax, DWORD PTR [eax+8]
  00081	c7 44 30 fc 00
	00 00 00	 mov	 DWORD PTR [eax+esi-4], 0
  00089	e8 00 00 00 00	 call	 ??0CDWordArray@@QAE@XZ	; CDWordArray::CDWordArray
  0008e	8d 4e 20	 lea	 ecx, DWORD PTR [esi+32]
  00091	ff 15 00 00 00
	00		 call	 DWORD PTR __imp_??0?$CStringT@DV?$StrTraitMFC_DLL@DV?$ChTraitsCRT@D@ATL@@@@@ATL@@QAE@XZ
  00097	8d 8f b4 00 00
	00		 lea	 ecx, DWORD PTR [edi+180]
  0009d	c6 45 fc 01	 mov	 BYTE PTR __$EHRec$[ebp+8], 1
  000a1	e8 00 00 00 00	 call	 ??0CTextShowPosition@@QAE@XZ ; CTextShowPosition::CTextShowPosition

; 362  : 	m_textPosition.SetShow(true);

  000a6	6a 01		 push	 1
  000a8	8d 8f b4 00 00
	00		 lea	 ecx, DWORD PTR [edi+180]
  000ae	e8 00 00 00 00	 call	 ?SetShow@CTextShowPosition@@QAEX_N@Z ; CTextShowPosition::SetShow

; 363  : }

  000b3	8b c7		 mov	 eax, edi
  000b5	8b 4d f4	 mov	 ecx, DWORD PTR __$EHRec$[ebp]
  000b8	64 89 0d 00 00
	00 00		 mov	 DWORD PTR fs:0, ecx
  000bf	59		 pop	 ecx
  000c0	5f		 pop	 edi
  000c1	5e		 pop	 esi
  000c2	8b e5		 mov	 esp, ebp
  000c4	5d		 pop	 ebp
  000c5	c2 08 00	 ret	 8
_TEXT	ENDS
;	COMDAT text$x
text$x	SEGMENT
__unwindfunclet$??0CFiboTime@@QAE@ABVCCoordinate@@ABVCElementCommonEnvironment@@@Z$0:
  00000	8b 4d f0	 mov	 ecx, DWORD PTR _this$[ebp]
  00003	e9 00 00 00 00	 jmp	 ??1CVertElement@@UAE@XZ
__unwindfunclet$??0CFiboTime@@QAE@ABVCCoordinate@@ABVCElementCommonEnvironment@@@Z$1:
  00008	8b 4d f0	 mov	 ecx, DWORD PTR _this$[ebp]
  0000b	83 c1 70	 add	 ecx, 112		; 00000070H
  0000e	e9 00 00 00 00	 jmp	 ??1CFiboTimeDrawer@@QAE@XZ
  00013	cc		 int	 3
  00014	cc		 int	 3
  00015	cc		 int	 3
  00016	cc		 int	 3
  00017	cc		 int	 3
__ehhandler$??0CFiboTime@@QAE@ABVCCoordinate@@ABVCElementCommonEnvironment@@@Z:
  00018	90		 npad	 1
  00019	90		 npad	 1
  0001a	8b 54 24 08	 mov	 edx, DWORD PTR [esp+8]
  0001e	8d 42 0c	 lea	 eax, DWORD PTR [edx+12]
  00021	8b 4a f0	 mov	 ecx, DWORD PTR [edx-16]
  00024	33 c8		 xor	 ecx, eax
  00026	e8 00 00 00 00	 call	 @__security_check_cookie@4
  0002b	b8 00 00 00 00	 mov	 eax, OFFSET __ehfuncinfo$??0CFiboTime@@QAE@ABVCCoordinate@@ABVCElementCommonEnvironment@@@Z
  00030	e9 00 00 00 00	 jmp	 ___CxxFrameHandler3
text$x	ENDS
??0CFiboTime@@QAE@ABVCCoordinate@@ABVCElementCommonEnvironment@@@Z ENDP ; CFiboTime::CFiboTime
; Function compile flags: /Ogtp
; File D:\git\src\IBK\IBK_DRFN\ProjSrc\SrcChartEx\ChartAddIn\ChartAnalysisToolAddIn\AnalysisTool\Element.h
;	COMDAT ??_GCFiboRetrace@@UAEPAXI@Z
_TEXT	SEGMENT
___flags$ = 8						; size = 4
??_GCFiboRetrace@@UAEPAXI@Z PROC			; CFiboRetrace::`scalar deleting destructor', COMDAT
; _this$ = ecx
  00000	55		 push	 ebp
  00001	8b ec		 mov	 ebp, esp

; 31   : 	virtual ~CElement()	{}

  00003	56		 push	 esi
  00004	8b f1		 mov	 esi, ecx
  00006	8d 8e ac 00 00
	00		 lea	 ecx, DWORD PTR [esi+172]
  0000c	ff 15 00 00 00
	00		 call	 DWORD PTR __imp_??1?$CStringT@DV?$StrTraitMFC_DLL@DV?$ChTraitsCRT@D@ATL@@@@@ATL@@QAE@XZ
  00012	8d 8e 98 00 00
	00		 lea	 ecx, DWORD PTR [esi+152]
  00018	e8 00 00 00 00	 call	 ??1CDWordArray@@UAE@XZ	; CDWordArray::~CDWordArray
  0001d	8d 8e 84 00 00
	00		 lea	 ecx, DWORD PTR [esi+132]
  00023	ff 15 00 00 00
	00		 call	 DWORD PTR __imp_??1?$CStringT@DV?$StrTraitMFC_DLL@DV?$ChTraitsCRT@D@ATL@@@@@ATL@@QAE@XZ
  00029	8d 4e 64	 lea	 ecx, DWORD PTR [esi+100]
  0002c	ff 15 00 00 00
	00		 call	 DWORD PTR __imp_??1?$CStringT@DV?$StrTraitMFC_DLL@DV?$ChTraitsCRT@D@ATL@@@@@ATL@@QAE@XZ
  00032	8d 4e 40	 lea	 ecx, DWORD PTR [esi+64]
  00035	c7 06 00 00 00
	00		 mov	 DWORD PTR [esi], OFFSET ??_7CElement@@6B@
  0003b	ff 15 00 00 00
	00		 call	 DWORD PTR __imp_??1?$CStringT@DV?$StrTraitMFC_DLL@DV?$ChTraitsCRT@D@ATL@@@@@ATL@@QAE@XZ
  00041	8d 4e 3c	 lea	 ecx, DWORD PTR [esi+60]
  00044	ff 15 00 00 00
	00		 call	 DWORD PTR __imp_??1?$CStringT@DV?$StrTraitMFC_DLL@DV?$ChTraitsCRT@D@ATL@@@@@ATL@@QAE@XZ
  0004a	8d 4e 38	 lea	 ecx, DWORD PTR [esi+56]
  0004d	ff 15 00 00 00
	00		 call	 DWORD PTR __imp_??1?$CStringT@DV?$StrTraitMFC_DLL@DV?$ChTraitsCRT@D@ATL@@@@@ATL@@QAE@XZ
  00053	f6 45 08 01	 test	 BYTE PTR ___flags$[ebp], 1
  00057	74 0e		 je	 SHORT $LN31@scalar
  00059	68 d0 00 00 00	 push	 208			; 000000d0H
  0005e	56		 push	 esi
  0005f	e8 00 00 00 00	 call	 ??3@YAXPAXI@Z		; operator delete
  00064	83 c4 08	 add	 esp, 8
$LN31@scalar:
  00067	8b c6		 mov	 eax, esi
  00069	5e		 pop	 esi
  0006a	5d		 pop	 ebp
  0006b	c2 04 00	 ret	 4
??_GCFiboRetrace@@UAEPAXI@Z ENDP			; CFiboRetrace::`scalar deleting destructor'
_TEXT	ENDS
; Function compile flags: /Ogtp
; File D:\git\src\IBK\IBK_DRFN\ProjSrc\SrcChartEx\ChartAddIn\ChartAnalysisToolAddIn\AnalysisTool\FiboGann.cpp
; File C:\Program Files (x86)\Microsoft Visual Studio\2019\Community\VC\Tools\MSVC\14.29.30133\atlmfc\include\atltypes.h
; File D:\git\src\IBK\IBK_DRFN\ProjSrc\SrcChartEx\ChartAddIn\ChartAnalysisToolAddIn\AnalysisTool\FiboGann.cpp
; File C:\Program Files (x86)\Microsoft Visual Studio\2019\Community\VC\Tools\MSVC\14.29.30133\atlmfc\include\atltypes.h
; File D:\git\src\IBK\IBK_DRFN\ProjSrc\SrcChartEx\ChartAddIn\ChartAnalysisToolAddIn\AnalysisTool\FiboGann.cpp
;	COMDAT ?GetModifyType@CFiboRetrace@@ABE?AW4ModifyType@CToolEnumData@@HHABVCPoint@@0@Z
_TEXT	SEGMENT
$T1 = -8						; size = 8
_nX1$ = 8						; size = 4
_nX2$ = 12						; size = 4
_fiboPoint$ = 16					; size = 4
_point$ = 20						; size = 4
?GetModifyType@CFiboRetrace@@ABE?AW4ModifyType@CToolEnumData@@HHABVCPoint@@0@Z PROC ; CFiboRetrace::GetModifyType, COMDAT
; _this$ = ecx

; 352  : {

  00000	55		 push	 ebp
  00001	8b ec		 mov	 ebp, esp
  00003	83 ec 08	 sub	 esp, 8

; 353  : 	return CTwoPointElement::GetModifyType_Line(CPoint((nX1 < nX2 ? nX1: nX2), fiboPoint.y), fiboPoint, point);

  00006	8b 55 0c	 mov	 edx, DWORD PTR _nX2$[ebp]
  00009	39 55 08	 cmp	 DWORD PTR _nX1$[ebp], edx
  0000c	ff 75 14	 push	 DWORD PTR _point$[ebp]
  0000f	0f 4c 55 08	 cmovl	 edx, DWORD PTR _nX1$[ebp]
; File C:\Program Files (x86)\Microsoft Visual Studio\2019\Community\VC\Tools\MSVC\14.29.30133\atlmfc\include\atltypes.h

; 408  : 	x = initX;

  00013	89 55 f8	 mov	 DWORD PTR $T1[ebp], edx

; 409  : 	y = initY;

  00016	8b 55 10	 mov	 edx, DWORD PTR _fiboPoint$[ebp]
; File D:\git\src\IBK\IBK_DRFN\ProjSrc\SrcChartEx\ChartAddIn\ChartAnalysisToolAddIn\AnalysisTool\FiboGann.cpp

; 353  : 	return CTwoPointElement::GetModifyType_Line(CPoint((nX1 < nX2 ? nX1: nX2), fiboPoint.y), fiboPoint, point);

  00019	52		 push	 edx
; File C:\Program Files (x86)\Microsoft Visual Studio\2019\Community\VC\Tools\MSVC\14.29.30133\atlmfc\include\atltypes.h

; 409  : 	y = initY;

  0001a	8b 42 04	 mov	 eax, DWORD PTR [edx+4]
  0001d	89 45 fc	 mov	 DWORD PTR $T1[ebp+4], eax
; File D:\git\src\IBK\IBK_DRFN\ProjSrc\SrcChartEx\ChartAddIn\ChartAnalysisToolAddIn\AnalysisTool\FiboGann.cpp

; 353  : 	return CTwoPointElement::GetModifyType_Line(CPoint((nX1 < nX2 ? nX1: nX2), fiboPoint.y), fiboPoint, point);

  00020	8d 45 f8	 lea	 eax, DWORD PTR $T1[ebp]
  00023	50		 push	 eax
  00024	e8 00 00 00 00	 call	 ?GetModifyType_Line@CTwoPointElement@@IBE?AW4ModifyType@CToolEnumData@@ABVCPoint@@00@Z ; CTwoPointElement::GetModifyType_Line

; 354  : }

  00029	8b e5		 mov	 esp, ebp
  0002b	5d		 pop	 ebp
  0002c	c2 10 00	 ret	 16			; 00000010H
?GetModifyType@CFiboRetrace@@ABE?AW4ModifyType@CToolEnumData@@HHABVCPoint@@0@Z ENDP ; CFiboRetrace::GetModifyType
_TEXT	ENDS
; Function compile flags: /Ogtp
; File D:\git\src\IBK\IBK_DRFN\ProjSrc\SrcChartEx\ChartAddIn\ChartAnalysisToolAddIn\AnalysisTool\FiboGann.cpp
; File C:\Program Files (x86)\Microsoft Visual Studio\2019\Community\VC\Tools\MSVC\14.29.30133\atlmfc\include\atltypes.h
; File D:\git\src\IBK\IBK_DRFN\ProjSrc\SrcChartEx\ChartAddIn\ChartAnalysisToolAddIn\AnalysisTool\FiboGann.cpp
; File C:\Program Files (x86)\Microsoft Visual Studio\2019\Community\VC\Tools\MSVC\14.29.30133\atlmfc\include\atltypes.h
; File D:\git\src\IBK\IBK_DRFN\ProjSrc\SrcChartEx\ChartAddIn\ChartAnalysisToolAddIn\AnalysisTool\FiboGann.cpp
; File C:\Program Files (x86)\Microsoft Visual Studio\2019\Community\VC\Tools\MSVC\14.29.30133\atlmfc\include\atltypes.h
; File D:\git\src\IBK\IBK_DRFN\ProjSrc\SrcChartEx\ChartAddIn\ChartAnalysisToolAddIn\AnalysisTool\FiboGann.cpp
; File C:\Program Files (x86)\Microsoft Visual Studio\2019\Community\VC\Tools\MSVC\14.29.30133\atlmfc\include\atltypes.h
; File D:\git\src\IBK\IBK_DRFN\ProjSrc\SrcChartEx\ChartAddIn\ChartAnalysisToolAddIn\AnalysisTool\FiboGann.cpp
; File C:\Program Files (x86)\Microsoft Visual Studio\2019\Community\VC\Tools\MSVC\14.29.30133\atlmfc\include\atltypes.h
; File D:\git\src\IBK\IBK_DRFN\ProjSrc\SrcChartEx\ChartAddIn\ChartAnalysisToolAddIn\AnalysisTool\FiboGann.cpp
;	COMDAT ?GetModifyType@CFiboRetrace@@MBE?AW4ModifyType@CToolEnumData@@ABVCRect@@ABVCPoint@@11@Z
_TEXT	SEGMENT
$T2 = -120						; size = 72
$T3 = -120						; size = 72
$T4 = -48						; size = 8
_fiboPoint$5 = -40					; size = 8
_ptStart$ = -32						; size = 8
_ptEnd$ = -24						; size = 8
_this$1$ = -16						; size = 4
__$EHRec$ = -12						; size = 12
_region$ = 8						; size = 4
_bLeftExt$1$ = 12					; size = 4
_drawingStartPt$ = 12					; size = 4
_drawingEndPt$ = 16					; size = 4
_point$ = 20						; size = 4
?GetModifyType@CFiboRetrace@@MBE?AW4ModifyType@CToolEnumData@@ABVCRect@@ABVCPoint@@11@Z PROC ; CFiboRetrace::GetModifyType, COMDAT
; _this$ = ecx

; 309  : {

  00000	55		 push	 ebp
  00001	8b ec		 mov	 ebp, esp
  00003	6a ff		 push	 -1
  00005	68 00 00 00 00	 push	 __ehhandler$?GetModifyType@CFiboRetrace@@MBE?AW4ModifyType@CToolEnumData@@ABVCRect@@ABVCPoint@@11@Z
  0000a	64 a1 00 00 00
	00		 mov	 eax, DWORD PTR fs:0
  00010	50		 push	 eax
  00011	83 ec 6c	 sub	 esp, 108		; 0000006cH
  00014	53		 push	 ebx
  00015	56		 push	 esi
  00016	57		 push	 edi
  00017	a1 00 00 00 00	 mov	 eax, DWORD PTR ___security_cookie
  0001c	33 c5		 xor	 eax, ebp
  0001e	50		 push	 eax
  0001f	8d 45 f4	 lea	 eax, DWORD PTR __$EHRec$[ebp]
  00022	64 a3 00 00 00
	00		 mov	 DWORD PTR fs:0, eax
  00028	8b f9		 mov	 edi, ecx
  0002a	89 7d f0	 mov	 DWORD PTR _this$1$[ebp], edi

; 310  : 	CToolEnumData::ModifyType modifyType = CTwoPointElement::GetModifyType(region, drawingStartPt, drawingEndPt, point);

  0002d	ff 75 14	 push	 DWORD PTR _point$[ebp]
  00030	8b 75 10	 mov	 esi, DWORD PTR _drawingEndPt$[ebp]
  00033	8b 5d 08	 mov	 ebx, DWORD PTR _region$[ebp]
  00036	56		 push	 esi
  00037	ff 75 0c	 push	 DWORD PTR _drawingStartPt$[ebp]
  0003a	53		 push	 ebx
  0003b	e8 00 00 00 00	 call	 ?GetModifyType@CTwoPointElement@@MBE?AW4ModifyType@CToolEnumData@@ABVCRect@@ABVCPoint@@11@Z ; CTwoPointElement::GetModifyType

; 311  : 	if(modifyType != CToolEnumData::MODIFY_NONE)

  00040	85 c0		 test	 eax, eax
  00042	0f 85 47 01 00
	00		 jne	 $LN1@GetModifyT

; 312  : 		return modifyType;
; 313  : 
; 314  : 	CPoint ptStart(drawingStartPt);

  00048	8b 4d 0c	 mov	 ecx, DWORD PTR _drawingStartPt$[ebp]
  0004b	8b 01		 mov	 eax, DWORD PTR [ecx]
  0004d	8b 49 04	 mov	 ecx, DWORD PTR [ecx+4]
  00050	89 45 e0	 mov	 DWORD PTR _ptStart$[ebp], eax

; 315  : 	CPoint ptEnd(drawingEndPt);

  00053	8b 06		 mov	 eax, DWORD PTR [esi]
  00055	89 4d e4	 mov	 DWORD PTR _ptStart$[ebp+4], ecx
  00058	8b 4e 04	 mov	 ecx, DWORD PTR [esi+4]
  0005b	89 45 e8	 mov	 DWORD PTR _ptEnd$[ebp], eax

; 316  : 	BOOL bLeftExt = GetCommonEnvironment().IsLeftLineExt();

  0005e	8d 45 88	 lea	 eax, DWORD PTR $T3[ebp]
  00061	89 4d ec	 mov	 DWORD PTR _ptEnd$[ebp+4], ecx
  00064	8b cf		 mov	 ecx, edi
  00066	50		 push	 eax
  00067	e8 00 00 00 00	 call	 ?GetCommonEnvironment@CElement@@QBE?AVCElementCommonEnvironment@@XZ ; CElement::GetCommonEnvironment
  0006c	8b c8		 mov	 ecx, eax
  0006e	c7 45 fc 00 00
	00 00		 mov	 DWORD PTR __$EHRec$[ebp+8], 0
  00075	e8 00 00 00 00	 call	 ?IsLeftLineExt@CElementCommonEnvironment@@QBEHXZ ; CElementCommonEnvironment::IsLeftLineExt
  0007a	8d 4d c0	 lea	 ecx, DWORD PTR $T3[ebp+56]
  0007d	89 45 0c	 mov	 DWORD PTR _bLeftExt$1$[ebp], eax
  00080	c7 45 fc ff ff
	ff ff		 mov	 DWORD PTR __$EHRec$[ebp+8], -1
  00087	ff 15 00 00 00
	00		 call	 DWORD PTR __imp_??1?$CStringT@DV?$StrTraitMFC_DLL@DV?$ChTraitsCRT@D@ATL@@@@@ATL@@QAE@XZ
  0008d	8d 4d bc	 lea	 ecx, DWORD PTR $T3[ebp+52]
  00090	ff 15 00 00 00
	00		 call	 DWORD PTR __imp_??1?$CStringT@DV?$StrTraitMFC_DLL@DV?$ChTraitsCRT@D@ATL@@@@@ATL@@QAE@XZ
  00096	8d 4d b8	 lea	 ecx, DWORD PTR $T3[ebp+48]
  00099	ff 15 00 00 00
	00		 call	 DWORD PTR __imp_??1?$CStringT@DV?$StrTraitMFC_DLL@DV?$ChTraitsCRT@D@ATL@@@@@ATL@@QAE@XZ

; 317  : 	BOOL bRightExt = GetCommonEnvironment().IsRightLineExt();

  0009f	8d 45 88	 lea	 eax, DWORD PTR $T2[ebp]
  000a2	8b cf		 mov	 ecx, edi
  000a4	50		 push	 eax
  000a5	e8 00 00 00 00	 call	 ?GetCommonEnvironment@CElement@@QBE?AVCElementCommonEnvironment@@XZ ; CElement::GetCommonEnvironment
  000aa	8b c8		 mov	 ecx, eax
  000ac	c7 45 fc 01 00
	00 00		 mov	 DWORD PTR __$EHRec$[ebp+8], 1
  000b3	e8 00 00 00 00	 call	 ?IsRightLineExt@CElementCommonEnvironment@@QBEHXZ ; CElementCommonEnvironment::IsRightLineExt
  000b8	8d 4d c0	 lea	 ecx, DWORD PTR $T2[ebp+56]
  000bb	c7 45 fc ff ff
	ff ff		 mov	 DWORD PTR __$EHRec$[ebp+8], -1
  000c2	8b f0		 mov	 esi, eax
  000c4	ff 15 00 00 00
	00		 call	 DWORD PTR __imp_??1?$CStringT@DV?$StrTraitMFC_DLL@DV?$ChTraitsCRT@D@ATL@@@@@ATL@@QAE@XZ
  000ca	8d 4d bc	 lea	 ecx, DWORD PTR $T2[ebp+52]
  000cd	ff 15 00 00 00
	00		 call	 DWORD PTR __imp_??1?$CStringT@DV?$StrTraitMFC_DLL@DV?$ChTraitsCRT@D@ATL@@@@@ATL@@QAE@XZ
  000d3	8d 4d b8	 lea	 ecx, DWORD PTR $T2[ebp+48]
  000d6	ff 15 00 00 00
	00		 call	 DWORD PTR __imp_??1?$CStringT@DV?$StrTraitMFC_DLL@DV?$ChTraitsCRT@D@ATL@@@@@ATL@@QAE@XZ

; 318  : 	if(bLeftExt == TRUE || bRightExt == TRUE)

  000dc	8b 45 0c	 mov	 eax, DWORD PTR _bLeftExt$1$[ebp]
  000df	83 f8 01	 cmp	 eax, 1
  000e2	74 11		 je	 SHORT $LN42@GetModifyT
  000e4	83 fe 01	 cmp	 esi, 1
  000e7	75 27		 jne	 SHORT $LN12@GetModifyT

; 328  : 		}
; 329  : 		else if(bLeftExt == FALSE && bRightExt == TRUE)

  000e9	85 c0		 test	 eax, eax
  000eb	75 23		 jne	 SHORT $LN12@GetModifyT

; 330  : 		{
; 331  : 			ptEnd.x = region.right;

  000ed	8b 43 08	 mov	 eax, DWORD PTR [ebx+8]
  000f0	89 45 e8	 mov	 DWORD PTR _ptEnd$[ebp], eax
  000f3	eb 1b		 jmp	 SHORT $LN12@GetModifyT
$LN42@GetModifyT:

; 319  : 	{
; 320  : 		if(bLeftExt == TRUE && bRightExt == TRUE)

  000f5	83 fe 01	 cmp	 esi, 1
  000f8	75 0d		 jne	 SHORT $LN43@GetModifyT

; 321  : 		{
; 322  : 			ptStart.x = region.left;

  000fa	8b 03		 mov	 eax, DWORD PTR [ebx]
  000fc	89 45 e0	 mov	 DWORD PTR _ptStart$[ebp], eax

; 323  : 			ptEnd.x = region.right;

  000ff	8b 43 08	 mov	 eax, DWORD PTR [ebx+8]
  00102	89 45 e8	 mov	 DWORD PTR _ptEnd$[ebp], eax

; 324  : 		}

  00105	eb 09		 jmp	 SHORT $LN12@GetModifyT
$LN43@GetModifyT:

; 325  : 		else if(bLeftExt == TRUE && bRightExt == FALSE)

  00107	85 f6		 test	 esi, esi
  00109	75 05		 jne	 SHORT $LN12@GetModifyT

; 326  : 		{
; 327  : 			ptStart.x = region.left;			

  0010b	8b 03		 mov	 eax, DWORD PTR [ebx]
  0010d	89 45 e0	 mov	 DWORD PTR _ptStart$[ebp], eax
$LN12@GetModifyT:

; 332  : 		}
; 333  : 	}
; 334  : 
; 335  : 	for(int nIndex = 0; nIndex < m_fiboRetraceDrawer.GetCount(); nIndex++)

  00110	8b 87 90 00 00
	00		 mov	 eax, DWORD PTR [edi+144]
  00116	81 c7 90 00 00
	00		 add	 edi, 144		; 00000090H
  0011c	8b cf		 mov	 ecx, edi
  0011e	33 f6		 xor	 esi, esi
  00120	ff 50 10	 call	 DWORD PTR [eax+16]
  00123	85 c0		 test	 eax, eax
  00125	7e 66		 jle	 SHORT $LN3@GetModifyT
  00127	66 0f 1f 84 00
	00 00 00 00	 npad	 9
$LL4@GetModifyT:

; 338  : 		if(!m_fiboRetraceDrawer.GetPoint(region, ptStart, ptEnd, nIndex, fiboPoint))

  00130	8d 45 d8	 lea	 eax, DWORD PTR _fiboPoint$5[ebp]
; File C:\Program Files (x86)\Microsoft Visual Studio\2019\Community\VC\Tools\MSVC\14.29.30133\atlmfc\include\atltypes.h

; 408  : 	x = initX;

  00133	c7 45 d8 00 00
	00 00		 mov	 DWORD PTR _fiboPoint$5[ebp], 0
; File D:\git\src\IBK\IBK_DRFN\ProjSrc\SrcChartEx\ChartAddIn\ChartAnalysisToolAddIn\AnalysisTool\FiboGann.cpp

; 338  : 		if(!m_fiboRetraceDrawer.GetPoint(region, ptStart, ptEnd, nIndex, fiboPoint))

  0013a	50		 push	 eax
  0013b	56		 push	 esi
  0013c	8d 45 e8	 lea	 eax, DWORD PTR _ptEnd$[ebp]
; File C:\Program Files (x86)\Microsoft Visual Studio\2019\Community\VC\Tools\MSVC\14.29.30133\atlmfc\include\atltypes.h

; 409  : 	y = initY;

  0013f	c7 45 dc 00 00
	00 00		 mov	 DWORD PTR _fiboPoint$5[ebp+4], 0
; File D:\git\src\IBK\IBK_DRFN\ProjSrc\SrcChartEx\ChartAddIn\ChartAnalysisToolAddIn\AnalysisTool\FiboGann.cpp

; 338  : 		if(!m_fiboRetraceDrawer.GetPoint(region, ptStart, ptEnd, nIndex, fiboPoint))

  00146	50		 push	 eax
  00147	8d 45 e0	 lea	 eax, DWORD PTR _ptStart$[ebp]
  0014a	8b cf		 mov	 ecx, edi
  0014c	50		 push	 eax
  0014d	53		 push	 ebx
  0014e	e8 00 00 00 00	 call	 ?GetPoint@CFiboRetraceDrawer@@QBE_NABVCRect@@ABVCPoint@@1HAAV3@@Z ; CFiboRetraceDrawer::GetPoint
  00153	84 c0		 test	 al, al
  00155	74 36		 je	 SHORT $LN3@GetModifyT

; 353  : 	return CTwoPointElement::GetModifyType_Line(CPoint((nX1 < nX2 ? nX1: nX2), fiboPoint.y), fiboPoint, point);

  00157	8b 4d e8	 mov	 ecx, DWORD PTR _ptEnd$[ebp]
; File C:\Program Files (x86)\Microsoft Visual Studio\2019\Community\VC\Tools\MSVC\14.29.30133\atlmfc\include\atltypes.h

; 409  : 	y = initY;

  0015a	8b 45 dc	 mov	 eax, DWORD PTR _fiboPoint$5[ebp+4]
; File D:\git\src\IBK\IBK_DRFN\ProjSrc\SrcChartEx\ChartAddIn\ChartAnalysisToolAddIn\AnalysisTool\FiboGann.cpp

; 353  : 	return CTwoPointElement::GetModifyType_Line(CPoint((nX1 < nX2 ? nX1: nX2), fiboPoint.y), fiboPoint, point);

  0015d	39 4d e0	 cmp	 DWORD PTR _ptStart$[ebp], ecx
  00160	ff 75 14	 push	 DWORD PTR _point$[ebp]
  00163	0f 4c 4d e0	 cmovl	 ecx, DWORD PTR _ptStart$[ebp]
; File C:\Program Files (x86)\Microsoft Visual Studio\2019\Community\VC\Tools\MSVC\14.29.30133\atlmfc\include\atltypes.h

; 409  : 	y = initY;

  00167	89 45 d4	 mov	 DWORD PTR $T4[ebp+4], eax
; File D:\git\src\IBK\IBK_DRFN\ProjSrc\SrcChartEx\ChartAddIn\ChartAnalysisToolAddIn\AnalysisTool\FiboGann.cpp

; 353  : 	return CTwoPointElement::GetModifyType_Line(CPoint((nX1 < nX2 ? nX1: nX2), fiboPoint.y), fiboPoint, point);

  0016a	8d 45 d8	 lea	 eax, DWORD PTR _fiboPoint$5[ebp]
  0016d	50		 push	 eax
  0016e	8d 45 d0	 lea	 eax, DWORD PTR $T4[ebp]
; File C:\Program Files (x86)\Microsoft Visual Studio\2019\Community\VC\Tools\MSVC\14.29.30133\atlmfc\include\atltypes.h

; 408  : 	x = initX;

  00171	89 4d d0	 mov	 DWORD PTR $T4[ebp], ecx
; File D:\git\src\IBK\IBK_DRFN\ProjSrc\SrcChartEx\ChartAddIn\ChartAnalysisToolAddIn\AnalysisTool\FiboGann.cpp

; 353  : 	return CTwoPointElement::GetModifyType_Line(CPoint((nX1 < nX2 ? nX1: nX2), fiboPoint.y), fiboPoint, point);

  00174	8b 4d f0	 mov	 ecx, DWORD PTR _this$1$[ebp]
  00177	50		 push	 eax
  00178	e8 00 00 00 00	 call	 ?GetModifyType_Line@CTwoPointElement@@IBE?AW4ModifyType@CToolEnumData@@ABVCPoint@@00@Z ; CTwoPointElement::GetModifyType_Line

; 339  : 			break;
; 340  : 		
; 341  : 		CToolEnumData::ModifyType modifyType = GetModifyType(ptStart.x, ptEnd.x, fiboPoint, point);
; 342  : 		if(modifyType != CToolEnumData::MODIFY_NONE)

  0017d	85 c0		 test	 eax, eax
  0017f	75 0e		 jne	 SHORT $LN1@GetModifyT

; 332  : 		}
; 333  : 	}
; 334  : 
; 335  : 	for(int nIndex = 0; nIndex < m_fiboRetraceDrawer.GetCount(); nIndex++)

  00181	8b 07		 mov	 eax, DWORD PTR [edi]
  00183	8b cf		 mov	 ecx, edi
  00185	46		 inc	 esi
  00186	ff 50 10	 call	 DWORD PTR [eax+16]
  00189	3b f0		 cmp	 esi, eax
  0018b	7c a3		 jl	 SHORT $LL4@GetModifyT
$LN3@GetModifyT:

; 343  : 			return modifyType;
; 344  : 	}
; 345  : 
; 346  : 	return CToolEnumData::MODIFY_NONE;

  0018d	33 c0		 xor	 eax, eax
$LN1@GetModifyT:

; 347  : }

  0018f	8b 4d f4	 mov	 ecx, DWORD PTR __$EHRec$[ebp]
  00192	64 89 0d 00 00
	00 00		 mov	 DWORD PTR fs:0, ecx
  00199	59		 pop	 ecx
  0019a	5f		 pop	 edi
  0019b	5e		 pop	 esi
  0019c	5b		 pop	 ebx
  0019d	8b e5		 mov	 esp, ebp
  0019f	5d		 pop	 ebp
  001a0	c2 10 00	 ret	 16			; 00000010H
_TEXT	ENDS
;	COMDAT text$x
text$x	SEGMENT
__unwindfunclet$?GetModifyType@CFiboRetrace@@MBE?AW4ModifyType@CToolEnumData@@ABVCRect@@ABVCPoint@@11@Z$0:
  00000	8d 4d 88	 lea	 ecx, DWORD PTR $T3[ebp]
  00003	e9 00 00 00 00	 jmp	 ??1CElementCommonEnvironment@@QAE@XZ
__unwindfunclet$?GetModifyType@CFiboRetrace@@MBE?AW4ModifyType@CToolEnumData@@ABVCRect@@ABVCPoint@@11@Z$1:
  00008	8d 4d 88	 lea	 ecx, DWORD PTR $T2[ebp]
  0000b	e9 00 00 00 00	 jmp	 ??1CElementCommonEnvironment@@QAE@XZ
  00010	cc		 int	 3
  00011	cc		 int	 3
  00012	cc		 int	 3
  00013	cc		 int	 3
  00014	cc		 int	 3
__ehhandler$?GetModifyType@CFiboRetrace@@MBE?AW4ModifyType@CToolEnumData@@ABVCRect@@ABVCPoint@@11@Z:
  00015	90		 npad	 1
  00016	90		 npad	 1
  00017	8b 54 24 08	 mov	 edx, DWORD PTR [esp+8]
  0001b	8d 42 0c	 lea	 eax, DWORD PTR [edx+12]
  0001e	8b 4a 84	 mov	 ecx, DWORD PTR [edx-124]
  00021	33 c8		 xor	 ecx, eax
  00023	e8 00 00 00 00	 call	 @__security_check_cookie@4
  00028	b8 00 00 00 00	 mov	 eax, OFFSET __ehfuncinfo$?GetModifyType@CFiboRetrace@@MBE?AW4ModifyType@CToolEnumData@@ABVCRect@@ABVCPoint@@11@Z
  0002d	e9 00 00 00 00	 jmp	 ___CxxFrameHandler3
text$x	ENDS
?GetModifyType@CFiboRetrace@@MBE?AW4ModifyType@CToolEnumData@@ABVCRect@@ABVCPoint@@11@Z ENDP ; CFiboRetrace::GetModifyType
; Function compile flags: /Ogtp
; File D:\git\src\IBK\IBK_DRFN\ProjSrc\SrcChartEx\ChartAddIn\ChartAnalysisToolAddIn\AnalysisTool\FiboGann.cpp
;	COMDAT ?ElementInRegion@CFiboRetrace@@MBE_NABVCRect@@ABVCPoint@@11@Z
_TEXT	SEGMENT
_region$ = 8						; size = 4
_startPoint$ = 12					; size = 4
_endPoint$ = 16						; size = 4
_point$ = 20						; size = 4
?ElementInRegion@CFiboRetrace@@MBE_NABVCRect@@ABVCPoint@@11@Z PROC ; CFiboRetrace::ElementInRegion, COMDAT
; _this$ = ecx

; 299  : {

  00000	55		 push	 ebp
  00001	8b ec		 mov	 ebp, esp
  00003	56		 push	 esi

; 300  : 	if(CTwoPointElement::ElementInRegion(region, startPoint, endPoint, point))

  00004	8b 75 0c	 mov	 esi, DWORD PTR _startPoint$[ebp]
  00007	57		 push	 edi
  00008	ff 75 14	 push	 DWORD PTR _point$[ebp]
  0000b	8b 7d 08	 mov	 edi, DWORD PTR _region$[ebp]
  0000e	ff 75 10	 push	 DWORD PTR _endPoint$[ebp]
  00011	56		 push	 esi
  00012	57		 push	 edi
  00013	e8 00 00 00 00	 call	 ?ElementInRegion@CTwoPointElement@@MBE_NABVCRect@@ABVCPoint@@11@Z ; CTwoPointElement::ElementInRegion
  00018	84 c0		 test	 al, al
  0001a	74 08		 je	 SHORT $LN2@ElementInR

; 301  : 		return true;

  0001c	5f		 pop	 edi
  0001d	b0 01		 mov	 al, 1

; 304  : }

  0001f	5e		 pop	 esi
  00020	5d		 pop	 ebp
  00021	c2 10 00	 ret	 16			; 00000010H
$LN2@ElementInR:

; 302  : 
; 303  : 	return (startPoint.x <= region.right);

  00024	8b 06		 mov	 eax, DWORD PTR [esi]
  00026	3b 47 08	 cmp	 eax, DWORD PTR [edi+8]
  00029	5f		 pop	 edi
  0002a	0f 9e c0	 setle	 al

; 304  : }

  0002d	5e		 pop	 esi
  0002e	5d		 pop	 ebp
  0002f	c2 10 00	 ret	 16			; 00000010H
?ElementInRegion@CFiboRetrace@@MBE_NABVCRect@@ABVCPoint@@11@Z ENDP ; CFiboRetrace::ElementInRegion
_TEXT	ENDS
; Function compile flags: /Ogtp
; File D:\git\src\IBK\IBK_DRFN\ProjSrc\SrcChartEx\ChartAddIn\ChartAnalysisToolAddIn\AnalysisTool\FiboGann.cpp
;	COMDAT ?GetTwoPointDrawer@CFiboRetrace@@MAEAAVCTwoPointDrawer@@XZ
_TEXT	SEGMENT
?GetTwoPointDrawer@CFiboRetrace@@MAEAAVCTwoPointDrawer@@XZ PROC ; CFiboRetrace::GetTwoPointDrawer, COMDAT
; _this$ = ecx

; 293  : 	return m_fiboRetraceDrawer;

  00000	8d 81 90 00 00
	00		 lea	 eax, DWORD PTR [ecx+144]

; 294  : }

  00006	c3		 ret	 0
?GetTwoPointDrawer@CFiboRetrace@@MAEAAVCTwoPointDrawer@@XZ ENDP ; CFiboRetrace::GetTwoPointDrawer
_TEXT	ENDS
; Function compile flags: /Ogtp
; File D:\git\src\IBK\IBK_DRFN\ProjSrc\SrcChartEx\ChartAddIn\ChartAnalysisToolAddIn\AnalysisTool\FiboGann.cpp
;	COMDAT ?GetTextPosition@CFiboRetrace@@MAEPAVCTextPosition@@XZ
_TEXT	SEGMENT
?GetTextPosition@CFiboRetrace@@MAEPAVCTextPosition@@XZ PROC ; CFiboRetrace::GetTextPosition, COMDAT
; _this$ = ecx

; 288  : 	return &m_textPosition;

  00000	8d 81 c4 00 00
	00		 lea	 eax, DWORD PTR [ecx+196]

; 289  : }

  00006	c3		 ret	 0
?GetTextPosition@CFiboRetrace@@MAEPAVCTextPosition@@XZ ENDP ; CFiboRetrace::GetTextPosition
_TEXT	ENDS
; Function compile flags: /Ogtp
; File D:\git\src\IBK\IBK_DRFN\ProjSrc\SrcChartEx\ChartAddIn\ChartAnalysisToolAddIn\AnalysisTool\FiboGann.cpp
;	COMDAT ?GetTextPosition@CFiboRetrace@@MBEPBVCTextPosition@@XZ
_TEXT	SEGMENT
?GetTextPosition@CFiboRetrace@@MBEPBVCTextPosition@@XZ PROC ; CFiboRetrace::GetTextPosition, COMDAT
; _this$ = ecx

; 283  : 	return &m_textPosition;

  00000	8d 81 c4 00 00
	00		 lea	 eax, DWORD PTR [ecx+196]

; 284  : }

  00006	c3		 ret	 0
?GetTextPosition@CFiboRetrace@@MBEPBVCTextPosition@@XZ ENDP ; CFiboRetrace::GetTextPosition
_TEXT	ENDS
; Function compile flags: /Ogtp
; File D:\git\src\IBK\IBK_DRFN\ProjSrc\SrcChartEx\ChartAddIn\ChartAnalysisToolAddIn\AnalysisTool\FiboGann.cpp
;	COMDAT ?GetElementType@CFiboRetrace@@UBE?AW4ElementType@CToolEnumData@@XZ
_TEXT	SEGMENT
?GetElementType@CFiboRetrace@@UBE?AW4ElementType@CToolEnumData@@XZ PROC ; CFiboRetrace::GetElementType, COMDAT
; _this$ = ecx

; 277  : 	return CToolEnumData::Fibo_Retrace;

  00000	b8 0b 00 00 00	 mov	 eax, 11			; 0000000bH

; 278  : }

  00005	c3		 ret	 0
?GetElementType@CFiboRetrace@@UBE?AW4ElementType@CToolEnumData@@XZ ENDP ; CFiboRetrace::GetElementType
_TEXT	ENDS
; Function compile flags: /Ogtp
; File D:\git\src\IBK\IBK_DRFN\ProjSrc\SrcChartEx\ChartAddIn\ChartAnalysisToolAddIn\AnalysisTool\FiboGann.cpp
;	COMDAT ??0CFiboRetrace@@QAE@ABVCTextShowPosition@@ABVCCoordinate@@1ABVCElementCommonEnvironment@@@Z
_TEXT	SEGMENT
_this$ = -16						; size = 4
__$EHRec$ = -12						; size = 12
_position$ = 8						; size = 4
_point1$ = 12						; size = 4
_point2$ = 16						; size = 4
_this$ = 20						; size = 4
_environment$ = 20					; size = 4
??0CFiboRetrace@@QAE@ABVCTextShowPosition@@ABVCCoordinate@@1ABVCElementCommonEnvironment@@@Z PROC ; CFiboRetrace::CFiboRetrace, COMDAT
; _this$ = ecx

; 272  : {

  00000	55		 push	 ebp
  00001	8b ec		 mov	 ebp, esp
  00003	6a ff		 push	 -1
  00005	68 00 00 00 00	 push	 __ehhandler$??0CFiboRetrace@@QAE@ABVCTextShowPosition@@ABVCCoordinate@@1ABVCElementCommonEnvironment@@@Z
  0000a	64 a1 00 00 00
	00		 mov	 eax, DWORD PTR fs:0
  00010	50		 push	 eax
  00011	51		 push	 ecx
  00012	56		 push	 esi
  00013	57		 push	 edi
  00014	a1 00 00 00 00	 mov	 eax, DWORD PTR ___security_cookie
  00019	33 c5		 xor	 eax, ebp
  0001b	50		 push	 eax
  0001c	8d 45 f4	 lea	 eax, DWORD PTR __$EHRec$[ebp]
  0001f	64 a3 00 00 00
	00		 mov	 DWORD PTR fs:0, eax
  00025	8b f9		 mov	 edi, ecx
  00027	89 7d f0	 mov	 DWORD PTR _this$[ebp], edi

; 270  : 	CTwoPointElement(point1, point2, environment),

  0002a	ff 75 14	 push	 DWORD PTR _environment$[ebp]
  0002d	ff 75 10	 push	 DWORD PTR _point2$[ebp]
  00030	ff 75 0c	 push	 DWORD PTR _point1$[ebp]
  00033	e8 00 00 00 00	 call	 ??0CTwoPointElement@@QAE@ABVCCoordinate@@0ABVCElementCommonEnvironment@@@Z ; CTwoPointElement::CTwoPointElement

; 272  : {

  00038	8d b7 90 00 00
	00		 lea	 esi, DWORD PTR [edi+144]
  0003e	c7 07 00 00 00
	00		 mov	 DWORD PTR [edi], OFFSET ??_7CFiboRetrace@@6B@
  00044	8d 4e 20	 lea	 ecx, DWORD PTR [esi+32]
  00047	c7 45 fc 00 00
	00 00		 mov	 DWORD PTR __$EHRec$[ebp+8], 0
  0004e	89 75 14	 mov	 DWORD PTR _this$[ebp], esi
  00051	c7 46 04 00 00
	00 00		 mov	 DWORD PTR [esi+4], OFFSET ??_8CFiboRetraceDrawer@@7B@
  00058	e8 00 00 00 00	 call	 ??0CDrawer@@QAE@XZ	; CDrawer::CDrawer
  0005d	8d 4e 08	 lea	 ecx, DWORD PTR [esi+8]
  00060	c7 06 00 00 00
	00		 mov	 DWORD PTR [esi], OFFSET ??_7CFiboDrawer@@6B@
  00066	e8 00 00 00 00	 call	 ??0CDWordArray@@QAE@XZ	; CDWordArray::CDWordArray
  0006b	8d 4e 1c	 lea	 ecx, DWORD PTR [esi+28]
  0006e	ff 15 00 00 00
	00		 call	 DWORD PTR __imp_??0?$CStringT@DV?$StrTraitMFC_DLL@DV?$ChTraitsCRT@D@ATL@@@@@ATL@@QAE@XZ
  00074	c7 06 00 00 00
	00		 mov	 DWORD PTR [esi], OFFSET ??_7CFiboRetraceDrawer@@6B@
  0007a	ff 75 08	 push	 DWORD PTR _position$[ebp]
  0007d	8d 8f c4 00 00
	00		 lea	 ecx, DWORD PTR [edi+196]
  00083	c6 45 fc 01	 mov	 BYTE PTR __$EHRec$[ebp+8], 1
  00087	e8 00 00 00 00	 call	 ??0CTextShowPosition@@QAE@ABV0@@Z ; CTextShowPosition::CTextShowPosition

; 273  : }

  0008c	8b c7		 mov	 eax, edi
  0008e	8b 4d f4	 mov	 ecx, DWORD PTR __$EHRec$[ebp]
  00091	64 89 0d 00 00
	00 00		 mov	 DWORD PTR fs:0, ecx
  00098	59		 pop	 ecx
  00099	5f		 pop	 edi
  0009a	5e		 pop	 esi
  0009b	8b e5		 mov	 esp, ebp
  0009d	5d		 pop	 ebp
  0009e	c2 10 00	 ret	 16			; 00000010H
_TEXT	ENDS
;	COMDAT text$x
text$x	SEGMENT
__unwindfunclet$??0CFiboRetrace@@QAE@ABVCTextShowPosition@@ABVCCoordinate@@1ABVCElementCommonEnvironment@@@Z$0:
  00000	8b 4d f0	 mov	 ecx, DWORD PTR _this$[ebp]
  00003	e9 00 00 00 00	 jmp	 ??1CTwoPointElement@@UAE@XZ
__unwindfunclet$??0CFiboRetrace@@QAE@ABVCTextShowPosition@@ABVCCoordinate@@1ABVCElementCommonEnvironment@@@Z$1:
  00008	8b 4d f0	 mov	 ecx, DWORD PTR _this$[ebp]
  0000b	81 c1 90 00 00
	00		 add	 ecx, 144		; 00000090H
  00011	e9 00 00 00 00	 jmp	 ??1CFiboRetraceDrawer@@QAE@XZ
  00016	cc		 int	 3
  00017	cc		 int	 3
  00018	cc		 int	 3
  00019	cc		 int	 3
  0001a	cc		 int	 3
__ehhandler$??0CFiboRetrace@@QAE@ABVCTextShowPosition@@ABVCCoordinate@@1ABVCElementCommonEnvironment@@@Z:
  0001b	90		 npad	 1
  0001c	90		 npad	 1
  0001d	8b 54 24 08	 mov	 edx, DWORD PTR [esp+8]
  00021	8d 42 0c	 lea	 eax, DWORD PTR [edx+12]
  00024	8b 4a f0	 mov	 ecx, DWORD PTR [edx-16]
  00027	33 c8		 xor	 ecx, eax
  00029	e8 00 00 00 00	 call	 @__security_check_cookie@4
  0002e	b8 00 00 00 00	 mov	 eax, OFFSET __ehfuncinfo$??0CFiboRetrace@@QAE@ABVCTextShowPosition@@ABVCCoordinate@@1ABVCElementCommonEnvironment@@@Z
  00033	e9 00 00 00 00	 jmp	 ___CxxFrameHandler3
text$x	ENDS
??0CFiboRetrace@@QAE@ABVCTextShowPosition@@ABVCCoordinate@@1ABVCElementCommonEnvironment@@@Z ENDP ; CFiboRetrace::CFiboRetrace
; Function compile flags: /Ogtp
; File D:\git\src\IBK\IBK_DRFN\ProjSrc\SrcChartEx\ChartAddIn\ChartAnalysisToolAddIn\AnalysisTool\Element.h
;	COMDAT ??_GCFiboPenLine@@UAEPAXI@Z
_TEXT	SEGMENT
___flags$ = 8						; size = 4
??_GCFiboPenLine@@UAEPAXI@Z PROC			; CFiboPenLine::`scalar deleting destructor', COMDAT
; _this$ = ecx
  00000	55		 push	 ebp
  00001	8b ec		 mov	 ebp, esp

; 31   : 	virtual ~CElement()	{}

  00003	56		 push	 esi
  00004	8b f1		 mov	 esi, ecx
  00006	8d 8e ac 00 00
	00		 lea	 ecx, DWORD PTR [esi+172]
  0000c	ff 15 00 00 00
	00		 call	 DWORD PTR __imp_??1?$CStringT@DV?$StrTraitMFC_DLL@DV?$ChTraitsCRT@D@ATL@@@@@ATL@@QAE@XZ
  00012	8d 8e 98 00 00
	00		 lea	 ecx, DWORD PTR [esi+152]
  00018	e8 00 00 00 00	 call	 ??1CDWordArray@@UAE@XZ	; CDWordArray::~CDWordArray
  0001d	8d 8e 84 00 00
	00		 lea	 ecx, DWORD PTR [esi+132]
  00023	ff 15 00 00 00
	00		 call	 DWORD PTR __imp_??1?$CStringT@DV?$StrTraitMFC_DLL@DV?$ChTraitsCRT@D@ATL@@@@@ATL@@QAE@XZ
  00029	8d 4e 64	 lea	 ecx, DWORD PTR [esi+100]
  0002c	ff 15 00 00 00
	00		 call	 DWORD PTR __imp_??1?$CStringT@DV?$StrTraitMFC_DLL@DV?$ChTraitsCRT@D@ATL@@@@@ATL@@QAE@XZ
  00032	8d 4e 40	 lea	 ecx, DWORD PTR [esi+64]
  00035	c7 06 00 00 00
	00		 mov	 DWORD PTR [esi], OFFSET ??_7CElement@@6B@
  0003b	ff 15 00 00 00
	00		 call	 DWORD PTR __imp_??1?$CStringT@DV?$StrTraitMFC_DLL@DV?$ChTraitsCRT@D@ATL@@@@@ATL@@QAE@XZ
  00041	8d 4e 3c	 lea	 ecx, DWORD PTR [esi+60]
  00044	ff 15 00 00 00
	00		 call	 DWORD PTR __imp_??1?$CStringT@DV?$StrTraitMFC_DLL@DV?$ChTraitsCRT@D@ATL@@@@@ATL@@QAE@XZ
  0004a	8d 4e 38	 lea	 ecx, DWORD PTR [esi+56]
  0004d	ff 15 00 00 00
	00		 call	 DWORD PTR __imp_??1?$CStringT@DV?$StrTraitMFC_DLL@DV?$ChTraitsCRT@D@ATL@@@@@ATL@@QAE@XZ
  00053	f6 45 08 01	 test	 BYTE PTR ___flags$[ebp], 1
  00057	74 0e		 je	 SHORT $LN31@scalar
  00059	68 d0 00 00 00	 push	 208			; 000000d0H
  0005e	56		 push	 esi
  0005f	e8 00 00 00 00	 call	 ??3@YAXPAXI@Z		; operator delete
  00064	83 c4 08	 add	 esp, 8
$LN31@scalar:
  00067	8b c6		 mov	 eax, esi
  00069	5e		 pop	 esi
  0006a	5d		 pop	 ebp
  0006b	c2 04 00	 ret	 4
??_GCFiboPenLine@@UAEPAXI@Z ENDP			; CFiboPenLine::`scalar deleting destructor'
_TEXT	ENDS
; Function compile flags: /Ogtp
; File D:\git\src\IBK\IBK_DRFN\ProjSrc\SrcChartEx\ChartAddIn\ChartAnalysisToolAddIn\AnalysisTool\FiboGann.cpp
;	COMDAT ?GetModifyType@CFiboPenLine@@ABE?AW4ModifyType@CToolEnumData@@ABVCPoint@@000@Z
_TEXT	SEGMENT
_drawingStartPt$ = 8					; size = 4
_drawingEndPt$ = 12					; size = 4
_fiboPoint$ = 16					; size = 4
_point$ = 20						; size = 4
?GetModifyType@CFiboPenLine@@ABE?AW4ModifyType@CToolEnumData@@ABVCPoint@@000@Z PROC ; CFiboPenLine::GetModifyType, COMDAT
; _this$ = ecx

; 258  : {

  00000	55		 push	 ebp
  00001	8b ec		 mov	 ebp, esp

; 259  : 	if(drawingStartPt.x <= drawingEndPt.x)

  00003	8b 55 08	 mov	 edx, DWORD PTR _drawingStartPt$[ebp]
  00006	56		 push	 esi
  00007	8b 75 0c	 mov	 esi, DWORD PTR _drawingEndPt$[ebp]
  0000a	ff 75 14	 push	 DWORD PTR _point$[ebp]
  0000d	8b 02		 mov	 eax, DWORD PTR [edx]
  0000f	ff 75 10	 push	 DWORD PTR _fiboPoint$[ebp]
  00012	3b 06		 cmp	 eax, DWORD PTR [esi]
  00014	7f 0b		 jg	 SHORT $LN2@GetModifyT

; 260  : 		return CTwoPointElement::GetModifyType_Line(drawingStartPt, fiboPoint, point);

  00016	52		 push	 edx

; 263  : }

  00017	e8 00 00 00 00	 call	 ?GetModifyType_Line@CTwoPointElement@@IBE?AW4ModifyType@CToolEnumData@@ABVCPoint@@00@Z ; CTwoPointElement::GetModifyType_Line
  0001c	5e		 pop	 esi
  0001d	5d		 pop	 ebp
  0001e	c2 10 00	 ret	 16			; 00000010H
$LN2@GetModifyT:

; 261  : 
; 262  : 	return CTwoPointElement::GetModifyType_Line(drawingEndPt, fiboPoint, point);

  00021	56		 push	 esi

; 263  : }

  00022	e8 00 00 00 00	 call	 ?GetModifyType_Line@CTwoPointElement@@IBE?AW4ModifyType@CToolEnumData@@ABVCPoint@@00@Z ; CTwoPointElement::GetModifyType_Line
  00027	5e		 pop	 esi
  00028	5d		 pop	 ebp
  00029	c2 10 00	 ret	 16			; 00000010H
?GetModifyType@CFiboPenLine@@ABE?AW4ModifyType@CToolEnumData@@ABVCPoint@@000@Z ENDP ; CFiboPenLine::GetModifyType
_TEXT	ENDS
; Function compile flags: /Ogtp
; File D:\git\src\IBK\IBK_DRFN\ProjSrc\SrcChartEx\ChartAddIn\ChartAnalysisToolAddIn\AnalysisTool\FiboGann.cpp
;	COMDAT ?GetTextPosition@CFiboPenLine@@MAEPAVCTextPosition@@XZ
_TEXT	SEGMENT
?GetTextPosition@CFiboPenLine@@MAEPAVCTextPosition@@XZ PROC ; CFiboPenLine::GetTextPosition, COMDAT
; _this$ = ecx

; 213  : 	return &m_textPosition;

  00000	8d 81 c4 00 00
	00		 lea	 eax, DWORD PTR [ecx+196]

; 214  : }

  00006	c3		 ret	 0
?GetTextPosition@CFiboPenLine@@MAEPAVCTextPosition@@XZ ENDP ; CFiboPenLine::GetTextPosition
_TEXT	ENDS
; Function compile flags: /Ogtp
; File D:\git\src\IBK\IBK_DRFN\ProjSrc\SrcChartEx\ChartAddIn\ChartAnalysisToolAddIn\AnalysisTool\FiboGann.cpp
;	COMDAT ?GetTextPosition@CFiboPenLine@@MBEPBVCTextPosition@@XZ
_TEXT	SEGMENT
?GetTextPosition@CFiboPenLine@@MBEPBVCTextPosition@@XZ PROC ; CFiboPenLine::GetTextPosition, COMDAT
; _this$ = ecx

; 208  : 	return &m_textPosition;

  00000	8d 81 c4 00 00
	00		 lea	 eax, DWORD PTR [ecx+196]

; 209  : }

  00006	c3		 ret	 0
?GetTextPosition@CFiboPenLine@@MBEPBVCTextPosition@@XZ ENDP ; CFiboPenLine::GetTextPosition
_TEXT	ENDS
; Function compile flags: /Ogtp
; File D:\git\src\IBK\IBK_DRFN\ProjSrc\SrcChartEx\ChartAddIn\ChartAnalysisToolAddIn\AnalysisTool\FiboGann.cpp
; File C:\Program Files (x86)\Microsoft Visual Studio\2019\Community\VC\Tools\MSVC\14.29.30133\atlmfc\include\atltypes.h
; File D:\git\src\IBK\IBK_DRFN\ProjSrc\SrcChartEx\ChartAddIn\ChartAnalysisToolAddIn\AnalysisTool\FiboGann.cpp
; File C:\Program Files (x86)\Microsoft Visual Studio\2019\Community\VC\Tools\MSVC\14.29.30133\atlmfc\include\atltypes.h
; File D:\git\src\IBK\IBK_DRFN\ProjSrc\SrcChartEx\ChartAddIn\ChartAnalysisToolAddIn\AnalysisTool\FiboGann.cpp
;	COMDAT ?GetModifyType@CFiboPenLine@@MBE?AW4ModifyType@CToolEnumData@@ABVCRect@@ABVCPoint@@11@Z
_TEXT	SEGMENT
_fiboPoint$1 = -12					; size = 8
_this$1$ = -4						; size = 4
_region$ = 8						; size = 4
_drawingStartPt$ = 12					; size = 4
tv231 = 16						; size = 4
_drawingEndPt$ = 16					; size = 4
_point$ = 20						; size = 4
?GetModifyType@CFiboPenLine@@MBE?AW4ModifyType@CToolEnumData@@ABVCRect@@ABVCPoint@@11@Z PROC ; CFiboPenLine::GetModifyType, COMDAT
; _this$ = ecx

; 238  : {

  00000	55		 push	 ebp
  00001	8b ec		 mov	 ebp, esp
  00003	83 ec 0c	 sub	 esp, 12			; 0000000cH
  00006	53		 push	 ebx

; 239  : 	CToolEnumData::ModifyType modifyType = CTwoPointElement::GetModifyType(region, drawingStartPt, drawingEndPt, point);

  00007	8b 5d 0c	 mov	 ebx, DWORD PTR _drawingStartPt$[ebp]
  0000a	8b c1		 mov	 eax, ecx
  0000c	57		 push	 edi
  0000d	ff 75 14	 push	 DWORD PTR _point$[ebp]
  00010	8b 7d 10	 mov	 edi, DWORD PTR _drawingEndPt$[ebp]
  00013	57		 push	 edi
  00014	53		 push	 ebx
  00015	ff 75 08	 push	 DWORD PTR _region$[ebp]
  00018	89 45 fc	 mov	 DWORD PTR _this$1$[ebp], eax
  0001b	e8 00 00 00 00	 call	 ?GetModifyType@CTwoPointElement@@MBE?AW4ModifyType@CToolEnumData@@ABVCRect@@ABVCPoint@@11@Z ; CTwoPointElement::GetModifyType

; 240  : 	if(modifyType != CToolEnumData::MODIFY_NONE)

  00020	85 c0		 test	 eax, eax
  00022	75 5a		 jne	 SHORT $LN1@GetModifyT

; 241  : 		return modifyType;
; 242  : 
; 243  : 	for(int nIndex = 0; nIndex < 3; nIndex++){

  00024	8b 45 fc	 mov	 eax, DWORD PTR _this$1$[ebp]
  00027	56		 push	 esi
  00028	33 f6		 xor	 esi, esi
  0002a	05 90 00 00 00	 add	 eax, 144		; 00000090H
  0002f	89 45 10	 mov	 DWORD PTR tv231[ebp], eax
$LL4@GetModifyT:

; 245  : 		if(!m_fiboPenLineDrawer.GetPoint(region, drawingStartPt, drawingEndPt, nIndex, fiboPoint))

  00032	8d 4d f4	 lea	 ecx, DWORD PTR _fiboPoint$1[ebp]
; File C:\Program Files (x86)\Microsoft Visual Studio\2019\Community\VC\Tools\MSVC\14.29.30133\atlmfc\include\atltypes.h

; 408  : 	x = initX;

  00035	c7 45 f4 00 00
	00 00		 mov	 DWORD PTR _fiboPoint$1[ebp], 0
; File D:\git\src\IBK\IBK_DRFN\ProjSrc\SrcChartEx\ChartAddIn\ChartAnalysisToolAddIn\AnalysisTool\FiboGann.cpp

; 245  : 		if(!m_fiboPenLineDrawer.GetPoint(region, drawingStartPt, drawingEndPt, nIndex, fiboPoint))

  0003c	51		 push	 ecx
  0003d	56		 push	 esi
  0003e	57		 push	 edi
  0003f	53		 push	 ebx
  00040	ff 75 08	 push	 DWORD PTR _region$[ebp]
  00043	8b c8		 mov	 ecx, eax
; File C:\Program Files (x86)\Microsoft Visual Studio\2019\Community\VC\Tools\MSVC\14.29.30133\atlmfc\include\atltypes.h

; 409  : 	y = initY;

  00045	c7 45 f8 00 00
	00 00		 mov	 DWORD PTR _fiboPoint$1[ebp+4], 0
; File D:\git\src\IBK\IBK_DRFN\ProjSrc\SrcChartEx\ChartAddIn\ChartAnalysisToolAddIn\AnalysisTool\FiboGann.cpp

; 245  : 		if(!m_fiboPenLineDrawer.GetPoint(region, drawingStartPt, drawingEndPt, nIndex, fiboPoint))

  0004c	e8 00 00 00 00	 call	 ?GetPoint@CFiboPenLineDrawer@@QBE_NABVCRect@@ABVCPoint@@1HAAV3@@Z ; CFiboPenLineDrawer::GetPoint
  00051	84 c0		 test	 al, al
  00053	74 26		 je	 SHORT $LN3@GetModifyT

; 259  : 	if(drawingStartPt.x <= drawingEndPt.x)

  00055	8b 03		 mov	 eax, DWORD PTR [ebx]
  00057	8b cf		 mov	 ecx, edi
  00059	3b 07		 cmp	 eax, DWORD PTR [edi]

; 246  : 			break;
; 247  : 
; 248  : 		modifyType = GetModifyType(drawingStartPt, drawingEndPt, fiboPoint, point);
; 249  : 		if(modifyType != CToolEnumData::MODIFY_NONE)

  0005b	8d 45 f4	 lea	 eax, DWORD PTR _fiboPoint$1[ebp]
  0005e	ff 75 14	 push	 DWORD PTR _point$[ebp]

; 259  : 	if(drawingStartPt.x <= drawingEndPt.x)

  00061	0f 4e cb	 cmovle	 ecx, ebx

; 246  : 			break;
; 247  : 
; 248  : 		modifyType = GetModifyType(drawingStartPt, drawingEndPt, fiboPoint, point);
; 249  : 		if(modifyType != CToolEnumData::MODIFY_NONE)

  00064	50		 push	 eax
  00065	51		 push	 ecx
  00066	8b 4d fc	 mov	 ecx, DWORD PTR _this$1$[ebp]
  00069	e8 00 00 00 00	 call	 ?GetModifyType_Line@CTwoPointElement@@IBE?AW4ModifyType@CToolEnumData@@ABVCPoint@@00@Z ; CTwoPointElement::GetModifyType_Line
  0006e	85 c0		 test	 eax, eax
  00070	75 0b		 jne	 SHORT $LN20@GetModifyT

; 241  : 		return modifyType;
; 242  : 
; 243  : 	for(int nIndex = 0; nIndex < 3; nIndex++){

  00072	8b 45 10	 mov	 eax, DWORD PTR tv231[ebp]
  00075	46		 inc	 esi
  00076	83 fe 03	 cmp	 esi, 3
  00079	7c b7		 jl	 SHORT $LL4@GetModifyT
$LN3@GetModifyT:

; 250  : 			return modifyType;
; 251  : 	}
; 252  : 
; 253  : 	return CToolEnumData::MODIFY_NONE;

  0007b	33 c0		 xor	 eax, eax
$LN20@GetModifyT:
  0007d	5e		 pop	 esi
$LN1@GetModifyT:
  0007e	5f		 pop	 edi

; 254  : }

  0007f	5b		 pop	 ebx
  00080	8b e5		 mov	 esp, ebp
  00082	5d		 pop	 ebp
  00083	c2 10 00	 ret	 16			; 00000010H
?GetModifyType@CFiboPenLine@@MBE?AW4ModifyType@CToolEnumData@@ABVCRect@@ABVCPoint@@11@Z ENDP ; CFiboPenLine::GetModifyType
_TEXT	ENDS
; Function compile flags: /Ogtp
; File D:\git\src\IBK\IBK_DRFN\ProjSrc\SrcChartEx\ChartAddIn\ChartAnalysisToolAddIn\AnalysisTool\FiboGann.cpp
;	COMDAT ?ElementInRegion@CFiboPenLine@@MBE_NABVCRect@@ABVCPoint@@11@Z
_TEXT	SEGMENT
_region$ = 8						; size = 4
_startPoint$ = 12					; size = 4
_endPoint$ = 16						; size = 4
_point$ = 20						; size = 4
?ElementInRegion@CFiboPenLine@@MBE_NABVCRect@@ABVCPoint@@11@Z PROC ; CFiboPenLine::ElementInRegion, COMDAT
; _this$ = ecx

; 225  : {

  00000	55		 push	 ebp
  00001	8b ec		 mov	 ebp, esp
  00003	56		 push	 esi

; 226  : 	if(CTwoPointElement::ElementInRegion(region, startPoint, endPoint, point))

  00004	8b 75 0c	 mov	 esi, DWORD PTR _startPoint$[ebp]
  00007	57		 push	 edi
  00008	ff 75 14	 push	 DWORD PTR _point$[ebp]
  0000b	8b 7d 08	 mov	 edi, DWORD PTR _region$[ebp]
  0000e	ff 75 10	 push	 DWORD PTR _endPoint$[ebp]
  00011	56		 push	 esi
  00012	57		 push	 edi
  00013	e8 00 00 00 00	 call	 ?ElementInRegion@CTwoPointElement@@MBE_NABVCRect@@ABVCPoint@@11@Z ; CTwoPointElement::ElementInRegion
  00018	84 c0		 test	 al, al
  0001a	75 0f		 jne	 SHORT $LN3@ElementInR

; 227  : 		return true;
; 228  : 
; 229  : 	if(startPoint.x > region.right)

  0001c	8b 06		 mov	 eax, DWORD PTR [esi]
  0001e	3b 47 08	 cmp	 eax, DWORD PTR [edi+8]
  00021	7e 08		 jle	 SHORT $LN3@ElementInR

; 230  : 		return false;

  00023	5f		 pop	 edi
  00024	32 c0		 xor	 al, al

; 233  : }

  00026	5e		 pop	 esi
  00027	5d		 pop	 ebp
  00028	c2 10 00	 ret	 16			; 00000010H
$LN3@ElementInR:
  0002b	5f		 pop	 edi

; 231  : 
; 232  : 	return true;

  0002c	b0 01		 mov	 al, 1

; 233  : }

  0002e	5e		 pop	 esi
  0002f	5d		 pop	 ebp
  00030	c2 10 00	 ret	 16			; 00000010H
?ElementInRegion@CFiboPenLine@@MBE_NABVCRect@@ABVCPoint@@11@Z ENDP ; CFiboPenLine::ElementInRegion
_TEXT	ENDS
; Function compile flags: /Ogtp
; File D:\git\src\IBK\IBK_DRFN\ProjSrc\SrcChartEx\ChartAddIn\ChartAnalysisToolAddIn\AnalysisTool\FiboGann.cpp
;	COMDAT ?GetTwoPointDrawer@CFiboPenLine@@MAEAAVCTwoPointDrawer@@XZ
_TEXT	SEGMENT
?GetTwoPointDrawer@CFiboPenLine@@MAEAAVCTwoPointDrawer@@XZ PROC ; CFiboPenLine::GetTwoPointDrawer, COMDAT
; _this$ = ecx

; 218  : 	return m_fiboPenLineDrawer;

  00000	8d 81 90 00 00
	00		 lea	 eax, DWORD PTR [ecx+144]

; 219  : }

  00006	c3		 ret	 0
?GetTwoPointDrawer@CFiboPenLine@@MAEAAVCTwoPointDrawer@@XZ ENDP ; CFiboPenLine::GetTwoPointDrawer
_TEXT	ENDS
; Function compile flags: /Ogtp
; File D:\git\src\IBK\IBK_DRFN\ProjSrc\SrcChartEx\ChartAddIn\ChartAnalysisToolAddIn\AnalysisTool\FiboGann.cpp
;	COMDAT ?GetElementType@CFiboPenLine@@UBE?AW4ElementType@CToolEnumData@@XZ
_TEXT	SEGMENT
?GetElementType@CFiboPenLine@@UBE?AW4ElementType@CToolEnumData@@XZ PROC ; CFiboPenLine::GetElementType, COMDAT
; _this$ = ecx

; 202  : 	return CToolEnumData::Fibo_Fan_Line;

  00000	b8 0a 00 00 00	 mov	 eax, 10			; 0000000aH

; 203  : }

  00005	c3		 ret	 0
?GetElementType@CFiboPenLine@@UBE?AW4ElementType@CToolEnumData@@XZ ENDP ; CFiboPenLine::GetElementType
_TEXT	ENDS
; Function compile flags: /Ogtp
; File D:\git\src\IBK\IBK_DRFN\ProjSrc\SrcChartEx\ChartAddIn\ChartAnalysisToolAddIn\AnalysisTool\FiboGann.cpp
;	COMDAT ??0CFiboPenLine@@QAE@ABVCTextShowPosition@@ABVCCoordinate@@1ABVCElementCommonEnvironment@@@Z
_TEXT	SEGMENT
_this$ = -16						; size = 4
__$EHRec$ = -12						; size = 12
_position$ = 8						; size = 4
_point1$ = 12						; size = 4
_point2$ = 16						; size = 4
_this$ = 20						; size = 4
_environment$ = 20					; size = 4
??0CFiboPenLine@@QAE@ABVCTextShowPosition@@ABVCCoordinate@@1ABVCElementCommonEnvironment@@@Z PROC ; CFiboPenLine::CFiboPenLine, COMDAT
; _this$ = ecx

; 197  : {

  00000	55		 push	 ebp
  00001	8b ec		 mov	 ebp, esp
  00003	6a ff		 push	 -1
  00005	68 00 00 00 00	 push	 __ehhandler$??0CFiboPenLine@@QAE@ABVCTextShowPosition@@ABVCCoordinate@@1ABVCElementCommonEnvironment@@@Z
  0000a	64 a1 00 00 00
	00		 mov	 eax, DWORD PTR fs:0
  00010	50		 push	 eax
  00011	51		 push	 ecx
  00012	56		 push	 esi
  00013	57		 push	 edi
  00014	a1 00 00 00 00	 mov	 eax, DWORD PTR ___security_cookie
  00019	33 c5		 xor	 eax, ebp
  0001b	50		 push	 eax
  0001c	8d 45 f4	 lea	 eax, DWORD PTR __$EHRec$[ebp]
  0001f	64 a3 00 00 00
	00		 mov	 DWORD PTR fs:0, eax
  00025	8b f9		 mov	 edi, ecx
  00027	89 7d f0	 mov	 DWORD PTR _this$[ebp], edi

; 195  : 	CTwoPointElement(point1, point2, environment),

  0002a	ff 75 14	 push	 DWORD PTR _environment$[ebp]
  0002d	ff 75 10	 push	 DWORD PTR _point2$[ebp]
  00030	ff 75 0c	 push	 DWORD PTR _point1$[ebp]
  00033	e8 00 00 00 00	 call	 ??0CTwoPointElement@@QAE@ABVCCoordinate@@0ABVCElementCommonEnvironment@@@Z ; CTwoPointElement::CTwoPointElement

; 197  : {

  00038	8d b7 90 00 00
	00		 lea	 esi, DWORD PTR [edi+144]
  0003e	c7 07 00 00 00
	00		 mov	 DWORD PTR [edi], OFFSET ??_7CFiboPenLine@@6B@
  00044	8d 4e 20	 lea	 ecx, DWORD PTR [esi+32]
  00047	c7 45 fc 00 00
	00 00		 mov	 DWORD PTR __$EHRec$[ebp+8], 0
  0004e	89 75 14	 mov	 DWORD PTR _this$[ebp], esi
  00051	c7 46 04 00 00
	00 00		 mov	 DWORD PTR [esi+4], OFFSET ??_8CFiboPenLineDrawer@@7B@
  00058	e8 00 00 00 00	 call	 ??0CDrawer@@QAE@XZ	; CDrawer::CDrawer
  0005d	8d 4e 08	 lea	 ecx, DWORD PTR [esi+8]
  00060	c7 06 00 00 00
	00		 mov	 DWORD PTR [esi], OFFSET ??_7CFiboDrawer@@6B@
  00066	e8 00 00 00 00	 call	 ??0CDWordArray@@QAE@XZ	; CDWordArray::CDWordArray
  0006b	8d 4e 1c	 lea	 ecx, DWORD PTR [esi+28]
  0006e	ff 15 00 00 00
	00		 call	 DWORD PTR __imp_??0?$CStringT@DV?$StrTraitMFC_DLL@DV?$ChTraitsCRT@D@ATL@@@@@ATL@@QAE@XZ
  00074	c7 06 00 00 00
	00		 mov	 DWORD PTR [esi], OFFSET ??_7CFiboPenLineDrawer@@6B@
  0007a	ff 75 08	 push	 DWORD PTR _position$[ebp]
  0007d	8d 8f c4 00 00
	00		 lea	 ecx, DWORD PTR [edi+196]
  00083	c6 45 fc 01	 mov	 BYTE PTR __$EHRec$[ebp+8], 1
  00087	e8 00 00 00 00	 call	 ??0CTextShowPosition@@QAE@ABV0@@Z ; CTextShowPosition::CTextShowPosition

; 198  : }

  0008c	8b c7		 mov	 eax, edi
  0008e	8b 4d f4	 mov	 ecx, DWORD PTR __$EHRec$[ebp]
  00091	64 89 0d 00 00
	00 00		 mov	 DWORD PTR fs:0, ecx
  00098	59		 pop	 ecx
  00099	5f		 pop	 edi
  0009a	5e		 pop	 esi
  0009b	8b e5		 mov	 esp, ebp
  0009d	5d		 pop	 ebp
  0009e	c2 10 00	 ret	 16			; 00000010H
_TEXT	ENDS
;	COMDAT text$x
text$x	SEGMENT
__unwindfunclet$??0CFiboPenLine@@QAE@ABVCTextShowPosition@@ABVCCoordinate@@1ABVCElementCommonEnvironment@@@Z$0:
  00000	8b 4d f0	 mov	 ecx, DWORD PTR _this$[ebp]
  00003	e9 00 00 00 00	 jmp	 ??1CTwoPointElement@@UAE@XZ
__unwindfunclet$??0CFiboPenLine@@QAE@ABVCTextShowPosition@@ABVCCoordinate@@1ABVCElementCommonEnvironment@@@Z$1:
  00008	8b 4d f0	 mov	 ecx, DWORD PTR _this$[ebp]
  0000b	81 c1 90 00 00
	00		 add	 ecx, 144		; 00000090H
  00011	e9 00 00 00 00	 jmp	 ??1CFiboPenLineDrawer@@QAE@XZ
  00016	cc		 int	 3
  00017	cc		 int	 3
  00018	cc		 int	 3
  00019	cc		 int	 3
  0001a	cc		 int	 3
__ehhandler$??0CFiboPenLine@@QAE@ABVCTextShowPosition@@ABVCCoordinate@@1ABVCElementCommonEnvironment@@@Z:
  0001b	90		 npad	 1
  0001c	90		 npad	 1
  0001d	8b 54 24 08	 mov	 edx, DWORD PTR [esp+8]
  00021	8d 42 0c	 lea	 eax, DWORD PTR [edx+12]
  00024	8b 4a f0	 mov	 ecx, DWORD PTR [edx-16]
  00027	33 c8		 xor	 ecx, eax
  00029	e8 00 00 00 00	 call	 @__security_check_cookie@4
  0002e	b8 00 00 00 00	 mov	 eax, OFFSET __ehfuncinfo$??0CFiboPenLine@@QAE@ABVCTextShowPosition@@ABVCCoordinate@@1ABVCElementCommonEnvironment@@@Z
  00033	e9 00 00 00 00	 jmp	 ___CxxFrameHandler3
text$x	ENDS
??0CFiboPenLine@@QAE@ABVCTextShowPosition@@ABVCCoordinate@@1ABVCElementCommonEnvironment@@@Z ENDP ; CFiboPenLine::CFiboPenLine
; Function compile flags: /Ogtp
; File D:\git\src\IBK\IBK_DRFN\ProjSrc\SrcChartEx\ChartAddIn\ChartAnalysisToolAddIn\AnalysisTool\Element.h
;	COMDAT ??_GCFiboCircle@@UAEPAXI@Z
_TEXT	SEGMENT
___flags$ = 8						; size = 4
??_GCFiboCircle@@UAEPAXI@Z PROC				; CFiboCircle::`scalar deleting destructor', COMDAT
; _this$ = ecx
  00000	55		 push	 ebp
  00001	8b ec		 mov	 ebp, esp

; 31   : 	virtual ~CElement()	{}

  00003	56		 push	 esi
  00004	8b f1		 mov	 esi, ecx
  00006	8d 8e ac 00 00
	00		 lea	 ecx, DWORD PTR [esi+172]
  0000c	ff 15 00 00 00
	00		 call	 DWORD PTR __imp_??1?$CStringT@DV?$StrTraitMFC_DLL@DV?$ChTraitsCRT@D@ATL@@@@@ATL@@QAE@XZ
  00012	8d 8e 98 00 00
	00		 lea	 ecx, DWORD PTR [esi+152]
  00018	e8 00 00 00 00	 call	 ??1CDWordArray@@UAE@XZ	; CDWordArray::~CDWordArray
  0001d	8d 8e 84 00 00
	00		 lea	 ecx, DWORD PTR [esi+132]
  00023	ff 15 00 00 00
	00		 call	 DWORD PTR __imp_??1?$CStringT@DV?$StrTraitMFC_DLL@DV?$ChTraitsCRT@D@ATL@@@@@ATL@@QAE@XZ
  00029	8d 4e 64	 lea	 ecx, DWORD PTR [esi+100]
  0002c	ff 15 00 00 00
	00		 call	 DWORD PTR __imp_??1?$CStringT@DV?$StrTraitMFC_DLL@DV?$ChTraitsCRT@D@ATL@@@@@ATL@@QAE@XZ
  00032	8d 4e 40	 lea	 ecx, DWORD PTR [esi+64]
  00035	c7 06 00 00 00
	00		 mov	 DWORD PTR [esi], OFFSET ??_7CElement@@6B@
  0003b	ff 15 00 00 00
	00		 call	 DWORD PTR __imp_??1?$CStringT@DV?$StrTraitMFC_DLL@DV?$ChTraitsCRT@D@ATL@@@@@ATL@@QAE@XZ
  00041	8d 4e 3c	 lea	 ecx, DWORD PTR [esi+60]
  00044	ff 15 00 00 00
	00		 call	 DWORD PTR __imp_??1?$CStringT@DV?$StrTraitMFC_DLL@DV?$ChTraitsCRT@D@ATL@@@@@ATL@@QAE@XZ
  0004a	8d 4e 38	 lea	 ecx, DWORD PTR [esi+56]
  0004d	ff 15 00 00 00
	00		 call	 DWORD PTR __imp_??1?$CStringT@DV?$StrTraitMFC_DLL@DV?$ChTraitsCRT@D@ATL@@@@@ATL@@QAE@XZ
  00053	f6 45 08 01	 test	 BYTE PTR ___flags$[ebp], 1
  00057	74 0e		 je	 SHORT $LN37@scalar
  00059	68 d0 00 00 00	 push	 208			; 000000d0H
  0005e	56		 push	 esi
  0005f	e8 00 00 00 00	 call	 ??3@YAXPAXI@Z		; operator delete
  00064	83 c4 08	 add	 esp, 8
$LN37@scalar:
  00067	8b c6		 mov	 eax, esi
  00069	5e		 pop	 esi
  0006a	5d		 pop	 ebp
  0006b	c2 04 00	 ret	 4
??_GCFiboCircle@@UAEPAXI@Z ENDP				; CFiboCircle::`scalar deleting destructor'
_TEXT	ENDS
; Function compile flags: /Ogtp
; File D:\git\src\IBK\IBK_DRFN\ProjSrc\SrcChartEx\ChartAddIn\ChartAnalysisToolAddIn\AnalysisTool\FiboGann.cpp
;	COMDAT ?GetTextPosition@CFiboCircle@@MAEPAVCTextPosition@@XZ
_TEXT	SEGMENT
?GetTextPosition@CFiboCircle@@MAEPAVCTextPosition@@XZ PROC ; CFiboCircle::GetTextPosition, COMDAT
; _this$ = ecx

; 164  : 	return &m_textPosition;

  00000	8d 81 c4 00 00
	00		 lea	 eax, DWORD PTR [ecx+196]

; 165  : }

  00006	c3		 ret	 0
?GetTextPosition@CFiboCircle@@MAEPAVCTextPosition@@XZ ENDP ; CFiboCircle::GetTextPosition
_TEXT	ENDS
; Function compile flags: /Ogtp
; File D:\git\src\IBK\IBK_DRFN\ProjSrc\SrcChartEx\ChartAddIn\ChartAnalysisToolAddIn\AnalysisTool\FiboGann.cpp
;	COMDAT ?GetTextPosition@CFiboCircle@@MBEPBVCTextPosition@@XZ
_TEXT	SEGMENT
?GetTextPosition@CFiboCircle@@MBEPBVCTextPosition@@XZ PROC ; CFiboCircle::GetTextPosition, COMDAT
; _this$ = ecx

; 159  : 	return &m_textPosition;

  00000	8d 81 c4 00 00
	00		 lea	 eax, DWORD PTR [ecx+196]

; 160  : }

  00006	c3		 ret	 0
?GetTextPosition@CFiboCircle@@MBEPBVCTextPosition@@XZ ENDP ; CFiboCircle::GetTextPosition
_TEXT	ENDS
; Function compile flags: /Ogtp
; File D:\git\src\IBK\IBK_DRFN\ProjSrc\SrcChartEx\ChartAddIn\ChartAnalysisToolAddIn\AnalysisTool\FiboGann.cpp
;	COMDAT ?GetDrawingRegion_EndPoint@CFiboCircle@@MBE?AVCPoint@@ABV2@0H@Z
_TEXT	SEGMENT
___$ReturnUdt$ = 8					; size = 4
_startPoint$ = 12					; size = 4
_endPoint$ = 16						; size = 4
_nRadius$ = 20						; size = 4
?GetDrawingRegion_EndPoint@CFiboCircle@@MBE?AVCPoint@@ABV2@0H@Z PROC ; CFiboCircle::GetDrawingRegion_EndPoint, COMDAT
; _this$ = ecx

; 179  : {

  00000	55		 push	 ebp
  00001	8b ec		 mov	 ebp, esp

; 61   : 	if(startPoint.x <= endPoint.x)

  00003	8b 45 0c	 mov	 eax, DWORD PTR _startPoint$[ebp]
  00006	8b 4d 08	 mov	 ecx, DWORD PTR ___$ReturnUdt$[ebp]

; 179  : {

  00009	53		 push	 ebx

; 61   : 	if(startPoint.x <= endPoint.x)

  0000a	8b 5d 10	 mov	 ebx, DWORD PTR _endPoint$[ebp]

; 179  : {

  0000d	56		 push	 esi

; 61   : 	if(startPoint.x <= endPoint.x)

  0000e	8b 30		 mov	 esi, DWORD PTR [eax]

; 179  : {

  00010	57		 push	 edi

; 61   : 	if(startPoint.x <= endPoint.x)

  00011	8b 13		 mov	 edx, DWORD PTR [ebx]
  00013	8b 43 04	 mov	 eax, DWORD PTR [ebx+4]

; 180  : 	CPoint drawingEPt = CFiboArc::GetDrawingRegion_EndPoint(startPoint, endPoint, nRadius);
; 181  : 
; 182  : 	if(startPoint.y <= endPoint.y)

  00016	8b 7d 14	 mov	 edi, DWORD PTR _nRadius$[ebp]

; 61   : 	if(startPoint.x <= endPoint.x)

  00019	89 41 04	 mov	 DWORD PTR [ecx+4], eax

; 180  : 	CPoint drawingEPt = CFiboArc::GetDrawingRegion_EndPoint(startPoint, endPoint, nRadius);
; 181  : 
; 182  : 	if(startPoint.y <= endPoint.y)

  0001c	8b ca		 mov	 ecx, edx
  0001e	2b cf		 sub	 ecx, edi
  00020	3b f2		 cmp	 esi, edx
  00022	8d 04 3a	 lea	 eax, DWORD PTR [edx+edi]
  00025	0f 4f c1	 cmovg	 eax, ecx
  00028	8b 4d 08	 mov	 ecx, DWORD PTR ___$ReturnUdt$[ebp]
  0002b	89 01		 mov	 DWORD PTR [ecx], eax
  0002d	8b c1		 mov	 eax, ecx

; 183  : 		drawingEPt.y += nRadius;
; 184  : 	else
; 185  : 		drawingEPt.y -= nRadius;
; 186  : 
; 187  : 	return drawingEPt;

  0002f	8b 53 04	 mov	 edx, DWORD PTR [ebx+4]
  00032	8b 48 04	 mov	 ecx, DWORD PTR [eax+4]
  00035	8b f1		 mov	 esi, ecx
  00037	2b f7		 sub	 esi, edi
  00039	03 cf		 add	 ecx, edi
  0003b	8b 7d 0c	 mov	 edi, DWORD PTR _startPoint$[ebp]
  0003e	39 57 04	 cmp	 DWORD PTR [edi+4], edx
  00041	5f		 pop	 edi
  00042	0f 4f ce	 cmovg	 ecx, esi
  00045	5e		 pop	 esi
  00046	89 48 04	 mov	 DWORD PTR [eax+4], ecx
  00049	5b		 pop	 ebx

; 188  : }

  0004a	5d		 pop	 ebp
  0004b	c2 10 00	 ret	 16			; 00000010H
?GetDrawingRegion_EndPoint@CFiboCircle@@MBE?AVCPoint@@ABV2@0H@Z ENDP ; CFiboCircle::GetDrawingRegion_EndPoint
_TEXT	ENDS
; Function compile flags: /Ogtp
; File D:\git\src\IBK\IBK_DRFN\ProjSrc\SrcChartEx\ChartAddIn\ChartAnalysisToolAddIn\AnalysisTool\FiboGann.cpp
;	COMDAT ?GetRadius@CFiboCircle@@MBEHABVCPoint@@0H@Z
_TEXT	SEGMENT
_pt1$ = 8						; size = 4
_pt2$ = 12						; size = 4
_nIndex$ = 16						; size = 4
?GetRadius@CFiboCircle@@MBEHABVCPoint@@0H@Z PROC	; CFiboCircle::GetRadius, COMDAT
; _this$ = ecx

; 174  : {

  00000	55		 push	 ebp
  00001	8b ec		 mov	 ebp, esp

; 175  : 	return m_fiboCircleDrawer.GetRadius(pt1, pt2, nIndex);

  00003	81 c1 90 00 00
	00		 add	 ecx, 144		; 00000090H

; 176  : }

  00009	5d		 pop	 ebp

; 175  : 	return m_fiboCircleDrawer.GetRadius(pt1, pt2, nIndex);

  0000a	e9 00 00 00 00	 jmp	 ?GetRadius@CFiboArcDrawer@@QBEHABVCPoint@@0H@Z ; CFiboArcDrawer::GetRadius
?GetRadius@CFiboCircle@@MBEHABVCPoint@@0H@Z ENDP	; CFiboCircle::GetRadius
_TEXT	ENDS
; Function compile flags: /Ogtp
; File D:\git\src\IBK\IBK_DRFN\ProjSrc\SrcChartEx\ChartAddIn\ChartAnalysisToolAddIn\AnalysisTool\FiboGann.cpp
;	COMDAT ?GetTwoPointDrawer@CFiboCircle@@MAEAAVCTwoPointDrawer@@XZ
_TEXT	SEGMENT
?GetTwoPointDrawer@CFiboCircle@@MAEAAVCTwoPointDrawer@@XZ PROC ; CFiboCircle::GetTwoPointDrawer, COMDAT
; _this$ = ecx

; 169  : 	return m_fiboCircleDrawer;

  00000	8d 81 90 00 00
	00		 lea	 eax, DWORD PTR [ecx+144]

; 170  : }

  00006	c3		 ret	 0
?GetTwoPointDrawer@CFiboCircle@@MAEAAVCTwoPointDrawer@@XZ ENDP ; CFiboCircle::GetTwoPointDrawer
_TEXT	ENDS
; Function compile flags: /Ogtp
; File D:\git\src\IBK\IBK_DRFN\ProjSrc\SrcChartEx\ChartAddIn\ChartAnalysisToolAddIn\AnalysisTool\FiboGann.cpp
;	COMDAT ?GetElementType@CFiboCircle@@UBE?AW4ElementType@CToolEnumData@@XZ
_TEXT	SEGMENT
?GetElementType@CFiboCircle@@UBE?AW4ElementType@CToolEnumData@@XZ PROC ; CFiboCircle::GetElementType, COMDAT
; _this$ = ecx

; 153  : 	return CToolEnumData::Fibo_Circle;

  00000	b8 09 00 00 00	 mov	 eax, 9

; 154  : }

  00005	c3		 ret	 0
?GetElementType@CFiboCircle@@UBE?AW4ElementType@CToolEnumData@@XZ ENDP ; CFiboCircle::GetElementType
_TEXT	ENDS
; Function compile flags: /Ogtp
; File D:\git\src\IBK\IBK_DRFN\ProjSrc\SrcChartEx\ChartAddIn\ChartAnalysisToolAddIn\AnalysisTool\FiboGann.cpp
;	COMDAT ??0CFiboCircle@@QAE@ABVCTextShowPosition@@ABVCCoordinate@@1ABVCElementCommonEnvironment@@@Z
_TEXT	SEGMENT
_this$ = -16						; size = 4
__$EHRec$ = -12						; size = 12
_position$ = 8						; size = 4
_point1$ = 12						; size = 4
_point2$ = 16						; size = 4
_this$ = 20						; size = 4
_environment$ = 20					; size = 4
??0CFiboCircle@@QAE@ABVCTextShowPosition@@ABVCCoordinate@@1ABVCElementCommonEnvironment@@@Z PROC ; CFiboCircle::CFiboCircle, COMDAT
; _this$ = ecx

; 148  : {

  00000	55		 push	 ebp
  00001	8b ec		 mov	 ebp, esp
  00003	6a ff		 push	 -1
  00005	68 00 00 00 00	 push	 __ehhandler$??0CFiboCircle@@QAE@ABVCTextShowPosition@@ABVCCoordinate@@1ABVCElementCommonEnvironment@@@Z
  0000a	64 a1 00 00 00
	00		 mov	 eax, DWORD PTR fs:0
  00010	50		 push	 eax
  00011	51		 push	 ecx
  00012	56		 push	 esi
  00013	57		 push	 edi
  00014	a1 00 00 00 00	 mov	 eax, DWORD PTR ___security_cookie
  00019	33 c5		 xor	 eax, ebp
  0001b	50		 push	 eax
  0001c	8d 45 f4	 lea	 eax, DWORD PTR __$EHRec$[ebp]
  0001f	64 a3 00 00 00
	00		 mov	 DWORD PTR fs:0, eax
  00025	8b f9		 mov	 edi, ecx
  00027	89 7d f0	 mov	 DWORD PTR _this$[ebp], edi

; 24   : 	CTwoPointElement(point1, point2, environment)

  0002a	ff 75 14	 push	 DWORD PTR _environment$[ebp]
  0002d	ff 75 10	 push	 DWORD PTR _point2$[ebp]
  00030	ff 75 0c	 push	 DWORD PTR _point1$[ebp]
  00033	e8 00 00 00 00	 call	 ??0CTwoPointElement@@QAE@ABVCCoordinate@@0ABVCElementCommonEnvironment@@@Z ; CTwoPointElement::CTwoPointElement

; 148  : {

  00038	8d b7 90 00 00
	00		 lea	 esi, DWORD PTR [edi+144]
  0003e	c7 07 00 00 00
	00		 mov	 DWORD PTR [edi], OFFSET ??_7CFiboCircle@@6B@
  00044	8d 4e 20	 lea	 ecx, DWORD PTR [esi+32]
  00047	c7 45 fc 00 00
	00 00		 mov	 DWORD PTR __$EHRec$[ebp+8], 0
  0004e	89 75 14	 mov	 DWORD PTR _this$[ebp], esi
  00051	c7 46 04 00 00
	00 00		 mov	 DWORD PTR [esi+4], OFFSET ??_8CFiboCircleDrawer@@7B@
  00058	e8 00 00 00 00	 call	 ??0CDrawer@@QAE@XZ	; CDrawer::CDrawer
  0005d	8d 4e 08	 lea	 ecx, DWORD PTR [esi+8]
  00060	c7 06 00 00 00
	00		 mov	 DWORD PTR [esi], OFFSET ??_7CFiboDrawer@@6B@
  00066	e8 00 00 00 00	 call	 ??0CDWordArray@@QAE@XZ	; CDWordArray::CDWordArray
  0006b	8d 4e 1c	 lea	 ecx, DWORD PTR [esi+28]
  0006e	ff 15 00 00 00
	00		 call	 DWORD PTR __imp_??0?$CStringT@DV?$StrTraitMFC_DLL@DV?$ChTraitsCRT@D@ATL@@@@@ATL@@QAE@XZ
  00074	c7 06 00 00 00
	00		 mov	 DWORD PTR [esi], OFFSET ??_7CFiboCircleDrawer@@6B@
  0007a	ff 75 08	 push	 DWORD PTR _position$[ebp]
  0007d	8d 8f c4 00 00
	00		 lea	 ecx, DWORD PTR [edi+196]
  00083	c6 45 fc 01	 mov	 BYTE PTR __$EHRec$[ebp+8], 1
  00087	e8 00 00 00 00	 call	 ??0CTextShowPosition@@QAE@ABV0@@Z ; CTextShowPosition::CTextShowPosition

; 149  : }

  0008c	8b c7		 mov	 eax, edi
  0008e	8b 4d f4	 mov	 ecx, DWORD PTR __$EHRec$[ebp]
  00091	64 89 0d 00 00
	00 00		 mov	 DWORD PTR fs:0, ecx
  00098	59		 pop	 ecx
  00099	5f		 pop	 edi
  0009a	5e		 pop	 esi
  0009b	8b e5		 mov	 esp, ebp
  0009d	5d		 pop	 ebp
  0009e	c2 10 00	 ret	 16			; 00000010H
_TEXT	ENDS
;	COMDAT text$x
text$x	SEGMENT
__unwindfunclet$??0CFiboCircle@@QAE@ABVCTextShowPosition@@ABVCCoordinate@@1ABVCElementCommonEnvironment@@@Z$0:
  00000	8b 4d f0	 mov	 ecx, DWORD PTR _this$[ebp]
  00003	e9 00 00 00 00	 jmp	 ??1CFiboArc@@UAE@XZ
__unwindfunclet$??0CFiboCircle@@QAE@ABVCTextShowPosition@@ABVCCoordinate@@1ABVCElementCommonEnvironment@@@Z$1:
  00008	8b 4d f0	 mov	 ecx, DWORD PTR _this$[ebp]
  0000b	81 c1 90 00 00
	00		 add	 ecx, 144		; 00000090H
  00011	e9 00 00 00 00	 jmp	 ??1CFiboCircleDrawer@@QAE@XZ
  00016	cc		 int	 3
  00017	cc		 int	 3
  00018	cc		 int	 3
  00019	cc		 int	 3
  0001a	cc		 int	 3
__ehhandler$??0CFiboCircle@@QAE@ABVCTextShowPosition@@ABVCCoordinate@@1ABVCElementCommonEnvironment@@@Z:
  0001b	90		 npad	 1
  0001c	90		 npad	 1
  0001d	8b 54 24 08	 mov	 edx, DWORD PTR [esp+8]
  00021	8d 42 0c	 lea	 eax, DWORD PTR [edx+12]
  00024	8b 4a f0	 mov	 ecx, DWORD PTR [edx-16]
  00027	33 c8		 xor	 ecx, eax
  00029	e8 00 00 00 00	 call	 @__security_check_cookie@4
  0002e	b8 00 00 00 00	 mov	 eax, OFFSET __ehfuncinfo$??0CFiboCircle@@QAE@ABVCTextShowPosition@@ABVCCoordinate@@1ABVCElementCommonEnvironment@@@Z
  00033	e9 00 00 00 00	 jmp	 ___CxxFrameHandler3
text$x	ENDS
??0CFiboCircle@@QAE@ABVCTextShowPosition@@ABVCCoordinate@@1ABVCElementCommonEnvironment@@@Z ENDP ; CFiboCircle::CFiboCircle
; Function compile flags: /Ogtp
; File D:\git\src\IBK\IBK_DRFN\ProjSrc\SrcChartEx\ChartAddIn\ChartAnalysisToolAddIn\AnalysisTool\Element.h
;	COMDAT ??_GCFiboSemicircle@@UAEPAXI@Z
_TEXT	SEGMENT
___flags$ = 8						; size = 4
??_GCFiboSemicircle@@UAEPAXI@Z PROC			; CFiboSemicircle::`scalar deleting destructor', COMDAT
; _this$ = ecx
  00000	55		 push	 ebp
  00001	8b ec		 mov	 ebp, esp

; 31   : 	virtual ~CElement()	{}

  00003	56		 push	 esi
  00004	8b f1		 mov	 esi, ecx
  00006	8d 8e ac 00 00
	00		 lea	 ecx, DWORD PTR [esi+172]
  0000c	ff 15 00 00 00
	00		 call	 DWORD PTR __imp_??1?$CStringT@DV?$StrTraitMFC_DLL@DV?$ChTraitsCRT@D@ATL@@@@@ATL@@QAE@XZ
  00012	8d 8e 98 00 00
	00		 lea	 ecx, DWORD PTR [esi+152]
  00018	e8 00 00 00 00	 call	 ??1CDWordArray@@UAE@XZ	; CDWordArray::~CDWordArray
  0001d	8d 8e 84 00 00
	00		 lea	 ecx, DWORD PTR [esi+132]
  00023	ff 15 00 00 00
	00		 call	 DWORD PTR __imp_??1?$CStringT@DV?$StrTraitMFC_DLL@DV?$ChTraitsCRT@D@ATL@@@@@ATL@@QAE@XZ
  00029	8d 4e 64	 lea	 ecx, DWORD PTR [esi+100]
  0002c	ff 15 00 00 00
	00		 call	 DWORD PTR __imp_??1?$CStringT@DV?$StrTraitMFC_DLL@DV?$ChTraitsCRT@D@ATL@@@@@ATL@@QAE@XZ
  00032	8d 4e 40	 lea	 ecx, DWORD PTR [esi+64]
  00035	c7 06 00 00 00
	00		 mov	 DWORD PTR [esi], OFFSET ??_7CElement@@6B@
  0003b	ff 15 00 00 00
	00		 call	 DWORD PTR __imp_??1?$CStringT@DV?$StrTraitMFC_DLL@DV?$ChTraitsCRT@D@ATL@@@@@ATL@@QAE@XZ
  00041	8d 4e 3c	 lea	 ecx, DWORD PTR [esi+60]
  00044	ff 15 00 00 00
	00		 call	 DWORD PTR __imp_??1?$CStringT@DV?$StrTraitMFC_DLL@DV?$ChTraitsCRT@D@ATL@@@@@ATL@@QAE@XZ
  0004a	8d 4e 38	 lea	 ecx, DWORD PTR [esi+56]
  0004d	ff 15 00 00 00
	00		 call	 DWORD PTR __imp_??1?$CStringT@DV?$StrTraitMFC_DLL@DV?$ChTraitsCRT@D@ATL@@@@@ATL@@QAE@XZ
  00053	f6 45 08 01	 test	 BYTE PTR ___flags$[ebp], 1
  00057	74 0e		 je	 SHORT $LN37@scalar
  00059	68 d0 00 00 00	 push	 208			; 000000d0H
  0005e	56		 push	 esi
  0005f	e8 00 00 00 00	 call	 ??3@YAXPAXI@Z		; operator delete
  00064	83 c4 08	 add	 esp, 8
$LN37@scalar:
  00067	8b c6		 mov	 eax, esi
  00069	5e		 pop	 esi
  0006a	5d		 pop	 ebp
  0006b	c2 04 00	 ret	 4
??_GCFiboSemicircle@@UAEPAXI@Z ENDP			; CFiboSemicircle::`scalar deleting destructor'
_TEXT	ENDS
; Function compile flags: /Ogtp
; File D:\git\src\IBK\IBK_DRFN\ProjSrc\SrcChartEx\ChartAddIn\ChartAnalysisToolAddIn\AnalysisTool\FiboGann.cpp
;	COMDAT ?GetTextPosition@CFiboSemicircle@@MAEPAVCTextPosition@@XZ
_TEXT	SEGMENT
?GetTextPosition@CFiboSemicircle@@MAEPAVCTextPosition@@XZ PROC ; CFiboSemicircle::GetTextPosition, COMDAT
; _this$ = ecx

; 127  : 	return &m_textPosition;

  00000	8d 81 c4 00 00
	00		 lea	 eax, DWORD PTR [ecx+196]

; 128  : }

  00006	c3		 ret	 0
?GetTextPosition@CFiboSemicircle@@MAEPAVCTextPosition@@XZ ENDP ; CFiboSemicircle::GetTextPosition
_TEXT	ENDS
; Function compile flags: /Ogtp
; File D:\git\src\IBK\IBK_DRFN\ProjSrc\SrcChartEx\ChartAddIn\ChartAnalysisToolAddIn\AnalysisTool\FiboGann.cpp
;	COMDAT ?GetTextPosition@CFiboSemicircle@@MBEPBVCTextPosition@@XZ
_TEXT	SEGMENT
?GetTextPosition@CFiboSemicircle@@MBEPBVCTextPosition@@XZ PROC ; CFiboSemicircle::GetTextPosition, COMDAT
; _this$ = ecx

; 122  : 	return &m_textPosition;

  00000	8d 81 c4 00 00
	00		 lea	 eax, DWORD PTR [ecx+196]

; 123  : }

  00006	c3		 ret	 0
?GetTextPosition@CFiboSemicircle@@MBEPBVCTextPosition@@XZ ENDP ; CFiboSemicircle::GetTextPosition
_TEXT	ENDS
; Function compile flags: /Ogtp
; File D:\git\src\IBK\IBK_DRFN\ProjSrc\SrcChartEx\ChartAddIn\ChartAnalysisToolAddIn\AnalysisTool\FiboGann.cpp
;	COMDAT ?GetRadius@CFiboSemicircle@@MBEHABVCPoint@@0H@Z
_TEXT	SEGMENT
_pt1$ = 8						; size = 4
_pt2$ = 12						; size = 4
_nIndex$ = 16						; size = 4
?GetRadius@CFiboSemicircle@@MBEHABVCPoint@@0H@Z PROC	; CFiboSemicircle::GetRadius, COMDAT
; _this$ = ecx

; 137  : {

  00000	55		 push	 ebp
  00001	8b ec		 mov	 ebp, esp

; 138  : 	return m_fiboSemicircleDrawer.GetRadius(pt1, pt2, nIndex);

  00003	81 c1 90 00 00
	00		 add	 ecx, 144		; 00000090H

; 139  : }

  00009	5d		 pop	 ebp

; 138  : 	return m_fiboSemicircleDrawer.GetRadius(pt1, pt2, nIndex);

  0000a	e9 00 00 00 00	 jmp	 ?GetRadius@CFiboArcDrawer@@QBEHABVCPoint@@0H@Z ; CFiboArcDrawer::GetRadius
?GetRadius@CFiboSemicircle@@MBEHABVCPoint@@0H@Z ENDP	; CFiboSemicircle::GetRadius
_TEXT	ENDS
; Function compile flags: /Ogtp
; File D:\git\src\IBK\IBK_DRFN\ProjSrc\SrcChartEx\ChartAddIn\ChartAnalysisToolAddIn\AnalysisTool\FiboGann.cpp
;	COMDAT ?GetTwoPointDrawer@CFiboSemicircle@@MAEAAVCTwoPointDrawer@@XZ
_TEXT	SEGMENT
?GetTwoPointDrawer@CFiboSemicircle@@MAEAAVCTwoPointDrawer@@XZ PROC ; CFiboSemicircle::GetTwoPointDrawer, COMDAT
; _this$ = ecx

; 132  : 	return m_fiboSemicircleDrawer;

  00000	8d 81 90 00 00
	00		 lea	 eax, DWORD PTR [ecx+144]

; 133  : }

  00006	c3		 ret	 0
?GetTwoPointDrawer@CFiboSemicircle@@MAEAAVCTwoPointDrawer@@XZ ENDP ; CFiboSemicircle::GetTwoPointDrawer
_TEXT	ENDS
; Function compile flags: /Ogtp
; File D:\git\src\IBK\IBK_DRFN\ProjSrc\SrcChartEx\ChartAddIn\ChartAnalysisToolAddIn\AnalysisTool\FiboGann.cpp
;	COMDAT ?GetElementType@CFiboSemicircle@@UBE?AW4ElementType@CToolEnumData@@XZ
_TEXT	SEGMENT
?GetElementType@CFiboSemicircle@@UBE?AW4ElementType@CToolEnumData@@XZ PROC ; CFiboSemicircle::GetElementType, COMDAT
; _this$ = ecx

; 116  : 	return CToolEnumData::Fibo_Semicircle;

  00000	b8 08 00 00 00	 mov	 eax, 8

; 117  : }

  00005	c3		 ret	 0
?GetElementType@CFiboSemicircle@@UBE?AW4ElementType@CToolEnumData@@XZ ENDP ; CFiboSemicircle::GetElementType
_TEXT	ENDS
; Function compile flags: /Ogtp
; File D:\git\src\IBK\IBK_DRFN\ProjSrc\SrcChartEx\ChartAddIn\ChartAnalysisToolAddIn\AnalysisTool\FiboGann.cpp
;	COMDAT ??0CFiboSemicircle@@QAE@ABVCTextShowPosition@@ABVCCoordinate@@1ABVCElementCommonEnvironment@@@Z
_TEXT	SEGMENT
_this$ = -16						; size = 4
__$EHRec$ = -12						; size = 12
_position$ = 8						; size = 4
_point1$ = 12						; size = 4
_point2$ = 16						; size = 4
_this$ = 20						; size = 4
_environment$ = 20					; size = 4
??0CFiboSemicircle@@QAE@ABVCTextShowPosition@@ABVCCoordinate@@1ABVCElementCommonEnvironment@@@Z PROC ; CFiboSemicircle::CFiboSemicircle, COMDAT
; _this$ = ecx

; 111  : {

  00000	55		 push	 ebp
  00001	8b ec		 mov	 ebp, esp
  00003	6a ff		 push	 -1
  00005	68 00 00 00 00	 push	 __ehhandler$??0CFiboSemicircle@@QAE@ABVCTextShowPosition@@ABVCCoordinate@@1ABVCElementCommonEnvironment@@@Z
  0000a	64 a1 00 00 00
	00		 mov	 eax, DWORD PTR fs:0
  00010	50		 push	 eax
  00011	51		 push	 ecx
  00012	56		 push	 esi
  00013	57		 push	 edi
  00014	a1 00 00 00 00	 mov	 eax, DWORD PTR ___security_cookie
  00019	33 c5		 xor	 eax, ebp
  0001b	50		 push	 eax
  0001c	8d 45 f4	 lea	 eax, DWORD PTR __$EHRec$[ebp]
  0001f	64 a3 00 00 00
	00		 mov	 DWORD PTR fs:0, eax
  00025	8b f9		 mov	 edi, ecx
  00027	89 7d f0	 mov	 DWORD PTR _this$[ebp], edi

; 24   : 	CTwoPointElement(point1, point2, environment)

  0002a	ff 75 14	 push	 DWORD PTR _environment$[ebp]
  0002d	ff 75 10	 push	 DWORD PTR _point2$[ebp]
  00030	ff 75 0c	 push	 DWORD PTR _point1$[ebp]
  00033	e8 00 00 00 00	 call	 ??0CTwoPointElement@@QAE@ABVCCoordinate@@0ABVCElementCommonEnvironment@@@Z ; CTwoPointElement::CTwoPointElement

; 111  : {

  00038	8d b7 90 00 00
	00		 lea	 esi, DWORD PTR [edi+144]
  0003e	c7 07 00 00 00
	00		 mov	 DWORD PTR [edi], OFFSET ??_7CFiboSemicircle@@6B@
  00044	8d 4e 20	 lea	 ecx, DWORD PTR [esi+32]
  00047	c7 45 fc 00 00
	00 00		 mov	 DWORD PTR __$EHRec$[ebp+8], 0
  0004e	89 75 14	 mov	 DWORD PTR _this$[ebp], esi
  00051	c7 46 04 00 00
	00 00		 mov	 DWORD PTR [esi+4], OFFSET ??_8CFiboSemicircleDrawer@@7B@
  00058	e8 00 00 00 00	 call	 ??0CDrawer@@QAE@XZ	; CDrawer::CDrawer
  0005d	8d 4e 08	 lea	 ecx, DWORD PTR [esi+8]
  00060	c7 06 00 00 00
	00		 mov	 DWORD PTR [esi], OFFSET ??_7CFiboDrawer@@6B@
  00066	e8 00 00 00 00	 call	 ??0CDWordArray@@QAE@XZ	; CDWordArray::CDWordArray
  0006b	8d 4e 1c	 lea	 ecx, DWORD PTR [esi+28]
  0006e	ff 15 00 00 00
	00		 call	 DWORD PTR __imp_??0?$CStringT@DV?$StrTraitMFC_DLL@DV?$ChTraitsCRT@D@ATL@@@@@ATL@@QAE@XZ
  00074	c7 06 00 00 00
	00		 mov	 DWORD PTR [esi], OFFSET ??_7CFiboSemicircleDrawer@@6B@
  0007a	ff 75 08	 push	 DWORD PTR _position$[ebp]
  0007d	8d 8f c4 00 00
	00		 lea	 ecx, DWORD PTR [edi+196]
  00083	c6 45 fc 01	 mov	 BYTE PTR __$EHRec$[ebp+8], 1
  00087	e8 00 00 00 00	 call	 ??0CTextShowPosition@@QAE@ABV0@@Z ; CTextShowPosition::CTextShowPosition

; 112  : }

  0008c	8b c7		 mov	 eax, edi
  0008e	8b 4d f4	 mov	 ecx, DWORD PTR __$EHRec$[ebp]
  00091	64 89 0d 00 00
	00 00		 mov	 DWORD PTR fs:0, ecx
  00098	59		 pop	 ecx
  00099	5f		 pop	 edi
  0009a	5e		 pop	 esi
  0009b	8b e5		 mov	 esp, ebp
  0009d	5d		 pop	 ebp
  0009e	c2 10 00	 ret	 16			; 00000010H
_TEXT	ENDS
;	COMDAT text$x
text$x	SEGMENT
__unwindfunclet$??0CFiboSemicircle@@QAE@ABVCTextShowPosition@@ABVCCoordinate@@1ABVCElementCommonEnvironment@@@Z$0:
  00000	8b 4d f0	 mov	 ecx, DWORD PTR _this$[ebp]
  00003	e9 00 00 00 00	 jmp	 ??1CFiboArc@@UAE@XZ
__unwindfunclet$??0CFiboSemicircle@@QAE@ABVCTextShowPosition@@ABVCCoordinate@@1ABVCElementCommonEnvironment@@@Z$1:
  00008	8b 4d f0	 mov	 ecx, DWORD PTR _this$[ebp]
  0000b	81 c1 90 00 00
	00		 add	 ecx, 144		; 00000090H
  00011	e9 00 00 00 00	 jmp	 ??1CFiboSemicircleDrawer@@QAE@XZ
  00016	cc		 int	 3
  00017	cc		 int	 3
  00018	cc		 int	 3
  00019	cc		 int	 3
  0001a	cc		 int	 3
__ehhandler$??0CFiboSemicircle@@QAE@ABVCTextShowPosition@@ABVCCoordinate@@1ABVCElementCommonEnvironment@@@Z:
  0001b	90		 npad	 1
  0001c	90		 npad	 1
  0001d	8b 54 24 08	 mov	 edx, DWORD PTR [esp+8]
  00021	8d 42 0c	 lea	 eax, DWORD PTR [edx+12]
  00024	8b 4a f0	 mov	 ecx, DWORD PTR [edx-16]
  00027	33 c8		 xor	 ecx, eax
  00029	e8 00 00 00 00	 call	 @__security_check_cookie@4
  0002e	b8 00 00 00 00	 mov	 eax, OFFSET __ehfuncinfo$??0CFiboSemicircle@@QAE@ABVCTextShowPosition@@ABVCCoordinate@@1ABVCElementCommonEnvironment@@@Z
  00033	e9 00 00 00 00	 jmp	 ___CxxFrameHandler3
text$x	ENDS
??0CFiboSemicircle@@QAE@ABVCTextShowPosition@@ABVCCoordinate@@1ABVCElementCommonEnvironment@@@Z ENDP ; CFiboSemicircle::CFiboSemicircle
; Function compile flags: /Ogtp
; File D:\git\src\IBK\IBK_DRFN\ProjSrc\SrcChartEx\ChartAddIn\ChartAnalysisToolAddIn\AnalysisTool\Element.h
;	COMDAT ??_GCFiboArc@@UAEPAXI@Z
_TEXT	SEGMENT
___flags$ = 8						; size = 4
??_GCFiboArc@@UAEPAXI@Z PROC				; CFiboArc::`scalar deleting destructor', COMDAT
; _this$ = ecx
  00000	55		 push	 ebp
  00001	8b ec		 mov	 ebp, esp

; 31   : 	virtual ~CElement()	{}

  00003	56		 push	 esi
  00004	8b f1		 mov	 esi, ecx
  00006	8d 8e 84 00 00
	00		 lea	 ecx, DWORD PTR [esi+132]
  0000c	ff 15 00 00 00
	00		 call	 DWORD PTR __imp_??1?$CStringT@DV?$StrTraitMFC_DLL@DV?$ChTraitsCRT@D@ATL@@@@@ATL@@QAE@XZ
  00012	8d 4e 64	 lea	 ecx, DWORD PTR [esi+100]
  00015	ff 15 00 00 00
	00		 call	 DWORD PTR __imp_??1?$CStringT@DV?$StrTraitMFC_DLL@DV?$ChTraitsCRT@D@ATL@@@@@ATL@@QAE@XZ
  0001b	8d 4e 40	 lea	 ecx, DWORD PTR [esi+64]
  0001e	c7 06 00 00 00
	00		 mov	 DWORD PTR [esi], OFFSET ??_7CElement@@6B@
  00024	ff 15 00 00 00
	00		 call	 DWORD PTR __imp_??1?$CStringT@DV?$StrTraitMFC_DLL@DV?$ChTraitsCRT@D@ATL@@@@@ATL@@QAE@XZ
  0002a	8d 4e 3c	 lea	 ecx, DWORD PTR [esi+60]
  0002d	ff 15 00 00 00
	00		 call	 DWORD PTR __imp_??1?$CStringT@DV?$StrTraitMFC_DLL@DV?$ChTraitsCRT@D@ATL@@@@@ATL@@QAE@XZ
  00033	8d 4e 38	 lea	 ecx, DWORD PTR [esi+56]
  00036	ff 15 00 00 00
	00		 call	 DWORD PTR __imp_??1?$CStringT@DV?$StrTraitMFC_DLL@DV?$ChTraitsCRT@D@ATL@@@@@ATL@@QAE@XZ
  0003c	f6 45 08 01	 test	 BYTE PTR ___flags$[ebp], 1
  00040	74 0e		 je	 SHORT $LN25@scalar
  00042	68 90 00 00 00	 push	 144			; 00000090H
  00047	56		 push	 esi
  00048	e8 00 00 00 00	 call	 ??3@YAXPAXI@Z		; operator delete
  0004d	83 c4 08	 add	 esp, 8
$LN25@scalar:
  00050	8b c6		 mov	 eax, esi
  00052	5e		 pop	 esi
  00053	5d		 pop	 ebp
  00054	c2 04 00	 ret	 4
??_GCFiboArc@@UAEPAXI@Z ENDP				; CFiboArc::`scalar deleting destructor'
_TEXT	ENDS
; Function compile flags: /Ogtp
; File D:\git\src\IBK\IBK_DRFN\ProjSrc\SrcChartEx\ChartAddIn\ChartAnalysisToolAddIn\AnalysisTool\Element.h
;	COMDAT ??1CFiboArc@@UAE@XZ
_TEXT	SEGMENT
??1CFiboArc@@UAE@XZ PROC				; CFiboArc::~CFiboArc, COMDAT
; _this$ = ecx

; 31   : 	virtual ~CElement()	{}

  00000	56		 push	 esi
  00001	8b f1		 mov	 esi, ecx
  00003	8d 8e 84 00 00
	00		 lea	 ecx, DWORD PTR [esi+132]
  00009	ff 15 00 00 00
	00		 call	 DWORD PTR __imp_??1?$CStringT@DV?$StrTraitMFC_DLL@DV?$ChTraitsCRT@D@ATL@@@@@ATL@@QAE@XZ
  0000f	8d 4e 64	 lea	 ecx, DWORD PTR [esi+100]
  00012	ff 15 00 00 00
	00		 call	 DWORD PTR __imp_??1?$CStringT@DV?$StrTraitMFC_DLL@DV?$ChTraitsCRT@D@ATL@@@@@ATL@@QAE@XZ
  00018	8d 4e 40	 lea	 ecx, DWORD PTR [esi+64]
  0001b	c7 06 00 00 00
	00		 mov	 DWORD PTR [esi], OFFSET ??_7CElement@@6B@
  00021	ff 15 00 00 00
	00		 call	 DWORD PTR __imp_??1?$CStringT@DV?$StrTraitMFC_DLL@DV?$ChTraitsCRT@D@ATL@@@@@ATL@@QAE@XZ
  00027	8d 4e 3c	 lea	 ecx, DWORD PTR [esi+60]
  0002a	ff 15 00 00 00
	00		 call	 DWORD PTR __imp_??1?$CStringT@DV?$StrTraitMFC_DLL@DV?$ChTraitsCRT@D@ATL@@@@@ATL@@QAE@XZ
  00030	8d 4e 38	 lea	 ecx, DWORD PTR [esi+56]
  00033	5e		 pop	 esi
  00034	ff 25 00 00 00
	00		 jmp	 DWORD PTR __imp_??1?$CStringT@DV?$StrTraitMFC_DLL@DV?$ChTraitsCRT@D@ATL@@@@@ATL@@QAE@XZ
??1CFiboArc@@UAE@XZ ENDP				; CFiboArc::~CFiboArc
_TEXT	ENDS
; Function compile flags: /Ogtp
; File D:\git\src\IBK\IBK_DRFN\ProjSrc\SrcChartEx\ChartAddIn\ChartAnalysisToolAddIn\AnalysisTool\FiboGann.cpp
;	COMDAT ?GetDrawingRegion_StartPoint@CFiboArc@@ABEHHHH@Z
_TEXT	SEGMENT
_nStartPoint$ = 8					; size = 4
_nEndPoint$ = 12					; size = 4
_nRadius$ = 16						; size = 4
?GetDrawingRegion_StartPoint@CFiboArc@@ABEHHHH@Z PROC	; CFiboArc::GetDrawingRegion_StartPoint, COMDAT
; _this$ = ecx

; 93   : {

  00000	55		 push	 ebp
  00001	8b ec		 mov	 ebp, esp

; 94   : 	int nDistanceOfTwoPoints = nEndPoint - nStartPoint;

  00003	8b 4d 0c	 mov	 ecx, DWORD PTR _nEndPoint$[ebp]
  00006	56		 push	 esi
  00007	8b f1		 mov	 esi, ecx
  00009	2b 75 08	 sub	 esi, DWORD PTR _nStartPoint$[ebp]

; 95   : 	if(abs(nDistanceOfTwoPoints) >= nRadius)

  0000c	8b c6		 mov	 eax, esi
  0000e	99		 cdq
  0000f	33 c2		 xor	 eax, edx
  00011	2b c2		 sub	 eax, edx
  00013	8b 55 10	 mov	 edx, DWORD PTR _nRadius$[ebp]
  00016	3b c2		 cmp	 eax, edx
  00018	7c 08		 jl	 SHORT $LN2@GetDrawing

; 96   : 		return nStartPoint;

  0001a	8b 45 08	 mov	 eax, DWORD PTR _nStartPoint$[ebp]
  0001d	5e		 pop	 esi

; 102  : }

  0001e	5d		 pop	 ebp
  0001f	c2 0c 00	 ret	 12			; 0000000cH
$LN2@GetDrawing:

; 97   : 
; 98   : 	if(nDistanceOfTwoPoints >= 0) // startPoint <= endPoint

  00022	85 f6		 test	 esi, esi
  00024	78 09		 js	 SHORT $LN3@GetDrawing

; 99   : 		return (nEndPoint - nRadius);

  00026	2b ca		 sub	 ecx, edx
  00028	8b c1		 mov	 eax, ecx
  0002a	5e		 pop	 esi

; 102  : }

  0002b	5d		 pop	 ebp
  0002c	c2 0c 00	 ret	 12			; 0000000cH
$LN3@GetDrawing:

; 100  : 
; 101  : 	return (nEndPoint + nRadius);

  0002f	8d 04 11	 lea	 eax, DWORD PTR [ecx+edx]
  00032	5e		 pop	 esi

; 102  : }

  00033	5d		 pop	 ebp
  00034	c2 0c 00	 ret	 12			; 0000000cH
?GetDrawingRegion_StartPoint@CFiboArc@@ABEHHHH@Z ENDP	; CFiboArc::GetDrawingRegion_StartPoint
_TEXT	ENDS
; Function compile flags: /Ogtp
; File D:\git\src\IBK\IBK_DRFN\ProjSrc\SrcChartEx\ChartAddIn\ChartAnalysisToolAddIn\AnalysisTool\FiboGann.cpp
; File C:\Program Files (x86)\Microsoft Visual Studio\2019\Community\VC\Tools\MSVC\14.29.30133\atlmfc\include\atltypes.h
; File D:\git\src\IBK\IBK_DRFN\ProjSrc\SrcChartEx\ChartAddIn\ChartAnalysisToolAddIn\AnalysisTool\FiboGann.cpp
; File C:\Program Files (x86)\Microsoft Visual Studio\2019\Community\VC\Tools\MSVC\14.29.30133\atlmfc\include\atltypes.h
; File D:\git\src\IBK\IBK_DRFN\ProjSrc\SrcChartEx\ChartAddIn\ChartAnalysisToolAddIn\AnalysisTool\FiboGann.cpp
; File C:\Program Files (x86)\Microsoft Visual Studio\2019\Community\VC\Tools\MSVC\14.29.30133\atlmfc\include\atltypes.h
; File D:\git\src\IBK\IBK_DRFN\ProjSrc\SrcChartEx\ChartAddIn\ChartAnalysisToolAddIn\AnalysisTool\FiboGann.cpp
; File C:\Program Files (x86)\Microsoft Visual Studio\2019\Community\VC\Tools\MSVC\14.29.30133\atlmfc\include\atltypes.h
; File D:\git\src\IBK\IBK_DRFN\ProjSrc\SrcChartEx\ChartAddIn\ChartAnalysisToolAddIn\AnalysisTool\FiboGann.cpp
; File C:\Program Files (x86)\Microsoft Visual Studio\2019\Community\VC\Tools\MSVC\14.29.30133\atlmfc\include\atltypes.h
; File D:\git\src\IBK\IBK_DRFN\ProjSrc\SrcChartEx\ChartAddIn\ChartAnalysisToolAddIn\AnalysisTool\FiboGann.cpp
; File C:\Program Files (x86)\Microsoft Visual Studio\2019\Community\VC\Tools\MSVC\14.29.30133\atlmfc\include\atltypes.h
; File D:\git\src\IBK\IBK_DRFN\ProjSrc\SrcChartEx\ChartAddIn\ChartAnalysisToolAddIn\AnalysisTool\FiboGann.cpp
;	COMDAT ?GetDrawingRegion_StartPoint@CFiboArc@@ABE?AVCPoint@@ABV2@0H@Z
_TEXT	SEGMENT
___$ReturnUdt$ = 8					; size = 4
_startPoint$ = 12					; size = 4
_nDistanceOfTwoPoints$1$ = 16				; size = 4
_endPoint$ = 16						; size = 4
_nRadius$ = 20						; size = 4
?GetDrawingRegion_StartPoint@CFiboArc@@ABE?AVCPoint@@ABV2@0H@Z PROC ; CFiboArc::GetDrawingRegion_StartPoint, COMDAT
; _this$ = ecx

; 86   : {

  00000	55		 push	 ebp
  00001	8b ec		 mov	 ebp, esp
  00003	53		 push	 ebx

; 87   : 	int nX = GetDrawingRegion_StartPoint(startPoint.x, endPoint.x, nRadius);

  00004	8b 5d 10	 mov	 ebx, DWORD PTR _endPoint$[ebp]
  00007	56		 push	 esi
  00008	8b 75 0c	 mov	 esi, DWORD PTR _startPoint$[ebp]
  0000b	57		 push	 edi
  0000c	8b 1b		 mov	 ebx, DWORD PTR [ebx]

; 94   : 	int nDistanceOfTwoPoints = nEndPoint - nStartPoint;

  0000e	8b cb		 mov	 ecx, ebx

; 95   : 	if(abs(nDistanceOfTwoPoints) >= nRadius)

  00010	8b 7d 14	 mov	 edi, DWORD PTR _nRadius$[ebp]

; 87   : 	int nX = GetDrawingRegion_StartPoint(startPoint.x, endPoint.x, nRadius);

  00013	8b 36		 mov	 esi, DWORD PTR [esi]

; 94   : 	int nDistanceOfTwoPoints = nEndPoint - nStartPoint;

  00015	2b ce		 sub	 ecx, esi

; 95   : 	if(abs(nDistanceOfTwoPoints) >= nRadius)

  00017	8b c1		 mov	 eax, ecx
  00019	99		 cdq
  0001a	33 c2		 xor	 eax, edx
  0001c	2b c2		 sub	 eax, edx
  0001e	3b c7		 cmp	 eax, edi
  00020	7d 0d		 jge	 SHORT $LN3@GetDrawing

; 96   : 		return nStartPoint;
; 97   : 
; 98   : 	if(nDistanceOfTwoPoints >= 0) // startPoint <= endPoint

  00022	85 c9		 test	 ecx, ecx
  00024	78 06		 js	 SHORT $LN5@GetDrawing

; 99   : 		return (nEndPoint - nRadius);

  00026	8b f3		 mov	 esi, ebx
  00028	2b f7		 sub	 esi, edi
  0002a	eb 03		 jmp	 SHORT $LN3@GetDrawing
$LN5@GetDrawing:

; 100  : 
; 101  : 	return (nEndPoint + nRadius);

  0002c	8d 34 3b	 lea	 esi, DWORD PTR [ebx+edi]
$LN3@GetDrawing:

; 88   : 	int nY = GetDrawingRegion_StartPoint(startPoint.y, endPoint.y, nRadius);

  0002f	8b 45 10	 mov	 eax, DWORD PTR _endPoint$[ebp]
  00032	8b 58 04	 mov	 ebx, DWORD PTR [eax+4]
  00035	8b 45 0c	 mov	 eax, DWORD PTR _startPoint$[ebp]
  00038	8b 48 04	 mov	 ecx, DWORD PTR [eax+4]

; 94   : 	int nDistanceOfTwoPoints = nEndPoint - nStartPoint;

  0003b	8b c3		 mov	 eax, ebx
  0003d	2b c1		 sub	 eax, ecx
  0003f	89 45 10	 mov	 DWORD PTR _nDistanceOfTwoPoints$1$[ebp], eax

; 95   : 	if(abs(nDistanceOfTwoPoints) >= nRadius)

  00042	99		 cdq
  00043	33 c2		 xor	 eax, edx
  00045	2b c2		 sub	 eax, edx
  00047	3b c7		 cmp	 eax, edi
  00049	7d 1c		 jge	 SHORT $LN7@GetDrawing

; 96   : 		return nStartPoint;
; 97   : 
; 98   : 	if(nDistanceOfTwoPoints >= 0) // startPoint <= endPoint

  0004b	83 7d 10 00	 cmp	 DWORD PTR _nDistanceOfTwoPoints$1$[ebp], 0
  0004f	7c 13		 jl	 SHORT $LN9@GetDrawing
; File C:\Program Files (x86)\Microsoft Visual Studio\2019\Community\VC\Tools\MSVC\14.29.30133\atlmfc\include\atltypes.h

; 408  : 	x = initX;

  00051	8b 45 08	 mov	 eax, DWORD PTR ___$ReturnUdt$[ebp]
; File D:\git\src\IBK\IBK_DRFN\ProjSrc\SrcChartEx\ChartAddIn\ChartAnalysisToolAddIn\AnalysisTool\FiboGann.cpp

; 99   : 		return (nEndPoint - nRadius);

  00054	8b cb		 mov	 ecx, ebx
  00056	2b cf		 sub	 ecx, edi

; 89   : 	return CPoint(nX, nY);

  00058	5f		 pop	 edi
; File C:\Program Files (x86)\Microsoft Visual Studio\2019\Community\VC\Tools\MSVC\14.29.30133\atlmfc\include\atltypes.h

; 408  : 	x = initX;

  00059	89 30		 mov	 DWORD PTR [eax], esi
; File D:\git\src\IBK\IBK_DRFN\ProjSrc\SrcChartEx\ChartAddIn\ChartAnalysisToolAddIn\AnalysisTool\FiboGann.cpp

; 89   : 	return CPoint(nX, nY);

  0005b	5e		 pop	 esi
; File C:\Program Files (x86)\Microsoft Visual Studio\2019\Community\VC\Tools\MSVC\14.29.30133\atlmfc\include\atltypes.h

; 409  : 	y = initY;

  0005c	89 48 04	 mov	 DWORD PTR [eax+4], ecx
; File D:\git\src\IBK\IBK_DRFN\ProjSrc\SrcChartEx\ChartAddIn\ChartAnalysisToolAddIn\AnalysisTool\FiboGann.cpp

; 89   : 	return CPoint(nX, nY);

  0005f	5b		 pop	 ebx

; 90   : }

  00060	5d		 pop	 ebp
  00061	c2 10 00	 ret	 16			; 00000010H
$LN9@GetDrawing:

; 101  : 	return (nEndPoint + nRadius);

  00064	8d 0c 3b	 lea	 ecx, DWORD PTR [ebx+edi]
$LN7@GetDrawing:
; File C:\Program Files (x86)\Microsoft Visual Studio\2019\Community\VC\Tools\MSVC\14.29.30133\atlmfc\include\atltypes.h

; 408  : 	x = initX;

  00067	8b 45 08	 mov	 eax, DWORD PTR ___$ReturnUdt$[ebp]
; File D:\git\src\IBK\IBK_DRFN\ProjSrc\SrcChartEx\ChartAddIn\ChartAnalysisToolAddIn\AnalysisTool\FiboGann.cpp

; 89   : 	return CPoint(nX, nY);

  0006a	5f		 pop	 edi
; File C:\Program Files (x86)\Microsoft Visual Studio\2019\Community\VC\Tools\MSVC\14.29.30133\atlmfc\include\atltypes.h

; 408  : 	x = initX;

  0006b	89 30		 mov	 DWORD PTR [eax], esi
; File D:\git\src\IBK\IBK_DRFN\ProjSrc\SrcChartEx\ChartAddIn\ChartAnalysisToolAddIn\AnalysisTool\FiboGann.cpp

; 89   : 	return CPoint(nX, nY);

  0006d	5e		 pop	 esi
; File C:\Program Files (x86)\Microsoft Visual Studio\2019\Community\VC\Tools\MSVC\14.29.30133\atlmfc\include\atltypes.h

; 409  : 	y = initY;

  0006e	89 48 04	 mov	 DWORD PTR [eax+4], ecx
; File D:\git\src\IBK\IBK_DRFN\ProjSrc\SrcChartEx\ChartAddIn\ChartAnalysisToolAddIn\AnalysisTool\FiboGann.cpp

; 89   : 	return CPoint(nX, nY);

  00071	5b		 pop	 ebx

; 90   : }

  00072	5d		 pop	 ebp
  00073	c2 10 00	 ret	 16			; 00000010H
?GetDrawingRegion_StartPoint@CFiboArc@@ABE?AVCPoint@@ABV2@0H@Z ENDP ; CFiboArc::GetDrawingRegion_StartPoint
_TEXT	ENDS
; Function compile flags: /Ogtp
; File D:\git\src\IBK\IBK_DRFN\ProjSrc\SrcChartEx\ChartAddIn\ChartAnalysisToolAddIn\AnalysisTool\FiboGann.cpp
;	COMDAT ?PointInCircleAround@CFiboArc@@ABE_NHH@Z
_TEXT	SEGMENT
_selectableRegionCalculator$ = 8			; size = 4
_nSourceRadius$ = 8					; size = 4
_nTargetRadius$ = 12					; size = 4
?PointInCircleAround@CFiboArc@@ABE_NHH@Z PROC		; CFiboArc::PointInCircleAround, COMDAT
; _this$ = ecx

; 76   : {

  00000	55		 push	 ebp
  00001	8b ec		 mov	 ebp, esp
  00003	56		 push	 esi

; 77   : 	if(nSourceRadius <= 0 || nTargetRadius <= 0)

  00004	8b 75 08	 mov	 esi, DWORD PTR _nSourceRadius$[ebp]
  00007	57		 push	 edi
  00008	85 f6		 test	 esi, esi
  0000a	7e 35		 jle	 SHORT $LN3@PointInCir
  0000c	8b 7d 0c	 mov	 edi, DWORD PTR _nTargetRadius$[ebp]
  0000f	85 ff		 test	 edi, edi
  00011	7e 2e		 jle	 SHORT $LN3@PointInCir

; 78   : 		return false;
; 79   : 
; 80   : 	CSelectableRegionCalculator selectableRegionCalculator;

  00013	8d 4d 08	 lea	 ecx, DWORD PTR _selectableRegionCalculator$[ebp]
  00016	e8 00 00 00 00	 call	 ??0CSelectableRegionCalculator@@QAE@XZ ; CSelectableRegionCalculator::CSelectableRegionCalculator

; 81   : 	return (nSourceRadius >= (nTargetRadius - selectableRegionCalculator.GetProximityRange())

  0001b	8d 4d 08	 lea	 ecx, DWORD PTR _selectableRegionCalculator$[ebp]
  0001e	e8 00 00 00 00	 call	 ?GetProximityRange@CSelectableRegionCalculator@@QBEHXZ ; CSelectableRegionCalculator::GetProximityRange
  00023	8b cf		 mov	 ecx, edi
  00025	2b c8		 sub	 ecx, eax
  00027	3b f1		 cmp	 esi, ecx
  00029	7c 16		 jl	 SHORT $LN3@PointInCir
  0002b	8d 4d 08	 lea	 ecx, DWORD PTR _selectableRegionCalculator$[ebp]
  0002e	e8 00 00 00 00	 call	 ?GetProximityRange@CSelectableRegionCalculator@@QBEHXZ ; CSelectableRegionCalculator::GetProximityRange
  00033	03 c7		 add	 eax, edi
  00035	3b f0		 cmp	 esi, eax
  00037	7f 08		 jg	 SHORT $LN3@PointInCir
  00039	5f		 pop	 edi
  0003a	b0 01		 mov	 al, 1

; 82   : 		&& nSourceRadius <= (nTargetRadius + selectableRegionCalculator.GetProximityRange()));
; 83   : }

  0003c	5e		 pop	 esi
  0003d	5d		 pop	 ebp
  0003e	c2 08 00	 ret	 8
$LN3@PointInCir:
  00041	5f		 pop	 edi
  00042	32 c0		 xor	 al, al
  00044	5e		 pop	 esi
  00045	5d		 pop	 ebp
  00046	c2 08 00	 ret	 8
?PointInCircleAround@CFiboArc@@ABE_NHH@Z ENDP		; CFiboArc::PointInCircleAround
_TEXT	ENDS
; Function compile flags: /Ogtp
; File D:\git\src\IBK\IBK_DRFN\ProjSrc\SrcChartEx\ChartAddIn\ChartAnalysisToolAddIn\AnalysisTool\FiboGann.cpp
;	COMDAT ?GetPoint_ApplyRadius@CFiboArc@@IBEHHH_N@Z
_TEXT	SEGMENT
_nOrgData$ = 8						; size = 4
_nRadius$ = 12						; size = 4
_bPlusVector$ = 16					; size = 1
?GetPoint_ApplyRadius@CFiboArc@@IBEHHH_N@Z PROC		; CFiboArc::GetPoint_ApplyRadius, COMDAT
; _this$ = ecx

; 67   : {

  00000	55		 push	 ebp
  00001	8b ec		 mov	 ebp, esp

; 68   : 	if(bPlusVector)

  00003	80 7d 10 00	 cmp	 BYTE PTR _bPlusVector$[ebp], 0
  00007	8b 45 08	 mov	 eax, DWORD PTR _nOrgData$[ebp]
  0000a	74 07		 je	 SHORT $LN2@GetPoint_A

; 69   : 		return (nOrgData + nRadius);

  0000c	03 45 0c	 add	 eax, DWORD PTR _nRadius$[ebp]

; 71   : }

  0000f	5d		 pop	 ebp
  00010	c2 0c 00	 ret	 12			; 0000000cH
$LN2@GetPoint_A:

; 70   : 	return (nOrgData - nRadius);

  00013	2b 45 0c	 sub	 eax, DWORD PTR _nRadius$[ebp]

; 71   : }

  00016	5d		 pop	 ebp
  00017	c2 0c 00	 ret	 12			; 0000000cH
?GetPoint_ApplyRadius@CFiboArc@@IBEHHH_N@Z ENDP		; CFiboArc::GetPoint_ApplyRadius
_TEXT	ENDS
; Function compile flags: /Ogtp
; File D:\git\src\IBK\IBK_DRFN\ProjSrc\SrcChartEx\ChartAddIn\ChartAnalysisToolAddIn\AnalysisTool\FiboGann.cpp
; File C:\Program Files (x86)\Microsoft Visual Studio\2019\Community\VC\Tools\MSVC\14.29.30133\atlmfc\include\atltypes.h
; File D:\git\src\IBK\IBK_DRFN\ProjSrc\SrcChartEx\ChartAddIn\ChartAnalysisToolAddIn\AnalysisTool\FiboGann.cpp
; File C:\Program Files (x86)\Microsoft Visual Studio\2019\Community\VC\Tools\MSVC\14.29.30133\atlmfc\include\atltypes.h
; File D:\git\src\IBK\IBK_DRFN\ProjSrc\SrcChartEx\ChartAddIn\ChartAnalysisToolAddIn\AnalysisTool\FiboGann.cpp
;	COMDAT ?GetDrawingRegion_EndPoint@CFiboArc@@MBE?AVCPoint@@ABV2@0H@Z
_TEXT	SEGMENT
___$ReturnUdt$ = 8					; size = 4
_startPoint$ = 12					; size = 4
_endPoint$ = 16						; size = 4
_nRadius$ = 20						; size = 4
?GetDrawingRegion_EndPoint@CFiboArc@@MBE?AVCPoint@@ABV2@0H@Z PROC ; CFiboArc::GetDrawingRegion_EndPoint, COMDAT
; _this$ = ecx

; 60   : {

  00000	55		 push	 ebp
  00001	8b ec		 mov	 ebp, esp

; 61   : 	if(startPoint.x <= endPoint.x)

  00003	8b 45 0c	 mov	 eax, DWORD PTR _startPoint$[ebp]
  00006	8b 4d 10	 mov	 ecx, DWORD PTR _endPoint$[ebp]
  00009	56		 push	 esi
  0000a	8b 10		 mov	 edx, DWORD PTR [eax]
  0000c	8b 45 08	 mov	 eax, DWORD PTR ___$ReturnUdt$[ebp]
  0000f	8b 31		 mov	 esi, DWORD PTR [ecx]
  00011	8b 49 04	 mov	 ecx, DWORD PTR [ecx+4]
  00014	89 48 04	 mov	 DWORD PTR [eax+4], ecx
  00017	3b d6		 cmp	 edx, esi
  00019	7f 0c		 jg	 SHORT $LN2@GetDrawing

; 62   : 		return CPoint((endPoint.x + nRadius), endPoint.y);

  0001b	8b 4d 14	 mov	 ecx, DWORD PTR _nRadius$[ebp]
  0001e	03 ce		 add	 ecx, esi
; File C:\Program Files (x86)\Microsoft Visual Studio\2019\Community\VC\Tools\MSVC\14.29.30133\atlmfc\include\atltypes.h

; 408  : 	x = initX;

  00020	89 08		 mov	 DWORD PTR [eax], ecx
  00022	5e		 pop	 esi
; File D:\git\src\IBK\IBK_DRFN\ProjSrc\SrcChartEx\ChartAddIn\ChartAnalysisToolAddIn\AnalysisTool\FiboGann.cpp

; 64   : }

  00023	5d		 pop	 ebp
  00024	c2 10 00	 ret	 16			; 00000010H
$LN2@GetDrawing:

; 63   : 	return CPoint((endPoint.x - nRadius), endPoint.y);

  00027	2b 75 14	 sub	 esi, DWORD PTR _nRadius$[ebp]
; File C:\Program Files (x86)\Microsoft Visual Studio\2019\Community\VC\Tools\MSVC\14.29.30133\atlmfc\include\atltypes.h

; 408  : 	x = initX;

  0002a	89 30		 mov	 DWORD PTR [eax], esi
  0002c	5e		 pop	 esi
; File D:\git\src\IBK\IBK_DRFN\ProjSrc\SrcChartEx\ChartAddIn\ChartAnalysisToolAddIn\AnalysisTool\FiboGann.cpp

; 64   : }

  0002d	5d		 pop	 ebp
  0002e	c2 10 00	 ret	 16			; 00000010H
?GetDrawingRegion_EndPoint@CFiboArc@@MBE?AVCPoint@@ABV2@0H@Z ENDP ; CFiboArc::GetDrawingRegion_EndPoint
_TEXT	ENDS
; Function compile flags: /Ogtp
; File D:\git\src\IBK\IBK_DRFN\ProjSrc\SrcChartEx\ChartAddIn\ChartAnalysisToolAddIn\AnalysisTool\FiboGann.cpp
;	COMDAT ?GetModifyType@CFiboArc@@MBE?AW4ModifyType@CToolEnumData@@ABVCRect@@ABVCPoint@@11@Z
_TEXT	SEGMENT
_this$1$ = -4						; size = 4
_region$ = 8						; size = 4
_drawingStartPt$ = 12					; size = 4
_drawingEndPt$ = 16					; size = 4
_selectableRegionCalculator$1 = 20			; size = 4
_point$ = 20						; size = 4
?GetModifyType@CFiboArc@@MBE?AW4ModifyType@CToolEnumData@@ABVCRect@@ABVCPoint@@11@Z PROC ; CFiboArc::GetModifyType, COMDAT
; _this$ = ecx

; 41   : {

  00000	55		 push	 ebp
  00001	8b ec		 mov	 ebp, esp
  00003	51		 push	 ecx
  00004	53		 push	 ebx

; 42   : 	CToolEnumData::ModifyType modifyType = CTwoPointElement::GetModifyType(region, drawingStartPt, drawingEndPt, point);

  00005	8b 5d 10	 mov	 ebx, DWORD PTR _drawingEndPt$[ebp]
  00008	56		 push	 esi
  00009	8b 75 14	 mov	 esi, DWORD PTR _point$[ebp]
  0000c	57		 push	 edi
  0000d	56		 push	 esi
  0000e	53		 push	 ebx
  0000f	ff 75 0c	 push	 DWORD PTR _drawingStartPt$[ebp]
  00012	8b f9		 mov	 edi, ecx
  00014	ff 75 08	 push	 DWORD PTR _region$[ebp]
  00017	89 7d fc	 mov	 DWORD PTR _this$1$[ebp], edi
  0001a	e8 00 00 00 00	 call	 ?GetModifyType@CTwoPointElement@@MBE?AW4ModifyType@CToolEnumData@@ABVCRect@@ABVCPoint@@11@Z ; CTwoPointElement::GetModifyType

; 43   : 	if(modifyType != CToolEnumData::MODIFY_NONE)

  0001f	85 c0		 test	 eax, eax
  00021	75 72		 jne	 SHORT $LN1@GetModifyT

; 44   : 		return modifyType;
; 45   : 
; 46   : 	int nRadius_Point = CMath::Round(CMath::Distance(drawingEndPt, point));

  00023	56		 push	 esi
  00024	53		 push	 ebx
  00025	e8 00 00 00 00	 call	 ?Distance@CMath@@SANABVCPoint@@0@Z ; CMath::Distance
  0002a	dd 1c 24	 fstp	 QWORD PTR [esp]
  0002d	e8 00 00 00 00	 call	 ?Round@CMath@@SAHN@Z	; CMath::Round
  00032	8b d8		 mov	 ebx, eax
  00034	83 c4 08	 add	 esp, 8

; 47   : 	if(nRadius_Point <= 0)

  00037	85 db		 test	 ebx, ebx
  00039	7e 58		 jle	 SHORT $LN3@GetModifyT

; 48   : 		return CToolEnumData::MODIFY_NONE;
; 49   : 
; 50   : 	for(int nIndex = 0; nIndex < 4; nIndex++){

  0003b	33 f6		 xor	 esi, esi
  0003d	0f 1f 00	 npad	 3
$LL4@GetModifyT:

; 51   : 		if(PointInCircleAround(nRadius_Point, GetRadius(drawingStartPt, drawingEndPt, nIndex)))

  00040	8b 17		 mov	 edx, DWORD PTR [edi]
  00042	8b cf		 mov	 ecx, edi
  00044	56		 push	 esi
  00045	ff 75 10	 push	 DWORD PTR _drawingEndPt$[ebp]
  00048	ff 75 0c	 push	 DWORD PTR _drawingStartPt$[ebp]
  0004b	ff 52 4c	 call	 DWORD PTR [edx+76]
  0004e	8b f8		 mov	 edi, eax

; 77   : 	if(nSourceRadius <= 0 || nTargetRadius <= 0)

  00050	85 ff		 test	 edi, edi
  00052	7e 26		 jle	 SHORT $LN11@GetModifyT

; 78   : 		return false;
; 79   : 
; 80   : 	CSelectableRegionCalculator selectableRegionCalculator;

  00054	8d 4d 14	 lea	 ecx, DWORD PTR _selectableRegionCalculator$1[ebp]
  00057	e8 00 00 00 00	 call	 ??0CSelectableRegionCalculator@@QAE@XZ ; CSelectableRegionCalculator::CSelectableRegionCalculator

; 81   : 	return (nSourceRadius >= (nTargetRadius - selectableRegionCalculator.GetProximityRange())

  0005c	8d 4d 14	 lea	 ecx, DWORD PTR _selectableRegionCalculator$1[ebp]
  0005f	e8 00 00 00 00	 call	 ?GetProximityRange@CSelectableRegionCalculator@@QBEHXZ ; CSelectableRegionCalculator::GetProximityRange
  00064	8b cf		 mov	 ecx, edi
  00066	2b c8		 sub	 ecx, eax
  00068	3b d9		 cmp	 ebx, ecx
  0006a	7c 0e		 jl	 SHORT $LN11@GetModifyT
  0006c	8d 4d 14	 lea	 ecx, DWORD PTR _selectableRegionCalculator$1[ebp]
  0006f	e8 00 00 00 00	 call	 ?GetProximityRange@CSelectableRegionCalculator@@QBEHXZ ; CSelectableRegionCalculator::GetProximityRange
  00074	03 c7		 add	 eax, edi
  00076	3b d8		 cmp	 ebx, eax
  00078	7e 0b		 jle	 SHORT $LN16@GetModifyT
$LN11@GetModifyT:

; 48   : 		return CToolEnumData::MODIFY_NONE;
; 49   : 
; 50   : 	for(int nIndex = 0; nIndex < 4; nIndex++){

  0007a	46		 inc	 esi
  0007b	83 fe 04	 cmp	 esi, 4
  0007e	7d 13		 jge	 SHORT $LN3@GetModifyT
  00080	8b 7d fc	 mov	 edi, DWORD PTR _this$1$[ebp]
  00083	eb bb		 jmp	 SHORT $LL4@GetModifyT
$LN16@GetModifyT:
  00085	5f		 pop	 edi

; 56   : }

  00086	5e		 pop	 esi
  00087	b8 01 00 00 00	 mov	 eax, 1
  0008c	5b		 pop	 ebx
  0008d	8b e5		 mov	 esp, ebp
  0008f	5d		 pop	 ebp
  00090	c2 10 00	 ret	 16			; 00000010H
$LN3@GetModifyT:

; 52   : 			return CToolEnumData::MODIFY_CENTER;
; 53   : 	}
; 54   : 
; 55   : 	return CToolEnumData::MODIFY_NONE;

  00093	33 c0		 xor	 eax, eax
$LN1@GetModifyT:
  00095	5f		 pop	 edi

; 56   : }

  00096	5e		 pop	 esi
  00097	5b		 pop	 ebx
  00098	8b e5		 mov	 esp, ebp
  0009a	5d		 pop	 ebp
  0009b	c2 10 00	 ret	 16			; 00000010H
?GetModifyType@CFiboArc@@MBE?AW4ModifyType@CToolEnumData@@ABVCRect@@ABVCPoint@@11@Z ENDP ; CFiboArc::GetModifyType
_TEXT	ENDS
; Function compile flags: /Ogtp
; File D:\git\src\IBK\IBK_DRFN\ProjSrc\SrcChartEx\ChartAddIn\ChartAnalysisToolAddIn\AnalysisTool\FiboGann.cpp
; File C:\Program Files (x86)\Microsoft Visual Studio\2019\Community\VC\Tools\MSVC\14.29.30133\atlmfc\include\atltypes.h
; File D:\git\src\IBK\IBK_DRFN\ProjSrc\SrcChartEx\ChartAddIn\ChartAnalysisToolAddIn\AnalysisTool\FiboGann.cpp
; File C:\Program Files (x86)\Microsoft Visual Studio\2019\Community\VC\Tools\MSVC\14.29.30133\atlmfc\include\atltypes.h
; File D:\git\src\IBK\IBK_DRFN\ProjSrc\SrcChartEx\ChartAddIn\ChartAnalysisToolAddIn\AnalysisTool\FiboGann.cpp
;	COMDAT ?ElementInRegion@CFiboArc@@MBE_NABVCRect@@ABVCPoint@@11@Z
_TEXT	SEGMENT
_drawingEPt$ = -20					; size = 8
_drawingSPt$ = -12					; size = 8
_this$1$ = -4						; size = 4
_region$ = 8						; size = 4
_startPoint$ = 12					; size = 4
_endPoint$ = 16						; size = 4
_point$ = 20						; size = 4
?ElementInRegion@CFiboArc@@MBE_NABVCRect@@ABVCPoint@@11@Z PROC ; CFiboArc::ElementInRegion, COMDAT
; _this$ = ecx

; 31   : {

  00000	55		 push	 ebp
  00001	8b ec		 mov	 ebp, esp
  00003	83 ec 14	 sub	 esp, 20			; 00000014H

; 32   : 	int nRadius = GetRadius(startPoint, endPoint, 2);

  00006	8b 01		 mov	 eax, DWORD PTR [ecx]
  00008	53		 push	 ebx
  00009	8b 5d 10	 mov	 ebx, DWORD PTR _endPoint$[ebp]
  0000c	56		 push	 esi
  0000d	57		 push	 edi
  0000e	8b 7d 0c	 mov	 edi, DWORD PTR _startPoint$[ebp]
  00011	6a 02		 push	 2
  00013	53		 push	 ebx
  00014	57		 push	 edi
  00015	89 4d fc	 mov	 DWORD PTR _this$1$[ebp], ecx
  00018	ff 50 4c	 call	 DWORD PTR [eax+76]

; 87   : 	int nX = GetDrawingRegion_StartPoint(startPoint.x, endPoint.x, nRadius);

  0001b	8b 0b		 mov	 ecx, DWORD PTR [ebx]

; 32   : 	int nRadius = GetRadius(startPoint, endPoint, 2);

  0001d	8b f0		 mov	 esi, eax

; 87   : 	int nX = GetDrawingRegion_StartPoint(startPoint.x, endPoint.x, nRadius);

  0001f	8b 3f		 mov	 edi, DWORD PTR [edi]

; 94   : 	int nDistanceOfTwoPoints = nEndPoint - nStartPoint;

  00021	8b d9		 mov	 ebx, ecx
  00023	2b df		 sub	 ebx, edi

; 95   : 	if(abs(nDistanceOfTwoPoints) >= nRadius)

  00025	8b c3		 mov	 eax, ebx
  00027	99		 cdq
  00028	33 c2		 xor	 eax, edx
  0002a	2b c2		 sub	 eax, edx
  0002c	3b c6		 cmp	 eax, esi
  0002e	7d 0d		 jge	 SHORT $LN5@ElementInR

; 96   : 		return nStartPoint;
; 97   : 
; 98   : 	if(nDistanceOfTwoPoints >= 0) // startPoint <= endPoint

  00030	85 db		 test	 ebx, ebx
  00032	78 06		 js	 SHORT $LN7@ElementInR

; 99   : 		return (nEndPoint - nRadius);

  00034	8b f9		 mov	 edi, ecx
  00036	2b fe		 sub	 edi, esi
  00038	eb 03		 jmp	 SHORT $LN5@ElementInR
$LN7@ElementInR:

; 100  : 
; 101  : 	return (nEndPoint + nRadius);

  0003a	8d 3c 31	 lea	 edi, DWORD PTR [ecx+esi]
$LN5@ElementInR:

; 88   : 	int nY = GetDrawingRegion_StartPoint(startPoint.y, endPoint.y, nRadius);

  0003d	8b 45 10	 mov	 eax, DWORD PTR _endPoint$[ebp]
  00040	8b 4d 0c	 mov	 ecx, DWORD PTR _startPoint$[ebp]
  00043	8b 58 04	 mov	 ebx, DWORD PTR [eax+4]
  00046	8b 49 04	 mov	 ecx, DWORD PTR [ecx+4]

; 94   : 	int nDistanceOfTwoPoints = nEndPoint - nStartPoint;

  00049	2b d9		 sub	 ebx, ecx

; 95   : 	if(abs(nDistanceOfTwoPoints) >= nRadius)

  0004b	8b c3		 mov	 eax, ebx
  0004d	99		 cdq
  0004e	33 c2		 xor	 eax, edx
  00050	2b c2		 sub	 eax, edx
  00052	8b 55 10	 mov	 edx, DWORD PTR _endPoint$[ebp]
  00055	3b c6		 cmp	 eax, esi
  00057	7d 0d		 jge	 SHORT $LN9@ElementInR

; 96   : 		return nStartPoint;
; 97   : 
; 98   : 	if(nDistanceOfTwoPoints >= 0) // startPoint <= endPoint

  00059	8b 4a 04	 mov	 ecx, DWORD PTR [edx+4]
  0005c	85 db		 test	 ebx, ebx
  0005e	78 04		 js	 SHORT $LN11@ElementInR

; 99   : 		return (nEndPoint - nRadius);

  00060	2b ce		 sub	 ecx, esi
  00062	eb 02		 jmp	 SHORT $LN9@ElementInR
$LN11@ElementInR:

; 100  : 
; 101  : 	return (nEndPoint + nRadius);

  00064	03 ce		 add	 ecx, esi
$LN9@ElementInR:

; 34   : 	CPoint drawingEPt = GetDrawingRegion_EndPoint(startPoint, endPoint, nRadius);

  00066	56		 push	 esi
; File C:\Program Files (x86)\Microsoft Visual Studio\2019\Community\VC\Tools\MSVC\14.29.30133\atlmfc\include\atltypes.h

; 408  : 	x = initX;

  00067	89 7d f4	 mov	 DWORD PTR _drawingSPt$[ebp], edi
; File D:\git\src\IBK\IBK_DRFN\ProjSrc\SrcChartEx\ChartAddIn\ChartAnalysisToolAddIn\AnalysisTool\FiboGann.cpp

; 34   : 	CPoint drawingEPt = GetDrawingRegion_EndPoint(startPoint, endPoint, nRadius);

  0006a	8b 7d fc	 mov	 edi, DWORD PTR _this$1$[ebp]
  0006d	52		 push	 edx
  0006e	ff 75 0c	 push	 DWORD PTR _startPoint$[ebp]
; File C:\Program Files (x86)\Microsoft Visual Studio\2019\Community\VC\Tools\MSVC\14.29.30133\atlmfc\include\atltypes.h

; 409  : 	y = initY;

  00071	89 4d f8	 mov	 DWORD PTR _drawingSPt$[ebp+4], ecx
; File D:\git\src\IBK\IBK_DRFN\ProjSrc\SrcChartEx\ChartAddIn\ChartAnalysisToolAddIn\AnalysisTool\FiboGann.cpp

; 34   : 	CPoint drawingEPt = GetDrawingRegion_EndPoint(startPoint, endPoint, nRadius);

  00074	8d 4d ec	 lea	 ecx, DWORD PTR _drawingEPt$[ebp]
  00077	8b 07		 mov	 eax, DWORD PTR [edi]
  00079	51		 push	 ecx
  0007a	8b cf		 mov	 ecx, edi
  0007c	ff 50 50	 call	 DWORD PTR [eax+80]

; 35   : 
; 36   : 	return CTwoPointElement::ElementInRegion(region, drawingSPt, drawingEPt, point);

  0007f	ff 75 14	 push	 DWORD PTR _point$[ebp]
  00082	8d 45 ec	 lea	 eax, DWORD PTR _drawingEPt$[ebp]
  00085	8b cf		 mov	 ecx, edi
  00087	50		 push	 eax
  00088	8d 45 f4	 lea	 eax, DWORD PTR _drawingSPt$[ebp]
  0008b	50		 push	 eax
  0008c	ff 75 08	 push	 DWORD PTR _region$[ebp]
  0008f	e8 00 00 00 00	 call	 ?ElementInRegion@CTwoPointElement@@MBE_NABVCRect@@ABVCPoint@@11@Z ; CTwoPointElement::ElementInRegion
  00094	5f		 pop	 edi
  00095	5e		 pop	 esi
  00096	5b		 pop	 ebx

; 37   : }

  00097	8b e5		 mov	 esp, ebp
  00099	5d		 pop	 ebp
  0009a	c2 10 00	 ret	 16			; 00000010H
?ElementInRegion@CFiboArc@@MBE_NABVCRect@@ABVCPoint@@11@Z ENDP ; CFiboArc::ElementInRegion
_TEXT	ENDS
; Function compile flags: /Ogtp
; File D:\git\src\IBK\IBK_DRFN\ProjSrc\SrcChartEx\ChartAddIn\ChartAnalysisToolAddIn\AnalysisTool\FiboGann.cpp
;	COMDAT ??0CFiboArc@@QAE@ABVCCoordinate@@0ABVCElementCommonEnvironment@@@Z
_TEXT	SEGMENT
_this$ = -4						; size = 4
_point1$ = 8						; size = 4
_point2$ = 12						; size = 4
_environment$ = 16					; size = 4
??0CFiboArc@@QAE@ABVCCoordinate@@0ABVCElementCommonEnvironment@@@Z PROC ; CFiboArc::CFiboArc, COMDAT
; _this$ = ecx

; 25   : {

  00000	55		 push	 ebp
  00001	8b ec		 mov	 ebp, esp
  00003	51		 push	 ecx
  00004	56		 push	 esi
  00005	ff 75 10	 push	 DWORD PTR _environment$[ebp]
  00008	8b f1		 mov	 esi, ecx
  0000a	ff 75 0c	 push	 DWORD PTR _point2$[ebp]
  0000d	89 75 fc	 mov	 DWORD PTR _this$[ebp], esi
  00010	ff 75 08	 push	 DWORD PTR _point1$[ebp]
  00013	e8 00 00 00 00	 call	 ??0CTwoPointElement@@QAE@ABVCCoordinate@@0ABVCElementCommonEnvironment@@@Z ; CTwoPointElement::CTwoPointElement
  00018	c7 06 00 00 00
	00		 mov	 DWORD PTR [esi], OFFSET ??_7CFiboArc@@6B@

; 26   : }

  0001e	8b c6		 mov	 eax, esi
  00020	5e		 pop	 esi
  00021	8b e5		 mov	 esp, ebp
  00023	5d		 pop	 ebp
  00024	c2 0c 00	 ret	 12			; 0000000cH
??0CFiboArc@@QAE@ABVCCoordinate@@0ABVCElementCommonEnvironment@@@Z ENDP ; CFiboArc::CFiboArc
_TEXT	ENDS
; Function compile flags: /Ogtp
;	COMDAT ??1CFiboTimeDrawer@@QAE@XZ
_TEXT	SEGMENT
??1CFiboTimeDrawer@@QAE@XZ PROC				; CFiboTimeDrawer::~CFiboTimeDrawer, COMDAT
; _this$ = ecx
  00000	56		 push	 esi
  00001	8b f1		 mov	 esi, ecx
  00003	8d 4e 20	 lea	 ecx, DWORD PTR [esi+32]
  00006	ff 15 00 00 00
	00		 call	 DWORD PTR __imp_??1?$CStringT@DV?$StrTraitMFC_DLL@DV?$ChTraitsCRT@D@ATL@@@@@ATL@@QAE@XZ
  0000c	8d 4e 0c	 lea	 ecx, DWORD PTR [esi+12]
  0000f	5e		 pop	 esi
  00010	e9 00 00 00 00	 jmp	 ??1CDWordArray@@UAE@XZ	; CDWordArray::~CDWordArray
??1CFiboTimeDrawer@@QAE@XZ ENDP				; CFiboTimeDrawer::~CFiboTimeDrawer
_TEXT	ENDS
; Function compile flags: /Ogtp
;	COMDAT ??1CFiboRetraceDrawer@@QAE@XZ
_TEXT	SEGMENT
??1CFiboRetraceDrawer@@QAE@XZ PROC			; CFiboRetraceDrawer::~CFiboRetraceDrawer, COMDAT
; _this$ = ecx
  00000	56		 push	 esi
  00001	8b f1		 mov	 esi, ecx
  00003	8d 4e 1c	 lea	 ecx, DWORD PTR [esi+28]
  00006	ff 15 00 00 00
	00		 call	 DWORD PTR __imp_??1?$CStringT@DV?$StrTraitMFC_DLL@DV?$ChTraitsCRT@D@ATL@@@@@ATL@@QAE@XZ
  0000c	8d 4e 08	 lea	 ecx, DWORD PTR [esi+8]
  0000f	5e		 pop	 esi
  00010	e9 00 00 00 00	 jmp	 ??1CDWordArray@@UAE@XZ	; CDWordArray::~CDWordArray
??1CFiboRetraceDrawer@@QAE@XZ ENDP			; CFiboRetraceDrawer::~CFiboRetraceDrawer
_TEXT	ENDS
; Function compile flags: /Ogtp
;	COMDAT ??1CFiboPenLineDrawer@@QAE@XZ
_TEXT	SEGMENT
??1CFiboPenLineDrawer@@QAE@XZ PROC			; CFiboPenLineDrawer::~CFiboPenLineDrawer, COMDAT
; _this$ = ecx
  00000	56		 push	 esi
  00001	8b f1		 mov	 esi, ecx
  00003	8d 4e 1c	 lea	 ecx, DWORD PTR [esi+28]
  00006	ff 15 00 00 00
	00		 call	 DWORD PTR __imp_??1?$CStringT@DV?$StrTraitMFC_DLL@DV?$ChTraitsCRT@D@ATL@@@@@ATL@@QAE@XZ
  0000c	8d 4e 08	 lea	 ecx, DWORD PTR [esi+8]
  0000f	5e		 pop	 esi
  00010	e9 00 00 00 00	 jmp	 ??1CDWordArray@@UAE@XZ	; CDWordArray::~CDWordArray
??1CFiboPenLineDrawer@@QAE@XZ ENDP			; CFiboPenLineDrawer::~CFiboPenLineDrawer
_TEXT	ENDS
; Function compile flags: /Ogtp
;	COMDAT ??1CFiboCircleDrawer@@QAE@XZ
_TEXT	SEGMENT
??1CFiboCircleDrawer@@QAE@XZ PROC			; CFiboCircleDrawer::~CFiboCircleDrawer, COMDAT
; _this$ = ecx
  00000	56		 push	 esi
  00001	8b f1		 mov	 esi, ecx
  00003	8d 4e 1c	 lea	 ecx, DWORD PTR [esi+28]
  00006	ff 15 00 00 00
	00		 call	 DWORD PTR __imp_??1?$CStringT@DV?$StrTraitMFC_DLL@DV?$ChTraitsCRT@D@ATL@@@@@ATL@@QAE@XZ
  0000c	8d 4e 08	 lea	 ecx, DWORD PTR [esi+8]
  0000f	5e		 pop	 esi
  00010	e9 00 00 00 00	 jmp	 ??1CDWordArray@@UAE@XZ	; CDWordArray::~CDWordArray
??1CFiboCircleDrawer@@QAE@XZ ENDP			; CFiboCircleDrawer::~CFiboCircleDrawer
_TEXT	ENDS
; Function compile flags: /Ogtp
;	COMDAT ??1CFiboSemicircleDrawer@@QAE@XZ
_TEXT	SEGMENT
??1CFiboSemicircleDrawer@@QAE@XZ PROC			; CFiboSemicircleDrawer::~CFiboSemicircleDrawer, COMDAT
; _this$ = ecx
  00000	56		 push	 esi
  00001	8b f1		 mov	 esi, ecx
  00003	8d 4e 1c	 lea	 ecx, DWORD PTR [esi+28]
  00006	ff 15 00 00 00
	00		 call	 DWORD PTR __imp_??1?$CStringT@DV?$StrTraitMFC_DLL@DV?$ChTraitsCRT@D@ATL@@@@@ATL@@QAE@XZ
  0000c	8d 4e 08	 lea	 ecx, DWORD PTR [esi+8]
  0000f	5e		 pop	 esi
  00010	e9 00 00 00 00	 jmp	 ??1CDWordArray@@UAE@XZ	; CDWordArray::~CDWordArray
??1CFiboSemicircleDrawer@@QAE@XZ ENDP			; CFiboSemicircleDrawer::~CFiboSemicircleDrawer
_TEXT	ENDS
; Function compile flags: /Ogtp
; File D:\git\src\IBK\IBK_DRFN\ProjSrc\SrcChartEx\ChartAddIn\ChartAnalysisToolAddIn\AnalysisTool\Element.h
;	COMDAT ??1CVertElement@@UAE@XZ
_TEXT	SEGMENT
??1CVertElement@@UAE@XZ PROC				; CVertElement::~CVertElement, COMDAT
; _this$ = ecx

; 31   : 	virtual ~CElement()	{}

  00000	56		 push	 esi
  00001	8b f1		 mov	 esi, ecx
  00003	8d 4e 64	 lea	 ecx, DWORD PTR [esi+100]
  00006	ff 15 00 00 00
	00		 call	 DWORD PTR __imp_??1?$CStringT@DV?$StrTraitMFC_DLL@DV?$ChTraitsCRT@D@ATL@@@@@ATL@@QAE@XZ
  0000c	8d 4e 40	 lea	 ecx, DWORD PTR [esi+64]
  0000f	c7 06 00 00 00
	00		 mov	 DWORD PTR [esi], OFFSET ??_7CElement@@6B@
  00015	ff 15 00 00 00
	00		 call	 DWORD PTR __imp_??1?$CStringT@DV?$StrTraitMFC_DLL@DV?$ChTraitsCRT@D@ATL@@@@@ATL@@QAE@XZ
  0001b	8d 4e 3c	 lea	 ecx, DWORD PTR [esi+60]
  0001e	ff 15 00 00 00
	00		 call	 DWORD PTR __imp_??1?$CStringT@DV?$StrTraitMFC_DLL@DV?$ChTraitsCRT@D@ATL@@@@@ATL@@QAE@XZ
  00024	8d 4e 38	 lea	 ecx, DWORD PTR [esi+56]
  00027	5e		 pop	 esi
  00028	ff 25 00 00 00
	00		 jmp	 DWORD PTR __imp_??1?$CStringT@DV?$StrTraitMFC_DLL@DV?$ChTraitsCRT@D@ATL@@@@@ATL@@QAE@XZ
??1CVertElement@@UAE@XZ ENDP				; CVertElement::~CVertElement
_TEXT	ENDS
; Function compile flags: /Ogtp
; File D:\git\src\IBK\IBK_DRFN\ProjSrc\SrcChartEx\ChartAddIn\ChartAnalysisToolAddIn\AnalysisTool\Element.h
;	COMDAT ??1CTwoPointElement@@UAE@XZ
_TEXT	SEGMENT
??1CTwoPointElement@@UAE@XZ PROC			; CTwoPointElement::~CTwoPointElement, COMDAT
; _this$ = ecx

; 31   : 	virtual ~CElement()	{}

  00000	56		 push	 esi
  00001	8b f1		 mov	 esi, ecx
  00003	8d 8e 84 00 00
	00		 lea	 ecx, DWORD PTR [esi+132]
  00009	ff 15 00 00 00
	00		 call	 DWORD PTR __imp_??1?$CStringT@DV?$StrTraitMFC_DLL@DV?$ChTraitsCRT@D@ATL@@@@@ATL@@QAE@XZ
  0000f	8d 4e 64	 lea	 ecx, DWORD PTR [esi+100]
  00012	ff 15 00 00 00
	00		 call	 DWORD PTR __imp_??1?$CStringT@DV?$StrTraitMFC_DLL@DV?$ChTraitsCRT@D@ATL@@@@@ATL@@QAE@XZ
  00018	8d 4e 40	 lea	 ecx, DWORD PTR [esi+64]
  0001b	c7 06 00 00 00
	00		 mov	 DWORD PTR [esi], OFFSET ??_7CElement@@6B@
  00021	ff 15 00 00 00
	00		 call	 DWORD PTR __imp_??1?$CStringT@DV?$StrTraitMFC_DLL@DV?$ChTraitsCRT@D@ATL@@@@@ATL@@QAE@XZ
  00027	8d 4e 3c	 lea	 ecx, DWORD PTR [esi+60]
  0002a	ff 15 00 00 00
	00		 call	 DWORD PTR __imp_??1?$CStringT@DV?$StrTraitMFC_DLL@DV?$ChTraitsCRT@D@ATL@@@@@ATL@@QAE@XZ
  00030	8d 4e 38	 lea	 ecx, DWORD PTR [esi+56]
  00033	5e		 pop	 esi
  00034	ff 25 00 00 00
	00		 jmp	 DWORD PTR __imp_??1?$CStringT@DV?$StrTraitMFC_DLL@DV?$ChTraitsCRT@D@ATL@@@@@ATL@@QAE@XZ
??1CTwoPointElement@@UAE@XZ ENDP			; CTwoPointElement::~CTwoPointElement
_TEXT	ENDS
; Function compile flags: /Ogtp
; File D:\git\src\IBK\IBK_DRFN\ProjSrc\SrcChartEx\ChartAddIn\ChartAnalysisToolAddIn\AnalysisTool\Element.h
;	COMDAT ??_GCElement@@UAEPAXI@Z
_TEXT	SEGMENT
___flags$ = 8						; size = 4
??_GCElement@@UAEPAXI@Z PROC				; CElement::`scalar deleting destructor', COMDAT
; _this$ = ecx
  00000	55		 push	 ebp
  00001	8b ec		 mov	 ebp, esp

; 31   : 	virtual ~CElement()	{}

  00003	56		 push	 esi
  00004	8b f1		 mov	 esi, ecx
  00006	8d 4e 40	 lea	 ecx, DWORD PTR [esi+64]
  00009	c7 06 00 00 00
	00		 mov	 DWORD PTR [esi], OFFSET ??_7CElement@@6B@
  0000f	ff 15 00 00 00
	00		 call	 DWORD PTR __imp_??1?$CStringT@DV?$StrTraitMFC_DLL@DV?$ChTraitsCRT@D@ATL@@@@@ATL@@QAE@XZ
  00015	8d 4e 3c	 lea	 ecx, DWORD PTR [esi+60]
  00018	ff 15 00 00 00
	00		 call	 DWORD PTR __imp_??1?$CStringT@DV?$StrTraitMFC_DLL@DV?$ChTraitsCRT@D@ATL@@@@@ATL@@QAE@XZ
  0001e	8d 4e 38	 lea	 ecx, DWORD PTR [esi+56]
  00021	ff 15 00 00 00
	00		 call	 DWORD PTR __imp_??1?$CStringT@DV?$StrTraitMFC_DLL@DV?$ChTraitsCRT@D@ATL@@@@@ATL@@QAE@XZ
  00027	f6 45 08 01	 test	 BYTE PTR ___flags$[ebp], 1
  0002b	74 0b		 je	 SHORT $LN13@scalar
  0002d	6a 50		 push	 80			; 00000050H
  0002f	56		 push	 esi
  00030	e8 00 00 00 00	 call	 ??3@YAXPAXI@Z		; operator delete
  00035	83 c4 08	 add	 esp, 8
$LN13@scalar:
  00038	8b c6		 mov	 eax, esi
  0003a	5e		 pop	 esi
  0003b	5d		 pop	 ebp
  0003c	c2 04 00	 ret	 4
??_GCElement@@UAEPAXI@Z ENDP				; CElement::`scalar deleting destructor'
_TEXT	ENDS
; Function compile flags: /Ogtp
; File D:\git\src\IBK\IBK_DRFN\ProjSrc\SrcChartEx\ChartAddIn\ChartAnalysisToolAddIn\AnalysisTool\Element.h
;	COMDAT ??1CElement@@UAE@XZ
_TEXT	SEGMENT
??1CElement@@UAE@XZ PROC				; CElement::~CElement, COMDAT
; _this$ = ecx

; 31   : 	virtual ~CElement()	{}

  00000	56		 push	 esi
  00001	8b f1		 mov	 esi, ecx
  00003	8d 4e 40	 lea	 ecx, DWORD PTR [esi+64]
  00006	c7 06 00 00 00
	00		 mov	 DWORD PTR [esi], OFFSET ??_7CElement@@6B@
  0000c	ff 15 00 00 00
	00		 call	 DWORD PTR __imp_??1?$CStringT@DV?$StrTraitMFC_DLL@DV?$ChTraitsCRT@D@ATL@@@@@ATL@@QAE@XZ
  00012	8d 4e 3c	 lea	 ecx, DWORD PTR [esi+60]
  00015	ff 15 00 00 00
	00		 call	 DWORD PTR __imp_??1?$CStringT@DV?$StrTraitMFC_DLL@DV?$ChTraitsCRT@D@ATL@@@@@ATL@@QAE@XZ
  0001b	8d 4e 38	 lea	 ecx, DWORD PTR [esi+56]
  0001e	5e		 pop	 esi
  0001f	ff 25 00 00 00
	00		 jmp	 DWORD PTR __imp_??1?$CStringT@DV?$StrTraitMFC_DLL@DV?$ChTraitsCRT@D@ATL@@@@@ATL@@QAE@XZ
??1CElement@@UAE@XZ ENDP				; CElement::~CElement
_TEXT	ENDS
; Function compile flags: /Ogtp
;	COMDAT ??1CElementCommonEnvironment@@QAE@XZ
_TEXT	SEGMENT
??1CElementCommonEnvironment@@QAE@XZ PROC		; CElementCommonEnvironment::~CElementCommonEnvironment, COMDAT
; _this$ = ecx
  00000	56		 push	 esi
  00001	8b f1		 mov	 esi, ecx
  00003	8d 4e 38	 lea	 ecx, DWORD PTR [esi+56]
  00006	ff 15 00 00 00
	00		 call	 DWORD PTR __imp_??1?$CStringT@DV?$StrTraitMFC_DLL@DV?$ChTraitsCRT@D@ATL@@@@@ATL@@QAE@XZ
  0000c	8d 4e 34	 lea	 ecx, DWORD PTR [esi+52]
  0000f	ff 15 00 00 00
	00		 call	 DWORD PTR __imp_??1?$CStringT@DV?$StrTraitMFC_DLL@DV?$ChTraitsCRT@D@ATL@@@@@ATL@@QAE@XZ
  00015	8d 4e 30	 lea	 ecx, DWORD PTR [esi+48]
  00018	5e		 pop	 esi
  00019	ff 25 00 00 00
	00		 jmp	 DWORD PTR __imp_??1?$CStringT@DV?$StrTraitMFC_DLL@DV?$ChTraitsCRT@D@ATL@@@@@ATL@@QAE@XZ
??1CElementCommonEnvironment@@QAE@XZ ENDP		; CElementCommonEnvironment::~CElementCommonEnvironment
_TEXT	ENDS
; Function compile flags: /Ogtp
; File D:\git\src\IBK\IBK_DRFN\ProjSrc\SrcChartEx\ChartAddIn\ChartAnalysisToolAddIn\AnalysisTool\FiboGann.cpp
;	COMDAT ?__empty_global_delete@@YAXPAXI@Z
_TEXT	SEGMENT
___formal$ = 8						; size = 4
___formal$ = 12						; size = 4
?__empty_global_delete@@YAXPAXI@Z PROC			; __empty_global_delete, COMDAT

  00000	c2 00 00	 ret	 0
?__empty_global_delete@@YAXPAXI@Z ENDP			; __empty_global_delete
_TEXT	ENDS
; Function compile flags: /Ogtp
; File D:\git\src\IBK\IBK_DRFN\ProjSrc\SrcChartEx\ChartAddIn\ChartAnalysisToolAddIn\AnalysisTool\FiboGann.cpp
;	COMDAT ?__empty_global_delete@@YAXPAX@Z
_TEXT	SEGMENT
___formal$ = 8						; size = 4
?__empty_global_delete@@YAXPAX@Z PROC			; __empty_global_delete, COMDAT

  00000	c2 00 00	 ret	 0
?__empty_global_delete@@YAXPAX@Z ENDP			; __empty_global_delete
_TEXT	ENDS
END
