; Listing generated by Microsoft (R) Optimizing Compiler Version 19.29.30145.0 

	TITLE	D:\git\src\IBK\IBK_DRFN\#DRfn-CS\_Obj\AnalysisTool\Line.obj
	.686P
	.XMM
	include listing.inc
	.model	flat

INCLUDELIB MSVCRT
INCLUDELIB OLDNAMES

PUBLIC	?__empty_global_delete@@YAXPAX@Z		; __empty_global_delete
PUBLIC	?__empty_global_delete@@YAXPAXI@Z		; __empty_global_delete
PUBLIC	??1CElementCommonEnvironment@@QAE@XZ		; CElementCommonEnvironment::~CElementCommonEnvironment
PUBLIC	??1CElement@@UAE@XZ				; CElement::~CElement
PUBLIC	??_GCElement@@UAEPAXI@Z				; CElement::`scalar deleting destructor'
PUBLIC	??1CCoordinate@@QAE@XZ				; CCoordinate::~CCoordinate
PUBLIC	??1CPoints@@QAE@XZ				; CPoints::~CPoints
PUBLIC	??1COnePointElement@@UAE@XZ			; COnePointElement::~COnePointElement
PUBLIC	??1CTwoPointElement@@UAE@XZ			; CTwoPointElement::~CTwoPointElement
PUBLIC	??1CThreePointElement@@UAE@XZ			; CThreePointElement::~CThreePointElement
PUBLIC	??1CMultiPointElement@@UAE@XZ			; CMultiPointElement::~CMultiPointElement
PUBLIC	??1CVertElement@@UAE@XZ				; CVertElement::~CVertElement
PUBLIC	??0CLine@@QAE@ABVCTextHorzPosition@@ABVCCoordinate@@1W4TOOLTYPE@CAnalysis@@ABVCElementCommonEnvironment@@@Z ; CLine::CLine
PUBLIC	?GetElementType@CLine@@UBE?AW4ElementType@CToolEnumData@@XZ ; CLine::GetElementType
PUBLIC	?GetTextPosition@CLine@@MBEPBVCTextPosition@@XZ	; CLine::GetTextPosition
PUBLIC	?GetTextPosition@CLine@@MAEPAVCTextPosition@@XZ	; CLine::GetTextPosition
PUBLIC	?GetTwoPointDrawer@CLine@@MAEAAVCTwoPointDrawer@@XZ ; CLine::GetTwoPointDrawer
PUBLIC	?ElementInRegion@CLine@@MBE_NABVCRect@@ABVCPoint@@11@Z ; CLine::ElementInRegion
PUBLIC	?GetModifyType@CLine@@MBE?AW4ModifyType@CToolEnumData@@ABVCRect@@ABVCPoint@@11@Z ; CLine::GetModifyType
PUBLIC	??_GCLine@@UAEPAXI@Z				; CLine::`scalar deleting destructor'
PUBLIC	??0CVertLine@@QAE@ABVCTextVertPosition@@ABVCCoordinate@@ABVCElementCommonEnvironment@@@Z ; CVertLine::CVertLine
PUBLIC	?GetElementType@CVertLine@@UBE?AW4ElementType@CToolEnumData@@XZ ; CVertLine::GetElementType
PUBLIC	?GetTextPosition@CVertLine@@MBEPBVCTextPosition@@XZ ; CVertLine::GetTextPosition
PUBLIC	?GetTextPosition@CVertLine@@MAEPAVCTextPosition@@XZ ; CVertLine::GetTextPosition
PUBLIC	?GetOnePointDrawer@CVertLine@@MAEAAVCOnePointDrawer@@XZ ; CVertLine::GetOnePointDrawer
PUBLIC	??_GCVertLine@@UAEPAXI@Z			; CVertLine::`scalar deleting destructor'
PUBLIC	??0CHorzLine@@QAE@ABVCTextHorzPosition@@ABVCCoordinate@@ABVCElementCommonEnvironment@@@Z ; CHorzLine::CHorzLine
PUBLIC	?GetElementType@CHorzLine@@UBE?AW4ElementType@CToolEnumData@@XZ ; CHorzLine::GetElementType
PUBLIC	?ElementModify@CHorzLine@@UAEXABVCElementModifyData@@@Z ; CHorzLine::ElementModify
PUBLIC	?ElementModify_YValue@CHorzLine@@UAEXABVCElementModifyData@@@Z ; CHorzLine::ElementModify_YValue
PUBLIC	?ElementModify_Coordinate@CHorzLine@@UAEXABVCCoordinate@@W4ModifyType@CToolEnumData@@@Z ; CHorzLine::ElementModify_Coordinate
PUBLIC	?GetTextPosition@CHorzLine@@MBEPBVCTextPosition@@XZ ; CHorzLine::GetTextPosition
PUBLIC	?GetTextPosition@CHorzLine@@MAEPAVCTextPosition@@XZ ; CHorzLine::GetTextPosition
PUBLIC	?GetOnePointDrawer@CHorzLine@@MAEAAVCOnePointDrawer@@XZ ; CHorzLine::GetOnePointDrawer
PUBLIC	?GetModifyType@CHorzLine@@MBE?AW4ModifyType@CToolEnumData@@ABVCDisplayData@@ABVCPoint@@1@Z ; CHorzLine::GetModifyType
PUBLIC	?PointInElementSelectableRegion@CHorzLine@@ABE_NABVCRect@@ABVCPoint@@1@Z ; CHorzLine::PointInElementSelectableRegion
PUBLIC	??_GCHorzLine@@UAEPAXI@Z			; CHorzLine::`scalar deleting destructor'
PUBLIC	??0CCrossLine@@QAE@ABVCTextHorzVertPosition@@ABVCCoordinate@@ABVCElementCommonEnvironment@@@Z ; CCrossLine::CCrossLine
PUBLIC	?GetElementType@CCrossLine@@UBE?AW4ElementType@CToolEnumData@@XZ ; CCrossLine::GetElementType
PUBLIC	?ElementModify@CCrossLine@@UAEXABVCElementModifyData@@@Z ; CCrossLine::ElementModify
PUBLIC	?ElementModify_YValue@CCrossLine@@UAEXABVCElementModifyData@@@Z ; CCrossLine::ElementModify_YValue
PUBLIC	?ElementModify_Coordinate@CCrossLine@@UAEXABVCCoordinate@@W4ModifyType@CToolEnumData@@@Z ; CCrossLine::ElementModify_Coordinate
PUBLIC	?DrawSelected@CCrossLine@@UAEXPAVCDC@@ABVCSelectedElementDrawingData@@@Z ; CCrossLine::DrawSelected
PUBLIC	?GetTextPosition@CCrossLine@@MBEPBVCTextPosition@@XZ ; CCrossLine::GetTextPosition
PUBLIC	?GetTextPosition@CCrossLine@@MAEPAVCTextPosition@@XZ ; CCrossLine::GetTextPosition
PUBLIC	?GetOnePointDrawer@CCrossLine@@MAEAAVCOnePointDrawer@@XZ ; CCrossLine::GetOnePointDrawer
PUBLIC	?GetModifyType@CCrossLine@@MBE?AW4ModifyType@CToolEnumData@@ABVCDisplayData@@ABVCPoint@@1@Z ; CCrossLine::GetModifyType
PUBLIC	?ElementModify_X@CCrossLine@@AAEXABVCCoordinate@@@Z ; CCrossLine::ElementModify_X
PUBLIC	?ElementModify_Y@CCrossLine@@AAEXABVCCoordinate@@@Z ; CCrossLine::ElementModify_Y
PUBLIC	??_GCCrossLine@@UAEPAXI@Z			; CCrossLine::`scalar deleting destructor'
PUBLIC	??0CEqualDivisionLine@@QAE@ABVCTextHorzPosition@@ABVCCoordinate@@1ABVCElementCommonEnvironment@@@Z ; CEqualDivisionLine::CEqualDivisionLine
PUBLIC	?GetTextPosition@CEqualDivisionLine@@MBEPBVCTextPosition@@XZ ; CEqualDivisionLine::GetTextPosition
PUBLIC	?GetTextPosition@CEqualDivisionLine@@MAEPAVCTextPosition@@XZ ; CEqualDivisionLine::GetTextPosition
PUBLIC	?GetModifyType@CEqualDivisionLine@@MBE?AW4ModifyType@CToolEnumData@@ABVCRect@@ABVCPoint@@11@Z ; CEqualDivisionLine::GetModifyType
PUBLIC	?GetModifyTypeLine@CEqualDivisionLine@@ABE?AW4ModifyType@CToolEnumData@@ABVCRect@@ABVCPoint@@11@Z ; CEqualDivisionLine::GetModifyTypeLine
PUBLIC	??_GCEqualDivisionLine@@UAEPAXI@Z		; CEqualDivisionLine::`scalar deleting destructor'
PUBLIC	??0CTrisectionLine@@QAE@ABVCTextHorzPosition@@ABVCCoordinate@@1ABVCElementCommonEnvironment@@@Z ; CTrisectionLine::CTrisectionLine
PUBLIC	?GetElementType@CTrisectionLine@@UBE?AW4ElementType@CToolEnumData@@XZ ; CTrisectionLine::GetElementType
PUBLIC	?GetTwoPointDrawer@CTrisectionLine@@MAEAAVCTwoPointDrawer@@XZ ; CTrisectionLine::GetTwoPointDrawer
PUBLIC	?GetEqualDivisionLineDrawer@CTrisectionLine@@MBEPBVCEqualDivisionLineDrawer@@XZ ; CTrisectionLine::GetEqualDivisionLineDrawer
PUBLIC	??_GCTrisectionLine@@UAEPAXI@Z			; CTrisectionLine::`scalar deleting destructor'
PUBLIC	??0CQuadrisectLine@@QAE@ABVCTextHorzPosition@@ABVCCoordinate@@1ABVCElementCommonEnvironment@@@Z ; CQuadrisectLine::CQuadrisectLine
PUBLIC	?GetElementType@CQuadrisectLine@@UBE?AW4ElementType@CToolEnumData@@XZ ; CQuadrisectLine::GetElementType
PUBLIC	?GetTwoPointDrawer@CQuadrisectLine@@MAEAAVCTwoPointDrawer@@XZ ; CQuadrisectLine::GetTwoPointDrawer
PUBLIC	?GetEqualDivisionLineDrawer@CQuadrisectLine@@MBEPBVCEqualDivisionLineDrawer@@XZ ; CQuadrisectLine::GetEqualDivisionLineDrawer
PUBLIC	??_GCQuadrisectLine@@UAEPAXI@Z			; CQuadrisectLine::`scalar deleting destructor'
PUBLIC	??0CAndrewsPitchfork@@QAE@ABVCCoordinate@@00ABVCElementCommonEnvironment@@@Z ; CAndrewsPitchfork::CAndrewsPitchfork
PUBLIC	?GetElementType@CAndrewsPitchfork@@UBE?AW4ElementType@CToolEnumData@@XZ ; CAndrewsPitchfork::GetElementType
PUBLIC	?GetThreePointDrawer@CAndrewsPitchfork@@MAEAAVCThreePointDrawer@@XZ ; CAndrewsPitchfork::GetThreePointDrawer
PUBLIC	?ElementInRegion@CAndrewsPitchfork@@MBE_NABVCRect@@ABVCPoint@@111@Z ; CAndrewsPitchfork::ElementInRegion
PUBLIC	?GetModifyType@CAndrewsPitchfork@@MBE?AW4ModifyType@CToolEnumData@@ABVCRect@@ABVCPoint@@111@Z ; CAndrewsPitchfork::GetModifyType
PUBLIC	?PointInElementSelectableRegion@CAndrewsPitchfork@@ABE_NABVCRect@@ABVCPoint@@111@Z ; CAndrewsPitchfork::PointInElementSelectableRegion
PUBLIC	??_GCAndrewsPitchfork@@UAEPAXI@Z		; CAndrewsPitchfork::`scalar deleting destructor'
PUBLIC	??0CCycleLines@@QAE@ABVCCoordinate@@0ABVCElementCommonEnvironment@@@Z ; CCycleLines::CCycleLines
PUBLIC	?GetElementType@CCycleLines@@UBE?AW4ElementType@CToolEnumData@@XZ ; CCycleLines::GetElementType
PUBLIC	?GetTwoPointDrawer@CCycleLines@@MAEAAVCTwoPointDrawer@@XZ ; CCycleLines::GetTwoPointDrawer
PUBLIC	?ElementInRegion@CCycleLines@@MBE_NABVCRect@@ABVCPoint@@11@Z ; CCycleLines::ElementInRegion
PUBLIC	?GetModifyType@CCycleLines@@MBE?AW4ModifyType@CToolEnumData@@ABVCDisplayData@@ABVCPoint@@11@Z ; CCycleLines::GetModifyType
PUBLIC	?GetModifyType_Lines@CCycleLines@@ABE?AW4ModifyType@CToolEnumData@@ABVCDisplayData@@ABVCPoint@@11@Z ; CCycleLines::GetModifyType_Lines
PUBLIC	??_GCCycleLines@@UAEPAXI@Z			; CCycleLines::`scalar deleting destructor'
PUBLIC	??0CSpeedLine@@QAE@ABVCCoordinate@@0ABVCElementCommonEnvironment@@@Z ; CSpeedLine::CSpeedLine
PUBLIC	?GetElementType@CSpeedLine@@UBE?AW4ElementType@CToolEnumData@@XZ ; CSpeedLine::GetElementType
PUBLIC	?GetTwoPointDrawer@CSpeedLine@@MAEAAVCTwoPointDrawer@@XZ ; CSpeedLine::GetTwoPointDrawer
PUBLIC	?ElementInRegion@CSpeedLine@@MBE_NABVCRect@@ABVCPoint@@11@Z ; CSpeedLine::ElementInRegion
PUBLIC	?GetModifyType@CSpeedLine@@MBE?AW4ModifyType@CToolEnumData@@ABVCRect@@ABVCPoint@@11@Z ; CSpeedLine::GetModifyType
PUBLIC	??_GCSpeedLine@@UAEPAXI@Z			; CSpeedLine::`scalar deleting destructor'
PUBLIC	??0CSpeedFan@@QAE@ABVCCoordinate@@0ABVCElementCommonEnvironment@@@Z ; CSpeedFan::CSpeedFan
PUBLIC	?GetElementType@CSpeedFan@@UBE?AW4ElementType@CToolEnumData@@XZ ; CSpeedFan::GetElementType
PUBLIC	?GetTwoPointDrawer@CSpeedFan@@MAEAAVCTwoPointDrawer@@XZ ; CSpeedFan::GetTwoPointDrawer
PUBLIC	?ElementInRegion@CSpeedFan@@MBE_NABVCRect@@ABVCPoint@@11@Z ; CSpeedFan::ElementInRegion
PUBLIC	?GetModifyType@CSpeedFan@@MBE?AW4ModifyType@CToolEnumData@@ABVCRect@@ABVCPoint@@11@Z ; CSpeedFan::GetModifyType
PUBLIC	??_GCSpeedFan@@UAEPAXI@Z			; CSpeedFan::`scalar deleting destructor'
PUBLIC	??0CSpeedArc@@QAE@ABVCCoordinate@@0ABVCElementCommonEnvironment@@@Z ; CSpeedArc::CSpeedArc
PUBLIC	?GetElementType@CSpeedArc@@UBE?AW4ElementType@CToolEnumData@@XZ ; CSpeedArc::GetElementType
PUBLIC	?GetTwoPointDrawer@CSpeedArc@@MAEAAVCTwoPointDrawer@@XZ ; CSpeedArc::GetTwoPointDrawer
PUBLIC	?ElementInRegion@CSpeedArc@@MBE_NABVCRect@@ABVCPoint@@11@Z ; CSpeedArc::ElementInRegion
PUBLIC	?GetModifyType@CSpeedArc@@MBE?AW4ModifyType@CToolEnumData@@ABVCRect@@ABVCPoint@@11@Z ; CSpeedArc::GetModifyType
PUBLIC	?GetDrawingRegion_EndPoint@CSpeedArc@@MBE?AVCPoint@@ABV2@0H@Z ; CSpeedArc::GetDrawingRegion_EndPoint
PUBLIC	?PointInCircleAround@CSpeedArc@@ABE_NHH@Z	; CSpeedArc::PointInCircleAround
PUBLIC	?GetDrawingRegion_StartPoint@CSpeedArc@@ABE?AVCPoint@@ABV2@0H@Z ; CSpeedArc::GetDrawingRegion_StartPoint
PUBLIC	?GetDrawingRegion_StartPoint@CSpeedArc@@ABEHHHH@Z ; CSpeedArc::GetDrawingRegion_StartPoint
PUBLIC	?GetRadius@CSpeedArc@@ABEHABVCPoint@@0H@Z	; CSpeedArc::GetRadius
PUBLIC	??_GCSpeedArc@@UAEPAXI@Z			; CSpeedArc::`scalar deleting destructor'
PUBLIC	??0CLinearRegression@@QAE@ABVCCoordinate@@0ABVCElementCommonEnvironment@@@Z ; CLinearRegression::CLinearRegression
PUBLIC	?ElementModify@CLinearRegression@@UAEXABVCElementModifyData@@@Z ; CLinearRegression::ElementModify
PUBLIC	?ElementModify_Coordinate@CLinearRegression@@UAEXABVCCoordinate@@W4ModifyType@CToolEnumData@@@Z ; CLinearRegression::ElementModify_Coordinate
PUBLIC	?ElementModify_YValue@CLinearRegression@@UAEXABVCElementModifyData@@@Z ; CLinearRegression::ElementModify_YValue
PUBLIC	?GetCoordinate@CLinearRegression@@UBE?AVCCoordinate@@W4ModifyType@CToolEnumData@@@Z ; CLinearRegression::GetCoordinate
PUBLIC	?GetElementType@CLinearRegression@@UBE?AW4ElementType@CToolEnumData@@XZ ; CLinearRegression::GetElementType
PUBLIC	?GetTwoPointDrawer@CLinearRegression@@MAEAAVCTwoPointDrawer@@XZ ; CLinearRegression::GetTwoPointDrawer
PUBLIC	?GetModifyType@CLinearRegression@@MBE?AW4ModifyType@CToolEnumData@@ABVCRect@@ABVCPoint@@11@Z ; CLinearRegression::GetModifyType
PUBLIC	??_GCLinearRegression@@UAEPAXI@Z		; CLinearRegression::`scalar deleting destructor'
PUBLIC	??0CRaffRegression@@QAE@ABVCCoordinate@@0ABVCElementCommonEnvironment@@N@Z ; CRaffRegression::CRaffRegression
PUBLIC	?ElementModify@CRaffRegression@@UAEXABVCElementModifyData@@@Z ; CRaffRegression::ElementModify
PUBLIC	?ElementModify_YValue@CRaffRegression@@UAEXABVCElementModifyData@@@Z ; CRaffRegression::ElementModify_YValue
PUBLIC	?ElementModify_Coordinate@CRaffRegression@@UAEXABVCCoordinate@@W4ModifyType@CToolEnumData@@@Z ; CRaffRegression::ElementModify_Coordinate
PUBLIC	?GetCoordinate@CRaffRegression@@UBE?AVCCoordinate@@W4ModifyType@CToolEnumData@@@Z ; CRaffRegression::GetCoordinate
PUBLIC	?GetElementType@CRaffRegression@@UBE?AW4ElementType@CToolEnumData@@XZ ; CRaffRegression::GetElementType
PUBLIC	?GetTwoPointDrawer@CRaffRegression@@MAEAAVCTwoPointDrawer@@XZ ; CRaffRegression::GetTwoPointDrawer
PUBLIC	?GetModifyType@CRaffRegression@@MBE?AW4ModifyType@CToolEnumData@@ABVCRect@@ABVCPoint@@11@Z ; CRaffRegression::GetModifyType
PUBLIC	??_GCRaffRegression@@UAEPAXI@Z			; CRaffRegression::`scalar deleting destructor'
PUBLIC	??0CAngleLine@@QAE@ABVCTextShowPosition@@ABVCCoordinate@@1ABVCElementCommonEnvironment@@@Z ; CAngleLine::CAngleLine
PUBLIC	?GetElementType@CAngleLine@@UBE?AW4ElementType@CToolEnumData@@XZ ; CAngleLine::GetElementType
PUBLIC	?GetTextPosition@CAngleLine@@MBEPBVCTextPosition@@XZ ; CAngleLine::GetTextPosition
PUBLIC	?GetTextPosition@CAngleLine@@MAEPAVCTextPosition@@XZ ; CAngleLine::GetTextPosition
PUBLIC	?GetTwoPointDrawer@CAngleLine@@MAEAAVCTwoPointDrawer@@XZ ; CAngleLine::GetTwoPointDrawer
PUBLIC	?ElementInRegion@CAngleLine@@MBE_NABVCRect@@ABVCPoint@@11@Z ; CAngleLine::ElementInRegion
PUBLIC	?GetModifyType@CAngleLine@@MBE?AW4ModifyType@CToolEnumData@@ABVCRect@@ABVCPoint@@11@Z ; CAngleLine::GetModifyType
PUBLIC	??_GCAngleLine@@UAEPAXI@Z			; CAngleLine::`scalar deleting destructor'
PUBLIC	??0CCandleLine@@QAE@ABVCTextShowPosition@@ABVCCoordinate@@ABVCElementCommonEnvironment@@@Z ; CCandleLine::CCandleLine
PUBLIC	?GetElementType@CCandleLine@@UBE?AW4ElementType@CToolEnumData@@XZ ; CCandleLine::GetElementType
PUBLIC	?ElementModify@CCandleLine@@UAEXABVCElementModifyData@@@Z ; CCandleLine::ElementModify
PUBLIC	?ElementModify_YValue@CCandleLine@@UAEXABVCElementModifyData@@@Z ; CCandleLine::ElementModify_YValue
PUBLIC	?ElementModify_Coordinate@CCandleLine@@UAEXABVCCoordinate@@W4ModifyType@CToolEnumData@@@Z ; CCandleLine::ElementModify_Coordinate
PUBLIC	?GetTextPosition@CCandleLine@@MBEPBVCTextPosition@@XZ ; CCandleLine::GetTextPosition
PUBLIC	?GetTextPosition@CCandleLine@@MAEPAVCTextPosition@@XZ ; CCandleLine::GetTextPosition
PUBLIC	?GetOnePointDrawer@CCandleLine@@MAEAAVCOnePointDrawer@@XZ ; CCandleLine::GetOnePointDrawer
PUBLIC	?GetModifyType@CCandleLine@@MBE?AW4ModifyType@CToolEnumData@@ABVCDisplayData@@ABVCPoint@@1@Z ; CCandleLine::GetModifyType
PUBLIC	?PointInElementSelectableRegion@CCandleLine@@ABE_NABVCRect@@ABVCPoint@@1@Z ; CCandleLine::PointInElementSelectableRegion
PUBLIC	??_GCCandleLine@@UAEPAXI@Z			; CCandleLine::`scalar deleting destructor'
PUBLIC	??0CCandleBong@@QAE@ABVCCoordinate@@0ABVCElementCommonEnvironment@@@Z ; CCandleBong::CCandleBong
PUBLIC	?GetElementType@CCandleBong@@UBE?AW4ElementType@CToolEnumData@@XZ ; CCandleBong::GetElementType
PUBLIC	?GetTwoPointDrawer@CCandleBong@@MAEAAVCTwoPointDrawer@@XZ ; CCandleBong::GetTwoPointDrawer
PUBLIC	?ElementInRegion@CCandleBong@@MBE_NABVCRect@@ABVCPoint@@11@Z ; CCandleBong::ElementInRegion
PUBLIC	?GetModifyType@CCandleBong@@MBE?AW4ModifyType@CToolEnumData@@ABVCRect@@ABVCPoint@@11@Z ; CCandleBong::GetModifyType
PUBLIC	??_GCCandleBong@@UAEPAXI@Z			; CCandleBong::`scalar deleting destructor'
PUBLIC	??0CPencilLine@@QAE@ABHPBVCPoints@@ABVCElementCommonEnvironment@@@Z ; CPencilLine::CPencilLine
PUBLIC	??0CPencilLine@@QAE@ABV?$CDequeList@VCCoordinate@@@@ABVCElementCommonEnvironment@@@Z ; CPencilLine::CPencilLine
PUBLIC	?GetElementType@CPencilLine@@UBE?AW4ElementType@CToolEnumData@@XZ ; CPencilLine::GetElementType
PUBLIC	?GetMultiPointDrawer@CPencilLine@@MAEAAVCMultiPointDrawer@@XZ ; CPencilLine::GetMultiPointDrawer
PUBLIC	??_GCPencilLine@@UAEPAXI@Z			; CPencilLine::`scalar deleting destructor'
PUBLIC	??0CPeriodSumLine@@QAE@ABVCTextHorzPosition@@ABVCCoordinate@@1ABVCElementCommonEnvironment@@@Z ; CPeriodSumLine::CPeriodSumLine
PUBLIC	?GetElementType@CPeriodSumLine@@UBE?AW4ElementType@CToolEnumData@@XZ ; CPeriodSumLine::GetElementType
PUBLIC	?GetTextPosition@CPeriodSumLine@@MBEPBVCTextPosition@@XZ ; CPeriodSumLine::GetTextPosition
PUBLIC	?GetTextPosition@CPeriodSumLine@@MAEPAVCTextPosition@@XZ ; CPeriodSumLine::GetTextPosition
PUBLIC	?GetTwoPointDrawer@CPeriodSumLine@@MAEAAVCTwoPointDrawer@@XZ ; CPeriodSumLine::GetTwoPointDrawer
PUBLIC	?ElementInRegion@CPeriodSumLine@@MBE_NABVCRect@@ABVCPoint@@11@Z ; CPeriodSumLine::ElementInRegion
PUBLIC	?GetModifyType@CPeriodSumLine@@MBE?AW4ModifyType@CToolEnumData@@ABVCRect@@ABVCPoint@@11@Z ; CPeriodSumLine::GetModifyType
PUBLIC	??_GCPeriodSumLine@@UAEPAXI@Z			; CPeriodSumLine::`scalar deleting destructor'
PUBLIC	??0CElliotLine@@QAE@ABVCCoordinate@@0ABVCElementCommonEnvironment@@@Z ; CElliotLine::CElliotLine
PUBLIC	?GetElementType@CElliotLine@@UBE?AW4ElementType@CToolEnumData@@XZ ; CElliotLine::GetElementType
PUBLIC	?GetTwoPointDrawer@CElliotLine@@MAEAAVCTwoPointDrawer@@XZ ; CElliotLine::GetTwoPointDrawer
PUBLIC	?ElementInRegion@CElliotLine@@MBE_NABVCRect@@ABVCPoint@@11@Z ; CElliotLine::ElementInRegion
PUBLIC	?GetModifyType@CElliotLine@@MBE?AW4ModifyType@CToolEnumData@@ABVCRect@@ABVCPoint@@11@Z ; CElliotLine::GetModifyType
PUBLIC	??_GCElliotLine@@UAEPAXI@Z			; CElliotLine::`scalar deleting destructor'
PUBLIC	??0CAdjustRatio@@QAE@ABVCCoordinate@@00ABVCElementCommonEnvironment@@@Z ; CAdjustRatio::CAdjustRatio
PUBLIC	?GetElementType@CAdjustRatio@@UBE?AW4ElementType@CToolEnumData@@XZ ; CAdjustRatio::GetElementType
PUBLIC	?GetThreePointDrawer@CAdjustRatio@@MAEAAVCThreePointDrawer@@XZ ; CAdjustRatio::GetThreePointDrawer
PUBLIC	?ElementInRegion@CAdjustRatio@@MBE_NABVCRect@@ABVCPoint@@111@Z ; CAdjustRatio::ElementInRegion
PUBLIC	?GetModifyType@CAdjustRatio@@MBE?AW4ModifyType@CToolEnumData@@ABVCRect@@ABVCPoint@@111@Z ; CAdjustRatio::GetModifyType
PUBLIC	?PointInElementSelectableRegion@CAdjustRatio@@ABE_NABVCRect@@ABVCPoint@@111@Z ; CAdjustRatio::PointInElementSelectableRegion
PUBLIC	??_GCAdjustRatio@@UAEPAXI@Z			; CAdjustRatio::`scalar deleting destructor'
PUBLIC	??1COnePointDrawingData@@QAE@XZ			; COnePointDrawingData::~COnePointDrawingData
PUBLIC	?IsDrawing@CCrossLineDrawer@@$2PPPPPPPM@A@BE_NABVCRect@@ABVCPoint@@@Z ; CCrossLineDrawer::IsDrawing
PUBLIC	?DrawShape@CCrossLineDrawer@@$2PPPPPPPM@A@AEXPAVCDC@@ABVCOnePointDrawingData@@ABVCDisplayData@@ABVCPoint@@_N@Z ; CCrossLineDrawer::DrawShape
PUBLIC	?DrawTextA@CCrossLineDrawer@@$2PPPPPPPM@A@AEXPAVCDC@@ABVCOnePointDrawingData@@@Z ; CCrossLineDrawer::DrawTextA
PUBLIC	?GetGripRegion@CCrossLineDrawer@@$2PPPPPPPM@A@AE?AVCRect@@ABV2@ABVCPoint@@@Z ; CCrossLineDrawer::GetGripRegion
PUBLIC	??_7CTextPosition@@6B@				; CTextPosition::`vftable'
PUBLIC	??_7CTextHorzVertPosition@@6B@			; CTextHorzVertPosition::`vftable'
PUBLIC	??_7CElement@@6B@				; CElement::`vftable'
PUBLIC	??_7COnePointDrawer@@6B@			; COnePointDrawer::`vftable'
PUBLIC	??_7CTwoPointDrawer@@6B@			; CTwoPointDrawer::`vftable'
PUBLIC	??_7CThreePointDrawer@@6B@			; CThreePointDrawer::`vftable'
PUBLIC	??_7CMultiPointDrawer@@6B@			; CMultiPointDrawer::`vftable'
PUBLIC	??_7CCrossLineDrawer@@6B@			; CCrossLineDrawer::`vftable'
PUBLIC	??_8CCrossLineDrawer@@7BCVertLineDrawer@@@	; CCrossLineDrawer::`vbtable'
PUBLIC	??_8CCrossLineDrawer@@7BCHorzLineDrawer@@@	; CCrossLineDrawer::`vbtable'
PUBLIC	??_8CCrossLineDrawer@@7BCOnePointDrawer@@@	; CCrossLineDrawer::`vbtable'
PUBLIC	??_7CEqualDivisionLineDrawer@@6B@		; CEqualDivisionLineDrawer::`vftable'
PUBLIC	??_7CTrisectionLineDrawer@@6B@			; CTrisectionLineDrawer::`vftable'
PUBLIC	??_8CTrisectionLineDrawer@@7B@			; CTrisectionLineDrawer::`vbtable'
PUBLIC	??_7CQuadrisectLineDrawer@@6B@			; CQuadrisectLineDrawer::`vftable'
PUBLIC	??_8CQuadrisectLineDrawer@@7B@			; CQuadrisectLineDrawer::`vbtable'
PUBLIC	??_7CAndrewsPitchforkDrawer@@6B@		; CAndrewsPitchforkDrawer::`vftable'
PUBLIC	??_7CCycleLinesDrawer@@6B@			; CCycleLinesDrawer::`vftable'
PUBLIC	??_8CCycleLinesDrawer@@7B@			; CCycleLinesDrawer::`vbtable'
PUBLIC	??_7CSpeedLineDrawer@@6B@			; CSpeedLineDrawer::`vftable'
PUBLIC	??_8CSpeedLineDrawer@@7B@			; CSpeedLineDrawer::`vbtable'
PUBLIC	??_7CSpeedFanDrawer@@6B@			; CSpeedFanDrawer::`vftable'
PUBLIC	??_8CSpeedFanDrawer@@7B@			; CSpeedFanDrawer::`vbtable'
PUBLIC	??_7CSpeedArcDrawer@@6B@			; CSpeedArcDrawer::`vftable'
PUBLIC	??_8CSpeedArcDrawer@@7B@			; CSpeedArcDrawer::`vbtable'
PUBLIC	??_7CLinearRegressionDrawer@@6B@		; CLinearRegressionDrawer::`vftable'
PUBLIC	??_8CLinearRegressionDrawer@@7B@		; CLinearRegressionDrawer::`vbtable'
PUBLIC	??_7CCandleBongDrawer@@6B@			; CCandleBongDrawer::`vftable'
PUBLIC	??_8CCandleBongDrawer@@7B@			; CCandleBongDrawer::`vbtable'
PUBLIC	??_7CPencilLineDrawer@@6B@			; CPencilLineDrawer::`vftable'
PUBLIC	??_7CPeriodSumLineDrawer@@6B@			; CPeriodSumLineDrawer::`vftable'
PUBLIC	??_8CPeriodSumLineDrawer@@7B@			; CPeriodSumLineDrawer::`vbtable'
PUBLIC	??_7CElliotLineDrawer@@6B@			; CElliotLineDrawer::`vftable'
PUBLIC	??_8CElliotLineDrawer@@7B@			; CElliotLineDrawer::`vbtable'
PUBLIC	??_7CAdjustRatioDrawer@@6B@			; CAdjustRatioDrawer::`vftable'
PUBLIC	??_7CLine@@6B@					; CLine::`vftable'
PUBLIC	??_7CVertLine@@6B@				; CVertLine::`vftable'
PUBLIC	??_7CHorzLine@@6B@				; CHorzLine::`vftable'
PUBLIC	??_7CCrossLine@@6B@				; CCrossLine::`vftable'
PUBLIC	??_7CEqualDivisionLine@@6B@			; CEqualDivisionLine::`vftable'
PUBLIC	??_7CTrisectionLine@@6B@			; CTrisectionLine::`vftable'
PUBLIC	??_7CQuadrisectLine@@6B@			; CQuadrisectLine::`vftable'
PUBLIC	??_7CAndrewsPitchfork@@6B@			; CAndrewsPitchfork::`vftable'
PUBLIC	??_7CCycleLines@@6B@				; CCycleLines::`vftable'
PUBLIC	??_7CSpeedLine@@6B@				; CSpeedLine::`vftable'
PUBLIC	??_7CSpeedFan@@6B@				; CSpeedFan::`vftable'
PUBLIC	??_7CSpeedArc@@6B@				; CSpeedArc::`vftable'
PUBLIC	??_7CLinearRegression@@6B@			; CLinearRegression::`vftable'
PUBLIC	??_7CRaffRegression@@6B@			; CRaffRegression::`vftable'
PUBLIC	??_7CAngleLine@@6B@				; CAngleLine::`vftable'
PUBLIC	??_7CCandleLine@@6B@				; CCandleLine::`vftable'
PUBLIC	??_7CCandleBong@@6B@				; CCandleBong::`vftable'
PUBLIC	??_7CPencilLine@@6B@				; CPencilLine::`vftable'
PUBLIC	??_7CPeriodSumLine@@6B@				; CPeriodSumLine::`vftable'
PUBLIC	??_7CElliotLine@@6B@				; CElliotLine::`vftable'
PUBLIC	??_7CAdjustRatio@@6B@				; CAdjustRatio::`vftable'
PUBLIC	??_R4CTextPosition@@6B@				; CTextPosition::`RTTI Complete Object Locator'
PUBLIC	??_R0?AVCTextPosition@@@8			; CTextPosition `RTTI Type Descriptor'
PUBLIC	??_R3CTextPosition@@8				; CTextPosition::`RTTI Class Hierarchy Descriptor'
PUBLIC	??_R2CTextPosition@@8				; CTextPosition::`RTTI Base Class Array'
PUBLIC	??_R1A@?0A@EA@CTextPosition@@8			; CTextPosition::`RTTI Base Class Descriptor at (0,-1,0,64)'
PUBLIC	??_R4CTextHorzVertPosition@@6B@			; CTextHorzVertPosition::`RTTI Complete Object Locator'
PUBLIC	??_R0?AVCTextHorzVertPosition@@@8		; CTextHorzVertPosition `RTTI Type Descriptor'
PUBLIC	??_R3CTextHorzVertPosition@@8			; CTextHorzVertPosition::`RTTI Class Hierarchy Descriptor'
PUBLIC	??_R2CTextHorzVertPosition@@8			; CTextHorzVertPosition::`RTTI Base Class Array'
PUBLIC	??_R1A@?0A@EA@CTextHorzVertPosition@@8		; CTextHorzVertPosition::`RTTI Base Class Descriptor at (0,-1,0,64)'
PUBLIC	??_R4CElement@@6B@				; CElement::`RTTI Complete Object Locator'
PUBLIC	??_R0?AVCElement@@@8				; CElement `RTTI Type Descriptor'
PUBLIC	??_R3CElement@@8				; CElement::`RTTI Class Hierarchy Descriptor'
PUBLIC	??_R2CElement@@8				; CElement::`RTTI Base Class Array'
PUBLIC	??_R1A@?0A@EA@CElement@@8			; CElement::`RTTI Base Class Descriptor at (0,-1,0,64)'
PUBLIC	??_R4COnePointDrawer@@6B@			; COnePointDrawer::`RTTI Complete Object Locator'
PUBLIC	??_R0?AVCOnePointDrawer@@@8			; COnePointDrawer `RTTI Type Descriptor'
PUBLIC	??_R3COnePointDrawer@@8				; COnePointDrawer::`RTTI Class Hierarchy Descriptor'
PUBLIC	??_R2COnePointDrawer@@8				; COnePointDrawer::`RTTI Base Class Array'
PUBLIC	??_R1A@?0A@EA@COnePointDrawer@@8		; COnePointDrawer::`RTTI Base Class Descriptor at (0,-1,0,64)'
PUBLIC	??_R1A@33FA@CDrawer@@8				; CDrawer::`RTTI Base Class Descriptor at (0,4,4,80)'
PUBLIC	??_R0?AVCDrawer@@@8				; CDrawer `RTTI Type Descriptor'
PUBLIC	??_R3CDrawer@@8					; CDrawer::`RTTI Class Hierarchy Descriptor'
PUBLIC	??_R2CDrawer@@8					; CDrawer::`RTTI Base Class Array'
PUBLIC	??_R1A@?0A@EA@CDrawer@@8			; CDrawer::`RTTI Base Class Descriptor at (0,-1,0,64)'
PUBLIC	??_R4CTwoPointDrawer@@6B@			; CTwoPointDrawer::`RTTI Complete Object Locator'
PUBLIC	??_R0?AVCTwoPointDrawer@@@8			; CTwoPointDrawer `RTTI Type Descriptor'
PUBLIC	??_R3CTwoPointDrawer@@8				; CTwoPointDrawer::`RTTI Class Hierarchy Descriptor'
PUBLIC	??_R2CTwoPointDrawer@@8				; CTwoPointDrawer::`RTTI Base Class Array'
PUBLIC	??_R1A@?0A@EA@CTwoPointDrawer@@8		; CTwoPointDrawer::`RTTI Base Class Descriptor at (0,-1,0,64)'
PUBLIC	??_R4CThreePointDrawer@@6B@			; CThreePointDrawer::`RTTI Complete Object Locator'
PUBLIC	??_R0?AVCThreePointDrawer@@@8			; CThreePointDrawer `RTTI Type Descriptor'
PUBLIC	??_R3CThreePointDrawer@@8			; CThreePointDrawer::`RTTI Class Hierarchy Descriptor'
PUBLIC	??_R2CThreePointDrawer@@8			; CThreePointDrawer::`RTTI Base Class Array'
PUBLIC	??_R1A@?0A@EA@CThreePointDrawer@@8		; CThreePointDrawer::`RTTI Base Class Descriptor at (0,-1,0,64)'
PUBLIC	??_R13?0A@EA@CDrawer@@8				; CDrawer::`RTTI Base Class Descriptor at (4,-1,0,64)'
PUBLIC	??_R4CMultiPointDrawer@@6B@			; CMultiPointDrawer::`RTTI Complete Object Locator'
PUBLIC	??_R0?AVCMultiPointDrawer@@@8			; CMultiPointDrawer `RTTI Type Descriptor'
PUBLIC	??_R3CMultiPointDrawer@@8			; CMultiPointDrawer::`RTTI Class Hierarchy Descriptor'
PUBLIC	??_R2CMultiPointDrawer@@8			; CMultiPointDrawer::`RTTI Base Class Array'
PUBLIC	??_R1A@?0A@EA@CMultiPointDrawer@@8		; CMultiPointDrawer::`RTTI Base Class Descriptor at (0,-1,0,64)'
PUBLIC	??_R4CCrossLineDrawer@@6B@			; CCrossLineDrawer::`RTTI Complete Object Locator'
PUBLIC	??_R0?AVCCrossLineDrawer@@@8			; CCrossLineDrawer `RTTI Type Descriptor'
PUBLIC	??_R3CCrossLineDrawer@@8			; CCrossLineDrawer::`RTTI Class Hierarchy Descriptor'
PUBLIC	??_R2CCrossLineDrawer@@8			; CCrossLineDrawer::`RTTI Base Class Array'
PUBLIC	??_R1A@?0A@EA@CCrossLineDrawer@@8		; CCrossLineDrawer::`RTTI Base Class Descriptor at (0,-1,0,64)'
PUBLIC	??_R1A@?0A@EA@CVertLineDrawer@@8		; CVertLineDrawer::`RTTI Base Class Descriptor at (0,-1,0,64)'
PUBLIC	??_R0?AVCVertLineDrawer@@@8			; CVertLineDrawer `RTTI Type Descriptor'
PUBLIC	??_R3CVertLineDrawer@@8				; CVertLineDrawer::`RTTI Class Hierarchy Descriptor'
PUBLIC	??_R2CVertLineDrawer@@8				; CVertLineDrawer::`RTTI Base Class Array'
PUBLIC	??_R1A@A@7FA@COnePointDrawer@@8			; COnePointDrawer::`RTTI Base Class Descriptor at (0,0,8,80)'
PUBLIC	??_R1A@A@3FA@CDrawer@@8				; CDrawer::`RTTI Base Class Descriptor at (0,0,4,80)'
PUBLIC	??_R1M@?0A@EN@CHorzLineDrawer@@8		; CHorzLineDrawer::`RTTI Base Class Descriptor at (12,-1,0,77)'
PUBLIC	??_R0?AVCHorzLineDrawer@@@8			; CHorzLineDrawer `RTTI Type Descriptor'
PUBLIC	??_R3CHorzLineDrawer@@8				; CHorzLineDrawer::`RTTI Class Hierarchy Descriptor'
PUBLIC	??_R2CHorzLineDrawer@@8				; CHorzLineDrawer::`RTTI Base Class Array'
PUBLIC	??_R1A@?0A@EA@CHorzLineDrawer@@8		; CHorzLineDrawer::`RTTI Base Class Descriptor at (0,-1,0,64)'
PUBLIC	??_R4CEqualDivisionLineDrawer@@6B@		; CEqualDivisionLineDrawer::`RTTI Complete Object Locator'
PUBLIC	??_R0?AVCEqualDivisionLineDrawer@@@8		; CEqualDivisionLineDrawer `RTTI Type Descriptor'
PUBLIC	??_R3CEqualDivisionLineDrawer@@8		; CEqualDivisionLineDrawer::`RTTI Class Hierarchy Descriptor'
PUBLIC	??_R2CEqualDivisionLineDrawer@@8		; CEqualDivisionLineDrawer::`RTTI Base Class Array'
PUBLIC	??_R1A@?0A@EA@CEqualDivisionLineDrawer@@8	; CEqualDivisionLineDrawer::`RTTI Base Class Descriptor at (0,-1,0,64)'
PUBLIC	??_R4CTrisectionLineDrawer@@6B@			; CTrisectionLineDrawer::`RTTI Complete Object Locator'
PUBLIC	??_R0?AVCTrisectionLineDrawer@@@8		; CTrisectionLineDrawer `RTTI Type Descriptor'
PUBLIC	??_R3CTrisectionLineDrawer@@8			; CTrisectionLineDrawer::`RTTI Class Hierarchy Descriptor'
PUBLIC	??_R2CTrisectionLineDrawer@@8			; CTrisectionLineDrawer::`RTTI Base Class Array'
PUBLIC	??_R1A@?0A@EA@CTrisectionLineDrawer@@8		; CTrisectionLineDrawer::`RTTI Base Class Descriptor at (0,-1,0,64)'
PUBLIC	??_R4CQuadrisectLineDrawer@@6B@			; CQuadrisectLineDrawer::`RTTI Complete Object Locator'
PUBLIC	??_R0?AVCQuadrisectLineDrawer@@@8		; CQuadrisectLineDrawer `RTTI Type Descriptor'
PUBLIC	??_R3CQuadrisectLineDrawer@@8			; CQuadrisectLineDrawer::`RTTI Class Hierarchy Descriptor'
PUBLIC	??_R2CQuadrisectLineDrawer@@8			; CQuadrisectLineDrawer::`RTTI Base Class Array'
PUBLIC	??_R1A@?0A@EA@CQuadrisectLineDrawer@@8		; CQuadrisectLineDrawer::`RTTI Base Class Descriptor at (0,-1,0,64)'
PUBLIC	??_R4CAndrewsPitchforkDrawer@@6B@		; CAndrewsPitchforkDrawer::`RTTI Complete Object Locator'
PUBLIC	??_R0?AVCAndrewsPitchforkDrawer@@@8		; CAndrewsPitchforkDrawer `RTTI Type Descriptor'
PUBLIC	??_R3CAndrewsPitchforkDrawer@@8			; CAndrewsPitchforkDrawer::`RTTI Class Hierarchy Descriptor'
PUBLIC	??_R2CAndrewsPitchforkDrawer@@8			; CAndrewsPitchforkDrawer::`RTTI Base Class Array'
PUBLIC	??_R1A@?0A@EA@CAndrewsPitchforkDrawer@@8	; CAndrewsPitchforkDrawer::`RTTI Base Class Descriptor at (0,-1,0,64)'
PUBLIC	??_R4CCycleLinesDrawer@@6B@			; CCycleLinesDrawer::`RTTI Complete Object Locator'
PUBLIC	??_R0?AVCCycleLinesDrawer@@@8			; CCycleLinesDrawer `RTTI Type Descriptor'
PUBLIC	??_R3CCycleLinesDrawer@@8			; CCycleLinesDrawer::`RTTI Class Hierarchy Descriptor'
PUBLIC	??_R2CCycleLinesDrawer@@8			; CCycleLinesDrawer::`RTTI Base Class Array'
PUBLIC	??_R1A@?0A@EA@CCycleLinesDrawer@@8		; CCycleLinesDrawer::`RTTI Base Class Descriptor at (0,-1,0,64)'
PUBLIC	??_R4CSpeedLineDrawer@@6B@			; CSpeedLineDrawer::`RTTI Complete Object Locator'
PUBLIC	??_R0?AVCSpeedLineDrawer@@@8			; CSpeedLineDrawer `RTTI Type Descriptor'
PUBLIC	??_R3CSpeedLineDrawer@@8			; CSpeedLineDrawer::`RTTI Class Hierarchy Descriptor'
PUBLIC	??_R2CSpeedLineDrawer@@8			; CSpeedLineDrawer::`RTTI Base Class Array'
PUBLIC	??_R1A@?0A@EA@CSpeedLineDrawer@@8		; CSpeedLineDrawer::`RTTI Base Class Descriptor at (0,-1,0,64)'
PUBLIC	??_R4CSpeedFanDrawer@@6B@			; CSpeedFanDrawer::`RTTI Complete Object Locator'
PUBLIC	??_R0?AVCSpeedFanDrawer@@@8			; CSpeedFanDrawer `RTTI Type Descriptor'
PUBLIC	??_R3CSpeedFanDrawer@@8				; CSpeedFanDrawer::`RTTI Class Hierarchy Descriptor'
PUBLIC	??_R2CSpeedFanDrawer@@8				; CSpeedFanDrawer::`RTTI Base Class Array'
PUBLIC	??_R1A@?0A@EA@CSpeedFanDrawer@@8		; CSpeedFanDrawer::`RTTI Base Class Descriptor at (0,-1,0,64)'
PUBLIC	??_R4CSpeedArcDrawer@@6B@			; CSpeedArcDrawer::`RTTI Complete Object Locator'
PUBLIC	??_R0?AVCSpeedArcDrawer@@@8			; CSpeedArcDrawer `RTTI Type Descriptor'
PUBLIC	??_R3CSpeedArcDrawer@@8				; CSpeedArcDrawer::`RTTI Class Hierarchy Descriptor'
PUBLIC	??_R2CSpeedArcDrawer@@8				; CSpeedArcDrawer::`RTTI Base Class Array'
PUBLIC	??_R1A@?0A@EA@CSpeedArcDrawer@@8		; CSpeedArcDrawer::`RTTI Base Class Descriptor at (0,-1,0,64)'
PUBLIC	??_R4CLinearRegressionDrawer@@6B@		; CLinearRegressionDrawer::`RTTI Complete Object Locator'
PUBLIC	??_R0?AVCLinearRegressionDrawer@@@8		; CLinearRegressionDrawer `RTTI Type Descriptor'
PUBLIC	??_R3CLinearRegressionDrawer@@8			; CLinearRegressionDrawer::`RTTI Class Hierarchy Descriptor'
PUBLIC	??_R2CLinearRegressionDrawer@@8			; CLinearRegressionDrawer::`RTTI Base Class Array'
PUBLIC	??_R1A@?0A@EA@CLinearRegressionDrawer@@8	; CLinearRegressionDrawer::`RTTI Base Class Descriptor at (0,-1,0,64)'
PUBLIC	??_R4CCandleBongDrawer@@6B@			; CCandleBongDrawer::`RTTI Complete Object Locator'
PUBLIC	??_R0?AVCCandleBongDrawer@@@8			; CCandleBongDrawer `RTTI Type Descriptor'
PUBLIC	??_R3CCandleBongDrawer@@8			; CCandleBongDrawer::`RTTI Class Hierarchy Descriptor'
PUBLIC	??_R2CCandleBongDrawer@@8			; CCandleBongDrawer::`RTTI Base Class Array'
PUBLIC	??_R1A@?0A@EA@CCandleBongDrawer@@8		; CCandleBongDrawer::`RTTI Base Class Descriptor at (0,-1,0,64)'
PUBLIC	??_R4CPencilLineDrawer@@6B@			; CPencilLineDrawer::`RTTI Complete Object Locator'
PUBLIC	??_R0?AVCPencilLineDrawer@@@8			; CPencilLineDrawer `RTTI Type Descriptor'
PUBLIC	??_R3CPencilLineDrawer@@8			; CPencilLineDrawer::`RTTI Class Hierarchy Descriptor'
PUBLIC	??_R2CPencilLineDrawer@@8			; CPencilLineDrawer::`RTTI Base Class Array'
PUBLIC	??_R1A@?0A@EA@CPencilLineDrawer@@8		; CPencilLineDrawer::`RTTI Base Class Descriptor at (0,-1,0,64)'
PUBLIC	??_R4CPeriodSumLineDrawer@@6B@			; CPeriodSumLineDrawer::`RTTI Complete Object Locator'
PUBLIC	??_R0?AVCPeriodSumLineDrawer@@@8		; CPeriodSumLineDrawer `RTTI Type Descriptor'
PUBLIC	??_R3CPeriodSumLineDrawer@@8			; CPeriodSumLineDrawer::`RTTI Class Hierarchy Descriptor'
PUBLIC	??_R2CPeriodSumLineDrawer@@8			; CPeriodSumLineDrawer::`RTTI Base Class Array'
PUBLIC	??_R1A@?0A@EA@CPeriodSumLineDrawer@@8		; CPeriodSumLineDrawer::`RTTI Base Class Descriptor at (0,-1,0,64)'
PUBLIC	??_R4CElliotLineDrawer@@6B@			; CElliotLineDrawer::`RTTI Complete Object Locator'
PUBLIC	??_R0?AVCElliotLineDrawer@@@8			; CElliotLineDrawer `RTTI Type Descriptor'
PUBLIC	??_R3CElliotLineDrawer@@8			; CElliotLineDrawer::`RTTI Class Hierarchy Descriptor'
PUBLIC	??_R2CElliotLineDrawer@@8			; CElliotLineDrawer::`RTTI Base Class Array'
PUBLIC	??_R1A@?0A@EA@CElliotLineDrawer@@8		; CElliotLineDrawer::`RTTI Base Class Descriptor at (0,-1,0,64)'
PUBLIC	??_R4CAdjustRatioDrawer@@6B@			; CAdjustRatioDrawer::`RTTI Complete Object Locator'
PUBLIC	??_R0?AVCAdjustRatioDrawer@@@8			; CAdjustRatioDrawer `RTTI Type Descriptor'
PUBLIC	??_R3CAdjustRatioDrawer@@8			; CAdjustRatioDrawer::`RTTI Class Hierarchy Descriptor'
PUBLIC	??_R2CAdjustRatioDrawer@@8			; CAdjustRatioDrawer::`RTTI Base Class Array'
PUBLIC	??_R1A@?0A@EA@CAdjustRatioDrawer@@8		; CAdjustRatioDrawer::`RTTI Base Class Descriptor at (0,-1,0,64)'
PUBLIC	??_R4CLine@@6B@					; CLine::`RTTI Complete Object Locator'
PUBLIC	??_R0?AVCLine@@@8				; CLine `RTTI Type Descriptor'
PUBLIC	??_R3CLine@@8					; CLine::`RTTI Class Hierarchy Descriptor'
PUBLIC	??_R2CLine@@8					; CLine::`RTTI Base Class Array'
PUBLIC	??_R1A@?0A@EA@CLine@@8				; CLine::`RTTI Base Class Descriptor at (0,-1,0,64)'
PUBLIC	??_R1A@?0A@EA@CTwoPointElement@@8		; CTwoPointElement::`RTTI Base Class Descriptor at (0,-1,0,64)'
PUBLIC	??_R0?AVCTwoPointElement@@@8			; CTwoPointElement `RTTI Type Descriptor'
PUBLIC	??_R3CTwoPointElement@@8			; CTwoPointElement::`RTTI Class Hierarchy Descriptor'
PUBLIC	??_R2CTwoPointElement@@8			; CTwoPointElement::`RTTI Base Class Array'
PUBLIC	??_R4CVertLine@@6B@				; CVertLine::`RTTI Complete Object Locator'
PUBLIC	??_R0?AVCVertLine@@@8				; CVertLine `RTTI Type Descriptor'
PUBLIC	??_R3CVertLine@@8				; CVertLine::`RTTI Class Hierarchy Descriptor'
PUBLIC	??_R2CVertLine@@8				; CVertLine::`RTTI Base Class Array'
PUBLIC	??_R1A@?0A@EA@CVertLine@@8			; CVertLine::`RTTI Base Class Descriptor at (0,-1,0,64)'
PUBLIC	??_R1A@?0A@EA@CVertElement@@8			; CVertElement::`RTTI Base Class Descriptor at (0,-1,0,64)'
PUBLIC	??_R0?AVCVertElement@@@8			; CVertElement `RTTI Type Descriptor'
PUBLIC	??_R3CVertElement@@8				; CVertElement::`RTTI Class Hierarchy Descriptor'
PUBLIC	??_R2CVertElement@@8				; CVertElement::`RTTI Base Class Array'
PUBLIC	??_R1A@?0A@EA@COnePointElement@@8		; COnePointElement::`RTTI Base Class Descriptor at (0,-1,0,64)'
PUBLIC	??_R0?AVCOnePointElement@@@8			; COnePointElement `RTTI Type Descriptor'
PUBLIC	??_R3COnePointElement@@8			; COnePointElement::`RTTI Class Hierarchy Descriptor'
PUBLIC	??_R2COnePointElement@@8			; COnePointElement::`RTTI Base Class Array'
PUBLIC	??_R4CHorzLine@@6B@				; CHorzLine::`RTTI Complete Object Locator'
PUBLIC	??_R0?AVCHorzLine@@@8				; CHorzLine `RTTI Type Descriptor'
PUBLIC	??_R3CHorzLine@@8				; CHorzLine::`RTTI Class Hierarchy Descriptor'
PUBLIC	??_R2CHorzLine@@8				; CHorzLine::`RTTI Base Class Array'
PUBLIC	??_R1A@?0A@EA@CHorzLine@@8			; CHorzLine::`RTTI Base Class Descriptor at (0,-1,0,64)'
PUBLIC	??_R4CCrossLine@@6B@				; CCrossLine::`RTTI Complete Object Locator'
PUBLIC	??_R0?AVCCrossLine@@@8				; CCrossLine `RTTI Type Descriptor'
PUBLIC	??_R3CCrossLine@@8				; CCrossLine::`RTTI Class Hierarchy Descriptor'
PUBLIC	??_R2CCrossLine@@8				; CCrossLine::`RTTI Base Class Array'
PUBLIC	??_R1A@?0A@EA@CCrossLine@@8			; CCrossLine::`RTTI Base Class Descriptor at (0,-1,0,64)'
PUBLIC	??_R4CEqualDivisionLine@@6B@			; CEqualDivisionLine::`RTTI Complete Object Locator'
PUBLIC	??_R0?AVCEqualDivisionLine@@@8			; CEqualDivisionLine `RTTI Type Descriptor'
PUBLIC	??_R3CEqualDivisionLine@@8			; CEqualDivisionLine::`RTTI Class Hierarchy Descriptor'
PUBLIC	??_R2CEqualDivisionLine@@8			; CEqualDivisionLine::`RTTI Base Class Array'
PUBLIC	??_R1A@?0A@EA@CEqualDivisionLine@@8		; CEqualDivisionLine::`RTTI Base Class Descriptor at (0,-1,0,64)'
PUBLIC	??_R4CTrisectionLine@@6B@			; CTrisectionLine::`RTTI Complete Object Locator'
PUBLIC	??_R0?AVCTrisectionLine@@@8			; CTrisectionLine `RTTI Type Descriptor'
PUBLIC	??_R3CTrisectionLine@@8				; CTrisectionLine::`RTTI Class Hierarchy Descriptor'
PUBLIC	??_R2CTrisectionLine@@8				; CTrisectionLine::`RTTI Base Class Array'
PUBLIC	??_R1A@?0A@EA@CTrisectionLine@@8		; CTrisectionLine::`RTTI Base Class Descriptor at (0,-1,0,64)'
PUBLIC	??_R4CQuadrisectLine@@6B@			; CQuadrisectLine::`RTTI Complete Object Locator'
PUBLIC	??_R0?AVCQuadrisectLine@@@8			; CQuadrisectLine `RTTI Type Descriptor'
PUBLIC	??_R3CQuadrisectLine@@8				; CQuadrisectLine::`RTTI Class Hierarchy Descriptor'
PUBLIC	??_R2CQuadrisectLine@@8				; CQuadrisectLine::`RTTI Base Class Array'
PUBLIC	??_R1A@?0A@EA@CQuadrisectLine@@8		; CQuadrisectLine::`RTTI Base Class Descriptor at (0,-1,0,64)'
PUBLIC	??_R4CAndrewsPitchfork@@6B@			; CAndrewsPitchfork::`RTTI Complete Object Locator'
PUBLIC	??_R0?AVCAndrewsPitchfork@@@8			; CAndrewsPitchfork `RTTI Type Descriptor'
PUBLIC	??_R3CAndrewsPitchfork@@8			; CAndrewsPitchfork::`RTTI Class Hierarchy Descriptor'
PUBLIC	??_R2CAndrewsPitchfork@@8			; CAndrewsPitchfork::`RTTI Base Class Array'
PUBLIC	??_R1A@?0A@EA@CAndrewsPitchfork@@8		; CAndrewsPitchfork::`RTTI Base Class Descriptor at (0,-1,0,64)'
PUBLIC	??_R1A@?0A@EA@CThreePointElement@@8		; CThreePointElement::`RTTI Base Class Descriptor at (0,-1,0,64)'
PUBLIC	??_R0?AVCThreePointElement@@@8			; CThreePointElement `RTTI Type Descriptor'
PUBLIC	??_R3CThreePointElement@@8			; CThreePointElement::`RTTI Class Hierarchy Descriptor'
PUBLIC	??_R2CThreePointElement@@8			; CThreePointElement::`RTTI Base Class Array'
PUBLIC	??_R4CCycleLines@@6B@				; CCycleLines::`RTTI Complete Object Locator'
PUBLIC	??_R0?AVCCycleLines@@@8				; CCycleLines `RTTI Type Descriptor'
PUBLIC	??_R3CCycleLines@@8				; CCycleLines::`RTTI Class Hierarchy Descriptor'
PUBLIC	??_R2CCycleLines@@8				; CCycleLines::`RTTI Base Class Array'
PUBLIC	??_R1A@?0A@EA@CCycleLines@@8			; CCycleLines::`RTTI Base Class Descriptor at (0,-1,0,64)'
PUBLIC	??_R4CSpeedLine@@6B@				; CSpeedLine::`RTTI Complete Object Locator'
PUBLIC	??_R0?AVCSpeedLine@@@8				; CSpeedLine `RTTI Type Descriptor'
PUBLIC	??_R3CSpeedLine@@8				; CSpeedLine::`RTTI Class Hierarchy Descriptor'
PUBLIC	??_R2CSpeedLine@@8				; CSpeedLine::`RTTI Base Class Array'
PUBLIC	??_R1A@?0A@EA@CSpeedLine@@8			; CSpeedLine::`RTTI Base Class Descriptor at (0,-1,0,64)'
PUBLIC	??_R4CSpeedFan@@6B@				; CSpeedFan::`RTTI Complete Object Locator'
PUBLIC	??_R0?AVCSpeedFan@@@8				; CSpeedFan `RTTI Type Descriptor'
PUBLIC	??_R3CSpeedFan@@8				; CSpeedFan::`RTTI Class Hierarchy Descriptor'
PUBLIC	??_R2CSpeedFan@@8				; CSpeedFan::`RTTI Base Class Array'
PUBLIC	??_R1A@?0A@EA@CSpeedFan@@8			; CSpeedFan::`RTTI Base Class Descriptor at (0,-1,0,64)'
PUBLIC	??_R4CSpeedArc@@6B@				; CSpeedArc::`RTTI Complete Object Locator'
PUBLIC	??_R0?AVCSpeedArc@@@8				; CSpeedArc `RTTI Type Descriptor'
PUBLIC	??_R3CSpeedArc@@8				; CSpeedArc::`RTTI Class Hierarchy Descriptor'
PUBLIC	??_R2CSpeedArc@@8				; CSpeedArc::`RTTI Base Class Array'
PUBLIC	??_R1A@?0A@EA@CSpeedArc@@8			; CSpeedArc::`RTTI Base Class Descriptor at (0,-1,0,64)'
PUBLIC	??_R4CLinearRegression@@6B@			; CLinearRegression::`RTTI Complete Object Locator'
PUBLIC	??_R0?AVCLinearRegression@@@8			; CLinearRegression `RTTI Type Descriptor'
PUBLIC	??_R3CLinearRegression@@8			; CLinearRegression::`RTTI Class Hierarchy Descriptor'
PUBLIC	??_R2CLinearRegression@@8			; CLinearRegression::`RTTI Base Class Array'
PUBLIC	??_R1A@?0A@EA@CLinearRegression@@8		; CLinearRegression::`RTTI Base Class Descriptor at (0,-1,0,64)'
PUBLIC	??_R4CRaffRegression@@6B@			; CRaffRegression::`RTTI Complete Object Locator'
PUBLIC	??_R0?AVCRaffRegression@@@8			; CRaffRegression `RTTI Type Descriptor'
PUBLIC	??_R3CRaffRegression@@8				; CRaffRegression::`RTTI Class Hierarchy Descriptor'
PUBLIC	??_R2CRaffRegression@@8				; CRaffRegression::`RTTI Base Class Array'
PUBLIC	??_R1A@?0A@EA@CRaffRegression@@8		; CRaffRegression::`RTTI Base Class Descriptor at (0,-1,0,64)'
PUBLIC	??_R4CAngleLine@@6B@				; CAngleLine::`RTTI Complete Object Locator'
PUBLIC	??_R0?AVCAngleLine@@@8				; CAngleLine `RTTI Type Descriptor'
PUBLIC	??_R3CAngleLine@@8				; CAngleLine::`RTTI Class Hierarchy Descriptor'
PUBLIC	??_R2CAngleLine@@8				; CAngleLine::`RTTI Base Class Array'
PUBLIC	??_R1A@?0A@EA@CAngleLine@@8			; CAngleLine::`RTTI Base Class Descriptor at (0,-1,0,64)'
PUBLIC	??_R4CCandleLine@@6B@				; CCandleLine::`RTTI Complete Object Locator'
PUBLIC	??_R0?AVCCandleLine@@@8				; CCandleLine `RTTI Type Descriptor'
PUBLIC	??_R3CCandleLine@@8				; CCandleLine::`RTTI Class Hierarchy Descriptor'
PUBLIC	??_R2CCandleLine@@8				; CCandleLine::`RTTI Base Class Array'
PUBLIC	??_R1A@?0A@EA@CCandleLine@@8			; CCandleLine::`RTTI Base Class Descriptor at (0,-1,0,64)'
PUBLIC	??_R4CCandleBong@@6B@				; CCandleBong::`RTTI Complete Object Locator'
PUBLIC	??_R0?AVCCandleBong@@@8				; CCandleBong `RTTI Type Descriptor'
PUBLIC	??_R3CCandleBong@@8				; CCandleBong::`RTTI Class Hierarchy Descriptor'
PUBLIC	??_R2CCandleBong@@8				; CCandleBong::`RTTI Base Class Array'
PUBLIC	??_R1A@?0A@EA@CCandleBong@@8			; CCandleBong::`RTTI Base Class Descriptor at (0,-1,0,64)'
PUBLIC	??_R4CPencilLine@@6B@				; CPencilLine::`RTTI Complete Object Locator'
PUBLIC	??_R0?AVCPencilLine@@@8				; CPencilLine `RTTI Type Descriptor'
PUBLIC	??_R3CPencilLine@@8				; CPencilLine::`RTTI Class Hierarchy Descriptor'
PUBLIC	??_R2CPencilLine@@8				; CPencilLine::`RTTI Base Class Array'
PUBLIC	??_R1A@?0A@EA@CPencilLine@@8			; CPencilLine::`RTTI Base Class Descriptor at (0,-1,0,64)'
PUBLIC	??_R1A@?0A@EA@CMultiPointElement@@8		; CMultiPointElement::`RTTI Base Class Descriptor at (0,-1,0,64)'
PUBLIC	??_R0?AVCMultiPointElement@@@8			; CMultiPointElement `RTTI Type Descriptor'
PUBLIC	??_R3CMultiPointElement@@8			; CMultiPointElement::`RTTI Class Hierarchy Descriptor'
PUBLIC	??_R2CMultiPointElement@@8			; CMultiPointElement::`RTTI Base Class Array'
PUBLIC	??_R4CPeriodSumLine@@6B@			; CPeriodSumLine::`RTTI Complete Object Locator'
PUBLIC	??_R0?AVCPeriodSumLine@@@8			; CPeriodSumLine `RTTI Type Descriptor'
PUBLIC	??_R3CPeriodSumLine@@8				; CPeriodSumLine::`RTTI Class Hierarchy Descriptor'
PUBLIC	??_R2CPeriodSumLine@@8				; CPeriodSumLine::`RTTI Base Class Array'
PUBLIC	??_R1A@?0A@EA@CPeriodSumLine@@8			; CPeriodSumLine::`RTTI Base Class Descriptor at (0,-1,0,64)'
PUBLIC	??_R4CElliotLine@@6B@				; CElliotLine::`RTTI Complete Object Locator'
PUBLIC	??_R0?AVCElliotLine@@@8				; CElliotLine `RTTI Type Descriptor'
PUBLIC	??_R3CElliotLine@@8				; CElliotLine::`RTTI Class Hierarchy Descriptor'
PUBLIC	??_R2CElliotLine@@8				; CElliotLine::`RTTI Base Class Array'
PUBLIC	??_R1A@?0A@EA@CElliotLine@@8			; CElliotLine::`RTTI Base Class Descriptor at (0,-1,0,64)'
PUBLIC	??_R4CAdjustRatio@@6B@				; CAdjustRatio::`RTTI Complete Object Locator'
PUBLIC	??_R0?AVCAdjustRatio@@@8			; CAdjustRatio `RTTI Type Descriptor'
PUBLIC	??_R3CAdjustRatio@@8				; CAdjustRatio::`RTTI Class Hierarchy Descriptor'
PUBLIC	??_R2CAdjustRatio@@8				; CAdjustRatio::`RTTI Base Class Array'
PUBLIC	??_R1A@?0A@EA@CAdjustRatio@@8			; CAdjustRatio::`RTTI Base Class Descriptor at (0,-1,0,64)'
PUBLIC	__real@0000000000000000
PUBLIC	__real@4000000000000000
EXTRN	??_M@YGXPAXIIP6EX0@Z@Z:PROC			; `eh vector destructor iterator'
EXTRN	__purecall:PROC
EXTRN	??3@YAXPAXI@Z:PROC				; operator delete
EXTRN	___std_terminate:PROC
EXTRN	__imp__InflateRect@12:PROC
EXTRN	__imp__PtInRect@12:PROC
EXTRN	__imp_??1?$CStringT@DV?$StrTraitMFC_DLL@DV?$ChTraitsCRT@D@ATL@@@@@ATL@@QAE@XZ:PROC
EXTRN	?GetEquiDiv@CElementCommonEnvironment@@QAEAAHXZ:PROC ; CElementCommonEnvironment::GetEquiDiv
EXTRN	?IsLeftLineExt@CElementCommonEnvironment@@QBEHXZ:PROC ; CElementCommonEnvironment::IsLeftLineExt
EXTRN	?IsRightLineExt@CElementCommonEnvironment@@QBEHXZ:PROC ; CElementCommonEnvironment::IsRightLineExt
EXTRN	??0CTextEnvironment@@QAE@ABV0@@Z:PROC		; CTextEnvironment::CTextEnvironment
EXTRN	?Set@CTextPosition@@UAEXPBV1@@Z:PROC		; CTextPosition::Set
EXTRN	??0CTextShowPosition@@QAE@ABV0@@Z:PROC		; CTextShowPosition::CTextShowPosition
EXTRN	??0CTextHorzPosition@@QAE@ABV0@@Z:PROC		; CTextHorzPosition::CTextHorzPosition
EXTRN	??0CTextVertPosition@@QAE@ABV0@@Z:PROC		; CTextVertPosition::CTextVertPosition
EXTRN	?Set@CTextHorzVertPosition@@UAEXPBVCTextPosition@@@Z:PROC ; CTextHorzVertPosition::Set
EXTRN	?GetSavedRealTextPositionData@CTextHorzVertPosition@@MBE?AV?$CStringT@DV?$StrTraitMFC_DLL@DV?$ChTraitsCRT@D@ATL@@@@@ATL@@XZ:PROC ; CTextHorzVertPosition::GetSavedRealTextPositionData
EXTRN	?GetCommonEnvironment@CElement@@QBE?AVCElementCommonEnvironment@@XZ:PROC ; CElement::GetCommonEnvironment
EXTRN	?GetTextPosition@CElement@@UBEPBVCTextPosition@@XZ:PROC ; CElement::GetTextPosition
EXTRN	?GetTextPosition@CElement@@UAEPAVCTextPosition@@XZ:PROC ; CElement::GetTextPosition
EXTRN	?Draw@CElement@@UAEXPAVCDC@@ABVCDrawingRegions@@ABVCCoordinateCalculatorData@@@Z:PROC ; CElement::Draw
EXTRN	?PointInElementSelectableRegion@CElement@@IBE_NABVCPoint@@00@Z:PROC ; CElement::PointInElementSelectableRegion
EXTRN	?GetLineRect@CElement@@IBE?AVCRect@@ABV2@ABVCPoint@@1HH@Z:PROC ; CElement::GetLineRect
EXTRN	??_ECElement@@UAEPAXI@Z:PROC			; CElement::`vector deleting destructor'
EXTRN	??4CCoordinate@@QAEAAV0@ABV0@@Z:PROC		; CCoordinate::operator=
EXTRN	??0CCoordinate@@QAE@XZ:PROC			; CCoordinate::CCoordinate
EXTRN	??0CCoordinate@@QAE@ABV0@@Z:PROC		; CCoordinate::CCoordinate
EXTRN	?GetX@CCoordinate@@QBENXZ:PROC			; CCoordinate::GetX
EXTRN	?GetY@CCoordinate@@QBENXZ:PROC			; CCoordinate::GetY
EXTRN	?GetIndex@CCoordinate@@QBEHXZ:PROC		; CCoordinate::GetIndex
EXTRN	?SetX@CCoordinate@@QAEXABNH@Z:PROC		; CCoordinate::SetX
EXTRN	?SetY@CCoordinate@@QAEXABN@Z:PROC		; CCoordinate::SetY
EXTRN	?GetDisplayRegion@CDisplayData@@QBE?AVCRect@@XZ:PROC ; CDisplayData::GetDisplayRegion
EXTRN	?GetModifyType@CElementModifyData@@QBE?AW4ModifyType@CToolEnumData@@XZ:PROC ; CElementModifyData::GetModifyType
EXTRN	?GetModifyPoint@CElementModifyData@@QBE?AVCCoordinate@@ABV2@@Z:PROC ; CElementModifyData::GetModifyPoint
EXTRN	?GetModifyType@CSelectedElementDrawingData@@QBE?AW4ModifyType@CToolEnumData@@XZ:PROC ; CSelectedElementDrawingData::GetModifyType
EXTRN	?GetDrawingRegions@CSelectedElementDrawingData@@QBEPAVCDrawingRegions@@XZ:PROC ; CSelectedElementDrawingData::GetDrawingRegions
EXTRN	??0COnePointElement@@QAE@ABVCCoordinate@@ABVCElementCommonEnvironment@@@Z:PROC ; COnePointElement::COnePointElement
EXTRN	?GetPoints@COnePointElement@@UAEXAAVCElementPointList@@@Z:PROC ; COnePointElement::GetPoints
EXTRN	?GetModifyType@COnePointElement@@UBE?AW4ModifyType@CToolEnumData@@PAVCExtractingDataOfModifyType@@@Z:PROC ; COnePointElement::GetModifyType
EXTRN	?GetCoordinate@COnePointElement@@UBE?AVCCoordinate@@W4ModifyType@CToolEnumData@@@Z:PROC ; COnePointElement::GetCoordinate
EXTRN	?DrawShadowAndGrip@COnePointElement@@UAEXPAVCDC@@ABVCDrawingRegions@@ABVCCoordinateCalculatorData@@@Z:PROC ; COnePointElement::DrawShadowAndGrip
EXTRN	?DrawSelected@COnePointElement@@UAEXPAVCDC@@ABVCSelectedElementDrawingData@@@Z:PROC ; COnePointElement::DrawSelected
EXTRN	?GetPoint@COnePointElement@@IAEAAVCCoordinate@@XZ:PROC ; COnePointElement::GetPoint
EXTRN	?SetPoint@COnePointElement@@IAEXABVCCoordinate@@@Z:PROC ; COnePointElement::SetPoint
EXTRN	?GetOnePointDrawingData@COnePointElement@@IBE?AVCOnePointDrawingData@@ABVCSelectedElementDrawingData@@@Z:PROC ; COnePointElement::GetOnePointDrawingData
EXTRN	?GetModifyType_Point@COnePointElement@@IBE?AW4ModifyType@CToolEnumData@@ABVCPoint@@0@Z:PROC ; COnePointElement::GetModifyType_Point
EXTRN	?GetSelectedDrawPoint@COnePointElement@@IBE?AVCPoint@@ABVCSelectedElementDrawingData@@@Z:PROC ; COnePointElement::GetSelectedDrawPoint
EXTRN	?GetSavedPoints@COnePointElement@@MBE?AV?$CStringT@DV?$StrTraitMFC_DLL@DV?$ChTraitsCRT@D@ATL@@@@@ATL@@XZ:PROC ; COnePointElement::GetSavedPoints
EXTRN	?RealDraw@COnePointElement@@MAEXPAVCDC@@ABVCDrawingRegions@@ABVCCoordinateCalculatorData@@@Z:PROC ; COnePointElement::RealDraw
EXTRN	?GetGripPoint@COnePointElement@@MAE?AVCPoint@@ABVCCoordinateCalculatorData@@@Z:PROC ; COnePointElement::GetGripPoint
EXTRN	??0CTwoPointElement@@QAE@ABVCCoordinate@@0ABVCElementCommonEnvironment@@@Z:PROC ; CTwoPointElement::CTwoPointElement
EXTRN	?GetPoints@CTwoPointElement@@UAEXAAVCElementPointList@@@Z:PROC ; CTwoPointElement::GetPoints
EXTRN	?GetModifyType@CTwoPointElement@@UBE?AW4ModifyType@CToolEnumData@@PAVCExtractingDataOfModifyType@@@Z:PROC ; CTwoPointElement::GetModifyType
EXTRN	?ElementModify@CTwoPointElement@@UAEXABVCElementModifyData@@@Z:PROC ; CTwoPointElement::ElementModify
EXTRN	?ElementModify_YValue@CTwoPointElement@@UAEXABVCElementModifyData@@@Z:PROC ; CTwoPointElement::ElementModify_YValue
EXTRN	?ElementModify_Coordinate@CTwoPointElement@@UAEXABVCCoordinate@@W4ModifyType@CToolEnumData@@@Z:PROC ; CTwoPointElement::ElementModify_Coordinate
EXTRN	?GetCoordinate@CTwoPointElement@@UBE?AVCCoordinate@@W4ModifyType@CToolEnumData@@@Z:PROC ; CTwoPointElement::GetCoordinate
EXTRN	?DrawShadowAndGrip@CTwoPointElement@@UAEXPAVCDC@@ABVCDrawingRegions@@ABVCCoordinateCalculatorData@@@Z:PROC ; CTwoPointElement::DrawShadowAndGrip
EXTRN	?DrawSelected@CTwoPointElement@@UAEXPAVCDC@@ABVCSelectedElementDrawingData@@@Z:PROC ; CTwoPointElement::DrawSelected
EXTRN	?GetStartPoint@CTwoPointElement@@IAEAAVCCoordinate@@XZ:PROC ; CTwoPointElement::GetStartPoint
EXTRN	?GetStartPoint@CTwoPointElement@@IBE?AVCCoordinate@@XZ:PROC ; CTwoPointElement::GetStartPoint
EXTRN	?GetEndPoint@CTwoPointElement@@IAEAAVCCoordinate@@XZ:PROC ; CTwoPointElement::GetEndPoint
EXTRN	?GetEndPoint@CTwoPointElement@@IBE?AVCCoordinate@@XZ:PROC ; CTwoPointElement::GetEndPoint
EXTRN	?SetStartPoint@CTwoPointElement@@IAEXABVCCoordinate@@@Z:PROC ; CTwoPointElement::SetStartPoint
EXTRN	?SetEndPoint@CTwoPointElement@@IAEXABVCCoordinate@@@Z:PROC ; CTwoPointElement::SetEndPoint
EXTRN	?GetSavedPoints@CTwoPointElement@@MBE?AV?$CStringT@DV?$StrTraitMFC_DLL@DV?$ChTraitsCRT@D@ATL@@@@@ATL@@XZ:PROC ; CTwoPointElement::GetSavedPoints
EXTRN	?RealDraw@CTwoPointElement@@MAEXPAVCDC@@ABVCDrawingRegions@@ABVCCoordinateCalculatorData@@@Z:PROC ; CTwoPointElement::RealDraw
EXTRN	?ElementInRegion@CTwoPointElement@@MBE_NABVCRect@@ABVCPoint@@11@Z:PROC ; CTwoPointElement::ElementInRegion
EXTRN	?GetModifyType@CTwoPointElement@@MBE?AW4ModifyType@CToolEnumData@@ABVCRect@@ABVCPoint@@11@Z:PROC ; CTwoPointElement::GetModifyType
EXTRN	?GetModifyType@CTwoPointElement@@MBE?AW4ModifyType@CToolEnumData@@ABVCDisplayData@@ABVCPoint@@11@Z:PROC ; CTwoPointElement::GetModifyType
EXTRN	?GetModifyType_SidePoints@CTwoPointElement@@IBE?AW4ModifyType@CToolEnumData@@ABVCPoint@@00@Z:PROC ; CTwoPointElement::GetModifyType_SidePoints
EXTRN	?GetModifyType_Line@CTwoPointElement@@IBE?AW4ModifyType@CToolEnumData@@ABVCPoint@@00@Z:PROC ; CTwoPointElement::GetModifyType_Line
EXTRN	?GetModifyType_Rect@CTwoPointElement@@IBE?AW4ModifyType@CToolEnumData@@ABVCPoint@@00@Z:PROC ; CTwoPointElement::GetModifyType_Rect
EXTRN	??0CThreePointElement@@QAE@ABVCCoordinate@@00ABVCElementCommonEnvironment@@@Z:PROC ; CThreePointElement::CThreePointElement
EXTRN	?GetPoints@CThreePointElement@@UAEXAAVCElementPointList@@@Z:PROC ; CThreePointElement::GetPoints
EXTRN	?GetModifyType@CThreePointElement@@UBE?AW4ModifyType@CToolEnumData@@PAVCExtractingDataOfModifyType@@@Z:PROC ; CThreePointElement::GetModifyType
EXTRN	?ElementModify@CThreePointElement@@UAEXABVCElementModifyData@@@Z:PROC ; CThreePointElement::ElementModify
EXTRN	?ElementModify_YValue@CThreePointElement@@UAEXABVCElementModifyData@@@Z:PROC ; CThreePointElement::ElementModify_YValue
EXTRN	?ElementModify_Coordinate@CThreePointElement@@UAEXABVCCoordinate@@W4ModifyType@CToolEnumData@@@Z:PROC ; CThreePointElement::ElementModify_Coordinate
EXTRN	?GetCoordinate@CThreePointElement@@UBE?AVCCoordinate@@W4ModifyType@CToolEnumData@@@Z:PROC ; CThreePointElement::GetCoordinate
EXTRN	?DrawShadowAndGrip@CThreePointElement@@UAEXPAVCDC@@ABVCDrawingRegions@@ABVCCoordinateCalculatorData@@@Z:PROC ; CThreePointElement::DrawShadowAndGrip
EXTRN	?DrawSelected@CThreePointElement@@UAEXPAVCDC@@ABVCSelectedElementDrawingData@@@Z:PROC ; CThreePointElement::DrawSelected
EXTRN	?GetSavedPoints@CThreePointElement@@MBE?AV?$CStringT@DV?$StrTraitMFC_DLL@DV?$ChTraitsCRT@D@ATL@@@@@ATL@@XZ:PROC ; CThreePointElement::GetSavedPoints
EXTRN	?RealDraw@CThreePointElement@@MAEXPAVCDC@@ABVCDrawingRegions@@ABVCCoordinateCalculatorData@@@Z:PROC ; CThreePointElement::RealDraw
EXTRN	?GetModifyType@CThreePointElement@@MBE?AW4ModifyType@CToolEnumData@@ABVCRect@@ABVCPoint@@111@Z:PROC ; CThreePointElement::GetModifyType
EXTRN	??0CMultiPointElement@@QAE@ABHPBVCPoints@@ABVCElementCommonEnvironment@@@Z:PROC ; CMultiPointElement::CMultiPointElement
EXTRN	??0CMultiPointElement@@QAE@ABV?$CDequeList@VCCoordinate@@@@ABVCElementCommonEnvironment@@@Z:PROC ; CMultiPointElement::CMultiPointElement
EXTRN	?GetPoints@CMultiPointElement@@UAEXAAVCElementPointList@@@Z:PROC ; CMultiPointElement::GetPoints
EXTRN	?ElementModify@CMultiPointElement@@UAEXABVCElementModifyData@@@Z:PROC ; CMultiPointElement::ElementModify
EXTRN	?ElementModify_YValue@CMultiPointElement@@UAEXABVCElementModifyData@@@Z:PROC ; CMultiPointElement::ElementModify_YValue
EXTRN	?ElementModify_Coordinate@CMultiPointElement@@UAEXABVCCoordinate@@W4ModifyType@CToolEnumData@@@Z:PROC ; CMultiPointElement::ElementModify_Coordinate
EXTRN	?GetCoordinate@CMultiPointElement@@UBE?AVCCoordinate@@W4ModifyType@CToolEnumData@@@Z:PROC ; CMultiPointElement::GetCoordinate
EXTRN	?DrawShadowAndGrip@CMultiPointElement@@UAEXPAVCDC@@ABVCDrawingRegions@@ABVCCoordinateCalculatorData@@@Z:PROC ; CMultiPointElement::DrawShadowAndGrip
EXTRN	?DrawSelected@CMultiPointElement@@UAEXPAVCDC@@ABVCSelectedElementDrawingData@@@Z:PROC ; CMultiPointElement::DrawSelected
EXTRN	?GetSavedPoints@CMultiPointElement@@MBE?AV?$CStringT@DV?$StrTraitMFC_DLL@DV?$ChTraitsCRT@D@ATL@@@@@ATL@@XZ:PROC ; CMultiPointElement::GetSavedPoints
EXTRN	?RealDraw@CMultiPointElement@@MAEXPAVCDC@@ABVCDrawingRegions@@ABVCCoordinateCalculatorData@@@Z:PROC ; CMultiPointElement::RealDraw
EXTRN	?GetModifyType@CMultiPointElement@@MBE?AW4ModifyType@CToolEnumData@@PAVCExtractingDataOfModifyType@@@Z:PROC ; CMultiPointElement::GetModifyType
EXTRN	?GetModifyType@CMultiPointElement@@MBE?AW4ModifyType@CToolEnumData@@ABVCRect@@ABVCPoint@@11@Z:PROC ; CMultiPointElement::GetModifyType
EXTRN	??0CVertElement@@QAE@ABVCCoordinate@@ABVCElementCommonEnvironment@@@Z:PROC ; CVertElement::CVertElement
EXTRN	?ElementModify@CVertElement@@UAEXABVCElementModifyData@@@Z:PROC ; CVertElement::ElementModify
EXTRN	?ElementModify_YValue@CVertElement@@UAEXABVCElementModifyData@@@Z:PROC ; CVertElement::ElementModify_YValue
EXTRN	?ElementModify_Coordinate@CVertElement@@UAEXABVCCoordinate@@W4ModifyType@CToolEnumData@@@Z:PROC ; CVertElement::ElementModify_Coordinate
EXTRN	?GetModifyType@CVertElement@@MBE?AW4ModifyType@CToolEnumData@@ABVCDisplayData@@ABVCPoint@@1@Z:PROC ; CVertElement::GetModifyType
EXTRN	??0CDrawer@@QAE@XZ:PROC				; CDrawer::CDrawer
EXTRN	?DrawTool@COnePointDrawer@@QAEXPAVCDC@@ABVCOnePointDrawingData@@H@Z:PROC ; COnePointDrawer::DrawTool
EXTRN	?DrawShadow@COnePointDrawer@@MAEXPAVCDC@@ABVCDisplayData@@ABVCPoint@@_N@Z:PROC ; COnePointDrawer::DrawShadow
EXTRN	?DrawTextA@COnePointDrawer@@MAEXPAVCDC@@ABVCOnePointDrawingData@@@Z:PROC ; COnePointDrawer::DrawTextA
EXTRN	?IsDrawing@CTwoPointDrawer@@MBE_NABVCRect@@ABVCPoint@@1@Z:PROC ; CTwoPointDrawer::IsDrawing
EXTRN	?DrawShadow@CTwoPointDrawer@@MAEXPAVCDC@@ABVCRect@@ABVCPoint@@2@Z:PROC ; CTwoPointDrawer::DrawShadow
EXTRN	?DrawTextA@CTwoPointDrawer@@MAEXPAVCDC@@ABVCTwoPointDrawingData@@@Z:PROC ; CTwoPointDrawer::DrawTextA
EXTRN	?DrawTool@CThreePointDrawer@@MAEXPAVCDC@@ABVCRegion@@ABVCPoints@@@Z:PROC ; CThreePointDrawer::DrawTool
EXTRN	?DrawTool@CThreePointDrawer@@MAEXPAVCDC@@ABVCRegion@@ABVCPoints@@2@Z:PROC ; CThreePointDrawer::DrawTool
EXTRN	?DrawTool@CMultiPointDrawer@@MAEXPAVCDC@@ABVCRegion@@ABVCPoints@@@Z:PROC ; CMultiPointDrawer::DrawTool
EXTRN	?DrawTool@CMultiPointDrawer@@MAEXPAVCDC@@ABVCRegion@@ABVCPoints@@2@Z:PROC ; CMultiPointDrawer::DrawTool
EXTRN	??0CVertLineDrawer@@QAE@XZ:PROC			; CVertLineDrawer::CVertLineDrawer
EXTRN	??0CLineDrawer@@QAE@W4TOOLTYPE@CAnalysis@@@Z:PROC ; CLineDrawer::CLineDrawer
EXTRN	??0CHorzLineDrawer@@QAE@XZ:PROC			; CHorzLineDrawer::CHorzLineDrawer
EXTRN	?SelectedDraw_VertLine@CCrossLineDrawer@@QAEXPAVCDC@@ABVCDrawingRegions@@ABVCPoint@@@Z:PROC ; CCrossLineDrawer::SelectedDraw_VertLine
EXTRN	?SelectedDraw_HorzLine@CCrossLineDrawer@@QAEXPAVCDC@@ABVCDrawingRegions@@ABVCPoint@@@Z:PROC ; CCrossLineDrawer::SelectedDraw_HorzLine
EXTRN	?IsDrawing@CCrossLineDrawer@@MBE_NABVCRect@@ABVCPoint@@@Z:PROC ; CCrossLineDrawer::IsDrawing
EXTRN	?DrawShape@CCrossLineDrawer@@MAEXPAVCDC@@ABVCOnePointDrawingData@@ABVCDisplayData@@ABVCPoint@@_N@Z:PROC ; CCrossLineDrawer::DrawShape
EXTRN	?DrawTextA@CCrossLineDrawer@@MAEXPAVCDC@@ABVCOnePointDrawingData@@@Z:PROC ; CCrossLineDrawer::DrawTextA
EXTRN	?GetGripRegion@CCrossLineDrawer@@MAE?AVCRect@@ABV2@ABVCPoint@@@Z:PROC ; CCrossLineDrawer::GetGripRegion
EXTRN	?DrawShape@CEqualDivisionLineDrawer@@UAEXPAVCDC@@ABVCTwoPointDrawingData@@ABVCPoint@@2@Z:PROC ; CEqualDivisionLineDrawer::DrawShape
EXTRN	?DrawShadow@CEqualDivisionLineDrawer@@UAEXPAVCDC@@ABVCRect@@ABVCPoint@@2@Z:PROC ; CEqualDivisionLineDrawer::DrawShadow
EXTRN	?DrawTextA@CEqualDivisionLineDrawer@@UAEXPAVCDC@@ABVCTwoPointDrawingData@@@Z:PROC ; CEqualDivisionLineDrawer::DrawTextA
EXTRN	?GetPoint_Y@CEqualDivisionLineDrawer@@QBEHHHHH@Z:PROC ; CEqualDivisionLineDrawer::GetPoint_Y
EXTRN	?GetCount@CTrisectionLineDrawer@@UBEHH@Z:PROC	; CTrisectionLineDrawer::GetCount
EXTRN	?GetCoefficient@CTrisectionLineDrawer@@MBENHH@Z:PROC ; CTrisectionLineDrawer::GetCoefficient
EXTRN	?GetCount@CQuadrisectLineDrawer@@UBEHH@Z:PROC	; CQuadrisectLineDrawer::GetCount
EXTRN	?GetCoefficient@CQuadrisectLineDrawer@@MBENHH@Z:PROC ; CQuadrisectLineDrawer::GetCoefficient
EXTRN	?GetPoints@CAndrewsPitchforkDrawer@@QBEXABVCPoint@@00AAV2@11@Z:PROC ; CAndrewsPitchforkDrawer::GetPoints
EXTRN	?GetLineEndPoint@CAndrewsPitchforkDrawer@@QBE?AVCPoint@@ABVCRect@@ABV2@11@Z:PROC ; CAndrewsPitchforkDrawer::GetLineEndPoint
EXTRN	?DrawShape@CAndrewsPitchforkDrawer@@MAEXPAVCDC@@ABVCRegion@@ABVCPoint@@22@Z:PROC ; CAndrewsPitchforkDrawer::DrawShape
EXTRN	?GetPoints_Index1@CCycleLinesDrawer@@QBEHXZ:PROC ; CCycleLinesDrawer::GetPoints_Index1
EXTRN	?GetPoints_Index2@CCycleLinesDrawer@@QBEHXZ:PROC ; CCycleLinesDrawer::GetPoints_Index2
EXTRN	?GetDrawingPoint_X@CCycleLinesDrawer@@QBEHABVCDisplayData@@H@Z:PROC ; CCycleLinesDrawer::GetDrawingPoint_X
EXTRN	?GetIndexInDisplayAttributes@CCycleLinesDrawer@@QBE_NABVCDisplayData@@H@Z:PROC ; CCycleLinesDrawer::GetIndexInDisplayAttributes
EXTRN	?DrawShape@CCycleLinesDrawer@@MAEXPAVCDC@@ABVCTwoPointDrawingData@@ABVCPoint@@2@Z:PROC ; CCycleLinesDrawer::DrawShape
EXTRN	?GetCount@CSpeedLineDrawer@@QBEHXZ:PROC		; CSpeedLineDrawer::GetCount
EXTRN	?GetPoints@CSpeedLineDrawer@@QBEXABVCPoint@@0AAV2@1@Z:PROC ; CSpeedLineDrawer::GetPoints
EXTRN	?GetLineEndPoint@CSpeedLineDrawer@@QBE_NABVCRect@@ABVCPoint@@1HAAV3@@Z:PROC ; CSpeedLineDrawer::GetLineEndPoint
EXTRN	?DrawShape@CSpeedLineDrawer@@MAEXPAVCDC@@ABVCTwoPointDrawingData@@ABVCPoint@@2@Z:PROC ; CSpeedLineDrawer::DrawShape
EXTRN	?GetCount@CSpeedFanDrawer@@QBEHXZ:PROC		; CSpeedFanDrawer::GetCount
EXTRN	?GetPoints@CSpeedFanDrawer@@QBEXABVCPoint@@0AAV2@1@Z:PROC ; CSpeedFanDrawer::GetPoints
EXTRN	?GetLineEndPoint@CSpeedFanDrawer@@QBE_NABVCRect@@ABVCPoint@@1HAAV3@@Z:PROC ; CSpeedFanDrawer::GetLineEndPoint
EXTRN	?DrawShape@CSpeedFanDrawer@@MAEXPAVCDC@@ABVCTwoPointDrawingData@@ABVCPoint@@2@Z:PROC ; CSpeedFanDrawer::DrawShape
EXTRN	?GetCount@CSpeedArcDrawer@@QBEHXZ:PROC		; CSpeedArcDrawer::GetCount
EXTRN	?GetRadius@CSpeedArcDrawer@@QBEHABVCPoint@@0H@Z:PROC ; CSpeedArcDrawer::GetRadius
EXTRN	?GetPoints@CSpeedArcDrawer@@QBEXABVCPoint@@0AAV2@1@Z:PROC ; CSpeedArcDrawer::GetPoints
EXTRN	?GetLineEndPoint@CSpeedArcDrawer@@QBE_NABVCRect@@ABVCPoint@@1HAAV3@@Z:PROC ; CSpeedArcDrawer::GetLineEndPoint
EXTRN	?DrawShape@CSpeedArcDrawer@@MAEXPAVCDC@@ABVCTwoPointDrawingData@@ABVCPoint@@2@Z:PROC ; CSpeedArcDrawer::DrawShape
EXTRN	?DrawArc@CSpeedArcDrawer@@MAEXPAVCDC@@ABVCRect@@HH@Z:PROC ; CSpeedArcDrawer::DrawArc
EXTRN	?DrawShape@CLinearRegressionDrawer@@UAEXPAVCDC@@ABVCTwoPointDrawingData@@ABVCPoint@@2@Z:PROC ; CLinearRegressionDrawer::DrawShape
EXTRN	?DrawShadow@CLinearRegressionDrawer@@UAEXPAVCDC@@ABVCRect@@ABVCPoint@@2@Z:PROC ; CLinearRegressionDrawer::DrawShadow
EXTRN	??0CRaffRegressionDrawer@@QAE@XZ:PROC		; CRaffRegressionDrawer::CRaffRegressionDrawer
EXTRN	?GetChannel@CRaffRegressionDrawer@@QBENXZ:PROC	; CRaffRegressionDrawer::GetChannel
EXTRN	??0CAngleLineDrawer@@QAE@XZ:PROC		; CAngleLineDrawer::CAngleLineDrawer
EXTRN	??0CCandleLineDrawer@@QAE@XZ:PROC		; CCandleLineDrawer::CCandleLineDrawer
EXTRN	?DrawShape@CCandleBongDrawer@@MAEXPAVCDC@@ABVCTwoPointDrawingData@@ABVCPoint@@2@Z:PROC ; CCandleBongDrawer::DrawShape
EXTRN	?DrawShape@CPencilLineDrawer@@MAEXPAVCDC@@ABVCMultiPointDrawingData@@@Z:PROC ; CPencilLineDrawer::DrawShape
EXTRN	?DrawShape@CPeriodSumLineDrawer@@UAEXPAVCDC@@ABVCTwoPointDrawingData@@ABVCPoint@@2@Z:PROC ; CPeriodSumLineDrawer::DrawShape
EXTRN	?DrawTextA@CPeriodSumLineDrawer@@UAEXPAVCDC@@ABVCTwoPointDrawingData@@@Z:PROC ; CPeriodSumLineDrawer::DrawTextA
EXTRN	?DrawShape@CElliotLineDrawer@@UAEXPAVCDC@@ABVCTwoPointDrawingData@@ABVCPoint@@2@Z:PROC ; CElliotLineDrawer::DrawShape
EXTRN	?GetPoint@CElliotLineDrawer@@QBE_NABVCRect@@ABVCPoint@@1HV3@AAV3@@Z:PROC ; CElliotLineDrawer::GetPoint
EXTRN	?DrawShape@CAdjustRatioDrawer@@MAEXPAVCDC@@ABVCRegion@@ABVCPoint@@22@Z:PROC ; CAdjustRatioDrawer::DrawShape
EXTRN	??_ECLine@@UAEPAXI@Z:PROC			; CLine::`vector deleting destructor'
EXTRN	??_ECVertLine@@UAEPAXI@Z:PROC			; CVertLine::`vector deleting destructor'
EXTRN	??_ECHorzLine@@UAEPAXI@Z:PROC			; CHorzLine::`vector deleting destructor'
EXTRN	??_ECCrossLine@@UAEPAXI@Z:PROC			; CCrossLine::`vector deleting destructor'
EXTRN	??_ECEqualDivisionLine@@UAEPAXI@Z:PROC		; CEqualDivisionLine::`vector deleting destructor'
EXTRN	??_ECTrisectionLine@@UAEPAXI@Z:PROC		; CTrisectionLine::`vector deleting destructor'
EXTRN	??_ECQuadrisectLine@@UAEPAXI@Z:PROC		; CQuadrisectLine::`vector deleting destructor'
EXTRN	??_ECAndrewsPitchfork@@UAEPAXI@Z:PROC		; CAndrewsPitchfork::`vector deleting destructor'
EXTRN	??_ECCycleLines@@UAEPAXI@Z:PROC			; CCycleLines::`vector deleting destructor'
EXTRN	??_ECSpeedLine@@UAEPAXI@Z:PROC			; CSpeedLine::`vector deleting destructor'
EXTRN	??_ECSpeedFan@@UAEPAXI@Z:PROC			; CSpeedFan::`vector deleting destructor'
EXTRN	??_ECSpeedArc@@UAEPAXI@Z:PROC			; CSpeedArc::`vector deleting destructor'
EXTRN	??_ECLinearRegression@@UAEPAXI@Z:PROC		; CLinearRegression::`vector deleting destructor'
EXTRN	??_ECRaffRegression@@UAEPAXI@Z:PROC		; CRaffRegression::`vector deleting destructor'
EXTRN	??_ECAngleLine@@UAEPAXI@Z:PROC			; CAngleLine::`vector deleting destructor'
EXTRN	??_ECCandleLine@@UAEPAXI@Z:PROC			; CCandleLine::`vector deleting destructor'
EXTRN	??_ECCandleBong@@UAEPAXI@Z:PROC			; CCandleBong::`vector deleting destructor'
EXTRN	??_ECPencilLine@@UAEPAXI@Z:PROC			; CPencilLine::`vector deleting destructor'
EXTRN	??_ECPeriodSumLine@@UAEPAXI@Z:PROC		; CPeriodSumLine::`vector deleting destructor'
EXTRN	??_ECElliotLine@@UAEPAXI@Z:PROC			; CElliotLine::`vector deleting destructor'
EXTRN	??_ECAdjustRatio@@UAEPAXI@Z:PROC		; CAdjustRatio::`vector deleting destructor'
EXTRN	?Round@CMath@@SAHN@Z:PROC			; CMath::Round
EXTRN	?Distance@CMath@@SANABVCPoint@@0@Z:PROC		; CMath::Distance
EXTRN	??0CSelectableRegionCalculator@@QAE@XZ:PROC	; CSelectableRegionCalculator::CSelectableRegionCalculator
EXTRN	?GetProximityRange@CSelectableRegionCalculator@@QBEHXZ:PROC ; CSelectableRegionCalculator::GetProximityRange
EXTRN	@__security_check_cookie@4:PROC
EXTRN	___CxxFrameHandler3:PROC
EXTRN	__libm_sse2_pow_precise:PROC
EXTRN	__libm_sse2_sqrt_precise:PROC
EXTRN	??_7type_info@@6B@:QWORD			; type_info::`vftable'
EXTRN	___security_cookie:DWORD
EXTRN	__fltused:DWORD
;	COMDAT __real@4000000000000000
CONST	SEGMENT
__real@4000000000000000 DQ 04000000000000000r	; 2
CONST	ENDS
;	COMDAT __real@0000000000000000
CONST	SEGMENT
__real@0000000000000000 DQ 00000000000000000r	; 0
CONST	ENDS
;	COMDAT ??_R1A@?0A@EA@CAdjustRatio@@8
rdata$r	SEGMENT
??_R1A@?0A@EA@CAdjustRatio@@8 DD FLAT:??_R0?AVCAdjustRatio@@@8 ; CAdjustRatio::`RTTI Base Class Descriptor at (0,-1,0,64)'
	DD	02H
	DD	00H
	DD	0ffffffffH
	DD	00H
	DD	040H
	DD	FLAT:??_R3CAdjustRatio@@8
rdata$r	ENDS
;	COMDAT ??_R2CAdjustRatio@@8
rdata$r	SEGMENT
??_R2CAdjustRatio@@8 DD FLAT:??_R1A@?0A@EA@CAdjustRatio@@8 ; CAdjustRatio::`RTTI Base Class Array'
	DD	FLAT:??_R1A@?0A@EA@CThreePointElement@@8
	DD	FLAT:??_R1A@?0A@EA@CElement@@8
rdata$r	ENDS
;	COMDAT ??_R3CAdjustRatio@@8
rdata$r	SEGMENT
??_R3CAdjustRatio@@8 DD 00H				; CAdjustRatio::`RTTI Class Hierarchy Descriptor'
	DD	00H
	DD	03H
	DD	FLAT:??_R2CAdjustRatio@@8
rdata$r	ENDS
;	COMDAT ??_R0?AVCAdjustRatio@@@8
data$rs	SEGMENT
??_R0?AVCAdjustRatio@@@8 DD FLAT:??_7type_info@@6B@	; CAdjustRatio `RTTI Type Descriptor'
	DD	00H
	DB	'.?AVCAdjustRatio@@', 00H
data$rs	ENDS
;	COMDAT ??_R4CAdjustRatio@@6B@
rdata$r	SEGMENT
??_R4CAdjustRatio@@6B@ DD 00H				; CAdjustRatio::`RTTI Complete Object Locator'
	DD	00H
	DD	00H
	DD	FLAT:??_R0?AVCAdjustRatio@@@8
	DD	FLAT:??_R3CAdjustRatio@@8
rdata$r	ENDS
;	COMDAT ??_R1A@?0A@EA@CElliotLine@@8
rdata$r	SEGMENT
??_R1A@?0A@EA@CElliotLine@@8 DD FLAT:??_R0?AVCElliotLine@@@8 ; CElliotLine::`RTTI Base Class Descriptor at (0,-1,0,64)'
	DD	02H
	DD	00H
	DD	0ffffffffH
	DD	00H
	DD	040H
	DD	FLAT:??_R3CElliotLine@@8
rdata$r	ENDS
;	COMDAT ??_R2CElliotLine@@8
rdata$r	SEGMENT
??_R2CElliotLine@@8 DD FLAT:??_R1A@?0A@EA@CElliotLine@@8 ; CElliotLine::`RTTI Base Class Array'
	DD	FLAT:??_R1A@?0A@EA@CTwoPointElement@@8
	DD	FLAT:??_R1A@?0A@EA@CElement@@8
rdata$r	ENDS
;	COMDAT ??_R3CElliotLine@@8
rdata$r	SEGMENT
??_R3CElliotLine@@8 DD 00H				; CElliotLine::`RTTI Class Hierarchy Descriptor'
	DD	00H
	DD	03H
	DD	FLAT:??_R2CElliotLine@@8
rdata$r	ENDS
;	COMDAT ??_R0?AVCElliotLine@@@8
data$rs	SEGMENT
??_R0?AVCElliotLine@@@8 DD FLAT:??_7type_info@@6B@	; CElliotLine `RTTI Type Descriptor'
	DD	00H
	DB	'.?AVCElliotLine@@', 00H
data$rs	ENDS
;	COMDAT ??_R4CElliotLine@@6B@
rdata$r	SEGMENT
??_R4CElliotLine@@6B@ DD 00H				; CElliotLine::`RTTI Complete Object Locator'
	DD	00H
	DD	00H
	DD	FLAT:??_R0?AVCElliotLine@@@8
	DD	FLAT:??_R3CElliotLine@@8
rdata$r	ENDS
;	COMDAT ??_R1A@?0A@EA@CPeriodSumLine@@8
rdata$r	SEGMENT
??_R1A@?0A@EA@CPeriodSumLine@@8 DD FLAT:??_R0?AVCPeriodSumLine@@@8 ; CPeriodSumLine::`RTTI Base Class Descriptor at (0,-1,0,64)'
	DD	02H
	DD	00H
	DD	0ffffffffH
	DD	00H
	DD	040H
	DD	FLAT:??_R3CPeriodSumLine@@8
rdata$r	ENDS
;	COMDAT ??_R2CPeriodSumLine@@8
rdata$r	SEGMENT
??_R2CPeriodSumLine@@8 DD FLAT:??_R1A@?0A@EA@CPeriodSumLine@@8 ; CPeriodSumLine::`RTTI Base Class Array'
	DD	FLAT:??_R1A@?0A@EA@CTwoPointElement@@8
	DD	FLAT:??_R1A@?0A@EA@CElement@@8
rdata$r	ENDS
;	COMDAT ??_R3CPeriodSumLine@@8
rdata$r	SEGMENT
??_R3CPeriodSumLine@@8 DD 00H				; CPeriodSumLine::`RTTI Class Hierarchy Descriptor'
	DD	00H
	DD	03H
	DD	FLAT:??_R2CPeriodSumLine@@8
rdata$r	ENDS
;	COMDAT ??_R0?AVCPeriodSumLine@@@8
data$rs	SEGMENT
??_R0?AVCPeriodSumLine@@@8 DD FLAT:??_7type_info@@6B@	; CPeriodSumLine `RTTI Type Descriptor'
	DD	00H
	DB	'.?AVCPeriodSumLine@@', 00H
data$rs	ENDS
;	COMDAT ??_R4CPeriodSumLine@@6B@
rdata$r	SEGMENT
??_R4CPeriodSumLine@@6B@ DD 00H				; CPeriodSumLine::`RTTI Complete Object Locator'
	DD	00H
	DD	00H
	DD	FLAT:??_R0?AVCPeriodSumLine@@@8
	DD	FLAT:??_R3CPeriodSumLine@@8
rdata$r	ENDS
;	COMDAT ??_R2CMultiPointElement@@8
rdata$r	SEGMENT
??_R2CMultiPointElement@@8 DD FLAT:??_R1A@?0A@EA@CMultiPointElement@@8 ; CMultiPointElement::`RTTI Base Class Array'
	DD	FLAT:??_R1A@?0A@EA@CElement@@8
rdata$r	ENDS
;	COMDAT ??_R3CMultiPointElement@@8
rdata$r	SEGMENT
??_R3CMultiPointElement@@8 DD 00H			; CMultiPointElement::`RTTI Class Hierarchy Descriptor'
	DD	00H
	DD	02H
	DD	FLAT:??_R2CMultiPointElement@@8
rdata$r	ENDS
;	COMDAT ??_R0?AVCMultiPointElement@@@8
data$rs	SEGMENT
??_R0?AVCMultiPointElement@@@8 DD FLAT:??_7type_info@@6B@ ; CMultiPointElement `RTTI Type Descriptor'
	DD	00H
	DB	'.?AVCMultiPointElement@@', 00H
data$rs	ENDS
;	COMDAT ??_R1A@?0A@EA@CMultiPointElement@@8
rdata$r	SEGMENT
??_R1A@?0A@EA@CMultiPointElement@@8 DD FLAT:??_R0?AVCMultiPointElement@@@8 ; CMultiPointElement::`RTTI Base Class Descriptor at (0,-1,0,64)'
	DD	01H
	DD	00H
	DD	0ffffffffH
	DD	00H
	DD	040H
	DD	FLAT:??_R3CMultiPointElement@@8
rdata$r	ENDS
;	COMDAT ??_R1A@?0A@EA@CPencilLine@@8
rdata$r	SEGMENT
??_R1A@?0A@EA@CPencilLine@@8 DD FLAT:??_R0?AVCPencilLine@@@8 ; CPencilLine::`RTTI Base Class Descriptor at (0,-1,0,64)'
	DD	02H
	DD	00H
	DD	0ffffffffH
	DD	00H
	DD	040H
	DD	FLAT:??_R3CPencilLine@@8
rdata$r	ENDS
;	COMDAT ??_R2CPencilLine@@8
rdata$r	SEGMENT
??_R2CPencilLine@@8 DD FLAT:??_R1A@?0A@EA@CPencilLine@@8 ; CPencilLine::`RTTI Base Class Array'
	DD	FLAT:??_R1A@?0A@EA@CMultiPointElement@@8
	DD	FLAT:??_R1A@?0A@EA@CElement@@8
rdata$r	ENDS
;	COMDAT ??_R3CPencilLine@@8
rdata$r	SEGMENT
??_R3CPencilLine@@8 DD 00H				; CPencilLine::`RTTI Class Hierarchy Descriptor'
	DD	00H
	DD	03H
	DD	FLAT:??_R2CPencilLine@@8
rdata$r	ENDS
;	COMDAT ??_R0?AVCPencilLine@@@8
data$rs	SEGMENT
??_R0?AVCPencilLine@@@8 DD FLAT:??_7type_info@@6B@	; CPencilLine `RTTI Type Descriptor'
	DD	00H
	DB	'.?AVCPencilLine@@', 00H
data$rs	ENDS
;	COMDAT ??_R4CPencilLine@@6B@
rdata$r	SEGMENT
??_R4CPencilLine@@6B@ DD 00H				; CPencilLine::`RTTI Complete Object Locator'
	DD	00H
	DD	00H
	DD	FLAT:??_R0?AVCPencilLine@@@8
	DD	FLAT:??_R3CPencilLine@@8
rdata$r	ENDS
;	COMDAT ??_R1A@?0A@EA@CCandleBong@@8
rdata$r	SEGMENT
??_R1A@?0A@EA@CCandleBong@@8 DD FLAT:??_R0?AVCCandleBong@@@8 ; CCandleBong::`RTTI Base Class Descriptor at (0,-1,0,64)'
	DD	02H
	DD	00H
	DD	0ffffffffH
	DD	00H
	DD	040H
	DD	FLAT:??_R3CCandleBong@@8
rdata$r	ENDS
;	COMDAT ??_R2CCandleBong@@8
rdata$r	SEGMENT
??_R2CCandleBong@@8 DD FLAT:??_R1A@?0A@EA@CCandleBong@@8 ; CCandleBong::`RTTI Base Class Array'
	DD	FLAT:??_R1A@?0A@EA@CTwoPointElement@@8
	DD	FLAT:??_R1A@?0A@EA@CElement@@8
rdata$r	ENDS
;	COMDAT ??_R3CCandleBong@@8
rdata$r	SEGMENT
??_R3CCandleBong@@8 DD 00H				; CCandleBong::`RTTI Class Hierarchy Descriptor'
	DD	00H
	DD	03H
	DD	FLAT:??_R2CCandleBong@@8
rdata$r	ENDS
;	COMDAT ??_R0?AVCCandleBong@@@8
data$rs	SEGMENT
??_R0?AVCCandleBong@@@8 DD FLAT:??_7type_info@@6B@	; CCandleBong `RTTI Type Descriptor'
	DD	00H
	DB	'.?AVCCandleBong@@', 00H
data$rs	ENDS
;	COMDAT ??_R4CCandleBong@@6B@
rdata$r	SEGMENT
??_R4CCandleBong@@6B@ DD 00H				; CCandleBong::`RTTI Complete Object Locator'
	DD	00H
	DD	00H
	DD	FLAT:??_R0?AVCCandleBong@@@8
	DD	FLAT:??_R3CCandleBong@@8
rdata$r	ENDS
;	COMDAT ??_R1A@?0A@EA@CCandleLine@@8
rdata$r	SEGMENT
??_R1A@?0A@EA@CCandleLine@@8 DD FLAT:??_R0?AVCCandleLine@@@8 ; CCandleLine::`RTTI Base Class Descriptor at (0,-1,0,64)'
	DD	02H
	DD	00H
	DD	0ffffffffH
	DD	00H
	DD	040H
	DD	FLAT:??_R3CCandleLine@@8
rdata$r	ENDS
;	COMDAT ??_R2CCandleLine@@8
rdata$r	SEGMENT
??_R2CCandleLine@@8 DD FLAT:??_R1A@?0A@EA@CCandleLine@@8 ; CCandleLine::`RTTI Base Class Array'
	DD	FLAT:??_R1A@?0A@EA@COnePointElement@@8
	DD	FLAT:??_R1A@?0A@EA@CElement@@8
rdata$r	ENDS
;	COMDAT ??_R3CCandleLine@@8
rdata$r	SEGMENT
??_R3CCandleLine@@8 DD 00H				; CCandleLine::`RTTI Class Hierarchy Descriptor'
	DD	00H
	DD	03H
	DD	FLAT:??_R2CCandleLine@@8
rdata$r	ENDS
;	COMDAT ??_R0?AVCCandleLine@@@8
data$rs	SEGMENT
??_R0?AVCCandleLine@@@8 DD FLAT:??_7type_info@@6B@	; CCandleLine `RTTI Type Descriptor'
	DD	00H
	DB	'.?AVCCandleLine@@', 00H
data$rs	ENDS
;	COMDAT ??_R4CCandleLine@@6B@
rdata$r	SEGMENT
??_R4CCandleLine@@6B@ DD 00H				; CCandleLine::`RTTI Complete Object Locator'
	DD	00H
	DD	00H
	DD	FLAT:??_R0?AVCCandleLine@@@8
	DD	FLAT:??_R3CCandleLine@@8
rdata$r	ENDS
;	COMDAT ??_R1A@?0A@EA@CAngleLine@@8
rdata$r	SEGMENT
??_R1A@?0A@EA@CAngleLine@@8 DD FLAT:??_R0?AVCAngleLine@@@8 ; CAngleLine::`RTTI Base Class Descriptor at (0,-1,0,64)'
	DD	02H
	DD	00H
	DD	0ffffffffH
	DD	00H
	DD	040H
	DD	FLAT:??_R3CAngleLine@@8
rdata$r	ENDS
;	COMDAT ??_R2CAngleLine@@8
rdata$r	SEGMENT
??_R2CAngleLine@@8 DD FLAT:??_R1A@?0A@EA@CAngleLine@@8	; CAngleLine::`RTTI Base Class Array'
	DD	FLAT:??_R1A@?0A@EA@CTwoPointElement@@8
	DD	FLAT:??_R1A@?0A@EA@CElement@@8
rdata$r	ENDS
;	COMDAT ??_R3CAngleLine@@8
rdata$r	SEGMENT
??_R3CAngleLine@@8 DD 00H				; CAngleLine::`RTTI Class Hierarchy Descriptor'
	DD	00H
	DD	03H
	DD	FLAT:??_R2CAngleLine@@8
rdata$r	ENDS
;	COMDAT ??_R0?AVCAngleLine@@@8
data$rs	SEGMENT
??_R0?AVCAngleLine@@@8 DD FLAT:??_7type_info@@6B@	; CAngleLine `RTTI Type Descriptor'
	DD	00H
	DB	'.?AVCAngleLine@@', 00H
data$rs	ENDS
;	COMDAT ??_R4CAngleLine@@6B@
rdata$r	SEGMENT
??_R4CAngleLine@@6B@ DD 00H				; CAngleLine::`RTTI Complete Object Locator'
	DD	00H
	DD	00H
	DD	FLAT:??_R0?AVCAngleLine@@@8
	DD	FLAT:??_R3CAngleLine@@8
rdata$r	ENDS
;	COMDAT ??_R1A@?0A@EA@CRaffRegression@@8
rdata$r	SEGMENT
??_R1A@?0A@EA@CRaffRegression@@8 DD FLAT:??_R0?AVCRaffRegression@@@8 ; CRaffRegression::`RTTI Base Class Descriptor at (0,-1,0,64)'
	DD	02H
	DD	00H
	DD	0ffffffffH
	DD	00H
	DD	040H
	DD	FLAT:??_R3CRaffRegression@@8
rdata$r	ENDS
;	COMDAT ??_R2CRaffRegression@@8
rdata$r	SEGMENT
??_R2CRaffRegression@@8 DD FLAT:??_R1A@?0A@EA@CRaffRegression@@8 ; CRaffRegression::`RTTI Base Class Array'
	DD	FLAT:??_R1A@?0A@EA@CTwoPointElement@@8
	DD	FLAT:??_R1A@?0A@EA@CElement@@8
rdata$r	ENDS
;	COMDAT ??_R3CRaffRegression@@8
rdata$r	SEGMENT
??_R3CRaffRegression@@8 DD 00H				; CRaffRegression::`RTTI Class Hierarchy Descriptor'
	DD	00H
	DD	03H
	DD	FLAT:??_R2CRaffRegression@@8
rdata$r	ENDS
;	COMDAT ??_R0?AVCRaffRegression@@@8
data$rs	SEGMENT
??_R0?AVCRaffRegression@@@8 DD FLAT:??_7type_info@@6B@	; CRaffRegression `RTTI Type Descriptor'
	DD	00H
	DB	'.?AVCRaffRegression@@', 00H
data$rs	ENDS
;	COMDAT ??_R4CRaffRegression@@6B@
rdata$r	SEGMENT
??_R4CRaffRegression@@6B@ DD 00H			; CRaffRegression::`RTTI Complete Object Locator'
	DD	00H
	DD	00H
	DD	FLAT:??_R0?AVCRaffRegression@@@8
	DD	FLAT:??_R3CRaffRegression@@8
rdata$r	ENDS
;	COMDAT ??_R1A@?0A@EA@CLinearRegression@@8
rdata$r	SEGMENT
??_R1A@?0A@EA@CLinearRegression@@8 DD FLAT:??_R0?AVCLinearRegression@@@8 ; CLinearRegression::`RTTI Base Class Descriptor at (0,-1,0,64)'
	DD	02H
	DD	00H
	DD	0ffffffffH
	DD	00H
	DD	040H
	DD	FLAT:??_R3CLinearRegression@@8
rdata$r	ENDS
;	COMDAT ??_R2CLinearRegression@@8
rdata$r	SEGMENT
??_R2CLinearRegression@@8 DD FLAT:??_R1A@?0A@EA@CLinearRegression@@8 ; CLinearRegression::`RTTI Base Class Array'
	DD	FLAT:??_R1A@?0A@EA@CTwoPointElement@@8
	DD	FLAT:??_R1A@?0A@EA@CElement@@8
rdata$r	ENDS
;	COMDAT ??_R3CLinearRegression@@8
rdata$r	SEGMENT
??_R3CLinearRegression@@8 DD 00H			; CLinearRegression::`RTTI Class Hierarchy Descriptor'
	DD	00H
	DD	03H
	DD	FLAT:??_R2CLinearRegression@@8
rdata$r	ENDS
;	COMDAT ??_R0?AVCLinearRegression@@@8
data$rs	SEGMENT
??_R0?AVCLinearRegression@@@8 DD FLAT:??_7type_info@@6B@ ; CLinearRegression `RTTI Type Descriptor'
	DD	00H
	DB	'.?AVCLinearRegression@@', 00H
data$rs	ENDS
;	COMDAT ??_R4CLinearRegression@@6B@
rdata$r	SEGMENT
??_R4CLinearRegression@@6B@ DD 00H			; CLinearRegression::`RTTI Complete Object Locator'
	DD	00H
	DD	00H
	DD	FLAT:??_R0?AVCLinearRegression@@@8
	DD	FLAT:??_R3CLinearRegression@@8
rdata$r	ENDS
;	COMDAT ??_R1A@?0A@EA@CSpeedArc@@8
rdata$r	SEGMENT
??_R1A@?0A@EA@CSpeedArc@@8 DD FLAT:??_R0?AVCSpeedArc@@@8 ; CSpeedArc::`RTTI Base Class Descriptor at (0,-1,0,64)'
	DD	02H
	DD	00H
	DD	0ffffffffH
	DD	00H
	DD	040H
	DD	FLAT:??_R3CSpeedArc@@8
rdata$r	ENDS
;	COMDAT ??_R2CSpeedArc@@8
rdata$r	SEGMENT
??_R2CSpeedArc@@8 DD FLAT:??_R1A@?0A@EA@CSpeedArc@@8	; CSpeedArc::`RTTI Base Class Array'
	DD	FLAT:??_R1A@?0A@EA@CTwoPointElement@@8
	DD	FLAT:??_R1A@?0A@EA@CElement@@8
rdata$r	ENDS
;	COMDAT ??_R3CSpeedArc@@8
rdata$r	SEGMENT
??_R3CSpeedArc@@8 DD 00H				; CSpeedArc::`RTTI Class Hierarchy Descriptor'
	DD	00H
	DD	03H
	DD	FLAT:??_R2CSpeedArc@@8
rdata$r	ENDS
;	COMDAT ??_R0?AVCSpeedArc@@@8
data$rs	SEGMENT
??_R0?AVCSpeedArc@@@8 DD FLAT:??_7type_info@@6B@	; CSpeedArc `RTTI Type Descriptor'
	DD	00H
	DB	'.?AVCSpeedArc@@', 00H
data$rs	ENDS
;	COMDAT ??_R4CSpeedArc@@6B@
rdata$r	SEGMENT
??_R4CSpeedArc@@6B@ DD 00H				; CSpeedArc::`RTTI Complete Object Locator'
	DD	00H
	DD	00H
	DD	FLAT:??_R0?AVCSpeedArc@@@8
	DD	FLAT:??_R3CSpeedArc@@8
rdata$r	ENDS
;	COMDAT ??_R1A@?0A@EA@CSpeedFan@@8
rdata$r	SEGMENT
??_R1A@?0A@EA@CSpeedFan@@8 DD FLAT:??_R0?AVCSpeedFan@@@8 ; CSpeedFan::`RTTI Base Class Descriptor at (0,-1,0,64)'
	DD	02H
	DD	00H
	DD	0ffffffffH
	DD	00H
	DD	040H
	DD	FLAT:??_R3CSpeedFan@@8
rdata$r	ENDS
;	COMDAT ??_R2CSpeedFan@@8
rdata$r	SEGMENT
??_R2CSpeedFan@@8 DD FLAT:??_R1A@?0A@EA@CSpeedFan@@8	; CSpeedFan::`RTTI Base Class Array'
	DD	FLAT:??_R1A@?0A@EA@CTwoPointElement@@8
	DD	FLAT:??_R1A@?0A@EA@CElement@@8
rdata$r	ENDS
;	COMDAT ??_R3CSpeedFan@@8
rdata$r	SEGMENT
??_R3CSpeedFan@@8 DD 00H				; CSpeedFan::`RTTI Class Hierarchy Descriptor'
	DD	00H
	DD	03H
	DD	FLAT:??_R2CSpeedFan@@8
rdata$r	ENDS
;	COMDAT ??_R0?AVCSpeedFan@@@8
data$rs	SEGMENT
??_R0?AVCSpeedFan@@@8 DD FLAT:??_7type_info@@6B@	; CSpeedFan `RTTI Type Descriptor'
	DD	00H
	DB	'.?AVCSpeedFan@@', 00H
data$rs	ENDS
;	COMDAT ??_R4CSpeedFan@@6B@
rdata$r	SEGMENT
??_R4CSpeedFan@@6B@ DD 00H				; CSpeedFan::`RTTI Complete Object Locator'
	DD	00H
	DD	00H
	DD	FLAT:??_R0?AVCSpeedFan@@@8
	DD	FLAT:??_R3CSpeedFan@@8
rdata$r	ENDS
;	COMDAT ??_R1A@?0A@EA@CSpeedLine@@8
rdata$r	SEGMENT
??_R1A@?0A@EA@CSpeedLine@@8 DD FLAT:??_R0?AVCSpeedLine@@@8 ; CSpeedLine::`RTTI Base Class Descriptor at (0,-1,0,64)'
	DD	02H
	DD	00H
	DD	0ffffffffH
	DD	00H
	DD	040H
	DD	FLAT:??_R3CSpeedLine@@8
rdata$r	ENDS
;	COMDAT ??_R2CSpeedLine@@8
rdata$r	SEGMENT
??_R2CSpeedLine@@8 DD FLAT:??_R1A@?0A@EA@CSpeedLine@@8	; CSpeedLine::`RTTI Base Class Array'
	DD	FLAT:??_R1A@?0A@EA@CTwoPointElement@@8
	DD	FLAT:??_R1A@?0A@EA@CElement@@8
rdata$r	ENDS
;	COMDAT ??_R3CSpeedLine@@8
rdata$r	SEGMENT
??_R3CSpeedLine@@8 DD 00H				; CSpeedLine::`RTTI Class Hierarchy Descriptor'
	DD	00H
	DD	03H
	DD	FLAT:??_R2CSpeedLine@@8
rdata$r	ENDS
;	COMDAT ??_R0?AVCSpeedLine@@@8
data$rs	SEGMENT
??_R0?AVCSpeedLine@@@8 DD FLAT:??_7type_info@@6B@	; CSpeedLine `RTTI Type Descriptor'
	DD	00H
	DB	'.?AVCSpeedLine@@', 00H
data$rs	ENDS
;	COMDAT ??_R4CSpeedLine@@6B@
rdata$r	SEGMENT
??_R4CSpeedLine@@6B@ DD 00H				; CSpeedLine::`RTTI Complete Object Locator'
	DD	00H
	DD	00H
	DD	FLAT:??_R0?AVCSpeedLine@@@8
	DD	FLAT:??_R3CSpeedLine@@8
rdata$r	ENDS
;	COMDAT ??_R1A@?0A@EA@CCycleLines@@8
rdata$r	SEGMENT
??_R1A@?0A@EA@CCycleLines@@8 DD FLAT:??_R0?AVCCycleLines@@@8 ; CCycleLines::`RTTI Base Class Descriptor at (0,-1,0,64)'
	DD	02H
	DD	00H
	DD	0ffffffffH
	DD	00H
	DD	040H
	DD	FLAT:??_R3CCycleLines@@8
rdata$r	ENDS
;	COMDAT ??_R2CCycleLines@@8
rdata$r	SEGMENT
??_R2CCycleLines@@8 DD FLAT:??_R1A@?0A@EA@CCycleLines@@8 ; CCycleLines::`RTTI Base Class Array'
	DD	FLAT:??_R1A@?0A@EA@CTwoPointElement@@8
	DD	FLAT:??_R1A@?0A@EA@CElement@@8
rdata$r	ENDS
;	COMDAT ??_R3CCycleLines@@8
rdata$r	SEGMENT
??_R3CCycleLines@@8 DD 00H				; CCycleLines::`RTTI Class Hierarchy Descriptor'
	DD	00H
	DD	03H
	DD	FLAT:??_R2CCycleLines@@8
rdata$r	ENDS
;	COMDAT ??_R0?AVCCycleLines@@@8
data$rs	SEGMENT
??_R0?AVCCycleLines@@@8 DD FLAT:??_7type_info@@6B@	; CCycleLines `RTTI Type Descriptor'
	DD	00H
	DB	'.?AVCCycleLines@@', 00H
data$rs	ENDS
;	COMDAT ??_R4CCycleLines@@6B@
rdata$r	SEGMENT
??_R4CCycleLines@@6B@ DD 00H				; CCycleLines::`RTTI Complete Object Locator'
	DD	00H
	DD	00H
	DD	FLAT:??_R0?AVCCycleLines@@@8
	DD	FLAT:??_R3CCycleLines@@8
rdata$r	ENDS
;	COMDAT ??_R2CThreePointElement@@8
rdata$r	SEGMENT
??_R2CThreePointElement@@8 DD FLAT:??_R1A@?0A@EA@CThreePointElement@@8 ; CThreePointElement::`RTTI Base Class Array'
	DD	FLAT:??_R1A@?0A@EA@CElement@@8
rdata$r	ENDS
;	COMDAT ??_R3CThreePointElement@@8
rdata$r	SEGMENT
??_R3CThreePointElement@@8 DD 00H			; CThreePointElement::`RTTI Class Hierarchy Descriptor'
	DD	00H
	DD	02H
	DD	FLAT:??_R2CThreePointElement@@8
rdata$r	ENDS
;	COMDAT ??_R0?AVCThreePointElement@@@8
data$rs	SEGMENT
??_R0?AVCThreePointElement@@@8 DD FLAT:??_7type_info@@6B@ ; CThreePointElement `RTTI Type Descriptor'
	DD	00H
	DB	'.?AVCThreePointElement@@', 00H
data$rs	ENDS
;	COMDAT ??_R1A@?0A@EA@CThreePointElement@@8
rdata$r	SEGMENT
??_R1A@?0A@EA@CThreePointElement@@8 DD FLAT:??_R0?AVCThreePointElement@@@8 ; CThreePointElement::`RTTI Base Class Descriptor at (0,-1,0,64)'
	DD	01H
	DD	00H
	DD	0ffffffffH
	DD	00H
	DD	040H
	DD	FLAT:??_R3CThreePointElement@@8
rdata$r	ENDS
;	COMDAT ??_R1A@?0A@EA@CAndrewsPitchfork@@8
rdata$r	SEGMENT
??_R1A@?0A@EA@CAndrewsPitchfork@@8 DD FLAT:??_R0?AVCAndrewsPitchfork@@@8 ; CAndrewsPitchfork::`RTTI Base Class Descriptor at (0,-1,0,64)'
	DD	02H
	DD	00H
	DD	0ffffffffH
	DD	00H
	DD	040H
	DD	FLAT:??_R3CAndrewsPitchfork@@8
rdata$r	ENDS
;	COMDAT ??_R2CAndrewsPitchfork@@8
rdata$r	SEGMENT
??_R2CAndrewsPitchfork@@8 DD FLAT:??_R1A@?0A@EA@CAndrewsPitchfork@@8 ; CAndrewsPitchfork::`RTTI Base Class Array'
	DD	FLAT:??_R1A@?0A@EA@CThreePointElement@@8
	DD	FLAT:??_R1A@?0A@EA@CElement@@8
rdata$r	ENDS
;	COMDAT ??_R3CAndrewsPitchfork@@8
rdata$r	SEGMENT
??_R3CAndrewsPitchfork@@8 DD 00H			; CAndrewsPitchfork::`RTTI Class Hierarchy Descriptor'
	DD	00H
	DD	03H
	DD	FLAT:??_R2CAndrewsPitchfork@@8
rdata$r	ENDS
;	COMDAT ??_R0?AVCAndrewsPitchfork@@@8
data$rs	SEGMENT
??_R0?AVCAndrewsPitchfork@@@8 DD FLAT:??_7type_info@@6B@ ; CAndrewsPitchfork `RTTI Type Descriptor'
	DD	00H
	DB	'.?AVCAndrewsPitchfork@@', 00H
data$rs	ENDS
;	COMDAT ??_R4CAndrewsPitchfork@@6B@
rdata$r	SEGMENT
??_R4CAndrewsPitchfork@@6B@ DD 00H			; CAndrewsPitchfork::`RTTI Complete Object Locator'
	DD	00H
	DD	00H
	DD	FLAT:??_R0?AVCAndrewsPitchfork@@@8
	DD	FLAT:??_R3CAndrewsPitchfork@@8
rdata$r	ENDS
;	COMDAT ??_R1A@?0A@EA@CQuadrisectLine@@8
rdata$r	SEGMENT
??_R1A@?0A@EA@CQuadrisectLine@@8 DD FLAT:??_R0?AVCQuadrisectLine@@@8 ; CQuadrisectLine::`RTTI Base Class Descriptor at (0,-1,0,64)'
	DD	03H
	DD	00H
	DD	0ffffffffH
	DD	00H
	DD	040H
	DD	FLAT:??_R3CQuadrisectLine@@8
rdata$r	ENDS
;	COMDAT ??_R2CQuadrisectLine@@8
rdata$r	SEGMENT
??_R2CQuadrisectLine@@8 DD FLAT:??_R1A@?0A@EA@CQuadrisectLine@@8 ; CQuadrisectLine::`RTTI Base Class Array'
	DD	FLAT:??_R1A@?0A@EA@CEqualDivisionLine@@8
	DD	FLAT:??_R1A@?0A@EA@CTwoPointElement@@8
	DD	FLAT:??_R1A@?0A@EA@CElement@@8
rdata$r	ENDS
;	COMDAT ??_R3CQuadrisectLine@@8
rdata$r	SEGMENT
??_R3CQuadrisectLine@@8 DD 00H				; CQuadrisectLine::`RTTI Class Hierarchy Descriptor'
	DD	00H
	DD	04H
	DD	FLAT:??_R2CQuadrisectLine@@8
rdata$r	ENDS
;	COMDAT ??_R0?AVCQuadrisectLine@@@8
data$rs	SEGMENT
??_R0?AVCQuadrisectLine@@@8 DD FLAT:??_7type_info@@6B@	; CQuadrisectLine `RTTI Type Descriptor'
	DD	00H
	DB	'.?AVCQuadrisectLine@@', 00H
data$rs	ENDS
;	COMDAT ??_R4CQuadrisectLine@@6B@
rdata$r	SEGMENT
??_R4CQuadrisectLine@@6B@ DD 00H			; CQuadrisectLine::`RTTI Complete Object Locator'
	DD	00H
	DD	00H
	DD	FLAT:??_R0?AVCQuadrisectLine@@@8
	DD	FLAT:??_R3CQuadrisectLine@@8
rdata$r	ENDS
;	COMDAT ??_R1A@?0A@EA@CTrisectionLine@@8
rdata$r	SEGMENT
??_R1A@?0A@EA@CTrisectionLine@@8 DD FLAT:??_R0?AVCTrisectionLine@@@8 ; CTrisectionLine::`RTTI Base Class Descriptor at (0,-1,0,64)'
	DD	03H
	DD	00H
	DD	0ffffffffH
	DD	00H
	DD	040H
	DD	FLAT:??_R3CTrisectionLine@@8
rdata$r	ENDS
;	COMDAT ??_R2CTrisectionLine@@8
rdata$r	SEGMENT
??_R2CTrisectionLine@@8 DD FLAT:??_R1A@?0A@EA@CTrisectionLine@@8 ; CTrisectionLine::`RTTI Base Class Array'
	DD	FLAT:??_R1A@?0A@EA@CEqualDivisionLine@@8
	DD	FLAT:??_R1A@?0A@EA@CTwoPointElement@@8
	DD	FLAT:??_R1A@?0A@EA@CElement@@8
rdata$r	ENDS
;	COMDAT ??_R3CTrisectionLine@@8
rdata$r	SEGMENT
??_R3CTrisectionLine@@8 DD 00H				; CTrisectionLine::`RTTI Class Hierarchy Descriptor'
	DD	00H
	DD	04H
	DD	FLAT:??_R2CTrisectionLine@@8
rdata$r	ENDS
;	COMDAT ??_R0?AVCTrisectionLine@@@8
data$rs	SEGMENT
??_R0?AVCTrisectionLine@@@8 DD FLAT:??_7type_info@@6B@	; CTrisectionLine `RTTI Type Descriptor'
	DD	00H
	DB	'.?AVCTrisectionLine@@', 00H
data$rs	ENDS
;	COMDAT ??_R4CTrisectionLine@@6B@
rdata$r	SEGMENT
??_R4CTrisectionLine@@6B@ DD 00H			; CTrisectionLine::`RTTI Complete Object Locator'
	DD	00H
	DD	00H
	DD	FLAT:??_R0?AVCTrisectionLine@@@8
	DD	FLAT:??_R3CTrisectionLine@@8
rdata$r	ENDS
;	COMDAT ??_R1A@?0A@EA@CEqualDivisionLine@@8
rdata$r	SEGMENT
??_R1A@?0A@EA@CEqualDivisionLine@@8 DD FLAT:??_R0?AVCEqualDivisionLine@@@8 ; CEqualDivisionLine::`RTTI Base Class Descriptor at (0,-1,0,64)'
	DD	02H
	DD	00H
	DD	0ffffffffH
	DD	00H
	DD	040H
	DD	FLAT:??_R3CEqualDivisionLine@@8
rdata$r	ENDS
;	COMDAT ??_R2CEqualDivisionLine@@8
rdata$r	SEGMENT
??_R2CEqualDivisionLine@@8 DD FLAT:??_R1A@?0A@EA@CEqualDivisionLine@@8 ; CEqualDivisionLine::`RTTI Base Class Array'
	DD	FLAT:??_R1A@?0A@EA@CTwoPointElement@@8
	DD	FLAT:??_R1A@?0A@EA@CElement@@8
rdata$r	ENDS
;	COMDAT ??_R3CEqualDivisionLine@@8
rdata$r	SEGMENT
??_R3CEqualDivisionLine@@8 DD 00H			; CEqualDivisionLine::`RTTI Class Hierarchy Descriptor'
	DD	00H
	DD	03H
	DD	FLAT:??_R2CEqualDivisionLine@@8
rdata$r	ENDS
;	COMDAT ??_R0?AVCEqualDivisionLine@@@8
data$rs	SEGMENT
??_R0?AVCEqualDivisionLine@@@8 DD FLAT:??_7type_info@@6B@ ; CEqualDivisionLine `RTTI Type Descriptor'
	DD	00H
	DB	'.?AVCEqualDivisionLine@@', 00H
data$rs	ENDS
;	COMDAT ??_R4CEqualDivisionLine@@6B@
rdata$r	SEGMENT
??_R4CEqualDivisionLine@@6B@ DD 00H			; CEqualDivisionLine::`RTTI Complete Object Locator'
	DD	00H
	DD	00H
	DD	FLAT:??_R0?AVCEqualDivisionLine@@@8
	DD	FLAT:??_R3CEqualDivisionLine@@8
rdata$r	ENDS
;	COMDAT ??_R1A@?0A@EA@CCrossLine@@8
rdata$r	SEGMENT
??_R1A@?0A@EA@CCrossLine@@8 DD FLAT:??_R0?AVCCrossLine@@@8 ; CCrossLine::`RTTI Base Class Descriptor at (0,-1,0,64)'
	DD	03H
	DD	00H
	DD	0ffffffffH
	DD	00H
	DD	040H
	DD	FLAT:??_R3CCrossLine@@8
rdata$r	ENDS
;	COMDAT ??_R2CCrossLine@@8
rdata$r	SEGMENT
??_R2CCrossLine@@8 DD FLAT:??_R1A@?0A@EA@CCrossLine@@8	; CCrossLine::`RTTI Base Class Array'
	DD	FLAT:??_R1A@?0A@EA@CVertElement@@8
	DD	FLAT:??_R1A@?0A@EA@COnePointElement@@8
	DD	FLAT:??_R1A@?0A@EA@CElement@@8
rdata$r	ENDS
;	COMDAT ??_R3CCrossLine@@8
rdata$r	SEGMENT
??_R3CCrossLine@@8 DD 00H				; CCrossLine::`RTTI Class Hierarchy Descriptor'
	DD	00H
	DD	04H
	DD	FLAT:??_R2CCrossLine@@8
rdata$r	ENDS
;	COMDAT ??_R0?AVCCrossLine@@@8
data$rs	SEGMENT
??_R0?AVCCrossLine@@@8 DD FLAT:??_7type_info@@6B@	; CCrossLine `RTTI Type Descriptor'
	DD	00H
	DB	'.?AVCCrossLine@@', 00H
data$rs	ENDS
;	COMDAT ??_R4CCrossLine@@6B@
rdata$r	SEGMENT
??_R4CCrossLine@@6B@ DD 00H				; CCrossLine::`RTTI Complete Object Locator'
	DD	00H
	DD	00H
	DD	FLAT:??_R0?AVCCrossLine@@@8
	DD	FLAT:??_R3CCrossLine@@8
rdata$r	ENDS
;	COMDAT ??_R1A@?0A@EA@CHorzLine@@8
rdata$r	SEGMENT
??_R1A@?0A@EA@CHorzLine@@8 DD FLAT:??_R0?AVCHorzLine@@@8 ; CHorzLine::`RTTI Base Class Descriptor at (0,-1,0,64)'
	DD	02H
	DD	00H
	DD	0ffffffffH
	DD	00H
	DD	040H
	DD	FLAT:??_R3CHorzLine@@8
rdata$r	ENDS
;	COMDAT ??_R2CHorzLine@@8
rdata$r	SEGMENT
??_R2CHorzLine@@8 DD FLAT:??_R1A@?0A@EA@CHorzLine@@8	; CHorzLine::`RTTI Base Class Array'
	DD	FLAT:??_R1A@?0A@EA@COnePointElement@@8
	DD	FLAT:??_R1A@?0A@EA@CElement@@8
rdata$r	ENDS
;	COMDAT ??_R3CHorzLine@@8
rdata$r	SEGMENT
??_R3CHorzLine@@8 DD 00H				; CHorzLine::`RTTI Class Hierarchy Descriptor'
	DD	00H
	DD	03H
	DD	FLAT:??_R2CHorzLine@@8
rdata$r	ENDS
;	COMDAT ??_R0?AVCHorzLine@@@8
data$rs	SEGMENT
??_R0?AVCHorzLine@@@8 DD FLAT:??_7type_info@@6B@	; CHorzLine `RTTI Type Descriptor'
	DD	00H
	DB	'.?AVCHorzLine@@', 00H
data$rs	ENDS
;	COMDAT ??_R4CHorzLine@@6B@
rdata$r	SEGMENT
??_R4CHorzLine@@6B@ DD 00H				; CHorzLine::`RTTI Complete Object Locator'
	DD	00H
	DD	00H
	DD	FLAT:??_R0?AVCHorzLine@@@8
	DD	FLAT:??_R3CHorzLine@@8
rdata$r	ENDS
;	COMDAT ??_R2COnePointElement@@8
rdata$r	SEGMENT
??_R2COnePointElement@@8 DD FLAT:??_R1A@?0A@EA@COnePointElement@@8 ; COnePointElement::`RTTI Base Class Array'
	DD	FLAT:??_R1A@?0A@EA@CElement@@8
rdata$r	ENDS
;	COMDAT ??_R3COnePointElement@@8
rdata$r	SEGMENT
??_R3COnePointElement@@8 DD 00H				; COnePointElement::`RTTI Class Hierarchy Descriptor'
	DD	00H
	DD	02H
	DD	FLAT:??_R2COnePointElement@@8
rdata$r	ENDS
;	COMDAT ??_R0?AVCOnePointElement@@@8
data$rs	SEGMENT
??_R0?AVCOnePointElement@@@8 DD FLAT:??_7type_info@@6B@	; COnePointElement `RTTI Type Descriptor'
	DD	00H
	DB	'.?AVCOnePointElement@@', 00H
data$rs	ENDS
;	COMDAT ??_R1A@?0A@EA@COnePointElement@@8
rdata$r	SEGMENT
??_R1A@?0A@EA@COnePointElement@@8 DD FLAT:??_R0?AVCOnePointElement@@@8 ; COnePointElement::`RTTI Base Class Descriptor at (0,-1,0,64)'
	DD	01H
	DD	00H
	DD	0ffffffffH
	DD	00H
	DD	040H
	DD	FLAT:??_R3COnePointElement@@8
rdata$r	ENDS
;	COMDAT ??_R2CVertElement@@8
rdata$r	SEGMENT
??_R2CVertElement@@8 DD FLAT:??_R1A@?0A@EA@CVertElement@@8 ; CVertElement::`RTTI Base Class Array'
	DD	FLAT:??_R1A@?0A@EA@COnePointElement@@8
	DD	FLAT:??_R1A@?0A@EA@CElement@@8
rdata$r	ENDS
;	COMDAT ??_R3CVertElement@@8
rdata$r	SEGMENT
??_R3CVertElement@@8 DD 00H				; CVertElement::`RTTI Class Hierarchy Descriptor'
	DD	00H
	DD	03H
	DD	FLAT:??_R2CVertElement@@8
rdata$r	ENDS
;	COMDAT ??_R0?AVCVertElement@@@8
data$rs	SEGMENT
??_R0?AVCVertElement@@@8 DD FLAT:??_7type_info@@6B@	; CVertElement `RTTI Type Descriptor'
	DD	00H
	DB	'.?AVCVertElement@@', 00H
data$rs	ENDS
;	COMDAT ??_R1A@?0A@EA@CVertElement@@8
rdata$r	SEGMENT
??_R1A@?0A@EA@CVertElement@@8 DD FLAT:??_R0?AVCVertElement@@@8 ; CVertElement::`RTTI Base Class Descriptor at (0,-1,0,64)'
	DD	02H
	DD	00H
	DD	0ffffffffH
	DD	00H
	DD	040H
	DD	FLAT:??_R3CVertElement@@8
rdata$r	ENDS
;	COMDAT ??_R1A@?0A@EA@CVertLine@@8
rdata$r	SEGMENT
??_R1A@?0A@EA@CVertLine@@8 DD FLAT:??_R0?AVCVertLine@@@8 ; CVertLine::`RTTI Base Class Descriptor at (0,-1,0,64)'
	DD	03H
	DD	00H
	DD	0ffffffffH
	DD	00H
	DD	040H
	DD	FLAT:??_R3CVertLine@@8
rdata$r	ENDS
;	COMDAT ??_R2CVertLine@@8
rdata$r	SEGMENT
??_R2CVertLine@@8 DD FLAT:??_R1A@?0A@EA@CVertLine@@8	; CVertLine::`RTTI Base Class Array'
	DD	FLAT:??_R1A@?0A@EA@CVertElement@@8
	DD	FLAT:??_R1A@?0A@EA@COnePointElement@@8
	DD	FLAT:??_R1A@?0A@EA@CElement@@8
rdata$r	ENDS
;	COMDAT ??_R3CVertLine@@8
rdata$r	SEGMENT
??_R3CVertLine@@8 DD 00H				; CVertLine::`RTTI Class Hierarchy Descriptor'
	DD	00H
	DD	04H
	DD	FLAT:??_R2CVertLine@@8
rdata$r	ENDS
;	COMDAT ??_R0?AVCVertLine@@@8
data$rs	SEGMENT
??_R0?AVCVertLine@@@8 DD FLAT:??_7type_info@@6B@	; CVertLine `RTTI Type Descriptor'
	DD	00H
	DB	'.?AVCVertLine@@', 00H
data$rs	ENDS
;	COMDAT ??_R4CVertLine@@6B@
rdata$r	SEGMENT
??_R4CVertLine@@6B@ DD 00H				; CVertLine::`RTTI Complete Object Locator'
	DD	00H
	DD	00H
	DD	FLAT:??_R0?AVCVertLine@@@8
	DD	FLAT:??_R3CVertLine@@8
rdata$r	ENDS
;	COMDAT ??_R2CTwoPointElement@@8
rdata$r	SEGMENT
??_R2CTwoPointElement@@8 DD FLAT:??_R1A@?0A@EA@CTwoPointElement@@8 ; CTwoPointElement::`RTTI Base Class Array'
	DD	FLAT:??_R1A@?0A@EA@CElement@@8
rdata$r	ENDS
;	COMDAT ??_R3CTwoPointElement@@8
rdata$r	SEGMENT
??_R3CTwoPointElement@@8 DD 00H				; CTwoPointElement::`RTTI Class Hierarchy Descriptor'
	DD	00H
	DD	02H
	DD	FLAT:??_R2CTwoPointElement@@8
rdata$r	ENDS
;	COMDAT ??_R0?AVCTwoPointElement@@@8
data$rs	SEGMENT
??_R0?AVCTwoPointElement@@@8 DD FLAT:??_7type_info@@6B@	; CTwoPointElement `RTTI Type Descriptor'
	DD	00H
	DB	'.?AVCTwoPointElement@@', 00H
data$rs	ENDS
;	COMDAT ??_R1A@?0A@EA@CTwoPointElement@@8
rdata$r	SEGMENT
??_R1A@?0A@EA@CTwoPointElement@@8 DD FLAT:??_R0?AVCTwoPointElement@@@8 ; CTwoPointElement::`RTTI Base Class Descriptor at (0,-1,0,64)'
	DD	01H
	DD	00H
	DD	0ffffffffH
	DD	00H
	DD	040H
	DD	FLAT:??_R3CTwoPointElement@@8
rdata$r	ENDS
;	COMDAT ??_R1A@?0A@EA@CLine@@8
rdata$r	SEGMENT
??_R1A@?0A@EA@CLine@@8 DD FLAT:??_R0?AVCLine@@@8	; CLine::`RTTI Base Class Descriptor at (0,-1,0,64)'
	DD	02H
	DD	00H
	DD	0ffffffffH
	DD	00H
	DD	040H
	DD	FLAT:??_R3CLine@@8
rdata$r	ENDS
;	COMDAT ??_R2CLine@@8
rdata$r	SEGMENT
??_R2CLine@@8 DD FLAT:??_R1A@?0A@EA@CLine@@8		; CLine::`RTTI Base Class Array'
	DD	FLAT:??_R1A@?0A@EA@CTwoPointElement@@8
	DD	FLAT:??_R1A@?0A@EA@CElement@@8
rdata$r	ENDS
;	COMDAT ??_R3CLine@@8
rdata$r	SEGMENT
??_R3CLine@@8 DD 00H					; CLine::`RTTI Class Hierarchy Descriptor'
	DD	00H
	DD	03H
	DD	FLAT:??_R2CLine@@8
rdata$r	ENDS
;	COMDAT ??_R0?AVCLine@@@8
data$rs	SEGMENT
??_R0?AVCLine@@@8 DD FLAT:??_7type_info@@6B@		; CLine `RTTI Type Descriptor'
	DD	00H
	DB	'.?AVCLine@@', 00H
data$rs	ENDS
;	COMDAT ??_R4CLine@@6B@
rdata$r	SEGMENT
??_R4CLine@@6B@ DD 00H					; CLine::`RTTI Complete Object Locator'
	DD	00H
	DD	00H
	DD	FLAT:??_R0?AVCLine@@@8
	DD	FLAT:??_R3CLine@@8
rdata$r	ENDS
;	COMDAT ??_R1A@?0A@EA@CAdjustRatioDrawer@@8
rdata$r	SEGMENT
??_R1A@?0A@EA@CAdjustRatioDrawer@@8 DD FLAT:??_R0?AVCAdjustRatioDrawer@@@8 ; CAdjustRatioDrawer::`RTTI Base Class Descriptor at (0,-1,0,64)'
	DD	02H
	DD	00H
	DD	0ffffffffH
	DD	00H
	DD	040H
	DD	FLAT:??_R3CAdjustRatioDrawer@@8
rdata$r	ENDS
;	COMDAT ??_R2CAdjustRatioDrawer@@8
rdata$r	SEGMENT
??_R2CAdjustRatioDrawer@@8 DD FLAT:??_R1A@?0A@EA@CAdjustRatioDrawer@@8 ; CAdjustRatioDrawer::`RTTI Base Class Array'
	DD	FLAT:??_R1A@?0A@EA@CThreePointDrawer@@8
	DD	FLAT:??_R13?0A@EA@CDrawer@@8
rdata$r	ENDS
;	COMDAT ??_R3CAdjustRatioDrawer@@8
rdata$r	SEGMENT
??_R3CAdjustRatioDrawer@@8 DD 00H			; CAdjustRatioDrawer::`RTTI Class Hierarchy Descriptor'
	DD	00H
	DD	03H
	DD	FLAT:??_R2CAdjustRatioDrawer@@8
rdata$r	ENDS
;	COMDAT ??_R0?AVCAdjustRatioDrawer@@@8
data$rs	SEGMENT
??_R0?AVCAdjustRatioDrawer@@@8 DD FLAT:??_7type_info@@6B@ ; CAdjustRatioDrawer `RTTI Type Descriptor'
	DD	00H
	DB	'.?AVCAdjustRatioDrawer@@', 00H
data$rs	ENDS
;	COMDAT ??_R4CAdjustRatioDrawer@@6B@
rdata$r	SEGMENT
??_R4CAdjustRatioDrawer@@6B@ DD 00H			; CAdjustRatioDrawer::`RTTI Complete Object Locator'
	DD	00H
	DD	00H
	DD	FLAT:??_R0?AVCAdjustRatioDrawer@@@8
	DD	FLAT:??_R3CAdjustRatioDrawer@@8
rdata$r	ENDS
;	COMDAT ??_R1A@?0A@EA@CElliotLineDrawer@@8
rdata$r	SEGMENT
??_R1A@?0A@EA@CElliotLineDrawer@@8 DD FLAT:??_R0?AVCElliotLineDrawer@@@8 ; CElliotLineDrawer::`RTTI Base Class Descriptor at (0,-1,0,64)'
	DD	02H
	DD	00H
	DD	0ffffffffH
	DD	00H
	DD	040H
	DD	FLAT:??_R3CElliotLineDrawer@@8
rdata$r	ENDS
;	COMDAT ??_R2CElliotLineDrawer@@8
rdata$r	SEGMENT
??_R2CElliotLineDrawer@@8 DD FLAT:??_R1A@?0A@EA@CElliotLineDrawer@@8 ; CElliotLineDrawer::`RTTI Base Class Array'
	DD	FLAT:??_R1A@?0A@EA@CTwoPointDrawer@@8
	DD	FLAT:??_R1A@33FA@CDrawer@@8
rdata$r	ENDS
;	COMDAT ??_R3CElliotLineDrawer@@8
rdata$r	SEGMENT
??_R3CElliotLineDrawer@@8 DD 00H			; CElliotLineDrawer::`RTTI Class Hierarchy Descriptor'
	DD	00H
	DD	03H
	DD	FLAT:??_R2CElliotLineDrawer@@8
rdata$r	ENDS
;	COMDAT ??_R0?AVCElliotLineDrawer@@@8
data$rs	SEGMENT
??_R0?AVCElliotLineDrawer@@@8 DD FLAT:??_7type_info@@6B@ ; CElliotLineDrawer `RTTI Type Descriptor'
	DD	00H
	DB	'.?AVCElliotLineDrawer@@', 00H
data$rs	ENDS
;	COMDAT ??_R4CElliotLineDrawer@@6B@
rdata$r	SEGMENT
??_R4CElliotLineDrawer@@6B@ DD 00H			; CElliotLineDrawer::`RTTI Complete Object Locator'
	DD	00H
	DD	00H
	DD	FLAT:??_R0?AVCElliotLineDrawer@@@8
	DD	FLAT:??_R3CElliotLineDrawer@@8
rdata$r	ENDS
;	COMDAT ??_R1A@?0A@EA@CPeriodSumLineDrawer@@8
rdata$r	SEGMENT
??_R1A@?0A@EA@CPeriodSumLineDrawer@@8 DD FLAT:??_R0?AVCPeriodSumLineDrawer@@@8 ; CPeriodSumLineDrawer::`RTTI Base Class Descriptor at (0,-1,0,64)'
	DD	02H
	DD	00H
	DD	0ffffffffH
	DD	00H
	DD	040H
	DD	FLAT:??_R3CPeriodSumLineDrawer@@8
rdata$r	ENDS
;	COMDAT ??_R2CPeriodSumLineDrawer@@8
rdata$r	SEGMENT
??_R2CPeriodSumLineDrawer@@8 DD FLAT:??_R1A@?0A@EA@CPeriodSumLineDrawer@@8 ; CPeriodSumLineDrawer::`RTTI Base Class Array'
	DD	FLAT:??_R1A@?0A@EA@CTwoPointDrawer@@8
	DD	FLAT:??_R1A@33FA@CDrawer@@8
rdata$r	ENDS
;	COMDAT ??_R3CPeriodSumLineDrawer@@8
rdata$r	SEGMENT
??_R3CPeriodSumLineDrawer@@8 DD 00H			; CPeriodSumLineDrawer::`RTTI Class Hierarchy Descriptor'
	DD	00H
	DD	03H
	DD	FLAT:??_R2CPeriodSumLineDrawer@@8
rdata$r	ENDS
;	COMDAT ??_R0?AVCPeriodSumLineDrawer@@@8
data$rs	SEGMENT
??_R0?AVCPeriodSumLineDrawer@@@8 DD FLAT:??_7type_info@@6B@ ; CPeriodSumLineDrawer `RTTI Type Descriptor'
	DD	00H
	DB	'.?AVCPeriodSumLineDrawer@@', 00H
data$rs	ENDS
;	COMDAT ??_R4CPeriodSumLineDrawer@@6B@
rdata$r	SEGMENT
??_R4CPeriodSumLineDrawer@@6B@ DD 00H			; CPeriodSumLineDrawer::`RTTI Complete Object Locator'
	DD	00H
	DD	00H
	DD	FLAT:??_R0?AVCPeriodSumLineDrawer@@@8
	DD	FLAT:??_R3CPeriodSumLineDrawer@@8
rdata$r	ENDS
;	COMDAT ??_R1A@?0A@EA@CPencilLineDrawer@@8
rdata$r	SEGMENT
??_R1A@?0A@EA@CPencilLineDrawer@@8 DD FLAT:??_R0?AVCPencilLineDrawer@@@8 ; CPencilLineDrawer::`RTTI Base Class Descriptor at (0,-1,0,64)'
	DD	02H
	DD	00H
	DD	0ffffffffH
	DD	00H
	DD	040H
	DD	FLAT:??_R3CPencilLineDrawer@@8
rdata$r	ENDS
;	COMDAT ??_R2CPencilLineDrawer@@8
rdata$r	SEGMENT
??_R2CPencilLineDrawer@@8 DD FLAT:??_R1A@?0A@EA@CPencilLineDrawer@@8 ; CPencilLineDrawer::`RTTI Base Class Array'
	DD	FLAT:??_R1A@?0A@EA@CMultiPointDrawer@@8
	DD	FLAT:??_R13?0A@EA@CDrawer@@8
rdata$r	ENDS
;	COMDAT ??_R3CPencilLineDrawer@@8
rdata$r	SEGMENT
??_R3CPencilLineDrawer@@8 DD 00H			; CPencilLineDrawer::`RTTI Class Hierarchy Descriptor'
	DD	00H
	DD	03H
	DD	FLAT:??_R2CPencilLineDrawer@@8
rdata$r	ENDS
;	COMDAT ??_R0?AVCPencilLineDrawer@@@8
data$rs	SEGMENT
??_R0?AVCPencilLineDrawer@@@8 DD FLAT:??_7type_info@@6B@ ; CPencilLineDrawer `RTTI Type Descriptor'
	DD	00H
	DB	'.?AVCPencilLineDrawer@@', 00H
data$rs	ENDS
;	COMDAT ??_R4CPencilLineDrawer@@6B@
rdata$r	SEGMENT
??_R4CPencilLineDrawer@@6B@ DD 00H			; CPencilLineDrawer::`RTTI Complete Object Locator'
	DD	00H
	DD	00H
	DD	FLAT:??_R0?AVCPencilLineDrawer@@@8
	DD	FLAT:??_R3CPencilLineDrawer@@8
rdata$r	ENDS
;	COMDAT ??_R1A@?0A@EA@CCandleBongDrawer@@8
rdata$r	SEGMENT
??_R1A@?0A@EA@CCandleBongDrawer@@8 DD FLAT:??_R0?AVCCandleBongDrawer@@@8 ; CCandleBongDrawer::`RTTI Base Class Descriptor at (0,-1,0,64)'
	DD	02H
	DD	00H
	DD	0ffffffffH
	DD	00H
	DD	040H
	DD	FLAT:??_R3CCandleBongDrawer@@8
rdata$r	ENDS
;	COMDAT ??_R2CCandleBongDrawer@@8
rdata$r	SEGMENT
??_R2CCandleBongDrawer@@8 DD FLAT:??_R1A@?0A@EA@CCandleBongDrawer@@8 ; CCandleBongDrawer::`RTTI Base Class Array'
	DD	FLAT:??_R1A@?0A@EA@CTwoPointDrawer@@8
	DD	FLAT:??_R1A@33FA@CDrawer@@8
rdata$r	ENDS
;	COMDAT ??_R3CCandleBongDrawer@@8
rdata$r	SEGMENT
??_R3CCandleBongDrawer@@8 DD 00H			; CCandleBongDrawer::`RTTI Class Hierarchy Descriptor'
	DD	00H
	DD	03H
	DD	FLAT:??_R2CCandleBongDrawer@@8
rdata$r	ENDS
;	COMDAT ??_R0?AVCCandleBongDrawer@@@8
data$rs	SEGMENT
??_R0?AVCCandleBongDrawer@@@8 DD FLAT:??_7type_info@@6B@ ; CCandleBongDrawer `RTTI Type Descriptor'
	DD	00H
	DB	'.?AVCCandleBongDrawer@@', 00H
data$rs	ENDS
;	COMDAT ??_R4CCandleBongDrawer@@6B@
rdata$r	SEGMENT
??_R4CCandleBongDrawer@@6B@ DD 00H			; CCandleBongDrawer::`RTTI Complete Object Locator'
	DD	00H
	DD	00H
	DD	FLAT:??_R0?AVCCandleBongDrawer@@@8
	DD	FLAT:??_R3CCandleBongDrawer@@8
rdata$r	ENDS
;	COMDAT ??_R1A@?0A@EA@CLinearRegressionDrawer@@8
rdata$r	SEGMENT
??_R1A@?0A@EA@CLinearRegressionDrawer@@8 DD FLAT:??_R0?AVCLinearRegressionDrawer@@@8 ; CLinearRegressionDrawer::`RTTI Base Class Descriptor at (0,-1,0,64)'
	DD	02H
	DD	00H
	DD	0ffffffffH
	DD	00H
	DD	040H
	DD	FLAT:??_R3CLinearRegressionDrawer@@8
rdata$r	ENDS
;	COMDAT ??_R2CLinearRegressionDrawer@@8
rdata$r	SEGMENT
??_R2CLinearRegressionDrawer@@8 DD FLAT:??_R1A@?0A@EA@CLinearRegressionDrawer@@8 ; CLinearRegressionDrawer::`RTTI Base Class Array'
	DD	FLAT:??_R1A@?0A@EA@CTwoPointDrawer@@8
	DD	FLAT:??_R1A@33FA@CDrawer@@8
rdata$r	ENDS
;	COMDAT ??_R3CLinearRegressionDrawer@@8
rdata$r	SEGMENT
??_R3CLinearRegressionDrawer@@8 DD 00H			; CLinearRegressionDrawer::`RTTI Class Hierarchy Descriptor'
	DD	00H
	DD	03H
	DD	FLAT:??_R2CLinearRegressionDrawer@@8
rdata$r	ENDS
;	COMDAT ??_R0?AVCLinearRegressionDrawer@@@8
data$rs	SEGMENT
??_R0?AVCLinearRegressionDrawer@@@8 DD FLAT:??_7type_info@@6B@ ; CLinearRegressionDrawer `RTTI Type Descriptor'
	DD	00H
	DB	'.?AVCLinearRegressionDrawer@@', 00H
data$rs	ENDS
;	COMDAT ??_R4CLinearRegressionDrawer@@6B@
rdata$r	SEGMENT
??_R4CLinearRegressionDrawer@@6B@ DD 00H		; CLinearRegressionDrawer::`RTTI Complete Object Locator'
	DD	00H
	DD	00H
	DD	FLAT:??_R0?AVCLinearRegressionDrawer@@@8
	DD	FLAT:??_R3CLinearRegressionDrawer@@8
rdata$r	ENDS
;	COMDAT ??_R1A@?0A@EA@CSpeedArcDrawer@@8
rdata$r	SEGMENT
??_R1A@?0A@EA@CSpeedArcDrawer@@8 DD FLAT:??_R0?AVCSpeedArcDrawer@@@8 ; CSpeedArcDrawer::`RTTI Base Class Descriptor at (0,-1,0,64)'
	DD	02H
	DD	00H
	DD	0ffffffffH
	DD	00H
	DD	040H
	DD	FLAT:??_R3CSpeedArcDrawer@@8
rdata$r	ENDS
;	COMDAT ??_R2CSpeedArcDrawer@@8
rdata$r	SEGMENT
??_R2CSpeedArcDrawer@@8 DD FLAT:??_R1A@?0A@EA@CSpeedArcDrawer@@8 ; CSpeedArcDrawer::`RTTI Base Class Array'
	DD	FLAT:??_R1A@?0A@EA@CTwoPointDrawer@@8
	DD	FLAT:??_R1A@33FA@CDrawer@@8
rdata$r	ENDS
;	COMDAT ??_R3CSpeedArcDrawer@@8
rdata$r	SEGMENT
??_R3CSpeedArcDrawer@@8 DD 00H				; CSpeedArcDrawer::`RTTI Class Hierarchy Descriptor'
	DD	00H
	DD	03H
	DD	FLAT:??_R2CSpeedArcDrawer@@8
rdata$r	ENDS
;	COMDAT ??_R0?AVCSpeedArcDrawer@@@8
data$rs	SEGMENT
??_R0?AVCSpeedArcDrawer@@@8 DD FLAT:??_7type_info@@6B@	; CSpeedArcDrawer `RTTI Type Descriptor'
	DD	00H
	DB	'.?AVCSpeedArcDrawer@@', 00H
data$rs	ENDS
;	COMDAT ??_R4CSpeedArcDrawer@@6B@
rdata$r	SEGMENT
??_R4CSpeedArcDrawer@@6B@ DD 00H			; CSpeedArcDrawer::`RTTI Complete Object Locator'
	DD	00H
	DD	00H
	DD	FLAT:??_R0?AVCSpeedArcDrawer@@@8
	DD	FLAT:??_R3CSpeedArcDrawer@@8
rdata$r	ENDS
;	COMDAT ??_R1A@?0A@EA@CSpeedFanDrawer@@8
rdata$r	SEGMENT
??_R1A@?0A@EA@CSpeedFanDrawer@@8 DD FLAT:??_R0?AVCSpeedFanDrawer@@@8 ; CSpeedFanDrawer::`RTTI Base Class Descriptor at (0,-1,0,64)'
	DD	02H
	DD	00H
	DD	0ffffffffH
	DD	00H
	DD	040H
	DD	FLAT:??_R3CSpeedFanDrawer@@8
rdata$r	ENDS
;	COMDAT ??_R2CSpeedFanDrawer@@8
rdata$r	SEGMENT
??_R2CSpeedFanDrawer@@8 DD FLAT:??_R1A@?0A@EA@CSpeedFanDrawer@@8 ; CSpeedFanDrawer::`RTTI Base Class Array'
	DD	FLAT:??_R1A@?0A@EA@CTwoPointDrawer@@8
	DD	FLAT:??_R1A@33FA@CDrawer@@8
rdata$r	ENDS
;	COMDAT ??_R3CSpeedFanDrawer@@8
rdata$r	SEGMENT
??_R3CSpeedFanDrawer@@8 DD 00H				; CSpeedFanDrawer::`RTTI Class Hierarchy Descriptor'
	DD	00H
	DD	03H
	DD	FLAT:??_R2CSpeedFanDrawer@@8
rdata$r	ENDS
;	COMDAT ??_R0?AVCSpeedFanDrawer@@@8
data$rs	SEGMENT
??_R0?AVCSpeedFanDrawer@@@8 DD FLAT:??_7type_info@@6B@	; CSpeedFanDrawer `RTTI Type Descriptor'
	DD	00H
	DB	'.?AVCSpeedFanDrawer@@', 00H
data$rs	ENDS
;	COMDAT ??_R4CSpeedFanDrawer@@6B@
rdata$r	SEGMENT
??_R4CSpeedFanDrawer@@6B@ DD 00H			; CSpeedFanDrawer::`RTTI Complete Object Locator'
	DD	00H
	DD	00H
	DD	FLAT:??_R0?AVCSpeedFanDrawer@@@8
	DD	FLAT:??_R3CSpeedFanDrawer@@8
rdata$r	ENDS
;	COMDAT ??_R1A@?0A@EA@CSpeedLineDrawer@@8
rdata$r	SEGMENT
??_R1A@?0A@EA@CSpeedLineDrawer@@8 DD FLAT:??_R0?AVCSpeedLineDrawer@@@8 ; CSpeedLineDrawer::`RTTI Base Class Descriptor at (0,-1,0,64)'
	DD	02H
	DD	00H
	DD	0ffffffffH
	DD	00H
	DD	040H
	DD	FLAT:??_R3CSpeedLineDrawer@@8
rdata$r	ENDS
;	COMDAT ??_R2CSpeedLineDrawer@@8
rdata$r	SEGMENT
??_R2CSpeedLineDrawer@@8 DD FLAT:??_R1A@?0A@EA@CSpeedLineDrawer@@8 ; CSpeedLineDrawer::`RTTI Base Class Array'
	DD	FLAT:??_R1A@?0A@EA@CTwoPointDrawer@@8
	DD	FLAT:??_R1A@33FA@CDrawer@@8
rdata$r	ENDS
;	COMDAT ??_R3CSpeedLineDrawer@@8
rdata$r	SEGMENT
??_R3CSpeedLineDrawer@@8 DD 00H				; CSpeedLineDrawer::`RTTI Class Hierarchy Descriptor'
	DD	00H
	DD	03H
	DD	FLAT:??_R2CSpeedLineDrawer@@8
rdata$r	ENDS
;	COMDAT ??_R0?AVCSpeedLineDrawer@@@8
data$rs	SEGMENT
??_R0?AVCSpeedLineDrawer@@@8 DD FLAT:??_7type_info@@6B@	; CSpeedLineDrawer `RTTI Type Descriptor'
	DD	00H
	DB	'.?AVCSpeedLineDrawer@@', 00H
data$rs	ENDS
;	COMDAT ??_R4CSpeedLineDrawer@@6B@
rdata$r	SEGMENT
??_R4CSpeedLineDrawer@@6B@ DD 00H			; CSpeedLineDrawer::`RTTI Complete Object Locator'
	DD	00H
	DD	00H
	DD	FLAT:??_R0?AVCSpeedLineDrawer@@@8
	DD	FLAT:??_R3CSpeedLineDrawer@@8
rdata$r	ENDS
;	COMDAT ??_R1A@?0A@EA@CCycleLinesDrawer@@8
rdata$r	SEGMENT
??_R1A@?0A@EA@CCycleLinesDrawer@@8 DD FLAT:??_R0?AVCCycleLinesDrawer@@@8 ; CCycleLinesDrawer::`RTTI Base Class Descriptor at (0,-1,0,64)'
	DD	02H
	DD	00H
	DD	0ffffffffH
	DD	00H
	DD	040H
	DD	FLAT:??_R3CCycleLinesDrawer@@8
rdata$r	ENDS
;	COMDAT ??_R2CCycleLinesDrawer@@8
rdata$r	SEGMENT
??_R2CCycleLinesDrawer@@8 DD FLAT:??_R1A@?0A@EA@CCycleLinesDrawer@@8 ; CCycleLinesDrawer::`RTTI Base Class Array'
	DD	FLAT:??_R1A@?0A@EA@CTwoPointDrawer@@8
	DD	FLAT:??_R1A@33FA@CDrawer@@8
rdata$r	ENDS
;	COMDAT ??_R3CCycleLinesDrawer@@8
rdata$r	SEGMENT
??_R3CCycleLinesDrawer@@8 DD 00H			; CCycleLinesDrawer::`RTTI Class Hierarchy Descriptor'
	DD	00H
	DD	03H
	DD	FLAT:??_R2CCycleLinesDrawer@@8
rdata$r	ENDS
;	COMDAT ??_R0?AVCCycleLinesDrawer@@@8
data$rs	SEGMENT
??_R0?AVCCycleLinesDrawer@@@8 DD FLAT:??_7type_info@@6B@ ; CCycleLinesDrawer `RTTI Type Descriptor'
	DD	00H
	DB	'.?AVCCycleLinesDrawer@@', 00H
data$rs	ENDS
;	COMDAT ??_R4CCycleLinesDrawer@@6B@
rdata$r	SEGMENT
??_R4CCycleLinesDrawer@@6B@ DD 00H			; CCycleLinesDrawer::`RTTI Complete Object Locator'
	DD	00H
	DD	00H
	DD	FLAT:??_R0?AVCCycleLinesDrawer@@@8
	DD	FLAT:??_R3CCycleLinesDrawer@@8
rdata$r	ENDS
;	COMDAT ??_R1A@?0A@EA@CAndrewsPitchforkDrawer@@8
rdata$r	SEGMENT
??_R1A@?0A@EA@CAndrewsPitchforkDrawer@@8 DD FLAT:??_R0?AVCAndrewsPitchforkDrawer@@@8 ; CAndrewsPitchforkDrawer::`RTTI Base Class Descriptor at (0,-1,0,64)'
	DD	02H
	DD	00H
	DD	0ffffffffH
	DD	00H
	DD	040H
	DD	FLAT:??_R3CAndrewsPitchforkDrawer@@8
rdata$r	ENDS
;	COMDAT ??_R2CAndrewsPitchforkDrawer@@8
rdata$r	SEGMENT
??_R2CAndrewsPitchforkDrawer@@8 DD FLAT:??_R1A@?0A@EA@CAndrewsPitchforkDrawer@@8 ; CAndrewsPitchforkDrawer::`RTTI Base Class Array'
	DD	FLAT:??_R1A@?0A@EA@CThreePointDrawer@@8
	DD	FLAT:??_R13?0A@EA@CDrawer@@8
rdata$r	ENDS
;	COMDAT ??_R3CAndrewsPitchforkDrawer@@8
rdata$r	SEGMENT
??_R3CAndrewsPitchforkDrawer@@8 DD 00H			; CAndrewsPitchforkDrawer::`RTTI Class Hierarchy Descriptor'
	DD	00H
	DD	03H
	DD	FLAT:??_R2CAndrewsPitchforkDrawer@@8
rdata$r	ENDS
;	COMDAT ??_R0?AVCAndrewsPitchforkDrawer@@@8
data$rs	SEGMENT
??_R0?AVCAndrewsPitchforkDrawer@@@8 DD FLAT:??_7type_info@@6B@ ; CAndrewsPitchforkDrawer `RTTI Type Descriptor'
	DD	00H
	DB	'.?AVCAndrewsPitchforkDrawer@@', 00H
data$rs	ENDS
;	COMDAT ??_R4CAndrewsPitchforkDrawer@@6B@
rdata$r	SEGMENT
??_R4CAndrewsPitchforkDrawer@@6B@ DD 00H		; CAndrewsPitchforkDrawer::`RTTI Complete Object Locator'
	DD	00H
	DD	00H
	DD	FLAT:??_R0?AVCAndrewsPitchforkDrawer@@@8
	DD	FLAT:??_R3CAndrewsPitchforkDrawer@@8
rdata$r	ENDS
;	COMDAT ??_R1A@?0A@EA@CQuadrisectLineDrawer@@8
rdata$r	SEGMENT
??_R1A@?0A@EA@CQuadrisectLineDrawer@@8 DD FLAT:??_R0?AVCQuadrisectLineDrawer@@@8 ; CQuadrisectLineDrawer::`RTTI Base Class Descriptor at (0,-1,0,64)'
	DD	03H
	DD	00H
	DD	0ffffffffH
	DD	00H
	DD	040H
	DD	FLAT:??_R3CQuadrisectLineDrawer@@8
rdata$r	ENDS
;	COMDAT ??_R2CQuadrisectLineDrawer@@8
rdata$r	SEGMENT
??_R2CQuadrisectLineDrawer@@8 DD FLAT:??_R1A@?0A@EA@CQuadrisectLineDrawer@@8 ; CQuadrisectLineDrawer::`RTTI Base Class Array'
	DD	FLAT:??_R1A@?0A@EA@CEqualDivisionLineDrawer@@8
	DD	FLAT:??_R1A@?0A@EA@CTwoPointDrawer@@8
	DD	FLAT:??_R1A@33FA@CDrawer@@8
rdata$r	ENDS
;	COMDAT ??_R3CQuadrisectLineDrawer@@8
rdata$r	SEGMENT
??_R3CQuadrisectLineDrawer@@8 DD 00H			; CQuadrisectLineDrawer::`RTTI Class Hierarchy Descriptor'
	DD	00H
	DD	04H
	DD	FLAT:??_R2CQuadrisectLineDrawer@@8
rdata$r	ENDS
;	COMDAT ??_R0?AVCQuadrisectLineDrawer@@@8
data$rs	SEGMENT
??_R0?AVCQuadrisectLineDrawer@@@8 DD FLAT:??_7type_info@@6B@ ; CQuadrisectLineDrawer `RTTI Type Descriptor'
	DD	00H
	DB	'.?AVCQuadrisectLineDrawer@@', 00H
data$rs	ENDS
;	COMDAT ??_R4CQuadrisectLineDrawer@@6B@
rdata$r	SEGMENT
??_R4CQuadrisectLineDrawer@@6B@ DD 00H			; CQuadrisectLineDrawer::`RTTI Complete Object Locator'
	DD	00H
	DD	00H
	DD	FLAT:??_R0?AVCQuadrisectLineDrawer@@@8
	DD	FLAT:??_R3CQuadrisectLineDrawer@@8
rdata$r	ENDS
;	COMDAT ??_R1A@?0A@EA@CTrisectionLineDrawer@@8
rdata$r	SEGMENT
??_R1A@?0A@EA@CTrisectionLineDrawer@@8 DD FLAT:??_R0?AVCTrisectionLineDrawer@@@8 ; CTrisectionLineDrawer::`RTTI Base Class Descriptor at (0,-1,0,64)'
	DD	03H
	DD	00H
	DD	0ffffffffH
	DD	00H
	DD	040H
	DD	FLAT:??_R3CTrisectionLineDrawer@@8
rdata$r	ENDS
;	COMDAT ??_R2CTrisectionLineDrawer@@8
rdata$r	SEGMENT
??_R2CTrisectionLineDrawer@@8 DD FLAT:??_R1A@?0A@EA@CTrisectionLineDrawer@@8 ; CTrisectionLineDrawer::`RTTI Base Class Array'
	DD	FLAT:??_R1A@?0A@EA@CEqualDivisionLineDrawer@@8
	DD	FLAT:??_R1A@?0A@EA@CTwoPointDrawer@@8
	DD	FLAT:??_R1A@33FA@CDrawer@@8
rdata$r	ENDS
;	COMDAT ??_R3CTrisectionLineDrawer@@8
rdata$r	SEGMENT
??_R3CTrisectionLineDrawer@@8 DD 00H			; CTrisectionLineDrawer::`RTTI Class Hierarchy Descriptor'
	DD	00H
	DD	04H
	DD	FLAT:??_R2CTrisectionLineDrawer@@8
rdata$r	ENDS
;	COMDAT ??_R0?AVCTrisectionLineDrawer@@@8
data$rs	SEGMENT
??_R0?AVCTrisectionLineDrawer@@@8 DD FLAT:??_7type_info@@6B@ ; CTrisectionLineDrawer `RTTI Type Descriptor'
	DD	00H
	DB	'.?AVCTrisectionLineDrawer@@', 00H
data$rs	ENDS
;	COMDAT ??_R4CTrisectionLineDrawer@@6B@
rdata$r	SEGMENT
??_R4CTrisectionLineDrawer@@6B@ DD 00H			; CTrisectionLineDrawer::`RTTI Complete Object Locator'
	DD	00H
	DD	00H
	DD	FLAT:??_R0?AVCTrisectionLineDrawer@@@8
	DD	FLAT:??_R3CTrisectionLineDrawer@@8
rdata$r	ENDS
;	COMDAT ??_R1A@?0A@EA@CEqualDivisionLineDrawer@@8
rdata$r	SEGMENT
??_R1A@?0A@EA@CEqualDivisionLineDrawer@@8 DD FLAT:??_R0?AVCEqualDivisionLineDrawer@@@8 ; CEqualDivisionLineDrawer::`RTTI Base Class Descriptor at (0,-1,0,64)'
	DD	02H
	DD	00H
	DD	0ffffffffH
	DD	00H
	DD	040H
	DD	FLAT:??_R3CEqualDivisionLineDrawer@@8
rdata$r	ENDS
;	COMDAT ??_R2CEqualDivisionLineDrawer@@8
rdata$r	SEGMENT
??_R2CEqualDivisionLineDrawer@@8 DD FLAT:??_R1A@?0A@EA@CEqualDivisionLineDrawer@@8 ; CEqualDivisionLineDrawer::`RTTI Base Class Array'
	DD	FLAT:??_R1A@?0A@EA@CTwoPointDrawer@@8
	DD	FLAT:??_R1A@33FA@CDrawer@@8
rdata$r	ENDS
;	COMDAT ??_R3CEqualDivisionLineDrawer@@8
rdata$r	SEGMENT
??_R3CEqualDivisionLineDrawer@@8 DD 00H			; CEqualDivisionLineDrawer::`RTTI Class Hierarchy Descriptor'
	DD	00H
	DD	03H
	DD	FLAT:??_R2CEqualDivisionLineDrawer@@8
rdata$r	ENDS
;	COMDAT ??_R0?AVCEqualDivisionLineDrawer@@@8
data$rs	SEGMENT
??_R0?AVCEqualDivisionLineDrawer@@@8 DD FLAT:??_7type_info@@6B@ ; CEqualDivisionLineDrawer `RTTI Type Descriptor'
	DD	00H
	DB	'.?AVCEqualDivisionLineDrawer@@', 00H
data$rs	ENDS
;	COMDAT ??_R4CEqualDivisionLineDrawer@@6B@
rdata$r	SEGMENT
??_R4CEqualDivisionLineDrawer@@6B@ DD 00H		; CEqualDivisionLineDrawer::`RTTI Complete Object Locator'
	DD	00H
	DD	00H
	DD	FLAT:??_R0?AVCEqualDivisionLineDrawer@@@8
	DD	FLAT:??_R3CEqualDivisionLineDrawer@@8
rdata$r	ENDS
;	COMDAT ??_R1A@?0A@EA@CHorzLineDrawer@@8
rdata$r	SEGMENT
??_R1A@?0A@EA@CHorzLineDrawer@@8 DD FLAT:??_R0?AVCHorzLineDrawer@@@8 ; CHorzLineDrawer::`RTTI Base Class Descriptor at (0,-1,0,64)'
	DD	02H
	DD	00H
	DD	0ffffffffH
	DD	00H
	DD	040H
	DD	FLAT:??_R3CHorzLineDrawer@@8
rdata$r	ENDS
;	COMDAT ??_R2CHorzLineDrawer@@8
rdata$r	SEGMENT
??_R2CHorzLineDrawer@@8 DD FLAT:??_R1A@?0A@EA@CHorzLineDrawer@@8 ; CHorzLineDrawer::`RTTI Base Class Array'
	DD	FLAT:??_R1A@A@7FA@COnePointDrawer@@8
	DD	FLAT:??_R1A@A@3FA@CDrawer@@8
rdata$r	ENDS
;	COMDAT ??_R3CHorzLineDrawer@@8
rdata$r	SEGMENT
??_R3CHorzLineDrawer@@8 DD 00H				; CHorzLineDrawer::`RTTI Class Hierarchy Descriptor'
	DD	00H
	DD	03H
	DD	FLAT:??_R2CHorzLineDrawer@@8
rdata$r	ENDS
;	COMDAT ??_R0?AVCHorzLineDrawer@@@8
data$rs	SEGMENT
??_R0?AVCHorzLineDrawer@@@8 DD FLAT:??_7type_info@@6B@	; CHorzLineDrawer `RTTI Type Descriptor'
	DD	00H
	DB	'.?AVCHorzLineDrawer@@', 00H
data$rs	ENDS
;	COMDAT ??_R1M@?0A@EN@CHorzLineDrawer@@8
rdata$r	SEGMENT
??_R1M@?0A@EN@CHorzLineDrawer@@8 DD FLAT:??_R0?AVCHorzLineDrawer@@@8 ; CHorzLineDrawer::`RTTI Base Class Descriptor at (12,-1,0,77)'
	DD	02H
	DD	0cH
	DD	0ffffffffH
	DD	00H
	DD	04dH
	DD	FLAT:??_R3CHorzLineDrawer@@8
rdata$r	ENDS
;	COMDAT ??_R1A@A@3FA@CDrawer@@8
rdata$r	SEGMENT
??_R1A@A@3FA@CDrawer@@8 DD FLAT:??_R0?AVCDrawer@@@8	; CDrawer::`RTTI Base Class Descriptor at (0,0,4,80)'
	DD	00H
	DD	00H
	DD	00H
	DD	04H
	DD	050H
	DD	FLAT:??_R3CDrawer@@8
rdata$r	ENDS
;	COMDAT ??_R1A@A@7FA@COnePointDrawer@@8
rdata$r	SEGMENT
??_R1A@A@7FA@COnePointDrawer@@8 DD FLAT:??_R0?AVCOnePointDrawer@@@8 ; COnePointDrawer::`RTTI Base Class Descriptor at (0,0,8,80)'
	DD	01H
	DD	00H
	DD	00H
	DD	08H
	DD	050H
	DD	FLAT:??_R3COnePointDrawer@@8
rdata$r	ENDS
;	COMDAT ??_R2CVertLineDrawer@@8
rdata$r	SEGMENT
??_R2CVertLineDrawer@@8 DD FLAT:??_R1A@?0A@EA@CVertLineDrawer@@8 ; CVertLineDrawer::`RTTI Base Class Array'
	DD	FLAT:??_R1A@A@7FA@COnePointDrawer@@8
	DD	FLAT:??_R1A@A@3FA@CDrawer@@8
rdata$r	ENDS
;	COMDAT ??_R3CVertLineDrawer@@8
rdata$r	SEGMENT
??_R3CVertLineDrawer@@8 DD 00H				; CVertLineDrawer::`RTTI Class Hierarchy Descriptor'
	DD	00H
	DD	03H
	DD	FLAT:??_R2CVertLineDrawer@@8
rdata$r	ENDS
;	COMDAT ??_R0?AVCVertLineDrawer@@@8
data$rs	SEGMENT
??_R0?AVCVertLineDrawer@@@8 DD FLAT:??_7type_info@@6B@	; CVertLineDrawer `RTTI Type Descriptor'
	DD	00H
	DB	'.?AVCVertLineDrawer@@', 00H
data$rs	ENDS
;	COMDAT ??_R1A@?0A@EA@CVertLineDrawer@@8
rdata$r	SEGMENT
??_R1A@?0A@EA@CVertLineDrawer@@8 DD FLAT:??_R0?AVCVertLineDrawer@@@8 ; CVertLineDrawer::`RTTI Base Class Descriptor at (0,-1,0,64)'
	DD	02H
	DD	00H
	DD	0ffffffffH
	DD	00H
	DD	040H
	DD	FLAT:??_R3CVertLineDrawer@@8
rdata$r	ENDS
;	COMDAT ??_R1A@?0A@EA@CCrossLineDrawer@@8
rdata$r	SEGMENT
??_R1A@?0A@EA@CCrossLineDrawer@@8 DD FLAT:??_R0?AVCCrossLineDrawer@@@8 ; CCrossLineDrawer::`RTTI Base Class Descriptor at (0,-1,0,64)'
	DD	06H
	DD	00H
	DD	0ffffffffH
	DD	00H
	DD	040H
	DD	FLAT:??_R3CCrossLineDrawer@@8
rdata$r	ENDS
;	COMDAT ??_R2CCrossLineDrawer@@8
rdata$r	SEGMENT
??_R2CCrossLineDrawer@@8 DD FLAT:??_R1A@?0A@EA@CCrossLineDrawer@@8 ; CCrossLineDrawer::`RTTI Base Class Array'
	DD	FLAT:??_R1A@?0A@EA@CVertLineDrawer@@8
	DD	FLAT:??_R1A@A@7FA@COnePointDrawer@@8
	DD	FLAT:??_R1A@A@3FA@CDrawer@@8
	DD	FLAT:??_R1M@?0A@EN@CHorzLineDrawer@@8
	DD	FLAT:??_R1A@A@7FA@COnePointDrawer@@8
	DD	FLAT:??_R1A@A@3FA@CDrawer@@8
rdata$r	ENDS
;	COMDAT ??_R3CCrossLineDrawer@@8
rdata$r	SEGMENT
??_R3CCrossLineDrawer@@8 DD 00H				; CCrossLineDrawer::`RTTI Class Hierarchy Descriptor'
	DD	03H
	DD	07H
	DD	FLAT:??_R2CCrossLineDrawer@@8
rdata$r	ENDS
;	COMDAT ??_R0?AVCCrossLineDrawer@@@8
data$rs	SEGMENT
??_R0?AVCCrossLineDrawer@@@8 DD FLAT:??_7type_info@@6B@	; CCrossLineDrawer `RTTI Type Descriptor'
	DD	00H
	DB	'.?AVCCrossLineDrawer@@', 00H
data$rs	ENDS
;	COMDAT ??_R4CCrossLineDrawer@@6B@
rdata$r	SEGMENT
??_R4CCrossLineDrawer@@6B@ DD 00H			; CCrossLineDrawer::`RTTI Complete Object Locator'
	DD	030H
	DD	04H
	DD	FLAT:??_R0?AVCCrossLineDrawer@@@8
	DD	FLAT:??_R3CCrossLineDrawer@@8
rdata$r	ENDS
;	COMDAT ??_R1A@?0A@EA@CMultiPointDrawer@@8
rdata$r	SEGMENT
??_R1A@?0A@EA@CMultiPointDrawer@@8 DD FLAT:??_R0?AVCMultiPointDrawer@@@8 ; CMultiPointDrawer::`RTTI Base Class Descriptor at (0,-1,0,64)'
	DD	01H
	DD	00H
	DD	0ffffffffH
	DD	00H
	DD	040H
	DD	FLAT:??_R3CMultiPointDrawer@@8
rdata$r	ENDS
;	COMDAT ??_R2CMultiPointDrawer@@8
rdata$r	SEGMENT
??_R2CMultiPointDrawer@@8 DD FLAT:??_R1A@?0A@EA@CMultiPointDrawer@@8 ; CMultiPointDrawer::`RTTI Base Class Array'
	DD	FLAT:??_R13?0A@EA@CDrawer@@8
rdata$r	ENDS
;	COMDAT ??_R3CMultiPointDrawer@@8
rdata$r	SEGMENT
??_R3CMultiPointDrawer@@8 DD 00H			; CMultiPointDrawer::`RTTI Class Hierarchy Descriptor'
	DD	00H
	DD	02H
	DD	FLAT:??_R2CMultiPointDrawer@@8
rdata$r	ENDS
;	COMDAT ??_R0?AVCMultiPointDrawer@@@8
data$rs	SEGMENT
??_R0?AVCMultiPointDrawer@@@8 DD FLAT:??_7type_info@@6B@ ; CMultiPointDrawer `RTTI Type Descriptor'
	DD	00H
	DB	'.?AVCMultiPointDrawer@@', 00H
data$rs	ENDS
;	COMDAT ??_R4CMultiPointDrawer@@6B@
rdata$r	SEGMENT
??_R4CMultiPointDrawer@@6B@ DD 00H			; CMultiPointDrawer::`RTTI Complete Object Locator'
	DD	00H
	DD	00H
	DD	FLAT:??_R0?AVCMultiPointDrawer@@@8
	DD	FLAT:??_R3CMultiPointDrawer@@8
rdata$r	ENDS
;	COMDAT ??_R13?0A@EA@CDrawer@@8
rdata$r	SEGMENT
??_R13?0A@EA@CDrawer@@8 DD FLAT:??_R0?AVCDrawer@@@8	; CDrawer::`RTTI Base Class Descriptor at (4,-1,0,64)'
	DD	00H
	DD	04H
	DD	0ffffffffH
	DD	00H
	DD	040H
	DD	FLAT:??_R3CDrawer@@8
rdata$r	ENDS
;	COMDAT ??_R1A@?0A@EA@CThreePointDrawer@@8
rdata$r	SEGMENT
??_R1A@?0A@EA@CThreePointDrawer@@8 DD FLAT:??_R0?AVCThreePointDrawer@@@8 ; CThreePointDrawer::`RTTI Base Class Descriptor at (0,-1,0,64)'
	DD	01H
	DD	00H
	DD	0ffffffffH
	DD	00H
	DD	040H
	DD	FLAT:??_R3CThreePointDrawer@@8
rdata$r	ENDS
;	COMDAT ??_R2CThreePointDrawer@@8
rdata$r	SEGMENT
??_R2CThreePointDrawer@@8 DD FLAT:??_R1A@?0A@EA@CThreePointDrawer@@8 ; CThreePointDrawer::`RTTI Base Class Array'
	DD	FLAT:??_R13?0A@EA@CDrawer@@8
rdata$r	ENDS
;	COMDAT ??_R3CThreePointDrawer@@8
rdata$r	SEGMENT
??_R3CThreePointDrawer@@8 DD 00H			; CThreePointDrawer::`RTTI Class Hierarchy Descriptor'
	DD	00H
	DD	02H
	DD	FLAT:??_R2CThreePointDrawer@@8
rdata$r	ENDS
;	COMDAT ??_R0?AVCThreePointDrawer@@@8
data$rs	SEGMENT
??_R0?AVCThreePointDrawer@@@8 DD FLAT:??_7type_info@@6B@ ; CThreePointDrawer `RTTI Type Descriptor'
	DD	00H
	DB	'.?AVCThreePointDrawer@@', 00H
data$rs	ENDS
;	COMDAT ??_R4CThreePointDrawer@@6B@
rdata$r	SEGMENT
??_R4CThreePointDrawer@@6B@ DD 00H			; CThreePointDrawer::`RTTI Complete Object Locator'
	DD	00H
	DD	00H
	DD	FLAT:??_R0?AVCThreePointDrawer@@@8
	DD	FLAT:??_R3CThreePointDrawer@@8
rdata$r	ENDS
;	COMDAT ??_R1A@?0A@EA@CTwoPointDrawer@@8
rdata$r	SEGMENT
??_R1A@?0A@EA@CTwoPointDrawer@@8 DD FLAT:??_R0?AVCTwoPointDrawer@@@8 ; CTwoPointDrawer::`RTTI Base Class Descriptor at (0,-1,0,64)'
	DD	01H
	DD	00H
	DD	0ffffffffH
	DD	00H
	DD	040H
	DD	FLAT:??_R3CTwoPointDrawer@@8
rdata$r	ENDS
;	COMDAT ??_R2CTwoPointDrawer@@8
rdata$r	SEGMENT
??_R2CTwoPointDrawer@@8 DD FLAT:??_R1A@?0A@EA@CTwoPointDrawer@@8 ; CTwoPointDrawer::`RTTI Base Class Array'
	DD	FLAT:??_R1A@33FA@CDrawer@@8
rdata$r	ENDS
;	COMDAT ??_R3CTwoPointDrawer@@8
rdata$r	SEGMENT
??_R3CTwoPointDrawer@@8 DD 00H				; CTwoPointDrawer::`RTTI Class Hierarchy Descriptor'
	DD	00H
	DD	02H
	DD	FLAT:??_R2CTwoPointDrawer@@8
rdata$r	ENDS
;	COMDAT ??_R0?AVCTwoPointDrawer@@@8
data$rs	SEGMENT
??_R0?AVCTwoPointDrawer@@@8 DD FLAT:??_7type_info@@6B@	; CTwoPointDrawer `RTTI Type Descriptor'
	DD	00H
	DB	'.?AVCTwoPointDrawer@@', 00H
data$rs	ENDS
;	COMDAT ??_R4CTwoPointDrawer@@6B@
rdata$r	SEGMENT
??_R4CTwoPointDrawer@@6B@ DD 00H			; CTwoPointDrawer::`RTTI Complete Object Locator'
	DD	00H
	DD	00H
	DD	FLAT:??_R0?AVCTwoPointDrawer@@@8
	DD	FLAT:??_R3CTwoPointDrawer@@8
rdata$r	ENDS
;	COMDAT ??_R1A@?0A@EA@CDrawer@@8
rdata$r	SEGMENT
??_R1A@?0A@EA@CDrawer@@8 DD FLAT:??_R0?AVCDrawer@@@8	; CDrawer::`RTTI Base Class Descriptor at (0,-1,0,64)'
	DD	00H
	DD	00H
	DD	0ffffffffH
	DD	00H
	DD	040H
	DD	FLAT:??_R3CDrawer@@8
rdata$r	ENDS
;	COMDAT ??_R2CDrawer@@8
rdata$r	SEGMENT
??_R2CDrawer@@8 DD FLAT:??_R1A@?0A@EA@CDrawer@@8	; CDrawer::`RTTI Base Class Array'
rdata$r	ENDS
;	COMDAT ??_R3CDrawer@@8
rdata$r	SEGMENT
??_R3CDrawer@@8 DD 00H					; CDrawer::`RTTI Class Hierarchy Descriptor'
	DD	00H
	DD	01H
	DD	FLAT:??_R2CDrawer@@8
rdata$r	ENDS
;	COMDAT ??_R0?AVCDrawer@@@8
data$rs	SEGMENT
??_R0?AVCDrawer@@@8 DD FLAT:??_7type_info@@6B@		; CDrawer `RTTI Type Descriptor'
	DD	00H
	DB	'.?AVCDrawer@@', 00H
data$rs	ENDS
;	COMDAT ??_R1A@33FA@CDrawer@@8
rdata$r	SEGMENT
??_R1A@33FA@CDrawer@@8 DD FLAT:??_R0?AVCDrawer@@@8	; CDrawer::`RTTI Base Class Descriptor at (0,4,4,80)'
	DD	00H
	DD	00H
	DD	04H
	DD	04H
	DD	050H
	DD	FLAT:??_R3CDrawer@@8
rdata$r	ENDS
;	COMDAT ??_R1A@?0A@EA@COnePointDrawer@@8
rdata$r	SEGMENT
??_R1A@?0A@EA@COnePointDrawer@@8 DD FLAT:??_R0?AVCOnePointDrawer@@@8 ; COnePointDrawer::`RTTI Base Class Descriptor at (0,-1,0,64)'
	DD	01H
	DD	00H
	DD	0ffffffffH
	DD	00H
	DD	040H
	DD	FLAT:??_R3COnePointDrawer@@8
rdata$r	ENDS
;	COMDAT ??_R2COnePointDrawer@@8
rdata$r	SEGMENT
??_R2COnePointDrawer@@8 DD FLAT:??_R1A@?0A@EA@COnePointDrawer@@8 ; COnePointDrawer::`RTTI Base Class Array'
	DD	FLAT:??_R1A@33FA@CDrawer@@8
rdata$r	ENDS
;	COMDAT ??_R3COnePointDrawer@@8
rdata$r	SEGMENT
??_R3COnePointDrawer@@8 DD 00H				; COnePointDrawer::`RTTI Class Hierarchy Descriptor'
	DD	00H
	DD	02H
	DD	FLAT:??_R2COnePointDrawer@@8
rdata$r	ENDS
;	COMDAT ??_R0?AVCOnePointDrawer@@@8
data$rs	SEGMENT
??_R0?AVCOnePointDrawer@@@8 DD FLAT:??_7type_info@@6B@	; COnePointDrawer `RTTI Type Descriptor'
	DD	00H
	DB	'.?AVCOnePointDrawer@@', 00H
data$rs	ENDS
;	COMDAT ??_R4COnePointDrawer@@6B@
rdata$r	SEGMENT
??_R4COnePointDrawer@@6B@ DD 00H			; COnePointDrawer::`RTTI Complete Object Locator'
	DD	00H
	DD	00H
	DD	FLAT:??_R0?AVCOnePointDrawer@@@8
	DD	FLAT:??_R3COnePointDrawer@@8
rdata$r	ENDS
;	COMDAT ??_R1A@?0A@EA@CElement@@8
rdata$r	SEGMENT
??_R1A@?0A@EA@CElement@@8 DD FLAT:??_R0?AVCElement@@@8	; CElement::`RTTI Base Class Descriptor at (0,-1,0,64)'
	DD	00H
	DD	00H
	DD	0ffffffffH
	DD	00H
	DD	040H
	DD	FLAT:??_R3CElement@@8
rdata$r	ENDS
;	COMDAT ??_R2CElement@@8
rdata$r	SEGMENT
??_R2CElement@@8 DD FLAT:??_R1A@?0A@EA@CElement@@8	; CElement::`RTTI Base Class Array'
rdata$r	ENDS
;	COMDAT ??_R3CElement@@8
rdata$r	SEGMENT
??_R3CElement@@8 DD 00H					; CElement::`RTTI Class Hierarchy Descriptor'
	DD	00H
	DD	01H
	DD	FLAT:??_R2CElement@@8
rdata$r	ENDS
;	COMDAT ??_R0?AVCElement@@@8
data$rs	SEGMENT
??_R0?AVCElement@@@8 DD FLAT:??_7type_info@@6B@		; CElement `RTTI Type Descriptor'
	DD	00H
	DB	'.?AVCElement@@', 00H
data$rs	ENDS
;	COMDAT ??_R4CElement@@6B@
rdata$r	SEGMENT
??_R4CElement@@6B@ DD 00H				; CElement::`RTTI Complete Object Locator'
	DD	00H
	DD	00H
	DD	FLAT:??_R0?AVCElement@@@8
	DD	FLAT:??_R3CElement@@8
rdata$r	ENDS
;	COMDAT ??_R1A@?0A@EA@CTextHorzVertPosition@@8
rdata$r	SEGMENT
??_R1A@?0A@EA@CTextHorzVertPosition@@8 DD FLAT:??_R0?AVCTextHorzVertPosition@@@8 ; CTextHorzVertPosition::`RTTI Base Class Descriptor at (0,-1,0,64)'
	DD	01H
	DD	00H
	DD	0ffffffffH
	DD	00H
	DD	040H
	DD	FLAT:??_R3CTextHorzVertPosition@@8
rdata$r	ENDS
;	COMDAT ??_R2CTextHorzVertPosition@@8
rdata$r	SEGMENT
??_R2CTextHorzVertPosition@@8 DD FLAT:??_R1A@?0A@EA@CTextHorzVertPosition@@8 ; CTextHorzVertPosition::`RTTI Base Class Array'
	DD	FLAT:??_R1A@?0A@EA@CTextPosition@@8
rdata$r	ENDS
;	COMDAT ??_R3CTextHorzVertPosition@@8
rdata$r	SEGMENT
??_R3CTextHorzVertPosition@@8 DD 00H			; CTextHorzVertPosition::`RTTI Class Hierarchy Descriptor'
	DD	00H
	DD	02H
	DD	FLAT:??_R2CTextHorzVertPosition@@8
rdata$r	ENDS
;	COMDAT ??_R0?AVCTextHorzVertPosition@@@8
data$rs	SEGMENT
??_R0?AVCTextHorzVertPosition@@@8 DD FLAT:??_7type_info@@6B@ ; CTextHorzVertPosition `RTTI Type Descriptor'
	DD	00H
	DB	'.?AVCTextHorzVertPosition@@', 00H
data$rs	ENDS
;	COMDAT ??_R4CTextHorzVertPosition@@6B@
rdata$r	SEGMENT
??_R4CTextHorzVertPosition@@6B@ DD 00H			; CTextHorzVertPosition::`RTTI Complete Object Locator'
	DD	00H
	DD	00H
	DD	FLAT:??_R0?AVCTextHorzVertPosition@@@8
	DD	FLAT:??_R3CTextHorzVertPosition@@8
rdata$r	ENDS
;	COMDAT ??_R1A@?0A@EA@CTextPosition@@8
rdata$r	SEGMENT
??_R1A@?0A@EA@CTextPosition@@8 DD FLAT:??_R0?AVCTextPosition@@@8 ; CTextPosition::`RTTI Base Class Descriptor at (0,-1,0,64)'
	DD	00H
	DD	00H
	DD	0ffffffffH
	DD	00H
	DD	040H
	DD	FLAT:??_R3CTextPosition@@8
rdata$r	ENDS
;	COMDAT ??_R2CTextPosition@@8
rdata$r	SEGMENT
??_R2CTextPosition@@8 DD FLAT:??_R1A@?0A@EA@CTextPosition@@8 ; CTextPosition::`RTTI Base Class Array'
rdata$r	ENDS
;	COMDAT ??_R3CTextPosition@@8
rdata$r	SEGMENT
??_R3CTextPosition@@8 DD 00H				; CTextPosition::`RTTI Class Hierarchy Descriptor'
	DD	00H
	DD	01H
	DD	FLAT:??_R2CTextPosition@@8
rdata$r	ENDS
;	COMDAT ??_R0?AVCTextPosition@@@8
data$rs	SEGMENT
??_R0?AVCTextPosition@@@8 DD FLAT:??_7type_info@@6B@	; CTextPosition `RTTI Type Descriptor'
	DD	00H
	DB	'.?AVCTextPosition@@', 00H
data$rs	ENDS
;	COMDAT ??_R4CTextPosition@@6B@
rdata$r	SEGMENT
??_R4CTextPosition@@6B@ DD 00H				; CTextPosition::`RTTI Complete Object Locator'
	DD	00H
	DD	00H
	DD	FLAT:??_R0?AVCTextPosition@@@8
	DD	FLAT:??_R3CTextPosition@@8
rdata$r	ENDS
;	COMDAT ??_7CAdjustRatio@@6B@
CONST	SEGMENT
??_7CAdjustRatio@@6B@ DD FLAT:??_R4CAdjustRatio@@6B@	; CAdjustRatio::`vftable'
	DD	FLAT:??_ECAdjustRatio@@UAEPAXI@Z
	DD	FLAT:?GetElementType@CAdjustRatio@@UBE?AW4ElementType@CToolEnumData@@XZ
	DD	FLAT:?GetPoints@CThreePointElement@@UAEXAAVCElementPointList@@@Z
	DD	FLAT:?GetTextPosition@CElement@@UAEPAVCTextPosition@@XZ
	DD	FLAT:?GetTextPosition@CElement@@UBEPBVCTextPosition@@XZ
	DD	FLAT:?GetModifyType@CThreePointElement@@UBE?AW4ModifyType@CToolEnumData@@PAVCExtractingDataOfModifyType@@@Z
	DD	FLAT:?GetCoordinate@CThreePointElement@@UBE?AVCCoordinate@@W4ModifyType@CToolEnumData@@@Z
	DD	FLAT:?ElementModify@CThreePointElement@@UAEXABVCElementModifyData@@@Z
	DD	FLAT:?ElementModify_YValue@CThreePointElement@@UAEXABVCElementModifyData@@@Z
	DD	FLAT:?ElementModify_Coordinate@CThreePointElement@@UAEXABVCCoordinate@@W4ModifyType@CToolEnumData@@@Z
	DD	FLAT:?Draw@CElement@@UAEXPAVCDC@@ABVCDrawingRegions@@ABVCCoordinateCalculatorData@@@Z
	DD	FLAT:?DrawShadowAndGrip@CThreePointElement@@UAEXPAVCDC@@ABVCDrawingRegions@@ABVCCoordinateCalculatorData@@@Z
	DD	FLAT:?DrawSelected@CThreePointElement@@UAEXPAVCDC@@ABVCSelectedElementDrawingData@@@Z
	DD	FLAT:?GetSavedPoints@CThreePointElement@@MBE?AV?$CStringT@DV?$StrTraitMFC_DLL@DV?$ChTraitsCRT@D@ATL@@@@@ATL@@XZ
	DD	FLAT:?RealDraw@CThreePointElement@@MAEXPAVCDC@@ABVCDrawingRegions@@ABVCCoordinateCalculatorData@@@Z
	DD	FLAT:?GetModifyType@CAdjustRatio@@MBE?AW4ModifyType@CToolEnumData@@ABVCRect@@ABVCPoint@@111@Z
	DD	FLAT:?GetThreePointDrawer@CAdjustRatio@@MAEAAVCThreePointDrawer@@XZ
	DD	FLAT:?ElementInRegion@CAdjustRatio@@MBE_NABVCRect@@ABVCPoint@@111@Z
CONST	ENDS
;	COMDAT ??_7CElliotLine@@6B@
CONST	SEGMENT
??_7CElliotLine@@6B@ DD FLAT:??_R4CElliotLine@@6B@	; CElliotLine::`vftable'
	DD	FLAT:??_ECElliotLine@@UAEPAXI@Z
	DD	FLAT:?GetElementType@CElliotLine@@UBE?AW4ElementType@CToolEnumData@@XZ
	DD	FLAT:?GetPoints@CTwoPointElement@@UAEXAAVCElementPointList@@@Z
	DD	FLAT:?GetTextPosition@CElement@@UAEPAVCTextPosition@@XZ
	DD	FLAT:?GetTextPosition@CElement@@UBEPBVCTextPosition@@XZ
	DD	FLAT:?GetModifyType@CTwoPointElement@@UBE?AW4ModifyType@CToolEnumData@@PAVCExtractingDataOfModifyType@@@Z
	DD	FLAT:?GetCoordinate@CTwoPointElement@@UBE?AVCCoordinate@@W4ModifyType@CToolEnumData@@@Z
	DD	FLAT:?ElementModify@CTwoPointElement@@UAEXABVCElementModifyData@@@Z
	DD	FLAT:?ElementModify_YValue@CTwoPointElement@@UAEXABVCElementModifyData@@@Z
	DD	FLAT:?ElementModify_Coordinate@CTwoPointElement@@UAEXABVCCoordinate@@W4ModifyType@CToolEnumData@@@Z
	DD	FLAT:?Draw@CElement@@UAEXPAVCDC@@ABVCDrawingRegions@@ABVCCoordinateCalculatorData@@@Z
	DD	FLAT:?DrawShadowAndGrip@CTwoPointElement@@UAEXPAVCDC@@ABVCDrawingRegions@@ABVCCoordinateCalculatorData@@@Z
	DD	FLAT:?DrawSelected@CTwoPointElement@@UAEXPAVCDC@@ABVCSelectedElementDrawingData@@@Z
	DD	FLAT:?GetSavedPoints@CTwoPointElement@@MBE?AV?$CStringT@DV?$StrTraitMFC_DLL@DV?$ChTraitsCRT@D@ATL@@@@@ATL@@XZ
	DD	FLAT:?RealDraw@CTwoPointElement@@MAEXPAVCDC@@ABVCDrawingRegions@@ABVCCoordinateCalculatorData@@@Z
	DD	FLAT:?GetModifyType@CTwoPointElement@@MBE?AW4ModifyType@CToolEnumData@@ABVCDisplayData@@ABVCPoint@@11@Z
	DD	FLAT:?GetModifyType@CElliotLine@@MBE?AW4ModifyType@CToolEnumData@@ABVCRect@@ABVCPoint@@11@Z
	DD	FLAT:?GetTwoPointDrawer@CElliotLine@@MAEAAVCTwoPointDrawer@@XZ
	DD	FLAT:?ElementInRegion@CElliotLine@@MBE_NABVCRect@@ABVCPoint@@11@Z
CONST	ENDS
;	COMDAT ??_7CPeriodSumLine@@6B@
CONST	SEGMENT
??_7CPeriodSumLine@@6B@ DD FLAT:??_R4CPeriodSumLine@@6B@ ; CPeriodSumLine::`vftable'
	DD	FLAT:??_ECPeriodSumLine@@UAEPAXI@Z
	DD	FLAT:?GetElementType@CPeriodSumLine@@UBE?AW4ElementType@CToolEnumData@@XZ
	DD	FLAT:?GetPoints@CTwoPointElement@@UAEXAAVCElementPointList@@@Z
	DD	FLAT:?GetTextPosition@CPeriodSumLine@@MAEPAVCTextPosition@@XZ
	DD	FLAT:?GetTextPosition@CPeriodSumLine@@MBEPBVCTextPosition@@XZ
	DD	FLAT:?GetModifyType@CTwoPointElement@@UBE?AW4ModifyType@CToolEnumData@@PAVCExtractingDataOfModifyType@@@Z
	DD	FLAT:?GetCoordinate@CTwoPointElement@@UBE?AVCCoordinate@@W4ModifyType@CToolEnumData@@@Z
	DD	FLAT:?ElementModify@CTwoPointElement@@UAEXABVCElementModifyData@@@Z
	DD	FLAT:?ElementModify_YValue@CTwoPointElement@@UAEXABVCElementModifyData@@@Z
	DD	FLAT:?ElementModify_Coordinate@CTwoPointElement@@UAEXABVCCoordinate@@W4ModifyType@CToolEnumData@@@Z
	DD	FLAT:?Draw@CElement@@UAEXPAVCDC@@ABVCDrawingRegions@@ABVCCoordinateCalculatorData@@@Z
	DD	FLAT:?DrawShadowAndGrip@CTwoPointElement@@UAEXPAVCDC@@ABVCDrawingRegions@@ABVCCoordinateCalculatorData@@@Z
	DD	FLAT:?DrawSelected@CTwoPointElement@@UAEXPAVCDC@@ABVCSelectedElementDrawingData@@@Z
	DD	FLAT:?GetSavedPoints@CTwoPointElement@@MBE?AV?$CStringT@DV?$StrTraitMFC_DLL@DV?$ChTraitsCRT@D@ATL@@@@@ATL@@XZ
	DD	FLAT:?RealDraw@CTwoPointElement@@MAEXPAVCDC@@ABVCDrawingRegions@@ABVCCoordinateCalculatorData@@@Z
	DD	FLAT:?GetModifyType@CTwoPointElement@@MBE?AW4ModifyType@CToolEnumData@@ABVCDisplayData@@ABVCPoint@@11@Z
	DD	FLAT:?GetModifyType@CPeriodSumLine@@MBE?AW4ModifyType@CToolEnumData@@ABVCRect@@ABVCPoint@@11@Z
	DD	FLAT:?GetTwoPointDrawer@CPeriodSumLine@@MAEAAVCTwoPointDrawer@@XZ
	DD	FLAT:?ElementInRegion@CPeriodSumLine@@MBE_NABVCRect@@ABVCPoint@@11@Z
CONST	ENDS
;	COMDAT ??_7CPencilLine@@6B@
CONST	SEGMENT
??_7CPencilLine@@6B@ DD FLAT:??_R4CPencilLine@@6B@	; CPencilLine::`vftable'
	DD	FLAT:??_ECPencilLine@@UAEPAXI@Z
	DD	FLAT:?GetElementType@CPencilLine@@UBE?AW4ElementType@CToolEnumData@@XZ
	DD	FLAT:?GetPoints@CMultiPointElement@@UAEXAAVCElementPointList@@@Z
	DD	FLAT:?GetTextPosition@CElement@@UAEPAVCTextPosition@@XZ
	DD	FLAT:?GetTextPosition@CElement@@UBEPBVCTextPosition@@XZ
	DD	FLAT:?GetModifyType@CMultiPointElement@@MBE?AW4ModifyType@CToolEnumData@@PAVCExtractingDataOfModifyType@@@Z
	DD	FLAT:?GetCoordinate@CMultiPointElement@@UBE?AVCCoordinate@@W4ModifyType@CToolEnumData@@@Z
	DD	FLAT:?ElementModify@CMultiPointElement@@UAEXABVCElementModifyData@@@Z
	DD	FLAT:?ElementModify_YValue@CMultiPointElement@@UAEXABVCElementModifyData@@@Z
	DD	FLAT:?ElementModify_Coordinate@CMultiPointElement@@UAEXABVCCoordinate@@W4ModifyType@CToolEnumData@@@Z
	DD	FLAT:?Draw@CElement@@UAEXPAVCDC@@ABVCDrawingRegions@@ABVCCoordinateCalculatorData@@@Z
	DD	FLAT:?DrawShadowAndGrip@CMultiPointElement@@UAEXPAVCDC@@ABVCDrawingRegions@@ABVCCoordinateCalculatorData@@@Z
	DD	FLAT:?DrawSelected@CMultiPointElement@@UAEXPAVCDC@@ABVCSelectedElementDrawingData@@@Z
	DD	FLAT:?GetSavedPoints@CMultiPointElement@@MBE?AV?$CStringT@DV?$StrTraitMFC_DLL@DV?$ChTraitsCRT@D@ATL@@@@@ATL@@XZ
	DD	FLAT:?RealDraw@CMultiPointElement@@MAEXPAVCDC@@ABVCDrawingRegions@@ABVCCoordinateCalculatorData@@@Z
	DD	FLAT:?GetMultiPointDrawer@CPencilLine@@MAEAAVCMultiPointDrawer@@XZ
	DD	FLAT:?GetModifyType@CMultiPointElement@@MBE?AW4ModifyType@CToolEnumData@@ABVCRect@@ABVCPoint@@11@Z
CONST	ENDS
;	COMDAT ??_7CCandleBong@@6B@
CONST	SEGMENT
??_7CCandleBong@@6B@ DD FLAT:??_R4CCandleBong@@6B@	; CCandleBong::`vftable'
	DD	FLAT:??_ECCandleBong@@UAEPAXI@Z
	DD	FLAT:?GetElementType@CCandleBong@@UBE?AW4ElementType@CToolEnumData@@XZ
	DD	FLAT:?GetPoints@CTwoPointElement@@UAEXAAVCElementPointList@@@Z
	DD	FLAT:?GetTextPosition@CElement@@UAEPAVCTextPosition@@XZ
	DD	FLAT:?GetTextPosition@CElement@@UBEPBVCTextPosition@@XZ
	DD	FLAT:?GetModifyType@CTwoPointElement@@UBE?AW4ModifyType@CToolEnumData@@PAVCExtractingDataOfModifyType@@@Z
	DD	FLAT:?GetCoordinate@CTwoPointElement@@UBE?AVCCoordinate@@W4ModifyType@CToolEnumData@@@Z
	DD	FLAT:?ElementModify@CTwoPointElement@@UAEXABVCElementModifyData@@@Z
	DD	FLAT:?ElementModify_YValue@CTwoPointElement@@UAEXABVCElementModifyData@@@Z
	DD	FLAT:?ElementModify_Coordinate@CTwoPointElement@@UAEXABVCCoordinate@@W4ModifyType@CToolEnumData@@@Z
	DD	FLAT:?Draw@CElement@@UAEXPAVCDC@@ABVCDrawingRegions@@ABVCCoordinateCalculatorData@@@Z
	DD	FLAT:?DrawShadowAndGrip@CTwoPointElement@@UAEXPAVCDC@@ABVCDrawingRegions@@ABVCCoordinateCalculatorData@@@Z
	DD	FLAT:?DrawSelected@CTwoPointElement@@UAEXPAVCDC@@ABVCSelectedElementDrawingData@@@Z
	DD	FLAT:?GetSavedPoints@CTwoPointElement@@MBE?AV?$CStringT@DV?$StrTraitMFC_DLL@DV?$ChTraitsCRT@D@ATL@@@@@ATL@@XZ
	DD	FLAT:?RealDraw@CTwoPointElement@@MAEXPAVCDC@@ABVCDrawingRegions@@ABVCCoordinateCalculatorData@@@Z
	DD	FLAT:?GetModifyType@CTwoPointElement@@MBE?AW4ModifyType@CToolEnumData@@ABVCDisplayData@@ABVCPoint@@11@Z
	DD	FLAT:?GetModifyType@CCandleBong@@MBE?AW4ModifyType@CToolEnumData@@ABVCRect@@ABVCPoint@@11@Z
	DD	FLAT:?GetTwoPointDrawer@CCandleBong@@MAEAAVCTwoPointDrawer@@XZ
	DD	FLAT:?ElementInRegion@CCandleBong@@MBE_NABVCRect@@ABVCPoint@@11@Z
CONST	ENDS
;	COMDAT ??_7CCandleLine@@6B@
CONST	SEGMENT
??_7CCandleLine@@6B@ DD FLAT:??_R4CCandleLine@@6B@	; CCandleLine::`vftable'
	DD	FLAT:??_ECCandleLine@@UAEPAXI@Z
	DD	FLAT:?GetElementType@CCandleLine@@UBE?AW4ElementType@CToolEnumData@@XZ
	DD	FLAT:?GetPoints@COnePointElement@@UAEXAAVCElementPointList@@@Z
	DD	FLAT:?GetTextPosition@CCandleLine@@MAEPAVCTextPosition@@XZ
	DD	FLAT:?GetTextPosition@CCandleLine@@MBEPBVCTextPosition@@XZ
	DD	FLAT:?GetModifyType@COnePointElement@@UBE?AW4ModifyType@CToolEnumData@@PAVCExtractingDataOfModifyType@@@Z
	DD	FLAT:?GetCoordinate@COnePointElement@@UBE?AVCCoordinate@@W4ModifyType@CToolEnumData@@@Z
	DD	FLAT:?ElementModify@CCandleLine@@UAEXABVCElementModifyData@@@Z
	DD	FLAT:?ElementModify_YValue@CCandleLine@@UAEXABVCElementModifyData@@@Z
	DD	FLAT:?ElementModify_Coordinate@CCandleLine@@UAEXABVCCoordinate@@W4ModifyType@CToolEnumData@@@Z
	DD	FLAT:?Draw@CElement@@UAEXPAVCDC@@ABVCDrawingRegions@@ABVCCoordinateCalculatorData@@@Z
	DD	FLAT:?DrawShadowAndGrip@COnePointElement@@UAEXPAVCDC@@ABVCDrawingRegions@@ABVCCoordinateCalculatorData@@@Z
	DD	FLAT:?DrawSelected@COnePointElement@@UAEXPAVCDC@@ABVCSelectedElementDrawingData@@@Z
	DD	FLAT:?GetSavedPoints@COnePointElement@@MBE?AV?$CStringT@DV?$StrTraitMFC_DLL@DV?$ChTraitsCRT@D@ATL@@@@@ATL@@XZ
	DD	FLAT:?RealDraw@COnePointElement@@MAEXPAVCDC@@ABVCDrawingRegions@@ABVCCoordinateCalculatorData@@@Z
	DD	FLAT:?GetModifyType@CCandleLine@@MBE?AW4ModifyType@CToolEnumData@@ABVCDisplayData@@ABVCPoint@@1@Z
	DD	FLAT:?GetOnePointDrawer@CCandleLine@@MAEAAVCOnePointDrawer@@XZ
	DD	FLAT:?GetGripPoint@COnePointElement@@MAE?AVCPoint@@ABVCCoordinateCalculatorData@@@Z
CONST	ENDS
;	COMDAT ??_7CAngleLine@@6B@
CONST	SEGMENT
??_7CAngleLine@@6B@ DD FLAT:??_R4CAngleLine@@6B@	; CAngleLine::`vftable'
	DD	FLAT:??_ECAngleLine@@UAEPAXI@Z
	DD	FLAT:?GetElementType@CAngleLine@@UBE?AW4ElementType@CToolEnumData@@XZ
	DD	FLAT:?GetPoints@CTwoPointElement@@UAEXAAVCElementPointList@@@Z
	DD	FLAT:?GetTextPosition@CAngleLine@@MAEPAVCTextPosition@@XZ
	DD	FLAT:?GetTextPosition@CAngleLine@@MBEPBVCTextPosition@@XZ
	DD	FLAT:?GetModifyType@CTwoPointElement@@UBE?AW4ModifyType@CToolEnumData@@PAVCExtractingDataOfModifyType@@@Z
	DD	FLAT:?GetCoordinate@CTwoPointElement@@UBE?AVCCoordinate@@W4ModifyType@CToolEnumData@@@Z
	DD	FLAT:?ElementModify@CTwoPointElement@@UAEXABVCElementModifyData@@@Z
	DD	FLAT:?ElementModify_YValue@CTwoPointElement@@UAEXABVCElementModifyData@@@Z
	DD	FLAT:?ElementModify_Coordinate@CTwoPointElement@@UAEXABVCCoordinate@@W4ModifyType@CToolEnumData@@@Z
	DD	FLAT:?Draw@CElement@@UAEXPAVCDC@@ABVCDrawingRegions@@ABVCCoordinateCalculatorData@@@Z
	DD	FLAT:?DrawShadowAndGrip@CTwoPointElement@@UAEXPAVCDC@@ABVCDrawingRegions@@ABVCCoordinateCalculatorData@@@Z
	DD	FLAT:?DrawSelected@CTwoPointElement@@UAEXPAVCDC@@ABVCSelectedElementDrawingData@@@Z
	DD	FLAT:?GetSavedPoints@CTwoPointElement@@MBE?AV?$CStringT@DV?$StrTraitMFC_DLL@DV?$ChTraitsCRT@D@ATL@@@@@ATL@@XZ
	DD	FLAT:?RealDraw@CTwoPointElement@@MAEXPAVCDC@@ABVCDrawingRegions@@ABVCCoordinateCalculatorData@@@Z
	DD	FLAT:?GetModifyType@CTwoPointElement@@MBE?AW4ModifyType@CToolEnumData@@ABVCDisplayData@@ABVCPoint@@11@Z
	DD	FLAT:?GetModifyType@CAngleLine@@MBE?AW4ModifyType@CToolEnumData@@ABVCRect@@ABVCPoint@@11@Z
	DD	FLAT:?GetTwoPointDrawer@CAngleLine@@MAEAAVCTwoPointDrawer@@XZ
	DD	FLAT:?ElementInRegion@CAngleLine@@MBE_NABVCRect@@ABVCPoint@@11@Z
CONST	ENDS
;	COMDAT ??_7CRaffRegression@@6B@
CONST	SEGMENT
??_7CRaffRegression@@6B@ DD FLAT:??_R4CRaffRegression@@6B@ ; CRaffRegression::`vftable'
	DD	FLAT:??_ECRaffRegression@@UAEPAXI@Z
	DD	FLAT:?GetElementType@CRaffRegression@@UBE?AW4ElementType@CToolEnumData@@XZ
	DD	FLAT:?GetPoints@CTwoPointElement@@UAEXAAVCElementPointList@@@Z
	DD	FLAT:?GetTextPosition@CElement@@UAEPAVCTextPosition@@XZ
	DD	FLAT:?GetTextPosition@CElement@@UBEPBVCTextPosition@@XZ
	DD	FLAT:?GetModifyType@CTwoPointElement@@UBE?AW4ModifyType@CToolEnumData@@PAVCExtractingDataOfModifyType@@@Z
	DD	FLAT:?GetCoordinate@CRaffRegression@@UBE?AVCCoordinate@@W4ModifyType@CToolEnumData@@@Z
	DD	FLAT:?ElementModify@CRaffRegression@@UAEXABVCElementModifyData@@@Z
	DD	FLAT:?ElementModify_YValue@CRaffRegression@@UAEXABVCElementModifyData@@@Z
	DD	FLAT:?ElementModify_Coordinate@CRaffRegression@@UAEXABVCCoordinate@@W4ModifyType@CToolEnumData@@@Z
	DD	FLAT:?Draw@CElement@@UAEXPAVCDC@@ABVCDrawingRegions@@ABVCCoordinateCalculatorData@@@Z
	DD	FLAT:?DrawShadowAndGrip@CTwoPointElement@@UAEXPAVCDC@@ABVCDrawingRegions@@ABVCCoordinateCalculatorData@@@Z
	DD	FLAT:?DrawSelected@CTwoPointElement@@UAEXPAVCDC@@ABVCSelectedElementDrawingData@@@Z
	DD	FLAT:?GetSavedPoints@CTwoPointElement@@MBE?AV?$CStringT@DV?$StrTraitMFC_DLL@DV?$ChTraitsCRT@D@ATL@@@@@ATL@@XZ
	DD	FLAT:?RealDraw@CTwoPointElement@@MAEXPAVCDC@@ABVCDrawingRegions@@ABVCCoordinateCalculatorData@@@Z
	DD	FLAT:?GetModifyType@CTwoPointElement@@MBE?AW4ModifyType@CToolEnumData@@ABVCDisplayData@@ABVCPoint@@11@Z
	DD	FLAT:?GetModifyType@CRaffRegression@@MBE?AW4ModifyType@CToolEnumData@@ABVCRect@@ABVCPoint@@11@Z
	DD	FLAT:?GetTwoPointDrawer@CRaffRegression@@MAEAAVCTwoPointDrawer@@XZ
	DD	FLAT:?ElementInRegion@CTwoPointElement@@MBE_NABVCRect@@ABVCPoint@@11@Z
CONST	ENDS
;	COMDAT ??_7CLinearRegression@@6B@
CONST	SEGMENT
??_7CLinearRegression@@6B@ DD FLAT:??_R4CLinearRegression@@6B@ ; CLinearRegression::`vftable'
	DD	FLAT:??_ECLinearRegression@@UAEPAXI@Z
	DD	FLAT:?GetElementType@CLinearRegression@@UBE?AW4ElementType@CToolEnumData@@XZ
	DD	FLAT:?GetPoints@CTwoPointElement@@UAEXAAVCElementPointList@@@Z
	DD	FLAT:?GetTextPosition@CElement@@UAEPAVCTextPosition@@XZ
	DD	FLAT:?GetTextPosition@CElement@@UBEPBVCTextPosition@@XZ
	DD	FLAT:?GetModifyType@CTwoPointElement@@UBE?AW4ModifyType@CToolEnumData@@PAVCExtractingDataOfModifyType@@@Z
	DD	FLAT:?GetCoordinate@CLinearRegression@@UBE?AVCCoordinate@@W4ModifyType@CToolEnumData@@@Z
	DD	FLAT:?ElementModify@CLinearRegression@@UAEXABVCElementModifyData@@@Z
	DD	FLAT:?ElementModify_YValue@CLinearRegression@@UAEXABVCElementModifyData@@@Z
	DD	FLAT:?ElementModify_Coordinate@CLinearRegression@@UAEXABVCCoordinate@@W4ModifyType@CToolEnumData@@@Z
	DD	FLAT:?Draw@CElement@@UAEXPAVCDC@@ABVCDrawingRegions@@ABVCCoordinateCalculatorData@@@Z
	DD	FLAT:?DrawShadowAndGrip@CTwoPointElement@@UAEXPAVCDC@@ABVCDrawingRegions@@ABVCCoordinateCalculatorData@@@Z
	DD	FLAT:?DrawSelected@CTwoPointElement@@UAEXPAVCDC@@ABVCSelectedElementDrawingData@@@Z
	DD	FLAT:?GetSavedPoints@CTwoPointElement@@MBE?AV?$CStringT@DV?$StrTraitMFC_DLL@DV?$ChTraitsCRT@D@ATL@@@@@ATL@@XZ
	DD	FLAT:?RealDraw@CTwoPointElement@@MAEXPAVCDC@@ABVCDrawingRegions@@ABVCCoordinateCalculatorData@@@Z
	DD	FLAT:?GetModifyType@CTwoPointElement@@MBE?AW4ModifyType@CToolEnumData@@ABVCDisplayData@@ABVCPoint@@11@Z
	DD	FLAT:?GetModifyType@CLinearRegression@@MBE?AW4ModifyType@CToolEnumData@@ABVCRect@@ABVCPoint@@11@Z
	DD	FLAT:?GetTwoPointDrawer@CLinearRegression@@MAEAAVCTwoPointDrawer@@XZ
	DD	FLAT:?ElementInRegion@CTwoPointElement@@MBE_NABVCRect@@ABVCPoint@@11@Z
CONST	ENDS
;	COMDAT ??_7CSpeedArc@@6B@
CONST	SEGMENT
??_7CSpeedArc@@6B@ DD FLAT:??_R4CSpeedArc@@6B@		; CSpeedArc::`vftable'
	DD	FLAT:??_ECSpeedArc@@UAEPAXI@Z
	DD	FLAT:?GetElementType@CSpeedArc@@UBE?AW4ElementType@CToolEnumData@@XZ
	DD	FLAT:?GetPoints@CTwoPointElement@@UAEXAAVCElementPointList@@@Z
	DD	FLAT:?GetTextPosition@CElement@@UAEPAVCTextPosition@@XZ
	DD	FLAT:?GetTextPosition@CElement@@UBEPBVCTextPosition@@XZ
	DD	FLAT:?GetModifyType@CTwoPointElement@@UBE?AW4ModifyType@CToolEnumData@@PAVCExtractingDataOfModifyType@@@Z
	DD	FLAT:?GetCoordinate@CTwoPointElement@@UBE?AVCCoordinate@@W4ModifyType@CToolEnumData@@@Z
	DD	FLAT:?ElementModify@CTwoPointElement@@UAEXABVCElementModifyData@@@Z
	DD	FLAT:?ElementModify_YValue@CTwoPointElement@@UAEXABVCElementModifyData@@@Z
	DD	FLAT:?ElementModify_Coordinate@CTwoPointElement@@UAEXABVCCoordinate@@W4ModifyType@CToolEnumData@@@Z
	DD	FLAT:?Draw@CElement@@UAEXPAVCDC@@ABVCDrawingRegions@@ABVCCoordinateCalculatorData@@@Z
	DD	FLAT:?DrawShadowAndGrip@CTwoPointElement@@UAEXPAVCDC@@ABVCDrawingRegions@@ABVCCoordinateCalculatorData@@@Z
	DD	FLAT:?DrawSelected@CTwoPointElement@@UAEXPAVCDC@@ABVCSelectedElementDrawingData@@@Z
	DD	FLAT:?GetSavedPoints@CTwoPointElement@@MBE?AV?$CStringT@DV?$StrTraitMFC_DLL@DV?$ChTraitsCRT@D@ATL@@@@@ATL@@XZ
	DD	FLAT:?RealDraw@CTwoPointElement@@MAEXPAVCDC@@ABVCDrawingRegions@@ABVCCoordinateCalculatorData@@@Z
	DD	FLAT:?GetModifyType@CTwoPointElement@@MBE?AW4ModifyType@CToolEnumData@@ABVCDisplayData@@ABVCPoint@@11@Z
	DD	FLAT:?GetModifyType@CSpeedArc@@MBE?AW4ModifyType@CToolEnumData@@ABVCRect@@ABVCPoint@@11@Z
	DD	FLAT:?GetTwoPointDrawer@CSpeedArc@@MAEAAVCTwoPointDrawer@@XZ
	DD	FLAT:?ElementInRegion@CSpeedArc@@MBE_NABVCRect@@ABVCPoint@@11@Z
	DD	FLAT:?GetDrawingRegion_EndPoint@CSpeedArc@@MBE?AVCPoint@@ABV2@0H@Z
CONST	ENDS
;	COMDAT ??_7CSpeedFan@@6B@
CONST	SEGMENT
??_7CSpeedFan@@6B@ DD FLAT:??_R4CSpeedFan@@6B@		; CSpeedFan::`vftable'
	DD	FLAT:??_ECSpeedFan@@UAEPAXI@Z
	DD	FLAT:?GetElementType@CSpeedFan@@UBE?AW4ElementType@CToolEnumData@@XZ
	DD	FLAT:?GetPoints@CTwoPointElement@@UAEXAAVCElementPointList@@@Z
	DD	FLAT:?GetTextPosition@CElement@@UAEPAVCTextPosition@@XZ
	DD	FLAT:?GetTextPosition@CElement@@UBEPBVCTextPosition@@XZ
	DD	FLAT:?GetModifyType@CTwoPointElement@@UBE?AW4ModifyType@CToolEnumData@@PAVCExtractingDataOfModifyType@@@Z
	DD	FLAT:?GetCoordinate@CTwoPointElement@@UBE?AVCCoordinate@@W4ModifyType@CToolEnumData@@@Z
	DD	FLAT:?ElementModify@CTwoPointElement@@UAEXABVCElementModifyData@@@Z
	DD	FLAT:?ElementModify_YValue@CTwoPointElement@@UAEXABVCElementModifyData@@@Z
	DD	FLAT:?ElementModify_Coordinate@CTwoPointElement@@UAEXABVCCoordinate@@W4ModifyType@CToolEnumData@@@Z
	DD	FLAT:?Draw@CElement@@UAEXPAVCDC@@ABVCDrawingRegions@@ABVCCoordinateCalculatorData@@@Z
	DD	FLAT:?DrawShadowAndGrip@CTwoPointElement@@UAEXPAVCDC@@ABVCDrawingRegions@@ABVCCoordinateCalculatorData@@@Z
	DD	FLAT:?DrawSelected@CTwoPointElement@@UAEXPAVCDC@@ABVCSelectedElementDrawingData@@@Z
	DD	FLAT:?GetSavedPoints@CTwoPointElement@@MBE?AV?$CStringT@DV?$StrTraitMFC_DLL@DV?$ChTraitsCRT@D@ATL@@@@@ATL@@XZ
	DD	FLAT:?RealDraw@CTwoPointElement@@MAEXPAVCDC@@ABVCDrawingRegions@@ABVCCoordinateCalculatorData@@@Z
	DD	FLAT:?GetModifyType@CTwoPointElement@@MBE?AW4ModifyType@CToolEnumData@@ABVCDisplayData@@ABVCPoint@@11@Z
	DD	FLAT:?GetModifyType@CSpeedFan@@MBE?AW4ModifyType@CToolEnumData@@ABVCRect@@ABVCPoint@@11@Z
	DD	FLAT:?GetTwoPointDrawer@CSpeedFan@@MAEAAVCTwoPointDrawer@@XZ
	DD	FLAT:?ElementInRegion@CSpeedFan@@MBE_NABVCRect@@ABVCPoint@@11@Z
CONST	ENDS
;	COMDAT ??_7CSpeedLine@@6B@
CONST	SEGMENT
??_7CSpeedLine@@6B@ DD FLAT:??_R4CSpeedLine@@6B@	; CSpeedLine::`vftable'
	DD	FLAT:??_ECSpeedLine@@UAEPAXI@Z
	DD	FLAT:?GetElementType@CSpeedLine@@UBE?AW4ElementType@CToolEnumData@@XZ
	DD	FLAT:?GetPoints@CTwoPointElement@@UAEXAAVCElementPointList@@@Z
	DD	FLAT:?GetTextPosition@CElement@@UAEPAVCTextPosition@@XZ
	DD	FLAT:?GetTextPosition@CElement@@UBEPBVCTextPosition@@XZ
	DD	FLAT:?GetModifyType@CTwoPointElement@@UBE?AW4ModifyType@CToolEnumData@@PAVCExtractingDataOfModifyType@@@Z
	DD	FLAT:?GetCoordinate@CTwoPointElement@@UBE?AVCCoordinate@@W4ModifyType@CToolEnumData@@@Z
	DD	FLAT:?ElementModify@CTwoPointElement@@UAEXABVCElementModifyData@@@Z
	DD	FLAT:?ElementModify_YValue@CTwoPointElement@@UAEXABVCElementModifyData@@@Z
	DD	FLAT:?ElementModify_Coordinate@CTwoPointElement@@UAEXABVCCoordinate@@W4ModifyType@CToolEnumData@@@Z
	DD	FLAT:?Draw@CElement@@UAEXPAVCDC@@ABVCDrawingRegions@@ABVCCoordinateCalculatorData@@@Z
	DD	FLAT:?DrawShadowAndGrip@CTwoPointElement@@UAEXPAVCDC@@ABVCDrawingRegions@@ABVCCoordinateCalculatorData@@@Z
	DD	FLAT:?DrawSelected@CTwoPointElement@@UAEXPAVCDC@@ABVCSelectedElementDrawingData@@@Z
	DD	FLAT:?GetSavedPoints@CTwoPointElement@@MBE?AV?$CStringT@DV?$StrTraitMFC_DLL@DV?$ChTraitsCRT@D@ATL@@@@@ATL@@XZ
	DD	FLAT:?RealDraw@CTwoPointElement@@MAEXPAVCDC@@ABVCDrawingRegions@@ABVCCoordinateCalculatorData@@@Z
	DD	FLAT:?GetModifyType@CTwoPointElement@@MBE?AW4ModifyType@CToolEnumData@@ABVCDisplayData@@ABVCPoint@@11@Z
	DD	FLAT:?GetModifyType@CSpeedLine@@MBE?AW4ModifyType@CToolEnumData@@ABVCRect@@ABVCPoint@@11@Z
	DD	FLAT:?GetTwoPointDrawer@CSpeedLine@@MAEAAVCTwoPointDrawer@@XZ
	DD	FLAT:?ElementInRegion@CSpeedLine@@MBE_NABVCRect@@ABVCPoint@@11@Z
CONST	ENDS
;	COMDAT ??_7CCycleLines@@6B@
CONST	SEGMENT
??_7CCycleLines@@6B@ DD FLAT:??_R4CCycleLines@@6B@	; CCycleLines::`vftable'
	DD	FLAT:??_ECCycleLines@@UAEPAXI@Z
	DD	FLAT:?GetElementType@CCycleLines@@UBE?AW4ElementType@CToolEnumData@@XZ
	DD	FLAT:?GetPoints@CTwoPointElement@@UAEXAAVCElementPointList@@@Z
	DD	FLAT:?GetTextPosition@CElement@@UAEPAVCTextPosition@@XZ
	DD	FLAT:?GetTextPosition@CElement@@UBEPBVCTextPosition@@XZ
	DD	FLAT:?GetModifyType@CTwoPointElement@@UBE?AW4ModifyType@CToolEnumData@@PAVCExtractingDataOfModifyType@@@Z
	DD	FLAT:?GetCoordinate@CTwoPointElement@@UBE?AVCCoordinate@@W4ModifyType@CToolEnumData@@@Z
	DD	FLAT:?ElementModify@CTwoPointElement@@UAEXABVCElementModifyData@@@Z
	DD	FLAT:?ElementModify_YValue@CTwoPointElement@@UAEXABVCElementModifyData@@@Z
	DD	FLAT:?ElementModify_Coordinate@CTwoPointElement@@UAEXABVCCoordinate@@W4ModifyType@CToolEnumData@@@Z
	DD	FLAT:?Draw@CElement@@UAEXPAVCDC@@ABVCDrawingRegions@@ABVCCoordinateCalculatorData@@@Z
	DD	FLAT:?DrawShadowAndGrip@CTwoPointElement@@UAEXPAVCDC@@ABVCDrawingRegions@@ABVCCoordinateCalculatorData@@@Z
	DD	FLAT:?DrawSelected@CTwoPointElement@@UAEXPAVCDC@@ABVCSelectedElementDrawingData@@@Z
	DD	FLAT:?GetSavedPoints@CTwoPointElement@@MBE?AV?$CStringT@DV?$StrTraitMFC_DLL@DV?$ChTraitsCRT@D@ATL@@@@@ATL@@XZ
	DD	FLAT:?RealDraw@CTwoPointElement@@MAEXPAVCDC@@ABVCDrawingRegions@@ABVCCoordinateCalculatorData@@@Z
	DD	FLAT:?GetModifyType@CCycleLines@@MBE?AW4ModifyType@CToolEnumData@@ABVCDisplayData@@ABVCPoint@@11@Z
	DD	FLAT:?GetModifyType@CTwoPointElement@@MBE?AW4ModifyType@CToolEnumData@@ABVCRect@@ABVCPoint@@11@Z
	DD	FLAT:?GetTwoPointDrawer@CCycleLines@@MAEAAVCTwoPointDrawer@@XZ
	DD	FLAT:?ElementInRegion@CCycleLines@@MBE_NABVCRect@@ABVCPoint@@11@Z
CONST	ENDS
;	COMDAT ??_7CAndrewsPitchfork@@6B@
CONST	SEGMENT
??_7CAndrewsPitchfork@@6B@ DD FLAT:??_R4CAndrewsPitchfork@@6B@ ; CAndrewsPitchfork::`vftable'
	DD	FLAT:??_ECAndrewsPitchfork@@UAEPAXI@Z
	DD	FLAT:?GetElementType@CAndrewsPitchfork@@UBE?AW4ElementType@CToolEnumData@@XZ
	DD	FLAT:?GetPoints@CThreePointElement@@UAEXAAVCElementPointList@@@Z
	DD	FLAT:?GetTextPosition@CElement@@UAEPAVCTextPosition@@XZ
	DD	FLAT:?GetTextPosition@CElement@@UBEPBVCTextPosition@@XZ
	DD	FLAT:?GetModifyType@CThreePointElement@@UBE?AW4ModifyType@CToolEnumData@@PAVCExtractingDataOfModifyType@@@Z
	DD	FLAT:?GetCoordinate@CThreePointElement@@UBE?AVCCoordinate@@W4ModifyType@CToolEnumData@@@Z
	DD	FLAT:?ElementModify@CThreePointElement@@UAEXABVCElementModifyData@@@Z
	DD	FLAT:?ElementModify_YValue@CThreePointElement@@UAEXABVCElementModifyData@@@Z
	DD	FLAT:?ElementModify_Coordinate@CThreePointElement@@UAEXABVCCoordinate@@W4ModifyType@CToolEnumData@@@Z
	DD	FLAT:?Draw@CElement@@UAEXPAVCDC@@ABVCDrawingRegions@@ABVCCoordinateCalculatorData@@@Z
	DD	FLAT:?DrawShadowAndGrip@CThreePointElement@@UAEXPAVCDC@@ABVCDrawingRegions@@ABVCCoordinateCalculatorData@@@Z
	DD	FLAT:?DrawSelected@CThreePointElement@@UAEXPAVCDC@@ABVCSelectedElementDrawingData@@@Z
	DD	FLAT:?GetSavedPoints@CThreePointElement@@MBE?AV?$CStringT@DV?$StrTraitMFC_DLL@DV?$ChTraitsCRT@D@ATL@@@@@ATL@@XZ
	DD	FLAT:?RealDraw@CThreePointElement@@MAEXPAVCDC@@ABVCDrawingRegions@@ABVCCoordinateCalculatorData@@@Z
	DD	FLAT:?GetModifyType@CAndrewsPitchfork@@MBE?AW4ModifyType@CToolEnumData@@ABVCRect@@ABVCPoint@@111@Z
	DD	FLAT:?GetThreePointDrawer@CAndrewsPitchfork@@MAEAAVCThreePointDrawer@@XZ
	DD	FLAT:?ElementInRegion@CAndrewsPitchfork@@MBE_NABVCRect@@ABVCPoint@@111@Z
CONST	ENDS
;	COMDAT ??_7CQuadrisectLine@@6B@
CONST	SEGMENT
??_7CQuadrisectLine@@6B@ DD FLAT:??_R4CQuadrisectLine@@6B@ ; CQuadrisectLine::`vftable'
	DD	FLAT:??_ECQuadrisectLine@@UAEPAXI@Z
	DD	FLAT:?GetElementType@CQuadrisectLine@@UBE?AW4ElementType@CToolEnumData@@XZ
	DD	FLAT:?GetPoints@CTwoPointElement@@UAEXAAVCElementPointList@@@Z
	DD	FLAT:?GetTextPosition@CEqualDivisionLine@@MAEPAVCTextPosition@@XZ
	DD	FLAT:?GetTextPosition@CEqualDivisionLine@@MBEPBVCTextPosition@@XZ
	DD	FLAT:?GetModifyType@CTwoPointElement@@UBE?AW4ModifyType@CToolEnumData@@PAVCExtractingDataOfModifyType@@@Z
	DD	FLAT:?GetCoordinate@CTwoPointElement@@UBE?AVCCoordinate@@W4ModifyType@CToolEnumData@@@Z
	DD	FLAT:?ElementModify@CTwoPointElement@@UAEXABVCElementModifyData@@@Z
	DD	FLAT:?ElementModify_YValue@CTwoPointElement@@UAEXABVCElementModifyData@@@Z
	DD	FLAT:?ElementModify_Coordinate@CTwoPointElement@@UAEXABVCCoordinate@@W4ModifyType@CToolEnumData@@@Z
	DD	FLAT:?Draw@CElement@@UAEXPAVCDC@@ABVCDrawingRegions@@ABVCCoordinateCalculatorData@@@Z
	DD	FLAT:?DrawShadowAndGrip@CTwoPointElement@@UAEXPAVCDC@@ABVCDrawingRegions@@ABVCCoordinateCalculatorData@@@Z
	DD	FLAT:?DrawSelected@CTwoPointElement@@UAEXPAVCDC@@ABVCSelectedElementDrawingData@@@Z
	DD	FLAT:?GetSavedPoints@CTwoPointElement@@MBE?AV?$CStringT@DV?$StrTraitMFC_DLL@DV?$ChTraitsCRT@D@ATL@@@@@ATL@@XZ
	DD	FLAT:?RealDraw@CTwoPointElement@@MAEXPAVCDC@@ABVCDrawingRegions@@ABVCCoordinateCalculatorData@@@Z
	DD	FLAT:?GetModifyType@CTwoPointElement@@MBE?AW4ModifyType@CToolEnumData@@ABVCDisplayData@@ABVCPoint@@11@Z
	DD	FLAT:?GetModifyType@CEqualDivisionLine@@MBE?AW4ModifyType@CToolEnumData@@ABVCRect@@ABVCPoint@@11@Z
	DD	FLAT:?GetTwoPointDrawer@CQuadrisectLine@@MAEAAVCTwoPointDrawer@@XZ
	DD	FLAT:?ElementInRegion@CTwoPointElement@@MBE_NABVCRect@@ABVCPoint@@11@Z
	DD	FLAT:?GetEqualDivisionLineDrawer@CQuadrisectLine@@MBEPBVCEqualDivisionLineDrawer@@XZ
CONST	ENDS
;	COMDAT ??_7CTrisectionLine@@6B@
CONST	SEGMENT
??_7CTrisectionLine@@6B@ DD FLAT:??_R4CTrisectionLine@@6B@ ; CTrisectionLine::`vftable'
	DD	FLAT:??_ECTrisectionLine@@UAEPAXI@Z
	DD	FLAT:?GetElementType@CTrisectionLine@@UBE?AW4ElementType@CToolEnumData@@XZ
	DD	FLAT:?GetPoints@CTwoPointElement@@UAEXAAVCElementPointList@@@Z
	DD	FLAT:?GetTextPosition@CEqualDivisionLine@@MAEPAVCTextPosition@@XZ
	DD	FLAT:?GetTextPosition@CEqualDivisionLine@@MBEPBVCTextPosition@@XZ
	DD	FLAT:?GetModifyType@CTwoPointElement@@UBE?AW4ModifyType@CToolEnumData@@PAVCExtractingDataOfModifyType@@@Z
	DD	FLAT:?GetCoordinate@CTwoPointElement@@UBE?AVCCoordinate@@W4ModifyType@CToolEnumData@@@Z
	DD	FLAT:?ElementModify@CTwoPointElement@@UAEXABVCElementModifyData@@@Z
	DD	FLAT:?ElementModify_YValue@CTwoPointElement@@UAEXABVCElementModifyData@@@Z
	DD	FLAT:?ElementModify_Coordinate@CTwoPointElement@@UAEXABVCCoordinate@@W4ModifyType@CToolEnumData@@@Z
	DD	FLAT:?Draw@CElement@@UAEXPAVCDC@@ABVCDrawingRegions@@ABVCCoordinateCalculatorData@@@Z
	DD	FLAT:?DrawShadowAndGrip@CTwoPointElement@@UAEXPAVCDC@@ABVCDrawingRegions@@ABVCCoordinateCalculatorData@@@Z
	DD	FLAT:?DrawSelected@CTwoPointElement@@UAEXPAVCDC@@ABVCSelectedElementDrawingData@@@Z
	DD	FLAT:?GetSavedPoints@CTwoPointElement@@MBE?AV?$CStringT@DV?$StrTraitMFC_DLL@DV?$ChTraitsCRT@D@ATL@@@@@ATL@@XZ
	DD	FLAT:?RealDraw@CTwoPointElement@@MAEXPAVCDC@@ABVCDrawingRegions@@ABVCCoordinateCalculatorData@@@Z
	DD	FLAT:?GetModifyType@CTwoPointElement@@MBE?AW4ModifyType@CToolEnumData@@ABVCDisplayData@@ABVCPoint@@11@Z
	DD	FLAT:?GetModifyType@CEqualDivisionLine@@MBE?AW4ModifyType@CToolEnumData@@ABVCRect@@ABVCPoint@@11@Z
	DD	FLAT:?GetTwoPointDrawer@CTrisectionLine@@MAEAAVCTwoPointDrawer@@XZ
	DD	FLAT:?ElementInRegion@CTwoPointElement@@MBE_NABVCRect@@ABVCPoint@@11@Z
	DD	FLAT:?GetEqualDivisionLineDrawer@CTrisectionLine@@MBEPBVCEqualDivisionLineDrawer@@XZ
CONST	ENDS
;	COMDAT ??_7CEqualDivisionLine@@6B@
CONST	SEGMENT
??_7CEqualDivisionLine@@6B@ DD FLAT:??_R4CEqualDivisionLine@@6B@ ; CEqualDivisionLine::`vftable'
	DD	FLAT:??_ECEqualDivisionLine@@UAEPAXI@Z
	DD	FLAT:__purecall
	DD	FLAT:?GetPoints@CTwoPointElement@@UAEXAAVCElementPointList@@@Z
	DD	FLAT:?GetTextPosition@CEqualDivisionLine@@MAEPAVCTextPosition@@XZ
	DD	FLAT:?GetTextPosition@CEqualDivisionLine@@MBEPBVCTextPosition@@XZ
	DD	FLAT:?GetModifyType@CTwoPointElement@@UBE?AW4ModifyType@CToolEnumData@@PAVCExtractingDataOfModifyType@@@Z
	DD	FLAT:?GetCoordinate@CTwoPointElement@@UBE?AVCCoordinate@@W4ModifyType@CToolEnumData@@@Z
	DD	FLAT:?ElementModify@CTwoPointElement@@UAEXABVCElementModifyData@@@Z
	DD	FLAT:?ElementModify_YValue@CTwoPointElement@@UAEXABVCElementModifyData@@@Z
	DD	FLAT:?ElementModify_Coordinate@CTwoPointElement@@UAEXABVCCoordinate@@W4ModifyType@CToolEnumData@@@Z
	DD	FLAT:?Draw@CElement@@UAEXPAVCDC@@ABVCDrawingRegions@@ABVCCoordinateCalculatorData@@@Z
	DD	FLAT:?DrawShadowAndGrip@CTwoPointElement@@UAEXPAVCDC@@ABVCDrawingRegions@@ABVCCoordinateCalculatorData@@@Z
	DD	FLAT:?DrawSelected@CTwoPointElement@@UAEXPAVCDC@@ABVCSelectedElementDrawingData@@@Z
	DD	FLAT:?GetSavedPoints@CTwoPointElement@@MBE?AV?$CStringT@DV?$StrTraitMFC_DLL@DV?$ChTraitsCRT@D@ATL@@@@@ATL@@XZ
	DD	FLAT:?RealDraw@CTwoPointElement@@MAEXPAVCDC@@ABVCDrawingRegions@@ABVCCoordinateCalculatorData@@@Z
	DD	FLAT:?GetModifyType@CTwoPointElement@@MBE?AW4ModifyType@CToolEnumData@@ABVCDisplayData@@ABVCPoint@@11@Z
	DD	FLAT:?GetModifyType@CEqualDivisionLine@@MBE?AW4ModifyType@CToolEnumData@@ABVCRect@@ABVCPoint@@11@Z
	DD	FLAT:__purecall
	DD	FLAT:?ElementInRegion@CTwoPointElement@@MBE_NABVCRect@@ABVCPoint@@11@Z
	DD	FLAT:__purecall
CONST	ENDS
;	COMDAT ??_7CCrossLine@@6B@
CONST	SEGMENT
??_7CCrossLine@@6B@ DD FLAT:??_R4CCrossLine@@6B@	; CCrossLine::`vftable'
	DD	FLAT:??_ECCrossLine@@UAEPAXI@Z
	DD	FLAT:?GetElementType@CCrossLine@@UBE?AW4ElementType@CToolEnumData@@XZ
	DD	FLAT:?GetPoints@COnePointElement@@UAEXAAVCElementPointList@@@Z
	DD	FLAT:?GetTextPosition@CCrossLine@@MAEPAVCTextPosition@@XZ
	DD	FLAT:?GetTextPosition@CCrossLine@@MBEPBVCTextPosition@@XZ
	DD	FLAT:?GetModifyType@COnePointElement@@UBE?AW4ModifyType@CToolEnumData@@PAVCExtractingDataOfModifyType@@@Z
	DD	FLAT:?GetCoordinate@COnePointElement@@UBE?AVCCoordinate@@W4ModifyType@CToolEnumData@@@Z
	DD	FLAT:?ElementModify@CCrossLine@@UAEXABVCElementModifyData@@@Z
	DD	FLAT:?ElementModify_YValue@CCrossLine@@UAEXABVCElementModifyData@@@Z
	DD	FLAT:?ElementModify_Coordinate@CCrossLine@@UAEXABVCCoordinate@@W4ModifyType@CToolEnumData@@@Z
	DD	FLAT:?Draw@CElement@@UAEXPAVCDC@@ABVCDrawingRegions@@ABVCCoordinateCalculatorData@@@Z
	DD	FLAT:?DrawShadowAndGrip@COnePointElement@@UAEXPAVCDC@@ABVCDrawingRegions@@ABVCCoordinateCalculatorData@@@Z
	DD	FLAT:?DrawSelected@CCrossLine@@UAEXPAVCDC@@ABVCSelectedElementDrawingData@@@Z
	DD	FLAT:?GetSavedPoints@COnePointElement@@MBE?AV?$CStringT@DV?$StrTraitMFC_DLL@DV?$ChTraitsCRT@D@ATL@@@@@ATL@@XZ
	DD	FLAT:?RealDraw@COnePointElement@@MAEXPAVCDC@@ABVCDrawingRegions@@ABVCCoordinateCalculatorData@@@Z
	DD	FLAT:?GetModifyType@CCrossLine@@MBE?AW4ModifyType@CToolEnumData@@ABVCDisplayData@@ABVCPoint@@1@Z
	DD	FLAT:?GetOnePointDrawer@CCrossLine@@MAEAAVCOnePointDrawer@@XZ
	DD	FLAT:?GetGripPoint@COnePointElement@@MAE?AVCPoint@@ABVCCoordinateCalculatorData@@@Z
CONST	ENDS
;	COMDAT ??_7CHorzLine@@6B@
CONST	SEGMENT
??_7CHorzLine@@6B@ DD FLAT:??_R4CHorzLine@@6B@		; CHorzLine::`vftable'
	DD	FLAT:??_ECHorzLine@@UAEPAXI@Z
	DD	FLAT:?GetElementType@CHorzLine@@UBE?AW4ElementType@CToolEnumData@@XZ
	DD	FLAT:?GetPoints@COnePointElement@@UAEXAAVCElementPointList@@@Z
	DD	FLAT:?GetTextPosition@CHorzLine@@MAEPAVCTextPosition@@XZ
	DD	FLAT:?GetTextPosition@CHorzLine@@MBEPBVCTextPosition@@XZ
	DD	FLAT:?GetModifyType@COnePointElement@@UBE?AW4ModifyType@CToolEnumData@@PAVCExtractingDataOfModifyType@@@Z
	DD	FLAT:?GetCoordinate@COnePointElement@@UBE?AVCCoordinate@@W4ModifyType@CToolEnumData@@@Z
	DD	FLAT:?ElementModify@CHorzLine@@UAEXABVCElementModifyData@@@Z
	DD	FLAT:?ElementModify_YValue@CHorzLine@@UAEXABVCElementModifyData@@@Z
	DD	FLAT:?ElementModify_Coordinate@CHorzLine@@UAEXABVCCoordinate@@W4ModifyType@CToolEnumData@@@Z
	DD	FLAT:?Draw@CElement@@UAEXPAVCDC@@ABVCDrawingRegions@@ABVCCoordinateCalculatorData@@@Z
	DD	FLAT:?DrawShadowAndGrip@COnePointElement@@UAEXPAVCDC@@ABVCDrawingRegions@@ABVCCoordinateCalculatorData@@@Z
	DD	FLAT:?DrawSelected@COnePointElement@@UAEXPAVCDC@@ABVCSelectedElementDrawingData@@@Z
	DD	FLAT:?GetSavedPoints@COnePointElement@@MBE?AV?$CStringT@DV?$StrTraitMFC_DLL@DV?$ChTraitsCRT@D@ATL@@@@@ATL@@XZ
	DD	FLAT:?RealDraw@COnePointElement@@MAEXPAVCDC@@ABVCDrawingRegions@@ABVCCoordinateCalculatorData@@@Z
	DD	FLAT:?GetModifyType@CHorzLine@@MBE?AW4ModifyType@CToolEnumData@@ABVCDisplayData@@ABVCPoint@@1@Z
	DD	FLAT:?GetOnePointDrawer@CHorzLine@@MAEAAVCOnePointDrawer@@XZ
	DD	FLAT:?GetGripPoint@COnePointElement@@MAE?AVCPoint@@ABVCCoordinateCalculatorData@@@Z
CONST	ENDS
;	COMDAT ??_7CVertLine@@6B@
CONST	SEGMENT
??_7CVertLine@@6B@ DD FLAT:??_R4CVertLine@@6B@		; CVertLine::`vftable'
	DD	FLAT:??_ECVertLine@@UAEPAXI@Z
	DD	FLAT:?GetElementType@CVertLine@@UBE?AW4ElementType@CToolEnumData@@XZ
	DD	FLAT:?GetPoints@COnePointElement@@UAEXAAVCElementPointList@@@Z
	DD	FLAT:?GetTextPosition@CVertLine@@MAEPAVCTextPosition@@XZ
	DD	FLAT:?GetTextPosition@CVertLine@@MBEPBVCTextPosition@@XZ
	DD	FLAT:?GetModifyType@COnePointElement@@UBE?AW4ModifyType@CToolEnumData@@PAVCExtractingDataOfModifyType@@@Z
	DD	FLAT:?GetCoordinate@COnePointElement@@UBE?AVCCoordinate@@W4ModifyType@CToolEnumData@@@Z
	DD	FLAT:?ElementModify@CVertElement@@UAEXABVCElementModifyData@@@Z
	DD	FLAT:?ElementModify_YValue@CVertElement@@UAEXABVCElementModifyData@@@Z
	DD	FLAT:?ElementModify_Coordinate@CVertElement@@UAEXABVCCoordinate@@W4ModifyType@CToolEnumData@@@Z
	DD	FLAT:?Draw@CElement@@UAEXPAVCDC@@ABVCDrawingRegions@@ABVCCoordinateCalculatorData@@@Z
	DD	FLAT:?DrawShadowAndGrip@COnePointElement@@UAEXPAVCDC@@ABVCDrawingRegions@@ABVCCoordinateCalculatorData@@@Z
	DD	FLAT:?DrawSelected@COnePointElement@@UAEXPAVCDC@@ABVCSelectedElementDrawingData@@@Z
	DD	FLAT:?GetSavedPoints@COnePointElement@@MBE?AV?$CStringT@DV?$StrTraitMFC_DLL@DV?$ChTraitsCRT@D@ATL@@@@@ATL@@XZ
	DD	FLAT:?RealDraw@COnePointElement@@MAEXPAVCDC@@ABVCDrawingRegions@@ABVCCoordinateCalculatorData@@@Z
	DD	FLAT:?GetModifyType@CVertElement@@MBE?AW4ModifyType@CToolEnumData@@ABVCDisplayData@@ABVCPoint@@1@Z
	DD	FLAT:?GetOnePointDrawer@CVertLine@@MAEAAVCOnePointDrawer@@XZ
	DD	FLAT:?GetGripPoint@COnePointElement@@MAE?AVCPoint@@ABVCCoordinateCalculatorData@@@Z
CONST	ENDS
;	COMDAT ??_7CLine@@6B@
CONST	SEGMENT
??_7CLine@@6B@ DD FLAT:??_R4CLine@@6B@			; CLine::`vftable'
	DD	FLAT:??_ECLine@@UAEPAXI@Z
	DD	FLAT:?GetElementType@CLine@@UBE?AW4ElementType@CToolEnumData@@XZ
	DD	FLAT:?GetPoints@CTwoPointElement@@UAEXAAVCElementPointList@@@Z
	DD	FLAT:?GetTextPosition@CLine@@MAEPAVCTextPosition@@XZ
	DD	FLAT:?GetTextPosition@CLine@@MBEPBVCTextPosition@@XZ
	DD	FLAT:?GetModifyType@CTwoPointElement@@UBE?AW4ModifyType@CToolEnumData@@PAVCExtractingDataOfModifyType@@@Z
	DD	FLAT:?GetCoordinate@CTwoPointElement@@UBE?AVCCoordinate@@W4ModifyType@CToolEnumData@@@Z
	DD	FLAT:?ElementModify@CTwoPointElement@@UAEXABVCElementModifyData@@@Z
	DD	FLAT:?ElementModify_YValue@CTwoPointElement@@UAEXABVCElementModifyData@@@Z
	DD	FLAT:?ElementModify_Coordinate@CTwoPointElement@@UAEXABVCCoordinate@@W4ModifyType@CToolEnumData@@@Z
	DD	FLAT:?Draw@CElement@@UAEXPAVCDC@@ABVCDrawingRegions@@ABVCCoordinateCalculatorData@@@Z
	DD	FLAT:?DrawShadowAndGrip@CTwoPointElement@@UAEXPAVCDC@@ABVCDrawingRegions@@ABVCCoordinateCalculatorData@@@Z
	DD	FLAT:?DrawSelected@CTwoPointElement@@UAEXPAVCDC@@ABVCSelectedElementDrawingData@@@Z
	DD	FLAT:?GetSavedPoints@CTwoPointElement@@MBE?AV?$CStringT@DV?$StrTraitMFC_DLL@DV?$ChTraitsCRT@D@ATL@@@@@ATL@@XZ
	DD	FLAT:?RealDraw@CTwoPointElement@@MAEXPAVCDC@@ABVCDrawingRegions@@ABVCCoordinateCalculatorData@@@Z
	DD	FLAT:?GetModifyType@CTwoPointElement@@MBE?AW4ModifyType@CToolEnumData@@ABVCDisplayData@@ABVCPoint@@11@Z
	DD	FLAT:?GetModifyType@CLine@@MBE?AW4ModifyType@CToolEnumData@@ABVCRect@@ABVCPoint@@11@Z
	DD	FLAT:?GetTwoPointDrawer@CLine@@MAEAAVCTwoPointDrawer@@XZ
	DD	FLAT:?ElementInRegion@CLine@@MBE_NABVCRect@@ABVCPoint@@11@Z
CONST	ENDS
;	COMDAT ??_7CAdjustRatioDrawer@@6B@
CONST	SEGMENT
??_7CAdjustRatioDrawer@@6B@ DD FLAT:??_R4CAdjustRatioDrawer@@6B@ ; CAdjustRatioDrawer::`vftable'
	DD	FLAT:?DrawTool@CThreePointDrawer@@MAEXPAVCDC@@ABVCRegion@@ABVCPoints@@2@Z
	DD	FLAT:?DrawTool@CThreePointDrawer@@MAEXPAVCDC@@ABVCRegion@@ABVCPoints@@@Z
	DD	FLAT:?DrawShape@CAdjustRatioDrawer@@MAEXPAVCDC@@ABVCRegion@@ABVCPoint@@22@Z
CONST	ENDS
;	COMDAT ??_8CElliotLineDrawer@@7B@
CONST	SEGMENT
??_8CElliotLineDrawer@@7B@ DD 0fffffffcH		; CElliotLineDrawer::`vbtable'
	DD	04H
CONST	ENDS
;	COMDAT ??_7CElliotLineDrawer@@6B@
CONST	SEGMENT
??_7CElliotLineDrawer@@6B@ DD FLAT:??_R4CElliotLineDrawer@@6B@ ; CElliotLineDrawer::`vftable'
	DD	FLAT:?IsDrawing@CTwoPointDrawer@@MBE_NABVCRect@@ABVCPoint@@1@Z
	DD	FLAT:?DrawShape@CElliotLineDrawer@@UAEXPAVCDC@@ABVCTwoPointDrawingData@@ABVCPoint@@2@Z
	DD	FLAT:?DrawShadow@CTwoPointDrawer@@MAEXPAVCDC@@ABVCRect@@ABVCPoint@@2@Z
	DD	FLAT:?DrawTextA@CTwoPointDrawer@@MAEXPAVCDC@@ABVCTwoPointDrawingData@@@Z
CONST	ENDS
;	COMDAT ??_8CPeriodSumLineDrawer@@7B@
CONST	SEGMENT
??_8CPeriodSumLineDrawer@@7B@ DD 0fffffffcH		; CPeriodSumLineDrawer::`vbtable'
	DD	04H
CONST	ENDS
;	COMDAT ??_7CPeriodSumLineDrawer@@6B@
CONST	SEGMENT
??_7CPeriodSumLineDrawer@@6B@ DD FLAT:??_R4CPeriodSumLineDrawer@@6B@ ; CPeriodSumLineDrawer::`vftable'
	DD	FLAT:?IsDrawing@CTwoPointDrawer@@MBE_NABVCRect@@ABVCPoint@@1@Z
	DD	FLAT:?DrawShape@CPeriodSumLineDrawer@@UAEXPAVCDC@@ABVCTwoPointDrawingData@@ABVCPoint@@2@Z
	DD	FLAT:?DrawShadow@CTwoPointDrawer@@MAEXPAVCDC@@ABVCRect@@ABVCPoint@@2@Z
	DD	FLAT:?DrawTextA@CPeriodSumLineDrawer@@UAEXPAVCDC@@ABVCTwoPointDrawingData@@@Z
CONST	ENDS
;	COMDAT ??_7CPencilLineDrawer@@6B@
CONST	SEGMENT
??_7CPencilLineDrawer@@6B@ DD FLAT:??_R4CPencilLineDrawer@@6B@ ; CPencilLineDrawer::`vftable'
	DD	FLAT:?DrawTool@CMultiPointDrawer@@MAEXPAVCDC@@ABVCRegion@@ABVCPoints@@2@Z
	DD	FLAT:?DrawTool@CMultiPointDrawer@@MAEXPAVCDC@@ABVCRegion@@ABVCPoints@@@Z
	DD	FLAT:?DrawShape@CPencilLineDrawer@@MAEXPAVCDC@@ABVCMultiPointDrawingData@@@Z
CONST	ENDS
;	COMDAT ??_8CCandleBongDrawer@@7B@
CONST	SEGMENT
??_8CCandleBongDrawer@@7B@ DD 0fffffffcH		; CCandleBongDrawer::`vbtable'
	DD	04H
CONST	ENDS
;	COMDAT ??_7CCandleBongDrawer@@6B@
CONST	SEGMENT
??_7CCandleBongDrawer@@6B@ DD FLAT:??_R4CCandleBongDrawer@@6B@ ; CCandleBongDrawer::`vftable'
	DD	FLAT:?IsDrawing@CTwoPointDrawer@@MBE_NABVCRect@@ABVCPoint@@1@Z
	DD	FLAT:?DrawShape@CCandleBongDrawer@@MAEXPAVCDC@@ABVCTwoPointDrawingData@@ABVCPoint@@2@Z
	DD	FLAT:?DrawShadow@CTwoPointDrawer@@MAEXPAVCDC@@ABVCRect@@ABVCPoint@@2@Z
	DD	FLAT:?DrawTextA@CTwoPointDrawer@@MAEXPAVCDC@@ABVCTwoPointDrawingData@@@Z
CONST	ENDS
;	COMDAT ??_8CLinearRegressionDrawer@@7B@
CONST	SEGMENT
??_8CLinearRegressionDrawer@@7B@ DD 0fffffffcH		; CLinearRegressionDrawer::`vbtable'
	DD	04H
CONST	ENDS
;	COMDAT ??_7CLinearRegressionDrawer@@6B@
CONST	SEGMENT
??_7CLinearRegressionDrawer@@6B@ DD FLAT:??_R4CLinearRegressionDrawer@@6B@ ; CLinearRegressionDrawer::`vftable'
	DD	FLAT:?IsDrawing@CTwoPointDrawer@@MBE_NABVCRect@@ABVCPoint@@1@Z
	DD	FLAT:?DrawShape@CLinearRegressionDrawer@@UAEXPAVCDC@@ABVCTwoPointDrawingData@@ABVCPoint@@2@Z
	DD	FLAT:?DrawShadow@CLinearRegressionDrawer@@UAEXPAVCDC@@ABVCRect@@ABVCPoint@@2@Z
	DD	FLAT:?DrawTextA@CTwoPointDrawer@@MAEXPAVCDC@@ABVCTwoPointDrawingData@@@Z
CONST	ENDS
;	COMDAT ??_8CSpeedArcDrawer@@7B@
CONST	SEGMENT
??_8CSpeedArcDrawer@@7B@ DD 0fffffffcH			; CSpeedArcDrawer::`vbtable'
	DD	04H
CONST	ENDS
;	COMDAT ??_7CSpeedArcDrawer@@6B@
CONST	SEGMENT
??_7CSpeedArcDrawer@@6B@ DD FLAT:??_R4CSpeedArcDrawer@@6B@ ; CSpeedArcDrawer::`vftable'
	DD	FLAT:?IsDrawing@CTwoPointDrawer@@MBE_NABVCRect@@ABVCPoint@@1@Z
	DD	FLAT:?DrawShape@CSpeedArcDrawer@@MAEXPAVCDC@@ABVCTwoPointDrawingData@@ABVCPoint@@2@Z
	DD	FLAT:?DrawShadow@CTwoPointDrawer@@MAEXPAVCDC@@ABVCRect@@ABVCPoint@@2@Z
	DD	FLAT:?DrawTextA@CTwoPointDrawer@@MAEXPAVCDC@@ABVCTwoPointDrawingData@@@Z
	DD	FLAT:?DrawArc@CSpeedArcDrawer@@MAEXPAVCDC@@ABVCRect@@HH@Z
CONST	ENDS
;	COMDAT ??_8CSpeedFanDrawer@@7B@
CONST	SEGMENT
??_8CSpeedFanDrawer@@7B@ DD 0fffffffcH			; CSpeedFanDrawer::`vbtable'
	DD	04H
CONST	ENDS
;	COMDAT ??_7CSpeedFanDrawer@@6B@
CONST	SEGMENT
??_7CSpeedFanDrawer@@6B@ DD FLAT:??_R4CSpeedFanDrawer@@6B@ ; CSpeedFanDrawer::`vftable'
	DD	FLAT:?IsDrawing@CTwoPointDrawer@@MBE_NABVCRect@@ABVCPoint@@1@Z
	DD	FLAT:?DrawShape@CSpeedFanDrawer@@MAEXPAVCDC@@ABVCTwoPointDrawingData@@ABVCPoint@@2@Z
	DD	FLAT:?DrawShadow@CTwoPointDrawer@@MAEXPAVCDC@@ABVCRect@@ABVCPoint@@2@Z
	DD	FLAT:?DrawTextA@CTwoPointDrawer@@MAEXPAVCDC@@ABVCTwoPointDrawingData@@@Z
CONST	ENDS
;	COMDAT ??_8CSpeedLineDrawer@@7B@
CONST	SEGMENT
??_8CSpeedLineDrawer@@7B@ DD 0fffffffcH			; CSpeedLineDrawer::`vbtable'
	DD	04H
CONST	ENDS
;	COMDAT ??_7CSpeedLineDrawer@@6B@
CONST	SEGMENT
??_7CSpeedLineDrawer@@6B@ DD FLAT:??_R4CSpeedLineDrawer@@6B@ ; CSpeedLineDrawer::`vftable'
	DD	FLAT:?IsDrawing@CTwoPointDrawer@@MBE_NABVCRect@@ABVCPoint@@1@Z
	DD	FLAT:?DrawShape@CSpeedLineDrawer@@MAEXPAVCDC@@ABVCTwoPointDrawingData@@ABVCPoint@@2@Z
	DD	FLAT:?DrawShadow@CTwoPointDrawer@@MAEXPAVCDC@@ABVCRect@@ABVCPoint@@2@Z
	DD	FLAT:?DrawTextA@CTwoPointDrawer@@MAEXPAVCDC@@ABVCTwoPointDrawingData@@@Z
CONST	ENDS
;	COMDAT ??_8CCycleLinesDrawer@@7B@
CONST	SEGMENT
??_8CCycleLinesDrawer@@7B@ DD 0fffffffcH		; CCycleLinesDrawer::`vbtable'
	DD	0cH
CONST	ENDS
;	COMDAT ??_7CCycleLinesDrawer@@6B@
CONST	SEGMENT
??_7CCycleLinesDrawer@@6B@ DD FLAT:??_R4CCycleLinesDrawer@@6B@ ; CCycleLinesDrawer::`vftable'
	DD	FLAT:?IsDrawing@CTwoPointDrawer@@MBE_NABVCRect@@ABVCPoint@@1@Z
	DD	FLAT:?DrawShape@CCycleLinesDrawer@@MAEXPAVCDC@@ABVCTwoPointDrawingData@@ABVCPoint@@2@Z
	DD	FLAT:?DrawShadow@CTwoPointDrawer@@MAEXPAVCDC@@ABVCRect@@ABVCPoint@@2@Z
	DD	FLAT:?DrawTextA@CTwoPointDrawer@@MAEXPAVCDC@@ABVCTwoPointDrawingData@@@Z
CONST	ENDS
;	COMDAT ??_7CAndrewsPitchforkDrawer@@6B@
CONST	SEGMENT
??_7CAndrewsPitchforkDrawer@@6B@ DD FLAT:??_R4CAndrewsPitchforkDrawer@@6B@ ; CAndrewsPitchforkDrawer::`vftable'
	DD	FLAT:?DrawTool@CThreePointDrawer@@MAEXPAVCDC@@ABVCRegion@@ABVCPoints@@2@Z
	DD	FLAT:?DrawTool@CThreePointDrawer@@MAEXPAVCDC@@ABVCRegion@@ABVCPoints@@@Z
	DD	FLAT:?DrawShape@CAndrewsPitchforkDrawer@@MAEXPAVCDC@@ABVCRegion@@ABVCPoint@@22@Z
CONST	ENDS
;	COMDAT ??_8CQuadrisectLineDrawer@@7B@
CONST	SEGMENT
??_8CQuadrisectLineDrawer@@7B@ DD 0fffffffcH		; CQuadrisectLineDrawer::`vbtable'
	DD	04H
CONST	ENDS
;	COMDAT ??_7CQuadrisectLineDrawer@@6B@
CONST	SEGMENT
??_7CQuadrisectLineDrawer@@6B@ DD FLAT:??_R4CQuadrisectLineDrawer@@6B@ ; CQuadrisectLineDrawer::`vftable'
	DD	FLAT:?IsDrawing@CTwoPointDrawer@@MBE_NABVCRect@@ABVCPoint@@1@Z
	DD	FLAT:?DrawShape@CEqualDivisionLineDrawer@@UAEXPAVCDC@@ABVCTwoPointDrawingData@@ABVCPoint@@2@Z
	DD	FLAT:?DrawShadow@CEqualDivisionLineDrawer@@UAEXPAVCDC@@ABVCRect@@ABVCPoint@@2@Z
	DD	FLAT:?DrawTextA@CEqualDivisionLineDrawer@@UAEXPAVCDC@@ABVCTwoPointDrawingData@@@Z
	DD	FLAT:?GetCount@CQuadrisectLineDrawer@@UBEHH@Z
	DD	FLAT:?GetCoefficient@CQuadrisectLineDrawer@@MBENHH@Z
CONST	ENDS
;	COMDAT ??_8CTrisectionLineDrawer@@7B@
CONST	SEGMENT
??_8CTrisectionLineDrawer@@7B@ DD 0fffffffcH		; CTrisectionLineDrawer::`vbtable'
	DD	04H
CONST	ENDS
;	COMDAT ??_7CTrisectionLineDrawer@@6B@
CONST	SEGMENT
??_7CTrisectionLineDrawer@@6B@ DD FLAT:??_R4CTrisectionLineDrawer@@6B@ ; CTrisectionLineDrawer::`vftable'
	DD	FLAT:?IsDrawing@CTwoPointDrawer@@MBE_NABVCRect@@ABVCPoint@@1@Z
	DD	FLAT:?DrawShape@CEqualDivisionLineDrawer@@UAEXPAVCDC@@ABVCTwoPointDrawingData@@ABVCPoint@@2@Z
	DD	FLAT:?DrawShadow@CEqualDivisionLineDrawer@@UAEXPAVCDC@@ABVCRect@@ABVCPoint@@2@Z
	DD	FLAT:?DrawTextA@CEqualDivisionLineDrawer@@UAEXPAVCDC@@ABVCTwoPointDrawingData@@@Z
	DD	FLAT:?GetCount@CTrisectionLineDrawer@@UBEHH@Z
	DD	FLAT:?GetCoefficient@CTrisectionLineDrawer@@MBENHH@Z
CONST	ENDS
;	COMDAT ??_7CEqualDivisionLineDrawer@@6B@
CONST	SEGMENT
??_7CEqualDivisionLineDrawer@@6B@ DD FLAT:??_R4CEqualDivisionLineDrawer@@6B@ ; CEqualDivisionLineDrawer::`vftable'
	DD	FLAT:?IsDrawing@CTwoPointDrawer@@MBE_NABVCRect@@ABVCPoint@@1@Z
	DD	FLAT:?DrawShape@CEqualDivisionLineDrawer@@UAEXPAVCDC@@ABVCTwoPointDrawingData@@ABVCPoint@@2@Z
	DD	FLAT:?DrawShadow@CEqualDivisionLineDrawer@@UAEXPAVCDC@@ABVCRect@@ABVCPoint@@2@Z
	DD	FLAT:?DrawTextA@CEqualDivisionLineDrawer@@UAEXPAVCDC@@ABVCTwoPointDrawingData@@@Z
	DD	FLAT:__purecall
	DD	FLAT:__purecall
CONST	ENDS
;	COMDAT ??_8CCrossLineDrawer@@7BCOnePointDrawer@@@
CONST	SEGMENT
??_8CCrossLineDrawer@@7BCOnePointDrawer@@@ DD 0fffffffcH ; CCrossLineDrawer::`vbtable'
	DD	0ffffffe4H
CONST	ENDS
;	COMDAT ??_8CCrossLineDrawer@@7BCHorzLineDrawer@@@
CONST	SEGMENT
??_8CCrossLineDrawer@@7BCHorzLineDrawer@@@ DD 00H	; CCrossLineDrawer::`vbtable'
	DD	0cH
	DD	024H
CONST	ENDS
;	COMDAT ??_8CCrossLineDrawer@@7BCVertLineDrawer@@@
CONST	SEGMENT
??_8CCrossLineDrawer@@7BCVertLineDrawer@@@ DD 00H	; CCrossLineDrawer::`vbtable'
	DD	018H
	DD	030H
CONST	ENDS
;	COMDAT ??_7CCrossLineDrawer@@6B@
CONST	SEGMENT
??_7CCrossLineDrawer@@6B@ DD FLAT:??_R4CCrossLineDrawer@@6B@ ; CCrossLineDrawer::`vftable'
	DD	FLAT:?IsDrawing@CCrossLineDrawer@@$2PPPPPPPM@A@BE_NABVCRect@@ABVCPoint@@@Z
	DD	FLAT:?DrawShape@CCrossLineDrawer@@$2PPPPPPPM@A@AEXPAVCDC@@ABVCOnePointDrawingData@@ABVCDisplayData@@ABVCPoint@@_N@Z
	DD	FLAT:?DrawShadow@COnePointDrawer@@MAEXPAVCDC@@ABVCDisplayData@@ABVCPoint@@_N@Z
	DD	FLAT:?DrawTextA@CCrossLineDrawer@@$2PPPPPPPM@A@AEXPAVCDC@@ABVCOnePointDrawingData@@@Z
	DD	FLAT:?GetGripRegion@CCrossLineDrawer@@$2PPPPPPPM@A@AE?AVCRect@@ABV2@ABVCPoint@@@Z
CONST	ENDS
;	COMDAT ??_7CMultiPointDrawer@@6B@
CONST	SEGMENT
??_7CMultiPointDrawer@@6B@ DD FLAT:??_R4CMultiPointDrawer@@6B@ ; CMultiPointDrawer::`vftable'
	DD	FLAT:?DrawTool@CMultiPointDrawer@@MAEXPAVCDC@@ABVCRegion@@ABVCPoints@@2@Z
	DD	FLAT:?DrawTool@CMultiPointDrawer@@MAEXPAVCDC@@ABVCRegion@@ABVCPoints@@@Z
	DD	FLAT:__purecall
CONST	ENDS
;	COMDAT ??_7CThreePointDrawer@@6B@
CONST	SEGMENT
??_7CThreePointDrawer@@6B@ DD FLAT:??_R4CThreePointDrawer@@6B@ ; CThreePointDrawer::`vftable'
	DD	FLAT:?DrawTool@CThreePointDrawer@@MAEXPAVCDC@@ABVCRegion@@ABVCPoints@@2@Z
	DD	FLAT:?DrawTool@CThreePointDrawer@@MAEXPAVCDC@@ABVCRegion@@ABVCPoints@@@Z
	DD	FLAT:__purecall
CONST	ENDS
;	COMDAT ??_7CTwoPointDrawer@@6B@
CONST	SEGMENT
??_7CTwoPointDrawer@@6B@ DD FLAT:??_R4CTwoPointDrawer@@6B@ ; CTwoPointDrawer::`vftable'
	DD	FLAT:?IsDrawing@CTwoPointDrawer@@MBE_NABVCRect@@ABVCPoint@@1@Z
	DD	FLAT:__purecall
	DD	FLAT:?DrawShadow@CTwoPointDrawer@@MAEXPAVCDC@@ABVCRect@@ABVCPoint@@2@Z
	DD	FLAT:?DrawTextA@CTwoPointDrawer@@MAEXPAVCDC@@ABVCTwoPointDrawingData@@@Z
CONST	ENDS
;	COMDAT ??_7COnePointDrawer@@6B@
CONST	SEGMENT
??_7COnePointDrawer@@6B@ DD FLAT:??_R4COnePointDrawer@@6B@ ; COnePointDrawer::`vftable'
	DD	FLAT:__purecall
	DD	FLAT:__purecall
	DD	FLAT:?DrawShadow@COnePointDrawer@@MAEXPAVCDC@@ABVCDisplayData@@ABVCPoint@@_N@Z
	DD	FLAT:?DrawTextA@COnePointDrawer@@MAEXPAVCDC@@ABVCOnePointDrawingData@@@Z
	DD	FLAT:__purecall
CONST	ENDS
;	COMDAT ??_7CElement@@6B@
CONST	SEGMENT
??_7CElement@@6B@ DD FLAT:??_R4CElement@@6B@		; CElement::`vftable'
	DD	FLAT:??_ECElement@@UAEPAXI@Z
	DD	FLAT:__purecall
	DD	FLAT:__purecall
	DD	FLAT:?GetTextPosition@CElement@@UAEPAVCTextPosition@@XZ
	DD	FLAT:?GetTextPosition@CElement@@UBEPBVCTextPosition@@XZ
	DD	FLAT:__purecall
	DD	FLAT:__purecall
	DD	FLAT:__purecall
	DD	FLAT:__purecall
	DD	FLAT:__purecall
	DD	FLAT:?Draw@CElement@@UAEXPAVCDC@@ABVCDrawingRegions@@ABVCCoordinateCalculatorData@@@Z
	DD	FLAT:__purecall
	DD	FLAT:__purecall
	DD	FLAT:__purecall
	DD	FLAT:__purecall
CONST	ENDS
;	COMDAT ??_7CTextHorzVertPosition@@6B@
CONST	SEGMENT
??_7CTextHorzVertPosition@@6B@ DD FLAT:??_R4CTextHorzVertPosition@@6B@ ; CTextHorzVertPosition::`vftable'
	DD	FLAT:?Set@CTextHorzVertPosition@@UAEXPBVCTextPosition@@@Z
	DD	FLAT:?GetSavedRealTextPositionData@CTextHorzVertPosition@@MBE?AV?$CStringT@DV?$StrTraitMFC_DLL@DV?$ChTraitsCRT@D@ATL@@@@@ATL@@XZ
CONST	ENDS
;	COMDAT ??_7CTextPosition@@6B@
CONST	SEGMENT
??_7CTextPosition@@6B@ DD FLAT:??_R4CTextPosition@@6B@	; CTextPosition::`vftable'
	DD	FLAT:?Set@CTextPosition@@UAEXPBV1@@Z
	DD	FLAT:__purecall
CONST	ENDS
;	COMDAT xdata$x
xdata$x	SEGMENT
__unwindtable$??0CAdjustRatio@@QAE@ABVCCoordinate@@00ABVCElementCommonEnvironment@@@Z DD 0ffffffffH
	DD	FLAT:__unwindfunclet$??0CAdjustRatio@@QAE@ABVCCoordinate@@00ABVCElementCommonEnvironment@@@Z$0
__ehfuncinfo$??0CAdjustRatio@@QAE@ABVCCoordinate@@00ABVCElementCommonEnvironment@@@Z DD 019930522H
	DD	01H
	DD	FLAT:__unwindtable$??0CAdjustRatio@@QAE@ABVCCoordinate@@00ABVCElementCommonEnvironment@@@Z
	DD	2 DUP(00H)
	DD	2 DUP(00H)
	DD	00H
	DD	01H
xdata$x	ENDS
;	COMDAT xdata$x
xdata$x	SEGMENT
__unwindtable$??0CElliotLine@@QAE@ABVCCoordinate@@0ABVCElementCommonEnvironment@@@Z DD 0ffffffffH
	DD	FLAT:___std_terminate
__ehfuncinfo$??0CElliotLine@@QAE@ABVCCoordinate@@0ABVCElementCommonEnvironment@@@Z DD 019930522H
	DD	01H
	DD	FLAT:__unwindtable$??0CElliotLine@@QAE@ABVCCoordinate@@0ABVCElementCommonEnvironment@@@Z
	DD	2 DUP(00H)
	DD	2 DUP(00H)
	DD	00H
	DD	01H
xdata$x	ENDS
;	COMDAT xdata$x
xdata$x	SEGMENT
__unwindtable$??0CPeriodSumLine@@QAE@ABVCTextHorzPosition@@ABVCCoordinate@@1ABVCElementCommonEnvironment@@@Z DD 0ffffffffH
	DD	FLAT:__unwindfunclet$??0CPeriodSumLine@@QAE@ABVCTextHorzPosition@@ABVCCoordinate@@1ABVCElementCommonEnvironment@@@Z$0
	DD	00H
	DD	FLAT:___std_terminate
__ehfuncinfo$??0CPeriodSumLine@@QAE@ABVCTextHorzPosition@@ABVCCoordinate@@1ABVCElementCommonEnvironment@@@Z DD 019930522H
	DD	02H
	DD	FLAT:__unwindtable$??0CPeriodSumLine@@QAE@ABVCTextHorzPosition@@ABVCCoordinate@@1ABVCElementCommonEnvironment@@@Z
	DD	2 DUP(00H)
	DD	2 DUP(00H)
	DD	00H
	DD	01H
xdata$x	ENDS
;	COMDAT xdata$x
xdata$x	SEGMENT
__unwindtable$??_GCPencilLine@@UAEPAXI@Z DD 0ffffffffH
	DD	FLAT:___std_terminate
__ehfuncinfo$??_GCPencilLine@@UAEPAXI@Z DD 019930522H
	DD	01H
	DD	FLAT:__unwindtable$??_GCPencilLine@@UAEPAXI@Z
	DD	2 DUP(00H)
	DD	2 DUP(00H)
	DD	00H
	DD	05H
xdata$x	ENDS
;	COMDAT xdata$x
xdata$x	SEGMENT
__unwindtable$??1CPencilLine@@UAE@XZ DD 0ffffffffH
	DD	FLAT:___std_terminate
__ehfuncinfo$??1CPencilLine@@UAE@XZ DD 019930522H
	DD	01H
	DD	FLAT:__unwindtable$??1CPencilLine@@UAE@XZ
	DD	2 DUP(00H)
	DD	2 DUP(00H)
	DD	00H
	DD	05H
xdata$x	ENDS
;	COMDAT xdata$x
xdata$x	SEGMENT
__unwindtable$??0CPencilLine@@QAE@ABV?$CDequeList@VCCoordinate@@@@ABVCElementCommonEnvironment@@@Z DD 0ffffffffH
	DD	FLAT:__unwindfunclet$??0CPencilLine@@QAE@ABV?$CDequeList@VCCoordinate@@@@ABVCElementCommonEnvironment@@@Z$0
__ehfuncinfo$??0CPencilLine@@QAE@ABV?$CDequeList@VCCoordinate@@@@ABVCElementCommonEnvironment@@@Z DD 019930522H
	DD	01H
	DD	FLAT:__unwindtable$??0CPencilLine@@QAE@ABV?$CDequeList@VCCoordinate@@@@ABVCElementCommonEnvironment@@@Z
	DD	2 DUP(00H)
	DD	2 DUP(00H)
	DD	00H
	DD	01H
xdata$x	ENDS
;	COMDAT xdata$x
xdata$x	SEGMENT
__unwindtable$??0CPencilLine@@QAE@ABHPBVCPoints@@ABVCElementCommonEnvironment@@@Z DD 0ffffffffH
	DD	FLAT:__unwindfunclet$??0CPencilLine@@QAE@ABHPBVCPoints@@ABVCElementCommonEnvironment@@@Z$0
__ehfuncinfo$??0CPencilLine@@QAE@ABHPBVCPoints@@ABVCElementCommonEnvironment@@@Z DD 019930522H
	DD	01H
	DD	FLAT:__unwindtable$??0CPencilLine@@QAE@ABHPBVCPoints@@ABVCElementCommonEnvironment@@@Z
	DD	2 DUP(00H)
	DD	2 DUP(00H)
	DD	00H
	DD	01H
xdata$x	ENDS
;	COMDAT xdata$x
xdata$x	SEGMENT
__unwindtable$??0CCandleBong@@QAE@ABVCCoordinate@@0ABVCElementCommonEnvironment@@@Z DD 0ffffffffH
	DD	FLAT:___std_terminate
__ehfuncinfo$??0CCandleBong@@QAE@ABVCCoordinate@@0ABVCElementCommonEnvironment@@@Z DD 019930522H
	DD	01H
	DD	FLAT:__unwindtable$??0CCandleBong@@QAE@ABVCCoordinate@@0ABVCElementCommonEnvironment@@@Z
	DD	2 DUP(00H)
	DD	2 DUP(00H)
	DD	00H
	DD	01H
xdata$x	ENDS
;	COMDAT xdata$x
xdata$x	SEGMENT
__unwindtable$?ElementModify@CCandleLine@@UAEXABVCElementModifyData@@@Z DD 0ffffffffH
	DD	FLAT:__unwindfunclet$?ElementModify@CCandleLine@@UAEXABVCElementModifyData@@@Z$0
	DD	0ffffffffH
	DD	FLAT:__unwindfunclet$?ElementModify@CCandleLine@@UAEXABVCElementModifyData@@@Z$1
__ehfuncinfo$?ElementModify@CCandleLine@@UAEXABVCElementModifyData@@@Z DD 019930522H
	DD	02H
	DD	FLAT:__unwindtable$?ElementModify@CCandleLine@@UAEXABVCElementModifyData@@@Z
	DD	2 DUP(00H)
	DD	2 DUP(00H)
	DD	00H
	DD	01H
xdata$x	ENDS
;	COMDAT xdata$x
xdata$x	SEGMENT
__unwindtable$??0CCandleLine@@QAE@ABVCTextShowPosition@@ABVCCoordinate@@ABVCElementCommonEnvironment@@@Z DD 0ffffffffH
	DD	FLAT:__unwindfunclet$??0CCandleLine@@QAE@ABVCTextShowPosition@@ABVCCoordinate@@ABVCElementCommonEnvironment@@@Z$0
__ehfuncinfo$??0CCandleLine@@QAE@ABVCTextShowPosition@@ABVCCoordinate@@ABVCElementCommonEnvironment@@@Z DD 019930522H
	DD	01H
	DD	FLAT:__unwindtable$??0CCandleLine@@QAE@ABVCTextShowPosition@@ABVCCoordinate@@ABVCElementCommonEnvironment@@@Z
	DD	2 DUP(00H)
	DD	2 DUP(00H)
	DD	00H
	DD	01H
xdata$x	ENDS
;	COMDAT xdata$x
xdata$x	SEGMENT
__unwindtable$?GetModifyType@CAngleLine@@MBE?AW4ModifyType@CToolEnumData@@ABVCRect@@ABVCPoint@@11@Z DD 0ffffffffH
	DD	FLAT:__unwindfunclet$?GetModifyType@CAngleLine@@MBE?AW4ModifyType@CToolEnumData@@ABVCRect@@ABVCPoint@@11@Z$0
	DD	0ffffffffH
	DD	FLAT:__unwindfunclet$?GetModifyType@CAngleLine@@MBE?AW4ModifyType@CToolEnumData@@ABVCRect@@ABVCPoint@@11@Z$1
__ehfuncinfo$?GetModifyType@CAngleLine@@MBE?AW4ModifyType@CToolEnumData@@ABVCRect@@ABVCPoint@@11@Z DD 019930522H
	DD	02H
	DD	FLAT:__unwindtable$?GetModifyType@CAngleLine@@MBE?AW4ModifyType@CToolEnumData@@ABVCRect@@ABVCPoint@@11@Z
	DD	2 DUP(00H)
	DD	2 DUP(00H)
	DD	00H
	DD	01H
xdata$x	ENDS
;	COMDAT xdata$x
xdata$x	SEGMENT
__unwindtable$??0CAngleLine@@QAE@ABVCTextShowPosition@@ABVCCoordinate@@1ABVCElementCommonEnvironment@@@Z DD 0ffffffffH
	DD	FLAT:__unwindfunclet$??0CAngleLine@@QAE@ABVCTextShowPosition@@ABVCCoordinate@@1ABVCElementCommonEnvironment@@@Z$0
__ehfuncinfo$??0CAngleLine@@QAE@ABVCTextShowPosition@@ABVCCoordinate@@1ABVCElementCommonEnvironment@@@Z DD 019930522H
	DD	01H
	DD	FLAT:__unwindtable$??0CAngleLine@@QAE@ABVCTextShowPosition@@ABVCCoordinate@@1ABVCElementCommonEnvironment@@@Z
	DD	2 DUP(00H)
	DD	2 DUP(00H)
	DD	00H
	DD	01H
xdata$x	ENDS
;	COMDAT xdata$x
xdata$x	SEGMENT
__unwindtable$?GetModifyType@CRaffRegression@@MBE?AW4ModifyType@CToolEnumData@@ABVCRect@@ABVCPoint@@11@Z DD 0ffffffffH
	DD	FLAT:__unwindfunclet$?GetModifyType@CRaffRegression@@MBE?AW4ModifyType@CToolEnumData@@ABVCRect@@ABVCPoint@@11@Z$0
	DD	0ffffffffH
	DD	FLAT:__unwindfunclet$?GetModifyType@CRaffRegression@@MBE?AW4ModifyType@CToolEnumData@@ABVCRect@@ABVCPoint@@11@Z$1
	DD	0ffffffffH
	DD	FLAT:__unwindfunclet$?GetModifyType@CRaffRegression@@MBE?AW4ModifyType@CToolEnumData@@ABVCRect@@ABVCPoint@@11@Z$2
__ehfuncinfo$?GetModifyType@CRaffRegression@@MBE?AW4ModifyType@CToolEnumData@@ABVCRect@@ABVCPoint@@11@Z DD 019930522H
	DD	03H
	DD	FLAT:__unwindtable$?GetModifyType@CRaffRegression@@MBE?AW4ModifyType@CToolEnumData@@ABVCRect@@ABVCPoint@@11@Z
	DD	2 DUP(00H)
	DD	2 DUP(00H)
	DD	00H
	DD	01H
xdata$x	ENDS
;	COMDAT xdata$x
xdata$x	SEGMENT
__unwindtable$?GetCoordinate@CRaffRegression@@UBE?AVCCoordinate@@W4ModifyType@CToolEnumData@@@Z DD 0ffffffffH
	DD	FLAT:__unwindfunclet$?GetCoordinate@CRaffRegression@@UBE?AVCCoordinate@@W4ModifyType@CToolEnumData@@@Z$0
__ehfuncinfo$?GetCoordinate@CRaffRegression@@UBE?AVCCoordinate@@W4ModifyType@CToolEnumData@@@Z DD 019930522H
	DD	01H
	DD	FLAT:__unwindtable$?GetCoordinate@CRaffRegression@@UBE?AVCCoordinate@@W4ModifyType@CToolEnumData@@@Z
	DD	2 DUP(00H)
	DD	2 DUP(00H)
	DD	00H
	DD	01H
xdata$x	ENDS
;	COMDAT xdata$x
xdata$x	SEGMENT
__ehfuncinfo$?ElementModify@CRaffRegression@@UAEXABVCElementModifyData@@@Z DD 019930522H
	DD	06H
	DD	FLAT:__unwindtable$?ElementModify@CRaffRegression@@UAEXABVCElementModifyData@@@Z
	DD	2 DUP(00H)
	DD	2 DUP(00H)
	DD	00H
	DD	01H
__unwindtable$?ElementModify@CRaffRegression@@UAEXABVCElementModifyData@@@Z DD 0ffffffffH
	DD	FLAT:__unwindfunclet$?ElementModify@CRaffRegression@@UAEXABVCElementModifyData@@@Z$0
	DD	0ffffffffH
	DD	FLAT:__unwindfunclet$?ElementModify@CRaffRegression@@UAEXABVCElementModifyData@@@Z$1
	DD	0ffffffffH
	DD	FLAT:__unwindfunclet$?ElementModify@CRaffRegression@@UAEXABVCElementModifyData@@@Z$2
	DD	02H
	DD	FLAT:__unwindfunclet$?ElementModify@CRaffRegression@@UAEXABVCElementModifyData@@@Z$3
	DD	03H
	DD	FLAT:__unwindfunclet$?ElementModify@CRaffRegression@@UAEXABVCElementModifyData@@@Z$4
	DD	03H
	DD	FLAT:__unwindfunclet$?ElementModify@CRaffRegression@@UAEXABVCElementModifyData@@@Z$5
xdata$x	ENDS
;	COMDAT xdata$x
xdata$x	SEGMENT
__unwindtable$??0CRaffRegression@@QAE@ABVCCoordinate@@0ABVCElementCommonEnvironment@@N@Z DD 0ffffffffH
	DD	FLAT:__unwindfunclet$??0CRaffRegression@@QAE@ABVCCoordinate@@0ABVCElementCommonEnvironment@@N@Z$0
__ehfuncinfo$??0CRaffRegression@@QAE@ABVCCoordinate@@0ABVCElementCommonEnvironment@@N@Z DD 019930522H
	DD	01H
	DD	FLAT:__unwindtable$??0CRaffRegression@@QAE@ABVCCoordinate@@0ABVCElementCommonEnvironment@@N@Z
	DD	2 DUP(00H)
	DD	2 DUP(00H)
	DD	00H
	DD	01H
xdata$x	ENDS
;	COMDAT xdata$x
xdata$x	SEGMENT
__unwindtable$?GetModifyType@CLinearRegression@@MBE?AW4ModifyType@CToolEnumData@@ABVCRect@@ABVCPoint@@11@Z DD 0ffffffffH
	DD	FLAT:__unwindfunclet$?GetModifyType@CLinearRegression@@MBE?AW4ModifyType@CToolEnumData@@ABVCRect@@ABVCPoint@@11@Z$0
	DD	0ffffffffH
	DD	FLAT:__unwindfunclet$?GetModifyType@CLinearRegression@@MBE?AW4ModifyType@CToolEnumData@@ABVCRect@@ABVCPoint@@11@Z$1
__ehfuncinfo$?GetModifyType@CLinearRegression@@MBE?AW4ModifyType@CToolEnumData@@ABVCRect@@ABVCPoint@@11@Z DD 019930522H
	DD	02H
	DD	FLAT:__unwindtable$?GetModifyType@CLinearRegression@@MBE?AW4ModifyType@CToolEnumData@@ABVCRect@@ABVCPoint@@11@Z
	DD	2 DUP(00H)
	DD	2 DUP(00H)
	DD	00H
	DD	01H
xdata$x	ENDS
;	COMDAT xdata$x
xdata$x	SEGMENT
__unwindtable$?GetCoordinate@CLinearRegression@@UBE?AVCCoordinate@@W4ModifyType@CToolEnumData@@@Z DD 0ffffffffH
	DD	FLAT:__unwindfunclet$?GetCoordinate@CLinearRegression@@UBE?AVCCoordinate@@W4ModifyType@CToolEnumData@@@Z$0
__ehfuncinfo$?GetCoordinate@CLinearRegression@@UBE?AVCCoordinate@@W4ModifyType@CToolEnumData@@@Z DD 019930522H
	DD	01H
	DD	FLAT:__unwindtable$?GetCoordinate@CLinearRegression@@UBE?AVCCoordinate@@W4ModifyType@CToolEnumData@@@Z
	DD	2 DUP(00H)
	DD	2 DUP(00H)
	DD	00H
	DD	01H
xdata$x	ENDS
;	COMDAT xdata$x
xdata$x	SEGMENT
__ehfuncinfo$?ElementModify@CLinearRegression@@UAEXABVCElementModifyData@@@Z DD 019930522H
	DD	06H
	DD	FLAT:__unwindtable$?ElementModify@CLinearRegression@@UAEXABVCElementModifyData@@@Z
	DD	2 DUP(00H)
	DD	2 DUP(00H)
	DD	00H
	DD	01H
__unwindtable$?ElementModify@CLinearRegression@@UAEXABVCElementModifyData@@@Z DD 0ffffffffH
	DD	FLAT:__unwindfunclet$?ElementModify@CLinearRegression@@UAEXABVCElementModifyData@@@Z$0
	DD	0ffffffffH
	DD	FLAT:__unwindfunclet$?ElementModify@CLinearRegression@@UAEXABVCElementModifyData@@@Z$1
	DD	0ffffffffH
	DD	FLAT:__unwindfunclet$?ElementModify@CLinearRegression@@UAEXABVCElementModifyData@@@Z$2
	DD	02H
	DD	FLAT:__unwindfunclet$?ElementModify@CLinearRegression@@UAEXABVCElementModifyData@@@Z$3
	DD	03H
	DD	FLAT:__unwindfunclet$?ElementModify@CLinearRegression@@UAEXABVCElementModifyData@@@Z$4
	DD	03H
	DD	FLAT:__unwindfunclet$?ElementModify@CLinearRegression@@UAEXABVCElementModifyData@@@Z$5
xdata$x	ENDS
;	COMDAT xdata$x
xdata$x	SEGMENT
__unwindtable$??0CLinearRegression@@QAE@ABVCCoordinate@@0ABVCElementCommonEnvironment@@@Z DD 0ffffffffH
	DD	FLAT:___std_terminate
__ehfuncinfo$??0CLinearRegression@@QAE@ABVCCoordinate@@0ABVCElementCommonEnvironment@@@Z DD 019930522H
	DD	01H
	DD	FLAT:__unwindtable$??0CLinearRegression@@QAE@ABVCCoordinate@@0ABVCElementCommonEnvironment@@@Z
	DD	2 DUP(00H)
	DD	2 DUP(00H)
	DD	00H
	DD	01H
xdata$x	ENDS
;	COMDAT xdata$x
xdata$x	SEGMENT
__unwindtable$??0CSpeedArc@@QAE@ABVCCoordinate@@0ABVCElementCommonEnvironment@@@Z DD 0ffffffffH
	DD	FLAT:___std_terminate
__ehfuncinfo$??0CSpeedArc@@QAE@ABVCCoordinate@@0ABVCElementCommonEnvironment@@@Z DD 019930522H
	DD	01H
	DD	FLAT:__unwindtable$??0CSpeedArc@@QAE@ABVCCoordinate@@0ABVCElementCommonEnvironment@@@Z
	DD	2 DUP(00H)
	DD	2 DUP(00H)
	DD	00H
	DD	01H
xdata$x	ENDS
;	COMDAT xdata$x
xdata$x	SEGMENT
__unwindtable$??0CSpeedFan@@QAE@ABVCCoordinate@@0ABVCElementCommonEnvironment@@@Z DD 0ffffffffH
	DD	FLAT:___std_terminate
__ehfuncinfo$??0CSpeedFan@@QAE@ABVCCoordinate@@0ABVCElementCommonEnvironment@@@Z DD 019930522H
	DD	01H
	DD	FLAT:__unwindtable$??0CSpeedFan@@QAE@ABVCCoordinate@@0ABVCElementCommonEnvironment@@@Z
	DD	2 DUP(00H)
	DD	2 DUP(00H)
	DD	00H
	DD	01H
xdata$x	ENDS
;	COMDAT xdata$x
xdata$x	SEGMENT
__unwindtable$??0CSpeedLine@@QAE@ABVCCoordinate@@0ABVCElementCommonEnvironment@@@Z DD 0ffffffffH
	DD	FLAT:___std_terminate
__ehfuncinfo$??0CSpeedLine@@QAE@ABVCCoordinate@@0ABVCElementCommonEnvironment@@@Z DD 019930522H
	DD	01H
	DD	FLAT:__unwindtable$??0CSpeedLine@@QAE@ABVCCoordinate@@0ABVCElementCommonEnvironment@@@Z
	DD	2 DUP(00H)
	DD	2 DUP(00H)
	DD	00H
	DD	01H
xdata$x	ENDS
;	COMDAT xdata$x
xdata$x	SEGMENT
__unwindtable$??0CCycleLines@@QAE@ABVCCoordinate@@0ABVCElementCommonEnvironment@@@Z DD 0ffffffffH
	DD	FLAT:___std_terminate
__ehfuncinfo$??0CCycleLines@@QAE@ABVCCoordinate@@0ABVCElementCommonEnvironment@@@Z DD 019930522H
	DD	01H
	DD	FLAT:__unwindtable$??0CCycleLines@@QAE@ABVCCoordinate@@0ABVCElementCommonEnvironment@@@Z
	DD	2 DUP(00H)
	DD	2 DUP(00H)
	DD	00H
	DD	01H
xdata$x	ENDS
;	COMDAT xdata$x
xdata$x	SEGMENT
__unwindtable$??0CAndrewsPitchfork@@QAE@ABVCCoordinate@@00ABVCElementCommonEnvironment@@@Z DD 0ffffffffH
	DD	FLAT:__unwindfunclet$??0CAndrewsPitchfork@@QAE@ABVCCoordinate@@00ABVCElementCommonEnvironment@@@Z$0
__ehfuncinfo$??0CAndrewsPitchfork@@QAE@ABVCCoordinate@@00ABVCElementCommonEnvironment@@@Z DD 019930522H
	DD	01H
	DD	FLAT:__unwindtable$??0CAndrewsPitchfork@@QAE@ABVCCoordinate@@00ABVCElementCommonEnvironment@@@Z
	DD	2 DUP(00H)
	DD	2 DUP(00H)
	DD	00H
	DD	01H
xdata$x	ENDS
;	COMDAT xdata$x
xdata$x	SEGMENT
__unwindtable$??0CQuadrisectLine@@QAE@ABVCTextHorzPosition@@ABVCCoordinate@@1ABVCElementCommonEnvironment@@@Z DD 0ffffffffH
	DD	FLAT:__unwindfunclet$??0CQuadrisectLine@@QAE@ABVCTextHorzPosition@@ABVCCoordinate@@1ABVCElementCommonEnvironment@@@Z$1
	DD	0ffffffffH
	DD	FLAT:___std_terminate
__ehfuncinfo$??0CQuadrisectLine@@QAE@ABVCTextHorzPosition@@ABVCCoordinate@@1ABVCElementCommonEnvironment@@@Z DD 019930522H
	DD	02H
	DD	FLAT:__unwindtable$??0CQuadrisectLine@@QAE@ABVCTextHorzPosition@@ABVCCoordinate@@1ABVCElementCommonEnvironment@@@Z
	DD	2 DUP(00H)
	DD	2 DUP(00H)
	DD	00H
	DD	01H
xdata$x	ENDS
;	COMDAT xdata$x
xdata$x	SEGMENT
__unwindtable$??0CTrisectionLine@@QAE@ABVCTextHorzPosition@@ABVCCoordinate@@1ABVCElementCommonEnvironment@@@Z DD 0ffffffffH
	DD	FLAT:__unwindfunclet$??0CTrisectionLine@@QAE@ABVCTextHorzPosition@@ABVCCoordinate@@1ABVCElementCommonEnvironment@@@Z$1
	DD	0ffffffffH
	DD	FLAT:___std_terminate
__ehfuncinfo$??0CTrisectionLine@@QAE@ABVCTextHorzPosition@@ABVCCoordinate@@1ABVCElementCommonEnvironment@@@Z DD 019930522H
	DD	02H
	DD	FLAT:__unwindtable$??0CTrisectionLine@@QAE@ABVCTextHorzPosition@@ABVCCoordinate@@1ABVCElementCommonEnvironment@@@Z
	DD	2 DUP(00H)
	DD	2 DUP(00H)
	DD	00H
	DD	01H
xdata$x	ENDS
;	COMDAT xdata$x
xdata$x	SEGMENT
__unwindtable$?GetModifyTypeLine@CEqualDivisionLine@@ABE?AW4ModifyType@CToolEnumData@@ABVCRect@@ABVCPoint@@11@Z DD 0ffffffffH
	DD	FLAT:__unwindfunclet$?GetModifyTypeLine@CEqualDivisionLine@@ABE?AW4ModifyType@CToolEnumData@@ABVCRect@@ABVCPoint@@11@Z$0
	DD	0ffffffffH
	DD	FLAT:__unwindfunclet$?GetModifyTypeLine@CEqualDivisionLine@@ABE?AW4ModifyType@CToolEnumData@@ABVCRect@@ABVCPoint@@11@Z$1
	DD	0ffffffffH
	DD	FLAT:__unwindfunclet$?GetModifyTypeLine@CEqualDivisionLine@@ABE?AW4ModifyType@CToolEnumData@@ABVCRect@@ABVCPoint@@11@Z$2
__ehfuncinfo$?GetModifyTypeLine@CEqualDivisionLine@@ABE?AW4ModifyType@CToolEnumData@@ABVCRect@@ABVCPoint@@11@Z DD 019930522H
	DD	03H
	DD	FLAT:__unwindtable$?GetModifyTypeLine@CEqualDivisionLine@@ABE?AW4ModifyType@CToolEnumData@@ABVCRect@@ABVCPoint@@11@Z
	DD	2 DUP(00H)
	DD	2 DUP(00H)
	DD	00H
	DD	01H
xdata$x	ENDS
;	COMDAT xdata$x
xdata$x	SEGMENT
__unwindtable$?GetModifyType@CEqualDivisionLine@@MBE?AW4ModifyType@CToolEnumData@@ABVCRect@@ABVCPoint@@11@Z DD 0ffffffffH
	DD	FLAT:__unwindfunclet$?GetModifyType@CEqualDivisionLine@@MBE?AW4ModifyType@CToolEnumData@@ABVCRect@@ABVCPoint@@11@Z$0
	DD	0ffffffffH
	DD	FLAT:__unwindfunclet$?GetModifyType@CEqualDivisionLine@@MBE?AW4ModifyType@CToolEnumData@@ABVCRect@@ABVCPoint@@11@Z$1
	DD	0ffffffffH
	DD	FLAT:__unwindfunclet$?GetModifyType@CEqualDivisionLine@@MBE?AW4ModifyType@CToolEnumData@@ABVCRect@@ABVCPoint@@11@Z$2
__ehfuncinfo$?GetModifyType@CEqualDivisionLine@@MBE?AW4ModifyType@CToolEnumData@@ABVCRect@@ABVCPoint@@11@Z DD 019930522H
	DD	03H
	DD	FLAT:__unwindtable$?GetModifyType@CEqualDivisionLine@@MBE?AW4ModifyType@CToolEnumData@@ABVCRect@@ABVCPoint@@11@Z
	DD	2 DUP(00H)
	DD	2 DUP(00H)
	DD	00H
	DD	01H
xdata$x	ENDS
;	COMDAT xdata$x
xdata$x	SEGMENT
__unwindtable$??0CEqualDivisionLine@@QAE@ABVCTextHorzPosition@@ABVCCoordinate@@1ABVCElementCommonEnvironment@@@Z DD 0ffffffffH
	DD	FLAT:__unwindfunclet$??0CEqualDivisionLine@@QAE@ABVCTextHorzPosition@@ABVCCoordinate@@1ABVCElementCommonEnvironment@@@Z$0
__ehfuncinfo$??0CEqualDivisionLine@@QAE@ABVCTextHorzPosition@@ABVCCoordinate@@1ABVCElementCommonEnvironment@@@Z DD 019930522H
	DD	01H
	DD	FLAT:__unwindtable$??0CEqualDivisionLine@@QAE@ABVCTextHorzPosition@@ABVCCoordinate@@1ABVCElementCommonEnvironment@@@Z
	DD	2 DUP(00H)
	DD	2 DUP(00H)
	DD	00H
	DD	01H
xdata$x	ENDS
;	COMDAT xdata$x
xdata$x	SEGMENT
__unwindtable$?DrawSelected@CCrossLine@@UAEXPAVCDC@@ABVCSelectedElementDrawingData@@@Z DD 0ffffffffH
	DD	FLAT:__unwindfunclet$?DrawSelected@CCrossLine@@UAEXPAVCDC@@ABVCSelectedElementDrawingData@@@Z$0
__ehfuncinfo$?DrawSelected@CCrossLine@@UAEXPAVCDC@@ABVCSelectedElementDrawingData@@@Z DD 019930522H
	DD	01H
	DD	FLAT:__unwindtable$?DrawSelected@CCrossLine@@UAEXPAVCDC@@ABVCSelectedElementDrawingData@@@Z
	DD	2 DUP(00H)
	DD	2 DUP(00H)
	DD	00H
	DD	01H
xdata$x	ENDS
;	COMDAT xdata$x
xdata$x	SEGMENT
__unwindtable$?ElementModify@CCrossLine@@UAEXABVCElementModifyData@@@Z DD 0ffffffffH
	DD	FLAT:__unwindfunclet$?ElementModify@CCrossLine@@UAEXABVCElementModifyData@@@Z$0
	DD	00H
	DD	FLAT:__unwindfunclet$?ElementModify@CCrossLine@@UAEXABVCElementModifyData@@@Z$1
	DD	0ffffffffH
	DD	FLAT:__unwindfunclet$?ElementModify@CCrossLine@@UAEXABVCElementModifyData@@@Z$2
	DD	0ffffffffH
	DD	FLAT:__unwindfunclet$?ElementModify@CCrossLine@@UAEXABVCElementModifyData@@@Z$3
__ehfuncinfo$?ElementModify@CCrossLine@@UAEXABVCElementModifyData@@@Z DD 019930522H
	DD	04H
	DD	FLAT:__unwindtable$?ElementModify@CCrossLine@@UAEXABVCElementModifyData@@@Z
	DD	2 DUP(00H)
	DD	2 DUP(00H)
	DD	00H
	DD	01H
xdata$x	ENDS
;	COMDAT xdata$x
xdata$x	SEGMENT
__unwindtable$??0CCrossLine@@QAE@ABVCTextHorzVertPosition@@ABVCCoordinate@@ABVCElementCommonEnvironment@@@Z DD 0ffffffffH
	DD	FLAT:__unwindfunclet$??0CCrossLine@@QAE@ABVCTextHorzVertPosition@@ABVCCoordinate@@ABVCElementCommonEnvironment@@@Z$0
__ehfuncinfo$??0CCrossLine@@QAE@ABVCTextHorzVertPosition@@ABVCCoordinate@@ABVCElementCommonEnvironment@@@Z DD 019930522H
	DD	01H
	DD	FLAT:__unwindtable$??0CCrossLine@@QAE@ABVCTextHorzVertPosition@@ABVCCoordinate@@ABVCElementCommonEnvironment@@@Z
	DD	2 DUP(00H)
	DD	2 DUP(00H)
	DD	00H
	DD	01H
xdata$x	ENDS
;	COMDAT xdata$x
xdata$x	SEGMENT
__unwindtable$?ElementModify@CHorzLine@@UAEXABVCElementModifyData@@@Z DD 0ffffffffH
	DD	FLAT:__unwindfunclet$?ElementModify@CHorzLine@@UAEXABVCElementModifyData@@@Z$0
__ehfuncinfo$?ElementModify@CHorzLine@@UAEXABVCElementModifyData@@@Z DD 019930522H
	DD	01H
	DD	FLAT:__unwindtable$?ElementModify@CHorzLine@@UAEXABVCElementModifyData@@@Z
	DD	2 DUP(00H)
	DD	2 DUP(00H)
	DD	00H
	DD	01H
xdata$x	ENDS
;	COMDAT xdata$x
xdata$x	SEGMENT
__unwindtable$??0CHorzLine@@QAE@ABVCTextHorzPosition@@ABVCCoordinate@@ABVCElementCommonEnvironment@@@Z DD 0ffffffffH
	DD	FLAT:__unwindfunclet$??0CHorzLine@@QAE@ABVCTextHorzPosition@@ABVCCoordinate@@ABVCElementCommonEnvironment@@@Z$0
__ehfuncinfo$??0CHorzLine@@QAE@ABVCTextHorzPosition@@ABVCCoordinate@@ABVCElementCommonEnvironment@@@Z DD 019930522H
	DD	01H
	DD	FLAT:__unwindtable$??0CHorzLine@@QAE@ABVCTextHorzPosition@@ABVCCoordinate@@ABVCElementCommonEnvironment@@@Z
	DD	2 DUP(00H)
	DD	2 DUP(00H)
	DD	00H
	DD	01H
xdata$x	ENDS
;	COMDAT xdata$x
xdata$x	SEGMENT
__unwindtable$??0CVertLine@@QAE@ABVCTextVertPosition@@ABVCCoordinate@@ABVCElementCommonEnvironment@@@Z DD 0ffffffffH
	DD	FLAT:__unwindfunclet$??0CVertLine@@QAE@ABVCTextVertPosition@@ABVCCoordinate@@ABVCElementCommonEnvironment@@@Z$0
__ehfuncinfo$??0CVertLine@@QAE@ABVCTextVertPosition@@ABVCCoordinate@@ABVCElementCommonEnvironment@@@Z DD 019930522H
	DD	01H
	DD	FLAT:__unwindtable$??0CVertLine@@QAE@ABVCTextVertPosition@@ABVCCoordinate@@ABVCElementCommonEnvironment@@@Z
	DD	2 DUP(00H)
	DD	2 DUP(00H)
	DD	00H
	DD	01H
xdata$x	ENDS
;	COMDAT xdata$x
xdata$x	SEGMENT
__unwindtable$?GetModifyType@CLine@@MBE?AW4ModifyType@CToolEnumData@@ABVCRect@@ABVCPoint@@11@Z DD 0ffffffffH
	DD	FLAT:__unwindfunclet$?GetModifyType@CLine@@MBE?AW4ModifyType@CToolEnumData@@ABVCRect@@ABVCPoint@@11@Z$0
	DD	0ffffffffH
	DD	FLAT:__unwindfunclet$?GetModifyType@CLine@@MBE?AW4ModifyType@CToolEnumData@@ABVCRect@@ABVCPoint@@11@Z$1
__ehfuncinfo$?GetModifyType@CLine@@MBE?AW4ModifyType@CToolEnumData@@ABVCRect@@ABVCPoint@@11@Z DD 019930522H
	DD	02H
	DD	FLAT:__unwindtable$?GetModifyType@CLine@@MBE?AW4ModifyType@CToolEnumData@@ABVCRect@@ABVCPoint@@11@Z
	DD	2 DUP(00H)
	DD	2 DUP(00H)
	DD	00H
	DD	01H
xdata$x	ENDS
;	COMDAT xdata$x
xdata$x	SEGMENT
__unwindtable$?ElementInRegion@CLine@@MBE_NABVCRect@@ABVCPoint@@11@Z DD 0ffffffffH
	DD	FLAT:__unwindfunclet$?ElementInRegion@CLine@@MBE_NABVCRect@@ABVCPoint@@11@Z$0
	DD	0ffffffffH
	DD	FLAT:__unwindfunclet$?ElementInRegion@CLine@@MBE_NABVCRect@@ABVCPoint@@11@Z$1
__ehfuncinfo$?ElementInRegion@CLine@@MBE_NABVCRect@@ABVCPoint@@11@Z DD 019930522H
	DD	02H
	DD	FLAT:__unwindtable$?ElementInRegion@CLine@@MBE_NABVCRect@@ABVCPoint@@11@Z
	DD	2 DUP(00H)
	DD	2 DUP(00H)
	DD	00H
	DD	01H
xdata$x	ENDS
;	COMDAT xdata$x
xdata$x	SEGMENT
__unwindtable$??0CLine@@QAE@ABVCTextHorzPosition@@ABVCCoordinate@@1W4TOOLTYPE@CAnalysis@@ABVCElementCommonEnvironment@@@Z DD 0ffffffffH
	DD	FLAT:__unwindfunclet$??0CLine@@QAE@ABVCTextHorzPosition@@ABVCCoordinate@@1W4TOOLTYPE@CAnalysis@@ABVCElementCommonEnvironment@@@Z$0
__ehfuncinfo$??0CLine@@QAE@ABVCTextHorzPosition@@ABVCCoordinate@@1W4TOOLTYPE@CAnalysis@@ABVCElementCommonEnvironment@@@Z DD 019930522H
	DD	01H
	DD	FLAT:__unwindtable$??0CLine@@QAE@ABVCTextHorzPosition@@ABVCCoordinate@@1W4TOOLTYPE@CAnalysis@@ABVCElementCommonEnvironment@@@Z
	DD	2 DUP(00H)
	DD	2 DUP(00H)
	DD	00H
	DD	01H
xdata$x	ENDS
;	COMDAT xdata$x
xdata$x	SEGMENT
__ehfuncinfo$??0CElliotLineDrawer@@QAE@XZ DD 019930522H
	DD	00H
	DD	00H
	DD	2 DUP(00H)
	DD	2 DUP(00H)
	DD	00H
	DD	05H
xdata$x	ENDS
;	COMDAT xdata$x
xdata$x	SEGMENT
__ehfuncinfo$??0CPeriodSumLineDrawer@@QAE@XZ DD 019930522H
	DD	00H
	DD	00H
	DD	2 DUP(00H)
	DD	2 DUP(00H)
	DD	00H
	DD	05H
xdata$x	ENDS
;	COMDAT xdata$x
xdata$x	SEGMENT
__ehfuncinfo$??0CCandleBongDrawer@@QAE@XZ DD 019930522H
	DD	00H
	DD	00H
	DD	2 DUP(00H)
	DD	2 DUP(00H)
	DD	00H
	DD	05H
xdata$x	ENDS
;	COMDAT xdata$x
xdata$x	SEGMENT
__ehfuncinfo$??0CLinearRegressionDrawer@@QAE@XZ DD 019930522H
	DD	00H
	DD	00H
	DD	2 DUP(00H)
	DD	2 DUP(00H)
	DD	00H
	DD	05H
xdata$x	ENDS
;	COMDAT xdata$x
xdata$x	SEGMENT
__ehfuncinfo$??0CSpeedArcDrawer@@QAE@XZ DD 019930522H
	DD	00H
	DD	00H
	DD	2 DUP(00H)
	DD	2 DUP(00H)
	DD	00H
	DD	05H
xdata$x	ENDS
;	COMDAT xdata$x
xdata$x	SEGMENT
__ehfuncinfo$??0CSpeedFanDrawer@@QAE@XZ DD 019930522H
	DD	00H
	DD	00H
	DD	2 DUP(00H)
	DD	2 DUP(00H)
	DD	00H
	DD	05H
xdata$x	ENDS
;	COMDAT xdata$x
xdata$x	SEGMENT
__ehfuncinfo$??0CSpeedLineDrawer@@QAE@XZ DD 019930522H
	DD	00H
	DD	00H
	DD	2 DUP(00H)
	DD	2 DUP(00H)
	DD	00H
	DD	05H
xdata$x	ENDS
;	COMDAT xdata$x
xdata$x	SEGMENT
__ehfuncinfo$??0CCycleLinesDrawer@@QAE@XZ DD 019930522H
	DD	00H
	DD	00H
	DD	2 DUP(00H)
	DD	2 DUP(00H)
	DD	00H
	DD	05H
xdata$x	ENDS
;	COMDAT xdata$x
xdata$x	SEGMENT
__ehfuncinfo$??0CQuadrisectLineDrawer@@QAE@XZ DD 019930522H
	DD	00H
	DD	00H
	DD	2 DUP(00H)
	DD	2 DUP(00H)
	DD	00H
	DD	05H
xdata$x	ENDS
;	COMDAT xdata$x
xdata$x	SEGMENT
__ehfuncinfo$??0CTrisectionLineDrawer@@QAE@XZ DD 019930522H
	DD	00H
	DD	00H
	DD	2 DUP(00H)
	DD	2 DUP(00H)
	DD	00H
	DD	05H
xdata$x	ENDS
;	COMDAT xdata$x
xdata$x	SEGMENT
__ehfuncinfo$??1CMultiPointElement@@UAE@XZ DD 019930522H
	DD	00H
	DD	00H
	DD	2 DUP(00H)
	DD	2 DUP(00H)
	DD	00H
	DD	05H
xdata$x	ENDS
; Function compile flags: /Odsp
;	COMDAT ?GetGripRegion@CCrossLineDrawer@@$2PPPPPPPM@A@AE?AVCRect@@ABV2@ABVCPoint@@@Z
_TEXT	SEGMENT
?GetGripRegion@CCrossLineDrawer@@$2PPPPPPPM@A@AE?AVCRect@@ABV2@ABVCPoint@@@Z PROC ; CCrossLineDrawer::GetGripRegion, COMDAT
  00000	2b 49 fc	 sub	 ecx, DWORD PTR [ecx-4]
  00003	e9 00 00 00 00	 jmp	 ?GetGripRegion@CCrossLineDrawer@@MAE?AVCRect@@ABV2@ABVCPoint@@@Z ; CCrossLineDrawer::GetGripRegion
?GetGripRegion@CCrossLineDrawer@@$2PPPPPPPM@A@AE?AVCRect@@ABV2@ABVCPoint@@@Z ENDP ; CCrossLineDrawer::GetGripRegion
_TEXT	ENDS
; Function compile flags: /Odsp
;	COMDAT ?DrawTextA@CCrossLineDrawer@@$2PPPPPPPM@A@AEXPAVCDC@@ABVCOnePointDrawingData@@@Z
_TEXT	SEGMENT
?DrawTextA@CCrossLineDrawer@@$2PPPPPPPM@A@AEXPAVCDC@@ABVCOnePointDrawingData@@@Z PROC ; CCrossLineDrawer::DrawTextA, COMDAT
  00000	2b 49 fc	 sub	 ecx, DWORD PTR [ecx-4]
  00003	e9 00 00 00 00	 jmp	 ?DrawTextA@CCrossLineDrawer@@MAEXPAVCDC@@ABVCOnePointDrawingData@@@Z ; CCrossLineDrawer::DrawTextA
?DrawTextA@CCrossLineDrawer@@$2PPPPPPPM@A@AEXPAVCDC@@ABVCOnePointDrawingData@@@Z ENDP ; CCrossLineDrawer::DrawTextA
_TEXT	ENDS
; Function compile flags: /Odsp
;	COMDAT ?DrawShape@CCrossLineDrawer@@$2PPPPPPPM@A@AEXPAVCDC@@ABVCOnePointDrawingData@@ABVCDisplayData@@ABVCPoint@@_N@Z
_TEXT	SEGMENT
?DrawShape@CCrossLineDrawer@@$2PPPPPPPM@A@AEXPAVCDC@@ABVCOnePointDrawingData@@ABVCDisplayData@@ABVCPoint@@_N@Z PROC ; CCrossLineDrawer::DrawShape, COMDAT
  00000	2b 49 fc	 sub	 ecx, DWORD PTR [ecx-4]
  00003	e9 00 00 00 00	 jmp	 ?DrawShape@CCrossLineDrawer@@MAEXPAVCDC@@ABVCOnePointDrawingData@@ABVCDisplayData@@ABVCPoint@@_N@Z ; CCrossLineDrawer::DrawShape
?DrawShape@CCrossLineDrawer@@$2PPPPPPPM@A@AEXPAVCDC@@ABVCOnePointDrawingData@@ABVCDisplayData@@ABVCPoint@@_N@Z ENDP ; CCrossLineDrawer::DrawShape
_TEXT	ENDS
; Function compile flags: /Odsp
;	COMDAT ?IsDrawing@CCrossLineDrawer@@$2PPPPPPPM@A@BE_NABVCRect@@ABVCPoint@@@Z
_TEXT	SEGMENT
?IsDrawing@CCrossLineDrawer@@$2PPPPPPPM@A@BE_NABVCRect@@ABVCPoint@@@Z PROC ; CCrossLineDrawer::IsDrawing, COMDAT
  00000	2b 49 fc	 sub	 ecx, DWORD PTR [ecx-4]
  00003	e9 00 00 00 00	 jmp	 ?IsDrawing@CCrossLineDrawer@@MBE_NABVCRect@@ABVCPoint@@@Z ; CCrossLineDrawer::IsDrawing
?IsDrawing@CCrossLineDrawer@@$2PPPPPPPM@A@BE_NABVCRect@@ABVCPoint@@@Z ENDP ; CCrossLineDrawer::IsDrawing
_TEXT	ENDS
; Function compile flags: /Ogtp
;	COMDAT ??1COnePointDrawingData@@QAE@XZ
_TEXT	SEGMENT
??1COnePointDrawingData@@QAE@XZ PROC			; COnePointDrawingData::~COnePointDrawingData, COMDAT
; _this$ = ecx
  00000	56		 push	 esi
  00001	8b f1		 mov	 esi, ecx
  00003	8d 4e 74	 lea	 ecx, DWORD PTR [esi+116]
  00006	ff 15 00 00 00
	00		 call	 DWORD PTR __imp_??1?$CStringT@DV?$StrTraitMFC_DLL@DV?$ChTraitsCRT@D@ATL@@@@@ATL@@QAE@XZ
  0000c	8d 4e 20	 lea	 ecx, DWORD PTR [esi+32]
  0000f	ff 15 00 00 00
	00		 call	 DWORD PTR __imp_??1?$CStringT@DV?$StrTraitMFC_DLL@DV?$ChTraitsCRT@D@ATL@@@@@ATL@@QAE@XZ
  00015	8d 4e 1c	 lea	 ecx, DWORD PTR [esi+28]
  00018	ff 15 00 00 00
	00		 call	 DWORD PTR __imp_??1?$CStringT@DV?$StrTraitMFC_DLL@DV?$ChTraitsCRT@D@ATL@@@@@ATL@@QAE@XZ
  0001e	8d 4e 18	 lea	 ecx, DWORD PTR [esi+24]
  00021	5e		 pop	 esi
  00022	ff 25 00 00 00
	00		 jmp	 DWORD PTR __imp_??1?$CStringT@DV?$StrTraitMFC_DLL@DV?$ChTraitsCRT@D@ATL@@@@@ATL@@QAE@XZ
??1COnePointDrawingData@@QAE@XZ ENDP			; COnePointDrawingData::~COnePointDrawingData
_TEXT	ENDS
; Function compile flags: /Ogtp
; File D:\git\src\IBK\IBK_DRFN\ProjSrc\SrcChartEx\ChartAddIn\ChartAnalysisToolAddIn\AnalysisTool\Element.h
;	COMDAT ??_GCAdjustRatio@@UAEPAXI@Z
_TEXT	SEGMENT
___flags$ = 8						; size = 4
??_GCAdjustRatio@@UAEPAXI@Z PROC			; CAdjustRatio::`scalar deleting destructor', COMDAT
; _this$ = ecx
  00000	55		 push	 ebp
  00001	8b ec		 mov	 ebp, esp

; 31   : 	virtual ~CElement()	{}

  00003	56		 push	 esi
  00004	8b f1		 mov	 esi, ecx
  00006	8d 8e a4 00 00
	00		 lea	 ecx, DWORD PTR [esi+164]
  0000c	ff 15 00 00 00
	00		 call	 DWORD PTR __imp_??1?$CStringT@DV?$StrTraitMFC_DLL@DV?$ChTraitsCRT@D@ATL@@@@@ATL@@QAE@XZ
  00012	8d 8e 84 00 00
	00		 lea	 ecx, DWORD PTR [esi+132]
  00018	ff 15 00 00 00
	00		 call	 DWORD PTR __imp_??1?$CStringT@DV?$StrTraitMFC_DLL@DV?$ChTraitsCRT@D@ATL@@@@@ATL@@QAE@XZ
  0001e	8d 4e 64	 lea	 ecx, DWORD PTR [esi+100]
  00021	ff 15 00 00 00
	00		 call	 DWORD PTR __imp_??1?$CStringT@DV?$StrTraitMFC_DLL@DV?$ChTraitsCRT@D@ATL@@@@@ATL@@QAE@XZ
  00027	8d 4e 40	 lea	 ecx, DWORD PTR [esi+64]
  0002a	c7 06 00 00 00
	00		 mov	 DWORD PTR [esi], OFFSET ??_7CElement@@6B@
  00030	ff 15 00 00 00
	00		 call	 DWORD PTR __imp_??1?$CStringT@DV?$StrTraitMFC_DLL@DV?$ChTraitsCRT@D@ATL@@@@@ATL@@QAE@XZ
  00036	8d 4e 3c	 lea	 ecx, DWORD PTR [esi+60]
  00039	ff 15 00 00 00
	00		 call	 DWORD PTR __imp_??1?$CStringT@DV?$StrTraitMFC_DLL@DV?$ChTraitsCRT@D@ATL@@@@@ATL@@QAE@XZ
  0003f	8d 4e 38	 lea	 ecx, DWORD PTR [esi+56]
  00042	ff 15 00 00 00
	00		 call	 DWORD PTR __imp_??1?$CStringT@DV?$StrTraitMFC_DLL@DV?$ChTraitsCRT@D@ATL@@@@@ATL@@QAE@XZ
  00048	f6 45 08 01	 test	 BYTE PTR ___flags$[ebp], 1
  0004c	74 0e		 je	 SHORT $LN28@scalar
  0004e	68 c8 00 00 00	 push	 200			; 000000c8H
  00053	56		 push	 esi
  00054	e8 00 00 00 00	 call	 ??3@YAXPAXI@Z		; operator delete
  00059	83 c4 08	 add	 esp, 8
$LN28@scalar:
  0005c	8b c6		 mov	 eax, esi
  0005e	5e		 pop	 esi
  0005f	5d		 pop	 ebp
  00060	c2 04 00	 ret	 4
??_GCAdjustRatio@@UAEPAXI@Z ENDP			; CAdjustRatio::`scalar deleting destructor'
_TEXT	ENDS
; Function compile flags: /Ogtp
; File D:\git\src\IBK\IBK_DRFN\ProjSrc\SrcChartEx\ChartAddIn\ChartAnalysisToolAddIn\AnalysisTool\Line.cpp
; File C:\Program Files (x86)\Microsoft Visual Studio\2019\Community\VC\Tools\MSVC\14.29.30133\atlmfc\include\atltypes.h
; File D:\git\src\IBK\IBK_DRFN\ProjSrc\SrcChartEx\ChartAddIn\ChartAnalysisToolAddIn\AnalysisTool\Line.cpp
;	COMDAT ?PointInElementSelectableRegion@CAdjustRatio@@ABE_NABVCRect@@ABVCPoint@@111@Z
_TEXT	SEGMENT
_pt1_end$ = -8						; size = 8
_region$ = 8						; size = 4
_pt1$ = 12						; size = 4
_pt2$ = 16						; size = 4
_pt3$ = 20						; size = 4
_point$ = 24						; size = 4
?PointInElementSelectableRegion@CAdjustRatio@@ABE_NABVCRect@@ABVCPoint@@111@Z PROC ; CAdjustRatio::PointInElementSelectableRegion, COMDAT
; _this$ = ecx

; 1531 : {

  00000	55		 push	 ebp
  00001	8b ec		 mov	 ebp, esp
  00003	83 ec 08	 sub	 esp, 8
; File C:\Program Files (x86)\Microsoft Visual Studio\2019\Community\VC\Tools\MSVC\14.29.30133\atlmfc\include\atltypes.h

; 458  : 	return (x == point.x && y == point.y);

  00006	8b 45 0c	 mov	 eax, DWORD PTR _pt1$[ebp]

; 408  : 	x = initX;

  00009	c7 45 f8 00 00
	00 00		 mov	 DWORD PTR _pt1_end$[ebp], 0

; 409  : 	y = initY;

  00010	c7 45 fc 00 00
	00 00		 mov	 DWORD PTR _pt1_end$[ebp+4], 0

; 458  : 	return (x == point.x && y == point.y);

  00017	83 38 00	 cmp	 DWORD PTR [eax], 0
  0001a	75 0e		 jne	 SHORT $LN2@PointInEle
  0001c	83 78 04 00	 cmp	 DWORD PTR [eax+4], 0
  00020	75 08		 jne	 SHORT $LN2@PointInEle
; File D:\git\src\IBK\IBK_DRFN\ProjSrc\SrcChartEx\ChartAddIn\ChartAnalysisToolAddIn\AnalysisTool\Line.cpp

; 1534 : 		return false;

  00022	32 c0		 xor	 al, al

; 1537 : }

  00024	8b e5		 mov	 esp, ebp
  00026	5d		 pop	 ebp
  00027	c2 14 00	 ret	 20			; 00000014H
$LN2@PointInEle:

; 1535 : 
; 1536 : 	return CElement::PointInElementSelectableRegion(pt1, pt1_end, point);

  0002a	ff 75 18	 push	 DWORD PTR _point$[ebp]
  0002d	8d 55 f8	 lea	 edx, DWORD PTR _pt1_end$[ebp]
  00030	52		 push	 edx
  00031	50		 push	 eax
  00032	e8 00 00 00 00	 call	 ?PointInElementSelectableRegion@CElement@@IBE_NABVCPoint@@00@Z ; CElement::PointInElementSelectableRegion

; 1537 : }

  00037	8b e5		 mov	 esp, ebp
  00039	5d		 pop	 ebp
  0003a	c2 14 00	 ret	 20			; 00000014H
?PointInElementSelectableRegion@CAdjustRatio@@ABE_NABVCRect@@ABVCPoint@@111@Z ENDP ; CAdjustRatio::PointInElementSelectableRegion
_TEXT	ENDS
; Function compile flags: /Ogtp
; File D:\git\src\IBK\IBK_DRFN\ProjSrc\SrcChartEx\ChartAddIn\ChartAnalysisToolAddIn\AnalysisTool\Line.cpp
; File C:\Program Files (x86)\Microsoft Visual Studio\2019\Community\VC\Tools\MSVC\14.29.30133\atlmfc\include\atltypes.h
; File D:\git\src\IBK\IBK_DRFN\ProjSrc\SrcChartEx\ChartAddIn\ChartAnalysisToolAddIn\AnalysisTool\Line.cpp
; File C:\Program Files (x86)\Microsoft Visual Studio\2019\Community\VC\Tools\MSVC\14.29.30133\atlmfc\include\atltypes.h
; File D:\git\src\IBK\IBK_DRFN\ProjSrc\SrcChartEx\ChartAddIn\ChartAnalysisToolAddIn\AnalysisTool\Line.cpp
; File C:\Program Files (x86)\Microsoft Visual Studio\2019\Community\VC\Tools\MSVC\14.29.30133\atlmfc\include\atltypes.h
; File D:\git\src\IBK\IBK_DRFN\ProjSrc\SrcChartEx\ChartAddIn\ChartAnalysisToolAddIn\AnalysisTool\Line.cpp
; File C:\Program Files (x86)\Microsoft Visual Studio\2019\Community\VC\Tools\MSVC\14.29.30133\atlmfc\include\atltypes.h
; File D:\git\src\IBK\IBK_DRFN\ProjSrc\SrcChartEx\ChartAddIn\ChartAnalysisToolAddIn\AnalysisTool\Line.cpp
; File C:\Program Files (x86)\Microsoft Visual Studio\2019\Community\VC\Tools\MSVC\14.29.30133\atlmfc\include\atltypes.h
; File D:\git\src\IBK\IBK_DRFN\ProjSrc\SrcChartEx\ChartAddIn\ChartAnalysisToolAddIn\AnalysisTool\Line.cpp
;	COMDAT ?GetModifyType@CAdjustRatio@@MBE?AW4ModifyType@CToolEnumData@@ABVCRect@@ABVCPoint@@111@Z
_TEXT	SEGMENT
_pt1_end$1 = -12					; size = 8
_pt1_end$2 = -12					; size = 8
_pt1_end$3 = -12					; size = 8
_this$1$ = -4						; size = 4
_region$ = 8						; size = 4
_pt1$ = 12						; size = 4
_pt2$ = 16						; size = 4
_pt3$ = 20						; size = 4
_point$ = 24						; size = 4
?GetModifyType@CAdjustRatio@@MBE?AW4ModifyType@CToolEnumData@@ABVCRect@@ABVCPoint@@111@Z PROC ; CAdjustRatio::GetModifyType, COMDAT
; _this$ = ecx

; 1520 : {

  00000	55		 push	 ebp
  00001	8b ec		 mov	 ebp, esp
  00003	83 ec 0c	 sub	 esp, 12			; 0000000cH
  00006	53		 push	 ebx
  00007	56		 push	 esi
; File C:\Program Files (x86)\Microsoft Visual Studio\2019\Community\VC\Tools\MSVC\14.29.30133\atlmfc\include\atltypes.h

; 458  : 	return (x == point.x && y == point.y);

  00008	8b 75 0c	 mov	 esi, DWORD PTR _pt1$[ebp]
; File D:\git\src\IBK\IBK_DRFN\ProjSrc\SrcChartEx\ChartAddIn\ChartAnalysisToolAddIn\AnalysisTool\Line.cpp

; 1520 : {

  0000b	8b c1		 mov	 eax, ecx
; File C:\Program Files (x86)\Microsoft Visual Studio\2019\Community\VC\Tools\MSVC\14.29.30133\atlmfc\include\atltypes.h

; 458  : 	return (x == point.x && y == point.y);

  0000d	8b 4d 18	 mov	 ecx, DWORD PTR _point$[ebp]
; File D:\git\src\IBK\IBK_DRFN\ProjSrc\SrcChartEx\ChartAddIn\ChartAnalysisToolAddIn\AnalysisTool\Line.cpp

; 1520 : {

  00010	57		 push	 edi
  00011	89 45 fc	 mov	 DWORD PTR _this$1$[ebp], eax
; File C:\Program Files (x86)\Microsoft Visual Studio\2019\Community\VC\Tools\MSVC\14.29.30133\atlmfc\include\atltypes.h

; 458  : 	return (x == point.x && y == point.y);

  00014	83 3e 00	 cmp	 DWORD PTR [esi], 0

; 408  : 	x = initX;

  00017	c7 45 f4 00 00
	00 00		 mov	 DWORD PTR _pt1_end$3[ebp], 0

; 409  : 	y = initY;

  0001e	c7 45 f8 00 00
	00 00		 mov	 DWORD PTR _pt1_end$3[ebp+4], 0

; 458  : 	return (x == point.x && y == point.y);

  00025	75 06		 jne	 SHORT $LN6@GetModifyT
  00027	83 7e 04 00	 cmp	 DWORD PTR [esi+4], 0
  0002b	74 17		 je	 SHORT $LN32@GetModifyT
$LN6@GetModifyT:
; File D:\git\src\IBK\IBK_DRFN\ProjSrc\SrcChartEx\ChartAddIn\ChartAnalysisToolAddIn\AnalysisTool\Line.cpp

; 1536 : 	return CElement::PointInElementSelectableRegion(pt1, pt1_end, point);

  0002d	51		 push	 ecx
  0002e	8d 4d f4	 lea	 ecx, DWORD PTR _pt1_end$3[ebp]
  00031	51		 push	 ecx
  00032	56		 push	 esi
  00033	8b c8		 mov	 ecx, eax
  00035	e8 00 00 00 00	 call	 ?PointInElementSelectableRegion@CElement@@IBE_NABVCPoint@@00@Z ; CElement::PointInElementSelectableRegion

; 1521 : 	if(PointInElementSelectableRegion(region, pt1, pt2, pt3, point)
; 1522 : 		|| PointInElementSelectableRegion(region, pt2, pt1, pt3, point)
; 1523 : 		|| PointInElementSelectableRegion(region, pt3, pt1, pt2, point))

  0003a	84 c0		 test	 al, al
  0003c	75 7d		 jne	 SHORT $LN3@GetModifyT
  0003e	8b 45 fc	 mov	 eax, DWORD PTR _this$1$[ebp]
  00041	8b 4d 18	 mov	 ecx, DWORD PTR _point$[ebp]
$LN32@GetModifyT:
; File C:\Program Files (x86)\Microsoft Visual Studio\2019\Community\VC\Tools\MSVC\14.29.30133\atlmfc\include\atltypes.h

; 458  : 	return (x == point.x && y == point.y);

  00044	8b 7d 10	 mov	 edi, DWORD PTR _pt2$[ebp]

; 408  : 	x = initX;

  00047	c7 45 f4 00 00
	00 00		 mov	 DWORD PTR _pt1_end$2[ebp], 0

; 409  : 	y = initY;

  0004e	c7 45 f8 00 00
	00 00		 mov	 DWORD PTR _pt1_end$2[ebp+4], 0

; 458  : 	return (x == point.x && y == point.y);

  00055	83 3f 00	 cmp	 DWORD PTR [edi], 0
  00058	75 06		 jne	 SHORT $LN15@GetModifyT
  0005a	83 7f 04 00	 cmp	 DWORD PTR [edi+4], 0
  0005e	74 11		 je	 SHORT $LN33@GetModifyT
$LN15@GetModifyT:
; File D:\git\src\IBK\IBK_DRFN\ProjSrc\SrcChartEx\ChartAddIn\ChartAnalysisToolAddIn\AnalysisTool\Line.cpp

; 1536 : 	return CElement::PointInElementSelectableRegion(pt1, pt1_end, point);

  00060	51		 push	 ecx
  00061	8d 4d f4	 lea	 ecx, DWORD PTR _pt1_end$2[ebp]
  00064	51		 push	 ecx
  00065	57		 push	 edi
  00066	8b c8		 mov	 ecx, eax
  00068	e8 00 00 00 00	 call	 ?PointInElementSelectableRegion@CElement@@IBE_NABVCPoint@@00@Z ; CElement::PointInElementSelectableRegion

; 1521 : 	if(PointInElementSelectableRegion(region, pt1, pt2, pt3, point)
; 1522 : 		|| PointInElementSelectableRegion(region, pt2, pt1, pt3, point)
; 1523 : 		|| PointInElementSelectableRegion(region, pt3, pt1, pt2, point))

  0006d	84 c0		 test	 al, al
  0006f	75 4a		 jne	 SHORT $LN3@GetModifyT
$LN33@GetModifyT:
; File C:\Program Files (x86)\Microsoft Visual Studio\2019\Community\VC\Tools\MSVC\14.29.30133\atlmfc\include\atltypes.h

; 458  : 	return (x == point.x && y == point.y);

  00071	8b 5d 14	 mov	 ebx, DWORD PTR _pt3$[ebp]

; 408  : 	x = initX;

  00074	c7 45 f4 00 00
	00 00		 mov	 DWORD PTR _pt1_end$1[ebp], 0

; 409  : 	y = initY;

  0007b	c7 45 f8 00 00
	00 00		 mov	 DWORD PTR _pt1_end$1[ebp+4], 0

; 458  : 	return (x == point.x && y == point.y);

  00082	83 3b 00	 cmp	 DWORD PTR [ebx], 0
  00085	75 06		 jne	 SHORT $LN24@GetModifyT
  00087	83 7b 04 00	 cmp	 DWORD PTR [ebx+4], 0
  0008b	74 14		 je	 SHORT $LN34@GetModifyT
$LN24@GetModifyT:
; File D:\git\src\IBK\IBK_DRFN\ProjSrc\SrcChartEx\ChartAddIn\ChartAnalysisToolAddIn\AnalysisTool\Line.cpp

; 1536 : 	return CElement::PointInElementSelectableRegion(pt1, pt1_end, point);

  0008d	ff 75 18	 push	 DWORD PTR _point$[ebp]
  00090	8b 4d fc	 mov	 ecx, DWORD PTR _this$1$[ebp]
  00093	8d 45 f4	 lea	 eax, DWORD PTR _pt1_end$1[ebp]
  00096	50		 push	 eax
  00097	53		 push	 ebx
  00098	e8 00 00 00 00	 call	 ?PointInElementSelectableRegion@CElement@@IBE_NABVCPoint@@00@Z ; CElement::PointInElementSelectableRegion

; 1521 : 	if(PointInElementSelectableRegion(region, pt1, pt2, pt3, point)
; 1522 : 		|| PointInElementSelectableRegion(region, pt2, pt1, pt3, point)
; 1523 : 		|| PointInElementSelectableRegion(region, pt3, pt1, pt2, point))

  0009d	84 c0		 test	 al, al
  0009f	75 1a		 jne	 SHORT $LN3@GetModifyT
$LN34@GetModifyT:

; 1524 : 		return CToolEnumData::MODIFY_CENTER;
; 1525 : 
; 1526 : 	return CThreePointElement::GetModifyType(region, pt1, pt2, pt3, point);

  000a1	ff 75 18	 push	 DWORD PTR _point$[ebp]
  000a4	8b 4d fc	 mov	 ecx, DWORD PTR _this$1$[ebp]
  000a7	53		 push	 ebx
  000a8	57		 push	 edi
  000a9	56		 push	 esi
  000aa	ff 75 08	 push	 DWORD PTR _region$[ebp]
  000ad	e8 00 00 00 00	 call	 ?GetModifyType@CThreePointElement@@MBE?AW4ModifyType@CToolEnumData@@ABVCRect@@ABVCPoint@@111@Z ; CThreePointElement::GetModifyType
  000b2	5f		 pop	 edi

; 1527 : }

  000b3	5e		 pop	 esi
  000b4	5b		 pop	 ebx
  000b5	8b e5		 mov	 esp, ebp
  000b7	5d		 pop	 ebp
  000b8	c2 14 00	 ret	 20			; 00000014H
$LN3@GetModifyT:
  000bb	5f		 pop	 edi
  000bc	5e		 pop	 esi
  000bd	b8 01 00 00 00	 mov	 eax, 1
  000c2	5b		 pop	 ebx
  000c3	8b e5		 mov	 esp, ebp
  000c5	5d		 pop	 ebp
  000c6	c2 14 00	 ret	 20			; 00000014H
?GetModifyType@CAdjustRatio@@MBE?AW4ModifyType@CToolEnumData@@ABVCRect@@ABVCPoint@@111@Z ENDP ; CAdjustRatio::GetModifyType
_TEXT	ENDS
; Function compile flags: /Ogtp
; File D:\git\src\IBK\IBK_DRFN\ProjSrc\SrcChartEx\ChartAddIn\ChartAnalysisToolAddIn\AnalysisTool\Line.cpp
;	COMDAT ?ElementInRegion@CAdjustRatio@@MBE_NABVCRect@@ABVCPoint@@111@Z
_TEXT	SEGMENT
_region$ = 8						; size = 4
_pt1$ = 12						; size = 4
_pt2$ = 16						; size = 4
_pt3$ = 20						; size = 4
_point$ = 24						; size = 4
?ElementInRegion@CAdjustRatio@@MBE_NABVCRect@@ABVCPoint@@111@Z PROC ; CAdjustRatio::ElementInRegion, COMDAT
; _this$ = ecx

; 1512 : {

  00000	55		 push	 ebp
  00001	8b ec		 mov	 ebp, esp

; 1513 : 	CPoint centerPt = pt1, sidePt1 = pt2, sidePt2 = pt3;

  00003	8b 45 0c	 mov	 eax, DWORD PTR _pt1$[ebp]
  00006	8b 08		 mov	 ecx, DWORD PTR [eax]

; 1514 : 	//m_adjustRatioDrawer.GetPoints(pt1, pt2, pt3, centerPt, sidePt1, sidePt2);
; 1515 : 
; 1516 : 	return (centerPt.x < region.right && point.x >= (centerPt.x - 10));

  00008	8b 45 08	 mov	 eax, DWORD PTR _region$[ebp]
  0000b	3b 48 08	 cmp	 ecx, DWORD PTR [eax+8]
  0000e	7d 10		 jge	 SHORT $LN3@ElementInR
  00010	8b 45 18	 mov	 eax, DWORD PTR _point$[ebp]
  00013	83 c1 f6	 add	 ecx, -10		; fffffff6H
  00016	39 08		 cmp	 DWORD PTR [eax], ecx
  00018	7c 06		 jl	 SHORT $LN3@ElementInR
  0001a	b0 01		 mov	 al, 1

; 1517 : }

  0001c	5d		 pop	 ebp
  0001d	c2 14 00	 ret	 20			; 00000014H
$LN3@ElementInR:

; 1514 : 	//m_adjustRatioDrawer.GetPoints(pt1, pt2, pt3, centerPt, sidePt1, sidePt2);
; 1515 : 
; 1516 : 	return (centerPt.x < region.right && point.x >= (centerPt.x - 10));

  00020	32 c0		 xor	 al, al

; 1517 : }

  00022	5d		 pop	 ebp
  00023	c2 14 00	 ret	 20			; 00000014H
?ElementInRegion@CAdjustRatio@@MBE_NABVCRect@@ABVCPoint@@111@Z ENDP ; CAdjustRatio::ElementInRegion
_TEXT	ENDS
; Function compile flags: /Ogtp
; File D:\git\src\IBK\IBK_DRFN\ProjSrc\SrcChartEx\ChartAddIn\ChartAnalysisToolAddIn\AnalysisTool\Line.cpp
;	COMDAT ?GetThreePointDrawer@CAdjustRatio@@MAEAAVCThreePointDrawer@@XZ
_TEXT	SEGMENT
?GetThreePointDrawer@CAdjustRatio@@MAEAAVCThreePointDrawer@@XZ PROC ; CAdjustRatio::GetThreePointDrawer, COMDAT
; _this$ = ecx

; 1508 : 	return m_adjustRatioDrawer;

  00000	8d 81 b0 00 00
	00		 lea	 eax, DWORD PTR [ecx+176]

; 1509 : }

  00006	c3		 ret	 0
?GetThreePointDrawer@CAdjustRatio@@MAEAAVCThreePointDrawer@@XZ ENDP ; CAdjustRatio::GetThreePointDrawer
_TEXT	ENDS
; Function compile flags: /Ogtp
; File D:\git\src\IBK\IBK_DRFN\ProjSrc\SrcChartEx\ChartAddIn\ChartAnalysisToolAddIn\AnalysisTool\Line.cpp
;	COMDAT ?GetElementType@CAdjustRatio@@UBE?AW4ElementType@CToolEnumData@@XZ
_TEXT	SEGMENT
?GetElementType@CAdjustRatio@@UBE?AW4ElementType@CToolEnumData@@XZ PROC ; CAdjustRatio::GetElementType, COMDAT
; _this$ = ecx

; 1502 : 	return CToolEnumData::Adjust_Ratio;

  00000	b8 20 00 00 00	 mov	 eax, 32			; 00000020H

; 1503 : }

  00005	c3		 ret	 0
?GetElementType@CAdjustRatio@@UBE?AW4ElementType@CToolEnumData@@XZ ENDP ; CAdjustRatio::GetElementType
_TEXT	ENDS
; Function compile flags: /Ogtp
; File D:\git\src\IBK\IBK_DRFN\ProjSrc\SrcChartEx\ChartAddIn\ChartAnalysisToolAddIn\AnalysisTool\Line.cpp
;	COMDAT ??0CAdjustRatio@@QAE@ABVCCoordinate@@00ABVCElementCommonEnvironment@@@Z
_TEXT	SEGMENT
_this$ = -16						; size = 4
__$EHRec$ = -12						; size = 12
_point1$ = 8						; size = 4
_point2$ = 12						; size = 4
_point3$ = 16						; size = 4
_environment$ = 20					; size = 4
??0CAdjustRatio@@QAE@ABVCCoordinate@@00ABVCElementCommonEnvironment@@@Z PROC ; CAdjustRatio::CAdjustRatio, COMDAT
; _this$ = ecx

; 1497 : {

  00000	55		 push	 ebp
  00001	8b ec		 mov	 ebp, esp
  00003	6a ff		 push	 -1
  00005	68 00 00 00 00	 push	 __ehhandler$??0CAdjustRatio@@QAE@ABVCCoordinate@@00ABVCElementCommonEnvironment@@@Z
  0000a	64 a1 00 00 00
	00		 mov	 eax, DWORD PTR fs:0
  00010	50		 push	 eax
  00011	51		 push	 ecx
  00012	56		 push	 esi
  00013	a1 00 00 00 00	 mov	 eax, DWORD PTR ___security_cookie
  00018	33 c5		 xor	 eax, ebp
  0001a	50		 push	 eax
  0001b	8d 45 f4	 lea	 eax, DWORD PTR __$EHRec$[ebp]
  0001e	64 a3 00 00 00
	00		 mov	 DWORD PTR fs:0, eax
  00024	8b f1		 mov	 esi, ecx
  00026	89 75 f0	 mov	 DWORD PTR _this$[ebp], esi

; 1496 : 	CThreePointElement(point1, point2, point3, environment)

  00029	ff 75 14	 push	 DWORD PTR _environment$[ebp]
  0002c	ff 75 10	 push	 DWORD PTR _point3$[ebp]
  0002f	ff 75 0c	 push	 DWORD PTR _point2$[ebp]
  00032	ff 75 08	 push	 DWORD PTR _point1$[ebp]
  00035	e8 00 00 00 00	 call	 ??0CThreePointElement@@QAE@ABVCCoordinate@@00ABVCElementCommonEnvironment@@@Z ; CThreePointElement::CThreePointElement
  0003a	8d 8e b4 00 00
	00		 lea	 ecx, DWORD PTR [esi+180]
  00040	c7 45 fc 00 00
	00 00		 mov	 DWORD PTR __$EHRec$[ebp+8], 0

; 1497 : {

  00047	c7 06 00 00 00
	00		 mov	 DWORD PTR [esi], OFFSET ??_7CAdjustRatio@@6B@
  0004d	e8 00 00 00 00	 call	 ??0CDrawer@@QAE@XZ	; CDrawer::CDrawer
  00052	c7 86 b0 00 00
	00 00 00 00 00	 mov	 DWORD PTR [esi+176], OFFSET ??_7CAdjustRatioDrawer@@6B@

; 1498 : }

  0005c	8b c6		 mov	 eax, esi
  0005e	8b 4d f4	 mov	 ecx, DWORD PTR __$EHRec$[ebp]
  00061	64 89 0d 00 00
	00 00		 mov	 DWORD PTR fs:0, ecx
  00068	59		 pop	 ecx
  00069	5e		 pop	 esi
  0006a	8b e5		 mov	 esp, ebp
  0006c	5d		 pop	 ebp
  0006d	c2 10 00	 ret	 16			; 00000010H
_TEXT	ENDS
;	COMDAT text$x
text$x	SEGMENT
__unwindfunclet$??0CAdjustRatio@@QAE@ABVCCoordinate@@00ABVCElementCommonEnvironment@@@Z$0:
  00000	8b 4d f0	 mov	 ecx, DWORD PTR _this$[ebp]
  00003	e9 00 00 00 00	 jmp	 ??1CThreePointElement@@UAE@XZ
  00008	cc		 int	 3
  00009	cc		 int	 3
  0000a	cc		 int	 3
  0000b	cc		 int	 3
  0000c	cc		 int	 3
__ehhandler$??0CAdjustRatio@@QAE@ABVCCoordinate@@00ABVCElementCommonEnvironment@@@Z:
  0000d	90		 npad	 1
  0000e	90		 npad	 1
  0000f	8b 54 24 08	 mov	 edx, DWORD PTR [esp+8]
  00013	8d 42 0c	 lea	 eax, DWORD PTR [edx+12]
  00016	8b 4a f4	 mov	 ecx, DWORD PTR [edx-12]
  00019	33 c8		 xor	 ecx, eax
  0001b	e8 00 00 00 00	 call	 @__security_check_cookie@4
  00020	b8 00 00 00 00	 mov	 eax, OFFSET __ehfuncinfo$??0CAdjustRatio@@QAE@ABVCCoordinate@@00ABVCElementCommonEnvironment@@@Z
  00025	e9 00 00 00 00	 jmp	 ___CxxFrameHandler3
text$x	ENDS
??0CAdjustRatio@@QAE@ABVCCoordinate@@00ABVCElementCommonEnvironment@@@Z ENDP ; CAdjustRatio::CAdjustRatio
; Function compile flags: /Ogtp
; File D:\git\src\IBK\IBK_DRFN\ProjSrc\SrcChartEx\ChartAddIn\ChartAnalysisToolAddIn\AnalysisTool\Element.h
;	COMDAT ??_GCElliotLine@@UAEPAXI@Z
_TEXT	SEGMENT
___flags$ = 8						; size = 4
??_GCElliotLine@@UAEPAXI@Z PROC				; CElliotLine::`scalar deleting destructor', COMDAT
; _this$ = ecx
  00000	55		 push	 ebp
  00001	8b ec		 mov	 ebp, esp

; 31   : 	virtual ~CElement()	{}

  00003	56		 push	 esi
  00004	8b f1		 mov	 esi, ecx
  00006	8d 8e 84 00 00
	00		 lea	 ecx, DWORD PTR [esi+132]
  0000c	ff 15 00 00 00
	00		 call	 DWORD PTR __imp_??1?$CStringT@DV?$StrTraitMFC_DLL@DV?$ChTraitsCRT@D@ATL@@@@@ATL@@QAE@XZ
  00012	8d 4e 64	 lea	 ecx, DWORD PTR [esi+100]
  00015	ff 15 00 00 00
	00		 call	 DWORD PTR __imp_??1?$CStringT@DV?$StrTraitMFC_DLL@DV?$ChTraitsCRT@D@ATL@@@@@ATL@@QAE@XZ
  0001b	8d 4e 40	 lea	 ecx, DWORD PTR [esi+64]
  0001e	c7 06 00 00 00
	00		 mov	 DWORD PTR [esi], OFFSET ??_7CElement@@6B@
  00024	ff 15 00 00 00
	00		 call	 DWORD PTR __imp_??1?$CStringT@DV?$StrTraitMFC_DLL@DV?$ChTraitsCRT@D@ATL@@@@@ATL@@QAE@XZ
  0002a	8d 4e 3c	 lea	 ecx, DWORD PTR [esi+60]
  0002d	ff 15 00 00 00
	00		 call	 DWORD PTR __imp_??1?$CStringT@DV?$StrTraitMFC_DLL@DV?$ChTraitsCRT@D@ATL@@@@@ATL@@QAE@XZ
  00033	8d 4e 38	 lea	 ecx, DWORD PTR [esi+56]
  00036	ff 15 00 00 00
	00		 call	 DWORD PTR __imp_??1?$CStringT@DV?$StrTraitMFC_DLL@DV?$ChTraitsCRT@D@ATL@@@@@ATL@@QAE@XZ
  0003c	f6 45 08 01	 test	 BYTE PTR ___flags$[ebp], 1
  00040	74 0e		 je	 SHORT $LN25@scalar
  00042	68 b0 00 00 00	 push	 176			; 000000b0H
  00047	56		 push	 esi
  00048	e8 00 00 00 00	 call	 ??3@YAXPAXI@Z		; operator delete
  0004d	83 c4 08	 add	 esp, 8
$LN25@scalar:
  00050	8b c6		 mov	 eax, esi
  00052	5e		 pop	 esi
  00053	5d		 pop	 ebp
  00054	c2 04 00	 ret	 4
??_GCElliotLine@@UAEPAXI@Z ENDP				; CElliotLine::`scalar deleting destructor'
_TEXT	ENDS
; Function compile flags: /Ogtp
; File D:\git\src\IBK\IBK_DRFN\ProjSrc\SrcChartEx\ChartAddIn\ChartAnalysisToolAddIn\AnalysisTool\Line.cpp
; File C:\Program Files (x86)\Microsoft Visual Studio\2019\Community\VC\Tools\MSVC\14.29.30133\atlmfc\include\atltypes.h
; File D:\git\src\IBK\IBK_DRFN\ProjSrc\SrcChartEx\ChartAddIn\ChartAnalysisToolAddIn\AnalysisTool\Line.cpp
; File C:\Program Files (x86)\Microsoft Visual Studio\2019\Community\VC\Tools\MSVC\14.29.30133\atlmfc\include\atltypes.h
; File D:\git\src\IBK\IBK_DRFN\ProjSrc\SrcChartEx\ChartAddIn\ChartAnalysisToolAddIn\AnalysisTool\Line.cpp
;	COMDAT ?GetModifyType@CElliotLine@@MBE?AW4ModifyType@CToolEnumData@@ABVCRect@@ABVCPoint@@11@Z
_TEXT	SEGMENT
_elliotToPoint$ = -16					; size = 8
_elliotFromPoint$ = -8					; size = 8
_region$ = 8						; size = 4
_drawingStartPt$ = 12					; size = 4
_drawingEndPt$ = 16					; size = 4
_point$ = 20						; size = 4
?GetModifyType@CElliotLine@@MBE?AW4ModifyType@CToolEnumData@@ABVCRect@@ABVCPoint@@11@Z PROC ; CElliotLine::GetModifyType, COMDAT
; _this$ = ecx

; 1460 : {

  00000	55		 push	 ebp
  00001	8b ec		 mov	 ebp, esp
  00003	83 ec 10	 sub	 esp, 16			; 00000010H
  00006	53		 push	 ebx

; 1461 : 	// 1.     .
; 1462 : 	CToolEnumData::ModifyType sidePointModifyType = GetModifyType_SidePoints( drawingStartPt, drawingEndPt, point);

  00007	8b 5d 0c	 mov	 ebx, DWORD PTR _drawingStartPt$[ebp]
  0000a	56		 push	 esi
  0000b	8b 75 10	 mov	 esi, DWORD PTR _drawingEndPt$[ebp]
  0000e	57		 push	 edi
  0000f	ff 75 14	 push	 DWORD PTR _point$[ebp]
  00012	8b f9		 mov	 edi, ecx
  00014	56		 push	 esi
  00015	53		 push	 ebx
  00016	e8 00 00 00 00	 call	 ?GetModifyType_SidePoints@CTwoPointElement@@IBE?AW4ModifyType@CToolEnumData@@ABVCPoint@@00@Z ; CTwoPointElement::GetModifyType_SidePoints

; 1463 : 	if( sidePointModifyType != CToolEnumData::MODIFY_NONE) 

  0001b	85 c0		 test	 eax, eax
  0001d	0f 85 9e 00 00
	00		 jne	 $LN1@GetModifyT

; 1464 : 		return sidePointModifyType;
; 1465 : 
; 1466 : 	if(CElement::PointInElementSelectableRegion(drawingStartPt,drawingEndPt, point))

  00023	ff 75 14	 push	 DWORD PTR _point$[ebp]
  00026	8b cf		 mov	 ecx, edi
  00028	56		 push	 esi
  00029	53		 push	 ebx
  0002a	e8 00 00 00 00	 call	 ?PointInElementSelectableRegion@CElement@@IBE_NABVCPoint@@00@Z ; CElement::PointInElementSelectableRegion
  0002f	84 c0		 test	 al, al
  00031	0f 85 85 00 00
	00		 jne	 $LN15@GetModifyT

; 1469 : 	CPoint elliotFromPoint(drawingEndPt);

  00037	8b d6		 mov	 edx, esi
; File C:\Program Files (x86)\Microsoft Visual Studio\2019\Community\VC\Tools\MSVC\14.29.30133\atlmfc\include\atltypes.h

; 408  : 	x = initX;

  00039	c7 45 f0 00 00
	00 00		 mov	 DWORD PTR _elliotToPoint$[ebp], 0
; File D:\git\src\IBK\IBK_DRFN\ProjSrc\SrcChartEx\ChartAddIn\ChartAnalysisToolAddIn\AnalysisTool\Line.cpp

; 1472 : 	if(drawingStartPt.x > drawingEndPt.x)

  00040	8b 33		 mov	 esi, DWORD PTR [ebx]
; File C:\Program Files (x86)\Microsoft Visual Studio\2019\Community\VC\Tools\MSVC\14.29.30133\atlmfc\include\atltypes.h

; 409  : 	y = initY;

  00042	c7 45 f4 00 00
	00 00		 mov	 DWORD PTR _elliotToPoint$[ebp+4], 0
; File D:\git\src\IBK\IBK_DRFN\ProjSrc\SrcChartEx\ChartAddIn\ChartAnalysisToolAddIn\AnalysisTool\Line.cpp

; 1469 : 	CPoint elliotFromPoint(drawingEndPt);

  00049	8b 02		 mov	 eax, DWORD PTR [edx]
  0004b	8b 4a 04	 mov	 ecx, DWORD PTR [edx+4]
  0004e	89 45 f8	 mov	 DWORD PTR _elliotFromPoint$[ebp], eax
  00051	89 4d fc	 mov	 DWORD PTR _elliotFromPoint$[ebp+4], ecx

; 1472 : 	if(drawingStartPt.x > drawingEndPt.x)

  00054	3b f0		 cmp	 esi, eax
  00056	7e 0b		 jle	 SHORT $LN7@GetModifyT

; 1473 : 	{
; 1474 : 		elliotFromPoint.x = drawingStartPt.x;
; 1475 : 		elliotFromPoint.y = drawingStartPt.y;

  00058	8b 4b 04	 mov	 ecx, DWORD PTR [ebx+4]
  0005b	8b c6		 mov	 eax, esi
  0005d	89 45 f8	 mov	 DWORD PTR _elliotFromPoint$[ebp], eax
  00060	89 4d fc	 mov	 DWORD PTR _elliotFromPoint$[ebp+4], ecx
$LN7@GetModifyT:

; 1476 : 	}
; 1477 : 
; 1478 : 	for(int nIndex=1;nIndex<8;nIndex++)

  00063	be 01 00 00 00	 mov	 esi, 1
$LL4@GetModifyT:

; 1479 : 	{
; 1480 : 		if(!m_elliotLineDrawer.GetPoint(region, drawingStartPt, drawingEndPt,nIndex,elliotFromPoint,elliotToPoint))

  00068	8d 5d f0	 lea	 ebx, DWORD PTR _elliotToPoint$[ebp]
  0006b	53		 push	 ebx
  0006c	8b 5d 0c	 mov	 ebx, DWORD PTR _drawingStartPt$[ebp]
  0006f	51		 push	 ecx
  00070	50		 push	 eax
  00071	56		 push	 esi
  00072	52		 push	 edx
  00073	53		 push	 ebx
  00074	ff 75 08	 push	 DWORD PTR _region$[ebp]
  00077	8d 8f 90 00 00
	00		 lea	 ecx, DWORD PTR [edi+144]
  0007d	e8 00 00 00 00	 call	 ?GetPoint@CElliotLineDrawer@@QBE_NABVCRect@@ABVCPoint@@1HV3@AAV3@@Z ; CElliotLineDrawer::GetPoint
  00082	84 c0		 test	 al, al
  00084	74 2b		 je	 SHORT $LN3@GetModifyT

; 1481 : 			break;
; 1482 : 
; 1483 : 		if(CElement::PointInElementSelectableRegion(elliotFromPoint,elliotToPoint, point))

  00086	ff 75 14	 push	 DWORD PTR _point$[ebp]
  00089	8d 45 f0	 lea	 eax, DWORD PTR _elliotToPoint$[ebp]
  0008c	8b cf		 mov	 ecx, edi
  0008e	50		 push	 eax
  0008f	8d 45 f8	 lea	 eax, DWORD PTR _elliotFromPoint$[ebp]
  00092	50		 push	 eax
  00093	e8 00 00 00 00	 call	 ?PointInElementSelectableRegion@CElement@@IBE_NABVCPoint@@00@Z ; CElement::PointInElementSelectableRegion
  00098	84 c0		 test	 al, al
  0009a	75 20		 jne	 SHORT $LN15@GetModifyT

; 1485 : 
; 1486 : 		elliotFromPoint = elliotToPoint;

  0009c	8b 45 f0	 mov	 eax, DWORD PTR _elliotToPoint$[ebp]
  0009f	46		 inc	 esi
  000a0	8b 4d f4	 mov	 ecx, DWORD PTR _elliotToPoint$[ebp+4]
  000a3	8b 55 10	 mov	 edx, DWORD PTR _drawingEndPt$[ebp]
  000a6	89 45 f8	 mov	 DWORD PTR _elliotFromPoint$[ebp], eax
  000a9	89 4d fc	 mov	 DWORD PTR _elliotFromPoint$[ebp+4], ecx
  000ac	83 fe 08	 cmp	 esi, 8
  000af	7c b7		 jl	 SHORT $LL4@GetModifyT
$LN3@GetModifyT:
  000b1	5f		 pop	 edi

; 1487 : 	}
; 1488 : 	
; 1489 : 	return CToolEnumData::MODIFY_NONE;
; 1490 : }

  000b2	5e		 pop	 esi
  000b3	33 c0		 xor	 eax, eax
  000b5	5b		 pop	 ebx
  000b6	8b e5		 mov	 esp, ebp
  000b8	5d		 pop	 ebp
  000b9	c2 10 00	 ret	 16			; 00000010H
$LN15@GetModifyT:

; 1484 : 			return CToolEnumData::MODIFY_CENTER;

  000bc	b8 01 00 00 00	 mov	 eax, 1
$LN1@GetModifyT:
  000c1	5f		 pop	 edi

; 1487 : 	}
; 1488 : 	
; 1489 : 	return CToolEnumData::MODIFY_NONE;
; 1490 : }

  000c2	5e		 pop	 esi
  000c3	5b		 pop	 ebx
  000c4	8b e5		 mov	 esp, ebp
  000c6	5d		 pop	 ebp
  000c7	c2 10 00	 ret	 16			; 00000010H
?GetModifyType@CElliotLine@@MBE?AW4ModifyType@CToolEnumData@@ABVCRect@@ABVCPoint@@11@Z ENDP ; CElliotLine::GetModifyType
_TEXT	ENDS
; Function compile flags: /Ogtp
; File D:\git\src\IBK\IBK_DRFN\ProjSrc\SrcChartEx\ChartAddIn\ChartAnalysisToolAddIn\AnalysisTool\Line.cpp
;	COMDAT ?ElementInRegion@CElliotLine@@MBE_NABVCRect@@ABVCPoint@@11@Z
_TEXT	SEGMENT
_region$ = 8						; size = 4
_startPoint$ = 12					; size = 4
_endPoint$ = 16						; size = 4
_point$ = 20						; size = 4
?ElementInRegion@CElliotLine@@MBE_NABVCRect@@ABVCPoint@@11@Z PROC ; CElliotLine::ElementInRegion, COMDAT
; _this$ = ecx

; 1447 : 	/*if(CTwoPointElement::ElementInRegion(region, startPoint, endPoint, point))
; 1448 : 		return true;
; 1449 : 
; 1450 : 	if((startPoint.x < endPoint.x && point.x < startPoint.x) ||
; 1451 : 		(startPoint.x > endPoint.x && point.x > startPoint.x))
; 1452 : 		return false;*/
; 1453 : 
; 1454 : 	return true;

  00000	b0 01		 mov	 al, 1

; 1455 : }

  00002	c2 10 00	 ret	 16			; 00000010H
?ElementInRegion@CElliotLine@@MBE_NABVCRect@@ABVCPoint@@11@Z ENDP ; CElliotLine::ElementInRegion
_TEXT	ENDS
; Function compile flags: /Ogtp
; File D:\git\src\IBK\IBK_DRFN\ProjSrc\SrcChartEx\ChartAddIn\ChartAnalysisToolAddIn\AnalysisTool\Line.cpp
;	COMDAT ?GetTwoPointDrawer@CElliotLine@@MAEAAVCTwoPointDrawer@@XZ
_TEXT	SEGMENT
?GetTwoPointDrawer@CElliotLine@@MAEAAVCTwoPointDrawer@@XZ PROC ; CElliotLine::GetTwoPointDrawer, COMDAT
; _this$ = ecx

; 1439 : 	return m_elliotLineDrawer;

  00000	8d 81 90 00 00
	00		 lea	 eax, DWORD PTR [ecx+144]

; 1440 : }

  00006	c3		 ret	 0
?GetTwoPointDrawer@CElliotLine@@MAEAAVCTwoPointDrawer@@XZ ENDP ; CElliotLine::GetTwoPointDrawer
_TEXT	ENDS
; Function compile flags: /Ogtp
; File D:\git\src\IBK\IBK_DRFN\ProjSrc\SrcChartEx\ChartAddIn\ChartAnalysisToolAddIn\AnalysisTool\Line.cpp
;	COMDAT ?GetElementType@CElliotLine@@UBE?AW4ElementType@CToolEnumData@@XZ
_TEXT	SEGMENT
?GetElementType@CElliotLine@@UBE?AW4ElementType@CToolEnumData@@XZ PROC ; CElliotLine::GetElementType, COMDAT
; _this$ = ecx

; 1433 : 	return CToolEnumData::ElliotWave_Line;

  00000	b8 15 00 00 00	 mov	 eax, 21			; 00000015H

; 1434 : }

  00005	c3		 ret	 0
?GetElementType@CElliotLine@@UBE?AW4ElementType@CToolEnumData@@XZ ENDP ; CElliotLine::GetElementType
_TEXT	ENDS
; Function compile flags: /Ogtp
; File D:\git\src\IBK\IBK_DRFN\ProjSrc\SrcChartEx\ChartAddIn\ChartAnalysisToolAddIn\AnalysisTool\Line.cpp
;	COMDAT ??0CElliotLine@@QAE@ABVCCoordinate@@0ABVCElementCommonEnvironment@@@Z
_TEXT	SEGMENT
_this$ = -16						; size = 4
__$EHRec$ = -12						; size = 12
_point1$ = 8						; size = 4
_point2$ = 12						; size = 4
_environment$ = 16					; size = 4
??0CElliotLine@@QAE@ABVCCoordinate@@0ABVCElementCommonEnvironment@@@Z PROC ; CElliotLine::CElliotLine, COMDAT
; _this$ = ecx

; 1428 : {

  00000	55		 push	 ebp
  00001	8b ec		 mov	 ebp, esp
  00003	6a ff		 push	 -1
  00005	68 00 00 00 00	 push	 __ehhandler$??0CElliotLine@@QAE@ABVCCoordinate@@0ABVCElementCommonEnvironment@@@Z
  0000a	64 a1 00 00 00
	00		 mov	 eax, DWORD PTR fs:0
  00010	50		 push	 eax
  00011	51		 push	 ecx
  00012	56		 push	 esi
  00013	a1 00 00 00 00	 mov	 eax, DWORD PTR ___security_cookie
  00018	33 c5		 xor	 eax, ebp
  0001a	50		 push	 eax
  0001b	8d 45 f4	 lea	 eax, DWORD PTR __$EHRec$[ebp]
  0001e	64 a3 00 00 00
	00		 mov	 DWORD PTR fs:0, eax
  00024	8b f1		 mov	 esi, ecx
  00026	89 75 f0	 mov	 DWORD PTR _this$[ebp], esi

; 1427 : 	CTwoPointElement(point1, point2, environment)

  00029	ff 75 10	 push	 DWORD PTR _environment$[ebp]
  0002c	ff 75 0c	 push	 DWORD PTR _point2$[ebp]
  0002f	ff 75 08	 push	 DWORD PTR _point1$[ebp]
  00032	e8 00 00 00 00	 call	 ??0CTwoPointElement@@QAE@ABVCCoordinate@@0ABVCElementCommonEnvironment@@@Z ; CTwoPointElement::CTwoPointElement

; 1428 : {

  00037	c7 06 00 00 00
	00		 mov	 DWORD PTR [esi], OFFSET ??_7CElliotLine@@6B@
  0003d	8d 8e 98 00 00
	00		 lea	 ecx, DWORD PTR [esi+152]
  00043	c7 45 fc 00 00
	00 00		 mov	 DWORD PTR __$EHRec$[ebp+8], 0
  0004a	c7 86 94 00 00
	00 00 00 00 00	 mov	 DWORD PTR [esi+148], OFFSET ??_8CElliotLineDrawer@@7B@
  00054	e8 00 00 00 00	 call	 ??0CDrawer@@QAE@XZ	; CDrawer::CDrawer
  00059	c7 86 90 00 00
	00 00 00 00 00	 mov	 DWORD PTR [esi+144], OFFSET ??_7CElliotLineDrawer@@6B@

; 1429 : }

  00063	8b c6		 mov	 eax, esi
  00065	8b 4d f4	 mov	 ecx, DWORD PTR __$EHRec$[ebp]
  00068	64 89 0d 00 00
	00 00		 mov	 DWORD PTR fs:0, ecx
  0006f	59		 pop	 ecx
  00070	5e		 pop	 esi
  00071	8b e5		 mov	 esp, ebp
  00073	5d		 pop	 ebp
  00074	c2 0c 00	 ret	 12			; 0000000cH
  00077	cc		 int	 3
  00078	cc		 int	 3
  00079	cc		 int	 3
  0007a	cc		 int	 3
  0007b	cc		 int	 3
_TEXT	ENDS
;	COMDAT text$x
text$x	SEGMENT
__ehhandler$??0CElliotLine@@QAE@ABVCCoordinate@@0ABVCElementCommonEnvironment@@@Z:
  00000	90		 npad	 1
  00001	90		 npad	 1
  00002	8b 54 24 08	 mov	 edx, DWORD PTR [esp+8]
  00006	8d 42 0c	 lea	 eax, DWORD PTR [edx+12]
  00009	8b 4a f4	 mov	 ecx, DWORD PTR [edx-12]
  0000c	33 c8		 xor	 ecx, eax
  0000e	e8 00 00 00 00	 call	 @__security_check_cookie@4
  00013	b8 00 00 00 00	 mov	 eax, OFFSET __ehfuncinfo$??0CElliotLine@@QAE@ABVCCoordinate@@0ABVCElementCommonEnvironment@@@Z
  00018	e9 00 00 00 00	 jmp	 ___CxxFrameHandler3
text$x	ENDS
??0CElliotLine@@QAE@ABVCCoordinate@@0ABVCElementCommonEnvironment@@@Z ENDP ; CElliotLine::CElliotLine
; Function compile flags: /Ogtp
; File D:\git\src\IBK\IBK_DRFN\ProjSrc\SrcChartEx\ChartAddIn\ChartAnalysisToolAddIn\AnalysisTool\Element.h
;	COMDAT ??_GCPeriodSumLine@@UAEPAXI@Z
_TEXT	SEGMENT
___flags$ = 8						; size = 4
??_GCPeriodSumLine@@UAEPAXI@Z PROC			; CPeriodSumLine::`scalar deleting destructor', COMDAT
; _this$ = ecx
  00000	55		 push	 ebp
  00001	8b ec		 mov	 ebp, esp

; 31   : 	virtual ~CElement()	{}

  00003	56		 push	 esi
  00004	8b f1		 mov	 esi, ecx
  00006	8d 8e 84 00 00
	00		 lea	 ecx, DWORD PTR [esi+132]
  0000c	ff 15 00 00 00
	00		 call	 DWORD PTR __imp_??1?$CStringT@DV?$StrTraitMFC_DLL@DV?$ChTraitsCRT@D@ATL@@@@@ATL@@QAE@XZ
  00012	8d 4e 64	 lea	 ecx, DWORD PTR [esi+100]
  00015	ff 15 00 00 00
	00		 call	 DWORD PTR __imp_??1?$CStringT@DV?$StrTraitMFC_DLL@DV?$ChTraitsCRT@D@ATL@@@@@ATL@@QAE@XZ
  0001b	8d 4e 40	 lea	 ecx, DWORD PTR [esi+64]
  0001e	c7 06 00 00 00
	00		 mov	 DWORD PTR [esi], OFFSET ??_7CElement@@6B@
  00024	ff 15 00 00 00
	00		 call	 DWORD PTR __imp_??1?$CStringT@DV?$StrTraitMFC_DLL@DV?$ChTraitsCRT@D@ATL@@@@@ATL@@QAE@XZ
  0002a	8d 4e 3c	 lea	 ecx, DWORD PTR [esi+60]
  0002d	ff 15 00 00 00
	00		 call	 DWORD PTR __imp_??1?$CStringT@DV?$StrTraitMFC_DLL@DV?$ChTraitsCRT@D@ATL@@@@@ATL@@QAE@XZ
  00033	8d 4e 38	 lea	 ecx, DWORD PTR [esi+56]
  00036	ff 15 00 00 00
	00		 call	 DWORD PTR __imp_??1?$CStringT@DV?$StrTraitMFC_DLL@DV?$ChTraitsCRT@D@ATL@@@@@ATL@@QAE@XZ
  0003c	f6 45 08 01	 test	 BYTE PTR ___flags$[ebp], 1
  00040	74 0e		 je	 SHORT $LN25@scalar
  00042	68 b8 00 00 00	 push	 184			; 000000b8H
  00047	56		 push	 esi
  00048	e8 00 00 00 00	 call	 ??3@YAXPAXI@Z		; operator delete
  0004d	83 c4 08	 add	 esp, 8
$LN25@scalar:
  00050	8b c6		 mov	 eax, esi
  00052	5e		 pop	 esi
  00053	5d		 pop	 ebp
  00054	c2 04 00	 ret	 4
??_GCPeriodSumLine@@UAEPAXI@Z ENDP			; CPeriodSumLine::`scalar deleting destructor'
_TEXT	ENDS
; Function compile flags: /Ogtp
; File D:\git\src\IBK\IBK_DRFN\ProjSrc\SrcChartEx\ChartAddIn\ChartAnalysisToolAddIn\AnalysisTool\Line.cpp
;	COMDAT ?GetModifyType@CPeriodSumLine@@MBE?AW4ModifyType@CToolEnumData@@ABVCRect@@ABVCPoint@@11@Z
_TEXT	SEGMENT
_ptStart$ = -16						; size = 8
_ptEnd$ = -8						; size = 8
_p_rctGraphArea$ = 8					; size = 4
_p_ptStart$ = 12					; size = 4
_p_ptEnd$ = 16						; size = 4
_p_ptCursor$ = 20					; size = 4
?GetModifyType@CPeriodSumLine@@MBE?AW4ModifyType@CToolEnumData@@ABVCRect@@ABVCPoint@@11@Z PROC ; CPeriodSumLine::GetModifyType, COMDAT
; _this$ = ecx

; 1402 : {

  00000	55		 push	 ebp
  00001	8b ec		 mov	 ebp, esp
  00003	83 ec 10	 sub	 esp, 16			; 00000010H
  00006	53		 push	 ebx

; 1403 : 	CToolEnumData::ModifyType sidePointModifyType = GetModifyType_SidePoints( p_ptStart, p_ptEnd, p_ptCursor);

  00007	8b 5d 14	 mov	 ebx, DWORD PTR _p_ptCursor$[ebp]
  0000a	56		 push	 esi
  0000b	8b 75 10	 mov	 esi, DWORD PTR _p_ptEnd$[ebp]
  0000e	57		 push	 edi
  0000f	53		 push	 ebx
  00010	56		 push	 esi
  00011	ff 75 0c	 push	 DWORD PTR _p_ptStart$[ebp]
  00014	8b f9		 mov	 edi, ecx
  00016	e8 00 00 00 00	 call	 ?GetModifyType_SidePoints@CTwoPointElement@@IBE?AW4ModifyType@CToolEnumData@@ABVCPoint@@00@Z ; CTwoPointElement::GetModifyType_SidePoints

; 1404 : 	if( sidePointModifyType != CToolEnumData::MODIFY_NONE) 

  0001b	85 c0		 test	 eax, eax
  0001d	75 59		 jne	 SHORT $LN1@GetModifyT

; 1405 : 		return sidePointModifyType;
; 1406 : 
; 1407 : 	CPoint ptStart(p_ptStart);	

  0001f	8b 4d 0c	 mov	 ecx, DWORD PTR _p_ptStart$[ebp]

; 1408 : 	CPoint ptEnd(p_ptEnd);
; 1409 : 	
; 1410 : 	ptEnd.y = p_ptStart.y;	
; 1411 : 	if(CElement::PointInElementSelectableRegion(ptStart, ptEnd, p_ptCursor))

  00022	53		 push	 ebx
  00023	8b 01		 mov	 eax, DWORD PTR [ecx]
  00025	8b 51 04	 mov	 edx, DWORD PTR [ecx+4]
  00028	8b cf		 mov	 ecx, edi
  0002a	89 45 f0	 mov	 DWORD PTR _ptStart$[ebp], eax
  0002d	8b 06		 mov	 eax, DWORD PTR [esi]
  0002f	89 45 f8	 mov	 DWORD PTR _ptEnd$[ebp], eax
  00032	8d 45 f8	 lea	 eax, DWORD PTR _ptEnd$[ebp]
  00035	50		 push	 eax
  00036	8d 45 f0	 lea	 eax, DWORD PTR _ptStart$[ebp]
  00039	89 55 f4	 mov	 DWORD PTR _ptStart$[ebp+4], edx
  0003c	50		 push	 eax
  0003d	89 55 fc	 mov	 DWORD PTR _ptEnd$[ebp+4], edx
  00040	e8 00 00 00 00	 call	 ?PointInElementSelectableRegion@CElement@@IBE_NABVCPoint@@00@Z ; CElement::PointInElementSelectableRegion
  00045	84 c0		 test	 al, al
  00047	75 2a		 jne	 SHORT $LN6@GetModifyT

; 1412 : 		return CToolEnumData::MODIFY_CENTER;
; 1413 : 
; 1414 : 	ptEnd.y = p_ptEnd.y;	

  00049	8b 46 04	 mov	 eax, DWORD PTR [esi+4]

; 1415 : 	ptStart.x = p_ptEnd.x;
; 1416 : 	if(CElement::PointInElementSelectableRegion(ptStart, ptEnd, p_ptCursor))

  0004c	8b cf		 mov	 ecx, edi
  0004e	89 45 fc	 mov	 DWORD PTR _ptEnd$[ebp+4], eax
  00051	8b 06		 mov	 eax, DWORD PTR [esi]
  00053	89 45 f0	 mov	 DWORD PTR _ptStart$[ebp], eax
  00056	8d 45 f8	 lea	 eax, DWORD PTR _ptEnd$[ebp]
  00059	53		 push	 ebx
  0005a	50		 push	 eax
  0005b	8d 45 f0	 lea	 eax, DWORD PTR _ptStart$[ebp]
  0005e	50		 push	 eax
  0005f	e8 00 00 00 00	 call	 ?PointInElementSelectableRegion@CElement@@IBE_NABVCPoint@@00@Z ; CElement::PointInElementSelectableRegion
  00064	84 c0		 test	 al, al
  00066	75 0b		 jne	 SHORT $LN6@GetModifyT

; 1418 : 	
; 1419 : 	return CToolEnumData::MODIFY_NONE;
; 1420 : }

  00068	5f		 pop	 edi
  00069	5e		 pop	 esi
  0006a	33 c0		 xor	 eax, eax
  0006c	5b		 pop	 ebx
  0006d	8b e5		 mov	 esp, ebp
  0006f	5d		 pop	 ebp
  00070	c2 10 00	 ret	 16			; 00000010H
$LN6@GetModifyT:

; 1417 : 		return CToolEnumData::MODIFY_CENTER;

  00073	b8 01 00 00 00	 mov	 eax, 1
$LN1@GetModifyT:
  00078	5f		 pop	 edi

; 1418 : 	
; 1419 : 	return CToolEnumData::MODIFY_NONE;
; 1420 : }

  00079	5e		 pop	 esi
  0007a	5b		 pop	 ebx
  0007b	8b e5		 mov	 esp, ebp
  0007d	5d		 pop	 ebp
  0007e	c2 10 00	 ret	 16			; 00000010H
?GetModifyType@CPeriodSumLine@@MBE?AW4ModifyType@CToolEnumData@@ABVCRect@@ABVCPoint@@11@Z ENDP ; CPeriodSumLine::GetModifyType
_TEXT	ENDS
; Function compile flags: /Ogtp
; File D:\git\src\IBK\IBK_DRFN\ProjSrc\SrcChartEx\ChartAddIn\ChartAnalysisToolAddIn\AnalysisTool\Line.cpp
; File C:\Program Files (x86)\Microsoft Visual Studio\2019\Community\VC\Tools\MSVC\14.29.30133\atlmfc\include\atltypes.h
; File D:\git\src\IBK\IBK_DRFN\ProjSrc\SrcChartEx\ChartAddIn\ChartAnalysisToolAddIn\AnalysisTool\Line.cpp
; File C:\Program Files (x86)\Microsoft Visual Studio\2019\Community\VC\Tools\MSVC\14.29.30133\atlmfc\include\atltypes.h
; File D:\git\src\IBK\IBK_DRFN\ProjSrc\SrcChartEx\ChartAddIn\ChartAnalysisToolAddIn\AnalysisTool\Line.cpp
; File C:\Program Files (x86)\Microsoft Visual Studio\2019\Community\VC\Tools\MSVC\14.29.30133\atlmfc\include\atltypes.h
; File D:\git\src\IBK\IBK_DRFN\ProjSrc\SrcChartEx\ChartAddIn\ChartAnalysisToolAddIn\AnalysisTool\Line.cpp
; File C:\Program Files (x86)\Microsoft Visual Studio\2019\Community\VC\Tools\MSVC\14.29.30133\atlmfc\include\atltypes.h
; File D:\git\src\IBK\IBK_DRFN\ProjSrc\SrcChartEx\ChartAddIn\ChartAnalysisToolAddIn\AnalysisTool\Line.cpp
; File C:\Program Files (x86)\Microsoft Visual Studio\2019\Community\VC\Tools\MSVC\14.29.30133\atlmfc\include\atltypes.h
; File D:\git\src\IBK\IBK_DRFN\ProjSrc\SrcChartEx\ChartAddIn\ChartAnalysisToolAddIn\AnalysisTool\Line.cpp
;	COMDAT ?ElementInRegion@CPeriodSumLine@@MBE_NABVCRect@@ABVCPoint@@11@Z
_TEXT	SEGMENT
_rctLineRect$ = -20					; size = 16
__$ArrayPad$ = -4					; size = 4
_p_rctGraphArea$ = 8					; size = 4
_p_ptStart$ = 12					; size = 4
_p_ptEnd$ = 16						; size = 4
_p_ptCursor$ = 20					; size = 4
?ElementInRegion@CPeriodSumLine@@MBE_NABVCRect@@ABVCPoint@@11@Z PROC ; CPeriodSumLine::ElementInRegion, COMDAT
; _this$ = ecx

; 1393 : {

  00000	55		 push	 ebp
  00001	8b ec		 mov	 ebp, esp
  00003	83 ec 14	 sub	 esp, 20			; 00000014H
  00006	a1 00 00 00 00	 mov	 eax, DWORD PTR ___security_cookie
  0000b	33 c5		 xor	 eax, ebp
  0000d	89 45 fc	 mov	 DWORD PTR __$ArrayPad$[ebp], eax
  00010	8b 45 10	 mov	 eax, DWORD PTR _p_ptEnd$[ebp]
  00013	8b 55 0c	 mov	 edx, DWORD PTR _p_ptStart$[ebp]
  00016	56		 push	 esi
  00017	8b 75 08	 mov	 esi, DWORD PTR _p_rctGraphArea$[ebp]
  0001a	57		 push	 edi
  0001b	8b 7d 14	 mov	 edi, DWORD PTR _p_ptCursor$[ebp]

; 1394 : 	CRect rctLineRect = CElement::GetLineRect( p_rctGraphArea, p_ptStart, p_ptEnd,FALSE,FALSE);

  0001e	6a 00		 push	 0
  00020	6a 00		 push	 0
  00022	50		 push	 eax
  00023	52		 push	 edx
  00024	56		 push	 esi
  00025	8d 45 ec	 lea	 eax, DWORD PTR _rctLineRect$[ebp]
  00028	50		 push	 eax
  00029	e8 00 00 00 00	 call	 ?GetLineRect@CElement@@IBE?AVCRect@@ABV2@ABVCPoint@@1HH@Z ; CElement::GetLineRect
; File C:\Program Files (x86)\Microsoft Visual Studio\2019\Community\VC\Tools\MSVC\14.29.30133\atlmfc\include\atltypes.h

; 914  : 	right += r;

  0002e	8b 45 f4	 mov	 eax, DWORD PTR _rctLineRect$[ebp+8]
  00031	8b 4d ec	 mov	 ecx, DWORD PTR _rctLineRect$[ebp]
  00034	40		 inc	 eax
  00035	8b 55 f0	 mov	 edx, DWORD PTR _rctLineRect$[ebp+4]
  00038	49		 dec	 ecx

; 915  : 	bottom += b;

  00039	8b 75 f8	 mov	 esi, DWORD PTR _rctLineRect$[ebp+12]
  0003c	4a		 dec	 edx
  0003d	89 45 f4	 mov	 DWORD PTR _rctLineRect$[ebp+8], eax
  00040	46		 inc	 esi
  00041	2b c1		 sub	 eax, ecx
  00043	89 4d ec	 mov	 DWORD PTR _rctLineRect$[ebp], ecx
  00046	89 55 f0	 mov	 DWORD PTR _rctLineRect$[ebp+4], edx
  00049	89 75 f8	 mov	 DWORD PTR _rctLineRect$[ebp+12], esi
; File D:\git\src\IBK\IBK_DRFN\ProjSrc\SrcChartEx\ChartAddIn\ChartAnalysisToolAddIn\AnalysisTool\Line.cpp

; 1396 : 	if( rctLineRect.Width()		< 4) rctLineRect.InflateRect( CSize( ( 4 - rctLineRect.Width()) / 2,	0));

  0004c	83 f8 04	 cmp	 eax, 4
  0004f	7d 1e		 jge	 SHORT $LN2@ElementInR
; File C:\Program Files (x86)\Microsoft Visual Studio\2019\Community\VC\Tools\MSVC\14.29.30133\atlmfc\include\atltypes.h

; 312  : 	cx = initCX;

  00051	2b 4d f4	 sub	 ecx, DWORD PTR _rctLineRect$[ebp+8]

; 691  : 	::InflateRect(this, size.cx, size.cy);

  00054	6a 00		 push	 0
; File D:\git\src\IBK\IBK_DRFN\ProjSrc\SrcChartEx\ChartAddIn\ChartAnalysisToolAddIn\AnalysisTool\Line.cpp

; 1396 : 	if( rctLineRect.Width()		< 4) rctLineRect.InflateRect( CSize( ( 4 - rctLineRect.Width()) / 2,	0));

  00056	8d 41 04	 lea	 eax, DWORD PTR [ecx+4]
  00059	99		 cdq
  0005a	2b c2		 sub	 eax, edx
  0005c	d1 f8		 sar	 eax, 1
; File C:\Program Files (x86)\Microsoft Visual Studio\2019\Community\VC\Tools\MSVC\14.29.30133\atlmfc\include\atltypes.h

; 691  : 	::InflateRect(this, size.cx, size.cy);

  0005e	50		 push	 eax
  0005f	8d 45 ec	 lea	 eax, DWORD PTR _rctLineRect$[ebp]
  00062	50		 push	 eax
  00063	ff 15 00 00 00
	00		 call	 DWORD PTR __imp__InflateRect@12
  00069	8b 75 f8	 mov	 esi, DWORD PTR _rctLineRect$[ebp+12]
  0006c	8b 55 f0	 mov	 edx, DWORD PTR _rctLineRect$[ebp+4]
$LN2@ElementInR:

; 581  : 	return bottom - top;

  0006f	8b ce		 mov	 ecx, esi
  00071	2b ca		 sub	 ecx, edx
; File D:\git\src\IBK\IBK_DRFN\ProjSrc\SrcChartEx\ChartAddIn\ChartAnalysisToolAddIn\AnalysisTool\Line.cpp

; 1397 : 	if( rctLineRect.Height()	< 4) rctLineRect.InflateRect( CSize( 0,( 4 - rctLineRect.Height()) / 2));

  00073	83 f9 04	 cmp	 ecx, 4
  00076	7d 17		 jge	 SHORT $LN3@ElementInR
; File C:\Program Files (x86)\Microsoft Visual Studio\2019\Community\VC\Tools\MSVC\14.29.30133\atlmfc\include\atltypes.h

; 313  : 	cy = initCY;

  00078	2b d6		 sub	 edx, esi
; File D:\git\src\IBK\IBK_DRFN\ProjSrc\SrcChartEx\ChartAddIn\ChartAnalysisToolAddIn\AnalysisTool\Line.cpp

; 1397 : 	if( rctLineRect.Height()	< 4) rctLineRect.InflateRect( CSize( 0,( 4 - rctLineRect.Height()) / 2));

  0007a	8d 42 04	 lea	 eax, DWORD PTR [edx+4]
  0007d	99		 cdq
  0007e	2b c2		 sub	 eax, edx
  00080	d1 f8		 sar	 eax, 1
; File C:\Program Files (x86)\Microsoft Visual Studio\2019\Community\VC\Tools\MSVC\14.29.30133\atlmfc\include\atltypes.h

; 691  : 	::InflateRect(this, size.cx, size.cy);

  00082	50		 push	 eax
  00083	6a 00		 push	 0
  00085	8d 45 ec	 lea	 eax, DWORD PTR _rctLineRect$[ebp]
  00088	50		 push	 eax
  00089	ff 15 00 00 00
	00		 call	 DWORD PTR __imp__InflateRect@12
$LN3@ElementInR:

; 648  : 	return ::PtInRect(this, point);

  0008f	ff 77 04	 push	 DWORD PTR [edi+4]
  00092	8d 45 ec	 lea	 eax, DWORD PTR _rctLineRect$[ebp]
  00095	ff 37		 push	 DWORD PTR [edi]
  00097	50		 push	 eax
  00098	ff 15 00 00 00
	00		 call	 DWORD PTR __imp__PtInRect@12
; File D:\git\src\IBK\IBK_DRFN\ProjSrc\SrcChartEx\ChartAddIn\ChartAnalysisToolAddIn\AnalysisTool\Line.cpp

; 1399 : }

  0009e	8b 4d fc	 mov	 ecx, DWORD PTR __$ArrayPad$[ebp]
  000a1	85 c0		 test	 eax, eax
  000a3	5f		 pop	 edi
  000a4	0f 95 c0	 setne	 al
  000a7	33 cd		 xor	 ecx, ebp
  000a9	5e		 pop	 esi
  000aa	e8 00 00 00 00	 call	 @__security_check_cookie@4
  000af	8b e5		 mov	 esp, ebp
  000b1	5d		 pop	 ebp
  000b2	c2 10 00	 ret	 16			; 00000010H
?ElementInRegion@CPeriodSumLine@@MBE_NABVCRect@@ABVCPoint@@11@Z ENDP ; CPeriodSumLine::ElementInRegion
_TEXT	ENDS
; Function compile flags: /Ogtp
; File D:\git\src\IBK\IBK_DRFN\ProjSrc\SrcChartEx\ChartAddIn\ChartAnalysisToolAddIn\AnalysisTool\Line.cpp
;	COMDAT ?GetTwoPointDrawer@CPeriodSumLine@@MAEAAVCTwoPointDrawer@@XZ
_TEXT	SEGMENT
?GetTwoPointDrawer@CPeriodSumLine@@MAEAAVCTwoPointDrawer@@XZ PROC ; CPeriodSumLine::GetTwoPointDrawer, COMDAT
; _this$ = ecx

; 1389 : 	return m_periodSumLineDrawer;

  00000	8d 81 9c 00 00
	00		 lea	 eax, DWORD PTR [ecx+156]

; 1390 : }

  00006	c3		 ret	 0
?GetTwoPointDrawer@CPeriodSumLine@@MAEAAVCTwoPointDrawer@@XZ ENDP ; CPeriodSumLine::GetTwoPointDrawer
_TEXT	ENDS
; Function compile flags: /Ogtp
; File D:\git\src\IBK\IBK_DRFN\ProjSrc\SrcChartEx\ChartAddIn\ChartAnalysisToolAddIn\AnalysisTool\Line.cpp
;	COMDAT ?GetTextPosition@CPeriodSumLine@@MAEPAVCTextPosition@@XZ
_TEXT	SEGMENT
?GetTextPosition@CPeriodSumLine@@MAEPAVCTextPosition@@XZ PROC ; CPeriodSumLine::GetTextPosition, COMDAT
; _this$ = ecx

; 1384 : 	return &m_textPosition;

  00000	8d 81 90 00 00
	00		 lea	 eax, DWORD PTR [ecx+144]

; 1385 : }

  00006	c3		 ret	 0
?GetTextPosition@CPeriodSumLine@@MAEPAVCTextPosition@@XZ ENDP ; CPeriodSumLine::GetTextPosition
_TEXT	ENDS
; Function compile flags: /Ogtp
; File D:\git\src\IBK\IBK_DRFN\ProjSrc\SrcChartEx\ChartAddIn\ChartAnalysisToolAddIn\AnalysisTool\Line.cpp
;	COMDAT ?GetTextPosition@CPeriodSumLine@@MBEPBVCTextPosition@@XZ
_TEXT	SEGMENT
?GetTextPosition@CPeriodSumLine@@MBEPBVCTextPosition@@XZ PROC ; CPeriodSumLine::GetTextPosition, COMDAT
; _this$ = ecx

; 1379 : 	return &m_textPosition;

  00000	8d 81 90 00 00
	00		 lea	 eax, DWORD PTR [ecx+144]

; 1380 : }

  00006	c3		 ret	 0
?GetTextPosition@CPeriodSumLine@@MBEPBVCTextPosition@@XZ ENDP ; CPeriodSumLine::GetTextPosition
_TEXT	ENDS
; Function compile flags: /Ogtp
; File D:\git\src\IBK\IBK_DRFN\ProjSrc\SrcChartEx\ChartAddIn\ChartAnalysisToolAddIn\AnalysisTool\Line.cpp
;	COMDAT ?GetElementType@CPeriodSumLine@@UBE?AW4ElementType@CToolEnumData@@XZ
_TEXT	SEGMENT
?GetElementType@CPeriodSumLine@@UBE?AW4ElementType@CToolEnumData@@XZ PROC ; CPeriodSumLine::GetElementType, COMDAT
; _this$ = ecx

; 1373 : 	return CToolEnumData::Period_Summary;

  00000	b8 21 00 00 00	 mov	 eax, 33			; 00000021H

; 1374 : }

  00005	c3		 ret	 0
?GetElementType@CPeriodSumLine@@UBE?AW4ElementType@CToolEnumData@@XZ ENDP ; CPeriodSumLine::GetElementType
_TEXT	ENDS
; Function compile flags: /Ogtp
; File D:\git\src\IBK\IBK_DRFN\ProjSrc\SrcChartEx\ChartAddIn\ChartAnalysisToolAddIn\AnalysisTool\Line.cpp
;	COMDAT ??0CPeriodSumLine@@QAE@ABVCTextHorzPosition@@ABVCCoordinate@@1ABVCElementCommonEnvironment@@@Z
_TEXT	SEGMENT
_this$ = -16						; size = 4
__$EHRec$ = -12						; size = 12
_position$ = 8						; size = 4
_point1$ = 12						; size = 4
_point2$ = 16						; size = 4
_environment$ = 20					; size = 4
??0CPeriodSumLine@@QAE@ABVCTextHorzPosition@@ABVCCoordinate@@1ABVCElementCommonEnvironment@@@Z PROC ; CPeriodSumLine::CPeriodSumLine, COMDAT
; _this$ = ecx

; 1367 : {

  00000	55		 push	 ebp
  00001	8b ec		 mov	 ebp, esp
  00003	6a ff		 push	 -1
  00005	68 00 00 00 00	 push	 __ehhandler$??0CPeriodSumLine@@QAE@ABVCTextHorzPosition@@ABVCCoordinate@@1ABVCElementCommonEnvironment@@@Z
  0000a	64 a1 00 00 00
	00		 mov	 eax, DWORD PTR fs:0
  00010	50		 push	 eax
  00011	51		 push	 ecx
  00012	56		 push	 esi
  00013	a1 00 00 00 00	 mov	 eax, DWORD PTR ___security_cookie
  00018	33 c5		 xor	 eax, ebp
  0001a	50		 push	 eax
  0001b	8d 45 f4	 lea	 eax, DWORD PTR __$EHRec$[ebp]
  0001e	64 a3 00 00 00
	00		 mov	 DWORD PTR fs:0, eax
  00024	8b f1		 mov	 esi, ecx
  00026	89 75 f0	 mov	 DWORD PTR _this$[ebp], esi

; 1365 : 			 CTwoPointElement(point1, point2, environment),

  00029	ff 75 14	 push	 DWORD PTR _environment$[ebp]
  0002c	ff 75 10	 push	 DWORD PTR _point2$[ebp]
  0002f	ff 75 0c	 push	 DWORD PTR _point1$[ebp]
  00032	e8 00 00 00 00	 call	 ??0CTwoPointElement@@QAE@ABVCCoordinate@@0ABVCElementCommonEnvironment@@@Z ; CTwoPointElement::CTwoPointElement

; 1366 : 			 m_textPosition(position)

  00037	ff 75 08	 push	 DWORD PTR _position$[ebp]
  0003a	8d 8e 90 00 00
	00		 lea	 ecx, DWORD PTR [esi+144]
  00040	c7 45 fc 00 00
	00 00		 mov	 DWORD PTR __$EHRec$[ebp+8], 0

; 1367 : {

  00047	c7 06 00 00 00
	00		 mov	 DWORD PTR [esi], OFFSET ??_7CPeriodSumLine@@6B@
  0004d	e8 00 00 00 00	 call	 ??0CTextHorzPosition@@QAE@ABV0@@Z ; CTextHorzPosition::CTextHorzPosition
  00052	8d 8e a4 00 00
	00		 lea	 ecx, DWORD PTR [esi+164]
  00058	c6 45 fc 01	 mov	 BYTE PTR __$EHRec$[ebp+8], 1
  0005c	c7 86 a0 00 00
	00 00 00 00 00	 mov	 DWORD PTR [esi+160], OFFSET ??_8CPeriodSumLineDrawer@@7B@
  00066	e8 00 00 00 00	 call	 ??0CDrawer@@QAE@XZ	; CDrawer::CDrawer
  0006b	c7 86 9c 00 00
	00 00 00 00 00	 mov	 DWORD PTR [esi+156], OFFSET ??_7CPeriodSumLineDrawer@@6B@

; 1368 : 	
; 1369 : }

  00075	8b c6		 mov	 eax, esi
  00077	8b 4d f4	 mov	 ecx, DWORD PTR __$EHRec$[ebp]
  0007a	64 89 0d 00 00
	00 00		 mov	 DWORD PTR fs:0, ecx
  00081	59		 pop	 ecx
  00082	5e		 pop	 esi
  00083	8b e5		 mov	 esp, ebp
  00085	5d		 pop	 ebp
  00086	c2 10 00	 ret	 16			; 00000010H
_TEXT	ENDS
;	COMDAT text$x
text$x	SEGMENT
__unwindfunclet$??0CPeriodSumLine@@QAE@ABVCTextHorzPosition@@ABVCCoordinate@@1ABVCElementCommonEnvironment@@@Z$0:
  00000	8b 4d f0	 mov	 ecx, DWORD PTR _this$[ebp]
  00003	e9 00 00 00 00	 jmp	 ??1CTwoPointElement@@UAE@XZ
  00008	cc		 int	 3
  00009	cc		 int	 3
  0000a	cc		 int	 3
  0000b	cc		 int	 3
  0000c	cc		 int	 3
__ehhandler$??0CPeriodSumLine@@QAE@ABVCTextHorzPosition@@ABVCCoordinate@@1ABVCElementCommonEnvironment@@@Z:
  0000d	90		 npad	 1
  0000e	90		 npad	 1
  0000f	8b 54 24 08	 mov	 edx, DWORD PTR [esp+8]
  00013	8d 42 0c	 lea	 eax, DWORD PTR [edx+12]
  00016	8b 4a f4	 mov	 ecx, DWORD PTR [edx-12]
  00019	33 c8		 xor	 ecx, eax
  0001b	e8 00 00 00 00	 call	 @__security_check_cookie@4
  00020	b8 00 00 00 00	 mov	 eax, OFFSET __ehfuncinfo$??0CPeriodSumLine@@QAE@ABVCTextHorzPosition@@ABVCCoordinate@@1ABVCElementCommonEnvironment@@@Z
  00025	e9 00 00 00 00	 jmp	 ___CxxFrameHandler3
text$x	ENDS
??0CPeriodSumLine@@QAE@ABVCTextHorzPosition@@ABVCCoordinate@@1ABVCElementCommonEnvironment@@@Z ENDP ; CPeriodSumLine::CPeriodSumLine
; Function compile flags: /Ogtp
; File D:\git\src\IBK\IBK_DRFN\ProjSrc\SrcChartEx\ChartAddIn\ChartAnalysisToolAddIn\AnalysisTool\Element.h
;	COMDAT ??_GCPencilLine@@UAEPAXI@Z
_TEXT	SEGMENT
__$EHRec$ = -12						; size = 12
___flags$ = 8						; size = 4
??_GCPencilLine@@UAEPAXI@Z PROC				; CPencilLine::`scalar deleting destructor', COMDAT
; _this$ = ecx
  00000	55		 push	 ebp
  00001	8b ec		 mov	 ebp, esp
  00003	6a ff		 push	 -1
  00005	68 00 00 00 00	 push	 __ehhandler$??_GCPencilLine@@UAEPAXI@Z
  0000a	64 a1 00 00 00
	00		 mov	 eax, DWORD PTR fs:0
  00010	50		 push	 eax
  00011	56		 push	 esi
  00012	a1 00 00 00 00	 mov	 eax, DWORD PTR ___security_cookie
  00017	33 c5		 xor	 eax, ebp
  00019	50		 push	 eax
  0001a	8d 45 f4	 lea	 eax, DWORD PTR __$EHRec$[ebp]
  0001d	64 a3 00 00 00
	00		 mov	 DWORD PTR fs:0, eax
  00023	8b f1		 mov	 esi, ecx
  00025	68 00 00 00 00	 push	 OFFSET ??1CPoints@@QAE@XZ
  0002a	68 f4 01 00 00	 push	 500			; 000001f4H
  0002f	6a 28		 push	 40			; 00000028H
  00031	8d 46 58	 lea	 eax, DWORD PTR [esi+88]
  00034	c7 45 fc 00 00
	00 00		 mov	 DWORD PTR __$EHRec$[ebp+8], 0
  0003b	50		 push	 eax
  0003c	e8 00 00 00 00	 call	 ??_M@YGXPAXIIP6EX0@Z@Z

; 31   : 	virtual ~CElement()	{}

  00041	8d 4e 40	 lea	 ecx, DWORD PTR [esi+64]
  00044	c7 06 00 00 00
	00		 mov	 DWORD PTR [esi], OFFSET ??_7CElement@@6B@
  0004a	ff 15 00 00 00
	00		 call	 DWORD PTR __imp_??1?$CStringT@DV?$StrTraitMFC_DLL@DV?$ChTraitsCRT@D@ATL@@@@@ATL@@QAE@XZ
  00050	8d 4e 3c	 lea	 ecx, DWORD PTR [esi+60]
  00053	ff 15 00 00 00
	00		 call	 DWORD PTR __imp_??1?$CStringT@DV?$StrTraitMFC_DLL@DV?$ChTraitsCRT@D@ATL@@@@@ATL@@QAE@XZ
  00059	8d 4e 38	 lea	 ecx, DWORD PTR [esi+56]
  0005c	ff 15 00 00 00
	00		 call	 DWORD PTR __imp_??1?$CStringT@DV?$StrTraitMFC_DLL@DV?$ChTraitsCRT@D@ATL@@@@@ATL@@QAE@XZ
  00062	f6 45 08 01	 test	 BYTE PTR ___flags$[ebp], 1
  00066	74 0e		 je	 SHORT $LN19@scalar
  00068	68 90 4e 00 00	 push	 20112			; 00004e90H
  0006d	56		 push	 esi
  0006e	e8 00 00 00 00	 call	 ??3@YAXPAXI@Z		; operator delete
  00073	83 c4 08	 add	 esp, 8
$LN19@scalar:
  00076	8b c6		 mov	 eax, esi
  00078	8b 4d f4	 mov	 ecx, DWORD PTR __$EHRec$[ebp]
  0007b	64 89 0d 00 00
	00 00		 mov	 DWORD PTR fs:0, ecx
  00082	59		 pop	 ecx
  00083	5e		 pop	 esi
  00084	8b e5		 mov	 esp, ebp
  00086	5d		 pop	 ebp
  00087	c2 04 00	 ret	 4
  0008a	cc		 int	 3
  0008b	cc		 int	 3
  0008c	cc		 int	 3
  0008d	cc		 int	 3
  0008e	cc		 int	 3
_TEXT	ENDS
;	COMDAT text$x
text$x	SEGMENT
__ehhandler$??_GCPencilLine@@UAEPAXI@Z:
  00000	90		 npad	 1
  00001	90		 npad	 1
  00002	8b 54 24 08	 mov	 edx, DWORD PTR [esp+8]
  00006	8d 42 0c	 lea	 eax, DWORD PTR [edx+12]
  00009	8b 4a f8	 mov	 ecx, DWORD PTR [edx-8]
  0000c	33 c8		 xor	 ecx, eax
  0000e	e8 00 00 00 00	 call	 @__security_check_cookie@4
  00013	b8 00 00 00 00	 mov	 eax, OFFSET __ehfuncinfo$??_GCPencilLine@@UAEPAXI@Z
  00018	e9 00 00 00 00	 jmp	 ___CxxFrameHandler3
text$x	ENDS
??_GCPencilLine@@UAEPAXI@Z ENDP				; CPencilLine::`scalar deleting destructor'
; Function compile flags: /Ogtp
; File D:\git\src\IBK\IBK_DRFN\ProjSrc\SrcChartEx\ChartAddIn\ChartAnalysisToolAddIn\AnalysisTool\Line.cpp
;	COMDAT ?GetMultiPointDrawer@CPencilLine@@MAEAAVCMultiPointDrawer@@XZ
_TEXT	SEGMENT
?GetMultiPointDrawer@CPencilLine@@MAEAAVCMultiPointDrawer@@XZ PROC ; CPencilLine::GetMultiPointDrawer, COMDAT
; _this$ = ecx

; 1359 : 	return m_pencilLineDrawer;

  00000	8d 81 78 4e 00
	00		 lea	 eax, DWORD PTR [ecx+20088]

; 1360 : }

  00006	c3		 ret	 0
?GetMultiPointDrawer@CPencilLine@@MAEAAVCMultiPointDrawer@@XZ ENDP ; CPencilLine::GetMultiPointDrawer
_TEXT	ENDS
; Function compile flags: /Ogtp
; File D:\git\src\IBK\IBK_DRFN\ProjSrc\SrcChartEx\ChartAddIn\ChartAnalysisToolAddIn\AnalysisTool\Line.cpp
;	COMDAT ?GetElementType@CPencilLine@@UBE?AW4ElementType@CToolEnumData@@XZ
_TEXT	SEGMENT
?GetElementType@CPencilLine@@UBE?AW4ElementType@CToolEnumData@@XZ PROC ; CPencilLine::GetElementType, COMDAT
; _this$ = ecx

; 1353 : 	return CToolEnumData::Pencil_Line;

  00000	b8 23 00 00 00	 mov	 eax, 35			; 00000023H

; 1354 : }

  00005	c3		 ret	 0
?GetElementType@CPencilLine@@UBE?AW4ElementType@CToolEnumData@@XZ ENDP ; CPencilLine::GetElementType
_TEXT	ENDS
; Function compile flags: /Ogtp
; File D:\git\src\IBK\IBK_DRFN\ProjSrc\SrcChartEx\ChartAddIn\ChartAnalysisToolAddIn\AnalysisTool\Line.cpp
;	COMDAT ??0CPencilLine@@QAE@ABV?$CDequeList@VCCoordinate@@@@ABVCElementCommonEnvironment@@@Z
_TEXT	SEGMENT
_this$ = -16						; size = 4
__$EHRec$ = -12						; size = 12
_pointList$ = 8						; size = 4
_environment$ = 12					; size = 4
??0CPencilLine@@QAE@ABV?$CDequeList@VCCoordinate@@@@ABVCElementCommonEnvironment@@@Z PROC ; CPencilLine::CPencilLine, COMDAT
; _this$ = ecx

; 1348 : {

  00000	55		 push	 ebp
  00001	8b ec		 mov	 ebp, esp
  00003	6a ff		 push	 -1
  00005	68 00 00 00 00	 push	 __ehhandler$??0CPencilLine@@QAE@ABV?$CDequeList@VCCoordinate@@@@ABVCElementCommonEnvironment@@@Z
  0000a	64 a1 00 00 00
	00		 mov	 eax, DWORD PTR fs:0
  00010	50		 push	 eax
  00011	51		 push	 ecx
  00012	56		 push	 esi
  00013	a1 00 00 00 00	 mov	 eax, DWORD PTR ___security_cookie
  00018	33 c5		 xor	 eax, ebp
  0001a	50		 push	 eax
  0001b	8d 45 f4	 lea	 eax, DWORD PTR __$EHRec$[ebp]
  0001e	64 a3 00 00 00
	00		 mov	 DWORD PTR fs:0, eax
  00024	8b f1		 mov	 esi, ecx
  00026	89 75 f0	 mov	 DWORD PTR _this$[ebp], esi

; 1347 : 	CMultiPointElement(pointList,environment)

  00029	ff 75 0c	 push	 DWORD PTR _environment$[ebp]
  0002c	ff 75 08	 push	 DWORD PTR _pointList$[ebp]
  0002f	e8 00 00 00 00	 call	 ??0CMultiPointElement@@QAE@ABV?$CDequeList@VCCoordinate@@@@ABVCElementCommonEnvironment@@@Z ; CMultiPointElement::CMultiPointElement
  00034	8d 8e 7c 4e 00
	00		 lea	 ecx, DWORD PTR [esi+20092]
  0003a	c7 45 fc 00 00
	00 00		 mov	 DWORD PTR __$EHRec$[ebp+8], 0

; 1348 : {

  00041	c7 06 00 00 00
	00		 mov	 DWORD PTR [esi], OFFSET ??_7CPencilLine@@6B@
  00047	e8 00 00 00 00	 call	 ??0CDrawer@@QAE@XZ	; CDrawer::CDrawer
  0004c	c7 86 78 4e 00
	00 00 00 00 00	 mov	 DWORD PTR [esi+20088], OFFSET ??_7CPencilLineDrawer@@6B@

; 1349 : }

  00056	8b c6		 mov	 eax, esi
  00058	8b 4d f4	 mov	 ecx, DWORD PTR __$EHRec$[ebp]
  0005b	64 89 0d 00 00
	00 00		 mov	 DWORD PTR fs:0, ecx
  00062	59		 pop	 ecx
  00063	5e		 pop	 esi
  00064	8b e5		 mov	 esp, ebp
  00066	5d		 pop	 ebp
  00067	c2 08 00	 ret	 8
_TEXT	ENDS
;	COMDAT text$x
text$x	SEGMENT
__unwindfunclet$??0CPencilLine@@QAE@ABV?$CDequeList@VCCoordinate@@@@ABVCElementCommonEnvironment@@@Z$0:
  00000	8b 4d f0	 mov	 ecx, DWORD PTR _this$[ebp]
  00003	e9 00 00 00 00	 jmp	 ??1CMultiPointElement@@UAE@XZ
  00008	cc		 int	 3
  00009	cc		 int	 3
  0000a	cc		 int	 3
  0000b	cc		 int	 3
  0000c	cc		 int	 3
__ehhandler$??0CPencilLine@@QAE@ABV?$CDequeList@VCCoordinate@@@@ABVCElementCommonEnvironment@@@Z:
  0000d	90		 npad	 1
  0000e	90		 npad	 1
  0000f	8b 54 24 08	 mov	 edx, DWORD PTR [esp+8]
  00013	8d 42 0c	 lea	 eax, DWORD PTR [edx+12]
  00016	8b 4a f4	 mov	 ecx, DWORD PTR [edx-12]
  00019	33 c8		 xor	 ecx, eax
  0001b	e8 00 00 00 00	 call	 @__security_check_cookie@4
  00020	b8 00 00 00 00	 mov	 eax, OFFSET __ehfuncinfo$??0CPencilLine@@QAE@ABV?$CDequeList@VCCoordinate@@@@ABVCElementCommonEnvironment@@@Z
  00025	e9 00 00 00 00	 jmp	 ___CxxFrameHandler3
text$x	ENDS
??0CPencilLine@@QAE@ABV?$CDequeList@VCCoordinate@@@@ABVCElementCommonEnvironment@@@Z ENDP ; CPencilLine::CPencilLine
; Function compile flags: /Ogtp
; File D:\git\src\IBK\IBK_DRFN\ProjSrc\SrcChartEx\ChartAddIn\ChartAnalysisToolAddIn\AnalysisTool\Line.cpp
;	COMDAT ??0CPencilLine@@QAE@ABHPBVCPoints@@ABVCElementCommonEnvironment@@@Z
_TEXT	SEGMENT
_this$ = -16						; size = 4
__$EHRec$ = -12						; size = 12
_nPointsCount$ = 8					; size = 4
_pPointsList$ = 12					; size = 4
_environment$ = 16					; size = 4
??0CPencilLine@@QAE@ABHPBVCPoints@@ABVCElementCommonEnvironment@@@Z PROC ; CPencilLine::CPencilLine, COMDAT
; _this$ = ecx

; 1343 : {	

  00000	55		 push	 ebp
  00001	8b ec		 mov	 ebp, esp
  00003	6a ff		 push	 -1
  00005	68 00 00 00 00	 push	 __ehhandler$??0CPencilLine@@QAE@ABHPBVCPoints@@ABVCElementCommonEnvironment@@@Z
  0000a	64 a1 00 00 00
	00		 mov	 eax, DWORD PTR fs:0
  00010	50		 push	 eax
  00011	51		 push	 ecx
  00012	56		 push	 esi
  00013	a1 00 00 00 00	 mov	 eax, DWORD PTR ___security_cookie
  00018	33 c5		 xor	 eax, ebp
  0001a	50		 push	 eax
  0001b	8d 45 f4	 lea	 eax, DWORD PTR __$EHRec$[ebp]
  0001e	64 a3 00 00 00
	00		 mov	 DWORD PTR fs:0, eax
  00024	8b f1		 mov	 esi, ecx
  00026	89 75 f0	 mov	 DWORD PTR _this$[ebp], esi

; 1342 : 	CMultiPointElement(nPointsCount,pPointsList,environment)

  00029	ff 75 10	 push	 DWORD PTR _environment$[ebp]
  0002c	ff 75 0c	 push	 DWORD PTR _pPointsList$[ebp]
  0002f	ff 75 08	 push	 DWORD PTR _nPointsCount$[ebp]
  00032	e8 00 00 00 00	 call	 ??0CMultiPointElement@@QAE@ABHPBVCPoints@@ABVCElementCommonEnvironment@@@Z ; CMultiPointElement::CMultiPointElement
  00037	8d 8e 7c 4e 00
	00		 lea	 ecx, DWORD PTR [esi+20092]
  0003d	c7 45 fc 00 00
	00 00		 mov	 DWORD PTR __$EHRec$[ebp+8], 0

; 1343 : {	

  00044	c7 06 00 00 00
	00		 mov	 DWORD PTR [esi], OFFSET ??_7CPencilLine@@6B@
  0004a	e8 00 00 00 00	 call	 ??0CDrawer@@QAE@XZ	; CDrawer::CDrawer
  0004f	c7 86 78 4e 00
	00 00 00 00 00	 mov	 DWORD PTR [esi+20088], OFFSET ??_7CPencilLineDrawer@@6B@

; 1344 : }

  00059	8b c6		 mov	 eax, esi
  0005b	8b 4d f4	 mov	 ecx, DWORD PTR __$EHRec$[ebp]
  0005e	64 89 0d 00 00
	00 00		 mov	 DWORD PTR fs:0, ecx
  00065	59		 pop	 ecx
  00066	5e		 pop	 esi
  00067	8b e5		 mov	 esp, ebp
  00069	5d		 pop	 ebp
  0006a	c2 0c 00	 ret	 12			; 0000000cH
_TEXT	ENDS
;	COMDAT text$x
text$x	SEGMENT
__unwindfunclet$??0CPencilLine@@QAE@ABHPBVCPoints@@ABVCElementCommonEnvironment@@@Z$0:
  00000	8b 4d f0	 mov	 ecx, DWORD PTR _this$[ebp]
  00003	e9 00 00 00 00	 jmp	 ??1CMultiPointElement@@UAE@XZ
  00008	cc		 int	 3
  00009	cc		 int	 3
  0000a	cc		 int	 3
  0000b	cc		 int	 3
  0000c	cc		 int	 3
__ehhandler$??0CPencilLine@@QAE@ABHPBVCPoints@@ABVCElementCommonEnvironment@@@Z:
  0000d	90		 npad	 1
  0000e	90		 npad	 1
  0000f	8b 54 24 08	 mov	 edx, DWORD PTR [esp+8]
  00013	8d 42 0c	 lea	 eax, DWORD PTR [edx+12]
  00016	8b 4a f4	 mov	 ecx, DWORD PTR [edx-12]
  00019	33 c8		 xor	 ecx, eax
  0001b	e8 00 00 00 00	 call	 @__security_check_cookie@4
  00020	b8 00 00 00 00	 mov	 eax, OFFSET __ehfuncinfo$??0CPencilLine@@QAE@ABHPBVCPoints@@ABVCElementCommonEnvironment@@@Z
  00025	e9 00 00 00 00	 jmp	 ___CxxFrameHandler3
text$x	ENDS
??0CPencilLine@@QAE@ABHPBVCPoints@@ABVCElementCommonEnvironment@@@Z ENDP ; CPencilLine::CPencilLine
; Function compile flags: /Ogtp
; File D:\git\src\IBK\IBK_DRFN\ProjSrc\SrcChartEx\ChartAddIn\ChartAnalysisToolAddIn\AnalysisTool\Element.h
;	COMDAT ??_GCCandleBong@@UAEPAXI@Z
_TEXT	SEGMENT
___flags$ = 8						; size = 4
??_GCCandleBong@@UAEPAXI@Z PROC				; CCandleBong::`scalar deleting destructor', COMDAT
; _this$ = ecx
  00000	55		 push	 ebp
  00001	8b ec		 mov	 ebp, esp

; 31   : 	virtual ~CElement()	{}

  00003	56		 push	 esi
  00004	8b f1		 mov	 esi, ecx
  00006	8d 8e 84 00 00
	00		 lea	 ecx, DWORD PTR [esi+132]
  0000c	ff 15 00 00 00
	00		 call	 DWORD PTR __imp_??1?$CStringT@DV?$StrTraitMFC_DLL@DV?$ChTraitsCRT@D@ATL@@@@@ATL@@QAE@XZ
  00012	8d 4e 64	 lea	 ecx, DWORD PTR [esi+100]
  00015	ff 15 00 00 00
	00		 call	 DWORD PTR __imp_??1?$CStringT@DV?$StrTraitMFC_DLL@DV?$ChTraitsCRT@D@ATL@@@@@ATL@@QAE@XZ
  0001b	8d 4e 40	 lea	 ecx, DWORD PTR [esi+64]
  0001e	c7 06 00 00 00
	00		 mov	 DWORD PTR [esi], OFFSET ??_7CElement@@6B@
  00024	ff 15 00 00 00
	00		 call	 DWORD PTR __imp_??1?$CStringT@DV?$StrTraitMFC_DLL@DV?$ChTraitsCRT@D@ATL@@@@@ATL@@QAE@XZ
  0002a	8d 4e 3c	 lea	 ecx, DWORD PTR [esi+60]
  0002d	ff 15 00 00 00
	00		 call	 DWORD PTR __imp_??1?$CStringT@DV?$StrTraitMFC_DLL@DV?$ChTraitsCRT@D@ATL@@@@@ATL@@QAE@XZ
  00033	8d 4e 38	 lea	 ecx, DWORD PTR [esi+56]
  00036	ff 15 00 00 00
	00		 call	 DWORD PTR __imp_??1?$CStringT@DV?$StrTraitMFC_DLL@DV?$ChTraitsCRT@D@ATL@@@@@ATL@@QAE@XZ
  0003c	f6 45 08 01	 test	 BYTE PTR ___flags$[ebp], 1
  00040	74 0e		 je	 SHORT $LN25@scalar
  00042	68 b0 00 00 00	 push	 176			; 000000b0H
  00047	56		 push	 esi
  00048	e8 00 00 00 00	 call	 ??3@YAXPAXI@Z		; operator delete
  0004d	83 c4 08	 add	 esp, 8
$LN25@scalar:
  00050	8b c6		 mov	 eax, esi
  00052	5e		 pop	 esi
  00053	5d		 pop	 ebp
  00054	c2 04 00	 ret	 4
??_GCCandleBong@@UAEPAXI@Z ENDP				; CCandleBong::`scalar deleting destructor'
_TEXT	ENDS
; Function compile flags: /Ogtp
; File D:\git\src\IBK\IBK_DRFN\ProjSrc\SrcChartEx\ChartAddIn\ChartAnalysisToolAddIn\AnalysisTool\Line.cpp
; File C:\Program Files (x86)\Microsoft Visual Studio\2019\Community\VC\Tools\MSVC\14.29.30133\atlmfc\include\atltypes.h
; File D:\git\src\IBK\IBK_DRFN\ProjSrc\SrcChartEx\ChartAddIn\ChartAnalysisToolAddIn\AnalysisTool\Line.cpp
;	COMDAT ?GetModifyType@CCandleBong@@MBE?AW4ModifyType@CToolEnumData@@ABVCRect@@ABVCPoint@@11@Z
_TEXT	SEGMENT
_ptDrawingEnd$ = -28					; size = 8
_rcBong$ = -20						; size = 16
__$ArrayPad$ = -4					; size = 4
_region$ = 8						; size = 4
_drawingStartPt$ = 12					; size = 4
_drawingEndPt$ = 16					; size = 4
_point$ = 20						; size = 4
?GetModifyType@CCandleBong@@MBE?AW4ModifyType@CToolEnumData@@ABVCRect@@ABVCPoint@@11@Z PROC ; CCandleBong::GetModifyType, COMDAT
; _this$ = ecx

; 1319 : {

  00000	55		 push	 ebp
  00001	8b ec		 mov	 ebp, esp
  00003	83 ec 1c	 sub	 esp, 28			; 0000001cH
  00006	a1 00 00 00 00	 mov	 eax, DWORD PTR ___security_cookie
  0000b	33 c5		 xor	 eax, ebp
  0000d	89 45 fc	 mov	 DWORD PTR __$ArrayPad$[ebp], eax
  00010	53		 push	 ebx
  00011	8b 5d 14	 mov	 ebx, DWORD PTR _point$[ebp]
  00014	56		 push	 esi
  00015	8b 75 0c	 mov	 esi, DWORD PTR _drawingStartPt$[ebp]
  00018	57		 push	 edi
  00019	8b 7d 10	 mov	 edi, DWORD PTR _drawingEndPt$[ebp]

; 1320 : 	// 1.     .
; 1321 : 	CPoint ptDrawingEnd(drawingStartPt);
; 1322 : 	ptDrawingEnd.y = drawingEndPt.y;
; 1323 : 	CToolEnumData::ModifyType sidePointModifyType = GetModifyType_SidePoints( drawingStartPt, ptDrawingEnd, point);

  0001c	53		 push	 ebx
  0001d	8b 06		 mov	 eax, DWORD PTR [esi]
  0001f	89 45 e4	 mov	 DWORD PTR _ptDrawingEnd$[ebp], eax
  00022	8b 47 04	 mov	 eax, DWORD PTR [edi+4]
  00025	89 45 e8	 mov	 DWORD PTR _ptDrawingEnd$[ebp+4], eax
  00028	8d 45 e4	 lea	 eax, DWORD PTR _ptDrawingEnd$[ebp]
  0002b	50		 push	 eax
  0002c	56		 push	 esi
  0002d	e8 00 00 00 00	 call	 ?GetModifyType_SidePoints@CTwoPointElement@@IBE?AW4ModifyType@CToolEnumData@@ABVCPoint@@00@Z ; CTwoPointElement::GetModifyType_SidePoints

; 1324 : 	if( sidePointModifyType != CToolEnumData::MODIFY_NONE) 

  00032	85 c0		 test	 eax, eax
  00034	75 47		 jne	 SHORT $LN3@GetModifyT

; 1325 : 		return sidePointModifyType;
; 1326 : 
; 1327 : 	CRect rcBong;
; 1328 : 	rcBong.left = min(drawingStartPt.x,drawingEndPt.x);

  00036	8b 06		 mov	 eax, DWORD PTR [esi]
  00038	8b 0f		 mov	 ecx, DWORD PTR [edi]
  0003a	3b c1		 cmp	 eax, ecx
  0003c	7d 05		 jge	 SHORT $LN5@GetModifyT
  0003e	89 45 ec	 mov	 DWORD PTR _rcBong$[ebp], eax
  00041	eb 08		 jmp	 SHORT $LN7@GetModifyT
$LN5@GetModifyT:
  00043	89 4d ec	 mov	 DWORD PTR _rcBong$[ebp], ecx

; 1329 : 	rcBong.right = max(drawingStartPt.x,drawingEndPt.x);

  00046	89 45 f4	 mov	 DWORD PTR _rcBong$[ebp+8], eax
  00049	7f 03		 jg	 SHORT $LN8@GetModifyT
$LN7@GetModifyT:
  0004b	89 4d f4	 mov	 DWORD PTR _rcBong$[ebp+8], ecx
$LN8@GetModifyT:

; 1330 : 	rcBong.top = min(drawingStartPt.y,drawingEndPt.y);

  0004e	8b 46 04	 mov	 eax, DWORD PTR [esi+4]
  00051	8b 4f 04	 mov	 ecx, DWORD PTR [edi+4]
  00054	3b c1		 cmp	 eax, ecx
  00056	7d 05		 jge	 SHORT $LN9@GetModifyT
  00058	89 45 f0	 mov	 DWORD PTR _rcBong$[ebp+4], eax
  0005b	eb 08		 jmp	 SHORT $LN11@GetModifyT
$LN9@GetModifyT:
  0005d	89 4d f0	 mov	 DWORD PTR _rcBong$[ebp+4], ecx

; 1331 : 	rcBong.bottom = max(drawingStartPt.y,drawingEndPt.y);

  00060	89 45 f8	 mov	 DWORD PTR _rcBong$[ebp+12], eax
  00063	7f 03		 jg	 SHORT $LN12@GetModifyT
$LN11@GetModifyT:
  00065	89 4d f8	 mov	 DWORD PTR _rcBong$[ebp+12], ecx
$LN12@GetModifyT:
; File C:\Program Files (x86)\Microsoft Visual Studio\2019\Community\VC\Tools\MSVC\14.29.30133\atlmfc\include\atltypes.h

; 648  : 	return ::PtInRect(this, point);

  00068	ff 73 04	 push	 DWORD PTR [ebx+4]
  0006b	8d 45 ec	 lea	 eax, DWORD PTR _rcBong$[ebp]
  0006e	ff 33		 push	 DWORD PTR [ebx]
  00070	50		 push	 eax
  00071	ff 15 00 00 00
	00		 call	 DWORD PTR __imp__PtInRect@12
; File D:\git\src\IBK\IBK_DRFN\ProjSrc\SrcChartEx\ChartAddIn\ChartAnalysisToolAddIn\AnalysisTool\Line.cpp

; 1332 : 	if(rcBong.PtInRect(point))

  00077	f7 d8		 neg	 eax
  00079	1b c0		 sbb	 eax, eax
  0007b	f7 d8		 neg	 eax
$LN3@GetModifyT:

; 1333 : 		return CToolEnumData::MODIFY_CENTER;
; 1334 : 	
; 1335 : 	return CToolEnumData::MODIFY_NONE;
; 1336 : }

  0007d	8b 4d fc	 mov	 ecx, DWORD PTR __$ArrayPad$[ebp]
  00080	5f		 pop	 edi
  00081	5e		 pop	 esi
  00082	33 cd		 xor	 ecx, ebp
  00084	5b		 pop	 ebx
  00085	e8 00 00 00 00	 call	 @__security_check_cookie@4
  0008a	8b e5		 mov	 esp, ebp
  0008c	5d		 pop	 ebp
  0008d	c2 10 00	 ret	 16			; 00000010H
?GetModifyType@CCandleBong@@MBE?AW4ModifyType@CToolEnumData@@ABVCRect@@ABVCPoint@@11@Z ENDP ; CCandleBong::GetModifyType
_TEXT	ENDS
; Function compile flags: /Ogtp
; File D:\git\src\IBK\IBK_DRFN\ProjSrc\SrcChartEx\ChartAddIn\ChartAnalysisToolAddIn\AnalysisTool\Line.cpp
;	COMDAT ?ElementInRegion@CCandleBong@@MBE_NABVCRect@@ABVCPoint@@11@Z
_TEXT	SEGMENT
_region$ = 8						; size = 4
_startPoint$ = 12					; size = 4
_endPoint$ = 16						; size = 4
_point$ = 20						; size = 4
?ElementInRegion@CCandleBong@@MBE_NABVCRect@@ABVCPoint@@11@Z PROC ; CCandleBong::ElementInRegion, COMDAT
; _this$ = ecx

; 1306 : {

  00000	55		 push	 ebp
  00001	8b ec		 mov	 ebp, esp
  00003	56		 push	 esi

; 1307 : 	if(CTwoPointElement::ElementInRegion(region, startPoint, endPoint, point))

  00004	8b 75 0c	 mov	 esi, DWORD PTR _startPoint$[ebp]
  00007	57		 push	 edi
  00008	ff 75 14	 push	 DWORD PTR _point$[ebp]
  0000b	8b 7d 08	 mov	 edi, DWORD PTR _region$[ebp]
  0000e	ff 75 10	 push	 DWORD PTR _endPoint$[ebp]
  00011	56		 push	 esi
  00012	57		 push	 edi
  00013	e8 00 00 00 00	 call	 ?ElementInRegion@CTwoPointElement@@MBE_NABVCRect@@ABVCPoint@@11@Z ; CTwoPointElement::ElementInRegion
  00018	84 c0		 test	 al, al
  0001a	75 0f		 jne	 SHORT $LN3@ElementInR

; 1308 : 		return true;
; 1309 : 
; 1310 : 	if(startPoint.x > region.right)

  0001c	8b 06		 mov	 eax, DWORD PTR [esi]
  0001e	3b 47 08	 cmp	 eax, DWORD PTR [edi+8]
  00021	7e 08		 jle	 SHORT $LN3@ElementInR

; 1311 : 		return false;

  00023	5f		 pop	 edi
  00024	32 c0		 xor	 al, al

; 1314 : }

  00026	5e		 pop	 esi
  00027	5d		 pop	 ebp
  00028	c2 10 00	 ret	 16			; 00000010H
$LN3@ElementInR:
  0002b	5f		 pop	 edi

; 1312 : 
; 1313 : 	return true;

  0002c	b0 01		 mov	 al, 1

; 1314 : }

  0002e	5e		 pop	 esi
  0002f	5d		 pop	 ebp
  00030	c2 10 00	 ret	 16			; 00000010H
?ElementInRegion@CCandleBong@@MBE_NABVCRect@@ABVCPoint@@11@Z ENDP ; CCandleBong::ElementInRegion
_TEXT	ENDS
; Function compile flags: /Ogtp
; File D:\git\src\IBK\IBK_DRFN\ProjSrc\SrcChartEx\ChartAddIn\ChartAnalysisToolAddIn\AnalysisTool\Line.cpp
;	COMDAT ?GetTwoPointDrawer@CCandleBong@@MAEAAVCTwoPointDrawer@@XZ
_TEXT	SEGMENT
?GetTwoPointDrawer@CCandleBong@@MAEAAVCTwoPointDrawer@@XZ PROC ; CCandleBong::GetTwoPointDrawer, COMDAT
; _this$ = ecx

; 1299 : 	return m_candleBongDrawer;

  00000	8d 81 90 00 00
	00		 lea	 eax, DWORD PTR [ecx+144]

; 1300 : }

  00006	c3		 ret	 0
?GetTwoPointDrawer@CCandleBong@@MAEAAVCTwoPointDrawer@@XZ ENDP ; CCandleBong::GetTwoPointDrawer
_TEXT	ENDS
; Function compile flags: /Ogtp
; File D:\git\src\IBK\IBK_DRFN\ProjSrc\SrcChartEx\ChartAddIn\ChartAnalysisToolAddIn\AnalysisTool\Line.cpp
;	COMDAT ?GetElementType@CCandleBong@@UBE?AW4ElementType@CToolEnumData@@XZ
_TEXT	SEGMENT
?GetElementType@CCandleBong@@UBE?AW4ElementType@CToolEnumData@@XZ PROC ; CCandleBong::GetElementType, COMDAT
; _this$ = ecx

; 1293 : 	return CToolEnumData::Candle_Bong;

  00000	b8 1f 00 00 00	 mov	 eax, 31			; 0000001fH

; 1294 : }

  00005	c3		 ret	 0
?GetElementType@CCandleBong@@UBE?AW4ElementType@CToolEnumData@@XZ ENDP ; CCandleBong::GetElementType
_TEXT	ENDS
; Function compile flags: /Ogtp
; File D:\git\src\IBK\IBK_DRFN\ProjSrc\SrcChartEx\ChartAddIn\ChartAnalysisToolAddIn\AnalysisTool\Line.cpp
;	COMDAT ??0CCandleBong@@QAE@ABVCCoordinate@@0ABVCElementCommonEnvironment@@@Z
_TEXT	SEGMENT
_this$ = -16						; size = 4
__$EHRec$ = -12						; size = 12
_point1$ = 8						; size = 4
_point2$ = 12						; size = 4
_environment$ = 16					; size = 4
??0CCandleBong@@QAE@ABVCCoordinate@@0ABVCElementCommonEnvironment@@@Z PROC ; CCandleBong::CCandleBong, COMDAT
; _this$ = ecx

; 1288 : {

  00000	55		 push	 ebp
  00001	8b ec		 mov	 ebp, esp
  00003	6a ff		 push	 -1
  00005	68 00 00 00 00	 push	 __ehhandler$??0CCandleBong@@QAE@ABVCCoordinate@@0ABVCElementCommonEnvironment@@@Z
  0000a	64 a1 00 00 00
	00		 mov	 eax, DWORD PTR fs:0
  00010	50		 push	 eax
  00011	51		 push	 ecx
  00012	56		 push	 esi
  00013	a1 00 00 00 00	 mov	 eax, DWORD PTR ___security_cookie
  00018	33 c5		 xor	 eax, ebp
  0001a	50		 push	 eax
  0001b	8d 45 f4	 lea	 eax, DWORD PTR __$EHRec$[ebp]
  0001e	64 a3 00 00 00
	00		 mov	 DWORD PTR fs:0, eax
  00024	8b f1		 mov	 esi, ecx
  00026	89 75 f0	 mov	 DWORD PTR _this$[ebp], esi

; 1287 : 	CTwoPointElement(point1, point2, environment)

  00029	ff 75 10	 push	 DWORD PTR _environment$[ebp]
  0002c	ff 75 0c	 push	 DWORD PTR _point2$[ebp]
  0002f	ff 75 08	 push	 DWORD PTR _point1$[ebp]
  00032	e8 00 00 00 00	 call	 ??0CTwoPointElement@@QAE@ABVCCoordinate@@0ABVCElementCommonEnvironment@@@Z ; CTwoPointElement::CTwoPointElement

; 1288 : {

  00037	c7 06 00 00 00
	00		 mov	 DWORD PTR [esi], OFFSET ??_7CCandleBong@@6B@
  0003d	8d 8e 98 00 00
	00		 lea	 ecx, DWORD PTR [esi+152]
  00043	c7 45 fc 00 00
	00 00		 mov	 DWORD PTR __$EHRec$[ebp+8], 0
  0004a	c7 86 94 00 00
	00 00 00 00 00	 mov	 DWORD PTR [esi+148], OFFSET ??_8CCandleBongDrawer@@7B@
  00054	e8 00 00 00 00	 call	 ??0CDrawer@@QAE@XZ	; CDrawer::CDrawer
  00059	c7 86 90 00 00
	00 00 00 00 00	 mov	 DWORD PTR [esi+144], OFFSET ??_7CCandleBongDrawer@@6B@

; 1289 : }

  00063	8b c6		 mov	 eax, esi
  00065	8b 4d f4	 mov	 ecx, DWORD PTR __$EHRec$[ebp]
  00068	64 89 0d 00 00
	00 00		 mov	 DWORD PTR fs:0, ecx
  0006f	59		 pop	 ecx
  00070	5e		 pop	 esi
  00071	8b e5		 mov	 esp, ebp
  00073	5d		 pop	 ebp
  00074	c2 0c 00	 ret	 12			; 0000000cH
  00077	cc		 int	 3
  00078	cc		 int	 3
  00079	cc		 int	 3
  0007a	cc		 int	 3
  0007b	cc		 int	 3
_TEXT	ENDS
;	COMDAT text$x
text$x	SEGMENT
__ehhandler$??0CCandleBong@@QAE@ABVCCoordinate@@0ABVCElementCommonEnvironment@@@Z:
  00000	90		 npad	 1
  00001	90		 npad	 1
  00002	8b 54 24 08	 mov	 edx, DWORD PTR [esp+8]
  00006	8d 42 0c	 lea	 eax, DWORD PTR [edx+12]
  00009	8b 4a f4	 mov	 ecx, DWORD PTR [edx-12]
  0000c	33 c8		 xor	 ecx, eax
  0000e	e8 00 00 00 00	 call	 @__security_check_cookie@4
  00013	b8 00 00 00 00	 mov	 eax, OFFSET __ehfuncinfo$??0CCandleBong@@QAE@ABVCCoordinate@@0ABVCElementCommonEnvironment@@@Z
  00018	e9 00 00 00 00	 jmp	 ___CxxFrameHandler3
text$x	ENDS
??0CCandleBong@@QAE@ABVCCoordinate@@0ABVCElementCommonEnvironment@@@Z ENDP ; CCandleBong::CCandleBong
; Function compile flags: /Ogtp
; File D:\git\src\IBK\IBK_DRFN\ProjSrc\SrcChartEx\ChartAddIn\ChartAnalysisToolAddIn\AnalysisTool\Element.h
;	COMDAT ??_GCCandleLine@@UAEPAXI@Z
_TEXT	SEGMENT
___flags$ = 8						; size = 4
??_GCCandleLine@@UAEPAXI@Z PROC				; CCandleLine::`scalar deleting destructor', COMDAT
; _this$ = ecx
  00000	55		 push	 ebp
  00001	8b ec		 mov	 ebp, esp

; 31   : 	virtual ~CElement()	{}

  00003	56		 push	 esi
  00004	8b f1		 mov	 esi, ecx
  00006	8d 4e 64	 lea	 ecx, DWORD PTR [esi+100]
  00009	ff 15 00 00 00
	00		 call	 DWORD PTR __imp_??1?$CStringT@DV?$StrTraitMFC_DLL@DV?$ChTraitsCRT@D@ATL@@@@@ATL@@QAE@XZ
  0000f	8d 4e 40	 lea	 ecx, DWORD PTR [esi+64]
  00012	c7 06 00 00 00
	00		 mov	 DWORD PTR [esi], OFFSET ??_7CElement@@6B@
  00018	ff 15 00 00 00
	00		 call	 DWORD PTR __imp_??1?$CStringT@DV?$StrTraitMFC_DLL@DV?$ChTraitsCRT@D@ATL@@@@@ATL@@QAE@XZ
  0001e	8d 4e 3c	 lea	 ecx, DWORD PTR [esi+60]
  00021	ff 15 00 00 00
	00		 call	 DWORD PTR __imp_??1?$CStringT@DV?$StrTraitMFC_DLL@DV?$ChTraitsCRT@D@ATL@@@@@ATL@@QAE@XZ
  00027	8d 4e 38	 lea	 ecx, DWORD PTR [esi+56]
  0002a	ff 15 00 00 00
	00		 call	 DWORD PTR __imp_??1?$CStringT@DV?$StrTraitMFC_DLL@DV?$ChTraitsCRT@D@ATL@@@@@ATL@@QAE@XZ
  00030	f6 45 08 01	 test	 BYTE PTR ___flags$[ebp], 1
  00034	74 0e		 je	 SHORT $LN22@scalar
  00036	68 98 00 00 00	 push	 152			; 00000098H
  0003b	56		 push	 esi
  0003c	e8 00 00 00 00	 call	 ??3@YAXPAXI@Z		; operator delete
  00041	83 c4 08	 add	 esp, 8
$LN22@scalar:
  00044	8b c6		 mov	 eax, esi
  00046	5e		 pop	 esi
  00047	5d		 pop	 ebp
  00048	c2 04 00	 ret	 4
??_GCCandleLine@@UAEPAXI@Z ENDP				; CCandleLine::`scalar deleting destructor'
_TEXT	ENDS
; Function compile flags: /Ogtp
; File D:\git\src\IBK\IBK_DRFN\ProjSrc\SrcChartEx\ChartAddIn\ChartAnalysisToolAddIn\AnalysisTool\Line.cpp
; File C:\Program Files (x86)\Microsoft Visual Studio\2019\Community\VC\Tools\MSVC\14.29.30133\atlmfc\include\atltypes.h
; File D:\git\src\IBK\IBK_DRFN\ProjSrc\SrcChartEx\ChartAddIn\ChartAnalysisToolAddIn\AnalysisTool\Line.cpp
; File C:\Program Files (x86)\Microsoft Visual Studio\2019\Community\VC\Tools\MSVC\14.29.30133\atlmfc\include\atltypes.h
; File D:\git\src\IBK\IBK_DRFN\ProjSrc\SrcChartEx\ChartAddIn\ChartAnalysisToolAddIn\AnalysisTool\Line.cpp
; File C:\Program Files (x86)\Microsoft Visual Studio\2019\Community\VC\Tools\MSVC\14.29.30133\atlmfc\include\atltypes.h
; File D:\git\src\IBK\IBK_DRFN\ProjSrc\SrcChartEx\ChartAddIn\ChartAnalysisToolAddIn\AnalysisTool\Line.cpp
; File C:\Program Files (x86)\Microsoft Visual Studio\2019\Community\VC\Tools\MSVC\14.29.30133\atlmfc\include\atltypes.h
; File D:\git\src\IBK\IBK_DRFN\ProjSrc\SrcChartEx\ChartAddIn\ChartAnalysisToolAddIn\AnalysisTool\Line.cpp
;	COMDAT ?PointInElementSelectableRegion@CCandleLine@@ABE_NABVCRect@@ABVCPoint@@1@Z
_TEXT	SEGMENT
$T1 = -16						; size = 8
$T2 = -8						; size = 8
_region$ = 8						; size = 4
_regionPt$ = 12						; size = 4
_point$ = 16						; size = 4
?PointInElementSelectableRegion@CCandleLine@@ABE_NABVCRect@@ABVCPoint@@1@Z PROC ; CCandleLine::PointInElementSelectableRegion, COMDAT
; _this$ = ecx

; 1278 : {

  00000	55		 push	 ebp
  00001	8b ec		 mov	 ebp, esp
  00003	83 ec 10	 sub	 esp, 16			; 00000010H
  00006	56		 push	 esi
; File C:\Program Files (x86)\Microsoft Visual Studio\2019\Community\VC\Tools\MSVC\14.29.30133\atlmfc\include\atltypes.h

; 408  : 	x = initX;

  00007	8b 75 08	 mov	 esi, DWORD PTR _region$[ebp]
; File D:\git\src\IBK\IBK_DRFN\ProjSrc\SrcChartEx\ChartAddIn\ChartAnalysisToolAddIn\AnalysisTool\Line.cpp

; 1279 : 	return CElement::PointInElementSelectableRegion(CPoint(region.left, regionPt.y), CPoint(region.right, regionPt.y), point);

  0000a	ff 75 10	 push	 DWORD PTR _point$[ebp]
; File C:\Program Files (x86)\Microsoft Visual Studio\2019\Community\VC\Tools\MSVC\14.29.30133\atlmfc\include\atltypes.h

; 408  : 	x = initX;

  0000d	8b 46 08	 mov	 eax, DWORD PTR [esi+8]
  00010	89 45 f8	 mov	 DWORD PTR $T2[ebp], eax

; 409  : 	y = initY;

  00013	8b 45 0c	 mov	 eax, DWORD PTR _regionPt$[ebp]
  00016	8b 50 04	 mov	 edx, DWORD PTR [eax+4]

; 408  : 	x = initX;

  00019	8b 06		 mov	 eax, DWORD PTR [esi]
  0001b	89 45 f0	 mov	 DWORD PTR $T1[ebp], eax
; File D:\git\src\IBK\IBK_DRFN\ProjSrc\SrcChartEx\ChartAddIn\ChartAnalysisToolAddIn\AnalysisTool\Line.cpp

; 1279 : 	return CElement::PointInElementSelectableRegion(CPoint(region.left, regionPt.y), CPoint(region.right, regionPt.y), point);

  0001e	8d 45 f8	 lea	 eax, DWORD PTR $T2[ebp]
  00021	50		 push	 eax
  00022	8d 45 f0	 lea	 eax, DWORD PTR $T1[ebp]
; File C:\Program Files (x86)\Microsoft Visual Studio\2019\Community\VC\Tools\MSVC\14.29.30133\atlmfc\include\atltypes.h

; 409  : 	y = initY;

  00025	89 55 fc	 mov	 DWORD PTR $T2[ebp+4], edx
; File D:\git\src\IBK\IBK_DRFN\ProjSrc\SrcChartEx\ChartAddIn\ChartAnalysisToolAddIn\AnalysisTool\Line.cpp

; 1279 : 	return CElement::PointInElementSelectableRegion(CPoint(region.left, regionPt.y), CPoint(region.right, regionPt.y), point);

  00028	50		 push	 eax
; File C:\Program Files (x86)\Microsoft Visual Studio\2019\Community\VC\Tools\MSVC\14.29.30133\atlmfc\include\atltypes.h

; 409  : 	y = initY;

  00029	89 55 f4	 mov	 DWORD PTR $T1[ebp+4], edx
; File D:\git\src\IBK\IBK_DRFN\ProjSrc\SrcChartEx\ChartAddIn\ChartAnalysisToolAddIn\AnalysisTool\Line.cpp

; 1279 : 	return CElement::PointInElementSelectableRegion(CPoint(region.left, regionPt.y), CPoint(region.right, regionPt.y), point);

  0002c	e8 00 00 00 00	 call	 ?PointInElementSelectableRegion@CElement@@IBE_NABVCPoint@@00@Z ; CElement::PointInElementSelectableRegion
  00031	5e		 pop	 esi

; 1280 : }

  00032	8b e5		 mov	 esp, ebp
  00034	5d		 pop	 ebp
  00035	c2 0c 00	 ret	 12			; 0000000cH
?PointInElementSelectableRegion@CCandleLine@@ABE_NABVCRect@@ABVCPoint@@1@Z ENDP ; CCandleLine::PointInElementSelectableRegion
_TEXT	ENDS
; Function compile flags: /Ogtp
; File D:\git\src\IBK\IBK_DRFN\ProjSrc\SrcChartEx\ChartAddIn\ChartAnalysisToolAddIn\AnalysisTool\Line.cpp
;	COMDAT ?GetModifyType@CCandleLine@@MBE?AW4ModifyType@CToolEnumData@@ABVCDisplayData@@ABVCPoint@@1@Z
_TEXT	SEGMENT
_ptEnd$ = -32						; size = 8
_displayData$GSCopy$1$ = -24				; size = 4
$T1 = -20						; size = 16
__$ArrayPad$ = -4					; size = 4
_displayData$ = 8					; size = 4
_elementDrawingPt$ = 12					; size = 4
_point$ = 16						; size = 4
?GetModifyType@CCandleLine@@MBE?AW4ModifyType@CToolEnumData@@ABVCDisplayData@@ABVCPoint@@1@Z PROC ; CCandleLine::GetModifyType, COMDAT
; _this$ = ecx

; 1262 : {

  00000	55		 push	 ebp
  00001	8b ec		 mov	 ebp, esp
  00003	83 ec 20	 sub	 esp, 32			; 00000020H
  00006	a1 00 00 00 00	 mov	 eax, DWORD PTR ___security_cookie
  0000b	33 c5		 xor	 eax, ebp
  0000d	89 45 fc	 mov	 DWORD PTR __$ArrayPad$[ebp], eax
  00010	8b 45 08	 mov	 eax, DWORD PTR _displayData$[ebp]
  00013	53		 push	 ebx
  00014	8b 5d 10	 mov	 ebx, DWORD PTR _point$[ebp]
  00017	56		 push	 esi
  00018	8b 75 0c	 mov	 esi, DWORD PTR _elementDrawingPt$[ebp]
  0001b	57		 push	 edi

; 1263 : 	CToolEnumData::ModifyType pointModifyType = GetModifyType_Point( elementDrawingPt, point);

  0001c	53		 push	 ebx
  0001d	56		 push	 esi
  0001e	8b f9		 mov	 edi, ecx
  00020	89 45 e8	 mov	 DWORD PTR _displayData$GSCopy$1$[ebp], eax
  00023	e8 00 00 00 00	 call	 ?GetModifyType_Point@COnePointElement@@IBE?AW4ModifyType@CToolEnumData@@ABVCPoint@@0@Z ; COnePointElement::GetModifyType_Point

; 1264 : 	if( pointModifyType != CToolEnumData::MODIFY_NONE) 

  00028	85 c0		 test	 eax, eax
  0002a	75 33		 jne	 SHORT $LN3@GetModifyT

; 1265 : 		return pointModifyType;
; 1266 : 
; 1267 : 	CPoint ptEnd(elementDrawingPt);

  0002c	8b 06		 mov	 eax, DWORD PTR [esi]
  0002e	8b 4e 04	 mov	 ecx, DWORD PTR [esi+4]
  00031	89 45 e0	 mov	 DWORD PTR _ptEnd$[ebp], eax

; 1268 : 	ptEnd.x = displayData.GetDisplayRegion().right;

  00034	8d 45 ec	 lea	 eax, DWORD PTR $T1[ebp]
  00037	89 4d e4	 mov	 DWORD PTR _ptEnd$[ebp+4], ecx
  0003a	8b 4d e8	 mov	 ecx, DWORD PTR _displayData$GSCopy$1$[ebp]
  0003d	50		 push	 eax
  0003e	e8 00 00 00 00	 call	 ?GetDisplayRegion@CDisplayData@@QBE?AVCRect@@XZ ; CDisplayData::GetDisplayRegion

; 1269 : 	if(CElement::PointInElementSelectableRegion(elementDrawingPt,ptEnd, point))

  00043	53		 push	 ebx
  00044	8b cf		 mov	 ecx, edi
  00046	8b 40 08	 mov	 eax, DWORD PTR [eax+8]
  00049	89 45 e0	 mov	 DWORD PTR _ptEnd$[ebp], eax
  0004c	8d 45 e0	 lea	 eax, DWORD PTR _ptEnd$[ebp]
  0004f	50		 push	 eax
  00050	56		 push	 esi
  00051	e8 00 00 00 00	 call	 ?PointInElementSelectableRegion@CElement@@IBE_NABVCPoint@@00@Z ; CElement::PointInElementSelectableRegion
  00056	33 c9		 xor	 ecx, ecx
  00058	84 c0		 test	 al, al
  0005a	0f 95 c1	 setne	 cl
  0005d	8b c1		 mov	 eax, ecx
$LN3@GetModifyT:

; 1270 : 		return CToolEnumData::MODIFY_CENTER;
; 1271 : 
; 1272 : 	return CToolEnumData::MODIFY_NONE;
; 1273 : }

  0005f	8b 4d fc	 mov	 ecx, DWORD PTR __$ArrayPad$[ebp]
  00062	5f		 pop	 edi
  00063	5e		 pop	 esi
  00064	33 cd		 xor	 ecx, ebp
  00066	5b		 pop	 ebx
  00067	e8 00 00 00 00	 call	 @__security_check_cookie@4
  0006c	8b e5		 mov	 esp, ebp
  0006e	5d		 pop	 ebp
  0006f	c2 0c 00	 ret	 12			; 0000000cH
?GetModifyType@CCandleLine@@MBE?AW4ModifyType@CToolEnumData@@ABVCDisplayData@@ABVCPoint@@1@Z ENDP ; CCandleLine::GetModifyType
_TEXT	ENDS
; Function compile flags: /Ogtp
; File D:\git\src\IBK\IBK_DRFN\ProjSrc\SrcChartEx\ChartAddIn\ChartAnalysisToolAddIn\AnalysisTool\Line.cpp
;	COMDAT ?GetOnePointDrawer@CCandleLine@@MAEAAVCOnePointDrawer@@XZ
_TEXT	SEGMENT
?GetOnePointDrawer@CCandleLine@@MAEAAVCOnePointDrawer@@XZ PROC ; CCandleLine::GetOnePointDrawer, COMDAT
; _this$ = ecx

; 1257 : 	return m_candleLineDrawer;

  00000	8d 41 7c	 lea	 eax, DWORD PTR [ecx+124]

; 1258 : }

  00003	c3		 ret	 0
?GetOnePointDrawer@CCandleLine@@MAEAAVCOnePointDrawer@@XZ ENDP ; CCandleLine::GetOnePointDrawer
_TEXT	ENDS
; Function compile flags: /Ogtp
; File D:\git\src\IBK\IBK_DRFN\ProjSrc\SrcChartEx\ChartAddIn\ChartAnalysisToolAddIn\AnalysisTool\Line.cpp
;	COMDAT ?GetTextPosition@CCandleLine@@MAEPAVCTextPosition@@XZ
_TEXT	SEGMENT
?GetTextPosition@CCandleLine@@MAEPAVCTextPosition@@XZ PROC ; CCandleLine::GetTextPosition, COMDAT
; _this$ = ecx

; 1252 : 	return &m_textPosition;

  00000	8d 41 70	 lea	 eax, DWORD PTR [ecx+112]

; 1253 : }

  00003	c3		 ret	 0
?GetTextPosition@CCandleLine@@MAEPAVCTextPosition@@XZ ENDP ; CCandleLine::GetTextPosition
_TEXT	ENDS
; Function compile flags: /Ogtp
; File D:\git\src\IBK\IBK_DRFN\ProjSrc\SrcChartEx\ChartAddIn\ChartAnalysisToolAddIn\AnalysisTool\Line.cpp
;	COMDAT ?GetTextPosition@CCandleLine@@MBEPBVCTextPosition@@XZ
_TEXT	SEGMENT
?GetTextPosition@CCandleLine@@MBEPBVCTextPosition@@XZ PROC ; CCandleLine::GetTextPosition, COMDAT
; _this$ = ecx

; 1247 : 	return &m_textPosition;

  00000	8d 41 70	 lea	 eax, DWORD PTR [ecx+112]

; 1248 : }

  00003	c3		 ret	 0
?GetTextPosition@CCandleLine@@MBEPBVCTextPosition@@XZ ENDP ; CCandleLine::GetTextPosition
_TEXT	ENDS
; Function compile flags: /Ogtp
; File D:\git\src\IBK\IBK_DRFN\ProjSrc\SrcChartEx\ChartAddIn\ChartAnalysisToolAddIn\AnalysisTool\Line.cpp
;	COMDAT ?ElementModify_Coordinate@CCandleLine@@UAEXABVCCoordinate@@W4ModifyType@CToolEnumData@@@Z
_TEXT	SEGMENT
$T1 = -8						; size = 8
$T2 = -8						; size = 8
_coordValue$ = 8					; size = 4
_eModifyType$ = 12					; size = 4
?ElementModify_Coordinate@CCandleLine@@UAEXABVCCoordinate@@W4ModifyType@CToolEnumData@@@Z PROC ; CCandleLine::ElementModify_Coordinate, COMDAT
; _this$ = ecx

; 1228 : {

  00000	55		 push	 ebp
  00001	8b ec		 mov	 ebp, esp

; 1229 : 	switch(eModifyType)

  00003	8b 45 0c	 mov	 eax, DWORD PTR _eModifyType$[ebp]
  00006	83 ec 08	 sub	 esp, 8
  00009	57		 push	 edi
  0000a	8b f9		 mov	 edi, ecx
  0000c	83 e8 01	 sub	 eax, 1
  0000f	74 05		 je	 SHORT $LN4@ElementMod
  00011	83 e8 01	 sub	 eax, 1
  00014	75 3c		 jne	 SHORT $LN6@ElementMod
$LN4@ElementMod:

; 1230 : 	{
; 1231 : 	case CToolEnumData::MODIFY_START:		
; 1232 : 	case CToolEnumData::MODIFY_CENTER:
; 1233 : 		COnePointElement::GetPoint().SetX(coordValue.GetX(),0);

  00016	8b 4d 08	 mov	 ecx, DWORD PTR _coordValue$[ebp]
  00019	e8 00 00 00 00	 call	 ?GetX@CCoordinate@@QBENXZ ; CCoordinate::GetX
  0001e	6a 00		 push	 0
  00020	8d 45 f8	 lea	 eax, DWORD PTR $T2[ebp]
  00023	8b cf		 mov	 ecx, edi
  00025	50		 push	 eax
  00026	dd 5d f8	 fstp	 QWORD PTR $T2[ebp]
  00029	e8 00 00 00 00	 call	 ?GetPoint@COnePointElement@@IAEAAVCCoordinate@@XZ ; COnePointElement::GetPoint
  0002e	8b c8		 mov	 ecx, eax
  00030	e8 00 00 00 00	 call	 ?SetX@CCoordinate@@QAEXABNH@Z ; CCoordinate::SetX

; 1234 : 		COnePointElement::GetPoint().SetY(coordValue.GetY());

  00035	8b 4d 08	 mov	 ecx, DWORD PTR _coordValue$[ebp]
  00038	e8 00 00 00 00	 call	 ?GetY@CCoordinate@@QBENXZ ; CCoordinate::GetY
  0003d	8d 45 f8	 lea	 eax, DWORD PTR $T1[ebp]
  00040	8b cf		 mov	 ecx, edi
  00042	50		 push	 eax
  00043	dd 5d f8	 fstp	 QWORD PTR $T1[ebp]
  00046	e8 00 00 00 00	 call	 ?GetPoint@COnePointElement@@IAEAAVCCoordinate@@XZ ; COnePointElement::GetPoint
  0004b	8b c8		 mov	 ecx, eax
  0004d	e8 00 00 00 00	 call	 ?SetY@CCoordinate@@QAEXABN@Z ; CCoordinate::SetY
$LN6@ElementMod:
  00052	5f		 pop	 edi

; 1235 : 		break;
; 1236 : 	default:
; 1237 : 		assert(false);
; 1238 : 	}	
; 1239 : }

  00053	8b e5		 mov	 esp, ebp
  00055	5d		 pop	 ebp
  00056	c2 08 00	 ret	 8
?ElementModify_Coordinate@CCandleLine@@UAEXABVCCoordinate@@W4ModifyType@CToolEnumData@@@Z ENDP ; CCandleLine::ElementModify_Coordinate
_TEXT	ENDS
; Function compile flags: /Ogtp
; File D:\git\src\IBK\IBK_DRFN\ProjSrc\SrcChartEx\ChartAddIn\ChartAnalysisToolAddIn\AnalysisTool\Line.cpp
;	COMDAT ?ElementModify_YValue@CCandleLine@@UAEXABVCElementModifyData@@@Z
_TEXT	SEGMENT
_elementModifyData$ = 8					; size = 4
?ElementModify_YValue@CCandleLine@@UAEXABVCElementModifyData@@@Z PROC ; CCandleLine::ElementModify_YValue, COMDAT
; _this$ = ecx

; 1243 : }

  00000	c2 04 00	 ret	 4
?ElementModify_YValue@CCandleLine@@UAEXABVCElementModifyData@@@Z ENDP ; CCandleLine::ElementModify_YValue
_TEXT	ENDS
; Function compile flags: /Ogtp
; File D:\git\src\IBK\IBK_DRFN\ProjSrc\SrcChartEx\ChartAddIn\ChartAnalysisToolAddIn\AnalysisTool\Line.cpp
;	COMDAT ?ElementModify@CCandleLine@@UAEXABVCElementModifyData@@@Z
_TEXT	SEGMENT
$T2 = -76						; size = 32
$T3 = -44						; size = 32
__$EHRec$ = -12						; size = 12
_elementModifyData$ = 8					; size = 4
?ElementModify@CCandleLine@@UAEXABVCElementModifyData@@@Z PROC ; CCandleLine::ElementModify, COMDAT
; _this$ = ecx

; 1210 : {

  00000	55		 push	 ebp
  00001	8b ec		 mov	 ebp, esp
  00003	6a ff		 push	 -1
  00005	68 00 00 00 00	 push	 __ehhandler$?ElementModify@CCandleLine@@UAEXABVCElementModifyData@@@Z
  0000a	64 a1 00 00 00
	00		 mov	 eax, DWORD PTR fs:0
  00010	50		 push	 eax
  00011	83 ec 40	 sub	 esp, 64			; 00000040H
  00014	56		 push	 esi
  00015	57		 push	 edi
  00016	a1 00 00 00 00	 mov	 eax, DWORD PTR ___security_cookie
  0001b	33 c5		 xor	 eax, ebp
  0001d	50		 push	 eax
  0001e	8d 45 f4	 lea	 eax, DWORD PTR __$EHRec$[ebp]
  00021	64 a3 00 00 00
	00		 mov	 DWORD PTR fs:0, eax
  00027	8b f1		 mov	 esi, ecx

; 1211 : 	assert(elementModifyData.GetModifyType() == CToolEnumData::MODIFY_START || 
; 1212 : 			elementModifyData.GetModifyType() == CToolEnumData::MODIFY_CENTER);
; 1213 : 
; 1214 : 	switch(elementModifyData.GetModifyType())

  00029	8b 7d 08	 mov	 edi, DWORD PTR _elementModifyData$[ebp]
  0002c	8b cf		 mov	 ecx, edi
  0002e	e8 00 00 00 00	 call	 ?GetModifyType@CElementModifyData@@QBE?AW4ModifyType@CToolEnumData@@XZ ; CElementModifyData::GetModifyType
  00033	83 e8 01	 sub	 eax, 1
  00036	74 2c		 je	 SHORT $LN5@ElementMod
  00038	83 e8 01	 sub	 eax, 1
  0003b	75 52		 jne	 SHORT $LN6@ElementMod

; 1215 : 	{
; 1216 : 	case CToolEnumData::MODIFY_START:		
; 1217 : 		COnePointElement::SetPoint(elementModifyData.GetModifyPoint(COnePointElement::GetPoint()));

  0003d	8b ce		 mov	 ecx, esi
  0003f	e8 00 00 00 00	 call	 ?GetPoint@COnePointElement@@IAEAAVCCoordinate@@XZ ; COnePointElement::GetPoint
  00044	50		 push	 eax
  00045	8d 45 d4	 lea	 eax, DWORD PTR $T3[ebp]
  00048	8b cf		 mov	 ecx, edi
  0004a	50		 push	 eax
  0004b	e8 00 00 00 00	 call	 ?GetModifyPoint@CElementModifyData@@QBE?AVCCoordinate@@ABV2@@Z ; CElementModifyData::GetModifyPoint
  00050	50		 push	 eax
  00051	8b ce		 mov	 ecx, esi
  00053	c7 45 fc 00 00
	00 00		 mov	 DWORD PTR __$EHRec$[ebp+8], 0
  0005a	e8 00 00 00 00	 call	 ?SetPoint@COnePointElement@@IAEXABVCCoordinate@@@Z ; COnePointElement::SetPoint
  0005f	8d 4d e8	 lea	 ecx, DWORD PTR $T3[ebp+20]

; 1218 : 		break;

  00062	eb 25		 jmp	 SHORT $LN17@ElementMod
$LN5@ElementMod:

; 1219 : 	case CToolEnumData::MODIFY_CENTER:
; 1220 : 		COnePointElement::SetPoint(elementModifyData.GetModifyPoint(COnePointElement::GetPoint()));

  00064	8b ce		 mov	 ecx, esi
  00066	e8 00 00 00 00	 call	 ?GetPoint@COnePointElement@@IAEAAVCCoordinate@@XZ ; COnePointElement::GetPoint
  0006b	50		 push	 eax
  0006c	8d 45 b4	 lea	 eax, DWORD PTR $T2[ebp]
  0006f	8b cf		 mov	 ecx, edi
  00071	50		 push	 eax
  00072	e8 00 00 00 00	 call	 ?GetModifyPoint@CElementModifyData@@QBE?AVCCoordinate@@ABV2@@Z ; CElementModifyData::GetModifyPoint
  00077	50		 push	 eax
  00078	8b ce		 mov	 ecx, esi
  0007a	c7 45 fc 01 00
	00 00		 mov	 DWORD PTR __$EHRec$[ebp+8], 1
  00081	e8 00 00 00 00	 call	 ?SetPoint@COnePointElement@@IAEXABVCCoordinate@@@Z ; COnePointElement::SetPoint
  00086	8d 4d c8	 lea	 ecx, DWORD PTR $T2[ebp+20]
$LN17@ElementMod:

; 1221 : 		break;
; 1222 : 	default:
; 1223 : 		assert(false);
; 1224 : 	}	
; 1225 : }

  00089	ff 15 00 00 00
	00		 call	 DWORD PTR __imp_??1?$CStringT@DV?$StrTraitMFC_DLL@DV?$ChTraitsCRT@D@ATL@@@@@ATL@@QAE@XZ
$LN6@ElementMod:
  0008f	8b 4d f4	 mov	 ecx, DWORD PTR __$EHRec$[ebp]
  00092	64 89 0d 00 00
	00 00		 mov	 DWORD PTR fs:0, ecx
  00099	59		 pop	 ecx
  0009a	5f		 pop	 edi
  0009b	5e		 pop	 esi
  0009c	8b e5		 mov	 esp, ebp
  0009e	5d		 pop	 ebp
  0009f	c2 04 00	 ret	 4
_TEXT	ENDS
;	COMDAT text$x
text$x	SEGMENT
__unwindfunclet$?ElementModify@CCandleLine@@UAEXABVCElementModifyData@@@Z$0:
  00000	8d 4d d4	 lea	 ecx, DWORD PTR $T3[ebp]
  00003	e9 00 00 00 00	 jmp	 ??1CCoordinate@@QAE@XZ
__unwindfunclet$?ElementModify@CCandleLine@@UAEXABVCElementModifyData@@@Z$1:
  00008	8d 4d b4	 lea	 ecx, DWORD PTR $T2[ebp]
  0000b	e9 00 00 00 00	 jmp	 ??1CCoordinate@@QAE@XZ
  00010	cc		 int	 3
  00011	cc		 int	 3
  00012	cc		 int	 3
  00013	cc		 int	 3
  00014	cc		 int	 3
__ehhandler$?ElementModify@CCandleLine@@UAEXABVCElementModifyData@@@Z:
  00015	90		 npad	 1
  00016	90		 npad	 1
  00017	8b 54 24 08	 mov	 edx, DWORD PTR [esp+8]
  0001b	8d 42 0c	 lea	 eax, DWORD PTR [edx+12]
  0001e	8b 4a b4	 mov	 ecx, DWORD PTR [edx-76]
  00021	33 c8		 xor	 ecx, eax
  00023	e8 00 00 00 00	 call	 @__security_check_cookie@4
  00028	b8 00 00 00 00	 mov	 eax, OFFSET __ehfuncinfo$?ElementModify@CCandleLine@@UAEXABVCElementModifyData@@@Z
  0002d	e9 00 00 00 00	 jmp	 ___CxxFrameHandler3
text$x	ENDS
?ElementModify@CCandleLine@@UAEXABVCElementModifyData@@@Z ENDP ; CCandleLine::ElementModify
; Function compile flags: /Ogtp
; File D:\git\src\IBK\IBK_DRFN\ProjSrc\SrcChartEx\ChartAddIn\ChartAnalysisToolAddIn\AnalysisTool\Line.cpp
;	COMDAT ?GetElementType@CCandleLine@@UBE?AW4ElementType@CToolEnumData@@XZ
_TEXT	SEGMENT
?GetElementType@CCandleLine@@UBE?AW4ElementType@CToolEnumData@@XZ PROC ; CCandleLine::GetElementType, COMDAT
; _this$ = ecx

; 1205 : 	return CToolEnumData::Candle_Line;

  00000	b8 1e 00 00 00	 mov	 eax, 30			; 0000001eH

; 1206 : }

  00005	c3		 ret	 0
?GetElementType@CCandleLine@@UBE?AW4ElementType@CToolEnumData@@XZ ENDP ; CCandleLine::GetElementType
_TEXT	ENDS
; Function compile flags: /Ogtp
; File D:\git\src\IBK\IBK_DRFN\ProjSrc\SrcChartEx\ChartAddIn\ChartAnalysisToolAddIn\AnalysisTool\Line.cpp
;	COMDAT ??0CCandleLine@@QAE@ABVCTextShowPosition@@ABVCCoordinate@@ABVCElementCommonEnvironment@@@Z
_TEXT	SEGMENT
_this$ = -16						; size = 4
__$EHRec$ = -12						; size = 12
_position$ = 8						; size = 4
_point$ = 12						; size = 4
_environment$ = 16					; size = 4
??0CCandleLine@@QAE@ABVCTextShowPosition@@ABVCCoordinate@@ABVCElementCommonEnvironment@@@Z PROC ; CCandleLine::CCandleLine, COMDAT
; _this$ = ecx

; 1199 : {

  00000	55		 push	 ebp
  00001	8b ec		 mov	 ebp, esp
  00003	6a ff		 push	 -1
  00005	68 00 00 00 00	 push	 __ehhandler$??0CCandleLine@@QAE@ABVCTextShowPosition@@ABVCCoordinate@@ABVCElementCommonEnvironment@@@Z
  0000a	64 a1 00 00 00
	00		 mov	 eax, DWORD PTR fs:0
  00010	50		 push	 eax
  00011	51		 push	 ecx
  00012	56		 push	 esi
  00013	a1 00 00 00 00	 mov	 eax, DWORD PTR ___security_cookie
  00018	33 c5		 xor	 eax, ebp
  0001a	50		 push	 eax
  0001b	8d 45 f4	 lea	 eax, DWORD PTR __$EHRec$[ebp]
  0001e	64 a3 00 00 00
	00		 mov	 DWORD PTR fs:0, eax
  00024	8b f1		 mov	 esi, ecx
  00026	89 75 f0	 mov	 DWORD PTR _this$[ebp], esi

; 1197 : 	COnePointElement(point, environment),

  00029	ff 75 10	 push	 DWORD PTR _environment$[ebp]
  0002c	ff 75 0c	 push	 DWORD PTR _point$[ebp]
  0002f	e8 00 00 00 00	 call	 ??0COnePointElement@@QAE@ABVCCoordinate@@ABVCElementCommonEnvironment@@@Z ; COnePointElement::COnePointElement

; 1198 : 	m_textPosition(position)

  00034	ff 75 08	 push	 DWORD PTR _position$[ebp]
  00037	8d 4e 70	 lea	 ecx, DWORD PTR [esi+112]
  0003a	c7 45 fc 00 00
	00 00		 mov	 DWORD PTR __$EHRec$[ebp+8], 0

; 1199 : {

  00041	c7 06 00 00 00
	00		 mov	 DWORD PTR [esi], OFFSET ??_7CCandleLine@@6B@
  00047	e8 00 00 00 00	 call	 ??0CTextShowPosition@@QAE@ABV0@@Z ; CTextShowPosition::CTextShowPosition
  0004c	6a 01		 push	 1
  0004e	8d 4e 7c	 lea	 ecx, DWORD PTR [esi+124]
  00051	e8 00 00 00 00	 call	 ??0CCandleLineDrawer@@QAE@XZ ; CCandleLineDrawer::CCandleLineDrawer

; 1200 : }

  00056	8b c6		 mov	 eax, esi
  00058	8b 4d f4	 mov	 ecx, DWORD PTR __$EHRec$[ebp]
  0005b	64 89 0d 00 00
	00 00		 mov	 DWORD PTR fs:0, ecx
  00062	59		 pop	 ecx
  00063	5e		 pop	 esi
  00064	8b e5		 mov	 esp, ebp
  00066	5d		 pop	 ebp
  00067	c2 0c 00	 ret	 12			; 0000000cH
_TEXT	ENDS
;	COMDAT text$x
text$x	SEGMENT
__unwindfunclet$??0CCandleLine@@QAE@ABVCTextShowPosition@@ABVCCoordinate@@ABVCElementCommonEnvironment@@@Z$0:
  00000	8b 4d f0	 mov	 ecx, DWORD PTR _this$[ebp]
  00003	e9 00 00 00 00	 jmp	 ??1COnePointElement@@UAE@XZ
  00008	cc		 int	 3
  00009	cc		 int	 3
  0000a	cc		 int	 3
  0000b	cc		 int	 3
  0000c	cc		 int	 3
__ehhandler$??0CCandleLine@@QAE@ABVCTextShowPosition@@ABVCCoordinate@@ABVCElementCommonEnvironment@@@Z:
  0000d	90		 npad	 1
  0000e	90		 npad	 1
  0000f	8b 54 24 08	 mov	 edx, DWORD PTR [esp+8]
  00013	8d 42 0c	 lea	 eax, DWORD PTR [edx+12]
  00016	8b 4a f4	 mov	 ecx, DWORD PTR [edx-12]
  00019	33 c8		 xor	 ecx, eax
  0001b	e8 00 00 00 00	 call	 @__security_check_cookie@4
  00020	b8 00 00 00 00	 mov	 eax, OFFSET __ehfuncinfo$??0CCandleLine@@QAE@ABVCTextShowPosition@@ABVCCoordinate@@ABVCElementCommonEnvironment@@@Z
  00025	e9 00 00 00 00	 jmp	 ___CxxFrameHandler3
text$x	ENDS
??0CCandleLine@@QAE@ABVCTextShowPosition@@ABVCCoordinate@@ABVCElementCommonEnvironment@@@Z ENDP ; CCandleLine::CCandleLine
; Function compile flags: /Ogtp
; File D:\git\src\IBK\IBK_DRFN\ProjSrc\SrcChartEx\ChartAddIn\ChartAnalysisToolAddIn\AnalysisTool\Element.h
;	COMDAT ??_GCAngleLine@@UAEPAXI@Z
_TEXT	SEGMENT
___flags$ = 8						; size = 4
??_GCAngleLine@@UAEPAXI@Z PROC				; CAngleLine::`scalar deleting destructor', COMDAT
; _this$ = ecx
  00000	55		 push	 ebp
  00001	8b ec		 mov	 ebp, esp

; 31   : 	virtual ~CElement()	{}

  00003	56		 push	 esi
  00004	8b f1		 mov	 esi, ecx
  00006	8d 8e 84 00 00
	00		 lea	 ecx, DWORD PTR [esi+132]
  0000c	ff 15 00 00 00
	00		 call	 DWORD PTR __imp_??1?$CStringT@DV?$StrTraitMFC_DLL@DV?$ChTraitsCRT@D@ATL@@@@@ATL@@QAE@XZ
  00012	8d 4e 64	 lea	 ecx, DWORD PTR [esi+100]
  00015	ff 15 00 00 00
	00		 call	 DWORD PTR __imp_??1?$CStringT@DV?$StrTraitMFC_DLL@DV?$ChTraitsCRT@D@ATL@@@@@ATL@@QAE@XZ
  0001b	8d 4e 40	 lea	 ecx, DWORD PTR [esi+64]
  0001e	c7 06 00 00 00
	00		 mov	 DWORD PTR [esi], OFFSET ??_7CElement@@6B@
  00024	ff 15 00 00 00
	00		 call	 DWORD PTR __imp_??1?$CStringT@DV?$StrTraitMFC_DLL@DV?$ChTraitsCRT@D@ATL@@@@@ATL@@QAE@XZ
  0002a	8d 4e 3c	 lea	 ecx, DWORD PTR [esi+60]
  0002d	ff 15 00 00 00
	00		 call	 DWORD PTR __imp_??1?$CStringT@DV?$StrTraitMFC_DLL@DV?$ChTraitsCRT@D@ATL@@@@@ATL@@QAE@XZ
  00033	8d 4e 38	 lea	 ecx, DWORD PTR [esi+56]
  00036	ff 15 00 00 00
	00		 call	 DWORD PTR __imp_??1?$CStringT@DV?$StrTraitMFC_DLL@DV?$ChTraitsCRT@D@ATL@@@@@ATL@@QAE@XZ
  0003c	f6 45 08 01	 test	 BYTE PTR ___flags$[ebp], 1
  00040	74 0e		 je	 SHORT $LN25@scalar
  00042	68 b8 00 00 00	 push	 184			; 000000b8H
  00047	56		 push	 esi
  00048	e8 00 00 00 00	 call	 ??3@YAXPAXI@Z		; operator delete
  0004d	83 c4 08	 add	 esp, 8
$LN25@scalar:
  00050	8b c6		 mov	 eax, esi
  00052	5e		 pop	 esi
  00053	5d		 pop	 ebp
  00054	c2 04 00	 ret	 4
??_GCAngleLine@@UAEPAXI@Z ENDP				; CAngleLine::`scalar deleting destructor'
_TEXT	ENDS
; Function compile flags: /Ogtp
; File D:\git\src\IBK\IBK_DRFN\ProjSrc\SrcChartEx\ChartAddIn\ChartAnalysisToolAddIn\AnalysisTool\Line.cpp
; File C:\Program Files (x86)\Microsoft Visual Studio\2019\Community\VC\Tools\MSVC\14.29.30133\atlmfc\include\atltypes.h
; File D:\git\src\IBK\IBK_DRFN\ProjSrc\SrcChartEx\ChartAddIn\ChartAnalysisToolAddIn\AnalysisTool\Line.cpp
; File C:\Program Files (x86)\Microsoft Visual Studio\2019\Community\VC\Tools\MSVC\14.29.30133\atlmfc\include\atltypes.h
; File D:\git\src\IBK\IBK_DRFN\ProjSrc\SrcChartEx\ChartAddIn\ChartAnalysisToolAddIn\AnalysisTool\Line.cpp
; File C:\Program Files (x86)\Microsoft Visual Studio\2019\Community\VC\Tools\MSVC\14.29.30133\atlmfc\include\atltypes.h
; File D:\git\src\IBK\IBK_DRFN\ProjSrc\SrcChartEx\ChartAddIn\ChartAnalysisToolAddIn\AnalysisTool\Line.cpp
; File C:\Program Files (x86)\Microsoft Visual Studio\2019\Community\VC\Tools\MSVC\14.29.30133\atlmfc\include\atltypes.h
; File D:\git\src\IBK\IBK_DRFN\ProjSrc\SrcChartEx\ChartAddIn\ChartAnalysisToolAddIn\AnalysisTool\Line.cpp
;	COMDAT ?GetModifyType@CAngleLine@@MBE?AW4ModifyType@CToolEnumData@@ABVCRect@@ABVCPoint@@11@Z
_TEXT	SEGMENT
$T2 = -160						; size = 72
$T3 = -160						; size = 72
tv479 = -88						; size = 8
_ptStart$ = -80						; size = 8
$T4 = -72						; size = 8
$T5 = -64						; size = 8
_ptTempEnd$ = -56					; size = 8
_p_ptCursor$GSCopy$1$ = -48				; size = 4
_p_rctGraphArea$GSCopy$1$ = -44				; size = 4
_bLeftExt$1$ = -40					; size = 4
_p_ptEnd$GSCopy$1$ = -36				; size = 4
_rctExtLineRect$ = -32					; size = 16
__$ArrayPad$ = -16					; size = 4
__$EHRec$ = -12						; size = 12
_p_rctGraphArea$ = 8					; size = 4
_p_ptStart$ = 12					; size = 4
_p_ptEnd$ = 16						; size = 4
_p_ptCursor$ = 20					; size = 4
?GetModifyType@CAngleLine@@MBE?AW4ModifyType@CToolEnumData@@ABVCRect@@ABVCPoint@@11@Z PROC ; CAngleLine::GetModifyType, COMDAT
; _this$ = ecx

; 1157 : {

  00000	55		 push	 ebp
  00001	8b ec		 mov	 ebp, esp
  00003	6a ff		 push	 -1
  00005	68 00 00 00 00	 push	 __ehhandler$?GetModifyType@CAngleLine@@MBE?AW4ModifyType@CToolEnumData@@ABVCRect@@ABVCPoint@@11@Z
  0000a	64 a1 00 00 00
	00		 mov	 eax, DWORD PTR fs:0
  00010	50		 push	 eax
  00011	81 ec 94 00 00
	00		 sub	 esp, 148		; 00000094H
  00017	a1 00 00 00 00	 mov	 eax, DWORD PTR ___security_cookie
  0001c	33 c5		 xor	 eax, ebp
  0001e	89 45 f0	 mov	 DWORD PTR __$ArrayPad$[ebp], eax
  00021	53		 push	 ebx
  00022	56		 push	 esi
  00023	57		 push	 edi
  00024	50		 push	 eax
  00025	8d 45 f4	 lea	 eax, DWORD PTR __$EHRec$[ebp]
  00028	64 a3 00 00 00
	00		 mov	 DWORD PTR fs:0, eax
  0002e	8b d9		 mov	 ebx, ecx
  00030	8b 45 08	 mov	 eax, DWORD PTR _p_rctGraphArea$[ebp]
  00033	8b 75 14	 mov	 esi, DWORD PTR _p_ptCursor$[ebp]
  00036	8b 7d 0c	 mov	 edi, DWORD PTR _p_ptStart$[ebp]

; 1158 : 	CToolEnumData::ModifyType sidePointModifyType = GetModifyType_SidePoints( p_ptStart, p_ptEnd, p_ptCursor);

  00039	56		 push	 esi
  0003a	89 45 d4	 mov	 DWORD PTR _p_rctGraphArea$GSCopy$1$[ebp], eax
  0003d	8b 45 10	 mov	 eax, DWORD PTR _p_ptEnd$[ebp]
  00040	50		 push	 eax
  00041	57		 push	 edi
  00042	89 45 dc	 mov	 DWORD PTR _p_ptEnd$GSCopy$1$[ebp], eax
  00045	89 75 d0	 mov	 DWORD PTR _p_ptCursor$GSCopy$1$[ebp], esi
  00048	e8 00 00 00 00	 call	 ?GetModifyType_SidePoints@CTwoPointElement@@IBE?AW4ModifyType@CToolEnumData@@ABVCPoint@@00@Z ; CTwoPointElement::GetModifyType_SidePoints

; 1159 : 	if( sidePointModifyType != CToolEnumData::MODIFY_NONE) 

  0004d	85 c0		 test	 eax, eax
  0004f	0f 85 8a 01 00
	00		 jne	 $LN7@GetModifyT

; 1160 : 		return sidePointModifyType;
; 1161 : 
; 1162 : 	BOOL bLeftExt = GetCommonEnvironment().IsLeftLineExt();

  00055	8d 85 60 ff ff
	ff		 lea	 eax, DWORD PTR $T3[ebp]
  0005b	8b cb		 mov	 ecx, ebx
  0005d	50		 push	 eax
  0005e	e8 00 00 00 00	 call	 ?GetCommonEnvironment@CElement@@QBE?AVCElementCommonEnvironment@@XZ ; CElement::GetCommonEnvironment
  00063	8b c8		 mov	 ecx, eax
  00065	c7 45 fc 00 00
	00 00		 mov	 DWORD PTR __$EHRec$[ebp+8], 0
  0006c	e8 00 00 00 00	 call	 ?IsLeftLineExt@CElementCommonEnvironment@@QBEHXZ ; CElementCommonEnvironment::IsLeftLineExt
  00071	8d 4d 98	 lea	 ecx, DWORD PTR $T3[ebp+56]
  00074	89 45 d8	 mov	 DWORD PTR _bLeftExt$1$[ebp], eax
  00077	c7 45 fc ff ff
	ff ff		 mov	 DWORD PTR __$EHRec$[ebp+8], -1
  0007e	ff 15 00 00 00
	00		 call	 DWORD PTR __imp_??1?$CStringT@DV?$StrTraitMFC_DLL@DV?$ChTraitsCRT@D@ATL@@@@@ATL@@QAE@XZ
  00084	8d 4d 94	 lea	 ecx, DWORD PTR $T3[ebp+52]
  00087	ff 15 00 00 00
	00		 call	 DWORD PTR __imp_??1?$CStringT@DV?$StrTraitMFC_DLL@DV?$ChTraitsCRT@D@ATL@@@@@ATL@@QAE@XZ
  0008d	8d 4d 90	 lea	 ecx, DWORD PTR $T3[ebp+48]
  00090	ff 15 00 00 00
	00		 call	 DWORD PTR __imp_??1?$CStringT@DV?$StrTraitMFC_DLL@DV?$ChTraitsCRT@D@ATL@@@@@ATL@@QAE@XZ

; 1163 : 	BOOL bRightExt = GetCommonEnvironment().IsRightLineExt();

  00096	8d 85 60 ff ff
	ff		 lea	 eax, DWORD PTR $T2[ebp]
  0009c	8b cb		 mov	 ecx, ebx
  0009e	50		 push	 eax
  0009f	e8 00 00 00 00	 call	 ?GetCommonEnvironment@CElement@@QBE?AVCElementCommonEnvironment@@XZ ; CElement::GetCommonEnvironment
  000a4	8b c8		 mov	 ecx, eax
  000a6	c7 45 fc 01 00
	00 00		 mov	 DWORD PTR __$EHRec$[ebp+8], 1
  000ad	e8 00 00 00 00	 call	 ?IsRightLineExt@CElementCommonEnvironment@@QBEHXZ ; CElementCommonEnvironment::IsRightLineExt
  000b2	8d 4d 98	 lea	 ecx, DWORD PTR $T2[ebp+56]
  000b5	c7 45 fc ff ff
	ff ff		 mov	 DWORD PTR __$EHRec$[ebp+8], -1
  000bc	ff 15 00 00 00
	00		 call	 DWORD PTR __imp_??1?$CStringT@DV?$StrTraitMFC_DLL@DV?$ChTraitsCRT@D@ATL@@@@@ATL@@QAE@XZ
  000c2	8d 4d 94	 lea	 ecx, DWORD PTR $T2[ebp+52]
  000c5	ff 15 00 00 00
	00		 call	 DWORD PTR __imp_??1?$CStringT@DV?$StrTraitMFC_DLL@DV?$ChTraitsCRT@D@ATL@@@@@ATL@@QAE@XZ
  000cb	8d 4d 90	 lea	 ecx, DWORD PTR $T2[ebp+48]
  000ce	ff 15 00 00 00
	00		 call	 DWORD PTR __imp_??1?$CStringT@DV?$StrTraitMFC_DLL@DV?$ChTraitsCRT@D@ATL@@@@@ATL@@QAE@XZ

; 1164 : 	
; 1165 : 	CToolEnumData::ModifyType modifyType;		
; 1166 : 	CRect rctExtLineRect = CElement::GetLineRect(p_rctGraphArea,p_ptStart,p_ptEnd,FALSE,bLeftExt);

  000d4	ff 75 d8	 push	 DWORD PTR _bLeftExt$1$[ebp]
  000d7	8d 45 e0	 lea	 eax, DWORD PTR _rctExtLineRect$[ebp]
  000da	8b cb		 mov	 ecx, ebx
  000dc	6a 00		 push	 0
  000de	ff 75 dc	 push	 DWORD PTR _p_ptEnd$GSCopy$1$[ebp]
  000e1	57		 push	 edi
  000e2	ff 75 d4	 push	 DWORD PTR _p_rctGraphArea$GSCopy$1$[ebp]
  000e5	50		 push	 eax
  000e6	e8 00 00 00 00	 call	 ?GetLineRect@CElement@@IBE?AVCRect@@ABV2@ABVCPoint@@1HH@Z ; CElement::GetLineRect

; 1167 : 	if( 0 < ( p_ptEnd.x - p_ptStart.x) * ( p_ptEnd.y - p_ptStart.y))

  000eb	8b 45 dc	 mov	 eax, DWORD PTR _p_ptEnd$GSCopy$1$[ebp]
  000ee	8b 48 04	 mov	 ecx, DWORD PTR [eax+4]
  000f1	8b 00		 mov	 eax, DWORD PTR [eax]
  000f3	2b 4f 04	 sub	 ecx, DWORD PTR [edi+4]
  000f6	2b 07		 sub	 eax, DWORD PTR [edi]
  000f8	0f af c8	 imul	 ecx, eax
  000fb	85 c9		 test	 ecx, ecx
  000fd	7e 18		 jle	 SHORT $LN4@GetModifyT

; 1168 : 	{
; 1169 : 		modifyType = GetModifyType_Line( rctExtLineRect.TopLeft(), rctExtLineRect.BottomRight(), p_ptCursor);

  000ff	56		 push	 esi
  00100	8d 45 e8	 lea	 eax, DWORD PTR _rctExtLineRect$[ebp+8]
  00103	8b cb		 mov	 ecx, ebx
  00105	50		 push	 eax
  00106	8d 45 e0	 lea	 eax, DWORD PTR _rctExtLineRect$[ebp]
  00109	50		 push	 eax
  0010a	e8 00 00 00 00	 call	 ?GetModifyType_Line@CTwoPointElement@@IBE?AW4ModifyType@CToolEnumData@@ABVCPoint@@00@Z ; CTwoPointElement::GetModifyType_Line

; 1170 : 		if(modifyType != CToolEnumData::MODIFY_NONE)

  0010f	85 c0		 test	 eax, eax
  00111	0f 85 c8 00 00
	00		 jne	 $LN7@GetModifyT
$LN4@GetModifyT:
; File C:\Program Files (x86)\Microsoft Visual Studio\2019\Community\VC\Tools\MSVC\14.29.30133\atlmfc\include\atltypes.h

; 408  : 	x = initX;

  00117	8b 45 e8	 mov	 eax, DWORD PTR _rctExtLineRect$[ebp+8]
; File D:\git\src\IBK\IBK_DRFN\ProjSrc\SrcChartEx\ChartAddIn\ChartAnalysisToolAddIn\AnalysisTool\Line.cpp

; 1174 : 	modifyType = GetModifyType_Line(CPoint( rctExtLineRect.left, rctExtLineRect.bottom),

  0011a	8b cb		 mov	 ecx, ebx
; File C:\Program Files (x86)\Microsoft Visual Studio\2019\Community\VC\Tools\MSVC\14.29.30133\atlmfc\include\atltypes.h

; 408  : 	x = initX;

  0011c	89 45 c0	 mov	 DWORD PTR $T5[ebp], eax

; 409  : 	y = initY;

  0011f	8b 45 e4	 mov	 eax, DWORD PTR _rctExtLineRect$[ebp+4]
  00122	89 45 c4	 mov	 DWORD PTR $T5[ebp+4], eax

; 408  : 	x = initX;

  00125	8b 45 e0	 mov	 eax, DWORD PTR _rctExtLineRect$[ebp]
  00128	89 45 b8	 mov	 DWORD PTR $T4[ebp], eax

; 409  : 	y = initY;

  0012b	8b 45 ec	 mov	 eax, DWORD PTR _rctExtLineRect$[ebp+12]
  0012e	89 45 bc	 mov	 DWORD PTR $T4[ebp+4], eax
; File D:\git\src\IBK\IBK_DRFN\ProjSrc\SrcChartEx\ChartAddIn\ChartAnalysisToolAddIn\AnalysisTool\Line.cpp

; 1174 : 	modifyType = GetModifyType_Line(CPoint( rctExtLineRect.left, rctExtLineRect.bottom),

  00131	8d 45 c0	 lea	 eax, DWORD PTR $T5[ebp]
  00134	56		 push	 esi
  00135	50		 push	 eax
  00136	8d 45 b8	 lea	 eax, DWORD PTR $T4[ebp]
  00139	50		 push	 eax
  0013a	e8 00 00 00 00	 call	 ?GetModifyType_Line@CTwoPointElement@@IBE?AW4ModifyType@CToolEnumData@@ABVCPoint@@00@Z ; CTwoPointElement::GetModifyType_Line

; 1175 : 									CPoint( rctExtLineRect.right, rctExtLineRect.top), p_ptCursor);
; 1176 : 	if(modifyType != CToolEnumData::MODIFY_NONE)

  0013f	85 c0		 test	 eax, eax
  00141	0f 85 98 00 00
	00		 jne	 $LN7@GetModifyT

; 1177 : 		return modifyType;
; 1178 : 	
; 1179 : 	CPoint ptStart(p_ptStart);	
; 1180 : 	CPoint ptEnd(p_ptEnd);	

  00147	8b 4d dc	 mov	 ecx, DWORD PTR _p_ptEnd$GSCopy$1$[ebp]
  0014a	8b 37		 mov	 esi, DWORD PTR [edi]
  0014c	8b 7f 04	 mov	 edi, DWORD PTR [edi+4]
  0014f	8b c7		 mov	 eax, edi

; 1181 : 	long lLength = (long)sqrt(pow(ptStart.x - ptEnd.x,2) + pow(ptStart.y - ptEnd.y,2));	

  00151	f2 0f 10 0d 00
	00 00 00	 movsd	 xmm1, QWORD PTR __real@4000000000000000
  00159	2b 41 04	 sub	 eax, DWORD PTR [ecx+4]
  0015c	89 75 b0	 mov	 DWORD PTR _ptStart$[ebp], esi
  0015f	89 7d b4	 mov	 DWORD PTR _ptStart$[ebp+4], edi
  00162	66 0f 6e c0	 movd	 xmm0, eax
  00166	f3 0f e6 c0	 cvtdq2pd xmm0, xmm0
  0016a	e8 00 00 00 00	 call	 __libm_sse2_pow_precise
  0016f	8b 4d dc	 mov	 ecx, DWORD PTR _p_ptEnd$GSCopy$1$[ebp]
  00172	8b c6		 mov	 eax, esi
  00174	f2 0f 10 0d 00
	00 00 00	 movsd	 xmm1, QWORD PTR __real@4000000000000000
  0017c	f2 0f 11 45 a8	 movsd	 QWORD PTR tv479[ebp], xmm0
  00181	2b 01		 sub	 eax, DWORD PTR [ecx]
  00183	66 0f 6e c0	 movd	 xmm0, eax
  00187	f3 0f e6 c0	 cvtdq2pd xmm0, xmm0
  0018b	e8 00 00 00 00	 call	 __libm_sse2_pow_precise
  00190	f2 0f 58 45 a8	 addsd	 xmm0, QWORD PTR tv479[ebp]
  00195	0f 57 c9	 xorps	 xmm1, xmm1
  00198	66 0f 2e c8	 ucomisd xmm1, xmm0
  0019c	77 06		 ja	 SHORT $LN30@GetModifyT
  0019e	f2 0f 51 c0	 sqrtsd	 xmm0, xmm0
  001a2	eb 05		 jmp	 SHORT $LN31@GetModifyT
$LN30@GetModifyT:
  001a4	e8 00 00 00 00	 call	 __libm_sse2_sqrt_precise
$LN31@GetModifyT:
  001a9	f2 0f 2c c0	 cvttsd2si eax, xmm0
; File C:\Program Files (x86)\Microsoft Visual Studio\2019\Community\VC\Tools\MSVC\14.29.30133\atlmfc\include\atltypes.h

; 409  : 	y = initY;

  001ad	89 7d cc	 mov	 DWORD PTR _ptTempEnd$[ebp+4], edi
; File D:\git\src\IBK\IBK_DRFN\ProjSrc\SrcChartEx\ChartAddIn\ChartAnalysisToolAddIn\AnalysisTool\Line.cpp

; 1181 : 	long lLength = (long)sqrt(pow(ptStart.x - ptEnd.x,2) + pow(ptStart.y - ptEnd.y,2));	

  001b0	03 c6		 add	 eax, esi

; 1183 : 	if(bLeftExt == TRUE)

  001b2	83 7d d8 01	 cmp	 DWORD PTR _bLeftExt$1$[ebp], 1
; File C:\Program Files (x86)\Microsoft Visual Studio\2019\Community\VC\Tools\MSVC\14.29.30133\atlmfc\include\atltypes.h

; 408  : 	x = initX;

  001b6	89 45 c8	 mov	 DWORD PTR _ptTempEnd$[ebp], eax
; File D:\git\src\IBK\IBK_DRFN\ProjSrc\SrcChartEx\ChartAddIn\ChartAnalysisToolAddIn\AnalysisTool\Line.cpp

; 1183 : 	if(bLeftExt == TRUE)

  001b9	75 09		 jne	 SHORT $LN6@GetModifyT

; 1184 : 	{
; 1185 : 		ptTempEnd.x = p_rctGraphArea.right;

  001bb	8b 45 d4	 mov	 eax, DWORD PTR _p_rctGraphArea$GSCopy$1$[ebp]
  001be	8b 40 08	 mov	 eax, DWORD PTR [eax+8]
  001c1	89 45 c8	 mov	 DWORD PTR _ptTempEnd$[ebp], eax
$LN6@GetModifyT:

; 1186 : 	}
; 1187 : 	if(CElement::PointInElementSelectableRegion(ptStart, ptTempEnd, p_ptCursor))

  001c4	ff 75 d0	 push	 DWORD PTR _p_ptCursor$GSCopy$1$[ebp]
  001c7	8d 45 c8	 lea	 eax, DWORD PTR _ptTempEnd$[ebp]
  001ca	8b cb		 mov	 ecx, ebx
  001cc	50		 push	 eax
  001cd	8d 45 b0	 lea	 eax, DWORD PTR _ptStart$[ebp]
  001d0	50		 push	 eax
  001d1	e8 00 00 00 00	 call	 ?PointInElementSelectableRegion@CElement@@IBE_NABVCPoint@@00@Z ; CElement::PointInElementSelectableRegion
  001d6	33 c9		 xor	 ecx, ecx
  001d8	84 c0		 test	 al, al
  001da	0f 95 c1	 setne	 cl
  001dd	8b c1		 mov	 eax, ecx
$LN7@GetModifyT:

; 1188 : 		return CToolEnumData::MODIFY_CENTER;
; 1189 : 	
; 1190 : 	return CToolEnumData::MODIFY_NONE;
; 1191 : }

  001df	8b 4d f4	 mov	 ecx, DWORD PTR __$EHRec$[ebp]
  001e2	64 89 0d 00 00
	00 00		 mov	 DWORD PTR fs:0, ecx
  001e9	59		 pop	 ecx
  001ea	5f		 pop	 edi
  001eb	5e		 pop	 esi
  001ec	5b		 pop	 ebx
  001ed	8b 4d f0	 mov	 ecx, DWORD PTR __$ArrayPad$[ebp]
  001f0	33 cd		 xor	 ecx, ebp
  001f2	e8 00 00 00 00	 call	 @__security_check_cookie@4
  001f7	8b e5		 mov	 esp, ebp
  001f9	5d		 pop	 ebp
  001fa	c2 10 00	 ret	 16			; 00000010H
_TEXT	ENDS
;	COMDAT text$x
text$x	SEGMENT
__unwindfunclet$?GetModifyType@CAngleLine@@MBE?AW4ModifyType@CToolEnumData@@ABVCRect@@ABVCPoint@@11@Z$0:
  00000	8d 8d 60 ff ff
	ff		 lea	 ecx, DWORD PTR $T3[ebp]
  00006	e9 00 00 00 00	 jmp	 ??1CElementCommonEnvironment@@QAE@XZ
__unwindfunclet$?GetModifyType@CAngleLine@@MBE?AW4ModifyType@CToolEnumData@@ABVCRect@@ABVCPoint@@11@Z$1:
  0000b	8d 8d 60 ff ff
	ff		 lea	 ecx, DWORD PTR $T2[ebp]
  00011	e9 00 00 00 00	 jmp	 ??1CElementCommonEnvironment@@QAE@XZ
  00016	cc		 int	 3
  00017	cc		 int	 3
  00018	cc		 int	 3
  00019	cc		 int	 3
  0001a	cc		 int	 3
__ehhandler$?GetModifyType@CAngleLine@@MBE?AW4ModifyType@CToolEnumData@@ABVCRect@@ABVCPoint@@11@Z:
  0001b	90		 npad	 1
  0001c	90		 npad	 1
  0001d	8b 54 24 08	 mov	 edx, DWORD PTR [esp+8]
  00021	8d 42 0c	 lea	 eax, DWORD PTR [edx+12]
  00024	8b 8a 5c ff ff
	ff		 mov	 ecx, DWORD PTR [edx-164]
  0002a	33 c8		 xor	 ecx, eax
  0002c	e8 00 00 00 00	 call	 @__security_check_cookie@4
  00031	8b 4a fc	 mov	 ecx, DWORD PTR [edx-4]
  00034	33 c8		 xor	 ecx, eax
  00036	e8 00 00 00 00	 call	 @__security_check_cookie@4
  0003b	b8 00 00 00 00	 mov	 eax, OFFSET __ehfuncinfo$?GetModifyType@CAngleLine@@MBE?AW4ModifyType@CToolEnumData@@ABVCRect@@ABVCPoint@@11@Z
  00040	e9 00 00 00 00	 jmp	 ___CxxFrameHandler3
text$x	ENDS
?GetModifyType@CAngleLine@@MBE?AW4ModifyType@CToolEnumData@@ABVCRect@@ABVCPoint@@11@Z ENDP ; CAngleLine::GetModifyType
; Function compile flags: /Ogtp
; File D:\git\src\IBK\IBK_DRFN\ProjSrc\SrcChartEx\ChartAddIn\ChartAnalysisToolAddIn\AnalysisTool\Line.cpp
;	COMDAT ?ElementInRegion@CAngleLine@@MBE_NABVCRect@@ABVCPoint@@11@Z
_TEXT	SEGMENT
_p_rctGraphArea$ = 8					; size = 4
_p_ptStart$ = 12					; size = 4
_p_ptEnd$ = 16						; size = 4
_p_ptCursor$ = 20					; size = 4
?ElementInRegion@CAngleLine@@MBE_NABVCRect@@ABVCPoint@@11@Z PROC ; CAngleLine::ElementInRegion, COMDAT
; _this$ = ecx

; 1141 : 	/*BOOL bLeftExt = GetCommonEnvironment().IsLeftLineExt();
; 1142 : 	BOOL bRightExt = GetCommonEnvironment().IsRightLineExt();
; 1143 : 
; 1144 : 	long lLength = (long)sqrt(pow(p_ptStart.x - p_ptEnd.x,2) + pow(p_ptStart.y - p_ptEnd.y,2));	
; 1145 : 	CPoint ptTempEnd(p_ptStart.x + lLength, p_ptEnd.y);	
; 1146 : 
; 1147 : 	CRect rctLineRect = CElement::GetLineRect( p_rctGraphArea, p_ptStart, ptTempEnd,FALSE,bLeftExt);
; 1148 : 	rctLineRect.InflateRect(1,1,1,1);
; 1149 : 	if( rctLineRect.Width()		< 4) rctLineRect.InflateRect( CSize( ( 4 - rctLineRect.Width()) / 2,	0));
; 1150 : 	if( rctLineRect.Height()	< 4) rctLineRect.InflateRect( CSize( 0,( 4 - rctLineRect.Height()) / 2));
; 1151 : 	return rctLineRect.PtInRect( p_ptCursor);*/
; 1152 : 
; 1153 : 	return true;

  00000	b0 01		 mov	 al, 1

; 1154 : }

  00002	c2 10 00	 ret	 16			; 00000010H
?ElementInRegion@CAngleLine@@MBE_NABVCRect@@ABVCPoint@@11@Z ENDP ; CAngleLine::ElementInRegion
_TEXT	ENDS
; Function compile flags: /Ogtp
; File D:\git\src\IBK\IBK_DRFN\ProjSrc\SrcChartEx\ChartAddIn\ChartAnalysisToolAddIn\AnalysisTool\Line.cpp
;	COMDAT ?GetTwoPointDrawer@CAngleLine@@MAEAAVCTwoPointDrawer@@XZ
_TEXT	SEGMENT
?GetTwoPointDrawer@CAngleLine@@MAEAAVCTwoPointDrawer@@XZ PROC ; CAngleLine::GetTwoPointDrawer, COMDAT
; _this$ = ecx

; 1136 : 	return m_angleLineDrawer;

  00000	8d 81 9c 00 00
	00		 lea	 eax, DWORD PTR [ecx+156]

; 1137 : }

  00006	c3		 ret	 0
?GetTwoPointDrawer@CAngleLine@@MAEAAVCTwoPointDrawer@@XZ ENDP ; CAngleLine::GetTwoPointDrawer
_TEXT	ENDS
; Function compile flags: /Ogtp
; File D:\git\src\IBK\IBK_DRFN\ProjSrc\SrcChartEx\ChartAddIn\ChartAnalysisToolAddIn\AnalysisTool\Line.cpp
;	COMDAT ?GetTextPosition@CAngleLine@@MAEPAVCTextPosition@@XZ
_TEXT	SEGMENT
?GetTextPosition@CAngleLine@@MAEPAVCTextPosition@@XZ PROC ; CAngleLine::GetTextPosition, COMDAT
; _this$ = ecx

; 1131 : 	return &m_textPosition;

  00000	8d 81 90 00 00
	00		 lea	 eax, DWORD PTR [ecx+144]

; 1132 : }

  00006	c3		 ret	 0
?GetTextPosition@CAngleLine@@MAEPAVCTextPosition@@XZ ENDP ; CAngleLine::GetTextPosition
_TEXT	ENDS
; Function compile flags: /Ogtp
; File D:\git\src\IBK\IBK_DRFN\ProjSrc\SrcChartEx\ChartAddIn\ChartAnalysisToolAddIn\AnalysisTool\Line.cpp
;	COMDAT ?GetTextPosition@CAngleLine@@MBEPBVCTextPosition@@XZ
_TEXT	SEGMENT
?GetTextPosition@CAngleLine@@MBEPBVCTextPosition@@XZ PROC ; CAngleLine::GetTextPosition, COMDAT
; _this$ = ecx

; 1126 : 	return &m_textPosition;

  00000	8d 81 90 00 00
	00		 lea	 eax, DWORD PTR [ecx+144]

; 1127 : }

  00006	c3		 ret	 0
?GetTextPosition@CAngleLine@@MBEPBVCTextPosition@@XZ ENDP ; CAngleLine::GetTextPosition
_TEXT	ENDS
; Function compile flags: /Ogtp
; File D:\git\src\IBK\IBK_DRFN\ProjSrc\SrcChartEx\ChartAddIn\ChartAnalysisToolAddIn\AnalysisTool\Line.cpp
;	COMDAT ?GetElementType@CAngleLine@@UBE?AW4ElementType@CToolEnumData@@XZ
_TEXT	SEGMENT
?GetElementType@CAngleLine@@UBE?AW4ElementType@CToolEnumData@@XZ PROC ; CAngleLine::GetElementType, COMDAT
; _this$ = ecx

; 1120 : 	return CToolEnumData::Angle_Line;

  00000	b8 1d 00 00 00	 mov	 eax, 29			; 0000001dH

; 1121 : }

  00005	c3		 ret	 0
?GetElementType@CAngleLine@@UBE?AW4ElementType@CToolEnumData@@XZ ENDP ; CAngleLine::GetElementType
_TEXT	ENDS
; Function compile flags: /Ogtp
; File D:\git\src\IBK\IBK_DRFN\ProjSrc\SrcChartEx\ChartAddIn\ChartAnalysisToolAddIn\AnalysisTool\Line.cpp
;	COMDAT ??0CAngleLine@@QAE@ABVCTextShowPosition@@ABVCCoordinate@@1ABVCElementCommonEnvironment@@@Z
_TEXT	SEGMENT
_this$ = -16						; size = 4
__$EHRec$ = -12						; size = 12
_position$ = 8						; size = 4
_point1$ = 12						; size = 4
_point2$ = 16						; size = 4
_environment$ = 20					; size = 4
??0CAngleLine@@QAE@ABVCTextShowPosition@@ABVCCoordinate@@1ABVCElementCommonEnvironment@@@Z PROC ; CAngleLine::CAngleLine, COMDAT
; _this$ = ecx

; 1114 : {

  00000	55		 push	 ebp
  00001	8b ec		 mov	 ebp, esp
  00003	6a ff		 push	 -1
  00005	68 00 00 00 00	 push	 __ehhandler$??0CAngleLine@@QAE@ABVCTextShowPosition@@ABVCCoordinate@@1ABVCElementCommonEnvironment@@@Z
  0000a	64 a1 00 00 00
	00		 mov	 eax, DWORD PTR fs:0
  00010	50		 push	 eax
  00011	51		 push	 ecx
  00012	56		 push	 esi
  00013	a1 00 00 00 00	 mov	 eax, DWORD PTR ___security_cookie
  00018	33 c5		 xor	 eax, ebp
  0001a	50		 push	 eax
  0001b	8d 45 f4	 lea	 eax, DWORD PTR __$EHRec$[ebp]
  0001e	64 a3 00 00 00
	00		 mov	 DWORD PTR fs:0, eax
  00024	8b f1		 mov	 esi, ecx
  00026	89 75 f0	 mov	 DWORD PTR _this$[ebp], esi

; 1112 : 			 CTwoPointElement(point1, point2, environment),

  00029	ff 75 14	 push	 DWORD PTR _environment$[ebp]
  0002c	ff 75 10	 push	 DWORD PTR _point2$[ebp]
  0002f	ff 75 0c	 push	 DWORD PTR _point1$[ebp]
  00032	e8 00 00 00 00	 call	 ??0CTwoPointElement@@QAE@ABVCCoordinate@@0ABVCElementCommonEnvironment@@@Z ; CTwoPointElement::CTwoPointElement

; 1113 : 			 m_textPosition(position)

  00037	ff 75 08	 push	 DWORD PTR _position$[ebp]
  0003a	8d 8e 90 00 00
	00		 lea	 ecx, DWORD PTR [esi+144]
  00040	c7 45 fc 00 00
	00 00		 mov	 DWORD PTR __$EHRec$[ebp+8], 0

; 1114 : {

  00047	c7 06 00 00 00
	00		 mov	 DWORD PTR [esi], OFFSET ??_7CAngleLine@@6B@
  0004d	e8 00 00 00 00	 call	 ??0CTextShowPosition@@QAE@ABV0@@Z ; CTextShowPosition::CTextShowPosition
  00052	6a 01		 push	 1
  00054	8d 8e 9c 00 00
	00		 lea	 ecx, DWORD PTR [esi+156]
  0005a	e8 00 00 00 00	 call	 ??0CAngleLineDrawer@@QAE@XZ ; CAngleLineDrawer::CAngleLineDrawer

; 1115 : 	
; 1116 : }

  0005f	8b c6		 mov	 eax, esi
  00061	8b 4d f4	 mov	 ecx, DWORD PTR __$EHRec$[ebp]
  00064	64 89 0d 00 00
	00 00		 mov	 DWORD PTR fs:0, ecx
  0006b	59		 pop	 ecx
  0006c	5e		 pop	 esi
  0006d	8b e5		 mov	 esp, ebp
  0006f	5d		 pop	 ebp
  00070	c2 10 00	 ret	 16			; 00000010H
_TEXT	ENDS
;	COMDAT text$x
text$x	SEGMENT
__unwindfunclet$??0CAngleLine@@QAE@ABVCTextShowPosition@@ABVCCoordinate@@1ABVCElementCommonEnvironment@@@Z$0:
  00000	8b 4d f0	 mov	 ecx, DWORD PTR _this$[ebp]
  00003	e9 00 00 00 00	 jmp	 ??1CTwoPointElement@@UAE@XZ
  00008	cc		 int	 3
  00009	cc		 int	 3
  0000a	cc		 int	 3
  0000b	cc		 int	 3
  0000c	cc		 int	 3
__ehhandler$??0CAngleLine@@QAE@ABVCTextShowPosition@@ABVCCoordinate@@1ABVCElementCommonEnvironment@@@Z:
  0000d	90		 npad	 1
  0000e	90		 npad	 1
  0000f	8b 54 24 08	 mov	 edx, DWORD PTR [esp+8]
  00013	8d 42 0c	 lea	 eax, DWORD PTR [edx+12]
  00016	8b 4a f4	 mov	 ecx, DWORD PTR [edx-12]
  00019	33 c8		 xor	 ecx, eax
  0001b	e8 00 00 00 00	 call	 @__security_check_cookie@4
  00020	b8 00 00 00 00	 mov	 eax, OFFSET __ehfuncinfo$??0CAngleLine@@QAE@ABVCTextShowPosition@@ABVCCoordinate@@1ABVCElementCommonEnvironment@@@Z
  00025	e9 00 00 00 00	 jmp	 ___CxxFrameHandler3
text$x	ENDS
??0CAngleLine@@QAE@ABVCTextShowPosition@@ABVCCoordinate@@1ABVCElementCommonEnvironment@@@Z ENDP ; CAngleLine::CAngleLine
; Function compile flags: /Ogtp
; File D:\git\src\IBK\IBK_DRFN\ProjSrc\SrcChartEx\ChartAddIn\ChartAnalysisToolAddIn\AnalysisTool\Element.h
;	COMDAT ??_GCRaffRegression@@UAEPAXI@Z
_TEXT	SEGMENT
___flags$ = 8						; size = 4
??_GCRaffRegression@@UAEPAXI@Z PROC			; CRaffRegression::`scalar deleting destructor', COMDAT
; _this$ = ecx
  00000	55		 push	 ebp
  00001	8b ec		 mov	 ebp, esp

; 31   : 	virtual ~CElement()	{}

  00003	56		 push	 esi
  00004	8b f1		 mov	 esi, ecx
  00006	8d 8e 84 00 00
	00		 lea	 ecx, DWORD PTR [esi+132]
  0000c	ff 15 00 00 00
	00		 call	 DWORD PTR __imp_??1?$CStringT@DV?$StrTraitMFC_DLL@DV?$ChTraitsCRT@D@ATL@@@@@ATL@@QAE@XZ
  00012	8d 4e 64	 lea	 ecx, DWORD PTR [esi+100]
  00015	ff 15 00 00 00
	00		 call	 DWORD PTR __imp_??1?$CStringT@DV?$StrTraitMFC_DLL@DV?$ChTraitsCRT@D@ATL@@@@@ATL@@QAE@XZ
  0001b	8d 4e 40	 lea	 ecx, DWORD PTR [esi+64]
  0001e	c7 06 00 00 00
	00		 mov	 DWORD PTR [esi], OFFSET ??_7CElement@@6B@
  00024	ff 15 00 00 00
	00		 call	 DWORD PTR __imp_??1?$CStringT@DV?$StrTraitMFC_DLL@DV?$ChTraitsCRT@D@ATL@@@@@ATL@@QAE@XZ
  0002a	8d 4e 3c	 lea	 ecx, DWORD PTR [esi+60]
  0002d	ff 15 00 00 00
	00		 call	 DWORD PTR __imp_??1?$CStringT@DV?$StrTraitMFC_DLL@DV?$ChTraitsCRT@D@ATL@@@@@ATL@@QAE@XZ
  00033	8d 4e 38	 lea	 ecx, DWORD PTR [esi+56]
  00036	ff 15 00 00 00
	00		 call	 DWORD PTR __imp_??1?$CStringT@DV?$StrTraitMFC_DLL@DV?$ChTraitsCRT@D@ATL@@@@@ATL@@QAE@XZ
  0003c	f6 45 08 01	 test	 BYTE PTR ___flags$[ebp], 1
  00040	74 0e		 je	 SHORT $LN25@scalar
  00042	68 b8 00 00 00	 push	 184			; 000000b8H
  00047	56		 push	 esi
  00048	e8 00 00 00 00	 call	 ??3@YAXPAXI@Z		; operator delete
  0004d	83 c4 08	 add	 esp, 8
$LN25@scalar:
  00050	8b c6		 mov	 eax, esi
  00052	5e		 pop	 esi
  00053	5d		 pop	 ebp
  00054	c2 04 00	 ret	 4
??_GCRaffRegression@@UAEPAXI@Z ENDP			; CRaffRegression::`scalar deleting destructor'
_TEXT	ENDS
; Function compile flags: /Ogtp
; File D:\git\src\IBK\IBK_DRFN\ProjSrc\SrcChartEx\ChartAddIn\ChartAnalysisToolAddIn\AnalysisTool\Line.cpp
; File C:\Program Files (x86)\Microsoft Visual Studio\2019\Community\VC\Tools\MSVC\14.29.30133\atlmfc\include\atltypes.h
; File D:\git\src\IBK\IBK_DRFN\ProjSrc\SrcChartEx\ChartAddIn\ChartAnalysisToolAddIn\AnalysisTool\Line.cpp
; File C:\Program Files (x86)\Microsoft Visual Studio\2019\Community\VC\Tools\MSVC\14.29.30133\atlmfc\include\atltypes.h
; File D:\git\src\IBK\IBK_DRFN\ProjSrc\SrcChartEx\ChartAddIn\ChartAnalysisToolAddIn\AnalysisTool\Line.cpp
; File C:\Program Files (x86)\Microsoft Visual Studio\2019\Community\VC\Tools\MSVC\14.29.30133\atlmfc\include\atltypes.h
; File D:\git\src\IBK\IBK_DRFN\ProjSrc\SrcChartEx\ChartAddIn\ChartAnalysisToolAddIn\AnalysisTool\Line.cpp
; File C:\Program Files (x86)\Microsoft Visual Studio\2019\Community\VC\Tools\MSVC\14.29.30133\atlmfc\include\atltypes.h
; File D:\git\src\IBK\IBK_DRFN\ProjSrc\SrcChartEx\ChartAddIn\ChartAnalysisToolAddIn\AnalysisTool\Line.cpp
; File C:\Program Files (x86)\Microsoft Visual Studio\2019\Community\VC\Tools\MSVC\14.29.30133\atlmfc\include\atltypes.h
; File D:\git\src\IBK\IBK_DRFN\ProjSrc\SrcChartEx\ChartAddIn\ChartAnalysisToolAddIn\AnalysisTool\Line.cpp
; File C:\Program Files (x86)\Microsoft Visual Studio\2019\Community\VC\Tools\MSVC\14.29.30133\atlmfc\include\atltypes.h
; File D:\git\src\IBK\IBK_DRFN\ProjSrc\SrcChartEx\ChartAddIn\ChartAnalysisToolAddIn\AnalysisTool\Line.cpp
; File C:\Program Files (x86)\Microsoft Visual Studio\2019\Community\VC\Tools\MSVC\14.29.30133\atlmfc\include\atltypes.h
; File D:\git\src\IBK\IBK_DRFN\ProjSrc\SrcChartEx\ChartAddIn\ChartAnalysisToolAddIn\AnalysisTool\Line.cpp
; File C:\Program Files (x86)\Microsoft Visual Studio\2019\Community\VC\Tools\MSVC\14.29.30133\atlmfc\include\atltypes.h
; File D:\git\src\IBK\IBK_DRFN\ProjSrc\SrcChartEx\ChartAddIn\ChartAnalysisToolAddIn\AnalysisTool\Line.cpp
; File C:\Program Files (x86)\Microsoft Visual Studio\2019\Community\VC\Tools\MSVC\14.29.30133\atlmfc\include\atltypes.h
; File D:\git\src\IBK\IBK_DRFN\ProjSrc\SrcChartEx\ChartAddIn\ChartAnalysisToolAddIn\AnalysisTool\Line.cpp
; File C:\Program Files (x86)\Microsoft Visual Studio\2019\Community\VC\Tools\MSVC\14.29.30133\atlmfc\include\atltypes.h
; File D:\git\src\IBK\IBK_DRFN\ProjSrc\SrcChartEx\ChartAddIn\ChartAnalysisToolAddIn\AnalysisTool\Line.cpp
; File C:\Program Files (x86)\Microsoft Visual Studio\2019\Community\VC\Tools\MSVC\14.29.30133\atlmfc\include\atltypes.h
; File D:\git\src\IBK\IBK_DRFN\ProjSrc\SrcChartEx\ChartAddIn\ChartAnalysisToolAddIn\AnalysisTool\Line.cpp
; File C:\Program Files (x86)\Microsoft Visual Studio\2019\Community\VC\Tools\MSVC\14.29.30133\atlmfc\include\atltypes.h
; File D:\git\src\IBK\IBK_DRFN\ProjSrc\SrcChartEx\ChartAddIn\ChartAnalysisToolAddIn\AnalysisTool\Line.cpp
; File C:\Program Files (x86)\Microsoft Visual Studio\2019\Community\VC\Tools\MSVC\14.29.30133\atlmfc\include\atltypes.h
; File D:\git\src\IBK\IBK_DRFN\ProjSrc\SrcChartEx\ChartAddIn\ChartAnalysisToolAddIn\AnalysisTool\Line.cpp
; File C:\Program Files (x86)\Microsoft Visual Studio\2019\Community\VC\Tools\MSVC\14.29.30133\atlmfc\include\atltypes.h
; File D:\git\src\IBK\IBK_DRFN\ProjSrc\SrcChartEx\ChartAddIn\ChartAnalysisToolAddIn\AnalysisTool\Line.cpp
; File C:\Program Files (x86)\Microsoft Visual Studio\2019\Community\VC\Tools\MSVC\14.29.30133\atlmfc\include\atltypes.h
; File D:\git\src\IBK\IBK_DRFN\ProjSrc\SrcChartEx\ChartAddIn\ChartAnalysisToolAddIn\AnalysisTool\Line.cpp
;	COMDAT ?GetModifyType@CRaffRegression@@MBE?AW4ModifyType@CToolEnumData@@ABVCRect@@ABVCPoint@@11@Z
_TEXT	SEGMENT
$T2 = -216						; size = 72
$T3 = -216						; size = 72
$T4 = -144						; size = 8
_point$GSCopy$1$ = -136					; size = 4
tv789 = -132						; size = 8
$T5 = -132						; size = 8
_bLeftExt$1$ = -124					; size = 4
_bRightExt$1$ = -120					; size = 4
_drawingEndPt$GSCopy$1$ = -116				; size = 4
$T6 = -112						; size = 8
$T7 = -112						; size = 8
$T8 = -112						; size = 8
tv777 = -104						; size = 8
tv517 = -104						; size = 8
$T9 = -104						; size = 8
tv248 = -104						; size = 8
_ptStart$ = -96						; size = 8
_ptEnd$ = -88						; size = 8
_region$GSCopy$1$ = -80					; size = 4
_drawingStartPt$GSCopy$1$ = -76				; size = 4
$T10 = -72						; size = 8
$T11 = -72						; size = 8
$T12 = -72						; size = 8
$T13 = -72						; size = 8
_rctExtLineRect$ = -64					; size = 16
$T14 = -48						; size = 32
$T15 = -32						; size = 16
$T16 = -32						; size = 16
__$ArrayPad$ = -16					; size = 4
__$EHRec$ = -12						; size = 12
_region$ = 8						; size = 4
_drawingStartPt$ = 12					; size = 4
_drawingEndPt$ = 16					; size = 4
_point$ = 20						; size = 4
?GetModifyType@CRaffRegression@@MBE?AW4ModifyType@CToolEnumData@@ABVCRect@@ABVCPoint@@11@Z PROC ; CRaffRegression::GetModifyType, COMDAT
; _this$ = ecx

; 1052 : {

  00000	55		 push	 ebp
  00001	8b ec		 mov	 ebp, esp
  00003	6a ff		 push	 -1
  00005	68 00 00 00 00	 push	 __ehhandler$?GetModifyType@CRaffRegression@@MBE?AW4ModifyType@CToolEnumData@@ABVCRect@@ABVCPoint@@11@Z
  0000a	64 a1 00 00 00
	00		 mov	 eax, DWORD PTR fs:0
  00010	50		 push	 eax
  00011	81 ec cc 00 00
	00		 sub	 esp, 204		; 000000ccH
  00017	a1 00 00 00 00	 mov	 eax, DWORD PTR ___security_cookie
  0001c	33 c5		 xor	 eax, ebp
  0001e	89 45 f0	 mov	 DWORD PTR __$ArrayPad$[ebp], eax
  00021	56		 push	 esi
  00022	57		 push	 edi
  00023	50		 push	 eax
  00024	8d 45 f4	 lea	 eax, DWORD PTR __$EHRec$[ebp]
  00027	64 a3 00 00 00
	00		 mov	 DWORD PTR fs:0, eax
  0002d	8b f9		 mov	 edi, ecx
  0002f	8b 75 14	 mov	 esi, DWORD PTR _point$[ebp]
  00032	8b 4d 10	 mov	 ecx, DWORD PTR _drawingEndPt$[ebp]
  00035	8b 45 08	 mov	 eax, DWORD PTR _region$[ebp]

; 1053 : 	// element 
; 1054 : 	CToolEnumData::ModifyType modifyType = CTwoPointElement::GetModifyType_SidePoints(drawingStartPt, drawingEndPt, point);

  00038	56		 push	 esi
  00039	51		 push	 ecx
  0003a	89 45 b0	 mov	 DWORD PTR _region$GSCopy$1$[ebp], eax
  0003d	8b 45 0c	 mov	 eax, DWORD PTR _drawingStartPt$[ebp]
  00040	89 4d 8c	 mov	 DWORD PTR _drawingEndPt$GSCopy$1$[ebp], ecx
  00043	8b cf		 mov	 ecx, edi
  00045	50		 push	 eax
  00046	89 45 b4	 mov	 DWORD PTR _drawingStartPt$GSCopy$1$[ebp], eax
  00049	89 b5 78 ff ff
	ff		 mov	 DWORD PTR _point$GSCopy$1$[ebp], esi
  0004f	e8 00 00 00 00	 call	 ?GetModifyType_SidePoints@CTwoPointElement@@IBE?AW4ModifyType@CToolEnumData@@ABVCPoint@@00@Z ; CTwoPointElement::GetModifyType_SidePoints

; 1055 : 	if(modifyType != CToolEnumData::MODIFY_NONE)

  00054	85 c0		 test	 eax, eax
  00056	0f 85 e7 02 00
	00		 jne	 $LN1@GetModifyT

; 1056 : 		return modifyType;
; 1057 : 
; 1058 : 	CPoint ptStart(drawingStartPt);

  0005c	8b 4d b4	 mov	 ecx, DWORD PTR _drawingStartPt$GSCopy$1$[ebp]

; 1059 : 	CPoint ptEnd(drawingStartPt);
; 1060 : 	ptStart.y = region.top;
; 1061 : 	ptEnd.y = region.bottom;
; 1062 : 	if(CElement::PointInElementSelectableRegion(ptStart, ptEnd, point))

  0005f	56		 push	 esi
  00060	8b 01		 mov	 eax, DWORD PTR [ecx]
  00062	8b 4d b0	 mov	 ecx, DWORD PTR _region$GSCopy$1$[ebp]
  00065	89 45 a0	 mov	 DWORD PTR _ptStart$[ebp], eax
  00068	89 45 a8	 mov	 DWORD PTR _ptEnd$[ebp], eax
  0006b	8b 41 04	 mov	 eax, DWORD PTR [ecx+4]
  0006e	89 45 a4	 mov	 DWORD PTR _ptStart$[ebp+4], eax
  00071	8b 41 0c	 mov	 eax, DWORD PTR [ecx+12]
  00074	8b cf		 mov	 ecx, edi
  00076	89 45 ac	 mov	 DWORD PTR _ptEnd$[ebp+4], eax
  00079	8d 45 a8	 lea	 eax, DWORD PTR _ptEnd$[ebp]
  0007c	50		 push	 eax
  0007d	8d 45 a0	 lea	 eax, DWORD PTR _ptStart$[ebp]
  00080	50		 push	 eax
  00081	e8 00 00 00 00	 call	 ?PointInElementSelectableRegion@CElement@@IBE_NABVCPoint@@00@Z ; CElement::PointInElementSelectableRegion
  00086	84 c0		 test	 al, al
  00088	0f 85 b0 02 00
	00		 jne	 $LN48@GetModifyT

; 1063 : 		return CToolEnumData::MODIFY_CENTER;
; 1064 : 
; 1065 : 	ptStart.x = drawingEndPt.x;

  0008e	8b 45 8c	 mov	 eax, DWORD PTR _drawingEndPt$GSCopy$1$[ebp]

; 1066 : 	ptEnd.x = drawingEndPt.x;
; 1067 : 	if(CElement::PointInElementSelectableRegion(ptStart, ptEnd, point))

  00091	8b cf		 mov	 ecx, edi
  00093	56		 push	 esi
  00094	8b 00		 mov	 eax, DWORD PTR [eax]
  00096	89 45 a0	 mov	 DWORD PTR _ptStart$[ebp], eax
  00099	89 45 a8	 mov	 DWORD PTR _ptEnd$[ebp], eax
  0009c	8d 45 a8	 lea	 eax, DWORD PTR _ptEnd$[ebp]
  0009f	50		 push	 eax
  000a0	8d 45 a0	 lea	 eax, DWORD PTR _ptStart$[ebp]
  000a3	50		 push	 eax
  000a4	e8 00 00 00 00	 call	 ?PointInElementSelectableRegion@CElement@@IBE_NABVCPoint@@00@Z ; CElement::PointInElementSelectableRegion
  000a9	84 c0		 test	 al, al
  000ab	0f 85 8d 02 00
	00		 jne	 $LN48@GetModifyT

; 1068 : 		return CToolEnumData::MODIFY_CENTER;
; 1069 : 
; 1070 : 	BOOL bLeftExt = GetCommonEnvironment().IsLeftLineExt();

  000b1	8d 85 28 ff ff
	ff		 lea	 eax, DWORD PTR $T3[ebp]
  000b7	8b cf		 mov	 ecx, edi
  000b9	50		 push	 eax
  000ba	e8 00 00 00 00	 call	 ?GetCommonEnvironment@CElement@@QBE?AVCElementCommonEnvironment@@XZ ; CElement::GetCommonEnvironment
  000bf	8b c8		 mov	 ecx, eax
  000c1	c7 45 fc 00 00
	00 00		 mov	 DWORD PTR __$EHRec$[ebp+8], 0
  000c8	e8 00 00 00 00	 call	 ?IsLeftLineExt@CElementCommonEnvironment@@QBEHXZ ; CElementCommonEnvironment::IsLeftLineExt
  000cd	8d 8d 60 ff ff
	ff		 lea	 ecx, DWORD PTR $T3[ebp+56]
  000d3	89 45 84	 mov	 DWORD PTR _bLeftExt$1$[ebp], eax
  000d6	c7 45 fc ff ff
	ff ff		 mov	 DWORD PTR __$EHRec$[ebp+8], -1
  000dd	ff 15 00 00 00
	00		 call	 DWORD PTR __imp_??1?$CStringT@DV?$StrTraitMFC_DLL@DV?$ChTraitsCRT@D@ATL@@@@@ATL@@QAE@XZ
  000e3	8d 8d 5c ff ff
	ff		 lea	 ecx, DWORD PTR $T3[ebp+52]
  000e9	ff 15 00 00 00
	00		 call	 DWORD PTR __imp_??1?$CStringT@DV?$StrTraitMFC_DLL@DV?$ChTraitsCRT@D@ATL@@@@@ATL@@QAE@XZ
  000ef	8d 8d 58 ff ff
	ff		 lea	 ecx, DWORD PTR $T3[ebp+48]
  000f5	ff 15 00 00 00
	00		 call	 DWORD PTR __imp_??1?$CStringT@DV?$StrTraitMFC_DLL@DV?$ChTraitsCRT@D@ATL@@@@@ATL@@QAE@XZ

; 1071 : 	BOOL bRightExt = GetCommonEnvironment().IsRightLineExt();

  000fb	8d 85 28 ff ff
	ff		 lea	 eax, DWORD PTR $T2[ebp]
  00101	8b cf		 mov	 ecx, edi
  00103	50		 push	 eax
  00104	e8 00 00 00 00	 call	 ?GetCommonEnvironment@CElement@@QBE?AVCElementCommonEnvironment@@XZ ; CElement::GetCommonEnvironment
  00109	8b c8		 mov	 ecx, eax
  0010b	c7 45 fc 01 00
	00 00		 mov	 DWORD PTR __$EHRec$[ebp+8], 1
  00112	e8 00 00 00 00	 call	 ?IsRightLineExt@CElementCommonEnvironment@@QBEHXZ ; CElementCommonEnvironment::IsRightLineExt
  00117	8d 8d 60 ff ff
	ff		 lea	 ecx, DWORD PTR $T2[ebp+56]
  0011d	89 45 88	 mov	 DWORD PTR _bRightExt$1$[ebp], eax
  00120	c7 45 fc ff ff
	ff ff		 mov	 DWORD PTR __$EHRec$[ebp+8], -1
  00127	ff 15 00 00 00
	00		 call	 DWORD PTR __imp_??1?$CStringT@DV?$StrTraitMFC_DLL@DV?$ChTraitsCRT@D@ATL@@@@@ATL@@QAE@XZ
  0012d	8d 8d 5c ff ff
	ff		 lea	 ecx, DWORD PTR $T2[ebp+52]
  00133	ff 15 00 00 00
	00		 call	 DWORD PTR __imp_??1?$CStringT@DV?$StrTraitMFC_DLL@DV?$ChTraitsCRT@D@ATL@@@@@ATL@@QAE@XZ
  00139	8d 8d 58 ff ff
	ff		 lea	 ecx, DWORD PTR $T2[ebp+48]
  0013f	ff 15 00 00 00
	00		 call	 DWORD PTR __imp_??1?$CStringT@DV?$StrTraitMFC_DLL@DV?$ChTraitsCRT@D@ATL@@@@@ATL@@QAE@XZ

; 1072 : 			
; 1073 : 	CRect rctExtLineRect = CElement::GetLineRect(region,drawingStartPt,drawingEndPt,bLeftExt,bRightExt);	

  00145	ff 75 88	 push	 DWORD PTR _bRightExt$1$[ebp]
  00148	8d 45 c0	 lea	 eax, DWORD PTR _rctExtLineRect$[ebp]
  0014b	8b cf		 mov	 ecx, edi
  0014d	ff 75 84	 push	 DWORD PTR _bLeftExt$1$[ebp]
  00150	ff 75 8c	 push	 DWORD PTR _drawingEndPt$GSCopy$1$[ebp]
  00153	ff 75 b4	 push	 DWORD PTR _drawingStartPt$GSCopy$1$[ebp]
  00156	ff 75 b0	 push	 DWORD PTR _region$GSCopy$1$[ebp]
  00159	50		 push	 eax
  0015a	e8 00 00 00 00	 call	 ?GetLineRect@CElement@@IBE?AVCRect@@ABV2@ABVCPoint@@1HH@Z ; CElement::GetLineRect
; File C:\Program Files (x86)\Microsoft Visual Studio\2019\Community\VC\Tools\MSVC\14.29.30133\atlmfc\include\atltypes.h

; 408  : 	x = initX;

  0015f	8b 45 c8	 mov	 eax, DWORD PTR _rctExtLineRect$[ebp+8]
; File D:\git\src\IBK\IBK_DRFN\ProjSrc\SrcChartEx\ChartAddIn\ChartAnalysisToolAddIn\AnalysisTool\Line.cpp

; 1074 : 	if(CElement::PointInElementSelectableRegion(CPoint(rctExtLineRect.left,rctExtLineRect.top),

  00162	8b cf		 mov	 ecx, edi
; File C:\Program Files (x86)\Microsoft Visual Studio\2019\Community\VC\Tools\MSVC\14.29.30133\atlmfc\include\atltypes.h

; 408  : 	x = initX;

  00164	89 45 90	 mov	 DWORD PTR $T8[ebp], eax

; 409  : 	y = initY;

  00167	8b 45 cc	 mov	 eax, DWORD PTR _rctExtLineRect$[ebp+12]
  0016a	89 45 94	 mov	 DWORD PTR $T8[ebp+4], eax

; 408  : 	x = initX;

  0016d	8b 45 c0	 mov	 eax, DWORD PTR _rctExtLineRect$[ebp]
  00170	89 45 b8	 mov	 DWORD PTR $T13[ebp], eax

; 409  : 	y = initY;

  00173	8b 45 c4	 mov	 eax, DWORD PTR _rctExtLineRect$[ebp+4]
  00176	89 45 bc	 mov	 DWORD PTR $T13[ebp+4], eax
; File D:\git\src\IBK\IBK_DRFN\ProjSrc\SrcChartEx\ChartAddIn\ChartAnalysisToolAddIn\AnalysisTool\Line.cpp

; 1074 : 	if(CElement::PointInElementSelectableRegion(CPoint(rctExtLineRect.left,rctExtLineRect.top),

  00179	8d 45 90	 lea	 eax, DWORD PTR $T8[ebp]
  0017c	56		 push	 esi
  0017d	50		 push	 eax
  0017e	8d 45 b8	 lea	 eax, DWORD PTR $T13[ebp]
  00181	50		 push	 eax
  00182	e8 00 00 00 00	 call	 ?PointInElementSelectableRegion@CElement@@IBE_NABVCPoint@@00@Z ; CElement::PointInElementSelectableRegion
  00187	84 c0		 test	 al, al
  00189	0f 85 af 01 00
	00		 jne	 $LN48@GetModifyT

; 1075 : 												CPoint(rctExtLineRect.right,rctExtLineRect.bottom), point))
; 1076 : 		return CToolEnumData::MODIFY_CENTER;
; 1077 : 	//modifyType = GetModifyType_Line(CPoint( rctExtLineRect.left, rctExtLineRect.bottom),
; 1078 : 	//								CPoint( rctExtLineRect.right, rctExtLineRect.top), point);	
; 1079 : 	//if(modifyType != CToolEnumData::MODIFY_NONE)
; 1080 : 	//	return modifyType;
; 1081 : 
; 1082 : 	if(m_raffRegressionDrawer.GetChannel() != 0.0)

  0018f	8d 8f 90 00 00
	00		 lea	 ecx, DWORD PTR [edi+144]
  00195	e8 00 00 00 00	 call	 ?GetChannel@CRaffRegressionDrawer@@QBENXZ ; CRaffRegressionDrawer::GetChannel
  0019a	dd 9d 7c ff ff
	ff		 fstp	 QWORD PTR tv789[ebp]
  001a0	f2 0f 10 85 7c
	ff ff ff	 movsd	 xmm0, QWORD PTR tv789[ebp]
  001a8	66 0f 2e 05 00
	00 00 00	 ucomisd xmm0, QWORD PTR __real@0000000000000000
  001b0	9f		 lahf
  001b1	f6 c4 44	 test	 ah, 68			; 00000044H
  001b4	0f 8b 80 01 00
	00		 jnp	 $LN8@GetModifyT

; 1083 : 	{
; 1084 : 		int nChannel = m_raffRegressionDrawer.GetChannel()*drawingStartPt.y/GetStartPoint().GetY();

  001ba	8d 45 d0	 lea	 eax, DWORD PTR $T14[ebp]
  001bd	8b cf		 mov	 ecx, edi
  001bf	50		 push	 eax
  001c0	e8 00 00 00 00	 call	 ?GetStartPoint@CTwoPointElement@@IBE?AVCCoordinate@@XZ ; CTwoPointElement::GetStartPoint
  001c5	8b f0		 mov	 esi, eax
  001c7	8d 8f 90 00 00
	00		 lea	 ecx, DWORD PTR [edi+144]
  001cd	c7 45 fc 02 00
	00 00		 mov	 DWORD PTR __$EHRec$[ebp+8], 2
  001d4	e8 00 00 00 00	 call	 ?GetChannel@CRaffRegressionDrawer@@QBENXZ ; CRaffRegressionDrawer::GetChannel
  001d9	8b 45 b4	 mov	 eax, DWORD PTR _drawingStartPt$GSCopy$1$[ebp]
  001dc	8b ce		 mov	 ecx, esi
  001de	dd 5d 98	 fstp	 QWORD PTR tv248[ebp]
  001e1	66 0f 6e 40 04	 movd	 xmm0, DWORD PTR [eax+4]
  001e6	f3 0f e6 c0	 cvtdq2pd xmm0, xmm0
  001ea	f2 0f 59 45 98	 mulsd	 xmm0, QWORD PTR tv248[ebp]
  001ef	f2 0f 11 45 98	 movsd	 QWORD PTR tv517[ebp], xmm0
  001f4	e8 00 00 00 00	 call	 ?GetY@CCoordinate@@QBENXZ ; CCoordinate::GetY
  001f9	dc 7d 98	 fdivr	 QWORD PTR tv517[ebp]
  001fc	8d 4d e4	 lea	 ecx, DWORD PTR $T14[ebp+20]
  001ff	c7 45 fc ff ff
	ff ff		 mov	 DWORD PTR __$EHRec$[ebp+8], -1
  00206	dd 5d 98	 fstp	 QWORD PTR tv777[ebp]
  00209	ff 15 00 00 00
	00		 call	 DWORD PTR __imp_??1?$CStringT@DV?$StrTraitMFC_DLL@DV?$ChTraitsCRT@D@ATL@@@@@ATL@@QAE@XZ

; 1085 : 		ptStart = drawingStartPt;

  0020f	8b 45 b4	 mov	 eax, DWORD PTR _drawingStartPt$GSCopy$1$[ebp]

; 1086 : 		ptEnd = drawingEndPt;

  00212	8b 4d 8c	 mov	 ecx, DWORD PTR _drawingEndPt$GSCopy$1$[ebp]

; 1087 : 		rctExtLineRect = CElement::GetLineRect(region,CPoint(ptStart.x,ptStart.y+nChannel),CPoint(ptEnd.x,ptEnd.y+nChannel),bLeftExt,bRightExt);	

  00215	ff 75 88	 push	 DWORD PTR _bRightExt$1$[ebp]
  00218	8b 10		 mov	 edx, DWORD PTR [eax]
  0021a	8b 70 04	 mov	 esi, DWORD PTR [eax+4]
  0021d	8b 01		 mov	 eax, DWORD PTR [ecx]
  0021f	8b 49 04	 mov	 ecx, DWORD PTR [ecx+4]
  00222	ff 75 84	 push	 DWORD PTR _bLeftExt$1$[ebp]
  00225	89 45 a8	 mov	 DWORD PTR _ptEnd$[ebp], eax
; File C:\Program Files (x86)\Microsoft Visual Studio\2019\Community\VC\Tools\MSVC\14.29.30133\atlmfc\include\atltypes.h

; 408  : 	x = initX;

  00228	89 45 b8	 mov	 DWORD PTR $T12[ebp], eax
  0022b	f2 0f 2c 45 98	 cvttsd2si eax, QWORD PTR tv777[ebp]
; File D:\git\src\IBK\IBK_DRFN\ProjSrc\SrcChartEx\ChartAddIn\ChartAnalysisToolAddIn\AnalysisTool\Line.cpp

; 1086 : 		ptEnd = drawingEndPt;

  00230	89 4d ac	 mov	 DWORD PTR _ptEnd$[ebp+4], ecx
  00233	89 75 a4	 mov	 DWORD PTR _ptStart$[ebp+4], esi
  00236	89 55 a0	 mov	 DWORD PTR _ptStart$[ebp], edx
; File C:\Program Files (x86)\Microsoft Visual Studio\2019\Community\VC\Tools\MSVC\14.29.30133\atlmfc\include\atltypes.h

; 408  : 	x = initX;

  00239	89 55 90	 mov	 DWORD PTR $T7[ebp], edx
  0023c	03 c8		 add	 ecx, eax
  0023e	03 f0		 add	 esi, eax
; File D:\git\src\IBK\IBK_DRFN\ProjSrc\SrcChartEx\ChartAddIn\ChartAnalysisToolAddIn\AnalysisTool\Line.cpp

; 1087 : 		rctExtLineRect = CElement::GetLineRect(region,CPoint(ptStart.x,ptStart.y+nChannel),CPoint(ptEnd.x,ptEnd.y+nChannel),bLeftExt,bRightExt);	

  00240	8d 45 b8	 lea	 eax, DWORD PTR $T12[ebp]
; File C:\Program Files (x86)\Microsoft Visual Studio\2019\Community\VC\Tools\MSVC\14.29.30133\atlmfc\include\atltypes.h

; 409  : 	y = initY;

  00243	89 4d bc	 mov	 DWORD PTR $T12[ebp+4], ecx
; File D:\git\src\IBK\IBK_DRFN\ProjSrc\SrcChartEx\ChartAddIn\ChartAnalysisToolAddIn\AnalysisTool\Line.cpp

; 1087 : 		rctExtLineRect = CElement::GetLineRect(region,CPoint(ptStart.x,ptStart.y+nChannel),CPoint(ptEnd.x,ptEnd.y+nChannel),bLeftExt,bRightExt);	

  00246	50		 push	 eax
  00247	8d 45 90	 lea	 eax, DWORD PTR $T7[ebp]
; File C:\Program Files (x86)\Microsoft Visual Studio\2019\Community\VC\Tools\MSVC\14.29.30133\atlmfc\include\atltypes.h

; 409  : 	y = initY;

  0024a	89 75 94	 mov	 DWORD PTR $T7[ebp+4], esi
; File D:\git\src\IBK\IBK_DRFN\ProjSrc\SrcChartEx\ChartAddIn\ChartAnalysisToolAddIn\AnalysisTool\Line.cpp

; 1087 : 		rctExtLineRect = CElement::GetLineRect(region,CPoint(ptStart.x,ptStart.y+nChannel),CPoint(ptEnd.x,ptEnd.y+nChannel),bLeftExt,bRightExt);	

  0024d	50		 push	 eax
  0024e	ff 75 b0	 push	 DWORD PTR _region$GSCopy$1$[ebp]
  00251	8d 45 e0	 lea	 eax, DWORD PTR $T16[ebp]
  00254	8b cf		 mov	 ecx, edi
  00256	50		 push	 eax
  00257	e8 00 00 00 00	 call	 ?GetLineRect@CElement@@IBE?AVCRect@@ABV2@ABVCPoint@@1HH@Z ; CElement::GetLineRect

; 1088 : 		if(CElement::PointInElementSelectableRegion(CPoint(rctExtLineRect.left,rctExtLineRect.top),

  0025c	8b b5 78 ff ff
	ff		 mov	 esi, DWORD PTR _point$GSCopy$1$[ebp]
  00262	8b cf		 mov	 ecx, edi
  00264	56		 push	 esi
  00265	0f 10 08	 movups	 xmm1, XMMWORD PTR [eax]
  00268	8d 45 b8	 lea	 eax, DWORD PTR $T11[ebp]
  0026b	50		 push	 eax
; File C:\Program Files (x86)\Microsoft Visual Studio\2019\Community\VC\Tools\MSVC\14.29.30133\atlmfc\include\atltypes.h

; 408  : 	x = initX;

  0026c	0f 28 c1	 movaps	 xmm0, xmm1
  0026f	66 0f 7e 4d 90	 movd	 DWORD PTR $T6[ebp], xmm1
  00274	66 0f 73 d8 08	 psrldq	 xmm0, 8
; File D:\git\src\IBK\IBK_DRFN\ProjSrc\SrcChartEx\ChartAddIn\ChartAnalysisToolAddIn\AnalysisTool\Line.cpp

; 1088 : 		if(CElement::PointInElementSelectableRegion(CPoint(rctExtLineRect.left,rctExtLineRect.top),

  00279	8d 45 90	 lea	 eax, DWORD PTR $T6[ebp]
; File C:\Program Files (x86)\Microsoft Visual Studio\2019\Community\VC\Tools\MSVC\14.29.30133\atlmfc\include\atltypes.h

; 408  : 	x = initX;

  0027c	66 0f 7e 45 b8	 movd	 DWORD PTR $T11[ebp], xmm0

; 409  : 	y = initY;

  00281	0f 28 c1	 movaps	 xmm0, xmm1
; File D:\git\src\IBK\IBK_DRFN\ProjSrc\SrcChartEx\ChartAddIn\ChartAnalysisToolAddIn\AnalysisTool\Line.cpp

; 1087 : 		rctExtLineRect = CElement::GetLineRect(region,CPoint(ptStart.x,ptStart.y+nChannel),CPoint(ptEnd.x,ptEnd.y+nChannel),bLeftExt,bRightExt);	

  00284	0f 11 4d c0	 movups	 XMMWORD PTR _rctExtLineRect$[ebp], xmm1

; 1088 : 		if(CElement::PointInElementSelectableRegion(CPoint(rctExtLineRect.left,rctExtLineRect.top),

  00288	50		 push	 eax
; File C:\Program Files (x86)\Microsoft Visual Studio\2019\Community\VC\Tools\MSVC\14.29.30133\atlmfc\include\atltypes.h

; 409  : 	y = initY;

  00289	66 0f 73 d8 0c	 psrldq	 xmm0, 12		; 0000000cH
  0028e	66 0f 73 d9 04	 psrldq	 xmm1, 4
  00293	66 0f 7e 45 bc	 movd	 DWORD PTR $T11[ebp+4], xmm0
  00298	66 0f 7e 4d 94	 movd	 DWORD PTR $T6[ebp+4], xmm1
; File D:\git\src\IBK\IBK_DRFN\ProjSrc\SrcChartEx\ChartAddIn\ChartAnalysisToolAddIn\AnalysisTool\Line.cpp

; 1088 : 		if(CElement::PointInElementSelectableRegion(CPoint(rctExtLineRect.left,rctExtLineRect.top),

  0029d	e8 00 00 00 00	 call	 ?PointInElementSelectableRegion@CElement@@IBE_NABVCPoint@@00@Z ; CElement::PointInElementSelectableRegion
  002a2	84 c0		 test	 al, al
  002a4	0f 85 94 00 00
	00		 jne	 $LN48@GetModifyT

; 1096 : 		rctExtLineRect = CElement::GetLineRect(region,CPoint(ptStart.x,ptStart.y-nChannel),CPoint(ptEnd.x,ptEnd.y-nChannel),bLeftExt,bRightExt);

  002aa	f2 0f 2c 4d 98	 cvttsd2si ecx, QWORD PTR tv777[ebp]
; File C:\Program Files (x86)\Microsoft Visual Studio\2019\Community\VC\Tools\MSVC\14.29.30133\atlmfc\include\atltypes.h

; 408  : 	x = initX;

  002af	8b 45 a8	 mov	 eax, DWORD PTR _ptEnd$[ebp]
  002b2	89 45 b8	 mov	 DWORD PTR $T10[ebp], eax
; File D:\git\src\IBK\IBK_DRFN\ProjSrc\SrcChartEx\ChartAddIn\ChartAnalysisToolAddIn\AnalysisTool\Line.cpp

; 1096 : 		rctExtLineRect = CElement::GetLineRect(region,CPoint(ptStart.x,ptStart.y-nChannel),CPoint(ptEnd.x,ptEnd.y-nChannel),bLeftExt,bRightExt);

  002b5	8b 45 ac	 mov	 eax, DWORD PTR _ptEnd$[ebp+4]
  002b8	ff 75 88	 push	 DWORD PTR _bRightExt$1$[ebp]
  002bb	2b c1		 sub	 eax, ecx
  002bd	ff 75 84	 push	 DWORD PTR _bLeftExt$1$[ebp]
; File C:\Program Files (x86)\Microsoft Visual Studio\2019\Community\VC\Tools\MSVC\14.29.30133\atlmfc\include\atltypes.h

; 409  : 	y = initY;

  002c0	89 45 bc	 mov	 DWORD PTR $T10[ebp+4], eax

; 408  : 	x = initX;

  002c3	8b 45 a0	 mov	 eax, DWORD PTR _ptStart$[ebp]
  002c6	89 45 98	 mov	 DWORD PTR $T9[ebp], eax
; File D:\git\src\IBK\IBK_DRFN\ProjSrc\SrcChartEx\ChartAddIn\ChartAnalysisToolAddIn\AnalysisTool\Line.cpp

; 1096 : 		rctExtLineRect = CElement::GetLineRect(region,CPoint(ptStart.x,ptStart.y-nChannel),CPoint(ptEnd.x,ptEnd.y-nChannel),bLeftExt,bRightExt);

  002c9	8b 45 a4	 mov	 eax, DWORD PTR _ptStart$[ebp+4]
  002cc	2b c1		 sub	 eax, ecx
  002ce	8b cf		 mov	 ecx, edi
; File C:\Program Files (x86)\Microsoft Visual Studio\2019\Community\VC\Tools\MSVC\14.29.30133\atlmfc\include\atltypes.h

; 409  : 	y = initY;

  002d0	89 45 9c	 mov	 DWORD PTR $T9[ebp+4], eax
; File D:\git\src\IBK\IBK_DRFN\ProjSrc\SrcChartEx\ChartAddIn\ChartAnalysisToolAddIn\AnalysisTool\Line.cpp

; 1096 : 		rctExtLineRect = CElement::GetLineRect(region,CPoint(ptStart.x,ptStart.y-nChannel),CPoint(ptEnd.x,ptEnd.y-nChannel),bLeftExt,bRightExt);

  002d3	8d 45 b8	 lea	 eax, DWORD PTR $T10[ebp]
  002d6	50		 push	 eax
  002d7	8d 45 98	 lea	 eax, DWORD PTR $T9[ebp]
  002da	50		 push	 eax
  002db	ff 75 b0	 push	 DWORD PTR _region$GSCopy$1$[ebp]
  002de	8d 45 e0	 lea	 eax, DWORD PTR $T15[ebp]
  002e1	50		 push	 eax
  002e2	e8 00 00 00 00	 call	 ?GetLineRect@CElement@@IBE?AVCRect@@ABV2@ABVCPoint@@1HH@Z ; CElement::GetLineRect

; 1097 : 		if(CElement::PointInElementSelectableRegion(CPoint(rctExtLineRect.left,rctExtLineRect.top),

  002e7	56		 push	 esi
  002e8	8b cf		 mov	 ecx, edi
  002ea	0f 10 08	 movups	 xmm1, XMMWORD PTR [eax]
  002ed	8d 85 70 ff ff
	ff		 lea	 eax, DWORD PTR $T4[ebp]
  002f3	50		 push	 eax
; File C:\Program Files (x86)\Microsoft Visual Studio\2019\Community\VC\Tools\MSVC\14.29.30133\atlmfc\include\atltypes.h

; 408  : 	x = initX;

  002f4	0f 28 c1	 movaps	 xmm0, xmm1
  002f7	66 0f 7e 8d 7c
	ff ff ff	 movd	 DWORD PTR $T5[ebp], xmm1
  002ff	66 0f 73 d8 08	 psrldq	 xmm0, 8
; File D:\git\src\IBK\IBK_DRFN\ProjSrc\SrcChartEx\ChartAddIn\ChartAnalysisToolAddIn\AnalysisTool\Line.cpp

; 1097 : 		if(CElement::PointInElementSelectableRegion(CPoint(rctExtLineRect.left,rctExtLineRect.top),

  00304	8d 85 7c ff ff
	ff		 lea	 eax, DWORD PTR $T5[ebp]
; File C:\Program Files (x86)\Microsoft Visual Studio\2019\Community\VC\Tools\MSVC\14.29.30133\atlmfc\include\atltypes.h

; 408  : 	x = initX;

  0030a	66 0f 7e 85 70
	ff ff ff	 movd	 DWORD PTR $T4[ebp], xmm0

; 409  : 	y = initY;

  00312	0f 28 c1	 movaps	 xmm0, xmm1
; File D:\git\src\IBK\IBK_DRFN\ProjSrc\SrcChartEx\ChartAddIn\ChartAnalysisToolAddIn\AnalysisTool\Line.cpp

; 1096 : 		rctExtLineRect = CElement::GetLineRect(region,CPoint(ptStart.x,ptStart.y-nChannel),CPoint(ptEnd.x,ptEnd.y-nChannel),bLeftExt,bRightExt);

  00315	0f 11 4d c0	 movups	 XMMWORD PTR _rctExtLineRect$[ebp], xmm1

; 1097 : 		if(CElement::PointInElementSelectableRegion(CPoint(rctExtLineRect.left,rctExtLineRect.top),

  00319	50		 push	 eax
; File C:\Program Files (x86)\Microsoft Visual Studio\2019\Community\VC\Tools\MSVC\14.29.30133\atlmfc\include\atltypes.h

; 409  : 	y = initY;

  0031a	66 0f 73 d8 0c	 psrldq	 xmm0, 12		; 0000000cH
  0031f	66 0f 73 d9 04	 psrldq	 xmm1, 4
  00324	66 0f 7e 85 74
	ff ff ff	 movd	 DWORD PTR $T4[ebp+4], xmm0
  0032c	66 0f 7e 4d 80	 movd	 DWORD PTR $T5[ebp+4], xmm1
; File D:\git\src\IBK\IBK_DRFN\ProjSrc\SrcChartEx\ChartAddIn\ChartAnalysisToolAddIn\AnalysisTool\Line.cpp

; 1097 : 		if(CElement::PointInElementSelectableRegion(CPoint(rctExtLineRect.left,rctExtLineRect.top),

  00331	e8 00 00 00 00	 call	 ?PointInElementSelectableRegion@CElement@@IBE_NABVCPoint@@00@Z ; CElement::PointInElementSelectableRegion
  00336	84 c0		 test	 al, al
  00338	75 04		 jne	 SHORT $LN48@GetModifyT
$LN8@GetModifyT:

; 1100 : 		//modifyType = GetModifyType_Line(CPoint( rctExtLineRect.left, rctExtLineRect.bottom),
; 1101 : 		//								CPoint( rctExtLineRect.right, rctExtLineRect.top), point);
; 1102 : 		//if(modifyType != CToolEnumData::MODIFY_NONE)
; 1103 : 		//	return modifyType;
; 1104 : 	}	
; 1105 : 
; 1106 : 	return CToolEnumData::MODIFY_NONE;

  0033a	33 c0		 xor	 eax, eax
  0033c	eb 05		 jmp	 SHORT $LN1@GetModifyT
$LN48@GetModifyT:

; 1098 : 													CPoint(rctExtLineRect.right,rctExtLineRect.bottom), point))
; 1099 : 			return CToolEnumData::MODIFY_CENTER;

  0033e	b8 01 00 00 00	 mov	 eax, 1
$LN1@GetModifyT:

; 1107 : }

  00343	8b 4d f4	 mov	 ecx, DWORD PTR __$EHRec$[ebp]
  00346	64 89 0d 00 00
	00 00		 mov	 DWORD PTR fs:0, ecx
  0034d	59		 pop	 ecx
  0034e	5f		 pop	 edi
  0034f	5e		 pop	 esi
  00350	8b 4d f0	 mov	 ecx, DWORD PTR __$ArrayPad$[ebp]
  00353	33 cd		 xor	 ecx, ebp
  00355	e8 00 00 00 00	 call	 @__security_check_cookie@4
  0035a	8b e5		 mov	 esp, ebp
  0035c	5d		 pop	 ebp
  0035d	c2 10 00	 ret	 16			; 00000010H
_TEXT	ENDS
;	COMDAT text$x
text$x	SEGMENT
__unwindfunclet$?GetModifyType@CRaffRegression@@MBE?AW4ModifyType@CToolEnumData@@ABVCRect@@ABVCPoint@@11@Z$0:
  00000	8d 8d 28 ff ff
	ff		 lea	 ecx, DWORD PTR $T3[ebp]
  00006	e9 00 00 00 00	 jmp	 ??1CElementCommonEnvironment@@QAE@XZ
__unwindfunclet$?GetModifyType@CRaffRegression@@MBE?AW4ModifyType@CToolEnumData@@ABVCRect@@ABVCPoint@@11@Z$1:
  0000b	8d 8d 28 ff ff
	ff		 lea	 ecx, DWORD PTR $T2[ebp]
  00011	e9 00 00 00 00	 jmp	 ??1CElementCommonEnvironment@@QAE@XZ
__unwindfunclet$?GetModifyType@CRaffRegression@@MBE?AW4ModifyType@CToolEnumData@@ABVCRect@@ABVCPoint@@11@Z$2:
  00016	8d 4d d0	 lea	 ecx, DWORD PTR $T14[ebp]
  00019	e9 00 00 00 00	 jmp	 ??1CCoordinate@@QAE@XZ
  0001e	cc		 int	 3
  0001f	cc		 int	 3
  00020	cc		 int	 3
  00021	cc		 int	 3
  00022	cc		 int	 3
__ehhandler$?GetModifyType@CRaffRegression@@MBE?AW4ModifyType@CToolEnumData@@ABVCRect@@ABVCPoint@@11@Z:
  00023	90		 npad	 1
  00024	90		 npad	 1
  00025	8b 54 24 08	 mov	 edx, DWORD PTR [esp+8]
  00029	8d 42 0c	 lea	 eax, DWORD PTR [edx+12]
  0002c	8b 8a 28 ff ff
	ff		 mov	 ecx, DWORD PTR [edx-216]
  00032	33 c8		 xor	 ecx, eax
  00034	e8 00 00 00 00	 call	 @__security_check_cookie@4
  00039	8b 4a fc	 mov	 ecx, DWORD PTR [edx-4]
  0003c	33 c8		 xor	 ecx, eax
  0003e	e8 00 00 00 00	 call	 @__security_check_cookie@4
  00043	b8 00 00 00 00	 mov	 eax, OFFSET __ehfuncinfo$?GetModifyType@CRaffRegression@@MBE?AW4ModifyType@CToolEnumData@@ABVCRect@@ABVCPoint@@11@Z
  00048	e9 00 00 00 00	 jmp	 ___CxxFrameHandler3
text$x	ENDS
?GetModifyType@CRaffRegression@@MBE?AW4ModifyType@CToolEnumData@@ABVCRect@@ABVCPoint@@11@Z ENDP ; CRaffRegression::GetModifyType
; Function compile flags: /Ogtp
; File D:\git\src\IBK\IBK_DRFN\ProjSrc\SrcChartEx\ChartAddIn\ChartAnalysisToolAddIn\AnalysisTool\Line.cpp
;	COMDAT ?GetTwoPointDrawer@CRaffRegression@@MAEAAVCTwoPointDrawer@@XZ
_TEXT	SEGMENT
?GetTwoPointDrawer@CRaffRegression@@MAEAAVCTwoPointDrawer@@XZ PROC ; CRaffRegression::GetTwoPointDrawer, COMDAT
; _this$ = ecx

; 1036 : 	return m_raffRegressionDrawer;

  00000	8d 81 90 00 00
	00		 lea	 eax, DWORD PTR [ecx+144]

; 1037 : }

  00006	c3		 ret	 0
?GetTwoPointDrawer@CRaffRegression@@MAEAAVCTwoPointDrawer@@XZ ENDP ; CRaffRegression::GetTwoPointDrawer
_TEXT	ENDS
; Function compile flags: /Ogtp
; File D:\git\src\IBK\IBK_DRFN\ProjSrc\SrcChartEx\ChartAddIn\ChartAnalysisToolAddIn\AnalysisTool\Line.cpp
;	COMDAT ?GetElementType@CRaffRegression@@UBE?AW4ElementType@CToolEnumData@@XZ
_TEXT	SEGMENT
?GetElementType@CRaffRegression@@UBE?AW4ElementType@CToolEnumData@@XZ PROC ; CRaffRegression::GetElementType, COMDAT
; _this$ = ecx

; 1019 : 	return CToolEnumData::Raff_Regression;

  00000	b8 1c 00 00 00	 mov	 eax, 28			; 0000001cH

; 1020 : }

  00005	c3		 ret	 0
?GetElementType@CRaffRegression@@UBE?AW4ElementType@CToolEnumData@@XZ ENDP ; CRaffRegression::GetElementType
_TEXT	ENDS
; Function compile flags: /Ogtp
; File D:\git\src\IBK\IBK_DRFN\ProjSrc\SrcChartEx\ChartAddIn\ChartAnalysisToolAddIn\AnalysisTool\Line.cpp
;	COMDAT ?GetCoordinate@CRaffRegression@@UBE?AVCCoordinate@@W4ModifyType@CToolEnumData@@@Z
_TEXT	SEGMENT
_coordValue$ = -44					; size = 32
__$EHRec$ = -12						; size = 12
___$ReturnUdt$ = 8					; size = 4
_eModifyType$ = 12					; size = 4
?GetCoordinate@CRaffRegression@@UBE?AVCCoordinate@@W4ModifyType@CToolEnumData@@@Z PROC ; CRaffRegression::GetCoordinate, COMDAT
; _this$ = ecx

; 1023 : {

  00000	55		 push	 ebp
  00001	8b ec		 mov	 ebp, esp
  00003	6a ff		 push	 -1
  00005	68 00 00 00 00	 push	 __ehhandler$?GetCoordinate@CRaffRegression@@UBE?AVCCoordinate@@W4ModifyType@CToolEnumData@@@Z
  0000a	64 a1 00 00 00
	00		 mov	 eax, DWORD PTR fs:0
  00010	50		 push	 eax
  00011	83 ec 20	 sub	 esp, 32			; 00000020H
  00014	56		 push	 esi
  00015	57		 push	 edi
  00016	a1 00 00 00 00	 mov	 eax, DWORD PTR ___security_cookie
  0001b	33 c5		 xor	 eax, ebp
  0001d	50		 push	 eax
  0001e	8d 45 f4	 lea	 eax, DWORD PTR __$EHRec$[ebp]
  00021	64 a3 00 00 00
	00		 mov	 DWORD PTR fs:0, eax
  00027	8b f9		 mov	 edi, ecx

; 1024 : 	CCoordinate coordValue;

  00029	8d 4d d4	 lea	 ecx, DWORD PTR _coordValue$[ebp]
  0002c	e8 00 00 00 00	 call	 ??0CCoordinate@@QAE@XZ	; CCoordinate::CCoordinate

; 1025 : 	if(eModifyType == CToolEnumData::MODIFY_START)

  00031	8b 45 0c	 mov	 eax, DWORD PTR _eModifyType$[ebp]
  00034	c7 45 fc 00 00
	00 00		 mov	 DWORD PTR __$EHRec$[ebp+8], 0
  0003b	83 f8 02	 cmp	 eax, 2
  0003e	75 29		 jne	 SHORT $LN2@GetCoordin

; 1026 : 		return GetStartPoint();

  00040	8b 75 08	 mov	 esi, DWORD PTR ___$ReturnUdt$[ebp]
  00043	8b cf		 mov	 ecx, edi
  00045	56		 push	 esi
  00046	e8 00 00 00 00	 call	 ?GetStartPoint@CTwoPointElement@@IBE?AVCCoordinate@@XZ ; CTwoPointElement::GetStartPoint
  0004b	8d 4d e8	 lea	 ecx, DWORD PTR _coordValue$[ebp+20]
  0004e	ff 15 00 00 00
	00		 call	 DWORD PTR __imp_??1?$CStringT@DV?$StrTraitMFC_DLL@DV?$ChTraitsCRT@D@ATL@@@@@ATL@@QAE@XZ
  00054	8b c6		 mov	 eax, esi

; 1031 : }

  00056	8b 4d f4	 mov	 ecx, DWORD PTR __$EHRec$[ebp]
  00059	64 89 0d 00 00
	00 00		 mov	 DWORD PTR fs:0, ecx
  00060	59		 pop	 ecx
  00061	5f		 pop	 edi
  00062	5e		 pop	 esi
  00063	8b e5		 mov	 esp, ebp
  00065	5d		 pop	 ebp
  00066	c2 08 00	 ret	 8
$LN2@GetCoordin:

; 1027 : 	else if(eModifyType == CToolEnumData::MODIFY_END)

  00069	83 f8 04	 cmp	 eax, 4
  0006c	75 29		 jne	 SHORT $LN4@GetCoordin

; 1028 : 		return GetEndPoint();

  0006e	8b 75 08	 mov	 esi, DWORD PTR ___$ReturnUdt$[ebp]
  00071	8b cf		 mov	 ecx, edi
  00073	56		 push	 esi
  00074	e8 00 00 00 00	 call	 ?GetEndPoint@CTwoPointElement@@IBE?AVCCoordinate@@XZ ; CTwoPointElement::GetEndPoint
  00079	8d 4d e8	 lea	 ecx, DWORD PTR _coordValue$[ebp+20]
  0007c	ff 15 00 00 00
	00		 call	 DWORD PTR __imp_??1?$CStringT@DV?$StrTraitMFC_DLL@DV?$ChTraitsCRT@D@ATL@@@@@ATL@@QAE@XZ
  00082	8b c6		 mov	 eax, esi

; 1031 : }

  00084	8b 4d f4	 mov	 ecx, DWORD PTR __$EHRec$[ebp]
  00087	64 89 0d 00 00
	00 00		 mov	 DWORD PTR fs:0, ecx
  0008e	59		 pop	 ecx
  0008f	5f		 pop	 edi
  00090	5e		 pop	 esi
  00091	8b e5		 mov	 esp, ebp
  00093	5d		 pop	 ebp
  00094	c2 08 00	 ret	 8
$LN4@GetCoordin:

; 1029 : 
; 1030 : 	return coordValue;

  00097	8b 4d 08	 mov	 ecx, DWORD PTR ___$ReturnUdt$[ebp]
  0009a	8d 45 d4	 lea	 eax, DWORD PTR _coordValue$[ebp]
  0009d	50		 push	 eax
  0009e	e8 00 00 00 00	 call	 ??0CCoordinate@@QAE@ABV0@@Z ; CCoordinate::CCoordinate
  000a3	8d 4d e8	 lea	 ecx, DWORD PTR _coordValue$[ebp+20]
  000a6	ff 15 00 00 00
	00		 call	 DWORD PTR __imp_??1?$CStringT@DV?$StrTraitMFC_DLL@DV?$ChTraitsCRT@D@ATL@@@@@ATL@@QAE@XZ
  000ac	8b 45 08	 mov	 eax, DWORD PTR ___$ReturnUdt$[ebp]

; 1031 : }

  000af	8b 4d f4	 mov	 ecx, DWORD PTR __$EHRec$[ebp]
  000b2	64 89 0d 00 00
	00 00		 mov	 DWORD PTR fs:0, ecx
  000b9	59		 pop	 ecx
  000ba	5f		 pop	 edi
  000bb	5e		 pop	 esi
  000bc	8b e5		 mov	 esp, ebp
  000be	5d		 pop	 ebp
  000bf	c2 08 00	 ret	 8
_TEXT	ENDS
;	COMDAT text$x
text$x	SEGMENT
__unwindfunclet$?GetCoordinate@CRaffRegression@@UBE?AVCCoordinate@@W4ModifyType@CToolEnumData@@@Z$0:
  00000	8d 4d d4	 lea	 ecx, DWORD PTR _coordValue$[ebp]
  00003	e9 00 00 00 00	 jmp	 ??1CCoordinate@@QAE@XZ
  00008	cc		 int	 3
  00009	cc		 int	 3
  0000a	cc		 int	 3
  0000b	cc		 int	 3
  0000c	cc		 int	 3
__ehhandler$?GetCoordinate@CRaffRegression@@UBE?AVCCoordinate@@W4ModifyType@CToolEnumData@@@Z:
  0000d	90		 npad	 1
  0000e	90		 npad	 1
  0000f	8b 54 24 08	 mov	 edx, DWORD PTR [esp+8]
  00013	8d 42 0c	 lea	 eax, DWORD PTR [edx+12]
  00016	8b 4a d4	 mov	 ecx, DWORD PTR [edx-44]
  00019	33 c8		 xor	 ecx, eax
  0001b	e8 00 00 00 00	 call	 @__security_check_cookie@4
  00020	b8 00 00 00 00	 mov	 eax, OFFSET __ehfuncinfo$?GetCoordinate@CRaffRegression@@UBE?AVCCoordinate@@W4ModifyType@CToolEnumData@@@Z
  00025	e9 00 00 00 00	 jmp	 ___CxxFrameHandler3
text$x	ENDS
?GetCoordinate@CRaffRegression@@UBE?AVCCoordinate@@W4ModifyType@CToolEnumData@@@Z ENDP ; CRaffRegression::GetCoordinate
; Function compile flags: /Ogtp
; File D:\git\src\IBK\IBK_DRFN\ProjSrc\SrcChartEx\ChartAddIn\ChartAnalysisToolAddIn\AnalysisTool\Line.cpp
;	COMDAT ?ElementModify_Coordinate@CRaffRegression@@UAEXABVCCoordinate@@W4ModifyType@CToolEnumData@@@Z
_TEXT	SEGMENT
$T1 = -8						; size = 8
$T2 = -8						; size = 8
_coordValue$ = 8					; size = 4
_eModifyType$ = 12					; size = 4
?ElementModify_Coordinate@CRaffRegression@@UAEXABVCCoordinate@@W4ModifyType@CToolEnumData@@@Z PROC ; CRaffRegression::ElementModify_Coordinate, COMDAT
; _this$ = ecx

; 998  : {

  00000	55		 push	 ebp
  00001	8b ec		 mov	 ebp, esp

; 999  : 	//LinearRegression  Y    -   
; 1000 : 	switch(eModifyType)

  00003	8b 45 0c	 mov	 eax, DWORD PTR _eModifyType$[ebp]
  00006	83 ec 08	 sub	 esp, 8
  00009	57		 push	 edi
  0000a	8b f9		 mov	 edi, ecx
  0000c	83 e8 01	 sub	 eax, 1
  0000f	74 0a		 je	 SHORT $LN4@ElementMod
  00011	83 e8 01	 sub	 eax, 1
  00014	74 05		 je	 SHORT $LN4@ElementMod
  00016	83 e8 02	 sub	 eax, 2
  00019	75 3a		 jne	 SHORT $LN7@ElementMod
$LN4@ElementMod:

; 1001 : 	{
; 1002 : 	case CToolEnumData::MODIFY_START:
; 1003 : 	case CToolEnumData::MODIFY_END:
; 1004 : 	case CToolEnumData::MODIFY_CENTER:
; 1005 : 		CTwoPointElement::GetStartPoint().SetY(coordValue.GetX());

  0001b	8b 4d 08	 mov	 ecx, DWORD PTR _coordValue$[ebp]
  0001e	e8 00 00 00 00	 call	 ?GetX@CCoordinate@@QBENXZ ; CCoordinate::GetX
  00023	8d 45 f8	 lea	 eax, DWORD PTR $T2[ebp]
  00026	8b cf		 mov	 ecx, edi
  00028	50		 push	 eax
  00029	dd 5d f8	 fstp	 QWORD PTR $T2[ebp]
  0002c	e8 00 00 00 00	 call	 ?GetStartPoint@CTwoPointElement@@IAEAAVCCoordinate@@XZ ; CTwoPointElement::GetStartPoint
  00031	8b c8		 mov	 ecx, eax
  00033	e8 00 00 00 00	 call	 ?SetY@CCoordinate@@QAEXABN@Z ; CCoordinate::SetY

; 1006 : 		CTwoPointElement::GetEndPoint().SetY(coordValue.GetY());

  00038	8b 4d 08	 mov	 ecx, DWORD PTR _coordValue$[ebp]
  0003b	e8 00 00 00 00	 call	 ?GetY@CCoordinate@@QBENXZ ; CCoordinate::GetY
  00040	8d 45 f8	 lea	 eax, DWORD PTR $T1[ebp]
  00043	8b cf		 mov	 ecx, edi
  00045	50		 push	 eax
  00046	dd 5d f8	 fstp	 QWORD PTR $T1[ebp]
  00049	e8 00 00 00 00	 call	 ?GetEndPoint@CTwoPointElement@@IAEAAVCCoordinate@@XZ ; CTwoPointElement::GetEndPoint
  0004e	8b c8		 mov	 ecx, eax
  00050	e8 00 00 00 00	 call	 ?SetY@CCoordinate@@QAEXABN@Z ; CCoordinate::SetY
$LN7@ElementMod:
  00055	5f		 pop	 edi

; 1007 : 		break;
; 1008 : 	default:
; 1009 : 		assert(false);
; 1010 : 	}
; 1011 : }

  00056	8b e5		 mov	 esp, ebp
  00058	5d		 pop	 ebp
  00059	c2 08 00	 ret	 8
?ElementModify_Coordinate@CRaffRegression@@UAEXABVCCoordinate@@W4ModifyType@CToolEnumData@@@Z ENDP ; CRaffRegression::ElementModify_Coordinate
_TEXT	ENDS
; Function compile flags: /Ogtp
; File D:\git\src\IBK\IBK_DRFN\ProjSrc\SrcChartEx\ChartAddIn\ChartAnalysisToolAddIn\AnalysisTool\Line.cpp
;	COMDAT ?ElementModify_YValue@CRaffRegression@@UAEXABVCElementModifyData@@@Z
_TEXT	SEGMENT
_elementModifyData$ = 8					; size = 4
?ElementModify_YValue@CRaffRegression@@UAEXABVCElementModifyData@@@Z PROC ; CRaffRegression::ElementModify_YValue, COMDAT
; _this$ = ecx

; 1015 : }

  00000	c2 04 00	 ret	 4
?ElementModify_YValue@CRaffRegression@@UAEXABVCElementModifyData@@@Z ENDP ; CRaffRegression::ElementModify_YValue
_TEXT	ENDS
; Function compile flags: /Ogtp
; File D:\git\src\IBK\IBK_DRFN\ProjSrc\SrcChartEx\ChartAddIn\ChartAnalysisToolAddIn\AnalysisTool\Line.cpp
;	COMDAT ?ElementModify@CRaffRegression@@UAEXABVCElementModifyData@@@Z
_TEXT	SEGMENT
$T2 = -148						; size = 32
$T3 = -116						; size = 32
$T4 = -116						; size = 32
$T5 = -116						; size = 32
_startPoint$6 = -84					; size = 32
_endPoint$7 = -52					; size = 32
tv205 = -20						; size = 8
tv189 = -20						; size = 8
__$EHRec$ = -12						; size = 12
_elementModifyData$ = 8					; size = 4
?ElementModify@CRaffRegression@@UAEXABVCElementModifyData@@@Z PROC ; CRaffRegression::ElementModify, COMDAT
; _this$ = ecx

; 967  : {	

  00000	55		 push	 ebp
  00001	8b ec		 mov	 ebp, esp
  00003	6a ff		 push	 -1
  00005	68 00 00 00 00	 push	 __ehhandler$?ElementModify@CRaffRegression@@UAEXABVCElementModifyData@@@Z
  0000a	64 a1 00 00 00
	00		 mov	 eax, DWORD PTR fs:0
  00010	50		 push	 eax
  00011	81 ec 88 00 00
	00		 sub	 esp, 136		; 00000088H
  00017	56		 push	 esi
  00018	57		 push	 edi
  00019	a1 00 00 00 00	 mov	 eax, DWORD PTR ___security_cookie
  0001e	33 c5		 xor	 eax, ebp
  00020	50		 push	 eax
  00021	8d 45 f4	 lea	 eax, DWORD PTR __$EHRec$[ebp]
  00024	64 a3 00 00 00
	00		 mov	 DWORD PTR fs:0, eax
  0002a	8b f1		 mov	 esi, ecx

; 968  : 	//RaffRegression  Y    -   
; 969  : 	switch(elementModifyData.GetModifyType())

  0002c	8b 7d 08	 mov	 edi, DWORD PTR _elementModifyData$[ebp]
  0002f	8b cf		 mov	 ecx, edi
  00031	e8 00 00 00 00	 call	 ?GetModifyType@CElementModifyData@@QBE?AW4ModifyType@CToolEnumData@@XZ ; CElementModifyData::GetModifyType
  00036	83 e8 01	 sub	 eax, 1
  00039	74 62		 je	 SHORT $LN6@ElementMod
  0003b	83 e8 01	 sub	 eax, 1
  0003e	74 33		 je	 SHORT $LN4@ElementMod
  00040	83 e8 02	 sub	 eax, 2
  00043	0f 85 46 01 00
	00		 jne	 $LN45@ElementMod

; 974  : 	case CToolEnumData::MODIFY_END:
; 975  : 		CTwoPointElement::SetEndPoint(elementModifyData.GetModifyPoint(CTwoPointElement::GetEndPoint()));		

  00049	8b ce		 mov	 ecx, esi
  0004b	e8 00 00 00 00	 call	 ?GetEndPoint@CTwoPointElement@@IAEAAVCCoordinate@@XZ ; CTwoPointElement::GetEndPoint
  00050	50		 push	 eax
  00051	8d 45 8c	 lea	 eax, DWORD PTR $T4[ebp]
  00054	8b cf		 mov	 ecx, edi
  00056	50		 push	 eax
  00057	e8 00 00 00 00	 call	 ?GetModifyPoint@CElementModifyData@@QBE?AVCCoordinate@@ABV2@@Z ; CElementModifyData::GetModifyPoint
  0005c	50		 push	 eax
  0005d	8b ce		 mov	 ecx, esi
  0005f	c7 45 fc 01 00
	00 00		 mov	 DWORD PTR __$EHRec$[ebp+8], 1
  00066	e8 00 00 00 00	 call	 ?SetEndPoint@CTwoPointElement@@IAEXABVCCoordinate@@@Z ; CTwoPointElement::SetEndPoint
  0006b	8d 4d a0	 lea	 ecx, DWORD PTR $T4[ebp+20]

; 976  : 		break;

  0006e	e9 16 01 00 00	 jmp	 $LN48@ElementMod
$LN4@ElementMod:

; 970  : 	{
; 971  : 	case CToolEnumData::MODIFY_START:		
; 972  : 		CTwoPointElement::SetStartPoint(elementModifyData.GetModifyPoint(CTwoPointElement::GetStartPoint()));

  00073	8b ce		 mov	 ecx, esi
  00075	e8 00 00 00 00	 call	 ?GetStartPoint@CTwoPointElement@@IAEAAVCCoordinate@@XZ ; CTwoPointElement::GetStartPoint
  0007a	50		 push	 eax
  0007b	8d 45 8c	 lea	 eax, DWORD PTR $T5[ebp]
  0007e	8b cf		 mov	 ecx, edi
  00080	50		 push	 eax
  00081	e8 00 00 00 00	 call	 ?GetModifyPoint@CElementModifyData@@QBE?AVCCoordinate@@ABV2@@Z ; CElementModifyData::GetModifyPoint
  00086	50		 push	 eax
  00087	8b ce		 mov	 ecx, esi
  00089	c7 45 fc 00 00
	00 00		 mov	 DWORD PTR __$EHRec$[ebp+8], 0
  00090	e8 00 00 00 00	 call	 ?SetStartPoint@CTwoPointElement@@IAEXABVCCoordinate@@@Z ; CTwoPointElement::SetStartPoint
  00095	8d 4d a0	 lea	 ecx, DWORD PTR $T5[ebp+20]

; 973  : 		break;

  00098	e9 ec 00 00 00	 jmp	 $LN48@ElementMod
$LN6@ElementMod:

; 977  : 	case CToolEnumData::MODIFY_CENTER:
; 978  : 		{
; 979  : 			// (2008/8/12 - Seung-Won, Bae) Do not move to outside as future.
; 980  : 			CCoordinate startPoint, endPoint;

  0009d	8d 4d ac	 lea	 ecx, DWORD PTR _startPoint$6[ebp]
  000a0	e8 00 00 00 00	 call	 ??0CCoordinate@@QAE@XZ	; CCoordinate::CCoordinate
  000a5	8d 4d cc	 lea	 ecx, DWORD PTR _endPoint$7[ebp]
  000a8	c7 45 fc 02 00
	00 00		 mov	 DWORD PTR __$EHRec$[ebp+8], 2
  000af	e8 00 00 00 00	 call	 ??0CCoordinate@@QAE@XZ	; CCoordinate::CCoordinate

; 981  : 			startPoint = elementModifyData.GetModifyPoint( CTwoPointElement::GetStartPoint());

  000b4	8b ce		 mov	 ecx, esi
  000b6	c6 45 fc 03	 mov	 BYTE PTR __$EHRec$[ebp+8], 3
  000ba	e8 00 00 00 00	 call	 ?GetStartPoint@CTwoPointElement@@IAEAAVCCoordinate@@XZ ; CTwoPointElement::GetStartPoint
  000bf	50		 push	 eax
  000c0	8d 45 8c	 lea	 eax, DWORD PTR $T3[ebp]
  000c3	8b cf		 mov	 ecx, edi
  000c5	50		 push	 eax
  000c6	e8 00 00 00 00	 call	 ?GetModifyPoint@CElementModifyData@@QBE?AVCCoordinate@@ABV2@@Z ; CElementModifyData::GetModifyPoint
  000cb	50		 push	 eax
  000cc	8d 4d ac	 lea	 ecx, DWORD PTR _startPoint$6[ebp]
  000cf	c6 45 fc 04	 mov	 BYTE PTR __$EHRec$[ebp+8], 4
  000d3	e8 00 00 00 00	 call	 ??4CCoordinate@@QAEAAV0@ABV0@@Z ; CCoordinate::operator=
  000d8	8d 4d a0	 lea	 ecx, DWORD PTR $T3[ebp+20]
  000db	c6 45 fc 03	 mov	 BYTE PTR __$EHRec$[ebp+8], 3
  000df	ff 15 00 00 00
	00		 call	 DWORD PTR __imp_??1?$CStringT@DV?$StrTraitMFC_DLL@DV?$ChTraitsCRT@D@ATL@@@@@ATL@@QAE@XZ

; 982  : 			endPoint = elementModifyData.GetModifyPoint( CTwoPointElement::GetEndPoint());

  000e5	8b ce		 mov	 ecx, esi
  000e7	e8 00 00 00 00	 call	 ?GetEndPoint@CTwoPointElement@@IAEAAVCCoordinate@@XZ ; CTwoPointElement::GetEndPoint
  000ec	50		 push	 eax
  000ed	8d 85 6c ff ff
	ff		 lea	 eax, DWORD PTR $T2[ebp]
  000f3	8b cf		 mov	 ecx, edi
  000f5	50		 push	 eax
  000f6	e8 00 00 00 00	 call	 ?GetModifyPoint@CElementModifyData@@QBE?AVCCoordinate@@ABV2@@Z ; CElementModifyData::GetModifyPoint
  000fb	50		 push	 eax
  000fc	8d 4d cc	 lea	 ecx, DWORD PTR _endPoint$7[ebp]
  000ff	c6 45 fc 05	 mov	 BYTE PTR __$EHRec$[ebp+8], 5
  00103	e8 00 00 00 00	 call	 ??4CCoordinate@@QAEAAV0@ABV0@@Z ; CCoordinate::operator=
  00108	8d 4d 80	 lea	 ecx, DWORD PTR $T2[ebp+20]
  0010b	c6 45 fc 03	 mov	 BYTE PTR __$EHRec$[ebp+8], 3
  0010f	ff 15 00 00 00
	00		 call	 DWORD PTR __imp_??1?$CStringT@DV?$StrTraitMFC_DLL@DV?$ChTraitsCRT@D@ATL@@@@@ATL@@QAE@XZ

; 983  : 
; 984  : 			if( startPoint.GetX() == 0.0 || startPoint.GetIndex() < 0
; 985  : 				|| endPoint.GetX() == 0.0 || endPoint.GetIndex() < 0)

  00115	8d 4d ac	 lea	 ecx, DWORD PTR _startPoint$6[ebp]
  00118	e8 00 00 00 00	 call	 ?GetX@CCoordinate@@QBENXZ ; CCoordinate::GetX
  0011d	dd 5d ec	 fstp	 QWORD PTR tv205[ebp]
  00120	f2 0f 10 45 ec	 movsd	 xmm0, QWORD PTR tv205[ebp]
  00125	0f 57 c9	 xorps	 xmm1, xmm1
  00128	66 0f 2e c1	 ucomisd xmm0, xmm1
  0012c	9f		 lahf
  0012d	f6 c4 44	 test	 ah, 68			; 00000044H
  00130	7b 4b		 jnp	 SHORT $LN8@ElementMod
  00132	8d 4d ac	 lea	 ecx, DWORD PTR _startPoint$6[ebp]
  00135	e8 00 00 00 00	 call	 ?GetIndex@CCoordinate@@QBEHXZ ; CCoordinate::GetIndex
  0013a	85 c0		 test	 eax, eax
  0013c	78 3f		 js	 SHORT $LN8@ElementMod
  0013e	8d 4d cc	 lea	 ecx, DWORD PTR _endPoint$7[ebp]
  00141	e8 00 00 00 00	 call	 ?GetX@CCoordinate@@QBENXZ ; CCoordinate::GetX
  00146	dd 5d ec	 fstp	 QWORD PTR tv189[ebp]
  00149	f2 0f 10 45 ec	 movsd	 xmm0, QWORD PTR tv189[ebp]
  0014e	0f 57 c9	 xorps	 xmm1, xmm1
  00151	66 0f 2e c1	 ucomisd xmm0, xmm1
  00155	9f		 lahf
  00156	f6 c4 44	 test	 ah, 68			; 00000044H
  00159	7b 22		 jnp	 SHORT $LN8@ElementMod
  0015b	8d 4d cc	 lea	 ecx, DWORD PTR _endPoint$7[ebp]
  0015e	e8 00 00 00 00	 call	 ?GetIndex@CCoordinate@@QBEHXZ ; CCoordinate::GetIndex
  00163	85 c0		 test	 eax, eax
  00165	78 16		 js	 SHORT $LN8@ElementMod

; 986  : 				return;
; 987  : 
; 988  : 			CTwoPointElement::SetStartPoint( startPoint);

  00167	8d 45 ac	 lea	 eax, DWORD PTR _startPoint$6[ebp]
  0016a	8b ce		 mov	 ecx, esi
  0016c	50		 push	 eax
  0016d	e8 00 00 00 00	 call	 ?SetStartPoint@CTwoPointElement@@IAEXABVCCoordinate@@@Z ; CTwoPointElement::SetStartPoint

; 989  : 			CTwoPointElement::SetEndPoint( endPoint);		

  00172	8d 45 cc	 lea	 eax, DWORD PTR _endPoint$7[ebp]
  00175	8b ce		 mov	 ecx, esi
  00177	50		 push	 eax
  00178	e8 00 00 00 00	 call	 ?SetEndPoint@CTwoPointElement@@IAEXABVCCoordinate@@@Z ; CTwoPointElement::SetEndPoint
$LN8@ElementMod:

; 990  : 			break;
; 991  : 		}
; 992  : 	default:
; 993  : 		assert(false);
; 994  : 	}
; 995  : }

  0017d	8d 4d e0	 lea	 ecx, DWORD PTR _endPoint$7[ebp+20]
  00180	ff 15 00 00 00
	00		 call	 DWORD PTR __imp_??1?$CStringT@DV?$StrTraitMFC_DLL@DV?$ChTraitsCRT@D@ATL@@@@@ATL@@QAE@XZ
  00186	8d 4d c0	 lea	 ecx, DWORD PTR _startPoint$6[ebp+20]
$LN48@ElementMod:
  00189	ff 15 00 00 00
	00		 call	 DWORD PTR __imp_??1?$CStringT@DV?$StrTraitMFC_DLL@DV?$ChTraitsCRT@D@ATL@@@@@ATL@@QAE@XZ
$LN45@ElementMod:
  0018f	8b 4d f4	 mov	 ecx, DWORD PTR __$EHRec$[ebp]
  00192	64 89 0d 00 00
	00 00		 mov	 DWORD PTR fs:0, ecx
  00199	59		 pop	 ecx
  0019a	5f		 pop	 edi
  0019b	5e		 pop	 esi
  0019c	8b e5		 mov	 esp, ebp
  0019e	5d		 pop	 ebp
  0019f	c2 04 00	 ret	 4
_TEXT	ENDS
;	COMDAT text$x
text$x	SEGMENT
__unwindfunclet$?ElementModify@CRaffRegression@@UAEXABVCElementModifyData@@@Z$1:
  00000	8d 4d 8c	 lea	 ecx, DWORD PTR $T4[ebp]
  00003	e9 00 00 00 00	 jmp	 ??1CCoordinate@@QAE@XZ
__unwindfunclet$?ElementModify@CRaffRegression@@UAEXABVCElementModifyData@@@Z$0:
  00008	8d 4d 8c	 lea	 ecx, DWORD PTR $T5[ebp]
  0000b	e9 00 00 00 00	 jmp	 ??1CCoordinate@@QAE@XZ
__unwindfunclet$?ElementModify@CRaffRegression@@UAEXABVCElementModifyData@@@Z$2:
  00010	8d 4d ac	 lea	 ecx, DWORD PTR _startPoint$6[ebp]
  00013	e9 00 00 00 00	 jmp	 ??1CCoordinate@@QAE@XZ
__unwindfunclet$?ElementModify@CRaffRegression@@UAEXABVCElementModifyData@@@Z$3:
  00018	8d 4d cc	 lea	 ecx, DWORD PTR _endPoint$7[ebp]
  0001b	e9 00 00 00 00	 jmp	 ??1CCoordinate@@QAE@XZ
__unwindfunclet$?ElementModify@CRaffRegression@@UAEXABVCElementModifyData@@@Z$4:
  00020	8d 4d 8c	 lea	 ecx, DWORD PTR $T3[ebp]
  00023	e9 00 00 00 00	 jmp	 ??1CCoordinate@@QAE@XZ
__unwindfunclet$?ElementModify@CRaffRegression@@UAEXABVCElementModifyData@@@Z$5:
  00028	8d 8d 6c ff ff
	ff		 lea	 ecx, DWORD PTR $T2[ebp]
  0002e	e9 00 00 00 00	 jmp	 ??1CCoordinate@@QAE@XZ
  00033	cc		 int	 3
  00034	cc		 int	 3
  00035	cc		 int	 3
  00036	cc		 int	 3
  00037	cc		 int	 3
__ehhandler$?ElementModify@CRaffRegression@@UAEXABVCElementModifyData@@@Z:
  00038	90		 npad	 1
  00039	90		 npad	 1
  0003a	8b 54 24 08	 mov	 edx, DWORD PTR [esp+8]
  0003e	8d 42 0c	 lea	 eax, DWORD PTR [edx+12]
  00041	8b 8a 6c ff ff
	ff		 mov	 ecx, DWORD PTR [edx-148]
  00047	33 c8		 xor	 ecx, eax
  00049	e8 00 00 00 00	 call	 @__security_check_cookie@4
  0004e	b8 00 00 00 00	 mov	 eax, OFFSET __ehfuncinfo$?ElementModify@CRaffRegression@@UAEXABVCElementModifyData@@@Z
  00053	e9 00 00 00 00	 jmp	 ___CxxFrameHandler3
text$x	ENDS
?ElementModify@CRaffRegression@@UAEXABVCElementModifyData@@@Z ENDP ; CRaffRegression::ElementModify
; Function compile flags: /Ogtp
; File D:\git\src\IBK\IBK_DRFN\ProjSrc\SrcChartEx\ChartAddIn\ChartAnalysisToolAddIn\AnalysisTool\Line.cpp
;	COMDAT ??0CRaffRegression@@QAE@ABVCCoordinate@@0ABVCElementCommonEnvironment@@N@Z
_TEXT	SEGMENT
_this$ = -16						; size = 4
__$EHRec$ = -12						; size = 12
_point1$ = 8						; size = 4
_point2$ = 12						; size = 4
_environment$ = 16					; size = 4
_dChannel$ = 20						; size = 8
??0CRaffRegression@@QAE@ABVCCoordinate@@0ABVCElementCommonEnvironment@@N@Z PROC ; CRaffRegression::CRaffRegression, COMDAT
; _this$ = ecx

; 962  : {

  00000	55		 push	 ebp
  00001	8b ec		 mov	 ebp, esp
  00003	6a ff		 push	 -1
  00005	68 00 00 00 00	 push	 __ehhandler$??0CRaffRegression@@QAE@ABVCCoordinate@@0ABVCElementCommonEnvironment@@N@Z
  0000a	64 a1 00 00 00
	00		 mov	 eax, DWORD PTR fs:0
  00010	50		 push	 eax
  00011	51		 push	 ecx
  00012	56		 push	 esi
  00013	a1 00 00 00 00	 mov	 eax, DWORD PTR ___security_cookie
  00018	33 c5		 xor	 eax, ebp
  0001a	50		 push	 eax
  0001b	8d 45 f4	 lea	 eax, DWORD PTR __$EHRec$[ebp]
  0001e	64 a3 00 00 00
	00		 mov	 DWORD PTR fs:0, eax
  00024	8b f1		 mov	 esi, ecx
  00026	89 75 f0	 mov	 DWORD PTR _this$[ebp], esi

; 961  : 	CTwoPointElement(point1, point2, environment)

  00029	ff 75 10	 push	 DWORD PTR _environment$[ebp]
  0002c	ff 75 0c	 push	 DWORD PTR _point2$[ebp]
  0002f	ff 75 08	 push	 DWORD PTR _point1$[ebp]
  00032	e8 00 00 00 00	 call	 ??0CTwoPointElement@@QAE@ABVCCoordinate@@0ABVCElementCommonEnvironment@@@Z ; CTwoPointElement::CTwoPointElement

; 962  : {

  00037	6a 01		 push	 1
  00039	8d 8e 90 00 00
	00		 lea	 ecx, DWORD PTR [esi+144]
  0003f	c7 45 fc 00 00
	00 00		 mov	 DWORD PTR __$EHRec$[ebp+8], 0
  00046	c7 06 00 00 00
	00		 mov	 DWORD PTR [esi], OFFSET ??_7CRaffRegression@@6B@
  0004c	e8 00 00 00 00	 call	 ??0CRaffRegressionDrawer@@QAE@XZ ; CRaffRegressionDrawer::CRaffRegressionDrawer

; 963  : 	m_raffRegressionDrawer.SetChannel(dChannel);

  00051	f2 0f 10 45 14	 movsd	 xmm0, QWORD PTR _dChannel$[ebp]

; 964  : }

  00056	8b c6		 mov	 eax, esi
  00058	f2 0f 11 86 98
	00 00 00	 movsd	 QWORD PTR [esi+152], xmm0
  00060	8b 4d f4	 mov	 ecx, DWORD PTR __$EHRec$[ebp]
  00063	64 89 0d 00 00
	00 00		 mov	 DWORD PTR fs:0, ecx
  0006a	59		 pop	 ecx
  0006b	5e		 pop	 esi
  0006c	8b e5		 mov	 esp, ebp
  0006e	5d		 pop	 ebp
  0006f	c2 14 00	 ret	 20			; 00000014H
_TEXT	ENDS
;	COMDAT text$x
text$x	SEGMENT
__unwindfunclet$??0CRaffRegression@@QAE@ABVCCoordinate@@0ABVCElementCommonEnvironment@@N@Z$0:
  00000	8b 4d f0	 mov	 ecx, DWORD PTR _this$[ebp]
  00003	e9 00 00 00 00	 jmp	 ??1CTwoPointElement@@UAE@XZ
  00008	cc		 int	 3
  00009	cc		 int	 3
  0000a	cc		 int	 3
  0000b	cc		 int	 3
  0000c	cc		 int	 3
__ehhandler$??0CRaffRegression@@QAE@ABVCCoordinate@@0ABVCElementCommonEnvironment@@N@Z:
  0000d	90		 npad	 1
  0000e	90		 npad	 1
  0000f	8b 54 24 08	 mov	 edx, DWORD PTR [esp+8]
  00013	8d 42 0c	 lea	 eax, DWORD PTR [edx+12]
  00016	8b 4a f4	 mov	 ecx, DWORD PTR [edx-12]
  00019	33 c8		 xor	 ecx, eax
  0001b	e8 00 00 00 00	 call	 @__security_check_cookie@4
  00020	b8 00 00 00 00	 mov	 eax, OFFSET __ehfuncinfo$??0CRaffRegression@@QAE@ABVCCoordinate@@0ABVCElementCommonEnvironment@@N@Z
  00025	e9 00 00 00 00	 jmp	 ___CxxFrameHandler3
text$x	ENDS
??0CRaffRegression@@QAE@ABVCCoordinate@@0ABVCElementCommonEnvironment@@N@Z ENDP ; CRaffRegression::CRaffRegression
; Function compile flags: /Ogtp
; File D:\git\src\IBK\IBK_DRFN\ProjSrc\SrcChartEx\ChartAddIn\ChartAnalysisToolAddIn\AnalysisTool\Element.h
;	COMDAT ??_GCLinearRegression@@UAEPAXI@Z
_TEXT	SEGMENT
___flags$ = 8						; size = 4
??_GCLinearRegression@@UAEPAXI@Z PROC			; CLinearRegression::`scalar deleting destructor', COMDAT
; _this$ = ecx
  00000	55		 push	 ebp
  00001	8b ec		 mov	 ebp, esp

; 31   : 	virtual ~CElement()	{}

  00003	56		 push	 esi
  00004	8b f1		 mov	 esi, ecx
  00006	8d 8e 84 00 00
	00		 lea	 ecx, DWORD PTR [esi+132]
  0000c	ff 15 00 00 00
	00		 call	 DWORD PTR __imp_??1?$CStringT@DV?$StrTraitMFC_DLL@DV?$ChTraitsCRT@D@ATL@@@@@ATL@@QAE@XZ
  00012	8d 4e 64	 lea	 ecx, DWORD PTR [esi+100]
  00015	ff 15 00 00 00
	00		 call	 DWORD PTR __imp_??1?$CStringT@DV?$StrTraitMFC_DLL@DV?$ChTraitsCRT@D@ATL@@@@@ATL@@QAE@XZ
  0001b	8d 4e 40	 lea	 ecx, DWORD PTR [esi+64]
  0001e	c7 06 00 00 00
	00		 mov	 DWORD PTR [esi], OFFSET ??_7CElement@@6B@
  00024	ff 15 00 00 00
	00		 call	 DWORD PTR __imp_??1?$CStringT@DV?$StrTraitMFC_DLL@DV?$ChTraitsCRT@D@ATL@@@@@ATL@@QAE@XZ
  0002a	8d 4e 3c	 lea	 ecx, DWORD PTR [esi+60]
  0002d	ff 15 00 00 00
	00		 call	 DWORD PTR __imp_??1?$CStringT@DV?$StrTraitMFC_DLL@DV?$ChTraitsCRT@D@ATL@@@@@ATL@@QAE@XZ
  00033	8d 4e 38	 lea	 ecx, DWORD PTR [esi+56]
  00036	ff 15 00 00 00
	00		 call	 DWORD PTR __imp_??1?$CStringT@DV?$StrTraitMFC_DLL@DV?$ChTraitsCRT@D@ATL@@@@@ATL@@QAE@XZ
  0003c	f6 45 08 01	 test	 BYTE PTR ___flags$[ebp], 1
  00040	74 0e		 je	 SHORT $LN25@scalar
  00042	68 b0 00 00 00	 push	 176			; 000000b0H
  00047	56		 push	 esi
  00048	e8 00 00 00 00	 call	 ??3@YAXPAXI@Z		; operator delete
  0004d	83 c4 08	 add	 esp, 8
$LN25@scalar:
  00050	8b c6		 mov	 eax, esi
  00052	5e		 pop	 esi
  00053	5d		 pop	 ebp
  00054	c2 04 00	 ret	 4
??_GCLinearRegression@@UAEPAXI@Z ENDP			; CLinearRegression::`scalar deleting destructor'
_TEXT	ENDS
; Function compile flags: /Ogtp
; File D:\git\src\IBK\IBK_DRFN\ProjSrc\SrcChartEx\ChartAddIn\ChartAnalysisToolAddIn\AnalysisTool\Line.cpp
; File C:\Program Files (x86)\Microsoft Visual Studio\2019\Community\VC\Tools\MSVC\14.29.30133\atlmfc\include\atltypes.h
; File D:\git\src\IBK\IBK_DRFN\ProjSrc\SrcChartEx\ChartAddIn\ChartAnalysisToolAddIn\AnalysisTool\Line.cpp
; File C:\Program Files (x86)\Microsoft Visual Studio\2019\Community\VC\Tools\MSVC\14.29.30133\atlmfc\include\atltypes.h
; File D:\git\src\IBK\IBK_DRFN\ProjSrc\SrcChartEx\ChartAddIn\ChartAnalysisToolAddIn\AnalysisTool\Line.cpp
;	COMDAT ?GetModifyType@CLinearRegression@@MBE?AW4ModifyType@CToolEnumData@@ABVCRect@@ABVCPoint@@11@Z
_TEXT	SEGMENT
$T2 = -152						; size = 72
$T3 = -152						; size = 72
$T4 = -80						; size = 8
$T5 = -72						; size = 8
_point$GSCopy$1$ = -64					; size = 4
_drawingStartPt$GSCopy$1$ = -60				; size = 4
_ptStart$ = -56						; size = 8
_ptEnd$ = -48						; size = 8
_region$GSCopy$1$ = -40					; size = 4
_drawingEndPt$GSCopy$1$ = -36				; size = 4
_rctExtLineRect$ = -32					; size = 16
__$ArrayPad$ = -16					; size = 4
__$EHRec$ = -12						; size = 12
_region$ = 8						; size = 4
_drawingStartPt$ = 12					; size = 4
_drawingEndPt$ = 16					; size = 4
_point$ = 20						; size = 4
?GetModifyType@CLinearRegression@@MBE?AW4ModifyType@CToolEnumData@@ABVCRect@@ABVCPoint@@11@Z PROC ; CLinearRegression::GetModifyType, COMDAT
; _this$ = ecx

; 931  : {

  00000	55		 push	 ebp
  00001	8b ec		 mov	 ebp, esp
  00003	6a ff		 push	 -1
  00005	68 00 00 00 00	 push	 __ehhandler$?GetModifyType@CLinearRegression@@MBE?AW4ModifyType@CToolEnumData@@ABVCRect@@ABVCPoint@@11@Z
  0000a	64 a1 00 00 00
	00		 mov	 eax, DWORD PTR fs:0
  00010	50		 push	 eax
  00011	81 ec 8c 00 00
	00		 sub	 esp, 140		; 0000008cH
  00017	a1 00 00 00 00	 mov	 eax, DWORD PTR ___security_cookie
  0001c	33 c5		 xor	 eax, ebp
  0001e	89 45 f0	 mov	 DWORD PTR __$ArrayPad$[ebp], eax
  00021	53		 push	 ebx
  00022	56		 push	 esi
  00023	57		 push	 edi
  00024	50		 push	 eax
  00025	8d 45 f4	 lea	 eax, DWORD PTR __$EHRec$[ebp]
  00028	64 a3 00 00 00
	00		 mov	 DWORD PTR fs:0, eax
  0002e	8b d9		 mov	 ebx, ecx
  00030	8b 45 08	 mov	 eax, DWORD PTR _region$[ebp]
  00033	8b 75 14	 mov	 esi, DWORD PTR _point$[ebp]
  00036	8b 7d 0c	 mov	 edi, DWORD PTR _drawingStartPt$[ebp]

; 932  : 	// element 
; 933  : 	CToolEnumData::ModifyType modifyType = CTwoPointElement::GetModifyType_SidePoints(drawingStartPt, drawingEndPt, point);

  00039	56		 push	 esi
  0003a	89 45 d8	 mov	 DWORD PTR _region$GSCopy$1$[ebp], eax
  0003d	8b 45 10	 mov	 eax, DWORD PTR _drawingEndPt$[ebp]
  00040	50		 push	 eax
  00041	57		 push	 edi
  00042	89 7d c4	 mov	 DWORD PTR _drawingStartPt$GSCopy$1$[ebp], edi
  00045	89 45 dc	 mov	 DWORD PTR _drawingEndPt$GSCopy$1$[ebp], eax
  00048	89 75 c0	 mov	 DWORD PTR _point$GSCopy$1$[ebp], esi
  0004b	e8 00 00 00 00	 call	 ?GetModifyType_SidePoints@CTwoPointElement@@IBE?AW4ModifyType@CToolEnumData@@ABVCPoint@@00@Z ; CTwoPointElement::GetModifyType_SidePoints

; 934  : 	if(modifyType != CToolEnumData::MODIFY_NONE)

  00050	85 c0		 test	 eax, eax
  00052	0f 85 19 01 00
	00		 jne	 $LN1@GetModifyT

; 935  : 		return modifyType;
; 936  : 
; 937  : 	CPoint ptStart(drawingStartPt);
; 938  : 	CPoint ptEnd(drawingStartPt);
; 939  : 	ptStart.y = region.top;

  00058	8b 4d d8	 mov	 ecx, DWORD PTR _region$GSCopy$1$[ebp]
  0005b	8b 07		 mov	 eax, DWORD PTR [edi]
  0005d	89 45 c8	 mov	 DWORD PTR _ptStart$[ebp], eax
  00060	89 45 d0	 mov	 DWORD PTR _ptEnd$[ebp], eax
  00063	8b 41 04	 mov	 eax, DWORD PTR [ecx+4]
  00066	89 45 cc	 mov	 DWORD PTR _ptStart$[ebp+4], eax

; 940  : 	ptEnd.y = region.bottom;

  00069	8b 41 0c	 mov	 eax, DWORD PTR [ecx+12]

; 941  : 	if(CElement::PointInElementSelectableRegion(ptStart, ptEnd, point))

  0006c	8b cb		 mov	 ecx, ebx
  0006e	89 45 d4	 mov	 DWORD PTR _ptEnd$[ebp+4], eax
  00071	8d 45 d0	 lea	 eax, DWORD PTR _ptEnd$[ebp]
  00074	56		 push	 esi
  00075	50		 push	 eax
  00076	8d 45 c8	 lea	 eax, DWORD PTR _ptStart$[ebp]
  00079	50		 push	 eax
  0007a	e8 00 00 00 00	 call	 ?PointInElementSelectableRegion@CElement@@IBE_NABVCPoint@@00@Z ; CElement::PointInElementSelectableRegion
  0007f	84 c0		 test	 al, al
  00081	0f 85 e5 00 00
	00		 jne	 $LN24@GetModifyT

; 942  : 		return CToolEnumData::MODIFY_CENTER;
; 943  : 
; 944  : 	ptStart.x = drawingEndPt.x;

  00087	8b 45 dc	 mov	 eax, DWORD PTR _drawingEndPt$GSCopy$1$[ebp]

; 945  : 	ptEnd.x = drawingEndPt.x;
; 946  : 	if(CElement::PointInElementSelectableRegion(ptStart, ptEnd, point))

  0008a	8b cb		 mov	 ecx, ebx
  0008c	56		 push	 esi
  0008d	8b 00		 mov	 eax, DWORD PTR [eax]
  0008f	89 45 c8	 mov	 DWORD PTR _ptStart$[ebp], eax
  00092	89 45 d0	 mov	 DWORD PTR _ptEnd$[ebp], eax
  00095	8d 45 d0	 lea	 eax, DWORD PTR _ptEnd$[ebp]
  00098	50		 push	 eax
  00099	8d 45 c8	 lea	 eax, DWORD PTR _ptStart$[ebp]
  0009c	50		 push	 eax
  0009d	e8 00 00 00 00	 call	 ?PointInElementSelectableRegion@CElement@@IBE_NABVCPoint@@00@Z ; CElement::PointInElementSelectableRegion
  000a2	84 c0		 test	 al, al
  000a4	0f 85 c2 00 00
	00		 jne	 $LN24@GetModifyT

; 948  : 
; 949  : 	BOOL bLeftExt = GetCommonEnvironment().IsLeftLineExt();

  000aa	8d 85 68 ff ff
	ff		 lea	 eax, DWORD PTR $T3[ebp]
  000b0	8b cb		 mov	 ecx, ebx
  000b2	50		 push	 eax
  000b3	e8 00 00 00 00	 call	 ?GetCommonEnvironment@CElement@@QBE?AVCElementCommonEnvironment@@XZ ; CElement::GetCommonEnvironment
  000b8	8b c8		 mov	 ecx, eax
  000ba	c7 45 fc 00 00
	00 00		 mov	 DWORD PTR __$EHRec$[ebp+8], 0
  000c1	e8 00 00 00 00	 call	 ?IsLeftLineExt@CElementCommonEnvironment@@QBEHXZ ; CElementCommonEnvironment::IsLeftLineExt
  000c6	8d 4d a0	 lea	 ecx, DWORD PTR $T3[ebp+56]
  000c9	c7 45 fc ff ff
	ff ff		 mov	 DWORD PTR __$EHRec$[ebp+8], -1
  000d0	8b f8		 mov	 edi, eax
  000d2	ff 15 00 00 00
	00		 call	 DWORD PTR __imp_??1?$CStringT@DV?$StrTraitMFC_DLL@DV?$ChTraitsCRT@D@ATL@@@@@ATL@@QAE@XZ
  000d8	8d 4d 9c	 lea	 ecx, DWORD PTR $T3[ebp+52]
  000db	ff 15 00 00 00
	00		 call	 DWORD PTR __imp_??1?$CStringT@DV?$StrTraitMFC_DLL@DV?$ChTraitsCRT@D@ATL@@@@@ATL@@QAE@XZ
  000e1	8d 4d 98	 lea	 ecx, DWORD PTR $T3[ebp+48]
  000e4	ff 15 00 00 00
	00		 call	 DWORD PTR __imp_??1?$CStringT@DV?$StrTraitMFC_DLL@DV?$ChTraitsCRT@D@ATL@@@@@ATL@@QAE@XZ

; 950  : 	BOOL bRightExt = GetCommonEnvironment().IsRightLineExt();

  000ea	8d 85 68 ff ff
	ff		 lea	 eax, DWORD PTR $T2[ebp]
  000f0	8b cb		 mov	 ecx, ebx
  000f2	50		 push	 eax
  000f3	e8 00 00 00 00	 call	 ?GetCommonEnvironment@CElement@@QBE?AVCElementCommonEnvironment@@XZ ; CElement::GetCommonEnvironment
  000f8	8b c8		 mov	 ecx, eax
  000fa	c7 45 fc 01 00
	00 00		 mov	 DWORD PTR __$EHRec$[ebp+8], 1
  00101	e8 00 00 00 00	 call	 ?IsRightLineExt@CElementCommonEnvironment@@QBEHXZ ; CElementCommonEnvironment::IsRightLineExt
  00106	8d 4d a0	 lea	 ecx, DWORD PTR $T2[ebp+56]
  00109	c7 45 fc ff ff
	ff ff		 mov	 DWORD PTR __$EHRec$[ebp+8], -1
  00110	8b f0		 mov	 esi, eax
  00112	ff 15 00 00 00
	00		 call	 DWORD PTR __imp_??1?$CStringT@DV?$StrTraitMFC_DLL@DV?$ChTraitsCRT@D@ATL@@@@@ATL@@QAE@XZ
  00118	8d 4d 9c	 lea	 ecx, DWORD PTR $T2[ebp+52]
  0011b	ff 15 00 00 00
	00		 call	 DWORD PTR __imp_??1?$CStringT@DV?$StrTraitMFC_DLL@DV?$ChTraitsCRT@D@ATL@@@@@ATL@@QAE@XZ
  00121	8d 4d 98	 lea	 ecx, DWORD PTR $T2[ebp+48]
  00124	ff 15 00 00 00
	00		 call	 DWORD PTR __imp_??1?$CStringT@DV?$StrTraitMFC_DLL@DV?$ChTraitsCRT@D@ATL@@@@@ATL@@QAE@XZ

; 951  : 			
; 952  : 	CRect rctExtLineRect = CElement::GetLineRect(region,drawingStartPt,drawingEndPt,bLeftExt,bRightExt);	

  0012a	56		 push	 esi
  0012b	57		 push	 edi
  0012c	ff 75 dc	 push	 DWORD PTR _drawingEndPt$GSCopy$1$[ebp]
  0012f	8d 45 e0	 lea	 eax, DWORD PTR _rctExtLineRect$[ebp]
  00132	8b cb		 mov	 ecx, ebx
  00134	ff 75 c4	 push	 DWORD PTR _drawingStartPt$GSCopy$1$[ebp]
  00137	ff 75 d8	 push	 DWORD PTR _region$GSCopy$1$[ebp]
  0013a	50		 push	 eax
  0013b	e8 00 00 00 00	 call	 ?GetLineRect@CElement@@IBE?AVCRect@@ABV2@ABVCPoint@@1HH@Z ; CElement::GetLineRect
; File C:\Program Files (x86)\Microsoft Visual Studio\2019\Community\VC\Tools\MSVC\14.29.30133\atlmfc\include\atltypes.h

; 408  : 	x = initX;

  00140	8b 45 e8	 mov	 eax, DWORD PTR _rctExtLineRect$[ebp+8]
; File D:\git\src\IBK\IBK_DRFN\ProjSrc\SrcChartEx\ChartAddIn\ChartAnalysisToolAddIn\AnalysisTool\Line.cpp

; 953  : 	return GetModifyType_Line(	CPoint( rctExtLineRect.left, rctExtLineRect.bottom),

  00143	8b cb		 mov	 ecx, ebx
  00145	ff 75 c0	 push	 DWORD PTR _point$GSCopy$1$[ebp]
; File C:\Program Files (x86)\Microsoft Visual Studio\2019\Community\VC\Tools\MSVC\14.29.30133\atlmfc\include\atltypes.h

; 408  : 	x = initX;

  00148	89 45 b8	 mov	 DWORD PTR $T5[ebp], eax

; 409  : 	y = initY;

  0014b	8b 45 e4	 mov	 eax, DWORD PTR _rctExtLineRect$[ebp+4]
  0014e	89 45 bc	 mov	 DWORD PTR $T5[ebp+4], eax

; 408  : 	x = initX;

  00151	8b 45 e0	 mov	 eax, DWORD PTR _rctExtLineRect$[ebp]
  00154	89 45 b0	 mov	 DWORD PTR $T4[ebp], eax

; 409  : 	y = initY;

  00157	8b 45 ec	 mov	 eax, DWORD PTR _rctExtLineRect$[ebp+12]
  0015a	89 45 b4	 mov	 DWORD PTR $T4[ebp+4], eax
; File D:\git\src\IBK\IBK_DRFN\ProjSrc\SrcChartEx\ChartAddIn\ChartAnalysisToolAddIn\AnalysisTool\Line.cpp

; 953  : 	return GetModifyType_Line(	CPoint( rctExtLineRect.left, rctExtLineRect.bottom),

  0015d	8d 45 b8	 lea	 eax, DWORD PTR $T5[ebp]
  00160	50		 push	 eax
  00161	8d 45 b0	 lea	 eax, DWORD PTR $T4[ebp]
  00164	50		 push	 eax
  00165	e8 00 00 00 00	 call	 ?GetModifyType_Line@CTwoPointElement@@IBE?AW4ModifyType@CToolEnumData@@ABVCPoint@@00@Z ; CTwoPointElement::GetModifyType_Line
  0016a	eb 05		 jmp	 SHORT $LN1@GetModifyT
$LN24@GetModifyT:

; 947  : 		return CToolEnumData::MODIFY_CENTER;

  0016c	b8 01 00 00 00	 mov	 eax, 1
$LN1@GetModifyT:

; 954  : 								CPoint( rctExtLineRect.right, rctExtLineRect.top), point);
; 955  : }

  00171	8b 4d f4	 mov	 ecx, DWORD PTR __$EHRec$[ebp]
  00174	64 89 0d 00 00
	00 00		 mov	 DWORD PTR fs:0, ecx
  0017b	59		 pop	 ecx
  0017c	5f		 pop	 edi
  0017d	5e		 pop	 esi
  0017e	5b		 pop	 ebx
  0017f	8b 4d f0	 mov	 ecx, DWORD PTR __$ArrayPad$[ebp]
  00182	33 cd		 xor	 ecx, ebp
  00184	e8 00 00 00 00	 call	 @__security_check_cookie@4
  00189	8b e5		 mov	 esp, ebp
  0018b	5d		 pop	 ebp
  0018c	c2 10 00	 ret	 16			; 00000010H
_TEXT	ENDS
;	COMDAT text$x
text$x	SEGMENT
__unwindfunclet$?GetModifyType@CLinearRegression@@MBE?AW4ModifyType@CToolEnumData@@ABVCRect@@ABVCPoint@@11@Z$0:
  00000	8d 8d 68 ff ff
	ff		 lea	 ecx, DWORD PTR $T3[ebp]
  00006	e9 00 00 00 00	 jmp	 ??1CElementCommonEnvironment@@QAE@XZ
__unwindfunclet$?GetModifyType@CLinearRegression@@MBE?AW4ModifyType@CToolEnumData@@ABVCRect@@ABVCPoint@@11@Z$1:
  0000b	8d 8d 68 ff ff
	ff		 lea	 ecx, DWORD PTR $T2[ebp]
  00011	e9 00 00 00 00	 jmp	 ??1CElementCommonEnvironment@@QAE@XZ
  00016	cc		 int	 3
  00017	cc		 int	 3
  00018	cc		 int	 3
  00019	cc		 int	 3
  0001a	cc		 int	 3
__ehhandler$?GetModifyType@CLinearRegression@@MBE?AW4ModifyType@CToolEnumData@@ABVCRect@@ABVCPoint@@11@Z:
  0001b	90		 npad	 1
  0001c	90		 npad	 1
  0001d	8b 54 24 08	 mov	 edx, DWORD PTR [esp+8]
  00021	8d 42 0c	 lea	 eax, DWORD PTR [edx+12]
  00024	8b 8a 64 ff ff
	ff		 mov	 ecx, DWORD PTR [edx-156]
  0002a	33 c8		 xor	 ecx, eax
  0002c	e8 00 00 00 00	 call	 @__security_check_cookie@4
  00031	8b 4a fc	 mov	 ecx, DWORD PTR [edx-4]
  00034	33 c8		 xor	 ecx, eax
  00036	e8 00 00 00 00	 call	 @__security_check_cookie@4
  0003b	b8 00 00 00 00	 mov	 eax, OFFSET __ehfuncinfo$?GetModifyType@CLinearRegression@@MBE?AW4ModifyType@CToolEnumData@@ABVCRect@@ABVCPoint@@11@Z
  00040	e9 00 00 00 00	 jmp	 ___CxxFrameHandler3
text$x	ENDS
?GetModifyType@CLinearRegression@@MBE?AW4ModifyType@CToolEnumData@@ABVCRect@@ABVCPoint@@11@Z ENDP ; CLinearRegression::GetModifyType
; Function compile flags: /Ogtp
; File D:\git\src\IBK\IBK_DRFN\ProjSrc\SrcChartEx\ChartAddIn\ChartAnalysisToolAddIn\AnalysisTool\Line.cpp
;	COMDAT ?GetTwoPointDrawer@CLinearRegression@@MAEAAVCTwoPointDrawer@@XZ
_TEXT	SEGMENT
?GetTwoPointDrawer@CLinearRegression@@MAEAAVCTwoPointDrawer@@XZ PROC ; CLinearRegression::GetTwoPointDrawer, COMDAT
; _this$ = ecx

; 915  : 	return m_linearRegressionDrawer;

  00000	8d 81 90 00 00
	00		 lea	 eax, DWORD PTR [ecx+144]

; 916  : }

  00006	c3		 ret	 0
?GetTwoPointDrawer@CLinearRegression@@MAEAAVCTwoPointDrawer@@XZ ENDP ; CLinearRegression::GetTwoPointDrawer
_TEXT	ENDS
; Function compile flags: /Ogtp
; File D:\git\src\IBK\IBK_DRFN\ProjSrc\SrcChartEx\ChartAddIn\ChartAnalysisToolAddIn\AnalysisTool\Line.cpp
;	COMDAT ?GetElementType@CLinearRegression@@UBE?AW4ElementType@CToolEnumData@@XZ
_TEXT	SEGMENT
?GetElementType@CLinearRegression@@UBE?AW4ElementType@CToolEnumData@@XZ PROC ; CLinearRegression::GetElementType, COMDAT
; _this$ = ecx

; 894  : 	return CToolEnumData::Linear_Regression;

  00000	b8 1b 00 00 00	 mov	 eax, 27			; 0000001bH

; 895  : }

  00005	c3		 ret	 0
?GetElementType@CLinearRegression@@UBE?AW4ElementType@CToolEnumData@@XZ ENDP ; CLinearRegression::GetElementType
_TEXT	ENDS
; Function compile flags: /Ogtp
; File D:\git\src\IBK\IBK_DRFN\ProjSrc\SrcChartEx\ChartAddIn\ChartAnalysisToolAddIn\AnalysisTool\Line.cpp
;	COMDAT ?GetCoordinate@CLinearRegression@@UBE?AVCCoordinate@@W4ModifyType@CToolEnumData@@@Z
_TEXT	SEGMENT
_coordValue$ = -44					; size = 32
__$EHRec$ = -12						; size = 12
___$ReturnUdt$ = 8					; size = 4
_eModifyType$ = 12					; size = 4
?GetCoordinate@CLinearRegression@@UBE?AVCCoordinate@@W4ModifyType@CToolEnumData@@@Z PROC ; CLinearRegression::GetCoordinate, COMDAT
; _this$ = ecx

; 898  : {

  00000	55		 push	 ebp
  00001	8b ec		 mov	 ebp, esp
  00003	6a ff		 push	 -1
  00005	68 00 00 00 00	 push	 __ehhandler$?GetCoordinate@CLinearRegression@@UBE?AVCCoordinate@@W4ModifyType@CToolEnumData@@@Z
  0000a	64 a1 00 00 00
	00		 mov	 eax, DWORD PTR fs:0
  00010	50		 push	 eax
  00011	83 ec 20	 sub	 esp, 32			; 00000020H
  00014	56		 push	 esi
  00015	57		 push	 edi
  00016	a1 00 00 00 00	 mov	 eax, DWORD PTR ___security_cookie
  0001b	33 c5		 xor	 eax, ebp
  0001d	50		 push	 eax
  0001e	8d 45 f4	 lea	 eax, DWORD PTR __$EHRec$[ebp]
  00021	64 a3 00 00 00
	00		 mov	 DWORD PTR fs:0, eax
  00027	8b f9		 mov	 edi, ecx

; 899  : 	CCoordinate coordValue;

  00029	8d 4d d4	 lea	 ecx, DWORD PTR _coordValue$[ebp]
  0002c	e8 00 00 00 00	 call	 ??0CCoordinate@@QAE@XZ	; CCoordinate::CCoordinate

; 900  : 	if(eModifyType == CToolEnumData::MODIFY_START)

  00031	8b 45 0c	 mov	 eax, DWORD PTR _eModifyType$[ebp]
  00034	c7 45 fc 00 00
	00 00		 mov	 DWORD PTR __$EHRec$[ebp+8], 0
  0003b	83 f8 02	 cmp	 eax, 2
  0003e	75 29		 jne	 SHORT $LN2@GetCoordin

; 901  : 	{
; 902  : 		return GetStartPoint();

  00040	8b 75 08	 mov	 esi, DWORD PTR ___$ReturnUdt$[ebp]
  00043	8b cf		 mov	 ecx, edi
  00045	56		 push	 esi
  00046	e8 00 00 00 00	 call	 ?GetStartPoint@CTwoPointElement@@IBE?AVCCoordinate@@XZ ; CTwoPointElement::GetStartPoint
  0004b	8d 4d e8	 lea	 ecx, DWORD PTR _coordValue$[ebp+20]
  0004e	ff 15 00 00 00
	00		 call	 DWORD PTR __imp_??1?$CStringT@DV?$StrTraitMFC_DLL@DV?$ChTraitsCRT@D@ATL@@@@@ATL@@QAE@XZ
  00054	8b c6		 mov	 eax, esi

; 910  : }

  00056	8b 4d f4	 mov	 ecx, DWORD PTR __$EHRec$[ebp]
  00059	64 89 0d 00 00
	00 00		 mov	 DWORD PTR fs:0, ecx
  00060	59		 pop	 ecx
  00061	5f		 pop	 edi
  00062	5e		 pop	 esi
  00063	8b e5		 mov	 esp, ebp
  00065	5d		 pop	 ebp
  00066	c2 08 00	 ret	 8
$LN2@GetCoordin:

; 903  : 	}
; 904  : 	else if(eModifyType == CToolEnumData::MODIFY_END)

  00069	83 f8 04	 cmp	 eax, 4
  0006c	75 29		 jne	 SHORT $LN4@GetCoordin

; 905  : 	{
; 906  : 		return GetEndPoint();

  0006e	8b 75 08	 mov	 esi, DWORD PTR ___$ReturnUdt$[ebp]
  00071	8b cf		 mov	 ecx, edi
  00073	56		 push	 esi
  00074	e8 00 00 00 00	 call	 ?GetEndPoint@CTwoPointElement@@IBE?AVCCoordinate@@XZ ; CTwoPointElement::GetEndPoint
  00079	8d 4d e8	 lea	 ecx, DWORD PTR _coordValue$[ebp+20]
  0007c	ff 15 00 00 00
	00		 call	 DWORD PTR __imp_??1?$CStringT@DV?$StrTraitMFC_DLL@DV?$ChTraitsCRT@D@ATL@@@@@ATL@@QAE@XZ
  00082	8b c6		 mov	 eax, esi

; 910  : }

  00084	8b 4d f4	 mov	 ecx, DWORD PTR __$EHRec$[ebp]
  00087	64 89 0d 00 00
	00 00		 mov	 DWORD PTR fs:0, ecx
  0008e	59		 pop	 ecx
  0008f	5f		 pop	 edi
  00090	5e		 pop	 esi
  00091	8b e5		 mov	 esp, ebp
  00093	5d		 pop	 ebp
  00094	c2 08 00	 ret	 8
$LN4@GetCoordin:

; 907  : 	}
; 908  : 
; 909  : 	return coordValue;

  00097	8b 4d 08	 mov	 ecx, DWORD PTR ___$ReturnUdt$[ebp]
  0009a	8d 45 d4	 lea	 eax, DWORD PTR _coordValue$[ebp]
  0009d	50		 push	 eax
  0009e	e8 00 00 00 00	 call	 ??0CCoordinate@@QAE@ABV0@@Z ; CCoordinate::CCoordinate
  000a3	8d 4d e8	 lea	 ecx, DWORD PTR _coordValue$[ebp+20]
  000a6	ff 15 00 00 00
	00		 call	 DWORD PTR __imp_??1?$CStringT@DV?$StrTraitMFC_DLL@DV?$ChTraitsCRT@D@ATL@@@@@ATL@@QAE@XZ
  000ac	8b 45 08	 mov	 eax, DWORD PTR ___$ReturnUdt$[ebp]

; 910  : }

  000af	8b 4d f4	 mov	 ecx, DWORD PTR __$EHRec$[ebp]
  000b2	64 89 0d 00 00
	00 00		 mov	 DWORD PTR fs:0, ecx
  000b9	59		 pop	 ecx
  000ba	5f		 pop	 edi
  000bb	5e		 pop	 esi
  000bc	8b e5		 mov	 esp, ebp
  000be	5d		 pop	 ebp
  000bf	c2 08 00	 ret	 8
_TEXT	ENDS
;	COMDAT text$x
text$x	SEGMENT
__unwindfunclet$?GetCoordinate@CLinearRegression@@UBE?AVCCoordinate@@W4ModifyType@CToolEnumData@@@Z$0:
  00000	8d 4d d4	 lea	 ecx, DWORD PTR _coordValue$[ebp]
  00003	e9 00 00 00 00	 jmp	 ??1CCoordinate@@QAE@XZ
  00008	cc		 int	 3
  00009	cc		 int	 3
  0000a	cc		 int	 3
  0000b	cc		 int	 3
  0000c	cc		 int	 3
__ehhandler$?GetCoordinate@CLinearRegression@@UBE?AVCCoordinate@@W4ModifyType@CToolEnumData@@@Z:
  0000d	90		 npad	 1
  0000e	90		 npad	 1
  0000f	8b 54 24 08	 mov	 edx, DWORD PTR [esp+8]
  00013	8d 42 0c	 lea	 eax, DWORD PTR [edx+12]
  00016	8b 4a d4	 mov	 ecx, DWORD PTR [edx-44]
  00019	33 c8		 xor	 ecx, eax
  0001b	e8 00 00 00 00	 call	 @__security_check_cookie@4
  00020	b8 00 00 00 00	 mov	 eax, OFFSET __ehfuncinfo$?GetCoordinate@CLinearRegression@@UBE?AVCCoordinate@@W4ModifyType@CToolEnumData@@@Z
  00025	e9 00 00 00 00	 jmp	 ___CxxFrameHandler3
text$x	ENDS
?GetCoordinate@CLinearRegression@@UBE?AVCCoordinate@@W4ModifyType@CToolEnumData@@@Z ENDP ; CLinearRegression::GetCoordinate
; Function compile flags: /Ogtp
; File D:\git\src\IBK\IBK_DRFN\ProjSrc\SrcChartEx\ChartAddIn\ChartAnalysisToolAddIn\AnalysisTool\Line.cpp
;	COMDAT ?ElementModify_YValue@CLinearRegression@@UAEXABVCElementModifyData@@@Z
_TEXT	SEGMENT
_elementModifyData$ = 8					; size = 4
?ElementModify_YValue@CLinearRegression@@UAEXABVCElementModifyData@@@Z PROC ; CLinearRegression::ElementModify_YValue, COMDAT
; _this$ = ecx

; 890  : }

  00000	c2 04 00	 ret	 4
?ElementModify_YValue@CLinearRegression@@UAEXABVCElementModifyData@@@Z ENDP ; CLinearRegression::ElementModify_YValue
_TEXT	ENDS
; Function compile flags: /Ogtp
; File D:\git\src\IBK\IBK_DRFN\ProjSrc\SrcChartEx\ChartAddIn\ChartAnalysisToolAddIn\AnalysisTool\Line.cpp
;	COMDAT ?ElementModify_Coordinate@CLinearRegression@@UAEXABVCCoordinate@@W4ModifyType@CToolEnumData@@@Z
_TEXT	SEGMENT
$T1 = -8						; size = 8
$T2 = -8						; size = 8
_coordValue$ = 8					; size = 4
_eModifyType$ = 12					; size = 4
?ElementModify_Coordinate@CLinearRegression@@UAEXABVCCoordinate@@W4ModifyType@CToolEnumData@@@Z PROC ; CLinearRegression::ElementModify_Coordinate, COMDAT
; _this$ = ecx

; 873  : {

  00000	55		 push	 ebp
  00001	8b ec		 mov	 ebp, esp

; 874  : 	//LinearRegression  Y    -   
; 875  : 	switch(eModifyType)

  00003	8b 45 0c	 mov	 eax, DWORD PTR _eModifyType$[ebp]
  00006	83 ec 08	 sub	 esp, 8
  00009	57		 push	 edi
  0000a	8b f9		 mov	 edi, ecx
  0000c	83 e8 01	 sub	 eax, 1
  0000f	74 0a		 je	 SHORT $LN4@ElementMod
  00011	83 e8 01	 sub	 eax, 1
  00014	74 05		 je	 SHORT $LN4@ElementMod
  00016	83 e8 02	 sub	 eax, 2
  00019	75 3a		 jne	 SHORT $LN7@ElementMod
$LN4@ElementMod:

; 876  : 	{
; 877  : 	case CToolEnumData::MODIFY_START:
; 878  : 	case CToolEnumData::MODIFY_END:
; 879  : 	case CToolEnumData::MODIFY_CENTER:
; 880  : 		CTwoPointElement::GetStartPoint().SetY(coordValue.GetX());

  0001b	8b 4d 08	 mov	 ecx, DWORD PTR _coordValue$[ebp]
  0001e	e8 00 00 00 00	 call	 ?GetX@CCoordinate@@QBENXZ ; CCoordinate::GetX
  00023	8d 45 f8	 lea	 eax, DWORD PTR $T2[ebp]
  00026	8b cf		 mov	 ecx, edi
  00028	50		 push	 eax
  00029	dd 5d f8	 fstp	 QWORD PTR $T2[ebp]
  0002c	e8 00 00 00 00	 call	 ?GetStartPoint@CTwoPointElement@@IAEAAVCCoordinate@@XZ ; CTwoPointElement::GetStartPoint
  00031	8b c8		 mov	 ecx, eax
  00033	e8 00 00 00 00	 call	 ?SetY@CCoordinate@@QAEXABN@Z ; CCoordinate::SetY

; 881  : 		CTwoPointElement::GetEndPoint().SetY(coordValue.GetY());

  00038	8b 4d 08	 mov	 ecx, DWORD PTR _coordValue$[ebp]
  0003b	e8 00 00 00 00	 call	 ?GetY@CCoordinate@@QBENXZ ; CCoordinate::GetY
  00040	8d 45 f8	 lea	 eax, DWORD PTR $T1[ebp]
  00043	8b cf		 mov	 ecx, edi
  00045	50		 push	 eax
  00046	dd 5d f8	 fstp	 QWORD PTR $T1[ebp]
  00049	e8 00 00 00 00	 call	 ?GetEndPoint@CTwoPointElement@@IAEAAVCCoordinate@@XZ ; CTwoPointElement::GetEndPoint
  0004e	8b c8		 mov	 ecx, eax
  00050	e8 00 00 00 00	 call	 ?SetY@CCoordinate@@QAEXABN@Z ; CCoordinate::SetY
$LN7@ElementMod:
  00055	5f		 pop	 edi

; 882  : 		break;
; 883  : 	default:
; 884  : 		assert(false);
; 885  : 	}
; 886  : }

  00056	8b e5		 mov	 esp, ebp
  00058	5d		 pop	 ebp
  00059	c2 08 00	 ret	 8
?ElementModify_Coordinate@CLinearRegression@@UAEXABVCCoordinate@@W4ModifyType@CToolEnumData@@@Z ENDP ; CLinearRegression::ElementModify_Coordinate
_TEXT	ENDS
; Function compile flags: /Ogtp
; File D:\git\src\IBK\IBK_DRFN\ProjSrc\SrcChartEx\ChartAddIn\ChartAnalysisToolAddIn\AnalysisTool\Line.cpp
;	COMDAT ?ElementModify@CLinearRegression@@UAEXABVCElementModifyData@@@Z
_TEXT	SEGMENT
$T2 = -148						; size = 32
$T3 = -116						; size = 32
$T4 = -116						; size = 32
$T5 = -116						; size = 32
_startPoint$6 = -84					; size = 32
_endPoint$7 = -52					; size = 32
tv205 = -20						; size = 8
tv189 = -20						; size = 8
__$EHRec$ = -12						; size = 12
_elementModifyData$ = 8					; size = 4
?ElementModify@CLinearRegression@@UAEXABVCElementModifyData@@@Z PROC ; CLinearRegression::ElementModify, COMDAT
; _this$ = ecx

; 842  : {	

  00000	55		 push	 ebp
  00001	8b ec		 mov	 ebp, esp
  00003	6a ff		 push	 -1
  00005	68 00 00 00 00	 push	 __ehhandler$?ElementModify@CLinearRegression@@UAEXABVCElementModifyData@@@Z
  0000a	64 a1 00 00 00
	00		 mov	 eax, DWORD PTR fs:0
  00010	50		 push	 eax
  00011	81 ec 88 00 00
	00		 sub	 esp, 136		; 00000088H
  00017	56		 push	 esi
  00018	57		 push	 edi
  00019	a1 00 00 00 00	 mov	 eax, DWORD PTR ___security_cookie
  0001e	33 c5		 xor	 eax, ebp
  00020	50		 push	 eax
  00021	8d 45 f4	 lea	 eax, DWORD PTR __$EHRec$[ebp]
  00024	64 a3 00 00 00
	00		 mov	 DWORD PTR fs:0, eax
  0002a	8b f1		 mov	 esi, ecx

; 843  : 	//LinearRegression  Y    -   
; 844  : 	switch(elementModifyData.GetModifyType())

  0002c	8b 7d 08	 mov	 edi, DWORD PTR _elementModifyData$[ebp]
  0002f	8b cf		 mov	 ecx, edi
  00031	e8 00 00 00 00	 call	 ?GetModifyType@CElementModifyData@@QBE?AW4ModifyType@CToolEnumData@@XZ ; CElementModifyData::GetModifyType
  00036	83 e8 01	 sub	 eax, 1
  00039	74 62		 je	 SHORT $LN6@ElementMod
  0003b	83 e8 01	 sub	 eax, 1
  0003e	74 33		 je	 SHORT $LN4@ElementMod
  00040	83 e8 02	 sub	 eax, 2
  00043	0f 85 46 01 00
	00		 jne	 $LN45@ElementMod

; 849  : 	case CToolEnumData::MODIFY_END:
; 850  : 		CTwoPointElement::SetEndPoint(elementModifyData.GetModifyPoint(CTwoPointElement::GetEndPoint()));		

  00049	8b ce		 mov	 ecx, esi
  0004b	e8 00 00 00 00	 call	 ?GetEndPoint@CTwoPointElement@@IAEAAVCCoordinate@@XZ ; CTwoPointElement::GetEndPoint
  00050	50		 push	 eax
  00051	8d 45 8c	 lea	 eax, DWORD PTR $T4[ebp]
  00054	8b cf		 mov	 ecx, edi
  00056	50		 push	 eax
  00057	e8 00 00 00 00	 call	 ?GetModifyPoint@CElementModifyData@@QBE?AVCCoordinate@@ABV2@@Z ; CElementModifyData::GetModifyPoint
  0005c	50		 push	 eax
  0005d	8b ce		 mov	 ecx, esi
  0005f	c7 45 fc 01 00
	00 00		 mov	 DWORD PTR __$EHRec$[ebp+8], 1
  00066	e8 00 00 00 00	 call	 ?SetEndPoint@CTwoPointElement@@IAEXABVCCoordinate@@@Z ; CTwoPointElement::SetEndPoint
  0006b	8d 4d a0	 lea	 ecx, DWORD PTR $T4[ebp+20]

; 851  : 		break;

  0006e	e9 16 01 00 00	 jmp	 $LN48@ElementMod
$LN4@ElementMod:

; 845  : 	{
; 846  : 	case CToolEnumData::MODIFY_START:		
; 847  : 		CTwoPointElement::SetStartPoint(elementModifyData.GetModifyPoint(CTwoPointElement::GetStartPoint()));

  00073	8b ce		 mov	 ecx, esi
  00075	e8 00 00 00 00	 call	 ?GetStartPoint@CTwoPointElement@@IAEAAVCCoordinate@@XZ ; CTwoPointElement::GetStartPoint
  0007a	50		 push	 eax
  0007b	8d 45 8c	 lea	 eax, DWORD PTR $T5[ebp]
  0007e	8b cf		 mov	 ecx, edi
  00080	50		 push	 eax
  00081	e8 00 00 00 00	 call	 ?GetModifyPoint@CElementModifyData@@QBE?AVCCoordinate@@ABV2@@Z ; CElementModifyData::GetModifyPoint
  00086	50		 push	 eax
  00087	8b ce		 mov	 ecx, esi
  00089	c7 45 fc 00 00
	00 00		 mov	 DWORD PTR __$EHRec$[ebp+8], 0
  00090	e8 00 00 00 00	 call	 ?SetStartPoint@CTwoPointElement@@IAEXABVCCoordinate@@@Z ; CTwoPointElement::SetStartPoint
  00095	8d 4d a0	 lea	 ecx, DWORD PTR $T5[ebp+20]

; 848  : 		break;

  00098	e9 ec 00 00 00	 jmp	 $LN48@ElementMod
$LN6@ElementMod:

; 852  : 	case CToolEnumData::MODIFY_CENTER:
; 853  : 		{
; 854  : 			// (2008/8/12 - Seung-Won, Bae) Do not move to outside as future.
; 855  : 			CCoordinate startPoint, endPoint;

  0009d	8d 4d ac	 lea	 ecx, DWORD PTR _startPoint$6[ebp]
  000a0	e8 00 00 00 00	 call	 ??0CCoordinate@@QAE@XZ	; CCoordinate::CCoordinate
  000a5	8d 4d cc	 lea	 ecx, DWORD PTR _endPoint$7[ebp]
  000a8	c7 45 fc 02 00
	00 00		 mov	 DWORD PTR __$EHRec$[ebp+8], 2
  000af	e8 00 00 00 00	 call	 ??0CCoordinate@@QAE@XZ	; CCoordinate::CCoordinate

; 856  : 			startPoint = elementModifyData.GetModifyPoint( CTwoPointElement::GetStartPoint());

  000b4	8b ce		 mov	 ecx, esi
  000b6	c6 45 fc 03	 mov	 BYTE PTR __$EHRec$[ebp+8], 3
  000ba	e8 00 00 00 00	 call	 ?GetStartPoint@CTwoPointElement@@IAEAAVCCoordinate@@XZ ; CTwoPointElement::GetStartPoint
  000bf	50		 push	 eax
  000c0	8d 45 8c	 lea	 eax, DWORD PTR $T3[ebp]
  000c3	8b cf		 mov	 ecx, edi
  000c5	50		 push	 eax
  000c6	e8 00 00 00 00	 call	 ?GetModifyPoint@CElementModifyData@@QBE?AVCCoordinate@@ABV2@@Z ; CElementModifyData::GetModifyPoint
  000cb	50		 push	 eax
  000cc	8d 4d ac	 lea	 ecx, DWORD PTR _startPoint$6[ebp]
  000cf	c6 45 fc 04	 mov	 BYTE PTR __$EHRec$[ebp+8], 4
  000d3	e8 00 00 00 00	 call	 ??4CCoordinate@@QAEAAV0@ABV0@@Z ; CCoordinate::operator=
  000d8	8d 4d a0	 lea	 ecx, DWORD PTR $T3[ebp+20]
  000db	c6 45 fc 03	 mov	 BYTE PTR __$EHRec$[ebp+8], 3
  000df	ff 15 00 00 00
	00		 call	 DWORD PTR __imp_??1?$CStringT@DV?$StrTraitMFC_DLL@DV?$ChTraitsCRT@D@ATL@@@@@ATL@@QAE@XZ

; 857  : 			endPoint = elementModifyData.GetModifyPoint( CTwoPointElement::GetEndPoint());

  000e5	8b ce		 mov	 ecx, esi
  000e7	e8 00 00 00 00	 call	 ?GetEndPoint@CTwoPointElement@@IAEAAVCCoordinate@@XZ ; CTwoPointElement::GetEndPoint
  000ec	50		 push	 eax
  000ed	8d 85 6c ff ff
	ff		 lea	 eax, DWORD PTR $T2[ebp]
  000f3	8b cf		 mov	 ecx, edi
  000f5	50		 push	 eax
  000f6	e8 00 00 00 00	 call	 ?GetModifyPoint@CElementModifyData@@QBE?AVCCoordinate@@ABV2@@Z ; CElementModifyData::GetModifyPoint
  000fb	50		 push	 eax
  000fc	8d 4d cc	 lea	 ecx, DWORD PTR _endPoint$7[ebp]
  000ff	c6 45 fc 05	 mov	 BYTE PTR __$EHRec$[ebp+8], 5
  00103	e8 00 00 00 00	 call	 ??4CCoordinate@@QAEAAV0@ABV0@@Z ; CCoordinate::operator=
  00108	8d 4d 80	 lea	 ecx, DWORD PTR $T2[ebp+20]
  0010b	c6 45 fc 03	 mov	 BYTE PTR __$EHRec$[ebp+8], 3
  0010f	ff 15 00 00 00
	00		 call	 DWORD PTR __imp_??1?$CStringT@DV?$StrTraitMFC_DLL@DV?$ChTraitsCRT@D@ATL@@@@@ATL@@QAE@XZ

; 858  : 
; 859  : 			if( startPoint.GetX() == 0.0 || startPoint.GetIndex() < 0
; 860  : 				|| endPoint.GetX() == 0.0 || endPoint.GetIndex() < 0)

  00115	8d 4d ac	 lea	 ecx, DWORD PTR _startPoint$6[ebp]
  00118	e8 00 00 00 00	 call	 ?GetX@CCoordinate@@QBENXZ ; CCoordinate::GetX
  0011d	dd 5d ec	 fstp	 QWORD PTR tv205[ebp]
  00120	f2 0f 10 45 ec	 movsd	 xmm0, QWORD PTR tv205[ebp]
  00125	0f 57 c9	 xorps	 xmm1, xmm1
  00128	66 0f 2e c1	 ucomisd xmm0, xmm1
  0012c	9f		 lahf
  0012d	f6 c4 44	 test	 ah, 68			; 00000044H
  00130	7b 4b		 jnp	 SHORT $LN8@ElementMod
  00132	8d 4d ac	 lea	 ecx, DWORD PTR _startPoint$6[ebp]
  00135	e8 00 00 00 00	 call	 ?GetIndex@CCoordinate@@QBEHXZ ; CCoordinate::GetIndex
  0013a	85 c0		 test	 eax, eax
  0013c	78 3f		 js	 SHORT $LN8@ElementMod
  0013e	8d 4d cc	 lea	 ecx, DWORD PTR _endPoint$7[ebp]
  00141	e8 00 00 00 00	 call	 ?GetX@CCoordinate@@QBENXZ ; CCoordinate::GetX
  00146	dd 5d ec	 fstp	 QWORD PTR tv189[ebp]
  00149	f2 0f 10 45 ec	 movsd	 xmm0, QWORD PTR tv189[ebp]
  0014e	0f 57 c9	 xorps	 xmm1, xmm1
  00151	66 0f 2e c1	 ucomisd xmm0, xmm1
  00155	9f		 lahf
  00156	f6 c4 44	 test	 ah, 68			; 00000044H
  00159	7b 22		 jnp	 SHORT $LN8@ElementMod
  0015b	8d 4d cc	 lea	 ecx, DWORD PTR _endPoint$7[ebp]
  0015e	e8 00 00 00 00	 call	 ?GetIndex@CCoordinate@@QBEHXZ ; CCoordinate::GetIndex
  00163	85 c0		 test	 eax, eax
  00165	78 16		 js	 SHORT $LN8@ElementMod

; 861  : 				return;
; 862  : 
; 863  : 			CTwoPointElement::SetStartPoint( startPoint);

  00167	8d 45 ac	 lea	 eax, DWORD PTR _startPoint$6[ebp]
  0016a	8b ce		 mov	 ecx, esi
  0016c	50		 push	 eax
  0016d	e8 00 00 00 00	 call	 ?SetStartPoint@CTwoPointElement@@IAEXABVCCoordinate@@@Z ; CTwoPointElement::SetStartPoint

; 864  : 			CTwoPointElement::SetEndPoint( endPoint);		

  00172	8d 45 cc	 lea	 eax, DWORD PTR _endPoint$7[ebp]
  00175	8b ce		 mov	 ecx, esi
  00177	50		 push	 eax
  00178	e8 00 00 00 00	 call	 ?SetEndPoint@CTwoPointElement@@IAEXABVCCoordinate@@@Z ; CTwoPointElement::SetEndPoint
$LN8@ElementMod:

; 865  : 			break;
; 866  : 		}
; 867  : 	default:
; 868  : 		assert(false);
; 869  : 	}
; 870  : }

  0017d	8d 4d e0	 lea	 ecx, DWORD PTR _endPoint$7[ebp+20]
  00180	ff 15 00 00 00
	00		 call	 DWORD PTR __imp_??1?$CStringT@DV?$StrTraitMFC_DLL@DV?$ChTraitsCRT@D@ATL@@@@@ATL@@QAE@XZ
  00186	8d 4d c0	 lea	 ecx, DWORD PTR _startPoint$6[ebp+20]
$LN48@ElementMod:
  00189	ff 15 00 00 00
	00		 call	 DWORD PTR __imp_??1?$CStringT@DV?$StrTraitMFC_DLL@DV?$ChTraitsCRT@D@ATL@@@@@ATL@@QAE@XZ
$LN45@ElementMod:
  0018f	8b 4d f4	 mov	 ecx, DWORD PTR __$EHRec$[ebp]
  00192	64 89 0d 00 00
	00 00		 mov	 DWORD PTR fs:0, ecx
  00199	59		 pop	 ecx
  0019a	5f		 pop	 edi
  0019b	5e		 pop	 esi
  0019c	8b e5		 mov	 esp, ebp
  0019e	5d		 pop	 ebp
  0019f	c2 04 00	 ret	 4
_TEXT	ENDS
;	COMDAT text$x
text$x	SEGMENT
__unwindfunclet$?ElementModify@CLinearRegression@@UAEXABVCElementModifyData@@@Z$1:
  00000	8d 4d 8c	 lea	 ecx, DWORD PTR $T4[ebp]
  00003	e9 00 00 00 00	 jmp	 ??1CCoordinate@@QAE@XZ
__unwindfunclet$?ElementModify@CLinearRegression@@UAEXABVCElementModifyData@@@Z$0:
  00008	8d 4d 8c	 lea	 ecx, DWORD PTR $T5[ebp]
  0000b	e9 00 00 00 00	 jmp	 ??1CCoordinate@@QAE@XZ
__unwindfunclet$?ElementModify@CLinearRegression@@UAEXABVCElementModifyData@@@Z$2:
  00010	8d 4d ac	 lea	 ecx, DWORD PTR _startPoint$6[ebp]
  00013	e9 00 00 00 00	 jmp	 ??1CCoordinate@@QAE@XZ
__unwindfunclet$?ElementModify@CLinearRegression@@UAEXABVCElementModifyData@@@Z$3:
  00018	8d 4d cc	 lea	 ecx, DWORD PTR _endPoint$7[ebp]
  0001b	e9 00 00 00 00	 jmp	 ??1CCoordinate@@QAE@XZ
__unwindfunclet$?ElementModify@CLinearRegression@@UAEXABVCElementModifyData@@@Z$4:
  00020	8d 4d 8c	 lea	 ecx, DWORD PTR $T3[ebp]
  00023	e9 00 00 00 00	 jmp	 ??1CCoordinate@@QAE@XZ
__unwindfunclet$?ElementModify@CLinearRegression@@UAEXABVCElementModifyData@@@Z$5:
  00028	8d 8d 6c ff ff
	ff		 lea	 ecx, DWORD PTR $T2[ebp]
  0002e	e9 00 00 00 00	 jmp	 ??1CCoordinate@@QAE@XZ
  00033	cc		 int	 3
  00034	cc		 int	 3
  00035	cc		 int	 3
  00036	cc		 int	 3
  00037	cc		 int	 3
__ehhandler$?ElementModify@CLinearRegression@@UAEXABVCElementModifyData@@@Z:
  00038	90		 npad	 1
  00039	90		 npad	 1
  0003a	8b 54 24 08	 mov	 edx, DWORD PTR [esp+8]
  0003e	8d 42 0c	 lea	 eax, DWORD PTR [edx+12]
  00041	8b 8a 6c ff ff
	ff		 mov	 ecx, DWORD PTR [edx-148]
  00047	33 c8		 xor	 ecx, eax
  00049	e8 00 00 00 00	 call	 @__security_check_cookie@4
  0004e	b8 00 00 00 00	 mov	 eax, OFFSET __ehfuncinfo$?ElementModify@CLinearRegression@@UAEXABVCElementModifyData@@@Z
  00053	e9 00 00 00 00	 jmp	 ___CxxFrameHandler3
text$x	ENDS
?ElementModify@CLinearRegression@@UAEXABVCElementModifyData@@@Z ENDP ; CLinearRegression::ElementModify
; Function compile flags: /Ogtp
; File D:\git\src\IBK\IBK_DRFN\ProjSrc\SrcChartEx\ChartAddIn\ChartAnalysisToolAddIn\AnalysisTool\Line.cpp
;	COMDAT ??0CLinearRegression@@QAE@ABVCCoordinate@@0ABVCElementCommonEnvironment@@@Z
_TEXT	SEGMENT
_this$ = -16						; size = 4
__$EHRec$ = -12						; size = 12
_point1$ = 8						; size = 4
_point2$ = 12						; size = 4
_environment$ = 16					; size = 4
??0CLinearRegression@@QAE@ABVCCoordinate@@0ABVCElementCommonEnvironment@@@Z PROC ; CLinearRegression::CLinearRegression, COMDAT
; _this$ = ecx

; 838  : {

  00000	55		 push	 ebp
  00001	8b ec		 mov	 ebp, esp
  00003	6a ff		 push	 -1
  00005	68 00 00 00 00	 push	 __ehhandler$??0CLinearRegression@@QAE@ABVCCoordinate@@0ABVCElementCommonEnvironment@@@Z
  0000a	64 a1 00 00 00
	00		 mov	 eax, DWORD PTR fs:0
  00010	50		 push	 eax
  00011	51		 push	 ecx
  00012	56		 push	 esi
  00013	a1 00 00 00 00	 mov	 eax, DWORD PTR ___security_cookie
  00018	33 c5		 xor	 eax, ebp
  0001a	50		 push	 eax
  0001b	8d 45 f4	 lea	 eax, DWORD PTR __$EHRec$[ebp]
  0001e	64 a3 00 00 00
	00		 mov	 DWORD PTR fs:0, eax
  00024	8b f1		 mov	 esi, ecx
  00026	89 75 f0	 mov	 DWORD PTR _this$[ebp], esi

; 837  : 	CTwoPointElement(point1, point2, environment)

  00029	ff 75 10	 push	 DWORD PTR _environment$[ebp]
  0002c	ff 75 0c	 push	 DWORD PTR _point2$[ebp]
  0002f	ff 75 08	 push	 DWORD PTR _point1$[ebp]
  00032	e8 00 00 00 00	 call	 ??0CTwoPointElement@@QAE@ABVCCoordinate@@0ABVCElementCommonEnvironment@@@Z ; CTwoPointElement::CTwoPointElement

; 838  : {

  00037	c7 06 00 00 00
	00		 mov	 DWORD PTR [esi], OFFSET ??_7CLinearRegression@@6B@
  0003d	8d 8e 98 00 00
	00		 lea	 ecx, DWORD PTR [esi+152]
  00043	c7 45 fc 00 00
	00 00		 mov	 DWORD PTR __$EHRec$[ebp+8], 0
  0004a	c7 86 94 00 00
	00 00 00 00 00	 mov	 DWORD PTR [esi+148], OFFSET ??_8CLinearRegressionDrawer@@7B@
  00054	e8 00 00 00 00	 call	 ??0CDrawer@@QAE@XZ	; CDrawer::CDrawer
  00059	c7 86 90 00 00
	00 00 00 00 00	 mov	 DWORD PTR [esi+144], OFFSET ??_7CLinearRegressionDrawer@@6B@

; 839  : }

  00063	8b c6		 mov	 eax, esi
  00065	8b 4d f4	 mov	 ecx, DWORD PTR __$EHRec$[ebp]
  00068	64 89 0d 00 00
	00 00		 mov	 DWORD PTR fs:0, ecx
  0006f	59		 pop	 ecx
  00070	5e		 pop	 esi
  00071	8b e5		 mov	 esp, ebp
  00073	5d		 pop	 ebp
  00074	c2 0c 00	 ret	 12			; 0000000cH
  00077	cc		 int	 3
  00078	cc		 int	 3
  00079	cc		 int	 3
  0007a	cc		 int	 3
  0007b	cc		 int	 3
_TEXT	ENDS
;	COMDAT text$x
text$x	SEGMENT
__ehhandler$??0CLinearRegression@@QAE@ABVCCoordinate@@0ABVCElementCommonEnvironment@@@Z:
  00000	90		 npad	 1
  00001	90		 npad	 1
  00002	8b 54 24 08	 mov	 edx, DWORD PTR [esp+8]
  00006	8d 42 0c	 lea	 eax, DWORD PTR [edx+12]
  00009	8b 4a f4	 mov	 ecx, DWORD PTR [edx-12]
  0000c	33 c8		 xor	 ecx, eax
  0000e	e8 00 00 00 00	 call	 @__security_check_cookie@4
  00013	b8 00 00 00 00	 mov	 eax, OFFSET __ehfuncinfo$??0CLinearRegression@@QAE@ABVCCoordinate@@0ABVCElementCommonEnvironment@@@Z
  00018	e9 00 00 00 00	 jmp	 ___CxxFrameHandler3
text$x	ENDS
??0CLinearRegression@@QAE@ABVCCoordinate@@0ABVCElementCommonEnvironment@@@Z ENDP ; CLinearRegression::CLinearRegression
; Function compile flags: /Ogtp
; File D:\git\src\IBK\IBK_DRFN\ProjSrc\SrcChartEx\ChartAddIn\ChartAnalysisToolAddIn\AnalysisTool\Element.h
;	COMDAT ??_GCSpeedArc@@UAEPAXI@Z
_TEXT	SEGMENT
___flags$ = 8						; size = 4
??_GCSpeedArc@@UAEPAXI@Z PROC				; CSpeedArc::`scalar deleting destructor', COMDAT
; _this$ = ecx
  00000	55		 push	 ebp
  00001	8b ec		 mov	 ebp, esp

; 31   : 	virtual ~CElement()	{}

  00003	56		 push	 esi
  00004	8b f1		 mov	 esi, ecx
  00006	8d 8e 84 00 00
	00		 lea	 ecx, DWORD PTR [esi+132]
  0000c	ff 15 00 00 00
	00		 call	 DWORD PTR __imp_??1?$CStringT@DV?$StrTraitMFC_DLL@DV?$ChTraitsCRT@D@ATL@@@@@ATL@@QAE@XZ
  00012	8d 4e 64	 lea	 ecx, DWORD PTR [esi+100]
  00015	ff 15 00 00 00
	00		 call	 DWORD PTR __imp_??1?$CStringT@DV?$StrTraitMFC_DLL@DV?$ChTraitsCRT@D@ATL@@@@@ATL@@QAE@XZ
  0001b	8d 4e 40	 lea	 ecx, DWORD PTR [esi+64]
  0001e	c7 06 00 00 00
	00		 mov	 DWORD PTR [esi], OFFSET ??_7CElement@@6B@
  00024	ff 15 00 00 00
	00		 call	 DWORD PTR __imp_??1?$CStringT@DV?$StrTraitMFC_DLL@DV?$ChTraitsCRT@D@ATL@@@@@ATL@@QAE@XZ
  0002a	8d 4e 3c	 lea	 ecx, DWORD PTR [esi+60]
  0002d	ff 15 00 00 00
	00		 call	 DWORD PTR __imp_??1?$CStringT@DV?$StrTraitMFC_DLL@DV?$ChTraitsCRT@D@ATL@@@@@ATL@@QAE@XZ
  00033	8d 4e 38	 lea	 ecx, DWORD PTR [esi+56]
  00036	ff 15 00 00 00
	00		 call	 DWORD PTR __imp_??1?$CStringT@DV?$StrTraitMFC_DLL@DV?$ChTraitsCRT@D@ATL@@@@@ATL@@QAE@XZ
  0003c	f6 45 08 01	 test	 BYTE PTR ___flags$[ebp], 1
  00040	74 0e		 je	 SHORT $LN25@scalar
  00042	68 b0 00 00 00	 push	 176			; 000000b0H
  00047	56		 push	 esi
  00048	e8 00 00 00 00	 call	 ??3@YAXPAXI@Z		; operator delete
  0004d	83 c4 08	 add	 esp, 8
$LN25@scalar:
  00050	8b c6		 mov	 eax, esi
  00052	5e		 pop	 esi
  00053	5d		 pop	 ebp
  00054	c2 04 00	 ret	 4
??_GCSpeedArc@@UAEPAXI@Z ENDP				; CSpeedArc::`scalar deleting destructor'
_TEXT	ENDS
; Function compile flags: /Ogtp
; File D:\git\src\IBK\IBK_DRFN\ProjSrc\SrcChartEx\ChartAddIn\ChartAnalysisToolAddIn\AnalysisTool\Line.cpp
;	COMDAT ?GetRadius@CSpeedArc@@ABEHABVCPoint@@0H@Z
_TEXT	SEGMENT
_pt1$ = 8						; size = 4
_pt2$ = 12						; size = 4
_nIndex$ = 16						; size = 4
?GetRadius@CSpeedArc@@ABEHABVCPoint@@0H@Z PROC		; CSpeedArc::GetRadius, COMDAT
; _this$ = ecx

; 829  : {

  00000	55		 push	 ebp
  00001	8b ec		 mov	 ebp, esp

; 830  : 	return m_speedArcDrawer.GetRadius(pt1, pt2, nIndex);

  00003	81 c1 90 00 00
	00		 add	 ecx, 144		; 00000090H

; 831  : }

  00009	5d		 pop	 ebp

; 830  : 	return m_speedArcDrawer.GetRadius(pt1, pt2, nIndex);

  0000a	e9 00 00 00 00	 jmp	 ?GetRadius@CSpeedArcDrawer@@QBEHABVCPoint@@0H@Z ; CSpeedArcDrawer::GetRadius
?GetRadius@CSpeedArc@@ABEHABVCPoint@@0H@Z ENDP		; CSpeedArc::GetRadius
_TEXT	ENDS
; Function compile flags: /Ogtp
; File D:\git\src\IBK\IBK_DRFN\ProjSrc\SrcChartEx\ChartAddIn\ChartAnalysisToolAddIn\AnalysisTool\Line.cpp
;	COMDAT ?GetDrawingRegion_StartPoint@CSpeedArc@@ABEHHHH@Z
_TEXT	SEGMENT
_nStartPoint$ = 8					; size = 4
_nEndPoint$ = 12					; size = 4
_nRadius$ = 16						; size = 4
?GetDrawingRegion_StartPoint@CSpeedArc@@ABEHHHH@Z PROC	; CSpeedArc::GetDrawingRegion_StartPoint, COMDAT
; _this$ = ecx

; 817  : {

  00000	55		 push	 ebp
  00001	8b ec		 mov	 ebp, esp

; 818  : 	int nDistanceOfTwoPoints = nEndPoint - nStartPoint;

  00003	8b 4d 0c	 mov	 ecx, DWORD PTR _nEndPoint$[ebp]
  00006	56		 push	 esi
  00007	8b f1		 mov	 esi, ecx
  00009	2b 75 08	 sub	 esi, DWORD PTR _nStartPoint$[ebp]

; 819  : 	if(abs(nDistanceOfTwoPoints) >= nRadius)

  0000c	8b c6		 mov	 eax, esi
  0000e	99		 cdq
  0000f	33 c2		 xor	 eax, edx
  00011	2b c2		 sub	 eax, edx
  00013	8b 55 10	 mov	 edx, DWORD PTR _nRadius$[ebp]
  00016	3b c2		 cmp	 eax, edx
  00018	7c 08		 jl	 SHORT $LN2@GetDrawing

; 820  : 		return nStartPoint;

  0001a	8b 45 08	 mov	 eax, DWORD PTR _nStartPoint$[ebp]
  0001d	5e		 pop	 esi

; 826  : }

  0001e	5d		 pop	 ebp
  0001f	c2 0c 00	 ret	 12			; 0000000cH
$LN2@GetDrawing:

; 821  : 
; 822  : 	if(nDistanceOfTwoPoints >= 0) // startPoint <= endPoint

  00022	85 f6		 test	 esi, esi
  00024	78 09		 js	 SHORT $LN3@GetDrawing

; 823  : 		return (nEndPoint - nRadius);

  00026	2b ca		 sub	 ecx, edx
  00028	8b c1		 mov	 eax, ecx
  0002a	5e		 pop	 esi

; 826  : }

  0002b	5d		 pop	 ebp
  0002c	c2 0c 00	 ret	 12			; 0000000cH
$LN3@GetDrawing:

; 824  : 
; 825  : 	return (nEndPoint + nRadius);

  0002f	8d 04 11	 lea	 eax, DWORD PTR [ecx+edx]
  00032	5e		 pop	 esi

; 826  : }

  00033	5d		 pop	 ebp
  00034	c2 0c 00	 ret	 12			; 0000000cH
?GetDrawingRegion_StartPoint@CSpeedArc@@ABEHHHH@Z ENDP	; CSpeedArc::GetDrawingRegion_StartPoint
_TEXT	ENDS
; Function compile flags: /Ogtp
; File D:\git\src\IBK\IBK_DRFN\ProjSrc\SrcChartEx\ChartAddIn\ChartAnalysisToolAddIn\AnalysisTool\Line.cpp
; File C:\Program Files (x86)\Microsoft Visual Studio\2019\Community\VC\Tools\MSVC\14.29.30133\atlmfc\include\atltypes.h
; File D:\git\src\IBK\IBK_DRFN\ProjSrc\SrcChartEx\ChartAddIn\ChartAnalysisToolAddIn\AnalysisTool\Line.cpp
; File C:\Program Files (x86)\Microsoft Visual Studio\2019\Community\VC\Tools\MSVC\14.29.30133\atlmfc\include\atltypes.h
; File D:\git\src\IBK\IBK_DRFN\ProjSrc\SrcChartEx\ChartAddIn\ChartAnalysisToolAddIn\AnalysisTool\Line.cpp
; File C:\Program Files (x86)\Microsoft Visual Studio\2019\Community\VC\Tools\MSVC\14.29.30133\atlmfc\include\atltypes.h
; File D:\git\src\IBK\IBK_DRFN\ProjSrc\SrcChartEx\ChartAddIn\ChartAnalysisToolAddIn\AnalysisTool\Line.cpp
; File C:\Program Files (x86)\Microsoft Visual Studio\2019\Community\VC\Tools\MSVC\14.29.30133\atlmfc\include\atltypes.h
; File D:\git\src\IBK\IBK_DRFN\ProjSrc\SrcChartEx\ChartAddIn\ChartAnalysisToolAddIn\AnalysisTool\Line.cpp
; File C:\Program Files (x86)\Microsoft Visual Studio\2019\Community\VC\Tools\MSVC\14.29.30133\atlmfc\include\atltypes.h
; File D:\git\src\IBK\IBK_DRFN\ProjSrc\SrcChartEx\ChartAddIn\ChartAnalysisToolAddIn\AnalysisTool\Line.cpp
; File C:\Program Files (x86)\Microsoft Visual Studio\2019\Community\VC\Tools\MSVC\14.29.30133\atlmfc\include\atltypes.h
; File D:\git\src\IBK\IBK_DRFN\ProjSrc\SrcChartEx\ChartAddIn\ChartAnalysisToolAddIn\AnalysisTool\Line.cpp
;	COMDAT ?GetDrawingRegion_StartPoint@CSpeedArc@@ABE?AVCPoint@@ABV2@0H@Z
_TEXT	SEGMENT
___$ReturnUdt$ = 8					; size = 4
_startPoint$ = 12					; size = 4
_nDistanceOfTwoPoints$1$ = 16				; size = 4
_endPoint$ = 16						; size = 4
_nRadius$ = 20						; size = 4
?GetDrawingRegion_StartPoint@CSpeedArc@@ABE?AVCPoint@@ABV2@0H@Z PROC ; CSpeedArc::GetDrawingRegion_StartPoint, COMDAT
; _this$ = ecx

; 810  : {

  00000	55		 push	 ebp
  00001	8b ec		 mov	 ebp, esp
  00003	53		 push	 ebx

; 811  : 	int nX = GetDrawingRegion_StartPoint(startPoint.x, endPoint.x, nRadius);

  00004	8b 5d 10	 mov	 ebx, DWORD PTR _endPoint$[ebp]
  00007	56		 push	 esi
  00008	8b 75 0c	 mov	 esi, DWORD PTR _startPoint$[ebp]
  0000b	57		 push	 edi
  0000c	8b 1b		 mov	 ebx, DWORD PTR [ebx]

; 818  : 	int nDistanceOfTwoPoints = nEndPoint - nStartPoint;

  0000e	8b cb		 mov	 ecx, ebx

; 819  : 	if(abs(nDistanceOfTwoPoints) >= nRadius)

  00010	8b 7d 14	 mov	 edi, DWORD PTR _nRadius$[ebp]

; 811  : 	int nX = GetDrawingRegion_StartPoint(startPoint.x, endPoint.x, nRadius);

  00013	8b 36		 mov	 esi, DWORD PTR [esi]

; 818  : 	int nDistanceOfTwoPoints = nEndPoint - nStartPoint;

  00015	2b ce		 sub	 ecx, esi

; 819  : 	if(abs(nDistanceOfTwoPoints) >= nRadius)

  00017	8b c1		 mov	 eax, ecx
  00019	99		 cdq
  0001a	33 c2		 xor	 eax, edx
  0001c	2b c2		 sub	 eax, edx
  0001e	3b c7		 cmp	 eax, edi
  00020	7d 0d		 jge	 SHORT $LN3@GetDrawing

; 820  : 		return nStartPoint;
; 821  : 
; 822  : 	if(nDistanceOfTwoPoints >= 0) // startPoint <= endPoint

  00022	85 c9		 test	 ecx, ecx
  00024	78 06		 js	 SHORT $LN5@GetDrawing

; 823  : 		return (nEndPoint - nRadius);

  00026	8b f3		 mov	 esi, ebx
  00028	2b f7		 sub	 esi, edi
  0002a	eb 03		 jmp	 SHORT $LN3@GetDrawing
$LN5@GetDrawing:

; 824  : 
; 825  : 	return (nEndPoint + nRadius);

  0002c	8d 34 3b	 lea	 esi, DWORD PTR [ebx+edi]
$LN3@GetDrawing:

; 812  : 	int nY = GetDrawingRegion_StartPoint(startPoint.y, endPoint.y, nRadius);

  0002f	8b 45 10	 mov	 eax, DWORD PTR _endPoint$[ebp]
  00032	8b 58 04	 mov	 ebx, DWORD PTR [eax+4]
  00035	8b 45 0c	 mov	 eax, DWORD PTR _startPoint$[ebp]
  00038	8b 48 04	 mov	 ecx, DWORD PTR [eax+4]

; 818  : 	int nDistanceOfTwoPoints = nEndPoint - nStartPoint;

  0003b	8b c3		 mov	 eax, ebx
  0003d	2b c1		 sub	 eax, ecx
  0003f	89 45 10	 mov	 DWORD PTR _nDistanceOfTwoPoints$1$[ebp], eax

; 819  : 	if(abs(nDistanceOfTwoPoints) >= nRadius)

  00042	99		 cdq
  00043	33 c2		 xor	 eax, edx
  00045	2b c2		 sub	 eax, edx
  00047	3b c7		 cmp	 eax, edi
  00049	7d 1c		 jge	 SHORT $LN7@GetDrawing

; 820  : 		return nStartPoint;
; 821  : 
; 822  : 	if(nDistanceOfTwoPoints >= 0) // startPoint <= endPoint

  0004b	83 7d 10 00	 cmp	 DWORD PTR _nDistanceOfTwoPoints$1$[ebp], 0
  0004f	7c 13		 jl	 SHORT $LN9@GetDrawing
; File C:\Program Files (x86)\Microsoft Visual Studio\2019\Community\VC\Tools\MSVC\14.29.30133\atlmfc\include\atltypes.h

; 408  : 	x = initX;

  00051	8b 45 08	 mov	 eax, DWORD PTR ___$ReturnUdt$[ebp]
; File D:\git\src\IBK\IBK_DRFN\ProjSrc\SrcChartEx\ChartAddIn\ChartAnalysisToolAddIn\AnalysisTool\Line.cpp

; 823  : 		return (nEndPoint - nRadius);

  00054	8b cb		 mov	 ecx, ebx
  00056	2b cf		 sub	 ecx, edi

; 813  : 	return CPoint(nX, nY);

  00058	5f		 pop	 edi
; File C:\Program Files (x86)\Microsoft Visual Studio\2019\Community\VC\Tools\MSVC\14.29.30133\atlmfc\include\atltypes.h

; 408  : 	x = initX;

  00059	89 30		 mov	 DWORD PTR [eax], esi
; File D:\git\src\IBK\IBK_DRFN\ProjSrc\SrcChartEx\ChartAddIn\ChartAnalysisToolAddIn\AnalysisTool\Line.cpp

; 813  : 	return CPoint(nX, nY);

  0005b	5e		 pop	 esi
; File C:\Program Files (x86)\Microsoft Visual Studio\2019\Community\VC\Tools\MSVC\14.29.30133\atlmfc\include\atltypes.h

; 409  : 	y = initY;

  0005c	89 48 04	 mov	 DWORD PTR [eax+4], ecx
; File D:\git\src\IBK\IBK_DRFN\ProjSrc\SrcChartEx\ChartAddIn\ChartAnalysisToolAddIn\AnalysisTool\Line.cpp

; 813  : 	return CPoint(nX, nY);

  0005f	5b		 pop	 ebx

; 814  : }

  00060	5d		 pop	 ebp
  00061	c2 10 00	 ret	 16			; 00000010H
$LN9@GetDrawing:

; 825  : 	return (nEndPoint + nRadius);

  00064	8d 0c 3b	 lea	 ecx, DWORD PTR [ebx+edi]
$LN7@GetDrawing:
; File C:\Program Files (x86)\Microsoft Visual Studio\2019\Community\VC\Tools\MSVC\14.29.30133\atlmfc\include\atltypes.h

; 408  : 	x = initX;

  00067	8b 45 08	 mov	 eax, DWORD PTR ___$ReturnUdt$[ebp]
; File D:\git\src\IBK\IBK_DRFN\ProjSrc\SrcChartEx\ChartAddIn\ChartAnalysisToolAddIn\AnalysisTool\Line.cpp

; 813  : 	return CPoint(nX, nY);

  0006a	5f		 pop	 edi
; File C:\Program Files (x86)\Microsoft Visual Studio\2019\Community\VC\Tools\MSVC\14.29.30133\atlmfc\include\atltypes.h

; 408  : 	x = initX;

  0006b	89 30		 mov	 DWORD PTR [eax], esi
; File D:\git\src\IBK\IBK_DRFN\ProjSrc\SrcChartEx\ChartAddIn\ChartAnalysisToolAddIn\AnalysisTool\Line.cpp

; 813  : 	return CPoint(nX, nY);

  0006d	5e		 pop	 esi
; File C:\Program Files (x86)\Microsoft Visual Studio\2019\Community\VC\Tools\MSVC\14.29.30133\atlmfc\include\atltypes.h

; 409  : 	y = initY;

  0006e	89 48 04	 mov	 DWORD PTR [eax+4], ecx
; File D:\git\src\IBK\IBK_DRFN\ProjSrc\SrcChartEx\ChartAddIn\ChartAnalysisToolAddIn\AnalysisTool\Line.cpp

; 813  : 	return CPoint(nX, nY);

  00071	5b		 pop	 ebx

; 814  : }

  00072	5d		 pop	 ebp
  00073	c2 10 00	 ret	 16			; 00000010H
?GetDrawingRegion_StartPoint@CSpeedArc@@ABE?AVCPoint@@ABV2@0H@Z ENDP ; CSpeedArc::GetDrawingRegion_StartPoint
_TEXT	ENDS
; Function compile flags: /Ogtp
; File D:\git\src\IBK\IBK_DRFN\ProjSrc\SrcChartEx\ChartAddIn\ChartAnalysisToolAddIn\AnalysisTool\Line.cpp
;	COMDAT ?PointInCircleAround@CSpeedArc@@ABE_NHH@Z
_TEXT	SEGMENT
_selectableRegionCalculator$ = 8			; size = 4
_nSourceRadius$ = 8					; size = 4
_nTargetRadius$ = 12					; size = 4
?PointInCircleAround@CSpeedArc@@ABE_NHH@Z PROC		; CSpeedArc::PointInCircleAround, COMDAT
; _this$ = ecx

; 800  : {

  00000	55		 push	 ebp
  00001	8b ec		 mov	 ebp, esp
  00003	56		 push	 esi

; 801  : 	if(nSourceRadius <= 0 || nTargetRadius <= 0)

  00004	8b 75 08	 mov	 esi, DWORD PTR _nSourceRadius$[ebp]
  00007	57		 push	 edi
  00008	85 f6		 test	 esi, esi
  0000a	7e 35		 jle	 SHORT $LN3@PointInCir
  0000c	8b 7d 0c	 mov	 edi, DWORD PTR _nTargetRadius$[ebp]
  0000f	85 ff		 test	 edi, edi
  00011	7e 2e		 jle	 SHORT $LN3@PointInCir

; 802  : 		return false;
; 803  : 
; 804  : 	CSelectableRegionCalculator selectableRegionCalculator;

  00013	8d 4d 08	 lea	 ecx, DWORD PTR _selectableRegionCalculator$[ebp]
  00016	e8 00 00 00 00	 call	 ??0CSelectableRegionCalculator@@QAE@XZ ; CSelectableRegionCalculator::CSelectableRegionCalculator

; 805  : 	return (nSourceRadius >= (nTargetRadius - selectableRegionCalculator.GetProximityRange())

  0001b	8d 4d 08	 lea	 ecx, DWORD PTR _selectableRegionCalculator$[ebp]
  0001e	e8 00 00 00 00	 call	 ?GetProximityRange@CSelectableRegionCalculator@@QBEHXZ ; CSelectableRegionCalculator::GetProximityRange
  00023	8b cf		 mov	 ecx, edi
  00025	2b c8		 sub	 ecx, eax
  00027	3b f1		 cmp	 esi, ecx
  00029	7c 16		 jl	 SHORT $LN3@PointInCir
  0002b	8d 4d 08	 lea	 ecx, DWORD PTR _selectableRegionCalculator$[ebp]
  0002e	e8 00 00 00 00	 call	 ?GetProximityRange@CSelectableRegionCalculator@@QBEHXZ ; CSelectableRegionCalculator::GetProximityRange
  00033	03 c7		 add	 eax, edi
  00035	3b f0		 cmp	 esi, eax
  00037	7f 08		 jg	 SHORT $LN3@PointInCir
  00039	5f		 pop	 edi
  0003a	b0 01		 mov	 al, 1

; 806  : 		&& nSourceRadius <= (nTargetRadius + selectableRegionCalculator.GetProximityRange()));
; 807  : }

  0003c	5e		 pop	 esi
  0003d	5d		 pop	 ebp
  0003e	c2 08 00	 ret	 8
$LN3@PointInCir:
  00041	5f		 pop	 edi
  00042	32 c0		 xor	 al, al
  00044	5e		 pop	 esi
  00045	5d		 pop	 ebp
  00046	c2 08 00	 ret	 8
?PointInCircleAround@CSpeedArc@@ABE_NHH@Z ENDP		; CSpeedArc::PointInCircleAround
_TEXT	ENDS
; Function compile flags: /Ogtp
; File D:\git\src\IBK\IBK_DRFN\ProjSrc\SrcChartEx\ChartAddIn\ChartAnalysisToolAddIn\AnalysisTool\Line.cpp
; File C:\Program Files (x86)\Microsoft Visual Studio\2019\Community\VC\Tools\MSVC\14.29.30133\atlmfc\include\atltypes.h
; File D:\git\src\IBK\IBK_DRFN\ProjSrc\SrcChartEx\ChartAddIn\ChartAnalysisToolAddIn\AnalysisTool\Line.cpp
; File C:\Program Files (x86)\Microsoft Visual Studio\2019\Community\VC\Tools\MSVC\14.29.30133\atlmfc\include\atltypes.h
; File D:\git\src\IBK\IBK_DRFN\ProjSrc\SrcChartEx\ChartAddIn\ChartAnalysisToolAddIn\AnalysisTool\Line.cpp
;	COMDAT ?GetDrawingRegion_EndPoint@CSpeedArc@@MBE?AVCPoint@@ABV2@0H@Z
_TEXT	SEGMENT
___$ReturnUdt$ = 8					; size = 4
_startPoint$ = 12					; size = 4
_endPoint$ = 16						; size = 4
_nRadius$ = 20						; size = 4
?GetDrawingRegion_EndPoint@CSpeedArc@@MBE?AVCPoint@@ABV2@0H@Z PROC ; CSpeedArc::GetDrawingRegion_EndPoint, COMDAT
; _this$ = ecx

; 792  : {

  00000	55		 push	 ebp
  00001	8b ec		 mov	 ebp, esp

; 793  : 	if(startPoint.x <= endPoint.x)

  00003	8b 45 0c	 mov	 eax, DWORD PTR _startPoint$[ebp]
  00006	8b 4d 10	 mov	 ecx, DWORD PTR _endPoint$[ebp]
  00009	56		 push	 esi
  0000a	8b 10		 mov	 edx, DWORD PTR [eax]
  0000c	8b 45 08	 mov	 eax, DWORD PTR ___$ReturnUdt$[ebp]
  0000f	8b 31		 mov	 esi, DWORD PTR [ecx]
  00011	8b 49 04	 mov	 ecx, DWORD PTR [ecx+4]
  00014	89 48 04	 mov	 DWORD PTR [eax+4], ecx
  00017	3b d6		 cmp	 edx, esi
  00019	7f 0c		 jg	 SHORT $LN2@GetDrawing

; 794  : 		return CPoint((endPoint.x + nRadius), endPoint.y);

  0001b	8b 4d 14	 mov	 ecx, DWORD PTR _nRadius$[ebp]
  0001e	03 ce		 add	 ecx, esi
; File C:\Program Files (x86)\Microsoft Visual Studio\2019\Community\VC\Tools\MSVC\14.29.30133\atlmfc\include\atltypes.h

; 408  : 	x = initX;

  00020	89 08		 mov	 DWORD PTR [eax], ecx
  00022	5e		 pop	 esi
; File D:\git\src\IBK\IBK_DRFN\ProjSrc\SrcChartEx\ChartAddIn\ChartAnalysisToolAddIn\AnalysisTool\Line.cpp

; 796  : }

  00023	5d		 pop	 ebp
  00024	c2 10 00	 ret	 16			; 00000010H
$LN2@GetDrawing:

; 795  : 	return CPoint((endPoint.x - nRadius), endPoint.y);

  00027	2b 75 14	 sub	 esi, DWORD PTR _nRadius$[ebp]
; File C:\Program Files (x86)\Microsoft Visual Studio\2019\Community\VC\Tools\MSVC\14.29.30133\atlmfc\include\atltypes.h

; 408  : 	x = initX;

  0002a	89 30		 mov	 DWORD PTR [eax], esi
  0002c	5e		 pop	 esi
; File D:\git\src\IBK\IBK_DRFN\ProjSrc\SrcChartEx\ChartAddIn\ChartAnalysisToolAddIn\AnalysisTool\Line.cpp

; 796  : }

  0002d	5d		 pop	 ebp
  0002e	c2 10 00	 ret	 16			; 00000010H
?GetDrawingRegion_EndPoint@CSpeedArc@@MBE?AVCPoint@@ABV2@0H@Z ENDP ; CSpeedArc::GetDrawingRegion_EndPoint
_TEXT	ENDS
; Function compile flags: /Ogtp
; File D:\git\src\IBK\IBK_DRFN\ProjSrc\SrcChartEx\ChartAddIn\ChartAnalysisToolAddIn\AnalysisTool\Line.cpp
; File C:\Program Files (x86)\Microsoft Visual Studio\2019\Community\VC\Tools\MSVC\14.29.30133\atlmfc\include\atltypes.h
; File D:\git\src\IBK\IBK_DRFN\ProjSrc\SrcChartEx\ChartAddIn\ChartAnalysisToolAddIn\AnalysisTool\Line.cpp
; File C:\Program Files (x86)\Microsoft Visual Studio\2019\Community\VC\Tools\MSVC\14.29.30133\atlmfc\include\atltypes.h
; File D:\git\src\IBK\IBK_DRFN\ProjSrc\SrcChartEx\ChartAddIn\ChartAnalysisToolAddIn\AnalysisTool\Line.cpp
; File C:\Program Files (x86)\Microsoft Visual Studio\2019\Community\VC\Tools\MSVC\14.29.30133\atlmfc\include\atltypes.h
; File D:\git\src\IBK\IBK_DRFN\ProjSrc\SrcChartEx\ChartAddIn\ChartAnalysisToolAddIn\AnalysisTool\Line.cpp
; File C:\Program Files (x86)\Microsoft Visual Studio\2019\Community\VC\Tools\MSVC\14.29.30133\atlmfc\include\atltypes.h
; File D:\git\src\IBK\IBK_DRFN\ProjSrc\SrcChartEx\ChartAddIn\ChartAnalysisToolAddIn\AnalysisTool\Line.cpp
; File C:\Program Files (x86)\Microsoft Visual Studio\2019\Community\VC\Tools\MSVC\14.29.30133\atlmfc\include\atltypes.h
; File D:\git\src\IBK\IBK_DRFN\ProjSrc\SrcChartEx\ChartAddIn\ChartAnalysisToolAddIn\AnalysisTool\Line.cpp
; File C:\Program Files (x86)\Microsoft Visual Studio\2019\Community\VC\Tools\MSVC\14.29.30133\atlmfc\include\atltypes.h
; File D:\git\src\IBK\IBK_DRFN\ProjSrc\SrcChartEx\ChartAddIn\ChartAnalysisToolAddIn\AnalysisTool\Line.cpp
; File C:\Program Files (x86)\Microsoft Visual Studio\2019\Community\VC\Tools\MSVC\14.29.30133\atlmfc\include\atltypes.h
; File D:\git\src\IBK\IBK_DRFN\ProjSrc\SrcChartEx\ChartAddIn\ChartAnalysisToolAddIn\AnalysisTool\Line.cpp
;	COMDAT ?GetModifyType@CSpeedArc@@MBE?AW4ModifyType@CToolEnumData@@ABVCRect@@ABVCPoint@@11@Z
_TEXT	SEGMENT
$T1 = -52						; size = 8
$T2 = -44						; size = 8
_rightPt$ = -36						; size = 8
_leftPt$ = -28						; size = 8
_lineEndPt$3 = -20					; size = 8
_nRadius_Point$1$ = -12					; size = 4
_selectableRegionCalculator$4 = -8			; size = 4
_this$1$ = -4						; size = 4
_region$ = 8						; size = 4
_drawingStartPt$ = 12					; size = 4
_drawingEndPt$ = 16					; size = 4
_point$ = 20						; size = 4
?GetModifyType@CSpeedArc@@MBE?AW4ModifyType@CToolEnumData@@ABVCRect@@ABVCPoint@@11@Z PROC ; CSpeedArc::GetModifyType, COMDAT
; _this$ = ecx

; 747  : {

  00000	55		 push	 ebp
  00001	8b ec		 mov	 ebp, esp
  00003	83 ec 34	 sub	 esp, 52			; 00000034H
  00006	53		 push	 ebx

; 748  : 	// 1.     .
; 749  : 	CToolEnumData::ModifyType sidePointModifyType = GetModifyType_SidePoints( drawingStartPt, drawingEndPt, point);

  00007	8b 5d 10	 mov	 ebx, DWORD PTR _drawingEndPt$[ebp]
  0000a	56		 push	 esi
  0000b	8b 75 14	 mov	 esi, DWORD PTR _point$[ebp]
  0000e	57		 push	 edi
  0000f	56		 push	 esi
  00010	53		 push	 ebx
  00011	ff 75 0c	 push	 DWORD PTR _drawingStartPt$[ebp]
  00014	8b f9		 mov	 edi, ecx
  00016	89 7d fc	 mov	 DWORD PTR _this$1$[ebp], edi
  00019	e8 00 00 00 00	 call	 ?GetModifyType_SidePoints@CTwoPointElement@@IBE?AW4ModifyType@CToolEnumData@@ABVCPoint@@00@Z ; CTwoPointElement::GetModifyType_SidePoints

; 750  : 	if( sidePointModifyType != CToolEnumData::MODIFY_NONE) 

  0001e	85 c0		 test	 eax, eax
  00020	0f 85 31 01 00
	00		 jne	 $LN1@GetModifyT

; 751  : 		return sidePointModifyType;
; 752  : 
; 753  : 	CToolEnumData::ModifyType frameRectModifyType = GetModifyType_Rect( drawingStartPt, drawingEndPt, point);

  00026	56		 push	 esi
  00027	53		 push	 ebx
  00028	ff 75 0c	 push	 DWORD PTR _drawingStartPt$[ebp]
  0002b	8b cf		 mov	 ecx, edi
  0002d	e8 00 00 00 00	 call	 ?GetModifyType_Rect@CTwoPointElement@@IBE?AW4ModifyType@CToolEnumData@@ABVCPoint@@00@Z ; CTwoPointElement::GetModifyType_Rect

; 754  : 	if( frameRectModifyType != CToolEnumData::MODIFY_NONE) 

  00032	85 c0		 test	 eax, eax
  00034	0f 85 1d 01 00
	00		 jne	 $LN1@GetModifyT
; File C:\Program Files (x86)\Microsoft Visual Studio\2019\Community\VC\Tools\MSVC\14.29.30133\atlmfc\include\atltypes.h

; 400  : 	x = 0;

  0003a	89 45 e4	 mov	 DWORD PTR _leftPt$[ebp], eax
; File D:\git\src\IBK\IBK_DRFN\ProjSrc\SrcChartEx\ChartAddIn\ChartAnalysisToolAddIn\AnalysisTool\Line.cpp

; 758  : 	m_speedArcDrawer.GetPoints(drawingStartPt, drawingEndPt, leftPt, rightPt);

  0003d	8d 9f 90 00 00
	00		 lea	 ebx, DWORD PTR [edi+144]
; File C:\Program Files (x86)\Microsoft Visual Studio\2019\Community\VC\Tools\MSVC\14.29.30133\atlmfc\include\atltypes.h

; 401  : 	y = 0;

  00043	89 45 e8	 mov	 DWORD PTR _leftPt$[ebp+4], eax
; File D:\git\src\IBK\IBK_DRFN\ProjSrc\SrcChartEx\ChartAddIn\ChartAnalysisToolAddIn\AnalysisTool\Line.cpp

; 758  : 	m_speedArcDrawer.GetPoints(drawingStartPt, drawingEndPt, leftPt, rightPt);

  00046	8b cb		 mov	 ecx, ebx
; File C:\Program Files (x86)\Microsoft Visual Studio\2019\Community\VC\Tools\MSVC\14.29.30133\atlmfc\include\atltypes.h

; 400  : 	x = 0;

  00048	89 45 dc	 mov	 DWORD PTR _rightPt$[ebp], eax

; 401  : 	y = 0;

  0004b	89 45 e0	 mov	 DWORD PTR _rightPt$[ebp+4], eax
; File D:\git\src\IBK\IBK_DRFN\ProjSrc\SrcChartEx\ChartAddIn\ChartAnalysisToolAddIn\AnalysisTool\Line.cpp

; 758  : 	m_speedArcDrawer.GetPoints(drawingStartPt, drawingEndPt, leftPt, rightPt);

  0004e	8d 45 dc	 lea	 eax, DWORD PTR _rightPt$[ebp]
  00051	50		 push	 eax
  00052	8d 45 e4	 lea	 eax, DWORD PTR _leftPt$[ebp]
  00055	50		 push	 eax
  00056	ff 75 10	 push	 DWORD PTR _drawingEndPt$[ebp]
  00059	ff 75 0c	 push	 DWORD PTR _drawingStartPt$[ebp]
  0005c	e8 00 00 00 00	 call	 ?GetPoints@CSpeedArcDrawer@@QBEXABVCPoint@@0AAV2@1@Z ; CSpeedArcDrawer::GetPoints

; 759  : 	
; 760  : 	int nRadius_Point = CMath::Round(CMath::Distance(drawingEndPt, point));

  00061	56		 push	 esi
  00062	ff 75 10	 push	 DWORD PTR _drawingEndPt$[ebp]
  00065	e8 00 00 00 00	 call	 ?Distance@CMath@@SANABVCPoint@@0@Z ; CMath::Distance
  0006a	dd 1c 24	 fstp	 QWORD PTR [esp]
  0006d	e8 00 00 00 00	 call	 ?Round@CMath@@SAHN@Z	; CMath::Round
  00072	83 c4 08	 add	 esp, 8
  00075	89 45 f4	 mov	 DWORD PTR _nRadius_Point$1$[ebp], eax

; 761  : 	if(nRadius_Point <= 0)

  00078	85 c0		 test	 eax, eax
  0007a	0f 8e d5 00 00
	00		 jle	 $LN3@GetModifyT

; 762  : 		return CToolEnumData::MODIFY_NONE;
; 763  : 
; 764  : 	for(int nIndex = 0; nIndex < m_speedArcDrawer.GetCount(); nIndex++)

  00080	8b cb		 mov	 ecx, ebx
  00082	33 f6		 xor	 esi, esi
  00084	e8 00 00 00 00	 call	 ?GetCount@CSpeedArcDrawer@@QBEHXZ ; CSpeedArcDrawer::GetCount
  00089	85 c0		 test	 eax, eax
  0008b	0f 8e c4 00 00
	00		 jle	 $LN3@GetModifyT
$LL4@GetModifyT:

; 767  : 		if(!m_speedArcDrawer.GetLineEndPoint(region, leftPt, rightPt, nIndex, lineEndPt))

  00091	8d 45 ec	 lea	 eax, DWORD PTR _lineEndPt$3[ebp]
; File C:\Program Files (x86)\Microsoft Visual Studio\2019\Community\VC\Tools\MSVC\14.29.30133\atlmfc\include\atltypes.h

; 400  : 	x = 0;

  00094	c7 45 ec 00 00
	00 00		 mov	 DWORD PTR _lineEndPt$3[ebp], 0
; File D:\git\src\IBK\IBK_DRFN\ProjSrc\SrcChartEx\ChartAddIn\ChartAnalysisToolAddIn\AnalysisTool\Line.cpp

; 767  : 		if(!m_speedArcDrawer.GetLineEndPoint(region, leftPt, rightPt, nIndex, lineEndPt))

  0009b	50		 push	 eax
  0009c	56		 push	 esi
  0009d	8d 45 dc	 lea	 eax, DWORD PTR _rightPt$[ebp]
; File C:\Program Files (x86)\Microsoft Visual Studio\2019\Community\VC\Tools\MSVC\14.29.30133\atlmfc\include\atltypes.h

; 401  : 	y = 0;

  000a0	c7 45 f0 00 00
	00 00		 mov	 DWORD PTR _lineEndPt$3[ebp+4], 0
; File D:\git\src\IBK\IBK_DRFN\ProjSrc\SrcChartEx\ChartAddIn\ChartAnalysisToolAddIn\AnalysisTool\Line.cpp

; 767  : 		if(!m_speedArcDrawer.GetLineEndPoint(region, leftPt, rightPt, nIndex, lineEndPt))

  000a7	50		 push	 eax
  000a8	8d 45 e4	 lea	 eax, DWORD PTR _leftPt$[ebp]
  000ab	8b cb		 mov	 ecx, ebx
  000ad	50		 push	 eax
  000ae	ff 75 08	 push	 DWORD PTR _region$[ebp]
  000b1	e8 00 00 00 00	 call	 ?GetLineEndPoint@CSpeedArcDrawer@@QBE_NABVCRect@@ABVCPoint@@1HAAV3@@Z ; CSpeedArcDrawer::GetLineEndPoint
  000b6	84 c0		 test	 al, al
  000b8	0f 84 87 00 00
	00		 je	 $LN2@GetModifyT

; 768  : 			continue;
; 769  : 
; 770  : 		if(nIndex > 0 && nIndex < 3)

  000be	85 f6		 test	 esi, esi
  000c0	7e 3c		 jle	 SHORT $LN13@GetModifyT
  000c2	8b cf		 mov	 ecx, edi
  000c4	ff 75 14	 push	 DWORD PTR _point$[ebp]
  000c7	83 fe 03	 cmp	 esi, 3
  000ca	7d 15		 jge	 SHORT $LN42@GetModifyT
; File C:\Program Files (x86)\Microsoft Visual Studio\2019\Community\VC\Tools\MSVC\14.29.30133\atlmfc\include\atltypes.h

; 408  : 	x = initX;

  000cc	8b 45 e4	 mov	 eax, DWORD PTR _leftPt$[ebp]
  000cf	89 45 d4	 mov	 DWORD PTR $T2[ebp], eax

; 409  : 	y = initY;

  000d2	8b 45 f0	 mov	 eax, DWORD PTR _lineEndPt$3[ebp+4]
  000d5	89 45 d8	 mov	 DWORD PTR $T2[ebp+4], eax
; File D:\git\src\IBK\IBK_DRFN\ProjSrc\SrcChartEx\ChartAddIn\ChartAnalysisToolAddIn\AnalysisTool\Line.cpp

; 772  : 			if(CElement::PointInElementSelectableRegion(CPoint(leftPt.x,lineEndPt.y), lineEndPt, point))

  000d8	8d 45 ec	 lea	 eax, DWORD PTR _lineEndPt$3[ebp]
  000db	50		 push	 eax
  000dc	8d 45 d4	 lea	 eax, DWORD PTR $T2[ebp]

; 773  : 				return CToolEnumData::MODIFY_CENTER;
; 774  : 		}

  000df	eb 13		 jmp	 SHORT $LN49@GetModifyT
$LN42@GetModifyT:
; File C:\Program Files (x86)\Microsoft Visual Studio\2019\Community\VC\Tools\MSVC\14.29.30133\atlmfc\include\atltypes.h

; 408  : 	x = initX;

  000e1	8b 45 ec	 mov	 eax, DWORD PTR _lineEndPt$3[ebp]
  000e4	89 45 cc	 mov	 DWORD PTR $T1[ebp], eax

; 409  : 	y = initY;

  000e7	8b 45 e8	 mov	 eax, DWORD PTR _leftPt$[ebp+4]
  000ea	89 45 d0	 mov	 DWORD PTR $T1[ebp+4], eax
; File D:\git\src\IBK\IBK_DRFN\ProjSrc\SrcChartEx\ChartAddIn\ChartAnalysisToolAddIn\AnalysisTool\Line.cpp

; 777  : 			if(CElement::PointInElementSelectableRegion(CPoint(lineEndPt.x,leftPt.y), lineEndPt, point))

  000ed	8d 45 ec	 lea	 eax, DWORD PTR _lineEndPt$3[ebp]
  000f0	50		 push	 eax
  000f1	8d 45 cc	 lea	 eax, DWORD PTR $T1[ebp]
$LN49@GetModifyT:

; 778  : 				return CToolEnumData::MODIFY_CENTER;
; 779  : 		} 
; 780  : 
; 781  : 		if(nIndex > 0 && nIndex < 3)

  000f4	50		 push	 eax
  000f5	e8 00 00 00 00	 call	 ?PointInElementSelectableRegion@CElement@@IBE_NABVCPoint@@00@Z ; CElement::PointInElementSelectableRegion
  000fa	84 c0		 test	 al, al
  000fc	75 62		 jne	 SHORT $LN38@GetModifyT
$LN13@GetModifyT:
  000fe	8d 46 ff	 lea	 eax, DWORD PTR [esi-1]
  00101	83 f8 01	 cmp	 eax, 1
  00104	77 3f		 ja	 SHORT $LN2@GetModifyT

; 830  : 	return m_speedArcDrawer.GetRadius(pt1, pt2, nIndex);

  00106	56		 push	 esi
  00107	ff 75 10	 push	 DWORD PTR _drawingEndPt$[ebp]
  0010a	8b cb		 mov	 ecx, ebx
  0010c	ff 75 0c	 push	 DWORD PTR _drawingStartPt$[ebp]
  0010f	e8 00 00 00 00	 call	 ?GetRadius@CSpeedArcDrawer@@QBEHABVCPoint@@0H@Z ; CSpeedArcDrawer::GetRadius
  00114	8b f8		 mov	 edi, eax

; 801  : 	if(nSourceRadius <= 0 || nTargetRadius <= 0)

  00116	85 ff		 test	 edi, edi
  00118	7e 28		 jle	 SHORT $LN47@GetModifyT

; 802  : 		return false;
; 803  : 
; 804  : 	CSelectableRegionCalculator selectableRegionCalculator;

  0011a	8d 4d f8	 lea	 ecx, DWORD PTR _selectableRegionCalculator$4[ebp]
  0011d	e8 00 00 00 00	 call	 ??0CSelectableRegionCalculator@@QAE@XZ ; CSelectableRegionCalculator::CSelectableRegionCalculator

; 805  : 	return (nSourceRadius >= (nTargetRadius - selectableRegionCalculator.GetProximityRange())

  00122	8d 4d f8	 lea	 ecx, DWORD PTR _selectableRegionCalculator$4[ebp]
  00125	e8 00 00 00 00	 call	 ?GetProximityRange@CSelectableRegionCalculator@@QBEHXZ ; CSelectableRegionCalculator::GetProximityRange
  0012a	8b cf		 mov	 ecx, edi
  0012c	2b c8		 sub	 ecx, eax
  0012e	39 4d f4	 cmp	 DWORD PTR _nRadius_Point$1$[ebp], ecx
  00131	7c 0f		 jl	 SHORT $LN47@GetModifyT
  00133	8d 4d f8	 lea	 ecx, DWORD PTR _selectableRegionCalculator$4[ebp]
  00136	e8 00 00 00 00	 call	 ?GetProximityRange@CSelectableRegionCalculator@@QBEHXZ ; CSelectableRegionCalculator::GetProximityRange
  0013b	03 c7		 add	 eax, edi
  0013d	39 45 f4	 cmp	 DWORD PTR _nRadius_Point$1$[ebp], eax
  00140	7e 1e		 jle	 SHORT $LN38@GetModifyT
$LN47@GetModifyT:

; 762  : 		return CToolEnumData::MODIFY_NONE;
; 763  : 
; 764  : 	for(int nIndex = 0; nIndex < m_speedArcDrawer.GetCount(); nIndex++)

  00142	8b 7d fc	 mov	 edi, DWORD PTR _this$1$[ebp]
$LN2@GetModifyT:
  00145	8b cb		 mov	 ecx, ebx
  00147	46		 inc	 esi
  00148	e8 00 00 00 00	 call	 ?GetCount@CSpeedArcDrawer@@QBEHXZ ; CSpeedArcDrawer::GetCount
  0014d	3b f0		 cmp	 esi, eax
  0014f	0f 8c 3c ff ff
	ff		 jl	 $LL4@GetModifyT
$LN3@GetModifyT:

; 782  : 		{
; 783  : 			if(PointInCircleAround(nRadius_Point, GetRadius(drawingStartPt, drawingEndPt, nIndex)))
; 784  : 				return CToolEnumData::MODIFY_CENTER;
; 785  : 		}
; 786  : 	}
; 787  : 	
; 788  : 	return CToolEnumData::MODIFY_NONE;

  00155	33 c0		 xor	 eax, eax
$LN1@GetModifyT:
  00157	5f		 pop	 edi

; 789  : }

  00158	5e		 pop	 esi
  00159	5b		 pop	 ebx
  0015a	8b e5		 mov	 esp, ebp
  0015c	5d		 pop	 ebp
  0015d	c2 10 00	 ret	 16			; 00000010H
$LN38@GetModifyT:
  00160	5f		 pop	 edi
  00161	5e		 pop	 esi
  00162	b8 01 00 00 00	 mov	 eax, 1
  00167	5b		 pop	 ebx
  00168	8b e5		 mov	 esp, ebp
  0016a	5d		 pop	 ebp
  0016b	c2 10 00	 ret	 16			; 00000010H
?GetModifyType@CSpeedArc@@MBE?AW4ModifyType@CToolEnumData@@ABVCRect@@ABVCPoint@@11@Z ENDP ; CSpeedArc::GetModifyType
_TEXT	ENDS
; Function compile flags: /Ogtp
; File D:\git\src\IBK\IBK_DRFN\ProjSrc\SrcChartEx\ChartAddIn\ChartAnalysisToolAddIn\AnalysisTool\Line.cpp
; File C:\Program Files (x86)\Microsoft Visual Studio\2019\Community\VC\Tools\MSVC\14.29.30133\atlmfc\include\atltypes.h
; File D:\git\src\IBK\IBK_DRFN\ProjSrc\SrcChartEx\ChartAddIn\ChartAnalysisToolAddIn\AnalysisTool\Line.cpp
; File C:\Program Files (x86)\Microsoft Visual Studio\2019\Community\VC\Tools\MSVC\14.29.30133\atlmfc\include\atltypes.h
; File D:\git\src\IBK\IBK_DRFN\ProjSrc\SrcChartEx\ChartAddIn\ChartAnalysisToolAddIn\AnalysisTool\Line.cpp
;	COMDAT ?ElementInRegion@CSpeedArc@@MBE_NABVCRect@@ABVCPoint@@11@Z
_TEXT	SEGMENT
_drawingEPt$ = -20					; size = 8
_drawingSPt$ = -12					; size = 8
_this$1$ = -4						; size = 4
_region$ = 8						; size = 4
_startPoint$ = 12					; size = 4
_endPoint$ = 16						; size = 4
_point$ = 20						; size = 4
?ElementInRegion@CSpeedArc@@MBE_NABVCRect@@ABVCPoint@@11@Z PROC ; CSpeedArc::ElementInRegion, COMDAT
; _this$ = ecx

; 736  : {

  00000	55		 push	 ebp
  00001	8b ec		 mov	 ebp, esp
  00003	83 ec 14	 sub	 esp, 20			; 00000014H
  00006	53		 push	 ebx

; 830  : 	return m_speedArcDrawer.GetRadius(pt1, pt2, nIndex);

  00007	8b 5d 10	 mov	 ebx, DWORD PTR _endPoint$[ebp]

; 736  : {

  0000a	8b c1		 mov	 eax, ecx
  0000c	56		 push	 esi
  0000d	57		 push	 edi

; 830  : 	return m_speedArcDrawer.GetRadius(pt1, pt2, nIndex);

  0000e	8b 7d 0c	 mov	 edi, DWORD PTR _startPoint$[ebp]
  00011	6a 02		 push	 2
  00013	53		 push	 ebx
  00014	57		 push	 edi
  00015	8d 88 90 00 00
	00		 lea	 ecx, DWORD PTR [eax+144]

; 736  : {

  0001b	89 45 fc	 mov	 DWORD PTR _this$1$[ebp], eax

; 830  : 	return m_speedArcDrawer.GetRadius(pt1, pt2, nIndex);

  0001e	e8 00 00 00 00	 call	 ?GetRadius@CSpeedArcDrawer@@QBEHABVCPoint@@0H@Z ; CSpeedArcDrawer::GetRadius

; 811  : 	int nX = GetDrawingRegion_StartPoint(startPoint.x, endPoint.x, nRadius);

  00023	8b 33		 mov	 esi, DWORD PTR [ebx]

; 737  : 	int nRadius = GetRadius(startPoint, endPoint, 2);

  00025	8b c8		 mov	 ecx, eax

; 811  : 	int nX = GetDrawingRegion_StartPoint(startPoint.x, endPoint.x, nRadius);

  00027	8b 3f		 mov	 edi, DWORD PTR [edi]

; 818  : 	int nDistanceOfTwoPoints = nEndPoint - nStartPoint;

  00029	8b de		 mov	 ebx, esi
  0002b	2b df		 sub	 ebx, edi

; 819  : 	if(abs(nDistanceOfTwoPoints) >= nRadius)

  0002d	8b c3		 mov	 eax, ebx
  0002f	99		 cdq
  00030	33 c2		 xor	 eax, edx
  00032	2b c2		 sub	 eax, edx
  00034	3b c1		 cmp	 eax, ecx
  00036	7d 0d		 jge	 SHORT $LN7@ElementInR

; 820  : 		return nStartPoint;
; 821  : 
; 822  : 	if(nDistanceOfTwoPoints >= 0) // startPoint <= endPoint

  00038	85 db		 test	 ebx, ebx
  0003a	78 06		 js	 SHORT $LN9@ElementInR

; 823  : 		return (nEndPoint - nRadius);

  0003c	8b fe		 mov	 edi, esi
  0003e	2b f9		 sub	 edi, ecx
  00040	eb 03		 jmp	 SHORT $LN7@ElementInR
$LN9@ElementInR:

; 824  : 
; 825  : 	return (nEndPoint + nRadius);

  00042	8d 3c 0e	 lea	 edi, DWORD PTR [esi+ecx]
$LN7@ElementInR:

; 812  : 	int nY = GetDrawingRegion_StartPoint(startPoint.y, endPoint.y, nRadius);

  00045	8b 45 10	 mov	 eax, DWORD PTR _endPoint$[ebp]
  00048	8b 75 0c	 mov	 esi, DWORD PTR _startPoint$[ebp]
  0004b	8b 58 04	 mov	 ebx, DWORD PTR [eax+4]
  0004e	8b 76 04	 mov	 esi, DWORD PTR [esi+4]

; 818  : 	int nDistanceOfTwoPoints = nEndPoint - nStartPoint;

  00051	2b de		 sub	 ebx, esi

; 819  : 	if(abs(nDistanceOfTwoPoints) >= nRadius)

  00053	8b c3		 mov	 eax, ebx
  00055	99		 cdq
  00056	33 c2		 xor	 eax, edx
  00058	2b c2		 sub	 eax, edx
  0005a	8b 55 10	 mov	 edx, DWORD PTR _endPoint$[ebp]
  0005d	3b c1		 cmp	 eax, ecx
  0005f	7d 0d		 jge	 SHORT $LN11@ElementInR

; 820  : 		return nStartPoint;
; 821  : 
; 822  : 	if(nDistanceOfTwoPoints >= 0) // startPoint <= endPoint

  00061	8b 72 04	 mov	 esi, DWORD PTR [edx+4]
  00064	85 db		 test	 ebx, ebx
  00066	78 04		 js	 SHORT $LN13@ElementInR

; 823  : 		return (nEndPoint - nRadius);

  00068	2b f1		 sub	 esi, ecx
  0006a	eb 02		 jmp	 SHORT $LN11@ElementInR
$LN13@ElementInR:

; 824  : 
; 825  : 	return (nEndPoint + nRadius);

  0006c	03 f1		 add	 esi, ecx
$LN11@ElementInR:

; 739  : 	CPoint drawingEPt = GetDrawingRegion_EndPoint(startPoint, endPoint, nRadius);

  0006e	51		 push	 ecx
; File C:\Program Files (x86)\Microsoft Visual Studio\2019\Community\VC\Tools\MSVC\14.29.30133\atlmfc\include\atltypes.h

; 409  : 	y = initY;

  0006f	89 75 f8	 mov	 DWORD PTR _drawingSPt$[ebp+4], esi
; File D:\git\src\IBK\IBK_DRFN\ProjSrc\SrcChartEx\ChartAddIn\ChartAnalysisToolAddIn\AnalysisTool\Line.cpp

; 739  : 	CPoint drawingEPt = GetDrawingRegion_EndPoint(startPoint, endPoint, nRadius);

  00072	8d 4d ec	 lea	 ecx, DWORD PTR _drawingEPt$[ebp]
  00075	8b 75 fc	 mov	 esi, DWORD PTR _this$1$[ebp]
  00078	52		 push	 edx
  00079	ff 75 0c	 push	 DWORD PTR _startPoint$[ebp]
; File C:\Program Files (x86)\Microsoft Visual Studio\2019\Community\VC\Tools\MSVC\14.29.30133\atlmfc\include\atltypes.h

; 408  : 	x = initX;

  0007c	89 7d f4	 mov	 DWORD PTR _drawingSPt$[ebp], edi
; File D:\git\src\IBK\IBK_DRFN\ProjSrc\SrcChartEx\ChartAddIn\ChartAnalysisToolAddIn\AnalysisTool\Line.cpp

; 739  : 	CPoint drawingEPt = GetDrawingRegion_EndPoint(startPoint, endPoint, nRadius);

  0007f	8b 06		 mov	 eax, DWORD PTR [esi]
  00081	51		 push	 ecx
  00082	8b ce		 mov	 ecx, esi
  00084	ff 50 4c	 call	 DWORD PTR [eax+76]

; 740  : 
; 741  : 	return CTwoPointElement::ElementInRegion(region, drawingSPt, drawingEPt, point);

  00087	ff 75 14	 push	 DWORD PTR _point$[ebp]
  0008a	8d 45 ec	 lea	 eax, DWORD PTR _drawingEPt$[ebp]
  0008d	8b ce		 mov	 ecx, esi
  0008f	50		 push	 eax
  00090	8d 45 f4	 lea	 eax, DWORD PTR _drawingSPt$[ebp]
  00093	50		 push	 eax
  00094	ff 75 08	 push	 DWORD PTR _region$[ebp]
  00097	e8 00 00 00 00	 call	 ?ElementInRegion@CTwoPointElement@@MBE_NABVCRect@@ABVCPoint@@11@Z ; CTwoPointElement::ElementInRegion
  0009c	5f		 pop	 edi
  0009d	5e		 pop	 esi
  0009e	5b		 pop	 ebx

; 742  : }

  0009f	8b e5		 mov	 esp, ebp
  000a1	5d		 pop	 ebp
  000a2	c2 10 00	 ret	 16			; 00000010H
?ElementInRegion@CSpeedArc@@MBE_NABVCRect@@ABVCPoint@@11@Z ENDP ; CSpeedArc::ElementInRegion
_TEXT	ENDS
; Function compile flags: /Ogtp
; File D:\git\src\IBK\IBK_DRFN\ProjSrc\SrcChartEx\ChartAddIn\ChartAnalysisToolAddIn\AnalysisTool\Line.cpp
;	COMDAT ?GetTwoPointDrawer@CSpeedArc@@MAEAAVCTwoPointDrawer@@XZ
_TEXT	SEGMENT
?GetTwoPointDrawer@CSpeedArc@@MAEAAVCTwoPointDrawer@@XZ PROC ; CSpeedArc::GetTwoPointDrawer, COMDAT
; _this$ = ecx

; 728  : 	return m_speedArcDrawer;

  00000	8d 81 90 00 00
	00		 lea	 eax, DWORD PTR [ecx+144]

; 729  : }

  00006	c3		 ret	 0
?GetTwoPointDrawer@CSpeedArc@@MAEAAVCTwoPointDrawer@@XZ ENDP ; CSpeedArc::GetTwoPointDrawer
_TEXT	ENDS
; Function compile flags: /Ogtp
; File D:\git\src\IBK\IBK_DRFN\ProjSrc\SrcChartEx\ChartAddIn\ChartAnalysisToolAddIn\AnalysisTool\Line.cpp
;	COMDAT ?GetElementType@CSpeedArc@@UBE?AW4ElementType@CToolEnumData@@XZ
_TEXT	SEGMENT
?GetElementType@CSpeedArc@@UBE?AW4ElementType@CToolEnumData@@XZ PROC ; CSpeedArc::GetElementType, COMDAT
; _this$ = ecx

; 722  : 	return CToolEnumData::Speed_Arc;

  00000	b8 1a 00 00 00	 mov	 eax, 26			; 0000001aH

; 723  : }

  00005	c3		 ret	 0
?GetElementType@CSpeedArc@@UBE?AW4ElementType@CToolEnumData@@XZ ENDP ; CSpeedArc::GetElementType
_TEXT	ENDS
; Function compile flags: /Ogtp
; File D:\git\src\IBK\IBK_DRFN\ProjSrc\SrcChartEx\ChartAddIn\ChartAnalysisToolAddIn\AnalysisTool\Line.cpp
;	COMDAT ??0CSpeedArc@@QAE@ABVCCoordinate@@0ABVCElementCommonEnvironment@@@Z
_TEXT	SEGMENT
_this$ = -16						; size = 4
__$EHRec$ = -12						; size = 12
_point1$ = 8						; size = 4
_point2$ = 12						; size = 4
_environment$ = 16					; size = 4
??0CSpeedArc@@QAE@ABVCCoordinate@@0ABVCElementCommonEnvironment@@@Z PROC ; CSpeedArc::CSpeedArc, COMDAT
; _this$ = ecx

; 717  : {

  00000	55		 push	 ebp
  00001	8b ec		 mov	 ebp, esp
  00003	6a ff		 push	 -1
  00005	68 00 00 00 00	 push	 __ehhandler$??0CSpeedArc@@QAE@ABVCCoordinate@@0ABVCElementCommonEnvironment@@@Z
  0000a	64 a1 00 00 00
	00		 mov	 eax, DWORD PTR fs:0
  00010	50		 push	 eax
  00011	51		 push	 ecx
  00012	56		 push	 esi
  00013	a1 00 00 00 00	 mov	 eax, DWORD PTR ___security_cookie
  00018	33 c5		 xor	 eax, ebp
  0001a	50		 push	 eax
  0001b	8d 45 f4	 lea	 eax, DWORD PTR __$EHRec$[ebp]
  0001e	64 a3 00 00 00
	00		 mov	 DWORD PTR fs:0, eax
  00024	8b f1		 mov	 esi, ecx
  00026	89 75 f0	 mov	 DWORD PTR _this$[ebp], esi

; 716  : 	CTwoPointElement(point1, point2, environment)

  00029	ff 75 10	 push	 DWORD PTR _environment$[ebp]
  0002c	ff 75 0c	 push	 DWORD PTR _point2$[ebp]
  0002f	ff 75 08	 push	 DWORD PTR _point1$[ebp]
  00032	e8 00 00 00 00	 call	 ??0CTwoPointElement@@QAE@ABVCCoordinate@@0ABVCElementCommonEnvironment@@@Z ; CTwoPointElement::CTwoPointElement

; 717  : {

  00037	c7 06 00 00 00
	00		 mov	 DWORD PTR [esi], OFFSET ??_7CSpeedArc@@6B@
  0003d	8d 8e 98 00 00
	00		 lea	 ecx, DWORD PTR [esi+152]
  00043	c7 45 fc 00 00
	00 00		 mov	 DWORD PTR __$EHRec$[ebp+8], 0
  0004a	c7 86 94 00 00
	00 00 00 00 00	 mov	 DWORD PTR [esi+148], OFFSET ??_8CSpeedArcDrawer@@7B@
  00054	e8 00 00 00 00	 call	 ??0CDrawer@@QAE@XZ	; CDrawer::CDrawer
  00059	c7 86 90 00 00
	00 00 00 00 00	 mov	 DWORD PTR [esi+144], OFFSET ??_7CSpeedArcDrawer@@6B@

; 718  : }

  00063	8b c6		 mov	 eax, esi
  00065	8b 4d f4	 mov	 ecx, DWORD PTR __$EHRec$[ebp]
  00068	64 89 0d 00 00
	00 00		 mov	 DWORD PTR fs:0, ecx
  0006f	59		 pop	 ecx
  00070	5e		 pop	 esi
  00071	8b e5		 mov	 esp, ebp
  00073	5d		 pop	 ebp
  00074	c2 0c 00	 ret	 12			; 0000000cH
  00077	cc		 int	 3
  00078	cc		 int	 3
  00079	cc		 int	 3
  0007a	cc		 int	 3
  0007b	cc		 int	 3
_TEXT	ENDS
;	COMDAT text$x
text$x	SEGMENT
__ehhandler$??0CSpeedArc@@QAE@ABVCCoordinate@@0ABVCElementCommonEnvironment@@@Z:
  00000	90		 npad	 1
  00001	90		 npad	 1
  00002	8b 54 24 08	 mov	 edx, DWORD PTR [esp+8]
  00006	8d 42 0c	 lea	 eax, DWORD PTR [edx+12]
  00009	8b 4a f4	 mov	 ecx, DWORD PTR [edx-12]
  0000c	33 c8		 xor	 ecx, eax
  0000e	e8 00 00 00 00	 call	 @__security_check_cookie@4
  00013	b8 00 00 00 00	 mov	 eax, OFFSET __ehfuncinfo$??0CSpeedArc@@QAE@ABVCCoordinate@@0ABVCElementCommonEnvironment@@@Z
  00018	e9 00 00 00 00	 jmp	 ___CxxFrameHandler3
text$x	ENDS
??0CSpeedArc@@QAE@ABVCCoordinate@@0ABVCElementCommonEnvironment@@@Z ENDP ; CSpeedArc::CSpeedArc
; Function compile flags: /Ogtp
; File D:\git\src\IBK\IBK_DRFN\ProjSrc\SrcChartEx\ChartAddIn\ChartAnalysisToolAddIn\AnalysisTool\Element.h
;	COMDAT ??_GCSpeedFan@@UAEPAXI@Z
_TEXT	SEGMENT
___flags$ = 8						; size = 4
??_GCSpeedFan@@UAEPAXI@Z PROC				; CSpeedFan::`scalar deleting destructor', COMDAT
; _this$ = ecx
  00000	55		 push	 ebp
  00001	8b ec		 mov	 ebp, esp

; 31   : 	virtual ~CElement()	{}

  00003	56		 push	 esi
  00004	8b f1		 mov	 esi, ecx
  00006	8d 8e 84 00 00
	00		 lea	 ecx, DWORD PTR [esi+132]
  0000c	ff 15 00 00 00
	00		 call	 DWORD PTR __imp_??1?$CStringT@DV?$StrTraitMFC_DLL@DV?$ChTraitsCRT@D@ATL@@@@@ATL@@QAE@XZ
  00012	8d 4e 64	 lea	 ecx, DWORD PTR [esi+100]
  00015	ff 15 00 00 00
	00		 call	 DWORD PTR __imp_??1?$CStringT@DV?$StrTraitMFC_DLL@DV?$ChTraitsCRT@D@ATL@@@@@ATL@@QAE@XZ
  0001b	8d 4e 40	 lea	 ecx, DWORD PTR [esi+64]
  0001e	c7 06 00 00 00
	00		 mov	 DWORD PTR [esi], OFFSET ??_7CElement@@6B@
  00024	ff 15 00 00 00
	00		 call	 DWORD PTR __imp_??1?$CStringT@DV?$StrTraitMFC_DLL@DV?$ChTraitsCRT@D@ATL@@@@@ATL@@QAE@XZ
  0002a	8d 4e 3c	 lea	 ecx, DWORD PTR [esi+60]
  0002d	ff 15 00 00 00
	00		 call	 DWORD PTR __imp_??1?$CStringT@DV?$StrTraitMFC_DLL@DV?$ChTraitsCRT@D@ATL@@@@@ATL@@QAE@XZ
  00033	8d 4e 38	 lea	 ecx, DWORD PTR [esi+56]
  00036	ff 15 00 00 00
	00		 call	 DWORD PTR __imp_??1?$CStringT@DV?$StrTraitMFC_DLL@DV?$ChTraitsCRT@D@ATL@@@@@ATL@@QAE@XZ
  0003c	f6 45 08 01	 test	 BYTE PTR ___flags$[ebp], 1
  00040	74 0e		 je	 SHORT $LN25@scalar
  00042	68 b0 00 00 00	 push	 176			; 000000b0H
  00047	56		 push	 esi
  00048	e8 00 00 00 00	 call	 ??3@YAXPAXI@Z		; operator delete
  0004d	83 c4 08	 add	 esp, 8
$LN25@scalar:
  00050	8b c6		 mov	 eax, esi
  00052	5e		 pop	 esi
  00053	5d		 pop	 ebp
  00054	c2 04 00	 ret	 4
??_GCSpeedFan@@UAEPAXI@Z ENDP				; CSpeedFan::`scalar deleting destructor'
_TEXT	ENDS
; Function compile flags: /Ogtp
; File D:\git\src\IBK\IBK_DRFN\ProjSrc\SrcChartEx\ChartAddIn\ChartAnalysisToolAddIn\AnalysisTool\Line.cpp
; File C:\Program Files (x86)\Microsoft Visual Studio\2019\Community\VC\Tools\MSVC\14.29.30133\atlmfc\include\atltypes.h
; File D:\git\src\IBK\IBK_DRFN\ProjSrc\SrcChartEx\ChartAddIn\ChartAnalysisToolAddIn\AnalysisTool\Line.cpp
; File C:\Program Files (x86)\Microsoft Visual Studio\2019\Community\VC\Tools\MSVC\14.29.30133\atlmfc\include\atltypes.h
; File D:\git\src\IBK\IBK_DRFN\ProjSrc\SrcChartEx\ChartAddIn\ChartAnalysisToolAddIn\AnalysisTool\Line.cpp
; File C:\Program Files (x86)\Microsoft Visual Studio\2019\Community\VC\Tools\MSVC\14.29.30133\atlmfc\include\atltypes.h
; File D:\git\src\IBK\IBK_DRFN\ProjSrc\SrcChartEx\ChartAddIn\ChartAnalysisToolAddIn\AnalysisTool\Line.cpp
; File C:\Program Files (x86)\Microsoft Visual Studio\2019\Community\VC\Tools\MSVC\14.29.30133\atlmfc\include\atltypes.h
; File D:\git\src\IBK\IBK_DRFN\ProjSrc\SrcChartEx\ChartAddIn\ChartAnalysisToolAddIn\AnalysisTool\Line.cpp
; File C:\Program Files (x86)\Microsoft Visual Studio\2019\Community\VC\Tools\MSVC\14.29.30133\atlmfc\include\atltypes.h
; File D:\git\src\IBK\IBK_DRFN\ProjSrc\SrcChartEx\ChartAddIn\ChartAnalysisToolAddIn\AnalysisTool\Line.cpp
; File C:\Program Files (x86)\Microsoft Visual Studio\2019\Community\VC\Tools\MSVC\14.29.30133\atlmfc\include\atltypes.h
; File D:\git\src\IBK\IBK_DRFN\ProjSrc\SrcChartEx\ChartAddIn\ChartAnalysisToolAddIn\AnalysisTool\Line.cpp
; File C:\Program Files (x86)\Microsoft Visual Studio\2019\Community\VC\Tools\MSVC\14.29.30133\atlmfc\include\atltypes.h
; File D:\git\src\IBK\IBK_DRFN\ProjSrc\SrcChartEx\ChartAddIn\ChartAnalysisToolAddIn\AnalysisTool\Line.cpp
;	COMDAT ?GetModifyType@CSpeedFan@@MBE?AW4ModifyType@CToolEnumData@@ABVCRect@@ABVCPoint@@11@Z
_TEXT	SEGMENT
$T1 = -40						; size = 8
$T2 = -32						; size = 8
_rightPt$ = -24						; size = 8
_leftPt$ = -16						; size = 8
_lineEndPt$3 = -8					; size = 8
_region$ = 8						; size = 4
_drawingStartPt$ = 12					; size = 4
_drawingEndPt$ = 16					; size = 4
_point$ = 20						; size = 4
?GetModifyType@CSpeedFan@@MBE?AW4ModifyType@CToolEnumData@@ABVCRect@@ABVCPoint@@11@Z PROC ; CSpeedFan::GetModifyType, COMDAT
; _this$ = ecx

; 671  : {

  00000	55		 push	 ebp
  00001	8b ec		 mov	 ebp, esp
  00003	83 ec 28	 sub	 esp, 40			; 00000028H
  00006	53		 push	 ebx

; 672  : 	// 1.     .
; 673  : 	CToolEnumData::ModifyType sidePointModifyType = GetModifyType_SidePoints( drawingStartPt, drawingEndPt, point);

  00007	8b 5d 14	 mov	 ebx, DWORD PTR _point$[ebp]
  0000a	56		 push	 esi
  0000b	8b 75 10	 mov	 esi, DWORD PTR _drawingEndPt$[ebp]
  0000e	57		 push	 edi
  0000f	53		 push	 ebx
  00010	56		 push	 esi
  00011	ff 75 0c	 push	 DWORD PTR _drawingStartPt$[ebp]
  00014	8b f9		 mov	 edi, ecx
  00016	e8 00 00 00 00	 call	 ?GetModifyType_SidePoints@CTwoPointElement@@IBE?AW4ModifyType@CToolEnumData@@ABVCPoint@@00@Z ; CTwoPointElement::GetModifyType_SidePoints

; 674  : 	if( sidePointModifyType != CToolEnumData::MODIFY_NONE) 

  0001b	85 c0		 test	 eax, eax
  0001d	0f 85 fd 00 00
	00		 jne	 $LN1@GetModifyT

; 675  : 		return sidePointModifyType;
; 676  : 
; 677  : 	CToolEnumData::ModifyType frameRectModifyType = GetModifyType_Rect( drawingStartPt, drawingEndPt, point);

  00023	53		 push	 ebx
  00024	56		 push	 esi
  00025	ff 75 0c	 push	 DWORD PTR _drawingStartPt$[ebp]
  00028	8b cf		 mov	 ecx, edi
  0002a	e8 00 00 00 00	 call	 ?GetModifyType_Rect@CTwoPointElement@@IBE?AW4ModifyType@CToolEnumData@@ABVCPoint@@00@Z ; CTwoPointElement::GetModifyType_Rect

; 678  : 	if( frameRectModifyType != CToolEnumData::MODIFY_NONE) 

  0002f	85 c0		 test	 eax, eax
  00031	0f 85 e9 00 00
	00		 jne	 $LN1@GetModifyT

; 682  : 	m_speedFanDrawer.GetPoints(drawingStartPt, drawingEndPt, leftPt, rightPt);

  00037	8d 4d e8	 lea	 ecx, DWORD PTR _rightPt$[ebp]
; File C:\Program Files (x86)\Microsoft Visual Studio\2019\Community\VC\Tools\MSVC\14.29.30133\atlmfc\include\atltypes.h

; 400  : 	x = 0;

  0003a	89 45 f0	 mov	 DWORD PTR _leftPt$[ebp], eax
; File D:\git\src\IBK\IBK_DRFN\ProjSrc\SrcChartEx\ChartAddIn\ChartAnalysisToolAddIn\AnalysisTool\Line.cpp

; 682  : 	m_speedFanDrawer.GetPoints(drawingStartPt, drawingEndPt, leftPt, rightPt);

  0003d	51		 push	 ecx
  0003e	8d 4d f0	 lea	 ecx, DWORD PTR _leftPt$[ebp]
; File C:\Program Files (x86)\Microsoft Visual Studio\2019\Community\VC\Tools\MSVC\14.29.30133\atlmfc\include\atltypes.h

; 401  : 	y = 0;

  00041	89 45 f4	 mov	 DWORD PTR _leftPt$[ebp+4], eax
; File D:\git\src\IBK\IBK_DRFN\ProjSrc\SrcChartEx\ChartAddIn\ChartAnalysisToolAddIn\AnalysisTool\Line.cpp

; 682  : 	m_speedFanDrawer.GetPoints(drawingStartPt, drawingEndPt, leftPt, rightPt);

  00044	51		 push	 ecx
  00045	56		 push	 esi
  00046	ff 75 0c	 push	 DWORD PTR _drawingStartPt$[ebp]
  00049	8d 8f 90 00 00
	00		 lea	 ecx, DWORD PTR [edi+144]
; File C:\Program Files (x86)\Microsoft Visual Studio\2019\Community\VC\Tools\MSVC\14.29.30133\atlmfc\include\atltypes.h

; 400  : 	x = 0;

  0004f	89 45 e8	 mov	 DWORD PTR _rightPt$[ebp], eax

; 401  : 	y = 0;

  00052	89 45 ec	 mov	 DWORD PTR _rightPt$[ebp+4], eax
; File D:\git\src\IBK\IBK_DRFN\ProjSrc\SrcChartEx\ChartAddIn\ChartAnalysisToolAddIn\AnalysisTool\Line.cpp

; 682  : 	m_speedFanDrawer.GetPoints(drawingStartPt, drawingEndPt, leftPt, rightPt);

  00055	e8 00 00 00 00	 call	 ?GetPoints@CSpeedFanDrawer@@QBEXABVCPoint@@0AAV2@1@Z ; CSpeedFanDrawer::GetPoints

; 683  : 
; 684  : 	for(int nIndex = 0; nIndex < m_speedFanDrawer.GetCount(); nIndex++)

  0005a	8d 8f 90 00 00
	00		 lea	 ecx, DWORD PTR [edi+144]
  00060	33 f6		 xor	 esi, esi
  00062	e8 00 00 00 00	 call	 ?GetCount@CSpeedFanDrawer@@QBEHXZ ; CSpeedFanDrawer::GetCount
  00067	85 c0		 test	 eax, eax
  00069	0f 8e af 00 00
	00		 jle	 $LN35@GetModifyT
  0006f	90		 npad	 1
$LL4@GetModifyT:

; 687  : 		if(!m_speedFanDrawer.GetLineEndPoint(region, leftPt, rightPt, nIndex, lineEndPt))

  00070	8d 45 f8	 lea	 eax, DWORD PTR _lineEndPt$3[ebp]
; File C:\Program Files (x86)\Microsoft Visual Studio\2019\Community\VC\Tools\MSVC\14.29.30133\atlmfc\include\atltypes.h

; 400  : 	x = 0;

  00073	c7 45 f8 00 00
	00 00		 mov	 DWORD PTR _lineEndPt$3[ebp], 0
; File D:\git\src\IBK\IBK_DRFN\ProjSrc\SrcChartEx\ChartAddIn\ChartAnalysisToolAddIn\AnalysisTool\Line.cpp

; 687  : 		if(!m_speedFanDrawer.GetLineEndPoint(region, leftPt, rightPt, nIndex, lineEndPt))

  0007a	50		 push	 eax
  0007b	56		 push	 esi
  0007c	8d 45 e8	 lea	 eax, DWORD PTR _rightPt$[ebp]
; File C:\Program Files (x86)\Microsoft Visual Studio\2019\Community\VC\Tools\MSVC\14.29.30133\atlmfc\include\atltypes.h

; 401  : 	y = 0;

  0007f	c7 45 fc 00 00
	00 00		 mov	 DWORD PTR _lineEndPt$3[ebp+4], 0
; File D:\git\src\IBK\IBK_DRFN\ProjSrc\SrcChartEx\ChartAddIn\ChartAnalysisToolAddIn\AnalysisTool\Line.cpp

; 687  : 		if(!m_speedFanDrawer.GetLineEndPoint(region, leftPt, rightPt, nIndex, lineEndPt))

  00086	50		 push	 eax
  00087	8d 45 f0	 lea	 eax, DWORD PTR _leftPt$[ebp]
  0008a	50		 push	 eax
  0008b	ff 75 08	 push	 DWORD PTR _region$[ebp]
  0008e	8d 8f 90 00 00
	00		 lea	 ecx, DWORD PTR [edi+144]
  00094	e8 00 00 00 00	 call	 ?GetLineEndPoint@CSpeedFanDrawer@@QBE_NABVCRect@@ABVCPoint@@1HAAV3@@Z ; CSpeedFanDrawer::GetLineEndPoint
  00099	84 c0		 test	 al, al
  0009b	74 6d		 je	 SHORT $LN2@GetModifyT

; 688  : 			continue;
; 689  : 
; 690  : 		if(nIndex > 0 && nIndex < 3)

  0009d	85 f6		 test	 esi, esi
  0009f	7e 55		 jle	 SHORT $LN33@GetModifyT
  000a1	8b cf		 mov	 ecx, edi
  000a3	53		 push	 ebx
  000a4	83 fe 03	 cmp	 esi, 3
  000a7	7d 2b		 jge	 SHORT $LN34@GetModifyT
; File C:\Program Files (x86)\Microsoft Visual Studio\2019\Community\VC\Tools\MSVC\14.29.30133\atlmfc\include\atltypes.h

; 408  : 	x = initX;

  000a9	8b 45 f0	 mov	 eax, DWORD PTR _leftPt$[ebp]
  000ac	89 45 e0	 mov	 DWORD PTR $T2[ebp], eax

; 409  : 	y = initY;

  000af	8b 45 fc	 mov	 eax, DWORD PTR _lineEndPt$3[ebp+4]
  000b2	89 45 e4	 mov	 DWORD PTR $T2[ebp+4], eax
; File D:\git\src\IBK\IBK_DRFN\ProjSrc\SrcChartEx\ChartAddIn\ChartAnalysisToolAddIn\AnalysisTool\Line.cpp

; 692  : 			if(CElement::PointInElementSelectableRegion(CPoint(leftPt.x,lineEndPt.y), lineEndPt, point))

  000b5	8d 45 f8	 lea	 eax, DWORD PTR _lineEndPt$3[ebp]
  000b8	50		 push	 eax
  000b9	8d 45 e0	 lea	 eax, DWORD PTR $T2[ebp]
  000bc	50		 push	 eax
  000bd	e8 00 00 00 00	 call	 ?PointInElementSelectableRegion@CElement@@IBE_NABVCPoint@@00@Z ; CElement::PointInElementSelectableRegion
  000c2	84 c0		 test	 al, al
  000c4	74 30		 je	 SHORT $LN33@GetModifyT
$LN29@GetModifyT:
  000c6	5f		 pop	 edi

; 709  : }

  000c7	5e		 pop	 esi
  000c8	b8 01 00 00 00	 mov	 eax, 1
  000cd	5b		 pop	 ebx
  000ce	8b e5		 mov	 esp, ebp
  000d0	5d		 pop	 ebp
  000d1	c2 10 00	 ret	 16			; 00000010H
$LN34@GetModifyT:
; File C:\Program Files (x86)\Microsoft Visual Studio\2019\Community\VC\Tools\MSVC\14.29.30133\atlmfc\include\atltypes.h

; 408  : 	x = initX;

  000d4	8b 45 f8	 mov	 eax, DWORD PTR _lineEndPt$3[ebp]
  000d7	89 45 d8	 mov	 DWORD PTR $T1[ebp], eax

; 409  : 	y = initY;

  000da	8b 45 f4	 mov	 eax, DWORD PTR _leftPt$[ebp+4]
  000dd	89 45 dc	 mov	 DWORD PTR $T1[ebp+4], eax
; File D:\git\src\IBK\IBK_DRFN\ProjSrc\SrcChartEx\ChartAddIn\ChartAnalysisToolAddIn\AnalysisTool\Line.cpp

; 697  : 			if(CElement::PointInElementSelectableRegion(CPoint(lineEndPt.x,leftPt.y), lineEndPt, point))

  000e0	8d 45 f8	 lea	 eax, DWORD PTR _lineEndPt$3[ebp]
  000e3	50		 push	 eax
  000e4	8d 45 d8	 lea	 eax, DWORD PTR $T1[ebp]
  000e7	50		 push	 eax
  000e8	e8 00 00 00 00	 call	 ?PointInElementSelectableRegion@CElement@@IBE_NABVCPoint@@00@Z ; CElement::PointInElementSelectableRegion
  000ed	84 c0		 test	 al, al
  000ef	75 d5		 jne	 SHORT $LN29@GetModifyT

; 698  : 				return CToolEnumData::MODIFY_CENTER;
; 699  : 		} 
; 700  : 
; 701  : 		if(nIndex < 3)

  000f1	83 fe 03	 cmp	 esi, 3
  000f4	7d 14		 jge	 SHORT $LN2@GetModifyT
$LN33@GetModifyT:

; 702  : 		{
; 703  : 			if(CElement::PointInElementSelectableRegion(leftPt, lineEndPt, point))

  000f6	53		 push	 ebx
  000f7	8d 45 f8	 lea	 eax, DWORD PTR _lineEndPt$3[ebp]
  000fa	8b cf		 mov	 ecx, edi
  000fc	50		 push	 eax
  000fd	8d 45 f0	 lea	 eax, DWORD PTR _leftPt$[ebp]
  00100	50		 push	 eax
  00101	e8 00 00 00 00	 call	 ?PointInElementSelectableRegion@CElement@@IBE_NABVCPoint@@00@Z ; CElement::PointInElementSelectableRegion
  00106	84 c0		 test	 al, al
  00108	75 bc		 jne	 SHORT $LN29@GetModifyT
$LN2@GetModifyT:

; 683  : 
; 684  : 	for(int nIndex = 0; nIndex < m_speedFanDrawer.GetCount(); nIndex++)

  0010a	8d 8f 90 00 00
	00		 lea	 ecx, DWORD PTR [edi+144]
  00110	46		 inc	 esi
  00111	e8 00 00 00 00	 call	 ?GetCount@CSpeedFanDrawer@@QBEHXZ ; CSpeedFanDrawer::GetCount
  00116	3b f0		 cmp	 esi, eax
  00118	0f 8c 52 ff ff
	ff		 jl	 $LL4@GetModifyT
$LN35@GetModifyT:

; 704  : 				return CToolEnumData::MODIFY_CENTER;
; 705  : 		}
; 706  : 	}
; 707  : 	
; 708  : 	return CToolEnumData::MODIFY_NONE;

  0011e	33 c0		 xor	 eax, eax
$LN1@GetModifyT:
  00120	5f		 pop	 edi

; 709  : }

  00121	5e		 pop	 esi
  00122	5b		 pop	 ebx
  00123	8b e5		 mov	 esp, ebp
  00125	5d		 pop	 ebp
  00126	c2 10 00	 ret	 16			; 00000010H
?GetModifyType@CSpeedFan@@MBE?AW4ModifyType@CToolEnumData@@ABVCRect@@ABVCPoint@@11@Z ENDP ; CSpeedFan::GetModifyType
_TEXT	ENDS
; Function compile flags: /Ogtp
; File D:\git\src\IBK\IBK_DRFN\ProjSrc\SrcChartEx\ChartAddIn\ChartAnalysisToolAddIn\AnalysisTool\Line.cpp
;	COMDAT ?ElementInRegion@CSpeedFan@@MBE_NABVCRect@@ABVCPoint@@11@Z
_TEXT	SEGMENT
_region$ = 8						; size = 4
_startPoint$ = 12					; size = 4
_endPoint$ = 16						; size = 4
_point$ = 20						; size = 4
?ElementInRegion@CSpeedFan@@MBE_NABVCRect@@ABVCPoint@@11@Z PROC ; CSpeedFan::ElementInRegion, COMDAT
; _this$ = ecx

; 658  : {

  00000	55		 push	 ebp
  00001	8b ec		 mov	 ebp, esp
  00003	56		 push	 esi

; 659  : 	if(CTwoPointElement::ElementInRegion(region, startPoint, endPoint, point))

  00004	8b 75 0c	 mov	 esi, DWORD PTR _startPoint$[ebp]
  00007	57		 push	 edi
  00008	ff 75 14	 push	 DWORD PTR _point$[ebp]
  0000b	8b 7d 08	 mov	 edi, DWORD PTR _region$[ebp]
  0000e	ff 75 10	 push	 DWORD PTR _endPoint$[ebp]
  00011	56		 push	 esi
  00012	57		 push	 edi
  00013	e8 00 00 00 00	 call	 ?ElementInRegion@CTwoPointElement@@MBE_NABVCRect@@ABVCPoint@@11@Z ; CTwoPointElement::ElementInRegion
  00018	84 c0		 test	 al, al
  0001a	75 0f		 jne	 SHORT $LN3@ElementInR

; 660  : 		return true;
; 661  : 
; 662  : 	if(startPoint.x > region.right)

  0001c	8b 06		 mov	 eax, DWORD PTR [esi]
  0001e	3b 47 08	 cmp	 eax, DWORD PTR [edi+8]
  00021	7e 08		 jle	 SHORT $LN3@ElementInR

; 663  : 		return false;

  00023	5f		 pop	 edi
  00024	32 c0		 xor	 al, al

; 666  : }

  00026	5e		 pop	 esi
  00027	5d		 pop	 ebp
  00028	c2 10 00	 ret	 16			; 00000010H
$LN3@ElementInR:
  0002b	5f		 pop	 edi

; 664  : 
; 665  : 	return true;

  0002c	b0 01		 mov	 al, 1

; 666  : }

  0002e	5e		 pop	 esi
  0002f	5d		 pop	 ebp
  00030	c2 10 00	 ret	 16			; 00000010H
?ElementInRegion@CSpeedFan@@MBE_NABVCRect@@ABVCPoint@@11@Z ENDP ; CSpeedFan::ElementInRegion
_TEXT	ENDS
; Function compile flags: /Ogtp
; File D:\git\src\IBK\IBK_DRFN\ProjSrc\SrcChartEx\ChartAddIn\ChartAnalysisToolAddIn\AnalysisTool\Line.cpp
;	COMDAT ?GetTwoPointDrawer@CSpeedFan@@MAEAAVCTwoPointDrawer@@XZ
_TEXT	SEGMENT
?GetTwoPointDrawer@CSpeedFan@@MAEAAVCTwoPointDrawer@@XZ PROC ; CSpeedFan::GetTwoPointDrawer, COMDAT
; _this$ = ecx

; 651  : 	return m_speedFanDrawer;

  00000	8d 81 90 00 00
	00		 lea	 eax, DWORD PTR [ecx+144]

; 652  : }

  00006	c3		 ret	 0
?GetTwoPointDrawer@CSpeedFan@@MAEAAVCTwoPointDrawer@@XZ ENDP ; CSpeedFan::GetTwoPointDrawer
_TEXT	ENDS
; Function compile flags: /Ogtp
; File D:\git\src\IBK\IBK_DRFN\ProjSrc\SrcChartEx\ChartAddIn\ChartAnalysisToolAddIn\AnalysisTool\Line.cpp
;	COMDAT ?GetElementType@CSpeedFan@@UBE?AW4ElementType@CToolEnumData@@XZ
_TEXT	SEGMENT
?GetElementType@CSpeedFan@@UBE?AW4ElementType@CToolEnumData@@XZ PROC ; CSpeedFan::GetElementType, COMDAT
; _this$ = ecx

; 645  : 	return CToolEnumData::Speed_Fan;

  00000	b8 19 00 00 00	 mov	 eax, 25			; 00000019H

; 646  : }

  00005	c3		 ret	 0
?GetElementType@CSpeedFan@@UBE?AW4ElementType@CToolEnumData@@XZ ENDP ; CSpeedFan::GetElementType
_TEXT	ENDS
; Function compile flags: /Ogtp
; File D:\git\src\IBK\IBK_DRFN\ProjSrc\SrcChartEx\ChartAddIn\ChartAnalysisToolAddIn\AnalysisTool\Line.cpp
;	COMDAT ??0CSpeedFan@@QAE@ABVCCoordinate@@0ABVCElementCommonEnvironment@@@Z
_TEXT	SEGMENT
_this$ = -16						; size = 4
__$EHRec$ = -12						; size = 12
_point1$ = 8						; size = 4
_point2$ = 12						; size = 4
_environment$ = 16					; size = 4
??0CSpeedFan@@QAE@ABVCCoordinate@@0ABVCElementCommonEnvironment@@@Z PROC ; CSpeedFan::CSpeedFan, COMDAT
; _this$ = ecx

; 640  : {

  00000	55		 push	 ebp
  00001	8b ec		 mov	 ebp, esp
  00003	6a ff		 push	 -1
  00005	68 00 00 00 00	 push	 __ehhandler$??0CSpeedFan@@QAE@ABVCCoordinate@@0ABVCElementCommonEnvironment@@@Z
  0000a	64 a1 00 00 00
	00		 mov	 eax, DWORD PTR fs:0
  00010	50		 push	 eax
  00011	51		 push	 ecx
  00012	56		 push	 esi
  00013	a1 00 00 00 00	 mov	 eax, DWORD PTR ___security_cookie
  00018	33 c5		 xor	 eax, ebp
  0001a	50		 push	 eax
  0001b	8d 45 f4	 lea	 eax, DWORD PTR __$EHRec$[ebp]
  0001e	64 a3 00 00 00
	00		 mov	 DWORD PTR fs:0, eax
  00024	8b f1		 mov	 esi, ecx
  00026	89 75 f0	 mov	 DWORD PTR _this$[ebp], esi

; 639  : 	CTwoPointElement(point1, point2, environment)

  00029	ff 75 10	 push	 DWORD PTR _environment$[ebp]
  0002c	ff 75 0c	 push	 DWORD PTR _point2$[ebp]
  0002f	ff 75 08	 push	 DWORD PTR _point1$[ebp]
  00032	e8 00 00 00 00	 call	 ??0CTwoPointElement@@QAE@ABVCCoordinate@@0ABVCElementCommonEnvironment@@@Z ; CTwoPointElement::CTwoPointElement

; 640  : {

  00037	c7 06 00 00 00
	00		 mov	 DWORD PTR [esi], OFFSET ??_7CSpeedFan@@6B@
  0003d	8d 8e 98 00 00
	00		 lea	 ecx, DWORD PTR [esi+152]
  00043	c7 45 fc 00 00
	00 00		 mov	 DWORD PTR __$EHRec$[ebp+8], 0
  0004a	c7 86 94 00 00
	00 00 00 00 00	 mov	 DWORD PTR [esi+148], OFFSET ??_8CSpeedFanDrawer@@7B@
  00054	e8 00 00 00 00	 call	 ??0CDrawer@@QAE@XZ	; CDrawer::CDrawer
  00059	c7 86 90 00 00
	00 00 00 00 00	 mov	 DWORD PTR [esi+144], OFFSET ??_7CSpeedFanDrawer@@6B@

; 641  : }

  00063	8b c6		 mov	 eax, esi
  00065	8b 4d f4	 mov	 ecx, DWORD PTR __$EHRec$[ebp]
  00068	64 89 0d 00 00
	00 00		 mov	 DWORD PTR fs:0, ecx
  0006f	59		 pop	 ecx
  00070	5e		 pop	 esi
  00071	8b e5		 mov	 esp, ebp
  00073	5d		 pop	 ebp
  00074	c2 0c 00	 ret	 12			; 0000000cH
  00077	cc		 int	 3
  00078	cc		 int	 3
  00079	cc		 int	 3
  0007a	cc		 int	 3
  0007b	cc		 int	 3
_TEXT	ENDS
;	COMDAT text$x
text$x	SEGMENT
__ehhandler$??0CSpeedFan@@QAE@ABVCCoordinate@@0ABVCElementCommonEnvironment@@@Z:
  00000	90		 npad	 1
  00001	90		 npad	 1
  00002	8b 54 24 08	 mov	 edx, DWORD PTR [esp+8]
  00006	8d 42 0c	 lea	 eax, DWORD PTR [edx+12]
  00009	8b 4a f4	 mov	 ecx, DWORD PTR [edx-12]
  0000c	33 c8		 xor	 ecx, eax
  0000e	e8 00 00 00 00	 call	 @__security_check_cookie@4
  00013	b8 00 00 00 00	 mov	 eax, OFFSET __ehfuncinfo$??0CSpeedFan@@QAE@ABVCCoordinate@@0ABVCElementCommonEnvironment@@@Z
  00018	e9 00 00 00 00	 jmp	 ___CxxFrameHandler3
text$x	ENDS
??0CSpeedFan@@QAE@ABVCCoordinate@@0ABVCElementCommonEnvironment@@@Z ENDP ; CSpeedFan::CSpeedFan
; Function compile flags: /Ogtp
; File D:\git\src\IBK\IBK_DRFN\ProjSrc\SrcChartEx\ChartAddIn\ChartAnalysisToolAddIn\AnalysisTool\Element.h
;	COMDAT ??_GCSpeedLine@@UAEPAXI@Z
_TEXT	SEGMENT
___flags$ = 8						; size = 4
??_GCSpeedLine@@UAEPAXI@Z PROC				; CSpeedLine::`scalar deleting destructor', COMDAT
; _this$ = ecx
  00000	55		 push	 ebp
  00001	8b ec		 mov	 ebp, esp

; 31   : 	virtual ~CElement()	{}

  00003	56		 push	 esi
  00004	8b f1		 mov	 esi, ecx
  00006	8d 8e 84 00 00
	00		 lea	 ecx, DWORD PTR [esi+132]
  0000c	ff 15 00 00 00
	00		 call	 DWORD PTR __imp_??1?$CStringT@DV?$StrTraitMFC_DLL@DV?$ChTraitsCRT@D@ATL@@@@@ATL@@QAE@XZ
  00012	8d 4e 64	 lea	 ecx, DWORD PTR [esi+100]
  00015	ff 15 00 00 00
	00		 call	 DWORD PTR __imp_??1?$CStringT@DV?$StrTraitMFC_DLL@DV?$ChTraitsCRT@D@ATL@@@@@ATL@@QAE@XZ
  0001b	8d 4e 40	 lea	 ecx, DWORD PTR [esi+64]
  0001e	c7 06 00 00 00
	00		 mov	 DWORD PTR [esi], OFFSET ??_7CElement@@6B@
  00024	ff 15 00 00 00
	00		 call	 DWORD PTR __imp_??1?$CStringT@DV?$StrTraitMFC_DLL@DV?$ChTraitsCRT@D@ATL@@@@@ATL@@QAE@XZ
  0002a	8d 4e 3c	 lea	 ecx, DWORD PTR [esi+60]
  0002d	ff 15 00 00 00
	00		 call	 DWORD PTR __imp_??1?$CStringT@DV?$StrTraitMFC_DLL@DV?$ChTraitsCRT@D@ATL@@@@@ATL@@QAE@XZ
  00033	8d 4e 38	 lea	 ecx, DWORD PTR [esi+56]
  00036	ff 15 00 00 00
	00		 call	 DWORD PTR __imp_??1?$CStringT@DV?$StrTraitMFC_DLL@DV?$ChTraitsCRT@D@ATL@@@@@ATL@@QAE@XZ
  0003c	f6 45 08 01	 test	 BYTE PTR ___flags$[ebp], 1
  00040	74 0e		 je	 SHORT $LN25@scalar
  00042	68 b0 00 00 00	 push	 176			; 000000b0H
  00047	56		 push	 esi
  00048	e8 00 00 00 00	 call	 ??3@YAXPAXI@Z		; operator delete
  0004d	83 c4 08	 add	 esp, 8
$LN25@scalar:
  00050	8b c6		 mov	 eax, esi
  00052	5e		 pop	 esi
  00053	5d		 pop	 ebp
  00054	c2 04 00	 ret	 4
??_GCSpeedLine@@UAEPAXI@Z ENDP				; CSpeedLine::`scalar deleting destructor'
_TEXT	ENDS
; Function compile flags: /Ogtp
; File D:\git\src\IBK\IBK_DRFN\ProjSrc\SrcChartEx\ChartAddIn\ChartAnalysisToolAddIn\AnalysisTool\Line.cpp
; File C:\Program Files (x86)\Microsoft Visual Studio\2019\Community\VC\Tools\MSVC\14.29.30133\atlmfc\include\atltypes.h
; File D:\git\src\IBK\IBK_DRFN\ProjSrc\SrcChartEx\ChartAddIn\ChartAnalysisToolAddIn\AnalysisTool\Line.cpp
; File C:\Program Files (x86)\Microsoft Visual Studio\2019\Community\VC\Tools\MSVC\14.29.30133\atlmfc\include\atltypes.h
; File D:\git\src\IBK\IBK_DRFN\ProjSrc\SrcChartEx\ChartAddIn\ChartAnalysisToolAddIn\AnalysisTool\Line.cpp
; File C:\Program Files (x86)\Microsoft Visual Studio\2019\Community\VC\Tools\MSVC\14.29.30133\atlmfc\include\atltypes.h
; File D:\git\src\IBK\IBK_DRFN\ProjSrc\SrcChartEx\ChartAddIn\ChartAnalysisToolAddIn\AnalysisTool\Line.cpp
; File C:\Program Files (x86)\Microsoft Visual Studio\2019\Community\VC\Tools\MSVC\14.29.30133\atlmfc\include\atltypes.h
; File D:\git\src\IBK\IBK_DRFN\ProjSrc\SrcChartEx\ChartAddIn\ChartAnalysisToolAddIn\AnalysisTool\Line.cpp
; File C:\Program Files (x86)\Microsoft Visual Studio\2019\Community\VC\Tools\MSVC\14.29.30133\atlmfc\include\atltypes.h
; File D:\git\src\IBK\IBK_DRFN\ProjSrc\SrcChartEx\ChartAddIn\ChartAnalysisToolAddIn\AnalysisTool\Line.cpp
; File C:\Program Files (x86)\Microsoft Visual Studio\2019\Community\VC\Tools\MSVC\14.29.30133\atlmfc\include\atltypes.h
; File D:\git\src\IBK\IBK_DRFN\ProjSrc\SrcChartEx\ChartAddIn\ChartAnalysisToolAddIn\AnalysisTool\Line.cpp
; File C:\Program Files (x86)\Microsoft Visual Studio\2019\Community\VC\Tools\MSVC\14.29.30133\atlmfc\include\atltypes.h
; File D:\git\src\IBK\IBK_DRFN\ProjSrc\SrcChartEx\ChartAddIn\ChartAnalysisToolAddIn\AnalysisTool\Line.cpp
; File C:\Program Files (x86)\Microsoft Visual Studio\2019\Community\VC\Tools\MSVC\14.29.30133\atlmfc\include\atltypes.h
; File D:\git\src\IBK\IBK_DRFN\ProjSrc\SrcChartEx\ChartAddIn\ChartAnalysisToolAddIn\AnalysisTool\Line.cpp
; File C:\Program Files (x86)\Microsoft Visual Studio\2019\Community\VC\Tools\MSVC\14.29.30133\atlmfc\include\atltypes.h
; File D:\git\src\IBK\IBK_DRFN\ProjSrc\SrcChartEx\ChartAddIn\ChartAnalysisToolAddIn\AnalysisTool\Line.cpp
;	COMDAT ?GetModifyType@CSpeedLine@@MBE?AW4ModifyType@CToolEnumData@@ABVCRect@@ABVCPoint@@11@Z
_TEXT	SEGMENT
$T1 = -100						; size = 8
$T2 = -92						; size = 8
$T3 = -84						; size = 8
$T4 = -76						; size = 8
_rightPt$ = -68						; size = 8
_leftPt$ = -60						; size = 8
_drawingStartPt$GSCopy$1$ = -52				; size = 4
_region$GSCopy$1$ = -48					; size = 4
_lineEndPt$5 = -44					; size = 8
_drawingEndPt$GSCopy$1$ = -40				; size = 4
_rctExtLineRect$6 = -36					; size = 16
_rcGraphArea$ = -20					; size = 16
__$ArrayPad$ = -4					; size = 4
_region$ = 8						; size = 4
_drawingStartPt$ = 12					; size = 4
_drawingEndPt$ = 16					; size = 4
_point$ = 20						; size = 4
?GetModifyType@CSpeedLine@@MBE?AW4ModifyType@CToolEnumData@@ABVCRect@@ABVCPoint@@11@Z PROC ; CSpeedLine::GetModifyType, COMDAT
; _this$ = ecx

; 581  : {

  00000	55		 push	 ebp
  00001	8b ec		 mov	 ebp, esp
  00003	83 ec 64	 sub	 esp, 100		; 00000064H
  00006	a1 00 00 00 00	 mov	 eax, DWORD PTR ___security_cookie
  0000b	33 c5		 xor	 eax, ebp
  0000d	89 45 fc	 mov	 DWORD PTR __$ArrayPad$[ebp], eax
  00010	8b 45 08	 mov	 eax, DWORD PTR _region$[ebp]
  00013	53		 push	 ebx
  00014	8b 5d 14	 mov	 ebx, DWORD PTR _point$[ebp]
  00017	56		 push	 esi
  00018	8b 75 0c	 mov	 esi, DWORD PTR _drawingStartPt$[ebp]
  0001b	57		 push	 edi

; 582  : 	// element 
; 583  : 	CToolEnumData::ModifyType modifyType = CTwoPointElement::GetModifyType_SidePoints(drawingStartPt, drawingEndPt, point);

  0001c	53		 push	 ebx
  0001d	89 45 d0	 mov	 DWORD PTR _region$GSCopy$1$[ebp], eax
  00020	8b f9		 mov	 edi, ecx
  00022	8b 45 10	 mov	 eax, DWORD PTR _drawingEndPt$[ebp]
  00025	50		 push	 eax
  00026	56		 push	 esi
  00027	89 75 cc	 mov	 DWORD PTR _drawingStartPt$GSCopy$1$[ebp], esi
  0002a	89 45 d8	 mov	 DWORD PTR _drawingEndPt$GSCopy$1$[ebp], eax
  0002d	e8 00 00 00 00	 call	 ?GetModifyType_SidePoints@CTwoPointElement@@IBE?AW4ModifyType@CToolEnumData@@ABVCPoint@@00@Z ; CTwoPointElement::GetModifyType_SidePoints

; 584  : 	if(modifyType != CToolEnumData::MODIFY_NONE)

  00032	85 c0		 test	 eax, eax
  00034	0f 85 74 01 00
	00		 jne	 $LN1@GetModifyT

; 585  : 		return modifyType;
; 586  : 
; 587  : 	CToolEnumData::ModifyType frameRectModifyType = GetModifyType_Rect( drawingStartPt, drawingEndPt, point);

  0003a	53		 push	 ebx
  0003b	ff 75 d8	 push	 DWORD PTR _drawingEndPt$GSCopy$1$[ebp]
  0003e	8b cf		 mov	 ecx, edi
  00040	56		 push	 esi
  00041	e8 00 00 00 00	 call	 ?GetModifyType_Rect@CTwoPointElement@@IBE?AW4ModifyType@CToolEnumData@@ABVCPoint@@00@Z ; CTwoPointElement::GetModifyType_Rect

; 588  : 	if( frameRectModifyType != CToolEnumData::MODIFY_NONE) 

  00046	85 c0		 test	 eax, eax
  00048	0f 85 60 01 00
	00		 jne	 $LN1@GetModifyT

; 592  : 	m_speedLineDrawer.GetPoints(drawingStartPt, drawingEndPt, leftPt, rightPt);

  0004e	8d 4d bc	 lea	 ecx, DWORD PTR _rightPt$[ebp]
; File C:\Program Files (x86)\Microsoft Visual Studio\2019\Community\VC\Tools\MSVC\14.29.30133\atlmfc\include\atltypes.h

; 400  : 	x = 0;

  00051	89 45 c4	 mov	 DWORD PTR _leftPt$[ebp], eax
; File D:\git\src\IBK\IBK_DRFN\ProjSrc\SrcChartEx\ChartAddIn\ChartAnalysisToolAddIn\AnalysisTool\Line.cpp

; 592  : 	m_speedLineDrawer.GetPoints(drawingStartPt, drawingEndPt, leftPt, rightPt);

  00054	51		 push	 ecx
  00055	8d 4d c4	 lea	 ecx, DWORD PTR _leftPt$[ebp]
; File C:\Program Files (x86)\Microsoft Visual Studio\2019\Community\VC\Tools\MSVC\14.29.30133\atlmfc\include\atltypes.h

; 401  : 	y = 0;

  00058	89 45 c8	 mov	 DWORD PTR _leftPt$[ebp+4], eax
; File D:\git\src\IBK\IBK_DRFN\ProjSrc\SrcChartEx\ChartAddIn\ChartAnalysisToolAddIn\AnalysisTool\Line.cpp

; 592  : 	m_speedLineDrawer.GetPoints(drawingStartPt, drawingEndPt, leftPt, rightPt);

  0005b	51		 push	 ecx
  0005c	ff 75 d8	 push	 DWORD PTR _drawingEndPt$GSCopy$1$[ebp]
  0005f	8d 8f 90 00 00
	00		 lea	 ecx, DWORD PTR [edi+144]
; File C:\Program Files (x86)\Microsoft Visual Studio\2019\Community\VC\Tools\MSVC\14.29.30133\atlmfc\include\atltypes.h

; 400  : 	x = 0;

  00065	89 45 bc	 mov	 DWORD PTR _rightPt$[ebp], eax
; File D:\git\src\IBK\IBK_DRFN\ProjSrc\SrcChartEx\ChartAddIn\ChartAnalysisToolAddIn\AnalysisTool\Line.cpp

; 592  : 	m_speedLineDrawer.GetPoints(drawingStartPt, drawingEndPt, leftPt, rightPt);

  00068	56		 push	 esi
; File C:\Program Files (x86)\Microsoft Visual Studio\2019\Community\VC\Tools\MSVC\14.29.30133\atlmfc\include\atltypes.h

; 401  : 	y = 0;

  00069	89 45 c0	 mov	 DWORD PTR _rightPt$[ebp+4], eax
; File D:\git\src\IBK\IBK_DRFN\ProjSrc\SrcChartEx\ChartAddIn\ChartAnalysisToolAddIn\AnalysisTool\Line.cpp

; 592  : 	m_speedLineDrawer.GetPoints(drawingStartPt, drawingEndPt, leftPt, rightPt);

  0006c	e8 00 00 00 00	 call	 ?GetPoints@CSpeedLineDrawer@@QBEXABVCPoint@@0AAV2@1@Z ; CSpeedLineDrawer::GetPoints

; 593  : 	
; 594  : 	int nModifyType = CToolEnumData::MODIFY_NONE;
; 595  : 	CRect rcGraphArea(region);

  00071	8b 45 d0	 mov	 eax, DWORD PTR _region$GSCopy$1$[ebp]

; 596  : 	rcGraphArea.left = min(drawingStartPt.x,drawingEndPt.x);
; 597  : 	for(int nIndex = 0; nIndex < m_speedLineDrawer.GetCount(); nIndex++)

  00074	8d 8f 90 00 00
	00		 lea	 ecx, DWORD PTR [edi+144]
  0007a	0f 10 00	 movups	 xmm0, XMMWORD PTR [eax]
  0007d	8b 45 d8	 mov	 eax, DWORD PTR _drawingEndPt$GSCopy$1$[ebp]
  00080	0f 11 45 ec	 movups	 XMMWORD PTR _rcGraphArea$[ebp], xmm0
  00084	8b 00		 mov	 eax, DWORD PTR [eax]
  00086	39 06		 cmp	 DWORD PTR [esi], eax
  00088	0f 4c 06	 cmovl	 eax, DWORD PTR [esi]
  0008b	33 f6		 xor	 esi, esi
  0008d	89 45 ec	 mov	 DWORD PTR _rcGraphArea$[ebp], eax
  00090	e8 00 00 00 00	 call	 ?GetCount@CSpeedLineDrawer@@QBEHXZ ; CSpeedLineDrawer::GetCount
  00095	85 c0		 test	 eax, eax
  00097	0f 8e 0f 01 00
	00		 jle	 $LN43@GetModifyT
  0009d	0f 1f 00	 npad	 3
$LL4@GetModifyT:

; 600  : 		if(!m_speedLineDrawer.GetLineEndPoint(region, leftPt, rightPt, nIndex, lineEndPt))

  000a0	8d 45 d4	 lea	 eax, DWORD PTR _lineEndPt$5[ebp]
; File C:\Program Files (x86)\Microsoft Visual Studio\2019\Community\VC\Tools\MSVC\14.29.30133\atlmfc\include\atltypes.h

; 400  : 	x = 0;

  000a3	c7 45 d4 00 00
	00 00		 mov	 DWORD PTR _lineEndPt$5[ebp], 0
; File D:\git\src\IBK\IBK_DRFN\ProjSrc\SrcChartEx\ChartAddIn\ChartAnalysisToolAddIn\AnalysisTool\Line.cpp

; 600  : 		if(!m_speedLineDrawer.GetLineEndPoint(region, leftPt, rightPt, nIndex, lineEndPt))

  000aa	50		 push	 eax
  000ab	56		 push	 esi
  000ac	8d 45 bc	 lea	 eax, DWORD PTR _rightPt$[ebp]
; File C:\Program Files (x86)\Microsoft Visual Studio\2019\Community\VC\Tools\MSVC\14.29.30133\atlmfc\include\atltypes.h

; 401  : 	y = 0;

  000af	c7 45 d8 00 00
	00 00		 mov	 DWORD PTR _lineEndPt$5[ebp+4], 0
; File D:\git\src\IBK\IBK_DRFN\ProjSrc\SrcChartEx\ChartAddIn\ChartAnalysisToolAddIn\AnalysisTool\Line.cpp

; 600  : 		if(!m_speedLineDrawer.GetLineEndPoint(region, leftPt, rightPt, nIndex, lineEndPt))

  000b6	50		 push	 eax
  000b7	8d 45 c4	 lea	 eax, DWORD PTR _leftPt$[ebp]
  000ba	50		 push	 eax
  000bb	ff 75 d0	 push	 DWORD PTR _region$GSCopy$1$[ebp]
  000be	8d 8f 90 00 00
	00		 lea	 ecx, DWORD PTR [edi+144]
  000c4	e8 00 00 00 00	 call	 ?GetLineEndPoint@CSpeedLineDrawer@@QBE_NABVCRect@@ABVCPoint@@1HAAV3@@Z ; CSpeedLineDrawer::GetLineEndPoint
  000c9	84 c0		 test	 al, al
  000cb	0f 84 c7 00 00
	00		 je	 $LN2@GetModifyT

; 601  : 			continue;
; 602  : 
; 603  : 		if(nIndex > 0 && nIndex < 3)

  000d1	85 f6		 test	 esi, esi
  000d3	7e 5f		 jle	 SHORT $LN41@GetModifyT
  000d5	8b cf		 mov	 ecx, edi
  000d7	53		 push	 ebx
  000d8	83 fe 03	 cmp	 esi, 3
  000db	7d 35		 jge	 SHORT $LN42@GetModifyT
; File C:\Program Files (x86)\Microsoft Visual Studio\2019\Community\VC\Tools\MSVC\14.29.30133\atlmfc\include\atltypes.h

; 408  : 	x = initX;

  000dd	8b 45 c4	 mov	 eax, DWORD PTR _leftPt$[ebp]
  000e0	89 45 b4	 mov	 DWORD PTR $T4[ebp], eax

; 409  : 	y = initY;

  000e3	8b 45 d8	 mov	 eax, DWORD PTR _lineEndPt$5[ebp+4]
  000e6	89 45 b8	 mov	 DWORD PTR $T4[ebp+4], eax
; File D:\git\src\IBK\IBK_DRFN\ProjSrc\SrcChartEx\ChartAddIn\ChartAnalysisToolAddIn\AnalysisTool\Line.cpp

; 605  : 			if(CElement::PointInElementSelectableRegion(CPoint(leftPt.x,lineEndPt.y), lineEndPt, point))

  000e9	8d 45 d4	 lea	 eax, DWORD PTR _lineEndPt$5[ebp]
  000ec	50		 push	 eax
  000ed	8d 45 b4	 lea	 eax, DWORD PTR $T4[ebp]
  000f0	50		 push	 eax
  000f1	e8 00 00 00 00	 call	 ?PointInElementSelectableRegion@CElement@@IBE_NABVCPoint@@00@Z ; CElement::PointInElementSelectableRegion
  000f6	84 c0		 test	 al, al
  000f8	74 3a		 je	 SHORT $LN41@GetModifyT
$LN36@GetModifyT:
  000fa	5f		 pop	 edi

; 632  : }

  000fb	5e		 pop	 esi
  000fc	b8 01 00 00 00	 mov	 eax, 1
  00101	5b		 pop	 ebx
  00102	8b 4d fc	 mov	 ecx, DWORD PTR __$ArrayPad$[ebp]
  00105	33 cd		 xor	 ecx, ebp
  00107	e8 00 00 00 00	 call	 @__security_check_cookie@4
  0010c	8b e5		 mov	 esp, ebp
  0010e	5d		 pop	 ebp
  0010f	c2 10 00	 ret	 16			; 00000010H
$LN42@GetModifyT:
; File C:\Program Files (x86)\Microsoft Visual Studio\2019\Community\VC\Tools\MSVC\14.29.30133\atlmfc\include\atltypes.h

; 408  : 	x = initX;

  00112	8b 45 d4	 mov	 eax, DWORD PTR _lineEndPt$5[ebp]
  00115	89 45 ac	 mov	 DWORD PTR $T3[ebp], eax

; 409  : 	y = initY;

  00118	8b 45 c8	 mov	 eax, DWORD PTR _leftPt$[ebp+4]
  0011b	89 45 b0	 mov	 DWORD PTR $T3[ebp+4], eax
; File D:\git\src\IBK\IBK_DRFN\ProjSrc\SrcChartEx\ChartAddIn\ChartAnalysisToolAddIn\AnalysisTool\Line.cpp

; 610  : 			if(CElement::PointInElementSelectableRegion(CPoint(lineEndPt.x,leftPt.y), lineEndPt, point))

  0011e	8d 45 d4	 lea	 eax, DWORD PTR _lineEndPt$5[ebp]
  00121	50		 push	 eax
  00122	8d 45 ac	 lea	 eax, DWORD PTR $T3[ebp]
  00125	50		 push	 eax
  00126	e8 00 00 00 00	 call	 ?PointInElementSelectableRegion@CElement@@IBE_NABVCPoint@@00@Z ; CElement::PointInElementSelectableRegion
  0012b	84 c0		 test	 al, al
  0012d	75 cb		 jne	 SHORT $LN36@GetModifyT

; 611  : 				return CToolEnumData::MODIFY_CENTER;
; 612  : 		} 
; 613  : 
; 614  : 		if(nIndex < 3)

  0012f	83 fe 03	 cmp	 esi, 3
  00132	7d 64		 jge	 SHORT $LN2@GetModifyT
$LN41@GetModifyT:

; 615  : 		{			
; 616  : 			// 2. Line   Cursor Line()  .
; 617  : 			CRect rctExtLineRect = CElement::GetLineRect( rcGraphArea, drawingStartPt, lineEndPt,FALSE,TRUE);

  00134	6a 01		 push	 1
  00136	6a 00		 push	 0
  00138	8d 45 d4	 lea	 eax, DWORD PTR _lineEndPt$5[ebp]
  0013b	8b cf		 mov	 ecx, edi
  0013d	50		 push	 eax
  0013e	ff 75 cc	 push	 DWORD PTR _drawingStartPt$GSCopy$1$[ebp]
  00141	8d 45 ec	 lea	 eax, DWORD PTR _rcGraphArea$[ebp]
  00144	50		 push	 eax
  00145	8d 45 dc	 lea	 eax, DWORD PTR _rctExtLineRect$6[ebp]
  00148	50		 push	 eax
  00149	e8 00 00 00 00	 call	 ?GetLineRect@CElement@@IBE?AVCRect@@ABV2@ABVCPoint@@1HH@Z ; CElement::GetLineRect

; 618  : 			if( 0 < ( lineEndPt.x - drawingStartPt.x) * ( lineEndPt.y - drawingStartPt.y))

  0014e	8b 55 cc	 mov	 edx, DWORD PTR _drawingStartPt$GSCopy$1$[ebp]
  00151	8b 4d d8	 mov	 ecx, DWORD PTR _lineEndPt$5[ebp+4]
  00154	8b 45 d4	 mov	 eax, DWORD PTR _lineEndPt$5[ebp]
  00157	53		 push	 ebx
  00158	2b 4a 04	 sub	 ecx, DWORD PTR [edx+4]
  0015b	2b 02		 sub	 eax, DWORD PTR [edx]
  0015d	0f af c8	 imul	 ecx, eax
  00160	85 c9		 test	 ecx, ecx
  00162	8b cf		 mov	 ecx, edi
  00164	7e 09		 jle	 SHORT $LN14@GetModifyT

; 619  : 				nModifyType = GetModifyType_Line( rctExtLineRect.TopLeft(), rctExtLineRect.BottomRight(), point);

  00166	8d 45 e4	 lea	 eax, DWORD PTR _rctExtLineRect$6[ebp+8]
  00169	50		 push	 eax
  0016a	8d 45 dc	 lea	 eax, DWORD PTR _rctExtLineRect$6[ebp]
  0016d	eb 1f		 jmp	 SHORT $LN44@GetModifyT
$LN14@GetModifyT:
; File C:\Program Files (x86)\Microsoft Visual Studio\2019\Community\VC\Tools\MSVC\14.29.30133\atlmfc\include\atltypes.h

; 408  : 	x = initX;

  0016f	8b 45 e4	 mov	 eax, DWORD PTR _rctExtLineRect$6[ebp+8]
  00172	89 45 a4	 mov	 DWORD PTR $T2[ebp], eax

; 409  : 	y = initY;

  00175	8b 45 e0	 mov	 eax, DWORD PTR _rctExtLineRect$6[ebp+4]
  00178	89 45 a8	 mov	 DWORD PTR $T2[ebp+4], eax

; 408  : 	x = initX;

  0017b	8b 45 dc	 mov	 eax, DWORD PTR _rctExtLineRect$6[ebp]
  0017e	89 45 9c	 mov	 DWORD PTR $T1[ebp], eax

; 409  : 	y = initY;

  00181	8b 45 e8	 mov	 eax, DWORD PTR _rctExtLineRect$6[ebp+12]
  00184	89 45 a0	 mov	 DWORD PTR $T1[ebp+4], eax
; File D:\git\src\IBK\IBK_DRFN\ProjSrc\SrcChartEx\ChartAddIn\ChartAnalysisToolAddIn\AnalysisTool\Line.cpp

; 621  : 				nModifyType = GetModifyType_Line(	CPoint( rctExtLineRect.left, rctExtLineRect.bottom),

  00187	8d 45 a4	 lea	 eax, DWORD PTR $T2[ebp]
  0018a	50		 push	 eax
  0018b	8d 45 9c	 lea	 eax, DWORD PTR $T1[ebp]
$LN44@GetModifyT:

; 622  : 													CPoint( rctExtLineRect.right, rctExtLineRect.top), point);
; 623  : 
; 624  : 			if(nModifyType != CToolEnumData::MODIFY_NONE)

  0018e	50		 push	 eax
  0018f	e8 00 00 00 00	 call	 ?GetModifyType_Line@CTwoPointElement@@IBE?AW4ModifyType@CToolEnumData@@ABVCPoint@@00@Z ; CTwoPointElement::GetModifyType_Line
  00194	85 c0		 test	 eax, eax
  00196	75 16		 jne	 SHORT $LN1@GetModifyT
$LN2@GetModifyT:

; 596  : 	rcGraphArea.left = min(drawingStartPt.x,drawingEndPt.x);
; 597  : 	for(int nIndex = 0; nIndex < m_speedLineDrawer.GetCount(); nIndex++)

  00198	8d 8f 90 00 00
	00		 lea	 ecx, DWORD PTR [edi+144]
  0019e	46		 inc	 esi
  0019f	e8 00 00 00 00	 call	 ?GetCount@CSpeedLineDrawer@@QBEHXZ ; CSpeedLineDrawer::GetCount
  001a4	3b f0		 cmp	 esi, eax
  001a6	0f 8c f4 fe ff
	ff		 jl	 $LL4@GetModifyT
$LN43@GetModifyT:

; 625  : 			{
; 626  : 				return (CToolEnumData::ModifyType)nModifyType;
; 627  : 			}
; 628  : 		}
; 629  : 	}
; 630  : 	
; 631  : 	return CToolEnumData::MODIFY_NONE;

  001ac	33 c0		 xor	 eax, eax
$LN1@GetModifyT:

; 632  : }

  001ae	8b 4d fc	 mov	 ecx, DWORD PTR __$ArrayPad$[ebp]
  001b1	5f		 pop	 edi
  001b2	5e		 pop	 esi
  001b3	33 cd		 xor	 ecx, ebp
  001b5	5b		 pop	 ebx
  001b6	e8 00 00 00 00	 call	 @__security_check_cookie@4
  001bb	8b e5		 mov	 esp, ebp
  001bd	5d		 pop	 ebp
  001be	c2 10 00	 ret	 16			; 00000010H
?GetModifyType@CSpeedLine@@MBE?AW4ModifyType@CToolEnumData@@ABVCRect@@ABVCPoint@@11@Z ENDP ; CSpeedLine::GetModifyType
_TEXT	ENDS
; Function compile flags: /Ogtp
; File D:\git\src\IBK\IBK_DRFN\ProjSrc\SrcChartEx\ChartAddIn\ChartAnalysisToolAddIn\AnalysisTool\Line.cpp
;	COMDAT ?ElementInRegion@CSpeedLine@@MBE_NABVCRect@@ABVCPoint@@11@Z
_TEXT	SEGMENT
_region$ = 8						; size = 4
_startPoint$ = 12					; size = 4
_endPoint$ = 16						; size = 4
_point$ = 20						; size = 4
?ElementInRegion@CSpeedLine@@MBE_NABVCRect@@ABVCPoint@@11@Z PROC ; CSpeedLine::ElementInRegion, COMDAT
; _this$ = ecx

; 572  : {

  00000	55		 push	 ebp
  00001	8b ec		 mov	 ebp, esp

; 573  : 	CPoint leftPt = startPoint;

  00003	8b 45 0c	 mov	 eax, DWORD PTR _startPoint$[ebp]
  00006	8b 08		 mov	 ecx, DWORD PTR [eax]

; 574  : 	if(startPoint.x > endPoint.x)

  00008	8b 45 10	 mov	 eax, DWORD PTR _endPoint$[ebp]
  0000b	3b 08		 cmp	 ecx, DWORD PTR [eax]
  0000d	7e 02		 jle	 SHORT $LN2@ElementInR

; 575  : 		leftPt = endPoint;

  0000f	8b 08		 mov	 ecx, DWORD PTR [eax]
$LN2@ElementInR:

; 576  : 
; 577  : 	return (leftPt.x < region.right && point.x >= (leftPt.x - 10));

  00011	8b 45 08	 mov	 eax, DWORD PTR _region$[ebp]
  00014	3b 48 08	 cmp	 ecx, DWORD PTR [eax+8]
  00017	7d 10		 jge	 SHORT $LN4@ElementInR
  00019	8b 45 14	 mov	 eax, DWORD PTR _point$[ebp]
  0001c	83 c1 f6	 add	 ecx, -10		; fffffff6H
  0001f	39 08		 cmp	 DWORD PTR [eax], ecx
  00021	7c 06		 jl	 SHORT $LN4@ElementInR
  00023	b0 01		 mov	 al, 1

; 578  : }

  00025	5d		 pop	 ebp
  00026	c2 10 00	 ret	 16			; 00000010H
$LN4@ElementInR:

; 576  : 
; 577  : 	return (leftPt.x < region.right && point.x >= (leftPt.x - 10));

  00029	32 c0		 xor	 al, al

; 578  : }

  0002b	5d		 pop	 ebp
  0002c	c2 10 00	 ret	 16			; 00000010H
?ElementInRegion@CSpeedLine@@MBE_NABVCRect@@ABVCPoint@@11@Z ENDP ; CSpeedLine::ElementInRegion
_TEXT	ENDS
; Function compile flags: /Ogtp
; File D:\git\src\IBK\IBK_DRFN\ProjSrc\SrcChartEx\ChartAddIn\ChartAnalysisToolAddIn\AnalysisTool\Line.cpp
;	COMDAT ?GetTwoPointDrawer@CSpeedLine@@MAEAAVCTwoPointDrawer@@XZ
_TEXT	SEGMENT
?GetTwoPointDrawer@CSpeedLine@@MAEAAVCTwoPointDrawer@@XZ PROC ; CSpeedLine::GetTwoPointDrawer, COMDAT
; _this$ = ecx

; 568  : 	return m_speedLineDrawer;

  00000	8d 81 90 00 00
	00		 lea	 eax, DWORD PTR [ecx+144]

; 569  : }

  00006	c3		 ret	 0
?GetTwoPointDrawer@CSpeedLine@@MAEAAVCTwoPointDrawer@@XZ ENDP ; CSpeedLine::GetTwoPointDrawer
_TEXT	ENDS
; Function compile flags: /Ogtp
; File D:\git\src\IBK\IBK_DRFN\ProjSrc\SrcChartEx\ChartAddIn\ChartAnalysisToolAddIn\AnalysisTool\Line.cpp
;	COMDAT ?GetElementType@CSpeedLine@@UBE?AW4ElementType@CToolEnumData@@XZ
_TEXT	SEGMENT
?GetElementType@CSpeedLine@@UBE?AW4ElementType@CToolEnumData@@XZ PROC ; CSpeedLine::GetElementType, COMDAT
; _this$ = ecx

; 562  : 	return CToolEnumData::Speed_Line;

  00000	b8 18 00 00 00	 mov	 eax, 24			; 00000018H

; 563  : }

  00005	c3		 ret	 0
?GetElementType@CSpeedLine@@UBE?AW4ElementType@CToolEnumData@@XZ ENDP ; CSpeedLine::GetElementType
_TEXT	ENDS
; Function compile flags: /Ogtp
; File D:\git\src\IBK\IBK_DRFN\ProjSrc\SrcChartEx\ChartAddIn\ChartAnalysisToolAddIn\AnalysisTool\Line.cpp
;	COMDAT ??0CSpeedLine@@QAE@ABVCCoordinate@@0ABVCElementCommonEnvironment@@@Z
_TEXT	SEGMENT
_this$ = -16						; size = 4
__$EHRec$ = -12						; size = 12
_point1$ = 8						; size = 4
_point2$ = 12						; size = 4
_environment$ = 16					; size = 4
??0CSpeedLine@@QAE@ABVCCoordinate@@0ABVCElementCommonEnvironment@@@Z PROC ; CSpeedLine::CSpeedLine, COMDAT
; _this$ = ecx

; 557  : {

  00000	55		 push	 ebp
  00001	8b ec		 mov	 ebp, esp
  00003	6a ff		 push	 -1
  00005	68 00 00 00 00	 push	 __ehhandler$??0CSpeedLine@@QAE@ABVCCoordinate@@0ABVCElementCommonEnvironment@@@Z
  0000a	64 a1 00 00 00
	00		 mov	 eax, DWORD PTR fs:0
  00010	50		 push	 eax
  00011	51		 push	 ecx
  00012	56		 push	 esi
  00013	a1 00 00 00 00	 mov	 eax, DWORD PTR ___security_cookie
  00018	33 c5		 xor	 eax, ebp
  0001a	50		 push	 eax
  0001b	8d 45 f4	 lea	 eax, DWORD PTR __$EHRec$[ebp]
  0001e	64 a3 00 00 00
	00		 mov	 DWORD PTR fs:0, eax
  00024	8b f1		 mov	 esi, ecx
  00026	89 75 f0	 mov	 DWORD PTR _this$[ebp], esi

; 556  : 	CTwoPointElement(point1, point2, environment)

  00029	ff 75 10	 push	 DWORD PTR _environment$[ebp]
  0002c	ff 75 0c	 push	 DWORD PTR _point2$[ebp]
  0002f	ff 75 08	 push	 DWORD PTR _point1$[ebp]
  00032	e8 00 00 00 00	 call	 ??0CTwoPointElement@@QAE@ABVCCoordinate@@0ABVCElementCommonEnvironment@@@Z ; CTwoPointElement::CTwoPointElement

; 557  : {

  00037	c7 06 00 00 00
	00		 mov	 DWORD PTR [esi], OFFSET ??_7CSpeedLine@@6B@
  0003d	8d 8e 98 00 00
	00		 lea	 ecx, DWORD PTR [esi+152]
  00043	c7 45 fc 00 00
	00 00		 mov	 DWORD PTR __$EHRec$[ebp+8], 0
  0004a	c7 86 94 00 00
	00 00 00 00 00	 mov	 DWORD PTR [esi+148], OFFSET ??_8CSpeedLineDrawer@@7B@
  00054	e8 00 00 00 00	 call	 ??0CDrawer@@QAE@XZ	; CDrawer::CDrawer
  00059	c7 86 90 00 00
	00 00 00 00 00	 mov	 DWORD PTR [esi+144], OFFSET ??_7CSpeedLineDrawer@@6B@

; 558  : }

  00063	8b c6		 mov	 eax, esi
  00065	8b 4d f4	 mov	 ecx, DWORD PTR __$EHRec$[ebp]
  00068	64 89 0d 00 00
	00 00		 mov	 DWORD PTR fs:0, ecx
  0006f	59		 pop	 ecx
  00070	5e		 pop	 esi
  00071	8b e5		 mov	 esp, ebp
  00073	5d		 pop	 ebp
  00074	c2 0c 00	 ret	 12			; 0000000cH
  00077	cc		 int	 3
  00078	cc		 int	 3
  00079	cc		 int	 3
  0007a	cc		 int	 3
  0007b	cc		 int	 3
_TEXT	ENDS
;	COMDAT text$x
text$x	SEGMENT
__ehhandler$??0CSpeedLine@@QAE@ABVCCoordinate@@0ABVCElementCommonEnvironment@@@Z:
  00000	90		 npad	 1
  00001	90		 npad	 1
  00002	8b 54 24 08	 mov	 edx, DWORD PTR [esp+8]
  00006	8d 42 0c	 lea	 eax, DWORD PTR [edx+12]
  00009	8b 4a f4	 mov	 ecx, DWORD PTR [edx-12]
  0000c	33 c8		 xor	 ecx, eax
  0000e	e8 00 00 00 00	 call	 @__security_check_cookie@4
  00013	b8 00 00 00 00	 mov	 eax, OFFSET __ehfuncinfo$??0CSpeedLine@@QAE@ABVCCoordinate@@0ABVCElementCommonEnvironment@@@Z
  00018	e9 00 00 00 00	 jmp	 ___CxxFrameHandler3
text$x	ENDS
??0CSpeedLine@@QAE@ABVCCoordinate@@0ABVCElementCommonEnvironment@@@Z ENDP ; CSpeedLine::CSpeedLine
; Function compile flags: /Ogtp
; File D:\git\src\IBK\IBK_DRFN\ProjSrc\SrcChartEx\ChartAddIn\ChartAnalysisToolAddIn\AnalysisTool\Element.h
;	COMDAT ??_GCCycleLines@@UAEPAXI@Z
_TEXT	SEGMENT
___flags$ = 8						; size = 4
??_GCCycleLines@@UAEPAXI@Z PROC				; CCycleLines::`scalar deleting destructor', COMDAT
; _this$ = ecx
  00000	55		 push	 ebp
  00001	8b ec		 mov	 ebp, esp

; 31   : 	virtual ~CElement()	{}

  00003	56		 push	 esi
  00004	8b f1		 mov	 esi, ecx
  00006	8d 8e 84 00 00
	00		 lea	 ecx, DWORD PTR [esi+132]
  0000c	ff 15 00 00 00
	00		 call	 DWORD PTR __imp_??1?$CStringT@DV?$StrTraitMFC_DLL@DV?$ChTraitsCRT@D@ATL@@@@@ATL@@QAE@XZ
  00012	8d 4e 64	 lea	 ecx, DWORD PTR [esi+100]
  00015	ff 15 00 00 00
	00		 call	 DWORD PTR __imp_??1?$CStringT@DV?$StrTraitMFC_DLL@DV?$ChTraitsCRT@D@ATL@@@@@ATL@@QAE@XZ
  0001b	8d 4e 40	 lea	 ecx, DWORD PTR [esi+64]
  0001e	c7 06 00 00 00
	00		 mov	 DWORD PTR [esi], OFFSET ??_7CElement@@6B@
  00024	ff 15 00 00 00
	00		 call	 DWORD PTR __imp_??1?$CStringT@DV?$StrTraitMFC_DLL@DV?$ChTraitsCRT@D@ATL@@@@@ATL@@QAE@XZ
  0002a	8d 4e 3c	 lea	 ecx, DWORD PTR [esi+60]
  0002d	ff 15 00 00 00
	00		 call	 DWORD PTR __imp_??1?$CStringT@DV?$StrTraitMFC_DLL@DV?$ChTraitsCRT@D@ATL@@@@@ATL@@QAE@XZ
  00033	8d 4e 38	 lea	 ecx, DWORD PTR [esi+56]
  00036	ff 15 00 00 00
	00		 call	 DWORD PTR __imp_??1?$CStringT@DV?$StrTraitMFC_DLL@DV?$ChTraitsCRT@D@ATL@@@@@ATL@@QAE@XZ
  0003c	f6 45 08 01	 test	 BYTE PTR ___flags$[ebp], 1
  00040	74 0e		 je	 SHORT $LN25@scalar
  00042	68 b8 00 00 00	 push	 184			; 000000b8H
  00047	56		 push	 esi
  00048	e8 00 00 00 00	 call	 ??3@YAXPAXI@Z		; operator delete
  0004d	83 c4 08	 add	 esp, 8
$LN25@scalar:
  00050	8b c6		 mov	 eax, esi
  00052	5e		 pop	 esi
  00053	5d		 pop	 ebp
  00054	c2 04 00	 ret	 4
??_GCCycleLines@@UAEPAXI@Z ENDP				; CCycleLines::`scalar deleting destructor'
_TEXT	ENDS
; Function compile flags: /Ogtp
; File D:\git\src\IBK\IBK_DRFN\ProjSrc\SrcChartEx\ChartAddIn\ChartAnalysisToolAddIn\AnalysisTool\Line.cpp
; File C:\Program Files (x86)\Microsoft Visual Studio\2019\Community\VC\Tools\MSVC\14.29.30133\atlmfc\include\atltypes.h
; File D:\git\src\IBK\IBK_DRFN\ProjSrc\SrcChartEx\ChartAddIn\ChartAnalysisToolAddIn\AnalysisTool\Line.cpp
;	COMDAT ?GetModifyType_Lines@CCycleLines@@ABE?AW4ModifyType@CToolEnumData@@ABVCDisplayData@@ABVCPoint@@11@Z
_TEXT	SEGMENT
_nGap$1$ = -52						; size = 4
_topPt$ = -48						; size = 8
_bottomPt$ = -40					; size = 8
_point$GSCopy$1$ = -32					; size = 4
_this$GSCopy$1$ = -28					; size = 4
_bResult1$1$ = -21					; size = 1
_region$ = -20						; size = 16
__$ArrayPad$ = -4					; size = 4
_displayData$ = 8					; size = 4
_drawingStartPt$ = 12					; size = 4
_drawingEndPt$ = 16					; size = 4
_point$ = 20						; size = 4
?GetModifyType_Lines@CCycleLines@@ABE?AW4ModifyType@CToolEnumData@@ABVCDisplayData@@ABVCPoint@@11@Z PROC ; CCycleLines::GetModifyType_Lines, COMDAT
; _this$ = ecx

; 499  : {	

  00000	55		 push	 ebp
  00001	8b ec		 mov	 ebp, esp
  00003	83 ec 34	 sub	 esp, 52			; 00000034H
  00006	a1 00 00 00 00	 mov	 eax, DWORD PTR ___security_cookie
  0000b	33 c5		 xor	 eax, ebp
  0000d	89 45 fc	 mov	 DWORD PTR __$ArrayPad$[ebp], eax
  00010	8b c1		 mov	 eax, ecx
  00012	8b 4d 14	 mov	 ecx, DWORD PTR _point$[ebp]
  00015	53		 push	 ebx
  00016	8b 5d 08	 mov	 ebx, DWORD PTR _displayData$[ebp]
  00019	56		 push	 esi

; 500  : 	int nIndex1 = m_cycleLinesDrawer.GetPoints_Index1();

  0001a	8d b0 90 00 00
	00		 lea	 esi, DWORD PTR [eax+144]
  00020	89 4d e0	 mov	 DWORD PTR _point$GSCopy$1$[ebp], ecx
  00023	57		 push	 edi
  00024	8b ce		 mov	 ecx, esi
  00026	89 45 e4	 mov	 DWORD PTR _this$GSCopy$1$[ebp], eax
  00029	e8 00 00 00 00	 call	 ?GetPoints_Index1@CCycleLinesDrawer@@QBEHXZ ; CCycleLinesDrawer::GetPoints_Index1

; 501  : 	int nIndex2 = m_cycleLinesDrawer.GetPoints_Index2();

  0002e	8b ce		 mov	 ecx, esi
  00030	8b f8		 mov	 edi, eax
  00032	e8 00 00 00 00	 call	 ?GetPoints_Index2@CCycleLinesDrawer@@QBEHXZ ; CCycleLinesDrawer::GetPoints_Index2

; 502  : 
; 503  : 	int nGap = abs(nIndex1 - nIndex2);

  00037	8b cf		 mov	 ecx, edi
  00039	2b c8		 sub	 ecx, eax
  0003b	8b c1		 mov	 eax, ecx
  0003d	99		 cdq
  0003e	33 c2		 xor	 eax, edx
  00040	2b c2		 sub	 eax, edx
  00042	89 45 cc	 mov	 DWORD PTR _nGap$1$[ebp], eax

; 504  : 	if(nGap == 0)

  00045	0f 84 d6 00 00
	00		 je	 $LN19@GetModifyT

; 505  : 	{
; 506  : 		return CToolEnumData::MODIFY_NONE;
; 507  : 	}
; 508  : 
; 509  : 	CRect region(displayData.GetDisplayRegion());

  0004b	8d 45 ec	 lea	 eax, DWORD PTR _region$[ebp]
  0004e	8b cb		 mov	 ecx, ebx
  00050	50		 push	 eax
  00051	e8 00 00 00 00	 call	 ?GetDisplayRegion@CDisplayData@@QBE?AVCRect@@XZ ; CDisplayData::GetDisplayRegion

; 510  : 	int nAccCount = 0;
; 511  : 	bool bResult1 = false;
; 512  : 	bool bResult2 = false;
; 513  : 	int drawPt_X1 = -1;
; 514  : 	int drawPt_X2 = -1;
; 515  : 
; 516  : 	CPoint topPt;
; 517  : 	CPoint bottomPt;
; 518  : 	topPt.y = region.top;

  00056	8b 45 f0	 mov	 eax, DWORD PTR _region$[ebp+4]
  00059	8b f7		 mov	 esi, edi
  0005b	89 45 d4	 mov	 DWORD PTR _topPt$[ebp+4], eax

; 519  : 	bottomPt.y = region.bottom;

  0005e	8b 45 f8	 mov	 eax, DWORD PTR _region$[ebp+12]
; File C:\Program Files (x86)\Microsoft Visual Studio\2019\Community\VC\Tools\MSVC\14.29.30133\atlmfc\include\atltypes.h

; 400  : 	x = 0;

  00061	c7 45 d0 00 00
	00 00		 mov	 DWORD PTR _topPt$[ebp], 0
  00068	c7 45 d8 00 00
	00 00		 mov	 DWORD PTR _bottomPt$[ebp], 0
; File D:\git\src\IBK\IBK_DRFN\ProjSrc\SrcChartEx\ChartAddIn\ChartAnalysisToolAddIn\AnalysisTool\Line.cpp

; 519  : 	bottomPt.y = region.bottom;

  0006f	89 45 dc	 mov	 DWORD PTR _bottomPt$[ebp+4], eax
$LL2@GetModifyT:

; 520  : 
; 521  : 	while(true)
; 522  : 	{
; 523  : 		bResult1 = m_cycleLinesDrawer.GetIndexInDisplayAttributes(displayData,nIndex1 + nAccCount);

  00072	8b 4d e4	 mov	 ecx, DWORD PTR _this$GSCopy$1$[ebp]
  00075	57		 push	 edi
  00076	53		 push	 ebx
  00077	8d 89 90 00 00
	00		 lea	 ecx, DWORD PTR [ecx+144]
  0007d	e8 00 00 00 00	 call	 ?GetIndexInDisplayAttributes@CCycleLinesDrawer@@QBE_NABVCDisplayData@@H@Z ; CCycleLinesDrawer::GetIndexInDisplayAttributes
  00082	88 45 eb	 mov	 BYTE PTR _bResult1$1$[ebp], al

; 524  : 		if(bResult1)

  00085	84 c0		 test	 al, al
  00087	74 2d		 je	 SHORT $LN21@GetModifyT

; 525  : 		{
; 526  : 			topPt.x = m_cycleLinesDrawer.GetDrawingPoint_X(displayData,nIndex1 + nAccCount);

  00089	8b 4d e4	 mov	 ecx, DWORD PTR _this$GSCopy$1$[ebp]
  0008c	57		 push	 edi
  0008d	53		 push	 ebx
  0008e	8d 89 90 00 00
	00		 lea	 ecx, DWORD PTR [ecx+144]
  00094	e8 00 00 00 00	 call	 ?GetDrawingPoint_X@CCycleLinesDrawer@@QBEHABVCDisplayData@@H@Z ; CCycleLinesDrawer::GetDrawingPoint_X

; 527  : 			bottomPt.x = topPt.x;
; 528  : 
; 529  : 			if(CElement::PointInElementSelectableRegion(topPt, bottomPt, point))

  00099	ff 75 e0	 push	 DWORD PTR _point$GSCopy$1$[ebp]
  0009c	8b 4d e4	 mov	 ecx, DWORD PTR _this$GSCopy$1$[ebp]
  0009f	89 45 d0	 mov	 DWORD PTR _topPt$[ebp], eax
  000a2	89 45 d8	 mov	 DWORD PTR _bottomPt$[ebp], eax
  000a5	8d 45 d8	 lea	 eax, DWORD PTR _bottomPt$[ebp]
  000a8	50		 push	 eax
  000a9	8d 45 d0	 lea	 eax, DWORD PTR _topPt$[ebp]
  000ac	50		 push	 eax
  000ad	e8 00 00 00 00	 call	 ?PointInElementSelectableRegion@CElement@@IBE_NABVCPoint@@00@Z ; CElement::PointInElementSelectableRegion
  000b2	84 c0		 test	 al, al
  000b4	75 44		 jne	 SHORT $LN18@GetModifyT
$LN21@GetModifyT:

; 530  : 				return CToolEnumData::MODIFY_CENTER;
; 531  : 		}
; 532  : 
; 533  : 		bResult2 = m_cycleLinesDrawer.GetIndexInDisplayAttributes(displayData,nIndex1 - nAccCount);

  000b6	8b 45 e4	 mov	 eax, DWORD PTR _this$GSCopy$1$[ebp]
  000b9	56		 push	 esi
  000ba	05 90 00 00 00	 add	 eax, 144		; 00000090H
  000bf	53		 push	 ebx
  000c0	8b c8		 mov	 ecx, eax
  000c2	e8 00 00 00 00	 call	 ?GetIndexInDisplayAttributes@CCycleLinesDrawer@@QBE_NABVCDisplayData@@H@Z ; CCycleLinesDrawer::GetIndexInDisplayAttributes

; 534  : 		if(bResult1)

  000c7	80 7d eb 00	 cmp	 BYTE PTR _bResult1$1$[ebp], 0
  000cb	74 45		 je	 SHORT $LN24@GetModifyT

; 535  : 		{
; 536  : 			topPt.x = m_cycleLinesDrawer.GetDrawingPoint_X(displayData,nIndex1 - nAccCount);

  000cd	8b 4d e4	 mov	 ecx, DWORD PTR _this$GSCopy$1$[ebp]
  000d0	56		 push	 esi
  000d1	53		 push	 ebx
  000d2	8d 89 90 00 00
	00		 lea	 ecx, DWORD PTR [ecx+144]
  000d8	e8 00 00 00 00	 call	 ?GetDrawingPoint_X@CCycleLinesDrawer@@QBEHABVCDisplayData@@H@Z ; CCycleLinesDrawer::GetDrawingPoint_X

; 537  : 			bottomPt.x = topPt.x;
; 538  : 
; 539  : 			if(CElement::PointInElementSelectableRegion(topPt, bottomPt, point))

  000dd	ff 75 e0	 push	 DWORD PTR _point$GSCopy$1$[ebp]
  000e0	8b 4d e4	 mov	 ecx, DWORD PTR _this$GSCopy$1$[ebp]
  000e3	89 45 d0	 mov	 DWORD PTR _topPt$[ebp], eax
  000e6	89 45 d8	 mov	 DWORD PTR _bottomPt$[ebp], eax
  000e9	8d 45 d8	 lea	 eax, DWORD PTR _bottomPt$[ebp]
  000ec	50		 push	 eax
  000ed	8d 45 d0	 lea	 eax, DWORD PTR _topPt$[ebp]
  000f0	50		 push	 eax
  000f1	e8 00 00 00 00	 call	 ?PointInElementSelectableRegion@CElement@@IBE_NABVCPoint@@00@Z ; CElement::PointInElementSelectableRegion
  000f6	84 c0		 test	 al, al
  000f8	74 1c		 je	 SHORT $LN9@GetModifyT
$LN18@GetModifyT:
  000fa	5f		 pop	 edi

; 548  : 
; 549  : 	return CToolEnumData::MODIFY_NONE;
; 550  : }

  000fb	5e		 pop	 esi
  000fc	b8 01 00 00 00	 mov	 eax, 1
  00101	5b		 pop	 ebx
  00102	8b 4d fc	 mov	 ecx, DWORD PTR __$ArrayPad$[ebp]
  00105	33 cd		 xor	 ecx, ebp
  00107	e8 00 00 00 00	 call	 @__security_check_cookie@4
  0010c	8b e5		 mov	 esp, ebp
  0010e	5d		 pop	 ebp
  0010f	c2 10 00	 ret	 16			; 00000010H
$LN24@GetModifyT:

; 540  : 				return CToolEnumData::MODIFY_CENTER;			
; 541  : 		}
; 542  : 
; 543  : 		if(!bResult1 && !bResult2)

  00112	84 c0		 test	 al, al
  00114	74 0b		 je	 SHORT $LN19@GetModifyT
$LN9@GetModifyT:

; 544  : 			break;		
; 545  : 
; 546  : 		nAccCount += nGap;

  00116	03 7d cc	 add	 edi, DWORD PTR _nGap$1$[ebp]
  00119	2b 75 cc	 sub	 esi, DWORD PTR _nGap$1$[ebp]

; 547  : 	}

  0011c	e9 51 ff ff ff	 jmp	 $LL2@GetModifyT
$LN19@GetModifyT:

; 548  : 
; 549  : 	return CToolEnumData::MODIFY_NONE;
; 550  : }

  00121	8b 4d fc	 mov	 ecx, DWORD PTR __$ArrayPad$[ebp]
  00124	33 c0		 xor	 eax, eax
  00126	5f		 pop	 edi
  00127	5e		 pop	 esi
  00128	33 cd		 xor	 ecx, ebp
  0012a	5b		 pop	 ebx
  0012b	e8 00 00 00 00	 call	 @__security_check_cookie@4
  00130	8b e5		 mov	 esp, ebp
  00132	5d		 pop	 ebp
  00133	c2 10 00	 ret	 16			; 00000010H
?GetModifyType_Lines@CCycleLines@@ABE?AW4ModifyType@CToolEnumData@@ABVCDisplayData@@ABVCPoint@@11@Z ENDP ; CCycleLines::GetModifyType_Lines
_TEXT	ENDS
; Function compile flags: /Ogtp
; File D:\git\src\IBK\IBK_DRFN\ProjSrc\SrcChartEx\ChartAddIn\ChartAnalysisToolAddIn\AnalysisTool\Line.cpp
; File C:\Program Files (x86)\Microsoft Visual Studio\2019\Community\VC\Tools\MSVC\14.29.30133\atlmfc\include\atltypes.h
; File D:\git\src\IBK\IBK_DRFN\ProjSrc\SrcChartEx\ChartAddIn\ChartAnalysisToolAddIn\AnalysisTool\Line.cpp
;	COMDAT ?GetModifyType@CCycleLines@@MBE?AW4ModifyType@CToolEnumData@@ABVCDisplayData@@ABVCPoint@@11@Z
_TEXT	SEGMENT
_nGap$1$ = -52						; size = 4
_topPt$1 = -48						; size = 8
_bottomPt$2 = -40					; size = 8
_point$GSCopy$1$ = -32					; size = 4
_this$GSCopy$1$ = -28					; size = 4
_bResult1$1$ = -21					; size = 1
_region$3 = -20						; size = 16
__$ArrayPad$ = -4					; size = 4
_displayData$ = 8					; size = 4
_drawingStartPt$ = 12					; size = 4
_drawingEndPt$ = 16					; size = 4
_point$ = 20						; size = 4
?GetModifyType@CCycleLines@@MBE?AW4ModifyType@CToolEnumData@@ABVCDisplayData@@ABVCPoint@@11@Z PROC ; CCycleLines::GetModifyType, COMDAT
; _this$ = ecx

; 478  : {

  00000	55		 push	 ebp
  00001	8b ec		 mov	 ebp, esp
  00003	83 ec 34	 sub	 esp, 52			; 00000034H
  00006	a1 00 00 00 00	 mov	 eax, DWORD PTR ___security_cookie
  0000b	33 c5		 xor	 eax, ebp
  0000d	89 45 fc	 mov	 DWORD PTR __$ArrayPad$[ebp], eax
  00010	8b 45 10	 mov	 eax, DWORD PTR _drawingEndPt$[ebp]
  00013	8b 55 0c	 mov	 edx, DWORD PTR _drawingStartPt$[ebp]
  00016	53		 push	 ebx
  00017	8b 5d 08	 mov	 ebx, DWORD PTR _displayData$[ebp]
  0001a	56		 push	 esi
  0001b	8b f1		 mov	 esi, ecx
  0001d	8b 4d 14	 mov	 ecx, DWORD PTR _point$[ebp]

; 479  : 	// element 
; 480  : 	CToolEnumData::ModifyType modifyType = CTwoPointElement::GetModifyType_SidePoints(drawingStartPt, drawingEndPt, point);

  00020	51		 push	 ecx
  00021	50		 push	 eax
  00022	89 4d e0	 mov	 DWORD PTR _point$GSCopy$1$[ebp], ecx
  00025	8b ce		 mov	 ecx, esi
  00027	52		 push	 edx
  00028	89 75 e4	 mov	 DWORD PTR _this$GSCopy$1$[ebp], esi
  0002b	e8 00 00 00 00	 call	 ?GetModifyType_SidePoints@CTwoPointElement@@IBE?AW4ModifyType@CToolEnumData@@ABVCPoint@@00@Z ; CTwoPointElement::GetModifyType_SidePoints

; 481  : 	if(modifyType != CToolEnumData::MODIFY_NONE)

  00030	85 c0		 test	 eax, eax
  00032	0f 85 0a 01 00
	00		 jne	 $LN1@GetModifyT
  00038	57		 push	 edi

; 500  : 	int nIndex1 = m_cycleLinesDrawer.GetPoints_Index1();

  00039	8d 8e 90 00 00
	00		 lea	 ecx, DWORD PTR [esi+144]
  0003f	e8 00 00 00 00	 call	 ?GetPoints_Index1@CCycleLinesDrawer@@QBEHXZ ; CCycleLinesDrawer::GetPoints_Index1

; 501  : 	int nIndex2 = m_cycleLinesDrawer.GetPoints_Index2();

  00044	8d 8e 90 00 00
	00		 lea	 ecx, DWORD PTR [esi+144]
  0004a	8b f8		 mov	 edi, eax
  0004c	e8 00 00 00 00	 call	 ?GetPoints_Index2@CCycleLinesDrawer@@QBEHXZ ; CCycleLinesDrawer::GetPoints_Index2

; 502  : 
; 503  : 	int nGap = abs(nIndex1 - nIndex2);

  00051	8b cf		 mov	 ecx, edi
  00053	2b c8		 sub	 ecx, eax
  00055	8b c1		 mov	 eax, ecx
  00057	99		 cdq
  00058	33 c2		 xor	 eax, edx
  0005a	2b c2		 sub	 eax, edx
  0005c	89 45 cc	 mov	 DWORD PTR _nGap$1$[ebp], eax

; 504  : 	if(nGap == 0)

  0005f	0f 84 da 00 00
	00		 je	 $LN22@GetModifyT

; 505  : 	{
; 506  : 		return CToolEnumData::MODIFY_NONE;
; 507  : 	}
; 508  : 
; 509  : 	CRect region(displayData.GetDisplayRegion());

  00065	8d 45 ec	 lea	 eax, DWORD PTR _region$3[ebp]
  00068	8b cb		 mov	 ecx, ebx
  0006a	50		 push	 eax
  0006b	e8 00 00 00 00	 call	 ?GetDisplayRegion@CDisplayData@@QBE?AVCRect@@XZ ; CDisplayData::GetDisplayRegion

; 510  : 	int nAccCount = 0;
; 511  : 	bool bResult1 = false;
; 512  : 	bool bResult2 = false;
; 513  : 	int drawPt_X1 = -1;
; 514  : 	int drawPt_X2 = -1;
; 515  : 
; 516  : 	CPoint topPt;
; 517  : 	CPoint bottomPt;
; 518  : 	topPt.y = region.top;

  00070	8b 45 f0	 mov	 eax, DWORD PTR _region$3[ebp+4]
  00073	8b f7		 mov	 esi, edi
  00075	89 45 d4	 mov	 DWORD PTR _topPt$1[ebp+4], eax

; 519  : 	bottomPt.y = region.bottom;

  00078	8b 45 f8	 mov	 eax, DWORD PTR _region$3[ebp+12]
; File C:\Program Files (x86)\Microsoft Visual Studio\2019\Community\VC\Tools\MSVC\14.29.30133\atlmfc\include\atltypes.h

; 400  : 	x = 0;

  0007b	c7 45 d0 00 00
	00 00		 mov	 DWORD PTR _topPt$1[ebp], 0
  00082	c7 45 d8 00 00
	00 00		 mov	 DWORD PTR _bottomPt$2[ebp], 0
; File D:\git\src\IBK\IBK_DRFN\ProjSrc\SrcChartEx\ChartAddIn\ChartAnalysisToolAddIn\AnalysisTool\Line.cpp

; 519  : 	bottomPt.y = region.bottom;

  00089	89 45 dc	 mov	 DWORD PTR _bottomPt$2[ebp+4], eax
  0008c	0f 1f 40 00	 npad	 4
$LL5@GetModifyT:

; 520  : 
; 521  : 	while(true)
; 522  : 	{
; 523  : 		bResult1 = m_cycleLinesDrawer.GetIndexInDisplayAttributes(displayData,nIndex1 + nAccCount);

  00090	8b 4d e4	 mov	 ecx, DWORD PTR _this$GSCopy$1$[ebp]
  00093	57		 push	 edi
  00094	53		 push	 ebx
  00095	8d 89 90 00 00
	00		 lea	 ecx, DWORD PTR [ecx+144]
  0009b	e8 00 00 00 00	 call	 ?GetIndexInDisplayAttributes@CCycleLinesDrawer@@QBE_NABVCDisplayData@@H@Z ; CCycleLinesDrawer::GetIndexInDisplayAttributes
  000a0	88 45 eb	 mov	 BYTE PTR _bResult1$1$[ebp], al

; 524  : 		if(bResult1)

  000a3	84 c0		 test	 al, al
  000a5	74 2d		 je	 SHORT $LN24@GetModifyT

; 525  : 		{
; 526  : 			topPt.x = m_cycleLinesDrawer.GetDrawingPoint_X(displayData,nIndex1 + nAccCount);

  000a7	8b 4d e4	 mov	 ecx, DWORD PTR _this$GSCopy$1$[ebp]
  000aa	57		 push	 edi
  000ab	53		 push	 ebx
  000ac	8d 89 90 00 00
	00		 lea	 ecx, DWORD PTR [ecx+144]
  000b2	e8 00 00 00 00	 call	 ?GetDrawingPoint_X@CCycleLinesDrawer@@QBEHABVCDisplayData@@H@Z ; CCycleLinesDrawer::GetDrawingPoint_X

; 527  : 			bottomPt.x = topPt.x;
; 528  : 
; 529  : 			if(CElement::PointInElementSelectableRegion(topPt, bottomPt, point))

  000b7	ff 75 e0	 push	 DWORD PTR _point$GSCopy$1$[ebp]
  000ba	8b 4d e4	 mov	 ecx, DWORD PTR _this$GSCopy$1$[ebp]
  000bd	89 45 d0	 mov	 DWORD PTR _topPt$1[ebp], eax
  000c0	89 45 d8	 mov	 DWORD PTR _bottomPt$2[ebp], eax
  000c3	8d 45 d8	 lea	 eax, DWORD PTR _bottomPt$2[ebp]
  000c6	50		 push	 eax
  000c7	8d 45 d0	 lea	 eax, DWORD PTR _topPt$1[ebp]
  000ca	50		 push	 eax
  000cb	e8 00 00 00 00	 call	 ?PointInElementSelectableRegion@CElement@@IBE_NABVCPoint@@00@Z ; CElement::PointInElementSelectableRegion
  000d0	84 c0		 test	 al, al
  000d2	75 44		 jne	 SHORT $LN20@GetModifyT
$LN24@GetModifyT:

; 530  : 				return CToolEnumData::MODIFY_CENTER;
; 531  : 		}
; 532  : 
; 533  : 		bResult2 = m_cycleLinesDrawer.GetIndexInDisplayAttributes(displayData,nIndex1 - nAccCount);

  000d4	8b 45 e4	 mov	 eax, DWORD PTR _this$GSCopy$1$[ebp]
  000d7	56		 push	 esi
  000d8	05 90 00 00 00	 add	 eax, 144		; 00000090H
  000dd	53		 push	 ebx
  000de	8b c8		 mov	 ecx, eax
  000e0	e8 00 00 00 00	 call	 ?GetIndexInDisplayAttributes@CCycleLinesDrawer@@QBE_NABVCDisplayData@@H@Z ; CCycleLinesDrawer::GetIndexInDisplayAttributes

; 534  : 		if(bResult1)

  000e5	80 7d eb 00	 cmp	 BYTE PTR _bResult1$1$[ebp], 0
  000e9	74 45		 je	 SHORT $LN27@GetModifyT

; 535  : 		{
; 536  : 			topPt.x = m_cycleLinesDrawer.GetDrawingPoint_X(displayData,nIndex1 - nAccCount);

  000eb	8b 4d e4	 mov	 ecx, DWORD PTR _this$GSCopy$1$[ebp]
  000ee	56		 push	 esi
  000ef	53		 push	 ebx
  000f0	8d 89 90 00 00
	00		 lea	 ecx, DWORD PTR [ecx+144]
  000f6	e8 00 00 00 00	 call	 ?GetDrawingPoint_X@CCycleLinesDrawer@@QBEHABVCDisplayData@@H@Z ; CCycleLinesDrawer::GetDrawingPoint_X

; 537  : 			bottomPt.x = topPt.x;
; 538  : 
; 539  : 			if(CElement::PointInElementSelectableRegion(topPt, bottomPt, point))

  000fb	ff 75 e0	 push	 DWORD PTR _point$GSCopy$1$[ebp]
  000fe	8b 4d e4	 mov	 ecx, DWORD PTR _this$GSCopy$1$[ebp]
  00101	89 45 d0	 mov	 DWORD PTR _topPt$1[ebp], eax
  00104	89 45 d8	 mov	 DWORD PTR _bottomPt$2[ebp], eax
  00107	8d 45 d8	 lea	 eax, DWORD PTR _bottomPt$2[ebp]
  0010a	50		 push	 eax
  0010b	8d 45 d0	 lea	 eax, DWORD PTR _topPt$1[ebp]
  0010e	50		 push	 eax
  0010f	e8 00 00 00 00	 call	 ?PointInElementSelectableRegion@CElement@@IBE_NABVCPoint@@00@Z ; CElement::PointInElementSelectableRegion
  00114	84 c0		 test	 al, al
  00116	74 1c		 je	 SHORT $LN12@GetModifyT
$LN20@GetModifyT:

; 482  : 		return modifyType;
; 483  : 
; 484  : 	return GetModifyType_Lines(displayData, drawingStartPt, drawingEndPt, point);

  00118	5f		 pop	 edi
  00119	5e		 pop	 esi
  0011a	b8 01 00 00 00	 mov	 eax, 1

; 485  : }

  0011f	5b		 pop	 ebx
  00120	8b 4d fc	 mov	 ecx, DWORD PTR __$ArrayPad$[ebp]
  00123	33 cd		 xor	 ecx, ebp
  00125	e8 00 00 00 00	 call	 @__security_check_cookie@4
  0012a	8b e5		 mov	 esp, ebp
  0012c	5d		 pop	 ebp
  0012d	c2 10 00	 ret	 16			; 00000010H
$LN27@GetModifyT:

; 543  : 		if(!bResult1 && !bResult2)

  00130	84 c0		 test	 al, al
  00132	74 0b		 je	 SHORT $LN22@GetModifyT
$LN12@GetModifyT:

; 544  : 			break;		
; 545  : 
; 546  : 		nAccCount += nGap;

  00134	03 7d cc	 add	 edi, DWORD PTR _nGap$1$[ebp]
  00137	2b 75 cc	 sub	 esi, DWORD PTR _nGap$1$[ebp]

; 547  : 	}

  0013a	e9 51 ff ff ff	 jmp	 $LL5@GetModifyT
$LN22@GetModifyT:

; 482  : 		return modifyType;
; 483  : 
; 484  : 	return GetModifyType_Lines(displayData, drawingStartPt, drawingEndPt, point);

  0013f	33 c0		 xor	 eax, eax
  00141	5f		 pop	 edi
$LN1@GetModifyT:

; 485  : }

  00142	8b 4d fc	 mov	 ecx, DWORD PTR __$ArrayPad$[ebp]
  00145	5e		 pop	 esi
  00146	33 cd		 xor	 ecx, ebp
  00148	5b		 pop	 ebx
  00149	e8 00 00 00 00	 call	 @__security_check_cookie@4
  0014e	8b e5		 mov	 esp, ebp
  00150	5d		 pop	 ebp
  00151	c2 10 00	 ret	 16			; 00000010H
?GetModifyType@CCycleLines@@MBE?AW4ModifyType@CToolEnumData@@ABVCDisplayData@@ABVCPoint@@11@Z ENDP ; CCycleLines::GetModifyType
_TEXT	ENDS
; Function compile flags: /Ogtp
; File D:\git\src\IBK\IBK_DRFN\ProjSrc\SrcChartEx\ChartAddIn\ChartAnalysisToolAddIn\AnalysisTool\Line.cpp
; File C:\Program Files (x86)\Microsoft Visual Studio\2019\Community\VC\Tools\MSVC\14.29.30133\atlmfc\include\atltypes.h
; File D:\git\src\IBK\IBK_DRFN\ProjSrc\SrcChartEx\ChartAddIn\ChartAnalysisToolAddIn\AnalysisTool\Line.cpp
; File C:\Program Files (x86)\Microsoft Visual Studio\2019\Community\VC\Tools\MSVC\14.29.30133\atlmfc\include\atltypes.h
; File D:\git\src\IBK\IBK_DRFN\ProjSrc\SrcChartEx\ChartAddIn\ChartAnalysisToolAddIn\AnalysisTool\Line.cpp
; File C:\Program Files (x86)\Microsoft Visual Studio\2019\Community\VC\Tools\MSVC\14.29.30133\atlmfc\include\atltypes.h
; File D:\git\src\IBK\IBK_DRFN\ProjSrc\SrcChartEx\ChartAddIn\ChartAnalysisToolAddIn\AnalysisTool\Line.cpp
;	COMDAT ?ElementInRegion@CCycleLines@@MBE_NABVCRect@@ABVCPoint@@11@Z
_TEXT	SEGMENT
_pointRegion$ = -20					; size = 16
$T1 = -12						; size = 8
$T2 = -12						; size = 8
__$ArrayPad$ = -4					; size = 4
_region$ = 8						; size = 4
_startPoint$ = 12					; size = 4
_endPoint$ = 16						; size = 4
_point$ = 20						; size = 4
?ElementInRegion@CCycleLines@@MBE_NABVCRect@@ABVCPoint@@11@Z PROC ; CCycleLines::ElementInRegion, COMDAT
; _this$ = ecx

; 465  : {

  00000	55		 push	 ebp
  00001	8b ec		 mov	 ebp, esp
  00003	83 ec 14	 sub	 esp, 20			; 00000014H
  00006	a1 00 00 00 00	 mov	 eax, DWORD PTR ___security_cookie
  0000b	33 c5		 xor	 eax, ebp
  0000d	89 45 fc	 mov	 DWORD PTR __$ArrayPad$[ebp], eax
  00010	8b 4d 0c	 mov	 ecx, DWORD PTR _startPoint$[ebp]

; 466  : 	CRect pointRegion(startPoint, endPoint);

  00013	8b 45 10	 mov	 eax, DWORD PTR _endPoint$[ebp]
  00016	56		 push	 esi
  00017	57		 push	 edi
  00018	8b 39		 mov	 edi, DWORD PTR [ecx]
; File C:\Program Files (x86)\Microsoft Visual Studio\2019\Community\VC\Tools\MSVC\14.29.30133\atlmfc\include\atltypes.h

; 571  : 	bottom = bottomRight.y;

  0001a	8b f7		 mov	 esi, edi
; File D:\git\src\IBK\IBK_DRFN\ProjSrc\SrcChartEx\ChartAddIn\ChartAnalysisToolAddIn\AnalysisTool\Line.cpp

; 466  : 	CRect pointRegion(startPoint, endPoint);

  0001c	8b 10		 mov	 edx, DWORD PTR [eax]
  0001e	8b 40 04	 mov	 eax, DWORD PTR [eax+4]
  00021	8b 49 04	 mov	 ecx, DWORD PTR [ecx+4]
  00024	89 55 f4	 mov	 DWORD PTR $T2[ebp], edx
  00027	89 7d f4	 mov	 DWORD PTR $T1[ebp], edi
; File C:\Program Files (x86)\Microsoft Visual Studio\2019\Community\VC\Tools\MSVC\14.29.30133\atlmfc\include\atltypes.h

; 569  : 	top = topLeft.y;

  0002a	89 4d f0	 mov	 DWORD PTR _pointRegion$[ebp+4], ecx

; 571  : 	bottom = bottomRight.y;

  0002d	89 45 f8	 mov	 DWORD PTR _pointRegion$[ebp+12], eax
  00030	89 75 ec	 mov	 DWORD PTR _pointRegion$[ebp], esi
  00033	89 55 f4	 mov	 DWORD PTR _pointRegion$[ebp+8], edx

; 884  : 	if (left > right)

  00036	3b fa		 cmp	 edi, edx
  00038	7e 0a		 jle	 SHORT $LN9@ElementInR

; 885  : 	{
; 886  : 		nTemp = left;
; 887  : 		left = right;

  0003a	8b f2		 mov	 esi, edx

; 888  : 		right = nTemp;

  0003c	8b d7		 mov	 edx, edi
  0003e	89 75 ec	 mov	 DWORD PTR _pointRegion$[ebp], esi
  00041	89 55 f4	 mov	 DWORD PTR _pointRegion$[ebp+8], edx
$LN9@ElementInR:

; 889  : 	}
; 890  : 	if (top > bottom)

  00044	3b c8		 cmp	 ecx, eax
  00046	7e 06		 jle	 SHORT $LN10@ElementInR

; 891  : 	{
; 892  : 		nTemp = top;
; 893  : 		top = bottom;

  00048	89 45 f0	 mov	 DWORD PTR _pointRegion$[ebp+4], eax

; 894  : 		bottom = nTemp;

  0004b	89 4d f8	 mov	 DWORD PTR _pointRegion$[ebp+12], ecx
$LN10@ElementInR:

; 576  : 	return right - left;

  0004e	8b 45 08	 mov	 eax, DWORD PTR _region$[ebp]
  00051	2b d6		 sub	 edx, esi
  00053	5f		 pop	 edi
  00054	5e		 pop	 esi
  00055	8b 48 08	 mov	 ecx, DWORD PTR [eax+8]
  00058	2b 08		 sub	 ecx, DWORD PTR [eax]
; File D:\git\src\IBK\IBK_DRFN\ProjSrc\SrcChartEx\ChartAddIn\ChartAnalysisToolAddIn\AnalysisTool\Line.cpp

; 469  : 	if(pointRegion.Width() > region.Width())

  0005a	3b d1		 cmp	 edx, ecx
  0005c	7f 2f		 jg	 SHORT $LN4@ElementInR
; File C:\Program Files (x86)\Microsoft Visual Studio\2019\Community\VC\Tools\MSVC\14.29.30133\atlmfc\include\atltypes.h

; 686  : 	::InflateRect(this, x, y);

  0005e	6a 04		 push	 4
  00060	6a 04		 push	 4
  00062	8d 45 ec	 lea	 eax, DWORD PTR _pointRegion$[ebp]
  00065	50		 push	 eax
  00066	ff 15 00 00 00
	00		 call	 DWORD PTR __imp__InflateRect@12
; File D:\git\src\IBK\IBK_DRFN\ProjSrc\SrcChartEx\ChartAddIn\ChartAnalysisToolAddIn\AnalysisTool\Line.cpp

; 473  : 	return (pointRegion.left < point.x && pointRegion.right > point.x);

  0006c	8b 45 14	 mov	 eax, DWORD PTR _point$[ebp]
  0006f	8b 00		 mov	 eax, DWORD PTR [eax]
  00071	39 45 ec	 cmp	 DWORD PTR _pointRegion$[ebp], eax
  00074	7d 17		 jge	 SHORT $LN4@ElementInR
  00076	39 45 f4	 cmp	 DWORD PTR _pointRegion$[ebp+8], eax
  00079	7e 12		 jle	 SHORT $LN4@ElementInR
  0007b	b0 01		 mov	 al, 1

; 474  : }

  0007d	8b 4d fc	 mov	 ecx, DWORD PTR __$ArrayPad$[ebp]
  00080	33 cd		 xor	 ecx, ebp
  00082	e8 00 00 00 00	 call	 @__security_check_cookie@4
  00087	8b e5		 mov	 esp, ebp
  00089	5d		 pop	 ebp
  0008a	c2 10 00	 ret	 16			; 00000010H
$LN4@ElementInR:
  0008d	8b 4d fc	 mov	 ecx, DWORD PTR __$ArrayPad$[ebp]
  00090	32 c0		 xor	 al, al
  00092	33 cd		 xor	 ecx, ebp
  00094	e8 00 00 00 00	 call	 @__security_check_cookie@4
  00099	8b e5		 mov	 esp, ebp
  0009b	5d		 pop	 ebp
  0009c	c2 10 00	 ret	 16			; 00000010H
?ElementInRegion@CCycleLines@@MBE_NABVCRect@@ABVCPoint@@11@Z ENDP ; CCycleLines::ElementInRegion
_TEXT	ENDS
; Function compile flags: /Ogtp
; File D:\git\src\IBK\IBK_DRFN\ProjSrc\SrcChartEx\ChartAddIn\ChartAnalysisToolAddIn\AnalysisTool\Line.cpp
;	COMDAT ?GetTwoPointDrawer@CCycleLines@@MAEAAVCTwoPointDrawer@@XZ
_TEXT	SEGMENT
?GetTwoPointDrawer@CCycleLines@@MAEAAVCTwoPointDrawer@@XZ PROC ; CCycleLines::GetTwoPointDrawer, COMDAT
; _this$ = ecx

; 461  : 	return m_cycleLinesDrawer;

  00000	8d 81 90 00 00
	00		 lea	 eax, DWORD PTR [ecx+144]

; 462  : }

  00006	c3		 ret	 0
?GetTwoPointDrawer@CCycleLines@@MAEAAVCTwoPointDrawer@@XZ ENDP ; CCycleLines::GetTwoPointDrawer
_TEXT	ENDS
; Function compile flags: /Ogtp
; File D:\git\src\IBK\IBK_DRFN\ProjSrc\SrcChartEx\ChartAddIn\ChartAnalysisToolAddIn\AnalysisTool\Line.cpp
;	COMDAT ?GetElementType@CCycleLines@@UBE?AW4ElementType@CToolEnumData@@XZ
_TEXT	SEGMENT
?GetElementType@CCycleLines@@UBE?AW4ElementType@CToolEnumData@@XZ PROC ; CCycleLines::GetElementType, COMDAT
; _this$ = ecx

; 455  : 	return CToolEnumData::Cycle_Line;

  00000	b8 16 00 00 00	 mov	 eax, 22			; 00000016H

; 456  : }

  00005	c3		 ret	 0
?GetElementType@CCycleLines@@UBE?AW4ElementType@CToolEnumData@@XZ ENDP ; CCycleLines::GetElementType
_TEXT	ENDS
; Function compile flags: /Ogtp
; File D:\git\src\IBK\IBK_DRFN\ProjSrc\SrcChartEx\ChartAddIn\ChartAnalysisToolAddIn\AnalysisTool\Line.cpp
;	COMDAT ??0CCycleLines@@QAE@ABVCCoordinate@@0ABVCElementCommonEnvironment@@@Z
_TEXT	SEGMENT
_this$ = -16						; size = 4
__$EHRec$ = -12						; size = 12
_point1$ = 8						; size = 4
_point2$ = 12						; size = 4
_environment$ = 16					; size = 4
??0CCycleLines@@QAE@ABVCCoordinate@@0ABVCElementCommonEnvironment@@@Z PROC ; CCycleLines::CCycleLines, COMDAT
; _this$ = ecx

; 450  : {

  00000	55		 push	 ebp
  00001	8b ec		 mov	 ebp, esp
  00003	6a ff		 push	 -1
  00005	68 00 00 00 00	 push	 __ehhandler$??0CCycleLines@@QAE@ABVCCoordinate@@0ABVCElementCommonEnvironment@@@Z
  0000a	64 a1 00 00 00
	00		 mov	 eax, DWORD PTR fs:0
  00010	50		 push	 eax
  00011	51		 push	 ecx
  00012	56		 push	 esi
  00013	a1 00 00 00 00	 mov	 eax, DWORD PTR ___security_cookie
  00018	33 c5		 xor	 eax, ebp
  0001a	50		 push	 eax
  0001b	8d 45 f4	 lea	 eax, DWORD PTR __$EHRec$[ebp]
  0001e	64 a3 00 00 00
	00		 mov	 DWORD PTR fs:0, eax
  00024	8b f1		 mov	 esi, ecx
  00026	89 75 f0	 mov	 DWORD PTR _this$[ebp], esi

; 449  : 	CTwoPointElement(point1, point2, environment)

  00029	ff 75 10	 push	 DWORD PTR _environment$[ebp]
  0002c	ff 75 0c	 push	 DWORD PTR _point2$[ebp]
  0002f	ff 75 08	 push	 DWORD PTR _point1$[ebp]
  00032	e8 00 00 00 00	 call	 ??0CTwoPointElement@@QAE@ABVCCoordinate@@0ABVCElementCommonEnvironment@@@Z ; CTwoPointElement::CTwoPointElement

; 450  : {

  00037	c7 06 00 00 00
	00		 mov	 DWORD PTR [esi], OFFSET ??_7CCycleLines@@6B@
  0003d	8d 8e a0 00 00
	00		 lea	 ecx, DWORD PTR [esi+160]
  00043	c7 45 fc 00 00
	00 00		 mov	 DWORD PTR __$EHRec$[ebp+8], 0
  0004a	c7 86 94 00 00
	00 00 00 00 00	 mov	 DWORD PTR [esi+148], OFFSET ??_8CCycleLinesDrawer@@7B@
  00054	e8 00 00 00 00	 call	 ??0CDrawer@@QAE@XZ	; CDrawer::CDrawer
  00059	c7 86 90 00 00
	00 00 00 00 00	 mov	 DWORD PTR [esi+144], OFFSET ??_7CCycleLinesDrawer@@6B@

; 451  : }

  00063	8b c6		 mov	 eax, esi
  00065	8b 4d f4	 mov	 ecx, DWORD PTR __$EHRec$[ebp]
  00068	64 89 0d 00 00
	00 00		 mov	 DWORD PTR fs:0, ecx
  0006f	59		 pop	 ecx
  00070	5e		 pop	 esi
  00071	8b e5		 mov	 esp, ebp
  00073	5d		 pop	 ebp
  00074	c2 0c 00	 ret	 12			; 0000000cH
  00077	cc		 int	 3
  00078	cc		 int	 3
  00079	cc		 int	 3
  0007a	cc		 int	 3
  0007b	cc		 int	 3
_TEXT	ENDS
;	COMDAT text$x
text$x	SEGMENT
__ehhandler$??0CCycleLines@@QAE@ABVCCoordinate@@0ABVCElementCommonEnvironment@@@Z:
  00000	90		 npad	 1
  00001	90		 npad	 1
  00002	8b 54 24 08	 mov	 edx, DWORD PTR [esp+8]
  00006	8d 42 0c	 lea	 eax, DWORD PTR [edx+12]
  00009	8b 4a f4	 mov	 ecx, DWORD PTR [edx-12]
  0000c	33 c8		 xor	 ecx, eax
  0000e	e8 00 00 00 00	 call	 @__security_check_cookie@4
  00013	b8 00 00 00 00	 mov	 eax, OFFSET __ehfuncinfo$??0CCycleLines@@QAE@ABVCCoordinate@@0ABVCElementCommonEnvironment@@@Z
  00018	e9 00 00 00 00	 jmp	 ___CxxFrameHandler3
text$x	ENDS
??0CCycleLines@@QAE@ABVCCoordinate@@0ABVCElementCommonEnvironment@@@Z ENDP ; CCycleLines::CCycleLines
; Function compile flags: /Ogtp
; File D:\git\src\IBK\IBK_DRFN\ProjSrc\SrcChartEx\ChartAddIn\ChartAnalysisToolAddIn\AnalysisTool\Element.h
;	COMDAT ??_GCAndrewsPitchfork@@UAEPAXI@Z
_TEXT	SEGMENT
___flags$ = 8						; size = 4
??_GCAndrewsPitchfork@@UAEPAXI@Z PROC			; CAndrewsPitchfork::`scalar deleting destructor', COMDAT
; _this$ = ecx
  00000	55		 push	 ebp
  00001	8b ec		 mov	 ebp, esp

; 31   : 	virtual ~CElement()	{}

  00003	56		 push	 esi
  00004	8b f1		 mov	 esi, ecx
  00006	8d 8e a4 00 00
	00		 lea	 ecx, DWORD PTR [esi+164]
  0000c	ff 15 00 00 00
	00		 call	 DWORD PTR __imp_??1?$CStringT@DV?$StrTraitMFC_DLL@DV?$ChTraitsCRT@D@ATL@@@@@ATL@@QAE@XZ
  00012	8d 8e 84 00 00
	00		 lea	 ecx, DWORD PTR [esi+132]
  00018	ff 15 00 00 00
	00		 call	 DWORD PTR __imp_??1?$CStringT@DV?$StrTraitMFC_DLL@DV?$ChTraitsCRT@D@ATL@@@@@ATL@@QAE@XZ
  0001e	8d 4e 64	 lea	 ecx, DWORD PTR [esi+100]
  00021	ff 15 00 00 00
	00		 call	 DWORD PTR __imp_??1?$CStringT@DV?$StrTraitMFC_DLL@DV?$ChTraitsCRT@D@ATL@@@@@ATL@@QAE@XZ
  00027	8d 4e 40	 lea	 ecx, DWORD PTR [esi+64]
  0002a	c7 06 00 00 00
	00		 mov	 DWORD PTR [esi], OFFSET ??_7CElement@@6B@
  00030	ff 15 00 00 00
	00		 call	 DWORD PTR __imp_??1?$CStringT@DV?$StrTraitMFC_DLL@DV?$ChTraitsCRT@D@ATL@@@@@ATL@@QAE@XZ
  00036	8d 4e 3c	 lea	 ecx, DWORD PTR [esi+60]
  00039	ff 15 00 00 00
	00		 call	 DWORD PTR __imp_??1?$CStringT@DV?$StrTraitMFC_DLL@DV?$ChTraitsCRT@D@ATL@@@@@ATL@@QAE@XZ
  0003f	8d 4e 38	 lea	 ecx, DWORD PTR [esi+56]
  00042	ff 15 00 00 00
	00		 call	 DWORD PTR __imp_??1?$CStringT@DV?$StrTraitMFC_DLL@DV?$ChTraitsCRT@D@ATL@@@@@ATL@@QAE@XZ
  00048	f6 45 08 01	 test	 BYTE PTR ___flags$[ebp], 1
  0004c	74 0e		 je	 SHORT $LN28@scalar
  0004e	68 c8 00 00 00	 push	 200			; 000000c8H
  00053	56		 push	 esi
  00054	e8 00 00 00 00	 call	 ??3@YAXPAXI@Z		; operator delete
  00059	83 c4 08	 add	 esp, 8
$LN28@scalar:
  0005c	8b c6		 mov	 eax, esi
  0005e	5e		 pop	 esi
  0005f	5d		 pop	 ebp
  00060	c2 04 00	 ret	 4
??_GCAndrewsPitchfork@@UAEPAXI@Z ENDP			; CAndrewsPitchfork::`scalar deleting destructor'
_TEXT	ENDS
; Function compile flags: /Ogtp
; File D:\git\src\IBK\IBK_DRFN\ProjSrc\SrcChartEx\ChartAddIn\ChartAnalysisToolAddIn\AnalysisTool\Line.cpp
; File C:\Program Files (x86)\Microsoft Visual Studio\2019\Community\VC\Tools\MSVC\14.29.30133\atlmfc\include\atltypes.h
; File D:\git\src\IBK\IBK_DRFN\ProjSrc\SrcChartEx\ChartAddIn\ChartAnalysisToolAddIn\AnalysisTool\Line.cpp
;	COMDAT ?PointInElementSelectableRegion@CAndrewsPitchfork@@ABE_NABVCRect@@ABVCPoint@@111@Z
_TEXT	SEGMENT
_pt1_end$ = -8						; size = 8
_region$ = 8						; size = 4
_pt1$ = 12						; size = 4
_pt2$ = 16						; size = 4
_pt3$ = 20						; size = 4
_point$ = 24						; size = 4
?PointInElementSelectableRegion@CAndrewsPitchfork@@ABE_NABVCRect@@ABVCPoint@@111@Z PROC ; CAndrewsPitchfork::PointInElementSelectableRegion, COMDAT
; _this$ = ecx

; 437  : {

  00000	55		 push	 ebp
  00001	8b ec		 mov	 ebp, esp
  00003	83 ec 08	 sub	 esp, 8
  00006	56		 push	 esi

; 438  : 	CPoint pt1_end = m_andrewsDrawer.GetLineEndPoint(region, pt1, pt2, pt3);

  00007	8b 75 0c	 mov	 esi, DWORD PTR _pt1$[ebp]
  0000a	8d 45 f8	 lea	 eax, DWORD PTR _pt1_end$[ebp]
  0000d	57		 push	 edi
  0000e	ff 75 14	 push	 DWORD PTR _pt3$[ebp]
  00011	8b f9		 mov	 edi, ecx
  00013	ff 75 10	 push	 DWORD PTR _pt2$[ebp]
  00016	56		 push	 esi
  00017	ff 75 08	 push	 DWORD PTR _region$[ebp]
  0001a	8d 8f b0 00 00
	00		 lea	 ecx, DWORD PTR [edi+176]
  00020	50		 push	 eax
  00021	e8 00 00 00 00	 call	 ?GetLineEndPoint@CAndrewsPitchforkDrawer@@QBE?AVCPoint@@ABVCRect@@ABV2@11@Z ; CAndrewsPitchforkDrawer::GetLineEndPoint
; File C:\Program Files (x86)\Microsoft Visual Studio\2019\Community\VC\Tools\MSVC\14.29.30133\atlmfc\include\atltypes.h

; 458  : 	return (x == point.x && y == point.y);

  00026	8b 06		 mov	 eax, DWORD PTR [esi]
  00028	3b 45 f8	 cmp	 eax, DWORD PTR _pt1_end$[ebp]
  0002b	75 12		 jne	 SHORT $LN2@PointInEle
  0002d	8b 46 04	 mov	 eax, DWORD PTR [esi+4]
  00030	3b 45 fc	 cmp	 eax, DWORD PTR _pt1_end$[ebp+4]
  00033	75 0a		 jne	 SHORT $LN2@PointInEle
; File D:\git\src\IBK\IBK_DRFN\ProjSrc\SrcChartEx\ChartAddIn\ChartAnalysisToolAddIn\AnalysisTool\Line.cpp

; 440  : 		return false;

  00035	5f		 pop	 edi
  00036	32 c0		 xor	 al, al

; 443  : }

  00038	5e		 pop	 esi
  00039	8b e5		 mov	 esp, ebp
  0003b	5d		 pop	 ebp
  0003c	c2 14 00	 ret	 20			; 00000014H
$LN2@PointInEle:

; 441  : 
; 442  : 	return CElement::PointInElementSelectableRegion(pt1, pt1_end, point);

  0003f	ff 75 18	 push	 DWORD PTR _point$[ebp]
  00042	8d 45 f8	 lea	 eax, DWORD PTR _pt1_end$[ebp]
  00045	8b cf		 mov	 ecx, edi
  00047	50		 push	 eax
  00048	56		 push	 esi
  00049	e8 00 00 00 00	 call	 ?PointInElementSelectableRegion@CElement@@IBE_NABVCPoint@@00@Z ; CElement::PointInElementSelectableRegion
  0004e	5f		 pop	 edi

; 443  : }

  0004f	5e		 pop	 esi
  00050	8b e5		 mov	 esp, ebp
  00052	5d		 pop	 ebp
  00053	c2 14 00	 ret	 20			; 00000014H
?PointInElementSelectableRegion@CAndrewsPitchfork@@ABE_NABVCRect@@ABVCPoint@@111@Z ENDP ; CAndrewsPitchfork::PointInElementSelectableRegion
_TEXT	ENDS
; Function compile flags: /Ogtp
; File D:\git\src\IBK\IBK_DRFN\ProjSrc\SrcChartEx\ChartAddIn\ChartAnalysisToolAddIn\AnalysisTool\Line.cpp
; File C:\Program Files (x86)\Microsoft Visual Studio\2019\Community\VC\Tools\MSVC\14.29.30133\atlmfc\include\atltypes.h
; File D:\git\src\IBK\IBK_DRFN\ProjSrc\SrcChartEx\ChartAddIn\ChartAnalysisToolAddIn\AnalysisTool\Line.cpp
; File C:\Program Files (x86)\Microsoft Visual Studio\2019\Community\VC\Tools\MSVC\14.29.30133\atlmfc\include\atltypes.h
; File D:\git\src\IBK\IBK_DRFN\ProjSrc\SrcChartEx\ChartAddIn\ChartAnalysisToolAddIn\AnalysisTool\Line.cpp
; File C:\Program Files (x86)\Microsoft Visual Studio\2019\Community\VC\Tools\MSVC\14.29.30133\atlmfc\include\atltypes.h
; File D:\git\src\IBK\IBK_DRFN\ProjSrc\SrcChartEx\ChartAddIn\ChartAnalysisToolAddIn\AnalysisTool\Line.cpp
;	COMDAT ?GetModifyType@CAndrewsPitchfork@@MBE?AW4ModifyType@CToolEnumData@@ABVCRect@@ABVCPoint@@111@Z
_TEXT	SEGMENT
_pt1_end$1 = -16					; size = 8
_pt1_end$2 = -16					; size = 8
_pt1_end$3 = -16					; size = 8
tv336 = -8						; size = 4
_this$1$ = -4						; size = 4
_region$ = 8						; size = 4
_pt1$ = 12						; size = 4
_pt2$ = 16						; size = 4
_pt3$ = 20						; size = 4
_point$ = 24						; size = 4
?GetModifyType@CAndrewsPitchfork@@MBE?AW4ModifyType@CToolEnumData@@ABVCRect@@ABVCPoint@@111@Z PROC ; CAndrewsPitchfork::GetModifyType, COMDAT
; _this$ = ecx

; 426  : {

  00000	55		 push	 ebp
  00001	8b ec		 mov	 ebp, esp
  00003	83 ec 10	 sub	 esp, 16			; 00000010H
  00006	53		 push	 ebx

; 438  : 	CPoint pt1_end = m_andrewsDrawer.GetLineEndPoint(region, pt1, pt2, pt3);

  00007	8b 5d 0c	 mov	 ebx, DWORD PTR _pt1$[ebp]

; 426  : {

  0000a	8b c1		 mov	 eax, ecx
  0000c	56		 push	 esi

; 438  : 	CPoint pt1_end = m_andrewsDrawer.GetLineEndPoint(region, pt1, pt2, pt3);

  0000d	8b 75 14	 mov	 esi, DWORD PTR _pt3$[ebp]
  00010	8d 4d f0	 lea	 ecx, DWORD PTR _pt1_end$3[ebp]

; 426  : {

  00013	57		 push	 edi

; 438  : 	CPoint pt1_end = m_andrewsDrawer.GetLineEndPoint(region, pt1, pt2, pt3);

  00014	8b 7d 10	 mov	 edi, DWORD PTR _pt2$[ebp]
  00017	56		 push	 esi
  00018	57		 push	 edi
  00019	53		 push	 ebx
  0001a	ff 75 08	 push	 DWORD PTR _region$[ebp]

; 426  : {

  0001d	89 45 fc	 mov	 DWORD PTR _this$1$[ebp], eax

; 438  : 	CPoint pt1_end = m_andrewsDrawer.GetLineEndPoint(region, pt1, pt2, pt3);

  00020	05 b0 00 00 00	 add	 eax, 176		; 000000b0H
  00025	51		 push	 ecx
  00026	8b c8		 mov	 ecx, eax
  00028	89 45 f8	 mov	 DWORD PTR tv336[ebp], eax
  0002b	e8 00 00 00 00	 call	 ?GetLineEndPoint@CAndrewsPitchforkDrawer@@QBE?AVCPoint@@ABVCRect@@ABV2@11@Z ; CAndrewsPitchforkDrawer::GetLineEndPoint
; File C:\Program Files (x86)\Microsoft Visual Studio\2019\Community\VC\Tools\MSVC\14.29.30133\atlmfc\include\atltypes.h

; 458  : 	return (x == point.x && y == point.y);

  00030	8b 03		 mov	 eax, DWORD PTR [ebx]
  00032	3b 45 f0	 cmp	 eax, DWORD PTR _pt1_end$3[ebp]
  00035	75 08		 jne	 SHORT $LN6@GetModifyT
  00037	8b 43 04	 mov	 eax, DWORD PTR [ebx+4]
  0003a	3b 45 f4	 cmp	 eax, DWORD PTR _pt1_end$3[ebp+4]
  0003d	74 18		 je	 SHORT $LN26@GetModifyT
$LN6@GetModifyT:
; File D:\git\src\IBK\IBK_DRFN\ProjSrc\SrcChartEx\ChartAddIn\ChartAnalysisToolAddIn\AnalysisTool\Line.cpp

; 442  : 	return CElement::PointInElementSelectableRegion(pt1, pt1_end, point);

  0003f	ff 75 18	 push	 DWORD PTR _point$[ebp]
  00042	8b 4d fc	 mov	 ecx, DWORD PTR _this$1$[ebp]
  00045	8d 45 f0	 lea	 eax, DWORD PTR _pt1_end$3[ebp]
  00048	50		 push	 eax
  00049	53		 push	 ebx
  0004a	e8 00 00 00 00	 call	 ?PointInElementSelectableRegion@CElement@@IBE_NABVCPoint@@00@Z ; CElement::PointInElementSelectableRegion

; 427  : 	if(PointInElementSelectableRegion(region, pt1, pt2, pt3, point)
; 428  : 		|| PointInElementSelectableRegion(region, pt2, pt1, pt3, point)
; 429  : 		|| PointInElementSelectableRegion(region, pt3, pt1, pt2, point))

  0004f	84 c0		 test	 al, al
  00051	0f 85 84 00 00
	00		 jne	 $LN3@GetModifyT
$LN26@GetModifyT:

; 438  : 	CPoint pt1_end = m_andrewsDrawer.GetLineEndPoint(region, pt1, pt2, pt3);

  00057	8b 4d f8	 mov	 ecx, DWORD PTR tv336[ebp]
  0005a	8d 45 f0	 lea	 eax, DWORD PTR _pt1_end$2[ebp]
  0005d	56		 push	 esi
  0005e	53		 push	 ebx
  0005f	57		 push	 edi
  00060	ff 75 08	 push	 DWORD PTR _region$[ebp]
  00063	50		 push	 eax
  00064	e8 00 00 00 00	 call	 ?GetLineEndPoint@CAndrewsPitchforkDrawer@@QBE?AVCPoint@@ABVCRect@@ABV2@11@Z ; CAndrewsPitchforkDrawer::GetLineEndPoint
; File C:\Program Files (x86)\Microsoft Visual Studio\2019\Community\VC\Tools\MSVC\14.29.30133\atlmfc\include\atltypes.h

; 458  : 	return (x == point.x && y == point.y);

  00069	8b 07		 mov	 eax, DWORD PTR [edi]
  0006b	3b 45 f0	 cmp	 eax, DWORD PTR _pt1_end$2[ebp]
  0006e	75 08		 jne	 SHORT $LN13@GetModifyT
  00070	8b 47 04	 mov	 eax, DWORD PTR [edi+4]
  00073	3b 45 f4	 cmp	 eax, DWORD PTR _pt1_end$2[ebp+4]
  00076	74 14		 je	 SHORT $LN27@GetModifyT
$LN13@GetModifyT:
; File D:\git\src\IBK\IBK_DRFN\ProjSrc\SrcChartEx\ChartAddIn\ChartAnalysisToolAddIn\AnalysisTool\Line.cpp

; 442  : 	return CElement::PointInElementSelectableRegion(pt1, pt1_end, point);

  00078	ff 75 18	 push	 DWORD PTR _point$[ebp]
  0007b	8b 4d fc	 mov	 ecx, DWORD PTR _this$1$[ebp]
  0007e	8d 45 f0	 lea	 eax, DWORD PTR _pt1_end$2[ebp]
  00081	50		 push	 eax
  00082	57		 push	 edi
  00083	e8 00 00 00 00	 call	 ?PointInElementSelectableRegion@CElement@@IBE_NABVCPoint@@00@Z ; CElement::PointInElementSelectableRegion

; 427  : 	if(PointInElementSelectableRegion(region, pt1, pt2, pt3, point)
; 428  : 		|| PointInElementSelectableRegion(region, pt2, pt1, pt3, point)
; 429  : 		|| PointInElementSelectableRegion(region, pt3, pt1, pt2, point))

  00088	84 c0		 test	 al, al
  0008a	75 4f		 jne	 SHORT $LN3@GetModifyT
$LN27@GetModifyT:

; 438  : 	CPoint pt1_end = m_andrewsDrawer.GetLineEndPoint(region, pt1, pt2, pt3);

  0008c	8b 4d f8	 mov	 ecx, DWORD PTR tv336[ebp]
  0008f	8d 45 f0	 lea	 eax, DWORD PTR _pt1_end$1[ebp]
  00092	57		 push	 edi
  00093	53		 push	 ebx
  00094	56		 push	 esi
  00095	ff 75 08	 push	 DWORD PTR _region$[ebp]
  00098	50		 push	 eax
  00099	e8 00 00 00 00	 call	 ?GetLineEndPoint@CAndrewsPitchforkDrawer@@QBE?AVCPoint@@ABVCRect@@ABV2@11@Z ; CAndrewsPitchforkDrawer::GetLineEndPoint
; File C:\Program Files (x86)\Microsoft Visual Studio\2019\Community\VC\Tools\MSVC\14.29.30133\atlmfc\include\atltypes.h

; 458  : 	return (x == point.x && y == point.y);

  0009e	8b 06		 mov	 eax, DWORD PTR [esi]
  000a0	3b 45 f0	 cmp	 eax, DWORD PTR _pt1_end$1[ebp]
  000a3	75 08		 jne	 SHORT $LN20@GetModifyT
  000a5	8b 46 04	 mov	 eax, DWORD PTR [esi+4]
  000a8	3b 45 f4	 cmp	 eax, DWORD PTR _pt1_end$1[ebp+4]
  000ab	74 14		 je	 SHORT $LN28@GetModifyT
$LN20@GetModifyT:
; File D:\git\src\IBK\IBK_DRFN\ProjSrc\SrcChartEx\ChartAddIn\ChartAnalysisToolAddIn\AnalysisTool\Line.cpp

; 442  : 	return CElement::PointInElementSelectableRegion(pt1, pt1_end, point);

  000ad	ff 75 18	 push	 DWORD PTR _point$[ebp]
  000b0	8b 4d fc	 mov	 ecx, DWORD PTR _this$1$[ebp]
  000b3	8d 45 f0	 lea	 eax, DWORD PTR _pt1_end$1[ebp]
  000b6	50		 push	 eax
  000b7	56		 push	 esi
  000b8	e8 00 00 00 00	 call	 ?PointInElementSelectableRegion@CElement@@IBE_NABVCPoint@@00@Z ; CElement::PointInElementSelectableRegion

; 427  : 	if(PointInElementSelectableRegion(region, pt1, pt2, pt3, point)
; 428  : 		|| PointInElementSelectableRegion(region, pt2, pt1, pt3, point)
; 429  : 		|| PointInElementSelectableRegion(region, pt3, pt1, pt2, point))

  000bd	84 c0		 test	 al, al
  000bf	75 1a		 jne	 SHORT $LN3@GetModifyT
$LN28@GetModifyT:

; 430  : 		return CToolEnumData::MODIFY_CENTER;
; 431  : 
; 432  : 	return CThreePointElement::GetModifyType(region, pt1, pt2, pt3, point);

  000c1	ff 75 18	 push	 DWORD PTR _point$[ebp]
  000c4	8b 4d fc	 mov	 ecx, DWORD PTR _this$1$[ebp]
  000c7	56		 push	 esi
  000c8	57		 push	 edi
  000c9	53		 push	 ebx
  000ca	ff 75 08	 push	 DWORD PTR _region$[ebp]
  000cd	e8 00 00 00 00	 call	 ?GetModifyType@CThreePointElement@@MBE?AW4ModifyType@CToolEnumData@@ABVCRect@@ABVCPoint@@111@Z ; CThreePointElement::GetModifyType
  000d2	5f		 pop	 edi

; 433  : }

  000d3	5e		 pop	 esi
  000d4	5b		 pop	 ebx
  000d5	8b e5		 mov	 esp, ebp
  000d7	5d		 pop	 ebp
  000d8	c2 14 00	 ret	 20			; 00000014H
$LN3@GetModifyT:
  000db	5f		 pop	 edi
  000dc	5e		 pop	 esi
  000dd	b8 01 00 00 00	 mov	 eax, 1
  000e2	5b		 pop	 ebx
  000e3	8b e5		 mov	 esp, ebp
  000e5	5d		 pop	 ebp
  000e6	c2 14 00	 ret	 20			; 00000014H
?GetModifyType@CAndrewsPitchfork@@MBE?AW4ModifyType@CToolEnumData@@ABVCRect@@ABVCPoint@@111@Z ENDP ; CAndrewsPitchfork::GetModifyType
_TEXT	ENDS
; Function compile flags: /Ogtp
; File D:\git\src\IBK\IBK_DRFN\ProjSrc\SrcChartEx\ChartAddIn\ChartAnalysisToolAddIn\AnalysisTool\Line.cpp
;	COMDAT ?ElementInRegion@CAndrewsPitchfork@@MBE_NABVCRect@@ABVCPoint@@111@Z
_TEXT	SEGMENT
_sidePt1$ = -24						; size = 8
_sidePt2$ = -16						; size = 8
_centerPt$ = -8						; size = 8
_region$ = 8						; size = 4
_pt1$ = 12						; size = 4
_pt2$ = 16						; size = 4
_pt3$ = 20						; size = 4
_point$ = 24						; size = 4
?ElementInRegion@CAndrewsPitchfork@@MBE_NABVCRect@@ABVCPoint@@111@Z PROC ; CAndrewsPitchfork::ElementInRegion, COMDAT
; _this$ = ecx

; 418  : {

  00000	55		 push	 ebp
  00001	8b ec		 mov	 ebp, esp
  00003	83 ec 18	 sub	 esp, 24			; 00000018H
  00006	53		 push	 ebx
  00007	56		 push	 esi

; 419  : 	CPoint centerPt = pt1, sidePt1 = pt2, sidePt2 = pt3;

  00008	8b 75 10	 mov	 esi, DWORD PTR _pt2$[ebp]
  0000b	8b d9		 mov	 ebx, ecx
  0000d	57		 push	 edi
  0000e	8b 7d 0c	 mov	 edi, DWORD PTR _pt1$[ebp]
  00011	8b 57 04	 mov	 edx, DWORD PTR [edi+4]
  00014	8b 07		 mov	 eax, DWORD PTR [edi]
  00016	89 55 fc	 mov	 DWORD PTR _centerPt$[ebp+4], edx
  00019	8b 56 04	 mov	 edx, DWORD PTR [esi+4]
  0001c	89 45 f8	 mov	 DWORD PTR _centerPt$[ebp], eax
  0001f	8b 06		 mov	 eax, DWORD PTR [esi]
  00021	89 55 ec	 mov	 DWORD PTR _sidePt1$[ebp+4], edx
  00024	8b 55 14	 mov	 edx, DWORD PTR _pt3$[ebp]
  00027	89 45 e8	 mov	 DWORD PTR _sidePt1$[ebp], eax
  0002a	8b 02		 mov	 eax, DWORD PTR [edx]
  0002c	8b 4a 04	 mov	 ecx, DWORD PTR [edx+4]
  0002f	89 45 f0	 mov	 DWORD PTR _sidePt2$[ebp], eax

; 420  : 	m_andrewsDrawer.GetPoints(pt1, pt2, pt3, centerPt, sidePt1, sidePt2);

  00032	8d 45 f0	 lea	 eax, DWORD PTR _sidePt2$[ebp]
  00035	50		 push	 eax
  00036	8d 45 e8	 lea	 eax, DWORD PTR _sidePt1$[ebp]
  00039	89 4d f4	 mov	 DWORD PTR _sidePt2$[ebp+4], ecx
  0003c	50		 push	 eax
  0003d	8d 45 f8	 lea	 eax, DWORD PTR _centerPt$[ebp]
  00040	50		 push	 eax
  00041	52		 push	 edx
  00042	56		 push	 esi
  00043	57		 push	 edi
  00044	8d 8b b0 00 00
	00		 lea	 ecx, DWORD PTR [ebx+176]
  0004a	e8 00 00 00 00	 call	 ?GetPoints@CAndrewsPitchforkDrawer@@QBEXABVCPoint@@00AAV2@11@Z ; CAndrewsPitchforkDrawer::GetPoints

; 421  : 
; 422  : 	return (centerPt.x < region.right && point.x >= (centerPt.x - 10));

  0004f	8b 45 08	 mov	 eax, DWORD PTR _region$[ebp]
  00052	8b 4d f8	 mov	 ecx, DWORD PTR _centerPt$[ebp]
  00055	5f		 pop	 edi
  00056	5e		 pop	 esi
  00057	5b		 pop	 ebx
  00058	3b 48 08	 cmp	 ecx, DWORD PTR [eax+8]
  0005b	7d 12		 jge	 SHORT $LN3@ElementInR
  0005d	8b 45 18	 mov	 eax, DWORD PTR _point$[ebp]
  00060	83 c1 f6	 add	 ecx, -10		; fffffff6H
  00063	39 08		 cmp	 DWORD PTR [eax], ecx
  00065	7c 08		 jl	 SHORT $LN3@ElementInR
  00067	b0 01		 mov	 al, 1

; 423  : }

  00069	8b e5		 mov	 esp, ebp
  0006b	5d		 pop	 ebp
  0006c	c2 14 00	 ret	 20			; 00000014H
$LN3@ElementInR:

; 421  : 
; 422  : 	return (centerPt.x < region.right && point.x >= (centerPt.x - 10));

  0006f	32 c0		 xor	 al, al

; 423  : }

  00071	8b e5		 mov	 esp, ebp
  00073	5d		 pop	 ebp
  00074	c2 14 00	 ret	 20			; 00000014H
?ElementInRegion@CAndrewsPitchfork@@MBE_NABVCRect@@ABVCPoint@@111@Z ENDP ; CAndrewsPitchfork::ElementInRegion
_TEXT	ENDS
; Function compile flags: /Ogtp
; File D:\git\src\IBK\IBK_DRFN\ProjSrc\SrcChartEx\ChartAddIn\ChartAnalysisToolAddIn\AnalysisTool\Line.cpp
;	COMDAT ?GetThreePointDrawer@CAndrewsPitchfork@@MAEAAVCThreePointDrawer@@XZ
_TEXT	SEGMENT
?GetThreePointDrawer@CAndrewsPitchfork@@MAEAAVCThreePointDrawer@@XZ PROC ; CAndrewsPitchfork::GetThreePointDrawer, COMDAT
; _this$ = ecx

; 414  : 	return m_andrewsDrawer;

  00000	8d 81 b0 00 00
	00		 lea	 eax, DWORD PTR [ecx+176]

; 415  : }

  00006	c3		 ret	 0
?GetThreePointDrawer@CAndrewsPitchfork@@MAEAAVCThreePointDrawer@@XZ ENDP ; CAndrewsPitchfork::GetThreePointDrawer
_TEXT	ENDS
; Function compile flags: /Ogtp
; File D:\git\src\IBK\IBK_DRFN\ProjSrc\SrcChartEx\ChartAddIn\ChartAnalysisToolAddIn\AnalysisTool\Line.cpp
;	COMDAT ?GetElementType@CAndrewsPitchfork@@UBE?AW4ElementType@CToolEnumData@@XZ
_TEXT	SEGMENT
?GetElementType@CAndrewsPitchfork@@UBE?AW4ElementType@CToolEnumData@@XZ PROC ; CAndrewsPitchfork::GetElementType, COMDAT
; _this$ = ecx

; 408  : 	return CToolEnumData::AndrewsPitchfork;

  00000	b8 14 00 00 00	 mov	 eax, 20			; 00000014H

; 409  : }

  00005	c3		 ret	 0
?GetElementType@CAndrewsPitchfork@@UBE?AW4ElementType@CToolEnumData@@XZ ENDP ; CAndrewsPitchfork::GetElementType
_TEXT	ENDS
; Function compile flags: /Ogtp
; File D:\git\src\IBK\IBK_DRFN\ProjSrc\SrcChartEx\ChartAddIn\ChartAnalysisToolAddIn\AnalysisTool\Line.cpp
;	COMDAT ??0CAndrewsPitchfork@@QAE@ABVCCoordinate@@00ABVCElementCommonEnvironment@@@Z
_TEXT	SEGMENT
_this$ = -16						; size = 4
__$EHRec$ = -12						; size = 12
_point1$ = 8						; size = 4
_point2$ = 12						; size = 4
_point3$ = 16						; size = 4
_environment$ = 20					; size = 4
??0CAndrewsPitchfork@@QAE@ABVCCoordinate@@00ABVCElementCommonEnvironment@@@Z PROC ; CAndrewsPitchfork::CAndrewsPitchfork, COMDAT
; _this$ = ecx

; 403  : {

  00000	55		 push	 ebp
  00001	8b ec		 mov	 ebp, esp
  00003	6a ff		 push	 -1
  00005	68 00 00 00 00	 push	 __ehhandler$??0CAndrewsPitchfork@@QAE@ABVCCoordinate@@00ABVCElementCommonEnvironment@@@Z
  0000a	64 a1 00 00 00
	00		 mov	 eax, DWORD PTR fs:0
  00010	50		 push	 eax
  00011	51		 push	 ecx
  00012	56		 push	 esi
  00013	a1 00 00 00 00	 mov	 eax, DWORD PTR ___security_cookie
  00018	33 c5		 xor	 eax, ebp
  0001a	50		 push	 eax
  0001b	8d 45 f4	 lea	 eax, DWORD PTR __$EHRec$[ebp]
  0001e	64 a3 00 00 00
	00		 mov	 DWORD PTR fs:0, eax
  00024	8b f1		 mov	 esi, ecx
  00026	89 75 f0	 mov	 DWORD PTR _this$[ebp], esi

; 402  : 	CThreePointElement(point1, point2, point3, environment)

  00029	ff 75 14	 push	 DWORD PTR _environment$[ebp]
  0002c	ff 75 10	 push	 DWORD PTR _point3$[ebp]
  0002f	ff 75 0c	 push	 DWORD PTR _point2$[ebp]
  00032	ff 75 08	 push	 DWORD PTR _point1$[ebp]
  00035	e8 00 00 00 00	 call	 ??0CThreePointElement@@QAE@ABVCCoordinate@@00ABVCElementCommonEnvironment@@@Z ; CThreePointElement::CThreePointElement
  0003a	8d 8e b4 00 00
	00		 lea	 ecx, DWORD PTR [esi+180]
  00040	c7 45 fc 00 00
	00 00		 mov	 DWORD PTR __$EHRec$[ebp+8], 0

; 403  : {

  00047	c7 06 00 00 00
	00		 mov	 DWORD PTR [esi], OFFSET ??_7CAndrewsPitchfork@@6B@
  0004d	e8 00 00 00 00	 call	 ??0CDrawer@@QAE@XZ	; CDrawer::CDrawer
  00052	c7 86 b0 00 00
	00 00 00 00 00	 mov	 DWORD PTR [esi+176], OFFSET ??_7CAndrewsPitchforkDrawer@@6B@

; 404  : }

  0005c	8b c6		 mov	 eax, esi
  0005e	8b 4d f4	 mov	 ecx, DWORD PTR __$EHRec$[ebp]
  00061	64 89 0d 00 00
	00 00		 mov	 DWORD PTR fs:0, ecx
  00068	59		 pop	 ecx
  00069	5e		 pop	 esi
  0006a	8b e5		 mov	 esp, ebp
  0006c	5d		 pop	 ebp
  0006d	c2 10 00	 ret	 16			; 00000010H
_TEXT	ENDS
;	COMDAT text$x
text$x	SEGMENT
__unwindfunclet$??0CAndrewsPitchfork@@QAE@ABVCCoordinate@@00ABVCElementCommonEnvironment@@@Z$0:
  00000	8b 4d f0	 mov	 ecx, DWORD PTR _this$[ebp]
  00003	e9 00 00 00 00	 jmp	 ??1CThreePointElement@@UAE@XZ
  00008	cc		 int	 3
  00009	cc		 int	 3
  0000a	cc		 int	 3
  0000b	cc		 int	 3
  0000c	cc		 int	 3
__ehhandler$??0CAndrewsPitchfork@@QAE@ABVCCoordinate@@00ABVCElementCommonEnvironment@@@Z:
  0000d	90		 npad	 1
  0000e	90		 npad	 1
  0000f	8b 54 24 08	 mov	 edx, DWORD PTR [esp+8]
  00013	8d 42 0c	 lea	 eax, DWORD PTR [edx+12]
  00016	8b 4a f4	 mov	 ecx, DWORD PTR [edx-12]
  00019	33 c8		 xor	 ecx, eax
  0001b	e8 00 00 00 00	 call	 @__security_check_cookie@4
  00020	b8 00 00 00 00	 mov	 eax, OFFSET __ehfuncinfo$??0CAndrewsPitchfork@@QAE@ABVCCoordinate@@00ABVCElementCommonEnvironment@@@Z
  00025	e9 00 00 00 00	 jmp	 ___CxxFrameHandler3
text$x	ENDS
??0CAndrewsPitchfork@@QAE@ABVCCoordinate@@00ABVCElementCommonEnvironment@@@Z ENDP ; CAndrewsPitchfork::CAndrewsPitchfork
; Function compile flags: /Ogtp
; File D:\git\src\IBK\IBK_DRFN\ProjSrc\SrcChartEx\ChartAddIn\ChartAnalysisToolAddIn\AnalysisTool\Element.h
;	COMDAT ??_GCQuadrisectLine@@UAEPAXI@Z
_TEXT	SEGMENT
___flags$ = 8						; size = 4
??_GCQuadrisectLine@@UAEPAXI@Z PROC			; CQuadrisectLine::`scalar deleting destructor', COMDAT
; _this$ = ecx
  00000	55		 push	 ebp
  00001	8b ec		 mov	 ebp, esp

; 31   : 	virtual ~CElement()	{}

  00003	56		 push	 esi
  00004	8b f1		 mov	 esi, ecx
  00006	8d 8e 84 00 00
	00		 lea	 ecx, DWORD PTR [esi+132]
  0000c	ff 15 00 00 00
	00		 call	 DWORD PTR __imp_??1?$CStringT@DV?$StrTraitMFC_DLL@DV?$ChTraitsCRT@D@ATL@@@@@ATL@@QAE@XZ
  00012	8d 4e 64	 lea	 ecx, DWORD PTR [esi+100]
  00015	ff 15 00 00 00
	00		 call	 DWORD PTR __imp_??1?$CStringT@DV?$StrTraitMFC_DLL@DV?$ChTraitsCRT@D@ATL@@@@@ATL@@QAE@XZ
  0001b	8d 4e 40	 lea	 ecx, DWORD PTR [esi+64]
  0001e	c7 06 00 00 00
	00		 mov	 DWORD PTR [esi], OFFSET ??_7CElement@@6B@
  00024	ff 15 00 00 00
	00		 call	 DWORD PTR __imp_??1?$CStringT@DV?$StrTraitMFC_DLL@DV?$ChTraitsCRT@D@ATL@@@@@ATL@@QAE@XZ
  0002a	8d 4e 3c	 lea	 ecx, DWORD PTR [esi+60]
  0002d	ff 15 00 00 00
	00		 call	 DWORD PTR __imp_??1?$CStringT@DV?$StrTraitMFC_DLL@DV?$ChTraitsCRT@D@ATL@@@@@ATL@@QAE@XZ
  00033	8d 4e 38	 lea	 ecx, DWORD PTR [esi+56]
  00036	ff 15 00 00 00
	00		 call	 DWORD PTR __imp_??1?$CStringT@DV?$StrTraitMFC_DLL@DV?$ChTraitsCRT@D@ATL@@@@@ATL@@QAE@XZ
  0003c	f6 45 08 01	 test	 BYTE PTR ___flags$[ebp], 1
  00040	74 0e		 je	 SHORT $LN28@scalar
  00042	68 c0 00 00 00	 push	 192			; 000000c0H
  00047	56		 push	 esi
  00048	e8 00 00 00 00	 call	 ??3@YAXPAXI@Z		; operator delete
  0004d	83 c4 08	 add	 esp, 8
$LN28@scalar:
  00050	8b c6		 mov	 eax, esi
  00052	5e		 pop	 esi
  00053	5d		 pop	 ebp
  00054	c2 04 00	 ret	 4
??_GCQuadrisectLine@@UAEPAXI@Z ENDP			; CQuadrisectLine::`scalar deleting destructor'
_TEXT	ENDS
; Function compile flags: /Ogtp
; File D:\git\src\IBK\IBK_DRFN\ProjSrc\SrcChartEx\ChartAddIn\ChartAnalysisToolAddIn\AnalysisTool\Line.cpp
;	COMDAT ?GetEqualDivisionLineDrawer@CQuadrisectLine@@MBEPBVCEqualDivisionLineDrawer@@XZ
_TEXT	SEGMENT
?GetEqualDivisionLineDrawer@CQuadrisectLine@@MBEPBVCEqualDivisionLineDrawer@@XZ PROC ; CQuadrisectLine::GetEqualDivisionLineDrawer, COMDAT
; _this$ = ecx

; 395  : 	return &m_quadrisectLineDrawer;

  00000	8d 81 a0 00 00
	00		 lea	 eax, DWORD PTR [ecx+160]

; 396  : }

  00006	c3		 ret	 0
?GetEqualDivisionLineDrawer@CQuadrisectLine@@MBEPBVCEqualDivisionLineDrawer@@XZ ENDP ; CQuadrisectLine::GetEqualDivisionLineDrawer
_TEXT	ENDS
; Function compile flags: /Ogtp
; File D:\git\src\IBK\IBK_DRFN\ProjSrc\SrcChartEx\ChartAddIn\ChartAnalysisToolAddIn\AnalysisTool\Line.cpp
;	COMDAT ?GetTwoPointDrawer@CQuadrisectLine@@MAEAAVCTwoPointDrawer@@XZ
_TEXT	SEGMENT
?GetTwoPointDrawer@CQuadrisectLine@@MAEAAVCTwoPointDrawer@@XZ PROC ; CQuadrisectLine::GetTwoPointDrawer, COMDAT
; _this$ = ecx

; 390  : 	return m_quadrisectLineDrawer;

  00000	8d 81 a0 00 00
	00		 lea	 eax, DWORD PTR [ecx+160]

; 391  : }

  00006	c3		 ret	 0
?GetTwoPointDrawer@CQuadrisectLine@@MAEAAVCTwoPointDrawer@@XZ ENDP ; CQuadrisectLine::GetTwoPointDrawer
_TEXT	ENDS
; Function compile flags: /Ogtp
; File D:\git\src\IBK\IBK_DRFN\ProjSrc\SrcChartEx\ChartAddIn\ChartAnalysisToolAddIn\AnalysisTool\Line.cpp
;	COMDAT ?GetElementType@CQuadrisectLine@@UBE?AW4ElementType@CToolEnumData@@XZ
_TEXT	SEGMENT
?GetElementType@CQuadrisectLine@@UBE?AW4ElementType@CToolEnumData@@XZ PROC ; CQuadrisectLine::GetElementType, COMDAT
; _this$ = ecx

; 384  : 	return CToolEnumData::Quadrisect;

  00000	b8 07 00 00 00	 mov	 eax, 7

; 385  : }

  00005	c3		 ret	 0
?GetElementType@CQuadrisectLine@@UBE?AW4ElementType@CToolEnumData@@XZ ENDP ; CQuadrisectLine::GetElementType
_TEXT	ENDS
; Function compile flags: /Ogtp
; File D:\git\src\IBK\IBK_DRFN\ProjSrc\SrcChartEx\ChartAddIn\ChartAnalysisToolAddIn\AnalysisTool\Line.cpp
;	COMDAT ??0CQuadrisectLine@@QAE@ABVCTextHorzPosition@@ABVCCoordinate@@1ABVCElementCommonEnvironment@@@Z
_TEXT	SEGMENT
_this$ = -16						; size = 4
__$EHRec$ = -12						; size = 12
_position$ = 8						; size = 4
_point1$ = 12						; size = 4
_point2$ = 16						; size = 4
_environment$ = 20					; size = 4
??0CQuadrisectLine@@QAE@ABVCTextHorzPosition@@ABVCCoordinate@@1ABVCElementCommonEnvironment@@@Z PROC ; CQuadrisectLine::CQuadrisectLine, COMDAT
; _this$ = ecx

; 379  : {

  00000	55		 push	 ebp
  00001	8b ec		 mov	 ebp, esp
  00003	6a ff		 push	 -1
  00005	68 00 00 00 00	 push	 __ehhandler$??0CQuadrisectLine@@QAE@ABVCTextHorzPosition@@ABVCCoordinate@@1ABVCElementCommonEnvironment@@@Z
  0000a	64 a1 00 00 00
	00		 mov	 eax, DWORD PTR fs:0
  00010	50		 push	 eax
  00011	51		 push	 ecx
  00012	56		 push	 esi
  00013	a1 00 00 00 00	 mov	 eax, DWORD PTR ___security_cookie
  00018	33 c5		 xor	 eax, ebp
  0001a	50		 push	 eax
  0001b	8d 45 f4	 lea	 eax, DWORD PTR __$EHRec$[ebp]
  0001e	64 a3 00 00 00
	00		 mov	 DWORD PTR fs:0, eax
  00024	8b f1		 mov	 esi, ecx
  00026	89 75 f0	 mov	 DWORD PTR _this$[ebp], esi

; 288  : 	CTwoPointElement(point1, point2, environment),

  00029	ff 75 14	 push	 DWORD PTR _environment$[ebp]
  0002c	ff 75 10	 push	 DWORD PTR _point2$[ebp]
  0002f	ff 75 0c	 push	 DWORD PTR _point1$[ebp]
  00032	e8 00 00 00 00	 call	 ??0CTwoPointElement@@QAE@ABVCCoordinate@@0ABVCElementCommonEnvironment@@@Z ; CTwoPointElement::CTwoPointElement

; 289  : 	m_textPosition(position)

  00037	ff 75 08	 push	 DWORD PTR _position$[ebp]
  0003a	8d 8e 90 00 00
	00		 lea	 ecx, DWORD PTR [esi+144]
  00040	c7 45 fc 00 00
	00 00		 mov	 DWORD PTR __$EHRec$[ebp+8], 0

; 290  : {

  00047	c7 06 00 00 00
	00		 mov	 DWORD PTR [esi], OFFSET ??_7CEqualDivisionLine@@6B@
  0004d	e8 00 00 00 00	 call	 ??0CTextHorzPosition@@QAE@ABV0@@Z ; CTextHorzPosition::CTextHorzPosition

; 379  : {

  00052	c7 06 00 00 00
	00		 mov	 DWORD PTR [esi], OFFSET ??_7CQuadrisectLine@@6B@
  00058	8d 8e a8 00 00
	00		 lea	 ecx, DWORD PTR [esi+168]
  0005e	c7 45 fc 01 00
	00 00		 mov	 DWORD PTR __$EHRec$[ebp+8], 1
  00065	c7 86 a4 00 00
	00 00 00 00 00	 mov	 DWORD PTR [esi+164], OFFSET ??_8CQuadrisectLineDrawer@@7B@
  0006f	e8 00 00 00 00	 call	 ??0CDrawer@@QAE@XZ	; CDrawer::CDrawer
  00074	c7 86 a0 00 00
	00 00 00 00 00	 mov	 DWORD PTR [esi+160], OFFSET ??_7CQuadrisectLineDrawer@@6B@

; 380  : }

  0007e	8b c6		 mov	 eax, esi
  00080	8b 4d f4	 mov	 ecx, DWORD PTR __$EHRec$[ebp]
  00083	64 89 0d 00 00
	00 00		 mov	 DWORD PTR fs:0, ecx
  0008a	59		 pop	 ecx
  0008b	5e		 pop	 esi
  0008c	8b e5		 mov	 esp, ebp
  0008e	5d		 pop	 ebp
  0008f	c2 10 00	 ret	 16			; 00000010H
_TEXT	ENDS
;	COMDAT text$x
text$x	SEGMENT
__unwindfunclet$??0CQuadrisectLine@@QAE@ABVCTextHorzPosition@@ABVCCoordinate@@1ABVCElementCommonEnvironment@@@Z$1:
  00000	8b 4d f0	 mov	 ecx, DWORD PTR _this$[ebp]
  00003	e9 00 00 00 00	 jmp	 ??1CTwoPointElement@@UAE@XZ
  00008	cc		 int	 3
  00009	cc		 int	 3
  0000a	cc		 int	 3
  0000b	cc		 int	 3
  0000c	cc		 int	 3
__ehhandler$??0CQuadrisectLine@@QAE@ABVCTextHorzPosition@@ABVCCoordinate@@1ABVCElementCommonEnvironment@@@Z:
  0000d	90		 npad	 1
  0000e	90		 npad	 1
  0000f	8b 54 24 08	 mov	 edx, DWORD PTR [esp+8]
  00013	8d 42 0c	 lea	 eax, DWORD PTR [edx+12]
  00016	8b 4a f4	 mov	 ecx, DWORD PTR [edx-12]
  00019	33 c8		 xor	 ecx, eax
  0001b	e8 00 00 00 00	 call	 @__security_check_cookie@4
  00020	b8 00 00 00 00	 mov	 eax, OFFSET __ehfuncinfo$??0CQuadrisectLine@@QAE@ABVCTextHorzPosition@@ABVCCoordinate@@1ABVCElementCommonEnvironment@@@Z
  00025	e9 00 00 00 00	 jmp	 ___CxxFrameHandler3
text$x	ENDS
??0CQuadrisectLine@@QAE@ABVCTextHorzPosition@@ABVCCoordinate@@1ABVCElementCommonEnvironment@@@Z ENDP ; CQuadrisectLine::CQuadrisectLine
; Function compile flags: /Ogtp
; File D:\git\src\IBK\IBK_DRFN\ProjSrc\SrcChartEx\ChartAddIn\ChartAnalysisToolAddIn\AnalysisTool\Element.h
;	COMDAT ??_GCTrisectionLine@@UAEPAXI@Z
_TEXT	SEGMENT
___flags$ = 8						; size = 4
??_GCTrisectionLine@@UAEPAXI@Z PROC			; CTrisectionLine::`scalar deleting destructor', COMDAT
; _this$ = ecx
  00000	55		 push	 ebp
  00001	8b ec		 mov	 ebp, esp

; 31   : 	virtual ~CElement()	{}

  00003	56		 push	 esi
  00004	8b f1		 mov	 esi, ecx
  00006	8d 8e 84 00 00
	00		 lea	 ecx, DWORD PTR [esi+132]
  0000c	ff 15 00 00 00
	00		 call	 DWORD PTR __imp_??1?$CStringT@DV?$StrTraitMFC_DLL@DV?$ChTraitsCRT@D@ATL@@@@@ATL@@QAE@XZ
  00012	8d 4e 64	 lea	 ecx, DWORD PTR [esi+100]
  00015	ff 15 00 00 00
	00		 call	 DWORD PTR __imp_??1?$CStringT@DV?$StrTraitMFC_DLL@DV?$ChTraitsCRT@D@ATL@@@@@ATL@@QAE@XZ
  0001b	8d 4e 40	 lea	 ecx, DWORD PTR [esi+64]
  0001e	c7 06 00 00 00
	00		 mov	 DWORD PTR [esi], OFFSET ??_7CElement@@6B@
  00024	ff 15 00 00 00
	00		 call	 DWORD PTR __imp_??1?$CStringT@DV?$StrTraitMFC_DLL@DV?$ChTraitsCRT@D@ATL@@@@@ATL@@QAE@XZ
  0002a	8d 4e 3c	 lea	 ecx, DWORD PTR [esi+60]
  0002d	ff 15 00 00 00
	00		 call	 DWORD PTR __imp_??1?$CStringT@DV?$StrTraitMFC_DLL@DV?$ChTraitsCRT@D@ATL@@@@@ATL@@QAE@XZ
  00033	8d 4e 38	 lea	 ecx, DWORD PTR [esi+56]
  00036	ff 15 00 00 00
	00		 call	 DWORD PTR __imp_??1?$CStringT@DV?$StrTraitMFC_DLL@DV?$ChTraitsCRT@D@ATL@@@@@ATL@@QAE@XZ
  0003c	f6 45 08 01	 test	 BYTE PTR ___flags$[ebp], 1
  00040	74 0e		 je	 SHORT $LN28@scalar
  00042	68 c0 00 00 00	 push	 192			; 000000c0H
  00047	56		 push	 esi
  00048	e8 00 00 00 00	 call	 ??3@YAXPAXI@Z		; operator delete
  0004d	83 c4 08	 add	 esp, 8
$LN28@scalar:
  00050	8b c6		 mov	 eax, esi
  00052	5e		 pop	 esi
  00053	5d		 pop	 ebp
  00054	c2 04 00	 ret	 4
??_GCTrisectionLine@@UAEPAXI@Z ENDP			; CTrisectionLine::`scalar deleting destructor'
_TEXT	ENDS
; Function compile flags: /Ogtp
; File D:\git\src\IBK\IBK_DRFN\ProjSrc\SrcChartEx\ChartAddIn\ChartAnalysisToolAddIn\AnalysisTool\Line.cpp
;	COMDAT ?GetEqualDivisionLineDrawer@CTrisectionLine@@MBEPBVCEqualDivisionLineDrawer@@XZ
_TEXT	SEGMENT
?GetEqualDivisionLineDrawer@CTrisectionLine@@MBEPBVCEqualDivisionLineDrawer@@XZ PROC ; CTrisectionLine::GetEqualDivisionLineDrawer, COMDAT
; _this$ = ecx

; 371  : 	return &m_trisectionLineDrawer;

  00000	8d 81 a0 00 00
	00		 lea	 eax, DWORD PTR [ecx+160]

; 372  : }

  00006	c3		 ret	 0
?GetEqualDivisionLineDrawer@CTrisectionLine@@MBEPBVCEqualDivisionLineDrawer@@XZ ENDP ; CTrisectionLine::GetEqualDivisionLineDrawer
_TEXT	ENDS
; Function compile flags: /Ogtp
; File D:\git\src\IBK\IBK_DRFN\ProjSrc\SrcChartEx\ChartAddIn\ChartAnalysisToolAddIn\AnalysisTool\Line.cpp
;	COMDAT ?GetTwoPointDrawer@CTrisectionLine@@MAEAAVCTwoPointDrawer@@XZ
_TEXT	SEGMENT
?GetTwoPointDrawer@CTrisectionLine@@MAEAAVCTwoPointDrawer@@XZ PROC ; CTrisectionLine::GetTwoPointDrawer, COMDAT
; _this$ = ecx

; 366  : 	return m_trisectionLineDrawer;

  00000	8d 81 a0 00 00
	00		 lea	 eax, DWORD PTR [ecx+160]

; 367  : }

  00006	c3		 ret	 0
?GetTwoPointDrawer@CTrisectionLine@@MAEAAVCTwoPointDrawer@@XZ ENDP ; CTrisectionLine::GetTwoPointDrawer
_TEXT	ENDS
; Function compile flags: /Ogtp
; File D:\git\src\IBK\IBK_DRFN\ProjSrc\SrcChartEx\ChartAddIn\ChartAnalysisToolAddIn\AnalysisTool\Line.cpp
;	COMDAT ?GetElementType@CTrisectionLine@@UBE?AW4ElementType@CToolEnumData@@XZ
_TEXT	SEGMENT
?GetElementType@CTrisectionLine@@UBE?AW4ElementType@CToolEnumData@@XZ PROC ; CTrisectionLine::GetElementType, COMDAT
; _this$ = ecx

; 360  : 	return CToolEnumData::Trisection;

  00000	b8 06 00 00 00	 mov	 eax, 6

; 361  : }

  00005	c3		 ret	 0
?GetElementType@CTrisectionLine@@UBE?AW4ElementType@CToolEnumData@@XZ ENDP ; CTrisectionLine::GetElementType
_TEXT	ENDS
; Function compile flags: /Ogtp
; File D:\git\src\IBK\IBK_DRFN\ProjSrc\SrcChartEx\ChartAddIn\ChartAnalysisToolAddIn\AnalysisTool\Line.cpp
;	COMDAT ??0CTrisectionLine@@QAE@ABVCTextHorzPosition@@ABVCCoordinate@@1ABVCElementCommonEnvironment@@@Z
_TEXT	SEGMENT
_this$ = -16						; size = 4
__$EHRec$ = -12						; size = 12
_position$ = 8						; size = 4
_point1$ = 12						; size = 4
_point2$ = 16						; size = 4
_environment$ = 20					; size = 4
??0CTrisectionLine@@QAE@ABVCTextHorzPosition@@ABVCCoordinate@@1ABVCElementCommonEnvironment@@@Z PROC ; CTrisectionLine::CTrisectionLine, COMDAT
; _this$ = ecx

; 355  : {

  00000	55		 push	 ebp
  00001	8b ec		 mov	 ebp, esp
  00003	6a ff		 push	 -1
  00005	68 00 00 00 00	 push	 __ehhandler$??0CTrisectionLine@@QAE@ABVCTextHorzPosition@@ABVCCoordinate@@1ABVCElementCommonEnvironment@@@Z
  0000a	64 a1 00 00 00
	00		 mov	 eax, DWORD PTR fs:0
  00010	50		 push	 eax
  00011	51		 push	 ecx
  00012	56		 push	 esi
  00013	a1 00 00 00 00	 mov	 eax, DWORD PTR ___security_cookie
  00018	33 c5		 xor	 eax, ebp
  0001a	50		 push	 eax
  0001b	8d 45 f4	 lea	 eax, DWORD PTR __$EHRec$[ebp]
  0001e	64 a3 00 00 00
	00		 mov	 DWORD PTR fs:0, eax
  00024	8b f1		 mov	 esi, ecx
  00026	89 75 f0	 mov	 DWORD PTR _this$[ebp], esi

; 288  : 	CTwoPointElement(point1, point2, environment),

  00029	ff 75 14	 push	 DWORD PTR _environment$[ebp]
  0002c	ff 75 10	 push	 DWORD PTR _point2$[ebp]
  0002f	ff 75 0c	 push	 DWORD PTR _point1$[ebp]
  00032	e8 00 00 00 00	 call	 ??0CTwoPointElement@@QAE@ABVCCoordinate@@0ABVCElementCommonEnvironment@@@Z ; CTwoPointElement::CTwoPointElement

; 289  : 	m_textPosition(position)

  00037	ff 75 08	 push	 DWORD PTR _position$[ebp]
  0003a	8d 8e 90 00 00
	00		 lea	 ecx, DWORD PTR [esi+144]
  00040	c7 45 fc 00 00
	00 00		 mov	 DWORD PTR __$EHRec$[ebp+8], 0

; 290  : {

  00047	c7 06 00 00 00
	00		 mov	 DWORD PTR [esi], OFFSET ??_7CEqualDivisionLine@@6B@
  0004d	e8 00 00 00 00	 call	 ??0CTextHorzPosition@@QAE@ABV0@@Z ; CTextHorzPosition::CTextHorzPosition

; 355  : {

  00052	c7 06 00 00 00
	00		 mov	 DWORD PTR [esi], OFFSET ??_7CTrisectionLine@@6B@
  00058	8d 8e a8 00 00
	00		 lea	 ecx, DWORD PTR [esi+168]
  0005e	c7 45 fc 01 00
	00 00		 mov	 DWORD PTR __$EHRec$[ebp+8], 1
  00065	c7 86 a4 00 00
	00 00 00 00 00	 mov	 DWORD PTR [esi+164], OFFSET ??_8CTrisectionLineDrawer@@7B@
  0006f	e8 00 00 00 00	 call	 ??0CDrawer@@QAE@XZ	; CDrawer::CDrawer
  00074	c7 86 a0 00 00
	00 00 00 00 00	 mov	 DWORD PTR [esi+160], OFFSET ??_7CTrisectionLineDrawer@@6B@

; 356  : }

  0007e	8b c6		 mov	 eax, esi
  00080	8b 4d f4	 mov	 ecx, DWORD PTR __$EHRec$[ebp]
  00083	64 89 0d 00 00
	00 00		 mov	 DWORD PTR fs:0, ecx
  0008a	59		 pop	 ecx
  0008b	5e		 pop	 esi
  0008c	8b e5		 mov	 esp, ebp
  0008e	5d		 pop	 ebp
  0008f	c2 10 00	 ret	 16			; 00000010H
_TEXT	ENDS
;	COMDAT text$x
text$x	SEGMENT
__unwindfunclet$??0CTrisectionLine@@QAE@ABVCTextHorzPosition@@ABVCCoordinate@@1ABVCElementCommonEnvironment@@@Z$1:
  00000	8b 4d f0	 mov	 ecx, DWORD PTR _this$[ebp]
  00003	e9 00 00 00 00	 jmp	 ??1CTwoPointElement@@UAE@XZ
  00008	cc		 int	 3
  00009	cc		 int	 3
  0000a	cc		 int	 3
  0000b	cc		 int	 3
  0000c	cc		 int	 3
__ehhandler$??0CTrisectionLine@@QAE@ABVCTextHorzPosition@@ABVCCoordinate@@1ABVCElementCommonEnvironment@@@Z:
  0000d	90		 npad	 1
  0000e	90		 npad	 1
  0000f	8b 54 24 08	 mov	 edx, DWORD PTR [esp+8]
  00013	8d 42 0c	 lea	 eax, DWORD PTR [edx+12]
  00016	8b 4a f4	 mov	 ecx, DWORD PTR [edx-12]
  00019	33 c8		 xor	 ecx, eax
  0001b	e8 00 00 00 00	 call	 @__security_check_cookie@4
  00020	b8 00 00 00 00	 mov	 eax, OFFSET __ehfuncinfo$??0CTrisectionLine@@QAE@ABVCTextHorzPosition@@ABVCCoordinate@@1ABVCElementCommonEnvironment@@@Z
  00025	e9 00 00 00 00	 jmp	 ___CxxFrameHandler3
text$x	ENDS
??0CTrisectionLine@@QAE@ABVCTextHorzPosition@@ABVCCoordinate@@1ABVCElementCommonEnvironment@@@Z ENDP ; CTrisectionLine::CTrisectionLine
; Function compile flags: /Ogtp
; File D:\git\src\IBK\IBK_DRFN\ProjSrc\SrcChartEx\ChartAddIn\ChartAnalysisToolAddIn\AnalysisTool\Element.h
;	COMDAT ??_GCEqualDivisionLine@@UAEPAXI@Z
_TEXT	SEGMENT
___flags$ = 8						; size = 4
??_GCEqualDivisionLine@@UAEPAXI@Z PROC			; CEqualDivisionLine::`scalar deleting destructor', COMDAT
; _this$ = ecx
  00000	55		 push	 ebp
  00001	8b ec		 mov	 ebp, esp

; 31   : 	virtual ~CElement()	{}

  00003	56		 push	 esi
  00004	8b f1		 mov	 esi, ecx
  00006	8d 8e 84 00 00
	00		 lea	 ecx, DWORD PTR [esi+132]
  0000c	ff 15 00 00 00
	00		 call	 DWORD PTR __imp_??1?$CStringT@DV?$StrTraitMFC_DLL@DV?$ChTraitsCRT@D@ATL@@@@@ATL@@QAE@XZ
  00012	8d 4e 64	 lea	 ecx, DWORD PTR [esi+100]
  00015	ff 15 00 00 00
	00		 call	 DWORD PTR __imp_??1?$CStringT@DV?$StrTraitMFC_DLL@DV?$ChTraitsCRT@D@ATL@@@@@ATL@@QAE@XZ
  0001b	8d 4e 40	 lea	 ecx, DWORD PTR [esi+64]
  0001e	c7 06 00 00 00
	00		 mov	 DWORD PTR [esi], OFFSET ??_7CElement@@6B@
  00024	ff 15 00 00 00
	00		 call	 DWORD PTR __imp_??1?$CStringT@DV?$StrTraitMFC_DLL@DV?$ChTraitsCRT@D@ATL@@@@@ATL@@QAE@XZ
  0002a	8d 4e 3c	 lea	 ecx, DWORD PTR [esi+60]
  0002d	ff 15 00 00 00
	00		 call	 DWORD PTR __imp_??1?$CStringT@DV?$StrTraitMFC_DLL@DV?$ChTraitsCRT@D@ATL@@@@@ATL@@QAE@XZ
  00033	8d 4e 38	 lea	 ecx, DWORD PTR [esi+56]
  00036	ff 15 00 00 00
	00		 call	 DWORD PTR __imp_??1?$CStringT@DV?$StrTraitMFC_DLL@DV?$ChTraitsCRT@D@ATL@@@@@ATL@@QAE@XZ
  0003c	f6 45 08 01	 test	 BYTE PTR ___flags$[ebp], 1
  00040	74 0e		 je	 SHORT $LN25@scalar
  00042	68 a0 00 00 00	 push	 160			; 000000a0H
  00047	56		 push	 esi
  00048	e8 00 00 00 00	 call	 ??3@YAXPAXI@Z		; operator delete
  0004d	83 c4 08	 add	 esp, 8
$LN25@scalar:
  00050	8b c6		 mov	 eax, esi
  00052	5e		 pop	 esi
  00053	5d		 pop	 ebp
  00054	c2 04 00	 ret	 4
??_GCEqualDivisionLine@@UAEPAXI@Z ENDP			; CEqualDivisionLine::`scalar deleting destructor'
_TEXT	ENDS
; Function compile flags: /Ogtp
; File D:\git\src\IBK\IBK_DRFN\ProjSrc\SrcChartEx\ChartAddIn\ChartAnalysisToolAddIn\AnalysisTool\Line.cpp
; File C:\Program Files (x86)\Microsoft Visual Studio\2019\Community\VC\Tools\MSVC\14.29.30133\atlmfc\include\atltypes.h
; File D:\git\src\IBK\IBK_DRFN\ProjSrc\SrcChartEx\ChartAddIn\ChartAnalysisToolAddIn\AnalysisTool\Line.cpp
; File C:\Program Files (x86)\Microsoft Visual Studio\2019\Community\VC\Tools\MSVC\14.29.30133\atlmfc\include\atltypes.h
; File D:\git\src\IBK\IBK_DRFN\ProjSrc\SrcChartEx\ChartAddIn\ChartAnalysisToolAddIn\AnalysisTool\Line.cpp
; File C:\Program Files (x86)\Microsoft Visual Studio\2019\Community\VC\Tools\MSVC\14.29.30133\atlmfc\include\atltypes.h
; File D:\git\src\IBK\IBK_DRFN\ProjSrc\SrcChartEx\ChartAddIn\ChartAnalysisToolAddIn\AnalysisTool\Line.cpp
;	COMDAT ?GetModifyTypeLine@CEqualDivisionLine@@ABE?AW4ModifyType@CToolEnumData@@ABVCRect@@ABVCPoint@@11@Z
_TEXT	SEGMENT
$T2 = -112						; size = 72
$T3 = -112						; size = 72
$T4 = -112						; size = 72
$T5 = -40						; size = 8
$T6 = -32						; size = 8
_ptStart$2$ = -24					; size = 4
_ptEnd$2$ = -20						; size = 4
_ptStart$1$ = -16					; size = 4
__$EHRec$ = -12						; size = 12
_nCount$1$ = 8						; size = 4
_region$ = 8						; size = 4
_ptEnd$1$ = 12						; size = 4
_drawingStartPt$ = 12					; size = 4
_bEquiDivType$1$ = 16					; size = 4
_bRightExt$1$ = 16					; size = 4
_drawingEndPt$ = 16					; size = 4
_point$ = 20						; size = 4
?GetModifyTypeLine@CEqualDivisionLine@@ABE?AW4ModifyType@CToolEnumData@@ABVCRect@@ABVCPoint@@11@Z PROC ; CEqualDivisionLine::GetModifyTypeLine, COMDAT
; _this$ = ecx

; 317  : {

  00000	55		 push	 ebp
  00001	8b ec		 mov	 ebp, esp
  00003	6a ff		 push	 -1
  00005	68 00 00 00 00	 push	 __ehhandler$?GetModifyTypeLine@CEqualDivisionLine@@ABE?AW4ModifyType@CToolEnumData@@ABVCRect@@ABVCPoint@@11@Z
  0000a	64 a1 00 00 00
	00		 mov	 eax, DWORD PTR fs:0
  00010	50		 push	 eax
  00011	83 ec 64	 sub	 esp, 100		; 00000064H
  00014	53		 push	 ebx
  00015	56		 push	 esi
  00016	57		 push	 edi
  00017	a1 00 00 00 00	 mov	 eax, DWORD PTR ___security_cookie
  0001c	33 c5		 xor	 eax, ebp
  0001e	50		 push	 eax
  0001f	8d 45 f4	 lea	 eax, DWORD PTR __$EHRec$[ebp]
  00022	64 a3 00 00 00
	00		 mov	 DWORD PTR fs:0, eax
  00028	8b f9		 mov	 edi, ecx

; 318  : 	const CEqualDivisionLineDrawer* pDrawer = GetEqualDivisionLineDrawer();

  0002a	8b 07		 mov	 eax, DWORD PTR [edi]
  0002c	ff 50 4c	 call	 DWORD PTR [eax+76]
  0002f	8b d8		 mov	 ebx, eax

; 319  : 	if(pDrawer == NULL)

  00031	85 db		 test	 ebx, ebx
  00033	0f 84 46 01 00
	00		 je	 $LN3@GetModifyT

; 320  : 		return CToolEnumData::MODIFY_NONE;
; 321  : 
; 322  : 	CPoint ptStart(drawingStartPt);

  00039	8b 4d 0c	 mov	 ecx, DWORD PTR _drawingStartPt$[ebp]
  0003c	8b 01		 mov	 eax, DWORD PTR [ecx]
  0003e	89 45 f0	 mov	 DWORD PTR _ptStart$1$[ebp], eax
  00041	8b 41 04	 mov	 eax, DWORD PTR [ecx+4]

; 323  : 	CPoint ptEnd(drawingEndPt);

  00044	8b 4d 10	 mov	 ecx, DWORD PTR _drawingEndPt$[ebp]
  00047	89 45 e8	 mov	 DWORD PTR _ptStart$2$[ebp], eax
  0004a	8b 01		 mov	 eax, DWORD PTR [ecx]
  0004c	89 45 0c	 mov	 DWORD PTR _ptEnd$1$[ebp], eax
  0004f	8b 41 04	 mov	 eax, DWORD PTR [ecx+4]

; 324  : 	BOOL bLeftExt = GetCommonEnvironment().IsLeftLineExt();

  00052	8b cf		 mov	 ecx, edi
  00054	89 45 ec	 mov	 DWORD PTR _ptEnd$2$[ebp], eax
  00057	8d 45 90	 lea	 eax, DWORD PTR $T4[ebp]
  0005a	50		 push	 eax
  0005b	e8 00 00 00 00	 call	 ?GetCommonEnvironment@CElement@@QBE?AVCElementCommonEnvironment@@XZ ; CElement::GetCommonEnvironment
  00060	8b c8		 mov	 ecx, eax
  00062	c7 45 fc 00 00
	00 00		 mov	 DWORD PTR __$EHRec$[ebp+8], 0
  00069	e8 00 00 00 00	 call	 ?IsLeftLineExt@CElementCommonEnvironment@@QBEHXZ ; CElementCommonEnvironment::IsLeftLineExt
  0006e	8d 4d c8	 lea	 ecx, DWORD PTR $T4[ebp+56]
  00071	c7 45 fc ff ff
	ff ff		 mov	 DWORD PTR __$EHRec$[ebp+8], -1
  00078	8b f0		 mov	 esi, eax
  0007a	ff 15 00 00 00
	00		 call	 DWORD PTR __imp_??1?$CStringT@DV?$StrTraitMFC_DLL@DV?$ChTraitsCRT@D@ATL@@@@@ATL@@QAE@XZ
  00080	8d 4d c4	 lea	 ecx, DWORD PTR $T4[ebp+52]
  00083	ff 15 00 00 00
	00		 call	 DWORD PTR __imp_??1?$CStringT@DV?$StrTraitMFC_DLL@DV?$ChTraitsCRT@D@ATL@@@@@ATL@@QAE@XZ
  00089	8d 4d c0	 lea	 ecx, DWORD PTR $T4[ebp+48]
  0008c	ff 15 00 00 00
	00		 call	 DWORD PTR __imp_??1?$CStringT@DV?$StrTraitMFC_DLL@DV?$ChTraitsCRT@D@ATL@@@@@ATL@@QAE@XZ

; 325  : 	BOOL bRightExt = GetCommonEnvironment().IsRightLineExt();

  00092	8d 45 90	 lea	 eax, DWORD PTR $T3[ebp]
  00095	8b cf		 mov	 ecx, edi
  00097	50		 push	 eax
  00098	e8 00 00 00 00	 call	 ?GetCommonEnvironment@CElement@@QBE?AVCElementCommonEnvironment@@XZ ; CElement::GetCommonEnvironment
  0009d	8b c8		 mov	 ecx, eax
  0009f	c7 45 fc 01 00
	00 00		 mov	 DWORD PTR __$EHRec$[ebp+8], 1
  000a6	e8 00 00 00 00	 call	 ?IsRightLineExt@CElementCommonEnvironment@@QBEHXZ ; CElementCommonEnvironment::IsRightLineExt
  000ab	8d 4d c8	 lea	 ecx, DWORD PTR $T3[ebp+56]
  000ae	89 45 10	 mov	 DWORD PTR _bRightExt$1$[ebp], eax
  000b1	c7 45 fc ff ff
	ff ff		 mov	 DWORD PTR __$EHRec$[ebp+8], -1
  000b8	ff 15 00 00 00
	00		 call	 DWORD PTR __imp_??1?$CStringT@DV?$StrTraitMFC_DLL@DV?$ChTraitsCRT@D@ATL@@@@@ATL@@QAE@XZ
  000be	8d 4d c4	 lea	 ecx, DWORD PTR $T3[ebp+52]
  000c1	ff 15 00 00 00
	00		 call	 DWORD PTR __imp_??1?$CStringT@DV?$StrTraitMFC_DLL@DV?$ChTraitsCRT@D@ATL@@@@@ATL@@QAE@XZ
  000c7	8d 4d c0	 lea	 ecx, DWORD PTR $T3[ebp+48]
  000ca	ff 15 00 00 00
	00		 call	 DWORD PTR __imp_??1?$CStringT@DV?$StrTraitMFC_DLL@DV?$ChTraitsCRT@D@ATL@@@@@ATL@@QAE@XZ

; 326  : 	if(bLeftExt == TRUE)

  000d0	8b 4d 08	 mov	 ecx, DWORD PTR _region$[ebp]
  000d3	83 fe 01	 cmp	 esi, 1
  000d6	75 05		 jne	 SHORT $LN6@GetModifyT

; 327  : 	{
; 328  : 		ptStart.x = region.left;

  000d8	8b 01		 mov	 eax, DWORD PTR [ecx]
  000da	89 45 f0	 mov	 DWORD PTR _ptStart$1$[ebp], eax
$LN6@GetModifyT:

; 329  : 	}
; 330  : 
; 331  : 	if(bRightExt == TRUE)

  000dd	83 7d 10 01	 cmp	 DWORD PTR _bRightExt$1$[ebp], 1
  000e1	75 06		 jne	 SHORT $LN7@GetModifyT

; 332  : 	{
; 333  : 		ptEnd.x = region.right;

  000e3	8b 41 08	 mov	 eax, DWORD PTR [ecx+8]
  000e6	89 45 0c	 mov	 DWORD PTR _ptEnd$1$[ebp], eax
$LN7@GetModifyT:

; 334  : 	}
; 335  : 
; 336  : 	BOOL bEquiDivType = (BOOL)GetCommonEnvironment().GetEquiDiv();

  000e9	8d 45 90	 lea	 eax, DWORD PTR $T2[ebp]
  000ec	8b cf		 mov	 ecx, edi
  000ee	50		 push	 eax
  000ef	e8 00 00 00 00	 call	 ?GetCommonEnvironment@CElement@@QBE?AVCElementCommonEnvironment@@XZ ; CElement::GetCommonEnvironment
  000f4	8b c8		 mov	 ecx, eax
  000f6	c7 45 fc 02 00
	00 00		 mov	 DWORD PTR __$EHRec$[ebp+8], 2
  000fd	e8 00 00 00 00	 call	 ?GetEquiDiv@CElementCommonEnvironment@@QAEAAHXZ ; CElementCommonEnvironment::GetEquiDiv
  00102	8d 4d c8	 lea	 ecx, DWORD PTR $T2[ebp+56]
  00105	c7 45 fc ff ff
	ff ff		 mov	 DWORD PTR __$EHRec$[ebp+8], -1
  0010c	8b 30		 mov	 esi, DWORD PTR [eax]
  0010e	89 75 10	 mov	 DWORD PTR _bEquiDivType$1$[ebp], esi
  00111	ff 15 00 00 00
	00		 call	 DWORD PTR __imp_??1?$CStringT@DV?$StrTraitMFC_DLL@DV?$ChTraitsCRT@D@ATL@@@@@ATL@@QAE@XZ
  00117	8d 4d c4	 lea	 ecx, DWORD PTR $T2[ebp+52]
  0011a	ff 15 00 00 00
	00		 call	 DWORD PTR __imp_??1?$CStringT@DV?$StrTraitMFC_DLL@DV?$ChTraitsCRT@D@ATL@@@@@ATL@@QAE@XZ
  00120	8d 4d c0	 lea	 ecx, DWORD PTR $T2[ebp+48]
  00123	ff 15 00 00 00
	00		 call	 DWORD PTR __imp_??1?$CStringT@DV?$StrTraitMFC_DLL@DV?$ChTraitsCRT@D@ATL@@@@@ATL@@QAE@XZ

; 337  : 	
; 338  : 	int nCount = pDrawer->GetCount(bEquiDivType);

  00129	8b 03		 mov	 eax, DWORD PTR [ebx]
  0012b	8b cb		 mov	 ecx, ebx
  0012d	56		 push	 esi
  0012e	ff 50 10	 call	 DWORD PTR [eax+16]

; 339  : 	for(int nIndex = 0; nIndex < nCount; nIndex++)

  00131	33 f6		 xor	 esi, esi
  00133	89 45 08	 mov	 DWORD PTR _nCount$1$[ebp], eax
  00136	85 c0		 test	 eax, eax
  00138	7e 45		 jle	 SHORT $LN3@GetModifyT
  0013a	66 0f 1f 44 00
	00		 npad	 6
$LL4@GetModifyT:

; 340  : 	{
; 341  : 		int y = pDrawer->GetPoint_Y(ptStart.y, ptEnd.y, nIndex,bEquiDivType);

  00140	ff 75 10	 push	 DWORD PTR _bEquiDivType$1$[ebp]
  00143	8b cb		 mov	 ecx, ebx
  00145	56		 push	 esi
  00146	ff 75 ec	 push	 DWORD PTR _ptEnd$2$[ebp]
  00149	ff 75 e8	 push	 DWORD PTR _ptStart$2$[ebp]
  0014c	e8 00 00 00 00	 call	 ?GetPoint_Y@CEqualDivisionLineDrawer@@QBEHHHHH@Z ; CEqualDivisionLineDrawer::GetPoint_Y

; 342  : 		CToolEnumData::ModifyType modifyType = CTwoPointElement::GetModifyType_Line(CPoint(ptStart.x, y), CPoint(ptEnd.x, y), point);

  00151	ff 75 14	 push	 DWORD PTR _point$[ebp]
; File C:\Program Files (x86)\Microsoft Visual Studio\2019\Community\VC\Tools\MSVC\14.29.30133\atlmfc\include\atltypes.h

; 408  : 	x = initX;

  00154	8b 4d 0c	 mov	 ecx, DWORD PTR _ptEnd$1$[ebp]

; 409  : 	y = initY;

  00157	89 45 e4	 mov	 DWORD PTR $T6[ebp+4], eax
  0015a	89 45 dc	 mov	 DWORD PTR $T5[ebp+4], eax
; File D:\git\src\IBK\IBK_DRFN\ProjSrc\SrcChartEx\ChartAddIn\ChartAnalysisToolAddIn\AnalysisTool\Line.cpp

; 342  : 		CToolEnumData::ModifyType modifyType = CTwoPointElement::GetModifyType_Line(CPoint(ptStart.x, y), CPoint(ptEnd.x, y), point);

  0015d	8d 45 e0	 lea	 eax, DWORD PTR $T6[ebp]
; File C:\Program Files (x86)\Microsoft Visual Studio\2019\Community\VC\Tools\MSVC\14.29.30133\atlmfc\include\atltypes.h

; 408  : 	x = initX;

  00160	89 4d e0	 mov	 DWORD PTR $T6[ebp], ecx
  00163	8b 4d f0	 mov	 ecx, DWORD PTR _ptStart$1$[ebp]
; File D:\git\src\IBK\IBK_DRFN\ProjSrc\SrcChartEx\ChartAddIn\ChartAnalysisToolAddIn\AnalysisTool\Line.cpp

; 342  : 		CToolEnumData::ModifyType modifyType = CTwoPointElement::GetModifyType_Line(CPoint(ptStart.x, y), CPoint(ptEnd.x, y), point);

  00166	50		 push	 eax
  00167	8d 45 d8	 lea	 eax, DWORD PTR $T5[ebp]
; File C:\Program Files (x86)\Microsoft Visual Studio\2019\Community\VC\Tools\MSVC\14.29.30133\atlmfc\include\atltypes.h

; 408  : 	x = initX;

  0016a	89 4d d8	 mov	 DWORD PTR $T5[ebp], ecx
; File D:\git\src\IBK\IBK_DRFN\ProjSrc\SrcChartEx\ChartAddIn\ChartAnalysisToolAddIn\AnalysisTool\Line.cpp

; 342  : 		CToolEnumData::ModifyType modifyType = CTwoPointElement::GetModifyType_Line(CPoint(ptStart.x, y), CPoint(ptEnd.x, y), point);

  0016d	50		 push	 eax
  0016e	8b cf		 mov	 ecx, edi
  00170	e8 00 00 00 00	 call	 ?GetModifyType_Line@CTwoPointElement@@IBE?AW4ModifyType@CToolEnumData@@ABVCPoint@@00@Z ; CTwoPointElement::GetModifyType_Line

; 343  : 		if(modifyType != CToolEnumData::MODIFY_NONE)

  00175	85 c0		 test	 eax, eax
  00177	75 08		 jne	 SHORT $LN1@GetModifyT

; 339  : 	for(int nIndex = 0; nIndex < nCount; nIndex++)

  00179	46		 inc	 esi
  0017a	3b 75 08	 cmp	 esi, DWORD PTR _nCount$1$[ebp]
  0017d	7c c1		 jl	 SHORT $LL4@GetModifyT
$LN3@GetModifyT:

; 344  : 			return modifyType;
; 345  : 	}
; 346  : 
; 347  : 	return CToolEnumData::MODIFY_NONE;

  0017f	33 c0		 xor	 eax, eax
$LN1@GetModifyT:

; 348  : }

  00181	8b 4d f4	 mov	 ecx, DWORD PTR __$EHRec$[ebp]
  00184	64 89 0d 00 00
	00 00		 mov	 DWORD PTR fs:0, ecx
  0018b	59		 pop	 ecx
  0018c	5f		 pop	 edi
  0018d	5e		 pop	 esi
  0018e	5b		 pop	 ebx
  0018f	8b e5		 mov	 esp, ebp
  00191	5d		 pop	 ebp
  00192	c2 10 00	 ret	 16			; 00000010H
_TEXT	ENDS
;	COMDAT text$x
text$x	SEGMENT
__unwindfunclet$?GetModifyTypeLine@CEqualDivisionLine@@ABE?AW4ModifyType@CToolEnumData@@ABVCRect@@ABVCPoint@@11@Z$0:
  00000	8d 4d 90	 lea	 ecx, DWORD PTR $T4[ebp]
  00003	e9 00 00 00 00	 jmp	 ??1CElementCommonEnvironment@@QAE@XZ
__unwindfunclet$?GetModifyTypeLine@CEqualDivisionLine@@ABE?AW4ModifyType@CToolEnumData@@ABVCRect@@ABVCPoint@@11@Z$1:
  00008	8d 4d 90	 lea	 ecx, DWORD PTR $T3[ebp]
  0000b	e9 00 00 00 00	 jmp	 ??1CElementCommonEnvironment@@QAE@XZ
__unwindfunclet$?GetModifyTypeLine@CEqualDivisionLine@@ABE?AW4ModifyType@CToolEnumData@@ABVCRect@@ABVCPoint@@11@Z$2:
  00010	8d 4d 90	 lea	 ecx, DWORD PTR $T2[ebp]
  00013	e9 00 00 00 00	 jmp	 ??1CElementCommonEnvironment@@QAE@XZ
  00018	cc		 int	 3
  00019	cc		 int	 3
  0001a	cc		 int	 3
  0001b	cc		 int	 3
  0001c	cc		 int	 3
__ehhandler$?GetModifyTypeLine@CEqualDivisionLine@@ABE?AW4ModifyType@CToolEnumData@@ABVCRect@@ABVCPoint@@11@Z:
  0001d	90		 npad	 1
  0001e	90		 npad	 1
  0001f	8b 54 24 08	 mov	 edx, DWORD PTR [esp+8]
  00023	8d 42 0c	 lea	 eax, DWORD PTR [edx+12]
  00026	8b 4a 8c	 mov	 ecx, DWORD PTR [edx-116]
  00029	33 c8		 xor	 ecx, eax
  0002b	e8 00 00 00 00	 call	 @__security_check_cookie@4
  00030	b8 00 00 00 00	 mov	 eax, OFFSET __ehfuncinfo$?GetModifyTypeLine@CEqualDivisionLine@@ABE?AW4ModifyType@CToolEnumData@@ABVCRect@@ABVCPoint@@11@Z
  00035	e9 00 00 00 00	 jmp	 ___CxxFrameHandler3
text$x	ENDS
?GetModifyTypeLine@CEqualDivisionLine@@ABE?AW4ModifyType@CToolEnumData@@ABVCRect@@ABVCPoint@@11@Z ENDP ; CEqualDivisionLine::GetModifyTypeLine
; Function compile flags: /Ogtp
; File D:\git\src\IBK\IBK_DRFN\ProjSrc\SrcChartEx\ChartAddIn\ChartAnalysisToolAddIn\AnalysisTool\Line.cpp
; File C:\Program Files (x86)\Microsoft Visual Studio\2019\Community\VC\Tools\MSVC\14.29.30133\atlmfc\include\atltypes.h
; File D:\git\src\IBK\IBK_DRFN\ProjSrc\SrcChartEx\ChartAddIn\ChartAnalysisToolAddIn\AnalysisTool\Line.cpp
; File C:\Program Files (x86)\Microsoft Visual Studio\2019\Community\VC\Tools\MSVC\14.29.30133\atlmfc\include\atltypes.h
; File D:\git\src\IBK\IBK_DRFN\ProjSrc\SrcChartEx\ChartAddIn\ChartAnalysisToolAddIn\AnalysisTool\Line.cpp
; File C:\Program Files (x86)\Microsoft Visual Studio\2019\Community\VC\Tools\MSVC\14.29.30133\atlmfc\include\atltypes.h
; File D:\git\src\IBK\IBK_DRFN\ProjSrc\SrcChartEx\ChartAddIn\ChartAnalysisToolAddIn\AnalysisTool\Line.cpp
;	COMDAT ?GetModifyType@CEqualDivisionLine@@MBE?AW4ModifyType@CToolEnumData@@ABVCRect@@ABVCPoint@@11@Z
_TEXT	SEGMENT
$T2 = -256						; size = 72
$T3 = -184						; size = 72
$T4 = -112						; size = 72
$T5 = -40						; size = 8
$T6 = -32						; size = 8
_ptStart$2$ = -24					; size = 4
_ptEnd$2$ = -20						; size = 4
_nCount$1$ = -16					; size = 4
_bRightExt$1$ = -16					; size = 4
__$EHRec$ = -12						; size = 12
_bEquiDivType$1$ = 8					; size = 4
_region$ = 8						; size = 4
_ptEnd$1$ = 12						; size = 4
_drawingStartPt$ = 12					; size = 4
_ptStart$1$ = 16					; size = 4
_drawingEndPt$ = 16					; size = 4
_point$ = 20						; size = 4
?GetModifyType@CEqualDivisionLine@@MBE?AW4ModifyType@CToolEnumData@@ABVCRect@@ABVCPoint@@11@Z PROC ; CEqualDivisionLine::GetModifyType, COMDAT
; _this$ = ecx

; 306  : {

  00000	55		 push	 ebp
  00001	8b ec		 mov	 ebp, esp
  00003	6a ff		 push	 -1
  00005	68 00 00 00 00	 push	 __ehhandler$?GetModifyType@CEqualDivisionLine@@MBE?AW4ModifyType@CToolEnumData@@ABVCRect@@ABVCPoint@@11@Z
  0000a	64 a1 00 00 00
	00		 mov	 eax, DWORD PTR fs:0
  00010	50		 push	 eax
  00011	81 ec f4 00 00
	00		 sub	 esp, 244		; 000000f4H
  00017	53		 push	 ebx
  00018	56		 push	 esi
  00019	57		 push	 edi
  0001a	a1 00 00 00 00	 mov	 eax, DWORD PTR ___security_cookie
  0001f	33 c5		 xor	 eax, ebp
  00021	50		 push	 eax
  00022	8d 45 f4	 lea	 eax, DWORD PTR __$EHRec$[ebp]
  00025	64 a3 00 00 00
	00		 mov	 DWORD PTR fs:0, eax
  0002b	8b f9		 mov	 edi, ecx

; 307  : 	CToolEnumData::ModifyType eModifyType = CTwoPointElement::GetModifyType(region, drawingStartPt, drawingEndPt, point);

  0002d	ff 75 14	 push	 DWORD PTR _point$[ebp]
  00030	8b 75 10	 mov	 esi, DWORD PTR _drawingEndPt$[ebp]
  00033	56		 push	 esi
  00034	ff 75 0c	 push	 DWORD PTR _drawingStartPt$[ebp]
  00037	ff 75 08	 push	 DWORD PTR _region$[ebp]
  0003a	e8 00 00 00 00	 call	 ?GetModifyType@CTwoPointElement@@MBE?AW4ModifyType@CToolEnumData@@ABVCRect@@ABVCPoint@@11@Z ; CTwoPointElement::GetModifyType

; 308  : 	if(eModifyType != CToolEnumData::MODIFY_NONE)

  0003f	85 c0		 test	 eax, eax
  00041	0f 85 6a 01 00
	00		 jne	 $LN1@GetModifyT

; 318  : 	const CEqualDivisionLineDrawer* pDrawer = GetEqualDivisionLineDrawer();

  00047	8b 07		 mov	 eax, DWORD PTR [edi]
  00049	8b cf		 mov	 ecx, edi
  0004b	ff 50 4c	 call	 DWORD PTR [eax+76]
  0004e	8b d8		 mov	 ebx, eax

; 319  : 	if(pDrawer == NULL)

  00050	85 db		 test	 ebx, ebx
  00052	0f 84 57 01 00
	00		 je	 $LN6@GetModifyT

; 320  : 		return CToolEnumData::MODIFY_NONE;
; 321  : 
; 322  : 	CPoint ptStart(drawingStartPt);

  00058	8b 4d 0c	 mov	 ecx, DWORD PTR _drawingStartPt$[ebp]
  0005b	8b 01		 mov	 eax, DWORD PTR [ecx]
  0005d	89 45 10	 mov	 DWORD PTR _ptStart$1$[ebp], eax
  00060	8b 41 04	 mov	 eax, DWORD PTR [ecx+4]

; 323  : 	CPoint ptEnd(drawingEndPt);
; 324  : 	BOOL bLeftExt = GetCommonEnvironment().IsLeftLineExt();

  00063	8b cf		 mov	 ecx, edi
  00065	89 45 e8	 mov	 DWORD PTR _ptStart$2$[ebp], eax
  00068	8b 06		 mov	 eax, DWORD PTR [esi]
  0006a	89 45 0c	 mov	 DWORD PTR _ptEnd$1$[ebp], eax
  0006d	8b 46 04	 mov	 eax, DWORD PTR [esi+4]
  00070	89 45 ec	 mov	 DWORD PTR _ptEnd$2$[ebp], eax
  00073	8d 45 90	 lea	 eax, DWORD PTR $T4[ebp]
  00076	50		 push	 eax
  00077	e8 00 00 00 00	 call	 ?GetCommonEnvironment@CElement@@QBE?AVCElementCommonEnvironment@@XZ ; CElement::GetCommonEnvironment
  0007c	8b c8		 mov	 ecx, eax
  0007e	c7 45 fc 00 00
	00 00		 mov	 DWORD PTR __$EHRec$[ebp+8], 0
  00085	e8 00 00 00 00	 call	 ?IsLeftLineExt@CElementCommonEnvironment@@QBEHXZ ; CElementCommonEnvironment::IsLeftLineExt
  0008a	8d 4d c8	 lea	 ecx, DWORD PTR $T4[ebp+56]
  0008d	c7 45 fc ff ff
	ff ff		 mov	 DWORD PTR __$EHRec$[ebp+8], -1
  00094	8b f0		 mov	 esi, eax
  00096	ff 15 00 00 00
	00		 call	 DWORD PTR __imp_??1?$CStringT@DV?$StrTraitMFC_DLL@DV?$ChTraitsCRT@D@ATL@@@@@ATL@@QAE@XZ
  0009c	8d 4d c4	 lea	 ecx, DWORD PTR $T4[ebp+52]
  0009f	ff 15 00 00 00
	00		 call	 DWORD PTR __imp_??1?$CStringT@DV?$StrTraitMFC_DLL@DV?$ChTraitsCRT@D@ATL@@@@@ATL@@QAE@XZ
  000a5	8d 4d c0	 lea	 ecx, DWORD PTR $T4[ebp+48]
  000a8	ff 15 00 00 00
	00		 call	 DWORD PTR __imp_??1?$CStringT@DV?$StrTraitMFC_DLL@DV?$ChTraitsCRT@D@ATL@@@@@ATL@@QAE@XZ

; 325  : 	BOOL bRightExt = GetCommonEnvironment().IsRightLineExt();

  000ae	8d 85 48 ff ff
	ff		 lea	 eax, DWORD PTR $T3[ebp]
  000b4	8b cf		 mov	 ecx, edi
  000b6	50		 push	 eax
  000b7	e8 00 00 00 00	 call	 ?GetCommonEnvironment@CElement@@QBE?AVCElementCommonEnvironment@@XZ ; CElement::GetCommonEnvironment
  000bc	8b c8		 mov	 ecx, eax
  000be	c7 45 fc 01 00
	00 00		 mov	 DWORD PTR __$EHRec$[ebp+8], 1
  000c5	e8 00 00 00 00	 call	 ?IsRightLineExt@CElementCommonEnvironment@@QBEHXZ ; CElementCommonEnvironment::IsRightLineExt
  000ca	8d 4d 80	 lea	 ecx, DWORD PTR $T3[ebp+56]
  000cd	89 45 f0	 mov	 DWORD PTR _bRightExt$1$[ebp], eax
  000d0	c7 45 fc ff ff
	ff ff		 mov	 DWORD PTR __$EHRec$[ebp+8], -1
  000d7	ff 15 00 00 00
	00		 call	 DWORD PTR __imp_??1?$CStringT@DV?$StrTraitMFC_DLL@DV?$ChTraitsCRT@D@ATL@@@@@ATL@@QAE@XZ
  000dd	8d 8d 7c ff ff
	ff		 lea	 ecx, DWORD PTR $T3[ebp+52]
  000e3	ff 15 00 00 00
	00		 call	 DWORD PTR __imp_??1?$CStringT@DV?$StrTraitMFC_DLL@DV?$ChTraitsCRT@D@ATL@@@@@ATL@@QAE@XZ
  000e9	8d 8d 78 ff ff
	ff		 lea	 ecx, DWORD PTR $T3[ebp+48]
  000ef	ff 15 00 00 00
	00		 call	 DWORD PTR __imp_??1?$CStringT@DV?$StrTraitMFC_DLL@DV?$ChTraitsCRT@D@ATL@@@@@ATL@@QAE@XZ

; 326  : 	if(bLeftExt == TRUE)

  000f5	8b 45 08	 mov	 eax, DWORD PTR _region$[ebp]
  000f8	83 fe 01	 cmp	 esi, 1
  000fb	75 05		 jne	 SHORT $LN9@GetModifyT

; 327  : 	{
; 328  : 		ptStart.x = region.left;

  000fd	8b 08		 mov	 ecx, DWORD PTR [eax]
  000ff	89 4d 10	 mov	 DWORD PTR _ptStart$1$[ebp], ecx
$LN9@GetModifyT:

; 329  : 	}
; 330  : 
; 331  : 	if(bRightExt == TRUE)

  00102	83 7d f0 01	 cmp	 DWORD PTR _bRightExt$1$[ebp], 1
  00106	75 06		 jne	 SHORT $LN10@GetModifyT

; 332  : 	{
; 333  : 		ptEnd.x = region.right;

  00108	8b 40 08	 mov	 eax, DWORD PTR [eax+8]
  0010b	89 45 0c	 mov	 DWORD PTR _ptEnd$1$[ebp], eax
$LN10@GetModifyT:

; 334  : 	}
; 335  : 
; 336  : 	BOOL bEquiDivType = (BOOL)GetCommonEnvironment().GetEquiDiv();

  0010e	8d 85 00 ff ff
	ff		 lea	 eax, DWORD PTR $T2[ebp]
  00114	8b cf		 mov	 ecx, edi
  00116	50		 push	 eax
  00117	e8 00 00 00 00	 call	 ?GetCommonEnvironment@CElement@@QBE?AVCElementCommonEnvironment@@XZ ; CElement::GetCommonEnvironment
  0011c	8b c8		 mov	 ecx, eax
  0011e	c7 45 fc 02 00
	00 00		 mov	 DWORD PTR __$EHRec$[ebp+8], 2
  00125	e8 00 00 00 00	 call	 ?GetEquiDiv@CElementCommonEnvironment@@QAEAAHXZ ; CElementCommonEnvironment::GetEquiDiv
  0012a	8d 8d 38 ff ff
	ff		 lea	 ecx, DWORD PTR $T2[ebp+56]
  00130	c7 45 fc ff ff
	ff ff		 mov	 DWORD PTR __$EHRec$[ebp+8], -1
  00137	8b 30		 mov	 esi, DWORD PTR [eax]
  00139	89 75 08	 mov	 DWORD PTR _bEquiDivType$1$[ebp], esi
  0013c	ff 15 00 00 00
	00		 call	 DWORD PTR __imp_??1?$CStringT@DV?$StrTraitMFC_DLL@DV?$ChTraitsCRT@D@ATL@@@@@ATL@@QAE@XZ
  00142	8d 8d 34 ff ff
	ff		 lea	 ecx, DWORD PTR $T2[ebp+52]
  00148	ff 15 00 00 00
	00		 call	 DWORD PTR __imp_??1?$CStringT@DV?$StrTraitMFC_DLL@DV?$ChTraitsCRT@D@ATL@@@@@ATL@@QAE@XZ
  0014e	8d 8d 30 ff ff
	ff		 lea	 ecx, DWORD PTR $T2[ebp+48]
  00154	ff 15 00 00 00
	00		 call	 DWORD PTR __imp_??1?$CStringT@DV?$StrTraitMFC_DLL@DV?$ChTraitsCRT@D@ATL@@@@@ATL@@QAE@XZ

; 337  : 	
; 338  : 	int nCount = pDrawer->GetCount(bEquiDivType);

  0015a	8b 03		 mov	 eax, DWORD PTR [ebx]
  0015c	8b cb		 mov	 ecx, ebx
  0015e	56		 push	 esi
  0015f	ff 50 10	 call	 DWORD PTR [eax+16]

; 339  : 	for(int nIndex = 0; nIndex < nCount; nIndex++)

  00162	33 f6		 xor	 esi, esi
  00164	89 45 f0	 mov	 DWORD PTR _nCount$1$[ebp], eax
  00167	85 c0		 test	 eax, eax
  00169	7e 44		 jle	 SHORT $LN6@GetModifyT
  0016b	0f 1f 44 00 00	 npad	 5
$LL7@GetModifyT:

; 340  : 	{
; 341  : 		int y = pDrawer->GetPoint_Y(ptStart.y, ptEnd.y, nIndex,bEquiDivType);

  00170	ff 75 08	 push	 DWORD PTR _bEquiDivType$1$[ebp]
  00173	8b cb		 mov	 ecx, ebx
  00175	56		 push	 esi
  00176	ff 75 ec	 push	 DWORD PTR _ptEnd$2$[ebp]
  00179	ff 75 e8	 push	 DWORD PTR _ptStart$2$[ebp]
  0017c	e8 00 00 00 00	 call	 ?GetPoint_Y@CEqualDivisionLineDrawer@@QBEHHHHH@Z ; CEqualDivisionLineDrawer::GetPoint_Y

; 342  : 		CToolEnumData::ModifyType modifyType = CTwoPointElement::GetModifyType_Line(CPoint(ptStart.x, y), CPoint(ptEnd.x, y), point);

  00181	ff 75 14	 push	 DWORD PTR _point$[ebp]
; File C:\Program Files (x86)\Microsoft Visual Studio\2019\Community\VC\Tools\MSVC\14.29.30133\atlmfc\include\atltypes.h

; 408  : 	x = initX;

  00184	8b 4d 0c	 mov	 ecx, DWORD PTR _ptEnd$1$[ebp]

; 409  : 	y = initY;

  00187	89 45 e4	 mov	 DWORD PTR $T6[ebp+4], eax
  0018a	89 45 dc	 mov	 DWORD PTR $T5[ebp+4], eax
; File D:\git\src\IBK\IBK_DRFN\ProjSrc\SrcChartEx\ChartAddIn\ChartAnalysisToolAddIn\AnalysisTool\Line.cpp

; 342  : 		CToolEnumData::ModifyType modifyType = CTwoPointElement::GetModifyType_Line(CPoint(ptStart.x, y), CPoint(ptEnd.x, y), point);

  0018d	8d 45 e0	 lea	 eax, DWORD PTR $T6[ebp]
; File C:\Program Files (x86)\Microsoft Visual Studio\2019\Community\VC\Tools\MSVC\14.29.30133\atlmfc\include\atltypes.h

; 408  : 	x = initX;

  00190	89 4d e0	 mov	 DWORD PTR $T6[ebp], ecx
  00193	8b 4d 10	 mov	 ecx, DWORD PTR _ptStart$1$[ebp]
; File D:\git\src\IBK\IBK_DRFN\ProjSrc\SrcChartEx\ChartAddIn\ChartAnalysisToolAddIn\AnalysisTool\Line.cpp

; 342  : 		CToolEnumData::ModifyType modifyType = CTwoPointElement::GetModifyType_Line(CPoint(ptStart.x, y), CPoint(ptEnd.x, y), point);

  00196	50		 push	 eax
  00197	8d 45 d8	 lea	 eax, DWORD PTR $T5[ebp]
; File C:\Program Files (x86)\Microsoft Visual Studio\2019\Community\VC\Tools\MSVC\14.29.30133\atlmfc\include\atltypes.h

; 408  : 	x = initX;

  0019a	89 4d d8	 mov	 DWORD PTR $T5[ebp], ecx
; File D:\git\src\IBK\IBK_DRFN\ProjSrc\SrcChartEx\ChartAddIn\ChartAnalysisToolAddIn\AnalysisTool\Line.cpp

; 342  : 		CToolEnumData::ModifyType modifyType = CTwoPointElement::GetModifyType_Line(CPoint(ptStart.x, y), CPoint(ptEnd.x, y), point);

  0019d	50		 push	 eax
  0019e	8b cf		 mov	 ecx, edi
  001a0	e8 00 00 00 00	 call	 ?GetModifyType_Line@CTwoPointElement@@IBE?AW4ModifyType@CToolEnumData@@ABVCPoint@@00@Z ; CTwoPointElement::GetModifyType_Line

; 343  : 		if(modifyType != CToolEnumData::MODIFY_NONE)

  001a5	85 c0		 test	 eax, eax
  001a7	75 08		 jne	 SHORT $LN1@GetModifyT

; 339  : 	for(int nIndex = 0; nIndex < nCount; nIndex++)

  001a9	46		 inc	 esi
  001aa	3b 75 f0	 cmp	 esi, DWORD PTR _nCount$1$[ebp]
  001ad	7c c1		 jl	 SHORT $LL7@GetModifyT
$LN6@GetModifyT:

; 344  : 			return modifyType;
; 345  : 	}
; 346  : 
; 347  : 	return CToolEnumData::MODIFY_NONE;

  001af	33 c0		 xor	 eax, eax
$LN1@GetModifyT:

; 309  : 		return eModifyType;
; 310  : 
; 311  : 	return GetModifyTypeLine(region,drawingStartPt, drawingEndPt, point);
; 312  : }

  001b1	8b 4d f4	 mov	 ecx, DWORD PTR __$EHRec$[ebp]
  001b4	64 89 0d 00 00
	00 00		 mov	 DWORD PTR fs:0, ecx
  001bb	59		 pop	 ecx
  001bc	5f		 pop	 edi
  001bd	5e		 pop	 esi
  001be	5b		 pop	 ebx
  001bf	8b e5		 mov	 esp, ebp
  001c1	5d		 pop	 ebp
  001c2	c2 10 00	 ret	 16			; 00000010H
_TEXT	ENDS
;	COMDAT text$x
text$x	SEGMENT
__unwindfunclet$?GetModifyType@CEqualDivisionLine@@MBE?AW4ModifyType@CToolEnumData@@ABVCRect@@ABVCPoint@@11@Z$0:
  00000	8d 4d 90	 lea	 ecx, DWORD PTR $T4[ebp]
  00003	e9 00 00 00 00	 jmp	 ??1CElementCommonEnvironment@@QAE@XZ
__unwindfunclet$?GetModifyType@CEqualDivisionLine@@MBE?AW4ModifyType@CToolEnumData@@ABVCRect@@ABVCPoint@@11@Z$1:
  00008	8d 8d 48 ff ff
	ff		 lea	 ecx, DWORD PTR $T3[ebp]
  0000e	e9 00 00 00 00	 jmp	 ??1CElementCommonEnvironment@@QAE@XZ
__unwindfunclet$?GetModifyType@CEqualDivisionLine@@MBE?AW4ModifyType@CToolEnumData@@ABVCRect@@ABVCPoint@@11@Z$2:
  00013	8d 8d 00 ff ff
	ff		 lea	 ecx, DWORD PTR $T2[ebp]
  00019	e9 00 00 00 00	 jmp	 ??1CElementCommonEnvironment@@QAE@XZ
  0001e	cc		 int	 3
  0001f	cc		 int	 3
  00020	cc		 int	 3
  00021	cc		 int	 3
  00022	cc		 int	 3
__ehhandler$?GetModifyType@CEqualDivisionLine@@MBE?AW4ModifyType@CToolEnumData@@ABVCRect@@ABVCPoint@@11@Z:
  00023	90		 npad	 1
  00024	90		 npad	 1
  00025	8b 54 24 08	 mov	 edx, DWORD PTR [esp+8]
  00029	8d 42 0c	 lea	 eax, DWORD PTR [edx+12]
  0002c	8b 8a fc fe ff
	ff		 mov	 ecx, DWORD PTR [edx-260]
  00032	33 c8		 xor	 ecx, eax
  00034	e8 00 00 00 00	 call	 @__security_check_cookie@4
  00039	b8 00 00 00 00	 mov	 eax, OFFSET __ehfuncinfo$?GetModifyType@CEqualDivisionLine@@MBE?AW4ModifyType@CToolEnumData@@ABVCRect@@ABVCPoint@@11@Z
  0003e	e9 00 00 00 00	 jmp	 ___CxxFrameHandler3
text$x	ENDS
?GetModifyType@CEqualDivisionLine@@MBE?AW4ModifyType@CToolEnumData@@ABVCRect@@ABVCPoint@@11@Z ENDP ; CEqualDivisionLine::GetModifyType
; Function compile flags: /Ogtp
; File D:\git\src\IBK\IBK_DRFN\ProjSrc\SrcChartEx\ChartAddIn\ChartAnalysisToolAddIn\AnalysisTool\Line.cpp
;	COMDAT ?GetTextPosition@CEqualDivisionLine@@MAEPAVCTextPosition@@XZ
_TEXT	SEGMENT
?GetTextPosition@CEqualDivisionLine@@MAEPAVCTextPosition@@XZ PROC ; CEqualDivisionLine::GetTextPosition, COMDAT
; _this$ = ecx

; 301  : 	return &m_textPosition;

  00000	8d 81 90 00 00
	00		 lea	 eax, DWORD PTR [ecx+144]

; 302  : }

  00006	c3		 ret	 0
?GetTextPosition@CEqualDivisionLine@@MAEPAVCTextPosition@@XZ ENDP ; CEqualDivisionLine::GetTextPosition
_TEXT	ENDS
; Function compile flags: /Ogtp
; File D:\git\src\IBK\IBK_DRFN\ProjSrc\SrcChartEx\ChartAddIn\ChartAnalysisToolAddIn\AnalysisTool\Line.cpp
;	COMDAT ?GetTextPosition@CEqualDivisionLine@@MBEPBVCTextPosition@@XZ
_TEXT	SEGMENT
?GetTextPosition@CEqualDivisionLine@@MBEPBVCTextPosition@@XZ PROC ; CEqualDivisionLine::GetTextPosition, COMDAT
; _this$ = ecx

; 296  : 	return &m_textPosition;

  00000	8d 81 90 00 00
	00		 lea	 eax, DWORD PTR [ecx+144]

; 297  : }

  00006	c3		 ret	 0
?GetTextPosition@CEqualDivisionLine@@MBEPBVCTextPosition@@XZ ENDP ; CEqualDivisionLine::GetTextPosition
_TEXT	ENDS
; Function compile flags: /Ogtp
; File D:\git\src\IBK\IBK_DRFN\ProjSrc\SrcChartEx\ChartAddIn\ChartAnalysisToolAddIn\AnalysisTool\Line.cpp
;	COMDAT ??0CEqualDivisionLine@@QAE@ABVCTextHorzPosition@@ABVCCoordinate@@1ABVCElementCommonEnvironment@@@Z
_TEXT	SEGMENT
_this$ = -16						; size = 4
__$EHRec$ = -12						; size = 12
_position$ = 8						; size = 4
_point1$ = 12						; size = 4
_point2$ = 16						; size = 4
_environment$ = 20					; size = 4
??0CEqualDivisionLine@@QAE@ABVCTextHorzPosition@@ABVCCoordinate@@1ABVCElementCommonEnvironment@@@Z PROC ; CEqualDivisionLine::CEqualDivisionLine, COMDAT
; _this$ = ecx

; 290  : {

  00000	55		 push	 ebp
  00001	8b ec		 mov	 ebp, esp
  00003	6a ff		 push	 -1
  00005	68 00 00 00 00	 push	 __ehhandler$??0CEqualDivisionLine@@QAE@ABVCTextHorzPosition@@ABVCCoordinate@@1ABVCElementCommonEnvironment@@@Z
  0000a	64 a1 00 00 00
	00		 mov	 eax, DWORD PTR fs:0
  00010	50		 push	 eax
  00011	51		 push	 ecx
  00012	56		 push	 esi
  00013	a1 00 00 00 00	 mov	 eax, DWORD PTR ___security_cookie
  00018	33 c5		 xor	 eax, ebp
  0001a	50		 push	 eax
  0001b	8d 45 f4	 lea	 eax, DWORD PTR __$EHRec$[ebp]
  0001e	64 a3 00 00 00
	00		 mov	 DWORD PTR fs:0, eax
  00024	8b f1		 mov	 esi, ecx
  00026	89 75 f0	 mov	 DWORD PTR _this$[ebp], esi

; 288  : 	CTwoPointElement(point1, point2, environment),

  00029	ff 75 14	 push	 DWORD PTR _environment$[ebp]
  0002c	ff 75 10	 push	 DWORD PTR _point2$[ebp]
  0002f	ff 75 0c	 push	 DWORD PTR _point1$[ebp]
  00032	e8 00 00 00 00	 call	 ??0CTwoPointElement@@QAE@ABVCCoordinate@@0ABVCElementCommonEnvironment@@@Z ; CTwoPointElement::CTwoPointElement

; 289  : 	m_textPosition(position)

  00037	ff 75 08	 push	 DWORD PTR _position$[ebp]
  0003a	8d 8e 90 00 00
	00		 lea	 ecx, DWORD PTR [esi+144]
  00040	c7 45 fc 00 00
	00 00		 mov	 DWORD PTR __$EHRec$[ebp+8], 0

; 290  : {

  00047	c7 06 00 00 00
	00		 mov	 DWORD PTR [esi], OFFSET ??_7CEqualDivisionLine@@6B@
  0004d	e8 00 00 00 00	 call	 ??0CTextHorzPosition@@QAE@ABV0@@Z ; CTextHorzPosition::CTextHorzPosition

; 291  : }

  00052	8b c6		 mov	 eax, esi
  00054	8b 4d f4	 mov	 ecx, DWORD PTR __$EHRec$[ebp]
  00057	64 89 0d 00 00
	00 00		 mov	 DWORD PTR fs:0, ecx
  0005e	59		 pop	 ecx
  0005f	5e		 pop	 esi
  00060	8b e5		 mov	 esp, ebp
  00062	5d		 pop	 ebp
  00063	c2 10 00	 ret	 16			; 00000010H
_TEXT	ENDS
;	COMDAT text$x
text$x	SEGMENT
__unwindfunclet$??0CEqualDivisionLine@@QAE@ABVCTextHorzPosition@@ABVCCoordinate@@1ABVCElementCommonEnvironment@@@Z$0:
  00000	8b 4d f0	 mov	 ecx, DWORD PTR _this$[ebp]
  00003	e9 00 00 00 00	 jmp	 ??1CTwoPointElement@@UAE@XZ
  00008	cc		 int	 3
  00009	cc		 int	 3
  0000a	cc		 int	 3
  0000b	cc		 int	 3
  0000c	cc		 int	 3
__ehhandler$??0CEqualDivisionLine@@QAE@ABVCTextHorzPosition@@ABVCCoordinate@@1ABVCElementCommonEnvironment@@@Z:
  0000d	90		 npad	 1
  0000e	90		 npad	 1
  0000f	8b 54 24 08	 mov	 edx, DWORD PTR [esp+8]
  00013	8d 42 0c	 lea	 eax, DWORD PTR [edx+12]
  00016	8b 4a f4	 mov	 ecx, DWORD PTR [edx-12]
  00019	33 c8		 xor	 ecx, eax
  0001b	e8 00 00 00 00	 call	 @__security_check_cookie@4
  00020	b8 00 00 00 00	 mov	 eax, OFFSET __ehfuncinfo$??0CEqualDivisionLine@@QAE@ABVCTextHorzPosition@@ABVCCoordinate@@1ABVCElementCommonEnvironment@@@Z
  00025	e9 00 00 00 00	 jmp	 ___CxxFrameHandler3
text$x	ENDS
??0CEqualDivisionLine@@QAE@ABVCTextHorzPosition@@ABVCCoordinate@@1ABVCElementCommonEnvironment@@@Z ENDP ; CEqualDivisionLine::CEqualDivisionLine
; Function compile flags: /Ogtp
; File D:\git\src\IBK\IBK_DRFN\ProjSrc\SrcChartEx\ChartAddIn\ChartAnalysisToolAddIn\AnalysisTool\Element.h
;	COMDAT ??_GCCrossLine@@UAEPAXI@Z
_TEXT	SEGMENT
___flags$ = 8						; size = 4
??_GCCrossLine@@UAEPAXI@Z PROC				; CCrossLine::`scalar deleting destructor', COMDAT
; _this$ = ecx
  00000	55		 push	 ebp
  00001	8b ec		 mov	 ebp, esp

; 31   : 	virtual ~CElement()	{}

  00003	56		 push	 esi
  00004	8b f1		 mov	 esi, ecx
  00006	8d 4e 64	 lea	 ecx, DWORD PTR [esi+100]
  00009	ff 15 00 00 00
	00		 call	 DWORD PTR __imp_??1?$CStringT@DV?$StrTraitMFC_DLL@DV?$ChTraitsCRT@D@ATL@@@@@ATL@@QAE@XZ
  0000f	8d 4e 40	 lea	 ecx, DWORD PTR [esi+64]
  00012	c7 06 00 00 00
	00		 mov	 DWORD PTR [esi], OFFSET ??_7CElement@@6B@
  00018	ff 15 00 00 00
	00		 call	 DWORD PTR __imp_??1?$CStringT@DV?$StrTraitMFC_DLL@DV?$ChTraitsCRT@D@ATL@@@@@ATL@@QAE@XZ
  0001e	8d 4e 3c	 lea	 ecx, DWORD PTR [esi+60]
  00021	ff 15 00 00 00
	00		 call	 DWORD PTR __imp_??1?$CStringT@DV?$StrTraitMFC_DLL@DV?$ChTraitsCRT@D@ATL@@@@@ATL@@QAE@XZ
  00027	8d 4e 38	 lea	 ecx, DWORD PTR [esi+56]
  0002a	ff 15 00 00 00
	00		 call	 DWORD PTR __imp_??1?$CStringT@DV?$StrTraitMFC_DLL@DV?$ChTraitsCRT@D@ATL@@@@@ATL@@QAE@XZ
  00030	f6 45 08 01	 test	 BYTE PTR ___flags$[ebp], 1
  00034	74 0e		 je	 SHORT $LN25@scalar
  00036	68 b8 00 00 00	 push	 184			; 000000b8H
  0003b	56		 push	 esi
  0003c	e8 00 00 00 00	 call	 ??3@YAXPAXI@Z		; operator delete
  00041	83 c4 08	 add	 esp, 8
$LN25@scalar:
  00044	8b c6		 mov	 eax, esi
  00046	5e		 pop	 esi
  00047	5d		 pop	 ebp
  00048	c2 04 00	 ret	 4
??_GCCrossLine@@UAEPAXI@Z ENDP				; CCrossLine::`scalar deleting destructor'
_TEXT	ENDS
; Function compile flags: /Ogtp
; File D:\git\src\IBK\IBK_DRFN\ProjSrc\SrcChartEx\ChartAddIn\ChartAnalysisToolAddIn\AnalysisTool\Line.cpp
;	COMDAT ?ElementModify_Y@CCrossLine@@AAEXABVCCoordinate@@@Z
_TEXT	SEGMENT
$T1 = -8						; size = 8
_modifyPoint$ = 8					; size = 4
?ElementModify_Y@CCrossLine@@AAEXABVCCoordinate@@@Z PROC ; CCrossLine::ElementModify_Y, COMDAT
; _this$ = ecx

; 280  : {

  00000	55		 push	 ebp
  00001	8b ec		 mov	 ebp, esp
  00003	83 ec 08	 sub	 esp, 8
  00006	56		 push	 esi
  00007	8b f1		 mov	 esi, ecx

; 281  : 	COnePointElement::GetPoint().SetY(modifyPoint.GetY());

  00009	8b 4d 08	 mov	 ecx, DWORD PTR _modifyPoint$[ebp]
  0000c	e8 00 00 00 00	 call	 ?GetY@CCoordinate@@QBENXZ ; CCoordinate::GetY
  00011	8d 45 f8	 lea	 eax, DWORD PTR $T1[ebp]
  00014	8b ce		 mov	 ecx, esi
  00016	50		 push	 eax
  00017	dd 5d f8	 fstp	 QWORD PTR $T1[ebp]
  0001a	e8 00 00 00 00	 call	 ?GetPoint@COnePointElement@@IAEAAVCCoordinate@@XZ ; COnePointElement::GetPoint
  0001f	8b c8		 mov	 ecx, eax
  00021	e8 00 00 00 00	 call	 ?SetY@CCoordinate@@QAEXABN@Z ; CCoordinate::SetY
  00026	5e		 pop	 esi

; 282  : }

  00027	8b e5		 mov	 esp, ebp
  00029	5d		 pop	 ebp
  0002a	c2 04 00	 ret	 4
?ElementModify_Y@CCrossLine@@AAEXABVCCoordinate@@@Z ENDP ; CCrossLine::ElementModify_Y
_TEXT	ENDS
; Function compile flags: /Ogtp
; File D:\git\src\IBK\IBK_DRFN\ProjSrc\SrcChartEx\ChartAddIn\ChartAnalysisToolAddIn\AnalysisTool\Line.cpp
;	COMDAT ?ElementModify_X@CCrossLine@@AAEXABVCCoordinate@@@Z
_TEXT	SEGMENT
$T1 = -8						; size = 8
_modifyPoint$ = 8					; size = 4
?ElementModify_X@CCrossLine@@AAEXABVCCoordinate@@@Z PROC ; CCrossLine::ElementModify_X, COMDAT
; _this$ = ecx

; 275  : {

  00000	55		 push	 ebp
  00001	8b ec		 mov	 ebp, esp
  00003	83 ec 08	 sub	 esp, 8
  00006	57		 push	 edi
  00007	8b f9		 mov	 edi, ecx

; 276  : 	COnePointElement::GetPoint().SetX(modifyPoint.GetX(), modifyPoint.GetIndex());

  00009	8b 4d 08	 mov	 ecx, DWORD PTR _modifyPoint$[ebp]
  0000c	e8 00 00 00 00	 call	 ?GetX@CCoordinate@@QBENXZ ; CCoordinate::GetX
  00011	8b 4d 08	 mov	 ecx, DWORD PTR _modifyPoint$[ebp]
  00014	dd 5d f8	 fstp	 QWORD PTR $T1[ebp]
  00017	e8 00 00 00 00	 call	 ?GetIndex@CCoordinate@@QBEHXZ ; CCoordinate::GetIndex
  0001c	50		 push	 eax
  0001d	8d 45 f8	 lea	 eax, DWORD PTR $T1[ebp]
  00020	8b cf		 mov	 ecx, edi
  00022	50		 push	 eax
  00023	e8 00 00 00 00	 call	 ?GetPoint@COnePointElement@@IAEAAVCCoordinate@@XZ ; COnePointElement::GetPoint
  00028	8b c8		 mov	 ecx, eax
  0002a	e8 00 00 00 00	 call	 ?SetX@CCoordinate@@QAEXABNH@Z ; CCoordinate::SetX
  0002f	5f		 pop	 edi

; 277  : }

  00030	8b e5		 mov	 esp, ebp
  00032	5d		 pop	 ebp
  00033	c2 04 00	 ret	 4
?ElementModify_X@CCrossLine@@AAEXABVCCoordinate@@@Z ENDP ; CCrossLine::ElementModify_X
_TEXT	ENDS
; Function compile flags: /Ogtp
; File D:\git\src\IBK\IBK_DRFN\ProjSrc\SrcChartEx\ChartAddIn\ChartAnalysisToolAddIn\AnalysisTool\Line.cpp
; File C:\Program Files (x86)\Microsoft Visual Studio\2019\Community\VC\Tools\MSVC\14.29.30133\atlmfc\include\atltypes.h
; File D:\git\src\IBK\IBK_DRFN\ProjSrc\SrcChartEx\ChartAddIn\ChartAnalysisToolAddIn\AnalysisTool\Line.cpp
; File C:\Program Files (x86)\Microsoft Visual Studio\2019\Community\VC\Tools\MSVC\14.29.30133\atlmfc\include\atltypes.h
; File D:\git\src\IBK\IBK_DRFN\ProjSrc\SrcChartEx\ChartAddIn\ChartAnalysisToolAddIn\AnalysisTool\Line.cpp
; File C:\Program Files (x86)\Microsoft Visual Studio\2019\Community\VC\Tools\MSVC\14.29.30133\atlmfc\include\atltypes.h
; File D:\git\src\IBK\IBK_DRFN\ProjSrc\SrcChartEx\ChartAddIn\ChartAnalysisToolAddIn\AnalysisTool\Line.cpp
; File C:\Program Files (x86)\Microsoft Visual Studio\2019\Community\VC\Tools\MSVC\14.29.30133\atlmfc\include\atltypes.h
; File D:\git\src\IBK\IBK_DRFN\ProjSrc\SrcChartEx\ChartAddIn\ChartAnalysisToolAddIn\AnalysisTool\Line.cpp
; File C:\Program Files (x86)\Microsoft Visual Studio\2019\Community\VC\Tools\MSVC\14.29.30133\atlmfc\include\atltypes.h
; File D:\git\src\IBK\IBK_DRFN\ProjSrc\SrcChartEx\ChartAddIn\ChartAnalysisToolAddIn\AnalysisTool\Line.cpp
; File C:\Program Files (x86)\Microsoft Visual Studio\2019\Community\VC\Tools\MSVC\14.29.30133\atlmfc\include\atltypes.h
; File D:\git\src\IBK\IBK_DRFN\ProjSrc\SrcChartEx\ChartAddIn\ChartAnalysisToolAddIn\AnalysisTool\Line.cpp
; File C:\Program Files (x86)\Microsoft Visual Studio\2019\Community\VC\Tools\MSVC\14.29.30133\atlmfc\include\atltypes.h
; File D:\git\src\IBK\IBK_DRFN\ProjSrc\SrcChartEx\ChartAddIn\ChartAnalysisToolAddIn\AnalysisTool\Line.cpp
; File C:\Program Files (x86)\Microsoft Visual Studio\2019\Community\VC\Tools\MSVC\14.29.30133\atlmfc\include\atltypes.h
; File D:\git\src\IBK\IBK_DRFN\ProjSrc\SrcChartEx\ChartAddIn\ChartAnalysisToolAddIn\AnalysisTool\Line.cpp
; File C:\Program Files (x86)\Microsoft Visual Studio\2019\Community\VC\Tools\MSVC\14.29.30133\atlmfc\include\atltypes.h
; File D:\git\src\IBK\IBK_DRFN\ProjSrc\SrcChartEx\ChartAddIn\ChartAnalysisToolAddIn\AnalysisTool\Line.cpp
;	COMDAT ?GetModifyType@CCrossLine@@MBE?AW4ModifyType@CToolEnumData@@ABVCDisplayData@@ABVCPoint@@1@Z
_TEXT	SEGMENT
_point$GSCopy$1$ = -64					; size = 4
$T1 = -60						; size = 8
$T2 = -60						; size = 8
$T3 = -52						; size = 8
$T4 = -52						; size = 8
_this$GSCopy$1$ = -44					; size = 4
_displayData$GSCopy$1$ = -40				; size = 4
$T5 = -36						; size = 16
$T6 = -36						; size = 16
$T7 = -20						; size = 16
$T8 = -20						; size = 16
__$ArrayPad$ = -4					; size = 4
_displayData$ = 8					; size = 4
_elementDrawingPt$ = 12					; size = 4
_point$ = 16						; size = 4
?GetModifyType@CCrossLine@@MBE?AW4ModifyType@CToolEnumData@@ABVCDisplayData@@ABVCPoint@@1@Z PROC ; CCrossLine::GetModifyType, COMDAT
; _this$ = ecx

; 259  : {

  00000	55		 push	 ebp
  00001	8b ec		 mov	 ebp, esp
  00003	83 ec 40	 sub	 esp, 64			; 00000040H
  00006	a1 00 00 00 00	 mov	 eax, DWORD PTR ___security_cookie
  0000b	33 c5		 xor	 eax, ebp
  0000d	89 45 fc	 mov	 DWORD PTR __$ArrayPad$[ebp], eax
  00010	53		 push	 ebx
  00011	8b 5d 08	 mov	 ebx, DWORD PTR _displayData$[ebp]

; 260  : 	bool bHorz = CElement::PointInElementSelectableRegion(CPoint(elementDrawingPt.x, displayData.GetDisplayRegion().top), CPoint(elementDrawingPt.x, displayData.GetDisplayRegion().bottom), point);

  00014	8d 45 ec	 lea	 eax, DWORD PTR $T8[ebp]
  00017	56		 push	 esi
  00018	8b 75 10	 mov	 esi, DWORD PTR _point$[ebp]
  0001b	57		 push	 edi
  0001c	8b 7d 0c	 mov	 edi, DWORD PTR _elementDrawingPt$[ebp]
  0001f	89 4d d4	 mov	 DWORD PTR _this$GSCopy$1$[ebp], ecx
  00022	8b cb		 mov	 ecx, ebx
  00024	50		 push	 eax
  00025	89 5d d8	 mov	 DWORD PTR _displayData$GSCopy$1$[ebp], ebx
  00028	89 75 c0	 mov	 DWORD PTR _point$GSCopy$1$[ebp], esi
  0002b	e8 00 00 00 00	 call	 ?GetDisplayRegion@CDisplayData@@QBE?AVCRect@@XZ ; CDisplayData::GetDisplayRegion
  00030	8b 48 0c	 mov	 ecx, DWORD PTR [eax+12]
; File C:\Program Files (x86)\Microsoft Visual Studio\2019\Community\VC\Tools\MSVC\14.29.30133\atlmfc\include\atltypes.h

; 408  : 	x = initX;

  00033	8b 07		 mov	 eax, DWORD PTR [edi]
  00035	89 45 cc	 mov	 DWORD PTR $T4[ebp], eax
; File D:\git\src\IBK\IBK_DRFN\ProjSrc\SrcChartEx\ChartAddIn\ChartAnalysisToolAddIn\AnalysisTool\Line.cpp

; 260  : 	bool bHorz = CElement::PointInElementSelectableRegion(CPoint(elementDrawingPt.x, displayData.GetDisplayRegion().top), CPoint(elementDrawingPt.x, displayData.GetDisplayRegion().bottom), point);

  00038	8d 45 dc	 lea	 eax, DWORD PTR $T6[ebp]
; File C:\Program Files (x86)\Microsoft Visual Studio\2019\Community\VC\Tools\MSVC\14.29.30133\atlmfc\include\atltypes.h

; 409  : 	y = initY;

  0003b	89 4d d0	 mov	 DWORD PTR $T4[ebp+4], ecx
; File D:\git\src\IBK\IBK_DRFN\ProjSrc\SrcChartEx\ChartAddIn\ChartAnalysisToolAddIn\AnalysisTool\Line.cpp

; 260  : 	bool bHorz = CElement::PointInElementSelectableRegion(CPoint(elementDrawingPt.x, displayData.GetDisplayRegion().top), CPoint(elementDrawingPt.x, displayData.GetDisplayRegion().bottom), point);

  0003e	8b cb		 mov	 ecx, ebx
  00040	50		 push	 eax
  00041	e8 00 00 00 00	 call	 ?GetDisplayRegion@CDisplayData@@QBE?AVCRect@@XZ ; CDisplayData::GetDisplayRegion
  00046	56		 push	 esi
  00047	8b 48 04	 mov	 ecx, DWORD PTR [eax+4]
; File C:\Program Files (x86)\Microsoft Visual Studio\2019\Community\VC\Tools\MSVC\14.29.30133\atlmfc\include\atltypes.h

; 408  : 	x = initX;

  0004a	8b 07		 mov	 eax, DWORD PTR [edi]
  0004c	89 45 c4	 mov	 DWORD PTR $T2[ebp], eax
; File D:\git\src\IBK\IBK_DRFN\ProjSrc\SrcChartEx\ChartAddIn\ChartAnalysisToolAddIn\AnalysisTool\Line.cpp

; 260  : 	bool bHorz = CElement::PointInElementSelectableRegion(CPoint(elementDrawingPt.x, displayData.GetDisplayRegion().top), CPoint(elementDrawingPt.x, displayData.GetDisplayRegion().bottom), point);

  0004f	8d 45 cc	 lea	 eax, DWORD PTR $T4[ebp]
  00052	50		 push	 eax
  00053	8d 45 c4	 lea	 eax, DWORD PTR $T2[ebp]
; File C:\Program Files (x86)\Microsoft Visual Studio\2019\Community\VC\Tools\MSVC\14.29.30133\atlmfc\include\atltypes.h

; 409  : 	y = initY;

  00056	89 4d c8	 mov	 DWORD PTR $T2[ebp+4], ecx
; File D:\git\src\IBK\IBK_DRFN\ProjSrc\SrcChartEx\ChartAddIn\ChartAnalysisToolAddIn\AnalysisTool\Line.cpp

; 260  : 	bool bHorz = CElement::PointInElementSelectableRegion(CPoint(elementDrawingPt.x, displayData.GetDisplayRegion().top), CPoint(elementDrawingPt.x, displayData.GetDisplayRegion().bottom), point);

  00059	8b 4d d4	 mov	 ecx, DWORD PTR _this$GSCopy$1$[ebp]
  0005c	50		 push	 eax
  0005d	e8 00 00 00 00	 call	 ?PointInElementSelectableRegion@CElement@@IBE_NABVCPoint@@00@Z ; CElement::PointInElementSelectableRegion

; 261  : 	bool bVert = CElement::PointInElementSelectableRegion(CPoint(displayData.GetDisplayRegion().left, elementDrawingPt.y), CPoint(displayData.GetDisplayRegion().right, elementDrawingPt.y), point);

  00062	8b 4d d8	 mov	 ecx, DWORD PTR _displayData$GSCopy$1$[ebp]
  00065	8a d8		 mov	 bl, al
  00067	8b 77 04	 mov	 esi, DWORD PTR [edi+4]
  0006a	8d 45 dc	 lea	 eax, DWORD PTR $T5[ebp]
  0006d	50		 push	 eax
  0006e	e8 00 00 00 00	 call	 ?GetDisplayRegion@CDisplayData@@QBE?AVCRect@@XZ ; CDisplayData::GetDisplayRegion
; File C:\Program Files (x86)\Microsoft Visual Studio\2019\Community\VC\Tools\MSVC\14.29.30133\atlmfc\include\atltypes.h

; 408  : 	x = initX;

  00073	8b 48 08	 mov	 ecx, DWORD PTR [eax+8]
; File D:\git\src\IBK\IBK_DRFN\ProjSrc\SrcChartEx\ChartAddIn\ChartAnalysisToolAddIn\AnalysisTool\Line.cpp

; 261  : 	bool bVert = CElement::PointInElementSelectableRegion(CPoint(displayData.GetDisplayRegion().left, elementDrawingPt.y), CPoint(displayData.GetDisplayRegion().right, elementDrawingPt.y), point);

  00076	8d 45 ec	 lea	 eax, DWORD PTR $T7[ebp]
; File C:\Program Files (x86)\Microsoft Visual Studio\2019\Community\VC\Tools\MSVC\14.29.30133\atlmfc\include\atltypes.h

; 408  : 	x = initX;

  00079	89 4d c4	 mov	 DWORD PTR $T1[ebp], ecx
; File D:\git\src\IBK\IBK_DRFN\ProjSrc\SrcChartEx\ChartAddIn\ChartAnalysisToolAddIn\AnalysisTool\Line.cpp

; 261  : 	bool bVert = CElement::PointInElementSelectableRegion(CPoint(displayData.GetDisplayRegion().left, elementDrawingPt.y), CPoint(displayData.GetDisplayRegion().right, elementDrawingPt.y), point);

  0007c	8b 4d d8	 mov	 ecx, DWORD PTR _displayData$GSCopy$1$[ebp]
; File C:\Program Files (x86)\Microsoft Visual Studio\2019\Community\VC\Tools\MSVC\14.29.30133\atlmfc\include\atltypes.h

; 409  : 	y = initY;

  0007f	89 75 c8	 mov	 DWORD PTR $T1[ebp+4], esi
; File D:\git\src\IBK\IBK_DRFN\ProjSrc\SrcChartEx\ChartAddIn\ChartAnalysisToolAddIn\AnalysisTool\Line.cpp

; 261  : 	bool bVert = CElement::PointInElementSelectableRegion(CPoint(displayData.GetDisplayRegion().left, elementDrawingPt.y), CPoint(displayData.GetDisplayRegion().right, elementDrawingPt.y), point);

  00082	8b 77 04	 mov	 esi, DWORD PTR [edi+4]
  00085	50		 push	 eax
  00086	e8 00 00 00 00	 call	 ?GetDisplayRegion@CDisplayData@@QBE?AVCRect@@XZ ; CDisplayData::GetDisplayRegion
  0008b	ff 75 c0	 push	 DWORD PTR _point$GSCopy$1$[ebp]
  0008e	8b 4d d4	 mov	 ecx, DWORD PTR _this$GSCopy$1$[ebp]
; File C:\Program Files (x86)\Microsoft Visual Studio\2019\Community\VC\Tools\MSVC\14.29.30133\atlmfc\include\atltypes.h

; 408  : 	x = initX;

  00091	8b 00		 mov	 eax, DWORD PTR [eax]
  00093	89 45 cc	 mov	 DWORD PTR $T3[ebp], eax
; File D:\git\src\IBK\IBK_DRFN\ProjSrc\SrcChartEx\ChartAddIn\ChartAnalysisToolAddIn\AnalysisTool\Line.cpp

; 261  : 	bool bVert = CElement::PointInElementSelectableRegion(CPoint(displayData.GetDisplayRegion().left, elementDrawingPt.y), CPoint(displayData.GetDisplayRegion().right, elementDrawingPt.y), point);

  00096	8d 45 c4	 lea	 eax, DWORD PTR $T1[ebp]
  00099	50		 push	 eax
  0009a	8d 45 cc	 lea	 eax, DWORD PTR $T3[ebp]
; File C:\Program Files (x86)\Microsoft Visual Studio\2019\Community\VC\Tools\MSVC\14.29.30133\atlmfc\include\atltypes.h

; 409  : 	y = initY;

  0009d	89 75 d0	 mov	 DWORD PTR $T3[ebp+4], esi
; File D:\git\src\IBK\IBK_DRFN\ProjSrc\SrcChartEx\ChartAddIn\ChartAnalysisToolAddIn\AnalysisTool\Line.cpp

; 261  : 	bool bVert = CElement::PointInElementSelectableRegion(CPoint(displayData.GetDisplayRegion().left, elementDrawingPt.y), CPoint(displayData.GetDisplayRegion().right, elementDrawingPt.y), point);

  000a0	50		 push	 eax
  000a1	e8 00 00 00 00	 call	 ?PointInElementSelectableRegion@CElement@@IBE_NABVCPoint@@00@Z ; CElement::PointInElementSelectableRegion

; 262  : 
; 263  : 	if(bHorz && bVert)

  000a6	5f		 pop	 edi
  000a7	5e		 pop	 esi
  000a8	84 db		 test	 bl, bl
  000aa	8a c8		 mov	 cl, al
  000ac	5b		 pop	 ebx
  000ad	74 1e		 je	 SHORT $LN16@GetModifyT
  000af	33 c0		 xor	 eax, eax
  000b1	84 c9		 test	 cl, cl
  000b3	0f 94 c0	 sete	 al
  000b6	8d 04 85 01 00
	00 00		 lea	 eax, DWORD PTR [eax*4+1]

; 268  : 		return CToolEnumData::MODIFY_Y;
; 269  : 
; 270  : 	return CToolEnumData::MODIFY_NONE;
; 271  : }

  000bd	8b 4d fc	 mov	 ecx, DWORD PTR __$ArrayPad$[ebp]
  000c0	33 cd		 xor	 ecx, ebp
  000c2	e8 00 00 00 00	 call	 @__security_check_cookie@4
  000c7	8b e5		 mov	 esp, ebp
  000c9	5d		 pop	 ebp
  000ca	c2 0c 00	 ret	 12			; 0000000cH
$LN16@GetModifyT:

; 264  : 		return CToolEnumData::MODIFY_CENTER;
; 265  : 	else if(bHorz && !bVert)
; 266  : 		return CToolEnumData::MODIFY_X;
; 267  : 	else if(!bHorz && bVert)

  000cd	33 c0		 xor	 eax, eax
  000cf	ba 06 00 00 00	 mov	 edx, 6
  000d4	84 c9		 test	 cl, cl

; 268  : 		return CToolEnumData::MODIFY_Y;
; 269  : 
; 270  : 	return CToolEnumData::MODIFY_NONE;
; 271  : }

  000d6	8b 4d fc	 mov	 ecx, DWORD PTR __$ArrayPad$[ebp]
  000d9	0f 45 c2	 cmovne	 eax, edx
  000dc	33 cd		 xor	 ecx, ebp
  000de	e8 00 00 00 00	 call	 @__security_check_cookie@4
  000e3	8b e5		 mov	 esp, ebp
  000e5	5d		 pop	 ebp
  000e6	c2 0c 00	 ret	 12			; 0000000cH
?GetModifyType@CCrossLine@@MBE?AW4ModifyType@CToolEnumData@@ABVCDisplayData@@ABVCPoint@@1@Z ENDP ; CCrossLine::GetModifyType
_TEXT	ENDS
; Function compile flags: /Ogtp
; File D:\git\src\IBK\IBK_DRFN\ProjSrc\SrcChartEx\ChartAddIn\ChartAnalysisToolAddIn\AnalysisTool\Line.cpp
;	COMDAT ?GetOnePointDrawer@CCrossLine@@MAEAAVCOnePointDrawer@@XZ
_TEXT	SEGMENT
?GetOnePointDrawer@CCrossLine@@MAEAAVCOnePointDrawer@@XZ PROC ; CCrossLine::GetOnePointDrawer, COMDAT
; _this$ = ecx

; 254  : 	return m_crossLineDrawer;

  00000	8b 41 7c	 mov	 eax, DWORD PTR [ecx+124]
  00003	8b 40 08	 mov	 eax, DWORD PTR [eax+8]
  00006	83 c0 7c	 add	 eax, 124		; 0000007cH
  00009	03 c1		 add	 eax, ecx

; 255  : }

  0000b	c3		 ret	 0
?GetOnePointDrawer@CCrossLine@@MAEAAVCOnePointDrawer@@XZ ENDP ; CCrossLine::GetOnePointDrawer
_TEXT	ENDS
; Function compile flags: /Ogtp
; File D:\git\src\IBK\IBK_DRFN\ProjSrc\SrcChartEx\ChartAddIn\ChartAnalysisToolAddIn\AnalysisTool\Line.cpp
;	COMDAT ?GetTextPosition@CCrossLine@@MAEPAVCTextPosition@@XZ
_TEXT	SEGMENT
?GetTextPosition@CCrossLine@@MAEPAVCTextPosition@@XZ PROC ; CCrossLine::GetTextPosition, COMDAT
; _this$ = ecx

; 249  : 	return &m_textPosition;

  00000	8d 41 70	 lea	 eax, DWORD PTR [ecx+112]

; 250  : }

  00003	c3		 ret	 0
?GetTextPosition@CCrossLine@@MAEPAVCTextPosition@@XZ ENDP ; CCrossLine::GetTextPosition
_TEXT	ENDS
; Function compile flags: /Ogtp
; File D:\git\src\IBK\IBK_DRFN\ProjSrc\SrcChartEx\ChartAddIn\ChartAnalysisToolAddIn\AnalysisTool\Line.cpp
;	COMDAT ?GetTextPosition@CCrossLine@@MBEPBVCTextPosition@@XZ
_TEXT	SEGMENT
?GetTextPosition@CCrossLine@@MBEPBVCTextPosition@@XZ PROC ; CCrossLine::GetTextPosition, COMDAT
; _this$ = ecx

; 244  : 	return &m_textPosition;

  00000	8d 41 70	 lea	 eax, DWORD PTR [ecx+112]

; 245  : }

  00003	c3		 ret	 0
?GetTextPosition@CCrossLine@@MBEPBVCTextPosition@@XZ ENDP ; CCrossLine::GetTextPosition
_TEXT	ENDS
; Function compile flags: /Ogtp
; File D:\git\src\IBK\IBK_DRFN\ProjSrc\SrcChartEx\ChartAddIn\ChartAnalysisToolAddIn\AnalysisTool\Line.cpp
;	COMDAT ?DrawSelected@CCrossLine@@UAEXPAVCDC@@ABVCSelectedElementDrawingData@@@Z
_TEXT	SEGMENT
_drawingData$2 = -164					; size = 136
$T3 = -28						; size = 8
$T4 = -20						; size = 8
__$EHRec$ = -12						; size = 12
_pDC$ = 8						; size = 4
_selectedDrawingData$ = 12				; size = 4
?DrawSelected@CCrossLine@@UAEXPAVCDC@@ABVCSelectedElementDrawingData@@@Z PROC ; CCrossLine::DrawSelected, COMDAT
; _this$ = ecx

; 225  : {

  00000	55		 push	 ebp
  00001	8b ec		 mov	 ebp, esp
  00003	6a ff		 push	 -1
  00005	68 00 00 00 00	 push	 __ehhandler$?DrawSelected@CCrossLine@@UAEXPAVCDC@@ABVCSelectedElementDrawingData@@@Z
  0000a	64 a1 00 00 00
	00		 mov	 eax, DWORD PTR fs:0
  00010	50		 push	 eax
  00011	81 ec 98 00 00
	00		 sub	 esp, 152		; 00000098H
  00017	56		 push	 esi
  00018	57		 push	 edi
  00019	a1 00 00 00 00	 mov	 eax, DWORD PTR ___security_cookie
  0001e	33 c5		 xor	 eax, ebp
  00020	50		 push	 eax
  00021	8d 45 f4	 lea	 eax, DWORD PTR __$EHRec$[ebp]
  00024	64 a3 00 00 00
	00		 mov	 DWORD PTR fs:0, eax
  0002a	8b f9		 mov	 edi, ecx

; 226  : 	if(selectedDrawingData.GetModifyType() == CToolEnumData::MODIFY_CENTER)

  0002c	8b 75 0c	 mov	 esi, DWORD PTR _selectedDrawingData$[ebp]
  0002f	8b ce		 mov	 ecx, esi
  00031	e8 00 00 00 00	 call	 ?GetModifyType@CSelectedElementDrawingData@@QBE?AW4ModifyType@CToolEnumData@@XZ ; CSelectedElementDrawingData::GetModifyType
  00036	83 f8 01	 cmp	 eax, 1
  00039	75 72		 jne	 SHORT $LN2@DrawSelect

; 227  : 	{
; 228  : 		COnePointDrawingData drawingData = COnePointElement::GetOnePointDrawingData(selectedDrawingData);

  0003b	56		 push	 esi
  0003c	8d 85 5c ff ff
	ff		 lea	 eax, DWORD PTR _drawingData$2[ebp]
  00042	8b cf		 mov	 ecx, edi
  00044	50		 push	 eax
  00045	e8 00 00 00 00	 call	 ?GetOnePointDrawingData@COnePointElement@@IBE?AVCOnePointDrawingData@@ABVCSelectedElementDrawingData@@@Z ; COnePointElement::GetOnePointDrawingData

; 229  : 		m_crossLineDrawer.DrawTool(pDC, drawingData, R2_NOT);

  0004a	6a 06		 push	 6
  0004c	8d 85 5c ff ff
	ff		 lea	 eax, DWORD PTR _drawingData$2[ebp]
  00052	c7 45 fc 00 00
	00 00		 mov	 DWORD PTR __$EHRec$[ebp+8], 0
  00059	50		 push	 eax
  0005a	8b 47 7c	 mov	 eax, DWORD PTR [edi+124]
  0005d	8d 4f 7c	 lea	 ecx, DWORD PTR [edi+124]
  00060	ff 75 08	 push	 DWORD PTR _pDC$[ebp]
  00063	8b 40 08	 mov	 eax, DWORD PTR [eax+8]
  00066	03 c8		 add	 ecx, eax
  00068	e8 00 00 00 00	 call	 ?DrawTool@COnePointDrawer@@QAEXPAVCDC@@ABVCOnePointDrawingData@@H@Z ; COnePointDrawer::DrawTool
  0006d	8d 4d d0	 lea	 ecx, DWORD PTR _drawingData$2[ebp+116]
  00070	ff 15 00 00 00
	00		 call	 DWORD PTR __imp_??1?$CStringT@DV?$StrTraitMFC_DLL@DV?$ChTraitsCRT@D@ATL@@@@@ATL@@QAE@XZ
  00076	8d 8d 7c ff ff
	ff		 lea	 ecx, DWORD PTR _drawingData$2[ebp+32]
  0007c	ff 15 00 00 00
	00		 call	 DWORD PTR __imp_??1?$CStringT@DV?$StrTraitMFC_DLL@DV?$ChTraitsCRT@D@ATL@@@@@ATL@@QAE@XZ
  00082	8d 8d 78 ff ff
	ff		 lea	 ecx, DWORD PTR _drawingData$2[ebp+28]
  00088	ff 15 00 00 00
	00		 call	 DWORD PTR __imp_??1?$CStringT@DV?$StrTraitMFC_DLL@DV?$ChTraitsCRT@D@ATL@@@@@ATL@@QAE@XZ
  0008e	8d 8d 74 ff ff
	ff		 lea	 ecx, DWORD PTR _drawingData$2[ebp+24]
  00094	ff 15 00 00 00
	00		 call	 DWORD PTR __imp_??1?$CStringT@DV?$StrTraitMFC_DLL@DV?$ChTraitsCRT@D@ATL@@@@@ATL@@QAE@XZ

; 236  : 			COnePointElement::GetSelectedDrawPoint(selectedDrawingData));
; 237  : 	else
; 238  : 		assert(false);
; 239  : }

  0009a	8b 4d f4	 mov	 ecx, DWORD PTR __$EHRec$[ebp]
  0009d	64 89 0d 00 00
	00 00		 mov	 DWORD PTR fs:0, ecx
  000a4	59		 pop	 ecx
  000a5	5f		 pop	 edi
  000a6	5e		 pop	 esi
  000a7	8b e5		 mov	 esp, ebp
  000a9	5d		 pop	 ebp
  000aa	c2 08 00	 ret	 8
$LN2@DrawSelect:

; 230  : 	}
; 231  : 	else if(selectedDrawingData.GetModifyType() == CToolEnumData::MODIFY_X)

  000ad	8b ce		 mov	 ecx, esi
  000af	e8 00 00 00 00	 call	 ?GetModifyType@CSelectedElementDrawingData@@QBE?AW4ModifyType@CToolEnumData@@XZ ; CSelectedElementDrawingData::GetModifyType
  000b4	83 f8 05	 cmp	 eax, 5
  000b7	75 33		 jne	 SHORT $LN4@DrawSelect

; 232  : 		m_crossLineDrawer.SelectedDraw_VertLine(pDC, *selectedDrawingData.GetDrawingRegions(), 

  000b9	56		 push	 esi
  000ba	8d 45 ec	 lea	 eax, DWORD PTR $T4[ebp]
  000bd	8b cf		 mov	 ecx, edi
  000bf	50		 push	 eax
  000c0	e8 00 00 00 00	 call	 ?GetSelectedDrawPoint@COnePointElement@@IBE?AVCPoint@@ABVCSelectedElementDrawingData@@@Z ; COnePointElement::GetSelectedDrawPoint
  000c5	50		 push	 eax
  000c6	8b ce		 mov	 ecx, esi
  000c8	e8 00 00 00 00	 call	 ?GetDrawingRegions@CSelectedElementDrawingData@@QBEPAVCDrawingRegions@@XZ ; CSelectedElementDrawingData::GetDrawingRegions
  000cd	50		 push	 eax
  000ce	ff 75 08	 push	 DWORD PTR _pDC$[ebp]
  000d1	8d 4f 7c	 lea	 ecx, DWORD PTR [edi+124]
  000d4	e8 00 00 00 00	 call	 ?SelectedDraw_VertLine@CCrossLineDrawer@@QAEXPAVCDC@@ABVCDrawingRegions@@ABVCPoint@@@Z ; CCrossLineDrawer::SelectedDraw_VertLine

; 236  : 			COnePointElement::GetSelectedDrawPoint(selectedDrawingData));
; 237  : 	else
; 238  : 		assert(false);
; 239  : }

  000d9	8b 4d f4	 mov	 ecx, DWORD PTR __$EHRec$[ebp]
  000dc	64 89 0d 00 00
	00 00		 mov	 DWORD PTR fs:0, ecx
  000e3	59		 pop	 ecx
  000e4	5f		 pop	 edi
  000e5	5e		 pop	 esi
  000e6	8b e5		 mov	 esp, ebp
  000e8	5d		 pop	 ebp
  000e9	c2 08 00	 ret	 8
$LN4@DrawSelect:

; 233  : 			COnePointElement::GetSelectedDrawPoint(selectedDrawingData));
; 234  : 	else if(selectedDrawingData.GetModifyType() == CToolEnumData::MODIFY_Y)

  000ec	8b ce		 mov	 ecx, esi
  000ee	e8 00 00 00 00	 call	 ?GetModifyType@CSelectedElementDrawingData@@QBE?AW4ModifyType@CToolEnumData@@XZ ; CSelectedElementDrawingData::GetModifyType
  000f3	83 f8 06	 cmp	 eax, 6
  000f6	75 20		 jne	 SHORT $LN6@DrawSelect

; 235  : 		m_crossLineDrawer.SelectedDraw_HorzLine(pDC, *selectedDrawingData.GetDrawingRegions(), 

  000f8	56		 push	 esi
  000f9	8d 45 e4	 lea	 eax, DWORD PTR $T3[ebp]
  000fc	8b cf		 mov	 ecx, edi
  000fe	50		 push	 eax
  000ff	e8 00 00 00 00	 call	 ?GetSelectedDrawPoint@COnePointElement@@IBE?AVCPoint@@ABVCSelectedElementDrawingData@@@Z ; COnePointElement::GetSelectedDrawPoint
  00104	50		 push	 eax
  00105	8b ce		 mov	 ecx, esi
  00107	e8 00 00 00 00	 call	 ?GetDrawingRegions@CSelectedElementDrawingData@@QBEPAVCDrawingRegions@@XZ ; CSelectedElementDrawingData::GetDrawingRegions
  0010c	50		 push	 eax
  0010d	ff 75 08	 push	 DWORD PTR _pDC$[ebp]
  00110	8d 4f 7c	 lea	 ecx, DWORD PTR [edi+124]
  00113	e8 00 00 00 00	 call	 ?SelectedDraw_HorzLine@CCrossLineDrawer@@QAEXPAVCDC@@ABVCDrawingRegions@@ABVCPoint@@@Z ; CCrossLineDrawer::SelectedDraw_HorzLine
$LN6@DrawSelect:

; 236  : 			COnePointElement::GetSelectedDrawPoint(selectedDrawingData));
; 237  : 	else
; 238  : 		assert(false);
; 239  : }

  00118	8b 4d f4	 mov	 ecx, DWORD PTR __$EHRec$[ebp]
  0011b	64 89 0d 00 00
	00 00		 mov	 DWORD PTR fs:0, ecx
  00122	59		 pop	 ecx
  00123	5f		 pop	 edi
  00124	5e		 pop	 esi
  00125	8b e5		 mov	 esp, ebp
  00127	5d		 pop	 ebp
  00128	c2 08 00	 ret	 8
_TEXT	ENDS
;	COMDAT text$x
text$x	SEGMENT
__unwindfunclet$?DrawSelected@CCrossLine@@UAEXPAVCDC@@ABVCSelectedElementDrawingData@@@Z$0:
  00000	8d 8d 5c ff ff
	ff		 lea	 ecx, DWORD PTR _drawingData$2[ebp]
  00006	e9 00 00 00 00	 jmp	 ??1COnePointDrawingData@@QAE@XZ
  0000b	cc		 int	 3
  0000c	cc		 int	 3
  0000d	cc		 int	 3
  0000e	cc		 int	 3
  0000f	cc		 int	 3
__ehhandler$?DrawSelected@CCrossLine@@UAEXPAVCDC@@ABVCSelectedElementDrawingData@@@Z:
  00010	90		 npad	 1
  00011	90		 npad	 1
  00012	8b 54 24 08	 mov	 edx, DWORD PTR [esp+8]
  00016	8d 42 0c	 lea	 eax, DWORD PTR [edx+12]
  00019	8b 8a 5c ff ff
	ff		 mov	 ecx, DWORD PTR [edx-164]
  0001f	33 c8		 xor	 ecx, eax
  00021	e8 00 00 00 00	 call	 @__security_check_cookie@4
  00026	b8 00 00 00 00	 mov	 eax, OFFSET __ehfuncinfo$?DrawSelected@CCrossLine@@UAEXPAVCDC@@ABVCSelectedElementDrawingData@@@Z
  0002b	e9 00 00 00 00	 jmp	 ___CxxFrameHandler3
text$x	ENDS
?DrawSelected@CCrossLine@@UAEXPAVCDC@@ABVCSelectedElementDrawingData@@@Z ENDP ; CCrossLine::DrawSelected
; Function compile flags: /Ogtp
; File D:\git\src\IBK\IBK_DRFN\ProjSrc\SrcChartEx\ChartAddIn\ChartAnalysisToolAddIn\AnalysisTool\Line.cpp
;	COMDAT ?ElementModify_Coordinate@CCrossLine@@UAEXABVCCoordinate@@W4ModifyType@CToolEnumData@@@Z
_TEXT	SEGMENT
_coordValue$ = 8					; size = 4
_eModifyType$ = 12					; size = 4
?ElementModify_Coordinate@CCrossLine@@UAEXABVCCoordinate@@W4ModifyType@CToolEnumData@@@Z PROC ; CCrossLine::ElementModify_Coordinate, COMDAT
; _this$ = ecx

; 219  : }

  00000	c2 08 00	 ret	 8
?ElementModify_Coordinate@CCrossLine@@UAEXABVCCoordinate@@W4ModifyType@CToolEnumData@@@Z ENDP ; CCrossLine::ElementModify_Coordinate
_TEXT	ENDS
; Function compile flags: /Ogtp
; File D:\git\src\IBK\IBK_DRFN\ProjSrc\SrcChartEx\ChartAddIn\ChartAnalysisToolAddIn\AnalysisTool\Line.cpp
;	COMDAT ?ElementModify_YValue@CCrossLine@@UAEXABVCElementModifyData@@@Z
_TEXT	SEGMENT
_elementModifyData$ = 8					; size = 4
?ElementModify_YValue@CCrossLine@@UAEXABVCElementModifyData@@@Z PROC ; CCrossLine::ElementModify_YValue, COMDAT
; _this$ = ecx

; 222  : }

  00000	c2 04 00	 ret	 4
?ElementModify_YValue@CCrossLine@@UAEXABVCElementModifyData@@@Z ENDP ; CCrossLine::ElementModify_YValue
_TEXT	ENDS
; Function compile flags: /Ogtp
; File D:\git\src\IBK\IBK_DRFN\ProjSrc\SrcChartEx\ChartAddIn\ChartAnalysisToolAddIn\AnalysisTool\Line.cpp
;	COMDAT ?ElementModify@CCrossLine@@UAEXABVCElementModifyData@@@Z
_TEXT	SEGMENT
$T2 = -116						; size = 32
$T3 = -84						; size = 32
$T4 = -84						; size = 32
_modifyPoint$5 = -52					; size = 32
tv228 = -20						; size = 8
tv158 = -20						; size = 8
$T6 = -20						; size = 8
$T7 = -20						; size = 8
__$EHRec$ = -12						; size = 12
_elementModifyData$ = 8					; size = 4
?ElementModify@CCrossLine@@UAEXABVCElementModifyData@@@Z PROC ; CCrossLine::ElementModify, COMDAT
; _this$ = ecx

; 193  : {

  00000	55		 push	 ebp
  00001	8b ec		 mov	 ebp, esp
  00003	6a ff		 push	 -1
  00005	68 00 00 00 00	 push	 __ehhandler$?ElementModify@CCrossLine@@UAEXABVCElementModifyData@@@Z
  0000a	64 a1 00 00 00
	00		 mov	 eax, DWORD PTR fs:0
  00010	50		 push	 eax
  00011	83 ec 68	 sub	 esp, 104		; 00000068H
  00014	56		 push	 esi
  00015	57		 push	 edi
  00016	a1 00 00 00 00	 mov	 eax, DWORD PTR ___security_cookie
  0001b	33 c5		 xor	 eax, ebp
  0001d	50		 push	 eax
  0001e	8d 45 f4	 lea	 eax, DWORD PTR __$EHRec$[ebp]
  00021	64 a3 00 00 00
	00		 mov	 DWORD PTR fs:0, eax
  00027	8b f9		 mov	 edi, ecx

; 194  : 	//>> (2008/12/16 - Seung-Lyong Park)  
; 195  : 	if(elementModifyData.GetModifyType() == CToolEnumData::MODIFY_CENTER){

  00029	8b 75 08	 mov	 esi, DWORD PTR _elementModifyData$[ebp]
  0002c	8b ce		 mov	 ecx, esi
  0002e	e8 00 00 00 00	 call	 ?GetModifyType@CElementModifyData@@QBE?AW4ModifyType@CToolEnumData@@XZ ; CElementModifyData::GetModifyType
  00033	83 f8 01	 cmp	 eax, 1
  00036	0f 85 ac 00 00
	00		 jne	 $LN2@ElementMod

; 196  : 		CCoordinate modifyPoint(elementModifyData.GetModifyPoint(COnePointElement::GetPoint()));

  0003c	8b cf		 mov	 ecx, edi
  0003e	e8 00 00 00 00	 call	 ?GetPoint@COnePointElement@@IAEAAVCCoordinate@@XZ ; COnePointElement::GetPoint
  00043	50		 push	 eax
  00044	8d 45 cc	 lea	 eax, DWORD PTR _modifyPoint$5[ebp]
  00047	8b ce		 mov	 ecx, esi
  00049	50		 push	 eax
  0004a	e8 00 00 00 00	 call	 ?GetModifyPoint@CElementModifyData@@QBE?AVCCoordinate@@ABV2@@Z ; CElementModifyData::GetModifyPoint

; 197  : 		
; 198  : 		if(modifyPoint.GetX() == 0.0 || modifyPoint.GetIndex() < 0)

  0004f	8d 4d cc	 lea	 ecx, DWORD PTR _modifyPoint$5[ebp]
  00052	c7 45 fc 00 00
	00 00		 mov	 DWORD PTR __$EHRec$[ebp+8], 0
  00059	e8 00 00 00 00	 call	 ?GetX@CCoordinate@@QBENXZ ; CCoordinate::GetX
  0005e	dd 5d ec	 fstp	 QWORD PTR tv228[ebp]
  00061	f2 0f 10 45 ec	 movsd	 xmm0, QWORD PTR tv228[ebp]
  00066	0f 57 c9	 xorps	 xmm1, xmm1
  00069	66 0f 2e c1	 ucomisd xmm0, xmm1
  0006d	9f		 lahf
  0006e	f6 c4 44	 test	 ah, 68			; 00000044H
  00071	7b 0c		 jnp	 SHORT $LN5@ElementMod
  00073	8d 4d cc	 lea	 ecx, DWORD PTR _modifyPoint$5[ebp]
  00076	e8 00 00 00 00	 call	 ?GetIndex@CCoordinate@@QBEHXZ ; CCoordinate::GetIndex
  0007b	85 c0		 test	 eax, eax
  0007d	79 56		 jns	 SHORT $LN6@ElementMod
$LN5@ElementMod:

; 199  : 		{
; 200  : 			modifyPoint = elementModifyData.GetModifyPoint(COnePointElement::GetPoint());

  0007f	8b cf		 mov	 ecx, edi
  00081	e8 00 00 00 00	 call	 ?GetPoint@COnePointElement@@IAEAAVCCoordinate@@XZ ; COnePointElement::GetPoint
  00086	50		 push	 eax
  00087	8d 45 ac	 lea	 eax, DWORD PTR $T4[ebp]
  0008a	8b ce		 mov	 ecx, esi
  0008c	50		 push	 eax
  0008d	e8 00 00 00 00	 call	 ?GetModifyPoint@CElementModifyData@@QBE?AVCCoordinate@@ABV2@@Z ; CElementModifyData::GetModifyPoint
  00092	50		 push	 eax
  00093	8d 4d cc	 lea	 ecx, DWORD PTR _modifyPoint$5[ebp]
  00096	c6 45 fc 01	 mov	 BYTE PTR __$EHRec$[ebp+8], 1
  0009a	e8 00 00 00 00	 call	 ??4CCoordinate@@QAEAAV0@ABV0@@Z ; CCoordinate::operator=
  0009f	8d 4d c0	 lea	 ecx, DWORD PTR $T4[ebp+20]
  000a2	c6 45 fc 00	 mov	 BYTE PTR __$EHRec$[ebp+8], 0
  000a6	ff 15 00 00 00
	00		 call	 DWORD PTR __imp_??1?$CStringT@DV?$StrTraitMFC_DLL@DV?$ChTraitsCRT@D@ATL@@@@@ATL@@QAE@XZ

; 201  : 			if(modifyPoint.GetX() == 0.0 || modifyPoint.GetIndex() < 0)

  000ac	8d 4d cc	 lea	 ecx, DWORD PTR _modifyPoint$5[ebp]
  000af	e8 00 00 00 00	 call	 ?GetX@CCoordinate@@QBENXZ ; CCoordinate::GetX
  000b4	dd 5d ec	 fstp	 QWORD PTR tv158[ebp]
  000b7	f2 0f 10 45 ec	 movsd	 xmm0, QWORD PTR tv158[ebp]
  000bc	0f 57 c9	 xorps	 xmm1, xmm1
  000bf	66 0f 2e c1	 ucomisd xmm0, xmm1
  000c3	9f		 lahf
  000c4	f6 c4 44	 test	 ah, 68			; 00000044H
  000c7	7b 17		 jnp	 SHORT $LN7@ElementMod
  000c9	8d 4d cc	 lea	 ecx, DWORD PTR _modifyPoint$5[ebp]
  000cc	e8 00 00 00 00	 call	 ?GetIndex@CCoordinate@@QBEHXZ ; CCoordinate::GetIndex
  000d1	85 c0		 test	 eax, eax
  000d3	78 0b		 js	 SHORT $LN7@ElementMod
$LN6@ElementMod:

; 202  : 				return;
; 203  : 		}
; 204  : 
; 205  : 		COnePointElement::SetPoint(modifyPoint);

  000d5	8d 45 cc	 lea	 eax, DWORD PTR _modifyPoint$5[ebp]
  000d8	8b cf		 mov	 ecx, edi
  000da	50		 push	 eax
  000db	e8 00 00 00 00	 call	 ?SetPoint@COnePointElement@@IAEXABVCCoordinate@@@Z ; COnePointElement::SetPoint
$LN7@ElementMod:

; 212  : 	else
; 213  : 		assert(false);
; 214  : 	//<< (2008/12/16 - Seung-Lyong Park)  
; 215  : }

  000e0	8d 4d e0	 lea	 ecx, DWORD PTR _modifyPoint$5[ebp+20]
  000e3	e9 96 00 00 00	 jmp	 $LN37@ElementMod
$LN2@ElementMod:

; 206  : //		COnePointElement::SetPoint(elementModifyData.GetModifyPoint(COnePointElement::GetPoint()));
; 207  : 	}
; 208  : 	else if(elementModifyData.GetModifyType() == CToolEnumData::MODIFY_X)

  000e8	8b ce		 mov	 ecx, esi
  000ea	e8 00 00 00 00	 call	 ?GetModifyType@CElementModifyData@@QBE?AW4ModifyType@CToolEnumData@@XZ ; CElementModifyData::GetModifyType
  000ef	83 f8 05	 cmp	 eax, 5
  000f2	75 45		 jne	 SHORT $LN8@ElementMod

; 209  : 		ElementModify_X(elementModifyData.GetModifyPoint(COnePointElement::GetPoint()));

  000f4	8b cf		 mov	 ecx, edi
  000f6	e8 00 00 00 00	 call	 ?GetPoint@COnePointElement@@IAEAAVCCoordinate@@XZ ; COnePointElement::GetPoint
  000fb	50		 push	 eax
  000fc	8d 45 ac	 lea	 eax, DWORD PTR $T3[ebp]
  000ff	8b ce		 mov	 ecx, esi
  00101	50		 push	 eax
  00102	e8 00 00 00 00	 call	 ?GetModifyPoint@CElementModifyData@@QBE?AVCCoordinate@@ABV2@@Z ; CElementModifyData::GetModifyPoint
  00107	8b f0		 mov	 esi, eax

; 276  : 	COnePointElement::GetPoint().SetX(modifyPoint.GetX(), modifyPoint.GetIndex());

  00109	8b ce		 mov	 ecx, esi

; 209  : 		ElementModify_X(elementModifyData.GetModifyPoint(COnePointElement::GetPoint()));

  0010b	c7 45 fc 02 00
	00 00		 mov	 DWORD PTR __$EHRec$[ebp+8], 2

; 276  : 	COnePointElement::GetPoint().SetX(modifyPoint.GetX(), modifyPoint.GetIndex());

  00112	e8 00 00 00 00	 call	 ?GetX@CCoordinate@@QBENXZ ; CCoordinate::GetX
  00117	8b ce		 mov	 ecx, esi
  00119	dd 5d ec	 fstp	 QWORD PTR $T7[ebp]
  0011c	e8 00 00 00 00	 call	 ?GetIndex@CCoordinate@@QBEHXZ ; CCoordinate::GetIndex
  00121	50		 push	 eax
  00122	8d 45 ec	 lea	 eax, DWORD PTR $T7[ebp]
  00125	8b cf		 mov	 ecx, edi
  00127	50		 push	 eax
  00128	e8 00 00 00 00	 call	 ?GetPoint@COnePointElement@@IAEAAVCCoordinate@@XZ ; COnePointElement::GetPoint
  0012d	8b c8		 mov	 ecx, eax
  0012f	e8 00 00 00 00	 call	 ?SetX@CCoordinate@@QAEXABNH@Z ; CCoordinate::SetX
  00134	8d 4d c0	 lea	 ecx, DWORD PTR $T3[ebp+20]

; 209  : 		ElementModify_X(elementModifyData.GetModifyPoint(COnePointElement::GetPoint()));

  00137	eb 45		 jmp	 SHORT $LN37@ElementMod
$LN8@ElementMod:

; 210  : 	else if(elementModifyData.GetModifyType() == CToolEnumData::MODIFY_Y)

  00139	8b ce		 mov	 ecx, esi
  0013b	e8 00 00 00 00	 call	 ?GetModifyType@CElementModifyData@@QBE?AW4ModifyType@CToolEnumData@@XZ ; CElementModifyData::GetModifyType
  00140	83 f8 06	 cmp	 eax, 6
  00143	75 3f		 jne	 SHORT $LN10@ElementMod

; 211  : 		ElementModify_Y(elementModifyData.GetModifyPoint(COnePointElement::GetPoint()));

  00145	8b cf		 mov	 ecx, edi
  00147	e8 00 00 00 00	 call	 ?GetPoint@COnePointElement@@IAEAAVCCoordinate@@XZ ; COnePointElement::GetPoint
  0014c	50		 push	 eax
  0014d	8d 45 8c	 lea	 eax, DWORD PTR $T2[ebp]
  00150	8b ce		 mov	 ecx, esi
  00152	50		 push	 eax
  00153	e8 00 00 00 00	 call	 ?GetModifyPoint@CElementModifyData@@QBE?AVCCoordinate@@ABV2@@Z ; CElementModifyData::GetModifyPoint

; 281  : 	COnePointElement::GetPoint().SetY(modifyPoint.GetY());

  00158	8b c8		 mov	 ecx, eax

; 211  : 		ElementModify_Y(elementModifyData.GetModifyPoint(COnePointElement::GetPoint()));

  0015a	c7 45 fc 03 00
	00 00		 mov	 DWORD PTR __$EHRec$[ebp+8], 3

; 281  : 	COnePointElement::GetPoint().SetY(modifyPoint.GetY());

  00161	e8 00 00 00 00	 call	 ?GetY@CCoordinate@@QBENXZ ; CCoordinate::GetY
  00166	8d 45 ec	 lea	 eax, DWORD PTR $T6[ebp]
  00169	8b cf		 mov	 ecx, edi
  0016b	50		 push	 eax
  0016c	dd 5d ec	 fstp	 QWORD PTR $T6[ebp]
  0016f	e8 00 00 00 00	 call	 ?GetPoint@COnePointElement@@IAEAAVCCoordinate@@XZ ; COnePointElement::GetPoint
  00174	8b c8		 mov	 ecx, eax
  00176	e8 00 00 00 00	 call	 ?SetY@CCoordinate@@QAEXABN@Z ; CCoordinate::SetY
  0017b	8d 4d a0	 lea	 ecx, DWORD PTR $T2[ebp+20]
$LN37@ElementMod:

; 212  : 	else
; 213  : 		assert(false);
; 214  : 	//<< (2008/12/16 - Seung-Lyong Park)  
; 215  : }

  0017e	ff 15 00 00 00
	00		 call	 DWORD PTR __imp_??1?$CStringT@DV?$StrTraitMFC_DLL@DV?$ChTraitsCRT@D@ATL@@@@@ATL@@QAE@XZ
$LN10@ElementMod:
  00184	8b 4d f4	 mov	 ecx, DWORD PTR __$EHRec$[ebp]
  00187	64 89 0d 00 00
	00 00		 mov	 DWORD PTR fs:0, ecx
  0018e	59		 pop	 ecx
  0018f	5f		 pop	 edi
  00190	5e		 pop	 esi
  00191	8b e5		 mov	 esp, ebp
  00193	5d		 pop	 ebp
  00194	c2 04 00	 ret	 4
_TEXT	ENDS
;	COMDAT text$x
text$x	SEGMENT
__unwindfunclet$?ElementModify@CCrossLine@@UAEXABVCElementModifyData@@@Z$0:
  00000	8d 4d cc	 lea	 ecx, DWORD PTR _modifyPoint$5[ebp]
  00003	e9 00 00 00 00	 jmp	 ??1CCoordinate@@QAE@XZ
__unwindfunclet$?ElementModify@CCrossLine@@UAEXABVCElementModifyData@@@Z$1:
  00008	8d 4d ac	 lea	 ecx, DWORD PTR $T4[ebp]
  0000b	e9 00 00 00 00	 jmp	 ??1CCoordinate@@QAE@XZ
__unwindfunclet$?ElementModify@CCrossLine@@UAEXABVCElementModifyData@@@Z$2:
  00010	8d 4d ac	 lea	 ecx, DWORD PTR $T3[ebp]
  00013	e9 00 00 00 00	 jmp	 ??1CCoordinate@@QAE@XZ
__unwindfunclet$?ElementModify@CCrossLine@@UAEXABVCElementModifyData@@@Z$3:
  00018	8d 4d 8c	 lea	 ecx, DWORD PTR $T2[ebp]
  0001b	e9 00 00 00 00	 jmp	 ??1CCoordinate@@QAE@XZ
  00020	cc		 int	 3
  00021	cc		 int	 3
  00022	cc		 int	 3
  00023	cc		 int	 3
  00024	cc		 int	 3
__ehhandler$?ElementModify@CCrossLine@@UAEXABVCElementModifyData@@@Z:
  00025	90		 npad	 1
  00026	90		 npad	 1
  00027	8b 54 24 08	 mov	 edx, DWORD PTR [esp+8]
  0002b	8d 42 0c	 lea	 eax, DWORD PTR [edx+12]
  0002e	8b 4a 8c	 mov	 ecx, DWORD PTR [edx-116]
  00031	33 c8		 xor	 ecx, eax
  00033	e8 00 00 00 00	 call	 @__security_check_cookie@4
  00038	b8 00 00 00 00	 mov	 eax, OFFSET __ehfuncinfo$?ElementModify@CCrossLine@@UAEXABVCElementModifyData@@@Z
  0003d	e9 00 00 00 00	 jmp	 ___CxxFrameHandler3
text$x	ENDS
?ElementModify@CCrossLine@@UAEXABVCElementModifyData@@@Z ENDP ; CCrossLine::ElementModify
; Function compile flags: /Ogtp
; File D:\git\src\IBK\IBK_DRFN\ProjSrc\SrcChartEx\ChartAddIn\ChartAnalysisToolAddIn\AnalysisTool\Line.cpp
;	COMDAT ?GetElementType@CCrossLine@@UBE?AW4ElementType@CToolEnumData@@XZ
_TEXT	SEGMENT
?GetElementType@CCrossLine@@UBE?AW4ElementType@CToolEnumData@@XZ PROC ; CCrossLine::GetElementType, COMDAT
; _this$ = ecx

; 188  : 	return CToolEnumData::Cross_Line;

  00000	b8 01 00 00 00	 mov	 eax, 1

; 189  : }

  00005	c3		 ret	 0
?GetElementType@CCrossLine@@UBE?AW4ElementType@CToolEnumData@@XZ ENDP ; CCrossLine::GetElementType
_TEXT	ENDS
; Function compile flags: /Ogtp
; File D:\git\src\IBK\IBK_DRFN\ProjSrc\SrcChartEx\ChartAddIn\ChartAnalysisToolAddIn\AnalysisTool\Line.cpp
;	COMDAT ??0CCrossLine@@QAE@ABVCTextHorzVertPosition@@ABVCCoordinate@@ABVCElementCommonEnvironment@@@Z
_TEXT	SEGMENT
_this$ = -16						; size = 4
__$EHRec$ = -12						; size = 12
_position$ = 8						; size = 4
_point$ = 12						; size = 4
_environment$ = 16					; size = 4
??0CCrossLine@@QAE@ABVCTextHorzVertPosition@@ABVCCoordinate@@ABVCElementCommonEnvironment@@@Z PROC ; CCrossLine::CCrossLine, COMDAT
; _this$ = ecx

; 182  : {

  00000	55		 push	 ebp
  00001	8b ec		 mov	 ebp, esp
  00003	6a ff		 push	 -1
  00005	68 00 00 00 00	 push	 __ehhandler$??0CCrossLine@@QAE@ABVCTextHorzVertPosition@@ABVCCoordinate@@ABVCElementCommonEnvironment@@@Z
  0000a	64 a1 00 00 00
	00		 mov	 eax, DWORD PTR fs:0
  00010	50		 push	 eax
  00011	51		 push	 ecx
  00012	53		 push	 ebx
  00013	56		 push	 esi
  00014	57		 push	 edi
  00015	a1 00 00 00 00	 mov	 eax, DWORD PTR ___security_cookie
  0001a	33 c5		 xor	 eax, ebp
  0001c	50		 push	 eax
  0001d	8d 45 f4	 lea	 eax, DWORD PTR __$EHRec$[ebp]
  00020	64 a3 00 00 00
	00		 mov	 DWORD PTR fs:0, eax
  00026	8b d9		 mov	 ebx, ecx
  00028	89 5d f0	 mov	 DWORD PTR _this$[ebp], ebx

; 180  : 	CVertElement(point, environment),

  0002b	ff 75 10	 push	 DWORD PTR _environment$[ebp]
  0002e	ff 75 0c	 push	 DWORD PTR _point$[ebp]
  00031	e8 00 00 00 00	 call	 ??0CVertElement@@QAE@ABVCCoordinate@@ABVCElementCommonEnvironment@@@Z ; CVertElement::CVertElement

; 181  : 	m_textPosition(position)

  00036	8b 75 08	 mov	 esi, DWORD PTR _position$[ebp]
  00039	8d 4b 74	 lea	 ecx, DWORD PTR [ebx+116]

; 182  : {

  0003c	c7 03 00 00 00
	00		 mov	 DWORD PTR [ebx], OFFSET ??_7CCrossLine@@6B@
  00042	c7 45 fc 00 00
	00 00		 mov	 DWORD PTR __$EHRec$[ebp+8], 0
  00049	c7 43 70 00 00
	00 00		 mov	 DWORD PTR [ebx+112], OFFSET ??_7CTextPosition@@6B@
  00050	8d 46 04	 lea	 eax, DWORD PTR [esi+4]
  00053	50		 push	 eax
  00054	e8 00 00 00 00	 call	 ??0CTextEnvironment@@QAE@ABV0@@Z ; CTextEnvironment::CTextEnvironment
  00059	c7 43 70 00 00
	00 00		 mov	 DWORD PTR [ebx+112], OFFSET ??_7CTextHorzVertPosition@@6B@
  00060	8d 8b 94 00 00
	00		 lea	 ecx, DWORD PTR [ebx+148]
  00066	0f b6 46 08	 movzx	 eax, BYTE PTR [esi+8]
  0006a	88 43 78	 mov	 BYTE PTR [ebx+120], al
  0006d	0f b6 46 09	 movzx	 eax, BYTE PTR [esi+9]
  00071	88 43 79	 mov	 BYTE PTR [ebx+121], al
  00074	0f b6 46 0a	 movzx	 eax, BYTE PTR [esi+10]
  00078	88 43 7a	 mov	 BYTE PTR [ebx+122], al
  0007b	0f b6 46 0b	 movzx	 eax, BYTE PTR [esi+11]
  0007f	88 43 7b	 mov	 BYTE PTR [ebx+123], al
  00082	c7 43 7c 00 00
	00 00		 mov	 DWORD PTR [ebx+124], OFFSET ??_8CCrossLineDrawer@@7BCVertLineDrawer@@@
  00089	c7 83 88 00 00
	00 00 00 00 00	 mov	 DWORD PTR [ebx+136], OFFSET ??_8CCrossLineDrawer@@7BCHorzLineDrawer@@@
  00093	c7 83 b0 00 00
	00 00 00 00 00	 mov	 DWORD PTR [ebx+176], OFFSET ??_8CCrossLineDrawer@@7BCOnePointDrawer@@@
  0009d	e8 00 00 00 00	 call	 ??0CDrawer@@QAE@XZ	; CDrawer::CDrawer
  000a2	6a 00		 push	 0
  000a4	8d 4b 7c	 lea	 ecx, DWORD PTR [ebx+124]
  000a7	c7 83 ac 00 00
	00 00 00 00 00	 mov	 DWORD PTR [ebx+172], OFFSET ??_7COnePointDrawer@@6B@
  000b1	e8 00 00 00 00	 call	 ??0CVertLineDrawer@@QAE@XZ ; CVertLineDrawer::CVertLineDrawer
  000b6	6a 00		 push	 0
  000b8	8d 8b 88 00 00
	00		 lea	 ecx, DWORD PTR [ebx+136]
  000be	e8 00 00 00 00	 call	 ??0CHorzLineDrawer@@QAE@XZ ; CHorzLineDrawer::CHorzLineDrawer
  000c3	8b 43 7c	 mov	 eax, DWORD PTR [ebx+124]
  000c6	8b 40 08	 mov	 eax, DWORD PTR [eax+8]
  000c9	c7 44 03 7c 00
	00 00 00	 mov	 DWORD PTR [ebx+eax+124], OFFSET ??_7CCrossLineDrawer@@6B@
  000d1	8b 43 7c	 mov	 eax, DWORD PTR [ebx+124]
  000d4	8b 40 08	 mov	 eax, DWORD PTR [eax+8]
  000d7	c7 44 18 78 00
	00 00 00	 mov	 DWORD PTR [eax+ebx+120], 0

; 183  : }

  000df	8b c3		 mov	 eax, ebx
  000e1	8b 4d f4	 mov	 ecx, DWORD PTR __$EHRec$[ebp]
  000e4	64 89 0d 00 00
	00 00		 mov	 DWORD PTR fs:0, ecx
  000eb	59		 pop	 ecx
  000ec	5f		 pop	 edi
  000ed	5e		 pop	 esi
  000ee	5b		 pop	 ebx
  000ef	8b e5		 mov	 esp, ebp
  000f1	5d		 pop	 ebp
  000f2	c2 0c 00	 ret	 12			; 0000000cH
_TEXT	ENDS
;	COMDAT text$x
text$x	SEGMENT
__unwindfunclet$??0CCrossLine@@QAE@ABVCTextHorzVertPosition@@ABVCCoordinate@@ABVCElementCommonEnvironment@@@Z$0:
  00000	8b 4d f0	 mov	 ecx, DWORD PTR _this$[ebp]
  00003	e9 00 00 00 00	 jmp	 ??1CVertElement@@UAE@XZ
  00008	cc		 int	 3
  00009	cc		 int	 3
  0000a	cc		 int	 3
  0000b	cc		 int	 3
  0000c	cc		 int	 3
__ehhandler$??0CCrossLine@@QAE@ABVCTextHorzVertPosition@@ABVCCoordinate@@ABVCElementCommonEnvironment@@@Z:
  0000d	90		 npad	 1
  0000e	90		 npad	 1
  0000f	8b 54 24 08	 mov	 edx, DWORD PTR [esp+8]
  00013	8d 42 0c	 lea	 eax, DWORD PTR [edx+12]
  00016	8b 4a ec	 mov	 ecx, DWORD PTR [edx-20]
  00019	33 c8		 xor	 ecx, eax
  0001b	e8 00 00 00 00	 call	 @__security_check_cookie@4
  00020	b8 00 00 00 00	 mov	 eax, OFFSET __ehfuncinfo$??0CCrossLine@@QAE@ABVCTextHorzVertPosition@@ABVCCoordinate@@ABVCElementCommonEnvironment@@@Z
  00025	e9 00 00 00 00	 jmp	 ___CxxFrameHandler3
text$x	ENDS
??0CCrossLine@@QAE@ABVCTextHorzVertPosition@@ABVCCoordinate@@ABVCElementCommonEnvironment@@@Z ENDP ; CCrossLine::CCrossLine
; Function compile flags: /Ogtp
; File D:\git\src\IBK\IBK_DRFN\ProjSrc\SrcChartEx\ChartAddIn\ChartAnalysisToolAddIn\AnalysisTool\Element.h
;	COMDAT ??_GCHorzLine@@UAEPAXI@Z
_TEXT	SEGMENT
___flags$ = 8						; size = 4
??_GCHorzLine@@UAEPAXI@Z PROC				; CHorzLine::`scalar deleting destructor', COMDAT
; _this$ = ecx
  00000	55		 push	 ebp
  00001	8b ec		 mov	 ebp, esp

; 31   : 	virtual ~CElement()	{}

  00003	56		 push	 esi
  00004	8b f1		 mov	 esi, ecx
  00006	8d 4e 64	 lea	 ecx, DWORD PTR [esi+100]
  00009	ff 15 00 00 00
	00		 call	 DWORD PTR __imp_??1?$CStringT@DV?$StrTraitMFC_DLL@DV?$ChTraitsCRT@D@ATL@@@@@ATL@@QAE@XZ
  0000f	8d 4e 40	 lea	 ecx, DWORD PTR [esi+64]
  00012	c7 06 00 00 00
	00		 mov	 DWORD PTR [esi], OFFSET ??_7CElement@@6B@
  00018	ff 15 00 00 00
	00		 call	 DWORD PTR __imp_??1?$CStringT@DV?$StrTraitMFC_DLL@DV?$ChTraitsCRT@D@ATL@@@@@ATL@@QAE@XZ
  0001e	8d 4e 3c	 lea	 ecx, DWORD PTR [esi+60]
  00021	ff 15 00 00 00
	00		 call	 DWORD PTR __imp_??1?$CStringT@DV?$StrTraitMFC_DLL@DV?$ChTraitsCRT@D@ATL@@@@@ATL@@QAE@XZ
  00027	8d 4e 38	 lea	 ecx, DWORD PTR [esi+56]
  0002a	ff 15 00 00 00
	00		 call	 DWORD PTR __imp_??1?$CStringT@DV?$StrTraitMFC_DLL@DV?$ChTraitsCRT@D@ATL@@@@@ATL@@QAE@XZ
  00030	f6 45 08 01	 test	 BYTE PTR ___flags$[ebp], 1
  00034	74 0e		 je	 SHORT $LN22@scalar
  00036	68 a8 00 00 00	 push	 168			; 000000a8H
  0003b	56		 push	 esi
  0003c	e8 00 00 00 00	 call	 ??3@YAXPAXI@Z		; operator delete
  00041	83 c4 08	 add	 esp, 8
$LN22@scalar:
  00044	8b c6		 mov	 eax, esi
  00046	5e		 pop	 esi
  00047	5d		 pop	 ebp
  00048	c2 04 00	 ret	 4
??_GCHorzLine@@UAEPAXI@Z ENDP				; CHorzLine::`scalar deleting destructor'
_TEXT	ENDS
; Function compile flags: /Ogtp
; File D:\git\src\IBK\IBK_DRFN\ProjSrc\SrcChartEx\ChartAddIn\ChartAnalysisToolAddIn\AnalysisTool\Line.cpp
; File C:\Program Files (x86)\Microsoft Visual Studio\2019\Community\VC\Tools\MSVC\14.29.30133\atlmfc\include\atltypes.h
; File D:\git\src\IBK\IBK_DRFN\ProjSrc\SrcChartEx\ChartAddIn\ChartAnalysisToolAddIn\AnalysisTool\Line.cpp
; File C:\Program Files (x86)\Microsoft Visual Studio\2019\Community\VC\Tools\MSVC\14.29.30133\atlmfc\include\atltypes.h
; File D:\git\src\IBK\IBK_DRFN\ProjSrc\SrcChartEx\ChartAddIn\ChartAnalysisToolAddIn\AnalysisTool\Line.cpp
; File C:\Program Files (x86)\Microsoft Visual Studio\2019\Community\VC\Tools\MSVC\14.29.30133\atlmfc\include\atltypes.h
; File D:\git\src\IBK\IBK_DRFN\ProjSrc\SrcChartEx\ChartAddIn\ChartAnalysisToolAddIn\AnalysisTool\Line.cpp
; File C:\Program Files (x86)\Microsoft Visual Studio\2019\Community\VC\Tools\MSVC\14.29.30133\atlmfc\include\atltypes.h
; File D:\git\src\IBK\IBK_DRFN\ProjSrc\SrcChartEx\ChartAddIn\ChartAnalysisToolAddIn\AnalysisTool\Line.cpp
;	COMDAT ?PointInElementSelectableRegion@CHorzLine@@ABE_NABVCRect@@ABVCPoint@@1@Z
_TEXT	SEGMENT
$T1 = -16						; size = 8
$T2 = -8						; size = 8
_region$ = 8						; size = 4
_regionPt$ = 12						; size = 4
_point$ = 16						; size = 4
?PointInElementSelectableRegion@CHorzLine@@ABE_NABVCRect@@ABVCPoint@@1@Z PROC ; CHorzLine::PointInElementSelectableRegion, COMDAT
; _this$ = ecx

; 172  : {

  00000	55		 push	 ebp
  00001	8b ec		 mov	 ebp, esp
  00003	83 ec 10	 sub	 esp, 16			; 00000010H
  00006	56		 push	 esi
; File C:\Program Files (x86)\Microsoft Visual Studio\2019\Community\VC\Tools\MSVC\14.29.30133\atlmfc\include\atltypes.h

; 408  : 	x = initX;

  00007	8b 75 08	 mov	 esi, DWORD PTR _region$[ebp]
; File D:\git\src\IBK\IBK_DRFN\ProjSrc\SrcChartEx\ChartAddIn\ChartAnalysisToolAddIn\AnalysisTool\Line.cpp

; 173  : 	return CElement::PointInElementSelectableRegion(CPoint(region.left, regionPt.y), CPoint(region.right, regionPt.y), point);

  0000a	ff 75 10	 push	 DWORD PTR _point$[ebp]
; File C:\Program Files (x86)\Microsoft Visual Studio\2019\Community\VC\Tools\MSVC\14.29.30133\atlmfc\include\atltypes.h

; 408  : 	x = initX;

  0000d	8b 46 08	 mov	 eax, DWORD PTR [esi+8]
  00010	89 45 f8	 mov	 DWORD PTR $T2[ebp], eax

; 409  : 	y = initY;

  00013	8b 45 0c	 mov	 eax, DWORD PTR _regionPt$[ebp]
  00016	8b 50 04	 mov	 edx, DWORD PTR [eax+4]

; 408  : 	x = initX;

  00019	8b 06		 mov	 eax, DWORD PTR [esi]
  0001b	89 45 f0	 mov	 DWORD PTR $T1[ebp], eax
; File D:\git\src\IBK\IBK_DRFN\ProjSrc\SrcChartEx\ChartAddIn\ChartAnalysisToolAddIn\AnalysisTool\Line.cpp

; 173  : 	return CElement::PointInElementSelectableRegion(CPoint(region.left, regionPt.y), CPoint(region.right, regionPt.y), point);

  0001e	8d 45 f8	 lea	 eax, DWORD PTR $T2[ebp]
  00021	50		 push	 eax
  00022	8d 45 f0	 lea	 eax, DWORD PTR $T1[ebp]
; File C:\Program Files (x86)\Microsoft Visual Studio\2019\Community\VC\Tools\MSVC\14.29.30133\atlmfc\include\atltypes.h

; 409  : 	y = initY;

  00025	89 55 fc	 mov	 DWORD PTR $T2[ebp+4], edx
; File D:\git\src\IBK\IBK_DRFN\ProjSrc\SrcChartEx\ChartAddIn\ChartAnalysisToolAddIn\AnalysisTool\Line.cpp

; 173  : 	return CElement::PointInElementSelectableRegion(CPoint(region.left, regionPt.y), CPoint(region.right, regionPt.y), point);

  00028	50		 push	 eax
; File C:\Program Files (x86)\Microsoft Visual Studio\2019\Community\VC\Tools\MSVC\14.29.30133\atlmfc\include\atltypes.h

; 409  : 	y = initY;

  00029	89 55 f4	 mov	 DWORD PTR $T1[ebp+4], edx
; File D:\git\src\IBK\IBK_DRFN\ProjSrc\SrcChartEx\ChartAddIn\ChartAnalysisToolAddIn\AnalysisTool\Line.cpp

; 173  : 	return CElement::PointInElementSelectableRegion(CPoint(region.left, regionPt.y), CPoint(region.right, regionPt.y), point);

  0002c	e8 00 00 00 00	 call	 ?PointInElementSelectableRegion@CElement@@IBE_NABVCPoint@@00@Z ; CElement::PointInElementSelectableRegion
  00031	5e		 pop	 esi

; 174  : }

  00032	8b e5		 mov	 esp, ebp
  00034	5d		 pop	 ebp
  00035	c2 0c 00	 ret	 12			; 0000000cH
?PointInElementSelectableRegion@CHorzLine@@ABE_NABVCRect@@ABVCPoint@@1@Z ENDP ; CHorzLine::PointInElementSelectableRegion
_TEXT	ENDS
; Function compile flags: /Ogtp
; File D:\git\src\IBK\IBK_DRFN\ProjSrc\SrcChartEx\ChartAddIn\ChartAnalysisToolAddIn\AnalysisTool\Line.cpp
; File C:\Program Files (x86)\Microsoft Visual Studio\2019\Community\VC\Tools\MSVC\14.29.30133\atlmfc\include\atltypes.h
; File D:\git\src\IBK\IBK_DRFN\ProjSrc\SrcChartEx\ChartAddIn\ChartAnalysisToolAddIn\AnalysisTool\Line.cpp
; File C:\Program Files (x86)\Microsoft Visual Studio\2019\Community\VC\Tools\MSVC\14.29.30133\atlmfc\include\atltypes.h
; File D:\git\src\IBK\IBK_DRFN\ProjSrc\SrcChartEx\ChartAddIn\ChartAnalysisToolAddIn\AnalysisTool\Line.cpp
; File C:\Program Files (x86)\Microsoft Visual Studio\2019\Community\VC\Tools\MSVC\14.29.30133\atlmfc\include\atltypes.h
; File D:\git\src\IBK\IBK_DRFN\ProjSrc\SrcChartEx\ChartAddIn\ChartAnalysisToolAddIn\AnalysisTool\Line.cpp
;	COMDAT ?GetModifyType@CHorzLine@@MBE?AW4ModifyType@CToolEnumData@@ABVCDisplayData@@ABVCPoint@@1@Z
_TEXT	SEGMENT
$T1 = -36						; size = 8
$T2 = -28						; size = 8
$T3 = -20						; size = 16
__$ArrayPad$ = -4					; size = 4
_displayData$ = 8					; size = 4
_elementDrawingPt$ = 12					; size = 4
_point$ = 16						; size = 4
?GetModifyType@CHorzLine@@MBE?AW4ModifyType@CToolEnumData@@ABVCDisplayData@@ABVCPoint@@1@Z PROC ; CHorzLine::GetModifyType, COMDAT
; _this$ = ecx

; 163  : {

  00000	55		 push	 ebp
  00001	8b ec		 mov	 ebp, esp
  00003	83 ec 24	 sub	 esp, 36			; 00000024H
  00006	a1 00 00 00 00	 mov	 eax, DWORD PTR ___security_cookie
  0000b	33 c5		 xor	 eax, ebp
  0000d	89 45 fc	 mov	 DWORD PTR __$ArrayPad$[ebp], eax
  00010	56		 push	 esi
  00011	8b 75 10	 mov	 esi, DWORD PTR _point$[ebp]

; 164  : 	if(PointInElementSelectableRegion(displayData.GetDisplayRegion(), elementDrawingPt, point))

  00014	8d 45 ec	 lea	 eax, DWORD PTR $T3[ebp]
  00017	57		 push	 edi
  00018	8b f9		 mov	 edi, ecx
  0001a	8b 4d 08	 mov	 ecx, DWORD PTR _displayData$[ebp]
  0001d	50		 push	 eax
  0001e	e8 00 00 00 00	 call	 ?GetDisplayRegion@CDisplayData@@QBE?AVCRect@@XZ ; CDisplayData::GetDisplayRegion

; 173  : 	return CElement::PointInElementSelectableRegion(CPoint(region.left, regionPt.y), CPoint(region.right, regionPt.y), point);

  00023	56		 push	 esi
; File C:\Program Files (x86)\Microsoft Visual Studio\2019\Community\VC\Tools\MSVC\14.29.30133\atlmfc\include\atltypes.h

; 408  : 	x = initX;

  00024	8b 48 08	 mov	 ecx, DWORD PTR [eax+8]
  00027	8b 00		 mov	 eax, DWORD PTR [eax]
  00029	89 4d e4	 mov	 DWORD PTR $T2[ebp], ecx

; 409  : 	y = initY;

  0002c	8b 4d 0c	 mov	 ecx, DWORD PTR _elementDrawingPt$[ebp]

; 408  : 	x = initX;

  0002f	89 45 dc	 mov	 DWORD PTR $T1[ebp], eax
; File D:\git\src\IBK\IBK_DRFN\ProjSrc\SrcChartEx\ChartAddIn\ChartAnalysisToolAddIn\AnalysisTool\Line.cpp

; 173  : 	return CElement::PointInElementSelectableRegion(CPoint(region.left, regionPt.y), CPoint(region.right, regionPt.y), point);

  00032	8d 45 e4	 lea	 eax, DWORD PTR $T2[ebp]
  00035	50		 push	 eax
  00036	8d 45 dc	 lea	 eax, DWORD PTR $T1[ebp]
; File C:\Program Files (x86)\Microsoft Visual Studio\2019\Community\VC\Tools\MSVC\14.29.30133\atlmfc\include\atltypes.h

; 409  : 	y = initY;

  00039	8b 51 04	 mov	 edx, DWORD PTR [ecx+4]
; File D:\git\src\IBK\IBK_DRFN\ProjSrc\SrcChartEx\ChartAddIn\ChartAnalysisToolAddIn\AnalysisTool\Line.cpp

; 173  : 	return CElement::PointInElementSelectableRegion(CPoint(region.left, regionPt.y), CPoint(region.right, regionPt.y), point);

  0003c	8b cf		 mov	 ecx, edi
  0003e	50		 push	 eax
; File C:\Program Files (x86)\Microsoft Visual Studio\2019\Community\VC\Tools\MSVC\14.29.30133\atlmfc\include\atltypes.h

; 409  : 	y = initY;

  0003f	89 55 e8	 mov	 DWORD PTR $T2[ebp+4], edx
  00042	89 55 e0	 mov	 DWORD PTR $T1[ebp+4], edx
; File D:\git\src\IBK\IBK_DRFN\ProjSrc\SrcChartEx\ChartAddIn\ChartAnalysisToolAddIn\AnalysisTool\Line.cpp

; 173  : 	return CElement::PointInElementSelectableRegion(CPoint(region.left, regionPt.y), CPoint(region.right, regionPt.y), point);

  00045	e8 00 00 00 00	 call	 ?PointInElementSelectableRegion@CElement@@IBE_NABVCPoint@@00@Z ; CElement::PointInElementSelectableRegion

; 165  : 		return CToolEnumData::MODIFY_Y;
; 166  : 	return CToolEnumData::MODIFY_NONE;
; 167  : }

  0004a	8b 4d fc	 mov	 ecx, DWORD PTR __$ArrayPad$[ebp]
  0004d	0f b6 c0	 movzx	 eax, al
  00050	f7 d8		 neg	 eax
  00052	5f		 pop	 edi
  00053	1b c0		 sbb	 eax, eax
  00055	33 cd		 xor	 ecx, ebp
  00057	83 e0 06	 and	 eax, 6
  0005a	5e		 pop	 esi
  0005b	e8 00 00 00 00	 call	 @__security_check_cookie@4
  00060	8b e5		 mov	 esp, ebp
  00062	5d		 pop	 ebp
  00063	c2 0c 00	 ret	 12			; 0000000cH
?GetModifyType@CHorzLine@@MBE?AW4ModifyType@CToolEnumData@@ABVCDisplayData@@ABVCPoint@@1@Z ENDP ; CHorzLine::GetModifyType
_TEXT	ENDS
; Function compile flags: /Ogtp
; File D:\git\src\IBK\IBK_DRFN\ProjSrc\SrcChartEx\ChartAddIn\ChartAnalysisToolAddIn\AnalysisTool\Line.cpp
;	COMDAT ?GetOnePointDrawer@CHorzLine@@MAEAAVCOnePointDrawer@@XZ
_TEXT	SEGMENT
?GetOnePointDrawer@CHorzLine@@MAEAAVCOnePointDrawer@@XZ PROC ; CHorzLine::GetOnePointDrawer, COMDAT
; _this$ = ecx

; 158  : 	return m_horzLineDrawer;

  00000	8b 41 7c	 mov	 eax, DWORD PTR [ecx+124]
  00003	8b 40 08	 mov	 eax, DWORD PTR [eax+8]
  00006	83 c0 7c	 add	 eax, 124		; 0000007cH
  00009	03 c1		 add	 eax, ecx

; 159  : }

  0000b	c3		 ret	 0
?GetOnePointDrawer@CHorzLine@@MAEAAVCOnePointDrawer@@XZ ENDP ; CHorzLine::GetOnePointDrawer
_TEXT	ENDS
; Function compile flags: /Ogtp
; File D:\git\src\IBK\IBK_DRFN\ProjSrc\SrcChartEx\ChartAddIn\ChartAnalysisToolAddIn\AnalysisTool\Line.cpp
;	COMDAT ?GetTextPosition@CHorzLine@@MAEPAVCTextPosition@@XZ
_TEXT	SEGMENT
?GetTextPosition@CHorzLine@@MAEPAVCTextPosition@@XZ PROC ; CHorzLine::GetTextPosition, COMDAT
; _this$ = ecx

; 153  : 	return &m_textPosition;

  00000	8d 41 70	 lea	 eax, DWORD PTR [ecx+112]

; 154  : }

  00003	c3		 ret	 0
?GetTextPosition@CHorzLine@@MAEPAVCTextPosition@@XZ ENDP ; CHorzLine::GetTextPosition
_TEXT	ENDS
; Function compile flags: /Ogtp
; File D:\git\src\IBK\IBK_DRFN\ProjSrc\SrcChartEx\ChartAddIn\ChartAnalysisToolAddIn\AnalysisTool\Line.cpp
;	COMDAT ?GetTextPosition@CHorzLine@@MBEPBVCTextPosition@@XZ
_TEXT	SEGMENT
?GetTextPosition@CHorzLine@@MBEPBVCTextPosition@@XZ PROC ; CHorzLine::GetTextPosition, COMDAT
; _this$ = ecx

; 148  : 	return &m_textPosition;

  00000	8d 41 70	 lea	 eax, DWORD PTR [ecx+112]

; 149  : }

  00003	c3		 ret	 0
?GetTextPosition@CHorzLine@@MBEPBVCTextPosition@@XZ ENDP ; CHorzLine::GetTextPosition
_TEXT	ENDS
; Function compile flags: /Ogtp
; File D:\git\src\IBK\IBK_DRFN\ProjSrc\SrcChartEx\ChartAddIn\ChartAnalysisToolAddIn\AnalysisTool\Line.cpp
;	COMDAT ?ElementModify_Coordinate@CHorzLine@@UAEXABVCCoordinate@@W4ModifyType@CToolEnumData@@@Z
_TEXT	SEGMENT
_coordValue$ = 8					; size = 4
_eModifyType$ = 12					; size = 4
?ElementModify_Coordinate@CHorzLine@@UAEXABVCCoordinate@@W4ModifyType@CToolEnumData@@@Z PROC ; CHorzLine::ElementModify_Coordinate, COMDAT
; _this$ = ecx

; 143  : }

  00000	c2 08 00	 ret	 8
?ElementModify_Coordinate@CHorzLine@@UAEXABVCCoordinate@@W4ModifyType@CToolEnumData@@@Z ENDP ; CHorzLine::ElementModify_Coordinate
_TEXT	ENDS
; Function compile flags: /Ogtp
; File D:\git\src\IBK\IBK_DRFN\ProjSrc\SrcChartEx\ChartAddIn\ChartAnalysisToolAddIn\AnalysisTool\Line.cpp
;	COMDAT ?ElementModify_YValue@CHorzLine@@UAEXABVCElementModifyData@@@Z
_TEXT	SEGMENT
_elementModifyData$ = 8					; size = 4
?ElementModify_YValue@CHorzLine@@UAEXABVCElementModifyData@@@Z PROC ; CHorzLine::ElementModify_YValue, COMDAT
; _this$ = ecx

; 140  : }

  00000	c2 04 00	 ret	 4
?ElementModify_YValue@CHorzLine@@UAEXABVCElementModifyData@@@Z ENDP ; CHorzLine::ElementModify_YValue
_TEXT	ENDS
; Function compile flags: /Ogtp
; File D:\git\src\IBK\IBK_DRFN\ProjSrc\SrcChartEx\ChartAddIn\ChartAnalysisToolAddIn\AnalysisTool\Line.cpp
;	COMDAT ?ElementModify@CHorzLine@@UAEXABVCElementModifyData@@@Z
_TEXT	SEGMENT
$T2 = -44						; size = 32
__$EHRec$ = -12						; size = 12
_elementModifyData$ = 8					; size = 4
?ElementModify@CHorzLine@@UAEXABVCElementModifyData@@@Z PROC ; CHorzLine::ElementModify, COMDAT
; _this$ = ecx

; 133  : {

  00000	55		 push	 ebp
  00001	8b ec		 mov	 ebp, esp
  00003	6a ff		 push	 -1
  00005	68 00 00 00 00	 push	 __ehhandler$?ElementModify@CHorzLine@@UAEXABVCElementModifyData@@@Z
  0000a	64 a1 00 00 00
	00		 mov	 eax, DWORD PTR fs:0
  00010	50		 push	 eax
  00011	83 ec 20	 sub	 esp, 32			; 00000020H
  00014	56		 push	 esi
  00015	a1 00 00 00 00	 mov	 eax, DWORD PTR ___security_cookie
  0001a	33 c5		 xor	 eax, ebp
  0001c	50		 push	 eax
  0001d	8d 45 f4	 lea	 eax, DWORD PTR __$EHRec$[ebp]
  00020	64 a3 00 00 00
	00		 mov	 DWORD PTR fs:0, eax
  00026	8b f1		 mov	 esi, ecx

; 134  : 	assert(elementModifyData.GetModifyType() == CToolEnumData::MODIFY_Y);
; 135  : 	COnePointElement::SetPoint(elementModifyData.GetModifyPoint(COnePointElement::GetPoint()));

  00028	e8 00 00 00 00	 call	 ?GetPoint@COnePointElement@@IAEAAVCCoordinate@@XZ ; COnePointElement::GetPoint
  0002d	8b 4d 08	 mov	 ecx, DWORD PTR _elementModifyData$[ebp]
  00030	50		 push	 eax
  00031	8d 45 d4	 lea	 eax, DWORD PTR $T2[ebp]
  00034	50		 push	 eax
  00035	e8 00 00 00 00	 call	 ?GetModifyPoint@CElementModifyData@@QBE?AVCCoordinate@@ABV2@@Z ; CElementModifyData::GetModifyPoint
  0003a	50		 push	 eax
  0003b	8b ce		 mov	 ecx, esi
  0003d	c7 45 fc 00 00
	00 00		 mov	 DWORD PTR __$EHRec$[ebp+8], 0
  00044	e8 00 00 00 00	 call	 ?SetPoint@COnePointElement@@IAEXABVCCoordinate@@@Z ; COnePointElement::SetPoint
  00049	8d 4d e8	 lea	 ecx, DWORD PTR $T2[ebp+20]
  0004c	ff 15 00 00 00
	00		 call	 DWORD PTR __imp_??1?$CStringT@DV?$StrTraitMFC_DLL@DV?$ChTraitsCRT@D@ATL@@@@@ATL@@QAE@XZ

; 136  : }

  00052	8b 4d f4	 mov	 ecx, DWORD PTR __$EHRec$[ebp]
  00055	64 89 0d 00 00
	00 00		 mov	 DWORD PTR fs:0, ecx
  0005c	59		 pop	 ecx
  0005d	5e		 pop	 esi
  0005e	8b e5		 mov	 esp, ebp
  00060	5d		 pop	 ebp
  00061	c2 04 00	 ret	 4
_TEXT	ENDS
;	COMDAT text$x
text$x	SEGMENT
__unwindfunclet$?ElementModify@CHorzLine@@UAEXABVCElementModifyData@@@Z$0:
  00000	8d 4d d4	 lea	 ecx, DWORD PTR $T2[ebp]
  00003	e9 00 00 00 00	 jmp	 ??1CCoordinate@@QAE@XZ
  00008	cc		 int	 3
  00009	cc		 int	 3
  0000a	cc		 int	 3
  0000b	cc		 int	 3
  0000c	cc		 int	 3
__ehhandler$?ElementModify@CHorzLine@@UAEXABVCElementModifyData@@@Z:
  0000d	90		 npad	 1
  0000e	90		 npad	 1
  0000f	8b 54 24 08	 mov	 edx, DWORD PTR [esp+8]
  00013	8d 42 0c	 lea	 eax, DWORD PTR [edx+12]
  00016	8b 4a d8	 mov	 ecx, DWORD PTR [edx-40]
  00019	33 c8		 xor	 ecx, eax
  0001b	e8 00 00 00 00	 call	 @__security_check_cookie@4
  00020	b8 00 00 00 00	 mov	 eax, OFFSET __ehfuncinfo$?ElementModify@CHorzLine@@UAEXABVCElementModifyData@@@Z
  00025	e9 00 00 00 00	 jmp	 ___CxxFrameHandler3
text$x	ENDS
?ElementModify@CHorzLine@@UAEXABVCElementModifyData@@@Z ENDP ; CHorzLine::ElementModify
; Function compile flags: /Ogtp
; File D:\git\src\IBK\IBK_DRFN\ProjSrc\SrcChartEx\ChartAddIn\ChartAnalysisToolAddIn\AnalysisTool\Line.cpp
;	COMDAT ?GetElementType@CHorzLine@@UBE?AW4ElementType@CToolEnumData@@XZ
_TEXT	SEGMENT
?GetElementType@CHorzLine@@UBE?AW4ElementType@CToolEnumData@@XZ PROC ; CHorzLine::GetElementType, COMDAT
; _this$ = ecx

; 128  : 	return CToolEnumData::Horz_Line;

  00000	b8 04 00 00 00	 mov	 eax, 4

; 129  : }

  00005	c3		 ret	 0
?GetElementType@CHorzLine@@UBE?AW4ElementType@CToolEnumData@@XZ ENDP ; CHorzLine::GetElementType
_TEXT	ENDS
; Function compile flags: /Ogtp
; File D:\git\src\IBK\IBK_DRFN\ProjSrc\SrcChartEx\ChartAddIn\ChartAnalysisToolAddIn\AnalysisTool\Line.cpp
;	COMDAT ??0CHorzLine@@QAE@ABVCTextHorzPosition@@ABVCCoordinate@@ABVCElementCommonEnvironment@@@Z
_TEXT	SEGMENT
_this$ = -16						; size = 4
__$EHRec$ = -12						; size = 12
_position$ = 8						; size = 4
_point$ = 12						; size = 4
_environment$ = 16					; size = 4
??0CHorzLine@@QAE@ABVCTextHorzPosition@@ABVCCoordinate@@ABVCElementCommonEnvironment@@@Z PROC ; CHorzLine::CHorzLine, COMDAT
; _this$ = ecx

; 122  : {

  00000	55		 push	 ebp
  00001	8b ec		 mov	 ebp, esp
  00003	6a ff		 push	 -1
  00005	68 00 00 00 00	 push	 __ehhandler$??0CHorzLine@@QAE@ABVCTextHorzPosition@@ABVCCoordinate@@ABVCElementCommonEnvironment@@@Z
  0000a	64 a1 00 00 00
	00		 mov	 eax, DWORD PTR fs:0
  00010	50		 push	 eax
  00011	51		 push	 ecx
  00012	56		 push	 esi
  00013	a1 00 00 00 00	 mov	 eax, DWORD PTR ___security_cookie
  00018	33 c5		 xor	 eax, ebp
  0001a	50		 push	 eax
  0001b	8d 45 f4	 lea	 eax, DWORD PTR __$EHRec$[ebp]
  0001e	64 a3 00 00 00
	00		 mov	 DWORD PTR fs:0, eax
  00024	8b f1		 mov	 esi, ecx
  00026	89 75 f0	 mov	 DWORD PTR _this$[ebp], esi

; 120  : 	COnePointElement(point, environment),

  00029	ff 75 10	 push	 DWORD PTR _environment$[ebp]
  0002c	ff 75 0c	 push	 DWORD PTR _point$[ebp]
  0002f	e8 00 00 00 00	 call	 ??0COnePointElement@@QAE@ABVCCoordinate@@ABVCElementCommonEnvironment@@@Z ; COnePointElement::COnePointElement

; 121  : 	m_textPosition(position)

  00034	ff 75 08	 push	 DWORD PTR _position$[ebp]
  00037	8d 4e 70	 lea	 ecx, DWORD PTR [esi+112]
  0003a	c7 45 fc 00 00
	00 00		 mov	 DWORD PTR __$EHRec$[ebp+8], 0

; 122  : {

  00041	c7 06 00 00 00
	00		 mov	 DWORD PTR [esi], OFFSET ??_7CHorzLine@@6B@
  00047	e8 00 00 00 00	 call	 ??0CTextHorzPosition@@QAE@ABV0@@Z ; CTextHorzPosition::CTextHorzPosition
  0004c	6a 01		 push	 1
  0004e	8d 4e 7c	 lea	 ecx, DWORD PTR [esi+124]
  00051	e8 00 00 00 00	 call	 ??0CHorzLineDrawer@@QAE@XZ ; CHorzLineDrawer::CHorzLineDrawer

; 123  : }

  00056	8b c6		 mov	 eax, esi
  00058	8b 4d f4	 mov	 ecx, DWORD PTR __$EHRec$[ebp]
  0005b	64 89 0d 00 00
	00 00		 mov	 DWORD PTR fs:0, ecx
  00062	59		 pop	 ecx
  00063	5e		 pop	 esi
  00064	8b e5		 mov	 esp, ebp
  00066	5d		 pop	 ebp
  00067	c2 0c 00	 ret	 12			; 0000000cH
_TEXT	ENDS
;	COMDAT text$x
text$x	SEGMENT
__unwindfunclet$??0CHorzLine@@QAE@ABVCTextHorzPosition@@ABVCCoordinate@@ABVCElementCommonEnvironment@@@Z$0:
  00000	8b 4d f0	 mov	 ecx, DWORD PTR _this$[ebp]
  00003	e9 00 00 00 00	 jmp	 ??1COnePointElement@@UAE@XZ
  00008	cc		 int	 3
  00009	cc		 int	 3
  0000a	cc		 int	 3
  0000b	cc		 int	 3
  0000c	cc		 int	 3
__ehhandler$??0CHorzLine@@QAE@ABVCTextHorzPosition@@ABVCCoordinate@@ABVCElementCommonEnvironment@@@Z:
  0000d	90		 npad	 1
  0000e	90		 npad	 1
  0000f	8b 54 24 08	 mov	 edx, DWORD PTR [esp+8]
  00013	8d 42 0c	 lea	 eax, DWORD PTR [edx+12]
  00016	8b 4a f4	 mov	 ecx, DWORD PTR [edx-12]
  00019	33 c8		 xor	 ecx, eax
  0001b	e8 00 00 00 00	 call	 @__security_check_cookie@4
  00020	b8 00 00 00 00	 mov	 eax, OFFSET __ehfuncinfo$??0CHorzLine@@QAE@ABVCTextHorzPosition@@ABVCCoordinate@@ABVCElementCommonEnvironment@@@Z
  00025	e9 00 00 00 00	 jmp	 ___CxxFrameHandler3
text$x	ENDS
??0CHorzLine@@QAE@ABVCTextHorzPosition@@ABVCCoordinate@@ABVCElementCommonEnvironment@@@Z ENDP ; CHorzLine::CHorzLine
; Function compile flags: /Ogtp
; File D:\git\src\IBK\IBK_DRFN\ProjSrc\SrcChartEx\ChartAddIn\ChartAnalysisToolAddIn\AnalysisTool\Element.h
;	COMDAT ??_GCVertLine@@UAEPAXI@Z
_TEXT	SEGMENT
___flags$ = 8						; size = 4
??_GCVertLine@@UAEPAXI@Z PROC				; CVertLine::`scalar deleting destructor', COMDAT
; _this$ = ecx
  00000	55		 push	 ebp
  00001	8b ec		 mov	 ebp, esp

; 31   : 	virtual ~CElement()	{}

  00003	56		 push	 esi
  00004	8b f1		 mov	 esi, ecx
  00006	8d 4e 64	 lea	 ecx, DWORD PTR [esi+100]
  00009	ff 15 00 00 00
	00		 call	 DWORD PTR __imp_??1?$CStringT@DV?$StrTraitMFC_DLL@DV?$ChTraitsCRT@D@ATL@@@@@ATL@@QAE@XZ
  0000f	8d 4e 40	 lea	 ecx, DWORD PTR [esi+64]
  00012	c7 06 00 00 00
	00		 mov	 DWORD PTR [esi], OFFSET ??_7CElement@@6B@
  00018	ff 15 00 00 00
	00		 call	 DWORD PTR __imp_??1?$CStringT@DV?$StrTraitMFC_DLL@DV?$ChTraitsCRT@D@ATL@@@@@ATL@@QAE@XZ
  0001e	8d 4e 3c	 lea	 ecx, DWORD PTR [esi+60]
  00021	ff 15 00 00 00
	00		 call	 DWORD PTR __imp_??1?$CStringT@DV?$StrTraitMFC_DLL@DV?$ChTraitsCRT@D@ATL@@@@@ATL@@QAE@XZ
  00027	8d 4e 38	 lea	 ecx, DWORD PTR [esi+56]
  0002a	ff 15 00 00 00
	00		 call	 DWORD PTR __imp_??1?$CStringT@DV?$StrTraitMFC_DLL@DV?$ChTraitsCRT@D@ATL@@@@@ATL@@QAE@XZ
  00030	f6 45 08 01	 test	 BYTE PTR ___flags$[ebp], 1
  00034	74 0e		 je	 SHORT $LN25@scalar
  00036	68 a8 00 00 00	 push	 168			; 000000a8H
  0003b	56		 push	 esi
  0003c	e8 00 00 00 00	 call	 ??3@YAXPAXI@Z		; operator delete
  00041	83 c4 08	 add	 esp, 8
$LN25@scalar:
  00044	8b c6		 mov	 eax, esi
  00046	5e		 pop	 esi
  00047	5d		 pop	 ebp
  00048	c2 04 00	 ret	 4
??_GCVertLine@@UAEPAXI@Z ENDP				; CVertLine::`scalar deleting destructor'
_TEXT	ENDS
; Function compile flags: /Ogtp
; File D:\git\src\IBK\IBK_DRFN\ProjSrc\SrcChartEx\ChartAddIn\ChartAnalysisToolAddIn\AnalysisTool\Line.cpp
;	COMDAT ?GetOnePointDrawer@CVertLine@@MAEAAVCOnePointDrawer@@XZ
_TEXT	SEGMENT
?GetOnePointDrawer@CVertLine@@MAEAAVCOnePointDrawer@@XZ PROC ; CVertLine::GetOnePointDrawer, COMDAT
; _this$ = ecx

; 113  : 	return m_vertLineDrawer;

  00000	8b 41 7c	 mov	 eax, DWORD PTR [ecx+124]
  00003	8b 40 08	 mov	 eax, DWORD PTR [eax+8]
  00006	83 c0 7c	 add	 eax, 124		; 0000007cH
  00009	03 c1		 add	 eax, ecx

; 114  : }

  0000b	c3		 ret	 0
?GetOnePointDrawer@CVertLine@@MAEAAVCOnePointDrawer@@XZ ENDP ; CVertLine::GetOnePointDrawer
_TEXT	ENDS
; Function compile flags: /Ogtp
; File D:\git\src\IBK\IBK_DRFN\ProjSrc\SrcChartEx\ChartAddIn\ChartAnalysisToolAddIn\AnalysisTool\Line.cpp
;	COMDAT ?GetTextPosition@CVertLine@@MAEPAVCTextPosition@@XZ
_TEXT	SEGMENT
?GetTextPosition@CVertLine@@MAEPAVCTextPosition@@XZ PROC ; CVertLine::GetTextPosition, COMDAT
; _this$ = ecx

; 108  : 	return &m_textPosition;

  00000	8d 41 70	 lea	 eax, DWORD PTR [ecx+112]

; 109  : }

  00003	c3		 ret	 0
?GetTextPosition@CVertLine@@MAEPAVCTextPosition@@XZ ENDP ; CVertLine::GetTextPosition
_TEXT	ENDS
; Function compile flags: /Ogtp
; File D:\git\src\IBK\IBK_DRFN\ProjSrc\SrcChartEx\ChartAddIn\ChartAnalysisToolAddIn\AnalysisTool\Line.cpp
;	COMDAT ?GetTextPosition@CVertLine@@MBEPBVCTextPosition@@XZ
_TEXT	SEGMENT
?GetTextPosition@CVertLine@@MBEPBVCTextPosition@@XZ PROC ; CVertLine::GetTextPosition, COMDAT
; _this$ = ecx

; 103  : 	return &m_textPosition;

  00000	8d 41 70	 lea	 eax, DWORD PTR [ecx+112]

; 104  : }

  00003	c3		 ret	 0
?GetTextPosition@CVertLine@@MBEPBVCTextPosition@@XZ ENDP ; CVertLine::GetTextPosition
_TEXT	ENDS
; Function compile flags: /Ogtp
; File D:\git\src\IBK\IBK_DRFN\ProjSrc\SrcChartEx\ChartAddIn\ChartAnalysisToolAddIn\AnalysisTool\Line.cpp
;	COMDAT ?GetElementType@CVertLine@@UBE?AW4ElementType@CToolEnumData@@XZ
_TEXT	SEGMENT
?GetElementType@CVertLine@@UBE?AW4ElementType@CToolEnumData@@XZ PROC ; CVertLine::GetElementType, COMDAT
; _this$ = ecx

; 97   : 	return CToolEnumData::Vert_Line;

  00000	b8 03 00 00 00	 mov	 eax, 3

; 98   : }

  00005	c3		 ret	 0
?GetElementType@CVertLine@@UBE?AW4ElementType@CToolEnumData@@XZ ENDP ; CVertLine::GetElementType
_TEXT	ENDS
; Function compile flags: /Ogtp
; File D:\git\src\IBK\IBK_DRFN\ProjSrc\SrcChartEx\ChartAddIn\ChartAnalysisToolAddIn\AnalysisTool\Line.cpp
;	COMDAT ??0CVertLine@@QAE@ABVCTextVertPosition@@ABVCCoordinate@@ABVCElementCommonEnvironment@@@Z
_TEXT	SEGMENT
_this$ = -16						; size = 4
__$EHRec$ = -12						; size = 12
_position$ = 8						; size = 4
_point$ = 12						; size = 4
_environment$ = 16					; size = 4
??0CVertLine@@QAE@ABVCTextVertPosition@@ABVCCoordinate@@ABVCElementCommonEnvironment@@@Z PROC ; CVertLine::CVertLine, COMDAT
; _this$ = ecx

; 92   : {

  00000	55		 push	 ebp
  00001	8b ec		 mov	 ebp, esp
  00003	6a ff		 push	 -1
  00005	68 00 00 00 00	 push	 __ehhandler$??0CVertLine@@QAE@ABVCTextVertPosition@@ABVCCoordinate@@ABVCElementCommonEnvironment@@@Z
  0000a	64 a1 00 00 00
	00		 mov	 eax, DWORD PTR fs:0
  00010	50		 push	 eax
  00011	51		 push	 ecx
  00012	56		 push	 esi
  00013	a1 00 00 00 00	 mov	 eax, DWORD PTR ___security_cookie
  00018	33 c5		 xor	 eax, ebp
  0001a	50		 push	 eax
  0001b	8d 45 f4	 lea	 eax, DWORD PTR __$EHRec$[ebp]
  0001e	64 a3 00 00 00
	00		 mov	 DWORD PTR fs:0, eax
  00024	8b f1		 mov	 esi, ecx
  00026	89 75 f0	 mov	 DWORD PTR _this$[ebp], esi

; 90   : 	CVertElement(point, environment),

  00029	ff 75 10	 push	 DWORD PTR _environment$[ebp]
  0002c	ff 75 0c	 push	 DWORD PTR _point$[ebp]
  0002f	e8 00 00 00 00	 call	 ??0CVertElement@@QAE@ABVCCoordinate@@ABVCElementCommonEnvironment@@@Z ; CVertElement::CVertElement

; 91   : 	m_textPosition(position)

  00034	ff 75 08	 push	 DWORD PTR _position$[ebp]
  00037	8d 4e 70	 lea	 ecx, DWORD PTR [esi+112]
  0003a	c7 45 fc 00 00
	00 00		 mov	 DWORD PTR __$EHRec$[ebp+8], 0

; 92   : {

  00041	c7 06 00 00 00
	00		 mov	 DWORD PTR [esi], OFFSET ??_7CVertLine@@6B@
  00047	e8 00 00 00 00	 call	 ??0CTextVertPosition@@QAE@ABV0@@Z ; CTextVertPosition::CTextVertPosition
  0004c	6a 01		 push	 1
  0004e	8d 4e 7c	 lea	 ecx, DWORD PTR [esi+124]
  00051	e8 00 00 00 00	 call	 ??0CVertLineDrawer@@QAE@XZ ; CVertLineDrawer::CVertLineDrawer

; 93   : }

  00056	8b c6		 mov	 eax, esi
  00058	8b 4d f4	 mov	 ecx, DWORD PTR __$EHRec$[ebp]
  0005b	64 89 0d 00 00
	00 00		 mov	 DWORD PTR fs:0, ecx
  00062	59		 pop	 ecx
  00063	5e		 pop	 esi
  00064	8b e5		 mov	 esp, ebp
  00066	5d		 pop	 ebp
  00067	c2 0c 00	 ret	 12			; 0000000cH
_TEXT	ENDS
;	COMDAT text$x
text$x	SEGMENT
__unwindfunclet$??0CVertLine@@QAE@ABVCTextVertPosition@@ABVCCoordinate@@ABVCElementCommonEnvironment@@@Z$0:
  00000	8b 4d f0	 mov	 ecx, DWORD PTR _this$[ebp]
  00003	e9 00 00 00 00	 jmp	 ??1CVertElement@@UAE@XZ
  00008	cc		 int	 3
  00009	cc		 int	 3
  0000a	cc		 int	 3
  0000b	cc		 int	 3
  0000c	cc		 int	 3
__ehhandler$??0CVertLine@@QAE@ABVCTextVertPosition@@ABVCCoordinate@@ABVCElementCommonEnvironment@@@Z:
  0000d	90		 npad	 1
  0000e	90		 npad	 1
  0000f	8b 54 24 08	 mov	 edx, DWORD PTR [esp+8]
  00013	8d 42 0c	 lea	 eax, DWORD PTR [edx+12]
  00016	8b 4a f4	 mov	 ecx, DWORD PTR [edx-12]
  00019	33 c8		 xor	 ecx, eax
  0001b	e8 00 00 00 00	 call	 @__security_check_cookie@4
  00020	b8 00 00 00 00	 mov	 eax, OFFSET __ehfuncinfo$??0CVertLine@@QAE@ABVCTextVertPosition@@ABVCCoordinate@@ABVCElementCommonEnvironment@@@Z
  00025	e9 00 00 00 00	 jmp	 ___CxxFrameHandler3
text$x	ENDS
??0CVertLine@@QAE@ABVCTextVertPosition@@ABVCCoordinate@@ABVCElementCommonEnvironment@@@Z ENDP ; CVertLine::CVertLine
; Function compile flags: /Ogtp
; File D:\git\src\IBK\IBK_DRFN\ProjSrc\SrcChartEx\ChartAddIn\ChartAnalysisToolAddIn\AnalysisTool\Element.h
;	COMDAT ??_GCLine@@UAEPAXI@Z
_TEXT	SEGMENT
___flags$ = 8						; size = 4
??_GCLine@@UAEPAXI@Z PROC				; CLine::`scalar deleting destructor', COMDAT
; _this$ = ecx
  00000	55		 push	 ebp
  00001	8b ec		 mov	 ebp, esp

; 31   : 	virtual ~CElement()	{}

  00003	56		 push	 esi
  00004	8b f1		 mov	 esi, ecx
  00006	8d 8e 84 00 00
	00		 lea	 ecx, DWORD PTR [esi+132]
  0000c	ff 15 00 00 00
	00		 call	 DWORD PTR __imp_??1?$CStringT@DV?$StrTraitMFC_DLL@DV?$ChTraitsCRT@D@ATL@@@@@ATL@@QAE@XZ
  00012	8d 4e 64	 lea	 ecx, DWORD PTR [esi+100]
  00015	ff 15 00 00 00
	00		 call	 DWORD PTR __imp_??1?$CStringT@DV?$StrTraitMFC_DLL@DV?$ChTraitsCRT@D@ATL@@@@@ATL@@QAE@XZ
  0001b	8d 4e 40	 lea	 ecx, DWORD PTR [esi+64]
  0001e	c7 06 00 00 00
	00		 mov	 DWORD PTR [esi], OFFSET ??_7CElement@@6B@
  00024	ff 15 00 00 00
	00		 call	 DWORD PTR __imp_??1?$CStringT@DV?$StrTraitMFC_DLL@DV?$ChTraitsCRT@D@ATL@@@@@ATL@@QAE@XZ
  0002a	8d 4e 3c	 lea	 ecx, DWORD PTR [esi+60]
  0002d	ff 15 00 00 00
	00		 call	 DWORD PTR __imp_??1?$CStringT@DV?$StrTraitMFC_DLL@DV?$ChTraitsCRT@D@ATL@@@@@ATL@@QAE@XZ
  00033	8d 4e 38	 lea	 ecx, DWORD PTR [esi+56]
  00036	ff 15 00 00 00
	00		 call	 DWORD PTR __imp_??1?$CStringT@DV?$StrTraitMFC_DLL@DV?$ChTraitsCRT@D@ATL@@@@@ATL@@QAE@XZ
  0003c	f6 45 08 01	 test	 BYTE PTR ___flags$[ebp], 1
  00040	74 0e		 je	 SHORT $LN25@scalar
  00042	68 c0 00 00 00	 push	 192			; 000000c0H
  00047	56		 push	 esi
  00048	e8 00 00 00 00	 call	 ??3@YAXPAXI@Z		; operator delete
  0004d	83 c4 08	 add	 esp, 8
$LN25@scalar:
  00050	8b c6		 mov	 eax, esi
  00052	5e		 pop	 esi
  00053	5d		 pop	 ebp
  00054	c2 04 00	 ret	 4
??_GCLine@@UAEPAXI@Z ENDP				; CLine::`scalar deleting destructor'
_TEXT	ENDS
; Function compile flags: /Ogtp
; File D:\git\src\IBK\IBK_DRFN\ProjSrc\SrcChartEx\ChartAddIn\ChartAnalysisToolAddIn\AnalysisTool\Line.cpp
; File C:\Program Files (x86)\Microsoft Visual Studio\2019\Community\VC\Tools\MSVC\14.29.30133\atlmfc\include\atltypes.h
; File D:\git\src\IBK\IBK_DRFN\ProjSrc\SrcChartEx\ChartAddIn\ChartAnalysisToolAddIn\AnalysisTool\Line.cpp
;	COMDAT ?GetModifyType@CLine@@MBE?AW4ModifyType@CToolEnumData@@ABVCRect@@ABVCPoint@@11@Z
_TEXT	SEGMENT
$T2 = -136						; size = 72
$T3 = -136						; size = 72
$T4 = -64						; size = 8
$T5 = -56						; size = 8
_p_rctGraphArea$GSCopy$1$ = -48				; size = 4
_p_ptStart$GSCopy$1$ = -44				; size = 4
_p_ptEnd$GSCopy$1$ = -40				; size = 4
_p_ptCursor$GSCopy$1$ = -36				; size = 4
_rctExtLineRect$ = -32					; size = 16
__$ArrayPad$ = -16					; size = 4
__$EHRec$ = -12						; size = 12
_p_rctGraphArea$ = 8					; size = 4
_p_ptStart$ = 12					; size = 4
_p_ptEnd$ = 16						; size = 4
_p_ptCursor$ = 20					; size = 4
?GetModifyType@CLine@@MBE?AW4ModifyType@CToolEnumData@@ABVCRect@@ABVCPoint@@11@Z PROC ; CLine::GetModifyType, COMDAT
; _this$ = ecx

; 68   : {

  00000	55		 push	 ebp
  00001	8b ec		 mov	 ebp, esp
  00003	6a ff		 push	 -1
  00005	68 00 00 00 00	 push	 __ehhandler$?GetModifyType@CLine@@MBE?AW4ModifyType@CToolEnumData@@ABVCRect@@ABVCPoint@@11@Z
  0000a	64 a1 00 00 00
	00		 mov	 eax, DWORD PTR fs:0
  00010	50		 push	 eax
  00011	83 ec 7c	 sub	 esp, 124		; 0000007cH
  00014	a1 00 00 00 00	 mov	 eax, DWORD PTR ___security_cookie
  00019	33 c5		 xor	 eax, ebp
  0001b	89 45 f0	 mov	 DWORD PTR __$ArrayPad$[ebp], eax
  0001e	53		 push	 ebx
  0001f	56		 push	 esi
  00020	57		 push	 edi
  00021	50		 push	 eax
  00022	8d 45 f4	 lea	 eax, DWORD PTR __$EHRec$[ebp]
  00025	64 a3 00 00 00
	00		 mov	 DWORD PTR fs:0, eax
  0002b	8b d9		 mov	 ebx, ecx
  0002d	8b 45 08	 mov	 eax, DWORD PTR _p_rctGraphArea$[ebp]
  00030	8b 55 10	 mov	 edx, DWORD PTR _p_ptEnd$[ebp]
  00033	8b 4d 0c	 mov	 ecx, DWORD PTR _p_ptStart$[ebp]
  00036	89 45 d0	 mov	 DWORD PTR _p_rctGraphArea$GSCopy$1$[ebp], eax
  00039	8b 45 14	 mov	 eax, DWORD PTR _p_ptCursor$[ebp]

; 69   : 	// 1.     .
; 70   : 	CToolEnumData::ModifyType sidePointModifyType = GetModifyType_SidePoints( p_ptStart, p_ptEnd, p_ptCursor);

  0003c	50		 push	 eax
  0003d	52		 push	 edx
  0003e	89 4d d4	 mov	 DWORD PTR _p_ptStart$GSCopy$1$[ebp], ecx
  00041	51		 push	 ecx
  00042	8b cb		 mov	 ecx, ebx
  00044	89 55 d8	 mov	 DWORD PTR _p_ptEnd$GSCopy$1$[ebp], edx
  00047	89 45 dc	 mov	 DWORD PTR _p_ptCursor$GSCopy$1$[ebp], eax
  0004a	e8 00 00 00 00	 call	 ?GetModifyType_SidePoints@CTwoPointElement@@IBE?AW4ModifyType@CToolEnumData@@ABVCPoint@@00@Z ; CTwoPointElement::GetModifyType_SidePoints

; 71   : 	if( sidePointModifyType != CToolEnumData::MODIFY_NONE) 

  0004f	85 c0		 test	 eax, eax
  00051	0f 85 dc 00 00
	00		 jne	 $LN1@GetModifyT

; 72   : 		return sidePointModifyType;
; 73   : 
; 74   : 	BOOL bLeftExt = GetCommonEnvironment().IsLeftLineExt();

  00057	8d 85 78 ff ff
	ff		 lea	 eax, DWORD PTR $T3[ebp]
  0005d	8b cb		 mov	 ecx, ebx
  0005f	50		 push	 eax
  00060	e8 00 00 00 00	 call	 ?GetCommonEnvironment@CElement@@QBE?AVCElementCommonEnvironment@@XZ ; CElement::GetCommonEnvironment
  00065	8b c8		 mov	 ecx, eax
  00067	c7 45 fc 00 00
	00 00		 mov	 DWORD PTR __$EHRec$[ebp+8], 0
  0006e	e8 00 00 00 00	 call	 ?IsLeftLineExt@CElementCommonEnvironment@@QBEHXZ ; CElementCommonEnvironment::IsLeftLineExt
  00073	8d 4d b0	 lea	 ecx, DWORD PTR $T3[ebp+56]
  00076	c7 45 fc ff ff
	ff ff		 mov	 DWORD PTR __$EHRec$[ebp+8], -1
  0007d	8b f8		 mov	 edi, eax
  0007f	ff 15 00 00 00
	00		 call	 DWORD PTR __imp_??1?$CStringT@DV?$StrTraitMFC_DLL@DV?$ChTraitsCRT@D@ATL@@@@@ATL@@QAE@XZ
  00085	8d 4d ac	 lea	 ecx, DWORD PTR $T3[ebp+52]
  00088	ff 15 00 00 00
	00		 call	 DWORD PTR __imp_??1?$CStringT@DV?$StrTraitMFC_DLL@DV?$ChTraitsCRT@D@ATL@@@@@ATL@@QAE@XZ
  0008e	8d 4d a8	 lea	 ecx, DWORD PTR $T3[ebp+48]
  00091	ff 15 00 00 00
	00		 call	 DWORD PTR __imp_??1?$CStringT@DV?$StrTraitMFC_DLL@DV?$ChTraitsCRT@D@ATL@@@@@ATL@@QAE@XZ

; 75   : 	BOOL bRightExt = GetCommonEnvironment().IsRightLineExt();

  00097	8d 85 78 ff ff
	ff		 lea	 eax, DWORD PTR $T2[ebp]
  0009d	8b cb		 mov	 ecx, ebx
  0009f	50		 push	 eax
  000a0	e8 00 00 00 00	 call	 ?GetCommonEnvironment@CElement@@QBE?AVCElementCommonEnvironment@@XZ ; CElement::GetCommonEnvironment
  000a5	8b c8		 mov	 ecx, eax
  000a7	c7 45 fc 01 00
	00 00		 mov	 DWORD PTR __$EHRec$[ebp+8], 1
  000ae	e8 00 00 00 00	 call	 ?IsRightLineExt@CElementCommonEnvironment@@QBEHXZ ; CElementCommonEnvironment::IsRightLineExt
  000b3	8d 4d b0	 lea	 ecx, DWORD PTR $T2[ebp+56]
  000b6	c7 45 fc ff ff
	ff ff		 mov	 DWORD PTR __$EHRec$[ebp+8], -1
  000bd	8b f0		 mov	 esi, eax
  000bf	ff 15 00 00 00
	00		 call	 DWORD PTR __imp_??1?$CStringT@DV?$StrTraitMFC_DLL@DV?$ChTraitsCRT@D@ATL@@@@@ATL@@QAE@XZ
  000c5	8d 4d ac	 lea	 ecx, DWORD PTR $T2[ebp+52]
  000c8	ff 15 00 00 00
	00		 call	 DWORD PTR __imp_??1?$CStringT@DV?$StrTraitMFC_DLL@DV?$ChTraitsCRT@D@ATL@@@@@ATL@@QAE@XZ
  000ce	8d 4d a8	 lea	 ecx, DWORD PTR $T2[ebp+48]
  000d1	ff 15 00 00 00
	00		 call	 DWORD PTR __imp_??1?$CStringT@DV?$StrTraitMFC_DLL@DV?$ChTraitsCRT@D@ATL@@@@@ATL@@QAE@XZ

; 76   : 	
; 77   : 	// 2. Line   Cursor Line()  .
; 78   : 	CRect rctExtLineRect = CElement::GetLineRect(p_rctGraphArea,p_ptStart,p_ptEnd,bLeftExt,bRightExt);

  000d7	56		 push	 esi
  000d8	8b 75 d4	 mov	 esi, DWORD PTR _p_ptStart$GSCopy$1$[ebp]
  000db	8d 45 e0	 lea	 eax, DWORD PTR _rctExtLineRect$[ebp]
  000de	57		 push	 edi
  000df	8b 7d d8	 mov	 edi, DWORD PTR _p_ptEnd$GSCopy$1$[ebp]
  000e2	8b cb		 mov	 ecx, ebx
  000e4	57		 push	 edi
  000e5	56		 push	 esi
  000e6	ff 75 d0	 push	 DWORD PTR _p_rctGraphArea$GSCopy$1$[ebp]
  000e9	50		 push	 eax
  000ea	e8 00 00 00 00	 call	 ?GetLineRect@CElement@@IBE?AVCRect@@ABV2@ABVCPoint@@1HH@Z ; CElement::GetLineRect

; 79   : 	if( 0 < ( p_ptEnd.x - p_ptStart.x) * ( p_ptEnd.y - p_ptStart.y))

  000ef	8b 57 04	 mov	 edx, DWORD PTR [edi+4]
  000f2	8b cb		 mov	 ecx, ebx
  000f4	8b 07		 mov	 eax, DWORD PTR [edi]
  000f6	2b 56 04	 sub	 edx, DWORD PTR [esi+4]
  000f9	2b 06		 sub	 eax, DWORD PTR [esi]
  000fb	ff 75 dc	 push	 DWORD PTR _p_ptCursor$GSCopy$1$[ebp]
  000fe	0f af d0	 imul	 edx, eax
  00101	85 d2		 test	 edx, edx
  00103	7e 09		 jle	 SHORT $LN3@GetModifyT

; 80   : 		return GetModifyType_Line( rctExtLineRect.TopLeft(), rctExtLineRect.BottomRight(), p_ptCursor);

  00105	8d 45 e8	 lea	 eax, DWORD PTR _rctExtLineRect$[ebp+8]
  00108	50		 push	 eax
  00109	8d 45 e0	 lea	 eax, DWORD PTR _rctExtLineRect$[ebp]
  0010c	eb 1f		 jmp	 SHORT $LN24@GetModifyT
$LN3@GetModifyT:
; File C:\Program Files (x86)\Microsoft Visual Studio\2019\Community\VC\Tools\MSVC\14.29.30133\atlmfc\include\atltypes.h

; 408  : 	x = initX;

  0010e	8b 45 e8	 mov	 eax, DWORD PTR _rctExtLineRect$[ebp+8]
  00111	89 45 c8	 mov	 DWORD PTR $T5[ebp], eax

; 409  : 	y = initY;

  00114	8b 45 e4	 mov	 eax, DWORD PTR _rctExtLineRect$[ebp+4]
  00117	89 45 cc	 mov	 DWORD PTR $T5[ebp+4], eax

; 408  : 	x = initX;

  0011a	8b 45 e0	 mov	 eax, DWORD PTR _rctExtLineRect$[ebp]
  0011d	89 45 c0	 mov	 DWORD PTR $T4[ebp], eax

; 409  : 	y = initY;

  00120	8b 45 ec	 mov	 eax, DWORD PTR _rctExtLineRect$[ebp+12]
  00123	89 45 c4	 mov	 DWORD PTR $T4[ebp+4], eax
; File D:\git\src\IBK\IBK_DRFN\ProjSrc\SrcChartEx\ChartAddIn\ChartAnalysisToolAddIn\AnalysisTool\Line.cpp

; 82   : 	return GetModifyType_Line(	CPoint( rctExtLineRect.left, rctExtLineRect.bottom),

  00126	8d 45 c8	 lea	 eax, DWORD PTR $T5[ebp]
  00129	50		 push	 eax
  0012a	8d 45 c0	 lea	 eax, DWORD PTR $T4[ebp]
$LN24@GetModifyT:

; 83   : 								CPoint( rctExtLineRect.right, rctExtLineRect.top), p_ptCursor);
; 84   : }

  0012d	50		 push	 eax
  0012e	e8 00 00 00 00	 call	 ?GetModifyType_Line@CTwoPointElement@@IBE?AW4ModifyType@CToolEnumData@@ABVCPoint@@00@Z ; CTwoPointElement::GetModifyType_Line
$LN1@GetModifyT:
  00133	8b 4d f4	 mov	 ecx, DWORD PTR __$EHRec$[ebp]
  00136	64 89 0d 00 00
	00 00		 mov	 DWORD PTR fs:0, ecx
  0013d	59		 pop	 ecx
  0013e	5f		 pop	 edi
  0013f	5e		 pop	 esi
  00140	5b		 pop	 ebx
  00141	8b 4d f0	 mov	 ecx, DWORD PTR __$ArrayPad$[ebp]
  00144	33 cd		 xor	 ecx, ebp
  00146	e8 00 00 00 00	 call	 @__security_check_cookie@4
  0014b	8b e5		 mov	 esp, ebp
  0014d	5d		 pop	 ebp
  0014e	c2 10 00	 ret	 16			; 00000010H
_TEXT	ENDS
;	COMDAT text$x
text$x	SEGMENT
__unwindfunclet$?GetModifyType@CLine@@MBE?AW4ModifyType@CToolEnumData@@ABVCRect@@ABVCPoint@@11@Z$0:
  00000	8d 8d 78 ff ff
	ff		 lea	 ecx, DWORD PTR $T3[ebp]
  00006	e9 00 00 00 00	 jmp	 ??1CElementCommonEnvironment@@QAE@XZ
__unwindfunclet$?GetModifyType@CLine@@MBE?AW4ModifyType@CToolEnumData@@ABVCRect@@ABVCPoint@@11@Z$1:
  0000b	8d 8d 78 ff ff
	ff		 lea	 ecx, DWORD PTR $T2[ebp]
  00011	e9 00 00 00 00	 jmp	 ??1CElementCommonEnvironment@@QAE@XZ
  00016	cc		 int	 3
  00017	cc		 int	 3
  00018	cc		 int	 3
  00019	cc		 int	 3
  0001a	cc		 int	 3
__ehhandler$?GetModifyType@CLine@@MBE?AW4ModifyType@CToolEnumData@@ABVCRect@@ABVCPoint@@11@Z:
  0001b	90		 npad	 1
  0001c	90		 npad	 1
  0001d	8b 54 24 08	 mov	 edx, DWORD PTR [esp+8]
  00021	8d 42 0c	 lea	 eax, DWORD PTR [edx+12]
  00024	8b 8a 74 ff ff
	ff		 mov	 ecx, DWORD PTR [edx-140]
  0002a	33 c8		 xor	 ecx, eax
  0002c	e8 00 00 00 00	 call	 @__security_check_cookie@4
  00031	8b 4a fc	 mov	 ecx, DWORD PTR [edx-4]
  00034	33 c8		 xor	 ecx, eax
  00036	e8 00 00 00 00	 call	 @__security_check_cookie@4
  0003b	b8 00 00 00 00	 mov	 eax, OFFSET __ehfuncinfo$?GetModifyType@CLine@@MBE?AW4ModifyType@CToolEnumData@@ABVCRect@@ABVCPoint@@11@Z
  00040	e9 00 00 00 00	 jmp	 ___CxxFrameHandler3
text$x	ENDS
?GetModifyType@CLine@@MBE?AW4ModifyType@CToolEnumData@@ABVCRect@@ABVCPoint@@11@Z ENDP ; CLine::GetModifyType
; Function compile flags: /Ogtp
; File D:\git\src\IBK\IBK_DRFN\ProjSrc\SrcChartEx\ChartAddIn\ChartAnalysisToolAddIn\AnalysisTool\Line.cpp
; File C:\Program Files (x86)\Microsoft Visual Studio\2019\Community\VC\Tools\MSVC\14.29.30133\atlmfc\include\atltypes.h
; File D:\git\src\IBK\IBK_DRFN\ProjSrc\SrcChartEx\ChartAddIn\ChartAnalysisToolAddIn\AnalysisTool\Line.cpp
; File C:\Program Files (x86)\Microsoft Visual Studio\2019\Community\VC\Tools\MSVC\14.29.30133\atlmfc\include\atltypes.h
; File D:\git\src\IBK\IBK_DRFN\ProjSrc\SrcChartEx\ChartAddIn\ChartAnalysisToolAddIn\AnalysisTool\Line.cpp
; File C:\Program Files (x86)\Microsoft Visual Studio\2019\Community\VC\Tools\MSVC\14.29.30133\atlmfc\include\atltypes.h
; File D:\git\src\IBK\IBK_DRFN\ProjSrc\SrcChartEx\ChartAddIn\ChartAnalysisToolAddIn\AnalysisTool\Line.cpp
; File C:\Program Files (x86)\Microsoft Visual Studio\2019\Community\VC\Tools\MSVC\14.29.30133\atlmfc\include\atltypes.h
; File D:\git\src\IBK\IBK_DRFN\ProjSrc\SrcChartEx\ChartAddIn\ChartAnalysisToolAddIn\AnalysisTool\Line.cpp
; File C:\Program Files (x86)\Microsoft Visual Studio\2019\Community\VC\Tools\MSVC\14.29.30133\atlmfc\include\atltypes.h
; File D:\git\src\IBK\IBK_DRFN\ProjSrc\SrcChartEx\ChartAddIn\ChartAnalysisToolAddIn\AnalysisTool\Line.cpp
; File C:\Program Files (x86)\Microsoft Visual Studio\2019\Community\VC\Tools\MSVC\14.29.30133\atlmfc\include\atltypes.h
; File D:\git\src\IBK\IBK_DRFN\ProjSrc\SrcChartEx\ChartAddIn\ChartAnalysisToolAddIn\AnalysisTool\Line.cpp
;	COMDAT ?ElementInRegion@CLine@@MBE_NABVCRect@@ABVCPoint@@11@Z
_TEXT	SEGMENT
$T6 = -192						; size = 72
$T7 = -120						; size = 72
_p_ptCursor$GSCopy$1$ = -48				; size = 4
_this$GSCopy$1$ = -44					; size = 4
_p_rctGraphArea$GSCopy$1$ = -40				; size = 4
_p_ptStart$GSCopy$1$ = -36				; size = 4
_rctLineRect$ = -32					; size = 16
__$ArrayPad$ = -16					; size = 4
__$EHRec$ = -12						; size = 12
_p_rctGraphArea$ = 8					; size = 4
_p_ptStart$ = 12					; size = 4
_p_ptEnd$ = 16						; size = 4
_p_ptCursor$ = 20					; size = 4
?ElementInRegion@CLine@@MBE_NABVCRect@@ABVCPoint@@11@Z PROC ; CLine::ElementInRegion, COMDAT
; _this$ = ecx

; 55   : {

  00000	55		 push	 ebp
  00001	8b ec		 mov	 ebp, esp
  00003	6a ff		 push	 -1
  00005	68 00 00 00 00	 push	 __ehhandler$?ElementInRegion@CLine@@MBE_NABVCRect@@ABVCPoint@@11@Z
  0000a	64 a1 00 00 00
	00		 mov	 eax, DWORD PTR fs:0
  00010	50		 push	 eax
  00011	81 ec b4 00 00
	00		 sub	 esp, 180		; 000000b4H
  00017	a1 00 00 00 00	 mov	 eax, DWORD PTR ___security_cookie
  0001c	33 c5		 xor	 eax, ebp
  0001e	89 45 f0	 mov	 DWORD PTR __$ArrayPad$[ebp], eax
  00021	53		 push	 ebx
  00022	56		 push	 esi
  00023	57		 push	 edi
  00024	50		 push	 eax
  00025	8d 45 f4	 lea	 eax, DWORD PTR __$EHRec$[ebp]
  00028	64 a3 00 00 00
	00		 mov	 DWORD PTR fs:0, eax
  0002e	8b f1		 mov	 esi, ecx
  00030	89 75 d4	 mov	 DWORD PTR _this$GSCopy$1$[ebp], esi
  00033	8b 45 08	 mov	 eax, DWORD PTR _p_rctGraphArea$[ebp]
  00036	8b 5d 10	 mov	 ebx, DWORD PTR _p_ptEnd$[ebp]
  00039	89 45 d8	 mov	 DWORD PTR _p_rctGraphArea$GSCopy$1$[ebp], eax
  0003c	8b 45 0c	 mov	 eax, DWORD PTR _p_ptStart$[ebp]
  0003f	89 45 dc	 mov	 DWORD PTR _p_ptStart$GSCopy$1$[ebp], eax
  00042	8b 45 14	 mov	 eax, DWORD PTR _p_ptCursor$[ebp]
  00045	89 45 d0	 mov	 DWORD PTR _p_ptCursor$GSCopy$1$[ebp], eax

; 56   : 	BOOL bLeftExt = GetCommonEnvironment().IsLeftLineExt();

  00048	8d 45 88	 lea	 eax, DWORD PTR $T7[ebp]
  0004b	50		 push	 eax
  0004c	e8 00 00 00 00	 call	 ?GetCommonEnvironment@CElement@@QBE?AVCElementCommonEnvironment@@XZ ; CElement::GetCommonEnvironment
  00051	8b c8		 mov	 ecx, eax
  00053	c7 45 fc 00 00
	00 00		 mov	 DWORD PTR __$EHRec$[ebp+8], 0
  0005a	e8 00 00 00 00	 call	 ?IsLeftLineExt@CElementCommonEnvironment@@QBEHXZ ; CElementCommonEnvironment::IsLeftLineExt
  0005f	8d 4d c0	 lea	 ecx, DWORD PTR $T7[ebp+56]
  00062	c7 45 fc ff ff
	ff ff		 mov	 DWORD PTR __$EHRec$[ebp+8], -1
  00069	8b f8		 mov	 edi, eax
  0006b	ff 15 00 00 00
	00		 call	 DWORD PTR __imp_??1?$CStringT@DV?$StrTraitMFC_DLL@DV?$ChTraitsCRT@D@ATL@@@@@ATL@@QAE@XZ
  00071	8d 4d bc	 lea	 ecx, DWORD PTR $T7[ebp+52]
  00074	ff 15 00 00 00
	00		 call	 DWORD PTR __imp_??1?$CStringT@DV?$StrTraitMFC_DLL@DV?$ChTraitsCRT@D@ATL@@@@@ATL@@QAE@XZ
  0007a	8d 4d b8	 lea	 ecx, DWORD PTR $T7[ebp+48]
  0007d	ff 15 00 00 00
	00		 call	 DWORD PTR __imp_??1?$CStringT@DV?$StrTraitMFC_DLL@DV?$ChTraitsCRT@D@ATL@@@@@ATL@@QAE@XZ

; 57   : 	BOOL bRightExt = GetCommonEnvironment().IsRightLineExt();

  00083	8d 85 40 ff ff
	ff		 lea	 eax, DWORD PTR $T6[ebp]
  00089	8b ce		 mov	 ecx, esi
  0008b	50		 push	 eax
  0008c	e8 00 00 00 00	 call	 ?GetCommonEnvironment@CElement@@QBE?AVCElementCommonEnvironment@@XZ ; CElement::GetCommonEnvironment
  00091	8b c8		 mov	 ecx, eax
  00093	c7 45 fc 01 00
	00 00		 mov	 DWORD PTR __$EHRec$[ebp+8], 1
  0009a	e8 00 00 00 00	 call	 ?IsRightLineExt@CElementCommonEnvironment@@QBEHXZ ; CElementCommonEnvironment::IsRightLineExt
  0009f	8d 8d 78 ff ff
	ff		 lea	 ecx, DWORD PTR $T6[ebp+56]
  000a5	c7 45 fc ff ff
	ff ff		 mov	 DWORD PTR __$EHRec$[ebp+8], -1
  000ac	8b f0		 mov	 esi, eax
  000ae	ff 15 00 00 00
	00		 call	 DWORD PTR __imp_??1?$CStringT@DV?$StrTraitMFC_DLL@DV?$ChTraitsCRT@D@ATL@@@@@ATL@@QAE@XZ
  000b4	8d 8d 74 ff ff
	ff		 lea	 ecx, DWORD PTR $T6[ebp+52]
  000ba	ff 15 00 00 00
	00		 call	 DWORD PTR __imp_??1?$CStringT@DV?$StrTraitMFC_DLL@DV?$ChTraitsCRT@D@ATL@@@@@ATL@@QAE@XZ
  000c0	8d 8d 70 ff ff
	ff		 lea	 ecx, DWORD PTR $T6[ebp+48]
  000c6	ff 15 00 00 00
	00		 call	 DWORD PTR __imp_??1?$CStringT@DV?$StrTraitMFC_DLL@DV?$ChTraitsCRT@D@ATL@@@@@ATL@@QAE@XZ

; 58   : 
; 59   : 	CRect rctLineRect = CElement::GetLineRect( p_rctGraphArea, p_ptStart, p_ptEnd,bLeftExt,bRightExt);

  000cc	8b 4d d4	 mov	 ecx, DWORD PTR _this$GSCopy$1$[ebp]
  000cf	8d 45 e0	 lea	 eax, DWORD PTR _rctLineRect$[ebp]
  000d2	56		 push	 esi
  000d3	57		 push	 edi
  000d4	53		 push	 ebx
  000d5	ff 75 dc	 push	 DWORD PTR _p_ptStart$GSCopy$1$[ebp]
  000d8	ff 75 d8	 push	 DWORD PTR _p_rctGraphArea$GSCopy$1$[ebp]
  000db	50		 push	 eax
  000dc	e8 00 00 00 00	 call	 ?GetLineRect@CElement@@IBE?AVCRect@@ABV2@ABVCPoint@@1HH@Z ; CElement::GetLineRect
; File C:\Program Files (x86)\Microsoft Visual Studio\2019\Community\VC\Tools\MSVC\14.29.30133\atlmfc\include\atltypes.h

; 914  : 	right += r;

  000e1	8b 5d e8	 mov	 ebx, DWORD PTR _rctLineRect$[ebp+8]
  000e4	8b 75 e0	 mov	 esi, DWORD PTR _rctLineRect$[ebp]
  000e7	43		 inc	 ebx
  000e8	8b 55 e4	 mov	 edx, DWORD PTR _rctLineRect$[ebp+4]
  000eb	4e		 dec	 esi

; 915  : 	bottom += b;

  000ec	8b 45 ec	 mov	 eax, DWORD PTR _rctLineRect$[ebp+12]
  000ef	8b cb		 mov	 ecx, ebx
; File D:\git\src\IBK\IBK_DRFN\ProjSrc\SrcChartEx\ChartAddIn\ChartAnalysisToolAddIn\AnalysisTool\Line.cpp

; 62   : 	if( rctLineRect.Width()		< 4) rctLineRect.InflateRect( CSize( ( 4 - rctLineRect.Width()) / 2,0));

  000f1	8b 3d 00 00 00
	00		 mov	 edi, DWORD PTR __imp__InflateRect@12
; File C:\Program Files (x86)\Microsoft Visual Studio\2019\Community\VC\Tools\MSVC\14.29.30133\atlmfc\include\atltypes.h

; 913  : 	top -= t;

  000f7	4a		 dec	 edx

; 915  : 	bottom += b;

  000f8	40		 inc	 eax
  000f9	89 75 e0	 mov	 DWORD PTR _rctLineRect$[ebp], esi
  000fc	2b ce		 sub	 ecx, esi
  000fe	89 55 e4	 mov	 DWORD PTR _rctLineRect$[ebp+4], edx
  00101	89 5d e8	 mov	 DWORD PTR _rctLineRect$[ebp+8], ebx
  00104	89 45 ec	 mov	 DWORD PTR _rctLineRect$[ebp+12], eax
; File D:\git\src\IBK\IBK_DRFN\ProjSrc\SrcChartEx\ChartAddIn\ChartAnalysisToolAddIn\AnalysisTool\Line.cpp

; 62   : 	if( rctLineRect.Width()		< 4) rctLineRect.InflateRect( CSize( ( 4 - rctLineRect.Width()) / 2,0));

  00107	83 f9 04	 cmp	 ecx, 4
  0010a	7d 19		 jge	 SHORT $LN2@ElementInR
; File C:\Program Files (x86)\Microsoft Visual Studio\2019\Community\VC\Tools\MSVC\14.29.30133\atlmfc\include\atltypes.h

; 312  : 	cx = initCX;

  0010c	2b f3		 sub	 esi, ebx

; 691  : 	::InflateRect(this, size.cx, size.cy);

  0010e	6a 00		 push	 0
; File D:\git\src\IBK\IBK_DRFN\ProjSrc\SrcChartEx\ChartAddIn\ChartAnalysisToolAddIn\AnalysisTool\Line.cpp

; 62   : 	if( rctLineRect.Width()		< 4) rctLineRect.InflateRect( CSize( ( 4 - rctLineRect.Width()) / 2,0));

  00110	8d 46 04	 lea	 eax, DWORD PTR [esi+4]
  00113	99		 cdq
  00114	2b c2		 sub	 eax, edx
  00116	d1 f8		 sar	 eax, 1
; File C:\Program Files (x86)\Microsoft Visual Studio\2019\Community\VC\Tools\MSVC\14.29.30133\atlmfc\include\atltypes.h

; 691  : 	::InflateRect(this, size.cx, size.cy);

  00118	50		 push	 eax
  00119	8d 45 e0	 lea	 eax, DWORD PTR _rctLineRect$[ebp]
  0011c	50		 push	 eax
  0011d	ff d7		 call	 edi
  0011f	8b 45 ec	 mov	 eax, DWORD PTR _rctLineRect$[ebp+12]
  00122	8b 55 e4	 mov	 edx, DWORD PTR _rctLineRect$[ebp+4]
$LN2@ElementInR:

; 581  : 	return bottom - top;

  00125	8b c8		 mov	 ecx, eax
  00127	2b ca		 sub	 ecx, edx
; File D:\git\src\IBK\IBK_DRFN\ProjSrc\SrcChartEx\ChartAddIn\ChartAnalysisToolAddIn\AnalysisTool\Line.cpp

; 63   : 	if( rctLineRect.Height()	< 4) rctLineRect.InflateRect( CSize( 0,( 4 - rctLineRect.Height()) / 2));

  00129	83 f9 04	 cmp	 ecx, 4
  0012c	7d 13		 jge	 SHORT $LN3@ElementInR
; File C:\Program Files (x86)\Microsoft Visual Studio\2019\Community\VC\Tools\MSVC\14.29.30133\atlmfc\include\atltypes.h

; 313  : 	cy = initCY;

  0012e	2b d0		 sub	 edx, eax
; File D:\git\src\IBK\IBK_DRFN\ProjSrc\SrcChartEx\ChartAddIn\ChartAnalysisToolAddIn\AnalysisTool\Line.cpp

; 63   : 	if( rctLineRect.Height()	< 4) rctLineRect.InflateRect( CSize( 0,( 4 - rctLineRect.Height()) / 2));

  00130	8d 42 04	 lea	 eax, DWORD PTR [edx+4]
  00133	99		 cdq
  00134	2b c2		 sub	 eax, edx
  00136	d1 f8		 sar	 eax, 1
; File C:\Program Files (x86)\Microsoft Visual Studio\2019\Community\VC\Tools\MSVC\14.29.30133\atlmfc\include\atltypes.h

; 691  : 	::InflateRect(this, size.cx, size.cy);

  00138	50		 push	 eax
  00139	6a 00		 push	 0
  0013b	8d 45 e0	 lea	 eax, DWORD PTR _rctLineRect$[ebp]
  0013e	50		 push	 eax
  0013f	ff d7		 call	 edi
$LN3@ElementInR:

; 648  : 	return ::PtInRect(this, point);

  00141	8b 45 d0	 mov	 eax, DWORD PTR _p_ptCursor$GSCopy$1$[ebp]
  00144	ff 70 04	 push	 DWORD PTR [eax+4]
  00147	ff 30		 push	 DWORD PTR [eax]
  00149	8d 45 e0	 lea	 eax, DWORD PTR _rctLineRect$[ebp]
  0014c	50		 push	 eax
  0014d	ff 15 00 00 00
	00		 call	 DWORD PTR __imp__PtInRect@12
; File D:\git\src\IBK\IBK_DRFN\ProjSrc\SrcChartEx\ChartAddIn\ChartAnalysisToolAddIn\AnalysisTool\Line.cpp

; 64   : 	return ( rctLineRect.PtInRect( p_ptCursor) ? true : false);

  00153	85 c0		 test	 eax, eax
  00155	0f 95 c0	 setne	 al

; 65   : }

  00158	8b 4d f4	 mov	 ecx, DWORD PTR __$EHRec$[ebp]
  0015b	64 89 0d 00 00
	00 00		 mov	 DWORD PTR fs:0, ecx
  00162	59		 pop	 ecx
  00163	5f		 pop	 edi
  00164	5e		 pop	 esi
  00165	5b		 pop	 ebx
  00166	8b 4d f0	 mov	 ecx, DWORD PTR __$ArrayPad$[ebp]
  00169	33 cd		 xor	 ecx, ebp
  0016b	e8 00 00 00 00	 call	 @__security_check_cookie@4
  00170	8b e5		 mov	 esp, ebp
  00172	5d		 pop	 ebp
  00173	c2 10 00	 ret	 16			; 00000010H
_TEXT	ENDS
;	COMDAT text$x
text$x	SEGMENT
__unwindfunclet$?ElementInRegion@CLine@@MBE_NABVCRect@@ABVCPoint@@11@Z$0:
  00000	8d 4d 88	 lea	 ecx, DWORD PTR $T7[ebp]
  00003	e9 00 00 00 00	 jmp	 ??1CElementCommonEnvironment@@QAE@XZ
__unwindfunclet$?ElementInRegion@CLine@@MBE_NABVCRect@@ABVCPoint@@11@Z$1:
  00008	8d 8d 40 ff ff
	ff		 lea	 ecx, DWORD PTR $T6[ebp]
  0000e	e9 00 00 00 00	 jmp	 ??1CElementCommonEnvironment@@QAE@XZ
  00013	cc		 int	 3
  00014	cc		 int	 3
  00015	cc		 int	 3
  00016	cc		 int	 3
  00017	cc		 int	 3
__ehhandler$?ElementInRegion@CLine@@MBE_NABVCRect@@ABVCPoint@@11@Z:
  00018	90		 npad	 1
  00019	90		 npad	 1
  0001a	8b 54 24 08	 mov	 edx, DWORD PTR [esp+8]
  0001e	8d 42 0c	 lea	 eax, DWORD PTR [edx+12]
  00021	8b 8a 3c ff ff
	ff		 mov	 ecx, DWORD PTR [edx-196]
  00027	33 c8		 xor	 ecx, eax
  00029	e8 00 00 00 00	 call	 @__security_check_cookie@4
  0002e	8b 4a fc	 mov	 ecx, DWORD PTR [edx-4]
  00031	33 c8		 xor	 ecx, eax
  00033	e8 00 00 00 00	 call	 @__security_check_cookie@4
  00038	b8 00 00 00 00	 mov	 eax, OFFSET __ehfuncinfo$?ElementInRegion@CLine@@MBE_NABVCRect@@ABVCPoint@@11@Z
  0003d	e9 00 00 00 00	 jmp	 ___CxxFrameHandler3
text$x	ENDS
?ElementInRegion@CLine@@MBE_NABVCRect@@ABVCPoint@@11@Z ENDP ; CLine::ElementInRegion
; Function compile flags: /Ogtp
; File D:\git\src\IBK\IBK_DRFN\ProjSrc\SrcChartEx\ChartAddIn\ChartAnalysisToolAddIn\AnalysisTool\Line.cpp
;	COMDAT ?GetTwoPointDrawer@CLine@@MAEAAVCTwoPointDrawer@@XZ
_TEXT	SEGMENT
?GetTwoPointDrawer@CLine@@MAEAAVCTwoPointDrawer@@XZ PROC ; CLine::GetTwoPointDrawer, COMDAT
; _this$ = ecx

; 51   : 	return m_lineDrawer;

  00000	8d 81 9c 00 00
	00		 lea	 eax, DWORD PTR [ecx+156]

; 52   : }

  00006	c3		 ret	 0
?GetTwoPointDrawer@CLine@@MAEAAVCTwoPointDrawer@@XZ ENDP ; CLine::GetTwoPointDrawer
_TEXT	ENDS
; Function compile flags: /Ogtp
; File D:\git\src\IBK\IBK_DRFN\ProjSrc\SrcChartEx\ChartAddIn\ChartAnalysisToolAddIn\AnalysisTool\Line.cpp
;	COMDAT ?GetTextPosition@CLine@@MAEPAVCTextPosition@@XZ
_TEXT	SEGMENT
?GetTextPosition@CLine@@MAEPAVCTextPosition@@XZ PROC	; CLine::GetTextPosition, COMDAT
; _this$ = ecx

; 46   : 	return &m_textPosition;

  00000	8d 81 90 00 00
	00		 lea	 eax, DWORD PTR [ecx+144]

; 47   : }

  00006	c3		 ret	 0
?GetTextPosition@CLine@@MAEPAVCTextPosition@@XZ ENDP	; CLine::GetTextPosition
_TEXT	ENDS
; Function compile flags: /Ogtp
; File D:\git\src\IBK\IBK_DRFN\ProjSrc\SrcChartEx\ChartAddIn\ChartAnalysisToolAddIn\AnalysisTool\Line.cpp
;	COMDAT ?GetTextPosition@CLine@@MBEPBVCTextPosition@@XZ
_TEXT	SEGMENT
?GetTextPosition@CLine@@MBEPBVCTextPosition@@XZ PROC	; CLine::GetTextPosition, COMDAT
; _this$ = ecx

; 41   : 	return &m_textPosition;

  00000	8d 81 90 00 00
	00		 lea	 eax, DWORD PTR [ecx+144]

; 42   : }

  00006	c3		 ret	 0
?GetTextPosition@CLine@@MBEPBVCTextPosition@@XZ ENDP	; CLine::GetTextPosition
_TEXT	ENDS
; Function compile flags: /Ogtp
; File D:\git\src\IBK\IBK_DRFN\ProjSrc\SrcChartEx\ChartAddIn\ChartAnalysisToolAddIn\AnalysisTool\Line.cpp
;	COMDAT ?GetElementType@CLine@@UBE?AW4ElementType@CToolEnumData@@XZ
_TEXT	SEGMENT
?GetElementType@CLine@@UBE?AW4ElementType@CToolEnumData@@XZ PROC ; CLine::GetElementType, COMDAT
; _this$ = ecx

; 35   : 	return CToolEnumData::Line;

  00000	b8 05 00 00 00	 mov	 eax, 5

; 36   : }

  00005	c3		 ret	 0
?GetElementType@CLine@@UBE?AW4ElementType@CToolEnumData@@XZ ENDP ; CLine::GetElementType
_TEXT	ENDS
; Function compile flags: /Ogtp
; File D:\git\src\IBK\IBK_DRFN\ProjSrc\SrcChartEx\ChartAddIn\ChartAnalysisToolAddIn\AnalysisTool\Line.cpp
;	COMDAT ??0CLine@@QAE@ABVCTextHorzPosition@@ABVCCoordinate@@1W4TOOLTYPE@CAnalysis@@ABVCElementCommonEnvironment@@@Z
_TEXT	SEGMENT
_this$ = -16						; size = 4
__$EHRec$ = -12						; size = 12
_position$ = 8						; size = 4
_point1$ = 12						; size = 4
_point2$ = 16						; size = 4
_p_eToolType$ = 20					; size = 4
_environment$ = 24					; size = 4
??0CLine@@QAE@ABVCTextHorzPosition@@ABVCCoordinate@@1W4TOOLTYPE@CAnalysis@@ABVCElementCommonEnvironment@@@Z PROC ; CLine::CLine, COMDAT
; _this$ = ecx

; 29   : {

  00000	55		 push	 ebp
  00001	8b ec		 mov	 ebp, esp
  00003	6a ff		 push	 -1
  00005	68 00 00 00 00	 push	 __ehhandler$??0CLine@@QAE@ABVCTextHorzPosition@@ABVCCoordinate@@1W4TOOLTYPE@CAnalysis@@ABVCElementCommonEnvironment@@@Z
  0000a	64 a1 00 00 00
	00		 mov	 eax, DWORD PTR fs:0
  00010	50		 push	 eax
  00011	51		 push	 ecx
  00012	56		 push	 esi
  00013	57		 push	 edi
  00014	a1 00 00 00 00	 mov	 eax, DWORD PTR ___security_cookie
  00019	33 c5		 xor	 eax, ebp
  0001b	50		 push	 eax
  0001c	8d 45 f4	 lea	 eax, DWORD PTR __$EHRec$[ebp]
  0001f	64 a3 00 00 00
	00		 mov	 DWORD PTR fs:0, eax
  00025	8b f9		 mov	 edi, ecx
  00027	89 7d f0	 mov	 DWORD PTR _this$[ebp], edi

; 26   : 			 CTwoPointElement(point1, point2, environment),

  0002a	ff 75 18	 push	 DWORD PTR _environment$[ebp]
  0002d	ff 75 10	 push	 DWORD PTR _point2$[ebp]
  00030	ff 75 0c	 push	 DWORD PTR _point1$[ebp]
  00033	e8 00 00 00 00	 call	 ??0CTwoPointElement@@QAE@ABVCCoordinate@@0ABVCElementCommonEnvironment@@@Z ; CTwoPointElement::CTwoPointElement

; 27   : 			 m_textPosition(position),

  00038	ff 75 08	 push	 DWORD PTR _position$[ebp]
  0003b	8d 8f 90 00 00
	00		 lea	 ecx, DWORD PTR [edi+144]
  00041	c7 45 fc 00 00
	00 00		 mov	 DWORD PTR __$EHRec$[ebp+8], 0

; 29   : {

  00048	c7 07 00 00 00
	00		 mov	 DWORD PTR [edi], OFFSET ??_7CLine@@6B@
  0004e	e8 00 00 00 00	 call	 ??0CTextHorzPosition@@QAE@ABV0@@Z ; CTextHorzPosition::CTextHorzPosition
  00053	8b 75 14	 mov	 esi, DWORD PTR _p_eToolType$[ebp]
  00056	8d 8f 9c 00 00
	00		 lea	 ecx, DWORD PTR [edi+156]
  0005c	6a 01		 push	 1
  0005e	56		 push	 esi
  0005f	e8 00 00 00 00	 call	 ??0CLineDrawer@@QAE@W4TOOLTYPE@CAnalysis@@@Z ; CLineDrawer::CLineDrawer

; 30   : 	m_eToolType = p_eToolType;

  00064	89 b7 bc 00 00
	00		 mov	 DWORD PTR [edi+188], esi

; 31   : }

  0006a	8b c7		 mov	 eax, edi
  0006c	8b 4d f4	 mov	 ecx, DWORD PTR __$EHRec$[ebp]
  0006f	64 89 0d 00 00
	00 00		 mov	 DWORD PTR fs:0, ecx
  00076	59		 pop	 ecx
  00077	5f		 pop	 edi
  00078	5e		 pop	 esi
  00079	8b e5		 mov	 esp, ebp
  0007b	5d		 pop	 ebp
  0007c	c2 14 00	 ret	 20			; 00000014H
_TEXT	ENDS
;	COMDAT text$x
text$x	SEGMENT
__unwindfunclet$??0CLine@@QAE@ABVCTextHorzPosition@@ABVCCoordinate@@1W4TOOLTYPE@CAnalysis@@ABVCElementCommonEnvironment@@@Z$0:
  00000	8b 4d f0	 mov	 ecx, DWORD PTR _this$[ebp]
  00003	e9 00 00 00 00	 jmp	 ??1CTwoPointElement@@UAE@XZ
  00008	cc		 int	 3
  00009	cc		 int	 3
  0000a	cc		 int	 3
  0000b	cc		 int	 3
  0000c	cc		 int	 3
__ehhandler$??0CLine@@QAE@ABVCTextHorzPosition@@ABVCCoordinate@@1W4TOOLTYPE@CAnalysis@@ABVCElementCommonEnvironment@@@Z:
  0000d	90		 npad	 1
  0000e	90		 npad	 1
  0000f	8b 54 24 08	 mov	 edx, DWORD PTR [esp+8]
  00013	8d 42 0c	 lea	 eax, DWORD PTR [edx+12]
  00016	8b 4a f0	 mov	 ecx, DWORD PTR [edx-16]
  00019	33 c8		 xor	 ecx, eax
  0001b	e8 00 00 00 00	 call	 @__security_check_cookie@4
  00020	b8 00 00 00 00	 mov	 eax, OFFSET __ehfuncinfo$??0CLine@@QAE@ABVCTextHorzPosition@@ABVCCoordinate@@1W4TOOLTYPE@CAnalysis@@ABVCElementCommonEnvironment@@@Z
  00025	e9 00 00 00 00	 jmp	 ___CxxFrameHandler3
text$x	ENDS
??0CLine@@QAE@ABVCTextHorzPosition@@ABVCCoordinate@@1W4TOOLTYPE@CAnalysis@@ABVCElementCommonEnvironment@@@Z ENDP ; CLine::CLine
; Function compile flags: /Ogtp
; File D:\git\src\IBK\IBK_DRFN\ProjSrc\SrcChartEx\ChartAddIn\ChartAnalysisToolAddIn\AnalysisTool\Element.h
;	COMDAT ??1CVertElement@@UAE@XZ
_TEXT	SEGMENT
??1CVertElement@@UAE@XZ PROC				; CVertElement::~CVertElement, COMDAT
; _this$ = ecx

; 31   : 	virtual ~CElement()	{}

  00000	56		 push	 esi
  00001	8b f1		 mov	 esi, ecx
  00003	8d 4e 64	 lea	 ecx, DWORD PTR [esi+100]
  00006	ff 15 00 00 00
	00		 call	 DWORD PTR __imp_??1?$CStringT@DV?$StrTraitMFC_DLL@DV?$ChTraitsCRT@D@ATL@@@@@ATL@@QAE@XZ
  0000c	8d 4e 40	 lea	 ecx, DWORD PTR [esi+64]
  0000f	c7 06 00 00 00
	00		 mov	 DWORD PTR [esi], OFFSET ??_7CElement@@6B@
  00015	ff 15 00 00 00
	00		 call	 DWORD PTR __imp_??1?$CStringT@DV?$StrTraitMFC_DLL@DV?$ChTraitsCRT@D@ATL@@@@@ATL@@QAE@XZ
  0001b	8d 4e 3c	 lea	 ecx, DWORD PTR [esi+60]
  0001e	ff 15 00 00 00
	00		 call	 DWORD PTR __imp_??1?$CStringT@DV?$StrTraitMFC_DLL@DV?$ChTraitsCRT@D@ATL@@@@@ATL@@QAE@XZ
  00024	8d 4e 38	 lea	 ecx, DWORD PTR [esi+56]
  00027	5e		 pop	 esi
  00028	ff 25 00 00 00
	00		 jmp	 DWORD PTR __imp_??1?$CStringT@DV?$StrTraitMFC_DLL@DV?$ChTraitsCRT@D@ATL@@@@@ATL@@QAE@XZ
??1CVertElement@@UAE@XZ ENDP				; CVertElement::~CVertElement
_TEXT	ENDS
; Function compile flags: /Ogtp
; File D:\git\src\IBK\IBK_DRFN\ProjSrc\SrcChartEx\ChartAddIn\ChartAnalysisToolAddIn\AnalysisTool\Element.h
;	COMDAT ??1CMultiPointElement@@UAE@XZ
_TEXT	SEGMENT
__$EHRec$ = -12						; size = 12
??1CMultiPointElement@@UAE@XZ PROC			; CMultiPointElement::~CMultiPointElement, COMDAT
; _this$ = ecx
  00000	55		 push	 ebp
  00001	8b ec		 mov	 ebp, esp
  00003	6a ff		 push	 -1
  00005	68 00 00 00 00	 push	 __ehhandler$??1CMultiPointElement@@UAE@XZ
  0000a	64 a1 00 00 00
	00		 mov	 eax, DWORD PTR fs:0
  00010	50		 push	 eax
  00011	56		 push	 esi
  00012	a1 00 00 00 00	 mov	 eax, DWORD PTR ___security_cookie
  00017	33 c5		 xor	 eax, ebp
  00019	50		 push	 eax
  0001a	8d 45 f4	 lea	 eax, DWORD PTR __$EHRec$[ebp]
  0001d	64 a3 00 00 00
	00		 mov	 DWORD PTR fs:0, eax
  00023	8b f1		 mov	 esi, ecx
  00025	68 00 00 00 00	 push	 OFFSET ??1CPoints@@QAE@XZ
  0002a	68 f4 01 00 00	 push	 500			; 000001f4H
  0002f	6a 28		 push	 40			; 00000028H
  00031	8d 46 58	 lea	 eax, DWORD PTR [esi+88]
  00034	50		 push	 eax
  00035	e8 00 00 00 00	 call	 ??_M@YGXPAXIIP6EX0@Z@Z

; 31   : 	virtual ~CElement()	{}

  0003a	8d 4e 40	 lea	 ecx, DWORD PTR [esi+64]
  0003d	c7 06 00 00 00
	00		 mov	 DWORD PTR [esi], OFFSET ??_7CElement@@6B@
  00043	ff 15 00 00 00
	00		 call	 DWORD PTR __imp_??1?$CStringT@DV?$StrTraitMFC_DLL@DV?$ChTraitsCRT@D@ATL@@@@@ATL@@QAE@XZ
  00049	8d 4e 3c	 lea	 ecx, DWORD PTR [esi+60]
  0004c	ff 15 00 00 00
	00		 call	 DWORD PTR __imp_??1?$CStringT@DV?$StrTraitMFC_DLL@DV?$ChTraitsCRT@D@ATL@@@@@ATL@@QAE@XZ
  00052	8d 4e 38	 lea	 ecx, DWORD PTR [esi+56]
  00055	ff 15 00 00 00
	00		 call	 DWORD PTR __imp_??1?$CStringT@DV?$StrTraitMFC_DLL@DV?$ChTraitsCRT@D@ATL@@@@@ATL@@QAE@XZ
  0005b	8b 4d f4	 mov	 ecx, DWORD PTR __$EHRec$[ebp]
  0005e	64 89 0d 00 00
	00 00		 mov	 DWORD PTR fs:0, ecx
  00065	59		 pop	 ecx
  00066	5e		 pop	 esi
  00067	8b e5		 mov	 esp, ebp
  00069	5d		 pop	 ebp
  0006a	c3		 ret	 0
  0006b	cc		 int	 3
  0006c	cc		 int	 3
  0006d	cc		 int	 3
  0006e	cc		 int	 3
  0006f	cc		 int	 3
_TEXT	ENDS
;	COMDAT text$x
text$x	SEGMENT
__ehhandler$??1CMultiPointElement@@UAE@XZ:
  00000	90		 npad	 1
  00001	90		 npad	 1
  00002	8b 54 24 08	 mov	 edx, DWORD PTR [esp+8]
  00006	8d 42 0c	 lea	 eax, DWORD PTR [edx+12]
  00009	8b 4a f8	 mov	 ecx, DWORD PTR [edx-8]
  0000c	33 c8		 xor	 ecx, eax
  0000e	e8 00 00 00 00	 call	 @__security_check_cookie@4
  00013	b8 00 00 00 00	 mov	 eax, OFFSET __ehfuncinfo$??1CMultiPointElement@@UAE@XZ
  00018	e9 00 00 00 00	 jmp	 ___CxxFrameHandler3
text$x	ENDS
??1CMultiPointElement@@UAE@XZ ENDP			; CMultiPointElement::~CMultiPointElement
; Function compile flags: /Ogtp
; File D:\git\src\IBK\IBK_DRFN\ProjSrc\SrcChartEx\ChartAddIn\ChartAnalysisToolAddIn\AnalysisTool\Element.h
;	COMDAT ??1CThreePointElement@@UAE@XZ
_TEXT	SEGMENT
??1CThreePointElement@@UAE@XZ PROC			; CThreePointElement::~CThreePointElement, COMDAT
; _this$ = ecx

; 31   : 	virtual ~CElement()	{}

  00000	56		 push	 esi
  00001	8b f1		 mov	 esi, ecx
  00003	8d 8e a4 00 00
	00		 lea	 ecx, DWORD PTR [esi+164]
  00009	ff 15 00 00 00
	00		 call	 DWORD PTR __imp_??1?$CStringT@DV?$StrTraitMFC_DLL@DV?$ChTraitsCRT@D@ATL@@@@@ATL@@QAE@XZ
  0000f	8d 8e 84 00 00
	00		 lea	 ecx, DWORD PTR [esi+132]
  00015	ff 15 00 00 00
	00		 call	 DWORD PTR __imp_??1?$CStringT@DV?$StrTraitMFC_DLL@DV?$ChTraitsCRT@D@ATL@@@@@ATL@@QAE@XZ
  0001b	8d 4e 64	 lea	 ecx, DWORD PTR [esi+100]
  0001e	ff 15 00 00 00
	00		 call	 DWORD PTR __imp_??1?$CStringT@DV?$StrTraitMFC_DLL@DV?$ChTraitsCRT@D@ATL@@@@@ATL@@QAE@XZ
  00024	8d 4e 40	 lea	 ecx, DWORD PTR [esi+64]
  00027	c7 06 00 00 00
	00		 mov	 DWORD PTR [esi], OFFSET ??_7CElement@@6B@
  0002d	ff 15 00 00 00
	00		 call	 DWORD PTR __imp_??1?$CStringT@DV?$StrTraitMFC_DLL@DV?$ChTraitsCRT@D@ATL@@@@@ATL@@QAE@XZ
  00033	8d 4e 3c	 lea	 ecx, DWORD PTR [esi+60]
  00036	ff 15 00 00 00
	00		 call	 DWORD PTR __imp_??1?$CStringT@DV?$StrTraitMFC_DLL@DV?$ChTraitsCRT@D@ATL@@@@@ATL@@QAE@XZ
  0003c	8d 4e 38	 lea	 ecx, DWORD PTR [esi+56]
  0003f	5e		 pop	 esi
  00040	ff 25 00 00 00
	00		 jmp	 DWORD PTR __imp_??1?$CStringT@DV?$StrTraitMFC_DLL@DV?$ChTraitsCRT@D@ATL@@@@@ATL@@QAE@XZ
??1CThreePointElement@@UAE@XZ ENDP			; CThreePointElement::~CThreePointElement
_TEXT	ENDS
; Function compile flags: /Ogtp
; File D:\git\src\IBK\IBK_DRFN\ProjSrc\SrcChartEx\ChartAddIn\ChartAnalysisToolAddIn\AnalysisTool\Element.h
;	COMDAT ??1CTwoPointElement@@UAE@XZ
_TEXT	SEGMENT
??1CTwoPointElement@@UAE@XZ PROC			; CTwoPointElement::~CTwoPointElement, COMDAT
; _this$ = ecx

; 31   : 	virtual ~CElement()	{}

  00000	56		 push	 esi
  00001	8b f1		 mov	 esi, ecx
  00003	8d 8e 84 00 00
	00		 lea	 ecx, DWORD PTR [esi+132]
  00009	ff 15 00 00 00
	00		 call	 DWORD PTR __imp_??1?$CStringT@DV?$StrTraitMFC_DLL@DV?$ChTraitsCRT@D@ATL@@@@@ATL@@QAE@XZ
  0000f	8d 4e 64	 lea	 ecx, DWORD PTR [esi+100]
  00012	ff 15 00 00 00
	00		 call	 DWORD PTR __imp_??1?$CStringT@DV?$StrTraitMFC_DLL@DV?$ChTraitsCRT@D@ATL@@@@@ATL@@QAE@XZ
  00018	8d 4e 40	 lea	 ecx, DWORD PTR [esi+64]
  0001b	c7 06 00 00 00
	00		 mov	 DWORD PTR [esi], OFFSET ??_7CElement@@6B@
  00021	ff 15 00 00 00
	00		 call	 DWORD PTR __imp_??1?$CStringT@DV?$StrTraitMFC_DLL@DV?$ChTraitsCRT@D@ATL@@@@@ATL@@QAE@XZ
  00027	8d 4e 3c	 lea	 ecx, DWORD PTR [esi+60]
  0002a	ff 15 00 00 00
	00		 call	 DWORD PTR __imp_??1?$CStringT@DV?$StrTraitMFC_DLL@DV?$ChTraitsCRT@D@ATL@@@@@ATL@@QAE@XZ
  00030	8d 4e 38	 lea	 ecx, DWORD PTR [esi+56]
  00033	5e		 pop	 esi
  00034	ff 25 00 00 00
	00		 jmp	 DWORD PTR __imp_??1?$CStringT@DV?$StrTraitMFC_DLL@DV?$ChTraitsCRT@D@ATL@@@@@ATL@@QAE@XZ
??1CTwoPointElement@@UAE@XZ ENDP			; CTwoPointElement::~CTwoPointElement
_TEXT	ENDS
; Function compile flags: /Ogtp
; File D:\git\src\IBK\IBK_DRFN\ProjSrc\SrcChartEx\ChartAddIn\ChartAnalysisToolAddIn\AnalysisTool\Element.h
;	COMDAT ??1COnePointElement@@UAE@XZ
_TEXT	SEGMENT
??1COnePointElement@@UAE@XZ PROC			; COnePointElement::~COnePointElement, COMDAT
; _this$ = ecx

; 31   : 	virtual ~CElement()	{}

  00000	56		 push	 esi
  00001	8b f1		 mov	 esi, ecx
  00003	8d 4e 64	 lea	 ecx, DWORD PTR [esi+100]
  00006	ff 15 00 00 00
	00		 call	 DWORD PTR __imp_??1?$CStringT@DV?$StrTraitMFC_DLL@DV?$ChTraitsCRT@D@ATL@@@@@ATL@@QAE@XZ
  0000c	8d 4e 40	 lea	 ecx, DWORD PTR [esi+64]
  0000f	c7 06 00 00 00
	00		 mov	 DWORD PTR [esi], OFFSET ??_7CElement@@6B@
  00015	ff 15 00 00 00
	00		 call	 DWORD PTR __imp_??1?$CStringT@DV?$StrTraitMFC_DLL@DV?$ChTraitsCRT@D@ATL@@@@@ATL@@QAE@XZ
  0001b	8d 4e 3c	 lea	 ecx, DWORD PTR [esi+60]
  0001e	ff 15 00 00 00
	00		 call	 DWORD PTR __imp_??1?$CStringT@DV?$StrTraitMFC_DLL@DV?$ChTraitsCRT@D@ATL@@@@@ATL@@QAE@XZ
  00024	8d 4e 38	 lea	 ecx, DWORD PTR [esi+56]
  00027	5e		 pop	 esi
  00028	ff 25 00 00 00
	00		 jmp	 DWORD PTR __imp_??1?$CStringT@DV?$StrTraitMFC_DLL@DV?$ChTraitsCRT@D@ATL@@@@@ATL@@QAE@XZ
??1COnePointElement@@UAE@XZ ENDP			; COnePointElement::~COnePointElement
_TEXT	ENDS
; Function compile flags: /Ogtp
;	COMDAT ??1CPoints@@QAE@XZ
_TEXT	SEGMENT
??1CPoints@@QAE@XZ PROC					; CPoints::~CPoints, COMDAT
; _this$ = ecx
  00000	83 c1 14	 add	 ecx, 20			; 00000014H
  00003	ff 25 00 00 00
	00		 jmp	 DWORD PTR __imp_??1?$CStringT@DV?$StrTraitMFC_DLL@DV?$ChTraitsCRT@D@ATL@@@@@ATL@@QAE@XZ
??1CPoints@@QAE@XZ ENDP					; CPoints::~CPoints
_TEXT	ENDS
; Function compile flags: /Ogtp
;	COMDAT ??1CCoordinate@@QAE@XZ
_TEXT	SEGMENT
??1CCoordinate@@QAE@XZ PROC				; CCoordinate::~CCoordinate, COMDAT
; _this$ = ecx
  00000	83 c1 14	 add	 ecx, 20			; 00000014H
  00003	ff 25 00 00 00
	00		 jmp	 DWORD PTR __imp_??1?$CStringT@DV?$StrTraitMFC_DLL@DV?$ChTraitsCRT@D@ATL@@@@@ATL@@QAE@XZ
??1CCoordinate@@QAE@XZ ENDP				; CCoordinate::~CCoordinate
_TEXT	ENDS
; Function compile flags: /Ogtp
; File D:\git\src\IBK\IBK_DRFN\ProjSrc\SrcChartEx\ChartAddIn\ChartAnalysisToolAddIn\AnalysisTool\Element.h
;	COMDAT ??_GCElement@@UAEPAXI@Z
_TEXT	SEGMENT
___flags$ = 8						; size = 4
??_GCElement@@UAEPAXI@Z PROC				; CElement::`scalar deleting destructor', COMDAT
; _this$ = ecx
  00000	55		 push	 ebp
  00001	8b ec		 mov	 ebp, esp

; 31   : 	virtual ~CElement()	{}

  00003	56		 push	 esi
  00004	8b f1		 mov	 esi, ecx
  00006	8d 4e 40	 lea	 ecx, DWORD PTR [esi+64]
  00009	c7 06 00 00 00
	00		 mov	 DWORD PTR [esi], OFFSET ??_7CElement@@6B@
  0000f	ff 15 00 00 00
	00		 call	 DWORD PTR __imp_??1?$CStringT@DV?$StrTraitMFC_DLL@DV?$ChTraitsCRT@D@ATL@@@@@ATL@@QAE@XZ
  00015	8d 4e 3c	 lea	 ecx, DWORD PTR [esi+60]
  00018	ff 15 00 00 00
	00		 call	 DWORD PTR __imp_??1?$CStringT@DV?$StrTraitMFC_DLL@DV?$ChTraitsCRT@D@ATL@@@@@ATL@@QAE@XZ
  0001e	8d 4e 38	 lea	 ecx, DWORD PTR [esi+56]
  00021	ff 15 00 00 00
	00		 call	 DWORD PTR __imp_??1?$CStringT@DV?$StrTraitMFC_DLL@DV?$ChTraitsCRT@D@ATL@@@@@ATL@@QAE@XZ
  00027	f6 45 08 01	 test	 BYTE PTR ___flags$[ebp], 1
  0002b	74 0b		 je	 SHORT $LN13@scalar
  0002d	6a 50		 push	 80			; 00000050H
  0002f	56		 push	 esi
  00030	e8 00 00 00 00	 call	 ??3@YAXPAXI@Z		; operator delete
  00035	83 c4 08	 add	 esp, 8
$LN13@scalar:
  00038	8b c6		 mov	 eax, esi
  0003a	5e		 pop	 esi
  0003b	5d		 pop	 ebp
  0003c	c2 04 00	 ret	 4
??_GCElement@@UAEPAXI@Z ENDP				; CElement::`scalar deleting destructor'
_TEXT	ENDS
; Function compile flags: /Ogtp
; File D:\git\src\IBK\IBK_DRFN\ProjSrc\SrcChartEx\ChartAddIn\ChartAnalysisToolAddIn\AnalysisTool\Element.h
;	COMDAT ??1CElement@@UAE@XZ
_TEXT	SEGMENT
??1CElement@@UAE@XZ PROC				; CElement::~CElement, COMDAT
; _this$ = ecx

; 31   : 	virtual ~CElement()	{}

  00000	56		 push	 esi
  00001	8b f1		 mov	 esi, ecx
  00003	8d 4e 40	 lea	 ecx, DWORD PTR [esi+64]
  00006	c7 06 00 00 00
	00		 mov	 DWORD PTR [esi], OFFSET ??_7CElement@@6B@
  0000c	ff 15 00 00 00
	00		 call	 DWORD PTR __imp_??1?$CStringT@DV?$StrTraitMFC_DLL@DV?$ChTraitsCRT@D@ATL@@@@@ATL@@QAE@XZ
  00012	8d 4e 3c	 lea	 ecx, DWORD PTR [esi+60]
  00015	ff 15 00 00 00
	00		 call	 DWORD PTR __imp_??1?$CStringT@DV?$StrTraitMFC_DLL@DV?$ChTraitsCRT@D@ATL@@@@@ATL@@QAE@XZ
  0001b	8d 4e 38	 lea	 ecx, DWORD PTR [esi+56]
  0001e	5e		 pop	 esi
  0001f	ff 25 00 00 00
	00		 jmp	 DWORD PTR __imp_??1?$CStringT@DV?$StrTraitMFC_DLL@DV?$ChTraitsCRT@D@ATL@@@@@ATL@@QAE@XZ
??1CElement@@UAE@XZ ENDP				; CElement::~CElement
_TEXT	ENDS
; Function compile flags: /Ogtp
;	COMDAT ??1CElementCommonEnvironment@@QAE@XZ
_TEXT	SEGMENT
??1CElementCommonEnvironment@@QAE@XZ PROC		; CElementCommonEnvironment::~CElementCommonEnvironment, COMDAT
; _this$ = ecx
  00000	56		 push	 esi
  00001	8b f1		 mov	 esi, ecx
  00003	8d 4e 38	 lea	 ecx, DWORD PTR [esi+56]
  00006	ff 15 00 00 00
	00		 call	 DWORD PTR __imp_??1?$CStringT@DV?$StrTraitMFC_DLL@DV?$ChTraitsCRT@D@ATL@@@@@ATL@@QAE@XZ
  0000c	8d 4e 34	 lea	 ecx, DWORD PTR [esi+52]
  0000f	ff 15 00 00 00
	00		 call	 DWORD PTR __imp_??1?$CStringT@DV?$StrTraitMFC_DLL@DV?$ChTraitsCRT@D@ATL@@@@@ATL@@QAE@XZ
  00015	8d 4e 30	 lea	 ecx, DWORD PTR [esi+48]
  00018	5e		 pop	 esi
  00019	ff 25 00 00 00
	00		 jmp	 DWORD PTR __imp_??1?$CStringT@DV?$StrTraitMFC_DLL@DV?$ChTraitsCRT@D@ATL@@@@@ATL@@QAE@XZ
??1CElementCommonEnvironment@@QAE@XZ ENDP		; CElementCommonEnvironment::~CElementCommonEnvironment
_TEXT	ENDS
; Function compile flags: /Ogtp
; File D:\git\src\IBK\IBK_DRFN\ProjSrc\SrcChartEx\ChartAddIn\ChartAnalysisToolAddIn\AnalysisTool\Line.cpp
;	COMDAT ?__empty_global_delete@@YAXPAXI@Z
_TEXT	SEGMENT
___formal$ = 8						; size = 4
___formal$ = 12						; size = 4
?__empty_global_delete@@YAXPAXI@Z PROC			; __empty_global_delete, COMDAT

  00000	c2 00 00	 ret	 0
?__empty_global_delete@@YAXPAXI@Z ENDP			; __empty_global_delete
_TEXT	ENDS
; Function compile flags: /Ogtp
; File D:\git\src\IBK\IBK_DRFN\ProjSrc\SrcChartEx\ChartAddIn\ChartAnalysisToolAddIn\AnalysisTool\Line.cpp
;	COMDAT ?__empty_global_delete@@YAXPAX@Z
_TEXT	SEGMENT
___formal$ = 8						; size = 4
?__empty_global_delete@@YAXPAX@Z PROC			; __empty_global_delete, COMDAT

  00000	c2 00 00	 ret	 0
?__empty_global_delete@@YAXPAX@Z ENDP			; __empty_global_delete
_TEXT	ENDS
END
