; Listing generated by Microsoft (R) Optimizing Compiler Version 19.29.30145.0 

	TITLE	D:\git\src\IBK\IBK_DRFN\#DRfn-CS\_Obj\AnalysisTool\LineTool.obj
	.686P
	.XMM
	include listing.inc
	.model	flat

INCLUDELIB MSVCRT
INCLUDELIB OLDNAMES

PUBLIC	?__empty_global_delete@@YAXPAX@Z		; __empty_global_delete
PUBLIC	?__empty_global_delete@@YAXPAXI@Z		; __empty_global_delete
PUBLIC	?_Tidy@?$deque@VCBlockRegion@@V?$allocator@VCBlockRegion@@@std@@@std@@AAEXXZ ; std::deque<CBlockRegion,std::allocator<CBlockRegion> >::_Tidy
PUBLIC	??1CPoints@@QAE@XZ				; CPoints::~CPoints
PUBLIC	??1COnePointMoveTool@@QAE@XZ			; COnePointMoveTool::~COnePointMoveTool
PUBLIC	??1CTwoPointDownTool@@QAE@XZ			; CTwoPointDownTool::~CTwoPointDownTool
PUBLIC	??1CThreePointDownTool@@QAE@XZ			; CThreePointDownTool::~CThreePointDownTool
PUBLIC	??1CMultiPointDownTool@@QAE@XZ			; CMultiPointDownTool::~CMultiPointDownTool
PUBLIC	??0CLineTool@@QAE@PAVCAnalysisData@@W4TOOLTYPE@CAnalysis@@W4COORDINATETYPE@3@@Z ; CLineTool::CLineTool
PUBLIC	?SetTextPosition@CLineTool@@QAEXABVCTextHorzPosition@@@Z ; CLineTool::SetTextPosition
PUBLIC	?SetTextPosition@CLineTool@@QAEX_N00@Z		; CLineTool::SetTextPosition
PUBLIC	?SetTextEnvironment@CLineTool@@QAEXABVCTextEnvironment@@@Z ; CLineTool::SetTextEnvironment
PUBLIC	?GetTextPosition@CLineTool@@MBEPBVCTextPosition@@XZ ; CLineTool::GetTextPosition
PUBLIC	?GetTextPosition@CLineTool@@MAEPAVCTextPosition@@XZ ; CLineTool::GetTextPosition
PUBLIC	?GetTwoPointDrawer@CLineTool@@MAEAAVCTwoPointDrawer@@XZ ; CLineTool::GetTwoPointDrawer
PUBLIC	?GetToolType@CLineTool@@MBE?AW4TOOLTYPE@CAnalysis@@XZ ; CLineTool::GetToolType
PUBLIC	??0CVertLineTool@@QAE@PAVCAnalysisData@@W4COORDINATETYPE@CAnalysis@@@Z ; CVertLineTool::CVertLineTool
PUBLIC	?SetTextPosition@CVertLineTool@@QAEXABVCTextVertPosition@@@Z ; CVertLineTool::SetTextPosition
PUBLIC	?SetTextPosition@CVertLineTool@@QAEX_N0@Z	; CVertLineTool::SetTextPosition
PUBLIC	?SetTextEnvironment@CVertLineTool@@QAEXABVCTextEnvironment@@@Z ; CVertLineTool::SetTextEnvironment
PUBLIC	?GetToolType@CVertLineTool@@MBE?AW4TOOLTYPE@CAnalysis@@XZ ; CVertLineTool::GetToolType
PUBLIC	?GetTextPosition@CVertLineTool@@MBEPBVCTextPosition@@XZ ; CVertLineTool::GetTextPosition
PUBLIC	?GetTextPosition@CVertLineTool@@MAEPAVCTextPosition@@XZ ; CVertLineTool::GetTextPosition
PUBLIC	?GetOnePointDrawer@CVertLineTool@@MAEAAVCOnePointDrawer@@XZ ; CVertLineTool::GetOnePointDrawer
PUBLIC	??0CHorzLineTool@@QAE@PAVCAnalysisData@@W4COORDINATETYPE@CAnalysis@@@Z ; CHorzLineTool::CHorzLineTool
PUBLIC	?SetTextPosition@CHorzLineTool@@QAEXABVCTextHorzPosition@@@Z ; CHorzLineTool::SetTextPosition
PUBLIC	?SetTextPosition@CHorzLineTool@@QAEX_N0@Z	; CHorzLineTool::SetTextPosition
PUBLIC	?SetTextEnvironment@CHorzLineTool@@QAEXABVCTextEnvironment@@@Z ; CHorzLineTool::SetTextEnvironment
PUBLIC	?GetToolType@CHorzLineTool@@MBE?AW4TOOLTYPE@CAnalysis@@XZ ; CHorzLineTool::GetToolType
PUBLIC	?GetTextPosition@CHorzLineTool@@MBEPBVCTextPosition@@XZ ; CHorzLineTool::GetTextPosition
PUBLIC	?GetTextPosition@CHorzLineTool@@MAEPAVCTextPosition@@XZ ; CHorzLineTool::GetTextPosition
PUBLIC	?GetOnePointDrawer@CHorzLineTool@@MAEAAVCOnePointDrawer@@XZ ; CHorzLineTool::GetOnePointDrawer
PUBLIC	??0CCrossLineTool@@QAE@XZ			; CCrossLineTool::CCrossLineTool
PUBLIC	?SetTextPosition@CCrossLineTool@@QAEXABVCTextHorzVertPosition@@@Z ; CCrossLineTool::SetTextPosition
PUBLIC	?SetTextPosition@CCrossLineTool@@QAEX_N000@Z	; CCrossLineTool::SetTextPosition
PUBLIC	?SetTextEnvironment@CCrossLineTool@@QAEXABVCTextEnvironment@@@Z ; CCrossLineTool::SetTextEnvironment
PUBLIC	?GetTextPosition@CCrossLineTool@@IBEPBVCTextPosition@@XZ ; CCrossLineTool::GetTextPosition
PUBLIC	?GetTextPosition@CCrossLineTool@@IAEPAVCTextPosition@@XZ ; CCrossLineTool::GetTextPosition
PUBLIC	?GetOnePointDrawer@CCrossLineTool@@IAEAAVCOnePointDrawer@@XZ ; CCrossLineTool::GetOnePointDrawer
PUBLIC	??0CCrossLineMoveTool@@QAE@PAVCAnalysisData@@W4COORDINATETYPE@CAnalysis@@@Z ; CCrossLineMoveTool::CCrossLineMoveTool
PUBLIC	?GetToolType@CCrossLineMoveTool@@MBE?AW4TOOLTYPE@CAnalysis@@XZ ; CCrossLineMoveTool::GetToolType
PUBLIC	?GetTextPosition@CCrossLineMoveTool@@MBEPBVCTextPosition@@XZ ; CCrossLineMoveTool::GetTextPosition
PUBLIC	?GetTextPosition@CCrossLineMoveTool@@MAEPAVCTextPosition@@XZ ; CCrossLineMoveTool::GetTextPosition
PUBLIC	?GetOnePointDrawer@CCrossLineMoveTool@@MAEAAVCOnePointDrawer@@XZ ; CCrossLineMoveTool::GetOnePointDrawer
PUBLIC	??0CCrossLineDownTool@@QAE@PAVCAnalysisData@@W4COORDINATETYPE@CAnalysis@@@Z ; CCrossLineDownTool::CCrossLineDownTool
PUBLIC	?OnLButtonUp@CCrossLineDownTool@@UAEXPAVCDC@@ABVCPoint@@@Z ; CCrossLineDownTool::OnLButtonUp
PUBLIC	?GetToolType@CCrossLineDownTool@@MBE?AW4TOOLTYPE@CAnalysis@@XZ ; CCrossLineDownTool::GetToolType
PUBLIC	?GetTextPosition@CCrossLineDownTool@@MBEPBVCTextPosition@@XZ ; CCrossLineDownTool::GetTextPosition
PUBLIC	?GetTextPosition@CCrossLineDownTool@@MAEPAVCTextPosition@@XZ ; CCrossLineDownTool::GetTextPosition
PUBLIC	?GetOnePointDrawer@CCrossLineDownTool@@MAEAAVCOnePointDrawer@@XZ ; CCrossLineDownTool::GetOnePointDrawer
PUBLIC	??0CTrisectionLineTool@@QAE@PAVCAnalysisData@@W4COORDINATETYPE@CAnalysis@@@Z ; CTrisectionLineTool::CTrisectionLineTool
PUBLIC	?SetTextPosition@CTrisectionLineTool@@QAEXABVCTextHorzPosition@@@Z ; CTrisectionLineTool::SetTextPosition
PUBLIC	?SetTextPosition@CTrisectionLineTool@@QAEX_N0@Z	; CTrisectionLineTool::SetTextPosition
PUBLIC	?SetTextEnvironment@CTrisectionLineTool@@QAEXABVCTextEnvironment@@@Z ; CTrisectionLineTool::SetTextEnvironment
PUBLIC	?GetToolType@CTrisectionLineTool@@MBE?AW4TOOLTYPE@CAnalysis@@XZ ; CTrisectionLineTool::GetToolType
PUBLIC	?GetTextPosition@CTrisectionLineTool@@MBEPBVCTextPosition@@XZ ; CTrisectionLineTool::GetTextPosition
PUBLIC	?GetTextPosition@CTrisectionLineTool@@MAEPAVCTextPosition@@XZ ; CTrisectionLineTool::GetTextPosition
PUBLIC	?GetTwoPointDrawer@CTrisectionLineTool@@MAEAAVCTwoPointDrawer@@XZ ; CTrisectionLineTool::GetTwoPointDrawer
PUBLIC	??0CQuadrisectLineTool@@QAE@PAVCAnalysisData@@W4COORDINATETYPE@CAnalysis@@@Z ; CQuadrisectLineTool::CQuadrisectLineTool
PUBLIC	?SetTextPosition@CQuadrisectLineTool@@QAEXABVCTextHorzPosition@@@Z ; CQuadrisectLineTool::SetTextPosition
PUBLIC	?SetTextPosition@CQuadrisectLineTool@@QAEX_N0@Z	; CQuadrisectLineTool::SetTextPosition
PUBLIC	?SetTextEnvironment@CQuadrisectLineTool@@QAEXABVCTextEnvironment@@@Z ; CQuadrisectLineTool::SetTextEnvironment
PUBLIC	?GetToolType@CQuadrisectLineTool@@MBE?AW4TOOLTYPE@CAnalysis@@XZ ; CQuadrisectLineTool::GetToolType
PUBLIC	?GetTextPosition@CQuadrisectLineTool@@MBEPBVCTextPosition@@XZ ; CQuadrisectLineTool::GetTextPosition
PUBLIC	?GetTextPosition@CQuadrisectLineTool@@MAEPAVCTextPosition@@XZ ; CQuadrisectLineTool::GetTextPosition
PUBLIC	?GetTwoPointDrawer@CQuadrisectLineTool@@MAEAAVCTwoPointDrawer@@XZ ; CQuadrisectLineTool::GetTwoPointDrawer
PUBLIC	??0CAndrewsPitchforkTool@@QAE@PAVCAnalysisData@@W4COORDINATETYPE@CAnalysis@@@Z ; CAndrewsPitchforkTool::CAndrewsPitchforkTool
PUBLIC	?GetToolType@CAndrewsPitchforkTool@@MBE?AW4TOOLTYPE@CAnalysis@@XZ ; CAndrewsPitchforkTool::GetToolType
PUBLIC	?GetThreePointDrawer@CAndrewsPitchforkTool@@MAEAAVCThreePointDrawer@@XZ ; CAndrewsPitchforkTool::GetThreePointDrawer
PUBLIC	??0CCycleLinesTool@@QAE@PAVCAnalysisData@@W4COORDINATETYPE@CAnalysis@@@Z ; CCycleLinesTool::CCycleLinesTool
PUBLIC	?GetToolType@CCycleLinesTool@@MBE?AW4TOOLTYPE@CAnalysis@@XZ ; CCycleLinesTool::GetToolType
PUBLIC	?GetTwoPointDrawer@CCycleLinesTool@@MAEAAVCTwoPointDrawer@@XZ ; CCycleLinesTool::GetTwoPointDrawer
PUBLIC	??0CSpeedLineTool@@QAE@PAVCAnalysisData@@W4COORDINATETYPE@CAnalysis@@@Z ; CSpeedLineTool::CSpeedLineTool
PUBLIC	?GetToolType@CSpeedLineTool@@MBE?AW4TOOLTYPE@CAnalysis@@XZ ; CSpeedLineTool::GetToolType
PUBLIC	?GetTwoPointDrawer@CSpeedLineTool@@MAEAAVCTwoPointDrawer@@XZ ; CSpeedLineTool::GetTwoPointDrawer
PUBLIC	??0CSpeedFanTool@@QAE@PAVCAnalysisData@@W4COORDINATETYPE@CAnalysis@@@Z ; CSpeedFanTool::CSpeedFanTool
PUBLIC	?GetToolType@CSpeedFanTool@@MBE?AW4TOOLTYPE@CAnalysis@@XZ ; CSpeedFanTool::GetToolType
PUBLIC	?GetTwoPointDrawer@CSpeedFanTool@@MAEAAVCTwoPointDrawer@@XZ ; CSpeedFanTool::GetTwoPointDrawer
PUBLIC	??0CSpeedArcTool@@QAE@PAVCAnalysisData@@W4COORDINATETYPE@CAnalysis@@@Z ; CSpeedArcTool::CSpeedArcTool
PUBLIC	?GetToolType@CSpeedArcTool@@MBE?AW4TOOLTYPE@CAnalysis@@XZ ; CSpeedArcTool::GetToolType
PUBLIC	?GetTwoPointDrawer@CSpeedArcTool@@MAEAAVCTwoPointDrawer@@XZ ; CSpeedArcTool::GetTwoPointDrawer
PUBLIC	??0CLinearRegressionTool@@QAE@PAVCAnalysisData@@W4COORDINATETYPE@CAnalysis@@@Z ; CLinearRegressionTool::CLinearRegressionTool
PUBLIC	?GetToolType@CLinearRegressionTool@@MBE?AW4TOOLTYPE@CAnalysis@@XZ ; CLinearRegressionTool::GetToolType
PUBLIC	?GetTwoPointDrawer@CLinearRegressionTool@@MAEAAVCTwoPointDrawer@@XZ ; CLinearRegressionTool::GetTwoPointDrawer
PUBLIC	??0CRaffRegressionTool@@QAE@PAVCAnalysisData@@W4COORDINATETYPE@CAnalysis@@@Z ; CRaffRegressionTool::CRaffRegressionTool
PUBLIC	?GetToolType@CRaffRegressionTool@@MBE?AW4TOOLTYPE@CAnalysis@@XZ ; CRaffRegressionTool::GetToolType
PUBLIC	?GetTwoPointDrawer@CRaffRegressionTool@@MAEAAVCTwoPointDrawer@@XZ ; CRaffRegressionTool::GetTwoPointDrawer
PUBLIC	??0CAngleLineTool@@QAE@PAVCAnalysisData@@W4COORDINATETYPE@CAnalysis@@@Z ; CAngleLineTool::CAngleLineTool
PUBLIC	?SetTextPosition@CAngleLineTool@@QAEXABVCTextShowPosition@@@Z ; CAngleLineTool::SetTextPosition
PUBLIC	?SetTextPosition@CAngleLineTool@@QAEX_N@Z	; CAngleLineTool::SetTextPosition
PUBLIC	?SetTextEnvironment@CAngleLineTool@@QAEXABVCTextEnvironment@@@Z ; CAngleLineTool::SetTextEnvironment
PUBLIC	?GetTextPosition@CAngleLineTool@@MBEPBVCTextPosition@@XZ ; CAngleLineTool::GetTextPosition
PUBLIC	?GetTextPosition@CAngleLineTool@@MAEPAVCTextPosition@@XZ ; CAngleLineTool::GetTextPosition
PUBLIC	?GetToolType@CAngleLineTool@@MBE?AW4TOOLTYPE@CAnalysis@@XZ ; CAngleLineTool::GetToolType
PUBLIC	?GetTwoPointDrawer@CAngleLineTool@@MAEAAVCTwoPointDrawer@@XZ ; CAngleLineTool::GetTwoPointDrawer
PUBLIC	??0CCandleLineTool@@QAE@PAVCAnalysisData@@W4COORDINATETYPE@CAnalysis@@@Z ; CCandleLineTool::CCandleLineTool
PUBLIC	?SetTextPosition@CCandleLineTool@@QAEXABVCTextShowPosition@@@Z ; CCandleLineTool::SetTextPosition
PUBLIC	?SetTextPosition@CCandleLineTool@@QAEX_N@Z	; CCandleLineTool::SetTextPosition
PUBLIC	?SetTextEnvironment@CCandleLineTool@@QAEXABVCTextEnvironment@@@Z ; CCandleLineTool::SetTextEnvironment
PUBLIC	?GetToolType@CCandleLineTool@@MBE?AW4TOOLTYPE@CAnalysis@@XZ ; CCandleLineTool::GetToolType
PUBLIC	?GetTextPosition@CCandleLineTool@@MBEPBVCTextPosition@@XZ ; CCandleLineTool::GetTextPosition
PUBLIC	?GetTextPosition@CCandleLineTool@@MAEPAVCTextPosition@@XZ ; CCandleLineTool::GetTextPosition
PUBLIC	?GetOnePointDrawer@CCandleLineTool@@MAEAAVCOnePointDrawer@@XZ ; CCandleLineTool::GetOnePointDrawer
PUBLIC	??0CCandleBongTool@@QAE@PAVCAnalysisData@@W4COORDINATETYPE@CAnalysis@@@Z ; CCandleBongTool::CCandleBongTool
PUBLIC	?GetToolType@CCandleBongTool@@MBE?AW4TOOLTYPE@CAnalysis@@XZ ; CCandleBongTool::GetToolType
PUBLIC	?GetTwoPointDrawer@CCandleBongTool@@MAEAAVCTwoPointDrawer@@XZ ; CCandleBongTool::GetTwoPointDrawer
PUBLIC	??0CPencilLineTool@@QAE@PAVCAnalysisData@@W4COORDINATETYPE@CAnalysis@@@Z ; CPencilLineTool::CPencilLineTool
PUBLIC	?GetToolType@CPencilLineTool@@MBE?AW4TOOLTYPE@CAnalysis@@XZ ; CPencilLineTool::GetToolType
PUBLIC	?GetMultiPointDrawer@CPencilLineTool@@MAEAAVCMultiPointDrawer@@XZ ; CPencilLineTool::GetMultiPointDrawer
PUBLIC	??0CPeriodSumLineTool@@QAE@PAVCAnalysisData@@W4COORDINATETYPE@CAnalysis@@@Z ; CPeriodSumLineTool::CPeriodSumLineTool
PUBLIC	?SetTextPosition@CPeriodSumLineTool@@QAEXABVCTextHorzPosition@@@Z ; CPeriodSumLineTool::SetTextPosition
PUBLIC	?SetTextPosition@CPeriodSumLineTool@@QAEX_N0@Z	; CPeriodSumLineTool::SetTextPosition
PUBLIC	?SetTextEnvironment@CPeriodSumLineTool@@QAEXABVCTextEnvironment@@@Z ; CPeriodSumLineTool::SetTextEnvironment
PUBLIC	?GetToolType@CPeriodSumLineTool@@MBE?AW4TOOLTYPE@CAnalysis@@XZ ; CPeriodSumLineTool::GetToolType
PUBLIC	?GetTextPosition@CPeriodSumLineTool@@MBEPBVCTextPosition@@XZ ; CPeriodSumLineTool::GetTextPosition
PUBLIC	?GetTextPosition@CPeriodSumLineTool@@MAEPAVCTextPosition@@XZ ; CPeriodSumLineTool::GetTextPosition
PUBLIC	?GetTwoPointDrawer@CPeriodSumLineTool@@MAEAAVCTwoPointDrawer@@XZ ; CPeriodSumLineTool::GetTwoPointDrawer
PUBLIC	??0CElliotLineTool@@QAE@PAVCAnalysisData@@W4COORDINATETYPE@CAnalysis@@@Z ; CElliotLineTool::CElliotLineTool
PUBLIC	?GetToolType@CElliotLineTool@@MBE?AW4TOOLTYPE@CAnalysis@@XZ ; CElliotLineTool::GetToolType
PUBLIC	?GetTwoPointDrawer@CElliotLineTool@@MAEAAVCTwoPointDrawer@@XZ ; CElliotLineTool::GetTwoPointDrawer
PUBLIC	??0CAdjustRatioTool@@QAE@PAVCAnalysisData@@W4COORDINATETYPE@CAnalysis@@@Z ; CAdjustRatioTool::CAdjustRatioTool
PUBLIC	?GetToolType@CAdjustRatioTool@@MBE?AW4TOOLTYPE@CAnalysis@@XZ ; CAdjustRatioTool::GetToolType
PUBLIC	?GetThreePointDrawer@CAdjustRatioTool@@MAEAAVCThreePointDrawer@@XZ ; CAdjustRatioTool::GetThreePointDrawer
PUBLIC	?IsDrawing@CCrossLineDrawer@@$2PPPPPPPM@A@BE_NABVCRect@@ABVCPoint@@@Z ; CCrossLineDrawer::IsDrawing
PUBLIC	?DrawShape@CCrossLineDrawer@@$2PPPPPPPM@A@AEXPAVCDC@@ABVCOnePointDrawingData@@ABVCDisplayData@@ABVCPoint@@_N@Z ; CCrossLineDrawer::DrawShape
PUBLIC	?DrawTextA@CCrossLineDrawer@@$2PPPPPPPM@A@AEXPAVCDC@@ABVCOnePointDrawingData@@@Z ; CCrossLineDrawer::DrawTextA
PUBLIC	?GetGripRegion@CCrossLineDrawer@@$2PPPPPPPM@A@AE?AVCRect@@ABV2@ABVCPoint@@@Z ; CCrossLineDrawer::GetGripRegion
PUBLIC	??_7COnePointDrawer@@6B@			; COnePointDrawer::`vftable'
PUBLIC	??_7CTwoPointDrawer@@6B@			; CTwoPointDrawer::`vftable'
PUBLIC	??_7CThreePointDrawer@@6B@			; CThreePointDrawer::`vftable'
PUBLIC	??_7CMultiPointDrawer@@6B@			; CMultiPointDrawer::`vftable'
PUBLIC	??_7CCrossLineDrawer@@6B@			; CCrossLineDrawer::`vftable'
PUBLIC	??_8CCrossLineDrawer@@7BCVertLineDrawer@@@	; CCrossLineDrawer::`vbtable'
PUBLIC	??_8CCrossLineDrawer@@7BCHorzLineDrawer@@@	; CCrossLineDrawer::`vbtable'
PUBLIC	??_8CCrossLineDrawer@@7BCOnePointDrawer@@@	; CCrossLineDrawer::`vbtable'
PUBLIC	??_7CEqualDivisionLineDrawer@@6B@		; CEqualDivisionLineDrawer::`vftable'
PUBLIC	??_7CTrisectionLineDrawer@@6B@			; CTrisectionLineDrawer::`vftable'
PUBLIC	??_8CTrisectionLineDrawer@@7B@			; CTrisectionLineDrawer::`vbtable'
PUBLIC	??_7CQuadrisectLineDrawer@@6B@			; CQuadrisectLineDrawer::`vftable'
PUBLIC	??_8CQuadrisectLineDrawer@@7B@			; CQuadrisectLineDrawer::`vbtable'
PUBLIC	??_7CAndrewsPitchforkDrawer@@6B@		; CAndrewsPitchforkDrawer::`vftable'
PUBLIC	??_7CCycleLinesDrawer@@6B@			; CCycleLinesDrawer::`vftable'
PUBLIC	??_8CCycleLinesDrawer@@7B@			; CCycleLinesDrawer::`vbtable'
PUBLIC	??_7CSpeedLineDrawer@@6B@			; CSpeedLineDrawer::`vftable'
PUBLIC	??_8CSpeedLineDrawer@@7B@			; CSpeedLineDrawer::`vbtable'
PUBLIC	??_7CSpeedFanDrawer@@6B@			; CSpeedFanDrawer::`vftable'
PUBLIC	??_8CSpeedFanDrawer@@7B@			; CSpeedFanDrawer::`vbtable'
PUBLIC	??_7CSpeedArcDrawer@@6B@			; CSpeedArcDrawer::`vftable'
PUBLIC	??_8CSpeedArcDrawer@@7B@			; CSpeedArcDrawer::`vbtable'
PUBLIC	??_7CLinearRegressionDrawer@@6B@		; CLinearRegressionDrawer::`vftable'
PUBLIC	??_8CLinearRegressionDrawer@@7B@		; CLinearRegressionDrawer::`vbtable'
PUBLIC	??_7CCandleBongDrawer@@6B@			; CCandleBongDrawer::`vftable'
PUBLIC	??_8CCandleBongDrawer@@7B@			; CCandleBongDrawer::`vbtable'
PUBLIC	??_7CPencilLineDrawer@@6B@			; CPencilLineDrawer::`vftable'
PUBLIC	??_7CPeriodSumLineDrawer@@6B@			; CPeriodSumLineDrawer::`vftable'
PUBLIC	??_8CPeriodSumLineDrawer@@7B@			; CPeriodSumLineDrawer::`vbtable'
PUBLIC	??_7CElliotLineDrawer@@6B@			; CElliotLineDrawer::`vftable'
PUBLIC	??_8CElliotLineDrawer@@7B@			; CElliotLineDrawer::`vbtable'
PUBLIC	??_7CAdjustRatioDrawer@@6B@			; CAdjustRatioDrawer::`vftable'
PUBLIC	??_7CLineTool@@6B@				; CLineTool::`vftable'
PUBLIC	??_7CVertLineTool@@6B@				; CVertLineTool::`vftable'
PUBLIC	??_7CHorzLineTool@@6B@				; CHorzLineTool::`vftable'
PUBLIC	??_7CCrossLineMoveTool@@6B@			; CCrossLineMoveTool::`vftable'
PUBLIC	??_7CCrossLineDownTool@@6B@			; CCrossLineDownTool::`vftable'
PUBLIC	??_7CTrisectionLineTool@@6B@			; CTrisectionLineTool::`vftable'
PUBLIC	??_7CQuadrisectLineTool@@6B@			; CQuadrisectLineTool::`vftable'
PUBLIC	??_7CAndrewsPitchforkTool@@6B@			; CAndrewsPitchforkTool::`vftable'
PUBLIC	??_7CCycleLinesTool@@6B@			; CCycleLinesTool::`vftable'
PUBLIC	??_7CSpeedLineTool@@6B@				; CSpeedLineTool::`vftable'
PUBLIC	??_7CSpeedFanTool@@6B@				; CSpeedFanTool::`vftable'
PUBLIC	??_7CSpeedArcTool@@6B@				; CSpeedArcTool::`vftable'
PUBLIC	??_7CLinearRegressionTool@@6B@			; CLinearRegressionTool::`vftable'
PUBLIC	??_7CRaffRegressionTool@@6B@			; CRaffRegressionTool::`vftable'
PUBLIC	??_7CAngleLineTool@@6B@				; CAngleLineTool::`vftable'
PUBLIC	??_7CCandleLineTool@@6B@			; CCandleLineTool::`vftable'
PUBLIC	??_7CCandleBongTool@@6B@			; CCandleBongTool::`vftable'
PUBLIC	??_7CPencilLineTool@@6B@			; CPencilLineTool::`vftable'
PUBLIC	??_7CPeriodSumLineTool@@6B@			; CPeriodSumLineTool::`vftable'
PUBLIC	??_7CElliotLineTool@@6B@			; CElliotLineTool::`vftable'
PUBLIC	??_7CAdjustRatioTool@@6B@			; CAdjustRatioTool::`vftable'
PUBLIC	??_R4COnePointDrawer@@6B@			; COnePointDrawer::`RTTI Complete Object Locator'
PUBLIC	??_R0?AVCOnePointDrawer@@@8			; COnePointDrawer `RTTI Type Descriptor'
PUBLIC	??_R3COnePointDrawer@@8				; COnePointDrawer::`RTTI Class Hierarchy Descriptor'
PUBLIC	??_R2COnePointDrawer@@8				; COnePointDrawer::`RTTI Base Class Array'
PUBLIC	??_R1A@?0A@EA@COnePointDrawer@@8		; COnePointDrawer::`RTTI Base Class Descriptor at (0,-1,0,64)'
PUBLIC	??_R1A@33FA@CDrawer@@8				; CDrawer::`RTTI Base Class Descriptor at (0,4,4,80)'
PUBLIC	??_R0?AVCDrawer@@@8				; CDrawer `RTTI Type Descriptor'
PUBLIC	??_R3CDrawer@@8					; CDrawer::`RTTI Class Hierarchy Descriptor'
PUBLIC	??_R2CDrawer@@8					; CDrawer::`RTTI Base Class Array'
PUBLIC	??_R1A@?0A@EA@CDrawer@@8			; CDrawer::`RTTI Base Class Descriptor at (0,-1,0,64)'
PUBLIC	??_R4CTwoPointDrawer@@6B@			; CTwoPointDrawer::`RTTI Complete Object Locator'
PUBLIC	??_R0?AVCTwoPointDrawer@@@8			; CTwoPointDrawer `RTTI Type Descriptor'
PUBLIC	??_R3CTwoPointDrawer@@8				; CTwoPointDrawer::`RTTI Class Hierarchy Descriptor'
PUBLIC	??_R2CTwoPointDrawer@@8				; CTwoPointDrawer::`RTTI Base Class Array'
PUBLIC	??_R1A@?0A@EA@CTwoPointDrawer@@8		; CTwoPointDrawer::`RTTI Base Class Descriptor at (0,-1,0,64)'
PUBLIC	??_R4CThreePointDrawer@@6B@			; CThreePointDrawer::`RTTI Complete Object Locator'
PUBLIC	??_R0?AVCThreePointDrawer@@@8			; CThreePointDrawer `RTTI Type Descriptor'
PUBLIC	??_R3CThreePointDrawer@@8			; CThreePointDrawer::`RTTI Class Hierarchy Descriptor'
PUBLIC	??_R2CThreePointDrawer@@8			; CThreePointDrawer::`RTTI Base Class Array'
PUBLIC	??_R1A@?0A@EA@CThreePointDrawer@@8		; CThreePointDrawer::`RTTI Base Class Descriptor at (0,-1,0,64)'
PUBLIC	??_R13?0A@EA@CDrawer@@8				; CDrawer::`RTTI Base Class Descriptor at (4,-1,0,64)'
PUBLIC	??_R4CMultiPointDrawer@@6B@			; CMultiPointDrawer::`RTTI Complete Object Locator'
PUBLIC	??_R0?AVCMultiPointDrawer@@@8			; CMultiPointDrawer `RTTI Type Descriptor'
PUBLIC	??_R3CMultiPointDrawer@@8			; CMultiPointDrawer::`RTTI Class Hierarchy Descriptor'
PUBLIC	??_R2CMultiPointDrawer@@8			; CMultiPointDrawer::`RTTI Base Class Array'
PUBLIC	??_R1A@?0A@EA@CMultiPointDrawer@@8		; CMultiPointDrawer::`RTTI Base Class Descriptor at (0,-1,0,64)'
PUBLIC	??_R4CCrossLineDrawer@@6B@			; CCrossLineDrawer::`RTTI Complete Object Locator'
PUBLIC	??_R0?AVCCrossLineDrawer@@@8			; CCrossLineDrawer `RTTI Type Descriptor'
PUBLIC	??_R3CCrossLineDrawer@@8			; CCrossLineDrawer::`RTTI Class Hierarchy Descriptor'
PUBLIC	??_R2CCrossLineDrawer@@8			; CCrossLineDrawer::`RTTI Base Class Array'
PUBLIC	??_R1A@?0A@EA@CCrossLineDrawer@@8		; CCrossLineDrawer::`RTTI Base Class Descriptor at (0,-1,0,64)'
PUBLIC	??_R1A@?0A@EA@CVertLineDrawer@@8		; CVertLineDrawer::`RTTI Base Class Descriptor at (0,-1,0,64)'
PUBLIC	??_R0?AVCVertLineDrawer@@@8			; CVertLineDrawer `RTTI Type Descriptor'
PUBLIC	??_R3CVertLineDrawer@@8				; CVertLineDrawer::`RTTI Class Hierarchy Descriptor'
PUBLIC	??_R2CVertLineDrawer@@8				; CVertLineDrawer::`RTTI Base Class Array'
PUBLIC	??_R1A@A@7FA@COnePointDrawer@@8			; COnePointDrawer::`RTTI Base Class Descriptor at (0,0,8,80)'
PUBLIC	??_R1A@A@3FA@CDrawer@@8				; CDrawer::`RTTI Base Class Descriptor at (0,0,4,80)'
PUBLIC	??_R1M@?0A@EN@CHorzLineDrawer@@8		; CHorzLineDrawer::`RTTI Base Class Descriptor at (12,-1,0,77)'
PUBLIC	??_R0?AVCHorzLineDrawer@@@8			; CHorzLineDrawer `RTTI Type Descriptor'
PUBLIC	??_R3CHorzLineDrawer@@8				; CHorzLineDrawer::`RTTI Class Hierarchy Descriptor'
PUBLIC	??_R2CHorzLineDrawer@@8				; CHorzLineDrawer::`RTTI Base Class Array'
PUBLIC	??_R1A@?0A@EA@CHorzLineDrawer@@8		; CHorzLineDrawer::`RTTI Base Class Descriptor at (0,-1,0,64)'
PUBLIC	??_R4CEqualDivisionLineDrawer@@6B@		; CEqualDivisionLineDrawer::`RTTI Complete Object Locator'
PUBLIC	??_R0?AVCEqualDivisionLineDrawer@@@8		; CEqualDivisionLineDrawer `RTTI Type Descriptor'
PUBLIC	??_R3CEqualDivisionLineDrawer@@8		; CEqualDivisionLineDrawer::`RTTI Class Hierarchy Descriptor'
PUBLIC	??_R2CEqualDivisionLineDrawer@@8		; CEqualDivisionLineDrawer::`RTTI Base Class Array'
PUBLIC	??_R1A@?0A@EA@CEqualDivisionLineDrawer@@8	; CEqualDivisionLineDrawer::`RTTI Base Class Descriptor at (0,-1,0,64)'
PUBLIC	??_R4CTrisectionLineDrawer@@6B@			; CTrisectionLineDrawer::`RTTI Complete Object Locator'
PUBLIC	??_R0?AVCTrisectionLineDrawer@@@8		; CTrisectionLineDrawer `RTTI Type Descriptor'
PUBLIC	??_R3CTrisectionLineDrawer@@8			; CTrisectionLineDrawer::`RTTI Class Hierarchy Descriptor'
PUBLIC	??_R2CTrisectionLineDrawer@@8			; CTrisectionLineDrawer::`RTTI Base Class Array'
PUBLIC	??_R1A@?0A@EA@CTrisectionLineDrawer@@8		; CTrisectionLineDrawer::`RTTI Base Class Descriptor at (0,-1,0,64)'
PUBLIC	??_R4CQuadrisectLineDrawer@@6B@			; CQuadrisectLineDrawer::`RTTI Complete Object Locator'
PUBLIC	??_R0?AVCQuadrisectLineDrawer@@@8		; CQuadrisectLineDrawer `RTTI Type Descriptor'
PUBLIC	??_R3CQuadrisectLineDrawer@@8			; CQuadrisectLineDrawer::`RTTI Class Hierarchy Descriptor'
PUBLIC	??_R2CQuadrisectLineDrawer@@8			; CQuadrisectLineDrawer::`RTTI Base Class Array'
PUBLIC	??_R1A@?0A@EA@CQuadrisectLineDrawer@@8		; CQuadrisectLineDrawer::`RTTI Base Class Descriptor at (0,-1,0,64)'
PUBLIC	??_R4CAndrewsPitchforkDrawer@@6B@		; CAndrewsPitchforkDrawer::`RTTI Complete Object Locator'
PUBLIC	??_R0?AVCAndrewsPitchforkDrawer@@@8		; CAndrewsPitchforkDrawer `RTTI Type Descriptor'
PUBLIC	??_R3CAndrewsPitchforkDrawer@@8			; CAndrewsPitchforkDrawer::`RTTI Class Hierarchy Descriptor'
PUBLIC	??_R2CAndrewsPitchforkDrawer@@8			; CAndrewsPitchforkDrawer::`RTTI Base Class Array'
PUBLIC	??_R1A@?0A@EA@CAndrewsPitchforkDrawer@@8	; CAndrewsPitchforkDrawer::`RTTI Base Class Descriptor at (0,-1,0,64)'
PUBLIC	??_R4CCycleLinesDrawer@@6B@			; CCycleLinesDrawer::`RTTI Complete Object Locator'
PUBLIC	??_R0?AVCCycleLinesDrawer@@@8			; CCycleLinesDrawer `RTTI Type Descriptor'
PUBLIC	??_R3CCycleLinesDrawer@@8			; CCycleLinesDrawer::`RTTI Class Hierarchy Descriptor'
PUBLIC	??_R2CCycleLinesDrawer@@8			; CCycleLinesDrawer::`RTTI Base Class Array'
PUBLIC	??_R1A@?0A@EA@CCycleLinesDrawer@@8		; CCycleLinesDrawer::`RTTI Base Class Descriptor at (0,-1,0,64)'
PUBLIC	??_R4CSpeedLineDrawer@@6B@			; CSpeedLineDrawer::`RTTI Complete Object Locator'
PUBLIC	??_R0?AVCSpeedLineDrawer@@@8			; CSpeedLineDrawer `RTTI Type Descriptor'
PUBLIC	??_R3CSpeedLineDrawer@@8			; CSpeedLineDrawer::`RTTI Class Hierarchy Descriptor'
PUBLIC	??_R2CSpeedLineDrawer@@8			; CSpeedLineDrawer::`RTTI Base Class Array'
PUBLIC	??_R1A@?0A@EA@CSpeedLineDrawer@@8		; CSpeedLineDrawer::`RTTI Base Class Descriptor at (0,-1,0,64)'
PUBLIC	??_R4CSpeedFanDrawer@@6B@			; CSpeedFanDrawer::`RTTI Complete Object Locator'
PUBLIC	??_R0?AVCSpeedFanDrawer@@@8			; CSpeedFanDrawer `RTTI Type Descriptor'
PUBLIC	??_R3CSpeedFanDrawer@@8				; CSpeedFanDrawer::`RTTI Class Hierarchy Descriptor'
PUBLIC	??_R2CSpeedFanDrawer@@8				; CSpeedFanDrawer::`RTTI Base Class Array'
PUBLIC	??_R1A@?0A@EA@CSpeedFanDrawer@@8		; CSpeedFanDrawer::`RTTI Base Class Descriptor at (0,-1,0,64)'
PUBLIC	??_R4CSpeedArcDrawer@@6B@			; CSpeedArcDrawer::`RTTI Complete Object Locator'
PUBLIC	??_R0?AVCSpeedArcDrawer@@@8			; CSpeedArcDrawer `RTTI Type Descriptor'
PUBLIC	??_R3CSpeedArcDrawer@@8				; CSpeedArcDrawer::`RTTI Class Hierarchy Descriptor'
PUBLIC	??_R2CSpeedArcDrawer@@8				; CSpeedArcDrawer::`RTTI Base Class Array'
PUBLIC	??_R1A@?0A@EA@CSpeedArcDrawer@@8		; CSpeedArcDrawer::`RTTI Base Class Descriptor at (0,-1,0,64)'
PUBLIC	??_R4CLinearRegressionDrawer@@6B@		; CLinearRegressionDrawer::`RTTI Complete Object Locator'
PUBLIC	??_R0?AVCLinearRegressionDrawer@@@8		; CLinearRegressionDrawer `RTTI Type Descriptor'
PUBLIC	??_R3CLinearRegressionDrawer@@8			; CLinearRegressionDrawer::`RTTI Class Hierarchy Descriptor'
PUBLIC	??_R2CLinearRegressionDrawer@@8			; CLinearRegressionDrawer::`RTTI Base Class Array'
PUBLIC	??_R1A@?0A@EA@CLinearRegressionDrawer@@8	; CLinearRegressionDrawer::`RTTI Base Class Descriptor at (0,-1,0,64)'
PUBLIC	??_R4CCandleBongDrawer@@6B@			; CCandleBongDrawer::`RTTI Complete Object Locator'
PUBLIC	??_R0?AVCCandleBongDrawer@@@8			; CCandleBongDrawer `RTTI Type Descriptor'
PUBLIC	??_R3CCandleBongDrawer@@8			; CCandleBongDrawer::`RTTI Class Hierarchy Descriptor'
PUBLIC	??_R2CCandleBongDrawer@@8			; CCandleBongDrawer::`RTTI Base Class Array'
PUBLIC	??_R1A@?0A@EA@CCandleBongDrawer@@8		; CCandleBongDrawer::`RTTI Base Class Descriptor at (0,-1,0,64)'
PUBLIC	??_R4CPencilLineDrawer@@6B@			; CPencilLineDrawer::`RTTI Complete Object Locator'
PUBLIC	??_R0?AVCPencilLineDrawer@@@8			; CPencilLineDrawer `RTTI Type Descriptor'
PUBLIC	??_R3CPencilLineDrawer@@8			; CPencilLineDrawer::`RTTI Class Hierarchy Descriptor'
PUBLIC	??_R2CPencilLineDrawer@@8			; CPencilLineDrawer::`RTTI Base Class Array'
PUBLIC	??_R1A@?0A@EA@CPencilLineDrawer@@8		; CPencilLineDrawer::`RTTI Base Class Descriptor at (0,-1,0,64)'
PUBLIC	??_R4CPeriodSumLineDrawer@@6B@			; CPeriodSumLineDrawer::`RTTI Complete Object Locator'
PUBLIC	??_R0?AVCPeriodSumLineDrawer@@@8		; CPeriodSumLineDrawer `RTTI Type Descriptor'
PUBLIC	??_R3CPeriodSumLineDrawer@@8			; CPeriodSumLineDrawer::`RTTI Class Hierarchy Descriptor'
PUBLIC	??_R2CPeriodSumLineDrawer@@8			; CPeriodSumLineDrawer::`RTTI Base Class Array'
PUBLIC	??_R1A@?0A@EA@CPeriodSumLineDrawer@@8		; CPeriodSumLineDrawer::`RTTI Base Class Descriptor at (0,-1,0,64)'
PUBLIC	??_R4CElliotLineDrawer@@6B@			; CElliotLineDrawer::`RTTI Complete Object Locator'
PUBLIC	??_R0?AVCElliotLineDrawer@@@8			; CElliotLineDrawer `RTTI Type Descriptor'
PUBLIC	??_R3CElliotLineDrawer@@8			; CElliotLineDrawer::`RTTI Class Hierarchy Descriptor'
PUBLIC	??_R2CElliotLineDrawer@@8			; CElliotLineDrawer::`RTTI Base Class Array'
PUBLIC	??_R1A@?0A@EA@CElliotLineDrawer@@8		; CElliotLineDrawer::`RTTI Base Class Descriptor at (0,-1,0,64)'
PUBLIC	??_R4CAdjustRatioDrawer@@6B@			; CAdjustRatioDrawer::`RTTI Complete Object Locator'
PUBLIC	??_R0?AVCAdjustRatioDrawer@@@8			; CAdjustRatioDrawer `RTTI Type Descriptor'
PUBLIC	??_R3CAdjustRatioDrawer@@8			; CAdjustRatioDrawer::`RTTI Class Hierarchy Descriptor'
PUBLIC	??_R2CAdjustRatioDrawer@@8			; CAdjustRatioDrawer::`RTTI Base Class Array'
PUBLIC	??_R1A@?0A@EA@CAdjustRatioDrawer@@8		; CAdjustRatioDrawer::`RTTI Base Class Descriptor at (0,-1,0,64)'
PUBLIC	??_R4CLineTool@@6B@				; CLineTool::`RTTI Complete Object Locator'
PUBLIC	??_R0?AVCLineTool@@@8				; CLineTool `RTTI Type Descriptor'
PUBLIC	??_R3CLineTool@@8				; CLineTool::`RTTI Class Hierarchy Descriptor'
PUBLIC	??_R2CLineTool@@8				; CLineTool::`RTTI Base Class Array'
PUBLIC	??_R1A@?0A@EA@CLineTool@@8			; CLineTool::`RTTI Base Class Descriptor at (0,-1,0,64)'
PUBLIC	??_R1A@?0A@EA@CTwoPointDownTool@@8		; CTwoPointDownTool::`RTTI Base Class Descriptor at (0,-1,0,64)'
PUBLIC	??_R0?AVCTwoPointDownTool@@@8			; CTwoPointDownTool `RTTI Type Descriptor'
PUBLIC	??_R3CTwoPointDownTool@@8			; CTwoPointDownTool::`RTTI Class Hierarchy Descriptor'
PUBLIC	??_R2CTwoPointDownTool@@8			; CTwoPointDownTool::`RTTI Base Class Array'
PUBLIC	??_R1A@?0A@EA@COneOrTwoPointTool@@8		; COneOrTwoPointTool::`RTTI Base Class Descriptor at (0,-1,0,64)'
PUBLIC	??_R0?AVCOneOrTwoPointTool@@@8			; COneOrTwoPointTool `RTTI Type Descriptor'
PUBLIC	??_R3COneOrTwoPointTool@@8			; COneOrTwoPointTool::`RTTI Class Hierarchy Descriptor'
PUBLIC	??_R2COneOrTwoPointTool@@8			; COneOrTwoPointTool::`RTTI Base Class Array'
PUBLIC	??_R1A@?0A@EA@CDownTool@@8			; CDownTool::`RTTI Base Class Descriptor at (0,-1,0,64)'
PUBLIC	??_R0?AVCDownTool@@@8				; CDownTool `RTTI Type Descriptor'
PUBLIC	??_R3CDownTool@@8				; CDownTool::`RTTI Class Hierarchy Descriptor'
PUBLIC	??_R2CDownTool@@8				; CDownTool::`RTTI Base Class Array'
PUBLIC	??_R1A@?0A@EA@CTool@@8				; CTool::`RTTI Base Class Descriptor at (0,-1,0,64)'
PUBLIC	??_R0?AVCTool@@@8				; CTool `RTTI Type Descriptor'
PUBLIC	??_R3CTool@@8					; CTool::`RTTI Class Hierarchy Descriptor'
PUBLIC	??_R2CTool@@8					; CTool::`RTTI Base Class Array'
PUBLIC	??_R4CVertLineTool@@6B@				; CVertLineTool::`RTTI Complete Object Locator'
PUBLIC	??_R0?AVCVertLineTool@@@8			; CVertLineTool `RTTI Type Descriptor'
PUBLIC	??_R3CVertLineTool@@8				; CVertLineTool::`RTTI Class Hierarchy Descriptor'
PUBLIC	??_R2CVertLineTool@@8				; CVertLineTool::`RTTI Base Class Array'
PUBLIC	??_R1A@?0A@EA@CVertLineTool@@8			; CVertLineTool::`RTTI Base Class Descriptor at (0,-1,0,64)'
PUBLIC	??_R1A@?0A@EA@COnePointMoveTool@@8		; COnePointMoveTool::`RTTI Base Class Descriptor at (0,-1,0,64)'
PUBLIC	??_R0?AVCOnePointMoveTool@@@8			; COnePointMoveTool `RTTI Type Descriptor'
PUBLIC	??_R3COnePointMoveTool@@8			; COnePointMoveTool::`RTTI Class Hierarchy Descriptor'
PUBLIC	??_R2COnePointMoveTool@@8			; COnePointMoveTool::`RTTI Base Class Array'
PUBLIC	??_R1A@?0A@EA@CMoveTool@@8			; CMoveTool::`RTTI Base Class Descriptor at (0,-1,0,64)'
PUBLIC	??_R0?AVCMoveTool@@@8				; CMoveTool `RTTI Type Descriptor'
PUBLIC	??_R3CMoveTool@@8				; CMoveTool::`RTTI Class Hierarchy Descriptor'
PUBLIC	??_R2CMoveTool@@8				; CMoveTool::`RTTI Base Class Array'
PUBLIC	??_R4CHorzLineTool@@6B@				; CHorzLineTool::`RTTI Complete Object Locator'
PUBLIC	??_R0?AVCHorzLineTool@@@8			; CHorzLineTool `RTTI Type Descriptor'
PUBLIC	??_R3CHorzLineTool@@8				; CHorzLineTool::`RTTI Class Hierarchy Descriptor'
PUBLIC	??_R2CHorzLineTool@@8				; CHorzLineTool::`RTTI Base Class Array'
PUBLIC	??_R1A@?0A@EA@CHorzLineTool@@8			; CHorzLineTool::`RTTI Base Class Descriptor at (0,-1,0,64)'
PUBLIC	??_R4CCrossLineMoveTool@@6B@			; CCrossLineMoveTool::`RTTI Complete Object Locator'
PUBLIC	??_R0?AVCCrossLineMoveTool@@@8			; CCrossLineMoveTool `RTTI Type Descriptor'
PUBLIC	??_R3CCrossLineMoveTool@@8			; CCrossLineMoveTool::`RTTI Class Hierarchy Descriptor'
PUBLIC	??_R2CCrossLineMoveTool@@8			; CCrossLineMoveTool::`RTTI Base Class Array'
PUBLIC	??_R1A@?0A@EA@CCrossLineMoveTool@@8		; CCrossLineMoveTool::`RTTI Base Class Descriptor at (0,-1,0,64)'
PUBLIC	??_R1LA@?0A@EA@CCrossLineTool@@8		; CCrossLineTool::`RTTI Base Class Descriptor at (176,-1,0,64)'
PUBLIC	??_R0?AVCCrossLineTool@@@8			; CCrossLineTool `RTTI Type Descriptor'
PUBLIC	??_R3CCrossLineTool@@8				; CCrossLineTool::`RTTI Class Hierarchy Descriptor'
PUBLIC	??_R2CCrossLineTool@@8				; CCrossLineTool::`RTTI Base Class Array'
PUBLIC	??_R1A@?0A@EA@CCrossLineTool@@8			; CCrossLineTool::`RTTI Base Class Descriptor at (0,-1,0,64)'
PUBLIC	??_R4CCrossLineDownTool@@6B@			; CCrossLineDownTool::`RTTI Complete Object Locator'
PUBLIC	??_R0?AVCCrossLineDownTool@@@8			; CCrossLineDownTool `RTTI Type Descriptor'
PUBLIC	??_R3CCrossLineDownTool@@8			; CCrossLineDownTool::`RTTI Class Hierarchy Descriptor'
PUBLIC	??_R2CCrossLineDownTool@@8			; CCrossLineDownTool::`RTTI Base Class Array'
PUBLIC	??_R1A@?0A@EA@CCrossLineDownTool@@8		; CCrossLineDownTool::`RTTI Base Class Descriptor at (0,-1,0,64)'
PUBLIC	??_R1A@?0A@EA@COnePointDownTool@@8		; COnePointDownTool::`RTTI Base Class Descriptor at (0,-1,0,64)'
PUBLIC	??_R0?AVCOnePointDownTool@@@8			; COnePointDownTool `RTTI Type Descriptor'
PUBLIC	??_R3COnePointDownTool@@8			; COnePointDownTool::`RTTI Class Hierarchy Descriptor'
PUBLIC	??_R2COnePointDownTool@@8			; COnePointDownTool::`RTTI Base Class Array'
PUBLIC	??_R1NA@?0A@EA@CCrossLineTool@@8		; CCrossLineTool::`RTTI Base Class Descriptor at (208,-1,0,64)'
PUBLIC	??_R4CTrisectionLineTool@@6B@			; CTrisectionLineTool::`RTTI Complete Object Locator'
PUBLIC	??_R0?AVCTrisectionLineTool@@@8			; CTrisectionLineTool `RTTI Type Descriptor'
PUBLIC	??_R3CTrisectionLineTool@@8			; CTrisectionLineTool::`RTTI Class Hierarchy Descriptor'
PUBLIC	??_R2CTrisectionLineTool@@8			; CTrisectionLineTool::`RTTI Base Class Array'
PUBLIC	??_R1A@?0A@EA@CTrisectionLineTool@@8		; CTrisectionLineTool::`RTTI Base Class Descriptor at (0,-1,0,64)'
PUBLIC	??_R4CQuadrisectLineTool@@6B@			; CQuadrisectLineTool::`RTTI Complete Object Locator'
PUBLIC	??_R0?AVCQuadrisectLineTool@@@8			; CQuadrisectLineTool `RTTI Type Descriptor'
PUBLIC	??_R3CQuadrisectLineTool@@8			; CQuadrisectLineTool::`RTTI Class Hierarchy Descriptor'
PUBLIC	??_R2CQuadrisectLineTool@@8			; CQuadrisectLineTool::`RTTI Base Class Array'
PUBLIC	??_R1A@?0A@EA@CQuadrisectLineTool@@8		; CQuadrisectLineTool::`RTTI Base Class Descriptor at (0,-1,0,64)'
PUBLIC	??_R4CAndrewsPitchforkTool@@6B@			; CAndrewsPitchforkTool::`RTTI Complete Object Locator'
PUBLIC	??_R0?AVCAndrewsPitchforkTool@@@8		; CAndrewsPitchforkTool `RTTI Type Descriptor'
PUBLIC	??_R3CAndrewsPitchforkTool@@8			; CAndrewsPitchforkTool::`RTTI Class Hierarchy Descriptor'
PUBLIC	??_R2CAndrewsPitchforkTool@@8			; CAndrewsPitchforkTool::`RTTI Base Class Array'
PUBLIC	??_R1A@?0A@EA@CAndrewsPitchforkTool@@8		; CAndrewsPitchforkTool::`RTTI Base Class Descriptor at (0,-1,0,64)'
PUBLIC	??_R1A@?0A@EA@CThreePointDownTool@@8		; CThreePointDownTool::`RTTI Base Class Descriptor at (0,-1,0,64)'
PUBLIC	??_R0?AVCThreePointDownTool@@@8			; CThreePointDownTool `RTTI Type Descriptor'
PUBLIC	??_R3CThreePointDownTool@@8			; CThreePointDownTool::`RTTI Class Hierarchy Descriptor'
PUBLIC	??_R2CThreePointDownTool@@8			; CThreePointDownTool::`RTTI Base Class Array'
PUBLIC	??_R4CCycleLinesTool@@6B@			; CCycleLinesTool::`RTTI Complete Object Locator'
PUBLIC	??_R0?AVCCycleLinesTool@@@8			; CCycleLinesTool `RTTI Type Descriptor'
PUBLIC	??_R3CCycleLinesTool@@8				; CCycleLinesTool::`RTTI Class Hierarchy Descriptor'
PUBLIC	??_R2CCycleLinesTool@@8				; CCycleLinesTool::`RTTI Base Class Array'
PUBLIC	??_R1A@?0A@EA@CCycleLinesTool@@8		; CCycleLinesTool::`RTTI Base Class Descriptor at (0,-1,0,64)'
PUBLIC	??_R4CSpeedLineTool@@6B@			; CSpeedLineTool::`RTTI Complete Object Locator'
PUBLIC	??_R0?AVCSpeedLineTool@@@8			; CSpeedLineTool `RTTI Type Descriptor'
PUBLIC	??_R3CSpeedLineTool@@8				; CSpeedLineTool::`RTTI Class Hierarchy Descriptor'
PUBLIC	??_R2CSpeedLineTool@@8				; CSpeedLineTool::`RTTI Base Class Array'
PUBLIC	??_R1A@?0A@EA@CSpeedLineTool@@8			; CSpeedLineTool::`RTTI Base Class Descriptor at (0,-1,0,64)'
PUBLIC	??_R4CSpeedFanTool@@6B@				; CSpeedFanTool::`RTTI Complete Object Locator'
PUBLIC	??_R0?AVCSpeedFanTool@@@8			; CSpeedFanTool `RTTI Type Descriptor'
PUBLIC	??_R3CSpeedFanTool@@8				; CSpeedFanTool::`RTTI Class Hierarchy Descriptor'
PUBLIC	??_R2CSpeedFanTool@@8				; CSpeedFanTool::`RTTI Base Class Array'
PUBLIC	??_R1A@?0A@EA@CSpeedFanTool@@8			; CSpeedFanTool::`RTTI Base Class Descriptor at (0,-1,0,64)'
PUBLIC	??_R4CSpeedArcTool@@6B@				; CSpeedArcTool::`RTTI Complete Object Locator'
PUBLIC	??_R0?AVCSpeedArcTool@@@8			; CSpeedArcTool `RTTI Type Descriptor'
PUBLIC	??_R3CSpeedArcTool@@8				; CSpeedArcTool::`RTTI Class Hierarchy Descriptor'
PUBLIC	??_R2CSpeedArcTool@@8				; CSpeedArcTool::`RTTI Base Class Array'
PUBLIC	??_R1A@?0A@EA@CSpeedArcTool@@8			; CSpeedArcTool::`RTTI Base Class Descriptor at (0,-1,0,64)'
PUBLIC	??_R4CLinearRegressionTool@@6B@			; CLinearRegressionTool::`RTTI Complete Object Locator'
PUBLIC	??_R0?AVCLinearRegressionTool@@@8		; CLinearRegressionTool `RTTI Type Descriptor'
PUBLIC	??_R3CLinearRegressionTool@@8			; CLinearRegressionTool::`RTTI Class Hierarchy Descriptor'
PUBLIC	??_R2CLinearRegressionTool@@8			; CLinearRegressionTool::`RTTI Base Class Array'
PUBLIC	??_R1A@?0A@EA@CLinearRegressionTool@@8		; CLinearRegressionTool::`RTTI Base Class Descriptor at (0,-1,0,64)'
PUBLIC	??_R4CRaffRegressionTool@@6B@			; CRaffRegressionTool::`RTTI Complete Object Locator'
PUBLIC	??_R0?AVCRaffRegressionTool@@@8			; CRaffRegressionTool `RTTI Type Descriptor'
PUBLIC	??_R3CRaffRegressionTool@@8			; CRaffRegressionTool::`RTTI Class Hierarchy Descriptor'
PUBLIC	??_R2CRaffRegressionTool@@8			; CRaffRegressionTool::`RTTI Base Class Array'
PUBLIC	??_R1A@?0A@EA@CRaffRegressionTool@@8		; CRaffRegressionTool::`RTTI Base Class Descriptor at (0,-1,0,64)'
PUBLIC	??_R4CAngleLineTool@@6B@			; CAngleLineTool::`RTTI Complete Object Locator'
PUBLIC	??_R0?AVCAngleLineTool@@@8			; CAngleLineTool `RTTI Type Descriptor'
PUBLIC	??_R3CAngleLineTool@@8				; CAngleLineTool::`RTTI Class Hierarchy Descriptor'
PUBLIC	??_R2CAngleLineTool@@8				; CAngleLineTool::`RTTI Base Class Array'
PUBLIC	??_R1A@?0A@EA@CAngleLineTool@@8			; CAngleLineTool::`RTTI Base Class Descriptor at (0,-1,0,64)'
PUBLIC	??_R4CCandleLineTool@@6B@			; CCandleLineTool::`RTTI Complete Object Locator'
PUBLIC	??_R0?AVCCandleLineTool@@@8			; CCandleLineTool `RTTI Type Descriptor'
PUBLIC	??_R3CCandleLineTool@@8				; CCandleLineTool::`RTTI Class Hierarchy Descriptor'
PUBLIC	??_R2CCandleLineTool@@8				; CCandleLineTool::`RTTI Base Class Array'
PUBLIC	??_R1A@?0A@EA@CCandleLineTool@@8		; CCandleLineTool::`RTTI Base Class Descriptor at (0,-1,0,64)'
PUBLIC	??_R4CCandleBongTool@@6B@			; CCandleBongTool::`RTTI Complete Object Locator'
PUBLIC	??_R0?AVCCandleBongTool@@@8			; CCandleBongTool `RTTI Type Descriptor'
PUBLIC	??_R3CCandleBongTool@@8				; CCandleBongTool::`RTTI Class Hierarchy Descriptor'
PUBLIC	??_R2CCandleBongTool@@8				; CCandleBongTool::`RTTI Base Class Array'
PUBLIC	??_R1A@?0A@EA@CCandleBongTool@@8		; CCandleBongTool::`RTTI Base Class Descriptor at (0,-1,0,64)'
PUBLIC	??_R4CPencilLineTool@@6B@			; CPencilLineTool::`RTTI Complete Object Locator'
PUBLIC	??_R0?AVCPencilLineTool@@@8			; CPencilLineTool `RTTI Type Descriptor'
PUBLIC	??_R3CPencilLineTool@@8				; CPencilLineTool::`RTTI Class Hierarchy Descriptor'
PUBLIC	??_R2CPencilLineTool@@8				; CPencilLineTool::`RTTI Base Class Array'
PUBLIC	??_R1A@?0A@EA@CPencilLineTool@@8		; CPencilLineTool::`RTTI Base Class Descriptor at (0,-1,0,64)'
PUBLIC	??_R1A@?0A@EA@CMultiPointDownTool@@8		; CMultiPointDownTool::`RTTI Base Class Descriptor at (0,-1,0,64)'
PUBLIC	??_R0?AVCMultiPointDownTool@@@8			; CMultiPointDownTool `RTTI Type Descriptor'
PUBLIC	??_R3CMultiPointDownTool@@8			; CMultiPointDownTool::`RTTI Class Hierarchy Descriptor'
PUBLIC	??_R2CMultiPointDownTool@@8			; CMultiPointDownTool::`RTTI Base Class Array'
PUBLIC	??_R4CPeriodSumLineTool@@6B@			; CPeriodSumLineTool::`RTTI Complete Object Locator'
PUBLIC	??_R0?AVCPeriodSumLineTool@@@8			; CPeriodSumLineTool `RTTI Type Descriptor'
PUBLIC	??_R3CPeriodSumLineTool@@8			; CPeriodSumLineTool::`RTTI Class Hierarchy Descriptor'
PUBLIC	??_R2CPeriodSumLineTool@@8			; CPeriodSumLineTool::`RTTI Base Class Array'
PUBLIC	??_R1A@?0A@EA@CPeriodSumLineTool@@8		; CPeriodSumLineTool::`RTTI Base Class Descriptor at (0,-1,0,64)'
PUBLIC	??_R4CElliotLineTool@@6B@			; CElliotLineTool::`RTTI Complete Object Locator'
PUBLIC	??_R0?AVCElliotLineTool@@@8			; CElliotLineTool `RTTI Type Descriptor'
PUBLIC	??_R3CElliotLineTool@@8				; CElliotLineTool::`RTTI Class Hierarchy Descriptor'
PUBLIC	??_R2CElliotLineTool@@8				; CElliotLineTool::`RTTI Base Class Array'
PUBLIC	??_R1A@?0A@EA@CElliotLineTool@@8		; CElliotLineTool::`RTTI Base Class Descriptor at (0,-1,0,64)'
PUBLIC	??_R4CAdjustRatioTool@@6B@			; CAdjustRatioTool::`RTTI Complete Object Locator'
PUBLIC	??_R0?AVCAdjustRatioTool@@@8			; CAdjustRatioTool `RTTI Type Descriptor'
PUBLIC	??_R3CAdjustRatioTool@@8			; CAdjustRatioTool::`RTTI Class Hierarchy Descriptor'
PUBLIC	??_R2CAdjustRatioTool@@8			; CAdjustRatioTool::`RTTI Base Class Array'
PUBLIC	??_R1A@?0A@EA@CAdjustRatioTool@@8		; CAdjustRatioTool::`RTTI Base Class Descriptor at (0,-1,0,64)'
EXTRN	??_M@YGXPAXIIP6EX0@Z@Z:PROC			; `eh vector destructor iterator'
EXTRN	__purecall:PROC
EXTRN	??3@YAXPAXI@Z:PROC				; operator delete
EXTRN	___std_terminate:PROC
EXTRN	__imp___invalid_parameter_noinfo_noreturn:PROC
EXTRN	__imp_??1?$CStringT@DV?$StrTraitMFC_DLL@DV?$ChTraitsCRT@D@ATL@@@@@ATL@@QAE@XZ:PROC
EXTRN	??1CObList@@UAE@XZ:PROC				; CObList::~CObList
EXTRN	??0CTextEnvironment@@QAE@ABK@Z:PROC		; CTextEnvironment::CTextEnvironment
EXTRN	??4CTextPosition@@QAEAAV0@ABV0@@Z:PROC		; CTextPosition::operator=
EXTRN	?SetTextEnvironment@CTextPosition@@QAEXABVCTextEnvironment@@@Z:PROC ; CTextPosition::SetTextEnvironment
EXTRN	??0CTextShowPosition@@QAE@ABVCTextEnvironment@@_N@Z:PROC ; CTextShowPosition::CTextShowPosition
EXTRN	?SetShow@CTextShowPosition@@QAEX_N@Z:PROC	; CTextShowPosition::SetShow
EXTRN	??0CTextHorzPosition@@QAE@ABVCTextEnvironment@@_N11@Z:PROC ; CTextHorzPosition::CTextHorzPosition
EXTRN	?SetLeft@CTextHorzPosition@@QAEX_N@Z:PROC	; CTextHorzPosition::SetLeft
EXTRN	?SetRight@CTextHorzPosition@@QAEX_N@Z:PROC	; CTextHorzPosition::SetRight
EXTRN	?SetRightRate@CTextHorzPosition@@QAEX_N@Z:PROC	; CTextHorzPosition::SetRightRate
EXTRN	??0CTextVertPosition@@QAE@ABVCTextEnvironment@@_N1@Z:PROC ; CTextVertPosition::CTextVertPosition
EXTRN	?SetTop@CTextVertPosition@@QAEX_N@Z:PROC	; CTextVertPosition::SetTop
EXTRN	?SetBottom@CTextVertPosition@@QAEX_N@Z:PROC	; CTextVertPosition::SetBottom
EXTRN	??4CTextHorzVertPosition@@QAEAAV0@ABV0@@Z:PROC	; CTextHorzVertPosition::operator=
EXTRN	??0CTextHorzVertPosition@@QAE@ABVCTextEnvironment@@_N111@Z:PROC ; CTextHorzVertPosition::CTextHorzVertPosition
EXTRN	?SetLeft@CTextHorzVertPosition@@QAEX_N@Z:PROC	; CTextHorzVertPosition::SetLeft
EXTRN	?SetRight@CTextHorzVertPosition@@QAEX_N@Z:PROC	; CTextHorzVertPosition::SetRight
EXTRN	?SetTop@CTextHorzVertPosition@@QAEX_N@Z:PROC	; CTextHorzVertPosition::SetTop
EXTRN	?SetBottom@CTextHorzVertPosition@@QAEX_N@Z:PROC	; CTextHorzVertPosition::SetBottom
EXTRN	?Initialize@CTool@@UAEXXZ:PROC			; CTool::Initialize
EXTRN	?OnRButtonUp@CTool@@UAEXPAVCDC@@ABVCPoint@@@Z:PROC ; CTool::OnRButtonUp
EXTRN	?GetCoordinateCalculator@CTool@@UBEAAVCCoordinateCalculator@@XZ:PROC ; CTool::GetCoordinateCalculator
EXTRN	?PointInDrawingRegion@CTool@@MBE_NABVCPoint@@@Z:PROC ; CTool::PointInDrawingRegion
EXTRN	?GetTextPosition@CTool@@MBEPBVCTextPosition@@XZ:PROC ; CTool::GetTextPosition
EXTRN	?GetTextPosition@CTool@@MAEPAVCTextPosition@@XZ:PROC ; CTool::GetTextPosition
EXTRN	?IsMakeElement@CTool@@MBE_NABVCPoint@@@Z:PROC	; CTool::IsMakeElement
EXTRN	?GetAnalysisData@CTool@@MBEPAVCAnalysisData@@XZ:PROC ; CTool::GetAnalysisData
EXTRN	?Initialize@CMoveTool@@UAEXXZ:PROC		; CMoveTool::Initialize
EXTRN	?OnLButtonDown@CMoveTool@@UAEPAVCElement@@PAVCDC@@ABVCPoint@@@Z:PROC ; CMoveTool::OnLButtonDown
EXTRN	?OnLButtonUp@CMoveTool@@UAEXPAVCDC@@ABVCPoint@@@Z:PROC ; CMoveTool::OnLButtonUp
EXTRN	?OnMouseMove@CMoveTool@@UAE_NPAVCDC@@ABVCPoint@@H@Z:PROC ; CMoveTool::OnMouseMove
EXTRN	?OnDraw@CMoveTool@@UAEXPAVCDC@@@Z:PROC		; CMoveTool::OnDraw
EXTRN	?PointInDrawingRegion@CMoveTool@@MBE_NABVCPoint@@@Z:PROC ; CMoveTool::PointInDrawingRegion
EXTRN	?SavePoints@CMoveTool@@MAEXABVCPoints@@@Z:PROC	; CMoveTool::SavePoints
EXTRN	??0COnePointMoveTool@@IAE@PAVCAnalysisData@@W4COORDINATETYPE@CAnalysis@@@Z:PROC ; COnePointMoveTool::COnePointMoveTool
EXTRN	?DrawTool@COnePointMoveTool@@MAEXPAVCDC@@@Z:PROC ; COnePointMoveTool::DrawTool
EXTRN	?MakeElement@COnePointMoveTool@@MAEPAVCElement@@ABVCElementCommonEnvironment@@@Z:PROC ; COnePointMoveTool::MakeElement
EXTRN	?Initialize@CDownTool@@UAEXXZ:PROC		; CDownTool::Initialize
EXTRN	?OnMouseMove@CDownTool@@UAE_NPAVCDC@@ABVCPoint@@H@Z:PROC ; CDownTool::OnMouseMove
EXTRN	?OnLButtonUp@COneOrTwoPointTool@@UAEXPAVCDC@@ABVCPoint@@@Z:PROC ; COneOrTwoPointTool::OnLButtonUp
EXTRN	?OnMouseMove@COneOrTwoPointTool@@UAE_NPAVCDC@@ABVCPoint@@H@Z:PROC ; COneOrTwoPointTool::OnMouseMove
EXTRN	?OnDraw@COneOrTwoPointTool@@UAEXPAVCDC@@@Z:PROC	; COneOrTwoPointTool::OnDraw
EXTRN	?SavePoints@COneOrTwoPointTool@@MAEXABVCPoints@@@Z:PROC ; COneOrTwoPointTool::SavePoints
EXTRN	??0COnePointDownTool@@IAE@PAVCAnalysisData@@W4COORDINATETYPE@CAnalysis@@@Z:PROC ; COnePointDownTool::COnePointDownTool
EXTRN	??1COnePointDownTool@@IAE@XZ:PROC		; COnePointDownTool::~COnePointDownTool
EXTRN	?OnLButtonDown@COnePointDownTool@@UAEPAVCElement@@PAVCDC@@ABVCPoint@@@Z:PROC ; COnePointDownTool::OnLButtonDown
EXTRN	?OnMouseMove@COnePointDownTool@@UAE_NPAVCDC@@ABVCPoint@@H@Z:PROC ; COnePointDownTool::OnMouseMove
EXTRN	?OnDraw@COnePointDownTool@@UAEXPAVCDC@@@Z:PROC	; COnePointDownTool::OnDraw
EXTRN	?PointInDrawingRegion@COnePointDownTool@@MBE_NABVCPoint@@@Z:PROC ; COnePointDownTool::PointInDrawingRegion
EXTRN	?MakeElement@COnePointDownTool@@MAEPAVCElement@@ABVCElementCommonEnvironment@@@Z:PROC ; COnePointDownTool::MakeElement
EXTRN	?MouseMove@COnePointDownTool@@MAE_NPAVCDC@@ABVCPoint@@@Z:PROC ; COnePointDownTool::MouseMove
EXTRN	?Draw_UpPoint@COnePointDownTool@@MAEXPAVCDC@@@Z:PROC ; COnePointDownTool::Draw_UpPoint
EXTRN	??0CTwoPointDownTool@@IAE@PAVCAnalysisData@@W4COORDINATETYPE@CAnalysis@@@Z:PROC ; CTwoPointDownTool::CTwoPointDownTool
EXTRN	?OnLButtonDown@CTwoPointDownTool@@UAEPAVCElement@@PAVCDC@@ABVCPoint@@@Z:PROC ; CTwoPointDownTool::OnLButtonDown
EXTRN	?PointInDrawingRegion@CTwoPointDownTool@@MBE_NABVCPoint@@@Z:PROC ; CTwoPointDownTool::PointInDrawingRegion
EXTRN	?IsMakeElement@CTwoPointDownTool@@MBE_NABVCPoint@@@Z:PROC ; CTwoPointDownTool::IsMakeElement
EXTRN	?MakeElement@CTwoPointDownTool@@MAEPAVCElement@@ABVCElementCommonEnvironment@@@Z:PROC ; CTwoPointDownTool::MakeElement
EXTRN	?MouseMove@CTwoPointDownTool@@MAE_NPAVCDC@@ABVCPoint@@@Z:PROC ; CTwoPointDownTool::MouseMove
EXTRN	?Draw_UpPoint@CTwoPointDownTool@@MAEXPAVCDC@@@Z:PROC ; CTwoPointDownTool::Draw_UpPoint
EXTRN	??0CThreePointDownTool@@IAE@PAVCAnalysisData@@W4COORDINATETYPE@CAnalysis@@@Z:PROC ; CThreePointDownTool::CThreePointDownTool
EXTRN	?Initialize@CThreePointDownTool@@UAEXXZ:PROC	; CThreePointDownTool::Initialize
EXTRN	?OnLButtonDown@CThreePointDownTool@@UAEPAVCElement@@PAVCDC@@ABVCPoint@@@Z:PROC ; CThreePointDownTool::OnLButtonDown
EXTRN	?OnLButtonUp@CThreePointDownTool@@UAEXPAVCDC@@ABVCPoint@@@Z:PROC ; CThreePointDownTool::OnLButtonUp
EXTRN	?OnDraw@CThreePointDownTool@@UAEXPAVCDC@@@Z:PROC ; CThreePointDownTool::OnDraw
EXTRN	?SavePoints@CThreePointDownTool@@MAEXABVCPoints@@@Z:PROC ; CThreePointDownTool::SavePoints
EXTRN	?IsMakeElement@CThreePointDownTool@@MBE_NABVCPoint@@@Z:PROC ; CThreePointDownTool::IsMakeElement
EXTRN	?MakeElement@CThreePointDownTool@@MAEPAVCElement@@ABVCElementCommonEnvironment@@@Z:PROC ; CThreePointDownTool::MakeElement
EXTRN	??0CMultiPointDownTool@@IAE@PAVCAnalysisData@@W4COORDINATETYPE@CAnalysis@@@Z:PROC ; CMultiPointDownTool::CMultiPointDownTool
EXTRN	?Initialize@CMultiPointDownTool@@UAEXXZ:PROC	; CMultiPointDownTool::Initialize
EXTRN	?OnLButtonDown@CMultiPointDownTool@@UAEPAVCElement@@PAVCDC@@ABVCPoint@@@Z:PROC ; CMultiPointDownTool::OnLButtonDown
EXTRN	?OnLButtonUp@CMultiPointDownTool@@UAEXPAVCDC@@ABVCPoint@@@Z:PROC ; CMultiPointDownTool::OnLButtonUp
EXTRN	?OnMouseMove@CMultiPointDownTool@@UAE_NPAVCDC@@ABVCPoint@@H@Z:PROC ; CMultiPointDownTool::OnMouseMove
EXTRN	?OnDraw@CMultiPointDownTool@@UAEXPAVCDC@@@Z:PROC ; CMultiPointDownTool::OnDraw
EXTRN	?SavePoints@CMultiPointDownTool@@MAEXABVCPoints@@@Z:PROC ; CMultiPointDownTool::SavePoints
EXTRN	?IsMakeElement@CMultiPointDownTool@@MBE_NABVCPoint@@@Z:PROC ; CMultiPointDownTool::IsMakeElement
EXTRN	?MakeElement@CMultiPointDownTool@@MAEPAVCElement@@ABVCElementCommonEnvironment@@@Z:PROC ; CMultiPointDownTool::MakeElement
EXTRN	??0CDrawer@@QAE@XZ:PROC				; CDrawer::CDrawer
EXTRN	?DrawShadow@COnePointDrawer@@MAEXPAVCDC@@ABVCDisplayData@@ABVCPoint@@_N@Z:PROC ; COnePointDrawer::DrawShadow
EXTRN	?DrawTextA@COnePointDrawer@@MAEXPAVCDC@@ABVCOnePointDrawingData@@@Z:PROC ; COnePointDrawer::DrawTextA
EXTRN	?IsDrawing@CTwoPointDrawer@@MBE_NABVCRect@@ABVCPoint@@1@Z:PROC ; CTwoPointDrawer::IsDrawing
EXTRN	?DrawShadow@CTwoPointDrawer@@MAEXPAVCDC@@ABVCRect@@ABVCPoint@@2@Z:PROC ; CTwoPointDrawer::DrawShadow
EXTRN	?DrawTextA@CTwoPointDrawer@@MAEXPAVCDC@@ABVCTwoPointDrawingData@@@Z:PROC ; CTwoPointDrawer::DrawTextA
EXTRN	?DrawTool@CThreePointDrawer@@MAEXPAVCDC@@ABVCRegion@@ABVCPoints@@@Z:PROC ; CThreePointDrawer::DrawTool
EXTRN	?DrawTool@CThreePointDrawer@@MAEXPAVCDC@@ABVCRegion@@ABVCPoints@@2@Z:PROC ; CThreePointDrawer::DrawTool
EXTRN	?DrawTool@CMultiPointDrawer@@MAEXPAVCDC@@ABVCRegion@@ABVCPoints@@@Z:PROC ; CMultiPointDrawer::DrawTool
EXTRN	?DrawTool@CMultiPointDrawer@@MAEXPAVCDC@@ABVCRegion@@ABVCPoints@@2@Z:PROC ; CMultiPointDrawer::DrawTool
EXTRN	??0CVertLineDrawer@@QAE@XZ:PROC			; CVertLineDrawer::CVertLineDrawer
EXTRN	??0CLineDrawer@@QAE@W4TOOLTYPE@CAnalysis@@@Z:PROC ; CLineDrawer::CLineDrawer
EXTRN	??0CHorzLineDrawer@@QAE@XZ:PROC			; CHorzLineDrawer::CHorzLineDrawer
EXTRN	?IsDrawing@CCrossLineDrawer@@MBE_NABVCRect@@ABVCPoint@@@Z:PROC ; CCrossLineDrawer::IsDrawing
EXTRN	?DrawShape@CCrossLineDrawer@@MAEXPAVCDC@@ABVCOnePointDrawingData@@ABVCDisplayData@@ABVCPoint@@_N@Z:PROC ; CCrossLineDrawer::DrawShape
EXTRN	?DrawTextA@CCrossLineDrawer@@MAEXPAVCDC@@ABVCOnePointDrawingData@@@Z:PROC ; CCrossLineDrawer::DrawTextA
EXTRN	?GetGripRegion@CCrossLineDrawer@@MAE?AVCRect@@ABV2@ABVCPoint@@@Z:PROC ; CCrossLineDrawer::GetGripRegion
EXTRN	?DrawShape@CEqualDivisionLineDrawer@@UAEXPAVCDC@@ABVCTwoPointDrawingData@@ABVCPoint@@2@Z:PROC ; CEqualDivisionLineDrawer::DrawShape
EXTRN	?DrawShadow@CEqualDivisionLineDrawer@@UAEXPAVCDC@@ABVCRect@@ABVCPoint@@2@Z:PROC ; CEqualDivisionLineDrawer::DrawShadow
EXTRN	?DrawTextA@CEqualDivisionLineDrawer@@UAEXPAVCDC@@ABVCTwoPointDrawingData@@@Z:PROC ; CEqualDivisionLineDrawer::DrawTextA
EXTRN	?GetCount@CTrisectionLineDrawer@@UBEHH@Z:PROC	; CTrisectionLineDrawer::GetCount
EXTRN	?GetCoefficient@CTrisectionLineDrawer@@MBENHH@Z:PROC ; CTrisectionLineDrawer::GetCoefficient
EXTRN	?GetCount@CQuadrisectLineDrawer@@UBEHH@Z:PROC	; CQuadrisectLineDrawer::GetCount
EXTRN	?GetCoefficient@CQuadrisectLineDrawer@@MBENHH@Z:PROC ; CQuadrisectLineDrawer::GetCoefficient
EXTRN	?DrawShape@CAndrewsPitchforkDrawer@@MAEXPAVCDC@@ABVCRegion@@ABVCPoint@@22@Z:PROC ; CAndrewsPitchforkDrawer::DrawShape
EXTRN	?DrawShape@CCycleLinesDrawer@@MAEXPAVCDC@@ABVCTwoPointDrawingData@@ABVCPoint@@2@Z:PROC ; CCycleLinesDrawer::DrawShape
EXTRN	?DrawShape@CSpeedLineDrawer@@MAEXPAVCDC@@ABVCTwoPointDrawingData@@ABVCPoint@@2@Z:PROC ; CSpeedLineDrawer::DrawShape
EXTRN	?DrawShape@CSpeedFanDrawer@@MAEXPAVCDC@@ABVCTwoPointDrawingData@@ABVCPoint@@2@Z:PROC ; CSpeedFanDrawer::DrawShape
EXTRN	?DrawShape@CSpeedArcDrawer@@MAEXPAVCDC@@ABVCTwoPointDrawingData@@ABVCPoint@@2@Z:PROC ; CSpeedArcDrawer::DrawShape
EXTRN	?DrawArc@CSpeedArcDrawer@@MAEXPAVCDC@@ABVCRect@@HH@Z:PROC ; CSpeedArcDrawer::DrawArc
EXTRN	?DrawShape@CLinearRegressionDrawer@@UAEXPAVCDC@@ABVCTwoPointDrawingData@@ABVCPoint@@2@Z:PROC ; CLinearRegressionDrawer::DrawShape
EXTRN	?DrawShadow@CLinearRegressionDrawer@@UAEXPAVCDC@@ABVCRect@@ABVCPoint@@2@Z:PROC ; CLinearRegressionDrawer::DrawShadow
EXTRN	??0CRaffRegressionDrawer@@QAE@XZ:PROC		; CRaffRegressionDrawer::CRaffRegressionDrawer
EXTRN	??0CAngleLineDrawer@@QAE@XZ:PROC		; CAngleLineDrawer::CAngleLineDrawer
EXTRN	??0CCandleLineDrawer@@QAE@XZ:PROC		; CCandleLineDrawer::CCandleLineDrawer
EXTRN	?DrawShape@CCandleBongDrawer@@MAEXPAVCDC@@ABVCTwoPointDrawingData@@ABVCPoint@@2@Z:PROC ; CCandleBongDrawer::DrawShape
EXTRN	?DrawShape@CPencilLineDrawer@@MAEXPAVCDC@@ABVCMultiPointDrawingData@@@Z:PROC ; CPencilLineDrawer::DrawShape
EXTRN	?DrawShape@CPeriodSumLineDrawer@@UAEXPAVCDC@@ABVCTwoPointDrawingData@@ABVCPoint@@2@Z:PROC ; CPeriodSumLineDrawer::DrawShape
EXTRN	?DrawTextA@CPeriodSumLineDrawer@@UAEXPAVCDC@@ABVCTwoPointDrawingData@@@Z:PROC ; CPeriodSumLineDrawer::DrawTextA
EXTRN	?DrawShape@CElliotLineDrawer@@UAEXPAVCDC@@ABVCTwoPointDrawingData@@ABVCPoint@@2@Z:PROC ; CElliotLineDrawer::DrawShape
EXTRN	?DrawShape@CAdjustRatioDrawer@@MAEXPAVCDC@@ABVCRegion@@ABVCPoint@@22@Z:PROC ; CAdjustRatioDrawer::DrawShape
EXTRN	@__security_check_cookie@4:PROC
EXTRN	___CxxFrameHandler3:PROC
EXTRN	??_7type_info@@6B@:QWORD			; type_info::`vftable'
EXTRN	___security_cookie:DWORD
;	COMDAT ??_R1A@?0A@EA@CAdjustRatioTool@@8
rdata$r	SEGMENT
??_R1A@?0A@EA@CAdjustRatioTool@@8 DD FLAT:??_R0?AVCAdjustRatioTool@@@8 ; CAdjustRatioTool::`RTTI Base Class Descriptor at (0,-1,0,64)'
	DD	03H
	DD	00H
	DD	0ffffffffH
	DD	00H
	DD	040H
	DD	FLAT:??_R3CAdjustRatioTool@@8
rdata$r	ENDS
;	COMDAT ??_R2CAdjustRatioTool@@8
rdata$r	SEGMENT
??_R2CAdjustRatioTool@@8 DD FLAT:??_R1A@?0A@EA@CAdjustRatioTool@@8 ; CAdjustRatioTool::`RTTI Base Class Array'
	DD	FLAT:??_R1A@?0A@EA@CThreePointDownTool@@8
	DD	FLAT:??_R1A@?0A@EA@CDownTool@@8
	DD	FLAT:??_R1A@?0A@EA@CTool@@8
rdata$r	ENDS
;	COMDAT ??_R3CAdjustRatioTool@@8
rdata$r	SEGMENT
??_R3CAdjustRatioTool@@8 DD 00H				; CAdjustRatioTool::`RTTI Class Hierarchy Descriptor'
	DD	00H
	DD	04H
	DD	FLAT:??_R2CAdjustRatioTool@@8
rdata$r	ENDS
;	COMDAT ??_R0?AVCAdjustRatioTool@@@8
data$rs	SEGMENT
??_R0?AVCAdjustRatioTool@@@8 DD FLAT:??_7type_info@@6B@	; CAdjustRatioTool `RTTI Type Descriptor'
	DD	00H
	DB	'.?AVCAdjustRatioTool@@', 00H
data$rs	ENDS
;	COMDAT ??_R4CAdjustRatioTool@@6B@
rdata$r	SEGMENT
??_R4CAdjustRatioTool@@6B@ DD 00H			; CAdjustRatioTool::`RTTI Complete Object Locator'
	DD	00H
	DD	00H
	DD	FLAT:??_R0?AVCAdjustRatioTool@@@8
	DD	FLAT:??_R3CAdjustRatioTool@@8
rdata$r	ENDS
;	COMDAT ??_R1A@?0A@EA@CElliotLineTool@@8
rdata$r	SEGMENT
??_R1A@?0A@EA@CElliotLineTool@@8 DD FLAT:??_R0?AVCElliotLineTool@@@8 ; CElliotLineTool::`RTTI Base Class Descriptor at (0,-1,0,64)'
	DD	04H
	DD	00H
	DD	0ffffffffH
	DD	00H
	DD	040H
	DD	FLAT:??_R3CElliotLineTool@@8
rdata$r	ENDS
;	COMDAT ??_R2CElliotLineTool@@8
rdata$r	SEGMENT
??_R2CElliotLineTool@@8 DD FLAT:??_R1A@?0A@EA@CElliotLineTool@@8 ; CElliotLineTool::`RTTI Base Class Array'
	DD	FLAT:??_R1A@?0A@EA@CTwoPointDownTool@@8
	DD	FLAT:??_R1A@?0A@EA@COneOrTwoPointTool@@8
	DD	FLAT:??_R1A@?0A@EA@CDownTool@@8
	DD	FLAT:??_R1A@?0A@EA@CTool@@8
rdata$r	ENDS
;	COMDAT ??_R3CElliotLineTool@@8
rdata$r	SEGMENT
??_R3CElliotLineTool@@8 DD 00H				; CElliotLineTool::`RTTI Class Hierarchy Descriptor'
	DD	00H
	DD	05H
	DD	FLAT:??_R2CElliotLineTool@@8
rdata$r	ENDS
;	COMDAT ??_R0?AVCElliotLineTool@@@8
data$rs	SEGMENT
??_R0?AVCElliotLineTool@@@8 DD FLAT:??_7type_info@@6B@	; CElliotLineTool `RTTI Type Descriptor'
	DD	00H
	DB	'.?AVCElliotLineTool@@', 00H
data$rs	ENDS
;	COMDAT ??_R4CElliotLineTool@@6B@
rdata$r	SEGMENT
??_R4CElliotLineTool@@6B@ DD 00H			; CElliotLineTool::`RTTI Complete Object Locator'
	DD	00H
	DD	00H
	DD	FLAT:??_R0?AVCElliotLineTool@@@8
	DD	FLAT:??_R3CElliotLineTool@@8
rdata$r	ENDS
;	COMDAT ??_R1A@?0A@EA@CPeriodSumLineTool@@8
rdata$r	SEGMENT
??_R1A@?0A@EA@CPeriodSumLineTool@@8 DD FLAT:??_R0?AVCPeriodSumLineTool@@@8 ; CPeriodSumLineTool::`RTTI Base Class Descriptor at (0,-1,0,64)'
	DD	04H
	DD	00H
	DD	0ffffffffH
	DD	00H
	DD	040H
	DD	FLAT:??_R3CPeriodSumLineTool@@8
rdata$r	ENDS
;	COMDAT ??_R2CPeriodSumLineTool@@8
rdata$r	SEGMENT
??_R2CPeriodSumLineTool@@8 DD FLAT:??_R1A@?0A@EA@CPeriodSumLineTool@@8 ; CPeriodSumLineTool::`RTTI Base Class Array'
	DD	FLAT:??_R1A@?0A@EA@CTwoPointDownTool@@8
	DD	FLAT:??_R1A@?0A@EA@COneOrTwoPointTool@@8
	DD	FLAT:??_R1A@?0A@EA@CDownTool@@8
	DD	FLAT:??_R1A@?0A@EA@CTool@@8
rdata$r	ENDS
;	COMDAT ??_R3CPeriodSumLineTool@@8
rdata$r	SEGMENT
??_R3CPeriodSumLineTool@@8 DD 00H			; CPeriodSumLineTool::`RTTI Class Hierarchy Descriptor'
	DD	00H
	DD	05H
	DD	FLAT:??_R2CPeriodSumLineTool@@8
rdata$r	ENDS
;	COMDAT ??_R0?AVCPeriodSumLineTool@@@8
data$rs	SEGMENT
??_R0?AVCPeriodSumLineTool@@@8 DD FLAT:??_7type_info@@6B@ ; CPeriodSumLineTool `RTTI Type Descriptor'
	DD	00H
	DB	'.?AVCPeriodSumLineTool@@', 00H
data$rs	ENDS
;	COMDAT ??_R4CPeriodSumLineTool@@6B@
rdata$r	SEGMENT
??_R4CPeriodSumLineTool@@6B@ DD 00H			; CPeriodSumLineTool::`RTTI Complete Object Locator'
	DD	00H
	DD	00H
	DD	FLAT:??_R0?AVCPeriodSumLineTool@@@8
	DD	FLAT:??_R3CPeriodSumLineTool@@8
rdata$r	ENDS
;	COMDAT ??_R2CMultiPointDownTool@@8
rdata$r	SEGMENT
??_R2CMultiPointDownTool@@8 DD FLAT:??_R1A@?0A@EA@CMultiPointDownTool@@8 ; CMultiPointDownTool::`RTTI Base Class Array'
	DD	FLAT:??_R1A@?0A@EA@CDownTool@@8
	DD	FLAT:??_R1A@?0A@EA@CTool@@8
rdata$r	ENDS
;	COMDAT ??_R3CMultiPointDownTool@@8
rdata$r	SEGMENT
??_R3CMultiPointDownTool@@8 DD 00H			; CMultiPointDownTool::`RTTI Class Hierarchy Descriptor'
	DD	00H
	DD	03H
	DD	FLAT:??_R2CMultiPointDownTool@@8
rdata$r	ENDS
;	COMDAT ??_R0?AVCMultiPointDownTool@@@8
data$rs	SEGMENT
??_R0?AVCMultiPointDownTool@@@8 DD FLAT:??_7type_info@@6B@ ; CMultiPointDownTool `RTTI Type Descriptor'
	DD	00H
	DB	'.?AVCMultiPointDownTool@@', 00H
data$rs	ENDS
;	COMDAT ??_R1A@?0A@EA@CMultiPointDownTool@@8
rdata$r	SEGMENT
??_R1A@?0A@EA@CMultiPointDownTool@@8 DD FLAT:??_R0?AVCMultiPointDownTool@@@8 ; CMultiPointDownTool::`RTTI Base Class Descriptor at (0,-1,0,64)'
	DD	02H
	DD	00H
	DD	0ffffffffH
	DD	00H
	DD	040H
	DD	FLAT:??_R3CMultiPointDownTool@@8
rdata$r	ENDS
;	COMDAT ??_R1A@?0A@EA@CPencilLineTool@@8
rdata$r	SEGMENT
??_R1A@?0A@EA@CPencilLineTool@@8 DD FLAT:??_R0?AVCPencilLineTool@@@8 ; CPencilLineTool::`RTTI Base Class Descriptor at (0,-1,0,64)'
	DD	03H
	DD	00H
	DD	0ffffffffH
	DD	00H
	DD	040H
	DD	FLAT:??_R3CPencilLineTool@@8
rdata$r	ENDS
;	COMDAT ??_R2CPencilLineTool@@8
rdata$r	SEGMENT
??_R2CPencilLineTool@@8 DD FLAT:??_R1A@?0A@EA@CPencilLineTool@@8 ; CPencilLineTool::`RTTI Base Class Array'
	DD	FLAT:??_R1A@?0A@EA@CMultiPointDownTool@@8
	DD	FLAT:??_R1A@?0A@EA@CDownTool@@8
	DD	FLAT:??_R1A@?0A@EA@CTool@@8
rdata$r	ENDS
;	COMDAT ??_R3CPencilLineTool@@8
rdata$r	SEGMENT
??_R3CPencilLineTool@@8 DD 00H				; CPencilLineTool::`RTTI Class Hierarchy Descriptor'
	DD	00H
	DD	04H
	DD	FLAT:??_R2CPencilLineTool@@8
rdata$r	ENDS
;	COMDAT ??_R0?AVCPencilLineTool@@@8
data$rs	SEGMENT
??_R0?AVCPencilLineTool@@@8 DD FLAT:??_7type_info@@6B@	; CPencilLineTool `RTTI Type Descriptor'
	DD	00H
	DB	'.?AVCPencilLineTool@@', 00H
data$rs	ENDS
;	COMDAT ??_R4CPencilLineTool@@6B@
rdata$r	SEGMENT
??_R4CPencilLineTool@@6B@ DD 00H			; CPencilLineTool::`RTTI Complete Object Locator'
	DD	00H
	DD	00H
	DD	FLAT:??_R0?AVCPencilLineTool@@@8
	DD	FLAT:??_R3CPencilLineTool@@8
rdata$r	ENDS
;	COMDAT ??_R1A@?0A@EA@CCandleBongTool@@8
rdata$r	SEGMENT
??_R1A@?0A@EA@CCandleBongTool@@8 DD FLAT:??_R0?AVCCandleBongTool@@@8 ; CCandleBongTool::`RTTI Base Class Descriptor at (0,-1,0,64)'
	DD	04H
	DD	00H
	DD	0ffffffffH
	DD	00H
	DD	040H
	DD	FLAT:??_R3CCandleBongTool@@8
rdata$r	ENDS
;	COMDAT ??_R2CCandleBongTool@@8
rdata$r	SEGMENT
??_R2CCandleBongTool@@8 DD FLAT:??_R1A@?0A@EA@CCandleBongTool@@8 ; CCandleBongTool::`RTTI Base Class Array'
	DD	FLAT:??_R1A@?0A@EA@CTwoPointDownTool@@8
	DD	FLAT:??_R1A@?0A@EA@COneOrTwoPointTool@@8
	DD	FLAT:??_R1A@?0A@EA@CDownTool@@8
	DD	FLAT:??_R1A@?0A@EA@CTool@@8
rdata$r	ENDS
;	COMDAT ??_R3CCandleBongTool@@8
rdata$r	SEGMENT
??_R3CCandleBongTool@@8 DD 00H				; CCandleBongTool::`RTTI Class Hierarchy Descriptor'
	DD	00H
	DD	05H
	DD	FLAT:??_R2CCandleBongTool@@8
rdata$r	ENDS
;	COMDAT ??_R0?AVCCandleBongTool@@@8
data$rs	SEGMENT
??_R0?AVCCandleBongTool@@@8 DD FLAT:??_7type_info@@6B@	; CCandleBongTool `RTTI Type Descriptor'
	DD	00H
	DB	'.?AVCCandleBongTool@@', 00H
data$rs	ENDS
;	COMDAT ??_R4CCandleBongTool@@6B@
rdata$r	SEGMENT
??_R4CCandleBongTool@@6B@ DD 00H			; CCandleBongTool::`RTTI Complete Object Locator'
	DD	00H
	DD	00H
	DD	FLAT:??_R0?AVCCandleBongTool@@@8
	DD	FLAT:??_R3CCandleBongTool@@8
rdata$r	ENDS
;	COMDAT ??_R1A@?0A@EA@CCandleLineTool@@8
rdata$r	SEGMENT
??_R1A@?0A@EA@CCandleLineTool@@8 DD FLAT:??_R0?AVCCandleLineTool@@@8 ; CCandleLineTool::`RTTI Base Class Descriptor at (0,-1,0,64)'
	DD	03H
	DD	00H
	DD	0ffffffffH
	DD	00H
	DD	040H
	DD	FLAT:??_R3CCandleLineTool@@8
rdata$r	ENDS
;	COMDAT ??_R2CCandleLineTool@@8
rdata$r	SEGMENT
??_R2CCandleLineTool@@8 DD FLAT:??_R1A@?0A@EA@CCandleLineTool@@8 ; CCandleLineTool::`RTTI Base Class Array'
	DD	FLAT:??_R1A@?0A@EA@COnePointMoveTool@@8
	DD	FLAT:??_R1A@?0A@EA@CMoveTool@@8
	DD	FLAT:??_R1A@?0A@EA@CTool@@8
rdata$r	ENDS
;	COMDAT ??_R3CCandleLineTool@@8
rdata$r	SEGMENT
??_R3CCandleLineTool@@8 DD 00H				; CCandleLineTool::`RTTI Class Hierarchy Descriptor'
	DD	00H
	DD	04H
	DD	FLAT:??_R2CCandleLineTool@@8
rdata$r	ENDS
;	COMDAT ??_R0?AVCCandleLineTool@@@8
data$rs	SEGMENT
??_R0?AVCCandleLineTool@@@8 DD FLAT:??_7type_info@@6B@	; CCandleLineTool `RTTI Type Descriptor'
	DD	00H
	DB	'.?AVCCandleLineTool@@', 00H
data$rs	ENDS
;	COMDAT ??_R4CCandleLineTool@@6B@
rdata$r	SEGMENT
??_R4CCandleLineTool@@6B@ DD 00H			; CCandleLineTool::`RTTI Complete Object Locator'
	DD	00H
	DD	00H
	DD	FLAT:??_R0?AVCCandleLineTool@@@8
	DD	FLAT:??_R3CCandleLineTool@@8
rdata$r	ENDS
;	COMDAT ??_R1A@?0A@EA@CAngleLineTool@@8
rdata$r	SEGMENT
??_R1A@?0A@EA@CAngleLineTool@@8 DD FLAT:??_R0?AVCAngleLineTool@@@8 ; CAngleLineTool::`RTTI Base Class Descriptor at (0,-1,0,64)'
	DD	04H
	DD	00H
	DD	0ffffffffH
	DD	00H
	DD	040H
	DD	FLAT:??_R3CAngleLineTool@@8
rdata$r	ENDS
;	COMDAT ??_R2CAngleLineTool@@8
rdata$r	SEGMENT
??_R2CAngleLineTool@@8 DD FLAT:??_R1A@?0A@EA@CAngleLineTool@@8 ; CAngleLineTool::`RTTI Base Class Array'
	DD	FLAT:??_R1A@?0A@EA@CTwoPointDownTool@@8
	DD	FLAT:??_R1A@?0A@EA@COneOrTwoPointTool@@8
	DD	FLAT:??_R1A@?0A@EA@CDownTool@@8
	DD	FLAT:??_R1A@?0A@EA@CTool@@8
rdata$r	ENDS
;	COMDAT ??_R3CAngleLineTool@@8
rdata$r	SEGMENT
??_R3CAngleLineTool@@8 DD 00H				; CAngleLineTool::`RTTI Class Hierarchy Descriptor'
	DD	00H
	DD	05H
	DD	FLAT:??_R2CAngleLineTool@@8
rdata$r	ENDS
;	COMDAT ??_R0?AVCAngleLineTool@@@8
data$rs	SEGMENT
??_R0?AVCAngleLineTool@@@8 DD FLAT:??_7type_info@@6B@	; CAngleLineTool `RTTI Type Descriptor'
	DD	00H
	DB	'.?AVCAngleLineTool@@', 00H
data$rs	ENDS
;	COMDAT ??_R4CAngleLineTool@@6B@
rdata$r	SEGMENT
??_R4CAngleLineTool@@6B@ DD 00H				; CAngleLineTool::`RTTI Complete Object Locator'
	DD	00H
	DD	00H
	DD	FLAT:??_R0?AVCAngleLineTool@@@8
	DD	FLAT:??_R3CAngleLineTool@@8
rdata$r	ENDS
;	COMDAT ??_R1A@?0A@EA@CRaffRegressionTool@@8
rdata$r	SEGMENT
??_R1A@?0A@EA@CRaffRegressionTool@@8 DD FLAT:??_R0?AVCRaffRegressionTool@@@8 ; CRaffRegressionTool::`RTTI Base Class Descriptor at (0,-1,0,64)'
	DD	04H
	DD	00H
	DD	0ffffffffH
	DD	00H
	DD	040H
	DD	FLAT:??_R3CRaffRegressionTool@@8
rdata$r	ENDS
;	COMDAT ??_R2CRaffRegressionTool@@8
rdata$r	SEGMENT
??_R2CRaffRegressionTool@@8 DD FLAT:??_R1A@?0A@EA@CRaffRegressionTool@@8 ; CRaffRegressionTool::`RTTI Base Class Array'
	DD	FLAT:??_R1A@?0A@EA@CTwoPointDownTool@@8
	DD	FLAT:??_R1A@?0A@EA@COneOrTwoPointTool@@8
	DD	FLAT:??_R1A@?0A@EA@CDownTool@@8
	DD	FLAT:??_R1A@?0A@EA@CTool@@8
rdata$r	ENDS
;	COMDAT ??_R3CRaffRegressionTool@@8
rdata$r	SEGMENT
??_R3CRaffRegressionTool@@8 DD 00H			; CRaffRegressionTool::`RTTI Class Hierarchy Descriptor'
	DD	00H
	DD	05H
	DD	FLAT:??_R2CRaffRegressionTool@@8
rdata$r	ENDS
;	COMDAT ??_R0?AVCRaffRegressionTool@@@8
data$rs	SEGMENT
??_R0?AVCRaffRegressionTool@@@8 DD FLAT:??_7type_info@@6B@ ; CRaffRegressionTool `RTTI Type Descriptor'
	DD	00H
	DB	'.?AVCRaffRegressionTool@@', 00H
data$rs	ENDS
;	COMDAT ??_R4CRaffRegressionTool@@6B@
rdata$r	SEGMENT
??_R4CRaffRegressionTool@@6B@ DD 00H			; CRaffRegressionTool::`RTTI Complete Object Locator'
	DD	00H
	DD	00H
	DD	FLAT:??_R0?AVCRaffRegressionTool@@@8
	DD	FLAT:??_R3CRaffRegressionTool@@8
rdata$r	ENDS
;	COMDAT ??_R1A@?0A@EA@CLinearRegressionTool@@8
rdata$r	SEGMENT
??_R1A@?0A@EA@CLinearRegressionTool@@8 DD FLAT:??_R0?AVCLinearRegressionTool@@@8 ; CLinearRegressionTool::`RTTI Base Class Descriptor at (0,-1,0,64)'
	DD	04H
	DD	00H
	DD	0ffffffffH
	DD	00H
	DD	040H
	DD	FLAT:??_R3CLinearRegressionTool@@8
rdata$r	ENDS
;	COMDAT ??_R2CLinearRegressionTool@@8
rdata$r	SEGMENT
??_R2CLinearRegressionTool@@8 DD FLAT:??_R1A@?0A@EA@CLinearRegressionTool@@8 ; CLinearRegressionTool::`RTTI Base Class Array'
	DD	FLAT:??_R1A@?0A@EA@CTwoPointDownTool@@8
	DD	FLAT:??_R1A@?0A@EA@COneOrTwoPointTool@@8
	DD	FLAT:??_R1A@?0A@EA@CDownTool@@8
	DD	FLAT:??_R1A@?0A@EA@CTool@@8
rdata$r	ENDS
;	COMDAT ??_R3CLinearRegressionTool@@8
rdata$r	SEGMENT
??_R3CLinearRegressionTool@@8 DD 00H			; CLinearRegressionTool::`RTTI Class Hierarchy Descriptor'
	DD	00H
	DD	05H
	DD	FLAT:??_R2CLinearRegressionTool@@8
rdata$r	ENDS
;	COMDAT ??_R0?AVCLinearRegressionTool@@@8
data$rs	SEGMENT
??_R0?AVCLinearRegressionTool@@@8 DD FLAT:??_7type_info@@6B@ ; CLinearRegressionTool `RTTI Type Descriptor'
	DD	00H
	DB	'.?AVCLinearRegressionTool@@', 00H
data$rs	ENDS
;	COMDAT ??_R4CLinearRegressionTool@@6B@
rdata$r	SEGMENT
??_R4CLinearRegressionTool@@6B@ DD 00H			; CLinearRegressionTool::`RTTI Complete Object Locator'
	DD	00H
	DD	00H
	DD	FLAT:??_R0?AVCLinearRegressionTool@@@8
	DD	FLAT:??_R3CLinearRegressionTool@@8
rdata$r	ENDS
;	COMDAT ??_R1A@?0A@EA@CSpeedArcTool@@8
rdata$r	SEGMENT
??_R1A@?0A@EA@CSpeedArcTool@@8 DD FLAT:??_R0?AVCSpeedArcTool@@@8 ; CSpeedArcTool::`RTTI Base Class Descriptor at (0,-1,0,64)'
	DD	04H
	DD	00H
	DD	0ffffffffH
	DD	00H
	DD	040H
	DD	FLAT:??_R3CSpeedArcTool@@8
rdata$r	ENDS
;	COMDAT ??_R2CSpeedArcTool@@8
rdata$r	SEGMENT
??_R2CSpeedArcTool@@8 DD FLAT:??_R1A@?0A@EA@CSpeedArcTool@@8 ; CSpeedArcTool::`RTTI Base Class Array'
	DD	FLAT:??_R1A@?0A@EA@CTwoPointDownTool@@8
	DD	FLAT:??_R1A@?0A@EA@COneOrTwoPointTool@@8
	DD	FLAT:??_R1A@?0A@EA@CDownTool@@8
	DD	FLAT:??_R1A@?0A@EA@CTool@@8
rdata$r	ENDS
;	COMDAT ??_R3CSpeedArcTool@@8
rdata$r	SEGMENT
??_R3CSpeedArcTool@@8 DD 00H				; CSpeedArcTool::`RTTI Class Hierarchy Descriptor'
	DD	00H
	DD	05H
	DD	FLAT:??_R2CSpeedArcTool@@8
rdata$r	ENDS
;	COMDAT ??_R0?AVCSpeedArcTool@@@8
data$rs	SEGMENT
??_R0?AVCSpeedArcTool@@@8 DD FLAT:??_7type_info@@6B@	; CSpeedArcTool `RTTI Type Descriptor'
	DD	00H
	DB	'.?AVCSpeedArcTool@@', 00H
data$rs	ENDS
;	COMDAT ??_R4CSpeedArcTool@@6B@
rdata$r	SEGMENT
??_R4CSpeedArcTool@@6B@ DD 00H				; CSpeedArcTool::`RTTI Complete Object Locator'
	DD	00H
	DD	00H
	DD	FLAT:??_R0?AVCSpeedArcTool@@@8
	DD	FLAT:??_R3CSpeedArcTool@@8
rdata$r	ENDS
;	COMDAT ??_R1A@?0A@EA@CSpeedFanTool@@8
rdata$r	SEGMENT
??_R1A@?0A@EA@CSpeedFanTool@@8 DD FLAT:??_R0?AVCSpeedFanTool@@@8 ; CSpeedFanTool::`RTTI Base Class Descriptor at (0,-1,0,64)'
	DD	04H
	DD	00H
	DD	0ffffffffH
	DD	00H
	DD	040H
	DD	FLAT:??_R3CSpeedFanTool@@8
rdata$r	ENDS
;	COMDAT ??_R2CSpeedFanTool@@8
rdata$r	SEGMENT
??_R2CSpeedFanTool@@8 DD FLAT:??_R1A@?0A@EA@CSpeedFanTool@@8 ; CSpeedFanTool::`RTTI Base Class Array'
	DD	FLAT:??_R1A@?0A@EA@CTwoPointDownTool@@8
	DD	FLAT:??_R1A@?0A@EA@COneOrTwoPointTool@@8
	DD	FLAT:??_R1A@?0A@EA@CDownTool@@8
	DD	FLAT:??_R1A@?0A@EA@CTool@@8
rdata$r	ENDS
;	COMDAT ??_R3CSpeedFanTool@@8
rdata$r	SEGMENT
??_R3CSpeedFanTool@@8 DD 00H				; CSpeedFanTool::`RTTI Class Hierarchy Descriptor'
	DD	00H
	DD	05H
	DD	FLAT:??_R2CSpeedFanTool@@8
rdata$r	ENDS
;	COMDAT ??_R0?AVCSpeedFanTool@@@8
data$rs	SEGMENT
??_R0?AVCSpeedFanTool@@@8 DD FLAT:??_7type_info@@6B@	; CSpeedFanTool `RTTI Type Descriptor'
	DD	00H
	DB	'.?AVCSpeedFanTool@@', 00H
data$rs	ENDS
;	COMDAT ??_R4CSpeedFanTool@@6B@
rdata$r	SEGMENT
??_R4CSpeedFanTool@@6B@ DD 00H				; CSpeedFanTool::`RTTI Complete Object Locator'
	DD	00H
	DD	00H
	DD	FLAT:??_R0?AVCSpeedFanTool@@@8
	DD	FLAT:??_R3CSpeedFanTool@@8
rdata$r	ENDS
;	COMDAT ??_R1A@?0A@EA@CSpeedLineTool@@8
rdata$r	SEGMENT
??_R1A@?0A@EA@CSpeedLineTool@@8 DD FLAT:??_R0?AVCSpeedLineTool@@@8 ; CSpeedLineTool::`RTTI Base Class Descriptor at (0,-1,0,64)'
	DD	04H
	DD	00H
	DD	0ffffffffH
	DD	00H
	DD	040H
	DD	FLAT:??_R3CSpeedLineTool@@8
rdata$r	ENDS
;	COMDAT ??_R2CSpeedLineTool@@8
rdata$r	SEGMENT
??_R2CSpeedLineTool@@8 DD FLAT:??_R1A@?0A@EA@CSpeedLineTool@@8 ; CSpeedLineTool::`RTTI Base Class Array'
	DD	FLAT:??_R1A@?0A@EA@CTwoPointDownTool@@8
	DD	FLAT:??_R1A@?0A@EA@COneOrTwoPointTool@@8
	DD	FLAT:??_R1A@?0A@EA@CDownTool@@8
	DD	FLAT:??_R1A@?0A@EA@CTool@@8
rdata$r	ENDS
;	COMDAT ??_R3CSpeedLineTool@@8
rdata$r	SEGMENT
??_R3CSpeedLineTool@@8 DD 00H				; CSpeedLineTool::`RTTI Class Hierarchy Descriptor'
	DD	00H
	DD	05H
	DD	FLAT:??_R2CSpeedLineTool@@8
rdata$r	ENDS
;	COMDAT ??_R0?AVCSpeedLineTool@@@8
data$rs	SEGMENT
??_R0?AVCSpeedLineTool@@@8 DD FLAT:??_7type_info@@6B@	; CSpeedLineTool `RTTI Type Descriptor'
	DD	00H
	DB	'.?AVCSpeedLineTool@@', 00H
data$rs	ENDS
;	COMDAT ??_R4CSpeedLineTool@@6B@
rdata$r	SEGMENT
??_R4CSpeedLineTool@@6B@ DD 00H				; CSpeedLineTool::`RTTI Complete Object Locator'
	DD	00H
	DD	00H
	DD	FLAT:??_R0?AVCSpeedLineTool@@@8
	DD	FLAT:??_R3CSpeedLineTool@@8
rdata$r	ENDS
;	COMDAT ??_R1A@?0A@EA@CCycleLinesTool@@8
rdata$r	SEGMENT
??_R1A@?0A@EA@CCycleLinesTool@@8 DD FLAT:??_R0?AVCCycleLinesTool@@@8 ; CCycleLinesTool::`RTTI Base Class Descriptor at (0,-1,0,64)'
	DD	04H
	DD	00H
	DD	0ffffffffH
	DD	00H
	DD	040H
	DD	FLAT:??_R3CCycleLinesTool@@8
rdata$r	ENDS
;	COMDAT ??_R2CCycleLinesTool@@8
rdata$r	SEGMENT
??_R2CCycleLinesTool@@8 DD FLAT:??_R1A@?0A@EA@CCycleLinesTool@@8 ; CCycleLinesTool::`RTTI Base Class Array'
	DD	FLAT:??_R1A@?0A@EA@CTwoPointDownTool@@8
	DD	FLAT:??_R1A@?0A@EA@COneOrTwoPointTool@@8
	DD	FLAT:??_R1A@?0A@EA@CDownTool@@8
	DD	FLAT:??_R1A@?0A@EA@CTool@@8
rdata$r	ENDS
;	COMDAT ??_R3CCycleLinesTool@@8
rdata$r	SEGMENT
??_R3CCycleLinesTool@@8 DD 00H				; CCycleLinesTool::`RTTI Class Hierarchy Descriptor'
	DD	00H
	DD	05H
	DD	FLAT:??_R2CCycleLinesTool@@8
rdata$r	ENDS
;	COMDAT ??_R0?AVCCycleLinesTool@@@8
data$rs	SEGMENT
??_R0?AVCCycleLinesTool@@@8 DD FLAT:??_7type_info@@6B@	; CCycleLinesTool `RTTI Type Descriptor'
	DD	00H
	DB	'.?AVCCycleLinesTool@@', 00H
data$rs	ENDS
;	COMDAT ??_R4CCycleLinesTool@@6B@
rdata$r	SEGMENT
??_R4CCycleLinesTool@@6B@ DD 00H			; CCycleLinesTool::`RTTI Complete Object Locator'
	DD	00H
	DD	00H
	DD	FLAT:??_R0?AVCCycleLinesTool@@@8
	DD	FLAT:??_R3CCycleLinesTool@@8
rdata$r	ENDS
;	COMDAT ??_R2CThreePointDownTool@@8
rdata$r	SEGMENT
??_R2CThreePointDownTool@@8 DD FLAT:??_R1A@?0A@EA@CThreePointDownTool@@8 ; CThreePointDownTool::`RTTI Base Class Array'
	DD	FLAT:??_R1A@?0A@EA@CDownTool@@8
	DD	FLAT:??_R1A@?0A@EA@CTool@@8
rdata$r	ENDS
;	COMDAT ??_R3CThreePointDownTool@@8
rdata$r	SEGMENT
??_R3CThreePointDownTool@@8 DD 00H			; CThreePointDownTool::`RTTI Class Hierarchy Descriptor'
	DD	00H
	DD	03H
	DD	FLAT:??_R2CThreePointDownTool@@8
rdata$r	ENDS
;	COMDAT ??_R0?AVCThreePointDownTool@@@8
data$rs	SEGMENT
??_R0?AVCThreePointDownTool@@@8 DD FLAT:??_7type_info@@6B@ ; CThreePointDownTool `RTTI Type Descriptor'
	DD	00H
	DB	'.?AVCThreePointDownTool@@', 00H
data$rs	ENDS
;	COMDAT ??_R1A@?0A@EA@CThreePointDownTool@@8
rdata$r	SEGMENT
??_R1A@?0A@EA@CThreePointDownTool@@8 DD FLAT:??_R0?AVCThreePointDownTool@@@8 ; CThreePointDownTool::`RTTI Base Class Descriptor at (0,-1,0,64)'
	DD	02H
	DD	00H
	DD	0ffffffffH
	DD	00H
	DD	040H
	DD	FLAT:??_R3CThreePointDownTool@@8
rdata$r	ENDS
;	COMDAT ??_R1A@?0A@EA@CAndrewsPitchforkTool@@8
rdata$r	SEGMENT
??_R1A@?0A@EA@CAndrewsPitchforkTool@@8 DD FLAT:??_R0?AVCAndrewsPitchforkTool@@@8 ; CAndrewsPitchforkTool::`RTTI Base Class Descriptor at (0,-1,0,64)'
	DD	03H
	DD	00H
	DD	0ffffffffH
	DD	00H
	DD	040H
	DD	FLAT:??_R3CAndrewsPitchforkTool@@8
rdata$r	ENDS
;	COMDAT ??_R2CAndrewsPitchforkTool@@8
rdata$r	SEGMENT
??_R2CAndrewsPitchforkTool@@8 DD FLAT:??_R1A@?0A@EA@CAndrewsPitchforkTool@@8 ; CAndrewsPitchforkTool::`RTTI Base Class Array'
	DD	FLAT:??_R1A@?0A@EA@CThreePointDownTool@@8
	DD	FLAT:??_R1A@?0A@EA@CDownTool@@8
	DD	FLAT:??_R1A@?0A@EA@CTool@@8
rdata$r	ENDS
;	COMDAT ??_R3CAndrewsPitchforkTool@@8
rdata$r	SEGMENT
??_R3CAndrewsPitchforkTool@@8 DD 00H			; CAndrewsPitchforkTool::`RTTI Class Hierarchy Descriptor'
	DD	00H
	DD	04H
	DD	FLAT:??_R2CAndrewsPitchforkTool@@8
rdata$r	ENDS
;	COMDAT ??_R0?AVCAndrewsPitchforkTool@@@8
data$rs	SEGMENT
??_R0?AVCAndrewsPitchforkTool@@@8 DD FLAT:??_7type_info@@6B@ ; CAndrewsPitchforkTool `RTTI Type Descriptor'
	DD	00H
	DB	'.?AVCAndrewsPitchforkTool@@', 00H
data$rs	ENDS
;	COMDAT ??_R4CAndrewsPitchforkTool@@6B@
rdata$r	SEGMENT
??_R4CAndrewsPitchforkTool@@6B@ DD 00H			; CAndrewsPitchforkTool::`RTTI Complete Object Locator'
	DD	00H
	DD	00H
	DD	FLAT:??_R0?AVCAndrewsPitchforkTool@@@8
	DD	FLAT:??_R3CAndrewsPitchforkTool@@8
rdata$r	ENDS
;	COMDAT ??_R1A@?0A@EA@CQuadrisectLineTool@@8
rdata$r	SEGMENT
??_R1A@?0A@EA@CQuadrisectLineTool@@8 DD FLAT:??_R0?AVCQuadrisectLineTool@@@8 ; CQuadrisectLineTool::`RTTI Base Class Descriptor at (0,-1,0,64)'
	DD	04H
	DD	00H
	DD	0ffffffffH
	DD	00H
	DD	040H
	DD	FLAT:??_R3CQuadrisectLineTool@@8
rdata$r	ENDS
;	COMDAT ??_R2CQuadrisectLineTool@@8
rdata$r	SEGMENT
??_R2CQuadrisectLineTool@@8 DD FLAT:??_R1A@?0A@EA@CQuadrisectLineTool@@8 ; CQuadrisectLineTool::`RTTI Base Class Array'
	DD	FLAT:??_R1A@?0A@EA@CTwoPointDownTool@@8
	DD	FLAT:??_R1A@?0A@EA@COneOrTwoPointTool@@8
	DD	FLAT:??_R1A@?0A@EA@CDownTool@@8
	DD	FLAT:??_R1A@?0A@EA@CTool@@8
rdata$r	ENDS
;	COMDAT ??_R3CQuadrisectLineTool@@8
rdata$r	SEGMENT
??_R3CQuadrisectLineTool@@8 DD 00H			; CQuadrisectLineTool::`RTTI Class Hierarchy Descriptor'
	DD	00H
	DD	05H
	DD	FLAT:??_R2CQuadrisectLineTool@@8
rdata$r	ENDS
;	COMDAT ??_R0?AVCQuadrisectLineTool@@@8
data$rs	SEGMENT
??_R0?AVCQuadrisectLineTool@@@8 DD FLAT:??_7type_info@@6B@ ; CQuadrisectLineTool `RTTI Type Descriptor'
	DD	00H
	DB	'.?AVCQuadrisectLineTool@@', 00H
data$rs	ENDS
;	COMDAT ??_R4CQuadrisectLineTool@@6B@
rdata$r	SEGMENT
??_R4CQuadrisectLineTool@@6B@ DD 00H			; CQuadrisectLineTool::`RTTI Complete Object Locator'
	DD	00H
	DD	00H
	DD	FLAT:??_R0?AVCQuadrisectLineTool@@@8
	DD	FLAT:??_R3CQuadrisectLineTool@@8
rdata$r	ENDS
;	COMDAT ??_R1A@?0A@EA@CTrisectionLineTool@@8
rdata$r	SEGMENT
??_R1A@?0A@EA@CTrisectionLineTool@@8 DD FLAT:??_R0?AVCTrisectionLineTool@@@8 ; CTrisectionLineTool::`RTTI Base Class Descriptor at (0,-1,0,64)'
	DD	04H
	DD	00H
	DD	0ffffffffH
	DD	00H
	DD	040H
	DD	FLAT:??_R3CTrisectionLineTool@@8
rdata$r	ENDS
;	COMDAT ??_R2CTrisectionLineTool@@8
rdata$r	SEGMENT
??_R2CTrisectionLineTool@@8 DD FLAT:??_R1A@?0A@EA@CTrisectionLineTool@@8 ; CTrisectionLineTool::`RTTI Base Class Array'
	DD	FLAT:??_R1A@?0A@EA@CTwoPointDownTool@@8
	DD	FLAT:??_R1A@?0A@EA@COneOrTwoPointTool@@8
	DD	FLAT:??_R1A@?0A@EA@CDownTool@@8
	DD	FLAT:??_R1A@?0A@EA@CTool@@8
rdata$r	ENDS
;	COMDAT ??_R3CTrisectionLineTool@@8
rdata$r	SEGMENT
??_R3CTrisectionLineTool@@8 DD 00H			; CTrisectionLineTool::`RTTI Class Hierarchy Descriptor'
	DD	00H
	DD	05H
	DD	FLAT:??_R2CTrisectionLineTool@@8
rdata$r	ENDS
;	COMDAT ??_R0?AVCTrisectionLineTool@@@8
data$rs	SEGMENT
??_R0?AVCTrisectionLineTool@@@8 DD FLAT:??_7type_info@@6B@ ; CTrisectionLineTool `RTTI Type Descriptor'
	DD	00H
	DB	'.?AVCTrisectionLineTool@@', 00H
data$rs	ENDS
;	COMDAT ??_R4CTrisectionLineTool@@6B@
rdata$r	SEGMENT
??_R4CTrisectionLineTool@@6B@ DD 00H			; CTrisectionLineTool::`RTTI Complete Object Locator'
	DD	00H
	DD	00H
	DD	FLAT:??_R0?AVCTrisectionLineTool@@@8
	DD	FLAT:??_R3CTrisectionLineTool@@8
rdata$r	ENDS
;	COMDAT ??_R1NA@?0A@EA@CCrossLineTool@@8
rdata$r	SEGMENT
??_R1NA@?0A@EA@CCrossLineTool@@8 DD FLAT:??_R0?AVCCrossLineTool@@@8 ; CCrossLineTool::`RTTI Base Class Descriptor at (208,-1,0,64)'
	DD	00H
	DD	0d0H
	DD	0ffffffffH
	DD	00H
	DD	040H
	DD	FLAT:??_R3CCrossLineTool@@8
rdata$r	ENDS
;	COMDAT ??_R2COnePointDownTool@@8
rdata$r	SEGMENT
??_R2COnePointDownTool@@8 DD FLAT:??_R1A@?0A@EA@COnePointDownTool@@8 ; COnePointDownTool::`RTTI Base Class Array'
	DD	FLAT:??_R1A@?0A@EA@COneOrTwoPointTool@@8
	DD	FLAT:??_R1A@?0A@EA@CDownTool@@8
	DD	FLAT:??_R1A@?0A@EA@CTool@@8
rdata$r	ENDS
;	COMDAT ??_R3COnePointDownTool@@8
rdata$r	SEGMENT
??_R3COnePointDownTool@@8 DD 00H			; COnePointDownTool::`RTTI Class Hierarchy Descriptor'
	DD	00H
	DD	04H
	DD	FLAT:??_R2COnePointDownTool@@8
rdata$r	ENDS
;	COMDAT ??_R0?AVCOnePointDownTool@@@8
data$rs	SEGMENT
??_R0?AVCOnePointDownTool@@@8 DD FLAT:??_7type_info@@6B@ ; COnePointDownTool `RTTI Type Descriptor'
	DD	00H
	DB	'.?AVCOnePointDownTool@@', 00H
data$rs	ENDS
;	COMDAT ??_R1A@?0A@EA@COnePointDownTool@@8
rdata$r	SEGMENT
??_R1A@?0A@EA@COnePointDownTool@@8 DD FLAT:??_R0?AVCOnePointDownTool@@@8 ; COnePointDownTool::`RTTI Base Class Descriptor at (0,-1,0,64)'
	DD	03H
	DD	00H
	DD	0ffffffffH
	DD	00H
	DD	040H
	DD	FLAT:??_R3COnePointDownTool@@8
rdata$r	ENDS
;	COMDAT ??_R1A@?0A@EA@CCrossLineDownTool@@8
rdata$r	SEGMENT
??_R1A@?0A@EA@CCrossLineDownTool@@8 DD FLAT:??_R0?AVCCrossLineDownTool@@@8 ; CCrossLineDownTool::`RTTI Base Class Descriptor at (0,-1,0,64)'
	DD	05H
	DD	00H
	DD	0ffffffffH
	DD	00H
	DD	040H
	DD	FLAT:??_R3CCrossLineDownTool@@8
rdata$r	ENDS
;	COMDAT ??_R2CCrossLineDownTool@@8
rdata$r	SEGMENT
??_R2CCrossLineDownTool@@8 DD FLAT:??_R1A@?0A@EA@CCrossLineDownTool@@8 ; CCrossLineDownTool::`RTTI Base Class Array'
	DD	FLAT:??_R1A@?0A@EA@COnePointDownTool@@8
	DD	FLAT:??_R1A@?0A@EA@COneOrTwoPointTool@@8
	DD	FLAT:??_R1A@?0A@EA@CDownTool@@8
	DD	FLAT:??_R1A@?0A@EA@CTool@@8
	DD	FLAT:??_R1NA@?0A@EA@CCrossLineTool@@8
rdata$r	ENDS
;	COMDAT ??_R3CCrossLineDownTool@@8
rdata$r	SEGMENT
??_R3CCrossLineDownTool@@8 DD 00H			; CCrossLineDownTool::`RTTI Class Hierarchy Descriptor'
	DD	01H
	DD	06H
	DD	FLAT:??_R2CCrossLineDownTool@@8
rdata$r	ENDS
;	COMDAT ??_R0?AVCCrossLineDownTool@@@8
data$rs	SEGMENT
??_R0?AVCCrossLineDownTool@@@8 DD FLAT:??_7type_info@@6B@ ; CCrossLineDownTool `RTTI Type Descriptor'
	DD	00H
	DB	'.?AVCCrossLineDownTool@@', 00H
data$rs	ENDS
;	COMDAT ??_R4CCrossLineDownTool@@6B@
rdata$r	SEGMENT
??_R4CCrossLineDownTool@@6B@ DD 00H			; CCrossLineDownTool::`RTTI Complete Object Locator'
	DD	00H
	DD	00H
	DD	FLAT:??_R0?AVCCrossLineDownTool@@@8
	DD	FLAT:??_R3CCrossLineDownTool@@8
rdata$r	ENDS
;	COMDAT ??_R1A@?0A@EA@CCrossLineTool@@8
rdata$r	SEGMENT
??_R1A@?0A@EA@CCrossLineTool@@8 DD FLAT:??_R0?AVCCrossLineTool@@@8 ; CCrossLineTool::`RTTI Base Class Descriptor at (0,-1,0,64)'
	DD	00H
	DD	00H
	DD	0ffffffffH
	DD	00H
	DD	040H
	DD	FLAT:??_R3CCrossLineTool@@8
rdata$r	ENDS
;	COMDAT ??_R2CCrossLineTool@@8
rdata$r	SEGMENT
??_R2CCrossLineTool@@8 DD FLAT:??_R1A@?0A@EA@CCrossLineTool@@8 ; CCrossLineTool::`RTTI Base Class Array'
rdata$r	ENDS
;	COMDAT ??_R3CCrossLineTool@@8
rdata$r	SEGMENT
??_R3CCrossLineTool@@8 DD 00H				; CCrossLineTool::`RTTI Class Hierarchy Descriptor'
	DD	00H
	DD	01H
	DD	FLAT:??_R2CCrossLineTool@@8
rdata$r	ENDS
;	COMDAT ??_R0?AVCCrossLineTool@@@8
data$rs	SEGMENT
??_R0?AVCCrossLineTool@@@8 DD FLAT:??_7type_info@@6B@	; CCrossLineTool `RTTI Type Descriptor'
	DD	00H
	DB	'.?AVCCrossLineTool@@', 00H
data$rs	ENDS
;	COMDAT ??_R1LA@?0A@EA@CCrossLineTool@@8
rdata$r	SEGMENT
??_R1LA@?0A@EA@CCrossLineTool@@8 DD FLAT:??_R0?AVCCrossLineTool@@@8 ; CCrossLineTool::`RTTI Base Class Descriptor at (176,-1,0,64)'
	DD	00H
	DD	0b0H
	DD	0ffffffffH
	DD	00H
	DD	040H
	DD	FLAT:??_R3CCrossLineTool@@8
rdata$r	ENDS
;	COMDAT ??_R1A@?0A@EA@CCrossLineMoveTool@@8
rdata$r	SEGMENT
??_R1A@?0A@EA@CCrossLineMoveTool@@8 DD FLAT:??_R0?AVCCrossLineMoveTool@@@8 ; CCrossLineMoveTool::`RTTI Base Class Descriptor at (0,-1,0,64)'
	DD	04H
	DD	00H
	DD	0ffffffffH
	DD	00H
	DD	040H
	DD	FLAT:??_R3CCrossLineMoveTool@@8
rdata$r	ENDS
;	COMDAT ??_R2CCrossLineMoveTool@@8
rdata$r	SEGMENT
??_R2CCrossLineMoveTool@@8 DD FLAT:??_R1A@?0A@EA@CCrossLineMoveTool@@8 ; CCrossLineMoveTool::`RTTI Base Class Array'
	DD	FLAT:??_R1A@?0A@EA@COnePointMoveTool@@8
	DD	FLAT:??_R1A@?0A@EA@CMoveTool@@8
	DD	FLAT:??_R1A@?0A@EA@CTool@@8
	DD	FLAT:??_R1LA@?0A@EA@CCrossLineTool@@8
rdata$r	ENDS
;	COMDAT ??_R3CCrossLineMoveTool@@8
rdata$r	SEGMENT
??_R3CCrossLineMoveTool@@8 DD 00H			; CCrossLineMoveTool::`RTTI Class Hierarchy Descriptor'
	DD	01H
	DD	05H
	DD	FLAT:??_R2CCrossLineMoveTool@@8
rdata$r	ENDS
;	COMDAT ??_R0?AVCCrossLineMoveTool@@@8
data$rs	SEGMENT
??_R0?AVCCrossLineMoveTool@@@8 DD FLAT:??_7type_info@@6B@ ; CCrossLineMoveTool `RTTI Type Descriptor'
	DD	00H
	DB	'.?AVCCrossLineMoveTool@@', 00H
data$rs	ENDS
;	COMDAT ??_R4CCrossLineMoveTool@@6B@
rdata$r	SEGMENT
??_R4CCrossLineMoveTool@@6B@ DD 00H			; CCrossLineMoveTool::`RTTI Complete Object Locator'
	DD	00H
	DD	00H
	DD	FLAT:??_R0?AVCCrossLineMoveTool@@@8
	DD	FLAT:??_R3CCrossLineMoveTool@@8
rdata$r	ENDS
;	COMDAT ??_R1A@?0A@EA@CHorzLineTool@@8
rdata$r	SEGMENT
??_R1A@?0A@EA@CHorzLineTool@@8 DD FLAT:??_R0?AVCHorzLineTool@@@8 ; CHorzLineTool::`RTTI Base Class Descriptor at (0,-1,0,64)'
	DD	03H
	DD	00H
	DD	0ffffffffH
	DD	00H
	DD	040H
	DD	FLAT:??_R3CHorzLineTool@@8
rdata$r	ENDS
;	COMDAT ??_R2CHorzLineTool@@8
rdata$r	SEGMENT
??_R2CHorzLineTool@@8 DD FLAT:??_R1A@?0A@EA@CHorzLineTool@@8 ; CHorzLineTool::`RTTI Base Class Array'
	DD	FLAT:??_R1A@?0A@EA@COnePointMoveTool@@8
	DD	FLAT:??_R1A@?0A@EA@CMoveTool@@8
	DD	FLAT:??_R1A@?0A@EA@CTool@@8
rdata$r	ENDS
;	COMDAT ??_R3CHorzLineTool@@8
rdata$r	SEGMENT
??_R3CHorzLineTool@@8 DD 00H				; CHorzLineTool::`RTTI Class Hierarchy Descriptor'
	DD	00H
	DD	04H
	DD	FLAT:??_R2CHorzLineTool@@8
rdata$r	ENDS
;	COMDAT ??_R0?AVCHorzLineTool@@@8
data$rs	SEGMENT
??_R0?AVCHorzLineTool@@@8 DD FLAT:??_7type_info@@6B@	; CHorzLineTool `RTTI Type Descriptor'
	DD	00H
	DB	'.?AVCHorzLineTool@@', 00H
data$rs	ENDS
;	COMDAT ??_R4CHorzLineTool@@6B@
rdata$r	SEGMENT
??_R4CHorzLineTool@@6B@ DD 00H				; CHorzLineTool::`RTTI Complete Object Locator'
	DD	00H
	DD	00H
	DD	FLAT:??_R0?AVCHorzLineTool@@@8
	DD	FLAT:??_R3CHorzLineTool@@8
rdata$r	ENDS
;	COMDAT ??_R2CMoveTool@@8
rdata$r	SEGMENT
??_R2CMoveTool@@8 DD FLAT:??_R1A@?0A@EA@CMoveTool@@8	; CMoveTool::`RTTI Base Class Array'
	DD	FLAT:??_R1A@?0A@EA@CTool@@8
rdata$r	ENDS
;	COMDAT ??_R3CMoveTool@@8
rdata$r	SEGMENT
??_R3CMoveTool@@8 DD 00H				; CMoveTool::`RTTI Class Hierarchy Descriptor'
	DD	00H
	DD	02H
	DD	FLAT:??_R2CMoveTool@@8
rdata$r	ENDS
;	COMDAT ??_R0?AVCMoveTool@@@8
data$rs	SEGMENT
??_R0?AVCMoveTool@@@8 DD FLAT:??_7type_info@@6B@	; CMoveTool `RTTI Type Descriptor'
	DD	00H
	DB	'.?AVCMoveTool@@', 00H
data$rs	ENDS
;	COMDAT ??_R1A@?0A@EA@CMoveTool@@8
rdata$r	SEGMENT
??_R1A@?0A@EA@CMoveTool@@8 DD FLAT:??_R0?AVCMoveTool@@@8 ; CMoveTool::`RTTI Base Class Descriptor at (0,-1,0,64)'
	DD	01H
	DD	00H
	DD	0ffffffffH
	DD	00H
	DD	040H
	DD	FLAT:??_R3CMoveTool@@8
rdata$r	ENDS
;	COMDAT ??_R2COnePointMoveTool@@8
rdata$r	SEGMENT
??_R2COnePointMoveTool@@8 DD FLAT:??_R1A@?0A@EA@COnePointMoveTool@@8 ; COnePointMoveTool::`RTTI Base Class Array'
	DD	FLAT:??_R1A@?0A@EA@CMoveTool@@8
	DD	FLAT:??_R1A@?0A@EA@CTool@@8
rdata$r	ENDS
;	COMDAT ??_R3COnePointMoveTool@@8
rdata$r	SEGMENT
??_R3COnePointMoveTool@@8 DD 00H			; COnePointMoveTool::`RTTI Class Hierarchy Descriptor'
	DD	00H
	DD	03H
	DD	FLAT:??_R2COnePointMoveTool@@8
rdata$r	ENDS
;	COMDAT ??_R0?AVCOnePointMoveTool@@@8
data$rs	SEGMENT
??_R0?AVCOnePointMoveTool@@@8 DD FLAT:??_7type_info@@6B@ ; COnePointMoveTool `RTTI Type Descriptor'
	DD	00H
	DB	'.?AVCOnePointMoveTool@@', 00H
data$rs	ENDS
;	COMDAT ??_R1A@?0A@EA@COnePointMoveTool@@8
rdata$r	SEGMENT
??_R1A@?0A@EA@COnePointMoveTool@@8 DD FLAT:??_R0?AVCOnePointMoveTool@@@8 ; COnePointMoveTool::`RTTI Base Class Descriptor at (0,-1,0,64)'
	DD	02H
	DD	00H
	DD	0ffffffffH
	DD	00H
	DD	040H
	DD	FLAT:??_R3COnePointMoveTool@@8
rdata$r	ENDS
;	COMDAT ??_R1A@?0A@EA@CVertLineTool@@8
rdata$r	SEGMENT
??_R1A@?0A@EA@CVertLineTool@@8 DD FLAT:??_R0?AVCVertLineTool@@@8 ; CVertLineTool::`RTTI Base Class Descriptor at (0,-1,0,64)'
	DD	03H
	DD	00H
	DD	0ffffffffH
	DD	00H
	DD	040H
	DD	FLAT:??_R3CVertLineTool@@8
rdata$r	ENDS
;	COMDAT ??_R2CVertLineTool@@8
rdata$r	SEGMENT
??_R2CVertLineTool@@8 DD FLAT:??_R1A@?0A@EA@CVertLineTool@@8 ; CVertLineTool::`RTTI Base Class Array'
	DD	FLAT:??_R1A@?0A@EA@COnePointMoveTool@@8
	DD	FLAT:??_R1A@?0A@EA@CMoveTool@@8
	DD	FLAT:??_R1A@?0A@EA@CTool@@8
rdata$r	ENDS
;	COMDAT ??_R3CVertLineTool@@8
rdata$r	SEGMENT
??_R3CVertLineTool@@8 DD 00H				; CVertLineTool::`RTTI Class Hierarchy Descriptor'
	DD	00H
	DD	04H
	DD	FLAT:??_R2CVertLineTool@@8
rdata$r	ENDS
;	COMDAT ??_R0?AVCVertLineTool@@@8
data$rs	SEGMENT
??_R0?AVCVertLineTool@@@8 DD FLAT:??_7type_info@@6B@	; CVertLineTool `RTTI Type Descriptor'
	DD	00H
	DB	'.?AVCVertLineTool@@', 00H
data$rs	ENDS
;	COMDAT ??_R4CVertLineTool@@6B@
rdata$r	SEGMENT
??_R4CVertLineTool@@6B@ DD 00H				; CVertLineTool::`RTTI Complete Object Locator'
	DD	00H
	DD	00H
	DD	FLAT:??_R0?AVCVertLineTool@@@8
	DD	FLAT:??_R3CVertLineTool@@8
rdata$r	ENDS
;	COMDAT ??_R2CTool@@8
rdata$r	SEGMENT
??_R2CTool@@8 DD FLAT:??_R1A@?0A@EA@CTool@@8		; CTool::`RTTI Base Class Array'
rdata$r	ENDS
;	COMDAT ??_R3CTool@@8
rdata$r	SEGMENT
??_R3CTool@@8 DD 00H					; CTool::`RTTI Class Hierarchy Descriptor'
	DD	00H
	DD	01H
	DD	FLAT:??_R2CTool@@8
rdata$r	ENDS
;	COMDAT ??_R0?AVCTool@@@8
data$rs	SEGMENT
??_R0?AVCTool@@@8 DD FLAT:??_7type_info@@6B@		; CTool `RTTI Type Descriptor'
	DD	00H
	DB	'.?AVCTool@@', 00H
data$rs	ENDS
;	COMDAT ??_R1A@?0A@EA@CTool@@8
rdata$r	SEGMENT
??_R1A@?0A@EA@CTool@@8 DD FLAT:??_R0?AVCTool@@@8	; CTool::`RTTI Base Class Descriptor at (0,-1,0,64)'
	DD	00H
	DD	00H
	DD	0ffffffffH
	DD	00H
	DD	040H
	DD	FLAT:??_R3CTool@@8
rdata$r	ENDS
;	COMDAT ??_R2CDownTool@@8
rdata$r	SEGMENT
??_R2CDownTool@@8 DD FLAT:??_R1A@?0A@EA@CDownTool@@8	; CDownTool::`RTTI Base Class Array'
	DD	FLAT:??_R1A@?0A@EA@CTool@@8
rdata$r	ENDS
;	COMDAT ??_R3CDownTool@@8
rdata$r	SEGMENT
??_R3CDownTool@@8 DD 00H				; CDownTool::`RTTI Class Hierarchy Descriptor'
	DD	00H
	DD	02H
	DD	FLAT:??_R2CDownTool@@8
rdata$r	ENDS
;	COMDAT ??_R0?AVCDownTool@@@8
data$rs	SEGMENT
??_R0?AVCDownTool@@@8 DD FLAT:??_7type_info@@6B@	; CDownTool `RTTI Type Descriptor'
	DD	00H
	DB	'.?AVCDownTool@@', 00H
data$rs	ENDS
;	COMDAT ??_R1A@?0A@EA@CDownTool@@8
rdata$r	SEGMENT
??_R1A@?0A@EA@CDownTool@@8 DD FLAT:??_R0?AVCDownTool@@@8 ; CDownTool::`RTTI Base Class Descriptor at (0,-1,0,64)'
	DD	01H
	DD	00H
	DD	0ffffffffH
	DD	00H
	DD	040H
	DD	FLAT:??_R3CDownTool@@8
rdata$r	ENDS
;	COMDAT ??_R2COneOrTwoPointTool@@8
rdata$r	SEGMENT
??_R2COneOrTwoPointTool@@8 DD FLAT:??_R1A@?0A@EA@COneOrTwoPointTool@@8 ; COneOrTwoPointTool::`RTTI Base Class Array'
	DD	FLAT:??_R1A@?0A@EA@CDownTool@@8
	DD	FLAT:??_R1A@?0A@EA@CTool@@8
rdata$r	ENDS
;	COMDAT ??_R3COneOrTwoPointTool@@8
rdata$r	SEGMENT
??_R3COneOrTwoPointTool@@8 DD 00H			; COneOrTwoPointTool::`RTTI Class Hierarchy Descriptor'
	DD	00H
	DD	03H
	DD	FLAT:??_R2COneOrTwoPointTool@@8
rdata$r	ENDS
;	COMDAT ??_R0?AVCOneOrTwoPointTool@@@8
data$rs	SEGMENT
??_R0?AVCOneOrTwoPointTool@@@8 DD FLAT:??_7type_info@@6B@ ; COneOrTwoPointTool `RTTI Type Descriptor'
	DD	00H
	DB	'.?AVCOneOrTwoPointTool@@', 00H
data$rs	ENDS
;	COMDAT ??_R1A@?0A@EA@COneOrTwoPointTool@@8
rdata$r	SEGMENT
??_R1A@?0A@EA@COneOrTwoPointTool@@8 DD FLAT:??_R0?AVCOneOrTwoPointTool@@@8 ; COneOrTwoPointTool::`RTTI Base Class Descriptor at (0,-1,0,64)'
	DD	02H
	DD	00H
	DD	0ffffffffH
	DD	00H
	DD	040H
	DD	FLAT:??_R3COneOrTwoPointTool@@8
rdata$r	ENDS
;	COMDAT ??_R2CTwoPointDownTool@@8
rdata$r	SEGMENT
??_R2CTwoPointDownTool@@8 DD FLAT:??_R1A@?0A@EA@CTwoPointDownTool@@8 ; CTwoPointDownTool::`RTTI Base Class Array'
	DD	FLAT:??_R1A@?0A@EA@COneOrTwoPointTool@@8
	DD	FLAT:??_R1A@?0A@EA@CDownTool@@8
	DD	FLAT:??_R1A@?0A@EA@CTool@@8
rdata$r	ENDS
;	COMDAT ??_R3CTwoPointDownTool@@8
rdata$r	SEGMENT
??_R3CTwoPointDownTool@@8 DD 00H			; CTwoPointDownTool::`RTTI Class Hierarchy Descriptor'
	DD	00H
	DD	04H
	DD	FLAT:??_R2CTwoPointDownTool@@8
rdata$r	ENDS
;	COMDAT ??_R0?AVCTwoPointDownTool@@@8
data$rs	SEGMENT
??_R0?AVCTwoPointDownTool@@@8 DD FLAT:??_7type_info@@6B@ ; CTwoPointDownTool `RTTI Type Descriptor'
	DD	00H
	DB	'.?AVCTwoPointDownTool@@', 00H
data$rs	ENDS
;	COMDAT ??_R1A@?0A@EA@CTwoPointDownTool@@8
rdata$r	SEGMENT
??_R1A@?0A@EA@CTwoPointDownTool@@8 DD FLAT:??_R0?AVCTwoPointDownTool@@@8 ; CTwoPointDownTool::`RTTI Base Class Descriptor at (0,-1,0,64)'
	DD	03H
	DD	00H
	DD	0ffffffffH
	DD	00H
	DD	040H
	DD	FLAT:??_R3CTwoPointDownTool@@8
rdata$r	ENDS
;	COMDAT ??_R1A@?0A@EA@CLineTool@@8
rdata$r	SEGMENT
??_R1A@?0A@EA@CLineTool@@8 DD FLAT:??_R0?AVCLineTool@@@8 ; CLineTool::`RTTI Base Class Descriptor at (0,-1,0,64)'
	DD	04H
	DD	00H
	DD	0ffffffffH
	DD	00H
	DD	040H
	DD	FLAT:??_R3CLineTool@@8
rdata$r	ENDS
;	COMDAT ??_R2CLineTool@@8
rdata$r	SEGMENT
??_R2CLineTool@@8 DD FLAT:??_R1A@?0A@EA@CLineTool@@8	; CLineTool::`RTTI Base Class Array'
	DD	FLAT:??_R1A@?0A@EA@CTwoPointDownTool@@8
	DD	FLAT:??_R1A@?0A@EA@COneOrTwoPointTool@@8
	DD	FLAT:??_R1A@?0A@EA@CDownTool@@8
	DD	FLAT:??_R1A@?0A@EA@CTool@@8
rdata$r	ENDS
;	COMDAT ??_R3CLineTool@@8
rdata$r	SEGMENT
??_R3CLineTool@@8 DD 00H				; CLineTool::`RTTI Class Hierarchy Descriptor'
	DD	00H
	DD	05H
	DD	FLAT:??_R2CLineTool@@8
rdata$r	ENDS
;	COMDAT ??_R0?AVCLineTool@@@8
data$rs	SEGMENT
??_R0?AVCLineTool@@@8 DD FLAT:??_7type_info@@6B@	; CLineTool `RTTI Type Descriptor'
	DD	00H
	DB	'.?AVCLineTool@@', 00H
data$rs	ENDS
;	COMDAT ??_R4CLineTool@@6B@
rdata$r	SEGMENT
??_R4CLineTool@@6B@ DD 00H				; CLineTool::`RTTI Complete Object Locator'
	DD	00H
	DD	00H
	DD	FLAT:??_R0?AVCLineTool@@@8
	DD	FLAT:??_R3CLineTool@@8
rdata$r	ENDS
;	COMDAT ??_R1A@?0A@EA@CAdjustRatioDrawer@@8
rdata$r	SEGMENT
??_R1A@?0A@EA@CAdjustRatioDrawer@@8 DD FLAT:??_R0?AVCAdjustRatioDrawer@@@8 ; CAdjustRatioDrawer::`RTTI Base Class Descriptor at (0,-1,0,64)'
	DD	02H
	DD	00H
	DD	0ffffffffH
	DD	00H
	DD	040H
	DD	FLAT:??_R3CAdjustRatioDrawer@@8
rdata$r	ENDS
;	COMDAT ??_R2CAdjustRatioDrawer@@8
rdata$r	SEGMENT
??_R2CAdjustRatioDrawer@@8 DD FLAT:??_R1A@?0A@EA@CAdjustRatioDrawer@@8 ; CAdjustRatioDrawer::`RTTI Base Class Array'
	DD	FLAT:??_R1A@?0A@EA@CThreePointDrawer@@8
	DD	FLAT:??_R13?0A@EA@CDrawer@@8
rdata$r	ENDS
;	COMDAT ??_R3CAdjustRatioDrawer@@8
rdata$r	SEGMENT
??_R3CAdjustRatioDrawer@@8 DD 00H			; CAdjustRatioDrawer::`RTTI Class Hierarchy Descriptor'
	DD	00H
	DD	03H
	DD	FLAT:??_R2CAdjustRatioDrawer@@8
rdata$r	ENDS
;	COMDAT ??_R0?AVCAdjustRatioDrawer@@@8
data$rs	SEGMENT
??_R0?AVCAdjustRatioDrawer@@@8 DD FLAT:??_7type_info@@6B@ ; CAdjustRatioDrawer `RTTI Type Descriptor'
	DD	00H
	DB	'.?AVCAdjustRatioDrawer@@', 00H
data$rs	ENDS
;	COMDAT ??_R4CAdjustRatioDrawer@@6B@
rdata$r	SEGMENT
??_R4CAdjustRatioDrawer@@6B@ DD 00H			; CAdjustRatioDrawer::`RTTI Complete Object Locator'
	DD	00H
	DD	00H
	DD	FLAT:??_R0?AVCAdjustRatioDrawer@@@8
	DD	FLAT:??_R3CAdjustRatioDrawer@@8
rdata$r	ENDS
;	COMDAT ??_R1A@?0A@EA@CElliotLineDrawer@@8
rdata$r	SEGMENT
??_R1A@?0A@EA@CElliotLineDrawer@@8 DD FLAT:??_R0?AVCElliotLineDrawer@@@8 ; CElliotLineDrawer::`RTTI Base Class Descriptor at (0,-1,0,64)'
	DD	02H
	DD	00H
	DD	0ffffffffH
	DD	00H
	DD	040H
	DD	FLAT:??_R3CElliotLineDrawer@@8
rdata$r	ENDS
;	COMDAT ??_R2CElliotLineDrawer@@8
rdata$r	SEGMENT
??_R2CElliotLineDrawer@@8 DD FLAT:??_R1A@?0A@EA@CElliotLineDrawer@@8 ; CElliotLineDrawer::`RTTI Base Class Array'
	DD	FLAT:??_R1A@?0A@EA@CTwoPointDrawer@@8
	DD	FLAT:??_R1A@33FA@CDrawer@@8
rdata$r	ENDS
;	COMDAT ??_R3CElliotLineDrawer@@8
rdata$r	SEGMENT
??_R3CElliotLineDrawer@@8 DD 00H			; CElliotLineDrawer::`RTTI Class Hierarchy Descriptor'
	DD	00H
	DD	03H
	DD	FLAT:??_R2CElliotLineDrawer@@8
rdata$r	ENDS
;	COMDAT ??_R0?AVCElliotLineDrawer@@@8
data$rs	SEGMENT
??_R0?AVCElliotLineDrawer@@@8 DD FLAT:??_7type_info@@6B@ ; CElliotLineDrawer `RTTI Type Descriptor'
	DD	00H
	DB	'.?AVCElliotLineDrawer@@', 00H
data$rs	ENDS
;	COMDAT ??_R4CElliotLineDrawer@@6B@
rdata$r	SEGMENT
??_R4CElliotLineDrawer@@6B@ DD 00H			; CElliotLineDrawer::`RTTI Complete Object Locator'
	DD	00H
	DD	00H
	DD	FLAT:??_R0?AVCElliotLineDrawer@@@8
	DD	FLAT:??_R3CElliotLineDrawer@@8
rdata$r	ENDS
;	COMDAT ??_R1A@?0A@EA@CPeriodSumLineDrawer@@8
rdata$r	SEGMENT
??_R1A@?0A@EA@CPeriodSumLineDrawer@@8 DD FLAT:??_R0?AVCPeriodSumLineDrawer@@@8 ; CPeriodSumLineDrawer::`RTTI Base Class Descriptor at (0,-1,0,64)'
	DD	02H
	DD	00H
	DD	0ffffffffH
	DD	00H
	DD	040H
	DD	FLAT:??_R3CPeriodSumLineDrawer@@8
rdata$r	ENDS
;	COMDAT ??_R2CPeriodSumLineDrawer@@8
rdata$r	SEGMENT
??_R2CPeriodSumLineDrawer@@8 DD FLAT:??_R1A@?0A@EA@CPeriodSumLineDrawer@@8 ; CPeriodSumLineDrawer::`RTTI Base Class Array'
	DD	FLAT:??_R1A@?0A@EA@CTwoPointDrawer@@8
	DD	FLAT:??_R1A@33FA@CDrawer@@8
rdata$r	ENDS
;	COMDAT ??_R3CPeriodSumLineDrawer@@8
rdata$r	SEGMENT
??_R3CPeriodSumLineDrawer@@8 DD 00H			; CPeriodSumLineDrawer::`RTTI Class Hierarchy Descriptor'
	DD	00H
	DD	03H
	DD	FLAT:??_R2CPeriodSumLineDrawer@@8
rdata$r	ENDS
;	COMDAT ??_R0?AVCPeriodSumLineDrawer@@@8
data$rs	SEGMENT
??_R0?AVCPeriodSumLineDrawer@@@8 DD FLAT:??_7type_info@@6B@ ; CPeriodSumLineDrawer `RTTI Type Descriptor'
	DD	00H
	DB	'.?AVCPeriodSumLineDrawer@@', 00H
data$rs	ENDS
;	COMDAT ??_R4CPeriodSumLineDrawer@@6B@
rdata$r	SEGMENT
??_R4CPeriodSumLineDrawer@@6B@ DD 00H			; CPeriodSumLineDrawer::`RTTI Complete Object Locator'
	DD	00H
	DD	00H
	DD	FLAT:??_R0?AVCPeriodSumLineDrawer@@@8
	DD	FLAT:??_R3CPeriodSumLineDrawer@@8
rdata$r	ENDS
;	COMDAT ??_R1A@?0A@EA@CPencilLineDrawer@@8
rdata$r	SEGMENT
??_R1A@?0A@EA@CPencilLineDrawer@@8 DD FLAT:??_R0?AVCPencilLineDrawer@@@8 ; CPencilLineDrawer::`RTTI Base Class Descriptor at (0,-1,0,64)'
	DD	02H
	DD	00H
	DD	0ffffffffH
	DD	00H
	DD	040H
	DD	FLAT:??_R3CPencilLineDrawer@@8
rdata$r	ENDS
;	COMDAT ??_R2CPencilLineDrawer@@8
rdata$r	SEGMENT
??_R2CPencilLineDrawer@@8 DD FLAT:??_R1A@?0A@EA@CPencilLineDrawer@@8 ; CPencilLineDrawer::`RTTI Base Class Array'
	DD	FLAT:??_R1A@?0A@EA@CMultiPointDrawer@@8
	DD	FLAT:??_R13?0A@EA@CDrawer@@8
rdata$r	ENDS
;	COMDAT ??_R3CPencilLineDrawer@@8
rdata$r	SEGMENT
??_R3CPencilLineDrawer@@8 DD 00H			; CPencilLineDrawer::`RTTI Class Hierarchy Descriptor'
	DD	00H
	DD	03H
	DD	FLAT:??_R2CPencilLineDrawer@@8
rdata$r	ENDS
;	COMDAT ??_R0?AVCPencilLineDrawer@@@8
data$rs	SEGMENT
??_R0?AVCPencilLineDrawer@@@8 DD FLAT:??_7type_info@@6B@ ; CPencilLineDrawer `RTTI Type Descriptor'
	DD	00H
	DB	'.?AVCPencilLineDrawer@@', 00H
data$rs	ENDS
;	COMDAT ??_R4CPencilLineDrawer@@6B@
rdata$r	SEGMENT
??_R4CPencilLineDrawer@@6B@ DD 00H			; CPencilLineDrawer::`RTTI Complete Object Locator'
	DD	00H
	DD	00H
	DD	FLAT:??_R0?AVCPencilLineDrawer@@@8
	DD	FLAT:??_R3CPencilLineDrawer@@8
rdata$r	ENDS
;	COMDAT ??_R1A@?0A@EA@CCandleBongDrawer@@8
rdata$r	SEGMENT
??_R1A@?0A@EA@CCandleBongDrawer@@8 DD FLAT:??_R0?AVCCandleBongDrawer@@@8 ; CCandleBongDrawer::`RTTI Base Class Descriptor at (0,-1,0,64)'
	DD	02H
	DD	00H
	DD	0ffffffffH
	DD	00H
	DD	040H
	DD	FLAT:??_R3CCandleBongDrawer@@8
rdata$r	ENDS
;	COMDAT ??_R2CCandleBongDrawer@@8
rdata$r	SEGMENT
??_R2CCandleBongDrawer@@8 DD FLAT:??_R1A@?0A@EA@CCandleBongDrawer@@8 ; CCandleBongDrawer::`RTTI Base Class Array'
	DD	FLAT:??_R1A@?0A@EA@CTwoPointDrawer@@8
	DD	FLAT:??_R1A@33FA@CDrawer@@8
rdata$r	ENDS
;	COMDAT ??_R3CCandleBongDrawer@@8
rdata$r	SEGMENT
??_R3CCandleBongDrawer@@8 DD 00H			; CCandleBongDrawer::`RTTI Class Hierarchy Descriptor'
	DD	00H
	DD	03H
	DD	FLAT:??_R2CCandleBongDrawer@@8
rdata$r	ENDS
;	COMDAT ??_R0?AVCCandleBongDrawer@@@8
data$rs	SEGMENT
??_R0?AVCCandleBongDrawer@@@8 DD FLAT:??_7type_info@@6B@ ; CCandleBongDrawer `RTTI Type Descriptor'
	DD	00H
	DB	'.?AVCCandleBongDrawer@@', 00H
data$rs	ENDS
;	COMDAT ??_R4CCandleBongDrawer@@6B@
rdata$r	SEGMENT
??_R4CCandleBongDrawer@@6B@ DD 00H			; CCandleBongDrawer::`RTTI Complete Object Locator'
	DD	00H
	DD	00H
	DD	FLAT:??_R0?AVCCandleBongDrawer@@@8
	DD	FLAT:??_R3CCandleBongDrawer@@8
rdata$r	ENDS
;	COMDAT ??_R1A@?0A@EA@CLinearRegressionDrawer@@8
rdata$r	SEGMENT
??_R1A@?0A@EA@CLinearRegressionDrawer@@8 DD FLAT:??_R0?AVCLinearRegressionDrawer@@@8 ; CLinearRegressionDrawer::`RTTI Base Class Descriptor at (0,-1,0,64)'
	DD	02H
	DD	00H
	DD	0ffffffffH
	DD	00H
	DD	040H
	DD	FLAT:??_R3CLinearRegressionDrawer@@8
rdata$r	ENDS
;	COMDAT ??_R2CLinearRegressionDrawer@@8
rdata$r	SEGMENT
??_R2CLinearRegressionDrawer@@8 DD FLAT:??_R1A@?0A@EA@CLinearRegressionDrawer@@8 ; CLinearRegressionDrawer::`RTTI Base Class Array'
	DD	FLAT:??_R1A@?0A@EA@CTwoPointDrawer@@8
	DD	FLAT:??_R1A@33FA@CDrawer@@8
rdata$r	ENDS
;	COMDAT ??_R3CLinearRegressionDrawer@@8
rdata$r	SEGMENT
??_R3CLinearRegressionDrawer@@8 DD 00H			; CLinearRegressionDrawer::`RTTI Class Hierarchy Descriptor'
	DD	00H
	DD	03H
	DD	FLAT:??_R2CLinearRegressionDrawer@@8
rdata$r	ENDS
;	COMDAT ??_R0?AVCLinearRegressionDrawer@@@8
data$rs	SEGMENT
??_R0?AVCLinearRegressionDrawer@@@8 DD FLAT:??_7type_info@@6B@ ; CLinearRegressionDrawer `RTTI Type Descriptor'
	DD	00H
	DB	'.?AVCLinearRegressionDrawer@@', 00H
data$rs	ENDS
;	COMDAT ??_R4CLinearRegressionDrawer@@6B@
rdata$r	SEGMENT
??_R4CLinearRegressionDrawer@@6B@ DD 00H		; CLinearRegressionDrawer::`RTTI Complete Object Locator'
	DD	00H
	DD	00H
	DD	FLAT:??_R0?AVCLinearRegressionDrawer@@@8
	DD	FLAT:??_R3CLinearRegressionDrawer@@8
rdata$r	ENDS
;	COMDAT ??_R1A@?0A@EA@CSpeedArcDrawer@@8
rdata$r	SEGMENT
??_R1A@?0A@EA@CSpeedArcDrawer@@8 DD FLAT:??_R0?AVCSpeedArcDrawer@@@8 ; CSpeedArcDrawer::`RTTI Base Class Descriptor at (0,-1,0,64)'
	DD	02H
	DD	00H
	DD	0ffffffffH
	DD	00H
	DD	040H
	DD	FLAT:??_R3CSpeedArcDrawer@@8
rdata$r	ENDS
;	COMDAT ??_R2CSpeedArcDrawer@@8
rdata$r	SEGMENT
??_R2CSpeedArcDrawer@@8 DD FLAT:??_R1A@?0A@EA@CSpeedArcDrawer@@8 ; CSpeedArcDrawer::`RTTI Base Class Array'
	DD	FLAT:??_R1A@?0A@EA@CTwoPointDrawer@@8
	DD	FLAT:??_R1A@33FA@CDrawer@@8
rdata$r	ENDS
;	COMDAT ??_R3CSpeedArcDrawer@@8
rdata$r	SEGMENT
??_R3CSpeedArcDrawer@@8 DD 00H				; CSpeedArcDrawer::`RTTI Class Hierarchy Descriptor'
	DD	00H
	DD	03H
	DD	FLAT:??_R2CSpeedArcDrawer@@8
rdata$r	ENDS
;	COMDAT ??_R0?AVCSpeedArcDrawer@@@8
data$rs	SEGMENT
??_R0?AVCSpeedArcDrawer@@@8 DD FLAT:??_7type_info@@6B@	; CSpeedArcDrawer `RTTI Type Descriptor'
	DD	00H
	DB	'.?AVCSpeedArcDrawer@@', 00H
data$rs	ENDS
;	COMDAT ??_R4CSpeedArcDrawer@@6B@
rdata$r	SEGMENT
??_R4CSpeedArcDrawer@@6B@ DD 00H			; CSpeedArcDrawer::`RTTI Complete Object Locator'
	DD	00H
	DD	00H
	DD	FLAT:??_R0?AVCSpeedArcDrawer@@@8
	DD	FLAT:??_R3CSpeedArcDrawer@@8
rdata$r	ENDS
;	COMDAT ??_R1A@?0A@EA@CSpeedFanDrawer@@8
rdata$r	SEGMENT
??_R1A@?0A@EA@CSpeedFanDrawer@@8 DD FLAT:??_R0?AVCSpeedFanDrawer@@@8 ; CSpeedFanDrawer::`RTTI Base Class Descriptor at (0,-1,0,64)'
	DD	02H
	DD	00H
	DD	0ffffffffH
	DD	00H
	DD	040H
	DD	FLAT:??_R3CSpeedFanDrawer@@8
rdata$r	ENDS
;	COMDAT ??_R2CSpeedFanDrawer@@8
rdata$r	SEGMENT
??_R2CSpeedFanDrawer@@8 DD FLAT:??_R1A@?0A@EA@CSpeedFanDrawer@@8 ; CSpeedFanDrawer::`RTTI Base Class Array'
	DD	FLAT:??_R1A@?0A@EA@CTwoPointDrawer@@8
	DD	FLAT:??_R1A@33FA@CDrawer@@8
rdata$r	ENDS
;	COMDAT ??_R3CSpeedFanDrawer@@8
rdata$r	SEGMENT
??_R3CSpeedFanDrawer@@8 DD 00H				; CSpeedFanDrawer::`RTTI Class Hierarchy Descriptor'
	DD	00H
	DD	03H
	DD	FLAT:??_R2CSpeedFanDrawer@@8
rdata$r	ENDS
;	COMDAT ??_R0?AVCSpeedFanDrawer@@@8
data$rs	SEGMENT
??_R0?AVCSpeedFanDrawer@@@8 DD FLAT:??_7type_info@@6B@	; CSpeedFanDrawer `RTTI Type Descriptor'
	DD	00H
	DB	'.?AVCSpeedFanDrawer@@', 00H
data$rs	ENDS
;	COMDAT ??_R4CSpeedFanDrawer@@6B@
rdata$r	SEGMENT
??_R4CSpeedFanDrawer@@6B@ DD 00H			; CSpeedFanDrawer::`RTTI Complete Object Locator'
	DD	00H
	DD	00H
	DD	FLAT:??_R0?AVCSpeedFanDrawer@@@8
	DD	FLAT:??_R3CSpeedFanDrawer@@8
rdata$r	ENDS
;	COMDAT ??_R1A@?0A@EA@CSpeedLineDrawer@@8
rdata$r	SEGMENT
??_R1A@?0A@EA@CSpeedLineDrawer@@8 DD FLAT:??_R0?AVCSpeedLineDrawer@@@8 ; CSpeedLineDrawer::`RTTI Base Class Descriptor at (0,-1,0,64)'
	DD	02H
	DD	00H
	DD	0ffffffffH
	DD	00H
	DD	040H
	DD	FLAT:??_R3CSpeedLineDrawer@@8
rdata$r	ENDS
;	COMDAT ??_R2CSpeedLineDrawer@@8
rdata$r	SEGMENT
??_R2CSpeedLineDrawer@@8 DD FLAT:??_R1A@?0A@EA@CSpeedLineDrawer@@8 ; CSpeedLineDrawer::`RTTI Base Class Array'
	DD	FLAT:??_R1A@?0A@EA@CTwoPointDrawer@@8
	DD	FLAT:??_R1A@33FA@CDrawer@@8
rdata$r	ENDS
;	COMDAT ??_R3CSpeedLineDrawer@@8
rdata$r	SEGMENT
??_R3CSpeedLineDrawer@@8 DD 00H				; CSpeedLineDrawer::`RTTI Class Hierarchy Descriptor'
	DD	00H
	DD	03H
	DD	FLAT:??_R2CSpeedLineDrawer@@8
rdata$r	ENDS
;	COMDAT ??_R0?AVCSpeedLineDrawer@@@8
data$rs	SEGMENT
??_R0?AVCSpeedLineDrawer@@@8 DD FLAT:??_7type_info@@6B@	; CSpeedLineDrawer `RTTI Type Descriptor'
	DD	00H
	DB	'.?AVCSpeedLineDrawer@@', 00H
data$rs	ENDS
;	COMDAT ??_R4CSpeedLineDrawer@@6B@
rdata$r	SEGMENT
??_R4CSpeedLineDrawer@@6B@ DD 00H			; CSpeedLineDrawer::`RTTI Complete Object Locator'
	DD	00H
	DD	00H
	DD	FLAT:??_R0?AVCSpeedLineDrawer@@@8
	DD	FLAT:??_R3CSpeedLineDrawer@@8
rdata$r	ENDS
;	COMDAT ??_R1A@?0A@EA@CCycleLinesDrawer@@8
rdata$r	SEGMENT
??_R1A@?0A@EA@CCycleLinesDrawer@@8 DD FLAT:??_R0?AVCCycleLinesDrawer@@@8 ; CCycleLinesDrawer::`RTTI Base Class Descriptor at (0,-1,0,64)'
	DD	02H
	DD	00H
	DD	0ffffffffH
	DD	00H
	DD	040H
	DD	FLAT:??_R3CCycleLinesDrawer@@8
rdata$r	ENDS
;	COMDAT ??_R2CCycleLinesDrawer@@8
rdata$r	SEGMENT
??_R2CCycleLinesDrawer@@8 DD FLAT:??_R1A@?0A@EA@CCycleLinesDrawer@@8 ; CCycleLinesDrawer::`RTTI Base Class Array'
	DD	FLAT:??_R1A@?0A@EA@CTwoPointDrawer@@8
	DD	FLAT:??_R1A@33FA@CDrawer@@8
rdata$r	ENDS
;	COMDAT ??_R3CCycleLinesDrawer@@8
rdata$r	SEGMENT
??_R3CCycleLinesDrawer@@8 DD 00H			; CCycleLinesDrawer::`RTTI Class Hierarchy Descriptor'
	DD	00H
	DD	03H
	DD	FLAT:??_R2CCycleLinesDrawer@@8
rdata$r	ENDS
;	COMDAT ??_R0?AVCCycleLinesDrawer@@@8
data$rs	SEGMENT
??_R0?AVCCycleLinesDrawer@@@8 DD FLAT:??_7type_info@@6B@ ; CCycleLinesDrawer `RTTI Type Descriptor'
	DD	00H
	DB	'.?AVCCycleLinesDrawer@@', 00H
data$rs	ENDS
;	COMDAT ??_R4CCycleLinesDrawer@@6B@
rdata$r	SEGMENT
??_R4CCycleLinesDrawer@@6B@ DD 00H			; CCycleLinesDrawer::`RTTI Complete Object Locator'
	DD	00H
	DD	00H
	DD	FLAT:??_R0?AVCCycleLinesDrawer@@@8
	DD	FLAT:??_R3CCycleLinesDrawer@@8
rdata$r	ENDS
;	COMDAT ??_R1A@?0A@EA@CAndrewsPitchforkDrawer@@8
rdata$r	SEGMENT
??_R1A@?0A@EA@CAndrewsPitchforkDrawer@@8 DD FLAT:??_R0?AVCAndrewsPitchforkDrawer@@@8 ; CAndrewsPitchforkDrawer::`RTTI Base Class Descriptor at (0,-1,0,64)'
	DD	02H
	DD	00H
	DD	0ffffffffH
	DD	00H
	DD	040H
	DD	FLAT:??_R3CAndrewsPitchforkDrawer@@8
rdata$r	ENDS
;	COMDAT ??_R2CAndrewsPitchforkDrawer@@8
rdata$r	SEGMENT
??_R2CAndrewsPitchforkDrawer@@8 DD FLAT:??_R1A@?0A@EA@CAndrewsPitchforkDrawer@@8 ; CAndrewsPitchforkDrawer::`RTTI Base Class Array'
	DD	FLAT:??_R1A@?0A@EA@CThreePointDrawer@@8
	DD	FLAT:??_R13?0A@EA@CDrawer@@8
rdata$r	ENDS
;	COMDAT ??_R3CAndrewsPitchforkDrawer@@8
rdata$r	SEGMENT
??_R3CAndrewsPitchforkDrawer@@8 DD 00H			; CAndrewsPitchforkDrawer::`RTTI Class Hierarchy Descriptor'
	DD	00H
	DD	03H
	DD	FLAT:??_R2CAndrewsPitchforkDrawer@@8
rdata$r	ENDS
;	COMDAT ??_R0?AVCAndrewsPitchforkDrawer@@@8
data$rs	SEGMENT
??_R0?AVCAndrewsPitchforkDrawer@@@8 DD FLAT:??_7type_info@@6B@ ; CAndrewsPitchforkDrawer `RTTI Type Descriptor'
	DD	00H
	DB	'.?AVCAndrewsPitchforkDrawer@@', 00H
data$rs	ENDS
;	COMDAT ??_R4CAndrewsPitchforkDrawer@@6B@
rdata$r	SEGMENT
??_R4CAndrewsPitchforkDrawer@@6B@ DD 00H		; CAndrewsPitchforkDrawer::`RTTI Complete Object Locator'
	DD	00H
	DD	00H
	DD	FLAT:??_R0?AVCAndrewsPitchforkDrawer@@@8
	DD	FLAT:??_R3CAndrewsPitchforkDrawer@@8
rdata$r	ENDS
;	COMDAT ??_R1A@?0A@EA@CQuadrisectLineDrawer@@8
rdata$r	SEGMENT
??_R1A@?0A@EA@CQuadrisectLineDrawer@@8 DD FLAT:??_R0?AVCQuadrisectLineDrawer@@@8 ; CQuadrisectLineDrawer::`RTTI Base Class Descriptor at (0,-1,0,64)'
	DD	03H
	DD	00H
	DD	0ffffffffH
	DD	00H
	DD	040H
	DD	FLAT:??_R3CQuadrisectLineDrawer@@8
rdata$r	ENDS
;	COMDAT ??_R2CQuadrisectLineDrawer@@8
rdata$r	SEGMENT
??_R2CQuadrisectLineDrawer@@8 DD FLAT:??_R1A@?0A@EA@CQuadrisectLineDrawer@@8 ; CQuadrisectLineDrawer::`RTTI Base Class Array'
	DD	FLAT:??_R1A@?0A@EA@CEqualDivisionLineDrawer@@8
	DD	FLAT:??_R1A@?0A@EA@CTwoPointDrawer@@8
	DD	FLAT:??_R1A@33FA@CDrawer@@8
rdata$r	ENDS
;	COMDAT ??_R3CQuadrisectLineDrawer@@8
rdata$r	SEGMENT
??_R3CQuadrisectLineDrawer@@8 DD 00H			; CQuadrisectLineDrawer::`RTTI Class Hierarchy Descriptor'
	DD	00H
	DD	04H
	DD	FLAT:??_R2CQuadrisectLineDrawer@@8
rdata$r	ENDS
;	COMDAT ??_R0?AVCQuadrisectLineDrawer@@@8
data$rs	SEGMENT
??_R0?AVCQuadrisectLineDrawer@@@8 DD FLAT:??_7type_info@@6B@ ; CQuadrisectLineDrawer `RTTI Type Descriptor'
	DD	00H
	DB	'.?AVCQuadrisectLineDrawer@@', 00H
data$rs	ENDS
;	COMDAT ??_R4CQuadrisectLineDrawer@@6B@
rdata$r	SEGMENT
??_R4CQuadrisectLineDrawer@@6B@ DD 00H			; CQuadrisectLineDrawer::`RTTI Complete Object Locator'
	DD	00H
	DD	00H
	DD	FLAT:??_R0?AVCQuadrisectLineDrawer@@@8
	DD	FLAT:??_R3CQuadrisectLineDrawer@@8
rdata$r	ENDS
;	COMDAT ??_R1A@?0A@EA@CTrisectionLineDrawer@@8
rdata$r	SEGMENT
??_R1A@?0A@EA@CTrisectionLineDrawer@@8 DD FLAT:??_R0?AVCTrisectionLineDrawer@@@8 ; CTrisectionLineDrawer::`RTTI Base Class Descriptor at (0,-1,0,64)'
	DD	03H
	DD	00H
	DD	0ffffffffH
	DD	00H
	DD	040H
	DD	FLAT:??_R3CTrisectionLineDrawer@@8
rdata$r	ENDS
;	COMDAT ??_R2CTrisectionLineDrawer@@8
rdata$r	SEGMENT
??_R2CTrisectionLineDrawer@@8 DD FLAT:??_R1A@?0A@EA@CTrisectionLineDrawer@@8 ; CTrisectionLineDrawer::`RTTI Base Class Array'
	DD	FLAT:??_R1A@?0A@EA@CEqualDivisionLineDrawer@@8
	DD	FLAT:??_R1A@?0A@EA@CTwoPointDrawer@@8
	DD	FLAT:??_R1A@33FA@CDrawer@@8
rdata$r	ENDS
;	COMDAT ??_R3CTrisectionLineDrawer@@8
rdata$r	SEGMENT
??_R3CTrisectionLineDrawer@@8 DD 00H			; CTrisectionLineDrawer::`RTTI Class Hierarchy Descriptor'
	DD	00H
	DD	04H
	DD	FLAT:??_R2CTrisectionLineDrawer@@8
rdata$r	ENDS
;	COMDAT ??_R0?AVCTrisectionLineDrawer@@@8
data$rs	SEGMENT
??_R0?AVCTrisectionLineDrawer@@@8 DD FLAT:??_7type_info@@6B@ ; CTrisectionLineDrawer `RTTI Type Descriptor'
	DD	00H
	DB	'.?AVCTrisectionLineDrawer@@', 00H
data$rs	ENDS
;	COMDAT ??_R4CTrisectionLineDrawer@@6B@
rdata$r	SEGMENT
??_R4CTrisectionLineDrawer@@6B@ DD 00H			; CTrisectionLineDrawer::`RTTI Complete Object Locator'
	DD	00H
	DD	00H
	DD	FLAT:??_R0?AVCTrisectionLineDrawer@@@8
	DD	FLAT:??_R3CTrisectionLineDrawer@@8
rdata$r	ENDS
;	COMDAT ??_R1A@?0A@EA@CEqualDivisionLineDrawer@@8
rdata$r	SEGMENT
??_R1A@?0A@EA@CEqualDivisionLineDrawer@@8 DD FLAT:??_R0?AVCEqualDivisionLineDrawer@@@8 ; CEqualDivisionLineDrawer::`RTTI Base Class Descriptor at (0,-1,0,64)'
	DD	02H
	DD	00H
	DD	0ffffffffH
	DD	00H
	DD	040H
	DD	FLAT:??_R3CEqualDivisionLineDrawer@@8
rdata$r	ENDS
;	COMDAT ??_R2CEqualDivisionLineDrawer@@8
rdata$r	SEGMENT
??_R2CEqualDivisionLineDrawer@@8 DD FLAT:??_R1A@?0A@EA@CEqualDivisionLineDrawer@@8 ; CEqualDivisionLineDrawer::`RTTI Base Class Array'
	DD	FLAT:??_R1A@?0A@EA@CTwoPointDrawer@@8
	DD	FLAT:??_R1A@33FA@CDrawer@@8
rdata$r	ENDS
;	COMDAT ??_R3CEqualDivisionLineDrawer@@8
rdata$r	SEGMENT
??_R3CEqualDivisionLineDrawer@@8 DD 00H			; CEqualDivisionLineDrawer::`RTTI Class Hierarchy Descriptor'
	DD	00H
	DD	03H
	DD	FLAT:??_R2CEqualDivisionLineDrawer@@8
rdata$r	ENDS
;	COMDAT ??_R0?AVCEqualDivisionLineDrawer@@@8
data$rs	SEGMENT
??_R0?AVCEqualDivisionLineDrawer@@@8 DD FLAT:??_7type_info@@6B@ ; CEqualDivisionLineDrawer `RTTI Type Descriptor'
	DD	00H
	DB	'.?AVCEqualDivisionLineDrawer@@', 00H
data$rs	ENDS
;	COMDAT ??_R4CEqualDivisionLineDrawer@@6B@
rdata$r	SEGMENT
??_R4CEqualDivisionLineDrawer@@6B@ DD 00H		; CEqualDivisionLineDrawer::`RTTI Complete Object Locator'
	DD	00H
	DD	00H
	DD	FLAT:??_R0?AVCEqualDivisionLineDrawer@@@8
	DD	FLAT:??_R3CEqualDivisionLineDrawer@@8
rdata$r	ENDS
;	COMDAT ??_R1A@?0A@EA@CHorzLineDrawer@@8
rdata$r	SEGMENT
??_R1A@?0A@EA@CHorzLineDrawer@@8 DD FLAT:??_R0?AVCHorzLineDrawer@@@8 ; CHorzLineDrawer::`RTTI Base Class Descriptor at (0,-1,0,64)'
	DD	02H
	DD	00H
	DD	0ffffffffH
	DD	00H
	DD	040H
	DD	FLAT:??_R3CHorzLineDrawer@@8
rdata$r	ENDS
;	COMDAT ??_R2CHorzLineDrawer@@8
rdata$r	SEGMENT
??_R2CHorzLineDrawer@@8 DD FLAT:??_R1A@?0A@EA@CHorzLineDrawer@@8 ; CHorzLineDrawer::`RTTI Base Class Array'
	DD	FLAT:??_R1A@A@7FA@COnePointDrawer@@8
	DD	FLAT:??_R1A@A@3FA@CDrawer@@8
rdata$r	ENDS
;	COMDAT ??_R3CHorzLineDrawer@@8
rdata$r	SEGMENT
??_R3CHorzLineDrawer@@8 DD 00H				; CHorzLineDrawer::`RTTI Class Hierarchy Descriptor'
	DD	00H
	DD	03H
	DD	FLAT:??_R2CHorzLineDrawer@@8
rdata$r	ENDS
;	COMDAT ??_R0?AVCHorzLineDrawer@@@8
data$rs	SEGMENT
??_R0?AVCHorzLineDrawer@@@8 DD FLAT:??_7type_info@@6B@	; CHorzLineDrawer `RTTI Type Descriptor'
	DD	00H
	DB	'.?AVCHorzLineDrawer@@', 00H
data$rs	ENDS
;	COMDAT ??_R1M@?0A@EN@CHorzLineDrawer@@8
rdata$r	SEGMENT
??_R1M@?0A@EN@CHorzLineDrawer@@8 DD FLAT:??_R0?AVCHorzLineDrawer@@@8 ; CHorzLineDrawer::`RTTI Base Class Descriptor at (12,-1,0,77)'
	DD	02H
	DD	0cH
	DD	0ffffffffH
	DD	00H
	DD	04dH
	DD	FLAT:??_R3CHorzLineDrawer@@8
rdata$r	ENDS
;	COMDAT ??_R1A@A@3FA@CDrawer@@8
rdata$r	SEGMENT
??_R1A@A@3FA@CDrawer@@8 DD FLAT:??_R0?AVCDrawer@@@8	; CDrawer::`RTTI Base Class Descriptor at (0,0,4,80)'
	DD	00H
	DD	00H
	DD	00H
	DD	04H
	DD	050H
	DD	FLAT:??_R3CDrawer@@8
rdata$r	ENDS
;	COMDAT ??_R1A@A@7FA@COnePointDrawer@@8
rdata$r	SEGMENT
??_R1A@A@7FA@COnePointDrawer@@8 DD FLAT:??_R0?AVCOnePointDrawer@@@8 ; COnePointDrawer::`RTTI Base Class Descriptor at (0,0,8,80)'
	DD	01H
	DD	00H
	DD	00H
	DD	08H
	DD	050H
	DD	FLAT:??_R3COnePointDrawer@@8
rdata$r	ENDS
;	COMDAT ??_R2CVertLineDrawer@@8
rdata$r	SEGMENT
??_R2CVertLineDrawer@@8 DD FLAT:??_R1A@?0A@EA@CVertLineDrawer@@8 ; CVertLineDrawer::`RTTI Base Class Array'
	DD	FLAT:??_R1A@A@7FA@COnePointDrawer@@8
	DD	FLAT:??_R1A@A@3FA@CDrawer@@8
rdata$r	ENDS
;	COMDAT ??_R3CVertLineDrawer@@8
rdata$r	SEGMENT
??_R3CVertLineDrawer@@8 DD 00H				; CVertLineDrawer::`RTTI Class Hierarchy Descriptor'
	DD	00H
	DD	03H
	DD	FLAT:??_R2CVertLineDrawer@@8
rdata$r	ENDS
;	COMDAT ??_R0?AVCVertLineDrawer@@@8
data$rs	SEGMENT
??_R0?AVCVertLineDrawer@@@8 DD FLAT:??_7type_info@@6B@	; CVertLineDrawer `RTTI Type Descriptor'
	DD	00H
	DB	'.?AVCVertLineDrawer@@', 00H
data$rs	ENDS
;	COMDAT ??_R1A@?0A@EA@CVertLineDrawer@@8
rdata$r	SEGMENT
??_R1A@?0A@EA@CVertLineDrawer@@8 DD FLAT:??_R0?AVCVertLineDrawer@@@8 ; CVertLineDrawer::`RTTI Base Class Descriptor at (0,-1,0,64)'
	DD	02H
	DD	00H
	DD	0ffffffffH
	DD	00H
	DD	040H
	DD	FLAT:??_R3CVertLineDrawer@@8
rdata$r	ENDS
;	COMDAT ??_R1A@?0A@EA@CCrossLineDrawer@@8
rdata$r	SEGMENT
??_R1A@?0A@EA@CCrossLineDrawer@@8 DD FLAT:??_R0?AVCCrossLineDrawer@@@8 ; CCrossLineDrawer::`RTTI Base Class Descriptor at (0,-1,0,64)'
	DD	06H
	DD	00H
	DD	0ffffffffH
	DD	00H
	DD	040H
	DD	FLAT:??_R3CCrossLineDrawer@@8
rdata$r	ENDS
;	COMDAT ??_R2CCrossLineDrawer@@8
rdata$r	SEGMENT
??_R2CCrossLineDrawer@@8 DD FLAT:??_R1A@?0A@EA@CCrossLineDrawer@@8 ; CCrossLineDrawer::`RTTI Base Class Array'
	DD	FLAT:??_R1A@?0A@EA@CVertLineDrawer@@8
	DD	FLAT:??_R1A@A@7FA@COnePointDrawer@@8
	DD	FLAT:??_R1A@A@3FA@CDrawer@@8
	DD	FLAT:??_R1M@?0A@EN@CHorzLineDrawer@@8
	DD	FLAT:??_R1A@A@7FA@COnePointDrawer@@8
	DD	FLAT:??_R1A@A@3FA@CDrawer@@8
rdata$r	ENDS
;	COMDAT ??_R3CCrossLineDrawer@@8
rdata$r	SEGMENT
??_R3CCrossLineDrawer@@8 DD 00H				; CCrossLineDrawer::`RTTI Class Hierarchy Descriptor'
	DD	03H
	DD	07H
	DD	FLAT:??_R2CCrossLineDrawer@@8
rdata$r	ENDS
;	COMDAT ??_R0?AVCCrossLineDrawer@@@8
data$rs	SEGMENT
??_R0?AVCCrossLineDrawer@@@8 DD FLAT:??_7type_info@@6B@	; CCrossLineDrawer `RTTI Type Descriptor'
	DD	00H
	DB	'.?AVCCrossLineDrawer@@', 00H
data$rs	ENDS
;	COMDAT ??_R4CCrossLineDrawer@@6B@
rdata$r	SEGMENT
??_R4CCrossLineDrawer@@6B@ DD 00H			; CCrossLineDrawer::`RTTI Complete Object Locator'
	DD	030H
	DD	04H
	DD	FLAT:??_R0?AVCCrossLineDrawer@@@8
	DD	FLAT:??_R3CCrossLineDrawer@@8
rdata$r	ENDS
;	COMDAT ??_R1A@?0A@EA@CMultiPointDrawer@@8
rdata$r	SEGMENT
??_R1A@?0A@EA@CMultiPointDrawer@@8 DD FLAT:??_R0?AVCMultiPointDrawer@@@8 ; CMultiPointDrawer::`RTTI Base Class Descriptor at (0,-1,0,64)'
	DD	01H
	DD	00H
	DD	0ffffffffH
	DD	00H
	DD	040H
	DD	FLAT:??_R3CMultiPointDrawer@@8
rdata$r	ENDS
;	COMDAT ??_R2CMultiPointDrawer@@8
rdata$r	SEGMENT
??_R2CMultiPointDrawer@@8 DD FLAT:??_R1A@?0A@EA@CMultiPointDrawer@@8 ; CMultiPointDrawer::`RTTI Base Class Array'
	DD	FLAT:??_R13?0A@EA@CDrawer@@8
rdata$r	ENDS
;	COMDAT ??_R3CMultiPointDrawer@@8
rdata$r	SEGMENT
??_R3CMultiPointDrawer@@8 DD 00H			; CMultiPointDrawer::`RTTI Class Hierarchy Descriptor'
	DD	00H
	DD	02H
	DD	FLAT:??_R2CMultiPointDrawer@@8
rdata$r	ENDS
;	COMDAT ??_R0?AVCMultiPointDrawer@@@8
data$rs	SEGMENT
??_R0?AVCMultiPointDrawer@@@8 DD FLAT:??_7type_info@@6B@ ; CMultiPointDrawer `RTTI Type Descriptor'
	DD	00H
	DB	'.?AVCMultiPointDrawer@@', 00H
data$rs	ENDS
;	COMDAT ??_R4CMultiPointDrawer@@6B@
rdata$r	SEGMENT
??_R4CMultiPointDrawer@@6B@ DD 00H			; CMultiPointDrawer::`RTTI Complete Object Locator'
	DD	00H
	DD	00H
	DD	FLAT:??_R0?AVCMultiPointDrawer@@@8
	DD	FLAT:??_R3CMultiPointDrawer@@8
rdata$r	ENDS
;	COMDAT ??_R13?0A@EA@CDrawer@@8
rdata$r	SEGMENT
??_R13?0A@EA@CDrawer@@8 DD FLAT:??_R0?AVCDrawer@@@8	; CDrawer::`RTTI Base Class Descriptor at (4,-1,0,64)'
	DD	00H
	DD	04H
	DD	0ffffffffH
	DD	00H
	DD	040H
	DD	FLAT:??_R3CDrawer@@8
rdata$r	ENDS
;	COMDAT ??_R1A@?0A@EA@CThreePointDrawer@@8
rdata$r	SEGMENT
??_R1A@?0A@EA@CThreePointDrawer@@8 DD FLAT:??_R0?AVCThreePointDrawer@@@8 ; CThreePointDrawer::`RTTI Base Class Descriptor at (0,-1,0,64)'
	DD	01H
	DD	00H
	DD	0ffffffffH
	DD	00H
	DD	040H
	DD	FLAT:??_R3CThreePointDrawer@@8
rdata$r	ENDS
;	COMDAT ??_R2CThreePointDrawer@@8
rdata$r	SEGMENT
??_R2CThreePointDrawer@@8 DD FLAT:??_R1A@?0A@EA@CThreePointDrawer@@8 ; CThreePointDrawer::`RTTI Base Class Array'
	DD	FLAT:??_R13?0A@EA@CDrawer@@8
rdata$r	ENDS
;	COMDAT ??_R3CThreePointDrawer@@8
rdata$r	SEGMENT
??_R3CThreePointDrawer@@8 DD 00H			; CThreePointDrawer::`RTTI Class Hierarchy Descriptor'
	DD	00H
	DD	02H
	DD	FLAT:??_R2CThreePointDrawer@@8
rdata$r	ENDS
;	COMDAT ??_R0?AVCThreePointDrawer@@@8
data$rs	SEGMENT
??_R0?AVCThreePointDrawer@@@8 DD FLAT:??_7type_info@@6B@ ; CThreePointDrawer `RTTI Type Descriptor'
	DD	00H
	DB	'.?AVCThreePointDrawer@@', 00H
data$rs	ENDS
;	COMDAT ??_R4CThreePointDrawer@@6B@
rdata$r	SEGMENT
??_R4CThreePointDrawer@@6B@ DD 00H			; CThreePointDrawer::`RTTI Complete Object Locator'
	DD	00H
	DD	00H
	DD	FLAT:??_R0?AVCThreePointDrawer@@@8
	DD	FLAT:??_R3CThreePointDrawer@@8
rdata$r	ENDS
;	COMDAT ??_R1A@?0A@EA@CTwoPointDrawer@@8
rdata$r	SEGMENT
??_R1A@?0A@EA@CTwoPointDrawer@@8 DD FLAT:??_R0?AVCTwoPointDrawer@@@8 ; CTwoPointDrawer::`RTTI Base Class Descriptor at (0,-1,0,64)'
	DD	01H
	DD	00H
	DD	0ffffffffH
	DD	00H
	DD	040H
	DD	FLAT:??_R3CTwoPointDrawer@@8
rdata$r	ENDS
;	COMDAT ??_R2CTwoPointDrawer@@8
rdata$r	SEGMENT
??_R2CTwoPointDrawer@@8 DD FLAT:??_R1A@?0A@EA@CTwoPointDrawer@@8 ; CTwoPointDrawer::`RTTI Base Class Array'
	DD	FLAT:??_R1A@33FA@CDrawer@@8
rdata$r	ENDS
;	COMDAT ??_R3CTwoPointDrawer@@8
rdata$r	SEGMENT
??_R3CTwoPointDrawer@@8 DD 00H				; CTwoPointDrawer::`RTTI Class Hierarchy Descriptor'
	DD	00H
	DD	02H
	DD	FLAT:??_R2CTwoPointDrawer@@8
rdata$r	ENDS
;	COMDAT ??_R0?AVCTwoPointDrawer@@@8
data$rs	SEGMENT
??_R0?AVCTwoPointDrawer@@@8 DD FLAT:??_7type_info@@6B@	; CTwoPointDrawer `RTTI Type Descriptor'
	DD	00H
	DB	'.?AVCTwoPointDrawer@@', 00H
data$rs	ENDS
;	COMDAT ??_R4CTwoPointDrawer@@6B@
rdata$r	SEGMENT
??_R4CTwoPointDrawer@@6B@ DD 00H			; CTwoPointDrawer::`RTTI Complete Object Locator'
	DD	00H
	DD	00H
	DD	FLAT:??_R0?AVCTwoPointDrawer@@@8
	DD	FLAT:??_R3CTwoPointDrawer@@8
rdata$r	ENDS
;	COMDAT ??_R1A@?0A@EA@CDrawer@@8
rdata$r	SEGMENT
??_R1A@?0A@EA@CDrawer@@8 DD FLAT:??_R0?AVCDrawer@@@8	; CDrawer::`RTTI Base Class Descriptor at (0,-1,0,64)'
	DD	00H
	DD	00H
	DD	0ffffffffH
	DD	00H
	DD	040H
	DD	FLAT:??_R3CDrawer@@8
rdata$r	ENDS
;	COMDAT ??_R2CDrawer@@8
rdata$r	SEGMENT
??_R2CDrawer@@8 DD FLAT:??_R1A@?0A@EA@CDrawer@@8	; CDrawer::`RTTI Base Class Array'
rdata$r	ENDS
;	COMDAT ??_R3CDrawer@@8
rdata$r	SEGMENT
??_R3CDrawer@@8 DD 00H					; CDrawer::`RTTI Class Hierarchy Descriptor'
	DD	00H
	DD	01H
	DD	FLAT:??_R2CDrawer@@8
rdata$r	ENDS
;	COMDAT ??_R0?AVCDrawer@@@8
data$rs	SEGMENT
??_R0?AVCDrawer@@@8 DD FLAT:??_7type_info@@6B@		; CDrawer `RTTI Type Descriptor'
	DD	00H
	DB	'.?AVCDrawer@@', 00H
data$rs	ENDS
;	COMDAT ??_R1A@33FA@CDrawer@@8
rdata$r	SEGMENT
??_R1A@33FA@CDrawer@@8 DD FLAT:??_R0?AVCDrawer@@@8	; CDrawer::`RTTI Base Class Descriptor at (0,4,4,80)'
	DD	00H
	DD	00H
	DD	04H
	DD	04H
	DD	050H
	DD	FLAT:??_R3CDrawer@@8
rdata$r	ENDS
;	COMDAT ??_R1A@?0A@EA@COnePointDrawer@@8
rdata$r	SEGMENT
??_R1A@?0A@EA@COnePointDrawer@@8 DD FLAT:??_R0?AVCOnePointDrawer@@@8 ; COnePointDrawer::`RTTI Base Class Descriptor at (0,-1,0,64)'
	DD	01H
	DD	00H
	DD	0ffffffffH
	DD	00H
	DD	040H
	DD	FLAT:??_R3COnePointDrawer@@8
rdata$r	ENDS
;	COMDAT ??_R2COnePointDrawer@@8
rdata$r	SEGMENT
??_R2COnePointDrawer@@8 DD FLAT:??_R1A@?0A@EA@COnePointDrawer@@8 ; COnePointDrawer::`RTTI Base Class Array'
	DD	FLAT:??_R1A@33FA@CDrawer@@8
rdata$r	ENDS
;	COMDAT ??_R3COnePointDrawer@@8
rdata$r	SEGMENT
??_R3COnePointDrawer@@8 DD 00H				; COnePointDrawer::`RTTI Class Hierarchy Descriptor'
	DD	00H
	DD	02H
	DD	FLAT:??_R2COnePointDrawer@@8
rdata$r	ENDS
;	COMDAT ??_R0?AVCOnePointDrawer@@@8
data$rs	SEGMENT
??_R0?AVCOnePointDrawer@@@8 DD FLAT:??_7type_info@@6B@	; COnePointDrawer `RTTI Type Descriptor'
	DD	00H
	DB	'.?AVCOnePointDrawer@@', 00H
data$rs	ENDS
;	COMDAT ??_R4COnePointDrawer@@6B@
rdata$r	SEGMENT
??_R4COnePointDrawer@@6B@ DD 00H			; COnePointDrawer::`RTTI Complete Object Locator'
	DD	00H
	DD	00H
	DD	FLAT:??_R0?AVCOnePointDrawer@@@8
	DD	FLAT:??_R3COnePointDrawer@@8
rdata$r	ENDS
;	COMDAT ??_7CAdjustRatioTool@@6B@
CONST	SEGMENT
??_7CAdjustRatioTool@@6B@ DD FLAT:??_R4CAdjustRatioTool@@6B@ ; CAdjustRatioTool::`vftable'
	DD	FLAT:?Initialize@CThreePointDownTool@@UAEXXZ
	DD	FLAT:?OnLButtonDown@CThreePointDownTool@@UAEPAVCElement@@PAVCDC@@ABVCPoint@@@Z
	DD	FLAT:?OnLButtonUp@CThreePointDownTool@@UAEXPAVCDC@@ABVCPoint@@@Z
	DD	FLAT:?OnMouseMove@CDownTool@@UAE_NPAVCDC@@ABVCPoint@@H@Z
	DD	FLAT:?OnRButtonUp@CTool@@UAEXPAVCDC@@ABVCPoint@@@Z
	DD	FLAT:?OnDraw@CThreePointDownTool@@UAEXPAVCDC@@@Z
	DD	FLAT:?GetCoordinateCalculator@CTool@@UBEAAVCCoordinateCalculator@@XZ
	DD	FLAT:?PointInDrawingRegion@CTool@@MBE_NABVCPoint@@@Z
	DD	FLAT:?SavePoints@CThreePointDownTool@@MAEXABVCPoints@@@Z
	DD	FLAT:?GetToolType@CAdjustRatioTool@@MBE?AW4TOOLTYPE@CAnalysis@@XZ
	DD	FLAT:?GetTextPosition@CTool@@MAEPAVCTextPosition@@XZ
	DD	FLAT:?GetTextPosition@CTool@@MBEPBVCTextPosition@@XZ
	DD	FLAT:?IsMakeElement@CThreePointDownTool@@MBE_NABVCPoint@@@Z
	DD	FLAT:?MakeElement@CThreePointDownTool@@MAEPAVCElement@@ABVCElementCommonEnvironment@@@Z
	DD	FLAT:?GetAnalysisData@CTool@@MBEPAVCAnalysisData@@XZ
	DD	FLAT:?GetThreePointDrawer@CAdjustRatioTool@@MAEAAVCThreePointDrawer@@XZ
CONST	ENDS
;	COMDAT ??_7CElliotLineTool@@6B@
CONST	SEGMENT
??_7CElliotLineTool@@6B@ DD FLAT:??_R4CElliotLineTool@@6B@ ; CElliotLineTool::`vftable'
	DD	FLAT:?Initialize@CDownTool@@UAEXXZ
	DD	FLAT:?OnLButtonDown@CTwoPointDownTool@@UAEPAVCElement@@PAVCDC@@ABVCPoint@@@Z
	DD	FLAT:?OnLButtonUp@COneOrTwoPointTool@@UAEXPAVCDC@@ABVCPoint@@@Z
	DD	FLAT:?OnMouseMove@COneOrTwoPointTool@@UAE_NPAVCDC@@ABVCPoint@@H@Z
	DD	FLAT:?OnRButtonUp@CTool@@UAEXPAVCDC@@ABVCPoint@@@Z
	DD	FLAT:?OnDraw@COneOrTwoPointTool@@UAEXPAVCDC@@@Z
	DD	FLAT:?GetCoordinateCalculator@CTool@@UBEAAVCCoordinateCalculator@@XZ
	DD	FLAT:?PointInDrawingRegion@CTwoPointDownTool@@MBE_NABVCPoint@@@Z
	DD	FLAT:?SavePoints@COneOrTwoPointTool@@MAEXABVCPoints@@@Z
	DD	FLAT:?GetToolType@CElliotLineTool@@MBE?AW4TOOLTYPE@CAnalysis@@XZ
	DD	FLAT:?GetTextPosition@CTool@@MAEPAVCTextPosition@@XZ
	DD	FLAT:?GetTextPosition@CTool@@MBEPBVCTextPosition@@XZ
	DD	FLAT:?IsMakeElement@CTwoPointDownTool@@MBE_NABVCPoint@@@Z
	DD	FLAT:?MakeElement@CTwoPointDownTool@@MAEPAVCElement@@ABVCElementCommonEnvironment@@@Z
	DD	FLAT:?GetAnalysisData@CTool@@MBEPAVCAnalysisData@@XZ
	DD	FLAT:?MouseMove@CTwoPointDownTool@@MAE_NPAVCDC@@ABVCPoint@@@Z
	DD	FLAT:?Draw_UpPoint@CTwoPointDownTool@@MAEXPAVCDC@@@Z
	DD	FLAT:?GetTwoPointDrawer@CElliotLineTool@@MAEAAVCTwoPointDrawer@@XZ
CONST	ENDS
;	COMDAT ??_7CPeriodSumLineTool@@6B@
CONST	SEGMENT
??_7CPeriodSumLineTool@@6B@ DD FLAT:??_R4CPeriodSumLineTool@@6B@ ; CPeriodSumLineTool::`vftable'
	DD	FLAT:?Initialize@CDownTool@@UAEXXZ
	DD	FLAT:?OnLButtonDown@CTwoPointDownTool@@UAEPAVCElement@@PAVCDC@@ABVCPoint@@@Z
	DD	FLAT:?OnLButtonUp@COneOrTwoPointTool@@UAEXPAVCDC@@ABVCPoint@@@Z
	DD	FLAT:?OnMouseMove@COneOrTwoPointTool@@UAE_NPAVCDC@@ABVCPoint@@H@Z
	DD	FLAT:?OnRButtonUp@CTool@@UAEXPAVCDC@@ABVCPoint@@@Z
	DD	FLAT:?OnDraw@COneOrTwoPointTool@@UAEXPAVCDC@@@Z
	DD	FLAT:?GetCoordinateCalculator@CTool@@UBEAAVCCoordinateCalculator@@XZ
	DD	FLAT:?PointInDrawingRegion@CTwoPointDownTool@@MBE_NABVCPoint@@@Z
	DD	FLAT:?SavePoints@COneOrTwoPointTool@@MAEXABVCPoints@@@Z
	DD	FLAT:?GetToolType@CPeriodSumLineTool@@MBE?AW4TOOLTYPE@CAnalysis@@XZ
	DD	FLAT:?GetTextPosition@CPeriodSumLineTool@@MAEPAVCTextPosition@@XZ
	DD	FLAT:?GetTextPosition@CPeriodSumLineTool@@MBEPBVCTextPosition@@XZ
	DD	FLAT:?IsMakeElement@CTwoPointDownTool@@MBE_NABVCPoint@@@Z
	DD	FLAT:?MakeElement@CTwoPointDownTool@@MAEPAVCElement@@ABVCElementCommonEnvironment@@@Z
	DD	FLAT:?GetAnalysisData@CTool@@MBEPAVCAnalysisData@@XZ
	DD	FLAT:?MouseMove@CTwoPointDownTool@@MAE_NPAVCDC@@ABVCPoint@@@Z
	DD	FLAT:?Draw_UpPoint@CTwoPointDownTool@@MAEXPAVCDC@@@Z
	DD	FLAT:?GetTwoPointDrawer@CPeriodSumLineTool@@MAEAAVCTwoPointDrawer@@XZ
CONST	ENDS
;	COMDAT ??_7CPencilLineTool@@6B@
CONST	SEGMENT
??_7CPencilLineTool@@6B@ DD FLAT:??_R4CPencilLineTool@@6B@ ; CPencilLineTool::`vftable'
	DD	FLAT:?Initialize@CMultiPointDownTool@@UAEXXZ
	DD	FLAT:?OnLButtonDown@CMultiPointDownTool@@UAEPAVCElement@@PAVCDC@@ABVCPoint@@@Z
	DD	FLAT:?OnLButtonUp@CMultiPointDownTool@@UAEXPAVCDC@@ABVCPoint@@@Z
	DD	FLAT:?OnMouseMove@CMultiPointDownTool@@UAE_NPAVCDC@@ABVCPoint@@H@Z
	DD	FLAT:?OnRButtonUp@CTool@@UAEXPAVCDC@@ABVCPoint@@@Z
	DD	FLAT:?OnDraw@CMultiPointDownTool@@UAEXPAVCDC@@@Z
	DD	FLAT:?GetCoordinateCalculator@CTool@@UBEAAVCCoordinateCalculator@@XZ
	DD	FLAT:?PointInDrawingRegion@CTool@@MBE_NABVCPoint@@@Z
	DD	FLAT:?SavePoints@CMultiPointDownTool@@MAEXABVCPoints@@@Z
	DD	FLAT:?GetToolType@CPencilLineTool@@MBE?AW4TOOLTYPE@CAnalysis@@XZ
	DD	FLAT:?GetTextPosition@CTool@@MAEPAVCTextPosition@@XZ
	DD	FLAT:?GetTextPosition@CTool@@MBEPBVCTextPosition@@XZ
	DD	FLAT:?IsMakeElement@CMultiPointDownTool@@MBE_NABVCPoint@@@Z
	DD	FLAT:?MakeElement@CMultiPointDownTool@@MAEPAVCElement@@ABVCElementCommonEnvironment@@@Z
	DD	FLAT:?GetAnalysisData@CTool@@MBEPAVCAnalysisData@@XZ
	DD	FLAT:?GetMultiPointDrawer@CPencilLineTool@@MAEAAVCMultiPointDrawer@@XZ
CONST	ENDS
;	COMDAT ??_7CCandleBongTool@@6B@
CONST	SEGMENT
??_7CCandleBongTool@@6B@ DD FLAT:??_R4CCandleBongTool@@6B@ ; CCandleBongTool::`vftable'
	DD	FLAT:?Initialize@CDownTool@@UAEXXZ
	DD	FLAT:?OnLButtonDown@CTwoPointDownTool@@UAEPAVCElement@@PAVCDC@@ABVCPoint@@@Z
	DD	FLAT:?OnLButtonUp@COneOrTwoPointTool@@UAEXPAVCDC@@ABVCPoint@@@Z
	DD	FLAT:?OnMouseMove@COneOrTwoPointTool@@UAE_NPAVCDC@@ABVCPoint@@H@Z
	DD	FLAT:?OnRButtonUp@CTool@@UAEXPAVCDC@@ABVCPoint@@@Z
	DD	FLAT:?OnDraw@COneOrTwoPointTool@@UAEXPAVCDC@@@Z
	DD	FLAT:?GetCoordinateCalculator@CTool@@UBEAAVCCoordinateCalculator@@XZ
	DD	FLAT:?PointInDrawingRegion@CTwoPointDownTool@@MBE_NABVCPoint@@@Z
	DD	FLAT:?SavePoints@COneOrTwoPointTool@@MAEXABVCPoints@@@Z
	DD	FLAT:?GetToolType@CCandleBongTool@@MBE?AW4TOOLTYPE@CAnalysis@@XZ
	DD	FLAT:?GetTextPosition@CTool@@MAEPAVCTextPosition@@XZ
	DD	FLAT:?GetTextPosition@CTool@@MBEPBVCTextPosition@@XZ
	DD	FLAT:?IsMakeElement@CTwoPointDownTool@@MBE_NABVCPoint@@@Z
	DD	FLAT:?MakeElement@CTwoPointDownTool@@MAEPAVCElement@@ABVCElementCommonEnvironment@@@Z
	DD	FLAT:?GetAnalysisData@CTool@@MBEPAVCAnalysisData@@XZ
	DD	FLAT:?MouseMove@CTwoPointDownTool@@MAE_NPAVCDC@@ABVCPoint@@@Z
	DD	FLAT:?Draw_UpPoint@CTwoPointDownTool@@MAEXPAVCDC@@@Z
	DD	FLAT:?GetTwoPointDrawer@CCandleBongTool@@MAEAAVCTwoPointDrawer@@XZ
CONST	ENDS
;	COMDAT ??_7CCandleLineTool@@6B@
CONST	SEGMENT
??_7CCandleLineTool@@6B@ DD FLAT:??_R4CCandleLineTool@@6B@ ; CCandleLineTool::`vftable'
	DD	FLAT:?Initialize@CMoveTool@@UAEXXZ
	DD	FLAT:?OnLButtonDown@CMoveTool@@UAEPAVCElement@@PAVCDC@@ABVCPoint@@@Z
	DD	FLAT:?OnLButtonUp@CMoveTool@@UAEXPAVCDC@@ABVCPoint@@@Z
	DD	FLAT:?OnMouseMove@CMoveTool@@UAE_NPAVCDC@@ABVCPoint@@H@Z
	DD	FLAT:?OnRButtonUp@CTool@@UAEXPAVCDC@@ABVCPoint@@@Z
	DD	FLAT:?OnDraw@CMoveTool@@UAEXPAVCDC@@@Z
	DD	FLAT:?GetCoordinateCalculator@CTool@@UBEAAVCCoordinateCalculator@@XZ
	DD	FLAT:?PointInDrawingRegion@CMoveTool@@MBE_NABVCPoint@@@Z
	DD	FLAT:?SavePoints@CMoveTool@@MAEXABVCPoints@@@Z
	DD	FLAT:?GetToolType@CCandleLineTool@@MBE?AW4TOOLTYPE@CAnalysis@@XZ
	DD	FLAT:?GetTextPosition@CCandleLineTool@@MAEPAVCTextPosition@@XZ
	DD	FLAT:?GetTextPosition@CCandleLineTool@@MBEPBVCTextPosition@@XZ
	DD	FLAT:?IsMakeElement@CTool@@MBE_NABVCPoint@@@Z
	DD	FLAT:?MakeElement@COnePointMoveTool@@MAEPAVCElement@@ABVCElementCommonEnvironment@@@Z
	DD	FLAT:?GetAnalysisData@CTool@@MBEPAVCAnalysisData@@XZ
	DD	FLAT:?DrawTool@COnePointMoveTool@@MAEXPAVCDC@@@Z
	DD	FLAT:?GetOnePointDrawer@CCandleLineTool@@MAEAAVCOnePointDrawer@@XZ
CONST	ENDS
;	COMDAT ??_7CAngleLineTool@@6B@
CONST	SEGMENT
??_7CAngleLineTool@@6B@ DD FLAT:??_R4CAngleLineTool@@6B@ ; CAngleLineTool::`vftable'
	DD	FLAT:?Initialize@CDownTool@@UAEXXZ
	DD	FLAT:?OnLButtonDown@CTwoPointDownTool@@UAEPAVCElement@@PAVCDC@@ABVCPoint@@@Z
	DD	FLAT:?OnLButtonUp@COneOrTwoPointTool@@UAEXPAVCDC@@ABVCPoint@@@Z
	DD	FLAT:?OnMouseMove@COneOrTwoPointTool@@UAE_NPAVCDC@@ABVCPoint@@H@Z
	DD	FLAT:?OnRButtonUp@CTool@@UAEXPAVCDC@@ABVCPoint@@@Z
	DD	FLAT:?OnDraw@COneOrTwoPointTool@@UAEXPAVCDC@@@Z
	DD	FLAT:?GetCoordinateCalculator@CTool@@UBEAAVCCoordinateCalculator@@XZ
	DD	FLAT:?PointInDrawingRegion@CTwoPointDownTool@@MBE_NABVCPoint@@@Z
	DD	FLAT:?SavePoints@COneOrTwoPointTool@@MAEXABVCPoints@@@Z
	DD	FLAT:?GetToolType@CAngleLineTool@@MBE?AW4TOOLTYPE@CAnalysis@@XZ
	DD	FLAT:?GetTextPosition@CAngleLineTool@@MAEPAVCTextPosition@@XZ
	DD	FLAT:?GetTextPosition@CAngleLineTool@@MBEPBVCTextPosition@@XZ
	DD	FLAT:?IsMakeElement@CTwoPointDownTool@@MBE_NABVCPoint@@@Z
	DD	FLAT:?MakeElement@CTwoPointDownTool@@MAEPAVCElement@@ABVCElementCommonEnvironment@@@Z
	DD	FLAT:?GetAnalysisData@CTool@@MBEPAVCAnalysisData@@XZ
	DD	FLAT:?MouseMove@CTwoPointDownTool@@MAE_NPAVCDC@@ABVCPoint@@@Z
	DD	FLAT:?Draw_UpPoint@CTwoPointDownTool@@MAEXPAVCDC@@@Z
	DD	FLAT:?GetTwoPointDrawer@CAngleLineTool@@MAEAAVCTwoPointDrawer@@XZ
CONST	ENDS
;	COMDAT ??_7CRaffRegressionTool@@6B@
CONST	SEGMENT
??_7CRaffRegressionTool@@6B@ DD FLAT:??_R4CRaffRegressionTool@@6B@ ; CRaffRegressionTool::`vftable'
	DD	FLAT:?Initialize@CDownTool@@UAEXXZ
	DD	FLAT:?OnLButtonDown@CTwoPointDownTool@@UAEPAVCElement@@PAVCDC@@ABVCPoint@@@Z
	DD	FLAT:?OnLButtonUp@COneOrTwoPointTool@@UAEXPAVCDC@@ABVCPoint@@@Z
	DD	FLAT:?OnMouseMove@COneOrTwoPointTool@@UAE_NPAVCDC@@ABVCPoint@@H@Z
	DD	FLAT:?OnRButtonUp@CTool@@UAEXPAVCDC@@ABVCPoint@@@Z
	DD	FLAT:?OnDraw@COneOrTwoPointTool@@UAEXPAVCDC@@@Z
	DD	FLAT:?GetCoordinateCalculator@CTool@@UBEAAVCCoordinateCalculator@@XZ
	DD	FLAT:?PointInDrawingRegion@CTwoPointDownTool@@MBE_NABVCPoint@@@Z
	DD	FLAT:?SavePoints@COneOrTwoPointTool@@MAEXABVCPoints@@@Z
	DD	FLAT:?GetToolType@CRaffRegressionTool@@MBE?AW4TOOLTYPE@CAnalysis@@XZ
	DD	FLAT:?GetTextPosition@CTool@@MAEPAVCTextPosition@@XZ
	DD	FLAT:?GetTextPosition@CTool@@MBEPBVCTextPosition@@XZ
	DD	FLAT:?IsMakeElement@CTwoPointDownTool@@MBE_NABVCPoint@@@Z
	DD	FLAT:?MakeElement@CTwoPointDownTool@@MAEPAVCElement@@ABVCElementCommonEnvironment@@@Z
	DD	FLAT:?GetAnalysisData@CTool@@MBEPAVCAnalysisData@@XZ
	DD	FLAT:?MouseMove@CTwoPointDownTool@@MAE_NPAVCDC@@ABVCPoint@@@Z
	DD	FLAT:?Draw_UpPoint@CTwoPointDownTool@@MAEXPAVCDC@@@Z
	DD	FLAT:?GetTwoPointDrawer@CRaffRegressionTool@@MAEAAVCTwoPointDrawer@@XZ
CONST	ENDS
;	COMDAT ??_7CLinearRegressionTool@@6B@
CONST	SEGMENT
??_7CLinearRegressionTool@@6B@ DD FLAT:??_R4CLinearRegressionTool@@6B@ ; CLinearRegressionTool::`vftable'
	DD	FLAT:?Initialize@CDownTool@@UAEXXZ
	DD	FLAT:?OnLButtonDown@CTwoPointDownTool@@UAEPAVCElement@@PAVCDC@@ABVCPoint@@@Z
	DD	FLAT:?OnLButtonUp@COneOrTwoPointTool@@UAEXPAVCDC@@ABVCPoint@@@Z
	DD	FLAT:?OnMouseMove@COneOrTwoPointTool@@UAE_NPAVCDC@@ABVCPoint@@H@Z
	DD	FLAT:?OnRButtonUp@CTool@@UAEXPAVCDC@@ABVCPoint@@@Z
	DD	FLAT:?OnDraw@COneOrTwoPointTool@@UAEXPAVCDC@@@Z
	DD	FLAT:?GetCoordinateCalculator@CTool@@UBEAAVCCoordinateCalculator@@XZ
	DD	FLAT:?PointInDrawingRegion@CTwoPointDownTool@@MBE_NABVCPoint@@@Z
	DD	FLAT:?SavePoints@COneOrTwoPointTool@@MAEXABVCPoints@@@Z
	DD	FLAT:?GetToolType@CLinearRegressionTool@@MBE?AW4TOOLTYPE@CAnalysis@@XZ
	DD	FLAT:?GetTextPosition@CTool@@MAEPAVCTextPosition@@XZ
	DD	FLAT:?GetTextPosition@CTool@@MBEPBVCTextPosition@@XZ
	DD	FLAT:?IsMakeElement@CTwoPointDownTool@@MBE_NABVCPoint@@@Z
	DD	FLAT:?MakeElement@CTwoPointDownTool@@MAEPAVCElement@@ABVCElementCommonEnvironment@@@Z
	DD	FLAT:?GetAnalysisData@CTool@@MBEPAVCAnalysisData@@XZ
	DD	FLAT:?MouseMove@CTwoPointDownTool@@MAE_NPAVCDC@@ABVCPoint@@@Z
	DD	FLAT:?Draw_UpPoint@CTwoPointDownTool@@MAEXPAVCDC@@@Z
	DD	FLAT:?GetTwoPointDrawer@CLinearRegressionTool@@MAEAAVCTwoPointDrawer@@XZ
CONST	ENDS
;	COMDAT ??_7CSpeedArcTool@@6B@
CONST	SEGMENT
??_7CSpeedArcTool@@6B@ DD FLAT:??_R4CSpeedArcTool@@6B@	; CSpeedArcTool::`vftable'
	DD	FLAT:?Initialize@CDownTool@@UAEXXZ
	DD	FLAT:?OnLButtonDown@CTwoPointDownTool@@UAEPAVCElement@@PAVCDC@@ABVCPoint@@@Z
	DD	FLAT:?OnLButtonUp@COneOrTwoPointTool@@UAEXPAVCDC@@ABVCPoint@@@Z
	DD	FLAT:?OnMouseMove@COneOrTwoPointTool@@UAE_NPAVCDC@@ABVCPoint@@H@Z
	DD	FLAT:?OnRButtonUp@CTool@@UAEXPAVCDC@@ABVCPoint@@@Z
	DD	FLAT:?OnDraw@COneOrTwoPointTool@@UAEXPAVCDC@@@Z
	DD	FLAT:?GetCoordinateCalculator@CTool@@UBEAAVCCoordinateCalculator@@XZ
	DD	FLAT:?PointInDrawingRegion@CTwoPointDownTool@@MBE_NABVCPoint@@@Z
	DD	FLAT:?SavePoints@COneOrTwoPointTool@@MAEXABVCPoints@@@Z
	DD	FLAT:?GetToolType@CSpeedArcTool@@MBE?AW4TOOLTYPE@CAnalysis@@XZ
	DD	FLAT:?GetTextPosition@CTool@@MAEPAVCTextPosition@@XZ
	DD	FLAT:?GetTextPosition@CTool@@MBEPBVCTextPosition@@XZ
	DD	FLAT:?IsMakeElement@CTwoPointDownTool@@MBE_NABVCPoint@@@Z
	DD	FLAT:?MakeElement@CTwoPointDownTool@@MAEPAVCElement@@ABVCElementCommonEnvironment@@@Z
	DD	FLAT:?GetAnalysisData@CTool@@MBEPAVCAnalysisData@@XZ
	DD	FLAT:?MouseMove@CTwoPointDownTool@@MAE_NPAVCDC@@ABVCPoint@@@Z
	DD	FLAT:?Draw_UpPoint@CTwoPointDownTool@@MAEXPAVCDC@@@Z
	DD	FLAT:?GetTwoPointDrawer@CSpeedArcTool@@MAEAAVCTwoPointDrawer@@XZ
CONST	ENDS
;	COMDAT ??_7CSpeedFanTool@@6B@
CONST	SEGMENT
??_7CSpeedFanTool@@6B@ DD FLAT:??_R4CSpeedFanTool@@6B@	; CSpeedFanTool::`vftable'
	DD	FLAT:?Initialize@CDownTool@@UAEXXZ
	DD	FLAT:?OnLButtonDown@CTwoPointDownTool@@UAEPAVCElement@@PAVCDC@@ABVCPoint@@@Z
	DD	FLAT:?OnLButtonUp@COneOrTwoPointTool@@UAEXPAVCDC@@ABVCPoint@@@Z
	DD	FLAT:?OnMouseMove@COneOrTwoPointTool@@UAE_NPAVCDC@@ABVCPoint@@H@Z
	DD	FLAT:?OnRButtonUp@CTool@@UAEXPAVCDC@@ABVCPoint@@@Z
	DD	FLAT:?OnDraw@COneOrTwoPointTool@@UAEXPAVCDC@@@Z
	DD	FLAT:?GetCoordinateCalculator@CTool@@UBEAAVCCoordinateCalculator@@XZ
	DD	FLAT:?PointInDrawingRegion@CTwoPointDownTool@@MBE_NABVCPoint@@@Z
	DD	FLAT:?SavePoints@COneOrTwoPointTool@@MAEXABVCPoints@@@Z
	DD	FLAT:?GetToolType@CSpeedFanTool@@MBE?AW4TOOLTYPE@CAnalysis@@XZ
	DD	FLAT:?GetTextPosition@CTool@@MAEPAVCTextPosition@@XZ
	DD	FLAT:?GetTextPosition@CTool@@MBEPBVCTextPosition@@XZ
	DD	FLAT:?IsMakeElement@CTwoPointDownTool@@MBE_NABVCPoint@@@Z
	DD	FLAT:?MakeElement@CTwoPointDownTool@@MAEPAVCElement@@ABVCElementCommonEnvironment@@@Z
	DD	FLAT:?GetAnalysisData@CTool@@MBEPAVCAnalysisData@@XZ
	DD	FLAT:?MouseMove@CTwoPointDownTool@@MAE_NPAVCDC@@ABVCPoint@@@Z
	DD	FLAT:?Draw_UpPoint@CTwoPointDownTool@@MAEXPAVCDC@@@Z
	DD	FLAT:?GetTwoPointDrawer@CSpeedFanTool@@MAEAAVCTwoPointDrawer@@XZ
CONST	ENDS
;	COMDAT ??_7CSpeedLineTool@@6B@
CONST	SEGMENT
??_7CSpeedLineTool@@6B@ DD FLAT:??_R4CSpeedLineTool@@6B@ ; CSpeedLineTool::`vftable'
	DD	FLAT:?Initialize@CDownTool@@UAEXXZ
	DD	FLAT:?OnLButtonDown@CTwoPointDownTool@@UAEPAVCElement@@PAVCDC@@ABVCPoint@@@Z
	DD	FLAT:?OnLButtonUp@COneOrTwoPointTool@@UAEXPAVCDC@@ABVCPoint@@@Z
	DD	FLAT:?OnMouseMove@COneOrTwoPointTool@@UAE_NPAVCDC@@ABVCPoint@@H@Z
	DD	FLAT:?OnRButtonUp@CTool@@UAEXPAVCDC@@ABVCPoint@@@Z
	DD	FLAT:?OnDraw@COneOrTwoPointTool@@UAEXPAVCDC@@@Z
	DD	FLAT:?GetCoordinateCalculator@CTool@@UBEAAVCCoordinateCalculator@@XZ
	DD	FLAT:?PointInDrawingRegion@CTwoPointDownTool@@MBE_NABVCPoint@@@Z
	DD	FLAT:?SavePoints@COneOrTwoPointTool@@MAEXABVCPoints@@@Z
	DD	FLAT:?GetToolType@CSpeedLineTool@@MBE?AW4TOOLTYPE@CAnalysis@@XZ
	DD	FLAT:?GetTextPosition@CTool@@MAEPAVCTextPosition@@XZ
	DD	FLAT:?GetTextPosition@CTool@@MBEPBVCTextPosition@@XZ
	DD	FLAT:?IsMakeElement@CTwoPointDownTool@@MBE_NABVCPoint@@@Z
	DD	FLAT:?MakeElement@CTwoPointDownTool@@MAEPAVCElement@@ABVCElementCommonEnvironment@@@Z
	DD	FLAT:?GetAnalysisData@CTool@@MBEPAVCAnalysisData@@XZ
	DD	FLAT:?MouseMove@CTwoPointDownTool@@MAE_NPAVCDC@@ABVCPoint@@@Z
	DD	FLAT:?Draw_UpPoint@CTwoPointDownTool@@MAEXPAVCDC@@@Z
	DD	FLAT:?GetTwoPointDrawer@CSpeedLineTool@@MAEAAVCTwoPointDrawer@@XZ
CONST	ENDS
;	COMDAT ??_7CCycleLinesTool@@6B@
CONST	SEGMENT
??_7CCycleLinesTool@@6B@ DD FLAT:??_R4CCycleLinesTool@@6B@ ; CCycleLinesTool::`vftable'
	DD	FLAT:?Initialize@CDownTool@@UAEXXZ
	DD	FLAT:?OnLButtonDown@CTwoPointDownTool@@UAEPAVCElement@@PAVCDC@@ABVCPoint@@@Z
	DD	FLAT:?OnLButtonUp@COneOrTwoPointTool@@UAEXPAVCDC@@ABVCPoint@@@Z
	DD	FLAT:?OnMouseMove@COneOrTwoPointTool@@UAE_NPAVCDC@@ABVCPoint@@H@Z
	DD	FLAT:?OnRButtonUp@CTool@@UAEXPAVCDC@@ABVCPoint@@@Z
	DD	FLAT:?OnDraw@COneOrTwoPointTool@@UAEXPAVCDC@@@Z
	DD	FLAT:?GetCoordinateCalculator@CTool@@UBEAAVCCoordinateCalculator@@XZ
	DD	FLAT:?PointInDrawingRegion@CTwoPointDownTool@@MBE_NABVCPoint@@@Z
	DD	FLAT:?SavePoints@COneOrTwoPointTool@@MAEXABVCPoints@@@Z
	DD	FLAT:?GetToolType@CCycleLinesTool@@MBE?AW4TOOLTYPE@CAnalysis@@XZ
	DD	FLAT:?GetTextPosition@CTool@@MAEPAVCTextPosition@@XZ
	DD	FLAT:?GetTextPosition@CTool@@MBEPBVCTextPosition@@XZ
	DD	FLAT:?IsMakeElement@CTwoPointDownTool@@MBE_NABVCPoint@@@Z
	DD	FLAT:?MakeElement@CTwoPointDownTool@@MAEPAVCElement@@ABVCElementCommonEnvironment@@@Z
	DD	FLAT:?GetAnalysisData@CTool@@MBEPAVCAnalysisData@@XZ
	DD	FLAT:?MouseMove@CTwoPointDownTool@@MAE_NPAVCDC@@ABVCPoint@@@Z
	DD	FLAT:?Draw_UpPoint@CTwoPointDownTool@@MAEXPAVCDC@@@Z
	DD	FLAT:?GetTwoPointDrawer@CCycleLinesTool@@MAEAAVCTwoPointDrawer@@XZ
CONST	ENDS
;	COMDAT ??_7CAndrewsPitchforkTool@@6B@
CONST	SEGMENT
??_7CAndrewsPitchforkTool@@6B@ DD FLAT:??_R4CAndrewsPitchforkTool@@6B@ ; CAndrewsPitchforkTool::`vftable'
	DD	FLAT:?Initialize@CThreePointDownTool@@UAEXXZ
	DD	FLAT:?OnLButtonDown@CThreePointDownTool@@UAEPAVCElement@@PAVCDC@@ABVCPoint@@@Z
	DD	FLAT:?OnLButtonUp@CThreePointDownTool@@UAEXPAVCDC@@ABVCPoint@@@Z
	DD	FLAT:?OnMouseMove@CDownTool@@UAE_NPAVCDC@@ABVCPoint@@H@Z
	DD	FLAT:?OnRButtonUp@CTool@@UAEXPAVCDC@@ABVCPoint@@@Z
	DD	FLAT:?OnDraw@CThreePointDownTool@@UAEXPAVCDC@@@Z
	DD	FLAT:?GetCoordinateCalculator@CTool@@UBEAAVCCoordinateCalculator@@XZ
	DD	FLAT:?PointInDrawingRegion@CTool@@MBE_NABVCPoint@@@Z
	DD	FLAT:?SavePoints@CThreePointDownTool@@MAEXABVCPoints@@@Z
	DD	FLAT:?GetToolType@CAndrewsPitchforkTool@@MBE?AW4TOOLTYPE@CAnalysis@@XZ
	DD	FLAT:?GetTextPosition@CTool@@MAEPAVCTextPosition@@XZ
	DD	FLAT:?GetTextPosition@CTool@@MBEPBVCTextPosition@@XZ
	DD	FLAT:?IsMakeElement@CThreePointDownTool@@MBE_NABVCPoint@@@Z
	DD	FLAT:?MakeElement@CThreePointDownTool@@MAEPAVCElement@@ABVCElementCommonEnvironment@@@Z
	DD	FLAT:?GetAnalysisData@CTool@@MBEPAVCAnalysisData@@XZ
	DD	FLAT:?GetThreePointDrawer@CAndrewsPitchforkTool@@MAEAAVCThreePointDrawer@@XZ
CONST	ENDS
;	COMDAT ??_7CQuadrisectLineTool@@6B@
CONST	SEGMENT
??_7CQuadrisectLineTool@@6B@ DD FLAT:??_R4CQuadrisectLineTool@@6B@ ; CQuadrisectLineTool::`vftable'
	DD	FLAT:?Initialize@CDownTool@@UAEXXZ
	DD	FLAT:?OnLButtonDown@CTwoPointDownTool@@UAEPAVCElement@@PAVCDC@@ABVCPoint@@@Z
	DD	FLAT:?OnLButtonUp@COneOrTwoPointTool@@UAEXPAVCDC@@ABVCPoint@@@Z
	DD	FLAT:?OnMouseMove@COneOrTwoPointTool@@UAE_NPAVCDC@@ABVCPoint@@H@Z
	DD	FLAT:?OnRButtonUp@CTool@@UAEXPAVCDC@@ABVCPoint@@@Z
	DD	FLAT:?OnDraw@COneOrTwoPointTool@@UAEXPAVCDC@@@Z
	DD	FLAT:?GetCoordinateCalculator@CTool@@UBEAAVCCoordinateCalculator@@XZ
	DD	FLAT:?PointInDrawingRegion@CTwoPointDownTool@@MBE_NABVCPoint@@@Z
	DD	FLAT:?SavePoints@COneOrTwoPointTool@@MAEXABVCPoints@@@Z
	DD	FLAT:?GetToolType@CQuadrisectLineTool@@MBE?AW4TOOLTYPE@CAnalysis@@XZ
	DD	FLAT:?GetTextPosition@CQuadrisectLineTool@@MAEPAVCTextPosition@@XZ
	DD	FLAT:?GetTextPosition@CQuadrisectLineTool@@MBEPBVCTextPosition@@XZ
	DD	FLAT:?IsMakeElement@CTwoPointDownTool@@MBE_NABVCPoint@@@Z
	DD	FLAT:?MakeElement@CTwoPointDownTool@@MAEPAVCElement@@ABVCElementCommonEnvironment@@@Z
	DD	FLAT:?GetAnalysisData@CTool@@MBEPAVCAnalysisData@@XZ
	DD	FLAT:?MouseMove@CTwoPointDownTool@@MAE_NPAVCDC@@ABVCPoint@@@Z
	DD	FLAT:?Draw_UpPoint@CTwoPointDownTool@@MAEXPAVCDC@@@Z
	DD	FLAT:?GetTwoPointDrawer@CQuadrisectLineTool@@MAEAAVCTwoPointDrawer@@XZ
CONST	ENDS
;	COMDAT ??_7CTrisectionLineTool@@6B@
CONST	SEGMENT
??_7CTrisectionLineTool@@6B@ DD FLAT:??_R4CTrisectionLineTool@@6B@ ; CTrisectionLineTool::`vftable'
	DD	FLAT:?Initialize@CDownTool@@UAEXXZ
	DD	FLAT:?OnLButtonDown@CTwoPointDownTool@@UAEPAVCElement@@PAVCDC@@ABVCPoint@@@Z
	DD	FLAT:?OnLButtonUp@COneOrTwoPointTool@@UAEXPAVCDC@@ABVCPoint@@@Z
	DD	FLAT:?OnMouseMove@COneOrTwoPointTool@@UAE_NPAVCDC@@ABVCPoint@@H@Z
	DD	FLAT:?OnRButtonUp@CTool@@UAEXPAVCDC@@ABVCPoint@@@Z
	DD	FLAT:?OnDraw@COneOrTwoPointTool@@UAEXPAVCDC@@@Z
	DD	FLAT:?GetCoordinateCalculator@CTool@@UBEAAVCCoordinateCalculator@@XZ
	DD	FLAT:?PointInDrawingRegion@CTwoPointDownTool@@MBE_NABVCPoint@@@Z
	DD	FLAT:?SavePoints@COneOrTwoPointTool@@MAEXABVCPoints@@@Z
	DD	FLAT:?GetToolType@CTrisectionLineTool@@MBE?AW4TOOLTYPE@CAnalysis@@XZ
	DD	FLAT:?GetTextPosition@CTrisectionLineTool@@MAEPAVCTextPosition@@XZ
	DD	FLAT:?GetTextPosition@CTrisectionLineTool@@MBEPBVCTextPosition@@XZ
	DD	FLAT:?IsMakeElement@CTwoPointDownTool@@MBE_NABVCPoint@@@Z
	DD	FLAT:?MakeElement@CTwoPointDownTool@@MAEPAVCElement@@ABVCElementCommonEnvironment@@@Z
	DD	FLAT:?GetAnalysisData@CTool@@MBEPAVCAnalysisData@@XZ
	DD	FLAT:?MouseMove@CTwoPointDownTool@@MAE_NPAVCDC@@ABVCPoint@@@Z
	DD	FLAT:?Draw_UpPoint@CTwoPointDownTool@@MAEXPAVCDC@@@Z
	DD	FLAT:?GetTwoPointDrawer@CTrisectionLineTool@@MAEAAVCTwoPointDrawer@@XZ
CONST	ENDS
;	COMDAT ??_7CCrossLineDownTool@@6B@
CONST	SEGMENT
??_7CCrossLineDownTool@@6B@ DD FLAT:??_R4CCrossLineDownTool@@6B@ ; CCrossLineDownTool::`vftable'
	DD	FLAT:?Initialize@CDownTool@@UAEXXZ
	DD	FLAT:?OnLButtonDown@COnePointDownTool@@UAEPAVCElement@@PAVCDC@@ABVCPoint@@@Z
	DD	FLAT:?OnLButtonUp@CCrossLineDownTool@@UAEXPAVCDC@@ABVCPoint@@@Z
	DD	FLAT:?OnMouseMove@COnePointDownTool@@UAE_NPAVCDC@@ABVCPoint@@H@Z
	DD	FLAT:?OnRButtonUp@CTool@@UAEXPAVCDC@@ABVCPoint@@@Z
	DD	FLAT:?OnDraw@COnePointDownTool@@UAEXPAVCDC@@@Z
	DD	FLAT:?GetCoordinateCalculator@CTool@@UBEAAVCCoordinateCalculator@@XZ
	DD	FLAT:?PointInDrawingRegion@COnePointDownTool@@MBE_NABVCPoint@@@Z
	DD	FLAT:?SavePoints@COneOrTwoPointTool@@MAEXABVCPoints@@@Z
	DD	FLAT:?GetToolType@CCrossLineDownTool@@MBE?AW4TOOLTYPE@CAnalysis@@XZ
	DD	FLAT:?GetTextPosition@CCrossLineDownTool@@MAEPAVCTextPosition@@XZ
	DD	FLAT:?GetTextPosition@CCrossLineDownTool@@MBEPBVCTextPosition@@XZ
	DD	FLAT:?IsMakeElement@CTool@@MBE_NABVCPoint@@@Z
	DD	FLAT:?MakeElement@COnePointDownTool@@MAEPAVCElement@@ABVCElementCommonEnvironment@@@Z
	DD	FLAT:?GetAnalysisData@CTool@@MBEPAVCAnalysisData@@XZ
	DD	FLAT:?MouseMove@COnePointDownTool@@MAE_NPAVCDC@@ABVCPoint@@@Z
	DD	FLAT:?Draw_UpPoint@COnePointDownTool@@MAEXPAVCDC@@@Z
	DD	FLAT:?GetOnePointDrawer@CCrossLineDownTool@@MAEAAVCOnePointDrawer@@XZ
CONST	ENDS
;	COMDAT ??_7CCrossLineMoveTool@@6B@
CONST	SEGMENT
??_7CCrossLineMoveTool@@6B@ DD FLAT:??_R4CCrossLineMoveTool@@6B@ ; CCrossLineMoveTool::`vftable'
	DD	FLAT:?Initialize@CMoveTool@@UAEXXZ
	DD	FLAT:?OnLButtonDown@CMoveTool@@UAEPAVCElement@@PAVCDC@@ABVCPoint@@@Z
	DD	FLAT:?OnLButtonUp@CMoveTool@@UAEXPAVCDC@@ABVCPoint@@@Z
	DD	FLAT:?OnMouseMove@CMoveTool@@UAE_NPAVCDC@@ABVCPoint@@H@Z
	DD	FLAT:?OnRButtonUp@CTool@@UAEXPAVCDC@@ABVCPoint@@@Z
	DD	FLAT:?OnDraw@CMoveTool@@UAEXPAVCDC@@@Z
	DD	FLAT:?GetCoordinateCalculator@CTool@@UBEAAVCCoordinateCalculator@@XZ
	DD	FLAT:?PointInDrawingRegion@CMoveTool@@MBE_NABVCPoint@@@Z
	DD	FLAT:?SavePoints@CMoveTool@@MAEXABVCPoints@@@Z
	DD	FLAT:?GetToolType@CCrossLineMoveTool@@MBE?AW4TOOLTYPE@CAnalysis@@XZ
	DD	FLAT:?GetTextPosition@CCrossLineMoveTool@@MAEPAVCTextPosition@@XZ
	DD	FLAT:?GetTextPosition@CCrossLineMoveTool@@MBEPBVCTextPosition@@XZ
	DD	FLAT:?IsMakeElement@CTool@@MBE_NABVCPoint@@@Z
	DD	FLAT:?MakeElement@COnePointMoveTool@@MAEPAVCElement@@ABVCElementCommonEnvironment@@@Z
	DD	FLAT:?GetAnalysisData@CTool@@MBEPAVCAnalysisData@@XZ
	DD	FLAT:?DrawTool@COnePointMoveTool@@MAEXPAVCDC@@@Z
	DD	FLAT:?GetOnePointDrawer@CCrossLineMoveTool@@MAEAAVCOnePointDrawer@@XZ
CONST	ENDS
;	COMDAT ??_7CHorzLineTool@@6B@
CONST	SEGMENT
??_7CHorzLineTool@@6B@ DD FLAT:??_R4CHorzLineTool@@6B@	; CHorzLineTool::`vftable'
	DD	FLAT:?Initialize@CMoveTool@@UAEXXZ
	DD	FLAT:?OnLButtonDown@CMoveTool@@UAEPAVCElement@@PAVCDC@@ABVCPoint@@@Z
	DD	FLAT:?OnLButtonUp@CMoveTool@@UAEXPAVCDC@@ABVCPoint@@@Z
	DD	FLAT:?OnMouseMove@CMoveTool@@UAE_NPAVCDC@@ABVCPoint@@H@Z
	DD	FLAT:?OnRButtonUp@CTool@@UAEXPAVCDC@@ABVCPoint@@@Z
	DD	FLAT:?OnDraw@CMoveTool@@UAEXPAVCDC@@@Z
	DD	FLAT:?GetCoordinateCalculator@CTool@@UBEAAVCCoordinateCalculator@@XZ
	DD	FLAT:?PointInDrawingRegion@CMoveTool@@MBE_NABVCPoint@@@Z
	DD	FLAT:?SavePoints@CMoveTool@@MAEXABVCPoints@@@Z
	DD	FLAT:?GetToolType@CHorzLineTool@@MBE?AW4TOOLTYPE@CAnalysis@@XZ
	DD	FLAT:?GetTextPosition@CHorzLineTool@@MAEPAVCTextPosition@@XZ
	DD	FLAT:?GetTextPosition@CHorzLineTool@@MBEPBVCTextPosition@@XZ
	DD	FLAT:?IsMakeElement@CTool@@MBE_NABVCPoint@@@Z
	DD	FLAT:?MakeElement@COnePointMoveTool@@MAEPAVCElement@@ABVCElementCommonEnvironment@@@Z
	DD	FLAT:?GetAnalysisData@CTool@@MBEPAVCAnalysisData@@XZ
	DD	FLAT:?DrawTool@COnePointMoveTool@@MAEXPAVCDC@@@Z
	DD	FLAT:?GetOnePointDrawer@CHorzLineTool@@MAEAAVCOnePointDrawer@@XZ
CONST	ENDS
;	COMDAT ??_7CVertLineTool@@6B@
CONST	SEGMENT
??_7CVertLineTool@@6B@ DD FLAT:??_R4CVertLineTool@@6B@	; CVertLineTool::`vftable'
	DD	FLAT:?Initialize@CMoveTool@@UAEXXZ
	DD	FLAT:?OnLButtonDown@CMoveTool@@UAEPAVCElement@@PAVCDC@@ABVCPoint@@@Z
	DD	FLAT:?OnLButtonUp@CMoveTool@@UAEXPAVCDC@@ABVCPoint@@@Z
	DD	FLAT:?OnMouseMove@CMoveTool@@UAE_NPAVCDC@@ABVCPoint@@H@Z
	DD	FLAT:?OnRButtonUp@CTool@@UAEXPAVCDC@@ABVCPoint@@@Z
	DD	FLAT:?OnDraw@CMoveTool@@UAEXPAVCDC@@@Z
	DD	FLAT:?GetCoordinateCalculator@CTool@@UBEAAVCCoordinateCalculator@@XZ
	DD	FLAT:?PointInDrawingRegion@CMoveTool@@MBE_NABVCPoint@@@Z
	DD	FLAT:?SavePoints@CMoveTool@@MAEXABVCPoints@@@Z
	DD	FLAT:?GetToolType@CVertLineTool@@MBE?AW4TOOLTYPE@CAnalysis@@XZ
	DD	FLAT:?GetTextPosition@CVertLineTool@@MAEPAVCTextPosition@@XZ
	DD	FLAT:?GetTextPosition@CVertLineTool@@MBEPBVCTextPosition@@XZ
	DD	FLAT:?IsMakeElement@CTool@@MBE_NABVCPoint@@@Z
	DD	FLAT:?MakeElement@COnePointMoveTool@@MAEPAVCElement@@ABVCElementCommonEnvironment@@@Z
	DD	FLAT:?GetAnalysisData@CTool@@MBEPAVCAnalysisData@@XZ
	DD	FLAT:?DrawTool@COnePointMoveTool@@MAEXPAVCDC@@@Z
	DD	FLAT:?GetOnePointDrawer@CVertLineTool@@MAEAAVCOnePointDrawer@@XZ
CONST	ENDS
;	COMDAT ??_7CLineTool@@6B@
CONST	SEGMENT
??_7CLineTool@@6B@ DD FLAT:??_R4CLineTool@@6B@		; CLineTool::`vftable'
	DD	FLAT:?Initialize@CDownTool@@UAEXXZ
	DD	FLAT:?OnLButtonDown@CTwoPointDownTool@@UAEPAVCElement@@PAVCDC@@ABVCPoint@@@Z
	DD	FLAT:?OnLButtonUp@COneOrTwoPointTool@@UAEXPAVCDC@@ABVCPoint@@@Z
	DD	FLAT:?OnMouseMove@COneOrTwoPointTool@@UAE_NPAVCDC@@ABVCPoint@@H@Z
	DD	FLAT:?OnRButtonUp@CTool@@UAEXPAVCDC@@ABVCPoint@@@Z
	DD	FLAT:?OnDraw@COneOrTwoPointTool@@UAEXPAVCDC@@@Z
	DD	FLAT:?GetCoordinateCalculator@CTool@@UBEAAVCCoordinateCalculator@@XZ
	DD	FLAT:?PointInDrawingRegion@CTwoPointDownTool@@MBE_NABVCPoint@@@Z
	DD	FLAT:?SavePoints@COneOrTwoPointTool@@MAEXABVCPoints@@@Z
	DD	FLAT:?GetToolType@CLineTool@@MBE?AW4TOOLTYPE@CAnalysis@@XZ
	DD	FLAT:?GetTextPosition@CLineTool@@MAEPAVCTextPosition@@XZ
	DD	FLAT:?GetTextPosition@CLineTool@@MBEPBVCTextPosition@@XZ
	DD	FLAT:?IsMakeElement@CTwoPointDownTool@@MBE_NABVCPoint@@@Z
	DD	FLAT:?MakeElement@CTwoPointDownTool@@MAEPAVCElement@@ABVCElementCommonEnvironment@@@Z
	DD	FLAT:?GetAnalysisData@CTool@@MBEPAVCAnalysisData@@XZ
	DD	FLAT:?MouseMove@CTwoPointDownTool@@MAE_NPAVCDC@@ABVCPoint@@@Z
	DD	FLAT:?Draw_UpPoint@CTwoPointDownTool@@MAEXPAVCDC@@@Z
	DD	FLAT:?GetTwoPointDrawer@CLineTool@@MAEAAVCTwoPointDrawer@@XZ
CONST	ENDS
;	COMDAT ??_7CAdjustRatioDrawer@@6B@
CONST	SEGMENT
??_7CAdjustRatioDrawer@@6B@ DD FLAT:??_R4CAdjustRatioDrawer@@6B@ ; CAdjustRatioDrawer::`vftable'
	DD	FLAT:?DrawTool@CThreePointDrawer@@MAEXPAVCDC@@ABVCRegion@@ABVCPoints@@2@Z
	DD	FLAT:?DrawTool@CThreePointDrawer@@MAEXPAVCDC@@ABVCRegion@@ABVCPoints@@@Z
	DD	FLAT:?DrawShape@CAdjustRatioDrawer@@MAEXPAVCDC@@ABVCRegion@@ABVCPoint@@22@Z
CONST	ENDS
;	COMDAT ??_8CElliotLineDrawer@@7B@
CONST	SEGMENT
??_8CElliotLineDrawer@@7B@ DD 0fffffffcH		; CElliotLineDrawer::`vbtable'
	DD	04H
CONST	ENDS
;	COMDAT ??_7CElliotLineDrawer@@6B@
CONST	SEGMENT
??_7CElliotLineDrawer@@6B@ DD FLAT:??_R4CElliotLineDrawer@@6B@ ; CElliotLineDrawer::`vftable'
	DD	FLAT:?IsDrawing@CTwoPointDrawer@@MBE_NABVCRect@@ABVCPoint@@1@Z
	DD	FLAT:?DrawShape@CElliotLineDrawer@@UAEXPAVCDC@@ABVCTwoPointDrawingData@@ABVCPoint@@2@Z
	DD	FLAT:?DrawShadow@CTwoPointDrawer@@MAEXPAVCDC@@ABVCRect@@ABVCPoint@@2@Z
	DD	FLAT:?DrawTextA@CTwoPointDrawer@@MAEXPAVCDC@@ABVCTwoPointDrawingData@@@Z
CONST	ENDS
;	COMDAT ??_8CPeriodSumLineDrawer@@7B@
CONST	SEGMENT
??_8CPeriodSumLineDrawer@@7B@ DD 0fffffffcH		; CPeriodSumLineDrawer::`vbtable'
	DD	04H
CONST	ENDS
;	COMDAT ??_7CPeriodSumLineDrawer@@6B@
CONST	SEGMENT
??_7CPeriodSumLineDrawer@@6B@ DD FLAT:??_R4CPeriodSumLineDrawer@@6B@ ; CPeriodSumLineDrawer::`vftable'
	DD	FLAT:?IsDrawing@CTwoPointDrawer@@MBE_NABVCRect@@ABVCPoint@@1@Z
	DD	FLAT:?DrawShape@CPeriodSumLineDrawer@@UAEXPAVCDC@@ABVCTwoPointDrawingData@@ABVCPoint@@2@Z
	DD	FLAT:?DrawShadow@CTwoPointDrawer@@MAEXPAVCDC@@ABVCRect@@ABVCPoint@@2@Z
	DD	FLAT:?DrawTextA@CPeriodSumLineDrawer@@UAEXPAVCDC@@ABVCTwoPointDrawingData@@@Z
CONST	ENDS
;	COMDAT ??_7CPencilLineDrawer@@6B@
CONST	SEGMENT
??_7CPencilLineDrawer@@6B@ DD FLAT:??_R4CPencilLineDrawer@@6B@ ; CPencilLineDrawer::`vftable'
	DD	FLAT:?DrawTool@CMultiPointDrawer@@MAEXPAVCDC@@ABVCRegion@@ABVCPoints@@2@Z
	DD	FLAT:?DrawTool@CMultiPointDrawer@@MAEXPAVCDC@@ABVCRegion@@ABVCPoints@@@Z
	DD	FLAT:?DrawShape@CPencilLineDrawer@@MAEXPAVCDC@@ABVCMultiPointDrawingData@@@Z
CONST	ENDS
;	COMDAT ??_8CCandleBongDrawer@@7B@
CONST	SEGMENT
??_8CCandleBongDrawer@@7B@ DD 0fffffffcH		; CCandleBongDrawer::`vbtable'
	DD	04H
CONST	ENDS
;	COMDAT ??_7CCandleBongDrawer@@6B@
CONST	SEGMENT
??_7CCandleBongDrawer@@6B@ DD FLAT:??_R4CCandleBongDrawer@@6B@ ; CCandleBongDrawer::`vftable'
	DD	FLAT:?IsDrawing@CTwoPointDrawer@@MBE_NABVCRect@@ABVCPoint@@1@Z
	DD	FLAT:?DrawShape@CCandleBongDrawer@@MAEXPAVCDC@@ABVCTwoPointDrawingData@@ABVCPoint@@2@Z
	DD	FLAT:?DrawShadow@CTwoPointDrawer@@MAEXPAVCDC@@ABVCRect@@ABVCPoint@@2@Z
	DD	FLAT:?DrawTextA@CTwoPointDrawer@@MAEXPAVCDC@@ABVCTwoPointDrawingData@@@Z
CONST	ENDS
;	COMDAT ??_8CLinearRegressionDrawer@@7B@
CONST	SEGMENT
??_8CLinearRegressionDrawer@@7B@ DD 0fffffffcH		; CLinearRegressionDrawer::`vbtable'
	DD	04H
CONST	ENDS
;	COMDAT ??_7CLinearRegressionDrawer@@6B@
CONST	SEGMENT
??_7CLinearRegressionDrawer@@6B@ DD FLAT:??_R4CLinearRegressionDrawer@@6B@ ; CLinearRegressionDrawer::`vftable'
	DD	FLAT:?IsDrawing@CTwoPointDrawer@@MBE_NABVCRect@@ABVCPoint@@1@Z
	DD	FLAT:?DrawShape@CLinearRegressionDrawer@@UAEXPAVCDC@@ABVCTwoPointDrawingData@@ABVCPoint@@2@Z
	DD	FLAT:?DrawShadow@CLinearRegressionDrawer@@UAEXPAVCDC@@ABVCRect@@ABVCPoint@@2@Z
	DD	FLAT:?DrawTextA@CTwoPointDrawer@@MAEXPAVCDC@@ABVCTwoPointDrawingData@@@Z
CONST	ENDS
;	COMDAT ??_8CSpeedArcDrawer@@7B@
CONST	SEGMENT
??_8CSpeedArcDrawer@@7B@ DD 0fffffffcH			; CSpeedArcDrawer::`vbtable'
	DD	04H
CONST	ENDS
;	COMDAT ??_7CSpeedArcDrawer@@6B@
CONST	SEGMENT
??_7CSpeedArcDrawer@@6B@ DD FLAT:??_R4CSpeedArcDrawer@@6B@ ; CSpeedArcDrawer::`vftable'
	DD	FLAT:?IsDrawing@CTwoPointDrawer@@MBE_NABVCRect@@ABVCPoint@@1@Z
	DD	FLAT:?DrawShape@CSpeedArcDrawer@@MAEXPAVCDC@@ABVCTwoPointDrawingData@@ABVCPoint@@2@Z
	DD	FLAT:?DrawShadow@CTwoPointDrawer@@MAEXPAVCDC@@ABVCRect@@ABVCPoint@@2@Z
	DD	FLAT:?DrawTextA@CTwoPointDrawer@@MAEXPAVCDC@@ABVCTwoPointDrawingData@@@Z
	DD	FLAT:?DrawArc@CSpeedArcDrawer@@MAEXPAVCDC@@ABVCRect@@HH@Z
CONST	ENDS
;	COMDAT ??_8CSpeedFanDrawer@@7B@
CONST	SEGMENT
??_8CSpeedFanDrawer@@7B@ DD 0fffffffcH			; CSpeedFanDrawer::`vbtable'
	DD	04H
CONST	ENDS
;	COMDAT ??_7CSpeedFanDrawer@@6B@
CONST	SEGMENT
??_7CSpeedFanDrawer@@6B@ DD FLAT:??_R4CSpeedFanDrawer@@6B@ ; CSpeedFanDrawer::`vftable'
	DD	FLAT:?IsDrawing@CTwoPointDrawer@@MBE_NABVCRect@@ABVCPoint@@1@Z
	DD	FLAT:?DrawShape@CSpeedFanDrawer@@MAEXPAVCDC@@ABVCTwoPointDrawingData@@ABVCPoint@@2@Z
	DD	FLAT:?DrawShadow@CTwoPointDrawer@@MAEXPAVCDC@@ABVCRect@@ABVCPoint@@2@Z
	DD	FLAT:?DrawTextA@CTwoPointDrawer@@MAEXPAVCDC@@ABVCTwoPointDrawingData@@@Z
CONST	ENDS
;	COMDAT ??_8CSpeedLineDrawer@@7B@
CONST	SEGMENT
??_8CSpeedLineDrawer@@7B@ DD 0fffffffcH			; CSpeedLineDrawer::`vbtable'
	DD	04H
CONST	ENDS
;	COMDAT ??_7CSpeedLineDrawer@@6B@
CONST	SEGMENT
??_7CSpeedLineDrawer@@6B@ DD FLAT:??_R4CSpeedLineDrawer@@6B@ ; CSpeedLineDrawer::`vftable'
	DD	FLAT:?IsDrawing@CTwoPointDrawer@@MBE_NABVCRect@@ABVCPoint@@1@Z
	DD	FLAT:?DrawShape@CSpeedLineDrawer@@MAEXPAVCDC@@ABVCTwoPointDrawingData@@ABVCPoint@@2@Z
	DD	FLAT:?DrawShadow@CTwoPointDrawer@@MAEXPAVCDC@@ABVCRect@@ABVCPoint@@2@Z
	DD	FLAT:?DrawTextA@CTwoPointDrawer@@MAEXPAVCDC@@ABVCTwoPointDrawingData@@@Z
CONST	ENDS
;	COMDAT ??_8CCycleLinesDrawer@@7B@
CONST	SEGMENT
??_8CCycleLinesDrawer@@7B@ DD 0fffffffcH		; CCycleLinesDrawer::`vbtable'
	DD	0cH
CONST	ENDS
;	COMDAT ??_7CCycleLinesDrawer@@6B@
CONST	SEGMENT
??_7CCycleLinesDrawer@@6B@ DD FLAT:??_R4CCycleLinesDrawer@@6B@ ; CCycleLinesDrawer::`vftable'
	DD	FLAT:?IsDrawing@CTwoPointDrawer@@MBE_NABVCRect@@ABVCPoint@@1@Z
	DD	FLAT:?DrawShape@CCycleLinesDrawer@@MAEXPAVCDC@@ABVCTwoPointDrawingData@@ABVCPoint@@2@Z
	DD	FLAT:?DrawShadow@CTwoPointDrawer@@MAEXPAVCDC@@ABVCRect@@ABVCPoint@@2@Z
	DD	FLAT:?DrawTextA@CTwoPointDrawer@@MAEXPAVCDC@@ABVCTwoPointDrawingData@@@Z
CONST	ENDS
;	COMDAT ??_7CAndrewsPitchforkDrawer@@6B@
CONST	SEGMENT
??_7CAndrewsPitchforkDrawer@@6B@ DD FLAT:??_R4CAndrewsPitchforkDrawer@@6B@ ; CAndrewsPitchforkDrawer::`vftable'
	DD	FLAT:?DrawTool@CThreePointDrawer@@MAEXPAVCDC@@ABVCRegion@@ABVCPoints@@2@Z
	DD	FLAT:?DrawTool@CThreePointDrawer@@MAEXPAVCDC@@ABVCRegion@@ABVCPoints@@@Z
	DD	FLAT:?DrawShape@CAndrewsPitchforkDrawer@@MAEXPAVCDC@@ABVCRegion@@ABVCPoint@@22@Z
CONST	ENDS
;	COMDAT ??_8CQuadrisectLineDrawer@@7B@
CONST	SEGMENT
??_8CQuadrisectLineDrawer@@7B@ DD 0fffffffcH		; CQuadrisectLineDrawer::`vbtable'
	DD	04H
CONST	ENDS
;	COMDAT ??_7CQuadrisectLineDrawer@@6B@
CONST	SEGMENT
??_7CQuadrisectLineDrawer@@6B@ DD FLAT:??_R4CQuadrisectLineDrawer@@6B@ ; CQuadrisectLineDrawer::`vftable'
	DD	FLAT:?IsDrawing@CTwoPointDrawer@@MBE_NABVCRect@@ABVCPoint@@1@Z
	DD	FLAT:?DrawShape@CEqualDivisionLineDrawer@@UAEXPAVCDC@@ABVCTwoPointDrawingData@@ABVCPoint@@2@Z
	DD	FLAT:?DrawShadow@CEqualDivisionLineDrawer@@UAEXPAVCDC@@ABVCRect@@ABVCPoint@@2@Z
	DD	FLAT:?DrawTextA@CEqualDivisionLineDrawer@@UAEXPAVCDC@@ABVCTwoPointDrawingData@@@Z
	DD	FLAT:?GetCount@CQuadrisectLineDrawer@@UBEHH@Z
	DD	FLAT:?GetCoefficient@CQuadrisectLineDrawer@@MBENHH@Z
CONST	ENDS
;	COMDAT ??_8CTrisectionLineDrawer@@7B@
CONST	SEGMENT
??_8CTrisectionLineDrawer@@7B@ DD 0fffffffcH		; CTrisectionLineDrawer::`vbtable'
	DD	04H
CONST	ENDS
;	COMDAT ??_7CTrisectionLineDrawer@@6B@
CONST	SEGMENT
??_7CTrisectionLineDrawer@@6B@ DD FLAT:??_R4CTrisectionLineDrawer@@6B@ ; CTrisectionLineDrawer::`vftable'
	DD	FLAT:?IsDrawing@CTwoPointDrawer@@MBE_NABVCRect@@ABVCPoint@@1@Z
	DD	FLAT:?DrawShape@CEqualDivisionLineDrawer@@UAEXPAVCDC@@ABVCTwoPointDrawingData@@ABVCPoint@@2@Z
	DD	FLAT:?DrawShadow@CEqualDivisionLineDrawer@@UAEXPAVCDC@@ABVCRect@@ABVCPoint@@2@Z
	DD	FLAT:?DrawTextA@CEqualDivisionLineDrawer@@UAEXPAVCDC@@ABVCTwoPointDrawingData@@@Z
	DD	FLAT:?GetCount@CTrisectionLineDrawer@@UBEHH@Z
	DD	FLAT:?GetCoefficient@CTrisectionLineDrawer@@MBENHH@Z
CONST	ENDS
;	COMDAT ??_7CEqualDivisionLineDrawer@@6B@
CONST	SEGMENT
??_7CEqualDivisionLineDrawer@@6B@ DD FLAT:??_R4CEqualDivisionLineDrawer@@6B@ ; CEqualDivisionLineDrawer::`vftable'
	DD	FLAT:?IsDrawing@CTwoPointDrawer@@MBE_NABVCRect@@ABVCPoint@@1@Z
	DD	FLAT:?DrawShape@CEqualDivisionLineDrawer@@UAEXPAVCDC@@ABVCTwoPointDrawingData@@ABVCPoint@@2@Z
	DD	FLAT:?DrawShadow@CEqualDivisionLineDrawer@@UAEXPAVCDC@@ABVCRect@@ABVCPoint@@2@Z
	DD	FLAT:?DrawTextA@CEqualDivisionLineDrawer@@UAEXPAVCDC@@ABVCTwoPointDrawingData@@@Z
	DD	FLAT:__purecall
	DD	FLAT:__purecall
CONST	ENDS
;	COMDAT ??_8CCrossLineDrawer@@7BCOnePointDrawer@@@
CONST	SEGMENT
??_8CCrossLineDrawer@@7BCOnePointDrawer@@@ DD 0fffffffcH ; CCrossLineDrawer::`vbtable'
	DD	0ffffffe4H
CONST	ENDS
;	COMDAT ??_8CCrossLineDrawer@@7BCHorzLineDrawer@@@
CONST	SEGMENT
??_8CCrossLineDrawer@@7BCHorzLineDrawer@@@ DD 00H	; CCrossLineDrawer::`vbtable'
	DD	0cH
	DD	024H
CONST	ENDS
;	COMDAT ??_8CCrossLineDrawer@@7BCVertLineDrawer@@@
CONST	SEGMENT
??_8CCrossLineDrawer@@7BCVertLineDrawer@@@ DD 00H	; CCrossLineDrawer::`vbtable'
	DD	018H
	DD	030H
CONST	ENDS
;	COMDAT ??_7CCrossLineDrawer@@6B@
CONST	SEGMENT
??_7CCrossLineDrawer@@6B@ DD FLAT:??_R4CCrossLineDrawer@@6B@ ; CCrossLineDrawer::`vftable'
	DD	FLAT:?IsDrawing@CCrossLineDrawer@@$2PPPPPPPM@A@BE_NABVCRect@@ABVCPoint@@@Z
	DD	FLAT:?DrawShape@CCrossLineDrawer@@$2PPPPPPPM@A@AEXPAVCDC@@ABVCOnePointDrawingData@@ABVCDisplayData@@ABVCPoint@@_N@Z
	DD	FLAT:?DrawShadow@COnePointDrawer@@MAEXPAVCDC@@ABVCDisplayData@@ABVCPoint@@_N@Z
	DD	FLAT:?DrawTextA@CCrossLineDrawer@@$2PPPPPPPM@A@AEXPAVCDC@@ABVCOnePointDrawingData@@@Z
	DD	FLAT:?GetGripRegion@CCrossLineDrawer@@$2PPPPPPPM@A@AE?AVCRect@@ABV2@ABVCPoint@@@Z
CONST	ENDS
;	COMDAT ??_7CMultiPointDrawer@@6B@
CONST	SEGMENT
??_7CMultiPointDrawer@@6B@ DD FLAT:??_R4CMultiPointDrawer@@6B@ ; CMultiPointDrawer::`vftable'
	DD	FLAT:?DrawTool@CMultiPointDrawer@@MAEXPAVCDC@@ABVCRegion@@ABVCPoints@@2@Z
	DD	FLAT:?DrawTool@CMultiPointDrawer@@MAEXPAVCDC@@ABVCRegion@@ABVCPoints@@@Z
	DD	FLAT:__purecall
CONST	ENDS
;	COMDAT ??_7CThreePointDrawer@@6B@
CONST	SEGMENT
??_7CThreePointDrawer@@6B@ DD FLAT:??_R4CThreePointDrawer@@6B@ ; CThreePointDrawer::`vftable'
	DD	FLAT:?DrawTool@CThreePointDrawer@@MAEXPAVCDC@@ABVCRegion@@ABVCPoints@@2@Z
	DD	FLAT:?DrawTool@CThreePointDrawer@@MAEXPAVCDC@@ABVCRegion@@ABVCPoints@@@Z
	DD	FLAT:__purecall
CONST	ENDS
;	COMDAT ??_7CTwoPointDrawer@@6B@
CONST	SEGMENT
??_7CTwoPointDrawer@@6B@ DD FLAT:??_R4CTwoPointDrawer@@6B@ ; CTwoPointDrawer::`vftable'
	DD	FLAT:?IsDrawing@CTwoPointDrawer@@MBE_NABVCRect@@ABVCPoint@@1@Z
	DD	FLAT:__purecall
	DD	FLAT:?DrawShadow@CTwoPointDrawer@@MAEXPAVCDC@@ABVCRect@@ABVCPoint@@2@Z
	DD	FLAT:?DrawTextA@CTwoPointDrawer@@MAEXPAVCDC@@ABVCTwoPointDrawingData@@@Z
CONST	ENDS
;	COMDAT ??_7COnePointDrawer@@6B@
CONST	SEGMENT
??_7COnePointDrawer@@6B@ DD FLAT:??_R4COnePointDrawer@@6B@ ; COnePointDrawer::`vftable'
	DD	FLAT:__purecall
	DD	FLAT:__purecall
	DD	FLAT:?DrawShadow@COnePointDrawer@@MAEXPAVCDC@@ABVCDisplayData@@ABVCPoint@@_N@Z
	DD	FLAT:?DrawTextA@COnePointDrawer@@MAEXPAVCDC@@ABVCOnePointDrawingData@@@Z
	DD	FLAT:__purecall
CONST	ENDS
;	COMDAT xdata$x
xdata$x	SEGMENT
__unwindtable$??0CAdjustRatioTool@@QAE@PAVCAnalysisData@@W4COORDINATETYPE@CAnalysis@@@Z DD 0ffffffffH
	DD	FLAT:__unwindfunclet$??0CAdjustRatioTool@@QAE@PAVCAnalysisData@@W4COORDINATETYPE@CAnalysis@@@Z$0
__ehfuncinfo$??0CAdjustRatioTool@@QAE@PAVCAnalysisData@@W4COORDINATETYPE@CAnalysis@@@Z DD 019930522H
	DD	01H
	DD	FLAT:__unwindtable$??0CAdjustRatioTool@@QAE@PAVCAnalysisData@@W4COORDINATETYPE@CAnalysis@@@Z
	DD	2 DUP(00H)
	DD	2 DUP(00H)
	DD	00H
	DD	01H
xdata$x	ENDS
;	COMDAT xdata$x
xdata$x	SEGMENT
__unwindtable$??0CElliotLineTool@@QAE@PAVCAnalysisData@@W4COORDINATETYPE@CAnalysis@@@Z DD 0ffffffffH
	DD	FLAT:___std_terminate
__ehfuncinfo$??0CElliotLineTool@@QAE@PAVCAnalysisData@@W4COORDINATETYPE@CAnalysis@@@Z DD 019930522H
	DD	01H
	DD	FLAT:__unwindtable$??0CElliotLineTool@@QAE@PAVCAnalysisData@@W4COORDINATETYPE@CAnalysis@@@Z
	DD	2 DUP(00H)
	DD	2 DUP(00H)
	DD	00H
	DD	01H
xdata$x	ENDS
;	COMDAT xdata$x
xdata$x	SEGMENT
__unwindtable$??0CPeriodSumLineTool@@QAE@PAVCAnalysisData@@W4COORDINATETYPE@CAnalysis@@@Z DD 0ffffffffH
	DD	FLAT:__unwindfunclet$??0CPeriodSumLineTool@@QAE@PAVCAnalysisData@@W4COORDINATETYPE@CAnalysis@@@Z$0
	DD	00H
	DD	FLAT:___std_terminate
__ehfuncinfo$??0CPeriodSumLineTool@@QAE@PAVCAnalysisData@@W4COORDINATETYPE@CAnalysis@@@Z DD 019930522H
	DD	02H
	DD	FLAT:__unwindtable$??0CPeriodSumLineTool@@QAE@PAVCAnalysisData@@W4COORDINATETYPE@CAnalysis@@@Z
	DD	2 DUP(00H)
	DD	2 DUP(00H)
	DD	00H
	DD	01H
xdata$x	ENDS
;	COMDAT xdata$x
xdata$x	SEGMENT
__unwindtable$??0CPencilLineTool@@QAE@PAVCAnalysisData@@W4COORDINATETYPE@CAnalysis@@@Z DD 0ffffffffH
	DD	FLAT:__unwindfunclet$??0CPencilLineTool@@QAE@PAVCAnalysisData@@W4COORDINATETYPE@CAnalysis@@@Z$0
__ehfuncinfo$??0CPencilLineTool@@QAE@PAVCAnalysisData@@W4COORDINATETYPE@CAnalysis@@@Z DD 019930522H
	DD	01H
	DD	FLAT:__unwindtable$??0CPencilLineTool@@QAE@PAVCAnalysisData@@W4COORDINATETYPE@CAnalysis@@@Z
	DD	2 DUP(00H)
	DD	2 DUP(00H)
	DD	00H
	DD	01H
xdata$x	ENDS
;	COMDAT xdata$x
xdata$x	SEGMENT
__unwindtable$??0CCandleBongTool@@QAE@PAVCAnalysisData@@W4COORDINATETYPE@CAnalysis@@@Z DD 0ffffffffH
	DD	FLAT:___std_terminate
__ehfuncinfo$??0CCandleBongTool@@QAE@PAVCAnalysisData@@W4COORDINATETYPE@CAnalysis@@@Z DD 019930522H
	DD	01H
	DD	FLAT:__unwindtable$??0CCandleBongTool@@QAE@PAVCAnalysisData@@W4COORDINATETYPE@CAnalysis@@@Z
	DD	2 DUP(00H)
	DD	2 DUP(00H)
	DD	00H
	DD	01H
xdata$x	ENDS
;	COMDAT xdata$x
xdata$x	SEGMENT
__unwindtable$??0CCandleLineTool@@QAE@PAVCAnalysisData@@W4COORDINATETYPE@CAnalysis@@@Z DD 0ffffffffH
	DD	FLAT:__unwindfunclet$??0CCandleLineTool@@QAE@PAVCAnalysisData@@W4COORDINATETYPE@CAnalysis@@@Z$0
__ehfuncinfo$??0CCandleLineTool@@QAE@PAVCAnalysisData@@W4COORDINATETYPE@CAnalysis@@@Z DD 019930522H
	DD	01H
	DD	FLAT:__unwindtable$??0CCandleLineTool@@QAE@PAVCAnalysisData@@W4COORDINATETYPE@CAnalysis@@@Z
	DD	2 DUP(00H)
	DD	2 DUP(00H)
	DD	00H
	DD	01H
xdata$x	ENDS
;	COMDAT xdata$x
xdata$x	SEGMENT
__unwindtable$??0CAngleLineTool@@QAE@PAVCAnalysisData@@W4COORDINATETYPE@CAnalysis@@@Z DD 0ffffffffH
	DD	FLAT:__unwindfunclet$??0CAngleLineTool@@QAE@PAVCAnalysisData@@W4COORDINATETYPE@CAnalysis@@@Z$0
__ehfuncinfo$??0CAngleLineTool@@QAE@PAVCAnalysisData@@W4COORDINATETYPE@CAnalysis@@@Z DD 019930522H
	DD	01H
	DD	FLAT:__unwindtable$??0CAngleLineTool@@QAE@PAVCAnalysisData@@W4COORDINATETYPE@CAnalysis@@@Z
	DD	2 DUP(00H)
	DD	2 DUP(00H)
	DD	00H
	DD	01H
xdata$x	ENDS
;	COMDAT xdata$x
xdata$x	SEGMENT
__unwindtable$??0CRaffRegressionTool@@QAE@PAVCAnalysisData@@W4COORDINATETYPE@CAnalysis@@@Z DD 0ffffffffH
	DD	FLAT:__unwindfunclet$??0CRaffRegressionTool@@QAE@PAVCAnalysisData@@W4COORDINATETYPE@CAnalysis@@@Z$0
__ehfuncinfo$??0CRaffRegressionTool@@QAE@PAVCAnalysisData@@W4COORDINATETYPE@CAnalysis@@@Z DD 019930522H
	DD	01H
	DD	FLAT:__unwindtable$??0CRaffRegressionTool@@QAE@PAVCAnalysisData@@W4COORDINATETYPE@CAnalysis@@@Z
	DD	2 DUP(00H)
	DD	2 DUP(00H)
	DD	00H
	DD	01H
xdata$x	ENDS
;	COMDAT xdata$x
xdata$x	SEGMENT
__unwindtable$??0CLinearRegressionTool@@QAE@PAVCAnalysisData@@W4COORDINATETYPE@CAnalysis@@@Z DD 0ffffffffH
	DD	FLAT:___std_terminate
__ehfuncinfo$??0CLinearRegressionTool@@QAE@PAVCAnalysisData@@W4COORDINATETYPE@CAnalysis@@@Z DD 019930522H
	DD	01H
	DD	FLAT:__unwindtable$??0CLinearRegressionTool@@QAE@PAVCAnalysisData@@W4COORDINATETYPE@CAnalysis@@@Z
	DD	2 DUP(00H)
	DD	2 DUP(00H)
	DD	00H
	DD	01H
xdata$x	ENDS
;	COMDAT xdata$x
xdata$x	SEGMENT
__unwindtable$??0CSpeedArcTool@@QAE@PAVCAnalysisData@@W4COORDINATETYPE@CAnalysis@@@Z DD 0ffffffffH
	DD	FLAT:___std_terminate
__ehfuncinfo$??0CSpeedArcTool@@QAE@PAVCAnalysisData@@W4COORDINATETYPE@CAnalysis@@@Z DD 019930522H
	DD	01H
	DD	FLAT:__unwindtable$??0CSpeedArcTool@@QAE@PAVCAnalysisData@@W4COORDINATETYPE@CAnalysis@@@Z
	DD	2 DUP(00H)
	DD	2 DUP(00H)
	DD	00H
	DD	01H
xdata$x	ENDS
;	COMDAT xdata$x
xdata$x	SEGMENT
__unwindtable$??0CSpeedFanTool@@QAE@PAVCAnalysisData@@W4COORDINATETYPE@CAnalysis@@@Z DD 0ffffffffH
	DD	FLAT:___std_terminate
__ehfuncinfo$??0CSpeedFanTool@@QAE@PAVCAnalysisData@@W4COORDINATETYPE@CAnalysis@@@Z DD 019930522H
	DD	01H
	DD	FLAT:__unwindtable$??0CSpeedFanTool@@QAE@PAVCAnalysisData@@W4COORDINATETYPE@CAnalysis@@@Z
	DD	2 DUP(00H)
	DD	2 DUP(00H)
	DD	00H
	DD	01H
xdata$x	ENDS
;	COMDAT xdata$x
xdata$x	SEGMENT
__unwindtable$??0CSpeedLineTool@@QAE@PAVCAnalysisData@@W4COORDINATETYPE@CAnalysis@@@Z DD 0ffffffffH
	DD	FLAT:___std_terminate
__ehfuncinfo$??0CSpeedLineTool@@QAE@PAVCAnalysisData@@W4COORDINATETYPE@CAnalysis@@@Z DD 019930522H
	DD	01H
	DD	FLAT:__unwindtable$??0CSpeedLineTool@@QAE@PAVCAnalysisData@@W4COORDINATETYPE@CAnalysis@@@Z
	DD	2 DUP(00H)
	DD	2 DUP(00H)
	DD	00H
	DD	01H
xdata$x	ENDS
;	COMDAT xdata$x
xdata$x	SEGMENT
__unwindtable$??0CCycleLinesTool@@QAE@PAVCAnalysisData@@W4COORDINATETYPE@CAnalysis@@@Z DD 0ffffffffH
	DD	FLAT:___std_terminate
__ehfuncinfo$??0CCycleLinesTool@@QAE@PAVCAnalysisData@@W4COORDINATETYPE@CAnalysis@@@Z DD 019930522H
	DD	01H
	DD	FLAT:__unwindtable$??0CCycleLinesTool@@QAE@PAVCAnalysisData@@W4COORDINATETYPE@CAnalysis@@@Z
	DD	2 DUP(00H)
	DD	2 DUP(00H)
	DD	00H
	DD	01H
xdata$x	ENDS
;	COMDAT xdata$x
xdata$x	SEGMENT
__unwindtable$??0CAndrewsPitchforkTool@@QAE@PAVCAnalysisData@@W4COORDINATETYPE@CAnalysis@@@Z DD 0ffffffffH
	DD	FLAT:__unwindfunclet$??0CAndrewsPitchforkTool@@QAE@PAVCAnalysisData@@W4COORDINATETYPE@CAnalysis@@@Z$0
__ehfuncinfo$??0CAndrewsPitchforkTool@@QAE@PAVCAnalysisData@@W4COORDINATETYPE@CAnalysis@@@Z DD 019930522H
	DD	01H
	DD	FLAT:__unwindtable$??0CAndrewsPitchforkTool@@QAE@PAVCAnalysisData@@W4COORDINATETYPE@CAnalysis@@@Z
	DD	2 DUP(00H)
	DD	2 DUP(00H)
	DD	00H
	DD	01H
xdata$x	ENDS
;	COMDAT xdata$x
xdata$x	SEGMENT
__unwindtable$??0CQuadrisectLineTool@@QAE@PAVCAnalysisData@@W4COORDINATETYPE@CAnalysis@@@Z DD 0ffffffffH
	DD	FLAT:__unwindfunclet$??0CQuadrisectLineTool@@QAE@PAVCAnalysisData@@W4COORDINATETYPE@CAnalysis@@@Z$0
	DD	00H
	DD	FLAT:___std_terminate
__ehfuncinfo$??0CQuadrisectLineTool@@QAE@PAVCAnalysisData@@W4COORDINATETYPE@CAnalysis@@@Z DD 019930522H
	DD	02H
	DD	FLAT:__unwindtable$??0CQuadrisectLineTool@@QAE@PAVCAnalysisData@@W4COORDINATETYPE@CAnalysis@@@Z
	DD	2 DUP(00H)
	DD	2 DUP(00H)
	DD	00H
	DD	01H
xdata$x	ENDS
;	COMDAT xdata$x
xdata$x	SEGMENT
__unwindtable$??0CTrisectionLineTool@@QAE@PAVCAnalysisData@@W4COORDINATETYPE@CAnalysis@@@Z DD 0ffffffffH
	DD	FLAT:__unwindfunclet$??0CTrisectionLineTool@@QAE@PAVCAnalysisData@@W4COORDINATETYPE@CAnalysis@@@Z$0
	DD	00H
	DD	FLAT:___std_terminate
__ehfuncinfo$??0CTrisectionLineTool@@QAE@PAVCAnalysisData@@W4COORDINATETYPE@CAnalysis@@@Z DD 019930522H
	DD	02H
	DD	FLAT:__unwindtable$??0CTrisectionLineTool@@QAE@PAVCAnalysisData@@W4COORDINATETYPE@CAnalysis@@@Z
	DD	2 DUP(00H)
	DD	2 DUP(00H)
	DD	00H
	DD	01H
xdata$x	ENDS
;	COMDAT xdata$x
xdata$x	SEGMENT
__unwindtable$??0CCrossLineDownTool@@QAE@PAVCAnalysisData@@W4COORDINATETYPE@CAnalysis@@@Z DD 0ffffffffH
	DD	FLAT:__unwindfunclet$??0CCrossLineDownTool@@QAE@PAVCAnalysisData@@W4COORDINATETYPE@CAnalysis@@@Z$0
__ehfuncinfo$??0CCrossLineDownTool@@QAE@PAVCAnalysisData@@W4COORDINATETYPE@CAnalysis@@@Z DD 019930522H
	DD	01H
	DD	FLAT:__unwindtable$??0CCrossLineDownTool@@QAE@PAVCAnalysisData@@W4COORDINATETYPE@CAnalysis@@@Z
	DD	2 DUP(00H)
	DD	2 DUP(00H)
	DD	00H
	DD	01H
xdata$x	ENDS
;	COMDAT xdata$x
xdata$x	SEGMENT
__unwindtable$??0CCrossLineMoveTool@@QAE@PAVCAnalysisData@@W4COORDINATETYPE@CAnalysis@@@Z DD 0ffffffffH
	DD	FLAT:__unwindfunclet$??0CCrossLineMoveTool@@QAE@PAVCAnalysisData@@W4COORDINATETYPE@CAnalysis@@@Z$0
__ehfuncinfo$??0CCrossLineMoveTool@@QAE@PAVCAnalysisData@@W4COORDINATETYPE@CAnalysis@@@Z DD 019930522H
	DD	01H
	DD	FLAT:__unwindtable$??0CCrossLineMoveTool@@QAE@PAVCAnalysisData@@W4COORDINATETYPE@CAnalysis@@@Z
	DD	2 DUP(00H)
	DD	2 DUP(00H)
	DD	00H
	DD	01H
xdata$x	ENDS
;	COMDAT xdata$x
xdata$x	SEGMENT
__unwindtable$??0CHorzLineTool@@QAE@PAVCAnalysisData@@W4COORDINATETYPE@CAnalysis@@@Z DD 0ffffffffH
	DD	FLAT:__unwindfunclet$??0CHorzLineTool@@QAE@PAVCAnalysisData@@W4COORDINATETYPE@CAnalysis@@@Z$0
__ehfuncinfo$??0CHorzLineTool@@QAE@PAVCAnalysisData@@W4COORDINATETYPE@CAnalysis@@@Z DD 019930522H
	DD	01H
	DD	FLAT:__unwindtable$??0CHorzLineTool@@QAE@PAVCAnalysisData@@W4COORDINATETYPE@CAnalysis@@@Z
	DD	2 DUP(00H)
	DD	2 DUP(00H)
	DD	00H
	DD	01H
xdata$x	ENDS
;	COMDAT xdata$x
xdata$x	SEGMENT
__unwindtable$??0CVertLineTool@@QAE@PAVCAnalysisData@@W4COORDINATETYPE@CAnalysis@@@Z DD 0ffffffffH
	DD	FLAT:__unwindfunclet$??0CVertLineTool@@QAE@PAVCAnalysisData@@W4COORDINATETYPE@CAnalysis@@@Z$0
__ehfuncinfo$??0CVertLineTool@@QAE@PAVCAnalysisData@@W4COORDINATETYPE@CAnalysis@@@Z DD 019930522H
	DD	01H
	DD	FLAT:__unwindtable$??0CVertLineTool@@QAE@PAVCAnalysisData@@W4COORDINATETYPE@CAnalysis@@@Z
	DD	2 DUP(00H)
	DD	2 DUP(00H)
	DD	00H
	DD	01H
xdata$x	ENDS
;	COMDAT xdata$x
xdata$x	SEGMENT
__unwindtable$??0CLineTool@@QAE@PAVCAnalysisData@@W4TOOLTYPE@CAnalysis@@W4COORDINATETYPE@3@@Z DD 0ffffffffH
	DD	FLAT:__unwindfunclet$??0CLineTool@@QAE@PAVCAnalysisData@@W4TOOLTYPE@CAnalysis@@W4COORDINATETYPE@3@@Z$0
__ehfuncinfo$??0CLineTool@@QAE@PAVCAnalysisData@@W4TOOLTYPE@CAnalysis@@W4COORDINATETYPE@3@@Z DD 019930522H
	DD	01H
	DD	FLAT:__unwindtable$??0CLineTool@@QAE@PAVCAnalysisData@@W4TOOLTYPE@CAnalysis@@W4COORDINATETYPE@3@@Z
	DD	2 DUP(00H)
	DD	2 DUP(00H)
	DD	00H
	DD	01H
xdata$x	ENDS
;	COMDAT xdata$x
xdata$x	SEGMENT
__ehfuncinfo$??0CElliotLineDrawer@@QAE@XZ DD 019930522H
	DD	00H
	DD	00H
	DD	2 DUP(00H)
	DD	2 DUP(00H)
	DD	00H
	DD	05H
xdata$x	ENDS
;	COMDAT xdata$x
xdata$x	SEGMENT
__ehfuncinfo$??0CPeriodSumLineDrawer@@QAE@XZ DD 019930522H
	DD	00H
	DD	00H
	DD	2 DUP(00H)
	DD	2 DUP(00H)
	DD	00H
	DD	05H
xdata$x	ENDS
;	COMDAT xdata$x
xdata$x	SEGMENT
__ehfuncinfo$??0CCandleBongDrawer@@QAE@XZ DD 019930522H
	DD	00H
	DD	00H
	DD	2 DUP(00H)
	DD	2 DUP(00H)
	DD	00H
	DD	05H
xdata$x	ENDS
;	COMDAT xdata$x
xdata$x	SEGMENT
__ehfuncinfo$??0CLinearRegressionDrawer@@QAE@XZ DD 019930522H
	DD	00H
	DD	00H
	DD	2 DUP(00H)
	DD	2 DUP(00H)
	DD	00H
	DD	05H
xdata$x	ENDS
;	COMDAT xdata$x
xdata$x	SEGMENT
__ehfuncinfo$??0CSpeedArcDrawer@@QAE@XZ DD 019930522H
	DD	00H
	DD	00H
	DD	2 DUP(00H)
	DD	2 DUP(00H)
	DD	00H
	DD	05H
xdata$x	ENDS
;	COMDAT xdata$x
xdata$x	SEGMENT
__ehfuncinfo$??0CSpeedFanDrawer@@QAE@XZ DD 019930522H
	DD	00H
	DD	00H
	DD	2 DUP(00H)
	DD	2 DUP(00H)
	DD	00H
	DD	05H
xdata$x	ENDS
;	COMDAT xdata$x
xdata$x	SEGMENT
__ehfuncinfo$??0CSpeedLineDrawer@@QAE@XZ DD 019930522H
	DD	00H
	DD	00H
	DD	2 DUP(00H)
	DD	2 DUP(00H)
	DD	00H
	DD	05H
xdata$x	ENDS
;	COMDAT xdata$x
xdata$x	SEGMENT
__ehfuncinfo$??0CCycleLinesDrawer@@QAE@XZ DD 019930522H
	DD	00H
	DD	00H
	DD	2 DUP(00H)
	DD	2 DUP(00H)
	DD	00H
	DD	05H
xdata$x	ENDS
;	COMDAT xdata$x
xdata$x	SEGMENT
__ehfuncinfo$??0CQuadrisectLineDrawer@@QAE@XZ DD 019930522H
	DD	00H
	DD	00H
	DD	2 DUP(00H)
	DD	2 DUP(00H)
	DD	00H
	DD	05H
xdata$x	ENDS
;	COMDAT xdata$x
xdata$x	SEGMENT
__ehfuncinfo$??0CTrisectionLineDrawer@@QAE@XZ DD 019930522H
	DD	00H
	DD	00H
	DD	2 DUP(00H)
	DD	2 DUP(00H)
	DD	00H
	DD	05H
xdata$x	ENDS
;	COMDAT xdata$x
xdata$x	SEGMENT
__ehfuncinfo$??1CMultiPointDownTool@@QAE@XZ DD 019930522H
	DD	00H
	DD	00H
	DD	2 DUP(00H)
	DD	2 DUP(00H)
	DD	00H
	DD	05H
xdata$x	ENDS
; Function compile flags: /Odsp
;	COMDAT ?GetGripRegion@CCrossLineDrawer@@$2PPPPPPPM@A@AE?AVCRect@@ABV2@ABVCPoint@@@Z
_TEXT	SEGMENT
?GetGripRegion@CCrossLineDrawer@@$2PPPPPPPM@A@AE?AVCRect@@ABV2@ABVCPoint@@@Z PROC ; CCrossLineDrawer::GetGripRegion, COMDAT
  00000	2b 49 fc	 sub	 ecx, DWORD PTR [ecx-4]
  00003	e9 00 00 00 00	 jmp	 ?GetGripRegion@CCrossLineDrawer@@MAE?AVCRect@@ABV2@ABVCPoint@@@Z ; CCrossLineDrawer::GetGripRegion
?GetGripRegion@CCrossLineDrawer@@$2PPPPPPPM@A@AE?AVCRect@@ABV2@ABVCPoint@@@Z ENDP ; CCrossLineDrawer::GetGripRegion
_TEXT	ENDS
; Function compile flags: /Odsp
;	COMDAT ?DrawTextA@CCrossLineDrawer@@$2PPPPPPPM@A@AEXPAVCDC@@ABVCOnePointDrawingData@@@Z
_TEXT	SEGMENT
?DrawTextA@CCrossLineDrawer@@$2PPPPPPPM@A@AEXPAVCDC@@ABVCOnePointDrawingData@@@Z PROC ; CCrossLineDrawer::DrawTextA, COMDAT
  00000	2b 49 fc	 sub	 ecx, DWORD PTR [ecx-4]
  00003	e9 00 00 00 00	 jmp	 ?DrawTextA@CCrossLineDrawer@@MAEXPAVCDC@@ABVCOnePointDrawingData@@@Z ; CCrossLineDrawer::DrawTextA
?DrawTextA@CCrossLineDrawer@@$2PPPPPPPM@A@AEXPAVCDC@@ABVCOnePointDrawingData@@@Z ENDP ; CCrossLineDrawer::DrawTextA
_TEXT	ENDS
; Function compile flags: /Odsp
;	COMDAT ?DrawShape@CCrossLineDrawer@@$2PPPPPPPM@A@AEXPAVCDC@@ABVCOnePointDrawingData@@ABVCDisplayData@@ABVCPoint@@_N@Z
_TEXT	SEGMENT
?DrawShape@CCrossLineDrawer@@$2PPPPPPPM@A@AEXPAVCDC@@ABVCOnePointDrawingData@@ABVCDisplayData@@ABVCPoint@@_N@Z PROC ; CCrossLineDrawer::DrawShape, COMDAT
  00000	2b 49 fc	 sub	 ecx, DWORD PTR [ecx-4]
  00003	e9 00 00 00 00	 jmp	 ?DrawShape@CCrossLineDrawer@@MAEXPAVCDC@@ABVCOnePointDrawingData@@ABVCDisplayData@@ABVCPoint@@_N@Z ; CCrossLineDrawer::DrawShape
?DrawShape@CCrossLineDrawer@@$2PPPPPPPM@A@AEXPAVCDC@@ABVCOnePointDrawingData@@ABVCDisplayData@@ABVCPoint@@_N@Z ENDP ; CCrossLineDrawer::DrawShape
_TEXT	ENDS
; Function compile flags: /Odsp
;	COMDAT ?IsDrawing@CCrossLineDrawer@@$2PPPPPPPM@A@BE_NABVCRect@@ABVCPoint@@@Z
_TEXT	SEGMENT
?IsDrawing@CCrossLineDrawer@@$2PPPPPPPM@A@BE_NABVCRect@@ABVCPoint@@@Z PROC ; CCrossLineDrawer::IsDrawing, COMDAT
  00000	2b 49 fc	 sub	 ecx, DWORD PTR [ecx-4]
  00003	e9 00 00 00 00	 jmp	 ?IsDrawing@CCrossLineDrawer@@MBE_NABVCRect@@ABVCPoint@@@Z ; CCrossLineDrawer::IsDrawing
?IsDrawing@CCrossLineDrawer@@$2PPPPPPPM@A@BE_NABVCRect@@ABVCPoint@@@Z ENDP ; CCrossLineDrawer::IsDrawing
_TEXT	ENDS
; Function compile flags: /Ogtp
; File D:\git\src\IBK\IBK_DRFN\ProjSrc\SrcChartEx\ChartAddIn\ChartAnalysisToolAddIn\AnalysisTool\LineTool.cpp
;	COMDAT ?GetThreePointDrawer@CAdjustRatioTool@@MAEAAVCThreePointDrawer@@XZ
_TEXT	SEGMENT
?GetThreePointDrawer@CAdjustRatioTool@@MAEAAVCThreePointDrawer@@XZ PROC ; CAdjustRatioTool::GetThreePointDrawer, COMDAT
; _this$ = ecx

; 724  : 	return m_adjustRatioDrawer;

  00000	8d 81 00 01 00
	00		 lea	 eax, DWORD PTR [ecx+256]

; 725  : }

  00006	c3		 ret	 0
?GetThreePointDrawer@CAdjustRatioTool@@MAEAAVCThreePointDrawer@@XZ ENDP ; CAdjustRatioTool::GetThreePointDrawer
_TEXT	ENDS
; Function compile flags: /Ogtp
; File D:\git\src\IBK\IBK_DRFN\ProjSrc\SrcChartEx\ChartAddIn\ChartAnalysisToolAddIn\AnalysisTool\LineTool.cpp
;	COMDAT ?GetToolType@CAdjustRatioTool@@MBE?AW4TOOLTYPE@CAnalysis@@XZ
_TEXT	SEGMENT
?GetToolType@CAdjustRatioTool@@MBE?AW4TOOLTYPE@CAnalysis@@XZ PROC ; CAdjustRatioTool::GetToolType, COMDAT
; _this$ = ecx

; 719  : 	return CAnalysis::EN_ANALYSIS_ADJUST_RATIO;

  00000	b8 20 00 00 00	 mov	 eax, 32			; 00000020H

; 720  : }

  00005	c3		 ret	 0
?GetToolType@CAdjustRatioTool@@MBE?AW4TOOLTYPE@CAnalysis@@XZ ENDP ; CAdjustRatioTool::GetToolType
_TEXT	ENDS
; Function compile flags: /Ogtp
; File D:\git\src\IBK\IBK_DRFN\ProjSrc\SrcChartEx\ChartAddIn\ChartAnalysisToolAddIn\AnalysisTool\LineTool.cpp
;	COMDAT ??0CAdjustRatioTool@@QAE@PAVCAnalysisData@@W4COORDINATETYPE@CAnalysis@@@Z
_TEXT	SEGMENT
_this$ = -16						; size = 4
__$EHRec$ = -12						; size = 12
_pAnalysisData$ = 8					; size = 4
_eCoordinateType$ = 12					; size = 4
??0CAdjustRatioTool@@QAE@PAVCAnalysisData@@W4COORDINATETYPE@CAnalysis@@@Z PROC ; CAdjustRatioTool::CAdjustRatioTool, COMDAT
; _this$ = ecx

; 713  : {

  00000	55		 push	 ebp
  00001	8b ec		 mov	 ebp, esp
  00003	6a ff		 push	 -1
  00005	68 00 00 00 00	 push	 __ehhandler$??0CAdjustRatioTool@@QAE@PAVCAnalysisData@@W4COORDINATETYPE@CAnalysis@@@Z
  0000a	64 a1 00 00 00
	00		 mov	 eax, DWORD PTR fs:0
  00010	50		 push	 eax
  00011	51		 push	 ecx
  00012	56		 push	 esi
  00013	a1 00 00 00 00	 mov	 eax, DWORD PTR ___security_cookie
  00018	33 c5		 xor	 eax, ebp
  0001a	50		 push	 eax
  0001b	8d 45 f4	 lea	 eax, DWORD PTR __$EHRec$[ebp]
  0001e	64 a3 00 00 00
	00		 mov	 DWORD PTR fs:0, eax
  00024	8b f1		 mov	 esi, ecx
  00026	89 75 f0	 mov	 DWORD PTR _this$[ebp], esi

; 712  : 	CThreePointDownTool(pAnalysisData, eCoordinateType)

  00029	ff 75 0c	 push	 DWORD PTR _eCoordinateType$[ebp]
  0002c	ff 75 08	 push	 DWORD PTR _pAnalysisData$[ebp]
  0002f	e8 00 00 00 00	 call	 ??0CThreePointDownTool@@IAE@PAVCAnalysisData@@W4COORDINATETYPE@CAnalysis@@@Z ; CThreePointDownTool::CThreePointDownTool
  00034	8d 8e 04 01 00
	00		 lea	 ecx, DWORD PTR [esi+260]
  0003a	c7 45 fc 00 00
	00 00		 mov	 DWORD PTR __$EHRec$[ebp+8], 0

; 713  : {

  00041	c7 06 00 00 00
	00		 mov	 DWORD PTR [esi], OFFSET ??_7CAdjustRatioTool@@6B@
  00047	e8 00 00 00 00	 call	 ??0CDrawer@@QAE@XZ	; CDrawer::CDrawer
  0004c	c7 86 00 01 00
	00 00 00 00 00	 mov	 DWORD PTR [esi+256], OFFSET ??_7CAdjustRatioDrawer@@6B@

; 714  : }

  00056	8b c6		 mov	 eax, esi
  00058	8b 4d f4	 mov	 ecx, DWORD PTR __$EHRec$[ebp]
  0005b	64 89 0d 00 00
	00 00		 mov	 DWORD PTR fs:0, ecx
  00062	59		 pop	 ecx
  00063	5e		 pop	 esi
  00064	8b e5		 mov	 esp, ebp
  00066	5d		 pop	 ebp
  00067	c2 08 00	 ret	 8
_TEXT	ENDS
;	COMDAT text$x
text$x	SEGMENT
__unwindfunclet$??0CAdjustRatioTool@@QAE@PAVCAnalysisData@@W4COORDINATETYPE@CAnalysis@@@Z$0:
  00000	8b 4d f0	 mov	 ecx, DWORD PTR _this$[ebp]
  00003	e9 00 00 00 00	 jmp	 ??1CThreePointDownTool@@QAE@XZ
  00008	cc		 int	 3
  00009	cc		 int	 3
  0000a	cc		 int	 3
  0000b	cc		 int	 3
  0000c	cc		 int	 3
__ehhandler$??0CAdjustRatioTool@@QAE@PAVCAnalysisData@@W4COORDINATETYPE@CAnalysis@@@Z:
  0000d	90		 npad	 1
  0000e	90		 npad	 1
  0000f	8b 54 24 08	 mov	 edx, DWORD PTR [esp+8]
  00013	8d 42 0c	 lea	 eax, DWORD PTR [edx+12]
  00016	8b 4a f4	 mov	 ecx, DWORD PTR [edx-12]
  00019	33 c8		 xor	 ecx, eax
  0001b	e8 00 00 00 00	 call	 @__security_check_cookie@4
  00020	b8 00 00 00 00	 mov	 eax, OFFSET __ehfuncinfo$??0CAdjustRatioTool@@QAE@PAVCAnalysisData@@W4COORDINATETYPE@CAnalysis@@@Z
  00025	e9 00 00 00 00	 jmp	 ___CxxFrameHandler3
text$x	ENDS
??0CAdjustRatioTool@@QAE@PAVCAnalysisData@@W4COORDINATETYPE@CAnalysis@@@Z ENDP ; CAdjustRatioTool::CAdjustRatioTool
; Function compile flags: /Ogtp
; File D:\git\src\IBK\IBK_DRFN\ProjSrc\SrcChartEx\ChartAddIn\ChartAnalysisToolAddIn\AnalysisTool\LineTool.cpp
;	COMDAT ?GetTwoPointDrawer@CElliotLineTool@@MAEAAVCTwoPointDrawer@@XZ
_TEXT	SEGMENT
?GetTwoPointDrawer@CElliotLineTool@@MAEAAVCTwoPointDrawer@@XZ PROC ; CElliotLineTool::GetTwoPointDrawer, COMDAT
; _this$ = ecx

; 705  : 	return m_elliotLineDrawer;

  00000	8d 81 f8 00 00
	00		 lea	 eax, DWORD PTR [ecx+248]

; 706  : }

  00006	c3		 ret	 0
?GetTwoPointDrawer@CElliotLineTool@@MAEAAVCTwoPointDrawer@@XZ ENDP ; CElliotLineTool::GetTwoPointDrawer
_TEXT	ENDS
; Function compile flags: /Ogtp
; File D:\git\src\IBK\IBK_DRFN\ProjSrc\SrcChartEx\ChartAddIn\ChartAnalysisToolAddIn\AnalysisTool\LineTool.cpp
;	COMDAT ?GetToolType@CElliotLineTool@@MBE?AW4TOOLTYPE@CAnalysis@@XZ
_TEXT	SEGMENT
?GetToolType@CElliotLineTool@@MBE?AW4TOOLTYPE@CAnalysis@@XZ PROC ; CElliotLineTool::GetToolType, COMDAT
; _this$ = ecx

; 700  : 	return CAnalysis::EN_ANALYSIS_ELLIOT_WAVE_LINE;

  00000	b8 15 00 00 00	 mov	 eax, 21			; 00000015H

; 701  : }

  00005	c3		 ret	 0
?GetToolType@CElliotLineTool@@MBE?AW4TOOLTYPE@CAnalysis@@XZ ENDP ; CElliotLineTool::GetToolType
_TEXT	ENDS
; Function compile flags: /Ogtp
; File D:\git\src\IBK\IBK_DRFN\ProjSrc\SrcChartEx\ChartAddIn\ChartAnalysisToolAddIn\AnalysisTool\LineTool.cpp
;	COMDAT ??0CElliotLineTool@@QAE@PAVCAnalysisData@@W4COORDINATETYPE@CAnalysis@@@Z
_TEXT	SEGMENT
_this$ = -16						; size = 4
__$EHRec$ = -12						; size = 12
_pAnalysisData$ = 8					; size = 4
_eCoordinateType$ = 12					; size = 4
??0CElliotLineTool@@QAE@PAVCAnalysisData@@W4COORDINATETYPE@CAnalysis@@@Z PROC ; CElliotLineTool::CElliotLineTool, COMDAT
; _this$ = ecx

; 694  : {

  00000	55		 push	 ebp
  00001	8b ec		 mov	 ebp, esp
  00003	6a ff		 push	 -1
  00005	68 00 00 00 00	 push	 __ehhandler$??0CElliotLineTool@@QAE@PAVCAnalysisData@@W4COORDINATETYPE@CAnalysis@@@Z
  0000a	64 a1 00 00 00
	00		 mov	 eax, DWORD PTR fs:0
  00010	50		 push	 eax
  00011	51		 push	 ecx
  00012	56		 push	 esi
  00013	a1 00 00 00 00	 mov	 eax, DWORD PTR ___security_cookie
  00018	33 c5		 xor	 eax, ebp
  0001a	50		 push	 eax
  0001b	8d 45 f4	 lea	 eax, DWORD PTR __$EHRec$[ebp]
  0001e	64 a3 00 00 00
	00		 mov	 DWORD PTR fs:0, eax
  00024	8b f1		 mov	 esi, ecx
  00026	89 75 f0	 mov	 DWORD PTR _this$[ebp], esi

; 692  : 	: CTwoPointDownTool(pAnalysisData, eCoordinateType)

  00029	ff 75 0c	 push	 DWORD PTR _eCoordinateType$[ebp]
  0002c	ff 75 08	 push	 DWORD PTR _pAnalysisData$[ebp]
  0002f	e8 00 00 00 00	 call	 ??0CTwoPointDownTool@@IAE@PAVCAnalysisData@@W4COORDINATETYPE@CAnalysis@@@Z ; CTwoPointDownTool::CTwoPointDownTool

; 694  : {

  00034	c7 06 00 00 00
	00		 mov	 DWORD PTR [esi], OFFSET ??_7CElliotLineTool@@6B@
  0003a	8d 8e 00 01 00
	00		 lea	 ecx, DWORD PTR [esi+256]
  00040	c7 45 fc 00 00
	00 00		 mov	 DWORD PTR __$EHRec$[ebp+8], 0
  00047	c7 86 fc 00 00
	00 00 00 00 00	 mov	 DWORD PTR [esi+252], OFFSET ??_8CElliotLineDrawer@@7B@
  00051	e8 00 00 00 00	 call	 ??0CDrawer@@QAE@XZ	; CDrawer::CDrawer
  00056	c7 86 f8 00 00
	00 00 00 00 00	 mov	 DWORD PTR [esi+248], OFFSET ??_7CElliotLineDrawer@@6B@

; 695  : }

  00060	8b c6		 mov	 eax, esi
  00062	8b 4d f4	 mov	 ecx, DWORD PTR __$EHRec$[ebp]
  00065	64 89 0d 00 00
	00 00		 mov	 DWORD PTR fs:0, ecx
  0006c	59		 pop	 ecx
  0006d	5e		 pop	 esi
  0006e	8b e5		 mov	 esp, ebp
  00070	5d		 pop	 ebp
  00071	c2 08 00	 ret	 8
  00074	cc		 int	 3
  00075	cc		 int	 3
  00076	cc		 int	 3
  00077	cc		 int	 3
  00078	cc		 int	 3
_TEXT	ENDS
;	COMDAT text$x
text$x	SEGMENT
__ehhandler$??0CElliotLineTool@@QAE@PAVCAnalysisData@@W4COORDINATETYPE@CAnalysis@@@Z:
  00000	90		 npad	 1
  00001	90		 npad	 1
  00002	8b 54 24 08	 mov	 edx, DWORD PTR [esp+8]
  00006	8d 42 0c	 lea	 eax, DWORD PTR [edx+12]
  00009	8b 4a f4	 mov	 ecx, DWORD PTR [edx-12]
  0000c	33 c8		 xor	 ecx, eax
  0000e	e8 00 00 00 00	 call	 @__security_check_cookie@4
  00013	b8 00 00 00 00	 mov	 eax, OFFSET __ehfuncinfo$??0CElliotLineTool@@QAE@PAVCAnalysisData@@W4COORDINATETYPE@CAnalysis@@@Z
  00018	e9 00 00 00 00	 jmp	 ___CxxFrameHandler3
text$x	ENDS
??0CElliotLineTool@@QAE@PAVCAnalysisData@@W4COORDINATETYPE@CAnalysis@@@Z ENDP ; CElliotLineTool::CElliotLineTool
; Function compile flags: /Ogtp
; File D:\git\src\IBK\IBK_DRFN\ProjSrc\SrcChartEx\ChartAddIn\ChartAnalysisToolAddIn\AnalysisTool\LineTool.cpp
;	COMDAT ?GetTwoPointDrawer@CPeriodSumLineTool@@MAEAAVCTwoPointDrawer@@XZ
_TEXT	SEGMENT
?GetTwoPointDrawer@CPeriodSumLineTool@@MAEAAVCTwoPointDrawer@@XZ PROC ; CPeriodSumLineTool::GetTwoPointDrawer, COMDAT
; _this$ = ecx

; 685  : 	return m_periodSumLineDrawer;

  00000	8d 81 04 01 00
	00		 lea	 eax, DWORD PTR [ecx+260]

; 686  : }

  00006	c3		 ret	 0
?GetTwoPointDrawer@CPeriodSumLineTool@@MAEAAVCTwoPointDrawer@@XZ ENDP ; CPeriodSumLineTool::GetTwoPointDrawer
_TEXT	ENDS
; Function compile flags: /Ogtp
; File D:\git\src\IBK\IBK_DRFN\ProjSrc\SrcChartEx\ChartAddIn\ChartAnalysisToolAddIn\AnalysisTool\LineTool.cpp
;	COMDAT ?GetTextPosition@CPeriodSumLineTool@@MAEPAVCTextPosition@@XZ
_TEXT	SEGMENT
?GetTextPosition@CPeriodSumLineTool@@MAEPAVCTextPosition@@XZ PROC ; CPeriodSumLineTool::GetTextPosition, COMDAT
; _this$ = ecx

; 680  : 	return &m_textPosition;

  00000	8d 81 f8 00 00
	00		 lea	 eax, DWORD PTR [ecx+248]

; 681  : }

  00006	c3		 ret	 0
?GetTextPosition@CPeriodSumLineTool@@MAEPAVCTextPosition@@XZ ENDP ; CPeriodSumLineTool::GetTextPosition
_TEXT	ENDS
; Function compile flags: /Ogtp
; File D:\git\src\IBK\IBK_DRFN\ProjSrc\SrcChartEx\ChartAddIn\ChartAnalysisToolAddIn\AnalysisTool\LineTool.cpp
;	COMDAT ?GetTextPosition@CPeriodSumLineTool@@MBEPBVCTextPosition@@XZ
_TEXT	SEGMENT
?GetTextPosition@CPeriodSumLineTool@@MBEPBVCTextPosition@@XZ PROC ; CPeriodSumLineTool::GetTextPosition, COMDAT
; _this$ = ecx

; 675  : 	return &m_textPosition;

  00000	8d 81 f8 00 00
	00		 lea	 eax, DWORD PTR [ecx+248]

; 676  : }

  00006	c3		 ret	 0
?GetTextPosition@CPeriodSumLineTool@@MBEPBVCTextPosition@@XZ ENDP ; CPeriodSumLineTool::GetTextPosition
_TEXT	ENDS
; Function compile flags: /Ogtp
; File D:\git\src\IBK\IBK_DRFN\ProjSrc\SrcChartEx\ChartAddIn\ChartAnalysisToolAddIn\AnalysisTool\LineTool.cpp
;	COMDAT ?GetToolType@CPeriodSumLineTool@@MBE?AW4TOOLTYPE@CAnalysis@@XZ
_TEXT	SEGMENT
?GetToolType@CPeriodSumLineTool@@MBE?AW4TOOLTYPE@CAnalysis@@XZ PROC ; CPeriodSumLineTool::GetToolType, COMDAT
; _this$ = ecx

; 670  : 	return CAnalysis::EN_ANALYSIS_PERIOD_SUMMARY;

  00000	b8 21 00 00 00	 mov	 eax, 33			; 00000021H

; 671  : }

  00005	c3		 ret	 0
?GetToolType@CPeriodSumLineTool@@MBE?AW4TOOLTYPE@CAnalysis@@XZ ENDP ; CPeriodSumLineTool::GetToolType
_TEXT	ENDS
; Function compile flags: /Ogtp
; File D:\git\src\IBK\IBK_DRFN\ProjSrc\SrcChartEx\ChartAddIn\ChartAnalysisToolAddIn\AnalysisTool\LineTool.cpp
;	COMDAT ?SetTextEnvironment@CPeriodSumLineTool@@QAEXABVCTextEnvironment@@@Z
_TEXT	SEGMENT
_textEnvironment$ = 8					; size = 4
?SetTextEnvironment@CPeriodSumLineTool@@QAEXABVCTextEnvironment@@@Z PROC ; CPeriodSumLineTool::SetTextEnvironment, COMDAT
; _this$ = ecx

; 663  : {

  00000	55		 push	 ebp
  00001	8b ec		 mov	 ebp, esp

; 664  : 	m_textPosition.SetTextEnvironment(textEnvironment);

  00003	81 c1 f8 00 00
	00		 add	 ecx, 248		; 000000f8H

; 665  : }

  00009	5d		 pop	 ebp

; 664  : 	m_textPosition.SetTextEnvironment(textEnvironment);

  0000a	e9 00 00 00 00	 jmp	 ?SetTextEnvironment@CTextPosition@@QAEXABVCTextEnvironment@@@Z ; CTextPosition::SetTextEnvironment
?SetTextEnvironment@CPeriodSumLineTool@@QAEXABVCTextEnvironment@@@Z ENDP ; CPeriodSumLineTool::SetTextEnvironment
_TEXT	ENDS
; Function compile flags: /Ogtp
; File D:\git\src\IBK\IBK_DRFN\ProjSrc\SrcChartEx\ChartAddIn\ChartAnalysisToolAddIn\AnalysisTool\LineTool.cpp
;	COMDAT ?SetTextPosition@CPeriodSumLineTool@@QAEX_N0@Z
_TEXT	SEGMENT
_bLeft$ = 8						; size = 1
_bRight$ = 12						; size = 1
?SetTextPosition@CPeriodSumLineTool@@QAEX_N0@Z PROC	; CPeriodSumLineTool::SetTextPosition, COMDAT
; _this$ = ecx

; 657  : {

  00000	55		 push	 ebp
  00001	8b ec		 mov	 ebp, esp
  00003	56		 push	 esi

; 658  : 	m_textPosition.SetLeft(bLeft);

  00004	ff 75 08	 push	 DWORD PTR _bLeft$[ebp]
  00007	8d b1 f8 00 00
	00		 lea	 esi, DWORD PTR [ecx+248]
  0000d	8b ce		 mov	 ecx, esi
  0000f	e8 00 00 00 00	 call	 ?SetLeft@CTextHorzPosition@@QAEX_N@Z ; CTextHorzPosition::SetLeft

; 659  : 	m_textPosition.SetRight(bRight);

  00014	ff 75 0c	 push	 DWORD PTR _bRight$[ebp]
  00017	8b ce		 mov	 ecx, esi
  00019	e8 00 00 00 00	 call	 ?SetRight@CTextHorzPosition@@QAEX_N@Z ; CTextHorzPosition::SetRight
  0001e	5e		 pop	 esi

; 660  : }

  0001f	5d		 pop	 ebp
  00020	c2 08 00	 ret	 8
?SetTextPosition@CPeriodSumLineTool@@QAEX_N0@Z ENDP	; CPeriodSumLineTool::SetTextPosition
_TEXT	ENDS
; Function compile flags: /Ogtp
; File D:\git\src\IBK\IBK_DRFN\ProjSrc\SrcChartEx\ChartAddIn\ChartAnalysisToolAddIn\AnalysisTool\LineTool.cpp
;	COMDAT ?SetTextPosition@CPeriodSumLineTool@@QAEXABVCTextHorzPosition@@@Z
_TEXT	SEGMENT
_position$ = 8						; size = 4
?SetTextPosition@CPeriodSumLineTool@@QAEXABVCTextHorzPosition@@@Z PROC ; CPeriodSumLineTool::SetTextPosition, COMDAT
; _this$ = ecx

; 652  : {

  00000	55		 push	 ebp
  00001	8b ec		 mov	 ebp, esp
  00003	56		 push	 esi

; 653  : 	m_textPosition = position;

  00004	8b 75 08	 mov	 esi, DWORD PTR _position$[ebp]
  00007	57		 push	 edi
  00008	8d b9 f8 00 00
	00		 lea	 edi, DWORD PTR [ecx+248]
  0000e	56		 push	 esi
  0000f	8b cf		 mov	 ecx, edi
  00011	e8 00 00 00 00	 call	 ??4CTextPosition@@QAEAAV0@ABV0@@Z ; CTextPosition::operator=
  00016	0f b6 46 08	 movzx	 eax, BYTE PTR [esi+8]
  0001a	88 47 08	 mov	 BYTE PTR [edi+8], al
  0001d	0f b6 46 09	 movzx	 eax, BYTE PTR [esi+9]
  00021	88 47 09	 mov	 BYTE PTR [edi+9], al
  00024	0f b6 46 0a	 movzx	 eax, BYTE PTR [esi+10]
  00028	88 47 0a	 mov	 BYTE PTR [edi+10], al
  0002b	5f		 pop	 edi
  0002c	5e		 pop	 esi

; 654  : }

  0002d	5d		 pop	 ebp
  0002e	c2 04 00	 ret	 4
?SetTextPosition@CPeriodSumLineTool@@QAEXABVCTextHorzPosition@@@Z ENDP ; CPeriodSumLineTool::SetTextPosition
_TEXT	ENDS
; Function compile flags: /Ogtp
; File D:\git\src\IBK\IBK_DRFN\ProjSrc\SrcChartEx\ChartAddIn\ChartAnalysisToolAddIn\AnalysisTool\LineTool.cpp
;	COMDAT ??0CPeriodSumLineTool@@QAE@PAVCAnalysisData@@W4COORDINATETYPE@CAnalysis@@@Z
_TEXT	SEGMENT
_this$ = -16						; size = 4
__$EHRec$ = -12						; size = 12
$T2 = 8							; size = 4
_pAnalysisData$ = 8					; size = 4
$T3 = 12						; size = 4
_eCoordinateType$ = 12					; size = 4
??0CPeriodSumLineTool@@QAE@PAVCAnalysisData@@W4COORDINATETYPE@CAnalysis@@@Z PROC ; CPeriodSumLineTool::CPeriodSumLineTool, COMDAT
; _this$ = ecx

; 648  : {

  00000	55		 push	 ebp
  00001	8b ec		 mov	 ebp, esp
  00003	6a ff		 push	 -1
  00005	68 00 00 00 00	 push	 __ehhandler$??0CPeriodSumLineTool@@QAE@PAVCAnalysisData@@W4COORDINATETYPE@CAnalysis@@@Z
  0000a	64 a1 00 00 00
	00		 mov	 eax, DWORD PTR fs:0
  00010	50		 push	 eax
  00011	51		 push	 ecx
  00012	56		 push	 esi
  00013	a1 00 00 00 00	 mov	 eax, DWORD PTR ___security_cookie
  00018	33 c5		 xor	 eax, ebp
  0001a	50		 push	 eax
  0001b	8d 45 f4	 lea	 eax, DWORD PTR __$EHRec$[ebp]
  0001e	64 a3 00 00 00
	00		 mov	 DWORD PTR fs:0, eax
  00024	8b f1		 mov	 esi, ecx
  00026	89 75 f0	 mov	 DWORD PTR _this$[ebp], esi

; 646  : 	CTwoPointDownTool(pAnalysisData, eCoordinateType),

  00029	ff 75 0c	 push	 DWORD PTR _eCoordinateType$[ebp]
  0002c	ff 75 08	 push	 DWORD PTR _pAnalysisData$[ebp]
  0002f	e8 00 00 00 00	 call	 ??0CTwoPointDownTool@@IAE@PAVCAnalysisData@@W4COORDINATETYPE@CAnalysis@@@Z ; CTwoPointDownTool::CTwoPointDownTool

; 647  : 	m_textPosition(CTextEnvironment(RGB(0, 0, 0)), true, true)

  00034	6a 01		 push	 1
  00036	6a 01		 push	 1
  00038	6a 01		 push	 1
  0003a	8d 45 0c	 lea	 eax, DWORD PTR $T3[ebp]
  0003d	c7 45 fc 00 00
	00 00		 mov	 DWORD PTR __$EHRec$[ebp+8], 0
  00044	50		 push	 eax
  00045	8d 4d 08	 lea	 ecx, DWORD PTR $T2[ebp]

; 648  : {

  00048	c7 06 00 00 00
	00		 mov	 DWORD PTR [esi], OFFSET ??_7CPeriodSumLineTool@@6B@
  0004e	c7 45 0c 00 00
	00 00		 mov	 DWORD PTR $T3[ebp], 0
  00055	e8 00 00 00 00	 call	 ??0CTextEnvironment@@QAE@ABK@Z ; CTextEnvironment::CTextEnvironment
  0005a	50		 push	 eax
  0005b	8d 8e f8 00 00
	00		 lea	 ecx, DWORD PTR [esi+248]
  00061	e8 00 00 00 00	 call	 ??0CTextHorzPosition@@QAE@ABVCTextEnvironment@@_N11@Z ; CTextHorzPosition::CTextHorzPosition
  00066	8d 8e 0c 01 00
	00		 lea	 ecx, DWORD PTR [esi+268]
  0006c	c6 45 fc 01	 mov	 BYTE PTR __$EHRec$[ebp+8], 1
  00070	c7 86 08 01 00
	00 00 00 00 00	 mov	 DWORD PTR [esi+264], OFFSET ??_8CPeriodSumLineDrawer@@7B@
  0007a	e8 00 00 00 00	 call	 ??0CDrawer@@QAE@XZ	; CDrawer::CDrawer
  0007f	c7 86 04 01 00
	00 00 00 00 00	 mov	 DWORD PTR [esi+260], OFFSET ??_7CPeriodSumLineDrawer@@6B@

; 649  : }

  00089	8b c6		 mov	 eax, esi
  0008b	8b 4d f4	 mov	 ecx, DWORD PTR __$EHRec$[ebp]
  0008e	64 89 0d 00 00
	00 00		 mov	 DWORD PTR fs:0, ecx
  00095	59		 pop	 ecx
  00096	5e		 pop	 esi
  00097	8b e5		 mov	 esp, ebp
  00099	5d		 pop	 ebp
  0009a	c2 08 00	 ret	 8
_TEXT	ENDS
;	COMDAT text$x
text$x	SEGMENT
__unwindfunclet$??0CPeriodSumLineTool@@QAE@PAVCAnalysisData@@W4COORDINATETYPE@CAnalysis@@@Z$0:
  00000	8b 4d f0	 mov	 ecx, DWORD PTR _this$[ebp]
  00003	e9 00 00 00 00	 jmp	 ??1CTwoPointDownTool@@QAE@XZ
  00008	cc		 int	 3
  00009	cc		 int	 3
  0000a	cc		 int	 3
  0000b	cc		 int	 3
  0000c	cc		 int	 3
__ehhandler$??0CPeriodSumLineTool@@QAE@PAVCAnalysisData@@W4COORDINATETYPE@CAnalysis@@@Z:
  0000d	90		 npad	 1
  0000e	90		 npad	 1
  0000f	8b 54 24 08	 mov	 edx, DWORD PTR [esp+8]
  00013	8d 42 0c	 lea	 eax, DWORD PTR [edx+12]
  00016	8b 4a f4	 mov	 ecx, DWORD PTR [edx-12]
  00019	33 c8		 xor	 ecx, eax
  0001b	e8 00 00 00 00	 call	 @__security_check_cookie@4
  00020	b8 00 00 00 00	 mov	 eax, OFFSET __ehfuncinfo$??0CPeriodSumLineTool@@QAE@PAVCAnalysisData@@W4COORDINATETYPE@CAnalysis@@@Z
  00025	e9 00 00 00 00	 jmp	 ___CxxFrameHandler3
text$x	ENDS
??0CPeriodSumLineTool@@QAE@PAVCAnalysisData@@W4COORDINATETYPE@CAnalysis@@@Z ENDP ; CPeriodSumLineTool::CPeriodSumLineTool
; Function compile flags: /Ogtp
; File D:\git\src\IBK\IBK_DRFN\ProjSrc\SrcChartEx\ChartAddIn\ChartAnalysisToolAddIn\AnalysisTool\LineTool.cpp
;	COMDAT ?GetMultiPointDrawer@CPencilLineTool@@MAEAAVCMultiPointDrawer@@XZ
_TEXT	SEGMENT
?GetMultiPointDrawer@CPencilLineTool@@MAEAAVCMultiPointDrawer@@XZ PROC ; CPencilLineTool::GetMultiPointDrawer, COMDAT
; _this$ = ecx

; 639  : 	return m_pencilLineDrawer;

  00000	8d 81 a8 4e 00
	00		 lea	 eax, DWORD PTR [ecx+20136]

; 640  : }

  00006	c3		 ret	 0
?GetMultiPointDrawer@CPencilLineTool@@MAEAAVCMultiPointDrawer@@XZ ENDP ; CPencilLineTool::GetMultiPointDrawer
_TEXT	ENDS
; Function compile flags: /Ogtp
; File D:\git\src\IBK\IBK_DRFN\ProjSrc\SrcChartEx\ChartAddIn\ChartAnalysisToolAddIn\AnalysisTool\LineTool.cpp
;	COMDAT ?GetToolType@CPencilLineTool@@MBE?AW4TOOLTYPE@CAnalysis@@XZ
_TEXT	SEGMENT
?GetToolType@CPencilLineTool@@MBE?AW4TOOLTYPE@CAnalysis@@XZ PROC ; CPencilLineTool::GetToolType, COMDAT
; _this$ = ecx

; 634  : 	return CAnalysis::EN_ANALYSIS_PENCIL_LINE;

  00000	b8 23 00 00 00	 mov	 eax, 35			; 00000023H

; 635  : }

  00005	c3		 ret	 0
?GetToolType@CPencilLineTool@@MBE?AW4TOOLTYPE@CAnalysis@@XZ ENDP ; CPencilLineTool::GetToolType
_TEXT	ENDS
; Function compile flags: /Ogtp
; File D:\git\src\IBK\IBK_DRFN\ProjSrc\SrcChartEx\ChartAddIn\ChartAnalysisToolAddIn\AnalysisTool\LineTool.cpp
;	COMDAT ??0CPencilLineTool@@QAE@PAVCAnalysisData@@W4COORDINATETYPE@CAnalysis@@@Z
_TEXT	SEGMENT
_this$ = -16						; size = 4
__$EHRec$ = -12						; size = 12
_pAnalysisData$ = 8					; size = 4
_eCoordinateType$ = 12					; size = 4
??0CPencilLineTool@@QAE@PAVCAnalysisData@@W4COORDINATETYPE@CAnalysis@@@Z PROC ; CPencilLineTool::CPencilLineTool, COMDAT
; _this$ = ecx

; 628  : {

  00000	55		 push	 ebp
  00001	8b ec		 mov	 ebp, esp
  00003	6a ff		 push	 -1
  00005	68 00 00 00 00	 push	 __ehhandler$??0CPencilLineTool@@QAE@PAVCAnalysisData@@W4COORDINATETYPE@CAnalysis@@@Z
  0000a	64 a1 00 00 00
	00		 mov	 eax, DWORD PTR fs:0
  00010	50		 push	 eax
  00011	51		 push	 ecx
  00012	56		 push	 esi
  00013	a1 00 00 00 00	 mov	 eax, DWORD PTR ___security_cookie
  00018	33 c5		 xor	 eax, ebp
  0001a	50		 push	 eax
  0001b	8d 45 f4	 lea	 eax, DWORD PTR __$EHRec$[ebp]
  0001e	64 a3 00 00 00
	00		 mov	 DWORD PTR fs:0, eax
  00024	8b f1		 mov	 esi, ecx
  00026	89 75 f0	 mov	 DWORD PTR _this$[ebp], esi

; 626  : 	: CMultiPointDownTool(pAnalysisData, eCoordinateType)

  00029	ff 75 0c	 push	 DWORD PTR _eCoordinateType$[ebp]
  0002c	ff 75 08	 push	 DWORD PTR _pAnalysisData$[ebp]
  0002f	e8 00 00 00 00	 call	 ??0CMultiPointDownTool@@IAE@PAVCAnalysisData@@W4COORDINATETYPE@CAnalysis@@@Z ; CMultiPointDownTool::CMultiPointDownTool
  00034	8d 8e ac 4e 00
	00		 lea	 ecx, DWORD PTR [esi+20140]
  0003a	c7 45 fc 00 00
	00 00		 mov	 DWORD PTR __$EHRec$[ebp+8], 0

; 628  : {

  00041	c7 06 00 00 00
	00		 mov	 DWORD PTR [esi], OFFSET ??_7CPencilLineTool@@6B@
  00047	e8 00 00 00 00	 call	 ??0CDrawer@@QAE@XZ	; CDrawer::CDrawer
  0004c	c7 86 a8 4e 00
	00 00 00 00 00	 mov	 DWORD PTR [esi+20136], OFFSET ??_7CPencilLineDrawer@@6B@

; 629  : }

  00056	8b c6		 mov	 eax, esi
  00058	8b 4d f4	 mov	 ecx, DWORD PTR __$EHRec$[ebp]
  0005b	64 89 0d 00 00
	00 00		 mov	 DWORD PTR fs:0, ecx
  00062	59		 pop	 ecx
  00063	5e		 pop	 esi
  00064	8b e5		 mov	 esp, ebp
  00066	5d		 pop	 ebp
  00067	c2 08 00	 ret	 8
_TEXT	ENDS
;	COMDAT text$x
text$x	SEGMENT
__unwindfunclet$??0CPencilLineTool@@QAE@PAVCAnalysisData@@W4COORDINATETYPE@CAnalysis@@@Z$0:
  00000	8b 4d f0	 mov	 ecx, DWORD PTR _this$[ebp]
  00003	e9 00 00 00 00	 jmp	 ??1CMultiPointDownTool@@QAE@XZ
  00008	cc		 int	 3
  00009	cc		 int	 3
  0000a	cc		 int	 3
  0000b	cc		 int	 3
  0000c	cc		 int	 3
__ehhandler$??0CPencilLineTool@@QAE@PAVCAnalysisData@@W4COORDINATETYPE@CAnalysis@@@Z:
  0000d	90		 npad	 1
  0000e	90		 npad	 1
  0000f	8b 54 24 08	 mov	 edx, DWORD PTR [esp+8]
  00013	8d 42 0c	 lea	 eax, DWORD PTR [edx+12]
  00016	8b 4a f4	 mov	 ecx, DWORD PTR [edx-12]
  00019	33 c8		 xor	 ecx, eax
  0001b	e8 00 00 00 00	 call	 @__security_check_cookie@4
  00020	b8 00 00 00 00	 mov	 eax, OFFSET __ehfuncinfo$??0CPencilLineTool@@QAE@PAVCAnalysisData@@W4COORDINATETYPE@CAnalysis@@@Z
  00025	e9 00 00 00 00	 jmp	 ___CxxFrameHandler3
text$x	ENDS
??0CPencilLineTool@@QAE@PAVCAnalysisData@@W4COORDINATETYPE@CAnalysis@@@Z ENDP ; CPencilLineTool::CPencilLineTool
; Function compile flags: /Ogtp
; File D:\git\src\IBK\IBK_DRFN\ProjSrc\SrcChartEx\ChartAddIn\ChartAnalysisToolAddIn\AnalysisTool\LineTool.cpp
;	COMDAT ?GetTwoPointDrawer@CCandleBongTool@@MAEAAVCTwoPointDrawer@@XZ
_TEXT	SEGMENT
?GetTwoPointDrawer@CCandleBongTool@@MAEAAVCTwoPointDrawer@@XZ PROC ; CCandleBongTool::GetTwoPointDrawer, COMDAT
; _this$ = ecx

; 619  : 	return m_candleBongDrawer;

  00000	8d 81 f8 00 00
	00		 lea	 eax, DWORD PTR [ecx+248]

; 620  : }

  00006	c3		 ret	 0
?GetTwoPointDrawer@CCandleBongTool@@MAEAAVCTwoPointDrawer@@XZ ENDP ; CCandleBongTool::GetTwoPointDrawer
_TEXT	ENDS
; Function compile flags: /Ogtp
; File D:\git\src\IBK\IBK_DRFN\ProjSrc\SrcChartEx\ChartAddIn\ChartAnalysisToolAddIn\AnalysisTool\LineTool.cpp
;	COMDAT ?GetToolType@CCandleBongTool@@MBE?AW4TOOLTYPE@CAnalysis@@XZ
_TEXT	SEGMENT
?GetToolType@CCandleBongTool@@MBE?AW4TOOLTYPE@CAnalysis@@XZ PROC ; CCandleBongTool::GetToolType, COMDAT
; _this$ = ecx

; 614  : 	return CAnalysis::EN_ANALYSIS_CANDLE_BONG;

  00000	b8 1f 00 00 00	 mov	 eax, 31			; 0000001fH

; 615  : }

  00005	c3		 ret	 0
?GetToolType@CCandleBongTool@@MBE?AW4TOOLTYPE@CAnalysis@@XZ ENDP ; CCandleBongTool::GetToolType
_TEXT	ENDS
; Function compile flags: /Ogtp
; File D:\git\src\IBK\IBK_DRFN\ProjSrc\SrcChartEx\ChartAddIn\ChartAnalysisToolAddIn\AnalysisTool\LineTool.cpp
;	COMDAT ??0CCandleBongTool@@QAE@PAVCAnalysisData@@W4COORDINATETYPE@CAnalysis@@@Z
_TEXT	SEGMENT
_this$ = -16						; size = 4
__$EHRec$ = -12						; size = 12
_pAnalysisData$ = 8					; size = 4
_eCoordinateType$ = 12					; size = 4
??0CCandleBongTool@@QAE@PAVCAnalysisData@@W4COORDINATETYPE@CAnalysis@@@Z PROC ; CCandleBongTool::CCandleBongTool, COMDAT
; _this$ = ecx

; 608  : {

  00000	55		 push	 ebp
  00001	8b ec		 mov	 ebp, esp
  00003	6a ff		 push	 -1
  00005	68 00 00 00 00	 push	 __ehhandler$??0CCandleBongTool@@QAE@PAVCAnalysisData@@W4COORDINATETYPE@CAnalysis@@@Z
  0000a	64 a1 00 00 00
	00		 mov	 eax, DWORD PTR fs:0
  00010	50		 push	 eax
  00011	51		 push	 ecx
  00012	56		 push	 esi
  00013	a1 00 00 00 00	 mov	 eax, DWORD PTR ___security_cookie
  00018	33 c5		 xor	 eax, ebp
  0001a	50		 push	 eax
  0001b	8d 45 f4	 lea	 eax, DWORD PTR __$EHRec$[ebp]
  0001e	64 a3 00 00 00
	00		 mov	 DWORD PTR fs:0, eax
  00024	8b f1		 mov	 esi, ecx
  00026	89 75 f0	 mov	 DWORD PTR _this$[ebp], esi

; 606  : 	: CTwoPointDownTool(pAnalysisData, eCoordinateType)

  00029	ff 75 0c	 push	 DWORD PTR _eCoordinateType$[ebp]
  0002c	ff 75 08	 push	 DWORD PTR _pAnalysisData$[ebp]
  0002f	e8 00 00 00 00	 call	 ??0CTwoPointDownTool@@IAE@PAVCAnalysisData@@W4COORDINATETYPE@CAnalysis@@@Z ; CTwoPointDownTool::CTwoPointDownTool

; 608  : {

  00034	c7 06 00 00 00
	00		 mov	 DWORD PTR [esi], OFFSET ??_7CCandleBongTool@@6B@
  0003a	8d 8e 00 01 00
	00		 lea	 ecx, DWORD PTR [esi+256]
  00040	c7 45 fc 00 00
	00 00		 mov	 DWORD PTR __$EHRec$[ebp+8], 0
  00047	c7 86 fc 00 00
	00 00 00 00 00	 mov	 DWORD PTR [esi+252], OFFSET ??_8CCandleBongDrawer@@7B@
  00051	e8 00 00 00 00	 call	 ??0CDrawer@@QAE@XZ	; CDrawer::CDrawer
  00056	c7 86 f8 00 00
	00 00 00 00 00	 mov	 DWORD PTR [esi+248], OFFSET ??_7CCandleBongDrawer@@6B@

; 609  : }

  00060	8b c6		 mov	 eax, esi
  00062	8b 4d f4	 mov	 ecx, DWORD PTR __$EHRec$[ebp]
  00065	64 89 0d 00 00
	00 00		 mov	 DWORD PTR fs:0, ecx
  0006c	59		 pop	 ecx
  0006d	5e		 pop	 esi
  0006e	8b e5		 mov	 esp, ebp
  00070	5d		 pop	 ebp
  00071	c2 08 00	 ret	 8
  00074	cc		 int	 3
  00075	cc		 int	 3
  00076	cc		 int	 3
  00077	cc		 int	 3
  00078	cc		 int	 3
_TEXT	ENDS
;	COMDAT text$x
text$x	SEGMENT
__ehhandler$??0CCandleBongTool@@QAE@PAVCAnalysisData@@W4COORDINATETYPE@CAnalysis@@@Z:
  00000	90		 npad	 1
  00001	90		 npad	 1
  00002	8b 54 24 08	 mov	 edx, DWORD PTR [esp+8]
  00006	8d 42 0c	 lea	 eax, DWORD PTR [edx+12]
  00009	8b 4a f4	 mov	 ecx, DWORD PTR [edx-12]
  0000c	33 c8		 xor	 ecx, eax
  0000e	e8 00 00 00 00	 call	 @__security_check_cookie@4
  00013	b8 00 00 00 00	 mov	 eax, OFFSET __ehfuncinfo$??0CCandleBongTool@@QAE@PAVCAnalysisData@@W4COORDINATETYPE@CAnalysis@@@Z
  00018	e9 00 00 00 00	 jmp	 ___CxxFrameHandler3
text$x	ENDS
??0CCandleBongTool@@QAE@PAVCAnalysisData@@W4COORDINATETYPE@CAnalysis@@@Z ENDP ; CCandleBongTool::CCandleBongTool
; Function compile flags: /Ogtp
; File D:\git\src\IBK\IBK_DRFN\ProjSrc\SrcChartEx\ChartAddIn\ChartAnalysisToolAddIn\AnalysisTool\LineTool.cpp
;	COMDAT ?GetOnePointDrawer@CCandleLineTool@@MAEAAVCOnePointDrawer@@XZ
_TEXT	SEGMENT
?GetOnePointDrawer@CCandleLineTool@@MAEAAVCOnePointDrawer@@XZ PROC ; CCandleLineTool::GetOnePointDrawer, COMDAT
; _this$ = ecx

; 599  : 	return m_candleLineDrawer;

  00000	8d 81 bc 00 00
	00		 lea	 eax, DWORD PTR [ecx+188]

; 600  : }

  00006	c3		 ret	 0
?GetOnePointDrawer@CCandleLineTool@@MAEAAVCOnePointDrawer@@XZ ENDP ; CCandleLineTool::GetOnePointDrawer
_TEXT	ENDS
; Function compile flags: /Ogtp
; File D:\git\src\IBK\IBK_DRFN\ProjSrc\SrcChartEx\ChartAddIn\ChartAnalysisToolAddIn\AnalysisTool\LineTool.cpp
;	COMDAT ?GetTextPosition@CCandleLineTool@@MAEPAVCTextPosition@@XZ
_TEXT	SEGMENT
?GetTextPosition@CCandleLineTool@@MAEPAVCTextPosition@@XZ PROC ; CCandleLineTool::GetTextPosition, COMDAT
; _this$ = ecx

; 594  : 	return &m_textPosition;

  00000	8d 81 b0 00 00
	00		 lea	 eax, DWORD PTR [ecx+176]

; 595  : }

  00006	c3		 ret	 0
?GetTextPosition@CCandleLineTool@@MAEPAVCTextPosition@@XZ ENDP ; CCandleLineTool::GetTextPosition
_TEXT	ENDS
; Function compile flags: /Ogtp
; File D:\git\src\IBK\IBK_DRFN\ProjSrc\SrcChartEx\ChartAddIn\ChartAnalysisToolAddIn\AnalysisTool\LineTool.cpp
;	COMDAT ?GetTextPosition@CCandleLineTool@@MBEPBVCTextPosition@@XZ
_TEXT	SEGMENT
?GetTextPosition@CCandleLineTool@@MBEPBVCTextPosition@@XZ PROC ; CCandleLineTool::GetTextPosition, COMDAT
; _this$ = ecx

; 589  : 	return &m_textPosition;

  00000	8d 81 b0 00 00
	00		 lea	 eax, DWORD PTR [ecx+176]

; 590  : }

  00006	c3		 ret	 0
?GetTextPosition@CCandleLineTool@@MBEPBVCTextPosition@@XZ ENDP ; CCandleLineTool::GetTextPosition
_TEXT	ENDS
; Function compile flags: /Ogtp
; File D:\git\src\IBK\IBK_DRFN\ProjSrc\SrcChartEx\ChartAddIn\ChartAnalysisToolAddIn\AnalysisTool\LineTool.cpp
;	COMDAT ?GetToolType@CCandleLineTool@@MBE?AW4TOOLTYPE@CAnalysis@@XZ
_TEXT	SEGMENT
?GetToolType@CCandleLineTool@@MBE?AW4TOOLTYPE@CAnalysis@@XZ PROC ; CCandleLineTool::GetToolType, COMDAT
; _this$ = ecx

; 584  : 	return CAnalysis::EN_ANALYSIS_CANDLE_LINE;

  00000	b8 1e 00 00 00	 mov	 eax, 30			; 0000001eH

; 585  : }

  00005	c3		 ret	 0
?GetToolType@CCandleLineTool@@MBE?AW4TOOLTYPE@CAnalysis@@XZ ENDP ; CCandleLineTool::GetToolType
_TEXT	ENDS
; Function compile flags: /Ogtp
; File D:\git\src\IBK\IBK_DRFN\ProjSrc\SrcChartEx\ChartAddIn\ChartAnalysisToolAddIn\AnalysisTool\LineTool.cpp
;	COMDAT ?SetTextEnvironment@CCandleLineTool@@QAEXABVCTextEnvironment@@@Z
_TEXT	SEGMENT
_textEnvironment$ = 8					; size = 4
?SetTextEnvironment@CCandleLineTool@@QAEXABVCTextEnvironment@@@Z PROC ; CCandleLineTool::SetTextEnvironment, COMDAT
; _this$ = ecx

; 577  : {

  00000	55		 push	 ebp
  00001	8b ec		 mov	 ebp, esp

; 578  : 	m_textPosition.SetTextEnvironment(textEnvironment);

  00003	81 c1 b0 00 00
	00		 add	 ecx, 176		; 000000b0H

; 579  : }

  00009	5d		 pop	 ebp

; 578  : 	m_textPosition.SetTextEnvironment(textEnvironment);

  0000a	e9 00 00 00 00	 jmp	 ?SetTextEnvironment@CTextPosition@@QAEXABVCTextEnvironment@@@Z ; CTextPosition::SetTextEnvironment
?SetTextEnvironment@CCandleLineTool@@QAEXABVCTextEnvironment@@@Z ENDP ; CCandleLineTool::SetTextEnvironment
_TEXT	ENDS
; Function compile flags: /Ogtp
; File D:\git\src\IBK\IBK_DRFN\ProjSrc\SrcChartEx\ChartAddIn\ChartAnalysisToolAddIn\AnalysisTool\LineTool.cpp
;	COMDAT ?SetTextPosition@CCandleLineTool@@QAEX_N@Z
_TEXT	SEGMENT
_bShow$ = 8						; size = 1
?SetTextPosition@CCandleLineTool@@QAEX_N@Z PROC		; CCandleLineTool::SetTextPosition, COMDAT
; _this$ = ecx

; 572  : {

  00000	55		 push	 ebp
  00001	8b ec		 mov	 ebp, esp

; 573  : 	m_textPosition.SetShow(bShow);

  00003	81 c1 b0 00 00
	00		 add	 ecx, 176		; 000000b0H

; 574  : }

  00009	5d		 pop	 ebp

; 573  : 	m_textPosition.SetShow(bShow);

  0000a	e9 00 00 00 00	 jmp	 ?SetShow@CTextShowPosition@@QAEX_N@Z ; CTextShowPosition::SetShow
?SetTextPosition@CCandleLineTool@@QAEX_N@Z ENDP		; CCandleLineTool::SetTextPosition
_TEXT	ENDS
; Function compile flags: /Ogtp
; File D:\git\src\IBK\IBK_DRFN\ProjSrc\SrcChartEx\ChartAddIn\ChartAnalysisToolAddIn\AnalysisTool\LineTool.cpp
;	COMDAT ?SetTextPosition@CCandleLineTool@@QAEXABVCTextShowPosition@@@Z
_TEXT	SEGMENT
_position$ = 8						; size = 4
?SetTextPosition@CCandleLineTool@@QAEXABVCTextShowPosition@@@Z PROC ; CCandleLineTool::SetTextPosition, COMDAT
; _this$ = ecx

; 567  : {

  00000	55		 push	 ebp
  00001	8b ec		 mov	 ebp, esp
  00003	56		 push	 esi

; 568  : 	m_textPosition = position;

  00004	8b 75 08	 mov	 esi, DWORD PTR _position$[ebp]
  00007	57		 push	 edi
  00008	8d b9 b0 00 00
	00		 lea	 edi, DWORD PTR [ecx+176]
  0000e	56		 push	 esi
  0000f	8b cf		 mov	 ecx, edi
  00011	e8 00 00 00 00	 call	 ??4CTextPosition@@QAEAAV0@ABV0@@Z ; CTextPosition::operator=
  00016	8a 46 08	 mov	 al, BYTE PTR [esi+8]
  00019	88 47 08	 mov	 BYTE PTR [edi+8], al
  0001c	5f		 pop	 edi
  0001d	5e		 pop	 esi

; 569  : }

  0001e	5d		 pop	 ebp
  0001f	c2 04 00	 ret	 4
?SetTextPosition@CCandleLineTool@@QAEXABVCTextShowPosition@@@Z ENDP ; CCandleLineTool::SetTextPosition
_TEXT	ENDS
; Function compile flags: /Ogtp
; File D:\git\src\IBK\IBK_DRFN\ProjSrc\SrcChartEx\ChartAddIn\ChartAnalysisToolAddIn\AnalysisTool\LineTool.cpp
;	COMDAT ??0CCandleLineTool@@QAE@PAVCAnalysisData@@W4COORDINATETYPE@CAnalysis@@@Z
_TEXT	SEGMENT
_this$ = -16						; size = 4
__$EHRec$ = -12						; size = 12
$T2 = 8							; size = 4
_pAnalysisData$ = 8					; size = 4
$T3 = 12						; size = 4
_eCoordinateType$ = 12					; size = 4
??0CCandleLineTool@@QAE@PAVCAnalysisData@@W4COORDINATETYPE@CAnalysis@@@Z PROC ; CCandleLineTool::CCandleLineTool, COMDAT
; _this$ = ecx

; 563  : {

  00000	55		 push	 ebp
  00001	8b ec		 mov	 ebp, esp
  00003	6a ff		 push	 -1
  00005	68 00 00 00 00	 push	 __ehhandler$??0CCandleLineTool@@QAE@PAVCAnalysisData@@W4COORDINATETYPE@CAnalysis@@@Z
  0000a	64 a1 00 00 00
	00		 mov	 eax, DWORD PTR fs:0
  00010	50		 push	 eax
  00011	51		 push	 ecx
  00012	56		 push	 esi
  00013	a1 00 00 00 00	 mov	 eax, DWORD PTR ___security_cookie
  00018	33 c5		 xor	 eax, ebp
  0001a	50		 push	 eax
  0001b	8d 45 f4	 lea	 eax, DWORD PTR __$EHRec$[ebp]
  0001e	64 a3 00 00 00
	00		 mov	 DWORD PTR fs:0, eax
  00024	8b f1		 mov	 esi, ecx
  00026	89 75 f0	 mov	 DWORD PTR _this$[ebp], esi

; 561  : 	: COnePointMoveTool(pAnalysisData, eCoordinateType),

  00029	ff 75 0c	 push	 DWORD PTR _eCoordinateType$[ebp]
  0002c	ff 75 08	 push	 DWORD PTR _pAnalysisData$[ebp]
  0002f	e8 00 00 00 00	 call	 ??0COnePointMoveTool@@IAE@PAVCAnalysisData@@W4COORDINATETYPE@CAnalysis@@@Z ; COnePointMoveTool::COnePointMoveTool

; 562  : 	m_textPosition(CTextEnvironment(RGB(0, 0, 0)), true)	

  00034	6a 01		 push	 1
  00036	8d 45 0c	 lea	 eax, DWORD PTR $T3[ebp]
  00039	c7 45 fc 00 00
	00 00		 mov	 DWORD PTR __$EHRec$[ebp+8], 0
  00040	50		 push	 eax
  00041	8d 4d 08	 lea	 ecx, DWORD PTR $T2[ebp]

; 563  : {

  00044	c7 06 00 00 00
	00		 mov	 DWORD PTR [esi], OFFSET ??_7CCandleLineTool@@6B@
  0004a	c7 45 0c 00 00
	00 00		 mov	 DWORD PTR $T3[ebp], 0
  00051	e8 00 00 00 00	 call	 ??0CTextEnvironment@@QAE@ABK@Z ; CTextEnvironment::CTextEnvironment
  00056	50		 push	 eax
  00057	8d 8e b0 00 00
	00		 lea	 ecx, DWORD PTR [esi+176]
  0005d	e8 00 00 00 00	 call	 ??0CTextShowPosition@@QAE@ABVCTextEnvironment@@_N@Z ; CTextShowPosition::CTextShowPosition
  00062	6a 01		 push	 1
  00064	8d 8e bc 00 00
	00		 lea	 ecx, DWORD PTR [esi+188]
  0006a	e8 00 00 00 00	 call	 ??0CCandleLineDrawer@@QAE@XZ ; CCandleLineDrawer::CCandleLineDrawer

; 564  : }

  0006f	8b c6		 mov	 eax, esi
  00071	8b 4d f4	 mov	 ecx, DWORD PTR __$EHRec$[ebp]
  00074	64 89 0d 00 00
	00 00		 mov	 DWORD PTR fs:0, ecx
  0007b	59		 pop	 ecx
  0007c	5e		 pop	 esi
  0007d	8b e5		 mov	 esp, ebp
  0007f	5d		 pop	 ebp
  00080	c2 08 00	 ret	 8
_TEXT	ENDS
;	COMDAT text$x
text$x	SEGMENT
__unwindfunclet$??0CCandleLineTool@@QAE@PAVCAnalysisData@@W4COORDINATETYPE@CAnalysis@@@Z$0:
  00000	8b 4d f0	 mov	 ecx, DWORD PTR _this$[ebp]
  00003	e9 00 00 00 00	 jmp	 ??1COnePointMoveTool@@QAE@XZ
  00008	cc		 int	 3
  00009	cc		 int	 3
  0000a	cc		 int	 3
  0000b	cc		 int	 3
  0000c	cc		 int	 3
__ehhandler$??0CCandleLineTool@@QAE@PAVCAnalysisData@@W4COORDINATETYPE@CAnalysis@@@Z:
  0000d	90		 npad	 1
  0000e	90		 npad	 1
  0000f	8b 54 24 08	 mov	 edx, DWORD PTR [esp+8]
  00013	8d 42 0c	 lea	 eax, DWORD PTR [edx+12]
  00016	8b 4a f4	 mov	 ecx, DWORD PTR [edx-12]
  00019	33 c8		 xor	 ecx, eax
  0001b	e8 00 00 00 00	 call	 @__security_check_cookie@4
  00020	b8 00 00 00 00	 mov	 eax, OFFSET __ehfuncinfo$??0CCandleLineTool@@QAE@PAVCAnalysisData@@W4COORDINATETYPE@CAnalysis@@@Z
  00025	e9 00 00 00 00	 jmp	 ___CxxFrameHandler3
text$x	ENDS
??0CCandleLineTool@@QAE@PAVCAnalysisData@@W4COORDINATETYPE@CAnalysis@@@Z ENDP ; CCandleLineTool::CCandleLineTool
; Function compile flags: /Ogtp
; File D:\git\src\IBK\IBK_DRFN\ProjSrc\SrcChartEx\ChartAddIn\ChartAnalysisToolAddIn\AnalysisTool\LineTool.cpp
;	COMDAT ?GetTwoPointDrawer@CAngleLineTool@@MAEAAVCTwoPointDrawer@@XZ
_TEXT	SEGMENT
?GetTwoPointDrawer@CAngleLineTool@@MAEAAVCTwoPointDrawer@@XZ PROC ; CAngleLineTool::GetTwoPointDrawer, COMDAT
; _this$ = ecx

; 554  : 	return m_angleLineDrawer;

  00000	8d 81 04 01 00
	00		 lea	 eax, DWORD PTR [ecx+260]

; 555  : }

  00006	c3		 ret	 0
?GetTwoPointDrawer@CAngleLineTool@@MAEAAVCTwoPointDrawer@@XZ ENDP ; CAngleLineTool::GetTwoPointDrawer
_TEXT	ENDS
; Function compile flags: /Ogtp
; File D:\git\src\IBK\IBK_DRFN\ProjSrc\SrcChartEx\ChartAddIn\ChartAnalysisToolAddIn\AnalysisTool\LineTool.cpp
;	COMDAT ?GetToolType@CAngleLineTool@@MBE?AW4TOOLTYPE@CAnalysis@@XZ
_TEXT	SEGMENT
?GetToolType@CAngleLineTool@@MBE?AW4TOOLTYPE@CAnalysis@@XZ PROC ; CAngleLineTool::GetToolType, COMDAT
; _this$ = ecx

; 539  : 	return CAnalysis::EN_ANALYSIS_ANGLE_LINE;

  00000	b8 1d 00 00 00	 mov	 eax, 29			; 0000001dH

; 540  : }

  00005	c3		 ret	 0
?GetToolType@CAngleLineTool@@MBE?AW4TOOLTYPE@CAnalysis@@XZ ENDP ; CAngleLineTool::GetToolType
_TEXT	ENDS
; Function compile flags: /Ogtp
; File D:\git\src\IBK\IBK_DRFN\ProjSrc\SrcChartEx\ChartAddIn\ChartAnalysisToolAddIn\AnalysisTool\LineTool.cpp
;	COMDAT ?GetTextPosition@CAngleLineTool@@MAEPAVCTextPosition@@XZ
_TEXT	SEGMENT
?GetTextPosition@CAngleLineTool@@MAEPAVCTextPosition@@XZ PROC ; CAngleLineTool::GetTextPosition, COMDAT
; _this$ = ecx

; 549  : 	return &m_textPosition;

  00000	8d 81 f8 00 00
	00		 lea	 eax, DWORD PTR [ecx+248]

; 550  : }

  00006	c3		 ret	 0
?GetTextPosition@CAngleLineTool@@MAEPAVCTextPosition@@XZ ENDP ; CAngleLineTool::GetTextPosition
_TEXT	ENDS
; Function compile flags: /Ogtp
; File D:\git\src\IBK\IBK_DRFN\ProjSrc\SrcChartEx\ChartAddIn\ChartAnalysisToolAddIn\AnalysisTool\LineTool.cpp
;	COMDAT ?GetTextPosition@CAngleLineTool@@MBEPBVCTextPosition@@XZ
_TEXT	SEGMENT
?GetTextPosition@CAngleLineTool@@MBEPBVCTextPosition@@XZ PROC ; CAngleLineTool::GetTextPosition, COMDAT
; _this$ = ecx

; 544  : 	return &m_textPosition;

  00000	8d 81 f8 00 00
	00		 lea	 eax, DWORD PTR [ecx+248]

; 545  : }

  00006	c3		 ret	 0
?GetTextPosition@CAngleLineTool@@MBEPBVCTextPosition@@XZ ENDP ; CAngleLineTool::GetTextPosition
_TEXT	ENDS
; Function compile flags: /Ogtp
; File D:\git\src\IBK\IBK_DRFN\ProjSrc\SrcChartEx\ChartAddIn\ChartAnalysisToolAddIn\AnalysisTool\LineTool.cpp
;	COMDAT ?SetTextEnvironment@CAngleLineTool@@QAEXABVCTextEnvironment@@@Z
_TEXT	SEGMENT
_textEnvironment$ = 8					; size = 4
?SetTextEnvironment@CAngleLineTool@@QAEXABVCTextEnvironment@@@Z PROC ; CAngleLineTool::SetTextEnvironment, COMDAT
; _this$ = ecx

; 532  : {

  00000	55		 push	 ebp
  00001	8b ec		 mov	 ebp, esp

; 533  : 	m_textPosition.SetTextEnvironment(textEnvironment);

  00003	81 c1 f8 00 00
	00		 add	 ecx, 248		; 000000f8H

; 534  : }

  00009	5d		 pop	 ebp

; 533  : 	m_textPosition.SetTextEnvironment(textEnvironment);

  0000a	e9 00 00 00 00	 jmp	 ?SetTextEnvironment@CTextPosition@@QAEXABVCTextEnvironment@@@Z ; CTextPosition::SetTextEnvironment
?SetTextEnvironment@CAngleLineTool@@QAEXABVCTextEnvironment@@@Z ENDP ; CAngleLineTool::SetTextEnvironment
_TEXT	ENDS
; Function compile flags: /Ogtp
; File D:\git\src\IBK\IBK_DRFN\ProjSrc\SrcChartEx\ChartAddIn\ChartAnalysisToolAddIn\AnalysisTool\LineTool.cpp
;	COMDAT ?SetTextPosition@CAngleLineTool@@QAEX_N@Z
_TEXT	SEGMENT
_bShow$ = 8						; size = 1
?SetTextPosition@CAngleLineTool@@QAEX_N@Z PROC		; CAngleLineTool::SetTextPosition, COMDAT
; _this$ = ecx

; 527  : {

  00000	55		 push	 ebp
  00001	8b ec		 mov	 ebp, esp

; 528  : 	m_textPosition.SetShow(bShow);

  00003	81 c1 f8 00 00
	00		 add	 ecx, 248		; 000000f8H

; 529  : }

  00009	5d		 pop	 ebp

; 528  : 	m_textPosition.SetShow(bShow);

  0000a	e9 00 00 00 00	 jmp	 ?SetShow@CTextShowPosition@@QAEX_N@Z ; CTextShowPosition::SetShow
?SetTextPosition@CAngleLineTool@@QAEX_N@Z ENDP		; CAngleLineTool::SetTextPosition
_TEXT	ENDS
; Function compile flags: /Ogtp
; File D:\git\src\IBK\IBK_DRFN\ProjSrc\SrcChartEx\ChartAddIn\ChartAnalysisToolAddIn\AnalysisTool\LineTool.cpp
;	COMDAT ?SetTextPosition@CAngleLineTool@@QAEXABVCTextShowPosition@@@Z
_TEXT	SEGMENT
_position$ = 8						; size = 4
?SetTextPosition@CAngleLineTool@@QAEXABVCTextShowPosition@@@Z PROC ; CAngleLineTool::SetTextPosition, COMDAT
; _this$ = ecx

; 522  : {

  00000	55		 push	 ebp
  00001	8b ec		 mov	 ebp, esp
  00003	56		 push	 esi

; 523  : 	m_textPosition = position;

  00004	8b 75 08	 mov	 esi, DWORD PTR _position$[ebp]
  00007	57		 push	 edi
  00008	8d b9 f8 00 00
	00		 lea	 edi, DWORD PTR [ecx+248]
  0000e	56		 push	 esi
  0000f	8b cf		 mov	 ecx, edi
  00011	e8 00 00 00 00	 call	 ??4CTextPosition@@QAEAAV0@ABV0@@Z ; CTextPosition::operator=
  00016	8a 46 08	 mov	 al, BYTE PTR [esi+8]
  00019	88 47 08	 mov	 BYTE PTR [edi+8], al
  0001c	5f		 pop	 edi
  0001d	5e		 pop	 esi

; 524  : }

  0001e	5d		 pop	 ebp
  0001f	c2 04 00	 ret	 4
?SetTextPosition@CAngleLineTool@@QAEXABVCTextShowPosition@@@Z ENDP ; CAngleLineTool::SetTextPosition
_TEXT	ENDS
; Function compile flags: /Ogtp
; File D:\git\src\IBK\IBK_DRFN\ProjSrc\SrcChartEx\ChartAddIn\ChartAnalysisToolAddIn\AnalysisTool\LineTool.cpp
;	COMDAT ??0CAngleLineTool@@QAE@PAVCAnalysisData@@W4COORDINATETYPE@CAnalysis@@@Z
_TEXT	SEGMENT
_this$ = -16						; size = 4
__$EHRec$ = -12						; size = 12
$T2 = 8							; size = 4
_pAnalysisData$ = 8					; size = 4
$T3 = 12						; size = 4
_eCoordinateType$ = 12					; size = 4
??0CAngleLineTool@@QAE@PAVCAnalysisData@@W4COORDINATETYPE@CAnalysis@@@Z PROC ; CAngleLineTool::CAngleLineTool, COMDAT
; _this$ = ecx

; 518  : {

  00000	55		 push	 ebp
  00001	8b ec		 mov	 ebp, esp
  00003	6a ff		 push	 -1
  00005	68 00 00 00 00	 push	 __ehhandler$??0CAngleLineTool@@QAE@PAVCAnalysisData@@W4COORDINATETYPE@CAnalysis@@@Z
  0000a	64 a1 00 00 00
	00		 mov	 eax, DWORD PTR fs:0
  00010	50		 push	 eax
  00011	51		 push	 ecx
  00012	56		 push	 esi
  00013	a1 00 00 00 00	 mov	 eax, DWORD PTR ___security_cookie
  00018	33 c5		 xor	 eax, ebp
  0001a	50		 push	 eax
  0001b	8d 45 f4	 lea	 eax, DWORD PTR __$EHRec$[ebp]
  0001e	64 a3 00 00 00
	00		 mov	 DWORD PTR fs:0, eax
  00024	8b f1		 mov	 esi, ecx
  00026	89 75 f0	 mov	 DWORD PTR _this$[ebp], esi

; 516  : 	: CTwoPointDownTool(pAnalysisData, eCoordinateType),

  00029	ff 75 0c	 push	 DWORD PTR _eCoordinateType$[ebp]
  0002c	ff 75 08	 push	 DWORD PTR _pAnalysisData$[ebp]
  0002f	e8 00 00 00 00	 call	 ??0CTwoPointDownTool@@IAE@PAVCAnalysisData@@W4COORDINATETYPE@CAnalysis@@@Z ; CTwoPointDownTool::CTwoPointDownTool

; 517  : 	m_textPosition(CTextEnvironment(RGB(0, 0, 0)), true)	

  00034	6a 01		 push	 1
  00036	8d 45 0c	 lea	 eax, DWORD PTR $T3[ebp]
  00039	c7 45 fc 00 00
	00 00		 mov	 DWORD PTR __$EHRec$[ebp+8], 0
  00040	50		 push	 eax
  00041	8d 4d 08	 lea	 ecx, DWORD PTR $T2[ebp]

; 518  : {

  00044	c7 06 00 00 00
	00		 mov	 DWORD PTR [esi], OFFSET ??_7CAngleLineTool@@6B@
  0004a	c7 45 0c 00 00
	00 00		 mov	 DWORD PTR $T3[ebp], 0
  00051	e8 00 00 00 00	 call	 ??0CTextEnvironment@@QAE@ABK@Z ; CTextEnvironment::CTextEnvironment
  00056	50		 push	 eax
  00057	8d 8e f8 00 00
	00		 lea	 ecx, DWORD PTR [esi+248]
  0005d	e8 00 00 00 00	 call	 ??0CTextShowPosition@@QAE@ABVCTextEnvironment@@_N@Z ; CTextShowPosition::CTextShowPosition
  00062	6a 01		 push	 1
  00064	8d 8e 04 01 00
	00		 lea	 ecx, DWORD PTR [esi+260]
  0006a	e8 00 00 00 00	 call	 ??0CAngleLineDrawer@@QAE@XZ ; CAngleLineDrawer::CAngleLineDrawer

; 519  : }

  0006f	8b c6		 mov	 eax, esi
  00071	8b 4d f4	 mov	 ecx, DWORD PTR __$EHRec$[ebp]
  00074	64 89 0d 00 00
	00 00		 mov	 DWORD PTR fs:0, ecx
  0007b	59		 pop	 ecx
  0007c	5e		 pop	 esi
  0007d	8b e5		 mov	 esp, ebp
  0007f	5d		 pop	 ebp
  00080	c2 08 00	 ret	 8
_TEXT	ENDS
;	COMDAT text$x
text$x	SEGMENT
__unwindfunclet$??0CAngleLineTool@@QAE@PAVCAnalysisData@@W4COORDINATETYPE@CAnalysis@@@Z$0:
  00000	8b 4d f0	 mov	 ecx, DWORD PTR _this$[ebp]
  00003	e9 00 00 00 00	 jmp	 ??1CTwoPointDownTool@@QAE@XZ
  00008	cc		 int	 3
  00009	cc		 int	 3
  0000a	cc		 int	 3
  0000b	cc		 int	 3
  0000c	cc		 int	 3
__ehhandler$??0CAngleLineTool@@QAE@PAVCAnalysisData@@W4COORDINATETYPE@CAnalysis@@@Z:
  0000d	90		 npad	 1
  0000e	90		 npad	 1
  0000f	8b 54 24 08	 mov	 edx, DWORD PTR [esp+8]
  00013	8d 42 0c	 lea	 eax, DWORD PTR [edx+12]
  00016	8b 4a f4	 mov	 ecx, DWORD PTR [edx-12]
  00019	33 c8		 xor	 ecx, eax
  0001b	e8 00 00 00 00	 call	 @__security_check_cookie@4
  00020	b8 00 00 00 00	 mov	 eax, OFFSET __ehfuncinfo$??0CAngleLineTool@@QAE@PAVCAnalysisData@@W4COORDINATETYPE@CAnalysis@@@Z
  00025	e9 00 00 00 00	 jmp	 ___CxxFrameHandler3
text$x	ENDS
??0CAngleLineTool@@QAE@PAVCAnalysisData@@W4COORDINATETYPE@CAnalysis@@@Z ENDP ; CAngleLineTool::CAngleLineTool
; Function compile flags: /Ogtp
; File D:\git\src\IBK\IBK_DRFN\ProjSrc\SrcChartEx\ChartAddIn\ChartAnalysisToolAddIn\AnalysisTool\LineTool.cpp
;	COMDAT ?GetTwoPointDrawer@CRaffRegressionTool@@MAEAAVCTwoPointDrawer@@XZ
_TEXT	SEGMENT
?GetTwoPointDrawer@CRaffRegressionTool@@MAEAAVCTwoPointDrawer@@XZ PROC ; CRaffRegressionTool::GetTwoPointDrawer, COMDAT
; _this$ = ecx

; 509  : 	return m_raffRegressionDrawer;

  00000	8d 81 f8 00 00
	00		 lea	 eax, DWORD PTR [ecx+248]

; 510  : }

  00006	c3		 ret	 0
?GetTwoPointDrawer@CRaffRegressionTool@@MAEAAVCTwoPointDrawer@@XZ ENDP ; CRaffRegressionTool::GetTwoPointDrawer
_TEXT	ENDS
; Function compile flags: /Ogtp
; File D:\git\src\IBK\IBK_DRFN\ProjSrc\SrcChartEx\ChartAddIn\ChartAnalysisToolAddIn\AnalysisTool\LineTool.cpp
;	COMDAT ?GetToolType@CRaffRegressionTool@@MBE?AW4TOOLTYPE@CAnalysis@@XZ
_TEXT	SEGMENT
?GetToolType@CRaffRegressionTool@@MBE?AW4TOOLTYPE@CAnalysis@@XZ PROC ; CRaffRegressionTool::GetToolType, COMDAT
; _this$ = ecx

; 504  : 	return CAnalysis::EN_ANALYSIS_RAFF_REGRESSION;

  00000	b8 1c 00 00 00	 mov	 eax, 28			; 0000001cH

; 505  : }

  00005	c3		 ret	 0
?GetToolType@CRaffRegressionTool@@MBE?AW4TOOLTYPE@CAnalysis@@XZ ENDP ; CRaffRegressionTool::GetToolType
_TEXT	ENDS
; Function compile flags: /Ogtp
; File D:\git\src\IBK\IBK_DRFN\ProjSrc\SrcChartEx\ChartAddIn\ChartAnalysisToolAddIn\AnalysisTool\LineTool.cpp
;	COMDAT ??0CRaffRegressionTool@@QAE@PAVCAnalysisData@@W4COORDINATETYPE@CAnalysis@@@Z
_TEXT	SEGMENT
_this$ = -16						; size = 4
__$EHRec$ = -12						; size = 12
_pAnalysisData$ = 8					; size = 4
_eCoordinateType$ = 12					; size = 4
??0CRaffRegressionTool@@QAE@PAVCAnalysisData@@W4COORDINATETYPE@CAnalysis@@@Z PROC ; CRaffRegressionTool::CRaffRegressionTool, COMDAT
; _this$ = ecx

; 498  : {

  00000	55		 push	 ebp
  00001	8b ec		 mov	 ebp, esp
  00003	6a ff		 push	 -1
  00005	68 00 00 00 00	 push	 __ehhandler$??0CRaffRegressionTool@@QAE@PAVCAnalysisData@@W4COORDINATETYPE@CAnalysis@@@Z
  0000a	64 a1 00 00 00
	00		 mov	 eax, DWORD PTR fs:0
  00010	50		 push	 eax
  00011	51		 push	 ecx
  00012	56		 push	 esi
  00013	a1 00 00 00 00	 mov	 eax, DWORD PTR ___security_cookie
  00018	33 c5		 xor	 eax, ebp
  0001a	50		 push	 eax
  0001b	8d 45 f4	 lea	 eax, DWORD PTR __$EHRec$[ebp]
  0001e	64 a3 00 00 00
	00		 mov	 DWORD PTR fs:0, eax
  00024	8b f1		 mov	 esi, ecx
  00026	89 75 f0	 mov	 DWORD PTR _this$[ebp], esi

; 496  : 	: CTwoPointDownTool(pAnalysisData, eCoordinateType)

  00029	ff 75 0c	 push	 DWORD PTR _eCoordinateType$[ebp]
  0002c	ff 75 08	 push	 DWORD PTR _pAnalysisData$[ebp]
  0002f	e8 00 00 00 00	 call	 ??0CTwoPointDownTool@@IAE@PAVCAnalysisData@@W4COORDINATETYPE@CAnalysis@@@Z ; CTwoPointDownTool::CTwoPointDownTool

; 498  : {

  00034	6a 01		 push	 1
  00036	8d 8e f8 00 00
	00		 lea	 ecx, DWORD PTR [esi+248]
  0003c	c7 45 fc 00 00
	00 00		 mov	 DWORD PTR __$EHRec$[ebp+8], 0
  00043	c7 06 00 00 00
	00		 mov	 DWORD PTR [esi], OFFSET ??_7CRaffRegressionTool@@6B@
  00049	e8 00 00 00 00	 call	 ??0CRaffRegressionDrawer@@QAE@XZ ; CRaffRegressionDrawer::CRaffRegressionDrawer

; 499  : }

  0004e	8b c6		 mov	 eax, esi
  00050	8b 4d f4	 mov	 ecx, DWORD PTR __$EHRec$[ebp]
  00053	64 89 0d 00 00
	00 00		 mov	 DWORD PTR fs:0, ecx
  0005a	59		 pop	 ecx
  0005b	5e		 pop	 esi
  0005c	8b e5		 mov	 esp, ebp
  0005e	5d		 pop	 ebp
  0005f	c2 08 00	 ret	 8
_TEXT	ENDS
;	COMDAT text$x
text$x	SEGMENT
__unwindfunclet$??0CRaffRegressionTool@@QAE@PAVCAnalysisData@@W4COORDINATETYPE@CAnalysis@@@Z$0:
  00000	8b 4d f0	 mov	 ecx, DWORD PTR _this$[ebp]
  00003	e9 00 00 00 00	 jmp	 ??1CTwoPointDownTool@@QAE@XZ
  00008	cc		 int	 3
  00009	cc		 int	 3
  0000a	cc		 int	 3
  0000b	cc		 int	 3
  0000c	cc		 int	 3
__ehhandler$??0CRaffRegressionTool@@QAE@PAVCAnalysisData@@W4COORDINATETYPE@CAnalysis@@@Z:
  0000d	90		 npad	 1
  0000e	90		 npad	 1
  0000f	8b 54 24 08	 mov	 edx, DWORD PTR [esp+8]
  00013	8d 42 0c	 lea	 eax, DWORD PTR [edx+12]
  00016	8b 4a f4	 mov	 ecx, DWORD PTR [edx-12]
  00019	33 c8		 xor	 ecx, eax
  0001b	e8 00 00 00 00	 call	 @__security_check_cookie@4
  00020	b8 00 00 00 00	 mov	 eax, OFFSET __ehfuncinfo$??0CRaffRegressionTool@@QAE@PAVCAnalysisData@@W4COORDINATETYPE@CAnalysis@@@Z
  00025	e9 00 00 00 00	 jmp	 ___CxxFrameHandler3
text$x	ENDS
??0CRaffRegressionTool@@QAE@PAVCAnalysisData@@W4COORDINATETYPE@CAnalysis@@@Z ENDP ; CRaffRegressionTool::CRaffRegressionTool
; Function compile flags: /Ogtp
; File D:\git\src\IBK\IBK_DRFN\ProjSrc\SrcChartEx\ChartAddIn\ChartAnalysisToolAddIn\AnalysisTool\LineTool.cpp
;	COMDAT ?GetTwoPointDrawer@CLinearRegressionTool@@MAEAAVCTwoPointDrawer@@XZ
_TEXT	SEGMENT
?GetTwoPointDrawer@CLinearRegressionTool@@MAEAAVCTwoPointDrawer@@XZ PROC ; CLinearRegressionTool::GetTwoPointDrawer, COMDAT
; _this$ = ecx

; 489  : 	return m_linearRegressionDrawer;

  00000	8d 81 f8 00 00
	00		 lea	 eax, DWORD PTR [ecx+248]

; 490  : }

  00006	c3		 ret	 0
?GetTwoPointDrawer@CLinearRegressionTool@@MAEAAVCTwoPointDrawer@@XZ ENDP ; CLinearRegressionTool::GetTwoPointDrawer
_TEXT	ENDS
; Function compile flags: /Ogtp
; File D:\git\src\IBK\IBK_DRFN\ProjSrc\SrcChartEx\ChartAddIn\ChartAnalysisToolAddIn\AnalysisTool\LineTool.cpp
;	COMDAT ?GetToolType@CLinearRegressionTool@@MBE?AW4TOOLTYPE@CAnalysis@@XZ
_TEXT	SEGMENT
?GetToolType@CLinearRegressionTool@@MBE?AW4TOOLTYPE@CAnalysis@@XZ PROC ; CLinearRegressionTool::GetToolType, COMDAT
; _this$ = ecx

; 484  : 	return CAnalysis::EN_ANALYSIS_LINEAR_REGRESSION;

  00000	b8 1b 00 00 00	 mov	 eax, 27			; 0000001bH

; 485  : }

  00005	c3		 ret	 0
?GetToolType@CLinearRegressionTool@@MBE?AW4TOOLTYPE@CAnalysis@@XZ ENDP ; CLinearRegressionTool::GetToolType
_TEXT	ENDS
; Function compile flags: /Ogtp
; File D:\git\src\IBK\IBK_DRFN\ProjSrc\SrcChartEx\ChartAddIn\ChartAnalysisToolAddIn\AnalysisTool\LineTool.cpp
;	COMDAT ??0CLinearRegressionTool@@QAE@PAVCAnalysisData@@W4COORDINATETYPE@CAnalysis@@@Z
_TEXT	SEGMENT
_this$ = -16						; size = 4
__$EHRec$ = -12						; size = 12
_pAnalysisData$ = 8					; size = 4
_eCoordinateType$ = 12					; size = 4
??0CLinearRegressionTool@@QAE@PAVCAnalysisData@@W4COORDINATETYPE@CAnalysis@@@Z PROC ; CLinearRegressionTool::CLinearRegressionTool, COMDAT
; _this$ = ecx

; 478  : {

  00000	55		 push	 ebp
  00001	8b ec		 mov	 ebp, esp
  00003	6a ff		 push	 -1
  00005	68 00 00 00 00	 push	 __ehhandler$??0CLinearRegressionTool@@QAE@PAVCAnalysisData@@W4COORDINATETYPE@CAnalysis@@@Z
  0000a	64 a1 00 00 00
	00		 mov	 eax, DWORD PTR fs:0
  00010	50		 push	 eax
  00011	51		 push	 ecx
  00012	56		 push	 esi
  00013	a1 00 00 00 00	 mov	 eax, DWORD PTR ___security_cookie
  00018	33 c5		 xor	 eax, ebp
  0001a	50		 push	 eax
  0001b	8d 45 f4	 lea	 eax, DWORD PTR __$EHRec$[ebp]
  0001e	64 a3 00 00 00
	00		 mov	 DWORD PTR fs:0, eax
  00024	8b f1		 mov	 esi, ecx
  00026	89 75 f0	 mov	 DWORD PTR _this$[ebp], esi

; 476  : 	: CTwoPointDownTool(pAnalysisData, eCoordinateType)

  00029	ff 75 0c	 push	 DWORD PTR _eCoordinateType$[ebp]
  0002c	ff 75 08	 push	 DWORD PTR _pAnalysisData$[ebp]
  0002f	e8 00 00 00 00	 call	 ??0CTwoPointDownTool@@IAE@PAVCAnalysisData@@W4COORDINATETYPE@CAnalysis@@@Z ; CTwoPointDownTool::CTwoPointDownTool

; 478  : {

  00034	c7 06 00 00 00
	00		 mov	 DWORD PTR [esi], OFFSET ??_7CLinearRegressionTool@@6B@
  0003a	8d 8e 00 01 00
	00		 lea	 ecx, DWORD PTR [esi+256]
  00040	c7 45 fc 00 00
	00 00		 mov	 DWORD PTR __$EHRec$[ebp+8], 0
  00047	c7 86 fc 00 00
	00 00 00 00 00	 mov	 DWORD PTR [esi+252], OFFSET ??_8CLinearRegressionDrawer@@7B@
  00051	e8 00 00 00 00	 call	 ??0CDrawer@@QAE@XZ	; CDrawer::CDrawer
  00056	c7 86 f8 00 00
	00 00 00 00 00	 mov	 DWORD PTR [esi+248], OFFSET ??_7CLinearRegressionDrawer@@6B@

; 479  : }

  00060	8b c6		 mov	 eax, esi
  00062	8b 4d f4	 mov	 ecx, DWORD PTR __$EHRec$[ebp]
  00065	64 89 0d 00 00
	00 00		 mov	 DWORD PTR fs:0, ecx
  0006c	59		 pop	 ecx
  0006d	5e		 pop	 esi
  0006e	8b e5		 mov	 esp, ebp
  00070	5d		 pop	 ebp
  00071	c2 08 00	 ret	 8
  00074	cc		 int	 3
  00075	cc		 int	 3
  00076	cc		 int	 3
  00077	cc		 int	 3
  00078	cc		 int	 3
_TEXT	ENDS
;	COMDAT text$x
text$x	SEGMENT
__ehhandler$??0CLinearRegressionTool@@QAE@PAVCAnalysisData@@W4COORDINATETYPE@CAnalysis@@@Z:
  00000	90		 npad	 1
  00001	90		 npad	 1
  00002	8b 54 24 08	 mov	 edx, DWORD PTR [esp+8]
  00006	8d 42 0c	 lea	 eax, DWORD PTR [edx+12]
  00009	8b 4a f4	 mov	 ecx, DWORD PTR [edx-12]
  0000c	33 c8		 xor	 ecx, eax
  0000e	e8 00 00 00 00	 call	 @__security_check_cookie@4
  00013	b8 00 00 00 00	 mov	 eax, OFFSET __ehfuncinfo$??0CLinearRegressionTool@@QAE@PAVCAnalysisData@@W4COORDINATETYPE@CAnalysis@@@Z
  00018	e9 00 00 00 00	 jmp	 ___CxxFrameHandler3
text$x	ENDS
??0CLinearRegressionTool@@QAE@PAVCAnalysisData@@W4COORDINATETYPE@CAnalysis@@@Z ENDP ; CLinearRegressionTool::CLinearRegressionTool
; Function compile flags: /Ogtp
; File D:\git\src\IBK\IBK_DRFN\ProjSrc\SrcChartEx\ChartAddIn\ChartAnalysisToolAddIn\AnalysisTool\LineTool.cpp
;	COMDAT ?GetTwoPointDrawer@CSpeedArcTool@@MAEAAVCTwoPointDrawer@@XZ
_TEXT	SEGMENT
?GetTwoPointDrawer@CSpeedArcTool@@MAEAAVCTwoPointDrawer@@XZ PROC ; CSpeedArcTool::GetTwoPointDrawer, COMDAT
; _this$ = ecx

; 469  : 	return m_speedArcDrawer;

  00000	8d 81 f8 00 00
	00		 lea	 eax, DWORD PTR [ecx+248]

; 470  : }

  00006	c3		 ret	 0
?GetTwoPointDrawer@CSpeedArcTool@@MAEAAVCTwoPointDrawer@@XZ ENDP ; CSpeedArcTool::GetTwoPointDrawer
_TEXT	ENDS
; Function compile flags: /Ogtp
; File D:\git\src\IBK\IBK_DRFN\ProjSrc\SrcChartEx\ChartAddIn\ChartAnalysisToolAddIn\AnalysisTool\LineTool.cpp
;	COMDAT ?GetToolType@CSpeedArcTool@@MBE?AW4TOOLTYPE@CAnalysis@@XZ
_TEXT	SEGMENT
?GetToolType@CSpeedArcTool@@MBE?AW4TOOLTYPE@CAnalysis@@XZ PROC ; CSpeedArcTool::GetToolType, COMDAT
; _this$ = ecx

; 464  : 	return CAnalysis::EN_ANALYSIS_SPEED_ARC;

  00000	b8 1a 00 00 00	 mov	 eax, 26			; 0000001aH

; 465  : }

  00005	c3		 ret	 0
?GetToolType@CSpeedArcTool@@MBE?AW4TOOLTYPE@CAnalysis@@XZ ENDP ; CSpeedArcTool::GetToolType
_TEXT	ENDS
; Function compile flags: /Ogtp
; File D:\git\src\IBK\IBK_DRFN\ProjSrc\SrcChartEx\ChartAddIn\ChartAnalysisToolAddIn\AnalysisTool\LineTool.cpp
;	COMDAT ??0CSpeedArcTool@@QAE@PAVCAnalysisData@@W4COORDINATETYPE@CAnalysis@@@Z
_TEXT	SEGMENT
_this$ = -16						; size = 4
__$EHRec$ = -12						; size = 12
_pAnalysisData$ = 8					; size = 4
_eCoordinateType$ = 12					; size = 4
??0CSpeedArcTool@@QAE@PAVCAnalysisData@@W4COORDINATETYPE@CAnalysis@@@Z PROC ; CSpeedArcTool::CSpeedArcTool, COMDAT
; _this$ = ecx

; 458  : {

  00000	55		 push	 ebp
  00001	8b ec		 mov	 ebp, esp
  00003	6a ff		 push	 -1
  00005	68 00 00 00 00	 push	 __ehhandler$??0CSpeedArcTool@@QAE@PAVCAnalysisData@@W4COORDINATETYPE@CAnalysis@@@Z
  0000a	64 a1 00 00 00
	00		 mov	 eax, DWORD PTR fs:0
  00010	50		 push	 eax
  00011	51		 push	 ecx
  00012	56		 push	 esi
  00013	a1 00 00 00 00	 mov	 eax, DWORD PTR ___security_cookie
  00018	33 c5		 xor	 eax, ebp
  0001a	50		 push	 eax
  0001b	8d 45 f4	 lea	 eax, DWORD PTR __$EHRec$[ebp]
  0001e	64 a3 00 00 00
	00		 mov	 DWORD PTR fs:0, eax
  00024	8b f1		 mov	 esi, ecx
  00026	89 75 f0	 mov	 DWORD PTR _this$[ebp], esi

; 456  : 	: CTwoPointDownTool(pAnalysisData, eCoordinateType)

  00029	ff 75 0c	 push	 DWORD PTR _eCoordinateType$[ebp]
  0002c	ff 75 08	 push	 DWORD PTR _pAnalysisData$[ebp]
  0002f	e8 00 00 00 00	 call	 ??0CTwoPointDownTool@@IAE@PAVCAnalysisData@@W4COORDINATETYPE@CAnalysis@@@Z ; CTwoPointDownTool::CTwoPointDownTool

; 458  : {

  00034	c7 06 00 00 00
	00		 mov	 DWORD PTR [esi], OFFSET ??_7CSpeedArcTool@@6B@
  0003a	8d 8e 00 01 00
	00		 lea	 ecx, DWORD PTR [esi+256]
  00040	c7 45 fc 00 00
	00 00		 mov	 DWORD PTR __$EHRec$[ebp+8], 0
  00047	c7 86 fc 00 00
	00 00 00 00 00	 mov	 DWORD PTR [esi+252], OFFSET ??_8CSpeedArcDrawer@@7B@
  00051	e8 00 00 00 00	 call	 ??0CDrawer@@QAE@XZ	; CDrawer::CDrawer
  00056	c7 86 f8 00 00
	00 00 00 00 00	 mov	 DWORD PTR [esi+248], OFFSET ??_7CSpeedArcDrawer@@6B@

; 459  : }

  00060	8b c6		 mov	 eax, esi
  00062	8b 4d f4	 mov	 ecx, DWORD PTR __$EHRec$[ebp]
  00065	64 89 0d 00 00
	00 00		 mov	 DWORD PTR fs:0, ecx
  0006c	59		 pop	 ecx
  0006d	5e		 pop	 esi
  0006e	8b e5		 mov	 esp, ebp
  00070	5d		 pop	 ebp
  00071	c2 08 00	 ret	 8
  00074	cc		 int	 3
  00075	cc		 int	 3
  00076	cc		 int	 3
  00077	cc		 int	 3
  00078	cc		 int	 3
_TEXT	ENDS
;	COMDAT text$x
text$x	SEGMENT
__ehhandler$??0CSpeedArcTool@@QAE@PAVCAnalysisData@@W4COORDINATETYPE@CAnalysis@@@Z:
  00000	90		 npad	 1
  00001	90		 npad	 1
  00002	8b 54 24 08	 mov	 edx, DWORD PTR [esp+8]
  00006	8d 42 0c	 lea	 eax, DWORD PTR [edx+12]
  00009	8b 4a f4	 mov	 ecx, DWORD PTR [edx-12]
  0000c	33 c8		 xor	 ecx, eax
  0000e	e8 00 00 00 00	 call	 @__security_check_cookie@4
  00013	b8 00 00 00 00	 mov	 eax, OFFSET __ehfuncinfo$??0CSpeedArcTool@@QAE@PAVCAnalysisData@@W4COORDINATETYPE@CAnalysis@@@Z
  00018	e9 00 00 00 00	 jmp	 ___CxxFrameHandler3
text$x	ENDS
??0CSpeedArcTool@@QAE@PAVCAnalysisData@@W4COORDINATETYPE@CAnalysis@@@Z ENDP ; CSpeedArcTool::CSpeedArcTool
; Function compile flags: /Ogtp
; File D:\git\src\IBK\IBK_DRFN\ProjSrc\SrcChartEx\ChartAddIn\ChartAnalysisToolAddIn\AnalysisTool\LineTool.cpp
;	COMDAT ?GetTwoPointDrawer@CSpeedFanTool@@MAEAAVCTwoPointDrawer@@XZ
_TEXT	SEGMENT
?GetTwoPointDrawer@CSpeedFanTool@@MAEAAVCTwoPointDrawer@@XZ PROC ; CSpeedFanTool::GetTwoPointDrawer, COMDAT
; _this$ = ecx

; 449  : 	return m_speedFanDrawer;

  00000	8d 81 f8 00 00
	00		 lea	 eax, DWORD PTR [ecx+248]

; 450  : }

  00006	c3		 ret	 0
?GetTwoPointDrawer@CSpeedFanTool@@MAEAAVCTwoPointDrawer@@XZ ENDP ; CSpeedFanTool::GetTwoPointDrawer
_TEXT	ENDS
; Function compile flags: /Ogtp
; File D:\git\src\IBK\IBK_DRFN\ProjSrc\SrcChartEx\ChartAddIn\ChartAnalysisToolAddIn\AnalysisTool\LineTool.cpp
;	COMDAT ?GetToolType@CSpeedFanTool@@MBE?AW4TOOLTYPE@CAnalysis@@XZ
_TEXT	SEGMENT
?GetToolType@CSpeedFanTool@@MBE?AW4TOOLTYPE@CAnalysis@@XZ PROC ; CSpeedFanTool::GetToolType, COMDAT
; _this$ = ecx

; 444  : 	return CAnalysis::EN_ANALYSIS_SPEED_FAN;

  00000	b8 19 00 00 00	 mov	 eax, 25			; 00000019H

; 445  : }

  00005	c3		 ret	 0
?GetToolType@CSpeedFanTool@@MBE?AW4TOOLTYPE@CAnalysis@@XZ ENDP ; CSpeedFanTool::GetToolType
_TEXT	ENDS
; Function compile flags: /Ogtp
; File D:\git\src\IBK\IBK_DRFN\ProjSrc\SrcChartEx\ChartAddIn\ChartAnalysisToolAddIn\AnalysisTool\LineTool.cpp
;	COMDAT ??0CSpeedFanTool@@QAE@PAVCAnalysisData@@W4COORDINATETYPE@CAnalysis@@@Z
_TEXT	SEGMENT
_this$ = -16						; size = 4
__$EHRec$ = -12						; size = 12
_pAnalysisData$ = 8					; size = 4
_eCoordinateType$ = 12					; size = 4
??0CSpeedFanTool@@QAE@PAVCAnalysisData@@W4COORDINATETYPE@CAnalysis@@@Z PROC ; CSpeedFanTool::CSpeedFanTool, COMDAT
; _this$ = ecx

; 438  : {

  00000	55		 push	 ebp
  00001	8b ec		 mov	 ebp, esp
  00003	6a ff		 push	 -1
  00005	68 00 00 00 00	 push	 __ehhandler$??0CSpeedFanTool@@QAE@PAVCAnalysisData@@W4COORDINATETYPE@CAnalysis@@@Z
  0000a	64 a1 00 00 00
	00		 mov	 eax, DWORD PTR fs:0
  00010	50		 push	 eax
  00011	51		 push	 ecx
  00012	56		 push	 esi
  00013	a1 00 00 00 00	 mov	 eax, DWORD PTR ___security_cookie
  00018	33 c5		 xor	 eax, ebp
  0001a	50		 push	 eax
  0001b	8d 45 f4	 lea	 eax, DWORD PTR __$EHRec$[ebp]
  0001e	64 a3 00 00 00
	00		 mov	 DWORD PTR fs:0, eax
  00024	8b f1		 mov	 esi, ecx
  00026	89 75 f0	 mov	 DWORD PTR _this$[ebp], esi

; 436  : 	: CTwoPointDownTool(pAnalysisData, eCoordinateType)

  00029	ff 75 0c	 push	 DWORD PTR _eCoordinateType$[ebp]
  0002c	ff 75 08	 push	 DWORD PTR _pAnalysisData$[ebp]
  0002f	e8 00 00 00 00	 call	 ??0CTwoPointDownTool@@IAE@PAVCAnalysisData@@W4COORDINATETYPE@CAnalysis@@@Z ; CTwoPointDownTool::CTwoPointDownTool

; 438  : {

  00034	c7 06 00 00 00
	00		 mov	 DWORD PTR [esi], OFFSET ??_7CSpeedFanTool@@6B@
  0003a	8d 8e 00 01 00
	00		 lea	 ecx, DWORD PTR [esi+256]
  00040	c7 45 fc 00 00
	00 00		 mov	 DWORD PTR __$EHRec$[ebp+8], 0
  00047	c7 86 fc 00 00
	00 00 00 00 00	 mov	 DWORD PTR [esi+252], OFFSET ??_8CSpeedFanDrawer@@7B@
  00051	e8 00 00 00 00	 call	 ??0CDrawer@@QAE@XZ	; CDrawer::CDrawer
  00056	c7 86 f8 00 00
	00 00 00 00 00	 mov	 DWORD PTR [esi+248], OFFSET ??_7CSpeedFanDrawer@@6B@

; 439  : }

  00060	8b c6		 mov	 eax, esi
  00062	8b 4d f4	 mov	 ecx, DWORD PTR __$EHRec$[ebp]
  00065	64 89 0d 00 00
	00 00		 mov	 DWORD PTR fs:0, ecx
  0006c	59		 pop	 ecx
  0006d	5e		 pop	 esi
  0006e	8b e5		 mov	 esp, ebp
  00070	5d		 pop	 ebp
  00071	c2 08 00	 ret	 8
  00074	cc		 int	 3
  00075	cc		 int	 3
  00076	cc		 int	 3
  00077	cc		 int	 3
  00078	cc		 int	 3
_TEXT	ENDS
;	COMDAT text$x
text$x	SEGMENT
__ehhandler$??0CSpeedFanTool@@QAE@PAVCAnalysisData@@W4COORDINATETYPE@CAnalysis@@@Z:
  00000	90		 npad	 1
  00001	90		 npad	 1
  00002	8b 54 24 08	 mov	 edx, DWORD PTR [esp+8]
  00006	8d 42 0c	 lea	 eax, DWORD PTR [edx+12]
  00009	8b 4a f4	 mov	 ecx, DWORD PTR [edx-12]
  0000c	33 c8		 xor	 ecx, eax
  0000e	e8 00 00 00 00	 call	 @__security_check_cookie@4
  00013	b8 00 00 00 00	 mov	 eax, OFFSET __ehfuncinfo$??0CSpeedFanTool@@QAE@PAVCAnalysisData@@W4COORDINATETYPE@CAnalysis@@@Z
  00018	e9 00 00 00 00	 jmp	 ___CxxFrameHandler3
text$x	ENDS
??0CSpeedFanTool@@QAE@PAVCAnalysisData@@W4COORDINATETYPE@CAnalysis@@@Z ENDP ; CSpeedFanTool::CSpeedFanTool
; Function compile flags: /Ogtp
; File D:\git\src\IBK\IBK_DRFN\ProjSrc\SrcChartEx\ChartAddIn\ChartAnalysisToolAddIn\AnalysisTool\LineTool.cpp
;	COMDAT ?GetTwoPointDrawer@CSpeedLineTool@@MAEAAVCTwoPointDrawer@@XZ
_TEXT	SEGMENT
?GetTwoPointDrawer@CSpeedLineTool@@MAEAAVCTwoPointDrawer@@XZ PROC ; CSpeedLineTool::GetTwoPointDrawer, COMDAT
; _this$ = ecx

; 429  : 	return m_speedLineDrawer;

  00000	8d 81 f8 00 00
	00		 lea	 eax, DWORD PTR [ecx+248]

; 430  : }

  00006	c3		 ret	 0
?GetTwoPointDrawer@CSpeedLineTool@@MAEAAVCTwoPointDrawer@@XZ ENDP ; CSpeedLineTool::GetTwoPointDrawer
_TEXT	ENDS
; Function compile flags: /Ogtp
; File D:\git\src\IBK\IBK_DRFN\ProjSrc\SrcChartEx\ChartAddIn\ChartAnalysisToolAddIn\AnalysisTool\LineTool.cpp
;	COMDAT ?GetToolType@CSpeedLineTool@@MBE?AW4TOOLTYPE@CAnalysis@@XZ
_TEXT	SEGMENT
?GetToolType@CSpeedLineTool@@MBE?AW4TOOLTYPE@CAnalysis@@XZ PROC ; CSpeedLineTool::GetToolType, COMDAT
; _this$ = ecx

; 424  : 	return CAnalysis::EN_ANALYSIS_SPEED_LINE;

  00000	b8 18 00 00 00	 mov	 eax, 24			; 00000018H

; 425  : }

  00005	c3		 ret	 0
?GetToolType@CSpeedLineTool@@MBE?AW4TOOLTYPE@CAnalysis@@XZ ENDP ; CSpeedLineTool::GetToolType
_TEXT	ENDS
; Function compile flags: /Ogtp
; File D:\git\src\IBK\IBK_DRFN\ProjSrc\SrcChartEx\ChartAddIn\ChartAnalysisToolAddIn\AnalysisTool\LineTool.cpp
;	COMDAT ??0CSpeedLineTool@@QAE@PAVCAnalysisData@@W4COORDINATETYPE@CAnalysis@@@Z
_TEXT	SEGMENT
_this$ = -16						; size = 4
__$EHRec$ = -12						; size = 12
_pAnalysisData$ = 8					; size = 4
_eCoordinateType$ = 12					; size = 4
??0CSpeedLineTool@@QAE@PAVCAnalysisData@@W4COORDINATETYPE@CAnalysis@@@Z PROC ; CSpeedLineTool::CSpeedLineTool, COMDAT
; _this$ = ecx

; 418  : {

  00000	55		 push	 ebp
  00001	8b ec		 mov	 ebp, esp
  00003	6a ff		 push	 -1
  00005	68 00 00 00 00	 push	 __ehhandler$??0CSpeedLineTool@@QAE@PAVCAnalysisData@@W4COORDINATETYPE@CAnalysis@@@Z
  0000a	64 a1 00 00 00
	00		 mov	 eax, DWORD PTR fs:0
  00010	50		 push	 eax
  00011	51		 push	 ecx
  00012	56		 push	 esi
  00013	a1 00 00 00 00	 mov	 eax, DWORD PTR ___security_cookie
  00018	33 c5		 xor	 eax, ebp
  0001a	50		 push	 eax
  0001b	8d 45 f4	 lea	 eax, DWORD PTR __$EHRec$[ebp]
  0001e	64 a3 00 00 00
	00		 mov	 DWORD PTR fs:0, eax
  00024	8b f1		 mov	 esi, ecx
  00026	89 75 f0	 mov	 DWORD PTR _this$[ebp], esi

; 417  : 	CTwoPointDownTool(pAnalysisData, eCoordinateType)

  00029	ff 75 0c	 push	 DWORD PTR _eCoordinateType$[ebp]
  0002c	ff 75 08	 push	 DWORD PTR _pAnalysisData$[ebp]
  0002f	e8 00 00 00 00	 call	 ??0CTwoPointDownTool@@IAE@PAVCAnalysisData@@W4COORDINATETYPE@CAnalysis@@@Z ; CTwoPointDownTool::CTwoPointDownTool

; 418  : {

  00034	c7 06 00 00 00
	00		 mov	 DWORD PTR [esi], OFFSET ??_7CSpeedLineTool@@6B@
  0003a	8d 8e 00 01 00
	00		 lea	 ecx, DWORD PTR [esi+256]
  00040	c7 45 fc 00 00
	00 00		 mov	 DWORD PTR __$EHRec$[ebp+8], 0
  00047	c7 86 fc 00 00
	00 00 00 00 00	 mov	 DWORD PTR [esi+252], OFFSET ??_8CSpeedLineDrawer@@7B@
  00051	e8 00 00 00 00	 call	 ??0CDrawer@@QAE@XZ	; CDrawer::CDrawer
  00056	c7 86 f8 00 00
	00 00 00 00 00	 mov	 DWORD PTR [esi+248], OFFSET ??_7CSpeedLineDrawer@@6B@

; 419  : }

  00060	8b c6		 mov	 eax, esi
  00062	8b 4d f4	 mov	 ecx, DWORD PTR __$EHRec$[ebp]
  00065	64 89 0d 00 00
	00 00		 mov	 DWORD PTR fs:0, ecx
  0006c	59		 pop	 ecx
  0006d	5e		 pop	 esi
  0006e	8b e5		 mov	 esp, ebp
  00070	5d		 pop	 ebp
  00071	c2 08 00	 ret	 8
  00074	cc		 int	 3
  00075	cc		 int	 3
  00076	cc		 int	 3
  00077	cc		 int	 3
  00078	cc		 int	 3
_TEXT	ENDS
;	COMDAT text$x
text$x	SEGMENT
__ehhandler$??0CSpeedLineTool@@QAE@PAVCAnalysisData@@W4COORDINATETYPE@CAnalysis@@@Z:
  00000	90		 npad	 1
  00001	90		 npad	 1
  00002	8b 54 24 08	 mov	 edx, DWORD PTR [esp+8]
  00006	8d 42 0c	 lea	 eax, DWORD PTR [edx+12]
  00009	8b 4a f4	 mov	 ecx, DWORD PTR [edx-12]
  0000c	33 c8		 xor	 ecx, eax
  0000e	e8 00 00 00 00	 call	 @__security_check_cookie@4
  00013	b8 00 00 00 00	 mov	 eax, OFFSET __ehfuncinfo$??0CSpeedLineTool@@QAE@PAVCAnalysisData@@W4COORDINATETYPE@CAnalysis@@@Z
  00018	e9 00 00 00 00	 jmp	 ___CxxFrameHandler3
text$x	ENDS
??0CSpeedLineTool@@QAE@PAVCAnalysisData@@W4COORDINATETYPE@CAnalysis@@@Z ENDP ; CSpeedLineTool::CSpeedLineTool
; Function compile flags: /Ogtp
; File D:\git\src\IBK\IBK_DRFN\ProjSrc\SrcChartEx\ChartAddIn\ChartAnalysisToolAddIn\AnalysisTool\LineTool.cpp
;	COMDAT ?GetTwoPointDrawer@CCycleLinesTool@@MAEAAVCTwoPointDrawer@@XZ
_TEXT	SEGMENT
?GetTwoPointDrawer@CCycleLinesTool@@MAEAAVCTwoPointDrawer@@XZ PROC ; CCycleLinesTool::GetTwoPointDrawer, COMDAT
; _this$ = ecx

; 405  : 	return m_cycleLinesDrawer;

  00000	8d 81 f8 00 00
	00		 lea	 eax, DWORD PTR [ecx+248]

; 406  : }

  00006	c3		 ret	 0
?GetTwoPointDrawer@CCycleLinesTool@@MAEAAVCTwoPointDrawer@@XZ ENDP ; CCycleLinesTool::GetTwoPointDrawer
_TEXT	ENDS
; Function compile flags: /Ogtp
; File D:\git\src\IBK\IBK_DRFN\ProjSrc\SrcChartEx\ChartAddIn\ChartAnalysisToolAddIn\AnalysisTool\LineTool.cpp
;	COMDAT ?GetToolType@CCycleLinesTool@@MBE?AW4TOOLTYPE@CAnalysis@@XZ
_TEXT	SEGMENT
?GetToolType@CCycleLinesTool@@MBE?AW4TOOLTYPE@CAnalysis@@XZ PROC ; CCycleLinesTool::GetToolType, COMDAT
; _this$ = ecx

; 400  : 	return CAnalysis::EN_ANALYSIS_CYCLE_LINES;

  00000	b8 16 00 00 00	 mov	 eax, 22			; 00000016H

; 401  : }

  00005	c3		 ret	 0
?GetToolType@CCycleLinesTool@@MBE?AW4TOOLTYPE@CAnalysis@@XZ ENDP ; CCycleLinesTool::GetToolType
_TEXT	ENDS
; Function compile flags: /Ogtp
; File D:\git\src\IBK\IBK_DRFN\ProjSrc\SrcChartEx\ChartAddIn\ChartAnalysisToolAddIn\AnalysisTool\LineTool.cpp
;	COMDAT ??0CCycleLinesTool@@QAE@PAVCAnalysisData@@W4COORDINATETYPE@CAnalysis@@@Z
_TEXT	SEGMENT
_this$ = -16						; size = 4
__$EHRec$ = -12						; size = 12
_pAnalysisData$ = 8					; size = 4
_eCoordinateType$ = 12					; size = 4
??0CCycleLinesTool@@QAE@PAVCAnalysisData@@W4COORDINATETYPE@CAnalysis@@@Z PROC ; CCycleLinesTool::CCycleLinesTool, COMDAT
; _this$ = ecx

; 394  : {

  00000	55		 push	 ebp
  00001	8b ec		 mov	 ebp, esp
  00003	6a ff		 push	 -1
  00005	68 00 00 00 00	 push	 __ehhandler$??0CCycleLinesTool@@QAE@PAVCAnalysisData@@W4COORDINATETYPE@CAnalysis@@@Z
  0000a	64 a1 00 00 00
	00		 mov	 eax, DWORD PTR fs:0
  00010	50		 push	 eax
  00011	51		 push	 ecx
  00012	56		 push	 esi
  00013	a1 00 00 00 00	 mov	 eax, DWORD PTR ___security_cookie
  00018	33 c5		 xor	 eax, ebp
  0001a	50		 push	 eax
  0001b	8d 45 f4	 lea	 eax, DWORD PTR __$EHRec$[ebp]
  0001e	64 a3 00 00 00
	00		 mov	 DWORD PTR fs:0, eax
  00024	8b f1		 mov	 esi, ecx
  00026	89 75 f0	 mov	 DWORD PTR _this$[ebp], esi

; 393  : 	CTwoPointDownTool(pAnalysisData, eCoordinateType)

  00029	ff 75 0c	 push	 DWORD PTR _eCoordinateType$[ebp]
  0002c	ff 75 08	 push	 DWORD PTR _pAnalysisData$[ebp]
  0002f	e8 00 00 00 00	 call	 ??0CTwoPointDownTool@@IAE@PAVCAnalysisData@@W4COORDINATETYPE@CAnalysis@@@Z ; CTwoPointDownTool::CTwoPointDownTool

; 394  : {

  00034	c7 06 00 00 00
	00		 mov	 DWORD PTR [esi], OFFSET ??_7CCycleLinesTool@@6B@
  0003a	8d 8e 08 01 00
	00		 lea	 ecx, DWORD PTR [esi+264]
  00040	c7 45 fc 00 00
	00 00		 mov	 DWORD PTR __$EHRec$[ebp+8], 0
  00047	c7 86 fc 00 00
	00 00 00 00 00	 mov	 DWORD PTR [esi+252], OFFSET ??_8CCycleLinesDrawer@@7B@
  00051	e8 00 00 00 00	 call	 ??0CDrawer@@QAE@XZ	; CDrawer::CDrawer
  00056	c7 86 f8 00 00
	00 00 00 00 00	 mov	 DWORD PTR [esi+248], OFFSET ??_7CCycleLinesDrawer@@6B@

; 395  : }

  00060	8b c6		 mov	 eax, esi
  00062	8b 4d f4	 mov	 ecx, DWORD PTR __$EHRec$[ebp]
  00065	64 89 0d 00 00
	00 00		 mov	 DWORD PTR fs:0, ecx
  0006c	59		 pop	 ecx
  0006d	5e		 pop	 esi
  0006e	8b e5		 mov	 esp, ebp
  00070	5d		 pop	 ebp
  00071	c2 08 00	 ret	 8
  00074	cc		 int	 3
  00075	cc		 int	 3
  00076	cc		 int	 3
  00077	cc		 int	 3
  00078	cc		 int	 3
_TEXT	ENDS
;	COMDAT text$x
text$x	SEGMENT
__ehhandler$??0CCycleLinesTool@@QAE@PAVCAnalysisData@@W4COORDINATETYPE@CAnalysis@@@Z:
  00000	90		 npad	 1
  00001	90		 npad	 1
  00002	8b 54 24 08	 mov	 edx, DWORD PTR [esp+8]
  00006	8d 42 0c	 lea	 eax, DWORD PTR [edx+12]
  00009	8b 4a f4	 mov	 ecx, DWORD PTR [edx-12]
  0000c	33 c8		 xor	 ecx, eax
  0000e	e8 00 00 00 00	 call	 @__security_check_cookie@4
  00013	b8 00 00 00 00	 mov	 eax, OFFSET __ehfuncinfo$??0CCycleLinesTool@@QAE@PAVCAnalysisData@@W4COORDINATETYPE@CAnalysis@@@Z
  00018	e9 00 00 00 00	 jmp	 ___CxxFrameHandler3
text$x	ENDS
??0CCycleLinesTool@@QAE@PAVCAnalysisData@@W4COORDINATETYPE@CAnalysis@@@Z ENDP ; CCycleLinesTool::CCycleLinesTool
; Function compile flags: /Ogtp
; File D:\git\src\IBK\IBK_DRFN\ProjSrc\SrcChartEx\ChartAddIn\ChartAnalysisToolAddIn\AnalysisTool\LineTool.cpp
;	COMDAT ?GetThreePointDrawer@CAndrewsPitchforkTool@@MAEAAVCThreePointDrawer@@XZ
_TEXT	SEGMENT
?GetThreePointDrawer@CAndrewsPitchforkTool@@MAEAAVCThreePointDrawer@@XZ PROC ; CAndrewsPitchforkTool::GetThreePointDrawer, COMDAT
; _this$ = ecx

; 386  : 	return m_andrewsDrawer;

  00000	8d 81 00 01 00
	00		 lea	 eax, DWORD PTR [ecx+256]

; 387  : }

  00006	c3		 ret	 0
?GetThreePointDrawer@CAndrewsPitchforkTool@@MAEAAVCThreePointDrawer@@XZ ENDP ; CAndrewsPitchforkTool::GetThreePointDrawer
_TEXT	ENDS
; Function compile flags: /Ogtp
; File D:\git\src\IBK\IBK_DRFN\ProjSrc\SrcChartEx\ChartAddIn\ChartAnalysisToolAddIn\AnalysisTool\LineTool.cpp
;	COMDAT ?GetToolType@CAndrewsPitchforkTool@@MBE?AW4TOOLTYPE@CAnalysis@@XZ
_TEXT	SEGMENT
?GetToolType@CAndrewsPitchforkTool@@MBE?AW4TOOLTYPE@CAnalysis@@XZ PROC ; CAndrewsPitchforkTool::GetToolType, COMDAT
; _this$ = ecx

; 381  : 	return CAnalysis::EN_ANALYSIS_ANDREWS_PITCHFORK;

  00000	b8 14 00 00 00	 mov	 eax, 20			; 00000014H

; 382  : }

  00005	c3		 ret	 0
?GetToolType@CAndrewsPitchforkTool@@MBE?AW4TOOLTYPE@CAnalysis@@XZ ENDP ; CAndrewsPitchforkTool::GetToolType
_TEXT	ENDS
; Function compile flags: /Ogtp
; File D:\git\src\IBK\IBK_DRFN\ProjSrc\SrcChartEx\ChartAddIn\ChartAnalysisToolAddIn\AnalysisTool\LineTool.cpp
;	COMDAT ??0CAndrewsPitchforkTool@@QAE@PAVCAnalysisData@@W4COORDINATETYPE@CAnalysis@@@Z
_TEXT	SEGMENT
_this$ = -16						; size = 4
__$EHRec$ = -12						; size = 12
_pAnalysisData$ = 8					; size = 4
_eCoordinateType$ = 12					; size = 4
??0CAndrewsPitchforkTool@@QAE@PAVCAnalysisData@@W4COORDINATETYPE@CAnalysis@@@Z PROC ; CAndrewsPitchforkTool::CAndrewsPitchforkTool, COMDAT
; _this$ = ecx

; 375  : {

  00000	55		 push	 ebp
  00001	8b ec		 mov	 ebp, esp
  00003	6a ff		 push	 -1
  00005	68 00 00 00 00	 push	 __ehhandler$??0CAndrewsPitchforkTool@@QAE@PAVCAnalysisData@@W4COORDINATETYPE@CAnalysis@@@Z
  0000a	64 a1 00 00 00
	00		 mov	 eax, DWORD PTR fs:0
  00010	50		 push	 eax
  00011	51		 push	 ecx
  00012	56		 push	 esi
  00013	a1 00 00 00 00	 mov	 eax, DWORD PTR ___security_cookie
  00018	33 c5		 xor	 eax, ebp
  0001a	50		 push	 eax
  0001b	8d 45 f4	 lea	 eax, DWORD PTR __$EHRec$[ebp]
  0001e	64 a3 00 00 00
	00		 mov	 DWORD PTR fs:0, eax
  00024	8b f1		 mov	 esi, ecx
  00026	89 75 f0	 mov	 DWORD PTR _this$[ebp], esi

; 374  : 	CThreePointDownTool(pAnalysisData, eCoordinateType)

  00029	ff 75 0c	 push	 DWORD PTR _eCoordinateType$[ebp]
  0002c	ff 75 08	 push	 DWORD PTR _pAnalysisData$[ebp]
  0002f	e8 00 00 00 00	 call	 ??0CThreePointDownTool@@IAE@PAVCAnalysisData@@W4COORDINATETYPE@CAnalysis@@@Z ; CThreePointDownTool::CThreePointDownTool
  00034	8d 8e 04 01 00
	00		 lea	 ecx, DWORD PTR [esi+260]
  0003a	c7 45 fc 00 00
	00 00		 mov	 DWORD PTR __$EHRec$[ebp+8], 0

; 375  : {

  00041	c7 06 00 00 00
	00		 mov	 DWORD PTR [esi], OFFSET ??_7CAndrewsPitchforkTool@@6B@
  00047	e8 00 00 00 00	 call	 ??0CDrawer@@QAE@XZ	; CDrawer::CDrawer
  0004c	c7 86 00 01 00
	00 00 00 00 00	 mov	 DWORD PTR [esi+256], OFFSET ??_7CAndrewsPitchforkDrawer@@6B@

; 376  : }

  00056	8b c6		 mov	 eax, esi
  00058	8b 4d f4	 mov	 ecx, DWORD PTR __$EHRec$[ebp]
  0005b	64 89 0d 00 00
	00 00		 mov	 DWORD PTR fs:0, ecx
  00062	59		 pop	 ecx
  00063	5e		 pop	 esi
  00064	8b e5		 mov	 esp, ebp
  00066	5d		 pop	 ebp
  00067	c2 08 00	 ret	 8
_TEXT	ENDS
;	COMDAT text$x
text$x	SEGMENT
__unwindfunclet$??0CAndrewsPitchforkTool@@QAE@PAVCAnalysisData@@W4COORDINATETYPE@CAnalysis@@@Z$0:
  00000	8b 4d f0	 mov	 ecx, DWORD PTR _this$[ebp]
  00003	e9 00 00 00 00	 jmp	 ??1CThreePointDownTool@@QAE@XZ
  00008	cc		 int	 3
  00009	cc		 int	 3
  0000a	cc		 int	 3
  0000b	cc		 int	 3
  0000c	cc		 int	 3
__ehhandler$??0CAndrewsPitchforkTool@@QAE@PAVCAnalysisData@@W4COORDINATETYPE@CAnalysis@@@Z:
  0000d	90		 npad	 1
  0000e	90		 npad	 1
  0000f	8b 54 24 08	 mov	 edx, DWORD PTR [esp+8]
  00013	8d 42 0c	 lea	 eax, DWORD PTR [edx+12]
  00016	8b 4a f4	 mov	 ecx, DWORD PTR [edx-12]
  00019	33 c8		 xor	 ecx, eax
  0001b	e8 00 00 00 00	 call	 @__security_check_cookie@4
  00020	b8 00 00 00 00	 mov	 eax, OFFSET __ehfuncinfo$??0CAndrewsPitchforkTool@@QAE@PAVCAnalysisData@@W4COORDINATETYPE@CAnalysis@@@Z
  00025	e9 00 00 00 00	 jmp	 ___CxxFrameHandler3
text$x	ENDS
??0CAndrewsPitchforkTool@@QAE@PAVCAnalysisData@@W4COORDINATETYPE@CAnalysis@@@Z ENDP ; CAndrewsPitchforkTool::CAndrewsPitchforkTool
; Function compile flags: /Ogtp
; File D:\git\src\IBK\IBK_DRFN\ProjSrc\SrcChartEx\ChartAddIn\ChartAnalysisToolAddIn\AnalysisTool\LineTool.cpp
;	COMDAT ?GetTwoPointDrawer@CQuadrisectLineTool@@MAEAAVCTwoPointDrawer@@XZ
_TEXT	SEGMENT
?GetTwoPointDrawer@CQuadrisectLineTool@@MAEAAVCTwoPointDrawer@@XZ PROC ; CQuadrisectLineTool::GetTwoPointDrawer, COMDAT
; _this$ = ecx

; 367  : 	return m_quadrisectLineDrawer;

  00000	8d 81 04 01 00
	00		 lea	 eax, DWORD PTR [ecx+260]

; 368  : }

  00006	c3		 ret	 0
?GetTwoPointDrawer@CQuadrisectLineTool@@MAEAAVCTwoPointDrawer@@XZ ENDP ; CQuadrisectLineTool::GetTwoPointDrawer
_TEXT	ENDS
; Function compile flags: /Ogtp
; File D:\git\src\IBK\IBK_DRFN\ProjSrc\SrcChartEx\ChartAddIn\ChartAnalysisToolAddIn\AnalysisTool\LineTool.cpp
;	COMDAT ?GetTextPosition@CQuadrisectLineTool@@MAEPAVCTextPosition@@XZ
_TEXT	SEGMENT
?GetTextPosition@CQuadrisectLineTool@@MAEPAVCTextPosition@@XZ PROC ; CQuadrisectLineTool::GetTextPosition, COMDAT
; _this$ = ecx

; 362  : 	return &m_textPosition;

  00000	8d 81 f8 00 00
	00		 lea	 eax, DWORD PTR [ecx+248]

; 363  : }

  00006	c3		 ret	 0
?GetTextPosition@CQuadrisectLineTool@@MAEPAVCTextPosition@@XZ ENDP ; CQuadrisectLineTool::GetTextPosition
_TEXT	ENDS
; Function compile flags: /Ogtp
; File D:\git\src\IBK\IBK_DRFN\ProjSrc\SrcChartEx\ChartAddIn\ChartAnalysisToolAddIn\AnalysisTool\LineTool.cpp
;	COMDAT ?GetTextPosition@CQuadrisectLineTool@@MBEPBVCTextPosition@@XZ
_TEXT	SEGMENT
?GetTextPosition@CQuadrisectLineTool@@MBEPBVCTextPosition@@XZ PROC ; CQuadrisectLineTool::GetTextPosition, COMDAT
; _this$ = ecx

; 357  : 	return &m_textPosition;

  00000	8d 81 f8 00 00
	00		 lea	 eax, DWORD PTR [ecx+248]

; 358  : }

  00006	c3		 ret	 0
?GetTextPosition@CQuadrisectLineTool@@MBEPBVCTextPosition@@XZ ENDP ; CQuadrisectLineTool::GetTextPosition
_TEXT	ENDS
; Function compile flags: /Ogtp
; File D:\git\src\IBK\IBK_DRFN\ProjSrc\SrcChartEx\ChartAddIn\ChartAnalysisToolAddIn\AnalysisTool\LineTool.cpp
;	COMDAT ?GetToolType@CQuadrisectLineTool@@MBE?AW4TOOLTYPE@CAnalysis@@XZ
_TEXT	SEGMENT
?GetToolType@CQuadrisectLineTool@@MBE?AW4TOOLTYPE@CAnalysis@@XZ PROC ; CQuadrisectLineTool::GetToolType, COMDAT
; _this$ = ecx

; 352  : 	return CAnalysis::EN_ANALYSIS_QUARTER;

  00000	b8 07 00 00 00	 mov	 eax, 7

; 353  : }

  00005	c3		 ret	 0
?GetToolType@CQuadrisectLineTool@@MBE?AW4TOOLTYPE@CAnalysis@@XZ ENDP ; CQuadrisectLineTool::GetToolType
_TEXT	ENDS
; Function compile flags: /Ogtp
; File D:\git\src\IBK\IBK_DRFN\ProjSrc\SrcChartEx\ChartAddIn\ChartAnalysisToolAddIn\AnalysisTool\LineTool.cpp
;	COMDAT ?SetTextEnvironment@CQuadrisectLineTool@@QAEXABVCTextEnvironment@@@Z
_TEXT	SEGMENT
_textEnvironment$ = 8					; size = 4
?SetTextEnvironment@CQuadrisectLineTool@@QAEXABVCTextEnvironment@@@Z PROC ; CQuadrisectLineTool::SetTextEnvironment, COMDAT
; _this$ = ecx

; 345  : {

  00000	55		 push	 ebp
  00001	8b ec		 mov	 ebp, esp

; 346  : 	m_textPosition.SetTextEnvironment(textEnvironment);

  00003	81 c1 f8 00 00
	00		 add	 ecx, 248		; 000000f8H

; 347  : }

  00009	5d		 pop	 ebp

; 346  : 	m_textPosition.SetTextEnvironment(textEnvironment);

  0000a	e9 00 00 00 00	 jmp	 ?SetTextEnvironment@CTextPosition@@QAEXABVCTextEnvironment@@@Z ; CTextPosition::SetTextEnvironment
?SetTextEnvironment@CQuadrisectLineTool@@QAEXABVCTextEnvironment@@@Z ENDP ; CQuadrisectLineTool::SetTextEnvironment
_TEXT	ENDS
; Function compile flags: /Ogtp
; File D:\git\src\IBK\IBK_DRFN\ProjSrc\SrcChartEx\ChartAddIn\ChartAnalysisToolAddIn\AnalysisTool\LineTool.cpp
;	COMDAT ?SetTextPosition@CQuadrisectLineTool@@QAEX_N0@Z
_TEXT	SEGMENT
_bLeft$ = 8						; size = 1
_bRight$ = 12						; size = 1
?SetTextPosition@CQuadrisectLineTool@@QAEX_N0@Z PROC	; CQuadrisectLineTool::SetTextPosition, COMDAT
; _this$ = ecx

; 339  : {

  00000	55		 push	 ebp
  00001	8b ec		 mov	 ebp, esp
  00003	56		 push	 esi

; 340  : 	m_textPosition.SetLeft(bLeft);

  00004	ff 75 08	 push	 DWORD PTR _bLeft$[ebp]
  00007	8d b1 f8 00 00
	00		 lea	 esi, DWORD PTR [ecx+248]
  0000d	8b ce		 mov	 ecx, esi
  0000f	e8 00 00 00 00	 call	 ?SetLeft@CTextHorzPosition@@QAEX_N@Z ; CTextHorzPosition::SetLeft

; 341  : 	m_textPosition.SetRight(bRight);

  00014	ff 75 0c	 push	 DWORD PTR _bRight$[ebp]
  00017	8b ce		 mov	 ecx, esi
  00019	e8 00 00 00 00	 call	 ?SetRight@CTextHorzPosition@@QAEX_N@Z ; CTextHorzPosition::SetRight
  0001e	5e		 pop	 esi

; 342  : }

  0001f	5d		 pop	 ebp
  00020	c2 08 00	 ret	 8
?SetTextPosition@CQuadrisectLineTool@@QAEX_N0@Z ENDP	; CQuadrisectLineTool::SetTextPosition
_TEXT	ENDS
; Function compile flags: /Ogtp
; File D:\git\src\IBK\IBK_DRFN\ProjSrc\SrcChartEx\ChartAddIn\ChartAnalysisToolAddIn\AnalysisTool\LineTool.cpp
;	COMDAT ?SetTextPosition@CQuadrisectLineTool@@QAEXABVCTextHorzPosition@@@Z
_TEXT	SEGMENT
_position$ = 8						; size = 4
?SetTextPosition@CQuadrisectLineTool@@QAEXABVCTextHorzPosition@@@Z PROC ; CQuadrisectLineTool::SetTextPosition, COMDAT
; _this$ = ecx

; 334  : {

  00000	55		 push	 ebp
  00001	8b ec		 mov	 ebp, esp
  00003	56		 push	 esi

; 335  : 	m_textPosition = position;

  00004	8b 75 08	 mov	 esi, DWORD PTR _position$[ebp]
  00007	57		 push	 edi
  00008	8d b9 f8 00 00
	00		 lea	 edi, DWORD PTR [ecx+248]
  0000e	56		 push	 esi
  0000f	8b cf		 mov	 ecx, edi
  00011	e8 00 00 00 00	 call	 ??4CTextPosition@@QAEAAV0@ABV0@@Z ; CTextPosition::operator=
  00016	0f b6 46 08	 movzx	 eax, BYTE PTR [esi+8]
  0001a	88 47 08	 mov	 BYTE PTR [edi+8], al
  0001d	0f b6 46 09	 movzx	 eax, BYTE PTR [esi+9]
  00021	88 47 09	 mov	 BYTE PTR [edi+9], al
  00024	0f b6 46 0a	 movzx	 eax, BYTE PTR [esi+10]
  00028	88 47 0a	 mov	 BYTE PTR [edi+10], al
  0002b	5f		 pop	 edi
  0002c	5e		 pop	 esi

; 336  : }

  0002d	5d		 pop	 ebp
  0002e	c2 04 00	 ret	 4
?SetTextPosition@CQuadrisectLineTool@@QAEXABVCTextHorzPosition@@@Z ENDP ; CQuadrisectLineTool::SetTextPosition
_TEXT	ENDS
; Function compile flags: /Ogtp
; File D:\git\src\IBK\IBK_DRFN\ProjSrc\SrcChartEx\ChartAddIn\ChartAnalysisToolAddIn\AnalysisTool\LineTool.cpp
;	COMDAT ??0CQuadrisectLineTool@@QAE@PAVCAnalysisData@@W4COORDINATETYPE@CAnalysis@@@Z
_TEXT	SEGMENT
_this$ = -16						; size = 4
__$EHRec$ = -12						; size = 12
$T2 = 8							; size = 4
_pAnalysisData$ = 8					; size = 4
$T3 = 12						; size = 4
_eCoordinateType$ = 12					; size = 4
??0CQuadrisectLineTool@@QAE@PAVCAnalysisData@@W4COORDINATETYPE@CAnalysis@@@Z PROC ; CQuadrisectLineTool::CQuadrisectLineTool, COMDAT
; _this$ = ecx

; 330  : {

  00000	55		 push	 ebp
  00001	8b ec		 mov	 ebp, esp
  00003	6a ff		 push	 -1
  00005	68 00 00 00 00	 push	 __ehhandler$??0CQuadrisectLineTool@@QAE@PAVCAnalysisData@@W4COORDINATETYPE@CAnalysis@@@Z
  0000a	64 a1 00 00 00
	00		 mov	 eax, DWORD PTR fs:0
  00010	50		 push	 eax
  00011	51		 push	 ecx
  00012	56		 push	 esi
  00013	a1 00 00 00 00	 mov	 eax, DWORD PTR ___security_cookie
  00018	33 c5		 xor	 eax, ebp
  0001a	50		 push	 eax
  0001b	8d 45 f4	 lea	 eax, DWORD PTR __$EHRec$[ebp]
  0001e	64 a3 00 00 00
	00		 mov	 DWORD PTR fs:0, eax
  00024	8b f1		 mov	 esi, ecx
  00026	89 75 f0	 mov	 DWORD PTR _this$[ebp], esi

; 328  : 	CTwoPointDownTool(pAnalysisData, eCoordinateType),

  00029	ff 75 0c	 push	 DWORD PTR _eCoordinateType$[ebp]
  0002c	ff 75 08	 push	 DWORD PTR _pAnalysisData$[ebp]
  0002f	e8 00 00 00 00	 call	 ??0CTwoPointDownTool@@IAE@PAVCAnalysisData@@W4COORDINATETYPE@CAnalysis@@@Z ; CTwoPointDownTool::CTwoPointDownTool

; 329  : 	m_textPosition(CTextEnvironment(RGB(0, 0, 0)), true, true)

  00034	6a 01		 push	 1
  00036	6a 01		 push	 1
  00038	6a 01		 push	 1
  0003a	8d 45 0c	 lea	 eax, DWORD PTR $T3[ebp]
  0003d	c7 45 fc 00 00
	00 00		 mov	 DWORD PTR __$EHRec$[ebp+8], 0
  00044	50		 push	 eax
  00045	8d 4d 08	 lea	 ecx, DWORD PTR $T2[ebp]

; 330  : {

  00048	c7 06 00 00 00
	00		 mov	 DWORD PTR [esi], OFFSET ??_7CQuadrisectLineTool@@6B@
  0004e	c7 45 0c 00 00
	00 00		 mov	 DWORD PTR $T3[ebp], 0
  00055	e8 00 00 00 00	 call	 ??0CTextEnvironment@@QAE@ABK@Z ; CTextEnvironment::CTextEnvironment
  0005a	50		 push	 eax
  0005b	8d 8e f8 00 00
	00		 lea	 ecx, DWORD PTR [esi+248]
