; Listing generated by Microsoft (R) Optimizing Compiler Version 19.29.30145.0 

	TITLE	D:\git\src\IBK\IBK_DRFN\#DRfn-CS\_Obj\AnalysisTool\MainToolImplementation.obj
	.686P
	.XMM
	include listing.inc
	.model	flat

INCLUDELIB MSVCRT
INCLUDELIB OLDNAMES

PUBLIC	??_H@YGXPAXIIP6EPAX0@Z@Z			; `vector constructor iterator'
PUBLIC	?__empty_global_delete@@YAXPAX@Z		; __empty_global_delete
PUBLIC	?__empty_global_delete@@YAXPAXI@Z		; __empty_global_delete
PUBLIC	??0CPoint@@QAE@XZ				; CPoint::CPoint
PUBLIC	??1ILPCSTR133101@@QAE@XZ			; ILPCSTR133101::~ILPCSTR133101
PUBLIC	??0exception@std@@QAE@ABV01@@Z			; std::exception::exception
PUBLIC	??1exception@std@@UAE@XZ			; std::exception::~exception
PUBLIC	?what@exception@std@@UBEPBDXZ			; std::exception::what
PUBLIC	??_Gexception@std@@UAEPAXI@Z			; std::exception::`scalar deleting destructor'
PUBLIC	??0bad_alloc@std@@QAE@ABV01@@Z			; std::bad_alloc::bad_alloc
PUBLIC	??_Gbad_alloc@std@@UAEPAXI@Z			; std::bad_alloc::`scalar deleting destructor'
PUBLIC	??0bad_array_new_length@std@@QAE@XZ		; std::bad_array_new_length::bad_array_new_length
PUBLIC	??1bad_array_new_length@std@@UAE@XZ		; std::bad_array_new_length::~bad_array_new_length
PUBLIC	??0bad_array_new_length@std@@QAE@ABV01@@Z	; std::bad_array_new_length::bad_array_new_length
PUBLIC	??_Gbad_array_new_length@std@@UAEPAXI@Z		; std::bad_array_new_length::`scalar deleting destructor'
PUBLIC	?_Throw_bad_array_new_length@std@@YAXXZ		; std::_Throw_bad_array_new_length
PUBLIC	??1CCoordinate@@QAE@XZ				; CCoordinate::~CCoordinate
PUBLIC	??1?$CDequePointerList@VCElement@@@@QAE@XZ	; CDequePointerList<CElement>::~CDequePointerList<CElement>
PUBLIC	?_Tidy@?$deque@PAVCElement@@V?$allocator@PAVCElement@@@std@@@std@@AAEXXZ ; std::deque<CElement *,std::allocator<CElement *> >::_Tidy
PUBLIC	??1?$CDequePointerList@VCUndo_Redo_Info@@@@QAE@XZ ; CDequePointerList<CUndo_Redo_Info>::~CDequePointerList<CUndo_Redo_Info>
PUBLIC	?_Tidy@?$deque@PAVCUndo_Redo_Info@@V?$allocator@PAVCUndo_Redo_Info@@@std@@@std@@AAEXXZ ; std::deque<CUndo_Redo_Info *,std::allocator<CUndo_Redo_Info *> >::_Tidy
PUBLIC	??1CSelectedElementDrawingData@@QAE@XZ		; CSelectedElementDrawingData::~CSelectedElementDrawingData
PUBLIC	?_Tidy@?$deque@PAVCCoordinate@@V?$allocator@PAVCCoordinate@@@std@@@std@@AAEXXZ ; std::deque<CCoordinate *,std::allocator<CCoordinate *> >::_Tidy
PUBLIC	??1CElementPointList@@QAE@XZ			; CElementPointList::~CElementPointList
PUBLIC	?DoCallYou@CCanCallYou@CMainToolImplementation@@UAGJHJ@Z ; CMainToolImplementation::CCanCallYou::DoCallYou
PUBLIC	??0CMainToolImplementation@@QAE@PAVCWnd@@PAUHWND__@@W4CHART_MODE@CChartInfo@@@Z ; CMainToolImplementation::CMainToolImplementation
PUBLIC	?GetElementCount@CMainToolImplementation@@QBEHXZ ; CMainToolImplementation::GetElementCount
PUBLIC	?GetSavedElementsData@CMainToolImplementation@@QBE?AV?$CStringT@DV?$StrTraitMFC_DLL@DV?$ChTraitsCRT@D@ATL@@@@@ATL@@XZ ; CMainToolImplementation::GetSavedElementsData
PUBLIC	?GetCurrentToolType@CMainToolImplementation@@QBE?AW4TOOLTYPE@CAnalysis@@XZ ; CMainToolImplementation::GetCurrentToolType
PUBLIC	?GetSelectedToolType@CMainToolImplementation@@QBE?AW4ElementType@CToolEnumData@@XZ ; CMainToolImplementation::GetSelectedToolType
PUBLIC	?GetData_Line@CMainToolImplementation@@QBE_NAAV?$CList@VCPoint@@AAV1@@@AAN@Z ; CMainToolImplementation::GetData_Line
PUBLIC	?OnToolCopy@CMainToolImplementation@@QAE_NXZ	; CMainToolImplementation::OnToolCopy
PUBLIC	?SetParent@CMainToolImplementation@@QAEXPAVCWnd@@@Z ; CMainToolImplementation::SetParent
PUBLIC	?SetMainBlock@CMainToolImplementation@@QAEXPAUIChartManager133101@@PAUIChartOCX133101@@@Z ; CMainToolImplementation::SetMainBlock
PUBLIC	?SetCoordinateType@CMainToolImplementation@@QAEXW4COORDINATETYPE@CAnalysis@@@Z ; CMainToolImplementation::SetCoordinateType
PUBLIC	?SetAutoPriceTool@CMainToolImplementation@@QAEX_N@Z ; CMainToolImplementation::SetAutoPriceTool
PUBLIC	?SetAutoPriceElement@CMainToolImplementation@@QAEX_N@Z ; CMainToolImplementation::SetAutoPriceElement
PUBLIC	?SetBaseColor@CMainToolImplementation@@QAEXABK0@Z ; CMainToolImplementation::SetBaseColor
PUBLIC	?SetBasePenColor@CMainToolImplementation@@QAEXABK@Z ; CMainToolImplementation::SetBasePenColor
PUBLIC	?SetBasePenThickness@CMainToolImplementation@@QAEXH@Z ; CMainToolImplementation::SetBasePenThickness
PUBLIC	?SetLineDrawingInfo@CMainToolImplementation@@QAEXW4TOOLTYPE@CAnalysis@@KHH@Z ; CMainToolImplementation::SetLineDrawingInfo
PUBLIC	?SetLineExtEnvironment@CMainToolImplementation@@QAEXW4TOOLTYPE@CAnalysis@@ABH1@Z ; CMainToolImplementation::SetLineExtEnvironment
PUBLIC	?SetTextPosition@CMainToolImplementation@@QAEXW4TOOLTYPE@CAnalysis@@_N1111@Z ; CMainToolImplementation::SetTextPosition
PUBLIC	?SetEquiDivEnvironment@CMainToolImplementation@@QAEXW4TOOLTYPE@CAnalysis@@ABH@Z ; CMainToolImplementation::SetEquiDivEnvironment
PUBLIC	?SetPriceRangeDivEnvironment@CMainToolImplementation@@QAEXW4TOOLTYPE@CAnalysis@@ABH@Z ; CMainToolImplementation::SetPriceRangeDivEnvironment
PUBLIC	?SetCurrentAnalysisTool@CMainToolImplementation@@QAEXW4TOOLTYPE@CAnalysis@@H@Z ; CMainToolImplementation::SetCurrentAnalysisTool
PUBLIC	?SetFiboCoefficient@CMainToolImplementation@@QAEXW4TOOLTYPE@CAnalysis@@ABV?$CStringT@DV?$StrTraitMFC_DLL@DV?$ChTraitsCRT@D@ATL@@@@@ATL@@@Z ; CMainToolImplementation::SetFiboCoefficient
PUBLIC	?SetBalanceCoefficient@CMainToolImplementation@@QAEXW4TOOLTYPE@CAnalysis@@ABV?$CStringT@DV?$StrTraitMFC_DLL@DV?$ChTraitsCRT@D@ATL@@@@@ATL@@@Z ; CMainToolImplementation::SetBalanceCoefficient
PUBLIC	?OnLButtonDown@CMainToolImplementation@@QAE_NPAVCDC@@ABVCPoint@@@Z ; CMainToolImplementation::OnLButtonDown
PUBLIC	?OnLButtonDbClk@CMainToolImplementation@@QAE_NPAVCDC@@ABVCPoint@@@Z ; CMainToolImplementation::OnLButtonDbClk
PUBLIC	?OnLButtonUp@CMainToolImplementation@@QAE_NPAVCDC@@ABVCPoint@@@Z ; CMainToolImplementation::OnLButtonUp
PUBLIC	?OnMouseMove@CMainToolImplementation@@QAE_NPAVCDC@@ABVCPoint@@HQAUHBITMAP__@@@Z ; CMainToolImplementation::OnMouseMove
PUBLIC	?OnRButtonUp@CMainToolImplementation@@QAE?AW4MENUTYPE@CMenuType@@PAVCDC@@ABVCPoint@@@Z ; CMainToolImplementation::OnRButtonUp
PUBLIC	?OnMenu@CMainToolImplementation@@QAE_NW4ELEMENTMENU@CMenuType@@I@Z ; CMainToolImplementation::OnMenu
PUBLIC	?GetGraphTotalRegion@CMainToolImplementation@@QAE?AVCRect@@VCPoint@@@Z ; CMainToolImplementation::GetGraphTotalRegion
PUBLIC	?GetCurrentPosData@CMainToolImplementation@@QAEHVCPoint@@AAV?$CStringT@DV?$StrTraitMFC_DLL@DV?$ChTraitsCRT@D@ATL@@@@@ATL@@1@Z ; CMainToolImplementation::GetCurrentPosData
PUBLIC	?OnDraw@CMainToolImplementation@@QAEXPAVCDC@@@Z	; CMainToolImplementation::OnDraw
PUBLIC	?DrawTool@CMainToolImplementation@@QAEXPAVCDC@@@Z ; CMainToolImplementation::DrawTool
PUBLIC	?BuildElementsFromString@CMainToolImplementation@@QAEXABV?$CStringT@DV?$StrTraitMFC_DLL@DV?$ChTraitsCRT@D@ATL@@@@@ATL@@@Z ; CMainToolImplementation::BuildElementsFromString
PUBLIC	?InsertElementTree@CMainToolImplementation@@QAE_NABVCBlockIndex@@@Z ; CMainToolImplementation::InsertElementTree
PUBLIC	?MoveElementTree@CMainToolImplementation@@QAE_NABVCBlockIndex@@0@Z ; CMainToolImplementation::MoveElementTree
PUBLIC	?DeleteAllElement@CMainToolImplementation@@QAEXXZ ; CMainToolImplementation::DeleteAllElement
PUBLIC	?DeleteElement@CMainToolImplementation@@QAE_NW4ElementType@CToolEnumData@@@Z ; CMainToolImplementation::DeleteElement
PUBLIC	?DeleteCurrentElement@CMainToolImplementation@@QAE_NXZ ; CMainToolImplementation::DeleteCurrentElement
PUBLIC	?DeleteTail@CMainToolImplementation@@QAEXXZ	; CMainToolImplementation::DeleteTail
PUBLIC	?DeleteElementPos@CMainToolImplementation@@QAEHJ@Z ; CMainToolImplementation::DeleteElementPos
PUBLIC	?DeleteAllElementInBlock@CMainToolImplementation@@QAEXABVCBlockIndex@@@Z ; CMainToolImplementation::DeleteAllElementInBlock
PUBLIC	?ChangeAllElementsColor@CMainToolImplementation@@QAEXABK0@Z ; CMainToolImplementation::ChangeAllElementsColor
PUBLIC	?UndoElement@CMainToolImplementation@@QAEHJ@Z	; CMainToolImplementation::UndoElement
PUBLIC	?RedoElement@CMainToolImplementation@@QAEHJ@Z	; CMainToolImplementation::RedoElement
PUBLIC	?Initialize@CMainToolImplementation@@AAEXXZ	; CMainToolImplementation::Initialize
PUBLIC	?DoesCurrentSelectTool@CMainToolImplementation@@ABE_NXZ ; CMainToolImplementation::DoesCurrentSelectTool
PUBLIC	?DoesCurrentMultiTool@CMainToolImplementation@@ABE_NXZ ; CMainToolImplementation::DoesCurrentMultiTool
PUBLIC	?GetData@CMainToolImplementation@@ABE_NABVCElementPointList@@AAV?$CList@VCPoint@@AAV1@@@AAN@Z ; CMainToolImplementation::GetData
PUBLIC	?GetRButtonMenuType@CMainToolImplementation@@AAE?AW4MENUTYPE@CMenuType@@ABVCPoint@@@Z ; CMainToolImplementation::GetRButtonMenuType
PUBLIC	?SetElementDelete@CMainToolImplementation@@AAEXXZ ; CMainToolImplementation::SetElementDelete
PUBLIC	?DoesAction@CMainToolImplementation@@QBE_NXZ	; CMainToolImplementation::DoesAction
PUBLIC	?RecalcElementXPoint@CMainToolImplementation@@QAE_NPBDH@Z ; CMainToolImplementation::RecalcElementXPoint
PUBLIC	?RecalcElementListXPoint@CMainToolImplementation@@QAEXHHHPAUIPacket133101@@@Z ; CMainToolImplementation::RecalcElementListXPoint
PUBLIC	??1CCurrentElementSet@@QAE@XZ			; CCurrentElementSet::~CCurrentElementSet
PUBLIC	?AddTail@?$CList@VCPoint@@AAV1@@@QAEPAU__POSITION@@AAVCPoint@@@Z ; CList<CPoint,CPoint &>::AddTail
PUBLIC	?RemoveAll@?$CList@VCPoint@@AAV1@@@QAEXXZ	; CList<CPoint,CPoint &>::RemoveAll
PUBLIC	?NewNode@?$CList@VCPoint@@AAV1@@@IAEPAUCNode@1@PAU21@0@Z ; CList<CPoint,CPoint &>::NewNode
PUBLIC	??$_Allocate_manually_vector_aligned@U_Default_allocate_traits@std@@@std@@YAPAXI@Z ; std::_Allocate_manually_vector_aligned<std::_Default_allocate_traits>
PUBLIC	??_C@_00CNPNBAHC@@				; `string'
PUBLIC	??_7exception@std@@6B@				; std::exception::`vftable'
PUBLIC	??_C@_0BC@EOODALEL@Unknown?5exception@		; `string'
PUBLIC	??_7bad_alloc@std@@6B@				; std::bad_alloc::`vftable'
PUBLIC	??_7bad_array_new_length@std@@6B@		; std::bad_array_new_length::`vftable'
PUBLIC	??_C@_0BF@KINCDENJ@bad?5array?5new?5length@	; `string'
PUBLIC	__TI3?AVbad_array_new_length@std@@
PUBLIC	__CTA3?AVbad_array_new_length@std@@
PUBLIC	??_R0?AVbad_array_new_length@std@@@8		; std::bad_array_new_length `RTTI Type Descriptor'
PUBLIC	__CT??_R0?AVbad_array_new_length@std@@@8??0bad_array_new_length@std@@QAE@ABV01@@Z12
PUBLIC	??_R0?AVbad_alloc@std@@@8			; std::bad_alloc `RTTI Type Descriptor'
PUBLIC	__CT??_R0?AVbad_alloc@std@@@8??0bad_alloc@std@@QAE@ABV01@@Z12
PUBLIC	??_R0?AVexception@std@@@8			; std::exception `RTTI Type Descriptor'
PUBLIC	__CT??_R0?AVexception@std@@@8??0exception@std@@QAE@ABV01@@Z12
PUBLIC	??_7CCanCallYou@CMainToolImplementation@@6B@	; CMainToolImplementation::CCanCallYou::`vftable'
PUBLIC	??_C@_06MLGKKOBC@RDATET@			; `string'
PUBLIC	??_C@_07MGCPDNLD@DEFAULT@			; `string'
PUBLIC	??_C@_0P@IMPIBBAB@YYYYMMDDHHMMSS@		; `string'
PUBLIC	??_C@_08DKDJLCMP@YYYYMMDD@			; `string'
PUBLIC	??_C@_06EBMMBHJD@YYYYMM@			; `string'
PUBLIC	??_C@_08KLIIINKM@MMDDHHMM@			; `string'
PUBLIC	??_C@_08JFMBEEDE@DDHHMMSS@			; `string'
PUBLIC	??_R4exception@std@@6B@				; std::exception::`RTTI Complete Object Locator'
PUBLIC	??_R3exception@std@@8				; std::exception::`RTTI Class Hierarchy Descriptor'
PUBLIC	??_R2exception@std@@8				; std::exception::`RTTI Base Class Array'
PUBLIC	??_R1A@?0A@EA@exception@std@@8			; std::exception::`RTTI Base Class Descriptor at (0,-1,0,64)'
PUBLIC	??_R4bad_alloc@std@@6B@				; std::bad_alloc::`RTTI Complete Object Locator'
PUBLIC	??_R3bad_alloc@std@@8				; std::bad_alloc::`RTTI Class Hierarchy Descriptor'
PUBLIC	??_R2bad_alloc@std@@8				; std::bad_alloc::`RTTI Base Class Array'
PUBLIC	??_R1A@?0A@EA@bad_alloc@std@@8			; std::bad_alloc::`RTTI Base Class Descriptor at (0,-1,0,64)'
PUBLIC	??_R4bad_array_new_length@std@@6B@		; std::bad_array_new_length::`RTTI Complete Object Locator'
PUBLIC	??_R3bad_array_new_length@std@@8		; std::bad_array_new_length::`RTTI Class Hierarchy Descriptor'
PUBLIC	??_R2bad_array_new_length@std@@8		; std::bad_array_new_length::`RTTI Base Class Array'
PUBLIC	??_R1A@?0A@EA@bad_array_new_length@std@@8	; std::bad_array_new_length::`RTTI Base Class Descriptor at (0,-1,0,64)'
PUBLIC	??_R0?AUICanCallYou@@@8				; ICanCallYou `RTTI Type Descriptor'
PUBLIC	??_R3ICanCallYou@@8				; ICanCallYou::`RTTI Class Hierarchy Descriptor'
PUBLIC	??_R2ICanCallYou@@8				; ICanCallYou::`RTTI Base Class Array'
PUBLIC	??_R1A@?0A@EA@ICanCallYou@@8			; ICanCallYou::`RTTI Base Class Descriptor at (0,-1,0,64)'
PUBLIC	??_R4CCanCallYou@CMainToolImplementation@@6B@	; CMainToolImplementation::CCanCallYou::`RTTI Complete Object Locator'
PUBLIC	??_R0?AVCCanCallYou@CMainToolImplementation@@@8	; CMainToolImplementation::CCanCallYou `RTTI Type Descriptor'
PUBLIC	??_R3CCanCallYou@CMainToolImplementation@@8	; CMainToolImplementation::CCanCallYou::`RTTI Class Hierarchy Descriptor'
PUBLIC	??_R2CCanCallYou@CMainToolImplementation@@8	; CMainToolImplementation::CCanCallYou::`RTTI Base Class Array'
PUBLIC	??_R1A@?0A@EA@CCanCallYou@CMainToolImplementation@@8 ; CMainToolImplementation::CCanCallYou::`RTTI Base Class Descriptor at (0,-1,0,64)'
PUBLIC	__real@fff0000000000000
EXTRN	??2@YAPAXI@Z:PROC				; operator new
EXTRN	??3@YAXPAXI@Z:PROC				; operator delete
EXTRN	___std_terminate:PROC
EXTRN	__imp___invalid_parameter_noinfo_noreturn:PROC
EXTRN	__imp__CopyRect@8:PROC
EXTRN	__imp__PtInRect@12:PROC
EXTRN	?AfxThrowInvalidArgException@@YGXXZ:PROC	; AfxThrowInvalidArgException
EXTRN	__imp_?Empty@?$CSimpleStringT@D$00@ATL@@QAEXXZ:PROC
EXTRN	__imp_??0?$CStringT@DV?$StrTraitMFC_DLL@DV?$ChTraitsCRT@D@ATL@@@@@ATL@@QAE@XZ:PROC
EXTRN	__imp_??0?$CStringT@DV?$StrTraitMFC_DLL@DV?$ChTraitsCRT@D@ATL@@@@@ATL@@QAE@PBD@Z:PROC
EXTRN	__imp_??1?$CStringT@DV?$StrTraitMFC_DLL@DV?$ChTraitsCRT@D@ATL@@@@@ATL@@QAE@XZ:PROC
EXTRN	__imp_??4?$CStringT@DV?$StrTraitMFC_DLL@DV?$ChTraitsCRT@D@ATL@@@@@ATL@@QAEAAV01@ABV01@@Z:PROC
EXTRN	__imp_??4?$CStringT@DV?$StrTraitMFC_DLL@DV?$ChTraitsCRT@D@ATL@@@@@ATL@@QAEAAV01@PBD@Z:PROC
EXTRN	__imp_?Compare@?$CStringT@DV?$StrTraitMFC_DLL@DV?$ChTraitsCRT@D@ATL@@@@@ATL@@QBEHPBD@Z:PROC
EXTRN	?Create@CPlex@@SGPAU1@AAPAU1@II@Z:PROC		; CPlex::Create
EXTRN	?FreeDataChain@CPlex@@QAEXXZ:PROC		; CPlex::FreeDataChain
EXTRN	?IsLog@CVertScaleType@@QBE_NXZ:PROC		; CVertScaleType::IsLog
EXTRN	?IsInvert@CVertScaleType@@QBE_NXZ:PROC		; CVertScaleType::IsInvert
EXTRN	?GetMin@CDisplayDataVertMinMax@@QBENXZ:PROC	; CDisplayDataVertMinMax::GetMin
EXTRN	?GetMax@CDisplayDataVertMinMax@@QBENXZ:PROC	; CDisplayDataVertMinMax::GetMax
EXTRN	?GetVertScaleType@CDisplayDataVertMinMax@@QAEAAVCVertScaleType@@XZ:PROC ; CDisplayDataVertMinMax::GetVertScaleType
EXTRN	??1CCoordinateCalculatorData@@QAE@XZ:PROC	; CCoordinateCalculatorData::~CCoordinateCalculatorData
EXTRN	?GetRegion@CCoordinateCalculatorData@@QBE?AVCRect@@XZ:PROC ; CCoordinateCalculatorData::GetRegion
EXTRN	?GetDisplayDataEnd@CCoordinateCalculatorData@@QBEHXZ:PROC ; CCoordinateCalculatorData::GetDisplayDataEnd
EXTRN	?GetDisplayDataMin_ScaleType@CCoordinateCalculatorData@@QBENXZ:PROC ; CCoordinateCalculatorData::GetDisplayDataMin_ScaleType
EXTRN	?GetDisplayDataMax_ScaleType@CCoordinateCalculatorData@@QBENXZ:PROC ; CCoordinateCalculatorData::GetDisplayDataMax_ScaleType
EXTRN	?GetDisplayDataVertMinMax@CCoordinateCalculatorData@@QAEAAVCDisplayDataVertMinMax@@XZ:PROC ; CCoordinateCalculatorData::GetDisplayDataVertMinMax
EXTRN	?GetVertDataType@CCoordinateCalculatorData@@QBENXZ:PROC ; CCoordinateCalculatorData::GetVertDataType
EXTRN	?GetPacket_X@CCoordinateCalculatorData@@QBEPAUIPacket133101@@XZ:PROC ; CCoordinateCalculatorData::GetPacket_X
EXTRN	?GetPacket_Y@CCoordinateCalculatorData@@QBEPAUIPacket133101@@XZ:PROC ; CCoordinateCalculatorData::GetPacket_Y
EXTRN	___std_exception_copy:PROC
EXTRN	___std_exception_destroy:PROC
EXTRN	??_Eexception@std@@UAEPAXI@Z:PROC		; std::exception::`vector deleting destructor'
EXTRN	??_Ebad_alloc@std@@UAEPAXI@Z:PROC		; std::bad_alloc::`vector deleting destructor'
EXTRN	??_Ebad_array_new_length@std@@UAEPAXI@Z:PROC	; std::bad_array_new_length::`vector deleting destructor'
EXTRN	??4CCoordinate@@QAEAAV0@ABV0@@Z:PROC		; CCoordinate::operator=
EXTRN	??0CCoordinate@@QAE@XZ:PROC			; CCoordinate::CCoordinate
EXTRN	??0CCoordinate@@QAE@ABN0HABV?$CStringT@DV?$StrTraitMFC_DLL@DV?$ChTraitsCRT@D@ATL@@@@@ATL@@H@Z:PROC ; CCoordinate::CCoordinate
EXTRN	??0CCoordinate@@QAE@ABVCPoint@@@Z:PROC		; CCoordinate::CCoordinate
EXTRN	?GetX@CCoordinate@@QBENXZ:PROC			; CCoordinate::GetX
EXTRN	?GetY@CCoordinate@@QBENXZ:PROC			; CCoordinate::GetY
EXTRN	?GetIndex@CCoordinate@@QBEHXZ:PROC		; CCoordinate::GetIndex
EXTRN	?GetTimeDiff@CCoordinate@@QBEHXZ:PROC		; CCoordinate::GetTimeDiff
EXTRN	?SetX@CCoordinate@@QAEXABNH@Z:PROC		; CCoordinate::SetX
EXTRN	?SetTimeDiff@CCoordinate@@QAEXH@Z:PROC		; CCoordinate::SetTimeDiff
EXTRN	?SetAutoPrice@CElementTree@@QAEX_N@Z:PROC	; CElementTree::SetAutoPrice
EXTRN	?ChangeAllElementsColor@CElementTree@@QAEXABK0@Z:PROC ; CElementTree::ChangeAllElementsColor
EXTRN	?ChangeAllElementsThick@CElementTree@@QAEXHH@Z:PROC ; CElementTree::ChangeAllElementsThick
EXTRN	?GetElementCount@CElementTree@@QBEHXZ:PROC	; CElementTree::GetElementCount
EXTRN	?GetElementListOfBlock@CElementTree@@QAEXABVCBlockIndex@@AAV?$CDequePointerList@VCElement@@@@@Z:PROC ; CElementTree::GetElementListOfBlock
EXTRN	?GetSavedElementsData@CElementTree@@QBE?AV?$CStringT@DV?$StrTraitMFC_DLL@DV?$ChTraitsCRT@D@ATL@@@@@ATL@@XZ:PROC ; CElementTree::GetSavedElementsData
EXTRN	?BuildElementsFromString@CElementTree@@QAEXAAVCAnalysisData@@ABV?$CStringT@DV?$StrTraitMFC_DLL@DV?$ChTraitsCRT@D@ATL@@@@@ATL@@@Z:PROC ; CElementTree::BuildElementsFromString
EXTRN	?Add@CElementTree@@QAEXABVCBlockIndex@@PAVCElement@@@Z:PROC ; CElementTree::Add
EXTRN	?DeleteAll@CElementTree@@QAEXXZ:PROC		; CElementTree::DeleteAll
EXTRN	?DeleteRowSet@CElementTree@@QAEXABVCBlockIndex@@@Z:PROC ; CElementTree::DeleteRowSet
EXTRN	?DeleteTail@CElementTree@@QAEXXZ:PROC		; CElementTree::DeleteTail
EXTRN	?DeleteElement@CElementTree@@QAE_NW4ElementType@CToolEnumData@@@Z:PROC ; CElementTree::DeleteElement
EXTRN	?DeleteElement@CElementTree@@QAEXPAVCElement@@@Z:PROC ; CElementTree::DeleteElement
EXTRN	?DeleteElementPos@CElementTree@@QAE_NJH@Z:PROC	; CElementTree::DeleteElementPos
EXTRN	?MoveElementTree@CElementTree@@QAE_NABVCBlockIndex@@0@Z:PROC ; CElementTree::MoveElementTree
EXTRN	?GetTail@CElementTree@@QAEPAVCElement@@XZ:PROC	; CElementTree::GetTail
EXTRN	?GetOrder@CElementTree@@QAEAAVCOrder@@XZ:PROC	; CElementTree::GetOrder
EXTRN	?GetSavedElementData@CElement@@QBE?AV?$CStringT@DV?$StrTraitMFC_DLL@DV?$ChTraitsCRT@D@ATL@@@@@ATL@@ABVCOrder@@@Z:PROC ; CElement::GetSavedElementData
EXTRN	?GetSelectedDrawPoint@CElement@@QBE?AVCPoint@@ABVCSelectedElementDrawingData@@ABVCCoordinate@@@Z:PROC ; CElement::GetSelectedDrawPoint
EXTRN	?RegisterElementToUnRedoManager@CUndoRedoManager@@QAEXHJPBD0@Z:PROC ; CUndoRedoManager::RegisterElementToUnRedoManager
EXTRN	?UnRegisterElementToUnRedoManager@CUndoRedoManager@@QAEXJ@Z:PROC ; CUndoRedoManager::UnRegisterElementToUnRedoManager
EXTRN	?UndoElement@CUndoRedoManager@@QAEHJ@Z:PROC	; CUndoRedoManager::UndoElement
EXTRN	?RedoElement@CUndoRedoManager@@QAEHJ@Z:PROC	; CUndoRedoManager::RedoElement
EXTRN	?GetUndoRedoInfoListOfBlock@CUndoRedoManager@@QAEXABVCBlockIndex@@AAV?$CDequePointerList@VCUndo_Redo_Info@@@@@Z:PROC ; CUndoRedoManager::GetUndoRedoInfoListOfBlock
EXTRN	?DeleteAll@CUndoRedoManager@@QAEXXZ:PROC	; CUndoRedoManager::DeleteAll
EXTRN	??0CAnalysisData@@QAE@PAUHWND__@@W4CHART_MODE@CChartInfo@@@Z:PROC ; CAnalysisData::CAnalysisData
EXTRN	??1CAnalysisData@@QAE@XZ:PROC			; CAnalysisData::~CAnalysisData
EXTRN	?SetParent@CAnalysisData@@QAEXPAVCWnd@@@Z:PROC	; CAnalysisData::SetParent
EXTRN	?SetMainBlock@CAnalysisData@@QAEXPAUIChartManager133101@@PAUIChartOCX133101@@@Z:PROC ; CAnalysisData::SetMainBlock
EXTRN	?SetCurrentToolType@CAnalysisData@@QAEXW4TOOLTYPE@CAnalysis@@@Z:PROC ; CAnalysisData::SetCurrentToolType
EXTRN	?GetParent@CAnalysisData@@QBEPAVCWnd@@XZ:PROC	; CAnalysisData::GetParent
EXTRN	?GetMainBlock@CAnalysisData@@QBEPAUIChartManager133101@@XZ:PROC ; CAnalysisData::GetMainBlock
EXTRN	?GetPacketManager@CAnalysisData@@QBEPAUIPacketManager133101@@XZ:PROC ; CAnalysisData::GetPacketManager
EXTRN	?GetCurrentToolType@CAnalysisData@@QBE?AW4TOOLTYPE@CAnalysis@@XZ:PROC ; CAnalysisData::GetCurrentToolType
EXTRN	?GetElementTree@CAnalysisData@@QBEABVCElementTree@@XZ:PROC ; CAnalysisData::GetElementTree
EXTRN	?GetElementTree@CAnalysisData@@QAEAAVCElementTree@@XZ:PROC ; CAnalysisData::GetElementTree
EXTRN	?GetUserPath@CAnalysisData@@QBE?AV?$CStringT@DV?$StrTraitMFC_DLL@DV?$ChTraitsCRT@D@ATL@@@@@ATL@@XZ:PROC ; CAnalysisData::GetUserPath
EXTRN	?RegisterElementToOrderManager@CAnalysisData@@QAEXJ@Z:PROC ; CAnalysisData::RegisterElementToOrderManager
EXTRN	?UnRegisterElementToOrderManager@CAnalysisData@@QAEXJ@Z:PROC ; CAnalysisData::UnRegisterElementToOrderManager
EXTRN	?GetCoordinateCalculatorData@CAnalysisData@@QBE?AVCCoordinateCalculatorData@@ABVCPoint@@@Z:PROC ; CAnalysisData::GetCoordinateCalculatorData
EXTRN	?GetBlockIndexInPoint@CAnalysisData@@QBE?AVCBlockIndex@@ABVCPoint@@@Z:PROC ; CAnalysisData::GetBlockIndexInPoint
EXTRN	?PointInGraphRegion@CAnalysisData@@QBE_NABVCPoint@@@Z:PROC ; CAnalysisData::PointInGraphRegion
EXTRN	?SendMessageToParent@CAnalysisData@@QAEXW4CHARTOBJECT@CCursorShape@@@Z:PROC ; CAnalysisData::SendMessageToParent
EXTRN	?InvalidateAndSendMessageToParent@CAnalysisData@@QAEXW4CHARTOBJECT@CCursorShape@@@Z:PROC ; CAnalysisData::InvalidateAndSendMessageToParent
EXTRN	?Invalidate@CAnalysisData@@QAEXXZ:PROC		; CAnalysisData::Invalidate
EXTRN	?DrawElement@CAnalysisData@@QAEXPAVCDC@@PAVCElement@@@Z:PROC ; CAnalysisData::DrawElement
EXTRN	?CopyElement@CAnalysisData@@QAEPAVCElement@@PAV2@@Z:PROC ; CAnalysisData::CopyElement
EXTRN	?InsertElementTree@CAnalysisData@@QAE_NABVCBlockIndex@@@Z:PROC ; CAnalysisData::InsertElementTree
EXTRN	?GetUndoRedoManager@CAnalysisData@@QAEAAVCUndoRedoManager@@XZ:PROC ; CAnalysisData::GetUndoRedoManager
EXTRN	?GetDatePacket@CAnalysisData@@QBEPAUIPacket133101@@PBD@Z:PROC ; CAnalysisData::GetDatePacket
EXTRN	??0CElementModifyData@@QAE@XZ:PROC		; CElementModifyData::CElementModifyData
EXTRN	??1CElementModifyData@@QAE@XZ:PROC		; CElementModifyData::~CElementModifyData
EXTRN	??4CElementModifyData@@QAEAAV0@ABV0@@Z:PROC	; CElementModifyData::operator=
EXTRN	?GetPoint@CElementModifyData@@QBE?AVCCoordinate@@XZ:PROC ; CElementModifyData::GetPoint
EXTRN	?GetBlockIndex@CElementModifyData@@QAEAAVCBlockIndex@@XZ:PROC ; CElementModifyData::GetBlockIndex
EXTRN	??0CElementPointList@@QAE@XZ:PROC		; CElementPointList::CElementPointList
EXTRN	?GetVertDataType@CElementPointList@@QBENXZ:PROC	; CElementPointList::GetVertDataType
EXTRN	?GetCount@CElementPointList@@QBEHXZ:PROC	; CElementPointList::GetCount
EXTRN	?GetAt@CElementPointList@@QAEPAVCCoordinate@@H@Z:PROC ; CElementPointList::GetAt
EXTRN	?GetAt@CElementPointList@@QBEPAVCCoordinate@@H@Z:PROC ; CElementPointList::GetAt
EXTRN	??0CToolSingleton@@QAE@PAVCAnalysisData@@@Z:PROC ; CToolSingleton::CToolSingleton
EXTRN	??1CToolSingleton@@QAE@XZ:PROC			; CToolSingleton::~CToolSingleton
EXTRN	?FindTool@CToolSingleton@@QAEPAVCTool@@W4TOOLTYPE@CAnalysis@@@Z:PROC ; CToolSingleton::FindTool
EXTRN	?InitializeAllTool@CToolSingleton@@QAEXXZ:PROC	; CToolSingleton::InitializeAllTool
EXTRN	?SetCoordinateType@CToolSingleton@@QAEXW4COORDINATETYPE@CAnalysis@@@Z:PROC ; CToolSingleton::SetCoordinateType
EXTRN	?SetAutoPrice@CToolSingleton@@QAEX_N@Z:PROC	; CToolSingleton::SetAutoPrice
EXTRN	?SetBaseColor@CToolSingleton@@QAEXABK0@Z:PROC	; CToolSingleton::SetBaseColor
EXTRN	?SetBasePenColor@CToolSingleton@@QAEXABK@Z:PROC	; CToolSingleton::SetBasePenColor
EXTRN	?SetBasePenThickness@CToolSingleton@@QAEXH@Z:PROC ; CToolSingleton::SetBasePenThickness
EXTRN	?SetLineExtEnvironment@CToolSingleton@@QAEXW4TOOLTYPE@CAnalysis@@ABH1@Z:PROC ; CToolSingleton::SetLineExtEnvironment
EXTRN	?SetEquiDivEnvironment@CToolSingleton@@QAEXW4TOOLTYPE@CAnalysis@@ABH@Z:PROC ; CToolSingleton::SetEquiDivEnvironment
EXTRN	?SetPriceRangeDivEnvironment@CToolSingleton@@QAEXW4TOOLTYPE@CAnalysis@@ABH@Z:PROC ; CToolSingleton::SetPriceRangeDivEnvironment
EXTRN	?SetLineDrawingInfo@CToolSingleton@@QAEXW4TOOLTYPE@CAnalysis@@KHH@Z:PROC ; CToolSingleton::SetLineDrawingInfo
EXTRN	?SetTextPosition@CToolSingleton@@QAEXW4TOOLTYPE@CAnalysis@@_N1111@Z:PROC ; CToolSingleton::SetTextPosition
EXTRN	?SetFiboCoefficient@CToolSingleton@@QAEXW4TOOLTYPE@CAnalysis@@ABV?$CStringT@DV?$StrTraitMFC_DLL@DV?$ChTraitsCRT@D@ATL@@@@@ATL@@@Z:PROC ; CToolSingleton::SetFiboCoefficient
EXTRN	?SetBalanceCoefficient@CToolSingleton@@QAEXW4TOOLTYPE@CAnalysis@@ABV?$CStringT@DV?$StrTraitMFC_DLL@DV?$ChTraitsCRT@D@ATL@@@@@ATL@@@Z:PROC ; CToolSingleton::SetBalanceCoefficient
EXTRN	?DoubleToString@CDataConversion@@SA?AV?$CStringT@DV?$StrTraitMFC_DLL@DV?$ChTraitsCRT@D@ATL@@@@@ATL@@ABN@Z:PROC ; CDataConversion::DoubleToString
EXTRN	?GetStringThousandFormat@CDataConversion@@SA?AV?$CStringT@DV?$StrTraitMFC_DLL@DV?$ChTraitsCRT@D@ATL@@@@@ATL@@ABN0@Z:PROC ; CDataConversion::GetStringThousandFormat
EXTRN	?GetStringThousandFormat@CDataConversion@@SA?AV?$CStringT@DV?$StrTraitMFC_DLL@DV?$ChTraitsCRT@D@ATL@@@@@ATL@@ABNABV23@@Z:PROC ; CDataConversion::GetStringThousandFormat
EXTRN	?GetStringFormatTrans@CDataConversion@@QAE?AV?$CStringT@DV?$StrTraitMFC_DLL@DV?$ChTraitsCRT@D@ATL@@@@@ATL@@ABV23@000@Z:PROC ; CDataConversion::GetStringFormatTrans
EXTRN	?CalcTimeDiff@CDataConversion@@SANNHHV?$CStringT@DV?$StrTraitMFC_DLL@DV?$ChTraitsCRT@D@ATL@@@@@ATL@@@Z:PROC ; CDataConversion::CalcTimeDiff
EXTRN	?SetPenColor@CTool@@QAEXABK@Z:PROC		; CTool::SetPenColor
EXTRN	?SetTextColor@CTool@@QAEXABK@Z:PROC		; CTool::SetTextColor
EXTRN	?DoesProcessStarting@CTool@@QBE_NXZ:PROC	; CTool::DoesProcessStarting
EXTRN	?GetCoordinateCalculatorData@CTool@@QBE?AVCCoordinateCalculatorData@@ABVCPoint@@@Z:PROC ; CTool::GetCoordinateCalculatorData
EXTRN	??0CCurrentElementSet@@QAE@PAUIChartOCX133101@@ABVCBlockIndex@@ABV?$CStringT@DV?$StrTraitMFC_DLL@DV?$ChTraitsCRT@D@ATL@@@@@ATL@@2ABW4HORZSCALEDRAWERTYPE@CScaleBaseData@@PAVCWnd@@PAVCElement@@J@Z:PROC ; CCurrentElementSet::CCurrentElementSet
EXTRN	?OnMenu@CCurrentElementSet@@QAE_NW4ELEMENTMENU@CMenuType@@I@Z:PROC ; CCurrentElementSet::OnMenu
EXTRN	?GetDrawingPoint@CSelectingTool@@QBE?AVCPoint@@ABV2@@Z:PROC ; CSelectingTool::GetDrawingPoint
EXTRN	?GetElementModifyData@CSelectingTool@@QBE?AVCElementModifyData@@ABVCPoint@@@Z:PROC ; CSelectingTool::GetElementModifyData
EXTRN	?GetSelectedElementDrawData@CSelectingTool@@QAE?AVCSelectedElementDrawingData@@XZ:PROC ; CSelectingTool::GetSelectedElementDrawData
EXTRN	?SetBtDownPoint@CSelectingTool@@QAEXABVCPoint@@@Z:PROC ; CSelectingTool::SetBtDownPoint
EXTRN	@__security_check_cookie@4:PROC
EXTRN	__CxxThrowException@8:PROC
EXTRN	___CxxFrameHandler3:PROC
EXTRN	??_7type_info@@6B@:QWORD			; type_info::`vftable'
EXTRN	___security_cookie:DWORD
EXTRN	__fltused:DWORD
;	COMDAT __real@fff0000000000000
CONST	SEGMENT
__real@fff0000000000000 DQ 0fff0000000000000r	; -inf
CONST	ENDS
;	COMDAT ??_R1A@?0A@EA@CCanCallYou@CMainToolImplementation@@8
rdata$r	SEGMENT
??_R1A@?0A@EA@CCanCallYou@CMainToolImplementation@@8 DD FLAT:??_R0?AVCCanCallYou@CMainToolImplementation@@@8 ; CMainToolImplementation::CCanCallYou::`RTTI Base Class Descriptor at (0,-1,0,64)'
	DD	01H
	DD	00H
	DD	0ffffffffH
	DD	00H
	DD	040H
	DD	FLAT:??_R3CCanCallYou@CMainToolImplementation@@8
rdata$r	ENDS
;	COMDAT ??_R2CCanCallYou@CMainToolImplementation@@8
rdata$r	SEGMENT
??_R2CCanCallYou@CMainToolImplementation@@8 DD FLAT:??_R1A@?0A@EA@CCanCallYou@CMainToolImplementation@@8 ; CMainToolImplementation::CCanCallYou::`RTTI Base Class Array'
	DD	FLAT:??_R1A@?0A@EA@ICanCallYou@@8
rdata$r	ENDS
;	COMDAT ??_R3CCanCallYou@CMainToolImplementation@@8
rdata$r	SEGMENT
??_R3CCanCallYou@CMainToolImplementation@@8 DD 00H	; CMainToolImplementation::CCanCallYou::`RTTI Class Hierarchy Descriptor'
	DD	00H
	DD	02H
	DD	FLAT:??_R2CCanCallYou@CMainToolImplementation@@8
rdata$r	ENDS
;	COMDAT ??_R0?AVCCanCallYou@CMainToolImplementation@@@8
data$rs	SEGMENT
??_R0?AVCCanCallYou@CMainToolImplementation@@@8 DD FLAT:??_7type_info@@6B@ ; CMainToolImplementation::CCanCallYou `RTTI Type Descriptor'
	DD	00H
	DB	'.?AVCCanCallYou@CMainToolImplementation@@', 00H
data$rs	ENDS
;	COMDAT ??_R4CCanCallYou@CMainToolImplementation@@6B@
rdata$r	SEGMENT
??_R4CCanCallYou@CMainToolImplementation@@6B@ DD 00H	; CMainToolImplementation::CCanCallYou::`RTTI Complete Object Locator'
	DD	00H
	DD	00H
	DD	FLAT:??_R0?AVCCanCallYou@CMainToolImplementation@@@8
	DD	FLAT:??_R3CCanCallYou@CMainToolImplementation@@8
rdata$r	ENDS
;	COMDAT ??_R1A@?0A@EA@ICanCallYou@@8
rdata$r	SEGMENT
??_R1A@?0A@EA@ICanCallYou@@8 DD FLAT:??_R0?AUICanCallYou@@@8 ; ICanCallYou::`RTTI Base Class Descriptor at (0,-1,0,64)'
	DD	00H
	DD	00H
	DD	0ffffffffH
	DD	00H
	DD	040H
	DD	FLAT:??_R3ICanCallYou@@8
rdata$r	ENDS
;	COMDAT ??_R2ICanCallYou@@8
rdata$r	SEGMENT
??_R2ICanCallYou@@8 DD FLAT:??_R1A@?0A@EA@ICanCallYou@@8 ; ICanCallYou::`RTTI Base Class Array'
rdata$r	ENDS
;	COMDAT ??_R3ICanCallYou@@8
rdata$r	SEGMENT
??_R3ICanCallYou@@8 DD 00H				; ICanCallYou::`RTTI Class Hierarchy Descriptor'
	DD	00H
	DD	01H
	DD	FLAT:??_R2ICanCallYou@@8
rdata$r	ENDS
;	COMDAT ??_R0?AUICanCallYou@@@8
data$rs	SEGMENT
??_R0?AUICanCallYou@@@8 DD FLAT:??_7type_info@@6B@	; ICanCallYou `RTTI Type Descriptor'
	DD	00H
	DB	'.?AUICanCallYou@@', 00H
data$rs	ENDS
;	COMDAT ??_R1A@?0A@EA@bad_array_new_length@std@@8
rdata$r	SEGMENT
??_R1A@?0A@EA@bad_array_new_length@std@@8 DD FLAT:??_R0?AVbad_array_new_length@std@@@8 ; std::bad_array_new_length::`RTTI Base Class Descriptor at (0,-1,0,64)'
	DD	02H
	DD	00H
	DD	0ffffffffH
	DD	00H
	DD	040H
	DD	FLAT:??_R3bad_array_new_length@std@@8
rdata$r	ENDS
;	COMDAT ??_R2bad_array_new_length@std@@8
rdata$r	SEGMENT
??_R2bad_array_new_length@std@@8 DD FLAT:??_R1A@?0A@EA@bad_array_new_length@std@@8 ; std::bad_array_new_length::`RTTI Base Class Array'
	DD	FLAT:??_R1A@?0A@EA@bad_alloc@std@@8
	DD	FLAT:??_R1A@?0A@EA@exception@std@@8
rdata$r	ENDS
;	COMDAT ??_R3bad_array_new_length@std@@8
rdata$r	SEGMENT
??_R3bad_array_new_length@std@@8 DD 00H			; std::bad_array_new_length::`RTTI Class Hierarchy Descriptor'
	DD	00H
	DD	03H
	DD	FLAT:??_R2bad_array_new_length@std@@8
rdata$r	ENDS
;	COMDAT ??_R4bad_array_new_length@std@@6B@
rdata$r	SEGMENT
??_R4bad_array_new_length@std@@6B@ DD 00H		; std::bad_array_new_length::`RTTI Complete Object Locator'
	DD	00H
	DD	00H
	DD	FLAT:??_R0?AVbad_array_new_length@std@@@8
	DD	FLAT:??_R3bad_array_new_length@std@@8
rdata$r	ENDS
;	COMDAT ??_R1A@?0A@EA@bad_alloc@std@@8
rdata$r	SEGMENT
??_R1A@?0A@EA@bad_alloc@std@@8 DD FLAT:??_R0?AVbad_alloc@std@@@8 ; std::bad_alloc::`RTTI Base Class Descriptor at (0,-1,0,64)'
	DD	01H
	DD	00H
	DD	0ffffffffH
	DD	00H
	DD	040H
	DD	FLAT:??_R3bad_alloc@std@@8
rdata$r	ENDS
;	COMDAT ??_R2bad_alloc@std@@8
rdata$r	SEGMENT
??_R2bad_alloc@std@@8 DD FLAT:??_R1A@?0A@EA@bad_alloc@std@@8 ; std::bad_alloc::`RTTI Base Class Array'
	DD	FLAT:??_R1A@?0A@EA@exception@std@@8
rdata$r	ENDS
;	COMDAT ??_R3bad_alloc@std@@8
rdata$r	SEGMENT
??_R3bad_alloc@std@@8 DD 00H				; std::bad_alloc::`RTTI Class Hierarchy Descriptor'
	DD	00H
	DD	02H
	DD	FLAT:??_R2bad_alloc@std@@8
rdata$r	ENDS
;	COMDAT ??_R4bad_alloc@std@@6B@
rdata$r	SEGMENT
??_R4bad_alloc@std@@6B@ DD 00H				; std::bad_alloc::`RTTI Complete Object Locator'
	DD	00H
	DD	00H
	DD	FLAT:??_R0?AVbad_alloc@std@@@8
	DD	FLAT:??_R3bad_alloc@std@@8
rdata$r	ENDS
;	COMDAT ??_R1A@?0A@EA@exception@std@@8
rdata$r	SEGMENT
??_R1A@?0A@EA@exception@std@@8 DD FLAT:??_R0?AVexception@std@@@8 ; std::exception::`RTTI Base Class Descriptor at (0,-1,0,64)'
	DD	00H
	DD	00H
	DD	0ffffffffH
	DD	00H
	DD	040H
	DD	FLAT:??_R3exception@std@@8
rdata$r	ENDS
;	COMDAT ??_R2exception@std@@8
rdata$r	SEGMENT
??_R2exception@std@@8 DD FLAT:??_R1A@?0A@EA@exception@std@@8 ; std::exception::`RTTI Base Class Array'
rdata$r	ENDS
;	COMDAT ??_R3exception@std@@8
rdata$r	SEGMENT
??_R3exception@std@@8 DD 00H				; std::exception::`RTTI Class Hierarchy Descriptor'
	DD	00H
	DD	01H
	DD	FLAT:??_R2exception@std@@8
rdata$r	ENDS
;	COMDAT ??_R4exception@std@@6B@
rdata$r	SEGMENT
??_R4exception@std@@6B@ DD 00H				; std::exception::`RTTI Complete Object Locator'
	DD	00H
	DD	00H
	DD	FLAT:??_R0?AVexception@std@@@8
	DD	FLAT:??_R3exception@std@@8
rdata$r	ENDS
;	COMDAT ??_C@_08JFMBEEDE@DDHHMMSS@
CONST	SEGMENT
??_C@_08JFMBEEDE@DDHHMMSS@ DB 'DDHHMMSS', 00H		; `string'
CONST	ENDS
;	COMDAT ??_C@_08KLIIINKM@MMDDHHMM@
CONST	SEGMENT
??_C@_08KLIIINKM@MMDDHHMM@ DB 'MMDDHHMM', 00H		; `string'
CONST	ENDS
;	COMDAT ??_C@_06EBMMBHJD@YYYYMM@
CONST	SEGMENT
??_C@_06EBMMBHJD@YYYYMM@ DB 'YYYYMM', 00H		; `string'
CONST	ENDS
;	COMDAT ??_C@_08DKDJLCMP@YYYYMMDD@
CONST	SEGMENT
??_C@_08DKDJLCMP@YYYYMMDD@ DB 'YYYYMMDD', 00H		; `string'
CONST	ENDS
;	COMDAT ??_C@_0P@IMPIBBAB@YYYYMMDDHHMMSS@
CONST	SEGMENT
??_C@_0P@IMPIBBAB@YYYYMMDDHHMMSS@ DB 'YYYYMMDDHHMMSS', 00H ; `string'
CONST	ENDS
;	COMDAT ??_C@_07MGCPDNLD@DEFAULT@
CONST	SEGMENT
??_C@_07MGCPDNLD@DEFAULT@ DB 'DEFAULT', 00H		; `string'
CONST	ENDS
;	COMDAT ??_C@_06MLGKKOBC@RDATET@
CONST	SEGMENT
??_C@_06MLGKKOBC@RDATET@ DB 'RDATET', 00H		; `string'
CONST	ENDS
;	COMDAT ??_7CCanCallYou@CMainToolImplementation@@6B@
CONST	SEGMENT
??_7CCanCallYou@CMainToolImplementation@@6B@ DD FLAT:??_R4CCanCallYou@CMainToolImplementation@@6B@ ; CMainToolImplementation::CCanCallYou::`vftable'
	DD	FLAT:?DoCallYou@CCanCallYou@CMainToolImplementation@@UAGJHJ@Z
CONST	ENDS
;	COMDAT __CT??_R0?AVexception@std@@@8??0exception@std@@QAE@ABV01@@Z12
xdata$x	SEGMENT
__CT??_R0?AVexception@std@@@8??0exception@std@@QAE@ABV01@@Z12 DD 00H
	DD	FLAT:??_R0?AVexception@std@@@8
	DD	00H
	DD	0ffffffffH
	ORG $+4
	DD	0cH
	DD	FLAT:??0exception@std@@QAE@ABV01@@Z
xdata$x	ENDS
;	COMDAT ??_R0?AVexception@std@@@8
data$r	SEGMENT
??_R0?AVexception@std@@@8 DD FLAT:??_7type_info@@6B@	; std::exception `RTTI Type Descriptor'
	DD	00H
	DB	'.?AVexception@std@@', 00H
data$r	ENDS
;	COMDAT __CT??_R0?AVbad_alloc@std@@@8??0bad_alloc@std@@QAE@ABV01@@Z12
xdata$x	SEGMENT
__CT??_R0?AVbad_alloc@std@@@8??0bad_alloc@std@@QAE@ABV01@@Z12 DD 010H
	DD	FLAT:??_R0?AVbad_alloc@std@@@8
	DD	00H
	DD	0ffffffffH
	ORG $+4
	DD	0cH
	DD	FLAT:??0bad_alloc@std@@QAE@ABV01@@Z
xdata$x	ENDS
;	COMDAT ??_R0?AVbad_alloc@std@@@8
data$r	SEGMENT
??_R0?AVbad_alloc@std@@@8 DD FLAT:??_7type_info@@6B@	; std::bad_alloc `RTTI Type Descriptor'
	DD	00H
	DB	'.?AVbad_alloc@std@@', 00H
data$r	ENDS
;	COMDAT __CT??_R0?AVbad_array_new_length@std@@@8??0bad_array_new_length@std@@QAE@ABV01@@Z12
xdata$x	SEGMENT
__CT??_R0?AVbad_array_new_length@std@@@8??0bad_array_new_length@std@@QAE@ABV01@@Z12 DD 00H
	DD	FLAT:??_R0?AVbad_array_new_length@std@@@8
	DD	00H
	DD	0ffffffffH
	ORG $+4
	DD	0cH
	DD	FLAT:??0bad_array_new_length@std@@QAE@ABV01@@Z
xdata$x	ENDS
;	COMDAT ??_R0?AVbad_array_new_length@std@@@8
data$r	SEGMENT
??_R0?AVbad_array_new_length@std@@@8 DD FLAT:??_7type_info@@6B@ ; std::bad_array_new_length `RTTI Type Descriptor'
	DD	00H
	DB	'.?AVbad_array_new_length@std@@', 00H
data$r	ENDS
;	COMDAT __CTA3?AVbad_array_new_length@std@@
xdata$x	SEGMENT
__CTA3?AVbad_array_new_length@std@@ DD 03H
	DD	FLAT:__CT??_R0?AVbad_array_new_length@std@@@8??0bad_array_new_length@std@@QAE@ABV01@@Z12
	DD	FLAT:__CT??_R0?AVbad_alloc@std@@@8??0bad_alloc@std@@QAE@ABV01@@Z12
	DD	FLAT:__CT??_R0?AVexception@std@@@8??0exception@std@@QAE@ABV01@@Z12
xdata$x	ENDS
;	COMDAT __TI3?AVbad_array_new_length@std@@
xdata$x	SEGMENT
__TI3?AVbad_array_new_length@std@@ DD 00H
	DD	FLAT:??1bad_array_new_length@std@@UAE@XZ
	DD	00H
	DD	FLAT:__CTA3?AVbad_array_new_length@std@@
xdata$x	ENDS
;	COMDAT ??_C@_0BF@KINCDENJ@bad?5array?5new?5length@
CONST	SEGMENT
??_C@_0BF@KINCDENJ@bad?5array?5new?5length@ DB 'bad array new length', 00H ; `string'
CONST	ENDS
;	COMDAT ??_7bad_array_new_length@std@@6B@
CONST	SEGMENT
??_7bad_array_new_length@std@@6B@ DD FLAT:??_R4bad_array_new_length@std@@6B@ ; std::bad_array_new_length::`vftable'
	DD	FLAT:??_Ebad_array_new_length@std@@UAEPAXI@Z
	DD	FLAT:?what@exception@std@@UBEPBDXZ
CONST	ENDS
;	COMDAT ??_7bad_alloc@std@@6B@
CONST	SEGMENT
??_7bad_alloc@std@@6B@ DD FLAT:??_R4bad_alloc@std@@6B@	; std::bad_alloc::`vftable'
	DD	FLAT:??_Ebad_alloc@std@@UAEPAXI@Z
	DD	FLAT:?what@exception@std@@UBEPBDXZ
CONST	ENDS
;	COMDAT ??_C@_0BC@EOODALEL@Unknown?5exception@
CONST	SEGMENT
??_C@_0BC@EOODALEL@Unknown?5exception@ DB 'Unknown exception', 00H ; `string'
CONST	ENDS
;	COMDAT ??_7exception@std@@6B@
CONST	SEGMENT
??_7exception@std@@6B@ DD FLAT:??_R4exception@std@@6B@	; std::exception::`vftable'
	DD	FLAT:??_Eexception@std@@UAEPAXI@Z
	DD	FLAT:?what@exception@std@@UBEPBDXZ
CONST	ENDS
;	COMDAT ??_C@_00CNPNBAHC@@
CONST	SEGMENT
??_C@_00CNPNBAHC@@ DB 00H				; `string'
CONST	ENDS
;	COMDAT xdata$x
xdata$x	SEGMENT
__ehfuncinfo$?RecalcElementListXPoint@CMainToolImplementation@@QAEXHHHPAUIPacket133101@@@Z DD 019930522H
	DD	05H
	DD	FLAT:__unwindtable$?RecalcElementListXPoint@CMainToolImplementation@@QAEXHHHPAUIPacket133101@@@Z
	DD	2 DUP(00H)
	DD	2 DUP(00H)
	DD	00H
	DD	01H
__unwindtable$?RecalcElementListXPoint@CMainToolImplementation@@QAEXHHHPAUIPacket133101@@@Z DD 0ffffffffH
	DD	FLAT:__unwindfunclet$?RecalcElementListXPoint@CMainToolImplementation@@QAEXHHHPAUIPacket133101@@@Z$0
	DD	00H
	DD	FLAT:__unwindfunclet$?RecalcElementListXPoint@CMainToolImplementation@@QAEXHHHPAUIPacket133101@@@Z$1
	DD	01H
	DD	FLAT:__unwindfunclet$?RecalcElementListXPoint@CMainToolImplementation@@QAEXHHHPAUIPacket133101@@@Z$2
	DD	02H
	DD	FLAT:__unwindfunclet$?RecalcElementListXPoint@CMainToolImplementation@@QAEXHHHPAUIPacket133101@@@Z$3
	DD	00H
	DD	FLAT:___std_terminate
xdata$x	ENDS
;	COMDAT xdata$x
xdata$x	SEGMENT
__ehfuncinfo$?RecalcElementXPoint@CMainToolImplementation@@QAE_NPBDH@Z DD 019930522H
	DD	06H
	DD	FLAT:__unwindtable$?RecalcElementXPoint@CMainToolImplementation@@QAE_NPBDH@Z
	DD	2 DUP(00H)
	DD	2 DUP(00H)
	DD	00H
	DD	01H
__unwindtable$?RecalcElementXPoint@CMainToolImplementation@@QAE_NPBDH@Z DD 0ffffffffH
	DD	FLAT:__unwindfunclet$?RecalcElementXPoint@CMainToolImplementation@@QAE_NPBDH@Z$0
	DD	00H
	DD	FLAT:__unwindfunclet$?RecalcElementXPoint@CMainToolImplementation@@QAE_NPBDH@Z$1
	DD	01H
	DD	FLAT:__unwindfunclet$?RecalcElementXPoint@CMainToolImplementation@@QAE_NPBDH@Z$2
	DD	01H
	DD	FLAT:___std_terminate
	DD	01H
	DD	FLAT:___std_terminate
	DD	0ffffffffH
	DD	FLAT:___std_terminate
xdata$x	ENDS
;	COMDAT xdata$x
xdata$x	SEGMENT
__unwindtable$?DeleteAllElementInBlock@CMainToolImplementation@@QAEXABVCBlockIndex@@@Z DD 0ffffffffH
	DD	FLAT:__unwindfunclet$?DeleteAllElementInBlock@CMainToolImplementation@@QAEXABVCBlockIndex@@@Z$0
	DD	00H
	DD	FLAT:__unwindfunclet$?DeleteAllElementInBlock@CMainToolImplementation@@QAEXABVCBlockIndex@@@Z$1
__ehfuncinfo$?DeleteAllElementInBlock@CMainToolImplementation@@QAEXABVCBlockIndex@@@Z DD 019930522H
	DD	02H
	DD	FLAT:__unwindtable$?DeleteAllElementInBlock@CMainToolImplementation@@QAEXABVCBlockIndex@@@Z
	DD	2 DUP(00H)
	DD	2 DUP(00H)
	DD	00H
	DD	01H
xdata$x	ENDS
;	COMDAT xdata$x
xdata$x	SEGMENT
__ehfuncinfo$?GetCurrentPosData@CMainToolImplementation@@QAEHVCPoint@@AAV?$CStringT@DV?$StrTraitMFC_DLL@DV?$ChTraitsCRT@D@ATL@@@@@ATL@@1@Z DD 019930522H
	DD	017H
	DD	FLAT:__unwindtable$?GetCurrentPosData@CMainToolImplementation@@QAEHVCPoint@@AAV?$CStringT@DV?$StrTraitMFC_DLL@DV?$ChTraitsCRT@D@ATL@@@@@ATL@@1@Z
	DD	2 DUP(00H)
	DD	2 DUP(00H)
	DD	00H
	DD	01H
__unwindtable$?GetCurrentPosData@CMainToolImplementation@@QAEHVCPoint@@AAV?$CStringT@DV?$StrTraitMFC_DLL@DV?$ChTraitsCRT@D@ATL@@@@@ATL@@1@Z DD 0ffffffffH
	DD	FLAT:__unwindfunclet$?GetCurrentPosData@CMainToolImplementation@@QAEHVCPoint@@AAV?$CStringT@DV?$StrTraitMFC_DLL@DV?$ChTraitsCRT@D@ATL@@@@@ATL@@1@Z$0
	DD	00H
	DD	FLAT:__unwindfunclet$?GetCurrentPosData@CMainToolImplementation@@QAEHVCPoint@@AAV?$CStringT@DV?$StrTraitMFC_DLL@DV?$ChTraitsCRT@D@ATL@@@@@ATL@@1@Z$1
	DD	01H
	DD	FLAT:__unwindfunclet$?GetCurrentPosData@CMainToolImplementation@@QAEHVCPoint@@AAV?$CStringT@DV?$StrTraitMFC_DLL@DV?$ChTraitsCRT@D@ATL@@@@@ATL@@1@Z$2
	DD	01H
	DD	FLAT:__unwindfunclet$?GetCurrentPosData@CMainToolImplementation@@QAEHVCPoint@@AAV?$CStringT@DV?$StrTraitMFC_DLL@DV?$ChTraitsCRT@D@ATL@@@@@ATL@@1@Z$3
	DD	03H
	DD	FLAT:__unwindfunclet$?GetCurrentPosData@CMainToolImplementation@@QAEHVCPoint@@AAV?$CStringT@DV?$StrTraitMFC_DLL@DV?$ChTraitsCRT@D@ATL@@@@@ATL@@1@Z$4
	DD	04H
	DD	FLAT:__unwindfunclet$?GetCurrentPosData@CMainToolImplementation@@QAEHVCPoint@@AAV?$CStringT@DV?$StrTraitMFC_DLL@DV?$ChTraitsCRT@D@ATL@@@@@ATL@@1@Z$5
	DD	01H
	DD	FLAT:__unwindfunclet$?GetCurrentPosData@CMainToolImplementation@@QAEHVCPoint@@AAV?$CStringT@DV?$StrTraitMFC_DLL@DV?$ChTraitsCRT@D@ATL@@@@@ATL@@1@Z$6
	DD	06H
	DD	FLAT:__unwindfunclet$?GetCurrentPosData@CMainToolImplementation@@QAEHVCPoint@@AAV?$CStringT@DV?$StrTraitMFC_DLL@DV?$ChTraitsCRT@D@ATL@@@@@ATL@@1@Z$7
	DD	07H
	DD	FLAT:__unwindfunclet$?GetCurrentPosData@CMainToolImplementation@@QAEHVCPoint@@AAV?$CStringT@DV?$StrTraitMFC_DLL@DV?$ChTraitsCRT@D@ATL@@@@@ATL@@1@Z$8
	DD	08H
	DD	FLAT:__unwindfunclet$?GetCurrentPosData@CMainToolImplementation@@QAEHVCPoint@@AAV?$CStringT@DV?$StrTraitMFC_DLL@DV?$ChTraitsCRT@D@ATL@@@@@ATL@@1@Z$9
	DD	09H
	DD	FLAT:__unwindfunclet$?GetCurrentPosData@CMainToolImplementation@@QAEHVCPoint@@AAV?$CStringT@DV?$StrTraitMFC_DLL@DV?$ChTraitsCRT@D@ATL@@@@@ATL@@1@Z$10
	DD	0aH
	DD	FLAT:__unwindfunclet$?GetCurrentPosData@CMainToolImplementation@@QAEHVCPoint@@AAV?$CStringT@DV?$StrTraitMFC_DLL@DV?$ChTraitsCRT@D@ATL@@@@@ATL@@1@Z$11
	DD	0bH
	DD	FLAT:__unwindfunclet$?GetCurrentPosData@CMainToolImplementation@@QAEHVCPoint@@AAV?$CStringT@DV?$StrTraitMFC_DLL@DV?$ChTraitsCRT@D@ATL@@@@@ATL@@1@Z$12
	DD	07H
	DD	FLAT:__unwindfunclet$?GetCurrentPosData@CMainToolImplementation@@QAEHVCPoint@@AAV?$CStringT@DV?$StrTraitMFC_DLL@DV?$ChTraitsCRT@D@ATL@@@@@ATL@@1@Z$13
	DD	0dH
	DD	FLAT:__unwindfunclet$?GetCurrentPosData@CMainToolImplementation@@QAEHVCPoint@@AAV?$CStringT@DV?$StrTraitMFC_DLL@DV?$ChTraitsCRT@D@ATL@@@@@ATL@@1@Z$14
	DD	0eH
	DD	FLAT:__unwindfunclet$?GetCurrentPosData@CMainToolImplementation@@QAEHVCPoint@@AAV?$CStringT@DV?$StrTraitMFC_DLL@DV?$ChTraitsCRT@D@ATL@@@@@ATL@@1@Z$15
	DD	0fH
	DD	FLAT:__unwindfunclet$?GetCurrentPosData@CMainToolImplementation@@QAEHVCPoint@@AAV?$CStringT@DV?$StrTraitMFC_DLL@DV?$ChTraitsCRT@D@ATL@@@@@ATL@@1@Z$16
	DD	07H
	DD	FLAT:__unwindfunclet$?GetCurrentPosData@CMainToolImplementation@@QAEHVCPoint@@AAV?$CStringT@DV?$StrTraitMFC_DLL@DV?$ChTraitsCRT@D@ATL@@@@@ATL@@1@Z$17
	DD	011H
	DD	FLAT:__unwindfunclet$?GetCurrentPosData@CMainToolImplementation@@QAEHVCPoint@@AAV?$CStringT@DV?$StrTraitMFC_DLL@DV?$ChTraitsCRT@D@ATL@@@@@ATL@@1@Z$18
	DD	012H
	DD	FLAT:__unwindfunclet$?GetCurrentPosData@CMainToolImplementation@@QAEHVCPoint@@AAV?$CStringT@DV?$StrTraitMFC_DLL@DV?$ChTraitsCRT@D@ATL@@@@@ATL@@1@Z$19
	DD	07H
	DD	FLAT:___std_terminate
	DD	07H
	DD	FLAT:__unwindfunclet$?GetCurrentPosData@CMainToolImplementation@@QAEHVCPoint@@AAV?$CStringT@DV?$StrTraitMFC_DLL@DV?$ChTraitsCRT@D@ATL@@@@@ATL@@1@Z$20
	DD	01H
	DD	FLAT:___std_terminate
xdata$x	ENDS
;	COMDAT xdata$x
xdata$x	SEGMENT
__ehfuncinfo$?OnMenu@CMainToolImplementation@@QAE_NW4ELEMENTMENU@CMenuType@@I@Z DD 019930522H
	DD	06H
	DD	FLAT:__unwindtable$?OnMenu@CMainToolImplementation@@QAE_NW4ELEMENTMENU@CMenuType@@I@Z
	DD	2 DUP(00H)
	DD	2 DUP(00H)
	DD	00H
	DD	01H
__unwindtable$?OnMenu@CMainToolImplementation@@QAE_NW4ELEMENTMENU@CMenuType@@I@Z DD 0ffffffffH
	DD	FLAT:__unwindfunclet$?OnMenu@CMainToolImplementation@@QAE_NW4ELEMENTMENU@CMenuType@@I@Z$0
	DD	00H
	DD	FLAT:__unwindfunclet$?OnMenu@CMainToolImplementation@@QAE_NW4ELEMENTMENU@CMenuType@@I@Z$1
	DD	01H
	DD	FLAT:__unwindfunclet$?OnMenu@CMainToolImplementation@@QAE_NW4ELEMENTMENU@CMenuType@@I@Z$2
	DD	02H
	DD	FLAT:__unwindfunclet$?OnMenu@CMainToolImplementation@@QAE_NW4ELEMENTMENU@CMenuType@@I@Z$3
	DD	01H
	DD	FLAT:__unwindfunclet$?OnMenu@CMainToolImplementation@@QAE_NW4ELEMENTMENU@CMenuType@@I@Z$3
	DD	0ffffffffH
	DD	FLAT:___std_terminate
xdata$x	ENDS
;	COMDAT xdata$x
xdata$x	SEGMENT
__ehfuncinfo$?OnLButtonDbClk@CMainToolImplementation@@QAE_NPAVCDC@@ABVCPoint@@@Z DD 019930522H
	DD	08H
	DD	FLAT:__unwindtable$?OnLButtonDbClk@CMainToolImplementation@@QAE_NPAVCDC@@ABVCPoint@@@Z
	DD	2 DUP(00H)
	DD	2 DUP(00H)
	DD	00H
	DD	01H
__unwindtable$?OnLButtonDbClk@CMainToolImplementation@@QAE_NPAVCDC@@ABVCPoint@@@Z DD 0ffffffffH
	DD	FLAT:__unwindfunclet$?OnLButtonDbClk@CMainToolImplementation@@QAE_NPAVCDC@@ABVCPoint@@@Z$0
	DD	00H
	DD	FLAT:__unwindfunclet$?OnLButtonDbClk@CMainToolImplementation@@QAE_NPAVCDC@@ABVCPoint@@@Z$1
	DD	01H
	DD	FLAT:__unwindfunclet$?OnLButtonDbClk@CMainToolImplementation@@QAE_NPAVCDC@@ABVCPoint@@@Z$2
	DD	02H
	DD	FLAT:__unwindfunclet$?OnLButtonDbClk@CMainToolImplementation@@QAE_NPAVCDC@@ABVCPoint@@@Z$3
	DD	01H
	DD	FLAT:__unwindfunclet$?OnLButtonDbClk@CMainToolImplementation@@QAE_NPAVCDC@@ABVCPoint@@@Z$3
	DD	04H
	DD	FLAT:__unwindfunclet$?OnLButtonDbClk@CMainToolImplementation@@QAE_NPAVCDC@@ABVCPoint@@@Z$4
	DD	05H
	DD	FLAT:__unwindfunclet$?OnLButtonDbClk@CMainToolImplementation@@QAE_NPAVCDC@@ABVCPoint@@@Z$5
	DD	0ffffffffH
	DD	FLAT:___std_terminate
xdata$x	ENDS
;	COMDAT xdata$x
xdata$x	SEGMENT
__unwindtable$?OnLButtonDown@CMainToolImplementation@@QAE_NPAVCDC@@ABVCPoint@@@Z DD 0ffffffffH
	DD	FLAT:__unwindfunclet$?OnLButtonDown@CMainToolImplementation@@QAE_NPAVCDC@@ABVCPoint@@@Z$0
__ehfuncinfo$?OnLButtonDown@CMainToolImplementation@@QAE_NPAVCDC@@ABVCPoint@@@Z DD 019930522H
	DD	01H
	DD	FLAT:__unwindtable$?OnLButtonDown@CMainToolImplementation@@QAE_NPAVCDC@@ABVCPoint@@@Z
	DD	2 DUP(00H)
	DD	2 DUP(00H)
	DD	00H
	DD	01H
xdata$x	ENDS
;	COMDAT xdata$x
xdata$x	SEGMENT
__ehfuncinfo$?OnToolCopy@CMainToolImplementation@@QAE_NXZ DD 019930522H
	DD	0bH
	DD	FLAT:__unwindtable$?OnToolCopy@CMainToolImplementation@@QAE_NXZ
	DD	2 DUP(00H)
	DD	2 DUP(00H)
	DD	00H
	DD	01H
__unwindtable$?OnToolCopy@CMainToolImplementation@@QAE_NXZ DD 0ffffffffH
	DD	FLAT:__unwindfunclet$?OnToolCopy@CMainToolImplementation@@QAE_NXZ$0
	DD	00H
	DD	FLAT:__unwindfunclet$?OnToolCopy@CMainToolImplementation@@QAE_NXZ$1
	DD	01H
	DD	FLAT:__unwindfunclet$?OnToolCopy@CMainToolImplementation@@QAE_NXZ$2
	DD	02H
	DD	FLAT:__unwindfunclet$?OnToolCopy@CMainToolImplementation@@QAE_NXZ$3
	DD	03H
	DD	FLAT:__unwindfunclet$?OnToolCopy@CMainToolImplementation@@QAE_NXZ$4
	DD	03H
	DD	FLAT:__unwindfunclet$?OnToolCopy@CMainToolImplementation@@QAE_NXZ$5
	DD	03H
	DD	FLAT:__unwindfunclet$?OnToolCopy@CMainToolImplementation@@QAE_NXZ$6
	DD	06H
	DD	FLAT:__unwindfunclet$?OnToolCopy@CMainToolImplementation@@QAE_NXZ$7
	DD	02H
	DD	FLAT:__unwindfunclet$?OnToolCopy@CMainToolImplementation@@QAE_NXZ$8
	DD	08H
	DD	FLAT:__unwindfunclet$?OnToolCopy@CMainToolImplementation@@QAE_NXZ$9
	DD	02H
	DD	FLAT:__unwindfunclet$?OnToolCopy@CMainToolImplementation@@QAE_NXZ$10
xdata$x	ENDS
;	COMDAT xdata$x
xdata$x	SEGMENT
__unwindtable$?GetData_Line@CMainToolImplementation@@QBE_NAAV?$CList@VCPoint@@AAV1@@@AAN@Z DD 0ffffffffH
	DD	FLAT:__unwindfunclet$?GetData_Line@CMainToolImplementation@@QBE_NAAV?$CList@VCPoint@@AAV1@@@AAN@Z$0
__ehfuncinfo$?GetData_Line@CMainToolImplementation@@QBE_NAAV?$CList@VCPoint@@AAV1@@@AAN@Z DD 019930522H
	DD	01H
	DD	FLAT:__unwindtable$?GetData_Line@CMainToolImplementation@@QBE_NAAV?$CList@VCPoint@@AAV1@@@AAN@Z
	DD	2 DUP(00H)
	DD	2 DUP(00H)
	DD	00H
	DD	01H
xdata$x	ENDS
;	COMDAT xdata$x
xdata$x	SEGMENT
__unwindtable$??0CMainToolImplementation@@QAE@PAVCWnd@@PAUHWND__@@W4CHART_MODE@CChartInfo@@@Z DD 0ffffffffH
	DD	FLAT:__unwindfunclet$??0CMainToolImplementation@@QAE@PAVCWnd@@PAUHWND__@@W4CHART_MODE@CChartInfo@@@Z$0
	DD	00H
	DD	FLAT:__unwindfunclet$??0CMainToolImplementation@@QAE@PAVCWnd@@PAUHWND__@@W4CHART_MODE@CChartInfo@@@Z$1
__ehfuncinfo$??0CMainToolImplementation@@QAE@PAVCWnd@@PAUHWND__@@W4CHART_MODE@CChartInfo@@@Z DD 019930522H
	DD	02H
	DD	FLAT:__unwindtable$??0CMainToolImplementation@@QAE@PAVCWnd@@PAUHWND__@@W4CHART_MODE@CChartInfo@@@Z
	DD	2 DUP(00H)
	DD	2 DUP(00H)
	DD	00H
	DD	01H
xdata$x	ENDS
;	COMDAT xdata$x
xdata$x	SEGMENT
__ehfuncinfo$??1ILPCSTR133101@@QAE@XZ DD 019930522H
	DD	00H
	DD	00H
	DD	2 DUP(00H)
	DD	2 DUP(00H)
	DD	00H
	DD	05H
xdata$x	ENDS
; Function compile flags: /Ogtp
; File C:\Program Files (x86)\Microsoft Visual Studio\2019\Community\VC\Tools\MSVC\14.29.30133\include\xmemory
;	COMDAT ??$_Allocate_manually_vector_aligned@U_Default_allocate_traits@std@@@std@@YAPAXI@Z
_TEXT	SEGMENT
__Bytes$ = 8						; size = 4
??$_Allocate_manually_vector_aligned@U_Default_allocate_traits@std@@@std@@YAPAXI@Z PROC ; std::_Allocate_manually_vector_aligned<std::_Default_allocate_traits>, COMDAT

; 127  : __declspec(allocator) void* _Allocate_manually_vector_aligned(const size_t _Bytes) {

  00000	55		 push	 ebp
  00001	8b ec		 mov	 ebp, esp

; 128  :     // allocate _Bytes manually aligned to at least _Big_allocation_alignment
; 129  :     const size_t _Block_size = _Non_user_size + _Bytes;

  00003	8b 45 08	 mov	 eax, DWORD PTR __Bytes$[ebp]
  00006	8d 48 23	 lea	 ecx, DWORD PTR [eax+35]

; 130  :     if (_Block_size <= _Bytes) {

  00009	3b c8		 cmp	 ecx, eax
  0000b	0f 86 00 00 00
	00		 jbe	 ?_Throw_bad_array_new_length@std@@YAXXZ ; std::_Throw_bad_array_new_length

; 79   :         return ::operator new(_Bytes);

  00011	51		 push	 ecx
  00012	e8 00 00 00 00	 call	 ??2@YAPAXI@Z		; operator new

; 131  :         _Throw_bad_array_new_length(); // add overflow
; 132  :     }
; 133  : 
; 134  :     const uintptr_t _Ptr_container = reinterpret_cast<uintptr_t>(_Traits::_Allocate(_Block_size));

  00017	8b c8		 mov	 ecx, eax

; 79   :         return ::operator new(_Bytes);

  00019	83 c4 04	 add	 esp, 4

; 135  :     _STL_VERIFY(_Ptr_container != 0, "invalid argument"); // validate even in release since we're doing p[-1]

  0001c	85 c9		 test	 ecx, ecx
  0001e	74 0b		 je	 SHORT $LN7@Allocate_m

; 136  :     void* const _Ptr = reinterpret_cast<void*>((_Ptr_container + _Non_user_size) & ~(_Big_allocation_alignment - 1));

  00020	8d 41 23	 lea	 eax, DWORD PTR [ecx+35]
  00023	83 e0 e0	 and	 eax, -32		; ffffffe0H

; 137  :     static_cast<uintptr_t*>(_Ptr)[-1] = _Ptr_container;

  00026	89 48 fc	 mov	 DWORD PTR [eax-4], ecx

; 138  : 
; 139  : #ifdef _DEBUG
; 140  :     static_cast<uintptr_t*>(_Ptr)[-2] = _Big_allocation_sentinel;
; 141  : #endif // _DEBUG
; 142  :     return _Ptr;
; 143  : }

  00029	5d		 pop	 ebp
  0002a	c3		 ret	 0
$LN7@Allocate_m:

; 135  :     _STL_VERIFY(_Ptr_container != 0, "invalid argument"); // validate even in release since we're doing p[-1]

  0002b	ff 25 00 00 00
	00		 jmp	 DWORD PTR __imp___invalid_parameter_noinfo_noreturn
??$_Allocate_manually_vector_aligned@U_Default_allocate_traits@std@@@std@@YAPAXI@Z ENDP ; std::_Allocate_manually_vector_aligned<std::_Default_allocate_traits>
_TEXT	ENDS
; Function compile flags: /Ogtp
; File C:\Program Files (x86)\Microsoft Visual Studio\2019\Community\VC\Tools\MSVC\14.29.30133\atlmfc\include\afxtempl.h
; File C:\Program Files (x86)\Microsoft Visual Studio\2019\Community\VC\Tools\MSVC\14.29.30133\atlmfc\include\atltypes.h
; File C:\Program Files (x86)\Microsoft Visual Studio\2019\Community\VC\Tools\MSVC\14.29.30133\atlmfc\include\afxtempl.h
;	COMDAT ?NewNode@?$CList@VCPoint@@AAV1@@@IAEPAUCNode@1@PAU21@0@Z
_TEXT	SEGMENT
_pPrev$ = 8						; size = 4
_pNext$ = 12						; size = 4
?NewNode@?$CList@VCPoint@@AAV1@@@IAEPAUCNode@1@PAU21@0@Z PROC ; CList<CPoint,CPoint &>::NewNode, COMDAT
; _this$ = ecx

; 901  : {

  00000	55		 push	 ebp
  00001	8b ec		 mov	 ebp, esp
  00003	56		 push	 esi
  00004	8b f1		 mov	 esi, ecx

; 902  : 	if (m_pNodeFree == NULL)

  00006	83 7e 10 00	 cmp	 DWORD PTR [esi+16], 0
  0000a	75 34		 jne	 SHORT $LN7@NewNode

; 903  : 	{
; 904  : 		// add another block
; 905  : 		CPlex* pNewBlock = CPlex::Create(m_pBlocks, m_nBlockSize,

  0000c	6a 10		 push	 16			; 00000010H
  0000e	ff 76 18	 push	 DWORD PTR [esi+24]
  00011	8d 46 14	 lea	 eax, DWORD PTR [esi+20]
  00014	50		 push	 eax
  00015	e8 00 00 00 00	 call	 ?Create@CPlex@@SGPAU1@AAPAU1@II@Z ; CPlex::Create

; 906  : 				 sizeof(CNode));
; 907  : 
; 908  : 		// chain them into free list
; 909  : 		CNode* pNode = (CNode*) pNewBlock->data();
; 910  : 		// free in reverse order to make it easier to debug
; 911  : 		pNode += m_nBlockSize - 1;

  0001a	8b 56 18	 mov	 edx, DWORD PTR [esi+24]
  0001d	83 c0 08	 add	 eax, 8
  00020	8b ca		 mov	 ecx, edx
  00022	c1 e1 04	 shl	 ecx, 4
  00025	83 c1 f0	 add	 ecx, -16		; fffffff0H
  00028	03 c1		 add	 eax, ecx

; 912  : 		for (INT_PTR i = m_nBlockSize-1; i >= 0; i--, pNode--)

  0002a	83 c2 ff	 add	 edx, -1
  0002d	78 11		 js	 SHORT $LN7@NewNode
  0002f	90		 npad	 1
$LL4@NewNode:

; 913  : 		{
; 914  : 			pNode->pNext = m_pNodeFree;

  00030	8b 4e 10	 mov	 ecx, DWORD PTR [esi+16]
  00033	89 08		 mov	 DWORD PTR [eax], ecx

; 915  : 			m_pNodeFree = pNode;

  00035	89 46 10	 mov	 DWORD PTR [esi+16], eax
  00038	83 e8 10	 sub	 eax, 16			; 00000010H
  0003b	83 ea 01	 sub	 edx, 1
  0003e	79 f0		 jns	 SHORT $LL4@NewNode
$LN7@NewNode:

; 916  : 		}
; 917  : 	}
; 918  : 	ENSURE(m_pNodeFree != NULL);  // we must have something

  00040	8b 56 10	 mov	 edx, DWORD PTR [esi+16]
  00043	85 d2		 test	 edx, edx
  00045	74 28		 je	 SHORT $LN19@NewNode

; 919  : 
; 920  : 	CList::CNode* pNode = m_pNodeFree;
; 921  : 	m_pNodeFree = m_pNodeFree->pNext;

  00047	8b 02		 mov	 eax, DWORD PTR [edx]

; 922  : 	pNode->pPrev = pPrev;

  00049	8b 4d 08	 mov	 ecx, DWORD PTR _pPrev$[ebp]
  0004c	89 46 10	 mov	 DWORD PTR [esi+16], eax

; 931  : 	return pNode;

  0004f	8b c2		 mov	 eax, edx
  00051	89 4a 04	 mov	 DWORD PTR [edx+4], ecx
  00054	8b 4d 0c	 mov	 ecx, DWORD PTR _pNext$[ebp]
  00057	89 0a		 mov	 DWORD PTR [edx], ecx
  00059	ff 46 0c	 inc	 DWORD PTR [esi+12]
; File C:\Program Files (x86)\Microsoft Visual Studio\2019\Community\VC\Tools\MSVC\14.29.30133\atlmfc\include\atltypes.h

; 400  : 	x = 0;

  0005c	c7 42 08 00 00
	00 00		 mov	 DWORD PTR [edx+8], 0

; 401  : 	y = 0;

  00063	c7 42 0c 00 00
	00 00		 mov	 DWORD PTR [edx+12], 0
; File C:\Program Files (x86)\Microsoft Visual Studio\2019\Community\VC\Tools\MSVC\14.29.30133\atlmfc\include\afxtempl.h

; 931  : 	return pNode;

  0006a	5e		 pop	 esi

; 932  : }

  0006b	5d		 pop	 ebp
  0006c	c2 08 00	 ret	 8
$LN19@NewNode:

; 916  : 		}
; 917  : 	}
; 918  : 	ENSURE(m_pNodeFree != NULL);  // we must have something

  0006f	e8 00 00 00 00	 call	 ?AfxThrowInvalidArgException@@YGXXZ ; AfxThrowInvalidArgException
$LN17@NewNode:
  00074	cc		 int	 3
?NewNode@?$CList@VCPoint@@AAV1@@@IAEPAUCNode@1@PAU21@0@Z ENDP ; CList<CPoint,CPoint &>::NewNode
_TEXT	ENDS
; Function compile flags: /Ogtp
; File C:\Program Files (x86)\Microsoft Visual Studio\2019\Community\VC\Tools\MSVC\14.29.30133\atlmfc\include\afxtempl.h
;	COMDAT ?RemoveAll@?$CList@VCPoint@@AAV1@@@QAEXXZ
_TEXT	SEGMENT
?RemoveAll@?$CList@VCPoint@@AAV1@@@QAEXXZ PROC		; CList<CPoint,CPoint &>::RemoveAll, COMDAT
; _this$ = ecx

; 862  : {

  00000	56		 push	 esi
  00001	8b f1		 mov	 esi, ecx

; 863  : 	ASSERT_VALID(this);
; 864  : 
; 865  : 	// destroy elements
; 866  : 	CNode* pNode;
; 867  : 	for (pNode = m_pNodeHead; pNode != NULL; pNode = pNode->pNext)
; 868  : 		pNode->data.~TYPE();
; 869  : 
; 870  : 	m_nCount = 0;
; 871  : 	m_pNodeHead = m_pNodeTail = m_pNodeFree = NULL;
; 872  : 	m_pBlocks->FreeDataChain();

  00003	8b 4e 14	 mov	 ecx, DWORD PTR [esi+20]
  00006	c7 46 0c 00 00
	00 00		 mov	 DWORD PTR [esi+12], 0
  0000d	c7 46 10 00 00
	00 00		 mov	 DWORD PTR [esi+16], 0
  00014	c7 46 08 00 00
	00 00		 mov	 DWORD PTR [esi+8], 0
  0001b	c7 46 04 00 00
	00 00		 mov	 DWORD PTR [esi+4], 0
  00022	e8 00 00 00 00	 call	 ?FreeDataChain@CPlex@@QAEXXZ ; CPlex::FreeDataChain

; 873  : 	m_pBlocks = NULL;

  00027	c7 46 14 00 00
	00 00		 mov	 DWORD PTR [esi+20], 0
  0002e	5e		 pop	 esi

; 874  : }

  0002f	c3		 ret	 0
?RemoveAll@?$CList@VCPoint@@AAV1@@@QAEXXZ ENDP		; CList<CPoint,CPoint &>::RemoveAll
_TEXT	ENDS
; Function compile flags: /Ogtp
; File C:\Program Files (x86)\Microsoft Visual Studio\2019\Community\VC\Tools\MSVC\14.29.30133\atlmfc\include\afxtempl.h
; File C:\Program Files (x86)\Microsoft Visual Studio\2019\Community\VC\Tools\MSVC\14.29.30133\atlmfc\include\atltypes.h
; File C:\Program Files (x86)\Microsoft Visual Studio\2019\Community\VC\Tools\MSVC\14.29.30133\atlmfc\include\afxtempl.h
;	COMDAT ?AddTail@?$CList@VCPoint@@AAV1@@@QAEPAU__POSITION@@AAVCPoint@@@Z
_TEXT	SEGMENT
_newElement$ = 8					; size = 4
?AddTail@?$CList@VCPoint@@AAV1@@@QAEPAU__POSITION@@AAVCPoint@@@Z PROC ; CList<CPoint,CPoint &>::AddTail, COMDAT
; _this$ = ecx

; 965  : {

  00000	55		 push	 ebp
  00001	8b ec		 mov	 ebp, esp
  00003	56		 push	 esi
  00004	8b f1		 mov	 esi, ecx
  00006	57		 push	 edi

; 902  : 	if (m_pNodeFree == NULL)

  00007	83 7e 10 00	 cmp	 DWORD PTR [esi+16], 0

; 966  : 	ASSERT_VALID(this);
; 967  : 
; 968  : 	CNode* pNewNode = NewNode(m_pNodeTail, NULL);

  0000b	8b 7e 08	 mov	 edi, DWORD PTR [esi+8]

; 902  : 	if (m_pNodeFree == NULL)

  0000e	75 33		 jne	 SHORT $LN11@AddTail

; 903  : 	{
; 904  : 		// add another block
; 905  : 		CPlex* pNewBlock = CPlex::Create(m_pBlocks, m_nBlockSize,

  00010	6a 10		 push	 16			; 00000010H
  00012	ff 76 18	 push	 DWORD PTR [esi+24]
  00015	8d 46 14	 lea	 eax, DWORD PTR [esi+20]
  00018	50		 push	 eax
  00019	e8 00 00 00 00	 call	 ?Create@CPlex@@SGPAU1@AAPAU1@II@Z ; CPlex::Create

; 906  : 				 sizeof(CNode));
; 907  : 
; 908  : 		// chain them into free list
; 909  : 		CNode* pNode = (CNode*) pNewBlock->data();
; 910  : 		// free in reverse order to make it easier to debug
; 911  : 		pNode += m_nBlockSize - 1;

  0001e	8b 56 18	 mov	 edx, DWORD PTR [esi+24]
  00021	83 c0 08	 add	 eax, 8
  00024	8b ca		 mov	 ecx, edx
  00026	c1 e1 04	 shl	 ecx, 4
  00029	83 c1 f0	 add	 ecx, -16		; fffffff0H
  0002c	03 c8		 add	 ecx, eax

; 912  : 		for (INT_PTR i = m_nBlockSize-1; i >= 0; i--, pNode--)

  0002e	83 c2 ff	 add	 edx, -1
  00031	78 10		 js	 SHORT $LN11@AddTail
$LL8@AddTail:

; 913  : 		{
; 914  : 			pNode->pNext = m_pNodeFree;

  00033	8b 46 10	 mov	 eax, DWORD PTR [esi+16]
  00036	89 01		 mov	 DWORD PTR [ecx], eax

; 915  : 			m_pNodeFree = pNode;

  00038	89 4e 10	 mov	 DWORD PTR [esi+16], ecx
  0003b	83 e9 10	 sub	 ecx, 16			; 00000010H
  0003e	83 ea 01	 sub	 edx, 1
  00041	79 f0		 jns	 SHORT $LL8@AddTail
$LN11@AddTail:

; 916  : 		}
; 917  : 	}
; 918  : 	ENSURE(m_pNodeFree != NULL);  // we must have something

  00043	8b 56 10	 mov	 edx, DWORD PTR [esi+16]
  00046	85 d2		 test	 edx, edx
  00048	74 4f		 je	 SHORT $LN24@AddTail

; 919  : 
; 920  : 	CList::CNode* pNode = m_pNodeFree;
; 921  : 	m_pNodeFree = m_pNodeFree->pNext;

  0004a	8b 02		 mov	 eax, DWORD PTR [edx]
  0004c	89 46 10	 mov	 DWORD PTR [esi+16], eax

; 969  : 	pNewNode->data = newElement;

  0004f	8b 45 08	 mov	 eax, DWORD PTR _newElement$[ebp]

; 922  : 	pNode->pPrev = pPrev;

  00052	89 7a 04	 mov	 DWORD PTR [edx+4], edi

; 923  : 	pNode->pNext = pNext;

  00055	c7 02 00 00 00
	00		 mov	 DWORD PTR [edx], 0

; 924  : 	m_nCount++;

  0005b	ff 46 0c	 inc	 DWORD PTR [esi+12]
; File C:\Program Files (x86)\Microsoft Visual Studio\2019\Community\VC\Tools\MSVC\14.29.30133\atlmfc\include\atltypes.h

; 400  : 	x = 0;

  0005e	c7 42 08 00 00
	00 00		 mov	 DWORD PTR [edx+8], 0

; 401  : 	y = 0;

  00065	c7 42 0c 00 00
	00 00		 mov	 DWORD PTR [edx+12], 0
; File C:\Program Files (x86)\Microsoft Visual Studio\2019\Community\VC\Tools\MSVC\14.29.30133\atlmfc\include\afxtempl.h

; 969  : 	pNewNode->data = newElement;

  0006c	8b 08		 mov	 ecx, DWORD PTR [eax]
  0006e	8b 40 04	 mov	 eax, DWORD PTR [eax+4]
  00071	89 4a 08	 mov	 DWORD PTR [edx+8], ecx
  00074	89 42 0c	 mov	 DWORD PTR [edx+12], eax

; 970  : 	if (m_pNodeTail != NULL)

  00077	8b 46 08	 mov	 eax, DWORD PTR [esi+8]
  0007a	85 c0		 test	 eax, eax
  0007c	74 0d		 je	 SHORT $LN2@AddTail

; 971  : 		m_pNodeTail->pNext = pNewNode;

  0007e	89 10		 mov	 DWORD PTR [eax], edx

; 972  : 	else
; 973  : 		m_pNodeHead = pNewNode;
; 974  : 	m_pNodeTail = pNewNode;
; 975  : 	return (POSITION) pNewNode;

  00080	8b c2		 mov	 eax, edx
  00082	5f		 pop	 edi
  00083	89 56 08	 mov	 DWORD PTR [esi+8], edx
  00086	5e		 pop	 esi

; 976  : }

  00087	5d		 pop	 ebp
  00088	c2 04 00	 ret	 4
$LN2@AddTail:

; 972  : 	else
; 973  : 		m_pNodeHead = pNewNode;
; 974  : 	m_pNodeTail = pNewNode;
; 975  : 	return (POSITION) pNewNode;

  0008b	5f		 pop	 edi
  0008c	89 56 04	 mov	 DWORD PTR [esi+4], edx
  0008f	8b c2		 mov	 eax, edx
  00091	89 56 08	 mov	 DWORD PTR [esi+8], edx
  00094	5e		 pop	 esi

; 976  : }

  00095	5d		 pop	 ebp
  00096	c2 04 00	 ret	 4
$LN24@AddTail:

; 918  : 	ENSURE(m_pNodeFree != NULL);  // we must have something

  00099	e8 00 00 00 00	 call	 ?AfxThrowInvalidArgException@@YGXXZ ; AfxThrowInvalidArgException
$LN22@AddTail:
  0009e	cc		 int	 3
?AddTail@?$CList@VCPoint@@AAV1@@@QAEPAU__POSITION@@AAVCPoint@@@Z ENDP ; CList<CPoint,CPoint &>::AddTail
_TEXT	ENDS
; Function compile flags: /Ogtp
;	COMDAT ??1CCurrentElementSet@@QAE@XZ
_TEXT	SEGMENT
??1CCurrentElementSet@@QAE@XZ PROC			; CCurrentElementSet::~CCurrentElementSet, COMDAT
; _this$ = ecx
  00000	56		 push	 esi
  00001	8b f1		 mov	 esi, ecx
  00003	8d 4e 10	 lea	 ecx, DWORD PTR [esi+16]
  00006	ff 15 00 00 00
	00		 call	 DWORD PTR __imp_??1?$CStringT@DV?$StrTraitMFC_DLL@DV?$ChTraitsCRT@D@ATL@@@@@ATL@@QAE@XZ
  0000c	8d 4e 0c	 lea	 ecx, DWORD PTR [esi+12]
  0000f	5e		 pop	 esi
  00010	ff 25 00 00 00
	00		 jmp	 DWORD PTR __imp_??1?$CStringT@DV?$StrTraitMFC_DLL@DV?$ChTraitsCRT@D@ATL@@@@@ATL@@QAE@XZ
??1CCurrentElementSet@@QAE@XZ ENDP			; CCurrentElementSet::~CCurrentElementSet
_TEXT	ENDS
; Function compile flags: /Ogtp
; File D:\git\src\IBK\IBK_DRFN\ProjSrc\SrcChartEx\ChartAddIn\ChartAnalysisToolAddIn\AnalysisTool\MainToolImplementation.cpp
; File C:\Program Files (x86)\Microsoft Visual Studio\2019\Community\VC\Tools\MSVC\14.29.30133\include\xmemory
; File C:\Program Files (x86)\Microsoft Visual Studio\2019\Community\VC\Tools\MSVC\14.29.30133\include\deque
; File C:\Program Files (x86)\Microsoft Visual Studio\2019\Community\VC\Tools\MSVC\14.29.30133\include\xmemory
; File D:\git\src\IBK\IBK_DRFN\ProjSrc\SrcChartEx\ChartAddIn\ChartAnalysisToolAddIn\Include_Chart\BlockBaseData.h
; File D:\git\src\IBK\IBK_DRFN\ProjSrc\SrcChartEx\ChartAddIn\ChartAnalysisToolAddIn\AnalysisTool\MainToolImplementation.cpp
; File D:\git\src\IBK\IBK_DRFN\ProjSrc\SrcChartEx\ChartAddIn\ChartAnalysisToolAddIn\Include_AddIn_133101\I133101\_IString.h
; File D:\git\src\IBK\IBK_DRFN\ProjSrc\SrcChartEx\ChartAddIn\ChartAnalysisToolAddIn\AnalysisTool\MainToolImplementation.cpp
; File D:\git\src\IBK\IBK_DRFN\ProjSrc\SrcChartEx\ChartAddIn\ChartAnalysisToolAddIn\Include_Chart\DequeList.h
; File D:\git\src\IBK\IBK_DRFN\ProjSrc\SrcChartEx\ChartAddIn\ChartAnalysisToolAddIn\AnalysisTool\MainToolImplementation.cpp
; File D:\git\src\IBK\IBK_DRFN\ProjSrc\SrcChartEx\ChartAddIn\ChartAnalysisToolAddIn\Include_Chart\DequeList.h
; File C:\Program Files (x86)\Microsoft Visual Studio\2019\Community\VC\Tools\MSVC\14.29.30133\include\deque
; File D:\git\src\IBK\IBK_DRFN\ProjSrc\SrcChartEx\ChartAddIn\ChartAnalysisToolAddIn\Include_Chart\DequeList.h
; File D:\git\src\IBK\IBK_DRFN\ProjSrc\SrcChartEx\ChartAddIn\ChartAnalysisToolAddIn\AnalysisTool\MainToolImplementation.cpp
; File C:\Program Files (x86)\Microsoft Visual Studio\2019\Community\VC\Tools\MSVC\14.29.30133\include\deque
; File D:\git\src\IBK\IBK_DRFN\ProjSrc\SrcChartEx\ChartAddIn\ChartAnalysisToolAddIn\AnalysisTool\MainToolImplementation.cpp
; File C:\Program Files (x86)\Microsoft Visual Studio\2019\Community\VC\Tools\MSVC\14.29.30133\include\deque
; File C:\Program Files (x86)\Microsoft Visual Studio\2019\Community\VC\Tools\MSVC\14.29.30133\include\utility
; File C:\Program Files (x86)\Microsoft Visual Studio\2019\Community\VC\Tools\MSVC\14.29.30133\include\xmemory
; File C:\Program Files (x86)\Microsoft Visual Studio\2019\Community\VC\Tools\MSVC\14.29.30133\include\utility
; File C:\Program Files (x86)\Microsoft Visual Studio\2019\Community\VC\Tools\MSVC\14.29.30133\include\xmemory
; File D:\git\src\IBK\IBK_DRFN\ProjSrc\SrcChartEx\ChartAddIn\ChartAnalysisToolAddIn\AnalysisTool\MainToolImplementation.cpp
; File C:\Program Files (x86)\Microsoft Visual Studio\2019\Community\VC\Tools\MSVC\14.29.30133\include\xmemory
; File D:\git\src\IBK\IBK_DRFN\ProjSrc\SrcChartEx\ChartAddIn\ChartAnalysisToolAddIn\AnalysisTool\MainToolImplementation.cpp
; File D:\git\src\IBK\IBK_DRFN\ProjSrc\SrcChartEx\ChartAddIn\ChartAnalysisToolAddIn\Include_AddIn_133101\I133101\_IString.h
; File C:\Program Files (x86)\Microsoft Visual Studio\2019\Community\VC\Tools\MSVC\14.29.30133\include\deque
; File C:\Program Files (x86)\Microsoft Visual Studio\2019\Community\VC\Tools\MSVC\14.29.30133\include\xmemory
; File C:\Program Files (x86)\Microsoft Visual Studio\2019\Community\VC\Tools\MSVC\14.29.30133\include\deque
; File C:\Program Files (x86)\Microsoft Visual Studio\2019\Community\VC\Tools\MSVC\14.29.30133\include\xmemory
; File C:\Program Files (x86)\Microsoft Visual Studio\2019\Community\VC\Tools\MSVC\14.29.30133\include\deque
; File C:\Program Files (x86)\Microsoft Visual Studio\2019\Community\VC\Tools\MSVC\14.29.30133\include\utility
; File C:\Program Files (x86)\Microsoft Visual Studio\2019\Community\VC\Tools\MSVC\14.29.30133\include\xmemory
; File C:\Program Files (x86)\Microsoft Visual Studio\2019\Community\VC\Tools\MSVC\14.29.30133\include\deque
; File C:\Program Files (x86)\Microsoft Visual Studio\2019\Community\VC\Tools\MSVC\14.29.30133\include\utility
; File C:\Program Files (x86)\Microsoft Visual Studio\2019\Community\VC\Tools\MSVC\14.29.30133\include\xmemory
; File D:\git\src\IBK\IBK_DRFN\ProjSrc\SrcChartEx\ChartAddIn\ChartAnalysisToolAddIn\AnalysisTool\MainToolImplementation.cpp
;	COMDAT ?RecalcElementListXPoint@CMainToolImplementation@@QAEXHHHPAUIPacket133101@@@Z
_TEXT	SEGMENT
_elementPointList$2 = -96				; size = 32
_elementList$ = -64					; size = 20
_dXDate$ = -44						; size = 8
__Tmp$3 = -36						; size = 8
tv180 = -36						; size = 8
_oldXDate$ = -36					; size = 8
_blkIdx$ = -28						; size = 8
_szPacketType$ = -20					; size = 8
__$EHRec$ = -12						; size = 12
_nIndex$1$ = 8						; size = 4
_row$ = 8						; size = 4
$T4 = 12						; size = 4
_col$ = 12						; size = 4
_nBaseTimeDiff$ = 16					; size = 4
_pPacket$ = 20						; size = 4
?RecalcElementListXPoint@CMainToolImplementation@@QAEXHHHPAUIPacket133101@@@Z PROC ; CMainToolImplementation::RecalcElementListXPoint, COMDAT
; _this$ = ecx

; 831  : {

  00000	55		 push	 ebp
  00001	8b ec		 mov	 ebp, esp
  00003	6a ff		 push	 -1
  00005	68 00 00 00 00	 push	 __ehhandler$?RecalcElementListXPoint@CMainToolImplementation@@QAEXHHHPAUIPacket133101@@@Z
  0000a	64 a1 00 00 00
	00		 mov	 eax, DWORD PTR fs:0
  00010	50		 push	 eax
  00011	83 ec 54	 sub	 esp, 84			; 00000054H
  00014	53		 push	 ebx
  00015	56		 push	 esi
  00016	57		 push	 edi
  00017	a1 00 00 00 00	 mov	 eax, DWORD PTR ___security_cookie
  0001c	33 c5		 xor	 eax, ebp
  0001e	50		 push	 eax
  0001f	8d 45 f4	 lea	 eax, DWORD PTR __$EHRec$[ebp]
  00022	64 a3 00 00 00
	00		 mov	 DWORD PTR fs:0, eax
  00028	8b f1		 mov	 esi, ecx
; File C:\Program Files (x86)\Microsoft Visual Studio\2019\Community\VC\Tools\MSVC\14.29.30133\include\xmemory

; 79   :         return ::operator new(_Bytes);

  0002a	6a 08		 push	 8

; 1033 :     _Container_proxy* _Myproxy = nullptr;

  0002c	c7 45 c0 00 00
	00 00		 mov	 DWORD PTR _elementList$[ebp], 0
; File C:\Program Files (x86)\Microsoft Visual Studio\2019\Community\VC\Tools\MSVC\14.29.30133\include\deque

; 555  :     _Deque_val() noexcept : _Map(), _Mapsize(0), _Myoff(0), _Mysize(0) {}

  00033	c7 45 c4 00 00
	00 00		 mov	 DWORD PTR _elementList$[ebp+4], 0
  0003a	c7 45 c8 00 00
	00 00		 mov	 DWORD PTR _elementList$[ebp+8], 0
  00041	c7 45 cc 00 00
	00 00		 mov	 DWORD PTR _elementList$[ebp+12], 0
  00048	c7 45 d0 00 00
	00 00		 mov	 DWORD PTR _elementList$[ebp+16], 0
; File C:\Program Files (x86)\Microsoft Visual Studio\2019\Community\VC\Tools\MSVC\14.29.30133\include\xmemory

; 79   :         return ::operator new(_Bytes);

  0004f	e8 00 00 00 00	 call	 ??2@YAPAXI@Z		; operator new

; 1021 :         _New_proxy->_Mycont = this;

  00054	8d 4d c0	 lea	 ecx, DWORD PTR _elementList$[ebp]

; 79   :         return ::operator new(_Bytes);

  00057	83 c4 04	 add	 esp, 4

; 1003 :     mutable _Iterator_base12* _Myfirstiter = nullptr;

  0005a	c7 40 04 00 00
	00 00		 mov	 DWORD PTR [eax+4], 0

; 1020 :         _Myproxy            = _New_proxy;

  00061	89 45 c0	 mov	 DWORD PTR _elementList$[ebp], eax

; 1021 :         _New_proxy->_Mycont = this;

  00064	89 08		 mov	 DWORD PTR [eax], ecx
; File D:\git\src\IBK\IBK_DRFN\ProjSrc\SrcChartEx\ChartAddIn\ChartAnalysisToolAddIn\Include_Chart\BlockBaseData.h

; 20   : 	CBlockIndex(const int row, const int column) { m_nRow = row; m_nColumn = column; };

  00066	8b 45 08	 mov	 eax, DWORD PTR _row$[ebp]
  00069	89 45 e4	 mov	 DWORD PTR _blkIdx$[ebp], eax
  0006c	8b 45 0c	 mov	 eax, DWORD PTR _col$[ebp]
  0006f	89 45 e8	 mov	 DWORD PTR _blkIdx$[ebp+4], eax
; File D:\git\src\IBK\IBK_DRFN\ProjSrc\SrcChartEx\ChartAddIn\ChartAnalysisToolAddIn\AnalysisTool\MainToolImplementation.cpp

; 835  : 	m_analysisData.GetElementTree().GetElementListOfBlock(blkIdx, elementList);

  00072	8b c1		 mov	 eax, ecx
  00074	50		 push	 eax
  00075	8d 45 e4	 lea	 eax, DWORD PTR _blkIdx$[ebp]
  00078	c7 45 fc 00 00
	00 00		 mov	 DWORD PTR __$EHRec$[ebp+8], 0
  0007f	50		 push	 eax
  00080	8d 4e 1c	 lea	 ecx, DWORD PTR [esi+28]
  00083	e8 00 00 00 00	 call	 ?GetElementTree@CAnalysisData@@QAEAAVCElementTree@@XZ ; CAnalysisData::GetElementTree
  00088	8b c8		 mov	 ecx, eax
  0008a	e8 00 00 00 00	 call	 ?GetElementListOfBlock@CElementTree@@QAEXABVCBlockIndex@@AAV?$CDequePointerList@VCElement@@@@@Z ; CElementTree::GetElementListOfBlock

; 836  : 
; 837  : 	ILPCSTR szPacketType = pPacket->GetType();

  0008f	8b 4d 14	 mov	 ecx, DWORD PTR _pPacket$[ebp]
  00092	6a 01		 push	 1
  00094	8b 01		 mov	 eax, DWORD PTR [ecx]
  00096	ff 50 1c	 call	 DWORD PTR [eax+28]
; File D:\git\src\IBK\IBK_DRFN\ProjSrc\SrcChartEx\ChartAddIn\ChartAnalysisToolAddIn\Include_AddIn_133101\I133101\_IString.h

; 39   : 		m_pIStrData = p_pIString;	// Do not AddRef(). Because It must be Return Value.

  00099	8b f0		 mov	 esi, eax
  0009b	89 75 f0	 mov	 DWORD PTR _szPacketType$[ebp+4], esi

; 40   : 		if( m_pIStrData) m_szData = m_pIStrData->GetData();

  0009e	85 f6		 test	 esi, esi
  000a0	74 0c		 je	 SHORT $LN64@RecalcElem
  000a2	8b 16		 mov	 edx, DWORD PTR [esi]
  000a4	8b ce		 mov	 ecx, esi
  000a6	ff 52 10	 call	 DWORD PTR [edx+16]
  000a9	89 45 ec	 mov	 DWORD PTR _szPacketType$[ebp], eax
  000ac	eb 07		 jmp	 SHORT $LN65@RecalcElem
$LN64@RecalcElem:

; 41   : 		else m_szData = NULL;

  000ae	c7 45 ec 00 00
	00 00		 mov	 DWORD PTR _szPacketType$[ebp], 0
$LN65@RecalcElem:
; File D:\git\src\IBK\IBK_DRFN\ProjSrc\SrcChartEx\ChartAddIn\ChartAnalysisToolAddIn\AnalysisTool\MainToolImplementation.cpp

; 843  : 	for(int nIndex = 0; nIndex < elementList.GetCount(); nIndex++)

  000b5	8b 45 d0	 mov	 eax, DWORD PTR _elementList$[ebp+16]
  000b8	33 db		 xor	 ebx, ebx
  000ba	c6 45 fc 01	 mov	 BYTE PTR __$EHRec$[ebp+8], 1
  000be	89 5d 08	 mov	 DWORD PTR _nIndex$1$[ebp], ebx
  000c1	85 c0		 test	 eax, eax
  000c3	0f 8e 32 01 00
	00		 jle	 $LN3@RecalcElem
  000c9	0f 1f 80 00 00
	00 00		 npad	 7
$LL4@RecalcElem:

; 845  : 		CElementPointList elementPointList;			//  for    .. pElement->GetPoints()  .

  000d0	8d 4d a0	 lea	 ecx, DWORD PTR _elementPointList$2[ebp]
  000d3	e8 00 00 00 00	 call	 ??0CElementPointList@@QAE@XZ ; CElementPointList::CElementPointList
; File D:\git\src\IBK\IBK_DRFN\ProjSrc\SrcChartEx\ChartAddIn\ChartAnalysisToolAddIn\Include_Chart\DequeList.h

; 198  : 		if(m_deque.empty())

  000d8	83 7d d0 00	 cmp	 DWORD PTR _elementList$[ebp+16], 0
; File D:\git\src\IBK\IBK_DRFN\ProjSrc\SrcChartEx\ChartAddIn\ChartAnalysisToolAddIn\AnalysisTool\MainToolImplementation.cpp

; 845  : 		CElementPointList elementPointList;			//  for    .. pElement->GetPoints()  .

  000dc	c6 45 fc 02	 mov	 BYTE PTR __$EHRec$[ebp+8], 2
; File D:\git\src\IBK\IBK_DRFN\ProjSrc\SrcChartEx\ChartAddIn\ChartAnalysisToolAddIn\Include_Chart\DequeList.h

; 198  : 		if(m_deque.empty())

  000e0	75 04		 jne	 SHORT $LN68@RecalcElem

; 199  : 			return NULL;

  000e2	33 c9		 xor	 ecx, ecx
  000e4	eb 23		 jmp	 SHORT $LN67@RecalcElem
$LN68@RecalcElem:
; File C:\Program Files (x86)\Microsoft Visual Studio\2019\Community\VC\Tools\MSVC\14.29.30133\include\deque

; 43   :         : _Mycont(static_cast<const _Mydeque*>(_Pdeque)), _Myoff(_Off) {}

  000e6	8b 45 cc	 mov	 eax, DWORD PTR _elementList$[ebp+12]
  000e9	8d 75 c0	 lea	 esi, DWORD PTR _elementList$[ebp]

; 559  :         return (_Off / _Block_size) & (_Mapsize - 1);

  000ec	8b 4e 08	 mov	 ecx, DWORD PTR [esi+8]

; 202  :         _Deque_unchecked_iterator _Tmp = *this;

  000ef	89 45 e0	 mov	 DWORD PTR __Tmp$3[ebp+4], eax

; 559  :         return (_Off / _Block_size) & (_Mapsize - 1);

  000f2	49		 dec	 ecx

; 78   :         _Myoff += _Off;

  000f3	8d 14 18	 lea	 edx, DWORD PTR [eax+ebx]

; 559  :         return (_Off / _Block_size) & (_Mapsize - 1);

  000f6	8b c2		 mov	 eax, edx
  000f8	c1 e8 02	 shr	 eax, 2
  000fb	23 c8		 and	 ecx, eax

; 48   :         return _Mycont->_Map[_Block][_Off];

  000fd	8b 46 04	 mov	 eax, DWORD PTR [esi+4]

; 559  :         return (_Off / _Block_size) & (_Mapsize - 1);

  00100	83 e2 03	 and	 edx, 3

; 48   :         return _Mycont->_Map[_Block][_Off];

  00103	8b 04 88	 mov	 eax, DWORD PTR [eax+ecx*4]
; File D:\git\src\IBK\IBK_DRFN\ProjSrc\SrcChartEx\ChartAddIn\ChartAnalysisToolAddIn\Include_Chart\DequeList.h

; 201  : 		return m_deque[nIndex];

  00106	8b 0c 90	 mov	 ecx, DWORD PTR [eax+edx*4]
$LN67@RecalcElem:
; File D:\git\src\IBK\IBK_DRFN\ProjSrc\SrcChartEx\ChartAddIn\ChartAnalysisToolAddIn\AnalysisTool\MainToolImplementation.cpp

; 847  : 		pElement->GetPoints(elementPointList);

  00109	8b 01		 mov	 eax, DWORD PTR [ecx]
  0010b	8d 55 a0	 lea	 edx, DWORD PTR _elementPointList$2[ebp]
  0010e	52		 push	 edx
  0010f	ff 50 08	 call	 DWORD PTR [eax+8]

; 848  : 
; 849  : 		for(int i=0;i<elementPointList.GetCount();i++)

  00112	8d 4d a0	 lea	 ecx, DWORD PTR _elementPointList$2[ebp]
  00115	33 f6		 xor	 esi, esi
  00117	e8 00 00 00 00	 call	 ?GetCount@CElementPointList@@QBEHXZ ; CElementPointList::GetCount
  0011c	85 c0		 test	 eax, eax
  0011e	0f 8e 9c 00 00
	00		 jle	 $LN6@RecalcElem
$LL7@RecalcElem:

; 850  : 		{
; 851  : 			pCoordinate = elementPointList.GetAt(i);

  00124	56		 push	 esi
  00125	8d 4d a0	 lea	 ecx, DWORD PTR _elementPointList$2[ebp]
  00128	e8 00 00 00 00	 call	 ?GetAt@CElementPointList@@QAEPAVCCoordinate@@H@Z ; CElementPointList::GetAt
  0012d	8b f8		 mov	 edi, eax

; 852  : 			oldXDate = pCoordinate->GetX();

  0012f	8b cf		 mov	 ecx, edi
  00131	e8 00 00 00 00	 call	 ?GetX@CCoordinate@@QBENXZ ; CCoordinate::GetX

; 853  : 			oldTimeDiff = pCoordinate->GetTimeDiff();

  00136	8b cf		 mov	 ecx, edi
  00138	dd 5d dc	 fstp	 QWORD PTR _oldXDate$[ebp]
  0013b	e8 00 00 00 00	 call	 ?GetTimeDiff@CCoordinate@@QBEHXZ ; CCoordinate::GetTimeDiff
  00140	8b d8		 mov	 ebx, eax

; 854  : 			if( oldTimeDiff != nBaseTimeDiff )

  00142	3b 5d 10	 cmp	 ebx, DWORD PTR _nBaseTimeDiff$[ebp]
  00145	74 65		 je	 SHORT $LN5@RecalcElem

; 855  : 			{
; 856  : 				dXDate = CDataConversion::CalcTimeDiff(oldXDate, nBaseTimeDiff - oldTimeDiff, pPacket->GetOrgBaseTimeDifference(), CString( szPacketType));

  00147	51		 push	 ecx
  00148	8b cc		 mov	 ecx, esp
  0014a	89 65 0c	 mov	 DWORD PTR $T4[ebp], esp
  0014d	ff 75 ec	 push	 DWORD PTR _szPacketType$[ebp]
  00150	ff 15 00 00 00
	00		 call	 DWORD PTR __imp_??0?$CStringT@DV?$StrTraitMFC_DLL@DV?$ChTraitsCRT@D@ATL@@@@@ATL@@QAE@PBD@Z
  00156	8b 4d 14	 mov	 ecx, DWORD PTR _pPacket$[ebp]
  00159	c6 45 fc 03	 mov	 BYTE PTR __$EHRec$[ebp+8], 3
  0015d	8b 01		 mov	 eax, DWORD PTR [ecx]
  0015f	ff 50 64	 call	 DWORD PTR [eax+100]
  00162	f2 0f 10 45 dc	 movsd	 xmm0, QWORD PTR _oldXDate$[ebp]
  00167	50		 push	 eax
  00168	8b 45 10	 mov	 eax, DWORD PTR _nBaseTimeDiff$[ebp]
  0016b	2b c3		 sub	 eax, ebx
  0016d	c6 45 fc 02	 mov	 BYTE PTR __$EHRec$[ebp+8], 2
  00171	50		 push	 eax
  00172	83 ec 08	 sub	 esp, 8
  00175	f2 0f 11 04 24	 movsd	 QWORD PTR [esp], xmm0
  0017a	e8 00 00 00 00	 call	 ?CalcTimeDiff@CDataConversion@@SANNHHV?$CStringT@DV?$StrTraitMFC_DLL@DV?$ChTraitsCRT@D@ATL@@@@@ATL@@@Z ; CDataConversion::CalcTimeDiff
  0017f	dd 5d dc	 fstp	 QWORD PTR tv180[ebp]
  00182	f2 0f 10 45 dc	 movsd	 xmm0, QWORD PTR tv180[ebp]
  00187	83 c4 14	 add	 esp, 20			; 00000014H

; 857  : 				pCoordinate->SetX(dXDate, pCoordinate->GetIndex());

  0018a	8b cf		 mov	 ecx, edi
  0018c	f2 0f 11 45 d4	 movsd	 QWORD PTR _dXDate$[ebp], xmm0
  00191	e8 00 00 00 00	 call	 ?GetIndex@CCoordinate@@QBEHXZ ; CCoordinate::GetIndex
  00196	50		 push	 eax
  00197	8d 45 d4	 lea	 eax, DWORD PTR _dXDate$[ebp]
  0019a	8b cf		 mov	 ecx, edi
  0019c	50		 push	 eax
  0019d	e8 00 00 00 00	 call	 ?SetX@CCoordinate@@QAEXABNH@Z ; CCoordinate::SetX

; 858  : 				pCoordinate->SetTimeDiff(nBaseTimeDiff);

  001a2	ff 75 10	 push	 DWORD PTR _nBaseTimeDiff$[ebp]
  001a5	8b cf		 mov	 ecx, edi
  001a7	e8 00 00 00 00	 call	 ?SetTimeDiff@CCoordinate@@QAEXH@Z ; CCoordinate::SetTimeDiff
$LN5@RecalcElem:

; 848  : 
; 849  : 		for(int i=0;i<elementPointList.GetCount();i++)

  001ac	8d 4d a0	 lea	 ecx, DWORD PTR _elementPointList$2[ebp]
  001af	46		 inc	 esi
  001b0	e8 00 00 00 00	 call	 ?GetCount@CElementPointList@@QBEHXZ ; CElementPointList::GetCount
  001b5	3b f0		 cmp	 esi, eax
  001b7	0f 8c 67 ff ff
	ff		 jl	 $LL7@RecalcElem
  001bd	8b 5d 08	 mov	 ebx, DWORD PTR _nIndex$1$[ebp]
$LN6@RecalcElem:
; File C:\Program Files (x86)\Microsoft Visual Studio\2019\Community\VC\Tools\MSVC\14.29.30133\include\deque

; 1332 :         _Tidy();

  001c0	8d 4d a8	 lea	 ecx, DWORD PTR _elementPointList$2[ebp+8]
; File D:\git\src\IBK\IBK_DRFN\ProjSrc\SrcChartEx\ChartAddIn\ChartAnalysisToolAddIn\AnalysisTool\MainToolImplementation.cpp

; 861  : 	}

  001c3	c6 45 fc 01	 mov	 BYTE PTR __$EHRec$[ebp+8], 1
; File C:\Program Files (x86)\Microsoft Visual Studio\2019\Community\VC\Tools\MSVC\14.29.30133\include\deque

; 1332 :         _Tidy();

  001c7	e8 00 00 00 00	 call	 ?_Tidy@?$deque@PAVCCoordinate@@V?$allocator@PAVCCoordinate@@@std@@@std@@AAEXXZ ; std::deque<CCoordinate *,std::allocator<CCoordinate *> >::_Tidy

; 861  :         _Tidy();

  001cc	8d 4d a8	 lea	 ecx, DWORD PTR _elementPointList$2[ebp+8]
  001cf	e8 00 00 00 00	 call	 ?_Tidy@?$deque@PAVCCoordinate@@V?$allocator@PAVCCoordinate@@@std@@@std@@AAEXXZ ; std::deque<CCoordinate *,std::allocator<CCoordinate *> >::_Tidy
; File C:\Program Files (x86)\Microsoft Visual Studio\2019\Community\VC\Tools\MSVC\14.29.30133\include\utility

; 602  :     _Ty _Old_val = static_cast<_Ty&&>(_Val);

  001d4	8b 45 a8	 mov	 eax, DWORD PTR _elementPointList$2[ebp+8]
; File C:\Program Files (x86)\Microsoft Visual Studio\2019\Community\VC\Tools\MSVC\14.29.30133\include\xmemory

; 255  :         ::operator delete(_Ptr, _Bytes);

  001d7	6a 08		 push	 8
  001d9	50		 push	 eax
; File C:\Program Files (x86)\Microsoft Visual Studio\2019\Community\VC\Tools\MSVC\14.29.30133\include\utility

; 603  :     _Val         = static_cast<_Other&&>(_New_val);

  001da	c7 45 a8 00 00
	00 00		 mov	 DWORD PTR _elementPointList$2[ebp+8], 0
; File C:\Program Files (x86)\Microsoft Visual Studio\2019\Community\VC\Tools\MSVC\14.29.30133\include\xmemory

; 255  :         ::operator delete(_Ptr, _Bytes);

  001e1	e8 00 00 00 00	 call	 ??3@YAXPAXI@Z		; operator delete
; File D:\git\src\IBK\IBK_DRFN\ProjSrc\SrcChartEx\ChartAddIn\ChartAnalysisToolAddIn\AnalysisTool\MainToolImplementation.cpp

; 843  : 	for(int nIndex = 0; nIndex < elementList.GetCount(); nIndex++)

  001e6	8b 45 d0	 mov	 eax, DWORD PTR _elementList$[ebp+16]
  001e9	43		 inc	 ebx
; File C:\Program Files (x86)\Microsoft Visual Studio\2019\Community\VC\Tools\MSVC\14.29.30133\include\xmemory

; 255  :         ::operator delete(_Ptr, _Bytes);

  001ea	83 c4 08	 add	 esp, 8
; File D:\git\src\IBK\IBK_DRFN\ProjSrc\SrcChartEx\ChartAddIn\ChartAnalysisToolAddIn\AnalysisTool\MainToolImplementation.cpp

; 843  : 	for(int nIndex = 0; nIndex < elementList.GetCount(); nIndex++)

  001ed	89 5d 08	 mov	 DWORD PTR _nIndex$1$[ebp], ebx
  001f0	3b d8		 cmp	 ebx, eax
  001f2	0f 8c d8 fe ff
	ff		 jl	 $LL4@RecalcElem
  001f8	8b 75 f0	 mov	 esi, DWORD PTR _szPacketType$[ebp+4]
$LN3@RecalcElem:
; File D:\git\src\IBK\IBK_DRFN\ProjSrc\SrcChartEx\ChartAddIn\ChartAnalysisToolAddIn\Include_AddIn_133101\I133101\_IString.h

; 44   : 	{

  001fb	c6 45 fc 04	 mov	 BYTE PTR __$EHRec$[ebp+8], 4

; 45   : 		if( m_pIStrData)

  001ff	85 f6		 test	 esi, esi
  00201	74 09		 je	 SHORT $LN131@RecalcElem

; 46   : 		{
; 47   : 			m_pIStrData->Release();

  00203	8b 06		 mov	 eax, DWORD PTR [esi]
  00205	56		 push	 esi
  00206	ff 50 08	 call	 DWORD PTR [eax+8]
  00209	8b 45 d0	 mov	 eax, DWORD PTR _elementList$[ebp+16]
$LN131@RecalcElem:
; File C:\Program Files (x86)\Microsoft Visual Studio\2019\Community\VC\Tools\MSVC\14.29.30133\include\deque

; 1475 :         while (!empty()) {

  0020c	8b 4d cc	 mov	 ecx, DWORD PTR _elementList$[ebp+12]

; 1002 :         return _Mysize() == 0;

  0020f	85 c0		 test	 eax, eax

; 1475 :         while (!empty()) {

  00211	74 15		 je	 SHORT $LN141@RecalcElem
$LL140@RecalcElem:

; 1146 :         if (--_Mysize() == 0) {

  00213	83 e8 01	 sub	 eax, 1
  00216	ba 00 00 00 00	 mov	 edx, 0
  0021b	0f 44 ca	 cmove	 ecx, edx

; 1002 :         return _Mysize() == 0;

  0021e	85 c0		 test	 eax, eax

; 1475 :         while (!empty()) {

  00220	75 f1		 jne	 SHORT $LL140@RecalcElem

; 1146 :         if (--_Mysize() == 0) {

  00222	89 45 d0	 mov	 DWORD PTR _elementList$[ebp+16], eax
  00225	89 4d cc	 mov	 DWORD PTR _elementList$[ebp+12], ecx
$LN141@RecalcElem:

; 1479 :         for (size_type _Block = _Mapsize(); 0 < _Block;) { // free storage for a block and destroy pointer

  00228	8b 75 c8	 mov	 esi, DWORD PTR _elementList$[ebp+8]
  0022b	8b 55 c4	 mov	 edx, DWORD PTR _elementList$[ebp+4]
  0022e	85 f6		 test	 esi, esi
  00230	74 24		 je	 SHORT $LN143@RecalcElem
$LL142@RecalcElem:

; 1480 :             if (_Map()[--_Block]) { // free block and destroy its pointer

  00232	8b 44 b2 fc	 mov	 eax, DWORD PTR [edx+esi*4-4]
  00236	4e		 dec	 esi
  00237	85 c0		 test	 eax, eax
  00239	74 0e		 je	 SHORT $LN161@RecalcElem
; File C:\Program Files (x86)\Microsoft Visual Studio\2019\Community\VC\Tools\MSVC\14.29.30133\include\xmemory

; 255  :         ::operator delete(_Ptr, _Bytes);

  0023b	6a 10		 push	 16			; 00000010H
  0023d	50		 push	 eax
  0023e	e8 00 00 00 00	 call	 ??3@YAXPAXI@Z		; operator delete
  00243	8b 55 c4	 mov	 edx, DWORD PTR _elementList$[ebp+4]
  00246	83 c4 08	 add	 esp, 8
$LN161@RecalcElem:
; File C:\Program Files (x86)\Microsoft Visual Studio\2019\Community\VC\Tools\MSVC\14.29.30133\include\deque

; 1479 :         for (size_type _Block = _Mapsize(); 0 < _Block;) { // free storage for a block and destroy pointer

  00249	85 f6		 test	 esi, esi
  0024b	75 e5		 jne	 SHORT $LL142@RecalcElem
  0024d	8b 45 d0	 mov	 eax, DWORD PTR _elementList$[ebp+16]
  00250	8b 4d cc	 mov	 ecx, DWORD PTR _elementList$[ebp+12]
  00253	8b 75 c8	 mov	 esi, DWORD PTR _elementList$[ebp+8]
$LN143@RecalcElem:

; 1481 :                 _Getal().deallocate(_Map()[_Block], _Block_size);
; 1482 :                 _Destroy_in_place(_Map()[_Block]);
; 1483 :             }
; 1484 :         }
; 1485 : 
; 1486 :         if (_Map() != _Mapptr()) {

  00256	85 d2		 test	 edx, edx
  00258	74 33		 je	 SHORT $LN179@RecalcElem
; File C:\Program Files (x86)\Microsoft Visual Studio\2019\Community\VC\Tools\MSVC\14.29.30133\include\xmemory

; 797  :         _Deallocate<_New_alignof<_Ty>>(_Ptr, sizeof(_Ty) * _Count);

  0025a	c1 e6 02	 shl	 esi, 2
  0025d	8b c2		 mov	 eax, edx

; 251  :         if (_Bytes >= _Big_allocation_threshold) { // boost the alignment of big allocations to help autovectorization

  0025f	81 fe 00 10 00
	00		 cmp	 esi, 4096		; 00001000H
  00265	72 16		 jb	 SHORT $LN189@RecalcElem

; 150  :     const uintptr_t _Ptr_container   = _Ptr_user[-1];

  00267	8b 52 fc	 mov	 edx, DWORD PTR [edx-4]
  0026a	83 c6 23	 add	 esi, 35			; 00000023H
  0026d	2b c2		 sub	 eax, edx

; 151  : 
; 152  :     // If the following asserts, it likely means that we are performing
; 153  :     // an aligned delete on memory coming from an unaligned allocation.
; 154  :     _STL_ASSERT(_Ptr_user[-2] == _Big_allocation_sentinel, "invalid argument");
; 155  : 
; 156  :     // Extra paranoia on aligned allocation/deallocation; ensure _Ptr_container is
; 157  :     // in range [_Min_back_shift, _Non_user_size]
; 158  : #ifdef _DEBUG
; 159  :     constexpr uintptr_t _Min_back_shift = 2 * sizeof(void*);
; 160  : #else // ^^^ _DEBUG ^^^ // vvv !_DEBUG vvv
; 161  :     constexpr uintptr_t _Min_back_shift = sizeof(void*);
; 162  : #endif // _DEBUG
; 163  :     const uintptr_t _Back_shift = reinterpret_cast<uintptr_t>(_Ptr) - _Ptr_container;
; 164  :     _STL_VERIFY(_Back_shift >= _Min_back_shift && _Back_shift <= _Non_user_size, "invalid argument");

  0026f	83 c0 fc	 add	 eax, -4			; fffffffcH
  00272	83 f8 1f	 cmp	 eax, 31			; 0000001fH
  00275	76 06		 jbe	 SHORT $LN189@RecalcElem
  00277	ff 15 00 00 00
	00		 call	 DWORD PTR __imp___invalid_parameter_noinfo_noreturn
$LN189@RecalcElem:

; 255  :         ::operator delete(_Ptr, _Bytes);

  0027d	56		 push	 esi
  0027e	52		 push	 edx
  0027f	e8 00 00 00 00	 call	 ??3@YAXPAXI@Z		; operator delete
  00284	8b 45 d0	 mov	 eax, DWORD PTR _elementList$[ebp+16]
  00287	83 c4 08	 add	 esp, 8
  0028a	8b 4d cc	 mov	 ecx, DWORD PTR _elementList$[ebp+12]
$LN179@RecalcElem:
; File C:\Program Files (x86)\Microsoft Visual Studio\2019\Community\VC\Tools\MSVC\14.29.30133\include\deque

; 1002 :         return _Mysize() == 0;

  0028d	85 c0		 test	 eax, eax

; 1475 :         while (!empty()) {

  0028f	74 15		 je	 SHORT $LN198@RecalcElem
$LL197@RecalcElem:

; 1146 :         if (--_Mysize() == 0) {

  00291	83 e8 01	 sub	 eax, 1
  00294	ba 00 00 00 00	 mov	 edx, 0
  00299	0f 44 ca	 cmove	 ecx, edx

; 1002 :         return _Mysize() == 0;

  0029c	85 c0		 test	 eax, eax

; 1475 :         while (!empty()) {

  0029e	75 f1		 jne	 SHORT $LL197@RecalcElem

; 1146 :         if (--_Mysize() == 0) {

  002a0	89 45 d0	 mov	 DWORD PTR _elementList$[ebp+16], eax
  002a3	89 4d cc	 mov	 DWORD PTR _elementList$[ebp+12], ecx
$LN198@RecalcElem:
; File C:\Program Files (x86)\Microsoft Visual Studio\2019\Community\VC\Tools\MSVC\14.29.30133\include\utility

; 602  :     _Ty _Old_val = static_cast<_Ty&&>(_Val);

  002a6	8b 45 c0	 mov	 eax, DWORD PTR _elementList$[ebp]
; File C:\Program Files (x86)\Microsoft Visual Studio\2019\Community\VC\Tools\MSVC\14.29.30133\include\xmemory

; 255  :         ::operator delete(_Ptr, _Bytes);

  002a9	6a 08		 push	 8
  002ab	50		 push	 eax
; File C:\Program Files (x86)\Microsoft Visual Studio\2019\Community\VC\Tools\MSVC\14.29.30133\include\deque

; 1490 :         _Mapsize() = 0;

  002ac	c7 45 c8 00 00
	00 00		 mov	 DWORD PTR _elementList$[ebp+8], 0

; 1491 :         _Map()     = _Mapptr();

  002b3	c7 45 c4 00 00
	00 00		 mov	 DWORD PTR _elementList$[ebp+4], 0
; File C:\Program Files (x86)\Microsoft Visual Studio\2019\Community\VC\Tools\MSVC\14.29.30133\include\utility

; 603  :     _Val         = static_cast<_Other&&>(_New_val);

  002ba	c7 45 c0 00 00
	00 00		 mov	 DWORD PTR _elementList$[ebp], 0
; File C:\Program Files (x86)\Microsoft Visual Studio\2019\Community\VC\Tools\MSVC\14.29.30133\include\xmemory

; 255  :         ::operator delete(_Ptr, _Bytes);

  002c1	e8 00 00 00 00	 call	 ??3@YAXPAXI@Z		; operator delete
  002c6	83 c4 08	 add	 esp, 8
; File D:\git\src\IBK\IBK_DRFN\ProjSrc\SrcChartEx\ChartAddIn\ChartAnalysisToolAddIn\AnalysisTool\MainToolImplementation.cpp

; 862  : }

  002c9	8b 4d f4	 mov	 ecx, DWORD PTR __$EHRec$[ebp]
  002cc	64 89 0d 00 00
	00 00		 mov	 DWORD PTR fs:0, ecx
  002d3	59		 pop	 ecx
  002d4	5f		 pop	 edi
  002d5	5e		 pop	 esi
  002d6	5b		 pop	 ebx
  002d7	8b e5		 mov	 esp, ebp
  002d9	5d		 pop	 ebp
  002da	c2 10 00	 ret	 16			; 00000010H
$LN299@RecalcElem:
_TEXT	ENDS
;	COMDAT text$x
text$x	SEGMENT
__unwindfunclet$?RecalcElementListXPoint@CMainToolImplementation@@QAEXHHHPAUIPacket133101@@@Z$0:
  00000	8d 4d c0	 lea	 ecx, DWORD PTR _elementList$[ebp]
  00003	e9 00 00 00 00	 jmp	 ??1?$CDequePointerList@VCElement@@@@QAE@XZ ; CDequePointerList<CElement>::~CDequePointerList<CElement>
__unwindfunclet$?RecalcElementListXPoint@CMainToolImplementation@@QAEXHHHPAUIPacket133101@@@Z$1:
  00008	8d 4d ec	 lea	 ecx, DWORD PTR _szPacketType$[ebp]
  0000b	e9 00 00 00 00	 jmp	 ??1ILPCSTR133101@@QAE@XZ ; ILPCSTR133101::~ILPCSTR133101
__unwindfunclet$?RecalcElementListXPoint@CMainToolImplementation@@QAEXHHHPAUIPacket133101@@@Z$2:
  00010	8d 4d a0	 lea	 ecx, DWORD PTR _elementPointList$2[ebp]
  00013	e9 00 00 00 00	 jmp	 ??1CElementPointList@@QAE@XZ
__unwindfunclet$?RecalcElementListXPoint@CMainToolImplementation@@QAEXHHHPAUIPacket133101@@@Z$3:
  00018	8b 4d 0c	 mov	 ecx, DWORD PTR $T4[ebp]
  0001b	ff 25 00 00 00
	00		 jmp	 DWORD PTR __imp_??1?$CStringT@DV?$StrTraitMFC_DLL@DV?$ChTraitsCRT@D@ATL@@@@@ATL@@QAE@XZ
  00021	cc		 int	 3
  00022	cc		 int	 3
  00023	cc		 int	 3
  00024	cc		 int	 3
  00025	cc		 int	 3
__ehhandler$?RecalcElementListXPoint@CMainToolImplementation@@QAEXHHHPAUIPacket133101@@@Z:
  00026	90		 npad	 1
  00027	90		 npad	 1
  00028	8b 54 24 08	 mov	 edx, DWORD PTR [esp+8]
  0002c	8d 42 0c	 lea	 eax, DWORD PTR [edx+12]
  0002f	8b 4a 9c	 mov	 ecx, DWORD PTR [edx-100]
  00032	33 c8		 xor	 ecx, eax
  00034	e8 00 00 00 00	 call	 @__security_check_cookie@4
  00039	b8 00 00 00 00	 mov	 eax, OFFSET __ehfuncinfo$?RecalcElementListXPoint@CMainToolImplementation@@QAEXHHHPAUIPacket133101@@@Z
  0003e	e9 00 00 00 00	 jmp	 ___CxxFrameHandler3
text$x	ENDS
?RecalcElementListXPoint@CMainToolImplementation@@QAEXHHHPAUIPacket133101@@@Z ENDP ; CMainToolImplementation::RecalcElementListXPoint
; Function compile flags: /Ogtp
; File D:\git\src\IBK\IBK_DRFN\ProjSrc\SrcChartEx\ChartAddIn\ChartAnalysisToolAddIn\AnalysisTool\MainToolImplementation.cpp
; File D:\git\src\IBK\IBK_DRFN\ProjSrc\SrcChartEx\ChartAddIn\ChartAnalysisToolAddIn\Include_AddIn_133101\I133101\_IString.h
; File D:\git\src\IBK\IBK_DRFN\ProjSrc\SrcChartEx\ChartAddIn\ChartAnalysisToolAddIn\AnalysisTool\MainToolImplementation.cpp
; File D:\git\src\IBK\IBK_DRFN\ProjSrc\SrcChartEx\ChartAddIn\ChartAnalysisToolAddIn\Include_AddIn_133101\I133101\_IString.h
; File D:\git\src\IBK\IBK_DRFN\ProjSrc\SrcChartEx\ChartAddIn\ChartAnalysisToolAddIn\AnalysisTool\MainToolImplementation.cpp
; File D:\git\src\IBK\IBK_DRFN\ProjSrc\SrcChartEx\ChartAddIn\ChartAnalysisToolAddIn\Include_AddIn_133101\I133101\_IString.h
; File D:\git\src\IBK\IBK_DRFN\ProjSrc\SrcChartEx\ChartAddIn\ChartAnalysisToolAddIn\AnalysisTool\MainToolImplementation.cpp
; File D:\git\src\IBK\IBK_DRFN\ProjSrc\SrcChartEx\ChartAddIn\ChartAnalysisToolAddIn\Include_AddIn_133101\I133101\_IString.h
; File D:\git\src\IBK\IBK_DRFN\ProjSrc\SrcChartEx\ChartAddIn\ChartAnalysisToolAddIn\AnalysisTool\MainToolImplementation.cpp
; File D:\git\src\IBK\IBK_DRFN\ProjSrc\SrcChartEx\ChartAddIn\ChartAnalysisToolAddIn\Include_AddIn_133101\I133101\_IString.h
; File D:\git\src\IBK\IBK_DRFN\ProjSrc\SrcChartEx\ChartAddIn\ChartAnalysisToolAddIn\AnalysisTool\MainToolImplementation.cpp
; File D:\git\src\IBK\IBK_DRFN\ProjSrc\SrcChartEx\ChartAddIn\ChartAnalysisToolAddIn\Include_AddIn_133101\I133101\_IString.h
; File D:\git\src\IBK\IBK_DRFN\ProjSrc\SrcChartEx\ChartAddIn\ChartAnalysisToolAddIn\AnalysisTool\MainToolImplementation.cpp
;	COMDAT ?RecalcElementXPoint@CMainToolImplementation@@QAE_NPBDH@Z
_TEXT	SEGMENT
_szCurrentRQ$ = -48					; size = 8
_szMasterRQ$2 = -40					; size = 8
_nBlkColCount$1$ = -32					; size = 4
_this$1$ = -28						; size = 4
_strCurrentRQ$ = -24					; size = 4
_pPacket$1$ = -20					; size = 4
_pIChartManager$1$ = -16				; size = 4
__$EHRec$ = -12						; size = 12
tv89 = 8						; size = 4
_nBaseTimeDiff$1$ = 8					; size = 4
_szName$ = 8						; size = 4
_nBlkRowCount$1$ = 12					; size = 4
_nTimeDiff$ = 12					; size = 4
?RecalcElementXPoint@CMainToolImplementation@@QAE_NPBDH@Z PROC ; CMainToolImplementation::RecalcElementXPoint, COMDAT
; _this$ = ecx

; 800  : {

  00000	55		 push	 ebp
  00001	8b ec		 mov	 ebp, esp
  00003	6a ff		 push	 -1
  00005	68 00 00 00 00	 push	 __ehhandler$?RecalcElementXPoint@CMainToolImplementation@@QAE_NPBDH@Z
  0000a	64 a1 00 00 00
	00		 mov	 eax, DWORD PTR fs:0
  00010	50		 push	 eax
  00011	83 ec 24	 sub	 esp, 36			; 00000024H
  00014	53		 push	 ebx
  00015	56		 push	 esi
  00016	57		 push	 edi
  00017	a1 00 00 00 00	 mov	 eax, DWORD PTR ___security_cookie
  0001c	33 c5		 xor	 eax, ebp
  0001e	50		 push	 eax
  0001f	8d 45 f4	 lea	 eax, DWORD PTR __$EHRec$[ebp]
  00022	64 a3 00 00 00
	00		 mov	 DWORD PTR fs:0, eax
  00028	8b c1		 mov	 eax, ecx
  0002a	89 45 e4	 mov	 DWORD PTR _this$1$[ebp], eax

; 801  : 	IChartManager *pIChartManager = m_analysisData.GetMainBlock();

  0002d	8d 58 1c	 lea	 ebx, DWORD PTR [eax+28]
  00030	8b cb		 mov	 ecx, ebx
  00032	e8 00 00 00 00	 call	 ?GetMainBlock@CAnalysisData@@QBEPAUIChartManager133101@@XZ ; CAnalysisData::GetMainBlock
  00037	8b f8		 mov	 edi, eax

; 802  : 	ILPCSTR szCurrentRQ = pIChartManager->GetCurrentRQ();

  00039	8b cf		 mov	 ecx, edi
  0003b	89 7d f0	 mov	 DWORD PTR _pIChartManager$1$[ebp], edi
  0003e	8b 17		 mov	 edx, DWORD PTR [edi]
  00040	ff 92 34 01 00
	00		 call	 DWORD PTR [edx+308]
; File D:\git\src\IBK\IBK_DRFN\ProjSrc\SrcChartEx\ChartAddIn\ChartAnalysisToolAddIn\Include_AddIn_133101\I133101\_IString.h

; 39   : 		m_pIStrData = p_pIString;	// Do not AddRef(). Because It must be Return Value.

  00046	89 45 d4	 mov	 DWORD PTR _szCurrentRQ$[ebp+4], eax

; 40   : 		if( m_pIStrData) m_szData = m_pIStrData->GetData();

  00049	85 c0		 test	 eax, eax
  0004b	74 0b		 je	 SHORT $LN17@RecalcElem
  0004d	8b 10		 mov	 edx, DWORD PTR [eax]
  0004f	8b c8		 mov	 ecx, eax
  00051	ff 52 10	 call	 DWORD PTR [edx+16]
  00054	8b f0		 mov	 esi, eax
  00056	eb 02		 jmp	 SHORT $LN47@RecalcElem
$LN17@RecalcElem:

; 41   : 		else m_szData = NULL;

  00058	33 f6		 xor	 esi, esi
$LN47@RecalcElem:
; File D:\git\src\IBK\IBK_DRFN\ProjSrc\SrcChartEx\ChartAddIn\ChartAnalysisToolAddIn\AnalysisTool\MainToolImplementation.cpp

; 802  : 	ILPCSTR szCurrentRQ = pIChartManager->GetCurrentRQ();

  0005a	89 75 d0	 mov	 DWORD PTR _szCurrentRQ$[ebp], esi

; 803  : 	IPacket* pPacket= m_analysisData.GetDatePacket(szCurrentRQ);

  0005d	56		 push	 esi
  0005e	8b cb		 mov	 ecx, ebx
  00060	c7 45 fc 00 00
	00 00		 mov	 DWORD PTR __$EHRec$[ebp+8], 0
  00067	e8 00 00 00 00	 call	 ?GetDatePacket@CAnalysisData@@QBEPAUIPacket133101@@PBD@Z ; CAnalysisData::GetDatePacket
  0006c	8b d8		 mov	 ebx, eax

; 804  : 	CString strCurrentRQ(szCurrentRQ);

  0006e	8d 4d e8	 lea	 ecx, DWORD PTR _strCurrentRQ$[ebp]
  00071	56		 push	 esi
  00072	89 5d ec	 mov	 DWORD PTR _pPacket$1$[ebp], ebx
  00075	ff 15 00 00 00
	00		 call	 DWORD PTR __imp_??0?$CStringT@DV?$StrTraitMFC_DLL@DV?$ChTraitsCRT@D@ATL@@@@@ATL@@QAE@PBD@Z

; 805  : 
; 806  : 	int	nBaseTimeDiff;
; 807  : 	if( strlen(szName) == 0 )	nBaseTimeDiff = pPacket->GetOrgBaseTimeDifference();		//   

  0007b	8b 4d 08	 mov	 ecx, DWORD PTR _szName$[ebp]
  0007e	c6 45 fc 01	 mov	 BYTE PTR __$EHRec$[ebp+8], 1
  00082	8d 51 01	 lea	 edx, DWORD PTR [ecx+1]
$LL44@RecalcElem:
  00085	8a 01		 mov	 al, BYTE PTR [ecx]
  00087	41		 inc	 ecx
  00088	84 c0		 test	 al, al
  0008a	75 f9		 jne	 SHORT $LL44@RecalcElem
  0008c	2b ca		 sub	 ecx, edx
  0008e	75 09		 jne	 SHORT $LN8@RecalcElem
  00090	8b 03		 mov	 eax, DWORD PTR [ebx]
  00092	8b cb		 mov	 ecx, ebx
  00094	ff 50 64	 call	 DWORD PTR [eax+100]
  00097	eb 03		 jmp	 SHORT $LN48@RecalcElem
$LN8@RecalcElem:

; 808  : 	else						nBaseTimeDiff = nTimeDiff;

  00099	8b 45 0c	 mov	 eax, DWORD PTR _nTimeDiff$[ebp]
$LN48@RecalcElem:

; 809  : 
; 810  : 	int nBlkColCount = pIChartManager->GetColumnCount();

  0009c	89 45 08	 mov	 DWORD PTR _nBaseTimeDiff$1$[ebp], eax
  0009f	8b cf		 mov	 ecx, edi
  000a1	8b 07		 mov	 eax, DWORD PTR [edi]
  000a3	ff 50 20	 call	 DWORD PTR [eax+32]

; 811  : 	int nBlkRowCount;
; 812  : 	for( int col = 0; col < nBlkColCount; col++ )

  000a6	33 db		 xor	 ebx, ebx
  000a8	89 45 e0	 mov	 DWORD PTR _nBlkColCount$1$[ebp], eax
  000ab	85 c0		 test	 eax, eax
  000ad	0f 8e 8f 00 00
	00		 jle	 $LN3@RecalcElem
$LL4@RecalcElem:

; 813  : 	{
; 814  : 		nBlkRowCount = pIChartManager->GetRowCountInColumn(col);

  000b3	8b 17		 mov	 edx, DWORD PTR [edi]
  000b5	8b cf		 mov	 ecx, edi
  000b7	53		 push	 ebx
  000b8	ff 52 24	 call	 DWORD PTR [edx+36]

; 815  : 		for( int row = 0; row < nBlkRowCount; row++ )

  000bb	33 f6		 xor	 esi, esi
  000bd	89 45 0c	 mov	 DWORD PTR _nBlkRowCount$1$[ebp], eax
  000c0	85 c0		 test	 eax, eax
  000c2	7e 74		 jle	 SHORT $LN2@RecalcElem
$LL7@RecalcElem:

; 817  : 			ILPCSTR szMasterRQ = pIChartManager->GetMainRQofBlock(row, col);

  000c4	8b 17		 mov	 edx, DWORD PTR [edi]
  000c6	8b cf		 mov	 ecx, edi
  000c8	53		 push	 ebx
  000c9	56		 push	 esi
  000ca	ff 92 30 01 00
	00		 call	 DWORD PTR [edx+304]
; File D:\git\src\IBK\IBK_DRFN\ProjSrc\SrcChartEx\ChartAddIn\ChartAnalysisToolAddIn\Include_AddIn_133101\I133101\_IString.h

; 39   : 		m_pIStrData = p_pIString;	// Do not AddRef(). Because It must be Return Value.

  000d0	8b f8		 mov	 edi, eax
  000d2	89 7d dc	 mov	 DWORD PTR _szMasterRQ$2[ebp+4], edi

; 40   : 		if( m_pIStrData) m_szData = m_pIStrData->GetData();

  000d5	85 ff		 test	 edi, edi
  000d7	74 09		 je	 SHORT $LN21@RecalcElem
  000d9	8b 17		 mov	 edx, DWORD PTR [edi]
  000db	8b cf		 mov	 ecx, edi
  000dd	ff 52 10	 call	 DWORD PTR [edx+16]
  000e0	eb 02		 jmp	 SHORT $LN49@RecalcElem
$LN21@RecalcElem:

; 41   : 		else m_szData = NULL;

  000e2	33 c0		 xor	 eax, eax
$LN49@RecalcElem:
; File D:\git\src\IBK\IBK_DRFN\ProjSrc\SrcChartEx\ChartAddIn\ChartAnalysisToolAddIn\AnalysisTool\MainToolImplementation.cpp

; 817  : 			ILPCSTR szMasterRQ = pIChartManager->GetMainRQofBlock(row, col);

  000e4	89 45 d8	 mov	 DWORD PTR _szMasterRQ$2[ebp], eax

; 818  : 			if( strCurrentRQ.Compare(szMasterRQ) )		continue;

  000e7	50		 push	 eax
  000e8	8d 4d e8	 lea	 ecx, DWORD PTR _strCurrentRQ$[ebp]
  000eb	c6 45 fc 02	 mov	 BYTE PTR __$EHRec$[ebp+8], 2
  000ef	ff 15 00 00 00
	00		 call	 DWORD PTR __imp_?Compare@?$CStringT@DV?$StrTraitMFC_DLL@DV?$ChTraitsCRT@D@ATL@@@@@ATL@@QBEHPBD@Z
  000f5	85 c0		 test	 eax, eax
  000f7	74 06		 je	 SHORT $LN10@RecalcElem
; File D:\git\src\IBK\IBK_DRFN\ProjSrc\SrcChartEx\ChartAddIn\ChartAnalysisToolAddIn\Include_AddIn_133101\I133101\_IString.h

; 44   : 	{

  000f9	c6 45 fc 03	 mov	 BYTE PTR __$EHRec$[ebp+8], 3
  000fd	eb 14		 jmp	 SHORT $LN51@RecalcElem
$LN10@RecalcElem:
; File D:\git\src\IBK\IBK_DRFN\ProjSrc\SrcChartEx\ChartAddIn\ChartAnalysisToolAddIn\AnalysisTool\MainToolImplementation.cpp

; 820  : 			RecalcElementListXPoint(row, col, nBaseTimeDiff, pPacket);

  000ff	ff 75 ec	 push	 DWORD PTR _pPacket$1$[ebp]
  00102	8b 4d e4	 mov	 ecx, DWORD PTR _this$1$[ebp]
  00105	ff 75 08	 push	 DWORD PTR _nBaseTimeDiff$1$[ebp]
  00108	53		 push	 ebx
  00109	56		 push	 esi
  0010a	e8 00 00 00 00	 call	 ?RecalcElementListXPoint@CMainToolImplementation@@QAEXHHHPAUIPacket133101@@@Z ; CMainToolImplementation::RecalcElementListXPoint
; File D:\git\src\IBK\IBK_DRFN\ProjSrc\SrcChartEx\ChartAddIn\ChartAnalysisToolAddIn\Include_AddIn_133101\I133101\_IString.h

; 44   : 	{

  0010f	c6 45 fc 04	 mov	 BYTE PTR __$EHRec$[ebp+8], 4
$LN51@RecalcElem:

; 51   : 	}

  00113	85 ff		 test	 edi, edi
  00115	74 14		 je	 SHORT $LN29@RecalcElem
  00117	8b 07		 mov	 eax, DWORD PTR [edi]
  00119	57		 push	 edi
  0011a	ff 50 08	 call	 DWORD PTR [eax+8]
  0011d	c7 45 d8 00 00
	00 00		 mov	 DWORD PTR _szMasterRQ$2[ebp], 0
  00124	c7 45 dc 00 00
	00 00		 mov	 DWORD PTR _szMasterRQ$2[ebp+4], 0
$LN29@RecalcElem:
; File D:\git\src\IBK\IBK_DRFN\ProjSrc\SrcChartEx\ChartAddIn\ChartAnalysisToolAddIn\AnalysisTool\MainToolImplementation.cpp

; 815  : 		for( int row = 0; row < nBlkRowCount; row++ )

  0012b	8b 7d f0	 mov	 edi, DWORD PTR _pIChartManager$1$[ebp]
  0012e	46		 inc	 esi
; File D:\git\src\IBK\IBK_DRFN\ProjSrc\SrcChartEx\ChartAddIn\ChartAnalysisToolAddIn\Include_AddIn_133101\I133101\_IString.h

; 51   : 	}

  0012f	c6 45 fc 01	 mov	 BYTE PTR __$EHRec$[ebp+8], 1
; File D:\git\src\IBK\IBK_DRFN\ProjSrc\SrcChartEx\ChartAddIn\ChartAnalysisToolAddIn\AnalysisTool\MainToolImplementation.cpp

; 815  : 		for( int row = 0; row < nBlkRowCount; row++ )

  00133	3b 75 0c	 cmp	 esi, DWORD PTR _nBlkRowCount$1$[ebp]
  00136	7c 8c		 jl	 SHORT $LL7@RecalcElem
$LN2@RecalcElem:

; 811  : 	int nBlkRowCount;
; 812  : 	for( int col = 0; col < nBlkColCount; col++ )

  00138	43		 inc	 ebx
  00139	3b 5d e0	 cmp	 ebx, DWORD PTR _nBlkColCount$1$[ebp]
  0013c	0f 8c 71 ff ff
	ff		 jl	 $LL4@RecalcElem
$LN3@RecalcElem:

; 821  : 		}
; 822  : 	}
; 823  : 
; 824  : 	if( pPacket) pPacket->Release();

  00142	8b 4d ec	 mov	 ecx, DWORD PTR _pPacket$1$[ebp]
  00145	85 c9		 test	 ecx, ecx
  00147	74 06		 je	 SHORT $LN11@RecalcElem
  00149	8b 01		 mov	 eax, DWORD PTR [ecx]
  0014b	51		 push	 ecx
  0014c	ff 50 08	 call	 DWORD PTR [eax+8]
$LN11@RecalcElem:

; 825  : 	pIChartManager->Release();

  0014f	8b 07		 mov	 eax, DWORD PTR [edi]
  00151	57		 push	 edi
  00152	ff 50 08	 call	 DWORD PTR [eax+8]

; 826  : 
; 827  : 	return true;

  00155	8d 4d e8	 lea	 ecx, DWORD PTR _strCurrentRQ$[ebp]
  00158	ff 15 00 00 00
	00		 call	 DWORD PTR __imp_??1?$CStringT@DV?$StrTraitMFC_DLL@DV?$ChTraitsCRT@D@ATL@@@@@ATL@@QAE@XZ
; File D:\git\src\IBK\IBK_DRFN\ProjSrc\SrcChartEx\ChartAddIn\ChartAnalysisToolAddIn\Include_AddIn_133101\I133101\_IString.h

; 45   : 		if( m_pIStrData)

  0015e	8b 4d d4	 mov	 ecx, DWORD PTR _szCurrentRQ$[ebp+4]
  00161	c7 45 fc 05 00
	00 00		 mov	 DWORD PTR __$EHRec$[ebp+8], 5
  00168	85 c9		 test	 ecx, ecx
  0016a	74 06		 je	 SHORT $LN45@RecalcElem

; 46   : 		{
; 47   : 			m_pIStrData->Release();

  0016c	8b 01		 mov	 eax, DWORD PTR [ecx]
  0016e	51		 push	 ecx
  0016f	ff 50 08	 call	 DWORD PTR [eax+8]
$LN45@RecalcElem:
; File D:\git\src\IBK\IBK_DRFN\ProjSrc\SrcChartEx\ChartAddIn\ChartAnalysisToolAddIn\AnalysisTool\MainToolImplementation.cpp

; 828  : }

  00172	b0 01		 mov	 al, 1
  00174	8b 4d f4	 mov	 ecx, DWORD PTR __$EHRec$[ebp]
  00177	64 89 0d 00 00
	00 00		 mov	 DWORD PTR fs:0, ecx
  0017e	59		 pop	 ecx
  0017f	5f		 pop	 edi
  00180	5e		 pop	 esi
  00181	5b		 pop	 ebx
  00182	8b e5		 mov	 esp, ebp
  00184	5d		 pop	 ebp
  00185	c2 08 00	 ret	 8
_TEXT	ENDS
;	COMDAT text$x
text$x	SEGMENT
__unwindfunclet$?RecalcElementXPoint@CMainToolImplementation@@QAE_NPBDH@Z$0:
  00000	8d 4d d0	 lea	 ecx, DWORD PTR _szCurrentRQ$[ebp]
  00003	e9 00 00 00 00	 jmp	 ??1ILPCSTR133101@@QAE@XZ ; ILPCSTR133101::~ILPCSTR133101
__unwindfunclet$?RecalcElementXPoint@CMainToolImplementation@@QAE_NPBDH@Z$1:
  00008	8d 4d e8	 lea	 ecx, DWORD PTR _strCurrentRQ$[ebp]
  0000b	ff 25 00 00 00
	00		 jmp	 DWORD PTR __imp_??1?$CStringT@DV?$StrTraitMFC_DLL@DV?$ChTraitsCRT@D@ATL@@@@@ATL@@QAE@XZ
__unwindfunclet$?RecalcElementXPoint@CMainToolImplementation@@QAE_NPBDH@Z$2:
  00011	8d 4d d8	 lea	 ecx, DWORD PTR _szMasterRQ$2[ebp]
  00014	e9 00 00 00 00	 jmp	 ??1ILPCSTR133101@@QAE@XZ ; ILPCSTR133101::~ILPCSTR133101
  00019	cc		 int	 3
  0001a	cc		 int	 3
  0001b	cc		 int	 3
  0001c	cc		 int	 3
  0001d	cc		 int	 3
__ehhandler$?RecalcElementXPoint@CMainToolImplementation@@QAE_NPBDH@Z:
  0001e	90		 npad	 1
  0001f	90		 npad	 1
  00020	8b 54 24 08	 mov	 edx, DWORD PTR [esp+8]
  00024	8d 42 0c	 lea	 eax, DWORD PTR [edx+12]
  00027	8b 4a cc	 mov	 ecx, DWORD PTR [edx-52]
  0002a	33 c8		 xor	 ecx, eax
  0002c	e8 00 00 00 00	 call	 @__security_check_cookie@4
  00031	b8 00 00 00 00	 mov	 eax, OFFSET __ehfuncinfo$?RecalcElementXPoint@CMainToolImplementation@@QAE_NPBDH@Z
  00036	e9 00 00 00 00	 jmp	 ___CxxFrameHandler3
text$x	ENDS
?RecalcElementXPoint@CMainToolImplementation@@QAE_NPBDH@Z ENDP ; CMainToolImplementation::RecalcElementXPoint
; Function compile flags: /Ogtp
; File D:\git\src\IBK\IBK_DRFN\ProjSrc\SrcChartEx\ChartAddIn\ChartAnalysisToolAddIn\AnalysisTool\MainToolImplementation.cpp
;	COMDAT ?DoesAction@CMainToolImplementation@@QBE_NXZ
_TEXT	SEGMENT
?DoesAction@CMainToolImplementation@@QBE_NXZ PROC	; CMainToolImplementation::DoesAction, COMDAT
; _this$ = ecx

; 654  : 	return (m_pTool != NULL && m_pTool->DoesProcessStarting());

  00000	8b 49 18	 mov	 ecx, DWORD PTR [ecx+24]
  00003	85 c9		 test	 ecx, ecx
  00005	74 0c		 je	 SHORT $LN3@DoesAction
  00007	e8 00 00 00 00	 call	 ?DoesProcessStarting@CTool@@QBE_NXZ ; CTool::DoesProcessStarting
  0000c	84 c0		 test	 al, al
  0000e	74 03		 je	 SHORT $LN3@DoesAction
  00010	b0 01		 mov	 al, 1

; 655  : }

  00012	c3		 ret	 0
$LN3@DoesAction:

; 654  : 	return (m_pTool != NULL && m_pTool->DoesProcessStarting());

  00013	32 c0		 xor	 al, al

; 655  : }

  00015	c3		 ret	 0
?DoesAction@CMainToolImplementation@@QBE_NXZ ENDP	; CMainToolImplementation::DoesAction
_TEXT	ENDS
; Function compile flags: /Ogtp
; File D:\git\src\IBK\IBK_DRFN\ProjSrc\SrcChartEx\ChartAddIn\ChartAnalysisToolAddIn\AnalysisTool\MainToolImplementation.cpp
;	COMDAT ?SetElementDelete@CMainToolImplementation@@AAEXXZ
_TEXT	SEGMENT
?SetElementDelete@CMainToolImplementation@@AAEXXZ PROC	; CMainToolImplementation::SetElementDelete, COMDAT
; _this$ = ecx

; 701  : {

  00000	56		 push	 esi
  00001	8b f1		 mov	 esi, ecx

; 702  : 	m_toolSingleton.InitializeAllTool();

  00003	8d 8e 98 00 00
	00		 lea	 ecx, DWORD PTR [esi+152]
  00009	e8 00 00 00 00	 call	 ?InitializeAllTool@CToolSingleton@@QAEXXZ ; CToolSingleton::InitializeAllTool

; 703  : 	m_pSelectedElement = NULL;
; 704  : 	m_analysisData.InvalidateAndSendMessageToParent(CCursorShape::OBJECT_NONE);

  0000e	6a 00		 push	 0
  00010	8d 4e 1c	 lea	 ecx, DWORD PTR [esi+28]
  00013	c7 86 94 00 00
	00 00 00 00 00	 mov	 DWORD PTR [esi+148], 0
  0001d	e8 00 00 00 00	 call	 ?InvalidateAndSendMessageToParent@CAnalysisData@@QAEXW4CHARTOBJECT@CCursorShape@@@Z ; CAnalysisData::InvalidateAndSendMessageToParent
  00022	5e		 pop	 esi

; 705  : }

  00023	c3		 ret	 0
?SetElementDelete@CMainToolImplementation@@AAEXXZ ENDP	; CMainToolImplementation::SetElementDelete
_TEXT	ENDS
; Function compile flags: /Ogtp
; File D:\git\src\IBK\IBK_DRFN\ProjSrc\SrcChartEx\ChartAddIn\ChartAnalysisToolAddIn\AnalysisTool\MainToolImplementation.cpp
;	COMDAT ?GetRButtonMenuType@CMainToolImplementation@@AAE?AW4MENUTYPE@CMenuType@@ABVCPoint@@@Z
_TEXT	SEGMENT
_point$ = 8						; size = 4
?GetRButtonMenuType@CMainToolImplementation@@AAE?AW4MENUTYPE@CMenuType@@ABVCPoint@@@Z PROC ; CMainToolImplementation::GetRButtonMenuType, COMDAT
; _this$ = ecx

; 691  : {

  00000	55		 push	 ebp
  00001	8b ec		 mov	 ebp, esp

; 692  : 	if(m_pSelectedElement == NULL || !m_analysisData.PointInGraphRegion(point))

  00003	83 b9 94 00 00
	00 00		 cmp	 DWORD PTR [ecx+148], 0
  0000a	56		 push	 esi
  0000b	74 24		 je	 SHORT $LN3@GetRButton
  0000d	ff 75 08	 push	 DWORD PTR _point$[ebp]
  00010	8d 71 1c	 lea	 esi, DWORD PTR [ecx+28]
  00013	8b ce		 mov	 ecx, esi
  00015	e8 00 00 00 00	 call	 ?PointInGraphRegion@CAnalysisData@@QBE_NABVCPoint@@@Z ; CAnalysisData::PointInGraphRegion
  0001a	84 c0		 test	 al, al
  0001c	74 13		 je	 SHORT $LN3@GetRButton

; 694  : 
; 695  : 	m_analysisData.SendMessageToParent(CCursorShape::OBJECT_NONE);

  0001e	6a 00		 push	 0
  00020	8b ce		 mov	 ecx, esi
  00022	e8 00 00 00 00	 call	 ?SendMessageToParent@CAnalysisData@@QAEXW4CHARTOBJECT@CCursorShape@@@Z ; CAnalysisData::SendMessageToParent

; 696  : 	return CMenuType::MENU_ANALYSTOOL;

  00027	b8 06 00 00 00	 mov	 eax, 6
  0002c	5e		 pop	 esi

; 697  : }

  0002d	5d		 pop	 ebp
  0002e	c2 04 00	 ret	 4
$LN3@GetRButton:

; 693  : 		return CMenuType::MENU_NONE;

  00031	83 c8 ff	 or	 eax, -1
  00034	5e		 pop	 esi

; 697  : }

  00035	5d		 pop	 ebp
  00036	c2 04 00	 ret	 4
?GetRButtonMenuType@CMainToolImplementation@@AAE?AW4MENUTYPE@CMenuType@@ABVCPoint@@@Z ENDP ; CMainToolImplementation::GetRButtonMenuType
_TEXT	ENDS
; Function compile flags: /Ogtp
; File D:\git\src\IBK\IBK_DRFN\ProjSrc\SrcChartEx\ChartAddIn\ChartAnalysisToolAddIn\AnalysisTool\MainToolImplementation.cpp
; File C:\Program Files (x86)\Microsoft Visual Studio\2019\Community\VC\Tools\MSVC\14.29.30133\atlmfc\include\afxtempl.h
; File D:\git\src\IBK\IBK_DRFN\ProjSrc\SrcChartEx\ChartAddIn\ChartAnalysisToolAddIn\AnalysisTool\MainToolImplementation.cpp
; File C:\Program Files (x86)\Microsoft Visual Studio\2019\Community\VC\Tools\MSVC\14.29.30133\atlmfc\include\afxtempl.h
; File C:\Program Files (x86)\Microsoft Visual Studio\2019\Community\VC\Tools\MSVC\14.29.30133\atlmfc\include\atltypes.h
; File C:\Program Files (x86)\Microsoft Visual Studio\2019\Community\VC\Tools\MSVC\14.29.30133\atlmfc\include\afxtempl.h
; File D:\git\src\IBK\IBK_DRFN\ProjSrc\SrcChartEx\ChartAddIn\ChartAnalysisToolAddIn\AnalysisTool\MainToolImplementation.cpp
; File C:\Program Files (x86)\Microsoft Visual Studio\2019\Community\VC\Tools\MSVC\14.29.30133\atlmfc\include\afxtempl.h
; File D:\git\src\IBK\IBK_DRFN\ProjSrc\SrcChartEx\ChartAddIn\ChartAnalysisToolAddIn\AnalysisTool\MainToolImplementation.cpp
;	COMDAT ?GetData@CMainToolImplementation@@ABE_NABVCElementPointList@@AAV?$CList@VCPoint@@AAV1@@@AAN@Z
_TEXT	SEGMENT
tv358 = -16						; size = 8
tv354 = -8						; size = 8
_elementPointList$ = 8					; size = 4
_elementData$ = 12					; size = 4
_pPrev$1$ = 16						; size = 4
_dVertDataType$ = 16					; size = 4
?GetData@CMainToolImplementation@@ABE_NABVCElementPointList@@AAV?$CList@VCPoint@@AAV1@@@AAN@Z PROC ; CMainToolImplementation::GetData, COMDAT
; _this$ = ecx

; 672  : {

  00000	55		 push	 ebp
  00001	8b ec		 mov	 ebp, esp
  00003	83 ec 10	 sub	 esp, 16			; 00000010H
  00006	53		 push	 ebx

; 673  : 	if(elementPointList.GetCount() <= 0)

  00007	8b 5d 08	 mov	 ebx, DWORD PTR _elementPointList$[ebp]
  0000a	8b cb		 mov	 ecx, ebx
  0000c	e8 00 00 00 00	 call	 ?GetCount@CElementPointList@@QBEHXZ ; CElementPointList::GetCount
  00011	85 c0		 test	 eax, eax
  00013	7f 09		 jg	 SHORT $LN5@GetData

; 674  : 		return false;

  00015	32 c0		 xor	 al, al
  00017	5b		 pop	 ebx

; 688  : }

  00018	8b e5		 mov	 esp, ebp
  0001a	5d		 pop	 ebp
  0001b	c2 0c 00	 ret	 12			; 0000000cH
$LN5@GetData:
  0001e	56		 push	 esi
  0001f	57		 push	 edi

; 675  : 
; 676  : 	dVertDataType = elementPointList.GetVertDataType();

  00020	8b cb		 mov	 ecx, ebx
  00022	e8 00 00 00 00	 call	 ?GetVertDataType@CElementPointList@@QBENXZ ; CElementPointList::GetVertDataType
  00027	8b 45 10	 mov	 eax, DWORD PTR _dVertDataType$[ebp]

; 678  : 	for(int nIndex = 0; nIndex < elementPointList.GetCount(); nIndex++)

  0002a	8b cb		 mov	 ecx, ebx
  0002c	33 ff		 xor	 edi, edi
  0002e	dd 18		 fstp	 QWORD PTR [eax]
  00030	e8 00 00 00 00	 call	 ?GetCount@CElementPointList@@QBEHXZ ; CElementPointList::GetCount
  00035	8b 75 0c	 mov	 esi, DWORD PTR _elementData$[ebp]
  00038	85 c0		 test	 eax, eax
  0003a	0f 8e c1 00 00
	00		 jle	 $LN37@GetData
$LL4@GetData:

; 679  : 	{
; 680  : 		CCoordinate* pCoordinate = elementPointList.GetAt(nIndex);

  00040	57		 push	 edi
  00041	8b cb		 mov	 ecx, ebx
  00043	e8 00 00 00 00	 call	 ?GetAt@CElementPointList@@QBEPAVCCoordinate@@H@Z ; CElementPointList::GetAt
  00048	8b d8		 mov	 ebx, eax

; 681  : 		if(pCoordinate == NULL)

  0004a	85 db		 test	 ebx, ebx
  0004c	0f 84 9c 00 00
	00		 je	 $LN2@GetData

; 683  : 		CPoint point(pCoordinate->GetX(), pCoordinate->GetY());

  00052	8b cb		 mov	 ecx, ebx
  00054	e8 00 00 00 00	 call	 ?GetY@CCoordinate@@QBENXZ ; CCoordinate::GetY
  00059	dd 5d f0	 fstp	 QWORD PTR tv358[ebp]
  0005c	8b cb		 mov	 ecx, ebx
  0005e	e8 00 00 00 00	 call	 ?GetX@CCoordinate@@QBENXZ ; CCoordinate::GetX
; File C:\Program Files (x86)\Microsoft Visual Studio\2019\Community\VC\Tools\MSVC\14.29.30133\atlmfc\include\afxtempl.h

; 902  : 	if (m_pNodeFree == NULL)

  00063	83 7e 10 00	 cmp	 DWORD PTR [esi+16], 0

; 968  : 	CNode* pNewNode = NewNode(m_pNodeTail, NULL);

  00067	8b 56 08	 mov	 edx, DWORD PTR [esi+8]
; File D:\git\src\IBK\IBK_DRFN\ProjSrc\SrcChartEx\ChartAddIn\ChartAnalysisToolAddIn\AnalysisTool\MainToolImplementation.cpp

; 683  : 		CPoint point(pCoordinate->GetX(), pCoordinate->GetY());

  0006a	dd 5d f8	 fstp	 QWORD PTR tv354[ebp]
  0006d	f2 0f 2c 5d f8	 cvttsd2si ebx, QWORD PTR tv354[ebp]
; File C:\Program Files (x86)\Microsoft Visual Studio\2019\Community\VC\Tools\MSVC\14.29.30133\atlmfc\include\afxtempl.h

; 968  : 	CNode* pNewNode = NewNode(m_pNodeTail, NULL);

  00072	89 55 10	 mov	 DWORD PTR _pPrev$1$[ebp], edx

; 902  : 	if (m_pNodeFree == NULL)

  00075	75 3c		 jne	 SHORT $LN20@GetData

; 903  : 	{
; 904  : 		// add another block
; 905  : 		CPlex* pNewBlock = CPlex::Create(m_pBlocks, m_nBlockSize,

  00077	6a 10		 push	 16			; 00000010H
  00079	ff 76 18	 push	 DWORD PTR [esi+24]
  0007c	8d 46 14	 lea	 eax, DWORD PTR [esi+20]
  0007f	50		 push	 eax
  00080	e8 00 00 00 00	 call	 ?Create@CPlex@@SGPAU1@AAPAU1@II@Z ; CPlex::Create

; 906  : 				 sizeof(CNode));
; 907  : 
; 908  : 		// chain them into free list
; 909  : 		CNode* pNode = (CNode*) pNewBlock->data();
; 910  : 		// free in reverse order to make it easier to debug
; 911  : 		pNode += m_nBlockSize - 1;

  00085	8b 56 18	 mov	 edx, DWORD PTR [esi+24]
  00088	83 c0 08	 add	 eax, 8
  0008b	8b ca		 mov	 ecx, edx
  0008d	c1 e1 04	 shl	 ecx, 4
  00090	83 c1 f0	 add	 ecx, -16		; fffffff0H
  00093	03 c8		 add	 ecx, eax

; 912  : 		for (INT_PTR i = m_nBlockSize-1; i >= 0; i--, pNode--)

  00095	83 c2 ff	 add	 edx, -1
  00098	78 16		 js	 SHORT $LN38@GetData
  0009a	66 0f 1f 44 00
	00		 npad	 6
$LL17@GetData:

; 913  : 		{
; 914  : 			pNode->pNext = m_pNodeFree;

  000a0	8b 46 10	 mov	 eax, DWORD PTR [esi+16]
  000a3	89 01		 mov	 DWORD PTR [ecx], eax

; 915  : 			m_pNodeFree = pNode;

  000a5	89 4e 10	 mov	 DWORD PTR [esi+16], ecx
  000a8	83 e9 10	 sub	 ecx, 16			; 00000010H
  000ab	83 ea 01	 sub	 edx, 1
  000ae	79 f0		 jns	 SHORT $LL17@GetData
$LN38@GetData:

; 918  : 	ENSURE(m_pNodeFree != NULL);  // we must have something

  000b0	8b 55 10	 mov	 edx, DWORD PTR _pPrev$1$[ebp]
$LN20@GetData:
  000b3	8b 4e 10	 mov	 ecx, DWORD PTR [esi+16]
  000b6	85 c9		 test	 ecx, ecx
  000b8	74 57		 je	 SHORT $LN30@GetData

; 919  : 
; 920  : 	CList::CNode* pNode = m_pNodeFree;
; 921  : 	m_pNodeFree = m_pNodeFree->pNext;

  000ba	8b 01		 mov	 eax, DWORD PTR [ecx]
  000bc	89 46 10	 mov	 DWORD PTR [esi+16], eax

; 969  : 	pNewNode->data = newElement;

  000bf	f2 0f 2c 45 f0	 cvttsd2si eax, QWORD PTR tv358[ebp]

; 922  : 	pNode->pPrev = pPrev;

  000c4	89 51 04	 mov	 DWORD PTR [ecx+4], edx

; 923  : 	pNode->pNext = pNext;

  000c7	c7 01 00 00 00
	00		 mov	 DWORD PTR [ecx], 0

; 924  : 	m_nCount++;

  000cd	ff 46 0c	 inc	 DWORD PTR [esi+12]
; File C:\Program Files (x86)\Microsoft Visual Studio\2019\Community\VC\Tools\MSVC\14.29.30133\atlmfc\include\atltypes.h

; 401  : 	y = 0;

  000d0	c7 41 0c 00 00
	00 00		 mov	 DWORD PTR [ecx+12], 0
; File C:\Program Files (x86)\Microsoft Visual Studio\2019\Community\VC\Tools\MSVC\14.29.30133\atlmfc\include\afxtempl.h

; 969  : 	pNewNode->data = newElement;

  000d7	89 59 08	 mov	 DWORD PTR [ecx+8], ebx
  000da	89 41 0c	 mov	 DWORD PTR [ecx+12], eax

; 970  : 	if (m_pNodeTail != NULL)

  000dd	8b 46 08	 mov	 eax, DWORD PTR [esi+8]
  000e0	85 c0		 test	 eax, eax
  000e2	74 04		 je	 SHORT $LN11@GetData

; 971  : 		m_pNodeTail->pNext = pNewNode;

  000e4	89 08		 mov	 DWORD PTR [eax], ecx
  000e6	eb 03		 jmp	 SHORT $LN12@GetData
$LN11@GetData:

; 972  : 	else
; 973  : 		m_pNodeHead = pNewNode;

  000e8	89 4e 04	 mov	 DWORD PTR [esi+4], ecx
$LN12@GetData:

; 974  : 	m_pNodeTail = pNewNode;

  000eb	89 4e 08	 mov	 DWORD PTR [esi+8], ecx
$LN2@GetData:
; File D:\git\src\IBK\IBK_DRFN\ProjSrc\SrcChartEx\ChartAddIn\ChartAnalysisToolAddIn\AnalysisTool\MainToolImplementation.cpp

; 678  : 	for(int nIndex = 0; nIndex < elementPointList.GetCount(); nIndex++)

  000ee	8b 5d 08	 mov	 ebx, DWORD PTR _elementPointList$[ebp]
  000f1	47		 inc	 edi
  000f2	8b cb		 mov	 ecx, ebx
  000f4	e8 00 00 00 00	 call	 ?GetCount@CElementPointList@@QBEHXZ ; CElementPointList::GetCount
  000f9	3b f8		 cmp	 edi, eax
  000fb	0f 8c 3f ff ff
	ff		 jl	 $LL4@GetData
$LN37@GetData:

; 684  : 		elementData.AddTail(point);
; 685  : 	}
; 686  : 
; 687  : 	return (elementData.GetCount() > 0);

  00101	83 7e 0c 00	 cmp	 DWORD PTR [esi+12], 0
  00105	5f		 pop	 edi
  00106	5e		 pop	 esi
  00107	0f 9f c0	 setg	 al
  0010a	5b		 pop	 ebx

; 688  : }

  0010b	8b e5		 mov	 esp, ebp
  0010d	5d		 pop	 ebp
  0010e	c2 0c 00	 ret	 12			; 0000000cH
$LN30@GetData:
; File C:\Program Files (x86)\Microsoft Visual Studio\2019\Community\VC\Tools\MSVC\14.29.30133\atlmfc\include\afxtempl.h

; 918  : 	ENSURE(m_pNodeFree != NULL);  // we must have something

  00111	e8 00 00 00 00	 call	 ?AfxThrowInvalidArgException@@YGXXZ ; AfxThrowInvalidArgException
$LN39@GetData:
  00116	cc		 int	 3
?GetData@CMainToolImplementation@@ABE_NABVCElementPointList@@AAV?$CList@VCPoint@@AAV1@@@AAN@Z ENDP ; CMainToolImplementation::GetData
_TEXT	ENDS
; Function compile flags: /Ogtp
; File D:\git\src\IBK\IBK_DRFN\ProjSrc\SrcChartEx\ChartAddIn\ChartAnalysisToolAddIn\AnalysisTool\MainToolImplementation.cpp
;	COMDAT ?DoesCurrentMultiTool@CMainToolImplementation@@ABE_NXZ
_TEXT	SEGMENT
?DoesCurrentMultiTool@CMainToolImplementation@@ABE_NXZ PROC ; CMainToolImplementation::DoesCurrentMultiTool, COMDAT
; _this$ = ecx

; 660  : 	/*switch(m_analysisData.GetCurrentToolType())
; 661  : 	{
; 662  : 	case CAnalysis::EN_ANALYSIS_FIBO_TIME:		//  
; 663  : 	case CAnalysis::EN_ANALYSIS_GANN_GRID:		// 
; 664  : 		return false;
; 665  : 	}*/
; 666  : 
; 667  : 	return true;

  00000	b0 01		 mov	 al, 1

; 668  : }

  00002	c3		 ret	 0
?DoesCurrentMultiTool@CMainToolImplementation@@ABE_NXZ ENDP ; CMainToolImplementation::DoesCurrentMultiTool
_TEXT	ENDS
; Function compile flags: /Ogtp
; File D:\git\src\IBK\IBK_DRFN\ProjSrc\SrcChartEx\ChartAddIn\ChartAnalysisToolAddIn\AnalysisTool\MainToolImplementation.cpp
;	COMDAT ?DoesCurrentSelectTool@CMainToolImplementation@@ABE_NXZ
_TEXT	SEGMENT
?DoesCurrentSelectTool@CMainToolImplementation@@ABE_NXZ PROC ; CMainToolImplementation::DoesCurrentSelectTool, COMDAT
; _this$ = ecx

; 648  : 	return (m_analysisData.GetCurrentToolType() == CAnalysis::EN_ANALYSIS_SELECTION);

  00000	83 c1 1c	 add	 ecx, 28			; 0000001cH
  00003	e8 00 00 00 00	 call	 ?GetCurrentToolType@CAnalysisData@@QBE?AW4TOOLTYPE@CAnalysis@@XZ ; CAnalysisData::GetCurrentToolType
  00008	85 c0		 test	 eax, eax
  0000a	0f 94 c0	 sete	 al

; 649  : }

  0000d	c3		 ret	 0
?DoesCurrentSelectTool@CMainToolImplementation@@ABE_NXZ ENDP ; CMainToolImplementation::DoesCurrentSelectTool
_TEXT	ENDS
; Function compile flags: /Ogtp
; File D:\git\src\IBK\IBK_DRFN\ProjSrc\SrcChartEx\ChartAddIn\ChartAnalysisToolAddIn\AnalysisTool\MainToolImplementation.cpp
;	COMDAT ?Initialize@CMainToolImplementation@@AAEXXZ
_TEXT	SEGMENT
?Initialize@CMainToolImplementation@@AAEXXZ PROC	; CMainToolImplementation::Initialize, COMDAT
; _this$ = ecx

; 637  : {

  00000	56		 push	 esi
  00001	8b f1		 mov	 esi, ecx

; 638  : 	m_toolSingleton.InitializeAllTool();

  00003	8d 8e 98 00 00
	00		 lea	 ecx, DWORD PTR [esi+152]
  00009	e8 00 00 00 00	 call	 ?InitializeAllTool@CToolSingleton@@QAEXXZ ; CToolSingleton::InitializeAllTool

; 639  : 	m_analysisData.SetCurrentToolType(CAnalysis::EN_ANALYSIS_NONE);

  0000e	6a ff		 push	 -1
  00010	8d 4e 1c	 lea	 ecx, DWORD PTR [esi+28]
  00013	e8 00 00 00 00	 call	 ?SetCurrentToolType@CAnalysisData@@QAEXW4TOOLTYPE@CAnalysis@@@Z ; CAnalysisData::SetCurrentToolType

; 640  : 	m_pTool = NULL;

  00018	c7 46 18 00 00
	00 00		 mov	 DWORD PTR [esi+24], 0

; 641  : 	m_pSelectedElement = NULL;

  0001f	c7 86 94 00 00
	00 00 00 00 00	 mov	 DWORD PTR [esi+148], 0
  00029	5e		 pop	 esi

; 642  : }

  0002a	c3		 ret	 0
?Initialize@CMainToolImplementation@@AAEXXZ ENDP	; CMainToolImplementation::Initialize
_TEXT	ENDS
; Function compile flags: /Ogtp
; File D:\git\src\IBK\IBK_DRFN\ProjSrc\SrcChartEx\ChartAddIn\ChartAnalysisToolAddIn\AnalysisTool\MainToolImplementation.cpp
;	COMDAT ?RedoElement@CMainToolImplementation@@QAEHJ@Z
_TEXT	SEGMENT
_lRedoID$ = 8						; size = 4
?RedoElement@CMainToolImplementation@@QAEHJ@Z PROC	; CMainToolImplementation::RedoElement, COMDAT
; _this$ = ecx

; 793  : {

  00000	55		 push	 ebp
  00001	8b ec		 mov	 ebp, esp

; 794  : 	return m_analysisData.GetUndoRedoManager().RedoElement(lRedoID);

  00003	ff 75 08	 push	 DWORD PTR _lRedoID$[ebp]
  00006	83 c1 1c	 add	 ecx, 28			; 0000001cH
  00009	e8 00 00 00 00	 call	 ?GetUndoRedoManager@CAnalysisData@@QAEAAVCUndoRedoManager@@XZ ; CAnalysisData::GetUndoRedoManager
  0000e	8b c8		 mov	 ecx, eax
  00010	e8 00 00 00 00	 call	 ?RedoElement@CUndoRedoManager@@QAEHJ@Z ; CUndoRedoManager::RedoElement

; 795  : }

  00015	5d		 pop	 ebp
  00016	c2 04 00	 ret	 4
?RedoElement@CMainToolImplementation@@QAEHJ@Z ENDP	; CMainToolImplementation::RedoElement
_TEXT	ENDS
; Function compile flags: /Ogtp
; File D:\git\src\IBK\IBK_DRFN\ProjSrc\SrcChartEx\ChartAddIn\ChartAnalysisToolAddIn\AnalysisTool\MainToolImplementation.cpp
;	COMDAT ?UndoElement@CMainToolImplementation@@QAEHJ@Z
_TEXT	SEGMENT
_lUndoID$ = 8						; size = 4
?UndoElement@CMainToolImplementation@@QAEHJ@Z PROC	; CMainToolImplementation::UndoElement, COMDAT
; _this$ = ecx

; 788  : {

  00000	55		 push	 ebp
  00001	8b ec		 mov	 ebp, esp

; 789  : 	return m_analysisData.GetUndoRedoManager().UndoElement(lUndoID);

  00003	ff 75 08	 push	 DWORD PTR _lUndoID$[ebp]
  00006	83 c1 1c	 add	 ecx, 28			; 0000001cH
  00009	e8 00 00 00 00	 call	 ?GetUndoRedoManager@CAnalysisData@@QAEAAVCUndoRedoManager@@XZ ; CAnalysisData::GetUndoRedoManager
  0000e	8b c8		 mov	 ecx, eax
  00010	e8 00 00 00 00	 call	 ?UndoElement@CUndoRedoManager@@QAEHJ@Z ; CUndoRedoManager::UndoElement

; 790  : }

  00015	5d		 pop	 ebp
  00016	c2 04 00	 ret	 4
?UndoElement@CMainToolImplementation@@QAEHJ@Z ENDP	; CMainToolImplementation::UndoElement
_TEXT	ENDS
; Function compile flags: /Ogtp
; File D:\git\src\IBK\IBK_DRFN\ProjSrc\SrcChartEx\ChartAddIn\ChartAnalysisToolAddIn\AnalysisTool\MainToolImplementation.cpp
;	COMDAT ?ChangeAllElementsColor@CMainToolImplementation@@QAEXABK0@Z
_TEXT	SEGMENT
_penColor$ = 8						; size = 4
_textColor$ = 12					; size = 4
?ChangeAllElementsColor@CMainToolImplementation@@QAEXABK0@Z PROC ; CMainToolImplementation::ChangeAllElementsColor, COMDAT
; _this$ = ecx

; 631  : {

  00000	55		 push	 ebp
  00001	8b ec		 mov	 ebp, esp

; 632  : 	m_analysisData.GetElementTree().ChangeAllElementsColor(penColor, textColor);

  00003	ff 75 0c	 push	 DWORD PTR _textColor$[ebp]
  00006	83 c1 1c	 add	 ecx, 28			; 0000001cH
  00009	ff 75 08	 push	 DWORD PTR _penColor$[ebp]
  0000c	e8 00 00 00 00	 call	 ?GetElementTree@CAnalysisData@@QAEAAVCElementTree@@XZ ; CAnalysisData::GetElementTree
  00011	8b c8		 mov	 ecx, eax
  00013	e8 00 00 00 00	 call	 ?ChangeAllElementsColor@CElementTree@@QAEXABK0@Z ; CElementTree::ChangeAllElementsColor

; 633  : }

  00018	5d		 pop	 ebp
  00019	c2 08 00	 ret	 8
?ChangeAllElementsColor@CMainToolImplementation@@QAEXABK0@Z ENDP ; CMainToolImplementation::ChangeAllElementsColor
_TEXT	ENDS
; Function compile flags: /Ogtp
; File D:\git\src\IBK\IBK_DRFN\ProjSrc\SrcChartEx\ChartAddIn\ChartAnalysisToolAddIn\AnalysisTool\MainToolImplementation.cpp
; File C:\Program Files (x86)\Microsoft Visual Studio\2019\Community\VC\Tools\MSVC\14.29.30133\include\xmemory
; File C:\Program Files (x86)\Microsoft Visual Studio\2019\Community\VC\Tools\MSVC\14.29.30133\include\deque
; File C:\Program Files (x86)\Microsoft Visual Studio\2019\Community\VC\Tools\MSVC\14.29.30133\include\xmemory
; File D:\git\src\IBK\IBK_DRFN\ProjSrc\SrcChartEx\ChartAddIn\ChartAnalysisToolAddIn\AnalysisTool\MainToolImplementation.cpp
; File D:\git\src\IBK\IBK_DRFN\ProjSrc\SrcChartEx\ChartAddIn\ChartAnalysisToolAddIn\Include_Chart\DequeList.h
; File C:\Program Files (x86)\Microsoft Visual Studio\2019\Community\VC\Tools\MSVC\14.29.30133\include\deque
; File D:\git\src\IBK\IBK_DRFN\ProjSrc\SrcChartEx\ChartAddIn\ChartAnalysisToolAddIn\Include_Chart\DequeList.h
; File D:\git\src\IBK\IBK_DRFN\ProjSrc\SrcChartEx\ChartAddIn\ChartAnalysisToolAddIn\AnalysisTool\MainToolImplementation.cpp
; File C:\Program Files (x86)\Microsoft Visual Studio\2019\Community\VC\Tools\MSVC\14.29.30133\include\xmemory
; File C:\Program Files (x86)\Microsoft Visual Studio\2019\Community\VC\Tools\MSVC\14.29.30133\include\deque
; File C:\Program Files (x86)\Microsoft Visual Studio\2019\Community\VC\Tools\MSVC\14.29.30133\include\xmemory
; File D:\git\src\IBK\IBK_DRFN\ProjSrc\SrcChartEx\ChartAddIn\ChartAnalysisToolAddIn\AnalysisTool\MainToolImplementation.cpp
; File C:\Program Files (x86)\Microsoft Visual Studio\2019\Community\VC\Tools\MSVC\14.29.30133\include\deque
; File D:\git\src\IBK\IBK_DRFN\ProjSrc\SrcChartEx\ChartAddIn\ChartAnalysisToolAddIn\Include_Chart\DequeList.h
; File C:\Program Files (x86)\Microsoft Visual Studio\2019\Community\VC\Tools\MSVC\14.29.30133\include\deque
; File D:\git\src\IBK\IBK_DRFN\ProjSrc\SrcChartEx\ChartAddIn\ChartAnalysisToolAddIn\Include_Chart\DequeList.h
; File C:\Program Files (x86)\Microsoft Visual Studio\2019\Community\VC\Tools\MSVC\14.29.30133\include\deque
; File D:\git\src\IBK\IBK_DRFN\ProjSrc\SrcChartEx\ChartAddIn\ChartAnalysisToolAddIn\Include_Chart\DequeList.h
; File D:\git\src\IBK\IBK_DRFN\ProjSrc\SrcChartEx\ChartAddIn\ChartAnalysisToolAddIn\AnalysisTool\MainToolImplementation.cpp
; File C:\Program Files (x86)\Microsoft Visual Studio\2019\Community\VC\Tools\MSVC\14.29.30133\include\deque
; File D:\git\src\IBK\IBK_DRFN\ProjSrc\SrcChartEx\ChartAddIn\ChartAnalysisToolAddIn\AnalysisTool\MainToolImplementation.cpp
; File C:\Program Files (x86)\Microsoft Visual Studio\2019\Community\VC\Tools\MSVC\14.29.30133\include\deque
; File C:\Program Files (x86)\Microsoft Visual Studio\2019\Community\VC\Tools\MSVC\14.29.30133\include\xmemory
; File C:\Program Files (x86)\Microsoft Visual Studio\2019\Community\VC\Tools\MSVC\14.29.30133\include\deque
; File C:\Program Files (x86)\Microsoft Visual Studio\2019\Community\VC\Tools\MSVC\14.29.30133\include\xmemory
; File C:\Program Files (x86)\Microsoft Visual Studio\2019\Community\VC\Tools\MSVC\14.29.30133\include\deque
; File C:\Program Files (x86)\Microsoft Visual Studio\2019\Community\VC\Tools\MSVC\14.29.30133\include\utility
; File C:\Program Files (x86)\Microsoft Visual Studio\2019\Community\VC\Tools\MSVC\14.29.30133\include\xmemory
; File C:\Program Files (x86)\Microsoft Visual Studio\2019\Community\VC\Tools\MSVC\14.29.30133\include\deque
; File C:\Program Files (x86)\Microsoft Visual Studio\2019\Community\VC\Tools\MSVC\14.29.30133\include\utility
; File C:\Program Files (x86)\Microsoft Visual Studio\2019\Community\VC\Tools\MSVC\14.29.30133\include\xmemory
; File C:\Program Files (x86)\Microsoft Visual Studio\2019\Community\VC\Tools\MSVC\14.29.30133\include\deque
; File C:\Program Files (x86)\Microsoft Visual Studio\2019\Community\VC\Tools\MSVC\14.29.30133\include\xmemory
; File C:\Program Files (x86)\Microsoft Visual Studio\2019\Community\VC\Tools\MSVC\14.29.30133\include\deque
; File C:\Program Files (x86)\Microsoft Visual Studio\2019\Community\VC\Tools\MSVC\14.29.30133\include\xmemory
; File C:\Program Files (x86)\Microsoft Visual Studio\2019\Community\VC\Tools\MSVC\14.29.30133\include\deque
; File C:\Program Files (x86)\Microsoft Visual Studio\2019\Community\VC\Tools\MSVC\14.29.30133\include\xmemory
; File C:\Program Files (x86)\Microsoft Visual Studio\2019\Community\VC\Tools\MSVC\14.29.30133\include\deque
; File C:\Program Files (x86)\Microsoft Visual Studio\2019\Community\VC\Tools\MSVC\14.29.30133\include\utility
; File C:\Program Files (x86)\Microsoft Visual Studio\2019\Community\VC\Tools\MSVC\14.29.30133\include\xmemory
; File C:\Program Files (x86)\Microsoft Visual Studio\2019\Community\VC\Tools\MSVC\14.29.30133\include\deque
; File C:\Program Files (x86)\Microsoft Visual Studio\2019\Community\VC\Tools\MSVC\14.29.30133\include\utility
; File C:\Program Files (x86)\Microsoft Visual Studio\2019\Community\VC\Tools\MSVC\14.29.30133\include\xmemory
; File D:\git\src\IBK\IBK_DRFN\ProjSrc\SrcChartEx\ChartAddIn\ChartAnalysisToolAddIn\AnalysisTool\MainToolImplementation.cpp
;	COMDAT ?DeleteAllElementInBlock@CMainToolImplementation@@QAEXABVCBlockIndex@@@Z
_TEXT	SEGMENT
_undoredoInfoList$ = -64				; size = 20
_elementList$ = -44					; size = 20
_this$1$ = -16						; size = 4
__$EHRec$ = -12						; size = 12
_blockIndex$ = 8					; size = 4
?DeleteAllElementInBlock@CMainToolImplementation@@QAEXABVCBlockIndex@@@Z PROC ; CMainToolImplementation::DeleteAllElementInBlock, COMDAT
; _this$ = ecx

; 606  : {

  00000	55		 push	 ebp
  00001	8b ec		 mov	 ebp, esp
  00003	6a ff		 push	 -1
  00005	68 00 00 00 00	 push	 __ehhandler$?DeleteAllElementInBlock@CMainToolImplementation@@QAEXABVCBlockIndex@@@Z
  0000a	64 a1 00 00 00
	00		 mov	 eax, DWORD PTR fs:0
  00010	50		 push	 eax
  00011	83 ec 34	 sub	 esp, 52			; 00000034H
  00014	53		 push	 ebx
  00015	56		 push	 esi
  00016	57		 push	 edi
  00017	a1 00 00 00 00	 mov	 eax, DWORD PTR ___security_cookie
  0001c	33 c5		 xor	 eax, ebp
  0001e	50		 push	 eax
  0001f	8d 45 f4	 lea	 eax, DWORD PTR __$EHRec$[ebp]
  00022	64 a3 00 00 00
	00		 mov	 DWORD PTR fs:0, eax
  00028	8b d9		 mov	 ebx, ecx
  0002a	89 5d f0	 mov	 DWORD PTR _this$1$[ebp], ebx
; File C:\Program Files (x86)\Microsoft Visual Studio\2019\Community\VC\Tools\MSVC\14.29.30133\include\xmemory

; 79   :         return ::operator new(_Bytes);

  0002d	6a 08		 push	 8

; 1033 :     _Container_proxy* _Myproxy = nullptr;

  0002f	c7 45 d4 00 00
	00 00		 mov	 DWORD PTR _elementList$[ebp], 0
; File C:\Program Files (x86)\Microsoft Visual Studio\2019\Community\VC\Tools\MSVC\14.29.30133\include\deque

; 555  :     _Deque_val() noexcept : _Map(), _Mapsize(0), _Myoff(0), _Mysize(0) {}

  00036	c7 45 d8 00 00
	00 00		 mov	 DWORD PTR _elementList$[ebp+4], 0
  0003d	c7 45 dc 00 00
	00 00		 mov	 DWORD PTR _elementList$[ebp+8], 0
  00044	c7 45 e0 00 00
	00 00		 mov	 DWORD PTR _elementList$[ebp+12], 0
  0004b	c7 45 e4 00 00
	00 00		 mov	 DWORD PTR _elementList$[ebp+16], 0
; File C:\Program Files (x86)\Microsoft Visual Studio\2019\Community\VC\Tools\MSVC\14.29.30133\include\xmemory

; 79   :         return ::operator new(_Bytes);

  00052	e8 00 00 00 00	 call	 ??2@YAPAXI@Z		; operator new

; 1021 :         _New_proxy->_Mycont = this;

  00057	8d 4d d4	 lea	 ecx, DWORD PTR _elementList$[ebp]

; 79   :         return ::operator new(_Bytes);

  0005a	83 c4 04	 add	 esp, 4

; 1003 :     mutable _Iterator_base12* _Myfirstiter = nullptr;

  0005d	c7 40 04 00 00
	00 00		 mov	 DWORD PTR [eax+4], 0

; 1020 :         _Myproxy            = _New_proxy;

  00064	89 45 d4	 mov	 DWORD PTR _elementList$[ebp], eax

; 1021 :         _New_proxy->_Mycont = this;

  00067	89 08		 mov	 DWORD PTR [eax], ecx
; File D:\git\src\IBK\IBK_DRFN\ProjSrc\SrcChartEx\ChartAddIn\ChartAnalysisToolAddIn\AnalysisTool\MainToolImplementation.cpp

; 609  : 	m_analysisData.GetElementTree().GetElementListOfBlock(blockIndex, elementList);

  00069	8b c1		 mov	 eax, ecx
  0006b	c7 45 fc 00 00
	00 00		 mov	 DWORD PTR __$EHRec$[ebp+8], 0
  00072	8d 7b 1c	 lea	 edi, DWORD PTR [ebx+28]
  00075	8b 5d 08	 mov	 ebx, DWORD PTR _blockIndex$[ebp]
  00078	50		 push	 eax
  00079	53		 push	 ebx
  0007a	8b cf		 mov	 ecx, edi
  0007c	e8 00 00 00 00	 call	 ?GetElementTree@CAnalysisData@@QAEAAVCElementTree@@XZ ; CAnalysisData::GetElementTree
  00081	8b c8		 mov	 ecx, eax
  00083	e8 00 00 00 00	 call	 ?GetElementListOfBlock@CElementTree@@QAEXABVCBlockIndex@@AAV?$CDequePointerList@VCElement@@@@@Z ; CElementTree::GetElementListOfBlock

; 610  : 	for( nIndex = 0; nIndex < elementList.GetCount(); ++nIndex)

  00088	8b 45 e4	 mov	 eax, DWORD PTR _elementList$[ebp+16]
  0008b	33 f6		 xor	 esi, esi
  0008d	85 c0		 test	 eax, eax
  0008f	7e 37		 jle	 SHORT $LN3@DeleteAllE
$LL4@DeleteAllE:
; File D:\git\src\IBK\IBK_DRFN\ProjSrc\SrcChartEx\ChartAddIn\ChartAnalysisToolAddIn\Include_Chart\DequeList.h

; 198  : 		if(m_deque.empty())

  00091	85 c0		 test	 eax, eax
  00093	74 23		 je	 SHORT $LN58@DeleteAllE
$LN59@DeleteAllE:
; File C:\Program Files (x86)\Microsoft Visual Studio\2019\Community\VC\Tools\MSVC\14.29.30133\include\deque

; 43   :         : _Mycont(static_cast<const _Mydeque*>(_Pdeque)), _Myoff(_Off) {}

  00095	8b 45 e0	 mov	 eax, DWORD PTR _elementList$[ebp+12]
  00098	8d 4d d4	 lea	 ecx, DWORD PTR _elementList$[ebp]

; 559  :         return (_Off / _Block_size) & (_Mapsize - 1);

  0009b	8b 49 08	 mov	 ecx, DWORD PTR [ecx+8]
  0009e	49		 dec	 ecx

; 78   :         _Myoff += _Off;

  0009f	8d 14 30	 lea	 edx, DWORD PTR [eax+esi]

; 559  :         return (_Off / _Block_size) & (_Mapsize - 1);

  000a2	8b c2		 mov	 eax, edx
  000a4	c1 e8 02	 shr	 eax, 2
  000a7	23 c8		 and	 ecx, eax

; 48   :         return _Mycont->_Map[_Block][_Off];

  000a9	8d 45 d4	 lea	 eax, DWORD PTR _elementList$[ebp]
  000ac	8b 40 04	 mov	 eax, DWORD PTR [eax+4]

; 559  :         return (_Off / _Block_size) & (_Mapsize - 1);

  000af	83 e2 03	 and	 edx, 3

; 48   :         return _Mycont->_Map[_Block][_Off];

  000b2	8b 04 88	 mov	 eax, DWORD PTR [eax+ecx*4]
; File D:\git\src\IBK\IBK_DRFN\ProjSrc\SrcChartEx\ChartAddIn\ChartAnalysisToolAddIn\Include_Chart\DequeList.h

; 201  : 		return m_deque[nIndex];

  000b5	8b 04 90	 mov	 eax, DWORD PTR [eax+edx*4]
$LN58@DeleteAllE:
; File D:\git\src\IBK\IBK_DRFN\ProjSrc\SrcChartEx\ChartAddIn\ChartAnalysisToolAddIn\AnalysisTool\MainToolImplementation.cpp

; 612  : 		m_analysisData.UnRegisterElementToOrderManager((long)elementList.GetAt(nIndex));

  000b8	50		 push	 eax
  000b9	8b cf		 mov	 ecx, edi
  000bb	e8 00 00 00 00	 call	 ?UnRegisterElementToOrderManager@CAnalysisData@@QAEXJ@Z ; CAnalysisData::UnRegisterElementToOrderManager
  000c0	8b 45 e4	 mov	 eax, DWORD PTR _elementList$[ebp+16]
  000c3	46		 inc	 esi
  000c4	3b f0		 cmp	 esi, eax
  000c6	7c c9		 jl	 SHORT $LL4@DeleteAllE
$LN3@DeleteAllE:

; 613  : 	}
; 614  : 	m_analysisData.GetElementTree().DeleteRowSet(blockIndex);

  000c8	53		 push	 ebx
  000c9	8b cf		 mov	 ecx, edi
  000cb	e8 00 00 00 00	 call	 ?GetElementTree@CAnalysisData@@QAEAAVCElementTree@@XZ ; CAnalysisData::GetElementTree
  000d0	8b c8		 mov	 ecx, eax
  000d2	e8 00 00 00 00	 call	 ?DeleteRowSet@CElementTree@@QAEXABVCBlockIndex@@@Z ; CElementTree::DeleteRowSet
; File C:\Program Files (x86)\Microsoft Visual Studio\2019\Community\VC\Tools\MSVC\14.29.30133\include\xmemory

; 79   :         return ::operator new(_Bytes);

  000d7	6a 08		 push	 8

; 1033 :     _Container_proxy* _Myproxy = nullptr;

  000d9	c7 45 c0 00 00
	00 00		 mov	 DWORD PTR _undoredoInfoList$[ebp], 0
; File C:\Program Files (x86)\Microsoft Visual Studio\2019\Community\VC\Tools\MSVC\14.29.30133\include\deque

; 555  :     _Deque_val() noexcept : _Map(), _Mapsize(0), _Myoff(0), _Mysize(0) {}

  000e0	c7 45 c4 00 00
	00 00		 mov	 DWORD PTR _undoredoInfoList$[ebp+4], 0
  000e7	c7 45 c8 00 00
	00 00		 mov	 DWORD PTR _undoredoInfoList$[ebp+8], 0
  000ee	c7 45 cc 00 00
	00 00		 mov	 DWORD PTR _undoredoInfoList$[ebp+12], 0
  000f5	c7 45 d0 00 00
	00 00		 mov	 DWORD PTR _undoredoInfoList$[ebp+16], 0
; File C:\Program Files (x86)\Microsoft Visual Studio\2019\Community\VC\Tools\MSVC\14.29.30133\include\xmemory

; 79   :         return ::operator new(_Bytes);

  000fc	e8 00 00 00 00	 call	 ??2@YAPAXI@Z		; operator new

; 1021 :         _New_proxy->_Mycont = this;

  00101	8d 4d c0	 lea	 ecx, DWORD PTR _undoredoInfoList$[ebp]

; 79   :         return ::operator new(_Bytes);

  00104	83 c4 04	 add	 esp, 4

; 1003 :     mutable _Iterator_base12* _Myfirstiter = nullptr;

  00107	c7 40 04 00 00
	00 00		 mov	 DWORD PTR [eax+4], 0

; 1020 :         _Myproxy            = _New_proxy;

  0010e	89 45 c0	 mov	 DWORD PTR _undoredoInfoList$[ebp], eax

; 1021 :         _New_proxy->_Mycont = this;

  00111	89 08		 mov	 DWORD PTR [eax], ecx
; File D:\git\src\IBK\IBK_DRFN\ProjSrc\SrcChartEx\ChartAddIn\ChartAnalysisToolAddIn\AnalysisTool\MainToolImplementation.cpp

; 618  : 	m_analysisData.GetUndoRedoManager().GetUndoRedoInfoListOfBlock(blockIndex, undoredoInfoList);

  00113	8b c1		 mov	 eax, ecx
  00115	c6 45 fc 01	 mov	 BYTE PTR __$EHRec$[ebp+8], 1
  00119	50		 push	 eax
  0011a	53		 push	 ebx
  0011b	8b cf		 mov	 ecx, edi
  0011d	e8 00 00 00 00	 call	 ?GetUndoRedoManager@CAnalysisData@@QAEAAVCUndoRedoManager@@XZ ; CAnalysisData::GetUndoRedoManager
  00122	8b c8		 mov	 ecx, eax
  00124	e8 00 00 00 00	 call	 ?GetUndoRedoInfoListOfBlock@CUndoRedoManager@@QAEXABVCBlockIndex@@AAV?$CDequePointerList@VCUndo_Redo_Info@@@@@Z ; CUndoRedoManager::GetUndoRedoInfoListOfBlock

; 619  : 	for(nIndex = 0; nIndex < undoredoInfoList.GetCount(); ++nIndex)

  00129	8b 45 d0	 mov	 eax, DWORD PTR _undoredoInfoList$[ebp+16]
  0012c	33 f6		 xor	 esi, esi
  0012e	85 c0		 test	 eax, eax
  00130	7e 3b		 jle	 SHORT $LN6@DeleteAllE
$LL7@DeleteAllE:
; File C:\Program Files (x86)\Microsoft Visual Studio\2019\Community\VC\Tools\MSVC\14.29.30133\include\deque

; 1002 :         return _Mysize() == 0;

  00132	85 c0		 test	 eax, eax
; File D:\git\src\IBK\IBK_DRFN\ProjSrc\SrcChartEx\ChartAddIn\ChartAnalysisToolAddIn\Include_Chart\DequeList.h

; 198  : 		if(m_deque.empty())

  00134	74 20		 je	 SHORT $LN129@DeleteAllE
$LN130@DeleteAllE:
; File C:\Program Files (x86)\Microsoft Visual Studio\2019\Community\VC\Tools\MSVC\14.29.30133\include\deque

; 43   :         : _Mycont(static_cast<const _Mydeque*>(_Pdeque)), _Myoff(_Off) {}

  00136	8b 45 cc	 mov	 eax, DWORD PTR _undoredoInfoList$[ebp+12]
  00139	8d 5d c0	 lea	 ebx, DWORD PTR _undoredoInfoList$[ebp]

; 78   :         _Myoff += _Off;

  0013c	8d 14 30	 lea	 edx, DWORD PTR [eax+esi]

; 559  :         return (_Off / _Block_size) & (_Mapsize - 1);

  0013f	8b 43 08	 mov	 eax, DWORD PTR [ebx+8]
  00142	48		 dec	 eax

; 78   :         _Myoff += _Off;

  00143	8b ca		 mov	 ecx, edx
  00145	c1 e9 02	 shr	 ecx, 2

; 559  :         return (_Off / _Block_size) & (_Mapsize - 1);

  00148	23 c8		 and	 ecx, eax
; File D:\git\src\IBK\IBK_DRFN\ProjSrc\SrcChartEx\ChartAddIn\ChartAnalysisToolAddIn\Include_Chart\DequeList.h

; 201  : 		return m_deque[nIndex];

  0014a	8b 43 04	 mov	 eax, DWORD PTR [ebx+4]
; File C:\Program Files (x86)\Microsoft Visual Studio\2019\Community\VC\Tools\MSVC\14.29.30133\include\deque

; 48   :         return _Mycont->_Map[_Block][_Off];

  0014d	83 e2 03	 and	 edx, 3
; File D:\git\src\IBK\IBK_DRFN\ProjSrc\SrcChartEx\ChartAddIn\ChartAnalysisToolAddIn\Include_Chart\DequeList.h

; 201  : 		return m_deque[nIndex];

  00150	8b 04 88	 mov	 eax, DWORD PTR [eax+ecx*4]
  00153	8b 04 90	 mov	 eax, DWORD PTR [eax+edx*4]
$LN129@DeleteAllE:
; File D:\git\src\IBK\IBK_DRFN\ProjSrc\SrcChartEx\ChartAddIn\ChartAnalysisToolAddIn\AnalysisTool\MainToolImplementation.cpp

; 621  : 		m_analysisData.GetUndoRedoManager().UnRegisterElementToUnRedoManager((long)undoredoInfoList.GetAt(nIndex));

  00156	50		 push	 eax
  00157	8b cf		 mov	 ecx, edi
  00159	e8 00 00 00 00	 call	 ?GetUndoRedoManager@CAnalysisData@@QAEAAVCUndoRedoManager@@XZ ; CAnalysisData::GetUndoRedoManager
  0015e	8b c8		 mov	 ecx, eax
  00160	e8 00 00 00 00	 call	 ?UnRegisterElementToUnRedoManager@CUndoRedoManager@@QAEXJ@Z ; CUndoRedoManager::UnRegisterElementToUnRedoManager
  00165	8b 45 d0	 mov	 eax, DWORD PTR _undoredoInfoList$[ebp+16]
  00168	46		 inc	 esi
  00169	3b f0		 cmp	 esi, eax
  0016b	7c c5		 jl	 SHORT $LL7@DeleteAllE
$LN6@DeleteAllE:

; 622  : 	}
; 623  : 
; 624  : 	m_analysisData.Invalidate();

  0016d	8b cf		 mov	 ecx, edi
  0016f	e8 00 00 00 00	 call	 ?Invalidate@CAnalysisData@@QAEXXZ ; CAnalysisData::Invalidate

; 625  : 	m_pSelectedElement = NULL;

  00174	8b 45 f0	 mov	 eax, DWORD PTR _this$1$[ebp]
; File C:\Program Files (x86)\Microsoft Visual Studio\2019\Community\VC\Tools\MSVC\14.29.30133\include\deque

; 1002 :         return _Mysize() == 0;

  00177	8b 4d d0	 mov	 ecx, DWORD PTR _undoredoInfoList$[ebp+16]
; File D:\git\src\IBK\IBK_DRFN\ProjSrc\SrcChartEx\ChartAddIn\ChartAnalysisToolAddIn\AnalysisTool\MainToolImplementation.cpp

; 625  : 	m_pSelectedElement = NULL;

  0017a	c7 80 94 00 00
	00 00 00 00 00	 mov	 DWORD PTR [eax+148], 0
; File C:\Program Files (x86)\Microsoft Visual Studio\2019\Community\VC\Tools\MSVC\14.29.30133\include\deque

; 1475 :         while (!empty()) {

  00184	8b 45 cc	 mov	 eax, DWORD PTR _undoredoInfoList$[ebp+12]

; 1002 :         return _Mysize() == 0;

  00187	85 c9		 test	 ecx, ecx

; 1475 :         while (!empty()) {

  00189	74 1a		 je	 SHORT $LN161@DeleteAllE
  0018b	0f 1f 44 00 00	 npad	 5
$LL160@DeleteAllE:

; 1146 :         if (--_Mysize() == 0) {

  00190	83 e9 01	 sub	 ecx, 1
  00193	ba 00 00 00 00	 mov	 edx, 0
  00198	0f 44 c2	 cmove	 eax, edx

; 1002 :         return _Mysize() == 0;

  0019b	85 c9		 test	 ecx, ecx

; 1475 :         while (!empty()) {

  0019d	75 f1		 jne	 SHORT $LL160@DeleteAllE

; 1146 :         if (--_Mysize() == 0) {

  0019f	89 45 cc	 mov	 DWORD PTR _undoredoInfoList$[ebp+12], eax
  001a2	89 4d d0	 mov	 DWORD PTR _undoredoInfoList$[ebp+16], ecx
$LN161@DeleteAllE:

; 1479 :         for (size_type _Block = _Mapsize(); 0 < _Block;) { // free storage for a block and destroy pointer

  001a5	8b 75 c8	 mov	 esi, DWORD PTR _undoredoInfoList$[ebp+8]
  001a8	8b 55 c4	 mov	 edx, DWORD PTR _undoredoInfoList$[ebp+4]
  001ab	85 f6		 test	 esi, esi
  001ad	74 25		 je	 SHORT $LN163@DeleteAllE
  001af	90		 npad	 1
$LL162@DeleteAllE:

; 1480 :             if (_Map()[--_Block]) { // free block and destroy its pointer

  001b0	8b 44 b2 fc	 mov	 eax, DWORD PTR [edx+esi*4-4]
  001b4	4e		 dec	 esi
  001b5	85 c0		 test	 eax, eax
  001b7	74 0e		 je	 SHORT $LN181@DeleteAllE
; File C:\Program Files (x86)\Microsoft Visual Studio\2019\Community\VC\Tools\MSVC\14.29.30133\include\xmemory

; 255  :         ::operator delete(_Ptr, _Bytes);

  001b9	6a 10		 push	 16			; 00000010H
  001bb	50		 push	 eax
  001bc	e8 00 00 00 00	 call	 ??3@YAXPAXI@Z		; operator delete
  001c1	8b 55 c4	 mov	 edx, DWORD PTR _undoredoInfoList$[ebp+4]
  001c4	83 c4 08	 add	 esp, 8
$LN181@DeleteAllE:
; File C:\Program Files (x86)\Microsoft Visual Studio\2019\Community\VC\Tools\MSVC\14.29.30133\include\deque

; 1479 :         for (size_type _Block = _Mapsize(); 0 < _Block;) { // free storage for a block and destroy pointer

  001c7	85 f6		 test	 esi, esi
  001c9	75 e5		 jne	 SHORT $LL162@DeleteAllE
  001cb	8b 4d d0	 mov	 ecx, DWORD PTR _undoredoInfoList$[ebp+16]
  001ce	8b 45 cc	 mov	 eax, DWORD PTR _undoredoInfoList$[ebp+12]
  001d1	8b 75 c8	 mov	 esi, DWORD PTR _undoredoInfoList$[ebp+8]
$LN163@DeleteAllE:

; 1481 :                 _Getal().deallocate(_Map()[_Block], _Block_size);
; 1482 :                 _Destroy_in_place(_Map()[_Block]);
; 1483 :             }
; 1484 :         }
; 1485 : 
; 1486 :         if (_Map() != _Mapptr()) {

  001d4	85 d2		 test	 edx, edx
  001d6	74 31		 je	 SHORT $LN199@DeleteAllE
; File C:\Program Files (x86)\Microsoft Visual Studio\2019\Community\VC\Tools\MSVC\14.29.30133\include\xmemory

; 797  :         _Deallocate<_New_alignof<_Ty>>(_Ptr, sizeof(_Ty) * _Count);

  001d8	c1 e6 02	 shl	 esi, 2
  001db	8b c2		 mov	 eax, edx

; 251  :         if (_Bytes >= _Big_allocation_threshold) { // boost the alignment of big allocations to help autovectorization

  001dd	81 fe 00 10 00
	00		 cmp	 esi, 4096		; 00001000H
  001e3	72 14		 jb	 SHORT $LN209@DeleteAllE

; 150  :     const uintptr_t _Ptr_container   = _Ptr_user[-1];

  001e5	8b 52 fc	 mov	 edx, DWORD PTR [edx-4]
  001e8	83 c6 23	 add	 esi, 35			; 00000023H
  001eb	2b c2		 sub	 eax, edx

; 151  : 
; 152  :     // If the following asserts, it likely means that we are performing
; 153  :     // an aligned delete on memory coming from an unaligned allocation.
; 154  :     _STL_ASSERT(_Ptr_user[-2] == _Big_allocation_sentinel, "invalid argument");
; 155  : 
; 156  :     // Extra paranoia on aligned allocation/deallocation; ensure _Ptr_container is
; 157  :     // in range [_Min_back_shift, _Non_user_size]
; 158  : #ifdef _DEBUG
; 159  :     constexpr uintptr_t _Min_back_shift = 2 * sizeof(void*);
; 160  : #else // ^^^ _DEBUG ^^^ // vvv !_DEBUG vvv
; 161  :     constexpr uintptr_t _Min_back_shift = sizeof(void*);
; 162  : #endif // _DEBUG
; 163  :     const uintptr_t _Back_shift = reinterpret_cast<uintptr_t>(_Ptr) - _Ptr_container;
; 164  :     _STL_VERIFY(_Back_shift >= _Min_back_shift && _Back_shift <= _Non_user_size, "invalid argument");

  001ed	83 c0 fc	 add	 eax, -4			; fffffffcH
  001f0	83 f8 1f	 cmp	 eax, 31			; 0000001fH
  001f3	0f 87 bd 00 00
	00		 ja	 $LN347@DeleteAllE
$LN209@DeleteAllE:

; 255  :         ::operator delete(_Ptr, _Bytes);

  001f9	56		 push	 esi
  001fa	52		 push	 edx
  001fb	e8 00 00 00 00	 call	 ??3@YAXPAXI@Z		; operator delete
  00200	8b 4d d0	 mov	 ecx, DWORD PTR _undoredoInfoList$[ebp+16]
  00203	83 c4 08	 add	 esp, 8
  00206	8b 45 cc	 mov	 eax, DWORD PTR _undoredoInfoList$[ebp+12]
$LN199@DeleteAllE:
; File C:\Program Files (x86)\Microsoft Visual Studio\2019\Community\VC\Tools\MSVC\14.29.30133\include\deque

; 1002 :         return _Mysize() == 0;

  00209	85 c9		 test	 ecx, ecx

; 1475 :         while (!empty()) {

  0020b	74 18		 je	 SHORT $LN218@DeleteAllE
  0020d	0f 1f 00	 npad	 3
$LL217@DeleteAllE:

; 1146 :         if (--_Mysize() == 0) {

  00210	83 e9 01	 sub	 ecx, 1
  00213	ba 00 00 00 00	 mov	 edx, 0
  00218	0f 44 c2	 cmove	 eax, edx

; 1002 :         return _Mysize() == 0;

  0021b	85 c9		 test	 ecx, ecx

; 1475 :         while (!empty()) {

  0021d	75 f1		 jne	 SHORT $LL217@DeleteAllE

; 1146 :         if (--_Mysize() == 0) {

  0021f	89 45 cc	 mov	 DWORD PTR _undoredoInfoList$[ebp+12], eax
  00222	89 4d d0	 mov	 DWORD PTR _undoredoInfoList$[ebp+16], ecx
$LN218@DeleteAllE:
; File C:\Program Files (x86)\Microsoft Visual Studio\2019\Community\VC\Tools\MSVC\14.29.30133\include\utility

; 602  :     _Ty _Old_val = static_cast<_Ty&&>(_Val);

  00225	8b 45 c0	 mov	 eax, DWORD PTR _undoredoInfoList$[ebp]
; File C:\Program Files (x86)\Microsoft Visual Studio\2019\Community\VC\Tools\MSVC\14.29.30133\include\xmemory

; 255  :         ::operator delete(_Ptr, _Bytes);

  00228	6a 08		 push	 8
  0022a	50		 push	 eax
; File C:\Program Files (x86)\Microsoft Visual Studio\2019\Community\VC\Tools\MSVC\14.29.30133\include\deque

; 1490 :         _Mapsize() = 0;

  0022b	c7 45 c8 00 00
	00 00		 mov	 DWORD PTR _undoredoInfoList$[ebp+8], 0

; 1491 :         _Map()     = _Mapptr();

  00232	c7 45 c4 00 00
	00 00		 mov	 DWORD PTR _undoredoInfoList$[ebp+4], 0
; File C:\Program Files (x86)\Microsoft Visual Studio\2019\Community\VC\Tools\MSVC\14.29.30133\include\utility

; 603  :     _Val         = static_cast<_Other&&>(_New_val);

  00239	c7 45 c0 00 00
	00 00		 mov	 DWORD PTR _undoredoInfoList$[ebp], 0
; File C:\Program Files (x86)\Microsoft Visual Studio\2019\Community\VC\Tools\MSVC\14.29.30133\include\xmemory

; 255  :         ::operator delete(_Ptr, _Bytes);

  00240	e8 00 00 00 00	 call	 ??3@YAXPAXI@Z		; operator delete
; File C:\Program Files (x86)\Microsoft Visual Studio\2019\Community\VC\Tools\MSVC\14.29.30133\include\deque

; 1002 :         return _Mysize() == 0;

  00245	8b 4d e4	 mov	 ecx, DWORD PTR _elementList$[ebp+16]
; File C:\Program Files (x86)\Microsoft Visual Studio\2019\Community\VC\Tools\MSVC\14.29.30133\include\xmemory

; 255  :         ::operator delete(_Ptr, _Bytes);

  00248	83 c4 08	 add	 esp, 8
; File C:\Program Files (x86)\Microsoft Visual Studio\2019\Community\VC\Tools\MSVC\14.29.30133\include\deque

; 1475 :         while (!empty()) {

  0024b	8b 45 e0	 mov	 eax, DWORD PTR _elementList$[ebp+12]

; 1002 :         return _Mysize() == 0;

  0024e	85 c9		 test	 ecx, ecx

; 1475 :         while (!empty()) {

  00250	74 15		 je	 SHORT $LN302@DeleteAllE
$LL301@DeleteAllE:

; 1146 :         if (--_Mysize() == 0) {

  00252	83 e9 01	 sub	 ecx, 1
  00255	ba 00 00 00 00	 mov	 edx, 0
  0025a	0f 44 c2	 cmove	 eax, edx

; 1002 :         return _Mysize() == 0;

  0025d	85 c9		 test	 ecx, ecx

; 1475 :         while (!empty()) {

  0025f	75 f1		 jne	 SHORT $LL301@DeleteAllE

; 1146 :         if (--_Mysize() == 0) {

  00261	89 45 e0	 mov	 DWORD PTR _elementList$[ebp+12], eax
  00264	89 4d e4	 mov	 DWORD PTR _elementList$[ebp+16], ecx
$LN302@DeleteAllE:

; 1479 :         for (size_type _Block = _Mapsize(); 0 < _Block;) { // free storage for a block and destroy pointer

  00267	8b 75 dc	 mov	 esi, DWORD PTR _elementList$[ebp+8]
  0026a	8b 55 d8	 mov	 edx, DWORD PTR _elementList$[ebp+4]
  0026d	85 f6		 test	 esi, esi
  0026f	74 24		 je	 SHORT $LN304@DeleteAllE
$LL303@DeleteAllE:

; 1480 :             if (_Map()[--_Block]) { // free block and destroy its pointer

  00271	8b 44 b2 fc	 mov	 eax, DWORD PTR [edx+esi*4-4]
  00275	4e		 dec	 esi
  00276	85 c0		 test	 eax, eax
  00278	74 0e		 je	 SHORT $LN322@DeleteAllE
; File C:\Program Files (x86)\Microsoft Visual Studio\2019\Community\VC\Tools\MSVC\14.29.30133\include\xmemory

; 255  :         ::operator delete(_Ptr, _Bytes);

  0027a	6a 10		 push	 16			; 00000010H
  0027c	50		 push	 eax
  0027d	e8 00 00 00 00	 call	 ??3@YAXPAXI@Z		; operator delete
  00282	8b 55 d8	 mov	 edx, DWORD PTR _elementList$[ebp+4]
  00285	83 c4 08	 add	 esp, 8
$LN322@DeleteAllE:
; File C:\Program Files (x86)\Microsoft Visual Studio\2019\Community\VC\Tools\MSVC\14.29.30133\include\deque

; 1479 :         for (size_type _Block = _Mapsize(); 0 < _Block;) { // free storage for a block and destroy pointer

  00288	85 f6		 test	 esi, esi
  0028a	75 e5		 jne	 SHORT $LL303@DeleteAllE
  0028c	8b 4d e4	 mov	 ecx, DWORD PTR _elementList$[ebp+16]
  0028f	8b 45 e0	 mov	 eax, DWORD PTR _elementList$[ebp+12]
  00292	8b 75 dc	 mov	 esi, DWORD PTR _elementList$[ebp+8]
$LN304@DeleteAllE:

; 1481 :                 _Getal().deallocate(_Map()[_Block], _Block_size);
; 1482 :                 _Destroy_in_place(_Map()[_Block]);
; 1483 :             }
; 1484 :         }
; 1485 : 
; 1486 :         if (_Map() != _Mapptr()) {

  00295	85 d2		 test	 edx, edx
  00297	74 33		 je	 SHORT $LN340@DeleteAllE
; File C:\Program Files (x86)\Microsoft Visual Studio\2019\Community\VC\Tools\MSVC\14.29.30133\include\xmemory

; 797  :         _Deallocate<_New_alignof<_Ty>>(_Ptr, sizeof(_Ty) * _Count);

  00299	c1 e6 02	 shl	 esi, 2
  0029c	8b c2		 mov	 eax, edx

; 251  :         if (_Bytes >= _Big_allocation_threshold) { // boost the alignment of big allocations to help autovectorization

  0029e	81 fe 00 10 00
	00		 cmp	 esi, 4096		; 00001000H
  002a4	72 16		 jb	 SHORT $LN350@DeleteAllE

; 150  :     const uintptr_t _Ptr_container   = _Ptr_user[-1];

  002a6	8b 52 fc	 mov	 edx, DWORD PTR [edx-4]
  002a9	83 c6 23	 add	 esi, 35			; 00000023H
  002ac	2b c2		 sub	 eax, edx

; 151  : 
; 152  :     // If the following asserts, it likely means that we are performing
; 153  :     // an aligned delete on memory coming from an unaligned allocation.
; 154  :     _STL_ASSERT(_Ptr_user[-2] == _Big_allocation_sentinel, "invalid argument");
; 155  : 
; 156  :     // Extra paranoia on aligned allocation/deallocation; ensure _Ptr_container is
; 157  :     // in range [_Min_back_shift, _Non_user_size]
; 158  : #ifdef _DEBUG
; 159  :     constexpr uintptr_t _Min_back_shift = 2 * sizeof(void*);
; 160  : #else // ^^^ _DEBUG ^^^ // vvv !_DEBUG vvv
; 161  :     constexpr uintptr_t _Min_back_shift = sizeof(void*);
; 162  : #endif // _DEBUG
; 163  :     const uintptr_t _Back_shift = reinterpret_cast<uintptr_t>(_Ptr) - _Ptr_container;
; 164  :     _STL_VERIFY(_Back_shift >= _Min_back_shift && _Back_shift <= _Non_user_size, "invalid argument");

  002ae	83 c0 fc	 add	 eax, -4			; fffffffcH
  002b1	83 f8 1f	 cmp	 eax, 31			; 0000001fH
  002b4	76 06		 jbe	 SHORT $LN350@DeleteAllE
$LN347@DeleteAllE:
  002b6	ff 15 00 00 00
	00		 call	 DWORD PTR __imp___invalid_parameter_noinfo_noreturn
$LN350@DeleteAllE:

; 255  :         ::operator delete(_Ptr, _Bytes);

  002bc	56		 push	 esi
  002bd	52		 push	 edx
  002be	e8 00 00 00 00	 call	 ??3@YAXPAXI@Z		; operator delete
  002c3	8b 4d e4	 mov	 ecx, DWORD PTR _elementList$[ebp+16]
  002c6	83 c4 08	 add	 esp, 8
  002c9	8b 45 e0	 mov	 eax, DWORD PTR _elementList$[ebp+12]
$LN340@DeleteAllE:
; File C:\Program Files (x86)\Microsoft Visual Studio\2019\Community\VC\Tools\MSVC\14.29.30133\include\deque

; 1002 :         return _Mysize() == 0;

  002cc	85 c9		 test	 ecx, ecx

; 1475 :         while (!empty()) {

  002ce	74 15		 je	 SHORT $LN359@DeleteAllE
$LL358@DeleteAllE:

; 1146 :         if (--_Mysize() == 0) {

  002d0	83 e9 01	 sub	 ecx, 1
  002d3	ba 00 00 00 00	 mov	 edx, 0
  002d8	0f 44 c2	 cmove	 eax, edx

; 1002 :         return _Mysize() == 0;

  002db	85 c9		 test	 ecx, ecx

; 1475 :         while (!empty()) {

  002dd	75 f1		 jne	 SHORT $LL358@DeleteAllE

; 1146 :         if (--_Mysize() == 0) {

  002df	89 45 e0	 mov	 DWORD PTR _elementList$[ebp+12], eax
  002e2	89 4d e4	 mov	 DWORD PTR _elementList$[ebp+16], ecx
$LN359@DeleteAllE:
; File C:\Program Files (x86)\Microsoft Visual Studio\2019\Community\VC\Tools\MSVC\14.29.30133\include\utility

; 602  :     _Ty _Old_val = static_cast<_Ty&&>(_Val);

  002e5	8b 45 d4	 mov	 eax, DWORD PTR _elementList$[ebp]
; File C:\Program Files (x86)\Microsoft Visual Studio\2019\Community\VC\Tools\MSVC\14.29.30133\include\xmemory

; 255  :         ::operator delete(_Ptr, _Bytes);

  002e8	6a 08		 push	 8
  002ea	50		 push	 eax
; File C:\Program Files (x86)\Microsoft Visual Studio\2019\Community\VC\Tools\MSVC\14.29.30133\include\deque

; 1490 :         _Mapsize() = 0;

  002eb	c7 45 dc 00 00
	00 00		 mov	 DWORD PTR _elementList$[ebp+8], 0

; 1491 :         _Map()     = _Mapptr();

  002f2	c7 45 d8 00 00
	00 00		 mov	 DWORD PTR _elementList$[ebp+4], 0
; File C:\Program Files (x86)\Microsoft Visual Studio\2019\Community\VC\Tools\MSVC\14.29.30133\include\utility

; 603  :     _Val         = static_cast<_Other&&>(_New_val);

  002f9	c7 45 d4 00 00
	00 00		 mov	 DWORD PTR _elementList$[ebp], 0
; File C:\Program Files (x86)\Microsoft Visual Studio\2019\Community\VC\Tools\MSVC\14.29.30133\include\xmemory

; 255  :         ::operator delete(_Ptr, _Bytes);

  00300	e8 00 00 00 00	 call	 ??3@YAXPAXI@Z		; operator delete
  00305	83 c4 08	 add	 esp, 8
; File D:\git\src\IBK\IBK_DRFN\ProjSrc\SrcChartEx\ChartAddIn\ChartAnalysisToolAddIn\AnalysisTool\MainToolImplementation.cpp

; 626  : }

  00308	8b 4d f4	 mov	 ecx, DWORD PTR __$EHRec$[ebp]
  0030b	64 89 0d 00 00
	00 00		 mov	 DWORD PTR fs:0, ecx
  00312	59		 pop	 ecx
  00313	5f		 pop	 edi
  00314	5e		 pop	 esi
  00315	5b		 pop	 ebx
  00316	8b e5		 mov	 esp, ebp
  00318	5d		 pop	 ebp
  00319	c2 04 00	 ret	 4
$LN475@DeleteAllE:
_TEXT	ENDS
;	COMDAT text$x
text$x	SEGMENT
__unwindfunclet$?DeleteAllElementInBlock@CMainToolImplementation@@QAEXABVCBlockIndex@@@Z$0:
  00000	8d 4d d4	 lea	 ecx, DWORD PTR _elementList$[ebp]
  00003	e9 00 00 00 00	 jmp	 ??1?$CDequePointerList@VCElement@@@@QAE@XZ ; CDequePointerList<CElement>::~CDequePointerList<CElement>
__unwindfunclet$?DeleteAllElementInBlock@CMainToolImplementation@@QAEXABVCBlockIndex@@@Z$1:
  00008	8d 4d c0	 lea	 ecx, DWORD PTR _undoredoInfoList$[ebp]
  0000b	e9 00 00 00 00	 jmp	 ??1?$CDequePointerList@VCUndo_Redo_Info@@@@QAE@XZ ; CDequePointerList<CUndo_Redo_Info>::~CDequePointerList<CUndo_Redo_Info>
  00010	cc		 int	 3
  00011	cc		 int	 3
  00012	cc		 int	 3
  00013	cc		 int	 3
  00014	cc		 int	 3
__ehhandler$?DeleteAllElementInBlock@CMainToolImplementation@@QAEXABVCBlockIndex@@@Z:
  00015	90		 npad	 1
  00016	90		 npad	 1
  00017	8b 54 24 08	 mov	 edx, DWORD PTR [esp+8]
  0001b	8d 42 0c	 lea	 eax, DWORD PTR [edx+12]
  0001e	8b 4a bc	 mov	 ecx, DWORD PTR [edx-68]
  00021	33 c8		 xor	 ecx, eax
  00023	e8 00 00 00 00	 call	 @__security_check_cookie@4
  00028	b8 00 00 00 00	 mov	 eax, OFFSET __ehfuncinfo$?DeleteAllElementInBlock@CMainToolImplementation@@QAEXABVCBlockIndex@@@Z
  0002d	e9 00 00 00 00	 jmp	 ___CxxFrameHandler3
text$x	ENDS
?DeleteAllElementInBlock@CMainToolImplementation@@QAEXABVCBlockIndex@@@Z ENDP ; CMainToolImplementation::DeleteAllElementInBlock
; Function compile flags: /Ogtp
; File D:\git\src\IBK\IBK_DRFN\ProjSrc\SrcChartEx\ChartAddIn\ChartAnalysisToolAddIn\AnalysisTool\MainToolImplementation.cpp
;	COMDAT ?DeleteElementPos@CMainToolImplementation@@QAEHJ@Z
_TEXT	SEGMENT
_lAddress$ = 8						; size = 4
?DeleteElementPos@CMainToolImplementation@@QAEHJ@Z PROC	; CMainToolImplementation::DeleteElementPos, COMDAT
; _this$ = ecx

; 581  : {

  00000	55		 push	 ebp
  00001	8b ec		 mov	 ebp, esp
  00003	53		 push	 ebx
  00004	56		 push	 esi

; 582  : 	//CElement *pElement = (CElement *)lAddress;
; 583  : 	//long lNewElement = m_analysisData.GetElementUndoTree().CopyElement(pElement);
; 584  : 
; 585  : 	//>> (2008/12/17 - Seung-Lyong Park)    UndoRedo
; 586  : 	// Undo / Redo
; 587  : 	m_analysisData.GetUndoRedoManager().RegisterElementToUnRedoManager(URT_NEW_OR_DEL, lAddress);

  00005	6a 00		 push	 0
  00007	6a 00		 push	 0
  00009	ff 75 08	 push	 DWORD PTR _lAddress$[ebp]
  0000c	8b f1		 mov	 esi, ecx
  0000e	6a 01		 push	 1
  00010	8d 4e 1c	 lea	 ecx, DWORD PTR [esi+28]
  00013	e8 00 00 00 00	 call	 ?GetUndoRedoManager@CAnalysisData@@QAEAAVCUndoRedoManager@@XZ ; CAnalysisData::GetUndoRedoManager
  00018	8b c8		 mov	 ecx, eax
  0001a	e8 00 00 00 00	 call	 ?RegisterElementToUnRedoManager@CUndoRedoManager@@QAEXHJPBD0@Z ; CUndoRedoManager::RegisterElementToUnRedoManager

; 702  : 	m_toolSingleton.InitializeAllTool();

  0001f	8d 8e 98 00 00
	00		 lea	 ecx, DWORD PTR [esi+152]
  00025	e8 00 00 00 00	 call	 ?InitializeAllTool@CToolSingleton@@QAEXXZ ; CToolSingleton::InitializeAllTool

; 703  : 	m_pSelectedElement = NULL;
; 704  : 	m_analysisData.InvalidateAndSendMessageToParent(CCursorShape::OBJECT_NONE);

  0002a	6a 00		 push	 0
  0002c	8d 4e 1c	 lea	 ecx, DWORD PTR [esi+28]
  0002f	c7 86 94 00 00
	00 00 00 00 00	 mov	 DWORD PTR [esi+148], 0
  00039	e8 00 00 00 00	 call	 ?InvalidateAndSendMessageToParent@CAnalysisData@@QAEXW4CHARTOBJECT@CCursorShape@@@Z ; CAnalysisData::InvalidateAndSendMessageToParent

; 588  : 	SetElementDelete();
; 589  : 	
; 590  : 	if(m_analysisData.GetElementTree().DeleteElementPos(lAddress) == true)

  0003e	6a 00		 push	 0
  00040	ff 75 08	 push	 DWORD PTR _lAddress$[ebp]
  00043	8d 4e 1c	 lea	 ecx, DWORD PTR [esi+28]
  00046	e8 00 00 00 00	 call	 ?GetElementTree@CAnalysisData@@QAEAAVCElementTree@@XZ ; CAnalysisData::GetElementTree
  0004b	8b c8		 mov	 ecx, eax
  0004d	e8 00 00 00 00	 call	 ?DeleteElementPos@CElementTree@@QAE_NJH@Z ; CElementTree::DeleteElementPos
  00052	33 c9		 xor	 ecx, ecx
  00054	3c 01		 cmp	 al, 1
  00056	5e		 pop	 esi
  00057	0f 94 c1	 sete	 cl
  0005a	8b c1		 mov	 eax, ecx
  0005c	5b		 pop	 ebx

; 591  : 	{
; 592  : 		//SetCurrentAnalysisTool(CAnalysis::EN_ANALYSIS_SELECTION);
; 593  : 
; 594  : //		// Undo / Redo
; 595  : //		m_analysisData.GetUndoRedoManager().RegisterElementToUnRedoManager(URT_NEW_OR_DEL, lAddress);
; 596  : //		SetElementDelete();
; 597  : 		return TRUE;
; 598  : 	}
; 599  : 	//<< (2008/12/17 - Seung-Lyong Park)    UndoRedo
; 600  : 
; 601  : 	return FALSE;
; 602  : }

  0005d	5d		 pop	 ebp
  0005e	c2 04 00	 ret	 4
?DeleteElementPos@CMainToolImplementation@@QAEHJ@Z ENDP	; CMainToolImplementation::DeleteElementPos
_TEXT	ENDS
; Function compile flags: /Ogtp
; File D:\git\src\IBK\IBK_DRFN\ProjSrc\SrcChartEx\ChartAddIn\ChartAnalysisToolAddIn\AnalysisTool\MainToolImplementation.cpp
;	COMDAT ?DeleteTail@CMainToolImplementation@@QAEXXZ
_TEXT	SEGMENT
?DeleteTail@CMainToolImplementation@@QAEXXZ PROC	; CMainToolImplementation::DeleteTail, COMDAT
; _this$ = ecx

; 570  : {

  00000	53		 push	 ebx
  00001	56		 push	 esi
  00002	57		 push	 edi
  00003	8b f9		 mov	 edi, ecx

; 571  : 	//SetCurrentAnalysisTool(CAnalysis::EN_ANALYSIS_SELECTION);
; 572  : 	CElement* pElement = m_analysisData.GetElementTree().GetTail();

  00005	8d 4f 1c	 lea	 ecx, DWORD PTR [edi+28]
  00008	e8 00 00 00 00	 call	 ?GetElementTree@CAnalysisData@@QAEAAVCElementTree@@XZ ; CAnalysisData::GetElementTree
  0000d	8b c8		 mov	 ecx, eax
  0000f	e8 00 00 00 00	 call	 ?GetTail@CElementTree@@QAEPAVCElement@@XZ ; CElementTree::GetTail

; 573  : 	m_analysisData.GetElementTree().DeleteTail();

  00014	8d 4f 1c	 lea	 ecx, DWORD PTR [edi+28]
  00017	8b f0		 mov	 esi, eax
  00019	e8 00 00 00 00	 call	 ?GetElementTree@CAnalysisData@@QAEAAVCElementTree@@XZ ; CAnalysisData::GetElementTree
  0001e	8b c8		 mov	 ecx, eax
  00020	e8 00 00 00 00	 call	 ?DeleteTail@CElementTree@@QAEXXZ ; CElementTree::DeleteTail

; 574  : 
; 575  : 	// Undo / Redo
; 576  : 	m_analysisData.GetUndoRedoManager().RegisterElementToUnRedoManager(URT_NEW_OR_DEL, (long)pElement);

  00025	6a 00		 push	 0
  00027	6a 00		 push	 0
  00029	56		 push	 esi
  0002a	6a 01		 push	 1
  0002c	8d 4f 1c	 lea	 ecx, DWORD PTR [edi+28]
  0002f	e8 00 00 00 00	 call	 ?GetUndoRedoManager@CAnalysisData@@QAEAAVCUndoRedoManager@@XZ ; CAnalysisData::GetUndoRedoManager
  00034	8b c8		 mov	 ecx, eax
  00036	e8 00 00 00 00	 call	 ?RegisterElementToUnRedoManager@CUndoRedoManager@@QAEXHJPBD0@Z ; CUndoRedoManager::RegisterElementToUnRedoManager

; 702  : 	m_toolSingleton.InitializeAllTool();

  0003b	8d 8f 98 00 00
	00		 lea	 ecx, DWORD PTR [edi+152]
  00041	e8 00 00 00 00	 call	 ?InitializeAllTool@CToolSingleton@@QAEXXZ ; CToolSingleton::InitializeAllTool

; 703  : 	m_pSelectedElement = NULL;
; 704  : 	m_analysisData.InvalidateAndSendMessageToParent(CCursorShape::OBJECT_NONE);

  00046	6a 00		 push	 0
  00048	8d 4f 1c	 lea	 ecx, DWORD PTR [edi+28]
  0004b	c7 87 94 00 00
	00 00 00 00 00	 mov	 DWORD PTR [edi+148], 0
  00055	e8 00 00 00 00	 call	 ?InvalidateAndSendMessageToParent@CAnalysisData@@QAEXW4CHARTOBJECT@CCursorShape@@@Z ; CAnalysisData::InvalidateAndSendMessageToParent
  0005a	5f		 pop	 edi
  0005b	5e		 pop	 esi
  0005c	5b		 pop	 ebx

; 577  : 	SetElementDelete();
; 578  : }

  0005d	c3		 ret	 0
?DeleteTail@CMainToolImplementation@@QAEXXZ ENDP	; CMainToolImplementation::DeleteTail
_TEXT	ENDS
; Function compile flags: /Ogtp
; File D:\git\src\IBK\IBK_DRFN\ProjSrc\SrcChartEx\ChartAddIn\ChartAnalysisToolAddIn\AnalysisTool\MainToolImplementation.cpp
;	COMDAT ?DeleteCurrentElement@CMainToolImplementation@@QAE_NXZ
_TEXT	SEGMENT
?DeleteCurrentElement@CMainToolImplementation@@QAE_NXZ PROC ; CMainToolImplementation::DeleteCurrentElement, COMDAT
; _this$ = ecx

; 552  : {

  00000	57		 push	 edi
  00001	8b f9		 mov	 edi, ecx

; 553  : 	//SetCurrentAnalysisTool(CAnalysis::EN_ANALYSIS_SELECTION);
; 554  : 	if(m_pSelectedElement == NULL)

  00003	8b 87 94 00 00
	00		 mov	 eax, DWORD PTR [edi+148]
  00009	85 c0		 test	 eax, eax
  0000b	75 04		 jne	 SHORT $LN2@DeleteCurr

; 555  : 		return false;

  0000d	32 c0		 xor	 al, al
  0000f	5f		 pop	 edi

; 566  : }

  00010	c3		 ret	 0
$LN2@DeleteCurr:
  00011	56		 push	 esi

; 556  : 
; 557  : 	m_analysisData.UnRegisterElementToOrderManager((long)m_pSelectedElement);

  00012	50		 push	 eax
  00013	8d 4f 1c	 lea	 ecx, DWORD PTR [edi+28]
  00016	e8 00 00 00 00	 call	 ?UnRegisterElementToOrderManager@CAnalysisData@@QAEXJ@Z ; CAnalysisData::UnRegisterElementToOrderManager

; 558  : 
; 559  : 	// Undo / Redo
; 560  : 	m_analysisData.GetUndoRedoManager().RegisterElementToUnRedoManager(URT_NEW_OR_DEL, (long)m_pSelectedElement);

  0001b	6a 00		 push	 0
  0001d	6a 00		 push	 0
  0001f	ff b7 94 00 00
	00		 push	 DWORD PTR [edi+148]
  00025	8d 4f 1c	 lea	 ecx, DWORD PTR [edi+28]
  00028	6a 01		 push	 1
  0002a	e8 00 00 00 00	 call	 ?GetUndoRedoManager@CAnalysisData@@QAEAAVCUndoRedoManager@@XZ ; CAnalysisData::GetUndoRedoManager
  0002f	8b c8		 mov	 ecx, eax
  00031	e8 00 00 00 00	 call	 ?RegisterElementToUnRedoManager@CUndoRedoManager@@QAEXHJPBD0@Z ; CUndoRedoManager::RegisterElementToUnRedoManager

; 561  : 
; 562  : 	m_analysisData.GetElementTree().DeleteElement(m_pSelectedElement);	

  00036	ff b7 94 00 00
	00		 push	 DWORD PTR [edi+148]
  0003c	8d 4f 1c	 lea	 ecx, DWORD PTR [edi+28]
  0003f	e8 00 00 00 00	 call	 ?GetElementTree@CAnalysisData@@QAEAAVCElementTree@@XZ ; CAnalysisData::GetElementTree
  00044	8b c8		 mov	 ecx, eax
  00046	e8 00 00 00 00	 call	 ?DeleteElement@CElementTree@@QAEXPAVCElement@@@Z ; CElementTree::DeleteElement

; 702  : 	m_toolSingleton.InitializeAllTool();

  0004b	8d 8f 98 00 00
	00		 lea	 ecx, DWORD PTR [edi+152]
  00051	e8 00 00 00 00	 call	 ?InitializeAllTool@CToolSingleton@@QAEXXZ ; CToolSingleton::InitializeAllTool

; 703  : 	m_pSelectedElement = NULL;
; 704  : 	m_analysisData.InvalidateAndSendMessageToParent(CCursorShape::OBJECT_NONE);

  00056	6a 00		 push	 0
  00058	8d 4f 1c	 lea	 ecx, DWORD PTR [edi+28]
  0005b	c7 87 94 00 00
	00 00 00 00 00	 mov	 DWORD PTR [edi+148], 0
  00065	e8 00 00 00 00	 call	 ?InvalidateAndSendMessageToParent@CAnalysisData@@QAEXW4CHARTOBJECT@CCursorShape@@@Z ; CAnalysisData::InvalidateAndSendMessageToParent

; 563  : 
; 564  : 	SetElementDelete();
; 565  : 	return true;

  0006a	5e		 pop	 esi
  0006b	b0 01		 mov	 al, 1
  0006d	5f		 pop	 edi

; 566  : }

  0006e	c3		 ret	 0
?DeleteCurrentElement@CMainToolImplementation@@QAE_NXZ ENDP ; CMainToolImplementation::DeleteCurrentElement
_TEXT	ENDS
; Function compile flags: /Ogtp
; File D:\git\src\IBK\IBK_DRFN\ProjSrc\SrcChartEx\ChartAddIn\ChartAnalysisToolAddIn\AnalysisTool\MainToolImplementation.cpp
;	COMDAT ?DeleteElement@CMainToolImplementation@@QAE_NW4ElementType@CToolEnumData@@@Z
_TEXT	SEGMENT
_eElementTYPE$ = 8					; size = 4
?DeleteElement@CMainToolImplementation@@QAE_NW4ElementType@CToolEnumData@@@Z PROC ; CMainToolImplementation::DeleteElement, COMDAT
; _this$ = ecx

; 541  : {

  00000	55		 push	 ebp
  00001	8b ec		 mov	 ebp, esp
  00003	56		 push	 esi
  00004	8b f1		 mov	 esi, ecx
  00006	57		 push	 edi

; 542  : 	//SetCurrentAnalysisTool(CAnalysis::EN_ANALYSIS_SELECTION);
; 543  : 	if(!m_analysisData.GetElementTree().DeleteElement(eElementTYPE))

  00007	ff 75 08	 push	 DWORD PTR _eElementTYPE$[ebp]
  0000a	8d 4e 1c	 lea	 ecx, DWORD PTR [esi+28]
  0000d	e8 00 00 00 00	 call	 ?GetElementTree@CAnalysisData@@QAEAAVCElementTree@@XZ ; CAnalysisData::GetElementTree
  00012	8b c8		 mov	 ecx, eax
  00014	e8 00 00 00 00	 call	 ?DeleteElement@CElementTree@@QAE_NW4ElementType@CToolEnumData@@@Z ; CElementTree::DeleteElement
  00019	84 c0		 test	 al, al
  0001b	75 06		 jne	 SHORT $LN2@DeleteElem

; 548  : }

  0001d	5f		 pop	 edi
  0001e	5e		 pop	 esi
  0001f	5d		 pop	 ebp
  00020	c2 04 00	 ret	 4
$LN2@DeleteElem:

; 702  : 	m_toolSingleton.InitializeAllTool();

  00023	8d 8e 98 00 00
	00		 lea	 ecx, DWORD PTR [esi+152]
  00029	e8 00 00 00 00	 call	 ?InitializeAllTool@CToolSingleton@@QAEXXZ ; CToolSingleton::InitializeAllTool

; 703  : 	m_pSelectedElement = NULL;
; 704  : 	m_analysisData.InvalidateAndSendMessageToParent(CCursorShape::OBJECT_NONE);

  0002e	6a 00		 push	 0
  00030	8d 4e 1c	 lea	 ecx, DWORD PTR [esi+28]
  00033	c7 86 94 00 00
	00 00 00 00 00	 mov	 DWORD PTR [esi+148], 0
  0003d	e8 00 00 00 00	 call	 ?InvalidateAndSendMessageToParent@CAnalysisData@@QAEXW4CHARTOBJECT@CCursorShape@@@Z ; CAnalysisData::InvalidateAndSendMessageToParent
  00042	5f		 pop	 edi

; 544  : 		return false;
; 545  : 
; 546  : 	SetElementDelete();
; 547  : 	return true;

  00043	b0 01		 mov	 al, 1

; 548  : }

  00045	5e		 pop	 esi
  00046	5d		 pop	 ebp
  00047	c2 04 00	 ret	 4
?DeleteElement@CMainToolImplementation@@QAE_NW4ElementType@CToolEnumData@@@Z ENDP ; CMainToolImplementation::DeleteElement
_TEXT	ENDS
; Function compile flags: /Ogtp
; File D:\git\src\IBK\IBK_DRFN\ProjSrc\SrcChartEx\ChartAddIn\ChartAnalysisToolAddIn\AnalysisTool\MainToolImplementation.cpp
;	COMDAT ?DeleteAllElement@CMainToolImplementation@@QAEXXZ
_TEXT	SEGMENT
?DeleteAllElement@CMainToolImplementation@@QAEXXZ PROC	; CMainToolImplementation::DeleteAllElement, COMDAT
; _this$ = ecx

; 529  : {

  00000	56		 push	 esi
  00001	8b f1		 mov	 esi, ecx
  00003	57		 push	 edi

; 530  : 	//          
; 531  : 	//SetCurrentAnalysisTool(CAnalysis::EN_ANALYSIS_SELECTION,FALSE);
; 532  : 	m_analysisData.GetElementTree().DeleteAll();

  00004	8d 4e 1c	 lea	 ecx, DWORD PTR [esi+28]
  00007	e8 00 00 00 00	 call	 ?GetElementTree@CAnalysisData@@QAEAAVCElementTree@@XZ ; CAnalysisData::GetElementTree
  0000c	8b c8		 mov	 ecx, eax
  0000e	e8 00 00 00 00	 call	 ?DeleteAll@CElementTree@@QAEXXZ ; CElementTree::DeleteAll

; 533  : 	m_analysisData.GetUndoRedoManager().DeleteAll();

  00013	8d 4e 1c	 lea	 ecx, DWORD PTR [esi+28]
  00016	e8 00 00 00 00	 call	 ?GetUndoRedoManager@CAnalysisData@@QAEAAVCUndoRedoManager@@XZ ; CAnalysisData::GetUndoRedoManager
  0001b	8b c8		 mov	 ecx, eax
  0001d	e8 00 00 00 00	 call	 ?DeleteAll@CUndoRedoManager@@QAEXXZ ; CUndoRedoManager::DeleteAll

; 702  : 	m_toolSingleton.InitializeAllTool();

  00022	8d 8e 98 00 00
	00		 lea	 ecx, DWORD PTR [esi+152]
  00028	e8 00 00 00 00	 call	 ?InitializeAllTool@CToolSingleton@@QAEXXZ ; CToolSingleton::InitializeAllTool

; 703  : 	m_pSelectedElement = NULL;
; 704  : 	m_analysisData.InvalidateAndSendMessageToParent(CCursorShape::OBJECT_NONE);

  0002d	6a 00		 push	 0
  0002f	8d 4e 1c	 lea	 ecx, DWORD PTR [esi+28]
  00032	c7 86 94 00 00
	00 00 00 00 00	 mov	 DWORD PTR [esi+148], 0
  0003c	e8 00 00 00 00	 call	 ?InvalidateAndSendMessageToParent@CAnalysisData@@QAEXW4CHARTOBJECT@CCursorShape@@@Z ; CAnalysisData::InvalidateAndSendMessageToParent
  00041	5f		 pop	 edi
  00042	5e		 pop	 esi

; 534  : //	m_analysisData.GetElementUndoTree().DeleteAll();
; 535  : //	m_analysisData.GetElementRedoTree().DeleteAll();
; 536  : 	SetElementDelete();
; 537  : }

  00043	c3		 ret	 0
?DeleteAllElement@CMainToolImplementation@@QAEXXZ ENDP	; CMainToolImplementation::DeleteAllElement
_TEXT	ENDS
; Function compile flags: /Ogtp
; File D:\git\src\IBK\IBK_DRFN\ProjSrc\SrcChartEx\ChartAddIn\ChartAnalysisToolAddIn\AnalysisTool\MainToolImplementation.cpp
;	COMDAT ?MoveElementTree@CMainToolImplementation@@QAE_NABVCBlockIndex@@0@Z
_TEXT	SEGMENT
_sourceBlockIndex$ = 8					; size = 4
_targetBlockIndex$ = 12					; size = 4
?MoveElementTree@CMainToolImplementation@@QAE_NABVCBlockIndex@@0@Z PROC ; CMainToolImplementation::MoveElementTree, COMDAT
; _this$ = ecx

; 518  : {

  00000	55		 push	 ebp
  00001	8b ec		 mov	 ebp, esp
  00003	56		 push	 esi

; 519  : 	if(!m_analysisData.GetElementTree().MoveElementTree(sourceBlockIndex, targetBlockIndex))

  00004	ff 75 0c	 push	 DWORD PTR _targetBlockIndex$[ebp]
  00007	8b f1		 mov	 esi, ecx
  00009	ff 75 08	 push	 DWORD PTR _sourceBlockIndex$[ebp]
  0000c	8d 4e 1c	 lea	 ecx, DWORD PTR [esi+28]
  0000f	e8 00 00 00 00	 call	 ?GetElementTree@CAnalysisData@@QAEAAVCElementTree@@XZ ; CAnalysisData::GetElementTree
  00014	8b c8		 mov	 ecx, eax
  00016	e8 00 00 00 00	 call	 ?MoveElementTree@CElementTree@@QAE_NABVCBlockIndex@@0@Z ; CElementTree::MoveElementTree
  0001b	84 c0		 test	 al, al
  0001d	75 05		 jne	 SHORT $LN2@MoveElemen
  0001f	5e		 pop	 esi

; 524  : }

  00020	5d		 pop	 ebp
  00021	c2 08 00	 ret	 8
$LN2@MoveElemen:

; 520  : 		return false;
; 521  : 
; 522  : 	m_toolSingleton.InitializeAllTool();

  00024	8d 8e 98 00 00
	00		 lea	 ecx, DWORD PTR [esi+152]
  0002a	e8 00 00 00 00	 call	 ?InitializeAllTool@CToolSingleton@@QAEXXZ ; CToolSingleton::InitializeAllTool

; 523  : 	return true;

  0002f	b0 01		 mov	 al, 1
  00031	5e		 pop	 esi

; 524  : }

  00032	5d		 pop	 ebp
  00033	c2 08 00	 ret	 8
?MoveElementTree@CMainToolImplementation@@QAE_NABVCBlockIndex@@0@Z ENDP ; CMainToolImplementation::MoveElementTree
_TEXT	ENDS
; Function compile flags: /Ogtp
; File D:\git\src\IBK\IBK_DRFN\ProjSrc\SrcChartEx\ChartAddIn\ChartAnalysisToolAddIn\AnalysisTool\MainToolImplementation.cpp
;	COMDAT ?InsertElementTree@CMainToolImplementation@@QAE_NABVCBlockIndex@@@Z
_TEXT	SEGMENT
_insertBlockIndex$ = 8					; size = 4
?InsertElementTree@CMainToolImplementation@@QAE_NABVCBlockIndex@@@Z PROC ; CMainToolImplementation::InsertElementTree, COMDAT
; _this$ = ecx

; 512  : {

  00000	55		 push	 ebp
  00001	8b ec		 mov	 ebp, esp

; 513  : 	return m_analysisData.InsertElementTree(insertBlockIndex);

  00003	83 c1 1c	 add	 ecx, 28			; 0000001cH

; 514  : }

  00006	5d		 pop	 ebp

; 513  : 	return m_analysisData.InsertElementTree(insertBlockIndex);

  00007	e9 00 00 00 00	 jmp	 ?InsertElementTree@CAnalysisData@@QAE_NABVCBlockIndex@@@Z ; CAnalysisData::InsertElementTree
?InsertElementTree@CMainToolImplementation@@QAE_NABVCBlockIndex@@@Z ENDP ; CMainToolImplementation::InsertElementTree
_TEXT	ENDS
; Function compile flags: /Ogtp
; File D:\git\src\IBK\IBK_DRFN\ProjSrc\SrcChartEx\ChartAddIn\ChartAnalysisToolAddIn\AnalysisTool\MainToolImplementation.cpp
;	COMDAT ?BuildElementsFromString@CMainToolImplementation@@QAEXABV?$CStringT@DV?$StrTraitMFC_DLL@DV?$ChTraitsCRT@D@ATL@@@@@ATL@@@Z
_TEXT	SEGMENT
_strElementsData$ = 8					; size = 4
?BuildElementsFromString@CMainToolImplementation@@QAEXABV?$CStringT@DV?$StrTraitMFC_DLL@DV?$ChTraitsCRT@D@ATL@@@@@ATL@@@Z PROC ; CMainToolImplementation::BuildElementsFromString, COMDAT
; _this$ = ecx

; 506  : {

  00000	55		 push	 ebp
  00001	8b ec		 mov	 ebp, esp

; 507  : 	m_analysisData.GetElementTree().BuildElementsFromString(m_analysisData,strElementsData);

  00003	ff 75 08	 push	 DWORD PTR _strElementsData$[ebp]
  00006	83 c1 1c	 add	 ecx, 28			; 0000001cH
  00009	51		 push	 ecx
  0000a	e8 00 00 00 00	 call	 ?GetElementTree@CAnalysisData@@QAEAAVCElementTree@@XZ ; CAnalysisData::GetElementTree
  0000f	8b c8		 mov	 ecx, eax
  00011	e8 00 00 00 00	 call	 ?BuildElementsFromString@CElementTree@@QAEXAAVCAnalysisData@@ABV?$CStringT@DV?$StrTraitMFC_DLL@DV?$ChTraitsCRT@D@ATL@@@@@ATL@@@Z ; CElementTree::BuildElementsFromString

; 508  : }

  00016	5d		 pop	 ebp
  00017	c2 04 00	 ret	 4
?BuildElementsFromString@CMainToolImplementation@@QAEXABV?$CStringT@DV?$StrTraitMFC_DLL@DV?$ChTraitsCRT@D@ATL@@@@@ATL@@@Z ENDP ; CMainToolImplementation::BuildElementsFromString
_TEXT	ENDS
; Function compile flags: /Ogtp
; File D:\git\src\IBK\IBK_DRFN\ProjSrc\SrcChartEx\ChartAddIn\ChartAnalysisToolAddIn\AnalysisTool\MainToolImplementation.cpp
; File C:\Program Files (x86)\Microsoft Visual Studio\2019\Community\VC\Tools\MSVC\14.29.30133\atlmfc\include\atltypes.h
; File D:\git\src\IBK\IBK_DRFN\ProjSrc\SrcChartEx\ChartAddIn\ChartAnalysisToolAddIn\AnalysisTool\MainToolImplementation.cpp
;	COMDAT ?DrawTool@CMainToolImplementation@@QAEXPAVCDC@@@Z
_TEXT	SEGMENT
_pDC$ = 8						; size = 4
?DrawTool@CMainToolImplementation@@QAEXPAVCDC@@@Z PROC	; CMainToolImplementation::DrawTool, COMDAT
; _this$ = ecx

; 482  : {

  00000	55		 push	 ebp
  00001	8b ec		 mov	 ebp, esp
  00003	56		 push	 esi
  00004	8b f1		 mov	 esi, ecx

; 483  : 	//m_pTool = m_toolSingleton.FindTool(C);	
; 484  : 	//   tool .
; 485  : 	if(m_ptOldLBtnUp == m_ptOldMouse)

  00006	8b 46 10	 mov	 eax, DWORD PTR [esi+16]
  00009	8b 4e 14	 mov	 ecx, DWORD PTR [esi+20]
; File C:\Program Files (x86)\Microsoft Visual Studio\2019\Community\VC\Tools\MSVC\14.29.30133\atlmfc\include\atltypes.h

; 458  : 	return (x == point.x && y == point.y);

  0000c	39 46 08	 cmp	 DWORD PTR [esi+8], eax
  0000f	75 05		 jne	 SHORT $LN7@DrawTool
  00011	39 4e 0c	 cmp	 DWORD PTR [esi+12], ecx
  00014	74 1a		 je	 SHORT $LN3@DrawTool
$LN7@DrawTool:
; File D:\git\src\IBK\IBK_DRFN\ProjSrc\SrcChartEx\ChartAddIn\ChartAnalysisToolAddIn\AnalysisTool\MainToolImplementation.cpp

; 654  : 	return (m_pTool != NULL && m_pTool->DoesProcessStarting());

  00016	8b 4e 18	 mov	 ecx, DWORD PTR [esi+24]
  00019	85 c9		 test	 ecx, ecx
  0001b	74 13		 je	 SHORT $LN3@DrawTool
  0001d	e8 00 00 00 00	 call	 ?DoesProcessStarting@CTool@@QBE_NXZ ; CTool::DoesProcessStarting
  00022	84 c0		 test	 al, al
  00024	74 0a		 je	 SHORT $LN3@DrawTool

; 486  : 		return;
; 487  : 
; 488  : 	if(DoesAction())	
; 489  : 	{
; 490  : 		// 2011.01.27 by SYS >>  YYYY()  : / 14Byte  (YYYYMMDDhhmmss)
; 491  : // 		ILPCSTR szHelpMsg = NULL;
; 492  : // 		CString strDataType;	
; 493  : // 		IPacketManager* pPacketManager = m_analysisData.GetPacketManager();
; 494  : // 		pPacketManager->GetHelpMessageItem("UD", szHelpMsg);	//  UD  .	
; 495  : // 		strDataType = szHelpMsg;
; 496  : // 		const CScaleBaseData::HORZSCALEDRAWERTYPE& nDataPeriod = pPacketManager->GetBaseTimeDataType();
; 497  : // 		pPacketManager->Release();
; 498  : 		// 2011.01.27 by SYS <<
; 499  : 
; 500  : 		m_pTool->OnDraw(pDC);	

  00026	8b 4e 18	 mov	 ecx, DWORD PTR [esi+24]
  00029	5e		 pop	 esi
  0002a	8b 01		 mov	 eax, DWORD PTR [ecx]

; 501  : 	}
; 502  : }

  0002c	5d		 pop	 ebp

; 486  : 		return;
; 487  : 
; 488  : 	if(DoesAction())	
; 489  : 	{
; 490  : 		// 2011.01.27 by SYS >>  YYYY()  : / 14Byte  (YYYYMMDDhhmmss)
; 491  : // 		ILPCSTR szHelpMsg = NULL;
; 492  : // 		CString strDataType;	
; 493  : // 		IPacketManager* pPacketManager = m_analysisData.GetPacketManager();
; 494  : // 		pPacketManager->GetHelpMessageItem("UD", szHelpMsg);	//  UD  .	
; 495  : // 		strDataType = szHelpMsg;
; 496  : // 		const CScaleBaseData::HORZSCALEDRAWERTYPE& nDataPeriod = pPacketManager->GetBaseTimeDataType();
; 497  : // 		pPacketManager->Release();
; 498  : 		// 2011.01.27 by SYS <<
; 499  : 
; 500  : 		m_pTool->OnDraw(pDC);	

  0002d	ff 60 14	 jmp	 DWORD PTR [eax+20]
$LN3@DrawTool:
  00030	5e		 pop	 esi

; 501  : 	}
; 502  : }

  00031	5d		 pop	 ebp
  00032	c2 04 00	 ret	 4
?DrawTool@CMainToolImplementation@@QAEXPAVCDC@@@Z ENDP	; CMainToolImplementation::DrawTool
_TEXT	ENDS
; Function compile flags: /Ogtp
; File D:\git\src\IBK\IBK_DRFN\ProjSrc\SrcChartEx\ChartAddIn\ChartAnalysisToolAddIn\AnalysisTool\MainToolImplementation.cpp
;	COMDAT ?OnDraw@CMainToolImplementation@@QAEXPAVCDC@@@Z
_TEXT	SEGMENT
_pDC$ = 8						; size = 4
?OnDraw@CMainToolImplementation@@QAEXPAVCDC@@@Z PROC	; CMainToolImplementation::OnDraw, COMDAT
; _this$ = ecx

; 471  : {

  00000	55		 push	 ebp
  00001	8b ec		 mov	 ebp, esp
  00003	56		 push	 esi
  00004	8b f1		 mov	 esi, ecx

; 472  : 	// element / grip .
; 473  : 	m_analysisData.DrawElement(pDC, m_pSelectedElement);

  00006	ff b6 94 00 00
	00		 push	 DWORD PTR [esi+148]
  0000c	8d 4e 1c	 lea	 ecx, DWORD PTR [esi+28]
  0000f	ff 75 08	 push	 DWORD PTR _pDC$[ebp]
  00012	e8 00 00 00 00	 call	 ?DrawElement@CAnalysisData@@QAEXPAVCDC@@PAVCElement@@@Z ; CAnalysisData::DrawElement

; 474  : 	
; 475  : 	//   tool .
; 476  : 	//if(DoesAction())
; 477  : 	if(m_pTool != NULL && m_pSelectedElement != NULL)

  00017	8b 4e 18	 mov	 ecx, DWORD PTR [esi+24]
  0001a	85 c9		 test	 ecx, ecx
  0001c	74 10		 je	 SHORT $LN2@OnDraw
  0001e	83 be 94 00 00
	00 00		 cmp	 DWORD PTR [esi+148], 0
  00025	74 07		 je	 SHORT $LN2@OnDraw

; 478  : 		m_pTool->OnDraw(pDC);	

  00027	8b 01		 mov	 eax, DWORD PTR [ecx]
  00029	5e		 pop	 esi

; 479  : }

  0002a	5d		 pop	 ebp

; 478  : 		m_pTool->OnDraw(pDC);	

  0002b	ff 60 14	 jmp	 DWORD PTR [eax+20]
$LN2@OnDraw:
  0002e	5e		 pop	 esi

; 479  : }

  0002f	5d		 pop	 ebp
  00030	c2 04 00	 ret	 4
?OnDraw@CMainToolImplementation@@QAEXPAVCDC@@@Z ENDP	; CMainToolImplementation::OnDraw
_TEXT	ENDS
; Function compile flags: /Ogtp
; File D:\git\src\IBK\IBK_DRFN\ProjSrc\SrcChartEx\ChartAddIn\ChartAnalysisToolAddIn\AnalysisTool\MainToolImplementation.cpp
; File C:\Program Files (x86)\Microsoft Visual Studio\2019\Community\VC\Tools\MSVC\14.29.30133\atlmfc\include\atltypes.h
; File D:\git\src\IBK\IBK_DRFN\ProjSrc\SrcChartEx\ChartAddIn\ChartAnalysisToolAddIn\AnalysisTool\MainToolImplementation.cpp
; File C:\Program Files (x86)\Microsoft Visual Studio\2019\Community\VC\Tools\MSVC\14.29.30133\atlmfc\include\atltypes.h
; File D:\git\src\IBK\IBK_DRFN\ProjSrc\SrcChartEx\ChartAddIn\ChartAnalysisToolAddIn\AnalysisTool\MainToolImplementation.cpp
; File D:\git\src\IBK\IBK_DRFN\ProjSrc\SrcChartEx\ChartAddIn\ChartAnalysisToolAddIn\Include_AddIn_133101\I133101\_IString.h
; File D:\git\src\IBK\IBK_DRFN\ProjSrc\SrcChartEx\ChartAddIn\ChartAnalysisToolAddIn\AnalysisTool\MainToolImplementation.cpp
; File D:\git\src\IBK\IBK_DRFN\ProjSrc\SrcChartEx\ChartAddIn\ChartAnalysisToolAddIn\Include_AddIn_133101\I133101\_IString.h
; File D:\git\src\IBK\IBK_DRFN\ProjSrc\SrcChartEx\ChartAddIn\ChartAnalysisToolAddIn\AnalysisTool\MainToolImplementation.cpp
; File C:\Program Files (x86)\Microsoft Visual Studio\2019\Community\VC\Tools\MSVC\14.29.30133\atlmfc\include\cstringt.h
; File D:\git\src\IBK\IBK_DRFN\ProjSrc\SrcChartEx\ChartAddIn\ChartAnalysisToolAddIn\AnalysisTool\MainToolImplementation.cpp
; File C:\Program Files (x86)\Microsoft Visual Studio\2019\Community\VC\Tools\MSVC\14.29.30133\atlmfc\include\cstringt.h
; File D:\git\src\IBK\IBK_DRFN\ProjSrc\SrcChartEx\ChartAddIn\ChartAnalysisToolAddIn\AnalysisTool\MainToolImplementation.cpp
; File D:\git\src\IBK\IBK_DRFN\ProjSrc\SrcChartEx\ChartAddIn\ChartAnalysisToolAddIn\AnalysisTool\AnalysisData.h
; File D:\git\src\IBK\IBK_DRFN\ProjSrc\SrcChartEx\ChartAddIn\ChartAnalysisToolAddIn\AnalysisTool\MainToolImplementation.cpp
; File D:\git\src\IBK\IBK_DRFN\ProjSrc\SrcChartEx\ChartAddIn\ChartAnalysisToolAddIn\AnalysisTool\AnalysisData.h
; File D:\git\src\IBK\IBK_DRFN\ProjSrc\SrcChartEx\ChartAddIn\ChartAnalysisToolAddIn\Include_Chart\Conversion.h
; File D:\git\src\IBK\IBK_DRFN\ProjSrc\SrcChartEx\ChartAddIn\ChartAnalysisToolAddIn\AnalysisTool\MainToolImplementation.cpp
; File D:\git\src\IBK\IBK_DRFN\ProjSrc\SrcChartEx\ChartAddIn\ChartAnalysisToolAddIn\Include_Chart\Conversion.h
; File D:\git\src\IBK\IBK_DRFN\ProjSrc\SrcChartEx\ChartAddIn\ChartAnalysisToolAddIn\AnalysisTool\MainToolImplementation.cpp
; File D:\git\src\IBK\IBK_DRFN\ProjSrc\SrcChartEx\ChartAddIn\ChartAnalysisToolAddIn\AnalysisTool\AnalysisData.h
; File D:\git\src\IBK\IBK_DRFN\ProjSrc\SrcChartEx\ChartAddIn\ChartAnalysisToolAddIn\AnalysisTool\MainToolImplementation.cpp
; File D:\git\src\IBK\IBK_DRFN\ProjSrc\SrcChartEx\ChartAddIn\ChartAnalysisToolAddIn\AnalysisTool\AnalysisData.h
; File D:\git\src\IBK\IBK_DRFN\ProjSrc\SrcChartEx\ChartAddIn\ChartAnalysisToolAddIn\Include_Chart\Conversion.h
; File D:\git\src\IBK\IBK_DRFN\ProjSrc\SrcChartEx\ChartAddIn\ChartAnalysisToolAddIn\AnalysisTool\MainToolImplementation.cpp
; File D:\git\src\IBK\IBK_DRFN\ProjSrc\SrcChartEx\ChartAddIn\ChartAnalysisToolAddIn\Include_Chart\Conversion.h
; File D:\git\src\IBK\IBK_DRFN\ProjSrc\SrcChartEx\ChartAddIn\ChartAnalysisToolAddIn\AnalysisTool\MainToolImplementation.cpp
; File D:\git\src\IBK\IBK_DRFN\ProjSrc\SrcChartEx\ChartAddIn\ChartAnalysisToolAddIn\Include_AddIn_133101\I133101\_IString.h
; File D:\git\src\IBK\IBK_DRFN\ProjSrc\SrcChartEx\ChartAddIn\ChartAnalysisToolAddIn\AnalysisTool\MainToolImplementation.cpp
; File D:\git\src\IBK\IBK_DRFN\ProjSrc\SrcChartEx\ChartAddIn\ChartAnalysisToolAddIn\Include_AddIn_133101\I133101\_IString.h
; File D:\git\src\IBK\IBK_DRFN\ProjSrc\SrcChartEx\ChartAddIn\ChartAnalysisToolAddIn\AnalysisTool\MainToolImplementation.cpp
; File D:\git\src\IBK\IBK_DRFN\ProjSrc\SrcChartEx\ChartAddIn\ChartAnalysisToolAddIn\Include_AddIn_133101\I133101\_IString.h
; File D:\git\src\IBK\IBK_DRFN\ProjSrc\SrcChartEx\ChartAddIn\ChartAnalysisToolAddIn\AnalysisTool\MainToolImplementation.cpp
;	COMDAT ?GetCurrentPosData@CMainToolImplementation@@QAEHVCPoint@@AAV?$CStringT@DV?$StrTraitMFC_DLL@DV?$ChTraitsCRT@D@ATL@@@@@ATL@@1@Z
_TEXT	SEGMENT
_cdResult$2 = -272					; size = 32
_strTextRight$GSCopy$1$ = -240				; size = 4
_dX$3 = -236						; size = 8
$T4 = -232						; size = 4
$T5 = -232						; size = 4
tv814 = -228						; size = 4
$T6 = -228						; size = 4
_strPacketType$7 = -224					; size = 4
_szPacketType$8 = -220					; size = 8
tv812 = -216						; size = 4
$T9 = -216						; size = 4
$T10 = -216						; size = 4
$T11 = -216						; size = 4
_strTextBottom$GSCopy$1$ = -212				; size = 4
_strPacketType$12 = -212				; size = 4
_this$GSCopy$1$ = -208					; size = 4
_pIPacket$1$ = -204					; size = 4
$T13 = -204						; size = 4
$T14 = -204						; size = 4
_pIChartManager$1$ = -200				; size = 4
$T15 = -200						; size = 4
$T16 = -200						; size = 4
_strFormat$17 = -196					; size = 4
_strPacketType$18 = -196				; size = 4
_calData$19 = -192					; size = 96
_rectRegion$ = -96					; size = 16
$T20 = -80						; size = 32
$T21 = -80						; size = 32
$T22 = -64						; size = 16
$T23 = -56						; size = 8
$T24 = -56						; size = 8
$T25 = -56						; size = 8
$T26 = -56						; size = 8
$T27 = -48						; size = 16
_szPacketType$28 = -40					; size = 8
_dY$29 = -40						; size = 8
$T30 = -32						; size = 16
$T31 = -24						; size = 8
_szPacketType$32 = -24					; size = 8
$T33 = -24						; size = 8
$T34 = -24						; size = 8
__$ArrayPad$ = -16					; size = 4
__$EHRec$ = -12						; size = 12
_point$ = 8						; size = 8
_strTextRight$ = 16					; size = 4
_strTextBottom$ = 20					; size = 4
?GetCurrentPosData@CMainToolImplementation@@QAEHVCPoint@@AAV?$CStringT@DV?$StrTraitMFC_DLL@DV?$ChTraitsCRT@D@ATL@@@@@ATL@@1@Z PROC ; CMainToolImplementation::GetCurrentPosData, COMDAT
; _this$ = ecx

; 341  : {

  00000	55		 push	 ebp
  00001	8b ec		 mov	 ebp, esp
  00003	6a ff		 push	 -1
  00005	68 00 00 00 00	 push	 __ehhandler$?GetCurrentPosData@CMainToolImplementation@@QAEHVCPoint@@AAV?$CStringT@DV?$StrTraitMFC_DLL@DV?$ChTraitsCRT@D@ATL@@@@@ATL@@1@Z
  0000a	64 a1 00 00 00
	00		 mov	 eax, DWORD PTR fs:0
  00010	50		 push	 eax
  00011	81 ec 04 01 00
	00		 sub	 esp, 260		; 00000104H
  00017	a1 00 00 00 00	 mov	 eax, DWORD PTR ___security_cookie
  0001c	33 c5		 xor	 eax, ebp
  0001e	89 45 f0	 mov	 DWORD PTR __$ArrayPad$[ebp], eax
  00021	53		 push	 ebx
  00022	56		 push	 esi
  00023	57		 push	 edi
  00024	50		 push	 eax
  00025	8d 45 f4	 lea	 eax, DWORD PTR __$EHRec$[ebp]
  00028	64 a3 00 00 00
	00		 mov	 DWORD PTR fs:0, eax
  0002e	8b d9		 mov	 ebx, ecx
  00030	89 9d 30 ff ff
	ff		 mov	 DWORD PTR _this$GSCopy$1$[ebp], ebx
  00036	8b 45 10	 mov	 eax, DWORD PTR _strTextRight$[ebp]

; 342  : 	strTextRight.Empty();

  00039	8b c8		 mov	 ecx, eax
  0003b	8b 75 14	 mov	 esi, DWORD PTR _strTextBottom$[ebp]
  0003e	89 85 10 ff ff
	ff		 mov	 DWORD PTR _strTextRight$GSCopy$1$[ebp], eax
  00044	89 b5 2c ff ff
	ff		 mov	 DWORD PTR _strTextBottom$GSCopy$1$[ebp], esi
  0004a	ff 15 00 00 00
	00		 call	 DWORD PTR __imp_?Empty@?$CSimpleStringT@D$00@ATL@@QAEXXZ

; 343  : 	strTextBottom.Empty();

  00050	8b ce		 mov	 ecx, esi
  00052	ff 15 00 00 00
	00		 call	 DWORD PTR __imp_?Empty@?$CSimpleStringT@D$00@ATL@@QAEXXZ

; 344  : 	IChartManager *pIChartManager = m_analysisData.GetMainBlock();

  00058	83 c3 1c	 add	 ebx, 28			; 0000001cH
  0005b	8b cb		 mov	 ecx, ebx
  0005d	e8 00 00 00 00	 call	 ?GetMainBlock@CAnalysisData@@QBEPAUIChartManager133101@@XZ ; CAnalysisData::GetMainBlock

; 345  : 	CRect rectRegion = pIChartManager->GetGraphRegionSumInColumn(point);

  00062	ff 75 0c	 push	 DWORD PTR _point$[ebp+4]
  00065	8b f8		 mov	 edi, eax
  00067	8d 45 d0	 lea	 eax, DWORD PTR $T27[ebp]
  0006a	ff 75 08	 push	 DWORD PTR _point$[ebp]
  0006d	8b cf		 mov	 ecx, edi
  0006f	89 bd 38 ff ff
	ff		 mov	 DWORD PTR _pIChartManager$1$[ebp], edi
  00075	50		 push	 eax
  00076	8b 17		 mov	 edx, DWORD PTR [edi]
  00078	ff 92 88 00 00
	00		 call	 DWORD PTR [edx+136]
; File C:\Program Files (x86)\Microsoft Visual Studio\2019\Community\VC\Tools\MSVC\14.29.30133\atlmfc\include\atltypes.h

; 548  : 	::CopyRect(this, &srcRect);

  0007e	50		 push	 eax
  0007f	8d 45 a0	 lea	 eax, DWORD PTR _rectRegion$[ebp]
  00082	50		 push	 eax
  00083	ff 15 00 00 00
	00		 call	 DWORD PTR __imp__CopyRect@8
; File D:\git\src\IBK\IBK_DRFN\ProjSrc\SrcChartEx\ChartAddIn\ChartAnalysisToolAddIn\AnalysisTool\MainToolImplementation.cpp

; 349  : 	IPacketManager* pPacketManager = m_analysisData.GetPacketManager();

  00089	8b cb		 mov	 ecx, ebx
  0008b	e8 00 00 00 00	 call	 ?GetPacketManager@CAnalysisData@@QBEPAUIPacketManager133101@@XZ ; CAnalysisData::GetPacketManager
  00090	8b f0		 mov	 esi, eax

; 350  : 	const CScaleBaseData::HORZSCALEDRAWERTYPE& nDataPeriod = pPacketManager->GetBaseTimeDataType();

  00092	8b ce		 mov	 ecx, esi
  00094	8b 16		 mov	 edx, DWORD PTR [esi]
  00096	ff 52 2c	 call	 DWORD PTR [edx+44]

; 351  : 	pPacketManager->Release();

  00099	8b 0e		 mov	 ecx, DWORD PTR [esi]
  0009b	56		 push	 esi
  0009c	ff 51 08	 call	 DWORD PTR [ecx+8]
; File C:\Program Files (x86)\Microsoft Visual Studio\2019\Community\VC\Tools\MSVC\14.29.30133\atlmfc\include\atltypes.h

; 648  : 	return ::PtInRect(this, point);

  0009f	ff 75 0c	 push	 DWORD PTR _point$[ebp+4]
  000a2	8d 45 a0	 lea	 eax, DWORD PTR _rectRegion$[ebp]
  000a5	ff 75 08	 push	 DWORD PTR _point$[ebp]
  000a8	50		 push	 eax
  000a9	ff 15 00 00 00
	00		 call	 DWORD PTR __imp__PtInRect@12
; File D:\git\src\IBK\IBK_DRFN\ProjSrc\SrcChartEx\ChartAddIn\ChartAnalysisToolAddIn\AnalysisTool\MainToolImplementation.cpp

; 353  : 	if(rectRegion.PtInRect(point) == TRUE)

  000af	83 f8 01	 cmp	 eax, 1
  000b2	0f 85 36 06 00
	00		 jne	 $LN4@GetCurrent

; 354  : 	{
; 355  : 		CCoordinateCalculatorData calData = m_analysisData.GetCoordinateCalculatorData(point);

  000b8	8d 45 08	 lea	 eax, DWORD PTR _point$[ebp]
  000bb	8b cb		 mov	 ecx, ebx
  000bd	50		 push	 eax
  000be	8d 85 40 ff ff
	ff		 lea	 eax, DWORD PTR _calData$19[ebp]
  000c4	50		 push	 eax
  000c5	e8 00 00 00 00	 call	 ?GetCoordinateCalculatorData@CAnalysisData@@QBE?AVCCoordinateCalculatorData@@ABVCPoint@@@Z ; CAnalysisData::GetCoordinateCalculatorData

; 356  : 		if(calData.GetDisplayDataEnd() < 0)

  000ca	8d 8d 40 ff ff
	ff		 lea	 ecx, DWORD PTR _calData$19[ebp]
  000d0	c7 45 fc 00 00
	00 00		 mov	 DWORD PTR __$EHRec$[ebp+8], 0
  000d7	e8 00 00 00 00	 call	 ?GetDisplayDataEnd@CCoordinateCalculatorData@@QBEHXZ ; CCoordinateCalculatorData::GetDisplayDataEnd
  000dc	85 c0		 test	 eax, eax
  000de	78 17		 js	 SHORT $LN109@GetCurrent

; 357  : 		{
; 358  : 			pIChartManager->Release();
; 359  : 			return FALSE;
; 360  : 		}
; 361  : 		
; 362  : 		IPacket *pIPacket = calData.GetPacket_X();

  000e0	8d 8d 40 ff ff
	ff		 lea	 ecx, DWORD PTR _calData$19[ebp]
  000e6	e8 00 00 00 00	 call	 ?GetPacket_X@CCoordinateCalculatorData@@QBEPAUIPacket133101@@XZ ; CCoordinateCalculatorData::GetPacket_X
  000eb	8b d8		 mov	 ebx, eax
  000ed	89 9d 34 ff ff
	ff		 mov	 DWORD PTR _pIPacket$1$[ebp], ebx

; 363  : //		if(pIPacket == NULL) return FALSE;
; 364  : 		if(pIPacket == NULL)

  000f3	85 db		 test	 ebx, ebx
  000f5	75 18		 jne	 SHORT $LN6@GetCurrent
$LN109@GetCurrent:

; 402  : 				return FALSE;

  000f7	8b 07		 mov	 eax, DWORD PTR [edi]
  000f9	57		 push	 edi
  000fa	ff 50 08	 call	 DWORD PTR [eax+8]
  000fd	8d 8d 40 ff ff
	ff		 lea	 ecx, DWORD PTR _calData$19[ebp]
  00103	e8 00 00 00 00	 call	 ??1CCoordinateCalculatorData@@QAE@XZ ; CCoordinateCalculatorData::~CCoordinateCalculatorData
  00108	33 c0		 xor	 eax, eax
  0010a	e9 ea 05 00 00	 jmp	 $LN1@GetCurrent
$LN6@GetCurrent:

; 365  : 		{
; 366  : 			pIChartManager->Release();
; 367  : 			return FALSE;
; 368  : 		}
; 369  : 		
; 370  : 		CCoordinate cdResult;

  0010f	8d 8d f0 fe ff
	ff		 lea	 ecx, DWORD PTR _cdResult$2[ebp]
  00115	e8 00 00 00 00	 call	 ??0CCoordinate@@QAE@XZ	; CCoordinate::CCoordinate

; 371  : 		if( !(pIPacket != NULL && pIPacket->GetDataCount() > 0)) 

  0011a	8b 03		 mov	 eax, DWORD PTR [ebx]
  0011c	8b cb		 mov	 ecx, ebx
  0011e	c6 45 fc 01	 mov	 BYTE PTR __$EHRec$[ebp+8], 1
  00122	ff 50 2c	 call	 DWORD PTR [eax+44]
  00125	85 c0		 test	 eax, eax
  00127	0f 8e a3 01 00
	00		 jle	 $LN9@GetCurrent

; 374  : 		}
; 375  : 		else
; 376  : 		{
; 377  : 			// XScale :  Interface  - vntsorl(20070327)
; 378  : //			int nIndex = CDataConversion::GetPacketDataIndex_Date(calData.GetRegion(), point, 
; 379  : //						calData.GetDisplayDataStart(), calData.GetDisplayDataEnd());
; 380  : 			int nIndex = pIChartManager->FindViewDataIndex_Pt("DEFAULT", point.x);

  0012d	8b 07		 mov	 eax, DWORD PTR [edi]
  0012f	8b cf		 mov	 ecx, edi
  00131	6a 00		 push	 0
  00133	6a 00		 push	 0
  00135	ff 75 08	 push	 DWORD PTR _point$[ebp]
  00138	68 00 00 00 00	 push	 OFFSET ??_C@_07MGCPDNLD@DEFAULT@
  0013d	ff 90 04 01 00
	00		 call	 DWORD PTR [eax+260]

; 381  : 			
; 382  : 			double dX = 0.0;
; 383  : 			if( pIPacket) pIPacket->GetDataPastandFuture(nIndex, dX);

  00143	8b 13		 mov	 edx, DWORD PTR [ebx]
  00145	8d 8d 14 ff ff
	ff		 lea	 ecx, DWORD PTR _dX$3[ebp]
  0014b	51		 push	 ecx
  0014c	0f 57 c0	 xorps	 xmm0, xmm0
  0014f	8b cb		 mov	 ecx, ebx
  00151	50		 push	 eax
  00152	f2 0f 11 85 14
	ff ff ff	 movsd	 QWORD PTR _dX$3[ebp], xmm0
  0015a	ff 52 44	 call	 DWORD PTR [edx+68]

; 384  : 
; 385  : 
; 386  : 			//>>[20110518]alzioyes: Y Log 
; 387  : 			//double dY = CDataConversion::AbsoluteToRelative_Y(calData.GetRegion(), point.y, 
; 388  : 			//		calData.GetDisplayDataMin_ScaleType(), calData.GetDisplayDataMax_ScaleType());
; 389  : 
; 390  : 			CDisplayDataVertMinMax& DispDataVertMinMax = calData.GetDisplayDataVertMinMax();

  0015d	8d 8d 40 ff ff
	ff		 lea	 ecx, DWORD PTR _calData$19[ebp]
  00163	e8 00 00 00 00	 call	 ?GetDisplayDataVertMinMax@CCoordinateCalculatorData@@QAEAAVCDisplayDataVertMinMax@@XZ ; CCoordinateCalculatorData::GetDisplayDataVertMinMax
  00168	8b f8		 mov	 edi, eax

; 391  : 			
; 392  : 			BOOL bLog = DispDataVertMinMax.GetVertScaleType().IsLog();

  0016a	8b cf		 mov	 ecx, edi
  0016c	e8 00 00 00 00	 call	 ?GetVertScaleType@CDisplayDataVertMinMax@@QAEAAVCVertScaleType@@XZ ; CDisplayDataVertMinMax::GetVertScaleType
  00171	8b c8		 mov	 ecx, eax
  00173	e8 00 00 00 00	 call	 ?IsLog@CVertScaleType@@QBE_NXZ ; CVertScaleType::IsLog

; 393  : 			BOOL bReverse = DispDataVertMinMax.GetVertScaleType().IsInvert();

  00178	8b cf		 mov	 ecx, edi
  0017a	0f b6 f0	 movzx	 esi, al
  0017d	e8 00 00 00 00	 call	 ?GetVertScaleType@CDisplayDataVertMinMax@@QAEAAVCVertScaleType@@XZ ; CDisplayDataVertMinMax::GetVertScaleType
  00182	8b c8		 mov	 ecx, eax
  00184	e8 00 00 00 00	 call	 ?IsInvert@CVertScaleType@@QBE_NXZ ; CVertScaleType::IsInvert
  00189	0f b6 c8	 movzx	 ecx, al

; 394  : 			double dY = m_pIChartOCX->ConvertYPositionToData(point.y, calData.GetRegion().top, calData.GetRegion().bottom, DispDataVertMinMax.GetMax(), DispDataVertMinMax.GetMin(), bLog, bReverse);

  0018c	8b 85 30 ff ff
	ff		 mov	 eax, DWORD PTR _this$GSCopy$1$[ebp]
  00192	51		 push	 ecx
  00193	56		 push	 esi
  00194	8b cf		 mov	 ecx, edi
  00196	8b 40 04	 mov	 eax, DWORD PTR [eax+4]
  00199	8b 18		 mov	 ebx, DWORD PTR [eax]
  0019b	e8 00 00 00 00	 call	 ?GetMin@CDisplayDataVertMinMax@@QBENXZ ; CDisplayDataVertMinMax::GetMin
  001a0	83 ec 08	 sub	 esp, 8
  001a3	8b cf		 mov	 ecx, edi
  001a5	dd 1c 24	 fstp	 QWORD PTR [esp]
  001a8	e8 00 00 00 00	 call	 ?GetMax@CDisplayDataVertMinMax@@QBENXZ ; CDisplayDataVertMinMax::GetMax
  001ad	83 ec 08	 sub	 esp, 8
  001b0	8d 45 c0	 lea	 eax, DWORD PTR $T22[ebp]
  001b3	8d 8d 40 ff ff
	ff		 lea	 ecx, DWORD PTR _calData$19[ebp]
  001b9	dd 1c 24	 fstp	 QWORD PTR [esp]
  001bc	50		 push	 eax
  001bd	e8 00 00 00 00	 call	 ?GetRegion@CCoordinateCalculatorData@@QBE?AVCRect@@XZ ; CCoordinateCalculatorData::GetRegion
  001c2	8d 8d 40 ff ff
	ff		 lea	 ecx, DWORD PTR _calData$19[ebp]
  001c8	8b 40 0c	 mov	 eax, DWORD PTR [eax+12]
  001cb	50		 push	 eax
  001cc	8d 45 e0	 lea	 eax, DWORD PTR $T30[ebp]
  001cf	50		 push	 eax
  001d0	e8 00 00 00 00	 call	 ?GetRegion@CCoordinateCalculatorData@@QBE?AVCRect@@XZ ; CCoordinateCalculatorData::GetRegion
  001d5	8b b5 30 ff ff
	ff		 mov	 esi, DWORD PTR _this$GSCopy$1$[ebp]
  001db	8b 40 04	 mov	 eax, DWORD PTR [eax+4]
  001de	8b 4e 04	 mov	 ecx, DWORD PTR [esi+4]
  001e1	50		 push	 eax
  001e2	ff 75 0c	 push	 DWORD PTR _point$[ebp+4]
  001e5	8b 83 2c 01 00
	00		 mov	 eax, DWORD PTR [ebx+300]
  001eb	ff d0		 call	 eax

; 395  : 			//<<[20110518]alzioyes: Y Log 
; 396  : 
; 397  : 			// (2007/5/10 - Seung-Won, Bae) Check No Y Scale Min/Max.
; 398  : 			if( -HUGE_VAL == dY)

  001ed	f2 0f 10 05 00
	00 00 00	 movsd	 xmm0, QWORD PTR __real@fff0000000000000
  001f5	8b 9d 34 ff ff
	ff		 mov	 ebx, DWORD PTR _pIPacket$1$[ebp]
  001fb	dd 5d d8	 fstp	 QWORD PTR _dY$29[ebp]
  001fe	66 0f 2e 45 d8	 ucomisd xmm0, QWORD PTR _dY$29[ebp]
  00203	8b 13		 mov	 edx, DWORD PTR [ebx]
  00205	9f		 lahf
  00206	f6 c4 44	 test	 ah, 68			; 00000044H
  00209	7a 2e		 jp	 SHORT $LN11@GetCurrent

; 399  : 			{
; 400  : 				if( pIPacket) pIPacket->Release();

  0020b	53		 push	 ebx
  0020c	ff 52 08	 call	 DWORD PTR [edx+8]

; 401  : 				pIChartManager->Release();

  0020f	8b 8d 38 ff ff
	ff		 mov	 ecx, DWORD PTR _pIChartManager$1$[ebp]
  00215	51		 push	 ecx
  00216	8b 01		 mov	 eax, DWORD PTR [ecx]
  00218	ff 50 08	 call	 DWORD PTR [eax+8]
  0021b	8d 8d 04 ff ff
	ff		 lea	 ecx, DWORD PTR _cdResult$2[ebp+20]
  00221	ff 15 00 00 00
	00		 call	 DWORD PTR __imp_??1?$CStringT@DV?$StrTraitMFC_DLL@DV?$ChTraitsCRT@D@ATL@@@@@ATL@@QAE@XZ

; 402  : 				return FALSE;

  00227	8d 8d 40 ff ff
	ff		 lea	 ecx, DWORD PTR _calData$19[ebp]
  0022d	e8 00 00 00 00	 call	 ??1CCoordinateCalculatorData@@QAE@XZ ; CCoordinateCalculatorData::~CCoordinateCalculatorData
  00232	33 c0		 xor	 eax, eax
  00234	e9 c0 04 00 00	 jmp	 $LN1@GetCurrent
$LN11@GetCurrent:

; 406  : 			ILPCSTR szPacketType = pIPacket->GetType();

  00239	6a 01		 push	 1
  0023b	8b cb		 mov	 ecx, ebx
  0023d	ff 52 1c	 call	 DWORD PTR [edx+28]
; File D:\git\src\IBK\IBK_DRFN\ProjSrc\SrcChartEx\ChartAddIn\ChartAnalysisToolAddIn\Include_AddIn_133101\I133101\_IString.h

; 39   : 		m_pIStrData = p_pIString;	// Do not AddRef(). Because It must be Return Value.

  00240	89 85 28 ff ff
	ff		 mov	 DWORD PTR _szPacketType$8[ebp+4], eax

; 40   : 		if( m_pIStrData) m_szData = m_pIStrData->GetData();

  00246	85 c0		 test	 eax, eax
  00248	74 09		 je	 SHORT $LN59@GetCurrent
  0024a	8b 10		 mov	 edx, DWORD PTR [eax]
  0024c	8b c8		 mov	 ecx, eax
  0024e	ff 52 10	 call	 DWORD PTR [edx+16]
  00251	eb 02		 jmp	 SHORT $LN110@GetCurrent
$LN59@GetCurrent:

; 41   : 		else m_szData = NULL;

  00253	33 c0		 xor	 eax, eax
$LN110@GetCurrent:
; File D:\git\src\IBK\IBK_DRFN\ProjSrc\SrcChartEx\ChartAddIn\ChartAnalysisToolAddIn\AnalysisTool\MainToolImplementation.cpp

; 406  : 			ILPCSTR szPacketType = pIPacket->GetType();

  00255	89 85 24 ff ff
	ff		 mov	 DWORD PTR _szPacketType$8[ebp], eax

; 407  : 			CString strPacketType( szPacketType);

  0025b	50		 push	 eax
  0025c	8d 8d 3c ff ff
	ff		 lea	 ecx, DWORD PTR _strPacketType$18[ebp]
  00262	c6 45 fc 03	 mov	 BYTE PTR __$EHRec$[ebp+8], 3
  00266	ff 15 00 00 00
	00		 call	 DWORD PTR __imp_??0?$CStringT@DV?$StrTraitMFC_DLL@DV?$ChTraitsCRT@D@ATL@@@@@ATL@@QAE@PBD@Z

; 408  : 			// 20081007 JS.Kim	 
; 409  : 			cdResult = CCoordinate(dX, dY, pIPacket->GetBaseTimeDifference(), strPacketType, 0);

  0026c	6a 00		 push	 0
  0026e	8d 85 3c ff ff
	ff		 lea	 eax, DWORD PTR _strPacketType$18[ebp]
  00274	c6 45 fc 04	 mov	 BYTE PTR __$EHRec$[ebp+8], 4
  00278	50		 push	 eax
  00279	8b 03		 mov	 eax, DWORD PTR [ebx]
  0027b	8b cb		 mov	 ecx, ebx
  0027d	ff 50 60	 call	 DWORD PTR [eax+96]
  00280	50		 push	 eax
  00281	8d 45 d8	 lea	 eax, DWORD PTR _dY$29[ebp]
  00284	50		 push	 eax
  00285	8d 85 14 ff ff
	ff		 lea	 eax, DWORD PTR _dX$3[ebp]
  0028b	50		 push	 eax
  0028c	8d 4d b0	 lea	 ecx, DWORD PTR $T20[ebp]
  0028f	e8 00 00 00 00	 call	 ??0CCoordinate@@QAE@ABN0HABV?$CStringT@DV?$StrTraitMFC_DLL@DV?$ChTraitsCRT@D@ATL@@@@@ATL@@H@Z ; CCoordinate::CCoordinate
  00294	50		 push	 eax
  00295	8d 8d f0 fe ff
	ff		 lea	 ecx, DWORD PTR _cdResult$2[ebp]
  0029b	c6 45 fc 05	 mov	 BYTE PTR __$EHRec$[ebp+8], 5
  0029f	e8 00 00 00 00	 call	 ??4CCoordinate@@QAEAAV0@ABV0@@Z ; CCoordinate::operator=
  002a4	8d 4d c4	 lea	 ecx, DWORD PTR $T20[ebp+20]
  002a7	ff 15 00 00 00
	00		 call	 DWORD PTR __imp_??1?$CStringT@DV?$StrTraitMFC_DLL@DV?$ChTraitsCRT@D@ATL@@@@@ATL@@QAE@XZ

; 410  : 		}

  002ad	8d 8d 3c ff ff
	ff		 lea	 ecx, DWORD PTR _strPacketType$18[ebp]
  002b3	ff 15 00 00 00
	00		 call	 DWORD PTR __imp_??1?$CStringT@DV?$StrTraitMFC_DLL@DV?$ChTraitsCRT@D@ATL@@@@@ATL@@QAE@XZ
  002b9	8d 8d 24 ff ff
	ff		 lea	 ecx, DWORD PTR _szPacketType$8[ebp]
  002bf	c6 45 fc 01	 mov	 BYTE PTR __$EHRec$[ebp+8], 1
  002c3	e8 00 00 00 00	 call	 ??1ILPCSTR133101@@QAE@XZ ; ILPCSTR133101::~ILPCSTR133101
  002c8	8b bd 38 ff ff
	ff		 mov	 edi, DWORD PTR _pIChartManager$1$[ebp]
  002ce	eb 2f		 jmp	 SHORT $LN8@GetCurrent
$LN9@GetCurrent:

; 372  : 		{
; 373  : 			cdResult = CCoordinate(point);

  002d0	8d 45 08	 lea	 eax, DWORD PTR _point$[ebp]
  002d3	50		 push	 eax
  002d4	8d 4d b0	 lea	 ecx, DWORD PTR $T21[ebp]
  002d7	e8 00 00 00 00	 call	 ??0CCoordinate@@QAE@ABVCPoint@@@Z ; CCoordinate::CCoordinate
  002dc	50		 push	 eax
  002dd	8d 8d f0 fe ff
	ff		 lea	 ecx, DWORD PTR _cdResult$2[ebp]
  002e3	c6 45 fc 02	 mov	 BYTE PTR __$EHRec$[ebp+8], 2
  002e7	e8 00 00 00 00	 call	 ??4CCoordinate@@QAEAAV0@ABV0@@Z ; CCoordinate::operator=
  002ec	8d 4d c4	 lea	 ecx, DWORD PTR $T21[ebp+20]
  002ef	c6 45 fc 01	 mov	 BYTE PTR __$EHRec$[ebp+8], 1
  002f3	ff 15 00 00 00
	00		 call	 DWORD PTR __imp_??1?$CStringT@DV?$StrTraitMFC_DLL@DV?$ChTraitsCRT@D@ATL@@@@@ATL@@QAE@XZ
  002f9	8b b5 30 ff ff
	ff		 mov	 esi, DWORD PTR _this$GSCopy$1$[ebp]
$LN8@GetCurrent:

; 412  : 		ILPCSTR szPacketType = pIPacket->GetType();

  002ff	8b 03		 mov	 eax, DWORD PTR [ebx]
  00301	8b cb		 mov	 ecx, ebx
  00303	6a 01		 push	 1
  00305	ff 50 1c	 call	 DWORD PTR [eax+28]
; File D:\git\src\IBK\IBK_DRFN\ProjSrc\SrcChartEx\ChartAddIn\ChartAnalysisToolAddIn\Include_AddIn_133101\I133101\_IString.h

; 39   : 		m_pIStrData = p_pIString;	// Do not AddRef(). Because It must be Return Value.

  00308	89 45 dc	 mov	 DWORD PTR _szPacketType$28[ebp+4], eax

; 40   : 		if( m_pIStrData) m_szData = m_pIStrData->GetData();

  0030b	85 c0		 test	 eax, eax
  0030d	74 09		 je	 SHORT $LN66@GetCurrent
  0030f	8b 10		 mov	 edx, DWORD PTR [eax]
  00311	8b c8		 mov	 ecx, eax
  00313	ff 52 10	 call	 DWORD PTR [edx+16]
  00316	eb 02		 jmp	 SHORT $LN111@GetCurrent
$LN66@GetCurrent:

; 41   : 		else m_szData = NULL;

  00318	33 c0		 xor	 eax, eax
$LN111@GetCurrent:
; File D:\git\src\IBK\IBK_DRFN\ProjSrc\SrcChartEx\ChartAddIn\ChartAnalysisToolAddIn\AnalysisTool\MainToolImplementation.cpp

; 412  : 		ILPCSTR szPacketType = pIPacket->GetType();

  0031a	89 45 d8	 mov	 DWORD PTR _szPacketType$28[ebp], eax

; 413  : 		CString strPacketType( szPacketType);

  0031d	50		 push	 eax
  0031e	8d 8d 20 ff ff
	ff		 lea	 ecx, DWORD PTR _strPacketType$7[ebp]
  00324	c6 45 fc 06	 mov	 BYTE PTR __$EHRec$[ebp+8], 6
  00328	ff 15 00 00 00
	00		 call	 DWORD PTR __imp_??0?$CStringT@DV?$StrTraitMFC_DLL@DV?$ChTraitsCRT@D@ATL@@@@@ATL@@QAE@PBD@Z
; File C:\Program Files (x86)\Microsoft Visual Studio\2019\Community\VC\Tools\MSVC\14.29.30133\atlmfc\include\cstringt.h

; 2486 : 		return(str1.Compare(psz2) == 0);

  0032e	68 00 00 00 00	 push	 OFFSET ??_C@_0P@IMPIBBAB@YYYYMMDDHHMMSS@
  00333	8d 8d 20 ff ff
	ff		 lea	 ecx, DWORD PTR _strPacketType$7[ebp]
; File D:\git\src\IBK\IBK_DRFN\ProjSrc\SrcChartEx\ChartAddIn\ChartAnalysisToolAddIn\AnalysisTool\MainToolImplementation.cpp

; 413  : 		CString strPacketType( szPacketType);

  00339	c6 45 fc 07	 mov	 BYTE PTR __$EHRec$[ebp+8], 7
; File C:\Program Files (x86)\Microsoft Visual Studio\2019\Community\VC\Tools\MSVC\14.29.30133\atlmfc\include\cstringt.h

; 2486 : 		return(str1.Compare(psz2) == 0);

  0033d	ff 15 00 00 00
	00		 call	 DWORD PTR __imp_?Compare@?$CStringT@DV?$StrTraitMFC_DLL@DV?$ChTraitsCRT@D@ATL@@@@@ATL@@QBEHPBD@Z
  00343	85 c0		 test	 eax, eax
; File D:\git\src\IBK\IBK_DRFN\ProjSrc\SrcChartEx\ChartAddIn\ChartAnalysisToolAddIn\AnalysisTool\MainToolImplementation.cpp

; 417  : 		if (strPacketType == _T("YYYYMMDDHHMMSS"))

  00345	0f 85 61 01 00
	00		 jne	 $LN13@GetCurrent

; 418  : 		{
; 419  : 			//int nDataUnit = pIPacket->GetDateUnitType();
; 420  : 			//strTextBottom = CDataConversion( m_analysisData.GetOcxHwnd(), m_analysisData.GetChartMode()).GetStringFormatTrans2(CDataConversion::DoubleToString(cdResult.GetX()), nDataUnit, "");
; 421  : 
; 422  : 			// nDataUnit (0:nontype, 1:, 2:, 3:, 4:, 5:, 6:Text)
; 423  : 			CScaleBaseData::HORZSCALEDRAWERTYPE eDateUnit = (CScaleBaseData::HORZSCALEDRAWERTYPE)pIPacket->GetDateUnitType();

  0034b	8b 03		 mov	 eax, DWORD PTR [ebx]
  0034d	8b cb		 mov	 ecx, ebx
  0034f	ff 50 28	 call	 DWORD PTR [eax+40]

; 424  : 			
; 425  : 			CString strFormat = _T("YYYYMMDD");	// 

  00352	68 00 00 00 00	 push	 OFFSET ??_C@_08DKDJLCMP@YYYYMMDD@
  00357	8d 8d 3c ff ff
	ff		 lea	 ecx, DWORD PTR _strFormat$17[ebp]

; 426  : 			switch(eDateUnit)

  0035d	8d 70 ff	 lea	 esi, DWORD PTR [eax-1]
  00360	ff 15 00 00 00
	00		 call	 DWORD PTR __imp_??0?$CStringT@DV?$StrTraitMFC_DLL@DV?$ChTraitsCRT@D@ATL@@@@@ATL@@QAE@PBD@Z
  00366	c6 45 fc 08	 mov	 BYTE PTR __$EHRec$[ebp+8], 8
  0036a	83 fe 0b	 cmp	 esi, 11			; 0000000bH
  0036d	77 34		 ja	 SHORT $LN2@GetCurrent
  0036f	0f b6 86 00 00
	00 00		 movzx	 eax, BYTE PTR $LN106@GetCurrent[esi]
  00376	ff 24 85 00 00
	00 00		 jmp	 DWORD PTR $LN107@GetCurrent[eax*4]
$LN15@GetCurrent:

; 427  : 			{
; 428  : 			case CScaleBaseData::HORZ_DAILY:		// 
; 429  : 			case CScaleBaseData::HORZ_WEEKLEY:		//  
; 430  : 				strFormat = _T("YYYYMMDD");		

  0037d	68 00 00 00 00	 push	 OFFSET ??_C@_08DKDJLCMP@YYYYMMDD@

; 431  : 				break;

  00382	eb 13		 jmp	 SHORT $LN112@GetCurrent
$LN17@GetCurrent:

; 432  : 			case CScaleBaseData::HORZ_MONTHLY:		//  
; 433  : 				strFormat = _T("YYYYMM");		

  00384	68 00 00 00 00	 push	 OFFSET ??_C@_06EBMMBHJD@YYYYMM@

; 434  : 				break;

  00389	eb 0c		 jmp	 SHORT $LN112@GetCurrent
$LN18@GetCurrent:

; 435  : 			case CScaleBaseData::HORZ_TIME_ONE:		// 
; 436  : 			case CScaleBaseData::HORZ_TIME_TWO:
; 437  : 				strFormat = _T("MMDDHHMM");

  0038b	68 00 00 00 00	 push	 OFFSET ??_C@_08KLIIINKM@MMDDHHMM@

; 438  : 				break;

  00390	eb 05		 jmp	 SHORT $LN112@GetCurrent
$LN20@GetCurrent:

; 439  : 			case CScaleBaseData::HORZ_TICK:			//  
; 440  : 			case CScaleBaseData::HORZ_TIME_SECOND:
; 441  : 				strFormat = _T("DDHHMMSS");

  00392	68 00 00 00 00	 push	 OFFSET ??_C@_08JFMBEEDE@DDHHMMSS@
$LN112@GetCurrent:

; 444  : 			strTextBottom = CDataConversion( m_analysisData.GetOcxHwnd(), m_analysisData.GetChartMode()).GetStringFormatTrans(CDataConversion::DoubleToString(cdResult.GetX()), strFormat, "");

  00397	8d 8d 3c ff ff
	ff		 lea	 ecx, DWORD PTR _strFormat$17[ebp]
  0039d	ff 15 00 00 00
	00		 call	 DWORD PTR __imp_??4?$CStringT@DV?$StrTraitMFC_DLL@DV?$ChTraitsCRT@D@ATL@@@@@ATL@@QAEAAV01@PBD@Z
$LN2@GetCurrent:
  003a3	68 00 00 00 00	 push	 OFFSET ??_C@_00CNPNBAHC@@
  003a8	8d 8d 34 ff ff
	ff		 lea	 ecx, DWORD PTR $T14[ebp]
  003ae	ff 15 00 00 00
	00		 call	 DWORD PTR __imp_??0?$CStringT@DV?$StrTraitMFC_DLL@DV?$ChTraitsCRT@D@ATL@@@@@ATL@@QAE@PBD@Z
  003b4	68 00 00 00 00	 push	 OFFSET ??_C@_00CNPNBAHC@@
  003b9	8d 8d 38 ff ff
	ff		 lea	 ecx, DWORD PTR $T16[ebp]
  003bf	c6 45 fc 09	 mov	 BYTE PTR __$EHRec$[ebp+8], 9
  003c3	ff 15 00 00 00
	00		 call	 DWORD PTR __imp_??0?$CStringT@DV?$StrTraitMFC_DLL@DV?$ChTraitsCRT@D@ATL@@@@@ATL@@QAE@PBD@Z
  003c9	8d 8d f0 fe ff
	ff		 lea	 ecx, DWORD PTR _cdResult$2[ebp]
  003cf	c6 45 fc 0a	 mov	 BYTE PTR __$EHRec$[ebp+8], 10 ; 0000000aH
  003d3	e8 00 00 00 00	 call	 ?GetX@CCoordinate@@QBENXZ ; CCoordinate::GetX
  003d8	8d 45 c8	 lea	 eax, DWORD PTR $T26[ebp]
  003db	50		 push	 eax
  003dc	8d 85 28 ff ff
	ff		 lea	 eax, DWORD PTR $T11[ebp]
  003e2	50		 push	 eax
  003e3	dd 5d c8	 fstp	 QWORD PTR $T26[ebp]
  003e6	e8 00 00 00 00	 call	 ?DoubleToString@CDataConversion@@SA?AV?$CStringT@DV?$StrTraitMFC_DLL@DV?$ChTraitsCRT@D@ATL@@@@@ATL@@ABN@Z ; CDataConversion::DoubleToString
  003eb	83 c4 08	 add	 esp, 8
  003ee	89 85 1c ff ff
	ff		 mov	 DWORD PTR tv814[ebp], eax
; File D:\git\src\IBK\IBK_DRFN\ProjSrc\SrcChartEx\ChartAddIn\ChartAnalysisToolAddIn\AnalysisTool\AnalysisData.h

; 96   : 							{	return ( CChartInfo::CHART_MODE)( m_pIChartOCX ? m_pIChartOCX->GetChartMode() : CChartInfo::HTS);	}

  003f4	8b 85 30 ff ff
	ff		 mov	 eax, DWORD PTR _this$GSCopy$1$[ebp]
; File D:\git\src\IBK\IBK_DRFN\ProjSrc\SrcChartEx\ChartAddIn\ChartAnalysisToolAddIn\AnalysisTool\MainToolImplementation.cpp

; 444  : 			strTextBottom = CDataConversion( m_analysisData.GetOcxHwnd(), m_analysisData.GetChartMode()).GetStringFormatTrans(CDataConversion::DoubleToString(cdResult.GetX()), strFormat, "");

  003fa	c6 45 fc 0b	 mov	 BYTE PTR __$EHRec$[ebp+8], 11 ; 0000000bH
; File D:\git\src\IBK\IBK_DRFN\ProjSrc\SrcChartEx\ChartAddIn\ChartAnalysisToolAddIn\AnalysisTool\AnalysisData.h

; 96   : 							{	return ( CChartInfo::CHART_MODE)( m_pIChartOCX ? m_pIChartOCX->GetChartMode() : CChartInfo::HTS);	}

  003fe	8b 88 8c 00 00
	00		 mov	 ecx, DWORD PTR [eax+140]
  00404	85 c9		 test	 ecx, ecx
  00406	74 21		 je	 SHORT $LN73@GetCurrent
  00408	8b 11		 mov	 edx, DWORD PTR [ecx]
  0040a	ff 92 5c 02 00
	00		 call	 DWORD PTR [edx+604]
  00410	8b f0		 mov	 esi, eax
  00412	8b 85 30 ff ff
	ff		 mov	 eax, DWORD PTR _this$GSCopy$1$[ebp]
  00418	8b 88 8c 00 00
	00		 mov	 ecx, DWORD PTR [eax+140]

; 91   : 			{	return m_pIChartOCX ? m_pIChartOCX->GetOcxHwnd() : NULL;	}

  0041e	85 c9		 test	 ecx, ecx
  00420	74 0c		 je	 SHORT $LN77@GetCurrent
  00422	8b 11		 mov	 edx, DWORD PTR [ecx]
  00424	ff 52 40	 call	 DWORD PTR [edx+64]
  00427	eb 07		 jmp	 SHORT $LN78@GetCurrent
$LN73@GetCurrent:

; 96   : 							{	return ( CChartInfo::CHART_MODE)( m_pIChartOCX ? m_pIChartOCX->GetChartMode() : CChartInfo::HTS);	}

  00429	be 01 00 00 00	 mov	 esi, 1
$LN77@GetCurrent:

; 91   : 			{	return m_pIChartOCX ? m_pIChartOCX->GetOcxHwnd() : NULL;	}

  0042e	33 c0		 xor	 eax, eax
$LN78@GetCurrent:
; File D:\git\src\IBK\IBK_DRFN\ProjSrc\SrcChartEx\ChartAddIn\ChartAnalysisToolAddIn\Include_Chart\Conversion.h

; 27   : 		{	m_hOcxWnd = p_hOcxWnd;	m_eChartMode = p_eChartMode;	}

  00430	89 45 e8	 mov	 DWORD PTR $T34[ebp], eax
; File D:\git\src\IBK\IBK_DRFN\ProjSrc\SrcChartEx\ChartAddIn\ChartAnalysisToolAddIn\AnalysisTool\MainToolImplementation.cpp

; 444  : 			strTextBottom = CDataConversion( m_analysisData.GetOcxHwnd(), m_analysisData.GetChartMode()).GetStringFormatTrans(CDataConversion::DoubleToString(cdResult.GetX()), strFormat, "");

  00433	8d 4d e8	 lea	 ecx, DWORD PTR $T34[ebp]
  00436	8d 85 34 ff ff
	ff		 lea	 eax, DWORD PTR $T14[ebp]
; File D:\git\src\IBK\IBK_DRFN\ProjSrc\SrcChartEx\ChartAddIn\ChartAnalysisToolAddIn\Include_Chart\Conversion.h

; 27   : 		{	m_hOcxWnd = p_hOcxWnd;	m_eChartMode = p_eChartMode;	}

  0043c	89 75 ec	 mov	 DWORD PTR $T34[ebp+4], esi
; File D:\git\src\IBK\IBK_DRFN\ProjSrc\SrcChartEx\ChartAddIn\ChartAnalysisToolAddIn\AnalysisTool\MainToolImplementation.cpp

; 444  : 			strTextBottom = CDataConversion( m_analysisData.GetOcxHwnd(), m_analysisData.GetChartMode()).GetStringFormatTrans(CDataConversion::DoubleToString(cdResult.GetX()), strFormat, "");

  0043f	50		 push	 eax
  00440	8d 85 38 ff ff
	ff		 lea	 eax, DWORD PTR $T16[ebp]
  00446	50		 push	 eax
  00447	8d 85 3c ff ff
	ff		 lea	 eax, DWORD PTR _strFormat$17[ebp]
  0044d	50		 push	 eax
  0044e	ff b5 1c ff ff
	ff		 push	 DWORD PTR tv814[ebp]
  00454	8d 85 18 ff ff
	ff		 lea	 eax, DWORD PTR $T5[ebp]
  0045a	50		 push	 eax
  0045b	e8 00 00 00 00	 call	 ?GetStringFormatTrans@CDataConversion@@QAE?AV?$CStringT@DV?$StrTraitMFC_DLL@DV?$ChTraitsCRT@D@ATL@@@@@ATL@@ABV23@000@Z ; CDataConversion::GetStringFormatTrans
  00460	8b 8d 2c ff ff
	ff		 mov	 ecx, DWORD PTR _strTextBottom$GSCopy$1$[ebp]
  00466	50		 push	 eax
  00467	c6 45 fc 0c	 mov	 BYTE PTR __$EHRec$[ebp+8], 12 ; 0000000cH
  0046b	ff 15 00 00 00
	00		 call	 DWORD PTR __imp_??4?$CStringT@DV?$StrTraitMFC_DLL@DV?$ChTraitsCRT@D@ATL@@@@@ATL@@QAEAAV01@ABV01@@Z
  00471	8d 8d 18 ff ff
	ff		 lea	 ecx, DWORD PTR $T5[ebp]
  00477	ff 15 00 00 00
	00		 call	 DWORD PTR __imp_??1?$CStringT@DV?$StrTraitMFC_DLL@DV?$ChTraitsCRT@D@ATL@@@@@ATL@@QAE@XZ
  0047d	8d 8d 28 ff ff
	ff		 lea	 ecx, DWORD PTR $T11[ebp]
  00483	ff 15 00 00 00
	00		 call	 DWORD PTR __imp_??1?$CStringT@DV?$StrTraitMFC_DLL@DV?$ChTraitsCRT@D@ATL@@@@@ATL@@QAE@XZ
  00489	8d 8d 38 ff ff
	ff		 lea	 ecx, DWORD PTR $T16[ebp]
  0048f	ff 15 00 00 00
	00		 call	 DWORD PTR __imp_??1?$CStringT@DV?$StrTraitMFC_DLL@DV?$ChTraitsCRT@D@ATL@@@@@ATL@@QAE@XZ
  00495	8d 8d 34 ff ff
	ff		 lea	 ecx, DWORD PTR $T14[ebp]
  0049b	ff 15 00 00 00
	00		 call	 DWORD PTR __imp_??1?$CStringT@DV?$StrTraitMFC_DLL@DV?$ChTraitsCRT@D@ATL@@@@@ATL@@QAE@XZ

; 445  : 		}

  004a1	8d 8d 3c ff ff
	ff		 lea	 ecx, DWORD PTR _strFormat$17[ebp]
  004a7	e9 f2 00 00 00	 jmp	 $LN113@GetCurrent
$LN13@GetCurrent:

; 447  : 			strTextBottom = CDataConversion( m_analysisData.GetOcxHwnd(), m_analysisData.GetChartMode()).GetStringFormatTrans(CDataConversion::DoubleToString(cdResult.GetX()), strPacketType, "");

  004ac	68 00 00 00 00	 push	 OFFSET ??_C@_00CNPNBAHC@@
  004b1	8d 8d 38 ff ff
	ff		 lea	 ecx, DWORD PTR $T15[ebp]
  004b7	ff 15 00 00 00
	00		 call	 DWORD PTR __imp_??0?$CStringT@DV?$StrTraitMFC_DLL@DV?$ChTraitsCRT@D@ATL@@@@@ATL@@QAE@PBD@Z
  004bd	68 00 00 00 00	 push	 OFFSET ??_C@_00CNPNBAHC@@
  004c2	8d 8d 34 ff ff
	ff		 lea	 ecx, DWORD PTR $T13[ebp]
  004c8	c6 45 fc 0d	 mov	 BYTE PTR __$EHRec$[ebp+8], 13 ; 0000000dH
  004cc	ff 15 00 00 00
	00		 call	 DWORD PTR __imp_??0?$CStringT@DV?$StrTraitMFC_DLL@DV?$ChTraitsCRT@D@ATL@@@@@ATL@@QAE@PBD@Z
  004d2	8d 8d f0 fe ff
	ff		 lea	 ecx, DWORD PTR _cdResult$2[ebp]
  004d8	c6 45 fc 0e	 mov	 BYTE PTR __$EHRec$[ebp+8], 14 ; 0000000eH
  004dc	e8 00 00 00 00	 call	 ?GetX@CCoordinate@@QBENXZ ; CCoordinate::GetX
  004e1	8d 45 c8	 lea	 eax, DWORD PTR $T25[ebp]
  004e4	50		 push	 eax
  004e5	8d 85 1c ff ff
	ff		 lea	 eax, DWORD PTR $T6[ebp]
  004eb	50		 push	 eax
  004ec	dd 5d c8	 fstp	 QWORD PTR $T25[ebp]
  004ef	e8 00 00 00 00	 call	 ?DoubleToString@CDataConversion@@SA?AV?$CStringT@DV?$StrTraitMFC_DLL@DV?$ChTraitsCRT@D@ATL@@@@@ATL@@ABN@Z ; CDataConversion::DoubleToString
  004f4	83 c4 08	 add	 esp, 8
  004f7	89 85 28 ff ff
	ff		 mov	 DWORD PTR tv812[ebp], eax
; File D:\git\src\IBK\IBK_DRFN\ProjSrc\SrcChartEx\ChartAddIn\ChartAnalysisToolAddIn\AnalysisTool\AnalysisData.h

; 96   : 							{	return ( CChartInfo::CHART_MODE)( m_pIChartOCX ? m_pIChartOCX->GetChartMode() : CChartInfo::HTS);	}

  004fd	8b 8e 8c 00 00
	00		 mov	 ecx, DWORD PTR [esi+140]
; File D:\git\src\IBK\IBK_DRFN\ProjSrc\SrcChartEx\ChartAddIn\ChartAnalysisToolAddIn\AnalysisTool\MainToolImplementation.cpp

; 447  : 			strTextBottom = CDataConversion( m_analysisData.GetOcxHwnd(), m_analysisData.GetChartMode()).GetStringFormatTrans(CDataConversion::DoubleToString(cdResult.GetX()), strPacketType, "");

  00503	c6 45 fc 0f	 mov	 BYTE PTR __$EHRec$[ebp+8], 15 ; 0000000fH
; File D:\git\src\IBK\IBK_DRFN\ProjSrc\SrcChartEx\ChartAddIn\ChartAnalysisToolAddIn\AnalysisTool\AnalysisData.h

; 96   : 							{	return ( CChartInfo::CHART_MODE)( m_pIChartOCX ? m_pIChartOCX->GetChartMode() : CChartInfo::HTS);	}

  00507	85 c9		 test	 ecx, ecx
  00509	74 21		 je	 SHORT $LN83@GetCurrent
  0050b	8b 11		 mov	 edx, DWORD PTR [ecx]
  0050d	ff 92 5c 02 00
	00		 call	 DWORD PTR [edx+604]
  00513	8b f0		 mov	 esi, eax
  00515	8b 85 30 ff ff
	ff		 mov	 eax, DWORD PTR _this$GSCopy$1$[ebp]
  0051b	8b 88 8c 00 00
	00		 mov	 ecx, DWORD PTR [eax+140]

; 91   : 			{	return m_pIChartOCX ? m_pIChartOCX->GetOcxHwnd() : NULL;	}

  00521	85 c9		 test	 ecx, ecx
  00523	74 0c		 je	 SHORT $LN87@GetCurrent
  00525	8b 11		 mov	 edx, DWORD PTR [ecx]
  00527	ff 52 40	 call	 DWORD PTR [edx+64]
  0052a	eb 07		 jmp	 SHORT $LN88@GetCurrent
$LN83@GetCurrent:

; 96   : 							{	return ( CChartInfo::CHART_MODE)( m_pIChartOCX ? m_pIChartOCX->GetChartMode() : CChartInfo::HTS);	}

  0052c	be 01 00 00 00	 mov	 esi, 1
$LN87@GetCurrent:

; 91   : 			{	return m_pIChartOCX ? m_pIChartOCX->GetOcxHwnd() : NULL;	}

  00531	33 c0		 xor	 eax, eax
$LN88@GetCurrent:
; File D:\git\src\IBK\IBK_DRFN\ProjSrc\SrcChartEx\ChartAddIn\ChartAnalysisToolAddIn\Include_Chart\Conversion.h

; 27   : 		{	m_hOcxWnd = p_hOcxWnd;	m_eChartMode = p_eChartMode;	}

  00533	89 45 e8	 mov	 DWORD PTR $T33[ebp], eax
; File D:\git\src\IBK\IBK_DRFN\ProjSrc\SrcChartEx\ChartAddIn\ChartAnalysisToolAddIn\AnalysisTool\MainToolImplementation.cpp

; 447  : 			strTextBottom = CDataConversion( m_analysisData.GetOcxHwnd(), m_analysisData.GetChartMode()).GetStringFormatTrans(CDataConversion::DoubleToString(cdResult.GetX()), strPacketType, "");

  00536	8d 4d e8	 lea	 ecx, DWORD PTR $T33[ebp]
  00539	8d 85 38 ff ff
	ff		 lea	 eax, DWORD PTR $T15[ebp]
; File D:\git\src\IBK\IBK_DRFN\ProjSrc\SrcChartEx\ChartAddIn\ChartAnalysisToolAddIn\Include_Chart\Conversion.h

; 27   : 		{	m_hOcxWnd = p_hOcxWnd;	m_eChartMode = p_eChartMode;	}

  0053f	89 75 ec	 mov	 DWORD PTR $T33[ebp+4], esi
; File D:\git\src\IBK\IBK_DRFN\ProjSrc\SrcChartEx\ChartAddIn\ChartAnalysisToolAddIn\AnalysisTool\MainToolImplementation.cpp

; 447  : 			strTextBottom = CDataConversion( m_analysisData.GetOcxHwnd(), m_analysisData.GetChartMode()).GetStringFormatTrans(CDataConversion::DoubleToString(cdResult.GetX()), strPacketType, "");

  00542	50		 push	 eax
  00543	8d 85 34 ff ff
	ff		 lea	 eax, DWORD PTR $T13[ebp]
  00549	50		 push	 eax
  0054a	8d 85 20 ff ff
	ff		 lea	 eax, DWORD PTR _strPacketType$7[ebp]
  00550	50		 push	 eax
  00551	ff b5 28 ff ff
	ff		 push	 DWORD PTR tv812[ebp]
  00557	8d 85 18 ff ff
	ff		 lea	 eax, DWORD PTR $T4[ebp]
  0055d	50		 push	 eax
  0055e	e8 00 00 00 00	 call	 ?GetStringFormatTrans@CDataConversion@@QAE?AV?$CStringT@DV?$StrTraitMFC_DLL@DV?$ChTraitsCRT@D@ATL@@@@@ATL@@ABV23@000@Z ; CDataConversion::GetStringFormatTrans
  00563	8b 8d 2c ff ff
	ff		 mov	 ecx, DWORD PTR _strTextBottom$GSCopy$1$[ebp]
  00569	50		 push	 eax
  0056a	c6 45 fc 10	 mov	 BYTE PTR __$EHRec$[ebp+8], 16 ; 00000010H
  0056e	ff 15 00 00 00
	00		 call	 DWORD PTR __imp_??4?$CStringT@DV?$StrTraitMFC_DLL@DV?$ChTraitsCRT@D@ATL@@@@@ATL@@QAEAAV01@ABV01@@Z
  00574	8d 8d 18 ff ff
	ff		 lea	 ecx, DWORD PTR $T4[ebp]
  0057a	ff 15 00 00 00
	00		 call	 DWORD PTR __imp_??1?$CStringT@DV?$StrTraitMFC_DLL@DV?$ChTraitsCRT@D@ATL@@@@@ATL@@QAE@XZ
  00580	8d 8d 1c ff ff
	ff		 lea	 ecx, DWORD PTR $T6[ebp]
  00586	ff 15 00 00 00
	00		 call	 DWORD PTR __imp_??1?$CStringT@DV?$StrTraitMFC_DLL@DV?$ChTraitsCRT@D@ATL@@@@@ATL@@QAE@XZ
  0058c	8d 8d 34 ff ff
	ff		 lea	 ecx, DWORD PTR $T13[ebp]
  00592	ff 15 00 00 00
	00		 call	 DWORD PTR __imp_??1?$CStringT@DV?$StrTraitMFC_DLL@DV?$ChTraitsCRT@D@ATL@@@@@ATL@@QAE@XZ
  00598	8d 8d 38 ff ff
	ff		 lea	 ecx, DWORD PTR $T15[ebp]
$LN113@GetCurrent:

; 448  : 		// 2011.01.06 by SYS <<
; 449  : 
; 450  : 		pIPacket->Release();

  0059e	c6 45 fc 07	 mov	 BYTE PTR __$EHRec$[ebp+8], 7
  005a2	ff 15 00 00 00
	00		 call	 DWORD PTR __imp_??1?$CStringT@DV?$StrTraitMFC_DLL@DV?$ChTraitsCRT@D@ATL@@@@@ATL@@QAE@XZ
  005a8	8b 03		 mov	 eax, DWORD PTR [ebx]
  005aa	53		 push	 ebx
  005ab	ff 50 08	 call	 DWORD PTR [eax+8]

; 451  : 		
; 452  : 		// 20081009  8/32  >>
; 453  : 		IPacket *pIPacket_Y = calData.GetPacket_Y();

  005ae	8d 8d 40 ff ff
	ff		 lea	 ecx, DWORD PTR _calData$19[ebp]
  005b4	e8 00 00 00 00	 call	 ?GetPacket_Y@CCoordinateCalculatorData@@QBEPAUIPacket133101@@XZ ; CCoordinateCalculatorData::GetPacket_Y
  005b9	8b d8		 mov	 ebx, eax

; 454  : 		if( pIPacket_Y)

  005bb	85 db		 test	 ebx, ebx
  005bd	0f 84 a0 00 00
	00		 je	 $LN22@GetCurrent

; 456  : 			ILPCSTR szPacketType = pIPacket_Y->GetType();

  005c3	8b 13		 mov	 edx, DWORD PTR [ebx]
  005c5	8b cb		 mov	 ecx, ebx
  005c7	6a 01		 push	 1
  005c9	ff 52 1c	 call	 DWORD PTR [edx+28]
; File D:\git\src\IBK\IBK_DRFN\ProjSrc\SrcChartEx\ChartAddIn\ChartAnalysisToolAddIn\Include_AddIn_133101\I133101\_IString.h

; 39   : 		m_pIStrData = p_pIString;	// Do not AddRef(). Because It must be Return Value.

  005cc	8b f0		 mov	 esi, eax
  005ce	89 75 ec	 mov	 DWORD PTR _szPacketType$32[ebp+4], esi

; 40   : 		if( m_pIStrData) m_szData = m_pIStrData->GetData();

  005d1	85 f6		 test	 esi, esi
  005d3	74 09		 je	 SHORT $LN92@GetCurrent
  005d5	8b 16		 mov	 edx, DWORD PTR [esi]
  005d7	8b ce		 mov	 ecx, esi
  005d9	ff 52 10	 call	 DWORD PTR [edx+16]
  005dc	eb 02		 jmp	 SHORT $LN114@GetCurrent
$LN92@GetCurrent:

; 41   : 		else m_szData = NULL;

  005de	33 c0		 xor	 eax, eax
$LN114@GetCurrent:
; File D:\git\src\IBK\IBK_DRFN\ProjSrc\SrcChartEx\ChartAddIn\ChartAnalysisToolAddIn\AnalysisTool\MainToolImplementation.cpp

; 456  : 			ILPCSTR szPacketType = pIPacket_Y->GetType();

  005e0	89 45 e8	 mov	 DWORD PTR _szPacketType$32[ebp], eax

; 457  : 			CString strPacketType( szPacketType);

  005e3	50		 push	 eax
  005e4	8d 8d 2c ff ff
	ff		 lea	 ecx, DWORD PTR _strPacketType$12[ebp]
  005ea	c6 45 fc 11	 mov	 BYTE PTR __$EHRec$[ebp+8], 17 ; 00000011H
  005ee	ff 15 00 00 00
	00		 call	 DWORD PTR __imp_??0?$CStringT@DV?$StrTraitMFC_DLL@DV?$ChTraitsCRT@D@ATL@@@@@ATL@@QAE@PBD@Z

; 458  : 			strTextRight = CDataConversion::GetStringThousandFormat(cdResult.GetY(), strPacketType);

  005f4	8d 8d f0 fe ff
	ff		 lea	 ecx, DWORD PTR _cdResult$2[ebp]
  005fa	c6 45 fc 12	 mov	 BYTE PTR __$EHRec$[ebp+8], 18 ; 00000012H
  005fe	e8 00 00 00 00	 call	 ?GetY@CCoordinate@@QBENXZ ; CCoordinate::GetY
  00603	8d 85 2c ff ff
	ff		 lea	 eax, DWORD PTR _strPacketType$12[ebp]
  00609	50		 push	 eax
  0060a	8d 45 c8	 lea	 eax, DWORD PTR $T24[ebp]
  0060d	50		 push	 eax
  0060e	8d 85 28 ff ff
	ff		 lea	 eax, DWORD PTR $T10[ebp]
  00614	50		 push	 eax
  00615	dd 5d c8	 fstp	 QWORD PTR $T24[ebp]
  00618	e8 00 00 00 00	 call	 ?GetStringThousandFormat@CDataConversion@@SA?AV?$CStringT@DV?$StrTraitMFC_DLL@DV?$ChTraitsCRT@D@ATL@@@@@ATL@@ABNABV23@@Z ; CDataConversion::GetStringThousandFormat
  0061d	83 c4 0c	 add	 esp, 12			; 0000000cH
  00620	8b 8d 10 ff ff
	ff		 mov	 ecx, DWORD PTR _strTextRight$GSCopy$1$[ebp]
  00626	50		 push	 eax
  00627	c6 45 fc 13	 mov	 BYTE PTR __$EHRec$[ebp+8], 19 ; 00000013H
  0062b	ff 15 00 00 00
	00		 call	 DWORD PTR __imp_??4?$CStringT@DV?$StrTraitMFC_DLL@DV?$ChTraitsCRT@D@ATL@@@@@ATL@@QAEAAV01@ABV01@@Z
  00631	8d 8d 28 ff ff
	ff		 lea	 ecx, DWORD PTR $T10[ebp]
  00637	c6 45 fc 12	 mov	 BYTE PTR __$EHRec$[ebp+8], 18 ; 00000012H
  0063b	ff 15 00 00 00
	00		 call	 DWORD PTR __imp_??1?$CStringT@DV?$StrTraitMFC_DLL@DV?$ChTraitsCRT@D@ATL@@@@@ATL@@QAE@XZ

; 459  : 			pIPacket_Y->Release();

  00641	8b 03		 mov	 eax, DWORD PTR [ebx]
  00643	53		 push	 ebx
  00644	ff 50 08	 call	 DWORD PTR [eax+8]

; 460  : 		}

  00647	8d 8d 2c ff ff
	ff		 lea	 ecx, DWORD PTR _strPacketType$12[ebp]
  0064d	ff 15 00 00 00
	00		 call	 DWORD PTR __imp_??1?$CStringT@DV?$StrTraitMFC_DLL@DV?$ChTraitsCRT@D@ATL@@@@@ATL@@QAE@XZ
; File D:\git\src\IBK\IBK_DRFN\ProjSrc\SrcChartEx\ChartAddIn\ChartAnalysisToolAddIn\Include_AddIn_133101\I133101\_IString.h

; 44   : 	{

  00653	c6 45 fc 14	 mov	 BYTE PTR __$EHRec$[ebp+8], 20 ; 00000014H

; 45   : 		if( m_pIStrData)

  00657	85 f6		 test	 esi, esi
  00659	74 58		 je	 SHORT $LN23@GetCurrent

; 46   : 		{
; 47   : 			m_pIStrData->Release();

  0065b	8b 06		 mov	 eax, DWORD PTR [esi]
  0065d	56		 push	 esi
  0065e	ff 50 08	 call	 DWORD PTR [eax+8]
; File D:\git\src\IBK\IBK_DRFN\ProjSrc\SrcChartEx\ChartAddIn\ChartAnalysisToolAddIn\AnalysisTool\MainToolImplementation.cpp

; 460  : 		}

  00661	eb 50		 jmp	 SHORT $LN23@GetCurrent
$LN22@GetCurrent:

; 461  : 		else strTextRight = CDataConversion::GetStringThousandFormat(cdResult.GetY(), calData.GetVertDataType());

  00663	8d 8d 40 ff ff
	ff		 lea	 ecx, DWORD PTR _calData$19[ebp]
  00669	e8 00 00 00 00	 call	 ?GetVertDataType@CCoordinateCalculatorData@@QBENXZ ; CCoordinateCalculatorData::GetVertDataType
  0066e	dd 5d c8	 fstp	 QWORD PTR $T23[ebp]
  00671	8d 8d f0 fe ff
	ff		 lea	 ecx, DWORD PTR _cdResult$2[ebp]
  00677	e8 00 00 00 00	 call	 ?GetY@CCoordinate@@QBENXZ ; CCoordinate::GetY
  0067c	8d 45 c8	 lea	 eax, DWORD PTR $T23[ebp]
  0067f	50		 push	 eax
  00680	8d 45 e8	 lea	 eax, DWORD PTR $T31[ebp]
  00683	50		 push	 eax
  00684	8d 85 28 ff ff
	ff		 lea	 eax, DWORD PTR $T9[ebp]
  0068a	50		 push	 eax
  0068b	dd 5d e8	 fstp	 QWORD PTR $T31[ebp]
  0068e	e8 00 00 00 00	 call	 ?GetStringThousandFormat@CDataConversion@@SA?AV?$CStringT@DV?$StrTraitMFC_DLL@DV?$ChTraitsCRT@D@ATL@@@@@ATL@@ABN0@Z ; CDataConversion::GetStringThousandFormat
  00693	83 c4 0c	 add	 esp, 12			; 0000000cH
  00696	8b 8d 10 ff ff
	ff		 mov	 ecx, DWORD PTR _strTextRight$GSCopy$1$[ebp]
  0069c	50		 push	 eax
  0069d	c6 45 fc 15	 mov	 BYTE PTR __$EHRec$[ebp+8], 21 ; 00000015H
  006a1	ff 15 00 00 00
	00		 call	 DWORD PTR __imp_??4?$CStringT@DV?$StrTraitMFC_DLL@DV?$ChTraitsCRT@D@ATL@@@@@ATL@@QAEAAV01@ABV01@@Z
  006a7	8d 8d 28 ff ff
	ff		 lea	 ecx, DWORD PTR $T9[ebp]
  006ad	ff 15 00 00 00
	00		 call	 DWORD PTR __imp_??1?$CStringT@DV?$StrTraitMFC_DLL@DV?$ChTraitsCRT@D@ATL@@@@@ATL@@QAE@XZ
$LN23@GetCurrent:

; 463  : 	}

  006b3	8d 8d 20 ff ff
	ff		 lea	 ecx, DWORD PTR _strPacketType$7[ebp]
  006b9	ff 15 00 00 00
	00		 call	 DWORD PTR __imp_??1?$CStringT@DV?$StrTraitMFC_DLL@DV?$ChTraitsCRT@D@ATL@@@@@ATL@@QAE@XZ
; File D:\git\src\IBK\IBK_DRFN\ProjSrc\SrcChartEx\ChartAddIn\ChartAnalysisToolAddIn\Include_AddIn_133101\I133101\_IString.h

; 45   : 		if( m_pIStrData)

  006bf	8b 4d dc	 mov	 ecx, DWORD PTR _szPacketType$28[ebp+4]
  006c2	c6 45 fc 16	 mov	 BYTE PTR __$EHRec$[ebp+8], 22 ; 00000016H
  006c6	85 c9		 test	 ecx, ecx
  006c8	74 06		 je	 SHORT $LN100@GetCurrent

; 46   : 		{
; 47   : 			m_pIStrData->Release();

  006ca	8b 01		 mov	 eax, DWORD PTR [ecx]
  006cc	51		 push	 ecx
  006cd	ff 50 08	 call	 DWORD PTR [eax+8]
$LN100@GetCurrent:
  006d0	8d 8d 04 ff ff
	ff		 lea	 ecx, DWORD PTR _cdResult$2[ebp+20]
  006d6	ff 15 00 00 00
	00		 call	 DWORD PTR __imp_??1?$CStringT@DV?$StrTraitMFC_DLL@DV?$ChTraitsCRT@D@ATL@@@@@ATL@@QAE@XZ
; File D:\git\src\IBK\IBK_DRFN\ProjSrc\SrcChartEx\ChartAddIn\ChartAnalysisToolAddIn\AnalysisTool\MainToolImplementation.cpp

; 463  : 	}

  006dc	8d 8d 40 ff ff
	ff		 lea	 ecx, DWORD PTR _calData$19[ebp]
  006e2	c7 45 fc ff ff
	ff ff		 mov	 DWORD PTR __$EHRec$[ebp+8], -1
  006e9	e8 00 00 00 00	 call	 ??1CCoordinateCalculatorData@@QAE@XZ ; CCoordinateCalculatorData::~CCoordinateCalculatorData
$LN4@GetCurrent:

; 464  : 	pIChartManager->Release();

  006ee	8b 07		 mov	 eax, DWORD PTR [edi]
  006f0	57		 push	 edi
  006f1	ff 50 08	 call	 DWORD PTR [eax+8]

; 465  : 	//<< (2008/12/26 - Seung-Lyong, Park)  
; 466  : 
; 467  : 	return TRUE;

  006f4	b8 01 00 00 00	 mov	 eax, 1
$LN1@GetCurrent:

; 468  : }

  006f9	8b 4d f4	 mov	 ecx, DWORD PTR __$EHRec$[ebp]
  006fc	64 89 0d 00 00
	00 00		 mov	 DWORD PTR fs:0, ecx
  00703	59		 pop	 ecx
  00704	5f		 pop	 edi
  00705	5e		 pop	 esi
  00706	5b		 pop	 ebx
  00707	8b 4d f0	 mov	 ecx, DWORD PTR __$ArrayPad$[ebp]
  0070a	33 cd		 xor	 ecx, ebp
  0070c	e8 00 00 00 00	 call	 @__security_check_cookie@4
  00711	8b e5		 mov	 esp, ebp
  00713	5d		 pop	 ebp
  00714	c2 10 00	 ret	 16			; 00000010H
  00717	90		 npad	 1
$LN107@GetCurrent:
  00718	00 00 00 00	 DD	 $LN15@GetCurrent
  0071c	00 00 00 00	 DD	 $LN17@GetCurrent
  00720	00 00 00 00	 DD	 $LN18@GetCurrent
  00724	00 00 00 00	 DD	 $LN20@GetCurrent
  00728	00 00 00 00	 DD	 $LN2@GetCurrent
$LN106@GetCurrent:
  0072c	00		 DB	 0
  0072d	00		 DB	 0
  0072e	01		 DB	 1
  0072f	02		 DB	 2
  00730	03		 DB	 3
  00731	02		 DB	 2
  00732	04		 DB	 4
  00733	04		 DB	 4
  00734	04		 DB	 4
  00735	04		 DB	 4
  00736	04		 DB	 4
  00737	03		 DB	 3
_TEXT	ENDS
;	COMDAT text$x
text$x	SEGMENT
__unwindfunclet$?GetCurrentPosData@CMainToolImplementation@@QAEHVCPoint@@AAV?$CStringT@DV?$StrTraitMFC_DLL@DV?$ChTraitsCRT@D@ATL@@@@@ATL@@1@Z$0:
  00000	8d 8d 40 ff ff
	ff		 lea	 ecx, DWORD PTR _calData$19[ebp]
  00006	e9 00 00 00 00	 jmp	 ??1CCoordinateCalculatorData@@QAE@XZ ; CCoordinateCalculatorData::~CCoordinateCalculatorData
__unwindfunclet$?GetCurrentPosData@CMainToolImplementation@@QAEHVCPoint@@AAV?$CStringT@DV?$StrTraitMFC_DLL@DV?$ChTraitsCRT@D@ATL@@@@@ATL@@1@Z$1:
  0000b	8d 8d f0 fe ff
	ff		 lea	 ecx, DWORD PTR _cdResult$2[ebp]
  00011	e9 00 00 00 00	 jmp	 ??1CCoordinate@@QAE@XZ
__unwindfunclet$?GetCurrentPosData@CMainToolImplementation@@QAEHVCPoint@@AAV?$CStringT@DV?$StrTraitMFC_DLL@DV?$ChTraitsCRT@D@ATL@@@@@ATL@@1@Z$3:
  00016	8d 8d 24 ff ff
	ff		 lea	 ecx, DWORD PTR _szPacketType$8[ebp]
  0001c	e9 00 00 00 00	 jmp	 ??1ILPCSTR133101@@QAE@XZ ; ILPCSTR133101::~ILPCSTR133101
__unwindfunclet$?GetCurrentPosData@CMainToolImplementation@@QAEHVCPoint@@AAV?$CStringT@DV?$StrTraitMFC_DLL@DV?$ChTraitsCRT@D@ATL@@@@@ATL@@1@Z$4:
  00021	8d 8d 3c ff ff
	ff		 lea	 ecx, DWORD PTR _strPacketType$18[ebp]
  00027	ff 25 00 00 00
	00		 jmp	 DWORD PTR __imp_??1?$CStringT@DV?$StrTraitMFC_DLL@DV?$ChTraitsCRT@D@ATL@@@@@ATL@@QAE@XZ
__unwindfunclet$?GetCurrentPosData@CMainToolImplementation@@QAEHVCPoint@@AAV?$CStringT@DV?$StrTraitMFC_DLL@DV?$ChTraitsCRT@D@ATL@@@@@ATL@@1@Z$5:
  0002d	8d 4d b0	 lea	 ecx, DWORD PTR $T20[ebp]
  00030	e9 00 00 00 00	 jmp	 ??1CCoordinate@@QAE@XZ
__unwindfunclet$?GetCurrentPosData@CMainToolImplementation@@QAEHVCPoint@@AAV?$CStringT@DV?$StrTraitMFC_DLL@DV?$ChTraitsCRT@D@ATL@@@@@ATL@@1@Z$2:
  00035	8d 4d b0	 lea	 ecx, DWORD PTR $T21[ebp]
  00038	e9 00 00 00 00	 jmp	 ??1CCoordinate@@QAE@XZ
__unwindfunclet$?GetCurrentPosData@CMainToolImplementation@@QAEHVCPoint@@AAV?$CStringT@DV?$StrTraitMFC_DLL@DV?$ChTraitsCRT@D@ATL@@@@@ATL@@1@Z$6:
  0003d	8d 4d d8	 lea	 ecx, DWORD PTR _szPacketType$28[ebp]
  00040	e9 00 00 00 00	 jmp	 ??1ILPCSTR133101@@QAE@XZ ; ILPCSTR133101::~ILPCSTR133101
__unwindfunclet$?GetCurrentPosData@CMainToolImplementation@@QAEHVCPoint@@AAV?$CStringT@DV?$StrTraitMFC_DLL@DV?$ChTraitsCRT@D@ATL@@@@@ATL@@1@Z$7:
  00045	8d 8d 20 ff ff
	ff		 lea	 ecx, DWORD PTR _strPacketType$7[ebp]
  0004b	ff 25 00 00 00
	00		 jmp	 DWORD PTR __imp_??1?$CStringT@DV?$StrTraitMFC_DLL@DV?$ChTraitsCRT@D@ATL@@@@@ATL@@QAE@XZ
__unwindfunclet$?GetCurrentPosData@CMainToolImplementation@@QAEHVCPoint@@AAV?$CStringT@DV?$StrTraitMFC_DLL@DV?$ChTraitsCRT@D@ATL@@@@@ATL@@1@Z$8:
  00051	8d 8d 3c ff ff
	ff		 lea	 ecx, DWORD PTR _strFormat$17[ebp]
  00057	ff 25 00 00 00
	00		 jmp	 DWORD PTR __imp_??1?$CStringT@DV?$StrTraitMFC_DLL@DV?$ChTraitsCRT@D@ATL@@@@@ATL@@QAE@XZ
__unwindfunclet$?GetCurrentPosData@CMainToolImplementation@@QAEHVCPoint@@AAV?$CStringT@DV?$StrTraitMFC_DLL@DV?$ChTraitsCRT@D@ATL@@@@@ATL@@1@Z$9:
  0005d	8d 8d 34 ff ff
	ff		 lea	 ecx, DWORD PTR $T14[ebp]
  00063	ff 25 00 00 00
	00		 jmp	 DWORD PTR __imp_??1?$CStringT@DV?$StrTraitMFC_DLL@DV?$ChTraitsCRT@D@ATL@@@@@ATL@@QAE@XZ
__unwindfunclet$?GetCurrentPosData@CMainToolImplementation@@QAEHVCPoint@@AAV?$CStringT@DV?$StrTraitMFC_DLL@DV?$ChTraitsCRT@D@ATL@@@@@ATL@@1@Z$10:
  00069	8d 8d 38 ff ff
	ff		 lea	 ecx, DWORD PTR $T16[ebp]
  0006f	ff 25 00 00 00
	00		 jmp	 DWORD PTR __imp_??1?$CStringT@DV?$StrTraitMFC_DLL@DV?$ChTraitsCRT@D@ATL@@@@@ATL@@QAE@XZ
__unwindfunclet$?GetCurrentPosData@CMainToolImplementation@@QAEHVCPoint@@AAV?$CStringT@DV?$StrTraitMFC_DLL@DV?$ChTraitsCRT@D@ATL@@@@@ATL@@1@Z$11:
  00075	8d 8d 28 ff ff
	ff		 lea	 ecx, DWORD PTR $T11[ebp]
  0007b	ff 25 00 00 00
	00		 jmp	 DWORD PTR __imp_??1?$CStringT@DV?$StrTraitMFC_DLL@DV?$ChTraitsCRT@D@ATL@@@@@ATL@@QAE@XZ
__unwindfunclet$?GetCurrentPosData@CMainToolImplementation@@QAEHVCPoint@@AAV?$CStringT@DV?$StrTraitMFC_DLL@DV?$ChTraitsCRT@D@ATL@@@@@ATL@@1@Z$12:
  00081	8d 8d 18 ff ff
	ff		 lea	 ecx, DWORD PTR $T5[ebp]
  00087	ff 25 00 00 00
	00		 jmp	 DWORD PTR __imp_??1?$CStringT@DV?$StrTraitMFC_DLL@DV?$ChTraitsCRT@D@ATL@@@@@ATL@@QAE@XZ
__unwindfunclet$?GetCurrentPosData@CMainToolImplementation@@QAEHVCPoint@@AAV?$CStringT@DV?$StrTraitMFC_DLL@DV?$ChTraitsCRT@D@ATL@@@@@ATL@@1@Z$13:
  0008d	8d 8d 38 ff ff
	ff		 lea	 ecx, DWORD PTR $T15[ebp]
  00093	ff 25 00 00 00
	00		 jmp	 DWORD PTR __imp_??1?$CStringT@DV?$StrTraitMFC_DLL@DV?$ChTraitsCRT@D@ATL@@@@@ATL@@QAE@XZ
__unwindfunclet$?GetCurrentPosData@CMainToolImplementation@@QAEHVCPoint@@AAV?$CStringT@DV?$StrTraitMFC_DLL@DV?$ChTraitsCRT@D@ATL@@@@@ATL@@1@Z$14:
  00099	8d 8d 34 ff ff
	ff		 lea	 ecx, DWORD PTR $T13[ebp]
  0009f	ff 25 00 00 00
	00		 jmp	 DWORD PTR __imp_??1?$CStringT@DV?$StrTraitMFC_DLL@DV?$ChTraitsCRT@D@ATL@@@@@ATL@@QAE@XZ
__unwindfunclet$?GetCurrentPosData@CMainToolImplementation@@QAEHVCPoint@@AAV?$CStringT@DV?$StrTraitMFC_DLL@DV?$ChTraitsCRT@D@ATL@@@@@ATL@@1@Z$15:
  000a5	8d 8d 1c ff ff
	ff		 lea	 ecx, DWORD PTR $T6[ebp]
  000ab	ff 25 00 00 00
	00		 jmp	 DWORD PTR __imp_??1?$CStringT@DV?$StrTraitMFC_DLL@DV?$ChTraitsCRT@D@ATL@@@@@ATL@@QAE@XZ
__unwindfunclet$?GetCurrentPosData@CMainToolImplementation@@QAEHVCPoint@@AAV?$CStringT@DV?$StrTraitMFC_DLL@DV?$ChTraitsCRT@D@ATL@@@@@ATL@@1@Z$16:
  000b1	8d 8d 18 ff ff
	ff		 lea	 ecx, DWORD PTR $T4[ebp]
  000b7	ff 25 00 00 00
	00		 jmp	 DWORD PTR __imp_??1?$CStringT@DV?$StrTraitMFC_DLL@DV?$ChTraitsCRT@D@ATL@@@@@ATL@@QAE@XZ
__unwindfunclet$?GetCurrentPosData@CMainToolImplementation@@QAEHVCPoint@@AAV?$CStringT@DV?$StrTraitMFC_DLL@DV?$ChTraitsCRT@D@ATL@@@@@ATL@@1@Z$17:
  000bd	8d 4d e8	 lea	 ecx, DWORD PTR _szPacketType$32[ebp]
  000c0	e9 00 00 00 00	 jmp	 ??1ILPCSTR133101@@QAE@XZ ; ILPCSTR133101::~ILPCSTR133101
__unwindfunclet$?GetCurrentPosData@CMainToolImplementation@@QAEHVCPoint@@AAV?$CStringT@DV?$StrTraitMFC_DLL@DV?$ChTraitsCRT@D@ATL@@@@@ATL@@1@Z$18:
  000c5	8d 8d 2c ff ff
	ff		 lea	 ecx, DWORD PTR _strPacketType$12[ebp]
  000cb	ff 25 00 00 00
	00		 jmp	 DWORD PTR __imp_??1?$CStringT@DV?$StrTraitMFC_DLL@DV?$ChTraitsCRT@D@ATL@@@@@ATL@@QAE@XZ
__unwindfunclet$?GetCurrentPosData@CMainToolImplementation@@QAEHVCPoint@@AAV?$CStringT@DV?$StrTraitMFC_DLL@DV?$ChTraitsCRT@D@ATL@@@@@ATL@@1@Z$19:
  000d1	8d 8d 28 ff ff
	ff		 lea	 ecx, DWORD PTR $T10[ebp]
  000d7	ff 25 00 00 00
	00		 jmp	 DWORD PTR __imp_??1?$CStringT@DV?$StrTraitMFC_DLL@DV?$ChTraitsCRT@D@ATL@@@@@ATL@@QAE@XZ
__unwindfunclet$?GetCurrentPosData@CMainToolImplementation@@QAEHVCPoint@@AAV?$CStringT@DV?$StrTraitMFC_DLL@DV?$ChTraitsCRT@D@ATL@@@@@ATL@@1@Z$20:
  000dd	8d 8d 28 ff ff
	ff		 lea	 ecx, DWORD PTR $T9[ebp]
  000e3	ff 25 00 00 00
	00		 jmp	 DWORD PTR __imp_??1?$CStringT@DV?$StrTraitMFC_DLL@DV?$ChTraitsCRT@D@ATL@@@@@ATL@@QAE@XZ
  000e9	cc		 int	 3
  000ea	cc		 int	 3
  000eb	cc		 int	 3
  000ec	cc		 int	 3
  000ed	cc		 int	 3
__ehhandler$?GetCurrentPosData@CMainToolImplementation@@QAEHVCPoint@@AAV?$CStringT@DV?$StrTraitMFC_DLL@DV?$ChTraitsCRT@D@ATL@@@@@ATL@@1@Z:
  000ee	90		 npad	 1
  000ef	90		 npad	 1
  000f0	8b 54 24 08	 mov	 edx, DWORD PTR [esp+8]
  000f4	8d 42 0c	 lea	 eax, DWORD PTR [edx+12]
  000f7	8b 8a ec fe ff
	ff		 mov	 ecx, DWORD PTR [edx-276]
  000fd	33 c8		 xor	 ecx, eax
  000ff	e8 00 00 00 00	 call	 @__security_check_cookie@4
  00104	8b 4a fc	 mov	 ecx, DWORD PTR [edx-4]
  00107	33 c8		 xor	 ecx, eax
  00109	e8 00 00 00 00	 call	 @__security_check_cookie@4
  0010e	b8 00 00 00 00	 mov	 eax, OFFSET __ehfuncinfo$?GetCurrentPosData@CMainToolImplementation@@QAEHVCPoint@@AAV?$CStringT@DV?$StrTraitMFC_DLL@DV?$ChTraitsCRT@D@ATL@@@@@ATL@@1@Z
  00113	e9 00 00 00 00	 jmp	 ___CxxFrameHandler3
text$x	ENDS
?GetCurrentPosData@CMainToolImplementation@@QAEHVCPoint@@AAV?$CStringT@DV?$StrTraitMFC_DLL@DV?$ChTraitsCRT@D@ATL@@@@@ATL@@1@Z ENDP ; CMainToolImplementation::GetCurrentPosData
; Function compile flags: /Ogtp
; File D:\git\src\IBK\IBK_DRFN\ProjSrc\SrcChartEx\ChartAddIn\ChartAnalysisToolAddIn\AnalysisTool\MainToolImplementation.cpp
; File C:\Program Files (x86)\Microsoft Visual Studio\2019\Community\VC\Tools\MSVC\14.29.30133\atlmfc\include\atltypes.h
; File D:\git\src\IBK\IBK_DRFN\ProjSrc\SrcChartEx\ChartAddIn\ChartAnalysisToolAddIn\AnalysisTool\MainToolImplementation.cpp
;	COMDAT ?GetGraphTotalRegion@CMainToolImplementation@@QAE?AVCRect@@VCPoint@@@Z
_TEXT	SEGMENT
$T1 = -20						; size = 16
__$ArrayPad$ = -4					; size = 4
___$ReturnUdt$ = 8					; size = 4
_point$ = 12						; size = 8
?GetGraphTotalRegion@CMainToolImplementation@@QAE?AVCRect@@VCPoint@@@Z PROC ; CMainToolImplementation::GetGraphTotalRegion, COMDAT
; _this$ = ecx

; 333  : {

  00000	55		 push	 ebp
  00001	8b ec		 mov	 ebp, esp
  00003	83 ec 14	 sub	 esp, 20			; 00000014H
  00006	a1 00 00 00 00	 mov	 eax, DWORD PTR ___security_cookie
  0000b	33 c5		 xor	 eax, ebp
  0000d	89 45 fc	 mov	 DWORD PTR __$ArrayPad$[ebp], eax
  00010	56		 push	 esi
  00011	57		 push	 edi
  00012	8b 7d 08	 mov	 edi, DWORD PTR ___$ReturnUdt$[ebp]

; 334  : 	IChartManager *pIChartManager = m_analysisData.GetMainBlock();

  00015	83 c1 1c	 add	 ecx, 28			; 0000001cH
  00018	e8 00 00 00 00	 call	 ?GetMainBlock@CAnalysisData@@QBEPAUIChartManager133101@@XZ ; CAnalysisData::GetMainBlock

; 335  : 	CRect rectRegion = pIChartManager->GetGraphRegionSumInColumn(point);

  0001d	ff 75 10	 push	 DWORD PTR _point$[ebp+4]
  00020	8b f0		 mov	 esi, eax
  00022	8d 45 ec	 lea	 eax, DWORD PTR $T1[ebp]
  00025	ff 75 0c	 push	 DWORD PTR _point$[ebp]
  00028	8b ce		 mov	 ecx, esi
  0002a	50		 push	 eax
  0002b	8b 16		 mov	 edx, DWORD PTR [esi]
  0002d	ff 92 88 00 00
	00		 call	 DWORD PTR [edx+136]
; File C:\Program Files (x86)\Microsoft Visual Studio\2019\Community\VC\Tools\MSVC\14.29.30133\atlmfc\include\atltypes.h

; 548  : 	::CopyRect(this, &srcRect);

  00033	50		 push	 eax
  00034	57		 push	 edi
  00035	ff 15 00 00 00
	00		 call	 DWORD PTR __imp__CopyRect@8
; File D:\git\src\IBK\IBK_DRFN\ProjSrc\SrcChartEx\ChartAddIn\ChartAnalysisToolAddIn\AnalysisTool\MainToolImplementation.cpp

; 336  : 	pIChartManager->Release();	

  0003b	8b 0e		 mov	 ecx, DWORD PTR [esi]
  0003d	56		 push	 esi
  0003e	ff 51 08	 call	 DWORD PTR [ecx+8]

; 337  : 	return rectRegion;
; 338  : }

  00041	8b 4d fc	 mov	 ecx, DWORD PTR __$ArrayPad$[ebp]
  00044	8b c7		 mov	 eax, edi
  00046	5f		 pop	 edi
  00047	33 cd		 xor	 ecx, ebp
  00049	5e		 pop	 esi
  0004a	e8 00 00 00 00	 call	 @__security_check_cookie@4
  0004f	8b e5		 mov	 esp, ebp
  00051	5d		 pop	 ebp
  00052	c2 0c 00	 ret	 12			; 0000000cH
?GetGraphTotalRegion@CMainToolImplementation@@QAE?AVCRect@@VCPoint@@@Z ENDP ; CMainToolImplementation::GetGraphTotalRegion
_TEXT	ENDS
; Function compile flags: /Ogtp
; File D:\git\src\IBK\IBK_DRFN\ProjSrc\SrcChartEx\ChartAddIn\ChartAnalysisToolAddIn\AnalysisTool\MainToolImplementation.cpp
; File D:\git\src\IBK\IBK_DRFN\ProjSrc\SrcChartEx\ChartAddIn\ChartAnalysisToolAddIn\Include_AddIn_133101\I133101\_IString.h
; File D:\git\src\IBK\IBK_DRFN\ProjSrc\SrcChartEx\ChartAddIn\ChartAnalysisToolAddIn\AnalysisTool\MainToolImplementation.cpp
; File D:\git\src\IBK\IBK_DRFN\ProjSrc\SrcChartEx\ChartAddIn\ChartAnalysisToolAddIn\Include_AddIn_133101\I133101\_IString.h
; File D:\git\src\IBK\IBK_DRFN\ProjSrc\SrcChartEx\ChartAddIn\ChartAnalysisToolAddIn\AnalysisTool\MainToolImplementation.cpp
;	COMDAT ?OnMenu@CMainToolImplementation@@QAE_NW4ELEMENTMENU@CMenuType@@I@Z
_TEXT	SEGMENT
_elementSet$2 = -84					; size = 40
_blockIndex$3 = -44					; size = 8
_szHelpMsg$4 = -36					; size = 8
$T5 = -28						; size = 4
$T6 = -24						; size = 4
_strFormatX$7 = -20					; size = 4
_this$1$ = -16						; size = 4
__$EHRec$ = -12						; size = 12
_menuType$ = 8						; size = 4
_wParam$ = 12						; size = 4
?OnMenu@CMainToolImplementation@@QAE_NW4ELEMENTMENU@CMenuType@@I@Z PROC ; CMainToolImplementation::OnMenu, COMDAT
; _this$ = ecx

; 286  : {

  00000	55		 push	 ebp
  00001	8b ec		 mov	 ebp, esp
  00003	6a ff		 push	 -1
  00005	68 00 00 00 00	 push	 __ehhandler$?OnMenu@CMainToolImplementation@@QAE_NW4ELEMENTMENU@CMenuType@@I@Z
  0000a	64 a1 00 00 00
	00		 mov	 eax, DWORD PTR fs:0
  00010	50		 push	 eax
  00011	83 ec 48	 sub	 esp, 72			; 00000048H
  00014	53		 push	 ebx
  00015	56		 push	 esi
  00016	57		 push	 edi
  00017	a1 00 00 00 00	 mov	 eax, DWORD PTR ___security_cookie
  0001c	33 c5		 xor	 eax, ebp
  0001e	50		 push	 eax
  0001f	8d 45 f4	 lea	 eax, DWORD PTR __$EHRec$[ebp]
  00022	64 a3 00 00 00
	00		 mov	 DWORD PTR fs:0, eax
  00028	8b d9		 mov	 ebx, ecx
  0002a	89 5d f0	 mov	 DWORD PTR _this$1$[ebp], ebx

; 287  : 	if(m_pSelectedElement == NULL && CMenuType::MENU_TIME_DIFF != menuType)

  0002d	8b 83 94 00 00
	00		 mov	 eax, DWORD PTR [ebx+148]
  00033	85 c0		 test	 eax, eax
  00035	75 1c		 jne	 SHORT $LN4@OnMenu
  00037	83 7d 08 0a	 cmp	 DWORD PTR _menuType$[ebp], 10 ; 0000000aH
  0003b	74 20		 je	 SHORT $LN28@OnMenu

; 288  : 		return false;

  0003d	32 c0		 xor	 al, al

; 326  : 		}
; 327  : 	}
; 328  : 
; 329  : 	return false;
; 330  : }

  0003f	8b 4d f4	 mov	 ecx, DWORD PTR __$EHRec$[ebp]
  00042	64 89 0d 00 00
	00 00		 mov	 DWORD PTR fs:0, ecx
  00049	59		 pop	 ecx
  0004a	5f		 pop	 edi
  0004b	5e		 pop	 esi
  0004c	5b		 pop	 ebx
  0004d	8b e5		 mov	 esp, ebp
  0004f	5d		 pop	 ebp
  00050	c2 08 00	 ret	 8
$LN4@OnMenu:

; 289  : 
; 290  : 	switch(menuType)

  00053	83 7d 08 00	 cmp	 DWORD PTR _menuType$[ebp], 0
  00057	0f 84 0c 01 00
	00		 je	 $LN13@OnMenu
$LN28@OnMenu:

; 294  : 	default:
; 295  : 		{
; 296  : 		IPacketManager* pPackManager = m_analysisData.GetPacketManager();

  0005d	8d 7b 1c	 lea	 edi, DWORD PTR [ebx+28]
  00060	8b cf		 mov	 ecx, edi
  00062	e8 00 00 00 00	 call	 ?GetPacketManager@CAnalysisData@@QBEPAUIPacketManager133101@@XZ ; CAnalysisData::GetPacketManager

; 297  : 
; 298  : 		// 2011.02.08 by SYS >>  YYYY()  : / 14Byte  (YYYYMMDDhhmmss)
; 299  : // 		CCurrentElementSet elementSet(m_analysisData.GetUserPath(), 
; 300  : // 									  pPackManager->GetBaseTimeDataType(),
; 301  : // 									  m_analysisData.GetParent(), 
; 302  : // 									  m_pSelectedElement);
; 303  : 
; 304  : 		//
; 305  : 		CBlockIndex blockIndex = m_analysisData.GetBlockIndexInPoint(m_ptOldLBtnUp);

  00067	8b 4d f0	 mov	 ecx, DWORD PTR _this$1$[ebp]
  0006a	8b d8		 mov	 ebx, eax
  0006c	83 c1 08	 add	 ecx, 8
  0006f	8d 45 d4	 lea	 eax, DWORD PTR _blockIndex$3[ebp]
  00072	51		 push	 ecx
  00073	50		 push	 eax
  00074	8b cf		 mov	 ecx, edi
  00076	e8 00 00 00 00	 call	 ?GetBlockIndexInPoint@CAnalysisData@@QBE?AVCBlockIndex@@ABVCPoint@@@Z ; CAnalysisData::GetBlockIndexInPoint
; File D:\git\src\IBK\IBK_DRFN\ProjSrc\SrcChartEx\ChartAddIn\ChartAnalysisToolAddIn\Include_AddIn_133101\I133101\_IString.h

; 39   : 		m_pIStrData = p_pIString;	// Do not AddRef(). Because It must be Return Value.

  0007b	c7 45 e0 00 00
	00 00		 mov	 DWORD PTR _szHelpMsg$4[ebp+4], 0

; 40   : 		if( m_pIStrData) m_szData = m_pIStrData->GetData();
; 41   : 		else m_szData = NULL;

  00082	c7 45 dc 00 00
	00 00		 mov	 DWORD PTR _szHelpMsg$4[ebp], 0
; File D:\git\src\IBK\IBK_DRFN\ProjSrc\SrcChartEx\ChartAddIn\ChartAnalysisToolAddIn\AnalysisTool\MainToolImplementation.cpp

; 309  : 		CString strFormatX;	

  00089	8d 4d ec	 lea	 ecx, DWORD PTR _strFormatX$7[ebp]
  0008c	c7 45 fc 00 00
	00 00		 mov	 DWORD PTR __$EHRec$[ebp+8], 0
  00093	ff 15 00 00 00
	00		 call	 DWORD PTR __imp_??0?$CStringT@DV?$StrTraitMFC_DLL@DV?$ChTraitsCRT@D@ATL@@@@@ATL@@QAE@XZ

; 310  : 		pPackManager->GetHelpMessageItem("RDATET", szHelpMsg);	//  UD  .	

  00099	8b 03		 mov	 eax, DWORD PTR [ebx]
  0009b	8d 4d dc	 lea	 ecx, DWORD PTR _szHelpMsg$4[ebp]
  0009e	51		 push	 ecx
  0009f	68 00 00 00 00	 push	 OFFSET ??_C@_06MLGKKOBC@RDATET@
  000a4	8b cb		 mov	 ecx, ebx
  000a6	c6 45 fc 01	 mov	 BYTE PTR __$EHRec$[ebp+8], 1
  000aa	ff 50 18	 call	 DWORD PTR [eax+24]

; 311  : 		strFormatX = szHelpMsg;

  000ad	ff 75 dc	 push	 DWORD PTR _szHelpMsg$4[ebp]
  000b0	8d 4d ec	 lea	 ecx, DWORD PTR _strFormatX$7[ebp]
  000b3	ff 15 00 00 00
	00		 call	 DWORD PTR __imp_??4?$CStringT@DV?$StrTraitMFC_DLL@DV?$ChTraitsCRT@D@ATL@@@@@ATL@@QAEAAV01@PBD@Z

; 312  : 		// 2011.02.08 by SYS <<
; 313  : 
; 314  : 		CCurrentElementSet elementSet(m_pIChartOCX,

  000b9	8b 03		 mov	 eax, DWORD PTR [ebx]
  000bb	8b cb		 mov	 ecx, ebx
  000bd	ff 50 2c	 call	 DWORD PTR [eax+44]
  000c0	89 45 e8	 mov	 DWORD PTR $T6[ebp], eax
  000c3	8b cf		 mov	 ecx, edi
  000c5	8d 45 e4	 lea	 eax, DWORD PTR $T5[ebp]
  000c8	50		 push	 eax
  000c9	e8 00 00 00 00	 call	 ?GetUserPath@CAnalysisData@@QBE?AV?$CStringT@DV?$StrTraitMFC_DLL@DV?$ChTraitsCRT@D@ATL@@@@@ATL@@XZ ; CAnalysisData::GetUserPath
  000ce	8b f0		 mov	 esi, eax
  000d0	8b 45 f0	 mov	 eax, DWORD PTR _this$1$[ebp]
  000d3	8b cf		 mov	 ecx, edi
  000d5	50		 push	 eax
  000d6	c6 45 fc 02	 mov	 BYTE PTR __$EHRec$[ebp+8], 2
  000da	ff b0 94 00 00
	00		 push	 DWORD PTR [eax+148]
  000e0	e8 00 00 00 00	 call	 ?GetParent@CAnalysisData@@QBEPAVCWnd@@XZ ; CAnalysisData::GetParent
  000e5	50		 push	 eax
  000e6	8d 45 e8	 lea	 eax, DWORD PTR $T6[ebp]
  000e9	50		 push	 eax
  000ea	56		 push	 esi
  000eb	8d 45 ec	 lea	 eax, DWORD PTR _strFormatX$7[ebp]
  000ee	50		 push	 eax
  000ef	8d 45 d4	 lea	 eax, DWORD PTR _blockIndex$3[ebp]
  000f2	50		 push	 eax
  000f3	8b 45 f0	 mov	 eax, DWORD PTR _this$1$[ebp]
  000f6	8d 4d ac	 lea	 ecx, DWORD PTR _elementSet$2[ebp]
  000f9	ff 70 04	 push	 DWORD PTR [eax+4]
  000fc	e8 00 00 00 00	 call	 ??0CCurrentElementSet@@QAE@PAUIChartOCX133101@@ABVCBlockIndex@@ABV?$CStringT@DV?$StrTraitMFC_DLL@DV?$ChTraitsCRT@D@ATL@@@@@ATL@@2ABW4HORZSCALEDRAWERTYPE@CScaleBaseData@@PAVCWnd@@PAVCElement@@J@Z ; CCurrentElementSet::CCurrentElementSet
  00101	8d 4d e4	 lea	 ecx, DWORD PTR $T5[ebp]
  00104	c6 45 fc 04	 mov	 BYTE PTR __$EHRec$[ebp+8], 4
  00108	ff 15 00 00 00
	00		 call	 DWORD PTR __imp_??1?$CStringT@DV?$StrTraitMFC_DLL@DV?$ChTraitsCRT@D@ATL@@@@@ATL@@QAE@XZ

; 315  : 									  blockIndex,
; 316  : 									  strFormatX,
; 317  : 									  m_analysisData.GetUserPath(), 
; 318  : 									  pPackManager->GetBaseTimeDataType(),
; 319  : 									  m_analysisData.GetParent(), 
; 320  : 									  m_pSelectedElement,
; 321  : 									  (LONG)&m_xCanCallYou);
; 322  : 		// 2011.02.08 by SYS <<
; 323  : 
; 324  : 		pPackManager->Release();

  0010e	8b 03		 mov	 eax, DWORD PTR [ebx]
  00110	53		 push	 ebx
  00111	ff 50 08	 call	 DWORD PTR [eax+8]

; 325  : 		return elementSet.OnMenu(menuType, wParam);

  00114	ff 75 0c	 push	 DWORD PTR _wParam$[ebp]
  00117	8d 4d ac	 lea	 ecx, DWORD PTR _elementSet$2[ebp]
  0011a	ff 75 08	 push	 DWORD PTR _menuType$[ebp]
  0011d	e8 00 00 00 00	 call	 ?OnMenu@CCurrentElementSet@@QAE_NW4ELEMENTMENU@CMenuType@@I@Z ; CCurrentElementSet::OnMenu
  00122	8d 4d bc	 lea	 ecx, DWORD PTR _elementSet$2[ebp+16]
  00125	8a d8		 mov	 bl, al
  00127	ff 15 00 00 00
	00		 call	 DWORD PTR __imp_??1?$CStringT@DV?$StrTraitMFC_DLL@DV?$ChTraitsCRT@D@ATL@@@@@ATL@@QAE@XZ
  0012d	8d 4d b8	 lea	 ecx, DWORD PTR _elementSet$2[ebp+12]
  00130	ff 15 00 00 00
	00		 call	 DWORD PTR __imp_??1?$CStringT@DV?$StrTraitMFC_DLL@DV?$ChTraitsCRT@D@ATL@@@@@ATL@@QAE@XZ
  00136	8d 4d ec	 lea	 ecx, DWORD PTR _strFormatX$7[ebp]
  00139	ff 15 00 00 00
	00		 call	 DWORD PTR __imp_??1?$CStringT@DV?$StrTraitMFC_DLL@DV?$ChTraitsCRT@D@ATL@@@@@ATL@@QAE@XZ
; File D:\git\src\IBK\IBK_DRFN\ProjSrc\SrcChartEx\ChartAddIn\ChartAnalysisToolAddIn\Include_AddIn_133101\I133101\_IString.h

; 45   : 		if( m_pIStrData)

  0013f	8b 4d e0	 mov	 ecx, DWORD PTR _szHelpMsg$4[ebp+4]
  00142	c7 45 fc 05 00
	00 00		 mov	 DWORD PTR __$EHRec$[ebp+8], 5
  00149	85 c9		 test	 ecx, ecx
  0014b	74 06		 je	 SHORT $LN25@OnMenu

; 46   : 		{
; 47   : 			m_pIStrData->Release();

  0014d	8b 01		 mov	 eax, DWORD PTR [ecx]
  0014f	51		 push	 ecx
  00150	ff 50 08	 call	 DWORD PTR [eax+8]
$LN25@OnMenu:
; File D:\git\src\IBK\IBK_DRFN\ProjSrc\SrcChartEx\ChartAddIn\ChartAnalysisToolAddIn\AnalysisTool\MainToolImplementation.cpp

; 325  : 		return elementSet.OnMenu(menuType, wParam);

  00153	8a c3		 mov	 al, bl

; 326  : 		}
; 327  : 	}
; 328  : 
; 329  : 	return false;
; 330  : }

  00155	8b 4d f4	 mov	 ecx, DWORD PTR __$EHRec$[ebp]
  00158	64 89 0d 00 00
	00 00		 mov	 DWORD PTR fs:0, ecx
  0015f	59		 pop	 ecx
  00160	5f		 pop	 edi
  00161	5e		 pop	 esi
  00162	5b		 pop	 ebx
  00163	8b e5		 mov	 esp, ebp
  00165	5d		 pop	 ebp
  00166	c2 08 00	 ret	 8
$LN13@OnMenu:

; 557  : 	m_analysisData.UnRegisterElementToOrderManager((long)m_pSelectedElement);

  00169	50		 push	 eax
  0016a	8d 4b 1c	 lea	 ecx, DWORD PTR [ebx+28]
  0016d	e8 00 00 00 00	 call	 ?UnRegisterElementToOrderManager@CAnalysisData@@QAEXJ@Z ; CAnalysisData::UnRegisterElementToOrderManager

; 558  : 
; 559  : 	// Undo / Redo
; 560  : 	m_analysisData.GetUndoRedoManager().RegisterElementToUnRedoManager(URT_NEW_OR_DEL, (long)m_pSelectedElement);

  00172	6a 00		 push	 0
  00174	6a 00		 push	 0
  00176	ff b3 94 00 00
	00		 push	 DWORD PTR [ebx+148]
  0017c	8d 4b 1c	 lea	 ecx, DWORD PTR [ebx+28]
  0017f	6a 01		 push	 1
  00181	e8 00 00 00 00	 call	 ?GetUndoRedoManager@CAnalysisData@@QAEAAVCUndoRedoManager@@XZ ; CAnalysisData::GetUndoRedoManager
  00186	8b c8		 mov	 ecx, eax
  00188	e8 00 00 00 00	 call	 ?RegisterElementToUnRedoManager@CUndoRedoManager@@QAEXHJPBD0@Z ; CUndoRedoManager::RegisterElementToUnRedoManager

; 561  : 
; 562  : 	m_analysisData.GetElementTree().DeleteElement(m_pSelectedElement);	

  0018d	ff b3 94 00 00
	00		 push	 DWORD PTR [ebx+148]
  00193	8d 4b 1c	 lea	 ecx, DWORD PTR [ebx+28]
  00196	e8 00 00 00 00	 call	 ?GetElementTree@CAnalysisData@@QAEAAVCElementTree@@XZ ; CAnalysisData::GetElementTree
  0019b	8b c8		 mov	 ecx, eax
  0019d	e8 00 00 00 00	 call	 ?DeleteElement@CElementTree@@QAEXPAVCElement@@@Z ; CElementTree::DeleteElement

; 702  : 	m_toolSingleton.InitializeAllTool();

  001a2	8d 8b 98 00 00
	00		 lea	 ecx, DWORD PTR [ebx+152]
  001a8	e8 00 00 00 00	 call	 ?InitializeAllTool@CToolSingleton@@QAEXXZ ; CToolSingleton::InitializeAllTool

; 703  : 	m_pSelectedElement = NULL;
; 704  : 	m_analysisData.InvalidateAndSendMessageToParent(CCursorShape::OBJECT_NONE);

  001ad	6a 00		 push	 0
  001af	8d 4b 1c	 lea	 ecx, DWORD PTR [ebx+28]
  001b2	c7 83 94 00 00
	00 00 00 00 00	 mov	 DWORD PTR [ebx+148], 0
  001bc	e8 00 00 00 00	 call	 ?InvalidateAndSendMessageToParent@CAnalysisData@@QAEXW4CHARTOBJECT@CCursorShape@@@Z ; CAnalysisData::InvalidateAndSendMessageToParent

; 291  : 	{
; 292  : 	case CMenuType::MENU_DELETE:	// 
; 293  : 		return DeleteCurrentElement();

  001c1	b0 01		 mov	 al, 1

; 326  : 		}
; 327  : 	}
; 328  : 
; 329  : 	return false;
; 330  : }

  001c3	8b 4d f4	 mov	 ecx, DWORD PTR __$EHRec$[ebp]
  001c6	64 89 0d 00 00
	00 00		 mov	 DWORD PTR fs:0, ecx
  001cd	59		 pop	 ecx
  001ce	5f		 pop	 edi
  001cf	5e		 pop	 esi
  001d0	5b		 pop	 ebx
  001d1	8b e5		 mov	 esp, ebp
  001d3	5d		 pop	 ebp
  001d4	c2 08 00	 ret	 8
_TEXT	ENDS
;	COMDAT text$x
text$x	SEGMENT
__unwindfunclet$?OnMenu@CMainToolImplementation@@QAE_NW4ELEMENTMENU@CMenuType@@I@Z$0:
  00000	8d 4d dc	 lea	 ecx, DWORD PTR _szHelpMsg$4[ebp]
  00003	e9 00 00 00 00	 jmp	 ??1ILPCSTR133101@@QAE@XZ ; ILPCSTR133101::~ILPCSTR133101
__unwindfunclet$?OnMenu@CMainToolImplementation@@QAE_NW4ELEMENTMENU@CMenuType@@I@Z$1:
  00008	8d 4d ec	 lea	 ecx, DWORD PTR _strFormatX$7[ebp]
  0000b	ff 25 00 00 00
	00		 jmp	 DWORD PTR __imp_??1?$CStringT@DV?$StrTraitMFC_DLL@DV?$ChTraitsCRT@D@ATL@@@@@ATL@@QAE@XZ
__unwindfunclet$?OnMenu@CMainToolImplementation@@QAE_NW4ELEMENTMENU@CMenuType@@I@Z$2:
  00011	8d 4d e4	 lea	 ecx, DWORD PTR $T5[ebp]
  00014	ff 25 00 00 00
	00		 jmp	 DWORD PTR __imp_??1?$CStringT@DV?$StrTraitMFC_DLL@DV?$ChTraitsCRT@D@ATL@@@@@ATL@@QAE@XZ
__unwindfunclet$?OnMenu@CMainToolImplementation@@QAE_NW4ELEMENTMENU@CMenuType@@I@Z$3:
  0001a	8d 4d ac	 lea	 ecx, DWORD PTR _elementSet$2[ebp]
  0001d	e9 00 00 00 00	 jmp	 ??1CCurrentElementSet@@QAE@XZ
  00022	cc		 int	 3
  00023	cc		 int	 3
  00024	cc		 int	 3
  00025	cc		 int	 3
  00026	cc		 int	 3
__ehhandler$?OnMenu@CMainToolImplementation@@QAE_NW4ELEMENTMENU@CMenuType@@I@Z:
  00027	90		 npad	 1
  00028	90		 npad	 1
  00029	8b 54 24 08	 mov	 edx, DWORD PTR [esp+8]
  0002d	8d 42 0c	 lea	 eax, DWORD PTR [edx+12]
  00030	8b 4a a8	 mov	 ecx, DWORD PTR [edx-88]
  00033	33 c8		 xor	 ecx, eax
  00035	e8 00 00 00 00	 call	 @__security_check_cookie@4
  0003a	b8 00 00 00 00	 mov	 eax, OFFSET __ehfuncinfo$?OnMenu@CMainToolImplementation@@QAE_NW4ELEMENTMENU@CMenuType@@I@Z
  0003f	e9 00 00 00 00	 jmp	 ___CxxFrameHandler3
text$x	ENDS
?OnMenu@CMainToolImplementation@@QAE_NW4ELEMENTMENU@CMenuType@@I@Z ENDP ; CMainToolImplementation::OnMenu
; Function compile flags: /Ogtp
; File D:\git\src\IBK\IBK_DRFN\ProjSrc\SrcChartEx\ChartAddIn\ChartAnalysisToolAddIn\AnalysisTool\MainToolImplementation.cpp
;	COMDAT ?OnRButtonUp@CMainToolImplementation@@QAE?AW4MENUTYPE@CMenuType@@PAVCDC@@ABVCPoint@@@Z
_TEXT	SEGMENT
_pDC$ = 8						; size = 4
_point$ = 12						; size = 4
?OnRButtonUp@CMainToolImplementation@@QAE?AW4MENUTYPE@CMenuType@@PAVCDC@@ABVCPoint@@@Z PROC ; CMainToolImplementation::OnRButtonUp, COMDAT
; _this$ = ecx

; 277  : {

  00000	55		 push	 ebp
  00001	8b ec		 mov	 ebp, esp

; 278  : 	if(m_pTool == NULL || m_pSelectedElement != NULL)

  00003	8b 51 18	 mov	 edx, DWORD PTR [ecx+24]
  00006	85 d2		 test	 edx, edx
  00008	74 1d		 je	 SHORT $LN10@OnRButtonU
  0000a	83 b9 94 00 00
	00 00		 cmp	 DWORD PTR [ecx+148], 0
  00011	75 14		 jne	 SHORT $LN10@OnRButtonU

; 280  : 
; 281  : 	m_pTool->OnRButtonUp(pDC, point);

  00013	ff 75 0c	 push	 DWORD PTR _point$[ebp]
  00016	8b 02		 mov	 eax, DWORD PTR [edx]
  00018	8b ca		 mov	 ecx, edx
  0001a	ff 75 08	 push	 DWORD PTR _pDC$[ebp]
  0001d	ff 50 10	 call	 DWORD PTR [eax+16]

; 282  : 	return CMenuType::MENU_NONE;

  00020	83 c8 ff	 or	 eax, -1

; 283  : }

  00023	5d		 pop	 ebp
  00024	c2 08 00	 ret	 8
$LN10@OnRButtonU:

; 692  : 	if(m_pSelectedElement == NULL || !m_analysisData.PointInGraphRegion(point))

  00027	83 b9 94 00 00
	00 00		 cmp	 DWORD PTR [ecx+148], 0
  0002e	56		 push	 esi
  0002f	74 24		 je	 SHORT $LN7@OnRButtonU
  00031	ff 75 0c	 push	 DWORD PTR _point$[ebp]
  00034	8d 71 1c	 lea	 esi, DWORD PTR [ecx+28]
  00037	8b ce		 mov	 ecx, esi
  00039	e8 00 00 00 00	 call	 ?PointInGraphRegion@CAnalysisData@@QBE_NABVCPoint@@@Z ; CAnalysisData::PointInGraphRegion
  0003e	84 c0		 test	 al, al
  00040	74 13		 je	 SHORT $LN7@OnRButtonU

; 694  : 
; 695  : 	m_analysisData.SendMessageToParent(CCursorShape::OBJECT_NONE);

  00042	6a 00		 push	 0
  00044	8b ce		 mov	 ecx, esi
  00046	e8 00 00 00 00	 call	 ?SendMessageToParent@CAnalysisData@@QAEXW4CHARTOBJECT@CCursorShape@@@Z ; CAnalysisData::SendMessageToParent

; 696  : 	return CMenuType::MENU_ANALYSTOOL;

  0004b	b8 06 00 00 00	 mov	 eax, 6

; 279  : 		return GetRButtonMenuType(point);

  00050	5e		 pop	 esi

; 283  : }

  00051	5d		 pop	 ebp
  00052	c2 08 00	 ret	 8
$LN7@OnRButtonU:

; 693  : 		return CMenuType::MENU_NONE;

  00055	83 c8 ff	 or	 eax, -1

; 279  : 		return GetRButtonMenuType(point);

  00058	5e		 pop	 esi

; 283  : }

  00059	5d		 pop	 ebp
  0005a	c2 08 00	 ret	 8
?OnRButtonUp@CMainToolImplementation@@QAE?AW4MENUTYPE@CMenuType@@PAVCDC@@ABVCPoint@@@Z ENDP ; CMainToolImplementation::OnRButtonUp
_TEXT	ENDS
; Function compile flags: /Ogtp
; File D:\git\src\IBK\IBK_DRFN\ProjSrc\SrcChartEx\ChartAddIn\ChartAnalysisToolAddIn\AnalysisTool\MainToolImplementation.cpp
;	COMDAT ?OnMouseMove@CMainToolImplementation@@QAE_NPAVCDC@@ABVCPoint@@HQAUHBITMAP__@@@Z
_TEXT	SEGMENT
_pDC$ = 8						; size = 4
_point$ = 12						; size = 4
_nFlags$ = 16						; size = 4
_p_hbmpMainOSB$ = 20					; size = 4
?OnMouseMove@CMainToolImplementation@@QAE_NPAVCDC@@ABVCPoint@@HQAUHBITMAP__@@@Z PROC ; CMainToolImplementation::OnMouseMove, COMDAT
; _this$ = ecx

; 268  : {	

  00000	55		 push	 ebp
  00001	8b ec		 mov	 ebp, esp
  00003	56		 push	 esi
  00004	8b f1		 mov	 esi, ecx
  00006	57		 push	 edi

; 269  : 	m_ptOldMouse = point;

  00007	8b 7d 0c	 mov	 edi, DWORD PTR _point$[ebp]

; 654  : 	return (m_pTool != NULL && m_pTool->DoesProcessStarting());

  0000a	8b 4e 18	 mov	 ecx, DWORD PTR [esi+24]

; 269  : 	m_ptOldMouse = point;

  0000d	8b 07		 mov	 eax, DWORD PTR [edi]
  0000f	8b 57 04	 mov	 edx, DWORD PTR [edi+4]
  00012	89 46 10	 mov	 DWORD PTR [esi+16], eax
  00015	89 56 14	 mov	 DWORD PTR [esi+20], edx

; 654  : 	return (m_pTool != NULL && m_pTool->DoesProcessStarting());

  00018	85 c9		 test	 ecx, ecx
  0001a	74 20		 je	 SHORT $LN8@OnMouseMov
  0001c	e8 00 00 00 00	 call	 ?DoesProcessStarting@CTool@@QBE_NXZ ; CTool::DoesProcessStarting
  00021	84 c0		 test	 al, al
  00023	74 17		 je	 SHORT $LN8@OnMouseMov

; 272  : 	
; 273  : 	return m_pTool->OnMouseMove(pDC, point,nFlags);

  00025	8b 4e 18	 mov	 ecx, DWORD PTR [esi+24]
  00028	ff 75 10	 push	 DWORD PTR _nFlags$[ebp]
  0002b	57		 push	 edi
  0002c	8b 01		 mov	 eax, DWORD PTR [ecx]
  0002e	ff 75 08	 push	 DWORD PTR _pDC$[ebp]
  00031	8b 40 0c	 mov	 eax, DWORD PTR [eax+12]
  00034	ff d0		 call	 eax
  00036	5f		 pop	 edi

; 274  : }

  00037	5e		 pop	 esi
  00038	5d		 pop	 ebp
  00039	c2 10 00	 ret	 16			; 00000010H
$LN8@OnMouseMov:
  0003c	5f		 pop	 edi

; 270  : 	if(!DoesAction())
; 271  : 		return false;

  0003d	32 c0		 xor	 al, al

; 274  : }

  0003f	5e		 pop	 esi
  00040	5d		 pop	 ebp
  00041	c2 10 00	 ret	 16			; 00000010H
?OnMouseMove@CMainToolImplementation@@QAE_NPAVCDC@@ABVCPoint@@HQAUHBITMAP__@@@Z ENDP ; CMainToolImplementation::OnMouseMove
_TEXT	ENDS
; Function compile flags: /Ogtp
; File D:\git\src\IBK\IBK_DRFN\ProjSrc\SrcChartEx\ChartAddIn\ChartAnalysisToolAddIn\AnalysisTool\MainToolImplementation.cpp
;	COMDAT ?OnLButtonUp@CMainToolImplementation@@QAE_NPAVCDC@@ABVCPoint@@@Z
_TEXT	SEGMENT
_pDC$ = 8						; size = 4
_point$ = 12						; size = 4
?OnLButtonUp@CMainToolImplementation@@QAE_NPAVCDC@@ABVCPoint@@@Z PROC ; CMainToolImplementation::OnLButtonUp, COMDAT
; _this$ = ecx

; 251  : {

  00000	55		 push	 ebp
  00001	8b ec		 mov	 ebp, esp
  00003	57		 push	 edi
  00004	8b f9		 mov	 edi, ecx

; 654  : 	return (m_pTool != NULL && m_pTool->DoesProcessStarting());

  00006	8b 4f 18	 mov	 ecx, DWORD PTR [edi+24]
  00009	85 c9		 test	 ecx, ecx
  0000b	74 4e		 je	 SHORT $LN22@OnLButtonU
  0000d	e8 00 00 00 00	 call	 ?DoesProcessStarting@CTool@@QBE_NXZ ; CTool::DoesProcessStarting
  00012	84 c0		 test	 al, al
  00014	74 45		 je	 SHORT $LN22@OnLButtonU

; 254  : 
; 255  : 	m_pTool->OnLButtonUp(pDC, point);

  00016	8b 4f 18	 mov	 ecx, DWORD PTR [edi+24]
  00019	56		 push	 esi
  0001a	8b 75 0c	 mov	 esi, DWORD PTR _point$[ebp]
  0001d	56		 push	 esi
  0001e	8b 01		 mov	 eax, DWORD PTR [ecx]
  00020	ff 75 08	 push	 DWORD PTR _pDC$[ebp]
  00023	ff 50 08	 call	 DWORD PTR [eax+8]

; 256  : 	m_ptOldLBtnUp = point;

  00026	8b 4e 04	 mov	 ecx, DWORD PTR [esi+4]
  00029	8b 06		 mov	 eax, DWORD PTR [esi]
  0002b	89 4f 0c	 mov	 DWORD PTR [edi+12], ecx

; 257  : 	m_analysisData.Invalidate();

  0002e	8d 4f 1c	 lea	 ecx, DWORD PTR [edi+28]
  00031	89 47 08	 mov	 DWORD PTR [edi+8], eax
  00034	e8 00 00 00 00	 call	 ?Invalidate@CAnalysisData@@QAEXXZ ; CAnalysisData::Invalidate

; 654  : 	return (m_pTool != NULL && m_pTool->DoesProcessStarting());

  00039	8b 4f 18	 mov	 ecx, DWORD PTR [edi+24]
  0003c	85 c9		 test	 ecx, ecx
  0003e	74 09		 je	 SHORT $LN20@OnLButtonU
  00040	e8 00 00 00 00	 call	 ?DoesProcessStarting@CTool@@QBE_NXZ ; CTool::DoesProcessStarting
  00045	84 c0		 test	 al, al
  00047	75 0a		 jne	 SHORT $LN4@OnLButtonU
$LN20@OnLButtonU:

; 258  : 	
; 259  : 	if(!DoesCurrentMultiTool())
; 260  : 		SetCurrentAnalysisTool(CAnalysis::EN_ANALYSIS_SELECTION);
; 261  : 	if(!DoesAction())
; 262  : 		m_analysisData.SendMessageToParent(CCursorShape::OBJECT_NONE);

  00049	6a 00		 push	 0
  0004b	8d 4f 1c	 lea	 ecx, DWORD PTR [edi+28]
  0004e	e8 00 00 00 00	 call	 ?SendMessageToParent@CAnalysisData@@QAEXW4CHARTOBJECT@CCursorShape@@@Z ; CAnalysisData::SendMessageToParent
$LN4@OnLButtonU:

; 263  : 
; 264  : 	return true;

  00053	5e		 pop	 esi
  00054	b0 01		 mov	 al, 1
  00056	5f		 pop	 edi

; 265  : }

  00057	5d		 pop	 ebp
  00058	c2 08 00	 ret	 8
$LN22@OnLButtonU:

; 252  : 	if(!DoesAction())
; 253  : 		return false;

  0005b	32 c0		 xor	 al, al
  0005d	5f		 pop	 edi

; 265  : }

  0005e	5d		 pop	 ebp
  0005f	c2 08 00	 ret	 8
?OnLButtonUp@CMainToolImplementation@@QAE_NPAVCDC@@ABVCPoint@@@Z ENDP ; CMainToolImplementation::OnLButtonUp
_TEXT	ENDS
; Function compile flags: /Ogtp
; File D:\git\src\IBK\IBK_DRFN\ProjSrc\SrcChartEx\ChartAddIn\ChartAnalysisToolAddIn\AnalysisTool\MainToolImplementation.cpp
; File D:\git\src\IBK\IBK_DRFN\ProjSrc\SrcChartEx\ChartAddIn\ChartAnalysisToolAddIn\Include_AddIn_133101\I133101\_IString.h
; File D:\git\src\IBK\IBK_DRFN\ProjSrc\SrcChartEx\ChartAddIn\ChartAnalysisToolAddIn\AnalysisTool\MainToolImplementation.cpp
; File D:\git\src\IBK\IBK_DRFN\ProjSrc\SrcChartEx\ChartAddIn\ChartAnalysisToolAddIn\Include_AddIn_133101\I133101\_IString.h
; File D:\git\src\IBK\IBK_DRFN\ProjSrc\SrcChartEx\ChartAddIn\ChartAnalysisToolAddIn\AnalysisTool\MainToolImplementation.cpp
;	COMDAT ?OnLButtonDbClk@CMainToolImplementation@@QAE_NPAVCDC@@ABVCPoint@@@Z
_TEXT	SEGMENT
_elementSet$ = -84					; size = 40
_blockIndex$ = -44					; size = 8
_szHelpMsg$ = -36					; size = 8
$T2 = -28						; size = 4
_eBaseTimeDataType$ = -24				; size = 4
_strFormatX$ = -20					; size = 4
_strElementData_Prev$ = -16				; size = 4
__$EHRec$ = -12						; size = 12
_pDC$ = 8						; size = 4
_strElementData_After$ = 12				; size = 4
_point$ = 12						; size = 4
?OnLButtonDbClk@CMainToolImplementation@@QAE_NPAVCDC@@ABVCPoint@@@Z PROC ; CMainToolImplementation::OnLButtonDbClk, COMDAT
; _this$ = ecx

; 203  : {

  00000	55		 push	 ebp
  00001	8b ec		 mov	 ebp, esp
  00003	6a ff		 push	 -1
  00005	68 00 00 00 00	 push	 __ehhandler$?OnLButtonDbClk@CMainToolImplementation@@QAE_NPAVCDC@@ABVCPoint@@@Z
  0000a	64 a1 00 00 00
	00		 mov	 eax, DWORD PTR fs:0
  00010	50		 push	 eax
  00011	83 ec 48	 sub	 esp, 72			; 00000048H
  00014	53		 push	 ebx
  00015	56		 push	 esi
  00016	57		 push	 edi
  00017	a1 00 00 00 00	 mov	 eax, DWORD PTR ___security_cookie
  0001c	33 c5		 xor	 eax, ebp
  0001e	50		 push	 eax
  0001f	8d 45 f4	 lea	 eax, DWORD PTR __$EHRec$[ebp]
  00022	64 a3 00 00 00
	00		 mov	 DWORD PTR fs:0, eax
  00028	8b f9		 mov	 edi, ecx

; 204  : 	if(m_pSelectedElement == NULL)

  0002a	83 bf 94 00 00
	00 00		 cmp	 DWORD PTR [edi+148], 0
  00031	0f 84 9c 01 00
	00		 je	 $LN29@OnLButtonD

; 205  : 		return false;
; 206  : 
; 207  : 	CBlockIndex blockIndex = m_analysisData.GetBlockIndexInPoint(point);

  00037	ff 75 0c	 push	 DWORD PTR _point$[ebp]
  0003a	8d 45 d4	 lea	 eax, DWORD PTR _blockIndex$[ebp]
  0003d	50		 push	 eax
  0003e	8d 4f 1c	 lea	 ecx, DWORD PTR [edi+28]
  00041	e8 00 00 00 00	 call	 ?GetBlockIndexInPoint@CAnalysisData@@QBE?AVCBlockIndex@@ABVCPoint@@@Z ; CAnalysisData::GetBlockIndexInPoint

; 208  : 
; 209  : 	IChartManager *pIChartManager = m_pIChartOCX->GetIChartManager();

  00046	8b 4f 04	 mov	 ecx, DWORD PTR [edi+4]
  00049	8b 01		 mov	 eax, DWORD PTR [ecx]
  0004b	ff 50 18	 call	 DWORD PTR [eax+24]
  0004e	8b f0		 mov	 esi, eax

; 210  : 	if( !pIChartManager) return false;

  00050	85 f6		 test	 esi, esi
  00052	0f 84 7b 01 00
	00		 je	 $LN29@OnLButtonD

; 211  : 	CScaleBaseData::HORZSCALEDRAWERTYPE eBaseTimeDataType = pIChartManager->GetMasterValueType(blockIndex.GetRow(), blockIndex.GetColumn());

  00058	ff 75 d8	 push	 DWORD PTR _blockIndex$[ebp+4]
  0005b	8b 16		 mov	 edx, DWORD PTR [esi]
  0005d	8b ce		 mov	 ecx, esi
  0005f	ff 75 d4	 push	 DWORD PTR _blockIndex$[ebp]
  00062	ff 52 54	 call	 DWORD PTR [edx+84]
  00065	89 45 e8	 mov	 DWORD PTR _eBaseTimeDataType$[ebp], eax

; 212  : 	pIChartManager->Release();

  00068	8b 06		 mov	 eax, DWORD PTR [esi]
  0006a	56		 push	 esi
  0006b	ff 50 08	 call	 DWORD PTR [eax+8]

; 213  : 
; 214  : 	// 2011.02.08 by SYS >>  YYYY()  : / 14Byte  (YYYYMMDDhhmmss)
; 215  : // 	CCurrentElementSet elementSet(m_analysisData.GetUserPath(), 
; 216  : // 								  eBaseTimeDataType,
; 217  : // 								  m_analysisData.GetParent(), 
; 218  : // 								  m_pSelectedElement);
; 219  : 
; 220  : 	// 2011.02.08 by SYS >>  YYYY()  : / 14Byte  (YYYYMMDDhhmmss)
; 221  : 	IPacketManager * pPacketManager = m_pIChartOCX->GetIDefaultPacketManager();

  0006e	8b 4f 04	 mov	 ecx, DWORD PTR [edi+4]
  00071	8b 01		 mov	 eax, DWORD PTR [ecx]
  00073	ff 50 20	 call	 DWORD PTR [eax+32]
  00076	8b f0		 mov	 esi, eax
; File D:\git\src\IBK\IBK_DRFN\ProjSrc\SrcChartEx\ChartAddIn\ChartAnalysisToolAddIn\Include_AddIn_133101\I133101\_IString.h

; 39   : 		m_pIStrData = p_pIString;	// Do not AddRef(). Because It must be Return Value.

  00078	c7 45 e0 00 00
	00 00		 mov	 DWORD PTR _szHelpMsg$[ebp+4], 0

; 40   : 		if( m_pIStrData) m_szData = m_pIStrData->GetData();
; 41   : 		else m_szData = NULL;

  0007f	c7 45 dc 00 00
	00 00		 mov	 DWORD PTR _szHelpMsg$[ebp], 0
; File D:\git\src\IBK\IBK_DRFN\ProjSrc\SrcChartEx\ChartAddIn\ChartAnalysisToolAddIn\AnalysisTool\MainToolImplementation.cpp

; 223  : 	CString strFormatX;	

  00086	8d 4d ec	 lea	 ecx, DWORD PTR _strFormatX$[ebp]
  00089	c7 45 fc 00 00
	00 00		 mov	 DWORD PTR __$EHRec$[ebp+8], 0
  00090	ff 15 00 00 00
	00		 call	 DWORD PTR __imp_??0?$CStringT@DV?$StrTraitMFC_DLL@DV?$ChTraitsCRT@D@ATL@@@@@ATL@@QAE@XZ

; 224  : 	pPacketManager->GetHelpMessageItem("RDATET", szHelpMsg);	//  UD  .	

  00096	8b 16		 mov	 edx, DWORD PTR [esi]
  00098	8d 45 dc	 lea	 eax, DWORD PTR _szHelpMsg$[ebp]
  0009b	50		 push	 eax
  0009c	68 00 00 00 00	 push	 OFFSET ??_C@_06MLGKKOBC@RDATET@
  000a1	8b ce		 mov	 ecx, esi
  000a3	c6 45 fc 01	 mov	 BYTE PTR __$EHRec$[ebp+8], 1
  000a7	ff 52 18	 call	 DWORD PTR [edx+24]

; 225  : 	strFormatX = szHelpMsg;

  000aa	ff 75 dc	 push	 DWORD PTR _szHelpMsg$[ebp]
  000ad	8d 4d ec	 lea	 ecx, DWORD PTR _strFormatX$[ebp]
  000b0	ff 15 00 00 00
	00		 call	 DWORD PTR __imp_??4?$CStringT@DV?$StrTraitMFC_DLL@DV?$ChTraitsCRT@D@ATL@@@@@ATL@@QAEAAV01@PBD@Z

; 226  : 	// 2011.02.08 by SYS <<
; 227  : 
; 228  : 	//
; 229  : 	CCurrentElementSet elementSet(m_pIChartOCX,

  000b6	8d 45 e4	 lea	 eax, DWORD PTR $T2[ebp]
  000b9	50		 push	 eax
  000ba	8d 4f 1c	 lea	 ecx, DWORD PTR [edi+28]
  000bd	e8 00 00 00 00	 call	 ?GetUserPath@CAnalysisData@@QBE?AV?$CStringT@DV?$StrTraitMFC_DLL@DV?$ChTraitsCRT@D@ATL@@@@@ATL@@XZ ; CAnalysisData::GetUserPath
  000c2	8b f0		 mov	 esi, eax
  000c4	57		 push	 edi
  000c5	ff b7 94 00 00
	00		 push	 DWORD PTR [edi+148]
  000cb	8d 4f 1c	 lea	 ecx, DWORD PTR [edi+28]
  000ce	c6 45 fc 02	 mov	 BYTE PTR __$EHRec$[ebp+8], 2
  000d2	e8 00 00 00 00	 call	 ?GetParent@CAnalysisData@@QBEPAVCWnd@@XZ ; CAnalysisData::GetParent
  000d7	50		 push	 eax
  000d8	8d 45 e8	 lea	 eax, DWORD PTR _eBaseTimeDataType$[ebp]
  000db	50		 push	 eax
  000dc	56		 push	 esi
  000dd	8d 45 ec	 lea	 eax, DWORD PTR _strFormatX$[ebp]
  000e0	50		 push	 eax
  000e1	8d 45 d4	 lea	 eax, DWORD PTR _blockIndex$[ebp]
  000e4	50		 push	 eax
  000e5	ff 77 04	 push	 DWORD PTR [edi+4]
  000e8	8d 4d ac	 lea	 ecx, DWORD PTR _elementSet$[ebp]
  000eb	e8 00 00 00 00	 call	 ??0CCurrentElementSet@@QAE@PAUIChartOCX133101@@ABVCBlockIndex@@ABV?$CStringT@DV?$StrTraitMFC_DLL@DV?$ChTraitsCRT@D@ATL@@@@@ATL@@2ABW4HORZSCALEDRAWERTYPE@CScaleBaseData@@PAVCWnd@@PAVCElement@@J@Z ; CCurrentElementSet::CCurrentElementSet
  000f0	8d 4d e4	 lea	 ecx, DWORD PTR $T2[ebp]
  000f3	c6 45 fc 04	 mov	 BYTE PTR __$EHRec$[ebp+8], 4
  000f7	ff 15 00 00 00
	00		 call	 DWORD PTR __imp_??1?$CStringT@DV?$StrTraitMFC_DLL@DV?$ChTraitsCRT@D@ATL@@@@@ATL@@QAE@XZ

; 230  : 								  blockIndex,
; 231  : 								  strFormatX,
; 232  : 								  m_analysisData.GetUserPath(), 
; 233  : 								  eBaseTimeDataType,
; 234  : 								  m_analysisData.GetParent(), 
; 235  : 								  m_pSelectedElement,
; 236  : 								  (LONG)&m_xCanCallYou);
; 237  : 	// 2011.02.08 by SYS <<
; 238  : 
; 239  : 
; 240  : 	CString strElementData_Prev = m_pSelectedElement->GetSavedElementData(m_analysisData.GetElementTree().GetOrder());

  000fd	8d 4f 1c	 lea	 ecx, DWORD PTR [edi+28]
  00100	e8 00 00 00 00	 call	 ?GetElementTree@CAnalysisData@@QAEAAVCElementTree@@XZ ; CAnalysisData::GetElementTree
  00105	8b c8		 mov	 ecx, eax
  00107	e8 00 00 00 00	 call	 ?GetOrder@CElementTree@@QAEAAVCOrder@@XZ ; CElementTree::GetOrder
  0010c	8b 8f 94 00 00
	00		 mov	 ecx, DWORD PTR [edi+148]
  00112	50		 push	 eax
  00113	8d 45 f0	 lea	 eax, DWORD PTR _strElementData_Prev$[ebp]
  00116	50		 push	 eax
  00117	e8 00 00 00 00	 call	 ?GetSavedElementData@CElement@@QBE?AV?$CStringT@DV?$StrTraitMFC_DLL@DV?$ChTraitsCRT@D@ATL@@@@@ATL@@ABVCOrder@@@Z ; CElement::GetSavedElementData

; 241  : 	elementSet.OnMenu(CMenuType::MENU_SET, true);

  0011c	6a 01		 push	 1
  0011e	6a 01		 push	 1
  00120	8d 4d ac	 lea	 ecx, DWORD PTR _elementSet$[ebp]
  00123	c6 45 fc 05	 mov	 BYTE PTR __$EHRec$[ebp+8], 5
  00127	e8 00 00 00 00	 call	 ?OnMenu@CCurrentElementSet@@QAE_NW4ELEMENTMENU@CMenuType@@I@Z ; CCurrentElementSet::OnMenu

; 242  : 	CString strElementData_After = m_pSelectedElement->GetSavedElementData(m_analysisData.GetElementTree().GetOrder());

  0012c	8d 4f 1c	 lea	 ecx, DWORD PTR [edi+28]
  0012f	e8 00 00 00 00	 call	 ?GetElementTree@CAnalysisData@@QAEAAVCElementTree@@XZ ; CAnalysisData::GetElementTree
  00134	8b c8		 mov	 ecx, eax
  00136	e8 00 00 00 00	 call	 ?GetOrder@CElementTree@@QAEAAVCOrder@@XZ ; CElementTree::GetOrder
  0013b	8b 8f 94 00 00
	00		 mov	 ecx, DWORD PTR [edi+148]
  00141	50		 push	 eax
  00142	8d 45 0c	 lea	 eax, DWORD PTR _strElementData_After$[ebp]
  00145	50		 push	 eax
  00146	e8 00 00 00 00	 call	 ?GetSavedElementData@CElement@@QBE?AV?$CStringT@DV?$StrTraitMFC_DLL@DV?$ChTraitsCRT@D@ATL@@@@@ATL@@ABVCOrder@@@Z ; CElement::GetSavedElementData

; 243  : 
; 244  : 	if(strElementData_Prev.Compare(strElementData_After))

  0014b	ff 75 0c	 push	 DWORD PTR _strElementData_After$[ebp]
  0014e	8d 4d f0	 lea	 ecx, DWORD PTR _strElementData_Prev$[ebp]
  00151	c6 45 fc 06	 mov	 BYTE PTR __$EHRec$[ebp+8], 6
  00155	ff 15 00 00 00
	00		 call	 DWORD PTR __imp_?Compare@?$CStringT@DV?$StrTraitMFC_DLL@DV?$ChTraitsCRT@D@ATL@@@@@ATL@@QBEHPBD@Z
  0015b	85 c0		 test	 eax, eax
  0015d	74 1d		 je	 SHORT $LN4@OnLButtonD

; 245  : 		m_analysisData.GetUndoRedoManager().RegisterElementToUnRedoManager(URT_MODIFY_ENV, (long)m_pSelectedElement, strElementData_Prev, strElementData_After);

  0015f	ff 75 0c	 push	 DWORD PTR _strElementData_After$[ebp]
  00162	8d 4f 1c	 lea	 ecx, DWORD PTR [edi+28]
  00165	ff 75 f0	 push	 DWORD PTR _strElementData_Prev$[ebp]
  00168	ff b7 94 00 00
	00		 push	 DWORD PTR [edi+148]
  0016e	6a 03		 push	 3
  00170	e8 00 00 00 00	 call	 ?GetUndoRedoManager@CAnalysisData@@QAEAAVCUndoRedoManager@@XZ ; CAnalysisData::GetUndoRedoManager
  00175	8b c8		 mov	 ecx, eax
  00177	e8 00 00 00 00	 call	 ?RegisterElementToUnRedoManager@CUndoRedoManager@@QAEXHJPBD0@Z ; CUndoRedoManager::RegisterElementToUnRedoManager
$LN4@OnLButtonD:

; 247  : 	return true;

  0017c	8d 4d 0c	 lea	 ecx, DWORD PTR _strElementData_After$[ebp]
  0017f	ff 15 00 00 00
	00		 call	 DWORD PTR __imp_??1?$CStringT@DV?$StrTraitMFC_DLL@DV?$ChTraitsCRT@D@ATL@@@@@ATL@@QAE@XZ
  00185	8d 4d f0	 lea	 ecx, DWORD PTR _strElementData_Prev$[ebp]
  00188	ff 15 00 00 00
	00		 call	 DWORD PTR __imp_??1?$CStringT@DV?$StrTraitMFC_DLL@DV?$ChTraitsCRT@D@ATL@@@@@ATL@@QAE@XZ
  0018e	8d 4d bc	 lea	 ecx, DWORD PTR _elementSet$[ebp+16]
  00191	ff 15 00 00 00
	00		 call	 DWORD PTR __imp_??1?$CStringT@DV?$StrTraitMFC_DLL@DV?$ChTraitsCRT@D@ATL@@@@@ATL@@QAE@XZ
  00197	8d 4d b8	 lea	 ecx, DWORD PTR _elementSet$[ebp+12]
  0019a	ff 15 00 00 00
	00		 call	 DWORD PTR __imp_??1?$CStringT@DV?$StrTraitMFC_DLL@DV?$ChTraitsCRT@D@ATL@@@@@ATL@@QAE@XZ
  001a0	8d 4d ec	 lea	 ecx, DWORD PTR _strFormatX$[ebp]
  001a3	ff 15 00 00 00
	00		 call	 DWORD PTR __imp_??1?$CStringT@DV?$StrTraitMFC_DLL@DV?$ChTraitsCRT@D@ATL@@@@@ATL@@QAE@XZ
; File D:\git\src\IBK\IBK_DRFN\ProjSrc\SrcChartEx\ChartAddIn\ChartAnalysisToolAddIn\Include_AddIn_133101\I133101\_IString.h

; 45   : 		if( m_pIStrData)

  001a9	8b 4d e0	 mov	 ecx, DWORD PTR _szHelpMsg$[ebp+4]
  001ac	c7 45 fc 07 00
	00 00		 mov	 DWORD PTR __$EHRec$[ebp+8], 7
  001b3	85 c9		 test	 ecx, ecx
  001b5	74 06		 je	 SHORT $LN26@OnLButtonD

; 46   : 		{
; 47   : 			m_pIStrData->Release();

  001b7	8b 01		 mov	 eax, DWORD PTR [ecx]
  001b9	51		 push	 ecx
  001ba	ff 50 08	 call	 DWORD PTR [eax+8]
$LN26@OnLButtonD:
; File D:\git\src\IBK\IBK_DRFN\ProjSrc\SrcChartEx\ChartAddIn\ChartAnalysisToolAddIn\AnalysisTool\MainToolImplementation.cpp

; 247  : 	return true;

  001bd	b0 01		 mov	 al, 1

; 248  : }

  001bf	8b 4d f4	 mov	 ecx, DWORD PTR __$EHRec$[ebp]
  001c2	64 89 0d 00 00
	00 00		 mov	 DWORD PTR fs:0, ecx
  001c9	59		 pop	 ecx
  001ca	5f		 pop	 edi
  001cb	5e		 pop	 esi
  001cc	5b		 pop	 ebx
  001cd	8b e5		 mov	 esp, ebp
  001cf	5d		 pop	 ebp
  001d0	c2 08 00	 ret	 8
$LN29@OnLButtonD:

; 210  : 	if( !pIChartManager) return false;

  001d3	32 c0		 xor	 al, al

; 248  : }

  001d5	8b 4d f4	 mov	 ecx, DWORD PTR __$EHRec$[ebp]
  001d8	64 89 0d 00 00
	00 00		 mov	 DWORD PTR fs:0, ecx
  001df	59		 pop	 ecx
  001e0	5f		 pop	 edi
  001e1	5e		 pop	 esi
  001e2	5b		 pop	 ebx
  001e3	8b e5		 mov	 esp, ebp
  001e5	5d		 pop	 ebp
  001e6	c2 08 00	 ret	 8
_TEXT	ENDS
;	COMDAT text$x
text$x	SEGMENT
__unwindfunclet$?OnLButtonDbClk@CMainToolImplementation@@QAE_NPAVCDC@@ABVCPoint@@@Z$0:
  00000	8d 4d dc	 lea	 ecx, DWORD PTR _szHelpMsg$[ebp]
  00003	e9 00 00 00 00	 jmp	 ??1ILPCSTR133101@@QAE@XZ ; ILPCSTR133101::~ILPCSTR133101
__unwindfunclet$?OnLButtonDbClk@CMainToolImplementation@@QAE_NPAVCDC@@ABVCPoint@@@Z$1:
  00008	8d 4d ec	 lea	 ecx, DWORD PTR _strFormatX$[ebp]
  0000b	ff 25 00 00 00
	00		 jmp	 DWORD PTR __imp_??1?$CStringT@DV?$StrTraitMFC_DLL@DV?$ChTraitsCRT@D@ATL@@@@@ATL@@QAE@XZ
__unwindfunclet$?OnLButtonDbClk@CMainToolImplementation@@QAE_NPAVCDC@@ABVCPoint@@@Z$2:
  00011	8d 4d e4	 lea	 ecx, DWORD PTR $T2[ebp]
  00014	ff 25 00 00 00
	00		 jmp	 DWORD PTR __imp_??1?$CStringT@DV?$StrTraitMFC_DLL@DV?$ChTraitsCRT@D@ATL@@@@@ATL@@QAE@XZ
__unwindfunclet$?OnLButtonDbClk@CMainToolImplementation@@QAE_NPAVCDC@@ABVCPoint@@@Z$3:
  0001a	8d 4d ac	 lea	 ecx, DWORD PTR _elementSet$[ebp]
  0001d	e9 00 00 00 00	 jmp	 ??1CCurrentElementSet@@QAE@XZ
__unwindfunclet$?OnLButtonDbClk@CMainToolImplementation@@QAE_NPAVCDC@@ABVCPoint@@@Z$4:
  00022	8d 4d f0	 lea	 ecx, DWORD PTR _strElementData_Prev$[ebp]
  00025	ff 25 00 00 00
	00		 jmp	 DWORD PTR __imp_??1?$CStringT@DV?$StrTraitMFC_DLL@DV?$ChTraitsCRT@D@ATL@@@@@ATL@@QAE@XZ
__unwindfunclet$?OnLButtonDbClk@CMainToolImplementation@@QAE_NPAVCDC@@ABVCPoint@@@Z$5:
  0002b	8d 4d 0c	 lea	 ecx, DWORD PTR _strElementData_After$[ebp]
  0002e	ff 25 00 00 00
	00		 jmp	 DWORD PTR __imp_??1?$CStringT@DV?$StrTraitMFC_DLL@DV?$ChTraitsCRT@D@ATL@@@@@ATL@@QAE@XZ
  00034	cc		 int	 3
  00035	cc		 int	 3
  00036	cc		 int	 3
  00037	cc		 int	 3
  00038	cc		 int	 3
__ehhandler$?OnLButtonDbClk@CMainToolImplementation@@QAE_NPAVCDC@@ABVCPoint@@@Z:
  00039	90		 npad	 1
  0003a	90		 npad	 1
  0003b	8b 54 24 08	 mov	 edx, DWORD PTR [esp+8]
  0003f	8d 42 0c	 lea	 eax, DWORD PTR [edx+12]
  00042	8b 4a a8	 mov	 ecx, DWORD PTR [edx-88]
  00045	33 c8		 xor	 ecx, eax
  00047	e8 00 00 00 00	 call	 @__security_check_cookie@4
  0004c	b8 00 00 00 00	 mov	 eax, OFFSET __ehfuncinfo$?OnLButtonDbClk@CMainToolImplementation@@QAE_NPAVCDC@@ABVCPoint@@@Z
  00051	e9 00 00 00 00	 jmp	 ___CxxFrameHandler3
text$x	ENDS
?OnLButtonDbClk@CMainToolImplementation@@QAE_NPAVCDC@@ABVCPoint@@@Z ENDP ; CMainToolImplementation::OnLButtonDbClk
; Function compile flags: /Ogtp
; File D:\git\src\IBK\IBK_DRFN\ProjSrc\SrcChartEx\ChartAddIn\ChartAnalysisToolAddIn\AnalysisTool\MainToolImplementation.cpp
;	COMDAT ?OnLButtonDown@CMainToolImplementation@@QAE_NPAVCDC@@ABVCPoint@@@Z
_TEXT	SEGMENT
tv262 = -120						; size = 8
tv255 = -120						; size = 8
_calData$ = -112					; size = 96
__$ArrayPad$ = -16					; size = 4
__$EHRec$ = -12						; size = 12
_pDC$ = 8						; size = 4
_point$ = 12						; size = 4
?OnLButtonDown@CMainToolImplementation@@QAE_NPAVCDC@@ABVCPoint@@@Z PROC ; CMainToolImplementation::OnLButtonDown, COMDAT
; _this$ = ecx

; 176  : {

  00000	55		 push	 ebp
  00001	8b ec		 mov	 ebp, esp
  00003	6a ff		 push	 -1
  00005	68 00 00 00 00	 push	 __ehhandler$?OnLButtonDown@CMainToolImplementation@@QAE_NPAVCDC@@ABVCPoint@@@Z
  0000a	64 a1 00 00 00
	00		 mov	 eax, DWORD PTR fs:0
  00010	50		 push	 eax
  00011	83 ec 6c	 sub	 esp, 108		; 0000006cH
  00014	a1 00 00 00 00	 mov	 eax, DWORD PTR ___security_cookie
  00019	33 c5		 xor	 eax, ebp
  0001b	89 45 f0	 mov	 DWORD PTR __$ArrayPad$[ebp], eax
  0001e	53		 push	 ebx
  0001f	56		 push	 esi
  00020	57		 push	 edi
  00021	50		 push	 eax
  00022	8d 45 f4	 lea	 eax, DWORD PTR __$EHRec$[ebp]
  00025	64 a3 00 00 00
	00		 mov	 DWORD PTR fs:0, eax
  0002b	8b f1		 mov	 esi, ecx

; 177  : 	if(m_pTool == NULL)

  0002d	8b 4e 18	 mov	 ecx, DWORD PTR [esi+24]
  00030	8b 5d 08	 mov	 ebx, DWORD PTR _pDC$[ebp]
  00033	8b 7d 0c	 mov	 edi, DWORD PTR _point$[ebp]
  00036	85 c9		 test	 ecx, ecx
  00038	75 07		 jne	 SHORT $LN2@OnLButtonD

; 178  : 		return false;

  0003a	32 c0		 xor	 al, al
  0003c	e9 85 00 00 00	 jmp	 $LN1@OnLButtonD
$LN2@OnLButtonD:

; 179  : 
; 180  : 	// (2007/5/10 - Seung-Won, Bae) Check No Y Scale Min/Max.
; 181  : 	CCoordinateCalculatorData calData = m_pTool->GetCoordinateCalculatorData( point);

  00041	57		 push	 edi
  00042	8d 45 90	 lea	 eax, DWORD PTR _calData$[ebp]
  00045	50		 push	 eax
  00046	e8 00 00 00 00	 call	 ?GetCoordinateCalculatorData@CTool@@QBE?AVCCoordinateCalculatorData@@ABVCPoint@@@Z ; CTool::GetCoordinateCalculatorData

; 182  : 	if( -HUGE_VAL == calData.GetDisplayDataMax_ScaleType() || -HUGE_VAL == calData.GetDisplayDataMin_ScaleType()) return false;

  0004b	8d 4d 90	 lea	 ecx, DWORD PTR _calData$[ebp]
  0004e	c7 45 fc 00 00
	00 00		 mov	 DWORD PTR __$EHRec$[ebp+8], 0
  00055	e8 00 00 00 00	 call	 ?GetDisplayDataMax_ScaleType@CCoordinateCalculatorData@@QBENXZ ; CCoordinateCalculatorData::GetDisplayDataMax_ScaleType
  0005a	f2 0f 10 05 00
	00 00 00	 movsd	 xmm0, QWORD PTR __real@fff0000000000000
  00062	dd 5d 88	 fstp	 QWORD PTR tv262[ebp]
  00065	66 0f 2e 45 88	 ucomisd xmm0, QWORD PTR tv262[ebp]
  0006a	9f		 lahf
  0006b	f6 c4 44	 test	 ah, 68			; 00000044H
  0006e	7b 4a		 jnp	 SHORT $LN4@OnLButtonD
  00070	8d 4d 90	 lea	 ecx, DWORD PTR _calData$[ebp]
  00073	e8 00 00 00 00	 call	 ?GetDisplayDataMin_ScaleType@CCoordinateCalculatorData@@QBENXZ ; CCoordinateCalculatorData::GetDisplayDataMin_ScaleType
  00078	f2 0f 10 05 00
	00 00 00	 movsd	 xmm0, QWORD PTR __real@fff0000000000000
  00080	dd 5d 88	 fstp	 QWORD PTR tv255[ebp]
  00083	66 0f 2e 45 88	 ucomisd xmm0, QWORD PTR tv255[ebp]
  00088	9f		 lahf
  00089	f6 c4 44	 test	 ah, 68			; 00000044H
  0008c	7b 2c		 jnp	 SHORT $LN4@OnLButtonD

; 183  : 	
; 184  : 	m_pSelectedElement = m_pTool->OnLButtonDown(pDC, point);

  0008e	8b 4e 18	 mov	 ecx, DWORD PTR [esi+24]
  00091	57		 push	 edi
  00092	53		 push	 ebx
  00093	8b 01		 mov	 eax, DWORD PTR [ecx]
  00095	ff 50 04	 call	 DWORD PTR [eax+4]

; 648  : 	return (m_analysisData.GetCurrentToolType() == CAnalysis::EN_ANALYSIS_SELECTION);

  00098	8d 4e 1c	 lea	 ecx, DWORD PTR [esi+28]

; 183  : 	
; 184  : 	m_pSelectedElement = m_pTool->OnLButtonDown(pDC, point);

  0009b	89 86 94 00 00
	00		 mov	 DWORD PTR [esi+148], eax

; 648  : 	return (m_analysisData.GetCurrentToolType() == CAnalysis::EN_ANALYSIS_SELECTION);

  000a1	e8 00 00 00 00	 call	 ?GetCurrentToolType@CAnalysisData@@QBE?AW4TOOLTYPE@CAnalysis@@XZ ; CAnalysisData::GetCurrentToolType
  000a6	85 c0		 test	 eax, eax

; 185  : 	if(DoesCurrentSelectTool() && m_pSelectedElement == NULL)

  000a8	75 3a		 jne	 SHORT $LN14@OnLButtonD
  000aa	39 86 94 00 00
	00		 cmp	 DWORD PTR [esi+148], eax
  000b0	75 32		 jne	 SHORT $LN14@OnLButtonD

; 186  : 	{
; 187  : 		m_analysisData.Invalidate();

  000b2	8d 4e 1c	 lea	 ecx, DWORD PTR [esi+28]
  000b5	e8 00 00 00 00	 call	 ?Invalidate@CAnalysisData@@QAEXXZ ; CAnalysisData::Invalidate
$LN4@OnLButtonD:
  000ba	32 db		 xor	 bl, bl
$LN10@OnLButtonD:

; 198  : 	}
; 199  : 	return true;

  000bc	8d 4d 90	 lea	 ecx, DWORD PTR _calData$[ebp]
  000bf	e8 00 00 00 00	 call	 ??1CCoordinateCalculatorData@@QAE@XZ ; CCoordinateCalculatorData::~CCoordinateCalculatorData
  000c4	8a c3		 mov	 al, bl
$LN1@OnLButtonD:

; 200  : }

  000c6	8b 4d f4	 mov	 ecx, DWORD PTR __$EHRec$[ebp]
  000c9	64 89 0d 00 00
	00 00		 mov	 DWORD PTR fs:0, ecx
  000d0	59		 pop	 ecx
  000d1	5f		 pop	 edi
  000d2	5e		 pop	 esi
  000d3	5b		 pop	 ebx
  000d4	8b 4d f0	 mov	 ecx, DWORD PTR __$ArrayPad$[ebp]
  000d7	33 cd		 xor	 ecx, ebp
  000d9	e8 00 00 00 00	 call	 @__security_check_cookie@4
  000de	8b e5		 mov	 esp, ebp
  000e0	5d		 pop	 ebp
  000e1	c2 08 00	 ret	 8
$LN14@OnLButtonD:

; 188  : 		return false;
; 189  : 	}
; 190  : 
; 191  : 	//    
; 192  : 	//10000   -    
; 193  : 	// Check 10000 	
; 194  : 	if(m_pSelectedElement != NULL)

  000e4	8b 8e 94 00 00
	00		 mov	 ecx, DWORD PTR [esi+148]
  000ea	85 c9		 test	 ecx, ecx
  000ec	74 18		 je	 SHORT $LN6@OnLButtonD

; 195  : 	{
; 196  : 		int nElementType = m_pSelectedElement->GetElementType() + 10000;

  000ee	8b 01		 mov	 eax, DWORD PTR [ecx]
  000f0	ff 50 04	 call	 DWORD PTR [eax+4]

; 197  : 		m_pIChartOCX->RunToolCommand(CToolOptionInfo::T_TOOL_SELECTION,nElementType);

  000f3	8b 4e 04	 mov	 ecx, DWORD PTR [esi+4]
  000f6	05 10 27 00 00	 add	 eax, 10000		; 00002710H
  000fb	50		 push	 eax
  000fc	6a 20		 push	 32			; 00000020H
  000fe	8b 11		 mov	 edx, DWORD PTR [ecx]
  00100	ff 92 b0 01 00
	00		 call	 DWORD PTR [edx+432]
$LN6@OnLButtonD:

; 198  : 	}
; 199  : 	return true;

  00106	b3 01		 mov	 bl, 1
  00108	eb b2		 jmp	 SHORT $LN10@OnLButtonD
_TEXT	ENDS
;	COMDAT text$x
text$x	SEGMENT
__unwindfunclet$?OnLButtonDown@CMainToolImplementation@@QAE_NPAVCDC@@ABVCPoint@@@Z$0:
  00000	8d 4d 90	 lea	 ecx, DWORD PTR _calData$[ebp]
  00003	e9 00 00 00 00	 jmp	 ??1CCoordinateCalculatorData@@QAE@XZ ; CCoordinateCalculatorData::~CCoordinateCalculatorData
  00008	cc		 int	 3
  00009	cc		 int	 3
  0000a	cc		 int	 3
  0000b	cc		 int	 3
  0000c	cc		 int	 3
__ehhandler$?OnLButtonDown@CMainToolImplementation@@QAE_NPAVCDC@@ABVCPoint@@@Z:
  0000d	90		 npad	 1
  0000e	90		 npad	 1
  0000f	8b 54 24 08	 mov	 edx, DWORD PTR [esp+8]
  00013	8d 42 0c	 lea	 eax, DWORD PTR [edx+12]
  00016	8b 4a 84	 mov	 ecx, DWORD PTR [edx-124]
  00019	33 c8		 xor	 ecx, eax
  0001b	e8 00 00 00 00	 call	 @__security_check_cookie@4
  00020	8b 4a fc	 mov	 ecx, DWORD PTR [edx-4]
  00023	33 c8		 xor	 ecx, eax
  00025	e8 00 00 00 00	 call	 @__security_check_cookie@4
  0002a	b8 00 00 00 00	 mov	 eax, OFFSET __ehfuncinfo$?OnLButtonDown@CMainToolImplementation@@QAE_NPAVCDC@@ABVCPoint@@@Z
  0002f	e9 00 00 00 00	 jmp	 ___CxxFrameHandler3
text$x	ENDS
?OnLButtonDown@CMainToolImplementation@@QAE_NPAVCDC@@ABVCPoint@@@Z ENDP ; CMainToolImplementation::OnLButtonDown
; Function compile flags: /Ogtp
; File D:\git\src\IBK\IBK_DRFN\ProjSrc\SrcChartEx\ChartAddIn\ChartAnalysisToolAddIn\AnalysisTool\MainToolImplementation.cpp
;	COMDAT ?SetBalanceCoefficient@CMainToolImplementation@@QAEXW4TOOLTYPE@CAnalysis@@ABV?$CStringT@DV?$StrTraitMFC_DLL@DV?$ChTraitsCRT@D@ATL@@@@@ATL@@@Z
_TEXT	SEGMENT
_eToolType$ = 8						; size = 4
_strBalanceCoefficient$ = 12				; size = 4
?SetBalanceCoefficient@CMainToolImplementation@@QAEXW4TOOLTYPE@CAnalysis@@ABV?$CStringT@DV?$StrTraitMFC_DLL@DV?$ChTraitsCRT@D@ATL@@@@@ATL@@@Z PROC ; CMainToolImplementation::SetBalanceCoefficient, COMDAT
; _this$ = ecx

; 169  : {

  00000	55		 push	 ebp
  00001	8b ec		 mov	 ebp, esp

; 170  : 	m_toolSingleton.SetBalanceCoefficient(eToolType, strBalanceCoefficient);

  00003	81 c1 98 00 00
	00		 add	 ecx, 152		; 00000098H

; 171  : }

  00009	5d		 pop	 ebp

; 170  : 	m_toolSingleton.SetBalanceCoefficient(eToolType, strBalanceCoefficient);

  0000a	e9 00 00 00 00	 jmp	 ?SetBalanceCoefficient@CToolSingleton@@QAEXW4TOOLTYPE@CAnalysis@@ABV?$CStringT@DV?$StrTraitMFC_DLL@DV?$ChTraitsCRT@D@ATL@@@@@ATL@@@Z ; CToolSingleton::SetBalanceCoefficient
?SetBalanceCoefficient@CMainToolImplementation@@QAEXW4TOOLTYPE@CAnalysis@@ABV?$CStringT@DV?$StrTraitMFC_DLL@DV?$ChTraitsCRT@D@ATL@@@@@ATL@@@Z ENDP ; CMainToolImplementation::SetBalanceCoefficient
_TEXT	ENDS
; Function compile flags: /Ogtp
; File D:\git\src\IBK\IBK_DRFN\ProjSrc\SrcChartEx\ChartAddIn\ChartAnalysisToolAddIn\AnalysisTool\MainToolImplementation.cpp
;	COMDAT ?SetFiboCoefficient@CMainToolImplementation@@QAEXW4TOOLTYPE@CAnalysis@@ABV?$CStringT@DV?$StrTraitMFC_DLL@DV?$ChTraitsCRT@D@ATL@@@@@ATL@@@Z
_TEXT	SEGMENT
_eToolType$ = 8						; size = 4
_strFiboCoefficient$ = 12				; size = 4
?SetFiboCoefficient@CMainToolImplementation@@QAEXW4TOOLTYPE@CAnalysis@@ABV?$CStringT@DV?$StrTraitMFC_DLL@DV?$ChTraitsCRT@D@ATL@@@@@ATL@@@Z PROC ; CMainToolImplementation::SetFiboCoefficient, COMDAT
; _this$ = ecx

; 162  : {

  00000	55		 push	 ebp
  00001	8b ec		 mov	 ebp, esp

; 163  : 	m_toolSingleton.SetFiboCoefficient(eToolType, strFiboCoefficient);

  00003	81 c1 98 00 00
	00		 add	 ecx, 152		; 00000098H

; 164  : }

  00009	5d		 pop	 ebp

; 163  : 	m_toolSingleton.SetFiboCoefficient(eToolType, strFiboCoefficient);

  0000a	e9 00 00 00 00	 jmp	 ?SetFiboCoefficient@CToolSingleton@@QAEXW4TOOLTYPE@CAnalysis@@ABV?$CStringT@DV?$StrTraitMFC_DLL@DV?$ChTraitsCRT@D@ATL@@@@@ATL@@@Z ; CToolSingleton::SetFiboCoefficient
?SetFiboCoefficient@CMainToolImplementation@@QAEXW4TOOLTYPE@CAnalysis@@ABV?$CStringT@DV?$StrTraitMFC_DLL@DV?$ChTraitsCRT@D@ATL@@@@@ATL@@@Z ENDP ; CMainToolImplementation::SetFiboCoefficient
_TEXT	ENDS
; Function compile flags: /Ogtp
; File D:\git\src\IBK\IBK_DRFN\ProjSrc\SrcChartEx\ChartAddIn\ChartAnalysisToolAddIn\AnalysisTool\MainToolImplementation.cpp
;	COMDAT ?SetCurrentAnalysisTool@CMainToolImplementation@@QAEXW4TOOLTYPE@CAnalysis@@H@Z
_TEXT	SEGMENT
_eToolType$ = 8						; size = 4
_bRedraw$ = 12						; size = 4
?SetCurrentAnalysisTool@CMainToolImplementation@@QAEXW4TOOLTYPE@CAnalysis@@H@Z PROC ; CMainToolImplementation::SetCurrentAnalysisTool, COMDAT
; _this$ = ecx

; 151  : {

  00000	55		 push	 ebp
  00001	8b ec		 mov	 ebp, esp
  00003	53		 push	 ebx
  00004	56		 push	 esi
  00005	8b f1		 mov	 esi, ecx
  00007	57		 push	 edi

; 52   : 	return m_analysisData.GetCurrentToolType();

  00008	8d 4e 1c	 lea	 ecx, DWORD PTR [esi+28]
  0000b	e8 00 00 00 00	 call	 ?GetCurrentToolType@CAnalysisData@@QBE?AW4TOOLTYPE@CAnalysis@@XZ ; CAnalysisData::GetCurrentToolType

; 152  : 	if(eToolType != GetCurrentToolType())

  00010	8b 5d 08	 mov	 ebx, DWORD PTR _eToolType$[ebp]
  00013	3b d8		 cmp	 ebx, eax
  00015	74 26		 je	 SHORT $LN9@SetCurrent

; 638  : 	m_toolSingleton.InitializeAllTool();

  00017	8d 8e 98 00 00
	00		 lea	 ecx, DWORD PTR [esi+152]
  0001d	e8 00 00 00 00	 call	 ?InitializeAllTool@CToolSingleton@@QAEXXZ ; CToolSingleton::InitializeAllTool

; 639  : 	m_analysisData.SetCurrentToolType(CAnalysis::EN_ANALYSIS_NONE);

  00022	6a ff		 push	 -1
  00024	8d 4e 1c	 lea	 ecx, DWORD PTR [esi+28]
  00027	e8 00 00 00 00	 call	 ?SetCurrentToolType@CAnalysisData@@QAEXW4TOOLTYPE@CAnalysis@@@Z ; CAnalysisData::SetCurrentToolType

; 640  : 	m_pTool = NULL;

  0002c	c7 46 18 00 00
	00 00		 mov	 DWORD PTR [esi+24], 0

; 641  : 	m_pSelectedElement = NULL;

  00033	c7 86 94 00 00
	00 00 00 00 00	 mov	 DWORD PTR [esi+148], 0
$LN9@SetCurrent:

; 153  : 		Initialize();
; 154  : 
; 155  : 	if(bRedraw)	m_analysisData.Invalidate();

  0003d	83 7d 0c 00	 cmp	 DWORD PTR _bRedraw$[ebp], 0
  00041	74 08		 je	 SHORT $LN3@SetCurrent
  00043	8d 4e 1c	 lea	 ecx, DWORD PTR [esi+28]
  00046	e8 00 00 00 00	 call	 ?Invalidate@CAnalysisData@@QAEXXZ ; CAnalysisData::Invalidate
$LN3@SetCurrent:

; 156  : 	m_analysisData.SetCurrentToolType(eToolType);

  0004b	53		 push	 ebx
  0004c	8d 4e 1c	 lea	 ecx, DWORD PTR [esi+28]
  0004f	e8 00 00 00 00	 call	 ?SetCurrentToolType@CAnalysisData@@QAEXW4TOOLTYPE@CAnalysis@@@Z ; CAnalysisData::SetCurrentToolType

; 157  : 	m_pTool = m_toolSingleton.FindTool(eToolType);		

  00054	53		 push	 ebx
  00055	8d 8e 98 00 00
	00		 lea	 ecx, DWORD PTR [esi+152]
  0005b	e8 00 00 00 00	 call	 ?FindTool@CToolSingleton@@QAEPAVCTool@@W4TOOLTYPE@CAnalysis@@@Z ; CToolSingleton::FindTool
  00060	5f		 pop	 edi
  00061	89 46 18	 mov	 DWORD PTR [esi+24], eax
  00064	5e		 pop	 esi
  00065	5b		 pop	 ebx

; 158  : }

  00066	5d		 pop	 ebp
  00067	c2 08 00	 ret	 8
?SetCurrentAnalysisTool@CMainToolImplementation@@QAEXW4TOOLTYPE@CAnalysis@@H@Z ENDP ; CMainToolImplementation::SetCurrentAnalysisTool
_TEXT	ENDS
; Function compile flags: /Ogtp
; File D:\git\src\IBK\IBK_DRFN\ProjSrc\SrcChartEx\ChartAddIn\ChartAnalysisToolAddIn\AnalysisTool\MainToolImplementation.cpp
;	COMDAT ?SetPriceRangeDivEnvironment@CMainToolImplementation@@QAEXW4TOOLTYPE@CAnalysis@@ABH@Z
_TEXT	SEGMENT
_eToolType$ = 8						; size = 4
_nPriceRangeDiv$ = 12					; size = 4
?SetPriceRangeDivEnvironment@CMainToolImplementation@@QAEXW4TOOLTYPE@CAnalysis@@ABH@Z PROC ; CMainToolImplementation::SetPriceRangeDivEnvironment, COMDAT
; _this$ = ecx

; 141  : {

  00000	55		 push	 ebp
  00001	8b ec		 mov	 ebp, esp

; 142  : 	m_toolSingleton.SetPriceRangeDivEnvironment(eToolType,nPriceRangeDiv);

  00003	81 c1 98 00 00
	00		 add	 ecx, 152		; 00000098H

; 143  : }

  00009	5d		 pop	 ebp

; 142  : 	m_toolSingleton.SetPriceRangeDivEnvironment(eToolType,nPriceRangeDiv);

  0000a	e9 00 00 00 00	 jmp	 ?SetPriceRangeDivEnvironment@CToolSingleton@@QAEXW4TOOLTYPE@CAnalysis@@ABH@Z ; CToolSingleton::SetPriceRangeDivEnvironment
?SetPriceRangeDivEnvironment@CMainToolImplementation@@QAEXW4TOOLTYPE@CAnalysis@@ABH@Z ENDP ; CMainToolImplementation::SetPriceRangeDivEnvironment
_TEXT	ENDS
; Function compile flags: /Ogtp
; File D:\git\src\IBK\IBK_DRFN\ProjSrc\SrcChartEx\ChartAddIn\ChartAnalysisToolAddIn\AnalysisTool\MainToolImplementation.cpp
;	COMDAT ?SetEquiDivEnvironment@CMainToolImplementation@@QAEXW4TOOLTYPE@CAnalysis@@ABH@Z
_TEXT	SEGMENT
_eToolType$ = 8						; size = 4
_nEquiDiv$ = 12						; size = 4
?SetEquiDivEnvironment@CMainToolImplementation@@QAEXW4TOOLTYPE@CAnalysis@@ABH@Z PROC ; CMainToolImplementation::SetEquiDivEnvironment, COMDAT
; _this$ = ecx

; 135  : {

  00000	55		 push	 ebp
  00001	8b ec		 mov	 ebp, esp

; 136  : 	m_toolSingleton.SetEquiDivEnvironment(eToolType,nEquiDiv);

  00003	81 c1 98 00 00
	00		 add	 ecx, 152		; 00000098H

; 137  : }

  00009	5d		 pop	 ebp

; 136  : 	m_toolSingleton.SetEquiDivEnvironment(eToolType,nEquiDiv);

  0000a	e9 00 00 00 00	 jmp	 ?SetEquiDivEnvironment@CToolSingleton@@QAEXW4TOOLTYPE@CAnalysis@@ABH@Z ; CToolSingleton::SetEquiDivEnvironment
?SetEquiDivEnvironment@CMainToolImplementation@@QAEXW4TOOLTYPE@CAnalysis@@ABH@Z ENDP ; CMainToolImplementation::SetEquiDivEnvironment
_TEXT	ENDS
; Function compile flags: /Ogtp
; File D:\git\src\IBK\IBK_DRFN\ProjSrc\SrcChartEx\ChartAddIn\ChartAnalysisToolAddIn\AnalysisTool\MainToolImplementation.cpp
;	COMDAT ?SetTextPosition@CMainToolImplementation@@QAEXW4TOOLTYPE@CAnalysis@@_N1111@Z
_TEXT	SEGMENT
_eToolType$ = 8						; size = 4
_bLeft$ = 12						; size = 1
_bRight$ = 16						; size = 1
_bTop$ = 20						; size = 1
_bBottom$ = 24						; size = 1
_bRightRate$ = 28					; size = 1
?SetTextPosition@CMainToolImplementation@@QAEXW4TOOLTYPE@CAnalysis@@_N1111@Z PROC ; CMainToolImplementation::SetTextPosition, COMDAT
; _this$ = ecx

; 125  : {

  00000	55		 push	 ebp
  00001	8b ec		 mov	 ebp, esp

; 126  : 	m_toolSingleton.SetTextPosition(eToolType, bLeft, bRight, bTop, bBottom, bRightRate);	

  00003	81 c1 98 00 00
	00		 add	 ecx, 152		; 00000098H

; 127  : }

  00009	5d		 pop	 ebp

; 126  : 	m_toolSingleton.SetTextPosition(eToolType, bLeft, bRight, bTop, bBottom, bRightRate);	

  0000a	e9 00 00 00 00	 jmp	 ?SetTextPosition@CToolSingleton@@QAEXW4TOOLTYPE@CAnalysis@@_N1111@Z ; CToolSingleton::SetTextPosition
?SetTextPosition@CMainToolImplementation@@QAEXW4TOOLTYPE@CAnalysis@@_N1111@Z ENDP ; CMainToolImplementation::SetTextPosition
_TEXT	ENDS
; Function compile flags: /Ogtp
; File D:\git\src\IBK\IBK_DRFN\ProjSrc\SrcChartEx\ChartAddIn\ChartAnalysisToolAddIn\AnalysisTool\MainToolImplementation.cpp
;	COMDAT ?SetLineExtEnvironment@CMainToolImplementation@@QAEXW4TOOLTYPE@CAnalysis@@ABH1@Z
_TEXT	SEGMENT
_eToolType$ = 8						; size = 4
_nLeftExt$ = 12						; size = 4
_nRightExt$ = 16					; size = 4
?SetLineExtEnvironment@CMainToolImplementation@@QAEXW4TOOLTYPE@CAnalysis@@ABH1@Z PROC ; CMainToolImplementation::SetLineExtEnvironment, COMDAT
; _this$ = ecx

; 130  : {

  00000	55		 push	 ebp
  00001	8b ec		 mov	 ebp, esp

; 131  : 	m_toolSingleton.SetLineExtEnvironment(eToolType,nLeftExt,nRightExt);

  00003	81 c1 98 00 00
	00		 add	 ecx, 152		; 00000098H

; 132  : }

  00009	5d		 pop	 ebp

; 131  : 	m_toolSingleton.SetLineExtEnvironment(eToolType,nLeftExt,nRightExt);

  0000a	e9 00 00 00 00	 jmp	 ?SetLineExtEnvironment@CToolSingleton@@QAEXW4TOOLTYPE@CAnalysis@@ABH1@Z ; CToolSingleton::SetLineExtEnvironment
?SetLineExtEnvironment@CMainToolImplementation@@QAEXW4TOOLTYPE@CAnalysis@@ABH1@Z ENDP ; CMainToolImplementation::SetLineExtEnvironment
_TEXT	ENDS
; Function compile flags: /Ogtp
; File D:\git\src\IBK\IBK_DRFN\ProjSrc\SrcChartEx\ChartAddIn\ChartAnalysisToolAddIn\AnalysisTool\MainToolImplementation.cpp
;	COMDAT ?SetLineDrawingInfo@CMainToolImplementation@@QAEXW4TOOLTYPE@CAnalysis@@KHH@Z
_TEXT	SEGMENT
_eToolType$ = 8						; size = 4
_crLine$ = 12						; size = 4
_nStyle$ = 16						; size = 4
_nWeight$ = 20						; size = 4
?SetLineDrawingInfo@CMainToolImplementation@@QAEXW4TOOLTYPE@CAnalysis@@KHH@Z PROC ; CMainToolImplementation::SetLineDrawingInfo, COMDAT
; _this$ = ecx

; 120  : {

  00000	55		 push	 ebp
  00001	8b ec		 mov	 ebp, esp

; 121  : 	m_toolSingleton.SetLineDrawingInfo(eToolType, crLine, nStyle, nWeight);

  00003	81 c1 98 00 00
	00		 add	 ecx, 152		; 00000098H

; 122  : }

  00009	5d		 pop	 ebp

; 121  : 	m_toolSingleton.SetLineDrawingInfo(eToolType, crLine, nStyle, nWeight);

  0000a	e9 00 00 00 00	 jmp	 ?SetLineDrawingInfo@CToolSingleton@@QAEXW4TOOLTYPE@CAnalysis@@KHH@Z ; CToolSingleton::SetLineDrawingInfo
?SetLineDrawingInfo@CMainToolImplementation@@QAEXW4TOOLTYPE@CAnalysis@@KHH@Z ENDP ; CMainToolImplementation::SetLineDrawingInfo
_TEXT	ENDS
; Function compile flags: /Ogtp
; File D:\git\src\IBK\IBK_DRFN\ProjSrc\SrcChartEx\ChartAddIn\ChartAnalysisToolAddIn\AnalysisTool\MainToolImplementation.cpp
;	COMDAT ?SetBasePenThickness@CMainToolImplementation@@QAEXH@Z
_TEXT	SEGMENT
_nThickness$ = 8					; size = 4
?SetBasePenThickness@CMainToolImplementation@@QAEXH@Z PROC ; CMainToolImplementation::SetBasePenThickness, COMDAT
; _this$ = ecx

; 115  : {

  00000	55		 push	 ebp
  00001	8b ec		 mov	 ebp, esp

; 116  : 	m_toolSingleton.SetBasePenThickness(nThickness);

  00003	81 c1 98 00 00
	00		 add	 ecx, 152		; 00000098H

; 117  : }

  00009	5d		 pop	 ebp

; 116  : 	m_toolSingleton.SetBasePenThickness(nThickness);

  0000a	e9 00 00 00 00	 jmp	 ?SetBasePenThickness@CToolSingleton@@QAEXH@Z ; CToolSingleton::SetBasePenThickness
?SetBasePenThickness@CMainToolImplementation@@QAEXH@Z ENDP ; CMainToolImplementation::SetBasePenThickness
_TEXT	ENDS
; Function compile flags: /Ogtp
; File D:\git\src\IBK\IBK_DRFN\ProjSrc\SrcChartEx\ChartAddIn\ChartAnalysisToolAddIn\AnalysisTool\MainToolImplementation.cpp
;	COMDAT ?SetBasePenColor@CMainToolImplementation@@QAEXABK@Z
_TEXT	SEGMENT
_color$ = 8						; size = 4
?SetBasePenColor@CMainToolImplementation@@QAEXABK@Z PROC ; CMainToolImplementation::SetBasePenColor, COMDAT
; _this$ = ecx

; 108  : {

  00000	55		 push	 ebp
  00001	8b ec		 mov	 ebp, esp
  00003	56		 push	 esi

; 109  : 	m_toolSingleton.SetBasePenColor(color);

  00004	ff 75 08	 push	 DWORD PTR _color$[ebp]
  00007	8b f1		 mov	 esi, ecx
  00009	8d 8e 98 00 00
	00		 lea	 ecx, DWORD PTR [esi+152]
  0000f	e8 00 00 00 00	 call	 ?SetBasePenColor@CToolSingleton@@QAEXABK@Z ; CToolSingleton::SetBasePenColor

; 110  : 	if(m_pTool != NULL)

  00014	8b 4e 18	 mov	 ecx, DWORD PTR [esi+24]
  00017	5e		 pop	 esi
  00018	85 c9		 test	 ecx, ecx
  0001a	74 06		 je	 SHORT $LN2@SetBasePen

; 112  : }

  0001c	5d		 pop	 ebp

; 111  : 		m_pTool->SetPenColor(color);

  0001d	e9 00 00 00 00	 jmp	 ?SetPenColor@CTool@@QAEXABK@Z ; CTool::SetPenColor
$LN2@SetBasePen:

; 112  : }

  00022	5d		 pop	 ebp
  00023	c2 04 00	 ret	 4
?SetBasePenColor@CMainToolImplementation@@QAEXABK@Z ENDP ; CMainToolImplementation::SetBasePenColor
_TEXT	ENDS
; Function compile flags: /Ogtp
; File D:\git\src\IBK\IBK_DRFN\ProjSrc\SrcChartEx\ChartAddIn\ChartAnalysisToolAddIn\AnalysisTool\MainToolImplementation.cpp
;	COMDAT ?SetBaseColor@CMainToolImplementation@@QAEXABK0@Z
_TEXT	SEGMENT
_penColor$ = 8						; size = 4
_textColor$ = 12					; size = 4
?SetBaseColor@CMainToolImplementation@@QAEXABK0@Z PROC	; CMainToolImplementation::SetBaseColor, COMDAT
; _this$ = ecx

; 98   : {

  00000	55		 push	 ebp
  00001	8b ec		 mov	 ebp, esp
  00003	56		 push	 esi

; 99   : 	m_toolSingleton.SetBaseColor(penColor, textColor);

  00004	ff 75 0c	 push	 DWORD PTR _textColor$[ebp]
  00007	8b f1		 mov	 esi, ecx
  00009	ff 75 08	 push	 DWORD PTR _penColor$[ebp]
  0000c	8d 8e 98 00 00
	00		 lea	 ecx, DWORD PTR [esi+152]
  00012	e8 00 00 00 00	 call	 ?SetBaseColor@CToolSingleton@@QAEXABK0@Z ; CToolSingleton::SetBaseColor

; 100  : 	if(m_pTool != NULL)

  00017	8b 4e 18	 mov	 ecx, DWORD PTR [esi+24]
  0001a	85 c9		 test	 ecx, ecx
  0001c	74 13		 je	 SHORT $LN2@SetBaseCol

; 101  : 	{
; 102  :  		m_pTool->SetPenColor(penColor);

  0001e	ff 75 08	 push	 DWORD PTR _penColor$[ebp]
  00021	e8 00 00 00 00	 call	 ?SetPenColor@CTool@@QAEXABK@Z ; CTool::SetPenColor

; 103  : 		m_pTool->SetTextColor(textColor);

  00026	ff 75 0c	 push	 DWORD PTR _textColor$[ebp]
  00029	8b 4e 18	 mov	 ecx, DWORD PTR [esi+24]
  0002c	e8 00 00 00 00	 call	 ?SetTextColor@CTool@@QAEXABK@Z ; CTool::SetTextColor
$LN2@SetBaseCol:
  00031	5e		 pop	 esi

; 104  : 	}
; 105  : }

  00032	5d		 pop	 ebp
  00033	c2 08 00	 ret	 8
?SetBaseColor@CMainToolImplementation@@QAEXABK0@Z ENDP	; CMainToolImplementation::SetBaseColor
_TEXT	ENDS
; Function compile flags: /Ogtp
; File D:\git\src\IBK\IBK_DRFN\ProjSrc\SrcChartEx\ChartAddIn\ChartAnalysisToolAddIn\AnalysisTool\MainToolImplementation.cpp
;	COMDAT ?SetAutoPriceElement@CMainToolImplementation@@QAEX_N@Z
_TEXT	SEGMENT
_bIsAutoPrice$ = 8					; size = 1
?SetAutoPriceElement@CMainToolImplementation@@QAEX_N@Z PROC ; CMainToolImplementation::SetAutoPriceElement, COMDAT
; _this$ = ecx

; 93   : {

  00000	55		 push	 ebp
  00001	8b ec		 mov	 ebp, esp

; 94   : 	m_analysisData.GetElementTree().SetAutoPrice(bIsAutoPrice);

  00003	ff 75 08	 push	 DWORD PTR _bIsAutoPrice$[ebp]
  00006	83 c1 1c	 add	 ecx, 28			; 0000001cH
  00009	e8 00 00 00 00	 call	 ?GetElementTree@CAnalysisData@@QAEAAVCElementTree@@XZ ; CAnalysisData::GetElementTree
  0000e	8b c8		 mov	 ecx, eax
  00010	e8 00 00 00 00	 call	 ?SetAutoPrice@CElementTree@@QAEX_N@Z ; CElementTree::SetAutoPrice

; 95   : }

  00015	5d		 pop	 ebp
  00016	c2 04 00	 ret	 4
?SetAutoPriceElement@CMainToolImplementation@@QAEX_N@Z ENDP ; CMainToolImplementation::SetAutoPriceElement
_TEXT	ENDS
; Function compile flags: /Ogtp
; File D:\git\src\IBK\IBK_DRFN\ProjSrc\SrcChartEx\ChartAddIn\ChartAnalysisToolAddIn\AnalysisTool\MainToolImplementation.cpp
;	COMDAT ?SetAutoPriceTool@CMainToolImplementation@@QAEX_N@Z
_TEXT	SEGMENT
_bIsAutoPrice$ = 8					; size = 1
?SetAutoPriceTool@CMainToolImplementation@@QAEX_N@Z PROC ; CMainToolImplementation::SetAutoPriceTool, COMDAT
; _this$ = ecx

; 88   : {

  00000	55		 push	 ebp
  00001	8b ec		 mov	 ebp, esp

; 89   : 	m_toolSingleton.SetAutoPrice(bIsAutoPrice);

  00003	81 c1 98 00 00
	00		 add	 ecx, 152		; 00000098H

; 90   : }

  00009	5d		 pop	 ebp

; 89   : 	m_toolSingleton.SetAutoPrice(bIsAutoPrice);

  0000a	e9 00 00 00 00	 jmp	 ?SetAutoPrice@CToolSingleton@@QAEX_N@Z ; CToolSingleton::SetAutoPrice
?SetAutoPriceTool@CMainToolImplementation@@QAEX_N@Z ENDP ; CMainToolImplementation::SetAutoPriceTool
_TEXT	ENDS
; Function compile flags: /Ogtp
; File D:\git\src\IBK\IBK_DRFN\ProjSrc\SrcChartEx\ChartAddIn\ChartAnalysisToolAddIn\AnalysisTool\MainToolImplementation.cpp
;	COMDAT ?SetCoordinateType@CMainToolImplementation@@QAEXW4COORDINATETYPE@CAnalysis@@@Z
_TEXT	SEGMENT
_eCoordinateType$ = 8					; size = 4
?SetCoordinateType@CMainToolImplementation@@QAEXW4COORDINATETYPE@CAnalysis@@@Z PROC ; CMainToolImplementation::SetCoordinateType, COMDAT
; _this$ = ecx

; 146  : {

  00000	55		 push	 ebp
  00001	8b ec		 mov	 ebp, esp

; 147  : 	m_toolSingleton.SetCoordinateType(eCoordinateType);

  00003	81 c1 98 00 00
	00		 add	 ecx, 152		; 00000098H

; 148  : }

  00009	5d		 pop	 ebp

; 147  : 	m_toolSingleton.SetCoordinateType(eCoordinateType);

  0000a	e9 00 00 00 00	 jmp	 ?SetCoordinateType@CToolSingleton@@QAEXW4COORDINATETYPE@CAnalysis@@@Z ; CToolSingleton::SetCoordinateType
?SetCoordinateType@CMainToolImplementation@@QAEXW4COORDINATETYPE@CAnalysis@@@Z ENDP ; CMainToolImplementation::SetCoordinateType
_TEXT	ENDS
; Function compile flags: /Ogtp
; File D:\git\src\IBK\IBK_DRFN\ProjSrc\SrcChartEx\ChartAddIn\ChartAnalysisToolAddIn\AnalysisTool\MainToolImplementation.cpp
;	COMDAT ?SetMainBlock@CMainToolImplementation@@QAEXPAUIChartManager133101@@PAUIChartOCX133101@@@Z
_TEXT	SEGMENT
_pMainBlock$ = 8					; size = 4
_p_pIChartOCX$ = 12					; size = 4
?SetMainBlock@CMainToolImplementation@@QAEXPAUIChartManager133101@@PAUIChartOCX133101@@@Z PROC ; CMainToolImplementation::SetMainBlock, COMDAT
; _this$ = ecx

; 82   : {

  00000	55		 push	 ebp
  00001	8b ec		 mov	 ebp, esp

; 83   : 	m_pIChartOCX = p_pIChartOCX;

  00003	8b 45 0c	 mov	 eax, DWORD PTR _p_pIChartOCX$[ebp]
  00006	89 41 04	 mov	 DWORD PTR [ecx+4], eax

; 84   : 	m_analysisData.SetMainBlock(pMainBlock, p_pIChartOCX);

  00009	89 45 0c	 mov	 DWORD PTR _p_pIChartOCX$[ebp], eax
  0000c	83 c1 1c	 add	 ecx, 28			; 0000001cH

; 85   : }

  0000f	5d		 pop	 ebp

; 84   : 	m_analysisData.SetMainBlock(pMainBlock, p_pIChartOCX);

  00010	e9 00 00 00 00	 jmp	 ?SetMainBlock@CAnalysisData@@QAEXPAUIChartManager133101@@PAUIChartOCX133101@@@Z ; CAnalysisData::SetMainBlock
?SetMainBlock@CMainToolImplementation@@QAEXPAUIChartManager133101@@PAUIChartOCX133101@@@Z ENDP ; CMainToolImplementation::SetMainBlock
_TEXT	ENDS
; Function compile flags: /Ogtp
; File D:\git\src\IBK\IBK_DRFN\ProjSrc\SrcChartEx\ChartAddIn\ChartAnalysisToolAddIn\AnalysisTool\MainToolImplementation.cpp
;	COMDAT ?SetParent@CMainToolImplementation@@QAEXPAVCWnd@@@Z
_TEXT	SEGMENT
_pParent$ = 8						; size = 4
?SetParent@CMainToolImplementation@@QAEXPAVCWnd@@@Z PROC ; CMainToolImplementation::SetParent, COMDAT
; _this$ = ecx

; 77   : {

  00000	55		 push	 ebp
  00001	8b ec		 mov	 ebp, esp

; 78   : 	m_analysisData.SetParent(pParent);

  00003	83 c1 1c	 add	 ecx, 28			; 0000001cH

; 79   : }

  00006	5d		 pop	 ebp

; 78   : 	m_analysisData.SetParent(pParent);

  00007	e9 00 00 00 00	 jmp	 ?SetParent@CAnalysisData@@QAEXPAVCWnd@@@Z ; CAnalysisData::SetParent
?SetParent@CMainToolImplementation@@QAEXPAVCWnd@@@Z ENDP ; CMainToolImplementation::SetParent
_TEXT	ENDS
; Function compile flags: /Ogtp
; File D:\git\src\IBK\IBK_DRFN\ProjSrc\SrcChartEx\ChartAddIn\ChartAnalysisToolAddIn\AnalysisTool\MainToolImplementation.cpp
; File C:\Program Files (x86)\Microsoft Visual Studio\2019\Community\VC\Tools\MSVC\14.29.30133\atlmfc\include\atltypes.h
; File D:\git\src\IBK\IBK_DRFN\ProjSrc\SrcChartEx\ChartAddIn\ChartAnalysisToolAddIn\AnalysisTool\MainToolImplementation.cpp
; File D:\git\src\IBK\IBK_DRFN\ProjSrc\SrcChartEx\ChartAddIn\ChartAnalysisToolAddIn\AnalysisTool\Selecting.h
; File D:\git\src\IBK\IBK_DRFN\ProjSrc\SrcChartEx\ChartAddIn\ChartAnalysisToolAddIn\AnalysisTool\MainToolImplementation.cpp
; File D:\git\src\IBK\IBK_DRFN\ProjSrc\SrcChartEx\ChartAddIn\ChartAnalysisToolAddIn\AnalysisTool\Selecting.h
; File D:\git\src\IBK\IBK_DRFN\ProjSrc\SrcChartEx\ChartAddIn\ChartAnalysisToolAddIn\AnalysisTool\MainToolImplementation.cpp
; File D:\git\src\IBK\IBK_DRFN\ProjSrc\SrcChartEx\ChartAddIn\ChartAnalysisToolAddIn\AnalysisTool\Selecting.h
; File D:\git\src\IBK\IBK_DRFN\ProjSrc\SrcChartEx\ChartAddIn\ChartAnalysisToolAddIn\AnalysisTool\MainToolImplementation.cpp
; File C:\Program Files (x86)\Microsoft Visual Studio\2019\Community\VC\Tools\MSVC\14.29.30133\atlmfc\include\atltypes.h
; File D:\git\src\IBK\IBK_DRFN\ProjSrc\SrcChartEx\ChartAddIn\ChartAnalysisToolAddIn\AnalysisTool\MainToolImplementation.cpp
; File C:\Program Files (x86)\Microsoft Visual Studio\2019\Community\VC\Tools\MSVC\14.29.30133\atlmfc\include\atltypes.h
; File D:\git\src\IBK\IBK_DRFN\ProjSrc\SrcChartEx\ChartAddIn\ChartAnalysisToolAddIn\AnalysisTool\MainToolImplementation.cpp
; File C:\Program Files (x86)\Microsoft Visual Studio\2019\Community\VC\Tools\MSVC\14.29.30133\include\deque
; File C:\Program Files (x86)\Microsoft Visual Studio\2019\Community\VC\Tools\MSVC\14.29.30133\include\utility
; File C:\Program Files (x86)\Microsoft Visual Studio\2019\Community\VC\Tools\MSVC\14.29.30133\include\xmemory
; File C:\Program Files (x86)\Microsoft Visual Studio\2019\Community\VC\Tools\MSVC\14.29.30133\include\utility
; File C:\Program Files (x86)\Microsoft Visual Studio\2019\Community\VC\Tools\MSVC\14.29.30133\include\xmemory
; File D:\git\src\IBK\IBK_DRFN\ProjSrc\SrcChartEx\ChartAddIn\ChartAnalysisToolAddIn\AnalysisTool\MainToolImplementation.cpp
;	COMDAT ?OnToolCopy@CMainToolImplementation@@QAE_NXZ
_TEXT	SEGMENT
$T2 = -436						; size = 32
_orgData$ = -404					; size = 56
$T3 = -348						; size = 56
$T4 = -348						; size = 56
$T5 = -348						; size = 56
$T6 = -348						; size = 56
$T7 = -324						; size = 32
_modifyData$ = -292					; size = 56
_elementPointList$ = -236				; size = 32
tv786 = -204						; size = 8
tv790 = -196						; size = 8
$T8 = -196						; size = 8
$T9 = -196						; size = 8
$T10 = -196						; size = 8
$T11 = -196						; size = 8
$T12 = -188						; size = 8
_this$GSCopy$1$ = -184					; size = 4
_nIndx$1$ = -180					; size = 4
_orgPoint$ = -176					; size = 8
_modifyPoint$ = -168					; size = 8
_selectedDrawingData$13 = -160				; size = 144
_selectedDrawingData$14 = -160				; size = 144
__$ArrayPad$ = -16					; size = 4
__$EHRec$ = -12						; size = 12
?OnToolCopy@CMainToolImplementation@@QAE_NXZ PROC	; CMainToolImplementation::OnToolCopy, COMDAT
; _this$ = ecx

; 708  : {

  00000	55		 push	 ebp
  00001	8b ec		 mov	 ebp, esp
  00003	6a ff		 push	 -1
  00005	68 00 00 00 00	 push	 __ehhandler$?OnToolCopy@CMainToolImplementation@@QAE_NXZ
  0000a	64 a1 00 00 00
	00		 mov	 eax, DWORD PTR fs:0
  00010	50		 push	 eax
  00011	81 ec a8 01 00
	00		 sub	 esp, 424		; 000001a8H
  00017	a1 00 00 00 00	 mov	 eax, DWORD PTR ___security_cookie
  0001c	33 c5		 xor	 eax, ebp
  0001e	89 45 f0	 mov	 DWORD PTR __$ArrayPad$[ebp], eax
  00021	53		 push	 ebx
  00022	56		 push	 esi
  00023	57		 push	 edi
  00024	50		 push	 eax
  00025	8d 45 f4	 lea	 eax, DWORD PTR __$EHRec$[ebp]
  00028	64 a3 00 00 00
	00		 mov	 DWORD PTR fs:0, eax
  0002e	8b d9		 mov	 ebx, ecx
  00030	89 9d 48 ff ff
	ff		 mov	 DWORD PTR _this$GSCopy$1$[ebp], ebx

; 709  : 	if(m_pSelectedElement == NULL)

  00036	8b 83 94 00 00
	00		 mov	 eax, DWORD PTR [ebx+148]
  0003c	85 c0		 test	 eax, eax
  0003e	0f 84 b2 04 00
	00		 je	 $LN100@OnToolCopy

; 710  : 		return false;
; 711  : 	
; 712  : 	//>> (2008/12/16 - Seung-Lyong Park)  
; 713  : 	CElement* pSelectedElement = NULL;
; 714  : 	pSelectedElement = m_analysisData.CopyElement(m_pSelectedElement);

  00044	8d 73 1c	 lea	 esi, DWORD PTR [ebx+28]
  00047	50		 push	 eax
  00048	8b ce		 mov	 ecx, esi
  0004a	e8 00 00 00 00	 call	 ?CopyElement@CAnalysisData@@QAEPAVCElement@@PAV2@@Z ; CAnalysisData::CopyElement

; 715  : 	if(!pSelectedElement)

  0004f	85 c0		 test	 eax, eax
  00051	0f 84 9f 04 00
	00		 je	 $LN100@OnToolCopy

; 717  : 	
; 718  : 	// (2008/12/12 - Seung-Won, Bae) Move to shift.
; 719  : 	m_pSelectedElement = pSelectedElement;
; 720  : 	CElementPointList elementPointList;

  00057	8d 8d 14 ff ff
	ff		 lea	 ecx, DWORD PTR _elementPointList$[ebp]
  0005d	89 83 94 00 00
	00		 mov	 DWORD PTR [ebx+148], eax
  00063	e8 00 00 00 00	 call	 ??0CElementPointList@@QAE@XZ ; CElementPointList::CElementPointList

; 721  : 	m_pSelectedElement->GetPoints(elementPointList);

  00068	8b 8b 94 00 00
	00		 mov	 ecx, DWORD PTR [ebx+148]
  0006e	8d 95 14 ff ff
	ff		 lea	 edx, DWORD PTR _elementPointList$[ebp]
  00074	52		 push	 edx
  00075	c7 45 fc 00 00
	00 00		 mov	 DWORD PTR __$EHRec$[ebp+8], 0
  0007c	8b 01		 mov	 eax, DWORD PTR [ecx]
  0007e	ff 50 08	 call	 DWORD PTR [eax+8]

; 725  : 	CElementModifyData orgData;

  00081	8d 8d 6c fe ff
	ff		 lea	 ecx, DWORD PTR _orgData$[ebp]
; File C:\Program Files (x86)\Microsoft Visual Studio\2019\Community\VC\Tools\MSVC\14.29.30133\atlmfc\include\atltypes.h

; 400  : 	x = 0;

  00087	c7 85 50 ff ff
	ff 00 00 00 00	 mov	 DWORD PTR _orgPoint$[ebp], 0

; 401  : 	y = 0;

  00091	c7 85 54 ff ff
	ff 00 00 00 00	 mov	 DWORD PTR _orgPoint$[ebp+4], 0

; 400  : 	x = 0;

  0009b	c7 85 58 ff ff
	ff 00 00 00 00	 mov	 DWORD PTR _modifyPoint$[ebp], 0

; 401  : 	y = 0;

  000a5	c7 85 5c ff ff
	ff 00 00 00 00	 mov	 DWORD PTR _modifyPoint$[ebp+4], 0
; File D:\git\src\IBK\IBK_DRFN\ProjSrc\SrcChartEx\ChartAddIn\ChartAnalysisToolAddIn\AnalysisTool\MainToolImplementation.cpp

; 725  : 	CElementModifyData orgData;

  000af	e8 00 00 00 00	 call	 ??0CElementModifyData@@QAE@XZ ; CElementModifyData::CElementModifyData

; 726  : 	CElementModifyData modifyData;

  000b4	8d 8d dc fe ff
	ff		 lea	 ecx, DWORD PTR _modifyData$[ebp]
  000ba	c6 45 fc 01	 mov	 BYTE PTR __$EHRec$[ebp+8], 1
  000be	e8 00 00 00 00	 call	 ??0CElementModifyData@@QAE@XZ ; CElementModifyData::CElementModifyData

; 727  : 	if(m_pSelectedElement->GetElementType() == CToolEnumData::Vert_Line)

  000c3	8b 8b 94 00 00
	00		 mov	 ecx, DWORD PTR [ebx+148]
  000c9	c6 45 fc 02	 mov	 BYTE PTR __$EHRec$[ebp+8], 2
  000cd	8b 01		 mov	 eax, DWORD PTR [ecx]
  000cf	ff 50 04	 call	 DWORD PTR [eax+4]
  000d2	8b 8b 94 00 00
	00		 mov	 ecx, DWORD PTR [ebx+148]
  000d8	83 f8 03	 cmp	 eax, 3
  000db	0f 85 1f 02 00
	00		 jne	 $LN7@OnToolCopy

; 728  : 	{
; 729  : 		( ( CSelectingTool *)m_pTool)->SetSelectToModify( m_pSelectedElement, CToolEnumData::MODIFY_X);

  000e1	8b 43 18	 mov	 eax, DWORD PTR [ebx+24]
; File D:\git\src\IBK\IBK_DRFN\ProjSrc\SrcChartEx\ChartAddIn\ChartAnalysisToolAddIn\AnalysisTool\Selecting.h

; 40   : 			{	m_pSelectedElement = p_pSelectedElement;	m_TypeModify = p_TypeModify;	}

  000e4	89 48 7c	 mov	 DWORD PTR [eax+124], ecx
  000e7	c7 40 78 05 00
	00 00		 mov	 DWORD PTR [eax+120], 5
; File D:\git\src\IBK\IBK_DRFN\ProjSrc\SrcChartEx\ChartAddIn\ChartAnalysisToolAddIn\AnalysisTool\MainToolImplementation.cpp

; 730  : 		CSelectedElementDrawingData selectedDrawingData = ( ( CSelectingTool *)m_pTool)->GetSelectedElementDrawData();

  000ee	8d 85 60 ff ff
	ff		 lea	 eax, DWORD PTR _selectedDrawingData$14[ebp]
  000f4	8b 4b 18	 mov	 ecx, DWORD PTR [ebx+24]
  000f7	50		 push	 eax
  000f8	e8 00 00 00 00	 call	 ?GetSelectedElementDrawData@CSelectingTool@@QAE?AVCSelectedElementDrawingData@@XZ ; CSelectingTool::GetSelectedElementDrawData

; 731  : 		orgPoint = m_pSelectedElement->GetSelectedDrawPoint(selectedDrawingData, *elementPointList.GetAt(0));

  000fd	6a 00		 push	 0
  000ff	8d 8d 14 ff ff
	ff		 lea	 ecx, DWORD PTR _elementPointList$[ebp]
  00105	c6 45 fc 03	 mov	 BYTE PTR __$EHRec$[ebp+8], 3
  00109	e8 00 00 00 00	 call	 ?GetAt@CElementPointList@@QAEPAVCCoordinate@@H@Z ; CElementPointList::GetAt
  0010e	8b 8b 94 00 00
	00		 mov	 ecx, DWORD PTR [ebx+148]
  00114	50		 push	 eax
  00115	8d 85 60 ff ff
	ff		 lea	 eax, DWORD PTR _selectedDrawingData$14[ebp]
  0011b	50		 push	 eax
  0011c	8d 85 3c ff ff
	ff		 lea	 eax, DWORD PTR $T11[ebp]
  00122	50		 push	 eax
  00123	e8 00 00 00 00	 call	 ?GetSelectedDrawPoint@CElement@@QBE?AVCPoint@@ABVCSelectedElementDrawingData@@ABVCCoordinate@@@Z ; CElement::GetSelectedDrawPoint
  00128	8b 08		 mov	 ecx, DWORD PTR [eax]
  0012a	8b 40 04	 mov	 eax, DWORD PTR [eax+4]
  0012d	89 85 54 ff ff
	ff		 mov	 DWORD PTR _orgPoint$[ebp+4], eax

; 732  : 		modifyPoint = orgPoint;

  00133	89 85 5c ff ff
	ff		 mov	 DWORD PTR _modifyPoint$[ebp+4], eax
  00139	8d 41 0a	 lea	 eax, DWORD PTR [ecx+10]
  0013c	89 8d 50 ff ff
	ff		 mov	 DWORD PTR _orgPoint$[ebp], ecx

; 733  : 		modifyPoint.x += 10;
; 734  : 
; 735  : 		orgData = ( ( CSelectingTool *)m_pTool)->GetElementModifyData( orgPoint);

  00142	8b 4b 18	 mov	 ecx, DWORD PTR [ebx+24]
  00145	89 85 58 ff ff
	ff		 mov	 DWORD PTR _modifyPoint$[ebp], eax
  0014b	8d 85 50 ff ff
	ff		 lea	 eax, DWORD PTR _orgPoint$[ebp]
  00151	50		 push	 eax
  00152	8d 85 a4 fe ff
	ff		 lea	 eax, DWORD PTR $T6[ebp]
  00158	50		 push	 eax
  00159	e8 00 00 00 00	 call	 ?GetElementModifyData@CSelectingTool@@QBE?AVCElementModifyData@@ABVCPoint@@@Z ; CSelectingTool::GetElementModifyData
  0015e	50		 push	 eax
  0015f	8d 8d 6c fe ff
	ff		 lea	 ecx, DWORD PTR _orgData$[ebp]
  00165	c6 45 fc 04	 mov	 BYTE PTR __$EHRec$[ebp+8], 4
  00169	e8 00 00 00 00	 call	 ??4CElementModifyData@@QAEAAV0@ABV0@@Z ; CElementModifyData::operator=
  0016e	8d 8d a4 fe ff
	ff		 lea	 ecx, DWORD PTR $T6[ebp]
  00174	c6 45 fc 03	 mov	 BYTE PTR __$EHRec$[ebp+8], 3
  00178	e8 00 00 00 00	 call	 ??1CElementModifyData@@QAE@XZ ; CElementModifyData::~CElementModifyData

; 736  : 		for(int nIndx = 0; nIndx < 10; ++nIndx)

  0017d	c7 85 4c ff ff
	ff 00 00 00 00	 mov	 DWORD PTR _nIndx$1$[ebp], 0
  00187	66 0f 1f 84 00
	00 00 00 00	 npad	 9
$LL4@OnToolCopy:

; 737  : 		{
; 738  : 			modifyData = ( ( CSelectingTool *)m_pTool)->GetElementModifyData( modifyPoint);

  00190	8b 4b 18	 mov	 ecx, DWORD PTR [ebx+24]
  00193	8d 85 58 ff ff
	ff		 lea	 eax, DWORD PTR _modifyPoint$[ebp]
  00199	50		 push	 eax
  0019a	8d 85 a4 fe ff
	ff		 lea	 eax, DWORD PTR $T5[ebp]
  001a0	50		 push	 eax
  001a1	e8 00 00 00 00	 call	 ?GetElementModifyData@CSelectingTool@@QBE?AVCElementModifyData@@ABVCPoint@@@Z ; CSelectingTool::GetElementModifyData
  001a6	50		 push	 eax
  001a7	8d 8d dc fe ff
	ff		 lea	 ecx, DWORD PTR _modifyData$[ebp]
  001ad	c6 45 fc 05	 mov	 BYTE PTR __$EHRec$[ebp+8], 5
  001b1	e8 00 00 00 00	 call	 ??4CElementModifyData@@QAEAAV0@ABV0@@Z ; CElementModifyData::operator=
  001b6	8d 8d a4 fe ff
	ff		 lea	 ecx, DWORD PTR $T5[ebp]
  001bc	c6 45 fc 03	 mov	 BYTE PTR __$EHRec$[ebp+8], 3
  001c0	e8 00 00 00 00	 call	 ??1CElementModifyData@@QAE@XZ ; CElementModifyData::~CElementModifyData

; 739  : 			if(orgData.GetPoint().GetX() < modifyData.GetPoint().GetX())

  001c5	8d 85 bc fe ff
	ff		 lea	 eax, DWORD PTR $T7[ebp]
  001cb	50		 push	 eax
  001cc	8d 8d 6c fe ff
	ff		 lea	 ecx, DWORD PTR _orgData$[ebp]
  001d2	e8 00 00 00 00	 call	 ?GetPoint@CElementModifyData@@QBE?AVCCoordinate@@XZ ; CElementModifyData::GetPoint
  001d7	8b f8		 mov	 edi, eax
  001d9	8d 85 4c fe ff
	ff		 lea	 eax, DWORD PTR $T2[ebp]
  001df	c6 45 fc 06	 mov	 BYTE PTR __$EHRec$[ebp+8], 6
  001e3	50		 push	 eax
  001e4	8d 8d dc fe ff
	ff		 lea	 ecx, DWORD PTR _modifyData$[ebp]
  001ea	e8 00 00 00 00	 call	 ?GetPoint@CElementModifyData@@QBE?AVCCoordinate@@XZ ; CElementModifyData::GetPoint
  001ef	8b f0		 mov	 esi, eax
  001f1	8b cf		 mov	 ecx, edi
  001f3	c6 45 fc 07	 mov	 BYTE PTR __$EHRec$[ebp+8], 7
  001f7	e8 00 00 00 00	 call	 ?GetX@CCoordinate@@QBENXZ ; CCoordinate::GetX
  001fc	dd 9d 3c ff ff
	ff		 fstp	 QWORD PTR tv790[ebp]
  00202	8b ce		 mov	 ecx, esi
  00204	e8 00 00 00 00	 call	 ?GetX@CCoordinate@@QBENXZ ; CCoordinate::GetX
  00209	dd 9d 34 ff ff
	ff		 fstp	 QWORD PTR tv786[ebp]
  0020f	f2 0f 10 85 34
	ff ff ff	 movsd	 xmm0, QWORD PTR tv786[ebp]
  00217	8d 8d 60 fe ff
	ff		 lea	 ecx, DWORD PTR $T2[ebp+20]
  0021d	66 0f 2f 85 3c
	ff ff ff	 comisd	 xmm0, QWORD PTR tv790[ebp]
  00225	0f 97 c3	 seta	 bl
  00228	ff 15 00 00 00
	00		 call	 DWORD PTR __imp_??1?$CStringT@DV?$StrTraitMFC_DLL@DV?$ChTraitsCRT@D@ATL@@@@@ATL@@QAE@XZ
  0022e	8d 8d d0 fe ff
	ff		 lea	 ecx, DWORD PTR $T7[ebp+20]
  00234	c6 45 fc 03	 mov	 BYTE PTR __$EHRec$[ebp+8], 3
  00238	ff 15 00 00 00
	00		 call	 DWORD PTR __imp_??1?$CStringT@DV?$StrTraitMFC_DLL@DV?$ChTraitsCRT@D@ATL@@@@@ATL@@QAE@XZ
  0023e	84 db		 test	 bl, bl
  00240	75 23		 jne	 SHORT $LN96@OnToolCopy

; 740  : 				break;
; 741  : 
; 742  : 			modifyPoint.x += 10;

  00242	8b 85 4c ff ff
	ff		 mov	 eax, DWORD PTR _nIndx$1$[ebp]
  00248	83 85 58 ff ff
	ff 0a		 add	 DWORD PTR _modifyPoint$[ebp], 10 ; 0000000aH
  0024f	40		 inc	 eax
  00250	8b 9d 48 ff ff
	ff		 mov	 ebx, DWORD PTR _this$GSCopy$1$[ebp]
  00256	89 85 4c ff ff
	ff		 mov	 DWORD PTR _nIndx$1$[ebp], eax
  0025c	83 f8 0a	 cmp	 eax, 10			; 0000000aH
  0025f	0f 8c 2b ff ff
	ff		 jl	 $LL4@OnToolCopy
$LN96@OnToolCopy:

; 743  : 		}
; 744  : 
; 745  : 		if(modifyData.GetBlockIndex().GetRow() < 0 || modifyData.GetBlockIndex().GetColumn() < 0)

  00265	8d 8d dc fe ff
	ff		 lea	 ecx, DWORD PTR _modifyData$[ebp]
  0026b	e8 00 00 00 00	 call	 ?GetBlockIndex@CElementModifyData@@QAEAAVCBlockIndex@@XZ ; CElementModifyData::GetBlockIndex
  00270	83 38 00	 cmp	 DWORD PTR [eax], 0
  00273	7c 11		 jl	 SHORT $LN11@OnToolCopy
  00275	8d 8d dc fe ff
	ff		 lea	 ecx, DWORD PTR _modifyData$[ebp]
  0027b	e8 00 00 00 00	 call	 ?GetBlockIndex@CElementModifyData@@QAEAAVCBlockIndex@@XZ ; CElementModifyData::GetBlockIndex
  00280	83 78 04 00	 cmp	 DWORD PTR [eax+4], 0
  00284	7d 23		 jge	 SHORT $LN10@OnToolCopy
$LN11@OnToolCopy:

; 746  : 		{
; 747  : 			modifyData.GetBlockIndex().SetRow(0);

  00286	8d 8d dc fe ff
	ff		 lea	 ecx, DWORD PTR _modifyData$[ebp]
  0028c	e8 00 00 00 00	 call	 ?GetBlockIndex@CElementModifyData@@QAEAAVCBlockIndex@@XZ ; CElementModifyData::GetBlockIndex

; 748  : 			modifyData.GetBlockIndex().SetColumn(0);

  00291	8d 8d dc fe ff
	ff		 lea	 ecx, DWORD PTR _modifyData$[ebp]
  00297	c7 00 00 00 00
	00		 mov	 DWORD PTR [eax], 0
  0029d	e8 00 00 00 00	 call	 ?GetBlockIndex@CElementModifyData@@QAEAAVCBlockIndex@@XZ ; CElementModifyData::GetBlockIndex
  002a2	c7 40 04 00 00
	00 00		 mov	 DWORD PTR [eax+4], 0
$LN10@OnToolCopy:

; 749  : 		}
; 750  : 
; 751  : 		( ( CSelectingTool *)m_pTool)->SetBtDownPoint(( ( CSelectingTool *)m_pTool)->GetDrawingPoint(modifyPoint));

  002a9	8b 9d 48 ff ff
	ff		 mov	 ebx, DWORD PTR _this$GSCopy$1$[ebp]
  002af	8d 85 58 ff ff
	ff		 lea	 eax, DWORD PTR _modifyPoint$[ebp]
  002b5	50		 push	 eax
  002b6	8d 85 3c ff ff
	ff		 lea	 eax, DWORD PTR $T10[ebp]
  002bc	50		 push	 eax
  002bd	8b 4b 18	 mov	 ecx, DWORD PTR [ebx+24]
  002c0	e8 00 00 00 00	 call	 ?GetDrawingPoint@CSelectingTool@@QBE?AVCPoint@@ABV2@@Z ; CSelectingTool::GetDrawingPoint
  002c5	8b 4b 18	 mov	 ecx, DWORD PTR [ebx+24]
  002c8	50		 push	 eax
  002c9	e8 00 00 00 00	 call	 ?SetBtDownPoint@CSelectingTool@@QAEXABVCPoint@@@Z ; CSelectingTool::SetBtDownPoint

; 752  : 		m_pSelectedElement->ElementModify( modifyData);

  002ce	8b 8b 94 00 00
	00		 mov	 ecx, DWORD PTR [ebx+148]
  002d4	8d 95 dc fe ff
	ff		 lea	 edx, DWORD PTR _modifyData$[ebp]
  002da	52		 push	 edx
  002db	8b 01		 mov	 eax, DWORD PTR [ecx]
  002dd	ff 50 1c	 call	 DWORD PTR [eax+28]
  002e0	8d 4d e4	 lea	 ecx, DWORD PTR _selectedDrawingData$14[ebp+132]

; 753  : 	}

  002e3	c6 45 fc 02	 mov	 BYTE PTR __$EHRec$[ebp+8], 2
  002e7	ff 15 00 00 00
	00		 call	 DWORD PTR __imp_??1?$CStringT@DV?$StrTraitMFC_DLL@DV?$ChTraitsCRT@D@ATL@@@@@ATL@@QAE@XZ
  002ed	8d 8d 68 ff ff
	ff		 lea	 ecx, DWORD PTR _selectedDrawingData$14[ebp+8]
  002f3	e8 00 00 00 00	 call	 ??1CCoordinateCalculatorData@@QAE@XZ ; CCoordinateCalculatorData::~CCoordinateCalculatorData
  002f8	8d 73 1c	 lea	 esi, DWORD PTR [ebx+28]
  002fb	e9 5d 01 00 00	 jmp	 $LN13@OnToolCopy
$LN7@OnToolCopy:

; 754  : 	else if(m_pSelectedElement->GetElementType() == CToolEnumData::Horz_Line)

  00300	8b 01		 mov	 eax, DWORD PTR [ecx]
  00302	ff 50 04	 call	 DWORD PTR [eax+4]
  00305	8b 4b 18	 mov	 ecx, DWORD PTR [ebx+24]
  00308	8b 93 94 00 00
	00		 mov	 edx, DWORD PTR [ebx+148]
  0030e	89 51 7c	 mov	 DWORD PTR [ecx+124], edx
  00311	83 f8 04	 cmp	 eax, 4
  00314	0f 85 e1 00 00
	00		 jne	 $LN12@OnToolCopy

; 757  : 		CSelectedElementDrawingData selectedDrawingData = ( ( CSelectingTool *)m_pTool)->GetSelectedElementDrawData();

  0031a	8d 85 60 ff ff
	ff		 lea	 eax, DWORD PTR _selectedDrawingData$13[ebp]
; File D:\git\src\IBK\IBK_DRFN\ProjSrc\SrcChartEx\ChartAddIn\ChartAnalysisToolAddIn\AnalysisTool\Selecting.h

; 40   : 			{	m_pSelectedElement = p_pSelectedElement;	m_TypeModify = p_TypeModify;	}

  00320	c7 41 78 06 00
	00 00		 mov	 DWORD PTR [ecx+120], 6
; File D:\git\src\IBK\IBK_DRFN\ProjSrc\SrcChartEx\ChartAddIn\ChartAnalysisToolAddIn\AnalysisTool\MainToolImplementation.cpp

; 757  : 		CSelectedElementDrawingData selectedDrawingData = ( ( CSelectingTool *)m_pTool)->GetSelectedElementDrawData();

  00327	8b 4b 18	 mov	 ecx, DWORD PTR [ebx+24]
  0032a	50		 push	 eax
  0032b	e8 00 00 00 00	 call	 ?GetSelectedElementDrawData@CSelectingTool@@QAE?AVCSelectedElementDrawingData@@XZ ; CSelectingTool::GetSelectedElementDrawData

; 758  : 		orgPoint = m_pSelectedElement->GetSelectedDrawPoint(selectedDrawingData, *elementPointList.GetAt(0));

  00330	6a 00		 push	 0
  00332	8d 8d 14 ff ff
	ff		 lea	 ecx, DWORD PTR _elementPointList$[ebp]
  00338	c6 45 fc 08	 mov	 BYTE PTR __$EHRec$[ebp+8], 8
  0033c	e8 00 00 00 00	 call	 ?GetAt@CElementPointList@@QAEPAVCCoordinate@@H@Z ; CElementPointList::GetAt
  00341	8b 8b 94 00 00
	00		 mov	 ecx, DWORD PTR [ebx+148]
  00347	50		 push	 eax
  00348	8d 85 60 ff ff
	ff		 lea	 eax, DWORD PTR _selectedDrawingData$13[ebp]
  0034e	50		 push	 eax
  0034f	8d 85 3c ff ff
	ff		 lea	 eax, DWORD PTR $T9[ebp]
  00355	50		 push	 eax
  00356	e8 00 00 00 00	 call	 ?GetSelectedDrawPoint@CElement@@QBE?AVCPoint@@ABVCSelectedElementDrawingData@@ABVCCoordinate@@@Z ; CElement::GetSelectedDrawPoint
  0035b	8b 08		 mov	 ecx, DWORD PTR [eax]
  0035d	8b 40 04	 mov	 eax, DWORD PTR [eax+4]
  00360	89 85 54 ff ff
	ff		 mov	 DWORD PTR _orgPoint$[ebp+4], eax

; 759  : 		modifyPoint = orgPoint;

  00366	83 c0 0a	 add	 eax, 10			; 0000000aH

; 760  : 		modifyPoint.y += 10;

  00369	89 85 5c ff ff
	ff		 mov	 DWORD PTR _modifyPoint$[ebp+4], eax

; 761  : 		modifyData = ( ( CSelectingTool *)m_pTool)->GetElementModifyData( modifyPoint);

  0036f	8d 85 58 ff ff
	ff		 lea	 eax, DWORD PTR _modifyPoint$[ebp]
  00375	50		 push	 eax
  00376	8d 85 a4 fe ff
	ff		 lea	 eax, DWORD PTR $T4[ebp]
  0037c	89 8d 50 ff ff
	ff		 mov	 DWORD PTR _orgPoint$[ebp], ecx
  00382	89 8d 58 ff ff
	ff		 mov	 DWORD PTR _modifyPoint$[ebp], ecx
  00388	8b 4b 18	 mov	 ecx, DWORD PTR [ebx+24]
  0038b	50		 push	 eax
  0038c	e8 00 00 00 00	 call	 ?GetElementModifyData@CSelectingTool@@QBE?AVCElementModifyData@@ABVCPoint@@@Z ; CSelectingTool::GetElementModifyData
  00391	50		 push	 eax
  00392	8d 8d dc fe ff
	ff		 lea	 ecx, DWORD PTR _modifyData$[ebp]
  00398	c6 45 fc 09	 mov	 BYTE PTR __$EHRec$[ebp+8], 9
  0039c	e8 00 00 00 00	 call	 ??4CElementModifyData@@QAEAAV0@ABV0@@Z ; CElementModifyData::operator=
  003a1	8d 8d a4 fe ff
	ff		 lea	 ecx, DWORD PTR $T4[ebp]
  003a7	c6 45 fc 08	 mov	 BYTE PTR __$EHRec$[ebp+8], 8
  003ab	e8 00 00 00 00	 call	 ??1CElementModifyData@@QAE@XZ ; CElementModifyData::~CElementModifyData

; 762  : 
; 763  : 		( ( CSelectingTool *)m_pTool)->SetBtDownPoint(( ( CSelectingTool *)m_pTool)->GetDrawingPoint(modifyPoint));

  003b0	8b 4b 18	 mov	 ecx, DWORD PTR [ebx+24]
  003b3	8d 85 58 ff ff
	ff		 lea	 eax, DWORD PTR _modifyPoint$[ebp]
  003b9	50		 push	 eax
  003ba	8d 85 3c ff ff
	ff		 lea	 eax, DWORD PTR $T8[ebp]
  003c0	50		 push	 eax
  003c1	e8 00 00 00 00	 call	 ?GetDrawingPoint@CSelectingTool@@QBE?AVCPoint@@ABV2@@Z ; CSelectingTool::GetDrawingPoint
  003c6	8b 4b 18	 mov	 ecx, DWORD PTR [ebx+24]
  003c9	50		 push	 eax
  003ca	e8 00 00 00 00	 call	 ?SetBtDownPoint@CSelectingTool@@QAEXABVCPoint@@@Z ; CSelectingTool::SetBtDownPoint

; 764  : 		m_pSelectedElement->ElementModify( modifyData);

  003cf	8b 8b 94 00 00
	00		 mov	 ecx, DWORD PTR [ebx+148]
  003d5	8d 95 dc fe ff
	ff		 lea	 edx, DWORD PTR _modifyData$[ebp]
  003db	52		 push	 edx
  003dc	8b 01		 mov	 eax, DWORD PTR [ecx]
  003de	ff 50 1c	 call	 DWORD PTR [eax+28]
  003e1	8d 4d e4	 lea	 ecx, DWORD PTR _selectedDrawingData$13[ebp+132]

; 765  : 	}

  003e4	c6 45 fc 02	 mov	 BYTE PTR __$EHRec$[ebp+8], 2
  003e8	ff 15 00 00 00
	00		 call	 DWORD PTR __imp_??1?$CStringT@DV?$StrTraitMFC_DLL@DV?$ChTraitsCRT@D@ATL@@@@@ATL@@QAE@XZ
  003ee	8d 8d 68 ff ff
	ff		 lea	 ecx, DWORD PTR _selectedDrawingData$13[ebp+8]
  003f4	e8 00 00 00 00	 call	 ??1CCoordinateCalculatorData@@QAE@XZ ; CCoordinateCalculatorData::~CCoordinateCalculatorData
  003f9	eb 62		 jmp	 SHORT $LN13@OnToolCopy
$LN12@OnToolCopy:

; 769  : 		modifyData = ( ( CSelectingTool *)m_pTool)->GetElementModifyData( CPoint( 10, 10));

  003fb	8d 85 44 ff ff
	ff		 lea	 eax, DWORD PTR $T12[ebp]
; File D:\git\src\IBK\IBK_DRFN\ProjSrc\SrcChartEx\ChartAddIn\ChartAnalysisToolAddIn\AnalysisTool\Selecting.h

; 40   : 			{	m_pSelectedElement = p_pSelectedElement;	m_TypeModify = p_TypeModify;	}

  00401	c7 41 78 01 00
	00 00		 mov	 DWORD PTR [ecx+120], 1
; File D:\git\src\IBK\IBK_DRFN\ProjSrc\SrcChartEx\ChartAddIn\ChartAnalysisToolAddIn\AnalysisTool\MainToolImplementation.cpp

; 769  : 		modifyData = ( ( CSelectingTool *)m_pTool)->GetElementModifyData( CPoint( 10, 10));

  00408	8b 4b 18	 mov	 ecx, DWORD PTR [ebx+24]
  0040b	50		 push	 eax
  0040c	8d 85 a4 fe ff
	ff		 lea	 eax, DWORD PTR $T3[ebp]
; File C:\Program Files (x86)\Microsoft Visual Studio\2019\Community\VC\Tools\MSVC\14.29.30133\atlmfc\include\atltypes.h

; 408  : 	x = initX;

  00412	c7 85 44 ff ff
	ff 0a 00 00 00	 mov	 DWORD PTR $T12[ebp], 10	; 0000000aH
; File D:\git\src\IBK\IBK_DRFN\ProjSrc\SrcChartEx\ChartAddIn\ChartAnalysisToolAddIn\AnalysisTool\MainToolImplementation.cpp

; 769  : 		modifyData = ( ( CSelectingTool *)m_pTool)->GetElementModifyData( CPoint( 10, 10));

  0041c	50		 push	 eax
; File C:\Program Files (x86)\Microsoft Visual Studio\2019\Community\VC\Tools\MSVC\14.29.30133\atlmfc\include\atltypes.h

; 409  : 	y = initY;

  0041d	c7 85 48 ff ff
	ff 0a 00 00 00	 mov	 DWORD PTR $T12[ebp+4], 10 ; 0000000aH
; File D:\git\src\IBK\IBK_DRFN\ProjSrc\SrcChartEx\ChartAddIn\ChartAnalysisToolAddIn\AnalysisTool\MainToolImplementation.cpp

; 769  : 		modifyData = ( ( CSelectingTool *)m_pTool)->GetElementModifyData( CPoint( 10, 10));

  00427	e8 00 00 00 00	 call	 ?GetElementModifyData@CSelectingTool@@QBE?AVCElementModifyData@@ABVCPoint@@@Z ; CSelectingTool::GetElementModifyData
  0042c	50		 push	 eax
  0042d	8d 8d dc fe ff
	ff		 lea	 ecx, DWORD PTR _modifyData$[ebp]
  00433	c6 45 fc 0a	 mov	 BYTE PTR __$EHRec$[ebp+8], 10 ; 0000000aH
  00437	e8 00 00 00 00	 call	 ??4CElementModifyData@@QAEAAV0@ABV0@@Z ; CElementModifyData::operator=
  0043c	8d 8d a4 fe ff
	ff		 lea	 ecx, DWORD PTR $T3[ebp]
  00442	c6 45 fc 02	 mov	 BYTE PTR __$EHRec$[ebp+8], 2
  00446	e8 00 00 00 00	 call	 ??1CElementModifyData@@QAE@XZ ; CElementModifyData::~CElementModifyData

; 770  : 		m_pSelectedElement->ElementModify( modifyData);

  0044b	8b 8b 94 00 00
	00		 mov	 ecx, DWORD PTR [ebx+148]
  00451	8d 95 dc fe ff
	ff		 lea	 edx, DWORD PTR _modifyData$[ebp]
  00457	52		 push	 edx
  00458	8b 01		 mov	 eax, DWORD PTR [ecx]
  0045a	ff 50 1c	 call	 DWORD PTR [eax+28]
$LN13@OnToolCopy:

; 771  : 	}
; 772  : 	m_analysisData.Invalidate();

  0045d	8b ce		 mov	 ecx, esi
  0045f	e8 00 00 00 00	 call	 ?Invalidate@CAnalysisData@@QAEXXZ ; CAnalysisData::Invalidate

; 773  : 
; 774  : 	//>> (2008/12/17 - Seung-Lyong Park)    UndoRedo
; 775  : 	m_analysisData.RegisterElementToOrderManager( ( long)m_pSelectedElement);

  00464	ff b3 94 00 00
	00		 push	 DWORD PTR [ebx+148]
  0046a	8b ce		 mov	 ecx, esi
  0046c	e8 00 00 00 00	 call	 ?RegisterElementToOrderManager@CAnalysisData@@QAEXJ@Z ; CAnalysisData::RegisterElementToOrderManager

; 776  : 
; 777  : 	m_analysisData.GetElementTree().Add(modifyData.GetBlockIndex(), m_pSelectedElement);	

  00471	ff b3 94 00 00
	00		 push	 DWORD PTR [ebx+148]
  00477	8d 8d dc fe ff
	ff		 lea	 ecx, DWORD PTR _modifyData$[ebp]
  0047d	e8 00 00 00 00	 call	 ?GetBlockIndex@CElementModifyData@@QAEAAVCBlockIndex@@XZ ; CElementModifyData::GetBlockIndex
  00482	50		 push	 eax
  00483	8b ce		 mov	 ecx, esi
  00485	e8 00 00 00 00	 call	 ?GetElementTree@CAnalysisData@@QAEAAVCElementTree@@XZ ; CAnalysisData::GetElementTree
  0048a	8b c8		 mov	 ecx, eax
  0048c	e8 00 00 00 00	 call	 ?Add@CElementTree@@QAEXABVCBlockIndex@@PAVCElement@@@Z ; CElementTree::Add

; 778  : 
; 779  : 	// Undo / Redo
; 780  : 	m_analysisData.GetUndoRedoManager().RegisterElementToUnRedoManager(URT_NEW_OR_DEL, ( long)m_pSelectedElement);

  00491	6a 00		 push	 0
  00493	6a 00		 push	 0
  00495	ff b3 94 00 00
	00		 push	 DWORD PTR [ebx+148]
  0049b	8b ce		 mov	 ecx, esi
  0049d	6a 01		 push	 1
  0049f	e8 00 00 00 00	 call	 ?GetUndoRedoManager@CAnalysisData@@QAEAAVCUndoRedoManager@@XZ ; CAnalysisData::GetUndoRedoManager
  004a4	8b c8		 mov	 ecx, eax
  004a6	e8 00 00 00 00	 call	 ?RegisterElementToUnRedoManager@CUndoRedoManager@@QAEXHJPBD0@Z ; CUndoRedoManager::RegisterElementToUnRedoManager

; 784  : 	return true;

  004ab	8d 8d dc fe ff
	ff		 lea	 ecx, DWORD PTR _modifyData$[ebp]
  004b1	e8 00 00 00 00	 call	 ??1CElementModifyData@@QAE@XZ ; CElementModifyData::~CElementModifyData
  004b6	8d 8d 6c fe ff
	ff		 lea	 ecx, DWORD PTR _orgData$[ebp]
  004bc	e8 00 00 00 00	 call	 ??1CElementModifyData@@QAE@XZ ; CElementModifyData::~CElementModifyData
; File C:\Program Files (x86)\Microsoft Visual Studio\2019\Community\VC\Tools\MSVC\14.29.30133\include\deque

; 1332 :         _Tidy();

  004c1	8d 8d 1c ff ff
	ff		 lea	 ecx, DWORD PTR _elementPointList$[ebp+8]
  004c7	e8 00 00 00 00	 call	 ?_Tidy@?$deque@PAVCCoordinate@@V?$allocator@PAVCCoordinate@@@std@@@std@@AAEXXZ ; std::deque<CCoordinate *,std::allocator<CCoordinate *> >::_Tidy

; 861  :         _Tidy();

  004cc	8d 8d 1c ff ff
	ff		 lea	 ecx, DWORD PTR _elementPointList$[ebp+8]
  004d2	e8 00 00 00 00	 call	 ?_Tidy@?$deque@PAVCCoordinate@@V?$allocator@PAVCCoordinate@@@std@@@std@@AAEXXZ ; std::deque<CCoordinate *,std::allocator<CCoordinate *> >::_Tidy
; File C:\Program Files (x86)\Microsoft Visual Studio\2019\Community\VC\Tools\MSVC\14.29.30133\include\utility

; 602  :     _Ty _Old_val = static_cast<_Ty&&>(_Val);

  004d7	8b 85 1c ff ff
	ff		 mov	 eax, DWORD PTR _elementPointList$[ebp+8]
; File C:\Program Files (x86)\Microsoft Visual Studio\2019\Community\VC\Tools\MSVC\14.29.30133\include\xmemory

; 255  :         ::operator delete(_Ptr, _Bytes);

  004dd	6a 08		 push	 8
  004df	50		 push	 eax
; File C:\Program Files (x86)\Microsoft Visual Studio\2019\Community\VC\Tools\MSVC\14.29.30133\include\utility

; 603  :     _Val         = static_cast<_Other&&>(_New_val);

  004e0	c7 85 1c ff ff
	ff 00 00 00 00	 mov	 DWORD PTR _elementPointList$[ebp+8], 0
; File C:\Program Files (x86)\Microsoft Visual Studio\2019\Community\VC\Tools\MSVC\14.29.30133\include\xmemory

; 255  :         ::operator delete(_Ptr, _Bytes);

  004ea	e8 00 00 00 00	 call	 ??3@YAXPAXI@Z		; operator delete
  004ef	83 c4 08	 add	 esp, 8
; File D:\git\src\IBK\IBK_DRFN\ProjSrc\SrcChartEx\ChartAddIn\ChartAnalysisToolAddIn\AnalysisTool\MainToolImplementation.cpp

; 784  : 	return true;

  004f2	b0 01		 mov	 al, 1
  004f4	eb 02		 jmp	 SHORT $LN1@OnToolCopy
$LN100@OnToolCopy:

; 716  : 		return false;

  004f6	32 c0		 xor	 al, al
$LN1@OnToolCopy:

; 785  : }

  004f8	8b 4d f4	 mov	 ecx, DWORD PTR __$EHRec$[ebp]
  004fb	64 89 0d 00 00
	00 00		 mov	 DWORD PTR fs:0, ecx
  00502	59		 pop	 ecx
  00503	5f		 pop	 edi
  00504	5e		 pop	 esi
  00505	5b		 pop	 ebx
  00506	8b 4d f0	 mov	 ecx, DWORD PTR __$ArrayPad$[ebp]
  00509	33 cd		 xor	 ecx, ebp
  0050b	e8 00 00 00 00	 call	 @__security_check_cookie@4
  00510	8b e5		 mov	 esp, ebp
  00512	5d		 pop	 ebp
  00513	c3		 ret	 0
_TEXT	ENDS
;	COMDAT text$x
text$x	SEGMENT
__unwindfunclet$?OnToolCopy@CMainToolImplementation@@QAE_NXZ$0:
  00000	8d 8d 14 ff ff
	ff		 lea	 ecx, DWORD PTR _elementPointList$[ebp]
  00006	e9 00 00 00 00	 jmp	 ??1CElementPointList@@QAE@XZ
__unwindfunclet$?OnToolCopy@CMainToolImplementation@@QAE_NXZ$1:
  0000b	8d 8d 6c fe ff
	ff		 lea	 ecx, DWORD PTR _orgData$[ebp]
  00011	e9 00 00 00 00	 jmp	 ??1CElementModifyData@@QAE@XZ ; CElementModifyData::~CElementModifyData
__unwindfunclet$?OnToolCopy@CMainToolImplementation@@QAE_NXZ$2:
  00016	8d 8d dc fe ff
	ff		 lea	 ecx, DWORD PTR _modifyData$[ebp]
  0001c	e9 00 00 00 00	 jmp	 ??1CElementModifyData@@QAE@XZ ; CElementModifyData::~CElementModifyData
__unwindfunclet$?OnToolCopy@CMainToolImplementation@@QAE_NXZ$3:
  00021	8d 8d 60 ff ff
	ff		 lea	 ecx, DWORD PTR _selectedDrawingData$14[ebp]
  00027	e9 00 00 00 00	 jmp	 ??1CSelectedElementDrawingData@@QAE@XZ
__unwindfunclet$?OnToolCopy@CMainToolImplementation@@QAE_NXZ$4:
  0002c	8d 8d a4 fe ff
	ff		 lea	 ecx, DWORD PTR $T6[ebp]
  00032	e9 00 00 00 00	 jmp	 ??1CElementModifyData@@QAE@XZ ; CElementModifyData::~CElementModifyData
__unwindfunclet$?OnToolCopy@CMainToolImplementation@@QAE_NXZ$5:
  00037	8d 8d a4 fe ff
	ff		 lea	 ecx, DWORD PTR $T5[ebp]
  0003d	e9 00 00 00 00	 jmp	 ??1CElementModifyData@@QAE@XZ ; CElementModifyData::~CElementModifyData
__unwindfunclet$?OnToolCopy@CMainToolImplementation@@QAE_NXZ$6:
  00042	8d 8d bc fe ff
	ff		 lea	 ecx, DWORD PTR $T7[ebp]
  00048	e9 00 00 00 00	 jmp	 ??1CCoordinate@@QAE@XZ
__unwindfunclet$?OnToolCopy@CMainToolImplementation@@QAE_NXZ$7:
  0004d	8d 8d 4c fe ff
	ff		 lea	 ecx, DWORD PTR $T2[ebp]
  00053	e9 00 00 00 00	 jmp	 ??1CCoordinate@@QAE@XZ
__unwindfunclet$?OnToolCopy@CMainToolImplementation@@QAE_NXZ$8:
  00058	8d 8d 60 ff ff
	ff		 lea	 ecx, DWORD PTR _selectedDrawingData$13[ebp]
  0005e	e9 00 00 00 00	 jmp	 ??1CSelectedElementDrawingData@@QAE@XZ
__unwindfunclet$?OnToolCopy@CMainToolImplementation@@QAE_NXZ$9:
  00063	8d 8d a4 fe ff
	ff		 lea	 ecx, DWORD PTR $T4[ebp]
  00069	e9 00 00 00 00	 jmp	 ??1CElementModifyData@@QAE@XZ ; CElementModifyData::~CElementModifyData
__unwindfunclet$?OnToolCopy@CMainToolImplementation@@QAE_NXZ$10:
  0006e	8d 8d a4 fe ff
	ff		 lea	 ecx, DWORD PTR $T3[ebp]
  00074	e9 00 00 00 00	 jmp	 ??1CElementModifyData@@QAE@XZ ; CElementModifyData::~CElementModifyData
  00079	cc		 int	 3
  0007a	cc		 int	 3
  0007b	cc		 int	 3
  0007c	cc		 int	 3
  0007d	cc		 int	 3
__ehhandler$?OnToolCopy@CMainToolImplementation@@QAE_NXZ:
  0007e	90		 npad	 1
  0007f	90		 npad	 1
  00080	8b 54 24 08	 mov	 edx, DWORD PTR [esp+8]
  00084	8d 42 0c	 lea	 eax, DWORD PTR [edx+12]
  00087	8b 8a 48 fe ff
	ff		 mov	 ecx, DWORD PTR [edx-440]
  0008d	33 c8		 xor	 ecx, eax
  0008f	e8 00 00 00 00	 call	 @__security_check_cookie@4
  00094	8b 4a fc	 mov	 ecx, DWORD PTR [edx-4]
  00097	33 c8		 xor	 ecx, eax
  00099	e8 00 00 00 00	 call	 @__security_check_cookie@4
  0009e	b8 00 00 00 00	 mov	 eax, OFFSET __ehfuncinfo$?OnToolCopy@CMainToolImplementation@@QAE_NXZ
  000a3	e9 00 00 00 00	 jmp	 ___CxxFrameHandler3
text$x	ENDS
?OnToolCopy@CMainToolImplementation@@QAE_NXZ ENDP	; CMainToolImplementation::OnToolCopy
; Function compile flags: /Ogtp
; File D:\git\src\IBK\IBK_DRFN\ProjSrc\SrcChartEx\ChartAddIn\ChartAnalysisToolAddIn\AnalysisTool\MainToolImplementation.cpp
; File C:\Program Files (x86)\Microsoft Visual Studio\2019\Community\VC\Tools\MSVC\14.29.30133\atlmfc\include\afxtempl.h
; File D:\git\src\IBK\IBK_DRFN\ProjSrc\SrcChartEx\ChartAddIn\ChartAnalysisToolAddIn\AnalysisTool\MainToolImplementation.cpp
; File C:\Program Files (x86)\Microsoft Visual Studio\2019\Community\VC\Tools\MSVC\14.29.30133\atlmfc\include\atltypes.h
; File D:\git\src\IBK\IBK_DRFN\ProjSrc\SrcChartEx\ChartAddIn\ChartAnalysisToolAddIn\AnalysisTool\MainToolImplementation.cpp
; File C:\Program Files (x86)\Microsoft Visual Studio\2019\Community\VC\Tools\MSVC\14.29.30133\atlmfc\include\atltypes.h
; File D:\git\src\IBK\IBK_DRFN\ProjSrc\SrcChartEx\ChartAddIn\ChartAnalysisToolAddIn\AnalysisTool\MainToolImplementation.cpp
; File C:\Program Files (x86)\Microsoft Visual Studio\2019\Community\VC\Tools\MSVC\14.29.30133\include\deque
; File C:\Program Files (x86)\Microsoft Visual Studio\2019\Community\VC\Tools\MSVC\14.29.30133\include\utility
; File C:\Program Files (x86)\Microsoft Visual Studio\2019\Community\VC\Tools\MSVC\14.29.30133\include\xmemory
; File C:\Program Files (x86)\Microsoft Visual Studio\2019\Community\VC\Tools\MSVC\14.29.30133\include\utility
; File C:\Program Files (x86)\Microsoft Visual Studio\2019\Community\VC\Tools\MSVC\14.29.30133\include\xmemory
; File D:\git\src\IBK\IBK_DRFN\ProjSrc\SrcChartEx\ChartAddIn\ChartAnalysisToolAddIn\AnalysisTool\MainToolImplementation.cpp
;	COMDAT ?GetData_Line@CMainToolImplementation@@QBE_NAAV?$CList@VCPoint@@AAV1@@@AAN@Z
_TEXT	SEGMENT
_elementPointList$ = -60				; size = 32
tv350 = -28						; size = 8
tv346 = -28						; size = 8
_point$2 = -20						; size = 8
__$EHRec$ = -12						; size = 12
_elementData$ = 8					; size = 4
_dVertDataType$ = 12					; size = 4
?GetData_Line@CMainToolImplementation@@QBE_NAAV?$CList@VCPoint@@AAV1@@@AAN@Z PROC ; CMainToolImplementation::GetData_Line, COMDAT
; _this$ = ecx

; 65   : {

  00000	55		 push	 ebp
  00001	8b ec		 mov	 ebp, esp
  00003	6a ff		 push	 -1
  00005	68 00 00 00 00	 push	 __ehhandler$?GetData_Line@CMainToolImplementation@@QBE_NAAV?$CList@VCPoint@@AAV1@@@AAN@Z
  0000a	64 a1 00 00 00
	00		 mov	 eax, DWORD PTR fs:0
  00010	50		 push	 eax
  00011	83 ec 30	 sub	 esp, 48			; 00000030H
  00014	53		 push	 ebx
  00015	56		 push	 esi
  00016	57		 push	 edi
  00017	a1 00 00 00 00	 mov	 eax, DWORD PTR ___security_cookie
  0001c	33 c5		 xor	 eax, ebp
  0001e	50		 push	 eax
  0001f	8d 45 f4	 lea	 eax, DWORD PTR __$EHRec$[ebp]
  00022	64 a3 00 00 00
	00		 mov	 DWORD PTR fs:0, eax
  00028	8b f9		 mov	 edi, ecx
; File C:\Program Files (x86)\Microsoft Visual Studio\2019\Community\VC\Tools\MSVC\14.29.30133\atlmfc\include\afxtempl.h

; 870  : 	m_nCount = 0;

  0002a	8b 75 08	 mov	 esi, DWORD PTR _elementData$[ebp]

; 871  : 	m_pNodeHead = m_pNodeTail = m_pNodeFree = NULL;
; 872  : 	m_pBlocks->FreeDataChain();

  0002d	8b 4e 14	 mov	 ecx, DWORD PTR [esi+20]
  00030	c7 46 0c 00 00
	00 00		 mov	 DWORD PTR [esi+12], 0
  00037	c7 46 10 00 00
	00 00		 mov	 DWORD PTR [esi+16], 0
  0003e	c7 46 08 00 00
	00 00		 mov	 DWORD PTR [esi+8], 0
  00045	c7 46 04 00 00
	00 00		 mov	 DWORD PTR [esi+4], 0
  0004c	e8 00 00 00 00	 call	 ?FreeDataChain@CPlex@@QAEXXZ ; CPlex::FreeDataChain

; 873  : 	m_pBlocks = NULL;

  00051	c7 46 14 00 00
	00 00		 mov	 DWORD PTR [esi+20], 0
; File D:\git\src\IBK\IBK_DRFN\ProjSrc\SrcChartEx\ChartAddIn\ChartAnalysisToolAddIn\AnalysisTool\MainToolImplementation.cpp

; 67   : 	if(m_pSelectedElement == NULL || m_pSelectedElement->GetElementType() != CToolEnumData::Line)

  00058	8b 8f 94 00 00
	00		 mov	 ecx, DWORD PTR [edi+148]
  0005e	85 c9		 test	 ecx, ecx
  00060	0f 84 ea 00 00
	00		 je	 $LN3@GetData_Li
  00066	8b 01		 mov	 eax, DWORD PTR [ecx]
  00068	ff 50 04	 call	 DWORD PTR [eax+4]
  0006b	83 f8 05	 cmp	 eax, 5
  0006e	0f 85 dc 00 00
	00		 jne	 $LN3@GetData_Li

; 69   : 
; 70   : 	CElementPointList elementPointList;

  00074	8d 4d c4	 lea	 ecx, DWORD PTR _elementPointList$[ebp]
  00077	e8 00 00 00 00	 call	 ??0CElementPointList@@QAE@XZ ; CElementPointList::CElementPointList

; 71   : 	m_pSelectedElement->GetPoints(elementPointList);

  0007c	8b 8f 94 00 00
	00		 mov	 ecx, DWORD PTR [edi+148]
  00082	8d 55 c4	 lea	 edx, DWORD PTR _elementPointList$[ebp]
  00085	52		 push	 edx
  00086	c7 45 fc 00 00
	00 00		 mov	 DWORD PTR __$EHRec$[ebp+8], 0
  0008d	8b 01		 mov	 eax, DWORD PTR [ecx]
  0008f	ff 50 08	 call	 DWORD PTR [eax+8]

; 673  : 	if(elementPointList.GetCount() <= 0)

  00092	8d 4d c4	 lea	 ecx, DWORD PTR _elementPointList$[ebp]
  00095	e8 00 00 00 00	 call	 ?GetCount@CElementPointList@@QBEHXZ ; CElementPointList::GetCount
  0009a	85 c0		 test	 eax, eax
  0009c	7f 04		 jg	 SHORT $LN15@GetData_Li

; 674  : 		return false;

  0009e	32 db		 xor	 bl, bl
  000a0	eb 73		 jmp	 SHORT $LN11@GetData_Li
$LN15@GetData_Li:

; 675  : 
; 676  : 	dVertDataType = elementPointList.GetVertDataType();

  000a2	8d 4d c4	 lea	 ecx, DWORD PTR _elementPointList$[ebp]
  000a5	e8 00 00 00 00	 call	 ?GetVertDataType@CElementPointList@@QBENXZ ; CElementPointList::GetVertDataType
  000aa	8b 45 0c	 mov	 eax, DWORD PTR _dVertDataType$[ebp]

; 677  : 
; 678  : 	for(int nIndex = 0; nIndex < elementPointList.GetCount(); nIndex++)

  000ad	8d 4d c4	 lea	 ecx, DWORD PTR _elementPointList$[ebp]
  000b0	33 ff		 xor	 edi, edi
  000b2	dd 18		 fstp	 QWORD PTR [eax]
  000b4	e8 00 00 00 00	 call	 ?GetCount@CElementPointList@@QBEHXZ ; CElementPointList::GetCount
  000b9	85 c0		 test	 eax, eax
  000bb	7e 51		 jle	 SHORT $LN13@GetData_Li
  000bd	0f 1f 00	 npad	 3
$LL14@GetData_Li:

; 679  : 	{
; 680  : 		CCoordinate* pCoordinate = elementPointList.GetAt(nIndex);

  000c0	57		 push	 edi
  000c1	8d 4d c4	 lea	 ecx, DWORD PTR _elementPointList$[ebp]
  000c4	e8 00 00 00 00	 call	 ?GetAt@CElementPointList@@QBEPAVCCoordinate@@H@Z ; CElementPointList::GetAt
  000c9	8b d8		 mov	 ebx, eax

; 681  : 		if(pCoordinate == NULL)

  000cb	85 db		 test	 ebx, ebx
  000cd	74 32		 je	 SHORT $LN12@GetData_Li

; 682  : 			continue;
; 683  : 		CPoint point(pCoordinate->GetX(), pCoordinate->GetY());

  000cf	8b cb		 mov	 ecx, ebx
  000d1	e8 00 00 00 00	 call	 ?GetY@CCoordinate@@QBENXZ ; CCoordinate::GetY
  000d6	dd 5d e4	 fstp	 QWORD PTR tv350[ebp]
  000d9	f2 0f 2c 75 e4	 cvttsd2si esi, QWORD PTR tv350[ebp]
  000de	8b cb		 mov	 ecx, ebx
  000e0	e8 00 00 00 00	 call	 ?GetX@CCoordinate@@QBENXZ ; CCoordinate::GetX
; File C:\Program Files (x86)\Microsoft Visual Studio\2019\Community\VC\Tools\MSVC\14.29.30133\atlmfc\include\atltypes.h

; 409  : 	y = initY;

  000e5	89 75 f0	 mov	 DWORD PTR _point$2[ebp+4], esi
; File D:\git\src\IBK\IBK_DRFN\ProjSrc\SrcChartEx\ChartAddIn\ChartAnalysisToolAddIn\AnalysisTool\MainToolImplementation.cpp

; 684  : 		elementData.AddTail(point);

  000e8	8b 75 08	 mov	 esi, DWORD PTR _elementData$[ebp]
  000eb	8b ce		 mov	 ecx, esi
  000ed	dd 5d e4	 fstp	 QWORD PTR tv346[ebp]
  000f0	f2 0f 2c 45 e4	 cvttsd2si eax, QWORD PTR tv346[ebp]
; File C:\Program Files (x86)\Microsoft Visual Studio\2019\Community\VC\Tools\MSVC\14.29.30133\atlmfc\include\atltypes.h

; 408  : 	x = initX;

  000f5	89 45 ec	 mov	 DWORD PTR _point$2[ebp], eax
; File D:\git\src\IBK\IBK_DRFN\ProjSrc\SrcChartEx\ChartAddIn\ChartAnalysisToolAddIn\AnalysisTool\MainToolImplementation.cpp

; 684  : 		elementData.AddTail(point);

  000f8	8d 45 ec	 lea	 eax, DWORD PTR _point$2[ebp]
  000fb	50		 push	 eax
  000fc	e8 00 00 00 00	 call	 ?AddTail@?$CList@VCPoint@@AAV1@@@QAEPAU__POSITION@@AAVCPoint@@@Z ; CList<CPoint,CPoint &>::AddTail
$LN12@GetData_Li:

; 677  : 
; 678  : 	for(int nIndex = 0; nIndex < elementPointList.GetCount(); nIndex++)

  00101	8d 4d c4	 lea	 ecx, DWORD PTR _elementPointList$[ebp]
  00104	47		 inc	 edi
  00105	e8 00 00 00 00	 call	 ?GetCount@CElementPointList@@QBEHXZ ; CElementPointList::GetCount
  0010a	3b f8		 cmp	 edi, eax
  0010c	7c b2		 jl	 SHORT $LL14@GetData_Li
$LN13@GetData_Li:

; 685  : 	}
; 686  : 
; 687  : 	return (elementData.GetCount() > 0);

  0010e	83 7e 0c 00	 cmp	 DWORD PTR [esi+12], 0
  00112	0f 9f c3	 setg	 bl
$LN11@GetData_Li:
; File C:\Program Files (x86)\Microsoft Visual Studio\2019\Community\VC\Tools\MSVC\14.29.30133\include\deque

; 1332 :         _Tidy();

  00115	8d 4d cc	 lea	 ecx, DWORD PTR _elementPointList$[ebp+8]
  00118	e8 00 00 00 00	 call	 ?_Tidy@?$deque@PAVCCoordinate@@V?$allocator@PAVCCoordinate@@@std@@@std@@AAEXXZ ; std::deque<CCoordinate *,std::allocator<CCoordinate *> >::_Tidy

; 861  :         _Tidy();

  0011d	8d 4d cc	 lea	 ecx, DWORD PTR _elementPointList$[ebp+8]
  00120	e8 00 00 00 00	 call	 ?_Tidy@?$deque@PAVCCoordinate@@V?$allocator@PAVCCoordinate@@@std@@@std@@AAEXXZ ; std::deque<CCoordinate *,std::allocator<CCoordinate *> >::_Tidy
; File C:\Program Files (x86)\Microsoft Visual Studio\2019\Community\VC\Tools\MSVC\14.29.30133\include\utility

; 602  :     _Ty _Old_val = static_cast<_Ty&&>(_Val);

  00125	8b 4d cc	 mov	 ecx, DWORD PTR _elementPointList$[ebp+8]
; File C:\Program Files (x86)\Microsoft Visual Studio\2019\Community\VC\Tools\MSVC\14.29.30133\include\xmemory

; 255  :         ::operator delete(_Ptr, _Bytes);

  00128	6a 08		 push	 8
  0012a	51		 push	 ecx
; File C:\Program Files (x86)\Microsoft Visual Studio\2019\Community\VC\Tools\MSVC\14.29.30133\include\utility

; 603  :     _Val         = static_cast<_Other&&>(_New_val);

  0012b	c7 45 cc 00 00
	00 00		 mov	 DWORD PTR _elementPointList$[ebp+8], 0
; File C:\Program Files (x86)\Microsoft Visual Studio\2019\Community\VC\Tools\MSVC\14.29.30133\include\xmemory

; 255  :         ::operator delete(_Ptr, _Bytes);

  00132	e8 00 00 00 00	 call	 ??3@YAXPAXI@Z		; operator delete
  00137	83 c4 08	 add	 esp, 8
; File D:\git\src\IBK\IBK_DRFN\ProjSrc\SrcChartEx\ChartAddIn\ChartAnalysisToolAddIn\AnalysisTool\MainToolImplementation.cpp

; 72   : 	return GetData(elementPointList, elementData, dVertDataType);

  0013a	8a c3		 mov	 al, bl

; 73   : }

  0013c	8b 4d f4	 mov	 ecx, DWORD PTR __$EHRec$[ebp]
  0013f	64 89 0d 00 00
	00 00		 mov	 DWORD PTR fs:0, ecx
  00146	59		 pop	 ecx
  00147	5f		 pop	 edi
  00148	5e		 pop	 esi
  00149	5b		 pop	 ebx
  0014a	8b e5		 mov	 esp, ebp
  0014c	5d		 pop	 ebp
  0014d	c2 08 00	 ret	 8
$LN3@GetData_Li:

; 68   : 		return false;

  00150	32 c0		 xor	 al, al

; 73   : }

  00152	8b 4d f4	 mov	 ecx, DWORD PTR __$EHRec$[ebp]
  00155	64 89 0d 00 00
	00 00		 mov	 DWORD PTR fs:0, ecx
  0015c	59		 pop	 ecx
  0015d	5f		 pop	 edi
  0015e	5e		 pop	 esi
  0015f	5b		 pop	 ebx
  00160	8b e5		 mov	 esp, ebp
  00162	5d		 pop	 ebp
  00163	c2 08 00	 ret	 8
_TEXT	ENDS
;	COMDAT text$x
text$x	SEGMENT
__unwindfunclet$?GetData_Line@CMainToolImplementation@@QBE_NAAV?$CList@VCPoint@@AAV1@@@AAN@Z$0:
  00000	8d 4d c4	 lea	 ecx, DWORD PTR _elementPointList$[ebp]
  00003	e9 00 00 00 00	 jmp	 ??1CElementPointList@@QAE@XZ
  00008	cc		 int	 3
  00009	cc		 int	 3
  0000a	cc		 int	 3
  0000b	cc		 int	 3
  0000c	cc		 int	 3
__ehhandler$?GetData_Line@CMainToolImplementation@@QBE_NAAV?$CList@VCPoint@@AAV1@@@AAN@Z:
  0000d	90		 npad	 1
  0000e	90		 npad	 1
  0000f	8b 54 24 08	 mov	 edx, DWORD PTR [esp+8]
  00013	8d 42 0c	 lea	 eax, DWORD PTR [edx+12]
  00016	8b 4a c0	 mov	 ecx, DWORD PTR [edx-64]
  00019	33 c8		 xor	 ecx, eax
  0001b	e8 00 00 00 00	 call	 @__security_check_cookie@4
  00020	b8 00 00 00 00	 mov	 eax, OFFSET __ehfuncinfo$?GetData_Line@CMainToolImplementation@@QBE_NAAV?$CList@VCPoint@@AAV1@@@AAN@Z
  00025	e9 00 00 00 00	 jmp	 ___CxxFrameHandler3
text$x	ENDS
?GetData_Line@CMainToolImplementation@@QBE_NAAV?$CList@VCPoint@@AAV1@@@AAN@Z ENDP ; CMainToolImplementation::GetData_Line
; Function compile flags: /Ogtp
; File D:\git\src\IBK\IBK_DRFN\ProjSrc\SrcChartEx\ChartAddIn\ChartAnalysisToolAddIn\AnalysisTool\MainToolImplementation.cpp
;	COMDAT ?GetSelectedToolType@CMainToolImplementation@@QBE?AW4ElementType@CToolEnumData@@XZ
_TEXT	SEGMENT
?GetSelectedToolType@CMainToolImplementation@@QBE?AW4ElementType@CToolEnumData@@XZ PROC ; CMainToolImplementation::GetSelectedToolType, COMDAT
; _this$ = ecx

; 57   : 	if(m_pSelectedElement == NULL)

  00000	8b 89 94 00 00
	00		 mov	 ecx, DWORD PTR [ecx+148]
  00006	85 c9		 test	 ecx, ecx
  00008	75 04		 jne	 SHORT $LN2@GetSelecte

; 58   : 		return CToolEnumData::Not_Element;

  0000a	83 c8 ff	 or	 eax, -1

; 61   : }

  0000d	c3		 ret	 0
$LN2@GetSelecte:

; 59   : 
; 60   : 	return m_pSelectedElement->GetElementType();

  0000e	8b 01		 mov	 eax, DWORD PTR [ecx]
  00010	ff 60 04	 jmp	 DWORD PTR [eax+4]
?GetSelectedToolType@CMainToolImplementation@@QBE?AW4ElementType@CToolEnumData@@XZ ENDP ; CMainToolImplementation::GetSelectedToolType
_TEXT	ENDS
; Function compile flags: /Ogtp
; File D:\git\src\IBK\IBK_DRFN\ProjSrc\SrcChartEx\ChartAddIn\ChartAnalysisToolAddIn\AnalysisTool\MainToolImplementation.cpp
;	COMDAT ?GetCurrentToolType@CMainToolImplementation@@QBE?AW4TOOLTYPE@CAnalysis@@XZ
_TEXT	SEGMENT
?GetCurrentToolType@CMainToolImplementation@@QBE?AW4TOOLTYPE@CAnalysis@@XZ PROC ; CMainToolImplementation::GetCurrentToolType, COMDAT
; _this$ = ecx

; 52   : 	return m_analysisData.GetCurrentToolType();

  00000	83 c1 1c	 add	 ecx, 28			; 0000001cH
  00003	e9 00 00 00 00	 jmp	 ?GetCurrentToolType@CAnalysisData@@QBE?AW4TOOLTYPE@CAnalysis@@XZ ; CAnalysisData::GetCurrentToolType
?GetCurrentToolType@CMainToolImplementation@@QBE?AW4TOOLTYPE@CAnalysis@@XZ ENDP ; CMainToolImplementation::GetCurrentToolType
_TEXT	ENDS
; Function compile flags: /Ogtp
; File D:\git\src\IBK\IBK_DRFN\ProjSrc\SrcChartEx\ChartAddIn\ChartAnalysisToolAddIn\AnalysisTool\MainToolImplementation.cpp
;	COMDAT ?GetSavedElementsData@CMainToolImplementation@@QBE?AV?$CStringT@DV?$StrTraitMFC_DLL@DV?$ChTraitsCRT@D@ATL@@@@@ATL@@XZ
_TEXT	SEGMENT
___$ReturnUdt$ = 8					; size = 4
?GetSavedElementsData@CMainToolImplementation@@QBE?AV?$CStringT@DV?$StrTraitMFC_DLL@DV?$ChTraitsCRT@D@ATL@@@@@ATL@@XZ PROC ; CMainToolImplementation::GetSavedElementsData, COMDAT
; _this$ = ecx

; 46   : {

  00000	55		 push	 ebp
  00001	8b ec		 mov	 ebp, esp

; 47   : 	return m_analysisData.GetElementTree().GetSavedElementsData();

  00003	ff 75 08	 push	 DWORD PTR ___$ReturnUdt$[ebp]
  00006	83 c1 1c	 add	 ecx, 28			; 0000001cH
  00009	e8 00 00 00 00	 call	 ?GetElementTree@CAnalysisData@@QBEABVCElementTree@@XZ ; CAnalysisData::GetElementTree
  0000e	8b c8		 mov	 ecx, eax
  00010	e8 00 00 00 00	 call	 ?GetSavedElementsData@CElementTree@@QBE?AV?$CStringT@DV?$StrTraitMFC_DLL@DV?$ChTraitsCRT@D@ATL@@@@@ATL@@XZ ; CElementTree::GetSavedElementsData
  00015	8b 45 08	 mov	 eax, DWORD PTR ___$ReturnUdt$[ebp]

; 48   : }

  00018	5d		 pop	 ebp
  00019	c2 04 00	 ret	 4
?GetSavedElementsData@CMainToolImplementation@@QBE?AV?$CStringT@DV?$StrTraitMFC_DLL@DV?$ChTraitsCRT@D@ATL@@@@@ATL@@XZ ENDP ; CMainToolImplementation::GetSavedElementsData
_TEXT	ENDS
; Function compile flags: /Ogtp
; File D:\git\src\IBK\IBK_DRFN\ProjSrc\SrcChartEx\ChartAddIn\ChartAnalysisToolAddIn\AnalysisTool\MainToolImplementation.cpp
;	COMDAT ?GetElementCount@CMainToolImplementation@@QBEHXZ
_TEXT	SEGMENT
?GetElementCount@CMainToolImplementation@@QBEHXZ PROC	; CMainToolImplementation::GetElementCount, COMDAT
; _this$ = ecx

; 42   : 	return m_analysisData.GetElementTree().GetElementCount();

  00000	83 c1 1c	 add	 ecx, 28			; 0000001cH
  00003	e8 00 00 00 00	 call	 ?GetElementTree@CAnalysisData@@QBEABVCElementTree@@XZ ; CAnalysisData::GetElementTree
  00008	8b c8		 mov	 ecx, eax
  0000a	e9 00 00 00 00	 jmp	 ?GetElementCount@CElementTree@@QBEHXZ ; CElementTree::GetElementCount
?GetElementCount@CMainToolImplementation@@QBEHXZ ENDP	; CMainToolImplementation::GetElementCount
_TEXT	ENDS
; Function compile flags: /Ogtp
; File D:\git\src\IBK\IBK_DRFN\ProjSrc\SrcChartEx\ChartAddIn\ChartAnalysisToolAddIn\AnalysisTool\MainToolImplementation.cpp
; File C:\Program Files (x86)\Microsoft Visual Studio\2019\Community\VC\Tools\MSVC\14.29.30133\atlmfc\include\atltypes.h
; File D:\git\src\IBK\IBK_DRFN\ProjSrc\SrcChartEx\ChartAddIn\ChartAnalysisToolAddIn\AnalysisTool\MainToolImplementation.cpp
; File C:\Program Files (x86)\Microsoft Visual Studio\2019\Community\VC\Tools\MSVC\14.29.30133\atlmfc\include\atltypes.h
; File D:\git\src\IBK\IBK_DRFN\ProjSrc\SrcChartEx\ChartAddIn\ChartAnalysisToolAddIn\AnalysisTool\MainToolImplementation.cpp
;	COMDAT ??0CMainToolImplementation@@QAE@PAVCWnd@@PAUHWND__@@W4CHART_MODE@CChartInfo@@@Z
_TEXT	SEGMENT
_this$ = -16						; size = 4
__$EHRec$ = -12						; size = 12
_pParent$ = 8						; size = 4
_p_hOcxWnd$ = 12					; size = 4
_p_eChartMode$ = 16					; size = 4
??0CMainToolImplementation@@QAE@PAVCWnd@@PAUHWND__@@W4CHART_MODE@CChartInfo@@@Z PROC ; CMainToolImplementation::CMainToolImplementation, COMDAT
; _this$ = ecx

; 31   : {

  00000	55		 push	 ebp
  00001	8b ec		 mov	 ebp, esp
  00003	6a ff		 push	 -1
  00005	68 00 00 00 00	 push	 __ehhandler$??0CMainToolImplementation@@QAE@PAVCWnd@@PAUHWND__@@W4CHART_MODE@CChartInfo@@@Z
  0000a	64 a1 00 00 00
	00		 mov	 eax, DWORD PTR fs:0
  00010	50		 push	 eax
  00011	51		 push	 ecx
  00012	53		 push	 ebx
  00013	56		 push	 esi
  00014	57		 push	 edi
  00015	a1 00 00 00 00	 mov	 eax, DWORD PTR ___security_cookie
  0001a	33 c5		 xor	 eax, ebp
  0001c	50		 push	 eax
  0001d	8d 45 f4	 lea	 eax, DWORD PTR __$EHRec$[ebp]
  00020	64 a3 00 00 00
	00		 mov	 DWORD PTR fs:0, eax
  00026	8b d9		 mov	 ebx, ecx
  00028	89 5d f0	 mov	 DWORD PTR _this$[ebp], ebx

; 29   : 	m_analysisData( p_hOcxWnd, p_eChartMode),

  0002b	ff 75 10	 push	 DWORD PTR _p_eChartMode$[ebp]
  0002e	c7 03 00 00 00
	00		 mov	 DWORD PTR [ebx], OFFSET ??_7CCanCallYou@CMainToolImplementation@@6B@
  00034	8d 7b 1c	 lea	 edi, DWORD PTR [ebx+28]
  00037	ff 75 0c	 push	 DWORD PTR _p_hOcxWnd$[ebp]
; File C:\Program Files (x86)\Microsoft Visual Studio\2019\Community\VC\Tools\MSVC\14.29.30133\atlmfc\include\atltypes.h

; 400  : 	x = 0;

  0003a	c7 43 08 00 00
	00 00		 mov	 DWORD PTR [ebx+8], 0
; File D:\git\src\IBK\IBK_DRFN\ProjSrc\SrcChartEx\ChartAddIn\ChartAnalysisToolAddIn\AnalysisTool\MainToolImplementation.cpp

; 29   : 	m_analysisData( p_hOcxWnd, p_eChartMode),

  00041	8b cf		 mov	 ecx, edi
; File C:\Program Files (x86)\Microsoft Visual Studio\2019\Community\VC\Tools\MSVC\14.29.30133\atlmfc\include\atltypes.h

; 401  : 	y = 0;

  00043	c7 43 0c 00 00
	00 00		 mov	 DWORD PTR [ebx+12], 0

; 400  : 	x = 0;

  0004a	c7 43 10 00 00
	00 00		 mov	 DWORD PTR [ebx+16], 0

; 401  : 	y = 0;

  00051	c7 43 14 00 00
	00 00		 mov	 DWORD PTR [ebx+20], 0
; File D:\git\src\IBK\IBK_DRFN\ProjSrc\SrcChartEx\ChartAddIn\ChartAnalysisToolAddIn\AnalysisTool\MainToolImplementation.cpp

; 29   : 	m_analysisData( p_hOcxWnd, p_eChartMode),

  00058	e8 00 00 00 00	 call	 ??0CAnalysisData@@QAE@PAUHWND__@@W4CHART_MODE@CChartInfo@@@Z ; CAnalysisData::CAnalysisData

; 30   : 	m_toolSingleton(&m_analysisData)

  0005d	57		 push	 edi
  0005e	8d 8b 98 00 00
	00		 lea	 ecx, DWORD PTR [ebx+152]
  00064	c7 45 fc 00 00
	00 00		 mov	 DWORD PTR __$EHRec$[ebp+8], 0
  0006b	e8 00 00 00 00	 call	 ??0CToolSingleton@@QAE@PAVCAnalysisData@@@Z ; CToolSingleton::CToolSingleton

; 638  : 	m_toolSingleton.InitializeAllTool();

  00070	8d 8b 98 00 00
	00		 lea	 ecx, DWORD PTR [ebx+152]

; 30   : 	m_toolSingleton(&m_analysisData)

  00076	c6 45 fc 01	 mov	 BYTE PTR __$EHRec$[ebp+8], 1

; 638  : 	m_toolSingleton.InitializeAllTool();

  0007a	e8 00 00 00 00	 call	 ?InitializeAllTool@CToolSingleton@@QAEXXZ ; CToolSingleton::InitializeAllTool

; 639  : 	m_analysisData.SetCurrentToolType(CAnalysis::EN_ANALYSIS_NONE);

  0007f	6a ff		 push	 -1
  00081	8b cf		 mov	 ecx, edi
  00083	e8 00 00 00 00	 call	 ?SetCurrentToolType@CAnalysisData@@QAEXW4TOOLTYPE@CAnalysis@@@Z ; CAnalysisData::SetCurrentToolType

; 32   : 	Initialize();	
; 33   : 	m_analysisData.SetParent(pParent);	 

  00088	ff 75 08	 push	 DWORD PTR _pParent$[ebp]
  0008b	8b cf		 mov	 ecx, edi

; 640  : 	m_pTool = NULL;

  0008d	c7 43 18 00 00
	00 00		 mov	 DWORD PTR [ebx+24], 0

; 641  : 	m_pSelectedElement = NULL;

  00094	c7 83 94 00 00
	00 00 00 00 00	 mov	 DWORD PTR [ebx+148], 0

; 32   : 	Initialize();	
; 33   : 	m_analysisData.SetParent(pParent);	 

  0009e	e8 00 00 00 00	 call	 ?SetParent@CAnalysisData@@QAEXPAVCWnd@@@Z ; CAnalysisData::SetParent

; 34   : 	m_ptOldLBtnUp = CPoint(-1,-1);

  000a3	c7 43 08 ff ff
	ff ff		 mov	 DWORD PTR [ebx+8], -1

; 35   : 	m_ptOldMouse = CPoint(-1,-1);
; 36   : 	m_pIChartOCX = NULL;
; 37   : }

  000aa	8b c3		 mov	 eax, ebx
  000ac	c7 43 0c ff ff
	ff ff		 mov	 DWORD PTR [ebx+12], -1
  000b3	c7 43 10 ff ff
	ff ff		 mov	 DWORD PTR [ebx+16], -1
  000ba	c7 43 14 ff ff
	ff ff		 mov	 DWORD PTR [ebx+20], -1
  000c1	c7 43 04 00 00
	00 00		 mov	 DWORD PTR [ebx+4], 0
  000c8	8b 4d f4	 mov	 ecx, DWORD PTR __$EHRec$[ebp]
  000cb	64 89 0d 00 00
	00 00		 mov	 DWORD PTR fs:0, ecx
  000d2	59		 pop	 ecx
  000d3	5f		 pop	 edi
  000d4	5e		 pop	 esi
  000d5	5b		 pop	 ebx
  000d6	8b e5		 mov	 esp, ebp
  000d8	5d		 pop	 ebp
  000d9	c2 0c 00	 ret	 12			; 0000000cH
_TEXT	ENDS
;	COMDAT text$x
text$x	SEGMENT
__unwindfunclet$??0CMainToolImplementation@@QAE@PAVCWnd@@PAUHWND__@@W4CHART_MODE@CChartInfo@@@Z$0:
  00000	8b 4d f0	 mov	 ecx, DWORD PTR _this$[ebp]
  00003	83 c1 1c	 add	 ecx, 28			; 0000001cH
  00006	e9 00 00 00 00	 jmp	 ??1CAnalysisData@@QAE@XZ ; CAnalysisData::~CAnalysisData
__unwindfunclet$??0CMainToolImplementation@@QAE@PAVCWnd@@PAUHWND__@@W4CHART_MODE@CChartInfo@@@Z$1:
  0000b	8b 4d f0	 mov	 ecx, DWORD PTR _this$[ebp]
  0000e	81 c1 98 00 00
	00		 add	 ecx, 152		; 00000098H
  00014	e9 00 00 00 00	 jmp	 ??1CToolSingleton@@QAE@XZ ; CToolSingleton::~CToolSingleton
  00019	cc		 int	 3
  0001a	cc		 int	 3
  0001b	cc		 int	 3
  0001c	cc		 int	 3
  0001d	cc		 int	 3
__ehhandler$??0CMainToolImplementation@@QAE@PAVCWnd@@PAUHWND__@@W4CHART_MODE@CChartInfo@@@Z:
  0001e	90		 npad	 1
  0001f	90		 npad	 1
  00020	8b 54 24 08	 mov	 edx, DWORD PTR [esp+8]
  00024	8d 42 0c	 lea	 eax, DWORD PTR [edx+12]
  00027	8b 4a ec	 mov	 ecx, DWORD PTR [edx-20]
  0002a	33 c8		 xor	 ecx, eax
  0002c	e8 00 00 00 00	 call	 @__security_check_cookie@4
  00031	b8 00 00 00 00	 mov	 eax, OFFSET __ehfuncinfo$??0CMainToolImplementation@@QAE@PAVCWnd@@PAUHWND__@@W4CHART_MODE@CChartInfo@@@Z
  00036	e9 00 00 00 00	 jmp	 ___CxxFrameHandler3
text$x	ENDS
??0CMainToolImplementation@@QAE@PAVCWnd@@PAUHWND__@@W4CHART_MODE@CChartInfo@@@Z ENDP ; CMainToolImplementation::CMainToolImplementation
; Function compile flags: /Ogtp
; File D:\git\src\IBK\IBK_DRFN\ProjSrc\SrcChartEx\ChartAddIn\ChartAnalysisToolAddIn\AnalysisTool\MainToolImplementation.cpp
;	COMDAT ?DoCallYou@CCanCallYou@CMainToolImplementation@@UAGJHJ@Z
_TEXT	SEGMENT
_this$ = 8						; size = 4
_nCallType$ = 12					; size = 4
_dwData$ = 16						; size = 4
?DoCallYou@CCanCallYou@CMainToolImplementation@@UAGJHJ@Z PROC ; CMainToolImplementation::CCanCallYou::DoCallYou, COMDAT

; 865  : {

  00000	55		 push	 ebp
  00001	8b ec		 mov	 ebp, esp

; 866  : 	MYMETHOD_PROLOGUE(CMainToolImplementation, CanCallYou)
; 867  : 
; 868  : 	if(nCallType==ICCYT_changeThick)

  00003	83 7d 0c 01	 cmp	 DWORD PTR _nCallType$[ebp], 1
  00007	75 23		 jne	 SHORT $LN4@DoCallYou

; 869  : 	{
; 870  : 		pThis->m_analysisData.GetElementTree().ChangeAllElementsThick(pThis->m_pSelectedElement->GetElementType(), (int)dwData);

  00009	56		 push	 esi
  0000a	8b 75 08	 mov	 esi, DWORD PTR _this$[ebp]
  0000d	ff 75 10	 push	 DWORD PTR _dwData$[ebp]
  00010	8b 8e 94 00 00
	00		 mov	 ecx, DWORD PTR [esi+148]
  00016	8b 01		 mov	 eax, DWORD PTR [ecx]
  00018	ff 50 04	 call	 DWORD PTR [eax+4]
  0001b	50		 push	 eax
  0001c	8d 4e 1c	 lea	 ecx, DWORD PTR [esi+28]
  0001f	e8 00 00 00 00	 call	 ?GetElementTree@CAnalysisData@@QAEAAVCElementTree@@XZ ; CAnalysisData::GetElementTree
  00024	8b c8		 mov	 ecx, eax
  00026	e8 00 00 00 00	 call	 ?ChangeAllElementsThick@CElementTree@@QAEXHH@Z ; CElementTree::ChangeAllElementsThick

; 871  : 	}
; 872  : 	return S_OK;

  0002b	5e		 pop	 esi
$LN4@DoCallYou:

; 873  : }

  0002c	33 c0		 xor	 eax, eax
  0002e	5d		 pop	 ebp
  0002f	c2 0c 00	 ret	 12			; 0000000cH
?DoCallYou@CCanCallYou@CMainToolImplementation@@UAGJHJ@Z ENDP ; CMainToolImplementation::CCanCallYou::DoCallYou
_TEXT	ENDS
; Function compile flags: /Ogtp
; File C:\Program Files (x86)\Microsoft Visual Studio\2019\Community\VC\Tools\MSVC\14.29.30133\include\deque
; File C:\Program Files (x86)\Microsoft Visual Studio\2019\Community\VC\Tools\MSVC\14.29.30133\include\utility
; File C:\Program Files (x86)\Microsoft Visual Studio\2019\Community\VC\Tools\MSVC\14.29.30133\include\xmemory
; File C:\Program Files (x86)\Microsoft Visual Studio\2019\Community\VC\Tools\MSVC\14.29.30133\include\utility
; File C:\Program Files (x86)\Microsoft Visual Studio\2019\Community\VC\Tools\MSVC\14.29.30133\include\xmemory
;	COMDAT ??1CElementPointList@@QAE@XZ
_TEXT	SEGMENT
??1CElementPointList@@QAE@XZ PROC			; CElementPointList::~CElementPointList, COMDAT
; _this$ = ecx
; File C:\Program Files (x86)\Microsoft Visual Studio\2019\Community\VC\Tools\MSVC\14.29.30133\include\deque

; 1332 :         _Tidy();

  00000	56		 push	 esi
  00001	8d 71 08	 lea	 esi, DWORD PTR [ecx+8]
  00004	8b ce		 mov	 ecx, esi
  00006	e8 00 00 00 00	 call	 ?_Tidy@?$deque@PAVCCoordinate@@V?$allocator@PAVCCoordinate@@@std@@@std@@AAEXXZ ; std::deque<CCoordinate *,std::allocator<CCoordinate *> >::_Tidy

; 861  :         _Tidy();

  0000b	8b ce		 mov	 ecx, esi
  0000d	e8 00 00 00 00	 call	 ?_Tidy@?$deque@PAVCCoordinate@@V?$allocator@PAVCCoordinate@@@std@@@std@@AAEXXZ ; std::deque<CCoordinate *,std::allocator<CCoordinate *> >::_Tidy
; File C:\Program Files (x86)\Microsoft Visual Studio\2019\Community\VC\Tools\MSVC\14.29.30133\include\utility

; 602  :     _Ty _Old_val = static_cast<_Ty&&>(_Val);

  00012	8b 06		 mov	 eax, DWORD PTR [esi]
; File C:\Program Files (x86)\Microsoft Visual Studio\2019\Community\VC\Tools\MSVC\14.29.30133\include\xmemory

; 255  :         ::operator delete(_Ptr, _Bytes);

  00014	6a 08		 push	 8
  00016	50		 push	 eax
; File C:\Program Files (x86)\Microsoft Visual Studio\2019\Community\VC\Tools\MSVC\14.29.30133\include\utility

; 603  :     _Val         = static_cast<_Other&&>(_New_val);

  00017	c7 06 00 00 00
	00		 mov	 DWORD PTR [esi], 0
; File C:\Program Files (x86)\Microsoft Visual Studio\2019\Community\VC\Tools\MSVC\14.29.30133\include\xmemory

; 255  :         ::operator delete(_Ptr, _Bytes);

  0001d	e8 00 00 00 00	 call	 ??3@YAXPAXI@Z		; operator delete
  00022	83 c4 08	 add	 esp, 8
  00025	5e		 pop	 esi
  00026	c3		 ret	 0
??1CElementPointList@@QAE@XZ ENDP			; CElementPointList::~CElementPointList
_TEXT	ENDS
; Function compile flags: /Ogtp
; File C:\Program Files (x86)\Microsoft Visual Studio\2019\Community\VC\Tools\MSVC\14.29.30133\include\deque
; File C:\Program Files (x86)\Microsoft Visual Studio\2019\Community\VC\Tools\MSVC\14.29.30133\include\xmemory
; File C:\Program Files (x86)\Microsoft Visual Studio\2019\Community\VC\Tools\MSVC\14.29.30133\include\deque
; File C:\Program Files (x86)\Microsoft Visual Studio\2019\Community\VC\Tools\MSVC\14.29.30133\include\xmemory
; File C:\Program Files (x86)\Microsoft Visual Studio\2019\Community\VC\Tools\MSVC\14.29.30133\include\deque
; File C:\Program Files (x86)\Microsoft Visual Studio\2019\Community\VC\Tools\MSVC\14.29.30133\include\xmemory
; File C:\Program Files (x86)\Microsoft Visual Studio\2019\Community\VC\Tools\MSVC\14.29.30133\include\deque
;	COMDAT ?_Tidy@?$deque@PAVCCoordinate@@V?$allocator@PAVCCoordinate@@@std@@@std@@AAEXXZ
_TEXT	SEGMENT
?_Tidy@?$deque@PAVCCoordinate@@V?$allocator@PAVCCoordinate@@@std@@@std@@AAEXXZ PROC ; std::deque<CCoordinate *,std::allocator<CCoordinate *> >::_Tidy, COMDAT
; _this$ = ecx

; 1471 :     void _Tidy() noexcept { // free all storage

  00000	57		 push	 edi
  00001	8b f9		 mov	 edi, ecx

; 1002 :         return _Mysize() == 0;

  00003	8b 4f 10	 mov	 ecx, DWORD PTR [edi+16]
  00006	85 c9		 test	 ecx, ecx

; 1472 :         _Orphan_all();
; 1473 : 
; 1474 :         _Alpty _Almap(_Getal());
; 1475 :         while (!empty()) {

  00008	74 15		 je	 SHORT $LN60@Tidy
  0000a	66 0f 1f 44 00
	00		 npad	 6
$LL2@Tidy:

; 1146 :         if (--_Mysize() == 0) {

  00010	8d 41 ff	 lea	 eax, DWORD PTR [ecx-1]
  00013	89 47 10	 mov	 DWORD PTR [edi+16], eax
  00016	8b c8		 mov	 ecx, eax
  00018	85 c0		 test	 eax, eax
  0001a	75 f4		 jne	 SHORT $LL2@Tidy

; 1147 :             _Myoff() = 0;

  0001c	89 47 0c	 mov	 DWORD PTR [edi+12], eax
$LN60@Tidy:
  0001f	56		 push	 esi

; 1479 :         for (size_type _Block = _Mapsize(); 0 < _Block;) { // free storage for a block and destroy pointer

  00020	8b 77 08	 mov	 esi, DWORD PTR [edi+8]
  00023	85 f6		 test	 esi, esi
  00025	74 1a		 je	 SHORT $LN5@Tidy
$LL4@Tidy:

; 1480 :             if (_Map()[--_Block]) { // free block and destroy its pointer

  00027	8b 47 04	 mov	 eax, DWORD PTR [edi+4]
  0002a	4e		 dec	 esi
  0002b	8b 04 b0	 mov	 eax, DWORD PTR [eax+esi*4]
  0002e	85 c0		 test	 eax, eax
  00030	74 0b		 je	 SHORT $LN23@Tidy
; File C:\Program Files (x86)\Microsoft Visual Studio\2019\Community\VC\Tools\MSVC\14.29.30133\include\xmemory

; 255  :         ::operator delete(_Ptr, _Bytes);

  00032	6a 10		 push	 16			; 00000010H
  00034	50		 push	 eax
  00035	e8 00 00 00 00	 call	 ??3@YAXPAXI@Z		; operator delete
  0003a	83 c4 08	 add	 esp, 8
$LN23@Tidy:
; File C:\Program Files (x86)\Microsoft Visual Studio\2019\Community\VC\Tools\MSVC\14.29.30133\include\deque

; 1479 :         for (size_type _Block = _Mapsize(); 0 < _Block;) { // free storage for a block and destroy pointer

  0003d	85 f6		 test	 esi, esi
  0003f	75 e6		 jne	 SHORT $LL4@Tidy
$LN5@Tidy:

; 1481 :                 _Getal().deallocate(_Map()[_Block], _Block_size);
; 1482 :                 _Destroy_in_place(_Map()[_Block]);
; 1483 :             }
; 1484 :         }
; 1485 : 
; 1486 :         if (_Map() != _Mapptr()) {

  00041	8b 47 04	 mov	 eax, DWORD PTR [edi+4]
  00044	5e		 pop	 esi
  00045	85 c0		 test	 eax, eax
  00047	74 2a		 je	 SHORT $LN41@Tidy
; File C:\Program Files (x86)\Microsoft Visual Studio\2019\Community\VC\Tools\MSVC\14.29.30133\include\xmemory

; 797  :         _Deallocate<_New_alignof<_Ty>>(_Ptr, sizeof(_Ty) * _Count);

  00049	8b 4f 08	 mov	 ecx, DWORD PTR [edi+8]
  0004c	c1 e1 02	 shl	 ecx, 2

; 251  :         if (_Bytes >= _Big_allocation_threshold) { // boost the alignment of big allocations to help autovectorization

  0004f	81 f9 00 10 00
	00		 cmp	 ecx, 4096		; 00001000H
  00055	72 12		 jb	 SHORT $LN51@Tidy

; 150  :     const uintptr_t _Ptr_container   = _Ptr_user[-1];

  00057	8b 50 fc	 mov	 edx, DWORD PTR [eax-4]
  0005a	83 c1 23	 add	 ecx, 35			; 00000023H

; 151  : 
; 152  :     // If the following asserts, it likely means that we are performing
; 153  :     // an aligned delete on memory coming from an unaligned allocation.
; 154  :     _STL_ASSERT(_Ptr_user[-2] == _Big_allocation_sentinel, "invalid argument");
; 155  : 
; 156  :     // Extra paranoia on aligned allocation/deallocation; ensure _Ptr_container is
; 157  :     // in range [_Min_back_shift, _Non_user_size]
; 158  : #ifdef _DEBUG
; 159  :     constexpr uintptr_t _Min_back_shift = 2 * sizeof(void*);
; 160  : #else // ^^^ _DEBUG ^^^ // vvv !_DEBUG vvv
; 161  :     constexpr uintptr_t _Min_back_shift = sizeof(void*);
; 162  : #endif // _DEBUG
; 163  :     const uintptr_t _Back_shift = reinterpret_cast<uintptr_t>(_Ptr) - _Ptr_container;

  0005d	2b c2		 sub	 eax, edx

; 164  :     _STL_VERIFY(_Back_shift >= _Min_back_shift && _Back_shift <= _Non_user_size, "invalid argument");

  0005f	83 c0 fc	 add	 eax, -4			; fffffffcH
  00062	83 f8 1f	 cmp	 eax, 31			; 0000001fH
  00065	77 1c		 ja	 SHORT $LN48@Tidy

; 165  :     _Ptr = reinterpret_cast<void*>(_Ptr_container);

  00067	8b c2		 mov	 eax, edx
$LN51@Tidy:

; 255  :         ::operator delete(_Ptr, _Bytes);

  00069	51		 push	 ecx
  0006a	50		 push	 eax
  0006b	e8 00 00 00 00	 call	 ??3@YAXPAXI@Z		; operator delete
  00070	83 c4 08	 add	 esp, 8
$LN41@Tidy:
; File C:\Program Files (x86)\Microsoft Visual Studio\2019\Community\VC\Tools\MSVC\14.29.30133\include\deque

; 1490 :         _Mapsize() = 0;

  00073	c7 47 08 00 00
	00 00		 mov	 DWORD PTR [edi+8], 0

; 1491 :         _Map()     = _Mapptr();

  0007a	c7 47 04 00 00
	00 00		 mov	 DWORD PTR [edi+4], 0
  00081	5f		 pop	 edi

; 1492 :     }

  00082	c3		 ret	 0
$LN48@Tidy:
; File C:\Program Files (x86)\Microsoft Visual Studio\2019\Community\VC\Tools\MSVC\14.29.30133\include\xmemory

; 164  :     _STL_VERIFY(_Back_shift >= _Min_back_shift && _Back_shift <= _Non_user_size, "invalid argument");

  00083	ff 15 00 00 00
	00		 call	 DWORD PTR __imp___invalid_parameter_noinfo_noreturn
$LN62@Tidy:
  00089	cc		 int	 3
?_Tidy@?$deque@PAVCCoordinate@@V?$allocator@PAVCCoordinate@@@std@@@std@@AAEXXZ ENDP ; std::deque<CCoordinate *,std::allocator<CCoordinate *> >::_Tidy
_TEXT	ENDS
; Function compile flags: /Ogtp
;	COMDAT ??1CSelectedElementDrawingData@@QAE@XZ
_TEXT	SEGMENT
??1CSelectedElementDrawingData@@QAE@XZ PROC		; CSelectedElementDrawingData::~CSelectedElementDrawingData, COMDAT
; _this$ = ecx
  00000	56		 push	 esi
  00001	8b f1		 mov	 esi, ecx
  00003	8d 8e 84 00 00
	00		 lea	 ecx, DWORD PTR [esi+132]
  00009	ff 15 00 00 00
	00		 call	 DWORD PTR __imp_??1?$CStringT@DV?$StrTraitMFC_DLL@DV?$ChTraitsCRT@D@ATL@@@@@ATL@@QAE@XZ
  0000f	8d 4e 08	 lea	 ecx, DWORD PTR [esi+8]
  00012	5e		 pop	 esi
  00013	e9 00 00 00 00	 jmp	 ??1CCoordinateCalculatorData@@QAE@XZ ; CCoordinateCalculatorData::~CCoordinateCalculatorData
??1CSelectedElementDrawingData@@QAE@XZ ENDP		; CSelectedElementDrawingData::~CSelectedElementDrawingData
_TEXT	ENDS
; Function compile flags: /Ogtp
; File C:\Program Files (x86)\Microsoft Visual Studio\2019\Community\VC\Tools\MSVC\14.29.30133\include\deque
; File C:\Program Files (x86)\Microsoft Visual Studio\2019\Community\VC\Tools\MSVC\14.29.30133\include\xmemory
; File C:\Program Files (x86)\Microsoft Visual Studio\2019\Community\VC\Tools\MSVC\14.29.30133\include\deque
; File C:\Program Files (x86)\Microsoft Visual Studio\2019\Community\VC\Tools\MSVC\14.29.30133\include\xmemory
; File C:\Program Files (x86)\Microsoft Visual Studio\2019\Community\VC\Tools\MSVC\14.29.30133\include\deque
; File C:\Program Files (x86)\Microsoft Visual Studio\2019\Community\VC\Tools\MSVC\14.29.30133\include\xmemory
; File C:\Program Files (x86)\Microsoft Visual Studio\2019\Community\VC\Tools\MSVC\14.29.30133\include\deque
;	COMDAT ?_Tidy@?$deque@PAVCUndo_Redo_Info@@V?$allocator@PAVCUndo_Redo_Info@@@std@@@std@@AAEXXZ
_TEXT	SEGMENT
?_Tidy@?$deque@PAVCUndo_Redo_Info@@V?$allocator@PAVCUndo_Redo_Info@@@std@@@std@@AAEXXZ PROC ; std::deque<CUndo_Redo_Info *,std::allocator<CUndo_Redo_Info *> >::_Tidy, COMDAT
; _this$ = ecx

; 1471 :     void _Tidy() noexcept { // free all storage

  00000	57		 push	 edi
  00001	8b f9		 mov	 edi, ecx

; 1002 :         return _Mysize() == 0;

  00003	8b 4f 10	 mov	 ecx, DWORD PTR [edi+16]
  00006	85 c9		 test	 ecx, ecx

; 1472 :         _Orphan_all();
; 1473 : 
; 1474 :         _Alpty _Almap(_Getal());
; 1475 :         while (!empty()) {

  00008	74 15		 je	 SHORT $LN60@Tidy
  0000a	66 0f 1f 44 00
	00		 npad	 6
$LL2@Tidy:

; 1146 :         if (--_Mysize() == 0) {

  00010	8d 41 ff	 lea	 eax, DWORD PTR [ecx-1]
  00013	89 47 10	 mov	 DWORD PTR [edi+16], eax
  00016	8b c8		 mov	 ecx, eax
  00018	85 c0		 test	 eax, eax
  0001a	75 f4		 jne	 SHORT $LL2@Tidy

; 1147 :             _Myoff() = 0;

  0001c	89 47 0c	 mov	 DWORD PTR [edi+12], eax
$LN60@Tidy:
  0001f	56		 push	 esi

; 1479 :         for (size_type _Block = _Mapsize(); 0 < _Block;) { // free storage for a block and destroy pointer

  00020	8b 77 08	 mov	 esi, DWORD PTR [edi+8]
  00023	85 f6		 test	 esi, esi
  00025	74 1a		 je	 SHORT $LN5@Tidy
$LL4@Tidy:

; 1480 :             if (_Map()[--_Block]) { // free block and destroy its pointer

  00027	8b 47 04	 mov	 eax, DWORD PTR [edi+4]
  0002a	4e		 dec	 esi
  0002b	8b 04 b0	 mov	 eax, DWORD PTR [eax+esi*4]
  0002e	85 c0		 test	 eax, eax
  00030	74 0b		 je	 SHORT $LN23@Tidy
; File C:\Program Files (x86)\Microsoft Visual Studio\2019\Community\VC\Tools\MSVC\14.29.30133\include\xmemory

; 255  :         ::operator delete(_Ptr, _Bytes);

  00032	6a 10		 push	 16			; 00000010H
  00034	50		 push	 eax
  00035	e8 00 00 00 00	 call	 ??3@YAXPAXI@Z		; operator delete
  0003a	83 c4 08	 add	 esp, 8
$LN23@Tidy:
; File C:\Program Files (x86)\Microsoft Visual Studio\2019\Community\VC\Tools\MSVC\14.29.30133\include\deque

; 1479 :         for (size_type _Block = _Mapsize(); 0 < _Block;) { // free storage for a block and destroy pointer

  0003d	85 f6		 test	 esi, esi
  0003f	75 e6		 jne	 SHORT $LL4@Tidy
$LN5@Tidy:

; 1481 :                 _Getal().deallocate(_Map()[_Block], _Block_size);
; 1482 :                 _Destroy_in_place(_Map()[_Block]);
; 1483 :             }
; 1484 :         }
; 1485 : 
; 1486 :         if (_Map() != _Mapptr()) {

  00041	8b 47 04	 mov	 eax, DWORD PTR [edi+4]
  00044	5e		 pop	 esi
  00045	85 c0		 test	 eax, eax
  00047	74 2a		 je	 SHORT $LN41@Tidy
; File C:\Program Files (x86)\Microsoft Visual Studio\2019\Community\VC\Tools\MSVC\14.29.30133\include\xmemory

; 797  :         _Deallocate<_New_alignof<_Ty>>(_Ptr, sizeof(_Ty) * _Count);

  00049	8b 4f 08	 mov	 ecx, DWORD PTR [edi+8]
  0004c	c1 e1 02	 shl	 ecx, 2

; 251  :         if (_Bytes >= _Big_allocation_threshold) { // boost the alignment of big allocations to help autovectorization

  0004f	81 f9 00 10 00
	00		 cmp	 ecx, 4096		; 00001000H
  00055	72 12		 jb	 SHORT $LN51@Tidy

; 150  :     const uintptr_t _Ptr_container   = _Ptr_user[-1];

  00057	8b 50 fc	 mov	 edx, DWORD PTR [eax-4]
  0005a	83 c1 23	 add	 ecx, 35			; 00000023H

; 151  : 
; 152  :     // If the following asserts, it likely means that we are performing
; 153  :     // an aligned delete on memory coming from an unaligned allocation.
; 154  :     _STL_ASSERT(_Ptr_user[-2] == _Big_allocation_sentinel, "invalid argument");
; 155  : 
; 156  :     // Extra paranoia on aligned allocation/deallocation; ensure _Ptr_container is
; 157  :     // in range [_Min_back_shift, _Non_user_size]
; 158  : #ifdef _DEBUG
; 159  :     constexpr uintptr_t _Min_back_shift = 2 * sizeof(void*);
; 160  : #else // ^^^ _DEBUG ^^^ // vvv !_DEBUG vvv
; 161  :     constexpr uintptr_t _Min_back_shift = sizeof(void*);
; 162  : #endif // _DEBUG
; 163  :     const uintptr_t _Back_shift = reinterpret_cast<uintptr_t>(_Ptr) - _Ptr_container;

  0005d	2b c2		 sub	 eax, edx

; 164  :     _STL_VERIFY(_Back_shift >= _Min_back_shift && _Back_shift <= _Non_user_size, "invalid argument");

  0005f	83 c0 fc	 add	 eax, -4			; fffffffcH
  00062	83 f8 1f	 cmp	 eax, 31			; 0000001fH
  00065	77 1c		 ja	 SHORT $LN48@Tidy

; 165  :     _Ptr = reinterpret_cast<void*>(_Ptr_container);

  00067	8b c2		 mov	 eax, edx
$LN51@Tidy:

; 255  :         ::operator delete(_Ptr, _Bytes);

  00069	51		 push	 ecx
  0006a	50		 push	 eax
  0006b	e8 00 00 00 00	 call	 ??3@YAXPAXI@Z		; operator delete
  00070	83 c4 08	 add	 esp, 8
$LN41@Tidy:
; File C:\Program Files (x86)\Microsoft Visual Studio\2019\Community\VC\Tools\MSVC\14.29.30133\include\deque

; 1490 :         _Mapsize() = 0;

  00073	c7 47 08 00 00
	00 00		 mov	 DWORD PTR [edi+8], 0

; 1491 :         _Map()     = _Mapptr();

  0007a	c7 47 04 00 00
	00 00		 mov	 DWORD PTR [edi+4], 0
  00081	5f		 pop	 edi

; 1492 :     }

  00082	c3		 ret	 0
$LN48@Tidy:
; File C:\Program Files (x86)\Microsoft Visual Studio\2019\Community\VC\Tools\MSVC\14.29.30133\include\xmemory

; 164  :     _STL_VERIFY(_Back_shift >= _Min_back_shift && _Back_shift <= _Non_user_size, "invalid argument");

  00083	ff 15 00 00 00
	00		 call	 DWORD PTR __imp___invalid_parameter_noinfo_noreturn
$LN62@Tidy:
  00089	cc		 int	 3
?_Tidy@?$deque@PAVCUndo_Redo_Info@@V?$allocator@PAVCUndo_Redo_Info@@@std@@@std@@AAEXXZ ENDP ; std::deque<CUndo_Redo_Info *,std::allocator<CUndo_Redo_Info *> >::_Tidy
_TEXT	ENDS
; Function compile flags: /Ogtp
; File D:\git\src\IBK\IBK_DRFN\ProjSrc\SrcChartEx\ChartAddIn\ChartAnalysisToolAddIn\Include_Chart\DequeList.h
; File C:\Program Files (x86)\Microsoft Visual Studio\2019\Community\VC\Tools\MSVC\14.29.30133\include\deque
; File C:\Program Files (x86)\Microsoft Visual Studio\2019\Community\VC\Tools\MSVC\14.29.30133\include\utility
; File C:\Program Files (x86)\Microsoft Visual Studio\2019\Community\VC\Tools\MSVC\14.29.30133\include\xmemory
; File C:\Program Files (x86)\Microsoft Visual Studio\2019\Community\VC\Tools\MSVC\14.29.30133\include\utility
; File C:\Program Files (x86)\Microsoft Visual Studio\2019\Community\VC\Tools\MSVC\14.29.30133\include\xmemory
; File D:\git\src\IBK\IBK_DRFN\ProjSrc\SrcChartEx\ChartAddIn\ChartAnalysisToolAddIn\Include_Chart\DequeList.h
;	COMDAT ??1?$CDequePointerList@VCUndo_Redo_Info@@@@QAE@XZ
_TEXT	SEGMENT
??1?$CDequePointerList@VCUndo_Redo_Info@@@@QAE@XZ PROC	; CDequePointerList<CUndo_Redo_Info>::~CDequePointerList<CUndo_Redo_Info>, COMDAT
; _this$ = ecx

; 171  : 	~CDequePointerList() { m_deque.clear(); };

  00000	56		 push	 esi
  00001	8b f1		 mov	 esi, ecx
; File C:\Program Files (x86)\Microsoft Visual Studio\2019\Community\VC\Tools\MSVC\14.29.30133\include\deque

; 1332 :         _Tidy();

  00003	e8 00 00 00 00	 call	 ?_Tidy@?$deque@PAVCUndo_Redo_Info@@V?$allocator@PAVCUndo_Redo_Info@@@std@@@std@@AAEXXZ ; std::deque<CUndo_Redo_Info *,std::allocator<CUndo_Redo_Info *> >::_Tidy

; 861  :         _Tidy();

  00008	8b ce		 mov	 ecx, esi
  0000a	e8 00 00 00 00	 call	 ?_Tidy@?$deque@PAVCUndo_Redo_Info@@V?$allocator@PAVCUndo_Redo_Info@@@std@@@std@@AAEXXZ ; std::deque<CUndo_Redo_Info *,std::allocator<CUndo_Redo_Info *> >::_Tidy
; File C:\Program Files (x86)\Microsoft Visual Studio\2019\Community\VC\Tools\MSVC\14.29.30133\include\utility

; 602  :     _Ty _Old_val = static_cast<_Ty&&>(_Val);

  0000f	8b 06		 mov	 eax, DWORD PTR [esi]
; File C:\Program Files (x86)\Microsoft Visual Studio\2019\Community\VC\Tools\MSVC\14.29.30133\include\xmemory

; 255  :         ::operator delete(_Ptr, _Bytes);

  00011	6a 08		 push	 8
  00013	50		 push	 eax
; File C:\Program Files (x86)\Microsoft Visual Studio\2019\Community\VC\Tools\MSVC\14.29.30133\include\utility

; 603  :     _Val         = static_cast<_Other&&>(_New_val);

  00014	c7 06 00 00 00
	00		 mov	 DWORD PTR [esi], 0
; File C:\Program Files (x86)\Microsoft Visual Studio\2019\Community\VC\Tools\MSVC\14.29.30133\include\xmemory

; 255  :         ::operator delete(_Ptr, _Bytes);

  0001a	e8 00 00 00 00	 call	 ??3@YAXPAXI@Z		; operator delete
  0001f	83 c4 08	 add	 esp, 8
  00022	5e		 pop	 esi
; File D:\git\src\IBK\IBK_DRFN\ProjSrc\SrcChartEx\ChartAddIn\ChartAnalysisToolAddIn\Include_Chart\DequeList.h

; 171  : 	~CDequePointerList() { m_deque.clear(); };

  00023	c3		 ret	 0
??1?$CDequePointerList@VCUndo_Redo_Info@@@@QAE@XZ ENDP	; CDequePointerList<CUndo_Redo_Info>::~CDequePointerList<CUndo_Redo_Info>
_TEXT	ENDS
; Function compile flags: /Ogtp
; File C:\Program Files (x86)\Microsoft Visual Studio\2019\Community\VC\Tools\MSVC\14.29.30133\include\deque
; File C:\Program Files (x86)\Microsoft Visual Studio\2019\Community\VC\Tools\MSVC\14.29.30133\include\xmemory
; File C:\Program Files (x86)\Microsoft Visual Studio\2019\Community\VC\Tools\MSVC\14.29.30133\include\deque
; File C:\Program Files (x86)\Microsoft Visual Studio\2019\Community\VC\Tools\MSVC\14.29.30133\include\xmemory
; File C:\Program Files (x86)\Microsoft Visual Studio\2019\Community\VC\Tools\MSVC\14.29.30133\include\deque
; File C:\Program Files (x86)\Microsoft Visual Studio\2019\Community\VC\Tools\MSVC\14.29.30133\include\xmemory
; File C:\Program Files (x86)\Microsoft Visual Studio\2019\Community\VC\Tools\MSVC\14.29.30133\include\deque
;	COMDAT ?_Tidy@?$deque@PAVCElement@@V?$allocator@PAVCElement@@@std@@@std@@AAEXXZ
_TEXT	SEGMENT
?_Tidy@?$deque@PAVCElement@@V?$allocator@PAVCElement@@@std@@@std@@AAEXXZ PROC ; std::deque<CElement *,std::allocator<CElement *> >::_Tidy, COMDAT
; _this$ = ecx

; 1471 :     void _Tidy() noexcept { // free all storage

  00000	57		 push	 edi
  00001	8b f9		 mov	 edi, ecx

; 1002 :         return _Mysize() == 0;

  00003	8b 4f 10	 mov	 ecx, DWORD PTR [edi+16]
  00006	85 c9		 test	 ecx, ecx

; 1472 :         _Orphan_all();
; 1473 : 
; 1474 :         _Alpty _Almap(_Getal());
; 1475 :         while (!empty()) {

  00008	74 15		 je	 SHORT $LN60@Tidy
  0000a	66 0f 1f 44 00
	00		 npad	 6
$LL2@Tidy:

; 1146 :         if (--_Mysize() == 0) {

  00010	8d 41 ff	 lea	 eax, DWORD PTR [ecx-1]
  00013	89 47 10	 mov	 DWORD PTR [edi+16], eax
  00016	8b c8		 mov	 ecx, eax
  00018	85 c0		 test	 eax, eax
  0001a	75 f4		 jne	 SHORT $LL2@Tidy

; 1147 :             _Myoff() = 0;

  0001c	89 47 0c	 mov	 DWORD PTR [edi+12], eax
$LN60@Tidy:
  0001f	56		 push	 esi

; 1479 :         for (size_type _Block = _Mapsize(); 0 < _Block;) { // free storage for a block and destroy pointer

  00020	8b 77 08	 mov	 esi, DWORD PTR [edi+8]
  00023	85 f6		 test	 esi, esi
  00025	74 1a		 je	 SHORT $LN5@Tidy
$LL4@Tidy:

; 1480 :             if (_Map()[--_Block]) { // free block and destroy its pointer

  00027	8b 47 04	 mov	 eax, DWORD PTR [edi+4]
  0002a	4e		 dec	 esi
  0002b	8b 04 b0	 mov	 eax, DWORD PTR [eax+esi*4]
  0002e	85 c0		 test	 eax, eax
  00030	74 0b		 je	 SHORT $LN23@Tidy
; File C:\Program Files (x86)\Microsoft Visual Studio\2019\Community\VC\Tools\MSVC\14.29.30133\include\xmemory

; 255  :         ::operator delete(_Ptr, _Bytes);

  00032	6a 10		 push	 16			; 00000010H
  00034	50		 push	 eax
  00035	e8 00 00 00 00	 call	 ??3@YAXPAXI@Z		; operator delete
  0003a	83 c4 08	 add	 esp, 8
$LN23@Tidy:
; File C:\Program Files (x86)\Microsoft Visual Studio\2019\Community\VC\Tools\MSVC\14.29.30133\include\deque

; 1479 :         for (size_type _Block = _Mapsize(); 0 < _Block;) { // free storage for a block and destroy pointer

  0003d	85 f6		 test	 esi, esi
  0003f	75 e6		 jne	 SHORT $LL4@Tidy
$LN5@Tidy:

; 1481 :                 _Getal().deallocate(_Map()[_Block], _Block_size);
; 1482 :                 _Destroy_in_place(_Map()[_Block]);
; 1483 :             }
; 1484 :         }
; 1485 : 
; 1486 :         if (_Map() != _Mapptr()) {

  00041	8b 47 04	 mov	 eax, DWORD PTR [edi+4]
  00044	5e		 pop	 esi
  00045	85 c0		 test	 eax, eax
  00047	74 2a		 je	 SHORT $LN41@Tidy
; File C:\Program Files (x86)\Microsoft Visual Studio\2019\Community\VC\Tools\MSVC\14.29.30133\include\xmemory

; 797  :         _Deallocate<_New_alignof<_Ty>>(_Ptr, sizeof(_Ty) * _Count);

  00049	8b 4f 08	 mov	 ecx, DWORD PTR [edi+8]
  0004c	c1 e1 02	 shl	 ecx, 2

; 251  :         if (_Bytes >= _Big_allocation_threshold) { // boost the alignment of big allocations to help autovectorization

  0004f	81 f9 00 10 00
	00		 cmp	 ecx, 4096		; 00001000H
  00055	72 12		 jb	 SHORT $LN51@Tidy

; 150  :     const uintptr_t _Ptr_container   = _Ptr_user[-1];

  00057	8b 50 fc	 mov	 edx, DWORD PTR [eax-4]
  0005a	83 c1 23	 add	 ecx, 35			; 00000023H

; 151  : 
; 152  :     // If the following asserts, it likely means that we are performing
; 153  :     // an aligned delete on memory coming from an unaligned allocation.
; 154  :     _STL_ASSERT(_Ptr_user[-2] == _Big_allocation_sentinel, "invalid argument");
; 155  : 
; 156  :     // Extra paranoia on aligned allocation/deallocation; ensure _Ptr_container is
; 157  :     // in range [_Min_back_shift, _Non_user_size]
; 158  : #ifdef _DEBUG
; 159  :     constexpr uintptr_t _Min_back_shift = 2 * sizeof(void*);
; 160  : #else // ^^^ _DEBUG ^^^ // vvv !_DEBUG vvv
; 161  :     constexpr uintptr_t _Min_back_shift = sizeof(void*);
; 162  : #endif // _DEBUG
; 163  :     const uintptr_t _Back_shift = reinterpret_cast<uintptr_t>(_Ptr) - _Ptr_container;

  0005d	2b c2		 sub	 eax, edx

; 164  :     _STL_VERIFY(_Back_shift >= _Min_back_shift && _Back_shift <= _Non_user_size, "invalid argument");

  0005f	83 c0 fc	 add	 eax, -4			; fffffffcH
  00062	83 f8 1f	 cmp	 eax, 31			; 0000001fH
  00065	77 1c		 ja	 SHORT $LN48@Tidy

; 165  :     _Ptr = reinterpret_cast<void*>(_Ptr_container);

  00067	8b c2		 mov	 eax, edx
$LN51@Tidy:

; 255  :         ::operator delete(_Ptr, _Bytes);

  00069	51		 push	 ecx
  0006a	50		 push	 eax
  0006b	e8 00 00 00 00	 call	 ??3@YAXPAXI@Z		; operator delete
  00070	83 c4 08	 add	 esp, 8
$LN41@Tidy:
; File C:\Program Files (x86)\Microsoft Visual Studio\2019\Community\VC\Tools\MSVC\14.29.30133\include\deque

; 1490 :         _Mapsize() = 0;

  00073	c7 47 08 00 00
	00 00		 mov	 DWORD PTR [edi+8], 0

; 1491 :         _Map()     = _Mapptr();

  0007a	c7 47 04 00 00
	00 00		 mov	 DWORD PTR [edi+4], 0
  00081	5f		 pop	 edi

; 1492 :     }

  00082	c3		 ret	 0
$LN48@Tidy:
; File C:\Program Files (x86)\Microsoft Visual Studio\2019\Community\VC\Tools\MSVC\14.29.30133\include\xmemory

; 164  :     _STL_VERIFY(_Back_shift >= _Min_back_shift && _Back_shift <= _Non_user_size, "invalid argument");

  00083	ff 15 00 00 00
	00		 call	 DWORD PTR __imp___invalid_parameter_noinfo_noreturn
$LN62@Tidy:
  00089	cc		 int	 3
?_Tidy@?$deque@PAVCElement@@V?$allocator@PAVCElement@@@std@@@std@@AAEXXZ ENDP ; std::deque<CElement *,std::allocator<CElement *> >::_Tidy
_TEXT	ENDS
; Function compile flags: /Ogtp
; File D:\git\src\IBK\IBK_DRFN\ProjSrc\SrcChartEx\ChartAddIn\ChartAnalysisToolAddIn\Include_Chart\DequeList.h
; File C:\Program Files (x86)\Microsoft Visual Studio\2019\Community\VC\Tools\MSVC\14.29.30133\include\deque
; File C:\Program Files (x86)\Microsoft Visual Studio\2019\Community\VC\Tools\MSVC\14.29.30133\include\utility
; File C:\Program Files (x86)\Microsoft Visual Studio\2019\Community\VC\Tools\MSVC\14.29.30133\include\xmemory
; File C:\Program Files (x86)\Microsoft Visual Studio\2019\Community\VC\Tools\MSVC\14.29.30133\include\utility
; File C:\Program Files (x86)\Microsoft Visual Studio\2019\Community\VC\Tools\MSVC\14.29.30133\include\xmemory
; File D:\git\src\IBK\IBK_DRFN\ProjSrc\SrcChartEx\ChartAddIn\ChartAnalysisToolAddIn\Include_Chart\DequeList.h
;	COMDAT ??1?$CDequePointerList@VCElement@@@@QAE@XZ
_TEXT	SEGMENT
??1?$CDequePointerList@VCElement@@@@QAE@XZ PROC		; CDequePointerList<CElement>::~CDequePointerList<CElement>, COMDAT
; _this$ = ecx

; 171  : 	~CDequePointerList() { m_deque.clear(); };

  00000	56		 push	 esi
  00001	8b f1		 mov	 esi, ecx
; File C:\Program Files (x86)\Microsoft Visual Studio\2019\Community\VC\Tools\MSVC\14.29.30133\include\deque

; 1332 :         _Tidy();

  00003	e8 00 00 00 00	 call	 ?_Tidy@?$deque@PAVCElement@@V?$allocator@PAVCElement@@@std@@@std@@AAEXXZ ; std::deque<CElement *,std::allocator<CElement *> >::_Tidy

; 861  :         _Tidy();

  00008	8b ce		 mov	 ecx, esi
  0000a	e8 00 00 00 00	 call	 ?_Tidy@?$deque@PAVCElement@@V?$allocator@PAVCElement@@@std@@@std@@AAEXXZ ; std::deque<CElement *,std::allocator<CElement *> >::_Tidy
; File C:\Program Files (x86)\Microsoft Visual Studio\2019\Community\VC\Tools\MSVC\14.29.30133\include\utility

; 602  :     _Ty _Old_val = static_cast<_Ty&&>(_Val);

  0000f	8b 06		 mov	 eax, DWORD PTR [esi]
; File C:\Program Files (x86)\Microsoft Visual Studio\2019\Community\VC\Tools\MSVC\14.29.30133\include\xmemory

; 255  :         ::operator delete(_Ptr, _Bytes);

  00011	6a 08		 push	 8
  00013	50		 push	 eax
; File C:\Program Files (x86)\Microsoft Visual Studio\2019\Community\VC\Tools\MSVC\14.29.30133\include\utility

; 603  :     _Val         = static_cast<_Other&&>(_New_val);

  00014	c7 06 00 00 00
	00		 mov	 DWORD PTR [esi], 0
; File C:\Program Files (x86)\Microsoft Visual Studio\2019\Community\VC\Tools\MSVC\14.29.30133\include\xmemory

; 255  :         ::operator delete(_Ptr, _Bytes);

  0001a	e8 00 00 00 00	 call	 ??3@YAXPAXI@Z		; operator delete
  0001f	83 c4 08	 add	 esp, 8
  00022	5e		 pop	 esi
; File D:\git\src\IBK\IBK_DRFN\ProjSrc\SrcChartEx\ChartAddIn\ChartAnalysisToolAddIn\Include_Chart\DequeList.h

; 171  : 	~CDequePointerList() { m_deque.clear(); };

  00023	c3		 ret	 0
??1?$CDequePointerList@VCElement@@@@QAE@XZ ENDP		; CDequePointerList<CElement>::~CDequePointerList<CElement>
_TEXT	ENDS
; Function compile flags: /Ogtp
;	COMDAT ??1CCoordinate@@QAE@XZ
_TEXT	SEGMENT
??1CCoordinate@@QAE@XZ PROC				; CCoordinate::~CCoordinate, COMDAT
; _this$ = ecx
  00000	83 c1 14	 add	 ecx, 20			; 00000014H
  00003	ff 25 00 00 00
	00		 jmp	 DWORD PTR __imp_??1?$CStringT@DV?$StrTraitMFC_DLL@DV?$ChTraitsCRT@D@ATL@@@@@ATL@@QAE@XZ
??1CCoordinate@@QAE@XZ ENDP				; CCoordinate::~CCoordinate
_TEXT	ENDS
; Function compile flags: /Ogtp
; File C:\Program Files (x86)\Microsoft Visual Studio\2019\Community\VC\Tools\MSVC\14.29.30133\include\exception
;	COMDAT ?_Throw_bad_array_new_length@std@@YAXXZ
_TEXT	SEGMENT
$T1 = -12						; size = 12
?_Throw_bad_array_new_length@std@@YAXXZ PROC		; std::_Throw_bad_array_new_length, COMDAT

; 315  : [[noreturn]] inline void _Throw_bad_array_new_length() {

  00000	55		 push	 ebp
  00001	8b ec		 mov	 ebp, esp
  00003	83 ec 0c	 sub	 esp, 12			; 0000000cH

; 316  :     _THROW(bad_array_new_length{});

  00006	8d 4d f4	 lea	 ecx, DWORD PTR $T1[ebp]
  00009	e8 00 00 00 00	 call	 ??0bad_array_new_length@std@@QAE@XZ ; std::bad_array_new_length::bad_array_new_length
  0000e	68 00 00 00 00	 push	 OFFSET __TI3?AVbad_array_new_length@std@@
  00013	8d 45 f4	 lea	 eax, DWORD PTR $T1[ebp]
  00016	50		 push	 eax
  00017	e8 00 00 00 00	 call	 __CxxThrowException@8
$LN3@Throw_bad_:
  0001c	cc		 int	 3
?_Throw_bad_array_new_length@std@@YAXXZ ENDP		; std::_Throw_bad_array_new_length
_TEXT	ENDS
; Function compile flags: /Ogtp
; File C:\Program Files (x86)\Microsoft Visual Studio\2019\Community\VC\Tools\MSVC\14.29.30133\include\vcruntime_exception.h
;	COMDAT ??_Gbad_array_new_length@std@@UAEPAXI@Z
_TEXT	SEGMENT
___flags$ = 8						; size = 4
??_Gbad_array_new_length@std@@UAEPAXI@Z PROC		; std::bad_array_new_length::`scalar deleting destructor', COMDAT
; _this$ = ecx
  00000	55		 push	 ebp
  00001	8b ec		 mov	 ebp, esp

; 89   :     {

  00003	56		 push	 esi
  00004	8b f1		 mov	 esi, ecx

; 90   :         __std_exception_destroy(&_Data);

  00006	8d 46 04	 lea	 eax, DWORD PTR [esi+4]
  00009	c7 06 00 00 00
	00		 mov	 DWORD PTR [esi], OFFSET ??_7exception@std@@6B@
  0000f	50		 push	 eax
  00010	e8 00 00 00 00	 call	 ___std_exception_destroy
  00015	83 c4 04	 add	 esp, 4
  00018	f6 45 08 01	 test	 BYTE PTR ___flags$[ebp], 1
  0001c	74 0b		 je	 SHORT $LN12@scalar
  0001e	6a 0c		 push	 12			; 0000000cH
  00020	56		 push	 esi
  00021	e8 00 00 00 00	 call	 ??3@YAXPAXI@Z		; operator delete
  00026	83 c4 08	 add	 esp, 8
$LN12@scalar:
  00029	8b c6		 mov	 eax, esi
  0002b	5e		 pop	 esi
  0002c	5d		 pop	 ebp
  0002d	c2 04 00	 ret	 4
??_Gbad_array_new_length@std@@UAEPAXI@Z ENDP		; std::bad_array_new_length::`scalar deleting destructor'
_TEXT	ENDS
; Function compile flags: /Ogtp
; File C:\Program Files (x86)\Microsoft Visual Studio\2019\Community\VC\Tools\MSVC\14.29.30133\include\vcruntime_exception.h
;	COMDAT ??0bad_array_new_length@std@@QAE@ABV01@@Z
_TEXT	SEGMENT
___that$ = 8						; size = 4
??0bad_array_new_length@std@@QAE@ABV01@@Z PROC		; std::bad_array_new_length::bad_array_new_length, COMDAT
; _this$ = ecx
  00000	55		 push	 ebp
  00001	8b ec		 mov	 ebp, esp

; 72   :     {

  00003	56		 push	 esi
  00004	8b f1		 mov	 esi, ecx
  00006	0f 57 c0	 xorps	 xmm0, xmm0

; 71   :         : _Data()

  00009	8d 46 04	 lea	 eax, DWORD PTR [esi+4]

; 73   :         __std_exception_copy(&_Other._Data, &_Data);

  0000c	50		 push	 eax
  0000d	c7 06 00 00 00
	00		 mov	 DWORD PTR [esi], OFFSET ??_7exception@std@@6B@
  00013	66 0f d6 00	 movq	 QWORD PTR [eax], xmm0
  00017	8b 45 08	 mov	 eax, DWORD PTR ___that$[ebp]
  0001a	83 c0 04	 add	 eax, 4
  0001d	50		 push	 eax
  0001e	e8 00 00 00 00	 call	 ___std_exception_copy
  00023	83 c4 08	 add	 esp, 8
  00026	c7 06 00 00 00
	00		 mov	 DWORD PTR [esi], OFFSET ??_7bad_array_new_length@std@@6B@
  0002c	8b c6		 mov	 eax, esi
  0002e	5e		 pop	 esi
  0002f	5d		 pop	 ebp
  00030	c2 04 00	 ret	 4
??0bad_array_new_length@std@@QAE@ABV01@@Z ENDP		; std::bad_array_new_length::bad_array_new_length
_TEXT	ENDS
; Function compile flags: /Ogtp
; File C:\Program Files (x86)\Microsoft Visual Studio\2019\Community\VC\Tools\MSVC\14.29.30133\include\vcruntime_exception.h
;	COMDAT ??1bad_array_new_length@std@@UAE@XZ
_TEXT	SEGMENT
??1bad_array_new_length@std@@UAE@XZ PROC		; std::bad_array_new_length::~bad_array_new_length, COMDAT
; _this$ = ecx

; 90   :         __std_exception_destroy(&_Data);

  00000	8d 41 04	 lea	 eax, DWORD PTR [ecx+4]
  00003	c7 01 00 00 00
	00		 mov	 DWORD PTR [ecx], OFFSET ??_7exception@std@@6B@
  00009	50		 push	 eax
  0000a	e8 00 00 00 00	 call	 ___std_exception_destroy
  0000f	59		 pop	 ecx
  00010	c3		 ret	 0
??1bad_array_new_length@std@@UAE@XZ ENDP		; std::bad_array_new_length::~bad_array_new_length
_TEXT	ENDS
; Function compile flags: /Ogtp
; File C:\Program Files (x86)\Microsoft Visual Studio\2019\Community\VC\Tools\MSVC\14.29.30133\include\vcruntime_exception.h
;	COMDAT ??0bad_array_new_length@std@@QAE@XZ
_TEXT	SEGMENT
??0bad_array_new_length@std@@QAE@XZ PROC		; std::bad_array_new_length::bad_array_new_length, COMDAT
; _this$ = ecx

; 141  :     {

  00000	0f 57 c0	 xorps	 xmm0, xmm0

; 142  :     }

  00003	8b c1		 mov	 eax, ecx

; 65   :         : _Data()

  00005	66 0f d6 41 04	 movq	 QWORD PTR [ecx+4], xmm0

; 66   :     {
; 67   :         _Data._What = _Message;

  0000a	c7 41 04 00 00
	00 00		 mov	 DWORD PTR [ecx+4], OFFSET ??_C@_0BF@KINCDENJ@bad?5array?5new?5length@

; 141  :     {

  00011	c7 01 00 00 00
	00		 mov	 DWORD PTR [ecx], OFFSET ??_7bad_array_new_length@std@@6B@

; 142  :     }

  00017	c3		 ret	 0
??0bad_array_new_length@std@@QAE@XZ ENDP		; std::bad_array_new_length::bad_array_new_length
_TEXT	ENDS
; Function compile flags: /Ogtp
; File C:\Program Files (x86)\Microsoft Visual Studio\2019\Community\VC\Tools\MSVC\14.29.30133\include\vcruntime_exception.h
;	COMDAT ??_Gbad_alloc@std@@UAEPAXI@Z
_TEXT	SEGMENT
___flags$ = 8						; size = 4
??_Gbad_alloc@std@@UAEPAXI@Z PROC			; std::bad_alloc::`scalar deleting destructor', COMDAT
; _this$ = ecx
  00000	55		 push	 ebp
  00001	8b ec		 mov	 ebp, esp

; 89   :     {

  00003	56		 push	 esi
  00004	8b f1		 mov	 esi, ecx

; 90   :         __std_exception_destroy(&_Data);

  00006	8d 46 04	 lea	 eax, DWORD PTR [esi+4]
  00009	c7 06 00 00 00
	00		 mov	 DWORD PTR [esi], OFFSET ??_7exception@std@@6B@
  0000f	50		 push	 eax
  00010	e8 00 00 00 00	 call	 ___std_exception_destroy
  00015	83 c4 04	 add	 esp, 4
  00018	f6 45 08 01	 test	 BYTE PTR ___flags$[ebp], 1
  0001c	74 0b		 je	 SHORT $LN9@scalar
  0001e	6a 0c		 push	 12			; 0000000cH
  00020	56		 push	 esi
  00021	e8 00 00 00 00	 call	 ??3@YAXPAXI@Z		; operator delete
  00026	83 c4 08	 add	 esp, 8
$LN9@scalar:
  00029	8b c6		 mov	 eax, esi
  0002b	5e		 pop	 esi
  0002c	5d		 pop	 ebp
  0002d	c2 04 00	 ret	 4
??_Gbad_alloc@std@@UAEPAXI@Z ENDP			; std::bad_alloc::`scalar deleting destructor'
_TEXT	ENDS
; Function compile flags: /Ogtp
; File C:\Program Files (x86)\Microsoft Visual Studio\2019\Community\VC\Tools\MSVC\14.29.30133\include\vcruntime_exception.h
;	COMDAT ??0bad_alloc@std@@QAE@ABV01@@Z
_TEXT	SEGMENT
___that$ = 8						; size = 4
??0bad_alloc@std@@QAE@ABV01@@Z PROC			; std::bad_alloc::bad_alloc, COMDAT
; _this$ = ecx
  00000	55		 push	 ebp
  00001	8b ec		 mov	 ebp, esp

; 72   :     {

  00003	56		 push	 esi
  00004	8b f1		 mov	 esi, ecx
  00006	0f 57 c0	 xorps	 xmm0, xmm0

; 71   :         : _Data()

  00009	8d 46 04	 lea	 eax, DWORD PTR [esi+4]

; 73   :         __std_exception_copy(&_Other._Data, &_Data);

  0000c	50		 push	 eax
  0000d	c7 06 00 00 00
	00		 mov	 DWORD PTR [esi], OFFSET ??_7exception@std@@6B@
  00013	66 0f d6 00	 movq	 QWORD PTR [eax], xmm0
  00017	8b 45 08	 mov	 eax, DWORD PTR ___that$[ebp]
  0001a	83 c0 04	 add	 eax, 4
  0001d	50		 push	 eax
  0001e	e8 00 00 00 00	 call	 ___std_exception_copy
  00023	83 c4 08	 add	 esp, 8
  00026	c7 06 00 00 00
	00		 mov	 DWORD PTR [esi], OFFSET ??_7bad_alloc@std@@6B@
  0002c	8b c6		 mov	 eax, esi
  0002e	5e		 pop	 esi
  0002f	5d		 pop	 ebp
  00030	c2 04 00	 ret	 4
??0bad_alloc@std@@QAE@ABV01@@Z ENDP			; std::bad_alloc::bad_alloc
_TEXT	ENDS
; Function compile flags: /Ogtp
; File C:\Program Files (x86)\Microsoft Visual Studio\2019\Community\VC\Tools\MSVC\14.29.30133\include\vcruntime_exception.h
;	COMDAT ??_Gexception@std@@UAEPAXI@Z
_TEXT	SEGMENT
___flags$ = 8						; size = 4
??_Gexception@std@@UAEPAXI@Z PROC			; std::exception::`scalar deleting destructor', COMDAT
; _this$ = ecx
  00000	55		 push	 ebp
  00001	8b ec		 mov	 ebp, esp

; 89   :     {

  00003	56		 push	 esi
  00004	8b f1		 mov	 esi, ecx

; 90   :         __std_exception_destroy(&_Data);

  00006	8d 46 04	 lea	 eax, DWORD PTR [esi+4]
  00009	c7 06 00 00 00
	00		 mov	 DWORD PTR [esi], OFFSET ??_7exception@std@@6B@
  0000f	50		 push	 eax
  00010	e8 00 00 00 00	 call	 ___std_exception_destroy
  00015	83 c4 04	 add	 esp, 4
  00018	f6 45 08 01	 test	 BYTE PTR ___flags$[ebp], 1
  0001c	74 0b		 je	 SHORT $LN6@scalar
  0001e	6a 0c		 push	 12			; 0000000cH
  00020	56		 push	 esi
  00021	e8 00 00 00 00	 call	 ??3@YAXPAXI@Z		; operator delete
  00026	83 c4 08	 add	 esp, 8
$LN6@scalar:
  00029	8b c6		 mov	 eax, esi
  0002b	5e		 pop	 esi
  0002c	5d		 pop	 ebp
  0002d	c2 04 00	 ret	 4
??_Gexception@std@@UAEPAXI@Z ENDP			; std::exception::`scalar deleting destructor'
_TEXT	ENDS
; Function compile flags: /Ogtp
; File C:\Program Files (x86)\Microsoft Visual Studio\2019\Community\VC\Tools\MSVC\14.29.30133\include\vcruntime_exception.h
;	COMDAT ?what@exception@std@@UBEPBDXZ
_TEXT	SEGMENT
?what@exception@std@@UBEPBDXZ PROC			; std::exception::what, COMDAT
; _this$ = ecx

; 95   :         return _Data._What ? _Data._What : "Unknown exception";

  00000	8b 49 04	 mov	 ecx, DWORD PTR [ecx+4]
  00003	b8 00 00 00 00	 mov	 eax, OFFSET ??_C@_0BC@EOODALEL@Unknown?5exception@
  00008	85 c9		 test	 ecx, ecx
  0000a	0f 45 c1	 cmovne	 eax, ecx

; 96   :     }

  0000d	c3		 ret	 0
?what@exception@std@@UBEPBDXZ ENDP			; std::exception::what
_TEXT	ENDS
; Function compile flags: /Ogtp
; File C:\Program Files (x86)\Microsoft Visual Studio\2019\Community\VC\Tools\MSVC\14.29.30133\include\vcruntime_exception.h
;	COMDAT ??1exception@std@@UAE@XZ
_TEXT	SEGMENT
??1exception@std@@UAE@XZ PROC				; std::exception::~exception, COMDAT
; _this$ = ecx

; 90   :         __std_exception_destroy(&_Data);

  00000	8d 41 04	 lea	 eax, DWORD PTR [ecx+4]
  00003	c7 01 00 00 00
	00		 mov	 DWORD PTR [ecx], OFFSET ??_7exception@std@@6B@
  00009	50		 push	 eax
  0000a	e8 00 00 00 00	 call	 ___std_exception_destroy
  0000f	59		 pop	 ecx

; 91   :     }

  00010	c3		 ret	 0
??1exception@std@@UAE@XZ ENDP				; std::exception::~exception
_TEXT	ENDS
; Function compile flags: /Ogtp
; File C:\Program Files (x86)\Microsoft Visual Studio\2019\Community\VC\Tools\MSVC\14.29.30133\include\vcruntime_exception.h
;	COMDAT ??0exception@std@@QAE@ABV01@@Z
_TEXT	SEGMENT
__Other$ = 8						; size = 4
??0exception@std@@QAE@ABV01@@Z PROC			; std::exception::exception, COMDAT
; _this$ = ecx

; 72   :     {

  00000	55		 push	 ebp
  00001	8b ec		 mov	 ebp, esp
  00003	56		 push	 esi
  00004	8b f1		 mov	 esi, ecx
  00006	0f 57 c0	 xorps	 xmm0, xmm0
  00009	8d 46 04	 lea	 eax, DWORD PTR [esi+4]

; 73   :         __std_exception_copy(&_Other._Data, &_Data);

  0000c	50		 push	 eax
  0000d	c7 06 00 00 00
	00		 mov	 DWORD PTR [esi], OFFSET ??_7exception@std@@6B@
  00013	66 0f d6 00	 movq	 QWORD PTR [eax], xmm0
  00017	8b 45 08	 mov	 eax, DWORD PTR __Other$[ebp]
  0001a	83 c0 04	 add	 eax, 4
  0001d	50		 push	 eax
  0001e	e8 00 00 00 00	 call	 ___std_exception_copy
  00023	83 c4 08	 add	 esp, 8

; 74   :     }

  00026	8b c6		 mov	 eax, esi
  00028	5e		 pop	 esi
  00029	5d		 pop	 ebp
  0002a	c2 04 00	 ret	 4
??0exception@std@@QAE@ABV01@@Z ENDP			; std::exception::exception
_TEXT	ENDS
; Function compile flags: /Ogtp
; File D:\git\src\IBK\IBK_DRFN\ProjSrc\SrcChartEx\ChartAddIn\ChartAnalysisToolAddIn\Include_AddIn_133101\I133101\_IString.h
;	COMDAT ??1ILPCSTR133101@@QAE@XZ
_TEXT	SEGMENT
__$EHRec$ = -12						; size = 12
??1ILPCSTR133101@@QAE@XZ PROC				; ILPCSTR133101::~ILPCSTR133101, COMDAT
; _this$ = ecx

; 44   : 	{

  00000	55		 push	 ebp
  00001	8b ec		 mov	 ebp, esp
  00003	6a ff		 push	 -1
  00005	68 00 00 00 00	 push	 __ehhandler$??1ILPCSTR133101@@QAE@XZ
  0000a	64 a1 00 00 00
	00		 mov	 eax, DWORD PTR fs:0
  00010	50		 push	 eax
  00011	56		 push	 esi
  00012	a1 00 00 00 00	 mov	 eax, DWORD PTR ___security_cookie
  00017	33 c5		 xor	 eax, ebp
  00019	50		 push	 eax
  0001a	8d 45 f4	 lea	 eax, DWORD PTR __$EHRec$[ebp]
  0001d	64 a3 00 00 00
	00		 mov	 DWORD PTR fs:0, eax
  00023	8b f1		 mov	 esi, ecx

; 45   : 		if( m_pIStrData)

  00025	8b 4e 04	 mov	 ecx, DWORD PTR [esi+4]
  00028	85 c9		 test	 ecx, ecx
  0002a	74 13		 je	 SHORT $LN2@ILPCSTR133

; 46   : 		{
; 47   : 			m_pIStrData->Release();

  0002c	8b 01		 mov	 eax, DWORD PTR [ecx]
  0002e	51		 push	 ecx
  0002f	ff 50 08	 call	 DWORD PTR [eax+8]

; 48   : 			m_pIStrData = NULL;

  00032	c7 46 04 00 00
	00 00		 mov	 DWORD PTR [esi+4], 0

; 49   : 			m_szData = NULL;

  00039	c7 06 00 00 00
	00		 mov	 DWORD PTR [esi], 0
$LN2@ILPCSTR133:

; 50   : 		}
; 51   : 	}

  0003f	8b 4d f4	 mov	 ecx, DWORD PTR __$EHRec$[ebp]
  00042	64 89 0d 00 00
	00 00		 mov	 DWORD PTR fs:0, ecx
  00049	59		 pop	 ecx
  0004a	5e		 pop	 esi
  0004b	8b e5		 mov	 esp, ebp
  0004d	5d		 pop	 ebp
  0004e	c3		 ret	 0
  0004f	cc		 int	 3
  00050	cc		 int	 3
  00051	cc		 int	 3
  00052	cc		 int	 3
  00053	cc		 int	 3
_TEXT	ENDS
;	COMDAT text$x
text$x	SEGMENT
__ehhandler$??1ILPCSTR133101@@QAE@XZ:
  00000	90		 npad	 1
  00001	90		 npad	 1
  00002	8b 54 24 08	 mov	 edx, DWORD PTR [esp+8]
  00006	8d 42 0c	 lea	 eax, DWORD PTR [edx+12]
  00009	8b 4a f8	 mov	 ecx, DWORD PTR [edx-8]
  0000c	33 c8		 xor	 ecx, eax
  0000e	e8 00 00 00 00	 call	 @__security_check_cookie@4
  00013	b8 00 00 00 00	 mov	 eax, OFFSET __ehfuncinfo$??1ILPCSTR133101@@QAE@XZ
  00018	e9 00 00 00 00	 jmp	 ___CxxFrameHandler3
text$x	ENDS
??1ILPCSTR133101@@QAE@XZ ENDP				; ILPCSTR133101::~ILPCSTR133101
; Function compile flags: /Ogtp
; File C:\Program Files (x86)\Microsoft Visual Studio\2019\Community\VC\Tools\MSVC\14.29.30133\atlmfc\include\atltypes.h
;	COMDAT ??0CPoint@@QAE@XZ
_TEXT	SEGMENT
??0CPoint@@QAE@XZ PROC					; CPoint::CPoint, COMDAT
; _this$ = ecx

; 400  : 	x = 0;

  00000	c7 01 00 00 00
	00		 mov	 DWORD PTR [ecx], 0

; 401  : 	y = 0;
; 402  : }

  00006	8b c1		 mov	 eax, ecx
  00008	c7 41 04 00 00
	00 00		 mov	 DWORD PTR [ecx+4], 0
  0000f	c3		 ret	 0
??0CPoint@@QAE@XZ ENDP					; CPoint::CPoint
_TEXT	ENDS
; Function compile flags: /Ogtp
; File D:\git\src\IBK\IBK_DRFN\ProjSrc\SrcChartEx\ChartAddIn\ChartAnalysisToolAddIn\AnalysisTool\MainToolImplementation.cpp
;	COMDAT ?__empty_global_delete@@YAXPAXI@Z
_TEXT	SEGMENT
___formal$ = 8						; size = 4
___formal$ = 12						; size = 4
?__empty_global_delete@@YAXPAXI@Z PROC			; __empty_global_delete, COMDAT

  00000	c2 00 00	 ret	 0
?__empty_global_delete@@YAXPAXI@Z ENDP			; __empty_global_delete
_TEXT	ENDS
; Function compile flags: /Ogtp
; File D:\git\src\IBK\IBK_DRFN\ProjSrc\SrcChartEx\ChartAddIn\ChartAnalysisToolAddIn\AnalysisTool\MainToolImplementation.cpp
;	COMDAT ?__empty_global_delete@@YAXPAX@Z
_TEXT	SEGMENT
___formal$ = 8						; size = 4
?__empty_global_delete@@YAXPAX@Z PROC			; __empty_global_delete, COMDAT

  00000	c2 00 00	 ret	 0
?__empty_global_delete@@YAXPAX@Z ENDP			; __empty_global_delete
_TEXT	ENDS
; Function compile flags: /Ogtp
;	COMDAT ??_H@YGXPAXIIP6EPAX0@Z@Z
_TEXT	SEGMENT
___t$ = 8						; size = 4
___s$ = 12						; size = 4
___n$ = 16						; size = 4
___f$ = 20						; size = 4
??_H@YGXPAXIIP6EPAX0@Z@Z PROC				; `vector constructor iterator', COMDAT
  00000	55		 push	 ebp
  00001	8b ec		 mov	 ebp, esp
  00003	56		 push	 esi
  00004	8b 75 10	 mov	 esi, DWORD PTR ___n$[ebp]
  00007	85 f6		 test	 esi, esi
  00009	74 16		 je	 SHORT $LN6@vector
  0000b	53		 push	 ebx
  0000c	8b 5d 14	 mov	 ebx, DWORD PTR ___f$[ebp]
  0000f	57		 push	 edi
  00010	8b 7d 08	 mov	 edi, DWORD PTR ___t$[ebp]
$LL2@vector:
  00013	8b cf		 mov	 ecx, edi
  00015	ff d3		 call	 ebx
  00017	03 7d 0c	 add	 edi, DWORD PTR ___s$[ebp]
  0001a	83 ee 01	 sub	 esi, 1
  0001d	75 f4		 jne	 SHORT $LL2@vector
  0001f	5f		 pop	 edi
  00020	5b		 pop	 ebx
$LN6@vector:
  00021	5e		 pop	 esi
  00022	5d		 pop	 ebp
  00023	c2 10 00	 ret	 16			; 00000010H
??_H@YGXPAXIIP6EPAX0@Z@Z ENDP				; `vector constructor iterator'
_TEXT	ENDS
END
