; Listing generated by Microsoft (R) Optimizing Compiler Version 19.29.30145.0 

	TITLE	D:\git\src\IBK\IBK_DRFN\#DRfn-CS\_Obj\AnalysisTool\MainAnalysisTool.obj
	.686P
	.XMM
	include listing.inc
	.model	flat

INCLUDELIB MSVCRT
INCLUDELIB OLDNAMES

PUBLIC	?__empty_global_delete@@YAXPAX@Z		; __empty_global_delete
PUBLIC	?__empty_global_delete@@YAXPAXI@Z		; __empty_global_delete
PUBLIC	??0CMainAnalysisTool@@QAE@PAVCWnd@@PAUHWND__@@W4CHART_MODE@CChartInfo@@@Z ; CMainAnalysisTool::CMainAnalysisTool
PUBLIC	??1CMainAnalysisTool@@UAE@XZ			; CMainAnalysisTool::~CMainAnalysisTool
PUBLIC	?GetElementCount@CMainAnalysisTool@@QBEHXZ	; CMainAnalysisTool::GetElementCount
PUBLIC	?GetSavedElementsData@CMainAnalysisTool@@QBE?AV?$CStringT@DV?$StrTraitMFC_DLL@DV?$ChTraitsCRT@D@ATL@@@@@ATL@@XZ ; CMainAnalysisTool::GetSavedElementsData
PUBLIC	?GetCurrentToolType@CMainAnalysisTool@@QBE?AW4TOOLTYPE@CAnalysis@@XZ ; CMainAnalysisTool::GetCurrentToolType
PUBLIC	?GetSelectedToolType@CMainAnalysisTool@@QBE?AW4ElementType@CToolEnumData@@XZ ; CMainAnalysisTool::GetSelectedToolType
PUBLIC	?GetData_Line@CMainAnalysisTool@@QBE_NAAV?$CList@VCPoint@@AAV1@@@AAN@Z ; CMainAnalysisTool::GetData_Line
PUBLIC	?OnToolCopy@CMainAnalysisTool@@QAE_NXZ		; CMainAnalysisTool::OnToolCopy
PUBLIC	?SetParent@CMainAnalysisTool@@QAEXPAVCWnd@@@Z	; CMainAnalysisTool::SetParent
PUBLIC	?SetMainBlock@CMainAnalysisTool@@QAEXPAUIChartManager133101@@PAUIChartOCX133101@@@Z ; CMainAnalysisTool::SetMainBlock
PUBLIC	?SetAutoPriceTool@CMainAnalysisTool@@QAEX_N@Z	; CMainAnalysisTool::SetAutoPriceTool
PUBLIC	?SetAutoPriceElement@CMainAnalysisTool@@QAEX_N@Z ; CMainAnalysisTool::SetAutoPriceElement
PUBLIC	?SetBaseColor@CMainAnalysisTool@@QAEXABK0@Z	; CMainAnalysisTool::SetBaseColor
PUBLIC	?SetBasePenColor@CMainAnalysisTool@@QAEXABK@Z	; CMainAnalysisTool::SetBasePenColor
PUBLIC	?SetBasePenThickness@CMainAnalysisTool@@QAEXH@Z	; CMainAnalysisTool::SetBasePenThickness
PUBLIC	?SetLineDrawingInfo@CMainAnalysisTool@@QAEXW4TOOLTYPE@CAnalysis@@KHH@Z ; CMainAnalysisTool::SetLineDrawingInfo
PUBLIC	?SetTextPosition@CMainAnalysisTool@@QAEXW4TOOLTYPE@CAnalysis@@_N1111@Z ; CMainAnalysisTool::SetTextPosition
PUBLIC	?SetLineExtEnvironment@CMainAnalysisTool@@QAEXW4TOOLTYPE@CAnalysis@@ABH1@Z ; CMainAnalysisTool::SetLineExtEnvironment
PUBLIC	?SetEquiDivEnvironment@CMainAnalysisTool@@QAEXW4TOOLTYPE@CAnalysis@@ABH@Z ; CMainAnalysisTool::SetEquiDivEnvironment
PUBLIC	?SetPriceRangeDivEnvironment@CMainAnalysisTool@@QAEXW4TOOLTYPE@CAnalysis@@ABH@Z ; CMainAnalysisTool::SetPriceRangeDivEnvironment
PUBLIC	?SetCoordinateType@CMainAnalysisTool@@QAEXW4COORDINATETYPE@CAnalysis@@@Z ; CMainAnalysisTool::SetCoordinateType
PUBLIC	?SetCurrentAnalysisTool@CMainAnalysisTool@@QAEXW4TOOLTYPE@CAnalysis@@@Z ; CMainAnalysisTool::SetCurrentAnalysisTool
PUBLIC	?SetFiboCoefficient@CMainAnalysisTool@@QAEXW4TOOLTYPE@CAnalysis@@ABV?$CStringT@DV?$StrTraitMFC_DLL@DV?$ChTraitsCRT@D@ATL@@@@@ATL@@@Z ; CMainAnalysisTool::SetFiboCoefficient
PUBLIC	?SetBalanceCoefficient@CMainAnalysisTool@@QAEXW4TOOLTYPE@CAnalysis@@ABV?$CStringT@DV?$StrTraitMFC_DLL@DV?$ChTraitsCRT@D@ATL@@@@@ATL@@@Z ; CMainAnalysisTool::SetBalanceCoefficient
PUBLIC	?OnLButtonDown@CMainAnalysisTool@@QAE_NPAVCDC@@ABVCPoint@@@Z ; CMainAnalysisTool::OnLButtonDown
PUBLIC	?OnLButtonDbClk@CMainAnalysisTool@@QAE_NPAVCDC@@ABVCPoint@@@Z ; CMainAnalysisTool::OnLButtonDbClk
PUBLIC	?OnLButtonUp@CMainAnalysisTool@@QAE_NPAVCDC@@ABVCPoint@@@Z ; CMainAnalysisTool::OnLButtonUp
PUBLIC	?OnMouseMove@CMainAnalysisTool@@QAE_NPAVCDC@@ABVCPoint@@HQAUHBITMAP__@@@Z ; CMainAnalysisTool::OnMouseMove
PUBLIC	?OnRButtonUp@CMainAnalysisTool@@QAE?AW4MENUTYPE@CMenuType@@PAVCDC@@ABVCPoint@@@Z ; CMainAnalysisTool::OnRButtonUp
PUBLIC	?OnMenu@CMainAnalysisTool@@QAE_NW4ELEMENTMENU@CMenuType@@I@Z ; CMainAnalysisTool::OnMenu
PUBLIC	?GetGraphTotalRegion@CMainAnalysisTool@@QAE?AVCRect@@VCPoint@@@Z ; CMainAnalysisTool::GetGraphTotalRegion
PUBLIC	?GetCurrentPosData@CMainAnalysisTool@@QAEHVCPoint@@AAV?$CStringT@DV?$StrTraitMFC_DLL@DV?$ChTraitsCRT@D@ATL@@@@@ATL@@1@Z ; CMainAnalysisTool::GetCurrentPosData
PUBLIC	?OnDraw@CMainAnalysisTool@@QAEXPAVCDC@@H@Z	; CMainAnalysisTool::OnDraw
PUBLIC	?DrawTool@CMainAnalysisTool@@QAEXPAVCDC@@@Z	; CMainAnalysisTool::DrawTool
PUBLIC	?BuildElementsFromString@CMainAnalysisTool@@QAEXABV?$CStringT@DV?$StrTraitMFC_DLL@DV?$ChTraitsCRT@D@ATL@@@@@ATL@@@Z ; CMainAnalysisTool::BuildElementsFromString
PUBLIC	?InsertElementTree@CMainAnalysisTool@@QAE_NABVCBlockIndex@@@Z ; CMainAnalysisTool::InsertElementTree
PUBLIC	?MoveElementTree@CMainAnalysisTool@@QAE_NABVCBlockIndex@@0@Z ; CMainAnalysisTool::MoveElementTree
PUBLIC	?DeleteAllElement@CMainAnalysisTool@@QAEXXZ	; CMainAnalysisTool::DeleteAllElement
PUBLIC	?DeleteElement@CMainAnalysisTool@@QAE_NW4ElementType@CToolEnumData@@@Z ; CMainAnalysisTool::DeleteElement
PUBLIC	?DeleteCurrentElement@CMainAnalysisTool@@QAE_NXZ ; CMainAnalysisTool::DeleteCurrentElement
PUBLIC	?DeleteTail@CMainAnalysisTool@@QAEXXZ		; CMainAnalysisTool::DeleteTail
PUBLIC	?DeleteElementPos@CMainAnalysisTool@@QAEHJ@Z	; CMainAnalysisTool::DeleteElementPos
PUBLIC	?DeleteAllElementInBlock@CMainAnalysisTool@@QAEXABVCBlockIndex@@@Z ; CMainAnalysisTool::DeleteAllElementInBlock
PUBLIC	?ChangeAllElementsColor@CMainAnalysisTool@@QAEXABK0@Z ; CMainAnalysisTool::ChangeAllElementsColor
PUBLIC	?UndoElement@CMainAnalysisTool@@QAEHJ@Z		; CMainAnalysisTool::UndoElement
PUBLIC	?RedoElement@CMainAnalysisTool@@QAEHJ@Z		; CMainAnalysisTool::RedoElement
PUBLIC	?DoesAction@CMainAnalysisTool@@QBEHXZ		; CMainAnalysisTool::DoesAction
PUBLIC	?Set@CMainAnalysisTool@@IAEXPAVCWnd@@PAUIChartManager133101@@PAUIChartOCX133101@@ABK_NW4COORDINATETYPE@CAnalysis@@@Z ; CMainAnalysisTool::Set
PUBLIC	?RecalcElementXPoint@CMainAnalysisTool@@QAE_NPBDH@Z ; CMainAnalysisTool::RecalcElementXPoint
PUBLIC	??0CMainAnalysisTool@@QAE@ABV0@@Z		; CMainAnalysisTool::CMainAnalysisTool
PUBLIC	??4CMainAnalysisTool@@QAEAAV0@ABV0@@Z		; CMainAnalysisTool::operator=
PUBLIC	??_GCMainAnalysisTool@@UAEPAXI@Z		; CMainAnalysisTool::`scalar deleting destructor'
PUBLIC	??_ECMainAnalysisTool@@UAEPAXI@Z		; CMainAnalysisTool::`vector deleting destructor'
PUBLIC	??_7CMainAnalysisTool@@6B@			; CMainAnalysisTool::`vftable'
PUBLIC	??_R4CMainAnalysisTool@@6B@			; CMainAnalysisTool::`RTTI Complete Object Locator'
PUBLIC	??_R0?AVCMainAnalysisTool@@@8			; CMainAnalysisTool `RTTI Type Descriptor'
PUBLIC	??_R3CMainAnalysisTool@@8			; CMainAnalysisTool::`RTTI Class Hierarchy Descriptor'
PUBLIC	??_R2CMainAnalysisTool@@8			; CMainAnalysisTool::`RTTI Base Class Array'
PUBLIC	??_R1A@?0A@EA@CMainAnalysisTool@@8		; CMainAnalysisTool::`RTTI Base Class Descriptor at (0,-1,0,64)'
EXTRN	??_M@YGXPAXIIP6EX0@Z@Z:PROC			; `eh vector destructor iterator'
EXTRN	??2@YAPAXI@Z:PROC				; operator new
EXTRN	??3@YAXPAXI@Z:PROC				; operator delete
EXTRN	??_V@YAXPAXI@Z:PROC				; operator delete[]
EXTRN	??1CAnalysisData@@QAE@XZ:PROC			; CAnalysisData::~CAnalysisData
EXTRN	??1CToolSingleton@@QAE@XZ:PROC			; CToolSingleton::~CToolSingleton
EXTRN	??0CMainToolImplementation@@QAE@PAVCWnd@@PAUHWND__@@W4CHART_MODE@CChartInfo@@@Z:PROC ; CMainToolImplementation::CMainToolImplementation
EXTRN	?GetElementCount@CMainToolImplementation@@QBEHXZ:PROC ; CMainToolImplementation::GetElementCount
EXTRN	?GetSavedElementsData@CMainToolImplementation@@QBE?AV?$CStringT@DV?$StrTraitMFC_DLL@DV?$ChTraitsCRT@D@ATL@@@@@ATL@@XZ:PROC ; CMainToolImplementation::GetSavedElementsData
EXTRN	?GetCurrentToolType@CMainToolImplementation@@QBE?AW4TOOLTYPE@CAnalysis@@XZ:PROC ; CMainToolImplementation::GetCurrentToolType
EXTRN	?GetSelectedToolType@CMainToolImplementation@@QBE?AW4ElementType@CToolEnumData@@XZ:PROC ; CMainToolImplementation::GetSelectedToolType
EXTRN	?GetData_Line@CMainToolImplementation@@QBE_NAAV?$CList@VCPoint@@AAV1@@@AAN@Z:PROC ; CMainToolImplementation::GetData_Line
EXTRN	?OnToolCopy@CMainToolImplementation@@QAE_NXZ:PROC ; CMainToolImplementation::OnToolCopy
EXTRN	?SetParent@CMainToolImplementation@@QAEXPAVCWnd@@@Z:PROC ; CMainToolImplementation::SetParent
EXTRN	?SetMainBlock@CMainToolImplementation@@QAEXPAUIChartManager133101@@PAUIChartOCX133101@@@Z:PROC ; CMainToolImplementation::SetMainBlock
EXTRN	?SetCoordinateType@CMainToolImplementation@@QAEXW4COORDINATETYPE@CAnalysis@@@Z:PROC ; CMainToolImplementation::SetCoordinateType
EXTRN	?SetAutoPriceTool@CMainToolImplementation@@QAEX_N@Z:PROC ; CMainToolImplementation::SetAutoPriceTool
EXTRN	?SetAutoPriceElement@CMainToolImplementation@@QAEX_N@Z:PROC ; CMainToolImplementation::SetAutoPriceElement
EXTRN	?SetBaseColor@CMainToolImplementation@@QAEXABK0@Z:PROC ; CMainToolImplementation::SetBaseColor
EXTRN	?SetBasePenColor@CMainToolImplementation@@QAEXABK@Z:PROC ; CMainToolImplementation::SetBasePenColor
EXTRN	?SetBasePenThickness@CMainToolImplementation@@QAEXH@Z:PROC ; CMainToolImplementation::SetBasePenThickness
EXTRN	?SetLineDrawingInfo@CMainToolImplementation@@QAEXW4TOOLTYPE@CAnalysis@@KHH@Z:PROC ; CMainToolImplementation::SetLineDrawingInfo
EXTRN	?SetLineExtEnvironment@CMainToolImplementation@@QAEXW4TOOLTYPE@CAnalysis@@ABH1@Z:PROC ; CMainToolImplementation::SetLineExtEnvironment
EXTRN	?SetTextPosition@CMainToolImplementation@@QAEXW4TOOLTYPE@CAnalysis@@_N1111@Z:PROC ; CMainToolImplementation::SetTextPosition
EXTRN	?SetEquiDivEnvironment@CMainToolImplementation@@QAEXW4TOOLTYPE@CAnalysis@@ABH@Z:PROC ; CMainToolImplementation::SetEquiDivEnvironment
EXTRN	?SetPriceRangeDivEnvironment@CMainToolImplementation@@QAEXW4TOOLTYPE@CAnalysis@@ABH@Z:PROC ; CMainToolImplementation::SetPriceRangeDivEnvironment
EXTRN	?SetCurrentAnalysisTool@CMainToolImplementation@@QAEXW4TOOLTYPE@CAnalysis@@H@Z:PROC ; CMainToolImplementation::SetCurrentAnalysisTool
EXTRN	?SetFiboCoefficient@CMainToolImplementation@@QAEXW4TOOLTYPE@CAnalysis@@ABV?$CStringT@DV?$StrTraitMFC_DLL@DV?$ChTraitsCRT@D@ATL@@@@@ATL@@@Z:PROC ; CMainToolImplementation::SetFiboCoefficient
EXTRN	?SetBalanceCoefficient@CMainToolImplementation@@QAEXW4TOOLTYPE@CAnalysis@@ABV?$CStringT@DV?$StrTraitMFC_DLL@DV?$ChTraitsCRT@D@ATL@@@@@ATL@@@Z:PROC ; CMainToolImplementation::SetBalanceCoefficient
EXTRN	?OnLButtonDown@CMainToolImplementation@@QAE_NPAVCDC@@ABVCPoint@@@Z:PROC ; CMainToolImplementation::OnLButtonDown
EXTRN	?OnLButtonDbClk@CMainToolImplementation@@QAE_NPAVCDC@@ABVCPoint@@@Z:PROC ; CMainToolImplementation::OnLButtonDbClk
EXTRN	?OnLButtonUp@CMainToolImplementation@@QAE_NPAVCDC@@ABVCPoint@@@Z:PROC ; CMainToolImplementation::OnLButtonUp
EXTRN	?OnMouseMove@CMainToolImplementation@@QAE_NPAVCDC@@ABVCPoint@@HQAUHBITMAP__@@@Z:PROC ; CMainToolImplementation::OnMouseMove
EXTRN	?OnRButtonUp@CMainToolImplementation@@QAE?AW4MENUTYPE@CMenuType@@PAVCDC@@ABVCPoint@@@Z:PROC ; CMainToolImplementation::OnRButtonUp
EXTRN	?OnMenu@CMainToolImplementation@@QAE_NW4ELEMENTMENU@CMenuType@@I@Z:PROC ; CMainToolImplementation::OnMenu
EXTRN	?GetGraphTotalRegion@CMainToolImplementation@@QAE?AVCRect@@VCPoint@@@Z:PROC ; CMainToolImplementation::GetGraphTotalRegion
EXTRN	?GetCurrentPosData@CMainToolImplementation@@QAEHVCPoint@@AAV?$CStringT@DV?$StrTraitMFC_DLL@DV?$ChTraitsCRT@D@ATL@@@@@ATL@@1@Z:PROC ; CMainToolImplementation::GetCurrentPosData
EXTRN	?OnDraw@CMainToolImplementation@@QAEXPAVCDC@@@Z:PROC ; CMainToolImplementation::OnDraw
EXTRN	?DrawTool@CMainToolImplementation@@QAEXPAVCDC@@@Z:PROC ; CMainToolImplementation::DrawTool
EXTRN	?BuildElementsFromString@CMainToolImplementation@@QAEXABV?$CStringT@DV?$StrTraitMFC_DLL@DV?$ChTraitsCRT@D@ATL@@@@@ATL@@@Z:PROC ; CMainToolImplementation::BuildElementsFromString
EXTRN	?InsertElementTree@CMainToolImplementation@@QAE_NABVCBlockIndex@@@Z:PROC ; CMainToolImplementation::InsertElementTree
EXTRN	?MoveElementTree@CMainToolImplementation@@QAE_NABVCBlockIndex@@0@Z:PROC ; CMainToolImplementation::MoveElementTree
EXTRN	?DeleteAllElement@CMainToolImplementation@@QAEXXZ:PROC ; CMainToolImplementation::DeleteAllElement
EXTRN	?DeleteElement@CMainToolImplementation@@QAE_NW4ElementType@CToolEnumData@@@Z:PROC ; CMainToolImplementation::DeleteElement
EXTRN	?DeleteCurrentElement@CMainToolImplementation@@QAE_NXZ:PROC ; CMainToolImplementation::DeleteCurrentElement
EXTRN	?DeleteTail@CMainToolImplementation@@QAEXXZ:PROC ; CMainToolImplementation::DeleteTail
EXTRN	?DeleteElementPos@CMainToolImplementation@@QAEHJ@Z:PROC ; CMainToolImplementation::DeleteElementPos
EXTRN	?DeleteAllElementInBlock@CMainToolImplementation@@QAEXABVCBlockIndex@@@Z:PROC ; CMainToolImplementation::DeleteAllElementInBlock
EXTRN	?ChangeAllElementsColor@CMainToolImplementation@@QAEXABK0@Z:PROC ; CMainToolImplementation::ChangeAllElementsColor
EXTRN	?UndoElement@CMainToolImplementation@@QAEHJ@Z:PROC ; CMainToolImplementation::UndoElement
EXTRN	?RedoElement@CMainToolImplementation@@QAEHJ@Z:PROC ; CMainToolImplementation::RedoElement
EXTRN	?DoesAction@CMainToolImplementation@@QBE_NXZ:PROC ; CMainToolImplementation::DoesAction
EXTRN	?RecalcElementXPoint@CMainToolImplementation@@QAE_NPBDH@Z:PROC ; CMainToolImplementation::RecalcElementXPoint
EXTRN	@__security_check_cookie@4:PROC
EXTRN	___CxxFrameHandler3:PROC
EXTRN	??_7type_info@@6B@:QWORD			; type_info::`vftable'
EXTRN	___security_cookie:DWORD
;	COMDAT ??_R1A@?0A@EA@CMainAnalysisTool@@8
rdata$r	SEGMENT
??_R1A@?0A@EA@CMainAnalysisTool@@8 DD FLAT:??_R0?AVCMainAnalysisTool@@@8 ; CMainAnalysisTool::`RTTI Base Class Descriptor at (0,-1,0,64)'
	DD	00H
	DD	00H
	DD	0ffffffffH
	DD	00H
	DD	040H
	DD	FLAT:??_R3CMainAnalysisTool@@8
rdata$r	ENDS
;	COMDAT ??_R2CMainAnalysisTool@@8
rdata$r	SEGMENT
??_R2CMainAnalysisTool@@8 DD FLAT:??_R1A@?0A@EA@CMainAnalysisTool@@8 ; CMainAnalysisTool::`RTTI Base Class Array'
rdata$r	ENDS
;	COMDAT ??_R3CMainAnalysisTool@@8
rdata$r	SEGMENT
??_R3CMainAnalysisTool@@8 DD 00H			; CMainAnalysisTool::`RTTI Class Hierarchy Descriptor'
	DD	00H
	DD	01H
	DD	FLAT:??_R2CMainAnalysisTool@@8
rdata$r	ENDS
;	COMDAT ??_R0?AVCMainAnalysisTool@@@8
data$rs	SEGMENT
??_R0?AVCMainAnalysisTool@@@8 DD FLAT:??_7type_info@@6B@ ; CMainAnalysisTool `RTTI Type Descriptor'
	DD	00H
	DB	'.?AVCMainAnalysisTool@@', 00H
data$rs	ENDS
;	COMDAT ??_R4CMainAnalysisTool@@6B@
rdata$r	SEGMENT
??_R4CMainAnalysisTool@@6B@ DD 00H			; CMainAnalysisTool::`RTTI Complete Object Locator'
	DD	00H
	DD	00H
	DD	FLAT:??_R0?AVCMainAnalysisTool@@@8
	DD	FLAT:??_R3CMainAnalysisTool@@8
rdata$r	ENDS
;	COMDAT ??_7CMainAnalysisTool@@6B@
CONST	SEGMENT
??_7CMainAnalysisTool@@6B@ DD FLAT:??_R4CMainAnalysisTool@@6B@ ; CMainAnalysisTool::`vftable'
	DD	FLAT:??_ECMainAnalysisTool@@UAEPAXI@Z
CONST	ENDS
;	COMDAT xdata$x
xdata$x	SEGMENT
__ehfuncinfo$??_ECMainAnalysisTool@@UAEPAXI@Z DD 019930522H
	DD	00H
	DD	00H
	DD	2 DUP(00H)
	DD	2 DUP(00H)
	DD	00H
	DD	05H
xdata$x	ENDS
;	COMDAT xdata$x
xdata$x	SEGMENT
__unwindtable$??0CMainAnalysisTool@@QAE@PAVCWnd@@PAUHWND__@@W4CHART_MODE@CChartInfo@@@Z DD 0ffffffffH
	DD	FLAT:__unwindfunclet$??0CMainAnalysisTool@@QAE@PAVCWnd@@PAUHWND__@@W4CHART_MODE@CChartInfo@@@Z$0
__ehfuncinfo$??0CMainAnalysisTool@@QAE@PAVCWnd@@PAUHWND__@@W4CHART_MODE@CChartInfo@@@Z DD 019930522H
	DD	01H
	DD	FLAT:__unwindtable$??0CMainAnalysisTool@@QAE@PAVCWnd@@PAUHWND__@@W4CHART_MODE@CChartInfo@@@Z
	DD	2 DUP(00H)
	DD	2 DUP(00H)
	DD	00H
	DD	01H
xdata$x	ENDS
; Function compile flags: /Ogtp
; File D:\git\src\IBK\IBK_DRFN\ProjSrc\SrcChartEx\ChartAddIn\ChartAnalysisToolAddIn\AnalysisTool\MainAnalysisTool.cpp
;	COMDAT ??_ECMainAnalysisTool@@UAEPAXI@Z
_TEXT	SEGMENT
__$EHRec$ = -12						; size = 12
___flags$ = 8						; size = 4
??_ECMainAnalysisTool@@UAEPAXI@Z PROC			; CMainAnalysisTool::`vector deleting destructor', COMDAT
; _this$ = ecx
  00000	55		 push	 ebp
  00001	8b ec		 mov	 ebp, esp
  00003	6a ff		 push	 -1
  00005	68 00 00 00 00	 push	 __ehhandler$??_ECMainAnalysisTool@@UAEPAXI@Z
  0000a	64 a1 00 00 00
	00		 mov	 eax, DWORD PTR fs:0
  00010	50		 push	 eax
  00011	53		 push	 ebx
  00012	56		 push	 esi
  00013	57		 push	 edi
  00014	a1 00 00 00 00	 mov	 eax, DWORD PTR ___security_cookie
  00019	33 c5		 xor	 eax, ebp
  0001b	50		 push	 eax
  0001c	8d 45 f4	 lea	 eax, DWORD PTR __$EHRec$[ebp]
  0001f	64 a3 00 00 00
	00		 mov	 DWORD PTR fs:0, eax
  00025	8b f1		 mov	 esi, ecx
  00027	8b 5d 08	 mov	 ebx, DWORD PTR ___flags$[ebp]
  0002a	f6 c3 02	 test	 bl, 2
  0002d	74 40		 je	 SHORT $LN2@vector
  0002f	68 00 00 00 00	 push	 OFFSET ??1CMainAnalysisTool@@UAE@XZ ; CMainAnalysisTool::~CMainAnalysisTool
  00034	ff 76 fc	 push	 DWORD PTR [esi-4]
  00037	8d 7e fc	 lea	 edi, DWORD PTR [esi-4]
  0003a	6a 10		 push	 16			; 00000010H
  0003c	56		 push	 esi
  0003d	e8 00 00 00 00	 call	 ??_M@YGXPAXIIP6EX0@Z@Z
  00042	f6 c3 01	 test	 bl, 1
  00045	74 12		 je	 SHORT $LN3@vector
  00047	8b 0f		 mov	 ecx, DWORD PTR [edi]
  00049	c1 e1 04	 shl	 ecx, 4
  0004c	83 c1 04	 add	 ecx, 4
  0004f	51		 push	 ecx
  00050	57		 push	 edi
  00051	e8 00 00 00 00	 call	 ??_V@YAXPAXI@Z		; operator delete[]
  00056	83 c4 08	 add	 esp, 8
$LN3@vector:
  00059	8b c7		 mov	 eax, edi
  0005b	8b 4d f4	 mov	 ecx, DWORD PTR __$EHRec$[ebp]
  0005e	64 89 0d 00 00
	00 00		 mov	 DWORD PTR fs:0, ecx
  00065	59		 pop	 ecx
  00066	5f		 pop	 edi
  00067	5e		 pop	 esi
  00068	5b		 pop	 ebx
  00069	8b e5		 mov	 esp, ebp
  0006b	5d		 pop	 ebp
  0006c	c2 04 00	 ret	 4
$LN2@vector:

; 37   : 	delete m_pMainToolImpl;

  0006f	8b 7e 04	 mov	 edi, DWORD PTR [esi+4]
  00072	c7 06 00 00 00
	00		 mov	 DWORD PTR [esi], OFFSET ??_7CMainAnalysisTool@@6B@
  00078	85 ff		 test	 edi, edi
  0007a	74 21		 je	 SHORT $LN11@vector
  0007c	8d 8f 98 00 00
	00		 lea	 ecx, DWORD PTR [edi+152]
  00082	e8 00 00 00 00	 call	 ??1CToolSingleton@@QAE@XZ ; CToolSingleton::~CToolSingleton
  00087	8d 4f 1c	 lea	 ecx, DWORD PTR [edi+28]
  0008a	e8 00 00 00 00	 call	 ??1CAnalysisData@@QAE@XZ ; CAnalysisData::~CAnalysisData
  0008f	68 28 01 00 00	 push	 296			; 00000128H
  00094	57		 push	 edi
  00095	e8 00 00 00 00	 call	 ??3@YAXPAXI@Z		; operator delete
  0009a	83 c4 08	 add	 esp, 8
$LN11@vector:

; 38   : 	m_pMainToolImpl = NULL;

  0009d	c7 46 04 00 00
	00 00		 mov	 DWORD PTR [esi+4], 0
  000a4	f6 c3 01	 test	 bl, 1
  000a7	74 0b		 je	 SHORT $LN4@vector
  000a9	6a 10		 push	 16			; 00000010H
  000ab	56		 push	 esi
  000ac	e8 00 00 00 00	 call	 ??3@YAXPAXI@Z		; operator delete
  000b1	83 c4 08	 add	 esp, 8
$LN4@vector:
  000b4	8b c6		 mov	 eax, esi
  000b6	8b 4d f4	 mov	 ecx, DWORD PTR __$EHRec$[ebp]
  000b9	64 89 0d 00 00
	00 00		 mov	 DWORD PTR fs:0, ecx
  000c0	59		 pop	 ecx
  000c1	5f		 pop	 edi
  000c2	5e		 pop	 esi
  000c3	5b		 pop	 ebx
  000c4	8b e5		 mov	 esp, ebp
  000c6	5d		 pop	 ebp
  000c7	c2 04 00	 ret	 4
  000ca	cc		 int	 3
  000cb	cc		 int	 3
  000cc	cc		 int	 3
  000cd	cc		 int	 3
  000ce	cc		 int	 3
_TEXT	ENDS
;	COMDAT text$x
text$x	SEGMENT
__ehhandler$??_ECMainAnalysisTool@@UAEPAXI@Z:
  00000	90		 npad	 1
  00001	90		 npad	 1
  00002	8b 54 24 08	 mov	 edx, DWORD PTR [esp+8]
  00006	8d 42 0c	 lea	 eax, DWORD PTR [edx+12]
  00009	8b 4a f0	 mov	 ecx, DWORD PTR [edx-16]
  0000c	33 c8		 xor	 ecx, eax
  0000e	e8 00 00 00 00	 call	 @__security_check_cookie@4
  00013	b8 00 00 00 00	 mov	 eax, OFFSET __ehfuncinfo$??_ECMainAnalysisTool@@UAEPAXI@Z
  00018	e9 00 00 00 00	 jmp	 ___CxxFrameHandler3
text$x	ENDS
??_ECMainAnalysisTool@@UAEPAXI@Z ENDP			; CMainAnalysisTool::`vector deleting destructor'
; Function compile flags: /Ogtp
; File D:\git\src\IBK\IBK_DRFN\ProjSrc\SrcChartEx\ChartAddIn\ChartAnalysisToolAddIn\AnalysisTool\MainAnalysisTool.cpp
;	COMDAT ??_GCMainAnalysisTool@@UAEPAXI@Z
_TEXT	SEGMENT
___flags$ = 8						; size = 4
??_GCMainAnalysisTool@@UAEPAXI@Z PROC			; CMainAnalysisTool::`scalar deleting destructor', COMDAT
; _this$ = ecx
  00000	55		 push	 ebp
  00001	8b ec		 mov	 ebp, esp

; 36   : {

  00003	56		 push	 esi
  00004	8b f1		 mov	 esi, ecx
  00006	57		 push	 edi

; 37   : 	delete m_pMainToolImpl;

  00007	8b 7e 04	 mov	 edi, DWORD PTR [esi+4]
  0000a	c7 06 00 00 00
	00		 mov	 DWORD PTR [esi], OFFSET ??_7CMainAnalysisTool@@6B@
  00010	85 ff		 test	 edi, edi
  00012	74 21		 je	 SHORT $LN9@scalar
  00014	8d 8f 98 00 00
	00		 lea	 ecx, DWORD PTR [edi+152]
  0001a	e8 00 00 00 00	 call	 ??1CToolSingleton@@QAE@XZ ; CToolSingleton::~CToolSingleton
  0001f	8d 4f 1c	 lea	 ecx, DWORD PTR [edi+28]
  00022	e8 00 00 00 00	 call	 ??1CAnalysisData@@QAE@XZ ; CAnalysisData::~CAnalysisData
  00027	68 28 01 00 00	 push	 296			; 00000128H
  0002c	57		 push	 edi
  0002d	e8 00 00 00 00	 call	 ??3@YAXPAXI@Z		; operator delete
  00032	83 c4 08	 add	 esp, 8
$LN9@scalar:
  00035	f6 45 08 01	 test	 BYTE PTR ___flags$[ebp], 1

; 38   : 	m_pMainToolImpl = NULL;

  00039	c7 46 04 00 00
	00 00		 mov	 DWORD PTR [esi+4], 0
  00040	74 0b		 je	 SHORT $LN14@scalar
  00042	6a 10		 push	 16			; 00000010H
  00044	56		 push	 esi
  00045	e8 00 00 00 00	 call	 ??3@YAXPAXI@Z		; operator delete
  0004a	83 c4 08	 add	 esp, 8
$LN14@scalar:
  0004d	5f		 pop	 edi
  0004e	8b c6		 mov	 eax, esi
  00050	5e		 pop	 esi
  00051	5d		 pop	 ebp
  00052	c2 04 00	 ret	 4
??_GCMainAnalysisTool@@UAEPAXI@Z ENDP			; CMainAnalysisTool::`scalar deleting destructor'
_TEXT	ENDS
; Function compile flags: /Ogtp
;	COMDAT ??4CMainAnalysisTool@@QAEAAV0@ABV0@@Z
_TEXT	SEGMENT
___that$ = 8						; size = 4
??4CMainAnalysisTool@@QAEAAV0@ABV0@@Z PROC		; CMainAnalysisTool::operator=, COMDAT
; _this$ = ecx
  00000	55		 push	 ebp
  00001	8b ec		 mov	 ebp, esp
  00003	8b 55 08	 mov	 edx, DWORD PTR ___that$[ebp]
  00006	8b 42 04	 mov	 eax, DWORD PTR [edx+4]
  00009	89 41 04	 mov	 DWORD PTR [ecx+4], eax
  0000c	8b 42 08	 mov	 eax, DWORD PTR [edx+8]
  0000f	89 41 08	 mov	 DWORD PTR [ecx+8], eax
  00012	8b 42 0c	 mov	 eax, DWORD PTR [edx+12]
  00015	89 41 0c	 mov	 DWORD PTR [ecx+12], eax
  00018	8b c1		 mov	 eax, ecx
  0001a	5d		 pop	 ebp
  0001b	c2 04 00	 ret	 4
??4CMainAnalysisTool@@QAEAAV0@ABV0@@Z ENDP		; CMainAnalysisTool::operator=
_TEXT	ENDS
; Function compile flags: /Ogtp
;	COMDAT ??0CMainAnalysisTool@@QAE@ABV0@@Z
_TEXT	SEGMENT
___that$ = 8						; size = 4
??0CMainAnalysisTool@@QAE@ABV0@@Z PROC			; CMainAnalysisTool::CMainAnalysisTool, COMDAT
; _this$ = ecx
  00000	55		 push	 ebp
  00001	8b ec		 mov	 ebp, esp
  00003	8b 55 08	 mov	 edx, DWORD PTR ___that$[ebp]
  00006	c7 01 00 00 00
	00		 mov	 DWORD PTR [ecx], OFFSET ??_7CMainAnalysisTool@@6B@
  0000c	8b 42 04	 mov	 eax, DWORD PTR [edx+4]
  0000f	89 41 04	 mov	 DWORD PTR [ecx+4], eax
  00012	8b 42 08	 mov	 eax, DWORD PTR [edx+8]
  00015	89 41 08	 mov	 DWORD PTR [ecx+8], eax
  00018	8b 42 0c	 mov	 eax, DWORD PTR [edx+12]
  0001b	89 41 0c	 mov	 DWORD PTR [ecx+12], eax
  0001e	8b c1		 mov	 eax, ecx
  00020	5d		 pop	 ebp
  00021	c2 04 00	 ret	 4
??0CMainAnalysisTool@@QAE@ABV0@@Z ENDP			; CMainAnalysisTool::CMainAnalysisTool
_TEXT	ENDS
; Function compile flags: /Ogtp
; File D:\git\src\IBK\IBK_DRFN\ProjSrc\SrcChartEx\ChartAddIn\ChartAnalysisToolAddIn\AnalysisTool\MainAnalysisTool.cpp
;	COMDAT ?RecalcElementXPoint@CMainAnalysisTool@@QAE_NPBDH@Z
_TEXT	SEGMENT
_szName$ = 8						; size = 4
_nTimeDiff$ = 12					; size = 4
?RecalcElementXPoint@CMainAnalysisTool@@QAE_NPBDH@Z PROC ; CMainAnalysisTool::RecalcElementXPoint, COMDAT
; _this$ = ecx

; 302  : {

  00000	55		 push	 ebp
  00001	8b ec		 mov	 ebp, esp

; 303  : 	return m_pMainToolImpl->RecalcElementXPoint(szName, nTimeDiff);

  00003	8b 49 04	 mov	 ecx, DWORD PTR [ecx+4]

; 304  : }

  00006	5d		 pop	 ebp

; 303  : 	return m_pMainToolImpl->RecalcElementXPoint(szName, nTimeDiff);

  00007	e9 00 00 00 00	 jmp	 ?RecalcElementXPoint@CMainToolImplementation@@QAE_NPBDH@Z ; CMainToolImplementation::RecalcElementXPoint
?RecalcElementXPoint@CMainAnalysisTool@@QAE_NPBDH@Z ENDP ; CMainAnalysisTool::RecalcElementXPoint
_TEXT	ENDS
; Function compile flags: /Ogtp
; File D:\git\src\IBK\IBK_DRFN\ProjSrc\SrcChartEx\ChartAddIn\ChartAnalysisToolAddIn\AnalysisTool\MainAnalysisTool.cpp
;	COMDAT ?Set@CMainAnalysisTool@@IAEXPAVCWnd@@PAUIChartManager133101@@PAUIChartOCX133101@@ABK_NW4COORDINATETYPE@CAnalysis@@@Z
_TEXT	SEGMENT
_pParent$ = 8						; size = 4
_pMainBlock$ = 12					; size = 4
_p_pIChartOCX$ = 16					; size = 4
_color$ = 20						; size = 4
_bIsAutoPrice$ = 24					; size = 1
_eCoordinateType$ = 28					; size = 4
?Set@CMainAnalysisTool@@IAEXPAVCWnd@@PAUIChartManager133101@@PAUIChartOCX133101@@ABK_NW4COORDINATETYPE@CAnalysis@@@Z PROC ; CMainAnalysisTool::Set, COMDAT
; _this$ = ecx

; 74   : {

  00000	55		 push	 ebp
  00001	8b ec		 mov	 ebp, esp
  00003	56		 push	 esi

; 84   : 	m_pMainToolImpl->SetParent(pParent);

  00004	ff 75 08	 push	 DWORD PTR _pParent$[ebp]

; 74   : {

  00007	8b f1		 mov	 esi, ecx

; 84   : 	m_pMainToolImpl->SetParent(pParent);

  00009	8b 4e 04	 mov	 ecx, DWORD PTR [esi+4]
  0000c	e8 00 00 00 00	 call	 ?SetParent@CMainToolImplementation@@QAEXPAVCWnd@@@Z ; CMainToolImplementation::SetParent

; 89   : 	m_pMainToolImpl->SetMainBlock(pMainBlock, p_pIChartOCX);

  00011	ff 75 10	 push	 DWORD PTR _p_pIChartOCX$[ebp]
  00014	8b 4e 04	 mov	 ecx, DWORD PTR [esi+4]
  00017	ff 75 0c	 push	 DWORD PTR _pMainBlock$[ebp]
  0001a	e8 00 00 00 00	 call	 ?SetMainBlock@CMainToolImplementation@@QAEXPAUIChartManager133101@@PAUIChartOCX133101@@@Z ; CMainToolImplementation::SetMainBlock

; 114  : 	m_pMainToolImpl->SetBasePenColor(color);

  0001f	ff 75 14	 push	 DWORD PTR _color$[ebp]
  00022	8b 4e 04	 mov	 ecx, DWORD PTR [esi+4]
  00025	e8 00 00 00 00	 call	 ?SetBasePenColor@CMainToolImplementation@@QAEXABK@Z ; CMainToolImplementation::SetBasePenColor

; 99   : 	m_pMainToolImpl->SetAutoPriceTool(bIsAutoPrice);

  0002a	ff 75 18	 push	 DWORD PTR _bIsAutoPrice$[ebp]
  0002d	8b 4e 04	 mov	 ecx, DWORD PTR [esi+4]
  00030	e8 00 00 00 00	 call	 ?SetAutoPriceTool@CMainToolImplementation@@QAEX_N@Z ; CMainToolImplementation::SetAutoPriceTool

; 150  : 	m_pMainToolImpl->SetCoordinateType(eCoordinateType);

  00035	ff 75 1c	 push	 DWORD PTR _eCoordinateType$[ebp]
  00038	8b 4e 04	 mov	 ecx, DWORD PTR [esi+4]
  0003b	e8 00 00 00 00	 call	 ?SetCoordinateType@CMainToolImplementation@@QAEXW4COORDINATETYPE@CAnalysis@@@Z ; CMainToolImplementation::SetCoordinateType
  00040	5e		 pop	 esi

; 75   : 	SetParent(pParent);
; 76   : 	SetMainBlock(pMainBlock, p_pIChartOCX);
; 77   : 	SetBasePenColor(color);
; 78   : 	SetAutoPriceTool(bIsAutoPrice);
; 79   : 	SetCoordinateType(eCoordinateType);
; 80   : }

  00041	5d		 pop	 ebp
  00042	c2 18 00	 ret	 24			; 00000018H
?Set@CMainAnalysisTool@@IAEXPAVCWnd@@PAUIChartManager133101@@PAUIChartOCX133101@@ABK_NW4COORDINATETYPE@CAnalysis@@@Z ENDP ; CMainAnalysisTool::Set
_TEXT	ENDS
; Function compile flags: /Ogtp
; File D:\git\src\IBK\IBK_DRFN\ProjSrc\SrcChartEx\ChartAddIn\ChartAnalysisToolAddIn\AnalysisTool\MainAnalysisTool.cpp
;	COMDAT ?DoesAction@CMainAnalysisTool@@QBEHXZ
_TEXT	SEGMENT
?DoesAction@CMainAnalysisTool@@QBEHXZ PROC		; CMainAnalysisTool::DoesAction, COMDAT
; _this$ = ecx

; 297  : 	return m_pMainToolImpl->DoesAction();

  00000	8b 49 04	 mov	 ecx, DWORD PTR [ecx+4]
  00003	e8 00 00 00 00	 call	 ?DoesAction@CMainToolImplementation@@QBE_NXZ ; CMainToolImplementation::DoesAction
  00008	0f b6 c0	 movzx	 eax, al

; 298  : }

  0000b	c3		 ret	 0
?DoesAction@CMainAnalysisTool@@QBEHXZ ENDP		; CMainAnalysisTool::DoesAction
_TEXT	ENDS
; Function compile flags: /Ogtp
; File D:\git\src\IBK\IBK_DRFN\ProjSrc\SrcChartEx\ChartAddIn\ChartAnalysisToolAddIn\AnalysisTool\MainAnalysisTool.cpp
;	COMDAT ?RedoElement@CMainAnalysisTool@@QAEHJ@Z
_TEXT	SEGMENT
_lRedoID$ = 8						; size = 4
?RedoElement@CMainAnalysisTool@@QAEHJ@Z PROC		; CMainAnalysisTool::RedoElement, COMDAT
; _this$ = ecx

; 290  : {

  00000	55		 push	 ebp
  00001	8b ec		 mov	 ebp, esp

; 291  : 	return m_pMainToolImpl->RedoElement(lRedoID);

  00003	8b 49 04	 mov	 ecx, DWORD PTR [ecx+4]

; 292  : }

  00006	5d		 pop	 ebp

; 291  : 	return m_pMainToolImpl->RedoElement(lRedoID);

  00007	e9 00 00 00 00	 jmp	 ?RedoElement@CMainToolImplementation@@QAEHJ@Z ; CMainToolImplementation::RedoElement
?RedoElement@CMainAnalysisTool@@QAEHJ@Z ENDP		; CMainAnalysisTool::RedoElement
_TEXT	ENDS
; Function compile flags: /Ogtp
; File D:\git\src\IBK\IBK_DRFN\ProjSrc\SrcChartEx\ChartAddIn\ChartAnalysisToolAddIn\AnalysisTool\MainAnalysisTool.cpp
;	COMDAT ?UndoElement@CMainAnalysisTool@@QAEHJ@Z
_TEXT	SEGMENT
_lUndoID$ = 8						; size = 4
?UndoElement@CMainAnalysisTool@@QAEHJ@Z PROC		; CMainAnalysisTool::UndoElement, COMDAT
; _this$ = ecx

; 285  : {

  00000	55		 push	 ebp
  00001	8b ec		 mov	 ebp, esp

; 286  : 	return m_pMainToolImpl->UndoElement(lUndoID);

  00003	8b 49 04	 mov	 ecx, DWORD PTR [ecx+4]

; 287  : }

  00006	5d		 pop	 ebp

; 286  : 	return m_pMainToolImpl->UndoElement(lUndoID);

  00007	e9 00 00 00 00	 jmp	 ?UndoElement@CMainToolImplementation@@QAEHJ@Z ; CMainToolImplementation::UndoElement
?UndoElement@CMainAnalysisTool@@QAEHJ@Z ENDP		; CMainAnalysisTool::UndoElement
_TEXT	ENDS
; Function compile flags: /Ogtp
; File D:\git\src\IBK\IBK_DRFN\ProjSrc\SrcChartEx\ChartAddIn\ChartAnalysisToolAddIn\AnalysisTool\MainAnalysisTool.cpp
;	COMDAT ?ChangeAllElementsColor@CMainAnalysisTool@@QAEXABK0@Z
_TEXT	SEGMENT
_penColor$ = 8						; size = 4
_textColor$ = 12					; size = 4
?ChangeAllElementsColor@CMainAnalysisTool@@QAEXABK0@Z PROC ; CMainAnalysisTool::ChangeAllElementsColor, COMDAT
; _this$ = ecx

; 280  : {

  00000	55		 push	 ebp
  00001	8b ec		 mov	 ebp, esp

; 281  : 	m_pMainToolImpl->ChangeAllElementsColor(penColor, textColor);

  00003	8b 49 04	 mov	 ecx, DWORD PTR [ecx+4]

; 282  : }

  00006	5d		 pop	 ebp

; 281  : 	m_pMainToolImpl->ChangeAllElementsColor(penColor, textColor);

  00007	e9 00 00 00 00	 jmp	 ?ChangeAllElementsColor@CMainToolImplementation@@QAEXABK0@Z ; CMainToolImplementation::ChangeAllElementsColor
?ChangeAllElementsColor@CMainAnalysisTool@@QAEXABK0@Z ENDP ; CMainAnalysisTool::ChangeAllElementsColor
_TEXT	ENDS
; Function compile flags: /Ogtp
; File D:\git\src\IBK\IBK_DRFN\ProjSrc\SrcChartEx\ChartAddIn\ChartAnalysisToolAddIn\AnalysisTool\MainAnalysisTool.cpp
;	COMDAT ?DeleteAllElementInBlock@CMainAnalysisTool@@QAEXABVCBlockIndex@@@Z
_TEXT	SEGMENT
_blockIndex$ = 8					; size = 4
?DeleteAllElementInBlock@CMainAnalysisTool@@QAEXABVCBlockIndex@@@Z PROC ; CMainAnalysisTool::DeleteAllElementInBlock, COMDAT
; _this$ = ecx

; 273  : {

  00000	55		 push	 ebp
  00001	8b ec		 mov	 ebp, esp

; 274  : 	m_pMainToolImpl->DeleteAllElementInBlock(blockIndex);

  00003	8b 49 04	 mov	 ecx, DWORD PTR [ecx+4]

; 275  : }

  00006	5d		 pop	 ebp

; 274  : 	m_pMainToolImpl->DeleteAllElementInBlock(blockIndex);

  00007	e9 00 00 00 00	 jmp	 ?DeleteAllElementInBlock@CMainToolImplementation@@QAEXABVCBlockIndex@@@Z ; CMainToolImplementation::DeleteAllElementInBlock
?DeleteAllElementInBlock@CMainAnalysisTool@@QAEXABVCBlockIndex@@@Z ENDP ; CMainAnalysisTool::DeleteAllElementInBlock
_TEXT	ENDS
; Function compile flags: /Ogtp
; File D:\git\src\IBK\IBK_DRFN\ProjSrc\SrcChartEx\ChartAddIn\ChartAnalysisToolAddIn\AnalysisTool\MainAnalysisTool.cpp
;	COMDAT ?DeleteElementPos@CMainAnalysisTool@@QAEHJ@Z
_TEXT	SEGMENT
_lAddress$ = 8						; size = 4
?DeleteElementPos@CMainAnalysisTool@@QAEHJ@Z PROC	; CMainAnalysisTool::DeleteElementPos, COMDAT
; _this$ = ecx

; 267  : {

  00000	55		 push	 ebp
  00001	8b ec		 mov	 ebp, esp

; 268  : 	return m_pMainToolImpl->DeleteElementPos(lAddress);

  00003	8b 49 04	 mov	 ecx, DWORD PTR [ecx+4]

; 269  : }

  00006	5d		 pop	 ebp

; 268  : 	return m_pMainToolImpl->DeleteElementPos(lAddress);

  00007	e9 00 00 00 00	 jmp	 ?DeleteElementPos@CMainToolImplementation@@QAEHJ@Z ; CMainToolImplementation::DeleteElementPos
?DeleteElementPos@CMainAnalysisTool@@QAEHJ@Z ENDP	; CMainAnalysisTool::DeleteElementPos
_TEXT	ENDS
; Function compile flags: /Ogtp
; File D:\git\src\IBK\IBK_DRFN\ProjSrc\SrcChartEx\ChartAddIn\ChartAnalysisToolAddIn\AnalysisTool\MainAnalysisTool.cpp
;	COMDAT ?DeleteTail@CMainAnalysisTool@@QAEXXZ
_TEXT	SEGMENT
?DeleteTail@CMainAnalysisTool@@QAEXXZ PROC		; CMainAnalysisTool::DeleteTail, COMDAT
; _this$ = ecx

; 263  : 	m_pMainToolImpl->DeleteTail();

  00000	8b 49 04	 mov	 ecx, DWORD PTR [ecx+4]
  00003	e9 00 00 00 00	 jmp	 ?DeleteTail@CMainToolImplementation@@QAEXXZ ; CMainToolImplementation::DeleteTail
?DeleteTail@CMainAnalysisTool@@QAEXXZ ENDP		; CMainAnalysisTool::DeleteTail
_TEXT	ENDS
; Function compile flags: /Ogtp
; File D:\git\src\IBK\IBK_DRFN\ProjSrc\SrcChartEx\ChartAddIn\ChartAnalysisToolAddIn\AnalysisTool\MainAnalysisTool.cpp
;	COMDAT ?DeleteCurrentElement@CMainAnalysisTool@@QAE_NXZ
_TEXT	SEGMENT
?DeleteCurrentElement@CMainAnalysisTool@@QAE_NXZ PROC	; CMainAnalysisTool::DeleteCurrentElement, COMDAT
; _this$ = ecx

; 257  : 	return m_pMainToolImpl->DeleteCurrentElement();

  00000	8b 49 04	 mov	 ecx, DWORD PTR [ecx+4]
  00003	e9 00 00 00 00	 jmp	 ?DeleteCurrentElement@CMainToolImplementation@@QAE_NXZ ; CMainToolImplementation::DeleteCurrentElement
?DeleteCurrentElement@CMainAnalysisTool@@QAE_NXZ ENDP	; CMainAnalysisTool::DeleteCurrentElement
_TEXT	ENDS
; Function compile flags: /Ogtp
; File D:\git\src\IBK\IBK_DRFN\ProjSrc\SrcChartEx\ChartAddIn\ChartAnalysisToolAddIn\AnalysisTool\MainAnalysisTool.cpp
;	COMDAT ?DeleteElement@CMainAnalysisTool@@QAE_NW4ElementType@CToolEnumData@@@Z
_TEXT	SEGMENT
_eElementTYPE$ = 8					; size = 4
?DeleteElement@CMainAnalysisTool@@QAE_NW4ElementType@CToolEnumData@@@Z PROC ; CMainAnalysisTool::DeleteElement, COMDAT
; _this$ = ecx

; 250  : {

  00000	55		 push	 ebp
  00001	8b ec		 mov	 ebp, esp

; 251  : 	return m_pMainToolImpl->DeleteElement(eElementTYPE);

  00003	8b 49 04	 mov	 ecx, DWORD PTR [ecx+4]

; 252  : }

  00006	5d		 pop	 ebp

; 251  : 	return m_pMainToolImpl->DeleteElement(eElementTYPE);

  00007	e9 00 00 00 00	 jmp	 ?DeleteElement@CMainToolImplementation@@QAE_NW4ElementType@CToolEnumData@@@Z ; CMainToolImplementation::DeleteElement
?DeleteElement@CMainAnalysisTool@@QAE_NW4ElementType@CToolEnumData@@@Z ENDP ; CMainAnalysisTool::DeleteElement
_TEXT	ENDS
; Function compile flags: /Ogtp
; File D:\git\src\IBK\IBK_DRFN\ProjSrc\SrcChartEx\ChartAddIn\ChartAnalysisToolAddIn\AnalysisTool\MainAnalysisTool.cpp
;	COMDAT ?DeleteAllElement@CMainAnalysisTool@@QAEXXZ
_TEXT	SEGMENT
?DeleteAllElement@CMainAnalysisTool@@QAEXXZ PROC	; CMainAnalysisTool::DeleteAllElement, COMDAT
; _this$ = ecx

; 245  : 	m_pMainToolImpl->DeleteAllElement();

  00000	8b 49 04	 mov	 ecx, DWORD PTR [ecx+4]
  00003	e9 00 00 00 00	 jmp	 ?DeleteAllElement@CMainToolImplementation@@QAEXXZ ; CMainToolImplementation::DeleteAllElement
?DeleteAllElement@CMainAnalysisTool@@QAEXXZ ENDP	; CMainAnalysisTool::DeleteAllElement
_TEXT	ENDS
; Function compile flags: /Ogtp
; File D:\git\src\IBK\IBK_DRFN\ProjSrc\SrcChartEx\ChartAddIn\ChartAnalysisToolAddIn\AnalysisTool\MainAnalysisTool.cpp
;	COMDAT ?MoveElementTree@CMainAnalysisTool@@QAE_NABVCBlockIndex@@0@Z
_TEXT	SEGMENT
_sourceBlockIndex$ = 8					; size = 4
_targetBlockIndex$ = 12					; size = 4
?MoveElementTree@CMainAnalysisTool@@QAE_NABVCBlockIndex@@0@Z PROC ; CMainAnalysisTool::MoveElementTree, COMDAT
; _this$ = ecx

; 237  : {

  00000	55		 push	 ebp
  00001	8b ec		 mov	 ebp, esp

; 238  : 	return m_pMainToolImpl->MoveElementTree(sourceBlockIndex, targetBlockIndex);

  00003	8b 49 04	 mov	 ecx, DWORD PTR [ecx+4]

; 239  : }

  00006	5d		 pop	 ebp

; 238  : 	return m_pMainToolImpl->MoveElementTree(sourceBlockIndex, targetBlockIndex);

  00007	e9 00 00 00 00	 jmp	 ?MoveElementTree@CMainToolImplementation@@QAE_NABVCBlockIndex@@0@Z ; CMainToolImplementation::MoveElementTree
?MoveElementTree@CMainAnalysisTool@@QAE_NABVCBlockIndex@@0@Z ENDP ; CMainAnalysisTool::MoveElementTree
_TEXT	ENDS
; Function compile flags: /Ogtp
; File D:\git\src\IBK\IBK_DRFN\ProjSrc\SrcChartEx\ChartAddIn\ChartAnalysisToolAddIn\AnalysisTool\MainAnalysisTool.cpp
;	COMDAT ?InsertElementTree@CMainAnalysisTool@@QAE_NABVCBlockIndex@@@Z
_TEXT	SEGMENT
_insertBlockIndex$ = 8					; size = 4
?InsertElementTree@CMainAnalysisTool@@QAE_NABVCBlockIndex@@@Z PROC ; CMainAnalysisTool::InsertElementTree, COMDAT
; _this$ = ecx

; 231  : {

  00000	55		 push	 ebp
  00001	8b ec		 mov	 ebp, esp

; 232  : 	return m_pMainToolImpl->InsertElementTree(insertBlockIndex);

  00003	8b 49 04	 mov	 ecx, DWORD PTR [ecx+4]

; 233  : }

  00006	5d		 pop	 ebp

; 232  : 	return m_pMainToolImpl->InsertElementTree(insertBlockIndex);

  00007	e9 00 00 00 00	 jmp	 ?InsertElementTree@CMainToolImplementation@@QAE_NABVCBlockIndex@@@Z ; CMainToolImplementation::InsertElementTree
?InsertElementTree@CMainAnalysisTool@@QAE_NABVCBlockIndex@@@Z ENDP ; CMainAnalysisTool::InsertElementTree
_TEXT	ENDS
; Function compile flags: /Ogtp
; File D:\git\src\IBK\IBK_DRFN\ProjSrc\SrcChartEx\ChartAddIn\ChartAnalysisToolAddIn\AnalysisTool\MainAnalysisTool.cpp
;	COMDAT ?BuildElementsFromString@CMainAnalysisTool@@QAEXABV?$CStringT@DV?$StrTraitMFC_DLL@DV?$ChTraitsCRT@D@ATL@@@@@ATL@@@Z
_TEXT	SEGMENT
_strElementsData$ = 8					; size = 4
?BuildElementsFromString@CMainAnalysisTool@@QAEXABV?$CStringT@DV?$StrTraitMFC_DLL@DV?$ChTraitsCRT@D@ATL@@@@@ATL@@@Z PROC ; CMainAnalysisTool::BuildElementsFromString, COMDAT
; _this$ = ecx

; 225  : {

  00000	55		 push	 ebp
  00001	8b ec		 mov	 ebp, esp

; 226  : 	m_pMainToolImpl->BuildElementsFromString(strElementsData);

  00003	8b 49 04	 mov	 ecx, DWORD PTR [ecx+4]

; 227  : }

  00006	5d		 pop	 ebp

; 226  : 	m_pMainToolImpl->BuildElementsFromString(strElementsData);

  00007	e9 00 00 00 00	 jmp	 ?BuildElementsFromString@CMainToolImplementation@@QAEXABV?$CStringT@DV?$StrTraitMFC_DLL@DV?$ChTraitsCRT@D@ATL@@@@@ATL@@@Z ; CMainToolImplementation::BuildElementsFromString
?BuildElementsFromString@CMainAnalysisTool@@QAEXABV?$CStringT@DV?$StrTraitMFC_DLL@DV?$ChTraitsCRT@D@ATL@@@@@ATL@@@Z ENDP ; CMainAnalysisTool::BuildElementsFromString
_TEXT	ENDS
; Function compile flags: /Ogtp
; File D:\git\src\IBK\IBK_DRFN\ProjSrc\SrcChartEx\ChartAddIn\ChartAnalysisToolAddIn\AnalysisTool\MainAnalysisTool.cpp
;	COMDAT ?DrawTool@CMainAnalysisTool@@QAEXPAVCDC@@@Z
_TEXT	SEGMENT
_pDC$ = 8						; size = 4
?DrawTool@CMainAnalysisTool@@QAEXPAVCDC@@@Z PROC	; CMainAnalysisTool::DrawTool, COMDAT
; _this$ = ecx

; 219  : {

  00000	55		 push	 ebp
  00001	8b ec		 mov	 ebp, esp

; 220  : 	m_pMainToolImpl->DrawTool(pDC);

  00003	8b 49 04	 mov	 ecx, DWORD PTR [ecx+4]

; 221  : }

  00006	5d		 pop	 ebp

; 220  : 	m_pMainToolImpl->DrawTool(pDC);

  00007	e9 00 00 00 00	 jmp	 ?DrawTool@CMainToolImplementation@@QAEXPAVCDC@@@Z ; CMainToolImplementation::DrawTool
?DrawTool@CMainAnalysisTool@@QAEXPAVCDC@@@Z ENDP	; CMainAnalysisTool::DrawTool
_TEXT	ENDS
; Function compile flags: /Ogtp
; File D:\git\src\IBK\IBK_DRFN\ProjSrc\SrcChartEx\ChartAddIn\ChartAnalysisToolAddIn\AnalysisTool\MainAnalysisTool.cpp
;	COMDAT ?OnDraw@CMainAnalysisTool@@QAEXPAVCDC@@H@Z
_TEXT	SEGMENT
_pDC$ = 8						; size = 4
_bDrawAfter$ = 12					; size = 4
?OnDraw@CMainAnalysisTool@@QAEXPAVCDC@@H@Z PROC		; CMainAnalysisTool::OnDraw, COMDAT
; _this$ = ecx

; 214  : {

  00000	55		 push	 ebp
  00001	8b ec		 mov	 ebp, esp

; 215  : 	m_pMainToolImpl->OnDraw(pDC);

  00003	ff 75 08	 push	 DWORD PTR _pDC$[ebp]
  00006	8b 49 04	 mov	 ecx, DWORD PTR [ecx+4]
  00009	e8 00 00 00 00	 call	 ?OnDraw@CMainToolImplementation@@QAEXPAVCDC@@@Z ; CMainToolImplementation::OnDraw

; 216  : }

  0000e	5d		 pop	 ebp
  0000f	c2 08 00	 ret	 8
?OnDraw@CMainAnalysisTool@@QAEXPAVCDC@@H@Z ENDP		; CMainAnalysisTool::OnDraw
_TEXT	ENDS
; Function compile flags: /Ogtp
; File D:\git\src\IBK\IBK_DRFN\ProjSrc\SrcChartEx\ChartAddIn\ChartAnalysisToolAddIn\AnalysisTool\MainAnalysisTool.cpp
;	COMDAT ?GetCurrentPosData@CMainAnalysisTool@@QAEHVCPoint@@AAV?$CStringT@DV?$StrTraitMFC_DLL@DV?$ChTraitsCRT@D@ATL@@@@@ATL@@1@Z
_TEXT	SEGMENT
_point$ = 8						; size = 8
_strTextRight$ = 16					; size = 4
_strTextBottom$ = 20					; size = 4
?GetCurrentPosData@CMainAnalysisTool@@QAEHVCPoint@@AAV?$CStringT@DV?$StrTraitMFC_DLL@DV?$ChTraitsCRT@D@ATL@@@@@ATL@@1@Z PROC ; CMainAnalysisTool::GetCurrentPosData, COMDAT
; _this$ = ecx

; 209  : {

  00000	55		 push	 ebp
  00001	8b ec		 mov	 ebp, esp

; 210  : 	return m_pMainToolImpl->GetCurrentPosData(point,strTextRight,strTextBottom);

  00003	ff 75 14	 push	 DWORD PTR _strTextBottom$[ebp]
  00006	8b 49 04	 mov	 ecx, DWORD PTR [ecx+4]
  00009	ff 75 10	 push	 DWORD PTR _strTextRight$[ebp]
  0000c	ff 75 0c	 push	 DWORD PTR _point$[ebp+4]
  0000f	ff 75 08	 push	 DWORD PTR _point$[ebp]
  00012	e8 00 00 00 00	 call	 ?GetCurrentPosData@CMainToolImplementation@@QAEHVCPoint@@AAV?$CStringT@DV?$StrTraitMFC_DLL@DV?$ChTraitsCRT@D@ATL@@@@@ATL@@1@Z ; CMainToolImplementation::GetCurrentPosData

; 211  : }

  00017	5d		 pop	 ebp
  00018	c2 10 00	 ret	 16			; 00000010H
?GetCurrentPosData@CMainAnalysisTool@@QAEHVCPoint@@AAV?$CStringT@DV?$StrTraitMFC_DLL@DV?$ChTraitsCRT@D@ATL@@@@@ATL@@1@Z ENDP ; CMainAnalysisTool::GetCurrentPosData
_TEXT	ENDS
; Function compile flags: /Ogtp
; File D:\git\src\IBK\IBK_DRFN\ProjSrc\SrcChartEx\ChartAddIn\ChartAnalysisToolAddIn\AnalysisTool\MainAnalysisTool.cpp
;	COMDAT ?GetGraphTotalRegion@CMainAnalysisTool@@QAE?AVCRect@@VCPoint@@@Z
_TEXT	SEGMENT
___$ReturnUdt$ = 8					; size = 4
_point$ = 12						; size = 8
?GetGraphTotalRegion@CMainAnalysisTool@@QAE?AVCRect@@VCPoint@@@Z PROC ; CMainAnalysisTool::GetGraphTotalRegion, COMDAT
; _this$ = ecx

; 204  : {

  00000	55		 push	 ebp
  00001	8b ec		 mov	 ebp, esp

; 205  : 	return m_pMainToolImpl->GetGraphTotalRegion(point);

  00003	ff 75 10	 push	 DWORD PTR _point$[ebp+4]
  00006	8b 49 04	 mov	 ecx, DWORD PTR [ecx+4]
  00009	ff 75 0c	 push	 DWORD PTR _point$[ebp]
  0000c	ff 75 08	 push	 DWORD PTR ___$ReturnUdt$[ebp]
  0000f	e8 00 00 00 00	 call	 ?GetGraphTotalRegion@CMainToolImplementation@@QAE?AVCRect@@VCPoint@@@Z ; CMainToolImplementation::GetGraphTotalRegion
  00014	8b 45 08	 mov	 eax, DWORD PTR ___$ReturnUdt$[ebp]

; 206  : }

  00017	5d		 pop	 ebp
  00018	c2 0c 00	 ret	 12			; 0000000cH
?GetGraphTotalRegion@CMainAnalysisTool@@QAE?AVCRect@@VCPoint@@@Z ENDP ; CMainAnalysisTool::GetGraphTotalRegion
_TEXT	ENDS
; Function compile flags: /Ogtp
; File D:\git\src\IBK\IBK_DRFN\ProjSrc\SrcChartEx\ChartAddIn\ChartAnalysisToolAddIn\AnalysisTool\MainAnalysisTool.cpp
;	COMDAT ?OnMenu@CMainAnalysisTool@@QAE_NW4ELEMENTMENU@CMenuType@@I@Z
_TEXT	SEGMENT
_menuType$ = 8						; size = 4
_wParam$ = 12						; size = 4
?OnMenu@CMainAnalysisTool@@QAE_NW4ELEMENTMENU@CMenuType@@I@Z PROC ; CMainAnalysisTool::OnMenu, COMDAT
; _this$ = ecx

; 199  : {

  00000	55		 push	 ebp
  00001	8b ec		 mov	 ebp, esp

; 200  : 	return m_pMainToolImpl->OnMenu(menuType, wParam);

  00003	8b 49 04	 mov	 ecx, DWORD PTR [ecx+4]

; 201  : }

  00006	5d		 pop	 ebp

; 200  : 	return m_pMainToolImpl->OnMenu(menuType, wParam);

  00007	e9 00 00 00 00	 jmp	 ?OnMenu@CMainToolImplementation@@QAE_NW4ELEMENTMENU@CMenuType@@I@Z ; CMainToolImplementation::OnMenu
?OnMenu@CMainAnalysisTool@@QAE_NW4ELEMENTMENU@CMenuType@@I@Z ENDP ; CMainAnalysisTool::OnMenu
_TEXT	ENDS
; Function compile flags: /Ogtp
; File D:\git\src\IBK\IBK_DRFN\ProjSrc\SrcChartEx\ChartAddIn\ChartAnalysisToolAddIn\AnalysisTool\MainAnalysisTool.cpp
;	COMDAT ?OnRButtonUp@CMainAnalysisTool@@QAE?AW4MENUTYPE@CMenuType@@PAVCDC@@ABVCPoint@@@Z
_TEXT	SEGMENT
_pDC$ = 8						; size = 4
_point$ = 12						; size = 4
?OnRButtonUp@CMainAnalysisTool@@QAE?AW4MENUTYPE@CMenuType@@PAVCDC@@ABVCPoint@@@Z PROC ; CMainAnalysisTool::OnRButtonUp, COMDAT
; _this$ = ecx

; 194  : {

  00000	55		 push	 ebp
  00001	8b ec		 mov	 ebp, esp

; 195  : 	return m_pMainToolImpl->OnRButtonUp(pDC, point);

  00003	8b 49 04	 mov	 ecx, DWORD PTR [ecx+4]

; 196  : }

  00006	5d		 pop	 ebp

; 195  : 	return m_pMainToolImpl->OnRButtonUp(pDC, point);

  00007	e9 00 00 00 00	 jmp	 ?OnRButtonUp@CMainToolImplementation@@QAE?AW4MENUTYPE@CMenuType@@PAVCDC@@ABVCPoint@@@Z ; CMainToolImplementation::OnRButtonUp
?OnRButtonUp@CMainAnalysisTool@@QAE?AW4MENUTYPE@CMenuType@@PAVCDC@@ABVCPoint@@@Z ENDP ; CMainAnalysisTool::OnRButtonUp
_TEXT	ENDS
; Function compile flags: /Ogtp
; File D:\git\src\IBK\IBK_DRFN\ProjSrc\SrcChartEx\ChartAddIn\ChartAnalysisToolAddIn\AnalysisTool\MainAnalysisTool.cpp
;	COMDAT ?OnMouseMove@CMainAnalysisTool@@QAE_NPAVCDC@@ABVCPoint@@HQAUHBITMAP__@@@Z
_TEXT	SEGMENT
_pDC$ = 8						; size = 4
_point$ = 12						; size = 4
_nFlags$ = 16						; size = 4
_p_hbmpMainOSB$ = 20					; size = 4
?OnMouseMove@CMainAnalysisTool@@QAE_NPAVCDC@@ABVCPoint@@HQAUHBITMAP__@@@Z PROC ; CMainAnalysisTool::OnMouseMove, COMDAT
; _this$ = ecx

; 189  : {

  00000	55		 push	 ebp
  00001	8b ec		 mov	 ebp, esp

; 190  : 	return m_pMainToolImpl->OnMouseMove(pDC, point,nFlags,p_hbmpMainOSB);

  00003	8b 49 04	 mov	 ecx, DWORD PTR [ecx+4]

; 191  : }

  00006	5d		 pop	 ebp

; 190  : 	return m_pMainToolImpl->OnMouseMove(pDC, point,nFlags,p_hbmpMainOSB);

  00007	e9 00 00 00 00	 jmp	 ?OnMouseMove@CMainToolImplementation@@QAE_NPAVCDC@@ABVCPoint@@HQAUHBITMAP__@@@Z ; CMainToolImplementation::OnMouseMove
?OnMouseMove@CMainAnalysisTool@@QAE_NPAVCDC@@ABVCPoint@@HQAUHBITMAP__@@@Z ENDP ; CMainAnalysisTool::OnMouseMove
_TEXT	ENDS
; Function compile flags: /Ogtp
; File D:\git\src\IBK\IBK_DRFN\ProjSrc\SrcChartEx\ChartAddIn\ChartAnalysisToolAddIn\AnalysisTool\MainAnalysisTool.cpp
;	COMDAT ?OnLButtonUp@CMainAnalysisTool@@QAE_NPAVCDC@@ABVCPoint@@@Z
_TEXT	SEGMENT
_pDC$ = 8						; size = 4
_point$ = 12						; size = 4
?OnLButtonUp@CMainAnalysisTool@@QAE_NPAVCDC@@ABVCPoint@@@Z PROC ; CMainAnalysisTool::OnLButtonUp, COMDAT
; _this$ = ecx

; 184  : {

  00000	55		 push	 ebp
  00001	8b ec		 mov	 ebp, esp

; 185  : 	return m_pMainToolImpl->OnLButtonUp(pDC, point);

  00003	8b 49 04	 mov	 ecx, DWORD PTR [ecx+4]

; 186  : }

  00006	5d		 pop	 ebp

; 185  : 	return m_pMainToolImpl->OnLButtonUp(pDC, point);

  00007	e9 00 00 00 00	 jmp	 ?OnLButtonUp@CMainToolImplementation@@QAE_NPAVCDC@@ABVCPoint@@@Z ; CMainToolImplementation::OnLButtonUp
?OnLButtonUp@CMainAnalysisTool@@QAE_NPAVCDC@@ABVCPoint@@@Z ENDP ; CMainAnalysisTool::OnLButtonUp
_TEXT	ENDS
; Function compile flags: /Ogtp
; File D:\git\src\IBK\IBK_DRFN\ProjSrc\SrcChartEx\ChartAddIn\ChartAnalysisToolAddIn\AnalysisTool\MainAnalysisTool.cpp
;	COMDAT ?OnLButtonDbClk@CMainAnalysisTool@@QAE_NPAVCDC@@ABVCPoint@@@Z
_TEXT	SEGMENT
_pDC$ = 8						; size = 4
_point$ = 12						; size = 4
?OnLButtonDbClk@CMainAnalysisTool@@QAE_NPAVCDC@@ABVCPoint@@@Z PROC ; CMainAnalysisTool::OnLButtonDbClk, COMDAT
; _this$ = ecx

; 179  : {

  00000	55		 push	 ebp
  00001	8b ec		 mov	 ebp, esp

; 180  : 	return m_pMainToolImpl->OnLButtonDbClk(pDC, point);

  00003	8b 49 04	 mov	 ecx, DWORD PTR [ecx+4]

; 181  : }

  00006	5d		 pop	 ebp

; 180  : 	return m_pMainToolImpl->OnLButtonDbClk(pDC, point);

  00007	e9 00 00 00 00	 jmp	 ?OnLButtonDbClk@CMainToolImplementation@@QAE_NPAVCDC@@ABVCPoint@@@Z ; CMainToolImplementation::OnLButtonDbClk
?OnLButtonDbClk@CMainAnalysisTool@@QAE_NPAVCDC@@ABVCPoint@@@Z ENDP ; CMainAnalysisTool::OnLButtonDbClk
_TEXT	ENDS
; Function compile flags: /Ogtp
; File D:\git\src\IBK\IBK_DRFN\ProjSrc\SrcChartEx\ChartAddIn\ChartAnalysisToolAddIn\AnalysisTool\MainAnalysisTool.cpp
;	COMDAT ?OnLButtonDown@CMainAnalysisTool@@QAE_NPAVCDC@@ABVCPoint@@@Z
_TEXT	SEGMENT
_pDC$ = 8						; size = 4
_point$ = 12						; size = 4
?OnLButtonDown@CMainAnalysisTool@@QAE_NPAVCDC@@ABVCPoint@@@Z PROC ; CMainAnalysisTool::OnLButtonDown, COMDAT
; _this$ = ecx

; 174  : {

  00000	55		 push	 ebp
  00001	8b ec		 mov	 ebp, esp

; 175  : 	return m_pMainToolImpl->OnLButtonDown(pDC, point);

  00003	8b 49 04	 mov	 ecx, DWORD PTR [ecx+4]

; 176  : }

  00006	5d		 pop	 ebp

; 175  : 	return m_pMainToolImpl->OnLButtonDown(pDC, point);

  00007	e9 00 00 00 00	 jmp	 ?OnLButtonDown@CMainToolImplementation@@QAE_NPAVCDC@@ABVCPoint@@@Z ; CMainToolImplementation::OnLButtonDown
?OnLButtonDown@CMainAnalysisTool@@QAE_NPAVCDC@@ABVCPoint@@@Z ENDP ; CMainAnalysisTool::OnLButtonDown
_TEXT	ENDS
; Function compile flags: /Ogtp
; File D:\git\src\IBK\IBK_DRFN\ProjSrc\SrcChartEx\ChartAddIn\ChartAnalysisToolAddIn\AnalysisTool\MainAnalysisTool.cpp
;	COMDAT ?SetBalanceCoefficient@CMainAnalysisTool@@QAEXW4TOOLTYPE@CAnalysis@@ABV?$CStringT@DV?$StrTraitMFC_DLL@DV?$ChTraitsCRT@D@ATL@@@@@ATL@@@Z
_TEXT	SEGMENT
_eToolType$ = 8						; size = 4
_strBalanceCoefficient$ = 12				; size = 4
?SetBalanceCoefficient@CMainAnalysisTool@@QAEXW4TOOLTYPE@CAnalysis@@ABV?$CStringT@DV?$StrTraitMFC_DLL@DV?$ChTraitsCRT@D@ATL@@@@@ATL@@@Z PROC ; CMainAnalysisTool::SetBalanceCoefficient, COMDAT
; _this$ = ecx

; 167  : {

  00000	55		 push	 ebp
  00001	8b ec		 mov	 ebp, esp

; 168  : 	m_pMainToolImpl->SetBalanceCoefficient(eToolType, strBalanceCoefficient);

  00003	8b 49 04	 mov	 ecx, DWORD PTR [ecx+4]

; 169  : }

  00006	5d		 pop	 ebp

; 168  : 	m_pMainToolImpl->SetBalanceCoefficient(eToolType, strBalanceCoefficient);

  00007	e9 00 00 00 00	 jmp	 ?SetBalanceCoefficient@CMainToolImplementation@@QAEXW4TOOLTYPE@CAnalysis@@ABV?$CStringT@DV?$StrTraitMFC_DLL@DV?$ChTraitsCRT@D@ATL@@@@@ATL@@@Z ; CMainToolImplementation::SetBalanceCoefficient
?SetBalanceCoefficient@CMainAnalysisTool@@QAEXW4TOOLTYPE@CAnalysis@@ABV?$CStringT@DV?$StrTraitMFC_DLL@DV?$ChTraitsCRT@D@ATL@@@@@ATL@@@Z ENDP ; CMainAnalysisTool::SetBalanceCoefficient
_TEXT	ENDS
; Function compile flags: /Ogtp
; File D:\git\src\IBK\IBK_DRFN\ProjSrc\SrcChartEx\ChartAddIn\ChartAnalysisToolAddIn\AnalysisTool\MainAnalysisTool.cpp
;	COMDAT ?SetFiboCoefficient@CMainAnalysisTool@@QAEXW4TOOLTYPE@CAnalysis@@ABV?$CStringT@DV?$StrTraitMFC_DLL@DV?$ChTraitsCRT@D@ATL@@@@@ATL@@@Z
_TEXT	SEGMENT
_eToolType$ = 8						; size = 4
_strFiboCoefficient$ = 12				; size = 4
?SetFiboCoefficient@CMainAnalysisTool@@QAEXW4TOOLTYPE@CAnalysis@@ABV?$CStringT@DV?$StrTraitMFC_DLL@DV?$ChTraitsCRT@D@ATL@@@@@ATL@@@Z PROC ; CMainAnalysisTool::SetFiboCoefficient, COMDAT
; _this$ = ecx

; 160  : {

  00000	55		 push	 ebp
  00001	8b ec		 mov	 ebp, esp

; 161  : 	m_pMainToolImpl->SetFiboCoefficient(eToolType, strFiboCoefficient);

  00003	8b 49 04	 mov	 ecx, DWORD PTR [ecx+4]

; 162  : }

  00006	5d		 pop	 ebp

; 161  : 	m_pMainToolImpl->SetFiboCoefficient(eToolType, strFiboCoefficient);

  00007	e9 00 00 00 00	 jmp	 ?SetFiboCoefficient@CMainToolImplementation@@QAEXW4TOOLTYPE@CAnalysis@@ABV?$CStringT@DV?$StrTraitMFC_DLL@DV?$ChTraitsCRT@D@ATL@@@@@ATL@@@Z ; CMainToolImplementation::SetFiboCoefficient
?SetFiboCoefficient@CMainAnalysisTool@@QAEXW4TOOLTYPE@CAnalysis@@ABV?$CStringT@DV?$StrTraitMFC_DLL@DV?$ChTraitsCRT@D@ATL@@@@@ATL@@@Z ENDP ; CMainAnalysisTool::SetFiboCoefficient
_TEXT	ENDS
; Function compile flags: /Ogtp
; File D:\git\src\IBK\IBK_DRFN\ProjSrc\SrcChartEx\ChartAddIn\ChartAnalysisToolAddIn\AnalysisTool\MainAnalysisTool.cpp
;	COMDAT ?SetCurrentAnalysisTool@CMainAnalysisTool@@QAEXW4TOOLTYPE@CAnalysis@@@Z
_TEXT	SEGMENT
_eToolType$ = 8						; size = 4
?SetCurrentAnalysisTool@CMainAnalysisTool@@QAEXW4TOOLTYPE@CAnalysis@@@Z PROC ; CMainAnalysisTool::SetCurrentAnalysisTool, COMDAT
; _this$ = ecx

; 154  : {

  00000	55		 push	 ebp
  00001	8b ec		 mov	 ebp, esp

; 155  : 	m_pMainToolImpl->SetCurrentAnalysisTool(eToolType);

  00003	8b 49 04	 mov	 ecx, DWORD PTR [ecx+4]
  00006	6a 01		 push	 1
  00008	ff 75 08	 push	 DWORD PTR _eToolType$[ebp]
  0000b	e8 00 00 00 00	 call	 ?SetCurrentAnalysisTool@CMainToolImplementation@@QAEXW4TOOLTYPE@CAnalysis@@H@Z ; CMainToolImplementation::SetCurrentAnalysisTool

; 156  : }

  00010	5d		 pop	 ebp
  00011	c2 04 00	 ret	 4
?SetCurrentAnalysisTool@CMainAnalysisTool@@QAEXW4TOOLTYPE@CAnalysis@@@Z ENDP ; CMainAnalysisTool::SetCurrentAnalysisTool
_TEXT	ENDS
; Function compile flags: /Ogtp
; File D:\git\src\IBK\IBK_DRFN\ProjSrc\SrcChartEx\ChartAddIn\ChartAnalysisToolAddIn\AnalysisTool\MainAnalysisTool.cpp
;	COMDAT ?SetCoordinateType@CMainAnalysisTool@@QAEXW4COORDINATETYPE@CAnalysis@@@Z
_TEXT	SEGMENT
_eCoordinateType$ = 8					; size = 4
?SetCoordinateType@CMainAnalysisTool@@QAEXW4COORDINATETYPE@CAnalysis@@@Z PROC ; CMainAnalysisTool::SetCoordinateType, COMDAT
; _this$ = ecx

; 149  : {

  00000	55		 push	 ebp
  00001	8b ec		 mov	 ebp, esp

; 150  : 	m_pMainToolImpl->SetCoordinateType(eCoordinateType);

  00003	8b 49 04	 mov	 ecx, DWORD PTR [ecx+4]

; 151  : }

  00006	5d		 pop	 ebp

; 150  : 	m_pMainToolImpl->SetCoordinateType(eCoordinateType);

  00007	e9 00 00 00 00	 jmp	 ?SetCoordinateType@CMainToolImplementation@@QAEXW4COORDINATETYPE@CAnalysis@@@Z ; CMainToolImplementation::SetCoordinateType
?SetCoordinateType@CMainAnalysisTool@@QAEXW4COORDINATETYPE@CAnalysis@@@Z ENDP ; CMainAnalysisTool::SetCoordinateType
_TEXT	ENDS
; Function compile flags: /Ogtp
; File D:\git\src\IBK\IBK_DRFN\ProjSrc\SrcChartEx\ChartAddIn\ChartAnalysisToolAddIn\AnalysisTool\MainAnalysisTool.cpp
;	COMDAT ?SetPriceRangeDivEnvironment@CMainAnalysisTool@@QAEXW4TOOLTYPE@CAnalysis@@ABH@Z
_TEXT	SEGMENT
_eToolType$ = 8						; size = 4
_nPriceRangeDiv$ = 12					; size = 4
?SetPriceRangeDivEnvironment@CMainAnalysisTool@@QAEXW4TOOLTYPE@CAnalysis@@ABH@Z PROC ; CMainAnalysisTool::SetPriceRangeDivEnvironment, COMDAT
; _this$ = ecx

; 144  : {

  00000	55		 push	 ebp
  00001	8b ec		 mov	 ebp, esp

; 145  : 	m_pMainToolImpl->SetPriceRangeDivEnvironment(eToolType, nPriceRangeDiv);

  00003	8b 49 04	 mov	 ecx, DWORD PTR [ecx+4]

; 146  : }

  00006	5d		 pop	 ebp

; 145  : 	m_pMainToolImpl->SetPriceRangeDivEnvironment(eToolType, nPriceRangeDiv);

  00007	e9 00 00 00 00	 jmp	 ?SetPriceRangeDivEnvironment@CMainToolImplementation@@QAEXW4TOOLTYPE@CAnalysis@@ABH@Z ; CMainToolImplementation::SetPriceRangeDivEnvironment
?SetPriceRangeDivEnvironment@CMainAnalysisTool@@QAEXW4TOOLTYPE@CAnalysis@@ABH@Z ENDP ; CMainAnalysisTool::SetPriceRangeDivEnvironment
_TEXT	ENDS
; Function compile flags: /Ogtp
; File D:\git\src\IBK\IBK_DRFN\ProjSrc\SrcChartEx\ChartAddIn\ChartAnalysisToolAddIn\AnalysisTool\MainAnalysisTool.cpp
;	COMDAT ?SetEquiDivEnvironment@CMainAnalysisTool@@QAEXW4TOOLTYPE@CAnalysis@@ABH@Z
_TEXT	SEGMENT
_eToolType$ = 8						; size = 4
_nEquiDiv$ = 12						; size = 4
?SetEquiDivEnvironment@CMainAnalysisTool@@QAEXW4TOOLTYPE@CAnalysis@@ABH@Z PROC ; CMainAnalysisTool::SetEquiDivEnvironment, COMDAT
; _this$ = ecx

; 138  : {

  00000	55		 push	 ebp
  00001	8b ec		 mov	 ebp, esp

; 139  : 	m_pMainToolImpl->SetEquiDivEnvironment(eToolType, nEquiDiv);

  00003	8b 49 04	 mov	 ecx, DWORD PTR [ecx+4]

; 140  : }

  00006	5d		 pop	 ebp

; 139  : 	m_pMainToolImpl->SetEquiDivEnvironment(eToolType, nEquiDiv);

  00007	e9 00 00 00 00	 jmp	 ?SetEquiDivEnvironment@CMainToolImplementation@@QAEXW4TOOLTYPE@CAnalysis@@ABH@Z ; CMainToolImplementation::SetEquiDivEnvironment
?SetEquiDivEnvironment@CMainAnalysisTool@@QAEXW4TOOLTYPE@CAnalysis@@ABH@Z ENDP ; CMainAnalysisTool::SetEquiDivEnvironment
_TEXT	ENDS
; Function compile flags: /Ogtp
; File D:\git\src\IBK\IBK_DRFN\ProjSrc\SrcChartEx\ChartAddIn\ChartAnalysisToolAddIn\AnalysisTool\MainAnalysisTool.cpp
;	COMDAT ?SetLineExtEnvironment@CMainAnalysisTool@@QAEXW4TOOLTYPE@CAnalysis@@ABH1@Z
_TEXT	SEGMENT
_eToolType$ = 8						; size = 4
_nLeftExt$ = 12						; size = 4
_nRightExt$ = 16					; size = 4
?SetLineExtEnvironment@CMainAnalysisTool@@QAEXW4TOOLTYPE@CAnalysis@@ABH1@Z PROC ; CMainAnalysisTool::SetLineExtEnvironment, COMDAT
; _this$ = ecx

; 133  : {

  00000	55		 push	 ebp
  00001	8b ec		 mov	 ebp, esp

; 134  : 	m_pMainToolImpl->SetLineExtEnvironment(eToolType, nLeftExt, nRightExt);

  00003	8b 49 04	 mov	 ecx, DWORD PTR [ecx+4]

; 135  : }

  00006	5d		 pop	 ebp

; 134  : 	m_pMainToolImpl->SetLineExtEnvironment(eToolType, nLeftExt, nRightExt);

  00007	e9 00 00 00 00	 jmp	 ?SetLineExtEnvironment@CMainToolImplementation@@QAEXW4TOOLTYPE@CAnalysis@@ABH1@Z ; CMainToolImplementation::SetLineExtEnvironment
?SetLineExtEnvironment@CMainAnalysisTool@@QAEXW4TOOLTYPE@CAnalysis@@ABH1@Z ENDP ; CMainAnalysisTool::SetLineExtEnvironment
_TEXT	ENDS
; Function compile flags: /Ogtp
; File D:\git\src\IBK\IBK_DRFN\ProjSrc\SrcChartEx\ChartAddIn\ChartAnalysisToolAddIn\AnalysisTool\MainAnalysisTool.cpp
;	COMDAT ?SetTextPosition@CMainAnalysisTool@@QAEXW4TOOLTYPE@CAnalysis@@_N1111@Z
_TEXT	SEGMENT
_eToolType$ = 8						; size = 4
_bLeft$ = 12						; size = 1
_bRight$ = 16						; size = 1
_bTop$ = 20						; size = 1
_bBottom$ = 24						; size = 1
_bRightRate$ = 28					; size = 1
?SetTextPosition@CMainAnalysisTool@@QAEXW4TOOLTYPE@CAnalysis@@_N1111@Z PROC ; CMainAnalysisTool::SetTextPosition, COMDAT
; _this$ = ecx

; 128  : {

  00000	55		 push	 ebp
  00001	8b ec		 mov	 ebp, esp

; 129  : 	m_pMainToolImpl->SetTextPosition(eToolType, bLeft, bRight, bTop, bBottom, bRightRate);

  00003	8b 49 04	 mov	 ecx, DWORD PTR [ecx+4]

; 130  : }

  00006	5d		 pop	 ebp

; 129  : 	m_pMainToolImpl->SetTextPosition(eToolType, bLeft, bRight, bTop, bBottom, bRightRate);

  00007	e9 00 00 00 00	 jmp	 ?SetTextPosition@CMainToolImplementation@@QAEXW4TOOLTYPE@CAnalysis@@_N1111@Z ; CMainToolImplementation::SetTextPosition
?SetTextPosition@CMainAnalysisTool@@QAEXW4TOOLTYPE@CAnalysis@@_N1111@Z ENDP ; CMainAnalysisTool::SetTextPosition
_TEXT	ENDS
; Function compile flags: /Ogtp
; File D:\git\src\IBK\IBK_DRFN\ProjSrc\SrcChartEx\ChartAddIn\ChartAnalysisToolAddIn\AnalysisTool\MainAnalysisTool.cpp
;	COMDAT ?SetLineDrawingInfo@CMainAnalysisTool@@QAEXW4TOOLTYPE@CAnalysis@@KHH@Z
_TEXT	SEGMENT
_eToolType$ = 8						; size = 4
_crLine$ = 12						; size = 4
_nStyle$ = 16						; size = 4
_nWeight$ = 20						; size = 4
?SetLineDrawingInfo@CMainAnalysisTool@@QAEXW4TOOLTYPE@CAnalysis@@KHH@Z PROC ; CMainAnalysisTool::SetLineDrawingInfo, COMDAT
; _this$ = ecx

; 123  : {

  00000	55		 push	 ebp
  00001	8b ec		 mov	 ebp, esp

; 124  : 	m_pMainToolImpl->SetLineDrawingInfo(eToolType,crLine,nStyle,nWeight);

  00003	8b 49 04	 mov	 ecx, DWORD PTR [ecx+4]

; 125  : }

  00006	5d		 pop	 ebp

; 124  : 	m_pMainToolImpl->SetLineDrawingInfo(eToolType,crLine,nStyle,nWeight);

  00007	e9 00 00 00 00	 jmp	 ?SetLineDrawingInfo@CMainToolImplementation@@QAEXW4TOOLTYPE@CAnalysis@@KHH@Z ; CMainToolImplementation::SetLineDrawingInfo
?SetLineDrawingInfo@CMainAnalysisTool@@QAEXW4TOOLTYPE@CAnalysis@@KHH@Z ENDP ; CMainAnalysisTool::SetLineDrawingInfo
_TEXT	ENDS
; Function compile flags: /Ogtp
; File D:\git\src\IBK\IBK_DRFN\ProjSrc\SrcChartEx\ChartAddIn\ChartAnalysisToolAddIn\AnalysisTool\MainAnalysisTool.cpp
;	COMDAT ?SetBasePenThickness@CMainAnalysisTool@@QAEXH@Z
_TEXT	SEGMENT
_nThickness$ = 8					; size = 4
?SetBasePenThickness@CMainAnalysisTool@@QAEXH@Z PROC	; CMainAnalysisTool::SetBasePenThickness, COMDAT
; _this$ = ecx

; 118  : {

  00000	55		 push	 ebp
  00001	8b ec		 mov	 ebp, esp

; 119  : 	m_pMainToolImpl->SetBasePenThickness(nThickness);

  00003	8b 49 04	 mov	 ecx, DWORD PTR [ecx+4]

; 120  : }

  00006	5d		 pop	 ebp

; 119  : 	m_pMainToolImpl->SetBasePenThickness(nThickness);

  00007	e9 00 00 00 00	 jmp	 ?SetBasePenThickness@CMainToolImplementation@@QAEXH@Z ; CMainToolImplementation::SetBasePenThickness
?SetBasePenThickness@CMainAnalysisTool@@QAEXH@Z ENDP	; CMainAnalysisTool::SetBasePenThickness
_TEXT	ENDS
; Function compile flags: /Ogtp
; File D:\git\src\IBK\IBK_DRFN\ProjSrc\SrcChartEx\ChartAddIn\ChartAnalysisToolAddIn\AnalysisTool\MainAnalysisTool.cpp
;	COMDAT ?SetBasePenColor@CMainAnalysisTool@@QAEXABK@Z
_TEXT	SEGMENT
_color$ = 8						; size = 4
?SetBasePenColor@CMainAnalysisTool@@QAEXABK@Z PROC	; CMainAnalysisTool::SetBasePenColor, COMDAT
; _this$ = ecx

; 113  : {

  00000	55		 push	 ebp
  00001	8b ec		 mov	 ebp, esp

; 114  : 	m_pMainToolImpl->SetBasePenColor(color);

  00003	8b 49 04	 mov	 ecx, DWORD PTR [ecx+4]

; 115  : }

  00006	5d		 pop	 ebp

; 114  : 	m_pMainToolImpl->SetBasePenColor(color);

  00007	e9 00 00 00 00	 jmp	 ?SetBasePenColor@CMainToolImplementation@@QAEXABK@Z ; CMainToolImplementation::SetBasePenColor
?SetBasePenColor@CMainAnalysisTool@@QAEXABK@Z ENDP	; CMainAnalysisTool::SetBasePenColor
_TEXT	ENDS
; Function compile flags: /Ogtp
; File D:\git\src\IBK\IBK_DRFN\ProjSrc\SrcChartEx\ChartAddIn\ChartAnalysisToolAddIn\AnalysisTool\MainAnalysisTool.cpp
;	COMDAT ?SetBaseColor@CMainAnalysisTool@@QAEXABK0@Z
_TEXT	SEGMENT
_penColor$ = 8						; size = 4
_textColor$ = 12					; size = 4
?SetBaseColor@CMainAnalysisTool@@QAEXABK0@Z PROC	; CMainAnalysisTool::SetBaseColor, COMDAT
; _this$ = ecx

; 108  : {

  00000	55		 push	 ebp
  00001	8b ec		 mov	 ebp, esp

; 109  : 	m_pMainToolImpl->SetBaseColor(penColor, textColor);

  00003	8b 49 04	 mov	 ecx, DWORD PTR [ecx+4]

; 110  : }

  00006	5d		 pop	 ebp

; 109  : 	m_pMainToolImpl->SetBaseColor(penColor, textColor);

  00007	e9 00 00 00 00	 jmp	 ?SetBaseColor@CMainToolImplementation@@QAEXABK0@Z ; CMainToolImplementation::SetBaseColor
?SetBaseColor@CMainAnalysisTool@@QAEXABK0@Z ENDP	; CMainAnalysisTool::SetBaseColor
_TEXT	ENDS
; Function compile flags: /Ogtp
; File D:\git\src\IBK\IBK_DRFN\ProjSrc\SrcChartEx\ChartAddIn\ChartAnalysisToolAddIn\AnalysisTool\MainAnalysisTool.cpp
;	COMDAT ?SetAutoPriceElement@CMainAnalysisTool@@QAEX_N@Z
_TEXT	SEGMENT
_bIsAutoPrice$ = 8					; size = 1
?SetAutoPriceElement@CMainAnalysisTool@@QAEX_N@Z PROC	; CMainAnalysisTool::SetAutoPriceElement, COMDAT
; _this$ = ecx

; 103  : {

  00000	55		 push	 ebp
  00001	8b ec		 mov	 ebp, esp

; 104  : 	m_pMainToolImpl->SetAutoPriceElement(bIsAutoPrice);

  00003	8b 49 04	 mov	 ecx, DWORD PTR [ecx+4]

; 105  : }

  00006	5d		 pop	 ebp

; 104  : 	m_pMainToolImpl->SetAutoPriceElement(bIsAutoPrice);

  00007	e9 00 00 00 00	 jmp	 ?SetAutoPriceElement@CMainToolImplementation@@QAEX_N@Z ; CMainToolImplementation::SetAutoPriceElement
?SetAutoPriceElement@CMainAnalysisTool@@QAEX_N@Z ENDP	; CMainAnalysisTool::SetAutoPriceElement
_TEXT	ENDS
; Function compile flags: /Ogtp
; File D:\git\src\IBK\IBK_DRFN\ProjSrc\SrcChartEx\ChartAddIn\ChartAnalysisToolAddIn\AnalysisTool\MainAnalysisTool.cpp
;	COMDAT ?SetAutoPriceTool@CMainAnalysisTool@@QAEX_N@Z
_TEXT	SEGMENT
_bIsAutoPrice$ = 8					; size = 1
?SetAutoPriceTool@CMainAnalysisTool@@QAEX_N@Z PROC	; CMainAnalysisTool::SetAutoPriceTool, COMDAT
; _this$ = ecx

; 98   : {

  00000	55		 push	 ebp
  00001	8b ec		 mov	 ebp, esp

; 99   : 	m_pMainToolImpl->SetAutoPriceTool(bIsAutoPrice);

  00003	8b 49 04	 mov	 ecx, DWORD PTR [ecx+4]

; 100  : }

  00006	5d		 pop	 ebp

; 99   : 	m_pMainToolImpl->SetAutoPriceTool(bIsAutoPrice);

  00007	e9 00 00 00 00	 jmp	 ?SetAutoPriceTool@CMainToolImplementation@@QAEX_N@Z ; CMainToolImplementation::SetAutoPriceTool
?SetAutoPriceTool@CMainAnalysisTool@@QAEX_N@Z ENDP	; CMainAnalysisTool::SetAutoPriceTool
_TEXT	ENDS
; Function compile flags: /Ogtp
; File D:\git\src\IBK\IBK_DRFN\ProjSrc\SrcChartEx\ChartAddIn\ChartAnalysisToolAddIn\AnalysisTool\MainAnalysisTool.cpp
;	COMDAT ?SetMainBlock@CMainAnalysisTool@@QAEXPAUIChartManager133101@@PAUIChartOCX133101@@@Z
_TEXT	SEGMENT
_pMainBlock$ = 8					; size = 4
_p_pIChartOCX$ = 12					; size = 4
?SetMainBlock@CMainAnalysisTool@@QAEXPAUIChartManager133101@@PAUIChartOCX133101@@@Z PROC ; CMainAnalysisTool::SetMainBlock, COMDAT
; _this$ = ecx

; 88   : {	

  00000	55		 push	 ebp
  00001	8b ec		 mov	 ebp, esp

; 89   : 	m_pMainToolImpl->SetMainBlock(pMainBlock, p_pIChartOCX);

  00003	8b 49 04	 mov	 ecx, DWORD PTR [ecx+4]

; 90   : }

  00006	5d		 pop	 ebp

; 89   : 	m_pMainToolImpl->SetMainBlock(pMainBlock, p_pIChartOCX);

  00007	e9 00 00 00 00	 jmp	 ?SetMainBlock@CMainToolImplementation@@QAEXPAUIChartManager133101@@PAUIChartOCX133101@@@Z ; CMainToolImplementation::SetMainBlock
?SetMainBlock@CMainAnalysisTool@@QAEXPAUIChartManager133101@@PAUIChartOCX133101@@@Z ENDP ; CMainAnalysisTool::SetMainBlock
_TEXT	ENDS
; Function compile flags: /Ogtp
; File D:\git\src\IBK\IBK_DRFN\ProjSrc\SrcChartEx\ChartAddIn\ChartAnalysisToolAddIn\AnalysisTool\MainAnalysisTool.cpp
;	COMDAT ?SetParent@CMainAnalysisTool@@QAEXPAVCWnd@@@Z
_TEXT	SEGMENT
_pParent$ = 8						; size = 4
?SetParent@CMainAnalysisTool@@QAEXPAVCWnd@@@Z PROC	; CMainAnalysisTool::SetParent, COMDAT
; _this$ = ecx

; 83   : {

  00000	55		 push	 ebp
  00001	8b ec		 mov	 ebp, esp

; 84   : 	m_pMainToolImpl->SetParent(pParent);

  00003	8b 49 04	 mov	 ecx, DWORD PTR [ecx+4]

; 85   : }

  00006	5d		 pop	 ebp

; 84   : 	m_pMainToolImpl->SetParent(pParent);

  00007	e9 00 00 00 00	 jmp	 ?SetParent@CMainToolImplementation@@QAEXPAVCWnd@@@Z ; CMainToolImplementation::SetParent
?SetParent@CMainAnalysisTool@@QAEXPAVCWnd@@@Z ENDP	; CMainAnalysisTool::SetParent
_TEXT	ENDS
; Function compile flags: /Ogtp
; File D:\git\src\IBK\IBK_DRFN\ProjSrc\SrcChartEx\ChartAddIn\ChartAnalysisToolAddIn\AnalysisTool\MainAnalysisTool.cpp
;	COMDAT ?OnToolCopy@CMainAnalysisTool@@QAE_NXZ
_TEXT	SEGMENT
?OnToolCopy@CMainAnalysisTool@@QAE_NXZ PROC		; CMainAnalysisTool::OnToolCopy, COMDAT
; _this$ = ecx

; 94   : 	return m_pMainToolImpl->OnToolCopy();

  00000	8b 49 04	 mov	 ecx, DWORD PTR [ecx+4]
  00003	e9 00 00 00 00	 jmp	 ?OnToolCopy@CMainToolImplementation@@QAE_NXZ ; CMainToolImplementation::OnToolCopy
?OnToolCopy@CMainAnalysisTool@@QAE_NXZ ENDP		; CMainAnalysisTool::OnToolCopy
_TEXT	ENDS
; Function compile flags: /Ogtp
; File D:\git\src\IBK\IBK_DRFN\ProjSrc\SrcChartEx\ChartAddIn\ChartAnalysisToolAddIn\AnalysisTool\MainAnalysisTool.cpp
;	COMDAT ?GetData_Line@CMainAnalysisTool@@QBE_NAAV?$CList@VCPoint@@AAV1@@@AAN@Z
_TEXT	SEGMENT
_elementData$ = 8					; size = 4
_dVertDataType$ = 12					; size = 4
?GetData_Line@CMainAnalysisTool@@QBE_NAAV?$CList@VCPoint@@AAV1@@@AAN@Z PROC ; CMainAnalysisTool::GetData_Line, COMDAT
; _this$ = ecx

; 67   : {

  00000	55		 push	 ebp
  00001	8b ec		 mov	 ebp, esp

; 68   : 	return m_pMainToolImpl->GetData_Line(elementData, dVertDataType);

  00003	8b 49 04	 mov	 ecx, DWORD PTR [ecx+4]

; 69   : }

  00006	5d		 pop	 ebp

; 68   : 	return m_pMainToolImpl->GetData_Line(elementData, dVertDataType);

  00007	e9 00 00 00 00	 jmp	 ?GetData_Line@CMainToolImplementation@@QBE_NAAV?$CList@VCPoint@@AAV1@@@AAN@Z ; CMainToolImplementation::GetData_Line
?GetData_Line@CMainAnalysisTool@@QBE_NAAV?$CList@VCPoint@@AAV1@@@AAN@Z ENDP ; CMainAnalysisTool::GetData_Line
_TEXT	ENDS
; Function compile flags: /Ogtp
; File D:\git\src\IBK\IBK_DRFN\ProjSrc\SrcChartEx\ChartAddIn\ChartAnalysisToolAddIn\AnalysisTool\MainAnalysisTool.cpp
;	COMDAT ?GetSelectedToolType@CMainAnalysisTool@@QBE?AW4ElementType@CToolEnumData@@XZ
_TEXT	SEGMENT
?GetSelectedToolType@CMainAnalysisTool@@QBE?AW4ElementType@CToolEnumData@@XZ PROC ; CMainAnalysisTool::GetSelectedToolType, COMDAT
; _this$ = ecx

; 62   : 	return m_pMainToolImpl->GetSelectedToolType();

  00000	8b 49 04	 mov	 ecx, DWORD PTR [ecx+4]
  00003	e9 00 00 00 00	 jmp	 ?GetSelectedToolType@CMainToolImplementation@@QBE?AW4ElementType@CToolEnumData@@XZ ; CMainToolImplementation::GetSelectedToolType
?GetSelectedToolType@CMainAnalysisTool@@QBE?AW4ElementType@CToolEnumData@@XZ ENDP ; CMainAnalysisTool::GetSelectedToolType
_TEXT	ENDS
; Function compile flags: /Ogtp
; File D:\git\src\IBK\IBK_DRFN\ProjSrc\SrcChartEx\ChartAddIn\ChartAnalysisToolAddIn\AnalysisTool\MainAnalysisTool.cpp
;	COMDAT ?GetCurrentToolType@CMainAnalysisTool@@QBE?AW4TOOLTYPE@CAnalysis@@XZ
_TEXT	SEGMENT
?GetCurrentToolType@CMainAnalysisTool@@QBE?AW4TOOLTYPE@CAnalysis@@XZ PROC ; CMainAnalysisTool::GetCurrentToolType, COMDAT
; _this$ = ecx

; 57   : 	return m_pMainToolImpl->GetCurrentToolType();

  00000	8b 49 04	 mov	 ecx, DWORD PTR [ecx+4]
  00003	e9 00 00 00 00	 jmp	 ?GetCurrentToolType@CMainToolImplementation@@QBE?AW4TOOLTYPE@CAnalysis@@XZ ; CMainToolImplementation::GetCurrentToolType
?GetCurrentToolType@CMainAnalysisTool@@QBE?AW4TOOLTYPE@CAnalysis@@XZ ENDP ; CMainAnalysisTool::GetCurrentToolType
_TEXT	ENDS
; Function compile flags: /Ogtp
; File D:\git\src\IBK\IBK_DRFN\ProjSrc\SrcChartEx\ChartAddIn\ChartAnalysisToolAddIn\AnalysisTool\MainAnalysisTool.cpp
;	COMDAT ?GetSavedElementsData@CMainAnalysisTool@@QBE?AV?$CStringT@DV?$StrTraitMFC_DLL@DV?$ChTraitsCRT@D@ATL@@@@@ATL@@XZ
_TEXT	SEGMENT
___$ReturnUdt$ = 8					; size = 4
?GetSavedElementsData@CMainAnalysisTool@@QBE?AV?$CStringT@DV?$StrTraitMFC_DLL@DV?$ChTraitsCRT@D@ATL@@@@@ATL@@XZ PROC ; CMainAnalysisTool::GetSavedElementsData, COMDAT
; _this$ = ecx

; 50   : {

  00000	55		 push	 ebp
  00001	8b ec		 mov	 ebp, esp

; 51   : 	return m_pMainToolImpl->GetSavedElementsData();

  00003	ff 75 08	 push	 DWORD PTR ___$ReturnUdt$[ebp]
  00006	8b 49 04	 mov	 ecx, DWORD PTR [ecx+4]
  00009	e8 00 00 00 00	 call	 ?GetSavedElementsData@CMainToolImplementation@@QBE?AV?$CStringT@DV?$StrTraitMFC_DLL@DV?$ChTraitsCRT@D@ATL@@@@@ATL@@XZ ; CMainToolImplementation::GetSavedElementsData
  0000e	8b 45 08	 mov	 eax, DWORD PTR ___$ReturnUdt$[ebp]

; 52   : }

  00011	5d		 pop	 ebp
  00012	c2 04 00	 ret	 4
?GetSavedElementsData@CMainAnalysisTool@@QBE?AV?$CStringT@DV?$StrTraitMFC_DLL@DV?$ChTraitsCRT@D@ATL@@@@@ATL@@XZ ENDP ; CMainAnalysisTool::GetSavedElementsData
_TEXT	ENDS
; Function compile flags: /Ogtp
; File D:\git\src\IBK\IBK_DRFN\ProjSrc\SrcChartEx\ChartAddIn\ChartAnalysisToolAddIn\AnalysisTool\MainAnalysisTool.cpp
;	COMDAT ?GetElementCount@CMainAnalysisTool@@QBEHXZ
_TEXT	SEGMENT
?GetElementCount@CMainAnalysisTool@@QBEHXZ PROC		; CMainAnalysisTool::GetElementCount, COMDAT
; _this$ = ecx

; 45   : 	return m_pMainToolImpl->GetElementCount();

  00000	8b 49 04	 mov	 ecx, DWORD PTR [ecx+4]
  00003	e9 00 00 00 00	 jmp	 ?GetElementCount@CMainToolImplementation@@QBEHXZ ; CMainToolImplementation::GetElementCount
?GetElementCount@CMainAnalysisTool@@QBEHXZ ENDP		; CMainAnalysisTool::GetElementCount
_TEXT	ENDS
; Function compile flags: /Ogtp
; File D:\git\src\IBK\IBK_DRFN\ProjSrc\SrcChartEx\ChartAddIn\ChartAnalysisToolAddIn\AnalysisTool\MainAnalysisTool.cpp
;	COMDAT ??1CMainAnalysisTool@@UAE@XZ
_TEXT	SEGMENT
??1CMainAnalysisTool@@UAE@XZ PROC			; CMainAnalysisTool::~CMainAnalysisTool, COMDAT
; _this$ = ecx

; 36   : {

  00000	56		 push	 esi
  00001	8b f1		 mov	 esi, ecx
  00003	57		 push	 edi

; 37   : 	delete m_pMainToolImpl;

  00004	8b 7e 04	 mov	 edi, DWORD PTR [esi+4]
  00007	c7 06 00 00 00
	00		 mov	 DWORD PTR [esi], OFFSET ??_7CMainAnalysisTool@@6B@
  0000d	85 ff		 test	 edi, edi
  0000f	74 21		 je	 SHORT $LN11@CMainAnaly
  00011	8d 8f 98 00 00
	00		 lea	 ecx, DWORD PTR [edi+152]
  00017	e8 00 00 00 00	 call	 ??1CToolSingleton@@QAE@XZ ; CToolSingleton::~CToolSingleton
  0001c	8d 4f 1c	 lea	 ecx, DWORD PTR [edi+28]
  0001f	e8 00 00 00 00	 call	 ??1CAnalysisData@@QAE@XZ ; CAnalysisData::~CAnalysisData
  00024	68 28 01 00 00	 push	 296			; 00000128H
  00029	57		 push	 edi
  0002a	e8 00 00 00 00	 call	 ??3@YAXPAXI@Z		; operator delete
  0002f	83 c4 08	 add	 esp, 8
$LN11@CMainAnaly:
  00032	5f		 pop	 edi

; 38   : 	m_pMainToolImpl = NULL;
; 39   : }

  00033	c7 46 04 00 00
	00 00		 mov	 DWORD PTR [esi+4], 0
  0003a	5e		 pop	 esi
  0003b	c3		 ret	 0
??1CMainAnalysisTool@@UAE@XZ ENDP			; CMainAnalysisTool::~CMainAnalysisTool
_TEXT	ENDS
; Function compile flags: /Ogtp
; File D:\git\src\IBK\IBK_DRFN\ProjSrc\SrcChartEx\ChartAddIn\ChartAnalysisToolAddIn\AnalysisTool\MainAnalysisTool.cpp
;	COMDAT ??0CMainAnalysisTool@@QAE@PAVCWnd@@PAUHWND__@@W4CHART_MODE@CChartInfo@@@Z
_TEXT	SEGMENT
$T2 = -16						; size = 4
__$EHRec$ = -12						; size = 12
_pParent$ = 8						; size = 4
_p_hOcxWnd$ = 12					; size = 4
_p_eChartMode$ = 16					; size = 4
??0CMainAnalysisTool@@QAE@PAVCWnd@@PAUHWND__@@W4CHART_MODE@CChartInfo@@@Z PROC ; CMainAnalysisTool::CMainAnalysisTool, COMDAT
; _this$ = ecx

; 31   : {

  00000	55		 push	 ebp
  00001	8b ec		 mov	 ebp, esp
  00003	6a ff		 push	 -1
  00005	68 00 00 00 00	 push	 __ehhandler$??0CMainAnalysisTool@@QAE@PAVCWnd@@PAUHWND__@@W4CHART_MODE@CChartInfo@@@Z
  0000a	64 a1 00 00 00
	00		 mov	 eax, DWORD PTR fs:0
  00010	50		 push	 eax
  00011	51		 push	 ecx
  00012	56		 push	 esi
  00013	a1 00 00 00 00	 mov	 eax, DWORD PTR ___security_cookie
  00018	33 c5		 xor	 eax, ebp
  0001a	50		 push	 eax
  0001b	8d 45 f4	 lea	 eax, DWORD PTR __$EHRec$[ebp]
  0001e	64 a3 00 00 00
	00		 mov	 DWORD PTR fs:0, eax
  00024	8b f1		 mov	 esi, ecx

; 32   : 	m_pMainToolImpl = new CMainToolImplementation( pParent, p_hOcxWnd, p_eChartMode);

  00026	68 28 01 00 00	 push	 296			; 00000128H
  0002b	c7 06 00 00 00
	00		 mov	 DWORD PTR [esi], OFFSET ??_7CMainAnalysisTool@@6B@
  00031	c7 46 04 00 00
	00 00		 mov	 DWORD PTR [esi+4], 0
  00038	e8 00 00 00 00	 call	 ??2@YAPAXI@Z		; operator new
  0003d	83 c4 04	 add	 esp, 4
  00040	89 45 f0	 mov	 DWORD PTR $T2[ebp], eax
  00043	c7 45 fc 00 00
	00 00		 mov	 DWORD PTR __$EHRec$[ebp+8], 0
  0004a	85 c0		 test	 eax, eax
  0004c	74 27		 je	 SHORT $LN3@CMainAnaly
  0004e	ff 75 10	 push	 DWORD PTR _p_eChartMode$[ebp]
  00051	8b c8		 mov	 ecx, eax
  00053	ff 75 0c	 push	 DWORD PTR _p_hOcxWnd$[ebp]
  00056	ff 75 08	 push	 DWORD PTR _pParent$[ebp]
  00059	e8 00 00 00 00	 call	 ??0CMainToolImplementation@@QAE@PAVCWnd@@PAUHWND__@@W4CHART_MODE@CChartInfo@@@Z ; CMainToolImplementation::CMainToolImplementation
  0005e	89 46 04	 mov	 DWORD PTR [esi+4], eax

; 33   : }

  00061	8b c6		 mov	 eax, esi
  00063	8b 4d f4	 mov	 ecx, DWORD PTR __$EHRec$[ebp]
  00066	64 89 0d 00 00
	00 00		 mov	 DWORD PTR fs:0, ecx
  0006d	59		 pop	 ecx
  0006e	5e		 pop	 esi
  0006f	8b e5		 mov	 esp, ebp
  00071	5d		 pop	 ebp
  00072	c2 0c 00	 ret	 12			; 0000000cH
$LN3@CMainAnaly:

; 32   : 	m_pMainToolImpl = new CMainToolImplementation( pParent, p_hOcxWnd, p_eChartMode);

  00075	c7 46 04 00 00
	00 00		 mov	 DWORD PTR [esi+4], 0

; 33   : }

  0007c	8b c6		 mov	 eax, esi
  0007e	8b 4d f4	 mov	 ecx, DWORD PTR __$EHRec$[ebp]
  00081	64 89 0d 00 00
	00 00		 mov	 DWORD PTR fs:0, ecx
  00088	59		 pop	 ecx
  00089	5e		 pop	 esi
  0008a	8b e5		 mov	 esp, ebp
  0008c	5d		 pop	 ebp
  0008d	c2 0c 00	 ret	 12			; 0000000cH
_TEXT	ENDS
;	COMDAT text$x
text$x	SEGMENT
__unwindfunclet$??0CMainAnalysisTool@@QAE@PAVCWnd@@PAUHWND__@@W4CHART_MODE@CChartInfo@@@Z$0:
  00000	68 28 01 00 00	 push	 296			; 00000128H
  00005	8b 45 f0	 mov	 eax, DWORD PTR $T2[ebp]
  00008	50		 push	 eax
  00009	e8 00 00 00 00	 call	 ??3@YAXPAXI@Z		; operator delete
  0000e	83 c4 08	 add	 esp, 8
  00011	c3		 ret	 0
  00012	cc		 int	 3
  00013	cc		 int	 3
  00014	cc		 int	 3
  00015	cc		 int	 3
  00016	cc		 int	 3
__ehhandler$??0CMainAnalysisTool@@QAE@PAVCWnd@@PAUHWND__@@W4CHART_MODE@CChartInfo@@@Z:
  00017	90		 npad	 1
  00018	90		 npad	 1
  00019	8b 54 24 08	 mov	 edx, DWORD PTR [esp+8]
  0001d	8d 42 0c	 lea	 eax, DWORD PTR [edx+12]
  00020	8b 4a f4	 mov	 ecx, DWORD PTR [edx-12]
  00023	33 c8		 xor	 ecx, eax
  00025	e8 00 00 00 00	 call	 @__security_check_cookie@4
  0002a	b8 00 00 00 00	 mov	 eax, OFFSET __ehfuncinfo$??0CMainAnalysisTool@@QAE@PAVCWnd@@PAUHWND__@@W4CHART_MODE@CChartInfo@@@Z
  0002f	e9 00 00 00 00	 jmp	 ___CxxFrameHandler3
text$x	ENDS
??0CMainAnalysisTool@@QAE@PAVCWnd@@PAUHWND__@@W4CHART_MODE@CChartInfo@@@Z ENDP ; CMainAnalysisTool::CMainAnalysisTool
; Function compile flags: /Ogtp
; File D:\git\src\IBK\IBK_DRFN\ProjSrc\SrcChartEx\ChartAddIn\ChartAnalysisToolAddIn\AnalysisTool\MainAnalysisTool.cpp
;	COMDAT ?__empty_global_delete@@YAXPAXI@Z
_TEXT	SEGMENT
___formal$ = 8						; size = 4
___formal$ = 12						; size = 4
?__empty_global_delete@@YAXPAXI@Z PROC			; __empty_global_delete, COMDAT

  00000	c2 00 00	 ret	 0
?__empty_global_delete@@YAXPAXI@Z ENDP			; __empty_global_delete
_TEXT	ENDS
; Function compile flags: /Ogtp
; File D:\git\src\IBK\IBK_DRFN\ProjSrc\SrcChartEx\ChartAddIn\ChartAnalysisToolAddIn\AnalysisTool\MainAnalysisTool.cpp
;	COMDAT ?__empty_global_delete@@YAXPAX@Z
_TEXT	SEGMENT
___formal$ = 8						; size = 4
?__empty_global_delete@@YAXPAX@Z PROC			; __empty_global_delete, COMDAT

  00000	c2 00 00	 ret	 0
?__empty_global_delete@@YAXPAX@Z ENDP			; __empty_global_delete
_TEXT	ENDS
END
