; Listing generated by Microsoft (R) Optimizing Compiler Version 19.29.30145.0 

	TITLE	D:\git\src\IBK\IBK_DRFN\#DRfn-CS\_Obj\AnalysisTool\NonChartImplementation.obj
	.686P
	.XMM
	include listing.inc
	.model	flat

INCLUDELIB MSVCRT
INCLUDELIB OLDNAMES

PUBLIC	?__empty_global_delete@@YAXPAX@Z		; __empty_global_delete
PUBLIC	?__empty_global_delete@@YAXPAXI@Z		; __empty_global_delete
PUBLIC	??0CNonChartImplementation@@QAE@XZ		; CNonChartImplementation::CNonChartImplementation
PUBLIC	??1CNonChartImplementation@@UAE@XZ		; CNonChartImplementation::~CNonChartImplementation
PUBLIC	?GetAutoTrendData@CNonChartImplementation@@QAE_NW4CALCULATETYPE@CCalculateBaseData@@ABV?$CStringT@DV?$StrTraitMFC_DLL@DV?$ChTraitsCRT@D@ATL@@@@@ATL@@PAUIPacketManager133101@@PAV?$CList@PAUIPacket133101@@PAU1@@@@Z ; CNonChartImplementation::GetAutoTrendData
PUBLIC	??_GCNonChartImplementation@@UAEPAXI@Z		; CNonChartImplementation::`scalar deleting destructor'
PUBLIC	??_7CNonChartImplementation@@6B@		; CNonChartImplementation::`vftable'
PUBLIC	??_R4CNonChartImplementation@@6B@		; CNonChartImplementation::`RTTI Complete Object Locator'
PUBLIC	??_R0?AVCNonChartImplementation@@@8		; CNonChartImplementation `RTTI Type Descriptor'
PUBLIC	??_R3CNonChartImplementation@@8			; CNonChartImplementation::`RTTI Class Hierarchy Descriptor'
PUBLIC	??_R2CNonChartImplementation@@8			; CNonChartImplementation::`RTTI Base Class Array'
PUBLIC	??_R1A@?0A@EA@CNonChartImplementation@@8	; CNonChartImplementation::`RTTI Base Class Descriptor at (0,-1,0,64)'
EXTRN	??3@YAXPAXI@Z:PROC				; operator delete
EXTRN	??_ECNonChartImplementation@@UAEPAXI@Z:PROC	; CNonChartImplementation::`vector deleting destructor'
EXTRN	??_7type_info@@6B@:QWORD			; type_info::`vftable'
;	COMDAT ??_R1A@?0A@EA@CNonChartImplementation@@8
rdata$r	SEGMENT
??_R1A@?0A@EA@CNonChartImplementation@@8 DD FLAT:??_R0?AVCNonChartImplementation@@@8 ; CNonChartImplementation::`RTTI Base Class Descriptor at (0,-1,0,64)'
	DD	00H
	DD	00H
	DD	0ffffffffH
	DD	00H
	DD	040H
	DD	FLAT:??_R3CNonChartImplementation@@8
rdata$r	ENDS
;	COMDAT ??_R2CNonChartImplementation@@8
rdata$r	SEGMENT
??_R2CNonChartImplementation@@8 DD FLAT:??_R1A@?0A@EA@CNonChartImplementation@@8 ; CNonChartImplementation::`RTTI Base Class Array'
rdata$r	ENDS
;	COMDAT ??_R3CNonChartImplementation@@8
rdata$r	SEGMENT
??_R3CNonChartImplementation@@8 DD 00H			; CNonChartImplementation::`RTTI Class Hierarchy Descriptor'
	DD	00H
	DD	01H
	DD	FLAT:??_R2CNonChartImplementation@@8
rdata$r	ENDS
;	COMDAT ??_R0?AVCNonChartImplementation@@@8
data$rs	SEGMENT
??_R0?AVCNonChartImplementation@@@8 DD FLAT:??_7type_info@@6B@ ; CNonChartImplementation `RTTI Type Descriptor'
	DD	00H
	DB	'.?AVCNonChartImplementation@@', 00H
data$rs	ENDS
;	COMDAT ??_R4CNonChartImplementation@@6B@
rdata$r	SEGMENT
??_R4CNonChartImplementation@@6B@ DD 00H		; CNonChartImplementation::`RTTI Complete Object Locator'
	DD	00H
	DD	00H
	DD	FLAT:??_R0?AVCNonChartImplementation@@@8
	DD	FLAT:??_R3CNonChartImplementation@@8
rdata$r	ENDS
;	COMDAT ??_7CNonChartImplementation@@6B@
CONST	SEGMENT
??_7CNonChartImplementation@@6B@ DD FLAT:??_R4CNonChartImplementation@@6B@ ; CNonChartImplementation::`vftable'
	DD	FLAT:??_ECNonChartImplementation@@UAEPAXI@Z
CONST	ENDS
; Function compile flags: /Ogtp
;	COMDAT ??_GCNonChartImplementation@@UAEPAXI@Z
_TEXT	SEGMENT
___flags$ = 8						; size = 4
??_GCNonChartImplementation@@UAEPAXI@Z PROC		; CNonChartImplementation::`scalar deleting destructor', COMDAT
; _this$ = ecx
  00000	55		 push	 ebp
  00001	8b ec		 mov	 ebp, esp
  00003	f6 45 08 01	 test	 BYTE PTR ___flags$[ebp], 1
  00007	56		 push	 esi
  00008	8b f1		 mov	 esi, ecx
  0000a	c7 06 00 00 00
	00		 mov	 DWORD PTR [esi], OFFSET ??_7CNonChartImplementation@@6B@
  00010	74 0b		 je	 SHORT $LN4@scalar
  00012	6a 04		 push	 4
  00014	56		 push	 esi
  00015	e8 00 00 00 00	 call	 ??3@YAXPAXI@Z		; operator delete
  0001a	83 c4 08	 add	 esp, 8
$LN4@scalar:
  0001d	8b c6		 mov	 eax, esi
  0001f	5e		 pop	 esi
  00020	5d		 pop	 ebp
  00021	c2 04 00	 ret	 4
??_GCNonChartImplementation@@UAEPAXI@Z ENDP		; CNonChartImplementation::`scalar deleting destructor'
_TEXT	ENDS
; Function compile flags: /Ogtp
; File D:\git\src\IBK\IBK_DRFN\ProjSrc\SrcChartEx\ChartAddIn\ChartAnalysisToolAddIn\AnalysisTool\NonChartImplementation.cpp
;	COMDAT ?GetAutoTrendData@CNonChartImplementation@@QAE_NW4CALCULATETYPE@CCalculateBaseData@@ABV?$CStringT@DV?$StrTraitMFC_DLL@DV?$ChTraitsCRT@D@ATL@@@@@ATL@@PAUIPacketManager133101@@PAV?$CList@PAUIPacket133101@@PAU1@@@@Z
_TEXT	SEGMENT
_eCalType$ = 8						; size = 4
_strPacketName$ = 12					; size = 4
_pPacketList$ = 16					; size = 4
_pCalculateForPacketList$ = 20				; size = 4
?GetAutoTrendData@CNonChartImplementation@@QAE_NW4CALCULATETYPE@CCalculateBaseData@@ABV?$CStringT@DV?$StrTraitMFC_DLL@DV?$ChTraitsCRT@D@ATL@@@@@ATL@@PAUIPacketManager133101@@PAV?$CList@PAUIPacket133101@@PAU1@@@@Z PROC ; CNonChartImplementation::GetAutoTrendData, COMDAT
; _this$ = ecx

; 31   : /*
; 32   : 	IPacket* pSignalPacket = NULL;
; 33   : 	CGraphCalculateData graphCalculateData(pSignalPacket);
; 34   : 	CSubGraphPacketList subGraphPacketList;
; 35   : 	graphCalculateData.AddTail(&subGraphPacketList);
; 36   : 
; 37   : 	CChartFormulateData chartFormulateData;
; 38   : 	GetChartFormulateData(eCalType, strPacketName, pPacketList, chartFormulateData);
; 39   : 
; 40   : 	if(chartFormulateData.GetCalculateType() != CCalculateBaseData::TRDATA_CAL)
; 41   : 		return false;
; 42   : 
; 43   : 	m_Indicator = m_indiSingleton.FindNonChartFormulate();
; 44   : 	return Calculate(chartFormulateData, &graphCalculateData, NULL, pCalculateForPacketList);
; 45   : */
; 46   : 	return false;

  00000	32 c0		 xor	 al, al

; 47   : }

  00002	c2 10 00	 ret	 16			; 00000010H
?GetAutoTrendData@CNonChartImplementation@@QAE_NW4CALCULATETYPE@CCalculateBaseData@@ABV?$CStringT@DV?$StrTraitMFC_DLL@DV?$ChTraitsCRT@D@ATL@@@@@ATL@@PAUIPacketManager133101@@PAV?$CList@PAUIPacket133101@@PAU1@@@@Z ENDP ; CNonChartImplementation::GetAutoTrendData
_TEXT	ENDS
; Function compile flags: /Ogtp
; File D:\git\src\IBK\IBK_DRFN\ProjSrc\SrcChartEx\ChartAddIn\ChartAnalysisToolAddIn\AnalysisTool\NonChartImplementation.cpp
;	COMDAT ??1CNonChartImplementation@@UAE@XZ
_TEXT	SEGMENT
??1CNonChartImplementation@@UAE@XZ PROC			; CNonChartImplementation::~CNonChartImplementation, COMDAT
; _this$ = ecx

; 23   : {

  00000	c7 01 00 00 00
	00		 mov	 DWORD PTR [ecx], OFFSET ??_7CNonChartImplementation@@6B@

; 24   : 
; 25   : }

  00006	c3		 ret	 0
??1CNonChartImplementation@@UAE@XZ ENDP			; CNonChartImplementation::~CNonChartImplementation
_TEXT	ENDS
; Function compile flags: /Ogtp
; File D:\git\src\IBK\IBK_DRFN\ProjSrc\SrcChartEx\ChartAddIn\ChartAnalysisToolAddIn\AnalysisTool\NonChartImplementation.cpp
;	COMDAT ??0CNonChartImplementation@@QAE@XZ
_TEXT	SEGMENT
??0CNonChartImplementation@@QAE@XZ PROC			; CNonChartImplementation::CNonChartImplementation, COMDAT
; _this$ = ecx

; 18   : {

  00000	c7 01 00 00 00
	00		 mov	 DWORD PTR [ecx], OFFSET ??_7CNonChartImplementation@@6B@

; 19   : 
; 20   : }

  00006	8b c1		 mov	 eax, ecx
  00008	c3		 ret	 0
??0CNonChartImplementation@@QAE@XZ ENDP			; CNonChartImplementation::CNonChartImplementation
_TEXT	ENDS
; Function compile flags: /Ogtp
; File D:\git\src\IBK\IBK_DRFN\ProjSrc\SrcChartEx\ChartAddIn\ChartAnalysisToolAddIn\AnalysisTool\NonChartImplementation.cpp
;	COMDAT ?__empty_global_delete@@YAXPAXI@Z
_TEXT	SEGMENT
___formal$ = 8						; size = 4
___formal$ = 12						; size = 4
?__empty_global_delete@@YAXPAXI@Z PROC			; __empty_global_delete, COMDAT

  00000	c2 00 00	 ret	 0
?__empty_global_delete@@YAXPAXI@Z ENDP			; __empty_global_delete
_TEXT	ENDS
; Function compile flags: /Ogtp
; File D:\git\src\IBK\IBK_DRFN\ProjSrc\SrcChartEx\ChartAddIn\ChartAnalysisToolAddIn\AnalysisTool\NonChartImplementation.cpp
;	COMDAT ?__empty_global_delete@@YAXPAX@Z
_TEXT	SEGMENT
___formal$ = 8						; size = 4
?__empty_global_delete@@YAXPAX@Z PROC			; __empty_global_delete, COMDAT

  00000	c2 00 00	 ret	 0
?__empty_global_delete@@YAXPAX@Z ENDP			; __empty_global_delete
_TEXT	ENDS
END
