; Listing generated by Microsoft (R) Optimizing Compiler Version 19.29.30145.0 

	TITLE	D:\git\src\IBK\IBK_DRFN\#DRfn-CS\_Obj\AnalysisTool\PointTool.obj
	.686P
	.XMM
	include listing.inc
	.model	flat

INCLUDELIB MSVCRT
INCLUDELIB OLDNAMES

PUBLIC	?__empty_global_delete@@YAXPAX@Z		; __empty_global_delete
PUBLIC	?__empty_global_delete@@YAXPAXI@Z		; __empty_global_delete
PUBLIC	??1ILPCSTR133101@@QAE@XZ			; ILPCSTR133101::~ILPCSTR133101
PUBLIC	?_Tidy@?$deque@VCBlockRegion@@V?$allocator@VCBlockRegion@@@std@@@std@@AAEXXZ ; std::deque<CBlockRegion,std::allocator<CBlockRegion> >::_Tidy
PUBLIC	??1CElementCommonEnvironment@@QAE@XZ		; CElementCommonEnvironment::~CElementCommonEnvironment
PUBLIC	??1CCoordinate@@QAE@XZ				; CCoordinate::~CCoordinate
PUBLIC	??1CPoints@@QAE@XZ				; CPoints::~CPoints
PUBLIC	??1CTool@@QAE@XZ				; CTool::~CTool
PUBLIC	??0CMoveTool@@IAE@PAVCAnalysisData@@W4COORDINATETYPE@CAnalysis@@@Z ; CMoveTool::CMoveTool
PUBLIC	?Initialize@CMoveTool@@UAEXXZ			; CMoveTool::Initialize
PUBLIC	?OnLButtonDown@CMoveTool@@UAEPAVCElement@@PAVCDC@@ABVCPoint@@@Z ; CMoveTool::OnLButtonDown
PUBLIC	?OnLButtonUp@CMoveTool@@UAEXPAVCDC@@ABVCPoint@@@Z ; CMoveTool::OnLButtonUp
PUBLIC	?OnMouseMove@CMoveTool@@UAE_NPAVCDC@@ABVCPoint@@H@Z ; CMoveTool::OnMouseMove
PUBLIC	?OnDraw@CMoveTool@@UAEXPAVCDC@@@Z		; CMoveTool::OnDraw
PUBLIC	?PointInDrawingRegion@CMoveTool@@MBE_NABVCPoint@@@Z ; CMoveTool::PointInDrawingRegion
PUBLIC	?SavePoints@CMoveTool@@MAEXABVCPoints@@@Z	; CMoveTool::SavePoints
PUBLIC	?GetPoints@CMoveTool@@IBE?AVCPoints@@XZ		; CMoveTool::GetPoints
PUBLIC	?OnMouseMove_InNotDrawingRegion@CMoveTool@@AAE_NABVCPoint@@@Z ; CMoveTool::OnMouseMove_InNotDrawingRegion
PUBLIC	??0COnePointMoveTool@@IAE@PAVCAnalysisData@@W4COORDINATETYPE@CAnalysis@@@Z ; COnePointMoveTool::COnePointMoveTool
PUBLIC	?DrawTool@COnePointMoveTool@@MAEXPAVCDC@@@Z	; COnePointMoveTool::DrawTool
PUBLIC	?MakeElement@COnePointMoveTool@@MAEPAVCElement@@ABVCElementCommonEnvironment@@@Z ; COnePointMoveTool::MakeElement
PUBLIC	?GetOnePointDrawingData@COnePointMoveTool@@ABE?AVCOnePointDrawingData@@XZ ; COnePointMoveTool::GetOnePointDrawingData
PUBLIC	??0CTwoPointMoveTool@@IAE@PAVCAnalysisData@@W4COORDINATETYPE@CAnalysis@@@Z ; CTwoPointMoveTool::CTwoPointMoveTool
PUBLIC	?DrawTool@CTwoPointMoveTool@@MAEXPAVCDC@@@Z	; CTwoPointMoveTool::DrawTool
PUBLIC	?MakeElement@CTwoPointMoveTool@@MAEPAVCElement@@ABVCElementCommonEnvironment@@@Z ; CTwoPointMoveTool::MakeElement
PUBLIC	?GetPoints@CTwoPointMoveTool@@IBE?AVCPoints@@ABVCPoint@@HH@Z ; CTwoPointMoveTool::GetPoints
PUBLIC	?GetPoint@CTwoPointMoveTool@@IBE?AVCPoint@@ABVCRegion@@ABV2@HH@Z ; CTwoPointMoveTool::GetPoint
PUBLIC	?GetSavingPoint@CTwoPointMoveTool@@IBE?AVCCoordinate@@ABVCPoint@@0@Z ; CTwoPointMoveTool::GetSavingPoint
PUBLIC	?GetPoint_X@CTwoPointMoveTool@@IBEHABVCRegion@@ABVCPoint@@H@Z ; CTwoPointMoveTool::GetPoint_X
PUBLIC	?GetPoint_Y@CTwoPointMoveTool@@IBEHABVCPoint@@HH@Z ; CTwoPointMoveTool::GetPoint_Y
PUBLIC	?GetTwoPointDrawingData@CTwoPointMoveTool@@ABE?AVCTwoPointDrawingData@@XZ ; CTwoPointMoveTool::GetTwoPointDrawingData
PUBLIC	??0CDownTool@@IAE@PAVCAnalysisData@@W4COORDINATETYPE@CAnalysis@@@Z ; CDownTool::CDownTool
PUBLIC	?Initialize@CDownTool@@UAEXXZ			; CDownTool::Initialize
PUBLIC	?OnLButtonDown@CDownTool@@UAEPAVCElement@@PAVCDC@@ABVCPoint@@@Z ; CDownTool::OnLButtonDown
PUBLIC	?OnMouseMove@CDownTool@@UAE_NPAVCDC@@ABVCPoint@@H@Z ; CDownTool::OnMouseMove
PUBLIC	??1CDownTool@@QAE@XZ				; CDownTool::~CDownTool
PUBLIC	??0COneOrTwoPointTool@@IAE@PAVCAnalysisData@@W4COORDINATETYPE@CAnalysis@@@Z ; COneOrTwoPointTool::COneOrTwoPointTool
PUBLIC	?OnLButtonDown@COneOrTwoPointTool@@UAEPAVCElement@@PAVCDC@@ABVCPoint@@@Z ; COneOrTwoPointTool::OnLButtonDown
PUBLIC	?OnLButtonUp@COneOrTwoPointTool@@UAEXPAVCDC@@ABVCPoint@@@Z ; COneOrTwoPointTool::OnLButtonUp
PUBLIC	?OnMouseMove@COneOrTwoPointTool@@UAE_NPAVCDC@@ABVCPoint@@H@Z ; COneOrTwoPointTool::OnMouseMove
PUBLIC	?OnDraw@COneOrTwoPointTool@@UAEXPAVCDC@@@Z	; COneOrTwoPointTool::OnDraw
PUBLIC	?SavePoints@COneOrTwoPointTool@@MAEXABVCPoints@@@Z ; COneOrTwoPointTool::SavePoints
PUBLIC	?GetUpPoints@COneOrTwoPointTool@@IBE?AVCPoints@@XZ ; COneOrTwoPointTool::GetUpPoints
PUBLIC	?SetUpPoints@COneOrTwoPointTool@@IAEXABVCPoints@@@Z ; COneOrTwoPointTool::SetUpPoints
PUBLIC	??1COneOrTwoPointTool@@QAE@XZ			; COneOrTwoPointTool::~COneOrTwoPointTool
PUBLIC	??0COnePointDownTool@@IAE@PAVCAnalysisData@@W4COORDINATETYPE@CAnalysis@@@Z ; COnePointDownTool::COnePointDownTool
PUBLIC	??1COnePointDownTool@@IAE@XZ			; COnePointDownTool::~COnePointDownTool
PUBLIC	?OnLButtonDown@COnePointDownTool@@UAEPAVCElement@@PAVCDC@@ABVCPoint@@@Z ; COnePointDownTool::OnLButtonDown
PUBLIC	?OnMouseMove@COnePointDownTool@@UAE_NPAVCDC@@ABVCPoint@@H@Z ; COnePointDownTool::OnMouseMove
PUBLIC	?OnDraw@COnePointDownTool@@UAEXPAVCDC@@@Z	; COnePointDownTool::OnDraw
PUBLIC	?PointInDrawingRegion@COnePointDownTool@@MBE_NABVCPoint@@@Z ; COnePointDownTool::PointInDrawingRegion
PUBLIC	?MakeElement@COnePointDownTool@@MAEPAVCElement@@ABVCElementCommonEnvironment@@@Z ; COnePointDownTool::MakeElement
PUBLIC	?MouseMove@COnePointDownTool@@MAE_NPAVCDC@@ABVCPoint@@@Z ; COnePointDownTool::MouseMove
PUBLIC	?Draw_UpPoint@COnePointDownTool@@MAEXPAVCDC@@@Z	; COnePointDownTool::Draw_UpPoint
PUBLIC	?OnMouseMove_InNotDrawingRegion@COnePointDownTool@@AAE_NABVCPoint@@@Z ; COnePointDownTool::OnMouseMove_InNotDrawingRegion
PUBLIC	?GetOnePointDrawingData@COnePointDownTool@@ABE?AVCOnePointDrawingData@@XZ ; COnePointDownTool::GetOnePointDrawingData
PUBLIC	??0CTwoPointDownTool@@IAE@PAVCAnalysisData@@W4COORDINATETYPE@CAnalysis@@@Z ; CTwoPointDownTool::CTwoPointDownTool
PUBLIC	?OnLButtonDown@CTwoPointDownTool@@UAEPAVCElement@@PAVCDC@@ABVCPoint@@@Z ; CTwoPointDownTool::OnLButtonDown
PUBLIC	?PointInDrawingRegion@CTwoPointDownTool@@MBE_NABVCPoint@@@Z ; CTwoPointDownTool::PointInDrawingRegion
PUBLIC	?IsMakeElement@CTwoPointDownTool@@MBE_NABVCPoint@@@Z ; CTwoPointDownTool::IsMakeElement
PUBLIC	?MakeElement@CTwoPointDownTool@@MAEPAVCElement@@ABVCElementCommonEnvironment@@@Z ; CTwoPointDownTool::MakeElement
PUBLIC	?MouseMove@CTwoPointDownTool@@MAE_NPAVCDC@@ABVCPoint@@@Z ; CTwoPointDownTool::MouseMove
PUBLIC	?Draw_UpPoint@CTwoPointDownTool@@MAEXPAVCDC@@@Z	; CTwoPointDownTool::Draw_UpPoint
PUBLIC	?GetDownPoints@CTwoPointDownTool@@IBE?AVCPoints@@XZ ; CTwoPointDownTool::GetDownPoints
PUBLIC	?GetTwoPointDrawingData@CTwoPointDownTool@@ABE?AVCTwoPointDrawingData@@XZ ; CTwoPointDownTool::GetTwoPointDrawingData
PUBLIC	??0CThreePointDownTool@@IAE@PAVCAnalysisData@@W4COORDINATETYPE@CAnalysis@@@Z ; CThreePointDownTool::CThreePointDownTool
PUBLIC	?Initialize@CThreePointDownTool@@UAEXXZ		; CThreePointDownTool::Initialize
PUBLIC	?OnLButtonDown@CThreePointDownTool@@UAEPAVCElement@@PAVCDC@@ABVCPoint@@@Z ; CThreePointDownTool::OnLButtonDown
PUBLIC	?OnLButtonUp@CThreePointDownTool@@UAEXPAVCDC@@ABVCPoint@@@Z ; CThreePointDownTool::OnLButtonUp
PUBLIC	?OnDraw@CThreePointDownTool@@UAEXPAVCDC@@@Z	; CThreePointDownTool::OnDraw
PUBLIC	?SavePoints@CThreePointDownTool@@MAEXABVCPoints@@@Z ; CThreePointDownTool::SavePoints
PUBLIC	?IsMakeElement@CThreePointDownTool@@MBE_NABVCPoint@@@Z ; CThreePointDownTool::IsMakeElement
PUBLIC	?MakeElement@CThreePointDownTool@@MAEPAVCElement@@ABVCElementCommonEnvironment@@@Z ; CThreePointDownTool::MakeElement
PUBLIC	?IsEndPoint@CThreePointDownTool@@ABE_NXZ	; CThreePointDownTool::IsEndPoint
PUBLIC	?GetThreePointDrawingData@CThreePointDownTool@@ABE?AVCThreePointDrawingData@@XZ ; CThreePointDownTool::GetThreePointDrawingData
PUBLIC	??0CMultiPointDownTool@@IAE@PAVCAnalysisData@@W4COORDINATETYPE@CAnalysis@@@Z ; CMultiPointDownTool::CMultiPointDownTool
PUBLIC	?Initialize@CMultiPointDownTool@@UAEXXZ		; CMultiPointDownTool::Initialize
PUBLIC	?OnLButtonDown@CMultiPointDownTool@@UAEPAVCElement@@PAVCDC@@ABVCPoint@@@Z ; CMultiPointDownTool::OnLButtonDown
PUBLIC	?OnLButtonUp@CMultiPointDownTool@@UAEXPAVCDC@@ABVCPoint@@@Z ; CMultiPointDownTool::OnLButtonUp
PUBLIC	?OnMouseMove@CMultiPointDownTool@@UAE_NPAVCDC@@ABVCPoint@@H@Z ; CMultiPointDownTool::OnMouseMove
PUBLIC	?OnDraw@CMultiPointDownTool@@UAEXPAVCDC@@@Z	; CMultiPointDownTool::OnDraw
PUBLIC	?SavePoints@CMultiPointDownTool@@MAEXABVCPoints@@@Z ; CMultiPointDownTool::SavePoints
PUBLIC	?IsMakeElement@CMultiPointDownTool@@MBE_NABVCPoint@@@Z ; CMultiPointDownTool::IsMakeElement
PUBLIC	?MakeElement@CMultiPointDownTool@@MAEPAVCElement@@ABVCElementCommonEnvironment@@@Z ; CMultiPointDownTool::MakeElement
PUBLIC	?IsEndPoint@CMultiPointDownTool@@ABE_NXZ	; CMultiPointDownTool::IsEndPoint
PUBLIC	?GetMultiPointDrawingData@CMultiPointDownTool@@ABE?AVCMultiPointDrawingData@@XZ ; CMultiPointDownTool::GetMultiPointDrawingData
PUBLIC	??1CMultiLanguageResourceSetter@@QAE@XZ		; CMultiLanguageResourceSetter::~CMultiLanguageResourceSetter
PUBLIC	??1COnePointDrawingData@@QAE@XZ			; COnePointDrawingData::~COnePointDrawingData
PUBLIC	??1CTwoPointDrawingData@@QAE@XZ			; CTwoPointDrawingData::~CTwoPointDrawingData
PUBLIC	??1CThreePointDrawingData@@QAE@XZ		; CThreePointDrawingData::~CThreePointDrawingData
PUBLIC	??1CMultiPointDrawingData@@QAE@XZ		; CMultiPointDrawingData::~CMultiPointDrawingData
PUBLIC	??1CDlgAnalysisAdjustRatio@@UAE@XZ		; CDlgAnalysisAdjustRatio::~CDlgAnalysisAdjustRatio
PUBLIC	??_7CMoveTool@@6B@				; CMoveTool::`vftable'
PUBLIC	??_7COnePointMoveTool@@6B@			; COnePointMoveTool::`vftable'
PUBLIC	??_7CTwoPointMoveTool@@6B@			; CTwoPointMoveTool::`vftable'
PUBLIC	??_7CDownTool@@6B@				; CDownTool::`vftable'
PUBLIC	??_7COneOrTwoPointTool@@6B@			; COneOrTwoPointTool::`vftable'
PUBLIC	??_7COnePointDownTool@@6B@			; COnePointDownTool::`vftable'
PUBLIC	??_7CTwoPointDownTool@@6B@			; CTwoPointDownTool::`vftable'
PUBLIC	??_7CThreePointDownTool@@6B@			; CThreePointDownTool::`vftable'
PUBLIC	??_7CMultiPointDownTool@@6B@			; CMultiPointDownTool::`vftable'
PUBLIC	??_C@_0BA@ENJOCHIO@LoadResourceDLL@		; `string'
PUBLIC	??_C@_02PONMEALH@UD@				; `string'
PUBLIC	??_C@_06MLGKKOBC@RDATET@			; `string'
PUBLIC	??_R4CMoveTool@@6B@				; CMoveTool::`RTTI Complete Object Locator'
PUBLIC	??_R0?AVCMoveTool@@@8				; CMoveTool `RTTI Type Descriptor'
PUBLIC	??_R3CMoveTool@@8				; CMoveTool::`RTTI Class Hierarchy Descriptor'
PUBLIC	??_R2CMoveTool@@8				; CMoveTool::`RTTI Base Class Array'
PUBLIC	??_R1A@?0A@EA@CMoveTool@@8			; CMoveTool::`RTTI Base Class Descriptor at (0,-1,0,64)'
PUBLIC	??_R1A@?0A@EA@CTool@@8				; CTool::`RTTI Base Class Descriptor at (0,-1,0,64)'
PUBLIC	??_R0?AVCTool@@@8				; CTool `RTTI Type Descriptor'
PUBLIC	??_R3CTool@@8					; CTool::`RTTI Class Hierarchy Descriptor'
PUBLIC	??_R2CTool@@8					; CTool::`RTTI Base Class Array'
PUBLIC	??_R4COnePointMoveTool@@6B@			; COnePointMoveTool::`RTTI Complete Object Locator'
PUBLIC	??_R0?AVCOnePointMoveTool@@@8			; COnePointMoveTool `RTTI Type Descriptor'
PUBLIC	??_R3COnePointMoveTool@@8			; COnePointMoveTool::`RTTI Class Hierarchy Descriptor'
PUBLIC	??_R2COnePointMoveTool@@8			; COnePointMoveTool::`RTTI Base Class Array'
PUBLIC	??_R1A@?0A@EA@COnePointMoveTool@@8		; COnePointMoveTool::`RTTI Base Class Descriptor at (0,-1,0,64)'
PUBLIC	??_R4CTwoPointMoveTool@@6B@			; CTwoPointMoveTool::`RTTI Complete Object Locator'
PUBLIC	??_R0?AVCTwoPointMoveTool@@@8			; CTwoPointMoveTool `RTTI Type Descriptor'
PUBLIC	??_R3CTwoPointMoveTool@@8			; CTwoPointMoveTool::`RTTI Class Hierarchy Descriptor'
PUBLIC	??_R2CTwoPointMoveTool@@8			; CTwoPointMoveTool::`RTTI Base Class Array'
PUBLIC	??_R1A@?0A@EA@CTwoPointMoveTool@@8		; CTwoPointMoveTool::`RTTI Base Class Descriptor at (0,-1,0,64)'
PUBLIC	??_R4CDownTool@@6B@				; CDownTool::`RTTI Complete Object Locator'
PUBLIC	??_R0?AVCDownTool@@@8				; CDownTool `RTTI Type Descriptor'
PUBLIC	??_R3CDownTool@@8				; CDownTool::`RTTI Class Hierarchy Descriptor'
PUBLIC	??_R2CDownTool@@8				; CDownTool::`RTTI Base Class Array'
PUBLIC	??_R1A@?0A@EA@CDownTool@@8			; CDownTool::`RTTI Base Class Descriptor at (0,-1,0,64)'
PUBLIC	??_R4COneOrTwoPointTool@@6B@			; COneOrTwoPointTool::`RTTI Complete Object Locator'
PUBLIC	??_R0?AVCOneOrTwoPointTool@@@8			; COneOrTwoPointTool `RTTI Type Descriptor'
PUBLIC	??_R3COneOrTwoPointTool@@8			; COneOrTwoPointTool::`RTTI Class Hierarchy Descriptor'
PUBLIC	??_R2COneOrTwoPointTool@@8			; COneOrTwoPointTool::`RTTI Base Class Array'
PUBLIC	??_R1A@?0A@EA@COneOrTwoPointTool@@8		; COneOrTwoPointTool::`RTTI Base Class Descriptor at (0,-1,0,64)'
PUBLIC	??_R4COnePointDownTool@@6B@			; COnePointDownTool::`RTTI Complete Object Locator'
PUBLIC	??_R0?AVCOnePointDownTool@@@8			; COnePointDownTool `RTTI Type Descriptor'
PUBLIC	??_R3COnePointDownTool@@8			; COnePointDownTool::`RTTI Class Hierarchy Descriptor'
PUBLIC	??_R2COnePointDownTool@@8			; COnePointDownTool::`RTTI Base Class Array'
PUBLIC	??_R1A@?0A@EA@COnePointDownTool@@8		; COnePointDownTool::`RTTI Base Class Descriptor at (0,-1,0,64)'
PUBLIC	??_R4CTwoPointDownTool@@6B@			; CTwoPointDownTool::`RTTI Complete Object Locator'
PUBLIC	??_R0?AVCTwoPointDownTool@@@8			; CTwoPointDownTool `RTTI Type Descriptor'
PUBLIC	??_R3CTwoPointDownTool@@8			; CTwoPointDownTool::`RTTI Class Hierarchy Descriptor'
PUBLIC	??_R2CTwoPointDownTool@@8			; CTwoPointDownTool::`RTTI Base Class Array'
PUBLIC	??_R1A@?0A@EA@CTwoPointDownTool@@8		; CTwoPointDownTool::`RTTI Base Class Descriptor at (0,-1,0,64)'
PUBLIC	??_R4CThreePointDownTool@@6B@			; CThreePointDownTool::`RTTI Complete Object Locator'
PUBLIC	??_R0?AVCThreePointDownTool@@@8			; CThreePointDownTool `RTTI Type Descriptor'
PUBLIC	??_R3CThreePointDownTool@@8			; CThreePointDownTool::`RTTI Class Hierarchy Descriptor'
PUBLIC	??_R2CThreePointDownTool@@8			; CThreePointDownTool::`RTTI Base Class Array'
PUBLIC	??_R1A@?0A@EA@CThreePointDownTool@@8		; CThreePointDownTool::`RTTI Base Class Descriptor at (0,-1,0,64)'
PUBLIC	??_R4CMultiPointDownTool@@6B@			; CMultiPointDownTool::`RTTI Complete Object Locator'
PUBLIC	??_R0?AVCMultiPointDownTool@@@8			; CMultiPointDownTool `RTTI Type Descriptor'
PUBLIC	??_R3CMultiPointDownTool@@8			; CMultiPointDownTool::`RTTI Class Hierarchy Descriptor'
PUBLIC	??_R2CMultiPointDownTool@@8			; CMultiPointDownTool::`RTTI Base Class Array'
PUBLIC	??_R1A@?0A@EA@CMultiPointDownTool@@8		; CMultiPointDownTool::`RTTI Base Class Descriptor at (0,-1,0,64)'
PUBLIC	__real@3fe0000000000000
PUBLIC	__real@7fefffffffffffff
PUBLIC	__real@bff0000000000000
PUBLIC	__xmm@7fffffffffffffff7fffffffffffffff
EXTRN	??_L@YGXPAXIIP6EX0@Z1@Z:PROC			; `eh vector constructor iterator'
EXTRN	??_M@YGXPAXIIP6EX0@Z@Z:PROC			; `eh vector destructor iterator'
EXTRN	__purecall:PROC
EXTRN	??3@YAXPAXI@Z:PROC				; operator delete
EXTRN	___std_terminate:PROC
EXTRN	__imp___invalid_parameter_noinfo_noreturn:PROC
EXTRN	__imp__GetProcAddress@8:PROC
EXTRN	__imp__IsRectEmpty@4:PROC
EXTRN	__imp__PtInRect@12:PROC
EXTRN	__imp__atoi:PROC
EXTRN	__imp_??0?$CStringT@DV?$StrTraitMFC_DLL@DV?$ChTraitsCRT@D@ATL@@@@@ATL@@QAE@XZ:PROC
EXTRN	__imp_??1?$CStringT@DV?$StrTraitMFC_DLL@DV?$ChTraitsCRT@D@ATL@@@@@ATL@@QAE@XZ:PROC
EXTRN	__imp_??4?$CStringT@DV?$StrTraitMFC_DLL@DV?$ChTraitsCRT@D@ATL@@@@@ATL@@QAEAAV01@PBD@Z:PROC
EXTRN	??0CObList@@QAE@H@Z:PROC			; CObList::CObList
EXTRN	??1CObList@@UAE@XZ:PROC				; CObList::~CObList
EXTRN	?AfxGetModuleState@@YGPAVAFX_MODULE_STATE@@XZ:PROC ; AfxGetModuleState
EXTRN	?AfxGetStaticModuleState@@YGPAVAFX_MODULE_STATE@@XZ:PROC ; AfxGetStaticModuleState
EXTRN	?DoModal@CDialog@@UAEHXZ:PROC			; CDialog::DoModal
EXTRN	??1CDialog@@UAE@XZ:PROC				; CDialog::~CDialog
EXTRN	??1CListCtrl@@UAE@XZ:PROC			; CListCtrl::~CListCtrl
EXTRN	??1CCoordinateCalculatorData@@QAE@XZ:PROC	; CCoordinateCalculatorData::~CCoordinateCalculatorData
EXTRN	?GetRegion@CCoordinateCalculatorData@@QBE?AVCRect@@XZ:PROC ; CCoordinateCalculatorData::GetRegion
EXTRN	?GetDisplayDataCount@CCoordinateCalculatorData@@QBEHXZ:PROC ; CCoordinateCalculatorData::GetDisplayDataCount
EXTRN	?GetBlockIndex@CCoordinateCalculatorData@@QAEAAVCBlockIndex@@XZ:PROC ; CCoordinateCalculatorData::GetBlockIndex
EXTRN	??0CLineExtEnvironment@@QAE@PAV0@@Z:PROC	; CLineExtEnvironment::CLineExtEnvironment
EXTRN	?GetEquiDiv@CElementCommonEnvironment@@QAEAAHXZ:PROC ; CElementCommonEnvironment::GetEquiDiv
EXTRN	?GetPriceRangeDiv@CElementCommonEnvironment@@QAEAAHXZ:PROC ; CElementCommonEnvironment::GetPriceRangeDiv
EXTRN	?GetLineExt@CElementCommonEnvironment@@QAEAAVCLineExtEnvironment@@XZ:PROC ; CElementCommonEnvironment::GetLineExt
EXTRN	?GetDataType@CElementCommonEnvironment@@QAEAAVCDataTypeEnvironment@@XZ:PROC ; CElementCommonEnvironment::GetDataType
EXTRN	??8CCoordinate@@QAE_NABV0@@Z:PROC		; CCoordinate::operator==
EXTRN	??0CCoordinate@@QAE@ABVCPoint@@@Z:PROC		; CCoordinate::CCoordinate
EXTRN	??0CCoordinate@@QAE@ABV0@@Z:PROC		; CCoordinate::CCoordinate
EXTRN	?GetY@CCoordinate@@QBENXZ:PROC			; CCoordinate::GetY
EXTRN	?SetY@CCoordinate@@QAEXABN@Z:PROC		; CCoordinate::SetY
EXTRN	??4CPoints@@QAEAAV0@ABV0@@Z:PROC		; CPoints::operator=
EXTRN	??0CPoints@@QAE@XZ:PROC				; CPoints::CPoints
EXTRN	??0CPoints@@QAE@ABVCCoordinate@@ABVCPoint@@@Z:PROC ; CPoints::CPoints
EXTRN	?SetPoints_Point_Y@CPoints@@QAEXABH@Z:PROC	; CPoints::SetPoints_Point_Y
EXTRN	?SetPoints_Value_Y@CPoints@@QAEXABN@Z:PROC	; CPoints::SetPoints_Value_Y
EXTRN	?GetSavingPoint@CPoints@@QBE?AVCCoordinate@@XZ:PROC ; CPoints::GetSavingPoint
EXTRN	?GetDrawingPoint@CPoints@@QBE?AVCPoint@@XZ:PROC	; CPoints::GetDrawingPoint
EXTRN	?GetCurrentGraphPartRegion@CDrawingRegions@@QBE?AVCGraphPartRegion@@XZ:PROC ; CDrawingRegions::GetCurrentGraphPartRegion
EXTRN	?GetCurrentFullGraphRegion@CDrawingRegions@@QBE?AVCRect@@XZ:PROC ; CDrawingRegions::GetCurrentFullGraphRegion
EXTRN	?PointInDrawingRegionsInColumn@CDrawingRegions@@QBE_NABVCPoint@@@Z:PROC ; CDrawingRegions::PointInDrawingRegionsInColumn
EXTRN	??0CRegion@@QAE@ABVCRect@@ABVCDisplayAttributes@@@Z:PROC ; CRegion::CRegion
EXTRN	??0CTool@@IAE@PAVCAnalysisData@@W4COORDINATETYPE@CAnalysis@@@Z:PROC ; CTool::CTool
EXTRN	?SetProcessStarting@CTool@@QAEX_N@Z:PROC	; CTool::SetProcessStarting
EXTRN	?Invalidate@CTool@@QAEXXZ:PROC			; CTool::Invalidate
EXTRN	?Initialize@CTool@@UAEXXZ:PROC			; CTool::Initialize
EXTRN	?OnLButtonUp@CTool@@UAEXPAVCDC@@ABVCPoint@@@Z:PROC ; CTool::OnLButtonUp
EXTRN	?OnRButtonUp@CTool@@UAEXPAVCDC@@ABVCPoint@@@Z:PROC ; CTool::OnRButtonUp
EXTRN	?GetCoordinateCalculatorData@CTool@@QBE?AVCCoordinateCalculatorData@@ABVCPoint@@@Z:PROC ; CTool::GetCoordinateCalculatorData
EXTRN	?GetCoordinateCalculator@CTool@@UBEAAVCCoordinateCalculator@@XZ:PROC ; CTool::GetCoordinateCalculator
EXTRN	?PointInDrawingRegion@CTool@@MBE_NABVCPoint@@@Z:PROC ; CTool::PointInDrawingRegion
EXTRN	?GetTextPosition@CTool@@MBEPBVCTextPosition@@XZ:PROC ; CTool::GetTextPosition
EXTRN	?GetTextPosition@CTool@@MAEPAVCTextPosition@@XZ:PROC ; CTool::GetTextPosition
EXTRN	?IsMakeElement@CTool@@MBE_NABVCPoint@@@Z:PROC	; CTool::IsMakeElement
EXTRN	?MakeElement@CTool@@MAEPAVCElement@@ABVCElementCommonEnvironment@@@Z:PROC ; CTool::MakeElement
EXTRN	?IsRelativePointType@CTool@@IBE_NXZ:PROC	; CTool::IsRelativePointType
EXTRN	?GetAnalysisData@CTool@@MBEPAVCAnalysisData@@XZ:PROC ; CTool::GetAnalysisData
EXTRN	?GetDrawingRegions@CTool@@IBEABVCDrawingRegions@@XZ:PROC ; CTool::GetDrawingRegions
EXTRN	?GetElementCommonEnvironment@CTool@@IBE?AVCElementCommonEnvironment@@XZ:PROC ; CTool::GetElementCommonEnvironment
EXTRN	?GetDisplayAttributes@CTool@@IBE?AVCDisplayAttributes@@XZ:PROC ; CTool::GetDisplayAttributes
EXTRN	?GetVertScaleType@CTool@@IBE?AVCVertScaleType@@ABVCPoint@@@Z:PROC ; CTool::GetVertScaleType
EXTRN	?GetPosCoordinate@CTool@@IBE?AVCCoordinate@@ABVCPoint@@@Z:PROC ; CTool::GetPosCoordinate
EXTRN	?GetPoints@CTool@@IBE?AVCPoints@@ABVCPoint@@@Z:PROC ; CTool::GetPoints
EXTRN	?GetPointsAndSetDataType@CTool@@IAE?AVCPoints@@ABVCPoint@@@Z:PROC ; CTool::GetPointsAndSetDataType
EXTRN	?GetDrawingPointAndSetDataType@CTool@@IAE?AVCPoint@@ABV2@@Z:PROC ; CTool::GetDrawingPointAndSetDataType
EXTRN	?SetDrawingRegions@CTool@@IAEXABVCPoint@@@Z:PROC ; CTool::SetDrawingRegions
EXTRN	?ChangeCursor@CTool@@IAEXW4DrawType@CToolEnumData@@@Z:PROC ; CTool::ChangeCursor
EXTRN	?MakeElement@CTool@@IAEXABVCPoint@@@Z:PROC	; CTool::MakeElement
EXTRN	?TanI@CMath@@SAHH@Z:PROC			; CMath::TanI
EXTRN	?Make@CElementFactory@@SAPAVCElement@@W4TOOLTYPE@CAnalysis@@ABVCCoordinate@@PBVCTextPosition@@ABVCElementCommonEnvironment@@@Z:PROC ; CElementFactory::Make
EXTRN	?Make@CElementFactory@@SAPAVCElement@@W4TOOLTYPE@CAnalysis@@ABVCCoordinate@@1PBVCTextPosition@@ABVCElementCommonEnvironment@@N@Z:PROC ; CElementFactory::Make
EXTRN	?Make@CElementFactory@@SAPAVCElement@@W4TOOLTYPE@CAnalysis@@ABVCCoordinate@@11PBVCTextPosition@@ABVCElementCommonEnvironment@@@Z:PROC ; CElementFactory::Make
EXTRN	?Make@CElementFactory@@SAPAVCElement@@W4TOOLTYPE@CAnalysis@@HPBVCPoints@@ABVCElementCommonEnvironment@@@Z:PROC ; CElementFactory::Make
EXTRN	?GetPriceRangeDivType@CDrawingData@@QBEHXZ:PROC	; CDrawingData::GetPriceRangeDivType
EXTRN	??0COnePointDrawingData@@QAE@ABVCDataTypeEnvironment@@PAVCTextPosition@@PAVCLineExtEnvironment@@PBVCDrawingRegions@@ABVCDisplayAttributes@@ABVCVertScaleType@@ABVCPoints@@W4HORZSCALEDRAWERTYPE@CScaleBaseData@@@Z:PROC ; COnePointDrawingData::COnePointDrawingData
EXTRN	??0CTwoPointDrawingData@@QAE@ABVCDataTypeEnvironment@@ABH1PAVCTextPosition@@ABVCLineExtEnvironment@@ABVCGraphPartRegion@@ABVCDisplayAttributes@@ABVCVertScaleType@@ABVCPoints@@7W4HORZSCALEDRAWERTYPE@CScaleBaseData@@@Z:PROC ; CTwoPointDrawingData::CTwoPointDrawingData
EXTRN	?GetStartPoints@CTwoPointDrawingData@@QBE?AVCPoints@@XZ:PROC ; CTwoPointDrawingData::GetStartPoints
EXTRN	?GetEndPoints@CTwoPointDrawingData@@QBE?AVCPoints@@XZ:PROC ; CTwoPointDrawingData::GetEndPoints
EXTRN	?SetStartYPoints_Pos@CTwoPointDrawingData@@QAEXABH@Z:PROC ; CTwoPointDrawingData::SetStartYPoints_Pos
EXTRN	?SetEndYPoints_Pos@CTwoPointDrawingData@@QAEXABH@Z:PROC ; CTwoPointDrawingData::SetEndYPoints_Pos
EXTRN	??0CThreePointDrawingData@@QAE@ABVCDataTypeEnvironment@@PAVCTextPosition@@PAVCLineExtEnvironment@@ABVCRect@@ABVCDisplayAttributes@@ABVCVertScaleType@@HABVCPoints@@66W4HORZSCALEDRAWERTYPE@CScaleBaseData@@@Z:PROC ; CThreePointDrawingData::CThreePointDrawingData
EXTRN	??0CMultiPointDrawingData@@QAE@ABVCDataTypeEnvironment@@PAVCTextPosition@@PAVCLineExtEnvironment@@ABVCRect@@ABVCDisplayAttributes@@ABVCVertScaleType@@HPBVCPoints@@W4HORZSCALEDRAWERTYPE@CScaleBaseData@@@Z:PROC ; CMultiPointDrawingData::CMultiPointDrawingData
EXTRN	?DrawTool@COnePointDrawer@@QAEXPAVCDC@@ABVCOnePointDrawingData@@H@Z:PROC ; COnePointDrawer::DrawTool
EXTRN	?DrawElement@COnePointDrawer@@QAEXPAVCDC@@ABVCOnePointDrawingData@@H@Z:PROC ; COnePointDrawer::DrawElement
EXTRN	?DrawTool@CTwoPointDrawer@@QAEXPAVCDC@@ABVCTwoPointDrawingData@@H@Z:PROC ; CTwoPointDrawer::DrawTool
EXTRN	?DrawTool@CThreePointDrawer@@QAEXPAVCDC@@ABVCThreePointDrawingData@@H@Z:PROC ; CThreePointDrawer::DrawTool
EXTRN	?DrawTool@CMultiPointDrawer@@QAEXPAVCDC@@ABVCMultiPointDrawingData@@H@Z:PROC ; CMultiPointDrawer::DrawTool
EXTRN	?AbsoluteToRelative@CCoordinateCalculator@@QBE?AVCCoordinate@@ABVCCoordinateCalculatorData@@ABVCPoint@@@Z:PROC ; CCoordinateCalculator::AbsoluteToRelative
EXTRN	?RelativeToAbsolute@CCoordinateCalculator@@QBE?AVCPoint@@ABVCCoordinateCalculatorData@@ABVCCoordinate@@@Z:PROC ; CCoordinateCalculator::RelativeToAbsolute
EXTRN	?GetCurrentDataIndex@CCoordinateCalculator@@QBEHABVCRegion@@ABVCPoint@@@Z:PROC ; CCoordinateCalculator::GetCurrentDataIndex
EXTRN	?GetDrawingPoint_X@CCoordinateCalculator@@QBEHABVCRegion@@H@Z:PROC ; CCoordinateCalculator::GetDrawingPoint_X
EXTRN	?RelativeToAbsolute_NoAutoPrice@CCoordinateCalculator@@QBE?AVCPoint@@ABVCCoordinateCalculatorData@@ABVCCoordinate@@@Z:PROC ; CCoordinateCalculator::RelativeToAbsolute_NoAutoPrice
EXTRN	?FindCoordinateCalculator@CCoordinateCalculatorFinder@@SAAAVCCoordinateCalculator@@_N@Z:PROC ; CCoordinateCalculatorFinder::FindCoordinateCalculator
EXTRN	??0CDlgAnalysisAdjustRatio@@QAE@PAUHWND__@@PAVCWnd@@@Z:PROC ; CDlgAnalysisAdjustRatio::CDlgAnalysisAdjustRatio
EXTRN	?SetValue@CDlgAnalysisAdjustRatio@@QAEXHN@Z:PROC ; CDlgAnalysisAdjustRatio::SetValue
EXTRN	?UpdatePointsForPriceRangeOption@CTwoPointElement@@SAHABVCCoordinateCalculatorData@@AAVCCoordinate@@1AAN2@Z:PROC ; CTwoPointElement::UpdatePointsForPriceRangeOption
EXTRN	@__security_check_cookie@4:PROC
EXTRN	___CxxFrameHandler3:PROC
EXTRN	__chkstk:PROC
EXTRN	??_7type_info@@6B@:QWORD			; type_info::`vftable'
EXTRN	?g_iMetaTable@@3VIMetaTable@@A:BYTE		; g_iMetaTable
EXTRN	___security_cookie:DWORD
EXTRN	__fltused:DWORD
;	COMDAT __xmm@7fffffffffffffff7fffffffffffffff
CONST	SEGMENT
__xmm@7fffffffffffffff7fffffffffffffff DB 0ffH, 0ffH, 0ffH, 0ffH, 0ffH, 0ffH
	DB	0ffH, 07fH, 0ffH, 0ffH, 0ffH, 0ffH, 0ffH, 0ffH, 0ffH, 07fH
CONST	ENDS
;	COMDAT __real@bff0000000000000
CONST	SEGMENT
__real@bff0000000000000 DQ 0bff0000000000000r	; -1
CONST	ENDS
;	COMDAT __real@7fefffffffffffff
CONST	SEGMENT
__real@7fefffffffffffff DQ 07fefffffffffffffr	; 1.79769e+308
CONST	ENDS
;	COMDAT __real@3fe0000000000000
CONST	SEGMENT
__real@3fe0000000000000 DQ 03fe0000000000000r	; 0.5
CONST	ENDS
;	COMDAT ??_R1A@?0A@EA@CMultiPointDownTool@@8
rdata$r	SEGMENT
??_R1A@?0A@EA@CMultiPointDownTool@@8 DD FLAT:??_R0?AVCMultiPointDownTool@@@8 ; CMultiPointDownTool::`RTTI Base Class Descriptor at (0,-1,0,64)'
	DD	02H
	DD	00H
	DD	0ffffffffH
	DD	00H
	DD	040H
	DD	FLAT:??_R3CMultiPointDownTool@@8
rdata$r	ENDS
;	COMDAT ??_R2CMultiPointDownTool@@8
rdata$r	SEGMENT
??_R2CMultiPointDownTool@@8 DD FLAT:??_R1A@?0A@EA@CMultiPointDownTool@@8 ; CMultiPointDownTool::`RTTI Base Class Array'
	DD	FLAT:??_R1A@?0A@EA@CDownTool@@8
	DD	FLAT:??_R1A@?0A@EA@CTool@@8
rdata$r	ENDS
;	COMDAT ??_R3CMultiPointDownTool@@8
rdata$r	SEGMENT
??_R3CMultiPointDownTool@@8 DD 00H			; CMultiPointDownTool::`RTTI Class Hierarchy Descriptor'
	DD	00H
	DD	03H
	DD	FLAT:??_R2CMultiPointDownTool@@8
rdata$r	ENDS
;	COMDAT ??_R0?AVCMultiPointDownTool@@@8
data$rs	SEGMENT
??_R0?AVCMultiPointDownTool@@@8 DD FLAT:??_7type_info@@6B@ ; CMultiPointDownTool `RTTI Type Descriptor'
	DD	00H
	DB	'.?AVCMultiPointDownTool@@', 00H
data$rs	ENDS
;	COMDAT ??_R4CMultiPointDownTool@@6B@
rdata$r	SEGMENT
??_R4CMultiPointDownTool@@6B@ DD 00H			; CMultiPointDownTool::`RTTI Complete Object Locator'
	DD	00H
	DD	00H
	DD	FLAT:??_R0?AVCMultiPointDownTool@@@8
	DD	FLAT:??_R3CMultiPointDownTool@@8
rdata$r	ENDS
;	COMDAT ??_R1A@?0A@EA@CThreePointDownTool@@8
rdata$r	SEGMENT
??_R1A@?0A@EA@CThreePointDownTool@@8 DD FLAT:??_R0?AVCThreePointDownTool@@@8 ; CThreePointDownTool::`RTTI Base Class Descriptor at (0,-1,0,64)'
	DD	02H
	DD	00H
	DD	0ffffffffH
	DD	00H
	DD	040H
	DD	FLAT:??_R3CThreePointDownTool@@8
rdata$r	ENDS
;	COMDAT ??_R2CThreePointDownTool@@8
rdata$r	SEGMENT
??_R2CThreePointDownTool@@8 DD FLAT:??_R1A@?0A@EA@CThreePointDownTool@@8 ; CThreePointDownTool::`RTTI Base Class Array'
	DD	FLAT:??_R1A@?0A@EA@CDownTool@@8
	DD	FLAT:??_R1A@?0A@EA@CTool@@8
rdata$r	ENDS
;	COMDAT ??_R3CThreePointDownTool@@8
rdata$r	SEGMENT
??_R3CThreePointDownTool@@8 DD 00H			; CThreePointDownTool::`RTTI Class Hierarchy Descriptor'
	DD	00H
	DD	03H
	DD	FLAT:??_R2CThreePointDownTool@@8
rdata$r	ENDS
;	COMDAT ??_R0?AVCThreePointDownTool@@@8
data$rs	SEGMENT
??_R0?AVCThreePointDownTool@@@8 DD FLAT:??_7type_info@@6B@ ; CThreePointDownTool `RTTI Type Descriptor'
	DD	00H
	DB	'.?AVCThreePointDownTool@@', 00H
data$rs	ENDS
;	COMDAT ??_R4CThreePointDownTool@@6B@
rdata$r	SEGMENT
??_R4CThreePointDownTool@@6B@ DD 00H			; CThreePointDownTool::`RTTI Complete Object Locator'
	DD	00H
	DD	00H
	DD	FLAT:??_R0?AVCThreePointDownTool@@@8
	DD	FLAT:??_R3CThreePointDownTool@@8
rdata$r	ENDS
;	COMDAT ??_R1A@?0A@EA@CTwoPointDownTool@@8
rdata$r	SEGMENT
??_R1A@?0A@EA@CTwoPointDownTool@@8 DD FLAT:??_R0?AVCTwoPointDownTool@@@8 ; CTwoPointDownTool::`RTTI Base Class Descriptor at (0,-1,0,64)'
	DD	03H
	DD	00H
	DD	0ffffffffH
	DD	00H
	DD	040H
	DD	FLAT:??_R3CTwoPointDownTool@@8
rdata$r	ENDS
;	COMDAT ??_R2CTwoPointDownTool@@8
rdata$r	SEGMENT
??_R2CTwoPointDownTool@@8 DD FLAT:??_R1A@?0A@EA@CTwoPointDownTool@@8 ; CTwoPointDownTool::`RTTI Base Class Array'
	DD	FLAT:??_R1A@?0A@EA@COneOrTwoPointTool@@8
	DD	FLAT:??_R1A@?0A@EA@CDownTool@@8
	DD	FLAT:??_R1A@?0A@EA@CTool@@8
rdata$r	ENDS
;	COMDAT ??_R3CTwoPointDownTool@@8
rdata$r	SEGMENT
??_R3CTwoPointDownTool@@8 DD 00H			; CTwoPointDownTool::`RTTI Class Hierarchy Descriptor'
	DD	00H
	DD	04H
	DD	FLAT:??_R2CTwoPointDownTool@@8
rdata$r	ENDS
;	COMDAT ??_R0?AVCTwoPointDownTool@@@8
data$rs	SEGMENT
??_R0?AVCTwoPointDownTool@@@8 DD FLAT:??_7type_info@@6B@ ; CTwoPointDownTool `RTTI Type Descriptor'
	DD	00H
	DB	'.?AVCTwoPointDownTool@@', 00H
data$rs	ENDS
;	COMDAT ??_R4CTwoPointDownTool@@6B@
rdata$r	SEGMENT
??_R4CTwoPointDownTool@@6B@ DD 00H			; CTwoPointDownTool::`RTTI Complete Object Locator'
	DD	00H
	DD	00H
	DD	FLAT:??_R0?AVCTwoPointDownTool@@@8
	DD	FLAT:??_R3CTwoPointDownTool@@8
rdata$r	ENDS
;	COMDAT ??_R1A@?0A@EA@COnePointDownTool@@8
rdata$r	SEGMENT
??_R1A@?0A@EA@COnePointDownTool@@8 DD FLAT:??_R0?AVCOnePointDownTool@@@8 ; COnePointDownTool::`RTTI Base Class Descriptor at (0,-1,0,64)'
	DD	03H
	DD	00H
	DD	0ffffffffH
	DD	00H
	DD	040H
	DD	FLAT:??_R3COnePointDownTool@@8
rdata$r	ENDS
;	COMDAT ??_R2COnePointDownTool@@8
rdata$r	SEGMENT
??_R2COnePointDownTool@@8 DD FLAT:??_R1A@?0A@EA@COnePointDownTool@@8 ; COnePointDownTool::`RTTI Base Class Array'
	DD	FLAT:??_R1A@?0A@EA@COneOrTwoPointTool@@8
	DD	FLAT:??_R1A@?0A@EA@CDownTool@@8
	DD	FLAT:??_R1A@?0A@EA@CTool@@8
rdata$r	ENDS
;	COMDAT ??_R3COnePointDownTool@@8
rdata$r	SEGMENT
??_R3COnePointDownTool@@8 DD 00H			; COnePointDownTool::`RTTI Class Hierarchy Descriptor'
	DD	00H
	DD	04H
	DD	FLAT:??_R2COnePointDownTool@@8
rdata$r	ENDS
;	COMDAT ??_R0?AVCOnePointDownTool@@@8
data$rs	SEGMENT
??_R0?AVCOnePointDownTool@@@8 DD FLAT:??_7type_info@@6B@ ; COnePointDownTool `RTTI Type Descriptor'
	DD	00H
	DB	'.?AVCOnePointDownTool@@', 00H
data$rs	ENDS
;	COMDAT ??_R4COnePointDownTool@@6B@
rdata$r	SEGMENT
??_R4COnePointDownTool@@6B@ DD 00H			; COnePointDownTool::`RTTI Complete Object Locator'
	DD	00H
	DD	00H
	DD	FLAT:??_R0?AVCOnePointDownTool@@@8
	DD	FLAT:??_R3COnePointDownTool@@8
rdata$r	ENDS
;	COMDAT ??_R1A@?0A@EA@COneOrTwoPointTool@@8
rdata$r	SEGMENT
??_R1A@?0A@EA@COneOrTwoPointTool@@8 DD FLAT:??_R0?AVCOneOrTwoPointTool@@@8 ; COneOrTwoPointTool::`RTTI Base Class Descriptor at (0,-1,0,64)'
	DD	02H
	DD	00H
	DD	0ffffffffH
	DD	00H
	DD	040H
	DD	FLAT:??_R3COneOrTwoPointTool@@8
rdata$r	ENDS
;	COMDAT ??_R2COneOrTwoPointTool@@8
rdata$r	SEGMENT
??_R2COneOrTwoPointTool@@8 DD FLAT:??_R1A@?0A@EA@COneOrTwoPointTool@@8 ; COneOrTwoPointTool::`RTTI Base Class Array'
	DD	FLAT:??_R1A@?0A@EA@CDownTool@@8
	DD	FLAT:??_R1A@?0A@EA@CTool@@8
rdata$r	ENDS
;	COMDAT ??_R3COneOrTwoPointTool@@8
rdata$r	SEGMENT
??_R3COneOrTwoPointTool@@8 DD 00H			; COneOrTwoPointTool::`RTTI Class Hierarchy Descriptor'
	DD	00H
	DD	03H
	DD	FLAT:??_R2COneOrTwoPointTool@@8
rdata$r	ENDS
;	COMDAT ??_R0?AVCOneOrTwoPointTool@@@8
data$rs	SEGMENT
??_R0?AVCOneOrTwoPointTool@@@8 DD FLAT:??_7type_info@@6B@ ; COneOrTwoPointTool `RTTI Type Descriptor'
	DD	00H
	DB	'.?AVCOneOrTwoPointTool@@', 00H
data$rs	ENDS
;	COMDAT ??_R4COneOrTwoPointTool@@6B@
rdata$r	SEGMENT
??_R4COneOrTwoPointTool@@6B@ DD 00H			; COneOrTwoPointTool::`RTTI Complete Object Locator'
	DD	00H
	DD	00H
	DD	FLAT:??_R0?AVCOneOrTwoPointTool@@@8
	DD	FLAT:??_R3COneOrTwoPointTool@@8
rdata$r	ENDS
;	COMDAT ??_R1A@?0A@EA@CDownTool@@8
rdata$r	SEGMENT
??_R1A@?0A@EA@CDownTool@@8 DD FLAT:??_R0?AVCDownTool@@@8 ; CDownTool::`RTTI Base Class Descriptor at (0,-1,0,64)'
	DD	01H
	DD	00H
	DD	0ffffffffH
	DD	00H
	DD	040H
	DD	FLAT:??_R3CDownTool@@8
rdata$r	ENDS
;	COMDAT ??_R2CDownTool@@8
rdata$r	SEGMENT
??_R2CDownTool@@8 DD FLAT:??_R1A@?0A@EA@CDownTool@@8	; CDownTool::`RTTI Base Class Array'
	DD	FLAT:??_R1A@?0A@EA@CTool@@8
rdata$r	ENDS
;	COMDAT ??_R3CDownTool@@8
rdata$r	SEGMENT
??_R3CDownTool@@8 DD 00H				; CDownTool::`RTTI Class Hierarchy Descriptor'
	DD	00H
	DD	02H
	DD	FLAT:??_R2CDownTool@@8
rdata$r	ENDS
;	COMDAT ??_R0?AVCDownTool@@@8
data$rs	SEGMENT
??_R0?AVCDownTool@@@8 DD FLAT:??_7type_info@@6B@	; CDownTool `RTTI Type Descriptor'
	DD	00H
	DB	'.?AVCDownTool@@', 00H
data$rs	ENDS
;	COMDAT ??_R4CDownTool@@6B@
rdata$r	SEGMENT
??_R4CDownTool@@6B@ DD 00H				; CDownTool::`RTTI Complete Object Locator'
	DD	00H
	DD	00H
	DD	FLAT:??_R0?AVCDownTool@@@8
	DD	FLAT:??_R3CDownTool@@8
rdata$r	ENDS
;	COMDAT ??_R1A@?0A@EA@CTwoPointMoveTool@@8
rdata$r	SEGMENT
??_R1A@?0A@EA@CTwoPointMoveTool@@8 DD FLAT:??_R0?AVCTwoPointMoveTool@@@8 ; CTwoPointMoveTool::`RTTI Base Class Descriptor at (0,-1,0,64)'
	DD	02H
	DD	00H
	DD	0ffffffffH
	DD	00H
	DD	040H
	DD	FLAT:??_R3CTwoPointMoveTool@@8
rdata$r	ENDS
;	COMDAT ??_R2CTwoPointMoveTool@@8
rdata$r	SEGMENT
??_R2CTwoPointMoveTool@@8 DD FLAT:??_R1A@?0A@EA@CTwoPointMoveTool@@8 ; CTwoPointMoveTool::`RTTI Base Class Array'
	DD	FLAT:??_R1A@?0A@EA@CMoveTool@@8
	DD	FLAT:??_R1A@?0A@EA@CTool@@8
rdata$r	ENDS
;	COMDAT ??_R3CTwoPointMoveTool@@8
rdata$r	SEGMENT
??_R3CTwoPointMoveTool@@8 DD 00H			; CTwoPointMoveTool::`RTTI Class Hierarchy Descriptor'
	DD	00H
	DD	03H
	DD	FLAT:??_R2CTwoPointMoveTool@@8
rdata$r	ENDS
;	COMDAT ??_R0?AVCTwoPointMoveTool@@@8
data$rs	SEGMENT
??_R0?AVCTwoPointMoveTool@@@8 DD FLAT:??_7type_info@@6B@ ; CTwoPointMoveTool `RTTI Type Descriptor'
	DD	00H
	DB	'.?AVCTwoPointMoveTool@@', 00H
data$rs	ENDS
;	COMDAT ??_R4CTwoPointMoveTool@@6B@
rdata$r	SEGMENT
??_R4CTwoPointMoveTool@@6B@ DD 00H			; CTwoPointMoveTool::`RTTI Complete Object Locator'
	DD	00H
	DD	00H
	DD	FLAT:??_R0?AVCTwoPointMoveTool@@@8
	DD	FLAT:??_R3CTwoPointMoveTool@@8
rdata$r	ENDS
;	COMDAT ??_R1A@?0A@EA@COnePointMoveTool@@8
rdata$r	SEGMENT
??_R1A@?0A@EA@COnePointMoveTool@@8 DD FLAT:??_R0?AVCOnePointMoveTool@@@8 ; COnePointMoveTool::`RTTI Base Class Descriptor at (0,-1,0,64)'
	DD	02H
	DD	00H
	DD	0ffffffffH
	DD	00H
	DD	040H
	DD	FLAT:??_R3COnePointMoveTool@@8
rdata$r	ENDS
;	COMDAT ??_R2COnePointMoveTool@@8
rdata$r	SEGMENT
??_R2COnePointMoveTool@@8 DD FLAT:??_R1A@?0A@EA@COnePointMoveTool@@8 ; COnePointMoveTool::`RTTI Base Class Array'
	DD	FLAT:??_R1A@?0A@EA@CMoveTool@@8
	DD	FLAT:??_R1A@?0A@EA@CTool@@8
rdata$r	ENDS
;	COMDAT ??_R3COnePointMoveTool@@8
rdata$r	SEGMENT
??_R3COnePointMoveTool@@8 DD 00H			; COnePointMoveTool::`RTTI Class Hierarchy Descriptor'
	DD	00H
	DD	03H
	DD	FLAT:??_R2COnePointMoveTool@@8
rdata$r	ENDS
;	COMDAT ??_R0?AVCOnePointMoveTool@@@8
data$rs	SEGMENT
??_R0?AVCOnePointMoveTool@@@8 DD FLAT:??_7type_info@@6B@ ; COnePointMoveTool `RTTI Type Descriptor'
	DD	00H
	DB	'.?AVCOnePointMoveTool@@', 00H
data$rs	ENDS
;	COMDAT ??_R4COnePointMoveTool@@6B@
rdata$r	SEGMENT
??_R4COnePointMoveTool@@6B@ DD 00H			; COnePointMoveTool::`RTTI Complete Object Locator'
	DD	00H
	DD	00H
	DD	FLAT:??_R0?AVCOnePointMoveTool@@@8
	DD	FLAT:??_R3COnePointMoveTool@@8
rdata$r	ENDS
;	COMDAT ??_R2CTool@@8
rdata$r	SEGMENT
??_R2CTool@@8 DD FLAT:??_R1A@?0A@EA@CTool@@8		; CTool::`RTTI Base Class Array'
rdata$r	ENDS
;	COMDAT ??_R3CTool@@8
rdata$r	SEGMENT
??_R3CTool@@8 DD 00H					; CTool::`RTTI Class Hierarchy Descriptor'
	DD	00H
	DD	01H
	DD	FLAT:??_R2CTool@@8
rdata$r	ENDS
;	COMDAT ??_R0?AVCTool@@@8
data$rs	SEGMENT
??_R0?AVCTool@@@8 DD FLAT:??_7type_info@@6B@		; CTool `RTTI Type Descriptor'
	DD	00H
	DB	'.?AVCTool@@', 00H
data$rs	ENDS
;	COMDAT ??_R1A@?0A@EA@CTool@@8
rdata$r	SEGMENT
??_R1A@?0A@EA@CTool@@8 DD FLAT:??_R0?AVCTool@@@8	; CTool::`RTTI Base Class Descriptor at (0,-1,0,64)'
	DD	00H
	DD	00H
	DD	0ffffffffH
	DD	00H
	DD	040H
	DD	FLAT:??_R3CTool@@8
rdata$r	ENDS
;	COMDAT ??_R1A@?0A@EA@CMoveTool@@8
rdata$r	SEGMENT
??_R1A@?0A@EA@CMoveTool@@8 DD FLAT:??_R0?AVCMoveTool@@@8 ; CMoveTool::`RTTI Base Class Descriptor at (0,-1,0,64)'
	DD	01H
	DD	00H
	DD	0ffffffffH
	DD	00H
	DD	040H
	DD	FLAT:??_R3CMoveTool@@8
rdata$r	ENDS
;	COMDAT ??_R2CMoveTool@@8
rdata$r	SEGMENT
??_R2CMoveTool@@8 DD FLAT:??_R1A@?0A@EA@CMoveTool@@8	; CMoveTool::`RTTI Base Class Array'
	DD	FLAT:??_R1A@?0A@EA@CTool@@8
rdata$r	ENDS
;	COMDAT ??_R3CMoveTool@@8
rdata$r	SEGMENT
??_R3CMoveTool@@8 DD 00H				; CMoveTool::`RTTI Class Hierarchy Descriptor'
	DD	00H
	DD	02H
	DD	FLAT:??_R2CMoveTool@@8
rdata$r	ENDS
;	COMDAT ??_R0?AVCMoveTool@@@8
data$rs	SEGMENT
??_R0?AVCMoveTool@@@8 DD FLAT:??_7type_info@@6B@	; CMoveTool `RTTI Type Descriptor'
	DD	00H
	DB	'.?AVCMoveTool@@', 00H
data$rs	ENDS
;	COMDAT ??_R4CMoveTool@@6B@
rdata$r	SEGMENT
??_R4CMoveTool@@6B@ DD 00H				; CMoveTool::`RTTI Complete Object Locator'
	DD	00H
	DD	00H
	DD	FLAT:??_R0?AVCMoveTool@@@8
	DD	FLAT:??_R3CMoveTool@@8
rdata$r	ENDS
;	COMDAT ??_C@_06MLGKKOBC@RDATET@
CONST	SEGMENT
??_C@_06MLGKKOBC@RDATET@ DB 'RDATET', 00H		; `string'
CONST	ENDS
;	COMDAT ??_C@_02PONMEALH@UD@
CONST	SEGMENT
??_C@_02PONMEALH@UD@ DB 'UD', 00H			; `string'
CONST	ENDS
;	COMDAT ??_C@_0BA@ENJOCHIO@LoadResourceDLL@
CONST	SEGMENT
??_C@_0BA@ENJOCHIO@LoadResourceDLL@ DB 'LoadResourceDLL', 00H ; `string'
CONST	ENDS
;	COMDAT ??_7CMultiPointDownTool@@6B@
CONST	SEGMENT
??_7CMultiPointDownTool@@6B@ DD FLAT:??_R4CMultiPointDownTool@@6B@ ; CMultiPointDownTool::`vftable'
	DD	FLAT:?Initialize@CMultiPointDownTool@@UAEXXZ
	DD	FLAT:?OnLButtonDown@CMultiPointDownTool@@UAEPAVCElement@@PAVCDC@@ABVCPoint@@@Z
	DD	FLAT:?OnLButtonUp@CMultiPointDownTool@@UAEXPAVCDC@@ABVCPoint@@@Z
	DD	FLAT:?OnMouseMove@CMultiPointDownTool@@UAE_NPAVCDC@@ABVCPoint@@H@Z
	DD	FLAT:?OnRButtonUp@CTool@@UAEXPAVCDC@@ABVCPoint@@@Z
	DD	FLAT:?OnDraw@CMultiPointDownTool@@UAEXPAVCDC@@@Z
	DD	FLAT:?GetCoordinateCalculator@CTool@@UBEAAVCCoordinateCalculator@@XZ
	DD	FLAT:?PointInDrawingRegion@CTool@@MBE_NABVCPoint@@@Z
	DD	FLAT:?SavePoints@CMultiPointDownTool@@MAEXABVCPoints@@@Z
	DD	FLAT:__purecall
	DD	FLAT:?GetTextPosition@CTool@@MAEPAVCTextPosition@@XZ
	DD	FLAT:?GetTextPosition@CTool@@MBEPBVCTextPosition@@XZ
	DD	FLAT:?IsMakeElement@CMultiPointDownTool@@MBE_NABVCPoint@@@Z
	DD	FLAT:?MakeElement@CMultiPointDownTool@@MAEPAVCElement@@ABVCElementCommonEnvironment@@@Z
	DD	FLAT:?GetAnalysisData@CTool@@MBEPAVCAnalysisData@@XZ
	DD	FLAT:__purecall
CONST	ENDS
;	COMDAT ??_7CThreePointDownTool@@6B@
CONST	SEGMENT
??_7CThreePointDownTool@@6B@ DD FLAT:??_R4CThreePointDownTool@@6B@ ; CThreePointDownTool::`vftable'
	DD	FLAT:?Initialize@CThreePointDownTool@@UAEXXZ
	DD	FLAT:?OnLButtonDown@CThreePointDownTool@@UAEPAVCElement@@PAVCDC@@ABVCPoint@@@Z
	DD	FLAT:?OnLButtonUp@CThreePointDownTool@@UAEXPAVCDC@@ABVCPoint@@@Z
	DD	FLAT:?OnMouseMove@CDownTool@@UAE_NPAVCDC@@ABVCPoint@@H@Z
	DD	FLAT:?OnRButtonUp@CTool@@UAEXPAVCDC@@ABVCPoint@@@Z
	DD	FLAT:?OnDraw@CThreePointDownTool@@UAEXPAVCDC@@@Z
	DD	FLAT:?GetCoordinateCalculator@CTool@@UBEAAVCCoordinateCalculator@@XZ
	DD	FLAT:?PointInDrawingRegion@CTool@@MBE_NABVCPoint@@@Z
	DD	FLAT:?SavePoints@CThreePointDownTool@@MAEXABVCPoints@@@Z
	DD	FLAT:__purecall
	DD	FLAT:?GetTextPosition@CTool@@MAEPAVCTextPosition@@XZ
	DD	FLAT:?GetTextPosition@CTool@@MBEPBVCTextPosition@@XZ
	DD	FLAT:?IsMakeElement@CThreePointDownTool@@MBE_NABVCPoint@@@Z
	DD	FLAT:?MakeElement@CThreePointDownTool@@MAEPAVCElement@@ABVCElementCommonEnvironment@@@Z
	DD	FLAT:?GetAnalysisData@CTool@@MBEPAVCAnalysisData@@XZ
	DD	FLAT:__purecall
CONST	ENDS
;	COMDAT ??_7CTwoPointDownTool@@6B@
CONST	SEGMENT
??_7CTwoPointDownTool@@6B@ DD FLAT:??_R4CTwoPointDownTool@@6B@ ; CTwoPointDownTool::`vftable'
	DD	FLAT:?Initialize@CDownTool@@UAEXXZ
	DD	FLAT:?OnLButtonDown@CTwoPointDownTool@@UAEPAVCElement@@PAVCDC@@ABVCPoint@@@Z
	DD	FLAT:?OnLButtonUp@COneOrTwoPointTool@@UAEXPAVCDC@@ABVCPoint@@@Z
	DD	FLAT:?OnMouseMove@COneOrTwoPointTool@@UAE_NPAVCDC@@ABVCPoint@@H@Z
	DD	FLAT:?OnRButtonUp@CTool@@UAEXPAVCDC@@ABVCPoint@@@Z
	DD	FLAT:?OnDraw@COneOrTwoPointTool@@UAEXPAVCDC@@@Z
	DD	FLAT:?GetCoordinateCalculator@CTool@@UBEAAVCCoordinateCalculator@@XZ
	DD	FLAT:?PointInDrawingRegion@CTwoPointDownTool@@MBE_NABVCPoint@@@Z
	DD	FLAT:?SavePoints@COneOrTwoPointTool@@MAEXABVCPoints@@@Z
	DD	FLAT:__purecall
	DD	FLAT:?GetTextPosition@CTool@@MAEPAVCTextPosition@@XZ
	DD	FLAT:?GetTextPosition@CTool@@MBEPBVCTextPosition@@XZ
	DD	FLAT:?IsMakeElement@CTwoPointDownTool@@MBE_NABVCPoint@@@Z
	DD	FLAT:?MakeElement@CTwoPointDownTool@@MAEPAVCElement@@ABVCElementCommonEnvironment@@@Z
	DD	FLAT:?GetAnalysisData@CTool@@MBEPAVCAnalysisData@@XZ
	DD	FLAT:?MouseMove@CTwoPointDownTool@@MAE_NPAVCDC@@ABVCPoint@@@Z
	DD	FLAT:?Draw_UpPoint@CTwoPointDownTool@@MAEXPAVCDC@@@Z
	DD	FLAT:__purecall
CONST	ENDS
;	COMDAT ??_7COnePointDownTool@@6B@
CONST	SEGMENT
??_7COnePointDownTool@@6B@ DD FLAT:??_R4COnePointDownTool@@6B@ ; COnePointDownTool::`vftable'
	DD	FLAT:?Initialize@CDownTool@@UAEXXZ
	DD	FLAT:?OnLButtonDown@COnePointDownTool@@UAEPAVCElement@@PAVCDC@@ABVCPoint@@@Z
	DD	FLAT:?OnLButtonUp@COneOrTwoPointTool@@UAEXPAVCDC@@ABVCPoint@@@Z
	DD	FLAT:?OnMouseMove@COnePointDownTool@@UAE_NPAVCDC@@ABVCPoint@@H@Z
	DD	FLAT:?OnRButtonUp@CTool@@UAEXPAVCDC@@ABVCPoint@@@Z
	DD	FLAT:?OnDraw@COnePointDownTool@@UAEXPAVCDC@@@Z
	DD	FLAT:?GetCoordinateCalculator@CTool@@UBEAAVCCoordinateCalculator@@XZ
	DD	FLAT:?PointInDrawingRegion@COnePointDownTool@@MBE_NABVCPoint@@@Z
	DD	FLAT:?SavePoints@COneOrTwoPointTool@@MAEXABVCPoints@@@Z
	DD	FLAT:__purecall
	DD	FLAT:?GetTextPosition@CTool@@MAEPAVCTextPosition@@XZ
	DD	FLAT:?GetTextPosition@CTool@@MBEPBVCTextPosition@@XZ
	DD	FLAT:?IsMakeElement@CTool@@MBE_NABVCPoint@@@Z
	DD	FLAT:?MakeElement@COnePointDownTool@@MAEPAVCElement@@ABVCElementCommonEnvironment@@@Z
	DD	FLAT:?GetAnalysisData@CTool@@MBEPAVCAnalysisData@@XZ
	DD	FLAT:?MouseMove@COnePointDownTool@@MAE_NPAVCDC@@ABVCPoint@@@Z
	DD	FLAT:?Draw_UpPoint@COnePointDownTool@@MAEXPAVCDC@@@Z
	DD	FLAT:__purecall
CONST	ENDS
;	COMDAT ??_7COneOrTwoPointTool@@6B@
CONST	SEGMENT
??_7COneOrTwoPointTool@@6B@ DD FLAT:??_R4COneOrTwoPointTool@@6B@ ; COneOrTwoPointTool::`vftable'
	DD	FLAT:?Initialize@CDownTool@@UAEXXZ
	DD	FLAT:?OnLButtonDown@COneOrTwoPointTool@@UAEPAVCElement@@PAVCDC@@ABVCPoint@@@Z
	DD	FLAT:?OnLButtonUp@COneOrTwoPointTool@@UAEXPAVCDC@@ABVCPoint@@@Z
	DD	FLAT:?OnMouseMove@COneOrTwoPointTool@@UAE_NPAVCDC@@ABVCPoint@@H@Z
	DD	FLAT:?OnRButtonUp@CTool@@UAEXPAVCDC@@ABVCPoint@@@Z
	DD	FLAT:?OnDraw@COneOrTwoPointTool@@UAEXPAVCDC@@@Z
	DD	FLAT:?GetCoordinateCalculator@CTool@@UBEAAVCCoordinateCalculator@@XZ
	DD	FLAT:?PointInDrawingRegion@CTool@@MBE_NABVCPoint@@@Z
	DD	FLAT:?SavePoints@COneOrTwoPointTool@@MAEXABVCPoints@@@Z
	DD	FLAT:__purecall
	DD	FLAT:?GetTextPosition@CTool@@MAEPAVCTextPosition@@XZ
	DD	FLAT:?GetTextPosition@CTool@@MBEPBVCTextPosition@@XZ
	DD	FLAT:?IsMakeElement@CTool@@MBE_NABVCPoint@@@Z
	DD	FLAT:?MakeElement@CTool@@MAEPAVCElement@@ABVCElementCommonEnvironment@@@Z
	DD	FLAT:?GetAnalysisData@CTool@@MBEPAVCAnalysisData@@XZ
	DD	FLAT:__purecall
	DD	FLAT:__purecall
CONST	ENDS
;	COMDAT ??_7CDownTool@@6B@
CONST	SEGMENT
??_7CDownTool@@6B@ DD FLAT:??_R4CDownTool@@6B@		; CDownTool::`vftable'
	DD	FLAT:?Initialize@CDownTool@@UAEXXZ
	DD	FLAT:?OnLButtonDown@CDownTool@@UAEPAVCElement@@PAVCDC@@ABVCPoint@@@Z
	DD	FLAT:?OnLButtonUp@CTool@@UAEXPAVCDC@@ABVCPoint@@@Z
	DD	FLAT:?OnMouseMove@CDownTool@@UAE_NPAVCDC@@ABVCPoint@@H@Z
	DD	FLAT:?OnRButtonUp@CTool@@UAEXPAVCDC@@ABVCPoint@@@Z
	DD	FLAT:__purecall
	DD	FLAT:?GetCoordinateCalculator@CTool@@UBEAAVCCoordinateCalculator@@XZ
	DD	FLAT:?PointInDrawingRegion@CTool@@MBE_NABVCPoint@@@Z
	DD	FLAT:__purecall
	DD	FLAT:__purecall
	DD	FLAT:?GetTextPosition@CTool@@MAEPAVCTextPosition@@XZ
	DD	FLAT:?GetTextPosition@CTool@@MBEPBVCTextPosition@@XZ
	DD	FLAT:?IsMakeElement@CTool@@MBE_NABVCPoint@@@Z
	DD	FLAT:?MakeElement@CTool@@MAEPAVCElement@@ABVCElementCommonEnvironment@@@Z
	DD	FLAT:?GetAnalysisData@CTool@@MBEPAVCAnalysisData@@XZ
CONST	ENDS
;	COMDAT ??_7CTwoPointMoveTool@@6B@
CONST	SEGMENT
??_7CTwoPointMoveTool@@6B@ DD FLAT:??_R4CTwoPointMoveTool@@6B@ ; CTwoPointMoveTool::`vftable'
	DD	FLAT:?Initialize@CMoveTool@@UAEXXZ
	DD	FLAT:?OnLButtonDown@CMoveTool@@UAEPAVCElement@@PAVCDC@@ABVCPoint@@@Z
	DD	FLAT:?OnLButtonUp@CMoveTool@@UAEXPAVCDC@@ABVCPoint@@@Z
	DD	FLAT:?OnMouseMove@CMoveTool@@UAE_NPAVCDC@@ABVCPoint@@H@Z
	DD	FLAT:?OnRButtonUp@CTool@@UAEXPAVCDC@@ABVCPoint@@@Z
	DD	FLAT:?OnDraw@CMoveTool@@UAEXPAVCDC@@@Z
	DD	FLAT:?GetCoordinateCalculator@CTool@@UBEAAVCCoordinateCalculator@@XZ
	DD	FLAT:?PointInDrawingRegion@CMoveTool@@MBE_NABVCPoint@@@Z
	DD	FLAT:?SavePoints@CMoveTool@@MAEXABVCPoints@@@Z
	DD	FLAT:__purecall
	DD	FLAT:?GetTextPosition@CTool@@MAEPAVCTextPosition@@XZ
	DD	FLAT:?GetTextPosition@CTool@@MBEPBVCTextPosition@@XZ
	DD	FLAT:?IsMakeElement@CTool@@MBE_NABVCPoint@@@Z
	DD	FLAT:?MakeElement@CTwoPointMoveTool@@MAEPAVCElement@@ABVCElementCommonEnvironment@@@Z
	DD	FLAT:?GetAnalysisData@CTool@@MBEPAVCAnalysisData@@XZ
	DD	FLAT:?DrawTool@CTwoPointMoveTool@@MAEXPAVCDC@@@Z
	DD	FLAT:__purecall
	DD	FLAT:__purecall
CONST	ENDS
;	COMDAT ??_7COnePointMoveTool@@6B@
CONST	SEGMENT
??_7COnePointMoveTool@@6B@ DD FLAT:??_R4COnePointMoveTool@@6B@ ; COnePointMoveTool::`vftable'
	DD	FLAT:?Initialize@CMoveTool@@UAEXXZ
	DD	FLAT:?OnLButtonDown@CMoveTool@@UAEPAVCElement@@PAVCDC@@ABVCPoint@@@Z
	DD	FLAT:?OnLButtonUp@CMoveTool@@UAEXPAVCDC@@ABVCPoint@@@Z
	DD	FLAT:?OnMouseMove@CMoveTool@@UAE_NPAVCDC@@ABVCPoint@@H@Z
	DD	FLAT:?OnRButtonUp@CTool@@UAEXPAVCDC@@ABVCPoint@@@Z
	DD	FLAT:?OnDraw@CMoveTool@@UAEXPAVCDC@@@Z
	DD	FLAT:?GetCoordinateCalculator@CTool@@UBEAAVCCoordinateCalculator@@XZ
	DD	FLAT:?PointInDrawingRegion@CMoveTool@@MBE_NABVCPoint@@@Z
	DD	FLAT:?SavePoints@CMoveTool@@MAEXABVCPoints@@@Z
	DD	FLAT:__purecall
	DD	FLAT:?GetTextPosition@CTool@@MAEPAVCTextPosition@@XZ
	DD	FLAT:?GetTextPosition@CTool@@MBEPBVCTextPosition@@XZ
	DD	FLAT:?IsMakeElement@CTool@@MBE_NABVCPoint@@@Z
	DD	FLAT:?MakeElement@COnePointMoveTool@@MAEPAVCElement@@ABVCElementCommonEnvironment@@@Z
	DD	FLAT:?GetAnalysisData@CTool@@MBEPAVCAnalysisData@@XZ
	DD	FLAT:?DrawTool@COnePointMoveTool@@MAEXPAVCDC@@@Z
	DD	FLAT:__purecall
CONST	ENDS
;	COMDAT ??_7CMoveTool@@6B@
CONST	SEGMENT
??_7CMoveTool@@6B@ DD FLAT:??_R4CMoveTool@@6B@		; CMoveTool::`vftable'
	DD	FLAT:?Initialize@CMoveTool@@UAEXXZ
	DD	FLAT:?OnLButtonDown@CMoveTool@@UAEPAVCElement@@PAVCDC@@ABVCPoint@@@Z
	DD	FLAT:?OnLButtonUp@CMoveTool@@UAEXPAVCDC@@ABVCPoint@@@Z
	DD	FLAT:?OnMouseMove@CMoveTool@@UAE_NPAVCDC@@ABVCPoint@@H@Z
	DD	FLAT:?OnRButtonUp@CTool@@UAEXPAVCDC@@ABVCPoint@@@Z
	DD	FLAT:?OnDraw@CMoveTool@@UAEXPAVCDC@@@Z
	DD	FLAT:?GetCoordinateCalculator@CTool@@UBEAAVCCoordinateCalculator@@XZ
	DD	FLAT:?PointInDrawingRegion@CMoveTool@@MBE_NABVCPoint@@@Z
	DD	FLAT:?SavePoints@CMoveTool@@MAEXABVCPoints@@@Z
	DD	FLAT:__purecall
	DD	FLAT:?GetTextPosition@CTool@@MAEPAVCTextPosition@@XZ
	DD	FLAT:?GetTextPosition@CTool@@MBEPBVCTextPosition@@XZ
	DD	FLAT:?IsMakeElement@CTool@@MBE_NABVCPoint@@@Z
	DD	FLAT:?MakeElement@CTool@@MAEPAVCElement@@ABVCElementCommonEnvironment@@@Z
	DD	FLAT:?GetAnalysisData@CTool@@MBEPAVCAnalysisData@@XZ
	DD	FLAT:__purecall
CONST	ENDS
;	COMDAT xdata$x
xdata$x	SEGMENT
__ehfuncinfo$??1CMultiPointDrawingData@@QAE@XZ DD 019930522H
	DD	00H
	DD	00H
	DD	2 DUP(00H)
	DD	2 DUP(00H)
	DD	00H
	DD	05H
xdata$x	ENDS
;	COMDAT xdata$x
xdata$x	SEGMENT
__ehfuncinfo$??1CMultiLanguageResourceSetter@@QAE@XZ DD 019930522H
	DD	00H
	DD	00H
	DD	2 DUP(00H)
	DD	2 DUP(00H)
	DD	00H
	DD	05H
xdata$x	ENDS
;	COMDAT xdata$x
xdata$x	SEGMENT
__ehfuncinfo$?GetMultiPointDrawingData@CMultiPointDownTool@@ABE?AVCMultiPointDrawingData@@XZ DD 019930522H
	DD	09H
	DD	FLAT:__unwindtable$?GetMultiPointDrawingData@CMultiPointDownTool@@ABE?AVCMultiPointDrawingData@@XZ
	DD	2 DUP(00H)
	DD	2 DUP(00H)
	DD	00H
	DD	01H
__unwindtable$?GetMultiPointDrawingData@CMultiPointDownTool@@ABE?AVCMultiPointDrawingData@@XZ DD 0ffffffffH
	DD	FLAT:__unwindfunclet$?GetMultiPointDrawingData@CMultiPointDownTool@@ABE?AVCMultiPointDrawingData@@XZ$0
	DD	00H
	DD	FLAT:__unwindfunclet$?GetMultiPointDrawingData@CMultiPointDownTool@@ABE?AVCMultiPointDrawingData@@XZ$1
	DD	01H
	DD	FLAT:__unwindfunclet$?GetMultiPointDrawingData@CMultiPointDownTool@@ABE?AVCMultiPointDrawingData@@XZ$2
	DD	02H
	DD	FLAT:__unwindfunclet$?GetMultiPointDrawingData@CMultiPointDownTool@@ABE?AVCMultiPointDrawingData@@XZ$3
	DD	03H
	DD	FLAT:__unwindfunclet$?GetMultiPointDrawingData@CMultiPointDownTool@@ABE?AVCMultiPointDrawingData@@XZ$4
	DD	04H
	DD	FLAT:__unwindfunclet$?GetMultiPointDrawingData@CMultiPointDownTool@@ABE?AVCMultiPointDrawingData@@XZ$5
	DD	05H
	DD	FLAT:__unwindfunclet$?GetMultiPointDrawingData@CMultiPointDownTool@@ABE?AVCMultiPointDrawingData@@XZ$6
	DD	03H
	DD	FLAT:___std_terminate
	DD	0ffffffffH
	DD	FLAT:___std_terminate
xdata$x	ENDS
;	COMDAT xdata$x
xdata$x	SEGMENT
__unwindtable$?OnDraw@CMultiPointDownTool@@UAEXPAVCDC@@@Z DD 0ffffffffH
	DD	FLAT:__unwindfunclet$?OnDraw@CMultiPointDownTool@@UAEXPAVCDC@@@Z$0
	DD	0ffffffffH
	DD	FLAT:___std_terminate
__ehfuncinfo$?OnDraw@CMultiPointDownTool@@UAEXPAVCDC@@@Z DD 019930522H
	DD	02H
	DD	FLAT:__unwindtable$?OnDraw@CMultiPointDownTool@@UAEXPAVCDC@@@Z
	DD	2 DUP(00H)
	DD	2 DUP(00H)
	DD	00H
	DD	01H
xdata$x	ENDS
;	COMDAT xdata$x
xdata$x	SEGMENT
__unwindtable$?OnMouseMove@CMultiPointDownTool@@UAE_NPAVCDC@@ABVCPoint@@H@Z DD 0ffffffffH
	DD	FLAT:__unwindfunclet$?OnMouseMove@CMultiPointDownTool@@UAE_NPAVCDC@@ABVCPoint@@H@Z$0
__ehfuncinfo$?OnMouseMove@CMultiPointDownTool@@UAE_NPAVCDC@@ABVCPoint@@H@Z DD 019930522H
	DD	01H
	DD	FLAT:__unwindtable$?OnMouseMove@CMultiPointDownTool@@UAE_NPAVCDC@@ABVCPoint@@H@Z
	DD	2 DUP(00H)
	DD	2 DUP(00H)
	DD	00H
	DD	01H
xdata$x	ENDS
;	COMDAT xdata$x
xdata$x	SEGMENT
__unwindtable$?OnLButtonUp@CMultiPointDownTool@@UAEXPAVCDC@@ABVCPoint@@@Z DD 0ffffffffH
	DD	FLAT:__unwindfunclet$?OnLButtonUp@CMultiPointDownTool@@UAEXPAVCDC@@ABVCPoint@@@Z$0
__ehfuncinfo$?OnLButtonUp@CMultiPointDownTool@@UAEXPAVCDC@@ABVCPoint@@@Z DD 019930522H
	DD	01H
	DD	FLAT:__unwindtable$?OnLButtonUp@CMultiPointDownTool@@UAEXPAVCDC@@ABVCPoint@@@Z
	DD	2 DUP(00H)
	DD	2 DUP(00H)
	DD	00H
	DD	01H
xdata$x	ENDS
;	COMDAT xdata$x
xdata$x	SEGMENT
__unwindtable$?OnLButtonDown@CMultiPointDownTool@@UAEPAVCElement@@PAVCDC@@ABVCPoint@@@Z DD 0ffffffffH
	DD	FLAT:__unwindfunclet$?OnLButtonDown@CMultiPointDownTool@@UAEPAVCElement@@PAVCDC@@ABVCPoint@@@Z$0
__ehfuncinfo$?OnLButtonDown@CMultiPointDownTool@@UAEPAVCElement@@PAVCDC@@ABVCPoint@@@Z DD 019930522H
	DD	01H
	DD	FLAT:__unwindtable$?OnLButtonDown@CMultiPointDownTool@@UAEPAVCElement@@PAVCDC@@ABVCPoint@@@Z
	DD	2 DUP(00H)
	DD	2 DUP(00H)
	DD	00H
	DD	01H
xdata$x	ENDS
;	COMDAT xdata$x
xdata$x	SEGMENT
__unwindtable$??0CMultiPointDownTool@@IAE@PAVCAnalysisData@@W4COORDINATETYPE@CAnalysis@@@Z DD 0ffffffffH
	DD	FLAT:__unwindfunclet$??0CMultiPointDownTool@@IAE@PAVCAnalysisData@@W4COORDINATETYPE@CAnalysis@@@Z$2
	DD	0ffffffffH
	DD	FLAT:__unwindfunclet$??0CMultiPointDownTool@@IAE@PAVCAnalysisData@@W4COORDINATETYPE@CAnalysis@@@Z$0
	DD	01H
	DD	FLAT:__unwindfunclet$??0CMultiPointDownTool@@IAE@PAVCAnalysisData@@W4COORDINATETYPE@CAnalysis@@@Z$1
__ehfuncinfo$??0CMultiPointDownTool@@IAE@PAVCAnalysisData@@W4COORDINATETYPE@CAnalysis@@@Z DD 019930522H
	DD	03H
	DD	FLAT:__unwindtable$??0CMultiPointDownTool@@IAE@PAVCAnalysisData@@W4COORDINATETYPE@CAnalysis@@@Z
	DD	2 DUP(00H)
	DD	2 DUP(00H)
	DD	00H
	DD	01H
xdata$x	ENDS
;	COMDAT xdata$x
xdata$x	SEGMENT
__ehfuncinfo$?GetThreePointDrawingData@CThreePointDownTool@@ABE?AVCThreePointDrawingData@@XZ DD 019930522H
	DD	09H
	DD	FLAT:__unwindtable$?GetThreePointDrawingData@CThreePointDownTool@@ABE?AVCThreePointDrawingData@@XZ
	DD	2 DUP(00H)
	DD	2 DUP(00H)
	DD	00H
	DD	01H
__unwindtable$?GetThreePointDrawingData@CThreePointDownTool@@ABE?AVCThreePointDrawingData@@XZ DD 0ffffffffH
	DD	FLAT:__unwindfunclet$?GetThreePointDrawingData@CThreePointDownTool@@ABE?AVCThreePointDrawingData@@XZ$0
	DD	00H
	DD	FLAT:__unwindfunclet$?GetThreePointDrawingData@CThreePointDownTool@@ABE?AVCThreePointDrawingData@@XZ$1
	DD	01H
	DD	FLAT:__unwindfunclet$?GetThreePointDrawingData@CThreePointDownTool@@ABE?AVCThreePointDrawingData@@XZ$2
	DD	02H
	DD	FLAT:__unwindfunclet$?GetThreePointDrawingData@CThreePointDownTool@@ABE?AVCThreePointDrawingData@@XZ$3
	DD	03H
	DD	FLAT:__unwindfunclet$?GetThreePointDrawingData@CThreePointDownTool@@ABE?AVCThreePointDrawingData@@XZ$4
	DD	04H
	DD	FLAT:__unwindfunclet$?GetThreePointDrawingData@CThreePointDownTool@@ABE?AVCThreePointDrawingData@@XZ$5
	DD	05H
	DD	FLAT:__unwindfunclet$?GetThreePointDrawingData@CThreePointDownTool@@ABE?AVCThreePointDrawingData@@XZ$6
	DD	03H
	DD	FLAT:___std_terminate
	DD	0ffffffffH
	DD	FLAT:___std_terminate
xdata$x	ENDS
;	COMDAT xdata$x
xdata$x	SEGMENT
__unwindtable$?MakeElement@CThreePointDownTool@@MAEPAVCElement@@ABVCElementCommonEnvironment@@@Z DD 0ffffffffH
	DD	FLAT:__unwindfunclet$?MakeElement@CThreePointDownTool@@MAEPAVCElement@@ABVCElementCommonEnvironment@@@Z$0
	DD	00H
	DD	FLAT:__unwindfunclet$?MakeElement@CThreePointDownTool@@MAEPAVCElement@@ABVCElementCommonEnvironment@@@Z$1
	DD	01H
	DD	FLAT:__unwindfunclet$?MakeElement@CThreePointDownTool@@MAEPAVCElement@@ABVCElementCommonEnvironment@@@Z$2
__ehfuncinfo$?MakeElement@CThreePointDownTool@@MAEPAVCElement@@ABVCElementCommonEnvironment@@@Z DD 019930522H
	DD	03H
	DD	FLAT:__unwindtable$?MakeElement@CThreePointDownTool@@MAEPAVCElement@@ABVCElementCommonEnvironment@@@Z
	DD	2 DUP(00H)
	DD	2 DUP(00H)
	DD	00H
	DD	01H
xdata$x	ENDS
;	COMDAT xdata$x
xdata$x	SEGMENT
__unwindtable$?OnDraw@CThreePointDownTool@@UAEXPAVCDC@@@Z DD 0ffffffffH
	DD	FLAT:__unwindfunclet$?OnDraw@CThreePointDownTool@@UAEXPAVCDC@@@Z$0
__ehfuncinfo$?OnDraw@CThreePointDownTool@@UAEXPAVCDC@@@Z DD 019930522H
	DD	01H
	DD	FLAT:__unwindtable$?OnDraw@CThreePointDownTool@@UAEXPAVCDC@@@Z
	DD	2 DUP(00H)
	DD	2 DUP(00H)
	DD	00H
	DD	01H
xdata$x	ENDS
;	COMDAT xdata$x
xdata$x	SEGMENT
__ehfuncinfo$?OnLButtonUp@CThreePointDownTool@@UAEXPAVCDC@@ABVCPoint@@@Z DD 019930522H
	DD	07H
	DD	FLAT:__unwindtable$?OnLButtonUp@CThreePointDownTool@@UAEXPAVCDC@@ABVCPoint@@@Z
	DD	2 DUP(00H)
	DD	2 DUP(00H)
	DD	00H
	DD	01H
__unwindtable$?OnLButtonUp@CThreePointDownTool@@UAEXPAVCDC@@ABVCPoint@@@Z DD 0ffffffffH
	DD	FLAT:__unwindfunclet$?OnLButtonUp@CThreePointDownTool@@UAEXPAVCDC@@ABVCPoint@@@Z$0
	DD	00H
	DD	FLAT:__unwindfunclet$?OnLButtonUp@CThreePointDownTool@@UAEXPAVCDC@@ABVCPoint@@@Z$1
	DD	01H
	DD	FLAT:__unwindfunclet$?OnLButtonUp@CThreePointDownTool@@UAEXPAVCDC@@ABVCPoint@@@Z$2
	DD	02H
	DD	FLAT:__unwindfunclet$?OnLButtonUp@CThreePointDownTool@@UAEXPAVCDC@@ABVCPoint@@@Z$3
	DD	02H
	DD	FLAT:__unwindfunclet$?OnLButtonUp@CThreePointDownTool@@UAEXPAVCDC@@ABVCPoint@@@Z$4
	DD	02H
	DD	FLAT:__unwindfunclet$?OnLButtonUp@CThreePointDownTool@@UAEXPAVCDC@@ABVCPoint@@@Z$5
	DD	00H
	DD	FLAT:___std_terminate
xdata$x	ENDS
;	COMDAT xdata$x
xdata$x	SEGMENT
__ehfuncinfo$??0CThreePointDownTool@@IAE@PAVCAnalysisData@@W4COORDINATETYPE@CAnalysis@@@Z DD 019930522H
	DD	05H
	DD	FLAT:__unwindtable$??0CThreePointDownTool@@IAE@PAVCAnalysisData@@W4COORDINATETYPE@CAnalysis@@@Z
	DD	2 DUP(00H)
	DD	2 DUP(00H)
	DD	00H
	DD	01H
__unwindtable$??0CThreePointDownTool@@IAE@PAVCAnalysisData@@W4COORDINATETYPE@CAnalysis@@@Z DD 0ffffffffH
	DD	FLAT:__unwindfunclet$??0CThreePointDownTool@@IAE@PAVCAnalysisData@@W4COORDINATETYPE@CAnalysis@@@Z$4
	DD	0ffffffffH
	DD	FLAT:__unwindfunclet$??0CThreePointDownTool@@IAE@PAVCAnalysisData@@W4COORDINATETYPE@CAnalysis@@@Z$0
	DD	01H
	DD	FLAT:__unwindfunclet$??0CThreePointDownTool@@IAE@PAVCAnalysisData@@W4COORDINATETYPE@CAnalysis@@@Z$1
	DD	02H
	DD	FLAT:__unwindfunclet$??0CThreePointDownTool@@IAE@PAVCAnalysisData@@W4COORDINATETYPE@CAnalysis@@@Z$2
	DD	03H
	DD	FLAT:__unwindfunclet$??0CThreePointDownTool@@IAE@PAVCAnalysisData@@W4COORDINATETYPE@CAnalysis@@@Z$3
xdata$x	ENDS
;	COMDAT xdata$x
xdata$x	SEGMENT
__ehfuncinfo$?GetTwoPointDrawingData@CTwoPointDownTool@@ABE?AVCTwoPointDrawingData@@XZ DD 019930522H
	DD	0fH
	DD	FLAT:__unwindtable$?GetTwoPointDrawingData@CTwoPointDownTool@@ABE?AVCTwoPointDrawingData@@XZ
	DD	2 DUP(00H)
	DD	2 DUP(00H)
	DD	00H
	DD	01H
__unwindtable$?GetTwoPointDrawingData@CTwoPointDownTool@@ABE?AVCTwoPointDrawingData@@XZ DD 0ffffffffH
	DD	FLAT:__unwindfunclet$?GetTwoPointDrawingData@CTwoPointDownTool@@ABE?AVCTwoPointDrawingData@@XZ$0
	DD	00H
	DD	FLAT:__unwindfunclet$?GetTwoPointDrawingData@CTwoPointDownTool@@ABE?AVCTwoPointDrawingData@@XZ$1
	DD	01H
	DD	FLAT:__unwindfunclet$?GetTwoPointDrawingData@CTwoPointDownTool@@ABE?AVCTwoPointDrawingData@@XZ$2
	DD	02H
	DD	FLAT:__unwindfunclet$?GetTwoPointDrawingData@CTwoPointDownTool@@ABE?AVCTwoPointDrawingData@@XZ$3
	DD	03H
	DD	FLAT:__unwindfunclet$?GetTwoPointDrawingData@CTwoPointDownTool@@ABE?AVCTwoPointDrawingData@@XZ$4
	DD	02H
	DD	FLAT:__unwindfunclet$?GetTwoPointDrawingData@CTwoPointDownTool@@ABE?AVCTwoPointDrawingData@@XZ$4
	DD	05H
	DD	FLAT:__unwindfunclet$?GetTwoPointDrawingData@CTwoPointDownTool@@ABE?AVCTwoPointDrawingData@@XZ$5
	DD	06H
	DD	FLAT:__unwindfunclet$?GetTwoPointDrawingData@CTwoPointDownTool@@ABE?AVCTwoPointDrawingData@@XZ$6
	DD	07H
	DD	FLAT:__unwindfunclet$?GetTwoPointDrawingData@CTwoPointDownTool@@ABE?AVCTwoPointDrawingData@@XZ$7
	DD	08H
	DD	FLAT:__unwindfunclet$?GetTwoPointDrawingData@CTwoPointDownTool@@ABE?AVCTwoPointDrawingData@@XZ$8
	DD	09H
	DD	FLAT:__unwindfunclet$?GetTwoPointDrawingData@CTwoPointDownTool@@ABE?AVCTwoPointDrawingData@@XZ$9
	DD	0aH
	DD	FLAT:__unwindfunclet$?GetTwoPointDrawingData@CTwoPointDownTool@@ABE?AVCTwoPointDrawingData@@XZ$10
	DD	0bH
	DD	FLAT:__unwindfunclet$?GetTwoPointDrawingData@CTwoPointDownTool@@ABE?AVCTwoPointDrawingData@@XZ$11
	DD	05H
	DD	FLAT:___std_terminate
	DD	0ffffffffH
	DD	FLAT:___std_terminate
xdata$x	ENDS
;	COMDAT xdata$x
xdata$x	SEGMENT
__ehfuncinfo$?Draw_UpPoint@CTwoPointDownTool@@MAEXPAVCDC@@@Z DD 019930522H
	DD	06H
	DD	FLAT:__unwindtable$?Draw_UpPoint@CTwoPointDownTool@@MAEXPAVCDC@@@Z
	DD	2 DUP(00H)
	DD	2 DUP(00H)
	DD	00H
	DD	01H
__unwindtable$?Draw_UpPoint@CTwoPointDownTool@@MAEXPAVCDC@@@Z DD 0ffffffffH
	DD	FLAT:__unwindfunclet$?Draw_UpPoint@CTwoPointDownTool@@MAEXPAVCDC@@@Z$0
	DD	00H
	DD	FLAT:__unwindfunclet$?Draw_UpPoint@CTwoPointDownTool@@MAEXPAVCDC@@@Z$1
	DD	01H
	DD	FLAT:__unwindfunclet$?Draw_UpPoint@CTwoPointDownTool@@MAEXPAVCDC@@@Z$2
	DD	02H
	DD	FLAT:__unwindfunclet$?Draw_UpPoint@CTwoPointDownTool@@MAEXPAVCDC@@@Z$3
	DD	03H
	DD	FLAT:__unwindfunclet$?Draw_UpPoint@CTwoPointDownTool@@MAEXPAVCDC@@@Z$4
	DD	04H
	DD	FLAT:__unwindfunclet$?Draw_UpPoint@CTwoPointDownTool@@MAEXPAVCDC@@@Z$5
xdata$x	ENDS
;	COMDAT xdata$x
xdata$x	SEGMENT
__unwindtable$?MouseMove@CTwoPointDownTool@@MAE_NPAVCDC@@ABVCPoint@@@Z DD 0ffffffffH
	DD	FLAT:__unwindfunclet$?MouseMove@CTwoPointDownTool@@MAE_NPAVCDC@@ABVCPoint@@@Z$0
	DD	0ffffffffH
	DD	FLAT:__unwindfunclet$?MouseMove@CTwoPointDownTool@@MAE_NPAVCDC@@ABVCPoint@@@Z$1
__ehfuncinfo$?MouseMove@CTwoPointDownTool@@MAE_NPAVCDC@@ABVCPoint@@@Z DD 019930522H
	DD	02H
	DD	FLAT:__unwindtable$?MouseMove@CTwoPointDownTool@@MAE_NPAVCDC@@ABVCPoint@@@Z
	DD	2 DUP(00H)
	DD	2 DUP(00H)
	DD	00H
	DD	01H
xdata$x	ENDS
;	COMDAT xdata$x
xdata$x	SEGMENT
__ehfuncinfo$?MakeElement@CTwoPointDownTool@@MAEPAVCElement@@ABVCElementCommonEnvironment@@@Z DD 019930522H
	DD	0aH
	DD	FLAT:__unwindtable$?MakeElement@CTwoPointDownTool@@MAEPAVCElement@@ABVCElementCommonEnvironment@@@Z
	DD	2 DUP(00H)
	DD	2 DUP(00H)
	DD	00H
	DD	01H
__unwindtable$?MakeElement@CTwoPointDownTool@@MAEPAVCElement@@ABVCElementCommonEnvironment@@@Z DD 0ffffffffH
	DD	FLAT:__unwindfunclet$?MakeElement@CTwoPointDownTool@@MAEPAVCElement@@ABVCElementCommonEnvironment@@@Z$0
	DD	00H
	DD	FLAT:__unwindfunclet$?MakeElement@CTwoPointDownTool@@MAEPAVCElement@@ABVCElementCommonEnvironment@@@Z$1
	DD	01H
	DD	FLAT:__unwindfunclet$?MakeElement@CTwoPointDownTool@@MAEPAVCElement@@ABVCElementCommonEnvironment@@@Z$2
	DD	00H
	DD	FLAT:__unwindfunclet$?MakeElement@CTwoPointDownTool@@MAEPAVCElement@@ABVCElementCommonEnvironment@@@Z$2
	DD	03H
	DD	FLAT:__unwindfunclet$?MakeElement@CTwoPointDownTool@@MAEPAVCElement@@ABVCElementCommonEnvironment@@@Z$3
	DD	04H
	DD	FLAT:__unwindfunclet$?MakeElement@CTwoPointDownTool@@MAEPAVCElement@@ABVCElementCommonEnvironment@@@Z$4
	DD	05H
	DD	FLAT:__unwindfunclet$?MakeElement@CTwoPointDownTool@@MAEPAVCElement@@ABVCElementCommonEnvironment@@@Z$5
	DD	06H
	DD	FLAT:__unwindfunclet$?MakeElement@CTwoPointDownTool@@MAEPAVCElement@@ABVCElementCommonEnvironment@@@Z$6
	DD	05H
	DD	FLAT:___std_terminate
	DD	04H
	DD	FLAT:___std_terminate
xdata$x	ENDS
;	COMDAT xdata$x
xdata$x	SEGMENT
__unwindtable$?IsMakeElement@CTwoPointDownTool@@MBE_NABVCPoint@@@Z DD 0ffffffffH
	DD	FLAT:__unwindfunclet$?IsMakeElement@CTwoPointDownTool@@MBE_NABVCPoint@@@Z$0
	DD	00H
	DD	FLAT:__unwindfunclet$?IsMakeElement@CTwoPointDownTool@@MBE_NABVCPoint@@@Z$1
	DD	01H
	DD	FLAT:__unwindfunclet$?IsMakeElement@CTwoPointDownTool@@MBE_NABVCPoint@@@Z$2
__ehfuncinfo$?IsMakeElement@CTwoPointDownTool@@MBE_NABVCPoint@@@Z DD 019930522H
	DD	03H
	DD	FLAT:__unwindtable$?IsMakeElement@CTwoPointDownTool@@MBE_NABVCPoint@@@Z
	DD	2 DUP(00H)
	DD	2 DUP(00H)
	DD	00H
	DD	01H
xdata$x	ENDS
;	COMDAT xdata$x
xdata$x	SEGMENT
__unwindtable$?OnLButtonDown@CTwoPointDownTool@@UAEPAVCElement@@PAVCDC@@ABVCPoint@@@Z DD 0ffffffffH
	DD	FLAT:__unwindfunclet$?OnLButtonDown@CTwoPointDownTool@@UAEPAVCElement@@PAVCDC@@ABVCPoint@@@Z$0
__ehfuncinfo$?OnLButtonDown@CTwoPointDownTool@@UAEPAVCElement@@PAVCDC@@ABVCPoint@@@Z DD 019930522H
	DD	01H
	DD	FLAT:__unwindtable$?OnLButtonDown@CTwoPointDownTool@@UAEPAVCElement@@PAVCDC@@ABVCPoint@@@Z
	DD	2 DUP(00H)
	DD	2 DUP(00H)
	DD	00H
	DD	01H
xdata$x	ENDS
;	COMDAT xdata$x
xdata$x	SEGMENT
__unwindtable$??0CTwoPointDownTool@@IAE@PAVCAnalysisData@@W4COORDINATETYPE@CAnalysis@@@Z DD 0ffffffffH
	DD	FLAT:__unwindfunclet$??0CTwoPointDownTool@@IAE@PAVCAnalysisData@@W4COORDINATETYPE@CAnalysis@@@Z$0
__ehfuncinfo$??0CTwoPointDownTool@@IAE@PAVCAnalysisData@@W4COORDINATETYPE@CAnalysis@@@Z DD 019930522H
	DD	01H
	DD	FLAT:__unwindtable$??0CTwoPointDownTool@@IAE@PAVCAnalysisData@@W4COORDINATETYPE@CAnalysis@@@Z
	DD	2 DUP(00H)
	DD	2 DUP(00H)
	DD	00H
	DD	01H
xdata$x	ENDS
;	COMDAT xdata$x
xdata$x	SEGMENT
__ehfuncinfo$?GetOnePointDrawingData@COnePointDownTool@@ABE?AVCOnePointDrawingData@@XZ DD 019930522H
	DD	0dH
	DD	FLAT:__unwindtable$?GetOnePointDrawingData@COnePointDownTool@@ABE?AVCOnePointDrawingData@@XZ
	DD	2 DUP(00H)
	DD	2 DUP(00H)
	DD	00H
	DD	01H
__unwindtable$?GetOnePointDrawingData@COnePointDownTool@@ABE?AVCOnePointDrawingData@@XZ DD 0ffffffffH
	DD	FLAT:__unwindfunclet$?GetOnePointDrawingData@COnePointDownTool@@ABE?AVCOnePointDrawingData@@XZ$0
	DD	00H
	DD	FLAT:__unwindfunclet$?GetOnePointDrawingData@COnePointDownTool@@ABE?AVCOnePointDrawingData@@XZ$1
	DD	01H
	DD	FLAT:__unwindfunclet$?GetOnePointDrawingData@COnePointDownTool@@ABE?AVCOnePointDrawingData@@XZ$2
	DD	02H
	DD	FLAT:__unwindfunclet$?GetOnePointDrawingData@COnePointDownTool@@ABE?AVCOnePointDrawingData@@XZ$3
	DD	03H
	DD	FLAT:__unwindfunclet$?GetOnePointDrawingData@COnePointDownTool@@ABE?AVCOnePointDrawingData@@XZ$4
	DD	02H
	DD	FLAT:__unwindfunclet$?GetOnePointDrawingData@COnePointDownTool@@ABE?AVCOnePointDrawingData@@XZ$4
	DD	05H
	DD	FLAT:__unwindfunclet$?GetOnePointDrawingData@COnePointDownTool@@ABE?AVCOnePointDrawingData@@XZ$5
	DD	06H
	DD	FLAT:__unwindfunclet$?GetOnePointDrawingData@COnePointDownTool@@ABE?AVCOnePointDrawingData@@XZ$6
	DD	07H
	DD	FLAT:__unwindfunclet$?GetOnePointDrawingData@COnePointDownTool@@ABE?AVCOnePointDrawingData@@XZ$7
	DD	08H
	DD	FLAT:__unwindfunclet$?GetOnePointDrawingData@COnePointDownTool@@ABE?AVCOnePointDrawingData@@XZ$8
	DD	09H
	DD	FLAT:__unwindfunclet$?GetOnePointDrawingData@COnePointDownTool@@ABE?AVCOnePointDrawingData@@XZ$9
	DD	05H
	DD	FLAT:___std_terminate
	DD	0ffffffffH
	DD	FLAT:___std_terminate
xdata$x	ENDS
;	COMDAT xdata$x
xdata$x	SEGMENT
__unwindtable$?OnMouseMove_InNotDrawingRegion@COnePointDownTool@@AAE_NABVCPoint@@@Z DD 0ffffffffH
	DD	FLAT:__unwindfunclet$?OnMouseMove_InNotDrawingRegion@COnePointDownTool@@AAE_NABVCPoint@@@Z$0
__ehfuncinfo$?OnMouseMove_InNotDrawingRegion@COnePointDownTool@@AAE_NABVCPoint@@@Z DD 019930522H
	DD	01H
	DD	FLAT:__unwindtable$?OnMouseMove_InNotDrawingRegion@COnePointDownTool@@AAE_NABVCPoint@@@Z
	DD	2 DUP(00H)
	DD	2 DUP(00H)
	DD	00H
	DD	01H
xdata$x	ENDS
;	COMDAT xdata$x
xdata$x	SEGMENT
__unwindtable$?Draw_UpPoint@COnePointDownTool@@MAEXPAVCDC@@@Z DD 0ffffffffH
	DD	FLAT:__unwindfunclet$?Draw_UpPoint@COnePointDownTool@@MAEXPAVCDC@@@Z$0
__ehfuncinfo$?Draw_UpPoint@COnePointDownTool@@MAEXPAVCDC@@@Z DD 019930522H
	DD	01H
	DD	FLAT:__unwindtable$?Draw_UpPoint@COnePointDownTool@@MAEXPAVCDC@@@Z
	DD	2 DUP(00H)
	DD	2 DUP(00H)
	DD	00H
	DD	01H
xdata$x	ENDS
;	COMDAT xdata$x
xdata$x	SEGMENT
__unwindtable$?MouseMove@COnePointDownTool@@MAE_NPAVCDC@@ABVCPoint@@@Z DD 0ffffffffH
	DD	FLAT:__unwindfunclet$?MouseMove@COnePointDownTool@@MAE_NPAVCDC@@ABVCPoint@@@Z$0
	DD	00H
	DD	FLAT:__unwindfunclet$?MouseMove@COnePointDownTool@@MAE_NPAVCDC@@ABVCPoint@@@Z$1
__ehfuncinfo$?MouseMove@COnePointDownTool@@MAE_NPAVCDC@@ABVCPoint@@@Z DD 019930522H
	DD	02H
	DD	FLAT:__unwindtable$?MouseMove@COnePointDownTool@@MAE_NPAVCDC@@ABVCPoint@@@Z
	DD	2 DUP(00H)
	DD	2 DUP(00H)
	DD	00H
	DD	01H
xdata$x	ENDS
;	COMDAT xdata$x
xdata$x	SEGMENT
__unwindtable$?MakeElement@COnePointDownTool@@MAEPAVCElement@@ABVCElementCommonEnvironment@@@Z DD 0ffffffffH
	DD	FLAT:__unwindfunclet$?MakeElement@COnePointDownTool@@MAEPAVCElement@@ABVCElementCommonEnvironment@@@Z$0
	DD	00H
	DD	FLAT:__unwindfunclet$?MakeElement@COnePointDownTool@@MAEPAVCElement@@ABVCElementCommonEnvironment@@@Z$1
__ehfuncinfo$?MakeElement@COnePointDownTool@@MAEPAVCElement@@ABVCElementCommonEnvironment@@@Z DD 019930522H
	DD	02H
	DD	FLAT:__unwindtable$?MakeElement@COnePointDownTool@@MAEPAVCElement@@ABVCElementCommonEnvironment@@@Z
	DD	2 DUP(00H)
	DD	2 DUP(00H)
	DD	00H
	DD	01H
xdata$x	ENDS
;	COMDAT xdata$x
xdata$x	SEGMENT
__unwindtable$?OnMouseMove@COnePointDownTool@@UAE_NPAVCDC@@ABVCPoint@@H@Z DD 0ffffffffH
	DD	FLAT:__unwindfunclet$?OnMouseMove@COnePointDownTool@@UAE_NPAVCDC@@ABVCPoint@@H@Z$1
	DD	00H
	DD	FLAT:__unwindfunclet$?OnMouseMove@COnePointDownTool@@UAE_NPAVCDC@@ABVCPoint@@H@Z$2
	DD	0ffffffffH
	DD	FLAT:__unwindfunclet$?OnMouseMove@COnePointDownTool@@UAE_NPAVCDC@@ABVCPoint@@H@Z$0
__ehfuncinfo$?OnMouseMove@COnePointDownTool@@UAE_NPAVCDC@@ABVCPoint@@H@Z DD 019930522H
	DD	03H
	DD	FLAT:__unwindtable$?OnMouseMove@COnePointDownTool@@UAE_NPAVCDC@@ABVCPoint@@H@Z
	DD	2 DUP(00H)
	DD	2 DUP(00H)
	DD	00H
	DD	01H
xdata$x	ENDS
;	COMDAT xdata$x
xdata$x	SEGMENT
__unwindtable$??0COnePointDownTool@@IAE@PAVCAnalysisData@@W4COORDINATETYPE@CAnalysis@@@Z DD 0ffffffffH
	DD	FLAT:__unwindfunclet$??0COnePointDownTool@@IAE@PAVCAnalysisData@@W4COORDINATETYPE@CAnalysis@@@Z$0
__ehfuncinfo$??0COnePointDownTool@@IAE@PAVCAnalysisData@@W4COORDINATETYPE@CAnalysis@@@Z DD 019930522H
	DD	01H
	DD	FLAT:__unwindtable$??0COnePointDownTool@@IAE@PAVCAnalysisData@@W4COORDINATETYPE@CAnalysis@@@Z
	DD	2 DUP(00H)
	DD	2 DUP(00H)
	DD	00H
	DD	01H
xdata$x	ENDS
;	COMDAT xdata$x
xdata$x	SEGMENT
__unwindtable$?OnLButtonDown@COneOrTwoPointTool@@UAEPAVCElement@@PAVCDC@@ABVCPoint@@@Z DD 0ffffffffH
	DD	FLAT:__unwindfunclet$?OnLButtonDown@COneOrTwoPointTool@@UAEPAVCElement@@PAVCDC@@ABVCPoint@@@Z$0
__ehfuncinfo$?OnLButtonDown@COneOrTwoPointTool@@UAEPAVCElement@@PAVCDC@@ABVCPoint@@@Z DD 019930522H
	DD	01H
	DD	FLAT:__unwindtable$?OnLButtonDown@COneOrTwoPointTool@@UAEPAVCElement@@PAVCDC@@ABVCPoint@@@Z
	DD	2 DUP(00H)
	DD	2 DUP(00H)
	DD	00H
	DD	01H
xdata$x	ENDS
;	COMDAT xdata$x
xdata$x	SEGMENT
__unwindtable$??0COneOrTwoPointTool@@IAE@PAVCAnalysisData@@W4COORDINATETYPE@CAnalysis@@@Z DD 0ffffffffH
	DD	FLAT:__unwindfunclet$??0COneOrTwoPointTool@@IAE@PAVCAnalysisData@@W4COORDINATETYPE@CAnalysis@@@Z$3
	DD	0ffffffffH
	DD	FLAT:__unwindfunclet$??0COneOrTwoPointTool@@IAE@PAVCAnalysisData@@W4COORDINATETYPE@CAnalysis@@@Z$0
	DD	01H
	DD	FLAT:__unwindfunclet$??0COneOrTwoPointTool@@IAE@PAVCAnalysisData@@W4COORDINATETYPE@CAnalysis@@@Z$1
	DD	02H
	DD	FLAT:__unwindfunclet$??0COneOrTwoPointTool@@IAE@PAVCAnalysisData@@W4COORDINATETYPE@CAnalysis@@@Z$2
__ehfuncinfo$??0COneOrTwoPointTool@@IAE@PAVCAnalysisData@@W4COORDINATETYPE@CAnalysis@@@Z DD 019930522H
	DD	04H
	DD	FLAT:__unwindtable$??0COneOrTwoPointTool@@IAE@PAVCAnalysisData@@W4COORDINATETYPE@CAnalysis@@@Z
	DD	2 DUP(00H)
	DD	2 DUP(00H)
	DD	00H
	DD	01H
xdata$x	ENDS
;	COMDAT xdata$x
xdata$x	SEGMENT
__unwindtable$??0CDownTool@@IAE@PAVCAnalysisData@@W4COORDINATETYPE@CAnalysis@@@Z DD 0ffffffffH
	DD	FLAT:__unwindfunclet$??0CDownTool@@IAE@PAVCAnalysisData@@W4COORDINATETYPE@CAnalysis@@@Z$0
__ehfuncinfo$??0CDownTool@@IAE@PAVCAnalysisData@@W4COORDINATETYPE@CAnalysis@@@Z DD 019930522H
	DD	01H
	DD	FLAT:__unwindtable$??0CDownTool@@IAE@PAVCAnalysisData@@W4COORDINATETYPE@CAnalysis@@@Z
	DD	2 DUP(00H)
	DD	2 DUP(00H)
	DD	00H
	DD	01H
xdata$x	ENDS
;	COMDAT xdata$x
xdata$x	SEGMENT
__ehfuncinfo$?GetTwoPointDrawingData@CTwoPointMoveTool@@ABE?AVCTwoPointDrawingData@@XZ DD 019930522H
	DD	010H
	DD	FLAT:__unwindtable$?GetTwoPointDrawingData@CTwoPointMoveTool@@ABE?AVCTwoPointDrawingData@@XZ
	DD	2 DUP(00H)
	DD	2 DUP(00H)
	DD	00H
	DD	01H
__unwindtable$?GetTwoPointDrawingData@CTwoPointMoveTool@@ABE?AVCTwoPointDrawingData@@XZ DD 0ffffffffH
	DD	FLAT:__unwindfunclet$?GetTwoPointDrawingData@CTwoPointMoveTool@@ABE?AVCTwoPointDrawingData@@XZ$0
	DD	00H
	DD	FLAT:__unwindfunclet$?GetTwoPointDrawingData@CTwoPointMoveTool@@ABE?AVCTwoPointDrawingData@@XZ$1
	DD	01H
	DD	FLAT:__unwindfunclet$?GetTwoPointDrawingData@CTwoPointMoveTool@@ABE?AVCTwoPointDrawingData@@XZ$2
	DD	02H
	DD	FLAT:__unwindfunclet$?GetTwoPointDrawingData@CTwoPointMoveTool@@ABE?AVCTwoPointDrawingData@@XZ$3
	DD	03H
	DD	FLAT:__unwindfunclet$?GetTwoPointDrawingData@CTwoPointMoveTool@@ABE?AVCTwoPointDrawingData@@XZ$4
	DD	02H
	DD	FLAT:__unwindfunclet$?GetTwoPointDrawingData@CTwoPointMoveTool@@ABE?AVCTwoPointDrawingData@@XZ$4
	DD	05H
	DD	FLAT:__unwindfunclet$?GetTwoPointDrawingData@CTwoPointMoveTool@@ABE?AVCTwoPointDrawingData@@XZ$5
	DD	06H
	DD	FLAT:__unwindfunclet$?GetTwoPointDrawingData@CTwoPointMoveTool@@ABE?AVCTwoPointDrawingData@@XZ$6
	DD	07H
	DD	FLAT:__unwindfunclet$?GetTwoPointDrawingData@CTwoPointMoveTool@@ABE?AVCTwoPointDrawingData@@XZ$7
	DD	08H
	DD	FLAT:__unwindfunclet$?GetTwoPointDrawingData@CTwoPointMoveTool@@ABE?AVCTwoPointDrawingData@@XZ$8
	DD	09H
	DD	FLAT:__unwindfunclet$?GetTwoPointDrawingData@CTwoPointMoveTool@@ABE?AVCTwoPointDrawingData@@XZ$9
	DD	0aH
	DD	FLAT:__unwindfunclet$?GetTwoPointDrawingData@CTwoPointMoveTool@@ABE?AVCTwoPointDrawingData@@XZ$10
	DD	0bH
	DD	FLAT:__unwindfunclet$?GetTwoPointDrawingData@CTwoPointMoveTool@@ABE?AVCTwoPointDrawingData@@XZ$11
	DD	0cH
	DD	FLAT:__unwindfunclet$?GetTwoPointDrawingData@CTwoPointMoveTool@@ABE?AVCTwoPointDrawingData@@XZ$12
	DD	05H
	DD	FLAT:___std_terminate
	DD	0ffffffffH
	DD	FLAT:___std_terminate
xdata$x	ENDS
;	COMDAT xdata$x
xdata$x	SEGMENT
__unwindtable$?GetSavingPoint@CTwoPointMoveTool@@IBE?AVCCoordinate@@ABVCPoint@@0@Z DD 0ffffffffH
	DD	FLAT:__unwindfunclet$?GetSavingPoint@CTwoPointMoveTool@@IBE?AVCCoordinate@@ABVCPoint@@0@Z$1
__ehfuncinfo$?GetSavingPoint@CTwoPointMoveTool@@IBE?AVCCoordinate@@ABVCPoint@@0@Z DD 019930522H
	DD	01H
	DD	FLAT:__unwindtable$?GetSavingPoint@CTwoPointMoveTool@@IBE?AVCCoordinate@@ABVCPoint@@0@Z
	DD	2 DUP(00H)
	DD	2 DUP(00H)
	DD	00H
	DD	01H
xdata$x	ENDS
;	COMDAT xdata$x
xdata$x	SEGMENT
__unwindtable$?GetPoints@CTwoPointMoveTool@@IBE?AVCPoints@@ABVCPoint@@HH@Z DD 0ffffffffH
	DD	FLAT:__unwindfunclet$?GetPoints@CTwoPointMoveTool@@IBE?AVCPoints@@ABVCPoint@@HH@Z$3
	DD	0ffffffffH
	DD	FLAT:__unwindfunclet$?GetPoints@CTwoPointMoveTool@@IBE?AVCPoints@@ABVCPoint@@HH@Z$0
__ehfuncinfo$?GetPoints@CTwoPointMoveTool@@IBE?AVCPoints@@ABVCPoint@@HH@Z DD 019930522H
	DD	02H
	DD	FLAT:__unwindtable$?GetPoints@CTwoPointMoveTool@@IBE?AVCPoints@@ABVCPoint@@HH@Z
	DD	2 DUP(00H)
	DD	2 DUP(00H)
	DD	00H
	DD	01H
xdata$x	ENDS
;	COMDAT xdata$x
xdata$x	SEGMENT
__unwindtable$?MakeElement@CTwoPointMoveTool@@MAEPAVCElement@@ABVCElementCommonEnvironment@@@Z DD 0ffffffffH
	DD	FLAT:__unwindfunclet$?MakeElement@CTwoPointMoveTool@@MAEPAVCElement@@ABVCElementCommonEnvironment@@@Z$0
	DD	00H
	DD	FLAT:__unwindfunclet$?MakeElement@CTwoPointMoveTool@@MAEPAVCElement@@ABVCElementCommonEnvironment@@@Z$1
	DD	01H
	DD	FLAT:__unwindfunclet$?MakeElement@CTwoPointMoveTool@@MAEPAVCElement@@ABVCElementCommonEnvironment@@@Z$2
	DD	02H
	DD	FLAT:__unwindfunclet$?MakeElement@CTwoPointMoveTool@@MAEPAVCElement@@ABVCElementCommonEnvironment@@@Z$3
__ehfuncinfo$?MakeElement@CTwoPointMoveTool@@MAEPAVCElement@@ABVCElementCommonEnvironment@@@Z DD 019930522H
	DD	04H
	DD	FLAT:__unwindtable$?MakeElement@CTwoPointMoveTool@@MAEPAVCElement@@ABVCElementCommonEnvironment@@@Z
	DD	2 DUP(00H)
	DD	2 DUP(00H)
	DD	00H
	DD	01H
xdata$x	ENDS
;	COMDAT xdata$x
xdata$x	SEGMENT
__unwindtable$?DrawTool@CTwoPointMoveTool@@MAEXPAVCDC@@@Z DD 0ffffffffH
	DD	FLAT:__unwindfunclet$?DrawTool@CTwoPointMoveTool@@MAEXPAVCDC@@@Z$0
__ehfuncinfo$?DrawTool@CTwoPointMoveTool@@MAEXPAVCDC@@@Z DD 019930522H
	DD	01H
	DD	FLAT:__unwindtable$?DrawTool@CTwoPointMoveTool@@MAEXPAVCDC@@@Z
	DD	2 DUP(00H)
	DD	2 DUP(00H)
	DD	00H
	DD	01H
xdata$x	ENDS
;	COMDAT xdata$x
xdata$x	SEGMENT
__ehfuncinfo$?GetOnePointDrawingData@COnePointMoveTool@@ABE?AVCOnePointDrawingData@@XZ DD 019930522H
	DD	0dH
	DD	FLAT:__unwindtable$?GetOnePointDrawingData@COnePointMoveTool@@ABE?AVCOnePointDrawingData@@XZ
	DD	2 DUP(00H)
	DD	2 DUP(00H)
	DD	00H
	DD	01H
__unwindtable$?GetOnePointDrawingData@COnePointMoveTool@@ABE?AVCOnePointDrawingData@@XZ DD 0ffffffffH
	DD	FLAT:__unwindfunclet$?GetOnePointDrawingData@COnePointMoveTool@@ABE?AVCOnePointDrawingData@@XZ$0
	DD	00H
	DD	FLAT:__unwindfunclet$?GetOnePointDrawingData@COnePointMoveTool@@ABE?AVCOnePointDrawingData@@XZ$1
	DD	01H
	DD	FLAT:__unwindfunclet$?GetOnePointDrawingData@COnePointMoveTool@@ABE?AVCOnePointDrawingData@@XZ$2
	DD	02H
	DD	FLAT:__unwindfunclet$?GetOnePointDrawingData@COnePointMoveTool@@ABE?AVCOnePointDrawingData@@XZ$3
	DD	03H
	DD	FLAT:__unwindfunclet$?GetOnePointDrawingData@COnePointMoveTool@@ABE?AVCOnePointDrawingData@@XZ$4
	DD	02H
	DD	FLAT:__unwindfunclet$?GetOnePointDrawingData@COnePointMoveTool@@ABE?AVCOnePointDrawingData@@XZ$4
	DD	05H
	DD	FLAT:__unwindfunclet$?GetOnePointDrawingData@COnePointMoveTool@@ABE?AVCOnePointDrawingData@@XZ$5
	DD	06H
	DD	FLAT:__unwindfunclet$?GetOnePointDrawingData@COnePointMoveTool@@ABE?AVCOnePointDrawingData@@XZ$6
	DD	07H
	DD	FLAT:__unwindfunclet$?GetOnePointDrawingData@COnePointMoveTool@@ABE?AVCOnePointDrawingData@@XZ$7
	DD	08H
	DD	FLAT:__unwindfunclet$?GetOnePointDrawingData@COnePointMoveTool@@ABE?AVCOnePointDrawingData@@XZ$8
	DD	09H
	DD	FLAT:__unwindfunclet$?GetOnePointDrawingData@COnePointMoveTool@@ABE?AVCOnePointDrawingData@@XZ$9
	DD	05H
	DD	FLAT:___std_terminate
	DD	0ffffffffH
	DD	FLAT:___std_terminate
xdata$x	ENDS
;	COMDAT xdata$x
xdata$x	SEGMENT
__ehfuncinfo$?MakeElement@COnePointMoveTool@@MAEPAVCElement@@ABVCElementCommonEnvironment@@@Z DD 019930522H
	DD	0bH
	DD	FLAT:__unwindtable$?MakeElement@COnePointMoveTool@@MAEPAVCElement@@ABVCElementCommonEnvironment@@@Z
	DD	2 DUP(00H)
	DD	2 DUP(00H)
	DD	00H
	DD	01H
__unwindtable$?MakeElement@COnePointMoveTool@@MAEPAVCElement@@ABVCElementCommonEnvironment@@@Z DD 0ffffffffH
	DD	FLAT:__unwindfunclet$?MakeElement@COnePointMoveTool@@MAEPAVCElement@@ABVCElementCommonEnvironment@@@Z$0
	DD	00H
	DD	FLAT:__unwindfunclet$?MakeElement@COnePointMoveTool@@MAEPAVCElement@@ABVCElementCommonEnvironment@@@Z$1
	DD	0ffffffffH
	DD	FLAT:__unwindfunclet$?MakeElement@COnePointMoveTool@@MAEPAVCElement@@ABVCElementCommonEnvironment@@@Z$1
	DD	02H
	DD	FLAT:__unwindfunclet$?MakeElement@COnePointMoveTool@@MAEPAVCElement@@ABVCElementCommonEnvironment@@@Z$2
	DD	03H
	DD	FLAT:__unwindfunclet$?MakeElement@COnePointMoveTool@@MAEPAVCElement@@ABVCElementCommonEnvironment@@@Z$3
	DD	02H
	DD	FLAT:__unwindfunclet$?MakeElement@COnePointMoveTool@@MAEPAVCElement@@ABVCElementCommonEnvironment@@@Z$3
	DD	05H
	DD	FLAT:__unwindfunclet$?MakeElement@COnePointMoveTool@@MAEPAVCElement@@ABVCElementCommonEnvironment@@@Z$4
	DD	06H
	DD	FLAT:__unwindfunclet$?MakeElement@COnePointMoveTool@@MAEPAVCElement@@ABVCElementCommonEnvironment@@@Z$5
	DD	07H
	DD	FLAT:__unwindfunclet$?MakeElement@COnePointMoveTool@@MAEPAVCElement@@ABVCElementCommonEnvironment@@@Z$6
	DD	06H
	DD	FLAT:___std_terminate
	DD	05H
	DD	FLAT:___std_terminate
xdata$x	ENDS
;	COMDAT xdata$x
xdata$x	SEGMENT
__unwindtable$?DrawTool@COnePointMoveTool@@MAEXPAVCDC@@@Z DD 0ffffffffH
	DD	FLAT:__unwindfunclet$?DrawTool@COnePointMoveTool@@MAEXPAVCDC@@@Z$0
__ehfuncinfo$?DrawTool@COnePointMoveTool@@MAEXPAVCDC@@@Z DD 019930522H
	DD	01H
	DD	FLAT:__unwindtable$?DrawTool@COnePointMoveTool@@MAEXPAVCDC@@@Z
	DD	2 DUP(00H)
	DD	2 DUP(00H)
	DD	00H
	DD	01H
xdata$x	ENDS
;	COMDAT xdata$x
xdata$x	SEGMENT
__ehfuncinfo$?OnMouseMove@CMoveTool@@UAE_NPAVCDC@@ABVCPoint@@H@Z DD 019930522H
	DD	09H
	DD	FLAT:__unwindtable$?OnMouseMove@CMoveTool@@UAE_NPAVCDC@@ABVCPoint@@H@Z
	DD	2 DUP(00H)
	DD	2 DUP(00H)
	DD	00H
	DD	01H
__unwindtable$?OnMouseMove@CMoveTool@@UAE_NPAVCDC@@ABVCPoint@@H@Z DD 0ffffffffH
	DD	FLAT:__unwindfunclet$?OnMouseMove@CMoveTool@@UAE_NPAVCDC@@ABVCPoint@@H@Z$0
	DD	00H
	DD	FLAT:__unwindfunclet$?OnMouseMove@CMoveTool@@UAE_NPAVCDC@@ABVCPoint@@H@Z$1
	DD	01H
	DD	FLAT:__unwindfunclet$?OnMouseMove@CMoveTool@@UAE_NPAVCDC@@ABVCPoint@@H@Z$2
	DD	02H
	DD	FLAT:__unwindfunclet$?OnMouseMove@CMoveTool@@UAE_NPAVCDC@@ABVCPoint@@H@Z$3
	DD	02H
	DD	FLAT:___std_terminate
	DD	01H
	DD	FLAT:___std_terminate
	DD	03H
	DD	FLAT:__unwindfunclet$?OnMouseMove@CMoveTool@@UAE_NPAVCDC@@ABVCPoint@@H@Z$4
	DD	02H
	DD	FLAT:___std_terminate
	DD	01H
	DD	FLAT:___std_terminate
xdata$x	ENDS
;	COMDAT xdata$x
xdata$x	SEGMENT
__unwindtable$??0CMoveTool@@IAE@PAVCAnalysisData@@W4COORDINATETYPE@CAnalysis@@@Z DD 0ffffffffH
	DD	FLAT:__unwindfunclet$??0CMoveTool@@IAE@PAVCAnalysisData@@W4COORDINATETYPE@CAnalysis@@@Z$0
	DD	00H
	DD	FLAT:__unwindfunclet$??0CMoveTool@@IAE@PAVCAnalysisData@@W4COORDINATETYPE@CAnalysis@@@Z$1
__ehfuncinfo$??0CMoveTool@@IAE@PAVCAnalysisData@@W4COORDINATETYPE@CAnalysis@@@Z DD 019930522H
	DD	02H
	DD	FLAT:__unwindtable$??0CMoveTool@@IAE@PAVCAnalysisData@@W4COORDINATETYPE@CAnalysis@@@Z
	DD	2 DUP(00H)
	DD	2 DUP(00H)
	DD	00H
	DD	01H
xdata$x	ENDS
;	COMDAT xdata$x
xdata$x	SEGMENT
__ehfuncinfo$??1ILPCSTR133101@@QAE@XZ DD 019930522H
	DD	00H
	DD	00H
	DD	2 DUP(00H)
	DD	2 DUP(00H)
	DD	00H
	DD	05H
xdata$x	ENDS
; Function compile flags: /Ogtp
;	COMDAT ??1CDlgAnalysisAdjustRatio@@UAE@XZ
_TEXT	SEGMENT
??1CDlgAnalysisAdjustRatio@@UAE@XZ PROC			; CDlgAnalysisAdjustRatio::~CDlgAnalysisAdjustRatio, COMDAT
; _this$ = ecx
  00000	56		 push	 esi
  00001	8b f1		 mov	 esi, ecx
  00003	8d 8e a8 00 00
	00		 lea	 ecx, DWORD PTR [esi+168]
  00009	e8 00 00 00 00	 call	 ??1CListCtrl@@UAE@XZ	; CListCtrl::~CListCtrl
  0000e	8b ce		 mov	 ecx, esi
  00010	5e		 pop	 esi
  00011	e9 00 00 00 00	 jmp	 ??1CDialog@@UAE@XZ	; CDialog::~CDialog
??1CDlgAnalysisAdjustRatio@@UAE@XZ ENDP			; CDlgAnalysisAdjustRatio::~CDlgAnalysisAdjustRatio
_TEXT	ENDS
; Function compile flags: /Ogtp
;	COMDAT ??1CMultiPointDrawingData@@QAE@XZ
_TEXT	SEGMENT
__$EHRec$ = -12						; size = 12
??1CMultiPointDrawingData@@QAE@XZ PROC			; CMultiPointDrawingData::~CMultiPointDrawingData, COMDAT
; _this$ = ecx
  00000	55		 push	 ebp
  00001	8b ec		 mov	 ebp, esp
  00003	6a ff		 push	 -1
  00005	68 00 00 00 00	 push	 __ehhandler$??1CMultiPointDrawingData@@QAE@XZ
  0000a	64 a1 00 00 00
	00		 mov	 eax, DWORD PTR fs:0
  00010	50		 push	 eax
  00011	56		 push	 esi
  00012	a1 00 00 00 00	 mov	 eax, DWORD PTR ___security_cookie
  00017	33 c5		 xor	 eax, ebp
  00019	50		 push	 eax
  0001a	8d 45 f4	 lea	 eax, DWORD PTR __$EHRec$[ebp]
  0001d	64 a3 00 00 00
	00		 mov	 DWORD PTR fs:0, eax
  00023	8b f1		 mov	 esi, ecx
  00025	68 00 00 00 00	 push	 OFFSET ??1CPoints@@QAE@XZ
  0002a	68 f4 01 00 00	 push	 500			; 000001f4H
  0002f	6a 28		 push	 40			; 00000028H
  00031	8d 46 70	 lea	 eax, DWORD PTR [esi+112]
  00034	50		 push	 eax
  00035	e8 00 00 00 00	 call	 ??_M@YGXPAXIIP6EX0@Z@Z
  0003a	8d 4e 20	 lea	 ecx, DWORD PTR [esi+32]
  0003d	ff 15 00 00 00
	00		 call	 DWORD PTR __imp_??1?$CStringT@DV?$StrTraitMFC_DLL@DV?$ChTraitsCRT@D@ATL@@@@@ATL@@QAE@XZ
  00043	8d 4e 1c	 lea	 ecx, DWORD PTR [esi+28]
  00046	ff 15 00 00 00
	00		 call	 DWORD PTR __imp_??1?$CStringT@DV?$StrTraitMFC_DLL@DV?$ChTraitsCRT@D@ATL@@@@@ATL@@QAE@XZ
  0004c	8d 4e 18	 lea	 ecx, DWORD PTR [esi+24]
  0004f	ff 15 00 00 00
	00		 call	 DWORD PTR __imp_??1?$CStringT@DV?$StrTraitMFC_DLL@DV?$ChTraitsCRT@D@ATL@@@@@ATL@@QAE@XZ
  00055	8b 4d f4	 mov	 ecx, DWORD PTR __$EHRec$[ebp]
  00058	64 89 0d 00 00
	00 00		 mov	 DWORD PTR fs:0, ecx
  0005f	59		 pop	 ecx
  00060	5e		 pop	 esi
  00061	8b e5		 mov	 esp, ebp
  00063	5d		 pop	 ebp
  00064	c3		 ret	 0
  00065	cc		 int	 3
  00066	cc		 int	 3
  00067	cc		 int	 3
  00068	cc		 int	 3
  00069	cc		 int	 3
_TEXT	ENDS
;	COMDAT text$x
text$x	SEGMENT
__ehhandler$??1CMultiPointDrawingData@@QAE@XZ:
  00000	90		 npad	 1
  00001	90		 npad	 1
  00002	8b 54 24 08	 mov	 edx, DWORD PTR [esp+8]
  00006	8d 42 0c	 lea	 eax, DWORD PTR [edx+12]
  00009	8b 4a f8	 mov	 ecx, DWORD PTR [edx-8]
  0000c	33 c8		 xor	 ecx, eax
  0000e	e8 00 00 00 00	 call	 @__security_check_cookie@4
  00013	b8 00 00 00 00	 mov	 eax, OFFSET __ehfuncinfo$??1CMultiPointDrawingData@@QAE@XZ
  00018	e9 00 00 00 00	 jmp	 ___CxxFrameHandler3
text$x	ENDS
??1CMultiPointDrawingData@@QAE@XZ ENDP			; CMultiPointDrawingData::~CMultiPointDrawingData
; Function compile flags: /Ogtp
;	COMDAT ??1CThreePointDrawingData@@QAE@XZ
_TEXT	SEGMENT
??1CThreePointDrawingData@@QAE@XZ PROC			; CThreePointDrawingData::~CThreePointDrawingData, COMDAT
; _this$ = ecx
  00000	56		 push	 esi
  00001	8b f1		 mov	 esi, ecx
  00003	8d 8e d4 00 00
	00		 lea	 ecx, DWORD PTR [esi+212]
  00009	ff 15 00 00 00
	00		 call	 DWORD PTR __imp_??1?$CStringT@DV?$StrTraitMFC_DLL@DV?$ChTraitsCRT@D@ATL@@@@@ATL@@QAE@XZ
  0000f	8d 8e ac 00 00
	00		 lea	 ecx, DWORD PTR [esi+172]
  00015	ff 15 00 00 00
	00		 call	 DWORD PTR __imp_??1?$CStringT@DV?$StrTraitMFC_DLL@DV?$ChTraitsCRT@D@ATL@@@@@ATL@@QAE@XZ
  0001b	8d 8e 84 00 00
	00		 lea	 ecx, DWORD PTR [esi+132]
  00021	ff 15 00 00 00
	00		 call	 DWORD PTR __imp_??1?$CStringT@DV?$StrTraitMFC_DLL@DV?$ChTraitsCRT@D@ATL@@@@@ATL@@QAE@XZ
  00027	8d 4e 20	 lea	 ecx, DWORD PTR [esi+32]
  0002a	ff 15 00 00 00
	00		 call	 DWORD PTR __imp_??1?$CStringT@DV?$StrTraitMFC_DLL@DV?$ChTraitsCRT@D@ATL@@@@@ATL@@QAE@XZ
  00030	8d 4e 1c	 lea	 ecx, DWORD PTR [esi+28]
  00033	ff 15 00 00 00
	00		 call	 DWORD PTR __imp_??1?$CStringT@DV?$StrTraitMFC_DLL@DV?$ChTraitsCRT@D@ATL@@@@@ATL@@QAE@XZ
  00039	8d 4e 18	 lea	 ecx, DWORD PTR [esi+24]
  0003c	5e		 pop	 esi
  0003d	ff 25 00 00 00
	00		 jmp	 DWORD PTR __imp_??1?$CStringT@DV?$StrTraitMFC_DLL@DV?$ChTraitsCRT@D@ATL@@@@@ATL@@QAE@XZ
??1CThreePointDrawingData@@QAE@XZ ENDP			; CThreePointDrawingData::~CThreePointDrawingData
_TEXT	ENDS
; Function compile flags: /Ogtp
;	COMDAT ??1CTwoPointDrawingData@@QAE@XZ
_TEXT	SEGMENT
??1CTwoPointDrawingData@@QAE@XZ PROC			; CTwoPointDrawingData::~CTwoPointDrawingData, COMDAT
; _this$ = ecx
  00000	56		 push	 esi
  00001	8b f1		 mov	 esi, ecx
  00003	8d 8e b4 00 00
	00		 lea	 ecx, DWORD PTR [esi+180]
  00009	ff 15 00 00 00
	00		 call	 DWORD PTR __imp_??1?$CStringT@DV?$StrTraitMFC_DLL@DV?$ChTraitsCRT@D@ATL@@@@@ATL@@QAE@XZ
  0000f	8d 8e 8c 00 00
	00		 lea	 ecx, DWORD PTR [esi+140]
  00015	ff 15 00 00 00
	00		 call	 DWORD PTR __imp_??1?$CStringT@DV?$StrTraitMFC_DLL@DV?$ChTraitsCRT@D@ATL@@@@@ATL@@QAE@XZ
  0001b	8d 4e 20	 lea	 ecx, DWORD PTR [esi+32]
  0001e	ff 15 00 00 00
	00		 call	 DWORD PTR __imp_??1?$CStringT@DV?$StrTraitMFC_DLL@DV?$ChTraitsCRT@D@ATL@@@@@ATL@@QAE@XZ
  00024	8d 4e 1c	 lea	 ecx, DWORD PTR [esi+28]
  00027	ff 15 00 00 00
	00		 call	 DWORD PTR __imp_??1?$CStringT@DV?$StrTraitMFC_DLL@DV?$ChTraitsCRT@D@ATL@@@@@ATL@@QAE@XZ
  0002d	8d 4e 18	 lea	 ecx, DWORD PTR [esi+24]
  00030	5e		 pop	 esi
  00031	ff 25 00 00 00
	00		 jmp	 DWORD PTR __imp_??1?$CStringT@DV?$StrTraitMFC_DLL@DV?$ChTraitsCRT@D@ATL@@@@@ATL@@QAE@XZ
??1CTwoPointDrawingData@@QAE@XZ ENDP			; CTwoPointDrawingData::~CTwoPointDrawingData
_TEXT	ENDS
; Function compile flags: /Ogtp
;	COMDAT ??1COnePointDrawingData@@QAE@XZ
_TEXT	SEGMENT
??1COnePointDrawingData@@QAE@XZ PROC			; COnePointDrawingData::~COnePointDrawingData, COMDAT
; _this$ = ecx
  00000	56		 push	 esi
  00001	8b f1		 mov	 esi, ecx
  00003	8d 4e 74	 lea	 ecx, DWORD PTR [esi+116]
  00006	ff 15 00 00 00
	00		 call	 DWORD PTR __imp_??1?$CStringT@DV?$StrTraitMFC_DLL@DV?$ChTraitsCRT@D@ATL@@@@@ATL@@QAE@XZ
  0000c	8d 4e 20	 lea	 ecx, DWORD PTR [esi+32]
  0000f	ff 15 00 00 00
	00		 call	 DWORD PTR __imp_??1?$CStringT@DV?$StrTraitMFC_DLL@DV?$ChTraitsCRT@D@ATL@@@@@ATL@@QAE@XZ
  00015	8d 4e 1c	 lea	 ecx, DWORD PTR [esi+28]
  00018	ff 15 00 00 00
	00		 call	 DWORD PTR __imp_??1?$CStringT@DV?$StrTraitMFC_DLL@DV?$ChTraitsCRT@D@ATL@@@@@ATL@@QAE@XZ
  0001e	8d 4e 18	 lea	 ecx, DWORD PTR [esi+24]
  00021	5e		 pop	 esi
  00022	ff 25 00 00 00
	00		 jmp	 DWORD PTR __imp_??1?$CStringT@DV?$StrTraitMFC_DLL@DV?$ChTraitsCRT@D@ATL@@@@@ATL@@QAE@XZ
??1COnePointDrawingData@@QAE@XZ ENDP			; COnePointDrawingData::~COnePointDrawingData
_TEXT	ENDS
; Function compile flags: /Ogtp
; File D:\git\src\IBK\IBK_DRFN\ProjSrc\SrcChartEx\ChartAddIn\ChartAnalysisToolAddIn\Include_Chart\Dll_Load\IMetaTable.h
; File C:\Program Files (x86)\Microsoft Visual Studio\2019\Community\VC\Tools\MSVC\14.29.30133\atlmfc\include\afxwin1.inl
; File D:\git\src\IBK\IBK_DRFN\ProjSrc\SrcChartEx\ChartAddIn\ChartAnalysisToolAddIn\Include_Chart\Dll_Load\IMetaTable.h
;	COMDAT ??1CMultiLanguageResourceSetter@@QAE@XZ
_TEXT	SEGMENT
__$EHRec$ = -12						; size = 12
??1CMultiLanguageResourceSetter@@QAE@XZ PROC		; CMultiLanguageResourceSetter::~CMultiLanguageResourceSetter, COMDAT
; _this$ = ecx

; 1038 : 	{

  00000	55		 push	 ebp
  00001	8b ec		 mov	 ebp, esp
  00003	6a ff		 push	 -1
  00005	68 00 00 00 00	 push	 __ehhandler$??1CMultiLanguageResourceSetter@@QAE@XZ
  0000a	64 a1 00 00 00
	00		 mov	 eax, DWORD PTR fs:0
  00010	50		 push	 eax
  00011	56		 push	 esi
  00012	a1 00 00 00 00	 mov	 eax, DWORD PTR ___security_cookie
  00017	33 c5		 xor	 eax, ebp
  00019	50		 push	 eax
  0001a	8d 45 f4	 lea	 eax, DWORD PTR __$EHRec$[ebp]
  0001d	64 a3 00 00 00
	00		 mov	 DWORD PTR fs:0, eax

; 1039 : 		AfxSetResourceHandle( m_hInstance);

  00023	8b 31		 mov	 esi, DWORD PTR [ecx]
; File C:\Program Files (x86)\Microsoft Visual Studio\2019\Community\VC\Tools\MSVC\14.29.30133\atlmfc\include\afxwin1.inl

; 27   : 	{ ASSERT(hInstResource != NULL); afxCurrentResourceHandle = hInstResource; }

  00025	e8 00 00 00 00	 call	 ?AfxGetModuleState@@YGPAVAFX_MODULE_STATE@@XZ ; AfxGetModuleState
  0002a	89 70 0c	 mov	 DWORD PTR [eax+12], esi
; File D:\git\src\IBK\IBK_DRFN\ProjSrc\SrcChartEx\ChartAddIn\ChartAnalysisToolAddIn\Include_Chart\Dll_Load\IMetaTable.h

; 1040 : 	}

  0002d	8b 4d f4	 mov	 ecx, DWORD PTR __$EHRec$[ebp]
  00030	64 89 0d 00 00
	00 00		 mov	 DWORD PTR fs:0, ecx
  00037	59		 pop	 ecx
  00038	5e		 pop	 esi
  00039	8b e5		 mov	 esp, ebp
  0003b	5d		 pop	 ebp
  0003c	c3		 ret	 0
  0003d	cc		 int	 3
  0003e	cc		 int	 3
  0003f	cc		 int	 3
  00040	cc		 int	 3
  00041	cc		 int	 3
_TEXT	ENDS
;	COMDAT text$x
text$x	SEGMENT
__ehhandler$??1CMultiLanguageResourceSetter@@QAE@XZ:
  00000	90		 npad	 1
  00001	90		 npad	 1
  00002	8b 54 24 08	 mov	 edx, DWORD PTR [esp+8]
  00006	8d 42 0c	 lea	 eax, DWORD PTR [edx+12]
  00009	8b 4a f8	 mov	 ecx, DWORD PTR [edx-8]
  0000c	33 c8		 xor	 ecx, eax
  0000e	e8 00 00 00 00	 call	 @__security_check_cookie@4
  00013	b8 00 00 00 00	 mov	 eax, OFFSET __ehfuncinfo$??1CMultiLanguageResourceSetter@@QAE@XZ
  00018	e9 00 00 00 00	 jmp	 ___CxxFrameHandler3
text$x	ENDS
??1CMultiLanguageResourceSetter@@QAE@XZ ENDP		; CMultiLanguageResourceSetter::~CMultiLanguageResourceSetter
; Function compile flags: /Ogtp
; File D:\git\src\IBK\IBK_DRFN\ProjSrc\SrcChartEx\ChartAddIn\ChartAnalysisToolAddIn\AnalysisTool\PointTool.cpp
; File D:\git\src\IBK\IBK_DRFN\ProjSrc\SrcChartEx\ChartAddIn\ChartAnalysisToolAddIn\Include_AddIn_133101\I133101\_IString.h
; File D:\git\src\IBK\IBK_DRFN\ProjSrc\SrcChartEx\ChartAddIn\ChartAnalysisToolAddIn\AnalysisTool\PointTool.cpp
; File D:\git\src\IBK\IBK_DRFN\ProjSrc\SrcChartEx\ChartAddIn\ChartAnalysisToolAddIn\AnalysisTool\PointTool.h
; File D:\git\src\IBK\IBK_DRFN\ProjSrc\SrcChartEx\ChartAddIn\ChartAnalysisToolAddIn\AnalysisTool\PointTool.cpp
; File D:\git\src\IBK\IBK_DRFN\ProjSrc\SrcChartEx\ChartAddIn\ChartAnalysisToolAddIn\AnalysisTool\PointTool.h
; File D:\git\src\IBK\IBK_DRFN\ProjSrc\SrcChartEx\ChartAddIn\ChartAnalysisToolAddIn\AnalysisTool\PointTool.cpp
; File D:\git\src\IBK\IBK_DRFN\ProjSrc\SrcChartEx\ChartAddIn\ChartAnalysisToolAddIn\Include_AddIn_133101\I133101\_IString.h
; File D:\git\src\IBK\IBK_DRFN\ProjSrc\SrcChartEx\ChartAddIn\ChartAnalysisToolAddIn\AnalysisTool\PointTool.cpp
; File D:\git\src\IBK\IBK_DRFN\ProjSrc\SrcChartEx\ChartAddIn\ChartAnalysisToolAddIn\AnalysisTool\PointTool.h
; File D:\git\src\IBK\IBK_DRFN\ProjSrc\SrcChartEx\ChartAddIn\ChartAnalysisToolAddIn\AnalysisTool\PointTool.cpp
; File D:\git\src\IBK\IBK_DRFN\ProjSrc\SrcChartEx\ChartAddIn\ChartAnalysisToolAddIn\AnalysisTool\PointTool.h
; File D:\git\src\IBK\IBK_DRFN\ProjSrc\SrcChartEx\ChartAddIn\ChartAnalysisToolAddIn\AnalysisTool\PointTool.cpp
; File D:\git\src\IBK\IBK_DRFN\ProjSrc\SrcChartEx\ChartAddIn\ChartAnalysisToolAddIn\AnalysisTool\PointTool.h
; File D:\git\src\IBK\IBK_DRFN\ProjSrc\SrcChartEx\ChartAddIn\ChartAnalysisToolAddIn\AnalysisTool\PointTool.cpp
; File D:\git\src\IBK\IBK_DRFN\ProjSrc\SrcChartEx\ChartAddIn\ChartAnalysisToolAddIn\Include_AddIn_133101\I133101\_IString.h
; File D:\git\src\IBK\IBK_DRFN\ProjSrc\SrcChartEx\ChartAddIn\ChartAnalysisToolAddIn\AnalysisTool\PointTool.cpp
; File D:\git\src\IBK\IBK_DRFN\ProjSrc\SrcChartEx\ChartAddIn\ChartAnalysisToolAddIn\Include_AddIn_133101\I133101\_IString.h
; File D:\git\src\IBK\IBK_DRFN\ProjSrc\SrcChartEx\ChartAddIn\ChartAnalysisToolAddIn\AnalysisTool\PointTool.cpp
;	COMDAT ?GetMultiPointDrawingData@CMultiPointDownTool@@ABE?AVCMultiPointDrawingData@@XZ
_TEXT	SEGMENT
$T2 = -324						; size = 72
$T3 = -252						; size = 72
$T4 = -180						; size = 8
_szRQ$ = -172						; size = 8
___$ReturnUdt$GSCopy$1$ = -164				; size = 4
$T5 = -158						; size = 2
$T6 = -156						; size = 8
$T7 = -156						; size = 8
_this$GSCopy$1$ = -148					; size = 4
_szHelpMsg$ = -144					; size = 8
___$ReturnUdt$GSCopy$ = -136				; size = 4
_strPacketType$ = -136					; size = 4
_strDataType$ = -132					; size = 4
_calData$ = -128					; size = 96
$T8 = -32						; size = 16
__$ArrayPad$ = -16					; size = 4
__$EHRec$ = -12						; size = 12
___$ReturnUdt$ = 8					; size = 4
?GetMultiPointDrawingData@CMultiPointDownTool@@ABE?AVCMultiPointDrawingData@@XZ PROC ; CMultiPointDownTool::GetMultiPointDrawingData, COMDAT
; _this$ = ecx

; 1064 : {

  00000	55		 push	 ebp
  00001	8b ec		 mov	 ebp, esp
  00003	6a ff		 push	 -1
  00005	68 00 00 00 00	 push	 __ehhandler$?GetMultiPointDrawingData@CMultiPointDownTool@@ABE?AVCMultiPointDrawingData@@XZ
  0000a	64 a1 00 00 00
	00		 mov	 eax, DWORD PTR fs:0
  00010	50		 push	 eax
  00011	81 ec 38 01 00
	00		 sub	 esp, 312		; 00000138H
  00017	a1 00 00 00 00	 mov	 eax, DWORD PTR ___security_cookie
  0001c	33 c5		 xor	 eax, ebp
  0001e	89 45 f0	 mov	 DWORD PTR __$ArrayPad$[ebp], eax
  00021	53		 push	 ebx
  00022	56		 push	 esi
  00023	57		 push	 edi
  00024	50		 push	 eax
  00025	8d 45 f4	 lea	 eax, DWORD PTR __$EHRec$[ebp]
  00028	64 a3 00 00 00
	00		 mov	 DWORD PTR fs:0, eax
  0002e	8b d9		 mov	 ebx, ecx
  00030	89 9d 6c ff ff
	ff		 mov	 DWORD PTR _this$GSCopy$1$[ebp], ebx
  00036	8b 45 08	 mov	 eax, DWORD PTR ___$ReturnUdt$[ebp]
  00039	89 85 78 ff ff
	ff		 mov	 DWORD PTR ___$ReturnUdt$GSCopy$[ebp], eax
  0003f	89 85 5c ff ff
	ff		 mov	 DWORD PTR ___$ReturnUdt$GSCopy$1$[ebp], eax
; File D:\git\src\IBK\IBK_DRFN\ProjSrc\SrcChartEx\ChartAddIn\ChartAnalysisToolAddIn\Include_AddIn_133101\I133101\_IString.h

; 39   : 		m_pIStrData = p_pIString;	// Do not AddRef(). Because It must be Return Value.

  00045	c7 85 74 ff ff
	ff 00 00 00 00	 mov	 DWORD PTR _szHelpMsg$[ebp+4], 0

; 41   : 		else m_szData = NULL;

  0004f	c7 85 70 ff ff
	ff 00 00 00 00	 mov	 DWORD PTR _szHelpMsg$[ebp], 0
; File D:\git\src\IBK\IBK_DRFN\ProjSrc\SrcChartEx\ChartAddIn\ChartAnalysisToolAddIn\AnalysisTool\PointTool.cpp

; 1075 : 	CString strDataType, strPacketType;	

  00059	8d 8d 7c ff ff
	ff		 lea	 ecx, DWORD PTR _strDataType$[ebp]
  0005f	c7 45 fc 00 00
	00 00		 mov	 DWORD PTR __$EHRec$[ebp+8], 0
  00066	ff 15 00 00 00
	00		 call	 DWORD PTR __imp_??0?$CStringT@DV?$StrTraitMFC_DLL@DV?$ChTraitsCRT@D@ATL@@@@@ATL@@QAE@XZ
  0006c	8d 8d 78 ff ff
	ff		 lea	 ecx, DWORD PTR _strPacketType$[ebp]
  00072	ff 15 00 00 00
	00		 call	 DWORD PTR __imp_??0?$CStringT@DV?$StrTraitMFC_DLL@DV?$ChTraitsCRT@D@ATL@@@@@ATL@@QAE@XZ
; File D:\git\src\IBK\IBK_DRFN\ProjSrc\SrcChartEx\ChartAddIn\ChartAnalysisToolAddIn\AnalysisTool\PointTool.h

; 106  : 	{	return m_ptMousePos;	}

  00078	8b 43 78	 mov	 eax, DWORD PTR [ebx+120]
  0007b	8b 4b 7c	 mov	 ecx, DWORD PTR [ebx+124]
  0007e	89 85 64 ff ff
	ff		 mov	 DWORD PTR $T7[ebp], eax
; File D:\git\src\IBK\IBK_DRFN\ProjSrc\SrcChartEx\ChartAddIn\ChartAnalysisToolAddIn\AnalysisTool\PointTool.cpp

; 1076 : 	CCoordinateCalculatorData calData = GetCoordinateCalculatorData( CDownTool::GetMousePos());

  00084	8d 85 64 ff ff
	ff		 lea	 eax, DWORD PTR $T7[ebp]
  0008a	50		 push	 eax
  0008b	8d 45 80	 lea	 eax, DWORD PTR _calData$[ebp]
; File D:\git\src\IBK\IBK_DRFN\ProjSrc\SrcChartEx\ChartAddIn\ChartAnalysisToolAddIn\AnalysisTool\PointTool.h

; 106  : 	{	return m_ptMousePos;	}

  0008e	89 8d 68 ff ff
	ff		 mov	 DWORD PTR $T7[ebp+4], ecx
; File D:\git\src\IBK\IBK_DRFN\ProjSrc\SrcChartEx\ChartAddIn\ChartAnalysisToolAddIn\AnalysisTool\PointTool.cpp

; 1076 : 	CCoordinateCalculatorData calData = GetCoordinateCalculatorData( CDownTool::GetMousePos());

  00094	50		 push	 eax
  00095	8b cb		 mov	 ecx, ebx
  00097	c6 45 fc 02	 mov	 BYTE PTR __$EHRec$[ebp+8], 2
  0009b	e8 00 00 00 00	 call	 ?GetCoordinateCalculatorData@CTool@@QBE?AVCCoordinateCalculatorData@@ABVCPoint@@@Z ; CTool::GetCoordinateCalculatorData

; 1077 : 	ILPCSTR szRQ = calData.m_pIChartOCX->GetCurrentRQ();

  000a0	8b 4d cc	 mov	 ecx, DWORD PTR _calData$[ebp+76]
  000a3	c6 45 fc 03	 mov	 BYTE PTR __$EHRec$[ebp+8], 3
  000a7	8b 01		 mov	 eax, DWORD PTR [ecx]
  000a9	ff 90 40 02 00
	00		 call	 DWORD PTR [eax+576]
; File D:\git\src\IBK\IBK_DRFN\ProjSrc\SrcChartEx\ChartAddIn\ChartAnalysisToolAddIn\Include_AddIn_133101\I133101\_IString.h

; 39   : 		m_pIStrData = p_pIString;	// Do not AddRef(). Because It must be Return Value.

  000af	8b c8		 mov	 ecx, eax
  000b1	89 8d 58 ff ff
	ff		 mov	 DWORD PTR _szRQ$[ebp+4], ecx

; 40   : 		if( m_pIStrData) m_szData = m_pIStrData->GetData();

  000b7	85 c9		 test	 ecx, ecx
  000b9	74 09		 je	 SHORT $LN19@GetMultiPo
  000bb	8b 01		 mov	 eax, DWORD PTR [ecx]
  000bd	ff 50 10	 call	 DWORD PTR [eax+16]
  000c0	8b d0		 mov	 edx, eax
  000c2	eb 02		 jmp	 SHORT $LN48@GetMultiPo
$LN19@GetMultiPo:

; 41   : 		else m_szData = NULL;

  000c4	33 d2		 xor	 edx, edx
$LN48@GetMultiPo:
; File D:\git\src\IBK\IBK_DRFN\ProjSrc\SrcChartEx\ChartAddIn\ChartAnalysisToolAddIn\AnalysisTool\PointTool.cpp

; 1077 : 	ILPCSTR szRQ = calData.m_pIChartOCX->GetCurrentRQ();

  000c6	89 95 54 ff ff
	ff		 mov	 DWORD PTR _szRQ$[ebp], edx

; 1078 : 	IPacketManager * pCurPacketManager = calData.m_pIPacketListManager->GetPacketManager(szRQ);

  000cc	8b 4d d0	 mov	 ecx, DWORD PTR _calData$[ebp+80]
  000cf	52		 push	 edx
  000d0	c6 45 fc 04	 mov	 BYTE PTR __$EHRec$[ebp+8], 4
  000d4	8b 01		 mov	 eax, DWORD PTR [ecx]
  000d6	ff 50 10	 call	 DWORD PTR [eax+16]
  000d9	8b f0		 mov	 esi, eax

; 1079 : 	pCurPacketManager->GetHelpMessageItem("UD", szHelpMsg); strDataType = szHelpMsg;

  000db	8d 8d 70 ff ff
	ff		 lea	 ecx, DWORD PTR _szHelpMsg$[ebp]
  000e1	51		 push	 ecx
  000e2	68 00 00 00 00	 push	 OFFSET ??_C@_02PONMEALH@UD@
  000e7	8b ce		 mov	 ecx, esi
  000e9	8b 06		 mov	 eax, DWORD PTR [esi]
  000eb	ff 50 18	 call	 DWORD PTR [eax+24]
  000ee	ff b5 70 ff ff
	ff		 push	 DWORD PTR _szHelpMsg$[ebp]
  000f4	8d 8d 7c ff ff
	ff		 lea	 ecx, DWORD PTR _strDataType$[ebp]
  000fa	ff 15 00 00 00
	00		 call	 DWORD PTR __imp_??4?$CStringT@DV?$StrTraitMFC_DLL@DV?$ChTraitsCRT@D@ATL@@@@@ATL@@QAEAAV01@PBD@Z

; 1080 : 	pCurPacketManager->GetHelpMessageItem("RDATET", szHelpMsg); strPacketType = szHelpMsg;

  00100	8b 06		 mov	 eax, DWORD PTR [esi]
  00102	8d 8d 70 ff ff
	ff		 lea	 ecx, DWORD PTR _szHelpMsg$[ebp]
  00108	51		 push	 ecx
  00109	68 00 00 00 00	 push	 OFFSET ??_C@_06MLGKKOBC@RDATET@
  0010e	8b ce		 mov	 ecx, esi
  00110	ff 50 18	 call	 DWORD PTR [eax+24]
  00113	ff b5 70 ff ff
	ff		 push	 DWORD PTR _szHelpMsg$[ebp]
  00119	8d 8d 78 ff ff
	ff		 lea	 ecx, DWORD PTR _strPacketType$[ebp]
  0011f	ff 15 00 00 00
	00		 call	 DWORD PTR __imp_??4?$CStringT@DV?$StrTraitMFC_DLL@DV?$ChTraitsCRT@D@ATL@@@@@ATL@@QAEAAV01@PBD@Z

; 1081 : 	CScaleBaseData::HORZSCALEDRAWERTYPE eDateUnit = (CScaleBaseData::HORZSCALEDRAWERTYPE)atoi(strDataType);

  00125	ff b5 7c ff ff
	ff		 push	 DWORD PTR _strDataType$[ebp]
  0012b	ff 15 00 00 00
	00		 call	 DWORD PTR __imp__atoi
  00131	83 c4 04	 add	 esp, 4
  00134	8b f0		 mov	 esi, eax

; 1083 : 	return CMultiPointDrawingData(CTool::GetElementCommonEnvironment().GetDataType(), 

  00136	8d 85 bc fe ff
	ff		 lea	 eax, DWORD PTR $T2[ebp]
  0013c	8b cb		 mov	 ecx, ebx
  0013e	50		 push	 eax
  0013f	e8 00 00 00 00	 call	 ?GetElementCommonEnvironment@CTool@@IBE?AVCElementCommonEnvironment@@XZ ; CTool::GetElementCommonEnvironment
  00144	8b f8		 mov	 edi, eax
  00146	8d 85 04 ff ff
	ff		 lea	 eax, DWORD PTR $T3[ebp]
  0014c	c6 45 fc 05	 mov	 BYTE PTR __$EHRec$[ebp+8], 5
  00150	50		 push	 eax
  00151	8b cb		 mov	 ecx, ebx
  00153	e8 00 00 00 00	 call	 ?GetElementCommonEnvironment@CTool@@IBE?AVCElementCommonEnvironment@@XZ ; CTool::GetElementCommonEnvironment
  00158	8b d8		 mov	 ebx, eax
; File D:\git\src\IBK\IBK_DRFN\ProjSrc\SrcChartEx\ChartAddIn\ChartAnalysisToolAddIn\AnalysisTool\PointTool.h

; 106  : 	{	return m_ptMousePos;	}

  0015a	8b 8d 6c ff ff
	ff		 mov	 ecx, DWORD PTR _this$GSCopy$1$[ebp]
; File D:\git\src\IBK\IBK_DRFN\ProjSrc\SrcChartEx\ChartAddIn\ChartAnalysisToolAddIn\AnalysisTool\PointTool.cpp

; 1083 : 	return CMultiPointDrawingData(CTool::GetElementCommonEnvironment().GetDataType(), 

  00160	56		 push	 esi
  00161	8b b5 6c ff ff
	ff		 mov	 esi, DWORD PTR _this$GSCopy$1$[ebp]
  00167	c6 45 fc 06	 mov	 BYTE PTR __$EHRec$[ebp+8], 6
; File D:\git\src\IBK\IBK_DRFN\ProjSrc\SrcChartEx\ChartAddIn\ChartAnalysisToolAddIn\AnalysisTool\PointTool.h

; 106  : 	{	return m_ptMousePos;	}

  0016b	8b 41 78	 mov	 eax, DWORD PTR [ecx+120]
  0016e	8b 49 7c	 mov	 ecx, DWORD PTR [ecx+124]
  00171	89 85 64 ff ff
	ff		 mov	 DWORD PTR $T6[ebp], eax
; File D:\git\src\IBK\IBK_DRFN\ProjSrc\SrcChartEx\ChartAddIn\ChartAnalysisToolAddIn\AnalysisTool\PointTool.cpp

; 1083 : 	return CMultiPointDrawingData(CTool::GetElementCommonEnvironment().GetDataType(), 

  00177	8d 86 88 00 00
	00		 lea	 eax, DWORD PTR [esi+136]
  0017d	50		 push	 eax
  0017e	ff b6 80 00 00
	00		 push	 DWORD PTR [esi+128]
  00184	8d 85 64 ff ff
	ff		 lea	 eax, DWORD PTR $T6[ebp]
; File D:\git\src\IBK\IBK_DRFN\ProjSrc\SrcChartEx\ChartAddIn\ChartAnalysisToolAddIn\AnalysisTool\PointTool.h

; 106  : 	{	return m_ptMousePos;	}

  0018a	89 8d 68 ff ff
	ff		 mov	 DWORD PTR $T6[ebp+4], ecx
; File D:\git\src\IBK\IBK_DRFN\ProjSrc\SrcChartEx\ChartAddIn\ChartAnalysisToolAddIn\AnalysisTool\PointTool.cpp

; 1083 : 	return CMultiPointDrawingData(CTool::GetElementCommonEnvironment().GetDataType(), 

  00190	50		 push	 eax
  00191	8d 85 62 ff ff
	ff		 lea	 eax, DWORD PTR $T5[ebp]
  00197	8b ce		 mov	 ecx, esi
  00199	50		 push	 eax
  0019a	e8 00 00 00 00	 call	 ?GetVertScaleType@CTool@@IBE?AVCVertScaleType@@ABVCPoint@@@Z ; CTool::GetVertScaleType
  0019f	50		 push	 eax
  001a0	8d 85 4c ff ff
	ff		 lea	 eax, DWORD PTR $T4[ebp]
  001a6	8b ce		 mov	 ecx, esi
  001a8	50		 push	 eax
  001a9	e8 00 00 00 00	 call	 ?GetDisplayAttributes@CTool@@IBE?AVCDisplayAttributes@@XZ ; CTool::GetDisplayAttributes
  001ae	50		 push	 eax
  001af	8d 45 e0	 lea	 eax, DWORD PTR $T8[ebp]
  001b2	8b ce		 mov	 ecx, esi
  001b4	50		 push	 eax
  001b5	e8 00 00 00 00	 call	 ?GetDrawingRegions@CTool@@IBEABVCDrawingRegions@@XZ ; CTool::GetDrawingRegions
  001ba	8b c8		 mov	 ecx, eax
  001bc	e8 00 00 00 00	 call	 ?GetCurrentFullGraphRegion@CDrawingRegions@@QBE?AVCRect@@XZ ; CDrawingRegions::GetCurrentFullGraphRegion
  001c1	50		 push	 eax
  001c2	8b cf		 mov	 ecx, edi
  001c4	e8 00 00 00 00	 call	 ?GetLineExt@CElementCommonEnvironment@@QAEAAVCLineExtEnvironment@@XZ ; CElementCommonEnvironment::GetLineExt
  001c9	50		 push	 eax
  001ca	8b 06		 mov	 eax, DWORD PTR [esi]
  001cc	8b ce		 mov	 ecx, esi
  001ce	ff 50 2c	 call	 DWORD PTR [eax+44]
  001d1	50		 push	 eax
  001d2	8b cb		 mov	 ecx, ebx
  001d4	e8 00 00 00 00	 call	 ?GetDataType@CElementCommonEnvironment@@QAEAAVCDataTypeEnvironment@@XZ ; CElementCommonEnvironment::GetDataType
  001d9	8b b5 5c ff ff
	ff		 mov	 esi, DWORD PTR ___$ReturnUdt$GSCopy$1$[ebp]
  001df	8b ce		 mov	 ecx, esi
  001e1	50		 push	 eax
  001e2	e8 00 00 00 00	 call	 ??0CMultiPointDrawingData@@QAE@ABVCDataTypeEnvironment@@PAVCTextPosition@@PAVCLineExtEnvironment@@ABVCRect@@ABVCDisplayAttributes@@ABVCVertScaleType@@HPBVCPoints@@W4HORZSCALEDRAWERTYPE@CScaleBaseData@@@Z ; CMultiPointDrawingData::CMultiPointDrawingData
  001e7	8d 8d 3c ff ff
	ff		 lea	 ecx, DWORD PTR $T3[ebp+56]
  001ed	ff 15 00 00 00
	00		 call	 DWORD PTR __imp_??1?$CStringT@DV?$StrTraitMFC_DLL@DV?$ChTraitsCRT@D@ATL@@@@@ATL@@QAE@XZ
  001f3	8d 8d 38 ff ff
	ff		 lea	 ecx, DWORD PTR $T3[ebp+52]
  001f9	ff 15 00 00 00
	00		 call	 DWORD PTR __imp_??1?$CStringT@DV?$StrTraitMFC_DLL@DV?$ChTraitsCRT@D@ATL@@@@@ATL@@QAE@XZ
  001ff	8d 8d 34 ff ff
	ff		 lea	 ecx, DWORD PTR $T3[ebp+48]
  00205	ff 15 00 00 00
	00		 call	 DWORD PTR __imp_??1?$CStringT@DV?$StrTraitMFC_DLL@DV?$ChTraitsCRT@D@ATL@@@@@ATL@@QAE@XZ
  0020b	8d 8d f4 fe ff
	ff		 lea	 ecx, DWORD PTR $T2[ebp+56]
  00211	ff 15 00 00 00
	00		 call	 DWORD PTR __imp_??1?$CStringT@DV?$StrTraitMFC_DLL@DV?$ChTraitsCRT@D@ATL@@@@@ATL@@QAE@XZ
  00217	8d 8d f0 fe ff
	ff		 lea	 ecx, DWORD PTR $T2[ebp+52]
  0021d	ff 15 00 00 00
	00		 call	 DWORD PTR __imp_??1?$CStringT@DV?$StrTraitMFC_DLL@DV?$ChTraitsCRT@D@ATL@@@@@ATL@@QAE@XZ
  00223	8d 8d ec fe ff
	ff		 lea	 ecx, DWORD PTR $T2[ebp+48]
  00229	ff 15 00 00 00
	00		 call	 DWORD PTR __imp_??1?$CStringT@DV?$StrTraitMFC_DLL@DV?$ChTraitsCRT@D@ATL@@@@@ATL@@QAE@XZ
; File D:\git\src\IBK\IBK_DRFN\ProjSrc\SrcChartEx\ChartAddIn\ChartAnalysisToolAddIn\Include_AddIn_133101\I133101\_IString.h

; 45   : 		if( m_pIStrData)

  0022f	8b 8d 58 ff ff
	ff		 mov	 ecx, DWORD PTR _szRQ$[ebp+4]
  00235	c6 45 fc 07	 mov	 BYTE PTR __$EHRec$[ebp+8], 7
  00239	85 c9		 test	 ecx, ecx
  0023b	74 06		 je	 SHORT $LN39@GetMultiPo

; 46   : 		{
; 47   : 			m_pIStrData->Release();

  0023d	8b 01		 mov	 eax, DWORD PTR [ecx]
  0023f	51		 push	 ecx
  00240	ff 50 08	 call	 DWORD PTR [eax+8]
$LN39@GetMultiPo:
; File D:\git\src\IBK\IBK_DRFN\ProjSrc\SrcChartEx\ChartAddIn\ChartAnalysisToolAddIn\AnalysisTool\PointTool.cpp

; 1083 : 	return CMultiPointDrawingData(CTool::GetElementCommonEnvironment().GetDataType(), 

  00243	8d 4d 80	 lea	 ecx, DWORD PTR _calData$[ebp]
  00246	e8 00 00 00 00	 call	 ??1CCoordinateCalculatorData@@QAE@XZ ; CCoordinateCalculatorData::~CCoordinateCalculatorData
  0024b	8d 8d 78 ff ff
	ff		 lea	 ecx, DWORD PTR _strPacketType$[ebp]
  00251	ff 15 00 00 00
	00		 call	 DWORD PTR __imp_??1?$CStringT@DV?$StrTraitMFC_DLL@DV?$ChTraitsCRT@D@ATL@@@@@ATL@@QAE@XZ
  00257	8d 8d 7c ff ff
	ff		 lea	 ecx, DWORD PTR _strDataType$[ebp]
  0025d	ff 15 00 00 00
	00		 call	 DWORD PTR __imp_??1?$CStringT@DV?$StrTraitMFC_DLL@DV?$ChTraitsCRT@D@ATL@@@@@ATL@@QAE@XZ
; File D:\git\src\IBK\IBK_DRFN\ProjSrc\SrcChartEx\ChartAddIn\ChartAnalysisToolAddIn\Include_AddIn_133101\I133101\_IString.h

; 45   : 		if( m_pIStrData)

  00263	8b 95 74 ff ff
	ff		 mov	 edx, DWORD PTR _szHelpMsg$[ebp+4]
  00269	c7 45 fc 08 00
	00 00		 mov	 DWORD PTR __$EHRec$[ebp+8], 8
  00270	85 d2		 test	 edx, edx
  00272	74 06		 je	 SHORT $LN46@GetMultiPo

; 46   : 		{
; 47   : 			m_pIStrData->Release();

  00274	8b 0a		 mov	 ecx, DWORD PTR [edx]
  00276	52		 push	 edx
  00277	ff 51 08	 call	 DWORD PTR [ecx+8]
$LN46@GetMultiPo:
; File D:\git\src\IBK\IBK_DRFN\ProjSrc\SrcChartEx\ChartAddIn\ChartAnalysisToolAddIn\AnalysisTool\PointTool.cpp

; 1091 : }

  0027a	8b c6		 mov	 eax, esi
  0027c	8b 4d f4	 mov	 ecx, DWORD PTR __$EHRec$[ebp]
  0027f	64 89 0d 00 00
	00 00		 mov	 DWORD PTR fs:0, ecx
  00286	59		 pop	 ecx
  00287	5f		 pop	 edi
  00288	5e		 pop	 esi
  00289	5b		 pop	 ebx
  0028a	8b 4d f0	 mov	 ecx, DWORD PTR __$ArrayPad$[ebp]
  0028d	33 cd		 xor	 ecx, ebp
  0028f	e8 00 00 00 00	 call	 @__security_check_cookie@4
  00294	8b e5		 mov	 esp, ebp
  00296	5d		 pop	 ebp
  00297	c2 04 00	 ret	 4
_TEXT	ENDS
;	COMDAT text$x
text$x	SEGMENT
__unwindfunclet$?GetMultiPointDrawingData@CMultiPointDownTool@@ABE?AVCMultiPointDrawingData@@XZ$0:
  00000	8d 8d 70 ff ff
	ff		 lea	 ecx, DWORD PTR _szHelpMsg$[ebp]
  00006	e9 00 00 00 00	 jmp	 ??1ILPCSTR133101@@QAE@XZ ; ILPCSTR133101::~ILPCSTR133101
__unwindfunclet$?GetMultiPointDrawingData@CMultiPointDownTool@@ABE?AVCMultiPointDrawingData@@XZ$1:
  0000b	8d 8d 7c ff ff
	ff		 lea	 ecx, DWORD PTR _strDataType$[ebp]
  00011	ff 25 00 00 00
	00		 jmp	 DWORD PTR __imp_??1?$CStringT@DV?$StrTraitMFC_DLL@DV?$ChTraitsCRT@D@ATL@@@@@ATL@@QAE@XZ
__unwindfunclet$?GetMultiPointDrawingData@CMultiPointDownTool@@ABE?AVCMultiPointDrawingData@@XZ$2:
  00017	8d 8d 78 ff ff
	ff		 lea	 ecx, DWORD PTR _strPacketType$[ebp]
  0001d	ff 25 00 00 00
	00		 jmp	 DWORD PTR __imp_??1?$CStringT@DV?$StrTraitMFC_DLL@DV?$ChTraitsCRT@D@ATL@@@@@ATL@@QAE@XZ
__unwindfunclet$?GetMultiPointDrawingData@CMultiPointDownTool@@ABE?AVCMultiPointDrawingData@@XZ$3:
  00023	8d 4d 80	 lea	 ecx, DWORD PTR _calData$[ebp]
  00026	e9 00 00 00 00	 jmp	 ??1CCoordinateCalculatorData@@QAE@XZ ; CCoordinateCalculatorData::~CCoordinateCalculatorData
__unwindfunclet$?GetMultiPointDrawingData@CMultiPointDownTool@@ABE?AVCMultiPointDrawingData@@XZ$4:
  0002b	8d 8d 54 ff ff
	ff		 lea	 ecx, DWORD PTR _szRQ$[ebp]
  00031	e9 00 00 00 00	 jmp	 ??1ILPCSTR133101@@QAE@XZ ; ILPCSTR133101::~ILPCSTR133101
__unwindfunclet$?GetMultiPointDrawingData@CMultiPointDownTool@@ABE?AVCMultiPointDrawingData@@XZ$5:
  00036	8d 8d bc fe ff
	ff		 lea	 ecx, DWORD PTR $T2[ebp]
  0003c	e9 00 00 00 00	 jmp	 ??1CElementCommonEnvironment@@QAE@XZ
__unwindfunclet$?GetMultiPointDrawingData@CMultiPointDownTool@@ABE?AVCMultiPointDrawingData@@XZ$6:
  00041	8d 8d 04 ff ff
	ff		 lea	 ecx, DWORD PTR $T3[ebp]
  00047	e9 00 00 00 00	 jmp	 ??1CElementCommonEnvironment@@QAE@XZ
  0004c	cc		 int	 3
  0004d	cc		 int	 3
  0004e	cc		 int	 3
  0004f	cc		 int	 3
  00050	cc		 int	 3
__ehhandler$?GetMultiPointDrawingData@CMultiPointDownTool@@ABE?AVCMultiPointDrawingData@@XZ:
  00051	90		 npad	 1
  00052	90		 npad	 1
  00053	8b 54 24 08	 mov	 edx, DWORD PTR [esp+8]
  00057	8d 42 0c	 lea	 eax, DWORD PTR [edx+12]
  0005a	8b 8a b8 fe ff
	ff		 mov	 ecx, DWORD PTR [edx-328]
  00060	33 c8		 xor	 ecx, eax
  00062	e8 00 00 00 00	 call	 @__security_check_cookie@4
  00067	8b 4a fc	 mov	 ecx, DWORD PTR [edx-4]
  0006a	33 c8		 xor	 ecx, eax
  0006c	e8 00 00 00 00	 call	 @__security_check_cookie@4
  00071	b8 00 00 00 00	 mov	 eax, OFFSET __ehfuncinfo$?GetMultiPointDrawingData@CMultiPointDownTool@@ABE?AVCMultiPointDrawingData@@XZ
  00076	e9 00 00 00 00	 jmp	 ___CxxFrameHandler3
text$x	ENDS
?GetMultiPointDrawingData@CMultiPointDownTool@@ABE?AVCMultiPointDrawingData@@XZ ENDP ; CMultiPointDownTool::GetMultiPointDrawingData
; Function compile flags: /Ogtp
; File D:\git\src\IBK\IBK_DRFN\ProjSrc\SrcChartEx\ChartAddIn\ChartAnalysisToolAddIn\AnalysisTool\PointTool.cpp
;	COMDAT ?IsEndPoint@CMultiPointDownTool@@ABE_NXZ
_TEXT	SEGMENT
?IsEndPoint@CMultiPointDownTool@@ABE_NXZ PROC		; CMultiPointDownTool::IsEndPoint, COMDAT
; _this$ = ecx

; 1059 : 	return (m_nPontsCount < 500);

  00000	81 b9 80 00 00
	00 f4 01 00 00	 cmp	 DWORD PTR [ecx+128], 500 ; 000001f4H
  0000a	0f 9c c0	 setl	 al

; 1060 : }

  0000d	c3		 ret	 0
?IsEndPoint@CMultiPointDownTool@@ABE_NXZ ENDP		; CMultiPointDownTool::IsEndPoint
_TEXT	ENDS
; Function compile flags: /Ogtp
; File D:\git\src\IBK\IBK_DRFN\ProjSrc\SrcChartEx\ChartAddIn\ChartAnalysisToolAddIn\AnalysisTool\PointTool.cpp
;	COMDAT ?MakeElement@CMultiPointDownTool@@MAEPAVCElement@@ABVCElementCommonEnvironment@@@Z
_TEXT	SEGMENT
_environment$ = 8					; size = 4
?MakeElement@CMultiPointDownTool@@MAEPAVCElement@@ABVCElementCommonEnvironment@@@Z PROC ; CMultiPointDownTool::MakeElement, COMDAT
; _this$ = ecx

; 1048 : {

  00000	55		 push	 ebp
  00001	8b ec		 mov	 ebp, esp

; 1049 : 	//if(!IsEndPoint())
; 1050 : 	//	return NULL;
; 1051 : 
; 1052 : 	return CElementFactory::Make(GetToolType(),m_nPontsCount,m_ptListPoints,environment);	

  00003	ff 75 08	 push	 DWORD PTR _environment$[ebp]
  00006	8d 81 88 00 00
	00		 lea	 eax, DWORD PTR [ecx+136]
  0000c	50		 push	 eax
  0000d	8b 01		 mov	 eax, DWORD PTR [ecx]
  0000f	ff b1 80 00 00
	00		 push	 DWORD PTR [ecx+128]
  00015	ff 50 24	 call	 DWORD PTR [eax+36]
  00018	50		 push	 eax
  00019	e8 00 00 00 00	 call	 ?Make@CElementFactory@@SAPAVCElement@@W4TOOLTYPE@CAnalysis@@HPBVCPoints@@ABVCElementCommonEnvironment@@@Z ; CElementFactory::Make
  0001e	83 c4 10	 add	 esp, 16			; 00000010H

; 1053 : }

  00021	5d		 pop	 ebp
  00022	c2 04 00	 ret	 4
?MakeElement@CMultiPointDownTool@@MAEPAVCElement@@ABVCElementCommonEnvironment@@@Z ENDP ; CMultiPointDownTool::MakeElement
_TEXT	ENDS
; Function compile flags: /Ogtp
; File D:\git\src\IBK\IBK_DRFN\ProjSrc\SrcChartEx\ChartAddIn\ChartAnalysisToolAddIn\AnalysisTool\PointTool.cpp
;	COMDAT ?IsMakeElement@CMultiPointDownTool@@MBE_NABVCPoint@@@Z
_TEXT	SEGMENT
___formal$ = 8						; size = 4
?IsMakeElement@CMultiPointDownTool@@MBE_NABVCPoint@@@Z PROC ; CMultiPointDownTool::IsMakeElement, COMDAT
; _this$ = ecx

; 1059 : 	return (m_nPontsCount < 500);

  00000	81 b9 80 00 00
	00 f4 01 00 00	 cmp	 DWORD PTR [ecx+128], 500 ; 000001f4H
  0000a	0f 9c c0	 setl	 al

; 1043 : 	return IsEndPoint();
; 1044 : }

  0000d	c2 04 00	 ret	 4
?IsMakeElement@CMultiPointDownTool@@MBE_NABVCPoint@@@Z ENDP ; CMultiPointDownTool::IsMakeElement
_TEXT	ENDS
; Function compile flags: /Ogtp
; File D:\git\src\IBK\IBK_DRFN\ProjSrc\SrcChartEx\ChartAddIn\ChartAnalysisToolAddIn\AnalysisTool\PointTool.cpp
;	COMDAT ?SavePoints@CMultiPointDownTool@@MAEXABVCPoints@@@Z
_TEXT	SEGMENT
_point$ = 8						; size = 4
?SavePoints@CMultiPointDownTool@@MAEXABVCPoints@@@Z PROC ; CMultiPointDownTool::SavePoints, COMDAT
; _this$ = ecx

; 1039 : }

  00000	c2 04 00	 ret	 4
?SavePoints@CMultiPointDownTool@@MAEXABVCPoints@@@Z ENDP ; CMultiPointDownTool::SavePoints
_TEXT	ENDS
; Function compile flags: /Ogtp
; File D:\git\src\IBK\IBK_DRFN\ProjSrc\SrcChartEx\ChartAddIn\ChartAnalysisToolAddIn\AnalysisTool\PointTool.cpp
;	COMDAT ?OnDraw@CMultiPointDownTool@@UAEXPAVCDC@@@Z
_TEXT	SEGMENT
$T2 = -20128						; size = 20112
__$ArrayPad$ = -16					; size = 4
__$EHRec$ = -12						; size = 12
_pDC$ = 8						; size = 4
?OnDraw@CMultiPointDownTool@@UAEXPAVCDC@@@Z PROC	; CMultiPointDownTool::OnDraw, COMDAT
; _this$ = ecx

; 1028 : {

  00000	55		 push	 ebp
  00001	8b ec		 mov	 ebp, esp
  00003	6a ff		 push	 -1
  00005	68 00 00 00 00	 push	 __ehhandler$?OnDraw@CMultiPointDownTool@@UAEXPAVCDC@@@Z
  0000a	64 a1 00 00 00
	00		 mov	 eax, DWORD PTR fs:0
  00010	50		 push	 eax
  00011	b8 94 4e 00 00	 mov	 eax, 20116		; 00004e94H
  00016	e8 00 00 00 00	 call	 __chkstk
  0001b	a1 00 00 00 00	 mov	 eax, DWORD PTR ___security_cookie
  00020	33 c5		 xor	 eax, ebp
  00022	89 45 f0	 mov	 DWORD PTR __$ArrayPad$[ebp], eax
  00025	56		 push	 esi
  00026	57		 push	 edi
  00027	50		 push	 eax
  00028	8d 45 f4	 lea	 eax, DWORD PTR __$EHRec$[ebp]
  0002b	64 a3 00 00 00
	00		 mov	 DWORD PTR fs:0, eax
  00031	8b f1		 mov	 esi, ecx

; 1029 : 	if(m_nPontsCount < 2)

  00033	83 be 80 00 00
	00 02		 cmp	 DWORD PTR [esi+128], 2
  0003a	8b 7d 08	 mov	 edi, DWORD PTR _pDC$[ebp]
  0003d	7c 68		 jl	 SHORT $LN6@OnDraw

; 1030 : 		return;
; 1031 : 
; 1032 : 	GetMultiPointDrawer().DrawTool(pDC, GetMultiPointDrawingData(), R2_NOT/*R2_COPYPEN*/);

  0003f	8d 85 60 b1 ff
	ff		 lea	 eax, DWORD PTR $T2[ebp]
  00045	50		 push	 eax
  00046	e8 00 00 00 00	 call	 ?GetMultiPointDrawingData@CMultiPointDownTool@@ABE?AVCMultiPointDrawingData@@XZ ; CMultiPointDownTool::GetMultiPointDrawingData
  0004b	6a 06		 push	 6
  0004d	50		 push	 eax
  0004e	8b 06		 mov	 eax, DWORD PTR [esi]
  00050	8b ce		 mov	 ecx, esi
  00052	57		 push	 edi
  00053	c7 45 fc 00 00
	00 00		 mov	 DWORD PTR __$EHRec$[ebp+8], 0
  0005a	ff 50 3c	 call	 DWORD PTR [eax+60]
  0005d	8b c8		 mov	 ecx, eax
  0005f	e8 00 00 00 00	 call	 ?DrawTool@CMultiPointDrawer@@QAEXPAVCDC@@ABVCMultiPointDrawingData@@H@Z ; CMultiPointDrawer::DrawTool
  00064	68 00 00 00 00	 push	 OFFSET ??1CPoints@@QAE@XZ
  00069	68 f4 01 00 00	 push	 500			; 000001f4H
  0006e	6a 28		 push	 40			; 00000028H
  00070	8d 85 d0 b1 ff
	ff		 lea	 eax, DWORD PTR $T2[ebp+112]
  00076	c7 45 fc 01 00
	00 00		 mov	 DWORD PTR __$EHRec$[ebp+8], 1
  0007d	50		 push	 eax
  0007e	e8 00 00 00 00	 call	 ??_M@YGXPAXIIP6EX0@Z@Z
  00083	8d 8d 80 b1 ff
	ff		 lea	 ecx, DWORD PTR $T2[ebp+32]
  00089	ff 15 00 00 00
	00		 call	 DWORD PTR __imp_??1?$CStringT@DV?$StrTraitMFC_DLL@DV?$ChTraitsCRT@D@ATL@@@@@ATL@@QAE@XZ
  0008f	8d 8d 7c b1 ff
	ff		 lea	 ecx, DWORD PTR $T2[ebp+28]
  00095	ff 15 00 00 00
	00		 call	 DWORD PTR __imp_??1?$CStringT@DV?$StrTraitMFC_DLL@DV?$ChTraitsCRT@D@ATL@@@@@ATL@@QAE@XZ
  0009b	8d 8d 78 b1 ff
	ff		 lea	 ecx, DWORD PTR $T2[ebp+24]
  000a1	ff 15 00 00 00
	00		 call	 DWORD PTR __imp_??1?$CStringT@DV?$StrTraitMFC_DLL@DV?$ChTraitsCRT@D@ATL@@@@@ATL@@QAE@XZ
$LN6@OnDraw:

; 1033 : }

  000a7	8b 4d f4	 mov	 ecx, DWORD PTR __$EHRec$[ebp]
  000aa	64 89 0d 00 00
	00 00		 mov	 DWORD PTR fs:0, ecx
  000b1	59		 pop	 ecx
  000b2	5f		 pop	 edi
  000b3	5e		 pop	 esi
  000b4	8b 4d f0	 mov	 ecx, DWORD PTR __$ArrayPad$[ebp]
  000b7	33 cd		 xor	 ecx, ebp
  000b9	e8 00 00 00 00	 call	 @__security_check_cookie@4
  000be	8b e5		 mov	 esp, ebp
  000c0	5d		 pop	 ebp
  000c1	c2 04 00	 ret	 4
_TEXT	ENDS
;	COMDAT text$x
text$x	SEGMENT
__unwindfunclet$?OnDraw@CMultiPointDownTool@@UAEXPAVCDC@@@Z$0:
  00000	8d 8d 60 b1 ff
	ff		 lea	 ecx, DWORD PTR $T2[ebp]
  00006	e9 00 00 00 00	 jmp	 ??1CMultiPointDrawingData@@QAE@XZ
  0000b	cc		 int	 3
  0000c	cc		 int	 3
  0000d	cc		 int	 3
  0000e	cc		 int	 3
  0000f	cc		 int	 3
__ehhandler$?OnDraw@CMultiPointDownTool@@UAEXPAVCDC@@@Z:
  00010	90		 npad	 1
  00011	90		 npad	 1
  00012	8b 54 24 08	 mov	 edx, DWORD PTR [esp+8]
  00016	8d 42 0c	 lea	 eax, DWORD PTR [edx+12]
  00019	8b 8a 60 b1 ff
	ff		 mov	 ecx, DWORD PTR [edx-20128]
  0001f	33 c8		 xor	 ecx, eax
  00021	e8 00 00 00 00	 call	 @__security_check_cookie@4
  00026	8b 4a fc	 mov	 ecx, DWORD PTR [edx-4]
  00029	33 c8		 xor	 ecx, eax
  0002b	e8 00 00 00 00	 call	 @__security_check_cookie@4
  00030	b8 00 00 00 00	 mov	 eax, OFFSET __ehfuncinfo$?OnDraw@CMultiPointDownTool@@UAEXPAVCDC@@@Z
  00035	e9 00 00 00 00	 jmp	 ___CxxFrameHandler3
text$x	ENDS
?OnDraw@CMultiPointDownTool@@UAEXPAVCDC@@@Z ENDP	; CMultiPointDownTool::OnDraw
; Function compile flags: /Ogtp
; File D:\git\src\IBK\IBK_DRFN\ProjSrc\SrcChartEx\ChartAddIn\ChartAnalysisToolAddIn\AnalysisTool\PointTool.cpp
;	COMDAT ?OnMouseMove@CMultiPointDownTool@@UAE_NPAVCDC@@ABVCPoint@@H@Z
_TEXT	SEGMENT
$T2 = -52						; size = 40
__$EHRec$ = -12						; size = 12
_pDC$ = 8						; size = 4
_point$ = 12						; size = 4
_nFlags$ = 16						; size = 4
?OnMouseMove@CMultiPointDownTool@@UAE_NPAVCDC@@ABVCPoint@@H@Z PROC ; CMultiPointDownTool::OnMouseMove, COMDAT
; _this$ = ecx

; 994  : {

  00000	55		 push	 ebp
  00001	8b ec		 mov	 ebp, esp
  00003	6a ff		 push	 -1
  00005	68 00 00 00 00	 push	 __ehhandler$?OnMouseMove@CMultiPointDownTool@@UAE_NPAVCDC@@ABVCPoint@@H@Z
  0000a	64 a1 00 00 00
	00		 mov	 eax, DWORD PTR fs:0
  00010	50		 push	 eax
  00011	83 ec 28	 sub	 esp, 40			; 00000028H
  00014	56		 push	 esi
  00015	57		 push	 edi
  00016	a1 00 00 00 00	 mov	 eax, DWORD PTR ___security_cookie
  0001b	33 c5		 xor	 eax, ebp
  0001d	50		 push	 eax
  0001e	8d 45 f4	 lea	 eax, DWORD PTR __$EHRec$[ebp]
  00021	64 a3 00 00 00
	00		 mov	 DWORD PTR fs:0, eax
  00027	8b f1		 mov	 esi, ecx

; 995  : 	if(nFlags != MK_LBUTTON)

  00029	83 7d 10 01	 cmp	 DWORD PTR _nFlags$[ebp], 1
  0002d	74 15		 je	 SHORT $LN2@OnMouseMov

; 996  : 		return false;

  0002f	32 c0		 xor	 al, al

; 1006 : }

  00031	8b 4d f4	 mov	 ecx, DWORD PTR __$EHRec$[ebp]
  00034	64 89 0d 00 00
	00 00		 mov	 DWORD PTR fs:0, ecx
  0003b	59		 pop	 ecx
  0003c	5f		 pop	 edi
  0003d	5e		 pop	 esi
  0003e	8b e5		 mov	 esp, ebp
  00040	5d		 pop	 ebp
  00041	c2 0c 00	 ret	 12			; 0000000cH
$LN2@OnMouseMov:

; 997  : 
; 998  : 	if(PointInDrawingRegion(point) && IsMakeElement(point))

  00044	8b 06		 mov	 eax, DWORD PTR [esi]
  00046	8b 7d 0c	 mov	 edi, DWORD PTR _point$[ebp]
  00049	57		 push	 edi
  0004a	8b 40 1c	 mov	 eax, DWORD PTR [eax+28]
  0004d	ff d0		 call	 eax
  0004f	84 c0		 test	 al, al
  00051	74 53		 je	 SHORT $LN3@OnMouseMov
  00053	8b 06		 mov	 eax, DWORD PTR [esi]
  00055	8b ce		 mov	 ecx, esi
  00057	57		 push	 edi
  00058	8b 40 30	 mov	 eax, DWORD PTR [eax+48]
  0005b	ff d0		 call	 eax
  0005d	84 c0		 test	 al, al
  0005f	74 45		 je	 SHORT $LN3@OnMouseMov

; 999  : 	{
; 1000 : 		m_ptListPoints[m_nPontsCount] = CTool::GetPointsAndSetDataType(point);

  00061	57		 push	 edi
  00062	8d 45 cc	 lea	 eax, DWORD PTR $T2[ebp]
  00065	8b ce		 mov	 ecx, esi
  00067	50		 push	 eax
  00068	e8 00 00 00 00	 call	 ?GetPointsAndSetDataType@CTool@@IAE?AVCPoints@@ABVCPoint@@@Z ; CTool::GetPointsAndSetDataType
  0006d	50		 push	 eax
  0006e	8b 86 80 00 00
	00		 mov	 eax, DWORD PTR [esi+128]
  00074	c7 45 fc 00 00
	00 00		 mov	 DWORD PTR __$EHRec$[ebp+8], 0
  0007b	8d 04 80	 lea	 eax, DWORD PTR [eax+eax*4]
  0007e	8d 40 11	 lea	 eax, DWORD PTR [eax+17]
  00081	8d 0c c6	 lea	 ecx, DWORD PTR [esi+eax*8]
  00084	e8 00 00 00 00	 call	 ??4CPoints@@QAEAAV0@ABV0@@Z ; CPoints::operator=
  00089	8d 4d e0	 lea	 ecx, DWORD PTR $T2[ebp+20]
  0008c	c7 45 fc ff ff
	ff ff		 mov	 DWORD PTR __$EHRec$[ebp+8], -1
  00093	ff 15 00 00 00
	00		 call	 DWORD PTR __imp_??1?$CStringT@DV?$StrTraitMFC_DLL@DV?$ChTraitsCRT@D@ATL@@@@@ATL@@QAE@XZ

; 1001 : 		m_nPontsCount++;

  00099	ff 86 80 00 00
	00		 inc	 DWORD PTR [esi+128]

; 1002 : 		CTool::Invalidate();	

  0009f	8b ce		 mov	 ecx, esi
  000a1	e8 00 00 00 00	 call	 ?Invalidate@CTool@@QAEXXZ ; CTool::Invalidate
$LN3@OnMouseMov:

; 1003 : 	}
; 1004 : 		
; 1005 : 	return true;

  000a6	b0 01		 mov	 al, 1

; 1006 : }

  000a8	8b 4d f4	 mov	 ecx, DWORD PTR __$EHRec$[ebp]
  000ab	64 89 0d 00 00
	00 00		 mov	 DWORD PTR fs:0, ecx
  000b2	59		 pop	 ecx
  000b3	5f		 pop	 edi
  000b4	5e		 pop	 esi
  000b5	8b e5		 mov	 esp, ebp
  000b7	5d		 pop	 ebp
  000b8	c2 0c 00	 ret	 12			; 0000000cH
_TEXT	ENDS
;	COMDAT text$x
text$x	SEGMENT
__unwindfunclet$?OnMouseMove@CMultiPointDownTool@@UAE_NPAVCDC@@ABVCPoint@@H@Z$0:
  00000	8d 4d cc	 lea	 ecx, DWORD PTR $T2[ebp]
  00003	e9 00 00 00 00	 jmp	 ??1CPoints@@QAE@XZ
  00008	cc		 int	 3
  00009	cc		 int	 3
  0000a	cc		 int	 3
  0000b	cc		 int	 3
  0000c	cc		 int	 3
__ehhandler$?OnMouseMove@CMultiPointDownTool@@UAE_NPAVCDC@@ABVCPoint@@H@Z:
  0000d	90		 npad	 1
  0000e	90		 npad	 1
  0000f	8b 54 24 08	 mov	 edx, DWORD PTR [esp+8]
  00013	8d 42 0c	 lea	 eax, DWORD PTR [edx+12]
  00016	8b 4a cc	 mov	 ecx, DWORD PTR [edx-52]
  00019	33 c8		 xor	 ecx, eax
  0001b	e8 00 00 00 00	 call	 @__security_check_cookie@4
  00020	b8 00 00 00 00	 mov	 eax, OFFSET __ehfuncinfo$?OnMouseMove@CMultiPointDownTool@@UAE_NPAVCDC@@ABVCPoint@@H@Z
  00025	e9 00 00 00 00	 jmp	 ___CxxFrameHandler3
text$x	ENDS
?OnMouseMove@CMultiPointDownTool@@UAE_NPAVCDC@@ABVCPoint@@H@Z ENDP ; CMultiPointDownTool::OnMouseMove
; Function compile flags: /Ogtp
; File D:\git\src\IBK\IBK_DRFN\ProjSrc\SrcChartEx\ChartAddIn\ChartAnalysisToolAddIn\AnalysisTool\PointTool.cpp
;	COMDAT ?OnLButtonUp@CMultiPointDownTool@@UAEXPAVCDC@@ABVCPoint@@@Z
_TEXT	SEGMENT
$T2 = -68						; size = 40
$T3 = -28						; size = 8
$T4 = -20						; size = 8
__$EHRec$ = -12						; size = 12
_pDC$ = 8						; size = 4
_point$ = 12						; size = 4
?OnLButtonUp@CMultiPointDownTool@@UAEXPAVCDC@@ABVCPoint@@@Z PROC ; CMultiPointDownTool::OnLButtonUp, COMDAT
; _this$ = ecx

; 1009 : {

  00000	55		 push	 ebp
  00001	8b ec		 mov	 ebp, esp
  00003	6a ff		 push	 -1
  00005	68 00 00 00 00	 push	 __ehhandler$?OnLButtonUp@CMultiPointDownTool@@UAEXPAVCDC@@ABVCPoint@@@Z
  0000a	64 a1 00 00 00
	00		 mov	 eax, DWORD PTR fs:0
  00010	50		 push	 eax
  00011	83 ec 38	 sub	 esp, 56			; 00000038H
  00014	56		 push	 esi
  00015	57		 push	 edi
  00016	a1 00 00 00 00	 mov	 eax, DWORD PTR ___security_cookie
  0001b	33 c5		 xor	 eax, ebp
  0001d	50		 push	 eax
  0001e	8d 45 f4	 lea	 eax, DWORD PTR __$EHRec$[ebp]
  00021	64 a3 00 00 00
	00		 mov	 DWORD PTR fs:0, eax
  00027	8b f1		 mov	 esi, ecx

; 1010 : 	if(PointInDrawingRegion(point))

  00029	8b 06		 mov	 eax, DWORD PTR [esi]
  0002b	8b 7d 0c	 mov	 edi, DWORD PTR _point$[ebp]
  0002e	57		 push	 edi
  0002f	8b 40 1c	 mov	 eax, DWORD PTR [eax+28]
  00032	ff d0		 call	 eax
  00034	84 c0		 test	 al, al
  00036	0f 84 8e 00 00
	00		 je	 $LN2@OnLButtonU

; 1011 : 	{
; 1012 : 		if(!IsMakeElement(point))

  0003c	8b 06		 mov	 eax, DWORD PTR [esi]
  0003e	8b ce		 mov	 ecx, esi
  00040	57		 push	 edi
  00041	8b 40 30	 mov	 eax, DWORD PTR [eax+48]
  00044	ff d0		 call	 eax
  00046	84 c0		 test	 al, al
  00048	75 22		 jne	 SHORT $LN3@OnLButtonU

; 1013 : 		{
; 1014 : 			CTool::MakeElement(m_ptListPoints[m_nPontsCount-1].GetDrawingPoint());

  0004a	8d 45 ec	 lea	 eax, DWORD PTR $T4[ebp]
  0004d	50		 push	 eax
  0004e	8b 86 80 00 00
	00		 mov	 eax, DWORD PTR [esi+128]
  00054	8d 04 80	 lea	 eax, DWORD PTR [eax+eax*4]
  00057	8d 40 0c	 lea	 eax, DWORD PTR [eax+12]
  0005a	8d 0c c6	 lea	 ecx, DWORD PTR [esi+eax*8]
  0005d	e8 00 00 00 00	 call	 ?GetDrawingPoint@CPoints@@QBE?AVCPoint@@XZ ; CPoints::GetDrawingPoint
  00062	50		 push	 eax
  00063	8b ce		 mov	 ecx, esi
  00065	e8 00 00 00 00	 call	 ?MakeElement@CTool@@IAEXABVCPoint@@@Z ; CTool::MakeElement

; 1015 : 			Initialize();
; 1016 : 			return;

  0006a	eb 5e		 jmp	 SHORT $LN2@OnLButtonU
$LN3@OnLButtonU:

; 1017 : 		}
; 1018 : 
; 1019 : 		m_ptListPoints[m_nPontsCount] = CTool::GetPoints(point);		

  0006c	57		 push	 edi
  0006d	8d 45 bc	 lea	 eax, DWORD PTR $T2[ebp]
  00070	8b ce		 mov	 ecx, esi
  00072	50		 push	 eax
  00073	e8 00 00 00 00	 call	 ?GetPoints@CTool@@IBE?AVCPoints@@ABVCPoint@@@Z ; CTool::GetPoints
  00078	50		 push	 eax
  00079	8b 86 80 00 00
	00		 mov	 eax, DWORD PTR [esi+128]
  0007f	c7 45 fc 00 00
	00 00		 mov	 DWORD PTR __$EHRec$[ebp+8], 0
  00086	8d 04 80	 lea	 eax, DWORD PTR [eax+eax*4]
  00089	8d 40 11	 lea	 eax, DWORD PTR [eax+17]
  0008c	8d 0c c6	 lea	 ecx, DWORD PTR [esi+eax*8]
  0008f	e8 00 00 00 00	 call	 ??4CPoints@@QAEAAV0@ABV0@@Z ; CPoints::operator=
  00094	8d 4d d0	 lea	 ecx, DWORD PTR $T2[ebp+20]
  00097	c7 45 fc ff ff
	ff ff		 mov	 DWORD PTR __$EHRec$[ebp+8], -1
  0009e	ff 15 00 00 00
	00		 call	 DWORD PTR __imp_??1?$CStringT@DV?$StrTraitMFC_DLL@DV?$ChTraitsCRT@D@ATL@@@@@ATL@@QAE@XZ

; 1020 : 		CTool::MakeElement(m_ptListPoints[m_nPontsCount].GetDrawingPoint());

  000a4	8d 45 e4	 lea	 eax, DWORD PTR $T3[ebp]
  000a7	50		 push	 eax
  000a8	8b 86 80 00 00
	00		 mov	 eax, DWORD PTR [esi+128]
  000ae	8d 04 80	 lea	 eax, DWORD PTR [eax+eax*4]
  000b1	8d 40 11	 lea	 eax, DWORD PTR [eax+17]
  000b4	8d 0c c6	 lea	 ecx, DWORD PTR [esi+eax*8]
  000b7	e8 00 00 00 00	 call	 ?GetDrawingPoint@CPoints@@QBE?AVCPoint@@XZ ; CPoints::GetDrawingPoint
  000bc	50		 push	 eax
  000bd	8b ce		 mov	 ecx, esi
  000bf	e8 00 00 00 00	 call	 ?MakeElement@CTool@@IAEXABVCPoint@@@Z ; CTool::MakeElement

; 1021 : 		m_nPontsCount++;

  000c4	ff 86 80 00 00
	00		 inc	 DWORD PTR [esi+128]
$LN2@OnLButtonU:

; 1022 : 	}
; 1023 : 	
; 1024 : 	Initialize();
; 1025 : }

  000ca	8b 06		 mov	 eax, DWORD PTR [esi]
  000cc	8b ce		 mov	 ecx, esi
  000ce	ff 10		 call	 DWORD PTR [eax]
  000d0	8b 4d f4	 mov	 ecx, DWORD PTR __$EHRec$[ebp]
  000d3	64 89 0d 00 00
	00 00		 mov	 DWORD PTR fs:0, ecx
  000da	59		 pop	 ecx
  000db	5f		 pop	 edi
  000dc	5e		 pop	 esi
  000dd	8b e5		 mov	 esp, ebp
  000df	5d		 pop	 ebp
  000e0	c2 08 00	 ret	 8
_TEXT	ENDS
;	COMDAT text$x
text$x	SEGMENT
__unwindfunclet$?OnLButtonUp@CMultiPointDownTool@@UAEXPAVCDC@@ABVCPoint@@@Z$0:
  00000	8d 4d bc	 lea	 ecx, DWORD PTR $T2[ebp]
  00003	e9 00 00 00 00	 jmp	 ??1CPoints@@QAE@XZ
  00008	cc		 int	 3
  00009	cc		 int	 3
  0000a	cc		 int	 3
  0000b	cc		 int	 3
  0000c	cc		 int	 3
__ehhandler$?OnLButtonUp@CMultiPointDownTool@@UAEXPAVCDC@@ABVCPoint@@@Z:
  0000d	90		 npad	 1
  0000e	90		 npad	 1
  0000f	8b 54 24 08	 mov	 edx, DWORD PTR [esp+8]
  00013	8d 42 0c	 lea	 eax, DWORD PTR [edx+12]
  00016	8b 4a bc	 mov	 ecx, DWORD PTR [edx-68]
  00019	33 c8		 xor	 ecx, eax
  0001b	e8 00 00 00 00	 call	 @__security_check_cookie@4
  00020	b8 00 00 00 00	 mov	 eax, OFFSET __ehfuncinfo$?OnLButtonUp@CMultiPointDownTool@@UAEXPAVCDC@@ABVCPoint@@@Z
  00025	e9 00 00 00 00	 jmp	 ___CxxFrameHandler3
text$x	ENDS
?OnLButtonUp@CMultiPointDownTool@@UAEXPAVCDC@@ABVCPoint@@@Z ENDP ; CMultiPointDownTool::OnLButtonUp
; Function compile flags: /Ogtp
; File D:\git\src\IBK\IBK_DRFN\ProjSrc\SrcChartEx\ChartAddIn\ChartAnalysisToolAddIn\AnalysisTool\PointTool.cpp
;	COMDAT ?OnLButtonDown@CMultiPointDownTool@@UAEPAVCElement@@PAVCDC@@ABVCPoint@@@Z
_TEXT	SEGMENT
$T2 = -60						; size = 40
$T3 = -20						; size = 8
__$EHRec$ = -12						; size = 12
_pDC$ = 8						; size = 4
_point$ = 12						; size = 4
?OnLButtonDown@CMultiPointDownTool@@UAEPAVCElement@@PAVCDC@@ABVCPoint@@@Z PROC ; CMultiPointDownTool::OnLButtonDown, COMDAT
; _this$ = ecx

; 983  : {

  00000	55		 push	 ebp
  00001	8b ec		 mov	 ebp, esp
  00003	6a ff		 push	 -1
  00005	68 00 00 00 00	 push	 __ehhandler$?OnLButtonDown@CMultiPointDownTool@@UAEPAVCElement@@PAVCDC@@ABVCPoint@@@Z
  0000a	64 a1 00 00 00
	00		 mov	 eax, DWORD PTR fs:0
  00010	50		 push	 eax
  00011	83 ec 30	 sub	 esp, 48			; 00000030H
  00014	56		 push	 esi
  00015	57		 push	 edi
  00016	a1 00 00 00 00	 mov	 eax, DWORD PTR ___security_cookie
  0001b	33 c5		 xor	 eax, ebp
  0001d	50		 push	 eax
  0001e	8d 45 f4	 lea	 eax, DWORD PTR __$EHRec$[ebp]
  00021	64 a3 00 00 00
	00		 mov	 DWORD PTR fs:0, eax
  00027	8b f9		 mov	 edi, ecx

; 984  : 	if(PointInDrawingRegion(point))

  00029	8b 07		 mov	 eax, DWORD PTR [edi]
  0002b	8b 75 0c	 mov	 esi, DWORD PTR _point$[ebp]
  0002e	56		 push	 esi
  0002f	8b 40 1c	 mov	 eax, DWORD PTR [eax+28]
  00032	ff d0		 call	 eax
  00034	84 c0		 test	 al, al
  00036	74 3e		 je	 SHORT $LN2@OnLButtonD

; 985  : 	{
; 986  : 		m_ptListPoints[m_nPontsCount] = CTool::GetPoints(point);

  00038	56		 push	 esi
  00039	8d 45 c4	 lea	 eax, DWORD PTR $T2[ebp]
  0003c	8b cf		 mov	 ecx, edi
  0003e	50		 push	 eax
  0003f	e8 00 00 00 00	 call	 ?GetPoints@CTool@@IBE?AVCPoints@@ABVCPoint@@@Z ; CTool::GetPoints
  00044	50		 push	 eax
  00045	8b 87 80 00 00
	00		 mov	 eax, DWORD PTR [edi+128]
  0004b	c7 45 fc 00 00
	00 00		 mov	 DWORD PTR __$EHRec$[ebp+8], 0
  00052	8d 04 80	 lea	 eax, DWORD PTR [eax+eax*4]
  00055	8d 40 11	 lea	 eax, DWORD PTR [eax+17]
  00058	8d 0c c7	 lea	 ecx, DWORD PTR [edi+eax*8]
  0005b	e8 00 00 00 00	 call	 ??4CPoints@@QAEAAV0@ABV0@@Z ; CPoints::operator=
  00060	8d 4d d8	 lea	 ecx, DWORD PTR $T2[ebp+20]
  00063	c7 45 fc ff ff
	ff ff		 mov	 DWORD PTR __$EHRec$[ebp+8], -1
  0006a	ff 15 00 00 00
	00		 call	 DWORD PTR __imp_??1?$CStringT@DV?$StrTraitMFC_DLL@DV?$ChTraitsCRT@D@ATL@@@@@ATL@@QAE@XZ

; 987  : 		m_nPontsCount++;

  00070	ff 87 80 00 00
	00		 inc	 DWORD PTR [edi+128]
$LN2@OnLButtonD:

; 988  : 	}
; 989  : 
; 990  : 	return CDownTool::OnLButtonDown(pDC, CTool::GetDrawingPointAndSetDataType(point));

  00076	56		 push	 esi
  00077	8d 45 ec	 lea	 eax, DWORD PTR $T3[ebp]
  0007a	8b cf		 mov	 ecx, edi
  0007c	50		 push	 eax
  0007d	e8 00 00 00 00	 call	 ?GetDrawingPointAndSetDataType@CTool@@IAE?AVCPoint@@ABV2@@Z ; CTool::GetDrawingPointAndSetDataType

; 391  : 	CTool::SetProcessStarting(true);

  00082	6a 01		 push	 1
  00084	8b cf		 mov	 ecx, edi

; 988  : 	}
; 989  : 
; 990  : 	return CDownTool::OnLButtonDown(pDC, CTool::GetDrawingPointAndSetDataType(point));

  00086	8b f0		 mov	 esi, eax

; 391  : 	CTool::SetProcessStarting(true);

  00088	e8 00 00 00 00	 call	 ?SetProcessStarting@CTool@@QAEX_N@Z ; CTool::SetProcessStarting

; 392  : 	CTool::SetDrawingRegions(point);

  0008d	56		 push	 esi
  0008e	8b cf		 mov	 ecx, edi
  00090	e8 00 00 00 00	 call	 ?SetDrawingRegions@CTool@@IAEXABVCPoint@@@Z ; CTool::SetDrawingRegions

; 393  : 	if(GetToolType() != CAnalysis::EN_ANALYSIS_DOWN_CROSS)

  00095	8b 07		 mov	 eax, DWORD PTR [edi]
  00097	8b cf		 mov	 ecx, edi
  00099	ff 50 24	 call	 DWORD PTR [eax+36]
  0009c	83 f8 02	 cmp	 eax, 2
  0009f	74 09		 je	 SHORT $LN14@OnLButtonD

; 394  : 		CTool::ChangeCursor(CToolEnumData::DRAW_PEN);

  000a1	6a 01		 push	 1
  000a3	8b cf		 mov	 ecx, edi
  000a5	e8 00 00 00 00	 call	 ?ChangeCursor@CTool@@IAEXW4DrawType@CToolEnumData@@@Z ; CTool::ChangeCursor
$LN14@OnLButtonD:

; 991  : }

  000aa	33 c0		 xor	 eax, eax
  000ac	8b 4d f4	 mov	 ecx, DWORD PTR __$EHRec$[ebp]
  000af	64 89 0d 00 00
	00 00		 mov	 DWORD PTR fs:0, ecx
  000b6	59		 pop	 ecx
  000b7	5f		 pop	 edi
  000b8	5e		 pop	 esi
  000b9	8b e5		 mov	 esp, ebp
  000bb	5d		 pop	 ebp
  000bc	c2 08 00	 ret	 8
_TEXT	ENDS
;	COMDAT text$x
text$x	SEGMENT
__unwindfunclet$?OnLButtonDown@CMultiPointDownTool@@UAEPAVCElement@@PAVCDC@@ABVCPoint@@@Z$0:
  00000	8d 4d c4	 lea	 ecx, DWORD PTR $T2[ebp]
  00003	e9 00 00 00 00	 jmp	 ??1CPoints@@QAE@XZ
  00008	cc		 int	 3
  00009	cc		 int	 3
  0000a	cc		 int	 3
  0000b	cc		 int	 3
  0000c	cc		 int	 3
__ehhandler$?OnLButtonDown@CMultiPointDownTool@@UAEPAVCElement@@PAVCDC@@ABVCPoint@@@Z:
  0000d	90		 npad	 1
  0000e	90		 npad	 1
  0000f	8b 54 24 08	 mov	 edx, DWORD PTR [esp+8]
  00013	8d 42 0c	 lea	 eax, DWORD PTR [edx+12]
  00016	8b 4a c4	 mov	 ecx, DWORD PTR [edx-60]
  00019	33 c8		 xor	 ecx, eax
  0001b	e8 00 00 00 00	 call	 @__security_check_cookie@4
  00020	b8 00 00 00 00	 mov	 eax, OFFSET __ehfuncinfo$?OnLButtonDown@CMultiPointDownTool@@UAEPAVCElement@@PAVCDC@@ABVCPoint@@@Z
  00025	e9 00 00 00 00	 jmp	 ___CxxFrameHandler3
text$x	ENDS
?OnLButtonDown@CMultiPointDownTool@@UAEPAVCElement@@PAVCDC@@ABVCPoint@@@Z ENDP ; CMultiPointDownTool::OnLButtonDown
; Function compile flags: /Ogtp
; File D:\git\src\IBK\IBK_DRFN\ProjSrc\SrcChartEx\ChartAddIn\ChartAnalysisToolAddIn\AnalysisTool\PointTool.cpp
;	COMDAT ?Initialize@CMultiPointDownTool@@UAEXXZ
_TEXT	SEGMENT
$T1 = -4						; size = 1
?Initialize@CMultiPointDownTool@@UAEXXZ PROC		; CMultiPointDownTool::Initialize, COMDAT
; _this$ = ecx

; 976  : {

  00000	55		 push	 ebp
  00001	8b ec		 mov	 ebp, esp
  00003	51		 push	 ecx
  00004	56		 push	 esi
  00005	8b f1		 mov	 esi, ecx

; 381  : 	CTool::Initialize();

  00007	e8 00 00 00 00	 call	 ?Initialize@CTool@@UAEXXZ ; CTool::Initialize

; 382  : 	if(GetToolType() == CAnalysis::EN_ANALYSIS_DOWN_CROSS)

  0000c	8b 06		 mov	 eax, DWORD PTR [esi]
  0000e	8b ce		 mov	 ecx, esi
  00010	ff 50 24	 call	 DWORD PTR [eax+36]
  00013	83 f8 02	 cmp	 eax, 2

; 977  : 	CDownTool::Initialize();
; 978  : 	m_nPontsCount = 0;	

  00016	8b ce		 mov	 ecx, esi

; 382  : 	if(GetToolType() == CAnalysis::EN_ANALYSIS_DOWN_CROSS)

  00018	0f 94 45 fc	 sete	 BYTE PTR $T1[ebp]

; 977  : 	CDownTool::Initialize();
; 978  : 	m_nPontsCount = 0;	

  0001c	ff 75 fc	 push	 DWORD PTR $T1[ebp]
  0001f	e8 00 00 00 00	 call	 ?SetProcessStarting@CTool@@QAEX_N@Z ; CTool::SetProcessStarting
  00024	c7 86 80 00 00
	00 00 00 00 00	 mov	 DWORD PTR [esi+128], 0
  0002e	5e		 pop	 esi

; 979  : }

  0002f	8b e5		 mov	 esp, ebp
  00031	5d		 pop	 ebp
  00032	c3		 ret	 0
?Initialize@CMultiPointDownTool@@UAEXXZ ENDP		; CMultiPointDownTool::Initialize
_TEXT	ENDS
; Function compile flags: /Ogtp
; File D:\git\src\IBK\IBK_DRFN\ProjSrc\SrcChartEx\ChartAddIn\ChartAnalysisToolAddIn\AnalysisTool\PointTool.cpp
; File C:\Program Files (x86)\Microsoft Visual Studio\2019\Community\VC\Tools\MSVC\14.29.30133\atlmfc\include\atltypes.h
; File D:\git\src\IBK\IBK_DRFN\ProjSrc\SrcChartEx\ChartAddIn\ChartAnalysisToolAddIn\AnalysisTool\PointTool.cpp
;	COMDAT ??0CMultiPointDownTool@@IAE@PAVCAnalysisData@@W4COORDINATETYPE@CAnalysis@@@Z
_TEXT	SEGMENT
_this$ = -16						; size = 4
__$EHRec$ = -12						; size = 12
_pAnalysisData$ = 8					; size = 4
_eCoordinateType$ = 12					; size = 4
??0CMultiPointDownTool@@IAE@PAVCAnalysisData@@W4COORDINATETYPE@CAnalysis@@@Z PROC ; CMultiPointDownTool::CMultiPointDownTool, COMDAT
; _this$ = ecx

; 968  : {

  00000	55		 push	 ebp
  00001	8b ec		 mov	 ebp, esp
  00003	6a ff		 push	 -1
  00005	68 00 00 00 00	 push	 __ehhandler$??0CMultiPointDownTool@@IAE@PAVCAnalysisData@@W4COORDINATETYPE@CAnalysis@@@Z
  0000a	64 a1 00 00 00
	00		 mov	 eax, DWORD PTR fs:0
  00010	50		 push	 eax
  00011	51		 push	 ecx
  00012	56		 push	 esi
  00013	a1 00 00 00 00	 mov	 eax, DWORD PTR ___security_cookie
  00018	33 c5		 xor	 eax, ebp
  0001a	50		 push	 eax
  0001b	8d 45 f4	 lea	 eax, DWORD PTR __$EHRec$[ebp]
  0001e	64 a3 00 00 00
	00		 mov	 DWORD PTR fs:0, eax
  00024	8b f1		 mov	 esi, ecx
  00026	89 75 f0	 mov	 DWORD PTR _this$[ebp], esi

; 371  : 	CTool(pAnalysisData, eCoordinateType)

  00029	ff 75 0c	 push	 DWORD PTR _eCoordinateType$[ebp]
  0002c	ff 75 08	 push	 DWORD PTR _pAnalysisData$[ebp]
  0002f	e8 00 00 00 00	 call	 ??0CTool@@IAE@PAVCAnalysisData@@W4COORDINATETYPE@CAnalysis@@@Z ; CTool::CTool

; 372  : {	

  00034	c7 06 00 00 00
	00		 mov	 DWORD PTR [esi], OFFSET ??_7CDownTool@@6B@

; 373  : 	CTool::Initialize();

  0003a	8b ce		 mov	 ecx, esi
  0003c	c7 45 fc 00 00
	00 00		 mov	 DWORD PTR __$EHRec$[ebp+8], 0
; File C:\Program Files (x86)\Microsoft Visual Studio\2019\Community\VC\Tools\MSVC\14.29.30133\atlmfc\include\atltypes.h

; 400  : 	x = 0;

  00043	c7 46 78 00 00
	00 00		 mov	 DWORD PTR [esi+120], 0

; 401  : 	y = 0;

  0004a	c7 46 7c 00 00
	00 00		 mov	 DWORD PTR [esi+124], 0
; File D:\git\src\IBK\IBK_DRFN\ProjSrc\SrcChartEx\ChartAddIn\ChartAnalysisToolAddIn\AnalysisTool\PointTool.cpp

; 373  : 	CTool::Initialize();

  00051	e8 00 00 00 00	 call	 ?Initialize@CTool@@UAEXXZ ; CTool::Initialize

; 374  : 	CTool::SetProcessStarting(false);

  00056	6a 00		 push	 0
  00058	8b ce		 mov	 ecx, esi
  0005a	e8 00 00 00 00	 call	 ?SetProcessStarting@CTool@@QAEX_N@Z ; CTool::SetProcessStarting

; 968  : {

  0005f	68 00 00 00 00	 push	 OFFSET ??1CPoints@@QAE@XZ
  00064	68 00 00 00 00	 push	 OFFSET ??0CPoints@@QAE@XZ ; CPoints::CPoints
  00069	68 f4 01 00 00	 push	 500			; 000001f4H
  0006e	6a 28		 push	 40			; 00000028H
  00070	8d 86 88 00 00
	00		 lea	 eax, DWORD PTR [esi+136]
  00076	c7 45 fc 01 00
	00 00		 mov	 DWORD PTR __$EHRec$[ebp+8], 1
  0007d	50		 push	 eax
  0007e	c7 06 00 00 00
	00		 mov	 DWORD PTR [esi], OFFSET ??_7CMultiPointDownTool@@6B@
  00084	e8 00 00 00 00	 call	 ??_L@YGXPAXIIP6EX0@Z1@Z

; 969  : 	CTool::Initialize();

  00089	8b ce		 mov	 ecx, esi
  0008b	c6 45 fc 02	 mov	 BYTE PTR __$EHRec$[ebp+8], 2
  0008f	e8 00 00 00 00	 call	 ?Initialize@CTool@@UAEXXZ ; CTool::Initialize

; 970  : 	CTool::SetProcessStarting(false);

  00094	6a 00		 push	 0
  00096	8b ce		 mov	 ecx, esi
  00098	e8 00 00 00 00	 call	 ?SetProcessStarting@CTool@@QAEX_N@Z ; CTool::SetProcessStarting

; 971  : }

  0009d	8b c6		 mov	 eax, esi
  0009f	8b 4d f4	 mov	 ecx, DWORD PTR __$EHRec$[ebp]
  000a2	64 89 0d 00 00
	00 00		 mov	 DWORD PTR fs:0, ecx
  000a9	59		 pop	 ecx
  000aa	5e		 pop	 esi
  000ab	8b e5		 mov	 esp, ebp
  000ad	5d		 pop	 ebp
  000ae	c2 08 00	 ret	 8
_TEXT	ENDS
;	COMDAT text$x
text$x	SEGMENT
__unwindfunclet$??0CMultiPointDownTool@@IAE@PAVCAnalysisData@@W4COORDINATETYPE@CAnalysis@@@Z$2:
  00000	8b 4d f0	 mov	 ecx, DWORD PTR _this$[ebp]
  00003	e9 00 00 00 00	 jmp	 ??1CTool@@QAE@XZ
__unwindfunclet$??0CMultiPointDownTool@@IAE@PAVCAnalysisData@@W4COORDINATETYPE@CAnalysis@@@Z$0:
  00008	8b 4d f0	 mov	 ecx, DWORD PTR _this$[ebp]
  0000b	e9 00 00 00 00	 jmp	 ??1CDownTool@@QAE@XZ
__unwindfunclet$??0CMultiPointDownTool@@IAE@PAVCAnalysisData@@W4COORDINATETYPE@CAnalysis@@@Z$1:
  00010	68 00 00 00 00	 push	 OFFSET ??1CPoints@@QAE@XZ
  00015	68 f4 01 00 00	 push	 500			; 000001f4H
  0001a	6a 28		 push	 40			; 00000028H
  0001c	8b 45 f0	 mov	 eax, DWORD PTR _this$[ebp]
  0001f	05 88 00 00 00	 add	 eax, 136		; 00000088H
  00024	50		 push	 eax
  00025	e8 00 00 00 00	 call	 ??_M@YGXPAXIIP6EX0@Z@Z
  0002a	c3		 ret	 0
  0002b	cc		 int	 3
  0002c	cc		 int	 3
  0002d	cc		 int	 3
  0002e	cc		 int	 3
  0002f	cc		 int	 3
__ehhandler$??0CMultiPointDownTool@@IAE@PAVCAnalysisData@@W4COORDINATETYPE@CAnalysis@@@Z:
  00030	90		 npad	 1
  00031	90		 npad	 1
  00032	8b 54 24 08	 mov	 edx, DWORD PTR [esp+8]
  00036	8d 42 0c	 lea	 eax, DWORD PTR [edx+12]
  00039	8b 4a f4	 mov	 ecx, DWORD PTR [edx-12]
  0003c	33 c8		 xor	 ecx, eax
  0003e	e8 00 00 00 00	 call	 @__security_check_cookie@4
  00043	b8 00 00 00 00	 mov	 eax, OFFSET __ehfuncinfo$??0CMultiPointDownTool@@IAE@PAVCAnalysisData@@W4COORDINATETYPE@CAnalysis@@@Z
  00048	e9 00 00 00 00	 jmp	 ___CxxFrameHandler3
text$x	ENDS
??0CMultiPointDownTool@@IAE@PAVCAnalysisData@@W4COORDINATETYPE@CAnalysis@@@Z ENDP ; CMultiPointDownTool::CMultiPointDownTool
; Function compile flags: /Ogtp
; File D:\git\src\IBK\IBK_DRFN\ProjSrc\SrcChartEx\ChartAddIn\ChartAnalysisToolAddIn\AnalysisTool\PointTool.cpp
; File D:\git\src\IBK\IBK_DRFN\ProjSrc\SrcChartEx\ChartAddIn\ChartAnalysisToolAddIn\Include_AddIn_133101\I133101\_IString.h
; File D:\git\src\IBK\IBK_DRFN\ProjSrc\SrcChartEx\ChartAddIn\ChartAnalysisToolAddIn\AnalysisTool\PointTool.cpp
; File D:\git\src\IBK\IBK_DRFN\ProjSrc\SrcChartEx\ChartAddIn\ChartAnalysisToolAddIn\Include_AddIn_133101\I133101\_IString.h
; File D:\git\src\IBK\IBK_DRFN\ProjSrc\SrcChartEx\ChartAddIn\ChartAnalysisToolAddIn\AnalysisTool\PointTool.cpp
; File D:\git\src\IBK\IBK_DRFN\ProjSrc\SrcChartEx\ChartAddIn\ChartAnalysisToolAddIn\Include_AddIn_133101\I133101\_IString.h
; File D:\git\src\IBK\IBK_DRFN\ProjSrc\SrcChartEx\ChartAddIn\ChartAnalysisToolAddIn\AnalysisTool\PointTool.cpp
; File D:\git\src\IBK\IBK_DRFN\ProjSrc\SrcChartEx\ChartAddIn\ChartAnalysisToolAddIn\Include_AddIn_133101\I133101\_IString.h
; File D:\git\src\IBK\IBK_DRFN\ProjSrc\SrcChartEx\ChartAddIn\ChartAnalysisToolAddIn\AnalysisTool\PointTool.cpp
;	COMDAT ?GetThreePointDrawingData@CThreePointDownTool@@ABE?AVCThreePointDrawingData@@XZ
_TEXT	SEGMENT
$T2 = -324						; size = 72
$T3 = -252						; size = 72
$T4 = -180						; size = 8
$T5 = -172						; size = 8
$T6 = -172						; size = 8
_szRQ$ = -164						; size = 8
___$ReturnUdt$GSCopy$1$ = -156				; size = 4
_this$GSCopy$1$ = -152					; size = 4
$T7 = -146						; size = 2
_szHelpMsg$ = -144					; size = 8
___$ReturnUdt$GSCopy$ = -136				; size = 4
_strPacketType$ = -136					; size = 4
_strDataType$ = -132					; size = 4
_calData$ = -128					; size = 96
$T8 = -32						; size = 16
__$ArrayPad$ = -16					; size = 4
__$EHRec$ = -12						; size = 12
___$ReturnUdt$ = 8					; size = 4
?GetThreePointDrawingData@CThreePointDownTool@@ABE?AVCThreePointDrawingData@@XZ PROC ; CThreePointDownTool::GetThreePointDrawingData, COMDAT
; _this$ = ecx

; 934  : {

  00000	55		 push	 ebp
  00001	8b ec		 mov	 ebp, esp
  00003	6a ff		 push	 -1
  00005	68 00 00 00 00	 push	 __ehhandler$?GetThreePointDrawingData@CThreePointDownTool@@ABE?AVCThreePointDrawingData@@XZ
  0000a	64 a1 00 00 00
	00		 mov	 eax, DWORD PTR fs:0
  00010	50		 push	 eax
  00011	81 ec 38 01 00
	00		 sub	 esp, 312		; 00000138H
  00017	a1 00 00 00 00	 mov	 eax, DWORD PTR ___security_cookie
  0001c	33 c5		 xor	 eax, ebp
  0001e	89 45 f0	 mov	 DWORD PTR __$ArrayPad$[ebp], eax
  00021	53		 push	 ebx
  00022	56		 push	 esi
  00023	57		 push	 edi
  00024	50		 push	 eax
  00025	8d 45 f4	 lea	 eax, DWORD PTR __$EHRec$[ebp]
  00028	64 a3 00 00 00
	00		 mov	 DWORD PTR fs:0, eax
  0002e	8b d9		 mov	 ebx, ecx
  00030	89 9d 68 ff ff
	ff		 mov	 DWORD PTR _this$GSCopy$1$[ebp], ebx
  00036	8b 45 08	 mov	 eax, DWORD PTR ___$ReturnUdt$[ebp]
  00039	89 85 78 ff ff
	ff		 mov	 DWORD PTR ___$ReturnUdt$GSCopy$[ebp], eax
  0003f	89 85 64 ff ff
	ff		 mov	 DWORD PTR ___$ReturnUdt$GSCopy$1$[ebp], eax
; File D:\git\src\IBK\IBK_DRFN\ProjSrc\SrcChartEx\ChartAddIn\ChartAnalysisToolAddIn\Include_AddIn_133101\I133101\_IString.h

; 39   : 		m_pIStrData = p_pIString;	// Do not AddRef(). Because It must be Return Value.

  00045	c7 85 74 ff ff
	ff 00 00 00 00	 mov	 DWORD PTR _szHelpMsg$[ebp+4], 0

; 41   : 		else m_szData = NULL;

  0004f	c7 85 70 ff ff
	ff 00 00 00 00	 mov	 DWORD PTR _szHelpMsg$[ebp], 0
; File D:\git\src\IBK\IBK_DRFN\ProjSrc\SrcChartEx\ChartAddIn\ChartAnalysisToolAddIn\AnalysisTool\PointTool.cpp

; 945  : 	CString strDataType, strPacketType;	

  00059	8d 8d 7c ff ff
	ff		 lea	 ecx, DWORD PTR _strDataType$[ebp]
  0005f	c7 45 fc 00 00
	00 00		 mov	 DWORD PTR __$EHRec$[ebp+8], 0
  00066	ff 15 00 00 00
	00		 call	 DWORD PTR __imp_??0?$CStringT@DV?$StrTraitMFC_DLL@DV?$ChTraitsCRT@D@ATL@@@@@ATL@@QAE@XZ
  0006c	8d 8d 78 ff ff
	ff		 lea	 ecx, DWORD PTR _strPacketType$[ebp]
  00072	ff 15 00 00 00
	00		 call	 DWORD PTR __imp_??0?$CStringT@DV?$StrTraitMFC_DLL@DV?$ChTraitsCRT@D@ATL@@@@@ATL@@QAE@XZ

; 946  : 	CCoordinateCalculatorData calData = GetCoordinateCalculatorData( m_points1.GetDrawingPoint());

  00078	8d 8d 54 ff ff
	ff		 lea	 ecx, DWORD PTR $T6[ebp]
  0007e	c6 45 fc 02	 mov	 BYTE PTR __$EHRec$[ebp+8], 2
  00082	51		 push	 ecx
  00083	8d 8b 88 00 00
	00		 lea	 ecx, DWORD PTR [ebx+136]
  00089	e8 00 00 00 00	 call	 ?GetDrawingPoint@CPoints@@QBE?AVCPoint@@XZ ; CPoints::GetDrawingPoint
  0008e	50		 push	 eax
  0008f	8d 45 80	 lea	 eax, DWORD PTR _calData$[ebp]
  00092	8b cb		 mov	 ecx, ebx
  00094	50		 push	 eax
  00095	e8 00 00 00 00	 call	 ?GetCoordinateCalculatorData@CTool@@QBE?AVCCoordinateCalculatorData@@ABVCPoint@@@Z ; CTool::GetCoordinateCalculatorData

; 947  : 	ILPCSTR szRQ = calData.m_pIChartOCX->GetCurrentRQ();

  0009a	8b 4d cc	 mov	 ecx, DWORD PTR _calData$[ebp+76]
  0009d	c6 45 fc 03	 mov	 BYTE PTR __$EHRec$[ebp+8], 3
  000a1	8b 01		 mov	 eax, DWORD PTR [ecx]
  000a3	ff 90 40 02 00
	00		 call	 DWORD PTR [eax+576]
; File D:\git\src\IBK\IBK_DRFN\ProjSrc\SrcChartEx\ChartAddIn\ChartAnalysisToolAddIn\Include_AddIn_133101\I133101\_IString.h

; 39   : 		m_pIStrData = p_pIString;	// Do not AddRef(). Because It must be Return Value.

  000a9	8b c8		 mov	 ecx, eax
  000ab	89 8d 60 ff ff
	ff		 mov	 DWORD PTR _szRQ$[ebp+4], ecx

; 40   : 		if( m_pIStrData) m_szData = m_pIStrData->GetData();

  000b1	85 c9		 test	 ecx, ecx
  000b3	74 09		 je	 SHORT $LN17@GetThreePo
  000b5	8b 01		 mov	 eax, DWORD PTR [ecx]
  000b7	ff 50 10	 call	 DWORD PTR [eax+16]
  000ba	8b d0		 mov	 edx, eax
  000bc	eb 02		 jmp	 SHORT $LN44@GetThreePo
$LN17@GetThreePo:

; 41   : 		else m_szData = NULL;

  000be	33 d2		 xor	 edx, edx
$LN44@GetThreePo:
; File D:\git\src\IBK\IBK_DRFN\ProjSrc\SrcChartEx\ChartAddIn\ChartAnalysisToolAddIn\AnalysisTool\PointTool.cpp

; 947  : 	ILPCSTR szRQ = calData.m_pIChartOCX->GetCurrentRQ();

  000c0	89 95 5c ff ff
	ff		 mov	 DWORD PTR _szRQ$[ebp], edx

; 948  : 	IPacketManager * pCurPacketManager = calData.m_pIPacketListManager->GetPacketManager(szRQ);

  000c6	8b 4d d0	 mov	 ecx, DWORD PTR _calData$[ebp+80]
  000c9	52		 push	 edx
  000ca	c6 45 fc 04	 mov	 BYTE PTR __$EHRec$[ebp+8], 4
  000ce	8b 01		 mov	 eax, DWORD PTR [ecx]
  000d0	ff 50 10	 call	 DWORD PTR [eax+16]
  000d3	8b f0		 mov	 esi, eax

; 949  : 	pCurPacketManager->GetHelpMessageItem("UD", szHelpMsg); strDataType = szHelpMsg;

  000d5	8d 8d 70 ff ff
	ff		 lea	 ecx, DWORD PTR _szHelpMsg$[ebp]
  000db	51		 push	 ecx
  000dc	68 00 00 00 00	 push	 OFFSET ??_C@_02PONMEALH@UD@
  000e1	8b ce		 mov	 ecx, esi
  000e3	8b 06		 mov	 eax, DWORD PTR [esi]
  000e5	ff 50 18	 call	 DWORD PTR [eax+24]
  000e8	ff b5 70 ff ff
	ff		 push	 DWORD PTR _szHelpMsg$[ebp]
  000ee	8d 8d 7c ff ff
	ff		 lea	 ecx, DWORD PTR _strDataType$[ebp]
  000f4	ff 15 00 00 00
	00		 call	 DWORD PTR __imp_??4?$CStringT@DV?$StrTraitMFC_DLL@DV?$ChTraitsCRT@D@ATL@@@@@ATL@@QAEAAV01@PBD@Z

; 950  : 	pCurPacketManager->GetHelpMessageItem("RDATET", szHelpMsg); strPacketType = szHelpMsg;

  000fa	8b 06		 mov	 eax, DWORD PTR [esi]
  000fc	8d 8d 70 ff ff
	ff		 lea	 ecx, DWORD PTR _szHelpMsg$[ebp]
  00102	51		 push	 ecx
  00103	68 00 00 00 00	 push	 OFFSET ??_C@_06MLGKKOBC@RDATET@
  00108	8b ce		 mov	 ecx, esi
  0010a	ff 50 18	 call	 DWORD PTR [eax+24]
  0010d	ff b5 70 ff ff
	ff		 push	 DWORD PTR _szHelpMsg$[ebp]
  00113	8d 8d 78 ff ff
	ff		 lea	 ecx, DWORD PTR _strPacketType$[ebp]
  00119	ff 15 00 00 00
	00		 call	 DWORD PTR __imp_??4?$CStringT@DV?$StrTraitMFC_DLL@DV?$ChTraitsCRT@D@ATL@@@@@ATL@@QAEAAV01@PBD@Z

; 951  : 	CScaleBaseData::HORZSCALEDRAWERTYPE eDateUnit = (CScaleBaseData::HORZSCALEDRAWERTYPE)atoi(strDataType);

  0011f	ff b5 7c ff ff
	ff		 push	 DWORD PTR _strDataType$[ebp]
  00125	ff 15 00 00 00
	00		 call	 DWORD PTR __imp__atoi
  0012b	83 c4 04	 add	 esp, 4
  0012e	8b f0		 mov	 esi, eax

; 953  : 	return CThreePointDrawingData(CTool::GetElementCommonEnvironment().GetDataType(), 

  00130	8d 85 bc fe ff
	ff		 lea	 eax, DWORD PTR $T2[ebp]
  00136	8b cb		 mov	 ecx, ebx
  00138	50		 push	 eax
  00139	e8 00 00 00 00	 call	 ?GetElementCommonEnvironment@CTool@@IBE?AVCElementCommonEnvironment@@XZ ; CTool::GetElementCommonEnvironment
  0013e	8b f8		 mov	 edi, eax
  00140	8d 85 04 ff ff
	ff		 lea	 eax, DWORD PTR $T3[ebp]
  00146	c6 45 fc 05	 mov	 BYTE PTR __$EHRec$[ebp+8], 5
  0014a	50		 push	 eax
  0014b	8b cb		 mov	 ecx, ebx
  0014d	e8 00 00 00 00	 call	 ?GetElementCommonEnvironment@CTool@@IBE?AVCElementCommonEnvironment@@XZ ; CTool::GetElementCommonEnvironment
  00152	8b d8		 mov	 ebx, eax
  00154	56		 push	 esi
  00155	8b b5 68 ff ff
	ff		 mov	 esi, DWORD PTR _this$GSCopy$1$[ebp]
  0015b	c6 45 fc 06	 mov	 BYTE PTR __$EHRec$[ebp+8], 6
  0015f	8d 86 d8 00 00
	00		 lea	 eax, DWORD PTR [esi+216]
  00165	50		 push	 eax
  00166	8d 86 b0 00 00
	00		 lea	 eax, DWORD PTR [esi+176]
  0016c	50		 push	 eax
  0016d	8d 8e 88 00 00
	00		 lea	 ecx, DWORD PTR [esi+136]
  00173	51		 push	 ecx
  00174	ff b6 80 00 00
	00		 push	 DWORD PTR [esi+128]
  0017a	8d 85 54 ff ff
	ff		 lea	 eax, DWORD PTR $T5[ebp]
  00180	50		 push	 eax
  00181	e8 00 00 00 00	 call	 ?GetDrawingPoint@CPoints@@QBE?AVCPoint@@XZ ; CPoints::GetDrawingPoint
  00186	50		 push	 eax
  00187	8d 85 6e ff ff
	ff		 lea	 eax, DWORD PTR $T7[ebp]
  0018d	8b ce		 mov	 ecx, esi
  0018f	50		 push	 eax
  00190	e8 00 00 00 00	 call	 ?GetVertScaleType@CTool@@IBE?AVCVertScaleType@@ABVCPoint@@@Z ; CTool::GetVertScaleType
  00195	50		 push	 eax
  00196	8d 85 4c ff ff
	ff		 lea	 eax, DWORD PTR $T4[ebp]
  0019c	8b ce		 mov	 ecx, esi
  0019e	50		 push	 eax
  0019f	e8 00 00 00 00	 call	 ?GetDisplayAttributes@CTool@@IBE?AVCDisplayAttributes@@XZ ; CTool::GetDisplayAttributes
  001a4	50		 push	 eax
  001a5	8d 45 e0	 lea	 eax, DWORD PTR $T8[ebp]
  001a8	8b ce		 mov	 ecx, esi
  001aa	50		 push	 eax
  001ab	e8 00 00 00 00	 call	 ?GetDrawingRegions@CTool@@IBEABVCDrawingRegions@@XZ ; CTool::GetDrawingRegions
  001b0	8b c8		 mov	 ecx, eax
  001b2	e8 00 00 00 00	 call	 ?GetCurrentFullGraphRegion@CDrawingRegions@@QBE?AVCRect@@XZ ; CDrawingRegions::GetCurrentFullGraphRegion
  001b7	50		 push	 eax
  001b8	8b cf		 mov	 ecx, edi
  001ba	e8 00 00 00 00	 call	 ?GetLineExt@CElementCommonEnvironment@@QAEAAVCLineExtEnvironment@@XZ ; CElementCommonEnvironment::GetLineExt
  001bf	50		 push	 eax
  001c0	8b 06		 mov	 eax, DWORD PTR [esi]
  001c2	8b ce		 mov	 ecx, esi
  001c4	ff 50 2c	 call	 DWORD PTR [eax+44]
  001c7	50		 push	 eax
  001c8	8b cb		 mov	 ecx, ebx
  001ca	e8 00 00 00 00	 call	 ?GetDataType@CElementCommonEnvironment@@QAEAAVCDataTypeEnvironment@@XZ ; CElementCommonEnvironment::GetDataType
  001cf	8b b5 64 ff ff
	ff		 mov	 esi, DWORD PTR ___$ReturnUdt$GSCopy$1$[ebp]
  001d5	8b ce		 mov	 ecx, esi
  001d7	50		 push	 eax
  001d8	e8 00 00 00 00	 call	 ??0CThreePointDrawingData@@QAE@ABVCDataTypeEnvironment@@PAVCTextPosition@@PAVCLineExtEnvironment@@ABVCRect@@ABVCDisplayAttributes@@ABVCVertScaleType@@HABVCPoints@@66W4HORZSCALEDRAWERTYPE@CScaleBaseData@@@Z ; CThreePointDrawingData::CThreePointDrawingData
  001dd	8d 8d 3c ff ff
	ff		 lea	 ecx, DWORD PTR $T3[ebp+56]
  001e3	ff 15 00 00 00
	00		 call	 DWORD PTR __imp_??1?$CStringT@DV?$StrTraitMFC_DLL@DV?$ChTraitsCRT@D@ATL@@@@@ATL@@QAE@XZ
  001e9	8d 8d 38 ff ff
	ff		 lea	 ecx, DWORD PTR $T3[ebp+52]
  001ef	ff 15 00 00 00
	00		 call	 DWORD PTR __imp_??1?$CStringT@DV?$StrTraitMFC_DLL@DV?$ChTraitsCRT@D@ATL@@@@@ATL@@QAE@XZ
  001f5	8d 8d 34 ff ff
	ff		 lea	 ecx, DWORD PTR $T3[ebp+48]
  001fb	ff 15 00 00 00
	00		 call	 DWORD PTR __imp_??1?$CStringT@DV?$StrTraitMFC_DLL@DV?$ChTraitsCRT@D@ATL@@@@@ATL@@QAE@XZ
  00201	8d 8d f4 fe ff
	ff		 lea	 ecx, DWORD PTR $T2[ebp+56]
  00207	ff 15 00 00 00
	00		 call	 DWORD PTR __imp_??1?$CStringT@DV?$StrTraitMFC_DLL@DV?$ChTraitsCRT@D@ATL@@@@@ATL@@QAE@XZ
  0020d	8d 8d f0 fe ff
	ff		 lea	 ecx, DWORD PTR $T2[ebp+52]
  00213	ff 15 00 00 00
	00		 call	 DWORD PTR __imp_??1?$CStringT@DV?$StrTraitMFC_DLL@DV?$ChTraitsCRT@D@ATL@@@@@ATL@@QAE@XZ
  00219	8d 8d ec fe ff
	ff		 lea	 ecx, DWORD PTR $T2[ebp+48]
  0021f	ff 15 00 00 00
	00		 call	 DWORD PTR __imp_??1?$CStringT@DV?$StrTraitMFC_DLL@DV?$ChTraitsCRT@D@ATL@@@@@ATL@@QAE@XZ
; File D:\git\src\IBK\IBK_DRFN\ProjSrc\SrcChartEx\ChartAddIn\ChartAnalysisToolAddIn\Include_AddIn_133101\I133101\_IString.h

; 45   : 		if( m_pIStrData)

  00225	8b 8d 60 ff ff
	ff		 mov	 ecx, DWORD PTR _szRQ$[ebp+4]
  0022b	c6 45 fc 07	 mov	 BYTE PTR __$EHRec$[ebp+8], 7
  0022f	85 c9		 test	 ecx, ecx
  00231	74 06		 je	 SHORT $LN35@GetThreePo

; 46   : 		{
; 47   : 			m_pIStrData->Release();

  00233	8b 01		 mov	 eax, DWORD PTR [ecx]
  00235	51		 push	 ecx
  00236	ff 50 08	 call	 DWORD PTR [eax+8]
$LN35@GetThreePo:
; File D:\git\src\IBK\IBK_DRFN\ProjSrc\SrcChartEx\ChartAddIn\ChartAnalysisToolAddIn\AnalysisTool\PointTool.cpp

; 953  : 	return CThreePointDrawingData(CTool::GetElementCommonEnvironment().GetDataType(), 

  00239	8d 4d 80	 lea	 ecx, DWORD PTR _calData$[ebp]
  0023c	e8 00 00 00 00	 call	 ??1CCoordinateCalculatorData@@QAE@XZ ; CCoordinateCalculatorData::~CCoordinateCalculatorData
  00241	8d 8d 78 ff ff
	ff		 lea	 ecx, DWORD PTR _strPacketType$[ebp]
  00247	ff 15 00 00 00
	00		 call	 DWORD PTR __imp_??1?$CStringT@DV?$StrTraitMFC_DLL@DV?$ChTraitsCRT@D@ATL@@@@@ATL@@QAE@XZ
  0024d	8d 8d 7c ff ff
	ff		 lea	 ecx, DWORD PTR _strDataType$[ebp]
  00253	ff 15 00 00 00
	00		 call	 DWORD PTR __imp_??1?$CStringT@DV?$StrTraitMFC_DLL@DV?$ChTraitsCRT@D@ATL@@@@@ATL@@QAE@XZ
; File D:\git\src\IBK\IBK_DRFN\ProjSrc\SrcChartEx\ChartAddIn\ChartAnalysisToolAddIn\Include_AddIn_133101\I133101\_IString.h

; 45   : 		if( m_pIStrData)

  00259	8b 95 74 ff ff
	ff		 mov	 edx, DWORD PTR _szHelpMsg$[ebp+4]
  0025f	c7 45 fc 08 00
	00 00		 mov	 DWORD PTR __$EHRec$[ebp+8], 8
  00266	85 d2		 test	 edx, edx
  00268	74 06		 je	 SHORT $LN42@GetThreePo

; 46   : 		{
; 47   : 			m_pIStrData->Release();

  0026a	8b 0a		 mov	 ecx, DWORD PTR [edx]
  0026c	52		 push	 edx
  0026d	ff 51 08	 call	 DWORD PTR [ecx+8]
$LN42@GetThreePo:
; File D:\git\src\IBK\IBK_DRFN\ProjSrc\SrcChartEx\ChartAddIn\ChartAnalysisToolAddIn\AnalysisTool\PointTool.cpp

; 961  : }

  00270	8b c6		 mov	 eax, esi
  00272	8b 4d f4	 mov	 ecx, DWORD PTR __$EHRec$[ebp]
  00275	64 89 0d 00 00
	00 00		 mov	 DWORD PTR fs:0, ecx
  0027c	59		 pop	 ecx
  0027d	5f		 pop	 edi
  0027e	5e		 pop	 esi
  0027f	5b		 pop	 ebx
  00280	8b 4d f0	 mov	 ecx, DWORD PTR __$ArrayPad$[ebp]
  00283	33 cd		 xor	 ecx, ebp
  00285	e8 00 00 00 00	 call	 @__security_check_cookie@4
  0028a	8b e5		 mov	 esp, ebp
  0028c	5d		 pop	 ebp
  0028d	c2 04 00	 ret	 4
_TEXT	ENDS
;	COMDAT text$x
text$x	SEGMENT
__unwindfunclet$?GetThreePointDrawingData@CThreePointDownTool@@ABE?AVCThreePointDrawingData@@XZ$0:
  00000	8d 8d 70 ff ff
	ff		 lea	 ecx, DWORD PTR _szHelpMsg$[ebp]
  00006	e9 00 00 00 00	 jmp	 ??1ILPCSTR133101@@QAE@XZ ; ILPCSTR133101::~ILPCSTR133101
__unwindfunclet$?GetThreePointDrawingData@CThreePointDownTool@@ABE?AVCThreePointDrawingData@@XZ$1:
  0000b	8d 8d 7c ff ff
	ff		 lea	 ecx, DWORD PTR _strDataType$[ebp]
  00011	ff 25 00 00 00
	00		 jmp	 DWORD PTR __imp_??1?$CStringT@DV?$StrTraitMFC_DLL@DV?$ChTraitsCRT@D@ATL@@@@@ATL@@QAE@XZ
__unwindfunclet$?GetThreePointDrawingData@CThreePointDownTool@@ABE?AVCThreePointDrawingData@@XZ$2:
  00017	8d 8d 78 ff ff
	ff		 lea	 ecx, DWORD PTR _strPacketType$[ebp]
  0001d	ff 25 00 00 00
	00		 jmp	 DWORD PTR __imp_??1?$CStringT@DV?$StrTraitMFC_DLL@DV?$ChTraitsCRT@D@ATL@@@@@ATL@@QAE@XZ
__unwindfunclet$?GetThreePointDrawingData@CThreePointDownTool@@ABE?AVCThreePointDrawingData@@XZ$3:
  00023	8d 4d 80	 lea	 ecx, DWORD PTR _calData$[ebp]
  00026	e9 00 00 00 00	 jmp	 ??1CCoordinateCalculatorData@@QAE@XZ ; CCoordinateCalculatorData::~CCoordinateCalculatorData
__unwindfunclet$?GetThreePointDrawingData@CThreePointDownTool@@ABE?AVCThreePointDrawingData@@XZ$4:
  0002b	8d 8d 5c ff ff
	ff		 lea	 ecx, DWORD PTR _szRQ$[ebp]
  00031	e9 00 00 00 00	 jmp	 ??1ILPCSTR133101@@QAE@XZ ; ILPCSTR133101::~ILPCSTR133101
__unwindfunclet$?GetThreePointDrawingData@CThreePointDownTool@@ABE?AVCThreePointDrawingData@@XZ$5:
  00036	8d 8d bc fe ff
	ff		 lea	 ecx, DWORD PTR $T2[ebp]
  0003c	e9 00 00 00 00	 jmp	 ??1CElementCommonEnvironment@@QAE@XZ
__unwindfunclet$?GetThreePointDrawingData@CThreePointDownTool@@ABE?AVCThreePointDrawingData@@XZ$6:
  00041	8d 8d 04 ff ff
	ff		 lea	 ecx, DWORD PTR $T3[ebp]
  00047	e9 00 00 00 00	 jmp	 ??1CElementCommonEnvironment@@QAE@XZ
  0004c	cc		 int	 3
  0004d	cc		 int	 3
  0004e	cc		 int	 3
  0004f	cc		 int	 3
  00050	cc		 int	 3
__ehhandler$?GetThreePointDrawingData@CThreePointDownTool@@ABE?AVCThreePointDrawingData@@XZ:
  00051	90		 npad	 1
  00052	90		 npad	 1
  00053	8b 54 24 08	 mov	 edx, DWORD PTR [esp+8]
  00057	8d 42 0c	 lea	 eax, DWORD PTR [edx+12]
  0005a	8b 8a b8 fe ff
	ff		 mov	 ecx, DWORD PTR [edx-328]
  00060	33 c8		 xor	 ecx, eax
  00062	e8 00 00 00 00	 call	 @__security_check_cookie@4
  00067	8b 4a fc	 mov	 ecx, DWORD PTR [edx-4]
  0006a	33 c8		 xor	 ecx, eax
  0006c	e8 00 00 00 00	 call	 @__security_check_cookie@4
  00071	b8 00 00 00 00	 mov	 eax, OFFSET __ehfuncinfo$?GetThreePointDrawingData@CThreePointDownTool@@ABE?AVCThreePointDrawingData@@XZ
  00076	e9 00 00 00 00	 jmp	 ___CxxFrameHandler3
text$x	ENDS
?GetThreePointDrawingData@CThreePointDownTool@@ABE?AVCThreePointDrawingData@@XZ ENDP ; CThreePointDownTool::GetThreePointDrawingData
; Function compile flags: /Ogtp
; File D:\git\src\IBK\IBK_DRFN\ProjSrc\SrcChartEx\ChartAddIn\ChartAnalysisToolAddIn\AnalysisTool\PointTool.cpp
;	COMDAT ?IsEndPoint@CThreePointDownTool@@ABE_NXZ
_TEXT	SEGMENT
?IsEndPoint@CThreePointDownTool@@ABE_NXZ PROC		; CThreePointDownTool::IsEndPoint, COMDAT
; _this$ = ecx

; 929  : 	return (m_nPointCount == 3);

  00000	83 b9 80 00 00
	00 03		 cmp	 DWORD PTR [ecx+128], 3
  00007	0f 94 c0	 sete	 al

; 930  : }

  0000a	c3		 ret	 0
?IsEndPoint@CThreePointDownTool@@ABE_NXZ ENDP		; CThreePointDownTool::IsEndPoint
_TEXT	ENDS
; Function compile flags: /Ogtp
; File D:\git\src\IBK\IBK_DRFN\ProjSrc\SrcChartEx\ChartAddIn\ChartAnalysisToolAddIn\AnalysisTool\PointTool.cpp
;	COMDAT ?MakeElement@CThreePointDownTool@@MAEPAVCElement@@ABVCElementCommonEnvironment@@@Z
_TEXT	SEGMENT
$T2 = -112						; size = 32
$T3 = -80						; size = 32
$T4 = -48						; size = 32
_this$1$ = -16						; size = 4
__$EHRec$ = -12						; size = 12
_environment$ = 8					; size = 4
?MakeElement@CThreePointDownTool@@MAEPAVCElement@@ABVCElementCommonEnvironment@@@Z PROC ; CThreePointDownTool::MakeElement, COMDAT
; _this$ = ecx

; 916  : {

  00000	55		 push	 ebp
  00001	8b ec		 mov	 ebp, esp
  00003	6a ff		 push	 -1
  00005	68 00 00 00 00	 push	 __ehhandler$?MakeElement@CThreePointDownTool@@MAEPAVCElement@@ABVCElementCommonEnvironment@@@Z
  0000a	64 a1 00 00 00
	00		 mov	 eax, DWORD PTR fs:0
  00010	50		 push	 eax
  00011	83 ec 64	 sub	 esp, 100		; 00000064H
  00014	53		 push	 ebx
  00015	56		 push	 esi
  00016	57		 push	 edi
  00017	a1 00 00 00 00	 mov	 eax, DWORD PTR ___security_cookie
  0001c	33 c5		 xor	 eax, ebp
  0001e	50		 push	 eax
  0001f	8d 45 f4	 lea	 eax, DWORD PTR __$EHRec$[ebp]
  00022	64 a3 00 00 00
	00		 mov	 DWORD PTR fs:0, eax
  00028	8b f1		 mov	 esi, ecx
  0002a	89 75 f0	 mov	 DWORD PTR _this$1$[ebp], esi

; 929  : 	return (m_nPointCount == 3);

  0002d	83 be 80 00 00
	00 03		 cmp	 DWORD PTR [esi+128], 3

; 917  : 	if(!IsEndPoint())

  00034	74 16		 je	 SHORT $LN2@MakeElemen

; 918  : 		return NULL;

  00036	33 c0		 xor	 eax, eax

; 921  : 		m_points1.GetSavingPoint(), m_points2.GetSavingPoint(), m_points3.GetSavingPoint(), 
; 922  : 		GetTextPosition(), environment);
; 923  : }

  00038	8b 4d f4	 mov	 ecx, DWORD PTR __$EHRec$[ebp]
  0003b	64 89 0d 00 00
	00 00		 mov	 DWORD PTR fs:0, ecx
  00042	59		 pop	 ecx
  00043	5f		 pop	 edi
  00044	5e		 pop	 esi
  00045	5b		 pop	 ebx
  00046	8b e5		 mov	 esp, ebp
  00048	5d		 pop	 ebp
  00049	c2 04 00	 ret	 4
$LN2@MakeElemen:

; 919  : 
; 920  : 	return CElementFactory::Make(GetToolType(), 

  0004c	8d 45 90	 lea	 eax, DWORD PTR $T2[ebp]
  0004f	50		 push	 eax
  00050	8d 8e d8 00 00
	00		 lea	 ecx, DWORD PTR [esi+216]
  00056	e8 00 00 00 00	 call	 ?GetSavingPoint@CPoints@@QBE?AVCCoordinate@@XZ ; CPoints::GetSavingPoint
  0005b	8b d8		 mov	 ebx, eax
  0005d	8d 45 b0	 lea	 eax, DWORD PTR $T3[ebp]
  00060	c7 45 fc 00 00
	00 00		 mov	 DWORD PTR __$EHRec$[ebp+8], 0
  00067	50		 push	 eax
  00068	8d 8e b0 00 00
	00		 lea	 ecx, DWORD PTR [esi+176]
  0006e	e8 00 00 00 00	 call	 ?GetSavingPoint@CPoints@@QBE?AVCCoordinate@@XZ ; CPoints::GetSavingPoint
  00073	8b f8		 mov	 edi, eax
  00075	8d 45 d0	 lea	 eax, DWORD PTR $T4[ebp]
  00078	c6 45 fc 01	 mov	 BYTE PTR __$EHRec$[ebp+8], 1
  0007c	50		 push	 eax
  0007d	8d 8e 88 00 00
	00		 lea	 ecx, DWORD PTR [esi+136]
  00083	e8 00 00 00 00	 call	 ?GetSavingPoint@CPoints@@QBE?AVCCoordinate@@XZ ; CPoints::GetSavingPoint
  00088	8b f0		 mov	 esi, eax
  0008a	8b 45 f0	 mov	 eax, DWORD PTR _this$1$[ebp]
  0008d	8b c8		 mov	 ecx, eax
  0008f	ff 75 08	 push	 DWORD PTR _environment$[ebp]
  00092	c6 45 fc 02	 mov	 BYTE PTR __$EHRec$[ebp+8], 2
  00096	8b 10		 mov	 edx, DWORD PTR [eax]
  00098	ff 52 28	 call	 DWORD PTR [edx+40]
  0009b	8b 4d f0	 mov	 ecx, DWORD PTR _this$1$[ebp]
  0009e	50		 push	 eax
  0009f	53		 push	 ebx
  000a0	57		 push	 edi
  000a1	8b 01		 mov	 eax, DWORD PTR [ecx]
  000a3	56		 push	 esi
  000a4	ff 50 24	 call	 DWORD PTR [eax+36]
  000a7	50		 push	 eax
  000a8	e8 00 00 00 00	 call	 ?Make@CElementFactory@@SAPAVCElement@@W4TOOLTYPE@CAnalysis@@ABVCCoordinate@@11PBVCTextPosition@@ABVCElementCommonEnvironment@@@Z ; CElementFactory::Make
  000ad	83 c4 18	 add	 esp, 24			; 00000018H
  000b0	8d 4d e4	 lea	 ecx, DWORD PTR $T4[ebp+20]
  000b3	8b f0		 mov	 esi, eax
  000b5	ff 15 00 00 00
	00		 call	 DWORD PTR __imp_??1?$CStringT@DV?$StrTraitMFC_DLL@DV?$ChTraitsCRT@D@ATL@@@@@ATL@@QAE@XZ
  000bb	8d 4d c4	 lea	 ecx, DWORD PTR $T3[ebp+20]
  000be	ff 15 00 00 00
	00		 call	 DWORD PTR __imp_??1?$CStringT@DV?$StrTraitMFC_DLL@DV?$ChTraitsCRT@D@ATL@@@@@ATL@@QAE@XZ
  000c4	8d 4d a4	 lea	 ecx, DWORD PTR $T2[ebp+20]
  000c7	ff 15 00 00 00
	00		 call	 DWORD PTR __imp_??1?$CStringT@DV?$StrTraitMFC_DLL@DV?$ChTraitsCRT@D@ATL@@@@@ATL@@QAE@XZ
  000cd	8b c6		 mov	 eax, esi

; 921  : 		m_points1.GetSavingPoint(), m_points2.GetSavingPoint(), m_points3.GetSavingPoint(), 
; 922  : 		GetTextPosition(), environment);
; 923  : }

  000cf	8b 4d f4	 mov	 ecx, DWORD PTR __$EHRec$[ebp]
  000d2	64 89 0d 00 00
	00 00		 mov	 DWORD PTR fs:0, ecx
  000d9	59		 pop	 ecx
  000da	5f		 pop	 edi
  000db	5e		 pop	 esi
  000dc	5b		 pop	 ebx
  000dd	8b e5		 mov	 esp, ebp
  000df	5d		 pop	 ebp
  000e0	c2 04 00	 ret	 4
_TEXT	ENDS
;	COMDAT text$x
text$x	SEGMENT
__unwindfunclet$?MakeElement@CThreePointDownTool@@MAEPAVCElement@@ABVCElementCommonEnvironment@@@Z$0:
  00000	8d 4d 90	 lea	 ecx, DWORD PTR $T2[ebp]
  00003	e9 00 00 00 00	 jmp	 ??1CCoordinate@@QAE@XZ
__unwindfunclet$?MakeElement@CThreePointDownTool@@MAEPAVCElement@@ABVCElementCommonEnvironment@@@Z$1:
  00008	8d 4d b0	 lea	 ecx, DWORD PTR $T3[ebp]
  0000b	e9 00 00 00 00	 jmp	 ??1CCoordinate@@QAE@XZ
__unwindfunclet$?MakeElement@CThreePointDownTool@@MAEPAVCElement@@ABVCElementCommonEnvironment@@@Z$2:
  00010	8d 4d d0	 lea	 ecx, DWORD PTR $T4[ebp]
  00013	e9 00 00 00 00	 jmp	 ??1CCoordinate@@QAE@XZ
  00018	cc		 int	 3
  00019	cc		 int	 3
  0001a	cc		 int	 3
  0001b	cc		 int	 3
  0001c	cc		 int	 3
__ehhandler$?MakeElement@CThreePointDownTool@@MAEPAVCElement@@ABVCElementCommonEnvironment@@@Z:
  0001d	90		 npad	 1
  0001e	90		 npad	 1
  0001f	8b 54 24 08	 mov	 edx, DWORD PTR [esp+8]
  00023	8d 42 0c	 lea	 eax, DWORD PTR [edx+12]
  00026	8b 4a 8c	 mov	 ecx, DWORD PTR [edx-116]
  00029	33 c8		 xor	 ecx, eax
  0002b	e8 00 00 00 00	 call	 @__security_check_cookie@4
  00030	b8 00 00 00 00	 mov	 eax, OFFSET __ehfuncinfo$?MakeElement@CThreePointDownTool@@MAEPAVCElement@@ABVCElementCommonEnvironment@@@Z
  00035	e9 00 00 00 00	 jmp	 ___CxxFrameHandler3
text$x	ENDS
?MakeElement@CThreePointDownTool@@MAEPAVCElement@@ABVCElementCommonEnvironment@@@Z ENDP ; CThreePointDownTool::MakeElement
; Function compile flags: /Ogtp
; File D:\git\src\IBK\IBK_DRFN\ProjSrc\SrcChartEx\ChartAddIn\ChartAnalysisToolAddIn\AnalysisTool\PointTool.cpp
;	COMDAT ?IsMakeElement@CThreePointDownTool@@MBE_NABVCPoint@@@Z
_TEXT	SEGMENT
___formal$ = 8						; size = 4
?IsMakeElement@CThreePointDownTool@@MBE_NABVCPoint@@@Z PROC ; CThreePointDownTool::IsMakeElement, COMDAT
; _this$ = ecx

; 929  : 	return (m_nPointCount == 3);

  00000	83 b9 80 00 00
	00 03		 cmp	 DWORD PTR [ecx+128], 3
  00007	0f 94 c0	 sete	 al

; 911  : 	return IsEndPoint();
; 912  : }

  0000a	c2 04 00	 ret	 4
?IsMakeElement@CThreePointDownTool@@MBE_NABVCPoint@@@Z ENDP ; CThreePointDownTool::IsMakeElement
_TEXT	ENDS
; Function compile flags: /Ogtp
; File D:\git\src\IBK\IBK_DRFN\ProjSrc\SrcChartEx\ChartAddIn\ChartAnalysisToolAddIn\AnalysisTool\PointTool.cpp
;	COMDAT ?SavePoints@CThreePointDownTool@@MAEXABVCPoints@@@Z
_TEXT	SEGMENT
_points$ = 8						; size = 4
?SavePoints@CThreePointDownTool@@MAEXABVCPoints@@@Z PROC ; CThreePointDownTool::SavePoints, COMDAT
; _this$ = ecx

; 896  : {

  00000	55		 push	 ebp
  00001	8b ec		 mov	 ebp, esp
  00003	56		 push	 esi
  00004	8b f1		 mov	 esi, ecx

; 897  : 	if(m_nPointCount == 0)

  00006	8b 86 80 00 00
	00		 mov	 eax, DWORD PTR [esi+128]
  0000c	85 c0		 test	 eax, eax
  0000e	75 07		 jne	 SHORT $LN2@SavePoints

; 898  : 		m_points1 = points;

  00010	b8 88 00 00 00	 mov	 eax, 136		; 00000088H
  00015	eb 16		 jmp	 SHORT $LN7@SavePoints
$LN2@SavePoints:

; 899  : 	else if(m_nPointCount == 1)

  00017	83 f8 01	 cmp	 eax, 1
  0001a	75 07		 jne	 SHORT $LN4@SavePoints

; 900  : 		m_points2 = points;

  0001c	b8 b0 00 00 00	 mov	 eax, 176		; 000000b0H
  00021	eb 0a		 jmp	 SHORT $LN7@SavePoints
$LN4@SavePoints:

; 901  : 	else if(m_nPointCount == 2)

  00023	83 f8 02	 cmp	 eax, 2
  00026	75 16		 jne	 SHORT $LN6@SavePoints

; 902  : 		m_points3 = points;

  00028	b8 d8 00 00 00	 mov	 eax, 216		; 000000d8H
$LN7@SavePoints:

; 903  : 	else
; 904  : 		return;
; 905  : 
; 906  : 	m_nPointCount++;

  0002d	ff 75 08	 push	 DWORD PTR _points$[ebp]
  00030	8d 0c 30	 lea	 ecx, DWORD PTR [eax+esi]
  00033	e8 00 00 00 00	 call	 ??4CPoints@@QAEAAV0@ABV0@@Z ; CPoints::operator=
  00038	ff 86 80 00 00
	00		 inc	 DWORD PTR [esi+128]
$LN6@SavePoints:
  0003e	5e		 pop	 esi

; 907  : }

  0003f	5d		 pop	 ebp
  00040	c2 04 00	 ret	 4
?SavePoints@CThreePointDownTool@@MAEXABVCPoints@@@Z ENDP ; CThreePointDownTool::SavePoints
_TEXT	ENDS
; Function compile flags: /Ogtp
; File D:\git\src\IBK\IBK_DRFN\ProjSrc\SrcChartEx\ChartAddIn\ChartAnalysisToolAddIn\AnalysisTool\PointTool.cpp
;	COMDAT ?OnDraw@CThreePointDownTool@@UAEXPAVCDC@@@Z
_TEXT	SEGMENT
$T2 = -248						; size = 232
__$ArrayPad$ = -16					; size = 4
__$EHRec$ = -12						; size = 12
_pDC$ = 8						; size = 4
?OnDraw@CThreePointDownTool@@UAEXPAVCDC@@@Z PROC	; CThreePointDownTool::OnDraw, COMDAT
; _this$ = ecx

; 886  : {

  00000	55		 push	 ebp
  00001	8b ec		 mov	 ebp, esp
  00003	6a ff		 push	 -1
  00005	68 00 00 00 00	 push	 __ehhandler$?OnDraw@CThreePointDownTool@@UAEXPAVCDC@@@Z
  0000a	64 a1 00 00 00
	00		 mov	 eax, DWORD PTR fs:0
  00010	50		 push	 eax
  00011	81 ec ec 00 00
	00		 sub	 esp, 236		; 000000ecH
  00017	a1 00 00 00 00	 mov	 eax, DWORD PTR ___security_cookie
  0001c	33 c5		 xor	 eax, ebp
  0001e	89 45 f0	 mov	 DWORD PTR __$ArrayPad$[ebp], eax
  00021	56		 push	 esi
  00022	57		 push	 edi
  00023	50		 push	 eax
  00024	8d 45 f4	 lea	 eax, DWORD PTR __$EHRec$[ebp]
  00027	64 a3 00 00 00
	00		 mov	 DWORD PTR fs:0, eax
  0002d	8b f1		 mov	 esi, ecx

; 887  : 	if(m_nPointCount <= 0)

  0002f	83 be 80 00 00
	00 00		 cmp	 DWORD PTR [esi+128], 0
  00036	8b 7d 08	 mov	 edi, DWORD PTR _pDC$[ebp]
  00039	7e 64		 jle	 SHORT $LN30@OnDraw

; 888  : 		return;
; 889  : 
; 890  : 	GetThreePointDrawer().DrawTool(pDC, GetThreePointDrawingData(), R2_NOT/*R2_COPYPEN*/);

  0003b	8d 85 08 ff ff
	ff		 lea	 eax, DWORD PTR $T2[ebp]
  00041	50		 push	 eax
  00042	e8 00 00 00 00	 call	 ?GetThreePointDrawingData@CThreePointDownTool@@ABE?AVCThreePointDrawingData@@XZ ; CThreePointDownTool::GetThreePointDrawingData
  00047	6a 06		 push	 6
  00049	50		 push	 eax
  0004a	8b 06		 mov	 eax, DWORD PTR [esi]
  0004c	8b ce		 mov	 ecx, esi
  0004e	57		 push	 edi
  0004f	c7 45 fc 00 00
	00 00		 mov	 DWORD PTR __$EHRec$[ebp+8], 0
  00056	ff 50 3c	 call	 DWORD PTR [eax+60]
  00059	8b c8		 mov	 ecx, eax
  0005b	e8 00 00 00 00	 call	 ?DrawTool@CThreePointDrawer@@QAEXPAVCDC@@ABVCThreePointDrawingData@@H@Z ; CThreePointDrawer::DrawTool
  00060	8d 4d dc	 lea	 ecx, DWORD PTR $T2[ebp+212]
  00063	ff 15 00 00 00
	00		 call	 DWORD PTR __imp_??1?$CStringT@DV?$StrTraitMFC_DLL@DV?$ChTraitsCRT@D@ATL@@@@@ATL@@QAE@XZ
  00069	8d 4d b4	 lea	 ecx, DWORD PTR $T2[ebp+172]
  0006c	ff 15 00 00 00
	00		 call	 DWORD PTR __imp_??1?$CStringT@DV?$StrTraitMFC_DLL@DV?$ChTraitsCRT@D@ATL@@@@@ATL@@QAE@XZ
  00072	8d 4d 8c	 lea	 ecx, DWORD PTR $T2[ebp+132]
  00075	ff 15 00 00 00
	00		 call	 DWORD PTR __imp_??1?$CStringT@DV?$StrTraitMFC_DLL@DV?$ChTraitsCRT@D@ATL@@@@@ATL@@QAE@XZ
  0007b	8d 8d 28 ff ff
	ff		 lea	 ecx, DWORD PTR $T2[ebp+32]
  00081	ff 15 00 00 00
	00		 call	 DWORD PTR __imp_??1?$CStringT@DV?$StrTraitMFC_DLL@DV?$ChTraitsCRT@D@ATL@@@@@ATL@@QAE@XZ
  00087	8d 8d 24 ff ff
	ff		 lea	 ecx, DWORD PTR $T2[ebp+28]
  0008d	ff 15 00 00 00
	00		 call	 DWORD PTR __imp_??1?$CStringT@DV?$StrTraitMFC_DLL@DV?$ChTraitsCRT@D@ATL@@@@@ATL@@QAE@XZ
  00093	8d 8d 20 ff ff
	ff		 lea	 ecx, DWORD PTR $T2[ebp+24]
  00099	ff 15 00 00 00
	00		 call	 DWORD PTR __imp_??1?$CStringT@DV?$StrTraitMFC_DLL@DV?$ChTraitsCRT@D@ATL@@@@@ATL@@QAE@XZ
$LN30@OnDraw:

; 891  : }

  0009f	8b 4d f4	 mov	 ecx, DWORD PTR __$EHRec$[ebp]
  000a2	64 89 0d 00 00
	00 00		 mov	 DWORD PTR fs:0, ecx
  000a9	59		 pop	 ecx
  000aa	5f		 pop	 edi
  000ab	5e		 pop	 esi
  000ac	8b 4d f0	 mov	 ecx, DWORD PTR __$ArrayPad$[ebp]
  000af	33 cd		 xor	 ecx, ebp
  000b1	e8 00 00 00 00	 call	 @__security_check_cookie@4
  000b6	8b e5		 mov	 esp, ebp
  000b8	5d		 pop	 ebp
  000b9	c2 04 00	 ret	 4
_TEXT	ENDS
;	COMDAT text$x
text$x	SEGMENT
__unwindfunclet$?OnDraw@CThreePointDownTool@@UAEXPAVCDC@@@Z$0:
  00000	8d 8d 08 ff ff
	ff		 lea	 ecx, DWORD PTR $T2[ebp]
  00006	e9 00 00 00 00	 jmp	 ??1CThreePointDrawingData@@QAE@XZ
  0000b	cc		 int	 3
  0000c	cc		 int	 3
  0000d	cc		 int	 3
  0000e	cc		 int	 3
  0000f	cc		 int	 3
__ehhandler$?OnDraw@CThreePointDownTool@@UAEXPAVCDC@@@Z:
  00010	90		 npad	 1
  00011	90		 npad	 1
  00012	8b 54 24 08	 mov	 edx, DWORD PTR [esp+8]
  00016	8d 42 0c	 lea	 eax, DWORD PTR [edx+12]
  00019	8b 8a 08 ff ff
	ff		 mov	 ecx, DWORD PTR [edx-248]
  0001f	33 c8		 xor	 ecx, eax
  00021	e8 00 00 00 00	 call	 @__security_check_cookie@4
  00026	8b 4a fc	 mov	 ecx, DWORD PTR [edx-4]
  00029	33 c8		 xor	 ecx, eax
  0002b	e8 00 00 00 00	 call	 @__security_check_cookie@4
  00030	b8 00 00 00 00	 mov	 eax, OFFSET __ehfuncinfo$?OnDraw@CThreePointDownTool@@UAEXPAVCDC@@@Z
  00035	e9 00 00 00 00	 jmp	 ___CxxFrameHandler3
text$x	ENDS
?OnDraw@CThreePointDownTool@@UAEXPAVCDC@@@Z ENDP	; CThreePointDownTool::OnDraw
; Function compile flags: /Ogtp
; File D:\git\src\IBK\IBK_DRFN\ProjSrc\SrcChartEx\ChartAddIn\ChartAnalysisToolAddIn\AnalysisTool\PointTool.cpp
; File D:\git\src\IBK\IBK_DRFN\ProjSrc\SrcChartEx\ChartAddIn\ChartAnalysisToolAddIn\Include_Chart\Dll_Load\IMetaTable.h
; File C:\Program Files (x86)\Microsoft Visual Studio\2019\Community\VC\Tools\MSVC\14.29.30133\atlmfc\include\afxwin1.inl
; File D:\git\src\IBK\IBK_DRFN\ProjSrc\SrcChartEx\ChartAddIn\ChartAnalysisToolAddIn\Include_Chart\Dll_Load\IMetaTable.h
; File C:\Program Files (x86)\Microsoft Visual Studio\2019\Community\VC\Tools\MSVC\14.29.30133\atlmfc\include\afxwin1.inl
; File D:\git\src\IBK\IBK_DRFN\ProjSrc\SrcChartEx\ChartAddIn\ChartAnalysisToolAddIn\AnalysisTool\PointTool.cpp
; File D:\git\src\IBK\IBK_DRFN\ProjSrc\SrcChartEx\ChartAddIn\ChartAnalysisToolAddIn\Include_Chart\Dll_Load\IMetaTable.h
; File C:\Program Files (x86)\Microsoft Visual Studio\2019\Community\VC\Tools\MSVC\14.29.30133\atlmfc\include\afxwin1.inl
; File D:\git\src\IBK\IBK_DRFN\ProjSrc\SrcChartEx\ChartAddIn\ChartAnalysisToolAddIn\AnalysisTool\PointTool.cpp
;	COMDAT ?OnLButtonUp@CThreePointDownTool@@UAEXPAVCDC@@ABVCPoint@@@Z
_TEXT	SEGMENT
_dlg$2 = -420						; size = 328
_points$3 = -92						; size = 40
$T4 = -52						; size = 32
$T5 = -52						; size = 32
$T6 = -52						; size = 32
$T7 = -20						; size = 8
$T8 = -20						; size = 8
$T9 = -20						; size = 8
$T10 = -20						; size = 8
__$EHRec$ = -12						; size = 12
_pDC$ = 8						; size = 4
___mlrs__$11 = 12					; size = 4
_point$ = 12						; size = 4
?OnLButtonUp@CThreePointDownTool@@UAEXPAVCDC@@ABVCPoint@@@Z PROC ; CThreePointDownTool::OnLButtonUp, COMDAT
; _this$ = ecx

; 857  : {

  00000	55		 push	 ebp
  00001	8b ec		 mov	 ebp, esp
  00003	6a ff		 push	 -1
  00005	68 00 00 00 00	 push	 __ehhandler$?OnLButtonUp@CThreePointDownTool@@UAEXPAVCDC@@ABVCPoint@@@Z
  0000a	64 a1 00 00 00
	00		 mov	 eax, DWORD PTR fs:0
  00010	50		 push	 eax
  00011	81 ec 98 01 00
	00		 sub	 esp, 408		; 00000198H
  00017	53		 push	 ebx
  00018	56		 push	 esi
  00019	57		 push	 edi
  0001a	a1 00 00 00 00	 mov	 eax, DWORD PTR ___security_cookie
  0001f	33 c5		 xor	 eax, ebp
  00021	50		 push	 eax
  00022	8d 45 f4	 lea	 eax, DWORD PTR __$EHRec$[ebp]
  00025	64 a3 00 00 00
	00		 mov	 DWORD PTR fs:0, eax
  0002b	8b f9		 mov	 edi, ecx

; 858  : 	if(PointInDrawingRegion(point)){		

  0002d	8b 07		 mov	 eax, DWORD PTR [edi]
  0002f	8b 75 0c	 mov	 esi, DWORD PTR _point$[ebp]
  00032	56		 push	 esi
  00033	8b 40 1c	 mov	 eax, DWORD PTR [eax+28]
  00036	ff d0		 call	 eax
  00038	84 c0		 test	 al, al
  0003a	0f 84 16 02 00
	00		 je	 $LN51@OnLButtonU

; 859  : 		CPoints points = CTool::GetPoints(point);

  00040	56		 push	 esi
  00041	8d 45 a4	 lea	 eax, DWORD PTR _points$3[ebp]
  00044	8b cf		 mov	 ecx, edi
  00046	50		 push	 eax
  00047	e8 00 00 00 00	 call	 ?GetPoints@CTool@@IBE?AVCPoints@@ABVCPoint@@@Z ; CTool::GetPoints

; 860  : 		SavePoints(points);

  0004c	8b 07		 mov	 eax, DWORD PTR [edi]
  0004e	8d 4d a4	 lea	 ecx, DWORD PTR _points$3[ebp]
  00051	51		 push	 ecx
  00052	8b cf		 mov	 ecx, edi
  00054	c7 45 fc 00 00
	00 00		 mov	 DWORD PTR __$EHRec$[ebp+8], 0
  0005b	ff 50 20	 call	 DWORD PTR [eax+32]

; 861  : 		if(!IsMakeElement(point))

  0005e	8b 07		 mov	 eax, DWORD PTR [edi]
  00060	8b cf		 mov	 ecx, edi
  00062	56		 push	 esi
  00063	8b 40 30	 mov	 eax, DWORD PTR [eax+48]
  00066	ff d0		 call	 eax
  00068	84 c0		 test	 al, al
  0006a	75 1d		 jne	 SHORT $LN3@OnLButtonU
  0006c	8d 4d b8	 lea	 ecx, DWORD PTR _points$3[ebp+20]
  0006f	ff 15 00 00 00
	00		 call	 DWORD PTR __imp_??1?$CStringT@DV?$StrTraitMFC_DLL@DV?$ChTraitsCRT@D@ATL@@@@@ATL@@QAE@XZ

; 883  : }

  00075	8b 4d f4	 mov	 ecx, DWORD PTR __$EHRec$[ebp]
  00078	64 89 0d 00 00
	00 00		 mov	 DWORD PTR fs:0, ecx
  0007f	59		 pop	 ecx
  00080	5f		 pop	 edi
  00081	5e		 pop	 esi
  00082	5b		 pop	 ebx
  00083	8b e5		 mov	 esp, ebp
  00085	5d		 pop	 ebp
  00086	c2 08 00	 ret	 8
$LN3@OnLButtonU:

; 862  : 			return;
; 863  : 
; 864  : 		if( GetToolType() == CAnalysis::EN_ANALYSIS_ADJUST_RATIO)

  00089	8b 07		 mov	 eax, DWORD PTR [edi]
  0008b	8b cf		 mov	 ecx, edi
  0008d	ff 50 24	 call	 DWORD PTR [eax+36]
  00090	83 f8 20	 cmp	 eax, 32			; 00000020H
  00093	0f 85 99 01 00
	00		 jne	 $LN4@OnLButtonU

; 865  : 		{
; 866  : 			//  
; 867  : 			CTool::Invalidate();	

  00099	8b cf		 mov	 ecx, edi
  0009b	e8 00 00 00 00	 call	 ?Invalidate@CTool@@QAEXXZ ; CTool::Invalidate

; 868  : 			
; 869  : 			ML_SET_LANGUAGE_RES();

  000a0	e8 00 00 00 00	 call	 ?AfxGetStaticModuleState@@YGPAVAFX_MODULE_STATE@@XZ ; AfxGetStaticModuleState
  000a5	8b 5f 70	 mov	 ebx, DWORD PTR [edi+112]
  000a8	8b 70 08	 mov	 esi, DWORD PTR [eax+8]
; File D:\git\src\IBK\IBK_DRFN\ProjSrc\SrcChartEx\ChartAddIn\ChartAnalysisToolAddIn\Include_Chart\Dll_Load\IMetaTable.h

; 938  : 	DECLARE_FUNCTION2(	LoadResourceDLL,				HMODULE, AfxGetStaticModuleState()->m_hCurrentInstanceHandle, HWND, HMODULE);

  000ab	a1 04 00 00 00	 mov	 eax, DWORD PTR ?g_iMetaTable@@3VIMetaTable@@A+4
  000b0	85 c0		 test	 eax, eax
  000b2	74 4b		 je	 SHORT $LN22@OnLButtonU
  000b4	b9 80 0d 00 00	 mov	 ecx, 3456		; 00000d80H
  000b9	66 3b 0d 94 00
	00 00		 cmp	 cx, WORD PTR ?g_iMetaTable@@3VIMetaTable@@A+148
  000c0	74 29		 je	 SHORT $LN53@OnLButtonU
  000c2	68 00 00 00 00	 push	 OFFSET ??_C@_0BA@ENJOCHIO@LoadResourceDLL@
  000c7	50		 push	 eax
  000c8	c7 05 90 00 00
	00 00 00 00 00	 mov	 DWORD PTR ?g_iMetaTable@@3VIMetaTable@@A+144, 0
  000d2	ff 15 00 00 00
	00		 call	 DWORD PTR __imp__GetProcAddress@8
  000d8	b9 80 0d 00 00	 mov	 ecx, 3456		; 00000d80H
  000dd	a3 90 00 00 00	 mov	 DWORD PTR ?g_iMetaTable@@3VIMetaTable@@A+144, eax
  000e2	66 89 0d 94 00
	00 00		 mov	 WORD PTR ?g_iMetaTable@@3VIMetaTable@@A+148, cx
  000e9	eb 05		 jmp	 SHORT $LN21@OnLButtonU
$LN53@OnLButtonU:
  000eb	a1 90 00 00 00	 mov	 eax, DWORD PTR ?g_iMetaTable@@3VIMetaTable@@A+144
$LN21@OnLButtonU:
  000f0	85 c0		 test	 eax, eax
  000f2	74 0b		 je	 SHORT $LN22@OnLButtonU
  000f4	56		 push	 esi
  000f5	53		 push	 ebx
  000f6	ff d0		 call	 eax
  000f8	83 c4 08	 add	 esp, 8
  000fb	8b d8		 mov	 ebx, eax
  000fd	eb 08		 jmp	 SHORT $LN19@OnLButtonU
$LN22@OnLButtonU:
  000ff	e8 00 00 00 00	 call	 ?AfxGetStaticModuleState@@YGPAVAFX_MODULE_STATE@@XZ ; AfxGetStaticModuleState
  00104	8b 58 08	 mov	 ebx, DWORD PTR [eax+8]
$LN19@OnLButtonU:
; File C:\Program Files (x86)\Microsoft Visual Studio\2019\Community\VC\Tools\MSVC\14.29.30133\atlmfc\include\afxwin1.inl

; 25   : 		return afxCurrentResourceHandle; }

  00107	e8 00 00 00 00	 call	 ?AfxGetModuleState@@YGPAVAFX_MODULE_STATE@@XZ ; AfxGetModuleState
; File D:\git\src\IBK\IBK_DRFN\ProjSrc\SrcChartEx\ChartAddIn\ChartAnalysisToolAddIn\Include_Chart\Dll_Load\IMetaTable.h

; 1034 : 		m_hInstance = AfxGetResourceHandle();

  0010c	8b 70 0c	 mov	 esi, DWORD PTR [eax+12]
  0010f	89 75 0c	 mov	 DWORD PTR ___mlrs__$11[ebp], esi
; File C:\Program Files (x86)\Microsoft Visual Studio\2019\Community\VC\Tools\MSVC\14.29.30133\atlmfc\include\afxwin1.inl

; 27   : 	{ ASSERT(hInstResource != NULL); afxCurrentResourceHandle = hInstResource; }

  00112	e8 00 00 00 00	 call	 ?AfxGetModuleState@@YGPAVAFX_MODULE_STATE@@XZ ; AfxGetModuleState
  00117	89 58 0c	 mov	 DWORD PTR [eax+12], ebx
; File D:\git\src\IBK\IBK_DRFN\ProjSrc\SrcChartEx\ChartAddIn\ChartAnalysisToolAddIn\AnalysisTool\PointTool.cpp

; 870  : 			CDlgAnalysisAdjustRatio dlg;

  0011a	6a 00		 push	 0
  0011c	6a 00		 push	 0
  0011e	8d 8d 5c fe ff
	ff		 lea	 ecx, DWORD PTR _dlg$2[ebp]
  00124	c6 45 fc 01	 mov	 BYTE PTR __$EHRec$[ebp+8], 1
  00128	e8 00 00 00 00	 call	 ??0CDlgAnalysisAdjustRatio@@QAE@PAUHWND__@@PAVCWnd@@@Z ; CDlgAnalysisAdjustRatio::CDlgAnalysisAdjustRatio

; 871  : 			dlg.SetValue(0,CTool::GetPosCoordinate(m_points1.GetDrawingPoint()).GetY());

  0012d	8d 45 ec	 lea	 eax, DWORD PTR $T10[ebp]
  00130	c6 45 fc 02	 mov	 BYTE PTR __$EHRec$[ebp+8], 2
  00134	50		 push	 eax
  00135	8d 8f 88 00 00
	00		 lea	 ecx, DWORD PTR [edi+136]
  0013b	e8 00 00 00 00	 call	 ?GetDrawingPoint@CPoints@@QBE?AVCPoint@@XZ ; CPoints::GetDrawingPoint
  00140	50		 push	 eax
  00141	8d 45 cc	 lea	 eax, DWORD PTR $T6[ebp]
  00144	8b cf		 mov	 ecx, edi
  00146	50		 push	 eax
  00147	e8 00 00 00 00	 call	 ?GetPosCoordinate@CTool@@IBE?AVCCoordinate@@ABVCPoint@@@Z ; CTool::GetPosCoordinate
  0014c	8b c8		 mov	 ecx, eax
  0014e	c6 45 fc 03	 mov	 BYTE PTR __$EHRec$[ebp+8], 3
  00152	e8 00 00 00 00	 call	 ?GetY@CCoordinate@@QBENXZ ; CCoordinate::GetY
  00157	83 ec 08	 sub	 esp, 8
  0015a	8d 8d 5c fe ff
	ff		 lea	 ecx, DWORD PTR _dlg$2[ebp]
  00160	dd 1c 24	 fstp	 QWORD PTR [esp]
  00163	6a 00		 push	 0
  00165	e8 00 00 00 00	 call	 ?SetValue@CDlgAnalysisAdjustRatio@@QAEXHN@Z ; CDlgAnalysisAdjustRatio::SetValue
  0016a	8d 4d e0	 lea	 ecx, DWORD PTR $T6[ebp+20]
  0016d	c6 45 fc 02	 mov	 BYTE PTR __$EHRec$[ebp+8], 2
  00171	ff 15 00 00 00
	00		 call	 DWORD PTR __imp_??1?$CStringT@DV?$StrTraitMFC_DLL@DV?$ChTraitsCRT@D@ATL@@@@@ATL@@QAE@XZ

; 872  : 			dlg.SetValue(1,CTool::GetPosCoordinate(m_points2.GetDrawingPoint()).GetY());

  00177	8d 45 ec	 lea	 eax, DWORD PTR $T9[ebp]
  0017a	50		 push	 eax
  0017b	8d 8f b0 00 00
	00		 lea	 ecx, DWORD PTR [edi+176]
  00181	e8 00 00 00 00	 call	 ?GetDrawingPoint@CPoints@@QBE?AVCPoint@@XZ ; CPoints::GetDrawingPoint
  00186	50		 push	 eax
  00187	8d 45 cc	 lea	 eax, DWORD PTR $T5[ebp]
  0018a	8b cf		 mov	 ecx, edi
  0018c	50		 push	 eax
  0018d	e8 00 00 00 00	 call	 ?GetPosCoordinate@CTool@@IBE?AVCCoordinate@@ABVCPoint@@@Z ; CTool::GetPosCoordinate
  00192	8b c8		 mov	 ecx, eax
  00194	c6 45 fc 04	 mov	 BYTE PTR __$EHRec$[ebp+8], 4
  00198	e8 00 00 00 00	 call	 ?GetY@CCoordinate@@QBENXZ ; CCoordinate::GetY
  0019d	83 ec 08	 sub	 esp, 8
  001a0	8d 8d 5c fe ff
	ff		 lea	 ecx, DWORD PTR _dlg$2[ebp]
  001a6	dd 1c 24	 fstp	 QWORD PTR [esp]
  001a9	6a 01		 push	 1
  001ab	e8 00 00 00 00	 call	 ?SetValue@CDlgAnalysisAdjustRatio@@QAEXHN@Z ; CDlgAnalysisAdjustRatio::SetValue
  001b0	8d 4d e0	 lea	 ecx, DWORD PTR $T5[ebp+20]
  001b3	c6 45 fc 02	 mov	 BYTE PTR __$EHRec$[ebp+8], 2
  001b7	ff 15 00 00 00
	00		 call	 DWORD PTR __imp_??1?$CStringT@DV?$StrTraitMFC_DLL@DV?$ChTraitsCRT@D@ATL@@@@@ATL@@QAE@XZ

; 873  : 			dlg.SetValue(2,CTool::GetPosCoordinate(m_points3.GetDrawingPoint()).GetY());

  001bd	8d 45 ec	 lea	 eax, DWORD PTR $T8[ebp]
  001c0	50		 push	 eax
  001c1	8d 8f d8 00 00
	00		 lea	 ecx, DWORD PTR [edi+216]
  001c7	e8 00 00 00 00	 call	 ?GetDrawingPoint@CPoints@@QBE?AVCPoint@@XZ ; CPoints::GetDrawingPoint
  001cc	50		 push	 eax
  001cd	8d 45 cc	 lea	 eax, DWORD PTR $T4[ebp]
  001d0	8b cf		 mov	 ecx, edi
  001d2	50		 push	 eax
  001d3	e8 00 00 00 00	 call	 ?GetPosCoordinate@CTool@@IBE?AVCCoordinate@@ABVCPoint@@@Z ; CTool::GetPosCoordinate
  001d8	8b c8		 mov	 ecx, eax
  001da	c6 45 fc 05	 mov	 BYTE PTR __$EHRec$[ebp+8], 5
  001de	e8 00 00 00 00	 call	 ?GetY@CCoordinate@@QBENXZ ; CCoordinate::GetY
  001e3	83 ec 08	 sub	 esp, 8
  001e6	8d 8d 5c fe ff
	ff		 lea	 ecx, DWORD PTR _dlg$2[ebp]
  001ec	dd 1c 24	 fstp	 QWORD PTR [esp]
  001ef	6a 02		 push	 2
  001f1	e8 00 00 00 00	 call	 ?SetValue@CDlgAnalysisAdjustRatio@@QAEXHN@Z ; CDlgAnalysisAdjustRatio::SetValue
  001f6	8d 4d e0	 lea	 ecx, DWORD PTR $T4[ebp+20]
  001f9	c6 45 fc 02	 mov	 BYTE PTR __$EHRec$[ebp+8], 2
  001fd	ff 15 00 00 00
	00		 call	 DWORD PTR __imp_??1?$CStringT@DV?$StrTraitMFC_DLL@DV?$ChTraitsCRT@D@ATL@@@@@ATL@@QAE@XZ

; 874  : 			dlg.DoModal();

  00203	8d 8d 5c fe ff
	ff		 lea	 ecx, DWORD PTR _dlg$2[ebp]
  00209	e8 00 00 00 00	 call	 ?DoModal@CDialog@@UAEHXZ ; CDialog::DoModal
  0020e	8d 8d 04 ff ff
	ff		 lea	 ecx, DWORD PTR _dlg$2[ebp+168]
  00214	e8 00 00 00 00	 call	 ??1CListCtrl@@UAE@XZ	; CListCtrl::~CListCtrl
  00219	8d 8d 5c fe ff
	ff		 lea	 ecx, DWORD PTR _dlg$2[ebp]
  0021f	e8 00 00 00 00	 call	 ??1CDialog@@UAE@XZ	; CDialog::~CDialog
; File D:\git\src\IBK\IBK_DRFN\ProjSrc\SrcChartEx\ChartAddIn\ChartAnalysisToolAddIn\Include_Chart\Dll_Load\IMetaTable.h

; 1038 : 	{

  00224	c6 45 fc 06	 mov	 BYTE PTR __$EHRec$[ebp+8], 6
; File C:\Program Files (x86)\Microsoft Visual Studio\2019\Community\VC\Tools\MSVC\14.29.30133\atlmfc\include\afxwin1.inl

; 27   : 	{ ASSERT(hInstResource != NULL); afxCurrentResourceHandle = hInstResource; }

  00228	e8 00 00 00 00	 call	 ?AfxGetModuleState@@YGPAVAFX_MODULE_STATE@@XZ ; AfxGetModuleState
  0022d	89 70 0c	 mov	 DWORD PTR [eax+12], esi
; File D:\git\src\IBK\IBK_DRFN\ProjSrc\SrcChartEx\ChartAddIn\ChartAnalysisToolAddIn\AnalysisTool\PointTool.cpp

; 875  : 		}

  00230	eb 14		 jmp	 SHORT $LN5@OnLButtonU
$LN4@OnLButtonU:

; 876  : 		else
; 877  : 		{
; 878  : 			CTool::MakeElement(points.GetDrawingPoint());

  00232	8d 45 ec	 lea	 eax, DWORD PTR $T7[ebp]
  00235	50		 push	 eax
  00236	8d 4d a4	 lea	 ecx, DWORD PTR _points$3[ebp]
  00239	e8 00 00 00 00	 call	 ?GetDrawingPoint@CPoints@@QBE?AVCPoint@@XZ ; CPoints::GetDrawingPoint
  0023e	50		 push	 eax
  0023f	8b cf		 mov	 ecx, edi
  00241	e8 00 00 00 00	 call	 ?MakeElement@CTool@@IAEXABVCPoint@@@Z ; CTool::MakeElement
$LN5@OnLButtonU:

; 879  : 		}		
; 880  : 	}

  00246	8d 4d b8	 lea	 ecx, DWORD PTR _points$3[ebp+20]
  00249	c7 45 fc ff ff
	ff ff		 mov	 DWORD PTR __$EHRec$[ebp+8], -1
  00250	ff 15 00 00 00
	00		 call	 DWORD PTR __imp_??1?$CStringT@DV?$StrTraitMFC_DLL@DV?$ChTraitsCRT@D@ATL@@@@@ATL@@QAE@XZ
$LN51@OnLButtonU:

; 881  : 	
; 882  : 	Initialize();

  00256	8b 07		 mov	 eax, DWORD PTR [edi]
  00258	8b cf		 mov	 ecx, edi
  0025a	ff 10		 call	 DWORD PTR [eax]

; 883  : }

  0025c	8b 4d f4	 mov	 ecx, DWORD PTR __$EHRec$[ebp]
  0025f	64 89 0d 00 00
	00 00		 mov	 DWORD PTR fs:0, ecx
  00266	59		 pop	 ecx
  00267	5f		 pop	 edi
  00268	5e		 pop	 esi
  00269	5b		 pop	 ebx
  0026a	8b e5		 mov	 esp, ebp
  0026c	5d		 pop	 ebp
  0026d	c2 08 00	 ret	 8
_TEXT	ENDS
;	COMDAT text$x
text$x	SEGMENT
__unwindfunclet$?OnLButtonUp@CThreePointDownTool@@UAEXPAVCDC@@ABVCPoint@@@Z$0:
  00000	8d 4d a4	 lea	 ecx, DWORD PTR _points$3[ebp]
  00003	e9 00 00 00 00	 jmp	 ??1CPoints@@QAE@XZ
__unwindfunclet$?OnLButtonUp@CThreePointDownTool@@UAEXPAVCDC@@ABVCPoint@@@Z$1:
  00008	8d 4d 0c	 lea	 ecx, DWORD PTR ___mlrs__$11[ebp]
  0000b	e9 00 00 00 00	 jmp	 ??1CMultiLanguageResourceSetter@@QAE@XZ ; CMultiLanguageResourceSetter::~CMultiLanguageResourceSetter
__unwindfunclet$?OnLButtonUp@CThreePointDownTool@@UAEXPAVCDC@@ABVCPoint@@@Z$2:
  00010	8d 8d 5c fe ff
	ff		 lea	 ecx, DWORD PTR _dlg$2[ebp]
  00016	e9 00 00 00 00	 jmp	 ??1CDlgAnalysisAdjustRatio@@UAE@XZ
__unwindfunclet$?OnLButtonUp@CThreePointDownTool@@UAEXPAVCDC@@ABVCPoint@@@Z$3:
  0001b	8d 4d cc	 lea	 ecx, DWORD PTR $T6[ebp]
  0001e	e9 00 00 00 00	 jmp	 ??1CCoordinate@@QAE@XZ
__unwindfunclet$?OnLButtonUp@CThreePointDownTool@@UAEXPAVCDC@@ABVCPoint@@@Z$4:
  00023	8d 4d cc	 lea	 ecx, DWORD PTR $T5[ebp]
  00026	e9 00 00 00 00	 jmp	 ??1CCoordinate@@QAE@XZ
__unwindfunclet$?OnLButtonUp@CThreePointDownTool@@UAEXPAVCDC@@ABVCPoint@@@Z$5:
  0002b	8d 4d cc	 lea	 ecx, DWORD PTR $T4[ebp]
  0002e	e9 00 00 00 00	 jmp	 ??1CCoordinate@@QAE@XZ
  00033	cc		 int	 3
  00034	cc		 int	 3
  00035	cc		 int	 3
  00036	cc		 int	 3
  00037	cc		 int	 3
__ehhandler$?OnLButtonUp@CThreePointDownTool@@UAEXPAVCDC@@ABVCPoint@@@Z:
  00038	90		 npad	 1
  00039	90		 npad	 1
  0003a	8b 54 24 08	 mov	 edx, DWORD PTR [esp+8]
  0003e	8d 42 0c	 lea	 eax, DWORD PTR [edx+12]
  00041	8b 8a 58 fe ff
	ff		 mov	 ecx, DWORD PTR [edx-424]
  00047	33 c8		 xor	 ecx, eax
  00049	e8 00 00 00 00	 call	 @__security_check_cookie@4
  0004e	b8 00 00 00 00	 mov	 eax, OFFSET __ehfuncinfo$?OnLButtonUp@CThreePointDownTool@@UAEXPAVCDC@@ABVCPoint@@@Z
  00053	e9 00 00 00 00	 jmp	 ___CxxFrameHandler3
text$x	ENDS
?OnLButtonUp@CThreePointDownTool@@UAEXPAVCDC@@ABVCPoint@@@Z ENDP ; CThreePointDownTool::OnLButtonUp
; Function compile flags: /Ogtp
; File D:\git\src\IBK\IBK_DRFN\ProjSrc\SrcChartEx\ChartAddIn\ChartAnalysisToolAddIn\AnalysisTool\PointTool.cpp
;	COMDAT ?OnLButtonDown@CThreePointDownTool@@UAEPAVCElement@@PAVCDC@@ABVCPoint@@@Z
_TEXT	SEGMENT
$T1 = -8						; size = 8
_pDC$ = 8						; size = 4
_point$ = 12						; size = 4
?OnLButtonDown@CThreePointDownTool@@UAEPAVCElement@@PAVCDC@@ABVCPoint@@@Z PROC ; CThreePointDownTool::OnLButtonDown, COMDAT
; _this$ = ecx

; 852  : {

  00000	55		 push	 ebp
  00001	8b ec		 mov	 ebp, esp
  00003	83 ec 08	 sub	 esp, 8

; 853  : 	return CDownTool::OnLButtonDown(pDC, CTool::GetDrawingPointAndSetDataType(point));

  00006	8d 45 f8	 lea	 eax, DWORD PTR $T1[ebp]
  00009	56		 push	 esi
  0000a	57		 push	 edi
  0000b	ff 75 0c	 push	 DWORD PTR _point$[ebp]
  0000e	8b f9		 mov	 edi, ecx
  00010	50		 push	 eax
  00011	e8 00 00 00 00	 call	 ?GetDrawingPointAndSetDataType@CTool@@IAE?AVCPoint@@ABV2@@Z ; CTool::GetDrawingPointAndSetDataType

; 391  : 	CTool::SetProcessStarting(true);

  00016	6a 01		 push	 1
  00018	8b cf		 mov	 ecx, edi

; 853  : 	return CDownTool::OnLButtonDown(pDC, CTool::GetDrawingPointAndSetDataType(point));

  0001a	8b f0		 mov	 esi, eax

; 391  : 	CTool::SetProcessStarting(true);

  0001c	e8 00 00 00 00	 call	 ?SetProcessStarting@CTool@@QAEX_N@Z ; CTool::SetProcessStarting

; 392  : 	CTool::SetDrawingRegions(point);

  00021	56		 push	 esi
  00022	8b cf		 mov	 ecx, edi
  00024	e8 00 00 00 00	 call	 ?SetDrawingRegions@CTool@@IAEXABVCPoint@@@Z ; CTool::SetDrawingRegions

; 393  : 	if(GetToolType() != CAnalysis::EN_ANALYSIS_DOWN_CROSS)

  00029	8b 07		 mov	 eax, DWORD PTR [edi]
  0002b	8b cf		 mov	 ecx, edi
  0002d	ff 50 24	 call	 DWORD PTR [eax+36]
  00030	83 f8 02	 cmp	 eax, 2
  00033	74 09		 je	 SHORT $LN6@OnLButtonD

; 394  : 		CTool::ChangeCursor(CToolEnumData::DRAW_PEN);

  00035	6a 01		 push	 1
  00037	8b cf		 mov	 ecx, edi
  00039	e8 00 00 00 00	 call	 ?ChangeCursor@CTool@@IAEXW4DrawType@CToolEnumData@@@Z ; CTool::ChangeCursor
$LN6@OnLButtonD:
  0003e	5f		 pop	 edi

; 854  : }

  0003f	33 c0		 xor	 eax, eax
  00041	5e		 pop	 esi
  00042	8b e5		 mov	 esp, ebp
  00044	5d		 pop	 ebp
  00045	c2 08 00	 ret	 8
?OnLButtonDown@CThreePointDownTool@@UAEPAVCElement@@PAVCDC@@ABVCPoint@@@Z ENDP ; CThreePointDownTool::OnLButtonDown
_TEXT	ENDS
; Function compile flags: /Ogtp
; File D:\git\src\IBK\IBK_DRFN\ProjSrc\SrcChartEx\ChartAddIn\ChartAnalysisToolAddIn\AnalysisTool\PointTool.cpp
;	COMDAT ?Initialize@CThreePointDownTool@@UAEXXZ
_TEXT	SEGMENT
$T1 = -4						; size = 1
?Initialize@CThreePointDownTool@@UAEXXZ PROC		; CThreePointDownTool::Initialize, COMDAT
; _this$ = ecx

; 845  : {

  00000	55		 push	 ebp
  00001	8b ec		 mov	 ebp, esp
  00003	51		 push	 ecx
  00004	56		 push	 esi
  00005	8b f1		 mov	 esi, ecx

; 381  : 	CTool::Initialize();

  00007	e8 00 00 00 00	 call	 ?Initialize@CTool@@UAEXXZ ; CTool::Initialize

; 382  : 	if(GetToolType() == CAnalysis::EN_ANALYSIS_DOWN_CROSS)

  0000c	8b 06		 mov	 eax, DWORD PTR [esi]
  0000e	8b ce		 mov	 ecx, esi
  00010	ff 50 24	 call	 DWORD PTR [eax+36]
  00013	83 f8 02	 cmp	 eax, 2

; 846  : 	CDownTool::Initialize();
; 847  : 	m_nPointCount = 0;

  00016	8b ce		 mov	 ecx, esi

; 382  : 	if(GetToolType() == CAnalysis::EN_ANALYSIS_DOWN_CROSS)

  00018	0f 94 45 fc	 sete	 BYTE PTR $T1[ebp]

; 846  : 	CDownTool::Initialize();
; 847  : 	m_nPointCount = 0;

  0001c	ff 75 fc	 push	 DWORD PTR $T1[ebp]
  0001f	e8 00 00 00 00	 call	 ?SetProcessStarting@CTool@@QAEX_N@Z ; CTool::SetProcessStarting
  00024	c7 86 80 00 00
	00 00 00 00 00	 mov	 DWORD PTR [esi+128], 0
  0002e	5e		 pop	 esi

; 848  : }

  0002f	8b e5		 mov	 esp, ebp
  00031	5d		 pop	 ebp
  00032	c3		 ret	 0
?Initialize@CThreePointDownTool@@UAEXXZ ENDP		; CThreePointDownTool::Initialize
_TEXT	ENDS
; Function compile flags: /Ogtp
; File D:\git\src\IBK\IBK_DRFN\ProjSrc\SrcChartEx\ChartAddIn\ChartAnalysisToolAddIn\AnalysisTool\PointTool.cpp
; File C:\Program Files (x86)\Microsoft Visual Studio\2019\Community\VC\Tools\MSVC\14.29.30133\atlmfc\include\atltypes.h
; File D:\git\src\IBK\IBK_DRFN\ProjSrc\SrcChartEx\ChartAddIn\ChartAnalysisToolAddIn\AnalysisTool\PointTool.cpp
;	COMDAT ??0CThreePointDownTool@@IAE@PAVCAnalysisData@@W4COORDINATETYPE@CAnalysis@@@Z
_TEXT	SEGMENT
_this$ = -16						; size = 4
__$EHRec$ = -12						; size = 12
_pAnalysisData$ = 8					; size = 4
_eCoordinateType$ = 12					; size = 4
??0CThreePointDownTool@@IAE@PAVCAnalysisData@@W4COORDINATETYPE@CAnalysis@@@Z PROC ; CThreePointDownTool::CThreePointDownTool, COMDAT
; _this$ = ecx

; 837  : {

  00000	55		 push	 ebp
  00001	8b ec		 mov	 ebp, esp
  00003	6a ff		 push	 -1
  00005	68 00 00 00 00	 push	 __ehhandler$??0CThreePointDownTool@@IAE@PAVCAnalysisData@@W4COORDINATETYPE@CAnalysis@@@Z
  0000a	64 a1 00 00 00
	00		 mov	 eax, DWORD PTR fs:0
  00010	50		 push	 eax
  00011	51		 push	 ecx
  00012	56		 push	 esi
  00013	a1 00 00 00 00	 mov	 eax, DWORD PTR ___security_cookie
  00018	33 c5		 xor	 eax, ebp
  0001a	50		 push	 eax
  0001b	8d 45 f4	 lea	 eax, DWORD PTR __$EHRec$[ebp]
  0001e	64 a3 00 00 00
	00		 mov	 DWORD PTR fs:0, eax
  00024	8b f1		 mov	 esi, ecx
  00026	89 75 f0	 mov	 DWORD PTR _this$[ebp], esi

; 371  : 	CTool(pAnalysisData, eCoordinateType)

  00029	ff 75 0c	 push	 DWORD PTR _eCoordinateType$[ebp]
  0002c	ff 75 08	 push	 DWORD PTR _pAnalysisData$[ebp]
  0002f	e8 00 00 00 00	 call	 ??0CTool@@IAE@PAVCAnalysisData@@W4COORDINATETYPE@CAnalysis@@@Z ; CTool::CTool

; 372  : {	

  00034	c7 06 00 00 00
	00		 mov	 DWORD PTR [esi], OFFSET ??_7CDownTool@@6B@

; 373  : 	CTool::Initialize();

  0003a	8b ce		 mov	 ecx, esi
  0003c	c7 45 fc 00 00
	00 00		 mov	 DWORD PTR __$EHRec$[ebp+8], 0
; File C:\Program Files (x86)\Microsoft Visual Studio\2019\Community\VC\Tools\MSVC\14.29.30133\atlmfc\include\atltypes.h

; 400  : 	x = 0;

  00043	c7 46 78 00 00
	00 00		 mov	 DWORD PTR [esi+120], 0

; 401  : 	y = 0;

  0004a	c7 46 7c 00 00
	00 00		 mov	 DWORD PTR [esi+124], 0
; File D:\git\src\IBK\IBK_DRFN\ProjSrc\SrcChartEx\ChartAddIn\ChartAnalysisToolAddIn\AnalysisTool\PointTool.cpp

; 373  : 	CTool::Initialize();

  00051	e8 00 00 00 00	 call	 ?Initialize@CTool@@UAEXXZ ; CTool::Initialize

; 374  : 	CTool::SetProcessStarting(false);

  00056	6a 00		 push	 0
  00058	8b ce		 mov	 ecx, esi
  0005a	e8 00 00 00 00	 call	 ?SetProcessStarting@CTool@@QAEX_N@Z ; CTool::SetProcessStarting

; 837  : {

  0005f	8d 8e 88 00 00
	00		 lea	 ecx, DWORD PTR [esi+136]
  00065	c7 45 fc 01 00
	00 00		 mov	 DWORD PTR __$EHRec$[ebp+8], 1
  0006c	c7 06 00 00 00
	00		 mov	 DWORD PTR [esi], OFFSET ??_7CThreePointDownTool@@6B@
  00072	e8 00 00 00 00	 call	 ??0CPoints@@QAE@XZ	; CPoints::CPoints
  00077	8d 8e b0 00 00
	00		 lea	 ecx, DWORD PTR [esi+176]
  0007d	c6 45 fc 02	 mov	 BYTE PTR __$EHRec$[ebp+8], 2
  00081	e8 00 00 00 00	 call	 ??0CPoints@@QAE@XZ	; CPoints::CPoints
  00086	8d 8e d8 00 00
	00		 lea	 ecx, DWORD PTR [esi+216]
  0008c	c6 45 fc 03	 mov	 BYTE PTR __$EHRec$[ebp+8], 3
  00090	e8 00 00 00 00	 call	 ??0CPoints@@QAE@XZ	; CPoints::CPoints

; 838  : 	CTool::Initialize();

  00095	8b ce		 mov	 ecx, esi
  00097	c6 45 fc 04	 mov	 BYTE PTR __$EHRec$[ebp+8], 4
  0009b	e8 00 00 00 00	 call	 ?Initialize@CTool@@UAEXXZ ; CTool::Initialize

; 839  : 	CTool::SetProcessStarting(false);

  000a0	6a 00		 push	 0
  000a2	8b ce		 mov	 ecx, esi
  000a4	e8 00 00 00 00	 call	 ?SetProcessStarting@CTool@@QAEX_N@Z ; CTool::SetProcessStarting

; 840  : }

  000a9	8b c6		 mov	 eax, esi
  000ab	8b 4d f4	 mov	 ecx, DWORD PTR __$EHRec$[ebp]
  000ae	64 89 0d 00 00
	00 00		 mov	 DWORD PTR fs:0, ecx
  000b5	59		 pop	 ecx
  000b6	5e		 pop	 esi
  000b7	8b e5		 mov	 esp, ebp
  000b9	5d		 pop	 ebp
  000ba	c2 08 00	 ret	 8
_TEXT	ENDS
;	COMDAT text$x
text$x	SEGMENT
__unwindfunclet$??0CThreePointDownTool@@IAE@PAVCAnalysisData@@W4COORDINATETYPE@CAnalysis@@@Z$4:
  00000	8b 4d f0	 mov	 ecx, DWORD PTR _this$[ebp]
  00003	e9 00 00 00 00	 jmp	 ??1CTool@@QAE@XZ
__unwindfunclet$??0CThreePointDownTool@@IAE@PAVCAnalysisData@@W4COORDINATETYPE@CAnalysis@@@Z$0:
  00008	8b 4d f0	 mov	 ecx, DWORD PTR _this$[ebp]
  0000b	e9 00 00 00 00	 jmp	 ??1CDownTool@@QAE@XZ
__unwindfunclet$??0CThreePointDownTool@@IAE@PAVCAnalysisData@@W4COORDINATETYPE@CAnalysis@@@Z$1:
  00010	8b 4d f0	 mov	 ecx, DWORD PTR _this$[ebp]
  00013	81 c1 88 00 00
	00		 add	 ecx, 136		; 00000088H
  00019	e9 00 00 00 00	 jmp	 ??1CPoints@@QAE@XZ
__unwindfunclet$??0CThreePointDownTool@@IAE@PAVCAnalysisData@@W4COORDINATETYPE@CAnalysis@@@Z$2:
  0001e	8b 4d f0	 mov	 ecx, DWORD PTR _this$[ebp]
  00021	81 c1 b0 00 00
	00		 add	 ecx, 176		; 000000b0H
  00027	e9 00 00 00 00	 jmp	 ??1CPoints@@QAE@XZ
__unwindfunclet$??0CThreePointDownTool@@IAE@PAVCAnalysisData@@W4COORDINATETYPE@CAnalysis@@@Z$3:
  0002c	8b 4d f0	 mov	 ecx, DWORD PTR _this$[ebp]
  0002f	81 c1 d8 00 00
	00		 add	 ecx, 216		; 000000d8H
  00035	e9 00 00 00 00	 jmp	 ??1CPoints@@QAE@XZ
  0003a	cc		 int	 3
  0003b	cc		 int	 3
  0003c	cc		 int	 3
  0003d	cc		 int	 3
  0003e	cc		 int	 3
__ehhandler$??0CThreePointDownTool@@IAE@PAVCAnalysisData@@W4COORDINATETYPE@CAnalysis@@@Z:
  0003f	90		 npad	 1
  00040	90		 npad	 1
  00041	8b 54 24 08	 mov	 edx, DWORD PTR [esp+8]
  00045	8d 42 0c	 lea	 eax, DWORD PTR [edx+12]
  00048	8b 4a f4	 mov	 ecx, DWORD PTR [edx-12]
  0004b	33 c8		 xor	 ecx, eax
  0004d	e8 00 00 00 00	 call	 @__security_check_cookie@4
  00052	b8 00 00 00 00	 mov	 eax, OFFSET __ehfuncinfo$??0CThreePointDownTool@@IAE@PAVCAnalysisData@@W4COORDINATETYPE@CAnalysis@@@Z
  00057	e9 00 00 00 00	 jmp	 ___CxxFrameHandler3
text$x	ENDS
??0CThreePointDownTool@@IAE@PAVCAnalysisData@@W4COORDINATETYPE@CAnalysis@@@Z ENDP ; CThreePointDownTool::CThreePointDownTool
; Function compile flags: /Ogtp
; File D:\git\src\IBK\IBK_DRFN\ProjSrc\SrcChartEx\ChartAddIn\ChartAnalysisToolAddIn\AnalysisTool\PointTool.cpp
; File D:\git\src\IBK\IBK_DRFN\ProjSrc\SrcChartEx\ChartAddIn\ChartAnalysisToolAddIn\Include_AddIn_133101\I133101\_IString.h
; File D:\git\src\IBK\IBK_DRFN\ProjSrc\SrcChartEx\ChartAddIn\ChartAnalysisToolAddIn\AnalysisTool\PointTool.cpp
; File D:\git\src\IBK\IBK_DRFN\ProjSrc\SrcChartEx\ChartAddIn\ChartAnalysisToolAddIn\Include_AddIn_133101\I133101\_IString.h
; File D:\git\src\IBK\IBK_DRFN\ProjSrc\SrcChartEx\ChartAddIn\ChartAnalysisToolAddIn\AnalysisTool\PointTool.cpp
; File D:\git\src\IBK\IBK_DRFN\ProjSrc\SrcChartEx\ChartAddIn\ChartAnalysisToolAddIn\Include_AddIn_133101\I133101\_IString.h
; File D:\git\src\IBK\IBK_DRFN\ProjSrc\SrcChartEx\ChartAddIn\ChartAnalysisToolAddIn\AnalysisTool\PointTool.cpp
; File D:\git\src\IBK\IBK_DRFN\ProjSrc\SrcChartEx\ChartAddIn\ChartAnalysisToolAddIn\Include_AddIn_133101\I133101\_IString.h
; File D:\git\src\IBK\IBK_DRFN\ProjSrc\SrcChartEx\ChartAddIn\ChartAnalysisToolAddIn\AnalysisTool\PointTool.cpp
;	COMDAT ?GetTwoPointDrawingData@CTwoPointDownTool@@ABE?AVCTwoPointDrawingData@@XZ
_TEXT	SEGMENT
$T2 = -584						; size = 72
$T3 = -512						; size = 72
$T4 = -440						; size = 72
$T5 = -368						; size = 72
$T6 = -296						; size = 40
$T7 = -256						; size = 40
$T8 = -216						; size = 8
$T9 = -208						; size = 8
$T10 = -200						; size = 8
$T11 = -200						; size = 8
_szRQ$ = -192						; size = 8
___$ReturnUdt$GSCopy$1$ = -184				; size = 4
$T12 = -178						; size = 2
_eDateUnit$1$ = -176					; size = 4
___$ReturnUdt$GSCopy$ = -176				; size = 4
_strPacketType$ = -172					; size = 4
_szHelpMsg$ = -168					; size = 8
_strDataType$ = -160					; size = 4
_this$GSCopy$1$ = -156					; size = 4
_calData$ = -152					; size = 96
$T13 = -56						; size = 40
$T14 = -48						; size = 32
__$ArrayPad$ = -16					; size = 4
__$EHRec$ = -12						; size = 12
___$ReturnUdt$ = 8					; size = 4
?GetTwoPointDrawingData@CTwoPointDownTool@@ABE?AVCTwoPointDrawingData@@XZ PROC ; CTwoPointDownTool::GetTwoPointDrawingData, COMDAT
; _this$ = ecx

; 792  : {

  00000	55		 push	 ebp
  00001	8b ec		 mov	 ebp, esp
  00003	6a ff		 push	 -1
  00005	68 00 00 00 00	 push	 __ehhandler$?GetTwoPointDrawingData@CTwoPointDownTool@@ABE?AVCTwoPointDrawingData@@XZ
  0000a	64 a1 00 00 00
	00		 mov	 eax, DWORD PTR fs:0
  00010	50		 push	 eax
  00011	81 ec 3c 02 00
	00		 sub	 esp, 572		; 0000023cH
  00017	a1 00 00 00 00	 mov	 eax, DWORD PTR ___security_cookie
  0001c	33 c5		 xor	 eax, ebp
  0001e	89 45 f0	 mov	 DWORD PTR __$ArrayPad$[ebp], eax
  00021	53		 push	 ebx
  00022	56		 push	 esi
  00023	57		 push	 edi
  00024	50		 push	 eax
  00025	8d 45 f4	 lea	 eax, DWORD PTR __$EHRec$[ebp]
  00028	64 a3 00 00 00
	00		 mov	 DWORD PTR fs:0, eax
  0002e	8b d9		 mov	 ebx, ecx
  00030	89 9d 64 ff ff
	ff		 mov	 DWORD PTR _this$GSCopy$1$[ebp], ebx
  00036	8b 45 08	 mov	 eax, DWORD PTR ___$ReturnUdt$[ebp]
  00039	89 85 48 ff ff
	ff		 mov	 DWORD PTR ___$ReturnUdt$GSCopy$1$[ebp], eax
  0003f	89 85 50 ff ff
	ff		 mov	 DWORD PTR ___$ReturnUdt$GSCopy$[ebp], eax
; File D:\git\src\IBK\IBK_DRFN\ProjSrc\SrcChartEx\ChartAddIn\ChartAnalysisToolAddIn\Include_AddIn_133101\I133101\_IString.h

; 39   : 		m_pIStrData = p_pIString;	// Do not AddRef(). Because It must be Return Value.

  00045	c7 85 5c ff ff
	ff 00 00 00 00	 mov	 DWORD PTR _szHelpMsg$[ebp+4], 0

; 41   : 		else m_szData = NULL;

  0004f	c7 85 58 ff ff
	ff 00 00 00 00	 mov	 DWORD PTR _szHelpMsg$[ebp], 0
; File D:\git\src\IBK\IBK_DRFN\ProjSrc\SrcChartEx\ChartAddIn\ChartAnalysisToolAddIn\AnalysisTool\PointTool.cpp

; 808  : 	CString strDataType, strPacketType;	

  00059	8d 8d 60 ff ff
	ff		 lea	 ecx, DWORD PTR _strDataType$[ebp]
  0005f	c7 45 fc 00 00
	00 00		 mov	 DWORD PTR __$EHRec$[ebp+8], 0
  00066	ff 15 00 00 00
	00		 call	 DWORD PTR __imp_??0?$CStringT@DV?$StrTraitMFC_DLL@DV?$ChTraitsCRT@D@ATL@@@@@ATL@@QAE@XZ
  0006c	8d 8d 54 ff ff
	ff		 lea	 ecx, DWORD PTR _strPacketType$[ebp]
  00072	ff 15 00 00 00
	00		 call	 DWORD PTR __imp_??0?$CStringT@DV?$StrTraitMFC_DLL@DV?$ChTraitsCRT@D@ATL@@@@@ATL@@QAE@XZ

; 475  : 	return m_upPoints;

  00078	8d bb a8 00 00
	00		 lea	 edi, DWORD PTR [ebx+168]

; 808  : 	CString strDataType, strPacketType;	

  0007e	c6 45 fc 02	 mov	 BYTE PTR __$EHRec$[ebp+8], 2
  00082	57		 push	 edi
  00083	8d 4d c8	 lea	 ecx, DWORD PTR $T13[ebp]
  00086	e8 00 00 00 00	 call	 ??0CCoordinate@@QAE@ABV0@@Z ; CCoordinate::CCoordinate
  0008b	8b 47 20	 mov	 eax, DWORD PTR [edi+32]
  0008e	8b 4f 24	 mov	 ecx, DWORD PTR [edi+36]
  00091	89 45 e8	 mov	 DWORD PTR $T13[ebp+32], eax
  00094	89 4d ec	 mov	 DWORD PTR $T13[ebp+36], ecx

; 809  : 	CCoordinateCalculatorData calData = GetCoordinateCalculatorData( COneOrTwoPointTool::GetUpPoints().GetDrawingPoint());

  00097	8d 85 38 ff ff
	ff		 lea	 eax, DWORD PTR $T11[ebp]
  0009d	c6 45 fc 03	 mov	 BYTE PTR __$EHRec$[ebp+8], 3
  000a1	50		 push	 eax
  000a2	8d 4d c8	 lea	 ecx, DWORD PTR $T13[ebp]
  000a5	e8 00 00 00 00	 call	 ?GetDrawingPoint@CPoints@@QBE?AVCPoint@@XZ ; CPoints::GetDrawingPoint
  000aa	50		 push	 eax
  000ab	8d 85 68 ff ff
	ff		 lea	 eax, DWORD PTR _calData$[ebp]
  000b1	8b cb		 mov	 ecx, ebx
  000b3	50		 push	 eax
  000b4	e8 00 00 00 00	 call	 ?GetCoordinateCalculatorData@CTool@@QBE?AVCCoordinateCalculatorData@@ABVCPoint@@@Z ; CTool::GetCoordinateCalculatorData
  000b9	8d 4d dc	 lea	 ecx, DWORD PTR $T13[ebp+20]
  000bc	c6 45 fc 05	 mov	 BYTE PTR __$EHRec$[ebp+8], 5
  000c0	ff 15 00 00 00
	00		 call	 DWORD PTR __imp_??1?$CStringT@DV?$StrTraitMFC_DLL@DV?$ChTraitsCRT@D@ATL@@@@@ATL@@QAE@XZ

; 810  : 	ILPCSTR szRQ = calData.m_pIChartOCX->GetCurrentRQ();

  000c6	8b 4d b4	 mov	 ecx, DWORD PTR _calData$[ebp+76]
  000c9	8b 01		 mov	 eax, DWORD PTR [ecx]
  000cb	ff 90 40 02 00
	00		 call	 DWORD PTR [eax+576]
; File D:\git\src\IBK\IBK_DRFN\ProjSrc\SrcChartEx\ChartAddIn\ChartAnalysisToolAddIn\Include_AddIn_133101\I133101\_IString.h

; 39   : 		m_pIStrData = p_pIString;	// Do not AddRef(). Because It must be Return Value.

  000d1	8b c8		 mov	 ecx, eax
  000d3	89 8d 44 ff ff
	ff		 mov	 DWORD PTR _szRQ$[ebp+4], ecx

; 40   : 		if( m_pIStrData) m_szData = m_pIStrData->GetData();

  000d9	85 c9		 test	 ecx, ecx
  000db	74 09		 je	 SHORT $LN35@GetTwoPoin
  000dd	8b 01		 mov	 eax, DWORD PTR [ecx]
  000df	ff 50 10	 call	 DWORD PTR [eax+16]
  000e2	8b d0		 mov	 edx, eax
  000e4	eb 02		 jmp	 SHORT $LN100@GetTwoPoin
$LN35@GetTwoPoin:

; 41   : 		else m_szData = NULL;

  000e6	33 d2		 xor	 edx, edx
$LN100@GetTwoPoin:
; File D:\git\src\IBK\IBK_DRFN\ProjSrc\SrcChartEx\ChartAddIn\ChartAnalysisToolAddIn\AnalysisTool\PointTool.cpp

; 810  : 	ILPCSTR szRQ = calData.m_pIChartOCX->GetCurrentRQ();

  000e8	89 95 40 ff ff
	ff		 mov	 DWORD PTR _szRQ$[ebp], edx

; 811  : 	IPacketManager * pCurPacketManager = calData.m_pIPacketListManager->GetPacketManager(szRQ);

  000ee	8b 4d b8	 mov	 ecx, DWORD PTR _calData$[ebp+80]
  000f1	52		 push	 edx
  000f2	c6 45 fc 06	 mov	 BYTE PTR __$EHRec$[ebp+8], 6
  000f6	8b 01		 mov	 eax, DWORD PTR [ecx]
  000f8	ff 50 10	 call	 DWORD PTR [eax+16]
  000fb	8b f0		 mov	 esi, eax

; 812  : 	pCurPacketManager->GetHelpMessageItem("UD", szHelpMsg); strDataType = szHelpMsg;

  000fd	8d 8d 58 ff ff
	ff		 lea	 ecx, DWORD PTR _szHelpMsg$[ebp]
  00103	51		 push	 ecx
  00104	68 00 00 00 00	 push	 OFFSET ??_C@_02PONMEALH@UD@
  00109	8b ce		 mov	 ecx, esi
  0010b	8b 06		 mov	 eax, DWORD PTR [esi]
  0010d	ff 50 18	 call	 DWORD PTR [eax+24]
  00110	ff b5 58 ff ff
	ff		 push	 DWORD PTR _szHelpMsg$[ebp]
  00116	8d 8d 60 ff ff
	ff		 lea	 ecx, DWORD PTR _strDataType$[ebp]
  0011c	ff 15 00 00 00
	00		 call	 DWORD PTR __imp_??4?$CStringT@DV?$StrTraitMFC_DLL@DV?$ChTraitsCRT@D@ATL@@@@@ATL@@QAEAAV01@PBD@Z

; 813  : 	pCurPacketManager->GetHelpMessageItem("RDATET", szHelpMsg); strPacketType = szHelpMsg;

  00122	8b 06		 mov	 eax, DWORD PTR [esi]
  00124	8d 8d 58 ff ff
	ff		 lea	 ecx, DWORD PTR _szHelpMsg$[ebp]
  0012a	51		 push	 ecx
  0012b	68 00 00 00 00	 push	 OFFSET ??_C@_06MLGKKOBC@RDATET@
  00130	8b ce		 mov	 ecx, esi
  00132	ff 50 18	 call	 DWORD PTR [eax+24]
  00135	ff b5 58 ff ff
	ff		 push	 DWORD PTR _szHelpMsg$[ebp]
  0013b	8d 8d 54 ff ff
	ff		 lea	 ecx, DWORD PTR _strPacketType$[ebp]
  00141	ff 15 00 00 00
	00		 call	 DWORD PTR __imp_??4?$CStringT@DV?$StrTraitMFC_DLL@DV?$ChTraitsCRT@D@ATL@@@@@ATL@@QAEAAV01@PBD@Z

; 814  : 	CScaleBaseData::HORZSCALEDRAWERTYPE eDateUnit = (CScaleBaseData::HORZSCALEDRAWERTYPE)atoi(strDataType);

  00147	ff b5 60 ff ff
	ff		 push	 DWORD PTR _strDataType$[ebp]
  0014d	ff 15 00 00 00
	00		 call	 DWORD PTR __imp__atoi
  00153	83 c4 04	 add	 esp, 4
  00156	89 85 50 ff ff
	ff		 mov	 DWORD PTR _eDateUnit$1$[ebp], eax

; 816  : 	return CTwoPointDrawingData(

  0015c	8d 85 b8 fd ff
	ff		 lea	 eax, DWORD PTR $T2[ebp]
  00162	8b cb		 mov	 ecx, ebx
  00164	50		 push	 eax
  00165	e8 00 00 00 00	 call	 ?GetElementCommonEnvironment@CTool@@IBE?AVCElementCommonEnvironment@@XZ ; CTool::GetElementCommonEnvironment
  0016a	8b c8		 mov	 ecx, eax
  0016c	c6 45 fc 07	 mov	 BYTE PTR __$EHRec$[ebp+8], 7
  00170	e8 00 00 00 00	 call	 ?GetLineExt@CElementCommonEnvironment@@QAEAAVCLineExtEnvironment@@XZ ; CElementCommonEnvironment::GetLineExt
  00175	50		 push	 eax
  00176	8d 8d 38 ff ff
	ff		 lea	 ecx, DWORD PTR $T10[ebp]
  0017c	e8 00 00 00 00	 call	 ??0CLineExtEnvironment@@QAE@PAV0@@Z ; CLineExtEnvironment::CLineExtEnvironment
  00181	57		 push	 edi
  00182	8d 8d d8 fe ff
	ff		 lea	 ecx, DWORD PTR $T6[ebp]
  00188	e8 00 00 00 00	 call	 ??0CCoordinate@@QAE@ABV0@@Z ; CCoordinate::CCoordinate
  0018d	8b 47 20	 mov	 eax, DWORD PTR [edi+32]
  00190	8b 4f 24	 mov	 ecx, DWORD PTR [edi+36]
  00193	89 85 f8 fe ff
	ff		 mov	 DWORD PTR $T6[ebp+32], eax
  00199	89 8d fc fe ff
	ff		 mov	 DWORD PTR $T6[ebp+36], ecx
  0019f	57		 push	 edi
  001a0	8d 8d 00 ff ff
	ff		 lea	 ecx, DWORD PTR $T7[ebp]
  001a6	c6 45 fc 08	 mov	 BYTE PTR __$EHRec$[ebp+8], 8
  001aa	e8 00 00 00 00	 call	 ??0CCoordinate@@QAE@ABV0@@Z ; CCoordinate::CCoordinate
  001af	8b 47 20	 mov	 eax, DWORD PTR [edi+32]
  001b2	8b 4f 24	 mov	 ecx, DWORD PTR [edi+36]
  001b5	89 85 20 ff ff
	ff		 mov	 DWORD PTR $T7[ebp+32], eax
  001bb	89 8d 24 ff ff
	ff		 mov	 DWORD PTR $T7[ebp+36], ecx
  001c1	8d 85 00 fe ff
	ff		 lea	 eax, DWORD PTR $T3[ebp]
  001c7	c6 45 fc 09	 mov	 BYTE PTR __$EHRec$[ebp+8], 9
  001cb	50		 push	 eax
  001cc	8b cb		 mov	 ecx, ebx
  001ce	e8 00 00 00 00	 call	 ?GetElementCommonEnvironment@CTool@@IBE?AVCElementCommonEnvironment@@XZ ; CTool::GetElementCommonEnvironment
  001d3	8b d8		 mov	 ebx, eax
  001d5	8b 8d 64 ff ff
	ff		 mov	 ecx, DWORD PTR _this$GSCopy$1$[ebp]
  001db	8d 85 48 fe ff
	ff		 lea	 eax, DWORD PTR $T4[ebp]
  001e1	50		 push	 eax
  001e2	c6 45 fc 0a	 mov	 BYTE PTR __$EHRec$[ebp+8], 10 ; 0000000aH
  001e6	e8 00 00 00 00	 call	 ?GetElementCommonEnvironment@CTool@@IBE?AVCElementCommonEnvironment@@XZ ; CTool::GetElementCommonEnvironment
  001eb	8b f8		 mov	 edi, eax
  001ed	8b 8d 64 ff ff
	ff		 mov	 ecx, DWORD PTR _this$GSCopy$1$[ebp]
  001f3	8d 85 90 fe ff
	ff		 lea	 eax, DWORD PTR $T5[ebp]
  001f9	50		 push	 eax
  001fa	c6 45 fc 0b	 mov	 BYTE PTR __$EHRec$[ebp+8], 11 ; 0000000bH
  001fe	e8 00 00 00 00	 call	 ?GetElementCommonEnvironment@CTool@@IBE?AVCElementCommonEnvironment@@XZ ; CTool::GetElementCommonEnvironment
  00203	8b f0		 mov	 esi, eax
  00205	ff b5 50 ff ff
	ff		 push	 DWORD PTR _eDateUnit$1$[ebp]
  0020b	c6 45 fc 0c	 mov	 BYTE PTR __$EHRec$[ebp+8], 12 ; 0000000cH
  0020f	8d 85 d8 fe ff
	ff		 lea	 eax, DWORD PTR $T6[ebp]
  00215	50		 push	 eax
  00216	8b 85 64 ff ff
	ff		 mov	 eax, DWORD PTR _this$GSCopy$1$[ebp]
  0021c	8d 8d 00 ff ff
	ff		 lea	 ecx, DWORD PTR $T7[ebp]
  00222	05 d0 00 00 00	 add	 eax, 208		; 000000d0H
  00227	50		 push	 eax
  00228	8d 85 30 ff ff
	ff		 lea	 eax, DWORD PTR $T9[ebp]
  0022e	50		 push	 eax
  0022f	e8 00 00 00 00	 call	 ?GetDrawingPoint@CPoints@@QBE?AVCPoint@@XZ ; CPoints::GetDrawingPoint
  00234	8b 8d 64 ff ff
	ff		 mov	 ecx, DWORD PTR _this$GSCopy$1$[ebp]
  0023a	50		 push	 eax
  0023b	8d 85 4e ff ff
	ff		 lea	 eax, DWORD PTR $T12[ebp]
  00241	50		 push	 eax
  00242	e8 00 00 00 00	 call	 ?GetVertScaleType@CTool@@IBE?AVCVertScaleType@@ABVCPoint@@@Z ; CTool::GetVertScaleType
  00247	8b 8d 64 ff ff
	ff		 mov	 ecx, DWORD PTR _this$GSCopy$1$[ebp]
  0024d	50		 push	 eax
  0024e	8d 85 28 ff ff
	ff		 lea	 eax, DWORD PTR $T8[ebp]
  00254	50		 push	 eax
  00255	e8 00 00 00 00	 call	 ?GetDisplayAttributes@CTool@@IBE?AVCDisplayAttributes@@XZ ; CTool::GetDisplayAttributes
  0025a	8b 8d 64 ff ff
	ff		 mov	 ecx, DWORD PTR _this$GSCopy$1$[ebp]
  00260	50		 push	 eax
  00261	8d 45 d0	 lea	 eax, DWORD PTR $T14[ebp]
  00264	50		 push	 eax
  00265	e8 00 00 00 00	 call	 ?GetDrawingRegions@CTool@@IBEABVCDrawingRegions@@XZ ; CTool::GetDrawingRegions
  0026a	8b c8		 mov	 ecx, eax
  0026c	e8 00 00 00 00	 call	 ?GetCurrentGraphPartRegion@CDrawingRegions@@QBE?AVCGraphPartRegion@@XZ ; CDrawingRegions::GetCurrentGraphPartRegion
  00271	8b 8d 64 ff ff
	ff		 mov	 ecx, DWORD PTR _this$GSCopy$1$[ebp]
  00277	50		 push	 eax
  00278	8d 85 38 ff ff
	ff		 lea	 eax, DWORD PTR $T10[ebp]
  0027e	50		 push	 eax
  0027f	8b 01		 mov	 eax, DWORD PTR [ecx]
  00281	ff 50 2c	 call	 DWORD PTR [eax+44]
  00284	50		 push	 eax
  00285	8b cb		 mov	 ecx, ebx
  00287	e8 00 00 00 00	 call	 ?GetPriceRangeDiv@CElementCommonEnvironment@@QAEAAHXZ ; CElementCommonEnvironment::GetPriceRangeDiv
  0028c	50		 push	 eax
  0028d	8b cf		 mov	 ecx, edi
  0028f	e8 00 00 00 00	 call	 ?GetEquiDiv@CElementCommonEnvironment@@QAEAAHXZ ; CElementCommonEnvironment::GetEquiDiv
  00294	50		 push	 eax
  00295	8b ce		 mov	 ecx, esi
  00297	e8 00 00 00 00	 call	 ?GetDataType@CElementCommonEnvironment@@QAEAAVCDataTypeEnvironment@@XZ ; CElementCommonEnvironment::GetDataType
  0029c	8b b5 48 ff ff
	ff		 mov	 esi, DWORD PTR ___$ReturnUdt$GSCopy$1$[ebp]
  002a2	8b ce		 mov	 ecx, esi
  002a4	50		 push	 eax
  002a5	e8 00 00 00 00	 call	 ??0CTwoPointDrawingData@@QAE@ABVCDataTypeEnvironment@@ABH1PAVCTextPosition@@ABVCLineExtEnvironment@@ABVCGraphPartRegion@@ABVCDisplayAttributes@@ABVCVertScaleType@@ABVCPoints@@7W4HORZSCALEDRAWERTYPE@CScaleBaseData@@@Z ; CTwoPointDrawingData::CTwoPointDrawingData
  002aa	8d 8d c8 fe ff
	ff		 lea	 ecx, DWORD PTR $T5[ebp+56]
  002b0	ff 15 00 00 00
	00		 call	 DWORD PTR __imp_??1?$CStringT@DV?$StrTraitMFC_DLL@DV?$ChTraitsCRT@D@ATL@@@@@ATL@@QAE@XZ
  002b6	8d 8d c4 fe ff
	ff		 lea	 ecx, DWORD PTR $T5[ebp+52]
  002bc	ff 15 00 00 00
	00		 call	 DWORD PTR __imp_??1?$CStringT@DV?$StrTraitMFC_DLL@DV?$ChTraitsCRT@D@ATL@@@@@ATL@@QAE@XZ
  002c2	8d 8d c0 fe ff
	ff		 lea	 ecx, DWORD PTR $T5[ebp+48]
  002c8	ff 15 00 00 00
	00		 call	 DWORD PTR __imp_??1?$CStringT@DV?$StrTraitMFC_DLL@DV?$ChTraitsCRT@D@ATL@@@@@ATL@@QAE@XZ
  002ce	8d 8d 80 fe ff
	ff		 lea	 ecx, DWORD PTR $T4[ebp+56]
  002d4	ff 15 00 00 00
	00		 call	 DWORD PTR __imp_??1?$CStringT@DV?$StrTraitMFC_DLL@DV?$ChTraitsCRT@D@ATL@@@@@ATL@@QAE@XZ
  002da	8d 8d 7c fe ff
	ff		 lea	 ecx, DWORD PTR $T4[ebp+52]
  002e0	ff 15 00 00 00
	00		 call	 DWORD PTR __imp_??1?$CStringT@DV?$StrTraitMFC_DLL@DV?$ChTraitsCRT@D@ATL@@@@@ATL@@QAE@XZ
  002e6	8d 8d 78 fe ff
	ff		 lea	 ecx, DWORD PTR $T4[ebp+48]
  002ec	ff 15 00 00 00
	00		 call	 DWORD PTR __imp_??1?$CStringT@DV?$StrTraitMFC_DLL@DV?$ChTraitsCRT@D@ATL@@@@@ATL@@QAE@XZ
  002f2	8d 8d 38 fe ff
	ff		 lea	 ecx, DWORD PTR $T3[ebp+56]
  002f8	ff 15 00 00 00
	00		 call	 DWORD PTR __imp_??1?$CStringT@DV?$StrTraitMFC_DLL@DV?$ChTraitsCRT@D@ATL@@@@@ATL@@QAE@XZ
  002fe	8d 8d 34 fe ff
	ff		 lea	 ecx, DWORD PTR $T3[ebp+52]
  00304	ff 15 00 00 00
	00		 call	 DWORD PTR __imp_??1?$CStringT@DV?$StrTraitMFC_DLL@DV?$ChTraitsCRT@D@ATL@@@@@ATL@@QAE@XZ
  0030a	8d 8d 30 fe ff
	ff		 lea	 ecx, DWORD PTR $T3[ebp+48]
  00310	ff 15 00 00 00
	00		 call	 DWORD PTR __imp_??1?$CStringT@DV?$StrTraitMFC_DLL@DV?$ChTraitsCRT@D@ATL@@@@@ATL@@QAE@XZ
  00316	8d 8d 14 ff ff
	ff		 lea	 ecx, DWORD PTR $T7[ebp+20]
  0031c	ff 15 00 00 00
	00		 call	 DWORD PTR __imp_??1?$CStringT@DV?$StrTraitMFC_DLL@DV?$ChTraitsCRT@D@ATL@@@@@ATL@@QAE@XZ
  00322	8d 8d ec fe ff
	ff		 lea	 ecx, DWORD PTR $T6[ebp+20]
  00328	ff 15 00 00 00
	00		 call	 DWORD PTR __imp_??1?$CStringT@DV?$StrTraitMFC_DLL@DV?$ChTraitsCRT@D@ATL@@@@@ATL@@QAE@XZ
  0032e	8d 8d f0 fd ff
	ff		 lea	 ecx, DWORD PTR $T2[ebp+56]
  00334	ff 15 00 00 00
	00		 call	 DWORD PTR __imp_??1?$CStringT@DV?$StrTraitMFC_DLL@DV?$ChTraitsCRT@D@ATL@@@@@ATL@@QAE@XZ
  0033a	8d 8d ec fd ff
	ff		 lea	 ecx, DWORD PTR $T2[ebp+52]
  00340	ff 15 00 00 00
	00		 call	 DWORD PTR __imp_??1?$CStringT@DV?$StrTraitMFC_DLL@DV?$ChTraitsCRT@D@ATL@@@@@ATL@@QAE@XZ
  00346	8d 8d e8 fd ff
	ff		 lea	 ecx, DWORD PTR $T2[ebp+48]
  0034c	ff 15 00 00 00
	00		 call	 DWORD PTR __imp_??1?$CStringT@DV?$StrTraitMFC_DLL@DV?$ChTraitsCRT@D@ATL@@@@@ATL@@QAE@XZ
; File D:\git\src\IBK\IBK_DRFN\ProjSrc\SrcChartEx\ChartAddIn\ChartAnalysisToolAddIn\Include_AddIn_133101\I133101\_IString.h

; 45   : 		if( m_pIStrData)

  00352	8b 8d 44 ff ff
	ff		 mov	 ecx, DWORD PTR _szRQ$[ebp+4]
  00358	c6 45 fc 0d	 mov	 BYTE PTR __$EHRec$[ebp+8], 13 ; 0000000dH
  0035c	85 c9		 test	 ecx, ecx
  0035e	74 06		 je	 SHORT $LN91@GetTwoPoin

; 46   : 		{
; 47   : 			m_pIStrData->Release();

  00360	8b 01		 mov	 eax, DWORD PTR [ecx]
  00362	51		 push	 ecx
  00363	ff 50 08	 call	 DWORD PTR [eax+8]
$LN91@GetTwoPoin:
; File D:\git\src\IBK\IBK_DRFN\ProjSrc\SrcChartEx\ChartAddIn\ChartAnalysisToolAddIn\AnalysisTool\PointTool.cpp

; 816  : 	return CTwoPointDrawingData(

  00366	8d 8d 68 ff ff
	ff		 lea	 ecx, DWORD PTR _calData$[ebp]
  0036c	e8 00 00 00 00	 call	 ??1CCoordinateCalculatorData@@QAE@XZ ; CCoordinateCalculatorData::~CCoordinateCalculatorData
  00371	8d 8d 54 ff ff
	ff		 lea	 ecx, DWORD PTR _strPacketType$[ebp]
  00377	ff 15 00 00 00
	00		 call	 DWORD PTR __imp_??1?$CStringT@DV?$StrTraitMFC_DLL@DV?$ChTraitsCRT@D@ATL@@@@@ATL@@QAE@XZ
  0037d	8d 8d 60 ff ff
	ff		 lea	 ecx, DWORD PTR _strDataType$[ebp]
  00383	ff 15 00 00 00
	00		 call	 DWORD PTR __imp_??1?$CStringT@DV?$StrTraitMFC_DLL@DV?$ChTraitsCRT@D@ATL@@@@@ATL@@QAE@XZ
; File D:\git\src\IBK\IBK_DRFN\ProjSrc\SrcChartEx\ChartAddIn\ChartAnalysisToolAddIn\Include_AddIn_133101\I133101\_IString.h

; 45   : 		if( m_pIStrData)

  00389	8b 95 5c ff ff
	ff		 mov	 edx, DWORD PTR _szHelpMsg$[ebp+4]
  0038f	c7 45 fc 0e 00
	00 00		 mov	 DWORD PTR __$EHRec$[ebp+8], 14 ; 0000000eH
  00396	85 d2		 test	 edx, edx
  00398	74 06		 je	 SHORT $LN98@GetTwoPoin

; 46   : 		{
; 47   : 			m_pIStrData->Release();

  0039a	8b 0a		 mov	 ecx, DWORD PTR [edx]
  0039c	52		 push	 edx
  0039d	ff 51 08	 call	 DWORD PTR [ecx+8]
$LN98@GetTwoPoin:
; File D:\git\src\IBK\IBK_DRFN\ProjSrc\SrcChartEx\ChartAddIn\ChartAnalysisToolAddIn\AnalysisTool\PointTool.cpp

; 830  : }

  003a0	8b c6		 mov	 eax, esi
  003a2	8b 4d f4	 mov	 ecx, DWORD PTR __$EHRec$[ebp]
  003a5	64 89 0d 00 00
	00 00		 mov	 DWORD PTR fs:0, ecx
  003ac	59		 pop	 ecx
  003ad	5f		 pop	 edi
  003ae	5e		 pop	 esi
  003af	5b		 pop	 ebx
  003b0	8b 4d f0	 mov	 ecx, DWORD PTR __$ArrayPad$[ebp]
  003b3	33 cd		 xor	 ecx, ebp
  003b5	e8 00 00 00 00	 call	 @__security_check_cookie@4
  003ba	8b e5		 mov	 esp, ebp
  003bc	5d		 pop	 ebp
  003bd	c2 04 00	 ret	 4
_TEXT	ENDS
;	COMDAT text$x
text$x	SEGMENT
__unwindfunclet$?GetTwoPointDrawingData@CTwoPointDownTool@@ABE?AVCTwoPointDrawingData@@XZ$0:
  00000	8d 8d 58 ff ff
	ff		 lea	 ecx, DWORD PTR _szHelpMsg$[ebp]
  00006	e9 00 00 00 00	 jmp	 ??1ILPCSTR133101@@QAE@XZ ; ILPCSTR133101::~ILPCSTR133101
__unwindfunclet$?GetTwoPointDrawingData@CTwoPointDownTool@@ABE?AVCTwoPointDrawingData@@XZ$1:
  0000b	8d 8d 60 ff ff
	ff		 lea	 ecx, DWORD PTR _strDataType$[ebp]
  00011	ff 25 00 00 00
	00		 jmp	 DWORD PTR __imp_??1?$CStringT@DV?$StrTraitMFC_DLL@DV?$ChTraitsCRT@D@ATL@@@@@ATL@@QAE@XZ
__unwindfunclet$?GetTwoPointDrawingData@CTwoPointDownTool@@ABE?AVCTwoPointDrawingData@@XZ$2:
  00017	8d 8d 54 ff ff
	ff		 lea	 ecx, DWORD PTR _strPacketType$[ebp]
  0001d	ff 25 00 00 00
	00		 jmp	 DWORD PTR __imp_??1?$CStringT@DV?$StrTraitMFC_DLL@DV?$ChTraitsCRT@D@ATL@@@@@ATL@@QAE@XZ
__unwindfunclet$?GetTwoPointDrawingData@CTwoPointDownTool@@ABE?AVCTwoPointDrawingData@@XZ$3:
  00023	8d 4d c8	 lea	 ecx, DWORD PTR $T13[ebp]
  00026	e9 00 00 00 00	 jmp	 ??1CPoints@@QAE@XZ
__unwindfunclet$?GetTwoPointDrawingData@CTwoPointDownTool@@ABE?AVCTwoPointDrawingData@@XZ$4:
  0002b	8d 8d 68 ff ff
	ff		 lea	 ecx, DWORD PTR _calData$[ebp]
  00031	e9 00 00 00 00	 jmp	 ??1CCoordinateCalculatorData@@QAE@XZ ; CCoordinateCalculatorData::~CCoordinateCalculatorData
__unwindfunclet$?GetTwoPointDrawingData@CTwoPointDownTool@@ABE?AVCTwoPointDrawingData@@XZ$5:
  00036	8d 8d 40 ff ff
	ff		 lea	 ecx, DWORD PTR _szRQ$[ebp]
  0003c	e9 00 00 00 00	 jmp	 ??1ILPCSTR133101@@QAE@XZ ; ILPCSTR133101::~ILPCSTR133101
__unwindfunclet$?GetTwoPointDrawingData@CTwoPointDownTool@@ABE?AVCTwoPointDrawingData@@XZ$6:
  00041	8d 8d b8 fd ff
	ff		 lea	 ecx, DWORD PTR $T2[ebp]
  00047	e9 00 00 00 00	 jmp	 ??1CElementCommonEnvironment@@QAE@XZ
__unwindfunclet$?GetTwoPointDrawingData@CTwoPointDownTool@@ABE?AVCTwoPointDrawingData@@XZ$7:
  0004c	8d 8d d8 fe ff
	ff		 lea	 ecx, DWORD PTR $T6[ebp]
  00052	e9 00 00 00 00	 jmp	 ??1CPoints@@QAE@XZ
__unwindfunclet$?GetTwoPointDrawingData@CTwoPointDownTool@@ABE?AVCTwoPointDrawingData@@XZ$8:
  00057	8d 8d 00 ff ff
	ff		 lea	 ecx, DWORD PTR $T7[ebp]
  0005d	e9 00 00 00 00	 jmp	 ??1CPoints@@QAE@XZ
__unwindfunclet$?GetTwoPointDrawingData@CTwoPointDownTool@@ABE?AVCTwoPointDrawingData@@XZ$9:
  00062	8d 8d 00 fe ff
	ff		 lea	 ecx, DWORD PTR $T3[ebp]
  00068	e9 00 00 00 00	 jmp	 ??1CElementCommonEnvironment@@QAE@XZ
__unwindfunclet$?GetTwoPointDrawingData@CTwoPointDownTool@@ABE?AVCTwoPointDrawingData@@XZ$10:
  0006d	8d 8d 48 fe ff
	ff		 lea	 ecx, DWORD PTR $T4[ebp]
  00073	e9 00 00 00 00	 jmp	 ??1CElementCommonEnvironment@@QAE@XZ
__unwindfunclet$?GetTwoPointDrawingData@CTwoPointDownTool@@ABE?AVCTwoPointDrawingData@@XZ$11:
  00078	8d 8d 90 fe ff
	ff		 lea	 ecx, DWORD PTR $T5[ebp]
  0007e	e9 00 00 00 00	 jmp	 ??1CElementCommonEnvironment@@QAE@XZ
  00083	cc		 int	 3
  00084	cc		 int	 3
  00085	cc		 int	 3
  00086	cc		 int	 3
  00087	cc		 int	 3
__ehhandler$?GetTwoPointDrawingData@CTwoPointDownTool@@ABE?AVCTwoPointDrawingData@@XZ:
  00088	90		 npad	 1
  00089	90		 npad	 1
  0008a	8b 54 24 08	 mov	 edx, DWORD PTR [esp+8]
  0008e	8d 42 0c	 lea	 eax, DWORD PTR [edx+12]
  00091	8b 8a b4 fd ff
	ff		 mov	 ecx, DWORD PTR [edx-588]
  00097	33 c8		 xor	 ecx, eax
  00099	e8 00 00 00 00	 call	 @__security_check_cookie@4
  0009e	8b 4a fc	 mov	 ecx, DWORD PTR [edx-4]
  000a1	33 c8		 xor	 ecx, eax
  000a3	e8 00 00 00 00	 call	 @__security_check_cookie@4
  000a8	b8 00 00 00 00	 mov	 eax, OFFSET __ehfuncinfo$?GetTwoPointDrawingData@CTwoPointDownTool@@ABE?AVCTwoPointDrawingData@@XZ
  000ad	e9 00 00 00 00	 jmp	 ___CxxFrameHandler3
text$x	ENDS
?GetTwoPointDrawingData@CTwoPointDownTool@@ABE?AVCTwoPointDrawingData@@XZ ENDP ; CTwoPointDownTool::GetTwoPointDrawingData
; Function compile flags: /Ogtp
; File D:\git\src\IBK\IBK_DRFN\ProjSrc\SrcChartEx\ChartAddIn\ChartAnalysisToolAddIn\AnalysisTool\PointTool.cpp
;	COMDAT ?GetDownPoints@CTwoPointDownTool@@IBE?AVCPoints@@XZ
_TEXT	SEGMENT
___$ReturnUdt$ = 8					; size = 4
?GetDownPoints@CTwoPointDownTool@@IBE?AVCPoints@@XZ PROC ; CTwoPointDownTool::GetDownPoints, COMDAT
; _this$ = ecx

; 786  : {

  00000	55		 push	 ebp
  00001	8b ec		 mov	 ebp, esp
  00003	56		 push	 esi
  00004	57		 push	 edi

; 787  : 	return m_downPoints;

  00005	8b 7d 08	 mov	 edi, DWORD PTR ___$ReturnUdt$[ebp]
  00008	8d b1 d0 00 00
	00		 lea	 esi, DWORD PTR [ecx+208]
  0000e	56		 push	 esi
  0000f	8b cf		 mov	 ecx, edi
  00011	e8 00 00 00 00	 call	 ??0CCoordinate@@QAE@ABV0@@Z ; CCoordinate::CCoordinate
  00016	8b 4e 20	 mov	 ecx, DWORD PTR [esi+32]
  00019	8b c7		 mov	 eax, edi
  0001b	8b 56 24	 mov	 edx, DWORD PTR [esi+36]
  0001e	89 4f 20	 mov	 DWORD PTR [edi+32], ecx
  00021	89 57 24	 mov	 DWORD PTR [edi+36], edx
  00024	5f		 pop	 edi
  00025	5e		 pop	 esi

; 788  : }

  00026	5d		 pop	 ebp
  00027	c2 04 00	 ret	 4
?GetDownPoints@CTwoPointDownTool@@IBE?AVCPoints@@XZ ENDP ; CTwoPointDownTool::GetDownPoints
_TEXT	ENDS
; Function compile flags: /Ogtp
; File D:\git\src\IBK\IBK_DRFN\ProjSrc\SrcChartEx\ChartAddIn\ChartAnalysisToolAddIn\AnalysisTool\PointTool.cpp
;	COMDAT ?Draw_UpPoint@CTwoPointDownTool@@MAEXPAVCDC@@@Z
_TEXT	SEGMENT
_ptsEnd$2 = -500					; size = 40
_ptsStart$3 = -460					; size = 40
$T4 = -420						; size = 8
_cdStart$5 = -412					; size = 32
_cdEnd$6 = -380						; size = 32
_endPoint$7 = -348					; size = 8
$T8 = -348						; size = 8
_startPoint$9 = -340					; size = 8
$T10 = -340						; size = 8
_dMin$11 = -332						; size = 8
_dMax$12 = -324						; size = 8
$T13 = -316						; size = 4
$T14 = -316						; size = 4
_$S13$ = -312						; size = 200
_$S14$15 = -112						; size = 96
__$ArrayPad$ = -16					; size = 4
__$EHRec$ = -12						; size = 12
_pDC$ = 8						; size = 4
?Draw_UpPoint@CTwoPointDownTool@@MAEXPAVCDC@@@Z PROC	; CTwoPointDownTool::Draw_UpPoint, COMDAT
; _this$ = ecx

; 757  : {

  00000	55		 push	 ebp
  00001	8b ec		 mov	 ebp, esp
  00003	6a ff		 push	 -1
  00005	68 00 00 00 00	 push	 __ehhandler$?Draw_UpPoint@CTwoPointDownTool@@MAEXPAVCDC@@@Z
  0000a	64 a1 00 00 00
	00		 mov	 eax, DWORD PTR fs:0
  00010	50		 push	 eax
  00011	81 ec e8 01 00
	00		 sub	 esp, 488		; 000001e8H
  00017	a1 00 00 00 00	 mov	 eax, DWORD PTR ___security_cookie
  0001c	33 c5		 xor	 eax, ebp
  0001e	89 45 f0	 mov	 DWORD PTR __$ArrayPad$[ebp], eax
  00021	53		 push	 ebx
  00022	56		 push	 esi
  00023	57		 push	 edi
  00024	50		 push	 eax
  00025	8d 45 f4	 lea	 eax, DWORD PTR __$EHRec$[ebp]
  00028	64 a3 00 00 00
	00		 mov	 DWORD PTR fs:0, eax
  0002e	8b f1		 mov	 esi, ecx
  00030	8b 7d 08	 mov	 edi, DWORD PTR _pDC$[ebp]

; 758  : 	// (2008/8/15 - Seung-Won, Bae) Add option for using price range.
; 759  : 	CTwoPointDrawingData &drawingData = GetTwoPointDrawingData();

  00033	8d 85 c8 fe ff
	ff		 lea	 eax, DWORD PTR _$S13$[ebp]
  00039	50		 push	 eax
  0003a	e8 00 00 00 00	 call	 ?GetTwoPointDrawingData@CTwoPointDownTool@@ABE?AVCTwoPointDrawingData@@XZ ; CTwoPointDownTool::GetTwoPointDrawingData

; 760  : 	if( CDlgAnalysisToolSet::G_PRICE_RANGE_DIV_CHECK == drawingData.GetPriceRangeDivType())

  0003f	8d 8d c8 fe ff
	ff		 lea	 ecx, DWORD PTR _$S13$[ebp]
  00045	c7 45 fc 00 00
	00 00		 mov	 DWORD PTR __$EHRec$[ebp+8], 0
  0004c	e8 00 00 00 00	 call	 ?GetPriceRangeDivType@CDrawingData@@QBEHXZ ; CDrawingData::GetPriceRangeDivType
  00051	83 f8 01	 cmp	 eax, 1
  00054	0f 85 c5 01 00
	00		 jne	 $LN27@Draw_UpPoi

; 761  : 	{
; 762  : 		CPoints ptsStart = drawingData.GetStartPoints();

  0005a	8d 85 34 fe ff
	ff		 lea	 eax, DWORD PTR _ptsStart$3[ebp]
  00060	50		 push	 eax
  00061	8d 8d c8 fe ff
	ff		 lea	 ecx, DWORD PTR _$S13$[ebp]
  00067	e8 00 00 00 00	 call	 ?GetStartPoints@CTwoPointDrawingData@@QBE?AVCPoints@@XZ ; CTwoPointDrawingData::GetStartPoints

; 763  : 		CPoints ptsEnd = drawingData.GetEndPoints();

  0006c	8d 85 0c fe ff
	ff		 lea	 eax, DWORD PTR _ptsEnd$2[ebp]
  00072	c6 45 fc 01	 mov	 BYTE PTR __$EHRec$[ebp+8], 1
  00076	50		 push	 eax
  00077	8d 8d c8 fe ff
	ff		 lea	 ecx, DWORD PTR _$S13$[ebp]
  0007d	e8 00 00 00 00	 call	 ?GetEndPoints@CTwoPointDrawingData@@QBE?AVCPoints@@XZ ; CTwoPointDrawingData::GetEndPoints
  00082	0f 57 c0	 xorps	 xmm0, xmm0
  00085	c6 45 fc 02	 mov	 BYTE PTR __$EHRec$[ebp+8], 2

; 764  : 		double dMax = 0.0;

  00089	f2 0f 11 85 bc
	fe ff ff	 movsd	 QWORD PTR _dMax$12[ebp], xmm0

; 765  : 		double dMin = DBL_MAX;

  00091	f2 0f 10 05 00
	00 00 00	 movsd	 xmm0, QWORD PTR __real@7fefffffffffffff

; 766  : 		CCoordinateCalculator& coordinateCalculator = CCoordinateCalculatorFinder::FindCoordinateCalculator(false);

  00099	6a 00		 push	 0
  0009b	f2 0f 11 85 b4
	fe ff ff	 movsd	 QWORD PTR _dMin$11[ebp], xmm0
  000a3	e8 00 00 00 00	 call	 ?FindCoordinateCalculator@CCoordinateCalculatorFinder@@SAAAVCCoordinateCalculator@@_N@Z ; CCoordinateCalculatorFinder::FindCoordinateCalculator
  000a8	83 c4 04	 add	 esp, 4

; 767  : 		const CCoordinateCalculatorData &calData = CTool::GetCoordinateCalculatorData( ptsStart.GetDrawingPoint());

  000ab	8d 8d 34 fe ff
	ff		 lea	 ecx, DWORD PTR _ptsStart$3[ebp]
  000b1	8b d8		 mov	 ebx, eax
  000b3	8d 85 a4 fe ff
	ff		 lea	 eax, DWORD PTR $T8[ebp]
  000b9	50		 push	 eax
  000ba	e8 00 00 00 00	 call	 ?GetDrawingPoint@CPoints@@QBE?AVCPoint@@XZ ; CPoints::GetDrawingPoint
  000bf	50		 push	 eax
  000c0	8d 45 90	 lea	 eax, DWORD PTR _$S14$15[ebp]
  000c3	8b ce		 mov	 ecx, esi
  000c5	50		 push	 eax
  000c6	e8 00 00 00 00	 call	 ?GetCoordinateCalculatorData@CTool@@QBE?AVCCoordinateCalculatorData@@ABVCPoint@@@Z ; CTool::GetCoordinateCalculatorData

; 768  : 		CCoordinate cdStart = coordinateCalculator.AbsoluteToRelative( calData, ptsStart.GetDrawingPoint());

  000cb	8d 85 ac fe ff
	ff		 lea	 eax, DWORD PTR $T10[ebp]
  000d1	c6 45 fc 03	 mov	 BYTE PTR __$EHRec$[ebp+8], 3
  000d5	50		 push	 eax
  000d6	8d 8d 34 fe ff
	ff		 lea	 ecx, DWORD PTR _ptsStart$3[ebp]
  000dc	e8 00 00 00 00	 call	 ?GetDrawingPoint@CPoints@@QBE?AVCPoint@@XZ ; CPoints::GetDrawingPoint
  000e1	50		 push	 eax
  000e2	8d 45 90	 lea	 eax, DWORD PTR _$S14$15[ebp]
  000e5	8b cb		 mov	 ecx, ebx
  000e7	50		 push	 eax
  000e8	8d 85 64 fe ff
	ff		 lea	 eax, DWORD PTR _cdStart$5[ebp]
  000ee	50		 push	 eax
  000ef	e8 00 00 00 00	 call	 ?AbsoluteToRelative@CCoordinateCalculator@@QBE?AVCCoordinate@@ABVCCoordinateCalculatorData@@ABVCPoint@@@Z ; CCoordinateCalculator::AbsoluteToRelative

; 769  : 		CCoordinate cdEnd = coordinateCalculator.AbsoluteToRelative( calData, ptsEnd.GetDrawingPoint());

  000f4	8d 85 5c fe ff
	ff		 lea	 eax, DWORD PTR $T4[ebp]
  000fa	c6 45 fc 04	 mov	 BYTE PTR __$EHRec$[ebp+8], 4
  000fe	50		 push	 eax
  000ff	8d 8d 0c fe ff
	ff		 lea	 ecx, DWORD PTR _ptsEnd$2[ebp]
  00105	e8 00 00 00 00	 call	 ?GetDrawingPoint@CPoints@@QBE?AVCPoint@@XZ ; CPoints::GetDrawingPoint
  0010a	50		 push	 eax
  0010b	8d 45 90	 lea	 eax, DWORD PTR _$S14$15[ebp]
  0010e	8b cb		 mov	 ecx, ebx
  00110	50		 push	 eax
  00111	8d 85 84 fe ff
	ff		 lea	 eax, DWORD PTR _cdEnd$6[ebp]
  00117	50		 push	 eax
  00118	e8 00 00 00 00	 call	 ?AbsoluteToRelative@CCoordinateCalculator@@QBE?AVCCoordinate@@ABVCCoordinateCalculatorData@@ABVCPoint@@@Z ; CCoordinateCalculator::AbsoluteToRelative

; 770  : 		if( CTwoPointElement::UpdatePointsForPriceRangeOption( calData, cdStart, cdEnd, dMax, dMin))

  0011d	8d 85 b4 fe ff
	ff		 lea	 eax, DWORD PTR _dMin$11[ebp]
  00123	c6 45 fc 05	 mov	 BYTE PTR __$EHRec$[ebp+8], 5
  00127	50		 push	 eax
  00128	8d 85 bc fe ff
	ff		 lea	 eax, DWORD PTR _dMax$12[ebp]
  0012e	50		 push	 eax
  0012f	8d 85 84 fe ff
	ff		 lea	 eax, DWORD PTR _cdEnd$6[ebp]
  00135	50		 push	 eax
  00136	8d 85 64 fe ff
	ff		 lea	 eax, DWORD PTR _cdStart$5[ebp]
  0013c	50		 push	 eax
  0013d	8d 45 90	 lea	 eax, DWORD PTR _$S14$15[ebp]
  00140	50		 push	 eax
  00141	e8 00 00 00 00	 call	 ?UpdatePointsForPriceRangeOption@CTwoPointElement@@SAHABVCCoordinateCalculatorData@@AAVCCoordinate@@1AAN2@Z ; CTwoPointElement::UpdatePointsForPriceRangeOption
  00146	83 c4 14	 add	 esp, 20			; 00000014H
  00149	85 c0		 test	 eax, eax
  0014b	0f 84 92 00 00
	00		 je	 $LN3@Draw_UpPoi

; 771  : 		{
; 772  : 			cdStart.SetY( dMax);

  00151	8d 85 bc fe ff
	ff		 lea	 eax, DWORD PTR _dMax$12[ebp]
  00157	50		 push	 eax
  00158	8d 8d 64 fe ff
	ff		 lea	 ecx, DWORD PTR _cdStart$5[ebp]
  0015e	e8 00 00 00 00	 call	 ?SetY@CCoordinate@@QAEXABN@Z ; CCoordinate::SetY

; 773  : 			cdEnd.SetY( dMin);

  00163	8d 85 b4 fe ff
	ff		 lea	 eax, DWORD PTR _dMin$11[ebp]
  00169	50		 push	 eax
  0016a	8d 8d 84 fe ff
	ff		 lea	 ecx, DWORD PTR _cdEnd$6[ebp]
  00170	e8 00 00 00 00	 call	 ?SetY@CCoordinate@@QAEXABN@Z ; CCoordinate::SetY

; 774  : 			CPoint startPoint = coordinateCalculator.RelativeToAbsolute_NoAutoPrice(calData, cdStart);

  00175	8d 85 64 fe ff
	ff		 lea	 eax, DWORD PTR _cdStart$5[ebp]
  0017b	8b cb		 mov	 ecx, ebx
  0017d	50		 push	 eax
  0017e	8d 45 90	 lea	 eax, DWORD PTR _$S14$15[ebp]
  00181	50		 push	 eax
  00182	8d 85 ac fe ff
	ff		 lea	 eax, DWORD PTR _startPoint$9[ebp]
  00188	50		 push	 eax
  00189	e8 00 00 00 00	 call	 ?RelativeToAbsolute_NoAutoPrice@CCoordinateCalculator@@QBE?AVCPoint@@ABVCCoordinateCalculatorData@@ABVCCoordinate@@@Z ; CCoordinateCalculator::RelativeToAbsolute_NoAutoPrice

; 775  : 			CPoint endPoint = coordinateCalculator.RelativeToAbsolute_NoAutoPrice(calData, cdEnd);

  0018e	8d 85 84 fe ff
	ff		 lea	 eax, DWORD PTR _cdEnd$6[ebp]
  00194	8b cb		 mov	 ecx, ebx
  00196	50		 push	 eax
  00197	8d 45 90	 lea	 eax, DWORD PTR _$S14$15[ebp]
  0019a	50		 push	 eax
  0019b	8d 85 a4 fe ff
	ff		 lea	 eax, DWORD PTR _endPoint$7[ebp]
  001a1	50		 push	 eax
  001a2	e8 00 00 00 00	 call	 ?RelativeToAbsolute_NoAutoPrice@CCoordinateCalculator@@QBE?AVCPoint@@ABVCCoordinateCalculatorData@@ABVCCoordinate@@@Z ; CCoordinateCalculator::RelativeToAbsolute_NoAutoPrice

; 776  : 			drawingData.SetStartYPoints_Pos( startPoint.y);

  001a7	8b 85 b0 fe ff
	ff		 mov	 eax, DWORD PTR _startPoint$9[ebp+4]
  001ad	8d 8d c8 fe ff
	ff		 lea	 ecx, DWORD PTR _$S13$[ebp]
  001b3	89 85 c4 fe ff
	ff		 mov	 DWORD PTR $T14[ebp], eax
  001b9	8d 85 c4 fe ff
	ff		 lea	 eax, DWORD PTR $T14[ebp]
  001bf	50		 push	 eax
  001c0	e8 00 00 00 00	 call	 ?SetStartYPoints_Pos@CTwoPointDrawingData@@QAEXABH@Z ; CTwoPointDrawingData::SetStartYPoints_Pos

; 777  : 			drawingData.SetEndYPoints_Pos( endPoint.y);

  001c5	8b 85 a8 fe ff
	ff		 mov	 eax, DWORD PTR _endPoint$7[ebp+4]
  001cb	8d 8d c8 fe ff
	ff		 lea	 ecx, DWORD PTR _$S13$[ebp]
  001d1	89 85 c4 fe ff
	ff		 mov	 DWORD PTR $T13[ebp], eax
  001d7	8d 85 c4 fe ff
	ff		 lea	 eax, DWORD PTR $T13[ebp]
  001dd	50		 push	 eax
  001de	e8 00 00 00 00	 call	 ?SetEndYPoints_Pos@CTwoPointDrawingData@@QAEXABH@Z ; CTwoPointDrawingData::SetEndYPoints_Pos
$LN3@Draw_UpPoi:

; 778  : 		}
; 779  : 	}

  001e3	8d 8d 98 fe ff
	ff		 lea	 ecx, DWORD PTR _cdEnd$6[ebp+20]
  001e9	ff 15 00 00 00
	00		 call	 DWORD PTR __imp_??1?$CStringT@DV?$StrTraitMFC_DLL@DV?$ChTraitsCRT@D@ATL@@@@@ATL@@QAE@XZ
  001ef	8d 8d 78 fe ff
	ff		 lea	 ecx, DWORD PTR _cdStart$5[ebp+20]
  001f5	ff 15 00 00 00
	00		 call	 DWORD PTR __imp_??1?$CStringT@DV?$StrTraitMFC_DLL@DV?$ChTraitsCRT@D@ATL@@@@@ATL@@QAE@XZ
  001fb	8d 4d 90	 lea	 ecx, DWORD PTR _$S14$15[ebp]
  001fe	e8 00 00 00 00	 call	 ??1CCoordinateCalculatorData@@QAE@XZ ; CCoordinateCalculatorData::~CCoordinateCalculatorData
  00203	8d 8d 20 fe ff
	ff		 lea	 ecx, DWORD PTR _ptsEnd$2[ebp+20]
  00209	ff 15 00 00 00
	00		 call	 DWORD PTR __imp_??1?$CStringT@DV?$StrTraitMFC_DLL@DV?$ChTraitsCRT@D@ATL@@@@@ATL@@QAE@XZ
  0020f	8d 8d 48 fe ff
	ff		 lea	 ecx, DWORD PTR _ptsStart$3[ebp+20]
  00215	c6 45 fc 00	 mov	 BYTE PTR __$EHRec$[ebp+8], 0
  00219	ff 15 00 00 00
	00		 call	 DWORD PTR __imp_??1?$CStringT@DV?$StrTraitMFC_DLL@DV?$ChTraitsCRT@D@ATL@@@@@ATL@@QAE@XZ
$LN27@Draw_UpPoi:

; 780  : 
; 781  : 	GetTwoPointDrawer().DrawTool(pDC, drawingData, R2_NOT);

  0021f	6a 06		 push	 6
  00221	8d 85 c8 fe ff
	ff		 lea	 eax, DWORD PTR _$S13$[ebp]
  00227	8b ce		 mov	 ecx, esi
  00229	50		 push	 eax
  0022a	8b 06		 mov	 eax, DWORD PTR [esi]
  0022c	57		 push	 edi
  0022d	ff 50 44	 call	 DWORD PTR [eax+68]
  00230	8b c8		 mov	 ecx, eax
  00232	e8 00 00 00 00	 call	 ?DrawTool@CTwoPointDrawer@@QAEXPAVCDC@@ABVCTwoPointDrawingData@@H@Z ; CTwoPointDrawer::DrawTool
  00237	8d 8d 7c ff ff
	ff		 lea	 ecx, DWORD PTR _$S13$[ebp+180]
  0023d	ff 15 00 00 00
	00		 call	 DWORD PTR __imp_??1?$CStringT@DV?$StrTraitMFC_DLL@DV?$ChTraitsCRT@D@ATL@@@@@ATL@@QAE@XZ
  00243	8d 8d 54 ff ff
	ff		 lea	 ecx, DWORD PTR _$S13$[ebp+140]
  00249	ff 15 00 00 00
	00		 call	 DWORD PTR __imp_??1?$CStringT@DV?$StrTraitMFC_DLL@DV?$ChTraitsCRT@D@ATL@@@@@ATL@@QAE@XZ
  0024f	8d 8d e8 fe ff
	ff		 lea	 ecx, DWORD PTR _$S13$[ebp+32]
  00255	ff 15 00 00 00
	00		 call	 DWORD PTR __imp_??1?$CStringT@DV?$StrTraitMFC_DLL@DV?$ChTraitsCRT@D@ATL@@@@@ATL@@QAE@XZ
  0025b	8d 8d e4 fe ff
	ff		 lea	 ecx, DWORD PTR _$S13$[ebp+28]
  00261	ff 15 00 00 00
	00		 call	 DWORD PTR __imp_??1?$CStringT@DV?$StrTraitMFC_DLL@DV?$ChTraitsCRT@D@ATL@@@@@ATL@@QAE@XZ
  00267	8d 8d e0 fe ff
	ff		 lea	 ecx, DWORD PTR _$S13$[ebp+24]
  0026d	ff 15 00 00 00
	00		 call	 DWORD PTR __imp_??1?$CStringT@DV?$StrTraitMFC_DLL@DV?$ChTraitsCRT@D@ATL@@@@@ATL@@QAE@XZ

; 782  : }

  00273	8b 4d f4	 mov	 ecx, DWORD PTR __$EHRec$[ebp]
  00276	64 89 0d 00 00
	00 00		 mov	 DWORD PTR fs:0, ecx
  0027d	59		 pop	 ecx
  0027e	5f		 pop	 edi
  0027f	5e		 pop	 esi
  00280	5b		 pop	 ebx
  00281	8b 4d f0	 mov	 ecx, DWORD PTR __$ArrayPad$[ebp]
  00284	33 cd		 xor	 ecx, ebp
  00286	e8 00 00 00 00	 call	 @__security_check_cookie@4
  0028b	8b e5		 mov	 esp, ebp
  0028d	5d		 pop	 ebp
  0028e	c2 04 00	 ret	 4
_TEXT	ENDS
;	COMDAT text$x
text$x	SEGMENT
__unwindfunclet$?Draw_UpPoint@CTwoPointDownTool@@MAEXPAVCDC@@@Z$0:
  00000	8d 8d c8 fe ff
	ff		 lea	 ecx, DWORD PTR _$S13$[ebp]
  00006	e9 00 00 00 00	 jmp	 ??1CTwoPointDrawingData@@QAE@XZ
__unwindfunclet$?Draw_UpPoint@CTwoPointDownTool@@MAEXPAVCDC@@@Z$1:
  0000b	8d 8d 34 fe ff
	ff		 lea	 ecx, DWORD PTR _ptsStart$3[ebp]
  00011	e9 00 00 00 00	 jmp	 ??1CPoints@@QAE@XZ
__unwindfunclet$?Draw_UpPoint@CTwoPointDownTool@@MAEXPAVCDC@@@Z$2:
  00016	8d 8d 0c fe ff
	ff		 lea	 ecx, DWORD PTR _ptsEnd$2[ebp]
  0001c	e9 00 00 00 00	 jmp	 ??1CPoints@@QAE@XZ
__unwindfunclet$?Draw_UpPoint@CTwoPointDownTool@@MAEXPAVCDC@@@Z$3:
  00021	8d 4d 90	 lea	 ecx, DWORD PTR _$S14$15[ebp]
  00024	e9 00 00 00 00	 jmp	 ??1CCoordinateCalculatorData@@QAE@XZ ; CCoordinateCalculatorData::~CCoordinateCalculatorData
__unwindfunclet$?Draw_UpPoint@CTwoPointDownTool@@MAEXPAVCDC@@@Z$4:
  00029	8d 8d 64 fe ff
	ff		 lea	 ecx, DWORD PTR _cdStart$5[ebp]
  0002f	e9 00 00 00 00	 jmp	 ??1CCoordinate@@QAE@XZ
__unwindfunclet$?Draw_UpPoint@CTwoPointDownTool@@MAEXPAVCDC@@@Z$5:
  00034	8d 8d 84 fe ff
	ff		 lea	 ecx, DWORD PTR _cdEnd$6[ebp]
  0003a	e9 00 00 00 00	 jmp	 ??1CCoordinate@@QAE@XZ
  0003f	cc		 int	 3
  00040	cc		 int	 3
  00041	cc		 int	 3
  00042	cc		 int	 3
  00043	cc		 int	 3
__ehhandler$?Draw_UpPoint@CTwoPointDownTool@@MAEXPAVCDC@@@Z:
  00044	90		 npad	 1
  00045	90		 npad	 1
  00046	8b 54 24 08	 mov	 edx, DWORD PTR [esp+8]
  0004a	8d 42 0c	 lea	 eax, DWORD PTR [edx+12]
  0004d	8b 8a 08 fe ff
	ff		 mov	 ecx, DWORD PTR [edx-504]
  00053	33 c8		 xor	 ecx, eax
  00055	e8 00 00 00 00	 call	 @__security_check_cookie@4
  0005a	8b 4a fc	 mov	 ecx, DWORD PTR [edx-4]
  0005d	33 c8		 xor	 ecx, eax
  0005f	e8 00 00 00 00	 call	 @__security_check_cookie@4
  00064	b8 00 00 00 00	 mov	 eax, OFFSET __ehfuncinfo$?Draw_UpPoint@CTwoPointDownTool@@MAEXPAVCDC@@@Z
  00069	e9 00 00 00 00	 jmp	 ___CxxFrameHandler3
text$x	ENDS
?Draw_UpPoint@CTwoPointDownTool@@MAEXPAVCDC@@@Z ENDP	; CTwoPointDownTool::Draw_UpPoint
; Function compile flags: /Ogtp
; File D:\git\src\IBK\IBK_DRFN\ProjSrc\SrcChartEx\ChartAddIn\ChartAnalysisToolAddIn\AnalysisTool\PointTool.cpp
; File C:\Program Files (x86)\Microsoft Visual Studio\2019\Community\VC\Tools\MSVC\14.29.30133\atlmfc\include\atltypes.h
; File D:\git\src\IBK\IBK_DRFN\ProjSrc\SrcChartEx\ChartAddIn\ChartAnalysisToolAddIn\AnalysisTool\PointTool.cpp
; File C:\Program Files (x86)\Microsoft Visual Studio\2019\Community\VC\Tools\MSVC\14.29.30133\atlmfc\include\atltypes.h
; File D:\git\src\IBK\IBK_DRFN\ProjSrc\SrcChartEx\ChartAddIn\ChartAnalysisToolAddIn\AnalysisTool\PointTool.cpp
;	COMDAT ?MouseMove@CTwoPointDownTool@@MAE_NPAVCDC@@ABVCPoint@@@Z
_TEXT	SEGMENT
$T2 = -204						; size = 40
$T3 = -164						; size = 8
_pDC$GSCopy$1$ = -156					; size = 4
_ptPos$ = -152						; size = 8
_calcData$4 = -144					; size = 96
$T5 = -48						; size = 16
$T6 = -32						; size = 16
$T7 = -24						; size = 8
$T8 = -24						; size = 8
__$ArrayPad$ = -16					; size = 4
__$EHRec$ = -12						; size = 12
_pDC$ = 8						; size = 4
_point$ = 12						; size = 4
?MouseMove@CTwoPointDownTool@@MAE_NPAVCDC@@ABVCPoint@@@Z PROC ; CTwoPointDownTool::MouseMove, COMDAT
; _this$ = ecx

; 740  : {

  00000	55		 push	 ebp
  00001	8b ec		 mov	 ebp, esp
  00003	6a ff		 push	 -1
  00005	68 00 00 00 00	 push	 __ehhandler$?MouseMove@CTwoPointDownTool@@MAE_NPAVCDC@@ABVCPoint@@@Z
  0000a	64 a1 00 00 00
	00		 mov	 eax, DWORD PTR fs:0
  00010	50		 push	 eax
  00011	81 ec c0 00 00
	00		 sub	 esp, 192		; 000000c0H
  00017	a1 00 00 00 00	 mov	 eax, DWORD PTR ___security_cookie
  0001c	33 c5		 xor	 eax, ebp
  0001e	89 45 f0	 mov	 DWORD PTR __$ArrayPad$[ebp], eax
  00021	53		 push	 ebx
  00022	56		 push	 esi
  00023	57		 push	 edi
  00024	50		 push	 eax
  00025	8d 45 f4	 lea	 eax, DWORD PTR __$EHRec$[ebp]
  00028	64 a3 00 00 00
	00		 mov	 DWORD PTR fs:0, eax
  0002e	8b f9		 mov	 edi, ecx
  00030	8b 5d 0c	 mov	 ebx, DWORD PTR _point$[ebp]
  00033	8b 45 08	 mov	 eax, DWORD PTR _pDC$[ebp]
  00036	89 85 64 ff ff
	ff		 mov	 DWORD PTR _pDC$GSCopy$1$[ebp], eax

; 741  : 	CPoint ptPos(point);

  0003c	8b 03		 mov	 eax, DWORD PTR [ebx]
  0003e	8b 4b 04	 mov	 ecx, DWORD PTR [ebx+4]
  00041	89 85 68 ff ff
	ff		 mov	 DWORD PTR _ptPos$[ebp], eax

; 742  : 	if(GetToolType() == CAnalysis::EN_ANALYSIS_CANDLE_BONG)

  00047	8b 07		 mov	 eax, DWORD PTR [edi]
  00049	89 8d 6c ff ff
	ff		 mov	 DWORD PTR _ptPos$[ebp+4], ecx
  0004f	8b cf		 mov	 ecx, edi
  00051	ff 50 24	 call	 DWORD PTR [eax+36]
  00054	83 f8 1f	 cmp	 eax, 31			; 0000001fH
  00057	0f 85 cf 00 00
	00		 jne	 $LN2@MouseMove

; 743  : 	{
; 744  : 		CCoordinateCalculatorData calcData = GetCoordinateCalculatorData(m_downPoints.GetDrawingPoint());

  0005d	8d 8d 5c ff ff
	ff		 lea	 ecx, DWORD PTR $T3[ebp]
  00063	51		 push	 ecx
  00064	8d 8f d0 00 00
	00		 lea	 ecx, DWORD PTR [edi+208]
  0006a	e8 00 00 00 00	 call	 ?GetDrawingPoint@CPoints@@QBE?AVCPoint@@XZ ; CPoints::GetDrawingPoint
  0006f	50		 push	 eax
  00070	8d 85 70 ff ff
	ff		 lea	 eax, DWORD PTR _calcData$4[ebp]
  00076	8b cf		 mov	 ecx, edi
  00078	50		 push	 eax
  00079	e8 00 00 00 00	 call	 ?GetCoordinateCalculatorData@CTool@@QBE?AVCCoordinateCalculatorData@@ABVCPoint@@@Z ; CTool::GetCoordinateCalculatorData

; 745  : 		int nWidth = (int)max(1,(calcData.GetRegion().Width()/calcData.GetDisplayDataCount()));

  0007e	8d 45 e0	 lea	 eax, DWORD PTR $T6[ebp]
  00081	c7 45 fc 00 00
	00 00		 mov	 DWORD PTR __$EHRec$[ebp+8], 0
  00088	50		 push	 eax
  00089	8d 8d 70 ff ff
	ff		 lea	 ecx, DWORD PTR _calcData$4[ebp]
  0008f	e8 00 00 00 00	 call	 ?GetRegion@CCoordinateCalculatorData@@QBE?AVCRect@@XZ ; CCoordinateCalculatorData::GetRegion
  00094	8d 8d 70 ff ff
	ff		 lea	 ecx, DWORD PTR _calcData$4[ebp]
; File C:\Program Files (x86)\Microsoft Visual Studio\2019\Community\VC\Tools\MSVC\14.29.30133\atlmfc\include\atltypes.h

; 576  : 	return right - left;

  0009a	8b 70 08	 mov	 esi, DWORD PTR [eax+8]
  0009d	2b 30		 sub	 esi, DWORD PTR [eax]
; File D:\git\src\IBK\IBK_DRFN\ProjSrc\SrcChartEx\ChartAddIn\ChartAnalysisToolAddIn\AnalysisTool\PointTool.cpp

; 745  : 		int nWidth = (int)max(1,(calcData.GetRegion().Width()/calcData.GetDisplayDataCount()));

  0009f	e8 00 00 00 00	 call	 ?GetDisplayDataCount@CCoordinateCalculatorData@@QBEHXZ ; CCoordinateCalculatorData::GetDisplayDataCount
  000a4	8b c8		 mov	 ecx, eax
  000a6	8b c6		 mov	 eax, esi
  000a8	99		 cdq
  000a9	f7 f9		 idiv	 ecx
  000ab	83 f8 01	 cmp	 eax, 1
  000ae	7d 07		 jge	 SHORT $LN6@MouseMove
  000b0	be 01 00 00 00	 mov	 esi, 1
  000b5	eb 28		 jmp	 SHORT $LN7@MouseMove
$LN6@MouseMove:
  000b7	8d 45 d0	 lea	 eax, DWORD PTR $T5[ebp]
  000ba	50		 push	 eax
  000bb	8d 8d 70 ff ff
	ff		 lea	 ecx, DWORD PTR _calcData$4[ebp]
  000c1	e8 00 00 00 00	 call	 ?GetRegion@CCoordinateCalculatorData@@QBE?AVCRect@@XZ ; CCoordinateCalculatorData::GetRegion
  000c6	8d 8d 70 ff ff
	ff		 lea	 ecx, DWORD PTR _calcData$4[ebp]
; File C:\Program Files (x86)\Microsoft Visual Studio\2019\Community\VC\Tools\MSVC\14.29.30133\atlmfc\include\atltypes.h

; 576  : 	return right - left;

  000cc	8b 70 08	 mov	 esi, DWORD PTR [eax+8]
  000cf	2b 30		 sub	 esi, DWORD PTR [eax]
; File D:\git\src\IBK\IBK_DRFN\ProjSrc\SrcChartEx\ChartAddIn\ChartAnalysisToolAddIn\AnalysisTool\PointTool.cpp

; 745  : 		int nWidth = (int)max(1,(calcData.GetRegion().Width()/calcData.GetDisplayDataCount()));

  000d1	e8 00 00 00 00	 call	 ?GetDisplayDataCount@CCoordinateCalculatorData@@QBEHXZ ; CCoordinateCalculatorData::GetDisplayDataCount
  000d6	8b c8		 mov	 ecx, eax
  000d8	8b c6		 mov	 eax, esi
  000da	99		 cdq
  000db	f7 f9		 idiv	 ecx
  000dd	8b f0		 mov	 esi, eax
$LN7@MouseMove:

; 746  : 		if(m_downPoints.GetDrawingPoint().x > point.x)

  000df	8d 45 e8	 lea	 eax, DWORD PTR $T8[ebp]
  000e2	50		 push	 eax
  000e3	8d 8f d0 00 00
	00		 lea	 ecx, DWORD PTR [edi+208]
  000e9	e8 00 00 00 00	 call	 ?GetDrawingPoint@CPoints@@QBE?AVCPoint@@XZ ; CPoints::GetDrawingPoint
  000ee	8b 08		 mov	 ecx, DWORD PTR [eax]
  000f0	8d 45 e8	 lea	 eax, DWORD PTR $T7[ebp]
  000f3	3b 0b		 cmp	 ecx, DWORD PTR [ebx]
  000f5	8d 8f d0 00 00
	00		 lea	 ecx, DWORD PTR [edi+208]
  000fb	50		 push	 eax
  000fc	7e 0c		 jle	 SHORT $LN3@MouseMove

; 747  : 			ptPos.x = m_downPoints.GetDrawingPoint().x - nWidth-1;

  000fe	e8 00 00 00 00	 call	 ?GetDrawingPoint@CPoints@@QBE?AVCPoint@@XZ ; CPoints::GetDrawingPoint
  00103	8b 00		 mov	 eax, DWORD PTR [eax]
  00105	2b c6		 sub	 eax, esi
  00107	48		 dec	 eax
  00108	eb 0a		 jmp	 SHORT $LN21@MouseMove
$LN3@MouseMove:

; 748  : 		else 
; 749  : 			ptPos.x = m_downPoints.GetDrawingPoint().x + nWidth+1;

  0010a	e8 00 00 00 00	 call	 ?GetDrawingPoint@CPoints@@QBE?AVCPoint@@XZ ; CPoints::GetDrawingPoint
  0010f	8b 00		 mov	 eax, DWORD PTR [eax]
  00111	40		 inc	 eax
  00112	03 c6		 add	 eax, esi
$LN21@MouseMove:

; 750  : 	}

  00114	8d 8d 70 ff ff
	ff		 lea	 ecx, DWORD PTR _calcData$4[ebp]
  0011a	89 85 68 ff ff
	ff		 mov	 DWORD PTR _ptPos$[ebp], eax
  00120	c7 45 fc ff ff
	ff ff		 mov	 DWORD PTR __$EHRec$[ebp+8], -1
  00127	e8 00 00 00 00	 call	 ??1CCoordinateCalculatorData@@QAE@XZ ; CCoordinateCalculatorData::~CCoordinateCalculatorData
$LN2@MouseMove:

; 751  : 	SavePoints(CTool::GetPoints(ptPos));

  0012c	8d 85 68 ff ff
	ff		 lea	 eax, DWORD PTR _ptPos$[ebp]
  00132	8b cf		 mov	 ecx, edi
  00134	50		 push	 eax
  00135	8d 85 34 ff ff
	ff		 lea	 eax, DWORD PTR $T2[ebp]
  0013b	50		 push	 eax
  0013c	e8 00 00 00 00	 call	 ?GetPoints@CTool@@IBE?AVCPoints@@ABVCPoint@@@Z ; CTool::GetPoints
  00141	8b 17		 mov	 edx, DWORD PTR [edi]
  00143	8b cf		 mov	 ecx, edi
  00145	50		 push	 eax
  00146	c7 45 fc 01 00
	00 00		 mov	 DWORD PTR __$EHRec$[ebp+8], 1
  0014d	ff 52 20	 call	 DWORD PTR [edx+32]
  00150	8d 8d 48 ff ff
	ff		 lea	 ecx, DWORD PTR $T2[ebp+20]
  00156	c7 45 fc ff ff
	ff ff		 mov	 DWORD PTR __$EHRec$[ebp+8], -1
  0015d	ff 15 00 00 00
	00		 call	 DWORD PTR __imp_??1?$CStringT@DV?$StrTraitMFC_DLL@DV?$ChTraitsCRT@D@ATL@@@@@ATL@@QAE@XZ

; 752  : 	Draw_UpPoint(pDC);

  00163	8b 07		 mov	 eax, DWORD PTR [edi]
  00165	8b cf		 mov	 ecx, edi
  00167	ff b5 64 ff ff
	ff		 push	 DWORD PTR _pDC$GSCopy$1$[ebp]
  0016d	ff 50 40	 call	 DWORD PTR [eax+64]

; 753  : 	return true;

  00170	b0 01		 mov	 al, 1

; 754  : }

  00172	8b 4d f4	 mov	 ecx, DWORD PTR __$EHRec$[ebp]
  00175	64 89 0d 00 00
	00 00		 mov	 DWORD PTR fs:0, ecx
  0017c	59		 pop	 ecx
  0017d	5f		 pop	 edi
  0017e	5e		 pop	 esi
  0017f	5b		 pop	 ebx
  00180	8b 4d f0	 mov	 ecx, DWORD PTR __$ArrayPad$[ebp]
  00183	33 cd		 xor	 ecx, ebp
  00185	e8 00 00 00 00	 call	 @__security_check_cookie@4
  0018a	8b e5		 mov	 esp, ebp
  0018c	5d		 pop	 ebp
  0018d	c2 08 00	 ret	 8
_TEXT	ENDS
;	COMDAT text$x
text$x	SEGMENT
__unwindfunclet$?MouseMove@CTwoPointDownTool@@MAE_NPAVCDC@@ABVCPoint@@@Z$0:
  00000	8d 8d 70 ff ff
	ff		 lea	 ecx, DWORD PTR _calcData$4[ebp]
  00006	e9 00 00 00 00	 jmp	 ??1CCoordinateCalculatorData@@QAE@XZ ; CCoordinateCalculatorData::~CCoordinateCalculatorData
__unwindfunclet$?MouseMove@CTwoPointDownTool@@MAE_NPAVCDC@@ABVCPoint@@@Z$1:
  0000b	8d 8d 34 ff ff
	ff		 lea	 ecx, DWORD PTR $T2[ebp]
  00011	e9 00 00 00 00	 jmp	 ??1CPoints@@QAE@XZ
  00016	cc		 int	 3
  00017	cc		 int	 3
  00018	cc		 int	 3
  00019	cc		 int	 3
  0001a	cc		 int	 3
__ehhandler$?MouseMove@CTwoPointDownTool@@MAE_NPAVCDC@@ABVCPoint@@@Z:
  0001b	90		 npad	 1
  0001c	90		 npad	 1
  0001d	8b 54 24 08	 mov	 edx, DWORD PTR [esp+8]
  00021	8d 42 0c	 lea	 eax, DWORD PTR [edx+12]
  00024	8b 8a 30 ff ff
	ff		 mov	 ecx, DWORD PTR [edx-208]
  0002a	33 c8		 xor	 ecx, eax
  0002c	e8 00 00 00 00	 call	 @__security_check_cookie@4
  00031	8b 4a fc	 mov	 ecx, DWORD PTR [edx-4]
  00034	33 c8		 xor	 ecx, eax
  00036	e8 00 00 00 00	 call	 @__security_check_cookie@4
  0003b	b8 00 00 00 00	 mov	 eax, OFFSET __ehfuncinfo$?MouseMove@CTwoPointDownTool@@MAE_NPAVCDC@@ABVCPoint@@@Z
  00040	e9 00 00 00 00	 jmp	 ___CxxFrameHandler3
text$x	ENDS
?MouseMove@CTwoPointDownTool@@MAE_NPAVCDC@@ABVCPoint@@@Z ENDP ; CTwoPointDownTool::MouseMove
; Function compile flags: /Ogtp
; File D:\git\src\IBK\IBK_DRFN\ProjSrc\SrcChartEx\ChartAddIn\ChartAnalysisToolAddIn\AnalysisTool\PointTool.cpp
; File D:\git\src\IBK\IBK_DRFN\ProjSrc\SrcChartEx\ChartAddIn\ChartAnalysisToolAddIn\Include_Analysis\CoordinateCalculatorData.h
; File D:\git\src\IBK\IBK_DRFN\ProjSrc\SrcChartEx\ChartAddIn\ChartAnalysisToolAddIn\AnalysisTool\PointTool.cpp
; File D:\git\src\IBK\IBK_DRFN\ProjSrc\SrcChartEx\ChartAddIn\ChartAnalysisToolAddIn\Include_AddIn_133101\I133101\_IString.h
; File D:\git\src\IBK\IBK_DRFN\ProjSrc\SrcChartEx\ChartAddIn\ChartAnalysisToolAddIn\AnalysisTool\PointTool.cpp
; File D:\git\src\IBK\IBK_DRFN\ProjSrc\SrcChartEx\ChartAddIn\ChartAnalysisToolAddIn\Include_AddIn_133101\I133101\_IString.h
; File D:\git\src\IBK\IBK_DRFN\ProjSrc\SrcChartEx\ChartAddIn\ChartAnalysisToolAddIn\AnalysisTool\PointTool.cpp
; File D:\git\src\IBK\IBK_DRFN\ProjSrc\SrcChartEx\ChartAddIn\ChartAnalysisToolAddIn\Include_AddIn_133101\I133101\_IString.h
; File D:\git\src\IBK\IBK_DRFN\ProjSrc\SrcChartEx\ChartAddIn\ChartAnalysisToolAddIn\AnalysisTool\PointTool.cpp
; File D:\git\src\IBK\IBK_DRFN\ProjSrc\SrcChartEx\ChartAddIn\ChartAnalysisToolAddIn\Include_AddIn_133101\I133101\_IString.h
; File D:\git\src\IBK\IBK_DRFN\ProjSrc\SrcChartEx\ChartAddIn\ChartAnalysisToolAddIn\AnalysisTool\PointTool.cpp
; File D:\git\src\IBK\IBK_DRFN\ProjSrc\SrcChartEx\ChartAddIn\ChartAnalysisToolAddIn\Include_AddIn_133101\I133101\_IString.h
; File D:\git\src\IBK\IBK_DRFN\ProjSrc\SrcChartEx\ChartAddIn\ChartAnalysisToolAddIn\AnalysisTool\PointTool.cpp
; File D:\git\src\IBK\IBK_DRFN\ProjSrc\SrcChartEx\ChartAddIn\ChartAnalysisToolAddIn\Include_AddIn_133101\I133101\_IString.h
; File D:\git\src\IBK\IBK_DRFN\ProjSrc\SrcChartEx\ChartAddIn\ChartAnalysisToolAddIn\AnalysisTool\PointTool.cpp
; File D:\git\src\IBK\IBK_DRFN\ProjSrc\SrcChartEx\ChartAddIn\ChartAnalysisToolAddIn\Include_AddIn_133101\I133101\_IString.h
; File D:\git\src\IBK\IBK_DRFN\ProjSrc\SrcChartEx\ChartAddIn\ChartAnalysisToolAddIn\AnalysisTool\PointTool.cpp
;	COMDAT ?MakeElement@CTwoPointDownTool@@MAEPAVCElement@@ABVCElementCommonEnvironment@@@Z
_TEXT	SEGMENT
_coordStart$ = -332					; size = 32
_coordEnd$ = -300					; size = 32
$T2 = -268						; size = 40
$T3 = -268						; size = 40
_dFirstVal$4 = -228					; size = 8
_szGraphName$5 = -220					; size = 8
_dChannelHeight$1$ = -212				; size = 8
_dSumN$1$ = -204					; size = 8
_nV$6 = -196						; size = 4
_nG$7 = -192						; size = 4
_dSecondVal$8 = -188					; size = 8
$T9 = -188						; size = 8
$T10 = -188						; size = 8
$T11 = -188						; size = 8
_dBeta$1$ = -180					; size = 8
_this$GSCopy$1$ = -172					; size = 4
_environment$GSCopy$1$ = -168				; size = 4
_nC$12 = -164						; size = 4
_nR$13 = -160						; size = 4
_dYValue$14 = -156					; size = 8
_szRQ$15 = -148						; size = 8
_i$2$ = -140						; size = 4
_nCount$1$ = -140					; size = 4
_dXAvg$2$ = -136					; size = 8
_i$1$ = -132						; size = 4
_dAlpha$1$ = -128					; size = 8
_i$3$ = -120						; size = 4
tv800 = -120						; size = 4
_nIndex1$1$ = -120					; size = 4
___that$1$ = -116					; size = 4
_nEndIdx$1$ = -116					; size = 4
_calcData$ = -112					; size = 96
__$ArrayPad$ = -16					; size = 4
__$EHRec$ = -12						; size = 12
_environment$ = 8					; size = 4
?MakeElement@CTwoPointDownTool@@MAEPAVCElement@@ABVCElementCommonEnvironment@@@Z PROC ; CTwoPointDownTool::MakeElement, COMDAT
; _this$ = ecx

; 647  : {

  00000	55		 push	 ebp
  00001	8b ec		 mov	 ebp, esp
  00003	6a ff		 push	 -1
  00005	68 00 00 00 00	 push	 __ehhandler$?MakeElement@CTwoPointDownTool@@MAEPAVCElement@@ABVCElementCommonEnvironment@@@Z
  0000a	64 a1 00 00 00
	00		 mov	 eax, DWORD PTR fs:0
  00010	50		 push	 eax
  00011	81 ec 40 01 00
	00		 sub	 esp, 320		; 00000140H
  00017	a1 00 00 00 00	 mov	 eax, DWORD PTR ___security_cookie
  0001c	33 c5		 xor	 eax, ebp
  0001e	89 45 f0	 mov	 DWORD PTR __$ArrayPad$[ebp], eax
  00021	56		 push	 esi
  00022	57		 push	 edi
  00023	50		 push	 eax
  00024	8d 45 f4	 lea	 eax, DWORD PTR __$EHRec$[ebp]
  00027	64 a3 00 00 00
	00		 mov	 DWORD PTR fs:0, eax
  0002d	8b f1		 mov	 esi, ecx
  0002f	89 b5 54 ff ff
	ff		 mov	 DWORD PTR _this$GSCopy$1$[ebp], esi
  00035	8b 45 08	 mov	 eax, DWORD PTR _environment$[ebp]

; 648  : 	CElement *pElement = NULL;
; 649  : 	CCoordinate coordStart = m_downPoints.GetSavingPoint();

  00038	8d 8d b4 fe ff
	ff		 lea	 ecx, DWORD PTR _coordStart$[ebp]
  0003e	89 85 58 ff ff
	ff		 mov	 DWORD PTR _environment$GSCopy$1$[ebp], eax
  00044	33 ff		 xor	 edi, edi
  00046	8d 86 d0 00 00
	00		 lea	 eax, DWORD PTR [esi+208]
  0004c	51		 push	 ecx
  0004d	8b c8		 mov	 ecx, eax
  0004f	89 45 88	 mov	 DWORD PTR tv800[ebp], eax
  00052	e8 00 00 00 00	 call	 ?GetSavingPoint@CPoints@@QBE?AVCCoordinate@@XZ ; CPoints::GetSavingPoint

; 475  : 	return m_upPoints;

  00057	8d 86 a8 00 00
	00		 lea	 eax, DWORD PTR [esi+168]

; 648  : 	CElement *pElement = NULL;
; 649  : 	CCoordinate coordStart = m_downPoints.GetSavingPoint();

  0005d	89 7d fc	 mov	 DWORD PTR __$EHRec$[ebp+8], edi
  00060	50		 push	 eax
  00061	8d 8d f4 fe ff
	ff		 lea	 ecx, DWORD PTR $T3[ebp]

; 475  : 	return m_upPoints;

  00067	89 45 8c	 mov	 DWORD PTR ___that$1$[ebp], eax
  0006a	e8 00 00 00 00	 call	 ??0CCoordinate@@QAE@ABV0@@Z ; CCoordinate::CCoordinate
  0006f	8b 86 c8 00 00
	00		 mov	 eax, DWORD PTR [esi+200]
  00075	8b 8e cc 00 00
	00		 mov	 ecx, DWORD PTR [esi+204]
  0007b	89 85 14 ff ff
	ff		 mov	 DWORD PTR $T3[ebp+32], eax
  00081	89 8d 18 ff ff
	ff		 mov	 DWORD PTR $T3[ebp+36], ecx

; 650  : 	CCoordinate coordEnd = COneOrTwoPointTool::GetUpPoints().GetSavingPoint();

  00087	8d 85 d4 fe ff
	ff		 lea	 eax, DWORD PTR _coordEnd$[ebp]
  0008d	c6 45 fc 01	 mov	 BYTE PTR __$EHRec$[ebp+8], 1
  00091	50		 push	 eax
  00092	8d 8d f4 fe ff
	ff		 lea	 ecx, DWORD PTR $T3[ebp]
  00098	e8 00 00 00 00	 call	 ?GetSavingPoint@CPoints@@QBE?AVCCoordinate@@XZ ; CPoints::GetSavingPoint
  0009d	8d 8d 08 ff ff
	ff		 lea	 ecx, DWORD PTR $T3[ebp+20]
  000a3	c6 45 fc 03	 mov	 BYTE PTR __$EHRec$[ebp+8], 3
  000a7	ff 15 00 00 00
	00		 call	 DWORD PTR __imp_??1?$CStringT@DV?$StrTraitMFC_DLL@DV?$ChTraitsCRT@D@ATL@@@@@ATL@@QAE@XZ

; 651  : 
; 652  : 	CCoordinateCalculatorData calcData = GetCoordinateCalculatorData( m_downPoints.GetDrawingPoint());

  000ad	8d 85 44 ff ff
	ff		 lea	 eax, DWORD PTR $T11[ebp]
  000b3	50		 push	 eax
  000b4	8d 8e d0 00 00
	00		 lea	 ecx, DWORD PTR [esi+208]
  000ba	e8 00 00 00 00	 call	 ?GetDrawingPoint@CPoints@@QBE?AVCPoint@@XZ ; CPoints::GetDrawingPoint
  000bf	50		 push	 eax
  000c0	8d 45 90	 lea	 eax, DWORD PTR _calcData$[ebp]
  000c3	8b ce		 mov	 ecx, esi
  000c5	50		 push	 eax
  000c6	e8 00 00 00 00	 call	 ?GetCoordinateCalculatorData@CTool@@QBE?AVCCoordinateCalculatorData@@ABVCPoint@@@Z ; CTool::GetCoordinateCalculatorData
  000cb	c6 45 fc 04	 mov	 BYTE PTR __$EHRec$[ebp+8], 4
; File D:\git\src\IBK\IBK_DRFN\ProjSrc\SrcChartEx\ChartAddIn\ChartAnalysisToolAddIn\Include_Analysis\CoordinateCalculatorData.h

; 128  : 							{	return m_pIChartManager && m_pIChartOCX && m_pIPacketListManager && m_pIDefaultPacketManager;	}

  000cf	39 7d d8	 cmp	 DWORD PTR _calcData$[ebp+72], edi
  000d2	0f 84 47 05 00
	00		 je	 $LN88@MakeElemen
  000d8	39 7d dc	 cmp	 DWORD PTR _calcData$[ebp+76], edi
  000db	0f 84 3e 05 00
	00		 je	 $LN88@MakeElemen
  000e1	39 7d e0	 cmp	 DWORD PTR _calcData$[ebp+80], edi
  000e4	0f 84 35 05 00
	00		 je	 $LN88@MakeElemen
  000ea	39 7d e4	 cmp	 DWORD PTR _calcData$[ebp+84], edi
  000ed	0f 84 2c 05 00
	00		 je	 $LN88@MakeElemen
; File D:\git\src\IBK\IBK_DRFN\ProjSrc\SrcChartEx\ChartAddIn\ChartAnalysisToolAddIn\AnalysisTool\PointTool.cpp

; 654  : 		if( GetToolType() == CAnalysis::EN_ANALYSIS_LINEAR_REGRESSION ||

  000f3	8b 06		 mov	 eax, DWORD PTR [esi]
  000f5	8b ce		 mov	 ecx, esi
  000f7	8b 40 24	 mov	 eax, DWORD PTR [eax+36]
  000fa	ff d0		 call	 eax
  000fc	83 f8 1b	 cmp	 eax, 27			; 0000001bH
  000ff	74 50		 je	 SHORT $LN14@MakeElemen
  00101	8b 06		 mov	 eax, DWORD PTR [esi]
  00103	8b ce		 mov	 ecx, esi
  00105	8b 40 24	 mov	 eax, DWORD PTR [eax+36]
  00108	ff d0		 call	 eax
  0010a	83 f8 1c	 cmp	 eax, 28			; 0000001cH
  0010d	74 42		 je	 SHORT $LN14@MakeElemen

; 729  : 	}
; 730  : 	else
; 731  : 	{
; 732  : 		pElement = CElementFactory::Make(GetToolType(),coordStart,coordEnd,GetTextPosition(),environment);

  0010f	8b 06		 mov	 eax, DWORD PTR [esi]
  00111	83 ec 08	 sub	 esp, 8
  00114	0f 57 c0	 xorps	 xmm0, xmm0
  00117	8b ce		 mov	 ecx, esi
  00119	8b 40 28	 mov	 eax, DWORD PTR [eax+40]
  0011c	f2 0f 11 04 24	 movsd	 QWORD PTR [esp], xmm0
  00121	ff b5 58 ff ff
	ff		 push	 DWORD PTR _environment$GSCopy$1$[ebp]
  00127	ff d0		 call	 eax
  00129	50		 push	 eax
  0012a	8d 85 d4 fe ff
	ff		 lea	 eax, DWORD PTR _coordEnd$[ebp]
  00130	8b ce		 mov	 ecx, esi
  00132	50		 push	 eax
  00133	8d 85 b4 fe ff
	ff		 lea	 eax, DWORD PTR _coordStart$[ebp]
  00139	50		 push	 eax
  0013a	8b 06		 mov	 eax, DWORD PTR [esi]
  0013c	8b 40 24	 mov	 eax, DWORD PTR [eax+36]
  0013f	ff d0		 call	 eax
  00141	50		 push	 eax
  00142	e8 00 00 00 00	 call	 ?Make@CElementFactory@@SAPAVCElement@@W4TOOLTYPE@CAnalysis@@ABVCCoordinate@@1PBVCTextPosition@@ABVCElementCommonEnvironment@@N@Z ; CElementFactory::Make
  00147	83 c4 1c	 add	 esp, 28			; 0000001cH
  0014a	8b f8		 mov	 edi, eax
  0014c	e9 ce 04 00 00	 jmp	 $LN88@MakeElemen
$LN14@MakeElemen:

; 660  : 		ILPCSTR szRQ = calcData.m_pIChartOCX->GetCurrentRQ();

  00151	8b 4d dc	 mov	 ecx, DWORD PTR _calcData$[ebp+76]
  00154	0f 57 c0	 xorps	 xmm0, xmm0
  00157	f2 0f 11 85 2c
	ff ff ff	 movsd	 QWORD PTR _dChannelHeight$1$[ebp], xmm0
  0015f	8b 01		 mov	 eax, DWORD PTR [ecx]
  00161	8b 80 40 02 00
	00		 mov	 eax, DWORD PTR [eax+576]
  00167	ff d0		 call	 eax
; File D:\git\src\IBK\IBK_DRFN\ProjSrc\SrcChartEx\ChartAddIn\ChartAnalysisToolAddIn\Include_AddIn_133101\I133101\_IString.h

; 39   : 		m_pIStrData = p_pIString;	// Do not AddRef(). Because It must be Return Value.

  00169	89 85 70 ff ff
	ff		 mov	 DWORD PTR _szRQ$15[ebp+4], eax

; 40   : 		if( m_pIStrData) m_szData = m_pIStrData->GetData();

  0016f	85 c0		 test	 eax, eax
  00171	74 0d		 je	 SHORT $LN52@MakeElemen
  00173	8b 10		 mov	 edx, DWORD PTR [eax]
  00175	8b c8		 mov	 ecx, eax
  00177	8b 52 10	 mov	 edx, DWORD PTR [edx+16]
  0017a	ff d2		 call	 edx
  0017c	8b f8		 mov	 edi, eax
  0017e	eb 02		 jmp	 SHORT $LN119@MakeElemen
$LN52@MakeElemen:

; 41   : 		else m_szData = NULL;

  00180	33 ff		 xor	 edi, edi
$LN119@MakeElemen:
; File D:\git\src\IBK\IBK_DRFN\ProjSrc\SrcChartEx\ChartAddIn\ChartAnalysisToolAddIn\AnalysisTool\PointTool.cpp

; 660  : 		ILPCSTR szRQ = calcData.m_pIChartOCX->GetCurrentRQ();

  00182	89 bd 6c ff ff
	ff		 mov	 DWORD PTR _szRQ$15[ebp], edi

; 661  : 		int nR = calcData.GetBlockIndex().GetRow();

  00188	8d 4d 90	 lea	 ecx, DWORD PTR _calcData$[ebp]
  0018b	c6 45 fc 05	 mov	 BYTE PTR __$EHRec$[ebp+8], 5
  0018f	e8 00 00 00 00	 call	 ?GetBlockIndex@CCoordinateCalculatorData@@QAEAAVCBlockIndex@@XZ ; CCoordinateCalculatorData::GetBlockIndex

; 662  : 		int nC = calcData.GetBlockIndex().GetColumn();

  00194	8d 4d 90	 lea	 ecx, DWORD PTR _calcData$[ebp]
  00197	8b 00		 mov	 eax, DWORD PTR [eax]
  00199	89 85 60 ff ff
	ff		 mov	 DWORD PTR _nR$13[ebp], eax
  0019f	e8 00 00 00 00	 call	 ?GetBlockIndex@CCoordinateCalculatorData@@QAEAAVCBlockIndex@@XZ ; CCoordinateCalculatorData::GetBlockIndex

; 664  : 		ILPCSTR szGraphName = calcData.m_pIChartManager->FindNextIndicator( NULL, nR, nC, nV, nG, szRQ);

  001a4	8b 4d d8	 mov	 ecx, DWORD PTR _calcData$[ebp+72]
  001a7	8d 95 40 ff ff
	ff		 lea	 edx, DWORD PTR _nG$7[ebp]
  001ad	57		 push	 edi
  001ae	52		 push	 edx
  001af	8b 40 04	 mov	 eax, DWORD PTR [eax+4]
  001b2	8d 95 3c ff ff
	ff		 lea	 edx, DWORD PTR _nV$6[ebp]
  001b8	52		 push	 edx
  001b9	89 85 5c ff ff
	ff		 mov	 DWORD PTR _nC$12[ebp], eax
  001bf	8d 95 5c ff ff
	ff		 lea	 edx, DWORD PTR _nC$12[ebp]
  001c5	52		 push	 edx
  001c6	c7 85 3c ff ff
	ff 00 00 00 00	 mov	 DWORD PTR _nV$6[ebp], 0
  001d0	8d 95 60 ff ff
	ff		 lea	 edx, DWORD PTR _nR$13[ebp]
  001d6	c7 85 40 ff ff
	ff ff ff ff ff	 mov	 DWORD PTR _nG$7[ebp], -1
  001e0	8b 01		 mov	 eax, DWORD PTR [ecx]
  001e2	52		 push	 edx
  001e3	6a 00		 push	 0
  001e5	8b 40 74	 mov	 eax, DWORD PTR [eax+116]
  001e8	ff d0		 call	 eax
; File D:\git\src\IBK\IBK_DRFN\ProjSrc\SrcChartEx\ChartAddIn\ChartAnalysisToolAddIn\Include_AddIn_133101\I133101\_IString.h

; 39   : 		m_pIStrData = p_pIString;	// Do not AddRef(). Because It must be Return Value.

  001ea	89 85 28 ff ff
	ff		 mov	 DWORD PTR _szGraphName$5[ebp+4], eax

; 40   : 		if( m_pIStrData) m_szData = m_pIStrData->GetData();

  001f0	85 c0		 test	 eax, eax
  001f2	74 0b		 je	 SHORT $LN56@MakeElemen
  001f4	8b 10		 mov	 edx, DWORD PTR [eax]
  001f6	8b c8		 mov	 ecx, eax
  001f8	8b 52 10	 mov	 edx, DWORD PTR [edx+16]
  001fb	ff d2		 call	 edx
  001fd	eb 02		 jmp	 SHORT $LN120@MakeElemen
$LN56@MakeElemen:

; 41   : 		else m_szData = NULL;

  001ff	33 c0		 xor	 eax, eax
$LN120@MakeElemen:
; File D:\git\src\IBK\IBK_DRFN\ProjSrc\SrcChartEx\ChartAddIn\ChartAnalysisToolAddIn\AnalysisTool\PointTool.cpp

; 664  : 		ILPCSTR szGraphName = calcData.m_pIChartManager->FindNextIndicator( NULL, nR, nC, nV, nG, szRQ);

  00201	89 85 24 ff ff
	ff		 mov	 DWORD PTR _szGraphName$5[ebp], eax
  00207	c6 45 fc 06	 mov	 BYTE PTR __$EHRec$[ebp+8], 6
; File D:\git\src\IBK\IBK_DRFN\ProjSrc\SrcChartEx\ChartAddIn\ChartAnalysisToolAddIn\Include_AddIn_133101\I133101\_IString.h

; 57   : 		if( !m_szData) return TRUE;

  0020b	85 ff		 test	 edi, edi
  0020d	74 33		 je	 SHORT $LN17@MakeElemen
; File D:\git\src\IBK\IBK_DRFN\ProjSrc\SrcChartEx\ChartAddIn\ChartAnalysisToolAddIn\AnalysisTool\PointTool.cpp

; 666  : 			|| !( nR == calcData.GetBlockIndex().GetRow() && nC == calcData.GetBlockIndex().GetColumn()))

  0020f	80 3f 00	 cmp	 BYTE PTR [edi], 0
  00212	74 2e		 je	 SHORT $LN17@MakeElemen
; File D:\git\src\IBK\IBK_DRFN\ProjSrc\SrcChartEx\ChartAddIn\ChartAnalysisToolAddIn\Include_AddIn_133101\I133101\_IString.h

; 57   : 		if( !m_szData) return TRUE;

  00214	85 c0		 test	 eax, eax
  00216	74 2a		 je	 SHORT $LN17@MakeElemen
; File D:\git\src\IBK\IBK_DRFN\ProjSrc\SrcChartEx\ChartAddIn\ChartAnalysisToolAddIn\AnalysisTool\PointTool.cpp

; 666  : 			|| !( nR == calcData.GetBlockIndex().GetRow() && nC == calcData.GetBlockIndex().GetColumn()))

  00218	80 38 00	 cmp	 BYTE PTR [eax], 0
  0021b	74 25		 je	 SHORT $LN17@MakeElemen
  0021d	8d 4d 90	 lea	 ecx, DWORD PTR _calcData$[ebp]
  00220	e8 00 00 00 00	 call	 ?GetBlockIndex@CCoordinateCalculatorData@@QAEAAVCBlockIndex@@XZ ; CCoordinateCalculatorData::GetBlockIndex
  00225	8b 8d 60 ff ff
	ff		 mov	 ecx, DWORD PTR _nR$13[ebp]
  0022b	3b 08		 cmp	 ecx, DWORD PTR [eax]
  0022d	75 13		 jne	 SHORT $LN17@MakeElemen
  0022f	8d 4d 90	 lea	 ecx, DWORD PTR _calcData$[ebp]
  00232	e8 00 00 00 00	 call	 ?GetBlockIndex@CCoordinateCalculatorData@@QAEAAVCBlockIndex@@XZ ; CCoordinateCalculatorData::GetBlockIndex
  00237	8b 8d 5c ff ff
	ff		 mov	 ecx, DWORD PTR _nC$12[ebp]
  0023d	3b 48 04	 cmp	 ecx, DWORD PTR [eax+4]
  00240	74 57		 je	 SHORT $LN68@MakeElemen
$LN17@MakeElemen:

; 667  : 			szRQ = calcData.m_pIChartManager->GetMainRQofBlock( calcData.GetBlockIndex().GetRow(), calcData.GetBlockIndex().GetColumn());

  00242	8b 45 d8	 mov	 eax, DWORD PTR _calcData$[ebp+72]
  00245	8d 4d 90	 lea	 ecx, DWORD PTR _calcData$[ebp]
  00248	8b 38		 mov	 edi, DWORD PTR [eax]
  0024a	e8 00 00 00 00	 call	 ?GetBlockIndex@CCoordinateCalculatorData@@QAEAAVCBlockIndex@@XZ ; CCoordinateCalculatorData::GetBlockIndex
  0024f	8d 4d 90	 lea	 ecx, DWORD PTR _calcData$[ebp]
  00252	8b 70 04	 mov	 esi, DWORD PTR [eax+4]
  00255	e8 00 00 00 00	 call	 ?GetBlockIndex@CCoordinateCalculatorData@@QAEAAVCBlockIndex@@XZ ; CCoordinateCalculatorData::GetBlockIndex
  0025a	8b 4d d8	 mov	 ecx, DWORD PTR _calcData$[ebp+72]
  0025d	56		 push	 esi
  0025e	ff 30		 push	 DWORD PTR [eax]
  00260	8b 87 30 01 00
	00		 mov	 eax, DWORD PTR [edi+304]
  00266	ff d0		 call	 eax
; File D:\git\src\IBK\IBK_DRFN\ProjSrc\SrcChartEx\ChartAddIn\ChartAnalysisToolAddIn\Include_AddIn_133101\I133101\_IString.h

; 67   : 		if( m_pIStrData) m_pIStrData->Release();

  00268	8b 95 70 ff ff
	ff		 mov	 edx, DWORD PTR _szRQ$15[ebp+4]
; File D:\git\src\IBK\IBK_DRFN\ProjSrc\SrcChartEx\ChartAddIn\ChartAnalysisToolAddIn\AnalysisTool\PointTool.cpp

; 667  : 			szRQ = calcData.m_pIChartManager->GetMainRQofBlock( calcData.GetBlockIndex().GetRow(), calcData.GetBlockIndex().GetColumn());

  0026e	8b f0		 mov	 esi, eax
; File D:\git\src\IBK\IBK_DRFN\ProjSrc\SrcChartEx\ChartAddIn\ChartAnalysisToolAddIn\Include_AddIn_133101\I133101\_IString.h

; 67   : 		if( m_pIStrData) m_pIStrData->Release();

  00270	85 d2		 test	 edx, edx
  00272	74 06		 je	 SHORT $LN66@MakeElemen
  00274	8b 0a		 mov	 ecx, DWORD PTR [edx]
  00276	52		 push	 edx
  00277	ff 51 08	 call	 DWORD PTR [ecx+8]
$LN66@MakeElemen:

; 68   : 		m_pIStrData = stringSrc;	// Do not AddRef(). Because It must be Return Value.

  0027a	89 b5 70 ff ff
	ff		 mov	 DWORD PTR _szRQ$15[ebp+4], esi
  00280	85 f6		 test	 esi, esi

; 69   : 		if( m_pIStrData) m_szData = m_pIStrData->GetData();

  00282	74 0d		 je	 SHORT $LN67@MakeElemen
  00284	8b 06		 mov	 eax, DWORD PTR [esi]
  00286	8b ce		 mov	 ecx, esi
  00288	8b 40 10	 mov	 eax, DWORD PTR [eax+16]
  0028b	ff d0		 call	 eax
  0028d	8b f8		 mov	 edi, eax
  0028f	eb 02		 jmp	 SHORT $LN121@MakeElemen
$LN67@MakeElemen:

; 70   : 		else m_szData = NULL;

  00291	33 ff		 xor	 edi, edi
$LN121@MakeElemen:
; File D:\git\src\IBK\IBK_DRFN\ProjSrc\SrcChartEx\ChartAddIn\ChartAnalysisToolAddIn\AnalysisTool\PointTool.cpp

; 670  : 		int nIndex1 = calcData.m_pIChartManager->FindViewDataIndex_Pt( szRQ, m_downPoints.GetDrawingPoint().x);

  00293	89 bd 6c ff ff
	ff		 mov	 DWORD PTR _szRQ$15[ebp], edi
$LN68@MakeElemen:
  00299	8b 45 d8	 mov	 eax, DWORD PTR _calcData$[ebp+72]
  0029c	8b 4d 88	 mov	 ecx, DWORD PTR tv800[ebp]
  0029f	8b 30		 mov	 esi, DWORD PTR [eax]
  002a1	8d 85 44 ff ff
	ff		 lea	 eax, DWORD PTR $T10[ebp]
  002a7	50		 push	 eax
  002a8	e8 00 00 00 00	 call	 ?GetDrawingPoint@CPoints@@QBE?AVCPoint@@XZ ; CPoints::GetDrawingPoint
  002ad	8b 4d d8	 mov	 ecx, DWORD PTR _calcData$[ebp+72]
  002b0	6a 00		 push	 0
  002b2	6a 00		 push	 0
  002b4	ff 30		 push	 DWORD PTR [eax]
  002b6	8b 86 04 01 00
	00		 mov	 eax, DWORD PTR [esi+260]
  002bc	57		 push	 edi
  002bd	ff d0		 call	 eax
  002bf	8b 75 8c	 mov	 esi, DWORD PTR ___that$1$[ebp]
  002c2	8d 8d f4 fe ff
	ff		 lea	 ecx, DWORD PTR $T2[ebp]
  002c8	56		 push	 esi
  002c9	89 45 88	 mov	 DWORD PTR _nIndex1$1$[ebp], eax
  002cc	e8 00 00 00 00	 call	 ??0CCoordinate@@QAE@ABV0@@Z ; CCoordinate::CCoordinate
  002d1	8b 4e 20	 mov	 ecx, DWORD PTR [esi+32]
  002d4	8b 56 24	 mov	 edx, DWORD PTR [esi+36]
  002d7	89 8d 14 ff ff
	ff		 mov	 DWORD PTR $T2[ebp+32], ecx
  002dd	89 95 18 ff ff
	ff		 mov	 DWORD PTR $T2[ebp+36], edx

; 671  : 		int nIndex2 = calcData.m_pIChartManager->FindViewDataIndex_Pt( szRQ, COneOrTwoPointTool::GetUpPoints().GetDrawingPoint().x);

  002e3	8b 45 d8	 mov	 eax, DWORD PTR _calcData$[ebp+72]
  002e6	8d 8d f4 fe ff
	ff		 lea	 ecx, DWORD PTR $T2[ebp]
  002ec	c6 45 fc 07	 mov	 BYTE PTR __$EHRec$[ebp+8], 7
  002f0	8b 30		 mov	 esi, DWORD PTR [eax]
  002f2	8d 85 44 ff ff
	ff		 lea	 eax, DWORD PTR $T9[ebp]
  002f8	50		 push	 eax
  002f9	e8 00 00 00 00	 call	 ?GetDrawingPoint@CPoints@@QBE?AVCPoint@@XZ ; CPoints::GetDrawingPoint
  002fe	8b 4d d8	 mov	 ecx, DWORD PTR _calcData$[ebp+72]
  00301	6a 00		 push	 0
  00303	6a 00		 push	 0
  00305	ff 30		 push	 DWORD PTR [eax]
  00307	8b 86 04 01 00
	00		 mov	 eax, DWORD PTR [esi+260]
  0030d	57		 push	 edi
  0030e	ff d0		 call	 eax
  00310	8b f0		 mov	 esi, eax
  00312	c6 45 fc 06	 mov	 BYTE PTR __$EHRec$[ebp+8], 6
  00316	8d 8d 08 ff ff
	ff		 lea	 ecx, DWORD PTR $T2[ebp+20]
  0031c	89 75 8c	 mov	 DWORD PTR _nEndIdx$1$[ebp], esi
  0031f	ff 15 00 00 00
	00		 call	 DWORD PTR __imp_??1?$CStringT@DV?$StrTraitMFC_DLL@DV?$ChTraitsCRT@D@ATL@@@@@ATL@@QAE@XZ

; 672  : 		
; 673  : 		if(abs(nIndex2 - nIndex1) > 1)

  00325	8b c6		 mov	 eax, esi
  00327	2b 45 88	 sub	 eax, DWORD PTR _nIndex1$1$[ebp]
  0032a	99		 cdq
  0032b	33 c2		 xor	 eax, edx
  0032d	2b c2		 sub	 eax, edx
  0032f	83 f8 01	 cmp	 eax, 1
  00332	0f 8e 77 02 00
	00		 jle	 $LN19@MakeElemen

; 674  : 		{
; 675  : //			IPacket* pPacket = pPacketManager->GetPacket( _MTEXT( C0_CLOSE));
; 676  : 			IPacket* pPacket = calcData.m_pIPacketListManager->GetPacket( szRQ, _MTEXT( C0_CLOSE));

  00338	8b 4d e0	 mov	 ecx, DWORD PTR _calcData$[ebp+80]
  0033b	a1 54 00 00 00	 mov	 eax, DWORD PTR ?g_iMetaTable@@3VIMetaTable@@A+84
  00340	8b 11		 mov	 edx, DWORD PTR [ecx]
  00342	ff 70 14	 push	 DWORD PTR [eax+20]
  00345	57		 push	 edi
  00346	8b 42 14	 mov	 eax, DWORD PTR [edx+20]
  00349	ff d0		 call	 eax
  0034b	8b f8		 mov	 edi, eax

; 677  : //<<      - vntsorl(20090202)
; 678  : 			if( pPacket)

  0034d	85 ff		 test	 edi, edi
  0034f	0f 84 5a 02 00
	00		 je	 $LN19@MakeElemen

; 679  : 			{
; 680  : 				double dXAvg = 0.0f;
; 681  : 				double dYAvg = 0.0f;
; 682  : 				double dYValue = -1.0;
; 683  : 				int nStartIdx = min(nIndex1,nIndex2);

  00355	8b 4d 88	 mov	 ecx, DWORD PTR _nIndex1$1$[ebp]
  00358	8b c6		 mov	 eax, esi
  0035a	f2 0f 10 05 00
	00 00 00	 movsd	 xmm0, QWORD PTR __real@bff0000000000000
  00362	3b c8		 cmp	 ecx, eax
  00364	0f 57 c9	 xorps	 xmm1, xmm1
  00367	f2 0f 11 85 64
	ff ff ff	 movsd	 QWORD PTR _dYValue$14[ebp], xmm0
  0036f	0f 4c f1	 cmovl	 esi, ecx
  00372	f2 0f 11 4d 80	 movsd	 QWORD PTR _dAlpha$1$[ebp], xmm1

; 684  : 				int nEndIdx = max(nIndex1,nIndex2);

  00377	0f 4f c1	 cmovg	 eax, ecx
  0037a	89 75 88	 mov	 DWORD PTR _i$3$[ebp], esi

; 685  : 				int nCount = nEndIdx - nStartIdx + 1;	

  0037d	8b c8		 mov	 ecx, eax
  0037f	89 45 8c	 mov	 DWORD PTR _nEndIdx$1$[ebp], eax
  00382	2b ce		 sub	 ecx, esi

; 686  : 				register int i = 0;
; 687  : 				for( i=nStartIdx; i<=nEndIdx; i++)

  00384	89 b5 7c ff ff
	ff		 mov	 DWORD PTR _i$1$[ebp], esi
  0038a	41		 inc	 ecx
  0038b	0f 57 d2	 xorps	 xmm2, xmm2
  0038e	89 8d 74 ff ff
	ff		 mov	 DWORD PTR _nCount$1$[ebp], ecx
  00394	3b f0		 cmp	 esi, eax
  00396	7f 6b		 jg	 SHORT $LN100@MakeElemen
  00398	0f 1f 84 00 00
	00 00 00	 npad	 8
$LL4@MakeElemen:

; 688  : 				{
; 689  : 					dXAvg += i;
; 690  : 					if( !pPacket->GetData( i, dYValue)) break;

  003a0	8b 07		 mov	 eax, DWORD PTR [edi]
  003a2	8d 8d 64 ff ff
	ff		 lea	 ecx, DWORD PTR _dYValue$14[ebp]
  003a8	66 0f 6e c6	 movd	 xmm0, esi
  003ac	f3 0f e6 c0	 cvtdq2pd xmm0, xmm0
  003b0	51		 push	 ecx
  003b1	8b 40 40	 mov	 eax, DWORD PTR [eax+64]
  003b4	8b cf		 mov	 ecx, edi
  003b6	56		 push	 esi
  003b7	f2 0f 58 c2	 addsd	 xmm0, xmm2
  003bb	f2 0f 11 85 78
	ff ff ff	 movsd	 QWORD PTR _dXAvg$2$[ebp], xmm0
  003c3	ff d0		 call	 eax
  003c5	85 c0		 test	 eax, eax
  003c7	8b 45 8c	 mov	 eax, DWORD PTR _nEndIdx$1$[ebp]
  003ca	74 21		 je	 SHORT $LN116@MakeElemen

; 691  : 					dYAvg += dYValue;

  003cc	f2 0f 10 8d 64
	ff ff ff	 movsd	 xmm1, QWORD PTR _dYValue$14[ebp]
  003d4	46		 inc	 esi
  003d5	f2 0f 10 95 78
	ff ff ff	 movsd	 xmm2, QWORD PTR _dXAvg$2$[ebp]
  003dd	f2 0f 58 4d 80	 addsd	 xmm1, QWORD PTR _dAlpha$1$[ebp]
  003e2	f2 0f 11 4d 80	 movsd	 QWORD PTR _dAlpha$1$[ebp], xmm1
  003e7	3b f0		 cmp	 esi, eax
  003e9	7e b5		 jle	 SHORT $LL4@MakeElemen

; 688  : 				{
; 689  : 					dXAvg += i;
; 690  : 					if( !pPacket->GetData( i, dYValue)) break;

  003eb	eb 05		 jmp	 SHORT $LN113@MakeElemen
$LN116@MakeElemen:
  003ed	f2 0f 10 4d 80	 movsd	 xmm1, QWORD PTR _dAlpha$1$[ebp]
$LN113@MakeElemen:
  003f2	f2 0f 10 95 78
	ff ff ff	 movsd	 xmm2, QWORD PTR _dXAvg$2$[ebp]
  003fa	8b 75 88	 mov	 esi, DWORD PTR _i$3$[ebp]
  003fd	8b 8d 74 ff ff
	ff		 mov	 ecx, DWORD PTR _nCount$1$[ebp]
$LN100@MakeElemen:
  00403	66 0f 6e c1	 movd	 xmm0, ecx

; 692  : 				}
; 693  : 				dXAvg /= nCount;
; 694  : 				dYAvg /= nCount;
; 695  : 
; 696  : 				double dSumD = 0.0f;
; 697  : 				double dSumN = 0.0f;
; 698  : 				for(i=nStartIdx; i<=nEndIdx; i++)

  00407	89 b5 74 ff ff
	ff		 mov	 DWORD PTR _i$2$[ebp], esi
  0040d	f3 0f e6 c0	 cvtdq2pd xmm0, xmm0
  00411	f2 0f 5e d0	 divsd	 xmm2, xmm0
  00415	f2 0f 5e c8	 divsd	 xmm1, xmm0
  00419	f2 0f 11 95 78
	ff ff ff	 movsd	 QWORD PTR _dXAvg$2$[ebp], xmm2
  00421	0f 57 d2	 xorps	 xmm2, xmm2
  00424	f2 0f 11 4d 80	 movsd	 QWORD PTR _dAlpha$1$[ebp], xmm1
  00429	0f 57 c0	 xorps	 xmm0, xmm0
  0042c	f2 0f 11 95 4c
	ff ff ff	 movsd	 QWORD PTR _dBeta$1$[ebp], xmm2
  00434	f2 0f 11 85 34
	ff ff ff	 movsd	 QWORD PTR _dSumN$1$[ebp], xmm0
  0043c	3b f0		 cmp	 esi, eax
  0043e	7f 7f		 jg	 SHORT $LN101@MakeElemen
$LL7@MakeElemen:

; 699  : 				{
; 700  : 					if( !pPacket->GetData( i, dYValue)) break;

  00440	8b 07		 mov	 eax, DWORD PTR [edi]
  00442	8d 8d 64 ff ff
	ff		 lea	 ecx, DWORD PTR _dYValue$14[ebp]
  00448	51		 push	 ecx
  00449	56		 push	 esi
  0044a	8b cf		 mov	 ecx, edi
  0044c	8b 40 40	 mov	 eax, DWORD PTR [eax+64]
  0044f	ff d0		 call	 eax
  00451	85 c0		 test	 eax, eax
  00453	8b 45 8c	 mov	 eax, DWORD PTR _nEndIdx$1$[ebp]
  00456	74 4f		 je	 SHORT $LN117@MakeElemen

; 701  : 					dSumD += (i-dXAvg) * (dYValue-dYAvg);

  00458	f2 0f 10 95 64
	ff ff ff	 movsd	 xmm2, QWORD PTR _dYValue$14[ebp]
  00460	f2 0f 5c 55 80	 subsd	 xmm2, QWORD PTR _dAlpha$1$[ebp]
  00465	66 0f 6e ce	 movd	 xmm1, esi
  00469	46		 inc	 esi
  0046a	f3 0f e6 c9	 cvtdq2pd xmm1, xmm1
  0046e	f2 0f 5c 8d 78
	ff ff ff	 subsd	 xmm1, QWORD PTR _dXAvg$2$[ebp]
  00476	f2 0f 59 d1	 mulsd	 xmm2, xmm1

; 702  : 					dSumN += (i-dXAvg) * (i-dXAvg);

  0047a	f2 0f 59 c9	 mulsd	 xmm1, xmm1
  0047e	f2 0f 58 95 4c
	ff ff ff	 addsd	 xmm2, QWORD PTR _dBeta$1$[ebp]
  00486	f2 0f 58 8d 34
	ff ff ff	 addsd	 xmm1, QWORD PTR _dSumN$1$[ebp]
  0048e	f2 0f 11 95 4c
	ff ff ff	 movsd	 QWORD PTR _dBeta$1$[ebp], xmm2
  00496	0f 28 c1	 movaps	 xmm0, xmm1
  00499	f2 0f 11 85 34
	ff ff ff	 movsd	 QWORD PTR _dSumN$1$[ebp], xmm0
  004a1	3b f0		 cmp	 esi, eax
  004a3	7e 9b		 jle	 SHORT $LL7@MakeElemen

; 699  : 				{
; 700  : 					if( !pPacket->GetData( i, dYValue)) break;

  004a5	eb 10		 jmp	 SHORT $LN114@MakeElemen
$LN117@MakeElemen:
  004a7	f2 0f 10 95 4c
	ff ff ff	 movsd	 xmm2, QWORD PTR _dBeta$1$[ebp]
  004af	f2 0f 10 85 34
	ff ff ff	 movsd	 xmm0, QWORD PTR _dSumN$1$[ebp]
$LN114@MakeElemen:
  004b7	f2 0f 10 4d 80	 movsd	 xmm1, QWORD PTR _dAlpha$1$[ebp]
  004bc	8b 75 88	 mov	 esi, DWORD PTR _i$3$[ebp]
$LN101@MakeElemen:

; 703  : 				}
; 704  : 
; 705  : 				double dBeta = dSumD / dSumN;

  004bf	f2 0f 5e d0	 divsd	 xmm2, xmm0

; 706  : 				double dAlpha = dYAvg - dBeta * dXAvg;
; 707  : 
; 708  : 				double dFirstVal = dAlpha + dBeta * nStartIdx;
; 709  : 				double dSecondVal = dAlpha + dBeta * nEndIdx;
; 710  : 
; 711  : 				coordStart.SetY(dFirstVal);

  004c3	8d 8d b4 fe ff
	ff		 lea	 ecx, DWORD PTR _coordStart$[ebp]
  004c9	0f 28 c2	 movaps	 xmm0, xmm2
  004cc	f2 0f 11 95 4c
	ff ff ff	 movsd	 QWORD PTR _dBeta$1$[ebp], xmm2
  004d4	f2 0f 59 85 78
	ff ff ff	 mulsd	 xmm0, QWORD PTR _dXAvg$2$[ebp]
  004dc	f2 0f 5c c8	 subsd	 xmm1, xmm0
  004e0	66 0f 6e c6	 movd	 xmm0, esi
  004e4	f3 0f e6 c0	 cvtdq2pd xmm0, xmm0
  004e8	f2 0f 11 4d 80	 movsd	 QWORD PTR _dAlpha$1$[ebp], xmm1
  004ed	f2 0f 59 c2	 mulsd	 xmm0, xmm2
  004f1	f2 0f 58 c1	 addsd	 xmm0, xmm1
  004f5	f2 0f 11 85 1c
	ff ff ff	 movsd	 QWORD PTR _dFirstVal$4[ebp], xmm0
  004fd	66 0f 6e c0	 movd	 xmm0, eax
  00501	8d 85 1c ff ff
	ff		 lea	 eax, DWORD PTR _dFirstVal$4[ebp]
  00507	f3 0f e6 c0	 cvtdq2pd xmm0, xmm0
  0050b	50		 push	 eax
  0050c	f2 0f 59 c2	 mulsd	 xmm0, xmm2
  00510	f2 0f 58 c1	 addsd	 xmm0, xmm1
  00514	f2 0f 11 85 44
	ff ff ff	 movsd	 QWORD PTR _dSecondVal$8[ebp], xmm0
  0051c	e8 00 00 00 00	 call	 ?SetY@CCoordinate@@QAEXABN@Z ; CCoordinate::SetY

; 712  : 				coordEnd.SetY(dSecondVal);

  00521	8d 85 44 ff ff
	ff		 lea	 eax, DWORD PTR _dSecondVal$8[ebp]
  00527	50		 push	 eax
  00528	8d 8d d4 fe ff
	ff		 lea	 ecx, DWORD PTR _coordEnd$[ebp]
  0052e	e8 00 00 00 00	 call	 ?SetY@CCoordinate@@QAEXABN@Z ; CCoordinate::SetY

; 713  : 				
; 714  : 				if(GetToolType() == CAnalysis::EN_ANALYSIS_RAFF_REGRESSION)

  00533	8b 8d 54 ff ff
	ff		 mov	 ecx, DWORD PTR _this$GSCopy$1$[ebp]
  00539	8b 01		 mov	 eax, DWORD PTR [ecx]
  0053b	8b 40 24	 mov	 eax, DWORD PTR [eax+36]
  0053e	ff d0		 call	 eax
  00540	83 f8 1c	 cmp	 eax, 28			; 0000001cH
  00543	75 64		 jne	 SHORT $LN115@MakeElemen

; 715  : 				{				
; 716  : 					double dValDiffrence = 0.0;
; 717  : 					for(i=nStartIdx; i<=nEndIdx; i++)

  00545	3b 75 8c	 cmp	 esi, DWORD PTR _nEndIdx$1$[ebp]
  00548	7f 5f		 jg	 SHORT $LN115@MakeElemen
  0054a	66 0f 1f 44 00
	00		 npad	 6
$LL10@MakeElemen:

; 718  : 					{
; 719  : 						if( !pPacket->GetData( i, dYValue)) break;

  00550	8b 07		 mov	 eax, DWORD PTR [edi]
  00552	8d 8d 64 ff ff
	ff		 lea	 ecx, DWORD PTR _dYValue$14[ebp]
  00558	51		 push	 ecx
  00559	56		 push	 esi
  0055a	8b cf		 mov	 ecx, edi
  0055c	8b 40 40	 mov	 eax, DWORD PTR [eax+64]
  0055f	ff d0		 call	 eax
  00561	85 c0		 test	 eax, eax
  00563	74 44		 je	 SHORT $LN115@MakeElemen

; 720  : 						dValDiffrence = fabs(dYValue - (dAlpha + dBeta * i));

  00565	f2 0f 10 8d 64
	ff ff ff	 movsd	 xmm1, QWORD PTR _dYValue$14[ebp]
  0056d	66 0f 6e c6	 movd	 xmm0, esi
  00571	f3 0f e6 c0	 cvtdq2pd xmm0, xmm0
  00575	f2 0f 59 85 4c
	ff ff ff	 mulsd	 xmm0, QWORD PTR _dBeta$1$[ebp]
  0057d	f2 0f 58 45 80	 addsd	 xmm0, QWORD PTR _dAlpha$1$[ebp]
  00582	f2 0f 5c c8	 subsd	 xmm1, xmm0

; 721  : 						dChannelHeight = max(dChannelHeight, dValDiffrence);

  00586	f2 0f 10 85 2c
	ff ff ff	 movsd	 xmm0, QWORD PTR _dChannelHeight$1$[ebp]
  0058e	0f 54 0d 00 00
	00 00		 andps	 xmm1, QWORD PTR __xmm@7fffffffffffffff7fffffffffffffff
  00595	66 0f 2f c1	 comisd	 xmm0, xmm1
  00599	77 08		 ja	 SHORT $LN26@MakeElemen
  0059b	f2 0f 11 8d 2c
	ff ff ff	 movsd	 QWORD PTR _dChannelHeight$1$[ebp], xmm1
$LN26@MakeElemen:

; 715  : 				{				
; 716  : 					double dValDiffrence = 0.0;
; 717  : 					for(i=nStartIdx; i<=nEndIdx; i++)

  005a3	46		 inc	 esi
  005a4	3b 75 8c	 cmp	 esi, DWORD PTR _nEndIdx$1$[ebp]
  005a7	7e a7		 jle	 SHORT $LL10@MakeElemen
$LN115@MakeElemen:

; 722  : 					}				
; 723  : 				}
; 724  : 				pPacket->Release();

  005a9	8b 07		 mov	 eax, DWORD PTR [edi]
  005ab	57		 push	 edi
  005ac	ff 50 08	 call	 DWORD PTR [eax+8]
$LN19@MakeElemen:

; 725  : 			}
; 726  : 		}
; 727  : 
; 728  : 		pElement = CElementFactory::Make(GetToolType(),coordStart,coordEnd,GetTextPosition(),environment,dChannelHeight);

  005af	8b b5 54 ff ff
	ff		 mov	 esi, DWORD PTR _this$GSCopy$1$[ebp]
  005b5	83 ec 08	 sub	 esp, 8
  005b8	f2 0f 10 85 2c
	ff ff ff	 movsd	 xmm0, QWORD PTR _dChannelHeight$1$[ebp]
  005c0	8b ce		 mov	 ecx, esi
  005c2	8b 06		 mov	 eax, DWORD PTR [esi]
  005c4	f2 0f 11 04 24	 movsd	 QWORD PTR [esp], xmm0
  005c9	ff b5 58 ff ff
	ff		 push	 DWORD PTR _environment$GSCopy$1$[ebp]
  005cf	8b 40 28	 mov	 eax, DWORD PTR [eax+40]
  005d2	ff d0		 call	 eax
  005d4	50		 push	 eax
  005d5	8d 85 d4 fe ff
	ff		 lea	 eax, DWORD PTR _coordEnd$[ebp]
  005db	8b ce		 mov	 ecx, esi
  005dd	50		 push	 eax
  005de	8d 85 b4 fe ff
	ff		 lea	 eax, DWORD PTR _coordStart$[ebp]
  005e4	50		 push	 eax
  005e5	8b 06		 mov	 eax, DWORD PTR [esi]
  005e7	8b 40 24	 mov	 eax, DWORD PTR [eax+36]
  005ea	ff d0		 call	 eax
  005ec	50		 push	 eax
  005ed	e8 00 00 00 00	 call	 ?Make@CElementFactory@@SAPAVCElement@@W4TOOLTYPE@CAnalysis@@ABVCCoordinate@@1PBVCTextPosition@@ABVCElementCommonEnvironment@@N@Z ; CElementFactory::Make
  005f2	83 c4 1c	 add	 esp, 28			; 0000001cH
  005f5	8b f8		 mov	 edi, eax
; File D:\git\src\IBK\IBK_DRFN\ProjSrc\SrcChartEx\ChartAddIn\ChartAnalysisToolAddIn\Include_AddIn_133101\I133101\_IString.h

; 45   : 		if( m_pIStrData)

  005f7	8b 8d 28 ff ff
	ff		 mov	 ecx, DWORD PTR _szGraphName$5[ebp+4]
  005fd	c6 45 fc 08	 mov	 BYTE PTR __$EHRec$[ebp+8], 8
  00601	85 c9		 test	 ecx, ecx
  00603	74 06		 je	 SHORT $LN84@MakeElemen

; 46   : 		{
; 47   : 			m_pIStrData->Release();

  00605	8b 01		 mov	 eax, DWORD PTR [ecx]
  00607	51		 push	 ecx
  00608	ff 50 08	 call	 DWORD PTR [eax+8]
$LN84@MakeElemen:

; 45   : 		if( m_pIStrData)

  0060b	8b 95 70 ff ff
	ff		 mov	 edx, DWORD PTR _szRQ$15[ebp+4]
  00611	c6 45 fc 09	 mov	 BYTE PTR __$EHRec$[ebp+8], 9
  00615	85 d2		 test	 edx, edx
  00617	74 06		 je	 SHORT $LN88@MakeElemen

; 46   : 		{
; 47   : 			m_pIStrData->Release();

  00619	8b 02		 mov	 eax, DWORD PTR [edx]
  0061b	52		 push	 edx
  0061c	ff 50 08	 call	 DWORD PTR [eax+8]
$LN88@MakeElemen:
; File D:\git\src\IBK\IBK_DRFN\ProjSrc\SrcChartEx\ChartAddIn\ChartAnalysisToolAddIn\AnalysisTool\PointTool.cpp

; 735  : 	return pElement;

  0061f	8d 4d 90	 lea	 ecx, DWORD PTR _calcData$[ebp]
  00622	e8 00 00 00 00	 call	 ??1CCoordinateCalculatorData@@QAE@XZ ; CCoordinateCalculatorData::~CCoordinateCalculatorData
  00627	8d 8d e8 fe ff
	ff		 lea	 ecx, DWORD PTR _coordEnd$[ebp+20]
  0062d	ff 15 00 00 00
	00		 call	 DWORD PTR __imp_??1?$CStringT@DV?$StrTraitMFC_DLL@DV?$ChTraitsCRT@D@ATL@@@@@ATL@@QAE@XZ
  00633	8d 8d c8 fe ff
	ff		 lea	 ecx, DWORD PTR _coordStart$[ebp+20]
  00639	ff 15 00 00 00
	00		 call	 DWORD PTR __imp_??1?$CStringT@DV?$StrTraitMFC_DLL@DV?$ChTraitsCRT@D@ATL@@@@@ATL@@QAE@XZ
  0063f	8b c7		 mov	 eax, edi

; 736  : }

  00641	8b 4d f4	 mov	 ecx, DWORD PTR __$EHRec$[ebp]
  00644	64 89 0d 00 00
	00 00		 mov	 DWORD PTR fs:0, ecx
  0064b	59		 pop	 ecx
  0064c	5f		 pop	 edi
  0064d	5e		 pop	 esi
  0064e	8b 4d f0	 mov	 ecx, DWORD PTR __$ArrayPad$[ebp]
  00651	33 cd		 xor	 ecx, ebp
  00653	e8 00 00 00 00	 call	 @__security_check_cookie@4
  00658	8b e5		 mov	 esp, ebp
  0065a	5d		 pop	 ebp
  0065b	c2 04 00	 ret	 4
_TEXT	ENDS
;	COMDAT text$x
text$x	SEGMENT
__unwindfunclet$?MakeElement@CTwoPointDownTool@@MAEPAVCElement@@ABVCElementCommonEnvironment@@@Z$0:
  00000	8d 8d b4 fe ff
	ff		 lea	 ecx, DWORD PTR _coordStart$[ebp]
  00006	e9 00 00 00 00	 jmp	 ??1CCoordinate@@QAE@XZ
__unwindfunclet$?MakeElement@CTwoPointDownTool@@MAEPAVCElement@@ABVCElementCommonEnvironment@@@Z$1:
  0000b	8d 8d f4 fe ff
	ff		 lea	 ecx, DWORD PTR $T3[ebp]
  00011	e9 00 00 00 00	 jmp	 ??1CPoints@@QAE@XZ
__unwindfunclet$?MakeElement@CTwoPointDownTool@@MAEPAVCElement@@ABVCElementCommonEnvironment@@@Z$2:
  00016	8d 8d d4 fe ff
	ff		 lea	 ecx, DWORD PTR _coordEnd$[ebp]
  0001c	e9 00 00 00 00	 jmp	 ??1CCoordinate@@QAE@XZ
__unwindfunclet$?MakeElement@CTwoPointDownTool@@MAEPAVCElement@@ABVCElementCommonEnvironment@@@Z$3:
  00021	8d 4d 90	 lea	 ecx, DWORD PTR _calcData$[ebp]
  00024	e9 00 00 00 00	 jmp	 ??1CCoordinateCalculatorData@@QAE@XZ ; CCoordinateCalculatorData::~CCoordinateCalculatorData
__unwindfunclet$?MakeElement@CTwoPointDownTool@@MAEPAVCElement@@ABVCElementCommonEnvironment@@@Z$4:
  00029	8d 8d 6c ff ff
	ff		 lea	 ecx, DWORD PTR _szRQ$15[ebp]
  0002f	e9 00 00 00 00	 jmp	 ??1ILPCSTR133101@@QAE@XZ ; ILPCSTR133101::~ILPCSTR133101
__unwindfunclet$?MakeElement@CTwoPointDownTool@@MAEPAVCElement@@ABVCElementCommonEnvironment@@@Z$5:
  00034	8d 8d 24 ff ff
	ff		 lea	 ecx, DWORD PTR _szGraphName$5[ebp]
  0003a	e9 00 00 00 00	 jmp	 ??1ILPCSTR133101@@QAE@XZ ; ILPCSTR133101::~ILPCSTR133101
__unwindfunclet$?MakeElement@CTwoPointDownTool@@MAEPAVCElement@@ABVCElementCommonEnvironment@@@Z$6:
  0003f	8d 8d f4 fe ff
	ff		 lea	 ecx, DWORD PTR $T2[ebp]
  00045	e9 00 00 00 00	 jmp	 ??1CPoints@@QAE@XZ
  0004a	cc		 int	 3
  0004b	cc		 int	 3
  0004c	cc		 int	 3
  0004d	cc		 int	 3
  0004e	cc		 int	 3
__ehhandler$?MakeElement@CTwoPointDownTool@@MAEPAVCElement@@ABVCElementCommonEnvironment@@@Z:
  0004f	90		 npad	 1
  00050	90		 npad	 1
  00051	8b 54 24 08	 mov	 edx, DWORD PTR [esp+8]
  00055	8d 42 0c	 lea	 eax, DWORD PTR [edx+12]
  00058	8b 8a b4 fe ff
	ff		 mov	 ecx, DWORD PTR [edx-332]
  0005e	33 c8		 xor	 ecx, eax
  00060	e8 00 00 00 00	 call	 @__security_check_cookie@4
  00065	8b 4a fc	 mov	 ecx, DWORD PTR [edx-4]
  00068	33 c8		 xor	 ecx, eax
  0006a	e8 00 00 00 00	 call	 @__security_check_cookie@4
  0006f	b8 00 00 00 00	 mov	 eax, OFFSET __ehfuncinfo$?MakeElement@CTwoPointDownTool@@MAEPAVCElement@@ABVCElementCommonEnvironment@@@Z
  00074	e9 00 00 00 00	 jmp	 ___CxxFrameHandler3
text$x	ENDS
?MakeElement@CTwoPointDownTool@@MAEPAVCElement@@ABVCElementCommonEnvironment@@@Z ENDP ; CTwoPointDownTool::MakeElement
; Function compile flags: /Ogtp
; File D:\git\src\IBK\IBK_DRFN\ProjSrc\SrcChartEx\ChartAddIn\ChartAnalysisToolAddIn\AnalysisTool\PointTool.cpp
;	COMDAT ?IsMakeElement@CTwoPointDownTool@@MBE_NABVCPoint@@@Z
_TEXT	SEGMENT
$T2 = -116						; size = 40
$T3 = -76						; size = 32
$T4 = -44						; size = 32
__$EHRec$ = -12						; size = 12
_point$ = 8						; size = 4
?IsMakeElement@CTwoPointDownTool@@MBE_NABVCPoint@@@Z PROC ; CTwoPointDownTool::IsMakeElement, COMDAT
; _this$ = ecx

; 636  : {

  00000	55		 push	 ebp
  00001	8b ec		 mov	 ebp, esp
  00003	6a ff		 push	 -1
  00005	68 00 00 00 00	 push	 __ehhandler$?IsMakeElement@CTwoPointDownTool@@MBE_NABVCPoint@@@Z
  0000a	64 a1 00 00 00
	00		 mov	 eax, DWORD PTR fs:0
  00010	50		 push	 eax
  00011	83 ec 68	 sub	 esp, 104		; 00000068H
  00014	53		 push	 ebx
  00015	56		 push	 esi
  00016	57		 push	 edi
  00017	a1 00 00 00 00	 mov	 eax, DWORD PTR ___security_cookie
  0001c	33 c5		 xor	 eax, ebp
  0001e	50		 push	 eax
  0001f	8d 45 f4	 lea	 eax, DWORD PTR __$EHRec$[ebp]
  00022	64 a3 00 00 00
	00		 mov	 DWORD PTR fs:0, eax
  00028	8b f9		 mov	 edi, ecx

; 637  : 	if(PointInDrawingRegion(point) == FALSE)

  0002a	8b 07		 mov	 eax, DWORD PTR [edi]
  0002c	8b 75 08	 mov	 esi, DWORD PTR _point$[ebp]
  0002f	56		 push	 esi
  00030	8b 40 1c	 mov	 eax, DWORD PTR [eax+28]
  00033	ff d0		 call	 eax
  00035	84 c0		 test	 al, al
  00037	74 76		 je	 SHORT $LN20@IsMakeElem

; 638  : 		return false;
; 639  : 
; 640  : 	if(m_downPoints.GetSavingPoint() == CTool::GetPoints(point).GetSavingPoint())

  00039	56		 push	 esi
  0003a	8d 45 8c	 lea	 eax, DWORD PTR $T2[ebp]
  0003d	8b cf		 mov	 ecx, edi
  0003f	50		 push	 eax
  00040	e8 00 00 00 00	 call	 ?GetPoints@CTool@@IBE?AVCPoints@@ABVCPoint@@@Z ; CTool::GetPoints
  00045	8d 4d b4	 lea	 ecx, DWORD PTR $T3[ebp]
  00048	c7 45 fc 00 00
	00 00		 mov	 DWORD PTR __$EHRec$[ebp+8], 0
  0004f	51		 push	 ecx
  00050	8b c8		 mov	 ecx, eax
  00052	e8 00 00 00 00	 call	 ?GetSavingPoint@CPoints@@QBE?AVCCoordinate@@XZ ; CPoints::GetSavingPoint
  00057	8b f0		 mov	 esi, eax
  00059	8d 45 d4	 lea	 eax, DWORD PTR $T4[ebp]
  0005c	c6 45 fc 01	 mov	 BYTE PTR __$EHRec$[ebp+8], 1
  00060	50		 push	 eax
  00061	8d 8f d0 00 00
	00		 lea	 ecx, DWORD PTR [edi+208]
  00067	e8 00 00 00 00	 call	 ?GetSavingPoint@CPoints@@QBE?AVCCoordinate@@XZ ; CPoints::GetSavingPoint
  0006c	56		 push	 esi
  0006d	8b c8		 mov	 ecx, eax
  0006f	c6 45 fc 02	 mov	 BYTE PTR __$EHRec$[ebp+8], 2
  00073	e8 00 00 00 00	 call	 ??8CCoordinate@@QAE_NABV0@@Z ; CCoordinate::operator==
  00078	8d 4d e8	 lea	 ecx, DWORD PTR $T4[ebp+20]
  0007b	8a d8		 mov	 bl, al
  0007d	ff 15 00 00 00
	00		 call	 DWORD PTR __imp_??1?$CStringT@DV?$StrTraitMFC_DLL@DV?$ChTraitsCRT@D@ATL@@@@@ATL@@QAE@XZ
  00083	8d 4d c8	 lea	 ecx, DWORD PTR $T3[ebp+20]
  00086	ff 15 00 00 00
	00		 call	 DWORD PTR __imp_??1?$CStringT@DV?$StrTraitMFC_DLL@DV?$ChTraitsCRT@D@ATL@@@@@ATL@@QAE@XZ
  0008c	8d 4d a0	 lea	 ecx, DWORD PTR $T2[ebp+20]
  0008f	ff 15 00 00 00
	00		 call	 DWORD PTR __imp_??1?$CStringT@DV?$StrTraitMFC_DLL@DV?$ChTraitsCRT@D@ATL@@@@@ATL@@QAE@XZ
  00095	84 db		 test	 bl, bl
  00097	75 16		 jne	 SHORT $LN20@IsMakeElem

; 642  : 
; 643  : 	return true;

  00099	b0 01		 mov	 al, 1

; 644  : }

  0009b	8b 4d f4	 mov	 ecx, DWORD PTR __$EHRec$[ebp]
  0009e	64 89 0d 00 00
	00 00		 mov	 DWORD PTR fs:0, ecx
  000a5	59		 pop	 ecx
  000a6	5f		 pop	 edi
  000a7	5e		 pop	 esi
  000a8	5b		 pop	 ebx
  000a9	8b e5		 mov	 esp, ebp
  000ab	5d		 pop	 ebp
  000ac	c2 04 00	 ret	 4
$LN20@IsMakeElem:

; 641  : 		return false;

  000af	32 c0		 xor	 al, al

; 644  : }

  000b1	8b 4d f4	 mov	 ecx, DWORD PTR __$EHRec$[ebp]
  000b4	64 89 0d 00 00
	00 00		 mov	 DWORD PTR fs:0, ecx
  000bb	59		 pop	 ecx
  000bc	5f		 pop	 edi
  000bd	5e		 pop	 esi
  000be	5b		 pop	 ebx
  000bf	8b e5		 mov	 esp, ebp
  000c1	5d		 pop	 ebp
  000c2	c2 04 00	 ret	 4
_TEXT	ENDS
;	COMDAT text$x
text$x	SEGMENT
__unwindfunclet$?IsMakeElement@CTwoPointDownTool@@MBE_NABVCPoint@@@Z$0:
  00000	8d 4d 8c	 lea	 ecx, DWORD PTR $T2[ebp]
  00003	e9 00 00 00 00	 jmp	 ??1CPoints@@QAE@XZ
__unwindfunclet$?IsMakeElement@CTwoPointDownTool@@MBE_NABVCPoint@@@Z$1:
  00008	8d 4d b4	 lea	 ecx, DWORD PTR $T3[ebp]
  0000b	e9 00 00 00 00	 jmp	 ??1CCoordinate@@QAE@XZ
__unwindfunclet$?IsMakeElement@CTwoPointDownTool@@MBE_NABVCPoint@@@Z$2:
  00010	8d 4d d4	 lea	 ecx, DWORD PTR $T4[ebp]
  00013	e9 00 00 00 00	 jmp	 ??1CCoordinate@@QAE@XZ
  00018	cc		 int	 3
  00019	cc		 int	 3
  0001a	cc		 int	 3
  0001b	cc		 int	 3
  0001c	cc		 int	 3
__ehhandler$?IsMakeElement@CTwoPointDownTool@@MBE_NABVCPoint@@@Z:
  0001d	90		 npad	 1
  0001e	90		 npad	 1
  0001f	8b 54 24 08	 mov	 edx, DWORD PTR [esp+8]
  00023	8d 42 0c	 lea	 eax, DWORD PTR [edx+12]
  00026	8b 4a 88	 mov	 ecx, DWORD PTR [edx-120]
  00029	33 c8		 xor	 ecx, eax
  0002b	e8 00 00 00 00	 call	 @__security_check_cookie@4
  00030	b8 00 00 00 00	 mov	 eax, OFFSET __ehfuncinfo$?IsMakeElement@CTwoPointDownTool@@MBE_NABVCPoint@@@Z
  00035	e9 00 00 00 00	 jmp	 ___CxxFrameHandler3
text$x	ENDS
?IsMakeElement@CTwoPointDownTool@@MBE_NABVCPoint@@@Z ENDP ; CTwoPointDownTool::IsMakeElement
; Function compile flags: /Ogtp
; File D:\git\src\IBK\IBK_DRFN\ProjSrc\SrcChartEx\ChartAddIn\ChartAnalysisToolAddIn\AnalysisTool\PointTool.cpp
; File C:\Program Files (x86)\Microsoft Visual Studio\2019\Community\VC\Tools\MSVC\14.29.30133\atlmfc\include\atltypes.h
; File D:\git\src\IBK\IBK_DRFN\ProjSrc\SrcChartEx\ChartAddIn\ChartAnalysisToolAddIn\AnalysisTool\PointTool.cpp
;	COMDAT ?PointInDrawingRegion@CTwoPointDownTool@@MBE_NABVCPoint@@@Z
_TEXT	SEGMENT
_currentRegion$ = -20					; size = 16
__$ArrayPad$ = -4					; size = 4
_point$ = 8						; size = 4
?PointInDrawingRegion@CTwoPointDownTool@@MBE_NABVCPoint@@@Z PROC ; CTwoPointDownTool::PointInDrawingRegion, COMDAT
; _this$ = ecx

; 627  : {

  00000	55		 push	 ebp
  00001	8b ec		 mov	 ebp, esp
  00003	83 ec 14	 sub	 esp, 20			; 00000014H
  00006	a1 00 00 00 00	 mov	 eax, DWORD PTR ___security_cookie
  0000b	33 c5		 xor	 eax, ebp
  0000d	89 45 fc	 mov	 DWORD PTR __$ArrayPad$[ebp], eax

; 628  : 	CRect currentRegion = CTool::GetDrawingRegions().GetCurrentFullGraphRegion();

  00010	8d 45 ec	 lea	 eax, DWORD PTR _currentRegion$[ebp]
  00013	50		 push	 eax
  00014	e8 00 00 00 00	 call	 ?GetDrawingRegions@CTool@@IBEABVCDrawingRegions@@XZ ; CTool::GetDrawingRegions
  00019	8b c8		 mov	 ecx, eax
  0001b	e8 00 00 00 00	 call	 ?GetCurrentFullGraphRegion@CDrawingRegions@@QBE?AVCRect@@XZ ; CDrawingRegions::GetCurrentFullGraphRegion
; File C:\Program Files (x86)\Microsoft Visual Studio\2019\Community\VC\Tools\MSVC\14.29.30133\atlmfc\include\atltypes.h

; 638  : 	return ::IsRectEmpty(this);

  00020	8d 45 ec	 lea	 eax, DWORD PTR _currentRegion$[ebp]
  00023	50		 push	 eax
  00024	ff 15 00 00 00
	00		 call	 DWORD PTR __imp__IsRectEmpty@4
; File D:\git\src\IBK\IBK_DRFN\ProjSrc\SrcChartEx\ChartAddIn\ChartAnalysisToolAddIn\AnalysisTool\PointTool.cpp

; 629  : 	if(currentRegion.IsRectEmpty())

  0002a	85 c0		 test	 eax, eax
  0002c	75 22		 jne	 SHORT $LN4@PointInDra

; 630  : 		return false;
; 631  : 
; 632  : 	return (currentRegion.top <= point.y && currentRegion.bottom >= point.y);

  0002e	8b 45 08	 mov	 eax, DWORD PTR _point$[ebp]
  00031	8b 40 04	 mov	 eax, DWORD PTR [eax+4]
  00034	39 45 f0	 cmp	 DWORD PTR _currentRegion$[ebp+4], eax
  00037	7f 17		 jg	 SHORT $LN4@PointInDra
  00039	39 45 f8	 cmp	 DWORD PTR _currentRegion$[ebp+12], eax
  0003c	7c 12		 jl	 SHORT $LN4@PointInDra
  0003e	b0 01		 mov	 al, 1

; 633  : }

  00040	8b 4d fc	 mov	 ecx, DWORD PTR __$ArrayPad$[ebp]
  00043	33 cd		 xor	 ecx, ebp
  00045	e8 00 00 00 00	 call	 @__security_check_cookie@4
  0004a	8b e5		 mov	 esp, ebp
  0004c	5d		 pop	 ebp
  0004d	c2 04 00	 ret	 4
$LN4@PointInDra:
  00050	8b 4d fc	 mov	 ecx, DWORD PTR __$ArrayPad$[ebp]
  00053	32 c0		 xor	 al, al
  00055	33 cd		 xor	 ecx, ebp
  00057	e8 00 00 00 00	 call	 @__security_check_cookie@4
  0005c	8b e5		 mov	 esp, ebp
  0005e	5d		 pop	 ebp
  0005f	c2 04 00	 ret	 4
?PointInDrawingRegion@CTwoPointDownTool@@MBE_NABVCPoint@@@Z ENDP ; CTwoPointDownTool::PointInDrawingRegion
_TEXT	ENDS
; Function compile flags: /Ogtp
; File D:\git\src\IBK\IBK_DRFN\ProjSrc\SrcChartEx\ChartAddIn\ChartAnalysisToolAddIn\AnalysisTool\PointTool.cpp
;	COMDAT ?OnLButtonDown@CTwoPointDownTool@@UAEPAVCElement@@PAVCDC@@ABVCPoint@@@Z
_TEXT	SEGMENT
$T2 = -52						; size = 40
__$EHRec$ = -12						; size = 12
_pDC$ = 8						; size = 4
_point$ = 12						; size = 4
?OnLButtonDown@CTwoPointDownTool@@UAEPAVCElement@@PAVCDC@@ABVCPoint@@@Z PROC ; CTwoPointDownTool::OnLButtonDown, COMDAT
; _this$ = ecx

; 619  : {

  00000	55		 push	 ebp
  00001	8b ec		 mov	 ebp, esp
  00003	6a ff		 push	 -1
  00005	68 00 00 00 00	 push	 __ehhandler$?OnLButtonDown@CTwoPointDownTool@@UAEPAVCElement@@PAVCDC@@ABVCPoint@@@Z
  0000a	64 a1 00 00 00
	00		 mov	 eax, DWORD PTR fs:0
  00010	50		 push	 eax
  00011	83 ec 28	 sub	 esp, 40			; 00000028H
  00014	56		 push	 esi
  00015	57		 push	 edi
  00016	a1 00 00 00 00	 mov	 eax, DWORD PTR ___security_cookie
  0001b	33 c5		 xor	 eax, ebp
  0001d	50		 push	 eax
  0001e	8d 45 f4	 lea	 eax, DWORD PTR __$EHRec$[ebp]
  00021	64 a3 00 00 00
	00		 mov	 DWORD PTR fs:0, eax
  00027	8b f9		 mov	 edi, ecx

; 620  : 	COneOrTwoPointTool::OnLButtonDown(pDC, point);

  00029	ff 75 0c	 push	 DWORD PTR _point$[ebp]
  0002c	ff 75 08	 push	 DWORD PTR _pDC$[ebp]
  0002f	e8 00 00 00 00	 call	 ?OnLButtonDown@COneOrTwoPointTool@@UAEPAVCElement@@PAVCDC@@ABVCPoint@@@Z ; COneOrTwoPointTool::OnLButtonDown

; 475  : 	return m_upPoints;

  00034	8d b7 a8 00 00
	00		 lea	 esi, DWORD PTR [edi+168]
  0003a	56		 push	 esi
  0003b	8d 4d cc	 lea	 ecx, DWORD PTR $T2[ebp]
  0003e	e8 00 00 00 00	 call	 ??0CCoordinate@@QAE@ABV0@@Z ; CCoordinate::CCoordinate
  00043	8b 46 20	 mov	 eax, DWORD PTR [esi+32]
  00046	8b 4e 24	 mov	 ecx, DWORD PTR [esi+36]
  00049	89 45 ec	 mov	 DWORD PTR $T2[ebp+32], eax
  0004c	89 4d f0	 mov	 DWORD PTR $T2[ebp+36], ecx

; 621  : 	m_downPoints = COneOrTwoPointTool::GetUpPoints();	

  0004f	8d 45 cc	 lea	 eax, DWORD PTR $T2[ebp]
  00052	c7 45 fc 00 00
	00 00		 mov	 DWORD PTR __$EHRec$[ebp+8], 0
  00059	50		 push	 eax
  0005a	8d 8f d0 00 00
	00		 lea	 ecx, DWORD PTR [edi+208]
  00060	e8 00 00 00 00	 call	 ??4CPoints@@QAEAAV0@ABV0@@Z ; CPoints::operator=
  00065	8d 4d e0	 lea	 ecx, DWORD PTR $T2[ebp+20]
  00068	ff 15 00 00 00
	00		 call	 DWORD PTR __imp_??1?$CStringT@DV?$StrTraitMFC_DLL@DV?$ChTraitsCRT@D@ATL@@@@@ATL@@QAE@XZ

; 622  : 	return NULL;

  0006e	33 c0		 xor	 eax, eax

; 623  : }

  00070	8b 4d f4	 mov	 ecx, DWORD PTR __$EHRec$[ebp]
  00073	64 89 0d 00 00
	00 00		 mov	 DWORD PTR fs:0, ecx
  0007a	59		 pop	 ecx
  0007b	5f		 pop	 edi
  0007c	5e		 pop	 esi
  0007d	8b e5		 mov	 esp, ebp
  0007f	5d		 pop	 ebp
  00080	c2 08 00	 ret	 8
_TEXT	ENDS
;	COMDAT text$x
text$x	SEGMENT
__unwindfunclet$?OnLButtonDown@CTwoPointDownTool@@UAEPAVCElement@@PAVCDC@@ABVCPoint@@@Z$0:
  00000	8d 4d cc	 lea	 ecx, DWORD PTR $T2[ebp]
  00003	e9 00 00 00 00	 jmp	 ??1CPoints@@QAE@XZ
  00008	cc		 int	 3
  00009	cc		 int	 3
  0000a	cc		 int	 3
  0000b	cc		 int	 3
  0000c	cc		 int	 3
__ehhandler$?OnLButtonDown@CTwoPointDownTool@@UAEPAVCElement@@PAVCDC@@ABVCPoint@@@Z:
  0000d	90		 npad	 1
  0000e	90		 npad	 1
  0000f	8b 54 24 08	 mov	 edx, DWORD PTR [esp+8]
  00013	8d 42 0c	 lea	 eax, DWORD PTR [edx+12]
  00016	8b 4a cc	 mov	 ecx, DWORD PTR [edx-52]
  00019	33 c8		 xor	 ecx, eax
  0001b	e8 00 00 00 00	 call	 @__security_check_cookie@4
  00020	b8 00 00 00 00	 mov	 eax, OFFSET __ehfuncinfo$?OnLButtonDown@CTwoPointDownTool@@UAEPAVCElement@@PAVCDC@@ABVCPoint@@@Z
  00025	e9 00 00 00 00	 jmp	 ___CxxFrameHandler3
text$x	ENDS
?OnLButtonDown@CTwoPointDownTool@@UAEPAVCElement@@PAVCDC@@ABVCPoint@@@Z ENDP ; CTwoPointDownTool::OnLButtonDown
; Function compile flags: /Ogtp
; File D:\git\src\IBK\IBK_DRFN\ProjSrc\SrcChartEx\ChartAddIn\ChartAnalysisToolAddIn\AnalysisTool\PointTool.cpp
;	COMDAT ??0CTwoPointDownTool@@IAE@PAVCAnalysisData@@W4COORDINATETYPE@CAnalysis@@@Z
_TEXT	SEGMENT
_this$ = -16						; size = 4
__$EHRec$ = -12						; size = 12
_pAnalysisData$ = 8					; size = 4
_eCoordinateType$ = 12					; size = 4
??0CTwoPointDownTool@@IAE@PAVCAnalysisData@@W4COORDINATETYPE@CAnalysis@@@Z PROC ; CTwoPointDownTool::CTwoPointDownTool, COMDAT
; _this$ = ecx

; 614  : {

  00000	55		 push	 ebp
  00001	8b ec		 mov	 ebp, esp
  00003	6a ff		 push	 -1
  00005	68 00 00 00 00	 push	 __ehhandler$??0CTwoPointDownTool@@IAE@PAVCAnalysisData@@W4COORDINATETYPE@CAnalysis@@@Z
  0000a	64 a1 00 00 00
	00		 mov	 eax, DWORD PTR fs:0
  00010	50		 push	 eax
  00011	51		 push	 ecx
  00012	56		 push	 esi
  00013	a1 00 00 00 00	 mov	 eax, DWORD PTR ___security_cookie
  00018	33 c5		 xor	 eax, ebp
  0001a	50		 push	 eax
  0001b	8d 45 f4	 lea	 eax, DWORD PTR __$EHRec$[ebp]
  0001e	64 a3 00 00 00
	00		 mov	 DWORD PTR fs:0, eax
  00024	8b f1		 mov	 esi, ecx
  00026	89 75 f0	 mov	 DWORD PTR _this$[ebp], esi

; 613  : 	COneOrTwoPointTool(pAnalysisData, eCoordinateType)

  00029	ff 75 0c	 push	 DWORD PTR _eCoordinateType$[ebp]
  0002c	ff 75 08	 push	 DWORD PTR _pAnalysisData$[ebp]
  0002f	e8 00 00 00 00	 call	 ??0COneOrTwoPointTool@@IAE@PAVCAnalysisData@@W4COORDINATETYPE@CAnalysis@@@Z ; COneOrTwoPointTool::COneOrTwoPointTool

; 614  : {

  00034	8d 8e d0 00 00
	00		 lea	 ecx, DWORD PTR [esi+208]
  0003a	c7 45 fc 00 00
	00 00		 mov	 DWORD PTR __$EHRec$[ebp+8], 0
  00041	c7 06 00 00 00
	00		 mov	 DWORD PTR [esi], OFFSET ??_7CTwoPointDownTool@@6B@
  00047	e8 00 00 00 00	 call	 ??0CPoints@@QAE@XZ	; CPoints::CPoints

; 615  : }

  0004c	8b c6		 mov	 eax, esi
  0004e	8b 4d f4	 mov	 ecx, DWORD PTR __$EHRec$[ebp]
  00051	64 89 0d 00 00
	00 00		 mov	 DWORD PTR fs:0, ecx
  00058	59		 pop	 ecx
  00059	5e		 pop	 esi
  0005a	8b e5		 mov	 esp, ebp
  0005c	5d		 pop	 ebp
  0005d	c2 08 00	 ret	 8
_TEXT	ENDS
;	COMDAT text$x
text$x	SEGMENT
__unwindfunclet$??0CTwoPointDownTool@@IAE@PAVCAnalysisData@@W4COORDINATETYPE@CAnalysis@@@Z$0:
  00000	8b 4d f0	 mov	 ecx, DWORD PTR _this$[ebp]
  00003	e9 00 00 00 00	 jmp	 ??1COneOrTwoPointTool@@QAE@XZ
  00008	cc		 int	 3
  00009	cc		 int	 3
  0000a	cc		 int	 3
  0000b	cc		 int	 3
  0000c	cc		 int	 3
__ehhandler$??0CTwoPointDownTool@@IAE@PAVCAnalysisData@@W4COORDINATETYPE@CAnalysis@@@Z:
  0000d	90		 npad	 1
  0000e	90		 npad	 1
  0000f	8b 54 24 08	 mov	 edx, DWORD PTR [esp+8]
  00013	8d 42 0c	 lea	 eax, DWORD PTR [edx+12]
  00016	8b 4a f4	 mov	 ecx, DWORD PTR [edx-12]
  00019	33 c8		 xor	 ecx, eax
  0001b	e8 00 00 00 00	 call	 @__security_check_cookie@4
  00020	b8 00 00 00 00	 mov	 eax, OFFSET __ehfuncinfo$??0CTwoPointDownTool@@IAE@PAVCAnalysisData@@W4COORDINATETYPE@CAnalysis@@@Z
  00025	e9 00 00 00 00	 jmp	 ___CxxFrameHandler3
text$x	ENDS
??0CTwoPointDownTool@@IAE@PAVCAnalysisData@@W4COORDINATETYPE@CAnalysis@@@Z ENDP ; CTwoPointDownTool::CTwoPointDownTool
; Function compile flags: /Ogtp
; File D:\git\src\IBK\IBK_DRFN\ProjSrc\SrcChartEx\ChartAddIn\ChartAnalysisToolAddIn\AnalysisTool\PointTool.cpp
; File D:\git\src\IBK\IBK_DRFN\ProjSrc\SrcChartEx\ChartAddIn\ChartAnalysisToolAddIn\Include_AddIn_133101\I133101\_IString.h
; File D:\git\src\IBK\IBK_DRFN\ProjSrc\SrcChartEx\ChartAddIn\ChartAnalysisToolAddIn\AnalysisTool\PointTool.cpp
; File D:\git\src\IBK\IBK_DRFN\ProjSrc\SrcChartEx\ChartAddIn\ChartAnalysisToolAddIn\Include_AddIn_133101\I133101\_IString.h
; File D:\git\src\IBK\IBK_DRFN\ProjSrc\SrcChartEx\ChartAddIn\ChartAnalysisToolAddIn\AnalysisTool\PointTool.cpp
; File D:\git\src\IBK\IBK_DRFN\ProjSrc\SrcChartEx\ChartAddIn\ChartAnalysisToolAddIn\Include_AddIn_133101\I133101\_IString.h
; File D:\git\src\IBK\IBK_DRFN\ProjSrc\SrcChartEx\ChartAddIn\ChartAnalysisToolAddIn\AnalysisTool\PointTool.cpp
; File D:\git\src\IBK\IBK_DRFN\ProjSrc\SrcChartEx\ChartAddIn\ChartAnalysisToolAddIn\Include_AddIn_133101\I133101\_IString.h
; File D:\git\src\IBK\IBK_DRFN\ProjSrc\SrcChartEx\ChartAddIn\ChartAnalysisToolAddIn\AnalysisTool\PointTool.cpp
;	COMDAT ?GetOnePointDrawingData@COnePointDownTool@@ABE?AVCOnePointDrawingData@@XZ
_TEXT	SEGMENT
$T2 = -388						; size = 72
$T3 = -316						; size = 72
$T4 = -244						; size = 40
$T5 = -204						; size = 8
$T6 = -196						; size = 40
$T7 = -196						; size = 40
$T8 = -156						; size = 8
$T9 = -156						; size = 8
_szRQ$ = -148						; size = 8
___$ReturnUdt$GSCopy$1$ = -140				; size = 4
$T10 = -134						; size = 2
_this$GSCopy$1$ = -132					; size = 4
_szHelpMsg$ = -128					; size = 8
___$ReturnUdt$GSCopy$ = -120				; size = 4
_strPacketType$ = -120					; size = 4
_strDataType$ = -116					; size = 4
_calData$ = -112					; size = 96
__$ArrayPad$ = -16					; size = 4
__$EHRec$ = -12						; size = 12
___$ReturnUdt$ = 8					; size = 4
?GetOnePointDrawingData@COnePointDownTool@@ABE?AVCOnePointDrawingData@@XZ PROC ; COnePointDownTool::GetOnePointDrawingData, COMDAT
; _this$ = ecx

; 579  : {

  00000	55		 push	 ebp
  00001	8b ec		 mov	 ebp, esp
  00003	6a ff		 push	 -1
  00005	68 00 00 00 00	 push	 __ehhandler$?GetOnePointDrawingData@COnePointDownTool@@ABE?AVCOnePointDrawingData@@XZ
  0000a	64 a1 00 00 00
	00		 mov	 eax, DWORD PTR fs:0
  00010	50		 push	 eax
  00011	81 ec 78 01 00
	00		 sub	 esp, 376		; 00000178H
  00017	a1 00 00 00 00	 mov	 eax, DWORD PTR ___security_cookie
  0001c	33 c5		 xor	 eax, ebp
  0001e	89 45 f0	 mov	 DWORD PTR __$ArrayPad$[ebp], eax
  00021	53		 push	 ebx
  00022	56		 push	 esi
  00023	57		 push	 edi
  00024	50		 push	 eax
  00025	8d 45 f4	 lea	 eax, DWORD PTR __$EHRec$[ebp]
  00028	64 a3 00 00 00
	00		 mov	 DWORD PTR fs:0, eax
  0002e	8b d9		 mov	 ebx, ecx
  00030	89 9d 7c ff ff
	ff		 mov	 DWORD PTR _this$GSCopy$1$[ebp], ebx
  00036	8b 45 08	 mov	 eax, DWORD PTR ___$ReturnUdt$[ebp]
  00039	89 45 88	 mov	 DWORD PTR ___$ReturnUdt$GSCopy$[ebp], eax
  0003c	89 85 74 ff ff
	ff		 mov	 DWORD PTR ___$ReturnUdt$GSCopy$1$[ebp], eax
; File D:\git\src\IBK\IBK_DRFN\ProjSrc\SrcChartEx\ChartAddIn\ChartAnalysisToolAddIn\Include_AddIn_133101\I133101\_IString.h

; 39   : 		m_pIStrData = p_pIString;	// Do not AddRef(). Because It must be Return Value.

  00042	c7 45 84 00 00
	00 00		 mov	 DWORD PTR _szHelpMsg$[ebp+4], 0

; 41   : 		else m_szData = NULL;

  00049	c7 45 80 00 00
	00 00		 mov	 DWORD PTR _szHelpMsg$[ebp], 0
; File D:\git\src\IBK\IBK_DRFN\ProjSrc\SrcChartEx\ChartAddIn\ChartAnalysisToolAddIn\AnalysisTool\PointTool.cpp

; 590  : 	CString strDataType, strPacketType;	

  00050	8d 4d 8c	 lea	 ecx, DWORD PTR _strDataType$[ebp]
  00053	c7 45 fc 00 00
	00 00		 mov	 DWORD PTR __$EHRec$[ebp+8], 0
  0005a	ff 15 00 00 00
	00		 call	 DWORD PTR __imp_??0?$CStringT@DV?$StrTraitMFC_DLL@DV?$ChTraitsCRT@D@ATL@@@@@ATL@@QAE@XZ
  00060	8d 4d 88	 lea	 ecx, DWORD PTR _strPacketType$[ebp]
  00063	ff 15 00 00 00
	00		 call	 DWORD PTR __imp_??0?$CStringT@DV?$StrTraitMFC_DLL@DV?$ChTraitsCRT@D@ATL@@@@@ATL@@QAE@XZ

; 475  : 	return m_upPoints;

  00069	8d bb a8 00 00
	00		 lea	 edi, DWORD PTR [ebx+168]

; 590  : 	CString strDataType, strPacketType;	

  0006f	c6 45 fc 02	 mov	 BYTE PTR __$EHRec$[ebp+8], 2
  00073	57		 push	 edi
  00074	8d 8d 3c ff ff
	ff		 lea	 ecx, DWORD PTR $T7[ebp]
  0007a	e8 00 00 00 00	 call	 ??0CCoordinate@@QAE@ABV0@@Z ; CCoordinate::CCoordinate
  0007f	8b 47 20	 mov	 eax, DWORD PTR [edi+32]
  00082	8b 4f 24	 mov	 ecx, DWORD PTR [edi+36]
  00085	89 85 5c ff ff
	ff		 mov	 DWORD PTR $T7[ebp+32], eax
  0008b	89 8d 60 ff ff
	ff		 mov	 DWORD PTR $T7[ebp+36], ecx

; 591  : 	CCoordinateCalculatorData calData = GetCoordinateCalculatorData( COneOrTwoPointTool::GetUpPoints().GetDrawingPoint());

  00091	8d 85 64 ff ff
	ff		 lea	 eax, DWORD PTR $T9[ebp]
  00097	c6 45 fc 03	 mov	 BYTE PTR __$EHRec$[ebp+8], 3
  0009b	50		 push	 eax
  0009c	8d 8d 3c ff ff
	ff		 lea	 ecx, DWORD PTR $T7[ebp]
  000a2	e8 00 00 00 00	 call	 ?GetDrawingPoint@CPoints@@QBE?AVCPoint@@XZ ; CPoints::GetDrawingPoint
  000a7	50		 push	 eax
  000a8	8d 45 90	 lea	 eax, DWORD PTR _calData$[ebp]
  000ab	8b cb		 mov	 ecx, ebx
  000ad	50		 push	 eax
  000ae	e8 00 00 00 00	 call	 ?GetCoordinateCalculatorData@CTool@@QBE?AVCCoordinateCalculatorData@@ABVCPoint@@@Z ; CTool::GetCoordinateCalculatorData
  000b3	8d 8d 50 ff ff
	ff		 lea	 ecx, DWORD PTR $T7[ebp+20]
  000b9	c6 45 fc 05	 mov	 BYTE PTR __$EHRec$[ebp+8], 5
  000bd	ff 15 00 00 00
	00		 call	 DWORD PTR __imp_??1?$CStringT@DV?$StrTraitMFC_DLL@DV?$ChTraitsCRT@D@ATL@@@@@ATL@@QAE@XZ

; 592  : 	ILPCSTR szRQ = calData.m_pIChartOCX->GetCurrentRQ();

  000c3	8b 4d dc	 mov	 ecx, DWORD PTR _calData$[ebp+76]
  000c6	8b 01		 mov	 eax, DWORD PTR [ecx]
  000c8	ff 90 40 02 00
	00		 call	 DWORD PTR [eax+576]
; File D:\git\src\IBK\IBK_DRFN\ProjSrc\SrcChartEx\ChartAddIn\ChartAnalysisToolAddIn\Include_AddIn_133101\I133101\_IString.h

; 39   : 		m_pIStrData = p_pIString;	// Do not AddRef(). Because It must be Return Value.

  000ce	8b c8		 mov	 ecx, eax
  000d0	89 8d 70 ff ff
	ff		 mov	 DWORD PTR _szRQ$[ebp+4], ecx

; 40   : 		if( m_pIStrData) m_szData = m_pIStrData->GetData();

  000d6	85 c9		 test	 ecx, ecx
  000d8	74 09		 je	 SHORT $LN33@GetOnePoin
  000da	8b 01		 mov	 eax, DWORD PTR [ecx]
  000dc	ff 50 10	 call	 DWORD PTR [eax+16]
  000df	8b d0		 mov	 edx, eax
  000e1	eb 02		 jmp	 SHORT $LN86@GetOnePoin
$LN33@GetOnePoin:

; 41   : 		else m_szData = NULL;

  000e3	33 d2		 xor	 edx, edx
$LN86@GetOnePoin:
; File D:\git\src\IBK\IBK_DRFN\ProjSrc\SrcChartEx\ChartAddIn\ChartAnalysisToolAddIn\AnalysisTool\PointTool.cpp

; 592  : 	ILPCSTR szRQ = calData.m_pIChartOCX->GetCurrentRQ();

  000e5	89 95 6c ff ff
	ff		 mov	 DWORD PTR _szRQ$[ebp], edx

; 593  : 	IPacketManager * pCurPacketManager = calData.m_pIPacketListManager->GetPacketManager(szRQ);

  000eb	8b 4d e0	 mov	 ecx, DWORD PTR _calData$[ebp+80]
  000ee	52		 push	 edx
  000ef	c6 45 fc 06	 mov	 BYTE PTR __$EHRec$[ebp+8], 6
  000f3	8b 01		 mov	 eax, DWORD PTR [ecx]
  000f5	ff 50 10	 call	 DWORD PTR [eax+16]
  000f8	8b f0		 mov	 esi, eax

; 594  : 	pCurPacketManager->GetHelpMessageItem("UD", szHelpMsg); strDataType = szHelpMsg;

  000fa	8d 4d 80	 lea	 ecx, DWORD PTR _szHelpMsg$[ebp]
  000fd	51		 push	 ecx
  000fe	68 00 00 00 00	 push	 OFFSET ??_C@_02PONMEALH@UD@
  00103	8b ce		 mov	 ecx, esi
  00105	8b 06		 mov	 eax, DWORD PTR [esi]
  00107	ff 50 18	 call	 DWORD PTR [eax+24]
  0010a	ff 75 80	 push	 DWORD PTR _szHelpMsg$[ebp]
  0010d	8d 4d 8c	 lea	 ecx, DWORD PTR _strDataType$[ebp]
  00110	ff 15 00 00 00
	00		 call	 DWORD PTR __imp_??4?$CStringT@DV?$StrTraitMFC_DLL@DV?$ChTraitsCRT@D@ATL@@@@@ATL@@QAEAAV01@PBD@Z

; 595  : 	pCurPacketManager->GetHelpMessageItem("RDATET", szHelpMsg); strPacketType = szHelpMsg;

  00116	8b 06		 mov	 eax, DWORD PTR [esi]
  00118	8d 4d 80	 lea	 ecx, DWORD PTR _szHelpMsg$[ebp]
  0011b	51		 push	 ecx
  0011c	68 00 00 00 00	 push	 OFFSET ??_C@_06MLGKKOBC@RDATET@
  00121	8b ce		 mov	 ecx, esi
  00123	ff 50 18	 call	 DWORD PTR [eax+24]
  00126	ff 75 80	 push	 DWORD PTR _szHelpMsg$[ebp]
  00129	8d 4d 88	 lea	 ecx, DWORD PTR _strPacketType$[ebp]
  0012c	ff 15 00 00 00
	00		 call	 DWORD PTR __imp_??4?$CStringT@DV?$StrTraitMFC_DLL@DV?$ChTraitsCRT@D@ATL@@@@@ATL@@QAEAAV01@PBD@Z

; 596  : 	CScaleBaseData::HORZSCALEDRAWERTYPE eDateUnit = (CScaleBaseData::HORZSCALEDRAWERTYPE)atoi(strDataType);

  00132	ff 75 8c	 push	 DWORD PTR _strDataType$[ebp]
  00135	ff 15 00 00 00
	00		 call	 DWORD PTR __imp__atoi
  0013b	83 c4 04	 add	 esp, 4
  0013e	8d 8d 0c ff ff
	ff		 lea	 ecx, DWORD PTR $T4[ebp]
  00144	8b d8		 mov	 ebx, eax
  00146	57		 push	 edi
  00147	e8 00 00 00 00	 call	 ??0CCoordinate@@QAE@ABV0@@Z ; CCoordinate::CCoordinate
  0014c	8b 47 20	 mov	 eax, DWORD PTR [edi+32]
  0014f	8b 4f 24	 mov	 ecx, DWORD PTR [edi+36]
  00152	89 85 2c ff ff
	ff		 mov	 DWORD PTR $T4[ebp+32], eax
  00158	89 8d 30 ff ff
	ff		 mov	 DWORD PTR $T4[ebp+36], ecx

; 599  : 	return COnePointDrawingData(CTool::GetElementCommonEnvironment().GetDataType(), 

  0015e	57		 push	 edi
  0015f	8d 8d 3c ff ff
	ff		 lea	 ecx, DWORD PTR $T6[ebp]
  00165	c6 45 fc 07	 mov	 BYTE PTR __$EHRec$[ebp+8], 7
  00169	e8 00 00 00 00	 call	 ??0CCoordinate@@QAE@ABV0@@Z ; CCoordinate::CCoordinate
  0016e	8b 47 20	 mov	 eax, DWORD PTR [edi+32]
  00171	8b 4f 24	 mov	 ecx, DWORD PTR [edi+36]
  00174	89 85 5c ff ff
	ff		 mov	 DWORD PTR $T6[ebp+32], eax
  0017a	89 8d 60 ff ff
	ff		 mov	 DWORD PTR $T6[ebp+36], ecx
  00180	8b 8d 7c ff ff
	ff		 mov	 ecx, DWORD PTR _this$GSCopy$1$[ebp]
  00186	8d 85 7c fe ff
	ff		 lea	 eax, DWORD PTR $T2[ebp]
  0018c	50		 push	 eax
  0018d	c6 45 fc 08	 mov	 BYTE PTR __$EHRec$[ebp+8], 8
  00191	e8 00 00 00 00	 call	 ?GetElementCommonEnvironment@CTool@@IBE?AVCElementCommonEnvironment@@XZ ; CTool::GetElementCommonEnvironment
  00196	8b f0		 mov	 esi, eax
  00198	8b 8d 7c ff ff
	ff		 mov	 ecx, DWORD PTR _this$GSCopy$1$[ebp]
  0019e	8d 85 c4 fe ff
	ff		 lea	 eax, DWORD PTR $T3[ebp]
  001a4	50		 push	 eax
  001a5	c6 45 fc 09	 mov	 BYTE PTR __$EHRec$[ebp+8], 9
  001a9	e8 00 00 00 00	 call	 ?GetElementCommonEnvironment@CTool@@IBE?AVCElementCommonEnvironment@@XZ ; CTool::GetElementCommonEnvironment
  001ae	8b f8		 mov	 edi, eax
  001b0	53		 push	 ebx
  001b1	8d 85 0c ff ff
	ff		 lea	 eax, DWORD PTR $T4[ebp]
  001b7	c6 45 fc 0a	 mov	 BYTE PTR __$EHRec$[ebp+8], 10 ; 0000000aH
  001bb	50		 push	 eax
  001bc	8d 85 64 ff ff
	ff		 lea	 eax, DWORD PTR $T8[ebp]
  001c2	50		 push	 eax
  001c3	8d 8d 3c ff ff
	ff		 lea	 ecx, DWORD PTR $T6[ebp]
  001c9	e8 00 00 00 00	 call	 ?GetDrawingPoint@CPoints@@QBE?AVCPoint@@XZ ; CPoints::GetDrawingPoint
  001ce	8b 9d 7c ff ff
	ff		 mov	 ebx, DWORD PTR _this$GSCopy$1$[ebp]
  001d4	8b cb		 mov	 ecx, ebx
  001d6	50		 push	 eax
  001d7	8d 85 7a ff ff
	ff		 lea	 eax, DWORD PTR $T10[ebp]
  001dd	50		 push	 eax
  001de	e8 00 00 00 00	 call	 ?GetVertScaleType@CTool@@IBE?AVCVertScaleType@@ABVCPoint@@@Z ; CTool::GetVertScaleType
  001e3	50		 push	 eax
  001e4	8d 85 34 ff ff
	ff		 lea	 eax, DWORD PTR $T5[ebp]
  001ea	8b cb		 mov	 ecx, ebx
  001ec	50		 push	 eax
  001ed	e8 00 00 00 00	 call	 ?GetDisplayAttributes@CTool@@IBE?AVCDisplayAttributes@@XZ ; CTool::GetDisplayAttributes
  001f2	50		 push	 eax
  001f3	8b cb		 mov	 ecx, ebx
  001f5	e8 00 00 00 00	 call	 ?GetDrawingRegions@CTool@@IBEABVCDrawingRegions@@XZ ; CTool::GetDrawingRegions
  001fa	50		 push	 eax
  001fb	8b ce		 mov	 ecx, esi
  001fd	e8 00 00 00 00	 call	 ?GetLineExt@CElementCommonEnvironment@@QAEAAVCLineExtEnvironment@@XZ ; CElementCommonEnvironment::GetLineExt
  00202	50		 push	 eax
  00203	8b 03		 mov	 eax, DWORD PTR [ebx]
  00205	8b cb		 mov	 ecx, ebx
  00207	ff 50 2c	 call	 DWORD PTR [eax+44]
  0020a	50		 push	 eax
  0020b	8b cf		 mov	 ecx, edi
  0020d	e8 00 00 00 00	 call	 ?GetDataType@CElementCommonEnvironment@@QAEAAVCDataTypeEnvironment@@XZ ; CElementCommonEnvironment::GetDataType
  00212	8b b5 74 ff ff
	ff		 mov	 esi, DWORD PTR ___$ReturnUdt$GSCopy$1$[ebp]
  00218	8b ce		 mov	 ecx, esi
  0021a	50		 push	 eax
  0021b	e8 00 00 00 00	 call	 ??0COnePointDrawingData@@QAE@ABVCDataTypeEnvironment@@PAVCTextPosition@@PAVCLineExtEnvironment@@PBVCDrawingRegions@@ABVCDisplayAttributes@@ABVCVertScaleType@@ABVCPoints@@W4HORZSCALEDRAWERTYPE@CScaleBaseData@@@Z ; COnePointDrawingData::COnePointDrawingData
  00220	8d 8d fc fe ff
	ff		 lea	 ecx, DWORD PTR $T3[ebp+56]
  00226	ff 15 00 00 00
	00		 call	 DWORD PTR __imp_??1?$CStringT@DV?$StrTraitMFC_DLL@DV?$ChTraitsCRT@D@ATL@@@@@ATL@@QAE@XZ
  0022c	8d 8d f8 fe ff
	ff		 lea	 ecx, DWORD PTR $T3[ebp+52]
  00232	ff 15 00 00 00
	00		 call	 DWORD PTR __imp_??1?$CStringT@DV?$StrTraitMFC_DLL@DV?$ChTraitsCRT@D@ATL@@@@@ATL@@QAE@XZ
  00238	8d 8d f4 fe ff
	ff		 lea	 ecx, DWORD PTR $T3[ebp+48]
  0023e	ff 15 00 00 00
	00		 call	 DWORD PTR __imp_??1?$CStringT@DV?$StrTraitMFC_DLL@DV?$ChTraitsCRT@D@ATL@@@@@ATL@@QAE@XZ
  00244	8d 8d b4 fe ff
	ff		 lea	 ecx, DWORD PTR $T2[ebp+56]
  0024a	ff 15 00 00 00
	00		 call	 DWORD PTR __imp_??1?$CStringT@DV?$StrTraitMFC_DLL@DV?$ChTraitsCRT@D@ATL@@@@@ATL@@QAE@XZ
  00250	8d 8d b0 fe ff
	ff		 lea	 ecx, DWORD PTR $T2[ebp+52]
  00256	ff 15 00 00 00
	00		 call	 DWORD PTR __imp_??1?$CStringT@DV?$StrTraitMFC_DLL@DV?$ChTraitsCRT@D@ATL@@@@@ATL@@QAE@XZ
  0025c	8d 8d ac fe ff
	ff		 lea	 ecx, DWORD PTR $T2[ebp+48]
  00262	ff 15 00 00 00
	00		 call	 DWORD PTR __imp_??1?$CStringT@DV?$StrTraitMFC_DLL@DV?$ChTraitsCRT@D@ATL@@@@@ATL@@QAE@XZ
  00268	8d 8d 50 ff ff
	ff		 lea	 ecx, DWORD PTR $T6[ebp+20]
  0026e	ff 15 00 00 00
	00		 call	 DWORD PTR __imp_??1?$CStringT@DV?$StrTraitMFC_DLL@DV?$ChTraitsCRT@D@ATL@@@@@ATL@@QAE@XZ
  00274	8d 8d 20 ff ff
	ff		 lea	 ecx, DWORD PTR $T4[ebp+20]
  0027a	ff 15 00 00 00
	00		 call	 DWORD PTR __imp_??1?$CStringT@DV?$StrTraitMFC_DLL@DV?$ChTraitsCRT@D@ATL@@@@@ATL@@QAE@XZ
; File D:\git\src\IBK\IBK_DRFN\ProjSrc\SrcChartEx\ChartAddIn\ChartAnalysisToolAddIn\Include_AddIn_133101\I133101\_IString.h

; 45   : 		if( m_pIStrData)

  00280	8b 8d 70 ff ff
	ff		 mov	 ecx, DWORD PTR _szRQ$[ebp+4]
  00286	c6 45 fc 0b	 mov	 BYTE PTR __$EHRec$[ebp+8], 11 ; 0000000bH
  0028a	85 c9		 test	 ecx, ecx
  0028c	74 06		 je	 SHORT $LN77@GetOnePoin

; 46   : 		{
; 47   : 			m_pIStrData->Release();

  0028e	8b 01		 mov	 eax, DWORD PTR [ecx]
  00290	51		 push	 ecx
  00291	ff 50 08	 call	 DWORD PTR [eax+8]
$LN77@GetOnePoin:
; File D:\git\src\IBK\IBK_DRFN\ProjSrc\SrcChartEx\ChartAddIn\ChartAnalysisToolAddIn\AnalysisTool\PointTool.cpp

; 599  : 	return COnePointDrawingData(CTool::GetElementCommonEnvironment().GetDataType(), 

  00294	8d 4d 90	 lea	 ecx, DWORD PTR _calData$[ebp]
  00297	e8 00 00 00 00	 call	 ??1CCoordinateCalculatorData@@QAE@XZ ; CCoordinateCalculatorData::~CCoordinateCalculatorData
  0029c	8d 4d 88	 lea	 ecx, DWORD PTR _strPacketType$[ebp]
  0029f	ff 15 00 00 00
	00		 call	 DWORD PTR __imp_??1?$CStringT@DV?$StrTraitMFC_DLL@DV?$ChTraitsCRT@D@ATL@@@@@ATL@@QAE@XZ
  002a5	8d 4d 8c	 lea	 ecx, DWORD PTR _strDataType$[ebp]
  002a8	ff 15 00 00 00
	00		 call	 DWORD PTR __imp_??1?$CStringT@DV?$StrTraitMFC_DLL@DV?$ChTraitsCRT@D@ATL@@@@@ATL@@QAE@XZ
; File D:\git\src\IBK\IBK_DRFN\ProjSrc\SrcChartEx\ChartAddIn\ChartAnalysisToolAddIn\Include_AddIn_133101\I133101\_IString.h

; 45   : 		if( m_pIStrData)

  002ae	8b 55 84	 mov	 edx, DWORD PTR _szHelpMsg$[ebp+4]
  002b1	c7 45 fc 0c 00
	00 00		 mov	 DWORD PTR __$EHRec$[ebp+8], 12 ; 0000000cH
  002b8	85 d2		 test	 edx, edx
  002ba	74 06		 je	 SHORT $LN84@GetOnePoin

; 46   : 		{
; 47   : 			m_pIStrData->Release();

  002bc	8b 0a		 mov	 ecx, DWORD PTR [edx]
  002be	52		 push	 edx
  002bf	ff 51 08	 call	 DWORD PTR [ecx+8]
$LN84@GetOnePoin:
; File D:\git\src\IBK\IBK_DRFN\ProjSrc\SrcChartEx\ChartAddIn\ChartAnalysisToolAddIn\AnalysisTool\PointTool.cpp

; 607  : }

  002c2	8b c6		 mov	 eax, esi
  002c4	8b 4d f4	 mov	 ecx, DWORD PTR __$EHRec$[ebp]
  002c7	64 89 0d 00 00
	00 00		 mov	 DWORD PTR fs:0, ecx
  002ce	59		 pop	 ecx
  002cf	5f		 pop	 edi
  002d0	5e		 pop	 esi
  002d1	5b		 pop	 ebx
  002d2	8b 4d f0	 mov	 ecx, DWORD PTR __$ArrayPad$[ebp]
  002d5	33 cd		 xor	 ecx, ebp
  002d7	e8 00 00 00 00	 call	 @__security_check_cookie@4
  002dc	8b e5		 mov	 esp, ebp
  002de	5d		 pop	 ebp
  002df	c2 04 00	 ret	 4
_TEXT	ENDS
;	COMDAT text$x
text$x	SEGMENT
__unwindfunclet$?GetOnePointDrawingData@COnePointDownTool@@ABE?AVCOnePointDrawingData@@XZ$0:
  00000	8d 4d 80	 lea	 ecx, DWORD PTR _szHelpMsg$[ebp]
  00003	e9 00 00 00 00	 jmp	 ??1ILPCSTR133101@@QAE@XZ ; ILPCSTR133101::~ILPCSTR133101
__unwindfunclet$?GetOnePointDrawingData@COnePointDownTool@@ABE?AVCOnePointDrawingData@@XZ$1:
  00008	8d 4d 8c	 lea	 ecx, DWORD PTR _strDataType$[ebp]
  0000b	ff 25 00 00 00
	00		 jmp	 DWORD PTR __imp_??1?$CStringT@DV?$StrTraitMFC_DLL@DV?$ChTraitsCRT@D@ATL@@@@@ATL@@QAE@XZ
__unwindfunclet$?GetOnePointDrawingData@COnePointDownTool@@ABE?AVCOnePointDrawingData@@XZ$2:
  00011	8d 4d 88	 lea	 ecx, DWORD PTR _strPacketType$[ebp]
  00014	ff 25 00 00 00
	00		 jmp	 DWORD PTR __imp_??1?$CStringT@DV?$StrTraitMFC_DLL@DV?$ChTraitsCRT@D@ATL@@@@@ATL@@QAE@XZ
__unwindfunclet$?GetOnePointDrawingData@COnePointDownTool@@ABE?AVCOnePointDrawingData@@XZ$3:
  0001a	8d 8d 3c ff ff
	ff		 lea	 ecx, DWORD PTR $T7[ebp]
  00020	e9 00 00 00 00	 jmp	 ??1CPoints@@QAE@XZ
__unwindfunclet$?GetOnePointDrawingData@COnePointDownTool@@ABE?AVCOnePointDrawingData@@XZ$4:
  00025	8d 4d 90	 lea	 ecx, DWORD PTR _calData$[ebp]
  00028	e9 00 00 00 00	 jmp	 ??1CCoordinateCalculatorData@@QAE@XZ ; CCoordinateCalculatorData::~CCoordinateCalculatorData
__unwindfunclet$?GetOnePointDrawingData@COnePointDownTool@@ABE?AVCOnePointDrawingData@@XZ$5:
  0002d	8d 8d 6c ff ff
	ff		 lea	 ecx, DWORD PTR _szRQ$[ebp]
  00033	e9 00 00 00 00	 jmp	 ??1ILPCSTR133101@@QAE@XZ ; ILPCSTR133101::~ILPCSTR133101
__unwindfunclet$?GetOnePointDrawingData@COnePointDownTool@@ABE?AVCOnePointDrawingData@@XZ$6:
  00038	8d 8d 0c ff ff
	ff		 lea	 ecx, DWORD PTR $T4[ebp]
  0003e	e9 00 00 00 00	 jmp	 ??1CPoints@@QAE@XZ
__unwindfunclet$?GetOnePointDrawingData@COnePointDownTool@@ABE?AVCOnePointDrawingData@@XZ$7:
  00043	8d 8d 3c ff ff
	ff		 lea	 ecx, DWORD PTR $T6[ebp]
  00049	e9 00 00 00 00	 jmp	 ??1CPoints@@QAE@XZ
__unwindfunclet$?GetOnePointDrawingData@COnePointDownTool@@ABE?AVCOnePointDrawingData@@XZ$8:
  0004e	8d 8d 7c fe ff
	ff		 lea	 ecx, DWORD PTR $T2[ebp]
  00054	e9 00 00 00 00	 jmp	 ??1CElementCommonEnvironment@@QAE@XZ
__unwindfunclet$?GetOnePointDrawingData@COnePointDownTool@@ABE?AVCOnePointDrawingData@@XZ$9:
  00059	8d 8d c4 fe ff
	ff		 lea	 ecx, DWORD PTR $T3[ebp]
  0005f	e9 00 00 00 00	 jmp	 ??1CElementCommonEnvironment@@QAE@XZ
  00064	cc		 int	 3
  00065	cc		 int	 3
  00066	cc		 int	 3
  00067	cc		 int	 3
  00068	cc		 int	 3
__ehhandler$?GetOnePointDrawingData@COnePointDownTool@@ABE?AVCOnePointDrawingData@@XZ:
  00069	90		 npad	 1
  0006a	90		 npad	 1
  0006b	8b 54 24 08	 mov	 edx, DWORD PTR [esp+8]
  0006f	8d 42 0c	 lea	 eax, DWORD PTR [edx+12]
  00072	8b 8a 78 fe ff
	ff		 mov	 ecx, DWORD PTR [edx-392]
  00078	33 c8		 xor	 ecx, eax
  0007a	e8 00 00 00 00	 call	 @__security_check_cookie@4
  0007f	8b 4a fc	 mov	 ecx, DWORD PTR [edx-4]
  00082	33 c8		 xor	 ecx, eax
  00084	e8 00 00 00 00	 call	 @__security_check_cookie@4
  00089	b8 00 00 00 00	 mov	 eax, OFFSET __ehfuncinfo$?GetOnePointDrawingData@COnePointDownTool@@ABE?AVCOnePointDrawingData@@XZ
  0008e	e9 00 00 00 00	 jmp	 ___CxxFrameHandler3
text$x	ENDS
?GetOnePointDrawingData@COnePointDownTool@@ABE?AVCOnePointDrawingData@@XZ ENDP ; COnePointDownTool::GetOnePointDrawingData
; Function compile flags: /Ogtp
; File D:\git\src\IBK\IBK_DRFN\ProjSrc\SrcChartEx\ChartAddIn\ChartAnalysisToolAddIn\AnalysisTool\PointTool.cpp
;	COMDAT ?OnMouseMove_InNotDrawingRegion@COnePointDownTool@@AAE_NABVCPoint@@@Z
_TEXT	SEGMENT
$T2 = -60						; size = 40
$T3 = -20						; size = 8
__$EHRec$ = -12						; size = 12
_point$ = 8						; size = 4
?OnMouseMove_InNotDrawingRegion@COnePointDownTool@@AAE_NABVCPoint@@@Z PROC ; COnePointDownTool::OnMouseMove_InNotDrawingRegion, COMDAT
; _this$ = ecx

; 566  : {

  00000	55		 push	 ebp
  00001	8b ec		 mov	 ebp, esp
  00003	6a ff		 push	 -1
  00005	68 00 00 00 00	 push	 __ehhandler$?OnMouseMove_InNotDrawingRegion@COnePointDownTool@@AAE_NABVCPoint@@@Z
  0000a	64 a1 00 00 00
	00		 mov	 eax, DWORD PTR fs:0
  00010	50		 push	 eax
  00011	83 ec 30	 sub	 esp, 48			; 00000030H
  00014	53		 push	 ebx
  00015	56		 push	 esi
  00016	57		 push	 edi
  00017	a1 00 00 00 00	 mov	 eax, DWORD PTR ___security_cookie
  0001c	33 c5		 xor	 eax, ebp
  0001e	50		 push	 eax
  0001f	8d 45 f4	 lea	 eax, DWORD PTR __$EHRec$[ebp]
  00022	64 a3 00 00 00
	00		 mov	 DWORD PTR fs:0, eax
  00028	8b f9		 mov	 edi, ecx

; 567  : 	if(PointInDrawingRegion(point))

  0002a	8b 07		 mov	 eax, DWORD PTR [edi]
  0002c	ff 75 08	 push	 DWORD PTR _point$[ebp]
  0002f	8b 40 1c	 mov	 eax, DWORD PTR [eax+28]
  00032	ff d0		 call	 eax
  00034	84 c0		 test	 al, al
  00036	74 16		 je	 SHORT $LN2@OnMouseMov

; 568  : 		return false;

  00038	32 c0		 xor	 al, al

; 576  : }

  0003a	8b 4d f4	 mov	 ecx, DWORD PTR __$EHRec$[ebp]
  0003d	64 89 0d 00 00
	00 00		 mov	 DWORD PTR fs:0, ecx
  00044	59		 pop	 ecx
  00045	5f		 pop	 edi
  00046	5e		 pop	 esi
  00047	5b		 pop	 ebx
  00048	8b e5		 mov	 esp, ebp
  0004a	5d		 pop	 ebp
  0004b	c2 04 00	 ret	 4
$LN2@OnMouseMov:

; 475  : 	return m_upPoints;

  0004e	8d b7 a8 00 00
	00		 lea	 esi, DWORD PTR [edi+168]
  00054	56		 push	 esi
  00055	8d 4d c4	 lea	 ecx, DWORD PTR $T2[ebp]
  00058	e8 00 00 00 00	 call	 ??0CCoordinate@@QAE@ABV0@@Z ; CCoordinate::CCoordinate
  0005d	8b 46 20	 mov	 eax, DWORD PTR [esi+32]
  00060	8b 4e 24	 mov	 ecx, DWORD PTR [esi+36]
  00063	89 45 e4	 mov	 DWORD PTR $T2[ebp+32], eax
  00066	89 4d e8	 mov	 DWORD PTR $T2[ebp+36], ecx

; 569  : 
; 570  : 	//     
; 571  : 	// ->      .
; 572  : 	if(PointInDrawingRegion(COneOrTwoPointTool::GetUpPoints().GetDrawingPoint()))

  00069	8b 37		 mov	 esi, DWORD PTR [edi]
  0006b	8d 45 ec	 lea	 eax, DWORD PTR $T3[ebp]
  0006e	50		 push	 eax
  0006f	8d 4d c4	 lea	 ecx, DWORD PTR $T2[ebp]
  00072	c7 45 fc 00 00
	00 00		 mov	 DWORD PTR __$EHRec$[ebp+8], 0
  00079	e8 00 00 00 00	 call	 ?GetDrawingPoint@CPoints@@QBE?AVCPoint@@XZ ; CPoints::GetDrawingPoint
  0007e	50		 push	 eax
  0007f	8b 46 1c	 mov	 eax, DWORD PTR [esi+28]
  00082	8b cf		 mov	 ecx, edi
  00084	ff d0		 call	 eax
  00086	8d 4d d8	 lea	 ecx, DWORD PTR $T2[ebp+20]
  00089	c7 45 fc ff ff
	ff ff		 mov	 DWORD PTR __$EHRec$[ebp+8], -1
  00090	8a d8		 mov	 bl, al
  00092	ff 15 00 00 00
	00		 call	 DWORD PTR __imp_??1?$CStringT@DV?$StrTraitMFC_DLL@DV?$ChTraitsCRT@D@ATL@@@@@ATL@@QAE@XZ
  00098	84 db		 test	 bl, bl
  0009a	74 07		 je	 SHORT $LN3@OnMouseMov

; 573  : 		CTool::Invalidate();

  0009c	8b cf		 mov	 ecx, edi
  0009e	e8 00 00 00 00	 call	 ?Invalidate@CTool@@QAEXXZ ; CTool::Invalidate
$LN3@OnMouseMov:

; 574  : 
; 575  : 	return true;

  000a3	b0 01		 mov	 al, 1

; 576  : }

  000a5	8b 4d f4	 mov	 ecx, DWORD PTR __$EHRec$[ebp]
  000a8	64 89 0d 00 00
	00 00		 mov	 DWORD PTR fs:0, ecx
  000af	59		 pop	 ecx
  000b0	5f		 pop	 edi
  000b1	5e		 pop	 esi
  000b2	5b		 pop	 ebx
  000b3	8b e5		 mov	 esp, ebp
  000b5	5d		 pop	 ebp
  000b6	c2 04 00	 ret	 4
_TEXT	ENDS
;	COMDAT text$x
text$x	SEGMENT
__unwindfunclet$?OnMouseMove_InNotDrawingRegion@COnePointDownTool@@AAE_NABVCPoint@@@Z$0:
  00000	8d 4d c4	 lea	 ecx, DWORD PTR $T2[ebp]
  00003	e9 00 00 00 00	 jmp	 ??1CPoints@@QAE@XZ
  00008	cc		 int	 3
  00009	cc		 int	 3
  0000a	cc		 int	 3
  0000b	cc		 int	 3
  0000c	cc		 int	 3
__ehhandler$?OnMouseMove_InNotDrawingRegion@COnePointDownTool@@AAE_NABVCPoint@@@Z:
  0000d	90		 npad	 1
  0000e	90		 npad	 1
  0000f	8b 54 24 08	 mov	 edx, DWORD PTR [esp+8]
  00013	8d 42 0c	 lea	 eax, DWORD PTR [edx+12]
  00016	8b 4a c0	 mov	 ecx, DWORD PTR [edx-64]
  00019	33 c8		 xor	 ecx, eax
  0001b	e8 00 00 00 00	 call	 @__security_check_cookie@4
  00020	b8 00 00 00 00	 mov	 eax, OFFSET __ehfuncinfo$?OnMouseMove_InNotDrawingRegion@COnePointDownTool@@AAE_NABVCPoint@@@Z
  00025	e9 00 00 00 00	 jmp	 ___CxxFrameHandler3
text$x	ENDS
?OnMouseMove_InNotDrawingRegion@COnePointDownTool@@AAE_NABVCPoint@@@Z ENDP ; COnePointDownTool::OnMouseMove_InNotDrawingRegion
; Function compile flags: /Ogtp
; File D:\git\src\IBK\IBK_DRFN\ProjSrc\SrcChartEx\ChartAddIn\ChartAnalysisToolAddIn\AnalysisTool\PointTool.cpp
;	COMDAT ?Draw_UpPoint@COnePointDownTool@@MAEXPAVCDC@@@Z
_TEXT	SEGMENT
$T2 = -148						; size = 136
__$EHRec$ = -12						; size = 12
_pDC$ = 8						; size = 4
?Draw_UpPoint@COnePointDownTool@@MAEXPAVCDC@@@Z PROC	; COnePointDownTool::Draw_UpPoint, COMDAT
; _this$ = ecx

; 558  : {

  00000	55		 push	 ebp
  00001	8b ec		 mov	 ebp, esp
  00003	6a ff		 push	 -1
  00005	68 00 00 00 00	 push	 __ehhandler$?Draw_UpPoint@COnePointDownTool@@MAEXPAVCDC@@@Z
  0000a	64 a1 00 00 00
	00		 mov	 eax, DWORD PTR fs:0
  00010	50		 push	 eax
  00011	81 ec 88 00 00
	00		 sub	 esp, 136		; 00000088H
  00017	56		 push	 esi
  00018	a1 00 00 00 00	 mov	 eax, DWORD PTR ___security_cookie
  0001d	33 c5		 xor	 eax, ebp
  0001f	50		 push	 eax
  00020	8d 45 f4	 lea	 eax, DWORD PTR __$EHRec$[ebp]
  00023	64 a3 00 00 00
	00		 mov	 DWORD PTR fs:0, eax
  00029	8b f1		 mov	 esi, ecx

; 559  : 	//GetOnePointDrawer().DrawTool(pDC, GetOnePointDrawingData(), R2_NOT);
; 560  : 	GetOnePointDrawer().DrawElement(pDC, GetOnePointDrawingData(), R2_NOT);

  0002b	8d 85 6c ff ff
	ff		 lea	 eax, DWORD PTR $T2[ebp]
  00031	50		 push	 eax
  00032	e8 00 00 00 00	 call	 ?GetOnePointDrawingData@COnePointDownTool@@ABE?AVCOnePointDrawingData@@XZ ; COnePointDownTool::GetOnePointDrawingData
  00037	6a 06		 push	 6
  00039	50		 push	 eax
  0003a	8b 06		 mov	 eax, DWORD PTR [esi]
  0003c	8b ce		 mov	 ecx, esi
  0003e	ff 75 08	 push	 DWORD PTR _pDC$[ebp]
  00041	c7 45 fc 00 00
	00 00		 mov	 DWORD PTR __$EHRec$[ebp+8], 0
  00048	ff 50 44	 call	 DWORD PTR [eax+68]
  0004b	8b c8		 mov	 ecx, eax
  0004d	e8 00 00 00 00	 call	 ?DrawElement@COnePointDrawer@@QAEXPAVCDC@@ABVCOnePointDrawingData@@H@Z ; COnePointDrawer::DrawElement
  00052	8d 4d e0	 lea	 ecx, DWORD PTR $T2[ebp+116]
  00055	ff 15 00 00 00
	00		 call	 DWORD PTR __imp_??1?$CStringT@DV?$StrTraitMFC_DLL@DV?$ChTraitsCRT@D@ATL@@@@@ATL@@QAE@XZ
  0005b	8d 4d 8c	 lea	 ecx, DWORD PTR $T2[ebp+32]
  0005e	ff 15 00 00 00
	00		 call	 DWORD PTR __imp_??1?$CStringT@DV?$StrTraitMFC_DLL@DV?$ChTraitsCRT@D@ATL@@@@@ATL@@QAE@XZ
  00064	8d 4d 88	 lea	 ecx, DWORD PTR $T2[ebp+28]
  00067	ff 15 00 00 00
	00		 call	 DWORD PTR __imp_??1?$CStringT@DV?$StrTraitMFC_DLL@DV?$ChTraitsCRT@D@ATL@@@@@ATL@@QAE@XZ
  0006d	8d 4d 84	 lea	 ecx, DWORD PTR $T2[ebp+24]
  00070	ff 15 00 00 00
	00		 call	 DWORD PTR __imp_??1?$CStringT@DV?$StrTraitMFC_DLL@DV?$ChTraitsCRT@D@ATL@@@@@ATL@@QAE@XZ

; 561  : }

  00076	8b 4d f4	 mov	 ecx, DWORD PTR __$EHRec$[ebp]
  00079	64 89 0d 00 00
	00 00		 mov	 DWORD PTR fs:0, ecx
  00080	59		 pop	 ecx
  00081	5e		 pop	 esi
  00082	8b e5		 mov	 esp, ebp
  00084	5d		 pop	 ebp
  00085	c2 04 00	 ret	 4
_TEXT	ENDS
;	COMDAT text$x
text$x	SEGMENT
__unwindfunclet$?Draw_UpPoint@COnePointDownTool@@MAEXPAVCDC@@@Z$0:
  00000	8d 8d 6c ff ff
	ff		 lea	 ecx, DWORD PTR $T2[ebp]
  00006	e9 00 00 00 00	 jmp	 ??1COnePointDrawingData@@QAE@XZ
  0000b	cc		 int	 3
  0000c	cc		 int	 3
  0000d	cc		 int	 3
  0000e	cc		 int	 3
  0000f	cc		 int	 3
__ehhandler$?Draw_UpPoint@COnePointDownTool@@MAEXPAVCDC@@@Z:
  00010	90		 npad	 1
  00011	90		 npad	 1
  00012	8b 54 24 08	 mov	 edx, DWORD PTR [esp+8]
  00016	8d 42 0c	 lea	 eax, DWORD PTR [edx+12]
  00019	8b 8a 70 ff ff
	ff		 mov	 ecx, DWORD PTR [edx-144]
  0001f	33 c8		 xor	 ecx, eax
  00021	e8 00 00 00 00	 call	 @__security_check_cookie@4
  00026	b8 00 00 00 00	 mov	 eax, OFFSET __ehfuncinfo$?Draw_UpPoint@COnePointDownTool@@MAEXPAVCDC@@@Z
  0002b	e9 00 00 00 00	 jmp	 ___CxxFrameHandler3
text$x	ENDS
?Draw_UpPoint@COnePointDownTool@@MAEXPAVCDC@@@Z ENDP	; COnePointDownTool::Draw_UpPoint
; Function compile flags: /Ogtp
; File D:\git\src\IBK\IBK_DRFN\ProjSrc\SrcChartEx\ChartAddIn\ChartAnalysisToolAddIn\AnalysisTool\PointTool.cpp
;	COMDAT ?MouseMove@COnePointDownTool@@MAE_NPAVCDC@@ABVCPoint@@@Z
_TEXT	SEGMENT
_drawingPts$ = -108					; size = 40
$T2 = -68						; size = 40
$T3 = -28						; size = 8
$T4 = -20						; size = 8
$T5 = -20						; size = 8
__$EHRec$ = -12						; size = 12
_pDC$ = 8						; size = 4
_point$ = 12						; size = 4
?MouseMove@COnePointDownTool@@MAE_NPAVCDC@@ABVCPoint@@@Z PROC ; COnePointDownTool::MouseMove, COMDAT
; _this$ = ecx

; 547  : {

  00000	55		 push	 ebp
  00001	8b ec		 mov	 ebp, esp
  00003	6a ff		 push	 -1
  00005	68 00 00 00 00	 push	 __ehhandler$?MouseMove@COnePointDownTool@@MAE_NPAVCDC@@ABVCPoint@@@Z
  0000a	64 a1 00 00 00
	00		 mov	 eax, DWORD PTR fs:0
  00010	50		 push	 eax
  00011	83 ec 60	 sub	 esp, 96			; 00000060H
  00014	53		 push	 ebx
  00015	56		 push	 esi
  00016	57		 push	 edi
  00017	a1 00 00 00 00	 mov	 eax, DWORD PTR ___security_cookie
  0001c	33 c5		 xor	 eax, ebp
  0001e	50		 push	 eax
  0001f	8d 45 f4	 lea	 eax, DWORD PTR __$EHRec$[ebp]
  00022	64 a3 00 00 00
	00		 mov	 DWORD PTR fs:0, eax
  00028	8b f9		 mov	 edi, ecx

; 548  : 	CPoints drawingPts = CTool::GetPointsAndSetDataType(point);

  0002a	ff 75 0c	 push	 DWORD PTR _point$[ebp]
  0002d	8d 45 94	 lea	 eax, DWORD PTR _drawingPts$[ebp]
  00030	50		 push	 eax
  00031	e8 00 00 00 00	 call	 ?GetPointsAndSetDataType@CTool@@IAE?AVCPoints@@ABVCPoint@@@Z ; CTool::GetPointsAndSetDataType

; 549  : 	CTool::SetDrawingRegions(drawingPts.GetDrawingPoint());

  00036	8d 45 ec	 lea	 eax, DWORD PTR $T5[ebp]
  00039	c7 45 fc 00 00
	00 00		 mov	 DWORD PTR __$EHRec$[ebp+8], 0
  00040	50		 push	 eax
  00041	8d 4d 94	 lea	 ecx, DWORD PTR _drawingPts$[ebp]
  00044	e8 00 00 00 00	 call	 ?GetDrawingPoint@CPoints@@QBE?AVCPoint@@XZ ; CPoints::GetDrawingPoint
  00049	50		 push	 eax
  0004a	8b cf		 mov	 ecx, edi
  0004c	e8 00 00 00 00	 call	 ?SetDrawingRegions@CTool@@IAEXABVCPoint@@@Z ; CTool::SetDrawingRegions

; 550  : 	if(OnMouseMove_InNotDrawingRegion(drawingPts.GetDrawingPoint()))

  00051	8d 45 ec	 lea	 eax, DWORD PTR $T4[ebp]
  00054	50		 push	 eax
  00055	8d 4d 94	 lea	 ecx, DWORD PTR _drawingPts$[ebp]
  00058	e8 00 00 00 00	 call	 ?GetDrawingPoint@CPoints@@QBE?AVCPoint@@XZ ; CPoints::GetDrawingPoint

; 567  : 	if(PointInDrawingRegion(point))

  0005d	50		 push	 eax
  0005e	8b 07		 mov	 eax, DWORD PTR [edi]
  00060	8d b7 a8 00 00
	00		 lea	 esi, DWORD PTR [edi+168]
  00066	8b cf		 mov	 ecx, edi
  00068	8b 40 1c	 mov	 eax, DWORD PTR [eax+28]
  0006b	ff d0		 call	 eax
  0006d	84 c0		 test	 al, al
  0006f	75 4d		 jne	 SHORT $LN2@MouseMove
  00071	56		 push	 esi
  00072	8d 4d bc	 lea	 ecx, DWORD PTR $T2[ebp]
  00075	e8 00 00 00 00	 call	 ??0CCoordinate@@QAE@ABV0@@Z ; CCoordinate::CCoordinate
  0007a	8b 46 20	 mov	 eax, DWORD PTR [esi+32]
  0007d	8b 4e 24	 mov	 ecx, DWORD PTR [esi+36]
  00080	89 45 dc	 mov	 DWORD PTR $T2[ebp+32], eax
  00083	89 4d e0	 mov	 DWORD PTR $T2[ebp+36], ecx

; 568  : 		return false;
; 569  : 
; 570  : 	//     
; 571  : 	// ->      .
; 572  : 	if(PointInDrawingRegion(COneOrTwoPointTool::GetUpPoints().GetDrawingPoint()))

  00086	8b 37		 mov	 esi, DWORD PTR [edi]
  00088	8d 45 e4	 lea	 eax, DWORD PTR $T3[ebp]
  0008b	50		 push	 eax
  0008c	8d 4d bc	 lea	 ecx, DWORD PTR $T2[ebp]
  0008f	c6 45 fc 01	 mov	 BYTE PTR __$EHRec$[ebp+8], 1
  00093	e8 00 00 00 00	 call	 ?GetDrawingPoint@CPoints@@QBE?AVCPoint@@XZ ; CPoints::GetDrawingPoint
  00098	50		 push	 eax
  00099	8b 46 1c	 mov	 eax, DWORD PTR [esi+28]
  0009c	8b cf		 mov	 ecx, edi
  0009e	ff d0		 call	 eax
  000a0	8d 4d d0	 lea	 ecx, DWORD PTR $T2[ebp+20]
  000a3	c6 45 fc 00	 mov	 BYTE PTR __$EHRec$[ebp+8], 0
  000a7	8a d8		 mov	 bl, al
  000a9	ff 15 00 00 00
	00		 call	 DWORD PTR __imp_??1?$CStringT@DV?$StrTraitMFC_DLL@DV?$ChTraitsCRT@D@ATL@@@@@ATL@@QAE@XZ
  000af	84 db		 test	 bl, bl
  000b1	74 07		 je	 SHORT $LN8@MouseMove

; 573  : 		CTool::Invalidate();

  000b3	8b cf		 mov	 ecx, edi
  000b5	e8 00 00 00 00	 call	 ?Invalidate@CTool@@QAEXXZ ; CTool::Invalidate
$LN8@MouseMove:
  000ba	32 db		 xor	 bl, bl
  000bc	eb 0d		 jmp	 SHORT $LN5@MouseMove
$LN2@MouseMove:

; 480  : 	m_upPoints = points;

  000be	8d 45 94	 lea	 eax, DWORD PTR _drawingPts$[ebp]
  000c1	8b ce		 mov	 ecx, esi
  000c3	50		 push	 eax
  000c4	e8 00 00 00 00	 call	 ??4CPoints@@QAEAAV0@ABV0@@Z ; CPoints::operator=

; 551  : 		return false;
; 552  : 	
; 553  : 	COneOrTwoPointTool::SetUpPoints(drawingPts);
; 554  : 	return true;

  000c9	b3 01		 mov	 bl, 1
$LN5@MouseMove:
  000cb	8d 4d a8	 lea	 ecx, DWORD PTR _drawingPts$[ebp+20]
  000ce	ff 15 00 00 00
	00		 call	 DWORD PTR __imp_??1?$CStringT@DV?$StrTraitMFC_DLL@DV?$ChTraitsCRT@D@ATL@@@@@ATL@@QAE@XZ
  000d4	8a c3		 mov	 al, bl

; 555  : }

  000d6	8b 4d f4	 mov	 ecx, DWORD PTR __$EHRec$[ebp]
  000d9	64 89 0d 00 00
	00 00		 mov	 DWORD PTR fs:0, ecx
  000e0	59		 pop	 ecx
  000e1	5f		 pop	 edi
  000e2	5e		 pop	 esi
  000e3	5b		 pop	 ebx
  000e4	8b e5		 mov	 esp, ebp
  000e6	5d		 pop	 ebp
  000e7	c2 08 00	 ret	 8
_TEXT	ENDS
;	COMDAT text$x
text$x	SEGMENT
__unwindfunclet$?MouseMove@COnePointDownTool@@MAE_NPAVCDC@@ABVCPoint@@@Z$0:
  00000	8d 4d 94	 lea	 ecx, DWORD PTR _drawingPts$[ebp]
  00003	e9 00 00 00 00	 jmp	 ??1CPoints@@QAE@XZ
__unwindfunclet$?MouseMove@COnePointDownTool@@MAE_NPAVCDC@@ABVCPoint@@@Z$1:
  00008	8d 4d bc	 lea	 ecx, DWORD PTR $T2[ebp]
  0000b	e9 00 00 00 00	 jmp	 ??1CPoints@@QAE@XZ
  00010	cc		 int	 3
  00011	cc		 int	 3
  00012	cc		 int	 3
  00013	cc		 int	 3
  00014	cc		 int	 3
__ehhandler$?MouseMove@COnePointDownTool@@MAE_NPAVCDC@@ABVCPoint@@@Z:
  00015	90		 npad	 1
  00016	90		 npad	 1
  00017	8b 54 24 08	 mov	 edx, DWORD PTR [esp+8]
  0001b	8d 42 0c	 lea	 eax, DWORD PTR [edx+12]
  0001e	8b 4a 90	 mov	 ecx, DWORD PTR [edx-112]
  00021	33 c8		 xor	 ecx, eax
  00023	e8 00 00 00 00	 call	 @__security_check_cookie@4
  00028	b8 00 00 00 00	 mov	 eax, OFFSET __ehfuncinfo$?MouseMove@COnePointDownTool@@MAE_NPAVCDC@@ABVCPoint@@@Z
  0002d	e9 00 00 00 00	 jmp	 ___CxxFrameHandler3
text$x	ENDS
?MouseMove@COnePointDownTool@@MAE_NPAVCDC@@ABVCPoint@@@Z ENDP ; COnePointDownTool::MouseMove
; Function compile flags: /Ogtp
; File D:\git\src\IBK\IBK_DRFN\ProjSrc\SrcChartEx\ChartAddIn\ChartAnalysisToolAddIn\AnalysisTool\PointTool.cpp
;	COMDAT ?MakeElement@COnePointDownTool@@MAEPAVCElement@@ABVCElementCommonEnvironment@@@Z
_TEXT	SEGMENT
$T2 = -84						; size = 40
$T3 = -44						; size = 32
__$EHRec$ = -12						; size = 12
_environment$ = 8					; size = 4
?MakeElement@COnePointDownTool@@MAEPAVCElement@@ABVCElementCommonEnvironment@@@Z PROC ; COnePointDownTool::MakeElement, COMDAT
; _this$ = ecx

; 527  : {

  00000	55		 push	 ebp
  00001	8b ec		 mov	 ebp, esp
  00003	6a ff		 push	 -1
  00005	68 00 00 00 00	 push	 __ehhandler$?MakeElement@COnePointDownTool@@MAEPAVCElement@@ABVCElementCommonEnvironment@@@Z
  0000a	64 a1 00 00 00
	00		 mov	 eax, DWORD PTR fs:0
  00010	50		 push	 eax
  00011	83 ec 48	 sub	 esp, 72			; 00000048H
  00014	56		 push	 esi
  00015	57		 push	 edi
  00016	a1 00 00 00 00	 mov	 eax, DWORD PTR ___security_cookie
  0001b	33 c5		 xor	 eax, ebp
  0001d	50		 push	 eax
  0001e	8d 45 f4	 lea	 eax, DWORD PTR __$EHRec$[ebp]
  00021	64 a3 00 00 00
	00		 mov	 DWORD PTR fs:0, eax
  00027	8b f9		 mov	 edi, ecx

; 475  : 	return m_upPoints;

  00029	8d b7 a8 00 00
	00		 lea	 esi, DWORD PTR [edi+168]
  0002f	56		 push	 esi
  00030	8d 4d ac	 lea	 ecx, DWORD PTR $T2[ebp]
  00033	e8 00 00 00 00	 call	 ??0CCoordinate@@QAE@ABV0@@Z ; CCoordinate::CCoordinate
  00038	8b 46 20	 mov	 eax, DWORD PTR [esi+32]
  0003b	8b 56 24	 mov	 edx, DWORD PTR [esi+36]
  0003e	89 45 cc	 mov	 DWORD PTR $T2[ebp+32], eax
  00041	89 55 d0	 mov	 DWORD PTR $T2[ebp+36], edx

; 528  : 	return CElementFactory::Make(GetToolType(), COneOrTwoPointTool::GetUpPoints().GetSavingPoint(), GetTextPosition(), environment);

  00044	8d 45 d4	 lea	 eax, DWORD PTR $T3[ebp]
  00047	c7 45 fc 00 00
	00 00		 mov	 DWORD PTR __$EHRec$[ebp+8], 0
  0004e	50		 push	 eax
  0004f	8d 4d ac	 lea	 ecx, DWORD PTR $T2[ebp]
  00052	e8 00 00 00 00	 call	 ?GetSavingPoint@CPoints@@QBE?AVCCoordinate@@XZ ; CPoints::GetSavingPoint
  00057	8b f0		 mov	 esi, eax
  00059	8b 17		 mov	 edx, DWORD PTR [edi]
  0005b	8b cf		 mov	 ecx, edi
  0005d	ff 75 08	 push	 DWORD PTR _environment$[ebp]
  00060	c6 45 fc 01	 mov	 BYTE PTR __$EHRec$[ebp+8], 1
  00064	ff 52 28	 call	 DWORD PTR [edx+40]
  00067	50		 push	 eax
  00068	8b 07		 mov	 eax, DWORD PTR [edi]
  0006a	8b cf		 mov	 ecx, edi
  0006c	56		 push	 esi
  0006d	ff 50 24	 call	 DWORD PTR [eax+36]
  00070	50		 push	 eax
  00071	e8 00 00 00 00	 call	 ?Make@CElementFactory@@SAPAVCElement@@W4TOOLTYPE@CAnalysis@@ABVCCoordinate@@PBVCTextPosition@@ABVCElementCommonEnvironment@@@Z ; CElementFactory::Make
  00076	83 c4 10	 add	 esp, 16			; 00000010H
  00079	8d 4d e8	 lea	 ecx, DWORD PTR $T3[ebp+20]
  0007c	8b f0		 mov	 esi, eax
  0007e	ff 15 00 00 00
	00		 call	 DWORD PTR __imp_??1?$CStringT@DV?$StrTraitMFC_DLL@DV?$ChTraitsCRT@D@ATL@@@@@ATL@@QAE@XZ
  00084	8d 4d c0	 lea	 ecx, DWORD PTR $T2[ebp+20]
  00087	ff 15 00 00 00
	00		 call	 DWORD PTR __imp_??1?$CStringT@DV?$StrTraitMFC_DLL@DV?$ChTraitsCRT@D@ATL@@@@@ATL@@QAE@XZ
  0008d	8b c6		 mov	 eax, esi

; 529  : }

  0008f	8b 4d f4	 mov	 ecx, DWORD PTR __$EHRec$[ebp]
  00092	64 89 0d 00 00
	00 00		 mov	 DWORD PTR fs:0, ecx
  00099	59		 pop	 ecx
  0009a	5f		 pop	 edi
  0009b	5e		 pop	 esi
  0009c	8b e5		 mov	 esp, ebp
  0009e	5d		 pop	 ebp
  0009f	c2 04 00	 ret	 4
_TEXT	ENDS
;	COMDAT text$x
text$x	SEGMENT
__unwindfunclet$?MakeElement@COnePointDownTool@@MAEPAVCElement@@ABVCElementCommonEnvironment@@@Z$0:
  00000	8d 4d ac	 lea	 ecx, DWORD PTR $T2[ebp]
  00003	e9 00 00 00 00	 jmp	 ??1CPoints@@QAE@XZ
__unwindfunclet$?MakeElement@COnePointDownTool@@MAEPAVCElement@@ABVCElementCommonEnvironment@@@Z$1:
  00008	8d 4d d4	 lea	 ecx, DWORD PTR $T3[ebp]
  0000b	e9 00 00 00 00	 jmp	 ??1CCoordinate@@QAE@XZ
  00010	cc		 int	 3
  00011	cc		 int	 3
  00012	cc		 int	 3
  00013	cc		 int	 3
  00014	cc		 int	 3
__ehhandler$?MakeElement@COnePointDownTool@@MAEPAVCElement@@ABVCElementCommonEnvironment@@@Z:
  00015	90		 npad	 1
  00016	90		 npad	 1
  00017	8b 54 24 08	 mov	 edx, DWORD PTR [esp+8]
  0001b	8d 42 0c	 lea	 eax, DWORD PTR [edx+12]
  0001e	8b 4a ac	 mov	 ecx, DWORD PTR [edx-84]
  00021	33 c8		 xor	 ecx, eax
  00023	e8 00 00 00 00	 call	 @__security_check_cookie@4
  00028	b8 00 00 00 00	 mov	 eax, OFFSET __ehfuncinfo$?MakeElement@COnePointDownTool@@MAEPAVCElement@@ABVCElementCommonEnvironment@@@Z
  0002d	e9 00 00 00 00	 jmp	 ___CxxFrameHandler3
text$x	ENDS
?MakeElement@COnePointDownTool@@MAEPAVCElement@@ABVCElementCommonEnvironment@@@Z ENDP ; COnePointDownTool::MakeElement
; Function compile flags: /Ogtp
; File D:\git\src\IBK\IBK_DRFN\ProjSrc\SrcChartEx\ChartAddIn\ChartAnalysisToolAddIn\AnalysisTool\PointTool.cpp
;	COMDAT ?PointInDrawingRegion@COnePointDownTool@@MBE_NABVCPoint@@@Z
_TEXT	SEGMENT
_point$ = 8						; size = 4
?PointInDrawingRegion@COnePointDownTool@@MBE_NABVCPoint@@@Z PROC ; COnePointDownTool::PointInDrawingRegion, COMDAT
; _this$ = ecx

; 522  : {

  00000	55		 push	 ebp
  00001	8b ec		 mov	 ebp, esp

; 523  : 	return CTool::GetDrawingRegions().PointInDrawingRegionsInColumn(point);

  00003	ff 75 08	 push	 DWORD PTR _point$[ebp]
  00006	e8 00 00 00 00	 call	 ?GetDrawingRegions@CTool@@IBEABVCDrawingRegions@@XZ ; CTool::GetDrawingRegions
  0000b	8b c8		 mov	 ecx, eax
  0000d	e8 00 00 00 00	 call	 ?PointInDrawingRegionsInColumn@CDrawingRegions@@QBE_NABVCPoint@@@Z ; CDrawingRegions::PointInDrawingRegionsInColumn

; 524  : }

  00012	5d		 pop	 ebp
  00013	c2 04 00	 ret	 4
?PointInDrawingRegion@COnePointDownTool@@MBE_NABVCPoint@@@Z ENDP ; COnePointDownTool::PointInDrawingRegion
_TEXT	ENDS
; Function compile flags: /Ogtp
; File D:\git\src\IBK\IBK_DRFN\ProjSrc\SrcChartEx\ChartAddIn\ChartAnalysisToolAddIn\AnalysisTool\PointTool.cpp
;	COMDAT ?OnDraw@COnePointDownTool@@UAEXPAVCDC@@@Z
_TEXT	SEGMENT
_pDC$ = 8						; size = 4
?OnDraw@COnePointDownTool@@UAEXPAVCDC@@@Z PROC		; COnePointDownTool::OnDraw, COMDAT
; _this$ = ecx

; 516  : { 

  00000	55		 push	 ebp
  00001	8b ec		 mov	 ebp, esp

; 517  : 	Draw_UpPoint(pDC);	

  00003	8b 01		 mov	 eax, DWORD PTR [ecx]

; 518  : }

  00005	5d		 pop	 ebp

; 517  : 	Draw_UpPoint(pDC);	

  00006	ff 60 40	 jmp	 DWORD PTR [eax+64]
?OnDraw@COnePointDownTool@@UAEXPAVCDC@@@Z ENDP		; COnePointDownTool::OnDraw
_TEXT	ENDS
; Function compile flags: /Ogtp
; File D:\git\src\IBK\IBK_DRFN\ProjSrc\SrcChartEx\ChartAddIn\ChartAnalysisToolAddIn\AnalysisTool\PointTool.cpp
;	COMDAT ?OnMouseMove@COnePointDownTool@@UAE_NPAVCDC@@ABVCPoint@@H@Z
_TEXT	SEGMENT
$T2 = -116						; size = 40
$T3 = -116						; size = 40
_drawingPts$4 = -76					; size = 40
$T5 = -36						; size = 8
$T6 = -36						; size = 8
$T7 = -28						; size = 8
$T8 = -20						; size = 8
__$EHRec$ = -12						; size = 12
_pDC$ = 8						; size = 4
_point$ = 12						; size = 4
_nFlags$ = 16						; size = 4
?OnMouseMove@COnePointDownTool@@UAE_NPAVCDC@@ABVCPoint@@H@Z PROC ; COnePointDownTool::OnMouseMove, COMDAT
; _this$ = ecx

; 504  : {

  00000	55		 push	 ebp
  00001	8b ec		 mov	 ebp, esp
  00003	6a ff		 push	 -1
  00005	68 00 00 00 00	 push	 __ehhandler$?OnMouseMove@COnePointDownTool@@UAE_NPAVCDC@@ABVCPoint@@H@Z
  0000a	64 a1 00 00 00
	00		 mov	 eax, DWORD PTR fs:0
  00010	50		 push	 eax
  00011	83 ec 68	 sub	 esp, 104		; 00000068H
  00014	53		 push	 ebx
  00015	56		 push	 esi
  00016	57		 push	 edi
  00017	a1 00 00 00 00	 mov	 eax, DWORD PTR ___security_cookie
  0001c	33 c5		 xor	 eax, ebp
  0001e	50		 push	 eax
  0001f	8d 45 f4	 lea	 eax, DWORD PTR __$EHRec$[ebp]
  00022	64 a3 00 00 00
	00		 mov	 DWORD PTR fs:0, eax
  00028	8b f9		 mov	 edi, ecx

; 548  : 	CPoints drawingPts = CTool::GetPointsAndSetDataType(point);

  0002a	ff 75 0c	 push	 DWORD PTR _point$[ebp]
  0002d	8d 45 b4	 lea	 eax, DWORD PTR _drawingPts$4[ebp]
  00030	50		 push	 eax
  00031	e8 00 00 00 00	 call	 ?GetPointsAndSetDataType@CTool@@IAE?AVCPoints@@ABVCPoint@@@Z ; CTool::GetPointsAndSetDataType

; 549  : 	CTool::SetDrawingRegions(drawingPts.GetDrawingPoint());

  00036	8d 45 ec	 lea	 eax, DWORD PTR $T8[ebp]
  00039	c7 45 fc 00 00
	00 00		 mov	 DWORD PTR __$EHRec$[ebp+8], 0
  00040	50		 push	 eax
  00041	8d 4d b4	 lea	 ecx, DWORD PTR _drawingPts$4[ebp]
  00044	e8 00 00 00 00	 call	 ?GetDrawingPoint@CPoints@@QBE?AVCPoint@@XZ ; CPoints::GetDrawingPoint
  00049	50		 push	 eax
  0004a	8b cf		 mov	 ecx, edi
  0004c	e8 00 00 00 00	 call	 ?SetDrawingRegions@CTool@@IAEXABVCPoint@@@Z ; CTool::SetDrawingRegions

; 550  : 	if(OnMouseMove_InNotDrawingRegion(drawingPts.GetDrawingPoint()))

  00051	8d 45 e4	 lea	 eax, DWORD PTR $T7[ebp]
  00054	50		 push	 eax
  00055	8d 4d b4	 lea	 ecx, DWORD PTR _drawingPts$4[ebp]
  00058	e8 00 00 00 00	 call	 ?GetDrawingPoint@CPoints@@QBE?AVCPoint@@XZ ; CPoints::GetDrawingPoint

; 567  : 	if(PointInDrawingRegion(point))

  0005d	50		 push	 eax
  0005e	8b 07		 mov	 eax, DWORD PTR [edi]
  00060	8d b7 a8 00 00
	00		 lea	 esi, DWORD PTR [edi+168]
  00066	8b cf		 mov	 ecx, edi
  00068	8b 40 1c	 mov	 eax, DWORD PTR [eax+28]
  0006b	ff d0		 call	 eax
  0006d	84 c0		 test	 al, al
  0006f	75 68		 jne	 SHORT $LN7@OnMouseMov
  00071	56		 push	 esi
  00072	8d 4d 8c	 lea	 ecx, DWORD PTR $T2[ebp]
  00075	e8 00 00 00 00	 call	 ??0CCoordinate@@QAE@ABV0@@Z ; CCoordinate::CCoordinate
  0007a	8b 46 20	 mov	 eax, DWORD PTR [esi+32]
  0007d	8b 4e 24	 mov	 ecx, DWORD PTR [esi+36]
  00080	89 45 ac	 mov	 DWORD PTR $T2[ebp+32], eax
  00083	89 4d b0	 mov	 DWORD PTR $T2[ebp+36], ecx

; 568  : 		return false;
; 569  : 
; 570  : 	//     
; 571  : 	// ->      .
; 572  : 	if(PointInDrawingRegion(COneOrTwoPointTool::GetUpPoints().GetDrawingPoint()))

  00086	8b 37		 mov	 esi, DWORD PTR [edi]
  00088	8d 45 dc	 lea	 eax, DWORD PTR $T5[ebp]
  0008b	50		 push	 eax
  0008c	8d 4d 8c	 lea	 ecx, DWORD PTR $T2[ebp]
  0008f	c6 45 fc 01	 mov	 BYTE PTR __$EHRec$[ebp+8], 1
  00093	e8 00 00 00 00	 call	 ?GetDrawingPoint@CPoints@@QBE?AVCPoint@@XZ ; CPoints::GetDrawingPoint
  00098	50		 push	 eax
  00099	8b 46 1c	 mov	 eax, DWORD PTR [esi+28]
  0009c	8b cf		 mov	 ecx, edi
  0009e	ff d0		 call	 eax
  000a0	8d 4d a0	 lea	 ecx, DWORD PTR $T2[ebp+20]
  000a3	c6 45 fc 00	 mov	 BYTE PTR __$EHRec$[ebp+8], 0
  000a7	8a d8		 mov	 bl, al
  000a9	ff 15 00 00 00
	00		 call	 DWORD PTR __imp_??1?$CStringT@DV?$StrTraitMFC_DLL@DV?$ChTraitsCRT@D@ATL@@@@@ATL@@QAE@XZ
  000af	84 db		 test	 bl, bl
  000b1	74 07		 je	 SHORT $LN12@OnMouseMov

; 573  : 		CTool::Invalidate();

  000b3	8b cf		 mov	 ecx, edi
  000b5	e8 00 00 00 00	 call	 ?Invalidate@CTool@@QAEXXZ ; CTool::Invalidate
$LN12@OnMouseMov:
  000ba	8d 4d c8	 lea	 ecx, DWORD PTR _drawingPts$4[ebp+20]
  000bd	ff 15 00 00 00
	00		 call	 DWORD PTR __imp_??1?$CStringT@DV?$StrTraitMFC_DLL@DV?$ChTraitsCRT@D@ATL@@@@@ATL@@QAE@XZ

; 509  : 		return false;

  000c3	32 c0		 xor	 al, al

; 513  : }

  000c5	8b 4d f4	 mov	 ecx, DWORD PTR __$EHRec$[ebp]
  000c8	64 89 0d 00 00
	00 00		 mov	 DWORD PTR fs:0, ecx
  000cf	59		 pop	 ecx
  000d0	5f		 pop	 edi
  000d1	5e		 pop	 esi
  000d2	5b		 pop	 ebx
  000d3	8b e5		 mov	 esp, ebp
  000d5	5d		 pop	 ebp
  000d6	c2 0c 00	 ret	 12			; 0000000cH
$LN7@OnMouseMov:

; 480  : 	m_upPoints = points;

  000d9	8d 45 b4	 lea	 eax, DWORD PTR _drawingPts$4[ebp]
  000dc	8b ce		 mov	 ecx, esi
  000de	50		 push	 eax
  000df	e8 00 00 00 00	 call	 ??4CPoints@@QAEAAV0@ABV0@@Z ; CPoints::operator=
  000e4	8d 4d c8	 lea	 ecx, DWORD PTR _drawingPts$4[ebp+20]

; 554  : 	return true;

  000e7	c7 45 fc ff ff
	ff ff		 mov	 DWORD PTR __$EHRec$[ebp+8], -1
  000ee	ff 15 00 00 00
	00		 call	 DWORD PTR __imp_??1?$CStringT@DV?$StrTraitMFC_DLL@DV?$ChTraitsCRT@D@ATL@@@@@ATL@@QAE@XZ
  000f4	56		 push	 esi
  000f5	8d 4d 8c	 lea	 ecx, DWORD PTR $T3[ebp]
  000f8	e8 00 00 00 00	 call	 ??0CCoordinate@@QAE@ABV0@@Z ; CCoordinate::CCoordinate
  000fd	8b 46 20	 mov	 eax, DWORD PTR [esi+32]
  00100	8b 4e 24	 mov	 ecx, DWORD PTR [esi+36]
  00103	89 45 ac	 mov	 DWORD PTR $T3[ebp+32], eax
  00106	89 4d b0	 mov	 DWORD PTR $T3[ebp+36], ecx

; 505  : 	if(!COnePointDownTool::MouseMove(pDC, point))
; 506  : 		return false;
; 507  : 
; 508  : 	if(!CDownTool::OnMouseMove(pDC, COneOrTwoPointTool::GetUpPoints().GetDrawingPoint(),nFlags))

  00109	8d 45 dc	 lea	 eax, DWORD PTR $T6[ebp]
  0010c	c7 45 fc 02 00
	00 00		 mov	 DWORD PTR __$EHRec$[ebp+8], 2
  00113	50		 push	 eax
  00114	8d 4d 8c	 lea	 ecx, DWORD PTR $T3[ebp]
  00117	e8 00 00 00 00	 call	 ?GetDrawingPoint@CPoints@@QBE?AVCPoint@@XZ ; CPoints::GetDrawingPoint

; 401  : 	if(PointInDrawingRegion(point))

  0011c	8b 17		 mov	 edx, DWORD PTR [edi]
  0011e	8b cf		 mov	 ecx, edi
  00120	50		 push	 eax
  00121	8b 42 1c	 mov	 eax, DWORD PTR [edx+28]
  00124	ff d0		 call	 eax
  00126	8b cf		 mov	 ecx, edi
  00128	84 c0		 test	 al, al
  0012a	74 17		 je	 SHORT $LN50@OnMouseMov

; 402  : 	{
; 403  : 		if(GetToolType() != CAnalysis::EN_ANALYSIS_DOWN_CROSS)

  0012c	8b 07		 mov	 eax, DWORD PTR [edi]
  0012e	ff 50 24	 call	 DWORD PTR [eax+36]
  00131	83 f8 02	 cmp	 eax, 2
  00134	74 09		 je	 SHORT $LN51@OnMouseMov

; 404  : 			CTool::ChangeCursor(CToolEnumData::DRAW_PEN);

  00136	6a 01		 push	 1
  00138	8b cf		 mov	 ecx, edi
  0013a	e8 00 00 00 00	 call	 ?ChangeCursor@CTool@@IAEXW4DrawType@CToolEnumData@@@Z ; CTool::ChangeCursor
$LN51@OnMouseMov:

; 405  : 		return true;

  0013f	32 db		 xor	 bl, bl
  00141	eb 09		 jmp	 SHORT $LN49@OnMouseMov
$LN50@OnMouseMov:

; 406  : 	}
; 407  : 
; 408  : 	CTool::ChangeCursor(CToolEnumData::DRAW_NODROP);

  00143	6a 02		 push	 2
  00145	e8 00 00 00 00	 call	 ?ChangeCursor@CTool@@IAEXW4DrawType@CToolEnumData@@@Z ; CTool::ChangeCursor

; 409  : 	return false;

  0014a	b3 01		 mov	 bl, 1
$LN49@OnMouseMov:
  0014c	8d 4d a0	 lea	 ecx, DWORD PTR $T3[ebp+20]

; 505  : 	if(!COnePointDownTool::MouseMove(pDC, point))
; 506  : 		return false;
; 507  : 
; 508  : 	if(!CDownTool::OnMouseMove(pDC, COneOrTwoPointTool::GetUpPoints().GetDrawingPoint(),nFlags))

  0014f	c7 45 fc ff ff
	ff ff		 mov	 DWORD PTR __$EHRec$[ebp+8], -1
  00156	ff 15 00 00 00
	00		 call	 DWORD PTR __imp_??1?$CStringT@DV?$StrTraitMFC_DLL@DV?$ChTraitsCRT@D@ATL@@@@@ATL@@QAE@XZ
  0015c	84 db		 test	 bl, bl
  0015e	74 16		 je	 SHORT $LN3@OnMouseMov

; 509  : 		return false;

  00160	32 c0		 xor	 al, al

; 513  : }

  00162	8b 4d f4	 mov	 ecx, DWORD PTR __$EHRec$[ebp]
  00165	64 89 0d 00 00
	00 00		 mov	 DWORD PTR fs:0, ecx
  0016c	59		 pop	 ecx
  0016d	5f		 pop	 edi
  0016e	5e		 pop	 esi
  0016f	5b		 pop	 ebx
  00170	8b e5		 mov	 esp, ebp
  00172	5d		 pop	 ebp
  00173	c2 0c 00	 ret	 12			; 0000000cH
$LN3@OnMouseMov:

; 510  : 
; 511  : 	CTool::Invalidate();

  00176	8b cf		 mov	 ecx, edi
  00178	e8 00 00 00 00	 call	 ?Invalidate@CTool@@QAEXXZ ; CTool::Invalidate

; 512  : 	return true;

  0017d	b0 01		 mov	 al, 1

; 513  : }

  0017f	8b 4d f4	 mov	 ecx, DWORD PTR __$EHRec$[ebp]
  00182	64 89 0d 00 00
	00 00		 mov	 DWORD PTR fs:0, ecx
  00189	59		 pop	 ecx
  0018a	5f		 pop	 edi
  0018b	5e		 pop	 esi
  0018c	5b		 pop	 ebx
  0018d	8b e5		 mov	 esp, ebp
  0018f	5d		 pop	 ebp
  00190	c2 0c 00	 ret	 12			; 0000000cH
_TEXT	ENDS
;	COMDAT text$x
text$x	SEGMENT
__unwindfunclet$?OnMouseMove@COnePointDownTool@@UAE_NPAVCDC@@ABVCPoint@@H@Z$1:
  00000	8d 4d b4	 lea	 ecx, DWORD PTR _drawingPts$4[ebp]
  00003	e9 00 00 00 00	 jmp	 ??1CPoints@@QAE@XZ
__unwindfunclet$?OnMouseMove@COnePointDownTool@@UAE_NPAVCDC@@ABVCPoint@@H@Z$2:
  00008	8d 4d 8c	 lea	 ecx, DWORD PTR $T2[ebp]
  0000b	e9 00 00 00 00	 jmp	 ??1CPoints@@QAE@XZ
__unwindfunclet$?OnMouseMove@COnePointDownTool@@UAE_NPAVCDC@@ABVCPoint@@H@Z$0:
  00010	8d 4d 8c	 lea	 ecx, DWORD PTR $T3[ebp]
  00013	e9 00 00 00 00	 jmp	 ??1CPoints@@QAE@XZ
  00018	cc		 int	 3
  00019	cc		 int	 3
  0001a	cc		 int	 3
  0001b	cc		 int	 3
  0001c	cc		 int	 3
__ehhandler$?OnMouseMove@COnePointDownTool@@UAE_NPAVCDC@@ABVCPoint@@H@Z:
  0001d	90		 npad	 1
  0001e	90		 npad	 1
  0001f	8b 54 24 08	 mov	 edx, DWORD PTR [esp+8]
  00023	8d 42 0c	 lea	 eax, DWORD PTR [edx+12]
  00026	8b 4a 88	 mov	 ecx, DWORD PTR [edx-120]
  00029	33 c8		 xor	 ecx, eax
  0002b	e8 00 00 00 00	 call	 @__security_check_cookie@4
  00030	b8 00 00 00 00	 mov	 eax, OFFSET __ehfuncinfo$?OnMouseMove@COnePointDownTool@@UAE_NPAVCDC@@ABVCPoint@@H@Z
  00035	e9 00 00 00 00	 jmp	 ___CxxFrameHandler3
text$x	ENDS
?OnMouseMove@COnePointDownTool@@UAE_NPAVCDC@@ABVCPoint@@H@Z ENDP ; COnePointDownTool::OnMouseMove
; Function compile flags: /Ogtp
; File D:\git\src\IBK\IBK_DRFN\ProjSrc\SrcChartEx\ChartAddIn\ChartAnalysisToolAddIn\AnalysisTool\PointTool.cpp
;	COMDAT ?OnLButtonDown@COnePointDownTool@@UAEPAVCElement@@PAVCDC@@ABVCPoint@@@Z
_TEXT	SEGMENT
_pDC$ = 8						; size = 4
_point$ = 12						; size = 4
?OnLButtonDown@COnePointDownTool@@UAEPAVCElement@@PAVCDC@@ABVCPoint@@@Z PROC ; COnePointDownTool::OnLButtonDown, COMDAT
; _this$ = ecx

; 499  : {	

  00000	55		 push	 ebp
  00001	8b ec		 mov	 ebp, esp

; 501  : }

  00003	5d		 pop	 ebp

; 500  : 	return COneOrTwoPointTool::OnLButtonDown(pDC, point);

  00004	e9 00 00 00 00	 jmp	 ?OnLButtonDown@COneOrTwoPointTool@@UAEPAVCElement@@PAVCDC@@ABVCPoint@@@Z ; COneOrTwoPointTool::OnLButtonDown
?OnLButtonDown@COnePointDownTool@@UAEPAVCElement@@PAVCDC@@ABVCPoint@@@Z ENDP ; COnePointDownTool::OnLButtonDown
_TEXT	ENDS
; Function compile flags: /Ogtp
; File D:\git\src\IBK\IBK_DRFN\ProjSrc\SrcChartEx\ChartAddIn\ChartAnalysisToolAddIn\AnalysisTool\PointTool.cpp
;	COMDAT ??1COnePointDownTool@@IAE@XZ
_TEXT	SEGMENT
??1COnePointDownTool@@IAE@XZ PROC			; COnePointDownTool::~COnePointDownTool, COMDAT
; _this$ = ecx

; 494  : {

  00000	c7 01 00 00 00
	00		 mov	 DWORD PTR [ecx], OFFSET ??_7COnePointDownTool@@6B@

; 495  : }

  00006	e9 00 00 00 00	 jmp	 ??1COneOrTwoPointTool@@QAE@XZ
??1COnePointDownTool@@IAE@XZ ENDP			; COnePointDownTool::~COnePointDownTool
_TEXT	ENDS
; Function compile flags: /Ogtp
; File D:\git\src\IBK\IBK_DRFN\ProjSrc\SrcChartEx\ChartAddIn\ChartAnalysisToolAddIn\AnalysisTool\PointTool.cpp
;	COMDAT ??0COnePointDownTool@@IAE@PAVCAnalysisData@@W4COORDINATETYPE@CAnalysis@@@Z
_TEXT	SEGMENT
_this$ = -16						; size = 4
__$EHRec$ = -12						; size = 12
_pAnalysisData$ = 8					; size = 4
_eCoordinateType$ = 12					; size = 4
??0COnePointDownTool@@IAE@PAVCAnalysisData@@W4COORDINATETYPE@CAnalysis@@@Z PROC ; COnePointDownTool::COnePointDownTool, COMDAT
; _this$ = ecx

; 488  : {

  00000	55		 push	 ebp
  00001	8b ec		 mov	 ebp, esp
  00003	6a ff		 push	 -1
  00005	68 00 00 00 00	 push	 __ehhandler$??0COnePointDownTool@@IAE@PAVCAnalysisData@@W4COORDINATETYPE@CAnalysis@@@Z
  0000a	64 a1 00 00 00
	00		 mov	 eax, DWORD PTR fs:0
  00010	50		 push	 eax
  00011	51		 push	 ecx
  00012	56		 push	 esi
  00013	a1 00 00 00 00	 mov	 eax, DWORD PTR ___security_cookie
  00018	33 c5		 xor	 eax, ebp
  0001a	50		 push	 eax
  0001b	8d 45 f4	 lea	 eax, DWORD PTR __$EHRec$[ebp]
  0001e	64 a3 00 00 00
	00		 mov	 DWORD PTR fs:0, eax
  00024	8b f1		 mov	 esi, ecx
  00026	89 75 f0	 mov	 DWORD PTR _this$[ebp], esi

; 487  : 	COneOrTwoPointTool(pAnalysisData, eCoordinateType)

  00029	ff 75 0c	 push	 DWORD PTR _eCoordinateType$[ebp]
  0002c	ff 75 08	 push	 DWORD PTR _pAnalysisData$[ebp]
  0002f	e8 00 00 00 00	 call	 ??0COneOrTwoPointTool@@IAE@PAVCAnalysisData@@W4COORDINATETYPE@CAnalysis@@@Z ; COneOrTwoPointTool::COneOrTwoPointTool

; 489  : 	CTool::Initialize();

  00034	8b ce		 mov	 ecx, esi
  00036	c7 45 fc 00 00
	00 00		 mov	 DWORD PTR __$EHRec$[ebp+8], 0
  0003d	c7 06 00 00 00
	00		 mov	 DWORD PTR [esi], OFFSET ??_7COnePointDownTool@@6B@
  00043	e8 00 00 00 00	 call	 ?Initialize@CTool@@UAEXXZ ; CTool::Initialize

; 490  : 	CTool::SetProcessStarting(false);	

  00048	6a 00		 push	 0
  0004a	8b ce		 mov	 ecx, esi
  0004c	e8 00 00 00 00	 call	 ?SetProcessStarting@CTool@@QAEX_N@Z ; CTool::SetProcessStarting

; 491  : }

  00051	8b c6		 mov	 eax, esi
  00053	8b 4d f4	 mov	 ecx, DWORD PTR __$EHRec$[ebp]
  00056	64 89 0d 00 00
	00 00		 mov	 DWORD PTR fs:0, ecx
  0005d	59		 pop	 ecx
  0005e	5e		 pop	 esi
  0005f	8b e5		 mov	 esp, ebp
  00061	5d		 pop	 ebp
  00062	c2 08 00	 ret	 8
_TEXT	ENDS
;	COMDAT text$x
text$x	SEGMENT
__unwindfunclet$??0COnePointDownTool@@IAE@PAVCAnalysisData@@W4COORDINATETYPE@CAnalysis@@@Z$0:
  00000	8b 4d f0	 mov	 ecx, DWORD PTR _this$[ebp]
  00003	e9 00 00 00 00	 jmp	 ??1COneOrTwoPointTool@@QAE@XZ
  00008	cc		 int	 3
  00009	cc		 int	 3
  0000a	cc		 int	 3
  0000b	cc		 int	 3
  0000c	cc		 int	 3
__ehhandler$??0COnePointDownTool@@IAE@PAVCAnalysisData@@W4COORDINATETYPE@CAnalysis@@@Z:
  0000d	90		 npad	 1
  0000e	90		 npad	 1
  0000f	8b 54 24 08	 mov	 edx, DWORD PTR [esp+8]
  00013	8d 42 0c	 lea	 eax, DWORD PTR [edx+12]
  00016	8b 4a f4	 mov	 ecx, DWORD PTR [edx-12]
  00019	33 c8		 xor	 ecx, eax
  0001b	e8 00 00 00 00	 call	 @__security_check_cookie@4
  00020	b8 00 00 00 00	 mov	 eax, OFFSET __ehfuncinfo$??0COnePointDownTool@@IAE@PAVCAnalysisData@@W4COORDINATETYPE@CAnalysis@@@Z
  00025	e9 00 00 00 00	 jmp	 ___CxxFrameHandler3
text$x	ENDS
??0COnePointDownTool@@IAE@PAVCAnalysisData@@W4COORDINATETYPE@CAnalysis@@@Z ENDP ; COnePointDownTool::COnePointDownTool
; Function compile flags: /Ogtp
; File C:\Program Files (x86)\Microsoft Visual Studio\2019\Community\VC\Tools\MSVC\14.29.30133\include\deque
; File C:\Program Files (x86)\Microsoft Visual Studio\2019\Community\VC\Tools\MSVC\14.29.30133\include\utility
; File C:\Program Files (x86)\Microsoft Visual Studio\2019\Community\VC\Tools\MSVC\14.29.30133\include\xmemory
; File C:\Program Files (x86)\Microsoft Visual Studio\2019\Community\VC\Tools\MSVC\14.29.30133\include\utility
; File C:\Program Files (x86)\Microsoft Visual Studio\2019\Community\VC\Tools\MSVC\14.29.30133\include\xmemory
;	COMDAT ??1COneOrTwoPointTool@@QAE@XZ
_TEXT	SEGMENT
??1COneOrTwoPointTool@@QAE@XZ PROC			; COneOrTwoPointTool::~COneOrTwoPointTool, COMDAT
; _this$ = ecx
; File C:\Program Files (x86)\Microsoft Visual Studio\2019\Community\VC\Tools\MSVC\14.29.30133\include\deque

; 1332 :         _Tidy();

  00000	56		 push	 esi
  00001	8b f1		 mov	 esi, ecx
  00003	8d 8e bc 00 00
	00		 lea	 ecx, DWORD PTR [esi+188]
  00009	ff 15 00 00 00
	00		 call	 DWORD PTR __imp_??1?$CStringT@DV?$StrTraitMFC_DLL@DV?$ChTraitsCRT@D@ATL@@@@@ATL@@QAE@XZ
  0000f	8d 8e 80 00 00
	00		 lea	 ecx, DWORD PTR [esi+128]
  00015	e8 00 00 00 00	 call	 ??1CObList@@UAE@XZ	; CObList::~CObList
  0001a	8d 4e 60	 lea	 ecx, DWORD PTR [esi+96]
  0001d	ff 15 00 00 00
	00		 call	 DWORD PTR __imp_??1?$CStringT@DV?$StrTraitMFC_DLL@DV?$ChTraitsCRT@D@ATL@@@@@ATL@@QAE@XZ
  00023	8d 4e 5c	 lea	 ecx, DWORD PTR [esi+92]
  00026	ff 15 00 00 00
	00		 call	 DWORD PTR __imp_??1?$CStringT@DV?$StrTraitMFC_DLL@DV?$ChTraitsCRT@D@ATL@@@@@ATL@@QAE@XZ
  0002c	8d 4e 58	 lea	 ecx, DWORD PTR [esi+88]
  0002f	ff 15 00 00 00
	00		 call	 DWORD PTR __imp_??1?$CStringT@DV?$StrTraitMFC_DLL@DV?$ChTraitsCRT@D@ATL@@@@@ATL@@QAE@XZ
  00035	8d 4e 14	 lea	 ecx, DWORD PTR [esi+20]
  00038	e8 00 00 00 00	 call	 ?_Tidy@?$deque@VCBlockRegion@@V?$allocator@VCBlockRegion@@@std@@@std@@AAEXXZ ; std::deque<CBlockRegion,std::allocator<CBlockRegion> >::_Tidy

; 861  :         _Tidy();

  0003d	8d 4e 14	 lea	 ecx, DWORD PTR [esi+20]
  00040	e8 00 00 00 00	 call	 ?_Tidy@?$deque@VCBlockRegion@@V?$allocator@VCBlockRegion@@@std@@@std@@AAEXXZ ; std::deque<CBlockRegion,std::allocator<CBlockRegion> >::_Tidy
; File C:\Program Files (x86)\Microsoft Visual Studio\2019\Community\VC\Tools\MSVC\14.29.30133\include\utility

; 602  :     _Ty _Old_val = static_cast<_Ty&&>(_Val);

  00045	8b 46 14	 mov	 eax, DWORD PTR [esi+20]
; File C:\Program Files (x86)\Microsoft Visual Studio\2019\Community\VC\Tools\MSVC\14.29.30133\include\xmemory

; 255  :         ::operator delete(_Ptr, _Bytes);

  00048	6a 08		 push	 8
  0004a	50		 push	 eax
; File C:\Program Files (x86)\Microsoft Visual Studio\2019\Community\VC\Tools\MSVC\14.29.30133\include\utility

; 603  :     _Val         = static_cast<_Other&&>(_New_val);

  0004b	c7 46 14 00 00
	00 00		 mov	 DWORD PTR [esi+20], 0
; File C:\Program Files (x86)\Microsoft Visual Studio\2019\Community\VC\Tools\MSVC\14.29.30133\include\xmemory

; 255  :         ::operator delete(_Ptr, _Bytes);

  00052	e8 00 00 00 00	 call	 ??3@YAXPAXI@Z		; operator delete
  00057	83 c4 08	 add	 esp, 8
  0005a	5e		 pop	 esi
  0005b	c3		 ret	 0
??1COneOrTwoPointTool@@QAE@XZ ENDP			; COneOrTwoPointTool::~COneOrTwoPointTool
_TEXT	ENDS
; Function compile flags: /Ogtp
; File D:\git\src\IBK\IBK_DRFN\ProjSrc\SrcChartEx\ChartAddIn\ChartAnalysisToolAddIn\AnalysisTool\PointTool.cpp
;	COMDAT ?SetUpPoints@COneOrTwoPointTool@@IAEXABVCPoints@@@Z
_TEXT	SEGMENT
_points$ = 8						; size = 4
?SetUpPoints@COneOrTwoPointTool@@IAEXABVCPoints@@@Z PROC ; COneOrTwoPointTool::SetUpPoints, COMDAT
; _this$ = ecx

; 479  : {

  00000	55		 push	 ebp
  00001	8b ec		 mov	 ebp, esp

; 480  : 	m_upPoints = points;

  00003	81 c1 a8 00 00
	00		 add	 ecx, 168		; 000000a8H

; 481  : }

  00009	5d		 pop	 ebp

; 480  : 	m_upPoints = points;

  0000a	e9 00 00 00 00	 jmp	 ??4CPoints@@QAEAAV0@ABV0@@Z ; CPoints::operator=
?SetUpPoints@COneOrTwoPointTool@@IAEXABVCPoints@@@Z ENDP ; COneOrTwoPointTool::SetUpPoints
_TEXT	ENDS
; Function compile flags: /Ogtp
; File D:\git\src\IBK\IBK_DRFN\ProjSrc\SrcChartEx\ChartAddIn\ChartAnalysisToolAddIn\AnalysisTool\PointTool.cpp
;	COMDAT ?GetUpPoints@COneOrTwoPointTool@@IBE?AVCPoints@@XZ
_TEXT	SEGMENT
___$ReturnUdt$ = 8					; size = 4
?GetUpPoints@COneOrTwoPointTool@@IBE?AVCPoints@@XZ PROC	; COneOrTwoPointTool::GetUpPoints, COMDAT
; _this$ = ecx

; 474  : {

  00000	55		 push	 ebp
  00001	8b ec		 mov	 ebp, esp
  00003	56		 push	 esi
  00004	57		 push	 edi

; 475  : 	return m_upPoints;

  00005	8b 7d 08	 mov	 edi, DWORD PTR ___$ReturnUdt$[ebp]
  00008	8d b1 a8 00 00
	00		 lea	 esi, DWORD PTR [ecx+168]
  0000e	56		 push	 esi
  0000f	8b cf		 mov	 ecx, edi
  00011	e8 00 00 00 00	 call	 ??0CCoordinate@@QAE@ABV0@@Z ; CCoordinate::CCoordinate
  00016	8b 4e 20	 mov	 ecx, DWORD PTR [esi+32]
  00019	8b c7		 mov	 eax, edi
  0001b	8b 56 24	 mov	 edx, DWORD PTR [esi+36]
  0001e	89 4f 20	 mov	 DWORD PTR [edi+32], ecx
  00021	89 57 24	 mov	 DWORD PTR [edi+36], edx
  00024	5f		 pop	 edi
  00025	5e		 pop	 esi

; 476  : }

  00026	5d		 pop	 ebp
  00027	c2 04 00	 ret	 4
?GetUpPoints@COneOrTwoPointTool@@IBE?AVCPoints@@XZ ENDP	; COneOrTwoPointTool::GetUpPoints
_TEXT	ENDS
; Function compile flags: /Ogtp
; File D:\git\src\IBK\IBK_DRFN\ProjSrc\SrcChartEx\ChartAddIn\ChartAnalysisToolAddIn\AnalysisTool\PointTool.cpp
;	COMDAT ?SavePoints@COneOrTwoPointTool@@MAEXABVCPoints@@@Z
_TEXT	SEGMENT
_points$ = 8						; size = 4
?SavePoints@COneOrTwoPointTool@@MAEXABVCPoints@@@Z PROC	; COneOrTwoPointTool::SavePoints, COMDAT
; _this$ = ecx

; 468  : {

  00000	55		 push	 ebp
  00001	8b ec		 mov	 ebp, esp

; 469  : 	m_upPoints = points;

  00003	81 c1 a8 00 00
	00		 add	 ecx, 168		; 000000a8H

; 470  : }

  00009	5d		 pop	 ebp

; 469  : 	m_upPoints = points;

  0000a	e9 00 00 00 00	 jmp	 ??4CPoints@@QAEAAV0@ABV0@@Z ; CPoints::operator=
?SavePoints@COneOrTwoPointTool@@MAEXABVCPoints@@@Z ENDP	; COneOrTwoPointTool::SavePoints
_TEXT	ENDS
; Function compile flags: /Ogtp
; File D:\git\src\IBK\IBK_DRFN\ProjSrc\SrcChartEx\ChartAddIn\ChartAnalysisToolAddIn\AnalysisTool\PointTool.cpp
;	COMDAT ?OnDraw@COneOrTwoPointTool@@UAEXPAVCDC@@@Z
_TEXT	SEGMENT
_pDC$ = 8						; size = 4
?OnDraw@COneOrTwoPointTool@@UAEXPAVCDC@@@Z PROC		; COneOrTwoPointTool::OnDraw, COMDAT
; _this$ = ecx

; 455  : {	

  00000	55		 push	 ebp
  00001	8b ec		 mov	 ebp, esp

; 456  : 	Draw_UpPoint(pDC);

  00003	8b 01		 mov	 eax, DWORD PTR [ecx]

; 457  : }

  00005	5d		 pop	 ebp

; 456  : 	Draw_UpPoint(pDC);

  00006	ff 60 40	 jmp	 DWORD PTR [eax+64]
?OnDraw@COneOrTwoPointTool@@UAEXPAVCDC@@@Z ENDP		; COneOrTwoPointTool::OnDraw
_TEXT	ENDS
; Function compile flags: /Ogtp
; File D:\git\src\IBK\IBK_DRFN\ProjSrc\SrcChartEx\ChartAddIn\ChartAnalysisToolAddIn\AnalysisTool\PointTool.cpp
;	COMDAT ?OnMouseMove@COneOrTwoPointTool@@UAE_NPAVCDC@@ABVCPoint@@H@Z
_TEXT	SEGMENT
$T1 = -8						; size = 8
_pDC$ = 8						; size = 4
_point$ = 12						; size = 4
_nFlags$ = 16						; size = 4
?OnMouseMove@COneOrTwoPointTool@@UAE_NPAVCDC@@ABVCPoint@@H@Z PROC ; COneOrTwoPointTool::OnMouseMove, COMDAT
; _this$ = ecx

; 442  : {

  00000	55		 push	 ebp
  00001	8b ec		 mov	 ebp, esp
  00003	83 ec 08	 sub	 esp, 8
  00006	57		 push	 edi

; 443  : 	if(PointInDrawingRegion(point) == FALSE)

  00007	ff 75 0c	 push	 DWORD PTR _point$[ebp]
  0000a	8b f9		 mov	 edi, ecx
  0000c	8b 07		 mov	 eax, DWORD PTR [edi]
  0000e	8b 40 1c	 mov	 eax, DWORD PTR [eax+28]
  00011	ff d0		 call	 eax
  00013	84 c0		 test	 al, al
  00015	74 66		 je	 SHORT $LN9@OnMouseMov

; 444  : 		return false;
; 445  : 
; 446  : 	Draw_UpPoint(pDC);		

  00017	8b 07		 mov	 eax, DWORD PTR [edi]
  00019	8b cf		 mov	 ecx, edi
  0001b	ff 75 08	 push	 DWORD PTR _pDC$[ebp]
  0001e	ff 50 40	 call	 DWORD PTR [eax+64]

; 447  : 	if(!MouseMove(pDC, point))

  00021	8b 07		 mov	 eax, DWORD PTR [edi]
  00023	8b cf		 mov	 ecx, edi
  00025	ff 75 0c	 push	 DWORD PTR _point$[ebp]
  00028	ff 75 08	 push	 DWORD PTR _pDC$[ebp]
  0002b	8b 40 3c	 mov	 eax, DWORD PTR [eax+60]
  0002e	ff d0		 call	 eax
  00030	84 c0		 test	 al, al
  00032	74 49		 je	 SHORT $LN9@OnMouseMov

; 448  : 		return false;
; 449  : 
; 450  : 	CTool::Invalidate();	

  00034	8b cf		 mov	 ecx, edi
  00036	e8 00 00 00 00	 call	 ?Invalidate@CTool@@QAEXXZ ; CTool::Invalidate

; 451  : 	return CDownTool::OnMouseMove(pDC, m_upPoints.GetDrawingPoint(),nFlags);

  0003b	8d 45 f8	 lea	 eax, DWORD PTR $T1[ebp]
  0003e	50		 push	 eax
  0003f	8d 8f a8 00 00
	00		 lea	 ecx, DWORD PTR [edi+168]
  00045	e8 00 00 00 00	 call	 ?GetDrawingPoint@CPoints@@QBE?AVCPoint@@XZ ; CPoints::GetDrawingPoint

; 401  : 	if(PointInDrawingRegion(point))

  0004a	8b 17		 mov	 edx, DWORD PTR [edi]
  0004c	8b cf		 mov	 ecx, edi
  0004e	50		 push	 eax
  0004f	8b 42 1c	 mov	 eax, DWORD PTR [edx+28]
  00052	ff d0		 call	 eax
  00054	8b cf		 mov	 ecx, edi
  00056	84 c0		 test	 al, al
  00058	74 1c		 je	 SHORT $LN6@OnMouseMov

; 402  : 	{
; 403  : 		if(GetToolType() != CAnalysis::EN_ANALYSIS_DOWN_CROSS)

  0005a	8b 07		 mov	 eax, DWORD PTR [edi]
  0005c	ff 50 24	 call	 DWORD PTR [eax+36]
  0005f	83 f8 02	 cmp	 eax, 2
  00062	74 09		 je	 SHORT $LN7@OnMouseMov

; 404  : 			CTool::ChangeCursor(CToolEnumData::DRAW_PEN);

  00064	6a 01		 push	 1
  00066	8b cf		 mov	 ecx, edi
  00068	e8 00 00 00 00	 call	 ?ChangeCursor@CTool@@IAEXW4DrawType@CToolEnumData@@@Z ; CTool::ChangeCursor
$LN7@OnMouseMov:

; 405  : 		return true;

  0006d	b0 01		 mov	 al, 1
  0006f	5f		 pop	 edi

; 452  : }

  00070	8b e5		 mov	 esp, ebp
  00072	5d		 pop	 ebp
  00073	c2 0c 00	 ret	 12			; 0000000cH
$LN6@OnMouseMov:

; 408  : 	CTool::ChangeCursor(CToolEnumData::DRAW_NODROP);

  00076	6a 02		 push	 2
  00078	e8 00 00 00 00	 call	 ?ChangeCursor@CTool@@IAEXW4DrawType@CToolEnumData@@@Z ; CTool::ChangeCursor
$LN9@OnMouseMov:

; 452  : }

  0007d	32 c0		 xor	 al, al
  0007f	5f		 pop	 edi
  00080	8b e5		 mov	 esp, ebp
  00082	5d		 pop	 ebp
  00083	c2 0c 00	 ret	 12			; 0000000cH
?OnMouseMove@COneOrTwoPointTool@@UAE_NPAVCDC@@ABVCPoint@@H@Z ENDP ; COneOrTwoPointTool::OnMouseMove
_TEXT	ENDS
; Function compile flags: /Ogtp
; File D:\git\src\IBK\IBK_DRFN\ProjSrc\SrcChartEx\ChartAddIn\ChartAnalysisToolAddIn\AnalysisTool\PointTool.cpp
;	COMDAT ?OnLButtonUp@COneOrTwoPointTool@@UAEXPAVCDC@@ABVCPoint@@@Z
_TEXT	SEGMENT
$T1 = -16						; size = 8
_ptPos$ = -8						; size = 8
_pDC$ = 8						; size = 4
_point$ = 12						; size = 4
?OnLButtonUp@COneOrTwoPointTool@@UAEXPAVCDC@@ABVCPoint@@@Z PROC ; COneOrTwoPointTool::OnLButtonUp, COMDAT
; _this$ = ecx

; 432  : {	

  00000	55		 push	 ebp
  00001	8b ec		 mov	 ebp, esp
  00003	83 ec 10	 sub	 esp, 16			; 00000010H
  00006	56		 push	 esi

; 433  : 	CTool::SetProcessStarting(false);

  00007	6a 00		 push	 0
  00009	8b f1		 mov	 esi, ecx
  0000b	e8 00 00 00 00	 call	 ?SetProcessStarting@CTool@@QAEX_N@Z ; CTool::SetProcessStarting

; 434  : 	CPoint ptPos(point);

  00010	8b 45 0c	 mov	 eax, DWORD PTR _point$[ebp]

; 435  : 	if(GetToolType() == CAnalysis::EN_ANALYSIS_CANDLE_BONG)

  00013	8b ce		 mov	 ecx, esi
  00015	8b 10		 mov	 edx, DWORD PTR [eax]
  00017	8b 40 04	 mov	 eax, DWORD PTR [eax+4]
  0001a	89 45 fc	 mov	 DWORD PTR _ptPos$[ebp+4], eax
  0001d	8b 06		 mov	 eax, DWORD PTR [esi]
  0001f	89 55 f8	 mov	 DWORD PTR _ptPos$[ebp], edx
  00022	ff 50 24	 call	 DWORD PTR [eax+36]
  00025	83 f8 1f	 cmp	 eax, 31			; 0000001fH
  00028	75 14		 jne	 SHORT $LN2@OnLButtonU

; 436  : 		ptPos.x = m_upPoints.GetDrawingPoint().x;		

  0002a	8d 45 f0	 lea	 eax, DWORD PTR $T1[ebp]
  0002d	50		 push	 eax
  0002e	8d 8e a8 00 00
	00		 lea	 ecx, DWORD PTR [esi+168]
  00034	e8 00 00 00 00	 call	 ?GetDrawingPoint@CPoints@@QBE?AVCPoint@@XZ ; CPoints::GetDrawingPoint
  00039	8b 00		 mov	 eax, DWORD PTR [eax]
  0003b	89 45 f8	 mov	 DWORD PTR _ptPos$[ebp], eax
$LN2@OnLButtonU:

; 437  : 	
; 438  : 	CTool::OnLButtonUp(pDC, ptPos);

  0003e	8d 45 f8	 lea	 eax, DWORD PTR _ptPos$[ebp]
  00041	8b ce		 mov	 ecx, esi
  00043	50		 push	 eax
  00044	ff 75 08	 push	 DWORD PTR _pDC$[ebp]
  00047	e8 00 00 00 00	 call	 ?OnLButtonUp@CTool@@UAEXPAVCDC@@ABVCPoint@@@Z ; CTool::OnLButtonUp
  0004c	5e		 pop	 esi

; 439  : }

  0004d	8b e5		 mov	 esp, ebp
  0004f	5d		 pop	 ebp
  00050	c2 08 00	 ret	 8
?OnLButtonUp@COneOrTwoPointTool@@UAEXPAVCDC@@ABVCPoint@@@Z ENDP ; COneOrTwoPointTool::OnLButtonUp
_TEXT	ENDS
; Function compile flags: /Ogtp
; File D:\git\src\IBK\IBK_DRFN\ProjSrc\SrcChartEx\ChartAddIn\ChartAnalysisToolAddIn\AnalysisTool\PointTool.cpp
;	COMDAT ?OnLButtonDown@COneOrTwoPointTool@@UAEPAVCElement@@PAVCDC@@ABVCPoint@@@Z
_TEXT	SEGMENT
$T2 = -60						; size = 40
$T3 = -20						; size = 8
__$EHRec$ = -12						; size = 12
_pDC$ = 8						; size = 4
_point$ = 12						; size = 4
?OnLButtonDown@COneOrTwoPointTool@@UAEPAVCElement@@PAVCDC@@ABVCPoint@@@Z PROC ; COneOrTwoPointTool::OnLButtonDown, COMDAT
; _this$ = ecx

; 424  : {

  00000	55		 push	 ebp
  00001	8b ec		 mov	 ebp, esp
  00003	6a ff		 push	 -1
  00005	68 00 00 00 00	 push	 __ehhandler$?OnLButtonDown@COneOrTwoPointTool@@UAEPAVCElement@@PAVCDC@@ABVCPoint@@@Z
  0000a	64 a1 00 00 00
	00		 mov	 eax, DWORD PTR fs:0
  00010	50		 push	 eax
  00011	83 ec 30	 sub	 esp, 48			; 00000030H
  00014	53		 push	 ebx
  00015	56		 push	 esi
  00016	57		 push	 edi
  00017	a1 00 00 00 00	 mov	 eax, DWORD PTR ___security_cookie
  0001c	33 c5		 xor	 eax, ebp
  0001e	50		 push	 eax
  0001f	8d 45 f4	 lea	 eax, DWORD PTR __$EHRec$[ebp]
  00022	64 a3 00 00 00
	00		 mov	 DWORD PTR fs:0, eax
  00028	8b d9		 mov	 ebx, ecx

; 425  : 	m_upPoints = CTool::GetPointsAndSetDataType(point);

  0002a	8b 7d 0c	 mov	 edi, DWORD PTR _point$[ebp]
  0002d	8d 45 c4	 lea	 eax, DWORD PTR $T2[ebp]
  00030	57		 push	 edi
  00031	50		 push	 eax
  00032	e8 00 00 00 00	 call	 ?GetPointsAndSetDataType@CTool@@IAE?AVCPoints@@ABVCPoint@@@Z ; CTool::GetPointsAndSetDataType
  00037	50		 push	 eax
  00038	8d 8b a8 00 00
	00		 lea	 ecx, DWORD PTR [ebx+168]
  0003e	c7 45 fc 00 00
	00 00		 mov	 DWORD PTR __$EHRec$[ebp+8], 0
  00045	e8 00 00 00 00	 call	 ??4CPoints@@QAEAAV0@ABV0@@Z ; CPoints::operator=
  0004a	8d 4d d8	 lea	 ecx, DWORD PTR $T2[ebp+20]
  0004d	c7 45 fc ff ff
	ff ff		 mov	 DWORD PTR __$EHRec$[ebp+8], -1
  00054	ff 15 00 00 00
	00		 call	 DWORD PTR __imp_??1?$CStringT@DV?$StrTraitMFC_DLL@DV?$ChTraitsCRT@D@ATL@@@@@ATL@@QAE@XZ

; 426  : 
; 427  : 	m_ptPoint = point;

  0005a	8b 07		 mov	 eax, DWORD PTR [edi]

; 428  : 	return CDownTool::OnLButtonDown(pDC, m_upPoints.GetDrawingPoint());

  0005c	8d 8b a8 00 00
	00		 lea	 ecx, DWORD PTR [ebx+168]
  00062	8b 57 04	 mov	 edx, DWORD PTR [edi+4]
  00065	89 83 9c 00 00
	00		 mov	 DWORD PTR [ebx+156], eax
  0006b	8d 45 ec	 lea	 eax, DWORD PTR $T3[ebp]
  0006e	50		 push	 eax
  0006f	89 93 a0 00 00
	00		 mov	 DWORD PTR [ebx+160], edx
  00075	e8 00 00 00 00	 call	 ?GetDrawingPoint@CPoints@@QBE?AVCPoint@@XZ ; CPoints::GetDrawingPoint

; 391  : 	CTool::SetProcessStarting(true);

  0007a	6a 01		 push	 1
  0007c	8b cb		 mov	 ecx, ebx

; 428  : 	return CDownTool::OnLButtonDown(pDC, m_upPoints.GetDrawingPoint());

  0007e	8b f0		 mov	 esi, eax

; 391  : 	CTool::SetProcessStarting(true);

  00080	e8 00 00 00 00	 call	 ?SetProcessStarting@CTool@@QAEX_N@Z ; CTool::SetProcessStarting

; 392  : 	CTool::SetDrawingRegions(point);

  00085	56		 push	 esi
  00086	8b cb		 mov	 ecx, ebx
  00088	e8 00 00 00 00	 call	 ?SetDrawingRegions@CTool@@IAEXABVCPoint@@@Z ; CTool::SetDrawingRegions

; 393  : 	if(GetToolType() != CAnalysis::EN_ANALYSIS_DOWN_CROSS)

  0008d	8b 03		 mov	 eax, DWORD PTR [ebx]
  0008f	8b cb		 mov	 ecx, ebx
  00091	ff 50 24	 call	 DWORD PTR [eax+36]
  00094	83 f8 02	 cmp	 eax, 2
  00097	74 09		 je	 SHORT $LN13@OnLButtonD

; 394  : 		CTool::ChangeCursor(CToolEnumData::DRAW_PEN);

  00099	6a 01		 push	 1
  0009b	8b cb		 mov	 ecx, ebx
  0009d	e8 00 00 00 00	 call	 ?ChangeCursor@CTool@@IAEXW4DrawType@CToolEnumData@@@Z ; CTool::ChangeCursor
$LN13@OnLButtonD:

; 429  : }

  000a2	33 c0		 xor	 eax, eax
  000a4	8b 4d f4	 mov	 ecx, DWORD PTR __$EHRec$[ebp]
  000a7	64 89 0d 00 00
	00 00		 mov	 DWORD PTR fs:0, ecx
  000ae	59		 pop	 ecx
  000af	5f		 pop	 edi
  000b0	5e		 pop	 esi
  000b1	5b		 pop	 ebx
  000b2	8b e5		 mov	 esp, ebp
  000b4	5d		 pop	 ebp
  000b5	c2 08 00	 ret	 8
_TEXT	ENDS
;	COMDAT text$x
text$x	SEGMENT
__unwindfunclet$?OnLButtonDown@COneOrTwoPointTool@@UAEPAVCElement@@PAVCDC@@ABVCPoint@@@Z$0:
  00000	8d 4d c4	 lea	 ecx, DWORD PTR $T2[ebp]
  00003	e9 00 00 00 00	 jmp	 ??1CPoints@@QAE@XZ
  00008	cc		 int	 3
  00009	cc		 int	 3
  0000a	cc		 int	 3
  0000b	cc		 int	 3
  0000c	cc		 int	 3
__ehhandler$?OnLButtonDown@COneOrTwoPointTool@@UAEPAVCElement@@PAVCDC@@ABVCPoint@@@Z:
  0000d	90		 npad	 1
  0000e	90		 npad	 1
  0000f	8b 54 24 08	 mov	 edx, DWORD PTR [esp+8]
  00013	8d 42 0c	 lea	 eax, DWORD PTR [edx+12]
  00016	8b 4a c0	 mov	 ecx, DWORD PTR [edx-64]
  00019	33 c8		 xor	 ecx, eax
  0001b	e8 00 00 00 00	 call	 @__security_check_cookie@4
  00020	b8 00 00 00 00	 mov	 eax, OFFSET __ehfuncinfo$?OnLButtonDown@COneOrTwoPointTool@@UAEPAVCElement@@PAVCDC@@ABVCPoint@@@Z
  00025	e9 00 00 00 00	 jmp	 ___CxxFrameHandler3
text$x	ENDS
?OnLButtonDown@COneOrTwoPointTool@@UAEPAVCElement@@PAVCDC@@ABVCPoint@@@Z ENDP ; COneOrTwoPointTool::OnLButtonDown
; Function compile flags: /Ogtp
; File D:\git\src\IBK\IBK_DRFN\ProjSrc\SrcChartEx\ChartAddIn\ChartAnalysisToolAddIn\AnalysisTool\PointTool.cpp
; File C:\Program Files (x86)\Microsoft Visual Studio\2019\Community\VC\Tools\MSVC\14.29.30133\atlmfc\include\atltypes.h
; File D:\git\src\IBK\IBK_DRFN\ProjSrc\SrcChartEx\ChartAddIn\ChartAnalysisToolAddIn\AnalysisTool\PointTool.cpp
; File C:\Program Files (x86)\Microsoft Visual Studio\2019\Community\VC\Tools\MSVC\14.29.30133\atlmfc\include\atltypes.h
; File D:\git\src\IBK\IBK_DRFN\ProjSrc\SrcChartEx\ChartAddIn\ChartAnalysisToolAddIn\AnalysisTool\PointTool.cpp
;	COMDAT ??0COneOrTwoPointTool@@IAE@PAVCAnalysisData@@W4COORDINATETYPE@CAnalysis@@@Z
_TEXT	SEGMENT
_this$ = -16						; size = 4
__$EHRec$ = -12						; size = 12
_pAnalysisData$ = 8					; size = 4
_eCoordinateType$ = 12					; size = 4
??0COneOrTwoPointTool@@IAE@PAVCAnalysisData@@W4COORDINATETYPE@CAnalysis@@@Z PROC ; COneOrTwoPointTool::COneOrTwoPointTool, COMDAT
; _this$ = ecx

; 417  : {

  00000	55		 push	 ebp
  00001	8b ec		 mov	 ebp, esp
  00003	6a ff		 push	 -1
  00005	68 00 00 00 00	 push	 __ehhandler$??0COneOrTwoPointTool@@IAE@PAVCAnalysisData@@W4COORDINATETYPE@CAnalysis@@@Z
  0000a	64 a1 00 00 00
	00		 mov	 eax, DWORD PTR fs:0
  00010	50		 push	 eax
  00011	51		 push	 ecx
  00012	56		 push	 esi
  00013	a1 00 00 00 00	 mov	 eax, DWORD PTR ___security_cookie
  00018	33 c5		 xor	 eax, ebp
  0001a	50		 push	 eax
  0001b	8d 45 f4	 lea	 eax, DWORD PTR __$EHRec$[ebp]
  0001e	64 a3 00 00 00
	00		 mov	 DWORD PTR fs:0, eax
  00024	8b f1		 mov	 esi, ecx
  00026	89 75 f0	 mov	 DWORD PTR _this$[ebp], esi

; 371  : 	CTool(pAnalysisData, eCoordinateType)

  00029	ff 75 0c	 push	 DWORD PTR _eCoordinateType$[ebp]
  0002c	ff 75 08	 push	 DWORD PTR _pAnalysisData$[ebp]
  0002f	e8 00 00 00 00	 call	 ??0CTool@@IAE@PAVCAnalysisData@@W4COORDINATETYPE@CAnalysis@@@Z ; CTool::CTool

; 372  : {	

  00034	c7 06 00 00 00
	00		 mov	 DWORD PTR [esi], OFFSET ??_7CDownTool@@6B@

; 373  : 	CTool::Initialize();

  0003a	8b ce		 mov	 ecx, esi
  0003c	c7 45 fc 00 00
	00 00		 mov	 DWORD PTR __$EHRec$[ebp+8], 0
; File C:\Program Files (x86)\Microsoft Visual Studio\2019\Community\VC\Tools\MSVC\14.29.30133\atlmfc\include\atltypes.h

; 400  : 	x = 0;

  00043	c7 46 78 00 00
	00 00		 mov	 DWORD PTR [esi+120], 0

; 401  : 	y = 0;

  0004a	c7 46 7c 00 00
	00 00		 mov	 DWORD PTR [esi+124], 0
; File D:\git\src\IBK\IBK_DRFN\ProjSrc\SrcChartEx\ChartAddIn\ChartAnalysisToolAddIn\AnalysisTool\PointTool.cpp

; 373  : 	CTool::Initialize();

  00051	e8 00 00 00 00	 call	 ?Initialize@CTool@@UAEXXZ ; CTool::Initialize

; 374  : 	CTool::SetProcessStarting(false);

  00056	6a 00		 push	 0
  00058	8b ce		 mov	 ecx, esi
  0005a	e8 00 00 00 00	 call	 ?SetProcessStarting@CTool@@QAEX_N@Z ; CTool::SetProcessStarting

; 417  : {

  0005f	6a 0a		 push	 10			; 0000000aH
  00061	8d 8e 80 00 00
	00		 lea	 ecx, DWORD PTR [esi+128]
  00067	c7 45 fc 01 00
	00 00		 mov	 DWORD PTR __$EHRec$[ebp+8], 1
  0006e	c7 06 00 00 00
	00		 mov	 DWORD PTR [esi], OFFSET ??_7COneOrTwoPointTool@@6B@
  00074	e8 00 00 00 00	 call	 ??0CObList@@QAE@H@Z	; CObList::CObList
  00079	8d 8e a8 00 00
	00		 lea	 ecx, DWORD PTR [esi+168]
  0007f	c6 45 fc 02	 mov	 BYTE PTR __$EHRec$[ebp+8], 2
; File C:\Program Files (x86)\Microsoft Visual Studio\2019\Community\VC\Tools\MSVC\14.29.30133\atlmfc\include\atltypes.h

; 400  : 	x = 0;

  00083	c7 86 9c 00 00
	00 00 00 00 00	 mov	 DWORD PTR [esi+156], 0

; 401  : 	y = 0;

  0008d	c7 86 a0 00 00
	00 00 00 00 00	 mov	 DWORD PTR [esi+160], 0
; File D:\git\src\IBK\IBK_DRFN\ProjSrc\SrcChartEx\ChartAddIn\ChartAnalysisToolAddIn\AnalysisTool\PointTool.cpp

; 417  : {

  00097	e8 00 00 00 00	 call	 ??0CPoints@@QAE@XZ	; CPoints::CPoints

; 418  : 	CTool::Initialize();

  0009c	8b ce		 mov	 ecx, esi
  0009e	c6 45 fc 03	 mov	 BYTE PTR __$EHRec$[ebp+8], 3
  000a2	e8 00 00 00 00	 call	 ?Initialize@CTool@@UAEXXZ ; CTool::Initialize

; 419  : 	CTool::SetProcessStarting(false);

  000a7	6a 00		 push	 0
  000a9	8b ce		 mov	 ecx, esi
  000ab	e8 00 00 00 00	 call	 ?SetProcessStarting@CTool@@QAEX_N@Z ; CTool::SetProcessStarting

; 420  : }

  000b0	8b c6		 mov	 eax, esi
  000b2	8b 4d f4	 mov	 ecx, DWORD PTR __$EHRec$[ebp]
  000b5	64 89 0d 00 00
	00 00		 mov	 DWORD PTR fs:0, ecx
  000bc	59		 pop	 ecx
  000bd	5e		 pop	 esi
  000be	8b e5		 mov	 esp, ebp
  000c0	5d		 pop	 ebp
  000c1	c2 08 00	 ret	 8
_TEXT	ENDS
;	COMDAT text$x
text$x	SEGMENT
__unwindfunclet$??0COneOrTwoPointTool@@IAE@PAVCAnalysisData@@W4COORDINATETYPE@CAnalysis@@@Z$3:
  00000	8b 4d f0	 mov	 ecx, DWORD PTR _this$[ebp]
  00003	e9 00 00 00 00	 jmp	 ??1CTool@@QAE@XZ
__unwindfunclet$??0COneOrTwoPointTool@@IAE@PAVCAnalysisData@@W4COORDINATETYPE@CAnalysis@@@Z$0:
  00008	8b 4d f0	 mov	 ecx, DWORD PTR _this$[ebp]
  0000b	e9 00 00 00 00	 jmp	 ??1CDownTool@@QAE@XZ
__unwindfunclet$??0COneOrTwoPointTool@@IAE@PAVCAnalysisData@@W4COORDINATETYPE@CAnalysis@@@Z$1:
  00010	8b 4d f0	 mov	 ecx, DWORD PTR _this$[ebp]
  00013	81 c1 80 00 00
	00		 add	 ecx, 128		; 00000080H
  00019	e9 00 00 00 00	 jmp	 ??1CObList@@UAE@XZ	; CObList::~CObList
__unwindfunclet$??0COneOrTwoPointTool@@IAE@PAVCAnalysisData@@W4COORDINATETYPE@CAnalysis@@@Z$2:
  0001e	8b 4d f0	 mov	 ecx, DWORD PTR _this$[ebp]
  00021	81 c1 a8 00 00
	00		 add	 ecx, 168		; 000000a8H
  00027	e9 00 00 00 00	 jmp	 ??1CPoints@@QAE@XZ
  0002c	cc		 int	 3
  0002d	cc		 int	 3
  0002e	cc		 int	 3
  0002f	cc		 int	 3
  00030	cc		 int	 3
__ehhandler$??0COneOrTwoPointTool@@IAE@PAVCAnalysisData@@W4COORDINATETYPE@CAnalysis@@@Z:
  00031	90		 npad	 1
  00032	90		 npad	 1
  00033	8b 54 24 08	 mov	 edx, DWORD PTR [esp+8]
  00037	8d 42 0c	 lea	 eax, DWORD PTR [edx+12]
  0003a	8b 4a f4	 mov	 ecx, DWORD PTR [edx-12]
  0003d	33 c8		 xor	 ecx, eax
  0003f	e8 00 00 00 00	 call	 @__security_check_cookie@4
  00044	b8 00 00 00 00	 mov	 eax, OFFSET __ehfuncinfo$??0COneOrTwoPointTool@@IAE@PAVCAnalysisData@@W4COORDINATETYPE@CAnalysis@@@Z
  00049	e9 00 00 00 00	 jmp	 ___CxxFrameHandler3
text$x	ENDS
??0COneOrTwoPointTool@@IAE@PAVCAnalysisData@@W4COORDINATETYPE@CAnalysis@@@Z ENDP ; COneOrTwoPointTool::COneOrTwoPointTool
; Function compile flags: /Ogtp
; File C:\Program Files (x86)\Microsoft Visual Studio\2019\Community\VC\Tools\MSVC\14.29.30133\include\deque
; File C:\Program Files (x86)\Microsoft Visual Studio\2019\Community\VC\Tools\MSVC\14.29.30133\include\utility
; File C:\Program Files (x86)\Microsoft Visual Studio\2019\Community\VC\Tools\MSVC\14.29.30133\include\xmemory
; File C:\Program Files (x86)\Microsoft Visual Studio\2019\Community\VC\Tools\MSVC\14.29.30133\include\utility
; File C:\Program Files (x86)\Microsoft Visual Studio\2019\Community\VC\Tools\MSVC\14.29.30133\include\xmemory
;	COMDAT ??1CDownTool@@QAE@XZ
_TEXT	SEGMENT
??1CDownTool@@QAE@XZ PROC				; CDownTool::~CDownTool, COMDAT
; _this$ = ecx
; File C:\Program Files (x86)\Microsoft Visual Studio\2019\Community\VC\Tools\MSVC\14.29.30133\include\deque

; 1332 :         _Tidy();

  00000	56		 push	 esi
  00001	8b f1		 mov	 esi, ecx
  00003	8d 4e 60	 lea	 ecx, DWORD PTR [esi+96]
  00006	ff 15 00 00 00
	00		 call	 DWORD PTR __imp_??1?$CStringT@DV?$StrTraitMFC_DLL@DV?$ChTraitsCRT@D@ATL@@@@@ATL@@QAE@XZ
  0000c	8d 4e 5c	 lea	 ecx, DWORD PTR [esi+92]
  0000f	ff 15 00 00 00
	00		 call	 DWORD PTR __imp_??1?$CStringT@DV?$StrTraitMFC_DLL@DV?$ChTraitsCRT@D@ATL@@@@@ATL@@QAE@XZ
  00015	8d 4e 58	 lea	 ecx, DWORD PTR [esi+88]
  00018	ff 15 00 00 00
	00		 call	 DWORD PTR __imp_??1?$CStringT@DV?$StrTraitMFC_DLL@DV?$ChTraitsCRT@D@ATL@@@@@ATL@@QAE@XZ
  0001e	8d 4e 14	 lea	 ecx, DWORD PTR [esi+20]
  00021	e8 00 00 00 00	 call	 ?_Tidy@?$deque@VCBlockRegion@@V?$allocator@VCBlockRegion@@@std@@@std@@AAEXXZ ; std::deque<CBlockRegion,std::allocator<CBlockRegion> >::_Tidy

; 861  :         _Tidy();

  00026	8d 4e 14	 lea	 ecx, DWORD PTR [esi+20]
  00029	e8 00 00 00 00	 call	 ?_Tidy@?$deque@VCBlockRegion@@V?$allocator@VCBlockRegion@@@std@@@std@@AAEXXZ ; std::deque<CBlockRegion,std::allocator<CBlockRegion> >::_Tidy
; File C:\Program Files (x86)\Microsoft Visual Studio\2019\Community\VC\Tools\MSVC\14.29.30133\include\utility

; 602  :     _Ty _Old_val = static_cast<_Ty&&>(_Val);

  0002e	8b 46 14	 mov	 eax, DWORD PTR [esi+20]
; File C:\Program Files (x86)\Microsoft Visual Studio\2019\Community\VC\Tools\MSVC\14.29.30133\include\xmemory

; 255  :         ::operator delete(_Ptr, _Bytes);

  00031	6a 08		 push	 8
  00033	50		 push	 eax
; File C:\Program Files (x86)\Microsoft Visual Studio\2019\Community\VC\Tools\MSVC\14.29.30133\include\utility

; 603  :     _Val         = static_cast<_Other&&>(_New_val);

  00034	c7 46 14 00 00
	00 00		 mov	 DWORD PTR [esi+20], 0
; File C:\Program Files (x86)\Microsoft Visual Studio\2019\Community\VC\Tools\MSVC\14.29.30133\include\xmemory

; 255  :         ::operator delete(_Ptr, _Bytes);

  0003b	e8 00 00 00 00	 call	 ??3@YAXPAXI@Z		; operator delete
  00040	83 c4 08	 add	 esp, 8
  00043	5e		 pop	 esi
  00044	c3		 ret	 0
??1CDownTool@@QAE@XZ ENDP				; CDownTool::~CDownTool
_TEXT	ENDS
; Function compile flags: /Ogtp
; File D:\git\src\IBK\IBK_DRFN\ProjSrc\SrcChartEx\ChartAddIn\ChartAnalysisToolAddIn\AnalysisTool\PointTool.cpp
;	COMDAT ?OnMouseMove@CDownTool@@UAE_NPAVCDC@@ABVCPoint@@H@Z
_TEXT	SEGMENT
_pDC$ = 8						; size = 4
_point$ = 12						; size = 4
_nFlags$ = 16						; size = 4
?OnMouseMove@CDownTool@@UAE_NPAVCDC@@ABVCPoint@@H@Z PROC ; CDownTool::OnMouseMove, COMDAT
; _this$ = ecx

; 400  : {	

  00000	55		 push	 ebp
  00001	8b ec		 mov	 ebp, esp
  00003	56		 push	 esi

; 401  : 	if(PointInDrawingRegion(point))

  00004	ff 75 0c	 push	 DWORD PTR _point$[ebp]
  00007	8b f1		 mov	 esi, ecx
  00009	8b 06		 mov	 eax, DWORD PTR [esi]
  0000b	8b 40 1c	 mov	 eax, DWORD PTR [eax+28]
  0000e	ff d0		 call	 eax
  00010	8b ce		 mov	 ecx, esi
  00012	84 c0		 test	 al, al
  00014	74 1a		 je	 SHORT $LN2@OnMouseMov

; 402  : 	{
; 403  : 		if(GetToolType() != CAnalysis::EN_ANALYSIS_DOWN_CROSS)

  00016	8b 06		 mov	 eax, DWORD PTR [esi]
  00018	ff 50 24	 call	 DWORD PTR [eax+36]
  0001b	83 f8 02	 cmp	 eax, 2
  0001e	74 09		 je	 SHORT $LN3@OnMouseMov

; 404  : 			CTool::ChangeCursor(CToolEnumData::DRAW_PEN);

  00020	6a 01		 push	 1
  00022	8b ce		 mov	 ecx, esi
  00024	e8 00 00 00 00	 call	 ?ChangeCursor@CTool@@IAEXW4DrawType@CToolEnumData@@@Z ; CTool::ChangeCursor
$LN3@OnMouseMov:

; 405  : 		return true;

  00029	b0 01		 mov	 al, 1
  0002b	5e		 pop	 esi

; 410  : }

  0002c	5d		 pop	 ebp
  0002d	c2 0c 00	 ret	 12			; 0000000cH
$LN2@OnMouseMov:

; 406  : 	}
; 407  : 
; 408  : 	CTool::ChangeCursor(CToolEnumData::DRAW_NODROP);

  00030	6a 02		 push	 2
  00032	e8 00 00 00 00	 call	 ?ChangeCursor@CTool@@IAEXW4DrawType@CToolEnumData@@@Z ; CTool::ChangeCursor

; 409  : 	return false;

  00037	32 c0		 xor	 al, al
  00039	5e		 pop	 esi

; 410  : }

  0003a	5d		 pop	 ebp
  0003b	c2 0c 00	 ret	 12			; 0000000cH
?OnMouseMove@CDownTool@@UAE_NPAVCDC@@ABVCPoint@@H@Z ENDP ; CDownTool::OnMouseMove
_TEXT	ENDS
; Function compile flags: /Ogtp
; File D:\git\src\IBK\IBK_DRFN\ProjSrc\SrcChartEx\ChartAddIn\ChartAnalysisToolAddIn\AnalysisTool\PointTool.cpp
;	COMDAT ?OnLButtonDown@CDownTool@@UAEPAVCElement@@PAVCDC@@ABVCPoint@@@Z
_TEXT	SEGMENT
___formal$ = 8						; size = 4
_point$ = 12						; size = 4
?OnLButtonDown@CDownTool@@UAEPAVCElement@@PAVCDC@@ABVCPoint@@@Z PROC ; CDownTool::OnLButtonDown, COMDAT
; _this$ = ecx

; 390  : {

  00000	55		 push	 ebp
  00001	8b ec		 mov	 ebp, esp
  00003	56		 push	 esi

; 391  : 	CTool::SetProcessStarting(true);

  00004	6a 01		 push	 1
  00006	8b f1		 mov	 esi, ecx
  00008	e8 00 00 00 00	 call	 ?SetProcessStarting@CTool@@QAEX_N@Z ; CTool::SetProcessStarting

; 392  : 	CTool::SetDrawingRegions(point);

  0000d	ff 75 0c	 push	 DWORD PTR _point$[ebp]
  00010	8b ce		 mov	 ecx, esi
  00012	e8 00 00 00 00	 call	 ?SetDrawingRegions@CTool@@IAEXABVCPoint@@@Z ; CTool::SetDrawingRegions

; 393  : 	if(GetToolType() != CAnalysis::EN_ANALYSIS_DOWN_CROSS)

  00017	8b 06		 mov	 eax, DWORD PTR [esi]
  00019	8b ce		 mov	 ecx, esi
  0001b	ff 50 24	 call	 DWORD PTR [eax+36]
  0001e	83 f8 02	 cmp	 eax, 2
  00021	74 09		 je	 SHORT $LN4@OnLButtonD

; 394  : 		CTool::ChangeCursor(CToolEnumData::DRAW_PEN);

  00023	6a 01		 push	 1
  00025	8b ce		 mov	 ecx, esi
  00027	e8 00 00 00 00	 call	 ?ChangeCursor@CTool@@IAEXW4DrawType@CToolEnumData@@@Z ; CTool::ChangeCursor
$LN4@OnLButtonD:

; 395  : 
; 396  : 	return NULL;
; 397  : }

  0002c	33 c0		 xor	 eax, eax
  0002e	5e		 pop	 esi
  0002f	5d		 pop	 ebp
  00030	c2 08 00	 ret	 8
?OnLButtonDown@CDownTool@@UAEPAVCElement@@PAVCDC@@ABVCPoint@@@Z ENDP ; CDownTool::OnLButtonDown
_TEXT	ENDS
; Function compile flags: /Ogtp
; File D:\git\src\IBK\IBK_DRFN\ProjSrc\SrcChartEx\ChartAddIn\ChartAnalysisToolAddIn\AnalysisTool\PointTool.cpp
;	COMDAT ?Initialize@CDownTool@@UAEXXZ
_TEXT	SEGMENT
$T1 = -4						; size = 1
?Initialize@CDownTool@@UAEXXZ PROC			; CDownTool::Initialize, COMDAT
; _this$ = ecx

; 380  : {

  00000	55		 push	 ebp
  00001	8b ec		 mov	 ebp, esp
  00003	51		 push	 ecx
  00004	56		 push	 esi
  00005	8b f1		 mov	 esi, ecx

; 381  : 	CTool::Initialize();

  00007	e8 00 00 00 00	 call	 ?Initialize@CTool@@UAEXXZ ; CTool::Initialize

; 382  : 	if(GetToolType() == CAnalysis::EN_ANALYSIS_DOWN_CROSS)

  0000c	8b 06		 mov	 eax, DWORD PTR [esi]
  0000e	8b ce		 mov	 ecx, esi
  00010	ff 50 24	 call	 DWORD PTR [eax+36]
  00013	83 f8 02	 cmp	 eax, 2

; 383  : 		CTool::SetProcessStarting(true);
; 384  : 	else
; 385  : 		CTool::SetProcessStarting(false);
; 386  : }

  00016	8b ce		 mov	 ecx, esi
  00018	0f 94 45 fc	 sete	 BYTE PTR $T1[ebp]
  0001c	ff 75 fc	 push	 DWORD PTR $T1[ebp]
  0001f	e8 00 00 00 00	 call	 ?SetProcessStarting@CTool@@QAEX_N@Z ; CTool::SetProcessStarting
  00024	5e		 pop	 esi
  00025	8b e5		 mov	 esp, ebp
  00027	5d		 pop	 ebp
  00028	c3		 ret	 0
?Initialize@CDownTool@@UAEXXZ ENDP			; CDownTool::Initialize
_TEXT	ENDS
; Function compile flags: /Ogtp
; File D:\git\src\IBK\IBK_DRFN\ProjSrc\SrcChartEx\ChartAddIn\ChartAnalysisToolAddIn\AnalysisTool\PointTool.cpp
; File C:\Program Files (x86)\Microsoft Visual Studio\2019\Community\VC\Tools\MSVC\14.29.30133\atlmfc\include\atltypes.h
; File D:\git\src\IBK\IBK_DRFN\ProjSrc\SrcChartEx\ChartAddIn\ChartAnalysisToolAddIn\AnalysisTool\PointTool.cpp
;	COMDAT ??0CDownTool@@IAE@PAVCAnalysisData@@W4COORDINATETYPE@CAnalysis@@@Z
_TEXT	SEGMENT
_this$ = -16						; size = 4
__$EHRec$ = -12						; size = 12
_pAnalysisData$ = 8					; size = 4
_eCoordinateType$ = 12					; size = 4
??0CDownTool@@IAE@PAVCAnalysisData@@W4COORDINATETYPE@CAnalysis@@@Z PROC ; CDownTool::CDownTool, COMDAT
; _this$ = ecx

; 372  : {	

  00000	55		 push	 ebp
  00001	8b ec		 mov	 ebp, esp
  00003	6a ff		 push	 -1
  00005	68 00 00 00 00	 push	 __ehhandler$??0CDownTool@@IAE@PAVCAnalysisData@@W4COORDINATETYPE@CAnalysis@@@Z
  0000a	64 a1 00 00 00
	00		 mov	 eax, DWORD PTR fs:0
  00010	50		 push	 eax
  00011	51		 push	 ecx
  00012	56		 push	 esi
  00013	a1 00 00 00 00	 mov	 eax, DWORD PTR ___security_cookie
  00018	33 c5		 xor	 eax, ebp
  0001a	50		 push	 eax
  0001b	8d 45 f4	 lea	 eax, DWORD PTR __$EHRec$[ebp]
  0001e	64 a3 00 00 00
	00		 mov	 DWORD PTR fs:0, eax
  00024	8b f1		 mov	 esi, ecx
  00026	89 75 f0	 mov	 DWORD PTR _this$[ebp], esi

; 371  : 	CTool(pAnalysisData, eCoordinateType)

  00029	ff 75 0c	 push	 DWORD PTR _eCoordinateType$[ebp]
  0002c	ff 75 08	 push	 DWORD PTR _pAnalysisData$[ebp]
  0002f	e8 00 00 00 00	 call	 ??0CTool@@IAE@PAVCAnalysisData@@W4COORDINATETYPE@CAnalysis@@@Z ; CTool::CTool

; 372  : {	

  00034	c7 06 00 00 00
	00		 mov	 DWORD PTR [esi], OFFSET ??_7CDownTool@@6B@

; 373  : 	CTool::Initialize();

  0003a	8b ce		 mov	 ecx, esi
  0003c	c7 45 fc 00 00
	00 00		 mov	 DWORD PTR __$EHRec$[ebp+8], 0
; File C:\Program Files (x86)\Microsoft Visual Studio\2019\Community\VC\Tools\MSVC\14.29.30133\atlmfc\include\atltypes.h

; 400  : 	x = 0;

  00043	c7 46 78 00 00
	00 00		 mov	 DWORD PTR [esi+120], 0

; 401  : 	y = 0;

  0004a	c7 46 7c 00 00
	00 00		 mov	 DWORD PTR [esi+124], 0
; File D:\git\src\IBK\IBK_DRFN\ProjSrc\SrcChartEx\ChartAddIn\ChartAnalysisToolAddIn\AnalysisTool\PointTool.cpp

; 373  : 	CTool::Initialize();

  00051	e8 00 00 00 00	 call	 ?Initialize@CTool@@UAEXXZ ; CTool::Initialize

; 374  : 	CTool::SetProcessStarting(false);

  00056	6a 00		 push	 0
  00058	8b ce		 mov	 ecx, esi
  0005a	e8 00 00 00 00	 call	 ?SetProcessStarting@CTool@@QAEX_N@Z ; CTool::SetProcessStarting

; 375  : }

  0005f	8b c6		 mov	 eax, esi
  00061	8b 4d f4	 mov	 ecx, DWORD PTR __$EHRec$[ebp]
  00064	64 89 0d 00 00
	00 00		 mov	 DWORD PTR fs:0, ecx
  0006b	59		 pop	 ecx
  0006c	5e		 pop	 esi
  0006d	8b e5		 mov	 esp, ebp
  0006f	5d		 pop	 ebp
  00070	c2 08 00	 ret	 8
_TEXT	ENDS
;	COMDAT text$x
text$x	SEGMENT
__unwindfunclet$??0CDownTool@@IAE@PAVCAnalysisData@@W4COORDINATETYPE@CAnalysis@@@Z$0:
  00000	8b 4d f0	 mov	 ecx, DWORD PTR _this$[ebp]
  00003	e9 00 00 00 00	 jmp	 ??1CTool@@QAE@XZ
  00008	cc		 int	 3
  00009	cc		 int	 3
  0000a	cc		 int	 3
  0000b	cc		 int	 3
  0000c	cc		 int	 3
__ehhandler$??0CDownTool@@IAE@PAVCAnalysisData@@W4COORDINATETYPE@CAnalysis@@@Z:
  0000d	90		 npad	 1
  0000e	90		 npad	 1
  0000f	8b 54 24 08	 mov	 edx, DWORD PTR [esp+8]
  00013	8d 42 0c	 lea	 eax, DWORD PTR [edx+12]
  00016	8b 4a f4	 mov	 ecx, DWORD PTR [edx-12]
  00019	33 c8		 xor	 ecx, eax
  0001b	e8 00 00 00 00	 call	 @__security_check_cookie@4
  00020	b8 00 00 00 00	 mov	 eax, OFFSET __ehfuncinfo$??0CDownTool@@IAE@PAVCAnalysisData@@W4COORDINATETYPE@CAnalysis@@@Z
  00025	e9 00 00 00 00	 jmp	 ___CxxFrameHandler3
text$x	ENDS
??0CDownTool@@IAE@PAVCAnalysisData@@W4COORDINATETYPE@CAnalysis@@@Z ENDP ; CDownTool::CDownTool
; Function compile flags: /Ogtp
; File D:\git\src\IBK\IBK_DRFN\ProjSrc\SrcChartEx\ChartAddIn\ChartAnalysisToolAddIn\AnalysisTool\PointTool.cpp
; File D:\git\src\IBK\IBK_DRFN\ProjSrc\SrcChartEx\ChartAddIn\ChartAnalysisToolAddIn\Include_AddIn_133101\I133101\_IString.h
; File D:\git\src\IBK\IBK_DRFN\ProjSrc\SrcChartEx\ChartAddIn\ChartAnalysisToolAddIn\AnalysisTool\PointTool.cpp
; File D:\git\src\IBK\IBK_DRFN\ProjSrc\SrcChartEx\ChartAddIn\ChartAnalysisToolAddIn\Include_AddIn_133101\I133101\_IString.h
; File D:\git\src\IBK\IBK_DRFN\ProjSrc\SrcChartEx\ChartAddIn\ChartAnalysisToolAddIn\AnalysisTool\PointTool.cpp
; File D:\git\src\IBK\IBK_DRFN\ProjSrc\SrcChartEx\ChartAddIn\ChartAnalysisToolAddIn\Include_AddIn_133101\I133101\_IString.h
; File D:\git\src\IBK\IBK_DRFN\ProjSrc\SrcChartEx\ChartAddIn\ChartAnalysisToolAddIn\AnalysisTool\PointTool.cpp
; File D:\git\src\IBK\IBK_DRFN\ProjSrc\SrcChartEx\ChartAddIn\ChartAnalysisToolAddIn\Include_AddIn_133101\I133101\_IString.h
; File D:\git\src\IBK\IBK_DRFN\ProjSrc\SrcChartEx\ChartAddIn\ChartAnalysisToolAddIn\AnalysisTool\PointTool.cpp
;	COMDAT ?GetTwoPointDrawingData@CTwoPointMoveTool@@ABE?AVCTwoPointDrawingData@@XZ
_TEXT	SEGMENT
$T2 = -628						; size = 40
$T3 = -588						; size = 72
$T4 = -516						; size = 72
$T5 = -444						; size = 72
$T6 = -372						; size = 72
$T7 = -300						; size = 40
$T8 = -260						; size = 40
$T9 = -220						; size = 8
$T10 = -212						; size = 8
$T11 = -204						; size = 8
$T12 = -204						; size = 8
_szRQ$ = -196						; size = 8
___$ReturnUdt$GSCopy$1$ = -188				; size = 4
_eDateUnit$1$ = -184					; size = 4
$T13 = -178						; size = 2
tv596 = -176						; size = 4
___$ReturnUdt$GSCopy$ = -176				; size = 4
_strPacketType$ = -172					; size = 4
_this$GSCopy$1$ = -168					; size = 4
_szHelpMsg$ = -164					; size = 8
_strDataType$ = -156					; size = 4
_calData$ = -152					; size = 96
$T14 = -56						; size = 40
$T15 = -48						; size = 32
__$ArrayPad$ = -16					; size = 4
__$EHRec$ = -12						; size = 12
___$ReturnUdt$ = 8					; size = 4
?GetTwoPointDrawingData@CTwoPointMoveTool@@ABE?AVCTwoPointDrawingData@@XZ PROC ; CTwoPointMoveTool::GetTwoPointDrawingData, COMDAT
; _this$ = ecx

; 329  : {

  00000	55		 push	 ebp
  00001	8b ec		 mov	 ebp, esp
  00003	6a ff		 push	 -1
  00005	68 00 00 00 00	 push	 __ehhandler$?GetTwoPointDrawingData@CTwoPointMoveTool@@ABE?AVCTwoPointDrawingData@@XZ
  0000a	64 a1 00 00 00
	00		 mov	 eax, DWORD PTR fs:0
  00010	50		 push	 eax
  00011	81 ec 68 02 00
	00		 sub	 esp, 616		; 00000268H
  00017	a1 00 00 00 00	 mov	 eax, DWORD PTR ___security_cookie
  0001c	33 c5		 xor	 eax, ebp
  0001e	89 45 f0	 mov	 DWORD PTR __$ArrayPad$[ebp], eax
  00021	53		 push	 ebx
  00022	56		 push	 esi
  00023	57		 push	 edi
  00024	50		 push	 eax
  00025	8d 45 f4	 lea	 eax, DWORD PTR __$EHRec$[ebp]
  00028	64 a3 00 00 00
	00		 mov	 DWORD PTR fs:0, eax
  0002e	8b f9		 mov	 edi, ecx
  00030	89 bd 58 ff ff
	ff		 mov	 DWORD PTR _this$GSCopy$1$[ebp], edi
  00036	8b 45 08	 mov	 eax, DWORD PTR ___$ReturnUdt$[ebp]
  00039	89 85 44 ff ff
	ff		 mov	 DWORD PTR ___$ReturnUdt$GSCopy$1$[ebp], eax
  0003f	89 85 50 ff ff
	ff		 mov	 DWORD PTR ___$ReturnUdt$GSCopy$[ebp], eax
; File D:\git\src\IBK\IBK_DRFN\ProjSrc\SrcChartEx\ChartAddIn\ChartAnalysisToolAddIn\Include_AddIn_133101\I133101\_IString.h

; 39   : 		m_pIStrData = p_pIString;	// Do not AddRef(). Because It must be Return Value.

  00045	c7 85 60 ff ff
	ff 00 00 00 00	 mov	 DWORD PTR _szHelpMsg$[ebp+4], 0

; 41   : 		else m_szData = NULL;

  0004f	c7 85 5c ff ff
	ff 00 00 00 00	 mov	 DWORD PTR _szHelpMsg$[ebp], 0
; File D:\git\src\IBK\IBK_DRFN\ProjSrc\SrcChartEx\ChartAddIn\ChartAnalysisToolAddIn\AnalysisTool\PointTool.cpp

; 344  : 	CString strDataType, strPacketType;	

  00059	8d 8d 64 ff ff
	ff		 lea	 ecx, DWORD PTR _strDataType$[ebp]
  0005f	c7 45 fc 00 00
	00 00		 mov	 DWORD PTR __$EHRec$[ebp+8], 0
  00066	ff 15 00 00 00
	00		 call	 DWORD PTR __imp_??0?$CStringT@DV?$StrTraitMFC_DLL@DV?$ChTraitsCRT@D@ATL@@@@@ATL@@QAE@XZ
  0006c	8d 8d 54 ff ff
	ff		 lea	 ecx, DWORD PTR _strPacketType$[ebp]
  00072	ff 15 00 00 00
	00		 call	 DWORD PTR __imp_??0?$CStringT@DV?$StrTraitMFC_DLL@DV?$ChTraitsCRT@D@ATL@@@@@ATL@@QAE@XZ

; 153  : 	return m_points;

  00078	8d 9f 88 00 00
	00		 lea	 ebx, DWORD PTR [edi+136]

; 344  : 	CString strDataType, strPacketType;	

  0007e	c6 45 fc 02	 mov	 BYTE PTR __$EHRec$[ebp+8], 2
  00082	53		 push	 ebx
  00083	8d 4d c8	 lea	 ecx, DWORD PTR $T14[ebp]
  00086	e8 00 00 00 00	 call	 ??0CCoordinate@@QAE@ABV0@@Z ; CCoordinate::CCoordinate
  0008b	8b 43 20	 mov	 eax, DWORD PTR [ebx+32]
  0008e	8b 4b 24	 mov	 ecx, DWORD PTR [ebx+36]
  00091	89 45 e8	 mov	 DWORD PTR $T14[ebp+32], eax
  00094	89 4d ec	 mov	 DWORD PTR $T14[ebp+36], ecx

; 345  : 	CCoordinateCalculatorData calData = GetCoordinateCalculatorData( CMoveTool::GetPoints().GetDrawingPoint());

  00097	8d 85 34 ff ff
	ff		 lea	 eax, DWORD PTR $T12[ebp]
  0009d	c6 45 fc 03	 mov	 BYTE PTR __$EHRec$[ebp+8], 3
  000a1	50		 push	 eax
  000a2	8d 4d c8	 lea	 ecx, DWORD PTR $T14[ebp]
  000a5	e8 00 00 00 00	 call	 ?GetDrawingPoint@CPoints@@QBE?AVCPoint@@XZ ; CPoints::GetDrawingPoint
  000aa	50		 push	 eax
  000ab	8d 85 68 ff ff
	ff		 lea	 eax, DWORD PTR _calData$[ebp]
  000b1	8b cf		 mov	 ecx, edi
  000b3	50		 push	 eax
  000b4	e8 00 00 00 00	 call	 ?GetCoordinateCalculatorData@CTool@@QBE?AVCCoordinateCalculatorData@@ABVCPoint@@@Z ; CTool::GetCoordinateCalculatorData
  000b9	8d 4d dc	 lea	 ecx, DWORD PTR $T14[ebp+20]
  000bc	c6 45 fc 05	 mov	 BYTE PTR __$EHRec$[ebp+8], 5
  000c0	ff 15 00 00 00
	00		 call	 DWORD PTR __imp_??1?$CStringT@DV?$StrTraitMFC_DLL@DV?$ChTraitsCRT@D@ATL@@@@@ATL@@QAE@XZ

; 346  : 	ILPCSTR szRQ = calData.m_pIChartOCX->GetCurrentRQ();

  000c6	8b 4d b4	 mov	 ecx, DWORD PTR _calData$[ebp+76]
  000c9	8b 01		 mov	 eax, DWORD PTR [ecx]
  000cb	ff 90 40 02 00
	00		 call	 DWORD PTR [eax+576]
; File D:\git\src\IBK\IBK_DRFN\ProjSrc\SrcChartEx\ChartAddIn\ChartAnalysisToolAddIn\Include_AddIn_133101\I133101\_IString.h

; 39   : 		m_pIStrData = p_pIString;	// Do not AddRef(). Because It must be Return Value.

  000d1	8b c8		 mov	 ecx, eax
  000d3	89 8d 40 ff ff
	ff		 mov	 DWORD PTR _szRQ$[ebp+4], ecx

; 40   : 		if( m_pIStrData) m_szData = m_pIStrData->GetData();

  000d9	85 c9		 test	 ecx, ecx
  000db	74 09		 je	 SHORT $LN36@GetTwoPoin
  000dd	8b 01		 mov	 eax, DWORD PTR [ecx]
  000df	ff 50 10	 call	 DWORD PTR [eax+16]
  000e2	8b d0		 mov	 edx, eax
  000e4	eb 02		 jmp	 SHORT $LN107@GetTwoPoin
$LN36@GetTwoPoin:

; 41   : 		else m_szData = NULL;

  000e6	33 d2		 xor	 edx, edx
$LN107@GetTwoPoin:
; File D:\git\src\IBK\IBK_DRFN\ProjSrc\SrcChartEx\ChartAddIn\ChartAnalysisToolAddIn\AnalysisTool\PointTool.cpp

; 346  : 	ILPCSTR szRQ = calData.m_pIChartOCX->GetCurrentRQ();

  000e8	89 95 3c ff ff
	ff		 mov	 DWORD PTR _szRQ$[ebp], edx

; 347  : 	IPacketManager * pCurPacketManager = calData.m_pIPacketListManager->GetPacketManager(szRQ);

  000ee	8b 4d b8	 mov	 ecx, DWORD PTR _calData$[ebp+80]
  000f1	52		 push	 edx
  000f2	c6 45 fc 06	 mov	 BYTE PTR __$EHRec$[ebp+8], 6
  000f6	8b 01		 mov	 eax, DWORD PTR [ecx]
  000f8	ff 50 10	 call	 DWORD PTR [eax+16]
  000fb	8b f0		 mov	 esi, eax

; 348  : 	pCurPacketManager->GetHelpMessageItem("UD", szHelpMsg); strDataType = szHelpMsg;

  000fd	8d 8d 5c ff ff
	ff		 lea	 ecx, DWORD PTR _szHelpMsg$[ebp]
  00103	51		 push	 ecx
  00104	68 00 00 00 00	 push	 OFFSET ??_C@_02PONMEALH@UD@
  00109	8b ce		 mov	 ecx, esi
  0010b	8b 06		 mov	 eax, DWORD PTR [esi]
  0010d	ff 50 18	 call	 DWORD PTR [eax+24]
  00110	ff b5 5c ff ff
	ff		 push	 DWORD PTR _szHelpMsg$[ebp]
  00116	8d 8d 64 ff ff
	ff		 lea	 ecx, DWORD PTR _strDataType$[ebp]
  0011c	ff 15 00 00 00
	00		 call	 DWORD PTR __imp_??4?$CStringT@DV?$StrTraitMFC_DLL@DV?$ChTraitsCRT@D@ATL@@@@@ATL@@QAEAAV01@PBD@Z

; 349  : 	pCurPacketManager->GetHelpMessageItem("RDATET", szHelpMsg); strPacketType = szHelpMsg;

  00122	8b 06		 mov	 eax, DWORD PTR [esi]
  00124	8d 8d 5c ff ff
	ff		 lea	 ecx, DWORD PTR _szHelpMsg$[ebp]
  0012a	51		 push	 ecx
  0012b	68 00 00 00 00	 push	 OFFSET ??_C@_06MLGKKOBC@RDATET@
  00130	8b ce		 mov	 ecx, esi
  00132	ff 50 18	 call	 DWORD PTR [eax+24]
  00135	ff b5 5c ff ff
	ff		 push	 DWORD PTR _szHelpMsg$[ebp]
  0013b	8d 8d 54 ff ff
	ff		 lea	 ecx, DWORD PTR _strPacketType$[ebp]
  00141	ff 15 00 00 00
	00		 call	 DWORD PTR __imp_??4?$CStringT@DV?$StrTraitMFC_DLL@DV?$ChTraitsCRT@D@ATL@@@@@ATL@@QAEAAV01@PBD@Z

; 350  : 	CScaleBaseData::HORZSCALEDRAWERTYPE eDateUnit = (CScaleBaseData::HORZSCALEDRAWERTYPE)atoi(strDataType);

  00147	ff b5 64 ff ff
	ff		 push	 DWORD PTR _strDataType$[ebp]
  0014d	ff 15 00 00 00
	00		 call	 DWORD PTR __imp__atoi
  00153	83 c4 04	 add	 esp, 4
  00156	89 85 48 ff ff
	ff		 mov	 DWORD PTR _eDateUnit$1$[ebp], eax

; 353  :  	return CTwoPointDrawingData(

  0015c	8d 85 b4 fd ff
	ff		 lea	 eax, DWORD PTR $T3[ebp]
  00162	8b cf		 mov	 ecx, edi
  00164	50		 push	 eax
  00165	e8 00 00 00 00	 call	 ?GetElementCommonEnvironment@CTool@@IBE?AVCElementCommonEnvironment@@XZ ; CTool::GetElementCommonEnvironment
  0016a	8b c8		 mov	 ecx, eax
  0016c	c6 45 fc 07	 mov	 BYTE PTR __$EHRec$[ebp+8], 7
  00170	e8 00 00 00 00	 call	 ?GetLineExt@CElementCommonEnvironment@@QAEAAVCLineExtEnvironment@@XZ ; CElementCommonEnvironment::GetLineExt
  00175	50		 push	 eax
  00176	8d 8d 34 ff ff
	ff		 lea	 ecx, DWORD PTR $T11[ebp]
  0017c	e8 00 00 00 00	 call	 ??0CLineExtEnvironment@@QAE@PAV0@@Z ; CLineExtEnvironment::CLineExtEnvironment
  00181	8b 07		 mov	 eax, DWORD PTR [edi]
  00183	8d 8d 8c fd ff
	ff		 lea	 ecx, DWORD PTR $T2[ebp]
  00189	51		 push	 ecx
  0018a	8b cf		 mov	 ecx, edi
  0018c	ff 50 44	 call	 DWORD PTR [eax+68]
  0018f	8b f8		 mov	 edi, eax
  00191	53		 push	 ebx
  00192	8d 8d d4 fe ff
	ff		 lea	 ecx, DWORD PTR $T7[ebp]
  00198	c6 45 fc 08	 mov	 BYTE PTR __$EHRec$[ebp+8], 8
  0019c	e8 00 00 00 00	 call	 ??0CCoordinate@@QAE@ABV0@@Z ; CCoordinate::CCoordinate
  001a1	8b 43 20	 mov	 eax, DWORD PTR [ebx+32]
  001a4	8b 4b 24	 mov	 ecx, DWORD PTR [ebx+36]
  001a7	89 85 f4 fe ff
	ff		 mov	 DWORD PTR $T7[ebp+32], eax
  001ad	89 8d f8 fe ff
	ff		 mov	 DWORD PTR $T7[ebp+36], ecx
  001b3	53		 push	 ebx
  001b4	8d 8d fc fe ff
	ff		 lea	 ecx, DWORD PTR $T8[ebp]
  001ba	c6 45 fc 09	 mov	 BYTE PTR __$EHRec$[ebp+8], 9
  001be	e8 00 00 00 00	 call	 ??0CCoordinate@@QAE@ABV0@@Z ; CCoordinate::CCoordinate
  001c3	8b 43 20	 mov	 eax, DWORD PTR [ebx+32]
  001c6	8b 4b 24	 mov	 ecx, DWORD PTR [ebx+36]
  001c9	89 85 1c ff ff
	ff		 mov	 DWORD PTR $T8[ebp+32], eax
  001cf	89 8d 20 ff ff
	ff		 mov	 DWORD PTR $T8[ebp+36], ecx
  001d5	8b b5 58 ff ff
	ff		 mov	 esi, DWORD PTR _this$GSCopy$1$[ebp]
  001db	8d 85 fc fd ff
	ff		 lea	 eax, DWORD PTR $T4[ebp]
  001e1	50		 push	 eax
  001e2	8b ce		 mov	 ecx, esi
  001e4	c6 45 fc 0a	 mov	 BYTE PTR __$EHRec$[ebp+8], 10 ; 0000000aH
  001e8	e8 00 00 00 00	 call	 ?GetElementCommonEnvironment@CTool@@IBE?AVCElementCommonEnvironment@@XZ ; CTool::GetElementCommonEnvironment
  001ed	89 85 50 ff ff
	ff		 mov	 DWORD PTR tv596[ebp], eax
  001f3	8d 85 44 fe ff
	ff		 lea	 eax, DWORD PTR $T5[ebp]
  001f9	c6 45 fc 0b	 mov	 BYTE PTR __$EHRec$[ebp+8], 11 ; 0000000bH
  001fd	50		 push	 eax
  001fe	8b ce		 mov	 ecx, esi
  00200	e8 00 00 00 00	 call	 ?GetElementCommonEnvironment@CTool@@IBE?AVCElementCommonEnvironment@@XZ ; CTool::GetElementCommonEnvironment
  00205	8b d8		 mov	 ebx, eax
  00207	8d 85 8c fe ff
	ff		 lea	 eax, DWORD PTR $T6[ebp]
  0020d	c6 45 fc 0c	 mov	 BYTE PTR __$EHRec$[ebp+8], 12 ; 0000000cH
  00211	50		 push	 eax
  00212	8b ce		 mov	 ecx, esi
  00214	e8 00 00 00 00	 call	 ?GetElementCommonEnvironment@CTool@@IBE?AVCElementCommonEnvironment@@XZ ; CTool::GetElementCommonEnvironment
  00219	8b f0		 mov	 esi, eax
  0021b	ff b5 48 ff ff
	ff		 push	 DWORD PTR _eDateUnit$1$[ebp]
  00221	8d 85 d4 fe ff
	ff		 lea	 eax, DWORD PTR $T7[ebp]
  00227	c6 45 fc 0d	 mov	 BYTE PTR __$EHRec$[ebp+8], 13 ; 0000000dH
  0022b	57		 push	 edi
  0022c	50		 push	 eax
  0022d	8d 85 2c ff ff
	ff		 lea	 eax, DWORD PTR $T10[ebp]
  00233	50		 push	 eax
  00234	8d 8d fc fe ff
	ff		 lea	 ecx, DWORD PTR $T8[ebp]
  0023a	e8 00 00 00 00	 call	 ?GetDrawingPoint@CPoints@@QBE?AVCPoint@@XZ ; CPoints::GetDrawingPoint
  0023f	8b bd 58 ff ff
	ff		 mov	 edi, DWORD PTR _this$GSCopy$1$[ebp]
  00245	8b cf		 mov	 ecx, edi
  00247	50		 push	 eax
  00248	8d 85 4e ff ff
	ff		 lea	 eax, DWORD PTR $T13[ebp]
  0024e	50		 push	 eax
  0024f	e8 00 00 00 00	 call	 ?GetVertScaleType@CTool@@IBE?AVCVertScaleType@@ABVCPoint@@@Z ; CTool::GetVertScaleType
  00254	50		 push	 eax
  00255	8d 85 24 ff ff
	ff		 lea	 eax, DWORD PTR $T9[ebp]
  0025b	8b cf		 mov	 ecx, edi
  0025d	50		 push	 eax
  0025e	e8 00 00 00 00	 call	 ?GetDisplayAttributes@CTool@@IBE?AVCDisplayAttributes@@XZ ; CTool::GetDisplayAttributes
  00263	50		 push	 eax
  00264	8d 45 d0	 lea	 eax, DWORD PTR $T15[ebp]
  00267	8b cf		 mov	 ecx, edi
  00269	50		 push	 eax
  0026a	e8 00 00 00 00	 call	 ?GetDrawingRegions@CTool@@IBEABVCDrawingRegions@@XZ ; CTool::GetDrawingRegions
  0026f	8b c8		 mov	 ecx, eax
  00271	e8 00 00 00 00	 call	 ?GetCurrentGraphPartRegion@CDrawingRegions@@QBE?AVCGraphPartRegion@@XZ ; CDrawingRegions::GetCurrentGraphPartRegion
  00276	50		 push	 eax
  00277	8d 85 34 ff ff
	ff		 lea	 eax, DWORD PTR $T11[ebp]
  0027d	8b cf		 mov	 ecx, edi
  0027f	50		 push	 eax
  00280	8b 07		 mov	 eax, DWORD PTR [edi]
  00282	ff 50 2c	 call	 DWORD PTR [eax+44]
  00285	8b 8d 50 ff ff
	ff		 mov	 ecx, DWORD PTR tv596[ebp]
  0028b	50		 push	 eax
  0028c	e8 00 00 00 00	 call	 ?GetPriceRangeDiv@CElementCommonEnvironment@@QAEAAHXZ ; CElementCommonEnvironment::GetPriceRangeDiv
  00291	50		 push	 eax
  00292	8b cb		 mov	 ecx, ebx
  00294	e8 00 00 00 00	 call	 ?GetEquiDiv@CElementCommonEnvironment@@QAEAAHXZ ; CElementCommonEnvironment::GetEquiDiv
  00299	50		 push	 eax
  0029a	8b ce		 mov	 ecx, esi
  0029c	e8 00 00 00 00	 call	 ?GetDataType@CElementCommonEnvironment@@QAEAAVCDataTypeEnvironment@@XZ ; CElementCommonEnvironment::GetDataType
  002a1	8b b5 44 ff ff
	ff		 mov	 esi, DWORD PTR ___$ReturnUdt$GSCopy$1$[ebp]
  002a7	8b ce		 mov	 ecx, esi
  002a9	50		 push	 eax
  002aa	e8 00 00 00 00	 call	 ??0CTwoPointDrawingData@@QAE@ABVCDataTypeEnvironment@@ABH1PAVCTextPosition@@ABVCLineExtEnvironment@@ABVCGraphPartRegion@@ABVCDisplayAttributes@@ABVCVertScaleType@@ABVCPoints@@7W4HORZSCALEDRAWERTYPE@CScaleBaseData@@@Z ; CTwoPointDrawingData::CTwoPointDrawingData
  002af	8d 8d c4 fe ff
	ff		 lea	 ecx, DWORD PTR $T6[ebp+56]
  002b5	ff 15 00 00 00
	00		 call	 DWORD PTR __imp_??1?$CStringT@DV?$StrTraitMFC_DLL@DV?$ChTraitsCRT@D@ATL@@@@@ATL@@QAE@XZ
  002bb	8d 8d c0 fe ff
	ff		 lea	 ecx, DWORD PTR $T6[ebp+52]
  002c1	ff 15 00 00 00
	00		 call	 DWORD PTR __imp_??1?$CStringT@DV?$StrTraitMFC_DLL@DV?$ChTraitsCRT@D@ATL@@@@@ATL@@QAE@XZ
  002c7	8d 8d bc fe ff
	ff		 lea	 ecx, DWORD PTR $T6[ebp+48]
  002cd	ff 15 00 00 00
	00		 call	 DWORD PTR __imp_??1?$CStringT@DV?$StrTraitMFC_DLL@DV?$ChTraitsCRT@D@ATL@@@@@ATL@@QAE@XZ
  002d3	8d 8d 7c fe ff
	ff		 lea	 ecx, DWORD PTR $T5[ebp+56]
  002d9	ff 15 00 00 00
	00		 call	 DWORD PTR __imp_??1?$CStringT@DV?$StrTraitMFC_DLL@DV?$ChTraitsCRT@D@ATL@@@@@ATL@@QAE@XZ
  002df	8d 8d 78 fe ff
	ff		 lea	 ecx, DWORD PTR $T5[ebp+52]
  002e5	ff 15 00 00 00
	00		 call	 DWORD PTR __imp_??1?$CStringT@DV?$StrTraitMFC_DLL@DV?$ChTraitsCRT@D@ATL@@@@@ATL@@QAE@XZ
  002eb	8d 8d 74 fe ff
	ff		 lea	 ecx, DWORD PTR $T5[ebp+48]
  002f1	ff 15 00 00 00
	00		 call	 DWORD PTR __imp_??1?$CStringT@DV?$StrTraitMFC_DLL@DV?$ChTraitsCRT@D@ATL@@@@@ATL@@QAE@XZ
  002f7	8d 8d 34 fe ff
	ff		 lea	 ecx, DWORD PTR $T4[ebp+56]
  002fd	ff 15 00 00 00
	00		 call	 DWORD PTR __imp_??1?$CStringT@DV?$StrTraitMFC_DLL@DV?$ChTraitsCRT@D@ATL@@@@@ATL@@QAE@XZ
  00303	8d 8d 30 fe ff
	ff		 lea	 ecx, DWORD PTR $T4[ebp+52]
  00309	ff 15 00 00 00
	00		 call	 DWORD PTR __imp_??1?$CStringT@DV?$StrTraitMFC_DLL@DV?$ChTraitsCRT@D@ATL@@@@@ATL@@QAE@XZ
  0030f	8d 8d 2c fe ff
	ff		 lea	 ecx, DWORD PTR $T4[ebp+48]
  00315	ff 15 00 00 00
	00		 call	 DWORD PTR __imp_??1?$CStringT@DV?$StrTraitMFC_DLL@DV?$ChTraitsCRT@D@ATL@@@@@ATL@@QAE@XZ
  0031b	8d 8d 10 ff ff
	ff		 lea	 ecx, DWORD PTR $T8[ebp+20]
  00321	ff 15 00 00 00
	00		 call	 DWORD PTR __imp_??1?$CStringT@DV?$StrTraitMFC_DLL@DV?$ChTraitsCRT@D@ATL@@@@@ATL@@QAE@XZ
  00327	8d 8d e8 fe ff
	ff		 lea	 ecx, DWORD PTR $T7[ebp+20]
  0032d	ff 15 00 00 00
	00		 call	 DWORD PTR __imp_??1?$CStringT@DV?$StrTraitMFC_DLL@DV?$ChTraitsCRT@D@ATL@@@@@ATL@@QAE@XZ
  00333	8d 8d a0 fd ff
	ff		 lea	 ecx, DWORD PTR $T2[ebp+20]
  00339	ff 15 00 00 00
	00		 call	 DWORD PTR __imp_??1?$CStringT@DV?$StrTraitMFC_DLL@DV?$ChTraitsCRT@D@ATL@@@@@ATL@@QAE@XZ
  0033f	8d 8d ec fd ff
	ff		 lea	 ecx, DWORD PTR $T3[ebp+56]
  00345	ff 15 00 00 00
	00		 call	 DWORD PTR __imp_??1?$CStringT@DV?$StrTraitMFC_DLL@DV?$ChTraitsCRT@D@ATL@@@@@ATL@@QAE@XZ
  0034b	8d 8d e8 fd ff
	ff		 lea	 ecx, DWORD PTR $T3[ebp+52]
  00351	ff 15 00 00 00
	00		 call	 DWORD PTR __imp_??1?$CStringT@DV?$StrTraitMFC_DLL@DV?$ChTraitsCRT@D@ATL@@@@@ATL@@QAE@XZ
  00357	8d 8d e4 fd ff
	ff		 lea	 ecx, DWORD PTR $T3[ebp+48]
  0035d	ff 15 00 00 00
	00		 call	 DWORD PTR __imp_??1?$CStringT@DV?$StrTraitMFC_DLL@DV?$ChTraitsCRT@D@ATL@@@@@ATL@@QAE@XZ
; File D:\git\src\IBK\IBK_DRFN\ProjSrc\SrcChartEx\ChartAddIn\ChartAnalysisToolAddIn\Include_AddIn_133101\I133101\_IString.h

; 45   : 		if( m_pIStrData)

  00363	8b 8d 40 ff ff
	ff		 mov	 ecx, DWORD PTR _szRQ$[ebp+4]
  00369	c6 45 fc 0e	 mov	 BYTE PTR __$EHRec$[ebp+8], 14 ; 0000000eH
  0036d	85 c9		 test	 ecx, ecx
  0036f	74 06		 je	 SHORT $LN98@GetTwoPoin

; 46   : 		{
; 47   : 			m_pIStrData->Release();

  00371	8b 01		 mov	 eax, DWORD PTR [ecx]
  00373	51		 push	 ecx
  00374	ff 50 08	 call	 DWORD PTR [eax+8]
$LN98@GetTwoPoin:
; File D:\git\src\IBK\IBK_DRFN\ProjSrc\SrcChartEx\ChartAddIn\ChartAnalysisToolAddIn\AnalysisTool\PointTool.cpp

; 353  :  	return CTwoPointDrawingData(

  00377	8d 8d 68 ff ff
	ff		 lea	 ecx, DWORD PTR _calData$[ebp]
  0037d	e8 00 00 00 00	 call	 ??1CCoordinateCalculatorData@@QAE@XZ ; CCoordinateCalculatorData::~CCoordinateCalculatorData
  00382	8d 8d 54 ff ff
	ff		 lea	 ecx, DWORD PTR _strPacketType$[ebp]
  00388	ff 15 00 00 00
	00		 call	 DWORD PTR __imp_??1?$CStringT@DV?$StrTraitMFC_DLL@DV?$ChTraitsCRT@D@ATL@@@@@ATL@@QAE@XZ
  0038e	8d 8d 64 ff ff
	ff		 lea	 ecx, DWORD PTR _strDataType$[ebp]
  00394	ff 15 00 00 00
	00		 call	 DWORD PTR __imp_??1?$CStringT@DV?$StrTraitMFC_DLL@DV?$ChTraitsCRT@D@ATL@@@@@ATL@@QAE@XZ
; File D:\git\src\IBK\IBK_DRFN\ProjSrc\SrcChartEx\ChartAddIn\ChartAnalysisToolAddIn\Include_AddIn_133101\I133101\_IString.h

; 45   : 		if( m_pIStrData)

  0039a	8b 95 60 ff ff
	ff		 mov	 edx, DWORD PTR _szHelpMsg$[ebp+4]
  003a0	c7 45 fc 0f 00
	00 00		 mov	 DWORD PTR __$EHRec$[ebp+8], 15 ; 0000000fH
  003a7	85 d2		 test	 edx, edx
  003a9	74 06		 je	 SHORT $LN105@GetTwoPoin

; 46   : 		{
; 47   : 			m_pIStrData->Release();

  003ab	8b 0a		 mov	 ecx, DWORD PTR [edx]
  003ad	52		 push	 edx
  003ae	ff 51 08	 call	 DWORD PTR [ecx+8]
$LN105@GetTwoPoin:
; File D:\git\src\IBK\IBK_DRFN\ProjSrc\SrcChartEx\ChartAddIn\ChartAnalysisToolAddIn\AnalysisTool\PointTool.cpp

; 365  : }

  003b1	8b c6		 mov	 eax, esi
  003b3	8b 4d f4	 mov	 ecx, DWORD PTR __$EHRec$[ebp]
  003b6	64 89 0d 00 00
	00 00		 mov	 DWORD PTR fs:0, ecx
  003bd	59		 pop	 ecx
  003be	5f		 pop	 edi
  003bf	5e		 pop	 esi
  003c0	5b		 pop	 ebx
  003c1	8b 4d f0	 mov	 ecx, DWORD PTR __$ArrayPad$[ebp]
  003c4	33 cd		 xor	 ecx, ebp
  003c6	e8 00 00 00 00	 call	 @__security_check_cookie@4
  003cb	8b e5		 mov	 esp, ebp
  003cd	5d		 pop	 ebp
  003ce	c2 04 00	 ret	 4
_TEXT	ENDS
;	COMDAT text$x
text$x	SEGMENT
__unwindfunclet$?GetTwoPointDrawingData@CTwoPointMoveTool@@ABE?AVCTwoPointDrawingData@@XZ$0:
  00000	8d 8d 5c ff ff
	ff		 lea	 ecx, DWORD PTR _szHelpMsg$[ebp]
  00006	e9 00 00 00 00	 jmp	 ??1ILPCSTR133101@@QAE@XZ ; ILPCSTR133101::~ILPCSTR133101
__unwindfunclet$?GetTwoPointDrawingData@CTwoPointMoveTool@@ABE?AVCTwoPointDrawingData@@XZ$1:
  0000b	8d 8d 64 ff ff
	ff		 lea	 ecx, DWORD PTR _strDataType$[ebp]
  00011	ff 25 00 00 00
	00		 jmp	 DWORD PTR __imp_??1?$CStringT@DV?$StrTraitMFC_DLL@DV?$ChTraitsCRT@D@ATL@@@@@ATL@@QAE@XZ
__unwindfunclet$?GetTwoPointDrawingData@CTwoPointMoveTool@@ABE?AVCTwoPointDrawingData@@XZ$2:
  00017	8d 8d 54 ff ff
	ff		 lea	 ecx, DWORD PTR _strPacketType$[ebp]
  0001d	ff 25 00 00 00
	00		 jmp	 DWORD PTR __imp_??1?$CStringT@DV?$StrTraitMFC_DLL@DV?$ChTraitsCRT@D@ATL@@@@@ATL@@QAE@XZ
__unwindfunclet$?GetTwoPointDrawingData@CTwoPointMoveTool@@ABE?AVCTwoPointDrawingData@@XZ$3:
  00023	8d 4d c8	 lea	 ecx, DWORD PTR $T14[ebp]
  00026	e9 00 00 00 00	 jmp	 ??1CPoints@@QAE@XZ
__unwindfunclet$?GetTwoPointDrawingData@CTwoPointMoveTool@@ABE?AVCTwoPointDrawingData@@XZ$4:
  0002b	8d 8d 68 ff ff
	ff		 lea	 ecx, DWORD PTR _calData$[ebp]
  00031	e9 00 00 00 00	 jmp	 ??1CCoordinateCalculatorData@@QAE@XZ ; CCoordinateCalculatorData::~CCoordinateCalculatorData
__unwindfunclet$?GetTwoPointDrawingData@CTwoPointMoveTool@@ABE?AVCTwoPointDrawingData@@XZ$5:
  00036	8d 8d 3c ff ff
	ff		 lea	 ecx, DWORD PTR _szRQ$[ebp]
  0003c	e9 00 00 00 00	 jmp	 ??1ILPCSTR133101@@QAE@XZ ; ILPCSTR133101::~ILPCSTR133101
__unwindfunclet$?GetTwoPointDrawingData@CTwoPointMoveTool@@ABE?AVCTwoPointDrawingData@@XZ$6:
  00041	8d 8d b4 fd ff
	ff		 lea	 ecx, DWORD PTR $T3[ebp]
  00047	e9 00 00 00 00	 jmp	 ??1CElementCommonEnvironment@@QAE@XZ
__unwindfunclet$?GetTwoPointDrawingData@CTwoPointMoveTool@@ABE?AVCTwoPointDrawingData@@XZ$7:
  0004c	8d 8d 8c fd ff
	ff		 lea	 ecx, DWORD PTR $T2[ebp]
  00052	e9 00 00 00 00	 jmp	 ??1CPoints@@QAE@XZ
__unwindfunclet$?GetTwoPointDrawingData@CTwoPointMoveTool@@ABE?AVCTwoPointDrawingData@@XZ$8:
  00057	8d 8d d4 fe ff
	ff		 lea	 ecx, DWORD PTR $T7[ebp]
  0005d	e9 00 00 00 00	 jmp	 ??1CPoints@@QAE@XZ
__unwindfunclet$?GetTwoPointDrawingData@CTwoPointMoveTool@@ABE?AVCTwoPointDrawingData@@XZ$9:
  00062	8d 8d fc fe ff
	ff		 lea	 ecx, DWORD PTR $T8[ebp]
  00068	e9 00 00 00 00	 jmp	 ??1CPoints@@QAE@XZ
__unwindfunclet$?GetTwoPointDrawingData@CTwoPointMoveTool@@ABE?AVCTwoPointDrawingData@@XZ$10:
  0006d	8d 8d fc fd ff
	ff		 lea	 ecx, DWORD PTR $T4[ebp]
  00073	e9 00 00 00 00	 jmp	 ??1CElementCommonEnvironment@@QAE@XZ
__unwindfunclet$?GetTwoPointDrawingData@CTwoPointMoveTool@@ABE?AVCTwoPointDrawingData@@XZ$11:
  00078	8d 8d 44 fe ff
	ff		 lea	 ecx, DWORD PTR $T5[ebp]
  0007e	e9 00 00 00 00	 jmp	 ??1CElementCommonEnvironment@@QAE@XZ
__unwindfunclet$?GetTwoPointDrawingData@CTwoPointMoveTool@@ABE?AVCTwoPointDrawingData@@XZ$12:
  00083	8d 8d 8c fe ff
	ff		 lea	 ecx, DWORD PTR $T6[ebp]
  00089	e9 00 00 00 00	 jmp	 ??1CElementCommonEnvironment@@QAE@XZ
  0008e	cc		 int	 3
  0008f	cc		 int	 3
  00090	cc		 int	 3
  00091	cc		 int	 3
  00092	cc		 int	 3
__ehhandler$?GetTwoPointDrawingData@CTwoPointMoveTool@@ABE?AVCTwoPointDrawingData@@XZ:
  00093	90		 npad	 1
  00094	90		 npad	 1
  00095	8b 54 24 08	 mov	 edx, DWORD PTR [esp+8]
  00099	8d 42 0c	 lea	 eax, DWORD PTR [edx+12]
  0009c	8b 8a 88 fd ff
	ff		 mov	 ecx, DWORD PTR [edx-632]
  000a2	33 c8		 xor	 ecx, eax
  000a4	e8 00 00 00 00	 call	 @__security_check_cookie@4
  000a9	8b 4a fc	 mov	 ecx, DWORD PTR [edx-4]
  000ac	33 c8		 xor	 ecx, eax
  000ae	e8 00 00 00 00	 call	 @__security_check_cookie@4
  000b3	b8 00 00 00 00	 mov	 eax, OFFSET __ehfuncinfo$?GetTwoPointDrawingData@CTwoPointMoveTool@@ABE?AVCTwoPointDrawingData@@XZ
  000b8	e9 00 00 00 00	 jmp	 ___CxxFrameHandler3
text$x	ENDS
?GetTwoPointDrawingData@CTwoPointMoveTool@@ABE?AVCTwoPointDrawingData@@XZ ENDP ; CTwoPointMoveTool::GetTwoPointDrawingData
; Function compile flags: /Ogtp
; File D:\git\src\IBK\IBK_DRFN\ProjSrc\SrcChartEx\ChartAddIn\ChartAnalysisToolAddIn\AnalysisTool\PointTool.cpp
;	COMDAT ?GetPoint_Y@CTwoPointMoveTool@@IBEHABVCPoint@@HH@Z
_TEXT	SEGMENT
_orgPoint$ = 8						; size = 4
_x2$ = 12						; size = 4
_nAngle$ = 16						; size = 4
?GetPoint_Y@CTwoPointMoveTool@@IBEHABVCPoint@@HH@Z PROC	; CTwoPointMoveTool::GetPoint_Y, COMDAT
; _this$ = ecx

; 319  : {

  00000	55		 push	 ebp
  00001	8b ec		 mov	 ebp, esp

; 320  : 	int nTan = CMath::TanI(nAngle);

  00003	ff 75 10	 push	 DWORD PTR _nAngle$[ebp]
  00006	e8 00 00 00 00	 call	 ?TanI@CMath@@SAHH@Z	; CMath::TanI
  0000b	8b d0		 mov	 edx, eax
  0000d	83 c4 04	 add	 esp, 4
  00010	8b 45 08	 mov	 eax, DWORD PTR _orgPoint$[ebp]

; 321  : 	if(nTan == 0)

  00013	85 d2		 test	 edx, edx
  00015	75 07		 jne	 SHORT $LN2@GetPoint_Y

; 322  : 		return orgPoint.y;

  00017	8b 40 04	 mov	 eax, DWORD PTR [eax+4]

; 325  : }

  0001a	5d		 pop	 ebp
  0001b	c2 0c 00	 ret	 12			; 0000000cH
$LN2@GetPoint_Y:

; 323  : 
; 324  : 	return (-nTan * (x2 - orgPoint.x) + orgPoint.y);

  0001e	8b 4d 0c	 mov	 ecx, DWORD PTR _x2$[ebp]
  00021	2b 08		 sub	 ecx, DWORD PTR [eax]
  00023	8b 40 04	 mov	 eax, DWORD PTR [eax+4]
  00026	0f af ca	 imul	 ecx, edx
  00029	2b c1		 sub	 eax, ecx

; 325  : }

  0002b	5d		 pop	 ebp
  0002c	c2 0c 00	 ret	 12			; 0000000cH
?GetPoint_Y@CTwoPointMoveTool@@IBEHABVCPoint@@HH@Z ENDP	; CTwoPointMoveTool::GetPoint_Y
_TEXT	ENDS
; Function compile flags: /Ogtp
; File D:\git\src\IBK\IBK_DRFN\ProjSrc\SrcChartEx\ChartAddIn\ChartAnalysisToolAddIn\AnalysisTool\PointTool.cpp
;	COMDAT ?GetPoint_X@CTwoPointMoveTool@@IBEHABVCRegion@@ABVCPoint@@H@Z
_TEXT	SEGMENT
_region$ = 8						; size = 4
_point$ = 12						; size = 4
_nGap$ = 16						; size = 4
?GetPoint_X@CTwoPointMoveTool@@IBEHABVCRegion@@ABVCPoint@@H@Z PROC ; CTwoPointMoveTool::GetPoint_X, COMDAT
; _this$ = ecx

; 311  : {

  00000	55		 push	 ebp
  00001	8b ec		 mov	 ebp, esp
  00003	57		 push	 edi

; 312  : 	CCoordinateCalculator& coordinateCalculator = CTool::GetCoordinateCalculator();

  00004	e8 00 00 00 00	 call	 ?GetCoordinateCalculator@CTool@@UBEAAVCCoordinateCalculator@@XZ ; CTool::GetCoordinateCalculator

; 313  : 	int currentDataIndex = coordinateCalculator.GetCurrentDataIndex(region, point);

  00009	ff 75 0c	 push	 DWORD PTR _point$[ebp]
  0000c	8b f8		 mov	 edi, eax
  0000e	ff 75 08	 push	 DWORD PTR _region$[ebp]
  00011	8b cf		 mov	 ecx, edi
  00013	e8 00 00 00 00	 call	 ?GetCurrentDataIndex@CCoordinateCalculator@@QBEHABVCRegion@@ABVCPoint@@@Z ; CCoordinateCalculator::GetCurrentDataIndex

; 314  : 	return coordinateCalculator.GetDrawingPoint_X(region, currentDataIndex +nGap);

  00018	8b 4d 10	 mov	 ecx, DWORD PTR _nGap$[ebp]
  0001b	03 c8		 add	 ecx, eax
  0001d	51		 push	 ecx
  0001e	ff 75 08	 push	 DWORD PTR _region$[ebp]
  00021	8b cf		 mov	 ecx, edi
  00023	e8 00 00 00 00	 call	 ?GetDrawingPoint_X@CCoordinateCalculator@@QBEHABVCRegion@@H@Z ; CCoordinateCalculator::GetDrawingPoint_X
  00028	5f		 pop	 edi

; 315  : }

  00029	5d		 pop	 ebp
  0002a	c2 0c 00	 ret	 12			; 0000000cH
?GetPoint_X@CTwoPointMoveTool@@IBEHABVCRegion@@ABVCPoint@@H@Z ENDP ; CTwoPointMoveTool::GetPoint_X
_TEXT	ENDS
; Function compile flags: /Ogtp
; File D:\git\src\IBK\IBK_DRFN\ProjSrc\SrcChartEx\ChartAddIn\ChartAnalysisToolAddIn\AnalysisTool\PointTool.cpp
;	COMDAT ?GetSavingPoint@CTwoPointMoveTool@@IBE?AVCCoordinate@@ABVCPoint@@0@Z
_TEXT	SEGMENT
_regionPoint$GSCopy$1$ = -116				; size = 4
___$ReturnUdt$GSCopy$ = -116				; size = 4
_calData$ = -112					; size = 96
__$ArrayPad$ = -16					; size = 4
__$EHRec$ = -12						; size = 12
___$ReturnUdt$ = 8					; size = 4
_regionPoint$ = 12					; size = 4
_savingPoint$ = 16					; size = 4
?GetSavingPoint@CTwoPointMoveTool@@IBE?AVCCoordinate@@ABVCPoint@@0@Z PROC ; CTwoPointMoveTool::GetSavingPoint, COMDAT
; _this$ = ecx

; 301  : {

  00000	55		 push	 ebp
  00001	8b ec		 mov	 ebp, esp
  00003	6a ff		 push	 -1
  00005	68 00 00 00 00	 push	 __ehhandler$?GetSavingPoint@CTwoPointMoveTool@@IBE?AVCCoordinate@@ABVCPoint@@0@Z
  0000a	64 a1 00 00 00
	00		 mov	 eax, DWORD PTR fs:0
  00010	50		 push	 eax
  00011	83 ec 68	 sub	 esp, 104		; 00000068H
  00014	a1 00 00 00 00	 mov	 eax, DWORD PTR ___security_cookie
  00019	33 c5		 xor	 eax, ebp
  0001b	89 45 f0	 mov	 DWORD PTR __$ArrayPad$[ebp], eax
  0001e	53		 push	 ebx
  0001f	56		 push	 esi
  00020	57		 push	 edi
  00021	50		 push	 eax
  00022	8d 45 f4	 lea	 eax, DWORD PTR __$EHRec$[ebp]
  00025	64 a3 00 00 00
	00		 mov	 DWORD PTR fs:0, eax
  0002b	8b f9		 mov	 edi, ecx
  0002d	8b 75 08	 mov	 esi, DWORD PTR ___$ReturnUdt$[ebp]
  00030	8b 45 0c	 mov	 eax, DWORD PTR _regionPoint$[ebp]
  00033	8b 5d 10	 mov	 ebx, DWORD PTR _savingPoint$[ebp]
  00036	89 75 8c	 mov	 DWORD PTR ___$ReturnUdt$GSCopy$[ebp], esi
  00039	89 45 8c	 mov	 DWORD PTR _regionPoint$GSCopy$1$[ebp], eax

; 302  : 	if(!CTool::IsRelativePointType())

  0003c	e8 00 00 00 00	 call	 ?IsRelativePointType@CTool@@IBE_NXZ ; CTool::IsRelativePointType
  00041	84 c0		 test	 al, al
  00043	75 0a		 jne	 SHORT $LN2@GetSavingP

; 303  : 		return CCoordinate(savingPoint);

  00045	53		 push	 ebx
  00046	8b ce		 mov	 ecx, esi
  00048	e8 00 00 00 00	 call	 ??0CCoordinate@@QAE@ABVCPoint@@@Z ; CCoordinate::CCoordinate
  0004d	eb 31		 jmp	 SHORT $LN8@GetSavingP
$LN2@GetSavingP:

; 304  : 
; 305  : 	CCoordinateCalculatorData calData = CTool::GetCoordinateCalculatorData(regionPoint);

  0004f	ff 75 8c	 push	 DWORD PTR _regionPoint$GSCopy$1$[ebp]
  00052	8d 45 90	 lea	 eax, DWORD PTR _calData$[ebp]
  00055	8b cf		 mov	 ecx, edi
  00057	50		 push	 eax
  00058	e8 00 00 00 00	 call	 ?GetCoordinateCalculatorData@CTool@@QBE?AVCCoordinateCalculatorData@@ABVCPoint@@@Z ; CTool::GetCoordinateCalculatorData

; 306  : 	return CTool::GetCoordinateCalculator().AbsoluteToRelative(calData, savingPoint);

  0005d	53		 push	 ebx
  0005e	8d 45 90	 lea	 eax, DWORD PTR _calData$[ebp]
  00061	c7 45 fc 00 00
	00 00		 mov	 DWORD PTR __$EHRec$[ebp+8], 0
  00068	50		 push	 eax
  00069	56		 push	 esi
  0006a	8b cf		 mov	 ecx, edi
  0006c	e8 00 00 00 00	 call	 ?GetCoordinateCalculator@CTool@@UBEAAVCCoordinateCalculator@@XZ ; CTool::GetCoordinateCalculator
  00071	8b c8		 mov	 ecx, eax
  00073	e8 00 00 00 00	 call	 ?AbsoluteToRelative@CCoordinateCalculator@@QBE?AVCCoordinate@@ABVCCoordinateCalculatorData@@ABVCPoint@@@Z ; CCoordinateCalculator::AbsoluteToRelative
  00078	8d 4d 90	 lea	 ecx, DWORD PTR _calData$[ebp]
  0007b	e8 00 00 00 00	 call	 ??1CCoordinateCalculatorData@@QAE@XZ ; CCoordinateCalculatorData::~CCoordinateCalculatorData
$LN8@GetSavingP:

; 307  : }

  00080	8b c6		 mov	 eax, esi
  00082	8b 4d f4	 mov	 ecx, DWORD PTR __$EHRec$[ebp]
  00085	64 89 0d 00 00
	00 00		 mov	 DWORD PTR fs:0, ecx
  0008c	59		 pop	 ecx
  0008d	5f		 pop	 edi
  0008e	5e		 pop	 esi
  0008f	5b		 pop	 ebx
  00090	8b 4d f0	 mov	 ecx, DWORD PTR __$ArrayPad$[ebp]
  00093	33 cd		 xor	 ecx, ebp
  00095	e8 00 00 00 00	 call	 @__security_check_cookie@4
  0009a	8b e5		 mov	 esp, ebp
  0009c	5d		 pop	 ebp
  0009d	c2 0c 00	 ret	 12			; 0000000cH
_TEXT	ENDS
;	COMDAT text$x
text$x	SEGMENT
__unwindfunclet$?GetSavingPoint@CTwoPointMoveTool@@IBE?AVCCoordinate@@ABVCPoint@@0@Z$1:
  00000	8d 4d 90	 lea	 ecx, DWORD PTR _calData$[ebp]
  00003	e9 00 00 00 00	 jmp	 ??1CCoordinateCalculatorData@@QAE@XZ ; CCoordinateCalculatorData::~CCoordinateCalculatorData
  00008	cc		 int	 3
  00009	cc		 int	 3
  0000a	cc		 int	 3
  0000b	cc		 int	 3
  0000c	cc		 int	 3
__ehhandler$?GetSavingPoint@CTwoPointMoveTool@@IBE?AVCCoordinate@@ABVCPoint@@0@Z:
  0000d	90		 npad	 1
  0000e	90		 npad	 1
  0000f	8b 54 24 08	 mov	 edx, DWORD PTR [esp+8]
  00013	8d 42 0c	 lea	 eax, DWORD PTR [edx+12]
  00016	8b 4a 88	 mov	 ecx, DWORD PTR [edx-120]
  00019	33 c8		 xor	 ecx, eax
  0001b	e8 00 00 00 00	 call	 @__security_check_cookie@4
  00020	8b 4a fc	 mov	 ecx, DWORD PTR [edx-4]
  00023	33 c8		 xor	 ecx, eax
  00025	e8 00 00 00 00	 call	 @__security_check_cookie@4
  0002a	b8 00 00 00 00	 mov	 eax, OFFSET __ehfuncinfo$?GetSavingPoint@CTwoPointMoveTool@@IBE?AVCCoordinate@@ABVCPoint@@0@Z
  0002f	e9 00 00 00 00	 jmp	 ___CxxFrameHandler3
text$x	ENDS
?GetSavingPoint@CTwoPointMoveTool@@IBE?AVCCoordinate@@ABVCPoint@@0@Z ENDP ; CTwoPointMoveTool::GetSavingPoint
; Function compile flags: /Ogtp
; File D:\git\src\IBK\IBK_DRFN\ProjSrc\SrcChartEx\ChartAddIn\ChartAnalysisToolAddIn\AnalysisTool\PointTool.cpp
; File C:\Program Files (x86)\Microsoft Visual Studio\2019\Community\VC\Tools\MSVC\14.29.30133\atlmfc\include\atltypes.h
; File D:\git\src\IBK\IBK_DRFN\ProjSrc\SrcChartEx\ChartAddIn\ChartAnalysisToolAddIn\AnalysisTool\PointTool.cpp
; File C:\Program Files (x86)\Microsoft Visual Studio\2019\Community\VC\Tools\MSVC\14.29.30133\atlmfc\include\atltypes.h
; File D:\git\src\IBK\IBK_DRFN\ProjSrc\SrcChartEx\ChartAddIn\ChartAnalysisToolAddIn\AnalysisTool\PointTool.cpp
; File C:\Program Files (x86)\Microsoft Visual Studio\2019\Community\VC\Tools\MSVC\14.29.30133\atlmfc\include\atltypes.h
; File D:\git\src\IBK\IBK_DRFN\ProjSrc\SrcChartEx\ChartAddIn\ChartAnalysisToolAddIn\AnalysisTool\PointTool.cpp
; File C:\Program Files (x86)\Microsoft Visual Studio\2019\Community\VC\Tools\MSVC\14.29.30133\atlmfc\include\atltypes.h
; File D:\git\src\IBK\IBK_DRFN\ProjSrc\SrcChartEx\ChartAddIn\ChartAnalysisToolAddIn\AnalysisTool\PointTool.cpp
; File C:\Program Files (x86)\Microsoft Visual Studio\2019\Community\VC\Tools\MSVC\14.29.30133\atlmfc\include\atltypes.h
; File D:\git\src\IBK\IBK_DRFN\ProjSrc\SrcChartEx\ChartAddIn\ChartAnalysisToolAddIn\AnalysisTool\PointTool.cpp
;	COMDAT ?GetPoint@CTwoPointMoveTool@@IBE?AVCPoint@@ABVCRegion@@ABV2@HH@Z
_TEXT	SEGMENT
_this$1$ = -4						; size = 4
___$ReturnUdt$ = 8					; size = 4
_region$ = 12						; size = 4
_orgPoint$ = 16						; size = 4
_nAngle$ = 20						; size = 4
_nDataGap$ = 24						; size = 4
?GetPoint@CTwoPointMoveTool@@IBE?AVCPoint@@ABVCRegion@@ABV2@HH@Z PROC ; CTwoPointMoveTool::GetPoint, COMDAT
; _this$ = ecx

; 291  : {

  00000	55		 push	 ebp
  00001	8b ec		 mov	 ebp, esp
  00003	51		 push	 ecx
  00004	53		 push	 ebx
  00005	56		 push	 esi
  00006	8b c1		 mov	 eax, ecx
  00008	57		 push	 edi
  00009	89 45 fc	 mov	 DWORD PTR _this$1$[ebp], eax

; 312  : 	CCoordinateCalculator& coordinateCalculator = CTool::GetCoordinateCalculator();

  0000c	e8 00 00 00 00	 call	 ?GetCoordinateCalculator@CTool@@UBEAAVCCoordinateCalculator@@XZ ; CTool::GetCoordinateCalculator

; 313  : 	int currentDataIndex = coordinateCalculator.GetCurrentDataIndex(region, point);

  00011	8b 7d 10	 mov	 edi, DWORD PTR _orgPoint$[ebp]
  00014	8b f0		 mov	 esi, eax
  00016	8b 5d 0c	 mov	 ebx, DWORD PTR _region$[ebp]
  00019	8b ce		 mov	 ecx, esi
  0001b	57		 push	 edi
  0001c	53		 push	 ebx
  0001d	e8 00 00 00 00	 call	 ?GetCurrentDataIndex@CCoordinateCalculator@@QBEHABVCRegion@@ABVCPoint@@@Z ; CCoordinateCalculator::GetCurrentDataIndex

; 314  : 	return coordinateCalculator.GetDrawingPoint_X(region, currentDataIndex +nGap);

  00022	8b 4d 18	 mov	 ecx, DWORD PTR _nDataGap$[ebp]
  00025	03 c8		 add	 ecx, eax
  00027	51		 push	 ecx
  00028	53		 push	 ebx
  00029	8b ce		 mov	 ecx, esi
  0002b	e8 00 00 00 00	 call	 ?GetDrawingPoint_X@CCoordinateCalculator@@QBEHABVCRegion@@H@Z ; CCoordinateCalculator::GetDrawingPoint_X

; 292  : 	int x = CTwoPointMoveTool::GetPoint_X(region, orgPoint, nDataGap);

  00030	8b f0		 mov	 esi, eax

; 293  : 	if(x < 15)

  00032	83 fe 0f	 cmp	 esi, 15			; 0000000fH
  00035	7d 21		 jge	 SHORT $LN2@GetPoint

; 312  : 	CCoordinateCalculator& coordinateCalculator = CTool::GetCoordinateCalculator();

  00037	8b 4d fc	 mov	 ecx, DWORD PTR _this$1$[ebp]
  0003a	e8 00 00 00 00	 call	 ?GetCoordinateCalculator@CTool@@UBEAAVCCoordinateCalculator@@XZ ; CTool::GetCoordinateCalculator
  0003f	8b f0		 mov	 esi, eax

; 313  : 	int currentDataIndex = coordinateCalculator.GetCurrentDataIndex(region, point);

  00041	57		 push	 edi
  00042	53		 push	 ebx
  00043	8b ce		 mov	 ecx, esi
  00045	e8 00 00 00 00	 call	 ?GetCurrentDataIndex@CCoordinateCalculator@@QBEHABVCRegion@@ABVCPoint@@@Z ; CCoordinateCalculator::GetCurrentDataIndex

; 314  : 	return coordinateCalculator.GetDrawingPoint_X(region, currentDataIndex +nGap);

  0004a	83 c0 14	 add	 eax, 20			; 00000014H
  0004d	8b ce		 mov	 ecx, esi
  0004f	50		 push	 eax
  00050	53		 push	 ebx
  00051	e8 00 00 00 00	 call	 ?GetDrawingPoint_X@CCoordinateCalculator@@QBEHABVCRegion@@H@Z ; CCoordinateCalculator::GetDrawingPoint_X

; 294  : 		x = CTwoPointMoveTool::GetPoint_X(region, orgPoint, 20);

  00056	8b f0		 mov	 esi, eax
$LN2@GetPoint:

; 320  : 	int nTan = CMath::TanI(nAngle);

  00058	ff 75 14	 push	 DWORD PTR _nAngle$[ebp]
  0005b	e8 00 00 00 00	 call	 ?TanI@CMath@@SAHH@Z	; CMath::TanI
  00060	8b c8		 mov	 ecx, eax
  00062	83 c4 04	 add	 esp, 4

; 321  : 	if(nTan == 0)

  00065	85 c9		 test	 ecx, ecx
  00067	75 14		 jne	 SHORT $LN9@GetPoint
; File C:\Program Files (x86)\Microsoft Visual Studio\2019\Community\VC\Tools\MSVC\14.29.30133\atlmfc\include\atltypes.h

; 408  : 	x = initX;

  00069	8b 45 08	 mov	 eax, DWORD PTR ___$ReturnUdt$[ebp]
; File D:\git\src\IBK\IBK_DRFN\ProjSrc\SrcChartEx\ChartAddIn\ChartAnalysisToolAddIn\AnalysisTool\PointTool.cpp

; 322  : 		return orgPoint.y;

  0006c	8b 4f 04	 mov	 ecx, DWORD PTR [edi+4]

; 297  : 	return CPoint(x, y);

  0006f	5f		 pop	 edi
; File C:\Program Files (x86)\Microsoft Visual Studio\2019\Community\VC\Tools\MSVC\14.29.30133\atlmfc\include\atltypes.h

; 408  : 	x = initX;

  00070	89 30		 mov	 DWORD PTR [eax], esi
; File D:\git\src\IBK\IBK_DRFN\ProjSrc\SrcChartEx\ChartAddIn\ChartAnalysisToolAddIn\AnalysisTool\PointTool.cpp

; 297  : 	return CPoint(x, y);

  00072	5e		 pop	 esi
; File C:\Program Files (x86)\Microsoft Visual Studio\2019\Community\VC\Tools\MSVC\14.29.30133\atlmfc\include\atltypes.h

; 409  : 	y = initY;

  00073	89 48 04	 mov	 DWORD PTR [eax+4], ecx
; File D:\git\src\IBK\IBK_DRFN\ProjSrc\SrcChartEx\ChartAddIn\ChartAnalysisToolAddIn\AnalysisTool\PointTool.cpp

; 297  : 	return CPoint(x, y);

  00076	5b		 pop	 ebx

; 298  : }

  00077	8b e5		 mov	 esp, ebp
  00079	5d		 pop	 ebp
  0007a	c2 14 00	 ret	 20			; 00000014H
$LN9@GetPoint:

; 324  : 	return (-nTan * (x2 - orgPoint.x) + orgPoint.y);

  0007d	8b c6		 mov	 eax, esi
  0007f	2b 07		 sub	 eax, DWORD PTR [edi]
  00081	0f af c1	 imul	 eax, ecx
  00084	8b 4f 04	 mov	 ecx, DWORD PTR [edi+4]

; 297  : 	return CPoint(x, y);

  00087	5f		 pop	 edi

; 324  : 	return (-nTan * (x2 - orgPoint.x) + orgPoint.y);

  00088	2b c8		 sub	 ecx, eax
; File C:\Program Files (x86)\Microsoft Visual Studio\2019\Community\VC\Tools\MSVC\14.29.30133\atlmfc\include\atltypes.h

; 408  : 	x = initX;

  0008a	8b 45 08	 mov	 eax, DWORD PTR ___$ReturnUdt$[ebp]
  0008d	89 30		 mov	 DWORD PTR [eax], esi
; File D:\git\src\IBK\IBK_DRFN\ProjSrc\SrcChartEx\ChartAddIn\ChartAnalysisToolAddIn\AnalysisTool\PointTool.cpp

; 297  : 	return CPoint(x, y);

  0008f	5e		 pop	 esi
; File C:\Program Files (x86)\Microsoft Visual Studio\2019\Community\VC\Tools\MSVC\14.29.30133\atlmfc\include\atltypes.h

; 409  : 	y = initY;

  00090	89 48 04	 mov	 DWORD PTR [eax+4], ecx
; File D:\git\src\IBK\IBK_DRFN\ProjSrc\SrcChartEx\ChartAddIn\ChartAnalysisToolAddIn\AnalysisTool\PointTool.cpp

; 297  : 	return CPoint(x, y);

  00093	5b		 pop	 ebx

; 298  : }

  00094	8b e5		 mov	 esp, ebp
  00096	5d		 pop	 ebp
  00097	c2 14 00	 ret	 20			; 00000014H
?GetPoint@CTwoPointMoveTool@@IBE?AVCPoint@@ABVCRegion@@ABV2@HH@Z ENDP ; CTwoPointMoveTool::GetPoint
_TEXT	ENDS
; Function compile flags: /Ogtp
; File D:\git\src\IBK\IBK_DRFN\ProjSrc\SrcChartEx\ChartAddIn\ChartAnalysisToolAddIn\AnalysisTool\PointTool.cpp
; File C:\Program Files (x86)\Microsoft Visual Studio\2019\Community\VC\Tools\MSVC\14.29.30133\atlmfc\include\atltypes.h
; File D:\git\src\IBK\IBK_DRFN\ProjSrc\SrcChartEx\ChartAddIn\ChartAnalysisToolAddIn\AnalysisTool\PointTool.cpp
; File C:\Program Files (x86)\Microsoft Visual Studio\2019\Community\VC\Tools\MSVC\14.29.30133\atlmfc\include\atltypes.h
; File D:\git\src\IBK\IBK_DRFN\ProjSrc\SrcChartEx\ChartAddIn\ChartAnalysisToolAddIn\AnalysisTool\PointTool.cpp
;	COMDAT ?GetPoints@CTwoPointMoveTool@@IBE?AVCPoints@@ABVCPoint@@HH@Z
_TEXT	SEGMENT
$T2 = -208						; size = 32
$T3 = -176						; size = 8
___$ReturnUdt$GSCopy$1$ = -168				; size = 4
_drawingPt$ = -164					; size = 8
_region$1$ = -156					; size = 4
___$ReturnUdt$GSCopy$ = -156				; size = 4
_calData$4 = -152					; size = 96
$T5 = -56						; size = 24
$T6 = -32						; size = 16
__$ArrayPad$ = -16					; size = 4
__$EHRec$ = -12						; size = 12
___$ReturnUdt$ = 8					; size = 4
_orgPoint$ = 12						; size = 4
_nAngle$ = 16						; size = 4
_nDataGap$ = 20						; size = 4
?GetPoints@CTwoPointMoveTool@@IBE?AVCPoints@@ABVCPoint@@HH@Z PROC ; CTwoPointMoveTool::GetPoints, COMDAT
; _this$ = ecx

; 285  : {

  00000	55		 push	 ebp
  00001	8b ec		 mov	 ebp, esp
  00003	6a ff		 push	 -1
  00005	68 00 00 00 00	 push	 __ehhandler$?GetPoints@CTwoPointMoveTool@@IBE?AVCPoints@@ABVCPoint@@HH@Z
  0000a	64 a1 00 00 00
	00		 mov	 eax, DWORD PTR fs:0
  00010	50		 push	 eax
  00011	81 ec c4 00 00
	00		 sub	 esp, 196		; 000000c4H
  00017	a1 00 00 00 00	 mov	 eax, DWORD PTR ___security_cookie
  0001c	33 c5		 xor	 eax, ebp
  0001e	89 45 f0	 mov	 DWORD PTR __$ArrayPad$[ebp], eax
  00021	53		 push	 ebx
  00022	56		 push	 esi
  00023	57		 push	 edi
  00024	50		 push	 eax
  00025	8d 45 f4	 lea	 eax, DWORD PTR __$EHRec$[ebp]
  00028	64 a3 00 00 00
	00		 mov	 DWORD PTR fs:0, eax
  0002e	8b d9		 mov	 ebx, ecx
  00030	8b 45 08	 mov	 eax, DWORD PTR ___$ReturnUdt$[ebp]
  00033	8b 7d 0c	 mov	 edi, DWORD PTR _orgPoint$[ebp]
  00036	89 85 58 ff ff
	ff		 mov	 DWORD PTR ___$ReturnUdt$GSCopy$1$[ebp], eax
  0003c	89 85 64 ff ff
	ff		 mov	 DWORD PTR ___$ReturnUdt$GSCopy$[ebp], eax

; 286  : 	CPoint drawingPt = GetPoint(CRegion(CTool::GetDrawingRegions().GetCurrentFullGraphRegion(), CTool::GetDisplayAttributes()), orgPoint, nAngle, nDataGap);

  00042	8d 85 50 ff ff
	ff		 lea	 eax, DWORD PTR $T3[ebp]
  00048	50		 push	 eax
  00049	e8 00 00 00 00	 call	 ?GetDisplayAttributes@CTool@@IBE?AVCDisplayAttributes@@XZ ; CTool::GetDisplayAttributes
  0004e	50		 push	 eax
  0004f	8d 45 e0	 lea	 eax, DWORD PTR $T6[ebp]
  00052	8b cb		 mov	 ecx, ebx
  00054	50		 push	 eax
  00055	e8 00 00 00 00	 call	 ?GetDrawingRegions@CTool@@IBEABVCDrawingRegions@@XZ ; CTool::GetDrawingRegions
  0005a	8b c8		 mov	 ecx, eax
  0005c	e8 00 00 00 00	 call	 ?GetCurrentFullGraphRegion@CDrawingRegions@@QBE?AVCRect@@XZ ; CDrawingRegions::GetCurrentFullGraphRegion
  00061	50		 push	 eax
  00062	8d 4d c8	 lea	 ecx, DWORD PTR $T5[ebp]
  00065	e8 00 00 00 00	 call	 ??0CRegion@@QAE@ABVCRect@@ABVCDisplayAttributes@@@Z ; CRegion::CRegion

; 312  : 	CCoordinateCalculator& coordinateCalculator = CTool::GetCoordinateCalculator();

  0006a	8b cb		 mov	 ecx, ebx

; 286  : 	CPoint drawingPt = GetPoint(CRegion(CTool::GetDrawingRegions().GetCurrentFullGraphRegion(), CTool::GetDisplayAttributes()), orgPoint, nAngle, nDataGap);

  0006c	89 85 64 ff ff
	ff		 mov	 DWORD PTR _region$1$[ebp], eax

; 312  : 	CCoordinateCalculator& coordinateCalculator = CTool::GetCoordinateCalculator();

  00072	e8 00 00 00 00	 call	 ?GetCoordinateCalculator@CTool@@UBEAAVCCoordinateCalculator@@XZ ; CTool::GetCoordinateCalculator

; 313  : 	int currentDataIndex = coordinateCalculator.GetCurrentDataIndex(region, point);

  00077	57		 push	 edi
  00078	ff b5 64 ff ff
	ff		 push	 DWORD PTR _region$1$[ebp]
  0007e	8b f0		 mov	 esi, eax
  00080	8b ce		 mov	 ecx, esi
  00082	e8 00 00 00 00	 call	 ?GetCurrentDataIndex@CCoordinateCalculator@@QBEHABVCRegion@@ABVCPoint@@@Z ; CCoordinateCalculator::GetCurrentDataIndex
  00087	8b c8		 mov	 ecx, eax

; 314  : 	return coordinateCalculator.GetDrawingPoint_X(region, currentDataIndex +nGap);

  00089	8b 45 14	 mov	 eax, DWORD PTR _nDataGap$[ebp]
  0008c	03 c1		 add	 eax, ecx
  0008e	8b ce		 mov	 ecx, esi
  00090	50		 push	 eax
  00091	ff b5 64 ff ff
	ff		 push	 DWORD PTR _region$1$[ebp]
  00097	e8 00 00 00 00	 call	 ?GetDrawingPoint_X@CCoordinateCalculator@@QBEHABVCRegion@@H@Z ; CCoordinateCalculator::GetDrawingPoint_X

; 292  : 	int x = CTwoPointMoveTool::GetPoint_X(region, orgPoint, nDataGap);

  0009c	8b f0		 mov	 esi, eax

; 293  : 	if(x < 15)

  0009e	83 fe 0f	 cmp	 esi, 15			; 0000000fH
  000a1	7d 2a		 jge	 SHORT $LN7@GetPoints

; 312  : 	CCoordinateCalculator& coordinateCalculator = CTool::GetCoordinateCalculator();

  000a3	8b cb		 mov	 ecx, ebx
  000a5	e8 00 00 00 00	 call	 ?GetCoordinateCalculator@CTool@@UBEAAVCCoordinateCalculator@@XZ ; CTool::GetCoordinateCalculator

; 313  : 	int currentDataIndex = coordinateCalculator.GetCurrentDataIndex(region, point);

  000aa	57		 push	 edi
  000ab	ff b5 64 ff ff
	ff		 push	 DWORD PTR _region$1$[ebp]
  000b1	8b f0		 mov	 esi, eax
  000b3	8b ce		 mov	 ecx, esi
  000b5	e8 00 00 00 00	 call	 ?GetCurrentDataIndex@CCoordinateCalculator@@QBEHABVCRegion@@ABVCPoint@@@Z ; CCoordinateCalculator::GetCurrentDataIndex

; 314  : 	return coordinateCalculator.GetDrawingPoint_X(region, currentDataIndex +nGap);

  000ba	83 c0 14	 add	 eax, 20			; 00000014H
  000bd	8b ce		 mov	 ecx, esi
  000bf	50		 push	 eax
  000c0	ff b5 64 ff ff
	ff		 push	 DWORD PTR _region$1$[ebp]
  000c6	e8 00 00 00 00	 call	 ?GetDrawingPoint_X@CCoordinateCalculator@@QBEHABVCRegion@@H@Z ; CCoordinateCalculator::GetDrawingPoint_X

; 294  : 		x = CTwoPointMoveTool::GetPoint_X(region, orgPoint, 20);

  000cb	8b f0		 mov	 esi, eax
$LN7@GetPoints:

; 320  : 	int nTan = CMath::TanI(nAngle);

  000cd	ff 75 10	 push	 DWORD PTR _nAngle$[ebp]
  000d0	e8 00 00 00 00	 call	 ?TanI@CMath@@SAHH@Z	; CMath::TanI
  000d5	8b c8		 mov	 ecx, eax
  000d7	83 c4 04	 add	 esp, 4

; 321  : 	if(nTan == 0)

  000da	85 c9		 test	 ecx, ecx
  000dc	75 05		 jne	 SHORT $LN14@GetPoints

; 322  : 		return orgPoint.y;

  000de	8b 4f 04	 mov	 ecx, DWORD PTR [edi+4]
  000e1	eb 0c		 jmp	 SHORT $LN13@GetPoints
$LN14@GetPoints:

; 323  : 
; 324  : 	return (-nTan * (x2 - orgPoint.x) + orgPoint.y);

  000e3	8b c6		 mov	 eax, esi
  000e5	2b 07		 sub	 eax, DWORD PTR [edi]
  000e7	0f af c1	 imul	 eax, ecx
  000ea	8b 4f 04	 mov	 ecx, DWORD PTR [edi+4]
  000ed	2b c8		 sub	 ecx, eax
$LN13@GetPoints:
; File C:\Program Files (x86)\Microsoft Visual Studio\2019\Community\VC\Tools\MSVC\14.29.30133\atlmfc\include\atltypes.h

; 409  : 	y = initY;

  000ef	89 8d 60 ff ff
	ff		 mov	 DWORD PTR _drawingPt$[ebp+4], ecx
; File D:\git\src\IBK\IBK_DRFN\ProjSrc\SrcChartEx\ChartAddIn\ChartAnalysisToolAddIn\AnalysisTool\PointTool.cpp

; 302  : 	if(!CTool::IsRelativePointType())

  000f5	8b cb		 mov	 ecx, ebx
; File C:\Program Files (x86)\Microsoft Visual Studio\2019\Community\VC\Tools\MSVC\14.29.30133\atlmfc\include\atltypes.h

; 408  : 	x = initX;

  000f7	89 b5 5c ff ff
	ff		 mov	 DWORD PTR _drawingPt$[ebp], esi
; File D:\git\src\IBK\IBK_DRFN\ProjSrc\SrcChartEx\ChartAddIn\ChartAnalysisToolAddIn\AnalysisTool\PointTool.cpp

; 302  : 	if(!CTool::IsRelativePointType())

  000fd	e8 00 00 00 00	 call	 ?IsRelativePointType@CTool@@IBE_NXZ ; CTool::IsRelativePointType
  00102	84 c0		 test	 al, al
  00104	75 14		 jne	 SHORT $LN19@GetPoints

; 303  : 		return CCoordinate(savingPoint);

  00106	8d 85 5c ff ff
	ff		 lea	 eax, DWORD PTR _drawingPt$[ebp]
  0010c	50		 push	 eax
  0010d	8d 8d 30 ff ff
	ff		 lea	 ecx, DWORD PTR $T2[ebp]
  00113	e8 00 00 00 00	 call	 ??0CCoordinate@@QAE@ABVCPoint@@@Z ; CCoordinate::CCoordinate
  00118	eb 44		 jmp	 SHORT $LN18@GetPoints
$LN19@GetPoints:

; 304  : 
; 305  : 	CCoordinateCalculatorData calData = CTool::GetCoordinateCalculatorData(regionPoint);

  0011a	57		 push	 edi
  0011b	8d 85 68 ff ff
	ff		 lea	 eax, DWORD PTR _calData$4[ebp]
  00121	8b cb		 mov	 ecx, ebx
  00123	50		 push	 eax
  00124	e8 00 00 00 00	 call	 ?GetCoordinateCalculatorData@CTool@@QBE?AVCCoordinateCalculatorData@@ABVCPoint@@@Z ; CTool::GetCoordinateCalculatorData

; 306  : 	return CTool::GetCoordinateCalculator().AbsoluteToRelative(calData, savingPoint);

  00129	8d 85 5c ff ff
	ff		 lea	 eax, DWORD PTR _drawingPt$[ebp]
  0012f	c7 45 fc 00 00
	00 00		 mov	 DWORD PTR __$EHRec$[ebp+8], 0
  00136	50		 push	 eax
  00137	8d 85 68 ff ff
	ff		 lea	 eax, DWORD PTR _calData$4[ebp]
  0013d	8b cb		 mov	 ecx, ebx
  0013f	50		 push	 eax
  00140	8d 85 30 ff ff
	ff		 lea	 eax, DWORD PTR $T2[ebp]
  00146	50		 push	 eax
  00147	e8 00 00 00 00	 call	 ?GetCoordinateCalculator@CTool@@UBEAAVCCoordinateCalculator@@XZ ; CTool::GetCoordinateCalculator
  0014c	8b c8		 mov	 ecx, eax
  0014e	e8 00 00 00 00	 call	 ?AbsoluteToRelative@CCoordinateCalculator@@QBE?AVCCoordinate@@ABVCCoordinateCalculatorData@@ABVCPoint@@@Z ; CCoordinateCalculator::AbsoluteToRelative
  00153	8d 8d 68 ff ff
	ff		 lea	 ecx, DWORD PTR _calData$4[ebp]
  00159	e8 00 00 00 00	 call	 ??1CCoordinateCalculatorData@@QAE@XZ ; CCoordinateCalculatorData::~CCoordinateCalculatorData
$LN18@GetPoints:

; 287  : 	return CPoints(GetSavingPoint(orgPoint, drawingPt), drawingPt);

  0015e	8b 8d 58 ff ff
	ff		 mov	 ecx, DWORD PTR ___$ReturnUdt$GSCopy$1$[ebp]
  00164	8d 85 5c ff ff
	ff		 lea	 eax, DWORD PTR _drawingPt$[ebp]
  0016a	50		 push	 eax
  0016b	8d 85 30 ff ff
	ff		 lea	 eax, DWORD PTR $T2[ebp]
  00171	c7 45 fc 01 00
	00 00		 mov	 DWORD PTR __$EHRec$[ebp+8], 1
  00178	50		 push	 eax
  00179	e8 00 00 00 00	 call	 ??0CPoints@@QAE@ABVCCoordinate@@ABVCPoint@@@Z ; CPoints::CPoints
  0017e	8d 8d 44 ff ff
	ff		 lea	 ecx, DWORD PTR $T2[ebp+20]
  00184	ff 15 00 00 00
	00		 call	 DWORD PTR __imp_??1?$CStringT@DV?$StrTraitMFC_DLL@DV?$ChTraitsCRT@D@ATL@@@@@ATL@@QAE@XZ
  0018a	8b 85 58 ff ff
	ff		 mov	 eax, DWORD PTR ___$ReturnUdt$GSCopy$1$[ebp]

; 288  : }

  00190	8b 4d f4	 mov	 ecx, DWORD PTR __$EHRec$[ebp]
  00193	64 89 0d 00 00
	00 00		 mov	 DWORD PTR fs:0, ecx
  0019a	59		 pop	 ecx
  0019b	5f		 pop	 edi
  0019c	5e		 pop	 esi
  0019d	5b		 pop	 ebx
  0019e	8b 4d f0	 mov	 ecx, DWORD PTR __$ArrayPad$[ebp]
  001a1	33 cd		 xor	 ecx, ebp
  001a3	e8 00 00 00 00	 call	 @__security_check_cookie@4
  001a8	8b e5		 mov	 esp, ebp
  001aa	5d		 pop	 ebp
  001ab	c2 10 00	 ret	 16			; 00000010H
_TEXT	ENDS
;	COMDAT text$x
text$x	SEGMENT
__unwindfunclet$?GetPoints@CTwoPointMoveTool@@IBE?AVCPoints@@ABVCPoint@@HH@Z$3:
  00000	8d 8d 68 ff ff
	ff		 lea	 ecx, DWORD PTR _calData$4[ebp]
  00006	e9 00 00 00 00	 jmp	 ??1CCoordinateCalculatorData@@QAE@XZ ; CCoordinateCalculatorData::~CCoordinateCalculatorData
__unwindfunclet$?GetPoints@CTwoPointMoveTool@@IBE?AVCPoints@@ABVCPoint@@HH@Z$0:
  0000b	8d 8d 30 ff ff
	ff		 lea	 ecx, DWORD PTR $T2[ebp]
  00011	e9 00 00 00 00	 jmp	 ??1CCoordinate@@QAE@XZ
  00016	cc		 int	 3
  00017	cc		 int	 3
  00018	cc		 int	 3
  00019	cc		 int	 3
  0001a	cc		 int	 3
__ehhandler$?GetPoints@CTwoPointMoveTool@@IBE?AVCPoints@@ABVCPoint@@HH@Z:
  0001b	90		 npad	 1
  0001c	90		 npad	 1
  0001d	8b 54 24 08	 mov	 edx, DWORD PTR [esp+8]
  00021	8d 42 0c	 lea	 eax, DWORD PTR [edx+12]
  00024	8b 8a 2c ff ff
	ff		 mov	 ecx, DWORD PTR [edx-212]
  0002a	33 c8		 xor	 ecx, eax
  0002c	e8 00 00 00 00	 call	 @__security_check_cookie@4
  00031	8b 4a fc	 mov	 ecx, DWORD PTR [edx-4]
  00034	33 c8		 xor	 ecx, eax
  00036	e8 00 00 00 00	 call	 @__security_check_cookie@4
  0003b	b8 00 00 00 00	 mov	 eax, OFFSET __ehfuncinfo$?GetPoints@CTwoPointMoveTool@@IBE?AVCPoints@@ABVCPoint@@HH@Z
  00040	e9 00 00 00 00	 jmp	 ___CxxFrameHandler3
text$x	ENDS
?GetPoints@CTwoPointMoveTool@@IBE?AVCPoints@@ABVCPoint@@HH@Z ENDP ; CTwoPointMoveTool::GetPoints
; Function compile flags: /Ogtp
; File D:\git\src\IBK\IBK_DRFN\ProjSrc\SrcChartEx\ChartAddIn\ChartAnalysisToolAddIn\AnalysisTool\PointTool.cpp
;	COMDAT ?MakeElement@CTwoPointMoveTool@@MAEPAVCElement@@ABVCElementCommonEnvironment@@@Z
_TEXT	SEGMENT
$T2 = -156						; size = 40
$T3 = -116						; size = 32
$T4 = -84						; size = 32
$T5 = -52						; size = 40
__$EHRec$ = -12						; size = 12
_environment$ = 8					; size = 4
?MakeElement@CTwoPointMoveTool@@MAEPAVCElement@@ABVCElementCommonEnvironment@@@Z PROC ; CTwoPointMoveTool::MakeElement, COMDAT
; _this$ = ecx

; 278  : {

  00000	55		 push	 ebp
  00001	8b ec		 mov	 ebp, esp
  00003	6a ff		 push	 -1
  00005	68 00 00 00 00	 push	 __ehhandler$?MakeElement@CTwoPointMoveTool@@MAEPAVCElement@@ABVCElementCommonEnvironment@@@Z
  0000a	64 a1 00 00 00
	00		 mov	 eax, DWORD PTR fs:0
  00010	50		 push	 eax
  00011	81 ec 90 00 00
	00		 sub	 esp, 144		; 00000090H
  00017	53		 push	 ebx
  00018	56		 push	 esi
  00019	57		 push	 edi
  0001a	a1 00 00 00 00	 mov	 eax, DWORD PTR ___security_cookie
  0001f	33 c5		 xor	 eax, ebp
  00021	50		 push	 eax
  00022	8d 45 f4	 lea	 eax, DWORD PTR __$EHRec$[ebp]
  00025	64 a3 00 00 00
	00		 mov	 DWORD PTR fs:0, eax
  0002b	8b d9		 mov	 ebx, ecx

; 279  : 	return CElementFactory::Make(GetToolType(), CMoveTool::GetPoints().GetSavingPoint(), 

  0002d	8b 03		 mov	 eax, DWORD PTR [ebx]
  0002f	8d 8d 64 ff ff
	ff		 lea	 ecx, DWORD PTR $T2[ebp]
  00035	51		 push	 ecx
  00036	8b cb		 mov	 ecx, ebx
  00038	ff 50 44	 call	 DWORD PTR [eax+68]
  0003b	8d 4d 8c	 lea	 ecx, DWORD PTR $T3[ebp]
  0003e	c7 45 fc 00 00
	00 00		 mov	 DWORD PTR __$EHRec$[ebp+8], 0
  00045	51		 push	 ecx
  00046	8b c8		 mov	 ecx, eax
  00048	e8 00 00 00 00	 call	 ?GetSavingPoint@CPoints@@QBE?AVCCoordinate@@XZ ; CPoints::GetSavingPoint
  0004d	8b f8		 mov	 edi, eax

; 153  : 	return m_points;

  0004f	8d b3 88 00 00
	00		 lea	 esi, DWORD PTR [ebx+136]

; 279  : 	return CElementFactory::Make(GetToolType(), CMoveTool::GetPoints().GetSavingPoint(), 

  00055	c6 45 fc 01	 mov	 BYTE PTR __$EHRec$[ebp+8], 1
  00059	56		 push	 esi
  0005a	8d 4d cc	 lea	 ecx, DWORD PTR $T5[ebp]
  0005d	e8 00 00 00 00	 call	 ??0CCoordinate@@QAE@ABV0@@Z ; CCoordinate::CCoordinate
  00062	8b 4e 20	 mov	 ecx, DWORD PTR [esi+32]
  00065	8b 56 24	 mov	 edx, DWORD PTR [esi+36]
  00068	89 4d ec	 mov	 DWORD PTR $T5[ebp+32], ecx
  0006b	89 55 f0	 mov	 DWORD PTR $T5[ebp+36], edx
  0006e	8d 45 ac	 lea	 eax, DWORD PTR $T4[ebp]
  00071	c6 45 fc 02	 mov	 BYTE PTR __$EHRec$[ebp+8], 2
  00075	50		 push	 eax
  00076	8d 4d cc	 lea	 ecx, DWORD PTR $T5[ebp]
  00079	e8 00 00 00 00	 call	 ?GetSavingPoint@CPoints@@QBE?AVCCoordinate@@XZ ; CPoints::GetSavingPoint
  0007e	8b f0		 mov	 esi, eax
  00080	8b 13		 mov	 edx, DWORD PTR [ebx]
  00082	83 ec 08	 sub	 esp, 8
  00085	0f 57 c0	 xorps	 xmm0, xmm0
  00088	c6 45 fc 03	 mov	 BYTE PTR __$EHRec$[ebp+8], 3
  0008c	8b cb		 mov	 ecx, ebx
  0008e	f2 0f 11 04 24	 movsd	 QWORD PTR [esp], xmm0
  00093	ff 75 08	 push	 DWORD PTR _environment$[ebp]
  00096	ff 52 28	 call	 DWORD PTR [edx+40]
  00099	50		 push	 eax
  0009a	8b 03		 mov	 eax, DWORD PTR [ebx]
  0009c	8b cb		 mov	 ecx, ebx
  0009e	57		 push	 edi
  0009f	56		 push	 esi
  000a0	ff 50 24	 call	 DWORD PTR [eax+36]
  000a3	50		 push	 eax
  000a4	e8 00 00 00 00	 call	 ?Make@CElementFactory@@SAPAVCElement@@W4TOOLTYPE@CAnalysis@@ABVCCoordinate@@1PBVCTextPosition@@ABVCElementCommonEnvironment@@N@Z ; CElementFactory::Make
  000a9	83 c4 1c	 add	 esp, 28			; 0000001cH
  000ac	8d 4d c0	 lea	 ecx, DWORD PTR $T4[ebp+20]
  000af	8b f0		 mov	 esi, eax
  000b1	ff 15 00 00 00
	00		 call	 DWORD PTR __imp_??1?$CStringT@DV?$StrTraitMFC_DLL@DV?$ChTraitsCRT@D@ATL@@@@@ATL@@QAE@XZ
  000b7	8d 4d e0	 lea	 ecx, DWORD PTR $T5[ebp+20]
  000ba	ff 15 00 00 00
	00		 call	 DWORD PTR __imp_??1?$CStringT@DV?$StrTraitMFC_DLL@DV?$ChTraitsCRT@D@ATL@@@@@ATL@@QAE@XZ
  000c0	8d 4d a0	 lea	 ecx, DWORD PTR $T3[ebp+20]
  000c3	ff 15 00 00 00
	00		 call	 DWORD PTR __imp_??1?$CStringT@DV?$StrTraitMFC_DLL@DV?$ChTraitsCRT@D@ATL@@@@@ATL@@QAE@XZ
  000c9	8d 8d 78 ff ff
	ff		 lea	 ecx, DWORD PTR $T2[ebp+20]
  000cf	ff 15 00 00 00
	00		 call	 DWORD PTR __imp_??1?$CStringT@DV?$StrTraitMFC_DLL@DV?$ChTraitsCRT@D@ATL@@@@@ATL@@QAE@XZ
  000d5	8b c6		 mov	 eax, esi

; 280  : 		GetTwoPoints().GetSavingPoint(), GetTextPosition(), environment);
; 281  : }

  000d7	8b 4d f4	 mov	 ecx, DWORD PTR __$EHRec$[ebp]
  000da	64 89 0d 00 00
	00 00		 mov	 DWORD PTR fs:0, ecx
  000e1	59		 pop	 ecx
  000e2	5f		 pop	 edi
  000e3	5e		 pop	 esi
  000e4	5b		 pop	 ebx
  000e5	8b e5		 mov	 esp, ebp
  000e7	5d		 pop	 ebp
  000e8	c2 04 00	 ret	 4
_TEXT	ENDS
;	COMDAT text$x
text$x	SEGMENT
__unwindfunclet$?MakeElement@CTwoPointMoveTool@@MAEPAVCElement@@ABVCElementCommonEnvironment@@@Z$0:
  00000	8d 8d 64 ff ff
	ff		 lea	 ecx, DWORD PTR $T2[ebp]
  00006	e9 00 00 00 00	 jmp	 ??1CPoints@@QAE@XZ
__unwindfunclet$?MakeElement@CTwoPointMoveTool@@MAEPAVCElement@@ABVCElementCommonEnvironment@@@Z$1:
  0000b	8d 4d 8c	 lea	 ecx, DWORD PTR $T3[ebp]
  0000e	e9 00 00 00 00	 jmp	 ??1CCoordinate@@QAE@XZ
__unwindfunclet$?MakeElement@CTwoPointMoveTool@@MAEPAVCElement@@ABVCElementCommonEnvironment@@@Z$2:
  00013	8d 4d cc	 lea	 ecx, DWORD PTR $T5[ebp]
  00016	e9 00 00 00 00	 jmp	 ??1CPoints@@QAE@XZ
__unwindfunclet$?MakeElement@CTwoPointMoveTool@@MAEPAVCElement@@ABVCElementCommonEnvironment@@@Z$3:
  0001b	8d 4d ac	 lea	 ecx, DWORD PTR $T4[ebp]
  0001e	e9 00 00 00 00	 jmp	 ??1CCoordinate@@QAE@XZ
  00023	cc		 int	 3
  00024	cc		 int	 3
  00025	cc		 int	 3
  00026	cc		 int	 3
  00027	cc		 int	 3
__ehhandler$?MakeElement@CTwoPointMoveTool@@MAEPAVCElement@@ABVCElementCommonEnvironment@@@Z:
  00028	90		 npad	 1
  00029	90		 npad	 1
  0002a	8b 54 24 08	 mov	 edx, DWORD PTR [esp+8]
  0002e	8d 42 0c	 lea	 eax, DWORD PTR [edx+12]
  00031	8b 8a 60 ff ff
	ff		 mov	 ecx, DWORD PTR [edx-160]
  00037	33 c8		 xor	 ecx, eax
  00039	e8 00 00 00 00	 call	 @__security_check_cookie@4
  0003e	b8 00 00 00 00	 mov	 eax, OFFSET __ehfuncinfo$?MakeElement@CTwoPointMoveTool@@MAEPAVCElement@@ABVCElementCommonEnvironment@@@Z
  00043	e9 00 00 00 00	 jmp	 ___CxxFrameHandler3
text$x	ENDS
?MakeElement@CTwoPointMoveTool@@MAEPAVCElement@@ABVCElementCommonEnvironment@@@Z ENDP ; CTwoPointMoveTool::MakeElement
; Function compile flags: /Ogtp
; File D:\git\src\IBK\IBK_DRFN\ProjSrc\SrcChartEx\ChartAddIn\ChartAnalysisToolAddIn\AnalysisTool\PointTool.cpp
;	COMDAT ?DrawTool@CTwoPointMoveTool@@MAEXPAVCDC@@@Z
_TEXT	SEGMENT
$T2 = -216						; size = 200
__$ArrayPad$ = -16					; size = 4
__$EHRec$ = -12						; size = 12
_pDC$ = 8						; size = 4
?DrawTool@CTwoPointMoveTool@@MAEXPAVCDC@@@Z PROC	; CTwoPointMoveTool::DrawTool, COMDAT
; _this$ = ecx

; 273  : {

  00000	55		 push	 ebp
  00001	8b ec		 mov	 ebp, esp
  00003	6a ff		 push	 -1
  00005	68 00 00 00 00	 push	 __ehhandler$?DrawTool@CTwoPointMoveTool@@MAEXPAVCDC@@@Z
  0000a	64 a1 00 00 00
	00		 mov	 eax, DWORD PTR fs:0
  00010	50		 push	 eax
  00011	81 ec cc 00 00
	00		 sub	 esp, 204		; 000000ccH
  00017	a1 00 00 00 00	 mov	 eax, DWORD PTR ___security_cookie
  0001c	33 c5		 xor	 eax, ebp
  0001e	89 45 f0	 mov	 DWORD PTR __$ArrayPad$[ebp], eax
  00021	56		 push	 esi
  00022	57		 push	 edi
  00023	50		 push	 eax
  00024	8d 45 f4	 lea	 eax, DWORD PTR __$EHRec$[ebp]
  00027	64 a3 00 00 00
	00		 mov	 DWORD PTR fs:0, eax
  0002d	8b f9		 mov	 edi, ecx
  0002f	8b 75 08	 mov	 esi, DWORD PTR _pDC$[ebp]

; 274  : 	GetTwoPointDrawer().DrawTool(pDC, GetTwoPointDrawingData(), R2_NOT);

  00032	8d 85 28 ff ff
	ff		 lea	 eax, DWORD PTR $T2[ebp]
  00038	50		 push	 eax
  00039	e8 00 00 00 00	 call	 ?GetTwoPointDrawingData@CTwoPointMoveTool@@ABE?AVCTwoPointDrawingData@@XZ ; CTwoPointMoveTool::GetTwoPointDrawingData
  0003e	6a 06		 push	 6
  00040	50		 push	 eax
  00041	8b 07		 mov	 eax, DWORD PTR [edi]
  00043	8b cf		 mov	 ecx, edi
  00045	56		 push	 esi
  00046	c7 45 fc 00 00
	00 00		 mov	 DWORD PTR __$EHRec$[ebp+8], 0
  0004d	ff 50 40	 call	 DWORD PTR [eax+64]
  00050	8b c8		 mov	 ecx, eax
  00052	e8 00 00 00 00	 call	 ?DrawTool@CTwoPointDrawer@@QAEXPAVCDC@@ABVCTwoPointDrawingData@@H@Z ; CTwoPointDrawer::DrawTool
  00057	8d 4d dc	 lea	 ecx, DWORD PTR $T2[ebp+180]
  0005a	ff 15 00 00 00
	00		 call	 DWORD PTR __imp_??1?$CStringT@DV?$StrTraitMFC_DLL@DV?$ChTraitsCRT@D@ATL@@@@@ATL@@QAE@XZ
  00060	8d 4d b4	 lea	 ecx, DWORD PTR $T2[ebp+140]
  00063	ff 15 00 00 00
	00		 call	 DWORD PTR __imp_??1?$CStringT@DV?$StrTraitMFC_DLL@DV?$ChTraitsCRT@D@ATL@@@@@ATL@@QAE@XZ
  00069	8d 8d 48 ff ff
	ff		 lea	 ecx, DWORD PTR $T2[ebp+32]
  0006f	ff 15 00 00 00
	00		 call	 DWORD PTR __imp_??1?$CStringT@DV?$StrTraitMFC_DLL@DV?$ChTraitsCRT@D@ATL@@@@@ATL@@QAE@XZ
  00075	8d 8d 44 ff ff
	ff		 lea	 ecx, DWORD PTR $T2[ebp+28]
  0007b	ff 15 00 00 00
	00		 call	 DWORD PTR __imp_??1?$CStringT@DV?$StrTraitMFC_DLL@DV?$ChTraitsCRT@D@ATL@@@@@ATL@@QAE@XZ
  00081	8d 8d 40 ff ff
	ff		 lea	 ecx, DWORD PTR $T2[ebp+24]
  00087	ff 15 00 00 00
	00		 call	 DWORD PTR __imp_??1?$CStringT@DV?$StrTraitMFC_DLL@DV?$ChTraitsCRT@D@ATL@@@@@ATL@@QAE@XZ

; 275  : }

  0008d	8b 4d f4	 mov	 ecx, DWORD PTR __$EHRec$[ebp]
  00090	64 89 0d 00 00
	00 00		 mov	 DWORD PTR fs:0, ecx
  00097	59		 pop	 ecx
  00098	5f		 pop	 edi
  00099	5e		 pop	 esi
  0009a	8b 4d f0	 mov	 ecx, DWORD PTR __$ArrayPad$[ebp]
  0009d	33 cd		 xor	 ecx, ebp
  0009f	e8 00 00 00 00	 call	 @__security_check_cookie@4
  000a4	8b e5		 mov	 esp, ebp
  000a6	5d		 pop	 ebp
  000a7	c2 04 00	 ret	 4
_TEXT	ENDS
;	COMDAT text$x
text$x	SEGMENT
__unwindfunclet$?DrawTool@CTwoPointMoveTool@@MAEXPAVCDC@@@Z$0:
  00000	8d 8d 28 ff ff
	ff		 lea	 ecx, DWORD PTR $T2[ebp]
  00006	e9 00 00 00 00	 jmp	 ??1CTwoPointDrawingData@@QAE@XZ
  0000b	cc		 int	 3
  0000c	cc		 int	 3
  0000d	cc		 int	 3
  0000e	cc		 int	 3
  0000f	cc		 int	 3
__ehhandler$?DrawTool@CTwoPointMoveTool@@MAEXPAVCDC@@@Z:
  00010	90		 npad	 1
  00011	90		 npad	 1
  00012	8b 54 24 08	 mov	 edx, DWORD PTR [esp+8]
  00016	8d 42 0c	 lea	 eax, DWORD PTR [edx+12]
  00019	8b 8a 28 ff ff
	ff		 mov	 ecx, DWORD PTR [edx-216]
  0001f	33 c8		 xor	 ecx, eax
  00021	e8 00 00 00 00	 call	 @__security_check_cookie@4
  00026	8b 4a fc	 mov	 ecx, DWORD PTR [edx-4]
  00029	33 c8		 xor	 ecx, eax
  0002b	e8 00 00 00 00	 call	 @__security_check_cookie@4
  00030	b8 00 00 00 00	 mov	 eax, OFFSET __ehfuncinfo$?DrawTool@CTwoPointMoveTool@@MAEXPAVCDC@@@Z
  00035	e9 00 00 00 00	 jmp	 ___CxxFrameHandler3
text$x	ENDS
?DrawTool@CTwoPointMoveTool@@MAEXPAVCDC@@@Z ENDP	; CTwoPointMoveTool::DrawTool
; Function compile flags: /Ogtp
; File D:\git\src\IBK\IBK_DRFN\ProjSrc\SrcChartEx\ChartAddIn\ChartAnalysisToolAddIn\AnalysisTool\PointTool.cpp
;	COMDAT ??0CTwoPointMoveTool@@IAE@PAVCAnalysisData@@W4COORDINATETYPE@CAnalysis@@@Z
_TEXT	SEGMENT
_this$ = -4						; size = 4
_pAnalysisData$ = 8					; size = 4
_eCoordinateType$ = 12					; size = 4
??0CTwoPointMoveTool@@IAE@PAVCAnalysisData@@W4COORDINATETYPE@CAnalysis@@@Z PROC ; CTwoPointMoveTool::CTwoPointMoveTool, COMDAT
; _this$ = ecx

; 267  : {

  00000	55		 push	 ebp
  00001	8b ec		 mov	 ebp, esp
  00003	51		 push	 ecx
  00004	56		 push	 esi
  00005	ff 75 0c	 push	 DWORD PTR _eCoordinateType$[ebp]
  00008	8b f1		 mov	 esi, ecx
  0000a	ff 75 08	 push	 DWORD PTR _pAnalysisData$[ebp]
  0000d	89 75 fc	 mov	 DWORD PTR _this$[ebp], esi
  00010	e8 00 00 00 00	 call	 ??0CMoveTool@@IAE@PAVCAnalysisData@@W4COORDINATETYPE@CAnalysis@@@Z ; CMoveTool::CMoveTool
  00015	c7 06 00 00 00
	00		 mov	 DWORD PTR [esi], OFFSET ??_7CTwoPointMoveTool@@6B@

; 268  : }

  0001b	8b c6		 mov	 eax, esi
  0001d	5e		 pop	 esi
  0001e	8b e5		 mov	 esp, ebp
  00020	5d		 pop	 ebp
  00021	c2 08 00	 ret	 8
??0CTwoPointMoveTool@@IAE@PAVCAnalysisData@@W4COORDINATETYPE@CAnalysis@@@Z ENDP ; CTwoPointMoveTool::CTwoPointMoveTool
_TEXT	ENDS
; Function compile flags: /Ogtp
; File D:\git\src\IBK\IBK_DRFN\ProjSrc\SrcChartEx\ChartAddIn\ChartAnalysisToolAddIn\AnalysisTool\PointTool.cpp
; File D:\git\src\IBK\IBK_DRFN\ProjSrc\SrcChartEx\ChartAddIn\ChartAnalysisToolAddIn\Include_AddIn_133101\I133101\_IString.h
; File D:\git\src\IBK\IBK_DRFN\ProjSrc\SrcChartEx\ChartAddIn\ChartAnalysisToolAddIn\AnalysisTool\PointTool.cpp
; File D:\git\src\IBK\IBK_DRFN\ProjSrc\SrcChartEx\ChartAddIn\ChartAnalysisToolAddIn\Include_AddIn_133101\I133101\_IString.h
; File D:\git\src\IBK\IBK_DRFN\ProjSrc\SrcChartEx\ChartAddIn\ChartAnalysisToolAddIn\AnalysisTool\PointTool.cpp
; File D:\git\src\IBK\IBK_DRFN\ProjSrc\SrcChartEx\ChartAddIn\ChartAnalysisToolAddIn\Include_AddIn_133101\I133101\_IString.h
; File D:\git\src\IBK\IBK_DRFN\ProjSrc\SrcChartEx\ChartAddIn\ChartAnalysisToolAddIn\AnalysisTool\PointTool.cpp
; File D:\git\src\IBK\IBK_DRFN\ProjSrc\SrcChartEx\ChartAddIn\ChartAnalysisToolAddIn\Include_AddIn_133101\I133101\_IString.h
; File D:\git\src\IBK\IBK_DRFN\ProjSrc\SrcChartEx\ChartAddIn\ChartAnalysisToolAddIn\AnalysisTool\PointTool.cpp
;	COMDAT ?GetOnePointDrawingData@COnePointMoveTool@@ABE?AVCOnePointDrawingData@@XZ
_TEXT	SEGMENT
$T2 = -388						; size = 72
$T3 = -316						; size = 72
$T4 = -244						; size = 40
$T5 = -204						; size = 8
$T6 = -196						; size = 40
$T7 = -196						; size = 40
$T8 = -156						; size = 8
$T9 = -156						; size = 8
_szRQ$ = -148						; size = 8
___$ReturnUdt$GSCopy$1$ = -140				; size = 4
$T10 = -134						; size = 2
_this$GSCopy$1$ = -132					; size = 4
_szHelpMsg$ = -128					; size = 8
___$ReturnUdt$GSCopy$ = -120				; size = 4
_strPacketType$ = -120					; size = 4
_strDataType$ = -116					; size = 4
_calData$ = -112					; size = 96
__$ArrayPad$ = -16					; size = 4
__$EHRec$ = -12						; size = 12
___$ReturnUdt$ = 8					; size = 4
?GetOnePointDrawingData@COnePointMoveTool@@ABE?AVCOnePointDrawingData@@XZ PROC ; COnePointMoveTool::GetOnePointDrawingData, COMDAT
; _this$ = ecx

; 232  : {

  00000	55		 push	 ebp
  00001	8b ec		 mov	 ebp, esp
  00003	6a ff		 push	 -1
  00005	68 00 00 00 00	 push	 __ehhandler$?GetOnePointDrawingData@COnePointMoveTool@@ABE?AVCOnePointDrawingData@@XZ
  0000a	64 a1 00 00 00
	00		 mov	 eax, DWORD PTR fs:0
  00010	50		 push	 eax
  00011	81 ec 78 01 00
	00		 sub	 esp, 376		; 00000178H
  00017	a1 00 00 00 00	 mov	 eax, DWORD PTR ___security_cookie
  0001c	33 c5		 xor	 eax, ebp
  0001e	89 45 f0	 mov	 DWORD PTR __$ArrayPad$[ebp], eax
  00021	53		 push	 ebx
  00022	56		 push	 esi
  00023	57		 push	 edi
  00024	50		 push	 eax
  00025	8d 45 f4	 lea	 eax, DWORD PTR __$EHRec$[ebp]
  00028	64 a3 00 00 00
	00		 mov	 DWORD PTR fs:0, eax
  0002e	8b d9		 mov	 ebx, ecx
  00030	89 9d 7c ff ff
	ff		 mov	 DWORD PTR _this$GSCopy$1$[ebp], ebx
  00036	8b 45 08	 mov	 eax, DWORD PTR ___$ReturnUdt$[ebp]
  00039	89 45 88	 mov	 DWORD PTR ___$ReturnUdt$GSCopy$[ebp], eax
  0003c	89 85 74 ff ff
	ff		 mov	 DWORD PTR ___$ReturnUdt$GSCopy$1$[ebp], eax
; File D:\git\src\IBK\IBK_DRFN\ProjSrc\SrcChartEx\ChartAddIn\ChartAnalysisToolAddIn\Include_AddIn_133101\I133101\_IString.h

; 39   : 		m_pIStrData = p_pIString;	// Do not AddRef(). Because It must be Return Value.

  00042	c7 45 84 00 00
	00 00		 mov	 DWORD PTR _szHelpMsg$[ebp+4], 0

; 41   : 		else m_szData = NULL;

  00049	c7 45 80 00 00
	00 00		 mov	 DWORD PTR _szHelpMsg$[ebp], 0
; File D:\git\src\IBK\IBK_DRFN\ProjSrc\SrcChartEx\ChartAddIn\ChartAnalysisToolAddIn\AnalysisTool\PointTool.cpp

; 243  : 	CString strDataType, strPacketType;	

  00050	8d 4d 8c	 lea	 ecx, DWORD PTR _strDataType$[ebp]
  00053	c7 45 fc 00 00
	00 00		 mov	 DWORD PTR __$EHRec$[ebp+8], 0
  0005a	ff 15 00 00 00
	00		 call	 DWORD PTR __imp_??0?$CStringT@DV?$StrTraitMFC_DLL@DV?$ChTraitsCRT@D@ATL@@@@@ATL@@QAE@XZ
  00060	8d 4d 88	 lea	 ecx, DWORD PTR _strPacketType$[ebp]
  00063	ff 15 00 00 00
	00		 call	 DWORD PTR __imp_??0?$CStringT@DV?$StrTraitMFC_DLL@DV?$ChTraitsCRT@D@ATL@@@@@ATL@@QAE@XZ

; 153  : 	return m_points;

  00069	8d bb 88 00 00
	00		 lea	 edi, DWORD PTR [ebx+136]

; 243  : 	CString strDataType, strPacketType;	

  0006f	c6 45 fc 02	 mov	 BYTE PTR __$EHRec$[ebp+8], 2
  00073	57		 push	 edi
  00074	8d 8d 3c ff ff
	ff		 lea	 ecx, DWORD PTR $T7[ebp]
  0007a	e8 00 00 00 00	 call	 ??0CCoordinate@@QAE@ABV0@@Z ; CCoordinate::CCoordinate
  0007f	8b 47 20	 mov	 eax, DWORD PTR [edi+32]
  00082	8b 4f 24	 mov	 ecx, DWORD PTR [edi+36]
  00085	89 85 5c ff ff
	ff		 mov	 DWORD PTR $T7[ebp+32], eax
  0008b	89 8d 60 ff ff
	ff		 mov	 DWORD PTR $T7[ebp+36], ecx

; 244  : 	CCoordinateCalculatorData calData = GetCoordinateCalculatorData( CMoveTool::GetPoints().GetDrawingPoint());

  00091	8d 85 64 ff ff
	ff		 lea	 eax, DWORD PTR $T9[ebp]
  00097	c6 45 fc 03	 mov	 BYTE PTR __$EHRec$[ebp+8], 3
  0009b	50		 push	 eax
  0009c	8d 8d 3c ff ff
	ff		 lea	 ecx, DWORD PTR $T7[ebp]
  000a2	e8 00 00 00 00	 call	 ?GetDrawingPoint@CPoints@@QBE?AVCPoint@@XZ ; CPoints::GetDrawingPoint
  000a7	50		 push	 eax
  000a8	8d 45 90	 lea	 eax, DWORD PTR _calData$[ebp]
  000ab	8b cb		 mov	 ecx, ebx
  000ad	50		 push	 eax
  000ae	e8 00 00 00 00	 call	 ?GetCoordinateCalculatorData@CTool@@QBE?AVCCoordinateCalculatorData@@ABVCPoint@@@Z ; CTool::GetCoordinateCalculatorData
  000b3	8d 8d 50 ff ff
	ff		 lea	 ecx, DWORD PTR $T7[ebp+20]
  000b9	c6 45 fc 05	 mov	 BYTE PTR __$EHRec$[ebp+8], 5
  000bd	ff 15 00 00 00
	00		 call	 DWORD PTR __imp_??1?$CStringT@DV?$StrTraitMFC_DLL@DV?$ChTraitsCRT@D@ATL@@@@@ATL@@QAE@XZ

; 245  : 	ILPCSTR szRQ = calData.m_pIChartOCX->GetCurrentRQ();

  000c3	8b 4d dc	 mov	 ecx, DWORD PTR _calData$[ebp+76]
  000c6	8b 01		 mov	 eax, DWORD PTR [ecx]
  000c8	ff 90 40 02 00
	00		 call	 DWORD PTR [eax+576]
; File D:\git\src\IBK\IBK_DRFN\ProjSrc\SrcChartEx\ChartAddIn\ChartAnalysisToolAddIn\Include_AddIn_133101\I133101\_IString.h

; 39   : 		m_pIStrData = p_pIString;	// Do not AddRef(). Because It must be Return Value.

  000ce	8b c8		 mov	 ecx, eax
  000d0	89 8d 70 ff ff
	ff		 mov	 DWORD PTR _szRQ$[ebp+4], ecx

; 40   : 		if( m_pIStrData) m_szData = m_pIStrData->GetData();

  000d6	85 c9		 test	 ecx, ecx
  000d8	74 09		 je	 SHORT $LN33@GetOnePoin
  000da	8b 01		 mov	 eax, DWORD PTR [ecx]
  000dc	ff 50 10	 call	 DWORD PTR [eax+16]
  000df	8b d0		 mov	 edx, eax
  000e1	eb 02		 jmp	 SHORT $LN86@GetOnePoin
$LN33@GetOnePoin:

; 41   : 		else m_szData = NULL;

  000e3	33 d2		 xor	 edx, edx
$LN86@GetOnePoin:
; File D:\git\src\IBK\IBK_DRFN\ProjSrc\SrcChartEx\ChartAddIn\ChartAnalysisToolAddIn\AnalysisTool\PointTool.cpp

; 245  : 	ILPCSTR szRQ = calData.m_pIChartOCX->GetCurrentRQ();

  000e5	89 95 6c ff ff
	ff		 mov	 DWORD PTR _szRQ$[ebp], edx

; 246  : 	IPacketManager * pCurPacketManager = calData.m_pIPacketListManager->GetPacketManager(szRQ);

  000eb	8b 4d e0	 mov	 ecx, DWORD PTR _calData$[ebp+80]
  000ee	52		 push	 edx
  000ef	c6 45 fc 06	 mov	 BYTE PTR __$EHRec$[ebp+8], 6
  000f3	8b 01		 mov	 eax, DWORD PTR [ecx]
  000f5	ff 50 10	 call	 DWORD PTR [eax+16]
  000f8	8b f0		 mov	 esi, eax

; 247  : 	pCurPacketManager->GetHelpMessageItem("UD", szHelpMsg); strDataType = szHelpMsg;

  000fa	8d 4d 80	 lea	 ecx, DWORD PTR _szHelpMsg$[ebp]
  000fd	51		 push	 ecx
  000fe	68 00 00 00 00	 push	 OFFSET ??_C@_02PONMEALH@UD@
  00103	8b ce		 mov	 ecx, esi
  00105	8b 06		 mov	 eax, DWORD PTR [esi]
  00107	ff 50 18	 call	 DWORD PTR [eax+24]
  0010a	ff 75 80	 push	 DWORD PTR _szHelpMsg$[ebp]
  0010d	8d 4d 8c	 lea	 ecx, DWORD PTR _strDataType$[ebp]
  00110	ff 15 00 00 00
	00		 call	 DWORD PTR __imp_??4?$CStringT@DV?$StrTraitMFC_DLL@DV?$ChTraitsCRT@D@ATL@@@@@ATL@@QAEAAV01@PBD@Z

; 248  : 	pCurPacketManager->GetHelpMessageItem("RDATET", szHelpMsg); strPacketType = szHelpMsg;

  00116	8b 06		 mov	 eax, DWORD PTR [esi]
  00118	8d 4d 80	 lea	 ecx, DWORD PTR _szHelpMsg$[ebp]
  0011b	51		 push	 ecx
  0011c	68 00 00 00 00	 push	 OFFSET ??_C@_06MLGKKOBC@RDATET@
  00121	8b ce		 mov	 ecx, esi
  00123	ff 50 18	 call	 DWORD PTR [eax+24]
  00126	ff 75 80	 push	 DWORD PTR _szHelpMsg$[ebp]
  00129	8d 4d 88	 lea	 ecx, DWORD PTR _strPacketType$[ebp]
  0012c	ff 15 00 00 00
	00		 call	 DWORD PTR __imp_??4?$CStringT@DV?$StrTraitMFC_DLL@DV?$ChTraitsCRT@D@ATL@@@@@ATL@@QAEAAV01@PBD@Z

; 249  : 	CScaleBaseData::HORZSCALEDRAWERTYPE eDateUnit = (CScaleBaseData::HORZSCALEDRAWERTYPE)atoi(strDataType);

  00132	ff 75 8c	 push	 DWORD PTR _strDataType$[ebp]
  00135	ff 15 00 00 00
	00		 call	 DWORD PTR __imp__atoi
  0013b	83 c4 04	 add	 esp, 4
  0013e	8d 8d 0c ff ff
	ff		 lea	 ecx, DWORD PTR $T4[ebp]
  00144	8b d8		 mov	 ebx, eax
  00146	57		 push	 edi
  00147	e8 00 00 00 00	 call	 ??0CCoordinate@@QAE@ABV0@@Z ; CCoordinate::CCoordinate
  0014c	8b 47 20	 mov	 eax, DWORD PTR [edi+32]
  0014f	8b 4f 24	 mov	 ecx, DWORD PTR [edi+36]
  00152	89 85 2c ff ff
	ff		 mov	 DWORD PTR $T4[ebp+32], eax
  00158	89 8d 30 ff ff
	ff		 mov	 DWORD PTR $T4[ebp+36], ecx

; 251  : 	return COnePointDrawingData(CTool::GetElementCommonEnvironment().GetDataType(), 

  0015e	57		 push	 edi
  0015f	8d 8d 3c ff ff
	ff		 lea	 ecx, DWORD PTR $T6[ebp]
  00165	c6 45 fc 07	 mov	 BYTE PTR __$EHRec$[ebp+8], 7
  00169	e8 00 00 00 00	 call	 ??0CCoordinate@@QAE@ABV0@@Z ; CCoordinate::CCoordinate
  0016e	8b 47 20	 mov	 eax, DWORD PTR [edi+32]
  00171	8b 4f 24	 mov	 ecx, DWORD PTR [edi+36]
  00174	89 85 5c ff ff
	ff		 mov	 DWORD PTR $T6[ebp+32], eax
  0017a	89 8d 60 ff ff
	ff		 mov	 DWORD PTR $T6[ebp+36], ecx
  00180	8b 8d 7c ff ff
	ff		 mov	 ecx, DWORD PTR _this$GSCopy$1$[ebp]
  00186	8d 85 7c fe ff
	ff		 lea	 eax, DWORD PTR $T2[ebp]
  0018c	50		 push	 eax
  0018d	c6 45 fc 08	 mov	 BYTE PTR __$EHRec$[ebp+8], 8
  00191	e8 00 00 00 00	 call	 ?GetElementCommonEnvironment@CTool@@IBE?AVCElementCommonEnvironment@@XZ ; CTool::GetElementCommonEnvironment
  00196	8b f0		 mov	 esi, eax
  00198	8b 8d 7c ff ff
	ff		 mov	 ecx, DWORD PTR _this$GSCopy$1$[ebp]
  0019e	8d 85 c4 fe ff
	ff		 lea	 eax, DWORD PTR $T3[ebp]
  001a4	50		 push	 eax
  001a5	c6 45 fc 09	 mov	 BYTE PTR __$EHRec$[ebp+8], 9
  001a9	e8 00 00 00 00	 call	 ?GetElementCommonEnvironment@CTool@@IBE?AVCElementCommonEnvironment@@XZ ; CTool::GetElementCommonEnvironment
  001ae	8b f8		 mov	 edi, eax
  001b0	53		 push	 ebx
  001b1	8d 85 0c ff ff
	ff		 lea	 eax, DWORD PTR $T4[ebp]
  001b7	c6 45 fc 0a	 mov	 BYTE PTR __$EHRec$[ebp+8], 10 ; 0000000aH
  001bb	50		 push	 eax
  001bc	8d 85 64 ff ff
	ff		 lea	 eax, DWORD PTR $T8[ebp]
  001c2	50		 push	 eax
  001c3	8d 8d 3c ff ff
	ff		 lea	 ecx, DWORD PTR $T6[ebp]
  001c9	e8 00 00 00 00	 call	 ?GetDrawingPoint@CPoints@@QBE?AVCPoint@@XZ ; CPoints::GetDrawingPoint
  001ce	8b 9d 7c ff ff
	ff		 mov	 ebx, DWORD PTR _this$GSCopy$1$[ebp]
  001d4	8b cb		 mov	 ecx, ebx
  001d6	50		 push	 eax
  001d7	8d 85 7a ff ff
	ff		 lea	 eax, DWORD PTR $T10[ebp]
  001dd	50		 push	 eax
  001de	e8 00 00 00 00	 call	 ?GetVertScaleType@CTool@@IBE?AVCVertScaleType@@ABVCPoint@@@Z ; CTool::GetVertScaleType
  001e3	50		 push	 eax
  001e4	8d 85 34 ff ff
	ff		 lea	 eax, DWORD PTR $T5[ebp]
  001ea	8b cb		 mov	 ecx, ebx
  001ec	50		 push	 eax
  001ed	e8 00 00 00 00	 call	 ?GetDisplayAttributes@CTool@@IBE?AVCDisplayAttributes@@XZ ; CTool::GetDisplayAttributes
  001f2	50		 push	 eax
  001f3	8b cb		 mov	 ecx, ebx
  001f5	e8 00 00 00 00	 call	 ?GetDrawingRegions@CTool@@IBEABVCDrawingRegions@@XZ ; CTool::GetDrawingRegions
  001fa	50		 push	 eax
  001fb	8b ce		 mov	 ecx, esi
  001fd	e8 00 00 00 00	 call	 ?GetLineExt@CElementCommonEnvironment@@QAEAAVCLineExtEnvironment@@XZ ; CElementCommonEnvironment::GetLineExt
  00202	50		 push	 eax
  00203	8b 03		 mov	 eax, DWORD PTR [ebx]
  00205	8b cb		 mov	 ecx, ebx
  00207	ff 50 2c	 call	 DWORD PTR [eax+44]
  0020a	50		 push	 eax
  0020b	8b cf		 mov	 ecx, edi
  0020d	e8 00 00 00 00	 call	 ?GetDataType@CElementCommonEnvironment@@QAEAAVCDataTypeEnvironment@@XZ ; CElementCommonEnvironment::GetDataType
  00212	8b b5 74 ff ff
	ff		 mov	 esi, DWORD PTR ___$ReturnUdt$GSCopy$1$[ebp]
  00218	8b ce		 mov	 ecx, esi
  0021a	50		 push	 eax
  0021b	e8 00 00 00 00	 call	 ??0COnePointDrawingData@@QAE@ABVCDataTypeEnvironment@@PAVCTextPosition@@PAVCLineExtEnvironment@@PBVCDrawingRegions@@ABVCDisplayAttributes@@ABVCVertScaleType@@ABVCPoints@@W4HORZSCALEDRAWERTYPE@CScaleBaseData@@@Z ; COnePointDrawingData::COnePointDrawingData
  00220	8d 8d fc fe ff
	ff		 lea	 ecx, DWORD PTR $T3[ebp+56]
  00226	ff 15 00 00 00
	00		 call	 DWORD PTR __imp_??1?$CStringT@DV?$StrTraitMFC_DLL@DV?$ChTraitsCRT@D@ATL@@@@@ATL@@QAE@XZ
  0022c	8d 8d f8 fe ff
	ff		 lea	 ecx, DWORD PTR $T3[ebp+52]
  00232	ff 15 00 00 00
	00		 call	 DWORD PTR __imp_??1?$CStringT@DV?$StrTraitMFC_DLL@DV?$ChTraitsCRT@D@ATL@@@@@ATL@@QAE@XZ
  00238	8d 8d f4 fe ff
	ff		 lea	 ecx, DWORD PTR $T3[ebp+48]
  0023e	ff 15 00 00 00
	00		 call	 DWORD PTR __imp_??1?$CStringT@DV?$StrTraitMFC_DLL@DV?$ChTraitsCRT@D@ATL@@@@@ATL@@QAE@XZ
  00244	8d 8d b4 fe ff
	ff		 lea	 ecx, DWORD PTR $T2[ebp+56]
  0024a	ff 15 00 00 00
	00		 call	 DWORD PTR __imp_??1?$CStringT@DV?$StrTraitMFC_DLL@DV?$ChTraitsCRT@D@ATL@@@@@ATL@@QAE@XZ
  00250	8d 8d b0 fe ff
	ff		 lea	 ecx, DWORD PTR $T2[ebp+52]
  00256	ff 15 00 00 00
	00		 call	 DWORD PTR __imp_??1?$CStringT@DV?$StrTraitMFC_DLL@DV?$ChTraitsCRT@D@ATL@@@@@ATL@@QAE@XZ
  0025c	8d 8d ac fe ff
	ff		 lea	 ecx, DWORD PTR $T2[ebp+48]
  00262	ff 15 00 00 00
	00		 call	 DWORD PTR __imp_??1?$CStringT@DV?$StrTraitMFC_DLL@DV?$ChTraitsCRT@D@ATL@@@@@ATL@@QAE@XZ
  00268	8d 8d 50 ff ff
	ff		 lea	 ecx, DWORD PTR $T6[ebp+20]
  0026e	ff 15 00 00 00
	00		 call	 DWORD PTR __imp_??1?$CStringT@DV?$StrTraitMFC_DLL@DV?$ChTraitsCRT@D@ATL@@@@@ATL@@QAE@XZ
  00274	8d 8d 20 ff ff
	ff		 lea	 ecx, DWORD PTR $T4[ebp+20]
  0027a	ff 15 00 00 00
	00		 call	 DWORD PTR __imp_??1?$CStringT@DV?$StrTraitMFC_DLL@DV?$ChTraitsCRT@D@ATL@@@@@ATL@@QAE@XZ
; File D:\git\src\IBK\IBK_DRFN\ProjSrc\SrcChartEx\ChartAddIn\ChartAnalysisToolAddIn\Include_AddIn_133101\I133101\_IString.h

; 45   : 		if( m_pIStrData)

  00280	8b 8d 70 ff ff
	ff		 mov	 ecx, DWORD PTR _szRQ$[ebp+4]
  00286	c6 45 fc 0b	 mov	 BYTE PTR __$EHRec$[ebp+8], 11 ; 0000000bH
  0028a	85 c9		 test	 ecx, ecx
  0028c	74 06		 je	 SHORT $LN77@GetOnePoin

; 46   : 		{
; 47   : 			m_pIStrData->Release();

  0028e	8b 01		 mov	 eax, DWORD PTR [ecx]
  00290	51		 push	 ecx
  00291	ff 50 08	 call	 DWORD PTR [eax+8]
$LN77@GetOnePoin:
; File D:\git\src\IBK\IBK_DRFN\ProjSrc\SrcChartEx\ChartAddIn\ChartAnalysisToolAddIn\AnalysisTool\PointTool.cpp

; 251  : 	return COnePointDrawingData(CTool::GetElementCommonEnvironment().GetDataType(), 

  00294	8d 4d 90	 lea	 ecx, DWORD PTR _calData$[ebp]
  00297	e8 00 00 00 00	 call	 ??1CCoordinateCalculatorData@@QAE@XZ ; CCoordinateCalculatorData::~CCoordinateCalculatorData
  0029c	8d 4d 88	 lea	 ecx, DWORD PTR _strPacketType$[ebp]
  0029f	ff 15 00 00 00
	00		 call	 DWORD PTR __imp_??1?$CStringT@DV?$StrTraitMFC_DLL@DV?$ChTraitsCRT@D@ATL@@@@@ATL@@QAE@XZ
  002a5	8d 4d 8c	 lea	 ecx, DWORD PTR _strDataType$[ebp]
  002a8	ff 15 00 00 00
	00		 call	 DWORD PTR __imp_??1?$CStringT@DV?$StrTraitMFC_DLL@DV?$ChTraitsCRT@D@ATL@@@@@ATL@@QAE@XZ
; File D:\git\src\IBK\IBK_DRFN\ProjSrc\SrcChartEx\ChartAddIn\ChartAnalysisToolAddIn\Include_AddIn_133101\I133101\_IString.h

; 45   : 		if( m_pIStrData)

  002ae	8b 55 84	 mov	 edx, DWORD PTR _szHelpMsg$[ebp+4]
  002b1	c7 45 fc 0c 00
	00 00		 mov	 DWORD PTR __$EHRec$[ebp+8], 12 ; 0000000cH
  002b8	85 d2		 test	 edx, edx
  002ba	74 06		 je	 SHORT $LN84@GetOnePoin

; 46   : 		{
; 47   : 			m_pIStrData->Release();

  002bc	8b 0a		 mov	 ecx, DWORD PTR [edx]
  002be	52		 push	 edx
  002bf	ff 51 08	 call	 DWORD PTR [ecx+8]
$LN84@GetOnePoin:
; File D:\git\src\IBK\IBK_DRFN\ProjSrc\SrcChartEx\ChartAddIn\ChartAnalysisToolAddIn\AnalysisTool\PointTool.cpp

; 260  : }

  002c2	8b c6		 mov	 eax, esi
  002c4	8b 4d f4	 mov	 ecx, DWORD PTR __$EHRec$[ebp]
  002c7	64 89 0d 00 00
	00 00		 mov	 DWORD PTR fs:0, ecx
  002ce	59		 pop	 ecx
  002cf	5f		 pop	 edi
  002d0	5e		 pop	 esi
  002d1	5b		 pop	 ebx
  002d2	8b 4d f0	 mov	 ecx, DWORD PTR __$ArrayPad$[ebp]
  002d5	33 cd		 xor	 ecx, ebp
  002d7	e8 00 00 00 00	 call	 @__security_check_cookie@4
  002dc	8b e5		 mov	 esp, ebp
  002de	5d		 pop	 ebp
  002df	c2 04 00	 ret	 4
_TEXT	ENDS
;	COMDAT text$x
text$x	SEGMENT
__unwindfunclet$?GetOnePointDrawingData@COnePointMoveTool@@ABE?AVCOnePointDrawingData@@XZ$0:
  00000	8d 4d 80	 lea	 ecx, DWORD PTR _szHelpMsg$[ebp]
  00003	e9 00 00 00 00	 jmp	 ??1ILPCSTR133101@@QAE@XZ ; ILPCSTR133101::~ILPCSTR133101
__unwindfunclet$?GetOnePointDrawingData@COnePointMoveTool@@ABE?AVCOnePointDrawingData@@XZ$1:
  00008	8d 4d 8c	 lea	 ecx, DWORD PTR _strDataType$[ebp]
  0000b	ff 25 00 00 00
	00		 jmp	 DWORD PTR __imp_??1?$CStringT@DV?$StrTraitMFC_DLL@DV?$ChTraitsCRT@D@ATL@@@@@ATL@@QAE@XZ
__unwindfunclet$?GetOnePointDrawingData@COnePointMoveTool@@ABE?AVCOnePointDrawingData@@XZ$2:
  00011	8d 4d 88	 lea	 ecx, DWORD PTR _strPacketType$[ebp]
  00014	ff 25 00 00 00
	00		 jmp	 DWORD PTR __imp_??1?$CStringT@DV?$StrTraitMFC_DLL@DV?$ChTraitsCRT@D@ATL@@@@@ATL@@QAE@XZ
__unwindfunclet$?GetOnePointDrawingData@COnePointMoveTool@@ABE?AVCOnePointDrawingData@@XZ$3:
  0001a	8d 8d 3c ff ff
	ff		 lea	 ecx, DWORD PTR $T7[ebp]
  00020	e9 00 00 00 00	 jmp	 ??1CPoints@@QAE@XZ
__unwindfunclet$?GetOnePointDrawingData@COnePointMoveTool@@ABE?AVCOnePointDrawingData@@XZ$4:
  00025	8d 4d 90	 lea	 ecx, DWORD PTR _calData$[ebp]
  00028	e9 00 00 00 00	 jmp	 ??1CCoordinateCalculatorData@@QAE@XZ ; CCoordinateCalculatorData::~CCoordinateCalculatorData
__unwindfunclet$?GetOnePointDrawingData@COnePointMoveTool@@ABE?AVCOnePointDrawingData@@XZ$5:
  0002d	8d 8d 6c ff ff
	ff		 lea	 ecx, DWORD PTR _szRQ$[ebp]
  00033	e9 00 00 00 00	 jmp	 ??1ILPCSTR133101@@QAE@XZ ; ILPCSTR133101::~ILPCSTR133101
__unwindfunclet$?GetOnePointDrawingData@COnePointMoveTool@@ABE?AVCOnePointDrawingData@@XZ$6:
  00038	8d 8d 0c ff ff
	ff		 lea	 ecx, DWORD PTR $T4[ebp]
  0003e	e9 00 00 00 00	 jmp	 ??1CPoints@@QAE@XZ
__unwindfunclet$?GetOnePointDrawingData@COnePointMoveTool@@ABE?AVCOnePointDrawingData@@XZ$7:
  00043	8d 8d 3c ff ff
	ff		 lea	 ecx, DWORD PTR $T6[ebp]
  00049	e9 00 00 00 00	 jmp	 ??1CPoints@@QAE@XZ
__unwindfunclet$?GetOnePointDrawingData@COnePointMoveTool@@ABE?AVCOnePointDrawingData@@XZ$8:
  0004e	8d 8d 7c fe ff
	ff		 lea	 ecx, DWORD PTR $T2[ebp]
  00054	e9 00 00 00 00	 jmp	 ??1CElementCommonEnvironment@@QAE@XZ
__unwindfunclet$?GetOnePointDrawingData@COnePointMoveTool@@ABE?AVCOnePointDrawingData@@XZ$9:
  00059	8d 8d c4 fe ff
	ff		 lea	 ecx, DWORD PTR $T3[ebp]
  0005f	e9 00 00 00 00	 jmp	 ??1CElementCommonEnvironment@@QAE@XZ
  00064	cc		 int	 3
  00065	cc		 int	 3
  00066	cc		 int	 3
  00067	cc		 int	 3
  00068	cc		 int	 3
__ehhandler$?GetOnePointDrawingData@COnePointMoveTool@@ABE?AVCOnePointDrawingData@@XZ:
  00069	90		 npad	 1
  0006a	90		 npad	 1
  0006b	8b 54 24 08	 mov	 edx, DWORD PTR [esp+8]
  0006f	8d 42 0c	 lea	 eax, DWORD PTR [edx+12]
  00072	8b 8a 78 fe ff
	ff		 mov	 ecx, DWORD PTR [edx-392]
  00078	33 c8		 xor	 ecx, eax
  0007a	e8 00 00 00 00	 call	 @__security_check_cookie@4
  0007f	8b 4a fc	 mov	 ecx, DWORD PTR [edx-4]
  00082	33 c8		 xor	 ecx, eax
  00084	e8 00 00 00 00	 call	 @__security_check_cookie@4
  00089	b8 00 00 00 00	 mov	 eax, OFFSET __ehfuncinfo$?GetOnePointDrawingData@COnePointMoveTool@@ABE?AVCOnePointDrawingData@@XZ
  0008e	e9 00 00 00 00	 jmp	 ___CxxFrameHandler3
text$x	ENDS
?GetOnePointDrawingData@COnePointMoveTool@@ABE?AVCOnePointDrawingData@@XZ ENDP ; COnePointMoveTool::GetOnePointDrawingData
; Function compile flags: /Ogtp
; File D:\git\src\IBK\IBK_DRFN\ProjSrc\SrcChartEx\ChartAddIn\ChartAnalysisToolAddIn\AnalysisTool\PointTool.cpp
; File D:\git\src\IBK\IBK_DRFN\ProjSrc\SrcChartEx\ChartAddIn\ChartAnalysisToolAddIn\Include_Analysis\CoordinateCalculatorData.h
; File D:\git\src\IBK\IBK_DRFN\ProjSrc\SrcChartEx\ChartAddIn\ChartAnalysisToolAddIn\AnalysisTool\PointTool.cpp
; File D:\git\src\IBK\IBK_DRFN\ProjSrc\SrcChartEx\ChartAddIn\ChartAnalysisToolAddIn\Include_AddIn_133101\I133101\_IString.h
; File D:\git\src\IBK\IBK_DRFN\ProjSrc\SrcChartEx\ChartAddIn\ChartAnalysisToolAddIn\AnalysisTool\PointTool.cpp
; File D:\git\src\IBK\IBK_DRFN\ProjSrc\SrcChartEx\ChartAddIn\ChartAnalysisToolAddIn\Include_AddIn_133101\I133101\_IString.h
; File D:\git\src\IBK\IBK_DRFN\ProjSrc\SrcChartEx\ChartAddIn\ChartAnalysisToolAddIn\AnalysisTool\PointTool.cpp
; File D:\git\src\IBK\IBK_DRFN\ProjSrc\SrcChartEx\ChartAddIn\ChartAnalysisToolAddIn\Include_AddIn_133101\I133101\_IString.h
; File D:\git\src\IBK\IBK_DRFN\ProjSrc\SrcChartEx\ChartAddIn\ChartAnalysisToolAddIn\AnalysisTool\PointTool.cpp
; File D:\git\src\IBK\IBK_DRFN\ProjSrc\SrcChartEx\ChartAddIn\ChartAnalysisToolAddIn\Include_AddIn_133101\I133101\_IString.h
; File D:\git\src\IBK\IBK_DRFN\ProjSrc\SrcChartEx\ChartAddIn\ChartAnalysisToolAddIn\AnalysisTool\PointTool.cpp
; File D:\git\src\IBK\IBK_DRFN\ProjSrc\SrcChartEx\ChartAddIn\ChartAnalysisToolAddIn\Include_AddIn_133101\I133101\_IString.h
; File D:\git\src\IBK\IBK_DRFN\ProjSrc\SrcChartEx\ChartAddIn\ChartAnalysisToolAddIn\AnalysisTool\PointTool.cpp
; File D:\git\src\IBK\IBK_DRFN\ProjSrc\SrcChartEx\ChartAddIn\ChartAnalysisToolAddIn\Include_AddIn_133101\I133101\_IString.h
; File D:\git\src\IBK\IBK_DRFN\ProjSrc\SrcChartEx\ChartAddIn\ChartAnalysisToolAddIn\AnalysisTool\PointTool.cpp
;	COMDAT ?MakeElement@COnePointMoveTool@@MAEPAVCElement@@ABVCElementCommonEnvironment@@@Z
_TEXT	SEGMENT
$T2 = -304						; size = 40
_coordValue$ = -264					; size = 32
$T3 = -232						; size = 8
$T4 = -224						; size = 40
$T5 = -224						; size = 40
_dOpenYValue$6 = -184					; size = 8
_dCloseYValue$7 = -176					; size = 8
_szGraphName$8 = -168					; size = 8
_environment$GSCopy$1$ = -160				; size = 4
_this$GSCopy$1$ = -156					; size = 4
_nV$9 = -152						; size = 4
_nG$10 = -148						; size = 4
_nC$11 = -144						; size = 4
_nR$12 = -140						; size = 4
_dYValue$13 = -136					; size = 8
$T14 = -136						; size = 8
_bResult$1$ = -132					; size = 4
_pPacketClose$1$ = -128					; size = 4
_szRQ$15 = -124						; size = 8
___that$1$ = -116					; size = 4
_nIndex$1$ = -116					; size = 4
_calcData$ = -112					; size = 96
__$ArrayPad$ = -16					; size = 4
__$EHRec$ = -12						; size = 12
_environment$ = 8					; size = 4
?MakeElement@COnePointMoveTool@@MAEPAVCElement@@ABVCElementCommonEnvironment@@@Z PROC ; COnePointMoveTool::MakeElement, COMDAT
; _this$ = ecx

; 187  : {

  00000	55		 push	 ebp
  00001	8b ec		 mov	 ebp, esp
  00003	6a ff		 push	 -1
  00005	68 00 00 00 00	 push	 __ehhandler$?MakeElement@COnePointMoveTool@@MAEPAVCElement@@ABVCElementCommonEnvironment@@@Z
  0000a	64 a1 00 00 00
	00		 mov	 eax, DWORD PTR fs:0
  00010	50		 push	 eax
  00011	81 ec 24 01 00
	00		 sub	 esp, 292		; 00000124H
  00017	a1 00 00 00 00	 mov	 eax, DWORD PTR ___security_cookie
  0001c	33 c5		 xor	 eax, ebp
  0001e	89 45 f0	 mov	 DWORD PTR __$ArrayPad$[ebp], eax
  00021	56		 push	 esi
  00022	57		 push	 edi
  00023	50		 push	 eax
  00024	8d 45 f4	 lea	 eax, DWORD PTR __$EHRec$[ebp]
  00027	64 a3 00 00 00
	00		 mov	 DWORD PTR fs:0, eax
  0002d	8b f1		 mov	 esi, ecx
  0002f	89 b5 64 ff ff
	ff		 mov	 DWORD PTR _this$GSCopy$1$[ebp], esi
  00035	8b 45 08	 mov	 eax, DWORD PTR _environment$[ebp]

; 153  : 	return m_points;

  00038	8d be 88 00 00
	00		 lea	 edi, DWORD PTR [esi+136]
  0003e	57		 push	 edi
  0003f	8d 8d 20 ff ff
	ff		 lea	 ecx, DWORD PTR $T5[ebp]

; 187  : {

  00045	89 85 60 ff ff
	ff		 mov	 DWORD PTR _environment$GSCopy$1$[ebp], eax

; 153  : 	return m_points;

  0004b	89 7d 8c	 mov	 DWORD PTR ___that$1$[ebp], edi
  0004e	e8 00 00 00 00	 call	 ??0CCoordinate@@QAE@ABV0@@Z ; CCoordinate::CCoordinate
  00053	8b 47 20	 mov	 eax, DWORD PTR [edi+32]
  00056	8b 4f 24	 mov	 ecx, DWORD PTR [edi+36]
  00059	89 85 40 ff ff
	ff		 mov	 DWORD PTR $T5[ebp+32], eax
  0005f	89 8d 44 ff ff
	ff		 mov	 DWORD PTR $T5[ebp+36], ecx

; 188  : 	CCoordinate coordValue = CMoveTool::GetPoints().GetSavingPoint();

  00065	8d 85 f8 fe ff
	ff		 lea	 eax, DWORD PTR _coordValue$[ebp]
  0006b	c7 45 fc 00 00
	00 00		 mov	 DWORD PTR __$EHRec$[ebp+8], 0
  00072	50		 push	 eax
  00073	8d 8d 20 ff ff
	ff		 lea	 ecx, DWORD PTR $T5[ebp]
  00079	e8 00 00 00 00	 call	 ?GetSavingPoint@CPoints@@QBE?AVCCoordinate@@XZ ; CPoints::GetSavingPoint
  0007e	8d 8d 34 ff ff
	ff		 lea	 ecx, DWORD PTR $T5[ebp+20]
  00084	c6 45 fc 02	 mov	 BYTE PTR __$EHRec$[ebp+8], 2
  00088	ff 15 00 00 00
	00		 call	 DWORD PTR __imp_??1?$CStringT@DV?$StrTraitMFC_DLL@DV?$ChTraitsCRT@D@ATL@@@@@ATL@@QAE@XZ
  0008e	57		 push	 edi
  0008f	8d 8d d0 fe ff
	ff		 lea	 ecx, DWORD PTR $T2[ebp]
  00095	e8 00 00 00 00	 call	 ??0CCoordinate@@QAE@ABV0@@Z ; CCoordinate::CCoordinate
  0009a	8b 47 20	 mov	 eax, DWORD PTR [edi+32]
  0009d	8b 4f 24	 mov	 ecx, DWORD PTR [edi+36]
  000a0	89 85 f0 fe ff
	ff		 mov	 DWORD PTR $T2[ebp+32], eax
  000a6	89 8d f4 fe ff
	ff		 mov	 DWORD PTR $T2[ebp+36], ecx

; 189  : 	CCoordinateCalculatorData calcData = GetCoordinateCalculatorData( CMoveTool::GetPoints().GetDrawingPoint());

  000ac	8d 85 18 ff ff
	ff		 lea	 eax, DWORD PTR $T3[ebp]
  000b2	c6 45 fc 03	 mov	 BYTE PTR __$EHRec$[ebp+8], 3
  000b6	50		 push	 eax
  000b7	8d 8d d0 fe ff
	ff		 lea	 ecx, DWORD PTR $T2[ebp]
  000bd	e8 00 00 00 00	 call	 ?GetDrawingPoint@CPoints@@QBE?AVCPoint@@XZ ; CPoints::GetDrawingPoint
  000c2	50		 push	 eax
  000c3	8d 45 90	 lea	 eax, DWORD PTR _calcData$[ebp]
  000c6	8b ce		 mov	 ecx, esi
  000c8	50		 push	 eax
  000c9	e8 00 00 00 00	 call	 ?GetCoordinateCalculatorData@CTool@@QBE?AVCCoordinateCalculatorData@@ABVCPoint@@@Z ; CTool::GetCoordinateCalculatorData
  000ce	8d 8d e4 fe ff
	ff		 lea	 ecx, DWORD PTR $T2[ebp+20]
  000d4	c6 45 fc 05	 mov	 BYTE PTR __$EHRec$[ebp+8], 5
  000d8	ff 15 00 00 00
	00		 call	 DWORD PTR __imp_??1?$CStringT@DV?$StrTraitMFC_DLL@DV?$ChTraitsCRT@D@ATL@@@@@ATL@@QAE@XZ

; 190  : 	if( GetToolType() == CAnalysis::EN_ANALYSIS_CANDLE_LINE && calcData.IsValidAddInInterface())

  000de	8b 06		 mov	 eax, DWORD PTR [esi]
  000e0	8b ce		 mov	 ecx, esi
  000e2	8b 40 24	 mov	 eax, DWORD PTR [eax+36]
  000e5	ff d0		 call	 eax
  000e7	83 f8 1e	 cmp	 eax, 30			; 0000001eH
  000ea	0f 85 da 02 00
	00		 jne	 $LN91@MakeElemen
; File D:\git\src\IBK\IBK_DRFN\ProjSrc\SrcChartEx\ChartAddIn\ChartAnalysisToolAddIn\Include_Analysis\CoordinateCalculatorData.h

; 128  : 							{	return m_pIChartManager && m_pIChartOCX && m_pIPacketListManager && m_pIDefaultPacketManager;	}

  000f0	83 7d d8 00	 cmp	 DWORD PTR _calcData$[ebp+72], 0
  000f4	0f 84 d0 02 00
	00		 je	 $LN91@MakeElemen
  000fa	8b 4d dc	 mov	 ecx, DWORD PTR _calcData$[ebp+76]
  000fd	85 c9		 test	 ecx, ecx
  000ff	0f 84 c5 02 00
	00		 je	 $LN91@MakeElemen
  00105	83 7d e0 00	 cmp	 DWORD PTR _calcData$[ebp+80], 0
  00109	0f 84 bb 02 00
	00		 je	 $LN91@MakeElemen
  0010f	83 7d e4 00	 cmp	 DWORD PTR _calcData$[ebp+84], 0
  00113	0f 84 b1 02 00
	00		 je	 $LN91@MakeElemen
; File D:\git\src\IBK\IBK_DRFN\ProjSrc\SrcChartEx\ChartAddIn\ChartAnalysisToolAddIn\AnalysisTool\PointTool.cpp

; 193  : 		ILPCSTR szRQ = calcData.m_pIChartOCX->GetCurrentRQ();

  00119	8b 01		 mov	 eax, DWORD PTR [ecx]
  0011b	8b 80 40 02 00
	00		 mov	 eax, DWORD PTR [eax+576]
  00121	ff d0		 call	 eax
; File D:\git\src\IBK\IBK_DRFN\ProjSrc\SrcChartEx\ChartAddIn\ChartAnalysisToolAddIn\Include_AddIn_133101\I133101\_IString.h

; 39   : 		m_pIStrData = p_pIString;	// Do not AddRef(). Because It must be Return Value.

  00123	8b f8		 mov	 edi, eax
  00125	89 7d 88	 mov	 DWORD PTR _szRQ$15[ebp+4], edi

; 40   : 		if( m_pIStrData) m_szData = m_pIStrData->GetData();

  00128	85 ff		 test	 edi, edi
  0012a	74 0d		 je	 SHORT $LN54@MakeElemen
  0012c	8b 17		 mov	 edx, DWORD PTR [edi]
  0012e	8b cf		 mov	 ecx, edi
  00130	8b 52 10	 mov	 edx, DWORD PTR [edx+16]
  00133	ff d2		 call	 edx
  00135	8b f0		 mov	 esi, eax
  00137	eb 02		 jmp	 SHORT $LN101@MakeElemen
$LN54@MakeElemen:

; 41   : 		else m_szData = NULL;

  00139	33 f6		 xor	 esi, esi
$LN101@MakeElemen:
; File D:\git\src\IBK\IBK_DRFN\ProjSrc\SrcChartEx\ChartAddIn\ChartAnalysisToolAddIn\AnalysisTool\PointTool.cpp

; 193  : 		ILPCSTR szRQ = calcData.m_pIChartOCX->GetCurrentRQ();

  0013b	89 75 84	 mov	 DWORD PTR _szRQ$15[ebp], esi

; 194  : 		int nR = calcData.GetBlockIndex().GetRow();

  0013e	8d 4d 90	 lea	 ecx, DWORD PTR _calcData$[ebp]
  00141	c6 45 fc 06	 mov	 BYTE PTR __$EHRec$[ebp+8], 6
  00145	e8 00 00 00 00	 call	 ?GetBlockIndex@CCoordinateCalculatorData@@QAEAAVCBlockIndex@@XZ ; CCoordinateCalculatorData::GetBlockIndex

; 195  : 		int nC = calcData.GetBlockIndex().GetColumn();

  0014a	8d 4d 90	 lea	 ecx, DWORD PTR _calcData$[ebp]
  0014d	8b 00		 mov	 eax, DWORD PTR [eax]
  0014f	89 85 74 ff ff
	ff		 mov	 DWORD PTR _nR$12[ebp], eax
  00155	e8 00 00 00 00	 call	 ?GetBlockIndex@CCoordinateCalculatorData@@QAEAAVCBlockIndex@@XZ ; CCoordinateCalculatorData::GetBlockIndex

; 197  : 		ILPCSTR szGraphName = calcData.m_pIChartManager->FindNextIndicator( NULL, nR, nC, nV, nG, szRQ);

  0015a	8b 4d d8	 mov	 ecx, DWORD PTR _calcData$[ebp+72]
  0015d	8d 95 6c ff ff
	ff		 lea	 edx, DWORD PTR _nG$10[ebp]
  00163	56		 push	 esi
  00164	52		 push	 edx
  00165	8b 40 04	 mov	 eax, DWORD PTR [eax+4]
  00168	8d 95 68 ff ff
	ff		 lea	 edx, DWORD PTR _nV$9[ebp]
  0016e	52		 push	 edx
  0016f	89 85 70 ff ff
	ff		 mov	 DWORD PTR _nC$11[ebp], eax
  00175	8d 95 70 ff ff
	ff		 lea	 edx, DWORD PTR _nC$11[ebp]
  0017b	52		 push	 edx
  0017c	c7 85 68 ff ff
	ff 00 00 00 00	 mov	 DWORD PTR _nV$9[ebp], 0
  00186	8d 95 74 ff ff
	ff		 lea	 edx, DWORD PTR _nR$12[ebp]
  0018c	c7 85 6c ff ff
	ff ff ff ff ff	 mov	 DWORD PTR _nG$10[ebp], -1
  00196	8b 01		 mov	 eax, DWORD PTR [ecx]
  00198	52		 push	 edx
  00199	6a 00		 push	 0
  0019b	8b 40 74	 mov	 eax, DWORD PTR [eax+116]
  0019e	ff d0		 call	 eax
; File D:\git\src\IBK\IBK_DRFN\ProjSrc\SrcChartEx\ChartAddIn\ChartAnalysisToolAddIn\Include_AddIn_133101\I133101\_IString.h

; 39   : 		m_pIStrData = p_pIString;	// Do not AddRef(). Because It must be Return Value.

  001a0	89 85 5c ff ff
	ff		 mov	 DWORD PTR _szGraphName$8[ebp+4], eax

; 40   : 		if( m_pIStrData) m_szData = m_pIStrData->GetData();

  001a6	85 c0		 test	 eax, eax
  001a8	74 0b		 je	 SHORT $LN58@MakeElemen
  001aa	8b 10		 mov	 edx, DWORD PTR [eax]
  001ac	8b c8		 mov	 ecx, eax
  001ae	8b 52 10	 mov	 edx, DWORD PTR [edx+16]
  001b1	ff d2		 call	 edx
  001b3	eb 02		 jmp	 SHORT $LN102@MakeElemen
$LN58@MakeElemen:

; 41   : 		else m_szData = NULL;

  001b5	33 c0		 xor	 eax, eax
$LN102@MakeElemen:
; File D:\git\src\IBK\IBK_DRFN\ProjSrc\SrcChartEx\ChartAddIn\ChartAnalysisToolAddIn\AnalysisTool\PointTool.cpp

; 197  : 		ILPCSTR szGraphName = calcData.m_pIChartManager->FindNextIndicator( NULL, nR, nC, nV, nG, szRQ);

  001b7	89 85 58 ff ff
	ff		 mov	 DWORD PTR _szGraphName$8[ebp], eax
  001bd	c6 45 fc 07	 mov	 BYTE PTR __$EHRec$[ebp+8], 7
; File D:\git\src\IBK\IBK_DRFN\ProjSrc\SrcChartEx\ChartAddIn\ChartAnalysisToolAddIn\Include_AddIn_133101\I133101\_IString.h

; 57   : 		if( !m_szData) return TRUE;

  001c1	85 f6		 test	 esi, esi
  001c3	74 33		 je	 SHORT $LN5@MakeElemen
; File D:\git\src\IBK\IBK_DRFN\ProjSrc\SrcChartEx\ChartAddIn\ChartAnalysisToolAddIn\AnalysisTool\PointTool.cpp

; 199  : 			|| !( nR == calcData.GetBlockIndex().GetRow() && nC == calcData.GetBlockIndex().GetColumn()))

  001c5	80 3e 00	 cmp	 BYTE PTR [esi], 0
  001c8	74 2e		 je	 SHORT $LN5@MakeElemen
; File D:\git\src\IBK\IBK_DRFN\ProjSrc\SrcChartEx\ChartAddIn\ChartAnalysisToolAddIn\Include_AddIn_133101\I133101\_IString.h

; 57   : 		if( !m_szData) return TRUE;

  001ca	85 c0		 test	 eax, eax
  001cc	74 2a		 je	 SHORT $LN5@MakeElemen
; File D:\git\src\IBK\IBK_DRFN\ProjSrc\SrcChartEx\ChartAddIn\ChartAnalysisToolAddIn\AnalysisTool\PointTool.cpp

; 199  : 			|| !( nR == calcData.GetBlockIndex().GetRow() && nC == calcData.GetBlockIndex().GetColumn()))

  001ce	80 38 00	 cmp	 BYTE PTR [eax], 0
  001d1	74 25		 je	 SHORT $LN5@MakeElemen
  001d3	8d 4d 90	 lea	 ecx, DWORD PTR _calcData$[ebp]
  001d6	e8 00 00 00 00	 call	 ?GetBlockIndex@CCoordinateCalculatorData@@QAEAAVCBlockIndex@@XZ ; CCoordinateCalculatorData::GetBlockIndex
  001db	8b 8d 74 ff ff
	ff		 mov	 ecx, DWORD PTR _nR$12[ebp]
  001e1	3b 08		 cmp	 ecx, DWORD PTR [eax]
  001e3	75 13		 jne	 SHORT $LN5@MakeElemen
  001e5	8d 4d 90	 lea	 ecx, DWORD PTR _calcData$[ebp]
  001e8	e8 00 00 00 00	 call	 ?GetBlockIndex@CCoordinateCalculatorData@@QAEAAVCBlockIndex@@XZ ; CCoordinateCalculatorData::GetBlockIndex
  001ed	8b 8d 70 ff ff
	ff		 mov	 ecx, DWORD PTR _nC$11[ebp]
  001f3	3b 48 04	 cmp	 ecx, DWORD PTR [eax+4]
  001f6	74 53		 je	 SHORT $LN70@MakeElemen
$LN5@MakeElemen:

; 200  : 			szRQ = calcData.m_pIChartManager->GetMainRQofBlock( calcData.GetBlockIndex().GetRow(), calcData.GetBlockIndex().GetColumn());

  001f8	8b 45 d8	 mov	 eax, DWORD PTR _calcData$[ebp+72]
  001fb	8d 4d 90	 lea	 ecx, DWORD PTR _calcData$[ebp]
  001fe	8b 38		 mov	 edi, DWORD PTR [eax]
  00200	e8 00 00 00 00	 call	 ?GetBlockIndex@CCoordinateCalculatorData@@QAEAAVCBlockIndex@@XZ ; CCoordinateCalculatorData::GetBlockIndex
  00205	8d 4d 90	 lea	 ecx, DWORD PTR _calcData$[ebp]
  00208	8b 70 04	 mov	 esi, DWORD PTR [eax+4]
  0020b	e8 00 00 00 00	 call	 ?GetBlockIndex@CCoordinateCalculatorData@@QAEAAVCBlockIndex@@XZ ; CCoordinateCalculatorData::GetBlockIndex
  00210	8b 4d d8	 mov	 ecx, DWORD PTR _calcData$[ebp+72]
  00213	56		 push	 esi
  00214	ff 30		 push	 DWORD PTR [eax]
  00216	8b 87 30 01 00
	00		 mov	 eax, DWORD PTR [edi+304]
  0021c	ff d0		 call	 eax
  0021e	8b f0		 mov	 esi, eax
; File D:\git\src\IBK\IBK_DRFN\ProjSrc\SrcChartEx\ChartAddIn\ChartAnalysisToolAddIn\Include_AddIn_133101\I133101\_IString.h

; 67   : 		if( m_pIStrData) m_pIStrData->Release();

  00220	8b 45 88	 mov	 eax, DWORD PTR _szRQ$15[ebp+4]
  00223	85 c0		 test	 eax, eax
  00225	74 06		 je	 SHORT $LN68@MakeElemen
  00227	8b 08		 mov	 ecx, DWORD PTR [eax]
  00229	50		 push	 eax
  0022a	ff 51 08	 call	 DWORD PTR [ecx+8]
$LN68@MakeElemen:

; 68   : 		m_pIStrData = stringSrc;	// Do not AddRef(). Because It must be Return Value.

  0022d	8b fe		 mov	 edi, esi
  0022f	89 7d 88	 mov	 DWORD PTR _szRQ$15[ebp+4], edi
  00232	85 f6		 test	 esi, esi

; 69   : 		if( m_pIStrData) m_szData = m_pIStrData->GetData();

  00234	74 0e		 je	 SHORT $LN69@MakeElemen
  00236	8b 06		 mov	 eax, DWORD PTR [esi]
  00238	8b ce		 mov	 ecx, esi
  0023a	8b 40 10	 mov	 eax, DWORD PTR [eax+16]
  0023d	ff d0		 call	 eax
  0023f	89 45 84	 mov	 DWORD PTR _szRQ$15[ebp], eax
  00242	eb 07		 jmp	 SHORT $LN70@MakeElemen
$LN69@MakeElemen:

; 70   : 		else m_szData = NULL;

  00244	c7 45 84 00 00
	00 00		 mov	 DWORD PTR _szRQ$15[ebp], 0
$LN70@MakeElemen:
  0024b	8b 75 8c	 mov	 esi, DWORD PTR ___that$1$[ebp]
  0024e	8d 8d 20 ff ff
	ff		 lea	 ecx, DWORD PTR $T4[ebp]
  00254	56		 push	 esi
  00255	e8 00 00 00 00	 call	 ??0CCoordinate@@QAE@ABV0@@Z ; CCoordinate::CCoordinate
  0025a	8b 46 20	 mov	 eax, DWORD PTR [esi+32]
  0025d	8b 4e 24	 mov	 ecx, DWORD PTR [esi+36]
  00260	89 85 40 ff ff
	ff		 mov	 DWORD PTR $T4[ebp+32], eax
  00266	89 8d 44 ff ff
	ff		 mov	 DWORD PTR $T4[ebp+36], ecx
; File D:\git\src\IBK\IBK_DRFN\ProjSrc\SrcChartEx\ChartAddIn\ChartAnalysisToolAddIn\AnalysisTool\PointTool.cpp

; 201  : 		int nIndex = calcData.m_pIChartManager->FindViewDataIndex_Pt(szRQ, CMoveTool::GetPoints().GetDrawingPoint().x);

  0026c	8b 45 d8	 mov	 eax, DWORD PTR _calcData$[ebp+72]
  0026f	8d 8d 20 ff ff
	ff		 lea	 ecx, DWORD PTR $T4[ebp]
  00275	c6 45 fc 08	 mov	 BYTE PTR __$EHRec$[ebp+8], 8
  00279	8b 30		 mov	 esi, DWORD PTR [eax]
  0027b	8d 85 78 ff ff
	ff		 lea	 eax, DWORD PTR $T14[ebp]
  00281	50		 push	 eax
  00282	e8 00 00 00 00	 call	 ?GetDrawingPoint@CPoints@@QBE?AVCPoint@@XZ ; CPoints::GetDrawingPoint
  00287	8b 4d d8	 mov	 ecx, DWORD PTR _calcData$[ebp+72]
  0028a	6a 00		 push	 0
  0028c	6a 00		 push	 0
  0028e	ff 30		 push	 DWORD PTR [eax]
  00290	8b 86 04 01 00
	00		 mov	 eax, DWORD PTR [esi+260]
  00296	ff 75 84	 push	 DWORD PTR _szRQ$15[ebp]
  00299	ff d0		 call	 eax
  0029b	8d 8d 34 ff ff
	ff		 lea	 ecx, DWORD PTR $T4[ebp+20]
  002a1	89 45 8c	 mov	 DWORD PTR _nIndex$1$[ebp], eax
  002a4	c6 45 fc 07	 mov	 BYTE PTR __$EHRec$[ebp+8], 7
  002a8	ff 15 00 00 00
	00		 call	 DWORD PTR __imp_??1?$CStringT@DV?$StrTraitMFC_DLL@DV?$ChTraitsCRT@D@ATL@@@@@ATL@@QAE@XZ

; 202  : 
; 203  : 		//<< (2008/12/26 - Seung-Lyong, Park)  
; 204  : 		double dCloseYValue = 0.0;
; 205  : 		double dOpenYValue = 0.0;
; 206  : //		IPacket* pPacketClose = pPacketManager->GetPacket( _MTEXT( C0_CLOSE));
; 207  : 		IPacket* pPacketClose = calcData.m_pIPacketListManager->GetPacket( szRQ, _MTEXT( C0_CLOSE));

  002ae	8b 4d e0	 mov	 ecx, DWORD PTR _calcData$[ebp+80]
  002b1	0f 57 c0	 xorps	 xmm0, xmm0
  002b4	a1 54 00 00 00	 mov	 eax, DWORD PTR ?g_iMetaTable@@3VIMetaTable@@A+84
  002b9	f2 0f 11 85 50
	ff ff ff	 movsd	 QWORD PTR _dCloseYValue$7[ebp], xmm0
  002c1	f2 0f 11 85 48
	ff ff ff	 movsd	 QWORD PTR _dOpenYValue$6[ebp], xmm0
  002c9	8b 11		 mov	 edx, DWORD PTR [ecx]
  002cb	ff 70 14	 push	 DWORD PTR [eax+20]
  002ce	ff 75 84	 push	 DWORD PTR _szRQ$15[ebp]
  002d1	8b 42 14	 mov	 eax, DWORD PTR [edx+20]
  002d4	ff d0		 call	 eax

; 208  : //		IPacket* pPacketOpen = pPacketManager->GetPacket( _MTEXT( C0_OPEN));
; 209  : 		IPacket* pPacketOpen = calcData.m_pIPacketListManager->GetPacket( szRQ, _MTEXT( C0_OPEN));

  002d6	8b 55 e0	 mov	 edx, DWORD PTR _calcData$[ebp+80]
  002d9	8b 0d 54 00 00
	00		 mov	 ecx, DWORD PTR ?g_iMetaTable@@3VIMetaTable@@A+84
  002df	89 45 80	 mov	 DWORD PTR _pPacketClose$1$[ebp], eax
  002e2	8b 32		 mov	 esi, DWORD PTR [edx]
  002e4	ff 71 08	 push	 DWORD PTR [ecx+8]
  002e7	8b ca		 mov	 ecx, edx
  002e9	ff 75 84	 push	 DWORD PTR _szRQ$15[ebp]
  002ec	8b 56 14	 mov	 edx, DWORD PTR [esi+20]
  002ef	ff d2		 call	 edx

; 210  : //<<      - vntsorl(20090202)
; 211  : 		BOOL bResult = ( pPacketClose && pPacketOpen);

  002f1	8b 4d 80	 mov	 ecx, DWORD PTR _pPacketClose$1$[ebp]
  002f4	8b f0		 mov	 esi, eax
  002f6	85 c9		 test	 ecx, ecx
  002f8	0f 84 2a 01 00
	00		 je	 $LN7@MakeElemen
  002fe	85 f6		 test	 esi, esi
  00300	0f 84 22 01 00
	00		 je	 $LN7@MakeElemen

; 212  : 		if( bResult)
; 213  : 		{
; 214  : 			bResult = pPacketClose->GetData( nIndex, dCloseYValue);

  00306	8b 01		 mov	 eax, DWORD PTR [ecx]
  00308	8d 95 50 ff ff
	ff		 lea	 edx, DWORD PTR _dCloseYValue$7[ebp]
  0030e	52		 push	 edx
  0030f	ff 75 8c	 push	 DWORD PTR _nIndex$1$[ebp]
  00312	8b 40 40	 mov	 eax, DWORD PTR [eax+64]
  00315	ff d0		 call	 eax
  00317	89 85 7c ff ff
	ff		 mov	 DWORD PTR _bResult$1$[ebp], eax

; 215  : 			if( bResult) bResult = pPacketOpen->GetData( nIndex, dOpenYValue);

  0031d	85 c0		 test	 eax, eax
  0031f	74 19		 je	 SHORT $LN99@MakeElemen
  00321	8b 06		 mov	 eax, DWORD PTR [esi]
  00323	8d 8d 48 ff ff
	ff		 lea	 ecx, DWORD PTR _dOpenYValue$6[ebp]
  00329	51		 push	 ecx
  0032a	ff 75 8c	 push	 DWORD PTR _nIndex$1$[ebp]
  0032d	8b ce		 mov	 ecx, esi
  0032f	8b 40 40	 mov	 eax, DWORD PTR [eax+64]
  00332	ff d0		 call	 eax
  00334	89 85 7c ff ff
	ff		 mov	 DWORD PTR _bResult$1$[ebp], eax
$LN99@MakeElemen:

; 216  : 		}
; 217  : 		if( pPacketClose) pPacketClose->Release();

  0033a	8b 4d 80	 mov	 ecx, DWORD PTR _pPacketClose$1$[ebp]
$LN98@MakeElemen:
  0033d	8b 01		 mov	 eax, DWORD PTR [ecx]
  0033f	51		 push	 ecx
  00340	ff 50 08	 call	 DWORD PTR [eax+8]
$LN8@MakeElemen:

; 218  : 		if( pPacketOpen) pPacketOpen->Release();	

  00343	85 f6		 test	 esi, esi
  00345	74 06		 je	 SHORT $LN9@MakeElemen
  00347	8b 06		 mov	 eax, DWORD PTR [esi]
  00349	56		 push	 esi
  0034a	ff 50 08	 call	 DWORD PTR [eax+8]
$LN9@MakeElemen:

; 219  : 		if( bResult)

  0034d	83 bd 7c ff ff
	ff 00		 cmp	 DWORD PTR _bResult$1$[ebp], 0
  00354	74 48		 je	 SHORT $LN10@MakeElemen

; 220  : 		{
; 221  : 			double dYValue = min( dCloseYValue, dOpenYValue);
; 222  : 			dYValue += fabs( dCloseYValue - dOpenYValue)/2;

  00356	f2 0f 10 8d 50
	ff ff ff	 movsd	 xmm1, QWORD PTR _dCloseYValue$7[ebp]

; 223  : 			coordValue.SetY( dYValue);

  0035e	8d 85 78 ff ff
	ff		 lea	 eax, DWORD PTR _dYValue$13[ebp]
  00364	0f 28 d1	 movaps	 xmm2, xmm1
  00367	8d 8d f8 fe ff
	ff		 lea	 ecx, DWORD PTR _coordValue$[ebp]
  0036d	f2 0f 5c 95 48
	ff ff ff	 subsd	 xmm2, QWORD PTR _dOpenYValue$6[ebp]
  00375	f2 0f 5d 8d 48
	ff ff ff	 minsd	 xmm1, QWORD PTR _dOpenYValue$6[ebp]
  0037d	50		 push	 eax
  0037e	0f 54 15 00 00
	00 00		 andps	 xmm2, QWORD PTR __xmm@7fffffffffffffff7fffffffffffffff
  00385	f2 0f 59 15 00
	00 00 00	 mulsd	 xmm2, QWORD PTR __real@3fe0000000000000
  0038d	f2 0f 58 d1	 addsd	 xmm2, xmm1
  00391	f2 0f 11 95 78
	ff ff ff	 movsd	 QWORD PTR _dYValue$13[ebp], xmm2
  00399	e8 00 00 00 00	 call	 ?SetY@CCoordinate@@QAEXABN@Z ; CCoordinate::SetY
$LN10@MakeElemen:
; File D:\git\src\IBK\IBK_DRFN\ProjSrc\SrcChartEx\ChartAddIn\ChartAnalysisToolAddIn\Include_AddIn_133101\I133101\_IString.h

; 45   : 		if( m_pIStrData)

  0039e	8b 8d 5c ff ff
	ff		 mov	 ecx, DWORD PTR _szGraphName$8[ebp+4]
  003a4	c6 45 fc 09	 mov	 BYTE PTR __$EHRec$[ebp+8], 9
  003a8	85 c9		 test	 ecx, ecx
  003aa	74 06		 je	 SHORT $LN86@MakeElemen

; 46   : 		{
; 47   : 			m_pIStrData->Release();

  003ac	8b 01		 mov	 eax, DWORD PTR [ecx]
  003ae	51		 push	 ecx
  003af	ff 50 08	 call	 DWORD PTR [eax+8]
$LN86@MakeElemen:

; 44   : 	{

  003b2	c6 45 fc 0a	 mov	 BYTE PTR __$EHRec$[ebp+8], 10 ; 0000000aH

; 45   : 		if( m_pIStrData)

  003b6	85 ff		 test	 edi, edi
  003b8	74 06		 je	 SHORT $LN90@MakeElemen

; 46   : 		{
; 47   : 			m_pIStrData->Release();

  003ba	8b 07		 mov	 eax, DWORD PTR [edi]
  003bc	57		 push	 edi
  003bd	ff 50 08	 call	 DWORD PTR [eax+8]
$LN90@MakeElemen:
  003c0	8b b5 64 ff ff
	ff		 mov	 esi, DWORD PTR _this$GSCopy$1$[ebp]

; 48   : 			m_pIStrData = NULL;
; 49   : 			m_szData = NULL;
; 50   : 		}
; 51   : 	}

  003c6	c6 45 fc 05	 mov	 BYTE PTR __$EHRec$[ebp+8], 5
$LN91@MakeElemen:
; File D:\git\src\IBK\IBK_DRFN\ProjSrc\SrcChartEx\ChartAddIn\ChartAnalysisToolAddIn\AnalysisTool\PointTool.cpp

; 227  : 	return CElementFactory::Make(GetToolType(),coordValue, GetTextPosition(), environment);

  003ca	8b 06		 mov	 eax, DWORD PTR [esi]
  003cc	8b ce		 mov	 ecx, esi
  003ce	ff b5 60 ff ff
	ff		 push	 DWORD PTR _environment$GSCopy$1$[ebp]
  003d4	8b 40 28	 mov	 eax, DWORD PTR [eax+40]
  003d7	ff d0		 call	 eax
  003d9	50		 push	 eax
  003da	8d 85 f8 fe ff
	ff		 lea	 eax, DWORD PTR _coordValue$[ebp]
  003e0	8b ce		 mov	 ecx, esi
  003e2	50		 push	 eax
  003e3	8b 06		 mov	 eax, DWORD PTR [esi]
  003e5	8b 40 24	 mov	 eax, DWORD PTR [eax+36]
  003e8	ff d0		 call	 eax
  003ea	50		 push	 eax
  003eb	e8 00 00 00 00	 call	 ?Make@CElementFactory@@SAPAVCElement@@W4TOOLTYPE@CAnalysis@@ABVCCoordinate@@PBVCTextPosition@@ABVCElementCommonEnvironment@@@Z ; CElementFactory::Make
  003f0	83 c4 10	 add	 esp, 16			; 00000010H
  003f3	8d 4d 90	 lea	 ecx, DWORD PTR _calcData$[ebp]
  003f6	8b f0		 mov	 esi, eax
  003f8	e8 00 00 00 00	 call	 ??1CCoordinateCalculatorData@@QAE@XZ ; CCoordinateCalculatorData::~CCoordinateCalculatorData
  003fd	8d 8d 0c ff ff
	ff		 lea	 ecx, DWORD PTR _coordValue$[ebp+20]
  00403	ff 15 00 00 00
	00		 call	 DWORD PTR __imp_??1?$CStringT@DV?$StrTraitMFC_DLL@DV?$ChTraitsCRT@D@ATL@@@@@ATL@@QAE@XZ
  00409	8b c6		 mov	 eax, esi

; 228  : }

  0040b	8b 4d f4	 mov	 ecx, DWORD PTR __$EHRec$[ebp]
  0040e	64 89 0d 00 00
	00 00		 mov	 DWORD PTR fs:0, ecx
  00415	59		 pop	 ecx
  00416	5f		 pop	 edi
  00417	5e		 pop	 esi
  00418	8b 4d f0	 mov	 ecx, DWORD PTR __$ArrayPad$[ebp]
  0041b	33 cd		 xor	 ecx, ebp
  0041d	e8 00 00 00 00	 call	 @__security_check_cookie@4
  00422	8b e5		 mov	 esp, ebp
  00424	5d		 pop	 ebp
  00425	c2 04 00	 ret	 4
$LN7@MakeElemen:

; 216  : 		}
; 217  : 		if( pPacketClose) pPacketClose->Release();

  00428	c7 85 7c ff ff
	ff 00 00 00 00	 mov	 DWORD PTR _bResult$1$[ebp], 0
  00432	85 c9		 test	 ecx, ecx
  00434	0f 84 09 ff ff
	ff		 je	 $LN8@MakeElemen

; 215  : 			if( bResult) bResult = pPacketOpen->GetData( nIndex, dOpenYValue);

  0043a	e9 fe fe ff ff	 jmp	 $LN98@MakeElemen
_TEXT	ENDS
;	COMDAT text$x
text$x	SEGMENT
__unwindfunclet$?MakeElement@COnePointMoveTool@@MAEPAVCElement@@ABVCElementCommonEnvironment@@@Z$0:
  00000	8d 8d 20 ff ff
	ff		 lea	 ecx, DWORD PTR $T5[ebp]
  00006	e9 00 00 00 00	 jmp	 ??1CPoints@@QAE@XZ
__unwindfunclet$?MakeElement@COnePointMoveTool@@MAEPAVCElement@@ABVCElementCommonEnvironment@@@Z$1:
  0000b	8d 8d f8 fe ff
	ff		 lea	 ecx, DWORD PTR _coordValue$[ebp]
  00011	e9 00 00 00 00	 jmp	 ??1CCoordinate@@QAE@XZ
__unwindfunclet$?MakeElement@COnePointMoveTool@@MAEPAVCElement@@ABVCElementCommonEnvironment@@@Z$2:
  00016	8d 8d d0 fe ff
	ff		 lea	 ecx, DWORD PTR $T2[ebp]
  0001c	e9 00 00 00 00	 jmp	 ??1CPoints@@QAE@XZ
__unwindfunclet$?MakeElement@COnePointMoveTool@@MAEPAVCElement@@ABVCElementCommonEnvironment@@@Z$3:
  00021	8d 4d 90	 lea	 ecx, DWORD PTR _calcData$[ebp]
  00024	e9 00 00 00 00	 jmp	 ??1CCoordinateCalculatorData@@QAE@XZ ; CCoordinateCalculatorData::~CCoordinateCalculatorData
__unwindfunclet$?MakeElement@COnePointMoveTool@@MAEPAVCElement@@ABVCElementCommonEnvironment@@@Z$4:
  00029	8d 4d 84	 lea	 ecx, DWORD PTR _szRQ$15[ebp]
  0002c	e9 00 00 00 00	 jmp	 ??1ILPCSTR133101@@QAE@XZ ; ILPCSTR133101::~ILPCSTR133101
__unwindfunclet$?MakeElement@COnePointMoveTool@@MAEPAVCElement@@ABVCElementCommonEnvironment@@@Z$5:
  00031	8d 8d 58 ff ff
	ff		 lea	 ecx, DWORD PTR _szGraphName$8[ebp]
  00037	e9 00 00 00 00	 jmp	 ??1ILPCSTR133101@@QAE@XZ ; ILPCSTR133101::~ILPCSTR133101
__unwindfunclet$?MakeElement@COnePointMoveTool@@MAEPAVCElement@@ABVCElementCommonEnvironment@@@Z$6:
  0003c	8d 8d 20 ff ff
	ff		 lea	 ecx, DWORD PTR $T4[ebp]
  00042	e9 00 00 00 00	 jmp	 ??1CPoints@@QAE@XZ
  00047	cc		 int	 3
  00048	cc		 int	 3
  00049	cc		 int	 3
  0004a	cc		 int	 3
  0004b	cc		 int	 3
__ehhandler$?MakeElement@COnePointMoveTool@@MAEPAVCElement@@ABVCElementCommonEnvironment@@@Z:
  0004c	90		 npad	 1
  0004d	90		 npad	 1
  0004e	8b 54 24 08	 mov	 edx, DWORD PTR [esp+8]
  00052	8d 42 0c	 lea	 eax, DWORD PTR [edx+12]
  00055	8b 8a d0 fe ff
	ff		 mov	 ecx, DWORD PTR [edx-304]
  0005b	33 c8		 xor	 ecx, eax
  0005d	e8 00 00 00 00	 call	 @__security_check_cookie@4
  00062	8b 4a fc	 mov	 ecx, DWORD PTR [edx-4]
  00065	33 c8		 xor	 ecx, eax
  00067	e8 00 00 00 00	 call	 @__security_check_cookie@4
  0006c	b8 00 00 00 00	 mov	 eax, OFFSET __ehfuncinfo$?MakeElement@COnePointMoveTool@@MAEPAVCElement@@ABVCElementCommonEnvironment@@@Z
  00071	e9 00 00 00 00	 jmp	 ___CxxFrameHandler3
text$x	ENDS
?MakeElement@COnePointMoveTool@@MAEPAVCElement@@ABVCElementCommonEnvironment@@@Z ENDP ; COnePointMoveTool::MakeElement
; Function compile flags: /Ogtp
; File D:\git\src\IBK\IBK_DRFN\ProjSrc\SrcChartEx\ChartAddIn\ChartAnalysisToolAddIn\AnalysisTool\PointTool.cpp
;	COMDAT ?DrawTool@COnePointMoveTool@@MAEXPAVCDC@@@Z
_TEXT	SEGMENT
$T2 = -148						; size = 136
__$EHRec$ = -12						; size = 12
_pDC$ = 8						; size = 4
?DrawTool@COnePointMoveTool@@MAEXPAVCDC@@@Z PROC	; COnePointMoveTool::DrawTool, COMDAT
; _this$ = ecx

; 182  : {

  00000	55		 push	 ebp
  00001	8b ec		 mov	 ebp, esp
  00003	6a ff		 push	 -1
  00005	68 00 00 00 00	 push	 __ehhandler$?DrawTool@COnePointMoveTool@@MAEXPAVCDC@@@Z
  0000a	64 a1 00 00 00
	00		 mov	 eax, DWORD PTR fs:0
  00010	50		 push	 eax
  00011	81 ec 88 00 00
	00		 sub	 esp, 136		; 00000088H
  00017	56		 push	 esi
  00018	a1 00 00 00 00	 mov	 eax, DWORD PTR ___security_cookie
  0001d	33 c5		 xor	 eax, ebp
  0001f	50		 push	 eax
  00020	8d 45 f4	 lea	 eax, DWORD PTR __$EHRec$[ebp]
  00023	64 a3 00 00 00
	00		 mov	 DWORD PTR fs:0, eax
  00029	8b f1		 mov	 esi, ecx

; 183  : 	GetOnePointDrawer().DrawTool(pDC, GetOnePointDrawingData(), R2_NOT);

  0002b	8d 85 6c ff ff
	ff		 lea	 eax, DWORD PTR $T2[ebp]
  00031	50		 push	 eax
  00032	e8 00 00 00 00	 call	 ?GetOnePointDrawingData@COnePointMoveTool@@ABE?AVCOnePointDrawingData@@XZ ; COnePointMoveTool::GetOnePointDrawingData
  00037	6a 06		 push	 6
  00039	50		 push	 eax
  0003a	8b 06		 mov	 eax, DWORD PTR [esi]
  0003c	8b ce		 mov	 ecx, esi
  0003e	ff 75 08	 push	 DWORD PTR _pDC$[ebp]
  00041	c7 45 fc 00 00
	00 00		 mov	 DWORD PTR __$EHRec$[ebp+8], 0
  00048	ff 50 40	 call	 DWORD PTR [eax+64]
  0004b	8b c8		 mov	 ecx, eax
  0004d	e8 00 00 00 00	 call	 ?DrawTool@COnePointDrawer@@QAEXPAVCDC@@ABVCOnePointDrawingData@@H@Z ; COnePointDrawer::DrawTool
  00052	8d 4d e0	 lea	 ecx, DWORD PTR $T2[ebp+116]
  00055	ff 15 00 00 00
	00		 call	 DWORD PTR __imp_??1?$CStringT@DV?$StrTraitMFC_DLL@DV?$ChTraitsCRT@D@ATL@@@@@ATL@@QAE@XZ
  0005b	8d 4d 8c	 lea	 ecx, DWORD PTR $T2[ebp+32]
  0005e	ff 15 00 00 00
	00		 call	 DWORD PTR __imp_??1?$CStringT@DV?$StrTraitMFC_DLL@DV?$ChTraitsCRT@D@ATL@@@@@ATL@@QAE@XZ
  00064	8d 4d 88	 lea	 ecx, DWORD PTR $T2[ebp+28]
  00067	ff 15 00 00 00
	00		 call	 DWORD PTR __imp_??1?$CStringT@DV?$StrTraitMFC_DLL@DV?$ChTraitsCRT@D@ATL@@@@@ATL@@QAE@XZ
  0006d	8d 4d 84	 lea	 ecx, DWORD PTR $T2[ebp+24]
  00070	ff 15 00 00 00
	00		 call	 DWORD PTR __imp_??1?$CStringT@DV?$StrTraitMFC_DLL@DV?$ChTraitsCRT@D@ATL@@@@@ATL@@QAE@XZ

; 184  : }

  00076	8b 4d f4	 mov	 ecx, DWORD PTR __$EHRec$[ebp]
  00079	64 89 0d 00 00
	00 00		 mov	 DWORD PTR fs:0, ecx
  00080	59		 pop	 ecx
  00081	5e		 pop	 esi
  00082	8b e5		 mov	 esp, ebp
  00084	5d		 pop	 ebp
  00085	c2 04 00	 ret	 4
_TEXT	ENDS
;	COMDAT text$x
text$x	SEGMENT
__unwindfunclet$?DrawTool@COnePointMoveTool@@MAEXPAVCDC@@@Z$0:
  00000	8d 8d 6c ff ff
	ff		 lea	 ecx, DWORD PTR $T2[ebp]
  00006	e9 00 00 00 00	 jmp	 ??1COnePointDrawingData@@QAE@XZ
  0000b	cc		 int	 3
  0000c	cc		 int	 3
  0000d	cc		 int	 3
  0000e	cc		 int	 3
  0000f	cc		 int	 3
__ehhandler$?DrawTool@COnePointMoveTool@@MAEXPAVCDC@@@Z:
  00010	90		 npad	 1
  00011	90		 npad	 1
  00012	8b 54 24 08	 mov	 edx, DWORD PTR [esp+8]
  00016	8d 42 0c	 lea	 eax, DWORD PTR [edx+12]
  00019	8b 8a 70 ff ff
	ff		 mov	 ecx, DWORD PTR [edx-144]
  0001f	33 c8		 xor	 ecx, eax
  00021	e8 00 00 00 00	 call	 @__security_check_cookie@4
  00026	b8 00 00 00 00	 mov	 eax, OFFSET __ehfuncinfo$?DrawTool@COnePointMoveTool@@MAEXPAVCDC@@@Z
  0002b	e9 00 00 00 00	 jmp	 ___CxxFrameHandler3
text$x	ENDS
?DrawTool@COnePointMoveTool@@MAEXPAVCDC@@@Z ENDP	; COnePointMoveTool::DrawTool
; Function compile flags: /Ogtp
; File D:\git\src\IBK\IBK_DRFN\ProjSrc\SrcChartEx\ChartAddIn\ChartAnalysisToolAddIn\AnalysisTool\PointTool.cpp
;	COMDAT ??0COnePointMoveTool@@IAE@PAVCAnalysisData@@W4COORDINATETYPE@CAnalysis@@@Z
_TEXT	SEGMENT
_this$ = -4						; size = 4
_pAnalysisData$ = 8					; size = 4
_eCoordinateType$ = 12					; size = 4
??0COnePointMoveTool@@IAE@PAVCAnalysisData@@W4COORDINATETYPE@CAnalysis@@@Z PROC ; COnePointMoveTool::COnePointMoveTool, COMDAT
; _this$ = ecx

; 176  : {

  00000	55		 push	 ebp
  00001	8b ec		 mov	 ebp, esp
  00003	51		 push	 ecx
  00004	56		 push	 esi
  00005	ff 75 0c	 push	 DWORD PTR _eCoordinateType$[ebp]
  00008	8b f1		 mov	 esi, ecx
  0000a	ff 75 08	 push	 DWORD PTR _pAnalysisData$[ebp]
  0000d	89 75 fc	 mov	 DWORD PTR _this$[ebp], esi
  00010	e8 00 00 00 00	 call	 ??0CMoveTool@@IAE@PAVCAnalysisData@@W4COORDINATETYPE@CAnalysis@@@Z ; CMoveTool::CMoveTool
  00015	c7 06 00 00 00
	00		 mov	 DWORD PTR [esi], OFFSET ??_7COnePointMoveTool@@6B@

; 177  : }

  0001b	8b c6		 mov	 eax, esi
  0001d	5e		 pop	 esi
  0001e	8b e5		 mov	 esp, ebp
  00020	5d		 pop	 ebp
  00021	c2 08 00	 ret	 8
??0COnePointMoveTool@@IAE@PAVCAnalysisData@@W4COORDINATETYPE@CAnalysis@@@Z ENDP ; COnePointMoveTool::COnePointMoveTool
_TEXT	ENDS
; Function compile flags: /Ogtp
; File D:\git\src\IBK\IBK_DRFN\ProjSrc\SrcChartEx\ChartAddIn\ChartAnalysisToolAddIn\AnalysisTool\PointTool.cpp
;	COMDAT ?OnMouseMove_InNotDrawingRegion@CMoveTool@@AAE_NABVCPoint@@@Z
_TEXT	SEGMENT
$T1 = -8						; size = 8
_point$ = 8						; size = 4
?OnMouseMove_InNotDrawingRegion@CMoveTool@@AAE_NABVCPoint@@@Z PROC ; CMoveTool::OnMouseMove_InNotDrawingRegion, COMDAT
; _this$ = ecx

; 159  : {

  00000	55		 push	 ebp
  00001	8b ec		 mov	 ebp, esp
  00003	83 ec 08	 sub	 esp, 8
  00006	57		 push	 edi

; 160  : 	if(PointInDrawingRegion(point))

  00007	ff 75 08	 push	 DWORD PTR _point$[ebp]
  0000a	8b f9		 mov	 edi, ecx
  0000c	8b 07		 mov	 eax, DWORD PTR [edi]
  0000e	8b 40 1c	 mov	 eax, DWORD PTR [eax+28]
  00011	ff d0		 call	 eax
  00013	84 c0		 test	 al, al
  00015	74 09		 je	 SHORT $LN2@OnMouseMov

; 161  : 		return false;

  00017	32 c0		 xor	 al, al
  00019	5f		 pop	 edi

; 169  : }

  0001a	8b e5		 mov	 esp, ebp
  0001c	5d		 pop	 ebp
  0001d	c2 04 00	 ret	 4
$LN2@OnMouseMov:
  00020	56		 push	 esi

; 162  : 
; 163  : 	//     
; 164  : 	// ->      .
; 165  : 	if(PointInDrawingRegion(m_points.GetDrawingPoint()))

  00021	8b 37		 mov	 esi, DWORD PTR [edi]
  00023	8d 45 f8	 lea	 eax, DWORD PTR $T1[ebp]
  00026	50		 push	 eax
  00027	8d 8f 88 00 00
	00		 lea	 ecx, DWORD PTR [edi+136]
  0002d	e8 00 00 00 00	 call	 ?GetDrawingPoint@CPoints@@QBE?AVCPoint@@XZ ; CPoints::GetDrawingPoint
  00032	50		 push	 eax
  00033	8b 46 1c	 mov	 eax, DWORD PTR [esi+28]
  00036	8b cf		 mov	 ecx, edi
  00038	ff d0		 call	 eax
  0003a	5e		 pop	 esi
  0003b	84 c0		 test	 al, al
  0003d	74 07		 je	 SHORT $LN3@OnMouseMov

; 166  : 		CTool::Invalidate();

  0003f	8b cf		 mov	 ecx, edi
  00041	e8 00 00 00 00	 call	 ?Invalidate@CTool@@QAEXXZ ; CTool::Invalidate
$LN3@OnMouseMov:

; 167  : 
; 168  : 	return true;

  00046	b0 01		 mov	 al, 1
  00048	5f		 pop	 edi

; 169  : }

  00049	8b e5		 mov	 esp, ebp
  0004b	5d		 pop	 ebp
  0004c	c2 04 00	 ret	 4
?OnMouseMove_InNotDrawingRegion@CMoveTool@@AAE_NABVCPoint@@@Z ENDP ; CMoveTool::OnMouseMove_InNotDrawingRegion
_TEXT	ENDS
; Function compile flags: /Ogtp
; File D:\git\src\IBK\IBK_DRFN\ProjSrc\SrcChartEx\ChartAddIn\ChartAnalysisToolAddIn\AnalysisTool\PointTool.cpp
;	COMDAT ?GetPoints@CMoveTool@@IBE?AVCPoints@@XZ
_TEXT	SEGMENT
___$ReturnUdt$ = 8					; size = 4
?GetPoints@CMoveTool@@IBE?AVCPoints@@XZ PROC		; CMoveTool::GetPoints, COMDAT
; _this$ = ecx

; 152  : {

  00000	55		 push	 ebp
  00001	8b ec		 mov	 ebp, esp
  00003	56		 push	 esi
  00004	57		 push	 edi

; 153  : 	return m_points;

  00005	8b 7d 08	 mov	 edi, DWORD PTR ___$ReturnUdt$[ebp]
  00008	8d b1 88 00 00
	00		 lea	 esi, DWORD PTR [ecx+136]
  0000e	56		 push	 esi
  0000f	8b cf		 mov	 ecx, edi
  00011	e8 00 00 00 00	 call	 ??0CCoordinate@@QAE@ABV0@@Z ; CCoordinate::CCoordinate
  00016	8b 4e 20	 mov	 ecx, DWORD PTR [esi+32]
  00019	8b c7		 mov	 eax, edi
  0001b	8b 56 24	 mov	 edx, DWORD PTR [esi+36]
  0001e	89 4f 20	 mov	 DWORD PTR [edi+32], ecx
  00021	89 57 24	 mov	 DWORD PTR [edi+36], edx
  00024	5f		 pop	 edi
  00025	5e		 pop	 esi

; 154  : }

  00026	5d		 pop	 ebp
  00027	c2 04 00	 ret	 4
?GetPoints@CMoveTool@@IBE?AVCPoints@@XZ ENDP		; CMoveTool::GetPoints
_TEXT	ENDS
; Function compile flags: /Ogtp
; File D:\git\src\IBK\IBK_DRFN\ProjSrc\SrcChartEx\ChartAddIn\ChartAnalysisToolAddIn\AnalysisTool\PointTool.cpp
;	COMDAT ?SavePoints@CMoveTool@@MAEXABVCPoints@@@Z
_TEXT	SEGMENT
_points$ = 8						; size = 4
?SavePoints@CMoveTool@@MAEXABVCPoints@@@Z PROC		; CMoveTool::SavePoints, COMDAT
; _this$ = ecx

; 146  : {

  00000	55		 push	 ebp
  00001	8b ec		 mov	 ebp, esp

; 147  : 	m_points = points;

  00003	81 c1 88 00 00
	00		 add	 ecx, 136		; 00000088H

; 148  : }

  00009	5d		 pop	 ebp

; 147  : 	m_points = points;

  0000a	e9 00 00 00 00	 jmp	 ??4CPoints@@QAEAAV0@ABV0@@Z ; CPoints::operator=
?SavePoints@CMoveTool@@MAEXABVCPoints@@@Z ENDP		; CMoveTool::SavePoints
_TEXT	ENDS
; Function compile flags: /Ogtp
; File D:\git\src\IBK\IBK_DRFN\ProjSrc\SrcChartEx\ChartAddIn\ChartAnalysisToolAddIn\AnalysisTool\PointTool.cpp
;	COMDAT ?PointInDrawingRegion@CMoveTool@@MBE_NABVCPoint@@@Z
_TEXT	SEGMENT
_point$ = 8						; size = 4
?PointInDrawingRegion@CMoveTool@@MBE_NABVCPoint@@@Z PROC ; CMoveTool::PointInDrawingRegion, COMDAT
; _this$ = ecx

; 135  : {

  00000	55		 push	 ebp
  00001	8b ec		 mov	 ebp, esp

; 136  : 	return CTool::GetDrawingRegions().PointInDrawingRegionsInColumn(point);

  00003	ff 75 08	 push	 DWORD PTR _point$[ebp]
  00006	e8 00 00 00 00	 call	 ?GetDrawingRegions@CTool@@IBEABVCDrawingRegions@@XZ ; CTool::GetDrawingRegions
  0000b	8b c8		 mov	 ecx, eax
  0000d	e8 00 00 00 00	 call	 ?PointInDrawingRegionsInColumn@CDrawingRegions@@QBE_NABVCPoint@@@Z ; CDrawingRegions::PointInDrawingRegionsInColumn

; 137  : 	/*if(!CTool::GetDrawingRegions().PointInDrawingRegionsInColumn(point))
; 138  : 		return false;
; 139  : 
; 140  : 	return (CTool::GetDrawingRegions().GetRowNumber(point) == CTool::GetDrawingRegions().GetRowNumber(m_points.GetDrawingPoint()));
; 141  : 	*/
; 142  : }

  00012	5d		 pop	 ebp
  00013	c2 04 00	 ret	 4
?PointInDrawingRegion@CMoveTool@@MBE_NABVCPoint@@@Z ENDP ; CMoveTool::PointInDrawingRegion
_TEXT	ENDS
; Function compile flags: /Ogtp
; File D:\git\src\IBK\IBK_DRFN\ProjSrc\SrcChartEx\ChartAddIn\ChartAnalysisToolAddIn\AnalysisTool\PointTool.cpp
;	COMDAT ?OnDraw@CMoveTool@@UAEXPAVCDC@@@Z
_TEXT	SEGMENT
$T1 = -8						; size = 8
_pDC$ = 8						; size = 4
?OnDraw@CMoveTool@@UAEXPAVCDC@@@Z PROC			; CMoveTool::OnDraw, COMDAT
; _this$ = ecx

; 125  : {

  00000	55		 push	 ebp
  00001	8b ec		 mov	 ebp, esp
  00003	83 ec 08	 sub	 esp, 8

; 126  : 	if(!PointInDrawingRegion(m_points.GetDrawingPoint()))

  00006	8d 45 f8	 lea	 eax, DWORD PTR $T1[ebp]
  00009	56		 push	 esi
  0000a	57		 push	 edi
  0000b	8b f9		 mov	 edi, ecx
  0000d	50		 push	 eax
  0000e	8b 37		 mov	 esi, DWORD PTR [edi]
  00010	8d 8f 88 00 00
	00		 lea	 ecx, DWORD PTR [edi+136]
  00016	e8 00 00 00 00	 call	 ?GetDrawingPoint@CPoints@@QBE?AVCPoint@@XZ ; CPoints::GetDrawingPoint
  0001b	50		 push	 eax
  0001c	8b 46 1c	 mov	 eax, DWORD PTR [esi+28]
  0001f	8b cf		 mov	 ecx, edi
  00021	ff d0		 call	 eax
  00023	84 c0		 test	 al, al
  00025	74 11		 je	 SHORT $LN1@OnDraw

; 127  : 		return;
; 128  : 
; 129  : 	DrawTool(pDC);	

  00027	8b 07		 mov	 eax, DWORD PTR [edi]
  00029	8b cf		 mov	 ecx, edi
  0002b	ff 75 08	 push	 DWORD PTR _pDC$[ebp]
  0002e	ff 50 3c	 call	 DWORD PTR [eax+60]

; 130  : 	m_bMouseMoveChanged = FALSE;

  00031	c7 47 78 00 00
	00 00		 mov	 DWORD PTR [edi+120], 0
$LN1@OnDraw:

; 131  : }

  00038	5f		 pop	 edi
  00039	5e		 pop	 esi
  0003a	8b e5		 mov	 esp, ebp
  0003c	5d		 pop	 ebp
  0003d	c2 04 00	 ret	 4
?OnDraw@CMoveTool@@UAEXPAVCDC@@@Z ENDP			; CMoveTool::OnDraw
_TEXT	ENDS
; Function compile flags: /Ogtp
; File D:\git\src\IBK\IBK_DRFN\ProjSrc\SrcChartEx\ChartAddIn\ChartAnalysisToolAddIn\AnalysisTool\PointTool.cpp
; File C:\Program Files (x86)\Microsoft Visual Studio\2019\Community\VC\Tools\MSVC\14.29.30133\atlmfc\include\atltypes.h
; File D:\git\src\IBK\IBK_DRFN\ProjSrc\SrcChartEx\ChartAddIn\ChartAnalysisToolAddIn\AnalysisTool\PointTool.cpp
; File D:\git\src\IBK\IBK_DRFN\ProjSrc\SrcChartEx\ChartAddIn\ChartAnalysisToolAddIn\Include_Analysis\CoordinateCalculatorData.h
; File D:\git\src\IBK\IBK_DRFN\ProjSrc\SrcChartEx\ChartAddIn\ChartAnalysisToolAddIn\AnalysisTool\PointTool.cpp
; File D:\git\src\IBK\IBK_DRFN\ProjSrc\SrcChartEx\ChartAddIn\ChartAnalysisToolAddIn\Include_AddIn_133101\I133101\_IString.h
; File D:\git\src\IBK\IBK_DRFN\ProjSrc\SrcChartEx\ChartAddIn\ChartAnalysisToolAddIn\AnalysisTool\PointTool.cpp
; File D:\git\src\IBK\IBK_DRFN\ProjSrc\SrcChartEx\ChartAddIn\ChartAnalysisToolAddIn\Include_AddIn_133101\I133101\_IString.h
; File D:\git\src\IBK\IBK_DRFN\ProjSrc\SrcChartEx\ChartAddIn\ChartAnalysisToolAddIn\AnalysisTool\PointTool.cpp
; File D:\git\src\IBK\IBK_DRFN\ProjSrc\SrcChartEx\ChartAddIn\ChartAnalysisToolAddIn\Include_AddIn_133101\I133101\_IString.h
; File D:\git\src\IBK\IBK_DRFN\ProjSrc\SrcChartEx\ChartAddIn\ChartAnalysisToolAddIn\AnalysisTool\PointTool.cpp
; File D:\git\src\IBK\IBK_DRFN\ProjSrc\SrcChartEx\ChartAddIn\ChartAnalysisToolAddIn\Include_AddIn_133101\I133101\_IString.h
; File D:\git\src\IBK\IBK_DRFN\ProjSrc\SrcChartEx\ChartAddIn\ChartAnalysisToolAddIn\AnalysisTool\PointTool.cpp
; File D:\git\src\IBK\IBK_DRFN\ProjSrc\SrcChartEx\ChartAddIn\ChartAnalysisToolAddIn\Include_AddIn_133101\I133101\_IString.h
; File D:\git\src\IBK\IBK_DRFN\ProjSrc\SrcChartEx\ChartAddIn\ChartAnalysisToolAddIn\AnalysisTool\PointTool.cpp
; File D:\git\src\IBK\IBK_DRFN\ProjSrc\SrcChartEx\ChartAddIn\ChartAnalysisToolAddIn\Include_AddIn_133101\I133101\_IString.h
; File D:\git\src\IBK\IBK_DRFN\ProjSrc\SrcChartEx\ChartAddIn\ChartAnalysisToolAddIn\AnalysisTool\PointTool.cpp
; File D:\git\src\IBK\IBK_DRFN\ProjSrc\SrcChartEx\ChartAddIn\ChartAnalysisToolAddIn\Include_AddIn_133101\I133101\_IString.h
; File D:\git\src\IBK\IBK_DRFN\ProjSrc\SrcChartEx\ChartAddIn\ChartAnalysisToolAddIn\AnalysisTool\PointTool.cpp
;	COMDAT ?OnMouseMove@CMoveTool@@UAE_NPAVCDC@@ABVCPoint@@H@Z
_TEXT	SEGMENT
$T2 = -288						; size = 32
_points$ = -256						; size = 40
$T3 = -216						; size = 8
_dYValue$4 = -216					; size = 8
_dOpenYValue$5 = -208					; size = 8
_dCloseYValue$6 = -200					; size = 8
$T7 = -192						; size = 8
$T8 = -192						; size = 8
_posNew$9 = -192					; size = 8
_this$GSCopy$1$ = -184					; size = 4
_nV$10 = -180						; size = 4
_nG$11 = -176						; size = 4
_szGraphName$12 = -172					; size = 8
$T13 = -172						; size = 8
_nC$14 = -164						; size = 4
_nR$15 = -160						; size = 4
_szRQ$16 = -156						; size = 8
_coordinateCalculator$1$ = -148				; size = 4
$T17 = -148						; size = 4
_bResult$1$ = -144					; size = 4
_pPacketClose$1$ = -140					; size = 4
_point$GSCopy$1$ = -136					; size = 4
_nIndex$1$ = -136					; size = 4
$T18 = -129						; size = 1
_calcData$19 = -128					; size = 96
_region$20 = -32					; size = 16
__$ArrayPad$ = -16					; size = 4
__$EHRec$ = -12						; size = 12
_pDC$ = 8						; size = 4
_point$ = 12						; size = 4
_nFlags$ = 16						; size = 4
?OnMouseMove@CMoveTool@@UAE_NPAVCDC@@ABVCPoint@@H@Z PROC ; CMoveTool::OnMouseMove, COMDAT
; _this$ = ecx

; 65   : {

  00000	55		 push	 ebp
  00001	8b ec		 mov	 ebp, esp
  00003	6a ff		 push	 -1
  00005	68 00 00 00 00	 push	 __ehhandler$?OnMouseMove@CMoveTool@@UAE_NPAVCDC@@ABVCPoint@@H@Z
  0000a	64 a1 00 00 00
	00		 mov	 eax, DWORD PTR fs:0
  00010	50		 push	 eax
  00011	81 ec 14 01 00
	00		 sub	 esp, 276		; 00000114H
  00017	a1 00 00 00 00	 mov	 eax, DWORD PTR ___security_cookie
  0001c	33 c5		 xor	 eax, ebp
  0001e	89 45 f0	 mov	 DWORD PTR __$ArrayPad$[ebp], eax
  00021	56		 push	 esi
  00022	57		 push	 edi
  00023	50		 push	 eax
  00024	8d 45 f4	 lea	 eax, DWORD PTR __$EHRec$[ebp]
  00027	64 a3 00 00 00
	00		 mov	 DWORD PTR fs:0, eax
  0002d	8b f9		 mov	 edi, ecx
  0002f	89 bd 48 ff ff
	ff		 mov	 DWORD PTR _this$GSCopy$1$[ebp], edi
  00035	8b 75 0c	 mov	 esi, DWORD PTR _point$[ebp]

; 66   : 	m_ptMousePos = point;
; 67   : 	m_bMouseMoveChanged = TRUE;
; 68   : 	
; 69   : 	CPoints points = CTool::GetPointsAndSetDataType(point);	

  00038	56		 push	 esi
  00039	89 b5 78 ff ff
	ff		 mov	 DWORD PTR _point$GSCopy$1$[ebp], esi
  0003f	8b 06		 mov	 eax, DWORD PTR [esi]
  00041	8b 4e 04	 mov	 ecx, DWORD PTR [esi+4]
  00044	89 47 7c	 mov	 DWORD PTR [edi+124], eax
  00047	8d 85 00 ff ff
	ff		 lea	 eax, DWORD PTR _points$[ebp]
  0004d	89 8f 80 00 00
	00		 mov	 DWORD PTR [edi+128], ecx
  00053	8b cf		 mov	 ecx, edi
  00055	50		 push	 eax
  00056	c7 47 78 01 00
	00 00		 mov	 DWORD PTR [edi+120], 1
  0005d	e8 00 00 00 00	 call	 ?GetPointsAndSetDataType@CTool@@IAE?AVCPoints@@ABVCPoint@@@Z ; CTool::GetPointsAndSetDataType

; 70   : 	if( GetToolType() == CAnalysis::EN_ANALYSIS_CANDLE_LINE)

  00062	8b 07		 mov	 eax, DWORD PTR [edi]
  00064	8b cf		 mov	 ecx, edi
  00066	c7 45 fc 00 00
	00 00		 mov	 DWORD PTR __$EHRec$[ebp+8], 0
  0006d	8b 40 24	 mov	 eax, DWORD PTR [eax+36]
  00070	ff d0		 call	 eax
  00072	83 f8 1e	 cmp	 eax, 30			; 0000001eH
  00075	0f 85 b3 03 00
	00		 jne	 $LN2@OnMouseMov

; 71   : 	{
; 72   : 		CCoordinateCalculatorData calcData = GetCoordinateCalculatorData( points.GetDrawingPoint());

  0007b	8d 85 54 ff ff
	ff		 lea	 eax, DWORD PTR $T13[ebp]
  00081	50		 push	 eax
  00082	8d 8d 00 ff ff
	ff		 lea	 ecx, DWORD PTR _points$[ebp]
  00088	e8 00 00 00 00	 call	 ?GetDrawingPoint@CPoints@@QBE?AVCPoint@@XZ ; CPoints::GetDrawingPoint
  0008d	50		 push	 eax
  0008e	8d 45 80	 lea	 eax, DWORD PTR _calcData$19[ebp]
  00091	8b cf		 mov	 ecx, edi
  00093	50		 push	 eax
  00094	e8 00 00 00 00	 call	 ?GetCoordinateCalculatorData@CTool@@QBE?AVCCoordinateCalculatorData@@ABVCPoint@@@Z ; CTool::GetCoordinateCalculatorData

; 73   : 		CRect region = calcData.GetRegion();

  00099	8d 45 e0	 lea	 eax, DWORD PTR _region$20[ebp]
  0009c	c6 45 fc 01	 mov	 BYTE PTR __$EHRec$[ebp+8], 1
  000a0	50		 push	 eax
  000a1	8d 4d 80	 lea	 ecx, DWORD PTR _calcData$19[ebp]
  000a4	e8 00 00 00 00	 call	 ?GetRegion@CCoordinateCalculatorData@@QBE?AVCRect@@XZ ; CCoordinateCalculatorData::GetRegion
; File C:\Program Files (x86)\Microsoft Visual Studio\2019\Community\VC\Tools\MSVC\14.29.30133\atlmfc\include\atltypes.h

; 648  : 	return ::PtInRect(this, point);

  000a9	ff 76 04	 push	 DWORD PTR [esi+4]
  000ac	8d 45 e0	 lea	 eax, DWORD PTR _region$20[ebp]
  000af	ff 36		 push	 DWORD PTR [esi]
  000b1	50		 push	 eax
  000b2	ff 15 00 00 00
	00		 call	 DWORD PTR __imp__PtInRect@12
; File D:\git\src\IBK\IBK_DRFN\ProjSrc\SrcChartEx\ChartAddIn\ChartAnalysisToolAddIn\AnalysisTool\PointTool.cpp

; 74   : 		if( region.PtInRect(point) == FALSE || !calcData.IsValidAddInInterface()) return false;

  000b8	85 c0		 test	 eax, eax
  000ba	0f 84 73 02 00
	00		 je	 $LN4@OnMouseMov
; File D:\git\src\IBK\IBK_DRFN\ProjSrc\SrcChartEx\ChartAddIn\ChartAnalysisToolAddIn\Include_Analysis\CoordinateCalculatorData.h

; 128  : 							{	return m_pIChartManager && m_pIChartOCX && m_pIPacketListManager && m_pIDefaultPacketManager;	}

  000c0	83 7d c8 00	 cmp	 DWORD PTR _calcData$19[ebp+72], 0
  000c4	0f 84 69 02 00
	00		 je	 $LN4@OnMouseMov
  000ca	83 7d cc 00	 cmp	 DWORD PTR _calcData$19[ebp+76], 0
  000ce	0f 84 5f 02 00
	00		 je	 $LN4@OnMouseMov
  000d4	83 7d d0 00	 cmp	 DWORD PTR _calcData$19[ebp+80], 0
  000d8	0f 84 55 02 00
	00		 je	 $LN4@OnMouseMov
  000de	83 7d d4 00	 cmp	 DWORD PTR _calcData$19[ebp+84], 0
  000e2	0f 84 4b 02 00
	00		 je	 $LN4@OnMouseMov
; File D:\git\src\IBK\IBK_DRFN\ProjSrc\SrcChartEx\ChartAddIn\ChartAnalysisToolAddIn\AnalysisTool\PointTool.cpp

; 76   : 		CCoordinateCalculator& coordinateCalculator = CTool::GetCoordinateCalculator();

  000e8	8b cf		 mov	 ecx, edi
  000ea	e8 00 00 00 00	 call	 ?GetCoordinateCalculator@CTool@@UBEAAVCCoordinateCalculator@@XZ ; CTool::GetCoordinateCalculator

; 78   : 		ILPCSTR szRQ = calcData.m_pIChartOCX->GetCurrentRQ();

  000ef	8b 4d cc	 mov	 ecx, DWORD PTR _calcData$19[ebp+76]
  000f2	89 85 6c ff ff
	ff		 mov	 DWORD PTR _coordinateCalculator$1$[ebp], eax
  000f8	8b 11		 mov	 edx, DWORD PTR [ecx]
  000fa	8b 92 40 02 00
	00		 mov	 edx, DWORD PTR [edx+576]
  00100	ff d2		 call	 edx
; File D:\git\src\IBK\IBK_DRFN\ProjSrc\SrcChartEx\ChartAddIn\ChartAnalysisToolAddIn\Include_AddIn_133101\I133101\_IString.h

; 39   : 		m_pIStrData = p_pIString;	// Do not AddRef(). Because It must be Return Value.

  00102	8b f8		 mov	 edi, eax
  00104	89 bd 68 ff ff
	ff		 mov	 DWORD PTR _szRQ$16[ebp+4], edi

; 40   : 		if( m_pIStrData) m_szData = m_pIStrData->GetData();

  0010a	85 ff		 test	 edi, edi
  0010c	74 0d		 je	 SHORT $LN40@OnMouseMov
  0010e	8b 17		 mov	 edx, DWORD PTR [edi]
  00110	8b cf		 mov	 ecx, edi
  00112	8b 52 10	 mov	 edx, DWORD PTR [edx+16]
  00115	ff d2		 call	 edx
  00117	8b f0		 mov	 esi, eax
  00119	eb 02		 jmp	 SHORT $LN104@OnMouseMov
$LN40@OnMouseMov:

; 41   : 		else m_szData = NULL;

  0011b	33 f6		 xor	 esi, esi
$LN104@OnMouseMov:
; File D:\git\src\IBK\IBK_DRFN\ProjSrc\SrcChartEx\ChartAddIn\ChartAnalysisToolAddIn\AnalysisTool\PointTool.cpp

; 78   : 		ILPCSTR szRQ = calcData.m_pIChartOCX->GetCurrentRQ();

  0011d	89 b5 64 ff ff
	ff		 mov	 DWORD PTR _szRQ$16[ebp], esi

; 79   : 		int nR = calcData.GetBlockIndex().GetRow();

  00123	8d 4d 80	 lea	 ecx, DWORD PTR _calcData$19[ebp]
  00126	c6 45 fc 02	 mov	 BYTE PTR __$EHRec$[ebp+8], 2
  0012a	e8 00 00 00 00	 call	 ?GetBlockIndex@CCoordinateCalculatorData@@QAEAAVCBlockIndex@@XZ ; CCoordinateCalculatorData::GetBlockIndex

; 80   : 		int nC = calcData.GetBlockIndex().GetColumn();

  0012f	8d 4d 80	 lea	 ecx, DWORD PTR _calcData$19[ebp]
  00132	8b 00		 mov	 eax, DWORD PTR [eax]
  00134	89 85 60 ff ff
	ff		 mov	 DWORD PTR _nR$15[ebp], eax
  0013a	e8 00 00 00 00	 call	 ?GetBlockIndex@CCoordinateCalculatorData@@QAEAAVCBlockIndex@@XZ ; CCoordinateCalculatorData::GetBlockIndex

; 82   : 		ILPCSTR szGraphName = calcData.m_pIChartManager->FindNextIndicator( NULL, nR, nC, nV, nG, szRQ);

  0013f	8b 4d c8	 mov	 ecx, DWORD PTR _calcData$19[ebp+72]
  00142	8d 95 50 ff ff
	ff		 lea	 edx, DWORD PTR _nG$11[ebp]
  00148	56		 push	 esi
  00149	52		 push	 edx
  0014a	8b 40 04	 mov	 eax, DWORD PTR [eax+4]
  0014d	8d 95 4c ff ff
	ff		 lea	 edx, DWORD PTR _nV$10[ebp]
  00153	52		 push	 edx
  00154	89 85 5c ff ff
	ff		 mov	 DWORD PTR _nC$14[ebp], eax
  0015a	8d 95 5c ff ff
	ff		 lea	 edx, DWORD PTR _nC$14[ebp]
  00160	52		 push	 edx
  00161	c7 85 4c ff ff
	ff 00 00 00 00	 mov	 DWORD PTR _nV$10[ebp], 0
  0016b	8d 95 60 ff ff
	ff		 lea	 edx, DWORD PTR _nR$15[ebp]
  00171	c7 85 50 ff ff
	ff ff ff ff ff	 mov	 DWORD PTR _nG$11[ebp], -1
  0017b	8b 01		 mov	 eax, DWORD PTR [ecx]
  0017d	52		 push	 edx
  0017e	6a 00		 push	 0
  00180	8b 40 74	 mov	 eax, DWORD PTR [eax+116]
  00183	ff d0		 call	 eax
; File D:\git\src\IBK\IBK_DRFN\ProjSrc\SrcChartEx\ChartAddIn\ChartAnalysisToolAddIn\Include_AddIn_133101\I133101\_IString.h

; 39   : 		m_pIStrData = p_pIString;	// Do not AddRef(). Because It must be Return Value.

  00185	89 85 58 ff ff
	ff		 mov	 DWORD PTR _szGraphName$12[ebp+4], eax

; 40   : 		if( m_pIStrData) m_szData = m_pIStrData->GetData();

  0018b	85 c0		 test	 eax, eax
  0018d	74 0b		 je	 SHORT $LN44@OnMouseMov
  0018f	8b 10		 mov	 edx, DWORD PTR [eax]
  00191	8b c8		 mov	 ecx, eax
  00193	8b 52 10	 mov	 edx, DWORD PTR [edx+16]
  00196	ff d2		 call	 edx
  00198	eb 02		 jmp	 SHORT $LN105@OnMouseMov
$LN44@OnMouseMov:

; 41   : 		else m_szData = NULL;

  0019a	33 c0		 xor	 eax, eax
$LN105@OnMouseMov:
; File D:\git\src\IBK\IBK_DRFN\ProjSrc\SrcChartEx\ChartAddIn\ChartAnalysisToolAddIn\AnalysisTool\PointTool.cpp

; 82   : 		ILPCSTR szGraphName = calcData.m_pIChartManager->FindNextIndicator( NULL, nR, nC, nV, nG, szRQ);

  0019c	89 85 54 ff ff
	ff		 mov	 DWORD PTR _szGraphName$12[ebp], eax
  001a2	c6 45 fc 03	 mov	 BYTE PTR __$EHRec$[ebp+8], 3
; File D:\git\src\IBK\IBK_DRFN\ProjSrc\SrcChartEx\ChartAddIn\ChartAnalysisToolAddIn\Include_AddIn_133101\I133101\_IString.h

; 57   : 		if( !m_szData) return TRUE;

  001a6	85 f6		 test	 esi, esi
  001a8	74 33		 je	 SHORT $LN7@OnMouseMov
; File D:\git\src\IBK\IBK_DRFN\ProjSrc\SrcChartEx\ChartAddIn\ChartAnalysisToolAddIn\AnalysisTool\PointTool.cpp

; 84   : 			|| !( nR == calcData.GetBlockIndex().GetRow() && nC == calcData.GetBlockIndex().GetColumn()))

  001aa	80 3e 00	 cmp	 BYTE PTR [esi], 0
  001ad	74 2e		 je	 SHORT $LN7@OnMouseMov
; File D:\git\src\IBK\IBK_DRFN\ProjSrc\SrcChartEx\ChartAddIn\ChartAnalysisToolAddIn\Include_AddIn_133101\I133101\_IString.h

; 57   : 		if( !m_szData) return TRUE;

  001af	85 c0		 test	 eax, eax
  001b1	74 2a		 je	 SHORT $LN7@OnMouseMov
; File D:\git\src\IBK\IBK_DRFN\ProjSrc\SrcChartEx\ChartAddIn\ChartAnalysisToolAddIn\AnalysisTool\PointTool.cpp

; 84   : 			|| !( nR == calcData.GetBlockIndex().GetRow() && nC == calcData.GetBlockIndex().GetColumn()))

  001b3	80 38 00	 cmp	 BYTE PTR [eax], 0
  001b6	74 25		 je	 SHORT $LN7@OnMouseMov
  001b8	8d 4d 80	 lea	 ecx, DWORD PTR _calcData$19[ebp]
  001bb	e8 00 00 00 00	 call	 ?GetBlockIndex@CCoordinateCalculatorData@@QAEAAVCBlockIndex@@XZ ; CCoordinateCalculatorData::GetBlockIndex
  001c0	8b 8d 60 ff ff
	ff		 mov	 ecx, DWORD PTR _nR$15[ebp]
  001c6	3b 08		 cmp	 ecx, DWORD PTR [eax]
  001c8	75 13		 jne	 SHORT $LN7@OnMouseMov
  001ca	8d 4d 80	 lea	 ecx, DWORD PTR _calcData$19[ebp]
  001cd	e8 00 00 00 00	 call	 ?GetBlockIndex@CCoordinateCalculatorData@@QAEAAVCBlockIndex@@XZ ; CCoordinateCalculatorData::GetBlockIndex
  001d2	8b 8d 5c ff ff
	ff		 mov	 ecx, DWORD PTR _nC$14[ebp]
  001d8	3b 48 04	 cmp	 ecx, DWORD PTR [eax+4]
  001db	74 59		 je	 SHORT $LN56@OnMouseMov
$LN7@OnMouseMov:

; 85   : 			szRQ = calcData.m_pIChartManager->GetMainRQofBlock( calcData.GetBlockIndex().GetRow(), calcData.GetBlockIndex().GetColumn());

  001dd	8b 45 c8	 mov	 eax, DWORD PTR _calcData$19[ebp+72]
  001e0	8d 4d 80	 lea	 ecx, DWORD PTR _calcData$19[ebp]
  001e3	8b 38		 mov	 edi, DWORD PTR [eax]
  001e5	e8 00 00 00 00	 call	 ?GetBlockIndex@CCoordinateCalculatorData@@QAEAAVCBlockIndex@@XZ ; CCoordinateCalculatorData::GetBlockIndex
  001ea	8d 4d 80	 lea	 ecx, DWORD PTR _calcData$19[ebp]
  001ed	8b 70 04	 mov	 esi, DWORD PTR [eax+4]
  001f0	e8 00 00 00 00	 call	 ?GetBlockIndex@CCoordinateCalculatorData@@QAEAAVCBlockIndex@@XZ ; CCoordinateCalculatorData::GetBlockIndex
  001f5	8b 4d c8	 mov	 ecx, DWORD PTR _calcData$19[ebp+72]
  001f8	56		 push	 esi
  001f9	ff 30		 push	 DWORD PTR [eax]
  001fb	8b 87 30 01 00
	00		 mov	 eax, DWORD PTR [edi+304]
  00201	ff d0		 call	 eax
  00203	8b f0		 mov	 esi, eax
; File D:\git\src\IBK\IBK_DRFN\ProjSrc\SrcChartEx\ChartAddIn\ChartAnalysisToolAddIn\Include_AddIn_133101\I133101\_IString.h

; 67   : 		if( m_pIStrData) m_pIStrData->Release();

  00205	8b 85 68 ff ff
	ff		 mov	 eax, DWORD PTR _szRQ$16[ebp+4]
  0020b	85 c0		 test	 eax, eax
  0020d	74 06		 je	 SHORT $LN54@OnMouseMov
  0020f	8b 08		 mov	 ecx, DWORD PTR [eax]
  00211	50		 push	 eax
  00212	ff 51 08	 call	 DWORD PTR [ecx+8]
$LN54@OnMouseMov:

; 68   : 		m_pIStrData = stringSrc;	// Do not AddRef(). Because It must be Return Value.

  00215	8b fe		 mov	 edi, esi
  00217	89 bd 68 ff ff
	ff		 mov	 DWORD PTR _szRQ$16[ebp+4], edi
  0021d	85 f6		 test	 esi, esi

; 69   : 		if( m_pIStrData) m_szData = m_pIStrData->GetData();

  0021f	74 0d		 je	 SHORT $LN55@OnMouseMov
  00221	8b 06		 mov	 eax, DWORD PTR [esi]
  00223	8b ce		 mov	 ecx, esi
  00225	8b 40 10	 mov	 eax, DWORD PTR [eax+16]
  00228	ff d0		 call	 eax
  0022a	8b f0		 mov	 esi, eax
  0022c	eb 02		 jmp	 SHORT $LN106@OnMouseMov
$LN55@OnMouseMov:

; 70   : 		else m_szData = NULL;

  0022e	33 f6		 xor	 esi, esi
$LN106@OnMouseMov:
; File D:\git\src\IBK\IBK_DRFN\ProjSrc\SrcChartEx\ChartAddIn\ChartAnalysisToolAddIn\AnalysisTool\PointTool.cpp

; 87   : 		int nIndex = calcData.m_pIChartManager->FindViewDataIndex_Pt(szRQ, point.x);

  00230	89 b5 64 ff ff
	ff		 mov	 DWORD PTR _szRQ$16[ebp], esi
$LN56@OnMouseMov:
  00236	8b 4d c8	 mov	 ecx, DWORD PTR _calcData$19[ebp+72]
  00239	8b 95 78 ff ff
	ff		 mov	 edx, DWORD PTR _point$GSCopy$1$[ebp]
  0023f	6a 00		 push	 0
  00241	6a 00		 push	 0
  00243	8b 01		 mov	 eax, DWORD PTR [ecx]
  00245	ff 32		 push	 DWORD PTR [edx]
  00247	56		 push	 esi
  00248	8b 80 04 01 00
	00		 mov	 eax, DWORD PTR [eax+260]
  0024e	ff d0		 call	 eax

; 88   : 
; 89   : 		//<< (2008/12/26 - Seung-Lyong, Park)  
; 90   : 		double dCloseYValue = 0.0;
; 91   : 		double dOpenYValue = 0.0;
; 92   : //		IPacket* pPacketClose = pPacketManager->GetPacket(_MTEXT( C0_CLOSE));
; 93   : 		IPacket* pPacketClose = calcData.m_pIPacketListManager->GetPacket( szRQ, _MTEXT( C0_CLOSE));

  00250	8b 55 d0	 mov	 edx, DWORD PTR _calcData$19[ebp+80]
  00253	0f 57 c0	 xorps	 xmm0, xmm0
  00256	8b 0d 54 00 00
	00		 mov	 ecx, DWORD PTR ?g_iMetaTable@@3VIMetaTable@@A+84
  0025c	89 85 78 ff ff
	ff		 mov	 DWORD PTR _nIndex$1$[ebp], eax
  00262	f2 0f 11 85 38
	ff ff ff	 movsd	 QWORD PTR _dCloseYValue$6[ebp], xmm0
  0026a	f2 0f 11 85 30
	ff ff ff	 movsd	 QWORD PTR _dOpenYValue$5[ebp], xmm0
  00272	8b 02		 mov	 eax, DWORD PTR [edx]
  00274	ff 71 14	 push	 DWORD PTR [ecx+20]
  00277	8b ca		 mov	 ecx, edx
  00279	56		 push	 esi
  0027a	8b 40 14	 mov	 eax, DWORD PTR [eax+20]
  0027d	ff d0		 call	 eax

; 94   : //		IPacket* pPacketOpen = pPacketManager->GetPacket( _MTEXT( C0_OPEN));
; 95   : 		IPacket* pPacketOpen = calcData.m_pIPacketListManager->GetPacket( szRQ, _MTEXT( C0_OPEN));

  0027f	8b 55 d0	 mov	 edx, DWORD PTR _calcData$19[ebp+80]
  00282	8b 0d 54 00 00
	00		 mov	 ecx, DWORD PTR ?g_iMetaTable@@3VIMetaTable@@A+84
  00288	89 85 74 ff ff
	ff		 mov	 DWORD PTR _pPacketClose$1$[ebp], eax
  0028e	8b 32		 mov	 esi, DWORD PTR [edx]
  00290	ff 71 08	 push	 DWORD PTR [ecx+8]
  00293	8b ca		 mov	 ecx, edx
  00295	ff b5 64 ff ff
	ff		 push	 DWORD PTR _szRQ$16[ebp]
  0029b	8b 56 14	 mov	 edx, DWORD PTR [esi+20]
  0029e	ff d2		 call	 edx

; 96   : //<<      - vntsorl(20090202)
; 97   : 		BOOL bResult = ( pPacketClose && pPacketOpen);

  002a0	8b 8d 74 ff ff
	ff		 mov	 ecx, DWORD PTR _pPacketClose$1$[ebp]
  002a6	8b f0		 mov	 esi, eax
  002a8	85 c9		 test	 ecx, ecx
  002aa	0f 84 97 00 00
	00		 je	 $LN9@OnMouseMov
  002b0	85 f6		 test	 esi, esi
  002b2	0f 84 8f 00 00
	00		 je	 $LN9@OnMouseMov

; 98   : 		if( bResult)
; 99   : 		{
; 100  : 			bResult = pPacketClose->GetData( nIndex, dCloseYValue);

  002b8	8b 01		 mov	 eax, DWORD PTR [ecx]
  002ba	8d 95 38 ff ff
	ff		 lea	 edx, DWORD PTR _dCloseYValue$6[ebp]
  002c0	52		 push	 edx
  002c1	ff b5 78 ff ff
	ff		 push	 DWORD PTR _nIndex$1$[ebp]
  002c7	8b 40 40	 mov	 eax, DWORD PTR [eax+64]
  002ca	ff d0		 call	 eax
  002cc	89 85 70 ff ff
	ff		 mov	 DWORD PTR _bResult$1$[ebp], eax

; 101  : 			if( bResult) bResult = pPacketOpen->GetData( nIndex, dOpenYValue);

  002d2	85 c0		 test	 eax, eax
  002d4	74 1c		 je	 SHORT $LN102@OnMouseMov
  002d6	8b 06		 mov	 eax, DWORD PTR [esi]
  002d8	8d 8d 30 ff ff
	ff		 lea	 ecx, DWORD PTR _dOpenYValue$5[ebp]
  002de	51		 push	 ecx
  002df	ff b5 78 ff ff
	ff		 push	 DWORD PTR _nIndex$1$[ebp]
  002e5	8b ce		 mov	 ecx, esi
  002e7	8b 40 40	 mov	 eax, DWORD PTR [eax+64]
  002ea	ff d0		 call	 eax
  002ec	89 85 70 ff ff
	ff		 mov	 DWORD PTR _bResult$1$[ebp], eax
$LN102@OnMouseMov:

; 102  : 		}
; 103  : 		if( pPacketClose) pPacketClose->Release();

  002f2	8b 8d 74 ff ff
	ff		 mov	 ecx, DWORD PTR _pPacketClose$1$[ebp]
$LN101@OnMouseMov:
  002f8	8b 01		 mov	 eax, DWORD PTR [ecx]
  002fa	51		 push	 ecx
  002fb	ff 50 08	 call	 DWORD PTR [eax+8]
$LN10@OnMouseMov:

; 104  : 		if( pPacketOpen) pPacketOpen->Release();	

  002fe	85 f6		 test	 esi, esi
  00300	74 06		 je	 SHORT $LN11@OnMouseMov
  00302	8b 06		 mov	 eax, DWORD PTR [esi]
  00304	56		 push	 esi
  00305	ff 50 08	 call	 DWORD PTR [eax+8]
$LN11@OnMouseMov:

; 105  : 		if( !bResult) return false;

  00308	83 bd 70 ff ff
	ff 00		 cmp	 DWORD PTR _bResult$1$[ebp], 0
  0030f	75 46		 jne	 SHORT $LN12@OnMouseMov
; File D:\git\src\IBK\IBK_DRFN\ProjSrc\SrcChartEx\ChartAddIn\ChartAnalysisToolAddIn\Include_AddIn_133101\I133101\_IString.h

; 45   : 		if( m_pIStrData)

  00311	8b 8d 58 ff ff
	ff		 mov	 ecx, DWORD PTR _szGraphName$12[ebp+4]
  00317	c6 45 fc 04	 mov	 BYTE PTR __$EHRec$[ebp+8], 4
  0031b	85 c9		 test	 ecx, ecx
  0031d	74 06		 je	 SHORT $LN59@OnMouseMov

; 46   : 		{
; 47   : 			m_pIStrData->Release();

  0031f	8b 01		 mov	 eax, DWORD PTR [ecx]
  00321	51		 push	 ecx
  00322	ff 50 08	 call	 DWORD PTR [eax+8]
$LN59@OnMouseMov:

; 44   : 	{

  00325	c6 45 fc 05	 mov	 BYTE PTR __$EHRec$[ebp+8], 5

; 45   : 		if( m_pIStrData)

  00329	85 ff		 test	 edi, edi
  0032b	74 06		 je	 SHORT $LN4@OnMouseMov

; 46   : 		{
; 47   : 			m_pIStrData->Release();

  0032d	8b 07		 mov	 eax, DWORD PTR [edi]
  0032f	57		 push	 edi
  00330	ff 50 08	 call	 DWORD PTR [eax+8]
$LN4@OnMouseMov:
; File D:\git\src\IBK\IBK_DRFN\ProjSrc\SrcChartEx\ChartAddIn\ChartAnalysisToolAddIn\AnalysisTool\PointTool.cpp

; 105  : 		if( !bResult) return false;

  00333	8d 4d 80	 lea	 ecx, DWORD PTR _calcData$19[ebp]
  00336	e8 00 00 00 00	 call	 ??1CCoordinateCalculatorData@@QAE@XZ ; CCoordinateCalculatorData::~CCoordinateCalculatorData
  0033b	c6 85 7f ff ff
	ff 00		 mov	 BYTE PTR $T18[ebp], 0
  00342	e9 6b 01 00 00	 jmp	 $LN26@OnMouseMov
$LN9@OnMouseMov:

; 102  : 		}
; 103  : 		if( pPacketClose) pPacketClose->Release();

  00347	c7 85 70 ff ff
	ff 00 00 00 00	 mov	 DWORD PTR _bResult$1$[ebp], 0
  00351	85 c9		 test	 ecx, ecx
  00353	74 a9		 je	 SHORT $LN10@OnMouseMov

; 101  : 			if( bResult) bResult = pPacketOpen->GetData( nIndex, dOpenYValue);

  00355	eb a1		 jmp	 SHORT $LN101@OnMouseMov
$LN12@OnMouseMov:

; 106  : 
; 107  : 		double dYValue = min(dCloseYValue,dOpenYValue);
; 108  : 		dYValue+= fabs(dCloseYValue - dOpenYValue)/2;

  00357	f2 0f 10 8d 38
	ff ff ff	 movsd	 xmm1, QWORD PTR _dCloseYValue$6[ebp]

; 109  : 		points.SetPoints_Value_Y(dYValue); 

  0035f	8d 85 28 ff ff
	ff		 lea	 eax, DWORD PTR _dYValue$4[ebp]
  00365	0f 28 d1	 movaps	 xmm2, xmm1
  00368	8d 8d 00 ff ff
	ff		 lea	 ecx, DWORD PTR _points$[ebp]
  0036e	f2 0f 5c 95 30
	ff ff ff	 subsd	 xmm2, QWORD PTR _dOpenYValue$5[ebp]
  00376	f2 0f 5d 8d 30
	ff ff ff	 minsd	 xmm1, QWORD PTR _dOpenYValue$5[ebp]
  0037e	50		 push	 eax
  0037f	0f 54 15 00 00
	00 00		 andps	 xmm2, QWORD PTR __xmm@7fffffffffffffff7fffffffffffffff
  00386	f2 0f 59 15 00
	00 00 00	 mulsd	 xmm2, QWORD PTR __real@3fe0000000000000
  0038e	f2 0f 58 d1	 addsd	 xmm2, xmm1
  00392	f2 0f 11 95 28
	ff ff ff	 movsd	 QWORD PTR _dYValue$4[ebp], xmm2
  0039a	e8 00 00 00 00	 call	 ?SetPoints_Value_Y@CPoints@@QAEXABN@Z ; CPoints::SetPoints_Value_Y

; 110  : 		
; 111  : 		CPoint posNew = coordinateCalculator.RelativeToAbsolute(calcData, points.GetSavingPoint());

  0039f	8d 85 e0 fe ff
	ff		 lea	 eax, DWORD PTR $T2[ebp]
  003a5	50		 push	 eax
  003a6	8d 8d 00 ff ff
	ff		 lea	 ecx, DWORD PTR _points$[ebp]
  003ac	e8 00 00 00 00	 call	 ?GetSavingPoint@CPoints@@QBE?AVCCoordinate@@XZ ; CPoints::GetSavingPoint
  003b1	8b 8d 6c ff ff
	ff		 mov	 ecx, DWORD PTR _coordinateCalculator$1$[ebp]
  003b7	50		 push	 eax
  003b8	8d 45 80	 lea	 eax, DWORD PTR _calcData$19[ebp]
  003bb	c6 45 fc 06	 mov	 BYTE PTR __$EHRec$[ebp+8], 6
  003bf	50		 push	 eax
  003c0	8d 85 40 ff ff
	ff		 lea	 eax, DWORD PTR _posNew$9[ebp]
  003c6	50		 push	 eax
  003c7	e8 00 00 00 00	 call	 ?RelativeToAbsolute@CCoordinateCalculator@@QBE?AVCPoint@@ABVCCoordinateCalculatorData@@ABVCCoordinate@@@Z ; CCoordinateCalculator::RelativeToAbsolute
  003cc	8d 8d f4 fe ff
	ff		 lea	 ecx, DWORD PTR $T2[ebp+20]
  003d2	c6 45 fc 03	 mov	 BYTE PTR __$EHRec$[ebp+8], 3
  003d6	ff 15 00 00 00
	00		 call	 DWORD PTR __imp_??1?$CStringT@DV?$StrTraitMFC_DLL@DV?$ChTraitsCRT@D@ATL@@@@@ATL@@QAE@XZ

; 112  : 		points.SetPoints_Point_Y(posNew.y);

  003dc	8b 85 44 ff ff
	ff		 mov	 eax, DWORD PTR _posNew$9[ebp+4]
  003e2	8d 8d 00 ff ff
	ff		 lea	 ecx, DWORD PTR _points$[ebp]
  003e8	89 85 6c ff ff
	ff		 mov	 DWORD PTR $T17[ebp], eax
  003ee	8d 85 6c ff ff
	ff		 lea	 eax, DWORD PTR $T17[ebp]
  003f4	50		 push	 eax
  003f5	e8 00 00 00 00	 call	 ?SetPoints_Point_Y@CPoints@@QAEXABH@Z ; CPoints::SetPoints_Point_Y
; File D:\git\src\IBK\IBK_DRFN\ProjSrc\SrcChartEx\ChartAddIn\ChartAnalysisToolAddIn\Include_AddIn_133101\I133101\_IString.h

; 45   : 		if( m_pIStrData)

  003fa	8b 8d 58 ff ff
	ff		 mov	 ecx, DWORD PTR _szGraphName$12[ebp+4]
  00400	c6 45 fc 07	 mov	 BYTE PTR __$EHRec$[ebp+8], 7
  00404	85 c9		 test	 ecx, ecx
  00406	74 06		 je	 SHORT $LN76@OnMouseMov

; 46   : 		{
; 47   : 			m_pIStrData->Release();

  00408	8b 01		 mov	 eax, DWORD PTR [ecx]
  0040a	51		 push	 ecx
  0040b	ff 50 08	 call	 DWORD PTR [eax+8]
$LN76@OnMouseMov:

; 44   : 	{

  0040e	c6 45 fc 08	 mov	 BYTE PTR __$EHRec$[ebp+8], 8

; 45   : 		if( m_pIStrData)

  00412	85 ff		 test	 edi, edi
  00414	74 06		 je	 SHORT $LN80@OnMouseMov

; 46   : 		{
; 47   : 			m_pIStrData->Release();

  00416	8b 07		 mov	 eax, DWORD PTR [edi]
  00418	57		 push	 edi
  00419	ff 50 08	 call	 DWORD PTR [eax+8]
$LN80@OnMouseMov:
; File D:\git\src\IBK\IBK_DRFN\ProjSrc\SrcChartEx\ChartAddIn\ChartAnalysisToolAddIn\AnalysisTool\PointTool.cpp

; 113  : 	}

  0041c	8d 4d 80	 lea	 ecx, DWORD PTR _calcData$19[ebp]
  0041f	c6 45 fc 00	 mov	 BYTE PTR __$EHRec$[ebp+8], 0
  00423	e8 00 00 00 00	 call	 ??1CCoordinateCalculatorData@@QAE@XZ ; CCoordinateCalculatorData::~CCoordinateCalculatorData
  00428	8b bd 48 ff ff
	ff		 mov	 edi, DWORD PTR _this$GSCopy$1$[ebp]
$LN2@OnMouseMov:

; 114  : 	
; 115  : 	CTool::SetDrawingRegions(points.GetDrawingPoint());

  0042e	8d 85 40 ff ff
	ff		 lea	 eax, DWORD PTR $T8[ebp]
  00434	50		 push	 eax
  00435	8d 8d 00 ff ff
	ff		 lea	 ecx, DWORD PTR _points$[ebp]
  0043b	e8 00 00 00 00	 call	 ?GetDrawingPoint@CPoints@@QBE?AVCPoint@@XZ ; CPoints::GetDrawingPoint
  00440	50		 push	 eax
  00441	8b cf		 mov	 ecx, edi
  00443	e8 00 00 00 00	 call	 ?SetDrawingRegions@CTool@@IAEXABVCPoint@@@Z ; CTool::SetDrawingRegions

; 116  : 	if(OnMouseMove_InNotDrawingRegion(points.GetDrawingPoint()))

  00448	8d 85 40 ff ff
	ff		 lea	 eax, DWORD PTR $T7[ebp]
  0044e	50		 push	 eax
  0044f	8d 8d 00 ff ff
	ff		 lea	 ecx, DWORD PTR _points$[ebp]
  00455	e8 00 00 00 00	 call	 ?GetDrawingPoint@CPoints@@QBE?AVCPoint@@XZ ; CPoints::GetDrawingPoint

; 160  : 	if(PointInDrawingRegion(point))

  0045a	50		 push	 eax
  0045b	8b 07		 mov	 eax, DWORD PTR [edi]
  0045d	8b cf		 mov	 ecx, edi
  0045f	8b 40 1c	 mov	 eax, DWORD PTR [eax+28]
  00462	ff d0		 call	 eax
  00464	8d 8f 88 00 00
	00		 lea	 ecx, DWORD PTR [edi+136]
  0046a	84 c0		 test	 al, al
  0046c	75 2a		 jne	 SHORT $LN13@OnMouseMov

; 161  : 		return false;
; 162  : 
; 163  : 	//     
; 164  : 	// ->      .
; 165  : 	if(PointInDrawingRegion(m_points.GetDrawingPoint()))

  0046e	8b 37		 mov	 esi, DWORD PTR [edi]
  00470	8d 85 28 ff ff
	ff		 lea	 eax, DWORD PTR $T3[ebp]
  00476	50		 push	 eax
  00477	e8 00 00 00 00	 call	 ?GetDrawingPoint@CPoints@@QBE?AVCPoint@@XZ ; CPoints::GetDrawingPoint
  0047c	50		 push	 eax
  0047d	8b 46 1c	 mov	 eax, DWORD PTR [esi+28]
  00480	8b cf		 mov	 ecx, edi
  00482	ff d0		 call	 eax
  00484	84 c0		 test	 al, al
  00486	74 07		 je	 SHORT $LN85@OnMouseMov

; 166  : 		CTool::Invalidate();

  00488	8b cf		 mov	 ecx, edi
  0048a	e8 00 00 00 00	 call	 ?Invalidate@CTool@@QAEXXZ ; CTool::Invalidate
$LN85@OnMouseMov:
  0048f	c6 85 7f ff ff
	ff 00		 mov	 BYTE PTR $T18[ebp], 0
  00496	eb 1a		 jmp	 SHORT $LN26@OnMouseMov
$LN13@OnMouseMov:

; 117  : 		return false;
; 118  : 	
; 119  : 	m_points = points;

  00498	8d 85 00 ff ff
	ff		 lea	 eax, DWORD PTR _points$[ebp]
  0049e	50		 push	 eax
  0049f	e8 00 00 00 00	 call	 ??4CPoints@@QAEAAV0@ABV0@@Z ; CPoints::operator=

; 120  : 	CTool::Invalidate();

  004a4	8b cf		 mov	 ecx, edi
  004a6	e8 00 00 00 00	 call	 ?Invalidate@CTool@@QAEXXZ ; CTool::Invalidate

; 121  : 	return true;

  004ab	c6 85 7f ff ff
	ff 01		 mov	 BYTE PTR $T18[ebp], 1
$LN26@OnMouseMov:
  004b2	8d 8d 14 ff ff
	ff		 lea	 ecx, DWORD PTR _points$[ebp+20]
  004b8	ff 15 00 00 00
	00		 call	 DWORD PTR __imp_??1?$CStringT@DV?$StrTraitMFC_DLL@DV?$ChTraitsCRT@D@ATL@@@@@ATL@@QAE@XZ
  004be	8a 85 7f ff ff
	ff		 mov	 al, BYTE PTR $T18[ebp]

; 122  : }

  004c4	8b 4d f4	 mov	 ecx, DWORD PTR __$EHRec$[ebp]
  004c7	64 89 0d 00 00
	00 00		 mov	 DWORD PTR fs:0, ecx
  004ce	59		 pop	 ecx
  004cf	5f		 pop	 edi
  004d0	5e		 pop	 esi
  004d1	8b 4d f0	 mov	 ecx, DWORD PTR __$ArrayPad$[ebp]
  004d4	33 cd		 xor	 ecx, ebp
  004d6	e8 00 00 00 00	 call	 @__security_check_cookie@4
  004db	8b e5		 mov	 esp, ebp
  004dd	5d		 pop	 ebp
  004de	c2 0c 00	 ret	 12			; 0000000cH
_TEXT	ENDS
;	COMDAT text$x
text$x	SEGMENT
__unwindfunclet$?OnMouseMove@CMoveTool@@UAE_NPAVCDC@@ABVCPoint@@H@Z$0:
  00000	8d 8d 00 ff ff
	ff		 lea	 ecx, DWORD PTR _points$[ebp]
  00006	e9 00 00 00 00	 jmp	 ??1CPoints@@QAE@XZ
__unwindfunclet$?OnMouseMove@CMoveTool@@UAE_NPAVCDC@@ABVCPoint@@H@Z$1:
  0000b	8d 4d 80	 lea	 ecx, DWORD PTR _calcData$19[ebp]
  0000e	e9 00 00 00 00	 jmp	 ??1CCoordinateCalculatorData@@QAE@XZ ; CCoordinateCalculatorData::~CCoordinateCalculatorData
__unwindfunclet$?OnMouseMove@CMoveTool@@UAE_NPAVCDC@@ABVCPoint@@H@Z$2:
  00013	8d 8d 64 ff ff
	ff		 lea	 ecx, DWORD PTR _szRQ$16[ebp]
  00019	e9 00 00 00 00	 jmp	 ??1ILPCSTR133101@@QAE@XZ ; ILPCSTR133101::~ILPCSTR133101
__unwindfunclet$?OnMouseMove@CMoveTool@@UAE_NPAVCDC@@ABVCPoint@@H@Z$3:
  0001e	8d 8d 54 ff ff
	ff		 lea	 ecx, DWORD PTR _szGraphName$12[ebp]
  00024	e9 00 00 00 00	 jmp	 ??1ILPCSTR133101@@QAE@XZ ; ILPCSTR133101::~ILPCSTR133101
__unwindfunclet$?OnMouseMove@CMoveTool@@UAE_NPAVCDC@@ABVCPoint@@H@Z$4:
  00029	8d 8d e0 fe ff
	ff		 lea	 ecx, DWORD PTR $T2[ebp]
  0002f	e9 00 00 00 00	 jmp	 ??1CCoordinate@@QAE@XZ
  00034	cc		 int	 3
  00035	cc		 int	 3
  00036	cc		 int	 3
  00037	cc		 int	 3
  00038	cc		 int	 3
__ehhandler$?OnMouseMove@CMoveTool@@UAE_NPAVCDC@@ABVCPoint@@H@Z:
  00039	90		 npad	 1
  0003a	90		 npad	 1
  0003b	8b 54 24 08	 mov	 edx, DWORD PTR [esp+8]
  0003f	8d 42 0c	 lea	 eax, DWORD PTR [edx+12]
  00042	8b 8a e0 fe ff
	ff		 mov	 ecx, DWORD PTR [edx-288]
  00048	33 c8		 xor	 ecx, eax
  0004a	e8 00 00 00 00	 call	 @__security_check_cookie@4
  0004f	8b 4a fc	 mov	 ecx, DWORD PTR [edx-4]
  00052	33 c8		 xor	 ecx, eax
  00054	e8 00 00 00 00	 call	 @__security_check_cookie@4
  00059	b8 00 00 00 00	 mov	 eax, OFFSET __ehfuncinfo$?OnMouseMove@CMoveTool@@UAE_NPAVCDC@@ABVCPoint@@H@Z
  0005e	e9 00 00 00 00	 jmp	 ___CxxFrameHandler3
text$x	ENDS
?OnMouseMove@CMoveTool@@UAE_NPAVCDC@@ABVCPoint@@H@Z ENDP ; CMoveTool::OnMouseMove
; Function compile flags: /Ogtp
; File D:\git\src\IBK\IBK_DRFN\ProjSrc\SrcChartEx\ChartAddIn\ChartAnalysisToolAddIn\AnalysisTool\PointTool.cpp
;	COMDAT ?OnLButtonUp@CMoveTool@@UAEXPAVCDC@@ABVCPoint@@@Z
_TEXT	SEGMENT
_pDC$ = 8						; size = 4
_point$ = 12						; size = 4
?OnLButtonUp@CMoveTool@@UAEXPAVCDC@@ABVCPoint@@@Z PROC	; CMoveTool::OnLButtonUp, COMDAT
; _this$ = ecx

; 58   : {

  00000	55		 push	 ebp
  00001	8b ec		 mov	 ebp, esp
  00003	56		 push	 esi
  00004	8b f1		 mov	 esi, ecx

; 59   : 	m_bMouseMoveChanged = TRUE;
; 60   : 	CTool::SetProcessStarting(true);

  00006	6a 01		 push	 1
  00008	c7 46 78 01 00
	00 00		 mov	 DWORD PTR [esi+120], 1
  0000f	e8 00 00 00 00	 call	 ?SetProcessStarting@CTool@@QAEX_N@Z ; CTool::SetProcessStarting

; 61   : 	CTool::OnLButtonUp(pDC, point);

  00014	ff 75 0c	 push	 DWORD PTR _point$[ebp]
  00017	8b ce		 mov	 ecx, esi
  00019	ff 75 08	 push	 DWORD PTR _pDC$[ebp]
  0001c	e8 00 00 00 00	 call	 ?OnLButtonUp@CTool@@UAEXPAVCDC@@ABVCPoint@@@Z ; CTool::OnLButtonUp
  00021	5e		 pop	 esi

; 62   : }

  00022	5d		 pop	 ebp
  00023	c2 08 00	 ret	 8
?OnLButtonUp@CMoveTool@@UAEXPAVCDC@@ABVCPoint@@@Z ENDP	; CMoveTool::OnLButtonUp
_TEXT	ENDS
; Function compile flags: /Ogtp
; File D:\git\src\IBK\IBK_DRFN\ProjSrc\SrcChartEx\ChartAddIn\ChartAnalysisToolAddIn\AnalysisTool\PointTool.cpp
;	COMDAT ?OnLButtonDown@CMoveTool@@UAEPAVCElement@@PAVCDC@@ABVCPoint@@@Z
_TEXT	SEGMENT
___formal$ = 8						; size = 4
___formal$ = 12						; size = 4
?OnLButtonDown@CMoveTool@@UAEPAVCElement@@PAVCDC@@ABVCPoint@@@Z PROC ; CMoveTool::OnLButtonDown, COMDAT
; _this$ = ecx

; 53   : 	//m_points = CTool::GetPointsAndSetDataType(point);
; 54   : 	return NULL;

  00000	33 c0		 xor	 eax, eax

; 55   : }

  00002	c2 08 00	 ret	 8
?OnLButtonDown@CMoveTool@@UAEPAVCElement@@PAVCDC@@ABVCPoint@@@Z ENDP ; CMoveTool::OnLButtonDown
_TEXT	ENDS
; Function compile flags: /Ogtp
; File D:\git\src\IBK\IBK_DRFN\ProjSrc\SrcChartEx\ChartAddIn\ChartAnalysisToolAddIn\AnalysisTool\PointTool.cpp
;	COMDAT ?Initialize@CMoveTool@@UAEXXZ
_TEXT	SEGMENT
?Initialize@CMoveTool@@UAEXXZ PROC			; CMoveTool::Initialize, COMDAT
; _this$ = ecx

; 44   : {

  00000	56		 push	 esi
  00001	8b f1		 mov	 esi, ecx

; 45   : 	m_bMouseMoveChanged = TRUE;

  00003	c7 46 78 01 00
	00 00		 mov	 DWORD PTR [esi+120], 1

; 46   : 	CTool::Initialize();

  0000a	e8 00 00 00 00	 call	 ?Initialize@CTool@@UAEXXZ ; CTool::Initialize

; 47   : 	CTool::SetProcessStarting(true);

  0000f	6a 01		 push	 1
  00011	8b ce		 mov	 ecx, esi
  00013	e8 00 00 00 00	 call	 ?SetProcessStarting@CTool@@QAEX_N@Z ; CTool::SetProcessStarting
  00018	5e		 pop	 esi

; 48   : }

  00019	c3		 ret	 0
?Initialize@CMoveTool@@UAEXXZ ENDP			; CMoveTool::Initialize
_TEXT	ENDS
; Function compile flags: /Ogtp
; File D:\git\src\IBK\IBK_DRFN\ProjSrc\SrcChartEx\ChartAddIn\ChartAnalysisToolAddIn\AnalysisTool\PointTool.cpp
; File C:\Program Files (x86)\Microsoft Visual Studio\2019\Community\VC\Tools\MSVC\14.29.30133\atlmfc\include\atltypes.h
; File D:\git\src\IBK\IBK_DRFN\ProjSrc\SrcChartEx\ChartAddIn\ChartAnalysisToolAddIn\AnalysisTool\PointTool.cpp
;	COMDAT ??0CMoveTool@@IAE@PAVCAnalysisData@@W4COORDINATETYPE@CAnalysis@@@Z
_TEXT	SEGMENT
_this$ = -16						; size = 4
__$EHRec$ = -12						; size = 12
_pAnalysisData$ = 8					; size = 4
_eCoordinateType$ = 12					; size = 4
??0CMoveTool@@IAE@PAVCAnalysisData@@W4COORDINATETYPE@CAnalysis@@@Z PROC ; CMoveTool::CMoveTool, COMDAT
; _this$ = ecx

; 36   : {

  00000	55		 push	 ebp
  00001	8b ec		 mov	 ebp, esp
  00003	6a ff		 push	 -1
  00005	68 00 00 00 00	 push	 __ehhandler$??0CMoveTool@@IAE@PAVCAnalysisData@@W4COORDINATETYPE@CAnalysis@@@Z
  0000a	64 a1 00 00 00
	00		 mov	 eax, DWORD PTR fs:0
  00010	50		 push	 eax
  00011	51		 push	 ecx
  00012	56		 push	 esi
  00013	a1 00 00 00 00	 mov	 eax, DWORD PTR ___security_cookie
  00018	33 c5		 xor	 eax, ebp
  0001a	50		 push	 eax
  0001b	8d 45 f4	 lea	 eax, DWORD PTR __$EHRec$[ebp]
  0001e	64 a3 00 00 00
	00		 mov	 DWORD PTR fs:0, eax
  00024	8b f1		 mov	 esi, ecx
  00026	89 75 f0	 mov	 DWORD PTR _this$[ebp], esi

; 35   : 	CTool(pAnalysisData, eCoordinateType)

  00029	ff 75 0c	 push	 DWORD PTR _eCoordinateType$[ebp]
  0002c	ff 75 08	 push	 DWORD PTR _pAnalysisData$[ebp]
  0002f	e8 00 00 00 00	 call	 ??0CTool@@IAE@PAVCAnalysisData@@W4COORDINATETYPE@CAnalysis@@@Z ; CTool::CTool

; 36   : {

  00034	c7 06 00 00 00
	00		 mov	 DWORD PTR [esi], OFFSET ??_7CMoveTool@@6B@
  0003a	8d 8e 88 00 00
	00		 lea	 ecx, DWORD PTR [esi+136]
  00040	c7 45 fc 00 00
	00 00		 mov	 DWORD PTR __$EHRec$[ebp+8], 0
; File C:\Program Files (x86)\Microsoft Visual Studio\2019\Community\VC\Tools\MSVC\14.29.30133\atlmfc\include\atltypes.h

; 400  : 	x = 0;

  00047	c7 46 7c 00 00
	00 00		 mov	 DWORD PTR [esi+124], 0

; 401  : 	y = 0;

  0004e	c7 86 80 00 00
	00 00 00 00 00	 mov	 DWORD PTR [esi+128], 0
; File D:\git\src\IBK\IBK_DRFN\ProjSrc\SrcChartEx\ChartAddIn\ChartAnalysisToolAddIn\AnalysisTool\PointTool.cpp

; 36   : {

  00058	e8 00 00 00 00	 call	 ??0CPoints@@QAE@XZ	; CPoints::CPoints

; 46   : 	CTool::Initialize();

  0005d	8b ce		 mov	 ecx, esi

; 36   : {

  0005f	c6 45 fc 01	 mov	 BYTE PTR __$EHRec$[ebp+8], 1

; 37   : 	m_ptMousePos = CPoint(-1,-1);

  00063	c7 46 7c ff ff
	ff ff		 mov	 DWORD PTR [esi+124], -1
  0006a	c7 86 80 00 00
	00 ff ff ff ff	 mov	 DWORD PTR [esi+128], -1

; 45   : 	m_bMouseMoveChanged = TRUE;

  00074	c7 46 78 01 00
	00 00		 mov	 DWORD PTR [esi+120], 1

; 46   : 	CTool::Initialize();

  0007b	e8 00 00 00 00	 call	 ?Initialize@CTool@@UAEXXZ ; CTool::Initialize

; 47   : 	CTool::SetProcessStarting(true);

  00080	6a 01		 push	 1
  00082	8b ce		 mov	 ecx, esi
  00084	e8 00 00 00 00	 call	 ?SetProcessStarting@CTool@@QAEX_N@Z ; CTool::SetProcessStarting

; 38   : 	Initialize();	
; 39   : }

  00089	8b c6		 mov	 eax, esi
  0008b	8b 4d f4	 mov	 ecx, DWORD PTR __$EHRec$[ebp]
  0008e	64 89 0d 00 00
	00 00		 mov	 DWORD PTR fs:0, ecx
  00095	59		 pop	 ecx
  00096	5e		 pop	 esi
  00097	8b e5		 mov	 esp, ebp
  00099	5d		 pop	 ebp
  0009a	c2 08 00	 ret	 8
_TEXT	ENDS
;	COMDAT text$x
text$x	SEGMENT
__unwindfunclet$??0CMoveTool@@IAE@PAVCAnalysisData@@W4COORDINATETYPE@CAnalysis@@@Z$0:
  00000	8b 4d f0	 mov	 ecx, DWORD PTR _this$[ebp]
  00003	e9 00 00 00 00	 jmp	 ??1CTool@@QAE@XZ
__unwindfunclet$??0CMoveTool@@IAE@PAVCAnalysisData@@W4COORDINATETYPE@CAnalysis@@@Z$1:
  00008	8b 4d f0	 mov	 ecx, DWORD PTR _this$[ebp]
  0000b	81 c1 88 00 00
	00		 add	 ecx, 136		; 00000088H
  00011	e9 00 00 00 00	 jmp	 ??1CPoints@@QAE@XZ
  00016	cc		 int	 3
  00017	cc		 int	 3
  00018	cc		 int	 3
  00019	cc		 int	 3
  0001a	cc		 int	 3
__ehhandler$??0CMoveTool@@IAE@PAVCAnalysisData@@W4COORDINATETYPE@CAnalysis@@@Z:
  0001b	90		 npad	 1
  0001c	90		 npad	 1
  0001d	8b 54 24 08	 mov	 edx, DWORD PTR [esp+8]
  00021	8d 42 0c	 lea	 eax, DWORD PTR [edx+12]
  00024	8b 4a f4	 mov	 ecx, DWORD PTR [edx-12]
  00027	33 c8		 xor	 ecx, eax
  00029	e8 00 00 00 00	 call	 @__security_check_cookie@4
  0002e	b8 00 00 00 00	 mov	 eax, OFFSET __ehfuncinfo$??0CMoveTool@@IAE@PAVCAnalysisData@@W4COORDINATETYPE@CAnalysis@@@Z
  00033	e9 00 00 00 00	 jmp	 ___CxxFrameHandler3
text$x	ENDS
??0CMoveTool@@IAE@PAVCAnalysisData@@W4COORDINATETYPE@CAnalysis@@@Z ENDP ; CMoveTool::CMoveTool
; Function compile flags: /Ogtp
; File C:\Program Files (x86)\Microsoft Visual Studio\2019\Community\VC\Tools\MSVC\14.29.30133\include\deque
; File C:\Program Files (x86)\Microsoft Visual Studio\2019\Community\VC\Tools\MSVC\14.29.30133\include\utility
; File C:\Program Files (x86)\Microsoft Visual Studio\2019\Community\VC\Tools\MSVC\14.29.30133\include\xmemory
; File C:\Program Files (x86)\Microsoft Visual Studio\2019\Community\VC\Tools\MSVC\14.29.30133\include\utility
; File C:\Program Files (x86)\Microsoft Visual Studio\2019\Community\VC\Tools\MSVC\14.29.30133\include\xmemory
;	COMDAT ??1CTool@@QAE@XZ
_TEXT	SEGMENT
??1CTool@@QAE@XZ PROC					; CTool::~CTool, COMDAT
; _this$ = ecx
; File C:\Program Files (x86)\Microsoft Visual Studio\2019\Community\VC\Tools\MSVC\14.29.30133\include\deque

; 1332 :         _Tidy();

  00000	56		 push	 esi
  00001	8b f1		 mov	 esi, ecx
  00003	8d 4e 60	 lea	 ecx, DWORD PTR [esi+96]
  00006	ff 15 00 00 00
	00		 call	 DWORD PTR __imp_??1?$CStringT@DV?$StrTraitMFC_DLL@DV?$ChTraitsCRT@D@ATL@@@@@ATL@@QAE@XZ
  0000c	8d 4e 5c	 lea	 ecx, DWORD PTR [esi+92]
  0000f	ff 15 00 00 00
	00		 call	 DWORD PTR __imp_??1?$CStringT@DV?$StrTraitMFC_DLL@DV?$ChTraitsCRT@D@ATL@@@@@ATL@@QAE@XZ
  00015	8d 4e 58	 lea	 ecx, DWORD PTR [esi+88]
  00018	ff 15 00 00 00
	00		 call	 DWORD PTR __imp_??1?$CStringT@DV?$StrTraitMFC_DLL@DV?$ChTraitsCRT@D@ATL@@@@@ATL@@QAE@XZ
  0001e	8d 4e 14	 lea	 ecx, DWORD PTR [esi+20]
  00021	e8 00 00 00 00	 call	 ?_Tidy@?$deque@VCBlockRegion@@V?$allocator@VCBlockRegion@@@std@@@std@@AAEXXZ ; std::deque<CBlockRegion,std::allocator<CBlockRegion> >::_Tidy

; 861  :         _Tidy();

  00026	8d 4e 14	 lea	 ecx, DWORD PTR [esi+20]
  00029	e8 00 00 00 00	 call	 ?_Tidy@?$deque@VCBlockRegion@@V?$allocator@VCBlockRegion@@@std@@@std@@AAEXXZ ; std::deque<CBlockRegion,std::allocator<CBlockRegion> >::_Tidy
; File C:\Program Files (x86)\Microsoft Visual Studio\2019\Community\VC\Tools\MSVC\14.29.30133\include\utility

; 602  :     _Ty _Old_val = static_cast<_Ty&&>(_Val);

  0002e	8b 46 14	 mov	 eax, DWORD PTR [esi+20]
; File C:\Program Files (x86)\Microsoft Visual Studio\2019\Community\VC\Tools\MSVC\14.29.30133\include\xmemory

; 255  :         ::operator delete(_Ptr, _Bytes);

  00031	6a 08		 push	 8
  00033	50		 push	 eax
; File C:\Program Files (x86)\Microsoft Visual Studio\2019\Community\VC\Tools\MSVC\14.29.30133\include\utility

; 603  :     _Val         = static_cast<_Other&&>(_New_val);

  00034	c7 46 14 00 00
	00 00		 mov	 DWORD PTR [esi+20], 0
; File C:\Program Files (x86)\Microsoft Visual Studio\2019\Community\VC\Tools\MSVC\14.29.30133\include\xmemory

; 255  :         ::operator delete(_Ptr, _Bytes);

  0003b	e8 00 00 00 00	 call	 ??3@YAXPAXI@Z		; operator delete
  00040	83 c4 08	 add	 esp, 8
  00043	5e		 pop	 esi
  00044	c3		 ret	 0
??1CTool@@QAE@XZ ENDP					; CTool::~CTool
_TEXT	ENDS
; Function compile flags: /Ogtp
;	COMDAT ??1CPoints@@QAE@XZ
_TEXT	SEGMENT
??1CPoints@@QAE@XZ PROC					; CPoints::~CPoints, COMDAT
; _this$ = ecx
  00000	83 c1 14	 add	 ecx, 20			; 00000014H
  00003	ff 25 00 00 00
	00		 jmp	 DWORD PTR __imp_??1?$CStringT@DV?$StrTraitMFC_DLL@DV?$ChTraitsCRT@D@ATL@@@@@ATL@@QAE@XZ
??1CPoints@@QAE@XZ ENDP					; CPoints::~CPoints
_TEXT	ENDS
; Function compile flags: /Ogtp
;	COMDAT ??1CCoordinate@@QAE@XZ
_TEXT	SEGMENT
??1CCoordinate@@QAE@XZ PROC				; CCoordinate::~CCoordinate, COMDAT
; _this$ = ecx
  00000	83 c1 14	 add	 ecx, 20			; 00000014H
  00003	ff 25 00 00 00
	00		 jmp	 DWORD PTR __imp_??1?$CStringT@DV?$StrTraitMFC_DLL@DV?$ChTraitsCRT@D@ATL@@@@@ATL@@QAE@XZ
??1CCoordinate@@QAE@XZ ENDP				; CCoordinate::~CCoordinate
_TEXT	ENDS
; Function compile flags: /Ogtp
;	COMDAT ??1CElementCommonEnvironment@@QAE@XZ
_TEXT	SEGMENT
??1CElementCommonEnvironment@@QAE@XZ PROC		; CElementCommonEnvironment::~CElementCommonEnvironment, COMDAT
; _this$ = ecx
  00000	56		 push	 esi
  00001	8b f1		 mov	 esi, ecx
  00003	8d 4e 38	 lea	 ecx, DWORD PTR [esi+56]
  00006	ff 15 00 00 00
	00		 call	 DWORD PTR __imp_??1?$CStringT@DV?$StrTraitMFC_DLL@DV?$ChTraitsCRT@D@ATL@@@@@ATL@@QAE@XZ
  0000c	8d 4e 34	 lea	 ecx, DWORD PTR [esi+52]
  0000f	ff 15 00 00 00
	00		 call	 DWORD PTR __imp_??1?$CStringT@DV?$StrTraitMFC_DLL@DV?$ChTraitsCRT@D@ATL@@@@@ATL@@QAE@XZ
  00015	8d 4e 30	 lea	 ecx, DWORD PTR [esi+48]
  00018	5e		 pop	 esi
  00019	ff 25 00 00 00
	00		 jmp	 DWORD PTR __imp_??1?$CStringT@DV?$StrTraitMFC_DLL@DV?$ChTraitsCRT@D@ATL@@@@@ATL@@QAE@XZ
??1CElementCommonEnvironment@@QAE@XZ ENDP		; CElementCommonEnvironment::~CElementCommonEnvironment
_TEXT	ENDS
; Function compile flags: /Ogtp
; File C:\Program Files (x86)\Microsoft Visual Studio\2019\Community\VC\Tools\MSVC\14.29.30133\include\deque
; File C:\Program Files (x86)\Microsoft Visual Studio\2019\Community\VC\Tools\MSVC\14.29.30133\include\xmemory
; File C:\Program Files (x86)\Microsoft Visual Studio\2019\Community\VC\Tools\MSVC\14.29.30133\include\deque
; File C:\Program Files (x86)\Microsoft Visual Studio\2019\Community\VC\Tools\MSVC\14.29.30133\include\xmemory
; File C:\Program Files (x86)\Microsoft Visual Studio\2019\Community\VC\Tools\MSVC\14.29.30133\include\deque
; File C:\Program Files (x86)\Microsoft Visual Studio\2019\Community\VC\Tools\MSVC\14.29.30133\include\xmemory
; File C:\Program Files (x86)\Microsoft Visual Studio\2019\Community\VC\Tools\MSVC\14.29.30133\include\deque
;	COMDAT ?_Tidy@?$deque@VCBlockRegion@@V?$allocator@VCBlockRegion@@@std@@@std@@AAEXXZ
_TEXT	SEGMENT
?_Tidy@?$deque@VCBlockRegion@@V?$allocator@VCBlockRegion@@@std@@@std@@AAEXXZ PROC ; std::deque<CBlockRegion,std::allocator<CBlockRegion> >::_Tidy, COMDAT
; _this$ = ecx

; 1471 :     void _Tidy() noexcept { // free all storage

  00000	57		 push	 edi
  00001	8b f9		 mov	 edi, ecx

; 1002 :         return _Mysize() == 0;

  00003	8b 4f 10	 mov	 ecx, DWORD PTR [edi+16]
  00006	85 c9		 test	 ecx, ecx

; 1472 :         _Orphan_all();
; 1473 : 
; 1474 :         _Alpty _Almap(_Getal());
; 1475 :         while (!empty()) {

  00008	74 15		 je	 SHORT $LN60@Tidy
  0000a	66 0f 1f 44 00
	00		 npad	 6
$LL2@Tidy:

; 1146 :         if (--_Mysize() == 0) {

  00010	8d 41 ff	 lea	 eax, DWORD PTR [ecx-1]
  00013	89 47 10	 mov	 DWORD PTR [edi+16], eax
  00016	8b c8		 mov	 ecx, eax
  00018	85 c0		 test	 eax, eax
  0001a	75 f4		 jne	 SHORT $LL2@Tidy

; 1147 :             _Myoff() = 0;

  0001c	89 47 0c	 mov	 DWORD PTR [edi+12], eax
$LN60@Tidy:
  0001f	56		 push	 esi

; 1479 :         for (size_type _Block = _Mapsize(); 0 < _Block;) { // free storage for a block and destroy pointer

  00020	8b 77 08	 mov	 esi, DWORD PTR [edi+8]
  00023	85 f6		 test	 esi, esi
  00025	74 1a		 je	 SHORT $LN5@Tidy
$LL4@Tidy:

; 1480 :             if (_Map()[--_Block]) { // free block and destroy its pointer

  00027	8b 47 04	 mov	 eax, DWORD PTR [edi+4]
  0002a	4e		 dec	 esi
  0002b	8b 04 b0	 mov	 eax, DWORD PTR [eax+esi*4]
  0002e	85 c0		 test	 eax, eax
  00030	74 0b		 je	 SHORT $LN23@Tidy
; File C:\Program Files (x86)\Microsoft Visual Studio\2019\Community\VC\Tools\MSVC\14.29.30133\include\xmemory

; 255  :         ::operator delete(_Ptr, _Bytes);

  00032	6a 60		 push	 96			; 00000060H
  00034	50		 push	 eax
  00035	e8 00 00 00 00	 call	 ??3@YAXPAXI@Z		; operator delete
  0003a	83 c4 08	 add	 esp, 8
$LN23@Tidy:
; File C:\Program Files (x86)\Microsoft Visual Studio\2019\Community\VC\Tools\MSVC\14.29.30133\include\deque

; 1479 :         for (size_type _Block = _Mapsize(); 0 < _Block;) { // free storage for a block and destroy pointer

  0003d	85 f6		 test	 esi, esi
  0003f	75 e6		 jne	 SHORT $LL4@Tidy
$LN5@Tidy:

; 1481 :                 _Getal().deallocate(_Map()[_Block], _Block_size);
; 1482 :                 _Destroy_in_place(_Map()[_Block]);
; 1483 :             }
; 1484 :         }
; 1485 : 
; 1486 :         if (_Map() != _Mapptr()) {

  00041	8b 47 04	 mov	 eax, DWORD PTR [edi+4]
  00044	5e		 pop	 esi
  00045	85 c0		 test	 eax, eax
  00047	74 2a		 je	 SHORT $LN41@Tidy
; File C:\Program Files (x86)\Microsoft Visual Studio\2019\Community\VC\Tools\MSVC\14.29.30133\include\xmemory

; 797  :         _Deallocate<_New_alignof<_Ty>>(_Ptr, sizeof(_Ty) * _Count);

  00049	8b 4f 08	 mov	 ecx, DWORD PTR [edi+8]
  0004c	c1 e1 02	 shl	 ecx, 2

; 251  :         if (_Bytes >= _Big_allocation_threshold) { // boost the alignment of big allocations to help autovectorization

  0004f	81 f9 00 10 00
	00		 cmp	 ecx, 4096		; 00001000H
  00055	72 12		 jb	 SHORT $LN51@Tidy

; 150  :     const uintptr_t _Ptr_container   = _Ptr_user[-1];

  00057	8b 50 fc	 mov	 edx, DWORD PTR [eax-4]
  0005a	83 c1 23	 add	 ecx, 35			; 00000023H

; 151  : 
; 152  :     // If the following asserts, it likely means that we are performing
; 153  :     // an aligned delete on memory coming from an unaligned allocation.
; 154  :     _STL_ASSERT(_Ptr_user[-2] == _Big_allocation_sentinel, "invalid argument");
; 155  : 
; 156  :     // Extra paranoia on aligned allocation/deallocation; ensure _Ptr_container is
; 157  :     // in range [_Min_back_shift, _Non_user_size]
; 158  : #ifdef _DEBUG
; 159  :     constexpr uintptr_t _Min_back_shift = 2 * sizeof(void*);
; 160  : #else // ^^^ _DEBUG ^^^ // vvv !_DEBUG vvv
; 161  :     constexpr uintptr_t _Min_back_shift = sizeof(void*);
; 162  : #endif // _DEBUG
; 163  :     const uintptr_t _Back_shift = reinterpret_cast<uintptr_t>(_Ptr) - _Ptr_container;

  0005d	2b c2		 sub	 eax, edx

; 164  :     _STL_VERIFY(_Back_shift >= _Min_back_shift && _Back_shift <= _Non_user_size, "invalid argument");

  0005f	83 c0 fc	 add	 eax, -4			; fffffffcH
  00062	83 f8 1f	 cmp	 eax, 31			; 0000001fH
  00065	77 1c		 ja	 SHORT $LN48@Tidy

; 165  :     _Ptr = reinterpret_cast<void*>(_Ptr_container);

  00067	8b c2		 mov	 eax, edx
$LN51@Tidy:

; 255  :         ::operator delete(_Ptr, _Bytes);

  00069	51		 push	 ecx
  0006a	50		 push	 eax
  0006b	e8 00 00 00 00	 call	 ??3@YAXPAXI@Z		; operator delete
  00070	83 c4 08	 add	 esp, 8
$LN41@Tidy:
; File C:\Program Files (x86)\Microsoft Visual Studio\2019\Community\VC\Tools\MSVC\14.29.30133\include\deque

; 1490 :         _Mapsize() = 0;

  00073	c7 47 08 00 00
	00 00		 mov	 DWORD PTR [edi+8], 0

; 1491 :         _Map()     = _Mapptr();

  0007a	c7 47 04 00 00
	00 00		 mov	 DWORD PTR [edi+4], 0
  00081	5f		 pop	 edi

; 1492 :     }

  00082	c3		 ret	 0
$LN48@Tidy:
; File C:\Program Files (x86)\Microsoft Visual Studio\2019\Community\VC\Tools\MSVC\14.29.30133\include\xmemory

; 164  :     _STL_VERIFY(_Back_shift >= _Min_back_shift && _Back_shift <= _Non_user_size, "invalid argument");

  00083	ff 15 00 00 00
	00		 call	 DWORD PTR __imp___invalid_parameter_noinfo_noreturn
$LN62@Tidy:
  00089	cc		 int	 3
?_Tidy@?$deque@VCBlockRegion@@V?$allocator@VCBlockRegion@@@std@@@std@@AAEXXZ ENDP ; std::deque<CBlockRegion,std::allocator<CBlockRegion> >::_Tidy
_TEXT	ENDS
; Function compile flags: /Ogtp
; File D:\git\src\IBK\IBK_DRFN\ProjSrc\SrcChartEx\ChartAddIn\ChartAnalysisToolAddIn\Include_AddIn_133101\I133101\_IString.h
;	COMDAT ??1ILPCSTR133101@@QAE@XZ
_TEXT	SEGMENT
__$EHRec$ = -12						; size = 12
??1ILPCSTR133101@@QAE@XZ PROC				; ILPCSTR133101::~ILPCSTR133101, COMDAT
; _this$ = ecx

; 44   : 	{

  00000	55		 push	 ebp
  00001	8b ec		 mov	 ebp, esp
  00003	6a ff		 push	 -1
  00005	68 00 00 00 00	 push	 __ehhandler$??1ILPCSTR133101@@QAE@XZ
  0000a	64 a1 00 00 00
	00		 mov	 eax, DWORD PTR fs:0
  00010	50		 push	 eax
  00011	56		 push	 esi
  00012	a1 00 00 00 00	 mov	 eax, DWORD PTR ___security_cookie
  00017	33 c5		 xor	 eax, ebp
  00019	50		 push	 eax
  0001a	8d 45 f4	 lea	 eax, DWORD PTR __$EHRec$[ebp]
  0001d	64 a3 00 00 00
	00		 mov	 DWORD PTR fs:0, eax
  00023	8b f1		 mov	 esi, ecx

; 45   : 		if( m_pIStrData)

  00025	8b 4e 04	 mov	 ecx, DWORD PTR [esi+4]
  00028	85 c9		 test	 ecx, ecx
  0002a	74 13		 je	 SHORT $LN2@ILPCSTR133

; 46   : 		{
; 47   : 			m_pIStrData->Release();

  0002c	8b 01		 mov	 eax, DWORD PTR [ecx]
  0002e	51		 push	 ecx
  0002f	ff 50 08	 call	 DWORD PTR [eax+8]

; 48   : 			m_pIStrData = NULL;

  00032	c7 46 04 00 00
	00 00		 mov	 DWORD PTR [esi+4], 0

; 49   : 			m_szData = NULL;

  00039	c7 06 00 00 00
	00		 mov	 DWORD PTR [esi], 0
$LN2@ILPCSTR133:

; 50   : 		}
; 51   : 	}

  0003f	8b 4d f4	 mov	 ecx, DWORD PTR __$EHRec$[ebp]
  00042	64 89 0d 00 00
	00 00		 mov	 DWORD PTR fs:0, ecx
  00049	59		 pop	 ecx
  0004a	5e		 pop	 esi
  0004b	8b e5		 mov	 esp, ebp
  0004d	5d		 pop	 ebp
  0004e	c3		 ret	 0
  0004f	cc		 int	 3
  00050	cc		 int	 3
  00051	cc		 int	 3
  00052	cc		 int	 3
  00053	cc		 int	 3
_TEXT	ENDS
;	COMDAT text$x
text$x	SEGMENT
__ehhandler$??1ILPCSTR133101@@QAE@XZ:
  00000	90		 npad	 1
  00001	90		 npad	 1
  00002	8b 54 24 08	 mov	 edx, DWORD PTR [esp+8]
  00006	8d 42 0c	 lea	 eax, DWORD PTR [edx+12]
  00009	8b 4a f8	 mov	 ecx, DWORD PTR [edx-8]
  0000c	33 c8		 xor	 ecx, eax
  0000e	e8 00 00 00 00	 call	 @__security_check_cookie@4
  00013	b8 00 00 00 00	 mov	 eax, OFFSET __ehfuncinfo$??1ILPCSTR133101@@QAE@XZ
  00018	e9 00 00 00 00	 jmp	 ___CxxFrameHandler3
text$x	ENDS
??1ILPCSTR133101@@QAE@XZ ENDP				; ILPCSTR133101::~ILPCSTR133101
; Function compile flags: /Ogtp
; File D:\git\src\IBK\IBK_DRFN\ProjSrc\SrcChartEx\ChartAddIn\ChartAnalysisToolAddIn\AnalysisTool\PointTool.cpp
;	COMDAT ?__empty_global_delete@@YAXPAXI@Z
_TEXT	SEGMENT
___formal$ = 8						; size = 4
___formal$ = 12						; size = 4
?__empty_global_delete@@YAXPAXI@Z PROC			; __empty_global_delete, COMDAT

  00000	c2 00 00	 ret	 0
?__empty_global_delete@@YAXPAXI@Z ENDP			; __empty_global_delete
_TEXT	ENDS
; Function compile flags: /Ogtp
; File D:\git\src\IBK\IBK_DRFN\ProjSrc\SrcChartEx\ChartAddIn\ChartAnalysisToolAddIn\AnalysisTool\PointTool.cpp
;	COMDAT ?__empty_global_delete@@YAXPAX@Z
_TEXT	SEGMENT
___formal$ = 8						; size = 4
?__empty_global_delete@@YAXPAX@Z PROC			; __empty_global_delete, COMDAT

  00000	c2 00 00	 ret	 0
?__empty_global_delete@@YAXPAX@Z ENDP			; __empty_global_delete
_TEXT	ENDS
END
