; Listing generated by Microsoft (R) Optimizing Compiler Version 19.29.30145.0 

	TITLE	D:\git\src\IBK\IBK_DRFN\#DRfn-CS\_Obj\AnalysisTool\PointTool.obj
	.686P
	.XMM
	include listing.inc
	.model	flat

INCLUDELIB MSVCRT
INCLUDELIB OLDNAMES

PUBLIC	?__empty_global_delete@@YAXPAX@Z		; __empty_global_delete
PUBLIC	?__empty_global_delete@@YAXPAXI@Z		; __empty_global_delete
PUBLIC	??1ILPCSTR133101@@QAE@XZ			; ILPCSTR133101::~ILPCSTR133101
PUBLIC	?_Tidy@?$deque@VCBlockRegion@@V?$allocator@VCBlockRegion@@@std@@@std@@AAEXXZ ; std::deque<CBlockRegion,std::allocator<CBlockRegion> >::_Tidy
PUBLIC	??1CElementCommonEnvironment@@QAE@XZ		; CElementCommonEnvironment::~CElementCommonEnvironment
PUBLIC	??1CCoordinate@@QAE@XZ				; CCoordinate::~CCoordinate
PUBLIC	??1CPoints@@QAE@XZ				; CPoints::~CPoints
PUBLIC	??1CTool@@QAE@XZ				; CTool::~CTool
PUBLIC	??0CMoveTool@@IAE@PAVCAnalysisData@@W4COORDINATETYPE@CAnalysis@@@Z ; CMoveTool::CMoveTool
PUBLIC	?Initialize@CMoveTool@@UAEXXZ			; CMoveTool::Initialize
PUBLIC	?OnLButtonDown@CMoveTool@@UAEPAVCElement@@PAVCDC@@ABVCPoint@@@Z ; CMoveTool::OnLButtonDown
PUBLIC	?OnLButtonUp@CMoveTool@@UAEXPAVCDC@@ABVCPoint@@@Z ; CMoveTool::OnLButtonUp
PUBLIC	?OnMouseMove@CMoveTool@@UAE_NPAVCDC@@ABVCPoint@@H@Z ; CMoveTool::OnMouseMove
PUBLIC	?OnDraw@CMoveTool@@UAEXPAVCDC@@@Z		; CMoveTool::OnDraw
PUBLIC	?PointInDrawingRegion@CMoveTool@@MBE_NABVCPoint@@@Z ; CMoveTool::PointInDrawingRegion
PUBLIC	?SavePoints@CMoveTool@@MAEXABVCPoints@@@Z	; CMoveTool::SavePoints
PUBLIC	?GetPoints@CMoveTool@@IBE?AVCPoints@@XZ		; CMoveTool::GetPoints
PUBLIC	?OnMouseMove_InNotDrawingRegion@CMoveTool@@AAE_NABVCPoint@@@Z ; CMoveTool::OnMouseMove_InNotDrawingRegion
PUBLIC	??0COnePointMoveTool@@IAE@PAVCAnalysisData@@W4COORDINATETYPE@CAnalysis@@@Z ; COnePointMoveTool::COnePointMoveTool
PUBLIC	?DrawTool@COnePointMoveTool@@MAEXPAVCDC@@@Z	; COnePointMoveTool::DrawTool
PUBLIC	?MakeElement@COnePointMoveTool@@MAEPAVCElement@@ABVCElementCommonEnvironment@@@Z ; COnePointMoveTool::MakeElement
PUBLIC	?GetOnePointDrawingData@COnePointMoveTool@@ABE?AVCOnePointDrawingData@@XZ ; COnePointMoveTool::GetOnePointDrawingData
PUBLIC	??0CTwoPointMoveTool@@IAE@PAVCAnalysisData@@W4COORDINATETYPE@CAnalysis@@@Z ; CTwoPointMoveTool::CTwoPointMoveTool
PUBLIC	?DrawTool@CTwoPointMoveTool@@MAEXPAVCDC@@@Z	; CTwoPointMoveTool::DrawTool
PUBLIC	?MakeElement@CTwoPointMoveTool@@MAEPAVCElement@@ABVCElementCommonEnvironment@@@Z ; CTwoPointMoveTool::MakeElement
PUBLIC	?GetPoints@CTwoPointMoveTool@@IBE?AVCPoints@@ABVCPoint@@HH@Z ; CTwoPointMoveTool::GetPoints
PUBLIC	?GetPoint@CTwoPointMoveTool@@IBE?AVCPoint@@ABVCRegion@@ABV2@HH@Z ; CTwoPointMoveTool::GetPoint
PUBLIC	?GetSavingPoint@CTwoPointMoveTool@@IBE?AVCCoordinate@@ABVCPoint@@0@Z ; CTwoPointMoveTool::GetSavingPoint
PUBLIC	?GetPoint_X@CTwoPointMoveTool@@IBEHABVCRegion@@ABVCPoint@@H@Z ; CTwoPointMoveTool::GetPoint_X
PUBLIC	?GetPoint_Y@CTwoPointMoveTool@@IBEHABVCPoint@@HH@Z ; CTwoPointMoveTool::GetPoint_Y
PUBLIC	?GetTwoPointDrawingData@CTwoPointMoveTool@@ABE?AVCTwoPointDrawingData@@XZ ; CTwoPointMoveTool::GetTwoPointDrawingData
PUBLIC	??0CDownTool@@IAE@PAVCAnalysisData@@W4COORDINATETYPE@CAnalysis@@@Z ; CDownTool::CDownTool
PUBLIC	?Initialize@CDownTool@@UAEXXZ			; CDownTool::Initialize
PUBLIC	?OnLButtonDown@CDownTool@@UAEPAVCElement@@PAVCDC@@ABVCPoint@@@Z ; CDownTool::OnLButtonDown
PUBLIC	?OnMouseMove@CDownTool@@UAE_NPAVCDC@@ABVCPoint@@H@Z ; CDownTool::OnMouseMove
PUBLIC	??1CDownTool@@QAE@XZ				; CDownTool::~CDownTool
PUBLIC	??0COneOrTwoPointTool@@IAE@PAVCAnalysisData@@W4COORDINATETYPE@CAnalysis@@@Z ; COneOrTwoPointTool::COneOrTwoPointTool
PUBLIC	?OnLButtonDown@COneOrTwoPointTool@@UAEPAVCElement@@PAVCDC@@ABVCPoint@@@Z ; COneOrTwoPointTool::OnLButtonDown
PUBLIC	?OnLButtonUp@COneOrTwoPointTool@@UAEXPAVCDC@@ABVCPoint@@@Z ; COneOrTwoPointTool::OnLButtonUp
PUBLIC	?OnMouseMove@COneOrTwoPointTool@@UAE_NPAVCDC@@ABVCPoint@@H@Z ; COneOrTwoPointTool::OnMouseMove
PUBLIC	?OnDraw@COneOrTwoPointTool@@UAEXPAVCDC@@@Z	; COneOrTwoPointTool::OnDraw
PUBLIC	?SavePoints@COneOrTwoPointTool@@MAEXABVCPoints@@@Z ; COneOrTwoPointTool::SavePoints
PUBLIC	?GetUpPoints@COneOrTwoPointTool@@IBE?AVCPoints@@XZ ; COneOrTwoPointTool::GetUpPoints
PUBLIC	?SetUpPoints@COneOrTwoPointTool@@IAEXABVCPoints@@@Z ; COneOrTwoPointTool::SetUpPoints
PUBLIC	??1COneOrTwoPointTool@@QAE@XZ			; COneOrTwoPointTool::~COneOrTwoPointTool
PUBLIC	??0COnePointDownTool@@IAE@PAVCAnalysisData@@W4COORDINATETYPE@CAnalysis@@@Z ; COnePointDownTool::COnePointDownTool
PUBLIC	??1COnePointDownTool@@IAE@XZ			; COnePointDownTool::~COnePointDownTool
PUBLIC	?OnLButtonDown@COnePointDownTool@@UAEPAVCElement@@PAVCDC@@ABVCPoint@@@Z ; COnePointDownTool::OnLButtonDown
PUBLIC	?OnMouseMove@COnePointDownTool@@UAE_NPAVCDC@@ABVCPoint@@H@Z ; COnePointDownTool::OnMouseMove
PUBLIC	?OnDraw@COnePointDownTool@@UAEXPAVCDC@@@Z	; COnePointDownTool::OnDraw
PUBLIC	?PointInDrawingRegion@COnePointDownTool@@MBE_NABVCPoint@@@Z ; COnePointDownTool::PointInDrawingRegion
PUBLIC	?MakeElement@COnePointDownTool@@MAEPAVCElement@@ABVCElementCommonEnvironment@@@Z ; COnePointDownTool::MakeElement
PUBLIC	?MouseMove@COnePointDownTool@@MAE_NPAVCDC@@ABVCPoint@@@Z ; COnePointDownTool::MouseMove
PUBLIC	?Draw_UpPoint@COnePointDownTool@@MAEXPAVCDC@@@Z	; COnePointDownTool::Draw_UpPoint
PUBLIC	?OnMouseMove_InNotDrawingRegion@COnePointDownTool@@AAE_NABVCPoint@@@Z ; COnePointDownTool::OnMouseMove_InNotDrawingRegion
PUBLIC	?GetOnePointDrawingData@COnePointDownTool@@ABE?AVCOnePointDrawingData@@XZ ; COnePointDownTool::GetOnePointDrawingData
PUBLIC	??0CTwoPointDownTool@@IAE@PAVCAnalysisData@@W4COORDINATETYPE@CAnalysis@@@Z ; CTwoPointDownTool::CTwoPointDownTool
PUBLIC	?OnLButtonDown@CTwoPointDownTool@@UAEPAVCElement@@PAVCDC@@ABVCPoint@@@Z ; CTwoPointDownTool::OnLButtonDown
PUBLIC	?PointInDrawingRegion@CTwoPointDownTool@@MBE_NABVCPoint@@@Z ; CTwoPointDownTool::PointInDrawingRegion
PUBLIC	?IsMakeElement@CTwoPointDownTool@@MBE_NABVCPoint@@@Z ; CTwoPointDownTool::IsMakeElement
PUBLIC	?MakeElement@CTwoPointDownTool@@MAEPAVCElement@@ABVCElementCommonEnvironment@@@Z ; CTwoPointDownTool::MakeElement
PUBLIC	?MouseMove@CTwoPointDownTool@@MAE_NPAVCDC@@ABVCPoint@@@Z ; CTwoPointDownTool::MouseMove
PUBLIC	?Draw_UpPoint@CTwoPointDownTool@@MAEXPAVCDC@@@Z	; CTwoPointDownTool::Draw_UpPoint
PUBLIC	?GetDownPoints@CTwoPointDownTool@@IBE?AVCPoints@@XZ ; CTwoPointDownTool::GetDownPoints
PUBLIC	?GetTwoPointDrawingData@CTwoPointDownTool@@ABE?AVCTwoPointDrawingData@@XZ ; CTwoPointDownTool::GetTwoPointDrawingData
PUBLIC	??0CThreePointDownTool@@IAE@PAVCAnalysisData@@W4COORDINATETYPE@CAnalysis@@@Z ; CThreePointDownTool::CThreePointDownTool
PUBLIC	?Initialize@CThreePointDownTool@@UAEXXZ		; CThreePointDownTool::Initialize
PUBLIC	?OnLButtonDown@CThreePointDownTool@@UAEPAVCElement@@PAVCDC@@ABVCPoint@@@Z ; CThreePointDownTool::OnLButtonDown
PUBLIC	?OnLButtonUp@CThreePointDownTool@@UAEXPAVCDC@@ABVCPoint@@@Z ; CThreePointDownTool::OnLButtonUp
PUBLIC	?OnDraw@CThreePointDownTool@@UAEXPAVCDC@@@Z	; CThreePointDownTool::OnDraw
PUBLIC	?SavePoints@CThreePointDownTool@@MAEXABVCPoints@@@Z ; CThreePointDownTool::SavePoints
PUBLIC	?IsMakeElement@CThreePointDownTool@@MBE_NABVCPoint@@@Z ; CThreePointDownTool::IsMakeElement
PUBLIC	?MakeElement@CThreePointDownTool@@MAEPAVCElement@@ABVCElementCommonEnvironment@@@Z ; CThreePointDownTool::MakeElement
PUBLIC	?IsEndPoint@CThreePointDownTool@@ABE_NXZ	; CThreePointDownTool::IsEndPoint
PUBLIC	?GetThreePointDrawingData@CThreePointDownTool@@ABE?AVCThreePointDrawingData@@XZ ; CThreePointDownTool::GetThreePointDrawingData
PUBLIC	??0CMultiPointDownTool@@IAE@PAVCAnalysisData@@W4COORDINATETYPE@CAnalysis@@@Z ; CMultiPointDownTool::CMultiPointDownTool
PUBLIC	?Initialize@CMultiPointDownTool@@UAEXXZ		; CMultiPointDownTool::Initialize
PUBLIC	?OnLButtonDown@CMultiPointDownTool@@UAEPAVCElement@@PAVCDC@@ABVCPoint@@@Z ; CMultiPointDownTool::OnLButtonDown
PUBLIC	?OnLButtonUp@CMultiPointDownTool@@UAEXPAVCDC@@ABVCPoint@@@Z ; CMultiPointDownTool::OnLButtonUp
PUBLIC	?OnMouseMove@CMultiPointDownTool@@UAE_NPAVCDC@@ABVCPoint@@H@Z ; CMultiPointDownTool::OnMouseMove
PUBLIC	?OnDraw@CMultiPointDownTool@@UAEXPAVCDC@@@Z	; CMultiPointDownTool::OnDraw
PUBLIC	?SavePoints@CMultiPointDownTool@@MAEXABVCPoints@@@Z ; CMultiPointDownTool::SavePoints
PUBLIC	?IsMakeElement@CMultiPointDownTool@@MBE_NABVCPoint@@@Z ; CMultiPointDownTool::IsMakeElement
PUBLIC	?MakeElement@CMultiPointDownTool@@MAEPAVCElement@@ABVCElementCommonEnvironment@@@Z ; CMultiPointDownTool::MakeElement
PUBLIC	?IsEndPoint@CMultiPointDownTool@@ABE_NXZ	; CMultiPointDownTool::IsEndPoint
PUBLIC	?GetMultiPointDrawingData@CMultiPointDownTool@@ABE?AVCMultiPointDrawingData@@XZ ; CMultiPointDownTool::GetMultiPointDrawingData
PUBLIC	??1CMultiLanguageResourceSetter@@QAE@XZ		; CMultiLanguageResourceSetter::~CMultiLanguageResourceSetter
PUBLIC	??1COnePointDrawingData@@QAE@XZ			; COnePointDrawingData::~COnePointDrawingData
PUBLIC	??1CTwoPointDrawingData@@QAE@XZ			; CTwoPointDrawingData::~CTwoPointDrawingData
PUBLIC	??1CThreePointDrawingData@@QAE@XZ		; CThreePointDrawingData::~CThreePointDrawingData
PUBLIC	??1CMultiPointDrawingData@@QAE@XZ		; CMultiPointDrawingData::~CMultiPointDrawingData
PUBLIC	??1CDlgAnalysisAdjustRatio@@UAE@XZ		; CDlgAnalysisAdjustRatio::~CDlgAnalysisAdjustRatio
PUBLIC	??_7CMoveTool@@6B@				; CMoveTool::`vftable'
PUBLIC	??_7COnePointMoveTool@@6B@			; COnePointMoveTool::`vftable'
PUBLIC	??_7CTwoPointMoveTool@@6B@			; CTwoPointMoveTool::`vftable'
PUBLIC	??_7CDownTool@@6B@				; CDownTool::`vftable'
PUBLIC	??_7COneOrTwoPointTool@@6B@			; COneOrTwoPointTool::`vftable'
PUBLIC	??_7COnePointDownTool@@6B@			; COnePointDownTool::`vftable'
PUBLIC	??_7CTwoPointDownTool@@6B@			; CTwoPointDownTool::`vftable'
PUBLIC	??_7CThreePointDownTool@@6B@			; CThreePointDownTool::`vftable'
PUBLIC	??_7CMultiPointDownTool@@6B@			; CMultiPointDownTool::`vftable'
PUBLIC	??_C@_0BA@ENJOCHIO@LoadResourceDLL@		; `string'
PUBLIC	??_C@_02PONMEALH@UD@				; `string'
PUBLIC	??_C@_06MLGKKOBC@RDATET@			; `string'
PUBLIC	??_R4CMoveTool@@6B@				; CMoveTool::`RTTI Complete Object Locator'
PUBLIC	??_R0?AVCMoveTool@@@8				; CMoveTool `RTTI Type Descriptor'
PUBLIC	??_R3CMoveTool@@8				; CMoveTool::`RTTI Class Hierarchy Descriptor'
PUBLIC	??_R2CMoveTool@@8				; CMoveTool::`RTTI Base Class Array'
PUBLIC	??_R1A@?0A@EA@CMoveTool@@8			; CMoveTool::`RTTI Base Class Descriptor at (0,-1,0,64)'
PUBLIC	??_R1A@?0A@EA@CTool@@8				; CTool::`RTTI Base Class Descriptor at (0,-1,0,64)'
PUBLIC	??_R0?AVCTool@@@8				; CTool `RTTI Type Descriptor'
PUBLIC	??_R3CTool@@8					; CTool::`RTTI Class Hierarchy Descriptor'
PUBLIC	??_R2CTool@@8					; CTool::`RTTI Base Class Array'
PUBLIC	??_R4COnePointMoveTool@@6B@			; COnePointMoveTool::`RTTI Complete Object Locator'
PUBLIC	??_R0?AVCOnePointMoveTool@@@8			; COnePointMoveTool `RTTI Type Descriptor'
PUBLIC	??_R3COnePointMoveTool@@8			; COnePointMoveTool::`RTTI Class Hierarchy Descriptor'
PUBLIC	??_R2COnePointMoveTool@@8			; COnePointMoveTool::`RTTI Base Class Array'
PUBLIC	??_R1A@?0A@EA@COnePointMoveTool@@8		; COnePointMoveTool::`RTTI Base Class Descriptor at (0,-1,0,64)'
PUBLIC	??_R4CTwoPointMoveTool@@6B@			; CTwoPointMoveTool::`RTTI Complete Object Locator'
PUBLIC	??_R0?AVCTwoPointMoveTool@@@8			; CTwoPointMoveTool `RTTI Type Descriptor'
PUBLIC	??_R3CTwoPointMoveTool@@8			; CTwoPointMoveTool::`RTTI Class Hierarchy Descriptor'
PUBLIC	??_R2CTwoPointMoveTool@@8			; CTwoPointMoveTool::`RTTI Base Class Array'
PUBLIC	??_R1A@?0A@EA@CTwoPointMoveTool@@8		; CTwoPointMoveTool::`RTTI Base Class Descriptor at (0,-1,0,64)'
PUBLIC	??_R4CDownTool@@6B@				; CDownTool::`RTTI Complete Object Locator'
PUBLIC	??_R0?AVCDownTool@@@8				; CDownTool `RTTI Type Descriptor'
PUBLIC	??_R3CDownTool@@8				; CDownTool::`RTTI Class Hierarchy Descriptor'
PUBLIC	??_R2CDownTool@@8				; CDownTool::`RTTI Base Class Array'
PUBLIC	??_R1A@?0A@EA@CDownTool@@8			; CDownTool::`RTTI Base Class Descriptor at (0,-1,0,64)'
PUBLIC	??_R4COneOrTwoPointTool@@6B@			; COneOrTwoPointTool::`RTTI Complete Object Locator'
PUBLIC	??_R0?AVCOneOrTwoPointTool@@@8			; COneOrTwoPointTool `RTTI Type Descriptor'
PUBLIC	??_R3COneOrTwoPointTool@@8			; COneOrTwoPointTool::`RTTI Class Hierarchy Descriptor'
PUBLIC	??_R2COneOrTwoPointTool@@8			; COneOrTwoPointTool::`RTTI Base Class Array'
PUBLIC	??_R1A@?0A@EA@COneOrTwoPointTool@@8		; COneOrTwoPointTool::`RTTI Base Class Descriptor at (0,-1,0,64)'
PUBLIC	??_R4COnePointDownTool@@6B@			; COnePointDownTool::`RTTI Complete Object Locator'
PUBLIC	??_R0?AVCOnePointDownTool@@@8			; COnePointDownTool `RTTI Type Descriptor'
PUBLIC	??_R3COnePointDownTool@@8			; COnePointDownTool::`RTTI Class Hierarchy Descriptor'
PUBLIC	??_R2COnePointDownTool@@8			; COnePointDownTool::`RTTI Base Class Array'
PUBLIC	??_R1A@?0A@EA@COnePointDownTool@@8		; COnePointDownTool::`RTTI Base Class Descriptor at (0,-1,0,64)'
PUBLIC	??_R4CTwoPointDownTool@@6B@			; CTwoPointDownTool::`RTTI Complete Object Locator'
PUBLIC	??_R0?AVCTwoPointDownTool@@@8			; CTwoPointDownTool `RTTI Type Descriptor'
PUBLIC	??_R3CTwoPointDownTool@@8			; CTwoPointDownTool::`RTTI Class Hierarchy Descriptor'
PUBLIC	??_R2CTwoPointDownTool@@8			; CTwoPointDownTool::`RTTI Base Class Array'
PUBLIC	??_R1A@?0A@EA@CTwoPointDownTool@@8		; CTwoPointDownTool::`RTTI Base Class Descriptor at (0,-1,0,64)'
PUBLIC	??_R4CThreePointDownTool@@6B@			; CThreePointDownTool::`RTTI Complete Object Locator'
PUBLIC	??_R0?AVCThreePointDownTool@@@8			; CThreePointDownTool `RTTI Type Descriptor'
PUBLIC	??_R3CThreePointDownTool@@8			; CThreePointDownTool::`RTTI Class Hierarchy Descriptor'
PUBLIC	??_R2CThreePointDownTool@@8			; CThreePointDownTool::`RTTI Base Class Array'
PUBLIC	??_R1A@?0A@EA@CThreePointDownTool@@8		; CThreePointDownTool::`RTTI Base Class Descriptor at (0,-1,0,64)'
PUBLIC	??_R4CMultiPointDownTool@@6B@			; CMultiPointDownTool::`RTTI Complete Object Locator'
PUBLIC	??_R0?AVCMultiPointDownTool@@@8			; CMultiPointDownTool `RTTI Type Descriptor'
PUBLIC	??_R3CMultiPointDownTool@@8			; CMultiPointDownTool::`RTTI Class Hierarchy Descriptor'
PUBLIC	??_R2CMultiPointDownTool@@8			; CMultiPointDownTool::`RTTI Base Class Array'
PUBLIC	??_R1A@?0A@EA@CMultiPointDownTool@@8		; CMultiPointDownTool::`RTTI Base Class Descriptor at (0,-1,0,64)'
PUBLIC	__real@3fe0000000000000
PUBLIC	__real@7fefffffffffffff
PUBLIC	__real@bff0000000000000
PUBLIC	__xmm@7fffffffffffffff7fffffffffffffff
EXTRN	??_L@YGXPAXIIP6EX0@Z1@Z:PROC			; `eh vector constructor iterator'
EXTRN	??_M@YGXPAXIIP6EX0@Z@Z:PROC			; `eh vector destructor iterator'
EXTRN	__purecall:PROC
EXTRN	??3@YAXPAXI@Z:PROC				; operator delete
EXTRN	___std_terminate:PROC
EXTRN	__imp___invalid_parameter_noinfo_noreturn:PROC
EXTRN	__imp__GetProcAddress@8:PROC
EXTRN	__imp__IsRectEmpty@4:PROC
EXTRN	__imp__PtInRect@12:PROC
EXTRN	__imp__atoi:PROC
EXTRN	__imp_??0?$CStringT@DV?$StrTraitMFC_DLL@DV?$ChTraitsCRT@D@ATL@@@@@ATL@@QAE@XZ:PROC
EXTRN	__imp_??1?$CStringT@DV?$StrTraitMFC_DLL@DV?$ChTraitsCRT@D@ATL@@@@@ATL@@QAE@XZ:PROC
EXTRN	__imp_??4?$CStringT@DV?$StrTraitMFC_DLL@DV?$ChTraitsCRT@D@ATL@@@@@ATL@@QAEAAV01@PBD@Z:PROC
EXTRN	??0CObList@@QAE@H@Z:PROC			; CObList::CObList
EXTRN	??1CObList@@UAE@XZ:PROC				; CObList::~CObList
EXTRN	?AfxGetModuleState@@YGPAVAFX_MODULE_STATE@@XZ:PROC ; AfxGetModuleState
EXTRN	?AfxGetStaticModuleState@@YGPAVAFX_MODULE_STATE@@XZ:PROC ; AfxGetStaticModuleState
EXTRN	?DoModal@CDialog@@UAEHXZ:PROC			; CDialog::DoModal
EXTRN	??1CDialog@@UAE@XZ:PROC				; CDialog::~CDialog
EXTRN	??1CListCtrl@@UAE@XZ:PROC			; CListCtrl::~CListCtrl
EXTRN	??1CCoordinateCalculatorData@@QAE@XZ:PROC	; CCoordinateCalculatorData::~CCoordinateCalculatorData
EXTRN	?GetRegion@CCoordinateCalculatorData@@QBE?AVCRect@@XZ:PROC ; CCoordinateCalculatorData::GetRegion
EXTRN	?GetDisplayDataCount@CCoordinateCalculatorData@@QBEHXZ:PROC ; CCoordinateCalculatorData::GetDisplayDataCount
EXTRN	?GetBlockIndex@CCoordinateCalculatorData@@QAEAAVCBlockIndex@@XZ:PROC ; CCoordinateCalculatorData::GetBlockIndex
EXTRN	??0CLineExtEnvironment@@QAE@PAV0@@Z:PROC	; CLineExtEnvironment::CLineExtEnvironment
EXTRN	?GetEquiDiv@CElementCommonEnvironment@@QAEAAHXZ:PROC ; CElementCommonEnvironment::GetEquiDiv
EXTRN	?GetPriceRangeDiv@CElementCommonEnvironment@@QAEAAHXZ:PROC ; CElementCommonEnvironment::GetPriceRangeDiv
EXTRN	?GetLineExt@CElementCommonEnvironment@@QAEAAVCLineExtEnvironment@@XZ:PROC ; CElementCommonEnvironment::GetLineExt
EXTRN	?GetDataType@CElementCommonEnvironment@@QAEAAVCDataTypeEnvironment@@XZ:PROC ; CElementCommonEnvironment::GetDataType
EXTRN	??8CCoordinate@@QAE_NABV0@@Z:PROC		; CCoordinate::operator==
EXTRN	??0CCoordinate@@QAE@ABVCPoint@@@Z:PROC		; CCoordinate::CCoordinate
EXTRN	??0CCoordinate@@QAE@ABV0@@Z:PROC		; CCoordinate::CCoordinate
EXTRN	?GetY@CCoordinate@@QBENXZ:PROC			; CCoordinate::GetY
EXTRN	?SetY@CCoordinate@@QAEXABN@Z:PROC		; CCoordinate::SetY
EXTRN	??4CPoints@@QAEAAV0@ABV0@@Z:PROC		; CPoints::operator=
EXTRN	??0CPoints@@QAE@XZ:PROC				; CPoints::CPoints
EXTRN	??0CPoints@@QAE@ABVCCoordinate@@ABVCPoint@@@Z:PROC ; CPoints::CPoints
EXTRN	?SetPoints_Point_Y@CPoints@@QAEXABH@Z:PROC	; CPoints::SetPoints_Point_Y
EXTRN	?SetPoints_Value_Y@CPoints@@QAEXABN@Z:PROC	; CPoints::SetPoints_Value_Y
EXTRN	?GetSavingPoint@CPoints@@QBE?AVCCoordinate@@XZ:PROC ; CPoints::GetSavingPoint
EXTRN	?GetDrawingPoint@CPoints@@QBE?AVCPoint@@XZ:PROC	; CPoints::GetDrawingPoint
EXTRN	?GetCurrentGraphPartRegion@CDrawingRegions@@QBE?AVCGraphPartRegion@@XZ:PROC ; CDrawingRegions::GetCurrentGraphPartRegion
EXTRN	?GetCurrentFullGraphRegion@CDrawingRegions@@QBE?AVCRect@@XZ:PROC ; CDrawingRegions::GetCurrentFullGraphRegion
EXTRN	?PointInDrawingRegionsInColumn@CDrawingRegions@@QBE_NABVCPoint@@@Z:PROC ; CDrawingRegions::PointInDrawingRegionsInColumn
EXTRN	??0CRegion@@QAE@ABVCRect@@ABVCDisplayAttributes@@@Z:PROC ; CRegion::CRegion
EXTRN	??0CTool@@IAE@PAVCAnalysisData@@W4COORDINATETYPE@CAnalysis@@@Z:PROC ; CTool::CTool
EXTRN	?SetProcessStarting@CTool@@QAEX_N@Z:PROC	; CTool::SetProcessStarting
EXTRN	?Invalidate@CTool@@QAEXXZ:PROC			; CTool::Invalidate
EXTRN	?Initialize@CTool@@UAEXXZ:PROC			; CTool::Initialize
EXTRN	?OnLButtonUp@CTool@@UAEXPAVCDC@@ABVCPoint@@@Z:PROC ; CTool::OnLButtonUp
EXTRN	?OnRButtonUp@CTool@@UAEXPAVCDC@@ABVCPoint@@@Z:PROC ; CTool::OnRButtonUp
EXTRN	?GetCoordinateCalculatorData@CTool@@QBE?AVCCoordinateCalculatorData@@ABVCPoint@@@Z:PROC ; CTool::GetCoordinateCalculatorData
EXTRN	?GetCoordinateCalculator@CTool@@UBEAAVCCoordinateCalculator@@XZ:PROC ; CTool::GetCoordinateCalculator
EXTRN	?PointInDrawingRegion@CTool@@MBE_NABVCPoint@@@Z:PROC ; CTool::PointInDrawingRegion
EXTRN	?GetTextPosition@CTool@@MBEPBVCTextPosition@@XZ:PROC ; CTool::GetTextPosition
EXTRN	?GetTextPosition@CTool@@MAEPAVCTextPosition@@XZ:PROC ; CTool::GetTextPosition
EXTRN	?IsMakeElement@CTool@@MBE_NABVCPoint@@@Z:PROC	; CTool::IsMakeElement
EXTRN	?MakeElement@CTool@@MAEPAVCElement@@ABVCElementCommonEnvironment@@@Z:PROC ; CTool::MakeElement
EXTRN	?IsRelativePointType@CTool@@IBE_NXZ:PROC	; CTool::IsRelativePointType
EXTRN	?GetAnalysisData@CTool@@MBEPAVCAnalysisData@@XZ:PROC ; CTool::GetAnalysisData
EXTRN	?GetDrawingRegions@CTool@@IBEABVCDrawingRegions@@XZ:PROC ; CTool::GetDrawingRegions
EXTRN	?GetElementCommonEnvironment@CTool@@IBE?AVCElementCommonEnvironment@@XZ:PROC ; CTool::GetElementCommonEnvironment
EXTRN	?GetDisplayAttributes@CTool@@IBE?AVCDisplayAttributes@@XZ:PROC ; CTool::GetDisplayAttributes
EXTRN	?GetVertScaleType@CTool@@IBE?AVCVertScaleType@@ABVCPoint@@@Z:PROC ; CTool::GetVertScaleType
EXTRN	?GetPosCoordinate@CTool@@IBE?AVCCoordinate@@ABVCPoint@@@Z:PROC ; CTool::GetPosCoordinate
EXTRN	?GetPoints@CTool@@IBE?AVCPoints@@ABVCPoint@@@Z:PROC ; CTool::GetPoints
EXTRN	?GetPointsAndSetDataType@CTool@@IAE?AVCPoints@@ABVCPoint@@@Z:PROC ; CTool::GetPointsAndSetDataType
EXTRN	?GetDrawingPointAndSetDataType@CTool@@IAE?AVCPoint@@ABV2@@Z:PROC ; CTool::GetDrawingPointAndSetDataType
EXTRN	?SetDrawingRegions@CTool@@IAEXABVCPoint@@@Z:PROC ; CTool::SetDrawingRegions
EXTRN	?ChangeCursor@CTool@@IAEXW4DrawType@CToolEnumData@@@Z:PROC ; CTool::ChangeCursor
EXTRN	?MakeElement@CTool@@IAEXABVCPoint@@@Z:PROC	; CTool::MakeElement
EXTRN	?TanI@CMath@@SAHH@Z:PROC			; CMath::TanI
EXTRN	?Make@CElementFactory@@SAPAVCElement@@W4TOOLTYPE@CAnalysis@@ABVCCoordinate@@PBVCTextPosition@@ABVCElementCommonEnvironment@@@Z:PROC ; CElementFactory::Make
EXTRN	?Make@CElementFactory@@SAPAVCElement@@W4TOOLTYPE@CAnalysis@@ABVCCoordinate@@1PBVCTextPosition@@ABVCElementCommonEnvironment@@N@Z:PROC ; CElementFactory::Make
EXTRN	?Make@CElementFactory@@SAPAVCElement@@W4TOOLTYPE@CAnalysis@@ABVCCoordinate@@11PBVCTextPosition@@ABVCElementCommonEnvironment@@@Z:PROC ; CElementFactory::Make
EXTRN	?Make@CElementFactory@@SAPAVCElement@@W4TOOLTYPE@CAnalysis@@HPBVCPoints@@ABVCElementCommonEnvironment@@@Z:PROC ; CElementFactory::Make
EXTRN	?GetPriceRangeDivType@CDrawingData@@QBEHXZ:PROC	; CDrawingData::GetPriceRangeDivType
EXTRN	??0COnePointDrawingData@@QAE@ABVCDataTypeEnvironment@@PAVCTextPosition@@PAVCLineExtEnvironment@@PBVCDrawingRegions@@ABVCDisplayAttributes@@ABVCVertScaleType@@ABVCPoints@@W4HORZSCALEDRAWERTYPE@CScaleBaseData@@@Z:PROC ; COnePointDrawingData::COnePointDrawingData
EXTRN	??0CTwoPointDrawingData@@QAE@ABVCDataTypeEnvironment@@ABH1PAVCTextPosition@@ABVCLineExtEnvironment@@ABVCGraphPartRegion@@ABVCDisplayAttributes@@ABVCVertScaleType@@ABVCPoints@@7W4HORZSCALEDRAWERTYPE@CScaleBaseData@@@Z:PROC ; CTwoPointDrawingData::CTwoPointDrawingData
EXTRN	?GetStartPoints@CTwoPointDrawingData@@QBE?AVCPoints@@XZ:PROC ; CTwoPointDrawingData::GetStartPoints
EXTRN	?GetEndPoints@CTwoPointDrawingData@@QBE?AVCPoints@@XZ:PROC ; CTwoPointDrawingData::GetEndPoints
EXTRN	?SetStartYPoints_Pos@CTwoPointDrawingData@@QAEXABH@Z:PROC ; CTwoPointDrawingData::SetStartYPoints_Pos
EXTRN	?SetEndYPoints_Pos@CTwoPointDrawingData@@QAEXABH@Z:PROC ; CTwoPointDrawingData::SetEndYPoints_Pos
EXTRN	??0CThreePointDrawingData@@QAE@ABVCDataTypeEnvironment@@PAVCTextPosition@@PAVCLineExtEnvironment@@ABVCRect@@ABVCDisplayAttributes@@ABVCVertScaleType@@HABVCPoints@@66W4HORZSCALEDRAWERTYPE@CScaleBaseData@@@Z:PROC ; CThreePointDrawingData::CThreePointDrawingData
EXTRN	??0CMultiPointDrawingData@@QAE@ABVCDataTypeEnvironment@@PAVCTextPosition@@PAVCLineExtEnvironment@@ABVCRect@@ABVCDisplayAttributes@@ABVCVertScaleType@@HPBVCPoints@@W4HORZSCALEDRAWERTYPE@CScaleBaseData@@@Z:PROC ; CMultiPointDrawingData::CMultiPointDrawingData
EXTRN	?DrawTool@COnePointDrawer@@QAEXPAVCDC@@ABVCOnePointDrawingData@@H@Z:PROC ; COnePointDrawer::DrawTool
EXTRN	?DrawElement@COnePointDrawer@@QAEXPAVCDC@@ABVCOnePointDrawingData@@H@Z:PROC ; COnePointDrawer::DrawElement
EXTRN	?DrawTool@CTwoPointDrawer@@QAEXPAVCDC@@ABVCTwoPointDrawingData@@H@Z:PROC ; CTwoPointDrawer::DrawTool
EXTRN	?DrawTool@CThreePointDrawer@@QAEXPAVCDC@@ABVCThreePointDrawingData@@H@Z:PROC ; CThreePointDrawer::DrawTool
EXTRN	?DrawTool@CMultiPointDrawer@@QAEXPAVCDC@@ABVCMultiPointDrawingData@@H@Z:PROC ; CMultiPointDrawer::DrawTool
EXTRN	?AbsoluteToRelative@CCoordinateCalculator@@QBE?AVCCoordinate@@ABVCCoordinateCalculatorData@@ABVCPoint@@@Z:PROC ; CCoordinateCalculator::AbsoluteToRelative
EXTRN	?RelativeToAbsolute@CCoordinateCalculator@@QBE?AVCPoint@@ABVCCoordinateCalculatorData@@ABVCCoordinate@@@Z:PROC ; CCoordinateCalculator::RelativeToAbsolute
EXTRN	?GetCurrentDataIndex@CCoordinateCalculator@@QBEHABVCRegion@@ABVCPoint@@@Z:PROC ; CCoordinateCalculator::GetCurrentDataIndex
EXTRN	?GetDrawingPoint_X@CCoordinateCalculator@@QBEHABVCRegion@@H@Z:PROC ; CCoordinateCalculator::GetDrawingPoint_X
EXTRN	?RelativeToAbsolute_NoAutoPrice@CCoordinateCalculator@@QBE?AVCPoint@@ABVCCoordinateCalculatorData@@ABVCCoordinate@@@Z:PROC ; CCoordinateCalculator::RelativeToAbsolute_NoAutoPrice
EXTRN	?FindCoordinateCalculator@CCoordinateCalculatorFinder@@SAAAVCCoordinateCalculator@@_N@Z:PROC ; CCoordinateCalculatorFinder::FindCoordinateCalculator
EXTRN	??0CDlgAnalysisAdjustRatio@@QAE@PAUHWND__@@PAVCWnd@@@Z:PROC ; CDlgAnalysisAdjustRatio::CDlgAnalysisAdjustRatio
EXTRN	?SetValue@CDlgAnalysisAdjustRatio@@QAEXHN@Z:PROC ; CDlgAnalysisAdjustRatio::SetValue
EXTRN	?UpdatePointsForPriceRangeOption@CTwoPointElement@@SAHABVCCoordinateCalculatorData@@AAVCCoordinate@@1AAN2@Z:PROC ; CTwoPointElement::UpdatePointsForPriceRangeOption
EXTRN	@__security_check_cookie@4:PROC
EXTRN	___CxxFrameHandler3:PROC
EXTRN	__chkstk:PROC
EXTRN	??_7type_info@@6B@:QWORD			; type_info::`vftable'
EXTRN	?g_iMetaTable@@3VIMetaTable@@A:BYTE		; g_iMetaTable
EXTRN	___security_cookie:DWORD
EXTRN	__fltused:DWORD
;	COMDAT __xmm@7fffffffffffffff7fffffffffffffff
CONST	SEGMENT
__xmm@7fffffffffffffff7fffffffffffffff DB 0ffH, 0ffH, 0ffH, 0ffH, 0ffH, 0ffH
	DB	0ffH, 07fH, 0ffH, 0ffH, 0ffH, 0ffH, 0ffH, 0ffH, 0ffH, 07fH
CONST	ENDS
;	COMDAT __real@bff0000000000000
CONST	SEGMENT
__real@bff0000000000000 DQ 0bff0000000000000r	; -1
CONST	ENDS
;	COMDAT __real@7fefffffffffffff
CONST	SEGMENT
__real@7fefffffffffffff DQ 07fefffffffffffffr	; 1.79769e+308
CONST	ENDS
;	COMDAT __real@3fe0000000000000
CONST	SEGMENT
__real@3fe0000000000000 DQ 03fe0000000000000r	; 0.5
CONST	ENDS
;	COMDAT ??_R1A@?0A@EA@CMultiPointDownTool@@8
rdata$r	SEGMENT
??_R1A@?0A@EA@CMultiPointDownTool@@8 DD FLAT:??_R0?AVCMultiPointDownTool@@@8 ; CMultiPointDownTool::`RTTI Base Class Descriptor at (0,-1,0,64)'
	DD	02H
	DD	00H
	DD	0ffffffffH
	DD	00H
	DD	040H
	DD	FLAT:??_R3CMultiPointDownTool@@8
rdata$r	ENDS
;	COMDAT ??_R2CMultiPointDownTool@@8
rdata$r	SEGMENT
??_R2CMultiPointDownTool@@8 DD FLAT:??_R1A@?0A@EA@CMultiPointDownTool@@8 ; CMultiPointDownTool::`RTTI Base Class Array'
	DD	FLAT:??_R1A@?0A@EA@CDownTool@@8
	DD	FLAT:??_R1A@?0A@EA@CTool@@8
rdata$r	ENDS
;	COMDAT ??_R3CMultiPointDownTool@@8
rdata$r	SEGMENT
??_R3CMultiPointDownTool@@8 DD 00H			; CMultiPointDownTool::`RTTI Class Hierarchy Descriptor'
	DD	00H
	DD	03H
	DD	FLAT:??_R2CMultiPointDownTool@@8
rdata$r	ENDS
;	COMDAT ??_R0?AVCMultiPointDownTool@@@8
data$rs	SEGMENT
??_R0?AVCMultiPointDownTool@@@8 DD FLAT:??_7type_info@@6B@ ; CMultiPointDownTool `RTTI Type Descriptor'
	DD	00H
	DB	'.?AVCMultiPointDownTool@@', 00H
data$rs	ENDS
;	COMDAT ??_R4CMultiPointDownTool@@6B@
rdata$r	SEGMENT
??_R4CMultiPointDownTool@@6B@ DD 00H			; CMultiPointDownTool::`RTTI Complete Object Locator'
	DD	00H
	DD	00H
	DD	FLAT:??_R0?AVCMultiPointDownTool@@@8
	DD	FLAT:??_R3CMultiPointDownTool@@8
rdata$r	ENDS
;	COMDAT ??_R1A@?0A@EA@CThreePointDownTool@@8
rdata$r	SEGMENT
??_R1A@?0A@EA@CThreePointDownTool@@8 DD FLAT:??_R0?AVCThreePointDownTool@@@8 ; CThreePointDownTool::`RTTI Base Class Descriptor at (0,-1,0,64)'
	DD	02H
	DD	00H
	DD	0ffffffffH
	DD	00H
	DD	040H
	DD	FLAT:??_R3CThreePointDownTool@@8
rdata$r	ENDS
;	COMDAT ??_R2CThreePointDownTool@@8
rdata$r	SEGMENT
??_R2CThreePointDownTool@@8 DD FLAT:??_R1A@?0A@EA@CThreePointDownTool@@8 ; CThreePointDownTool::`RTTI Base Class Array'
	DD	FLAT:??_R1A@?0A@EA@CDownTool@@8
	DD	FLAT:??_R1A@?0A@EA@CTool@@8
rdata$r	ENDS
;	COMDAT ??_R3CThreePointDownTool@@8
rdata$r	SEGMENT
??_R3CThreePointDownTool@@8 DD 00H			; CThreePointDownTool::`RTTI Class Hierarchy Descriptor'
	DD	00H
	DD	03H
	DD	FLAT:??_R2CThreePointDownTool@@8
rdata$r	ENDS
;	COMDAT ??_R0?AVCThreePointDownTool@@@8
data$rs	SEGMENT
??_R0?AVCThreePointDownTool@@@8 DD FLAT:??_7type_info@@6B@ ; CThreePointDownTool `RTTI Type Descriptor'
	DD	00H
	DB	'.?AVCThreePointDownTool@@', 00H
data$rs	ENDS
;	COMDAT ??_R4CThreePointDownTool@@6B@
rdata$r	SEGMENT
??_R4CThreePointDownTool@@6B@ DD 00H			; CThreePointDownTool::`RTTI Complete Object Locator'
	DD	00H
	DD	00H
	DD	FLAT:??_R0?AVCThreePointDownTool@@@8
	DD	FLAT:??_R3CThreePointDownTool@@8
rdata$r	ENDS
;	COMDAT ??_R1A@?0A@EA@CTwoPointDownTool@@8
rdata$r	SEGMENT
??_R1A@?0A@EA@CTwoPointDownTool@@8 DD FLAT:??_R0?AVCTwoPointDownTool@@@8 ; CTwoPointDownTool::`RTTI Base Class Descriptor at (0,-1,0,64)'
	DD	03H
	DD	00H
	DD	0ffffffffH
	DD	00H
	DD	040H
	DD	FLAT:??_R3CTwoPointDownTool@@8
rdata$r	ENDS
;	COMDAT ??_R2CTwoPointDownTool@@8
rdata$r	SEGMENT
??_R2CTwoPointDownTool@@8 DD FLAT:??_R1A@?0A@EA@CTwoPointDownTool@@8 ; CTwoPointDownTool::`RTTI Base Class Array'
	DD	FLAT:??_R1A@?0A@EA@COneOrTwoPointTool@@8
	DD	FLAT:??_R1A@?0A@EA@CDownTool@@8
	DD	FLAT:??_R1A@?0A@EA@CTool@@8
rdata$r	ENDS
;	COMDAT ??_R3CTwoPointDownTool@@8
rdata$r	SEGMENT
??_R3CTwoPointDownTool@@8 DD 00H			; CTwoPointDownTool::`RTTI Class Hierarchy Descriptor'
	DD	00H
	DD	04H
	DD	FLAT:??_R2CTwoPointDownTool@@8
rdata$r	ENDS
;	COMDAT ??_R0?AVCTwoPointDownTool@@@8
data$rs	SEGMENT
??_R0?AVCTwoPointDownTool@@@8 DD FLAT:??_7type_info@@6B@ ; CTwoPointDownTool `RTTI Type Descriptor'
	DD	00H
	DB	'.?AVCTwoPointDownTool@@', 00H
data$rs	ENDS
;	COMDAT ??_R4CTwoPointDownTool@@6B@
rdata$r	SEGMENT
??_R4CTwoPointDownTool@@6B@ DD 00H			; CTwoPointDownTool::`RTTI Complete Object Locator'
	DD	00H
	DD	00H
	DD	FLAT:??_R0?AVCTwoPointDownTool@@@8
	DD	FLAT:??_R3CTwoPointDownTool@@8
rdata$r	ENDS
;	COMDAT ??_R1A@?0A@EA@COnePointDownTool@@8
rdata$r	SEGMENT
??_R1A@?0A@EA@COnePointDownTool@@8 DD FLAT:??_R0?AVCOnePointDownTool@@@8 ; COnePointDownTool::`RTTI Base Class Descriptor at (0,-1,0,64)'
	DD	03H
	DD	00H
	DD	0ffffffffH
	DD	00H
	DD	040H
	DD	FLAT:??_R3COnePointDownTool@@8
rdata$r	ENDS
;	COMDAT ??_R2COnePointDownTool@@8
rdata$r	SEGMENT
??_R2COnePointDownTool@@8 DD FLAT:??_R1A@?0A@EA@COnePointDownTool@@8 ; COnePointDownTool::`RTTI Base Class Array'
	DD	FLAT:??_R1A@?0A@EA@COneOrTwoPointTool@@8
	DD	FLAT:??_R1A@?0A@EA@CDownTool@@8
	DD	FLAT:??_R1A@?0A@EA@CTool@@8
rdata$r	ENDS
;	COMDAT ??_R3COnePointDownTool@@8
rdata$r	SEGMENT
??_R3COnePointDownTool@@8 DD 00H			; COnePointDownTool::`RTTI Class Hierarchy Descriptor'
	DD	00H
	DD	04H
	DD	FLAT:??_R2COnePointDownTool@@8
rdata$r	ENDS
;	COMDAT ??_R0?AVCOnePointDownTool@@@8
data$rs	SEGMENT
??_R0?AVCOnePointDownTool@@@8 DD FLAT:??_7type_info@@6B@ ; COnePointDownTool `RTTI Type Descriptor'
	DD	00H
	DB	'.?AVCOnePointDownTool@@', 00H
data$rs	ENDS
;	COMDAT ??_R4COnePointDownTool@@6B@
rdata$r	SEGMENT
??_R4COnePointDownTool@@6B@ DD 00H			; COnePointDownTool::`RTTI Complete Object Locator'
	DD	00H
	DD	00H
	DD	FLAT:??_R0?AVCOnePointDownTool@@@8
	DD	FLAT:??_R3COnePointDownTool@@8
rdata$r	ENDS
;	COMDAT ??_R1A@?0A@EA@COneOrTwoPointTool@@8
rdata$r	SEGMENT
??_R1A@?0A@EA@COneOrTwoPointTool@@8 DD FLAT:??_R0?AVCOneOrTwoPointTool@@@8 ; COneOrTwoPointTool::`RTTI Base Class Descriptor at (0,-1,0,64)'
	DD	02H
	DD	00H
	DD	0ffffffffH
	DD	00H
	DD	040H
	DD	FLAT:??_R3COneOrTwoPointTool@@8
rdata$r	ENDS
;	COMDAT ??_R2COneOrTwoPointTool@@8
rdata$r	SEGMENT
??_R2COneOrTwoPointTool@@8 DD FLAT:??_R1A@?0A@EA@COneOrTwoPointTool@@8 ; COneOrTwoPointTool::`RTTI Base Class Array'
	DD	FLAT:??_R1A@?0A@EA@CDownTool@@8
	DD	FLAT:??_R1A@?0A@EA@CTool@@8
rdata$r	ENDS
;	COMDAT ??_R3COneOrTwoPointTool@@8
rdata$r	SEGMENT
??_R3COneOrTwoPointTool@@8 DD 00H			; COneOrTwoPointTool::`RTTI Class Hierarchy Descriptor'
	DD	00H
	DD	03H
	DD	FLAT:??_R2COneOrTwoPointTool@@8
rdata$r	ENDS
;	COMDAT ??_R0?AVCOneOrTwoPointTool@@@8
data$rs	SEGMENT
??_R0?AVCOneOrTwoPointTool@@@8 DD FLAT:??_7type_info@@6B@ ; COneOrTwoPointTool `RTTI Type Descriptor'
	DD	00H
	DB	'.?AVCOneOrTwoPointTool@@', 00H
data$rs	ENDS
;	COMDAT ??_R4COneOrTwoPointTool@@6B@
rdata$r	SEGMENT
??_R4COneOrTwoPointTool@@6B@ DD 00H			; COneOrTwoPointTool::`RTTI Complete Object Locator'
	DD	00H
	DD	00H
	DD	FLAT:??_R0?AVCOneOrTwoPointTool@@@8
	DD	FLAT:??_R3COneOrTwoPointTool@@8
rdata$r	ENDS
;	COMDAT ??_R1A@?0A@EA@CDownTool@@8
rdata$r	SEGMENT
??_R1A@?0A@EA@CDownTool@@8 DD FLAT:??_R0?AVCDownTool@@@8 ; CDownTool::`RTTI Base Class Descriptor at (0,-1,0,64)'
	DD	01H
	DD	00H
	DD	0ffffffffH
	DD	00H
	DD	040H
	DD	FLAT:??_R3CDownTool@@8
rdata$r	ENDS
;	COMDAT ??_R2CDownTool@@8
rdata$r	SEGMENT
??_R2CDownTool@@8 DD FLAT:??_R1A@?0A@EA@CDownTool@@8	; CDownTool::`RTTI Base Class Array'
	DD	FLAT:??_R1A@?0A@EA@CTool@@8
rdata$r	ENDS
;	COMDAT ??_R3CDownTool@@8
rdata$r	SEGMENT
??_R3CDownTool@@8 DD 00H				; CDownTool::`RTTI Class Hierarchy Descriptor'
	DD	00H
	DD	02H
	DD	FLAT:??_R2CDownTool@@8
rdata$r	ENDS
;	COMDAT ??_R0?AVCDownTool@@@8
data$rs	SEGMENT
??_R0?AVCDownTool@@@8 DD FLAT:??_7type_info@@6B@	; CDownTool `RTTI Type Descriptor'
	DD	00H
	DB	'.?AVCDownTool@@', 00H
data$rs	ENDS
;	COMDAT ??_R4CDownTool@@6B@
rdata$r	SEGMENT
??_R4CDownTool@@6B@ DD 00H				; CDownTool::`RTTI Complete Object Locator'
	DD	00H
	DD	00H
	DD	FLAT:??_R0?AVCDownTool@@@8
	DD	FLAT:??_R3CDownTool@@8
rdata$r	ENDS
;	COMDAT ??_R1A@?0A@EA@CTwoPointMoveTool@@8
rdata$r	SEGMENT
??_R1A@?0A@EA@CTwoPointMoveTool@@8 DD FLAT:??_R0?AVCTwoPointMoveTool@@@8 ; CTwoPointMoveTool::`RTTI Base Class Descriptor at (0,-1,0,64)'
	DD	02H
	DD	00H
	DD	0ffffffffH
	DD	00H
	DD	040H
	DD	FLAT:??_R3CTwoPointMoveTool@@8
rdata$r	ENDS
;	COMDAT ??_R2CTwoPointMoveTool@@8
rdata$r	SEGMENT
??_R2CTwoPointMoveTool@@8 DD FLAT:??_R1A@?0A@EA@CTwoPointMoveTool@@8 ; CTwoPointMoveTool::`RTTI Base Class Array'
	DD	FLAT:??_R1A@?0A@EA@CMoveTool@@8
	DD	FLAT:??_R1A@?0A@EA@CTool@@8
rdata$r	ENDS
;	COMDAT ??_R3CTwoPointMoveTool@@8
rdata$r	SEGMENT
??_R3CTwoPointMoveTool@@8 DD 00H			; CTwoPointMoveTool::`RTTI Class Hierarchy Descriptor'
	DD	00H
	DD	03H
	DD	FLAT:??_R2CTwoPointMoveTool@@8
rdata$r	ENDS
;	COMDAT ??_R0?AVCTwoPointMoveTool@@@8
data$rs	SEGMENT
??_R0?AVCTwoPointMoveTool@@@8 DD FLAT:??_7type_info@@6B@ ; CTwoPointMoveTool `RTTI Type Descriptor'
	DD	00H
	DB	'.?AVCTwoPointMoveTool@@', 00H
data$rs	ENDS
;	COMDAT ??_R4CTwoPointMoveTool@@6B@
rdata$r	SEGMENT
??_R4CTwoPointMoveTool@@6B@ DD 00H			; CTwoPointMoveTool::`RTTI Complete Object Locator'
	DD	00H
	DD	00H
	DD	FLAT:??_R0?AVCTwoPointMoveTool@@@8
	DD	FLAT:??_R3CTwoPointMoveTool@@8
rdata$r	ENDS
;	COMDAT ??_R1A@?0A@EA@COnePointMoveTool@@8
rdata$r	SEGMENT
??_R1A@?0A@EA@COnePointMoveTool@@8 DD FLAT:??_R0?AVCOnePointMoveTool@@@8 ; COnePointMoveTool::`RTTI Base Class Descriptor at (0,-1,0,64)'
	DD	02H
	DD	00H
	DD	0ffffffffH
	DD	00H
	DD	040H
	DD	FLAT:??_R3COnePointMoveTool@@8
rdata$r	ENDS
;	COMDAT ??_R2COnePointMoveTool@@8
rdata$r	SEGMENT
??_R2COnePointMoveTool@@8 DD FLAT:??_R1A@?0A@EA@COnePointMoveTool@@8 ; COnePointMoveTool::`RTTI Base Class Array'
	DD	FLAT:??_R1A@?0A@EA@CMoveTool@@8
	DD	FLAT:??_R1A@?0A@EA@CTool@@8
rdata$r	ENDS
;	COMDAT ??_R3COnePointMoveTool@@8
rdata$r	SEGMENT
??_R3COnePointMoveTool@@8 DD 00H			; COnePointMoveTool::`RTTI Class Hierarchy Descriptor'
	DD	00H
	DD	03H
	DD	FLAT:??_R2COnePointMoveTool@@8
rdata$r	ENDS
;	COMDAT ??_R0?AVCOnePointMoveTool@@@8
data$rs	SEGMENT
??_R0?AVCOnePointMoveTool@@@8 DD FLAT:??_7type_info@@6B@ ; COnePointMoveTool `RTTI Type Descriptor'
	DD	00H
	DB	'.?AVCOnePointMoveTool@@', 00H
data$rs	ENDS
;	COMDAT ??_R4COnePointMoveTool@@6B@
rdata$r	SEGMENT
??_R4COnePointMoveTool@@6B@ DD 00H			; COnePointMoveTool::`RTTI Complete Object Locator'
	DD	00H
	DD	00H
	DD	FLAT:??_R0?AVCOnePointMoveTool@@@8
	DD	FLAT:??_R3COnePointMoveTool@@8
rdata$r	ENDS
;	COMDAT ??_R2CTool@@8
rdata$r	SEGMENT
??_R2CTool@@8 DD FLAT:??_R1A@?0A@EA@CTool@@8		; CTool::`RTTI Base Class Array'
rdata$r	ENDS
;	COMDAT ??_R3CTool@@8
rdata$r	SEGMENT
??_R3CTool@@8 DD 00H					; CTool::`RTTI Class Hierarchy Descriptor'
	DD	00H
	DD	01H
	DD	FLAT:??_R2CTool@@8
rdata$r	ENDS
;	COMDAT ??_R0?AVCTool@@@8
data$rs	SEGMENT
??_R0?AVCTool@@@8 DD FLAT:??_7type_info@@6B@		; CTool `RTTI Type Descriptor'
	DD	00H
	DB	'.?AVCTool@@', 00H
data$rs	ENDS
;	COMDAT ??_R1A@?0A@EA@CTool@@8
rdata$r	SEGMENT
??_R1A@?0A@EA@CTool@@8 DD FLAT:??_R0?AVCTool@@@8	; CTool::`RTTI Base Class Descriptor at (0,-1,0,64)'
	DD	00H
	DD	00H
	DD	0ffffffffH
	DD	00H
	DD	040H
	DD	FLAT:??_R3CTool@@8
rdata$r	ENDS
;	COMDAT ??_R1A@?0A@EA@CMoveTool@@8
rdata$r	SEGMENT
??_R1A@?0A@EA@CMoveTool@@8 DD FLAT:??_R0?AVCMoveTool@@@8 ; CMoveTool::`RTTI Base Class Descriptor at (0,-1,0,64)'
	DD	01H
	DD	00H
	DD	0ffffffffH
	DD	00H
	DD	040H
	DD	FLAT:??_R3CMoveTool@@8
rdata$r	ENDS
;	COMDAT ??_R2CMoveTool@@8
rdata$r	SEGMENT
??_R2CMoveTool@@8 DD FLAT:??_R1A@?0A@EA@CMoveTool@@8	; CMoveTool::`RTTI Base Class Array'
	DD	FLAT:??_R1A@?0A@EA@CTool@@8
rdata$r	ENDS
;	COMDAT ??_R3CMoveTool@@8
rdata$r	SEGMENT
??_R3CMoveTool@@8 DD 00H				; CMoveTool::`RTTI Class Hierarchy Descriptor'
	DD	00H
	DD	02H
	DD	FLAT:??_R2CMoveTool@@8
rdata$r	ENDS
;	COMDAT ??_R0?AVCMoveTool@@@8
data$rs	SEGMENT
??_R0?AVCMoveTool@@@8 DD FLAT:??_7type_info@@6B@	; CMoveTool `RTTI Type Descriptor'
	DD	00H
	DB	'.?AVCMoveTool@@', 00H
data$rs	ENDS
;	COMDAT ??_R4CMoveTool@@6B@
rdata$r	SEGMENT
??_R4CMoveTool@@6B@ DD 00H				; CMoveTool::`RTTI Complete Object Locator'
	DD	00H
	DD	00H
	DD	FLAT:??_R0?AVCMoveTool@@@8
	DD	FLAT:??_R3CMoveTool@@8
rdata$r	ENDS
;	COMDAT ??_C@_06MLGKKOBC@RDATET@
CONST	SEGMENT
??_C@_06MLGKKOBC@RDATET@ DB 'RDATET', 00H		; `string'
CONST	ENDS
;	COMDAT ??_C@_02PONMEALH@UD@
CONST	SEGMENT
??_C@_02PONMEALH@UD@ DB 'UD', 00H			; `string'
CONST	ENDS
;	COMDAT ??_C@_0BA@ENJOCHIO@LoadResourceDLL@
CONST	SEGMENT
??_C@_0BA@ENJOCHIO@LoadResourceDLL@ DB 'LoadResourceDLL', 00H ; `string'
CONST	ENDS
;	COMDAT ??_7CMultiPointDownTool@@6B@
CONST	SEGMENT
??_7CMultiPointDownTool@@6B@ DD FLAT:??_R4CMultiPointDownTool@@6B@ ; CMultiPointDownTool::`vftable'
	DD	FLAT:?Initialize@CMultiPointDownTool@@UAEXXZ
	DD	FLAT:?OnLButtonDown@CMultiPointDownTool@@UAEPAVCElement@@PAVCDC@@ABVCPoint@@@Z
	DD	FLAT:?OnLButtonUp@CMultiPointDownTool@@UAEXPAVCDC@@ABVCPoint@@@Z
	DD	FLAT:?OnMouseMove@CMultiPointDownTool@@UAE_NPAVCDC@@ABVCPoint@@H@Z
	DD	FLAT:?OnRButtonUp@CTool@@UAEXPAVCDC@@ABVCPoint@@@Z
	DD	FLAT:?OnDraw@CMultiPointDownTool@@UAEXPAVCDC@@@Z
	DD	FLAT:?GetCoordinateCalculator@CTool@@UBEAAVCCoordinateCalculator@@XZ
	DD	FLAT:?PointInDrawingRegion@CTool@@MBE_NABVCPoint@@@Z
	DD	FLAT:?SavePoints@CMultiPointDownTool@@MAEXABVCPoints@@@Z
	DD	FLAT:__purecall
	DD	FLAT:?GetTextPosition@CTool@@MAEPAVCTextPosition@@XZ
	DD	FLAT:?GetTextPosition@CTool@@MBEPBVCTextPosition@@XZ
	DD	FLAT:?IsMakeElement@CMultiPointDownTool@@MBE_NABVCPoint@@@Z
	DD	FLAT:?MakeElement@CMultiPointDownTool@@MAEPAVCElement@@ABVCElementCommonEnvironment@@@Z
	DD	FLAT:?GetAnalysisData@CTool@@MBEPAVCAnalysisData@@XZ
	DD	FLAT:__purecall
CONST	ENDS
;	COMDAT ??_7CThreePointDownTool@@6B@
CONST	SEGMENT
??_7CThreePointDownTool@@6B@ DD FLAT:??_R4CThreePointDownTool@@6B@ ; CThreePointDownTool::`vftable'
	DD	FLAT:?Initialize@CThreePointDownTool@@UAEXXZ
	DD	FLAT:?OnLButtonDown@CThreePointDownTool@@UAEPAVCElement@@PAVCDC@@ABVCPoint@@@Z
	DD	FLAT:?OnLButtonUp@CThreePointDownTool@@UAEXPAVCDC@@ABVCPoint@@@Z
	DD	FLAT:?OnMouseMove@CDownTool@@UAE_NPAVCDC@@ABVCPoint@@H@Z
	DD	FLAT:?OnRButtonUp@CTool@@UAEXPAVCDC@@ABVCPoint@@@Z
	DD	FLAT:?OnDraw@CThreePointDownTool@@UAEXPAVCDC@@@Z
	DD	FLAT:?GetCoordinateCalculator@CTool@@UBEAAVCCoordinateCalculator@@XZ
	DD	FLAT:?PointInDrawingRegion@CTool@@MBE_NABVCPoint@@@Z
	DD	FLAT:?SavePoints@CThreePointDownTool@@MAEXABVCPoints@@@Z
	DD	FLAT:__purecall
	DD	FLAT:?GetTextPosition@CTool@@MAEPAVCTextPosition@@XZ
	DD	FLAT:?GetTextPosition@CTool@@MBEPBVCTextPosition@@XZ
	DD	FLAT:?IsMakeElement@CThreePointDownTool@@MBE_NABVCPoint@@@Z
	DD	FLAT:?MakeElement@CThreePointDownTool@@MAEPAVCElement@@ABVCElementCommonEnvironment@@@Z
	DD	FLAT:?GetAnalysisData@CTool@@MBEPAVCAnalysisData@@XZ
	DD	FLAT:__purecall
CONST	ENDS
;	COMDAT ??_7CTwoPointDownTool@@6B@
CONST	SEGMENT
??_7CTwoPointDownTool@@6B@ DD FLAT:??_R4CTwoPointDownTool@@6B@ ; CTwoPointDownTool::`vftable'
	DD	FLAT:?Initialize@CDownTool@@UAEXXZ
	DD	FLAT:?OnLButtonDown@CTwoPointDownTool@@UAEPAVCElement@@PAVCDC@@ABVCPoint@@@Z
	DD	FLAT:?OnLButtonUp@COneOrTwoPointTool@@UAEXPAVCDC@@ABVCPoint@@@Z
	DD	FLAT:?OnMouseMove@COneOrTwoPointTool@@UAE_NPAVCDC@@ABVCPoint@@H@Z
	DD	FLAT:?OnRButtonUp@CTool@@UAEXPAVCDC@@ABVCPoint@@@Z
	DD	FLAT:?OnDraw@COneOrTwoPointTool@@UAEXPAVCDC@@@Z
	DD	FLAT:?GetCoordinateCalculator@CTool@@UBEAAVCCoordinateCalculator@@XZ
	DD	FLAT:?PointInDrawingRegion@CTwoPointDownTool@@MBE_NABVCPoint@@@Z
	DD	FLAT:?SavePoints@COneOrTwoPointTool@@MAEXABVCPoints@@@Z
	DD	FLAT:__purecall
	DD	FLAT:?GetTextPosition@CTool@@MAEPAVCTextPosition@@XZ
	DD	FLAT:?GetTextPosition@CTool@@MBEPBVCTextPosition@@XZ
	DD	FLAT:?IsMakeElement@CTwoPointDownTool@@MBE_NABVCPoint@@@Z
	DD	FLAT:?MakeElement@CTwoPointDownTool@@MAEPAVCElement@@ABVCElementCommonEnvironment@@@Z
	DD	FLAT:?GetAnalysisData@CTool@@MBEPAVCAnalysisData@@XZ
	DD	FLAT:?MouseMove@CTwoPointDownTool@@MAE_NPAVCDC@@ABVCPoint@@@Z
	DD	FLAT:?Draw_UpPoint@CTwoPointDownTool@@MAEXPAVCDC@@@Z
	DD	FLAT:__purecall
CONST	ENDS
;	COMDAT ??_7COnePointDownTool@@6B@
CONST	SEGMENT
??_7COnePointDownTool@@6B@ DD FLAT:??_R4COnePointDownTool@@6B@ ; COnePointDownTool::`vftable'
	DD	FLAT:?Initialize@CDownTool@@UAEXXZ
	DD	FLAT:?OnLButtonDown@COnePointDownTool@@UAEPAVCElement@@PAVCDC@@ABVCPoint@@@Z
	DD	FLAT:?OnLButtonUp@COneOrTwoPointTool@@UAEXPAVCDC@@ABVCPoint@@@Z
	DD	FLAT:?OnMouseMove@COnePointDownTool@@UAE_NPAVCDC@@ABVCPoint@@H@Z
	DD	FLAT:?OnRButtonUp@CTool@@UAEXPAVCDC@@ABVCPoint@@@Z
	DD	FLAT:?OnDraw@COnePointDownTool@@UAEXPAVCDC@@@Z
	DD	FLAT:?GetCoordinateCalculator@CTool@@UBEAAVCCoordinateCalculator@@XZ
	DD	FLAT:?PointInDrawingRegion@COnePointDownTool@@MBE_NABVCPoint@@@Z
	DD	FLAT:?SavePoints@COneOrTwoPointTool@@MAEXABVCPoints@@@Z
	DD	FLAT:__purecall
	DD	FLAT:?GetTextPosition@CTool@@MAEPAVCTextPosition@@XZ
	DD	FLAT:?GetTextPosition@CTool@@MBEPBVCTextPosition@@XZ
	DD	FLAT:?IsMakeElement@CTool@@MBE_NABVCPoint@@@Z
	DD	FLAT:?MakeElement@COnePointDownTool@@MAEPAVCElement@@ABVCElementCommonEnvironment@@@Z
	DD	FLAT:?GetAnalysisData@CTool@@MBEPAVCAnalysisData@@XZ
	DD	FLAT:?MouseMove@COnePointDownTool@@MAE_NPAVCDC@@ABVCPoint@@@Z
	DD	FLAT:?Draw_UpPoint@COnePointDownTool@@MAEXPAVCDC@@@Z
	DD	FLAT:__purecall
CONST	ENDS
;	COMDAT ??_7COneOrTwoPointTool@@6B@
CONST	SEGMENT
??_7COneOrTwoPointTool@@6B@ DD FLAT:??_R4COneOrTwoPointTool@@6B@ ; COneOrTwoPointTool::`vftable'
	DD	FLAT:?Initialize@CDownTool@@UAEXXZ
	DD	FLAT:?OnLButtonDown@COneOrTwoPointTool@@UAEPAVCElement@@PAVCDC@@ABVCPoint@@@Z
	DD	FLAT:?OnLButtonUp@COneOrTwoPointTool@@UAEXPAVCDC@@ABVCPoint@@@Z
	DD	FLAT:?OnMouseMove@COneOrTwoPointTool@@UAE_NPAVCDC@@ABVCPoint@@H@Z
	DD	FLAT:?OnRButtonUp@CTool@@UAEXPAVCDC@@ABVCPoint@@@Z
	DD	FLAT:?OnDraw@COneOrTwoPointTool@@UAEXPAVCDC@@@Z
	DD	FLAT:?GetCoordinateCalculator@CTool@@UBEAAVCCoordinateCalculator@@XZ
	DD	FLAT:?PointInDrawingRegion@CTool@@MBE_NABVCPoint@@@Z
	DD	FLAT:?SavePoints@COneOrTwoPointTool@@MAEXABVCPoints@@@Z
	DD	FLAT:__purecall
	DD	FLAT:?GetTextPosition@CTool@@MAEPAVCTextPosition@@XZ
	DD	FLAT:?GetTextPosition@CTool@@MBEPBVCTextPosition@@XZ
	DD	FLAT:?IsMakeElement@CTool@@MBE_NABVCPoint@@@Z
	DD	FLAT:?MakeElement@CTool@@MAEPAVCElement@@ABVCElementCommonEnvironment@@@Z
	DD	FLAT:?GetAnalysisData@CTool@@MBEPAVCAnalysisData@@XZ
	DD	FLAT:__purecall
	DD	FLAT:__purecall
CONST	ENDS
;	COMDAT ??_7CDownTool@@6B@
CONST	SEGMENT
??_7CDownTool@@6B@ DD FLAT:??_R4CDownTool@@6B@		; CDownTool::`vftable'
	DD	FLAT:?Initialize@CDownTool@@UAEXXZ
	DD	FLAT:?OnLButtonDown@CDownTool@@UAEPAVCElement@@PAVCDC@@ABVCPoint@@@Z
	DD	FLAT:?OnLButtonUp@CTool@@UAEXPAVCDC@@ABVCPoint@@@Z
	DD	FLAT:?OnMouseMove@CDownTool@@UAE_NPAVCDC@@ABVCPoint@@H@Z
	DD	FLAT:?OnRButtonUp@CTool@@UAEXPAVCDC@@ABVCPoint@@@Z
	DD	FLAT:__purecall
	DD	FLAT:?GetCoordinateCalculator@CTool@@UBEAAVCCoordinateCalculator@@XZ
	DD	FLAT:?PointInDrawingRegion@CTool@@MBE_NABVCPoint@@@Z
	DD	FLAT:__purecall
	DD	FLAT:__purecall
	DD	FLAT:?GetTextPosition@CTool@@MAEPAVCTextPosition@@XZ
	DD	FLAT:?GetTextPosition@CTool@@MBEPBVCTextPosition@@XZ
	DD	FLAT:?IsMakeElement@CTool@@MBE_NABVCPoint@@@Z
	DD	FLAT:?MakeElement@CTool@@MAEPAVCElement@@ABVCElementCommonEnvironment@@@Z
	DD	FLAT:?GetAnalysisData@CTool@@MBEPAVCAnalysisData@@XZ
CONST	ENDS
;	COMDAT ??_7CTwoPointMoveTool@@6B@
CONST	SEGMENT
??_7CTwoPointMoveTool@@6B@ DD FLAT:??_R4CTwoPointMoveTool@@6B@ ; CTwoPointMoveTool::`vftable'
	DD	FLAT:?Initialize@CMoveTool@@UAEXXZ
	DD	FLAT:?OnLButtonDown@CMoveTool@@UAEPAVCElement@@PAVCDC@@ABVCPoint@@@Z
	DD	FLAT:?OnLButtonUp@CMoveTool@@UAEXPAVCDC@@ABVCPoint@@@Z
	DD	FLAT:?OnMouseMove@CMoveTool@@UAE_NPAVCDC@@ABVCPoint@@H@Z
	DD	FLAT:?OnRButtonUp@CTool@@UAEXPAVCDC@@ABVCPoint@@@Z
	DD	FLAT:?OnDraw@CMoveTool@@UAEXPAVCDC@@@Z
	DD	FLAT:?GetCoordinateCalculator@CTool@@UBEAAVCCoordinateCalculator@@XZ
	DD	FLAT:?PointInDrawingRegion@CMoveTool@@MBE_NABVCPoint@@@Z
	DD	FLAT:?SavePoints@CMoveTool@@MAEXABVCPoints@@@Z
	DD	FLAT:__purecall
	DD	FLAT:?GetTextPosition@CTool@@MAEPAVCTextPosition@@XZ
	DD	FLAT:?GetTextPosition@CTool@@MBEPBVCTextPosition@@XZ
	DD	FLAT:?IsMakeElement@CTool@@MBE_NABVCPoint@@@Z
	DD	FLAT:?MakeElement@CTwoPointMoveTool@@MAEPAVCElement@@ABVCElementCommonEnvironment@@@Z
	DD	FLAT:?GetAnalysisData@CTool@@MBEPAVCAnalysisData@@XZ
	DD	FLAT:?DrawTool@CTwoPointMoveTool@@MAEXPAVCDC@@@Z
	DD	FLAT:__purecall
	DD	FLAT:__purecall
CONST	ENDS
;	COMDAT ??_7COnePointMoveTool@@6B@
CONST	SEGMENT
??_7COnePointMoveTool@@6B@ DD FLAT:??_R4COnePointMoveTool@@6B@ ; COnePointMoveTool::`vftable'
	DD	FLAT:?Initialize@CMoveTool@@UAEXXZ
	DD	FLAT:?OnLButtonDown@CMoveTool@@UAEPAVCElement@@PAVCDC@@ABVCPoint@@@Z
	DD	FLAT:?OnLButtonUp@CMoveTool@@UAEXPAVCDC@@ABVCPoint@@@Z
	DD	FLAT:?OnMouseMove@CMoveTool@@UAE_NPAVCDC@@ABVCPoint@@H@Z
	DD	FLAT:?OnRButtonUp@CTool@@UAEXPAVCDC@@ABVCPoint@@@Z
	DD	FLAT:?OnDraw@CMoveTool@@UAEXPAVCDC@@@Z
	DD	FLAT:?GetCoordinateCalculator@CTool@@UBEAAVCCoordinateCalculator@@XZ
	DD	FLAT:?PointInDrawingRegion@CMoveTool@@MBE_NABVCPoint@@@Z
	DD	FLAT:?SavePoints@CMoveTool@@MAEXABVCPoints@@@Z
	DD	FLAT:__purecall
	DD	FLAT:?GetTextPosition@CTool@@MAEPAVCTextPosition@@XZ
	DD	FLAT:?GetTextPosition@CTool@@MBEPBVCTextPosition@@XZ
	DD	FLAT:?IsMakeElement@CTool@@MBE_NABVCPoint@@@Z
	DD	FLAT:?MakeElement@COnePointMoveTool@@MAEPAVCElement@@ABVCElementCommonEnvironment@@@Z
	DD	FLAT:?GetAnalysisData@CTool@@MBEPAVCAnalysisData@@XZ
	DD	FLAT:?DrawTool@COnePointMoveTool@@MAEXPAVCDC@@@Z
	DD	FLAT:__purecall
CONST	ENDS
;	COMDAT ??_7CMoveTool@@6B@
CONST	SEGMENT
??_7CMoveTool@@6B@ DD FLAT:??_R4CMoveTool@@6B@		; CMoveTool::`vftable'
	DD	FLAT:?Initialize@CMoveTool@@UAEXXZ
	DD	FLAT:?OnLButtonDown@CMoveTool@@UAEPAVCElement@@PAVCDC@@ABVCPoint@@@Z
	DD	FLAT:?OnLButtonUp@CMoveTool@@UAEXPAVCDC@@ABVCPoint@@@Z
	DD	FLAT:?OnMouseMove@CMoveTool@@UAE_NPAVCDC@@ABVCPoint@@H@Z
	DD	FLAT:?OnRButtonUp@CTool@@UAEXPAVCDC@@ABVCPoint@@@Z
	DD	FLAT:?OnDraw@CMoveTool@@UAEXPAVCDC@@@Z
	DD	FLAT:?GetCoordinateCalculator@CTool@@UBEAAVCCoordinateCalculator@@XZ
	DD	FLAT:?PointInDrawingRegion@CMoveTool@@MBE_NABVCPoint@@@Z
	DD	FLAT:?SavePoints@CMoveTool@@MAEXABVCPoints@@@Z
	DD	FLAT:__purecall
	DD	FLAT:?GetTextPosition@CTool@@MAEPAVCTextPosition@@XZ
	DD	FLAT:?GetTextPosition@CTool@@MBEPBVCTextPosition@@XZ
	DD	FLAT:?IsMakeElement@CTool@@MBE_NABVCPoint@@@Z
	DD	FLAT:?MakeElement@CTool@@MAEPAVCElement@@ABVCElementCommonEnvironment@@@Z
	DD	FLAT:?GetAnalysisData@CTool@@MBEPAVCAnalysisData@@XZ
	DD	FLAT:__purecall
CONST	ENDS
;	COMDAT xdata$x
xdata$x	SEGMENT
__ehfuncinfo$??1CMultiPointDrawingData@@QAE@XZ DD 019930522H
	DD	00H
	DD	00H
	DD	2 DUP(00H)
	DD	2 DUP(00H)
	DD	00H
	DD	05H
xdata$x	ENDS
;	COMDAT xdata$x
xdata$x	SEGMENT
__ehfuncinfo$??1CMultiLanguageResourceSetter@@QAE@XZ DD 019930522H
	DD	00H
	DD	00H
	DD	2 DUP(00H)
	DD	2 DUP(00H)
	DD	00H
	DD	05H
xdata$x	ENDS
;	COMDAT xdata$x
xdata$x	SEGMENT
__ehfuncinfo$?GetMultiPointDrawingData@CMultiPointDownTool@@ABE?AVCMultiPointDrawingData@@XZ DD 019930522H
	DD	09H
	DD	FLAT:__unwindtable$?GetMultiPointDrawingData@CMultiPointDownTool@@ABE?AVCMultiPointDrawingData@@XZ
	DD	2 DUP(00H)
	DD	2 DUP(00H)
	DD	00H
	DD	01H
__unwindtable$?GetMultiPointDrawingData@CMultiPointDownTool@@ABE?AVCMultiPointDrawingData@@XZ DD 0ffffffffH
	DD	FLAT:__unwindfunclet$?GetMultiPointDrawingData@CMultiPointDownTool@@ABE?AVCMultiPointDrawingData@@XZ$0
	DD	00H
	DD	FLAT:__unwindfunclet$?GetMultiPointDrawingData@CMultiPointDownTool@@ABE?AVCMultiPointDrawingData@@XZ$1
	DD	01H
	DD	FLAT:__unwindfunclet$?GetMultiPointDrawingData@CMultiPointDownTool@@ABE?AVCMultiPointDrawingData@@XZ$2
	DD	02H
	DD	FLAT:__unwindfunclet$?GetMultiPointDrawingData@CMultiPointDownTool@@ABE?AVCMultiPointDrawingData@@XZ$3
	DD	03H
	DD	FLAT:__unwindfunclet$?GetMultiPointDrawingData@CMultiPointDownTool@@ABE?AVCMultiPointDrawingData@@XZ$4
	DD	04H
	DD	FLAT:__unwindfunclet$?GetMultiPointDrawingData@CMultiPointDownTool@@ABE?AVCMultiPointDrawingData@@XZ$5
	DD	05H
	DD	FLAT:__unwindfunclet$?GetMultiPointDrawingData@CMultiPointDownTool@@ABE?AVCMultiPointDrawingData@@XZ$6
	DD	03H
	DD	FLAT:___std_terminate
	DD	0ffffffffH
	DD	FLAT:___std_terminate
xdata$x	ENDS
;	COMDAT xdata$x
xdata$x	SEGMENT
__unwindtable$?OnDraw@CMultiPointDownTool@@UAEXPAVCDC@@@Z DD 0ffffffffH
	DD	FLAT:__unwindfunclet$?OnDraw@CMultiPointDownTool@@UAEXPAVCDC@@@Z$0
	DD	0ffffffffH
	DD	FLAT:___std_terminate
__ehfuncinfo$?OnDraw@CMultiPointDownTool@@UAEXPAVCDC@@@Z DD 019930522H
	DD	02H
	DD	FLAT:__unwindtable$?OnDraw@CMultiPointDownTool@@UAEXPAVCDC@@@Z
	DD	2 DUP(00H)
	DD	2 DUP(00H)
	DD	00H
	DD	01H
xdata$x	ENDS
;	COMDAT xdata$x
xdata$x	SEGMENT
__unwindtable$?OnMouseMove@CMultiPointDownTool@@UAE_NPAVCDC@@ABVCPoint@@H@Z DD 0ffffffffH
	DD	FLAT:__unwindfunclet$?OnMouseMove@CMultiPointDownTool@@UAE_NPAVCDC@@ABVCPoint@@H@Z$0
__ehfuncinfo$?OnMouseMove@CMultiPointDownTool@@UAE_NPAVCDC@@ABVCPoint@@H@Z DD 019930522H
	DD	01H
	DD	FLAT:__unwindtable$?OnMouseMove@CMultiPointDownTool@@UAE_NPAVCDC@@ABVCPoint@@H@Z
	DD	2 DUP(00H)
	DD	2 DUP(00H)
	DD	00H
	DD	01H
xdata$x	ENDS
;	COMDAT xdata$x
xdata$x	SEGMENT
__unwindtable$?OnLButtonUp@CMultiPointDownTool@@UAEXPAVCDC@@ABVCPoint@@@Z DD 0ffffffffH
	DD	FLAT:__unwindfunclet$?OnLButtonUp@CMultiPointDownTool@@UAEXPAVCDC@@ABVCPoint@@@Z$0
__ehfuncinfo$?OnLButtonUp@CMultiPointDownTool@@UAEXPAVCDC@@ABVCPoint@@@Z DD 019930522H
	DD	01H
	DD	FLAT:__unwindtable$?OnLButtonUp@CMultiPointDownTool@@UAEXPAVCDC@@ABVCPoint@@@Z
	DD	2 DUP(00H)
	DD	2 DUP(00H)
	DD	00H
	DD	01H
xdata$x	ENDS
;	COMDAT xdata$x
xdata$x	SEGMENT
__unwindtable$?OnLButtonDown@CMultiPointDownTool@@UAEPAVCElement@@PAVCDC@@ABVCPoint@@@Z DD 0ffffffffH
	DD	FLAT:__unwindfunclet$?OnLButtonDown@CMultiPointDownTool@@UAEPAVCElement@@PAVCDC@@ABVCPoint@@@Z$0
__ehfuncinfo$?OnLButtonDown@CMultiPointDownTool@@UAEPAVCElement@@PAVCDC@@ABVCPoint@@@Z DD 019930522H
	DD	01H
	DD	FLAT:__unwindtable$?OnLButtonDown@CMultiPointDownTool@@UAEPAVCElement@@PAVCDC@@ABVCPoint@@@Z
	DD	2 DUP(00H)
	DD	2 DUP(00H)
	DD	00H
	DD	01H
xdata$x	ENDS
;	COMDAT xdata$x
xdata$x	SEGMENT
__unwindtable$??0CMultiPointDownTool@@IAE@PAVCAnalysisData@@W4COORDINATETYPE@CAnalysis@@@Z DD 0ffffffffH
	DD	FLAT:__unwindfunclet$??0CMultiPointDownTool@@IAE@PAVCAnalysisData@@W4COORDINATETYPE@CAnalysis@@@Z$2
	DD	0ffffffffH
	DD	FLAT:__unwindfunclet$??0CMultiPointDownTool@@IAE@PAVCAnalysisData@@W4COORDINATETYPE@CAnalysis@@@Z$0
	DD	01H
	DD	FLAT:__unwindfunclet$??0CMultiPointDownTool@@IAE@PAVCAnalysisData@@W4COORDINATETYPE@CAnalysis@@@Z$1
__ehfuncinfo$??0CMultiPointDownTool@@IAE@PAVCAnalysisData@@W4COORDINATETYPE@CAnalysis@@@Z DD 019930522H
	DD	03H
	DD	FLAT:__unwindtable$??0CMultiPointDownTool@@IAE@PAVCAnalysisData@@W4COORDINATETYPE@CAnalysis@@@Z
	DD	2 DUP(00H)
	DD	2 DUP(00H)
	DD	00H
	DD	01H
xdata$x	ENDS
;	COMDAT xdata$x
xdata$x	SEGMENT
__ehfuncinfo$?GetThreePointDrawingData@CThreePointDownTool@@ABE?AVCThreePointDrawingData@@XZ DD 019930522H
	DD	09H
	DD	FLAT:__unwindtable$?GetThreePointDrawingData@CThreePointDownTool@@ABE?AVCThreePointDrawingData@@XZ
	DD	2 DUP(00H)
	DD	2 DUP(00H)
	DD	00H
	DD	01H
__unwindtable$?GetThreePointDrawingData@CThreePointDownTool@@ABE?AVCThreePointDrawingData@@XZ DD 0ffffffffH
	DD	FLAT:__unwindfunclet$?GetThreePointDrawingData@CThreePointDownTool@@ABE?AVCThreePointDrawingData@@XZ$0
	DD	00H
	DD	FLAT:__unwindfunclet$?GetThreePointDrawingData@CThreePointDownTool@@ABE?AVCThreePointDrawingData@@XZ$1
	DD	01H
	DD	FLAT:__unwindfunclet$?GetThreePointDrawingData@CThreePointDownTool@@ABE?AVCThreePointDrawingData@@XZ$2
	DD	02H
	DD	FLAT:__unwindfunclet$?GetThreePointDrawingData@CThreePointDownTool@@ABE?AVCThreePointDrawingData@@XZ$3
	DD	03H
	DD	FLAT:__unwindfunclet$?GetThreePointDrawingData@CThreePointDownTool@@ABE?AVCThreePointDrawingData@@XZ$4
	DD	04H
	DD	FLAT:__unwindfunclet$?GetThreePointDrawingData@CThreePointDownTool@@ABE?AVCThreePointDrawingData@@XZ$5
	DD	05H
	DD	FLAT:__unwindfunclet$?GetThreePointDrawingData@CThreePointDownTool@@ABE?AVCThreePointDrawingData@@XZ$6
	DD	03H
	DD	FLAT:___std_terminate
	DD	0ffffffffH
	DD	FLAT:___std_terminate
xdata$x	ENDS
;	COMDAT xdata$x
xdata$x	SEGMENT
__unwindtable$?MakeElement@CThreePointDownTool@@MAEPAVCElement@@ABVCElementCommonEnvironment@@@Z DD 0ffffffffH
	DD	FLAT:__unwindfunclet$?MakeElement@CThreePointDownTool@@MAEPAVCElement@@ABVCElementCommonEnvironment@@@Z$0
	DD	00H
	DD	FLAT:__unwindfunclet$?MakeElement@CThreePointDownTool@@MAEPAVCElement@@ABVCElementCommonEnvironment@@@Z$1
	DD	01H
	DD	FLAT:__unwindfunclet$?MakeElement@CThreePointDownTool@@MAEPAVCElement@@ABVCElementCommonEnvironment@@@Z$2
__ehfuncinfo$?MakeElement@CThreePointDownTool@@MAEPAVCElement@@ABVCElementCommonEnvironment@@@Z DD 019930522H
	DD	03H
	DD	FLAT:__unwindtable$?MakeElement@CThreePointDownTool@@MAEPAVCElement@@ABVCElementCommonEnvironment@@@Z
	DD	2 DUP(00H)
	DD	2 DUP(00H)
	DD	00H
	DD	01H
xdata$x	ENDS
;	COMDAT xdata$x
xdata$x	SEGMENT
__unwindtable$?OnDraw@CThreePointDownTool@@UAEXPAVCDC@@@Z DD 0ffffffffH
	DD	FLAT:__unwindfunclet$?OnDraw@CThreePointDownTool@@UAEXPAVCDC@@@Z$0
__ehfuncinfo$?OnDraw@CThreePointDownTool@@UAEXPAVCDC@@@Z DD 019930522H
	DD	01H
	DD	FLAT:__unwindtable$?OnDraw@CThreePointDownTool@@UAEXPAVCDC@@@Z
	DD	2 DUP(00H)
	DD	2 DUP(00H)
	DD	00H
	DD	01H
xdata$x	ENDS
;	COMDAT xdata$x
xdata$x	SEGMENT
__ehfuncinfo$?OnLButtonUp@CThreePointDownTool@@UAEXPAVCDC@@ABVCPoint@@@Z DD 019930522H
	DD	07H
	DD	FLAT:__unwindtable$?OnLButtonUp@CThreePointDownTool@@UAEXPAVCDC@@ABVCPoint@@@Z
	DD	2 DUP(00H)
	DD	2 DUP(00H)
	DD	00H
	DD	01H
__unwindtable$?OnLButtonUp@CThreePointDownTool@@UAEXPAVCDC@@ABVCPoint@@@Z DD 0ffffffffH
	DD	FLAT:__unwindfunclet$?OnLButtonUp@CThreePointDownTool@@UAEXPAVCDC@@ABVCPoint@@@Z$0
	DD	00H
	DD	FLAT:__unwindfunclet$?OnLButtonUp@CThreePointDownTool@@UAEXPAVCDC@@ABVCPoint@@@Z$1
	DD	01H
	DD	FLAT:__unwindfunclet$?OnLButtonUp@CThreePointDownTool@@UAEXPAVCDC@@ABVCPoint@@@Z$2
	DD	02H
	DD	FLAT:__unwindfunclet$?OnLButtonUp@CThreePointDownTool@@UAEXPAVCDC@@ABVCPoint@@@Z$3
	DD	02H
	DD	FLAT:__unwindfunclet$?OnLButtonUp@CThreePointDownTool@@UAEXPAVCDC@@ABVCPoint@@@Z$4
	DD	02H
	DD	FLAT:__unwindfunclet$?OnLButtonUp@CThreePointDownTool@@UAEXPAVCDC@@ABVCPoint@@@Z$5
	DD	00H
	DD	FLAT:___std_terminate
xdata$x	ENDS
;	COMDAT xdata$x
xdata$x	SEGMENT
__ehfuncinfo$??0CThreePointDownTool@@IAE@PAVCAnalysisData@@W4COORDINATETYPE@CAnalysis@@@Z DD 019930522H
	DD	05H
	DD	FLAT:__unwindtable$??0CThreePointDownTool@@IAE@PAVCAnalysisData@@W4COORDINATETYPE@CAnalysis@@@Z
	DD	2 DUP(00H)
	DD	2 DUP(00H)
	DD	00H
	DD	01H
__unwindtable$??0CThreePointDownTool@@IAE@PAVCAnalysisData@@W4COORDINATETYPE@CAnalysis@@@Z DD 0ffffffffH
	DD	FLAT:__unwindfunclet$??0CThreePointDownTool@@IAE@PAVCAnalysisData@@W4COORDINATETYPE@CAnalysis@@@Z$4
	DD	0ffffffffH
	DD	FLAT:__unwindfunclet$??0CThreePointDownTool@@IAE@PAVCAnalysisData@@W4COORDINATETYPE@CAnalysis@@@Z$0
	DD	01H
	DD	FLAT:__unwindfunclet$??0CThreePointDownTool@@IAE@PAVCAnalysisData@@W4COORDINATETYPE@CAnalysis@@@Z$1
	DD	02H
	DD	FLAT:__unwindfunclet$??0CThreePointDownTool@@IAE@PAVCAnalysisData@@W4COORDINATETYPE@CAnalysis@@@Z$2
	DD	03H
	DD	FLAT:__unwindfunclet$??0CThreePointDownTool@@IAE@PAVCAnalysisData@@W4COORDINATETYPE@CAnalysis@@@Z$3
xdata$x	ENDS
;	COMDAT xdata$x
xdata$x	SEGMENT
__ehfuncinfo$?GetTwoPointDrawingData@CTwoPointDownTool@@ABE?AVCTwoPointDrawingData@@XZ DD 019930522H
	DD	0fH
	DD	FLAT:__unwindtable$?GetTwoPointDrawingData@CTwoPointDownTool@@ABE?AVCTwoPointDrawingData@@XZ
	DD	2 DUP(00H)
	DD	2 DUP(00H)
	DD	00H
	DD	01H
__unwindtable$?GetTwoPointDrawingData@CTwoPointDownTool@@ABE?AVCTwoPointDrawingData@@XZ DD 0ffffffffH
	DD	FLAT:__unwindfunclet$?GetTwoPointDrawingData@CTwoPointDownTool@@ABE?AVCTwoPointDrawingData@@XZ$0
	DD	00H
	DD	FLAT:__unwindfunclet$?GetTwoPointDrawingData@CTwoPointDownTool@@ABE?AVCTwoPointDrawingData@@XZ$1
	DD	01H
	DD	FLAT:__unwindfunclet$?GetTwoPointDrawingData@CTwoPointDownTool@@ABE?AVCTwoPointDrawingData@@XZ$2
	DD	02H
	DD	FLAT:__unwindfunclet$?GetTwoPointDrawingData@CTwoPointDownTool@@ABE?AVCTwoPointDrawingData@@XZ$3
	DD	03H
	DD	FLAT:__unwindfunclet$?GetTwoPointDrawingData@CTwoPointDownTool@@ABE?AVCTwoPointDrawingData@@XZ$4
	DD	02H
	DD	FLAT:__unwindfunclet$?GetTwoPointDrawingData@CTwoPointDownTool@@ABE?AVCTwoPointDrawingData@@XZ$4
	DD	05H
	DD	FLAT:__unwindfunclet$?GetTwoPointDrawingData@CTwoPointDownTool@@ABE?AVCTwoPointDrawingData@@XZ$5
	DD	06H
	DD	FLAT:__unwindfunclet$?GetTwoPointDrawingData@CTwoPointDownTool@@ABE?AVCTwoPointDrawingData@@XZ$6
	DD	07H
	DD	FLAT:__unwindfunclet$?GetTwoPointDrawingData@CTwoPointDownTool@@ABE?AVCTwoPointDrawingData@@XZ$7
	DD	08H
	DD	FLAT:__unwindfunclet$?GetTwoPointDrawingData@CTwoPointDownTool@@ABE?AVCTwoPointDrawingData@@XZ$8
	DD	09H
	DD	FLAT:__unwindfunclet$?GetTwoPointDrawingData@CTwoPointDownTool@@ABE?AVCTwoPointDrawingData@@XZ$9
	DD	0aH
	DD	FLAT:__unwindfunclet$?GetTwoPointDrawingData@CTwoPointDownTool@@ABE?AVCTwoPointDrawingData@@XZ$10
	DD	0bH
	DD	FLAT:__unwindfunclet$?GetTwoPointDrawingData@CTwoPointDownTool@@ABE?AVCTwoPointDrawingData@@XZ$11
	DD	05H
	DD	FLAT:___std_terminate
	DD	0ffffffffH
	DD	FLAT:___std_terminate
xdata$x	ENDS
;	COMDAT xdata$x
xdata$x	SEGMENT
__ehfuncinfo$?Draw_UpPoint@CTwoPointDownTool@@MAEXPAVCDC@@@Z DD 019930522H
	DD	06H
	DD	FLAT:__unwindtable$?Draw_UpPoint@CTwoPointDownTool@@MAEXPAVCDC@@@Z
	DD	2 DUP(00H)
	DD	2 DUP(00H)
	DD	00H
	DD	01H
__unwindtable$?Draw_UpPoint@CTwoPointDownTool@@MAEXPAVCDC@@@Z DD 0ffffffffH
	DD	FLAT:__unwindfunclet$?Draw_UpPoint@CTwoPointDownTool@@MAEXPAVCDC@@@Z$0
	DD	00H
	DD	FLAT:__unwindfunclet$?Draw_UpPoint@CTwoPointDownTool@@MAEXPAVCDC@@@Z$1
	DD	01H
	DD	FLAT:__unwindfunclet$?Draw_UpPoint@CTwoPointDownTool@@MAEXPAVCDC@@@Z$2
	DD	02H
	DD	FLAT:__unwindfunclet$?Draw_UpPoint@CTwoPointDownTool@@MAEXPAVCDC@@@Z$3
	DD	03H
	DD	FLAT:__unwindfunclet$?Draw_UpPoint@CTwoPointDownTool@@MAEXPAVCDC@@@Z$4
	DD	04H
	DD	FLAT:__unwindfunclet$?Draw_UpPoint@CTwoPointDownTool@@MAEXPAVCDC@@@Z$5
xdata$x	ENDS
;	COMDAT xdata$x
xdata$x	SEGMENT
__unwindtable$?MouseMove@CTwoPointDownTool@@MAE_NPAVCDC@@ABVCPoint@@@Z DD 0ffffffffH
	DD	FLAT:__unwindfunclet$?MouseMove@CTwoPointDownTool@@MAE_NPAVCDC@@ABVCPoint@@@Z$0
	DD	0ffffffffH
	DD	FLAT:__unwindfunclet$?MouseMove@CTwoPointDownTool@@MAE_NPAVCDC@@ABVCPoint@@@Z$1
__ehfuncinfo$?MouseMove@CTwoPointDownTool@@MAE_NPAVCDC@@ABVCPoint@@@Z DD 019930522H
	DD	02H
	DD	FLAT:__unwindtable$?MouseMove@CTwoPointDownTool@@MAE_NPAVCDC@@ABVCPoint@@@Z
	DD	2 DUP(00H)
	DD	2 DUP(00H)
	DD	00H
	DD	01H
xdata$x	ENDS
;	COMDAT xdata$x
xdata$x	SEGMENT
__ehfuncinfo$?MakeElement@CTwoPointDownTool@@MAEPAVCElement@@ABVCElementCommonEnvironment@@@Z DD 019930522H
	DD	0aH
	DD	FLAT:__unwindtable$?MakeElement@CTwoPointDownTool@@MAEPAVCElement@@ABVCElementCommonEnvironment@@@Z
	DD	2 DUP(00H)
	DD	2 DUP(00H)
	DD	00H
	DD	01H
__unwindtable$?MakeElement@CTwoPointDownTool@@MAEPAVCElement@@ABVCElementCommonEnvironment@@@Z DD 0ffffffffH
	DD	FLAT:__unwindfunclet$?MakeElement@CTwoPointDownTool@@MAEPAVCElement@@ABVCElementCommonEnvironment@@@Z$0
	DD	00H
	DD	FLAT:__unwindfunclet$?MakeElement@CTwoPointDownTool@@MAEPAVCElement@@ABVCElementCommonEnvironment@@@Z$1
	DD	01H
	DD	FLAT:__unwindfunclet$?MakeElement@CTwoPointDownTool@@MAEPAVCElement@@ABVCElementCommonEnvironment@@@Z$2
	DD	00H
	DD	FLAT:__unwindfunclet$?MakeElement@CTwoPointDownTool@@MAEPAVCElement@@ABVCElementCommonEnvironment@@@Z$2
	DD	03H
	DD	FLAT:__unwindfunclet$?MakeElement@CTwoPointDownTool@@MAEPAVCElement@@ABVCElementCommonEnvironment@@@Z$3
	DD	04H
	DD	FLAT:__unwindfunclet$?MakeElement@CTwoPointDownTool@@MAEPAVCElement@@ABVCElementCommonEnvironment@@@Z$4
	DD	05H
	DD	FLAT:__unwindfunclet$?MakeElement@CTwoPointDownTool@@MAEPAVCElement@@ABVCElementCommonEnvironment@@@Z$5
	DD	06H
	DD	FLAT:__unwindfunclet$?MakeElement@CTwoPointDownTool@@MAEPAVCElement@@ABVCElementCommonEnvironment@@@Z$6
	DD	05H
	DD	FLAT:___std_terminate
	DD	04H
	DD	FLAT:___std_terminate
xdata$x	ENDS
;	COMDAT xdata$x
xdata$x	SEGMENT
__unwindtable$?IsMakeElement@CTwoPointDownTool@@MBE_NABVCPoint@@@Z DD 0ffffffffH
	DD	FLAT:__unwindfunclet$?IsMakeElement@CTwoPointDownTool@@MBE_NABVCPoint@@@Z$0
	DD	00H
	DD	FLAT:__unwindfunclet$?IsMakeElement@CTwoPointDownTool@@MBE_NABVCPoint@@@Z$1
	DD	01H
	DD	FLAT:__unwindfunclet$?IsMakeElement@CTwoPointDownTool@@MBE_NABVCPoint@@@Z$2
__ehfuncinfo$?IsMakeElement@CTwoPointDownTool@@MBE_NABVCPoint@@@Z DD 019930522H
	DD	03H
	DD	FLAT:__unwindtable$?IsMakeElement@CTwoPointDownTool@@MBE_NABVCPoint@@@Z
	DD	2 DUP(00H)
	DD	2 DUP(00H)
	DD	00H
	DD	01H
xdata$x	ENDS
;	COMDAT xdata$x
xdata$x	SEGMENT
__unwindtable$?OnLButtonDown@CTwoPointDownTool@@UAEPAVCElement@@PAVCDC@@ABVCPoint@@@Z DD 0ffffffffH
	DD	FLAT:__unwindfunclet$?OnLButtonDown@CTwoPointDownTool@@UAEPAVCElement@@PAVCDC@@ABVCPoint@@@Z$0
__ehfuncinfo$?OnLButtonDown@CTwoPointDownTool@@UAEPAVCElement@@PAVCDC@@ABVCPoint@@@Z DD 019930522H
	DD	01H
	DD	FLAT:__unwindtable$?OnLButtonDown@CTwoPointDownTool@@UAEPAVCElement@@PAVCDC@@ABVCPoint@@@Z
	DD	2 DUP(00H)
	DD	2 DUP(00H)
	DD	00H
	DD	01H
xdata$x	ENDS
;	COMDAT xdata$x
xdata$x	SEGMENT
__unwindtable$??0CTwoPointDownTool@@IAE@PAVCAnalysisData@@W4COORDINATETYPE@CAnalysis@@@Z DD 0ffffffffH
	DD	FLAT:__unwindfunclet$??0CTwoPointDownTool@@IAE@PAVCAnalysisData@@W4COORDINATETYPE@CAnalysis@@@Z$0
__ehfuncinfo$??0CTwoPointDownTool@@IAE@PAVCAnalysisData@@W4COORDINATETYPE@CAnalysis@@@Z DD 019930522H
	DD	01H
	DD	FLAT:__unwindtable$??0CTwoPointDownTool@@IAE@PAVCAnalysisData@@W4COORDINATETYPE@CAnalysis@@@Z
	DD	2 DUP(00H)
	DD	2 DUP(00H)
	DD	00H
	DD	01H
xdata$x	ENDS
;	COMDAT xdata$x
xdata$x	SEGMENT
__ehfuncinfo$?GetOnePointDrawingData@COnePointDownTool@@ABE?AVCOnePointDrawingData@@XZ DD 019930522H
	DD	0dH
	DD	FLAT:__unwindtable$?GetOnePointDrawingData@COnePointDownTool@@ABE?AVCOnePointDrawingData@@XZ
	DD	2 DUP(00H)
	DD	2 DUP(00H)
	DD	00H
	DD	01H
__unwindtable$?GetOnePointDrawingData@COnePointDownTool@@ABE?AVCOnePointDrawingData@@XZ DD 0ffffffffH
	DD	FLAT:__unwindfunclet$?GetOnePointDrawingData@COnePointDownTool@@ABE?AVCOnePointDrawingData@@XZ$0
	DD	00H
	DD	FLAT:__unwindfunclet$?GetOnePointDrawingData@COnePointDownTool@@ABE?AVCOnePointDrawingData@@XZ$1
	DD	01H
	DD	FLAT:__unwindfunclet$?GetOnePointDrawingData@COnePointDownTool@@ABE?AVCOnePointDrawingData@@XZ$2
	DD	02H
	DD	FLAT:__unwindfunclet$?GetOnePointDrawingData@COnePointDownTool@@ABE?AVCOnePointDrawingData@@XZ$3
	DD	03H
	DD	FLAT:__unwindfunclet$?GetOnePointDrawingData@COnePointDownTool@@ABE?AVCOnePointDrawingData@@XZ$4
	DD	02H
	DD	FLAT:__unwindfunclet$?GetOnePointDrawingData@COnePointDownTool@@ABE?AVCOnePointDrawingData@@XZ$4
	DD	05H
	DD	FLAT:__unwindfunclet$?GetOnePointDrawingData@COnePointDownTool@@ABE?AVCOnePointDrawingData@@XZ$5
	DD	06H
	DD	FLAT:__unwindfunclet$?GetOnePointDrawingData@COnePointDownTool@@ABE?AVCOnePointDrawingData@@XZ$6
	DD	07H
	DD	FLAT:__unwindfunclet$?GetOnePointDrawingData@COnePointDownTool@@ABE?AVCOnePointDrawingData@@XZ$7
	DD	08H
	DD	FLAT:__unwindfunclet$?GetOnePointDrawingData@COnePointDownTool@@ABE?AVCOnePointDrawingData@@XZ$8
	DD	09H
	DD	FLAT:__unwindfunclet$?GetOnePointDrawingData@COnePointDownTool@@ABE?AVCOnePointDrawingData@@XZ$9
	DD	05H
	DD	FLAT:___std_terminate
	DD	0ffffffffH
	DD	FLAT:___std_terminate
xdata$x	ENDS
;	COMDAT xdata$x
xdata$x	SEGMENT
__unwindtable$?OnMouseMove_InNotDrawingRegion@COnePointDownTool@@AAE_NABVCPoint@@@Z DD 0ffffffffH
	DD	FLAT:__unwindfunclet$?OnMouseMove_InNotDrawingRegion@COnePointDownTool@@AAE_NABVCPoint@@@Z$0
__ehfuncinfo$?OnMouseMove_InNotDrawingRegion@COnePointDownTool@@AAE_NABVCPoint@@@Z DD 019930522H
	DD	01H
	DD	FLAT:__unwindtable$?OnMouseMove_InNotDrawingRegion@COnePointDownTool@@AAE_NABVCPoint@@@Z
	DD	2 DUP(00H)
	DD	2 DUP(00H)
	DD	00H
	DD	01H
xdata$x	ENDS
;	COMDAT xdata$x
xdata$x	SEGMENT
__unwindtable$?Draw_UpPoint@COnePointDownTool@@MAEXPAVCDC@@@Z DD 0ffffffffH
	DD	FLAT:__unwindfunclet$?Draw_UpPoint@COnePointDownTool@@MAEXPAVCDC@@@Z$0
__ehfuncinfo$?Draw_UpPoint@COnePointDownTool@@MAEXPAVCDC@@@Z DD 019930522H
	DD	01H
	DD	FLAT:__unwindtable$?Draw_UpPoint@COnePointDownTool@@MAEXPAVCDC@@@Z
	DD	2 DUP(00H)
	DD	2 DUP(00H)
	DD	00H
	DD	01H
xdata$x	ENDS
;	COMDAT xdata$x
xdata$x	SEGMENT
__unwindtable$?MouseMove@COnePointDownTool@@MAE_NPAVCDC@@ABVCPoint@@@Z DD 0ffffffffH
	DD	FLAT:__unwindfunclet$?MouseMove@COnePointDownTool@@MAE_NPAVCDC@@ABVCPoint@@@Z$0
	DD	00H
	DD	FLAT:__unwindfunclet$?MouseMove@COnePointDownTool@@MAE_NPAVCDC@@ABVCPoint@@@Z$1
__ehfuncinfo$?MouseMove@COnePointDownTool@@MAE_NPAVCDC@@ABVCPoint@@@Z DD 019930522H
	DD	02H
	DD	FLAT:__unwindtable$?MouseMove@COnePointDownTool@@MAE_NPAVCDC@@ABVCPoint@@@Z
	DD	2 DUP(00H)
	DD	2 DUP(00H)
	DD	00H
	DD	01H
xdata$x	ENDS
;	COMDAT xdata$x
xdata$x	SEGMENT
__unwindtable$?MakeElement@COnePointDownTool@@MAEPAVCElement@@ABVCElementCommonEnvironment@@@Z DD 0ffffffffH
	DD	FLAT:__unwindfunclet$?MakeElement@COnePointDownTool@@MAEPAVCElement@@ABVCElementCommonEnvironment@@@Z$0
	DD	00H
	DD	FLAT:__unwindfunclet$?MakeElement@COnePointDownTool@@MAEPAVCElement@@ABVCElementCommonEnvironment@@@Z$1
__ehfuncinfo$?MakeElement@COnePointDownTool@@MAEPAVCElement@@ABVCElementCommonEnvironment@@@Z DD 019930522H
	DD	02H
	DD	FLAT:__unwindtable$?MakeElement@COnePointDownTool@@MAEPAVCElement@@ABVCElementCommonEnvironment@@@Z
	DD	2 DUP(00H)
	DD	2 DUP(00H)
	DD	00H
	DD	01H
xdata$x	ENDS
;	COMDAT xdata$x
xdata$x	SEGMENT
__unwindtable$?OnMouseMove@COnePointDownTool@@UAE_NPAVCDC@@ABVCPoint@@H@Z DD 0ffffffffH
	DD	FLAT:__unwindfunclet$?OnMouseMove@COnePointDownTool@@UAE_NPAVCDC@@ABVCPoint@@H@Z$1
	DD	00H
	DD	FLAT:__unwindfunclet$?OnMouseMove@COnePointDownTool@@UAE_NPAVCDC@@ABVCPoint@@H@Z$2
	DD	0ffffffffH
	DD	FLAT:__unwindfunclet$?OnMouseMove@COnePointDownTool@@UAE_NPAVCDC@@ABVCPoint@@H@Z$0
__ehfuncinfo$?OnMouseMove@COnePointDownTool@@UAE_NPAVCDC@@ABVCPoint@@H@Z DD 019930522H
	DD	03H
	DD	FLAT:__unwindtable$?OnMouseMove@COnePointDownTool@@UAE_NPAVCDC@@ABVCPoint@@H@Z
	DD	2 DUP(00H)
	DD	2 DUP(00H)
	DD	00H
	DD	01H
xdata$x	ENDS
;	COMDAT xdata$x
xdata$x	SEGMENT
__unwindtable$??0COnePointDownTool@@IAE@PAVCAnalysisData@@W4COORDINATETYPE@CAnalysis@@@Z DD 0ffffffffH
	DD	FLAT:__unwindfunclet$??0COnePointDownTool@@IAE@PAVCAnalysisData@@W4COORDINATETYPE@CAnalysis@@@Z$0
__ehfuncinfo$??0COnePointDownTool@@IAE@PAVCAnalysisData@@W4COORDINATETYPE@CAnalysis@@@Z DD 019930522H
	DD	01H
	DD	FLAT:__unwindtable$??0COnePointDownTool@@IAE@PAVCAnalysisData@@W4COORDINATETYPE@CAnalysis@@@Z
	DD	2 DUP(00H)
	DD	2 DUP(00H)
	DD	00H
	DD	01H
xdata$x	ENDS
;	COMDAT xdata$x
xdata$x	SEGMENT
__unwindtable$?OnLButtonDown@COneOrTwoPointTool@@UAEPAVCElement@@PAVCDC@@ABVCPoint@@@Z DD 0ffffffffH
	DD	FLAT:__unwindfunclet$?OnLButtonDown@COneOrTwoPointTool@@UAEPAVCElement@@PAVCDC@@ABVCPoint@@@Z$0
__ehfuncinfo$?OnLButtonDown@COneOrTwoPointTool@@UAEPAVCElement@@PAVCDC@@ABVCPoint@@@Z DD 019930522H
	DD	01H
	DD	FLAT:__unwindtable$?OnLButtonDown@COneOrTwoPointTool@@UAEPAVCElement@@PAVCDC@@ABVCPoint@@@Z
	DD	2 DUP(00H)
	DD	2 DUP(00H)
	DD	00H
	DD	01H
xdata$x	ENDS
;	COMDAT xdata$x
xdata$x	SEGMENT
__unwindtable$??0COneOrTwoPointTool@@IAE@PAVCAnalysisData@@W4COORDINATETYPE@CAnalysis@@@Z DD 0ffffffffH
	DD	FLAT:__unwindfunclet$??0COneOrTwoPointTool@@IAE@PAVCAnalysisData@@W4COORDINATETYPE@CAnalysis@@@Z$3
	DD	0ffffffffH
	DD	FLAT:__unwindfunclet$??0COneOrTwoPointTool@@IAE@PAVCAnalysisData@@W4COORDINATETYPE@CAnalysis@@@Z$0
	DD	01H
	DD	FLAT:__unwindfunclet$??0COneOrTwoPointTool@@IAE@PAVCAnalysisData@@W4COORDINATETYPE@CAnalysis@@@Z$1
	DD	02H
	DD	FLAT:__unwindfunclet$??0COneOrTwoPointTool@@IAE@PAVCAnalysisData@@W4COORDINATETYPE@CAnalysis@@@Z$2
__ehfuncinfo$??0COneOrTwoPointTool@@IAE@PAVCAnalysisData@@W4COORDINATETYPE@CAnalysis@@@Z DD 019930522H
	DD	04H
	DD	FLAT:__unwindtable$??0COneOrTwoPointTool@@IAE@PAVCAnalysisData@@W4COORDINATETYPE@CAnalysis@@@Z
	DD	2 DUP(00H)
	DD	2 DUP(00H)
	DD	00H
	DD	01H
xdata$x	ENDS
;	COMDAT xdata$x
xdata$x	SEGMENT
__unwindtable$??0CDownTool@@IAE@PAVCAnalysisData@@W4COORDINATETYPE@CAnalysis@@@Z DD 0ffffffffH
	DD	FLAT:__unwindfunclet$??0CDownTool@@IAE@PAVCAnalysisData@@W4COORDINATETYPE@CAnalysis@@@Z$0
__ehfuncinfo$??0CDownTool@@IAE@PAVCAnalysisData@@W4COORDINATETYPE@CAnalysis@@@Z DD 019930522H
	DD	01H
	DD	FLAT:__unwindtable$??0CDownTool@@IAE@PAVCAnalysisData@@W4COORDINATETYPE@CAnalysis@@@Z
	DD	2 DUP(00H)
	DD	2 DUP(00H)
	DD	00H
	DD	01H
xdata$x	ENDS
;	COMDAT xdata$x
xdata$x	SEGMENT
__ehfuncinfo$?GetTwoPointDrawingData@CTwoPointMoveTool@@ABE?AVCTwoPointDrawingData@@XZ DD 019930522H
	DD	010H
	DD	FLAT:__unwindtable$?GetTwoPointDrawingData@CTwoPointMoveTool@@ABE?AVCTwoPointDrawingData@@XZ
	DD	2 DUP(00H)
	DD	2 DUP(00H)
	DD	00H
	DD	01H
__unwindtable$?GetTwoPointDrawingData@CTwoPointMoveTool@@ABE?AVCTwoPointDrawingData@@XZ DD 0ffffffffH
	DD	FLAT:__unwindfunclet$?GetTwoPointDrawingData@CTwoPointMoveTool@@ABE?AVCTwoPointDrawingData@@XZ$0
	DD	00H
	DD	FLAT:__unwindfunclet$?GetTwoPointDrawingData@CTwoPointMoveTool@@ABE?AVCTwoPointDrawingData@@XZ$1
	DD	01H
	DD	FLAT:__unwindfunclet$?GetTwoPointDrawingData@CTwoPointMoveTool@@ABE?AVCTwoPointDrawingData@@XZ$2
	DD	02H
	DD	FLAT:__unwindfunclet$?GetTwoPointDrawingData@CTwoPointMoveTool@@ABE?AVCTwoPointDrawingData@@XZ$3
	DD	03H
	DD	FLAT:__unwindfunclet$?GetTwoPointDrawingData@CTwoPointMoveTool@@ABE?AVCTwoPointDrawingData@@XZ$4
	DD	02H
	DD	FLAT:__unwindfunclet$?GetTwoPointDrawingData@CTwoPointMoveTool@@ABE?AVCTwoPointDrawingData@@XZ$4
	DD	05H
	DD	FLAT:__unwindfunclet$?GetTwoPointDrawingData@CTwoPointMoveTool@@ABE?AVCTwoPointDrawingData@@XZ$5
	DD	06H
	DD	FLAT:__unwindfunclet$?GetTwoPointDrawingData@CTwoPointMoveTool@@ABE?AVCTwoPointDrawingData@@XZ$6
	DD	07H
	DD	FLAT:__unwindfunclet$?GetTwoPointDrawingData@CTwoPointMoveTool@@ABE?AVCTwoPointDrawingData@@XZ$7
	DD	08H
	DD	FLAT:__unwindfunclet$?GetTwoPointDrawingData@CTwoPointMoveTool@@ABE?AVCTwoPointDrawingData@@XZ$8
	DD	09H
	DD	FLAT:__unwindfunclet$?GetTwoPointDrawingData@CTwoPointMoveTool@@ABE?AVCTwoPointDrawingData@@XZ$9
	DD	0aH
	DD	FLAT:__unwindfunclet$?GetTwoPointDrawingData@CTwoPointMoveTool@@ABE?AVCTwoPointDrawingData@@XZ$10
	DD	0bH
	DD	FLAT:__unwindfunclet$?GetTwoPointDrawingData@CTwoPointMoveTool@@ABE?AVCTwoPointDrawingData@@XZ$11
	DD	0cH
	DD	FLAT:__unwindfunclet$?GetTwoPointDrawingData@CTwoPointMoveTool@@ABE?AVCTwoPointDrawingData@@XZ$12
	DD	05H
	DD	FLAT:___std_terminate
	DD	0ffffffffH
	DD	FLAT:___std_terminate
xdata$x	ENDS
;	COMDAT xdata$x
xdata$x	SEGMENT
__unwindtable$?GetSavingPoint@CTwoPointMoveTool@@IBE?AVCCoordinate@@ABVCPoint@@0@Z DD 0ffffffffH
	DD	FLAT:__unwindfunclet$?GetSavingPoint@CTwoPointMoveTool@@IBE?AVCCoordinate@@ABVCPoint@@0@Z$1
__ehfuncinfo$?GetSavingPoint@CTwoPointMoveTool@@IBE?AVCCoordinate@@ABVCPoint@@0@Z DD 019930522H
	DD	01H
	DD	FLAT:__unwindtable$?GetSavingPoint@CTwoPointMoveTool@@IBE?AVCCoordinate@@ABVCPoint@@0@Z
	DD	2 DUP(00H)
	DD	2 DUP(00H)
	DD	00H
	DD	01H
xdata$x	ENDS
;	COMDAT xdata$x
xdata$x	SEGMENT
__unwindtable$?GetPoints@CTwoPointMoveTool@@IBE?AVCPoints@@ABVCPoint@@HH@Z DD 0ffffffffH
	DD	FLAT:__unwindfunclet$?GetPoints@CTwoPointMoveTool@@IBE?AVCPoints@@ABVCPoint@@HH@Z$3
	DD	0ffffffffH
	DD	FLAT:__unwindfunclet$?GetPoints@CTwoPointMoveTool@@IBE?AVCPoints@@ABVCPoint@@HH@Z$0
__ehfuncinfo$?GetPoints@CTwoPointMoveTool@@IBE?AVCPoints@@ABVCPoint@@HH@Z DD 019930522H
	DD	02H
	DD	FLAT:__unwindtable$?GetPoints@CTwoPointMoveTool@@IBE?AVCPoints@@ABVCPoint@@HH@Z
	DD	2 DUP(00H)
	DD	2 DUP(00H)
	DD	00H
	DD	01H
xdata$x	ENDS
;	COMDAT xdata$x
xdata$x	SEGMENT
__unwindtable$?MakeElement@CTwoPointMoveTool@@MAEPAVCElement@@ABVCElementCommonEnvironment@@@Z DD 0ffffffffH
	DD	FLAT:__unwindfunclet$?MakeElement@CTwoPointMoveTool@@MAEPAVCElement@@ABVCElementCommonEnvironment@@@Z$0
	DD	00H
	DD	FLAT:__unwindfunclet$?MakeElement@CTwoPointMoveTool@@MAEPAVCElement@@ABVCElementCommonEnvironment@@@Z$1
	DD	01H
	DD	FLAT:__unwindfunclet$?MakeElement@CTwoPointMoveTool@@MAEPAVCElement@@ABVCElementCommonEnvironment@@@Z$2
	DD	02H
	DD	FLAT:__unwindfunclet$?MakeElement@CTwoPointMoveTool@@MAEPAVCElement@@ABVCElementCommonEnvironment@@@Z$3
__ehfuncinfo$?MakeElement@CTwoPointMoveTool@@MAEPAVCElement@@ABVCElementCommonEnvironment@@@Z DD 019930522H
	DD	04H
	DD	FLAT:__unwindtable$?MakeElement@CTwoPointMoveTool@@MAEPAVCElement@@ABVCElementCommonEnvironment@@@Z
	DD	2 DUP(00H)
	DD	2 DUP(00H)
	DD	00H
	DD	01H
xdata$x	ENDS
;	COMDAT xdata$x
xdata$x	SEGMENT
__unwindtable$?DrawTool@CTwoPointMoveTool@@MAEXPAVCDC@@@Z DD 0ffffffffH
	DD	FLAT:__unwindfunclet$?DrawTool@CTwoPointMoveTool@@MAEXPAVCDC@@@Z$0
__ehfuncinfo$?DrawTool@CTwoPointMoveTool@@MAEXPAVCDC@@@Z DD 019930522H
	DD	01H
	DD	FLAT:__unwindtable$?DrawTool@CTwoPointMoveTool@@MAEXPAVCDC@@@Z
	DD	2 DUP(00H)
	DD	2 DUP(00H)
	DD	00H
	DD	01H
xdata$x	ENDS
;	COMDAT xdata$x
xdata$x	SEGMENT
__ehfuncinfo$?GetOnePointDrawingData@COnePointMoveTool@@ABE?AVCOnePointDrawingData@@XZ DD 019930522H
	DD	0dH
	DD	FLAT:__unwindtable$?GetOnePointDrawingData@COnePointMoveTool@@ABE?AVCOnePointDrawingData@@XZ
	DD	2 DUP(00H)
	DD	2 DUP(00H)
	DD	00H
	DD	01H
__unwindtable$?GetOnePointDrawingData@COnePointMoveTool@@ABE?AVCOnePointDrawingData@@XZ DD 0ffffffffH
	DD	FLAT:__unwindfunclet$?GetOnePointDrawingData@COnePointMoveTool@@ABE?AVCOnePointDrawingData@@XZ$0
	DD	00H
	DD	FLAT:__unwindfunclet$?GetOnePointDrawingData@COnePointMoveTool@@ABE?AVCOnePointDrawingData@@XZ$1
	DD	01H
	DD	FLAT:__unwindfunclet$?GetOnePointDrawingData@COnePointMoveTool@@ABE?AVCOnePointDrawingData@@XZ$2
	DD	02H
	DD	FLAT:__unwindfunclet$?GetOnePointDrawingData@COnePointMoveTool@@ABE?AVCOnePointDrawingData@@XZ$3
	DD	03H
	DD	FLAT:__unwindfunclet$?GetOnePointDrawingData@COnePointMoveTool@@ABE?AVCOnePointDrawingData@@XZ$4
	DD	02H
	DD	FLAT:__unwindfunclet$?GetOnePointDrawingData@COnePointMoveTool@@ABE?AVCOnePointDrawingData@@XZ$4
	DD	05H
	DD	FLAT:__unwindfunclet$?GetOnePointDrawingData@COnePointMoveTool@@ABE?AVCOnePointDrawingData@@XZ$5
	DD	06H
	DD	FLAT:__unwindfunclet$?GetOnePointDrawingData@COnePointMoveTool@@ABE?AVCOnePointDrawingData@@XZ$6
	DD	07H
	DD	FLAT:__unwindfunclet$?GetOnePointDrawingData@COnePointMoveTool@@ABE?AVCOnePointDrawingData@@XZ$7
	DD	08H
	DD	FLAT:__unwindfunclet$?GetOnePointDrawingData@COnePointMoveTool@@ABE?AVCOnePointDrawingData@@XZ$8
	DD	09H
	DD	FLAT:__unwindfunclet$?GetOnePointDrawingData@COnePointMoveTool@@ABE?AVCOnePointDrawingData@@XZ$9
	DD	05H
	DD	FLAT:___std_terminate
	DD	0ffffffffH
	DD	FLAT:___std_terminate
xdata$x	ENDS
;	COMDAT xdata$x
xdata$x	SEGMENT
__ehfuncinfo$?MakeElement@COnePointMoveTool@@MAEPAVCElement@@ABVCElementCommonEnvironment@@@Z DD 019930522H
	DD	0bH
	DD	FLAT:__unwindtable$?MakeElement@COnePointMoveTool@@MAEPAVCElement@@ABVCElementCommonEnvironment@@@Z
	DD	2 DUP(00H)
	DD	2 DUP(00H)
	DD	00H
	DD	01H
__unwindtable$?MakeElement@COnePointMoveTool@@MAEPAVCElement@@ABVCElementCommonEnvironment@@@Z DD 0ffffffffH
	DD	FLAT:__unwindfunclet$?MakeElement@COnePointMoveTool@@MAEPAVCElement@@ABVCElementCommonEnvironment@@@Z$0
	DD	00H
	DD	FLAT:__unwindfunclet$?MakeElement@COnePointMoveTool@@MAEPAVCElement@@ABVCElementCommonEnvironment@@@Z$1
	DD	0ffffffffH
	DD	FLAT:__unwindfunclet$?MakeElement@COnePointMoveTool@@MAEPAVCElement@@ABVCElementCommonEnvironment@@@Z$1
	DD	02H
	DD	FLAT:__unwindfunclet$?MakeElement@COnePointMoveTool@@MAEPAVCElement@@ABVCElementCommonEnvironment@@@Z$2
	DD	03H
	DD	FLAT:__unwindfunclet$?MakeElement@COnePointMoveTool@@MAEPAVCElement@@ABVCElementCommonEnvironment@@@Z$3
	DD	02H
	DD	FLAT:__unwindfunclet$?MakeElement@COnePointMoveTool@@MAEPAVCElement@@ABVCElementCommonEnvironment@@@Z$3
	DD	05H
	DD	FLAT:__unwindfunclet$?MakeElement@COnePointMoveTool@@MAEPAVCElement@@ABVCElementCommonEnvironment@@@Z$4
	DD	06H
	DD	FLAT:__unwindfunclet$?MakeElement@COnePointMoveTool@@MAEPAVCElement@@ABVCElementCommonEnvironment@@@Z$5
	DD	07H
	DD	FLAT:__unwindfunclet$?MakeElement@COnePointMoveTool@@MAEPAVCElement@@ABVCElementCommonEnvironment@@@Z$6
	DD	06H
	DD	FLAT:___std_terminate
	DD	05H
	DD	FLAT:___std_terminate
xdata$x	ENDS
;	COMDAT xdata$x
xdata$x	SEGMENT
__unwindtable$?DrawTool@COnePointMoveTool@@MAEXPAVCDC@@@Z DD 0ffffffffH
	DD	FLAT:__unwindfunclet$?DrawTool@COnePointMoveTool@@MAEXPAVCDC@@@Z$0
__ehfuncinfo$?DrawTool@COnePointMoveTool@@MAEXPAVCDC@@@Z DD 019930522H
	DD	01H
	DD	FLAT:__unwindtable$?DrawTool@COnePointMoveTool@@MAEXPAVCDC@@@Z
	DD	2 DUP(00H)
	DD	2 DUP(00H)
	DD	00H
	DD	01H
xdata$x	ENDS
;	COMDAT xdata$x
xdata$x	SEGMENT
__ehfuncinfo$?OnMouseMove@CMoveTool@@UAE_NPAVCDC@@ABVCPoint@@H@Z DD 019930522H
	DD	09H
	DD	FLAT:__unwindtable$?OnMouseMove@CMoveTool@@UAE_NPAVCDC@@ABVCPoint@@H@Z
	DD	2 DUP(00H)
	DD	2 DUP(00H)
	DD	00H
	DD	01H
__unwindtable$?OnMouseMove@CMoveTool@@UAE_NPAVCDC@@ABVCPoint@@H@Z DD 0ffffffffH
	DD	FLAT:__unwindfunclet$?OnMouseMove@CMoveTool@@UAE_NPAVCDC@@ABVCPoint@@H@Z$0
	DD	00H
	DD	FLAT:__unwindfunclet$?OnMouseMove@CMoveTool@@UAE_NPAVCDC@@ABVCPoint@@H@Z$1
	DD	01H
	DD	FLAT:__unwindfunclet$?OnMouseMove@CMoveTool@@UAE_NPAVCDC@@ABVCPoint@@H@Z$2
	DD	02H
	DD	FLAT:__unwindfunclet$?OnMouseMove@CMoveTool@@UAE_NPAVCDC@@ABVCPoint@@H@Z$3
	DD	02H
	DD	FLAT:___std_terminate
	DD	01H
	DD	FLAT:___std_terminate
	DD	03H
	DD	FLAT:__unwindfunclet$?OnMouseMove@CMoveTool@@UAE_NPAVCDC@@ABVCPoint@@H@Z$4
	DD	02H
	DD	FLAT:___std_terminate
	DD	01H
	DD	FLAT:___std_terminate
xdata$x	ENDS
;	COMDAT xdata$x
xdata$x	SEGMENT
__unwindtable$??0CMoveTool@@IAE@PAVCAnalysisData@@W4COORDINATETYPE@CAnalysis@@@Z DD 0ffffffffH
	DD	FLAT:__unwindfunclet$??0CMoveTool@@IAE@PAVCAnalysisData@@W4COORDINATETYPE@CAnalysis@@@Z$0
	DD	00H
	DD	FLAT:__unwindfunclet$??0CMoveTool@@IAE@PAVCAnalysisData@@W4COORDINATETYPE@CAnalysis@@@Z$1
__ehfuncinfo$??0CMoveTool@@IAE@PAVCAnalysisData@@W4COORDINATETYPE@CAnalysis@@@Z DD 019930522H
	DD	02H
	DD	FLAT:__unwindtable$??0CMoveTool@@IAE@PAVCAnalysisData@@W4COORDINATETYPE@CAnalysis@@@Z
	DD	2 DUP(00H)
	DD	2 DUP(00H)
	DD	00H
	DD	01H
xdata$x	ENDS
;	COMDAT xdata$x
xdata$x	SEGMENT
__ehfuncinfo$??1ILPCSTR133101@@QAE@XZ DD 019930522H
	DD	00H
	DD	00H
	DD	2 DUP(00H)
	DD	2 DUP(00H)
	DD	00H
	DD	05H
xdata$x	ENDS
; Function compile flags: /Ogtp
;	COMDAT ??1CDlgAnalysisAdjustRatio@@UAE@XZ
_TEXT	SEGMENT
??1CDlgAnalysisAdjustRatio@@UAE@XZ PROC			; CDlgAnalysisAdjustRatio::~CDlgAnalysisAdjustRatio, COMDAT
; _this$ = ecx
  00000	56		 push	 esi
  00001	8b f1		 mov	 esi, ecx
  00003	8d 8e a8 00 00
	00		 lea	 ecx, DWORD PTR [esi+168]
  00009	e8 00 00 00 00	 call	 ??1CListCtrl@@UAE@XZ	; CListCtrl::~CListCtrl
  0000e	8b ce		 mov	 ecx, esi
  00010	5e		 pop	 esi
  00011	e9 00 00 00 00	 jmp	 ??1CDialog@@UAE@XZ	; CDialog::~CDialog
??1CDlgAnalysisAdjustRatio@@UAE@XZ ENDP			; CDlgAnalysisAdjustRatio::~CDlgAnalysisAdjustRatio
_TEXT	ENDS
; Function compile flags: /Ogtp
;	COMDAT ??1CMultiPointDrawingData@@QAE@XZ
_TEXT	SEGMENT
__$EHRec$ = -12						; size = 12
??1CMultiPointDrawingData@@QAE@XZ PROC			; CMultiPointDrawingData::~CMultiPointDrawingData, COMDAT
; _this$ = ecx
  00000	55		 push	 ebp
  00001	8b ec		 mov	 ebp, esp
  00003	6a ff		 push	 -1
  00005	68 00 00 00 00	 push	 __ehhandler$??1CMultiPointDrawingData@@QAE@XZ
  0000a	64 a1 00 00 00
	00		 mov	 eax, DWORD PTR fs:0
  00010	50		 push	 eax
  00011	56		 push	 esi
  00012	a1 00 00 00 00	 mov	 eax, DWORD PTR ___security_cookie
  00017	33 c5		 xor	 eax, ebp
  00019	50		 push	 eax
  0001a	8d 45 f4	 lea	 eax, DWORD PTR __$EHRec$[ebp]
  0001d	64 a3 00 00 00
	00		 mov	 DWORD PTR fs:0, eax
  00023	8b f1		 mov	 esi, ecx
  00025	68 00 00 00 00	 push	 OFFSET ??1CPoints@@QAE@XZ
  0002a	68 f4 01 00 00	 push	 500			; 000001f4H
  0002f	6a 28		 push	 40			; 00000028H
  00031	8d 46 70	 lea	 eax, DWORD PTR [esi+112]
  00034	50		 push	 eax
  00035	e8 00 00 00 00	 call	 ??_M@YGXPAXIIP6EX0@Z@Z
  0003a	8d 4e 20	 lea	 ecx, DWORD PTR [esi+32]
  0003d	ff 15 00 00 00
	00		 call	 DWORD PTR __imp_??1?$CStringT@DV?$StrTraitMFC_DLL@DV?$ChTraitsCRT@D@ATL@@@@@ATL@@QAE@XZ
  00043	8d 4e 1c	 lea	 ecx, DWORD PTR [esi+28]
  00046	ff 15 00 00 00
	00		 call	 DWORD PTR __imp_??1?$CStringT@DV?$StrTraitMFC_DLL@DV?$ChTraitsCRT@D@ATL@@@@@ATL@@QAE@XZ
  0004c	8d 4e 18	 lea	 ecx, DWORD PTR [esi+24]
  0004f	ff 15 00 00 00
	00		 call	 DWORD PTR __imp_??1?$CStringT@DV?$StrTraitMFC_DLL@DV?$ChTraitsCRT@D@ATL@@@@@ATL@@QAE@XZ
  00055	8b 4d f4	 mov	 ecx, DWORD PTR __$EHRec$[ebp]
  00058	64 89 0d 00 00
	00 00		 mov	 DWORD PTR fs:0, ecx
  0005f	59		 pop	 ecx
  00060	5e		 pop	 esi
  00061	8b e5		 mov	 esp, ebp
  00063	5d		 pop	 ebp
  00064	c3		 ret	 0
  00065	cc		 int	 3
  00066	cc		 int	 3
  00067	cc		 int	 3
  00068	cc		 int	 3
  00069	cc		 int	 3
_TEXT	ENDS
;	COMDAT text$x
text$x	SEGMENT
__ehhandler$??1CMultiPointDrawingData@@QAE@XZ:
  00000	90		 npad	 1
  00001	90		 npad	 1
  00002	8b 54 24 08	 mov	 edx, DWORD PTR [esp+8]
  00006	8d 42 0c	 lea	 eax, DWORD PTR [edx+12]
  00009	8b 4a f8	 mov	 ecx, DWORD PTR [edx-8]
  0000c	33 c8		 xor	 ecx, eax
  0000e	e8 00 00 00 00	 call	 @__security_check_cookie@4
  00013	b8 00 00 00 00	 mov	 eax, OFFSET __ehfuncinfo$??1CMultiPointDrawingData@@QAE@XZ
  00018	e9 00 00 00 00	 jmp	 ___CxxFrameHandler3
text$x	ENDS
??1CMultiPointDrawingData@@QAE@XZ ENDP			; CMultiPointDrawingData::~CMultiPointDrawingData
; Function compile flags: /Ogtp
;	COMDAT ??1CThreePointDrawingData@@QAE@XZ
_TEXT	SEGMENT
??1CThreePointDrawingData@@QAE@XZ PROC			; CThreePointDrawingData::~CThreePointDrawingData, COMDAT
; _this$ = ecx
  00000	56		 push	 esi
  00001	8b f1		 mov	 esi, ecx
  00003	8d 8e d4 00 00
	00		 lea	 ecx, DWORD PTR [esi+212]
  00009	ff 15 00 00 00
	00		 call	 DWORD PTR __imp_??1?$CStringT@DV?$StrTraitMFC_DLL@DV?$ChTraitsCRT@D@ATL@@@@@ATL@@QAE@XZ
  0000f	8d 8e ac 00 00
	00		 lea	 ecx, DWORD PTR [esi+172]
  00015	ff 15 00 00 00
	00		 call	 DWORD PTR __imp_??1?$CStringT@DV?$StrTraitMFC_DLL@DV?$ChTraitsCRT@D@ATL@@@@@ATL@@QAE@XZ
  0001b	8d 8e 84 00 00
	00		 lea	 ecx, DWORD PTR [esi+132]
  00021	ff 15 00 00 00
	00		 call	 DWORD PTR __imp_??1?$CStringT@DV?$StrTraitMFC_DLL@DV?$ChTraitsCRT@D@ATL@@@@@ATL@@QAE@XZ
  00027	8d 4e 20	 lea	 ecx, DWORD PTR [esi+32]
  0002a	ff 15 00 00 00
	00		 call	 DWORD PTR __imp_??1?$CStringT@DV?$StrTraitMFC_DLL@DV?$ChTraitsCRT@D@ATL@@@@@ATL@@QAE@XZ
  00030	8d 4e 1c	 lea	 ecx, DWORD PTR [esi+28]
  00033	ff 15 00 00 00
	00		 call	 DWORD PTR __imp_??1?$CStringT@DV?$StrTraitMFC_DLL@DV?$ChTraitsCRT@D@ATL@@@@@ATL@@QAE@XZ
  00039	8d 4e 18	 lea	 ecx, DWORD PTR [esi+24]
  0003c	5e		 pop	 esi
  0003d	ff 25 00 00 00
	00		 jmp	 DWORD PTR __imp_??1?$CStringT@DV?$StrTraitMFC_DLL@DV?$ChTraitsCRT@D@ATL@@@@@ATL@@QAE@XZ
??1CThreePointDrawingData@@QAE@XZ ENDP			; CThreePointDrawingData::~CThreePointDrawingData
_TEXT	ENDS
; Function compile flags: /Ogtp
;	COMDAT ??1CTwoPointDrawingData@@QAE@XZ
_TEXT	SEGMENT
??1CTwoPointDrawingData@@QAE@XZ PROC			; CTwoPointDrawingData::~CTwoPointDrawingData, COMDAT
; _this$ = ecx
  00000	56		 push	 esi
  00001	8b f1		 mov	 esi, ecx
  00003	8d 8e b4 00 00
	00		 lea	 ecx, DWORD PTR [esi+180]
  00009	ff 15 00 00 00
	00		 call	 DWORD PTR __imp_??1?$CStringT@DV?$StrTraitMFC_DLL@DV?$ChTraitsCRT@D@ATL@@@@@ATL@@QAE@XZ
  0000f	8d 8e 8c 00 00
	00		 lea	 ecx, DWORD PTR [esi+140]
  00015	ff 15 00 00 00
	00		 call	 DWORD PTR __imp_??1?$CStringT@DV?$StrTraitMFC_DLL@DV?$ChTraitsCRT@D@ATL@@@@@ATL@@QAE@XZ
  0001b	8d 4e 20	 lea	 ecx, DWORD PTR [esi+32]
  0001e	ff 15 00 00 00
	00		 call	 DWORD PTR __imp_??1?$CStringT@DV?$StrTraitMFC_DLL@DV?$ChTraitsCRT@D@ATL@@@@@ATL@@QAE@XZ
  00024	8d 4e 1c	 lea	 ecx, DWORD PTR [esi+28]
  00027	ff 15 00 00 00
	00		 call	 DWORD PTR __imp_??1?$CStringT@DV?$StrTraitMFC_DLL@DV?$ChTraitsCRT@D@ATL@@@@@ATL@@QAE@XZ
  0002d	8d 4e 18	 lea	 ecx, DWORD PTR [esi+24]
  00030	5e		 pop	 esi
  00031	ff 25 00 00 00
	00		 jmp	 DWORD PTR __imp_??1?$CStringT@DV?$StrTraitMFC_DLL@DV?$ChTraitsCRT@D@ATL@@@@@ATL@@QAE@XZ
??1CTwoPointDrawingData@@QAE@XZ ENDP			; CTwoPointDrawingData::~CTwoPointDrawingData
_TEXT	ENDS
; Function compile flags: /Ogtp
;	COMDAT ??1COnePointDrawingData@@QAE@XZ
_TEXT	SEGMENT
??1COnePointDrawingData@@QAE@XZ PROC			; COnePointDrawingData::~COnePointDrawingData, COMDAT
; _this$ = ecx
  00000	56		 push	 esi
  00001	8b f1		 mov	 esi, ecx
  00003	8d 4e 74	 lea	 ecx, DWORD PTR [esi+116]
  00006	ff 15 00 00 00
	00		 call	 DWORD PTR __imp_??1?$CStringT@DV?$StrTraitMFC_DLL@DV?$ChTraitsCRT@D@ATL@@@@@ATL@@QAE@XZ
  0000c	8d 4e 20	 lea	 ecx, DWORD PTR [esi+32]
  0000f	ff 15 00 00 00
	00		 call	 DWORD PTR __imp_??1?$CStringT@DV?$StrTraitMFC_DLL@DV?$ChTraitsCRT@D@ATL@@@@@ATL@@QAE@XZ
  00015	8d 4e 1c	 lea	 ecx, DWORD PTR [esi+28]
  00018	ff 15 00 00 00
	00		 call	 DWORD PTR __imp_??1?$CStringT@DV?$StrTraitMFC_DLL@DV?$ChTraitsCRT@D@ATL@@@@@ATL@@QAE@XZ
  0001e	8d 4e 18	 lea	 ecx, DWORD PTR [esi+24]
  00021	5e		 pop	 esi
  00022	ff 25 00 00 00
	00		 jmp	 DWORD PTR __imp_??1?$CStringT@DV?$StrTraitMFC_DLL@DV?$ChTraitsCRT@D@ATL@@@@@ATL@@QAE@XZ
??1COnePointDrawingData@@QAE@XZ ENDP			; COnePointDrawingData::~COnePointDrawingData
_TEXT	ENDS
; Function compile flags: /Ogtp
; File D:\git\src\IBK\IBK_DRFN\ProjSrc\SrcChartEx\ChartAddIn\ChartAnalysisToolAddIn\Include_Chart\Dll_Load\IMetaTable.h
; File C:\Program Files (x86)\Microsoft Visual Studio\2019\Community\VC\Tools\MSVC\14.29.30133\atlmfc\include\afxwin1.inl
; File D:\git\src\IBK\IBK_DRFN\ProjSrc\SrcChartEx\ChartAddIn\ChartAnalysisToolAddIn\Include_Chart\Dll_Load\IMetaTable.h
;	COMDAT ??1CMultiLanguageResourceSetter@@QAE@XZ
_TEXT	SEGMENT
__$EHRec$ = -12						; size = 12
??1CMultiLanguageResourceSetter@@QAE@XZ PROC		; CMultiLanguageResourceSetter::~CMultiLanguageResourceSetter, COMDAT
; _this$ = ecx

; 1038 : 	{

  00000	55		 push	 ebp
  00001	8b ec		 mov	 ebp, esp
  00003	6a ff		 push	 -1
  00005	68 00 00 00 00	 push	 __ehhandler$??1CMultiLanguageResourceSetter@@QAE@XZ
  0000a	64 a1 00 00 00
	00		 mov	 eax, DWORD PTR fs:0
  00010	50		 push	 eax
  00011	56		 push	 esi
  00012	a1 00 00 00 00	 mov	 eax, DWORD PTR ___security_cookie
  00017	33 c5		 xor	 eax, ebp
  00019	50		 push	 eax
  0001a	8d 45 f4	 lea	 eax, DWORD PTR __$EHRec$[ebp]
  0001d	64 a3 00 00 00
	00		 mov	 DWORD PTR fs:0, eax

; 1039 : 		AfxSetResourceHandle( m_hInstance);

  00023	8b 31		 mov	 esi, DWORD PTR [ecx]
; File C:\Program Files (x86)\Microsoft Visual Studio\2019\Community\VC\Tools\MSVC\14.29.30133\atlmfc\include\afxwin1.inl

; 27   : 	{ ASSERT(hInstResource != NULL); afxCurrentResourceHandle = hInstResource; }

  00025	e8 00 00 00 00	 call	 ?AfxGetModuleState@@YGPAVAFX_MODULE_STATE@@XZ ; AfxGetModuleState
  0002a	89 70 0c	 mov	 DWORD PTR [eax+12], esi
; File D:\git\src\IBK\IBK_DRFN\ProjSrc\SrcChartEx\ChartAddIn\ChartAnalysisToolAddIn\Include_Chart\Dll_Load\IMetaTable.h

; 1040 : 	}

  0002d	8b 4d f4	 mov	 ecx, DWORD PTR __$EHRec$[ebp]
  00030	64 89 0d 00 00
	00 00		 mov	 DWORD PTR fs:0, ecx
  00037	59		 pop	 ecx
  00038	5e		 pop	 esi
  00039	8b e5		 mov	 esp, ebp
  0003b	5d		 pop	 ebp
  0003c	c3		 ret	 0
  0003d	cc		 int	 3
  0003e	cc		 int	 3
  0003f	cc		 int	 3
  00040	cc		 int	 3
  00041	cc		 int	 3
_TEXT	ENDS
;	COMDAT text$x
text$x	SEGMENT
__ehhandler$??1CMultiLanguageResourceSetter@@QAE@XZ:
  00000	90		 npad	 1
  00001	90		 npad	 1
  00002	8b 54 24 08	 mov	 edx, DWORD PTR [esp+8]
  00006	8d 42 0c	 lea	 eax, DWORD PTR [edx+12]
  00009	8b 4a f8	 mov	 ecx, DWORD PTR [edx-8]
  0000c	33 c8		 xor	 ecx, eax
  0000e	e8 00 00 00 00	 call	 @__security_check_cookie@4
  00013	b8 00 00 00 00	 mov	 eax, OFFSET __ehfuncinfo$??1CMultiLanguageResourceSetter@@QAE@XZ
  00018	e9 00 00 00 00	 jmp	 ___CxxFrameHandler3
text$x	ENDS
??1CMultiLanguageResourceSetter@@QAE@XZ ENDP		; CMultiLanguageResourceSetter::~CMultiLanguageResourceSetter
; Function compile flags: /Ogtp
; File D:\git\src\IBK\IBK_DRFN\ProjSrc\SrcChartEx\ChartAddIn\ChartAnalysisToolAddIn\AnalysisTool\PointTool.cpp
; File D:\git\src\IBK\IBK_DRFN\ProjSrc\SrcChartEx\ChartAddIn\ChartAnalysisToolAddIn\Include_AddIn_133101\I133101\_IString.h
; File D:\git\src\IBK\IBK_DRFN\ProjSrc\SrcChartEx\ChartAddIn\ChartAnalysisToolAddIn\AnalysisTool\PointTool.cpp
; File D:\git\src\IBK\IBK_DRFN\ProjSrc\SrcChartEx\ChartAddIn\ChartAnalysisToolAddIn\AnalysisTool\PointTool.h
; File D:\git\src\IBK\IBK_DRFN\ProjSrc\SrcChartEx\ChartAddIn\ChartAnalysisToolAddIn\AnalysisTool\PointTool.cpp
; File D:\git\src\IBK\IBK_DRFN\ProjSrc\SrcChartEx\ChartAddIn\ChartAnalysisToolAddIn\AnalysisTool\PointTool.h
; File D:\git\src\IBK\IBK_DRFN\ProjSrc\SrcChartEx\ChartAddIn\ChartAnalysisToolAddIn\AnalysisTool\PointTool.cpp
; File D:\git\src\IBK\IBK_DRFN\ProjSrc\SrcChartEx\ChartAddIn\ChartAnalysisToolAddIn\Include_AddIn_133101\I133101\_IString.h
; File D:\git\src\IBK\IBK_DRFN\ProjSrc\SrcChartEx\ChartAddIn\ChartAnalysisToolAddIn\AnalysisTool\PointTool.cpp
; File D:\git\src\IBK\IBK_DRFN\ProjSrc\SrcChartEx\ChartAddIn\ChartAnalysisToolAddIn\AnalysisTool\PointTool.h
; File D:\git\src\IBK\IBK_DRFN\ProjSrc\SrcChartEx\ChartAddIn\ChartAnalysisToolAddIn\AnalysisTool\PointTool.cpp
; File D:\git\src\IBK\IBK_DRFN\ProjSrc\SrcChartEx\ChartAddIn\ChartAnalysisToolAddIn\AnalysisTool\PointTool.h
; File D:\git\src\IBK\IBK_DRFN\ProjSrc\SrcChartEx\ChartAddIn\ChartAnalysisToolAddIn\AnalysisTool\PointTool.cpp
; File D:\git\src\IBK\IBK_DRFN\ProjSrc\SrcChartEx\ChartAddIn\ChartAnalysisToolAddIn\AnalysisTool\PointTool.h
; File D:\git\src\IBK\IBK_DRFN\ProjSrc\SrcChartEx\ChartAddIn\ChartAnalysisToolAddIn\AnalysisTool\PointTool.cpp
; File D:\git\src\IBK\IBK_DRFN\ProjSrc\SrcChartEx\ChartAddIn\ChartAnalysisToolAddIn\Include_AddIn_133101\I133101\_IString.h
; File D:\git\src\IBK\IBK_DRFN\ProjSrc\SrcChartEx\ChartAddIn\ChartAnalysisToolAddIn\AnalysisTool\PointTool.cpp
; File D:\git\src\IBK\IBK_DRFN\ProjSrc\SrcChartEx\ChartAddIn\ChartAnalysisToolAddIn\Include_AddIn_133101\I133101\_IString.h
; File D:\git\src\IBK\IBK_DRFN\ProjSrc\SrcChartEx\ChartAddIn\ChartAnalysisToolAddIn\AnalysisTool\PointTool.cpp
;	COMDAT ?GetMultiPointDrawingData@CMultiPointDownTool@@ABE?AVCMultiPointDrawingData@@XZ
_TEXT	SEGMENT
$T2 = -324						; size = 72
$T3 = -252						; size = 72
$T4 = -180						; size = 8
_szRQ$ = -172						; size = 8
___$ReturnUdt$GSCopy$1$ = -164				; size = 4
$T5 = -158						; size = 2
$T6 = -156						; size = 8
$T7 = -156						; size = 8
_this$GSCopy$1$ = -148					; size = 4
_szHelpMsg$ = -144					; size = 8
___$ReturnUdt$GSCopy$ = -136				; size = 4
_strPacketType$ = -136					; size = 4
_strDataType$ = -132					; size = 4
_calData$ = -128					; size = 96
$T8 = -32						; size = 16
__$ArrayPad$ = -16					; size = 4
__$EHRec$ = -12						; size = 12
___$ReturnUdt$ = 8					; size = 4
?GetMultiPointDrawingData@CMultiPointDownTool@@ABE?AVCMultiPointDrawingData@@XZ PROC ; CMultiPointDownTool::GetMultiPointDrawingData, COMDAT
; _this$ = ecx

; 1064 : {

  00000	55		 push	 ebp
  00001	8b ec		 mov	 ebp, esp
  00003	6a ff		 push	 -1
  00005	68 00 00 00 00	 push	 __ehhandler$?GetMultiPointDrawingData@CMultiPointDownTool@@ABE?AVCMultiPointDrawingData@@XZ
  0000a	64 a1 00 00 00
	00		 mov	 eax, DWORD PTR fs:0
  00010	50		 push	 eax
  00011	81 ec 38 01 00
	00		 sub	 esp, 312		; 00000138H
  00017	a1 00 00 00 00	 mov	 eax, DWORD PTR ___security_cookie
  0001c	33 c5		 xor	 eax, ebp
  0001e	89 45 f0	 mov	 DWORD PTR __$ArrayPad$[ebp], eax
  00021	53		 push	 ebx
  00022	56		 push	 esi
  00023	57		 push	 edi
  00024	50		 push	 eax
  00025	8d 45 f4	 lea	 eax, DWORD PTR __$EHRec$[ebp]
  00028	64 a3 00 00 00
	00		 mov	 DWORD PTR fs:0, eax
  0002e	8b d9		 mov	 ebx, ecx
  00030	89 9d 6c ff ff
	ff		 mov	 DWORD PTR _this$GSCopy$1$[ebp], ebx
  00036	8b 45 08	 mov	 eax, DWORD PTR ___$ReturnUdt$[ebp]
  00039	89 85 78 ff ff
	ff		 mov	 DWORD PTR ___$ReturnUdt$GSCopy$[ebp], eax
  0003f	89 85 5c ff ff
	ff		 mov	 DWORD PTR ___$ReturnUdt$GSCopy$1$[ebp], eax
; File D:\git\src\IBK\IBK_DRFN\ProjSrc\SrcChartEx\ChartAddIn\ChartAnalysisToolAddIn\Include_AddIn_133101\I133101\_IString.h

; 39   : 		m_pIStrData = p_pIString;	// Do not AddRef(). Because It must be Return Value.

  00045	c7 85 74 ff ff
	ff 00 00 00 00	 mov	 DWORD PTR _szHelpMsg$[ebp+4], 0

; 41   : 		else m_szData = NULL;

  0004f	c7 85 70 ff ff
	ff 00 00 00 00	 mov	 DWORD PTR _szHelpMsg$[ebp], 0
; File D:\git\src\IBK\IBK_DRFN\ProjSrc\SrcChartEx\ChartAddIn\ChartAnalysisToolAddIn\AnalysisTool\PointTool.cpp

; 1075 : 	CString strDataType, strPacketType;	

  00059	8d 8d 7c ff ff
	ff		 lea	 ecx, DWORD PTR _strDataType$[ebp]
  0005f	c7 45 fc 00 00
	00 00		 mov	 DWORD PTR __$EHRec$[ebp+8], 0
  00066	ff 15 00 00 00
	00		 call	 DWORD PTR __imp_??0?$CStringT@DV?$StrTraitMFC_DLL@DV?$ChTraitsCRT@D@ATL@@@@@ATL@@QAE@XZ
  0006c	8d 8d 78 ff ff
	ff		 lea	 ecx, DWORD PTR _strPacketType$[ebp]
  00072	ff 15 00 00 00
	00		 call	 DWORD PTR __imp_??0?$CStringT@DV?$StrTraitMFC_DLL@DV?$ChTraitsCRT@D@ATL@@@@@ATL@@QAE@XZ
; File D:\git\src\IBK\IBK_DRFN\ProjSrc\SrcChartEx\ChartAddIn\ChartAnalysisToolAddIn\AnalysisTool\PointTool.h

; 106  : 	{	return m_ptMousePos;	}

  00078	8b 43 78	 mov	 eax, DWORD PTR [ebx+120]
  0007b	8b 4b 7c	 mov	 ecx, DWORD PTR [ebx+124]
  0007e	89 85 64 ff ff
	ff		 mov	 DWORD PTR $T7[ebp], eax
; File D:\git\src\IBK\IBK_DRFN\ProjSrc\SrcChartEx\ChartAddIn\ChartAnalysisToolAddIn\AnalysisTool\PointTool.cpp

; 1076 : 	CCoordinateCalculatorData calData = GetCoordinateCalculatorData( CDownTool::GetMousePos());

  00084	8d 85 64 ff ff
	ff		 lea	 eax, DWORD PTR $T7[ebp]
  0008a	50		 push	 eax
  0008b	8d 45 80	 lea	 eax, DWORD PTR _calData$[ebp]
; File D:\git\src\IBK\IBK_DRFN\ProjSrc\SrcChartEx\ChartAddIn\ChartAnalysisToolAddIn\AnalysisTool\PointTool.h

; 106  : 	{	return m_ptMousePos;	}

  0008e	89 8d 68 ff ff
	ff		 mov	 DWORD PTR $T7[ebp+4], ecx
; File D:\git\src\IBK\IBK_DRFN\ProjSrc\SrcChartEx\ChartAddIn\ChartAnalysisToolAddIn\AnalysisTool\PointTool.cpp

; 1076 : 	CCoordinateCalculatorData calData = GetCoordinateCalculatorData( CDownTool::GetMousePos());

  00094	50		 push	 eax
  00095	8b cb		 mov	 ecx, ebx
  00097	c6 45 fc 02	 mov	 BYTE PTR __$EHRec$[ebp+8], 2
  0009b	e8 00 00 00 00	 call	 ?GetCoordinateCalculatorData@CTool@@QBE?AVCCoordinateCalculatorData@@ABVCPoint@@@Z ; CTool::GetCoordinateCalculatorData

; 1077 : 	ILPCSTR szRQ = calData.m_pIChartOCX->GetCurrentRQ();

  000a0	8b 4d cc	 mov	 ecx, DWORD PTR _calData$[ebp+76]
  000a3	c6 45 fc 03	 mov	 BYTE PTR __$EHRec$[ebp+8], 3
  000a7	8b 01		 mov	 eax, DWORD PTR [ecx]
  000a9	ff 90 40 02 00
	00		 call	 DWORD PTR [eax+576]
; File D:\git\src\IBK\IBK_DRFN\ProjSrc\SrcChartEx\ChartAddIn\ChartAnalysisToolAddIn\Include_AddIn_133101\I133101\_IString.h

; 39   : 		m_pIStrData = p_pIString;	// Do not AddRef(). Because It must be Return Value.

  000af	8b c8		 mov	 ecx, eax
  000b1	89 8d 58 ff ff
	ff		 mov	 DWORD PTR _szRQ$[ebp+4], ecx

; 40   : 		if( m_pIStrData) m_szData = m_pIStrData->GetData();

  000b7	85 c9		 test	 ecx, ecx
  000b9	74 09		 je	 SHORT $LN19@GetMultiPo
  000bb	8b 01		 mov	 eax, DWORD PTR [ecx]
  000bd	ff 50 10	 call	 DWORD PTR [eax+16]
  000c0	8b d0		 mov	 edx, eax
  000c2	eb 02		 jmp	 SHORT $LN48@GetMultiPo
$LN19@GetMultiPo:

; 41   : 		else m_szData = NULL;

  000c4	33 d2		 xor	 edx, edx
$LN48@GetMultiPo:
; File D:\git\src\IBK\IBK_DRFN\ProjSrc\SrcChartEx\ChartAddIn\ChartAnalysisToolAddIn\AnalysisTool\PointTool.cpp

; 1077 : 	ILPCSTR szRQ = calData.m_pIChartOCX->GetCurrentRQ();

  000c6	89 95 54 ff ff
	ff		 mov	 DWORD PTR _szRQ$[ebp], edx

; 1078 : 	IPacketManager * pCurPacketManager = calData.m_pIPacketListManager->GetPacketManager(szRQ);

  000cc	8b 4d d0	 mov	 ecx, DWORD PTR _calData$[ebp+80]
  000cf	52		 push	 edx
  000d0	c6 45 fc 04	 mov	 BYTE PTR __$EHRec$[ebp+8], 4
  000d4	8b 01		 mov	 eax, DWORD PTR [ecx]
  000d6	ff 50 10	 call	 DWORD PTR [eax+16]
  000d9	8b f0		 mov	 esi, eax

; 1079 : 	pCurPacketManager->GetHelpMessageItem("UD", szHelpMsg); strDataType = szHelpMsg;

  000db	8d 8d 70 ff ff
	ff		 lea	 ecx, DWORD PTR _szHelpMsg$[ebp]
  000e1	51		 push	 ecx
  000e2	68 00 00 00 00	 push	 OFFSET ??_C@_02PONMEALH@UD@
  000e7	8b ce		 mov	 ecx, esi
  000e9	8b 06		 mov	 eax, DWORD PTR [esi]
  000eb	ff 50 18	 call	 DWORD PTR [eax+24]
  000ee	ff b5 70 ff ff
	ff		 push	 DWORD PTR _szHelpMsg$[ebp]
  000f4	8d 8d 7c ff ff
	ff		 lea	 ecx, DWORD PTR _strDataType$[ebp]
  000fa	ff 15 00 00 00
	00		 call	 DWORD PTR __imp_??4?$CStringT@DV?$StrTraitMFC_DLL@DV?$ChTraitsCRT@D@ATL@@@@@ATL@@QAEAAV01@PBD@Z

; 1080 : 	pCurPacketManager->GetHelpMessageItem("RDATET", szHelpMsg); strPacketType = szHelpMsg;

  00100	8b 06		 mov	 eax, DWORD PTR [esi]
  00102	8d 8d 70 ff ff
	ff		 lea	 ecx, DWORD PTR _szHelpMsg$[ebp]
  00108	51		 push	 ecx
  00109	68 00 00 00 00	 push	 OFFSET ??_C@_06MLGKKOBC@RDATET@
  0010e	8b ce		 mov	 ecx, esi
  00110	ff 50 18	 call	 DWORD PTR [eax+24]
  00113	ff b5 70 ff ff
	ff		 push	 DWORD PTR _szHelpMsg$[ebp]
  00119	8d 8d 78 ff ff
	ff		 lea	 ecx, DWORD PTR _strPacketType$[ebp]
  0011f	ff 15 00 00 00
	00		 call	 DWORD PTR __imp_??4?$CStringT@DV?$StrTraitMFC_DLL@DV?$ChTraitsCRT@D@ATL@@@@@ATL@@QAEAAV01@PBD@Z

; 1081 : 	CScaleBaseData::HORZSCALEDRAWERTYPE eDateUnit = (CScaleBaseData::HORZSCALEDRAWERTYPE)atoi(strDataType);

  00125	ff b5 7c ff ff
	ff		 push	 DWORD PTR _strDataType$[ebp]
  0012b	ff 15 00 00 00
	00		 call	 DWORD PTR __imp__atoi
  00131	83 c4 04	 add	 esp, 4
  00134	8b f0		 mov	 esi, eax

; 1083 : 	return CMultiPointDrawingData(CTool::GetElementCommonEnvironment().GetDataType(), 

  00136	8d 85 bc fe ff
	ff		 lea	 eax, DWORD PTR $T2[ebp]
  0013c	8b cb		 mov	 ecx, ebx
  0013e	50		 push	 eax
  0013f	e8 00 00 00 00	 call	 ?GetElementCommonEnvironment@CTool@@IBE?AVCElementCommonEnvironment@@XZ ; CTool::GetElementCommonEnvironment
  00144	8b f8		 mov	 edi, eax
  00146	8d 85 04 ff ff
	ff		 lea	 eax, DWORD PTR $T3[ebp]
  0014c	c6 45 fc 05	 mov	 BYTE PTR __$EHRec$[ebp+8], 5
  00150	50		 push	 eax
  00151	8b cb		 mov	 ecx, ebx
  00153	e8 00 00 00 00	 call	 ?GetElementCommonEnvironment@CTool@@IBE?AVCElementCommonEnvironment@@XZ ; CTool::GetElementCommonEnvironment
  00158	8b d8		 mov	 ebx, eax
; File D:\git\src\IBK\IBK_DRFN\ProjSrc\SrcChartEx\ChartAddIn\ChartAnalysisToolAddIn\AnalysisTool\PointTool.h

; 106  : 	{	return m_ptMousePos;	}

  0015a	8b 8d 6c ff ff
	ff		 mov	 ecx, DWORD PTR _this$GSCopy$1$[ebp]
; File D:\git\src\IBK\IBK_DRFN\ProjSrc\SrcChartEx\ChartAddIn\ChartAnalysisToolAddIn\AnalysisTool\PointTool.cpp

; 1083 : 	return CMultiPointDrawingData(CTool::GetElementCommonEnvironment().GetDataType(), 

  00160	56		 push	 esi
  00161	8b b5 6c ff ff
	ff		 mov	 esi, DWORD PTR _this$GSCopy$1$[ebp]
  00167	c6 45 fc 06	 mov	 BYTE PTR __$EHRec$[ebp+8], 6
; File D:\git\src\IBK\IBK_DRFN\ProjSrc\SrcChartEx\ChartAddIn\ChartAnalysisToolAddIn\AnalysisTool\PointTool.h

; 106  : 	{	return m_ptMousePos;	}

  0016b	8b 41 78	 mov	 eax, DWORD PTR [ecx+120]
  0016e	8b 49 7c	 mov	 ecx, DWORD PTR [ecx+124]
  00171	89 85 64 ff ff
	ff		 mov	 DWORD PTR $T6[ebp], eax
; File D:\git\src\IBK\IBK_DRFN\ProjSrc\SrcChartEx\ChartAddIn\ChartAnalysisToolAddIn\AnalysisTool\PointTool.cpp

; 1083 : 	return CMultiPointDrawingData(CTool::GetElementCommonEnvironment().GetDataType(), 

  00177	8d 86 88 00 00
	00		 lea	 eax, DWORD PTR [esi+136]
  0017d	50		 push	 eax
  0017e	ff b6 80 00 00
	00		 push	 DWORD PTR [esi+128]
  00184	8d 85 64 ff ff
	ff		 lea	 eax, DWORD PTR $T6[ebp]
; File D:\git\src\IBK\IBK_DRFN\ProjSrc\SrcChartEx\ChartAddIn\ChartAnalysisToolAddIn\AnalysisTool\PointTool.h

; 106  : 	{	return m_ptMousePos;	}

  0018a	89 8d 68 ff ff
	ff		 mov	 DWORD PTR $T6[ebp+4], ecx
; File D:\git\src\IBK\IBK_DRFN\ProjSrc\SrcChartEx\ChartAddIn\ChartAnalysisToolAddIn\AnalysisTool\PointTool.cpp

; 1083 : 	return CMultiPointDrawingData(CTool::GetElementCommonEnvironment().GetDataType(), 

  00190	50		 push	 eax
  00191	8d 85 62 ff ff
	ff		 lea	 eax, DWORD PTR $T5[ebp]
  00197	8b ce		 mov	 ecx, esi
  00199	50		 push	 eax
  0019a	e8 00 00 00 00	 call	 ?GetVertScaleType@CTool@@IBE?AVCVertScaleType@@ABVCPoint@@@Z ; CTool::GetVertScaleType
  0019f	50		 push	 eax
  001a0	8d 85 4c ff ff
	ff		 lea	 eax, DWORD PTR $T4[ebp]
  001a6	8b ce		 mov	 ecx, esi
  001a8	50		 push	 eax
  001a9	e8 00 00 00 00	 call	 ?GetDisplayAttributes@CTool@@IBE?AVCDisplayAttributes@@XZ ; CTool::GetDisplayAttributes
  001ae	50		 push	 eax
  001af	8d 45 e0	 lea	 eax, DWORD PTR $T8[ebp]
  001b2	8b ce		 mov	 ecx, esi
  001b4	50		 push	 eax
  001b5	e8 00 00 00 00	 call	 ?GetDrawingRegions@CTool@@IBEABVCDrawingRegions@@XZ ; CTool::GetDrawingRegions
  001ba	8b c8		 mov	 ecx, eax
  001bc	e8 00 00 00 00	 call	 ?GetCurrentFullGraphRegion@CDrawingRegions@@QBE?AVCRect@@XZ ; CDrawingRegions::GetCurrentFullGraphRegion
  001c1	50		 push	 eax
  001c2	8b cf		 mov	 ecx, edi
  001c4	e8 00 00 00 00	 call	 ?GetLineExt@CElementCommonEnvironment@@QAEAAVCLineExtEnvironment@@XZ ; CElementCommonEnvironment::GetLineExt
  001c9	50		 push	 eax
  001ca	8b 06		 mov	 eax, DWORD PTR [esi]
  001cc	8b ce		 mov	 ecx, esi
  001ce	ff 50 2c	 call	 DWORD PTR [eax+44]
  001d1	50		 push	 eax
  001d2	8b cb		 mov	 ecx, ebx
  001d4	e8 00 00 00 00	 call	 ?GetDataType@CElementCommonEnvironment@@QAEAAVCDataTypeEnvironment@@XZ ; CElementCommonEnvironment::GetDataType
  001d9	8b b5 5c ff ff
	ff		 mov	 esi, DWORD PTR ___$ReturnUdt$GSCopy$1$[ebp]
  001df	8b ce		 mov	 ecx, esi
  001e1	50		 push	 eax
  001e2	e8 00 00 00 00	 call	 ??0CMultiPointDrawingData@@QAE@ABVCDataTypeEnvironment@@PAVCTextPosition@@PAVCLineExtEnvironment@@ABVCRect@@ABVCDisplayAttributes@@ABVCVertScaleType@@HPBVCPoints@@W4HORZSCALEDRAWERTYPE@CScaleBaseData@@@Z ; CMultiPointDrawingData::CMultiPointDrawingData
  001e7	8d 8d 3c ff ff
	ff		 lea	 ecx, DWORD PTR $T3[ebp+56]
  001ed	ff 15 00 00 00
	00		 call	 DWORD PTR __imp_??1?$CStringT@DV?$StrTraitMFC_DLL@DV?$ChTraitsCRT@D@ATL@@@@@ATL@@QAE@XZ
  001f3	8d 8d 38 ff ff
	ff		 lea	 ecx, DWORD PTR $T3[ebp+52]
  001f9	ff 15 00 00 00
	00		 call	 DWORD PTR __imp_??1?$CStringT@DV?$StrTraitMFC_DLL@DV?$ChTraitsCRT@D@ATL@@@@@ATL@@QAE@XZ
  001ff	8d 8d 34 ff ff
	ff		 lea	 ecx, DWORD PTR $T3[ebp+48]
  00205	ff 15 00 00 00
	00		 call	 DWORD PTR __imp_??1?$CStringT@DV?$StrTraitMFC_DLL@DV?$ChTraitsCRT@D@ATL@@@@@ATL@@QAE@XZ
  0020b	8d 8d f4 fe ff
	ff		 lea	 ecx, DWORD PTR $T2[ebp+56]
  00211	ff 15 00 00 00
	00		 call	 DWORD PTR __imp_??1?$CStringT@DV?$StrTraitMFC_DLL@DV?$ChTraitsCRT@D@ATL@@@@@ATL@@QAE@XZ
  00217	8d 8d f0 fe ff
	ff		 lea	 ecx, DWORD PTR $T2[ebp+52]
  0021d	ff 15 00 00 00
	00		 call	 DWORD PTR __imp_??1?$CStringT@DV?$StrTraitMFC_DLL@DV?$ChTraitsCRT@D@ATL@@@@@ATL@@QAE@XZ
  00223	8d 8d ec fe ff
	ff		 lea	 ecx, DWORD PTR $T2[ebp+48]
  00229	ff 15 00 00 00
	00		 call	 DWORD PTR __imp_??1?$CStringT@DV?$StrTraitMFC_DLL@DV?$ChTraitsCRT@D@ATL@@@@@ATL@@QAE@XZ
; File D:\git\src\IBK\IBK_DRFN\ProjSrc\SrcChartEx\ChartAddIn\ChartAnalysisToolAddIn\Include_AddIn_133101\I133101\_IString.h

; 45   : 		if( m_pIStrData)

  0022f	8b 8d 58 ff ff
	ff		 mov	 ecx, DWORD PTR _szRQ$[ebp+4]
  00235	c6 45 fc 07	 mov	 BYTE PTR __$EHRec$[ebp+8], 7
  00239	85 c9		 test	 ecx, ecx
  0023b	74 06		 je	 SHORT $LN39@GetMultiPo

; 46   : 		{
; 47   : 			m_pIStrData->Release();

  0023d	8b 01		 mov	 eax, DWORD PTR [ecx]
  0023f	51		 push	 ecx
  00240	ff 50 08	 call	 DWORD PTR [eax+8]
$LN39@GetMultiPo:
; File D:\git\src\IBK\IBK_DRFN\ProjSrc\SrcChartEx\ChartAddIn\ChartAnalysisToolAddIn\AnalysisTool\PointTool.cpp

; 1083 : 	return CMultiPointDrawingData(CTool::GetElementCommonEnvironment().GetDataType(), 

  00243	8d 4d 80	 lea	 ecx, DWORD PTR _calData$[ebp]
  00246	e8 00 00 00 00	 call	 ??1CCoordinateCalculatorData@@QAE@XZ ; CCoordinateCalculatorData::~CCoordinateCalculatorData
  0024b	8d 8d 78 ff ff
	ff		 lea	 ecx, DWORD PTR _strPacketType$[ebp]
  00251	ff 15 00 00 00
	00		 call	 DWORD PTR __imp_??1?$CStringT@DV?$StrTraitMFC_DLL@DV?$ChTraitsCRT@D@ATL@@@@@ATL@@QAE@XZ
  00257	8d 8d 7c ff ff
	ff		 lea	 ecx, DWORD PTR _strDataType$[ebp]
  0025d	ff 15 00 00 00
	00		 call	 DWORD PTR __imp_??1?$CStringT@DV?$StrTraitMFC_DLL@DV?$ChTraitsCRT@D@ATL@@@@@ATL@@QAE@XZ
; File D:\git\src\IBK\IBK_DRFN\ProjSrc\SrcChartEx\ChartAddIn\ChartAnalysisToolAddIn\Include_AddIn_133101\I133101\_IString.h

; 45   : 		if( m_pIStrData)

  00263	8b 95 74 ff ff
	ff		 mov	 edx, DWORD PTR _szHelpMsg$[ebp+4]
  00269	c7 45 fc 08 00
	00 00		 mov	 DWORD PTR __$EHRec$[ebp+8], 8
  00270	85 d2		 test	 edx, edx
  00272	74 06		 je	 SHORT $LN46@GetMultiPo

; 46   : 		{
; 47   : 			m_pIStrData->Release();

  00274	8b 0a		 mov	 ecx, DWORD PTR [edx]
  00276	52		 push	 edx
  00277	ff 51 08	 call	 DWORD PTR [ecx+8]
$LN46@GetMultiPo:
; File D:\git\src\IBK\IBK_DRFN\ProjSrc\SrcChartEx\ChartAddIn\ChartAnalysisToolAddIn\AnalysisTool\PointTool.cpp

; 1091 : }

  0027a	8b c6		 mov	 eax, esi
  0027c	8b 4d f4	 mov	 ecx, DWORD PTR __$EHRec$[ebp]
  0027f	64 89 0d 00 00
	00 00		 mov	 DWORD PTR fs:0, ecx
  00286	59		 pop	 ecx
  00287	5f		 pop	 edi
  00288	5e		 pop	 esi
  00289	5b		 pop	 ebx
  0028a	8b 4d f0	 mov	 ecx, DWORD PTR __$ArrayPad$[ebp]
  0028d	33 cd		 xor	 ecx, ebp
  0028f	e8 00 00 00 00	 call	 @__security_check_cookie@4
  00294	8b e5		 mov	 esp, ebp
  00296	5d		 pop	 ebp
  00297	c2 04 00	 ret	 4
_TEXT	ENDS
;	COMDAT text$x
text$x	SEGMENT
__unwindfunclet$?GetMultiPointDrawingData@CMultiPointDownTool@@ABE?AVCMultiPointDrawingData@@XZ$0:
  00000	8d 8d 70 ff ff
	ff		 lea	 ecx, DWORD PTR _szHelpMsg$[ebp]
  00006	e9 00 00 00 00	 jmp	 ??1ILPCSTR133101@@QAE@XZ ; ILPCSTR133101::~ILPCSTR133101
__unwindfunclet$?GetMultiPointDrawingData@CMultiPointDownTool@@ABE?AVCMultiPointDrawingData@@XZ$1:
  0000b	8d 8d 7c ff ff
	ff		 lea	 ecx, DWORD PTR _strDataType$[ebp]
  00011	ff 25 00 00 00
	00		 jmp	 DWORD PTR __imp_??1?$CStringT@DV?$StrTraitMFC_DLL@DV?$ChTraitsCRT@D@ATL@@@@@ATL@@QAE@XZ
__unwindfunclet$?GetMultiPointDrawingData@CMultiPointDownTool@@ABE?AVCMultiPointDrawingData@@XZ$2:
  00017	8d 8d 78 ff ff
	ff		 lea	 ecx, DWORD PTR _strPacketType$[ebp]
  0001d	ff 25 00 00 00
	00		 jmp	 DWORD PTR __imp_??1?$CStringT@DV?$StrTraitMFC_DLL@DV?$ChTraitsCRT@D@ATL@@@@@ATL@@QAE@XZ
__unwindfunclet$?GetMultiPointDrawingData@CMultiPointDownTool@@ABE?AVCMultiPointDrawingData@@XZ$3:
  00023	8d 4d 80	 lea	 ecx, DWORD PTR _calData$[ebp]
  00026	e9 00 00 00 00	 jmp	 ??1CCoordinateCalculatorData@@QAE@XZ ; CCoordinateCalculatorData::~CCoordinateCalculatorData
__unwindfunclet$?GetMultiPointDrawingData@CMultiPointDownTool@@ABE?AVCMultiPointDrawingData@@XZ$4:
  0002b	8d 8d 54 ff ff
	ff		 lea	 ecx, DWORD PTR _szRQ$[ebp]
  00031	e9 00 00 00 00	 jmp	 ??1ILPCSTR133101@@QAE@XZ ; ILPCSTR133101::~ILPCSTR133101
__unwindfunclet$?GetMultiPointDrawingData@CMultiPointDownTool@@ABE?AVCMultiPointDrawingData@@XZ$5:
  00036	8d 8d bc fe ff
	ff		 lea	 ecx, DWORD PTR $T2[ebp]
  0003c	e9 00 00 00 00	 jmp	 ??1CElementCommonEnvironment@@QAE@XZ
__unwindfunclet$?GetMultiPointDrawingData@CMultiPointDownTool@@ABE?AVCMultiPointDrawingData@@XZ$6:
  00041	8d 8d 04 ff ff
	ff		 lea	 ecx, DWORD PTR $T3[ebp]
  00047	e9 00 00 00 00	 jmp	 ??1CElementCommonEnvironment@@QAE@XZ
  0004c	cc		 int	 3
  0004d	cc		 int	 3
  0004e	cc		 int	 3
  0004f	cc		 int	 3
  00050	cc		 int	 3
__ehhandler$?GetMultiPointDrawingData@CMultiPointDownTool@@ABE?AVCMultiPointDrawingData@@XZ:
  00051	90		 npad	 1
  00052	90		 npad	 1
  00053	8b 54 24 08	 mov	 edx, DWORD PTR [esp+8]
  00057	8d 42 0c	 lea	 eax, DWORD PTR [edx+12]
  0005a	8b 8a b8 fe ff
	ff		 mov	 ecx, DWORD PTR [edx-328]
  00060	33 c8		 xor	 ecx, eax
  00062	e8 00 00 00 00	 call	 @__security_check_cookie@4
  00067	8b 4a fc	 mov	 ecx, DWORD PTR [edx-4]
  0006a	33 c8		 xor	 ecx, eax
  0006c	e8 00 00 00 00	 call	 @__security_check_cookie@4
  00071	b8 00 00 00 00	 mov	 eax, OFFSET __ehfuncinfo$?GetMultiPointDrawingData@CMultiPointDownTool@@ABE?AVCMultiPointDrawingData@@XZ
  00076	e9 00 00 00 00	 jmp	 ___CxxFrameHandler3
text$x	ENDS
?GetMultiPointDrawingData@CMultiPointDownTool@@ABE?AVCMultiPointDrawingData@@XZ ENDP ; CMultiPointDownTool::GetMultiPointDrawingData
; Function compile flags: /Ogtp
; File D:\git\src\IBK\IBK_DRFN\ProjSrc\SrcChartEx\ChartAddIn\ChartAnalysisToolAddIn\AnalysisTool\PointTool.cpp
;	COMDAT ?IsEndPoint@CMultiPointDownTool@@ABE_NXZ
_TEXT	SEGMENT
?IsEndPoint@CMultiPointDownTool@@ABE_NXZ PROC		; CMultiPointDownTool::IsEndPoint, COMDAT
; _this$ = ecx

; 1059 : 	return (m_nPontsCount < 500);

  00000	81 b9 80 00 00
	00 f4 01 00 00	 cmp	 DWORD PTR [ecx+128], 500 ; 000001f4H
  0000a	0f 9c c0	 setl	 al

; 1060 : }

  0000d	c3		 ret	 0
?IsEndPoint@CMultiPointDownTool@@ABE_NXZ ENDP		; CMultiPointDownTool::IsEndPoint
_TEXT	ENDS
; Function compile flags: /Ogtp
; File D:\git\src\IBK\IBK_DRFN\ProjSrc\SrcChartEx\ChartAddIn\ChartAnalysisToolAddIn\AnalysisTool\PointTool.cpp
;	COMDAT ?MakeElement@CMultiPointDownTool@@MAEPAVCElement@@ABVCElementCommonEnvironment@@@Z
_TEXT	SEGMENT
_environment$ = 8					; size = 4
?MakeElement@CMultiPointDownTool@@MAEPAVCElement@@ABVCElementCommonEnvironment@@@Z PROC ; CMultiPointDownTool::MakeElement, COMDAT
; _this$ = ecx

; 1048 : {

  00000	55		 push	 ebp
  00001	8b ec		 mov	 ebp, esp

; 1049 : 	//if(!IsEndPoint())
; 1050 : 	//	return NULL;
; 1051 : 
; 1052 : 	return CElementFactory::Make(GetToolType(),m_nPontsCount,m_ptListPoints,environment);	

  00003	ff 75 08	 push	 DWORD PTR _environment$[ebp]
  00006	8d 81 88 00 00
	00		 lea	 eax, DWORD PTR [ecx+136]
  0000c	50		 push	 eax
  0000d	8b 01		 mov	 eax, DWORD PTR [ecx]
  0000f	ff b1 80 00 00
	00		 push	 DWORD PTR [ecx+128]
  00015	ff 50 24	 call	 DWORD PTR [eax+36]
  00018	50		 push	 eax
  00019	e8 00 00 00 00	 call	 ?Make@CElementFactory@@SAPAVCElement@@W4TOOLTYPE@CAnalysis@@HPBVCPoints@@ABVCElementCommonEnvironment@@@Z ; CElementFactory::Make
  0001e	83 c4 10	 add	 esp, 16			; 00000010H

; 1053 : }

  00021	5d		 pop	 ebp
  00022	c2 04 00	 ret	 4
?MakeElement@CMultiPointDownTool@@MAEPAVCElement@@ABVCElementCommonEnvironment@@@Z ENDP ; CMultiPointDownTool::MakeElement
_TEXT	ENDS
; Function compile flags: /Ogtp
; File D:\git\src\IBK\IBK_DRFN\ProjSrc\SrcChartEx\ChartAddIn\ChartAnalysisToolAddIn\AnalysisTool\PointTool.cpp
;	COMDAT ?IsMakeElement@CMultiPointDownTool@@MBE_NABVCPoint@@@Z
_TEXT	SEGMENT
___formal$ = 8						; size = 4
?IsMakeElement@CMultiPointDownTool@@MBE_NABVCPoint@@@Z PROC ; CMultiPointDownTool::IsMakeElement, COMDAT
; _this$ = ecx

; 1059 : 	return (m_nPontsCount < 500);

  00000	81 b9 80 00 00
	00 f4 01 00 00	 cmp	 DWORD PTR [ecx+128], 500 ; 000001f4H
  0000a	0f 9c c0	 setl	 al

; 1043 : 	return IsEndPoint();
; 1044 : }

  0000d	c2 04 00	 ret	 4
?IsMakeElement@CMultiPointDownTool@@MBE_NABVCPoint@@@Z ENDP ; CMultiPointDownTool::IsMakeElement
_TEXT	ENDS
; Function compile flags: /Ogtp
; File D:\git\src\IBK\IBK_DRFN\ProjSrc\SrcChartEx\ChartAddIn\ChartAnalysisToolAddIn\AnalysisTool\PointTool.cpp
;	COMDAT ?SavePoints@CMultiPointDownTool@@MAEXABVCPoints@@@Z
_TEXT	SEGMENT
_point$ = 8						; size = 4
?SavePoints@CMultiPointDownTool@@MAEXABVCPoints@@@Z PROC ; CMultiPointDownTool::SavePoints, COMDAT
; _this$ = ecx

; 1039 : }

  00000	c2 04 00	 ret	 4
?SavePoints@CMultiPointDownTool@@MAEXABVCPoints@@@Z ENDP ; CMultiPointDownTool::SavePoints
_TEXT	ENDS
; Function compile flags: /Ogtp
; File D:\git\src\IBK\IBK_DRFN\ProjSrc\SrcChartEx\ChartAddIn\ChartAnalysisToolAddIn\AnalysisTool\PointTool.cpp
;	COMDAT ?OnDraw@CMultiPointDownTool@@UAEXPAVCDC@@@Z
_TEXT	SEGMENT
$T2 = -20128						; size = 20112
__$ArrayPad$ = -16					; size = 4
__$EHRec$ = -12						; size = 12
_pDC$ = 8						; size = 4
?OnDraw@CMultiPointDownTool@@UAEXPAVCDC@@@Z PROC	; CMultiPointDownTool::OnDraw, COMDAT
; _this$ = ecx

; 1028 : {

  00000	55		 push	 ebp
  00001	8b ec		 mov	 ebp, esp
  00003	6a ff		 push	 -1
  00005	68 00 00 00 00	 push	 __ehhandler$?OnDraw@CMultiPointDownTool@@UAEXPAVCDC@@@Z
  0000a	64 a1 00 00 00
	00		 mov	 eax, DWORD PTR fs:0
  00010	50		 push	 eax
  00011	b8 94 4e 00 00	 mov	 eax, 20116		; 00004e94H
  00016	e8 00 00 00 00	 call	 __chkstk
  0001b	a1 00 00 00 00	 mov	 eax, DWORD PTR ___security_cookie
  00020	33 c5		 xor	 eax, ebp
  00022	89 45 f0	 mov	 DWORD PTR __$ArrayPad$[ebp], eax
  00025	56		 push	 esi
  00026	57		 push	 edi
  00027	50		 push	 eax
  00028	8d 45 f4	 lea	 eax, DWORD PTR __$EHRec$[ebp]
  0002b	64 a3 00 00 00
	00		 mov	 DWORD PTR fs:0, eax
  00031	8b f1		 mov	 esi, ecx

; 1029 : 	if(m_nPontsCount < 2)

  00033	83 be 80 00 00
	00 02		 cmp	 DWORD PTR [esi+128], 2
  0003a	8b 7d 08	 mov	 edi, DWORD PTR _pDC$[ebp]
  0003d	7c 68		 jl	 SHORT $LN6@OnDraw

; 1030 : 		return;
; 1031 : 
; 1032 : 	GetMultiPointDrawer().DrawTool(pDC, GetMultiPointDrawingData(), R2_NOT/*R2_COPYPEN*/);

  0003f	8d 85 60 b1 ff
	ff		 lea	 eax, DWORD PTR $T2[ebp]
  00045	50		 push	 eax
  00046	e8 00 00 00 00	 call	 ?GetMultiPointDrawingData@CMultiPointDownTool@@ABE?AVCMultiPointDrawingData@@XZ ; CMultiPointDownTool::GetMultiPointDrawingData
  0004b	6a 06		 push	 6
  0004d	50		 push	 eax
  0004e	8b 06		 mov	 eax, DWORD PTR [esi]
  00050	8b ce		 mov	 ecx, esi
  00052	57		 push	 edi
  00053	c7 45 fc 00 00
	00 00		 mov	 DWORD PTR __$EHRec$[ebp+8], 0
  0005a	ff 50 3c	 call	 DWORD PTR [eax+60]
  0005d	8b c8		 mov	 ecx, eax
  0005f	e8 00 00 00 00	 call	 ?DrawTool@CMultiPointDrawer@@QAEXPAVCDC@@ABVCMultiPointDrawingData@@H@Z ; CMultiPointDrawer::DrawTool
  00064	68 00 00 00 00	 push	 OFFSET ??1CPoints@@QAE@XZ
  00069	68 f4 01 00 00	 push	 500			; 000001f4H
  0006e	6a 28		 push	 40			; 00000028H
  00070	8d 85 d0 b1 ff
	ff		 lea	 eax, DWORD PTR $T2[ebp+112]
  00076	c7 45 fc 01 00
	00 00		 mov	 DWORD PTR __$EHRec$[ebp+8], 1
  0007d	50		 push	 eax
  0007e	e8 00 00 00 00	 call	 ??_M@YGXPAXIIP6EX0@Z@Z
  00083	8d 8d 80 b1 ff
	ff		 lea	 ecx, DWORD PTR $T2[ebp+32]
  00089	ff 15 00 00 00
	00		 call	 DWORD PTR __imp_??1?$CStringT@DV?$StrTraitMFC_DLL@DV?$ChTraitsCRT@D@ATL@@@@@ATL@@QAE@XZ
  0008f	8d 8d 7c b1 ff
	ff		 lea	 ecx, DWORD PTR $T2[ebp+28]
  00095	ff 15 00 00 00
	00		 call	 DWORD PTR __imp_??1?$CStringT@DV?$StrTraitMFC_DLL@DV?$ChTraitsCRT@D@ATL@@@@@ATL@@QAE@XZ
  0009b	8d 8d 78 b1 ff
	ff		 lea	 ecx, DWORD PTR $T2[ebp+24]
  000a1	ff 15 00 00 00
	00		 call	 DWORD PTR __imp_??1?$CStringT@DV?$StrTraitMFC_DLL@DV?$ChTraitsCRT@D@ATL@@@@@ATL@@QAE@XZ
$LN6@OnDraw:

; 1033 : }

  000a7	8b 4d f4	 mov	 ecx, DWORD PTR __$EHRec$[ebp]
  000aa	64 89 0d 00 00
	00 00		 mov	 DWORD PTR fs:0, ecx
  000b1	59		 pop	 ecx
  000b2	5f		 pop	 edi
  000b3	5e		 pop	 esi
  000b4	8b 4d f0	 mov	 ecx, DWORD PTR __$ArrayPad$[ebp]
  000b7	33 cd		 xor	 ecx, ebp
  000b9	e8 00 00 00 00	 call	 @__security_check_cookie@4
  000be	8b e5		 mov	 esp, ebp
  000c0	5d		 pop	 ebp
  000c1	c2 04 00	 ret	 4
_TEXT	ENDS
;	COMDAT text$x
text$x	SEGMENT
__unwindfunclet$?OnDraw@CMultiPointDownTool@@UAEXPAVCDC@@@Z$0:
  00000	8d 8d 60 b1 ff
	ff		 lea	 ecx, DWORD PTR $T2[ebp]
  00006	e9 00 00 00 00	 jmp	 ??1CMultiPointDrawingData@@QAE@XZ
  0000b	cc		 int	 3
  0000c	cc		 int	 3
  0000d	cc		 int	 3
  0000e	cc		 int	 3
  0000f	cc		 int	 3
__ehhandler$?OnDraw@CMultiPointDownTool@@UAEXPAVCDC@@@Z:
  00010	90		 npad	 1
  00011	90		 npad	 1
  00012	8b 54 24 08	 mov	 edx, DWORD PTR [esp+8]
  00016	8d 42 0c	 lea	 eax, DWORD PTR [edx+12]
  00019	8b 8a 60 b1 ff
	ff		 mov	 ecx, DWORD PTR [edx-20128]
  0001f	33 c8		 xor	 ecx, eax
  00021	e8 00 00 00 00	 call	 @__security_check_cookie@4
  00026	8b 4a fc	 mov	 ecx, DWORD PTR [edx-4]
  00029	33 c8		 xor	 ecx, eax
  0002b	e8 00 00 00 00	 call	 @__security_check_cookie@4
  00030	b8 00 00 00 00	 mov	 eax, OFFSET __ehfuncinfo$?OnDraw@CMultiPointDownTool@@UAEXPAVCDC@@@Z
  00035	e9 00 00 00 00	 jmp	 ___CxxFrameHandler3
text$x	ENDS
?OnDraw@CMultiPointDownTool@@UAEXPAVCDC@@@Z ENDP	; CMultiPointDownTool::OnDraw
; Function compile flags: /Ogtp
; File D:\git\src\IBK\IBK_DRFN\ProjSrc\SrcChartEx\ChartAddIn\ChartAnalysisToolAddIn\AnalysisTool\PointTool.cpp
;	COMDAT ?OnMouseMove@CMultiPointDownTool@@UAE_NPAVCDC@@ABVCPoint@@H@Z
_TEXT	SEGMENT
$T2 = -52						; size = 40
__$EHRec$ = -12						; size = 12
_pDC$ = 8						; size = 4
_point$ = 12						; size = 4
_nFlags$ = 16						; size = 4
?OnMouseMove@CMultiPointDownTool@@UAE_NPAVCDC@@ABVCPoint@@H@Z PROC ; CMultiPointDownTool::OnMouseMove, COMDAT
; _this$ = ecx

; 994  : {

  00000	55		 push	 ebp
  00001	8b ec		 mov	 ebp, esp
  00003	6a ff		 push	 -1
  00005	68 00 00 00 00	 push	 __ehhandler$?OnMouseMove@CMultiPointDownTool@@UAE_NPAVCDC@@ABVCPoint@@H@Z
  0000a	64 a1 00 00 00
	00		 mov	 eax, DWORD PTR fs:0
  00010	50		 push	 eax
  00011	83 ec 28	 sub	 esp, 40			; 00000028H
  00014	56		 push	 esi
  00015	57		 push	 edi
  00016	a1 00 00 00 00	 mov	 eax, DWORD PTR ___security_cookie
  0001b	33 c5		 xor	 eax, ebp
  0001d	50		 push	 eax
  0001e	8d 45 f4	 lea	 eax, DWORD PTR __$EHRec$[ebp]
  00021	64 a3 00 00 00
	00		 mov	 DWORD PTR fs:0, eax
  00027	8b f1		 mov	 esi, ecx

; 995  : 	if(nFlags != MK_LBUTTON)

  00029	83 7d 10 01	 cmp	 DWORD PTR _nFlags$[ebp], 1
  0002d	74 15		 je	 SHORT $LN2@OnMouseMov

; 996  : 		return false;

  0002f	32 c0		 xor	 al, al

; 1006 : }

  00031	8b 4d f4	 mov	 ecx, DWORD PTR __$EHRec$[ebp]
  00034	64 89 0d 00 00
	00 00		 mov	 DWORD PTR fs:0, ecx
  0003b	59		 pop	 ecx
  0003c	5f		 pop	 edi
  0003d	5e		 pop	 esi
  0003e	8b e5		 mov	 esp, ebp
  00040	5d		 pop	 ebp
  00041	c2 0c 00	 ret	 12			; 0000000cH
$LN2@OnMouseMov:

; 997  : 
; 998  : 	if(PointInDrawingRegion(point) && IsMakeElement(point))

  00044	8b 06		 mov	 eax, DWORD PTR [esi]
  00046	8b 7d 0c	 mov	 edi, DWORD PTR _point$[ebp]
  00049	57		 push	 edi
  0004a	8b 40 1c	 mov	 eax, DWORD PTR [eax+28]
  0004d	ff d0		 call	 eax
  0004f	84 c0		 test	 al, al
  00051	74 53		 je	 SHORT $LN3@OnMouseMov
  00053	8b 06		 mov	 eax, DWORD PTR [esi]
  00055	8b ce		 mov	 ecx, esi
  00057	57		 push	 edi
  00058	8b 40 30	 mov	 eax, DWORD PTR [eax+48]
  0005b	ff d0		 call	 eax
  0005d	84 c0		 test	 al, al
  0005f	74 45		 je	 SHORT $LN3@OnMouseMov

; 999  : 	{
; 1000 : 		m_ptListPoints[m_nPontsCount] = CTool::GetPointsAndSetDataType(point);

  00061	57		 push	 edi
  00062	8d 45 cc	 lea	 eax, DWORD PTR $T2[ebp]
  00065	8b ce		 mov	 ecx, esi
  00067	50		 push	 eax
  00068	e8 00 00 00 00	 call	 ?GetPointsAndSetDataType@CTool@@IAE?AVCPoints@@ABVCPoint@@@Z ; CTool::GetPointsAndSetDataType
  0006d	50		 push	 eax
  0006e	8b 86 80 00 00
	00		 mov	 eax, DWORD PTR [esi+128]
  00074	c7 45 fc 00 00
	00 00		 mov	 DWORD PTR __$EHRec$[ebp+8], 0
  0007b	8d 04 80	 lea	 eax, DWORD PTR [eax+eax*4]
  0007e	8d 40 11	 lea	 eax, DWORD PTR [eax+17]
  00081	8d 0c c6	 lea	 ecx, DWORD PTR [esi+eax*8]
  00084	e8 00 00 00 00	 call	 ??4CPoints@@QAEAAV0@ABV0@@Z ; CPoints::operator=
  00089	8d 4d e0	 lea	 ecx, DWORD PTR $T2[ebp+20]
  0008c	c7 45 fc ff ff
	ff ff		 mov	 DWORD PTR __$EHRec$[ebp+8], -1
  00093	ff 15 00 00 00
	00		 call	 DWORD PTR __imp_??1?$CStringT@DV?$StrTraitMFC_DLL@DV?$ChTraitsCRT@D@ATL@@@@@ATL@@QAE@XZ

; 1001 : 		m_nPontsCount++;

  00099	ff 86 80 00 00
	00		 inc	 DWORD PTR [esi+128]

; 1002 : 		CTool::Invalidate();	

  0009f	8b ce		 mov	 ecx, esi
  000a1	e8 00 00 00 00	 call	 ?Invalidate@CTool@@QAEXXZ ; CTool::Invalidate
$LN3@OnMouseMov:

; 1003 : 	}
; 1004 : 		
; 1005 : 	return true;

  000a6	b0 01		 mov	 al, 1

; 1006 : }

  000a8	8b 4d f4	 mov	 ecx, DWORD PTR __$EHRec$[ebp]
  000ab	64 89 0d 00 00
	00 00		 mov	 DWORD PTR fs:0, ecx
  000b2	59		 pop	 ecx
  000b3	5f		 pop	 edi
  000b4	5e		 pop	 esi
  000b5	8b e5		 mov	 esp, ebp
  000b7	5d		 pop	 ebp
  000b8	c2 0c 00	 ret	 12			; 0000000cH
_TEXT	ENDS
;	COMDAT text$x
text$x	SEGMENT
__unwindfunclet$?OnMouseMove@CMultiPointDownTool@@UAE_NPAVCDC@@ABVCPoint@@H@Z$0:
  00000	8d 4d cc	 lea	 ecx, DWORD PTR $T2[ebp]
  00003	e9 00 00 00 00	 jmp	 ??1CPoints@@QAE@XZ
  00008	cc		 int	 3
  00009	cc		 int	 3
  0000a	cc		 int	 3
  0000b	cc		 int	 3
  0000c	cc		 int	 3
__ehhandler$?OnMouseMove@CMultiPointDownTool@@UAE_NPAVCDC@@ABVCPoint@@H@Z:
  0000d	90		 npad	 1
  0000e	90		 npad	 1
  0000f	8b 54 24 08	 mov	 edx, DWORD PTR [esp+8]
  00013	8d 42 0c	 lea	 eax, DWORD PTR [edx+12]
  00016	8b 4a cc	 mov	 ecx, DWORD PTR [edx-52]
  00019	33 c8		 xor	 ecx, eax
  0001b	e8 00 00 00 00	 call	 @__security_check_cookie@4
  00020	b8 00 00 00 00	 mov	 eax, OFFSET __ehfuncinfo$?OnMouseMove@CMultiPointDownTool@@UAE_NPAVCDC@@ABVCPoint@@H@Z
  00025	e9 00 00 00 00	 jmp	 ___CxxFrameHandler3
text$x	ENDS
?OnMouseMove@CMultiPointDownTool@@UAE_NPAVCDC@@ABVCPoint@@H@Z ENDP ; CMultiPointDownTool::OnMouseMove
; Function compile flags: /Ogtp
; File D:\git\src\IBK\IBK_DRFN\ProjSrc\SrcChartEx\ChartAddIn\ChartAnalysisToolAddIn\AnalysisTool\PointTool.cpp
;	COMDAT ?OnLButtonUp@CMultiPointDownTool@@UAEXPAVCDC@@ABVCPoint@@@Z
_TEXT	SEGMENT
$T2 = -68						; size = 40
$T3 = -28						; size = 8
$T4 = -20						; size = 8
__$EHRec$ = -12						; size = 12
_pDC$ = 8						; size = 4
_point$ = 12						; size = 4
?OnLButtonUp@CMultiPointDownTool@@UAEXPAVCDC@@ABVCPoint@@@Z PROC ; CMultiPointDownTool::OnLButtonUp, COMDAT
; _this$ = ecx

; 1009 : {

  00000	55		 push	 ebp
  00001	8b ec		 mov	 ebp, esp
  00003	6a ff		 push	 -1
  00005	68 00 00 00 00	 push	 __ehhandler$?OnLButtonUp@CMultiPointDownTool@@UAEXPAVCDC@@ABVCPoint@@@Z
  0000a	64 a1 00 00 00
	00		 mov	 eax, DWORD PTR fs:0
  00010	50		 push	 eax
  00011	83 ec 38	 sub	 esp, 56			; 00000038H
  00014	56		 push	 esi
  00015	57		 push	 edi
  00016	a1 00 00 00 00	 mov	 eax, DWORD PTR ___security_cookie
  0001b	33 c5		 xor	 eax, ebp
  0001d	50		 push	 eax
  0001e	8d 45 f4	 lea	 eax, DWORD PTR __$EHRec$[ebp]
  00021	64 a3 00 00 00
	00		 mov	 DWORD PTR fs:0, eax
  00027	8b f1		 mov	 esi, ecx

; 1010 : 	if(PointInDrawingRegion(point))

  00029	8b 06		 mov	 eax, DWORD PTR [esi]
  0002b	8b 7d 0c	 mov	 edi, DWORD PTR _point$[ebp]
  0002e	57		 push	 edi
  0002f	8b 40 1c	 mov	 eax, DWORD PTR [eax+28]
  00032	ff d0		 call	 eax
  00034	84 c0		 test	 al, al
  00036	0f 84 8e 00 00
	00		 je	 $LN2@OnLButtonU

; 1011 : 	{
; 1012 : 		if(!IsMakeElement(point))

  0003c	8b 06		 mov	 eax, DWORD PTR [esi]
  0003e	8b ce		 mov	 ecx, esi
  00040	57		 push	 edi
  00041	8b 40 30	 mov	 eax, DWORD PTR [eax+48]
  00044	ff d0		 call	 eax
  00046	84 c0		 test	 al, al
  00048	75 22		 jne	 SHORT $LN3@OnLButtonU

; 1013 : 		{
; 1014 : 			CTool::MakeElement(m_ptListPoints[m_nPontsCount-1].GetDrawingPoint());

  0004a	8d 45 ec	 lea	 eax, DWORD PTR $T4[ebp]
  0004d	50		 push	 eax
  0004e	8b 86 80 00 00
	00		 mov	 eax, DWORD PTR [esi+128]
  00054	8d 04 80	 lea	 eax, DWORD PTR [eax+eax*4]
  00057	8d 40 0c	 lea	 eax, DWORD PTR [eax+12]
  0005a	8d 0c c6	 lea	 ecx, DWORD PTR [esi+eax*8]
  0005d	e8 00 00 00 00	 call	 ?GetDrawingPoint@CPoints@@QBE?AVCPoint@@XZ ; CPoints::GetDrawingPoint
  00062	50		 push	 eax
  00063	8b ce		 mov	 ecx, esi
  00065	e8 00 00 00 00	 call	 ?MakeElement@CTool@@IAEXABVCPoint@@@Z ; CTool::MakeElement

; 1015 : 			Initialize();
; 1016 : 			return;

  0006a	eb 5e		 jmp	 SHORT $LN2@OnLButtonU
$LN3@OnLButtonU:

; 1017 : 		}
; 1018 : 
; 1019 : 		m_ptListPoints[m_nPontsCount] = CTool::GetPoints(point);		

  0006c	57		 push	 edi
  0006d	8d 45 bc	 lea	 eax, DWORD PTR $T2[ebp]
  00070	8b ce		 mov	 ecx, esi
  00072	50		 push	 eax
  00073	e8 00 00 00 00	 call	 ?GetPoints@CTool@@IBE?AVCPoints@@ABVCPoint@@@Z ; CTool::GetPoints
  00078	50		 push	 eax
  00079	8b 86 80 00 00
	00		 mov	 eax, DWORD PTR [esi+128]
  0007f	c7 45 fc 00 00
	00 00		 mov	 DWORD PTR __$EHRec$[ebp+8], 0
  00086	8d 04 80	 lea	 eax, DWORD PTR [eax+eax*4]
  00089	8d 40 11	 lea	 eax, DWORD PTR [eax+17]
  0008c	8d 0c c6	 lea	 ecx, DWORD PTR [esi+eax*8]
  0008f	e8 00 00 00 00	 call	 ??4CPoints@@QAEAAV0@ABV0@@Z ; CPoints::operator=
  00094	8d 4d d0	 lea	 ecx, DWORD PTR $T2[ebp+20]
  00097	c7 45 fc ff ff
	ff ff		 mov	 DWORD PTR __$EHRec$[ebp+8], -1
  0009e	ff 15 00 00 00
	00		 call	 DWORD PTR __imp_??1?$CStringT@DV?$StrTraitMFC_DLL@DV?$ChTraitsCRT@D@ATL@@@@@ATL@@QAE@XZ

; 1020 : 		CTool::MakeElement(m_ptListPoints[m_nPontsCount].GetDrawingPoint());

  000a4	8d 45 e4	 lea	 eax, DWORD PTR $T3[ebp]
  000a7	50		 push	 eax
  000a8	8b 86 80 00 00
	00		 mov	 eax, DWORD PTR [esi+128]
  000ae	8d 04 80	 lea	 eax, DWORD PTR [eax+eax*4]
  000b1	8d 40 11	 lea	 eax, DWORD PTR [eax+17]
  000b4	8d 0c c6	 lea	 ecx, DWORD PTR [esi+eax*8]
  000b7	e8 00 00 00 00	 call	 ?GetDrawingPoint@CPoints@@QBE?AVCPoint@@XZ ; CPoints::GetDrawingPoint
  000bc	50		 push	 eax
  000bd	8b ce		 mov	 ecx, esi
  000bf	e8 00 00 00 00	 call	 ?MakeElement@CTool@@IAEXABVCPoint@@@Z ; CTool::MakeElement

; 1021 : 		m_nPontsCount++;

  000c4	ff 86 80 00 00
	00		 inc	 DWORD PTR [esi+128]
$LN2@OnLButtonU:

; 1022 : 	}
; 1023 : 	
; 1024 : 	Initialize();
; 1025 : }

  000ca	8b 06		 mov	 eax, DWORD PTR [esi]
  000cc	8b ce		 mov	 ecx, esi
  000ce	ff 10		 call	 DWORD PTR [eax]
  000d0	8b 4d f4	 mov	 ecx, DWORD PTR __$EHRec$[ebp]
  000d3	64 89 0d 00 00
	00 00		 mov	 DWORD PTR fs:0, ecx
  000da	59		 pop	 ecx
  000db	5f		 pop	 edi
  000dc	5e		 pop	 esi
  000dd	8b e5		 mov	 esp, ebp
  000df	5d		 pop	 ebp
  000e0	c2 08 00	 ret	 8
_TEXT	ENDS
;	COMDAT text$x
text$x	SEGMENT
__unwindfunclet$?OnLButtonUp@CMultiPointDownTool@@UAEXPAVCDC@@ABVCPoint@@@Z$0:
  00000	8d 4d bc	 lea	 ecx, DWORD PTR $T2[ebp]
  00003	e9 00 00 00 00	 jmp	 ??1CPoints@@QAE@XZ
  00008	cc		 int	 3
  00009	cc		 int	 3
  0000a	cc		 int	 3
  0000b	cc		 int	 3
  0000c	cc		 int	 3
__ehhandler$?OnLButtonUp@CMultiPointDownTool@@UAEXPAVCDC@@ABVCPoint@@@Z:
  0000d	90		 npad	 1
  0000e	90		 npad	 1
  0000f	8b 54 24 08	 mov	 edx, DWORD PTR [esp+8]
  00013	8d 42 0c	 lea	 eax, DWORD PTR [edx+12]
  00016	8b 4a bc	 mov	 ecx, DWORD PTR [edx-68]
  00019	33 c8		 xor	 ecx, eax
  0001b	e8 00 00 00 00	 call	 @__security_check_cookie@4
  00020	b8 00 00 00 00	 mov	 eax, OFFSET __ehfuncinfo$?OnLButtonUp@CMultiPointDownTool@@UAEXPAVCDC@@ABVCPoint@@@Z
  00025	e9 00 00 00 00	 jmp	 ___CxxFrameHandler3
text$x	ENDS
?OnLButtonUp@CMultiPointDownTool@@UAEXPAVCDC@@ABVCPoint@@@Z ENDP ; CMultiPointDownTool::OnLButtonUp
; Function compile flags: /Ogtp
; File D:\git\src\IBK\IBK_DRFN\ProjSrc\SrcChartEx\ChartAddIn\ChartAnalysisToolAddIn\AnalysisTool\PointTool.cpp
;	COMDAT ?OnLButtonDown@CMultiPointDownTool@@UAEPAVCElement@@PAVCDC@@ABVCPoint@@@Z
_TEXT	SEGMENT
$T2 = -60						; size = 40
$T3 = -20						; size = 8
__$EHRec$ = -12						; size = 12
_pDC$ = 8						; size = 4
_point$ = 12						; size = 4
?OnLButtonDown@CMultiPointDownTool@@UAEPAVCElement@@PAVCDC@@ABVCPoint@@@Z PROC ; CMultiPointDownTool::OnLButtonDown, COMDAT
; _this$ = ecx

; 983  : {

  00000	55		 push	 ebp
  00001	8b ec		 mov	 ebp, esp
  00003	6a ff		 push	 -1
  00005	68 00 00 00 00	 push	 __ehhandler$?OnLButtonDown@CMultiPointDownTool@@UAEPAVCElement@@PAVCDC@@ABVCPoint@@@Z
  0000a	64 a1 00 00 00
	00		 mov	 eax, DWORD PTR fs:0
  00010	50		 push	 eax
  00011	83 ec 30	 sub	 esp, 48			; 00000030H
  00014	56		 push	 esi
  00015	57		 push	 edi
  00016	a1 00 00 00 00	 mov	 eax, DWORD PTR ___security_cookie
  0001b	33 c5		 xor	 eax, ebp
  0001d	50		 push	 eax
  0001e	8d 45 f4	 lea	 eax, DWORD PTR __$EHRec$[ebp]
  00021	64 a3 00 00 00
	00		 mov	 DWORD PTR fs:0, eax
  00027	8b f9		 mov	 edi, ecx

; 984  : 	if(PointInDrawingRegion(point))

  00029	8b 07		 mov	 eax, DWORD PTR [edi]
  0002b	8b 75 0c	 mov	 esi, DWORD PTR _point$[ebp]
  0002e	56		 push	 esi
  0002f	8b 40 1c	 mov	 eax, DWORD PTR [eax+28]
  00032	ff d0		 call	 eax
  00034	84 c0		 test	 al, al
  00036	74 3e		 je	 SHORT $LN2@OnLButtonD

; 985  : 	{
; 986  : 		m_ptListPoints[m_nPontsCount] = CTool::GetPoints(point);

  00038	56		 push	 esi
  00039	8d 45 c4	 lea	 eax, DWORD PTR $T2[ebp]
  0003c	8b cf		 mov	 ecx, edi
  0003e	50		 push	 eax
  0003f	e8 00 00 00 00	 call	 ?GetPoints@CTool@@IBE?AVCPoints@@ABVCPoint@@@Z ; CTool::GetPoints
  00044	50		 push	 eax
  00045	8b 87 80 00 00
	00		 mov	 eax, DWORD PTR [edi+128]
  0004b	c7 45 fc 00 00
	00 00		 mov	 DWORD PTR __$EHRec$[ebp+8], 0
  00052	8d 04 80	 lea	 eax, DWORD PTR [eax+eax*4]
  00055	8d 40 11	 lea	 eax, DWORD PTR [eax+17]
  00058	8d 0c c7	 lea	 ecx, DWORD PTR [edi+eax*8]
  0005b	e8 00 00 00 00	 call	 ??4CPoints@@QAEAAV0@ABV0@@Z ; CPoints::operator=
  00060	8d 4d d8	 lea	 ecx, DWORD PTR $T2[ebp+20]
  00063	c7 45 fc ff ff
	ff ff		 mov	 DWORD PTR __$EHRec$[ebp+8], -1
  0006a	ff 15 00 00 00
	00		 call	 DWORD PTR __imp_??1?$CStringT@DV?$StrTraitMFC_DLL@DV?$ChTraitsCRT@D@ATL@@@@@ATL@@QAE@XZ

; 987  : 		m_nPontsCount++;

  00070	ff 87 80 00 00
	00		 inc	 DWORD PTR [edi+128]
$LN2@OnLButtonD:

; 988  : 	}
; 989  : 
; 990  : 	return CDownTool::OnLButtonDown(pDC, CTool::GetDrawingPointAndSetDataType(point));

  00076	56		 push	 esi
  00077	8d 45 ec	 lea	 eax, DWORD PTR $T3[ebp]
  0007a	8b cf		 mov	 ecx, edi
  0007c	50		 push	 eax
  0007d	e8 00 00 00 00	 call	 ?GetDrawingPointAndSetDataType@CTool@@IAE?AVCPoint@@ABV2@@Z ; CTool::GetDrawingPointAndSetDataType

; 391  : 	CTool::SetProcessStarting(true);

  00082	6a 01		 push	 1
  00084	8b cf		 mov	 ecx, edi

; 988  : 	}
; 989  : 
; 990  : 	return CDownTool::OnLButtonDown(pDC, CTool::GetDrawingPointAndSetDataType(point));

  00086	8b f0		 mov	 esi, eax

; 391  : 	CTool::SetProcessStarting(true);

  00088	e8 00 00 00 00	 call	 ?SetProcessStarting@CTool@@QAEX_N@Z ; CTool::SetProcessStarting

; 392  : 	CTool::SetDrawingRegions(point);

  0008d	56		 push	 esi
  0008e	8b cf		 mov	 ecx, edi
  00090	e8 00 00 00 00	 call	 ?SetDrawingRegions@CTool@@IAEXABVCPoint@@@Z ; CTool::SetDrawingRegions

; 393  : 	if(GetToolType() != CAnalysis::EN_ANALYSIS_DOWN_CROSS)

  00095	8b 07		 mov	 eax, DWORD PTR [edi]
  00097	8b cf		 mov	 ecx, edi
  00099	ff 50 24	 call	 DWORD PTR [eax+36]
  0009c	83 f8 02	 cmp	 eax, 2
  0009f	74 09		 je	 SHORT $LN14@OnLButtonD

; 394  : 		CTool::ChangeCursor(CToolEnumData::DRAW_PEN);

  000a1	6a 01		 push	 1
  000a3	8b cf		 mov	 ecx, edi
  000a5	e8 00 00 00 00	 call	 ?ChangeCursor@CTool@@IAEXW4DrawType@CToolEnumData@@@Z ; CTool::ChangeCursor
$LN14@OnLButtonD:

; 991  : }

  000aa	33 c0		 xor	 eax, eax
  000ac	8b 4d f4	 mov	 ecx, DWORD PTR __$EHRec$[ebp]
  000af	64 89 0d 00 00
	00 00		 mov	 DWORD PTR fs:0, ecx
  000b6	59		 pop	 ecx
  000b7	5f		 pop	 edi
  000b8	5e		 pop	 esi
  000b9	8b e5		 mov	 esp, ebp
  000bb	5d		 pop	 ebp
  000bc	c2 08 00	 ret	 8
_TEXT	ENDS
;	COMDAT text$x
text$x	SEGMENT
__unwindfunclet$?OnLButtonDown@CMultiPointDownTool@@UAEPAVCElement@@PAVCDC@@ABVCPoint@@@Z$0:
  00000	8d 4d c4	 lea	 ecx, DWORD PTR $T2[ebp]
  00003	e9 00 00 00 00	 jmp	 ??1CPoints@@QAE@XZ
  00008	cc		 int	 3
  00009	cc		 int	 3
  0000a	cc		 int	 3
  0000b	cc		 int	 3
  0000c	cc		 int	 3
__ehhandler$?OnLButtonDown@CMultiPointDownTool@@UAEPAVCElement@@PAVCDC@@ABVCPoint@@@Z:
  0000d	90		 npad	 1
  0000e	90		 npad	 1
  0000f	8b 54 24 08	 mov	 edx, DWORD PTR [esp+8]
  00013	8d 42 0c	 lea	 eax, DWORD PTR [edx+12]
  00016	8b 4a c4	 mov	 ecx, DWORD PTR [edx-60]
  00019	33 c8		 xor	 ecx, eax
  0001b	e8 00 00 00 00	 call	 @__security_check_cookie@4
  00020	b8 00 00 00 00	 mov	 eax, OFFSET __ehfuncinfo$?OnLButtonDown@CMultiPointDownTool@@UAEPAVCElement@@PAVCDC@@ABVCPoint@@@Z
  00025	e9 00 00 00 00	 jmp	 ___CxxFrameHandler3
text$x	ENDS
?OnLButtonDown@CMultiPointDownTool@@UAEPAVCElement@@PAVCDC@@ABVCPoint@@@Z ENDP ; CMultiPointDownTool::OnLButtonDown
; Function compile flags: /Ogtp
; File D:\git\src\IBK\IBK_DRFN\ProjSrc\SrcChartEx\ChartAddIn\ChartAnalysisToolAddIn\AnalysisTool\PointTool.cpp
;	COMDAT ?Initialize@CMultiPointDownTool@@UAEXXZ
_TEXT	SEGMENT
$T1 = -4						; size = 1
?Initialize@CMultiPointDownTool@@UAEXXZ PROC		; CMultiPointDownTool::Initialize, COMDAT
; _this$ = ecx

; 976  : {

  00000	55		 push	 ebp
  00001	8b ec		 mov	 ebp, esp
  00003	51		 push	 ecx
  00004	56		 push	 esi
  00005	8b f1		 mov	 esi, ecx

; 381  : 	CTool::Initialize();

  00007	e8 00 00 00 00	 call	 ?Initialize@CTool@@UAEXXZ ; CTool::Initialize

; 382  : 	if(GetToolType() == CAnalysis::EN_ANALYSIS_DOWN_CROSS)

  0000c	8b 06		 mov	 eax, DWORD PTR [esi]
  0000e	8b ce		 mov	 ecx, esi
  00010	ff 50 24	 call	 DWORD PTR [eax+36]
  00013	83 f8 02	 cmp	 eax, 2

; 977  : 	CDownTool::Initialize();
; 978  : 	m_nPontsCount = 0;	

  00016	8b ce		 mov	 ecx, esi

; 382  : 	if(GetToolType() == CAnalysis::EN_ANALYSIS_DOWN_CROSS)

  00018	0f 94 45 fc	 sete	 BYTE PTR $T1[ebp]

; 977  : 	CDownTool::Initialize();
; 978  : 	m_nPontsCount = 0;	

  0001c	ff 75 fc	 push	 DWORD PTR $T1[ebp]
  0001f	e8 00 00 00 00	 call	 ?SetProcessStarting@CTool@@QAEX_N@Z ; CTool::SetProcessStarting
  00024	c7 86 80 00 00
	00 00 00 00 00	 mov	 DWORD PTR [esi+128], 0
  0002e	5e		 pop	 esi

; 979  : }

  0002f	8b e5		 mov	 esp, ebp
  00031	5d		 pop	 ebp
  00032	c3		 ret	 0
?Initialize@CMultiPointDownTool@@UAEXXZ ENDP		; CMultiPointDownTool::Initialize
_TEXT	ENDS
; Function compile flags: /Ogtp
; File D:\git\src\IBK\IBK_DRFN\ProjSrc\SrcChartEx\ChartAddIn\ChartAnalysisToolAddIn\AnalysisTool\PointTool.cpp
; File C:\Program Files (x86)\Microsoft Visual Studio\2019\Community\VC\Tools\MSVC\14.29.30133\atlmfc\include\atltypes.h
; File D:\git\src\IBK\IBK_DRFN\ProjSrc\SrcChartEx\ChartAddIn\ChartAnalysisToolAddIn\AnalysisTool\PointTool.cpp
;	COMDAT ??0CMultiPointDownTool@@IAE@PAVCAnalysisData@@W4COORDINATETYPE@CAnalysis@@@Z
_TEXT	SEGMENT
_this$ = -16						; size = 4
__$EHRec$ = -12						; size = 12
_pAnalysisData$ = 8					; size = 4
_eCoordinateType$ = 12					; size = 4
??0CMultiPointDownTool@@IAE@PAVCAnalysisData@@W4COORDINATETYPE@CAnalysis@@@Z PROC ; CMultiPointDownTool::CMultiPointDownTool, COMDAT
; _this$ = ecx

; 968  : {

  00000	55		 push	 ebp
  00001	8b ec		 mov	 ebp, esp
  00003	6a ff		 push	 -1
  00005	68 00 00 00 00	 push	 __ehhandler$??0CMultiPointDownTool@@IAE@PAVCAnalysisData@@W4COORDINATETYPE@CAnalysis@@@Z
  0000a	64 a1 00 00 00
	00		 mov	 eax, DWORD PTR fs:0
  00010	50		 push	 eax
  00011	51		 push	 ecx
  00012	56		 push	 esi
  00013	a1 00 00 00 00	 mov	 eax, DWORD PTR ___security_cookie
  00018	33 c5		 xor	 eax, ebp
  0001a	50		 push	 eax
  0001b	8d 45 f4	 lea	 eax, DWORD PTR __$EHRec$[ebp]
  0001e	64 a3 00 00 00
	00		 mov	 DWORD PTR fs:0, eax
  00024	8b f1		 mov	 esi, ecx
  00026	89 75 f0	 mov	 DWORD PTR _this$[ebp], esi

; 371  : 	CTool(pAnalysisData, eCoordinateType)

  00029	ff 75 0c	 push	 DWORD PTR _eCoordinateType$[ebp]
  0002c	ff 75 08	 push	 DWORD PTR _pAnalysisData$[ebp]
  0002f	e8 00 00 00 00	 call	 ??0CTool@@IAE@PAVCAnalysisData@@W4COORDINATETYPE@CAnalysis@@@Z ; CTool::CTool

; 372  : {	

  00034	c7 06 00 00 00
	00		 mov	 DWORD PTR [esi], OFFSET ??_7CDownTool@@6B@

; 373  : 	CTool::Initialize();

  0003a	8b ce		 mov	 ecx, esi
  0003c	c7 45 fc 00 00
	00 00		 mov	 DWORD PTR __$EHRec$[ebp+8], 0
; File C:\Program Files (x86)\Microsoft Visual Studio\2019\Community\VC\Tools\MSVC\14.29.30133\atlmfc\include\atltypes.h

; 400  : 	x = 0;

  00043	c7 46 78 00 00
	00 00		 mov	 DWORD PTR [esi+120], 0

; 401  : 	y = 0;

  0004a	c7 46 7c 00 00
	00 00		 mov	 DWORD PTR [esi+124], 0
; File D:\git\src\IBK\IBK_DRFN\ProjSrc\SrcChartEx\ChartAddIn\ChartAnalysisToolAddIn\AnalysisTool\PointTool.cpp

; 373  : 	CTool::Initialize();

  00051	e8 00 00 00 00	 call	 ?Initialize@CTool@@UAEXXZ ; CTool::Initialize

; 374  : 	CTool::SetProcessStarting(false);

  00056	6a 00		 push	 0
  00058	8b ce		 mov	 ecx, esi
  0005a	e8 00 00 00 00	 call	 ?SetProcessStarting@CTool@@QAEX_N@Z ; CTool::SetProcessStarting

; 968  : {

  0005f	68 00 00 00 00	 push	 OFFSET ??1CPoints@@QAE@XZ
  00064	68 00 00 00 00	 push	 OFFSET ??0CPoints@@QAE@XZ ; CPoints::CPoints
  00069	68 f4 01 00 00	 push	 500			; 000001f4H
  0006e	6a 28		 push	 40			; 00000028H
  00070	8d 86 88 00 00
	00		 lea	 eax, DWORD PTR [esi+136]
  00076	c7 45 fc 01 00
	00 00		 mov	 DWORD PTR __$EHRec$[ebp+8], 1
  0007d	50		 push	 eax
  0007e	c7 06 00 00 00
	00		 mov	 DWORD PTR [esi], OFFSET ??_7CMultiPointDownTool@@6B@
  00084	e8 00 00 00 00	 call	 ??_L@YGXPAXIIP6EX0@Z1@Z

; 969  : 	CTool::Initialize();

  00089	8b ce		 mov	 ecx, esi
  0008b	c6 45 fc 02	 mov	 BYTE PTR __$EHRec$[ebp+8], 2
  0008f	e8 00 00 00 00	 call	 ?Initialize@CTool@@UAEXXZ ; CTool::Initialize

; 970  : 	CTool::SetProcessStarting(false);

  00094	6a 00		 push	 0
  00096	8b ce		 mov	 ecx, esi
  00098	e8 00 00 00 00	 call	 ?SetProcessStarting@CTool@@QAEX_N@Z ; CTool::SetProcessStarting

; 971  : }

  0009d	8b c6		 mov	 eax, esi
  0009f	8b 4d f4	 mov	 ecx, DWORD PTR __$EHRec$[ebp]
  000a2	64 89 0d 00 00
	00 00		 mov	 DWORD PTR fs:0, ecx
  000a9	59		 pop	 ecx
  000aa	5e		 pop	 esi
  000ab	8b e5		 mov	 esp, ebp
  000ad	5d		 pop	 ebp
  000ae	c2 08 00	 ret	 8
_TEXT	ENDS
;	COMDAT text$x
text$x	SEGMENT
__unwindfunclet$??0CMultiPointDownTool@@IAE@PAVCAnalysisData@@W4COORDINATETYPE@CAnalysis@@@Z$2:
  00000	8b 4d f0	 mov	 ecx, DWORD PTR _this$[ebp]
  00003	e9 00 00 00 00	 jmp	 ??1CTool@@QAE@XZ
__unwindfunclet$??0CMultiPointDownTool@@IAE@PAVCAnalysisData@@W4COORDINATETYPE@CAnalysis@@@Z$0:
  00008	8b 4d f0	 mov	 ecx, DWORD PTR _this$[ebp]
  0000b	e9 00 00 00 00	 jmp	 ??1CDownTool@@QAE@XZ
__unwindfunclet$??0CMultiPointDownTool@@IAE@PAVCAnalysisData@@W4COORDINATETYPE@CAnalysis@@@Z$1:
  00010	68 00 00 00 00	 push	 OFFSET ??1CPoints@@QAE@XZ
  00015	68 f4 01 00 00	 push	 500			; 000001f4H
  0001a	6a 28		 push	 40			; 00000028H
  0001c	8b 45 f0	 mov	 eax, DWORD PTR _this$[ebp]
  0001f	05 88 00 00 00	 add	 eax, 136		; 00000088H
  00024	50		 push	 eax
  00025	e8 00 00 00 00	 call	 ??_M@YGXPAXIIP6EX0@Z@Z
  0002a	c3		 ret	 0
  0002b	cc		 int	 3
  0002c	cc		 int	 3
  0002d	cc		 int	 3
  0002e	cc		 int	 3
  0002f	cc		 int	 3
__ehhandler$??0CMultiPointDownTool@@IAE@PAVCAnalysisData@@W4COORDINATETYPE@CAnalysis@@@Z:
  00030	90		 npad	 1
  00031	90		 npad	 1
  00032	8b 54 24 08	 mov	 edx, DWORD PTR [esp+8]
  00036	8d 42 0c	 lea	 eax, DWORD PTR [edx+12]
  00039	8b 4a f4	 mov	 ecx, DWORD PTR [edx-12]
  0003c	33 c8		 xor	 ecx, eax
  0003e	e8 00 00 00 00	 call	 @__security_check_cookie@4
  00043	b8 00 00 00 00	 mov	 eax, OFFSET __ehfuncinfo$??0CMultiPointDownTool@@IAE@PAVCAnalysisData@@W4COORDINATETYPE@CAnalysis@@@Z
  00048	e9 00 00 00 00	 jmp	 ___CxxFrameHandler3
text$x	ENDS
??0CMultiPointDownTool@@IAE@PAVCAnalysisData@@W4COORDINATETYPE@CAnalysis@@@Z ENDP ; CMultiPointDownTool::CMultiPointDownTool
; Function compile flags: /Ogtp
; File D:\git\src\IBK\IBK_DRFN\ProjSrc\SrcChartEx\ChartAddIn\ChartAnalysisToolAddIn\AnalysisTool\PointTool.cpp
; File D:\git\src\IBK\IBK_DRFN\ProjSrc\SrcChartEx\ChartAddIn\ChartAnalysisToolAddIn\Include_AddIn_133101\I133101\_IString.h
; File D:\git\src\IBK\IBK_DRFN\ProjSrc\SrcChartEx\ChartAddIn\ChartAnalysisToolAddIn\AnalysisTool\PointTool.cpp
; File D:\git\src\IBK\IBK_DRFN\ProjSrc\SrcChartEx\ChartAddIn\ChartAnalysisToolAddIn\Include_AddIn_133101\I133101\_IString.h
; File D:\git\src\IBK\IBK_DRFN\ProjSrc\SrcChartEx\ChartAddIn\ChartAnalysisToolAddIn\AnalysisTool\PointTool.cpp
; File D:\git\src\IBK\IBK_DRFN\ProjSrc\SrcChartEx\ChartAddIn\ChartAnalysisToolAddIn\Include_AddIn_133101\I133101\_IString.h
; File D:\git\src\IBK\IBK_DRFN\ProjSrc\SrcChartEx\ChartAddIn\ChartAnalysisToolAddIn\AnalysisTool\PointTool.cpp
; File D:\git\src\IBK\IBK_DRFN\ProjSrc\SrcChartEx\ChartAddIn\ChartAnalysisToolAddIn\Include_AddIn_133101\I133101\_IString.h
; File D:\git\src\IBK\IBK_DRFN\ProjSrc\SrcChartEx\ChartAddIn\ChartAnalysisToolAddIn\AnalysisTool\PointTool.cpp
;	COMDAT ?GetThreePointDrawingData@CThreePointDownTool@@ABE?AVCThreePointDrawingData@@XZ
_TEXT	SEGMENT
$T2 = -324						; size = 72
$T3 = -252						; size = 72
$T4 = -180						; size = 8
$T5 = -172						; size = 8
$T6 = -172						; size = 8
_szRQ$ = -164						; size = 8
___$ReturnUdt$GSCopy$1$ = -156				; size = 4
_this$GSCopy$1$ = -152					; size = 4
$T7 = -146						; size = 2
_szHelpMsg$ = -144					; size = 8
___$ReturnUdt$GSCopy$ = -136				; size = 4
_strPacketType$ = -136					; size = 4
_strDataType$ = -132					; size = 4
_calData$ = -128					; size = 96
$T8 = -32						; size = 16
__$ArrayPad$ = -16					; size = 4
__$EHRec$ = -12						; size = 12
___$ReturnUdt$ = 8					; size = 4
?GetThreePointDrawingData@CThreePointDownTool@@ABE?AVCThreePointDrawingData@@XZ PROC ; CThreePointDownTool::GetThreePointDrawingData, COMDAT
; _this$ = ecx

; 934  : {

  00000	55		 push	 ebp
  00001	8b ec		 mov	 ebp, esp
  00003	6a ff		 push	 -1
  00005	68 00 00 00 00	 push	 __ehhandler$?GetThreePointDrawingData@CThreePointDownTool@@ABE?AVCThreePointDrawingData@@XZ
  0000a	64 a1 00 00 00
	00		 mov	 eax, DWORD PTR fs:0
  00010	50		 push	 eax
  00011	81 ec 38 01 00
	00		 sub	 esp, 312		; 00000138H
  00017	a1 00 00 00 00	 mov	 eax, DWORD PTR ___security_cookie
  0001c	33 c5		 xor	 eax, ebp
  0001e	89 45 f0	 mov	 DWORD PTR __$ArrayPad$[ebp], eax
  00021	53		 push	 ebx
  00022	56		 push	 esi
  00023	57		 push	 edi
  00024	50		 push	 eax
  00025	8d 45 f4	 lea	 eax, DWORD PTR __$EHRec$[ebp]
  00028	64 a3 00 00 00
	00		 mov	 DWORD PTR fs:0, eax
  0002e	8b d9		 mov	 ebx, ecx
  00030	89 9d 68 ff ff
	ff		 mov	 DWORD PTR _this$GSCopy$1$[ebp], ebx
  00036	8b 45 08	 mov	 eax, DWORD PTR ___$ReturnUdt$[ebp]
  00039	89 85 78 ff ff
	ff		 mov	 DWORD PTR ___$ReturnUdt$GSCopy$[ebp], eax
  0003f	89 85 64 ff ff
	ff		 mov	 DWORD PTR ___$ReturnUdt$GSCopy$1$[ebp], eax
; File D:\git\src\IBK\IBK_DRFN\ProjSrc\SrcChartEx\ChartAddIn\ChartAnalysisToolAddIn\Include_AddIn_133101\I133101\_IString.h

; 39   : 		m_pIStrData = p_pIString;	// Do not AddRef(). Because It must be Return Value.

  00045	c7 85 74 ff ff
	ff 00 00 00 00	 mov	 DWORD PTR _szHelpMsg$[ebp+4], 0

; 41   : 		else m_szData = NULL;

  0004f	c7 85 70 ff ff
	ff 00 00 00 00	 mov	 DWORD PTR _szHelpMsg$[ebp], 0
; File D:\git\src\IBK\IBK_DRFN\ProjSrc\SrcChartEx\ChartAddIn\ChartAnalysisToolAddIn\AnalysisTool\PointTool.cpp

; 945  : 	CString strDataType, strPacketType;	

  00059	8d 8d 7c ff ff
	ff		 lea	 ecx, DWORD PTR _strDataType$[ebp]
  0005f	c7 45 fc 00 00
	00 00		 mov	 DWORD PTR __$EHRec$[ebp+8], 0
  00066	ff 15 00 00 00
	00		 call	 DWORD PTR __imp_??0?$CStringT@DV?$StrTraitMFC_DLL@DV?$ChTraitsCRT@D@ATL@@@@@ATL@@QAE@XZ
  0006c	8d 8d 78 ff ff
	ff		 lea	 ecx, DWORD PTR _strPacketType$[ebp]
  00072	ff 15 00 00 00
	00		 call	 DWORD PTR __imp_??0?$CStringT@DV?$StrTraitMFC_DLL@DV?$ChTraitsCRT@D@ATL@@@@@ATL@@QAE@XZ

; 946  : 	CCoordinateCalculatorData calData = GetCoordinateCalculatorData( m_points1.GetDrawingPoint());

  00078	8d 8d 54 ff ff
	ff		 lea	 ecx, DWORD PTR $T6[ebp]
  0007e	c6 45 fc 02	 mov	 BYTE PTR __$EHRec$[ebp+8], 2
  00082	51		 push	 ecx
  00083	8d 8b 88 00 00
	00		 lea	 ecx, DWORD PTR [ebx+136]
  00089	e8 00 00 00 00	 call	 ?GetDrawingPoint@CPoints@@QBE?AVCPoint@@XZ ; CPoints::GetDrawingPoint
  0008e	50		 push	 eax
  0008f	8d 45 80	 lea	 eax, DWORD PTR _calData$[ebp]
  00092	8b cb		 mov	 ecx, ebx
  00094	50		 push	 eax
  00095	e8 00 00 00 00	 call	 ?GetCoordinateCalculatorData@CTool@@QBE?AVCCoordinateCalculatorData@@ABVCPoint@@@Z ; CTool::GetCoordinateCalculatorData

; 947  : 	ILPCSTR szRQ = calData.m_pIChartOCX->GetCurrentRQ();

  0009a	8b 4d cc	 mov	 ecx, DWORD PTR _calData$[ebp+76]
  0009d	c6 45 fc 03	 mov	 BYTE PTR __$EHRec$[ebp+8], 3
  000a1	8b 01		 mov	 eax, DWORD PTR [ecx]
  000a3	ff 90 40 02 00
	00		 call	 DWORD PTR [eax+576]
; File D:\git\src\IBK\IBK_DRFN\ProjSrc\SrcChartEx\ChartAddIn\ChartAnalysisToolAddIn\Include_AddIn_133101\I133101\_IString.h

; 39   : 		m_pIStrData = p_pIString;	// Do not AddRef(). Because It must be Return Value.

  000a9	8b c8		 mov	 ecx, eax
  000ab	89 8d 60 ff ff
	ff		 mov	 DWORD PTR _szRQ$[ebp+4], ecx

; 40   : 		if( m_pIStrData) m_szData = m_pIStrData->GetData();

  000b1	85 c9		 test	 ecx, ecx
  000b3	74 09		 je	 SHORT $LN17@GetThreePo
  000b5	8b 01		 mov	 eax, DWORD PTR [ecx]
  000b7	ff 50 10	 call	 DWORD PTR [eax+16]
  000ba	8b d0		 mov	 edx, eax
  000bc	eb 02		 jmp	 SHORT $LN44@GetThreePo
$LN17@GetThreePo:

; 41   : 		else m_szData = NULL;

  000be	33 d2		 xor	 edx, edx
$LN44@GetThreePo:
; File D:\git\src\IBK\IBK_DRFN\ProjSrc\SrcChartEx\ChartAddIn\ChartAnalysisToolAddIn\AnalysisTool\PointTool.cpp

; 947  : 	ILPCSTR szRQ = calData.m_pIChartOCX->GetCurrentRQ();

  000c0	89 95 5c ff ff
	ff		 mov	 DWORD PTR _szRQ$[ebp], edx

; 948  : 	IPacketManager * pCurPacketManager = calData.m_pIPacketListManager->GetPacketManager(szRQ);

  000c6	8b 4d d0	 mov	 ecx, DWORD PTR _calData$[ebp+80]
  000c9	52		 push	 edx
  000ca	c6 45 fc 04	 mov	 BYTE PTR __$EHRec$[ebp+8], 4
  000ce	8b 01		 mov	 eax, DWORD PTR [ecx]
  000d0	ff 50 10	 call	 DWORD PTR [eax+16]
  000d3	8b f0		 mov	 esi, eax

; 949  : 	pCurPacketManager->GetHelpMessageItem("UD", szHelpMsg); strDataType = szHelpMsg;

  000d5	8d 8d 70 ff ff
	ff		 lea	 ecx, DWORD PTR _szHelpMsg$[ebp]
  000db	51		 push	 ecx
  000dc	68 00 00 00 00	 push	 OFFSET ??_C@_02PONMEALH@UD@
  000e1	8b ce		 mov	 ecx, esi
  000e3	8b 06		 mov	 eax, DWORD PTR [esi]
  000e5	ff 50 18	 call	 DWORD PTR [eax+24]
  000e8	ff b5 70 ff ff
	ff		 push	 DWORD PTR _szHelpMsg$[ebp]
  000ee	8d 8d 7c ff ff
	ff		 lea	 ecx, DWORD PTR _strDataType$[ebp]
  000f4	ff 15 00 00 00
	00		 call	 DWORD PTR __imp_??4?$CStringT@DV?$StrTraitMFC_DLL@DV?$ChTraitsCRT@D@ATL@@@@@ATL@@QAEAAV01@PBD@Z

; 950  : 	pCurPacketManager->GetHelpMessageItem("RDATET", szHelpMsg); strPacketType = szHelpMsg;

  000fa	8b 06		 mov	 eax, DWORD PTR [esi]
  000fc	8d 8d 70 ff ff
	ff		 lea	 ecx, DWORD PTR _szHelpMsg$[ebp]
  00102	51		 push	 ecx
  00103	68 00 00 00 00	 push	 OFFSET ??_C@_06MLGKKOBC@RDATET@
  00108	8b ce		 mov	 ecx, esi
  0010a	ff 50 18	 call	 DWORD PTR [eax+24]
  0010d	ff b5 70 ff ff
	ff		 push	 DWORD PTR _szHelpMsg$[ebp]
  00113	8d 8d 78 ff ff
	ff		 lea	 ecx, DWORD PTR _strPacketType$[ebp]
  00119	ff 15 00 00 00
	00		 call	 DWORD PTR __imp_??4?$CStringT@DV?$StrTraitMFC_DLL@DV?$ChTraitsCRT@D@ATL@@@@@ATL@@QAEAAV01@PBD@Z

; 951  : 	CScaleBaseData::HORZSCALEDRAWERTYPE eDateUnit = (CScaleBaseData::HORZSCALEDRAWERTYPE)atoi(strDataType);

  0011f	ff b5 7c ff ff
	ff		 push	 DWORD PTR _strDataType$[ebp]
  00125	ff 15 00 00 00
	00		 call	 DWORD PTR __imp__atoi
  0012b	83 c4 04	 add	 esp, 4
  0012e	8b f0		 mov	 esi, eax

; 953  : 	return CThreePointDrawingData(CTool::GetElementCommonEnvironment().GetDataType(), 

  00130	8d 85 bc fe ff
	ff		 lea	 eax, DWORD PTR $T2[ebp]
  00136	8b cb		 mov	 ecx, ebx
  00138	50		 push	 eax
  00139	e8 00 00 00 00	 call	 ?GetElementCommonEnvironment@CTool@@IBE?AVCElementCommonEnvironment@@XZ ; CTool::GetElementCommonEnvironment
  0013e	8b f8		 mov	 edi, eax
  00140	8d 85 04 ff ff
	ff		 lea	 eax, DWORD PTR $T3[ebp]
  00146	c6 45 fc 05	 mov	 BYTE PTR __$EHRec$[ebp+8], 5
  0014a	50		 push	 eax
  0014b	8b cb		 mov	 ecx, ebx
  0014d	e8 00 00 00 00	 call	 ?GetElementCommonEnvironment@CTool@@IBE?AVCElementCommonEnvironment@@XZ ; CTool::GetElementCommonEnvironment
  00152	8b d8		 mov	 ebx, eax
  00154	56		 push	 esi
  00155	8b b5 68 ff ff
	ff		 mov	 esi, DWORD PTR _this$GSCopy$1$[ebp]
  0015b	c6 45 fc 06	 mov	 BYTE PTR __$EHRec$[ebp+8], 6
  0015f	8d 86 d8 00 00
	00		 lea	 eax, DWORD PTR [esi+216]
  00165	50		 push	 eax
  00166	8d 86 b0 00 00
	00		 lea	 eax, DWORD PTR [esi+176]
  0016c	50		 push	 eax
  0016d	8d 8e 88 00 00
	00		 lea	 ecx, DWORD PTR [esi+136]
  00173	51		 push	 ecx
  00174	ff b6 80 00 00
	00		 push	 DWORD PTR [esi+128]
  0017a	8d 85 54 ff ff
	ff		 lea	 eax, DWORD PTR $T5[ebp]
  00180	50		 push	 eax
  00181	e8 00 00 00 00	 call	 ?GetDrawingPoint@CPoints@@QBE?AVCPoint@@XZ ; CPoints::GetDrawingPoint
  00186	50		 push	 eax
  00187	8d 85 6e ff ff
	ff		 lea	 eax, DWORD PTR $T7[ebp]
  0018d	8b ce		 mov	 ecx, esi
  0018f	50		 push	 eax
  00190	e8 00 00 00 00	 call	 ?GetVertScaleType@CTool@@IBE?AVCVertScaleType@@ABVCPoint@@@Z ; CTool::GetVertScaleType
  00195	50		 push	 eax
  00196	8d 85 4c ff ff
	ff		 lea	 eax, DWORD PTR $T4[ebp]
  0019c	8b ce		 mov	 ecx, esi
  0019e	50		 push	 eax
  0019f	e8 00 00 00 00	 call	 ?GetDisplayAttributes@CTool@@IBE?AVCDisplayAttributes@@XZ ; CTool::GetDisplayAttributes
  001a4	50		 push	 eax
  001a5	8d 45 e0	 lea	 eax, DWORD PTR $T8[ebp]
  001a8	8b ce		 mov	 ecx, esi
  001aa	50		 push	 eax
  001ab	e8 00 00 00 00	 call	 ?GetDrawingRegions@CTool@@IBEABVCDrawingRegions@@XZ ; CTool::GetDrawingRegions
  001b0	8b c8		 mov	 ecx, eax
  001b2	e8 00 00 00 00	 call	 ?GetCurrentFullGraphRegion@CDrawingRegions@@QBE?AVCRect@@XZ ; CDrawingRegions::GetCurrentFullGraphRegion
  001b7	50		 push	 eax
  001b8	8b cf		 mov	 ecx, edi
  001ba	e8 00 00 00 00	 call	 ?GetLineExt@CElementCommonEnvironment@@QAEAAVCLineExtEnvironment@@XZ ; CElementCommonEnvironment::GetLineExt
  001bf	50		 push	 eax
  001c0	8b 06		 mov	 eax, DWORD PTR [esi]
  001c2	8b ce		 mov	 ecx, esi
  001c4	ff 50 2c	 call	 DWORD PTR [eax+44]
  001c7	50		 push	 eax
  001c8	8b cb		 mov	 ecx, ebx
  001ca	e8 00 00 00 00	 call	 ?GetDataType@CElementCommonEnvironment@@QAEAAVCDataTypeEnvironment@@XZ ; CElementCommonEnvironment::GetDataType
  001cf	8b b5 64 ff ff
	ff		 mov	 esi, DWORD PTR ___$ReturnUdt$GSCopy$1$[ebp]
  001d5	8b ce		 mov	 ecx, esi
  001d7	50		 push	 eax
  001d8	e8 00 00 00 00	 call	 ??0CThreePointDrawingData@@QAE@ABVCDataTypeEnvironment@@PAVCTextPosition@@PAVCLineExtEnvironment@@ABVCRect@@ABVCDisplayAttributes@@ABVCVertScaleType@@HABVCPoints@@66W4HORZSCALEDRAWERTYPE@CScaleBaseData@@@Z ; CThreePointDrawingData::CThreePointDrawingData
  001dd	8d 8d 3c ff ff
	ff		 lea	 ecx, DWORD PTR $T3[ebp+56]
  001e3	ff 15 00 00 00
	00		 call	 DWORD PTR __imp_??1?$CStringT@DV?$StrTraitMFC_DLL@DV?$ChTraitsCRT@D@ATL@@@@@ATL@@QAE@XZ
  001e9	8d 8d 38 ff ff
	ff		 lea	 ecx, DWORD PTR $T3[ebp+52]
  001ef	ff 15 00 00 00
	00		 call	 DWORD PTR __imp_??1?$CStringT@DV?$StrTraitMFC_DLL@DV?$ChTraitsCRT@D@ATL@@@@@ATL@@QAE@XZ
  001f5	8d 8d 34 ff ff
	ff		 lea	 ecx, DWORD PTR $T3[ebp+48]
  001fb	ff 15 00 00 00
	00		 call	 DWORD PTR __imp_??1?$CStringT@DV?$StrTraitMFC_DLL@DV?$ChTraitsCRT@D@ATL@@@@@ATL@@QAE@XZ
  00201	8d 8d f4 fe ff
	ff		 lea	 ecx, DWORD PTR $T2[ebp+56]
  00207	ff 15 00 00 00
	00		 call	 DWORD PTR __imp_??1?$CStringT@DV?$StrTraitMFC_DLL@DV?$ChTraitsCRT@D@ATL@@@@@ATL@@QAE@XZ
  0020d	8d 8d f0 fe ff
	ff		 lea	 ecx, DWORD PTR $T2[ebp+52]
  00213	ff 15 00 00 00
	00		 call	 DWORD PTR __imp_??1?$CStringT@DV?$StrTraitMFC_DLL@DV?$ChTraitsCRT@D@ATL@@@@@ATL@@QAE@XZ
  00219	8d 8d ec fe ff
	ff		 lea	 ecx, DWORD PTR $T2[ebp+48]
  0021f	ff 15 00 00 00
	00		 call	 DWORD PTR __imp_??1?$CStringT@DV?$StrTraitMFC_DLL@DV?$ChTraitsCRT@D@ATL@@@@@ATL@@QAE@XZ
; File D:\git\src\IBK\IBK_DRFN\ProjSrc\SrcChartEx\ChartAddIn\ChartAnalysisToolAddIn\Include_AddIn_133101\I133101\_IString.h

; 45   : 		if( m_pIStrData)

  00225	8b 8d 60 ff ff
	ff		 mov	 ecx, DWORD PTR _szRQ$[ebp+4]
  0022b	c6 45 fc 07	 mov	 BYTE PTR __$EHRec$[ebp+8], 7
  0022f	85 c9		 test	 ecx, ecx
  00231	74 06		 je	 SHORT $LN35@GetThreePo

; 46   : 		{
; 47   : 			m_pIStrData->Release();

  00233	8b 01		 mov	 eax, DWORD PTR [ecx]
  00235	51		 push	 ecx
  00236	ff 50 08	 call	 DWORD PTR [eax+8]
$LN35@GetThreePo:
; File D:\git\src\IBK\IBK_DRFN\ProjSrc\SrcChartEx\ChartAddIn\ChartAnalysisToolAddIn\AnalysisTool\PointTool.cpp

; 953  : 	return CThreePointDrawingData(CTool::GetElementCommonEnvironment().GetDataType(), 

  00239	8d 4d 80	 lea	 ecx, DWORD PTR _calData$[ebp]
  0023c	e8 00 00 00 00	 call	 ??1CCoordinateCalculatorData@@QAE@XZ ; CCoordinateCalculatorData::~CCoordinateCalculatorData
  00241	8d 8d 78 ff ff
	ff		 lea	 ecx, DWORD PTR _strPacketType$[ebp]
  00247	ff 15 00 00 00
	00		 call	 DWORD PTR __imp_??1?$CStringT@DV?$StrTraitMFC_DLL@DV?$ChTraitsCRT@D@ATL@@@@@ATL@@QAE@XZ
  0024d	8d 8d 7c ff ff
	ff		 lea	 ecx, DWORD PTR _strDataType$[ebp]
  00253	ff 15 00 00 00
	00		 call	 DWORD PTR __imp_??1?$CStringT@DV?$StrTraitMFC_DLL@DV?$ChTraitsCRT@D@ATL@@@@@ATL@@QAE@XZ
; File D:\git\src\IBK\IBK_DRFN\ProjSrc\SrcChartEx\ChartAddIn\ChartAnalysisToolAddIn\Include_AddIn_133101\I133101\_IString.h

; 45   : 		if( m_pIStrData)

  00259	8b 95 74 ff ff
	ff		 mov	 edx, DWORD PTR _szHelpMsg$[ebp+4]
  0025f	c7 45 fc 08 00
	00 00		 mov	 DWORD PTR __$EHRec$[ebp+8], 8
  00266	85 d2		 test	 edx, edx
  00268	74 06		 je	 SHORT $LN42@GetThreePo

; 46   : 		{
; 47   : 			m_pIStrData->Release();

  0026a	8b 0a		 mov	 ecx, DWORD PTR [edx]
  0026c	52		 push	 edx
  0026d	ff 51 08	 call	 DWORD PTR [ecx+8]
$LN42@GetThreePo:
; File D:\git\src\IBK\IBK_DRFN\ProjSrc\SrcChartEx\ChartAddIn\ChartAnalysisToolAddIn\AnalysisTool\PointTool.cpp

; 961  : }

  00270	8b c6		 mov	 eax, esi
  00272	8b 4d f4	 mov	 ecx, DWORD PTR __$EHRec$[ebp]
  00275	64 89 0d 00 00
	00 00		 mov	 DWORD PTR fs:0, ecx
  0027c	59		 pop	 ecx
  0027d	5f		 pop	 edi
  0027e	5e		 pop	 esi
  0027f	5b		 pop	 ebx
  00280	8b 4d f0	 mov	 ecx, DWORD PTR __$ArrayPad$[ebp]
  00283	33 cd		 xor	 ecx, ebp
  00285	e8 00 00 00 00	 call	 @__security_check_cookie@4
  0028a	8b e5		 mov	 esp, ebp
  0028c	5d		 pop	 ebp
  0028d	c2 04 00	 ret	 4
_TEXT	ENDS
;	COMDAT text$x
text$x	SEGMENT
__unwindfunclet$?GetThreePointDrawingData@CThreePointDownTool@@ABE?AVCThreePointDrawingData@@XZ$0:
  00000	8d 8d 70 ff ff
	ff		 lea	 ecx, DWORD PTR _szHelpMsg$[ebp]
  00006	e9 00 00 00 00	 jmp	 ??1ILPCSTR133101@@QAE@XZ ; ILPCSTR133101::~ILPCSTR133101
__unwindfunclet$?GetThreePointDrawingData@CThreePointDownTool@@ABE?AVCThreePointDrawingData@@XZ$1:
  0000b	8d 8d 7c ff ff
	ff		 lea	 ecx, DWORD PTR _strDataType$[ebp]
  00011	ff 25 00 00 00
	00		 jmp	 DWORD PTR __imp_??1?$CStringT@DV?$StrTraitMFC_DLL@DV?$ChTraitsCRT@D@ATL@@@@@ATL@@QAE@XZ
__unwindfunclet$?GetThreePointDrawingData@CThreePointDownTool@@ABE?AVCThreePointDrawingData@@XZ$2:
  00017	8d 8d 78 ff ff
	ff		 lea	 ecx, DWORD PTR _strPacketType$[ebp]
  0001d	ff 25 00 00 00
	00		 jmp	 DWORD PTR __imp_??1?$CStringT@DV?$StrTraitMFC_DLL@DV?$ChTraitsCRT@D@ATL@@@@@ATL@@QAE@XZ
__unwindfunclet$?GetThreePointDrawingData@CThreePointDownTool@@ABE?AVCThreePointDrawingData@@XZ$3:
  00023	8d 4d 80	 lea	 ecx, DWORD PTR _calData$[ebp]
  00026	e9 00 00 00 00	 jmp	 ??1CCoordinateCalculatorData@@QAE@XZ ; CCoordinateCalculatorData::~CCoordinateCalculatorData
__unwindfunclet$?GetThreePointDrawingData@CThreePointDownTool@@ABE?AVCThreePointDrawingData@@XZ$4:
  0002b	8d 8d 5c ff ff
	ff		 lea	 ecx, DWORD PTR _szRQ$[ebp]
  00031	e9 00 00 00 00	 jmp	 ??1ILPCSTR133101@@QAE@XZ ; ILPCSTR133101::~ILPCSTR133101
__unwindfunclet$?GetThreePointDrawingData@CThreePointDownTool@@ABE?AVCThreePointDrawingData@@XZ$5:
  00036	8d 8d bc fe ff
	ff		 lea	 ecx, DWORD PTR $T2[ebp]
  0003c	e9 00 00 00 00	 jmp	 ??1CElementCommonEnvironment@@QAE@XZ
__unwindfunclet$?GetThreePointDrawingData@CThreePointDownTool@@ABE?AVCThreePointDrawingData@@XZ$6:
  00041	8d 8d 04 ff ff
	ff		 lea	 ecx, DWORD PTR $T3[ebp]
  00047	e9 00 00 00 00	 jmp	 ??1CElementCommonEnvironment@@QAE@XZ
  0004c	cc		 int	 3
  0004d	cc		 int	 3
  0004e	cc		 int	 3
  0004f	cc		 int	 3
  00050	cc		 int	 3
__ehhandler$?GetThreePointDrawingData@CThreePointDownTool@@ABE?AVCThreePointDrawingData@@XZ:
  00051	90		 npad	 1
  00052	90		 npad	 1
  00053	8b 54 24 08	 mov	 edx, DWORD PTR [esp+8]
  00057	8d 42 0c	 lea	 eax, DWORD PTR [edx+12]
  0005a	8b 8a b8 fe ff
	ff		 mov	 ecx, DWORD PTR [edx-328]
  00060	33 c8		 xor	 ecx, eax
  00062	e8 00 00 00 00	 call	 @__security_check_cookie@4
  00067	8b 4a fc	 mov	 ecx, DWORD PTR [edx-4]
  0006a	33 c8		 xor	 ecx, eax
  0006c	e8 00 00 00 00	 call	 @__security_check_cookie@4
  00071	b8 00 00 00 00	 mov	 eax, OFFSET __ehfuncinfo$?GetThreePointDrawingData@CThreePointDownTool@@ABE?AVCThreePointDrawingData@@XZ
  00076	e9 00 00 00 00	 jmp	 ___CxxFrameHandler3
text$x	ENDS
?GetThreePointDrawingData@CThreePointDownTool@@ABE?AVCThreePointDrawingData@@XZ ENDP ; CThreePointDownTool::GetThreePointDrawingData
; Function compile flags: /Ogtp
; File D:\git\src\IBK\IBK_DRFN\ProjSrc\SrcChartEx\ChartAddIn\ChartAnalysisToolAddIn\AnalysisTool\PointTool.cpp
;	COMDAT ?IsEndPoint@CThreePointDownTool@@ABE_NXZ
_TEXT	SEGMENT
?IsEndPoint@CThreePointDownTool@@ABE_NXZ PROC		; CThreePointDownTool::IsEndPoint, COMDAT
; _this$ = ecx

; 929  : 	return (m_nPointCount == 3);

  00000	83 b9 80 00 00
	00 03		 cmp	 DWORD PTR [ecx+128], 3
  00007	0f 94 c0	 sete	 al

; 930  : }

  0000a	c3		 ret	 0
?IsEndPoint@CThreePointDownTool@@ABE_NXZ ENDP		; CThreePointDownTool::IsEndPoint
_TEXT	ENDS
; Function compile flags: /Ogtp
; File D:\git\src\IBK\IBK_DRFN\ProjSrc\SrcChartEx\ChartAddIn\ChartAnalysisToolAddIn\AnalysisTool\PointTool.cpp
;	COMDAT ?MakeElement@CThreePointDownTool@@MAEPAVCElement@@ABVCElementCommonEnvironment@@@Z
_TEXT	SEGMENT
$T2 = -112						; size = 32
$T3 = -80						; size = 32
$T4 = -48						; size = 32
_this$1$ = -16						; size = 4
__$EHRec$ = -12						; size = 12
_environment$ = 8					; size = 4
?MakeElement@CThreePointDownTool@@MAEPAVCElement@@ABVCElementCommonEnvironment@@@Z PROC ; CThreePointDownTool::MakeElement, COMDAT
; _this$ = ecx

; 916  : {

  00000	55		 push	 ebp
  00001	8b ec		 mov	 ebp, esp
  00003	6a ff		 push	 -1
  00005	68 00 00 00 00	 push	 __ehhandler$?MakeElement@CThreePointDownTool@@MAEPAVCElement@@ABVCElementCommonEnvironment@@@Z
  0000a	64 a1 00 00 00
	00		 mov	 eax, DWORD PTR fs:0
  00010	50		 push	 eax
  00011	83 ec 64	 sub	 esp, 100		; 00000064H
  00014	53		 push	 ebx
  00015	56		 push	 esi
  00016	57		 push	 edi
  00017	a1 00 00 00 00	 mov	 eax, DWORD PTR ___security_cookie
  0001c	33 c5		 xor	 eax, ebp
  0001e	50		 push	 eax
  0001f	8d 45 f4	 lea	 eax, DWORD PTR __$EHRec$[ebp]
  00022	64 a3 00 00 00
	00		 mov	 DWORD PTR fs:0, eax
  00028	8b f1		 mov	 esi, ecx
  0002a	89 75 f0	 mov	 DWORD PTR _this$1$[ebp], esi

; 929  : 	return (m_nPointCount == 3);

  0002d	83 be 80 00 00
	00 03		 cmp	 DWORD PTR [esi+128], 3

; 917  : 	if(!IsEndPoint())

  00034	74 16		 je	 SHORT $LN2@MakeElemen

; 918  : 		return NULL;

  00036	33 c0		 xor	 eax, eax

; 921  : 		m_points1.GetSavingPoint(), m_points2.GetSavingPoint(), m_points3.GetSavingPoint(), 
; 922  : 		GetTextPosition(), environment);
; 923  : }

  00038	8b 4d f4	 mov	 ecx, DWORD PTR __$EHRec$[ebp]
  0003b	64 89 0d 00 00
	00 00		 mov	 DWORD PTR fs:0, ecx
  00042	59		 pop	 ecx
  00043	5f		 pop	 edi
  00044	5e		 pop	 esi
  00045	5b		 pop	 ebx
  00046	8b e5		 mov	 esp, ebp
  00048	5d		 pop	 ebp
  00049	c2 04 00	 ret	 4
$LN2@MakeElemen:

; 919  : 
; 920  : 	return CElementFactory::Make(GetToolType(), 

  0004c	8d 45 90	 lea	 eax, DWORD PTR $T2[ebp]
  0004f	50		 push	 eax
  00050	8d 8e d8 00 00
	00		 lea	 ecx, DWORD PTR [esi+216]
  00056	e8 00 00 00 00	 call	 ?GetSavingPoint@CPoints@@QBE?AVCCoordinate@@XZ ; CPoints::GetSavingPoint
  0005b	8b d8		 mov	 ebx, eax
  0005d	8d 45 b0	 lea	 eax, DWORD PTR $T3[ebp]
  00060	c7 45 fc 00 00
	00 00		 mov	 DWORD PTR __$EHRec$[ebp+8], 0
  00067	50		 push	 eax
  00068	8d 8e b0 00 00
	00		 lea	 ecx, DWORD PTR [esi+176]
  0006e	e8 00 00 00 00	 call	 ?GetSavingPoint@CPoints@@QBE?AVCCoordinate@@XZ ; CPoints::GetSavingPoint
  00073	8b f8		 mov	 edi, eax
  00075	8d 45 d0	 lea	 eax, DWORD PTR $T4[ebp]
  00078	c6 45 fc 01	 mov	 BYTE PTR __$EHRec$[ebp+8], 1
  0007c	50		 push	 eax
  0007d	8d 8e 88 00 00
	00		 lea	 ecx, DWORD PTR [esi+136]
  00083	e8 00 00 00 00	 call	 ?GetSavingPoint@CPoints@@QBE?AVCCoordinate@@XZ ; CPoints::GetSavingPoint
  00088	8b f0		 mov	 esi, eax
  0008a	8b 45 f0	 mov	 eax, DWORD PTR _this$1$[ebp]
  0008d	8b c8		 mov	 ecx, eax
  0008f	ff 75 08	 push	 DWORD PTR _environment$[ebp]
  00092	c6 45 fc 02	 mov	 BYTE PTR __$EHRec$[ebp+8], 2
  00096	8b 10		 mov	 edx, DWORD PTR [eax]
  00098	ff 52 28	 call	 DWORD PTR [edx+40]
  0009b	8b 4d f0	 mov	 ecx, DWORD PTR _this$1$[ebp]
  0009e	50		 push	 eax
  0009f	53		 push	 ebx
  000a0	57		 push	 edi
  000a1	8b 01		 mov	 eax, DWORD PTR [ecx]
  000a3	56		 push	 esi
  000a4	ff 50 24	 call	 DWORD PTR [eax+36]
  000a7	50		 push	 eax
  000a8	e8 00 00 00 00	 call	 ?Make@CElementFactory@@SAPAVCElement@@W4TOOLTYPE@CAnalysis@@ABVCCoordinate@@11PBVCTextPosition@@ABVCElementCommonEnvironment@@@Z ; CElementFactory::Make
  000ad	83 c4 18	 add	 esp, 24			; 00000018H
  000b0	8d 4d e4	 lea	 ecx, DWORD PTR $T4[ebp+20]
  000b3	8b f0		 mov	 esi, eax
  000b5	ff 15 00 00 00
	00		 call	 DWORD PTR __imp_??1?$CStringT@DV?$StrTraitMFC_DLL@DV?$ChTraitsCRT@D@ATL@@@@@ATL@@QAE@XZ
  000bb	8d 4d c4	 lea	 ecx, DWORD PTR $T3[ebp+20]
  000be	ff 15 00 00 00
	00		 call	 DWORD PTR __imp_??1?$CStringT@DV?$StrTraitMFC_DLL@DV?$ChTraitsCRT@D@ATL@@@@@ATL@@QAE@XZ
  000c4	8d 4d a4	 lea	 ecx, DWORD PTR $T2[ebp+20]
  000c7	ff 15 00 00 00
	00		 call	 DWORD PTR __imp_??1?$CStringT@DV?$StrTraitMFC_DLL@DV?$ChTraitsCRT@D@ATL@@@@@ATL@@QAE@XZ
  000cd	8b c6		 mov	 eax, esi

; 921  : 		m_points1.GetSavingPoint(), m_points2.GetSavingPoint(), m_points3.GetSavingPoint(), 
; 922  : 		GetTextPosition(), environment);
; 923  : }

  000cf	8b 4d f4	 mov	 ecx, DWORD PTR __$EHRec$[ebp]
  000d2	64 89 0d 00 00
	00 00		 mov	 DWORD PTR fs:0, ecx
  000d9	59		 pop	 ecx
  000da	5f		 pop	 edi
  000db	5e		 pop	 esi
  000dc	5b		 pop	 ebx
  000dd	8b e5		 mov	 esp, ebp
  000df	5d		 pop	 ebp
  000e0	c2 04 00	 ret	 4
_TEXT	ENDS
;	COMDAT text$x
text$x	SEGMENT
__unwindfunclet$?MakeElement@CThreePointDownTool@@MAEPAVCElement@@ABVCElementCommonEnvironment@@@Z$0:
  00000	8d 4d 90	 lea	 ecx, DWORD PTR $T2[ebp]
  00003	e9 00 00 00 00	 jmp	 ??1CCoordinate@@QAE@XZ
__unwindfunclet$?MakeElement@CThreePointDownTool@@MAEPAVCElement@@ABVCElementCommonEnvironment@@@Z$1:
  00008	8d 4d b0	 lea	 ecx, DWORD PTR $T3[ebp]
  0000b	e9 00 00 00 00	 jmp	 ??1CCoordinate@@QAE@XZ
__unwindfunclet$?MakeElement@CThreePointDownTool@@MAEPAVCElement@@ABVCElementCommonEnvironment@@@Z$2:
  00010	8d 4d d0	 lea	 ecx, DWORD PTR $T4[ebp]
  00013	e9 00 00 00 00	 jmp	 ??1CCoordinate@@QAE@XZ
  00018	cc		 int	 3
  00019	cc		 int	 3
  0001a	cc		 int	 3
  0001b	cc		 int	 3
  0001c	cc		 int	 3
__ehhandler$?MakeElement@CThreePointDownTool@@MAEPAVCElement@@ABVCElementCommonEnvironment@@@Z:
  0001d	90		 npad	 1
  0001e	90		 npad	 1
  0001f	8b 54 24 08	 mov	 edx, DWORD PTR [esp+8]
  00023	8d 42 0c	 lea	 eax, DWORD PTR [edx+12]
  00026	8b 4a 8c	 mov	 ecx, DWORD PTR [edx-116]
  00029	33 c8		 xor	 ecx, eax
  0002b	e8 00 00 00 00	 call	 @__security_check_cookie@4
  00030	b8 00 00 00 00	 mov	 eax, OFFSET __ehfuncinfo$?MakeElement@CThreePointDownTool@@MAEPAVCElement@@ABVCElementCommonEnvironment@@@Z
  00035	e9 00 00 00 00	 jmp	 ___CxxFrameHandler3
text$x	ENDS
?MakeElement@CThreePointDownTool@@MAEPAVCElement@@ABVCElementCommonEnvironment@@@Z ENDP ; CThreePointDownTool::MakeElement
; Function compile flags: /Ogtp
; File D:\git\src\IBK\IBK_DRFN\ProjSrc\SrcChartEx\ChartAddIn\ChartAnalysisToolAddIn\AnalysisTool\PointTool.cpp
;	COMDAT ?IsMakeElement@CThreePointDownTool@@MBE_NABVCPoint@@@Z
_TEXT	SEGMENT
___formal$ = 8						; size = 4
?IsMakeElement@CThreePointDownTool@@MBE_NABVCPoint@@@Z PROC ; CThreePointDownTool::IsMakeElement, COMDAT
; _this$ = ecx

; 929  : 	return (m_nPointCount == 3);

  00000	83 b9 80 00 00
	00 03		 cmp	 DWORD PTR [ecx+128], 3
  00007	0f 94 c0	 sete	 al

; 911  : 	return IsEndPoint();
; 912  : }

  0000a	c2 04 00	 ret	 4
?IsMakeElement@CThreePointDownTool@@MBE_NABVCPoint@@@Z ENDP ; CThreePointDownTool::IsMakeElement
_TEXT	ENDS
; Function compile flags: /Ogtp
; File D:\git\src\IBK\IBK_DRFN\ProjSrc\SrcChartEx\ChartAddIn\ChartAnalysisToolAddIn\AnalysisTool\PointTool.cpp
;	COMDAT ?SavePoints@CThreePointDownTool@@MAEXABVCPoints@@@Z
_TEXT	SEGMENT
_points$ = 8						; size = 4
?SavePoints@CThreePointDownTool@@MAEXABVCPoints@@@Z PROC ; CThreePointDownTool::SavePoints, COMDAT
; _this$ = ecx

; 896  : {

  00000	55		 push	 ebp
  00001	8b ec		 mov	 ebp, esp
  00003	56		 push	 esi
  00004	8b f1		 mov	 esi, ecx

; 897  : 	if(m_nPointCount == 0)

  00006	8b 86 80 00 00
	00		 mov	 eax, DWORD PTR [esi+128]
  0000c	85 c0		 test	 eax, eax
  0000e	75 07		 jne	 SHORT $LN2@SavePoints

; 898  : 		m_points1 = points;

  00010	b8 88 00 00 00	 mov	 eax, 136		; 00000088H
  00015	eb 16		 jmp	 SHORT $LN7@SavePoints
$LN2@SavePoints:

; 899  : 	else if(m_nPointCount == 1)

  00017	83 f8 01	 cmp	 eax, 1
  0001a	75 07		 jne	 SHORT $LN4@SavePoints

; 900  : 		m_points2 = points;

  0001c	b8 b0 00 00 00	 mov	 eax, 176		; 000000b0H
  00021	eb 0a		 jmp	 SHORT $LN7@SavePoints
$LN4@SavePoints:

; 901  : 	else if(m_nPointCount == 2)

  00023	83 f8 02	 cmp	 eax, 2
  00026	75 16		 jne	 SHORT $LN6@SavePoints

; 902  : 		m_points3 = points;

  00028	b8 d8 00 00 00	 mov	 eax, 216		; 000000d8H
$LN7@SavePoints:

; 903  : 	else
; 904  : 		return;
; 905  : 
; 906  : 	m_nPointCount++;

  0002d	ff 75 08	 push	 DWORD PTR _points$[ebp]
  00030	8d 0c 30	 lea	 ecx, DWORD PTR [eax+esi]
  00033	e8 00 00 00 00	 call	 ??4CPoints@@QAEAAV0@ABV0@@Z ; CPoints::operator=
  00038	ff 86 80 00 00
	00		 inc	 DWORD PTR [esi+128]
$LN6@SavePoints:
  0003e	5e		 pop	 esi

; 907  : }

  0003f	5d		 pop	 ebp
  00040	c2 04 00	 ret	 4
?SavePoints@CThreePointDownTool@@MAEXABVCPoints@@@Z ENDP ; CThreePointDownTool::SavePoints
_TEXT	ENDS
; Function compile flags: /Ogtp
; File D:\git\src\IBK\IBK_DRFN\ProjSrc\SrcChartEx\ChartAddIn\ChartAnalysisToolAddIn\AnalysisTool\PointTool.cpp
;	COMDAT ?OnDraw@CThreePointDownTool@@UAEXPAVCDC@@@Z
_TEXT	SEGMENT
$T2 = -248						; size = 232
__$ArrayPad$ = -16					; size = 4
__$EHRec$ = -12						; size = 12
_pDC$ = 8						; size = 4
?OnDraw@CThreePointDownTool@@UAEXPAVCDC@@@Z PROC	; CThreePointDownTool::OnDraw, COMDAT
; _this$ = ecx

; 886  : {

  00000	55		 push	 ebp
  00001	8b ec		 mov	 ebp, esp
  00003	6a ff		 push	 -1
  00005	68 00 00 00 00	 push	 __ehhandler$?OnDraw@CThreePointDownTool@@UAEXPAVCDC@@@Z
  0000a	64 a1 00 00 00
	00		 mov	 eax, DWORD PTR fs:0
  00010	50		 push	 eax
  00011	81 ec ec 00 00
	00		 sub	 esp, 236		; 000000ecH
  00017	a1 00 00 00 00	 mov	 eax, DWORD PTR ___security_cookie
  0001c	33 c5		 xor	 eax, ebp
  0001e	89 45 f0	 mov	 DWORD PTR __$ArrayPad$[ebp], eax
  00021	56		 push	 esi
  00022	57		 push	 edi
  00023	50		 push	 eax
  00024	8d 45 f4	 lea	 eax, DWORD PTR __$EHRec$[ebp]
  00027	64 a3 00 00 00
	00		 mov	 DWORD PTR fs:0, eax
  0002d	8b f1		 mov	 esi, ecx

; 887  : 	if(m_nPointCount <= 0)

  0002f	83 be 80 00 00
	00 00		 cmp	 DWORD PTR [esi+128], 0
  00036	8b 7d 08	 mov	 edi, DWORD PTR _pDC$[ebp]
  00039	7e 64		 jle	 SHORT $LN30@OnDraw

; 888  : 		return;
; 889  : 
; 890  : 	GetThreePointDrawer().DrawTool(pDC, GetThreePointDrawingData(), R2_NOT/*R2_COPYPEN*/);

  0003b	8d 85 08 ff ff
	ff		 lea	 eax, DWORD PTR $T2[ebp]
  00041	50		 push	 eax
  00042	e8 00 00 00 00	 call	 ?GetThreePointDrawingData@CThreePointDownTool@@ABE?AVCThreePointDrawingData@@XZ ; CThreePointDownTool::GetThreePointDrawingData
  00047	6a 06		 push	 6
  00049	50		 push	 eax
  0004a	8b 06		 mov	 eax, DWORD PTR [esi]
  0004c	8b ce		 mov	 ecx, esi
  0004e	57		 push	 edi
  0004f	c7 45 fc 00 00
	00 00		 mov	 DWORD PTR __$EHRec$[ebp+8], 0
  00056	ff 50 3c	 call	 DWORD PTR [eax+60]
  00059	8b c8		 mov	 ecx, eax
  0005b	e8 00 00 00 00	 call	 ?DrawTool@CThreePointDrawer@@QAEXPAVCDC@@ABVCThreePointDrawingData@@H@Z ; CThreePointDrawer::DrawTool
  00060	8d 4d dc	 lea	 ecx, DWORD PTR $T2[ebp+212]
  00063	ff 15 00 00 00
	00		 call	 DWORD PTR __imp_??1?$CStringT@DV?$StrTraitMFC_DLL@DV?$ChTraitsCRT@D@ATL@@@@@ATL@@QAE@XZ
  00069	8d 4d b4	 lea	 ecx, DWORD PTR $T2[ebp+172]
  0006c	ff 15 00 00 00
	00		 call	 DWORD PTR __imp_??1?$CStringT@DV?$StrTraitMFC_DLL@DV?$ChTraitsCRT@D@ATL@@@@@ATL@@QAE@XZ
  00072	8d 4d 8c	 lea	 ecx, DWORD PTR $T2[ebp+132]
  00075	ff 15 00 00 00
	00		 call	 DWORD PTR __imp_??1?$CStringT@DV?$StrTraitMFC_DLL@DV?$ChTraitsCRT@D@ATL@@@@@ATL@@QAE@XZ
  0007b	8d 8d 28 ff ff
	ff		 lea	 ecx, DWORD PTR $T2[ebp+32]
  00081	ff 15 00 00 00
	00		 call	 DWORD PTR __imp_??1?$CStringT@DV?$StrTraitMFC_DLL@DV?$ChTraitsCRT@D@ATL@@@@@ATL@@QAE@XZ
  00087	8d 8d 24 ff ff
	ff		 lea	 ecx, DWORD PTR $T2[ebp+28]
  0008d	ff 15 00 00 00
	00		 call	 DWORD PTR __imp_??1?$CStringT@DV?$StrTraitMFC_DLL@DV?$ChTraitsCRT@D@ATL@@@@@ATL@@QAE@XZ
  00093	8d 8d 20 ff ff
	ff		 lea	 ecx, DWORD PTR $T2[ebp+24]
  00099	ff 15 00 00 00
	00		 call	 DWORD PTR __imp_??1?$CStringT@DV?$StrTraitMFC_DLL@DV?$ChTraitsCRT@D@ATL@@@@@ATL@@QAE@XZ
$LN30@OnDraw:

; 891  : }

  0009f	8b 4d f4	 mov	 ecx, DWORD PTR __$EHRec$[ebp]
  000a2	64 89 0d 00 00
	00 00		 mov	 DWORD PTR fs:0, ecx
  000a9	59		 pop	 ecx
  000aa	5f		 pop	 edi
  000ab	5e		 pop	 esi
  000ac	8b 4d f0	 mov	 ecx, DWORD PTR __$ArrayPad$[ebp]
  000af	33 cd		 xor	 ecx, ebp
  000b1	e8 00 00 00 00	 call	 @__security_check_cookie@4
  000b6	8b e5		 mov	 esp, ebp
  000b8	5d		 pop	 ebp
  000b9	c2 04 00	 ret	 4
_TEXT	ENDS
;	COMDAT text$x
text$x	SEGMENT
__unwindfunclet$?OnDraw@CThreePointDownTool@@UAEXPAVCDC@@@Z$0:
  00000	8d 8d 08 ff ff
	ff		 lea	 ecx, DWORD PTR $T2[ebp]
  00006	e9 00 00 00 00	 jmp	 ??1CThreePointDrawingData@@QAE@XZ
  0000b	cc		 int	 3
  0000c	cc		 int	 3
  0000d	cc		 int	 3
  0000e	cc		 int	 3
  0000f	cc		 int	 3
__ehhandler$?OnDraw@CThreePointDownTool@@UAEXPAVCDC@@@Z:
  00010	90		 npad	 1
  00011	90		 npad	 1
  00012	8b 54 24 08	 mov	 edx, DWORD PTR [esp+8]
  00016	8d 42 0c	 lea	 eax, DWORD PTR [edx+12]
  00019	8b 8a 08 ff ff
	ff		 mov	 ecx, DWORD PTR [edx-248]
  0001f	33 c8		 xor	 ecx, eax
  00021	e8 00 00 00 00	 call	 @__security_check_cookie@4
  00026	8b 4a fc	 mov	 ecx, DWORD PTR [edx-4]
  00029	33 c8		 xor	 ecx, eax
  0002b	e8 00 00 00 00	 call	 @__security_check_cookie@4
  00030	b8 00 00 00 00	 mov	 eax, OFFSET __ehfuncinfo$?OnDraw@CThreePointDownTool@@UAEXPAVCDC@@@Z
  00035	e9 00 00 00 00	 jmp	 ___CxxFrameHandler3
text$x	ENDS
?OnDraw@CThreePointDownTool@@UAEXPAVCDC@@@Z ENDP	; CThreePointDownTool::OnDraw
; Function compile flags: /Ogtp
; File D:\git\src\IBK\IBK_DRFN\ProjSrc\SrcChartEx\ChartAddIn\ChartAnalysisToolAddIn\AnalysisTool\PointTool.cpp
; File D:\git\src\IBK\IBK_DRFN\ProjSrc\SrcChartEx\ChartAddIn\ChartAnalysisToolAddIn\Include_Chart\Dll_Load\IMetaTable.h
; File C:\Program Files (x86)\Microsoft Visual Studio\2019\Community\VC\Tools\MSVC\14.29.30133\atlmfc\include\afxwin1.inl
; File D:\git\src\IBK\IBK_DRFN\ProjSrc\SrcChartEx\ChartAddIn\ChartAnalysisToolAddIn\Include_Chart\Dll_Load\IMetaTable.h
; File C:\Program Files (x86)\Microsoft Visual Studio\2019\Community\VC\Tools\MSVC\14.29.30133\atlmfc\include\afxwin1.inl
; File D:\git\src\IBK\IBK_DRFN\ProjSrc\SrcChartEx\ChartAddIn\ChartAnalysisToolAddIn\AnalysisTool\PointTool.cpp
; File D:\git\src\IBK\IBK_DRFN\ProjSrc\SrcChartEx\ChartAddIn\ChartAnalysisToolAddIn\Include_Chart\Dll_Load\IMetaTable.h
; File C:\Program Files (x86)\Microsoft Visual Studio\2019\Community\VC\Tools\MSVC\14.29.30133\atlmfc\include\afxwin1.inl
; File D:\git\src\IBK\IBK_DRFN\ProjSrc\SrcChartEx\ChartAddIn\ChartAnalysisToolAddIn\AnalysisTool\PointTool.cpp
;	COMDAT ?OnLButtonUp@CThreePointDownTool@@UAEXPAVCDC@@ABVCPoint@@@Z
_TEXT	SEGMENT
_dlg$2 = -420						; size = 328
_points$3 = -92						; size = 40
$T4 = -52						; size = 32
$T5 = -52						; size = 32
$T6 = -52						; size = 32
$T7 = -20						; size = 8
$T8 = -20						; size = 8
$T9 = -20						; size = 8
$T10 = -20						; size = 8
__$EHRec$ = -12						; size = 12
_pDC$ = 8						; size = 4
___mlrs__$11 = 12					; size = 4
_point$ = 12						; size = 4
?OnLButtonUp@CThreePointDownTool@@UAEXPAVCDC@@ABVCPoint@@@Z PROC ; CThreePointDownTool::OnLButtonUp, COMDAT
; _this$ = ecx

; 857  : {

  00000	55		 push	 ebp
  00001	8b ec		 mov	 ebp, esp
  00003	6a ff		 push	 -1
  00005	68 00 00 00 00	 push	 __ehhandler$?OnLButtonUp@CThreePointDownTool@@UAEXPAVCDC@@ABVCPoint@@@Z
  0000a	64 a1 00 00 00
	00		 mov	 eax, DWORD PTR fs:0
  00010	50		 push	 eax
  00011	81 ec 98 01 00
	00		 sub	 esp, 408		; 00000198H
  00017	53		 push	 ebx
  00018	56		 push	 esi
  00019	57		 push	 edi
  0001a	a1 00 00 00 00	 mov	 eax, DWORD PTR ___security_cookie
  0001f	33 c5		 xor	 eax, ebp
  00021	50		 push	 eax
  00022	8d 45 f4	 lea	 eax, DWORD PTR __$EHRec$[ebp]
  00025	64 a3 00 00 00
	00		 mov	 DWORD PTR fs:0, eax
  0002b	8b f9		 mov	 edi, ecx

; 858  : 	if(PointInDrawingRegion(point)){		

  0002d	8b 07		 mov	 eax, DWORD PTR [edi]
  0002f	8b 75 0c	 mov	 esi, DWORD PTR _point$[ebp]
  00032	56		 push	 esi
  00033	8b 40 1c	 mov	 eax, DWORD PTR [eax+28]
  00036	ff d0		 call	 eax
  00038	84 c0		 test	 al, al
  0003a	0f 84 16 02 00
	00		 je	 $LN51@OnLButtonU

; 859  : 		CPoints points = CTool::GetPoints(point);

  00040	56		 push	 esi
  00041	8d 45 a4	 lea	 eax, DWORD PTR _points$3[ebp]
  00044	8b cf		 mov	 ecx, edi
  00046	50		 push	 eax
  00047	e8 00 00 00 00	 call	 ?GetPoints@CTool@@IBE?AVCPoints@@ABVCPoint@@@Z ; CTool::GetPoints

; 860  : 		SavePoints(points);

  0004c	8b 07		 mov	 eax, DWORD PTR [edi]
  0004e	8d 4d a4	 lea	 ecx, DWORD PTR _points$3[ebp]
  00051	51		 push	 ecx
  00052	8b cf		 mov	 ecx, edi
  00054	c7 45 fc 00 00
	00 00		 mov	 DWORD PTR __$EHRec$[ebp+8], 0
  0005b	ff 50 20	 call	 DWORD PTR [eax+32]

; 861  : 		if(!IsMakeElement(point))

  0005e	8b 07		 mov	 eax, DWORD PTR [edi]
  00060	8b cf		 mov	 ecx, edi
  00062	56		 push	 esi
  00063	8b 40 30	 mov	 eax, DWORD PTR [eax+48]
  00066	ff d0		 call	 eax
  00068	84 c0		 test	 al, al
  0006a	75 1d		 jne	 SHORT $LN3@OnLButtonU
  0006c	8d 4d b8	 lea	 ecx, DWORD PTR _points$3[ebp+20]
  0006f	ff 15 00 00 00
	00		 call	 DWORD PTR __imp_??1?$CStringT@DV?$StrTraitMFC_DLL@DV?$ChTraitsCRT@D@ATL@@@@@ATL@@QAE@XZ

; 883  : }

  00075	8b 4d f4	 mov	 ecx, DWORD PTR __$EHRec$[ebp]
  00078	64 89 0d 00 00
	00 00		 mov	 DWORD PTR fs:0, ecx
  0007f	59		 pop	 ecx
  00080	5f		 pop	 edi
  00081	5e		 pop	 esi
  00082	5b		 pop	 ebx
  00083	8b e5		 mov	 esp, ebp
  00085	5d		 pop	 ebp
  00086	c2 08 00	 ret	 8
$LN3@OnLButtonU:

; 862  : 			return;
; 863  : 
; 864  : 		if( GetToolType() == CAnalysis::EN_ANALYSIS_ADJUST_RATIO)

  00089	8b 07		 mov	 eax, DWORD PTR [edi]
  0008b	8b cf		 mov	 ecx, edi
  0008d	ff 50 24	 call	 DWORD PTR [eax+36]
  00090	83 f8 20	 cmp	 eax, 32			; 00000020H
  00093	0f 85 99 01 00
	00		 jne	 $LN4@OnLButtonU

; 865  : 		{
; 866  : 			//  
; 867  : 			CTool::Invalidate();	

  00099	8b cf		 mov	 ecx, edi
  0009b	e8 00 00 00 00	 call	 ?Invalidate@CTool@@QAEXXZ ; CTool::Invalidate

; 868  : 			
; 869  : 			ML_SET_LANGUAGE_RES();

  000a0	e8 00 00 00 00	 call	 ?AfxGetStaticModuleState@@YGPAVAFX_MODULE_STATE@@XZ ; AfxGetStaticModuleState
  000a5	8b 5f 70	 mov	 ebx, DWORD PTR [edi+112]
  000a8	8b 70 08	 mov	 esi, DWORD PTR [eax+8]
; File D:\git\src\IBK\IBK_DRFN\ProjSrc\SrcChartEx\ChartAddIn\ChartAnalysisToolAddIn\Include_Chart\Dll_Load\IMetaTable.h

; 938  : 	DECLARE_FUNCTION2(	LoadResourceDLL,				HMODULE, AfxGetStaticModuleState()->m_hCurrentInstanceHandle, HWND, HMODULE);

  000ab	a1 04 00 00 00	 mov	 eax, DWORD PTR ?g_iMetaTable@@3VIMetaTable@@A+4
  000b0	85 c0		 test	 eax, eax
  000b2	74 4b		 je	 SHORT $LN22@OnLButtonU
  000b4	b9 80 0d 00 00	 mov	 ecx, 3456		; 00000d80H
  000b9	66 3b 0d 94 00
	00 00		 cmp	 cx, WORD PTR ?g_iMetaTable@@3VIMetaTable@@A+148
  000c0	74 29		 je	 SHORT $LN53@OnLButtonU
  000c2	68 00 00 00 00	 push	 OFFSET ??_C@_0BA@ENJOCHIO@LoadResourceDLL@
  000c7	50		 push	 eax
  000c8	c7 05 90 00 00
	00 00 00 00 00	 mov	 DWORD PTR ?g_iMetaTable@@3VIMetaTable@@A+144, 0
  000d2	ff 15 00 00 00
	00		 call	 DWORD PTR __imp__GetProcAddress@8
  000d8	b9 80 0d 00 00	 mov	 ecx, 3456		; 00000d80H
  000dd	a3 90 00 00 00	 mov	 DWORD PTR ?g_iMetaTable@@3VIMetaTable@@A+144, eax
  000e2	66 89 0d 94 00
	00 00		 mov	 WORD PTR ?g_iMetaTable@@3VIMetaTable@@A+148, cx
  000e9	eb 05		 jmp	 SHORT $LN21@OnLButtonU
$LN53@OnLButtonU:
  000eb	a1 90 00 00 00	 mov	 eax, DWORD PTR ?g_iMetaTable@@3VIMetaTable@@A+144
$LN21@OnLButtonU:
  000f0	85 c0		 test	 eax, eax
  000f2	74 0b		 je	 SHORT $LN22@OnLButtonU
  000f4	56		 push	 esi
  000f5	53		 push	 ebx
  000f6	ff d0		 call	 eax
  000f8	83 c4 08	 add	 esp, 8
  000fb	8b d8		 mov	 ebx, eax
  000fd	eb 08		 jmp	 SHORT $LN19@OnLButtonU
$LN22@OnLButtonU:
  000ff	e8 00 00 00 00	 call	 ?AfxGetStaticModuleState@@YGPAVAFX_MODULE_STATE@@XZ ; AfxGetStaticModuleState
  00104	8b 58 08	 mov	 ebx, DWORD PTR [eax+8]
$LN19@OnLButtonU:
; File C:\Program Files (x86)\Microsoft Visual Studio\2019\Community\VC\Tools\MSVC\14.29.30133\atlmfc\include\afxwin1.inl

; 25   : 		return afxCurrentResourceHandle; }

  00107	e8 00 00 00 00	 call	 ?AfxGetModuleState@@YGPAVAFX_MODULE_STATE@@XZ ; AfxGetModuleState
; File D:\git\src\IBK\IBK_DRFN\ProjSrc\SrcChartEx\ChartAddIn\ChartAnalysisToolAddIn\Include_Chart\Dll_Load\IMetaTable.h

; 1034 : 		m_hInstance = AfxGetResourceHandle();

  0010c	8b 70 0c	 mov	 esi, DWORD PTR [eax+12]
  0010f	89 75 0c	 mov	 DWORD PTR ___mlrs__$11[ebp], esi
; File C:\Program Files (x86)\Microsoft Visual Studio\2019\Community\VC\Tools\MSVC\14.29.30133\atlmfc\include\afxwin1.inl

; 27   : 	{ ASSERT(hInstResource != NULL); afxCurrentResourceHandle = hInstResource; }

  00112	e8 00 00 00 00	 call	 ?AfxGetModuleState@@YGPAVAFX_MODULE_STATE@@XZ ; AfxGetModuleState
  00117	89 58 0c	 mov	 DWORD PTR [eax+12], ebx
; File D:\git\src\IBK\IBK_DRFN\ProjSrc\SrcChartEx\ChartAddIn\ChartAnalysisToolAddIn\AnalysisTool\PointTool.cpp

; 870  : 			CDlgAnalysisAdjustRatio dlg;

  0011a	6a 00		 push	 0
  0011c	6a 00		 push	 0
  0011e	8d 8d 5c fe ff
	ff		 lea	 ecx, DWORD PTR _dlg$2[ebp]
  00124	c6 45 fc 01	 mov	 BYTE PTR __$EHRec$[ebp+8], 1
  00128	e8 00 00 00 00	 call	 ??0CDlgAnalysisAdjustRatio@@QAE@PAUHWND__@@PAVCWnd@@@Z ; CDlgAnalysisAdjustRatio::CDlgAnalysisAdjustRatio

; 871  : 			dlg.SetValue(0,CTool::GetPosCoordinate(m_points1.GetDrawingPoint()).GetY());

  0012d	8d 45 ec	 lea	 eax, DWORD PTR $T10[ebp]
  00130	c6 45 fc 02	 mov	 BYTE PTR __$EHRec$[ebp+8], 2
  00134	50		 push	 eax
  00135	8d 8f 88 00 00
	00		 lea	 ecx, DWORD PTR [edi+136]
  0013b	e8 00 00 00 00	 call	 ?GetDrawingPoint@CPoints@@QBE?AVCPoint@@XZ ; CPoints::GetDrawingPoint
  00140	50		 push	 eax
  00141	8d 45 cc	 lea	 eax, DWORD PTR $T6[ebp]
  00144	8b cf		 mov	 ecx, edi
  00146	50		 push	 eax
  00147	e8 00 00 00 00	 call	 ?GetPosCoordinate@CTool@@IBE?AVCCoordinate@@ABVCPoint@@@Z ; CTool::GetPosCoordinate
  0014c	8b c8		 mov	 ecx, eax
  0014e	c6 45 fc 03	 mov	 BYTE PTR __$EHRec$[ebp+8], 3
  00152	e8 00 00 00 00	 call	 ?GetY@CCoordinate@@QBENXZ ; CCoordinate::GetY
  00157	83 ec 08	 sub	 esp, 8
  0015a	8d 8d 5c fe ff
	ff		 lea	 ecx, DWORD PTR _dlg$2[ebp]
  00160	dd 1c 24	 fstp	 QWORD PTR [esp]
  00163	6a 00		 push	 0
  00165	e8 00 00 00 00	 call	 ?SetValue@CDlgAnalysisAdjustRatio@@QAEXHN@Z ; CDlgAnalysisAdjustRatio::SetValue
  0016a	8d 4d e0	 lea	 ecx, DWORD PTR $T6[ebp+20]
  0016d	c6 45 fc 02	 mov	 BYTE PTR __$EHRec$[ebp+8], 2
  00171	ff 15 00 00 00
	00		 call	 DWORD PTR __imp_??1?$CStringT@DV?$StrTraitMFC_DLL@DV?$ChTraitsCRT@D@ATL@@@@@ATL@@QAE@XZ

; 872  : 			dlg.SetValue(1,CTool::GetPosCoordinate(m_points2.GetDrawingPoint()).GetY());

  00177	8d 45 ec	 lea	 eax, DWORD PTR $T9[ebp]
  0017a	50		 push	 eax
  0017b	8d 8f b0 00 00
	00		 lea	 ecx, DWORD PTR [edi+176]
  00181	e8 00 00 00 00	 call	 ?GetDrawingPoint@CPoints@@QBE?AVCPoint@@XZ ; CPoints::GetDrawingPoint
  00186	50		 push	 eax
  00187	8d 45 cc	 lea	 eax, DWORD PTR $T5[ebp]
  0018a	8b cf		 mov	 ecx, edi
  0018c	50		 push	 eax
  0018d	e8 00 00 00 00	 call	 ?GetPosCoordinate@CTool@@IBE?AVCCoordinate@@ABVCPoint@@@Z ; CTool::GetPosCoordinate
  00192	8b c8		 mov	 ecx, eax
  00194	c6 45 fc 04	 mov	 BYTE PTR __$EHRec$[ebp+8], 4
  00198	e8 00 00 00 00	 call	 ?GetY@CCoordinate@@QBENXZ ; CCoordinate::GetY
  0019d	83 ec 08	 sub	 esp, 8
  001a0	8d 8d 5c fe ff
	ff		 lea	 ecx, DWORD PTR _dlg$2[ebp]
  001a6	dd 1c 24	 fstp	 QWORD PTR [esp]
  001a9	6a 01		 push	 1
  001ab	e8 00 00 00 00	 call	 ?SetValue@CDlgAnalysisAdjustRatio@@QAEXHN@Z ; CDlgAnalysisAdjustRatio::SetValue
  001b0	8d 4d e0	 lea	 ecx, DWORD PTR $T5[ebp+20]
  001b3	c6 45 fc 02	 mov	 BYTE PTR __$EHRec$[ebp+8], 2
  001b7	ff 15 00 00 00
	00		 call	 DWORD PTR __imp_??1?$CStringT@DV?$StrTraitMFC_DLL@DV?$ChTraitsCRT@D@ATL@@@@@ATL@@QAE@XZ

; 873  : 			dlg.SetValue(2,CTool::GetPosCoordinate(m_points3.GetDrawingPoint()).GetY());

  001bd	8d 45 ec	 lea	 eax, DWORD PTR $T8[ebp]
  001c0	50		 push	 eax
  001c1	8d 8f d8 00 00
	00		 lea	 ecx, DWORD PTR [edi+216]
  001c7	e8 00 00 00 00	 call	 ?GetDrawingPoint@CPoints@@QBE?AVCPoint@@XZ ; CPoints::GetDrawingPoint
  001cc	50		 push	 eax
  001cd	8d 45 cc	 lea	 eax, DWORD PTR $T4[ebp]
  001d0	8b cf		 mov	 ecx, edi
  001d2	50		 push	 eax
  001d3	e8 00 00 00 00	 call	 ?GetPosCoordinate@CTool@@IBE?AVCCoordinate@@ABVCPoint@@@Z ; CTool::GetPosCoordinate
  001d8	8b c8		 mov	 ecx, eax
  001da	c6 45 fc 05	 mov	 BYTE PTR __$EHRec$[ebp+8], 5
  001de	e8 00 00 00 00	 call	 ?GetY@CCoordinate@@QBENXZ ; CCoordinate::GetY
  001e3	83 ec 08	 sub	 esp, 8
  001e6	8d 8d 5c fe ff
	ff		 lea	 ecx, DWORD PTR _dlg$2[ebp]
  001ec	dd 1c 24	 fstp	 QWORD PTR [esp]
  001ef	6a 02		 push	 2
  001f1	e8 00 00 00 00	 call	 ?SetValue@CDlgAnalysisAdjustRatio@@QAEXHN@Z ; CDlgAnalysisAdjustRatio::SetValue
  001f6	8d 4d e0	 lea	 ecx, DWORD PTR $T4[ebp+20]
  001f9	c6 45 fc 02	 mov	 BYTE PTR __$EHRec$[ebp+8], 2
  001fd	ff 15 00 00 00
	00		 call	 DWORD PTR __imp_??1?$CStringT@DV?$StrTraitMFC_DLL@DV?$ChTraitsCRT@D@ATL@@@@@ATL@@QAE@XZ

; 874  : 			dlg.DoModal();

  00203	8d 8d 5c fe ff
	ff		 lea	 ecx, DWORD PTR _dlg$2[ebp]
  00209	e8 00 00 00 00	 call	 ?DoModal@CDialog@@UAEHXZ ; CDialog::DoModal
  0020e	8d 8d 04 ff ff
	ff		 lea	 ecx, DWORD PTR _dlg$2[ebp+168]
  00214	e8 00 00 00 00	 call	 ??1CListCtrl@@UAE@XZ	; CListCtrl::~CListCtrl
  00219	8d 8d 5c fe ff
	ff		 lea	 ecx, DWORD PTR _dlg$2[ebp]
  0021f	e8 00 00 00 00	 call	 ??1CDialog@@UAE@XZ	; CDialog::~CDialog
; File D:\git\src\IBK\IBK_DRFN\ProjSrc\SrcChartEx\ChartAddIn\ChartAnalysisToolAddIn\Include_Chart\Dll_Load\IMetaTable.h

; 1038 : 	{

  00224	c6 45 fc 06	 mov	 BYTE PTR __$EHRec$[ebp+8], 6
; File C:\Program Files (x86)\Microsoft Visual Studio\2019\Community\VC\Tools\MSVC\14.29.30133\atlmfc\include\afxwin1.inl

; 27   : 	{ ASSERT(hInstResource != NULL); afxCurrentResourceHandle = hInstResource; }

  00228	e8 00 00 00 00	 call	 ?AfxGetModuleState@@YGPAVAFX_MODULE_STATE@@XZ ; AfxGetModuleState
  0022d	89 70 0c	 mov	 DWORD PTR [eax+12], esi
; File D:\git\src\IBK\IBK_DRFN\ProjSrc\SrcChartEx\ChartAddIn\ChartAnalysisToolAddIn\AnalysisTool\PointTool.cpp

; 875  : 		}

  00230	eb 14		 jmp	 SHORT $LN5@OnLButtonU
$LN4@OnLButtonU:

; 876  : 		else
; 877  : 		{
; 878  : 			CTool::MakeElement(points.GetDrawingPoint());

  00232	8d 45 ec	 lea	 eax, DWORD PTR $T7[ebp]
  00235	50		 push	 eax
  00236	8d 4d a4	 lea	 ecx, DWORD PTR _points$3[ebp]
  00239	e8 00 00 00 00	 call	 ?GetDrawingPoint@CPoints@@QBE?AVCPoint@@XZ ; CPoints::GetDrawingPoint
  0023e	50		 push	 eax
  0023f	8b cf		 mov	 ecx, edi
  00241	e8 00 00 00 00	 call	 ?MakeElement@CTool@@IAEXABVCPoint@@@Z ; CTool::MakeElement
$LN5@OnLButtonU:

; 879  : 		}		
; 880  : 	}

  00246	8d 4d b8	 lea	 ecx, DWORD PTR _points$3[ebp+20]
  00249	c7 45 fc ff ff
	ff ff		 mov	 DWORD PTR __$EHRec$[ebp+8], -1
  00250	ff 15 00 00 00
	00		 call	 DWORD PTR __imp_??1?$CStringT@DV?$StrTraitMFC_DLL@DV?$ChTraitsCRT@D@ATL@@@@@ATL@@QAE@XZ
$LN51@OnLButtonU:

; 881  : 	
; 882  : 	Initialize();

  00256	8b 07		 mov	 eax, DWORD PTR [edi]
  00258	8b cf		 mov	 ecx, edi
  0025a	ff 10		 call	 DWORD PTR [eax]

; 883  : }

  0025c	8b 4d f4	 mov	 ecx, DWORD PTR __$EHRec$[ebp]
  0025f	64 89 0d 00 00
	00 00		 mov	 DWORD PTR fs:0, ecx
  00266	59		 pop	 ecx
  00267	5f		 pop	 edi
  00268	5e		 pop	 esi
  00269	5b		 pop	 ebx
  0026a	8b e5		 mov	 esp, ebp
  0026c	5d		 pop	 ebp
  0026d	c2 08 00	 ret	 8
_TEXT	ENDS
;	COMDAT text$x
text$x	SEGMENT
__unwindfunclet$?OnLButtonUp@CThreePointDownTool@@UAEXPAVCDC@@ABVCPoint@@@Z$0:
  00000	8d 4d a4	 lea	 ecx, DWORD PTR _points$3[ebp]
  00003	e9 00 00 00 00	 jmp	 ??1CPoints@@QAE@XZ
__unwindfunclet$?OnLButtonUp@CThreePointDownTool@@UAEXPAVCDC@@ABVCPoint@@@Z$1:
  00008	8d 4d 0c	 lea	 ecx, DWORD PTR ___mlrs__$11[ebp]
  0000b	e9 00 00 00 00	 jmp	 ??1CMultiLanguageResourceSetter@@QAE@XZ ; CMultiLanguageResourceSetter::~CMultiLanguageResourceSetter
__unwindfunclet$?OnLButtonUp@CThreePointDownTool@@UAEXPAVCDC@@ABVCPoint@@@Z$2:
  00010	8d 8d 5c fe ff
	ff		 lea	 ecx, DWORD PTR _dlg$2[ebp]
  00016	e9 00 00 00 00	 jmp	 ??1CDlgAnalysisAdjustRatio@@UAE@XZ
__unwindfunclet$?OnLButtonUp@CThreePointDownTool@@UAEXPAVCDC@@ABVCPoint@@@Z$3:
  0001b	8d 4d cc	 lea	 ecx, DWORD PTR $T6[ebp]
  0001e	e9 00 00 00 00	 jmp	 ??1CCoordinate@@QAE@XZ
__unwindfunclet$?OnLButtonUp@CThreePointDownTool@@UAEXPAVCDC@@ABVCPoint@@@Z$4:
  00023	8d 4d cc	 lea	 ecx, DWORD PTR $T5[ebp]
  00026	e9 00 00 00 00	 jmp	 ??1CCoordinate@@QAE@XZ
__unwindfunclet$?OnLButtonUp@CThreePointDownTool@@UAEXPAVCDC@@ABVCPoint@@@Z$5:
  0002b	8d 4d cc	 lea	 ecx, DWORD PTR $T4[ebp]
  0002e	e9 00 00 00 00	 jmp	 ??1CCoordinate@@QAE@XZ
  00033	cc		 int	 3
  00034	cc		 int	 3
  00035	cc		 int	 3
  00036	cc		 int	 3
  00037	cc		 int	 3
__ehhandler$?OnLButtonUp@CThreePointDownTool@@UAEXPAVCDC@@ABVCPoint@@@Z:
  00038	90		 npad	 1
  00039	90		 npad	 1
  0003a	8b 54 24 08	 mov	 edx, DWORD PTR [esp+8]
  0003e	8d 42 0c	 lea	 eax, DWORD PTR [edx+12]
  00041	8b 8a 58 fe ff
	ff		 mov	 ecx, DWORD PTR [edx-424]
  00047	33 c8		 xor	 ecx, eax
  00049	e8 00 00 00 00	 call	 @__security_check_cookie@4
  0004e	b8 00 00 00 00	 mov	 eax, OFFSET __ehfuncinfo$?OnLButtonUp@CThreePointDownTool@@UAEXPAVCDC@@ABVCPoint@@@Z
  00053	e9 00 00 00 00	 jmp	 ___CxxFrameHandler3
text$x	ENDS
?OnLButtonUp@CThreePointDownTool@@UAEXPAVCDC@@ABVCPoint@@@Z ENDP ; CThreePointDownTool::OnLButtonUp
; Function compile flags: /Ogtp
; File D:\git\src\IBK\IBK_DRFN\ProjSrc\SrcChartEx\ChartAddIn\ChartAnalysisToolAddIn\AnalysisTool\PointTool.cpp
;	COMDAT ?OnLButtonDown@CThreePointDownTool@@UAEPAVCElement@@PAVCDC@@ABVCPoint@@@Z
_TEXT	SEGMENT
$T1 = -8						; size = 8
_pDC$ = 8						; size = 4
_point$ = 12						; size = 4
?OnLButtonDown@CThreePointDownTool@@UAEPAVCElement@@PAVCDC@@ABVCPoint@@@Z PROC ; CThreePointDownTool::OnLButtonDown, COMDAT
; _this$ = ecx

; 852  : {

  00000	55		 push	 ebp
  00001	8b ec		 mov	 ebp, esp
  00003	83 ec 08	 sub	 esp, 8

; 853  : 	return CDownTool::OnLButtonDown(pDC, CTool::GetDrawingPointAndSetDataType(point));

  00006	8d 45 f8	 lea	 eax, DWORD PTR $T1[ebp]
  00009	56		 push	 esi
  0000a	57		 push	 edi
  0000b	ff 75 0c	 push	 DWORD PTR _point$[ebp]
  0000e	8b f9		 mov	 edi, ecx
  00010	50		 push	 eax
  00011	e8 00 00 00 00	 call	 ?GetDrawingPointAndSetDataType@CTool@@IAE?AVCPoint@@ABV2@@Z ; CTool::GetDrawingPointAndSetDataType

; 391  : 	CTool::SetProcessStarting(true);

  00016	6a 01		 push	 1
  00018	8b cf		 mov	 ecx, edi

; 853  : 	return CDownTool::OnLButtonDown(pDC, CTool::GetDrawingPointAndSetDataType(point));

  0001a	8b f0		 mov	 esi, eax

; 391  : 	CTool::SetProcessStarting(true);

  0001c	e8 00 00 00 00	 call	 ?SetProcessStarting@CTool@@QAEX_N@Z ; CTool::SetProcessStarting

; 392  : 	CTool::SetDrawingRegions(point);

  00021	56		 push	 esi
  00022	8b cf		 mov	 ecx, edi
  00024	e8 00 00 00 00	 call	 ?SetDrawingRegions@CTool@@IAEXABVCPoint@@@Z ; CTool::SetDrawingRegions

; 393  : 	if(GetToolType() != CAnalysis::EN_ANALYSIS_DOWN_CROSS)

  00029	8b 07		 mov	 eax, DWORD PTR [edi]
  0002b	8b cf		 mov	 ecx, edi
  0002d	ff 50 24	 call	 DWORD PTR [eax+36]
  00030	83 f8 02	 cmp	 eax, 2
  00033	74 09		 je	 SHORT $LN6@OnLButtonD

; 394  : 		CTool::ChangeCursor(CToolEnumData::DRAW_PEN);

  00035	6a 01		 push	 1
  00037	8b cf		 mov	 ecx, edi
  00039	e8 00 00 00 00	 call	 ?ChangeCursor@CTool@@IAEXW4DrawType@CToolEnumData@@@Z ; CTool::ChangeCursor
$LN6@OnLButtonD:
  0003e	5f		 pop	 edi

; 854  : }

  0003f	33 c0		 xor	 eax, eax
  00041	5e		 pop	 esi
  00042	8b e5		 mov	 esp, ebp
  00044	5d		 pop	 ebp
  00045	c2 08 00	 ret	 8
?OnLButtonDown@CThreePointDownTool@@UAEPAVCElement@@PAVCDC@@ABVCPoint@@@Z ENDP ; CThreePointDownTool::OnLButtonDown
_TEXT	ENDS
; Function compile flags: /Ogtp
; File D:\git\src\IBK\IBK_DRFN\ProjSrc\SrcChartEx\ChartAddIn\ChartAnalysisToolAddIn\AnalysisTool\PointTool.cpp
;	COMDAT ?Initialize@CThreePointDownTool@@UAEXXZ
_TEXT	SEGMENT
$T1 = -4						; size = 1
?Initialize@CThreePointDownTool@@UAEXXZ PROC		; CThreePointDownTool::Initialize, COMDAT
; _this$ = ecx

; 845  : {

  00000	55		 push	 ebp
  00001	8b ec		 mov	 ebp, esp
  00003	51		 push	 ecx
  00004	56		 push	 esi
  00005	8b f1		 mov	 esi, ecx

; 381  : 	CTool::Initialize();

  00007	e8 00 00 00 00	 call	 ?Initialize@CTool@@UAEXXZ ; CTool::Initialize

; 382  : 	if(GetToolType() == CAnalysis::EN_ANALYSIS_DOWN_CROSS)

  0000c	8b 06		 mov	 eax, DWORD PTR [esi]
  0000e	8b ce		 mov	 ecx, esi
  00010	ff 50 24	 call	 DWORD PTR [eax+36]
  00013	83 f8 02	 cmp	 eax, 2

; 846  : 	CDownTool::Initialize();
; 847  : 	m_nPointCount = 0;

  00016	8b ce		 mov	 ecx, esi

; 382  : 	if(GetToolType() == CAnalysis::EN_ANALYSIS_DOWN_CROSS)

  00018	0f 94 45 fc	 sete	 BYTE PTR $T1[ebp]

; 846  : 	CDownTool::Initialize();
; 847  : 	m_nPointCount = 0;

  0001c	ff 75 fc	 push	 DWORD PTR $T1[ebp]
  0001f	e8 00 00 00 00	 call	 ?SetProcessStarting@CTool@@QAEX_N@Z ; CTool::SetProcessStarting
  00024	c7 86 80 00 00
	00 00 00 00 00	 mov	 DWORD PTR [esi+128], 0
  0002e	5e		 pop	 esi

; 848  : }

  0002f	8b e5		 mov	 esp, ebp
  00031	5d		 pop	 ebp
  00032	c3		 ret	 0
?Initialize@CThreePointDownTool@@UAEXXZ ENDP		; CThreePointDownTool::Initialize
_TEXT	ENDS
; Function compile flags: /Ogtp
; File D:\git\src\IBK\IBK_DRFN\ProjSrc\SrcChartEx\ChartAddIn\ChartAnalysisToolAddIn\AnalysisTool\PointTool.cpp
; File C:\Program Files (x86)\Microsoft Visual Studio\2019\Community\VC\Tools\MSVC\14.29.30133\atlmfc\include\atltypes.h
; File D:\git\src\IBK\IBK_DRFN\ProjSrc\SrcChartEx\ChartAddIn\ChartAnalysisToolAddIn\AnalysisTool\PointTool.cpp
;	COMDAT ??0CThreePointDownTool@@IAE@PAVCAnalysisData@@W4COORDINATETYPE@CAnalysis@@@Z
_TEXT	SEGMENT
_this$ = -16						; size = 4
__$EHRec$ = -12						; size = 12
_pAnalysisData$ = 8					; size = 4
_eCoordinateType$ = 12					; size = 4
??0CThreePointDownTool@@IAE@PAVCAnalysisData@@W4COORDINATETYPE@CAnalysis@@@Z PROC ; CThreePointDownTool::CThreePointDownTool, COMDAT
; _this$ = ecx

; 837  : {

  00000	55		 push	 ebp
  00001	8b ec		 mov	 ebp, esp
  00003	6a ff		 push	 -1
  00005	68 00 00 00 00	 push	 __ehhandler$??0CThreePointDownTool@@IAE@PAVCAnalysisData@@W4COORDINATETYPE@CAnalysis@@@Z
  0000a	64 a1 00 00 00
	00		 mov	 eax, DWORD PTR fs:0
  00010	50		 push	 eax
  00011	51		 push	 ecx
  00012	56		 push	 esi
  00013	a1 00 00 00 00	 mov	 eax, DWORD PTR ___security_cookie
  00018	33 c5		 xor	 eax, ebp
  0001a	50		 push	 eax
  0001b	8d 45 f4	 lea	 eax, DWORD PTR __$EHRec$[ebp]
  0001e	64 a3 00 00 00
	00		 mov	 DWORD PTR fs:0, eax
  00024	8b f1		 mov	 esi, ecx
  00026	89 75 f0	 mov	 DWORD PTR _this$[ebp], esi

; 371  : 	CTool(pAnalysisData, eCoordinateType)

  00029	ff 75 0c	 push	 DWORD PTR _eCoordinateType$[ebp]
  0002c	ff 75 08	 push	 DWORD PTR _pAnalysisData$[ebp]
  0002f	e8 00 00 00 00	 call	 ??0CTool@@IAE@PAVCAnalysisData@@W4COORDINATETYPE@CAnalysis@@@Z ; CTool::CTool

; 372  : {	

  00034	c7 06 00 00 00
	00		 mov	 DWORD PTR [esi], OFFSET ??_7CDownTool@@6B@

; 373  : 	CTool::Initialize();

  0003a	8b ce		 mov	 ecx, esi
  0003c	c7 45 fc 00 00
	00 00		 mov	 DWORD PTR __$EHRec$[ebp+8], 0
; File C:\Program Files (x86)\Microsoft Visual Studio\2019\Community\VC\Tools\MSVC\14.29.30133\atlmfc\include\atltypes.h

; 400  : 	x = 0;

  00043	c7 46 78 00 00
	00 00		 mov	 DWORD PTR [esi+120], 0

; 401  : 	y = 0;

  0004a	c7 46 7c 00 00
	00 00		 mov	 DWORD PTR [esi+124], 0
; File D:\git\src\IBK\IBK_DRFN\ProjSrc\SrcChartEx\ChartAddIn\ChartAnalysisToolAddIn\AnalysisTool\PointTool.cpp

; 373  : 	CTool::Initialize();

  00051	e8 00 00 00 00	 call	 ?Initialize@CTool@@UAEXXZ ; CTool::Initialize

; 374  : 	CTool::SetProcessStarting(false);

  00056	6a 00		 push	 0
  00058	8b ce		 mov	 ecx, esi
  0005a	e8 00 00 00 00	 call	 ?SetProcessStarting@CTool@@QAEX_N@Z ; CTool::SetProcessStarting

; 837  : {

  0005f	8d 8e 88 00 00
	00		 lea	 ecx, DWORD PTR [esi+136]
  00065	c7 45 fc 01 00
	00 00		 mov	 DWORD PTR __$EHRec$[ebp+8], 1
  0006c	c7 06 00 00 00
	00		 mov	 DWORD PTR [esi], OFFSET ??_7CThreePointDownTool@@6B@
  00072	e8 00 00 00 00	 call	 ??0CPoints@@QAE@XZ	; CPoints::CPoints
  00077	8d 8e b0 00 00
	00		 lea	 ecx, DWORD PTR [esi+176]
  0007d	c6 45 fc 02	 mov	 BYTE PTR __$EHRec$[ebp+8], 2
  00081	e8 00 00 00 00	 call	 ??0CPoints@@QAE@XZ	; CPoints::CPoints
  00086	8d 8e d8 00 00
	00		 lea	 ecx, DWORD PTR [esi+216]
  0008c	c6 45 fc 03	 mov	 BYTE PTR __$EHRec$[ebp+8], 3
  00090	e8 00 00 00 00	 call	 ??0CPoints@@QAE@XZ	; CPoints::CPoints

; 838  : 	CTool::Initialize();

  00095	8b ce		 mov	 ecx, esi
  00097	c6 45 fc 04	 mov	 BYTE PTR __$EHRec$[ebp+8], 4
  0009b	e8 00 00 00 00	 call	 ?Initialize@CTool@@UAEXXZ ; CTool::Initialize

; 839  : 	CTool::SetProcessStarting(false);

  000a0	6a 00		 push	 0
  000a2	8b ce		 mov	 ecx, esi
  000a4	e8 00 00 00 00	 call	 ?SetProcessStarting@CTool@@QAEX_N@Z ; CTool::SetProcessStarting

; 840  : }

  000a9	8b c6		 mov	 eax, esi
  000ab	8b 4d f4	 mov	 ecx, DWORD PTR __$EHRec$[ebp]
  000ae	64 89 0d 00 00
	00 00		 mov	 DWORD PTR fs:0, ecx
  000b5	59		 pop	 ecx
  000b6	5e		 pop	 esi
  000b7	8b e5		 mov	 esp, ebp
  000b9	5d		 pop	 ebp
  000ba	c2 08 00	 ret	 8
_TEXT	ENDS
;	COMDAT text$x
text$x	SEGMENT
__unwindfunclet$??0CThreePointDownTool@@IAE@PAVCAnalysisData@@W4COORDINATETYPE@CAnalysis@@@Z$4:
  00000	8b 4d f0	 mov	 ecx, DWORD PTR _this$[ebp]
  00003	e9 00 00 00 00	 jmp	 ??1CTool@@QAE@XZ
__unwindfunclet$??0CThreePointDownTool@@IAE@PAVCAnalysisData@@W4COORDINATETYPE@CAnalysis@@@Z$0:
  00008	8b 4d f0	 mov	 ecx, DWORD PTR _this$[ebp]
  0000b	e9 00 00 00 00	 jmp	 ??1CDownTool@@QAE@XZ
__unwindfunclet$??0CThreePointDownTool@@IAE@PAVCAnalysisData@@W4COORDINATETYPE@CAnalysis@@@Z$1:
  00010	8b 4d f0	 mov	 ecx, DWORD PTR _this$[ebp]
  00013	81 c1 88 00 00
	00		 add	 ecx, 136		; 00000088H
  00019	e9 00 00 00 00	 jmp	 ??1CPoints@@QAE@XZ
__unwindfunclet$??0CThreePointDownTool@@IAE@PAVCAnalysisData@@W4COORDINATETYPE@CAnalysis@@@Z$2:
  0001e	8b 4d f0	 mov	 ecx, DWORD PTR _this$[ebp]
  00021	81 c1 b0 00 00
	00		 add	 ecx, 176		; 000000b0H
  00027	e9 00 00 00 00	 jmp	 ??1CPoints@@QAE@XZ
__unwindfunclet$??0CThreePointDownTool@@IAE@PAVCAnalysisData@@W4COORDINATETYPE@CAnalysis@@@Z$3:
  0002c	8b 4d f0	 mov	 ecx, DWORD PTR _this$[ebp]
  0002f	81 c1 d8 00 00
	00		 add	 ecx, 216		; 000000d8H
  00035	e9 00 00 00 00	 jmp	 ??1CPoints@@QAE@XZ
  0003a	cc		 int	 3
  0003b	cc		 int	 3
  0003c	cc		 int	 3
  0003d	cc		 int	 3
  0003e	cc		 int	 3
__ehhandler$??0CThreePointDownTool@@IAE@PAVCAnalysisData@@W4COORDINATETYPE@CAnalysis@@@Z:
  0003f	90		 npad	 1
  00040	90		 npad	 1
  00041	8b 54 24 08	 mov	 edx, DWORD PTR [esp+8]
  00045	8d 42 0c	 lea	 eax, DWORD PTR [edx+12]
  00048	8b 4a f4	 mov	 ecx, DWORD PTR [edx-12]
  0004b	33 c8		 xor	 ecx, eax
  0004d	e8 00 00 00 00	 call	 @__security_check_cookie@4
  00052	b8 00 00 00 00	 mov	 eax, OFFSET __ehfuncinfo$??0CThreePointDownTool@@IAE@PAVCAnalysisData@@W4COORDINATETYPE@CAnalysis@@@Z
  00057	e9 00 00 00 00	 jmp	 ___CxxFrameHandler3
text$x	ENDS
??0CThreePointDownTool@@IAE@PAVCAnalysisData@@W4COORDINATETYPE@CAnalysis@@@Z ENDP ; CThreePointDownTool::CThreePointDownTool
; Function compile flags: /Ogtp
; File D:\git\src\IBK\IBK_DRFN\ProjSrc\SrcChartEx\ChartAddIn\ChartAnalysisToolAddIn\AnalysisTool\PointTool.cpp
; File D:\git\src\IBK\IBK_DRFN\ProjSrc\SrcChartEx\ChartAddIn\ChartAnalysisToolAddIn\Include_AddIn_133101\I133101\_IString.h
; File D:\git\src\IBK\IBK_DRFN\ProjSrc\SrcChartEx\ChartAddIn\ChartAnalysisToolAddIn\AnalysisTool\PointTool.cpp
; File D:\git\src\IBK\IBK_DRFN\ProjSrc\SrcChartEx\ChartAddIn\ChartAnalysisToolAddIn\Include_AddIn_133101\I133101\_IString.h
; File D:\git\src\IBK\IBK_DRFN\ProjSrc\SrcChartEx\ChartAddIn\ChartAnalysisToolAddIn\AnalysisTool\PointTool.cpp
; File D:\git\src\IBK\IBK_DRFN\ProjSrc\SrcChartEx\ChartAddIn\ChartAnalysisToolAddIn\Include_AddIn_133101\I133101\_IString.h
; File D:\git\src\IBK\IBK_DRFN\ProjSrc\SrcChartEx\ChartAddIn\ChartAnalysisToolAddIn\AnalysisTool\PointTool.cpp
; File D:\git\src\IBK\IBK_DRFN\ProjSrc\SrcChartEx\ChartAddIn\ChartAnalysisToolAddIn\Include_AddIn_133101\I133101\_IString.h
; File D:\git\src\IBK\IBK_DRFN\ProjSrc\SrcChartEx\ChartAddIn\ChartAnalysisToolAddIn\AnalysisTool\PointTool.cpp
;	COMDAT ?GetTwoPointDrawingData@CTwoPointDownTool@@ABE?AVCTwoPointDrawingData@@XZ
_TEXT	SEGMENT
$T2 = -584						; size = 72
$T3 = -512						; size = 72
$T4 = -440						; size = 72
$T5 = -368						; size = 72
$T6 = -296						; size = 40
$T7 = -256						; size = 40
$T8 = -216						; size = 8
$T9 = -208						; size = 8
$T10 = -200						; size = 8
$T11 = -200						; size = 8
_szRQ$ = -192						; size = 8
___$ReturnUdt$GSCopy$1$ = -184				; size = 4
$T12 = -178						; size = 2
_eDateUnit$1$ = -176					; size = 4
___$ReturnUdt$GSCopy$ = -176				; size = 4
_strPacketType$ = -172					; size = 4
_szHelpMsg$ = -168					; size = 8
_strDataType$ = -160					; size = 4
_this$GSCopy$1$ = -156					; size = 4
_calData$ = -152					; size = 96
$T13 = -56						; size = 40
$T14 = -48						; size = 32
__$ArrayPad$ = -16					; size = 4
__$EHRec$ = -12						; size = 12
___$ReturnUdt$ = 8					; size = 4
?GetTwoPointDrawingData@CTwoPointDownTool@@ABE?AVCTwoPointDrawingData@@XZ PROC ; CTwoPointDownTool::GetTwoPointDrawingData, COMDAT
; _this$ = ecx

; 792  : {

  00000	55		 push	 ebp
  00001	8b ec		 mov	 ebp, esp
  00003	6a ff		 push	 -1
  00005	68 00 00 00 00	 push	 __ehhandler$?GetTwoPointDrawingData@CTwoPointDownTool@@ABE?AVCTwoPointDrawingData@@XZ
  0000a	64 a1 00 00 00
	00		 mov	 eax, DWORD PTR fs:0
  00010	50		 push	 eax
  00011	81 ec 3c 02 00
	00		 sub	 esp, 572		; 0000023cH
  00017	a1 00 00 00 00	 mov	 eax, DWORD PTR ___security_cookie
  0001c	33 c5		 xor	 eax, ebp
  0001e	89 45 f0	 mov	 DWORD PTR __$ArrayPad$[ebp], eax
  00021	53		 push	 ebx
  00022	56		 push	 esi
  00023	57		 push	 edi
  00024	50		 push	 eax
  00025	8d 45 f4	 lea	 eax, DWORD PTR __$EHRec$[ebp]
  00028	64 a3 00 00 00
	00		 mov	 DWORD PTR fs:0, eax
  0002e	8b d9		 mov	 ebx, ecx
  00030	89 9d 64 ff ff
	ff		 mov	 DWORD PTR _this$GSCopy$1$[ebp], ebx
  00036	8b 45 08	 mov	 eax, DWORD PTR ___$ReturnUdt$[ebp]
  00039	89 85 48 ff ff
	ff		 mov	 DWORD PTR ___$ReturnUdt$GSCopy$1$[ebp], eax
  0003f	89 85 50 ff ff
	ff		 mov	 DWORD PTR ___$ReturnUdt$GSCopy$[ebp], eax
; File D:\git\src\IBK\IBK_DRFN\ProjSrc\SrcChartEx\ChartAddIn\ChartAnalysisToolAddIn\Include_AddIn_133101\I133101\_IString.h

; 39   : 		m_pIStrData = p_pIString;	// Do not AddRef(). Because It must be Return Value.

  00045	c7 85 5c ff ff
	ff 00 00 00 00	 mov	 DWORD PTR _szHelpMsg$[ebp+4], 0

; 41   : 		else m_szData = NULL;

  0004f	c7 85 58 ff ff
	ff 00 00 00 00	 mov	 DWORD PTR _szHelpMsg$[ebp], 0
; File D:\git\src\IBK\IBK_DRFN\ProjSrc\SrcChartEx\ChartAddIn\ChartAnalysisToolAddIn\AnalysisTool\PointTool.cpp

; 808  : 	CString strDataType, strPacketType;	

  00059	8d 8d 60 ff ff
	ff		 lea	 ecx, DWORD PTR _strDataType$[ebp]
  0005f	c7 45 fc 00 00
	00 00		 mov	 DWORD PTR __$EHRec$[ebp+8], 0
  00066	ff 15 00 00 00
	00		 call	 DWORD PTR __imp_??0?$CStringT@DV?$StrTraitMFC_DLL@DV?$ChTraitsCRT@D@ATL@@@@@ATL@@QAE@XZ
  0006c	8d 8d 54 ff ff
	ff		 lea	 ecx, DWORD PTR _strPacketType$[ebp]
  00072	ff 15 00 00 00
	00		 call	 DWORD PTR __imp_??0?$CStringT@DV?$StrTraitMFC_DLL@DV?$ChTraitsCRT@D@ATL@@@@@ATL@@QAE@XZ

; 475  : 	return m_upPoints;

  00078	8d bb a8 00 00
	00		 lea	 edi, DWORD PTR [ebx+168]

; 808  : 	CString strDataType, strPacketType;	

  0007e	c6 45 fc 02	 mov	 BYTE PTR __$EHRec$[ebp+8], 2
  00082	57		 push	 edi
  00083	8d 4d c8	 lea	 ecx, DWORD PTR $T13[ebp]
  00086	e8 00 00 00 00	 call	 ??0CCoordinate@@QAE@ABV0@@Z ; CCoordinate::CCoordinate
  0008b	8b 47 20	 mov	 eax, DWORD PTR [edi+32]
  0008e	8b 4f 24	 mov	 ecx, DWORD PTR [edi+36]
  00091	89 45 e8	 mov	 DWORD PTR $T13[ebp+32], eax
  00094	89 4d ec	 mov	 DWORD PTR $T13[ebp+36], ecx

; 809  : 	CCoordinateCalculatorData calData = GetCoordinateCalculatorData( COneOrTwoPointTool::GetUpPoints().GetDrawingPoint());

  00097	8d 85 38 ff ff
	ff		 lea	 eax, DWORD PTR $T11[ebp]
  0009d	c6 45 fc 03	 mov	 BYTE PTR __$EHRec$[ebp+8], 3
  000a1	50		 push	 eax
  000a2	8d 4d c8	 lea	 ecx, DWORD PTR $T13[ebp]
  000a5	e8 00 00 00 00	 call	 ?GetDrawingPoint@CPoints@@QBE?AVCPoint@@XZ ; CPoints::GetDrawingPoint
  000aa	50		 push	 eax
  000ab	8d 85 68 ff ff
	ff		 lea	 eax, DWORD PTR _calData$[ebp]
  000b1	8b cb		 mov	 ecx, ebx
  000b3	50		 push	 eax
  000b4	e8 00 00 00 00	 call	 ?GetCoordinateCalculatorData@CTool@@QBE?AVCCoordinateCalculatorData@@ABVCPoint@@@Z ; CTool::GetCoordinateCalculatorData
  000b9	8d 4d dc	 lea	 ecx, DWORD PTR $T13[ebp+20]
  000bc	c6 45 fc 05	 mov	 BYTE PTR __$EHRec$[ebp+8], 5
  000c0	ff 15 00 00 00
	00		 call	 DWORD PTR __imp_??1?$CStringT@DV?$StrTraitMFC_DLL@DV?$ChTraitsCRT@D@ATL@@@@@ATL@@QAE@XZ

; 810  : 	ILPCSTR szRQ = calData.m_pIChartOCX->GetCurrentRQ();

  000c6	8b 4d b4	 mov	 ecx, DWORD PTR _calData$[ebp+76]
  000c9	8b 01		 mov	 eax, DWORD PTR [ecx]
  000cb	ff 90 40 02 00
	00		 call	 DWORD PTR [eax+576]
; File D:\git\src\IBK\IBK_DRFN\ProjSrc\SrcChartEx\ChartAddIn\ChartAnalysisToolAddIn\Include_AddIn_133101\I133101\_IString.h

; 39   : 		m_pIStrData = p_pIString;	// Do not AddRef(). Because It must be Return Value.

  000d1	8b c8		 mov	 ecx, eax
  000d3	89 8d 44 ff ff
	ff		 mov	 DWORD PTR _szRQ$[ebp+4], ecx

; 40   : 		if( m_pIStrData) m_szData = m_pIStrData->GetData();

  000d9	85 c9		 test	 ecx, ecx
  000db	74 09		 je	 SHORT $LN35@GetTwoPoin
  000dd	8b 01		 mov	 eax, DWORD PTR [ecx]
  000df	ff 50 10	 call	 DWORD PTR [eax+16]
  000e2	8b d0		 mov	 edx, eax
  000e4	eb 02		 jmp	 SHORT $LN100@GetTwoPoin
$LN35@GetTwoPoin:

; 41   : 		else m_szData = NULL;

  000e6	33 d2		 xor	 edx, edx
$LN100@GetTwoPoin:
; File D:\git\src\IBK\IBK_DRFN\ProjSrc\SrcChartEx\ChartAddIn\ChartAnalysisToolAddIn\AnalysisTool\PointTool.cpp

; 810  : 	ILPCSTR szRQ = calData.m_pIChartOCX->GetCurrentRQ();

  000e8	89 95 40 ff ff
	ff		 mov	 DWORD PTR _szRQ$[ebp], edx

; 811  : 	IPacketManager * pCurPacketManager = calData.m_pIPacketListManager->GetPacketManager(szRQ);

  000ee	8b 4d b8	 mov	 ecx, DWORD PTR _calData$[ebp+80]
  000f1	52		 push	 edx
  000f2	c6 45 fc 06	 mov	 BYTE PTR __$EHRec$[ebp+8], 6
  000f6	8b 01		 mov	 eax, DWORD PTR [ecx]
  000f8	ff 50 10	 call	 DWORD PTR [eax+16]
  000fb	8b f0		 mov	 esi, eax

; 812  : 	pCurPacketManager->GetHelpMessageItem("UD", szHelpMsg); strDataType = szHelpMsg;

  000fd	8d 8d 58 ff ff
	ff		 lea	 ecx, DWORD PTR _szHelpMsg$[ebp]
  00103	51		 push	 ecx
  00104	68 00 00 00 00	 push	 OFFSET ??_C@_02PONMEALH@UD@
  00109	8b ce		 mov	 ecx, esi
  0010b	8b 06		 mov	 eax, DWORD PTR [esi]
  0010d	ff 50 18	 call	 DWORD PTR [eax+24]
  00110	ff b5 58 ff ff
	ff		 push	 DWORD PTR _szHelpMsg$[ebp]
  00116	8d 8d 60 ff ff
	ff		 lea	 ecx, DWORD PTR _strDataType$[ebp]
  0011c	ff 15 00 00 00
	00		 call	 DWORD PTR __imp_??4?$CStringT@DV?$StrTraitMFC_DLL@DV?$ChTraitsCRT@D@ATL@@@@@ATL@@QAEAAV01@PBD@Z

; 813  : 	pCurPacketManager->GetHelpMessageItem("RDATET", szHelpMsg); strPacketType = szHelpMsg;

  00122	8b 06		 mov	 eax, DWORD PTR [esi]
  00124	8d 8d 58 ff ff
	ff		 lea	 ecx, DWORD PTR _szHelpMsg$[ebp]
  0012a	51		 push	 ecx
  0012b	68 00 00 00 00	 push	 OFFSET ??_C@_06MLGKKOBC@RDATET@
  00130	8b ce		 mov	 ecx, esi
  00132	ff 50 18	 call	 DWORD PTR [eax+24]
  00135	ff b5 58 ff ff
	ff		 push	 DWORD PTR _szHelpMsg$[ebp]
  0013b	8d 8d 54 ff ff
	ff		 lea	 ecx, DWORD PTR _strPacketType$[ebp]
  00141	ff 15 00 00 00
	00		 call	 DWORD PTR __imp_??4?$CStringT@DV?$StrTraitMFC_DLL@DV?$ChTraitsCRT@D@ATL@@@@@ATL@@QAEAAV01@PBD@Z

; 814  : 	CScaleBaseData::HORZSCALEDRAWERTYPE eDateUnit = (CScaleBaseData::HORZSCALEDRAWERTYPE)atoi(strDataType);

  00147	ff b5 60 ff ff
	ff		 push	 DWORD PTR _strDataType$[ebp]
  0014d	ff 15 00 00 00
	00		 call	 DWORD PTR __imp__atoi
  00153	83 c4 04	 add	 esp, 4
  00156	89 85 50 ff ff
	ff		 mov	 DWORD PTR _eDateUnit$1$[ebp], eax

; 816  : 	return CTwoPointDrawingData(

  0015c	8d 85 b8 fd ff
	ff		 lea	 eax, DWORD PTR $T2[ebp]
  00162	8b cb		 mov	 ecx, ebx
  00164	50		 push	 eax
  00165	e8 00 00 00 00	 call	 ?GetElementCommonEnvironment@CTool@@IBE?AVCElementCommonEnvironment@@XZ ; CTool::GetElementCommonEnvironment
  0016a	8b c8		 mov	 ecx, eax
  0016c	c6 45 fc 07	 mov	 BYTE PTR __$EHRec$[ebp+8], 7
  00170	e8 00 00 00 00	 call	 ?GetLineExt@CElementCommonEnvironment@@QAEAAVCLineExtEnvironment@@XZ ; CElementCommonEnvironment::GetLineExt
  00175	50		 push	 eax
  00176	8d 8d 38 ff ff
	ff		 lea	 ecx, DWORD PTR $T10[ebp]
  0017c	e8 00 00 00 00	 call	 ??0CLineExtEnvironment@@QAE@PAV0@@Z ; CLineExtEnvironment::CLineExtEnvironment
  00181	57		 push	 edi
  00182	8d 8d d8 fe ff
	ff		 lea	 ecx, DWORD PTR $T6[ebp]
  00188	e8 00 00 00 00	 call	 ??0CCoordinate@@QAE@ABV0@@Z ; CCoordinate::CCoordinate
  0018d	8b 47 20	 mov	 eax, DWORD PTR [edi+32]
  00190	8b 4f 24	 mov	 ecx, DWORD PTR [edi+36]
  00193	89 85 f8 fe ff
	ff		 mov	 DWORD PTR $T6[ebp+32], eax
  00199	89 8d fc fe ff
	ff		 mov	 DWORD PTR $T6[ebp+36], ecx
  0019f	57		 push	 edi
  001a0	8d 8d 00 ff ff
	ff		 lea	 ecx, DWORD PTR $T7[ebp]
  001a6	c6 45 fc 08	 mov	 BYTE PTR __$EHRec$[ebp+8], 8
  001aa	e8 00 00 00 00	 call	 ??0CCoordinate@@QAE@ABV0@@Z ; CCoordinate::CCoordinate
  001af	8b 47 20	 mov	 eax, DWORD PTR [edi+32]
  001b2	8b 4f 24	 mov	 ecx, DWORD PTR [edi+36]
  001b5	89 85 20 ff ff
	ff		 mov	 DWORD PTR $T7[ebp+32], eax
  001bb	89 8d 24 ff ff
	ff		 mov	 DWORD PTR $T7[ebp+36], ecx
  001c1	8d 85 00 fe ff
	ff		 lea	 eax, DWORD PTR $T3[ebp]
  001c7	c6 45 fc 09	 mov	 BYTE PTR __$EHRec$[ebp+8], 9
  001cb	50		 push	 eax
  001cc	8b cb		 mov	 ecx, ebx
  001ce	e8 00 00 00 00	 call	 ?GetElementCommonEnvironment@CTool@@IBE?AVCElementCommonEnvironment@@XZ ; CTool::GetElementCommonEnvironment
  001d3	8b d8		 mov	 ebx, eax
  001d5	8b 8d 64 ff ff
	ff		 mov	 ecx, DWORD PTR _this$GSCopy$1$[ebp]
  001db	8d 85 48 fe ff
	ff		 lea	 eax, DWORD PTR $T4[ebp]
  001e1	50		 push	 eax
  001e2	c6 45 fc 0a	 mov	 BYTE PTR __$EHRec$[ebp+8], 10 ; 0000000aH
  001e6	e8 00 00 00 00	 call	 ?GetElementCommonEnvironment@CTool@@IBE?AVCElementCommonEnvironment@@XZ ; CTool::GetElementCommonEnvironment
  001eb	8b f8		 mov	 edi, eax
  001ed	8b 8d 64 ff ff
	ff		 mov	 ecx, DWORD PTR _this$GSCopy$1$[ebp]
  001f3	8d 85 90 fe ff
	ff		 lea	 eax, DWORD PTR $T5[ebp]
  001f9	50		 push	 eax
  001fa	c6 45 fc 0b	 mov	 BYTE PTR __$EHRec$[ebp+8], 11 ; 0000000bH
  001fe	e8 00 00 00 00	 call	 ?GetElementCommonEnvironment@CTool@@IBE?AVCElementCommonEnvironment@@XZ ; CTool::GetElementCommonEnvironment
  00203	8b f0		 mov	 esi, eax
  00205	ff b5 50 ff ff
	ff		 push	 DWORD PTR _eDateUnit$1$[ebp]
  0020b	c6 45 fc 0c	 mov	 BYTE PTR __$EHRec$[ebp+8], 12 ; 0000000cH
  0020f	8d 85 d8 fe ff
	ff		 lea	 eax, DWORD PTR $T6[ebp]
  00215	50		 push	 eax
  00216	8b 85 64 ff ff
	ff		 mov	 eax, DWORD PTR _this$GSCopy$1$[ebp]
  0021c	8d 8d 00 ff ff
	ff		 lea	 ecx, DWORD PTR $T7[ebp]
  00222	05 d0 00 00 00	 add	 eax, 208		; 000000d0H
  00227	50		 push	 eax
  00228	8d 85 30 ff ff
	ff		 lea	 eax, DWORD PTR $T9[ebp]
  0022e	50		 push	 eax
  0022f	e8 00 00 00 00	 call	 ?GetDrawingPoint@CPoints@@QBE?AVCPoint@@XZ ; CPoints::GetDrawingPoint
  00234	8b 8d 64 ff ff
	ff		 mov	 ecx, DWORD PTR _this$GSCopy$1$[ebp]
  0023a	50		 push	 eax
  0023b	8d 85 4e ff ff
	ff		 lea	 eax, DWORD PTR $T12[ebp]
  00241	50		 push	 eax
  00242	e8 00 00 00 00	 call	 ?GetVertScaleType@CTool@@IBE?AVCVertScaleType@@ABVCPoint@@@Z ; CTool::GetVertScaleType
  00247	8b 8d 64 ff ff
	ff		 mov	 ecx, DWORD PTR _this$GSCopy$1$[ebp]
  0024d	50		 push	 eax
  0024e	8d 85 28 ff ff
	ff		 lea	 eax, DWORD PTR $T8[ebp]
  00254	50		 push	 eax
  00255	e8 00 00 00 00	 call	 ?GetDisplayAttributes@CTool@@IBE?AVCDisplayAttributes@@XZ ; CTool::GetDisplayAttributes
  0025a	8b 8d 64 ff ff
	ff		 mov	 ecx, DWORD PTR _this$GSCopy$1$[ebp]
  00260	50		 push	 eax
  00261	8d 45 d0	 lea	 eax, DWORD PTR $T14[ebp]
  00264	50		 push	 eax
  00265	e8 00 00 00 00	 call	 ?GetDrawingRegions@CTool@@IBEABVCDrawingRegions@@XZ ; CTool::GetDrawingRegions
  0026a	8b c8		 mov	 ecx, eax
  0026c	e8 00 00 00 00	 call	 ?GetCurrentGraphPartRegion@CDrawingRegions@@QBE?AVCGraphPartRegion@@XZ ; CDrawingRegions::GetCurrentGraphPartRegion
  00271	8b 8d 64 ff ff
	ff		 mov	 ecx, DWORD PTR _this$GSCopy$1$[ebp]
  00277	50		 push	 eax
  00278	8d 85 38 ff ff
	ff		 lea	 eax, DWORD PTR $T10[ebp]
  0027e	50		 push	 eax
  0027f	8b 01		 mov	 eax, DWORD PTR [ecx]
  00281	ff 50 2c	 call	 DWORD PTR [eax+44]
  00284	50		 push	 eax
  00285	8b cb		 mov	 ecx, ebx
  00287	e8 00 00 00 00	 call	 ?GetPriceRangeDiv@CElementCommonEnvironment@@QAEAAHXZ ; CElementCommonEnvironment::GetPriceRangeDiv
  0028c	50		 push	 eax
  0028d	8b cf		 mov	 ecx, edi
  0028f	e8 00 00 00 00	 call	 ?GetEquiDiv@CElementCommonEnvironment@@QAEAAHXZ ; CElementCommonEnvironment::GetEquiDiv
  00294	50		 push	 eax
  00295	8b ce		 mov	 ecx, esi
  00297	e8 00 00 00 00	 call	 ?GetDataType@CElementCommonEnvironment@@QAEAAVCDataTypeEnvironment@@XZ ; CElementCommonEnvironment::GetDataType
  0029c	8b b5 48 ff ff
	ff		 mov	 esi, DWORD PTR ___$ReturnUdt$GSCopy$1$[ebp]
  002a2	8b ce		 mov	 ecx, esi
  002a4	50		 push	 eax
  002a5	e8 00 00 00 00	 call	 ??0CTwoPointDrawingData@@QAE@ABVCDataTypeEnvironment@@ABH1PAVCTextPosition@@ABVCLineExtEnvironment@@ABVCGraphPartRegion@@ABVCDisplayAttributes@@ABVCVertScaleType@@ABVCPoints@@7W4HORZSCALEDRAWERTYPE@CScaleBaseData@@@Z ; CTwoPointDrawingData::CTwoPointDrawingData
  002aa	8d 8d c8 fe ff
	ff		 lea	 ecx, DWORD PTR $T5[ebp+56]
  002b0	ff 15 00 00 00
	00		 call	 DWORD PTR __imp_??1?$CStringT@DV?$StrTraitMFC_DLL@DV?$ChTraitsCRT@D@ATL@@@@@ATL@@QAE@XZ
  002b6	8d 8d c4 fe ff
	ff		 lea	 ecx, DWORD PTR $T5[ebp+52]
  002bc	ff 15 00 00 00
	00		 call	 DWORD PTR __imp_??1?$CStringT@DV?$StrTraitMFC_DLL@DV?$ChTraitsCRT@D@ATL@@@@@ATL@@QAE@XZ
  002c2	8d 8d c0 fe ff
	ff		 lea	 ecx, DWORD PTR $T5[ebp+48]
  002c8	ff 15 00 00 00
	00		 call	 DWORD PTR __imp_??1?$CStringT@DV?$StrTraitMFC_DLL@DV?$ChTraitsCRT@D@ATL@@@@@ATL@@QAE@XZ
  002ce	8d 8d 80 fe ff
	ff		 lea	 ecx, DWORD PTR $T4[ebp+56]
  002d4	ff 15 00 00 00
	00		 call	 DWORD PTR __imp_??1?$CStringT@DV?$StrTraitMFC_DLL@DV?$ChTraitsCRT@D@ATL@@@@@ATL@@QAE@XZ
  002da	8d 8d 7c fe ff
	ff		 lea	 ecx, DWORD PTR $T4[ebp+52]
  002e0	ff 15 00 00 00
	00		 call	 DWORD PTR __imp_??1?$CStringT@DV?$StrTraitMFC_DLL@DV?$ChTraitsCRT@D@ATL@@@@@ATL@@QAE@XZ
  002e6	8d 8d 78 fe ff
	ff		 lea	 ecx, DWORD PTR $T4[ebp+48]
  002ec	ff 15 00 00 00
	00		 call	 DWORD PTR __imp_??1?$CStringT@DV?$StrTraitMFC_DLL@DV?$ChTraitsCRT@D@ATL@@@@@ATL@@QAE@XZ
  002f2	8d 8d 38 fe ff
	ff		 lea	 ecx, DWORD PTR $T3[ebp+56]
  002f8	ff 15 00 00 00
	00		 call	 DWORD PTR __imp_??1?$CStringT@DV?$StrTraitMFC_DLL@DV?$ChTraitsCRT@D@ATL@@@@@ATL@@QAE@XZ
  002fe	8d 8d 34 fe ff
	ff		 lea	 ecx, DWORD PTR $T3[ebp+52]
  00304	ff 15 00 00 00
	00		 call	 DWORD PTR __imp_??1?$CStringT@DV?$StrTraitMFC_DLL@DV?$ChTraitsCRT@D@ATL@@@@@ATL@@QAE@XZ
  0030a	8d 8d 30 fe ff
	ff		 lea	 ecx, DWORD PTR $T3[ebp+48]
  00310	ff 15 00 00 00
	00		 call	 DWORD PTR __imp_??1?$CStringT@DV?$StrTraitMFC_DLL@DV?$ChTraitsCRT@D@ATL@@@@@ATL@@QAE@XZ
  00316	8d 8d 14 ff ff
	ff		 lea	 ecx, DWORD PTR $T7[ebp+20]
  0031c	ff 15 00 00 00
	00		 call	 DWORD PTR __imp_??1?$CStringT@DV?$StrTraitMFC_DLL@DV?$ChTraitsCRT@D@ATL@@@@@ATL@@QAE@XZ
  00322	8d 8d ec fe ff
	ff		 lea	 ecx, DWORD PTR $T6[ebp+20]
  00328	ff 15 00 00 00
	00		 call	 DWORD PTR __imp_??1?$CStringT@DV?$StrTraitMFC_DLL@DV?$ChTraitsCRT@D@ATL@@@@@ATL@@QAE@XZ
  0032e	8d 8d f0 fd ff
	ff		 lea	 ecx, DWORD PTR $T2[ebp+56]
  00334	ff 15 00 00 00
	00		 call	 DWORD PTR __imp_??1?$CStringT@DV?$StrTraitMFC_DLL@DV?$ChTraitsCRT@D@ATL@@@@@ATL@@QAE@XZ
  0033a	8d 8d ec fd ff
	ff		 lea	 ecx, DWORD PTR $T2[ebp+52]
  00340	ff 15 00 00 00
	00		 call	 DWORD PTR __imp_??1?$CStringT@DV?$StrTraitMFC_DLL@DV?$ChTraitsCRT@D@ATL@@@@@ATL@@QAE@XZ
  00346	8d 8d e8 fd ff
	ff		 lea	 ecx, DWORD PTR $T2[ebp+48]
  0034c	ff 15 00 00 00
	00		 call	 DWORD PTR __imp_??1?$CStringT@DV?$StrTraitMFC_DLL@DV?$ChTraitsCRT@D@ATL@@@@@ATL@@QAE@XZ
; File D:\git\src\IBK\IBK_DRFN\ProjSrc\SrcChartEx\ChartAddIn\ChartAnalysisToolAddIn\Include_AddIn_133101\I133101\_IString.h

; 45   : 		if( m_pIStrData)

  00352	8b 8d 44 ff ff
	ff		 mov	 ecx, DWORD PTR _szRQ$[ebp+4]
  00358	c6 45 fc 0d	 mov	 BYTE PTR __$EHRec$[ebp+8], 13 ; 0000000dH
  0035c	85 c9		 test	 ecx, ecx
  0035e	74 06		 je	 SHORT $LN91@GetTwoPoin

; 46   : 		{
; 47   : 			m_pIStrData->Release();

  00360	8b 01		 mov	 eax, DWORD PTR [ecx]
  00362	51		 push	 ecx
  00363	ff 50 08	 call	 DWORD PTR [eax+8]
$LN91@GetTwoPoin:
; File D:\git\src\IBK\IBK_DRFN\ProjSrc\SrcChartEx\ChartAddIn\ChartAnalysisToolAddIn\AnalysisTool\PointTool.cpp

; 816  : 	return CTwoPointDrawingData(

  00366	8d 8d 68 ff ff
	ff		 lea	 ecx, DWORD PTR _calData$[ebp]
  0036c	e8 00 00 00 00	 call	 ??1CCoordinateCalculatorData@@QAE@XZ ; CCoordinateCalculatorData::~CCoordinateCalculatorData
  00371	8d 8d 54 ff ff
	ff		 lea	 ecx, DWORD PTR _strPacketType$[ebp]
  00377	ff 15 00 00 00
	00		 call	 DWORD PTR __imp_??1?$CStringT@DV?$StrTraitMFC_DLL@DV?$ChTraitsCRT@D@ATL@@@@@ATL@@QAE@XZ
  0037d	8d 8d 60 ff ff
	ff		 lea	 ecx, DWORD PTR _strDataType$[ebp]
  00383	ff 15 00 00 00
	00		 call	 DWORD PTR __imp_??1?$CStringT@DV?$StrTraitMFC_DLL@DV?$ChTraitsCRT@D@ATL@@@@@ATL@@QAE@XZ
; File D:\git\src\IBK\IBK_DRFN\ProjSrc\SrcChartEx\ChartAddIn\ChartAnalysisToolAddIn\Include_AddIn_133101\I133101\_IString.h

; 45   : 		if( m_pIStrData)

  00389	8b 95 5c ff ff
	ff		 mov	 edx, DWORD PTR _szHelpMsg$[ebp+4]
  0038f	c7 45 fc 0e 00
	00 00		 mov	 DWORD PTR __$EHRec$[ebp+8], 14 ; 0000000eH
  00396	85 d2		 test	 edx, edx
  00398	74 06		 je	 SHORT $LN98@GetTwoPoin

; 46   : 		{
; 47   : 			m_pIStrData->Release();

  0039a	8b 0a		 mov	 ecx, DWORD PTR [edx]
  0039c	52		 push	 edx
  0039d	ff 51 08	 call	 DWORD PTR [ecx+8]
$LN98@GetTwoPoin:
; File D:\git\src\IBK\IBK_DRFN\ProjSrc\SrcChartEx\ChartAddIn\ChartAnalysisToolAddIn\AnalysisTool\PointTool.cpp

; 830  : }

  003a0	8b c6		 mov	 eax, esi
  003a2	8b 4d f4	 mov	 ecx, DWORD PTR __$EHRec$[ebp]
  003a5	64 89 0d 00 00
	00 00		 mov	 DWORD PTR fs:0, ecx
  003ac	59		 pop	 ecx
  003ad	5f		 pop	 edi
  003ae	5e		 pop	 esi
  003af	5b		 pop	 ebx
  003b0	8b 4d f0	 mov	 ecx, DWORD PTR __$ArrayPad$[ebp]
  003b3	33 cd		 xor	 ecx, ebp
  003b5	e8 00 00 00 00	 call	 @__security_check_cookie@4
  003ba	8b e5		 mov	 esp, ebp
  003bc	5d		 pop	 ebp
  003bd	c2 04 00	 ret	 4
_TEXT	ENDS
;	COMDAT text$x
text$x	SEGMENT
__unwindfunclet$?GetTwoPointDrawingData@CTwoPointDownTool@@ABE?AVCTwoPointDrawingData@@XZ$0:
  00000	8d 8d 58 ff ff
	ff		 lea	 ecx, DWORD PTR _szHelpMsg$[ebp]
  00006	e9 00 00 00 00	 jmp	 ??1ILPCSTR133101@@QAE@XZ ; ILPCSTR133101::~ILPCSTR133101
__unwindfunclet$?GetTwoPointDrawingData@CTwoPointDownTool@@ABE?AVCTwoPointDrawingData@@XZ$1:
  0000b	8d 8d 60 ff ff
	ff		 lea	 ecx, DWORD PTR _strDataType$[ebp]
  00011	ff 25 00 00 00
	00		 jmp	 DWORD PTR __imp_??1?$CStringT@DV?$StrTraitMFC_DLL@DV?$ChTraitsCRT@D@ATL@@@@@ATL@@QAE@XZ
__unwindfunclet$?GetTwoPointDrawingData@CTwoPointDownTool@@ABE?AVCTwoPointDrawingData@@XZ$2:
  00017	8d 8d 54 ff ff
	ff		 lea	 ecx, DWORD PTR _strPacketType$[ebp]
  0001d	ff 25 00 00 00
	00		 jmp	 DWORD PTR __imp_??1?$CStringT@DV?$StrTraitMFC_DLL@DV?$ChTraitsCRT@D@ATL@@@@@ATL@@QAE@XZ
__unwindfunclet$?GetTwoPointDrawingData@CTwoPointDownTool@@ABE?AVCTwoPointDrawingData@@XZ$3:
  00023	8d 4d c8	 lea	 ecx, DWORD PTR $T13[ebp]
  00026	e9 00 00 00 00	 jmp	 ??1CPoints@@QAE@XZ
__unwindfunclet$?GetTwoPointDrawingData@CTwoPointDownTool@@ABE?AVCTwoPointDrawingData@@XZ$4:
  0002b	8d 8d 68 ff ff
	ff		 lea	 ecx, DWORD PTR _calData$[ebp]
  00031	e9 00 00 00 00	 jmp	 ??1CCoordinateCalculatorData@@QAE@XZ ; CCoordinateCalculatorData::~CCoordinateCalculatorData
__unwindfunclet$?GetTwoPointDrawingData@CTwoPointDownTool@@ABE?AVCTwoPointDrawingData@@XZ$5:
  00036	8d 8d 40 ff ff
	ff		 lea	 ecx, DWORD PTR _szRQ$[ebp]
  0003c	e9 00 00 00 00	 jmp	 ??1ILPCSTR133101@@QAE@XZ ; ILPCSTR133101::~ILPCSTR133101
__unwindfunclet$?GetTwoPointDrawingData@CTwoPointDownTool@@ABE?AVCTwoPointDrawingData@@XZ$6:
  00041	8d 8d b8 fd ff
	ff		 lea	 ecx, DWORD PTR $T2[ebp]
  00047	e9 00 00 00 00	 jmp	 ??1CElementCommonEnvironment@@QAE@XZ
__unwindfunclet$?GetTwoPointDrawingData@CTwoPointDownTool@@ABE?AVCTwoPointDrawingData@@XZ$7:
  0004c	8d 8d d8 fe ff
	ff		 lea	 ecx, DWORD PTR $T6[ebp]
  00052	e9 00 00 00 00	 jmp	 ??1CPoints@@QAE@XZ
__unwindfunclet$?GetTwoPointDrawingData@CTwoPointDownTool@@ABE?AVCTwoPointDrawingData@@XZ$8:
  00057	8d 8d 00 ff ff
	ff		 lea	 ecx, DWORD PTR $T7[ebp]
  0005d	e9 00 00 00 00	 jmp	 ??1CPoints@@QAE@XZ
__unwindfunclet$?GetTwoPointDrawingData@CTwoPointDownTool@@ABE?AVCTwoPointDrawingData@@XZ$9:
  00062	8d 8d 00 fe ff
	ff		 lea	 ecx, DWORD PTR $T3[ebp]
  00068	e9 00 00 00 00	 jmp	 ??1CElementCommonEnvironment@@QAE@XZ
__unwindfunclet$?GetTwoPointDrawingData@CTwoPointDownTool@@ABE?AVCTwoPointDrawingData@@XZ$10:
  0006d	8d 8d 48 fe ff
	ff		 lea	 ecx, DWORD PTR $T4[ebp]
  00073	e9 00 00 00 00	 jmp	 ??1CElementCommonEnvironment@@QAE@XZ
__unwindfunclet$?GetTwoPointDrawingData@CTwoPointDownTool@@ABE?AVCTwoPointDrawingData@@XZ$11:
  00078	8d 8d 90 fe ff
	ff		 lea	 ecx, DWORD PTR $T5[ebp]
  0007e	e9 00 00 00 00	 jmp	 ??1CElementCommonEnvironment@@QAE@XZ
  00083	cc		 int	 3
  00084	cc		 int	 3
  00085	cc		 int	 3
  00086	cc		 int	 3
  00087	cc		 int	 3
__ehhandler$?GetTwoPointDrawingData@CTwoPointDownTool@@ABE?AVCTwoPointDrawingData@@XZ:
  00088	90		 npad	 1
  00089	90		 npad	 1
  0008a	8b 54 24 08	 mov	 edx, DWORD PTR [esp+8]
  0008e	8d 42 0c	 lea	 eax, DWORD PTR [edx+12]
  00091	8b 8a b4 fd ff
	ff		 mov	 ecx, DWORD PTR [edx-588]
  00097	33 c8		 xor	 ecx, eax
  00099	e8 00 00 00 00	 call	 @__security_check_cookie@4
  0009e	8b 4a fc	 mov	 ecx, DWORD PTR [edx-4]
  000a1	33 c8		 xor	 ecx, eax
  000a3	e8 00 00 00 00	 call	 @__security_check_cookie@4
  000a8	b8 00 00 00 00	 mov	 eax, OFFSET __ehfuncinfo$?GetTwoPointDrawingData@CTwoPointDownTool@@ABE?AVCTwoPointDrawingData@@XZ
  000ad	e9 00 00 00 00	 jmp	 ___CxxFrameHandler3
text$x	ENDS
?GetTwoPointDrawingData@CTwoPointDownTool@@ABE?AVCTwoPointDrawingData@@XZ ENDP ; CTwoPointDownTool::GetTwoPointDrawingData
; Function compile flags: /Ogtp
; File D:\git\src\IBK\IBK_DRFN\ProjSrc\SrcChartEx\ChartAddIn\ChartAnalysisToolAddIn\AnalysisTool\PointTool.cpp
;	COMDAT ?GetDownPoints@CTwoPointDownTool@@IBE?AVCPoints@@XZ
_TEXT	SEGMENT
___$ReturnUdt$ = 8					; size = 4
?GetDownPoints@CTwoPointDownTool@@IBE?AVCPoints@@XZ PROC ; CTwoPointDownTool::GetDownPoints, COMDAT
; _this$ = ecx

; 786  : {

  00000	55		 push	 ebp
  00001	8b ec		 mov	 ebp, esp
  00003	56		 push	 esi
  00004	57		 push	 edi

; 787  : 	return m_downPoints;

  00005	8b 7d 08	 mov	 edi, DWORD PTR ___$ReturnUdt$[ebp]
  00008	8d b1 d0 00 00
	00		 lea	 esi, DWORD PTR [ecx+208]
  0000e	56		 push	 esi
  0000f	8b cf		 mov	 ecx, edi
  00011	e8 00 00 00 00	 call	 ??0CCoordinate@@QAE@ABV0@@Z ; CCoordinate::CCoordinate
  00016	8b 4e 20	 mov	 ecx, DWORD PTR [esi+32]
  00019	8b c7		 mov	 eax, edi
  0001b	8b 56 24	 mov	 edx, DWORD PTR [esi+36]
  0001e	89 4f 20	 mov	 DWORD PTR [edi+32], ecx
  00021	89 57 24	 mov	 DWORD PTR [edi+36], edx
  00024	5f		 pop	 edi
  00025	5e		 pop	 esi

; 788  : }

  00026	5d		 pop	 ebp
  00027	c2 04 00	 ret	 4
?GetDownPoints@CTwoPointDownTool@@IBE?AVCPoints@@XZ ENDP ; CTwoPointDownTool::GetDownPoints
_TEXT	ENDS
; Function compile flags: /Ogtp
; File D:\git\src\IBK\IBK_DRFN\ProjSrc\SrcChartEx\ChartAddIn\ChartAnalysisToolAddIn\AnalysisTool\PointTool.cpp
;	COMDAT ?Draw_UpPoint@CTwoPointDownTool@@MAEXPAVCDC@@@Z
_TEXT	SEGMENT
_ptsEnd$2 = -500					; size = 40
_ptsStart$3 = -460					; size = 40
$T4 = -420						; size = 8
_cdStart$5 = -412					; size = 32
_cdEnd$6 = -380						; size = 32
_endPoint$7 = -348					; size = 8
$T8 = -348						; size = 8
_startPoint$9 = -340					; size = 8
$T10 = -340						; size = 8
_dMin$11 = -332						; size = 8
_dMax$12 = -324						; size = 8
$T13 = -316						; size = 4
$T14 = -316						; size = 4
_$S13$ = -312						; size = 200
_$S14$15 = -112						; size = 96
__$ArrayPad$ = -16					; size = 4
__$EHRec$ = -12						; size = 12
_pDC$ = 8						; size = 4
?Draw_UpPoint@CTwoPointDownTool@@MAEXPAVCDC@@@Z PROC	; CTwoPointDownTool::Draw_UpPoint, COMDAT
; _this$ = ecx

; 757  : {

  00000	55		 push	 ebp
  00001	8b ec		 mov	 ebp, esp
  00003	6a ff		 push	 -1
  00005	68 00 00 00 00	 push	 __ehhandler$?Draw_UpPoint@CTwoPointDownTool@@MAEXPAVCDC@@@Z
  0000a	64 a1 00 00 00
	00		 mov	 eax, DWORD PTR fs:0
  00010	50		 push	 eax
  00011	81 ec e8 01 00
	00		 sub	 esp, 488		; 000001e8H
  00017	a1 00 00 00 00	 mov	 eax, DWORD PTR ___security_cookie
  0001c	33 c5		 xor	 eax, ebp
  0001e	89 45 f0	 mov	 DWORD PTR __$ArrayPad$[ebp], eax
  00021	53		 push	 ebx
  00022	56		 push	 esi
  00023	57		 push	 edi
  00024	50		 push	 eax
  00025	8d 45 f4	 lea	 eax, DWORD PTR __$EHRec$[ebp]
  00028	64 a3 00 00 00
	00		 mov	 DWORD PTR fs:0, eax
  0002e	8b f1		 mov	 esi, ecx
  00030	8b 7d 08	 mov	 edi, DWORD PTR _pDC$[ebp]

; 758  : 	// (2008/8/15 - Seung-Won, Bae) Add option for using price range.
; 759  : 	CTwoPointDrawingData &drawingData = GetTwoPointDrawingData();

  00033	8d 85 c8 fe ff
	ff		 lea	 eax, DWORD PTR _$S13$[ebp]
  00039	50		 push	 eax
  0003a	e8 00 00 00 00	 call	 ?GetTwoPointDrawingData@CTwoPointDownTool@@ABE?AVCTwoPointDrawingData@@XZ ; CTwoPointDownTool::GetTwoPointDrawingData

; 760  : 	if( CDlgAnalysisToolSet::G_PRICE_RANGE_DIV_CHECK == drawingData.GetPriceRangeDivType())

  0003f	8d 8d c8 fe ff
	ff		 lea	 ecx, DWORD PTR _$S13$[ebp]
  00045	c7 45 fc 00 00
	00 00		 mov	 DWORD PTR __$EHRec$[ebp+8], 0
  0004c	e8 00 00 00 00	 call	 ?GetPriceRangeDivType@CDrawingData@@QBEHXZ ; CDrawingData::GetPriceRangeDivType
  00051	83 f8 01	 cmp	 eax, 1
  00054	0f 85 c5 01 00
	00		 jne	 $LN27@Draw_UpPoi

; 761  : 	{
; 762  : 		CPoints ptsStart = drawingData.GetStartPoints();

  0005a	8d 85 34 fe ff
	ff		 lea	 eax, DWORD PTR _ptsStart$3[ebp]
  00060	50		 push	 eax
  00061	8d 8d c8 fe ff
	ff		 lea	 ecx, DWORD PTR _$S13$[ebp]
  00067	e8 00 00 00 00	 call	 ?GetStartPoints@CTwoPointDrawingData@@QBE?AVCPoints@@XZ ; CTwoPointDrawingData::GetStartPoints

; 763  : 		CPoints ptsEnd = drawingData.GetEndPoints();

  0006c	8d 85 0c fe ff
	ff		 lea	 eax, DWORD PTR _ptsEnd$2[ebp]
  00072	c6 45 fc 01	 mov	 BYTE PTR __$EHRec$[ebp+8], 1
  00076	50		 push	 eax
  00077	8d 8d c8 fe ff
	ff		 lea	 ecx, DWORD PTR _$S13$[ebp]
  0007d	e8 00 00 00 00	 call	 ?GetEndPoints@CTwoPointDrawingData@@QBE?AVCPoints@@XZ ; CTwoPointDrawingData::GetEndPoints
  00082	0f 57 c0	 xorps	 xmm0, xmm0
  00085	c6 45 fc 02	 mov	 BYTE PTR __$EHRec$[ebp+8], 2

; 764  : 		double dMax = 0.0;

  00089	f2 0f 11 85 bc
	fe ff ff	 movsd	 QWORD PTR _dMax$12[ebp], xmm0

; 765  : 		double dMin = DBL_MAX;

  00091	f2 0f 10 05 00
	00 00 00	 movsd	 xmm0, QWORD PTR __real@7fefffffffffffff

; 766  : 		CCoordinateCalculator& coordinateCalculator = CCoordinateCalculatorFinder::FindCoordinateCalculator(false);

  00099	6a 00		 push	 0
  0009b	f2 0f 11 85 b4
	fe ff ff	 movsd	 QWORD PTR _dMin$11[ebp], xmm0
  000a3	e8 00 00 00 00	 call	 ?FindCoordinateCalculator@CCoordinateCalculatorFinder@@SAAAVCCoordinateCalculator@@_N@Z ; CCoordinateCalculatorFinder::FindCoordinateCalculator
  000a8	83 c4 04	 add	 esp, 4

; 767  : 		const CCoordinateCalculatorData &calData = CTool::GetCoordinateCalculatorData( ptsStart.GetDrawingPoint());

  000ab	8d 8d 34 fe ff
	ff		 lea	 ecx, DWORD PTR _ptsStart$3[ebp]
  000b1	8b d8		 mov	 ebx, eax
  000b3	8d 85 a4 fe ff
	ff		 lea	 eax, DWORD PTR $T8[ebp]
  000b9	50		 push	 eax
  000ba	e8 00 00 00 00	 call	 ?GetDrawingPoint@CPoints@@QBE?AVCPoint@@XZ ; CPoints::GetDrawingPoint
  000bf	50		 push	 eax
  000c0	8d 45 90	 lea	 eax, DWORD PTR _$S14$15[ebp]
  000c3	8b ce		 mov	 ecx, esi
  000c5	50		 push	 eax
  000c6	e8 00 00 00 00	 call	 ?GetCoordinateCalculatorData@CTool@@QBE?AVCCoordinateCalculatorData@@ABVCPoint@@@Z ; CTool::GetCoordinateCalculatorData

; 768  : 		CCoordinate cdStart = coordinateCalculator.AbsoluteToRelative( calData, ptsStart.GetDrawingPoint());

  000cb	8d 85 ac fe ff
	ff		 lea	 eax, DWORD PTR $T10[ebp]
  000d1	c6 45 fc 03	 mov	 BYTE PTR __$EHRec$[ebp+8], 3
  000d5	50		 push	 eax
  000d6	8d 8d 34 fe ff
	ff		 lea	 ecx, DWORD PTR _ptsStart$3[ebp]
  000dc	e8 00 00 00 00	 call	 ?GetDrawingPoint@CPoints@@QBE?AVCPoint@@XZ ; CPoints::GetDrawingPoint
  000e1	50		 push	 eax
  000e2	8d 45 90	 lea	 eax, DWORD PTR _$S14$15[ebp]
  000e5	8b cb		 mov	 ecx, ebx
  000e7	50		 push	 eax
  000e8	8d 85 64 fe ff
	ff		 lea	 eax, DWORD PTR _cdStart$5[ebp]
  000ee	50		 push	 eax
  000ef	e8 00 00 00 00	 call	 ?AbsoluteToRelative@CCoordinateCalculator@@QBE?AVCCoordinate@@ABVCCoordinateCalculatorData@@ABVCPoint@@@Z ; CCoordinateCalculator::AbsoluteToRelative

; 769  : 		CCoordinate cdEnd = coordinateCalculator.AbsoluteToRelative( calData, ptsEnd.GetDrawingPoint());

  000f4	8d 85 5c fe ff
	ff		 lea	 eax, DWORD PTR $T4[ebp]
  000fa	c6 45 fc 04	 mov	 BYTE PTR __$EHRec$[ebp+8], 4
  000fe	50		 push	 eax
  000ff	8d 8d 0c fe ff
	ff		 lea	 ecx, DWORD PTR _ptsEnd$2[ebp]
  00105	e8 00 00 00 00	 call	 ?GetDrawingPoint@CPoints@@QBE?AVCPoint@@XZ ; CPoints::GetDrawingPoint
  0010a	50		 push	 eax
  0010b	8d 45 90	 lea	 eax, DWORD PTR _$S14$15[ebp]
  0010e	8b cb		 mov	 ecx, ebx
  00110	50		 push	 eax
  00111	8d 85 84 fe ff
	ff		 lea	 eax, DWORD PTR _cdEnd$6[ebp]
  00117	50		 push	 eax
  00118	e8 00 00 00 00	 call	 ?AbsoluteToRelative@CCoordinateCalculator@@QBE?AVCCoordinate@@ABVCCoordinateCalculatorData@@ABVCPoint@@@Z ; CCoordinateCalculator::AbsoluteToRelative

; 770  : 		if( CTwoPointElement::UpdatePointsForPriceRangeOption( calData, cdStart, cdEnd, dMax, dMin))

  0011d	8d 85 b4 fe ff
	ff		 lea	 eax, DWORD PTR _dMin$11[ebp]
  00123	c6 45 fc 05	 mov	 BYTE PTR __$EHRec$[ebp+8], 5
  00127	50		 push	 eax
  00128	8d 85 bc fe ff
	ff		 lea	 eax, DWORD PTR _dMax$12[ebp]
  0012e	50		 push	 eax
  0012f	8d 85 84 fe ff
	ff		 lea	 eax, DWORD PTR _cdEnd$6[ebp]
  00135	50		 push	 eax
  00136	8d 85 64 fe ff
	ff		 lea	 eax, DWORD PTR _cdStart$5[ebp]
  0013c	50		 push	 eax
  0013d	8d 45 90	 lea	 eax, DWORD PTR _$S14$15[ebp]
  00140	50		 push	 eax
  00141	e8 00 00 00 00	 call	 ?UpdatePointsForPriceRangeOption@CTwoPointElement@@SAHABVCCoordinateCalculatorData@@AAVCCoordinate@@1AAN2@Z ; CTwoPointElement::UpdatePointsForPriceRangeOption
  00146	83 c4 14	 add	 esp, 20			; 00000014H
  00149	85 c0		 test	 eax, eax
  0014b	0f 84 92 00 00
	00		 je	 $LN3@Draw_UpPoi

; 771  : 		{
; 772  : 			cdStart.SetY( dMax);

  00151	8d 85 bc fe ff
	ff		 lea	 eax, DWORD PTR _dMax$12[ebp]
  00157	50		 push	 eax
  00158	8d 8d 64 fe ff
	ff		 lea	 ecx, DWORD PTR _cdStart$5[ebp]
  0015e	e8 00 00 00 00	 call	 ?SetY@CCoordinate@@QAEXABN@Z ; CCoordinate::SetY

; 773  : 			cdEnd.SetY( dMin);

  00163	8d 85 b4 fe ff
	ff		 lea	 eax, DWORD PTR _dMin$11[ebp]
  00169	50		 push	 eax
  0016a	8d 8d 84 fe ff
	ff		 lea	 ecx, DWORD PTR _cdEnd$6[ebp]
  00170	e8 00 00 00 00	 call	 ?SetY@CCoordinate@@QAEXABN@Z ; CCoordinate::SetY

; 774  : 			CPoint startPoint = coordinateCalculator.RelativeToAbsolute_NoAutoPrice(calData, cdStart);

  00175	8d 85 64 fe ff
	ff		 lea	 eax, DWORD PTR _cdStart$5[ebp]
  0017b	8b cb		 mov	 ecx, ebx
  0017d	50		 push	 eax
  0017e	8d 45 90	 lea	 eax, DWORD PTR _$S14$15[ebp]
  00181	50		 push	 eax
  00182	8d 85 ac fe ff
	ff		 lea	 eax, DWORD PTR _startPoint$9[ebp]
  00188	50		 push	 eax
  00189	e8 00 00 00 00	 call	 ?RelativeToAbsolute_NoAutoPrice@CCoordinateCalculator@@QBE?AVCPoint@@ABVCCoordinateCalculatorData@@ABVCCoordinate@@@Z ; CCoordinateCalculator::RelativeToAbsolute_NoAutoPrice

; 775  : 			CPoint endPoint = coordinateCalculator.RelativeToAbsolute_NoAutoPrice(calData, cdEnd);

  0018e	8d 85 84 fe ff
	ff		 lea	 eax, DWORD PTR _cdEnd$6[ebp]
  00194	8b cb		 mov	 ecx, ebx
  00196	50		 push	 eax
  00197	8d 45 90	 lea	 eax, DWORD PTR _$S14$15[ebp]
  0019a	50		 push	 eax
  0019b	8d 85 a4 fe ff
	ff		 lea	 eax, DWORD PTR _endPoint$7[ebp]
  001a1	50		 push	 eax
  001a2	e8 00 00 00 00	 call	 ?RelativeToAbsolute_NoAutoPrice@CCoordinateCalculator@@QBE?AVCPoint@@ABVCCoordinateCalculatorData@@ABVCCoordinate@@@Z ; CCoordinateCalculator::RelativeToAbsolute_NoAutoPrice

; 776  : 			drawingData.SetStartYPoints_Pos( startPoint.y);

  001a7	8b 85 b0 fe ff
	ff		 mov	 eax, DWORD PTR _startPoint$9[ebp+4]
  001ad	8d 8d c8 fe ff
	ff		 lea	 ecx, DWORD PTR _$S13$[ebp]
  001b3	89 85 c4 fe ff
	ff		 mov	 DWORD PTR $T14[ebp], eax
  001b9	8d 85 c4 fe ff
	ff		 lea	 eax, DWORD PTR $T14[ebp]
  001bf	50		 push	 eax
  001c0	e8 00 00 00 00	 call	 ?SetStartYPoints_Pos@CTwoPointDrawingData@@QAEXABH@Z ; CTwoPointDrawingData::SetStartYPoints_Pos

; 777  : 			drawingData.SetEndYPoints_Pos( endPoint.y);

  001c5	8b 85 a8 fe ff
	ff		 mov	 eax, DWORD PTR _endPoint$7[ebp+4]
  001cb	8d 8d c8 fe ff
	ff		 lea	 ecx, DWORD PTR _$S13$[ebp]
  001d1	89 85 c4 fe ff
	ff		 mov	 DWORD PTR $T13[ebp], eax
  001d7	8d 85 c4 fe ff
	ff		 lea	 eax, DWORD PTR $T13[ebp]
  001dd	50		 push	 eax
  001de	e8 00 00 00 00	 call	 ?SetEndYPoints_Pos@CTwoPointDrawingData@@QAEXABH@Z ; CTwoPointDrawingData::SetEndYPoints_Pos
$LN3@Draw_UpPoi:

; 778  : 		}
; 779  : 	}

  001e3	8d 8d 98 fe ff
	ff		 lea	 ecx, DWORD PTR _cdEnd$6[ebp+20]
  001e9	ff 15 00 00 00
	00		 call	 DWORD PTR __imp_??1?$CStringT@DV?$StrTraitMFC_DLL@DV?$ChTraitsCRT@D@ATL@@@@@ATL@@QAE@XZ
  001ef	8d 8d 78 fe ff
	ff		 lea	 ecx, DWORD PTR _cdStart$5[ebp+20]
  001f5	ff 15 00 00 00
	00		 call	 DWORD PTR __imp_??1?$CStringT@DV?$StrTraitMFC_DLL@DV?$ChTraitsCRT@D@ATL@@@@@ATL@@QAE@XZ
  001fb	8d 4d 90	 lea	 ecx, DWORD PTR _$S14$15[ebp]
  001fe	e8 00 00 00 00	 call	 ??1CCoordinateCalculatorData@@QAE@XZ ; CCoordinateCalculatorData::~CCoordinateCalculatorData
  00203	8d 8d 20 fe ff
	ff		 lea	 ecx, DWORD PTR _ptsEnd$2[ebp+20]
  00209	ff 15 00 00 00
	00		 call	 DWORD PTR __imp_??1?$CStringT@DV?$StrTraitMFC_DLL@DV?$ChTraitsCRT@D@ATL@@@@@ATL@@QAE@XZ
  0020f	8d 8d 48 fe ff
	ff		 lea	 ecx, DWORD PTR _ptsStart$3[ebp+20]
  00215	c6 45 fc 00	 mov	 BYTE PTR __$EHRec$[ebp+8], 0
  00219	ff 15 00 00 00
	00		 call	 DWORD PTR __imp_??1?$CStringT@DV?$StrTraitMFC_DLL@DV?$ChTraitsCRT@D@ATL@@@@@ATL@@QAE@XZ
$LN27@Draw_UpPoi:

; 780  : 
; 781  : 	GetTwoPointDrawer().DrawTool(pDC, drawingData, R2_NOT);

  0021f	6a 06		 push	 6
  00221	8d 85 c8 fe ff
	ff		 lea	 eax, DWORD PTR _$S13$[ebp]
  00227	8b ce		 mov	 ecx, esi
  00229	50		 push	 eax
  0022a	8b 06		 mov	 eax, DWORD PTR [esi]
  0022c	57		 push	 edi
  0022d	ff 50 44	 call	 DWORD PTR [eax+68]
  00230	8b c8		 mov	 ecx, eax
  00232	e8 00 00 00 00	 call	 ?DrawTool@CTwoPointDrawer@@QAEXPAVCDC@@ABVCTwoPointDrawingData@@H@Z ; CTwoPointDrawer::DrawTool
  00237	8d 8d 7c ff ff
	ff		 lea	 ecx, DWORD PTR _$S13$[ebp+180]
  0023d	ff 15 00 00 00
	00		 call	 DWORD PTR __imp_??1?$CStringT@DV?$StrTraitMFC_DLL@DV?$ChTraitsCRT@D@ATL@@@@@ATL@@QAE@XZ
  00243	8d 8d 54 ff ff
	ff		 lea	 ecx, DWORD PTR _$S13$[ebp+140]
  00249	ff 15 00 00 00
	00		 call	 DWORD PTR __imp_??1?$CStringT@DV?$StrTraitMFC_DLL@DV?$ChTraitsCRT@D@ATL@@@@@ATL@@QAE@XZ
  0024f	8d 8d e8 fe ff
	ff		 lea	 ecx, DWORD PTR _$S13$[ebp+32]
  00255	ff 15 00 00 00
	00		 call	 DWORD PTR __imp_??1?$CStringT@DV?$StrTraitMFC_DLL@DV?$ChTraitsCRT@D@ATL@@@@@ATL@@QAE@XZ
  0025b	8d 8d e4 fe ff
	ff		 lea	 ecx, DWORD PTR _$S13$[ebp+28]
  00261	ff 15 00 00 00
	00		 call	 DWORD PTR __imp_??1?$CStringT@DV?$StrTraitMFC_DLL@DV?$ChTraitsCRT@D@ATL@@@@@ATL@@QAE@XZ
  00267	8d 8d e0 fe ff
	ff		 lea	 ecx, DWORD PTR _$S13$[ebp+24]
  0026d	ff 15 00 00 00
	00		 call	 DWORD PTR __imp_??1?$CStringT@DV?$StrTraitMFC_DLL@DV?$ChTraitsCRT@D@ATL@@@@@ATL@@QAE@XZ

; 782  : }

  00273	8b 4d f4	 mov	 ecx, DWORD PTR __$EHRec$[ebp]
  00276	64 89 0d 00 00
	00 00		 mov	 DWORD PTR fs:0, ecx
  0027d	59		 pop	 ecx
  0027e	5f		 pop	 edi
  0027f	5e		 pop	 esi
  00280	5b		 pop	 ebx
  00281	8b 4d f0	 mov	 ecx, DWORD PTR __$ArrayPad$[ebp]
  00284	33 cd		 xor	 ecx, ebp
  00286	e8 00 00 00 00	 call	 @__security_check_cookie@4
  0028b	8b e5		 mov	 esp, ebp
  0028d	5d		 pop	 ebp
  0028e	c2 04 00	 ret	 4
_TEXT	ENDS
;	COMDAT text$x
text$x	SEGMENT
__unwindfunclet$?Draw_UpPoint@CTwoPointDownTool@@MAEXPAVCDC@@@Z$0:
  00000	8d 8d c8 fe ff
	ff		 lea	 ecx, DWORD PTR _$S13$[ebp]
  00006	e9 00 00 00 00	 jmp	 ??1CTwoPointDrawingData@@QAE@XZ
__unwindfunclet$?Draw_UpPoint@CTwoPointDownTool@@MAEXPAVCDC@@@Z$1:
  0000b	8d 8d 34 fe ff
	ff		 lea	 ecx, DWORD PTR _ptsStart$3[ebp]
  00011	e9 00 00 00 00	 jmp	 ??1CPoints@@QAE@XZ
__unwindfunclet$?Draw_UpPoint@CTwoPointDownTool@@MAEXPAVCDC@@@Z$2:
  00016	8d 8d 0c fe ff
	ff		 lea	 ecx, DWORD PTR _ptsEnd$2[ebp]
  0001c	e9 00 00 00 00	 jmp	 ??1CPoints@@QAE@XZ
__unwindfunclet$?Draw_UpPoint@CTwoPointDownTool@@MAEXPAVCDC@@@Z$3:
  00021	8d 4d 90	 lea	 ecx, DWORD PTR _$S14$15[ebp]
  00024	e9 00 00 00 00	 jmp	 ??1CCoordinateCalculatorData@@QAE@XZ ; CCoordinateCalculatorData::~CCoordinateCalculatorData
__unwindfunclet$?Draw_UpPoint@CTwoPointDownTool@@MAEXPAVCDC@@@Z$4:
  00029	8d 8d 64 fe ff
	ff		 lea	 ecx, DWORD PTR _cdStart$5[ebp]
  0002f	e9 00 00 00 00	 jmp	 ??1CCoordinate@@QAE@XZ
__unwindfunclet$?Draw_UpPoint@CTwoPointDownTool@@MAEXPAVCDC@@@Z$5:
  00034	8d 8d 84 fe ff
	ff		 lea	 ecx, DWORD PTR _cdEnd$6[ebp]
  0003a	e9 00 00 00 00	 jmp	 ??1CCoordinate@@QAE@XZ
  0003f	cc		 int	 3
  00040	cc		 int	 3
  00041	cc		 int	 3
  00042	cc		 int	 3
  00043	cc		 int	 3
__ehhandler$?Draw_UpPoint@CTwoPointDownTool@@MAEXPAVCDC@@@Z:
  00044	90		 npad	 1
  00045	90		 npad	 1
  00046	8b 54 24 08	 mov	 edx, DWORD PTR [esp+8]
  0004a	8d 42 0c	 lea	 eax, DWORD PTR [edx+12]
  0004d	8b 8a 08 fe ff
	ff		 mov	 ecx, DWORD PTR [edx-504]
  00053	33 c8		 xor	 ecx, eax
  00055	e8 00 00 00 00	 call	 @__security_check_cookie@4
  0005a	8b 4a fc	 mov	 ecx, DWORD PTR [edx-4]
  0005d	33 c8		 xor	 ecx, eax
  0005f	e8 00 00 00 00	 call	 @__security_check_cookie@4
  00064	b8 00 00 00 00	 mov	 eax, OFFSET __ehfuncinfo$?Draw_UpPoint@CTwoPointDownTool@@MAEXPAVCDC@@@Z
  00069	e9 00 00 00 00	 jmp	 ___CxxFrameHandler3
text$x	ENDS
?Draw_UpPoint@CTwoPointDownTool@@MAEXPAVCDC@@@Z ENDP	; CTwoPointDownTool::Draw_UpPoint
; Function compile flags: /Ogtp
; File D:\git\src\IBK\IBK_DRFN\ProjSrc\SrcChartEx\ChartAddIn\ChartAnalysisToolAddIn\AnalysisTool\PointTool.cpp
; File C:\Program Files (x86)\Microsoft Visual Studio\2019\Community\VC\Tools\MSVC\14.29.30133\atlmfc\include\atltypes.h
; File D:\git\src\IBK\IBK_DRFN\ProjSrc\SrcChartEx\ChartAddIn\ChartAnalysisToolAddIn\AnalysisTool\PointTool.cpp
; File C:\Program Files (x86)\Microsoft Visual Studio\2019\Community\VC\Tools\MSVC\14.29.30133\atlmfc\include\atltypes.h
; File D:\git\src\IBK\IBK_DRFN\ProjSrc\SrcChartEx\ChartAddIn\ChartAnalysisToolAddIn\AnalysisTool\PointTool.cpp
;	COMDAT ?MouseMove@CTwoPointDownTool@@MAE_NPAVCDC@@ABVCPoint@@@Z
_TEXT	SEGMENT
$T2 = -204						; size = 40
$T3 = -164						; size = 8
_pDC$GSCopy$1$ = -156					; size = 4
_ptPos$ = -152						; size = 8
_calcData$4 = -144					; size = 96
$T5 = -48						; size = 16
$T6 = -32						; size = 16
$T7 = -24						; size = 8
$T8 = -24						; size = 8
__$ArrayPad$ = -16					; size = 4
__$EHRec$ = -12						; size = 12
_pDC$ = 8						; size = 4
_point$ = 12						; size = 4
?MouseMove@CTwoPointDownTool@@MAE_NPAVCDC@@ABVCPoint@@@Z PROC ; CTwoPointDownTool::MouseMove, COMDAT
; _this$ = ecx

; 740  : {

  00000	55		 push	 ebp
  00001	8b ec		 mov	 ebp, esp
  00003	6a ff		 push	 -1
  00005	68 00 00 00 00	 push	 __ehhandler$?MouseMove@CTwoPointDownTool@@MAE_NPAVCDC@@ABVCPoint@@@Z
  0000a	64 a1 00 00 00
	00		 mov	 eax, DWORD PTR fs:0
  00010	50		 push	 eax
  00011	81 ec c0 00 00
	00		 sub	 esp, 192		; 000000c0H
  00017	a1 00 00 00 00	 mov	 eax, DWORD PTR ___security_cookie
  0001c	33 c5		 xor	 eax, ebp
  0001e	89 45 f0	 mov	 DWORD PTR __$ArrayPad$[ebp], eax
  00021	53		 push	 ebx
  00022	56		 push	 esi
  00023	57		 push	 edi
  00024	50		 push	 eax
  00025	8d 45 f4	 lea	 eax, DWORD PTR __$EHRec$[ebp]
  00028	64 a3 00 00 00
	00		 mov	 DWORD PTR fs:0, eax
  0002e	8b f9		 mov	 edi, ecx
  00030	8b 5d 0c	 mov	 ebx, DWORD PTR _point$[ebp]
  00033	8b 45 08	 mov	 eax, DWORD PTR _pDC$[ebp]
  00036	89 85 64 ff ff
	ff		 mov	 DWORD PTR _pDC$GSCopy$1$[ebp], eax

; 741  : 	CPoint ptPos(point);

  0003c	8b 03		 mov	 eax, DWORD PTR [ebx]
  0003e	8b 4b 04	 mov	 ecx, DWORD PTR [ebx+4]
  00041	89 85 68 ff ff
	ff		 mov	 DWORD PTR _ptPos$[ebp], eax

; 742  : 	if(GetToolType() == CAnalysis::EN_ANALYSIS_CANDLE_BONG)

  00047	8b 07		 mov	 eax, DWORD PTR [edi]
  00049	89 8d 6c ff ff
	ff		 mov	 DWORD PTR _ptPos$[ebp+4], ecx
  0004f	8b cf		 mov	 ecx, edi
  00051	ff 50 24	 call	 DWORD PTR [eax+36]
  00054	83 f8 1f	 cmp	 eax, 31			; 0000001fH
  00057	0f 85 cf 00 00
	00		 jne	 $LN2@MouseMove

; 743  : 	{
; 744  : 		CCoordinateCalculatorData calcData = GetCoordinateCalculatorData(m_downPoints.GetDrawingPoint());

  0005d	8d 8d 5c ff ff
	ff		 lea	 ecx, DWORD PTR $T3[ebp]
  00063	51		 push	 ecx
  00064	8d 8f d0 00 00
	00		 lea	 ecx, DWORD PTR [edi+208]
  0006a	e8 00 00 00 00	 call	 ?GetDrawingPoint@CPoints@@QBE?AVCPoint@@XZ ; CPoints::GetDrawingPoint
  0006f	50		 push	 eax
  00070	8d 85 70 ff ff
	ff		 lea	 eax, DWORD PTR _calcData$4[ebp]
  00076	8b cf		 mov	 ecx, edi
  00078	50		 push	 eax
  00079	e8 00 00 00 00	 call	 ?GetCoordinateCalculatorData@CTool@@QBE?AVCCoordinateCalculatorData@@ABVCPoint@@@Z ; CTool::GetCoordinateCalculatorData

; 745  : 		int nWidth = (int)max(1,(calcData.GetRegion().Width()/calcData.GetDisplayDataCount()));

  0007e	8d 45 e0	 lea	 eax, DWORD PTR $T6[ebp]
  00081	c7 45 fc 00 00
	00 00		 mov	 DWORD PTR __$EHRec$[ebp+8], 0
  00088	50		 push	 eax
  00089	8d 8d 70 ff ff
	ff		 lea	 ecx, DWORD PTR _calcData$4[ebp]
  0008f	e8 00 00 00 00	 call	 ?GetRegion@CCoordinateCalculatorData@@QBE?AVCRect@@XZ ; CCoordinateCalculatorData::GetRegion
  00094	8d 8d 70 ff ff
	ff		 lea	 ecx, DWORD PTR _calcData$4[ebp]
; File C:\Program Files (x86)\Microsoft Visual Studio\2019\Community\VC\Tools\MSVC\14.29.30133\atlmfc\include\atltypes.h

; 576  : 	return right - left;

  0009a	8b 70 08	 mov	 esi, DWORD PTR [eax+8]
  0009d	2b 30		 sub	 esi, DWORD PTR [eax]
; File D:\git\src\IBK\IBK_DRFN\ProjSrc\SrcChartEx\ChartAddIn\ChartAnalysisToolAddIn\AnalysisTool\PointTool.cpp

; 745  : 		int nWidth = (int)max(1,(calcData.GetRegion().Width()/calcData.GetDisplayDataCount()));

  0009f	e8 00 00 00 00	 call	 ?GetDisplayDataCount@CCoordinateCalculatorData@@QBEHXZ ; CCoordinateCalculatorData::GetDisplayDataCount
  000a4	8b c8		 mov	 ecx, eax
  000a6	8b c6		 mov	 eax, esi
  000a8	99		 cdq
  000a9	f7 f9		 idiv	 ecx
  000ab	83 f8 01	 cmp	 eax, 1
  000ae	7d 07		 jge	 SHORT $LN6@MouseMove
  000b0	be 01 00 00 00	 mov	 esi, 1
  000b5	eb 28		 jmp	 SHORT $LN7@MouseMove
$LN6@MouseMove:
  000b7	8d 45 d0	 lea	 eax, DWORD PTR $T5[ebp]
  000ba	50		 push	 eax
  000bb	8d 8d 70 ff ff
	ff		 lea	 ecx, DWORD PTR _calcData$4[ebp]
  000c1	e8 00 00 00 00	 call	 ?GetRegion@CCoordinateCalculatorData@@QBE?AVCRect@@XZ ; CCoordinateCalculatorData::GetRegion
  000c6	8d 8d 70 ff ff
	ff		 lea	 ecx, DWORD PTR _calcData$4[ebp]
; File C:\Program Files (x86)\Microsoft Visual Studio\2019\Community\VC\Tools\MSVC\14.29.30133\atlmfc\include\atltypes.h

; 576  : 	return right - left;

  000cc	8b 70 08	 mov	 esi, DWORD PTR [eax+8]
  000cf	2b 30		 sub	 esi, DWORD PTR [eax]
; File D:\git\src\IBK\IBK_DRFN\ProjSrc\SrcChartEx\ChartAddIn\ChartAnalysisToolAddIn\AnalysisTool\PointTool.cpp

; 745  : 		int nWidth = (int)max(1,(calcData.GetRegion().Width()/calcData.GetDisplayDataCount()));

  000d1	e8 00 00 00 00	 call	 ?GetDisplayDataCount@CCoordinateCalculatorData@@QBEHXZ ; CCoordinateCalculatorData::GetDisplayDataCount
  000d6	8b c8		 mov	 ecx, eax
  000d8	8b c6		 mov	 eax, esi
  000da	99		 cdq
  000db	f7 f9		 idiv	 ecx
  000dd	8b f0		 mov	 esi, eax
$LN7@MouseMove:

; 746  : 		if(m_downPoints.GetDrawingPoint().x > point.x)

  000df	8d 45 e8	 lea	 eax, DWORD PTR $T8[ebp]
  000e2	50		 push	 eax
  000e3	8d 8f d0 00 00
	00		 lea	 ecx, DWORD PTR [edi+208]
  000e9	e8 00 00 00 00	 call	 ?GetDrawingPoint@CPoints@@QBE?AVCPoint@@XZ ; CPoints::GetDrawingPoint
  000ee	8b 08		 mov	 ecx, DWORD PTR [eax]
  000f0	8d 45 e8	 lea	 eax, DWORD PTR $T7[ebp]
  000f3	3b 0b		 cmp	 ecx, DWORD PTR [ebx]
  000f5	8d 8f d0 00 00
	00		 lea	 ecx, DWORD PTR [edi+208]
  000fb	50		 push	 eax
  000fc	7e 0c		 jle	 SHORT $LN3@MouseMove

; 747  : 			ptPos.x = m_downPoints.GetDrawingPoint().x - nWidth-1;

  000fe	e8 00 00 00 00	 call	 ?GetDrawingPoint@CPoints@@QBE?AVCPoint@@XZ ; CPoints::GetDrawingPoint
  00103	8b 00		 mov	 eax, DWORD PTR [eax]
  00105	2b c6		 sub	 eax, esi
  00107	48		 dec	 eax
  00108	eb 0a		 jmp	 SHORT $LN21@MouseMove
$LN3@MouseMove:

; 748  : 		else 
; 749  : 			ptPos.x = m_downPoints.GetDrawingPoint().x + nWidth+1;

  0010a	e8 00 00 00 00	 call	 ?GetDrawingPoint@CPoints@@QBE?AVCPoint@@XZ ; CPoints::GetDrawingPoint
  0010f	8b 00		 mov	 eax, DWORD PTR [eax]
  00111	40		 inc	 eax
  00112	03 c6		 add	 eax, esi
$LN21@MouseMove:

; 750  : 	}

  00114	8d 8d 70 ff ff
	ff		 lea	 ecx, DWORD PTR _calcData$4[ebp]
  0011a	89 85 68 ff ff
	ff		 mov	 DWORD PTR _ptPos$[ebp], eax
  00120	c7 45 fc ff ff
	ff ff		 mov	 DWORD PTR __$EHRec$[ebp+8], -1
  00127	e8 00 00 00 00	 call	 ??1CCoordinateCalculatorData@@QAE@XZ ; CCoordinateCalculatorData::~CCoordinateCalculatorData
$LN2@MouseMove:

; 751  : 	SavePoints(CTool::GetPoints(ptPos));

  0012c	8d 85 68 ff ff
	ff		 lea	 eax, DWORD PTR _ptPos$[ebp]
  00132	8b cf		 mov	 ecx, edi
  00134	50		 push	 eax
  00135	8d 85 34 ff ff
	ff		 lea	 eax, DWORD PTR $T2[ebp]
  0013b	50		 push	 eax
  0013c	e8 00 00 00 00	 call	 ?GetPoints@CTool@@IBE?AVCPoints@@ABVCPoint@@@Z ; CTool::GetPoints
  00141	8b 17		 mov	 edx, DWORD PTR [edi]
  00143	8b cf		 mov	 ecx, edi
  00145	50		 push	 eax
  00146	c7 45 fc 01 00
	00 00		 mov	 DWORD PTR __$EHRec$[ebp+8], 1
  0014d	ff 52 20	 call	 DWORD PTR [edx+32]
  00150	8d 8d 48 ff ff
	ff		 lea	 ecx, DWORD PTR $T2[ebp+20]
  00156	c7 45 fc ff ff
	ff ff		 mov	 DWORD PTR __$EHRec$[ebp+8], -1
  0015d	ff 15 00 00 00
	00		 call	 DWORD PTR __imp_??1?$CStringT@DV?$StrTraitMFC_DLL@DV?$ChTraitsCRT@D@ATL@@@@@ATL@@QAE@XZ

; 752  : 	Draw_UpPoint(pDC);

  00163	8b 07		 mov	 eax, DWORD PTR [edi]
  00165	8b cf		 mov	 ecx, edi
  00167	ff b5 64 ff ff
	ff		 push	 DWORD PTR _pDC$GSCopy$1$[ebp]
  0016d	ff 50 40	 call	 DWORD PTR [eax+64]

; 753  : 	return true;

  00170	b0 01		 mov	 al, 1

; 754  : }

  00172	8b 4d f4	 mov	 ecx, DWORD PTR __$EHRec$[ebp]
  00175	64 89 0d 00 00
	00 00		 mov	 DWORD PTR fs:0, ecx
  0017c	59		 pop	 ecx
  0017d	5f		 pop	 edi
  0017e	5e		 pop	 esi
  0017f	5b		 pop	 ebx
  00180	8b 4d f0	 mov	 ecx, DWORD PTR __$ArrayPad$[ebp]
  00183	33 cd		 xor	 ecx, ebp
  00185	e8 00 00 00 00	 call	 @__security_check_cookie@4
  0018a	8b e5		 mov	 esp, ebp
  0018c	5d		 pop	 ebp
  0018d	c2 08 00	 ret	 8
_TEXT	ENDS
;	COMDAT text$x
text$x	SEGMENT
__unwindfunclet$?MouseMove@CTwoPointDownTool@@MAE_NPAVCDC@@ABVCPoint@@@Z$0:
  00000	8d 8d 70 ff ff
	ff		 lea	 ecx, DWORD PTR _calcData$4[ebp]
  00006	e9 00 00 00 00	 jmp	 ??1CCoordinateCalculatorData@@QAE@XZ ; CCoordinateCalculatorData::~CCoordinateCalculatorData
__unwindfunclet$?MouseMove@CTwoPointDownTool@@MAE_NPAVCDC@@ABVCPoint@@@Z$1:
  0000b	8d 8d 34 ff ff
	ff		 lea	 ecx, DWORD PTR $T2[ebp]
  00011	e9 00 00 00 00	 jmp	 ??1CPoints@@QAE@XZ
  00016	cc		 int	 3
  00017	cc		 int	 3
  00018	cc		 int	 3
  00019	cc		 int	 3
  0001a	cc		 int	 3
__ehhandler$?MouseMove@CTwoPointDownTool@@MAE_NPAVCDC@@ABVCPoint@@@Z:
  0001b	90		 npad	 1
  0001c	90		 npad	 1
  0001d	8b 54 24 08	 mov	 edx, DWORD PTR [esp+8]
  00021	8d 42 0c	 lea	 eax, DWORD PTR [edx+12]
  00024	8b 8a 30 ff ff
	ff		 mov	 ecx, DWORD PTR [edx-208]
  0002a	33 c8		 xor	 ecx, eax
  0002c	e8 00 00 00 00	 call	 @__security_check_cookie@4
  00031	8b 4a fc	 mov	 ecx, DWORD PTR [edx-4]
  00034	33 c8		 xor	 ecx, eax
  00036	e8 00 00 00 00	 call	 @__security_check_cookie@4
  0003b	b8 00 00 00 00	 mov	 eax, OFFSET __ehfuncinfo$?MouseMove@CTwoPointDownTool@@MAE_NPAVCDC@@ABVCPoint@@@Z
  00040	e9 00 00 00 00	 jmp	 ___CxxFrameHandler3
text$x	ENDS
?MouseMove@CTwoPointDownTool@@MAE_NPAVCDC@@ABVCPoint@@@Z ENDP ; CTwoPointDownTool::MouseMove
; Function compile flags: /Ogtp
; File D:\git\src\IBK\IBK_DRFN\ProjSrc\SrcChartEx\ChartAddIn\ChartAnalysisToolAddIn\AnalysisTool\PointTool.cpp
; File D:\git\src\IBK\IBK_DRFN\ProjSrc\SrcChartEx\ChartAddIn\ChartAnalysisToolAddIn\Include_Analysis\CoordinateCalculatorData.h
; File D:\git\src\IBK\IBK_DRFN\ProjSrc\SrcChartEx\ChartAddIn\ChartAnalysisToolAddIn\AnalysisTool\PointTool.cpp
; File D:\git\src\IBK\IBK_DRFN\ProjSrc\SrcChartEx\ChartAddIn\ChartAnalysisToolAddIn\Include_AddIn_133101\I133101\_IString.h
; File D:\git\src\IBK\IBK_DRFN\ProjSrc\SrcChartEx\ChartAddIn\ChartAnalysisToolAddIn\AnalysisTool\PointTool.cpp
; File D:\git\src\IBK\IBK_DRFN\ProjSrc\SrcChartEx\ChartAddIn\ChartAnalysisToolAddIn\Include_AddIn_133101\I133101\_IString.h
; File D:\git\src\IBK\IBK_DRFN\ProjSrc\SrcChartEx\ChartAddIn\ChartAnalysisToolAddIn\AnalysisTool\PointTool.cpp
; File D:\git\src\IBK\IBK_DRFN\ProjSrc\SrcChartEx\ChartAddIn\ChartAnalysisToolAddIn\Include_AddIn_133101\I133101\_IString.h
; File D:\git\src\IBK\IBK_DRFN\ProjSrc\SrcChartEx\ChartAddIn\ChartAnalysisToolAddIn\AnalysisTool\PointTool.cpp
; File D:\git\src\IBK\IBK_DRFN\ProjSrc\SrcChartEx\ChartAddIn\ChartAnalysisToolAddIn\Include_AddIn_133101\I133101\_IString.h
; File D:\git\src\IBK\IBK_DRFN\ProjSrc\SrcChartEx\ChartAddIn\ChartAnalysisToolAddIn\AnalysisTool\PointTool.cpp
; File D:\git\src\IBK\IBK_DRFN\ProjSrc\SrcChartEx\ChartAddIn\ChartAnalysisToolAddIn\Include_AddIn_133101\I133101\_IString.h
; File D:\git\src\IBK\IBK_DRFN\ProjSrc\SrcChartEx\ChartAddIn\ChartAnalysisToolAddIn\AnalysisTool\PointTool.cpp
; File D:\git\src\IBK\IBK_DRFN\ProjSrc\SrcChartEx\ChartAddIn\ChartAnalysisToolAddIn\Include_AddIn_133101\I133101\_IString.h
; File D:\git\src\IBK\IBK_DRFN\ProjSrc\SrcChartEx\ChartAddIn\ChartAnalysisToolAddIn\AnalysisTool\PointTool.cpp
; File D:\git\src\IBK\IBK_DRFN\ProjSrc\SrcChartEx\ChartAddIn\ChartAnalysisToolAddIn\Include_AddIn_133101\I133101\_IString.h
; File D:\git\src\IBK\IBK_DRFN\ProjSrc\SrcChartEx\ChartAddIn\ChartAnalysisToolAddIn\AnalysisTool\PointTool.cpp
;	COMDAT ?MakeElement@CTwoPointDownTool@@MAEPAVCElement@@ABVCElementCommonEnvironment@@@Z
_TEXT	SEGMENT
_coordStart$ = -332					; size = 32
_coordEnd$ = -300					; size = 32
$T2 = -268						; size = 40
$T3 = -268						; size = 40
_dFirstVal$4 = -228					; size = 8
_szGraphName$5 = -220					; size = 8
_dChannelHeight$1$ = -212				; size = 8
_dSumN$1$ = -204					; size = 8
_nV$6 = -196						; size = 4
_nG$7 = -192						; size = 4
_dSecondVal$8 = -188					; size = 8
$T9 = -188						; size = 8
$T10 = -188						; size = 8
$T11 = -188						; size = 8
_dBeta$1$ = -180					; size = 8
_this$GSCopy$1$ = -172					; size = 4
_environment$GSCopy$1$ = -168				; size = 4
_nC$12 = -164						; size = 4
_nR$13 = -160						; size = 4
_dYValue$14 = -156					; size = 8
_szRQ$15 = -148						; size = 8
_i$2$ = -140						; size = 4
_nCount$1$ = -140					; size = 4
_dXAvg$2$ = -136					; size = 8
_i$1$ = -132						; size = 4
_dAlpha$1$ = -128					; size = 8
_i$3$ = -120						; size = 4
tv800 = -120						; size = 4
_nIndex1$1$ = -120					; size = 4
___that$1$ = -116					; size = 4
_nEndIdx$1$ = -116					; size = 4
_calcData$ = -112					; size = 96
__$ArrayPad$ = -16					; size = 4
__$EHRec$ = -12						; size = 12
_environment$ = 8					; size = 4
?MakeElement@CTwoPointDownTool@@MAEPAVCElement@@ABVCElementCommonEnvironment@@@Z PROC ; CTwoPointDownTool::MakeElement, COMDAT
; _this$ = ecx

; 647  : {

  00000	55		 push	 ebp
  00001	8b ec		 mov	 ebp, esp
  00003	6a ff		 push	 -1
  00005	68 00 00 00 00	 push	 __ehhandler$?MakeElement@CTwoPointDownTool@@MAEPAVCElement@@ABVCElementCommonEnvironment@@@Z
  0000a	64 a1 00 00 00
	00		 mov	 eax, DWORD PTR fs:0
  00010	50		 push	 eax
  00011	81 ec 40 01 00
	00		 sub	 esp, 320		; 00000140H
  00017	a1 00 00 00 00	 mov	 eax, DWORD PTR ___security_cookie
  0001c	33 c5		 xor	 eax, ebp
  0001e	89 45 f0	 mov	 DWORD PTR __$ArrayPad$[ebp], eax
  00021	56		 push	 esi
  00022	57		 push	 edi
  00023	50		 push	 eax
  00024	8d 45 f4	 lea	 eax, DWORD PTR __$EHRec$[ebp]
  00027	64 a3 00 00 00
	00		 mov	 DWORD PTR fs:0, eax
  0002d	8b f1		 mov	 esi, ecx
  0002f	89 b5 54 ff ff
	ff		 mov	 DWORD PTR _this$GSCopy$1$[ebp], esi
  00035	8b 45 08	 mov	 eax, DWORD PTR _environment$[ebp]

; 648  : 	CElement *pElement = NULL;
; 649  : 	CCoordinate coordStart = m_downPoints.GetSavingPoint();

  00038	8d 8d b4 fe ff
	ff		 lea	 ecx, DWORD PTR _coordStart$[ebp]
  0003e	89 85 58 ff ff
	ff		 mov	 DWORD PTR _environment$GSCopy$1$[ebp], eax
  00044	33 ff		 xor	 edi, edi
  00046	8d 86 d0 00 00
	00		 lea	 eax, DWORD PTR [esi+208]
  0004c	51		 push	 ecx
  0004d	8b c8		 mov	 ecx, eax
  0004f	89 45 88	 mov	 DWORD PTR tv800[ebp], eax
  00052	e8 00 00 00 00	 call	 ?GetSavingPoint@CPoints@@QBE?AVCCoordinate@@XZ ; CPoints::GetSavingPoint

; 475  : 	return m_upPoints;

  00057	8d 86 a8 00 00
	00		 lea	 eax, DWORD PTR [esi+168]

; 648  : 	CElement *pElement = NULL;
; 649  : 	CCoordinate coordStart = m_downPoints.GetSavingPoint();

  0005d	89 7d fc	 mov	 DWORD PTR __$EHRec$[ebp+8], edi
  00060	50		 push	 eax
  00061	8d 8d f4 fe ff
	ff		 lea	 ecx, DWORD PTR $T3[ebp]

; 475  : 	return m_upPoints;

  00067	89 45 8c	 mov	 DWORD PTR ___that$1$[ebp], eax
  0006a	e8 00 00 00 00	 call	 ??0CCoordinate@@QAE@ABV0@@Z ; CCoordinate::CCoordinate
  0006f	8b 86 c8 00 00
	00		 mov	 eax, DWORD PTR [esi+200]
  00075	8b 8e cc 00 00
	00		 mov	 ecx, DWORD PTR [esi+204]
  0007b	89 85 14 ff ff
	ff		 mov	 DWORD PTR $T3[ebp+32], eax
  00081	89 8d 18 ff ff
	ff		 mov	 DWORD PTR $T3[ebp+36], ecx

; 650  : 	CCoordinate coordEnd = COneOrTwoPointTool::GetUpPoints().GetSavingPoint();

  00087	8d 85 d4 fe ff
	ff		 lea	 eax, DWORD PTR _coordEnd$[ebp]
  0008d	c6 45 fc 01	 mov	 BYTE PTR __$EHRec$[ebp+8], 1
  00091	50		 push	 eax
  00092	8d 8d f4 fe ff
	ff		 lea	 ecx, DWORD PTR $T3[ebp]
  00098	e8 00 00 00 00	 call	 ?GetSavingPoint@CPoints@@QBE?AVCCoordinate@@XZ ; CPoints::GetSavingPoint
  0009d	8d 8d 08 ff ff
	ff		 lea	 ecx, DWORD PTR $T3[ebp+20]
  000a3	c6 45 fc 03	 mov	 BYTE PTR __$EHRec$[ebp+8], 3
  000a7	ff 15 00 00 00
	00		 call	 DWORD PTR __imp_??1?$CStringT@DV?$StrTraitMFC_DLL@DV?$ChTraitsCRT@D@ATL@@@@@ATL@@QAE@XZ

; 651  : 
; 652  : 	CCoordinateCalculatorData calcData = GetCoordinateCalculatorData( m_downPoints.GetDrawingPoint());

  000ad	8d 85 44 ff ff
	ff		 lea	 eax, DWORD PTR $T11[ebp]
  000b3	50		 push	 eax
  000b4	8d 8e d0 00 00
	00		 lea	 ecx, DWORD PTR [esi+208]
  000ba	e8 00 00 00 00	 call	 ?GetDrawingPoint@CPoints@@QBE?AVCPoint@@XZ ; CPoints::GetDrawingPoint
  000bf	50		 push	 eax
  000c0	8d 45 90	 lea	 eax, DWORD PTR _calcData$[ebp]
  000c3	8b ce		 mov	 ecx, esi
  000c5	50		 push	 eax
  000c6	e8 00 00 00 00	 call	 ?GetCoordinateCalculatorData@CTool@@QBE?AVCCoordinateCalculatorData@@ABVCPoint@@@Z ; CTool::GetCoordinateCalculatorData
  000cb	c6 45 fc 04	 mov	 BYTE PTR __$EHRec$[ebp+8], 4
; File D:\git\src\IBK\IBK_DRFN\ProjSrc\SrcChartEx\ChartAddIn\ChartAnalysisToolAddIn\Include_Analysis\CoordinateCalculatorData.h

; 128  : 							{	return m_pIChartManager && m_pIChartOCX && m_pIPacketListManager && m_pIDefaultPacketManager;	}

  000cf	39 7d d8	 cmp	 DWORD PTR _calcData$[ebp+72], edi
  000d2	0f 84 47 05 00
	00		 je	 $LN88@MakeElemen
  000d8	39 7d dc	 cmp	 DWORD PTR _calcData$[ebp+76], edi
  000db	0f 84 3e 05 00
	00		 je	 $LN88@MakeElemen
  000e1	39 7d e0	 cmp	 DWORD PTR _calcData$[ebp+80], edi
  000e4	0f 84 35 05 00
	00		 je	 $LN88@MakeElemen
  000ea	39 7d e4	 cmp	 DWORD PTR _calcData$[ebp+84], edi
  000ed	0f 84 2c 05 00
	00		 je	 $LN88@MakeElemen
; File D:\git\src\IBK\IBK_DRFN\ProjSrc\SrcChartEx\ChartAddIn\ChartAnalysisToolAddIn\AnalysisTool\PointTool.cpp

; 654  : 		if( GetToolType() == CAnalysis::EN_ANALYSIS_LINEAR_REGRESSION ||

  000f3	8b 06		 mov	 eax, DWORD PTR [esi]
  000f5	8b ce		 mov	 ecx, esi
  000f7	8b 40 24	 mov	 eax, DWORD PTR [eax+36]
  000fa	ff d0		 call	 eax
  000fc	83 f8 1b	 cmp	 eax, 27			; 0000001bH
  000ff	74 50		 je	 SHORT $LN14@MakeElemen
  00101	8b 06		 mov	 eax, DWORD PTR [esi]
  00103	8b ce		 mov	 ecx, esi
  00105	8b 40 24	 mov	 eax, DWORD PTR [eax+36]
  00108	ff d0		 call	 eax
  0010a	83 f8 1c	 cmp	 eax, 28			; 0000001cH
  0010d	74 42		 je	 SHORT $LN14@MakeElemen

; 729  : 	}
; 730  : 	else
; 731  : 	{
; 732  : 		pElement = CElementFactory::Make(GetToolType(),coordStart,coordEnd,GetTextPosition(),environment);

  0010f	8b 06		 mov	 eax, DWORD PTR [esi]
  00111	83 ec 08	 sub	 esp, 8
  00114	0f 57 c0	 xorps	 xmm0, xmm0
  00117	8b ce		 mov	 ecx, esi
