; Listing generated by Microsoft (R) Optimizing Compiler Version 19.29.30145.0 

	TITLE	D:\git\src\IBK\IBK_DRFN\#DRfn-CS\_Obj\AnalysisTool\ScaleBaseData.obj
	.686P
	.XMM
	include listing.inc
	.model	flat

INCLUDELIB MSVCRT
INCLUDELIB OLDNAMES

PUBLIC	?__empty_global_delete@@YAXPAX@Z		; __empty_global_delete
PUBLIC	?__empty_global_delete@@YAXPAXI@Z		; __empty_global_delete
PUBLIC	??4CScaleCompart@@QAEAAV0@ABV0@@Z		; CScaleCompart::operator=
PUBLIC	??0CScaleCompart@@QAE@XZ			; CScaleCompart::CScaleCompart
PUBLIC	??0CScaleCompart@@QAE@ABV?$CStringT@DV?$StrTraitMFC_DLL@DV?$ChTraitsCRT@D@ATL@@@@@ATL@@0W4TEXTCOMPARTTYPE@CScaleBaseData@@@Z ; CScaleCompart::CScaleCompart
PUBLIC	?GetDateCompart@CScaleCompart@@QBE?AV?$CStringT@DV?$StrTraitMFC_DLL@DV?$ChTraitsCRT@D@ATL@@@@@ATL@@XZ ; CScaleCompart::GetDateCompart
PUBLIC	?GetTimeCompart@CScaleCompart@@QBE?AV?$CStringT@DV?$StrTraitMFC_DLL@DV?$ChTraitsCRT@D@ATL@@@@@ATL@@XZ ; CScaleCompart::GetTimeCompart
PUBLIC	?GetScaleTextType@CScaleCompart@@QBE?AW4TEXTCOMPARTTYPE@CScaleBaseData@@XZ ; CScaleCompart::GetScaleTextType
PUBLIC	?SetCompart@CScaleCompart@@QAEXABV?$CStringT@DV?$StrTraitMFC_DLL@DV?$ChTraitsCRT@D@ATL@@@@@ATL@@@Z ; CScaleCompart::SetCompart
PUBLIC	?SetDateCompart@CScaleCompart@@QAEXABV?$CStringT@DV?$StrTraitMFC_DLL@DV?$ChTraitsCRT@D@ATL@@@@@ATL@@@Z ; CScaleCompart::SetDateCompart
PUBLIC	?SetTimeCompart@CScaleCompart@@QAEXABV?$CStringT@DV?$StrTraitMFC_DLL@DV?$ChTraitsCRT@D@ATL@@@@@ATL@@@Z ; CScaleCompart::SetTimeCompart
PUBLIC	?SetScaleTextType@CScaleCompart@@QAEXW4TEXTCOMPARTTYPE@CScaleBaseData@@@Z ; CScaleCompart::SetScaleTextType
PUBLIC	??1CScaleCompart@@QAE@XZ			; CScaleCompart::~CScaleCompart
PUBLIC	??4CScale@@QAEAAV0@ABV0@@Z			; CScale::operator=
PUBLIC	??0CScale@@QAE@XZ				; CScale::CScale
PUBLIC	?SetData@CScale@@QAEXABV?$CStringT@DV?$StrTraitMFC_DLL@DV?$ChTraitsCRT@D@ATL@@@@@ATL@@@Z ; CScale::SetData
PUBLIC	?SetScaleData@CScale@@UAEXABV?$CStringT@DV?$StrTraitMFC_DLL@DV?$ChTraitsCRT@D@ATL@@@@@ATL@@@Z ; CScale::SetScaleData
PUBLIC	?SetGridType@CScale@@QAEXW4SCALEGRIDTYPE@CScaleBaseData@@@Z ; CScale::SetGridType
PUBLIC	?GetScaleData@CScale@@QBE?AV?$CStringT@DV?$StrTraitMFC_DLL@DV?$ChTraitsCRT@D@ATL@@@@@ATL@@XZ ; CScale::GetScaleData
PUBLIC	?GetGridType@CScale@@QBE?AW4SCALEGRIDTYPE@CScaleBaseData@@XZ ; CScale::GetGridType
PUBLIC	?SetGridType@CScale@@IAEXABV?$CStringT@DV?$StrTraitMFC_DLL@DV?$ChTraitsCRT@D@ATL@@@@@ATL@@@Z ; CScale::SetGridType
PUBLIC	??1CScale@@QAE@XZ				; CScale::~CScale
PUBLIC	??4CHorizontalScale@@QAEAAV0@ABV0@@Z		; CHorizontalScale::operator=
PUBLIC	??0CHorizontalScale@@QAE@XZ			; CHorizontalScale::CHorizontalScale
PUBLIC	?SetScaleData@CHorizontalScale@@UAEXABV?$CStringT@DV?$StrTraitMFC_DLL@DV?$ChTraitsCRT@D@ATL@@@@@ATL@@@Z ; CHorizontalScale::SetScaleData
PUBLIC	?SetHorzScalePosition@CHorizontalScale@@QAEXABV?$CStringT@DV?$StrTraitMFC_DLL@DV?$ChTraitsCRT@D@ATL@@@@@ATL@@@Z ; CHorizontalScale::SetHorzScalePosition
PUBLIC	?SetHorzScalePosition@CHorizontalScale@@QAEXW4HORZSCALEPOSITION@CScaleBaseData@@@Z ; CHorizontalScale::SetHorzScalePosition
PUBLIC	?SetScaleCompart@CHorizontalScale@@QAEXABVCScaleCompart@@@Z ; CHorizontalScale::SetScaleCompart
PUBLIC	?GetHorzScalePosition@CHorizontalScale@@QBE?AW4HORZSCALEPOSITION@CScaleBaseData@@XZ ; CHorizontalScale::GetHorzScalePosition
PUBLIC	?GetScaleCompart@CHorizontalScale@@QBE?AVCScaleCompart@@XZ ; CHorizontalScale::GetScaleCompart
PUBLIC	?GetScaleCompart@CHorizontalScale@@QAEAAVCScaleCompart@@XZ ; CHorizontalScale::GetScaleCompart
PUBLIC	?GetScaleAllData@CHorizontalScale@@QBE?AV?$CStringT@DV?$StrTraitMFC_DLL@DV?$ChTraitsCRT@D@ATL@@@@@ATL@@XZ ; CHorizontalScale::GetScaleAllData
PUBLIC	??4CVerticalScale@@QAEAAV0@ABV0@@Z		; CVerticalScale::operator=
PUBLIC	??0CVerticalScale@@QAE@XZ			; CVerticalScale::CVerticalScale
PUBLIC	?SetScaleData@CVerticalScale@@UAEXABV?$CStringT@DV?$StrTraitMFC_DLL@DV?$ChTraitsCRT@D@ATL@@@@@ATL@@@Z ; CVerticalScale::SetScaleData
PUBLIC	?SetVertScalePosition@CVerticalScale@@QAEXABV?$CStringT@DV?$StrTraitMFC_DLL@DV?$ChTraitsCRT@D@ATL@@@@@ATL@@@Z ; CVerticalScale::SetVertScalePosition
PUBLIC	?SetVertScalePosition@CVerticalScale@@QAEXW4VERTSCALEPOSITION@CScaleBaseData@@@Z ; CVerticalScale::SetVertScalePosition
PUBLIC	?SetVertScaleUnitType@CVerticalScale@@QAEXABV?$CStringT@DV?$StrTraitMFC_DLL@DV?$ChTraitsCRT@D@ATL@@@@@ATL@@@Z ; CVerticalScale::SetVertScaleUnitType
PUBLIC	?SetVertScaleUnitType@CVerticalScale@@QAEXW4VERTSCALEUNITTYPE@CScaleBaseData@@@Z ; CVerticalScale::SetVertScaleUnitType
PUBLIC	?GetVertScalePosition@CVerticalScale@@QBE?AW4VERTSCALEPOSITION@CScaleBaseData@@XZ ; CVerticalScale::GetVertScalePosition
PUBLIC	?GetVertScaleUnitType@CVerticalScale@@QBE?AW4VERTSCALEUNITTYPE@CScaleBaseData@@XZ ; CVerticalScale::GetVertScaleUnitType
PUBLIC	?GetScaleAllData@CVerticalScale@@QBE?AV?$CStringT@DV?$StrTraitMFC_DLL@DV?$ChTraitsCRT@D@ATL@@@@@ATL@@XZ ; CVerticalScale::GetScaleAllData
PUBLIC	?GetScaleAllData@CVerticalScale@@QBE?AV?$CStringT@DV?$StrTraitMFC_DLL@DV?$ChTraitsCRT@D@ATL@@@@@ATL@@ABV23@@Z ; CVerticalScale::GetScaleAllData
PUBLIC	??0CHorzScaleRegionHeight@@QAE@XZ		; CHorzScaleRegionHeight::CHorzScaleRegionHeight
PUBLIC	??0CHorzScaleRegionHeight@@QAE@HH@Z		; CHorzScaleRegionHeight::CHorzScaleRegionHeight
PUBLIC	?SetTopHorzScaleRegionHeight@CHorzScaleRegionHeight@@QAEXH@Z ; CHorzScaleRegionHeight::SetTopHorzScaleRegionHeight
PUBLIC	?SetBottomHorzScaleRegionHeight@CHorzScaleRegionHeight@@QAEXH@Z ; CHorzScaleRegionHeight::SetBottomHorzScaleRegionHeight
PUBLIC	?GetTopHorzScaleRegionHeight@CHorzScaleRegionHeight@@QBEHXZ ; CHorzScaleRegionHeight::GetTopHorzScaleRegionHeight
PUBLIC	?GetBottomHorzScaleRegionHeight@CHorzScaleRegionHeight@@QBEHXZ ; CHorzScaleRegionHeight::GetBottomHorzScaleRegionHeight
PUBLIC	??0CVertScaleRegionWidth@@QAE@XZ		; CVertScaleRegionWidth::CVertScaleRegionWidth
PUBLIC	??0CVertScaleRegionWidth@@QAE@HH@Z		; CVertScaleRegionWidth::CVertScaleRegionWidth
PUBLIC	?SetLeftVertScaleRegionWidth@CVertScaleRegionWidth@@QAEXH@Z ; CVertScaleRegionWidth::SetLeftVertScaleRegionWidth
PUBLIC	?SetRightVertScaleRegionWidth@CVertScaleRegionWidth@@QAEXH@Z ; CVertScaleRegionWidth::SetRightVertScaleRegionWidth
PUBLIC	?GetLeftVertScaleRegionWidth@CVertScaleRegionWidth@@QBEHXZ ; CVertScaleRegionWidth::GetLeftVertScaleRegionWidth
PUBLIC	?GetRightVertScaleRegionWidth@CVertScaleRegionWidth@@QBEHXZ ; CVertScaleRegionWidth::GetRightVertScaleRegionWidth
PUBLIC	??0CHorzScaleRegion@@QAE@XZ			; CHorzScaleRegion::CHorzScaleRegion
PUBLIC	?SetTopScaleRegion@CHorzScaleRegion@@QAEXABVCRect@@@Z ; CHorzScaleRegion::SetTopScaleRegion
PUBLIC	?SetBottomScaleRegion@CHorzScaleRegion@@QAEXABVCRect@@@Z ; CHorzScaleRegion::SetBottomScaleRegion
PUBLIC	?GetTopScaleRegion@CHorzScaleRegion@@QBE?AVCRect@@XZ ; CHorzScaleRegion::GetTopScaleRegion
PUBLIC	?GetBottomScaleRegion@CHorzScaleRegion@@QBE?AVCRect@@XZ ; CHorzScaleRegion::GetBottomScaleRegion
PUBLIC	?PointInRegion@CHorzScaleRegion@@QBE_NABVCPoint@@@Z ; CHorzScaleRegion::PointInRegion
PUBLIC	??0CVertScaleRegion@@QAE@XZ			; CVertScaleRegion::CVertScaleRegion
PUBLIC	?SetLeftScaleRegion@CVertScaleRegion@@QAEXABVCRect@@@Z ; CVertScaleRegion::SetLeftScaleRegion
PUBLIC	?SetRightScaleRegion@CVertScaleRegion@@QAEXABVCRect@@@Z ; CVertScaleRegion::SetRightScaleRegion
PUBLIC	?OffsetRegion@CVertScaleRegion@@QAEXHH@Z	; CVertScaleRegion::OffsetRegion
PUBLIC	?GetLeftScaleRegion@CVertScaleRegion@@QBE?AVCRect@@XZ ; CVertScaleRegion::GetLeftScaleRegion
PUBLIC	?GetRightScaleRegion@CVertScaleRegion@@QBE?AVCRect@@XZ ; CVertScaleRegion::GetRightScaleRegion
PUBLIC	?GetLeftScaleTextRegion@CVertScaleRegion@@QBE?AVCRect@@XZ ; CVertScaleRegion::GetLeftScaleTextRegion
PUBLIC	?GetLeftScaleGridRegion@CVertScaleRegion@@QBE?AVCRect@@XZ ; CVertScaleRegion::GetLeftScaleGridRegion
PUBLIC	?GetRightScaleTextRegion@CVertScaleRegion@@QBE?AVCRect@@XZ ; CVertScaleRegion::GetRightScaleTextRegion
PUBLIC	?GetRightScaleGridRegion@CVertScaleRegion@@QBE?AVCRect@@XZ ; CVertScaleRegion::GetRightScaleGridRegion
PUBLIC	?PointInRegion@CVertScaleRegion@@QBE_NABVCPoint@@@Z ; CVertScaleRegion::PointInRegion
PUBLIC	??_7CScale@@6B@					; CScale::`vftable'
PUBLIC	??_7CHorizontalScale@@6B@			; CHorizontalScale::`vftable'
PUBLIC	??_7CVerticalScale@@6B@				; CVerticalScale::`vftable'
PUBLIC	??_C@_01LFCBOECM@?4@				; `string'
PUBLIC	??_C@_01JLIPDDHJ@?3@				; `string'
PUBLIC	??_C@_01ICJEACDI@?$DL@				; `string'
PUBLIC	??_C@_02PCIJFNDE@?$AN?6@			; `string'
PUBLIC	??_R4CScale@@6B@				; CScale::`RTTI Complete Object Locator'
PUBLIC	??_R0?AVCScale@@@8				; CScale `RTTI Type Descriptor'
PUBLIC	??_R3CScale@@8					; CScale::`RTTI Class Hierarchy Descriptor'
PUBLIC	??_R2CScale@@8					; CScale::`RTTI Base Class Array'
PUBLIC	??_R1A@?0A@EA@CScale@@8				; CScale::`RTTI Base Class Descriptor at (0,-1,0,64)'
PUBLIC	??_R4CHorizontalScale@@6B@			; CHorizontalScale::`RTTI Complete Object Locator'
PUBLIC	??_R0?AVCHorizontalScale@@@8			; CHorizontalScale `RTTI Type Descriptor'
PUBLIC	??_R3CHorizontalScale@@8			; CHorizontalScale::`RTTI Class Hierarchy Descriptor'
PUBLIC	??_R2CHorizontalScale@@8			; CHorizontalScale::`RTTI Base Class Array'
PUBLIC	??_R1A@?0A@EA@CHorizontalScale@@8		; CHorizontalScale::`RTTI Base Class Descriptor at (0,-1,0,64)'
PUBLIC	??_R4CVerticalScale@@6B@			; CVerticalScale::`RTTI Complete Object Locator'
PUBLIC	??_R0?AVCVerticalScale@@@8			; CVerticalScale `RTTI Type Descriptor'
PUBLIC	??_R3CVerticalScale@@8				; CVerticalScale::`RTTI Class Hierarchy Descriptor'
PUBLIC	??_R2CVerticalScale@@8				; CVerticalScale::`RTTI Base Class Array'
PUBLIC	??_R1A@?0A@EA@CVerticalScale@@8			; CVerticalScale::`RTTI Base Class Descriptor at (0,-1,0,64)'
EXTRN	__imp__PtInRect@12:PROC
EXTRN	__imp__atoi:PROC
EXTRN	__imp_?Concatenate@?$CSimpleStringT@D$00@ATL@@KAXAAV12@PBDH1H@Z:PROC
EXTRN	__imp_??0?$CStringT@DV?$StrTraitMFC_DLL@DV?$ChTraitsCRT@D@ATL@@@@@ATL@@QAE@XZ:PROC
EXTRN	__imp_??0?$CStringT@DV?$StrTraitMFC_DLL@DV?$ChTraitsCRT@D@ATL@@@@@ATL@@QAE@PAUIAtlStringMgr@1@@Z:PROC
EXTRN	__imp_??0?$CStringT@DV?$StrTraitMFC_DLL@DV?$ChTraitsCRT@D@ATL@@@@@ATL@@QAE@ABV01@@Z:PROC
EXTRN	__imp_??0?$CStringT@DV?$StrTraitMFC_DLL@DV?$ChTraitsCRT@D@ATL@@@@@ATL@@QAE@PBD@Z:PROC
EXTRN	__imp_??1?$CStringT@DV?$StrTraitMFC_DLL@DV?$ChTraitsCRT@D@ATL@@@@@ATL@@QAE@XZ:PROC
EXTRN	__imp_??4?$CStringT@DV?$StrTraitMFC_DLL@DV?$ChTraitsCRT@D@ATL@@@@@ATL@@QAEAAV01@ABV01@@Z:PROC
EXTRN	__imp_??Y?$CStringT@DV?$StrTraitMFC_DLL@DV?$ChTraitsCRT@D@ATL@@@@@ATL@@QAEAAV01@ABV?$CSimpleStringT@D$00@1@@Z:PROC
EXTRN	__imp_?GetManager@?$CStringT@DV?$StrTraitMFC_DLL@DV?$ChTraitsCRT@D@ATL@@@@@ATL@@QBEPAUIAtlStringMgr@2@XZ:PROC
EXTRN	?IntToString@CDataConversion@@SA?AV?$CStringT@DV?$StrTraitMFC_DLL@DV?$ChTraitsCRT@D@ATL@@@@@ATL@@H@Z:PROC ; CDataConversion::IntToString
EXTRN	?GetStringData@CDataConversion@@SA?AV?$CStringT@DV?$StrTraitMFC_DLL@DV?$ChTraitsCRT@D@ATL@@@@@ATL@@AAV23@ABV23@_N@Z:PROC ; CDataConversion::GetStringData
EXTRN	@__security_check_cookie@4:PROC
EXTRN	___CxxFrameHandler3:PROC
EXTRN	??_7type_info@@6B@:QWORD			; type_info::`vftable'
EXTRN	___security_cookie:DWORD
;	COMDAT ??_R1A@?0A@EA@CVerticalScale@@8
rdata$r	SEGMENT
??_R1A@?0A@EA@CVerticalScale@@8 DD FLAT:??_R0?AVCVerticalScale@@@8 ; CVerticalScale::`RTTI Base Class Descriptor at (0,-1,0,64)'
	DD	01H
	DD	00H
	DD	0ffffffffH
	DD	00H
	DD	040H
	DD	FLAT:??_R3CVerticalScale@@8
rdata$r	ENDS
;	COMDAT ??_R2CVerticalScale@@8
rdata$r	SEGMENT
??_R2CVerticalScale@@8 DD FLAT:??_R1A@?0A@EA@CVerticalScale@@8 ; CVerticalScale::`RTTI Base Class Array'
	DD	FLAT:??_R1A@?0A@EA@CScale@@8
rdata$r	ENDS
;	COMDAT ??_R3CVerticalScale@@8
rdata$r	SEGMENT
??_R3CVerticalScale@@8 DD 00H				; CVerticalScale::`RTTI Class Hierarchy Descriptor'
	DD	00H
	DD	02H
	DD	FLAT:??_R2CVerticalScale@@8
rdata$r	ENDS
;	COMDAT ??_R0?AVCVerticalScale@@@8
data$rs	SEGMENT
??_R0?AVCVerticalScale@@@8 DD FLAT:??_7type_info@@6B@	; CVerticalScale `RTTI Type Descriptor'
	DD	00H
	DB	'.?AVCVerticalScale@@', 00H
data$rs	ENDS
;	COMDAT ??_R4CVerticalScale@@6B@
rdata$r	SEGMENT
??_R4CVerticalScale@@6B@ DD 00H				; CVerticalScale::`RTTI Complete Object Locator'
	DD	00H
	DD	00H
	DD	FLAT:??_R0?AVCVerticalScale@@@8
	DD	FLAT:??_R3CVerticalScale@@8
rdata$r	ENDS
;	COMDAT ??_R1A@?0A@EA@CHorizontalScale@@8
rdata$r	SEGMENT
??_R1A@?0A@EA@CHorizontalScale@@8 DD FLAT:??_R0?AVCHorizontalScale@@@8 ; CHorizontalScale::`RTTI Base Class Descriptor at (0,-1,0,64)'
	DD	01H
	DD	00H
	DD	0ffffffffH
	DD	00H
	DD	040H
	DD	FLAT:??_R3CHorizontalScale@@8
rdata$r	ENDS
;	COMDAT ??_R2CHorizontalScale@@8
rdata$r	SEGMENT
??_R2CHorizontalScale@@8 DD FLAT:??_R1A@?0A@EA@CHorizontalScale@@8 ; CHorizontalScale::`RTTI Base Class Array'
	DD	FLAT:??_R1A@?0A@EA@CScale@@8
rdata$r	ENDS
;	COMDAT ??_R3CHorizontalScale@@8
rdata$r	SEGMENT
??_R3CHorizontalScale@@8 DD 00H				; CHorizontalScale::`RTTI Class Hierarchy Descriptor'
	DD	00H
	DD	02H
	DD	FLAT:??_R2CHorizontalScale@@8
rdata$r	ENDS
;	COMDAT ??_R0?AVCHorizontalScale@@@8
data$rs	SEGMENT
??_R0?AVCHorizontalScale@@@8 DD FLAT:??_7type_info@@6B@	; CHorizontalScale `RTTI Type Descriptor'
	DD	00H
	DB	'.?AVCHorizontalScale@@', 00H
data$rs	ENDS
;	COMDAT ??_R4CHorizontalScale@@6B@
rdata$r	SEGMENT
??_R4CHorizontalScale@@6B@ DD 00H			; CHorizontalScale::`RTTI Complete Object Locator'
	DD	00H
	DD	00H
	DD	FLAT:??_R0?AVCHorizontalScale@@@8
	DD	FLAT:??_R3CHorizontalScale@@8
rdata$r	ENDS
;	COMDAT ??_R1A@?0A@EA@CScale@@8
rdata$r	SEGMENT
??_R1A@?0A@EA@CScale@@8 DD FLAT:??_R0?AVCScale@@@8	; CScale::`RTTI Base Class Descriptor at (0,-1,0,64)'
	DD	00H
	DD	00H
	DD	0ffffffffH
	DD	00H
	DD	040H
	DD	FLAT:??_R3CScale@@8
rdata$r	ENDS
;	COMDAT ??_R2CScale@@8
rdata$r	SEGMENT
??_R2CScale@@8 DD FLAT:??_R1A@?0A@EA@CScale@@8		; CScale::`RTTI Base Class Array'
rdata$r	ENDS
;	COMDAT ??_R3CScale@@8
rdata$r	SEGMENT
??_R3CScale@@8 DD 00H					; CScale::`RTTI Class Hierarchy Descriptor'
	DD	00H
	DD	01H
	DD	FLAT:??_R2CScale@@8
rdata$r	ENDS
;	COMDAT ??_R0?AVCScale@@@8
data$rs	SEGMENT
??_R0?AVCScale@@@8 DD FLAT:??_7type_info@@6B@		; CScale `RTTI Type Descriptor'
	DD	00H
	DB	'.?AVCScale@@', 00H
data$rs	ENDS
;	COMDAT ??_R4CScale@@6B@
rdata$r	SEGMENT
??_R4CScale@@6B@ DD 00H					; CScale::`RTTI Complete Object Locator'
	DD	00H
	DD	00H
	DD	FLAT:??_R0?AVCScale@@@8
	DD	FLAT:??_R3CScale@@8
rdata$r	ENDS
;	COMDAT ??_C@_02PCIJFNDE@?$AN?6@
CONST	SEGMENT
??_C@_02PCIJFNDE@?$AN?6@ DB 0dH, 0aH, 00H		; `string'
CONST	ENDS
;	COMDAT ??_C@_01ICJEACDI@?$DL@
CONST	SEGMENT
??_C@_01ICJEACDI@?$DL@ DB ';', 00H			; `string'
CONST	ENDS
;	COMDAT ??_C@_01JLIPDDHJ@?3@
CONST	SEGMENT
??_C@_01JLIPDDHJ@?3@ DB ':', 00H			; `string'
CONST	ENDS
;	COMDAT ??_C@_01LFCBOECM@?4@
CONST	SEGMENT
??_C@_01LFCBOECM@?4@ DB '.', 00H			; `string'
CONST	ENDS
;	COMDAT ??_7CVerticalScale@@6B@
CONST	SEGMENT
??_7CVerticalScale@@6B@ DD FLAT:??_R4CVerticalScale@@6B@ ; CVerticalScale::`vftable'
	DD	FLAT:?SetScaleData@CVerticalScale@@UAEXABV?$CStringT@DV?$StrTraitMFC_DLL@DV?$ChTraitsCRT@D@ATL@@@@@ATL@@@Z
CONST	ENDS
;	COMDAT ??_7CHorizontalScale@@6B@
CONST	SEGMENT
??_7CHorizontalScale@@6B@ DD FLAT:??_R4CHorizontalScale@@6B@ ; CHorizontalScale::`vftable'
	DD	FLAT:?SetScaleData@CHorizontalScale@@UAEXABV?$CStringT@DV?$StrTraitMFC_DLL@DV?$ChTraitsCRT@D@ATL@@@@@ATL@@@Z
CONST	ENDS
;	COMDAT ??_7CScale@@6B@
CONST	SEGMENT
??_7CScale@@6B@ DD FLAT:??_R4CScale@@6B@		; CScale::`vftable'
	DD	FLAT:?SetScaleData@CScale@@UAEXABV?$CStringT@DV?$StrTraitMFC_DLL@DV?$ChTraitsCRT@D@ATL@@@@@ATL@@@Z
CONST	ENDS
;	COMDAT xdata$x
xdata$x	SEGMENT
__ehfuncinfo$?GetScaleAllData@CVerticalScale@@QBE?AV?$CStringT@DV?$StrTraitMFC_DLL@DV?$ChTraitsCRT@D@ATL@@@@@ATL@@ABV23@@Z DD 019930522H
	DD	09H
	DD	FLAT:__unwindtable$?GetScaleAllData@CVerticalScale@@QBE?AV?$CStringT@DV?$StrTraitMFC_DLL@DV?$ChTraitsCRT@D@ATL@@@@@ATL@@ABV23@@Z
	DD	2 DUP(00H)
	DD	2 DUP(00H)
	DD	00H
	DD	01H
__unwindtable$?GetScaleAllData@CVerticalScale@@QBE?AV?$CStringT@DV?$StrTraitMFC_DLL@DV?$ChTraitsCRT@D@ATL@@@@@ATL@@ABV23@@Z DD 0ffffffffH
	DD	FLAT:__unwindfunclet$?GetScaleAllData@CVerticalScale@@QBE?AV?$CStringT@DV?$StrTraitMFC_DLL@DV?$ChTraitsCRT@D@ATL@@@@@ATL@@ABV23@@Z$0
	DD	00H
	DD	FLAT:__unwindfunclet$?GetScaleAllData@CVerticalScale@@QBE?AV?$CStringT@DV?$StrTraitMFC_DLL@DV?$ChTraitsCRT@D@ATL@@@@@ATL@@ABV23@@Z$9
	DD	00H
	DD	FLAT:__unwindfunclet$?GetScaleAllData@CVerticalScale@@QBE?AV?$CStringT@DV?$StrTraitMFC_DLL@DV?$ChTraitsCRT@D@ATL@@@@@ATL@@ABV23@@Z$2
	DD	02H
	DD	FLAT:__unwindfunclet$?GetScaleAllData@CVerticalScale@@QBE?AV?$CStringT@DV?$StrTraitMFC_DLL@DV?$ChTraitsCRT@D@ATL@@@@@ATL@@ABV23@@Z$10
	DD	00H
	DD	FLAT:__unwindfunclet$?GetScaleAllData@CVerticalScale@@QBE?AV?$CStringT@DV?$StrTraitMFC_DLL@DV?$ChTraitsCRT@D@ATL@@@@@ATL@@ABV23@@Z$4
	DD	04H
	DD	FLAT:__unwindfunclet$?GetScaleAllData@CVerticalScale@@QBE?AV?$CStringT@DV?$StrTraitMFC_DLL@DV?$ChTraitsCRT@D@ATL@@@@@ATL@@ABV23@@Z$11
	DD	00H
	DD	FLAT:__unwindfunclet$?GetScaleAllData@CVerticalScale@@QBE?AV?$CStringT@DV?$StrTraitMFC_DLL@DV?$ChTraitsCRT@D@ATL@@@@@ATL@@ABV23@@Z$6
	DD	06H
	DD	FLAT:__unwindfunclet$?GetScaleAllData@CVerticalScale@@QBE?AV?$CStringT@DV?$StrTraitMFC_DLL@DV?$ChTraitsCRT@D@ATL@@@@@ATL@@ABV23@@Z$12
	DD	00H
	DD	FLAT:__unwindfunclet$?GetScaleAllData@CVerticalScale@@QBE?AV?$CStringT@DV?$StrTraitMFC_DLL@DV?$ChTraitsCRT@D@ATL@@@@@ATL@@ABV23@@Z$13
xdata$x	ENDS
;	COMDAT xdata$x
xdata$x	SEGMENT
__ehfuncinfo$?GetScaleAllData@CVerticalScale@@QBE?AV?$CStringT@DV?$StrTraitMFC_DLL@DV?$ChTraitsCRT@D@ATL@@@@@ATL@@XZ DD 019930522H
	DD	0aH
	DD	FLAT:__unwindtable$?GetScaleAllData@CVerticalScale@@QBE?AV?$CStringT@DV?$StrTraitMFC_DLL@DV?$ChTraitsCRT@D@ATL@@@@@ATL@@XZ
	DD	2 DUP(00H)
	DD	2 DUP(00H)
	DD	00H
	DD	01H
__unwindtable$?GetScaleAllData@CVerticalScale@@QBE?AV?$CStringT@DV?$StrTraitMFC_DLL@DV?$ChTraitsCRT@D@ATL@@@@@ATL@@XZ DD 0ffffffffH
	DD	FLAT:__unwindfunclet$?GetScaleAllData@CVerticalScale@@QBE?AV?$CStringT@DV?$StrTraitMFC_DLL@DV?$ChTraitsCRT@D@ATL@@@@@ATL@@XZ$0
	DD	00H
	DD	FLAT:__unwindfunclet$?GetScaleAllData@CVerticalScale@@QBE?AV?$CStringT@DV?$StrTraitMFC_DLL@DV?$ChTraitsCRT@D@ATL@@@@@ATL@@XZ$1
	DD	01H
	DD	FLAT:__unwindfunclet$?GetScaleAllData@CVerticalScale@@QBE?AV?$CStringT@DV?$StrTraitMFC_DLL@DV?$ChTraitsCRT@D@ATL@@@@@ATL@@XZ$11
	DD	00H
	DD	FLAT:__unwindfunclet$?GetScaleAllData@CVerticalScale@@QBE?AV?$CStringT@DV?$StrTraitMFC_DLL@DV?$ChTraitsCRT@D@ATL@@@@@ATL@@XZ$3
	DD	03H
	DD	FLAT:__unwindfunclet$?GetScaleAllData@CVerticalScale@@QBE?AV?$CStringT@DV?$StrTraitMFC_DLL@DV?$ChTraitsCRT@D@ATL@@@@@ATL@@XZ$12
	DD	00H
	DD	FLAT:__unwindfunclet$?GetScaleAllData@CVerticalScale@@QBE?AV?$CStringT@DV?$StrTraitMFC_DLL@DV?$ChTraitsCRT@D@ATL@@@@@ATL@@XZ$5
	DD	05H
	DD	FLAT:__unwindfunclet$?GetScaleAllData@CVerticalScale@@QBE?AV?$CStringT@DV?$StrTraitMFC_DLL@DV?$ChTraitsCRT@D@ATL@@@@@ATL@@XZ$13
	DD	00H
	DD	FLAT:__unwindfunclet$?GetScaleAllData@CVerticalScale@@QBE?AV?$CStringT@DV?$StrTraitMFC_DLL@DV?$ChTraitsCRT@D@ATL@@@@@ATL@@XZ$7
	DD	07H
	DD	FLAT:__unwindfunclet$?GetScaleAllData@CVerticalScale@@QBE?AV?$CStringT@DV?$StrTraitMFC_DLL@DV?$ChTraitsCRT@D@ATL@@@@@ATL@@XZ$14
	DD	00H
	DD	FLAT:__unwindfunclet$?GetScaleAllData@CVerticalScale@@QBE?AV?$CStringT@DV?$StrTraitMFC_DLL@DV?$ChTraitsCRT@D@ATL@@@@@ATL@@XZ$15
xdata$x	ENDS
;	COMDAT xdata$x
xdata$x	SEGMENT
__ehfuncinfo$?SetScaleData@CVerticalScale@@UAEXABV?$CStringT@DV?$StrTraitMFC_DLL@DV?$ChTraitsCRT@D@ATL@@@@@ATL@@@Z DD 019930522H
	DD	06H
	DD	FLAT:__unwindtable$?SetScaleData@CVerticalScale@@UAEXABV?$CStringT@DV?$StrTraitMFC_DLL@DV?$ChTraitsCRT@D@ATL@@@@@ATL@@@Z
	DD	2 DUP(00H)
	DD	2 DUP(00H)
	DD	00H
	DD	01H
__unwindtable$?SetScaleData@CVerticalScale@@UAEXABV?$CStringT@DV?$StrTraitMFC_DLL@DV?$ChTraitsCRT@D@ATL@@@@@ATL@@@Z DD 0ffffffffH
	DD	FLAT:__unwindfunclet$?SetScaleData@CVerticalScale@@UAEXABV?$CStringT@DV?$StrTraitMFC_DLL@DV?$ChTraitsCRT@D@ATL@@@@@ATL@@@Z$0
	DD	00H
	DD	FLAT:__unwindfunclet$?SetScaleData@CVerticalScale@@UAEXABV?$CStringT@DV?$StrTraitMFC_DLL@DV?$ChTraitsCRT@D@ATL@@@@@ATL@@@Z$1
	DD	01H
	DD	FLAT:__unwindfunclet$?SetScaleData@CVerticalScale@@UAEXABV?$CStringT@DV?$StrTraitMFC_DLL@DV?$ChTraitsCRT@D@ATL@@@@@ATL@@@Z$2
	DD	00H
	DD	FLAT:__unwindfunclet$?SetScaleData@CVerticalScale@@UAEXABV?$CStringT@DV?$StrTraitMFC_DLL@DV?$ChTraitsCRT@D@ATL@@@@@ATL@@@Z$3
	DD	00H
	DD	FLAT:__unwindfunclet$?SetScaleData@CVerticalScale@@UAEXABV?$CStringT@DV?$StrTraitMFC_DLL@DV?$ChTraitsCRT@D@ATL@@@@@ATL@@@Z$5
	DD	00H
	DD	FLAT:__unwindfunclet$?SetScaleData@CVerticalScale@@UAEXABV?$CStringT@DV?$StrTraitMFC_DLL@DV?$ChTraitsCRT@D@ATL@@@@@ATL@@@Z$7
xdata$x	ENDS
;	COMDAT xdata$x
xdata$x	SEGMENT
__unwindtable$??4CVerticalScale@@QAEAAV0@ABV0@@Z DD 0ffffffffH
	DD	FLAT:__unwindfunclet$??4CVerticalScale@@QAEAAV0@ABV0@@Z$0
	DD	00H
	DD	FLAT:__unwindfunclet$??4CVerticalScale@@QAEAAV0@ABV0@@Z$2
__ehfuncinfo$??4CVerticalScale@@QAEAAV0@ABV0@@Z DD 019930522H
	DD	02H
	DD	FLAT:__unwindtable$??4CVerticalScale@@QAEAAV0@ABV0@@Z
	DD	2 DUP(00H)
	DD	2 DUP(00H)
	DD	00H
	DD	01H
xdata$x	ENDS
;	COMDAT xdata$x
xdata$x	SEGMENT
__ehfuncinfo$?GetScaleAllData@CHorizontalScale@@QBE?AV?$CStringT@DV?$StrTraitMFC_DLL@DV?$ChTraitsCRT@D@ATL@@@@@ATL@@XZ DD 019930522H
	DD	0dH
	DD	FLAT:__unwindtable$?GetScaleAllData@CHorizontalScale@@QBE?AV?$CStringT@DV?$StrTraitMFC_DLL@DV?$ChTraitsCRT@D@ATL@@@@@ATL@@XZ
	DD	2 DUP(00H)
	DD	2 DUP(00H)
	DD	00H
	DD	01H
__unwindtable$?GetScaleAllData@CHorizontalScale@@QBE?AV?$CStringT@DV?$StrTraitMFC_DLL@DV?$ChTraitsCRT@D@ATL@@@@@ATL@@XZ DD 0ffffffffH
	DD	FLAT:__unwindfunclet$?GetScaleAllData@CHorizontalScale@@QBE?AV?$CStringT@DV?$StrTraitMFC_DLL@DV?$ChTraitsCRT@D@ATL@@@@@ATL@@XZ$0
	DD	00H
	DD	FLAT:__unwindfunclet$?GetScaleAllData@CHorizontalScale@@QBE?AV?$CStringT@DV?$StrTraitMFC_DLL@DV?$ChTraitsCRT@D@ATL@@@@@ATL@@XZ$1
	DD	01H
	DD	FLAT:__unwindfunclet$?GetScaleAllData@CHorizontalScale@@QBE?AV?$CStringT@DV?$StrTraitMFC_DLL@DV?$ChTraitsCRT@D@ATL@@@@@ATL@@XZ$14
	DD	00H
	DD	FLAT:__unwindfunclet$?GetScaleAllData@CHorizontalScale@@QBE?AV?$CStringT@DV?$StrTraitMFC_DLL@DV?$ChTraitsCRT@D@ATL@@@@@ATL@@XZ$3
	DD	03H
	DD	FLAT:__unwindfunclet$?GetScaleAllData@CHorizontalScale@@QBE?AV?$CStringT@DV?$StrTraitMFC_DLL@DV?$ChTraitsCRT@D@ATL@@@@@ATL@@XZ$15
	DD	00H
	DD	FLAT:__unwindfunclet$?GetScaleAllData@CHorizontalScale@@QBE?AV?$CStringT@DV?$StrTraitMFC_DLL@DV?$ChTraitsCRT@D@ATL@@@@@ATL@@XZ$5
	DD	05H
	DD	FLAT:__unwindfunclet$?GetScaleAllData@CHorizontalScale@@QBE?AV?$CStringT@DV?$StrTraitMFC_DLL@DV?$ChTraitsCRT@D@ATL@@@@@ATL@@XZ$16
	DD	00H
	DD	FLAT:__unwindfunclet$?GetScaleAllData@CHorizontalScale@@QBE?AV?$CStringT@DV?$StrTraitMFC_DLL@DV?$ChTraitsCRT@D@ATL@@@@@ATL@@XZ$7
	DD	07H
	DD	FLAT:__unwindfunclet$?GetScaleAllData@CHorizontalScale@@QBE?AV?$CStringT@DV?$StrTraitMFC_DLL@DV?$ChTraitsCRT@D@ATL@@@@@ATL@@XZ$18
	DD	00H
	DD	FLAT:__unwindfunclet$?GetScaleAllData@CHorizontalScale@@QBE?AV?$CStringT@DV?$StrTraitMFC_DLL@DV?$ChTraitsCRT@D@ATL@@@@@ATL@@XZ$9
	DD	09H
	DD	FLAT:__unwindfunclet$?GetScaleAllData@CHorizontalScale@@QBE?AV?$CStringT@DV?$StrTraitMFC_DLL@DV?$ChTraitsCRT@D@ATL@@@@@ATL@@XZ$20
	DD	00H
	DD	FLAT:__unwindfunclet$?GetScaleAllData@CHorizontalScale@@QBE?AV?$CStringT@DV?$StrTraitMFC_DLL@DV?$ChTraitsCRT@D@ATL@@@@@ATL@@XZ$11
	DD	0bH
	DD	FLAT:__unwindfunclet$?GetScaleAllData@CHorizontalScale@@QBE?AV?$CStringT@DV?$StrTraitMFC_DLL@DV?$ChTraitsCRT@D@ATL@@@@@ATL@@XZ$21
xdata$x	ENDS
;	COMDAT xdata$x
xdata$x	SEGMENT
__unwindtable$?GetScaleCompart@CHorizontalScale@@QBE?AVCScaleCompart@@XZ DD 0ffffffffH
	DD	FLAT:__unwindfunclet$?GetScaleCompart@CHorizontalScale@@QBE?AVCScaleCompart@@XZ$1
__ehfuncinfo$?GetScaleCompart@CHorizontalScale@@QBE?AVCScaleCompart@@XZ DD 019930522H
	DD	01H
	DD	FLAT:__unwindtable$?GetScaleCompart@CHorizontalScale@@QBE?AVCScaleCompart@@XZ
	DD	2 DUP(00H)
	DD	2 DUP(00H)
	DD	00H
	DD	01H
xdata$x	ENDS
;	COMDAT xdata$x
xdata$x	SEGMENT
__ehfuncinfo$?SetScaleData@CHorizontalScale@@UAEXABV?$CStringT@DV?$StrTraitMFC_DLL@DV?$ChTraitsCRT@D@ATL@@@@@ATL@@@Z DD 019930522H
	DD	0bH
	DD	FLAT:__unwindtable$?SetScaleData@CHorizontalScale@@UAEXABV?$CStringT@DV?$StrTraitMFC_DLL@DV?$ChTraitsCRT@D@ATL@@@@@ATL@@@Z
	DD	2 DUP(00H)
	DD	2 DUP(00H)
	DD	00H
	DD	01H
__unwindtable$?SetScaleData@CHorizontalScale@@UAEXABV?$CStringT@DV?$StrTraitMFC_DLL@DV?$ChTraitsCRT@D@ATL@@@@@ATL@@@Z DD 0ffffffffH
	DD	FLAT:__unwindfunclet$?SetScaleData@CHorizontalScale@@UAEXABV?$CStringT@DV?$StrTraitMFC_DLL@DV?$ChTraitsCRT@D@ATL@@@@@ATL@@@Z$0
	DD	00H
	DD	FLAT:__unwindfunclet$?SetScaleData@CHorizontalScale@@UAEXABV?$CStringT@DV?$StrTraitMFC_DLL@DV?$ChTraitsCRT@D@ATL@@@@@ATL@@@Z$1
	DD	01H
	DD	FLAT:__unwindfunclet$?SetScaleData@CHorizontalScale@@UAEXABV?$CStringT@DV?$StrTraitMFC_DLL@DV?$ChTraitsCRT@D@ATL@@@@@ATL@@@Z$2
	DD	00H
	DD	FLAT:__unwindfunclet$?SetScaleData@CHorizontalScale@@UAEXABV?$CStringT@DV?$StrTraitMFC_DLL@DV?$ChTraitsCRT@D@ATL@@@@@ATL@@@Z$3
	DD	00H
	DD	FLAT:__unwindfunclet$?SetScaleData@CHorizontalScale@@UAEXABV?$CStringT@DV?$StrTraitMFC_DLL@DV?$ChTraitsCRT@D@ATL@@@@@ATL@@@Z$5
	DD	00H
	DD	FLAT:__unwindfunclet$?SetScaleData@CHorizontalScale@@UAEXABV?$CStringT@DV?$StrTraitMFC_DLL@DV?$ChTraitsCRT@D@ATL@@@@@ATL@@@Z$7
	DD	05H
	DD	FLAT:__unwindfunclet$?SetScaleData@CHorizontalScale@@UAEXABV?$CStringT@DV?$StrTraitMFC_DLL@DV?$ChTraitsCRT@D@ATL@@@@@ATL@@@Z$8
	DD	06H
	DD	FLAT:__unwindfunclet$?SetScaleData@CHorizontalScale@@UAEXABV?$CStringT@DV?$StrTraitMFC_DLL@DV?$ChTraitsCRT@D@ATL@@@@@ATL@@@Z$9
	DD	05H
	DD	FLAT:__unwindfunclet$?SetScaleData@CHorizontalScale@@UAEXABV?$CStringT@DV?$StrTraitMFC_DLL@DV?$ChTraitsCRT@D@ATL@@@@@ATL@@@Z$10
	DD	08H
	DD	FLAT:__unwindfunclet$?SetScaleData@CHorizontalScale@@UAEXABV?$CStringT@DV?$StrTraitMFC_DLL@DV?$ChTraitsCRT@D@ATL@@@@@ATL@@@Z$11
	DD	05H
	DD	FLAT:__unwindfunclet$?SetScaleData@CHorizontalScale@@UAEXABV?$CStringT@DV?$StrTraitMFC_DLL@DV?$ChTraitsCRT@D@ATL@@@@@ATL@@@Z$12
xdata$x	ENDS
;	COMDAT xdata$x
xdata$x	SEGMENT
__unwindtable$??0CHorizontalScale@@QAE@XZ DD 0ffffffffH
	DD	FLAT:__unwindfunclet$??0CHorizontalScale@@QAE@XZ$0
	DD	00H
	DD	FLAT:__unwindfunclet$??0CHorizontalScale@@QAE@XZ$2
__ehfuncinfo$??0CHorizontalScale@@QAE@XZ DD 019930522H
	DD	02H
	DD	FLAT:__unwindtable$??0CHorizontalScale@@QAE@XZ
	DD	2 DUP(00H)
	DD	2 DUP(00H)
	DD	00H
	DD	01H
xdata$x	ENDS
;	COMDAT xdata$x
xdata$x	SEGMENT
__unwindtable$??4CHorizontalScale@@QAEAAV0@ABV0@@Z DD 0ffffffffH
	DD	FLAT:__unwindfunclet$??4CHorizontalScale@@QAEAAV0@ABV0@@Z$0
	DD	00H
	DD	FLAT:__unwindfunclet$??4CHorizontalScale@@QAEAAV0@ABV0@@Z$3
	DD	0ffffffffH
	DD	FLAT:__unwindfunclet$??4CHorizontalScale@@QAEAAV0@ABV0@@Z$7
	DD	0ffffffffH
	DD	FLAT:__unwindfunclet$??4CHorizontalScale@@QAEAAV0@ABV0@@Z$1
__ehfuncinfo$??4CHorizontalScale@@QAEAAV0@ABV0@@Z DD 019930522H
	DD	04H
	DD	FLAT:__unwindtable$??4CHorizontalScale@@QAEAAV0@ABV0@@Z
	DD	2 DUP(00H)
	DD	2 DUP(00H)
	DD	00H
	DD	01H
xdata$x	ENDS
;	COMDAT xdata$x
xdata$x	SEGMENT
__unwindtable$??4CScale@@QAEAAV0@ABV0@@Z DD 0ffffffffH
	DD	FLAT:__unwindfunclet$??4CScale@@QAEAAV0@ABV0@@Z$0
__ehfuncinfo$??4CScale@@QAEAAV0@ABV0@@Z DD 019930522H
	DD	01H
	DD	FLAT:__unwindtable$??4CScale@@QAEAAV0@ABV0@@Z
	DD	2 DUP(00H)
	DD	2 DUP(00H)
	DD	00H
	DD	01H
xdata$x	ENDS
;	COMDAT xdata$x
xdata$x	SEGMENT
__unwindtable$??0CScaleCompart@@QAE@ABV0@@Z DD 0ffffffffH
	DD	FLAT:__unwindfunclet$??0CScaleCompart@@QAE@ABV0@@Z$0
__ehfuncinfo$??0CScaleCompart@@QAE@ABV0@@Z DD 019930522H
	DD	01H
	DD	FLAT:__unwindtable$??0CScaleCompart@@QAE@ABV0@@Z
	DD	2 DUP(00H)
	DD	2 DUP(00H)
	DD	00H
	DD	01H
xdata$x	ENDS
;	COMDAT xdata$x
xdata$x	SEGMENT
__ehfuncinfo$?SetCompart@CScaleCompart@@QAEXABV?$CStringT@DV?$StrTraitMFC_DLL@DV?$ChTraitsCRT@D@ATL@@@@@ATL@@@Z DD 019930522H
	DD	06H
	DD	FLAT:__unwindtable$?SetCompart@CScaleCompart@@QAEXABV?$CStringT@DV?$StrTraitMFC_DLL@DV?$ChTraitsCRT@D@ATL@@@@@ATL@@@Z
	DD	2 DUP(00H)
	DD	2 DUP(00H)
	DD	00H
	DD	01H
__unwindtable$?SetCompart@CScaleCompart@@QAEXABV?$CStringT@DV?$StrTraitMFC_DLL@DV?$ChTraitsCRT@D@ATL@@@@@ATL@@@Z DD 0ffffffffH
	DD	FLAT:__unwindfunclet$?SetCompart@CScaleCompart@@QAEXABV?$CStringT@DV?$StrTraitMFC_DLL@DV?$ChTraitsCRT@D@ATL@@@@@ATL@@@Z$0
	DD	00H
	DD	FLAT:__unwindfunclet$?SetCompart@CScaleCompart@@QAEXABV?$CStringT@DV?$StrTraitMFC_DLL@DV?$ChTraitsCRT@D@ATL@@@@@ATL@@@Z$1
	DD	01H
	DD	FLAT:__unwindfunclet$?SetCompart@CScaleCompart@@QAEXABV?$CStringT@DV?$StrTraitMFC_DLL@DV?$ChTraitsCRT@D@ATL@@@@@ATL@@@Z$2
	DD	00H
	DD	FLAT:__unwindfunclet$?SetCompart@CScaleCompart@@QAEXABV?$CStringT@DV?$StrTraitMFC_DLL@DV?$ChTraitsCRT@D@ATL@@@@@ATL@@@Z$3
	DD	03H
	DD	FLAT:__unwindfunclet$?SetCompart@CScaleCompart@@QAEXABV?$CStringT@DV?$StrTraitMFC_DLL@DV?$ChTraitsCRT@D@ATL@@@@@ATL@@@Z$4
	DD	00H
	DD	FLAT:__unwindfunclet$?SetCompart@CScaleCompart@@QAEXABV?$CStringT@DV?$StrTraitMFC_DLL@DV?$ChTraitsCRT@D@ATL@@@@@ATL@@@Z$5
xdata$x	ENDS
;	COMDAT xdata$x
xdata$x	SEGMENT
__unwindtable$??0CScaleCompart@@QAE@ABV?$CStringT@DV?$StrTraitMFC_DLL@DV?$ChTraitsCRT@D@ATL@@@@@ATL@@0W4TEXTCOMPARTTYPE@CScaleBaseData@@@Z DD 0ffffffffH
	DD	FLAT:__unwindfunclet$??0CScaleCompart@@QAE@ABV?$CStringT@DV?$StrTraitMFC_DLL@DV?$ChTraitsCRT@D@ATL@@@@@ATL@@0W4TEXTCOMPARTTYPE@CScaleBaseData@@@Z$0
__ehfuncinfo$??0CScaleCompart@@QAE@ABV?$CStringT@DV?$StrTraitMFC_DLL@DV?$ChTraitsCRT@D@ATL@@@@@ATL@@0W4TEXTCOMPARTTYPE@CScaleBaseData@@@Z DD 019930522H
	DD	01H
	DD	FLAT:__unwindtable$??0CScaleCompart@@QAE@ABV?$CStringT@DV?$StrTraitMFC_DLL@DV?$ChTraitsCRT@D@ATL@@@@@ATL@@0W4TEXTCOMPARTTYPE@CScaleBaseData@@@Z
	DD	2 DUP(00H)
	DD	2 DUP(00H)
	DD	00H
	DD	01H
xdata$x	ENDS
;	COMDAT xdata$x
xdata$x	SEGMENT
__unwindtable$??0CScaleCompart@@QAE@XZ DD 0ffffffffH
	DD	FLAT:__unwindfunclet$??0CScaleCompart@@QAE@XZ$0
__ehfuncinfo$??0CScaleCompart@@QAE@XZ DD 019930522H
	DD	01H
	DD	FLAT:__unwindtable$??0CScaleCompart@@QAE@XZ
	DD	2 DUP(00H)
	DD	2 DUP(00H)
	DD	00H
	DD	01H
xdata$x	ENDS
;	COMDAT xdata$x
xdata$x	SEGMENT
__unwindtable$??4CScaleCompart@@QAEAAV0@ABV0@@Z DD 0ffffffffH
	DD	FLAT:__unwindfunclet$??4CScaleCompart@@QAEAAV0@ABV0@@Z$0
	DD	0ffffffffH
	DD	FLAT:__unwindfunclet$??4CScaleCompart@@QAEAAV0@ABV0@@Z$1
__ehfuncinfo$??4CScaleCompart@@QAEAAV0@ABV0@@Z DD 019930522H
	DD	02H
	DD	FLAT:__unwindtable$??4CScaleCompart@@QAEAAV0@ABV0@@Z
	DD	2 DUP(00H)
	DD	2 DUP(00H)
	DD	00H
	DD	01H
xdata$x	ENDS
;	COMDAT xdata$x
xdata$x	SEGMENT
__unwindtable$??HATL@@YA?AV?$CStringT@DV?$StrTraitMFC_DLL@DV?$ChTraitsCRT@D@ATL@@@@@0@ABV10@D@Z DD 0ffffffffH
	DD	FLAT:__unwindfunclet$??HATL@@YA?AV?$CStringT@DV?$StrTraitMFC_DLL@DV?$ChTraitsCRT@D@ATL@@@@@0@ABV10@D@Z$0
__ehfuncinfo$??HATL@@YA?AV?$CStringT@DV?$StrTraitMFC_DLL@DV?$ChTraitsCRT@D@ATL@@@@@0@ABV10@D@Z DD 019930522H
	DD	01H
	DD	FLAT:__unwindtable$??HATL@@YA?AV?$CStringT@DV?$StrTraitMFC_DLL@DV?$ChTraitsCRT@D@ATL@@@@@0@ABV10@D@Z
	DD	2 DUP(00H)
	DD	2 DUP(00H)
	DD	00H
	DD	01H
xdata$x	ENDS
;	COMDAT xdata$x
xdata$x	SEGMENT
__unwindtable$??HATL@@YA?AV?$CStringT@DV?$StrTraitMFC_DLL@DV?$ChTraitsCRT@D@ATL@@@@@0@ABV10@PBD@Z DD 0ffffffffH
	DD	FLAT:__unwindfunclet$??HATL@@YA?AV?$CStringT@DV?$StrTraitMFC_DLL@DV?$ChTraitsCRT@D@ATL@@@@@0@ABV10@PBD@Z$0
__ehfuncinfo$??HATL@@YA?AV?$CStringT@DV?$StrTraitMFC_DLL@DV?$ChTraitsCRT@D@ATL@@@@@0@ABV10@PBD@Z DD 019930522H
	DD	01H
	DD	FLAT:__unwindtable$??HATL@@YA?AV?$CStringT@DV?$StrTraitMFC_DLL@DV?$ChTraitsCRT@D@ATL@@@@@0@ABV10@PBD@Z
	DD	2 DUP(00H)
	DD	2 DUP(00H)
	DD	00H
	DD	01H
xdata$x	ENDS
; Function compile flags: /Ogtp
; File D:\git\src\IBK\IBK_DRFN\ProjSrc\SrcChartEx\ChartAddIn\ChartAnalysisToolAddIn\Include_Chart\ScaleBaseData.cpp
; File C:\Program Files (x86)\Microsoft Visual Studio\2019\Community\VC\Tools\MSVC\14.29.30133\atlmfc\include\atltypes.h
; File D:\git\src\IBK\IBK_DRFN\ProjSrc\SrcChartEx\ChartAddIn\ChartAnalysisToolAddIn\Include_Chart\ScaleBaseData.cpp
; File C:\Program Files (x86)\Microsoft Visual Studio\2019\Community\VC\Tools\MSVC\14.29.30133\atlmfc\include\atltypes.h
; File D:\git\src\IBK\IBK_DRFN\ProjSrc\SrcChartEx\ChartAddIn\ChartAnalysisToolAddIn\Include_Chart\ScaleBaseData.cpp
; File C:\Program Files (x86)\Microsoft Visual Studio\2019\Community\VC\Tools\MSVC\14.29.30133\atlmfc\include\atltypes.h
; File D:\git\src\IBK\IBK_DRFN\ProjSrc\SrcChartEx\ChartAddIn\ChartAnalysisToolAddIn\Include_Chart\ScaleBaseData.cpp
;	COMDAT ?PointInRegion@CVertScaleRegion@@QBE_NABVCPoint@@@Z
_TEXT	SEGMENT
_point$ = 8						; size = 4
?PointInRegion@CVertScaleRegion@@QBE_NABVCPoint@@@Z PROC ; CVertScaleRegion::PointInRegion, COMDAT
; _this$ = ecx

; 507  : {

  00000	55		 push	 ebp
  00001	8b ec		 mov	 ebp, esp
  00003	56		 push	 esi

; 508  : 	return (m_rightScaleRegion.PtInRect(point) || m_leftScaleRegion.PtInRect(point));

  00004	8b 75 08	 mov	 esi, DWORD PTR _point$[ebp]
  00007	57		 push	 edi
  00008	8b f9		 mov	 edi, ecx
; File C:\Program Files (x86)\Microsoft Visual Studio\2019\Community\VC\Tools\MSVC\14.29.30133\atlmfc\include\atltypes.h

; 648  : 	return ::PtInRect(this, point);

  0000a	ff 76 04	 push	 DWORD PTR [esi+4]
  0000d	ff 36		 push	 DWORD PTR [esi]
; File D:\git\src\IBK\IBK_DRFN\ProjSrc\SrcChartEx\ChartAddIn\ChartAnalysisToolAddIn\Include_Chart\ScaleBaseData.cpp

; 508  : 	return (m_rightScaleRegion.PtInRect(point) || m_leftScaleRegion.PtInRect(point));

  0000f	8d 47 10	 lea	 eax, DWORD PTR [edi+16]
; File C:\Program Files (x86)\Microsoft Visual Studio\2019\Community\VC\Tools\MSVC\14.29.30133\atlmfc\include\atltypes.h

; 648  : 	return ::PtInRect(this, point);

  00012	50		 push	 eax
  00013	ff 15 00 00 00
	00		 call	 DWORD PTR __imp__PtInRect@12
; File D:\git\src\IBK\IBK_DRFN\ProjSrc\SrcChartEx\ChartAddIn\ChartAnalysisToolAddIn\Include_Chart\ScaleBaseData.cpp

; 508  : 	return (m_rightScaleRegion.PtInRect(point) || m_leftScaleRegion.PtInRect(point));

  00019	85 c0		 test	 eax, eax
  0001b	75 18		 jne	 SHORT $LN3@PointInReg
; File C:\Program Files (x86)\Microsoft Visual Studio\2019\Community\VC\Tools\MSVC\14.29.30133\atlmfc\include\atltypes.h

; 648  : 	return ::PtInRect(this, point);

  0001d	ff 76 04	 push	 DWORD PTR [esi+4]
  00020	ff 36		 push	 DWORD PTR [esi]
  00022	57		 push	 edi
  00023	ff 15 00 00 00
	00		 call	 DWORD PTR __imp__PtInRect@12
; File D:\git\src\IBK\IBK_DRFN\ProjSrc\SrcChartEx\ChartAddIn\ChartAnalysisToolAddIn\Include_Chart\ScaleBaseData.cpp

; 508  : 	return (m_rightScaleRegion.PtInRect(point) || m_leftScaleRegion.PtInRect(point));

  00029	85 c0		 test	 eax, eax
  0002b	75 08		 jne	 SHORT $LN3@PointInReg
  0002d	5f		 pop	 edi
  0002e	32 c0		 xor	 al, al

; 509  : }

  00030	5e		 pop	 esi
  00031	5d		 pop	 ebp
  00032	c2 04 00	 ret	 4
$LN3@PointInReg:
  00035	5f		 pop	 edi

; 508  : 	return (m_rightScaleRegion.PtInRect(point) || m_leftScaleRegion.PtInRect(point));

  00036	b0 01		 mov	 al, 1

; 509  : }

  00038	5e		 pop	 esi
  00039	5d		 pop	 ebp
  0003a	c2 04 00	 ret	 4
?PointInRegion@CVertScaleRegion@@QBE_NABVCPoint@@@Z ENDP ; CVertScaleRegion::PointInRegion
_TEXT	ENDS
; Function compile flags: /Ogtp
; File D:\git\src\IBK\IBK_DRFN\ProjSrc\SrcChartEx\ChartAddIn\ChartAnalysisToolAddIn\Include_Chart\ScaleBaseData.cpp
; File C:\Program Files (x86)\Microsoft Visual Studio\2019\Community\VC\Tools\MSVC\14.29.30133\atlmfc\include\atltypes.h
; File D:\git\src\IBK\IBK_DRFN\ProjSrc\SrcChartEx\ChartAddIn\ChartAnalysisToolAddIn\Include_Chart\ScaleBaseData.cpp
;	COMDAT ?GetRightScaleGridRegion@CVertScaleRegion@@QBE?AVCRect@@XZ
_TEXT	SEGMENT
___$ReturnUdt$ = 8					; size = 4
?GetRightScaleGridRegion@CVertScaleRegion@@QBE?AVCRect@@XZ PROC ; CVertScaleRegion::GetRightScaleGridRegion, COMDAT
; _this$ = ecx

; 497  : {

  00000	55		 push	 ebp
  00001	8b ec		 mov	 ebp, esp
  00003	56		 push	 esi
  00004	8b f1		 mov	 esi, ecx
  00006	57		 push	 edi
; File C:\Program Files (x86)\Microsoft Visual Studio\2019\Community\VC\Tools\MSVC\14.29.30133\atlmfc\include\atltypes.h

; 576  : 	return right - left;

  00007	8b 7d 08	 mov	 edi, DWORD PTR ___$ReturnUdt$[ebp]
  0000a	8b 56 18	 mov	 edx, DWORD PTR [esi+24]
  0000d	2b 56 10	 sub	 edx, DWORD PTR [esi+16]
  00010	8b 46 14	 mov	 eax, DWORD PTR [esi+20]
  00013	89 47 04	 mov	 DWORD PTR [edi+4], eax
  00016	8b 4e 10	 mov	 ecx, DWORD PTR [esi+16]
  00019	89 0f		 mov	 DWORD PTR [edi], ecx
  0001b	8b 46 10	 mov	 eax, DWORD PTR [esi+16]
  0001e	8b 4e 1c	 mov	 ecx, DWORD PTR [esi+28]
  00021	89 4f 0c	 mov	 DWORD PTR [edi+12], ecx
; File D:\git\src\IBK\IBK_DRFN\ProjSrc\SrcChartEx\ChartAddIn\ChartAnalysisToolAddIn\Include_Chart\ScaleBaseData.cpp

; 498  : 	if(m_rightScaleRegion.Width() <= 0)

  00024	85 d2		 test	 edx, edx
  00026	7e 03		 jle	 SHORT $LN10@GetRightSc

; 499  : 		return CRect(m_rightScaleRegion.left, m_rightScaleRegion.top,
; 500  : 			m_rightScaleRegion.left, m_rightScaleRegion.bottom);
; 501  : 
; 502  : 	return CRect(m_rightScaleRegion.left, m_rightScaleRegion.top,

  00028	83 c0 04	 add	 eax, 4
$LN10@GetRightSc:

; 503  : 		m_rightScaleRegion.left +MARGIN, m_rightScaleRegion.bottom);
; 504  : }

  0002b	89 47 08	 mov	 DWORD PTR [edi+8], eax
  0002e	8b c7		 mov	 eax, edi
  00030	5f		 pop	 edi
  00031	5e		 pop	 esi
  00032	5d		 pop	 ebp
  00033	c2 04 00	 ret	 4
?GetRightScaleGridRegion@CVertScaleRegion@@QBE?AVCRect@@XZ ENDP ; CVertScaleRegion::GetRightScaleGridRegion
_TEXT	ENDS
; Function compile flags: /Ogtp
; File D:\git\src\IBK\IBK_DRFN\ProjSrc\SrcChartEx\ChartAddIn\ChartAnalysisToolAddIn\Include_Chart\ScaleBaseData.cpp
; File C:\Program Files (x86)\Microsoft Visual Studio\2019\Community\VC\Tools\MSVC\14.29.30133\atlmfc\include\atltypes.h
; File D:\git\src\IBK\IBK_DRFN\ProjSrc\SrcChartEx\ChartAddIn\ChartAnalysisToolAddIn\Include_Chart\ScaleBaseData.cpp
; File C:\Program Files (x86)\Microsoft Visual Studio\2019\Community\VC\Tools\MSVC\14.29.30133\atlmfc\include\atltypes.h
; File D:\git\src\IBK\IBK_DRFN\ProjSrc\SrcChartEx\ChartAddIn\ChartAnalysisToolAddIn\Include_Chart\ScaleBaseData.cpp
; File C:\Program Files (x86)\Microsoft Visual Studio\2019\Community\VC\Tools\MSVC\14.29.30133\atlmfc\include\atltypes.h
; File D:\git\src\IBK\IBK_DRFN\ProjSrc\SrcChartEx\ChartAddIn\ChartAnalysisToolAddIn\Include_Chart\ScaleBaseData.cpp
; File C:\Program Files (x86)\Microsoft Visual Studio\2019\Community\VC\Tools\MSVC\14.29.30133\atlmfc\include\atltypes.h
; File D:\git\src\IBK\IBK_DRFN\ProjSrc\SrcChartEx\ChartAddIn\ChartAnalysisToolAddIn\Include_Chart\ScaleBaseData.cpp
; File C:\Program Files (x86)\Microsoft Visual Studio\2019\Community\VC\Tools\MSVC\14.29.30133\atlmfc\include\atltypes.h
; File D:\git\src\IBK\IBK_DRFN\ProjSrc\SrcChartEx\ChartAddIn\ChartAnalysisToolAddIn\Include_Chart\ScaleBaseData.cpp
;	COMDAT ?GetRightScaleTextRegion@CVertScaleRegion@@QBE?AVCRect@@XZ
_TEXT	SEGMENT
___$ReturnUdt$ = 8					; size = 4
?GetRightScaleTextRegion@CVertScaleRegion@@QBE?AVCRect@@XZ PROC ; CVertScaleRegion::GetRightScaleTextRegion, COMDAT
; _this$ = ecx

; 487  : {

  00000	55		 push	 ebp
  00001	8b ec		 mov	 ebp, esp
  00003	53		 push	 ebx
  00004	56		 push	 esi
  00005	8b f1		 mov	 esi, ecx
  00007	57		 push	 edi
; File C:\Program Files (x86)\Microsoft Visual Studio\2019\Community\VC\Tools\MSVC\14.29.30133\atlmfc\include\atltypes.h

; 576  : 	return right - left;

  00008	8b 7d 08	 mov	 edi, DWORD PTR ___$ReturnUdt$[ebp]
  0000b	8b 56 18	 mov	 edx, DWORD PTR [esi+24]
  0000e	8b 46 10	 mov	 eax, DWORD PTR [esi+16]
  00011	2b d0		 sub	 edx, eax
  00013	8b 4e 14	 mov	 ecx, DWORD PTR [esi+20]
  00016	89 4f 04	 mov	 DWORD PTR [edi+4], ecx
  00019	8b 5e 18	 mov	 ebx, DWORD PTR [esi+24]
  0001c	8b 4e 1c	 mov	 ecx, DWORD PTR [esi+28]
  0001f	89 4f 0c	 mov	 DWORD PTR [edi+12], ecx
; File D:\git\src\IBK\IBK_DRFN\ProjSrc\SrcChartEx\ChartAddIn\ChartAnalysisToolAddIn\Include_Chart\ScaleBaseData.cpp

; 488  : 	if(m_rightScaleRegion.Width() <= 0)

  00022	85 d2		 test	 edx, edx
  00024	7f 0e		 jg	 SHORT $LN2@GetRightSc
; File C:\Program Files (x86)\Microsoft Visual Studio\2019\Community\VC\Tools\MSVC\14.29.30133\atlmfc\include\atltypes.h

; 540  : 	left = l;

  00026	89 07		 mov	 DWORD PTR [edi], eax
; File D:\git\src\IBK\IBK_DRFN\ProjSrc\SrcChartEx\ChartAddIn\ChartAnalysisToolAddIn\Include_Chart\ScaleBaseData.cpp

; 494  : }

  00028	8b c7		 mov	 eax, edi
; File C:\Program Files (x86)\Microsoft Visual Studio\2019\Community\VC\Tools\MSVC\14.29.30133\atlmfc\include\atltypes.h

; 542  : 	right = r;

  0002a	89 5f 08	 mov	 DWORD PTR [edi+8], ebx
  0002d	5f		 pop	 edi
; File D:\git\src\IBK\IBK_DRFN\ProjSrc\SrcChartEx\ChartAddIn\ChartAnalysisToolAddIn\Include_Chart\ScaleBaseData.cpp

; 494  : }

  0002e	5e		 pop	 esi
  0002f	5b		 pop	 ebx
  00030	5d		 pop	 ebp
  00031	c2 04 00	 ret	 4
$LN2@GetRightSc:

; 492  : 	return CRect(m_rightScaleRegion.left +MARGIN*2, m_rightScaleRegion.top,

  00034	83 c0 08	 add	 eax, 8
; File C:\Program Files (x86)\Microsoft Visual Studio\2019\Community\VC\Tools\MSVC\14.29.30133\atlmfc\include\atltypes.h

; 540  : 	left = l;

  00037	89 07		 mov	 DWORD PTR [edi], eax
; File D:\git\src\IBK\IBK_DRFN\ProjSrc\SrcChartEx\ChartAddIn\ChartAnalysisToolAddIn\Include_Chart\ScaleBaseData.cpp

; 492  : 	return CRect(m_rightScaleRegion.left +MARGIN*2, m_rightScaleRegion.top,

  00039	8d 43 fc	 lea	 eax, DWORD PTR [ebx-4]
; File C:\Program Files (x86)\Microsoft Visual Studio\2019\Community\VC\Tools\MSVC\14.29.30133\atlmfc\include\atltypes.h

; 542  : 	right = r;

  0003c	89 47 08	 mov	 DWORD PTR [edi+8], eax
; File D:\git\src\IBK\IBK_DRFN\ProjSrc\SrcChartEx\ChartAddIn\ChartAnalysisToolAddIn\Include_Chart\ScaleBaseData.cpp

; 494  : }

  0003f	8b c7		 mov	 eax, edi
  00041	5f		 pop	 edi
  00042	5e		 pop	 esi
  00043	5b		 pop	 ebx
  00044	5d		 pop	 ebp
  00045	c2 04 00	 ret	 4
?GetRightScaleTextRegion@CVertScaleRegion@@QBE?AVCRect@@XZ ENDP ; CVertScaleRegion::GetRightScaleTextRegion
_TEXT	ENDS
; Function compile flags: /Ogtp
; File D:\git\src\IBK\IBK_DRFN\ProjSrc\SrcChartEx\ChartAddIn\ChartAnalysisToolAddIn\Include_Chart\ScaleBaseData.cpp
; File C:\Program Files (x86)\Microsoft Visual Studio\2019\Community\VC\Tools\MSVC\14.29.30133\atlmfc\include\atltypes.h
; File D:\git\src\IBK\IBK_DRFN\ProjSrc\SrcChartEx\ChartAddIn\ChartAnalysisToolAddIn\Include_Chart\ScaleBaseData.cpp
;	COMDAT ?GetLeftScaleGridRegion@CVertScaleRegion@@QBE?AVCRect@@XZ
_TEXT	SEGMENT
___$ReturnUdt$ = 8					; size = 4
?GetLeftScaleGridRegion@CVertScaleRegion@@QBE?AVCRect@@XZ PROC ; CVertScaleRegion::GetLeftScaleGridRegion, COMDAT
; _this$ = ecx

; 477  : {

  00000	55		 push	 ebp
  00001	8b ec		 mov	 ebp, esp
  00003	56		 push	 esi
  00004	8b f1		 mov	 esi, ecx
  00006	57		 push	 edi
; File C:\Program Files (x86)\Microsoft Visual Studio\2019\Community\VC\Tools\MSVC\14.29.30133\atlmfc\include\atltypes.h

; 576  : 	return right - left;

  00007	8b 7d 08	 mov	 edi, DWORD PTR ___$ReturnUdt$[ebp]
  0000a	8b 46 08	 mov	 eax, DWORD PTR [esi+8]
  0000d	8b d0		 mov	 edx, eax
  0000f	2b 16		 sub	 edx, DWORD PTR [esi]
  00011	8b 4e 04	 mov	 ecx, DWORD PTR [esi+4]
  00014	89 4f 04	 mov	 DWORD PTR [edi+4], ecx
  00017	8b 4e 08	 mov	 ecx, DWORD PTR [esi+8]
  0001a	89 4f 08	 mov	 DWORD PTR [edi+8], ecx
  0001d	8b 4e 0c	 mov	 ecx, DWORD PTR [esi+12]
  00020	89 4f 0c	 mov	 DWORD PTR [edi+12], ecx
; File D:\git\src\IBK\IBK_DRFN\ProjSrc\SrcChartEx\ChartAddIn\ChartAnalysisToolAddIn\Include_Chart\ScaleBaseData.cpp

; 478  : 	if(m_leftScaleRegion.Width() <= 0)

  00023	85 d2		 test	 edx, edx
  00025	7e 03		 jle	 SHORT $LN10@GetLeftSca

; 479  : 		return CRect(m_leftScaleRegion.right, m_leftScaleRegion.top,
; 480  : 			m_leftScaleRegion.right, m_leftScaleRegion.bottom);
; 481  : 
; 482  : 	return CRect(m_leftScaleRegion.right -MARGIN, m_leftScaleRegion.top,

  00027	83 c0 fc	 add	 eax, -4			; fffffffcH
$LN10@GetLeftSca:

; 483  : 		m_leftScaleRegion.right, m_leftScaleRegion.bottom);
; 484  : }

  0002a	89 07		 mov	 DWORD PTR [edi], eax
  0002c	8b c7		 mov	 eax, edi
  0002e	5f		 pop	 edi
  0002f	5e		 pop	 esi
  00030	5d		 pop	 ebp
  00031	c2 04 00	 ret	 4
?GetLeftScaleGridRegion@CVertScaleRegion@@QBE?AVCRect@@XZ ENDP ; CVertScaleRegion::GetLeftScaleGridRegion
_TEXT	ENDS
; Function compile flags: /Ogtp
; File D:\git\src\IBK\IBK_DRFN\ProjSrc\SrcChartEx\ChartAddIn\ChartAnalysisToolAddIn\Include_Chart\ScaleBaseData.cpp
; File C:\Program Files (x86)\Microsoft Visual Studio\2019\Community\VC\Tools\MSVC\14.29.30133\atlmfc\include\atltypes.h
; File D:\git\src\IBK\IBK_DRFN\ProjSrc\SrcChartEx\ChartAddIn\ChartAnalysisToolAddIn\Include_Chart\ScaleBaseData.cpp
; File C:\Program Files (x86)\Microsoft Visual Studio\2019\Community\VC\Tools\MSVC\14.29.30133\atlmfc\include\atltypes.h
; File D:\git\src\IBK\IBK_DRFN\ProjSrc\SrcChartEx\ChartAddIn\ChartAnalysisToolAddIn\Include_Chart\ScaleBaseData.cpp
; File C:\Program Files (x86)\Microsoft Visual Studio\2019\Community\VC\Tools\MSVC\14.29.30133\atlmfc\include\atltypes.h
; File D:\git\src\IBK\IBK_DRFN\ProjSrc\SrcChartEx\ChartAddIn\ChartAnalysisToolAddIn\Include_Chart\ScaleBaseData.cpp
; File C:\Program Files (x86)\Microsoft Visual Studio\2019\Community\VC\Tools\MSVC\14.29.30133\atlmfc\include\atltypes.h
; File D:\git\src\IBK\IBK_DRFN\ProjSrc\SrcChartEx\ChartAddIn\ChartAnalysisToolAddIn\Include_Chart\ScaleBaseData.cpp
; File C:\Program Files (x86)\Microsoft Visual Studio\2019\Community\VC\Tools\MSVC\14.29.30133\atlmfc\include\atltypes.h
; File D:\git\src\IBK\IBK_DRFN\ProjSrc\SrcChartEx\ChartAddIn\ChartAnalysisToolAddIn\Include_Chart\ScaleBaseData.cpp
; File C:\Program Files (x86)\Microsoft Visual Studio\2019\Community\VC\Tools\MSVC\14.29.30133\atlmfc\include\atltypes.h
; File D:\git\src\IBK\IBK_DRFN\ProjSrc\SrcChartEx\ChartAddIn\ChartAnalysisToolAddIn\Include_Chart\ScaleBaseData.cpp
; File C:\Program Files (x86)\Microsoft Visual Studio\2019\Community\VC\Tools\MSVC\14.29.30133\atlmfc\include\atltypes.h
; File D:\git\src\IBK\IBK_DRFN\ProjSrc\SrcChartEx\ChartAddIn\ChartAnalysisToolAddIn\Include_Chart\ScaleBaseData.cpp
;	COMDAT ?GetLeftScaleTextRegion@CVertScaleRegion@@QBE?AVCRect@@XZ
_TEXT	SEGMENT
___$ReturnUdt$ = 8					; size = 4
?GetLeftScaleTextRegion@CVertScaleRegion@@QBE?AVCRect@@XZ PROC ; CVertScaleRegion::GetLeftScaleTextRegion, COMDAT
; _this$ = ecx

; 467  : {

  00000	55		 push	 ebp
  00001	8b ec		 mov	 ebp, esp
; File C:\Program Files (x86)\Microsoft Visual Studio\2019\Community\VC\Tools\MSVC\14.29.30133\atlmfc\include\atltypes.h

; 576  : 	return right - left;

  00003	8b 51 08	 mov	 edx, DWORD PTR [ecx+8]
  00006	8b 41 04	 mov	 eax, DWORD PTR [ecx+4]
; File D:\git\src\IBK\IBK_DRFN\ProjSrc\SrcChartEx\ChartAddIn\ChartAnalysisToolAddIn\Include_Chart\ScaleBaseData.cpp

; 467  : {

  00009	53		 push	 ebx
  0000a	56		 push	 esi
; File C:\Program Files (x86)\Microsoft Visual Studio\2019\Community\VC\Tools\MSVC\14.29.30133\atlmfc\include\atltypes.h

; 576  : 	return right - left;

  0000b	8b 75 08	 mov	 esi, DWORD PTR ___$ReturnUdt$[ebp]
; File D:\git\src\IBK\IBK_DRFN\ProjSrc\SrcChartEx\ChartAddIn\ChartAnalysisToolAddIn\Include_Chart\ScaleBaseData.cpp

; 467  : {

  0000e	57		 push	 edi
; File C:\Program Files (x86)\Microsoft Visual Studio\2019\Community\VC\Tools\MSVC\14.29.30133\atlmfc\include\atltypes.h

; 576  : 	return right - left;

  0000f	8b 39		 mov	 edi, DWORD PTR [ecx]
  00011	2b d7		 sub	 edx, edi
  00013	89 46 04	 mov	 DWORD PTR [esi+4], eax
  00016	8b 59 08	 mov	 ebx, DWORD PTR [ecx+8]
  00019	8b 49 0c	 mov	 ecx, DWORD PTR [ecx+12]
  0001c	89 4e 0c	 mov	 DWORD PTR [esi+12], ecx
; File D:\git\src\IBK\IBK_DRFN\ProjSrc\SrcChartEx\ChartAddIn\ChartAnalysisToolAddIn\Include_Chart\ScaleBaseData.cpp

; 468  : 	if(m_leftScaleRegion.Width() <= 0)

  0001f	85 d2		 test	 edx, edx
  00021	7f 0e		 jg	 SHORT $LN2@GetLeftSca
; File C:\Program Files (x86)\Microsoft Visual Studio\2019\Community\VC\Tools\MSVC\14.29.30133\atlmfc\include\atltypes.h

; 540  : 	left = l;

  00023	89 3e		 mov	 DWORD PTR [esi], edi
; File D:\git\src\IBK\IBK_DRFN\ProjSrc\SrcChartEx\ChartAddIn\ChartAnalysisToolAddIn\Include_Chart\ScaleBaseData.cpp

; 474  : }

  00025	8b c6		 mov	 eax, esi
  00027	5f		 pop	 edi
; File C:\Program Files (x86)\Microsoft Visual Studio\2019\Community\VC\Tools\MSVC\14.29.30133\atlmfc\include\atltypes.h

; 542  : 	right = r;

  00028	89 5e 08	 mov	 DWORD PTR [esi+8], ebx
; File D:\git\src\IBK\IBK_DRFN\ProjSrc\SrcChartEx\ChartAddIn\ChartAnalysisToolAddIn\Include_Chart\ScaleBaseData.cpp

; 474  : }

  0002b	5e		 pop	 esi
  0002c	5b		 pop	 ebx
  0002d	5d		 pop	 ebp
  0002e	c2 04 00	 ret	 4
$LN2@GetLeftSca:

; 472  : 	return CRect(m_leftScaleRegion.left +MARGIN, m_leftScaleRegion.top,

  00031	8d 47 04	 lea	 eax, DWORD PTR [edi+4]
; File C:\Program Files (x86)\Microsoft Visual Studio\2019\Community\VC\Tools\MSVC\14.29.30133\atlmfc\include\atltypes.h

; 540  : 	left = l;

  00034	89 06		 mov	 DWORD PTR [esi], eax
; File D:\git\src\IBK\IBK_DRFN\ProjSrc\SrcChartEx\ChartAddIn\ChartAnalysisToolAddIn\Include_Chart\ScaleBaseData.cpp

; 472  : 	return CRect(m_leftScaleRegion.left +MARGIN, m_leftScaleRegion.top,

  00036	8d 43 f8	 lea	 eax, DWORD PTR [ebx-8]
; File C:\Program Files (x86)\Microsoft Visual Studio\2019\Community\VC\Tools\MSVC\14.29.30133\atlmfc\include\atltypes.h

; 542  : 	right = r;

  00039	89 46 08	 mov	 DWORD PTR [esi+8], eax
; File D:\git\src\IBK\IBK_DRFN\ProjSrc\SrcChartEx\ChartAddIn\ChartAnalysisToolAddIn\Include_Chart\ScaleBaseData.cpp

; 474  : }

  0003c	8b c6		 mov	 eax, esi
  0003e	5f		 pop	 edi
  0003f	5e		 pop	 esi
  00040	5b		 pop	 ebx
  00041	5d		 pop	 ebp
  00042	c2 04 00	 ret	 4
?GetLeftScaleTextRegion@CVertScaleRegion@@QBE?AVCRect@@XZ ENDP ; CVertScaleRegion::GetLeftScaleTextRegion
_TEXT	ENDS
; Function compile flags: /Ogtp
; File D:\git\src\IBK\IBK_DRFN\ProjSrc\SrcChartEx\ChartAddIn\ChartAnalysisToolAddIn\Include_Chart\ScaleBaseData.cpp
;	COMDAT ?GetRightScaleRegion@CVertScaleRegion@@QBE?AVCRect@@XZ
_TEXT	SEGMENT
___$ReturnUdt$ = 8					; size = 4
?GetRightScaleRegion@CVertScaleRegion@@QBE?AVCRect@@XZ PROC ; CVertScaleRegion::GetRightScaleRegion, COMDAT
; _this$ = ecx

; 462  : {

  00000	55		 push	 ebp
  00001	8b ec		 mov	 ebp, esp

; 463  : 	return m_rightScaleRegion;

  00003	8b 45 08	 mov	 eax, DWORD PTR ___$ReturnUdt$[ebp]
  00006	0f 10 41 10	 movups	 xmm0, XMMWORD PTR [ecx+16]
  0000a	0f 11 00	 movups	 XMMWORD PTR [eax], xmm0

; 464  : }

  0000d	5d		 pop	 ebp
  0000e	c2 04 00	 ret	 4
?GetRightScaleRegion@CVertScaleRegion@@QBE?AVCRect@@XZ ENDP ; CVertScaleRegion::GetRightScaleRegion
_TEXT	ENDS
; Function compile flags: /Ogtp
; File D:\git\src\IBK\IBK_DRFN\ProjSrc\SrcChartEx\ChartAddIn\ChartAnalysisToolAddIn\Include_Chart\ScaleBaseData.cpp
;	COMDAT ?GetLeftScaleRegion@CVertScaleRegion@@QBE?AVCRect@@XZ
_TEXT	SEGMENT
___$ReturnUdt$ = 8					; size = 4
?GetLeftScaleRegion@CVertScaleRegion@@QBE?AVCRect@@XZ PROC ; CVertScaleRegion::GetLeftScaleRegion, COMDAT
; _this$ = ecx

; 457  : {

  00000	55		 push	 ebp
  00001	8b ec		 mov	 ebp, esp

; 458  : 	return m_leftScaleRegion;

  00003	8b 45 08	 mov	 eax, DWORD PTR ___$ReturnUdt$[ebp]
  00006	0f 10 01	 movups	 xmm0, XMMWORD PTR [ecx]
  00009	0f 11 00	 movups	 XMMWORD PTR [eax], xmm0

; 459  : }

  0000c	5d		 pop	 ebp
  0000d	c2 04 00	 ret	 4
?GetLeftScaleRegion@CVertScaleRegion@@QBE?AVCRect@@XZ ENDP ; CVertScaleRegion::GetLeftScaleRegion
_TEXT	ENDS
; Function compile flags: /Ogtp
; File D:\git\src\IBK\IBK_DRFN\ProjSrc\SrcChartEx\ChartAddIn\ChartAnalysisToolAddIn\Include_Chart\ScaleBaseData.cpp
;	COMDAT ?OffsetRegion@CVertScaleRegion@@QAEXHH@Z
_TEXT	SEGMENT
_nTop$ = 8						; size = 4
_nBottom$ = 12						; size = 4
?OffsetRegion@CVertScaleRegion@@QAEXHH@Z PROC		; CVertScaleRegion::OffsetRegion, COMDAT
; _this$ = ecx

; 448  : {

  00000	55		 push	 ebp
  00001	8b ec		 mov	 ebp, esp

; 449  : 	m_leftScaleRegion.top += nTop;

  00003	8b 55 08	 mov	 edx, DWORD PTR _nTop$[ebp]

; 450  : 	m_leftScaleRegion.bottom += nBottom;

  00006	8b 45 0c	 mov	 eax, DWORD PTR _nBottom$[ebp]
  00009	01 51 04	 add	 DWORD PTR [ecx+4], edx
  0000c	01 41 0c	 add	 DWORD PTR [ecx+12], eax

; 451  : 	m_rightScaleRegion.top += nTop;

  0000f	01 51 14	 add	 DWORD PTR [ecx+20], edx

; 452  : 	m_rightScaleRegion.bottom += nBottom;

  00012	01 41 1c	 add	 DWORD PTR [ecx+28], eax

; 453  : }

  00015	5d		 pop	 ebp
  00016	c2 08 00	 ret	 8
?OffsetRegion@CVertScaleRegion@@QAEXHH@Z ENDP		; CVertScaleRegion::OffsetRegion
_TEXT	ENDS
; Function compile flags: /Ogtp
; File D:\git\src\IBK\IBK_DRFN\ProjSrc\SrcChartEx\ChartAddIn\ChartAnalysisToolAddIn\Include_Chart\ScaleBaseData.cpp
;	COMDAT ?SetRightScaleRegion@CVertScaleRegion@@QAEXABVCRect@@@Z
_TEXT	SEGMENT
_region$ = 8						; size = 4
?SetRightScaleRegion@CVertScaleRegion@@QAEXABVCRect@@@Z PROC ; CVertScaleRegion::SetRightScaleRegion, COMDAT
; _this$ = ecx

; 443  : {

  00000	55		 push	 ebp
  00001	8b ec		 mov	 ebp, esp

; 444  : 	m_rightScaleRegion = region;

  00003	8b 45 08	 mov	 eax, DWORD PTR _region$[ebp]
  00006	0f 10 00	 movups	 xmm0, XMMWORD PTR [eax]
  00009	0f 11 41 10	 movups	 XMMWORD PTR [ecx+16], xmm0

; 445  : }

  0000d	5d		 pop	 ebp
  0000e	c2 04 00	 ret	 4
?SetRightScaleRegion@CVertScaleRegion@@QAEXABVCRect@@@Z ENDP ; CVertScaleRegion::SetRightScaleRegion
_TEXT	ENDS
; Function compile flags: /Ogtp
; File D:\git\src\IBK\IBK_DRFN\ProjSrc\SrcChartEx\ChartAddIn\ChartAnalysisToolAddIn\Include_Chart\ScaleBaseData.cpp
;	COMDAT ?SetLeftScaleRegion@CVertScaleRegion@@QAEXABVCRect@@@Z
_TEXT	SEGMENT
_region$ = 8						; size = 4
?SetLeftScaleRegion@CVertScaleRegion@@QAEXABVCRect@@@Z PROC ; CVertScaleRegion::SetLeftScaleRegion, COMDAT
; _this$ = ecx

; 438  : {

  00000	55		 push	 ebp
  00001	8b ec		 mov	 ebp, esp

; 439  : 	m_leftScaleRegion = region;

  00003	8b 45 08	 mov	 eax, DWORD PTR _region$[ebp]
  00006	0f 10 00	 movups	 xmm0, XMMWORD PTR [eax]
  00009	0f 11 01	 movups	 XMMWORD PTR [ecx], xmm0

; 440  : }

  0000c	5d		 pop	 ebp
  0000d	c2 04 00	 ret	 4
?SetLeftScaleRegion@CVertScaleRegion@@QAEXABVCRect@@@Z ENDP ; CVertScaleRegion::SetLeftScaleRegion
_TEXT	ENDS
; Function compile flags: /Ogtp
; File D:\git\src\IBK\IBK_DRFN\ProjSrc\SrcChartEx\ChartAddIn\ChartAnalysisToolAddIn\Include_Chart\ScaleBaseData.cpp
; File C:\Program Files (x86)\Microsoft Visual Studio\2019\Community\VC\Tools\MSVC\14.29.30133\atlmfc\include\atltypes.h
; File D:\git\src\IBK\IBK_DRFN\ProjSrc\SrcChartEx\ChartAddIn\ChartAnalysisToolAddIn\Include_Chart\ScaleBaseData.cpp
; File C:\Program Files (x86)\Microsoft Visual Studio\2019\Community\VC\Tools\MSVC\14.29.30133\atlmfc\include\atltypes.h
; File D:\git\src\IBK\IBK_DRFN\ProjSrc\SrcChartEx\ChartAddIn\ChartAnalysisToolAddIn\Include_Chart\ScaleBaseData.cpp
;	COMDAT ??0CVertScaleRegion@@QAE@XZ
_TEXT	SEGMENT
??0CVertScaleRegion@@QAE@XZ PROC			; CVertScaleRegion::CVertScaleRegion, COMDAT
; _this$ = ecx
; File C:\Program Files (x86)\Microsoft Visual Studio\2019\Community\VC\Tools\MSVC\14.29.30133\atlmfc\include\atltypes.h

; 540  : 	left = l;

  00000	c7 01 00 00 00
	00		 mov	 DWORD PTR [ecx], 0
; File D:\git\src\IBK\IBK_DRFN\ProjSrc\SrcChartEx\ChartAddIn\ChartAnalysisToolAddIn\Include_Chart\ScaleBaseData.cpp

; 434  : }

  00006	8b c1		 mov	 eax, ecx
; File C:\Program Files (x86)\Microsoft Visual Studio\2019\Community\VC\Tools\MSVC\14.29.30133\atlmfc\include\atltypes.h

; 541  : 	top = t;

  00008	c7 41 04 00 00
	00 00		 mov	 DWORD PTR [ecx+4], 0

; 542  : 	right = r;

  0000f	c7 41 08 00 00
	00 00		 mov	 DWORD PTR [ecx+8], 0

; 543  : 	bottom = b;

  00016	c7 41 0c 00 00
	00 00		 mov	 DWORD PTR [ecx+12], 0

; 540  : 	left = l;

  0001d	c7 41 10 00 00
	00 00		 mov	 DWORD PTR [ecx+16], 0

; 541  : 	top = t;

  00024	c7 41 14 00 00
	00 00		 mov	 DWORD PTR [ecx+20], 0

; 542  : 	right = r;

  0002b	c7 41 18 00 00
	00 00		 mov	 DWORD PTR [ecx+24], 0

; 543  : 	bottom = b;

  00032	c7 41 1c 00 00
	00 00		 mov	 DWORD PTR [ecx+28], 0
; File D:\git\src\IBK\IBK_DRFN\ProjSrc\SrcChartEx\ChartAddIn\ChartAnalysisToolAddIn\Include_Chart\ScaleBaseData.cpp

; 434  : }

  00039	c3		 ret	 0
??0CVertScaleRegion@@QAE@XZ ENDP			; CVertScaleRegion::CVertScaleRegion
_TEXT	ENDS
; Function compile flags: /Ogtp
; File D:\git\src\IBK\IBK_DRFN\ProjSrc\SrcChartEx\ChartAddIn\ChartAnalysisToolAddIn\Include_Chart\ScaleBaseData.cpp
; File C:\Program Files (x86)\Microsoft Visual Studio\2019\Community\VC\Tools\MSVC\14.29.30133\atlmfc\include\atltypes.h
; File D:\git\src\IBK\IBK_DRFN\ProjSrc\SrcChartEx\ChartAddIn\ChartAnalysisToolAddIn\Include_Chart\ScaleBaseData.cpp
; File C:\Program Files (x86)\Microsoft Visual Studio\2019\Community\VC\Tools\MSVC\14.29.30133\atlmfc\include\atltypes.h
; File D:\git\src\IBK\IBK_DRFN\ProjSrc\SrcChartEx\ChartAddIn\ChartAnalysisToolAddIn\Include_Chart\ScaleBaseData.cpp
; File C:\Program Files (x86)\Microsoft Visual Studio\2019\Community\VC\Tools\MSVC\14.29.30133\atlmfc\include\atltypes.h
; File D:\git\src\IBK\IBK_DRFN\ProjSrc\SrcChartEx\ChartAddIn\ChartAnalysisToolAddIn\Include_Chart\ScaleBaseData.cpp
;	COMDAT ?PointInRegion@CHorzScaleRegion@@QBE_NABVCPoint@@@Z
_TEXT	SEGMENT
_point$ = 8						; size = 4
?PointInRegion@CHorzScaleRegion@@QBE_NABVCPoint@@@Z PROC ; CHorzScaleRegion::PointInRegion, COMDAT
; _this$ = ecx

; 422  : {

  00000	55		 push	 ebp
  00001	8b ec		 mov	 ebp, esp
  00003	56		 push	 esi

; 423  : 	return (m_topScaleRegion.PtInRect(point) || m_bottomScaleRegion.PtInRect(point));

  00004	8b 75 08	 mov	 esi, DWORD PTR _point$[ebp]
  00007	57		 push	 edi
  00008	8b f9		 mov	 edi, ecx
; File C:\Program Files (x86)\Microsoft Visual Studio\2019\Community\VC\Tools\MSVC\14.29.30133\atlmfc\include\atltypes.h

; 648  : 	return ::PtInRect(this, point);

  0000a	ff 76 04	 push	 DWORD PTR [esi+4]
  0000d	ff 36		 push	 DWORD PTR [esi]
  0000f	57		 push	 edi
  00010	ff 15 00 00 00
	00		 call	 DWORD PTR __imp__PtInRect@12
; File D:\git\src\IBK\IBK_DRFN\ProjSrc\SrcChartEx\ChartAddIn\ChartAnalysisToolAddIn\Include_Chart\ScaleBaseData.cpp

; 423  : 	return (m_topScaleRegion.PtInRect(point) || m_bottomScaleRegion.PtInRect(point));

  00016	85 c0		 test	 eax, eax
  00018	75 1b		 jne	 SHORT $LN3@PointInReg
; File C:\Program Files (x86)\Microsoft Visual Studio\2019\Community\VC\Tools\MSVC\14.29.30133\atlmfc\include\atltypes.h

; 648  : 	return ::PtInRect(this, point);

  0001a	ff 76 04	 push	 DWORD PTR [esi+4]
; File D:\git\src\IBK\IBK_DRFN\ProjSrc\SrcChartEx\ChartAddIn\ChartAnalysisToolAddIn\Include_Chart\ScaleBaseData.cpp

; 423  : 	return (m_topScaleRegion.PtInRect(point) || m_bottomScaleRegion.PtInRect(point));

  0001d	8d 47 10	 lea	 eax, DWORD PTR [edi+16]
; File C:\Program Files (x86)\Microsoft Visual Studio\2019\Community\VC\Tools\MSVC\14.29.30133\atlmfc\include\atltypes.h

; 648  : 	return ::PtInRect(this, point);

  00020	ff 36		 push	 DWORD PTR [esi]
  00022	50		 push	 eax
  00023	ff 15 00 00 00
	00		 call	 DWORD PTR __imp__PtInRect@12
; File D:\git\src\IBK\IBK_DRFN\ProjSrc\SrcChartEx\ChartAddIn\ChartAnalysisToolAddIn\Include_Chart\ScaleBaseData.cpp

; 423  : 	return (m_topScaleRegion.PtInRect(point) || m_bottomScaleRegion.PtInRect(point));

  00029	85 c0		 test	 eax, eax
  0002b	75 08		 jne	 SHORT $LN3@PointInReg
  0002d	5f		 pop	 edi
  0002e	32 c0		 xor	 al, al

; 424  : }

  00030	5e		 pop	 esi
  00031	5d		 pop	 ebp
  00032	c2 04 00	 ret	 4
$LN3@PointInReg:
  00035	5f		 pop	 edi

; 423  : 	return (m_topScaleRegion.PtInRect(point) || m_bottomScaleRegion.PtInRect(point));

  00036	b0 01		 mov	 al, 1

; 424  : }

  00038	5e		 pop	 esi
  00039	5d		 pop	 ebp
  0003a	c2 04 00	 ret	 4
?PointInRegion@CHorzScaleRegion@@QBE_NABVCPoint@@@Z ENDP ; CHorzScaleRegion::PointInRegion
_TEXT	ENDS
; Function compile flags: /Ogtp
; File D:\git\src\IBK\IBK_DRFN\ProjSrc\SrcChartEx\ChartAddIn\ChartAnalysisToolAddIn\Include_Chart\ScaleBaseData.cpp
;	COMDAT ?GetBottomScaleRegion@CHorzScaleRegion@@QBE?AVCRect@@XZ
_TEXT	SEGMENT
___$ReturnUdt$ = 8					; size = 4
?GetBottomScaleRegion@CHorzScaleRegion@@QBE?AVCRect@@XZ PROC ; CHorzScaleRegion::GetBottomScaleRegion, COMDAT
; _this$ = ecx

; 417  : {

  00000	55		 push	 ebp
  00001	8b ec		 mov	 ebp, esp

; 418  : 	return m_bottomScaleRegion;

  00003	8b 45 08	 mov	 eax, DWORD PTR ___$ReturnUdt$[ebp]
  00006	0f 10 41 10	 movups	 xmm0, XMMWORD PTR [ecx+16]
  0000a	0f 11 00	 movups	 XMMWORD PTR [eax], xmm0

; 419  : }

  0000d	5d		 pop	 ebp
  0000e	c2 04 00	 ret	 4
?GetBottomScaleRegion@CHorzScaleRegion@@QBE?AVCRect@@XZ ENDP ; CHorzScaleRegion::GetBottomScaleRegion
_TEXT	ENDS
; Function compile flags: /Ogtp
; File D:\git\src\IBK\IBK_DRFN\ProjSrc\SrcChartEx\ChartAddIn\ChartAnalysisToolAddIn\Include_Chart\ScaleBaseData.cpp
;	COMDAT ?GetTopScaleRegion@CHorzScaleRegion@@QBE?AVCRect@@XZ
_TEXT	SEGMENT
___$ReturnUdt$ = 8					; size = 4
?GetTopScaleRegion@CHorzScaleRegion@@QBE?AVCRect@@XZ PROC ; CHorzScaleRegion::GetTopScaleRegion, COMDAT
; _this$ = ecx

; 412  : {

  00000	55		 push	 ebp
  00001	8b ec		 mov	 ebp, esp

; 413  : 	return m_topScaleRegion;

  00003	8b 45 08	 mov	 eax, DWORD PTR ___$ReturnUdt$[ebp]
  00006	0f 10 01	 movups	 xmm0, XMMWORD PTR [ecx]
  00009	0f 11 00	 movups	 XMMWORD PTR [eax], xmm0

; 414  : }

  0000c	5d		 pop	 ebp
  0000d	c2 04 00	 ret	 4
?GetTopScaleRegion@CHorzScaleRegion@@QBE?AVCRect@@XZ ENDP ; CHorzScaleRegion::GetTopScaleRegion
_TEXT	ENDS
; Function compile flags: /Ogtp
; File D:\git\src\IBK\IBK_DRFN\ProjSrc\SrcChartEx\ChartAddIn\ChartAnalysisToolAddIn\Include_Chart\ScaleBaseData.cpp
;	COMDAT ?SetBottomScaleRegion@CHorzScaleRegion@@QAEXABVCRect@@@Z
_TEXT	SEGMENT
_region$ = 8						; size = 4
?SetBottomScaleRegion@CHorzScaleRegion@@QAEXABVCRect@@@Z PROC ; CHorzScaleRegion::SetBottomScaleRegion, COMDAT
; _this$ = ecx

; 407  : {

  00000	55		 push	 ebp
  00001	8b ec		 mov	 ebp, esp

; 408  : 	m_bottomScaleRegion = region;

  00003	8b 45 08	 mov	 eax, DWORD PTR _region$[ebp]
  00006	0f 10 00	 movups	 xmm0, XMMWORD PTR [eax]
  00009	0f 11 41 10	 movups	 XMMWORD PTR [ecx+16], xmm0

; 409  : }

  0000d	5d		 pop	 ebp
  0000e	c2 04 00	 ret	 4
?SetBottomScaleRegion@CHorzScaleRegion@@QAEXABVCRect@@@Z ENDP ; CHorzScaleRegion::SetBottomScaleRegion
_TEXT	ENDS
; Function compile flags: /Ogtp
; File D:\git\src\IBK\IBK_DRFN\ProjSrc\SrcChartEx\ChartAddIn\ChartAnalysisToolAddIn\Include_Chart\ScaleBaseData.cpp
;	COMDAT ?SetTopScaleRegion@CHorzScaleRegion@@QAEXABVCRect@@@Z
_TEXT	SEGMENT
_region$ = 8						; size = 4
?SetTopScaleRegion@CHorzScaleRegion@@QAEXABVCRect@@@Z PROC ; CHorzScaleRegion::SetTopScaleRegion, COMDAT
; _this$ = ecx

; 402  : {

  00000	55		 push	 ebp
  00001	8b ec		 mov	 ebp, esp

; 403  : 	m_topScaleRegion = region;

  00003	8b 45 08	 mov	 eax, DWORD PTR _region$[ebp]
  00006	0f 10 00	 movups	 xmm0, XMMWORD PTR [eax]
  00009	0f 11 01	 movups	 XMMWORD PTR [ecx], xmm0

; 404  : }

  0000c	5d		 pop	 ebp
  0000d	c2 04 00	 ret	 4
?SetTopScaleRegion@CHorzScaleRegion@@QAEXABVCRect@@@Z ENDP ; CHorzScaleRegion::SetTopScaleRegion
_TEXT	ENDS
; Function compile flags: /Ogtp
; File D:\git\src\IBK\IBK_DRFN\ProjSrc\SrcChartEx\ChartAddIn\ChartAnalysisToolAddIn\Include_Chart\ScaleBaseData.cpp
; File C:\Program Files (x86)\Microsoft Visual Studio\2019\Community\VC\Tools\MSVC\14.29.30133\atlmfc\include\atltypes.h
; File D:\git\src\IBK\IBK_DRFN\ProjSrc\SrcChartEx\ChartAddIn\ChartAnalysisToolAddIn\Include_Chart\ScaleBaseData.cpp
; File C:\Program Files (x86)\Microsoft Visual Studio\2019\Community\VC\Tools\MSVC\14.29.30133\atlmfc\include\atltypes.h
; File D:\git\src\IBK\IBK_DRFN\ProjSrc\SrcChartEx\ChartAddIn\ChartAnalysisToolAddIn\Include_Chart\ScaleBaseData.cpp
;	COMDAT ??0CHorzScaleRegion@@QAE@XZ
_TEXT	SEGMENT
??0CHorzScaleRegion@@QAE@XZ PROC			; CHorzScaleRegion::CHorzScaleRegion, COMDAT
; _this$ = ecx
; File C:\Program Files (x86)\Microsoft Visual Studio\2019\Community\VC\Tools\MSVC\14.29.30133\atlmfc\include\atltypes.h

; 540  : 	left = l;

  00000	c7 01 00 00 00
	00		 mov	 DWORD PTR [ecx], 0
; File D:\git\src\IBK\IBK_DRFN\ProjSrc\SrcChartEx\ChartAddIn\ChartAnalysisToolAddIn\Include_Chart\ScaleBaseData.cpp

; 398  : }

  00006	8b c1		 mov	 eax, ecx
; File C:\Program Files (x86)\Microsoft Visual Studio\2019\Community\VC\Tools\MSVC\14.29.30133\atlmfc\include\atltypes.h

; 541  : 	top = t;

  00008	c7 41 04 00 00
	00 00		 mov	 DWORD PTR [ecx+4], 0

; 542  : 	right = r;

  0000f	c7 41 08 00 00
	00 00		 mov	 DWORD PTR [ecx+8], 0

; 543  : 	bottom = b;

  00016	c7 41 0c 00 00
	00 00		 mov	 DWORD PTR [ecx+12], 0

; 540  : 	left = l;

  0001d	c7 41 10 00 00
	00 00		 mov	 DWORD PTR [ecx+16], 0

; 541  : 	top = t;

  00024	c7 41 14 00 00
	00 00		 mov	 DWORD PTR [ecx+20], 0

; 542  : 	right = r;

  0002b	c7 41 18 00 00
	00 00		 mov	 DWORD PTR [ecx+24], 0

; 543  : 	bottom = b;

  00032	c7 41 1c 00 00
	00 00		 mov	 DWORD PTR [ecx+28], 0
; File D:\git\src\IBK\IBK_DRFN\ProjSrc\SrcChartEx\ChartAddIn\ChartAnalysisToolAddIn\Include_Chart\ScaleBaseData.cpp

; 398  : }

  00039	c3		 ret	 0
??0CHorzScaleRegion@@QAE@XZ ENDP			; CHorzScaleRegion::CHorzScaleRegion
_TEXT	ENDS
; Function compile flags: /Ogtp
; File D:\git\src\IBK\IBK_DRFN\ProjSrc\SrcChartEx\ChartAddIn\ChartAnalysisToolAddIn\Include_Chart\ScaleBaseData.cpp
;	COMDAT ?GetRightVertScaleRegionWidth@CVertScaleRegionWidth@@QBEHXZ
_TEXT	SEGMENT
?GetRightVertScaleRegionWidth@CVertScaleRegionWidth@@QBEHXZ PROC ; CVertScaleRegionWidth::GetRightVertScaleRegionWidth, COMDAT
; _this$ = ecx

; 387  : 	return m_nRightWidth;

  00000	8b 41 04	 mov	 eax, DWORD PTR [ecx+4]

; 388  : }

  00003	c3		 ret	 0
?GetRightVertScaleRegionWidth@CVertScaleRegionWidth@@QBEHXZ ENDP ; CVertScaleRegionWidth::GetRightVertScaleRegionWidth
_TEXT	ENDS
; Function compile flags: /Ogtp
; File D:\git\src\IBK\IBK_DRFN\ProjSrc\SrcChartEx\ChartAddIn\ChartAnalysisToolAddIn\Include_Chart\ScaleBaseData.cpp
;	COMDAT ?GetLeftVertScaleRegionWidth@CVertScaleRegionWidth@@QBEHXZ
_TEXT	SEGMENT
?GetLeftVertScaleRegionWidth@CVertScaleRegionWidth@@QBEHXZ PROC ; CVertScaleRegionWidth::GetLeftVertScaleRegionWidth, COMDAT
; _this$ = ecx

; 382  : 	return m_nLeftWidth;

  00000	8b 01		 mov	 eax, DWORD PTR [ecx]

; 383  : }

  00002	c3		 ret	 0
?GetLeftVertScaleRegionWidth@CVertScaleRegionWidth@@QBEHXZ ENDP ; CVertScaleRegionWidth::GetLeftVertScaleRegionWidth
_TEXT	ENDS
; Function compile flags: /Ogtp
; File D:\git\src\IBK\IBK_DRFN\ProjSrc\SrcChartEx\ChartAddIn\ChartAnalysisToolAddIn\Include_Chart\ScaleBaseData.cpp
;	COMDAT ?SetRightVertScaleRegionWidth@CVertScaleRegionWidth@@QAEXH@Z
_TEXT	SEGMENT
_rightWidth$ = 8					; size = 4
?SetRightVertScaleRegionWidth@CVertScaleRegionWidth@@QAEXH@Z PROC ; CVertScaleRegionWidth::SetRightVertScaleRegionWidth, COMDAT
; _this$ = ecx

; 376  : {

  00000	55		 push	 ebp
  00001	8b ec		 mov	 ebp, esp

; 377  : 	m_nRightWidth = rightWidth;

  00003	8b 45 08	 mov	 eax, DWORD PTR _rightWidth$[ebp]
  00006	89 41 04	 mov	 DWORD PTR [ecx+4], eax

; 378  : }

  00009	5d		 pop	 ebp
  0000a	c2 04 00	 ret	 4
?SetRightVertScaleRegionWidth@CVertScaleRegionWidth@@QAEXH@Z ENDP ; CVertScaleRegionWidth::SetRightVertScaleRegionWidth
_TEXT	ENDS
; Function compile flags: /Ogtp
; File D:\git\src\IBK\IBK_DRFN\ProjSrc\SrcChartEx\ChartAddIn\ChartAnalysisToolAddIn\Include_Chart\ScaleBaseData.cpp
;	COMDAT ?SetLeftVertScaleRegionWidth@CVertScaleRegionWidth@@QAEXH@Z
_TEXT	SEGMENT
_leftWidth$ = 8						; size = 4
?SetLeftVertScaleRegionWidth@CVertScaleRegionWidth@@QAEXH@Z PROC ; CVertScaleRegionWidth::SetLeftVertScaleRegionWidth, COMDAT
; _this$ = ecx

; 371  : {

  00000	55		 push	 ebp
  00001	8b ec		 mov	 ebp, esp

; 372  : 	m_nLeftWidth = leftWidth;

  00003	8b 45 08	 mov	 eax, DWORD PTR _leftWidth$[ebp]
  00006	89 01		 mov	 DWORD PTR [ecx], eax

; 373  : }

  00008	5d		 pop	 ebp
  00009	c2 04 00	 ret	 4
?SetLeftVertScaleRegionWidth@CVertScaleRegionWidth@@QAEXH@Z ENDP ; CVertScaleRegionWidth::SetLeftVertScaleRegionWidth
_TEXT	ENDS
; Function compile flags: /Ogtp
; File D:\git\src\IBK\IBK_DRFN\ProjSrc\SrcChartEx\ChartAddIn\ChartAnalysisToolAddIn\Include_Chart\ScaleBaseData.cpp
;	COMDAT ??0CVertScaleRegionWidth@@QAE@HH@Z
_TEXT	SEGMENT
_leftWidth$ = 8						; size = 4
_rightWidth$ = 12					; size = 4
??0CVertScaleRegionWidth@@QAE@HH@Z PROC			; CVertScaleRegionWidth::CVertScaleRegionWidth, COMDAT
; _this$ = ecx

; 366  : {

  00000	55		 push	 ebp
  00001	8b ec		 mov	 ebp, esp

; 364  : 	m_nLeftWidth(leftWidth),

  00003	8b 45 08	 mov	 eax, DWORD PTR _leftWidth$[ebp]
  00006	89 01		 mov	 DWORD PTR [ecx], eax

; 365  : 	m_nRightWidth(rightWidth)

  00008	8b 45 0c	 mov	 eax, DWORD PTR _rightWidth$[ebp]
  0000b	89 41 04	 mov	 DWORD PTR [ecx+4], eax

; 367  : }

  0000e	8b c1		 mov	 eax, ecx
  00010	5d		 pop	 ebp
  00011	c2 08 00	 ret	 8
??0CVertScaleRegionWidth@@QAE@HH@Z ENDP			; CVertScaleRegionWidth::CVertScaleRegionWidth
_TEXT	ENDS
; Function compile flags: /Ogtp
; File D:\git\src\IBK\IBK_DRFN\ProjSrc\SrcChartEx\ChartAddIn\ChartAnalysisToolAddIn\Include_Chart\ScaleBaseData.cpp
;	COMDAT ??0CVertScaleRegionWidth@@QAE@XZ
_TEXT	SEGMENT
??0CVertScaleRegionWidth@@QAE@XZ PROC			; CVertScaleRegionWidth::CVertScaleRegionWidth, COMDAT
; _this$ = ecx

; 358  : 	m_nLeftWidth(0),

  00000	c7 01 00 00 00
	00		 mov	 DWORD PTR [ecx], 0

; 361  : }

  00006	8b c1		 mov	 eax, ecx
  00008	c7 41 04 00 00
	00 00		 mov	 DWORD PTR [ecx+4], 0
  0000f	c3		 ret	 0
??0CVertScaleRegionWidth@@QAE@XZ ENDP			; CVertScaleRegionWidth::CVertScaleRegionWidth
_TEXT	ENDS
; Function compile flags: /Ogtp
; File D:\git\src\IBK\IBK_DRFN\ProjSrc\SrcChartEx\ChartAddIn\ChartAnalysisToolAddIn\Include_Chart\ScaleBaseData.cpp
;	COMDAT ?GetBottomHorzScaleRegionHeight@CHorzScaleRegionHeight@@QBEHXZ
_TEXT	SEGMENT
?GetBottomHorzScaleRegionHeight@CHorzScaleRegionHeight@@QBEHXZ PROC ; CHorzScaleRegionHeight::GetBottomHorzScaleRegionHeight, COMDAT
; _this$ = ecx

; 350  : 	return m_nBottomHeight;

  00000	8b 41 04	 mov	 eax, DWORD PTR [ecx+4]

; 351  : }

  00003	c3		 ret	 0
?GetBottomHorzScaleRegionHeight@CHorzScaleRegionHeight@@QBEHXZ ENDP ; CHorzScaleRegionHeight::GetBottomHorzScaleRegionHeight
_TEXT	ENDS
; Function compile flags: /Ogtp
; File D:\git\src\IBK\IBK_DRFN\ProjSrc\SrcChartEx\ChartAddIn\ChartAnalysisToolAddIn\Include_Chart\ScaleBaseData.cpp
;	COMDAT ?GetTopHorzScaleRegionHeight@CHorzScaleRegionHeight@@QBEHXZ
_TEXT	SEGMENT
?GetTopHorzScaleRegionHeight@CHorzScaleRegionHeight@@QBEHXZ PROC ; CHorzScaleRegionHeight::GetTopHorzScaleRegionHeight, COMDAT
; _this$ = ecx

; 345  : 	return m_nTopHeight;

  00000	8b 01		 mov	 eax, DWORD PTR [ecx]

; 346  : }

  00002	c3		 ret	 0
?GetTopHorzScaleRegionHeight@CHorzScaleRegionHeight@@QBEHXZ ENDP ; CHorzScaleRegionHeight::GetTopHorzScaleRegionHeight
_TEXT	ENDS
; Function compile flags: /Ogtp
; File D:\git\src\IBK\IBK_DRFN\ProjSrc\SrcChartEx\ChartAddIn\ChartAnalysisToolAddIn\Include_Chart\ScaleBaseData.cpp
;	COMDAT ?SetBottomHorzScaleRegionHeight@CHorzScaleRegionHeight@@QAEXH@Z
_TEXT	SEGMENT
_bottomHeight$ = 8					; size = 4
?SetBottomHorzScaleRegionHeight@CHorzScaleRegionHeight@@QAEXH@Z PROC ; CHorzScaleRegionHeight::SetBottomHorzScaleRegionHeight, COMDAT
; _this$ = ecx

; 339  : {

  00000	55		 push	 ebp
  00001	8b ec		 mov	 ebp, esp

; 340  : 	m_nBottomHeight = bottomHeight;

  00003	8b 45 08	 mov	 eax, DWORD PTR _bottomHeight$[ebp]
  00006	89 41 04	 mov	 DWORD PTR [ecx+4], eax

; 341  : }

  00009	5d		 pop	 ebp
  0000a	c2 04 00	 ret	 4
?SetBottomHorzScaleRegionHeight@CHorzScaleRegionHeight@@QAEXH@Z ENDP ; CHorzScaleRegionHeight::SetBottomHorzScaleRegionHeight
_TEXT	ENDS
; Function compile flags: /Ogtp
; File D:\git\src\IBK\IBK_DRFN\ProjSrc\SrcChartEx\ChartAddIn\ChartAnalysisToolAddIn\Include_Chart\ScaleBaseData.cpp
;	COMDAT ?SetTopHorzScaleRegionHeight@CHorzScaleRegionHeight@@QAEXH@Z
_TEXT	SEGMENT
_topHeight$ = 8						; size = 4
?SetTopHorzScaleRegionHeight@CHorzScaleRegionHeight@@QAEXH@Z PROC ; CHorzScaleRegionHeight::SetTopHorzScaleRegionHeight, COMDAT
; _this$ = ecx

; 334  : {

  00000	55		 push	 ebp
  00001	8b ec		 mov	 ebp, esp

; 335  : 	m_nTopHeight = topHeight;

  00003	8b 45 08	 mov	 eax, DWORD PTR _topHeight$[ebp]
  00006	89 01		 mov	 DWORD PTR [ecx], eax

; 336  : }

  00008	5d		 pop	 ebp
  00009	c2 04 00	 ret	 4
?SetTopHorzScaleRegionHeight@CHorzScaleRegionHeight@@QAEXH@Z ENDP ; CHorzScaleRegionHeight::SetTopHorzScaleRegionHeight
_TEXT	ENDS
; Function compile flags: /Ogtp
; File D:\git\src\IBK\IBK_DRFN\ProjSrc\SrcChartEx\ChartAddIn\ChartAnalysisToolAddIn\Include_Chart\ScaleBaseData.cpp
;	COMDAT ??0CHorzScaleRegionHeight@@QAE@HH@Z
_TEXT	SEGMENT
_topHeight$ = 8						; size = 4
_bottomHeight$ = 12					; size = 4
??0CHorzScaleRegionHeight@@QAE@HH@Z PROC		; CHorzScaleRegionHeight::CHorzScaleRegionHeight, COMDAT
; _this$ = ecx

; 329  : {

  00000	55		 push	 ebp
  00001	8b ec		 mov	 ebp, esp

; 327  : 	m_nTopHeight(topHeight),

  00003	8b 45 08	 mov	 eax, DWORD PTR _topHeight$[ebp]
  00006	89 01		 mov	 DWORD PTR [ecx], eax

; 328  : 	m_nBottomHeight(bottomHeight)

  00008	8b 45 0c	 mov	 eax, DWORD PTR _bottomHeight$[ebp]
  0000b	89 41 04	 mov	 DWORD PTR [ecx+4], eax

; 330  : }

  0000e	8b c1		 mov	 eax, ecx
  00010	5d		 pop	 ebp
  00011	c2 08 00	 ret	 8
??0CHorzScaleRegionHeight@@QAE@HH@Z ENDP		; CHorzScaleRegionHeight::CHorzScaleRegionHeight
_TEXT	ENDS
; Function compile flags: /Ogtp
; File D:\git\src\IBK\IBK_DRFN\ProjSrc\SrcChartEx\ChartAddIn\ChartAnalysisToolAddIn\Include_Chart\ScaleBaseData.cpp
;	COMDAT ??0CHorzScaleRegionHeight@@QAE@XZ
_TEXT	SEGMENT
??0CHorzScaleRegionHeight@@QAE@XZ PROC			; CHorzScaleRegionHeight::CHorzScaleRegionHeight, COMDAT
; _this$ = ecx

; 321  : 	m_nTopHeight(0),

  00000	c7 01 00 00 00
	00		 mov	 DWORD PTR [ecx], 0

; 324  : }

  00006	8b c1		 mov	 eax, ecx
  00008	c7 41 04 00 00
	00 00		 mov	 DWORD PTR [ecx+4], 0
  0000f	c3		 ret	 0
??0CHorzScaleRegionHeight@@QAE@XZ ENDP			; CHorzScaleRegionHeight::CHorzScaleRegionHeight
_TEXT	ENDS
; Function compile flags: /Ogtp
; File D:\git\src\IBK\IBK_DRFN\ProjSrc\SrcChartEx\ChartAddIn\ChartAnalysisToolAddIn\Include_Chart\ScaleBaseData.cpp
; File C:\Program Files (x86)\Microsoft Visual Studio\2019\Community\VC\Tools\MSVC\14.29.30133\atlmfc\include\cstringt.h
; File D:\git\src\IBK\IBK_DRFN\ProjSrc\SrcChartEx\ChartAddIn\ChartAnalysisToolAddIn\Include_Chart\ScaleBaseData.cpp
; File C:\Program Files (x86)\Microsoft Visual Studio\2019\Community\VC\Tools\MSVC\14.29.30133\atlmfc\include\cstringt.h
; File C:\Program Files (x86)\Microsoft Visual Studio\2019\Community\VC\Tools\MSVC\14.29.30133\atlmfc\include\atlsimpstr.h
; File C:\Program Files (x86)\Microsoft Visual Studio\2019\Community\VC\Tools\MSVC\14.29.30133\atlmfc\include\cstringt.h
; File D:\git\src\IBK\IBK_DRFN\ProjSrc\SrcChartEx\ChartAddIn\ChartAnalysisToolAddIn\Include_Chart\ScaleBaseData.cpp
; File C:\Program Files (x86)\Microsoft Visual Studio\2019\Community\VC\Tools\MSVC\14.29.30133\atlmfc\include\cstringt.h
; File D:\git\src\IBK\IBK_DRFN\ProjSrc\SrcChartEx\ChartAddIn\ChartAnalysisToolAddIn\Include_Chart\ScaleBaseData.cpp
; File C:\Program Files (x86)\Microsoft Visual Studio\2019\Community\VC\Tools\MSVC\14.29.30133\atlmfc\include\cstringt.h
; File C:\Program Files (x86)\Microsoft Visual Studio\2019\Community\VC\Tools\MSVC\14.29.30133\atlmfc\include\atlsimpstr.h
; File C:\Program Files (x86)\Microsoft Visual Studio\2019\Community\VC\Tools\MSVC\14.29.30133\atlmfc\include\cstringt.h
; File D:\git\src\IBK\IBK_DRFN\ProjSrc\SrcChartEx\ChartAddIn\ChartAnalysisToolAddIn\Include_Chart\ScaleBaseData.cpp
; File C:\Program Files (x86)\Microsoft Visual Studio\2019\Community\VC\Tools\MSVC\14.29.30133\atlmfc\include\cstringt.h
; File D:\git\src\IBK\IBK_DRFN\ProjSrc\SrcChartEx\ChartAddIn\ChartAnalysisToolAddIn\Include_Chart\ScaleBaseData.cpp
; File C:\Program Files (x86)\Microsoft Visual Studio\2019\Community\VC\Tools\MSVC\14.29.30133\atlmfc\include\cstringt.h
; File C:\Program Files (x86)\Microsoft Visual Studio\2019\Community\VC\Tools\MSVC\14.29.30133\atlmfc\include\atlsimpstr.h
; File C:\Program Files (x86)\Microsoft Visual Studio\2019\Community\VC\Tools\MSVC\14.29.30133\atlmfc\include\cstringt.h
; File D:\git\src\IBK\IBK_DRFN\ProjSrc\SrcChartEx\ChartAddIn\ChartAnalysisToolAddIn\Include_Chart\ScaleBaseData.cpp
; File C:\Program Files (x86)\Microsoft Visual Studio\2019\Community\VC\Tools\MSVC\14.29.30133\atlmfc\include\cstringt.h
; File D:\git\src\IBK\IBK_DRFN\ProjSrc\SrcChartEx\ChartAddIn\ChartAnalysisToolAddIn\Include_Chart\ScaleBaseData.cpp
; File C:\Program Files (x86)\Microsoft Visual Studio\2019\Community\VC\Tools\MSVC\14.29.30133\atlmfc\include\cstringt.h
; File C:\Program Files (x86)\Microsoft Visual Studio\2019\Community\VC\Tools\MSVC\14.29.30133\atlmfc\include\atlsimpstr.h
; File C:\Program Files (x86)\Microsoft Visual Studio\2019\Community\VC\Tools\MSVC\14.29.30133\atlmfc\include\cstringt.h
; File D:\git\src\IBK\IBK_DRFN\ProjSrc\SrcChartEx\ChartAddIn\ChartAnalysisToolAddIn\Include_Chart\ScaleBaseData.cpp
; File C:\Program Files (x86)\Microsoft Visual Studio\2019\Community\VC\Tools\MSVC\14.29.30133\atlmfc\include\cstringt.h
; File D:\git\src\IBK\IBK_DRFN\ProjSrc\SrcChartEx\ChartAddIn\ChartAnalysisToolAddIn\Include_Chart\ScaleBaseData.cpp
; File C:\Program Files (x86)\Microsoft Visual Studio\2019\Community\VC\Tools\MSVC\14.29.30133\atlmfc\include\cstringt.h
; File D:\git\src\IBK\IBK_DRFN\ProjSrc\SrcChartEx\ChartAddIn\ChartAnalysisToolAddIn\Include_Chart\ScaleBaseData.cpp
;	COMDAT ?GetScaleAllData@CVerticalScale@@QBE?AV?$CStringT@DV?$StrTraitMFC_DLL@DV?$ChTraitsCRT@D@ATL@@@@@ATL@@ABV23@@Z
_TEXT	SEGMENT
$T2 = -28						; size = 4
$T3 = -28						; size = 4
$T4 = -28						; size = 4
$T5 = -24						; size = 4
$T6 = -24						; size = 4
$T7 = -24						; size = 4
$T8 = -24						; size = 4
$T9 = -20						; size = 4
_scaleAllData$ = -16					; size = 4
__$EHRec$ = -12						; size = 12
___$ReturnUdt$ = 8					; size = 4
_strScaleData$ = 12					; size = 4
_chTemp$10 = 15						; size = 1
_chTemp$11 = 15						; size = 1
_chTemp$12 = 15						; size = 1
_chTemp$13 = 15						; size = 1
?GetScaleAllData@CVerticalScale@@QBE?AV?$CStringT@DV?$StrTraitMFC_DLL@DV?$ChTraitsCRT@D@ATL@@@@@ATL@@ABV23@@Z PROC ; CVerticalScale::GetScaleAllData, COMDAT
; _this$ = ecx

; 307  : {

  00000	55		 push	 ebp
  00001	8b ec		 mov	 ebp, esp
  00003	6a ff		 push	 -1
  00005	68 00 00 00 00	 push	 __ehhandler$?GetScaleAllData@CVerticalScale@@QBE?AV?$CStringT@DV?$StrTraitMFC_DLL@DV?$ChTraitsCRT@D@ATL@@@@@ATL@@ABV23@@Z
  0000a	64 a1 00 00 00
	00		 mov	 eax, DWORD PTR fs:0
  00010	50		 push	 eax
  00011	83 ec 10	 sub	 esp, 16			; 00000010H
  00014	56		 push	 esi
  00015	57		 push	 edi
  00016	a1 00 00 00 00	 mov	 eax, DWORD PTR ___security_cookie
  0001b	33 c5		 xor	 eax, ebp
  0001d	50		 push	 eax
  0001e	8d 45 f4	 lea	 eax, DWORD PTR __$EHRec$[ebp]
  00021	64 a3 00 00 00
	00		 mov	 DWORD PTR fs:0, eax
  00027	8b f9		 mov	 edi, ecx

; 308  : 	CString scaleAllData;

  00029	8d 4d f0	 lea	 ecx, DWORD PTR _scaleAllData$[ebp]
  0002c	c7 45 ec 00 00
	00 00		 mov	 DWORD PTR $T9[ebp], 0
  00033	ff 15 00 00 00
	00		 call	 DWORD PTR __imp_??0?$CStringT@DV?$StrTraitMFC_DLL@DV?$ChTraitsCRT@D@ATL@@@@@ATL@@QAE@XZ
; File C:\Program Files (x86)\Microsoft Visual Studio\2019\Community\VC\Tools\MSVC\14.29.30133\atlmfc\include\cstringt.h

; 2429 : 		CStringT strResult( str1.GetManager() );

  00039	8b 75 0c	 mov	 esi, DWORD PTR _strScaleData$[ebp]
  0003c	8b ce		 mov	 ecx, esi
; File D:\git\src\IBK\IBK_DRFN\ProjSrc\SrcChartEx\ChartAddIn\ChartAnalysisToolAddIn\Include_Chart\ScaleBaseData.cpp

; 309  : 	scaleAllData += strScaleData + ';';

  0003e	c7 45 fc 01 00
	00 00		 mov	 DWORD PTR __$EHRec$[ebp+8], 1
; File C:\Program Files (x86)\Microsoft Visual Studio\2019\Community\VC\Tools\MSVC\14.29.30133\atlmfc\include\cstringt.h

; 2429 : 		CStringT strResult( str1.GetManager() );

  00045	ff 15 00 00 00
	00		 call	 DWORD PTR __imp_?GetManager@?$CStringT@DV?$StrTraitMFC_DLL@DV?$ChTraitsCRT@D@ATL@@@@@ATL@@QBEPAUIAtlStringMgr@2@XZ
  0004b	50		 push	 eax
  0004c	8d 4d e8	 lea	 ecx, DWORD PTR $T8[ebp]
  0004f	ff 15 00 00 00
	00		 call	 DWORD PTR __imp_??0?$CStringT@DV?$StrTraitMFC_DLL@DV?$ChTraitsCRT@D@ATL@@@@@ATL@@QAE@PAUIAtlStringMgr@1@@Z
; File C:\Program Files (x86)\Microsoft Visual Studio\2019\Community\VC\Tools\MSVC\14.29.30133\atlmfc\include\atlsimpstr.h

; 519  : 		return( GetData()->nDataLength );

  00055	8b 06		 mov	 eax, DWORD PTR [esi]
; File C:\Program Files (x86)\Microsoft Visual Studio\2019\Community\VC\Tools\MSVC\14.29.30133\atlmfc\include\cstringt.h

; 2432 : 		CThisSimpleString::Concatenate( strResult, str1, str1.GetLength(), &chTemp, 1 );

  00057	8d 4d 0f	 lea	 ecx, DWORD PTR _chTemp$13[ebp]
  0005a	6a 01		 push	 1
  0005c	51		 push	 ecx
  0005d	c6 45 0f 3b	 mov	 BYTE PTR _chTemp$13[ebp], 59 ; 0000003bH
  00061	ff 70 f4	 push	 DWORD PTR [eax-12]

; 2433 : 
; 2434 : 		return( strResult );

  00064	c7 45 ec 02 00
	00 00		 mov	 DWORD PTR $T9[ebp], 2
  0006b	50		 push	 eax
  0006c	8d 45 e8	 lea	 eax, DWORD PTR $T8[ebp]
  0006f	50		 push	 eax
  00070	ff 15 00 00 00
	00		 call	 DWORD PTR __imp_?Concatenate@?$CSimpleStringT@D$00@ATL@@KAXAAV12@PBDH1H@Z
  00076	83 c4 14	 add	 esp, 20			; 00000014H
; File D:\git\src\IBK\IBK_DRFN\ProjSrc\SrcChartEx\ChartAddIn\ChartAnalysisToolAddIn\Include_Chart\ScaleBaseData.cpp

; 309  : 	scaleAllData += strScaleData + ';';

  00079	8d 45 e8	 lea	 eax, DWORD PTR $T8[ebp]
  0007c	8d 4d f0	 lea	 ecx, DWORD PTR _scaleAllData$[ebp]
  0007f	50		 push	 eax
  00080	ff 15 00 00 00
	00		 call	 DWORD PTR __imp_??Y?$CStringT@DV?$StrTraitMFC_DLL@DV?$ChTraitsCRT@D@ATL@@@@@ATL@@QAEAAV01@ABV?$CSimpleStringT@D$00@1@@Z
  00086	8d 4d e8	 lea	 ecx, DWORD PTR $T8[ebp]
  00089	c6 45 fc 00	 mov	 BYTE PTR __$EHRec$[ebp+8], 0
  0008d	ff 15 00 00 00
	00		 call	 DWORD PTR __imp_??1?$CStringT@DV?$StrTraitMFC_DLL@DV?$ChTraitsCRT@D@ATL@@@@@ATL@@QAE@XZ

; 310  : 	scaleAllData += CDataConversion::IntToString((int)m_ePosition) + ';';

  00093	ff 77 0c	 push	 DWORD PTR [edi+12]
  00096	8d 45 e4	 lea	 eax, DWORD PTR $T4[ebp]
  00099	50		 push	 eax
  0009a	e8 00 00 00 00	 call	 ?IntToString@CDataConversion@@SA?AV?$CStringT@DV?$StrTraitMFC_DLL@DV?$ChTraitsCRT@D@ATL@@@@@ATL@@H@Z ; CDataConversion::IntToString
  0009f	83 c4 08	 add	 esp, 8
  000a2	8b f0		 mov	 esi, eax
; File C:\Program Files (x86)\Microsoft Visual Studio\2019\Community\VC\Tools\MSVC\14.29.30133\atlmfc\include\cstringt.h

; 2429 : 		CStringT strResult( str1.GetManager() );

  000a4	8b ce		 mov	 ecx, esi
; File D:\git\src\IBK\IBK_DRFN\ProjSrc\SrcChartEx\ChartAddIn\ChartAnalysisToolAddIn\Include_Chart\ScaleBaseData.cpp

; 310  : 	scaleAllData += CDataConversion::IntToString((int)m_ePosition) + ';';

  000a6	c6 45 fc 03	 mov	 BYTE PTR __$EHRec$[ebp+8], 3
; File C:\Program Files (x86)\Microsoft Visual Studio\2019\Community\VC\Tools\MSVC\14.29.30133\atlmfc\include\cstringt.h

; 2429 : 		CStringT strResult( str1.GetManager() );

  000aa	ff 15 00 00 00
	00		 call	 DWORD PTR __imp_?GetManager@?$CStringT@DV?$StrTraitMFC_DLL@DV?$ChTraitsCRT@D@ATL@@@@@ATL@@QBEPAUIAtlStringMgr@2@XZ
  000b0	50		 push	 eax
  000b1	8d 4d e8	 lea	 ecx, DWORD PTR $T7[ebp]
  000b4	ff 15 00 00 00
	00		 call	 DWORD PTR __imp_??0?$CStringT@DV?$StrTraitMFC_DLL@DV?$ChTraitsCRT@D@ATL@@@@@ATL@@QAE@PAUIAtlStringMgr@1@@Z
; File C:\Program Files (x86)\Microsoft Visual Studio\2019\Community\VC\Tools\MSVC\14.29.30133\atlmfc\include\atlsimpstr.h

; 519  : 		return( GetData()->nDataLength );

  000ba	8b 06		 mov	 eax, DWORD PTR [esi]
; File C:\Program Files (x86)\Microsoft Visual Studio\2019\Community\VC\Tools\MSVC\14.29.30133\atlmfc\include\cstringt.h

; 2432 : 		CThisSimpleString::Concatenate( strResult, str1, str1.GetLength(), &chTemp, 1 );

  000bc	8d 4d 0f	 lea	 ecx, DWORD PTR _chTemp$12[ebp]
  000bf	6a 01		 push	 1
  000c1	51		 push	 ecx
  000c2	c6 45 0f 3b	 mov	 BYTE PTR _chTemp$12[ebp], 59 ; 0000003bH
  000c6	ff 70 f4	 push	 DWORD PTR [eax-12]

; 2433 : 
; 2434 : 		return( strResult );

  000c9	c7 45 ec 04 00
	00 00		 mov	 DWORD PTR $T9[ebp], 4
  000d0	50		 push	 eax
  000d1	8d 45 e8	 lea	 eax, DWORD PTR $T7[ebp]
  000d4	50		 push	 eax
  000d5	ff 15 00 00 00
	00		 call	 DWORD PTR __imp_?Concatenate@?$CSimpleStringT@D$00@ATL@@KAXAAV12@PBDH1H@Z
  000db	83 c4 14	 add	 esp, 20			; 00000014H
; File D:\git\src\IBK\IBK_DRFN\ProjSrc\SrcChartEx\ChartAddIn\ChartAnalysisToolAddIn\Include_Chart\ScaleBaseData.cpp

; 310  : 	scaleAllData += CDataConversion::IntToString((int)m_ePosition) + ';';

  000de	8d 45 e8	 lea	 eax, DWORD PTR $T7[ebp]
  000e1	8d 4d f0	 lea	 ecx, DWORD PTR _scaleAllData$[ebp]
  000e4	50		 push	 eax
  000e5	ff 15 00 00 00
	00		 call	 DWORD PTR __imp_??Y?$CStringT@DV?$StrTraitMFC_DLL@DV?$ChTraitsCRT@D@ATL@@@@@ATL@@QAEAAV01@ABV?$CSimpleStringT@D$00@1@@Z
  000eb	8d 4d e8	 lea	 ecx, DWORD PTR $T7[ebp]
  000ee	ff 15 00 00 00
	00		 call	 DWORD PTR __imp_??1?$CStringT@DV?$StrTraitMFC_DLL@DV?$ChTraitsCRT@D@ATL@@@@@ATL@@QAE@XZ
  000f4	8d 4d e4	 lea	 ecx, DWORD PTR $T4[ebp]
  000f7	c6 45 fc 00	 mov	 BYTE PTR __$EHRec$[ebp+8], 0
  000fb	ff 15 00 00 00
	00		 call	 DWORD PTR __imp_??1?$CStringT@DV?$StrTraitMFC_DLL@DV?$ChTraitsCRT@D@ATL@@@@@ATL@@QAE@XZ

; 311  : 	scaleAllData += CDataConversion::IntToString((int)CScale::GetGridType()) + ';';

  00101	ff 77 08	 push	 DWORD PTR [edi+8]
  00104	8d 45 e4	 lea	 eax, DWORD PTR $T3[ebp]
  00107	50		 push	 eax
  00108	e8 00 00 00 00	 call	 ?IntToString@CDataConversion@@SA?AV?$CStringT@DV?$StrTraitMFC_DLL@DV?$ChTraitsCRT@D@ATL@@@@@ATL@@H@Z ; CDataConversion::IntToString
  0010d	83 c4 08	 add	 esp, 8
  00110	8b f0		 mov	 esi, eax
; File C:\Program Files (x86)\Microsoft Visual Studio\2019\Community\VC\Tools\MSVC\14.29.30133\atlmfc\include\cstringt.h

; 2429 : 		CStringT strResult( str1.GetManager() );

  00112	8b ce		 mov	 ecx, esi
; File D:\git\src\IBK\IBK_DRFN\ProjSrc\SrcChartEx\ChartAddIn\ChartAnalysisToolAddIn\Include_Chart\ScaleBaseData.cpp

; 311  : 	scaleAllData += CDataConversion::IntToString((int)CScale::GetGridType()) + ';';

  00114	c6 45 fc 05	 mov	 BYTE PTR __$EHRec$[ebp+8], 5
; File C:\Program Files (x86)\Microsoft Visual Studio\2019\Community\VC\Tools\MSVC\14.29.30133\atlmfc\include\cstringt.h

; 2429 : 		CStringT strResult( str1.GetManager() );

  00118	ff 15 00 00 00
	00		 call	 DWORD PTR __imp_?GetManager@?$CStringT@DV?$StrTraitMFC_DLL@DV?$ChTraitsCRT@D@ATL@@@@@ATL@@QBEPAUIAtlStringMgr@2@XZ
  0011e	50		 push	 eax
  0011f	8d 4d e8	 lea	 ecx, DWORD PTR $T6[ebp]
  00122	ff 15 00 00 00
	00		 call	 DWORD PTR __imp_??0?$CStringT@DV?$StrTraitMFC_DLL@DV?$ChTraitsCRT@D@ATL@@@@@ATL@@QAE@PAUIAtlStringMgr@1@@Z

; 2433 : 
; 2434 : 		return( strResult );

  00128	c7 45 ec 08 00
	00 00		 mov	 DWORD PTR $T9[ebp], 8
; File C:\Program Files (x86)\Microsoft Visual Studio\2019\Community\VC\Tools\MSVC\14.29.30133\atlmfc\include\atlsimpstr.h

; 519  : 		return( GetData()->nDataLength );

  0012f	8b 06		 mov	 eax, DWORD PTR [esi]
; File C:\Program Files (x86)\Microsoft Visual Studio\2019\Community\VC\Tools\MSVC\14.29.30133\atlmfc\include\cstringt.h

; 2432 : 		CThisSimpleString::Concatenate( strResult, str1, str1.GetLength(), &chTemp, 1 );

  00131	8d 4d 0f	 lea	 ecx, DWORD PTR _chTemp$11[ebp]
  00134	6a 01		 push	 1
  00136	51		 push	 ecx
  00137	c6 45 0f 3b	 mov	 BYTE PTR _chTemp$11[ebp], 59 ; 0000003bH
  0013b	ff 70 f4	 push	 DWORD PTR [eax-12]
  0013e	50		 push	 eax
  0013f	8d 45 e8	 lea	 eax, DWORD PTR $T6[ebp]
  00142	50		 push	 eax
  00143	ff 15 00 00 00
	00		 call	 DWORD PTR __imp_?Concatenate@?$CSimpleStringT@D$00@ATL@@KAXAAV12@PBDH1H@Z
  00149	83 c4 14	 add	 esp, 20			; 00000014H
; File D:\git\src\IBK\IBK_DRFN\ProjSrc\SrcChartEx\ChartAddIn\ChartAnalysisToolAddIn\Include_Chart\ScaleBaseData.cpp

; 311  : 	scaleAllData += CDataConversion::IntToString((int)CScale::GetGridType()) + ';';

  0014c	8d 45 e8	 lea	 eax, DWORD PTR $T6[ebp]
  0014f	8d 4d f0	 lea	 ecx, DWORD PTR _scaleAllData$[ebp]
  00152	50		 push	 eax
  00153	ff 15 00 00 00
	00		 call	 DWORD PTR __imp_??Y?$CStringT@DV?$StrTraitMFC_DLL@DV?$ChTraitsCRT@D@ATL@@@@@ATL@@QAEAAV01@ABV?$CSimpleStringT@D$00@1@@Z
  00159	8d 4d e8	 lea	 ecx, DWORD PTR $T6[ebp]
  0015c	ff 15 00 00 00
	00		 call	 DWORD PTR __imp_??1?$CStringT@DV?$StrTraitMFC_DLL@DV?$ChTraitsCRT@D@ATL@@@@@ATL@@QAE@XZ
  00162	8d 4d e4	 lea	 ecx, DWORD PTR $T3[ebp]
  00165	c6 45 fc 00	 mov	 BYTE PTR __$EHRec$[ebp+8], 0
  00169	ff 15 00 00 00
	00		 call	 DWORD PTR __imp_??1?$CStringT@DV?$StrTraitMFC_DLL@DV?$ChTraitsCRT@D@ATL@@@@@ATL@@QAE@XZ

; 312  : 	scaleAllData += CDataConversion::IntToString((int)m_eUnitType) + ';';

  0016f	ff 77 10	 push	 DWORD PTR [edi+16]
  00172	8d 45 e4	 lea	 eax, DWORD PTR $T2[ebp]
  00175	50		 push	 eax
  00176	e8 00 00 00 00	 call	 ?IntToString@CDataConversion@@SA?AV?$CStringT@DV?$StrTraitMFC_DLL@DV?$ChTraitsCRT@D@ATL@@@@@ATL@@H@Z ; CDataConversion::IntToString
  0017b	83 c4 08	 add	 esp, 8
  0017e	8b f0		 mov	 esi, eax
; File C:\Program Files (x86)\Microsoft Visual Studio\2019\Community\VC\Tools\MSVC\14.29.30133\atlmfc\include\cstringt.h

; 2429 : 		CStringT strResult( str1.GetManager() );

  00180	8b ce		 mov	 ecx, esi
; File D:\git\src\IBK\IBK_DRFN\ProjSrc\SrcChartEx\ChartAddIn\ChartAnalysisToolAddIn\Include_Chart\ScaleBaseData.cpp

; 312  : 	scaleAllData += CDataConversion::IntToString((int)m_eUnitType) + ';';

  00182	c6 45 fc 07	 mov	 BYTE PTR __$EHRec$[ebp+8], 7
; File C:\Program Files (x86)\Microsoft Visual Studio\2019\Community\VC\Tools\MSVC\14.29.30133\atlmfc\include\cstringt.h

; 2429 : 		CStringT strResult( str1.GetManager() );

  00186	ff 15 00 00 00
	00		 call	 DWORD PTR __imp_?GetManager@?$CStringT@DV?$StrTraitMFC_DLL@DV?$ChTraitsCRT@D@ATL@@@@@ATL@@QBEPAUIAtlStringMgr@2@XZ
  0018c	50		 push	 eax
  0018d	8d 4d e8	 lea	 ecx, DWORD PTR $T5[ebp]
  00190	ff 15 00 00 00
	00		 call	 DWORD PTR __imp_??0?$CStringT@DV?$StrTraitMFC_DLL@DV?$ChTraitsCRT@D@ATL@@@@@ATL@@QAE@PAUIAtlStringMgr@1@@Z
; File C:\Program Files (x86)\Microsoft Visual Studio\2019\Community\VC\Tools\MSVC\14.29.30133\atlmfc\include\atlsimpstr.h

; 519  : 		return( GetData()->nDataLength );

  00196	8b 06		 mov	 eax, DWORD PTR [esi]
; File C:\Program Files (x86)\Microsoft Visual Studio\2019\Community\VC\Tools\MSVC\14.29.30133\atlmfc\include\cstringt.h

; 2432 : 		CThisSimpleString::Concatenate( strResult, str1, str1.GetLength(), &chTemp, 1 );

  00198	8d 4d 0f	 lea	 ecx, DWORD PTR _chTemp$10[ebp]
  0019b	6a 01		 push	 1
  0019d	51		 push	 ecx
  0019e	c6 45 0f 3b	 mov	 BYTE PTR _chTemp$10[ebp], 59 ; 0000003bH
  001a2	ff 70 f4	 push	 DWORD PTR [eax-12]

; 2433 : 
; 2434 : 		return( strResult );

  001a5	c7 45 ec 10 00
	00 00		 mov	 DWORD PTR $T9[ebp], 16	; 00000010H
  001ac	50		 push	 eax
  001ad	8d 45 e8	 lea	 eax, DWORD PTR $T5[ebp]
  001b0	50		 push	 eax
  001b1	ff 15 00 00 00
	00		 call	 DWORD PTR __imp_?Concatenate@?$CSimpleStringT@D$00@ATL@@KAXAAV12@PBDH1H@Z
  001b7	83 c4 14	 add	 esp, 20			; 00000014H
; File D:\git\src\IBK\IBK_DRFN\ProjSrc\SrcChartEx\ChartAddIn\ChartAnalysisToolAddIn\Include_Chart\ScaleBaseData.cpp

; 312  : 	scaleAllData += CDataConversion::IntToString((int)m_eUnitType) + ';';

  001ba	8d 45 e8	 lea	 eax, DWORD PTR $T5[ebp]
  001bd	8d 4d f0	 lea	 ecx, DWORD PTR _scaleAllData$[ebp]
  001c0	50		 push	 eax
  001c1	ff 15 00 00 00
	00		 call	 DWORD PTR __imp_??Y?$CStringT@DV?$StrTraitMFC_DLL@DV?$ChTraitsCRT@D@ATL@@@@@ATL@@QAEAAV01@ABV?$CSimpleStringT@D$00@1@@Z
  001c7	8d 4d e8	 lea	 ecx, DWORD PTR $T5[ebp]
  001ca	ff 15 00 00 00
	00		 call	 DWORD PTR __imp_??1?$CStringT@DV?$StrTraitMFC_DLL@DV?$ChTraitsCRT@D@ATL@@@@@ATL@@QAE@XZ
  001d0	8d 4d e4	 lea	 ecx, DWORD PTR $T2[ebp]
  001d3	ff 15 00 00 00
	00		 call	 DWORD PTR __imp_??1?$CStringT@DV?$StrTraitMFC_DLL@DV?$ChTraitsCRT@D@ATL@@@@@ATL@@QAE@XZ
; File C:\Program Files (x86)\Microsoft Visual Studio\2019\Community\VC\Tools\MSVC\14.29.30133\atlmfc\include\cstringt.h

; 2401 : 		CStringT strResult( str1.GetManager() );

  001d9	8d 4d f0	 lea	 ecx, DWORD PTR _scaleAllData$[ebp]
; File D:\git\src\IBK\IBK_DRFN\ProjSrc\SrcChartEx\ChartAddIn\ChartAnalysisToolAddIn\Include_Chart\ScaleBaseData.cpp

; 313  : 	return scaleAllData + "\r\n";

  001dc	c6 45 fc 08	 mov	 BYTE PTR __$EHRec$[ebp+8], 8
; File C:\Program Files (x86)\Microsoft Visual Studio\2019\Community\VC\Tools\MSVC\14.29.30133\atlmfc\include\cstringt.h

; 2401 : 		CStringT strResult( str1.GetManager() );

  001e0	ff 15 00 00 00
	00		 call	 DWORD PTR __imp_?GetManager@?$CStringT@DV?$StrTraitMFC_DLL@DV?$ChTraitsCRT@D@ATL@@@@@ATL@@QBEPAUIAtlStringMgr@2@XZ
  001e6	8b 75 08	 mov	 esi, DWORD PTR ___$ReturnUdt$[ebp]
  001e9	8b ce		 mov	 ecx, esi
  001eb	50		 push	 eax
  001ec	ff 15 00 00 00
	00		 call	 DWORD PTR __imp_??0?$CStringT@DV?$StrTraitMFC_DLL@DV?$ChTraitsCRT@D@ATL@@@@@ATL@@QAE@PAUIAtlStringMgr@1@@Z

; 2402 : 
; 2403 : 		CThisSimpleString::Concatenate( strResult, str1, str1.GetLength(), psz2, CThisSimpleString::StringLength( psz2 ) );

  001f2	8b 4d f0	 mov	 ecx, DWORD PTR _scaleAllData$[ebp]
  001f5	6a 02		 push	 2
  001f7	68 00 00 00 00	 push	 OFFSET ??_C@_02PCIJFNDE@?$AN?6@

; 2404 : 
; 2405 : 		return( strResult );

  001fc	c7 45 ec 20 00
	00 00		 mov	 DWORD PTR $T9[ebp], 32	; 00000020H
  00203	ff 71 f4	 push	 DWORD PTR [ecx-12]
  00206	51		 push	 ecx
  00207	56		 push	 esi
  00208	ff 15 00 00 00
	00		 call	 DWORD PTR __imp_?Concatenate@?$CSimpleStringT@D$00@ATL@@KAXAAV12@PBDH1H@Z
  0020e	83 c4 14	 add	 esp, 20			; 00000014H
; File D:\git\src\IBK\IBK_DRFN\ProjSrc\SrcChartEx\ChartAddIn\ChartAnalysisToolAddIn\Include_Chart\ScaleBaseData.cpp

; 313  : 	return scaleAllData + "\r\n";

  00211	8d 4d f0	 lea	 ecx, DWORD PTR _scaleAllData$[ebp]
  00214	ff 15 00 00 00
	00		 call	 DWORD PTR __imp_??1?$CStringT@DV?$StrTraitMFC_DLL@DV?$ChTraitsCRT@D@ATL@@@@@ATL@@QAE@XZ
  0021a	8b c6		 mov	 eax, esi

; 314  : }

  0021c	8b 4d f4	 mov	 ecx, DWORD PTR __$EHRec$[ebp]
  0021f	64 89 0d 00 00
	00 00		 mov	 DWORD PTR fs:0, ecx
  00226	59		 pop	 ecx
  00227	5f		 pop	 edi
  00228	5e		 pop	 esi
  00229	8b e5		 mov	 esp, ebp
  0022b	5d		 pop	 ebp
  0022c	c2 08 00	 ret	 8
_TEXT	ENDS
;	COMDAT text$x
text$x	SEGMENT
__unwindfunclet$?GetScaleAllData@CVerticalScale@@QBE?AV?$CStringT@DV?$StrTraitMFC_DLL@DV?$ChTraitsCRT@D@ATL@@@@@ATL@@ABV23@@Z$0:
  00000	8d 4d f0	 lea	 ecx, DWORD PTR _scaleAllData$[ebp]
  00003	ff 25 00 00 00
	00		 jmp	 DWORD PTR __imp_??1?$CStringT@DV?$StrTraitMFC_DLL@DV?$ChTraitsCRT@D@ATL@@@@@ATL@@QAE@XZ
__unwindfunclet$?GetScaleAllData@CVerticalScale@@QBE?AV?$CStringT@DV?$StrTraitMFC_DLL@DV?$ChTraitsCRT@D@ATL@@@@@ATL@@ABV23@@Z$9:
  00009	8b 45 ec	 mov	 eax, DWORD PTR $T9[ebp]
  0000c	83 e0 02	 and	 eax, 2
  0000f	0f 84 0d 00 00
	00		 je	 $LN16@GetScaleAl
  00015	83 65 ec fd	 and	 DWORD PTR $T9[ebp], -3	; fffffffdH
  00019	8d 4d e8	 lea	 ecx, DWORD PTR $T8[ebp]
  0001c	ff 25 00 00 00
	00		 jmp	 DWORD PTR __imp_??1?$CStringT@DV?$StrTraitMFC_DLL@DV?$ChTraitsCRT@D@ATL@@@@@ATL@@QAE@XZ
$LN16@GetScaleAl:
  00022	c3		 ret	 0
__unwindfunclet$?GetScaleAllData@CVerticalScale@@QBE?AV?$CStringT@DV?$StrTraitMFC_DLL@DV?$ChTraitsCRT@D@ATL@@@@@ATL@@ABV23@@Z$2:
  00023	8d 4d e4	 lea	 ecx, DWORD PTR $T4[ebp]
  00026	ff 25 00 00 00
	00		 jmp	 DWORD PTR __imp_??1?$CStringT@DV?$StrTraitMFC_DLL@DV?$ChTraitsCRT@D@ATL@@@@@ATL@@QAE@XZ
__unwindfunclet$?GetScaleAllData@CVerticalScale@@QBE?AV?$CStringT@DV?$StrTraitMFC_DLL@DV?$ChTraitsCRT@D@ATL@@@@@ATL@@ABV23@@Z$10:
  0002c	8b 45 ec	 mov	 eax, DWORD PTR $T9[ebp]
  0002f	83 e0 04	 and	 eax, 4
  00032	0f 84 0d 00 00
	00		 je	 $LN26@GetScaleAl
  00038	83 65 ec fb	 and	 DWORD PTR $T9[ebp], -5	; fffffffbH
  0003c	8d 4d e8	 lea	 ecx, DWORD PTR $T7[ebp]
  0003f	ff 25 00 00 00
	00		 jmp	 DWORD PTR __imp_??1?$CStringT@DV?$StrTraitMFC_DLL@DV?$ChTraitsCRT@D@ATL@@@@@ATL@@QAE@XZ
$LN26@GetScaleAl:
  00045	c3		 ret	 0
__unwindfunclet$?GetScaleAllData@CVerticalScale@@QBE?AV?$CStringT@DV?$StrTraitMFC_DLL@DV?$ChTraitsCRT@D@ATL@@@@@ATL@@ABV23@@Z$4:
  00046	8d 4d e4	 lea	 ecx, DWORD PTR $T3[ebp]
  00049	ff 25 00 00 00
	00		 jmp	 DWORD PTR __imp_??1?$CStringT@DV?$StrTraitMFC_DLL@DV?$ChTraitsCRT@D@ATL@@@@@ATL@@QAE@XZ
__unwindfunclet$?GetScaleAllData@CVerticalScale@@QBE?AV?$CStringT@DV?$StrTraitMFC_DLL@DV?$ChTraitsCRT@D@ATL@@@@@ATL@@ABV23@@Z$11:
  0004f	8b 45 ec	 mov	 eax, DWORD PTR $T9[ebp]
  00052	83 e0 08	 and	 eax, 8
  00055	0f 84 0d 00 00
	00		 je	 $LN36@GetScaleAl
  0005b	83 65 ec f7	 and	 DWORD PTR $T9[ebp], -9	; fffffff7H
  0005f	8d 4d e8	 lea	 ecx, DWORD PTR $T6[ebp]
  00062	ff 25 00 00 00
	00		 jmp	 DWORD PTR __imp_??1?$CStringT@DV?$StrTraitMFC_DLL@DV?$ChTraitsCRT@D@ATL@@@@@ATL@@QAE@XZ
$LN36@GetScaleAl:
  00068	c3		 ret	 0
__unwindfunclet$?GetScaleAllData@CVerticalScale@@QBE?AV?$CStringT@DV?$StrTraitMFC_DLL@DV?$ChTraitsCRT@D@ATL@@@@@ATL@@ABV23@@Z$6:
  00069	8d 4d e4	 lea	 ecx, DWORD PTR $T2[ebp]
  0006c	ff 25 00 00 00
	00		 jmp	 DWORD PTR __imp_??1?$CStringT@DV?$StrTraitMFC_DLL@DV?$ChTraitsCRT@D@ATL@@@@@ATL@@QAE@XZ
__unwindfunclet$?GetScaleAllData@CVerticalScale@@QBE?AV?$CStringT@DV?$StrTraitMFC_DLL@DV?$ChTraitsCRT@D@ATL@@@@@ATL@@ABV23@@Z$12:
  00072	8b 45 ec	 mov	 eax, DWORD PTR $T9[ebp]
  00075	83 e0 10	 and	 eax, 16			; 00000010H
  00078	0f 84 0d 00 00
	00		 je	 $LN46@GetScaleAl
  0007e	83 65 ec ef	 and	 DWORD PTR $T9[ebp], -17	; ffffffefH
  00082	8d 4d e8	 lea	 ecx, DWORD PTR $T5[ebp]
  00085	ff 25 00 00 00
	00		 jmp	 DWORD PTR __imp_??1?$CStringT@DV?$StrTraitMFC_DLL@DV?$ChTraitsCRT@D@ATL@@@@@ATL@@QAE@XZ
$LN46@GetScaleAl:
  0008b	c3		 ret	 0
__unwindfunclet$?GetScaleAllData@CVerticalScale@@QBE?AV?$CStringT@DV?$StrTraitMFC_DLL@DV?$ChTraitsCRT@D@ATL@@@@@ATL@@ABV23@@Z$13:
  0008c	8b 45 ec	 mov	 eax, DWORD PTR $T9[ebp]
  0008f	83 e0 20	 and	 eax, 32			; 00000020H
  00092	0f 84 0d 00 00
	00		 je	 $LN56@GetScaleAl
  00098	83 65 ec df	 and	 DWORD PTR $T9[ebp], -33	; ffffffdfH
  0009c	8b 4d 08	 mov	 ecx, DWORD PTR ___$ReturnUdt$[ebp]
  0009f	ff 25 00 00 00
	00		 jmp	 DWORD PTR __imp_??1?$CStringT@DV?$StrTraitMFC_DLL@DV?$ChTraitsCRT@D@ATL@@@@@ATL@@QAE@XZ
$LN56@GetScaleAl:
  000a5	c3		 ret	 0
  000a6	cc		 int	 3
  000a7	cc		 int	 3
  000a8	cc		 int	 3
  000a9	cc		 int	 3
  000aa	cc		 int	 3
__ehhandler$?GetScaleAllData@CVerticalScale@@QBE?AV?$CStringT@DV?$StrTraitMFC_DLL@DV?$ChTraitsCRT@D@ATL@@@@@ATL@@ABV23@@Z:
  000ab	90		 npad	 1
  000ac	90		 npad	 1
  000ad	8b 54 24 08	 mov	 edx, DWORD PTR [esp+8]
  000b1	8d 42 0c	 lea	 eax, DWORD PTR [edx+12]
  000b4	8b 4a e4	 mov	 ecx, DWORD PTR [edx-28]
  000b7	33 c8		 xor	 ecx, eax
  000b9	e8 00 00 00 00	 call	 @__security_check_cookie@4
  000be	b8 00 00 00 00	 mov	 eax, OFFSET __ehfuncinfo$?GetScaleAllData@CVerticalScale@@QBE?AV?$CStringT@DV?$StrTraitMFC_DLL@DV?$ChTraitsCRT@D@ATL@@@@@ATL@@ABV23@@Z
  000c3	e9 00 00 00 00	 jmp	 ___CxxFrameHandler3
text$x	ENDS
?GetScaleAllData@CVerticalScale@@QBE?AV?$CStringT@DV?$StrTraitMFC_DLL@DV?$ChTraitsCRT@D@ATL@@@@@ATL@@ABV23@@Z ENDP ; CVerticalScale::GetScaleAllData
; Function compile flags: /Ogtp
; File D:\git\src\IBK\IBK_DRFN\ProjSrc\SrcChartEx\ChartAddIn\ChartAnalysisToolAddIn\Include_Chart\ScaleBaseData.cpp
; File C:\Program Files (x86)\Microsoft Visual Studio\2019\Community\VC\Tools\MSVC\14.29.30133\atlmfc\include\cstringt.h
; File D:\git\src\IBK\IBK_DRFN\ProjSrc\SrcChartEx\ChartAddIn\ChartAnalysisToolAddIn\Include_Chart\ScaleBaseData.cpp
; File C:\Program Files (x86)\Microsoft Visual Studio\2019\Community\VC\Tools\MSVC\14.29.30133\atlmfc\include\cstringt.h
; File C:\Program Files (x86)\Microsoft Visual Studio\2019\Community\VC\Tools\MSVC\14.29.30133\atlmfc\include\atlsimpstr.h
; File C:\Program Files (x86)\Microsoft Visual Studio\2019\Community\VC\Tools\MSVC\14.29.30133\atlmfc\include\cstringt.h
; File D:\git\src\IBK\IBK_DRFN\ProjSrc\SrcChartEx\ChartAddIn\ChartAnalysisToolAddIn\Include_Chart\ScaleBaseData.cpp
; File C:\Program Files (x86)\Microsoft Visual Studio\2019\Community\VC\Tools\MSVC\14.29.30133\atlmfc\include\cstringt.h
; File D:\git\src\IBK\IBK_DRFN\ProjSrc\SrcChartEx\ChartAddIn\ChartAnalysisToolAddIn\Include_Chart\ScaleBaseData.cpp
; File C:\Program Files (x86)\Microsoft Visual Studio\2019\Community\VC\Tools\MSVC\14.29.30133\atlmfc\include\cstringt.h
; File C:\Program Files (x86)\Microsoft Visual Studio\2019\Community\VC\Tools\MSVC\14.29.30133\atlmfc\include\atlsimpstr.h
; File C:\Program Files (x86)\Microsoft Visual Studio\2019\Community\VC\Tools\MSVC\14.29.30133\atlmfc\include\cstringt.h
; File D:\git\src\IBK\IBK_DRFN\ProjSrc\SrcChartEx\ChartAddIn\ChartAnalysisToolAddIn\Include_Chart\ScaleBaseData.cpp
; File C:\Program Files (x86)\Microsoft Visual Studio\2019\Community\VC\Tools\MSVC\14.29.30133\atlmfc\include\cstringt.h
; File D:\git\src\IBK\IBK_DRFN\ProjSrc\SrcChartEx\ChartAddIn\ChartAnalysisToolAddIn\Include_Chart\ScaleBaseData.cpp
; File C:\Program Files (x86)\Microsoft Visual Studio\2019\Community\VC\Tools\MSVC\14.29.30133\atlmfc\include\cstringt.h
; File C:\Program Files (x86)\Microsoft Visual Studio\2019\Community\VC\Tools\MSVC\14.29.30133\atlmfc\include\atlsimpstr.h
; File C:\Program Files (x86)\Microsoft Visual Studio\2019\Community\VC\Tools\MSVC\14.29.30133\atlmfc\include\cstringt.h
; File D:\git\src\IBK\IBK_DRFN\ProjSrc\SrcChartEx\ChartAddIn\ChartAnalysisToolAddIn\Include_Chart\ScaleBaseData.cpp
; File C:\Program Files (x86)\Microsoft Visual Studio\2019\Community\VC\Tools\MSVC\14.29.30133\atlmfc\include\cstringt.h
; File D:\git\src\IBK\IBK_DRFN\ProjSrc\SrcChartEx\ChartAddIn\ChartAnalysisToolAddIn\Include_Chart\ScaleBaseData.cpp
; File C:\Program Files (x86)\Microsoft Visual Studio\2019\Community\VC\Tools\MSVC\14.29.30133\atlmfc\include\cstringt.h
; File C:\Program Files (x86)\Microsoft Visual Studio\2019\Community\VC\Tools\MSVC\14.29.30133\atlmfc\include\atlsimpstr.h
; File C:\Program Files (x86)\Microsoft Visual Studio\2019\Community\VC\Tools\MSVC\14.29.30133\atlmfc\include\cstringt.h
; File D:\git\src\IBK\IBK_DRFN\ProjSrc\SrcChartEx\ChartAddIn\ChartAnalysisToolAddIn\Include_Chart\ScaleBaseData.cpp
; File C:\Program Files (x86)\Microsoft Visual Studio\2019\Community\VC\Tools\MSVC\14.29.30133\atlmfc\include\cstringt.h
; File D:\git\src\IBK\IBK_DRFN\ProjSrc\SrcChartEx\ChartAddIn\ChartAnalysisToolAddIn\Include_Chart\ScaleBaseData.cpp
; File C:\Program Files (x86)\Microsoft Visual Studio\2019\Community\VC\Tools\MSVC\14.29.30133\atlmfc\include\cstringt.h
; File D:\git\src\IBK\IBK_DRFN\ProjSrc\SrcChartEx\ChartAddIn\ChartAnalysisToolAddIn\Include_Chart\ScaleBaseData.cpp
;	COMDAT ?GetScaleAllData@CVerticalScale@@QBE?AV?$CStringT@DV?$StrTraitMFC_DLL@DV?$ChTraitsCRT@D@ATL@@@@@ATL@@XZ
_TEXT	SEGMENT
$T2 = -32						; size = 4
$T3 = -32						; size = 4
$T4 = -32						; size = 4
$T5 = -32						; size = 4
$T6 = -28						; size = 4
$T7 = -28						; size = 4
$T8 = -28						; size = 4
$T9 = -28						; size = 4
$T10 = -24						; size = 4
_scaleAllData$ = -20					; size = 4
_chTemp$11 = -13					; size = 1
_chTemp$12 = -13					; size = 1
_chTemp$13 = -13					; size = 1
_chTemp$14 = -13					; size = 1
__$EHRec$ = -12						; size = 12
___$ReturnUdt$ = 8					; size = 4
?GetScaleAllData@CVerticalScale@@QBE?AV?$CStringT@DV?$StrTraitMFC_DLL@DV?$ChTraitsCRT@D@ATL@@@@@ATL@@XZ PROC ; CVerticalScale::GetScaleAllData, COMDAT
; _this$ = ecx

; 296  : {

  00000	55		 push	 ebp
  00001	8b ec		 mov	 ebp, esp
  00003	6a ff		 push	 -1
  00005	68 00 00 00 00	 push	 __ehhandler$?GetScaleAllData@CVerticalScale@@QBE?AV?$CStringT@DV?$StrTraitMFC_DLL@DV?$ChTraitsCRT@D@ATL@@@@@ATL@@XZ
  0000a	64 a1 00 00 00
	00		 mov	 eax, DWORD PTR fs:0
  00010	50		 push	 eax
  00011	83 ec 14	 sub	 esp, 20			; 00000014H
  00014	56		 push	 esi
  00015	57		 push	 edi
  00016	a1 00 00 00 00	 mov	 eax, DWORD PTR ___security_cookie
  0001b	33 c5		 xor	 eax, ebp
  0001d	50		 push	 eax
  0001e	8d 45 f4	 lea	 eax, DWORD PTR __$EHRec$[ebp]
  00021	64 a3 00 00 00
	00		 mov	 DWORD PTR fs:0, eax
  00027	8b f9		 mov	 edi, ecx

; 297  : 	//  Data;;grid;  ;
; 298  : 	CString scaleAllData;

  00029	8d 4d ec	 lea	 ecx, DWORD PTR _scaleAllData$[ebp]
  0002c	c7 45 e8 00 00
	00 00		 mov	 DWORD PTR $T10[ebp], 0
  00033	ff 15 00 00 00
	00		 call	 DWORD PTR __imp_??0?$CStringT@DV?$StrTraitMFC_DLL@DV?$ChTraitsCRT@D@ATL@@@@@ATL@@QAE@XZ

; 125  : 	return m_strScaleData;

  00039	8d 47 04	 lea	 eax, DWORD PTR [edi+4]

; 297  : 	//  Data;;grid;  ;
; 298  : 	CString scaleAllData;

  0003c	c7 45 fc 00 00
	00 00		 mov	 DWORD PTR __$EHRec$[ebp+8], 0

; 125  : 	return m_strScaleData;

  00043	50		 push	 eax
  00044	8d 4d e0	 lea	 ecx, DWORD PTR $T5[ebp]
  00047	ff 15 00 00 00
	00		 call	 DWORD PTR __imp_??0?$CStringT@DV?$StrTraitMFC_DLL@DV?$ChTraitsCRT@D@ATL@@@@@ATL@@QAE@ABV01@@Z
; File C:\Program Files (x86)\Microsoft Visual Studio\2019\Community\VC\Tools\MSVC\14.29.30133\atlmfc\include\cstringt.h

; 2429 : 		CStringT strResult( str1.GetManager() );

  0004d	8d 4d e0	 lea	 ecx, DWORD PTR $T5[ebp]
; File D:\git\src\IBK\IBK_DRFN\ProjSrc\SrcChartEx\ChartAddIn\ChartAnalysisToolAddIn\Include_Chart\ScaleBaseData.cpp

; 299  : 	scaleAllData += CScale::GetScaleData() + ';';

  00050	c6 45 fc 02	 mov	 BYTE PTR __$EHRec$[ebp+8], 2
; File C:\Program Files (x86)\Microsoft Visual Studio\2019\Community\VC\Tools\MSVC\14.29.30133\atlmfc\include\cstringt.h

; 2429 : 		CStringT strResult( str1.GetManager() );

  00054	ff 15 00 00 00
	00		 call	 DWORD PTR __imp_?GetManager@?$CStringT@DV?$StrTraitMFC_DLL@DV?$ChTraitsCRT@D@ATL@@@@@ATL@@QBEPAUIAtlStringMgr@2@XZ
  0005a	50		 push	 eax
  0005b	8d 4d e4	 lea	 ecx, DWORD PTR $T9[ebp]
  0005e	ff 15 00 00 00
	00		 call	 DWORD PTR __imp_??0?$CStringT@DV?$StrTraitMFC_DLL@DV?$ChTraitsCRT@D@ATL@@@@@ATL@@QAE@PAUIAtlStringMgr@1@@Z
; File C:\Program Files (x86)\Microsoft Visual Studio\2019\Community\VC\Tools\MSVC\14.29.30133\atlmfc\include\atlsimpstr.h

; 519  : 		return( GetData()->nDataLength );

  00064	8b 45 e0	 mov	 eax, DWORD PTR $T5[ebp]
; File C:\Program Files (x86)\Microsoft Visual Studio\2019\Community\VC\Tools\MSVC\14.29.30133\atlmfc\include\cstringt.h

; 2432 : 		CThisSimpleString::Concatenate( strResult, str1, str1.GetLength(), &chTemp, 1 );

  00067	8d 4d f3	 lea	 ecx, DWORD PTR _chTemp$14[ebp]
  0006a	6a 01		 push	 1
  0006c	51		 push	 ecx
  0006d	c6 45 f3 3b	 mov	 BYTE PTR _chTemp$14[ebp], 59 ; 0000003bH
  00071	ff 70 f4	 push	 DWORD PTR [eax-12]

; 2433 : 
; 2434 : 		return( strResult );

  00074	c7 45 e8 06 00
	00 00		 mov	 DWORD PTR $T10[ebp], 6
  0007b	50		 push	 eax
  0007c	8d 45 e4	 lea	 eax, DWORD PTR $T9[ebp]
  0007f	50		 push	 eax
  00080	ff 15 00 00 00
	00		 call	 DWORD PTR __imp_?Concatenate@?$CSimpleStringT@D$00@ATL@@KAXAAV12@PBDH1H@Z
  00086	83 c4 14	 add	 esp, 20			; 00000014H
; File D:\git\src\IBK\IBK_DRFN\ProjSrc\SrcChartEx\ChartAddIn\ChartAnalysisToolAddIn\Include_Chart\ScaleBaseData.cpp

; 299  : 	scaleAllData += CScale::GetScaleData() + ';';

  00089	8d 45 e4	 lea	 eax, DWORD PTR $T9[ebp]
  0008c	8d 4d ec	 lea	 ecx, DWORD PTR _scaleAllData$[ebp]
  0008f	50		 push	 eax
  00090	ff 15 00 00 00
	00		 call	 DWORD PTR __imp_??Y?$CStringT@DV?$StrTraitMFC_DLL@DV?$ChTraitsCRT@D@ATL@@@@@ATL@@QAEAAV01@ABV?$CSimpleStringT@D$00@1@@Z
  00096	8d 4d e4	 lea	 ecx, DWORD PTR $T9[ebp]
  00099	ff 15 00 00 00
	00		 call	 DWORD PTR __imp_??1?$CStringT@DV?$StrTraitMFC_DLL@DV?$ChTraitsCRT@D@ATL@@@@@ATL@@QAE@XZ
  0009f	8d 4d e0	 lea	 ecx, DWORD PTR $T5[ebp]
  000a2	c6 45 fc 00	 mov	 BYTE PTR __$EHRec$[ebp+8], 0
  000a6	ff 15 00 00 00
	00		 call	 DWORD PTR __imp_??1?$CStringT@DV?$StrTraitMFC_DLL@DV?$ChTraitsCRT@D@ATL@@@@@ATL@@QAE@XZ

; 300  : 	scaleAllData += CDataConversion::IntToString((int)m_ePosition) + ';';

  000ac	ff 77 0c	 push	 DWORD PTR [edi+12]
  000af	8d 45 e4	 lea	 eax, DWORD PTR $T8[ebp]
  000b2	50		 push	 eax
  000b3	e8 00 00 00 00	 call	 ?IntToString@CDataConversion@@SA?AV?$CStringT@DV?$StrTraitMFC_DLL@DV?$ChTraitsCRT@D@ATL@@@@@ATL@@H@Z ; CDataConversion::IntToString
  000b8	83 c4 08	 add	 esp, 8
  000bb	8b f0		 mov	 esi, eax
; File C:\Program Files (x86)\Microsoft Visual Studio\2019\Community\VC\Tools\MSVC\14.29.30133\atlmfc\include\cstringt.h

; 2429 : 		CStringT strResult( str1.GetManager() );

  000bd	8b ce		 mov	 ecx, esi
; File D:\git\src\IBK\IBK_DRFN\ProjSrc\SrcChartEx\ChartAddIn\ChartAnalysisToolAddIn\Include_Chart\ScaleBaseData.cpp

; 300  : 	scaleAllData += CDataConversion::IntToString((int)m_ePosition) + ';';

  000bf	c6 45 fc 04	 mov	 BYTE PTR __$EHRec$[ebp+8], 4
; File C:\Program Files (x86)\Microsoft Visual Studio\2019\Community\VC\Tools\MSVC\14.29.30133\atlmfc\include\cstringt.h

; 2429 : 		CStringT strResult( str1.GetManager() );

  000c3	ff 15 00 00 00
	00		 call	 DWORD PTR __imp_?GetManager@?$CStringT@DV?$StrTraitMFC_DLL@DV?$ChTraitsCRT@D@ATL@@@@@ATL@@QBEPAUIAtlStringMgr@2@XZ
  000c9	50		 push	 eax
  000ca	8d 4d e0	 lea	 ecx, DWORD PTR $T4[ebp]
  000cd	ff 15 00 00 00
	00		 call	 DWORD PTR __imp_??0?$CStringT@DV?$StrTraitMFC_DLL@DV?$ChTraitsCRT@D@ATL@@@@@ATL@@QAE@PAUIAtlStringMgr@1@@Z
; File C:\Program Files (x86)\Microsoft Visual Studio\2019\Community\VC\Tools\MSVC\14.29.30133\atlmfc\include\atlsimpstr.h

; 519  : 		return( GetData()->nDataLength );

  000d3	8b 06		 mov	 eax, DWORD PTR [esi]
; File C:\Program Files (x86)\Microsoft Visual Studio\2019\Community\VC\Tools\MSVC\14.29.30133\atlmfc\include\cstringt.h

; 2432 : 		CThisSimpleString::Concatenate( strResult, str1, str1.GetLength(), &chTemp, 1 );

  000d5	8d 4d f3	 lea	 ecx, DWORD PTR _chTemp$13[ebp]
  000d8	6a 01		 push	 1
  000da	51		 push	 ecx
  000db	c6 45 f3 3b	 mov	 BYTE PTR _chTemp$13[ebp], 59 ; 0000003bH
  000df	ff 70 f4	 push	 DWORD PTR [eax-12]

; 2433 : 
; 2434 : 		return( strResult );

  000e2	c7 45 e8 0a 00
	00 00		 mov	 DWORD PTR $T10[ebp], 10	; 0000000aH
  000e9	50		 push	 eax
  000ea	8d 45 e0	 lea	 eax, DWORD PTR $T4[ebp]
  000ed	50		 push	 eax
  000ee	ff 15 00 00 00
	00		 call	 DWORD PTR __imp_?Concatenate@?$CSimpleStringT@D$00@ATL@@KAXAAV12@PBDH1H@Z
  000f4	83 c4 14	 add	 esp, 20			; 00000014H
; File D:\git\src\IBK\IBK_DRFN\ProjSrc\SrcChartEx\ChartAddIn\ChartAnalysisToolAddIn\Include_Chart\ScaleBaseData.cpp

; 300  : 	scaleAllData += CDataConversion::IntToString((int)m_ePosition) + ';';

  000f7	8d 45 e0	 lea	 eax, DWORD PTR $T4[ebp]
  000fa	8d 4d ec	 lea	 ecx, DWORD PTR _scaleAllData$[ebp]
  000fd	50		 push	 eax
  000fe	ff 15 00 00 00
	00		 call	 DWORD PTR __imp_??Y?$CStringT@DV?$StrTraitMFC_DLL@DV?$ChTraitsCRT@D@ATL@@@@@ATL@@QAEAAV01@ABV?$CSimpleStringT@D$00@1@@Z
  00104	8d 4d e0	 lea	 ecx, DWORD PTR $T4[ebp]
  00107	ff 15 00 00 00
	00		 call	 DWORD PTR __imp_??1?$CStringT@DV?$StrTraitMFC_DLL@DV?$ChTraitsCRT@D@ATL@@@@@ATL@@QAE@XZ
  0010d	8d 4d e4	 lea	 ecx, DWORD PTR $T8[ebp]
  00110	c6 45 fc 00	 mov	 BYTE PTR __$EHRec$[ebp+8], 0
  00114	ff 15 00 00 00
	00		 call	 DWORD PTR __imp_??1?$CStringT@DV?$StrTraitMFC_DLL@DV?$ChTraitsCRT@D@ATL@@@@@ATL@@QAE@XZ

; 301  : 	scaleAllData += CDataConversion::IntToString((int)CScale::GetGridType()) + ';';

  0011a	ff 77 08	 push	 DWORD PTR [edi+8]
  0011d	8d 45 e4	 lea	 eax, DWORD PTR $T7[ebp]
  00120	50		 push	 eax
  00121	e8 00 00 00 00	 call	 ?IntToString@CDataConversion@@SA?AV?$CStringT@DV?$StrTraitMFC_DLL@DV?$ChTraitsCRT@D@ATL@@@@@ATL@@H@Z ; CDataConversion::IntToString
  00126	83 c4 08	 add	 esp, 8
  00129	8b f0		 mov	 esi, eax
; File C:\Program Files (x86)\Microsoft Visual Studio\2019\Community\VC\Tools\MSVC\14.29.30133\atlmfc\include\cstringt.h

; 2429 : 		CStringT strResult( str1.GetManager() );

  0012b	8b ce		 mov	 ecx, esi
; File D:\git\src\IBK\IBK_DRFN\ProjSrc\SrcChartEx\ChartAddIn\ChartAnalysisToolAddIn\Include_Chart\ScaleBaseData.cpp

; 301  : 	scaleAllData += CDataConversion::IntToString((int)CScale::GetGridType()) + ';';

  0012d	c6 45 fc 06	 mov	 BYTE PTR __$EHRec$[ebp+8], 6
; File C:\Program Files (x86)\Microsoft Visual Studio\2019\Community\VC\Tools\MSVC\14.29.30133\atlmfc\include\cstringt.h

; 2429 : 		CStringT strResult( str1.GetManager() );

  00131	ff 15 00 00 00
	00		 call	 DWORD PTR __imp_?GetManager@?$CStringT@DV?$StrTraitMFC_DLL@DV?$ChTraitsCRT@D@ATL@@@@@ATL@@QBEPAUIAtlStringMgr@2@XZ
  00137	50		 push	 eax
  00138	8d 4d e0	 lea	 ecx, DWORD PTR $T3[ebp]
  0013b	ff 15 00 00 00
	00		 call	 DWORD PTR __imp_??0?$CStringT@DV?$StrTraitMFC_DLL@DV?$ChTraitsCRT@D@ATL@@@@@ATL@@QAE@PAUIAtlStringMgr@1@@Z
; File C:\Program Files (x86)\Microsoft Visual Studio\2019\Community\VC\Tools\MSVC\14.29.30133\atlmfc\include\atlsimpstr.h

; 519  : 		return( GetData()->nDataLength );

  00141	8b 06		 mov	 eax, DWORD PTR [esi]
; File C:\Program Files (x86)\Microsoft Visual Studio\2019\Community\VC\Tools\MSVC\14.29.30133\atlmfc\include\cstringt.h

; 2432 : 		CThisSimpleString::Concatenate( strResult, str1, str1.GetLength(), &chTemp, 1 );

  00143	8d 4d f3	 lea	 ecx, DWORD PTR _chTemp$12[ebp]
  00146	6a 01		 push	 1
  00148	51		 push	 ecx
  00149	c6 45 f3 3b	 mov	 BYTE PTR _chTemp$12[ebp], 59 ; 0000003bH
  0014d	ff 70 f4	 push	 DWORD PTR [eax-12]

; 2433 : 
; 2434 : 		return( strResult );

  00150	c7 45 e8 12 00
	00 00		 mov	 DWORD PTR $T10[ebp], 18	; 00000012H
  00157	50		 push	 eax
  00158	8d 45 e0	 lea	 eax, DWORD PTR $T3[ebp]
  0015b	50		 push	 eax
  0015c	ff 15 00 00 00
	00		 call	 DWORD PTR __imp_?Concatenate@?$CSimpleStringT@D$00@ATL@@KAXAAV12@PBDH1H@Z
  00162	83 c4 14	 add	 esp, 20			; 00000014H
; File D:\git\src\IBK\IBK_DRFN\ProjSrc\SrcChartEx\ChartAddIn\ChartAnalysisToolAddIn\Include_Chart\ScaleBaseData.cpp

; 301  : 	scaleAllData += CDataConversion::IntToString((int)CScale::GetGridType()) + ';';

  00165	8d 45 e0	 lea	 eax, DWORD PTR $T3[ebp]
  00168	8d 4d ec	 lea	 ecx, DWORD PTR _scaleAllData$[ebp]
  0016b	50		 push	 eax
  0016c	ff 15 00 00 00
	00		 call	 DWORD PTR __imp_??Y?$CStringT@DV?$StrTraitMFC_DLL@DV?$ChTraitsCRT@D@ATL@@@@@ATL@@QAEAAV01@ABV?$CSimpleStringT@D$00@1@@Z
  00172	8d 4d e0	 lea	 ecx, DWORD PTR $T3[ebp]
  00175	ff 15 00 00 00
	00		 call	 DWORD PTR __imp_??1?$CStringT@DV?$StrTraitMFC_DLL@DV?$ChTraitsCRT@D@ATL@@@@@ATL@@QAE@XZ
  0017b	8d 4d e4	 lea	 ecx, DWORD PTR $T7[ebp]
  0017e	c6 45 fc 00	 mov	 BYTE PTR __$EHRec$[ebp+8], 0
  00182	ff 15 00 00 00
	00		 call	 DWORD PTR __imp_??1?$CStringT@DV?$StrTraitMFC_DLL@DV?$ChTraitsCRT@D@ATL@@@@@ATL@@QAE@XZ

; 302  : 	scaleAllData += CDataConversion::IntToString((int)m_eUnitType) + ';';

  00188	ff 77 10	 push	 DWORD PTR [edi+16]
  0018b	8d 45 e4	 lea	 eax, DWORD PTR $T6[ebp]
  0018e	50		 push	 eax
  0018f	e8 00 00 00 00	 call	 ?IntToString@CDataConversion@@SA?AV?$CStringT@DV?$StrTraitMFC_DLL@DV?$ChTraitsCRT@D@ATL@@@@@ATL@@H@Z ; CDataConversion::IntToString
  00194	83 c4 08	 add	 esp, 8
  00197	8b f0		 mov	 esi, eax
; File C:\Program Files (x86)\Microsoft Visual Studio\2019\Community\VC\Tools\MSVC\14.29.30133\atlmfc\include\cstringt.h

; 2429 : 		CStringT strResult( str1.GetManager() );

  00199	8b ce		 mov	 ecx, esi
; File D:\git\src\IBK\IBK_DRFN\ProjSrc\SrcChartEx\ChartAddIn\ChartAnalysisToolAddIn\Include_Chart\ScaleBaseData.cpp

; 302  : 	scaleAllData += CDataConversion::IntToString((int)m_eUnitType) + ';';

  0019b	c6 45 fc 08	 mov	 BYTE PTR __$EHRec$[ebp+8], 8
; File C:\Program Files (x86)\Microsoft Visual Studio\2019\Community\VC\Tools\MSVC\14.29.30133\atlmfc\include\cstringt.h

; 2429 : 		CStringT strResult( str1.GetManager() );

  0019f	ff 15 00 00 00
	00		 call	 DWORD PTR __imp_?GetManager@?$CStringT@DV?$StrTraitMFC_DLL@DV?$ChTraitsCRT@D@ATL@@@@@ATL@@QBEPAUIAtlStringMgr@2@XZ
  001a5	50		 push	 eax
  001a6	8d 4d e0	 lea	 ecx, DWORD PTR $T2[ebp]
  001a9	ff 15 00 00 00
	00		 call	 DWORD PTR __imp_??0?$CStringT@DV?$StrTraitMFC_DLL@DV?$ChTraitsCRT@D@ATL@@@@@ATL@@QAE@PAUIAtlStringMgr@1@@Z
; File C:\Program Files (x86)\Microsoft Visual Studio\2019\Community\VC\Tools\MSVC\14.29.30133\atlmfc\include\atlsimpstr.h

; 519  : 		return( GetData()->nDataLength );

  001af	8b 06		 mov	 eax, DWORD PTR [esi]
; File C:\Program Files (x86)\Microsoft Visual Studio\2019\Community\VC\Tools\MSVC\14.29.30133\atlmfc\include\cstringt.h

; 2432 : 		CThisSimpleString::Concatenate( strResult, str1, str1.GetLength(), &chTemp, 1 );

  001b1	8d 4d f3	 lea	 ecx, DWORD PTR _chTemp$11[ebp]
  001b4	6a 01		 push	 1
  001b6	51		 push	 ecx
  001b7	c6 45 f3 3b	 mov	 BYTE PTR _chTemp$11[ebp], 59 ; 0000003bH
  001bb	ff 70 f4	 push	 DWORD PTR [eax-12]

; 2433 : 
; 2434 : 		return( strResult );

  001be	c7 45 e8 22 00
	00 00		 mov	 DWORD PTR $T10[ebp], 34	; 00000022H
  001c5	50		 push	 eax
  001c6	8d 45 e0	 lea	 eax, DWORD PTR $T2[ebp]
  001c9	50		 push	 eax
  001ca	ff 15 00 00 00
	00		 call	 DWORD PTR __imp_?Concatenate@?$CSimpleStringT@D$00@ATL@@KAXAAV12@PBDH1H@Z
  001d0	83 c4 14	 add	 esp, 20			; 00000014H
; File D:\git\src\IBK\IBK_DRFN\ProjSrc\SrcChartEx\ChartAddIn\ChartAnalysisToolAddIn\Include_Chart\ScaleBaseData.cpp

; 302  : 	scaleAllData += CDataConversion::IntToString((int)m_eUnitType) + ';';

  001d3	8d 45 e0	 lea	 eax, DWORD PTR $T2[ebp]
  001d6	8d 4d ec	 lea	 ecx, DWORD PTR _scaleAllData$[ebp]
  001d9	50		 push	 eax
  001da	ff 15 00 00 00
	00		 call	 DWORD PTR __imp_??Y?$CStringT@DV?$StrTraitMFC_DLL@DV?$ChTraitsCRT@D@ATL@@@@@ATL@@QAEAAV01@ABV?$CSimpleStringT@D$00@1@@Z
  001e0	8d 4d e0	 lea	 ecx, DWORD PTR $T2[ebp]
  001e3	ff 15 00 00 00
	00		 call	 DWORD PTR __imp_??1?$CStringT@DV?$StrTraitMFC_DLL@DV?$ChTraitsCRT@D@ATL@@@@@ATL@@QAE@XZ
  001e9	8d 4d e4	 lea	 ecx, DWORD PTR $T6[ebp]
  001ec	ff 15 00 00 00
	00		 call	 DWORD PTR __imp_??1?$CStringT@DV?$StrTraitMFC_DLL@DV?$ChTraitsCRT@D@ATL@@@@@ATL@@QAE@XZ
; File C:\Program Files (x86)\Microsoft Visual Studio\2019\Community\VC\Tools\MSVC\14.29.30133\atlmfc\include\cstringt.h

; 2401 : 		CStringT strResult( str1.GetManager() );

  001f2	8d 4d ec	 lea	 ecx, DWORD PTR _scaleAllData$[ebp]
; File D:\git\src\IBK\IBK_DRFN\ProjSrc\SrcChartEx\ChartAddIn\ChartAnalysisToolAddIn\Include_Chart\ScaleBaseData.cpp

; 303  : 	return scaleAllData + "\r\n";

  001f5	c6 45 fc 09	 mov	 BYTE PTR __$EHRec$[ebp+8], 9
; File C:\Program Files (x86)\Microsoft Visual Studio\2019\Community\VC\Tools\MSVC\14.29.30133\atlmfc\include\cstringt.h

; 2401 : 		CStringT strResult( str1.GetManager() );

  001f9	ff 15 00 00 00
	00		 call	 DWORD PTR __imp_?GetManager@?$CStringT@DV?$StrTraitMFC_DLL@DV?$ChTraitsCRT@D@ATL@@@@@ATL@@QBEPAUIAtlStringMgr@2@XZ
  001ff	8b 75 08	 mov	 esi, DWORD PTR ___$ReturnUdt$[ebp]
  00202	8b ce		 mov	 ecx, esi
  00204	50		 push	 eax
  00205	ff 15 00 00 00
	00		 call	 DWORD PTR __imp_??0?$CStringT@DV?$StrTraitMFC_DLL@DV?$ChTraitsCRT@D@ATL@@@@@ATL@@QAE@PAUIAtlStringMgr@1@@Z

; 2402 : 
; 2403 : 		CThisSimpleString::Concatenate( strResult, str1, str1.GetLength(), psz2, CThisSimpleString::StringLength( psz2 ) );

  0020b	8b 4d ec	 mov	 ecx, DWORD PTR _scaleAllData$[ebp]
  0020e	6a 02		 push	 2
  00210	68 00 00 00 00	 push	 OFFSET ??_C@_02PCIJFNDE@?$AN?6@

; 2404 : 
; 2405 : 		return( strResult );

  00215	c7 45 e8 42 00
	00 00		 mov	 DWORD PTR $T10[ebp], 66	; 00000042H
  0021c	ff 71 f4	 push	 DWORD PTR [ecx-12]
  0021f	51		 push	 ecx
  00220	56		 push	 esi
  00221	ff 15 00 00 00
	00		 call	 DWORD PTR __imp_?Concatenate@?$CSimpleStringT@D$00@ATL@@KAXAAV12@PBDH1H@Z
  00227	83 c4 14	 add	 esp, 20			; 00000014H
; File D:\git\src\IBK\IBK_DRFN\ProjSrc\SrcChartEx\ChartAddIn\ChartAnalysisToolAddIn\Include_Chart\ScaleBaseData.cpp

; 303  : 	return scaleAllData + "\r\n";

  0022a	8d 4d ec	 lea	 ecx, DWORD PTR _scaleAllData$[ebp]
  0022d	ff 15 00 00 00
	00		 call	 DWORD PTR __imp_??1?$CStringT@DV?$StrTraitMFC_DLL@DV?$ChTraitsCRT@D@ATL@@@@@ATL@@QAE@XZ
  00233	8b c6		 mov	 eax, esi

; 304  : }

  00235	8b 4d f4	 mov	 ecx, DWORD PTR __$EHRec$[ebp]
  00238	64 89 0d 00 00
	00 00		 mov	 DWORD PTR fs:0, ecx
  0023f	59		 pop	 ecx
  00240	5f		 pop	 edi
  00241	5e		 pop	 esi
  00242	8b e5		 mov	 esp, ebp
  00244	5d		 pop	 ebp
  00245	c2 04 00	 ret	 4
_TEXT	ENDS
;	COMDAT text$x
text$x	SEGMENT
__unwindfunclet$?GetScaleAllData@CVerticalScale@@QBE?AV?$CStringT@DV?$StrTraitMFC_DLL@DV?$ChTraitsCRT@D@ATL@@@@@ATL@@XZ$0:
  00000	8d 4d ec	 lea	 ecx, DWORD PTR _scaleAllData$[ebp]
  00003	ff 25 00 00 00
	00		 jmp	 DWORD PTR __imp_??1?$CStringT@DV?$StrTraitMFC_DLL@DV?$ChTraitsCRT@D@ATL@@@@@ATL@@QAE@XZ
__unwindfunclet$?GetScaleAllData@CVerticalScale@@QBE?AV?$CStringT@DV?$StrTraitMFC_DLL@DV?$ChTraitsCRT@D@ATL@@@@@ATL@@XZ$1:
  00009	8d 4d e0	 lea	 ecx, DWORD PTR $T5[ebp]
  0000c	ff 25 00 00 00
	00		 jmp	 DWORD PTR __imp_??1?$CStringT@DV?$StrTraitMFC_DLL@DV?$ChTraitsCRT@D@ATL@@@@@ATL@@QAE@XZ
__unwindfunclet$?GetScaleAllData@CVerticalScale@@QBE?AV?$CStringT@DV?$StrTraitMFC_DLL@DV?$ChTraitsCRT@D@ATL@@@@@ATL@@XZ$11:
  00012	8b 45 e8	 mov	 eax, DWORD PTR $T10[ebp]
  00015	83 e0 04	 and	 eax, 4
  00018	0f 84 0d 00 00
	00		 je	 $LN21@GetScaleAl
  0001e	83 65 e8 fb	 and	 DWORD PTR $T10[ebp], -5	; fffffffbH
  00022	8d 4d e4	 lea	 ecx, DWORD PTR $T9[ebp]
  00025	ff 25 00 00 00
	00		 jmp	 DWORD PTR __imp_??1?$CStringT@DV?$StrTraitMFC_DLL@DV?$ChTraitsCRT@D@ATL@@@@@ATL@@QAE@XZ
$LN21@GetScaleAl:
  0002b	c3		 ret	 0
__unwindfunclet$?GetScaleAllData@CVerticalScale@@QBE?AV?$CStringT@DV?$StrTraitMFC_DLL@DV?$ChTraitsCRT@D@ATL@@@@@ATL@@XZ$3:
  0002c	8d 4d e4	 lea	 ecx, DWORD PTR $T8[ebp]
  0002f	ff 25 00 00 00
	00		 jmp	 DWORD PTR __imp_??1?$CStringT@DV?$StrTraitMFC_DLL@DV?$ChTraitsCRT@D@ATL@@@@@ATL@@QAE@XZ
__unwindfunclet$?GetScaleAllData@CVerticalScale@@QBE?AV?$CStringT@DV?$StrTraitMFC_DLL@DV?$ChTraitsCRT@D@ATL@@@@@ATL@@XZ$12:
  00035	8b 45 e8	 mov	 eax, DWORD PTR $T10[ebp]
  00038	83 e0 08	 and	 eax, 8
  0003b	0f 84 0d 00 00
	00		 je	 $LN31@GetScaleAl
  00041	83 65 e8 f7	 and	 DWORD PTR $T10[ebp], -9	; fffffff7H
  00045	8d 4d e0	 lea	 ecx, DWORD PTR $T4[ebp]
  00048	ff 25 00 00 00
	00		 jmp	 DWORD PTR __imp_??1?$CStringT@DV?$StrTraitMFC_DLL@DV?$ChTraitsCRT@D@ATL@@@@@ATL@@QAE@XZ
$LN31@GetScaleAl:
  0004e	c3		 ret	 0
__unwindfunclet$?GetScaleAllData@CVerticalScale@@QBE?AV?$CStringT@DV?$StrTraitMFC_DLL@DV?$ChTraitsCRT@D@ATL@@@@@ATL@@XZ$5:
  0004f	8d 4d e4	 lea	 ecx, DWORD PTR $T7[ebp]
  00052	ff 25 00 00 00
	00		 jmp	 DWORD PTR __imp_??1?$CStringT@DV?$StrTraitMFC_DLL@DV?$ChTraitsCRT@D@ATL@@@@@ATL@@QAE@XZ
__unwindfunclet$?GetScaleAllData@CVerticalScale@@QBE?AV?$CStringT@DV?$StrTraitMFC_DLL@DV?$ChTraitsCRT@D@ATL@@@@@ATL@@XZ$13:
  00058	8b 45 e8	 mov	 eax, DWORD PTR $T10[ebp]
  0005b	83 e0 10	 and	 eax, 16			; 00000010H
  0005e	0f 84 0d 00 00
	00		 je	 $LN41@GetScaleAl
  00064	83 65 e8 ef	 and	 DWORD PTR $T10[ebp], -17 ; ffffffefH
  00068	8d 4d e0	 lea	 ecx, DWORD PTR $T3[ebp]
  0006b	ff 25 00 00 00
	00		 jmp	 DWORD PTR __imp_??1?$CStringT@DV?$StrTraitMFC_DLL@DV?$ChTraitsCRT@D@ATL@@@@@ATL@@QAE@XZ
$LN41@GetScaleAl:
  00071	c3		 ret	 0
__unwindfunclet$?GetScaleAllData@CVerticalScale@@QBE?AV?$CStringT@DV?$StrTraitMFC_DLL@DV?$ChTraitsCRT@D@ATL@@@@@ATL@@XZ$7:
  00072	8d 4d e4	 lea	 ecx, DWORD PTR $T6[ebp]
  00075	ff 25 00 00 00
	00		 jmp	 DWORD PTR __imp_??1?$CStringT@DV?$StrTraitMFC_DLL@DV?$ChTraitsCRT@D@ATL@@@@@ATL@@QAE@XZ
__unwindfunclet$?GetScaleAllData@CVerticalScale@@QBE?AV?$CStringT@DV?$StrTraitMFC_DLL@DV?$ChTraitsCRT@D@ATL@@@@@ATL@@XZ$14:
  0007b	8b 45 e8	 mov	 eax, DWORD PTR $T10[ebp]
  0007e	83 e0 20	 and	 eax, 32			; 00000020H
  00081	0f 84 0d 00 00
	00		 je	 $LN51@GetScaleAl
  00087	83 65 e8 df	 and	 DWORD PTR $T10[ebp], -33 ; ffffffdfH
  0008b	8d 4d e0	 lea	 ecx, DWORD PTR $T2[ebp]
  0008e	ff 25 00 00 00
	00		 jmp	 DWORD PTR __imp_??1?$CStringT@DV?$StrTraitMFC_DLL@DV?$ChTraitsCRT@D@ATL@@@@@ATL@@QAE@XZ
$LN51@GetScaleAl:
  00094	c3		 ret	 0
__unwindfunclet$?GetScaleAllData@CVerticalScale@@QBE?AV?$CStringT@DV?$StrTraitMFC_DLL@DV?$ChTraitsCRT@D@ATL@@@@@ATL@@XZ$15:
  00095	8b 45 e8	 mov	 eax, DWORD PTR $T10[ebp]
  00098	83 e0 40	 and	 eax, 64			; 00000040H
  0009b	0f 84 0d 00 00
	00		 je	 $LN61@GetScaleAl
  000a1	83 65 e8 bf	 and	 DWORD PTR $T10[ebp], -65 ; ffffffbfH
  000a5	8b 4d 08	 mov	 ecx, DWORD PTR ___$ReturnUdt$[ebp]
  000a8	ff 25 00 00 00
	00		 jmp	 DWORD PTR __imp_??1?$CStringT@DV?$StrTraitMFC_DLL@DV?$ChTraitsCRT@D@ATL@@@@@ATL@@QAE@XZ
$LN61@GetScaleAl:
  000ae	c3		 ret	 0
  000af	cc		 int	 3
  000b0	cc		 int	 3
  000b1	cc		 int	 3
  000b2	cc		 int	 3
  000b3	cc		 int	 3
__ehhandler$?GetScaleAllData@CVerticalScale@@QBE?AV?$CStringT@DV?$StrTraitMFC_DLL@DV?$ChTraitsCRT@D@ATL@@@@@ATL@@XZ:
  000b4	90		 npad	 1
  000b5	90		 npad	 1
  000b6	8b 54 24 08	 mov	 edx, DWORD PTR [esp+8]
  000ba	8d 42 0c	 lea	 eax, DWORD PTR [edx+12]
  000bd	8b 4a e0	 mov	 ecx, DWORD PTR [edx-32]
  000c0	33 c8		 xor	 ecx, eax
  000c2	e8 00 00 00 00	 call	 @__security_check_cookie@4
  000c7	b8 00 00 00 00	 mov	 eax, OFFSET __ehfuncinfo$?GetScaleAllData@CVerticalScale@@QBE?AV?$CStringT@DV?$StrTraitMFC_DLL@DV?$ChTraitsCRT@D@ATL@@@@@ATL@@XZ
  000cc	e9 00 00 00 00	 jmp	 ___CxxFrameHandler3
text$x	ENDS
?GetScaleAllData@CVerticalScale@@QBE?AV?$CStringT@DV?$StrTraitMFC_DLL@DV?$ChTraitsCRT@D@ATL@@@@@ATL@@XZ ENDP ; CVerticalScale::GetScaleAllData
; Function compile flags: /Ogtp
; File D:\git\src\IBK\IBK_DRFN\ProjSrc\SrcChartEx\ChartAddIn\ChartAnalysisToolAddIn\Include_Chart\ScaleBaseData.cpp
;	COMDAT ?GetVertScaleUnitType@CVerticalScale@@QBE?AW4VERTSCALEUNITTYPE@CScaleBaseData@@XZ
_TEXT	SEGMENT
?GetVertScaleUnitType@CVerticalScale@@QBE?AW4VERTSCALEUNITTYPE@CScaleBaseData@@XZ PROC ; CVerticalScale::GetVertScaleUnitType, COMDAT
; _this$ = ecx

; 291  : 	return m_eUnitType;

  00000	8b 41 10	 mov	 eax, DWORD PTR [ecx+16]

; 292  : }

  00003	c3		 ret	 0
?GetVertScaleUnitType@CVerticalScale@@QBE?AW4VERTSCALEUNITTYPE@CScaleBaseData@@XZ ENDP ; CVerticalScale::GetVertScaleUnitType
_TEXT	ENDS
; Function compile flags: /Ogtp
; File D:\git\src\IBK\IBK_DRFN\ProjSrc\SrcChartEx\ChartAddIn\ChartAnalysisToolAddIn\Include_Chart\ScaleBaseData.cpp
;	COMDAT ?GetVertScalePosition@CVerticalScale@@QBE?AW4VERTSCALEPOSITION@CScaleBaseData@@XZ
_TEXT	SEGMENT
?GetVertScalePosition@CVerticalScale@@QBE?AW4VERTSCALEPOSITION@CScaleBaseData@@XZ PROC ; CVerticalScale::GetVertScalePosition, COMDAT
; _this$ = ecx

; 286  : 	return m_ePosition;

  00000	8b 41 0c	 mov	 eax, DWORD PTR [ecx+12]

; 287  : }

  00003	c3		 ret	 0
?GetVertScalePosition@CVerticalScale@@QBE?AW4VERTSCALEPOSITION@CScaleBaseData@@XZ ENDP ; CVerticalScale::GetVertScalePosition
_TEXT	ENDS
; Function compile flags: /Ogtp
; File D:\git\src\IBK\IBK_DRFN\ProjSrc\SrcChartEx\ChartAddIn\ChartAnalysisToolAddIn\Include_Chart\ScaleBaseData.cpp
;	COMDAT ?SetVertScaleUnitType@CVerticalScale@@QAEXW4VERTSCALEUNITTYPE@CScaleBaseData@@@Z
_TEXT	SEGMENT
_eUnitType$ = 8						; size = 4
?SetVertScaleUnitType@CVerticalScale@@QAEXW4VERTSCALEUNITTYPE@CScaleBaseData@@@Z PROC ; CVerticalScale::SetVertScaleUnitType, COMDAT
; _this$ = ecx

; 279  : {

  00000	55		 push	 ebp
  00001	8b ec		 mov	 ebp, esp

; 280  : 	m_eUnitType = eUnitType;

  00003	8b 45 08	 mov	 eax, DWORD PTR _eUnitType$[ebp]
  00006	89 41 10	 mov	 DWORD PTR [ecx+16], eax

; 281  : }

  00009	5d		 pop	 ebp
  0000a	c2 04 00	 ret	 4
?SetVertScaleUnitType@CVerticalScale@@QAEXW4VERTSCALEUNITTYPE@CScaleBaseData@@@Z ENDP ; CVerticalScale::SetVertScaleUnitType
_TEXT	ENDS
; Function compile flags: /Ogtp
; File D:\git\src\IBK\IBK_DRFN\ProjSrc\SrcChartEx\ChartAddIn\ChartAnalysisToolAddIn\Include_Chart\ScaleBaseData.cpp
; File C:\Program Files (x86)\Microsoft Visual Studio\2019\Community\VC\Tools\MSVC\14.29.30133\atlmfc\include\atlsimpstr.h
; File D:\git\src\IBK\IBK_DRFN\ProjSrc\SrcChartEx\ChartAddIn\ChartAnalysisToolAddIn\Include_Chart\ScaleBaseData.cpp
; File C:\Program Files (x86)\Microsoft Visual Studio\2019\Community\VC\Tools\MSVC\14.29.30133\atlmfc\include\atlsimpstr.h
; File D:\git\src\IBK\IBK_DRFN\ProjSrc\SrcChartEx\ChartAddIn\ChartAnalysisToolAddIn\Include_Chart\ScaleBaseData.cpp
;	COMDAT ?SetVertScaleUnitType@CVerticalScale@@QAEXABV?$CStringT@DV?$StrTraitMFC_DLL@DV?$ChTraitsCRT@D@ATL@@@@@ATL@@@Z
_TEXT	SEGMENT
_strUnitType$ = 8					; size = 4
?SetVertScaleUnitType@CVerticalScale@@QAEXABV?$CStringT@DV?$StrTraitMFC_DLL@DV?$ChTraitsCRT@D@ATL@@@@@ATL@@@Z PROC ; CVerticalScale::SetVertScaleUnitType, COMDAT
; _this$ = ecx

; 272  : {

  00000	55		 push	 ebp
  00001	8b ec		 mov	 ebp, esp
; File C:\Program Files (x86)\Microsoft Visual Studio\2019\Community\VC\Tools\MSVC\14.29.30133\atlmfc\include\atlsimpstr.h

; 519  : 		return( GetData()->nDataLength );

  00003	8b 45 08	 mov	 eax, DWORD PTR _strUnitType$[ebp]
; File D:\git\src\IBK\IBK_DRFN\ProjSrc\SrcChartEx\ChartAddIn\ChartAnalysisToolAddIn\Include_Chart\ScaleBaseData.cpp

; 272  : {

  00006	56		 push	 esi
  00007	8b f1		 mov	 esi, ecx
; File C:\Program Files (x86)\Microsoft Visual Studio\2019\Community\VC\Tools\MSVC\14.29.30133\atlmfc\include\atlsimpstr.h

; 519  : 		return( GetData()->nDataLength );

  00009	8b 00		 mov	 eax, DWORD PTR [eax]

; 533  : 		return( GetLength() == 0 );

  0000b	83 78 f4 00	 cmp	 DWORD PTR [eax-12], 0
; File D:\git\src\IBK\IBK_DRFN\ProjSrc\SrcChartEx\ChartAddIn\ChartAnalysisToolAddIn\Include_Chart\ScaleBaseData.cpp

; 273  : 	if(strUnitType.IsEmpty())

  0000f	74 0d		 je	 SHORT $LN1@SetVertSca

; 274  : 		return;
; 275  : 	m_eUnitType = (CScaleBaseData::VERTSCALEUNITTYPE) atoi(strUnitType);

  00011	50		 push	 eax
  00012	ff 15 00 00 00
	00		 call	 DWORD PTR __imp__atoi
  00018	83 c4 04	 add	 esp, 4
  0001b	89 46 10	 mov	 DWORD PTR [esi+16], eax
$LN1@SetVertSca:
  0001e	5e		 pop	 esi

; 276  : }

  0001f	5d		 pop	 ebp
  00020	c2 04 00	 ret	 4
?SetVertScaleUnitType@CVerticalScale@@QAEXABV?$CStringT@DV?$StrTraitMFC_DLL@DV?$ChTraitsCRT@D@ATL@@@@@ATL@@@Z ENDP ; CVerticalScale::SetVertScaleUnitType
_TEXT	ENDS
; Function compile flags: /Ogtp
; File D:\git\src\IBK\IBK_DRFN\ProjSrc\SrcChartEx\ChartAddIn\ChartAnalysisToolAddIn\Include_Chart\ScaleBaseData.cpp
;	COMDAT ?SetVertScalePosition@CVerticalScale@@QAEXW4VERTSCALEPOSITION@CScaleBaseData@@@Z
_TEXT	SEGMENT
_ePosition$ = 8						; size = 4
?SetVertScalePosition@CVerticalScale@@QAEXW4VERTSCALEPOSITION@CScaleBaseData@@@Z PROC ; CVerticalScale::SetVertScalePosition, COMDAT
; _this$ = ecx

; 267  : {

  00000	55		 push	 ebp
  00001	8b ec		 mov	 ebp, esp

; 268  : 	m_ePosition = ePosition;

  00003	8b 45 08	 mov	 eax, DWORD PTR _ePosition$[ebp]
  00006	89 41 0c	 mov	 DWORD PTR [ecx+12], eax

; 269  : }

  00009	5d		 pop	 ebp
  0000a	c2 04 00	 ret	 4
?SetVertScalePosition@CVerticalScale@@QAEXW4VERTSCALEPOSITION@CScaleBaseData@@@Z ENDP ; CVerticalScale::SetVertScalePosition
_TEXT	ENDS
; Function compile flags: /Ogtp
; File D:\git\src\IBK\IBK_DRFN\ProjSrc\SrcChartEx\ChartAddIn\ChartAnalysisToolAddIn\Include_Chart\ScaleBaseData.cpp
; File C:\Program Files (x86)\Microsoft Visual Studio\2019\Community\VC\Tools\MSVC\14.29.30133\atlmfc\include\atlsimpstr.h
; File D:\git\src\IBK\IBK_DRFN\ProjSrc\SrcChartEx\ChartAddIn\ChartAnalysisToolAddIn\Include_Chart\ScaleBaseData.cpp
; File C:\Program Files (x86)\Microsoft Visual Studio\2019\Community\VC\Tools\MSVC\14.29.30133\atlmfc\include\atlsimpstr.h
; File D:\git\src\IBK\IBK_DRFN\ProjSrc\SrcChartEx\ChartAddIn\ChartAnalysisToolAddIn\Include_Chart\ScaleBaseData.cpp
;	COMDAT ?SetVertScalePosition@CVerticalScale@@QAEXABV?$CStringT@DV?$StrTraitMFC_DLL@DV?$ChTraitsCRT@D@ATL@@@@@ATL@@@Z
_TEXT	SEGMENT
_strPosition$ = 8					; size = 4
?SetVertScalePosition@CVerticalScale@@QAEXABV?$CStringT@DV?$StrTraitMFC_DLL@DV?$ChTraitsCRT@D@ATL@@@@@ATL@@@Z PROC ; CVerticalScale::SetVertScalePosition, COMDAT
; _this$ = ecx

; 260  : {

  00000	55		 push	 ebp
  00001	8b ec		 mov	 ebp, esp
; File C:\Program Files (x86)\Microsoft Visual Studio\2019\Community\VC\Tools\MSVC\14.29.30133\atlmfc\include\atlsimpstr.h

; 519  : 		return( GetData()->nDataLength );

  00003	8b 45 08	 mov	 eax, DWORD PTR _strPosition$[ebp]
; File D:\git\src\IBK\IBK_DRFN\ProjSrc\SrcChartEx\ChartAddIn\ChartAnalysisToolAddIn\Include_Chart\ScaleBaseData.cpp

; 260  : {

  00006	56		 push	 esi
  00007	8b f1		 mov	 esi, ecx
; File C:\Program Files (x86)\Microsoft Visual Studio\2019\Community\VC\Tools\MSVC\14.29.30133\atlmfc\include\atlsimpstr.h

; 519  : 		return( GetData()->nDataLength );

  00009	8b 00		 mov	 eax, DWORD PTR [eax]

; 533  : 		return( GetLength() == 0 );

  0000b	83 78 f4 00	 cmp	 DWORD PTR [eax-12], 0
; File D:\git\src\IBK\IBK_DRFN\ProjSrc\SrcChartEx\ChartAddIn\ChartAnalysisToolAddIn\Include_Chart\ScaleBaseData.cpp

; 261  : 	if(strPosition.IsEmpty())

  0000f	74 0d		 je	 SHORT $LN1@SetVertSca

; 262  : 		return;
; 263  : 	m_ePosition = (CScaleBaseData::VERTSCALEPOSITION) atoi(strPosition);

  00011	50		 push	 eax
  00012	ff 15 00 00 00
	00		 call	 DWORD PTR __imp__atoi
  00018	83 c4 04	 add	 esp, 4
  0001b	89 46 0c	 mov	 DWORD PTR [esi+12], eax
$LN1@SetVertSca:
  0001e	5e		 pop	 esi

; 264  : }

  0001f	5d		 pop	 ebp
  00020	c2 04 00	 ret	 4
?SetVertScalePosition@CVerticalScale@@QAEXABV?$CStringT@DV?$StrTraitMFC_DLL@DV?$ChTraitsCRT@D@ATL@@@@@ATL@@@Z ENDP ; CVerticalScale::SetVertScalePosition
_TEXT	ENDS
; Function compile flags: /Ogtp
; File D:\git\src\IBK\IBK_DRFN\ProjSrc\SrcChartEx\ChartAddIn\ChartAnalysisToolAddIn\Include_Chart\ScaleBaseData.cpp
; File C:\Program Files (x86)\Microsoft Visual Studio\2019\Community\VC\Tools\MSVC\14.29.30133\atlmfc\include\atlsimpstr.h
; File D:\git\src\IBK\IBK_DRFN\ProjSrc\SrcChartEx\ChartAddIn\ChartAnalysisToolAddIn\Include_Chart\ScaleBaseData.cpp
; File C:\Program Files (x86)\Microsoft Visual Studio\2019\Community\VC\Tools\MSVC\14.29.30133\atlmfc\include\atlsimpstr.h
; File D:\git\src\IBK\IBK_DRFN\ProjSrc\SrcChartEx\ChartAddIn\ChartAnalysisToolAddIn\Include_Chart\ScaleBaseData.cpp
; File C:\Program Files (x86)\Microsoft Visual Studio\2019\Community\VC\Tools\MSVC\14.29.30133\atlmfc\include\atlsimpstr.h
; File D:\git\src\IBK\IBK_DRFN\ProjSrc\SrcChartEx\ChartAddIn\ChartAnalysisToolAddIn\Include_Chart\ScaleBaseData.cpp
; File C:\Program Files (x86)\Microsoft Visual Studio\2019\Community\VC\Tools\MSVC\14.29.30133\atlmfc\include\atlsimpstr.h
; File D:\git\src\IBK\IBK_DRFN\ProjSrc\SrcChartEx\ChartAddIn\ChartAnalysisToolAddIn\Include_Chart\ScaleBaseData.cpp
;	COMDAT ?SetScaleData@CVerticalScale@@UAEXABV?$CStringT@DV?$StrTraitMFC_DLL@DV?$ChTraitsCRT@D@ATL@@@@@ATL@@@Z
_TEXT	SEGMENT
$T2 = -20						; size = 4
$T3 = -20						; size = 4
$T4 = -20						; size = 4
$T5 = -20						; size = 4
$T6 = -16						; size = 4
$T7 = -16						; size = 4
$T8 = -16						; size = 4
$T9 = -16						; size = 4
__$EHRec$ = -12						; size = 12
_temp$ = 8						; size = 4
_scaleData$ = 8						; size = 4
?SetScaleData@CVerticalScale@@UAEXABV?$CStringT@DV?$StrTraitMFC_DLL@DV?$ChTraitsCRT@D@ATL@@@@@ATL@@@Z PROC ; CVerticalScale::SetScaleData, COMDAT
; _this$ = ecx

; 247  : {

  00000	55		 push	 ebp
  00001	8b ec		 mov	 ebp, esp
  00003	6a ff		 push	 -1
  00005	68 00 00 00 00	 push	 __ehhandler$?SetScaleData@CVerticalScale@@UAEXABV?$CStringT@DV?$StrTraitMFC_DLL@DV?$ChTraitsCRT@D@ATL@@@@@ATL@@@Z
  0000a	64 a1 00 00 00
	00		 mov	 eax, DWORD PTR fs:0
  00010	50		 push	 eax
  00011	83 ec 08	 sub	 esp, 8
  00014	56		 push	 esi
  00015	57		 push	 edi
  00016	a1 00 00 00 00	 mov	 eax, DWORD PTR ___security_cookie
  0001b	33 c5		 xor	 eax, ebp
  0001d	50		 push	 eax
  0001e	8d 45 f4	 lea	 eax, DWORD PTR __$EHRec$[ebp]
  00021	64 a3 00 00 00
	00		 mov	 DWORD PTR fs:0, eax
  00027	8b f9		 mov	 edi, ecx

; 248  : 	//  Data;;grid;unit;
; 249  : 	CString temp = scaleData;

  00029	ff 75 08	 push	 DWORD PTR _scaleData$[ebp]
  0002c	8d 4d 08	 lea	 ecx, DWORD PTR _temp$[ebp]
  0002f	ff 15 00 00 00
	00		 call	 DWORD PTR __imp_??0?$CStringT@DV?$StrTraitMFC_DLL@DV?$ChTraitsCRT@D@ATL@@@@@ATL@@QAE@ABV01@@Z

; 250  : 	CScale::SetScaleData(CDataConversion::GetStringData(temp, ";"));

  00035	68 00 00 00 00	 push	 OFFSET ??_C@_01ICJEACDI@?$DL@
  0003a	8d 4d f0	 lea	 ecx, DWORD PTR $T9[ebp]
  0003d	c7 45 fc 00 00
	00 00		 mov	 DWORD PTR __$EHRec$[ebp+8], 0
  00044	ff 15 00 00 00
	00		 call	 DWORD PTR __imp_??0?$CStringT@DV?$StrTraitMFC_DLL@DV?$ChTraitsCRT@D@ATL@@@@@ATL@@QAE@PBD@Z
  0004a	6a 01		 push	 1
  0004c	8d 45 f0	 lea	 eax, DWORD PTR $T9[ebp]
  0004f	c6 45 fc 01	 mov	 BYTE PTR __$EHRec$[ebp+8], 1
  00053	50		 push	 eax
  00054	8d 45 08	 lea	 eax, DWORD PTR _temp$[ebp]
  00057	50		 push	 eax
  00058	8d 45 ec	 lea	 eax, DWORD PTR $T5[ebp]
  0005b	50		 push	 eax
  0005c	e8 00 00 00 00	 call	 ?GetStringData@CDataConversion@@SA?AV?$CStringT@DV?$StrTraitMFC_DLL@DV?$ChTraitsCRT@D@ATL@@@@@ATL@@AAV23@ABV23@_N@Z ; CDataConversion::GetStringData
  00061	83 c4 10	 add	 esp, 16			; 00000010H

; 115  : 	m_strScaleData = scaleData;

  00064	50		 push	 eax
  00065	8d 4f 04	 lea	 ecx, DWORD PTR [edi+4]

; 250  : 	CScale::SetScaleData(CDataConversion::GetStringData(temp, ";"));

  00068	c6 45 fc 02	 mov	 BYTE PTR __$EHRec$[ebp+8], 2

; 115  : 	m_strScaleData = scaleData;

  0006c	ff 15 00 00 00
	00		 call	 DWORD PTR __imp_??4?$CStringT@DV?$StrTraitMFC_DLL@DV?$ChTraitsCRT@D@ATL@@@@@ATL@@QAEAAV01@ABV01@@Z

; 250  : 	CScale::SetScaleData(CDataConversion::GetStringData(temp, ";"));

  00072	8d 4d ec	 lea	 ecx, DWORD PTR $T5[ebp]
  00075	ff 15 00 00 00
	00		 call	 DWORD PTR __imp_??1?$CStringT@DV?$StrTraitMFC_DLL@DV?$ChTraitsCRT@D@ATL@@@@@ATL@@QAE@XZ
  0007b	8d 4d f0	 lea	 ecx, DWORD PTR $T9[ebp]
  0007e	c6 45 fc 00	 mov	 BYTE PTR __$EHRec$[ebp+8], 0
  00082	ff 15 00 00 00
	00		 call	 DWORD PTR __imp_??1?$CStringT@DV?$StrTraitMFC_DLL@DV?$ChTraitsCRT@D@ATL@@@@@ATL@@QAE@XZ
; File C:\Program Files (x86)\Microsoft Visual Studio\2019\Community\VC\Tools\MSVC\14.29.30133\atlmfc\include\atlsimpstr.h

; 519  : 		return( GetData()->nDataLength );

  00088	8b 45 08	 mov	 eax, DWORD PTR _temp$[ebp]

; 533  : 		return( GetLength() == 0 );

  0008b	83 78 f4 00	 cmp	 DWORD PTR [eax-12], 0
; File D:\git\src\IBK\IBK_DRFN\ProjSrc\SrcChartEx\ChartAddIn\ChartAnalysisToolAddIn\Include_Chart\ScaleBaseData.cpp

; 251  : 	if(temp.IsEmpty())

  0008f	0f 84 ef 00 00
	00		 je	 $LN13@SetScaleDa

; 252  : 		return;
; 253  : 	SetVertScalePosition(CDataConversion::GetStringData(temp, ";"));

  00095	68 00 00 00 00	 push	 OFFSET ??_C@_01ICJEACDI@?$DL@
  0009a	8d 4d f0	 lea	 ecx, DWORD PTR $T8[ebp]
  0009d	ff 15 00 00 00
	00		 call	 DWORD PTR __imp_??0?$CStringT@DV?$StrTraitMFC_DLL@DV?$ChTraitsCRT@D@ATL@@@@@ATL@@QAE@PBD@Z
  000a3	6a 01		 push	 1
  000a5	8d 45 f0	 lea	 eax, DWORD PTR $T8[ebp]
  000a8	c6 45 fc 03	 mov	 BYTE PTR __$EHRec$[ebp+8], 3
  000ac	50		 push	 eax
  000ad	8d 45 08	 lea	 eax, DWORD PTR _temp$[ebp]
  000b0	50		 push	 eax
  000b1	8d 45 ec	 lea	 eax, DWORD PTR $T4[ebp]
  000b4	50		 push	 eax
  000b5	e8 00 00 00 00	 call	 ?GetStringData@CDataConversion@@SA?AV?$CStringT@DV?$StrTraitMFC_DLL@DV?$ChTraitsCRT@D@ATL@@@@@ATL@@AAV23@ABV23@_N@Z ; CDataConversion::GetStringData

; 261  : 	if(strPosition.IsEmpty())

  000ba	8b 35 00 00 00
	00		 mov	 esi, DWORD PTR __imp__atoi

; 252  : 		return;
; 253  : 	SetVertScalePosition(CDataConversion::GetStringData(temp, ";"));

  000c0	83 c4 10	 add	 esp, 16			; 00000010H
; File C:\Program Files (x86)\Microsoft Visual Studio\2019\Community\VC\Tools\MSVC\14.29.30133\atlmfc\include\atlsimpstr.h

; 519  : 		return( GetData()->nDataLength );

  000c3	8b 00		 mov	 eax, DWORD PTR [eax]

; 533  : 		return( GetLength() == 0 );

  000c5	83 78 f4 00	 cmp	 DWORD PTR [eax-12], 0
; File D:\git\src\IBK\IBK_DRFN\ProjSrc\SrcChartEx\ChartAddIn\ChartAnalysisToolAddIn\Include_Chart\ScaleBaseData.cpp

; 261  : 	if(strPosition.IsEmpty())

  000c9	74 09		 je	 SHORT $LN22@SetScaleDa

; 262  : 		return;
; 263  : 	m_ePosition = (CScaleBaseData::VERTSCALEPOSITION) atoi(strPosition);

  000cb	50		 push	 eax
  000cc	ff d6		 call	 esi
  000ce	83 c4 04	 add	 esp, 4
  000d1	89 47 0c	 mov	 DWORD PTR [edi+12], eax
$LN22@SetScaleDa:

; 252  : 		return;
; 253  : 	SetVertScalePosition(CDataConversion::GetStringData(temp, ";"));

  000d4	8d 4d ec	 lea	 ecx, DWORD PTR $T4[ebp]
  000d7	ff 15 00 00 00
	00		 call	 DWORD PTR __imp_??1?$CStringT@DV?$StrTraitMFC_DLL@DV?$ChTraitsCRT@D@ATL@@@@@ATL@@QAE@XZ
  000dd	8d 4d f0	 lea	 ecx, DWORD PTR $T8[ebp]
  000e0	c6 45 fc 00	 mov	 BYTE PTR __$EHRec$[ebp+8], 0
  000e4	ff 15 00 00 00
	00		 call	 DWORD PTR __imp_??1?$CStringT@DV?$StrTraitMFC_DLL@DV?$ChTraitsCRT@D@ATL@@@@@ATL@@QAE@XZ

; 254  : 	CScale::SetGridType(CDataConversion::GetStringData(temp, ";"));

  000ea	68 00 00 00 00	 push	 OFFSET ??_C@_01ICJEACDI@?$DL@
  000ef	8d 4d f0	 lea	 ecx, DWORD PTR $T7[ebp]
  000f2	ff 15 00 00 00
	00		 call	 DWORD PTR __imp_??0?$CStringT@DV?$StrTraitMFC_DLL@DV?$ChTraitsCRT@D@ATL@@@@@ATL@@QAE@PBD@Z
  000f8	6a 01		 push	 1
  000fa	8d 45 f0	 lea	 eax, DWORD PTR $T7[ebp]
  000fd	c6 45 fc 04	 mov	 BYTE PTR __$EHRec$[ebp+8], 4
  00101	50		 push	 eax
  00102	8d 45 08	 lea	 eax, DWORD PTR _temp$[ebp]
  00105	50		 push	 eax
  00106	8d 45 ec	 lea	 eax, DWORD PTR $T3[ebp]
  00109	50		 push	 eax
  0010a	e8 00 00 00 00	 call	 ?GetStringData@CDataConversion@@SA?AV?$CStringT@DV?$StrTraitMFC_DLL@DV?$ChTraitsCRT@D@ATL@@@@@ATL@@AAV23@ABV23@_N@Z ; CDataConversion::GetStringData
  0010f	83 c4 10	 add	 esp, 16			; 00000010H
; File C:\Program Files (x86)\Microsoft Visual Studio\2019\Community\VC\Tools\MSVC\14.29.30133\atlmfc\include\atlsimpstr.h

; 519  : 		return( GetData()->nDataLength );

  00112	8b 00		 mov	 eax, DWORD PTR [eax]

; 533  : 		return( GetLength() == 0 );

  00114	83 78 f4 00	 cmp	 DWORD PTR [eax-12], 0
; File D:\git\src\IBK\IBK_DRFN\ProjSrc\SrcChartEx\ChartAddIn\ChartAnalysisToolAddIn\Include_Chart\ScaleBaseData.cpp

; 136  : 	if(strGridType.IsEmpty())

  00118	74 09		 je	 SHORT $LN33@SetScaleDa

; 137  : 		return;
; 138  : 
; 139  : 	m_eScaleGrid = (CScaleBaseData::SCALEGRIDTYPE) atoi(strGridType);

  0011a	50		 push	 eax
  0011b	ff d6		 call	 esi
  0011d	83 c4 04	 add	 esp, 4
  00120	89 47 08	 mov	 DWORD PTR [edi+8], eax
$LN33@SetScaleDa:

; 254  : 	CScale::SetGridType(CDataConversion::GetStringData(temp, ";"));

  00123	8d 4d ec	 lea	 ecx, DWORD PTR $T3[ebp]
  00126	ff 15 00 00 00
	00		 call	 DWORD PTR __imp_??1?$CStringT@DV?$StrTraitMFC_DLL@DV?$ChTraitsCRT@D@ATL@@@@@ATL@@QAE@XZ
  0012c	8d 4d f0	 lea	 ecx, DWORD PTR $T7[ebp]
  0012f	c6 45 fc 00	 mov	 BYTE PTR __$EHRec$[ebp+8], 0
  00133	ff 15 00 00 00
	00		 call	 DWORD PTR __imp_??1?$CStringT@DV?$StrTraitMFC_DLL@DV?$ChTraitsCRT@D@ATL@@@@@ATL@@QAE@XZ

; 255  : 	SetVertScaleUnitType(CDataConversion::GetStringData(temp, ";"));

  00139	68 00 00 00 00	 push	 OFFSET ??_C@_01ICJEACDI@?$DL@
  0013e	8d 4d f0	 lea	 ecx, DWORD PTR $T6[ebp]
  00141	ff 15 00 00 00
	00		 call	 DWORD PTR __imp_??0?$CStringT@DV?$StrTraitMFC_DLL@DV?$ChTraitsCRT@D@ATL@@@@@ATL@@QAE@PBD@Z
  00147	6a 01		 push	 1
  00149	8d 45 f0	 lea	 eax, DWORD PTR $T6[ebp]
  0014c	c6 45 fc 05	 mov	 BYTE PTR __$EHRec$[ebp+8], 5
  00150	50		 push	 eax
  00151	8d 45 08	 lea	 eax, DWORD PTR _temp$[ebp]
  00154	50		 push	 eax
  00155	8d 45 ec	 lea	 eax, DWORD PTR $T2[ebp]
  00158	50		 push	 eax
  00159	e8 00 00 00 00	 call	 ?GetStringData@CDataConversion@@SA?AV?$CStringT@DV?$StrTraitMFC_DLL@DV?$ChTraitsCRT@D@ATL@@@@@ATL@@AAV23@ABV23@_N@Z ; CDataConversion::GetStringData
  0015e	83 c4 10	 add	 esp, 16			; 00000010H
; File C:\Program Files (x86)\Microsoft Visual Studio\2019\Community\VC\Tools\MSVC\14.29.30133\atlmfc\include\atlsimpstr.h

; 519  : 		return( GetData()->nDataLength );

  00161	8b 00		 mov	 eax, DWORD PTR [eax]

; 533  : 		return( GetLength() == 0 );

  00163	83 78 f4 00	 cmp	 DWORD PTR [eax-12], 0
; File D:\git\src\IBK\IBK_DRFN\ProjSrc\SrcChartEx\ChartAddIn\ChartAnalysisToolAddIn\Include_Chart\ScaleBaseData.cpp

; 273  : 	if(strUnitType.IsEmpty())

  00167	74 09		 je	 SHORT $LN44@SetScaleDa

; 274  : 		return;
; 275  : 	m_eUnitType = (CScaleBaseData::VERTSCALEUNITTYPE) atoi(strUnitType);

  00169	50		 push	 eax
  0016a	ff d6		 call	 esi
  0016c	83 c4 04	 add	 esp, 4
  0016f	89 47 10	 mov	 DWORD PTR [edi+16], eax
$LN44@SetScaleDa:

; 255  : 	SetVertScaleUnitType(CDataConversion::GetStringData(temp, ";"));

  00172	8d 4d ec	 lea	 ecx, DWORD PTR $T2[ebp]
  00175	ff 15 00 00 00
	00		 call	 DWORD PTR __imp_??1?$CStringT@DV?$StrTraitMFC_DLL@DV?$ChTraitsCRT@D@ATL@@@@@ATL@@QAE@XZ
  0017b	8d 4d f0	 lea	 ecx, DWORD PTR $T6[ebp]
  0017e	ff 15 00 00 00
	00		 call	 DWORD PTR __imp_??1?$CStringT@DV?$StrTraitMFC_DLL@DV?$ChTraitsCRT@D@ATL@@@@@ATL@@QAE@XZ
$LN13@SetScaleDa:

; 256  : }

  00184	8d 4d 08	 lea	 ecx, DWORD PTR _temp$[ebp]
  00187	ff 15 00 00 00
	00		 call	 DWORD PTR __imp_??1?$CStringT@DV?$StrTraitMFC_DLL@DV?$ChTraitsCRT@D@ATL@@@@@ATL@@QAE@XZ
  0018d	8b 4d f4	 mov	 ecx, DWORD PTR __$EHRec$[ebp]
  00190	64 89 0d 00 00
	00 00		 mov	 DWORD PTR fs:0, ecx
  00197	59		 pop	 ecx
  00198	5f		 pop	 edi
  00199	5e		 pop	 esi
  0019a	8b e5		 mov	 esp, ebp
  0019c	5d		 pop	 ebp
  0019d	c2 04 00	 ret	 4
_TEXT	ENDS
;	COMDAT text$x
text$x	SEGMENT
__unwindfunclet$?SetScaleData@CVerticalScale@@UAEXABV?$CStringT@DV?$StrTraitMFC_DLL@DV?$ChTraitsCRT@D@ATL@@@@@ATL@@@Z$0:
  00000	8d 4d 08	 lea	 ecx, DWORD PTR _temp$[ebp]
  00003	ff 25 00 00 00
	00		 jmp	 DWORD PTR __imp_??1?$CStringT@DV?$StrTraitMFC_DLL@DV?$ChTraitsCRT@D@ATL@@@@@ATL@@QAE@XZ
__unwindfunclet$?SetScaleData@CVerticalScale@@UAEXABV?$CStringT@DV?$StrTraitMFC_DLL@DV?$ChTraitsCRT@D@ATL@@@@@ATL@@@Z$1:
  00009	8d 4d f0	 lea	 ecx, DWORD PTR $T9[ebp]
  0000c	ff 25 00 00 00
	00		 jmp	 DWORD PTR __imp_??1?$CStringT@DV?$StrTraitMFC_DLL@DV?$ChTraitsCRT@D@ATL@@@@@ATL@@QAE@XZ
__unwindfunclet$?SetScaleData@CVerticalScale@@UAEXABV?$CStringT@DV?$StrTraitMFC_DLL@DV?$ChTraitsCRT@D@ATL@@@@@ATL@@@Z$2:
  00012	8d 4d ec	 lea	 ecx, DWORD PTR $T5[ebp]
  00015	ff 25 00 00 00
	00		 jmp	 DWORD PTR __imp_??1?$CStringT@DV?$StrTraitMFC_DLL@DV?$ChTraitsCRT@D@ATL@@@@@ATL@@QAE@XZ
__unwindfunclet$?SetScaleData@CVerticalScale@@UAEXABV?$CStringT@DV?$StrTraitMFC_DLL@DV?$ChTraitsCRT@D@ATL@@@@@ATL@@@Z$3:
  0001b	8d 4d f0	 lea	 ecx, DWORD PTR $T8[ebp]
  0001e	ff 25 00 00 00
	00		 jmp	 DWORD PTR __imp_??1?$CStringT@DV?$StrTraitMFC_DLL@DV?$ChTraitsCRT@D@ATL@@@@@ATL@@QAE@XZ
__unwindfunclet$?SetScaleData@CVerticalScale@@UAEXABV?$CStringT@DV?$StrTraitMFC_DLL@DV?$ChTraitsCRT@D@ATL@@@@@ATL@@@Z$5:
  00024	8d 4d f0	 lea	 ecx, DWORD PTR $T7[ebp]
  00027	ff 25 00 00 00
	00		 jmp	 DWORD PTR __imp_??1?$CStringT@DV?$StrTraitMFC_DLL@DV?$ChTraitsCRT@D@ATL@@@@@ATL@@QAE@XZ
__unwindfunclet$?SetScaleData@CVerticalScale@@UAEXABV?$CStringT@DV?$StrTraitMFC_DLL@DV?$ChTraitsCRT@D@ATL@@@@@ATL@@@Z$7:
  0002d	8d 4d f0	 lea	 ecx, DWORD PTR $T6[ebp]
  00030	ff 25 00 00 00
	00		 jmp	 DWORD PTR __imp_??1?$CStringT@DV?$StrTraitMFC_DLL@DV?$ChTraitsCRT@D@ATL@@@@@ATL@@QAE@XZ
  00036	cc		 int	 3
  00037	cc		 int	 3
  00038	cc		 int	 3
  00039	cc		 int	 3
  0003a	cc		 int	 3
__ehhandler$?SetScaleData@CVerticalScale@@UAEXABV?$CStringT@DV?$StrTraitMFC_DLL@DV?$ChTraitsCRT@D@ATL@@@@@ATL@@@Z:
  0003b	90		 npad	 1
  0003c	90		 npad	 1
  0003d	8b 54 24 08	 mov	 edx, DWORD PTR [esp+8]
  00041	8d 42 0c	 lea	 eax, DWORD PTR [edx+12]
  00044	8b 4a ec	 mov	 ecx, DWORD PTR [edx-20]
  00047	33 c8		 xor	 ecx, eax
  00049	e8 00 00 00 00	 call	 @__security_check_cookie@4
  0004e	b8 00 00 00 00	 mov	 eax, OFFSET __ehfuncinfo$?SetScaleData@CVerticalScale@@UAEXABV?$CStringT@DV?$StrTraitMFC_DLL@DV?$ChTraitsCRT@D@ATL@@@@@ATL@@@Z
  00053	e9 00 00 00 00	 jmp	 ___CxxFrameHandler3
text$x	ENDS
?SetScaleData@CVerticalScale@@UAEXABV?$CStringT@DV?$StrTraitMFC_DLL@DV?$ChTraitsCRT@D@ATL@@@@@ATL@@@Z ENDP ; CVerticalScale::SetScaleData
; Function compile flags: /Ogtp
; File D:\git\src\IBK\IBK_DRFN\ProjSrc\SrcChartEx\ChartAddIn\ChartAnalysisToolAddIn\Include_Chart\ScaleBaseData.cpp
;	COMDAT ??0CVerticalScale@@QAE@XZ
_TEXT	SEGMENT
_this$ = -4						; size = 4
??0CVerticalScale@@QAE@XZ PROC				; CVerticalScale::CVerticalScale, COMDAT
; _this$ = ecx

; 242  : {

  00000	55		 push	 ebp
  00001	8b ec		 mov	 ebp, esp
  00003	51		 push	 ecx
  00004	56		 push	 esi
  00005	8b f1		 mov	 esi, ecx
  00007	89 75 fc	 mov	 DWORD PTR _this$[ebp], esi

; 105  : {

  0000a	8d 4e 04	 lea	 ecx, DWORD PTR [esi+4]
  0000d	c7 06 00 00 00
	00		 mov	 DWORD PTR [esi], OFFSET ??_7CScale@@6B@
  00013	ff 15 00 00 00
	00		 call	 DWORD PTR __imp_??0?$CStringT@DV?$StrTraitMFC_DLL@DV?$ChTraitsCRT@D@ATL@@@@@ATL@@QAE@XZ

; 104  : 	m_eScaleGrid(CScaleBaseData::SLNONE)

  00019	c7 46 08 03 00
	00 00		 mov	 DWORD PTR [esi+8], 3

; 243  : }

  00020	8b c6		 mov	 eax, esi
  00022	c7 06 00 00 00
	00		 mov	 DWORD PTR [esi], OFFSET ??_7CVerticalScale@@6B@
  00028	c7 46 0c 03 00
	00 00		 mov	 DWORD PTR [esi+12], 3
  0002f	c7 46 10 00 00
	00 00		 mov	 DWORD PTR [esi+16], 0
  00036	5e		 pop	 esi
  00037	8b e5		 mov	 esp, ebp
  00039	5d		 pop	 ebp
  0003a	c3		 ret	 0
??0CVerticalScale@@QAE@XZ ENDP				; CVerticalScale::CVerticalScale
_TEXT	ENDS
; Function compile flags: /Ogtp
; File D:\git\src\IBK\IBK_DRFN\ProjSrc\SrcChartEx\ChartAddIn\ChartAnalysisToolAddIn\Include_Chart\ScaleBaseData.cpp
;	COMDAT ??4CVerticalScale@@QAEAAV0@ABV0@@Z
_TEXT	SEGMENT
$T2 = -24						; size = 12
__$EHRec$ = -12						; size = 12
$T3 = 8							; size = 4
_data$ = 8						; size = 4
??4CVerticalScale@@QAEAAV0@ABV0@@Z PROC			; CVerticalScale::operator=, COMDAT
; _this$ = ecx

; 228  : {

  00000	55		 push	 ebp
  00001	8b ec		 mov	 ebp, esp
  00003	6a ff		 push	 -1
  00005	68 00 00 00 00	 push	 __ehhandler$??4CVerticalScale@@QAEAAV0@ABV0@@Z
  0000a	64 a1 00 00 00
	00		 mov	 eax, DWORD PTR fs:0
  00010	50		 push	 eax
  00011	83 ec 0c	 sub	 esp, 12			; 0000000cH
  00014	56		 push	 esi
  00015	57		 push	 edi
  00016	a1 00 00 00 00	 mov	 eax, DWORD PTR ___security_cookie
  0001b	33 c5		 xor	 eax, ebp
  0001d	50		 push	 eax
  0001e	8d 45 f4	 lea	 eax, DWORD PTR __$EHRec$[ebp]
  00021	64 a3 00 00 00
	00		 mov	 DWORD PTR fs:0, eax
  00027	8b f1		 mov	 esi, ecx

; 229  : 	if(this == &data)

  00029	8b 7d 08	 mov	 edi, DWORD PTR _data$[ebp]
  0002c	3b f7		 cmp	 esi, edi
  0002e	74 6a		 je	 SHORT $LN20@operator

; 230  : 		return *this;
; 231  : 
; 232  : 	CScale::operator = ((CScale) data);

  00030	8d 47 04	 lea	 eax, DWORD PTR [edi+4]
  00033	c7 45 e8 00 00
	00 00		 mov	 DWORD PTR $T2[ebp], OFFSET ??_7CScale@@6B@
  0003a	50		 push	 eax
  0003b	8d 4d ec	 lea	 ecx, DWORD PTR $T2[ebp+4]
  0003e	ff 15 00 00 00
	00		 call	 DWORD PTR __imp_??0?$CStringT@DV?$StrTraitMFC_DLL@DV?$ChTraitsCRT@D@ATL@@@@@ATL@@QAE@ABV01@@Z
  00044	8b 47 08	 mov	 eax, DWORD PTR [edi+8]
  00047	89 45 f0	 mov	 DWORD PTR $T2[ebp+8], eax

; 95   : 	if(this == &data)

  0004a	8d 45 e8	 lea	 eax, DWORD PTR $T2[ebp]

; 230  : 		return *this;
; 231  : 
; 232  : 	CScale::operator = ((CScale) data);

  0004d	c7 45 fc 00 00
	00 00		 mov	 DWORD PTR __$EHRec$[ebp+8], 0

; 95   : 	if(this == &data)

  00054	3b f0		 cmp	 esi, eax
  00056	74 2d		 je	 SHORT $LN8@operator

; 125  : 	return m_strScaleData;

  00058	8d 45 ec	 lea	 eax, DWORD PTR $T2[ebp+4]
  0005b	50		 push	 eax
  0005c	8d 4d 08	 lea	 ecx, DWORD PTR $T3[ebp]
  0005f	ff 15 00 00 00
	00		 call	 DWORD PTR __imp_??0?$CStringT@DV?$StrTraitMFC_DLL@DV?$ChTraitsCRT@D@ATL@@@@@ATL@@QAE@ABV01@@Z

; 98   : 	m_strScaleData = data.GetScaleData();

  00065	8d 45 08	 lea	 eax, DWORD PTR $T3[ebp]
  00068	c6 45 fc 01	 mov	 BYTE PTR __$EHRec$[ebp+8], 1
  0006c	50		 push	 eax
  0006d	8d 4e 04	 lea	 ecx, DWORD PTR [esi+4]
  00070	ff 15 00 00 00
	00		 call	 DWORD PTR __imp_??4?$CStringT@DV?$StrTraitMFC_DLL@DV?$ChTraitsCRT@D@ATL@@@@@ATL@@QAEAAV01@ABV01@@Z
  00076	8d 4d 08	 lea	 ecx, DWORD PTR $T3[ebp]
  00079	ff 15 00 00 00
	00		 call	 DWORD PTR __imp_??1?$CStringT@DV?$StrTraitMFC_DLL@DV?$ChTraitsCRT@D@ATL@@@@@ATL@@QAE@XZ

; 99   : 	m_eScaleGrid = data.GetGridType();

  0007f	8b 45 f0	 mov	 eax, DWORD PTR $T2[ebp+8]
  00082	89 46 08	 mov	 DWORD PTR [esi+8], eax
$LN8@operator:
  00085	8d 4d ec	 lea	 ecx, DWORD PTR $T2[ebp+4]
  00088	ff 15 00 00 00
	00		 call	 DWORD PTR __imp_??1?$CStringT@DV?$StrTraitMFC_DLL@DV?$ChTraitsCRT@D@ATL@@@@@ATL@@QAE@XZ

; 233  : 	m_ePosition = data.GetVertScalePosition();

  0008e	8b 47 0c	 mov	 eax, DWORD PTR [edi+12]
  00091	89 46 0c	 mov	 DWORD PTR [esi+12], eax

; 234  : 	m_eUnitType = data.GetVertScaleUnitType();

  00094	8b 47 10	 mov	 eax, DWORD PTR [edi+16]
  00097	89 46 10	 mov	 DWORD PTR [esi+16], eax
$LN20@operator:

; 235  : 	return *this;
; 236  : }

  0009a	8b c6		 mov	 eax, esi
  0009c	8b 4d f4	 mov	 ecx, DWORD PTR __$EHRec$[ebp]
  0009f	64 89 0d 00 00
	00 00		 mov	 DWORD PTR fs:0, ecx
  000a6	59		 pop	 ecx
  000a7	5f		 pop	 edi
  000a8	5e		 pop	 esi
  000a9	8b e5		 mov	 esp, ebp
  000ab	5d		 pop	 ebp
  000ac	c2 04 00	 ret	 4
_TEXT	ENDS
;	COMDAT text$x
text$x	SEGMENT
__unwindfunclet$??4CVerticalScale@@QAEAAV0@ABV0@@Z$0:
  00000	8d 4d e8	 lea	 ecx, DWORD PTR $T2[ebp]
  00003	e9 00 00 00 00	 jmp	 ??1CScale@@QAE@XZ
__unwindfunclet$??4CVerticalScale@@QAEAAV0@ABV0@@Z$2:
  00008	8d 4d 08	 lea	 ecx, DWORD PTR $T3[ebp]
  0000b	ff 25 00 00 00
	00		 jmp	 DWORD PTR __imp_??1?$CStringT@DV?$StrTraitMFC_DLL@DV?$ChTraitsCRT@D@ATL@@@@@ATL@@QAE@XZ
  00011	cc		 int	 3
  00012	cc		 int	 3
  00013	cc		 int	 3
  00014	cc		 int	 3
  00015	cc		 int	 3
__ehhandler$??4CVerticalScale@@QAEAAV0@ABV0@@Z:
  00016	90		 npad	 1
  00017	90		 npad	 1
  00018	8b 54 24 08	 mov	 edx, DWORD PTR [esp+8]
  0001c	8d 42 0c	 lea	 eax, DWORD PTR [edx+12]
  0001f	8b 4a e8	 mov	 ecx, DWORD PTR [edx-24]
  00022	33 c8		 xor	 ecx, eax
  00024	e8 00 00 00 00	 call	 @__security_check_cookie@4
  00029	b8 00 00 00 00	 mov	 eax, OFFSET __ehfuncinfo$??4CVerticalScale@@QAEAAV0@ABV0@@Z
  0002e	e9 00 00 00 00	 jmp	 ___CxxFrameHandler3
text$x	ENDS
??4CVerticalScale@@QAEAAV0@ABV0@@Z ENDP			; CVerticalScale::operator=
; Function compile flags: /Ogtp
; File D:\git\src\IBK\IBK_DRFN\ProjSrc\SrcChartEx\ChartAddIn\ChartAnalysisToolAddIn\Include_Chart\ScaleBaseData.cpp
; File C:\Program Files (x86)\Microsoft Visual Studio\2019\Community\VC\Tools\MSVC\14.29.30133\atlmfc\include\cstringt.h
; File D:\git\src\IBK\IBK_DRFN\ProjSrc\SrcChartEx\ChartAddIn\ChartAnalysisToolAddIn\Include_Chart\ScaleBaseData.cpp
; File C:\Program Files (x86)\Microsoft Visual Studio\2019\Community\VC\Tools\MSVC\14.29.30133\atlmfc\include\cstringt.h
; File C:\Program Files (x86)\Microsoft Visual Studio\2019\Community\VC\Tools\MSVC\14.29.30133\atlmfc\include\atlsimpstr.h
; File C:\Program Files (x86)\Microsoft Visual Studio\2019\Community\VC\Tools\MSVC\14.29.30133\atlmfc\include\cstringt.h
; File D:\git\src\IBK\IBK_DRFN\ProjSrc\SrcChartEx\ChartAddIn\ChartAnalysisToolAddIn\Include_Chart\ScaleBaseData.cpp
; File C:\Program Files (x86)\Microsoft Visual Studio\2019\Community\VC\Tools\MSVC\14.29.30133\atlmfc\include\cstringt.h
; File D:\git\src\IBK\IBK_DRFN\ProjSrc\SrcChartEx\ChartAddIn\ChartAnalysisToolAddIn\Include_Chart\ScaleBaseData.cpp
; File C:\Program Files (x86)\Microsoft Visual Studio\2019\Community\VC\Tools\MSVC\14.29.30133\atlmfc\include\cstringt.h
; File C:\Program Files (x86)\Microsoft Visual Studio\2019\Community\VC\Tools\MSVC\14.29.30133\atlmfc\include\atlsimpstr.h
; File C:\Program Files (x86)\Microsoft Visual Studio\2019\Community\VC\Tools\MSVC\14.29.30133\atlmfc\include\cstringt.h
; File D:\git\src\IBK\IBK_DRFN\ProjSrc\SrcChartEx\ChartAddIn\ChartAnalysisToolAddIn\Include_Chart\ScaleBaseData.cpp
; File C:\Program Files (x86)\Microsoft Visual Studio\2019\Community\VC\Tools\MSVC\14.29.30133\atlmfc\include\cstringt.h
; File D:\git\src\IBK\IBK_DRFN\ProjSrc\SrcChartEx\ChartAddIn\ChartAnalysisToolAddIn\Include_Chart\ScaleBaseData.cpp
; File C:\Program Files (x86)\Microsoft Visual Studio\2019\Community\VC\Tools\MSVC\14.29.30133\atlmfc\include\cstringt.h
; File C:\Program Files (x86)\Microsoft Visual Studio\2019\Community\VC\Tools\MSVC\14.29.30133\atlmfc\include\atlsimpstr.h
; File C:\Program Files (x86)\Microsoft Visual Studio\2019\Community\VC\Tools\MSVC\14.29.30133\atlmfc\include\cstringt.h
; File D:\git\src\IBK\IBK_DRFN\ProjSrc\SrcChartEx\ChartAddIn\ChartAnalysisToolAddIn\Include_Chart\ScaleBaseData.cpp
; File C:\Program Files (x86)\Microsoft Visual Studio\2019\Community\VC\Tools\MSVC\14.29.30133\atlmfc\include\cstringt.h
; File D:\git\src\IBK\IBK_DRFN\ProjSrc\SrcChartEx\ChartAddIn\ChartAnalysisToolAddIn\Include_Chart\ScaleBaseData.cpp
; File C:\Program Files (x86)\Microsoft Visual Studio\2019\Community\VC\Tools\MSVC\14.29.30133\atlmfc\include\cstringt.h
; File C:\Program Files (x86)\Microsoft Visual Studio\2019\Community\VC\Tools\MSVC\14.29.30133\atlmfc\include\atlsimpstr.h
; File C:\Program Files (x86)\Microsoft Visual Studio\2019\Community\VC\Tools\MSVC\14.29.30133\atlmfc\include\cstringt.h
; File D:\git\src\IBK\IBK_DRFN\ProjSrc\SrcChartEx\ChartAddIn\ChartAnalysisToolAddIn\Include_Chart\ScaleBaseData.cpp
; File C:\Program Files (x86)\Microsoft Visual Studio\2019\Community\VC\Tools\MSVC\14.29.30133\atlmfc\include\cstringt.h
; File D:\git\src\IBK\IBK_DRFN\ProjSrc\SrcChartEx\ChartAddIn\ChartAnalysisToolAddIn\Include_Chart\ScaleBaseData.cpp
; File C:\Program Files (x86)\Microsoft Visual Studio\2019\Community\VC\Tools\MSVC\14.29.30133\atlmfc\include\cstringt.h
; File C:\Program Files (x86)\Microsoft Visual Studio\2019\Community\VC\Tools\MSVC\14.29.30133\atlmfc\include\atlsimpstr.h
; File C:\Program Files (x86)\Microsoft Visual Studio\2019\Community\VC\Tools\MSVC\14.29.30133\atlmfc\include\cstringt.h
; File D:\git\src\IBK\IBK_DRFN\ProjSrc\SrcChartEx\ChartAddIn\ChartAnalysisToolAddIn\Include_Chart\ScaleBaseData.cpp
; File C:\Program Files (x86)\Microsoft Visual Studio\2019\Community\VC\Tools\MSVC\14.29.30133\atlmfc\include\cstringt.h
; File D:\git\src\IBK\IBK_DRFN\ProjSrc\SrcChartEx\ChartAddIn\ChartAnalysisToolAddIn\Include_Chart\ScaleBaseData.cpp
; File C:\Program Files (x86)\Microsoft Visual Studio\2019\Community\VC\Tools\MSVC\14.29.30133\atlmfc\include\cstringt.h
; File C:\Program Files (x86)\Microsoft Visual Studio\2019\Community\VC\Tools\MSVC\14.29.30133\atlmfc\include\atlsimpstr.h
; File C:\Program Files (x86)\Microsoft Visual Studio\2019\Community\VC\Tools\MSVC\14.29.30133\atlmfc\include\cstringt.h
; File D:\git\src\IBK\IBK_DRFN\ProjSrc\SrcChartEx\ChartAddIn\ChartAnalysisToolAddIn\Include_Chart\ScaleBaseData.cpp
;	COMDAT ?GetScaleAllData@CHorizontalScale@@QBE?AV?$CStringT@DV?$StrTraitMFC_DLL@DV?$ChTraitsCRT@D@ATL@@@@@ATL@@XZ
_TEXT	SEGMENT
$T2 = -28						; size = 4
$T3 = -28						; size = 4
$T4 = -28						; size = 4
$T5 = -28						; size = 4
$T6 = -28						; size = 4
$T7 = -28						; size = 4
$T8 = -24						; size = 4
$T9 = -24						; size = 4
$T10 = -24						; size = 4
$T11 = -24						; size = 4
$T12 = -24						; size = 4
$T13 = -24						; size = 4
$T14 = -20						; size = 4
_chTemp$15 = -13					; size = 1
_chTemp$16 = -13					; size = 1
_chTemp$17 = -13					; size = 1
_chTemp$18 = -13					; size = 1
_chTemp$19 = -13					; size = 1
_chTemp$20 = -13					; size = 1
__$EHRec$ = -12						; size = 12
___$ReturnUdt$ = 8					; size = 4
?GetScaleAllData@CHorizontalScale@@QBE?AV?$CStringT@DV?$StrTraitMFC_DLL@DV?$ChTraitsCRT@D@ATL@@@@@ATL@@XZ PROC ; CHorizontalScale::GetScaleAllData, COMDAT
; _this$ = ecx

; 210  : {

  00000	55		 push	 ebp
  00001	8b ec		 mov	 ebp, esp
  00003	6a ff		 push	 -1
  00005	68 00 00 00 00	 push	 __ehhandler$?GetScaleAllData@CHorizontalScale@@QBE?AV?$CStringT@DV?$StrTraitMFC_DLL@DV?$ChTraitsCRT@D@ATL@@@@@ATL@@XZ
  0000a	64 a1 00 00 00
	00		 mov	 eax, DWORD PTR fs:0
  00010	50		 push	 eax
  00011	83 ec 10	 sub	 esp, 16			; 00000010H
  00014	53		 push	 ebx
  00015	56		 push	 esi
  00016	57		 push	 edi
  00017	a1 00 00 00 00	 mov	 eax, DWORD PTR ___security_cookie
  0001c	33 c5		 xor	 eax, ebp
  0001e	50		 push	 eax
  0001f	8d 45 f4	 lea	 eax, DWORD PTR __$EHRec$[ebp]
  00022	64 a3 00 00 00
	00		 mov	 DWORD PTR fs:0, eax
  00028	8b f9		 mov	 edi, ecx
  0002a	c7 45 ec 00 00
	00 00		 mov	 DWORD PTR $T14[ebp], 0

; 211  : 	//  Data;;grid;;;text;log;;
; 212  : 
; 213  : 	CString scaleAllData;

  00031	8b 5d 08	 mov	 ebx, DWORD PTR ___$ReturnUdt$[ebp]
  00034	8b cb		 mov	 ecx, ebx
  00036	ff 15 00 00 00
	00		 call	 DWORD PTR __imp_??0?$CStringT@DV?$StrTraitMFC_DLL@DV?$ChTraitsCRT@D@ATL@@@@@ATL@@QAE@XZ

; 125  : 	return m_strScaleData;

  0003c	8d 47 04	 lea	 eax, DWORD PTR [edi+4]

; 220  : 	return scaleAllData;

  0003f	c7 45 fc 00 00
	00 00		 mov	 DWORD PTR __$EHRec$[ebp+8], 0

; 125  : 	return m_strScaleData;

  00046	50		 push	 eax
  00047	8d 4d e4	 lea	 ecx, DWORD PTR $T7[ebp]

; 220  : 	return scaleAllData;

  0004a	c7 45 ec 01 00
	00 00		 mov	 DWORD PTR $T14[ebp], 1

; 125  : 	return m_strScaleData;

  00051	ff 15 00 00 00
	00		 call	 DWORD PTR __imp_??0?$CStringT@DV?$StrTraitMFC_DLL@DV?$ChTraitsCRT@D@ATL@@@@@ATL@@QAE@ABV01@@Z
; File C:\Program Files (x86)\Microsoft Visual Studio\2019\Community\VC\Tools\MSVC\14.29.30133\atlmfc\include\cstringt.h

; 2429 : 		CStringT strResult( str1.GetManager() );

  00057	8d 4d e4	 lea	 ecx, DWORD PTR $T7[ebp]
; File D:\git\src\IBK\IBK_DRFN\ProjSrc\SrcChartEx\ChartAddIn\ChartAnalysisToolAddIn\Include_Chart\ScaleBaseData.cpp

; 214  : 	scaleAllData += CScale::GetScaleData() + ';';

  0005a	c7 45 fc 02 00
	00 00		 mov	 DWORD PTR __$EHRec$[ebp+8], 2
; File C:\Program Files (x86)\Microsoft Visual Studio\2019\Community\VC\Tools\MSVC\14.29.30133\atlmfc\include\cstringt.h

; 2429 : 		CStringT strResult( str1.GetManager() );

  00061	ff 15 00 00 00
	00		 call	 DWORD PTR __imp_?GetManager@?$CStringT@DV?$StrTraitMFC_DLL@DV?$ChTraitsCRT@D@ATL@@@@@ATL@@QBEPAUIAtlStringMgr@2@XZ
  00067	50		 push	 eax
  00068	8d 4d e8	 lea	 ecx, DWORD PTR $T13[ebp]
  0006b	ff 15 00 00 00
	00		 call	 DWORD PTR __imp_??0?$CStringT@DV?$StrTraitMFC_DLL@DV?$ChTraitsCRT@D@ATL@@@@@ATL@@QAE@PAUIAtlStringMgr@1@@Z
; File C:\Program Files (x86)\Microsoft Visual Studio\2019\Community\VC\Tools\MSVC\14.29.30133\atlmfc\include\atlsimpstr.h

; 519  : 		return( GetData()->nDataLength );

  00071	8b 45 e4	 mov	 eax, DWORD PTR $T7[ebp]
; File C:\Program Files (x86)\Microsoft Visual Studio\2019\Community\VC\Tools\MSVC\14.29.30133\atlmfc\include\cstringt.h

; 2432 : 		CThisSimpleString::Concatenate( strResult, str1, str1.GetLength(), &chTemp, 1 );

  00074	8d 4d f3	 lea	 ecx, DWORD PTR _chTemp$20[ebp]
  00077	6a 01		 push	 1
  00079	51		 push	 ecx
  0007a	c6 45 f3 3b	 mov	 BYTE PTR _chTemp$20[ebp], 59 ; 0000003bH
  0007e	ff 70 f4	 push	 DWORD PTR [eax-12]

; 2434 : 		return( strResult );

  00081	c7 45 ec 07 00
	00 00		 mov	 DWORD PTR $T14[ebp], 7
  00088	50		 push	 eax
  00089	8d 45 e8	 lea	 eax, DWORD PTR $T13[ebp]
  0008c	50		 push	 eax
  0008d	ff 15 00 00 00
	00		 call	 DWORD PTR __imp_?Concatenate@?$CSimpleStringT@D$00@ATL@@KAXAAV12@PBDH1H@Z
  00093	83 c4 14	 add	 esp, 20			; 00000014H
; File D:\git\src\IBK\IBK_DRFN\ProjSrc\SrcChartEx\ChartAddIn\ChartAnalysisToolAddIn\Include_Chart\ScaleBaseData.cpp

; 214  : 	scaleAllData += CScale::GetScaleData() + ';';

  00096	8d 45 e8	 lea	 eax, DWORD PTR $T13[ebp]
  00099	8b cb		 mov	 ecx, ebx
  0009b	50		 push	 eax
  0009c	ff 15 00 00 00
	00		 call	 DWORD PTR __imp_??Y?$CStringT@DV?$StrTraitMFC_DLL@DV?$ChTraitsCRT@D@ATL@@@@@ATL@@QAEAAV01@ABV?$CSimpleStringT@D$00@1@@Z
  000a2	8d 4d e8	 lea	 ecx, DWORD PTR $T13[ebp]
  000a5	c7 45 ec 03 00
	00 00		 mov	 DWORD PTR $T14[ebp], 3
  000ac	ff 15 00 00 00
	00		 call	 DWORD PTR __imp_??1?$CStringT@DV?$StrTraitMFC_DLL@DV?$ChTraitsCRT@D@ATL@@@@@ATL@@QAE@XZ
  000b2	8d 4d e4	 lea	 ecx, DWORD PTR $T7[ebp]
  000b5	c6 45 fc 00	 mov	 BYTE PTR __$EHRec$[ebp+8], 0
  000b9	ff 15 00 00 00
	00		 call	 DWORD PTR __imp_??1?$CStringT@DV?$StrTraitMFC_DLL@DV?$ChTraitsCRT@D@ATL@@@@@ATL@@QAE@XZ

; 215  : 	scaleAllData += CDataConversion::IntToString((int)m_ePosition) + ';';

  000bf	ff 77 0c	 push	 DWORD PTR [edi+12]
  000c2	8d 45 e8	 lea	 eax, DWORD PTR $T12[ebp]
  000c5	50		 push	 eax
  000c6	e8 00 00 00 00	 call	 ?IntToString@CDataConversion@@SA?AV?$CStringT@DV?$StrTraitMFC_DLL@DV?$ChTraitsCRT@D@ATL@@@@@ATL@@H@Z ; CDataConversion::IntToString
  000cb	83 c4 08	 add	 esp, 8
  000ce	8b f0		 mov	 esi, eax
; File C:\Program Files (x86)\Microsoft Visual Studio\2019\Community\VC\Tools\MSVC\14.29.30133\atlmfc\include\cstringt.h

; 2429 : 		CStringT strResult( str1.GetManager() );

  000d0	8b ce		 mov	 ecx, esi
; File D:\git\src\IBK\IBK_DRFN\ProjSrc\SrcChartEx\ChartAddIn\ChartAnalysisToolAddIn\Include_Chart\ScaleBaseData.cpp

; 215  : 	scaleAllData += CDataConversion::IntToString((int)m_ePosition) + ';';

  000d2	c7 45 fc 04 00
	00 00		 mov	 DWORD PTR __$EHRec$[ebp+8], 4
; File C:\Program Files (x86)\Microsoft Visual Studio\2019\Community\VC\Tools\MSVC\14.29.30133\atlmfc\include\cstringt.h

; 2429 : 		CStringT strResult( str1.GetManager() );

  000d9	ff 15 00 00 00
	00		 call	 DWORD PTR __imp_?GetManager@?$CStringT@DV?$StrTraitMFC_DLL@DV?$ChTraitsCRT@D@ATL@@@@@ATL@@QBEPAUIAtlStringMgr@2@XZ
  000df	50		 push	 eax
  000e0	8d 4d e4	 lea	 ecx, DWORD PTR $T6[ebp]
  000e3	ff 15 00 00 00
	00		 call	 DWORD PTR __imp_??0?$CStringT@DV?$StrTraitMFC_DLL@DV?$ChTraitsCRT@D@ATL@@@@@ATL@@QAE@PAUIAtlStringMgr@1@@Z
; File C:\Program Files (x86)\Microsoft Visual Studio\2019\Community\VC\Tools\MSVC\14.29.30133\atlmfc\include\atlsimpstr.h

; 519  : 		return( GetData()->nDataLength );

  000e9	8b 06		 mov	 eax, DWORD PTR [esi]
; File C:\Program Files (x86)\Microsoft Visual Studio\2019\Community\VC\Tools\MSVC\14.29.30133\atlmfc\include\cstringt.h

; 2432 : 		CThisSimpleString::Concatenate( strResult, str1, str1.GetLength(), &chTemp, 1 );

  000eb	8d 4d f3	 lea	 ecx, DWORD PTR _chTemp$19[ebp]
  000ee	6a 01		 push	 1
  000f0	51		 push	 ecx
  000f1	c6 45 f3 3b	 mov	 BYTE PTR _chTemp$19[ebp], 59 ; 0000003bH
  000f5	ff 70 f4	 push	 DWORD PTR [eax-12]

; 2434 : 		return( strResult );

  000f8	c7 45 ec 0b 00
	00 00		 mov	 DWORD PTR $T14[ebp], 11	; 0000000bH
  000ff	50		 push	 eax
  00100	8d 45 e4	 lea	 eax, DWORD PTR $T6[ebp]
  00103	50		 push	 eax
  00104	ff 15 00 00 00
	00		 call	 DWORD PTR __imp_?Concatenate@?$CSimpleStringT@D$00@ATL@@KAXAAV12@PBDH1H@Z
  0010a	83 c4 14	 add	 esp, 20			; 00000014H
; File D:\git\src\IBK\IBK_DRFN\ProjSrc\SrcChartEx\ChartAddIn\ChartAnalysisToolAddIn\Include_Chart\ScaleBaseData.cpp

; 215  : 	scaleAllData += CDataConversion::IntToString((int)m_ePosition) + ';';

  0010d	8d 45 e4	 lea	 eax, DWORD PTR $T6[ebp]
  00110	8b cb		 mov	 ecx, ebx
  00112	50		 push	 eax
  00113	ff 15 00 00 00
	00		 call	 DWORD PTR __imp_??Y?$CStringT@DV?$StrTraitMFC_DLL@DV?$ChTraitsCRT@D@ATL@@@@@ATL@@QAEAAV01@ABV?$CSimpleStringT@D$00@1@@Z
  00119	8d 4d e4	 lea	 ecx, DWORD PTR $T6[ebp]
  0011c	c7 45 ec 03 00
	00 00		 mov	 DWORD PTR $T14[ebp], 3
  00123	ff 15 00 00 00
	00		 call	 DWORD PTR __imp_??1?$CStringT@DV?$StrTraitMFC_DLL@DV?$ChTraitsCRT@D@ATL@@@@@ATL@@QAE@XZ
  00129	8d 4d e8	 lea	 ecx, DWORD PTR $T12[ebp]
  0012c	c6 45 fc 00	 mov	 BYTE PTR __$EHRec$[ebp+8], 0
  00130	ff 15 00 00 00
	00		 call	 DWORD PTR __imp_??1?$CStringT@DV?$StrTraitMFC_DLL@DV?$ChTraitsCRT@D@ATL@@@@@ATL@@QAE@XZ

; 216  : 	scaleAllData += CDataConversion::IntToString((int)CScale::GetGridType()) + ';';

  00136	ff 77 08	 push	 DWORD PTR [edi+8]
  00139	8d 45 e8	 lea	 eax, DWORD PTR $T11[ebp]
  0013c	50		 push	 eax
  0013d	e8 00 00 00 00	 call	 ?IntToString@CDataConversion@@SA?AV?$CStringT@DV?$StrTraitMFC_DLL@DV?$ChTraitsCRT@D@ATL@@@@@ATL@@H@Z ; CDataConversion::IntToString
  00142	83 c4 08	 add	 esp, 8
  00145	8b f0		 mov	 esi, eax
; File C:\Program Files (x86)\Microsoft Visual Studio\2019\Community\VC\Tools\MSVC\14.29.30133\atlmfc\include\cstringt.h

; 2429 : 		CStringT strResult( str1.GetManager() );

  00147	8b ce		 mov	 ecx, esi
; File D:\git\src\IBK\IBK_DRFN\ProjSrc\SrcChartEx\ChartAddIn\ChartAnalysisToolAddIn\Include_Chart\ScaleBaseData.cpp

; 216  : 	scaleAllData += CDataConversion::IntToString((int)CScale::GetGridType()) + ';';

  00149	c7 45 fc 06 00
	00 00		 mov	 DWORD PTR __$EHRec$[ebp+8], 6
; File C:\Program Files (x86)\Microsoft Visual Studio\2019\Community\VC\Tools\MSVC\14.29.30133\atlmfc\include\cstringt.h

; 2429 : 		CStringT strResult( str1.GetManager() );

  00150	ff 15 00 00 00
	00		 call	 DWORD PTR __imp_?GetManager@?$CStringT@DV?$StrTraitMFC_DLL@DV?$ChTraitsCRT@D@ATL@@@@@ATL@@QBEPAUIAtlStringMgr@2@XZ
  00156	50		 push	 eax
  00157	8d 4d e4	 lea	 ecx, DWORD PTR $T5[ebp]
  0015a	ff 15 00 00 00
	00		 call	 DWORD PTR __imp_??0?$CStringT@DV?$StrTraitMFC_DLL@DV?$ChTraitsCRT@D@ATL@@@@@ATL@@QAE@PAUIAtlStringMgr@1@@Z
; File C:\Program Files (x86)\Microsoft Visual Studio\2019\Community\VC\Tools\MSVC\14.29.30133\atlmfc\include\atlsimpstr.h

; 519  : 		return( GetData()->nDataLength );

  00160	8b 06		 mov	 eax, DWORD PTR [esi]
; File C:\Program Files (x86)\Microsoft Visual Studio\2019\Community\VC\Tools\MSVC\14.29.30133\atlmfc\include\cstringt.h

; 2432 : 		CThisSimpleString::Concatenate( strResult, str1, str1.GetLength(), &chTemp, 1 );

  00162	8d 4d f3	 lea	 ecx, DWORD PTR _chTemp$18[ebp]
  00165	6a 01		 push	 1
  00167	51		 push	 ecx
  00168	c6 45 f3 3b	 mov	 BYTE PTR _chTemp$18[ebp], 59 ; 0000003bH
  0016c	ff 70 f4	 push	 DWORD PTR [eax-12]

; 2434 : 		return( strResult );

  0016f	c7 45 ec 13 00
	00 00		 mov	 DWORD PTR $T14[ebp], 19	; 00000013H
  00176	50		 push	 eax
  00177	8d 45 e4	 lea	 eax, DWORD PTR $T5[ebp]
  0017a	50		 push	 eax
  0017b	ff 15 00 00 00
	00		 call	 DWORD PTR __imp_?Concatenate@?$CSimpleStringT@D$00@ATL@@KAXAAV12@PBDH1H@Z
  00181	83 c4 14	 add	 esp, 20			; 00000014H
; File D:\git\src\IBK\IBK_DRFN\ProjSrc\SrcChartEx\ChartAddIn\ChartAnalysisToolAddIn\Include_Chart\ScaleBaseData.cpp

; 216  : 	scaleAllData += CDataConversion::IntToString((int)CScale::GetGridType()) + ';';

  00184	8d 45 e4	 lea	 eax, DWORD PTR $T5[ebp]
  00187	8b cb		 mov	 ecx, ebx
  00189	50		 push	 eax
  0018a	ff 15 00 00 00
	00		 call	 DWORD PTR __imp_??Y?$CStringT@DV?$StrTraitMFC_DLL@DV?$ChTraitsCRT@D@ATL@@@@@ATL@@QAEAAV01@ABV?$CSimpleStringT@D$00@1@@Z
  00190	8d 4d e4	 lea	 ecx, DWORD PTR $T5[ebp]
  00193	c7 45 ec 03 00
	00 00		 mov	 DWORD PTR $T14[ebp], 3
  0019a	ff 15 00 00 00
	00		 call	 DWORD PTR __imp_??1?$CStringT@DV?$StrTraitMFC_DLL@DV?$ChTraitsCRT@D@ATL@@@@@ATL@@QAE@XZ
  001a0	8d 4d e8	 lea	 ecx, DWORD PTR $T11[ebp]
  001a3	c6 45 fc 00	 mov	 BYTE PTR __$EHRec$[ebp+8], 0
  001a7	ff 15 00 00 00
	00		 call	 DWORD PTR __imp_??1?$CStringT@DV?$StrTraitMFC_DLL@DV?$ChTraitsCRT@D@ATL@@@@@ATL@@QAE@XZ

; 48   : 	return m_strDateCompart;

  001ad	8d 47 10	 lea	 eax, DWORD PTR [edi+16]
  001b0	50		 push	 eax
  001b1	8d 4d e8	 lea	 ecx, DWORD PTR $T10[ebp]
  001b4	ff 15 00 00 00
	00		 call	 DWORD PTR __imp_??0?$CStringT@DV?$StrTraitMFC_DLL@DV?$ChTraitsCRT@D@ATL@@@@@ATL@@QAE@ABV01@@Z
; File C:\Program Files (x86)\Microsoft Visual Studio\2019\Community\VC\Tools\MSVC\14.29.30133\atlmfc\include\cstringt.h

; 2429 : 		CStringT strResult( str1.GetManager() );

  001ba	8d 4d e8	 lea	 ecx, DWORD PTR $T10[ebp]
; File D:\git\src\IBK\IBK_DRFN\ProjSrc\SrcChartEx\ChartAddIn\ChartAnalysisToolAddIn\Include_Chart\ScaleBaseData.cpp

; 217  : 	scaleAllData += m_scaleCompart.GetDateCompart() + ';';

  001bd	c7 45 fc 08 00
	00 00		 mov	 DWORD PTR __$EHRec$[ebp+8], 8
; File C:\Program Files (x86)\Microsoft Visual Studio\2019\Community\VC\Tools\MSVC\14.29.30133\atlmfc\include\cstringt.h

; 2429 : 		CStringT strResult( str1.GetManager() );

  001c4	ff 15 00 00 00
	00		 call	 DWORD PTR __imp_?GetManager@?$CStringT@DV?$StrTraitMFC_DLL@DV?$ChTraitsCRT@D@ATL@@@@@ATL@@QBEPAUIAtlStringMgr@2@XZ
  001ca	50		 push	 eax
  001cb	8d 4d e4	 lea	 ecx, DWORD PTR $T4[ebp]
  001ce	ff 15 00 00 00
	00		 call	 DWORD PTR __imp_??0?$CStringT@DV?$StrTraitMFC_DLL@DV?$ChTraitsCRT@D@ATL@@@@@ATL@@QAE@PAUIAtlStringMgr@1@@Z
; File C:\Program Files (x86)\Microsoft Visual Studio\2019\Community\VC\Tools\MSVC\14.29.30133\atlmfc\include\atlsimpstr.h

; 519  : 		return( GetData()->nDataLength );

  001d4	8b 45 e8	 mov	 eax, DWORD PTR $T10[ebp]
; File C:\Program Files (x86)\Microsoft Visual Studio\2019\Community\VC\Tools\MSVC\14.29.30133\atlmfc\include\cstringt.h

; 2432 : 		CThisSimpleString::Concatenate( strResult, str1, str1.GetLength(), &chTemp, 1 );

  001d7	8d 4d f3	 lea	 ecx, DWORD PTR _chTemp$17[ebp]
  001da	6a 01		 push	 1
  001dc	51		 push	 ecx
  001dd	c6 45 f3 3b	 mov	 BYTE PTR _chTemp$17[ebp], 59 ; 0000003bH
  001e1	ff 70 f4	 push	 DWORD PTR [eax-12]

; 2434 : 		return( strResult );

  001e4	c7 45 ec 63 00
	00 00		 mov	 DWORD PTR $T14[ebp], 99	; 00000063H
  001eb	50		 push	 eax
  001ec	8d 45 e4	 lea	 eax, DWORD PTR $T4[ebp]
  001ef	50		 push	 eax
  001f0	ff 15 00 00 00
	00		 call	 DWORD PTR __imp_?Concatenate@?$CSimpleStringT@D$00@ATL@@KAXAAV12@PBDH1H@Z
  001f6	83 c4 14	 add	 esp, 20			; 00000014H
; File D:\git\src\IBK\IBK_DRFN\ProjSrc\SrcChartEx\ChartAddIn\ChartAnalysisToolAddIn\Include_Chart\ScaleBaseData.cpp

; 217  : 	scaleAllData += m_scaleCompart.GetDateCompart() + ';';

  001f9	8d 45 e4	 lea	 eax, DWORD PTR $T4[ebp]
  001fc	8b cb		 mov	 ecx, ebx
  001fe	50		 push	 eax
  001ff	ff 15 00 00 00
	00		 call	 DWORD PTR __imp_??Y?$CStringT@DV?$StrTraitMFC_DLL@DV?$ChTraitsCRT@D@ATL@@@@@ATL@@QAEAAV01@ABV?$CSimpleStringT@D$00@1@@Z
  00205	8d 4d e4	 lea	 ecx, DWORD PTR $T4[ebp]
  00208	c7 45 ec 23 00
	00 00		 mov	 DWORD PTR $T14[ebp], 35	; 00000023H
  0020f	ff 15 00 00 00
	00		 call	 DWORD PTR __imp_??1?$CStringT@DV?$StrTraitMFC_DLL@DV?$ChTraitsCRT@D@ATL@@@@@ATL@@QAE@XZ
  00215	8d 4d e8	 lea	 ecx, DWORD PTR $T10[ebp]
  00218	c6 45 fc 00	 mov	 BYTE PTR __$EHRec$[ebp+8], 0
  0021c	ff 15 00 00 00
	00		 call	 DWORD PTR __imp_??1?$CStringT@DV?$StrTraitMFC_DLL@DV?$ChTraitsCRT@D@ATL@@@@@ATL@@QAE@XZ

; 53   : 	return m_strTimeCompart;

  00222	8d 47 14	 lea	 eax, DWORD PTR [edi+20]
  00225	50		 push	 eax
  00226	8d 4d e8	 lea	 ecx, DWORD PTR $T9[ebp]
  00229	ff 15 00 00 00
	00		 call	 DWORD PTR __imp_??0?$CStringT@DV?$StrTraitMFC_DLL@DV?$ChTraitsCRT@D@ATL@@@@@ATL@@QAE@ABV01@@Z
; File C:\Program Files (x86)\Microsoft Visual Studio\2019\Community\VC\Tools\MSVC\14.29.30133\atlmfc\include\cstringt.h

; 2429 : 		CStringT strResult( str1.GetManager() );

  0022f	8d 4d e8	 lea	 ecx, DWORD PTR $T9[ebp]
; File D:\git\src\IBK\IBK_DRFN\ProjSrc\SrcChartEx\ChartAddIn\ChartAnalysisToolAddIn\Include_Chart\ScaleBaseData.cpp

; 218  : 	scaleAllData += m_scaleCompart.GetTimeCompart() + ';';

  00232	c7 45 fc 0a 00
	00 00		 mov	 DWORD PTR __$EHRec$[ebp+8], 10 ; 0000000aH
; File C:\Program Files (x86)\Microsoft Visual Studio\2019\Community\VC\Tools\MSVC\14.29.30133\atlmfc\include\cstringt.h

; 2429 : 		CStringT strResult( str1.GetManager() );

  00239	ff 15 00 00 00
	00		 call	 DWORD PTR __imp_?GetManager@?$CStringT@DV?$StrTraitMFC_DLL@DV?$ChTraitsCRT@D@ATL@@@@@ATL@@QBEPAUIAtlStringMgr@2@XZ
  0023f	50		 push	 eax
  00240	8d 4d e4	 lea	 ecx, DWORD PTR $T3[ebp]
  00243	ff 15 00 00 00
	00		 call	 DWORD PTR __imp_??0?$CStringT@DV?$StrTraitMFC_DLL@DV?$ChTraitsCRT@D@ATL@@@@@ATL@@QAE@PAUIAtlStringMgr@1@@Z
; File C:\Program Files (x86)\Microsoft Visual Studio\2019\Community\VC\Tools\MSVC\14.29.30133\atlmfc\include\atlsimpstr.h

; 519  : 		return( GetData()->nDataLength );

  00249	8b 45 e8	 mov	 eax, DWORD PTR $T9[ebp]
; File C:\Program Files (x86)\Microsoft Visual Studio\2019\Community\VC\Tools\MSVC\14.29.30133\atlmfc\include\cstringt.h

; 2434 : 		return( strResult );

  0024c	c7 45 ec a3 01
	00 00		 mov	 DWORD PTR $T14[ebp], 419 ; 000001a3H
  00253	c6 45 f3 3b	 mov	 BYTE PTR _chTemp$16[ebp], 59 ; 0000003bH

; 2432 : 		CThisSimpleString::Concatenate( strResult, str1, str1.GetLength(), &chTemp, 1 );

  00257	6a 01		 push	 1
  00259	8d 4d f3	 lea	 ecx, DWORD PTR _chTemp$16[ebp]
  0025c	51		 push	 ecx
  0025d	ff 70 f4	 push	 DWORD PTR [eax-12]
  00260	50		 push	 eax
  00261	8d 45 e4	 lea	 eax, DWORD PTR $T3[ebp]
  00264	50		 push	 eax
  00265	ff 15 00 00 00
	00		 call	 DWORD PTR __imp_?Concatenate@?$CSimpleStringT@D$00@ATL@@KAXAAV12@PBDH1H@Z
  0026b	83 c4 14	 add	 esp, 20			; 00000014H
; File D:\git\src\IBK\IBK_DRFN\ProjSrc\SrcChartEx\ChartAddIn\ChartAnalysisToolAddIn\Include_Chart\ScaleBaseData.cpp

; 218  : 	scaleAllData += m_scaleCompart.GetTimeCompart() + ';';

  0026e	8d 45 e4	 lea	 eax, DWORD PTR $T3[ebp]
  00271	8b cb		 mov	 ecx, ebx
  00273	50		 push	 eax
  00274	ff 15 00 00 00
	00		 call	 DWORD PTR __imp_??Y?$CStringT@DV?$StrTraitMFC_DLL@DV?$ChTraitsCRT@D@ATL@@@@@ATL@@QAEAAV01@ABV?$CSimpleStringT@D$00@1@@Z
  0027a	8d 4d e4	 lea	 ecx, DWORD PTR $T3[ebp]
  0027d	c7 45 ec a3 00
	00 00		 mov	 DWORD PTR $T14[ebp], 163 ; 000000a3H
  00284	ff 15 00 00 00
	00		 call	 DWORD PTR __imp_??1?$CStringT@DV?$StrTraitMFC_DLL@DV?$ChTraitsCRT@D@ATL@@@@@ATL@@QAE@XZ
  0028a	8d 4d e8	 lea	 ecx, DWORD PTR $T9[ebp]
  0028d	c6 45 fc 00	 mov	 BYTE PTR __$EHRec$[ebp+8], 0
  00291	ff 15 00 00 00
	00		 call	 DWORD PTR __imp_??1?$CStringT@DV?$StrTraitMFC_DLL@DV?$ChTraitsCRT@D@ATL@@@@@ATL@@QAE@XZ

; 219  : 	scaleAllData += CDataConversion::IntToString((int)m_scaleCompart.GetScaleTextType()) + ';';

  00297	ff 77 18	 push	 DWORD PTR [edi+24]
  0029a	8d 45 e8	 lea	 eax, DWORD PTR $T8[ebp]
  0029d	50		 push	 eax
  0029e	e8 00 00 00 00	 call	 ?IntToString@CDataConversion@@SA?AV?$CStringT@DV?$StrTraitMFC_DLL@DV?$ChTraitsCRT@D@ATL@@@@@ATL@@H@Z ; CDataConversion::IntToString
  002a3	83 c4 08	 add	 esp, 8
  002a6	8b f0		 mov	 esi, eax
; File C:\Program Files (x86)\Microsoft Visual Studio\2019\Community\VC\Tools\MSVC\14.29.30133\atlmfc\include\cstringt.h

; 2429 : 		CStringT strResult( str1.GetManager() );

  002a8	8b ce		 mov	 ecx, esi
; File D:\git\src\IBK\IBK_DRFN\ProjSrc\SrcChartEx\ChartAddIn\ChartAnalysisToolAddIn\Include_Chart\ScaleBaseData.cpp

; 219  : 	scaleAllData += CDataConversion::IntToString((int)m_scaleCompart.GetScaleTextType()) + ';';

  002aa	c7 45 fc 0c 00
	00 00		 mov	 DWORD PTR __$EHRec$[ebp+8], 12 ; 0000000cH
; File C:\Program Files (x86)\Microsoft Visual Studio\2019\Community\VC\Tools\MSVC\14.29.30133\atlmfc\include\cstringt.h

; 2429 : 		CStringT strResult( str1.GetManager() );

  002b1	ff 15 00 00 00
	00		 call	 DWORD PTR __imp_?GetManager@?$CStringT@DV?$StrTraitMFC_DLL@DV?$ChTraitsCRT@D@ATL@@@@@ATL@@QBEPAUIAtlStringMgr@2@XZ
  002b7	50		 push	 eax
  002b8	8d 4d e4	 lea	 ecx, DWORD PTR $T2[ebp]
  002bb	ff 15 00 00 00
	00		 call	 DWORD PTR __imp_??0?$CStringT@DV?$StrTraitMFC_DLL@DV?$ChTraitsCRT@D@ATL@@@@@ATL@@QAE@PAUIAtlStringMgr@1@@Z
; File C:\Program Files (x86)\Microsoft Visual Studio\2019\Community\VC\Tools\MSVC\14.29.30133\atlmfc\include\atlsimpstr.h

; 519  : 		return( GetData()->nDataLength );

  002c1	8b 06		 mov	 eax, DWORD PTR [esi]
; File C:\Program Files (x86)\Microsoft Visual Studio\2019\Community\VC\Tools\MSVC\14.29.30133\atlmfc\include\cstringt.h

; 2432 : 		CThisSimpleString::Concatenate( strResult, str1, str1.GetLength(), &chTemp, 1 );

  002c3	8d 4d f3	 lea	 ecx, DWORD PTR _chTemp$15[ebp]
  002c6	6a 01		 push	 1
  002c8	51		 push	 ecx
  002c9	c6 45 f3 3b	 mov	 BYTE PTR _chTemp$15[ebp], 59 ; 0000003bH
  002cd	ff 70 f4	 push	 DWORD PTR [eax-12]

; 2434 : 		return( strResult );

  002d0	c7 45 ec a3 02
	00 00		 mov	 DWORD PTR $T14[ebp], 675 ; 000002a3H
  002d7	50		 push	 eax
  002d8	8d 45 e4	 lea	 eax, DWORD PTR $T2[ebp]
  002db	50		 push	 eax
  002dc	ff 15 00 00 00
	00		 call	 DWORD PTR __imp_?Concatenate@?$CSimpleStringT@D$00@ATL@@KAXAAV12@PBDH1H@Z
  002e2	83 c4 14	 add	 esp, 20			; 00000014H
; File D:\git\src\IBK\IBK_DRFN\ProjSrc\SrcChartEx\ChartAddIn\ChartAnalysisToolAddIn\Include_Chart\ScaleBaseData.cpp

; 219  : 	scaleAllData += CDataConversion::IntToString((int)m_scaleCompart.GetScaleTextType()) + ';';

  002e5	8d 45 e4	 lea	 eax, DWORD PTR $T2[ebp]
  002e8	8b cb		 mov	 ecx, ebx
  002ea	50		 push	 eax
  002eb	ff 15 00 00 00
	00		 call	 DWORD PTR __imp_??Y?$CStringT@DV?$StrTraitMFC_DLL@DV?$ChTraitsCRT@D@ATL@@@@@ATL@@QAEAAV01@ABV?$CSimpleStringT@D$00@1@@Z
  002f1	8d 4d e4	 lea	 ecx, DWORD PTR $T2[ebp]
  002f4	ff 15 00 00 00
	00		 call	 DWORD PTR __imp_??1?$CStringT@DV?$StrTraitMFC_DLL@DV?$ChTraitsCRT@D@ATL@@@@@ATL@@QAE@XZ
  002fa	8d 4d e8	 lea	 ecx, DWORD PTR $T8[ebp]
  002fd	ff 15 00 00 00
	00		 call	 DWORD PTR __imp_??1?$CStringT@DV?$StrTraitMFC_DLL@DV?$ChTraitsCRT@D@ATL@@@@@ATL@@QAE@XZ

; 220  : 	return scaleAllData;

  00303	8b c3		 mov	 eax, ebx

; 221  : }

  00305	8b 4d f4	 mov	 ecx, DWORD PTR __$EHRec$[ebp]
  00308	64 89 0d 00 00
	00 00		 mov	 DWORD PTR fs:0, ecx
  0030f	59		 pop	 ecx
  00310	5f		 pop	 edi
  00311	5e		 pop	 esi
  00312	5b		 pop	 ebx
  00313	8b e5		 mov	 esp, ebp
  00315	5d		 pop	 ebp
  00316	c2 04 00	 ret	 4
_TEXT	ENDS
;	COMDAT text$x
text$x	SEGMENT
__unwindfunclet$?GetScaleAllData@CHorizontalScale@@QBE?AV?$CStringT@DV?$StrTraitMFC_DLL@DV?$ChTraitsCRT@D@ATL@@@@@ATL@@XZ$0:
  00000	8b 45 ec	 mov	 eax, DWORD PTR $T14[ebp]
  00003	83 e0 01	 and	 eax, 1
  00006	0f 84 0d 00 00
	00		 je	 $LN4@GetScaleAl
  0000c	83 65 ec fe	 and	 DWORD PTR $T14[ebp], -2	; fffffffeH
  00010	8b 4d 08	 mov	 ecx, DWORD PTR ___$ReturnUdt$[ebp]
  00013	ff 25 00 00 00
	00		 jmp	 DWORD PTR __imp_??1?$CStringT@DV?$StrTraitMFC_DLL@DV?$ChTraitsCRT@D@ATL@@@@@ATL@@QAE@XZ
$LN4@GetScaleAl:
  00019	c3		 ret	 0
__unwindfunclet$?GetScaleAllData@CHorizontalScale@@QBE?AV?$CStringT@DV?$StrTraitMFC_DLL@DV?$ChTraitsCRT@D@ATL@@@@@ATL@@XZ$1:
  0001a	8d 4d e4	 lea	 ecx, DWORD PTR $T7[ebp]
  0001d	ff 25 00 00 00
	00		 jmp	 DWORD PTR __imp_??1?$CStringT@DV?$StrTraitMFC_DLL@DV?$ChTraitsCRT@D@ATL@@@@@ATL@@QAE@XZ
__unwindfunclet$?GetScaleAllData@CHorizontalScale@@QBE?AV?$CStringT@DV?$StrTraitMFC_DLL@DV?$ChTraitsCRT@D@ATL@@@@@ATL@@XZ$14:
  00023	8b 45 ec	 mov	 eax, DWORD PTR $T14[ebp]
  00026	83 e0 04	 and	 eax, 4
  00029	0f 84 0d 00 00
	00		 je	 $LN24@GetScaleAl
  0002f	83 65 ec fb	 and	 DWORD PTR $T14[ebp], -5	; fffffffbH
  00033	8d 4d e8	 lea	 ecx, DWORD PTR $T13[ebp]
  00036	ff 25 00 00 00
	00		 jmp	 DWORD PTR __imp_??1?$CStringT@DV?$StrTraitMFC_DLL@DV?$ChTraitsCRT@D@ATL@@@@@ATL@@QAE@XZ
$LN24@GetScaleAl:
  0003c	c3		 ret	 0
__unwindfunclet$?GetScaleAllData@CHorizontalScale@@QBE?AV?$CStringT@DV?$StrTraitMFC_DLL@DV?$ChTraitsCRT@D@ATL@@@@@ATL@@XZ$3:
  0003d	8d 4d e8	 lea	 ecx, DWORD PTR $T12[ebp]
  00040	ff 25 00 00 00
	00		 jmp	 DWORD PTR __imp_??1?$CStringT@DV?$StrTraitMFC_DLL@DV?$ChTraitsCRT@D@ATL@@@@@ATL@@QAE@XZ
__unwindfunclet$?GetScaleAllData@CHorizontalScale@@QBE?AV?$CStringT@DV?$StrTraitMFC_DLL@DV?$ChTraitsCRT@D@ATL@@@@@ATL@@XZ$15:
  00046	8b 45 ec	 mov	 eax, DWORD PTR $T14[ebp]
  00049	83 e0 08	 and	 eax, 8
  0004c	0f 84 0d 00 00
	00		 je	 $LN34@GetScaleAl
  00052	83 65 ec f7	 and	 DWORD PTR $T14[ebp], -9	; fffffff7H
  00056	8d 4d e4	 lea	 ecx, DWORD PTR $T6[ebp]
  00059	ff 25 00 00 00
	00		 jmp	 DWORD PTR __imp_??1?$CStringT@DV?$StrTraitMFC_DLL@DV?$ChTraitsCRT@D@ATL@@@@@ATL@@QAE@XZ
$LN34@GetScaleAl:
  0005f	c3		 ret	 0
__unwindfunclet$?GetScaleAllData@CHorizontalScale@@QBE?AV?$CStringT@DV?$StrTraitMFC_DLL@DV?$ChTraitsCRT@D@ATL@@@@@ATL@@XZ$5:
  00060	8d 4d e8	 lea	 ecx, DWORD PTR $T11[ebp]
  00063	ff 25 00 00 00
	00		 jmp	 DWORD PTR __imp_??1?$CStringT@DV?$StrTraitMFC_DLL@DV?$ChTraitsCRT@D@ATL@@@@@ATL@@QAE@XZ
__unwindfunclet$?GetScaleAllData@CHorizontalScale@@QBE?AV?$CStringT@DV?$StrTraitMFC_DLL@DV?$ChTraitsCRT@D@ATL@@@@@ATL@@XZ$16:
  00069	8b 45 ec	 mov	 eax, DWORD PTR $T14[ebp]
  0006c	83 e0 10	 and	 eax, 16			; 00000010H
  0006f	0f 84 0d 00 00
	00		 je	 $LN44@GetScaleAl
  00075	83 65 ec ef	 and	 DWORD PTR $T14[ebp], -17 ; ffffffefH
  00079	8d 4d e4	 lea	 ecx, DWORD PTR $T5[ebp]
  0007c	ff 25 00 00 00
	00		 jmp	 DWORD PTR __imp_??1?$CStringT@DV?$StrTraitMFC_DLL@DV?$ChTraitsCRT@D@ATL@@@@@ATL@@QAE@XZ
$LN44@GetScaleAl:
  00082	c3		 ret	 0
__unwindfunclet$?GetScaleAllData@CHorizontalScale@@QBE?AV?$CStringT@DV?$StrTraitMFC_DLL@DV?$ChTraitsCRT@D@ATL@@@@@ATL@@XZ$7:
  00083	8d 4d e8	 lea	 ecx, DWORD PTR $T10[ebp]
  00086	ff 25 00 00 00
	00		 jmp	 DWORD PTR __imp_??1?$CStringT@DV?$StrTraitMFC_DLL@DV?$ChTraitsCRT@D@ATL@@@@@ATL@@QAE@XZ
__unwindfunclet$?GetScaleAllData@CHorizontalScale@@QBE?AV?$CStringT@DV?$StrTraitMFC_DLL@DV?$ChTraitsCRT@D@ATL@@@@@ATL@@XZ$18:
  0008c	8b 45 ec	 mov	 eax, DWORD PTR $T14[ebp]
  0008f	83 e0 40	 and	 eax, 64			; 00000040H
  00092	0f 84 0d 00 00
	00		 je	 $LN58@GetScaleAl
  00098	83 65 ec bf	 and	 DWORD PTR $T14[ebp], -65 ; ffffffbfH
  0009c	8d 4d e4	 lea	 ecx, DWORD PTR $T4[ebp]
  0009f	ff 25 00 00 00
	00		 jmp	 DWORD PTR __imp_??1?$CStringT@DV?$StrTraitMFC_DLL@DV?$ChTraitsCRT@D@ATL@@@@@ATL@@QAE@XZ
$LN58@GetScaleAl:
  000a5	c3		 ret	 0
__unwindfunclet$?GetScaleAllData@CHorizontalScale@@QBE?AV?$CStringT@DV?$StrTraitMFC_DLL@DV?$ChTraitsCRT@D@ATL@@@@@ATL@@XZ$9:
  000a6	8d 4d e8	 lea	 ecx, DWORD PTR $T9[ebp]
  000a9	ff 25 00 00 00
	00		 jmp	 DWORD PTR __imp_??1?$CStringT@DV?$StrTraitMFC_DLL@DV?$ChTraitsCRT@D@ATL@@@@@ATL@@QAE@XZ
__unwindfunclet$?GetScaleAllData@CHorizontalScale@@QBE?AV?$CStringT@DV?$StrTraitMFC_DLL@DV?$ChTraitsCRT@D@ATL@@@@@ATL@@XZ$20:
  000af	8b 45 ec	 mov	 eax, DWORD PTR $T14[ebp]
  000b2	25 00 01 00 00	 and	 eax, 256		; 00000100H
  000b7	0f 84 10 00 00
	00		 je	 $LN72@GetScaleAl
  000bd	81 65 ec ff fe
	ff ff		 and	 DWORD PTR $T14[ebp], -257 ; fffffeffH
  000c4	8d 4d e4	 lea	 ecx, DWORD PTR $T3[ebp]
  000c7	ff 25 00 00 00
	00		 jmp	 DWORD PTR __imp_??1?$CStringT@DV?$StrTraitMFC_DLL@DV?$ChTraitsCRT@D@ATL@@@@@ATL@@QAE@XZ
$LN72@GetScaleAl:
  000cd	c3		 ret	 0
__unwindfunclet$?GetScaleAllData@CHorizontalScale@@QBE?AV?$CStringT@DV?$StrTraitMFC_DLL@DV?$ChTraitsCRT@D@ATL@@@@@ATL@@XZ$11:
  000ce	8d 4d e8	 lea	 ecx, DWORD PTR $T8[ebp]
  000d1	ff 25 00 00 00
	00		 jmp	 DWORD PTR __imp_??1?$CStringT@DV?$StrTraitMFC_DLL@DV?$ChTraitsCRT@D@ATL@@@@@ATL@@QAE@XZ
__unwindfunclet$?GetScaleAllData@CHorizontalScale@@QBE?AV?$CStringT@DV?$StrTraitMFC_DLL@DV?$ChTraitsCRT@D@ATL@@@@@ATL@@XZ$21:
  000d7	8b 45 ec	 mov	 eax, DWORD PTR $T14[ebp]
  000da	25 00 02 00 00	 and	 eax, 512		; 00000200H
  000df	0f 84 10 00 00
	00		 je	 $LN82@GetScaleAl
  000e5	81 65 ec ff fd
	ff ff		 and	 DWORD PTR $T14[ebp], -513 ; fffffdffH
  000ec	8d 4d e4	 lea	 ecx, DWORD PTR $T2[ebp]
  000ef	ff 25 00 00 00
	00		 jmp	 DWORD PTR __imp_??1?$CStringT@DV?$StrTraitMFC_DLL@DV?$ChTraitsCRT@D@ATL@@@@@ATL@@QAE@XZ
$LN82@GetScaleAl:
  000f5	c3		 ret	 0
  000f6	cc		 int	 3
  000f7	cc		 int	 3
  000f8	cc		 int	 3
  000f9	cc		 int	 3
  000fa	cc		 int	 3
__ehhandler$?GetScaleAllData@CHorizontalScale@@QBE?AV?$CStringT@DV?$StrTraitMFC_DLL@DV?$ChTraitsCRT@D@ATL@@@@@ATL@@XZ:
  000fb	90		 npad	 1
  000fc	90		 npad	 1
  000fd	8b 54 24 08	 mov	 edx, DWORD PTR [esp+8]
  00101	8d 42 0c	 lea	 eax, DWORD PTR [edx+12]
  00104	8b 4a e0	 mov	 ecx, DWORD PTR [edx-32]
  00107	33 c8		 xor	 ecx, eax
  00109	e8 00 00 00 00	 call	 @__security_check_cookie@4
  0010e	b8 00 00 00 00	 mov	 eax, OFFSET __ehfuncinfo$?GetScaleAllData@CHorizontalScale@@QBE?AV?$CStringT@DV?$StrTraitMFC_DLL@DV?$ChTraitsCRT@D@ATL@@@@@ATL@@XZ
  00113	e9 00 00 00 00	 jmp	 ___CxxFrameHandler3
text$x	ENDS
?GetScaleAllData@CHorizontalScale@@QBE?AV?$CStringT@DV?$StrTraitMFC_DLL@DV?$ChTraitsCRT@D@ATL@@@@@ATL@@XZ ENDP ; CHorizontalScale::GetScaleAllData
; Function compile flags: /Ogtp
; File D:\git\src\IBK\IBK_DRFN\ProjSrc\SrcChartEx\ChartAddIn\ChartAnalysisToolAddIn\Include_Chart\ScaleBaseData.cpp
;	COMDAT ?GetScaleCompart@CHorizontalScale@@QAEAAVCScaleCompart@@XZ
_TEXT	SEGMENT
?GetScaleCompart@CHorizontalScale@@QAEAAVCScaleCompart@@XZ PROC ; CHorizontalScale::GetScaleCompart, COMDAT
; _this$ = ecx

; 200  : 	return m_scaleCompart;

  00000	8d 41 10	 lea	 eax, DWORD PTR [ecx+16]

; 201  : }

  00003	c3		 ret	 0
?GetScaleCompart@CHorizontalScale@@QAEAAVCScaleCompart@@XZ ENDP ; CHorizontalScale::GetScaleCompart
_TEXT	ENDS
; Function compile flags: /Ogtp
; File D:\git\src\IBK\IBK_DRFN\ProjSrc\SrcChartEx\ChartAddIn\ChartAnalysisToolAddIn\Include_Chart\ScaleBaseData.cpp
;	COMDAT ?GetScaleCompart@CHorizontalScale@@QBE?AVCScaleCompart@@XZ
_TEXT	SEGMENT
__$EHRec$ = -12						; size = 12
___$ReturnUdt$ = 8					; size = 4
?GetScaleCompart@CHorizontalScale@@QBE?AVCScaleCompart@@XZ PROC ; CHorizontalScale::GetScaleCompart, COMDAT
; _this$ = ecx

; 194  : {

  00000	55		 push	 ebp
  00001	8b ec		 mov	 ebp, esp
  00003	6a ff		 push	 -1
  00005	68 00 00 00 00	 push	 __ehhandler$?GetScaleCompart@CHorizontalScale@@QBE?AVCScaleCompart@@XZ
  0000a	64 a1 00 00 00
	00		 mov	 eax, DWORD PTR fs:0
  00010	50		 push	 eax
  00011	56		 push	 esi
  00012	57		 push	 edi
  00013	a1 00 00 00 00	 mov	 eax, DWORD PTR ___security_cookie
  00018	33 c5		 xor	 eax, ebp
  0001a	50		 push	 eax
  0001b	8d 45 f4	 lea	 eax, DWORD PTR __$EHRec$[ebp]
  0001e	64 a3 00 00 00
	00		 mov	 DWORD PTR fs:0, eax

; 195  : 	return m_scaleCompart;

  00024	8b 75 08	 mov	 esi, DWORD PTR ___$ReturnUdt$[ebp]
  00027	8d 79 10	 lea	 edi, DWORD PTR [ecx+16]
  0002a	57		 push	 edi
  0002b	8b ce		 mov	 ecx, esi
  0002d	ff 15 00 00 00
	00		 call	 DWORD PTR __imp_??0?$CStringT@DV?$StrTraitMFC_DLL@DV?$ChTraitsCRT@D@ATL@@@@@ATL@@QAE@ABV01@@Z
  00033	8d 4f 04	 lea	 ecx, DWORD PTR [edi+4]
  00036	c7 45 fc 00 00
	00 00		 mov	 DWORD PTR __$EHRec$[ebp+8], 0
  0003d	51		 push	 ecx
  0003e	8d 4e 04	 lea	 ecx, DWORD PTR [esi+4]
  00041	ff 15 00 00 00
	00		 call	 DWORD PTR __imp_??0?$CStringT@DV?$StrTraitMFC_DLL@DV?$ChTraitsCRT@D@ATL@@@@@ATL@@QAE@ABV01@@Z
  00047	8b 4f 08	 mov	 ecx, DWORD PTR [edi+8]
  0004a	8b c6		 mov	 eax, esi
  0004c	89 4e 08	 mov	 DWORD PTR [esi+8], ecx

; 196  : }

  0004f	8b 4d f4	 mov	 ecx, DWORD PTR __$EHRec$[ebp]
  00052	64 89 0d 00 00
	00 00		 mov	 DWORD PTR fs:0, ecx
  00059	59		 pop	 ecx
  0005a	5f		 pop	 edi
  0005b	5e		 pop	 esi
  0005c	8b e5		 mov	 esp, ebp
  0005e	5d		 pop	 ebp
  0005f	c2 04 00	 ret	 4
_TEXT	ENDS
;	COMDAT text$x
text$x	SEGMENT
__unwindfunclet$?GetScaleCompart@CHorizontalScale@@QBE?AVCScaleCompart@@XZ$1:
  00000	8b 4d 08	 mov	 ecx, DWORD PTR ___$ReturnUdt$[ebp]
  00003	ff 25 00 00 00
	00		 jmp	 DWORD PTR __imp_??1?$CStringT@DV?$StrTraitMFC_DLL@DV?$ChTraitsCRT@D@ATL@@@@@ATL@@QAE@XZ
  00009	cc		 int	 3
  0000a	cc		 int	 3
  0000b	cc		 int	 3
  0000c	cc		 int	 3
  0000d	cc		 int	 3
__ehhandler$?GetScaleCompart@CHorizontalScale@@QBE?AVCScaleCompart@@XZ:
  0000e	90		 npad	 1
  0000f	90		 npad	 1
  00010	8b 54 24 08	 mov	 edx, DWORD PTR [esp+8]
  00014	8d 42 0c	 lea	 eax, DWORD PTR [edx+12]
  00017	8b 4a f4	 mov	 ecx, DWORD PTR [edx-12]
  0001a	33 c8		 xor	 ecx, eax
  0001c	e8 00 00 00 00	 call	 @__security_check_cookie@4
  00021	b8 00 00 00 00	 mov	 eax, OFFSET __ehfuncinfo$?GetScaleCompart@CHorizontalScale@@QBE?AVCScaleCompart@@XZ
  00026	e9 00 00 00 00	 jmp	 ___CxxFrameHandler3
text$x	ENDS
?GetScaleCompart@CHorizontalScale@@QBE?AVCScaleCompart@@XZ ENDP ; CHorizontalScale::GetScaleCompart
; Function compile flags: /Ogtp
; File D:\git\src\IBK\IBK_DRFN\ProjSrc\SrcChartEx\ChartAddIn\ChartAnalysisToolAddIn\Include_Chart\ScaleBaseData.cpp
;	COMDAT ?GetHorzScalePosition@CHorizontalScale@@QBE?AW4HORZSCALEPOSITION@CScaleBaseData@@XZ
_TEXT	SEGMENT
?GetHorzScalePosition@CHorizontalScale@@QBE?AW4HORZSCALEPOSITION@CScaleBaseData@@XZ PROC ; CHorizontalScale::GetHorzScalePosition, COMDAT
; _this$ = ecx

; 205  : 	return m_ePosition;

  00000	8b 41 0c	 mov	 eax, DWORD PTR [ecx+12]

; 206  : }

  00003	c3		 ret	 0
?GetHorzScalePosition@CHorizontalScale@@QBE?AW4HORZSCALEPOSITION@CScaleBaseData@@XZ ENDP ; CHorizontalScale::GetHorzScalePosition
_TEXT	ENDS
; Function compile flags: /Ogtp
; File D:\git\src\IBK\IBK_DRFN\ProjSrc\SrcChartEx\ChartAddIn\ChartAnalysisToolAddIn\Include_Chart\ScaleBaseData.cpp
;	COMDAT ?SetScaleCompart@CHorizontalScale@@QAEXABVCScaleCompart@@@Z
_TEXT	SEGMENT
_scaleCompart$ = 8					; size = 4
?SetScaleCompart@CHorizontalScale@@QAEXABVCScaleCompart@@@Z PROC ; CHorizontalScale::SetScaleCompart, COMDAT
; _this$ = ecx

; 188  : {

  00000	55		 push	 ebp
  00001	8b ec		 mov	 ebp, esp

; 189  : 	m_scaleCompart = scaleCompart;

  00003	83 c1 10	 add	 ecx, 16			; 00000010H

; 190  : }

  00006	5d		 pop	 ebp

; 189  : 	m_scaleCompart = scaleCompart;

  00007	e9 00 00 00 00	 jmp	 ??4CScaleCompart@@QAEAAV0@ABV0@@Z ; CScaleCompart::operator=
?SetScaleCompart@CHorizontalScale@@QAEXABVCScaleCompart@@@Z ENDP ; CHorizontalScale::SetScaleCompart
_TEXT	ENDS
; Function compile flags: /Ogtp
; File D:\git\src\IBK\IBK_DRFN\ProjSrc\SrcChartEx\ChartAddIn\ChartAnalysisToolAddIn\Include_Chart\ScaleBaseData.cpp
;	COMDAT ?SetHorzScalePosition@CHorizontalScale@@QAEXW4HORZSCALEPOSITION@CScaleBaseData@@@Z
_TEXT	SEGMENT
_ePosition$ = 8						; size = 4
?SetHorzScalePosition@CHorizontalScale@@QAEXW4HORZSCALEPOSITION@CScaleBaseData@@@Z PROC ; CHorizontalScale::SetHorzScalePosition, COMDAT
; _this$ = ecx

; 183  : {

  00000	55		 push	 ebp
  00001	8b ec		 mov	 ebp, esp

; 184  : 	m_ePosition = ePosition;

  00003	8b 45 08	 mov	 eax, DWORD PTR _ePosition$[ebp]
  00006	89 41 0c	 mov	 DWORD PTR [ecx+12], eax

; 185  : }

  00009	5d		 pop	 ebp
  0000a	c2 04 00	 ret	 4
?SetHorzScalePosition@CHorizontalScale@@QAEXW4HORZSCALEPOSITION@CScaleBaseData@@@Z ENDP ; CHorizontalScale::SetHorzScalePosition
_TEXT	ENDS
; Function compile flags: /Ogtp
; File D:\git\src\IBK\IBK_DRFN\ProjSrc\SrcChartEx\ChartAddIn\ChartAnalysisToolAddIn\Include_Chart\ScaleBaseData.cpp
; File C:\Program Files (x86)\Microsoft Visual Studio\2019\Community\VC\Tools\MSVC\14.29.30133\atlmfc\include\atlsimpstr.h
; File D:\git\src\IBK\IBK_DRFN\ProjSrc\SrcChartEx\ChartAddIn\ChartAnalysisToolAddIn\Include_Chart\ScaleBaseData.cpp
; File C:\Program Files (x86)\Microsoft Visual Studio\2019\Community\VC\Tools\MSVC\14.29.30133\atlmfc\include\atlsimpstr.h
; File D:\git\src\IBK\IBK_DRFN\ProjSrc\SrcChartEx\ChartAddIn\ChartAnalysisToolAddIn\Include_Chart\ScaleBaseData.cpp
;	COMDAT ?SetHorzScalePosition@CHorizontalScale@@QAEXABV?$CStringT@DV?$StrTraitMFC_DLL@DV?$ChTraitsCRT@D@ATL@@@@@ATL@@@Z
_TEXT	SEGMENT
_strPosition$ = 8					; size = 4
?SetHorzScalePosition@CHorizontalScale@@QAEXABV?$CStringT@DV?$StrTraitMFC_DLL@DV?$ChTraitsCRT@D@ATL@@@@@ATL@@@Z PROC ; CHorizontalScale::SetHorzScalePosition, COMDAT
; _this$ = ecx

; 175  : {

  00000	55		 push	 ebp
  00001	8b ec		 mov	 ebp, esp
; File C:\Program Files (x86)\Microsoft Visual Studio\2019\Community\VC\Tools\MSVC\14.29.30133\atlmfc\include\atlsimpstr.h

; 519  : 		return( GetData()->nDataLength );

  00003	8b 45 08	 mov	 eax, DWORD PTR _strPosition$[ebp]
; File D:\git\src\IBK\IBK_DRFN\ProjSrc\SrcChartEx\ChartAddIn\ChartAnalysisToolAddIn\Include_Chart\ScaleBaseData.cpp

; 175  : {

  00006	56		 push	 esi
  00007	8b f1		 mov	 esi, ecx
; File C:\Program Files (x86)\Microsoft Visual Studio\2019\Community\VC\Tools\MSVC\14.29.30133\atlmfc\include\atlsimpstr.h

; 519  : 		return( GetData()->nDataLength );

  00009	8b 00		 mov	 eax, DWORD PTR [eax]

; 533  : 		return( GetLength() == 0 );

  0000b	83 78 f4 00	 cmp	 DWORD PTR [eax-12], 0
; File D:\git\src\IBK\IBK_DRFN\ProjSrc\SrcChartEx\ChartAddIn\ChartAnalysisToolAddIn\Include_Chart\ScaleBaseData.cpp

; 176  : 	if(strPosition.IsEmpty())

  0000f	74 0d		 je	 SHORT $LN1@SetHorzSca

; 177  : 		return;
; 178  : 
; 179  : 	m_ePosition = (CScaleBaseData::HORZSCALEPOSITION) atoi(strPosition);

  00011	50		 push	 eax
  00012	ff 15 00 00 00
	00		 call	 DWORD PTR __imp__atoi
  00018	83 c4 04	 add	 esp, 4
  0001b	89 46 0c	 mov	 DWORD PTR [esi+12], eax
$LN1@SetHorzSca:
  0001e	5e		 pop	 esi

; 180  : }

  0001f	5d		 pop	 ebp
  00020	c2 04 00	 ret	 4
?SetHorzScalePosition@CHorizontalScale@@QAEXABV?$CStringT@DV?$StrTraitMFC_DLL@DV?$ChTraitsCRT@D@ATL@@@@@ATL@@@Z ENDP ; CHorizontalScale::SetHorzScalePosition
_TEXT	ENDS
; Function compile flags: /Ogtp
; File D:\git\src\IBK\IBK_DRFN\ProjSrc\SrcChartEx\ChartAddIn\ChartAnalysisToolAddIn\Include_Chart\ScaleBaseData.cpp
; File C:\Program Files (x86)\Microsoft Visual Studio\2019\Community\VC\Tools\MSVC\14.29.30133\atlmfc\include\atlsimpstr.h
; File D:\git\src\IBK\IBK_DRFN\ProjSrc\SrcChartEx\ChartAddIn\ChartAnalysisToolAddIn\Include_Chart\ScaleBaseData.cpp
; File C:\Program Files (x86)\Microsoft Visual Studio\2019\Community\VC\Tools\MSVC\14.29.30133\atlmfc\include\atlsimpstr.h
; File D:\git\src\IBK\IBK_DRFN\ProjSrc\SrcChartEx\ChartAddIn\ChartAnalysisToolAddIn\Include_Chart\ScaleBaseData.cpp
; File C:\Program Files (x86)\Microsoft Visual Studio\2019\Community\VC\Tools\MSVC\14.29.30133\atlmfc\include\atlsimpstr.h
; File D:\git\src\IBK\IBK_DRFN\ProjSrc\SrcChartEx\ChartAddIn\ChartAnalysisToolAddIn\Include_Chart\ScaleBaseData.cpp
; File C:\Program Files (x86)\Microsoft Visual Studio\2019\Community\VC\Tools\MSVC\14.29.30133\atlmfc\include\atlsimpstr.h
; File D:\git\src\IBK\IBK_DRFN\ProjSrc\SrcChartEx\ChartAddIn\ChartAnalysisToolAddIn\Include_Chart\ScaleBaseData.cpp
; File C:\Program Files (x86)\Microsoft Visual Studio\2019\Community\VC\Tools\MSVC\14.29.30133\atlmfc\include\atlsimpstr.h
; File D:\git\src\IBK\IBK_DRFN\ProjSrc\SrcChartEx\ChartAddIn\ChartAnalysisToolAddIn\Include_Chart\ScaleBaseData.cpp
;	COMDAT ?SetScaleData@CHorizontalScale@@UAEXABV?$CStringT@DV?$StrTraitMFC_DLL@DV?$ChTraitsCRT@D@ATL@@@@@ATL@@@Z
_TEXT	SEGMENT
$T2 = -24						; size = 4
$T3 = -24						; size = 4
$T4 = -24						; size = 4
$T5 = -20						; size = 4
$T6 = -20						; size = 4
$T7 = -20						; size = 4
$T8 = -20						; size = 4
$T9 = -20						; size = 4
$T10 = -20						; size = 4
_temp$ = -16						; size = 4
__$EHRec$ = -12						; size = 12
_strTemp$11 = 8						; size = 4
$T12 = 8						; size = 4
$T13 = 8						; size = 4
$T14 = 8						; size = 4
_scaleData$ = 8						; size = 4
?SetScaleData@CHorizontalScale@@UAEXABV?$CStringT@DV?$StrTraitMFC_DLL@DV?$ChTraitsCRT@D@ATL@@@@@ATL@@@Z PROC ; CHorizontalScale::SetScaleData, COMDAT
; _this$ = ecx

; 165  : {

  00000	55		 push	 ebp
  00001	8b ec		 mov	 ebp, esp
  00003	6a ff		 push	 -1
  00005	68 00 00 00 00	 push	 __ehhandler$?SetScaleData@CHorizontalScale@@UAEXABV?$CStringT@DV?$StrTraitMFC_DLL@DV?$ChTraitsCRT@D@ATL@@@@@ATL@@@Z
  0000a	64 a1 00 00 00
	00		 mov	 eax, DWORD PTR fs:0
  00010	50		 push	 eax
  00011	83 ec 0c	 sub	 esp, 12			; 0000000cH
  00014	56		 push	 esi
  00015	57		 push	 edi
  00016	a1 00 00 00 00	 mov	 eax, DWORD PTR ___security_cookie
  0001b	33 c5		 xor	 eax, ebp
  0001d	50		 push	 eax
  0001e	8d 45 f4	 lea	 eax, DWORD PTR __$EHRec$[ebp]
  00021	64 a3 00 00 00
	00		 mov	 DWORD PTR fs:0, eax
  00027	8b f1		 mov	 esi, ecx

; 166  : 	//  Data;;grid;;;text;
; 167  : 	CString temp = scaleData;

  00029	ff 75 08	 push	 DWORD PTR _scaleData$[ebp]
  0002c	8d 4d f0	 lea	 ecx, DWORD PTR _temp$[ebp]
  0002f	ff 15 00 00 00
	00		 call	 DWORD PTR __imp_??0?$CStringT@DV?$StrTraitMFC_DLL@DV?$ChTraitsCRT@D@ATL@@@@@ATL@@QAE@ABV01@@Z

; 168  : 	CScale::SetScaleData(CDataConversion::GetStringData(temp, ";"));

  00035	68 00 00 00 00	 push	 OFFSET ??_C@_01ICJEACDI@?$DL@
  0003a	8d 4d 08	 lea	 ecx, DWORD PTR $T14[ebp]
  0003d	c7 45 fc 00 00
	00 00		 mov	 DWORD PTR __$EHRec$[ebp+8], 0
  00044	ff 15 00 00 00
	00		 call	 DWORD PTR __imp_??0?$CStringT@DV?$StrTraitMFC_DLL@DV?$ChTraitsCRT@D@ATL@@@@@ATL@@QAE@PBD@Z
  0004a	6a 01		 push	 1
  0004c	8d 45 08	 lea	 eax, DWORD PTR $T14[ebp]
  0004f	c6 45 fc 01	 mov	 BYTE PTR __$EHRec$[ebp+8], 1
  00053	50		 push	 eax
  00054	8d 45 f0	 lea	 eax, DWORD PTR _temp$[ebp]
  00057	50		 push	 eax
  00058	8d 45 ec	 lea	 eax, DWORD PTR $T10[ebp]
  0005b	50		 push	 eax
  0005c	e8 00 00 00 00	 call	 ?GetStringData@CDataConversion@@SA?AV?$CStringT@DV?$StrTraitMFC_DLL@DV?$ChTraitsCRT@D@ATL@@@@@ATL@@AAV23@ABV23@_N@Z ; CDataConversion::GetStringData
  00061	83 c4 10	 add	 esp, 16			; 00000010H

; 115  : 	m_strScaleData = scaleData;

  00064	50		 push	 eax
  00065	8d 4e 04	 lea	 ecx, DWORD PTR [esi+4]

; 168  : 	CScale::SetScaleData(CDataConversion::GetStringData(temp, ";"));

  00068	c6 45 fc 02	 mov	 BYTE PTR __$EHRec$[ebp+8], 2

; 115  : 	m_strScaleData = scaleData;

  0006c	ff 15 00 00 00
	00		 call	 DWORD PTR __imp_??4?$CStringT@DV?$StrTraitMFC_DLL@DV?$ChTraitsCRT@D@ATL@@@@@ATL@@QAEAAV01@ABV01@@Z

; 168  : 	CScale::SetScaleData(CDataConversion::GetStringData(temp, ";"));

  00072	8d 4d ec	 lea	 ecx, DWORD PTR $T10[ebp]
  00075	ff 15 00 00 00
	00		 call	 DWORD PTR __imp_??1?$CStringT@DV?$StrTraitMFC_DLL@DV?$ChTraitsCRT@D@ATL@@@@@ATL@@QAE@XZ
  0007b	8d 4d 08	 lea	 ecx, DWORD PTR $T14[ebp]
  0007e	c6 45 fc 00	 mov	 BYTE PTR __$EHRec$[ebp+8], 0
  00082	ff 15 00 00 00
	00		 call	 DWORD PTR __imp_??1?$CStringT@DV?$StrTraitMFC_DLL@DV?$ChTraitsCRT@D@ATL@@@@@ATL@@QAE@XZ

; 169  : 	SetHorzScalePosition(CDataConversion::GetStringData(temp, ";"));

  00088	68 00 00 00 00	 push	 OFFSET ??_C@_01ICJEACDI@?$DL@
  0008d	8d 4d 08	 lea	 ecx, DWORD PTR $T13[ebp]
  00090	ff 15 00 00 00
	00		 call	 DWORD PTR __imp_??0?$CStringT@DV?$StrTraitMFC_DLL@DV?$ChTraitsCRT@D@ATL@@@@@ATL@@QAE@PBD@Z
  00096	6a 01		 push	 1
  00098	8d 45 08	 lea	 eax, DWORD PTR $T13[ebp]
  0009b	c6 45 fc 03	 mov	 BYTE PTR __$EHRec$[ebp+8], 3
  0009f	50		 push	 eax
  000a0	8d 45 f0	 lea	 eax, DWORD PTR _temp$[ebp]
  000a3	50		 push	 eax
  000a4	8d 45 ec	 lea	 eax, DWORD PTR $T9[ebp]
  000a7	50		 push	 eax
  000a8	e8 00 00 00 00	 call	 ?GetStringData@CDataConversion@@SA?AV?$CStringT@DV?$StrTraitMFC_DLL@DV?$ChTraitsCRT@D@ATL@@@@@ATL@@AAV23@ABV23@_N@Z ; CDataConversion::GetStringData

; 176  : 	if(strPosition.IsEmpty())

  000ad	8b 3d 00 00 00
	00		 mov	 edi, DWORD PTR __imp__atoi

; 169  : 	SetHorzScalePosition(CDataConversion::GetStringData(temp, ";"));

  000b3	83 c4 10	 add	 esp, 16			; 00000010H
; File C:\Program Files (x86)\Microsoft Visual Studio\2019\Community\VC\Tools\MSVC\14.29.30133\atlmfc\include\atlsimpstr.h

; 519  : 		return( GetData()->nDataLength );

  000b6	8b 00		 mov	 eax, DWORD PTR [eax]

; 533  : 		return( GetLength() == 0 );

  000b8	83 78 f4 00	 cmp	 DWORD PTR [eax-12], 0
; File D:\git\src\IBK\IBK_DRFN\ProjSrc\SrcChartEx\ChartAddIn\ChartAnalysisToolAddIn\Include_Chart\ScaleBaseData.cpp

; 176  : 	if(strPosition.IsEmpty())

  000bc	74 09		 je	 SHORT $LN12@SetScaleDa

; 177  : 		return;
; 178  : 
; 179  : 	m_ePosition = (CScaleBaseData::HORZSCALEPOSITION) atoi(strPosition);

  000be	50		 push	 eax
  000bf	ff d7		 call	 edi
  000c1	83 c4 04	 add	 esp, 4
  000c4	89 46 0c	 mov	 DWORD PTR [esi+12], eax
$LN12@SetScaleDa:

; 169  : 	SetHorzScalePosition(CDataConversion::GetStringData(temp, ";"));

  000c7	8d 4d ec	 lea	 ecx, DWORD PTR $T9[ebp]
  000ca	ff 15 00 00 00
	00		 call	 DWORD PTR __imp_??1?$CStringT@DV?$StrTraitMFC_DLL@DV?$ChTraitsCRT@D@ATL@@@@@ATL@@QAE@XZ
  000d0	8d 4d 08	 lea	 ecx, DWORD PTR $T13[ebp]
  000d3	c6 45 fc 00	 mov	 BYTE PTR __$EHRec$[ebp+8], 0
  000d7	ff 15 00 00 00
	00		 call	 DWORD PTR __imp_??1?$CStringT@DV?$StrTraitMFC_DLL@DV?$ChTraitsCRT@D@ATL@@@@@ATL@@QAE@XZ

; 170  : 	CScale::SetGridType(CDataConversion::GetStringData(temp, ";"));

  000dd	68 00 00 00 00	 push	 OFFSET ??_C@_01ICJEACDI@?$DL@
  000e2	8d 4d 08	 lea	 ecx, DWORD PTR $T12[ebp]
  000e5	ff 15 00 00 00
	00		 call	 DWORD PTR __imp_??0?$CStringT@DV?$StrTraitMFC_DLL@DV?$ChTraitsCRT@D@ATL@@@@@ATL@@QAE@PBD@Z
  000eb	6a 01		 push	 1
  000ed	8d 45 08	 lea	 eax, DWORD PTR $T12[ebp]
  000f0	c6 45 fc 04	 mov	 BYTE PTR __$EHRec$[ebp+8], 4
  000f4	50		 push	 eax
  000f5	8d 45 f0	 lea	 eax, DWORD PTR _temp$[ebp]
  000f8	50		 push	 eax
  000f9	8d 45 ec	 lea	 eax, DWORD PTR $T8[ebp]
  000fc	50		 push	 eax
  000fd	e8 00 00 00 00	 call	 ?GetStringData@CDataConversion@@SA?AV?$CStringT@DV?$StrTraitMFC_DLL@DV?$ChTraitsCRT@D@ATL@@@@@ATL@@AAV23@ABV23@_N@Z ; CDataConversion::GetStringData
  00102	83 c4 10	 add	 esp, 16			; 00000010H
; File C:\Program Files (x86)\Microsoft Visual Studio\2019\Community\VC\Tools\MSVC\14.29.30133\atlmfc\include\atlsimpstr.h

; 519  : 		return( GetData()->nDataLength );

  00105	8b 00		 mov	 eax, DWORD PTR [eax]

; 533  : 		return( GetLength() == 0 );

  00107	83 78 f4 00	 cmp	 DWORD PTR [eax-12], 0
; File D:\git\src\IBK\IBK_DRFN\ProjSrc\SrcChartEx\ChartAddIn\ChartAnalysisToolAddIn\Include_Chart\ScaleBaseData.cpp

; 136  : 	if(strGridType.IsEmpty())

  0010b	74 09		 je	 SHORT $LN23@SetScaleDa

; 137  : 		return;
; 138  : 
; 139  : 	m_eScaleGrid = (CScaleBaseData::SCALEGRIDTYPE) atoi(strGridType);

  0010d	50		 push	 eax
  0010e	ff d7		 call	 edi
  00110	83 c4 04	 add	 esp, 4
  00113	89 46 08	 mov	 DWORD PTR [esi+8], eax
$LN23@SetScaleDa:

; 170  : 	CScale::SetGridType(CDataConversion::GetStringData(temp, ";"));

  00116	8d 4d ec	 lea	 ecx, DWORD PTR $T8[ebp]
  00119	ff 15 00 00 00
	00		 call	 DWORD PTR __imp_??1?$CStringT@DV?$StrTraitMFC_DLL@DV?$ChTraitsCRT@D@ATL@@@@@ATL@@QAE@XZ
  0011f	8d 4d 08	 lea	 ecx, DWORD PTR $T12[ebp]
  00122	c6 45 fc 00	 mov	 BYTE PTR __$EHRec$[ebp+8], 0
  00126	ff 15 00 00 00
	00		 call	 DWORD PTR __imp_??1?$CStringT@DV?$StrTraitMFC_DLL@DV?$ChTraitsCRT@D@ATL@@@@@ATL@@QAE@XZ

; 63   : 	CString strTemp = strData;

  0012c	8d 45 f0	 lea	 eax, DWORD PTR _temp$[ebp]
  0012f	50		 push	 eax
  00130	8d 4d 08	 lea	 ecx, DWORD PTR _strTemp$11[ebp]
  00133	ff 15 00 00 00
	00		 call	 DWORD PTR __imp_??0?$CStringT@DV?$StrTraitMFC_DLL@DV?$ChTraitsCRT@D@ATL@@@@@ATL@@QAE@ABV01@@Z
; File C:\Program Files (x86)\Microsoft Visual Studio\2019\Community\VC\Tools\MSVC\14.29.30133\atlmfc\include\atlsimpstr.h

; 519  : 		return( GetData()->nDataLength );

  00139	8b 45 08	 mov	 eax, DWORD PTR _strTemp$11[ebp]
; File D:\git\src\IBK\IBK_DRFN\ProjSrc\SrcChartEx\ChartAddIn\ChartAnalysisToolAddIn\Include_Chart\ScaleBaseData.cpp

; 63   : 	CString strTemp = strData;

  0013c	c6 45 fc 05	 mov	 BYTE PTR __$EHRec$[ebp+8], 5
; File C:\Program Files (x86)\Microsoft Visual Studio\2019\Community\VC\Tools\MSVC\14.29.30133\atlmfc\include\atlsimpstr.h

; 533  : 		return( GetLength() == 0 );

  00140	83 78 f4 00	 cmp	 DWORD PTR [eax-12], 0
; File D:\git\src\IBK\IBK_DRFN\ProjSrc\SrcChartEx\ChartAddIn\ChartAnalysisToolAddIn\Include_Chart\ScaleBaseData.cpp

; 64   : 	if(strTemp.IsEmpty())

  00144	0f 84 e2 00 00
	00		 je	 $LN36@SetScaleDa

; 65   : 		return;
; 66   : 
; 67   : 	m_strDateCompart = CDataConversion::GetStringData(strTemp, ";");

  0014a	68 00 00 00 00	 push	 OFFSET ??_C@_01ICJEACDI@?$DL@
  0014f	8d 4d ec	 lea	 ecx, DWORD PTR $T7[ebp]
  00152	ff 15 00 00 00
	00		 call	 DWORD PTR __imp_??0?$CStringT@DV?$StrTraitMFC_DLL@DV?$ChTraitsCRT@D@ATL@@@@@ATL@@QAE@PBD@Z
  00158	6a 01		 push	 1
  0015a	8d 45 ec	 lea	 eax, DWORD PTR $T7[ebp]
  0015d	c6 45 fc 06	 mov	 BYTE PTR __$EHRec$[ebp+8], 6
  00161	50		 push	 eax
  00162	8d 45 08	 lea	 eax, DWORD PTR _strTemp$11[ebp]
  00165	50		 push	 eax
  00166	8d 45 e8	 lea	 eax, DWORD PTR $T4[ebp]
  00169	50		 push	 eax
  0016a	e8 00 00 00 00	 call	 ?GetStringData@CDataConversion@@SA?AV?$CStringT@DV?$StrTraitMFC_DLL@DV?$ChTraitsCRT@D@ATL@@@@@ATL@@AAV23@ABV23@_N@Z ; CDataConversion::GetStringData
  0016f	83 c4 10	 add	 esp, 16			; 00000010H
  00172	50		 push	 eax
  00173	8d 4e 10	 lea	 ecx, DWORD PTR [esi+16]
  00176	c6 45 fc 07	 mov	 BYTE PTR __$EHRec$[ebp+8], 7
  0017a	ff 15 00 00 00
	00		 call	 DWORD PTR __imp_??4?$CStringT@DV?$StrTraitMFC_DLL@DV?$ChTraitsCRT@D@ATL@@@@@ATL@@QAEAAV01@ABV01@@Z
  00180	8d 4d e8	 lea	 ecx, DWORD PTR $T4[ebp]
  00183	ff 15 00 00 00
	00		 call	 DWORD PTR __imp_??1?$CStringT@DV?$StrTraitMFC_DLL@DV?$ChTraitsCRT@D@ATL@@@@@ATL@@QAE@XZ
  00189	8d 4d ec	 lea	 ecx, DWORD PTR $T7[ebp]
  0018c	c6 45 fc 05	 mov	 BYTE PTR __$EHRec$[ebp+8], 5
  00190	ff 15 00 00 00
	00		 call	 DWORD PTR __imp_??1?$CStringT@DV?$StrTraitMFC_DLL@DV?$ChTraitsCRT@D@ATL@@@@@ATL@@QAE@XZ

; 68   : 	m_strTimeCompart = CDataConversion::GetStringData(strTemp, ";");

  00196	68 00 00 00 00	 push	 OFFSET ??_C@_01ICJEACDI@?$DL@
  0019b	8d 4d ec	 lea	 ecx, DWORD PTR $T6[ebp]
  0019e	ff 15 00 00 00
	00		 call	 DWORD PTR __imp_??0?$CStringT@DV?$StrTraitMFC_DLL@DV?$ChTraitsCRT@D@ATL@@@@@ATL@@QAE@PBD@Z
  001a4	6a 01		 push	 1
  001a6	8d 45 ec	 lea	 eax, DWORD PTR $T6[ebp]
  001a9	c6 45 fc 08	 mov	 BYTE PTR __$EHRec$[ebp+8], 8
  001ad	50		 push	 eax
  001ae	8d 45 08	 lea	 eax, DWORD PTR _strTemp$11[ebp]
  001b1	50		 push	 eax
  001b2	8d 45 e8	 lea	 eax, DWORD PTR $T3[ebp]
  001b5	50		 push	 eax
  001b6	e8 00 00 00 00	 call	 ?GetStringData@CDataConversion@@SA?AV?$CStringT@DV?$StrTraitMFC_DLL@DV?$ChTraitsCRT@D@ATL@@@@@ATL@@AAV23@ABV23@_N@Z ; CDataConversion::GetStringData
  001bb	83 c4 10	 add	 esp, 16			; 00000010H
  001be	50		 push	 eax
  001bf	8d 4e 14	 lea	 ecx, DWORD PTR [esi+20]
  001c2	c6 45 fc 09	 mov	 BYTE PTR __$EHRec$[ebp+8], 9
  001c6	ff 15 00 00 00
	00		 call	 DWORD PTR __imp_??4?$CStringT@DV?$StrTraitMFC_DLL@DV?$ChTraitsCRT@D@ATL@@@@@ATL@@QAEAAV01@ABV01@@Z
  001cc	8d 4d e8	 lea	 ecx, DWORD PTR $T3[ebp]
  001cf	ff 15 00 00 00
	00		 call	 DWORD PTR __imp_??1?$CStringT@DV?$StrTraitMFC_DLL@DV?$ChTraitsCRT@D@ATL@@@@@ATL@@QAE@XZ
  001d5	8d 4d ec	 lea	 ecx, DWORD PTR $T6[ebp]
  001d8	c6 45 fc 05	 mov	 BYTE PTR __$EHRec$[ebp+8], 5
  001dc	ff 15 00 00 00
	00		 call	 DWORD PTR __imp_??1?$CStringT@DV?$StrTraitMFC_DLL@DV?$ChTraitsCRT@D@ATL@@@@@ATL@@QAE@XZ
; File C:\Program Files (x86)\Microsoft Visual Studio\2019\Community\VC\Tools\MSVC\14.29.30133\atlmfc\include\atlsimpstr.h

; 519  : 		return( GetData()->nDataLength );

  001e2	8b 45 08	 mov	 eax, DWORD PTR _strTemp$11[ebp]

; 533  : 		return( GetLength() == 0 );

  001e5	83 78 f4 00	 cmp	 DWORD PTR [eax-12], 0
; File D:\git\src\IBK\IBK_DRFN\ProjSrc\SrcChartEx\ChartAddIn\ChartAnalysisToolAddIn\Include_Chart\ScaleBaseData.cpp

; 69   : 	if(!strTemp.IsEmpty()){

  001e9	74 41		 je	 SHORT $LN36@SetScaleDa

; 70   : 		m_eTextType = (CScaleBaseData::TEXTCOMPARTTYPE) atoi(CDataConversion::GetStringData(strTemp, ";"));

  001eb	68 00 00 00 00	 push	 OFFSET ??_C@_01ICJEACDI@?$DL@
  001f0	8d 4d ec	 lea	 ecx, DWORD PTR $T5[ebp]
  001f3	ff 15 00 00 00
	00		 call	 DWORD PTR __imp_??0?$CStringT@DV?$StrTraitMFC_DLL@DV?$ChTraitsCRT@D@ATL@@@@@ATL@@QAE@PBD@Z
  001f9	6a 01		 push	 1
  001fb	8d 45 ec	 lea	 eax, DWORD PTR $T5[ebp]
  001fe	c6 45 fc 0a	 mov	 BYTE PTR __$EHRec$[ebp+8], 10 ; 0000000aH
  00202	50		 push	 eax
  00203	8d 45 08	 lea	 eax, DWORD PTR _strTemp$11[ebp]
  00206	50		 push	 eax
  00207	8d 45 e8	 lea	 eax, DWORD PTR $T2[ebp]
  0020a	50		 push	 eax
  0020b	e8 00 00 00 00	 call	 ?GetStringData@CDataConversion@@SA?AV?$CStringT@DV?$StrTraitMFC_DLL@DV?$ChTraitsCRT@D@ATL@@@@@ATL@@AAV23@ABV23@_N@Z ; CDataConversion::GetStringData
  00210	ff 30		 push	 DWORD PTR [eax]
  00212	ff d7		 call	 edi
  00214	83 c4 14	 add	 esp, 20			; 00000014H
  00217	89 46 18	 mov	 DWORD PTR [esi+24], eax
  0021a	8d 4d e8	 lea	 ecx, DWORD PTR $T2[ebp]
  0021d	ff 15 00 00 00
	00		 call	 DWORD PTR __imp_??1?$CStringT@DV?$StrTraitMFC_DLL@DV?$ChTraitsCRT@D@ATL@@@@@ATL@@QAE@XZ
  00223	8d 4d ec	 lea	 ecx, DWORD PTR $T5[ebp]
  00226	ff 15 00 00 00
	00		 call	 DWORD PTR __imp_??1?$CStringT@DV?$StrTraitMFC_DLL@DV?$ChTraitsCRT@D@ATL@@@@@ATL@@QAE@XZ
$LN36@SetScaleDa:

; 71   : 	}
; 72   : }

  0022c	8d 4d 08	 lea	 ecx, DWORD PTR _strTemp$11[ebp]
  0022f	ff 15 00 00 00
	00		 call	 DWORD PTR __imp_??1?$CStringT@DV?$StrTraitMFC_DLL@DV?$ChTraitsCRT@D@ATL@@@@@ATL@@QAE@XZ

; 171  : 	m_scaleCompart.SetCompart(temp);
; 172  : }

  00235	8d 4d f0	 lea	 ecx, DWORD PTR _temp$[ebp]
  00238	ff 15 00 00 00
	00		 call	 DWORD PTR __imp_??1?$CStringT@DV?$StrTraitMFC_DLL@DV?$ChTraitsCRT@D@ATL@@@@@ATL@@QAE@XZ
  0023e	8b 4d f4	 mov	 ecx, DWORD PTR __$EHRec$[ebp]
  00241	64 89 0d 00 00
	00 00		 mov	 DWORD PTR fs:0, ecx
  00248	59		 pop	 ecx
  00249	5f		 pop	 edi
  0024a	5e		 pop	 esi
  0024b	8b e5		 mov	 esp, ebp
  0024d	5d		 pop	 ebp
  0024e	c2 04 00	 ret	 4
_TEXT	ENDS
;	COMDAT text$x
text$x	SEGMENT
__unwindfunclet$?SetScaleData@CHorizontalScale@@UAEXABV?$CStringT@DV?$StrTraitMFC_DLL@DV?$ChTraitsCRT@D@ATL@@@@@ATL@@@Z$0:
  00000	8d 4d f0	 lea	 ecx, DWORD PTR _temp$[ebp]
  00003	ff 25 00 00 00
	00		 jmp	 DWORD PTR __imp_??1?$CStringT@DV?$StrTraitMFC_DLL@DV?$ChTraitsCRT@D@ATL@@@@@ATL@@QAE@XZ
__unwindfunclet$?SetScaleData@CHorizontalScale@@UAEXABV?$CStringT@DV?$StrTraitMFC_DLL@DV?$ChTraitsCRT@D@ATL@@@@@ATL@@@Z$1:
  00009	8d 4d 08	 lea	 ecx, DWORD PTR $T14[ebp]
  0000c	ff 25 00 00 00
	00		 jmp	 DWORD PTR __imp_??1?$CStringT@DV?$StrTraitMFC_DLL@DV?$ChTraitsCRT@D@ATL@@@@@ATL@@QAE@XZ
__unwindfunclet$?SetScaleData@CHorizontalScale@@UAEXABV?$CStringT@DV?$StrTraitMFC_DLL@DV?$ChTraitsCRT@D@ATL@@@@@ATL@@@Z$2:
  00012	8d 4d ec	 lea	 ecx, DWORD PTR $T10[ebp]
  00015	ff 25 00 00 00
	00		 jmp	 DWORD PTR __imp_??1?$CStringT@DV?$StrTraitMFC_DLL@DV?$ChTraitsCRT@D@ATL@@@@@ATL@@QAE@XZ
__unwindfunclet$?SetScaleData@CHorizontalScale@@UAEXABV?$CStringT@DV?$StrTraitMFC_DLL@DV?$ChTraitsCRT@D@ATL@@@@@ATL@@@Z$3:
  0001b	8d 4d 08	 lea	 ecx, DWORD PTR $T13[ebp]
  0001e	ff 25 00 00 00
	00		 jmp	 DWORD PTR __imp_??1?$CStringT@DV?$StrTraitMFC_DLL@DV?$ChTraitsCRT@D@ATL@@@@@ATL@@QAE@XZ
__unwindfunclet$?SetScaleData@CHorizontalScale@@UAEXABV?$CStringT@DV?$StrTraitMFC_DLL@DV?$ChTraitsCRT@D@ATL@@@@@ATL@@@Z$5:
  00024	8d 4d 08	 lea	 ecx, DWORD PTR $T12[ebp]
  00027	ff 25 00 00 00
	00		 jmp	 DWORD PTR __imp_??1?$CStringT@DV?$StrTraitMFC_DLL@DV?$ChTraitsCRT@D@ATL@@@@@ATL@@QAE@XZ
__unwindfunclet$?SetScaleData@CHorizontalScale@@UAEXABV?$CStringT@DV?$StrTraitMFC_DLL@DV?$ChTraitsCRT@D@ATL@@@@@ATL@@@Z$7:
  0002d	8d 4d 08	 lea	 ecx, DWORD PTR _strTemp$11[ebp]
  00030	ff 25 00 00 00
	00		 jmp	 DWORD PTR __imp_??1?$CStringT@DV?$StrTraitMFC_DLL@DV?$ChTraitsCRT@D@ATL@@@@@ATL@@QAE@XZ
__unwindfunclet$?SetScaleData@CHorizontalScale@@UAEXABV?$CStringT@DV?$StrTraitMFC_DLL@DV?$ChTraitsCRT@D@ATL@@@@@ATL@@@Z$8:
  00036	8d 4d ec	 lea	 ecx, DWORD PTR $T7[ebp]
  00039	ff 25 00 00 00
	00		 jmp	 DWORD PTR __imp_??1?$CStringT@DV?$StrTraitMFC_DLL@DV?$ChTraitsCRT@D@ATL@@@@@ATL@@QAE@XZ
__unwindfunclet$?SetScaleData@CHorizontalScale@@UAEXABV?$CStringT@DV?$StrTraitMFC_DLL@DV?$ChTraitsCRT@D@ATL@@@@@ATL@@@Z$9:
  0003f	8d 4d e8	 lea	 ecx, DWORD PTR $T4[ebp]
  00042	ff 25 00 00 00
	00		 jmp	 DWORD PTR __imp_??1?$CStringT@DV?$StrTraitMFC_DLL@DV?$ChTraitsCRT@D@ATL@@@@@ATL@@QAE@XZ
__unwindfunclet$?SetScaleData@CHorizontalScale@@UAEXABV?$CStringT@DV?$StrTraitMFC_DLL@DV?$ChTraitsCRT@D@ATL@@@@@ATL@@@Z$10:
  00048	8d 4d ec	 lea	 ecx, DWORD PTR $T6[ebp]
  0004b	ff 25 00 00 00
	00		 jmp	 DWORD PTR __imp_??1?$CStringT@DV?$StrTraitMFC_DLL@DV?$ChTraitsCRT@D@ATL@@@@@ATL@@QAE@XZ
__unwindfunclet$?SetScaleData@CHorizontalScale@@UAEXABV?$CStringT@DV?$StrTraitMFC_DLL@DV?$ChTraitsCRT@D@ATL@@@@@ATL@@@Z$11:
  00051	8d 4d e8	 lea	 ecx, DWORD PTR $T3[ebp]
  00054	ff 25 00 00 00
	00		 jmp	 DWORD PTR __imp_??1?$CStringT@DV?$StrTraitMFC_DLL@DV?$ChTraitsCRT@D@ATL@@@@@ATL@@QAE@XZ
__unwindfunclet$?SetScaleData@CHorizontalScale@@UAEXABV?$CStringT@DV?$StrTraitMFC_DLL@DV?$ChTraitsCRT@D@ATL@@@@@ATL@@@Z$12:
  0005a	8d 4d ec	 lea	 ecx, DWORD PTR $T5[ebp]
  0005d	ff 25 00 00 00
	00		 jmp	 DWORD PTR __imp_??1?$CStringT@DV?$StrTraitMFC_DLL@DV?$ChTraitsCRT@D@ATL@@@@@ATL@@QAE@XZ
  00063	cc		 int	 3
  00064	cc		 int	 3
  00065	cc		 int	 3
  00066	cc		 int	 3
  00067	cc		 int	 3
__ehhandler$?SetScaleData@CHorizontalScale@@UAEXABV?$CStringT@DV?$StrTraitMFC_DLL@DV?$ChTraitsCRT@D@ATL@@@@@ATL@@@Z:
  00068	90		 npad	 1
  00069	90		 npad	 1
  0006a	8b 54 24 08	 mov	 edx, DWORD PTR [esp+8]
  0006e	8d 42 0c	 lea	 eax, DWORD PTR [edx+12]
  00071	8b 4a e8	 mov	 ecx, DWORD PTR [edx-24]
  00074	33 c8		 xor	 ecx, eax
  00076	e8 00 00 00 00	 call	 @__security_check_cookie@4
  0007b	b8 00 00 00 00	 mov	 eax, OFFSET __ehfuncinfo$?SetScaleData@CHorizontalScale@@UAEXABV?$CStringT@DV?$StrTraitMFC_DLL@DV?$ChTraitsCRT@D@ATL@@@@@ATL@@@Z
  00080	e9 00 00 00 00	 jmp	 ___CxxFrameHandler3
text$x	ENDS
?SetScaleData@CHorizontalScale@@UAEXABV?$CStringT@DV?$StrTraitMFC_DLL@DV?$ChTraitsCRT@D@ATL@@@@@ATL@@@Z ENDP ; CHorizontalScale::SetScaleData
; Function compile flags: /Ogtp
; File D:\git\src\IBK\IBK_DRFN\ProjSrc\SrcChartEx\ChartAddIn\ChartAnalysisToolAddIn\Include_Chart\ScaleBaseData.cpp
;	COMDAT ??0CHorizontalScale@@QAE@XZ
_TEXT	SEGMENT
_this$ = -20						; size = 4
_this$ = -16						; size = 4
__$EHRec$ = -12						; size = 12
??0CHorizontalScale@@QAE@XZ PROC			; CHorizontalScale::CHorizontalScale, COMDAT
; _this$ = ecx

; 160  : {

  00000	55		 push	 ebp
  00001	8b ec		 mov	 ebp, esp
  00003	6a ff		 push	 -1
  00005	68 00 00 00 00	 push	 __ehhandler$??0CHorizontalScale@@QAE@XZ
  0000a	64 a1 00 00 00
	00		 mov	 eax, DWORD PTR fs:0
  00010	50		 push	 eax
  00011	83 ec 08	 sub	 esp, 8
  00014	56		 push	 esi
  00015	57		 push	 edi
  00016	a1 00 00 00 00	 mov	 eax, DWORD PTR ___security_cookie
  0001b	33 c5		 xor	 eax, ebp
  0001d	50		 push	 eax
  0001e	8d 45 f4	 lea	 eax, DWORD PTR __$EHRec$[ebp]
  00021	64 a3 00 00 00
	00		 mov	 DWORD PTR fs:0, eax
  00027	8b f9		 mov	 edi, ecx
  00029	89 7d f0	 mov	 DWORD PTR _this$[ebp], edi

; 105  : {

  0002c	8d 4f 04	 lea	 ecx, DWORD PTR [edi+4]
  0002f	c7 07 00 00 00
	00		 mov	 DWORD PTR [edi], OFFSET ??_7CScale@@6B@
  00035	ff 15 00 00 00
	00		 call	 DWORD PTR __imp_??0?$CStringT@DV?$StrTraitMFC_DLL@DV?$ChTraitsCRT@D@ATL@@@@@ATL@@QAE@XZ

; 36   : {
; 37   : }
; 38   : 
; 39   : CScaleCompart::CScaleCompart(const CString& dateCompart, const CString& timeCompart, const CScaleBaseData::TEXTCOMPARTTYPE eTextType):
; 40   : 	m_strDateCompart(dateCompart),
; 41   : 	m_strTimeCompart(timeCompart),
; 42   : 	m_eTextType(eTextType)
; 43   : {
; 44   : }
; 45   : 
; 46   : CString CScaleCompart::GetDateCompart() const
; 47   : {
; 48   : 	return m_strDateCompart;
; 49   : }
; 50   : 
; 51   : CString CScaleCompart::GetTimeCompart() const
; 52   : {
; 53   : 	return m_strTimeCompart;
; 54   : }
; 55   : 
; 56   : CScaleBaseData::TEXTCOMPARTTYPE CScaleCompart::GetScaleTextType() const
; 57   : {
; 58   : 	return m_eTextType;
; 59   : }
; 60   : 
; 61   : void CScaleCompart::SetCompart(const CString& strData)
; 62   : {
; 63   : 	CString strTemp = strData;
; 64   : 	if(strTemp.IsEmpty())
; 65   : 		return;
; 66   : 
; 67   : 	m_strDateCompart = CDataConversion::GetStringData(strTemp, ";");
; 68   : 	m_strTimeCompart = CDataConversion::GetStringData(strTemp, ";");
; 69   : 	if(!strTemp.IsEmpty()){
; 70   : 		m_eTextType = (CScaleBaseData::TEXTCOMPARTTYPE) atoi(CDataConversion::GetStringData(strTemp, ";"));
; 71   : 	}
; 72   : }
; 73   : 
; 74   : void CScaleCompart::SetDateCompart(const CString& dateCompart)
; 75   : {
; 76   : 	m_strDateCompart = dateCompart;
; 77   : }
; 78   : 
; 79   : void CScaleCompart::SetTimeCompart(const CString& timeCompart)
; 80   : {
; 81   : 	m_strTimeCompart = timeCompart;
; 82   : }
; 83   : 
; 84   : void CScaleCompart::SetScaleTextType(const CScaleBaseData::TEXTCOMPARTTYPE eTextType)
; 85   : {
; 86   : 	m_eTextType = eTextType;
; 87   : }
; 88   : 
; 89   : 
; 90   : //////////////////////////////////////////////////////////////////////
; 91   : // class CScale
; 92   : 
; 93   : CScale& CScale::operator=(const CScale& data)
; 94   : {
; 95   : 	if(this == &data)
; 96   : 		return *this;
; 97   : 
; 98   : 	m_strScaleData = data.GetScaleData();
; 99   : 	m_eScaleGrid = data.GetGridType();
; 100  : 	return *this;
; 101  : }
; 102  : 
; 103  : CScale::CScale():
; 104  : 	m_eScaleGrid(CScaleBaseData::SLNONE)

  0003b	c7 47 08 03 00
	00 00		 mov	 DWORD PTR [edi+8], 3

; 160  : {

  00042	8d 77 10	 lea	 esi, DWORD PTR [edi+16]
  00045	c7 45 fc 00 00
	00 00		 mov	 DWORD PTR __$EHRec$[ebp+8], 0

; 33   : 	m_strDateCompart("."),

  0004c	68 00 00 00 00	 push	 OFFSET ??_C@_01LFCBOECM@?4@
  00051	8b ce		 mov	 ecx, esi

; 160  : {

  00053	c7 07 00 00 00
	00		 mov	 DWORD PTR [edi], OFFSET ??_7CHorizontalScale@@6B@

; 106  : }
; 107  : 
; 108  : void CScale::SetData(const CString& scaleData)
; 109  : {
; 110  : 	m_strScaleData = scaleData;
; 111  : }
; 112  : 
; 113  : void CScale::SetScaleData(const CString& scaleData)
; 114  : {
; 115  : 	m_strScaleData = scaleData;
; 116  : }
; 117  : 
; 118  : void CScale::SetGridType(const CScaleBaseData::SCALEGRIDTYPE eGridType)
; 119  : {
; 120  : 	m_eScaleGrid = eGridType;
; 121  : }
; 122  : 
; 123  : CString CScale::GetScaleData() const
; 124  : {
; 125  : 	return m_strScaleData;
; 126  : }
; 127  : 
; 128  : CScaleBaseData::SCALEGRIDTYPE CScale::GetGridType() const
; 129  : {
; 130  : 	return m_eScaleGrid;
; 131  : }
; 132  : 
; 133  : // protected ===============================================================================
; 134  : void CScale::SetGridType(const CString& strGridType)
; 135  : {
; 136  : 	if(strGridType.IsEmpty())
; 137  : 		return;
; 138  : 
; 139  : 	m_eScaleGrid = (CScaleBaseData::SCALEGRIDTYPE) atoi(strGridType);
; 140  : }
; 141  : 
; 142  : 
; 143  : ////////////////////////////////////////////////////////////////////////////////////////////
; 144  : // class CHorizontalScale
; 145  : 
; 146  : CHorizontalScale& CHorizontalScale::operator=(const CHorizontalScale& data)
; 147  : {
; 148  : 	if(this == &data)
; 149  : 		return *this;
; 150  : 
; 151  : 	CScale::operator = ((CScale) data);
; 152  : 	m_scaleCompart = data.GetScaleCompart();
; 153  : 	m_ePosition = data.GetHorzScalePosition();
; 154  : 	return *this;
; 155  : }
; 156  : 
; 157  : CHorizontalScale::CHorizontalScale():
; 158  : 	CScale(),
; 159  : 	m_ePosition(CScaleBaseData::HORZ_NONE)

  00059	c7 47 0c 04 00
	00 00		 mov	 DWORD PTR [edi+12], 4

; 160  : {

  00060	89 75 ec	 mov	 DWORD PTR _this$[ebp], esi

; 33   : 	m_strDateCompart("."),

  00063	ff 15 00 00 00
	00		 call	 DWORD PTR __imp_??0?$CStringT@DV?$StrTraitMFC_DLL@DV?$ChTraitsCRT@D@ATL@@@@@ATL@@QAE@PBD@Z

; 34   : 	m_strTimeCompart(":"),

  00069	68 00 00 00 00	 push	 OFFSET ??_C@_01JLIPDDHJ@?3@
  0006e	8d 4e 04	 lea	 ecx, DWORD PTR [esi+4]
  00071	c6 45 fc 01	 mov	 BYTE PTR __$EHRec$[ebp+8], 1
  00075	ff 15 00 00 00
	00		 call	 DWORD PTR __imp_??0?$CStringT@DV?$StrTraitMFC_DLL@DV?$ChTraitsCRT@D@ATL@@@@@ATL@@QAE@PBD@Z

; 35   : 	m_eTextType(CScaleBaseData::HORZ_TEXT_COMPART)

  0007b	c7 46 08 00 00
	00 00		 mov	 DWORD PTR [esi+8], 0

; 161  : }

  00082	8b c7		 mov	 eax, edi
  00084	8b 4d f4	 mov	 ecx, DWORD PTR __$EHRec$[ebp]
  00087	64 89 0d 00 00
	00 00		 mov	 DWORD PTR fs:0, ecx
  0008e	59		 pop	 ecx
  0008f	5f		 pop	 edi
  00090	5e		 pop	 esi
  00091	8b e5		 mov	 esp, ebp
  00093	5d		 pop	 ebp
  00094	c3		 ret	 0
_TEXT	ENDS
;	COMDAT text$x
text$x	SEGMENT
__unwindfunclet$??0CHorizontalScale@@QAE@XZ$0:
  00000	8b 4d f0	 mov	 ecx, DWORD PTR _this$[ebp]
  00003	e9 00 00 00 00	 jmp	 ??1CScale@@QAE@XZ
__unwindfunclet$??0CHorizontalScale@@QAE@XZ$2:
  00008	8b 4d ec	 mov	 ecx, DWORD PTR _this$[ebp]
  0000b	ff 25 00 00 00
	00		 jmp	 DWORD PTR __imp_??1?$CStringT@DV?$StrTraitMFC_DLL@DV?$ChTraitsCRT@D@ATL@@@@@ATL@@QAE@XZ
  00011	cc		 int	 3
  00012	cc		 int	 3
  00013	cc		 int	 3
  00014	cc		 int	 3
  00015	cc		 int	 3
__ehhandler$??0CHorizontalScale@@QAE@XZ:
  00016	90		 npad	 1
  00017	90		 npad	 1
  00018	8b 54 24 08	 mov	 edx, DWORD PTR [esp+8]
  0001c	8d 42 0c	 lea	 eax, DWORD PTR [edx+12]
  0001f	8b 4a ec	 mov	 ecx, DWORD PTR [edx-20]
  00022	33 c8		 xor	 ecx, eax
  00024	e8 00 00 00 00	 call	 @__security_check_cookie@4
  00029	b8 00 00 00 00	 mov	 eax, OFFSET __ehfuncinfo$??0CHorizontalScale@@QAE@XZ
  0002e	e9 00 00 00 00	 jmp	 ___CxxFrameHandler3
text$x	ENDS
??0CHorizontalScale@@QAE@XZ ENDP			; CHorizontalScale::CHorizontalScale
; Function compile flags: /Ogtp
; File D:\git\src\IBK\IBK_DRFN\ProjSrc\SrcChartEx\ChartAddIn\ChartAnalysisToolAddIn\Include_Chart\ScaleBaseData.cpp
;	COMDAT ??4CHorizontalScale@@QAEAAV0@ABV0@@Z
_TEXT	SEGMENT
$T2 = -36						; size = 12
$T3 = -24						; size = 12
__$EHRec$ = -12						; size = 12
$T4 = 8							; size = 4
_data$ = 8						; size = 4
??4CHorizontalScale@@QAEAAV0@ABV0@@Z PROC		; CHorizontalScale::operator=, COMDAT
; _this$ = ecx

; 147  : {

  00000	55		 push	 ebp
  00001	8b ec		 mov	 ebp, esp
  00003	6a ff		 push	 -1
  00005	68 00 00 00 00	 push	 __ehhandler$??4CHorizontalScale@@QAEAAV0@ABV0@@Z
  0000a	64 a1 00 00 00
	00		 mov	 eax, DWORD PTR fs:0
  00010	50		 push	 eax
  00011	83 ec 18	 sub	 esp, 24			; 00000018H
  00014	53		 push	 ebx
  00015	56		 push	 esi
  00016	57		 push	 edi
  00017	a1 00 00 00 00	 mov	 eax, DWORD PTR ___security_cookie
  0001c	33 c5		 xor	 eax, ebp
  0001e	50		 push	 eax
  0001f	8d 45 f4	 lea	 eax, DWORD PTR __$EHRec$[ebp]
  00022	64 a3 00 00 00
	00		 mov	 DWORD PTR fs:0, eax
  00028	8b f9		 mov	 edi, ecx

; 148  : 	if(this == &data)

  0002a	8b 5d 08	 mov	 ebx, DWORD PTR _data$[ebp]
  0002d	3b fb		 cmp	 edi, ebx
  0002f	0f 84 b7 00 00
	00		 je	 $LN32@operator

; 149  : 		return *this;
; 150  : 
; 151  : 	CScale::operator = ((CScale) data);

  00035	8d 43 04	 lea	 eax, DWORD PTR [ebx+4]
  00038	c7 45 e8 00 00
	00 00		 mov	 DWORD PTR $T3[ebp], OFFSET ??_7CScale@@6B@
  0003f	50		 push	 eax
  00040	8d 4d ec	 lea	 ecx, DWORD PTR $T3[ebp+4]
  00043	ff 15 00 00 00
	00		 call	 DWORD PTR __imp_??0?$CStringT@DV?$StrTraitMFC_DLL@DV?$ChTraitsCRT@D@ATL@@@@@ATL@@QAE@ABV01@@Z
  00049	8b 43 08	 mov	 eax, DWORD PTR [ebx+8]
  0004c	89 45 f0	 mov	 DWORD PTR $T3[ebp+8], eax

; 95   : 	if(this == &data)

  0004f	8d 45 e8	 lea	 eax, DWORD PTR $T3[ebp]

; 149  : 		return *this;
; 150  : 
; 151  : 	CScale::operator = ((CScale) data);

  00052	c7 45 fc 00 00
	00 00		 mov	 DWORD PTR __$EHRec$[ebp+8], 0

; 95   : 	if(this == &data)

  00059	3b f8		 cmp	 edi, eax
  0005b	74 2d		 je	 SHORT $LN9@operator

; 125  : 	return m_strScaleData;

  0005d	8d 45 ec	 lea	 eax, DWORD PTR $T3[ebp+4]
  00060	50		 push	 eax
  00061	8d 4d 08	 lea	 ecx, DWORD PTR $T4[ebp]
  00064	ff 15 00 00 00
	00		 call	 DWORD PTR __imp_??0?$CStringT@DV?$StrTraitMFC_DLL@DV?$ChTraitsCRT@D@ATL@@@@@ATL@@QAE@ABV01@@Z

; 98   : 	m_strScaleData = data.GetScaleData();

  0006a	8d 45 08	 lea	 eax, DWORD PTR $T4[ebp]
  0006d	c6 45 fc 01	 mov	 BYTE PTR __$EHRec$[ebp+8], 1
  00071	50		 push	 eax
  00072	8d 4f 04	 lea	 ecx, DWORD PTR [edi+4]
  00075	ff 15 00 00 00
	00		 call	 DWORD PTR __imp_??4?$CStringT@DV?$StrTraitMFC_DLL@DV?$ChTraitsCRT@D@ATL@@@@@ATL@@QAEAAV01@ABV01@@Z
  0007b	8d 4d 08	 lea	 ecx, DWORD PTR $T4[ebp]
  0007e	ff 15 00 00 00
	00		 call	 DWORD PTR __imp_??1?$CStringT@DV?$StrTraitMFC_DLL@DV?$ChTraitsCRT@D@ATL@@@@@ATL@@QAE@XZ

; 99   : 	m_eScaleGrid = data.GetGridType();

  00084	8b 45 f0	 mov	 eax, DWORD PTR $T3[ebp+8]
  00087	89 47 08	 mov	 DWORD PTR [edi+8], eax
$LN9@operator:
  0008a	8d 4d ec	 lea	 ecx, DWORD PTR $T3[ebp+4]

; 149  : 		return *this;
; 150  : 
; 151  : 	CScale::operator = ((CScale) data);

  0008d	c7 45 fc ff ff
	ff ff		 mov	 DWORD PTR __$EHRec$[ebp+8], -1
  00094	ff 15 00 00 00
	00		 call	 DWORD PTR __imp_??1?$CStringT@DV?$StrTraitMFC_DLL@DV?$ChTraitsCRT@D@ATL@@@@@ATL@@QAE@XZ

; 195  : 	return m_scaleCompart;

  0009a	8d 73 10	 lea	 esi, DWORD PTR [ebx+16]
  0009d	56		 push	 esi
  0009e	8d 4d dc	 lea	 ecx, DWORD PTR $T2[ebp]
  000a1	ff 15 00 00 00
	00		 call	 DWORD PTR __imp_??0?$CStringT@DV?$StrTraitMFC_DLL@DV?$ChTraitsCRT@D@ATL@@@@@ATL@@QAE@ABV01@@Z
  000a7	8d 46 04	 lea	 eax, DWORD PTR [esi+4]
  000aa	c7 45 fc 02 00
	00 00		 mov	 DWORD PTR __$EHRec$[ebp+8], 2
  000b1	50		 push	 eax
  000b2	8d 4d e0	 lea	 ecx, DWORD PTR $T2[ebp+4]
  000b5	ff 15 00 00 00
	00		 call	 DWORD PTR __imp_??0?$CStringT@DV?$StrTraitMFC_DLL@DV?$ChTraitsCRT@D@ATL@@@@@ATL@@QAE@ABV01@@Z
  000bb	8b 46 08	 mov	 eax, DWORD PTR [esi+8]
  000be	89 45 e4	 mov	 DWORD PTR $T2[ebp+8], eax

; 152  : 	m_scaleCompart = data.GetScaleCompart();

  000c1	8d 45 dc	 lea	 eax, DWORD PTR $T2[ebp]
  000c4	c7 45 fc 03 00
	00 00		 mov	 DWORD PTR __$EHRec$[ebp+8], 3
  000cb	50		 push	 eax
  000cc	8d 4f 10	 lea	 ecx, DWORD PTR [edi+16]
  000cf	e8 00 00 00 00	 call	 ??4CScaleCompart@@QAEAAV0@ABV0@@Z ; CScaleCompart::operator=
  000d4	8d 4d e0	 lea	 ecx, DWORD PTR $T2[ebp+4]
  000d7	ff 15 00 00 00
	00		 call	 DWORD PTR __imp_??1?$CStringT@DV?$StrTraitMFC_DLL@DV?$ChTraitsCRT@D@ATL@@@@@ATL@@QAE@XZ
  000dd	8d 4d dc	 lea	 ecx, DWORD PTR $T2[ebp]
  000e0	ff 15 00 00 00
	00		 call	 DWORD PTR __imp_??1?$CStringT@DV?$StrTraitMFC_DLL@DV?$ChTraitsCRT@D@ATL@@@@@ATL@@QAE@XZ

; 153  : 	m_ePosition = data.GetHorzScalePosition();

  000e6	8b 43 0c	 mov	 eax, DWORD PTR [ebx+12]
  000e9	89 47 0c	 mov	 DWORD PTR [edi+12], eax
$LN32@operator:

; 154  : 	return *this;
; 155  : }

  000ec	8b c7		 mov	 eax, edi
  000ee	8b 4d f4	 mov	 ecx, DWORD PTR __$EHRec$[ebp]
  000f1	64 89 0d 00 00
	00 00		 mov	 DWORD PTR fs:0, ecx
  000f8	59		 pop	 ecx
  000f9	5f		 pop	 edi
  000fa	5e		 pop	 esi
  000fb	5b		 pop	 ebx
  000fc	8b e5		 mov	 esp, ebp
  000fe	5d		 pop	 ebp
  000ff	c2 04 00	 ret	 4
_TEXT	ENDS
;	COMDAT text$x
text$x	SEGMENT
__unwindfunclet$??4CHorizontalScale@@QAEAAV0@ABV0@@Z$0:
  00000	8d 4d e8	 lea	 ecx, DWORD PTR $T3[ebp]
  00003	e9 00 00 00 00	 jmp	 ??1CScale@@QAE@XZ
__unwindfunclet$??4CHorizontalScale@@QAEAAV0@ABV0@@Z$3:
  00008	8d 4d 08	 lea	 ecx, DWORD PTR $T4[ebp]
  0000b	ff 25 00 00 00
	00		 jmp	 DWORD PTR __imp_??1?$CStringT@DV?$StrTraitMFC_DLL@DV?$ChTraitsCRT@D@ATL@@@@@ATL@@QAE@XZ
__unwindfunclet$??4CHorizontalScale@@QAEAAV0@ABV0@@Z$7:
  00011	8d 4d dc	 lea	 ecx, DWORD PTR $T2[ebp]
  00014	ff 25 00 00 00
	00		 jmp	 DWORD PTR __imp_??1?$CStringT@DV?$StrTraitMFC_DLL@DV?$ChTraitsCRT@D@ATL@@@@@ATL@@QAE@XZ
__unwindfunclet$??4CHorizontalScale@@QAEAAV0@ABV0@@Z$1:
  0001a	8d 4d dc	 lea	 ecx, DWORD PTR $T2[ebp]
  0001d	e9 00 00 00 00	 jmp	 ??1CScaleCompart@@QAE@XZ
  00022	cc		 int	 3
  00023	cc		 int	 3
  00024	cc		 int	 3
  00025	cc		 int	 3
  00026	cc		 int	 3
__ehhandler$??4CHorizontalScale@@QAEAAV0@ABV0@@Z:
  00027	90		 npad	 1
  00028	90		 npad	 1
  00029	8b 54 24 08	 mov	 edx, DWORD PTR [esp+8]
  0002d	8d 42 0c	 lea	 eax, DWORD PTR [edx+12]
  00030	8b 4a d8	 mov	 ecx, DWORD PTR [edx-40]
  00033	33 c8		 xor	 ecx, eax
  00035	e8 00 00 00 00	 call	 @__security_check_cookie@4
  0003a	b8 00 00 00 00	 mov	 eax, OFFSET __ehfuncinfo$??4CHorizontalScale@@QAEAAV0@ABV0@@Z
  0003f	e9 00 00 00 00	 jmp	 ___CxxFrameHandler3
text$x	ENDS
??4CHorizontalScale@@QAEAAV0@ABV0@@Z ENDP		; CHorizontalScale::operator=
; Function compile flags: /Ogtp
;	COMDAT ??1CScale@@QAE@XZ
_TEXT	SEGMENT
??1CScale@@QAE@XZ PROC					; CScale::~CScale, COMDAT
; _this$ = ecx
  00000	83 c1 04	 add	 ecx, 4
  00003	ff 25 00 00 00
	00		 jmp	 DWORD PTR __imp_??1?$CStringT@DV?$StrTraitMFC_DLL@DV?$ChTraitsCRT@D@ATL@@@@@ATL@@QAE@XZ
??1CScale@@QAE@XZ ENDP					; CScale::~CScale
_TEXT	ENDS
; Function compile flags: /Ogtp
; File D:\git\src\IBK\IBK_DRFN\ProjSrc\SrcChartEx\ChartAddIn\ChartAnalysisToolAddIn\Include_Chart\ScaleBaseData.cpp
; File C:\Program Files (x86)\Microsoft Visual Studio\2019\Community\VC\Tools\MSVC\14.29.30133\atlmfc\include\atlsimpstr.h
; File D:\git\src\IBK\IBK_DRFN\ProjSrc\SrcChartEx\ChartAddIn\ChartAnalysisToolAddIn\Include_Chart\ScaleBaseData.cpp
; File C:\Program Files (x86)\Microsoft Visual Studio\2019\Community\VC\Tools\MSVC\14.29.30133\atlmfc\include\atlsimpstr.h
; File D:\git\src\IBK\IBK_DRFN\ProjSrc\SrcChartEx\ChartAddIn\ChartAnalysisToolAddIn\Include_Chart\ScaleBaseData.cpp
;	COMDAT ?SetGridType@CScale@@IAEXABV?$CStringT@DV?$StrTraitMFC_DLL@DV?$ChTraitsCRT@D@ATL@@@@@ATL@@@Z
_TEXT	SEGMENT
_strGridType$ = 8					; size = 4
?SetGridType@CScale@@IAEXABV?$CStringT@DV?$StrTraitMFC_DLL@DV?$ChTraitsCRT@D@ATL@@@@@ATL@@@Z PROC ; CScale::SetGridType, COMDAT
; _this$ = ecx

; 135  : {

  00000	55		 push	 ebp
  00001	8b ec		 mov	 ebp, esp
; File C:\Program Files (x86)\Microsoft Visual Studio\2019\Community\VC\Tools\MSVC\14.29.30133\atlmfc\include\atlsimpstr.h

; 519  : 		return( GetData()->nDataLength );

  00003	8b 45 08	 mov	 eax, DWORD PTR _strGridType$[ebp]
; File D:\git\src\IBK\IBK_DRFN\ProjSrc\SrcChartEx\ChartAddIn\ChartAnalysisToolAddIn\Include_Chart\ScaleBaseData.cpp

; 135  : {

  00006	56		 push	 esi
  00007	8b f1		 mov	 esi, ecx
; File C:\Program Files (x86)\Microsoft Visual Studio\2019\Community\VC\Tools\MSVC\14.29.30133\atlmfc\include\atlsimpstr.h

; 519  : 		return( GetData()->nDataLength );

  00009	8b 00		 mov	 eax, DWORD PTR [eax]

; 533  : 		return( GetLength() == 0 );

  0000b	83 78 f4 00	 cmp	 DWORD PTR [eax-12], 0
; File D:\git\src\IBK\IBK_DRFN\ProjSrc\SrcChartEx\ChartAddIn\ChartAnalysisToolAddIn\Include_Chart\ScaleBaseData.cpp

; 136  : 	if(strGridType.IsEmpty())

  0000f	74 0d		 je	 SHORT $LN1@SetGridTyp

; 137  : 		return;
; 138  : 
; 139  : 	m_eScaleGrid = (CScaleBaseData::SCALEGRIDTYPE) atoi(strGridType);

  00011	50		 push	 eax
  00012	ff 15 00 00 00
	00		 call	 DWORD PTR __imp__atoi
  00018	83 c4 04	 add	 esp, 4
  0001b	89 46 08	 mov	 DWORD PTR [esi+8], eax
$LN1@SetGridTyp:
  0001e	5e		 pop	 esi

; 140  : }

  0001f	5d		 pop	 ebp
  00020	c2 04 00	 ret	 4
?SetGridType@CScale@@IAEXABV?$CStringT@DV?$StrTraitMFC_DLL@DV?$ChTraitsCRT@D@ATL@@@@@ATL@@@Z ENDP ; CScale::SetGridType
_TEXT	ENDS
; Function compile flags: /Ogtp
; File D:\git\src\IBK\IBK_DRFN\ProjSrc\SrcChartEx\ChartAddIn\ChartAnalysisToolAddIn\Include_Chart\ScaleBaseData.cpp
;	COMDAT ?GetGridType@CScale@@QBE?AW4SCALEGRIDTYPE@CScaleBaseData@@XZ
_TEXT	SEGMENT
?GetGridType@CScale@@QBE?AW4SCALEGRIDTYPE@CScaleBaseData@@XZ PROC ; CScale::GetGridType, COMDAT
; _this$ = ecx

; 130  : 	return m_eScaleGrid;

  00000	8b 41 08	 mov	 eax, DWORD PTR [ecx+8]

; 131  : }

  00003	c3		 ret	 0
?GetGridType@CScale@@QBE?AW4SCALEGRIDTYPE@CScaleBaseData@@XZ ENDP ; CScale::GetGridType
_TEXT	ENDS
; Function compile flags: /Ogtp
; File D:\git\src\IBK\IBK_DRFN\ProjSrc\SrcChartEx\ChartAddIn\ChartAnalysisToolAddIn\Include_Chart\ScaleBaseData.cpp
;	COMDAT ?GetScaleData@CScale@@QBE?AV?$CStringT@DV?$StrTraitMFC_DLL@DV?$ChTraitsCRT@D@ATL@@@@@ATL@@XZ
_TEXT	SEGMENT
___$ReturnUdt$ = 8					; size = 4
?GetScaleData@CScale@@QBE?AV?$CStringT@DV?$StrTraitMFC_DLL@DV?$ChTraitsCRT@D@ATL@@@@@ATL@@XZ PROC ; CScale::GetScaleData, COMDAT
; _this$ = ecx

; 124  : {

  00000	55		 push	 ebp
  00001	8b ec		 mov	 ebp, esp

; 125  : 	return m_strScaleData;

  00003	8d 41 04	 lea	 eax, DWORD PTR [ecx+4]
  00006	8b 4d 08	 mov	 ecx, DWORD PTR ___$ReturnUdt$[ebp]
  00009	50		 push	 eax
  0000a	ff 15 00 00 00
	00		 call	 DWORD PTR __imp_??0?$CStringT@DV?$StrTraitMFC_DLL@DV?$ChTraitsCRT@D@ATL@@@@@ATL@@QAE@ABV01@@Z
  00010	8b 45 08	 mov	 eax, DWORD PTR ___$ReturnUdt$[ebp]

; 126  : }

  00013	5d		 pop	 ebp
  00014	c2 04 00	 ret	 4
?GetScaleData@CScale@@QBE?AV?$CStringT@DV?$StrTraitMFC_DLL@DV?$ChTraitsCRT@D@ATL@@@@@ATL@@XZ ENDP ; CScale::GetScaleData
_TEXT	ENDS
; Function compile flags: /Ogtp
; File D:\git\src\IBK\IBK_DRFN\ProjSrc\SrcChartEx\ChartAddIn\ChartAnalysisToolAddIn\Include_Chart\ScaleBaseData.cpp
;	COMDAT ?SetGridType@CScale@@QAEXW4SCALEGRIDTYPE@CScaleBaseData@@@Z
_TEXT	SEGMENT
_eGridType$ = 8						; size = 4
?SetGridType@CScale@@QAEXW4SCALEGRIDTYPE@CScaleBaseData@@@Z PROC ; CScale::SetGridType, COMDAT
; _this$ = ecx

; 119  : {

  00000	55		 push	 ebp
  00001	8b ec		 mov	 ebp, esp

; 120  : 	m_eScaleGrid = eGridType;

  00003	8b 45 08	 mov	 eax, DWORD PTR _eGridType$[ebp]
  00006	89 41 08	 mov	 DWORD PTR [ecx+8], eax

; 121  : }

  00009	5d		 pop	 ebp
  0000a	c2 04 00	 ret	 4
?SetGridType@CScale@@QAEXW4SCALEGRIDTYPE@CScaleBaseData@@@Z ENDP ; CScale::SetGridType
_TEXT	ENDS
; Function compile flags: /Ogtp
; File D:\git\src\IBK\IBK_DRFN\ProjSrc\SrcChartEx\ChartAddIn\ChartAnalysisToolAddIn\Include_Chart\ScaleBaseData.cpp
;	COMDAT ?SetScaleData@CScale@@UAEXABV?$CStringT@DV?$StrTraitMFC_DLL@DV?$ChTraitsCRT@D@ATL@@@@@ATL@@@Z
_TEXT	SEGMENT
_scaleData$ = 8						; size = 4
?SetScaleData@CScale@@UAEXABV?$CStringT@DV?$StrTraitMFC_DLL@DV?$ChTraitsCRT@D@ATL@@@@@ATL@@@Z PROC ; CScale::SetScaleData, COMDAT
; _this$ = ecx

; 114  : {

  00000	55		 push	 ebp
  00001	8b ec		 mov	 ebp, esp

; 115  : 	m_strScaleData = scaleData;

  00003	83 c1 04	 add	 ecx, 4

; 116  : }

  00006	5d		 pop	 ebp

; 115  : 	m_strScaleData = scaleData;

  00007	ff 25 00 00 00
	00		 jmp	 DWORD PTR __imp_??4?$CStringT@DV?$StrTraitMFC_DLL@DV?$ChTraitsCRT@D@ATL@@@@@ATL@@QAEAAV01@ABV01@@Z
?SetScaleData@CScale@@UAEXABV?$CStringT@DV?$StrTraitMFC_DLL@DV?$ChTraitsCRT@D@ATL@@@@@ATL@@@Z ENDP ; CScale::SetScaleData
_TEXT	ENDS
; Function compile flags: /Ogtp
; File D:\git\src\IBK\IBK_DRFN\ProjSrc\SrcChartEx\ChartAddIn\ChartAnalysisToolAddIn\Include_Chart\ScaleBaseData.cpp
;	COMDAT ?SetData@CScale@@QAEXABV?$CStringT@DV?$StrTraitMFC_DLL@DV?$ChTraitsCRT@D@ATL@@@@@ATL@@@Z
_TEXT	SEGMENT
_scaleData$ = 8						; size = 4
?SetData@CScale@@QAEXABV?$CStringT@DV?$StrTraitMFC_DLL@DV?$ChTraitsCRT@D@ATL@@@@@ATL@@@Z PROC ; CScale::SetData, COMDAT
; _this$ = ecx

; 109  : {

  00000	55		 push	 ebp
  00001	8b ec		 mov	 ebp, esp

; 110  : 	m_strScaleData = scaleData;

  00003	83 c1 04	 add	 ecx, 4

; 111  : }

  00006	5d		 pop	 ebp

; 110  : 	m_strScaleData = scaleData;

  00007	ff 25 00 00 00
	00		 jmp	 DWORD PTR __imp_??4?$CStringT@DV?$StrTraitMFC_DLL@DV?$ChTraitsCRT@D@ATL@@@@@ATL@@QAEAAV01@ABV01@@Z
?SetData@CScale@@QAEXABV?$CStringT@DV?$StrTraitMFC_DLL@DV?$ChTraitsCRT@D@ATL@@@@@ATL@@@Z ENDP ; CScale::SetData
_TEXT	ENDS
; Function compile flags: /Ogtp
; File D:\git\src\IBK\IBK_DRFN\ProjSrc\SrcChartEx\ChartAddIn\ChartAnalysisToolAddIn\Include_Chart\ScaleBaseData.cpp
;	COMDAT ??0CScale@@QAE@XZ
_TEXT	SEGMENT
_this$ = -4						; size = 4
??0CScale@@QAE@XZ PROC					; CScale::CScale, COMDAT
; _this$ = ecx

; 105  : {

  00000	55		 push	 ebp
  00001	8b ec		 mov	 ebp, esp
  00003	51		 push	 ecx
  00004	56		 push	 esi
  00005	8b f1		 mov	 esi, ecx
  00007	89 75 fc	 mov	 DWORD PTR _this$[ebp], esi
  0000a	8d 4e 04	 lea	 ecx, DWORD PTR [esi+4]
  0000d	c7 06 00 00 00
	00		 mov	 DWORD PTR [esi], OFFSET ??_7CScale@@6B@
  00013	ff 15 00 00 00
	00		 call	 DWORD PTR __imp_??0?$CStringT@DV?$StrTraitMFC_DLL@DV?$ChTraitsCRT@D@ATL@@@@@ATL@@QAE@XZ

; 104  : 	m_eScaleGrid(CScaleBaseData::SLNONE)

  00019	c7 46 08 03 00
	00 00		 mov	 DWORD PTR [esi+8], 3

; 106  : }

  00020	8b c6		 mov	 eax, esi
  00022	5e		 pop	 esi
  00023	8b e5		 mov	 esp, ebp
  00025	5d		 pop	 ebp
  00026	c3		 ret	 0
??0CScale@@QAE@XZ ENDP					; CScale::CScale
_TEXT	ENDS
; Function compile flags: /Ogtp
; File D:\git\src\IBK\IBK_DRFN\ProjSrc\SrcChartEx\ChartAddIn\ChartAnalysisToolAddIn\Include_Chart\ScaleBaseData.cpp
;	COMDAT ??4CScale@@QAEAAV0@ABV0@@Z
_TEXT	SEGMENT
__$EHRec$ = -12						; size = 12
$T2 = 8							; size = 4
_data$ = 8						; size = 4
??4CScale@@QAEAAV0@ABV0@@Z PROC				; CScale::operator=, COMDAT
; _this$ = ecx

; 94   : {

  00000	55		 push	 ebp
  00001	8b ec		 mov	 ebp, esp
  00003	6a ff		 push	 -1
  00005	68 00 00 00 00	 push	 __ehhandler$??4CScale@@QAEAAV0@ABV0@@Z
  0000a	64 a1 00 00 00
	00		 mov	 eax, DWORD PTR fs:0
  00010	50		 push	 eax
  00011	56		 push	 esi
  00012	57		 push	 edi
  00013	a1 00 00 00 00	 mov	 eax, DWORD PTR ___security_cookie
  00018	33 c5		 xor	 eax, ebp
  0001a	50		 push	 eax
  0001b	8d 45 f4	 lea	 eax, DWORD PTR __$EHRec$[ebp]
  0001e	64 a3 00 00 00
	00		 mov	 DWORD PTR fs:0, eax
  00024	8b f1		 mov	 esi, ecx

; 95   : 	if(this == &data)

  00026	8b 7d 08	 mov	 edi, DWORD PTR _data$[ebp]
  00029	3b f7		 cmp	 esi, edi
  0002b	74 30		 je	 SHORT $LN10@operator

; 125  : 	return m_strScaleData;

  0002d	8d 47 04	 lea	 eax, DWORD PTR [edi+4]
  00030	50		 push	 eax
  00031	8d 4d 08	 lea	 ecx, DWORD PTR $T2[ebp]
  00034	ff 15 00 00 00
	00		 call	 DWORD PTR __imp_??0?$CStringT@DV?$StrTraitMFC_DLL@DV?$ChTraitsCRT@D@ATL@@@@@ATL@@QAE@ABV01@@Z

; 96   : 		return *this;
; 97   : 
; 98   : 	m_strScaleData = data.GetScaleData();

  0003a	8d 45 08	 lea	 eax, DWORD PTR $T2[ebp]
  0003d	c7 45 fc 00 00
	00 00		 mov	 DWORD PTR __$EHRec$[ebp+8], 0
  00044	50		 push	 eax
  00045	8d 4e 04	 lea	 ecx, DWORD PTR [esi+4]
  00048	ff 15 00 00 00
	00		 call	 DWORD PTR __imp_??4?$CStringT@DV?$StrTraitMFC_DLL@DV?$ChTraitsCRT@D@ATL@@@@@ATL@@QAEAAV01@ABV01@@Z
  0004e	8d 4d 08	 lea	 ecx, DWORD PTR $T2[ebp]
  00051	ff 15 00 00 00
	00		 call	 DWORD PTR __imp_??1?$CStringT@DV?$StrTraitMFC_DLL@DV?$ChTraitsCRT@D@ATL@@@@@ATL@@QAE@XZ

; 99   : 	m_eScaleGrid = data.GetGridType();

  00057	8b 47 08	 mov	 eax, DWORD PTR [edi+8]
  0005a	89 46 08	 mov	 DWORD PTR [esi+8], eax
$LN10@operator:

; 100  : 	return *this;
; 101  : }

  0005d	8b c6		 mov	 eax, esi
  0005f	8b 4d f4	 mov	 ecx, DWORD PTR __$EHRec$[ebp]
  00062	64 89 0d 00 00
	00 00		 mov	 DWORD PTR fs:0, ecx
  00069	59		 pop	 ecx
  0006a	5f		 pop	 edi
  0006b	5e		 pop	 esi
  0006c	8b e5		 mov	 esp, ebp
  0006e	5d		 pop	 ebp
  0006f	c2 04 00	 ret	 4
_TEXT	ENDS
;	COMDAT text$x
text$x	SEGMENT
__unwindfunclet$??4CScale@@QAEAAV0@ABV0@@Z$0:
  00000	8d 4d 08	 lea	 ecx, DWORD PTR $T2[ebp]
  00003	ff 25 00 00 00
	00		 jmp	 DWORD PTR __imp_??1?$CStringT@DV?$StrTraitMFC_DLL@DV?$ChTraitsCRT@D@ATL@@@@@ATL@@QAE@XZ
  00009	cc		 int	 3
  0000a	cc		 int	 3
  0000b	cc		 int	 3
  0000c	cc		 int	 3
  0000d	cc		 int	 3
__ehhandler$??4CScale@@QAEAAV0@ABV0@@Z:
  0000e	90		 npad	 1
  0000f	90		 npad	 1
  00010	8b 54 24 08	 mov	 edx, DWORD PTR [esp+8]
  00014	8d 42 0c	 lea	 eax, DWORD PTR [edx+12]
  00017	8b 4a f4	 mov	 ecx, DWORD PTR [edx-12]
  0001a	33 c8		 xor	 ecx, eax
  0001c	e8 00 00 00 00	 call	 @__security_check_cookie@4
  00021	b8 00 00 00 00	 mov	 eax, OFFSET __ehfuncinfo$??4CScale@@QAEAAV0@ABV0@@Z
  00026	e9 00 00 00 00	 jmp	 ___CxxFrameHandler3
text$x	ENDS
??4CScale@@QAEAAV0@ABV0@@Z ENDP				; CScale::operator=
; Function compile flags: /Ogtp
;	COMDAT ??1CScaleCompart@@QAE@XZ
_TEXT	SEGMENT
??1CScaleCompart@@QAE@XZ PROC				; CScaleCompart::~CScaleCompart, COMDAT
; _this$ = ecx
  00000	56		 push	 esi
  00001	8b f1		 mov	 esi, ecx
  00003	8d 4e 04	 lea	 ecx, DWORD PTR [esi+4]
  00006	ff 15 00 00 00
	00		 call	 DWORD PTR __imp_??1?$CStringT@DV?$StrTraitMFC_DLL@DV?$ChTraitsCRT@D@ATL@@@@@ATL@@QAE@XZ
  0000c	8b ce		 mov	 ecx, esi
  0000e	5e		 pop	 esi
  0000f	ff 25 00 00 00
	00		 jmp	 DWORD PTR __imp_??1?$CStringT@DV?$StrTraitMFC_DLL@DV?$ChTraitsCRT@D@ATL@@@@@ATL@@QAE@XZ
??1CScaleCompart@@QAE@XZ ENDP				; CScaleCompart::~CScaleCompart
_TEXT	ENDS
; Function compile flags: /Ogtp
; File D:\git\src\IBK\IBK_DRFN\ProjSrc\SrcChartEx\ChartAddIn\ChartAnalysisToolAddIn\Include_Chart\ScaleBaseData.cpp
;	COMDAT ?SetScaleTextType@CScaleCompart@@QAEXW4TEXTCOMPARTTYPE@CScaleBaseData@@@Z
_TEXT	SEGMENT
_eTextType$ = 8						; size = 4
?SetScaleTextType@CScaleCompart@@QAEXW4TEXTCOMPARTTYPE@CScaleBaseData@@@Z PROC ; CScaleCompart::SetScaleTextType, COMDAT
; _this$ = ecx

; 85   : {

  00000	55		 push	 ebp
  00001	8b ec		 mov	 ebp, esp

; 86   : 	m_eTextType = eTextType;

  00003	8b 45 08	 mov	 eax, DWORD PTR _eTextType$[ebp]
  00006	89 41 08	 mov	 DWORD PTR [ecx+8], eax

; 87   : }

  00009	5d		 pop	 ebp
  0000a	c2 04 00	 ret	 4
?SetScaleTextType@CScaleCompart@@QAEXW4TEXTCOMPARTTYPE@CScaleBaseData@@@Z ENDP ; CScaleCompart::SetScaleTextType
_TEXT	ENDS
; Function compile flags: /Ogtp
; File D:\git\src\IBK\IBK_DRFN\ProjSrc\SrcChartEx\ChartAddIn\ChartAnalysisToolAddIn\Include_Chart\ScaleBaseData.cpp
;	COMDAT ?SetTimeCompart@CScaleCompart@@QAEXABV?$CStringT@DV?$StrTraitMFC_DLL@DV?$ChTraitsCRT@D@ATL@@@@@ATL@@@Z
_TEXT	SEGMENT
_timeCompart$ = 8					; size = 4
?SetTimeCompart@CScaleCompart@@QAEXABV?$CStringT@DV?$StrTraitMFC_DLL@DV?$ChTraitsCRT@D@ATL@@@@@ATL@@@Z PROC ; CScaleCompart::SetTimeCompart, COMDAT
; _this$ = ecx

; 80   : {

  00000	55		 push	 ebp
  00001	8b ec		 mov	 ebp, esp

; 81   : 	m_strTimeCompart = timeCompart;

  00003	83 c1 04	 add	 ecx, 4

; 82   : }

  00006	5d		 pop	 ebp

; 81   : 	m_strTimeCompart = timeCompart;

  00007	ff 25 00 00 00
	00		 jmp	 DWORD PTR __imp_??4?$CStringT@DV?$StrTraitMFC_DLL@DV?$ChTraitsCRT@D@ATL@@@@@ATL@@QAEAAV01@ABV01@@Z
?SetTimeCompart@CScaleCompart@@QAEXABV?$CStringT@DV?$StrTraitMFC_DLL@DV?$ChTraitsCRT@D@ATL@@@@@ATL@@@Z ENDP ; CScaleCompart::SetTimeCompart
_TEXT	ENDS
; Function compile flags: /Ogtp
; File D:\git\src\IBK\IBK_DRFN\ProjSrc\SrcChartEx\ChartAddIn\ChartAnalysisToolAddIn\Include_Chart\ScaleBaseData.cpp
;	COMDAT ?SetDateCompart@CScaleCompart@@QAEXABV?$CStringT@DV?$StrTraitMFC_DLL@DV?$ChTraitsCRT@D@ATL@@@@@ATL@@@Z
_TEXT	SEGMENT
_dateCompart$ = 8					; size = 4
?SetDateCompart@CScaleCompart@@QAEXABV?$CStringT@DV?$StrTraitMFC_DLL@DV?$ChTraitsCRT@D@ATL@@@@@ATL@@@Z PROC ; CScaleCompart::SetDateCompart, COMDAT
; _this$ = ecx

; 75   : {

  00000	55		 push	 ebp
  00001	8b ec		 mov	 ebp, esp

; 77   : }

  00003	5d		 pop	 ebp

; 76   : 	m_strDateCompart = dateCompart;

  00004	ff 25 00 00 00
	00		 jmp	 DWORD PTR __imp_??4?$CStringT@DV?$StrTraitMFC_DLL@DV?$ChTraitsCRT@D@ATL@@@@@ATL@@QAEAAV01@ABV01@@Z
?SetDateCompart@CScaleCompart@@QAEXABV?$CStringT@DV?$StrTraitMFC_DLL@DV?$ChTraitsCRT@D@ATL@@@@@ATL@@@Z ENDP ; CScaleCompart::SetDateCompart
_TEXT	ENDS
; Function compile flags: /Ogtp
; File D:\git\src\IBK\IBK_DRFN\ProjSrc\SrcChartEx\ChartAddIn\ChartAnalysisToolAddIn\Include_Chart\ScaleBaseData.cpp
; File C:\Program Files (x86)\Microsoft Visual Studio\2019\Community\VC\Tools\MSVC\14.29.30133\atlmfc\include\atlsimpstr.h
; File D:\git\src\IBK\IBK_DRFN\ProjSrc\SrcChartEx\ChartAddIn\ChartAnalysisToolAddIn\Include_Chart\ScaleBaseData.cpp
; File C:\Program Files (x86)\Microsoft Visual Studio\2019\Community\VC\Tools\MSVC\14.29.30133\atlmfc\include\atlsimpstr.h
; File D:\git\src\IBK\IBK_DRFN\ProjSrc\SrcChartEx\ChartAddIn\ChartAnalysisToolAddIn\Include_Chart\ScaleBaseData.cpp
; File C:\Program Files (x86)\Microsoft Visual Studio\2019\Community\VC\Tools\MSVC\14.29.30133\atlmfc\include\atlsimpstr.h
; File D:\git\src\IBK\IBK_DRFN\ProjSrc\SrcChartEx\ChartAddIn\ChartAnalysisToolAddIn\Include_Chart\ScaleBaseData.cpp
;	COMDAT ?SetCompart@CScaleCompart@@QAEXABV?$CStringT@DV?$StrTraitMFC_DLL@DV?$ChTraitsCRT@D@ATL@@@@@ATL@@@Z
_TEXT	SEGMENT
$T2 = -20						; size = 4
$T3 = -20						; size = 4
$T4 = -20						; size = 4
$T5 = -16						; size = 4
$T6 = -16						; size = 4
$T7 = -16						; size = 4
__$EHRec$ = -12						; size = 12
_strTemp$ = 8						; size = 4
_strData$ = 8						; size = 4
?SetCompart@CScaleCompart@@QAEXABV?$CStringT@DV?$StrTraitMFC_DLL@DV?$ChTraitsCRT@D@ATL@@@@@ATL@@@Z PROC ; CScaleCompart::SetCompart, COMDAT
; _this$ = ecx

; 62   : {

  00000	55		 push	 ebp
  00001	8b ec		 mov	 ebp, esp
  00003	6a ff		 push	 -1
  00005	68 00 00 00 00	 push	 __ehhandler$?SetCompart@CScaleCompart@@QAEXABV?$CStringT@DV?$StrTraitMFC_DLL@DV?$ChTraitsCRT@D@ATL@@@@@ATL@@@Z
  0000a	64 a1 00 00 00
	00		 mov	 eax, DWORD PTR fs:0
  00010	50		 push	 eax
  00011	83 ec 08	 sub	 esp, 8
  00014	56		 push	 esi
  00015	a1 00 00 00 00	 mov	 eax, DWORD PTR ___security_cookie
  0001a	33 c5		 xor	 eax, ebp
  0001c	50		 push	 eax
  0001d	8d 45 f4	 lea	 eax, DWORD PTR __$EHRec$[ebp]
  00020	64 a3 00 00 00
	00		 mov	 DWORD PTR fs:0, eax
  00026	8b f1		 mov	 esi, ecx

; 63   : 	CString strTemp = strData;

  00028	ff 75 08	 push	 DWORD PTR _strData$[ebp]
  0002b	8d 4d 08	 lea	 ecx, DWORD PTR _strTemp$[ebp]
  0002e	ff 15 00 00 00
	00		 call	 DWORD PTR __imp_??0?$CStringT@DV?$StrTraitMFC_DLL@DV?$ChTraitsCRT@D@ATL@@@@@ATL@@QAE@ABV01@@Z
; File C:\Program Files (x86)\Microsoft Visual Studio\2019\Community\VC\Tools\MSVC\14.29.30133\atlmfc\include\atlsimpstr.h

; 519  : 		return( GetData()->nDataLength );

  00034	8b 45 08	 mov	 eax, DWORD PTR _strTemp$[ebp]
; File D:\git\src\IBK\IBK_DRFN\ProjSrc\SrcChartEx\ChartAddIn\ChartAnalysisToolAddIn\Include_Chart\ScaleBaseData.cpp

; 63   : 	CString strTemp = strData;

  00037	c7 45 fc 00 00
	00 00		 mov	 DWORD PTR __$EHRec$[ebp+8], 0
; File C:\Program Files (x86)\Microsoft Visual Studio\2019\Community\VC\Tools\MSVC\14.29.30133\atlmfc\include\atlsimpstr.h

; 533  : 		return( GetLength() == 0 );

  0003e	83 78 f4 00	 cmp	 DWORD PTR [eax-12], 0
; File D:\git\src\IBK\IBK_DRFN\ProjSrc\SrcChartEx\ChartAddIn\ChartAnalysisToolAddIn\Include_Chart\ScaleBaseData.cpp

; 64   : 	if(strTemp.IsEmpty())

  00042	0f 84 e5 00 00
	00		 je	 $LN3@SetCompart

; 65   : 		return;
; 66   : 
; 67   : 	m_strDateCompart = CDataConversion::GetStringData(strTemp, ";");

  00048	68 00 00 00 00	 push	 OFFSET ??_C@_01ICJEACDI@?$DL@
  0004d	8d 4d f0	 lea	 ecx, DWORD PTR $T7[ebp]
  00050	ff 15 00 00 00
	00		 call	 DWORD PTR __imp_??0?$CStringT@DV?$StrTraitMFC_DLL@DV?$ChTraitsCRT@D@ATL@@@@@ATL@@QAE@PBD@Z
  00056	6a 01		 push	 1
  00058	8d 45 f0	 lea	 eax, DWORD PTR $T7[ebp]
  0005b	c6 45 fc 01	 mov	 BYTE PTR __$EHRec$[ebp+8], 1
  0005f	50		 push	 eax
  00060	8d 45 08	 lea	 eax, DWORD PTR _strTemp$[ebp]
  00063	50		 push	 eax
  00064	8d 45 ec	 lea	 eax, DWORD PTR $T4[ebp]
  00067	50		 push	 eax
  00068	e8 00 00 00 00	 call	 ?GetStringData@CDataConversion@@SA?AV?$CStringT@DV?$StrTraitMFC_DLL@DV?$ChTraitsCRT@D@ATL@@@@@ATL@@AAV23@ABV23@_N@Z ; CDataConversion::GetStringData
  0006d	83 c4 10	 add	 esp, 16			; 00000010H
  00070	50		 push	 eax
  00071	8b ce		 mov	 ecx, esi
  00073	c6 45 fc 02	 mov	 BYTE PTR __$EHRec$[ebp+8], 2
  00077	ff 15 00 00 00
	00		 call	 DWORD PTR __imp_??4?$CStringT@DV?$StrTraitMFC_DLL@DV?$ChTraitsCRT@D@ATL@@@@@ATL@@QAEAAV01@ABV01@@Z
  0007d	8d 4d ec	 lea	 ecx, DWORD PTR $T4[ebp]
  00080	ff 15 00 00 00
	00		 call	 DWORD PTR __imp_??1?$CStringT@DV?$StrTraitMFC_DLL@DV?$ChTraitsCRT@D@ATL@@@@@ATL@@QAE@XZ
  00086	8d 4d f0	 lea	 ecx, DWORD PTR $T7[ebp]
  00089	c6 45 fc 00	 mov	 BYTE PTR __$EHRec$[ebp+8], 0
  0008d	ff 15 00 00 00
	00		 call	 DWORD PTR __imp_??1?$CStringT@DV?$StrTraitMFC_DLL@DV?$ChTraitsCRT@D@ATL@@@@@ATL@@QAE@XZ

; 68   : 	m_strTimeCompart = CDataConversion::GetStringData(strTemp, ";");

  00093	68 00 00 00 00	 push	 OFFSET ??_C@_01ICJEACDI@?$DL@
  00098	8d 4d f0	 lea	 ecx, DWORD PTR $T6[ebp]
  0009b	ff 15 00 00 00
	00		 call	 DWORD PTR __imp_??0?$CStringT@DV?$StrTraitMFC_DLL@DV?$ChTraitsCRT@D@ATL@@@@@ATL@@QAE@PBD@Z
  000a1	6a 01		 push	 1
  000a3	8d 45 f0	 lea	 eax, DWORD PTR $T6[ebp]
  000a6	c6 45 fc 03	 mov	 BYTE PTR __$EHRec$[ebp+8], 3
  000aa	50		 push	 eax
  000ab	8d 45 08	 lea	 eax, DWORD PTR _strTemp$[ebp]
  000ae	50		 push	 eax
  000af	8d 45 ec	 lea	 eax, DWORD PTR $T3[ebp]
  000b2	50		 push	 eax
  000b3	e8 00 00 00 00	 call	 ?GetStringData@CDataConversion@@SA?AV?$CStringT@DV?$StrTraitMFC_DLL@DV?$ChTraitsCRT@D@ATL@@@@@ATL@@AAV23@ABV23@_N@Z ; CDataConversion::GetStringData
  000b8	83 c4 10	 add	 esp, 16			; 00000010H
  000bb	50		 push	 eax
  000bc	8d 4e 04	 lea	 ecx, DWORD PTR [esi+4]
  000bf	c6 45 fc 04	 mov	 BYTE PTR __$EHRec$[ebp+8], 4
  000c3	ff 15 00 00 00
	00		 call	 DWORD PTR __imp_??4?$CStringT@DV?$StrTraitMFC_DLL@DV?$ChTraitsCRT@D@ATL@@@@@ATL@@QAEAAV01@ABV01@@Z
  000c9	8d 4d ec	 lea	 ecx, DWORD PTR $T3[ebp]
  000cc	ff 15 00 00 00
	00		 call	 DWORD PTR __imp_??1?$CStringT@DV?$StrTraitMFC_DLL@DV?$ChTraitsCRT@D@ATL@@@@@ATL@@QAE@XZ
  000d2	8d 4d f0	 lea	 ecx, DWORD PTR $T6[ebp]
  000d5	c6 45 fc 00	 mov	 BYTE PTR __$EHRec$[ebp+8], 0
  000d9	ff 15 00 00 00
	00		 call	 DWORD PTR __imp_??1?$CStringT@DV?$StrTraitMFC_DLL@DV?$ChTraitsCRT@D@ATL@@@@@ATL@@QAE@XZ
; File C:\Program Files (x86)\Microsoft Visual Studio\2019\Community\VC\Tools\MSVC\14.29.30133\atlmfc\include\atlsimpstr.h

; 519  : 		return( GetData()->nDataLength );

  000df	8b 45 08	 mov	 eax, DWORD PTR _strTemp$[ebp]

; 533  : 		return( GetLength() == 0 );

  000e2	83 78 f4 00	 cmp	 DWORD PTR [eax-12], 0
; File D:\git\src\IBK\IBK_DRFN\ProjSrc\SrcChartEx\ChartAddIn\ChartAnalysisToolAddIn\Include_Chart\ScaleBaseData.cpp

; 69   : 	if(!strTemp.IsEmpty()){

  000e6	74 45		 je	 SHORT $LN3@SetCompart

; 70   : 		m_eTextType = (CScaleBaseData::TEXTCOMPARTTYPE) atoi(CDataConversion::GetStringData(strTemp, ";"));

  000e8	68 00 00 00 00	 push	 OFFSET ??_C@_01ICJEACDI@?$DL@
  000ed	8d 4d f0	 lea	 ecx, DWORD PTR $T5[ebp]
  000f0	ff 15 00 00 00
	00		 call	 DWORD PTR __imp_??0?$CStringT@DV?$StrTraitMFC_DLL@DV?$ChTraitsCRT@D@ATL@@@@@ATL@@QAE@PBD@Z
  000f6	6a 01		 push	 1
  000f8	8d 45 f0	 lea	 eax, DWORD PTR $T5[ebp]
  000fb	c6 45 fc 05	 mov	 BYTE PTR __$EHRec$[ebp+8], 5
  000ff	50		 push	 eax
  00100	8d 45 08	 lea	 eax, DWORD PTR _strTemp$[ebp]
  00103	50		 push	 eax
  00104	8d 45 ec	 lea	 eax, DWORD PTR $T2[ebp]
  00107	50		 push	 eax
  00108	e8 00 00 00 00	 call	 ?GetStringData@CDataConversion@@SA?AV?$CStringT@DV?$StrTraitMFC_DLL@DV?$ChTraitsCRT@D@ATL@@@@@ATL@@AAV23@ABV23@_N@Z ; CDataConversion::GetStringData
  0010d	ff 30		 push	 DWORD PTR [eax]
  0010f	ff 15 00 00 00
	00		 call	 DWORD PTR __imp__atoi
  00115	83 c4 14	 add	 esp, 20			; 00000014H
  00118	89 46 08	 mov	 DWORD PTR [esi+8], eax
  0011b	8d 4d ec	 lea	 ecx, DWORD PTR $T2[ebp]
  0011e	ff 15 00 00 00
	00		 call	 DWORD PTR __imp_??1?$CStringT@DV?$StrTraitMFC_DLL@DV?$ChTraitsCRT@D@ATL@@@@@ATL@@QAE@XZ
  00124	8d 4d f0	 lea	 ecx, DWORD PTR $T5[ebp]
  00127	ff 15 00 00 00
	00		 call	 DWORD PTR __imp_??1?$CStringT@DV?$StrTraitMFC_DLL@DV?$ChTraitsCRT@D@ATL@@@@@ATL@@QAE@XZ
$LN3@SetCompart:

; 71   : 	}
; 72   : }

  0012d	8d 4d 08	 lea	 ecx, DWORD PTR _strTemp$[ebp]
  00130	ff 15 00 00 00
	00		 call	 DWORD PTR __imp_??1?$CStringT@DV?$StrTraitMFC_DLL@DV?$ChTraitsCRT@D@ATL@@@@@ATL@@QAE@XZ
  00136	8b 4d f4	 mov	 ecx, DWORD PTR __$EHRec$[ebp]
  00139	64 89 0d 00 00
	00 00		 mov	 DWORD PTR fs:0, ecx
  00140	59		 pop	 ecx
  00141	5e		 pop	 esi
  00142	8b e5		 mov	 esp, ebp
  00144	5d		 pop	 ebp
  00145	c2 04 00	 ret	 4
_TEXT	ENDS
;	COMDAT text$x
text$x	SEGMENT
__unwindfunclet$?SetCompart@CScaleCompart@@QAEXABV?$CStringT@DV?$StrTraitMFC_DLL@DV?$ChTraitsCRT@D@ATL@@@@@ATL@@@Z$0:
  00000	8d 4d 08	 lea	 ecx, DWORD PTR _strTemp$[ebp]
  00003	ff 25 00 00 00
	00		 jmp	 DWORD PTR __imp_??1?$CStringT@DV?$StrTraitMFC_DLL@DV?$ChTraitsCRT@D@ATL@@@@@ATL@@QAE@XZ
__unwindfunclet$?SetCompart@CScaleCompart@@QAEXABV?$CStringT@DV?$StrTraitMFC_DLL@DV?$ChTraitsCRT@D@ATL@@@@@ATL@@@Z$1:
  00009	8d 4d f0	 lea	 ecx, DWORD PTR $T7[ebp]
  0000c	ff 25 00 00 00
	00		 jmp	 DWORD PTR __imp_??1?$CStringT@DV?$StrTraitMFC_DLL@DV?$ChTraitsCRT@D@ATL@@@@@ATL@@QAE@XZ
__unwindfunclet$?SetCompart@CScaleCompart@@QAEXABV?$CStringT@DV?$StrTraitMFC_DLL@DV?$ChTraitsCRT@D@ATL@@@@@ATL@@@Z$2:
  00012	8d 4d ec	 lea	 ecx, DWORD PTR $T4[ebp]
  00015	ff 25 00 00 00
	00		 jmp	 DWORD PTR __imp_??1?$CStringT@DV?$StrTraitMFC_DLL@DV?$ChTraitsCRT@D@ATL@@@@@ATL@@QAE@XZ
__unwindfunclet$?SetCompart@CScaleCompart@@QAEXABV?$CStringT@DV?$StrTraitMFC_DLL@DV?$ChTraitsCRT@D@ATL@@@@@ATL@@@Z$3:
  0001b	8d 4d f0	 lea	 ecx, DWORD PTR $T6[ebp]
  0001e	ff 25 00 00 00
	00		 jmp	 DWORD PTR __imp_??1?$CStringT@DV?$StrTraitMFC_DLL@DV?$ChTraitsCRT@D@ATL@@@@@ATL@@QAE@XZ
__unwindfunclet$?SetCompart@CScaleCompart@@QAEXABV?$CStringT@DV?$StrTraitMFC_DLL@DV?$ChTraitsCRT@D@ATL@@@@@ATL@@@Z$4:
  00024	8d 4d ec	 lea	 ecx, DWORD PTR $T3[ebp]
  00027	ff 25 00 00 00
	00		 jmp	 DWORD PTR __imp_??1?$CStringT@DV?$StrTraitMFC_DLL@DV?$ChTraitsCRT@D@ATL@@@@@ATL@@QAE@XZ
__unwindfunclet$?SetCompart@CScaleCompart@@QAEXABV?$CStringT@DV?$StrTraitMFC_DLL@DV?$ChTraitsCRT@D@ATL@@@@@ATL@@@Z$5:
  0002d	8d 4d f0	 lea	 ecx, DWORD PTR $T5[ebp]
  00030	ff 25 00 00 00
	00		 jmp	 DWORD PTR __imp_??1?$CStringT@DV?$StrTraitMFC_DLL@DV?$ChTraitsCRT@D@ATL@@@@@ATL@@QAE@XZ
  00036	cc		 int	 3
  00037	cc		 int	 3
  00038	cc		 int	 3
  00039	cc		 int	 3
  0003a	cc		 int	 3
__ehhandler$?SetCompart@CScaleCompart@@QAEXABV?$CStringT@DV?$StrTraitMFC_DLL@DV?$ChTraitsCRT@D@ATL@@@@@ATL@@@Z:
  0003b	90		 npad	 1
  0003c	90		 npad	 1
  0003d	8b 54 24 08	 mov	 edx, DWORD PTR [esp+8]
  00041	8d 42 0c	 lea	 eax, DWORD PTR [edx+12]
  00044	8b 4a f0	 mov	 ecx, DWORD PTR [edx-16]
  00047	33 c8		 xor	 ecx, eax
  00049	e8 00 00 00 00	 call	 @__security_check_cookie@4
  0004e	b8 00 00 00 00	 mov	 eax, OFFSET __ehfuncinfo$?SetCompart@CScaleCompart@@QAEXABV?$CStringT@DV?$StrTraitMFC_DLL@DV?$ChTraitsCRT@D@ATL@@@@@ATL@@@Z
  00053	e9 00 00 00 00	 jmp	 ___CxxFrameHandler3
text$x	ENDS
?SetCompart@CScaleCompart@@QAEXABV?$CStringT@DV?$StrTraitMFC_DLL@DV?$ChTraitsCRT@D@ATL@@@@@ATL@@@Z ENDP ; CScaleCompart::SetCompart
; Function compile flags: /Ogtp
; File D:\git\src\IBK\IBK_DRFN\ProjSrc\SrcChartEx\ChartAddIn\ChartAnalysisToolAddIn\Include_Chart\ScaleBaseData.cpp
;	COMDAT ?GetScaleTextType@CScaleCompart@@QBE?AW4TEXTCOMPARTTYPE@CScaleBaseData@@XZ
_TEXT	SEGMENT
?GetScaleTextType@CScaleCompart@@QBE?AW4TEXTCOMPARTTYPE@CScaleBaseData@@XZ PROC ; CScaleCompart::GetScaleTextType, COMDAT
; _this$ = ecx

; 58   : 	return m_eTextType;

  00000	8b 41 08	 mov	 eax, DWORD PTR [ecx+8]

; 59   : }

  00003	c3		 ret	 0
?GetScaleTextType@CScaleCompart@@QBE?AW4TEXTCOMPARTTYPE@CScaleBaseData@@XZ ENDP ; CScaleCompart::GetScaleTextType
_TEXT	ENDS
; Function compile flags: /Ogtp
; File D:\git\src\IBK\IBK_DRFN\ProjSrc\SrcChartEx\ChartAddIn\ChartAnalysisToolAddIn\Include_Chart\ScaleBaseData.cpp
;	COMDAT ?GetTimeCompart@CScaleCompart@@QBE?AV?$CStringT@DV?$StrTraitMFC_DLL@DV?$ChTraitsCRT@D@ATL@@@@@ATL@@XZ
_TEXT	SEGMENT
___$ReturnUdt$ = 8					; size = 4
?GetTimeCompart@CScaleCompart@@QBE?AV?$CStringT@DV?$StrTraitMFC_DLL@DV?$ChTraitsCRT@D@ATL@@@@@ATL@@XZ PROC ; CScaleCompart::GetTimeCompart, COMDAT
; _this$ = ecx

; 52   : {

  00000	55		 push	 ebp
  00001	8b ec		 mov	 ebp, esp

; 53   : 	return m_strTimeCompart;

  00003	8d 41 04	 lea	 eax, DWORD PTR [ecx+4]
  00006	8b 4d 08	 mov	 ecx, DWORD PTR ___$ReturnUdt$[ebp]
  00009	50		 push	 eax
  0000a	ff 15 00 00 00
	00		 call	 DWORD PTR __imp_??0?$CStringT@DV?$StrTraitMFC_DLL@DV?$ChTraitsCRT@D@ATL@@@@@ATL@@QAE@ABV01@@Z
  00010	8b 45 08	 mov	 eax, DWORD PTR ___$ReturnUdt$[ebp]

; 54   : }

  00013	5d		 pop	 ebp
  00014	c2 04 00	 ret	 4
?GetTimeCompart@CScaleCompart@@QBE?AV?$CStringT@DV?$StrTraitMFC_DLL@DV?$ChTraitsCRT@D@ATL@@@@@ATL@@XZ ENDP ; CScaleCompart::GetTimeCompart
_TEXT	ENDS
; Function compile flags: /Ogtp
; File D:\git\src\IBK\IBK_DRFN\ProjSrc\SrcChartEx\ChartAddIn\ChartAnalysisToolAddIn\Include_Chart\ScaleBaseData.cpp
;	COMDAT ?GetDateCompart@CScaleCompart@@QBE?AV?$CStringT@DV?$StrTraitMFC_DLL@DV?$ChTraitsCRT@D@ATL@@@@@ATL@@XZ
_TEXT	SEGMENT
___$ReturnUdt$ = 8					; size = 4
?GetDateCompart@CScaleCompart@@QBE?AV?$CStringT@DV?$StrTraitMFC_DLL@DV?$ChTraitsCRT@D@ATL@@@@@ATL@@XZ PROC ; CScaleCompart::GetDateCompart, COMDAT
; _this$ = ecx

; 47   : {

  00000	55		 push	 ebp
  00001	8b ec		 mov	 ebp, esp

; 48   : 	return m_strDateCompart;

  00003	51		 push	 ecx
  00004	8b 4d 08	 mov	 ecx, DWORD PTR ___$ReturnUdt$[ebp]
  00007	ff 15 00 00 00
	00		 call	 DWORD PTR __imp_??0?$CStringT@DV?$StrTraitMFC_DLL@DV?$ChTraitsCRT@D@ATL@@@@@ATL@@QAE@ABV01@@Z
  0000d	8b 45 08	 mov	 eax, DWORD PTR ___$ReturnUdt$[ebp]

; 49   : }

  00010	5d		 pop	 ebp
  00011	c2 04 00	 ret	 4
?GetDateCompart@CScaleCompart@@QBE?AV?$CStringT@DV?$StrTraitMFC_DLL@DV?$ChTraitsCRT@D@ATL@@@@@ATL@@XZ ENDP ; CScaleCompart::GetDateCompart
_TEXT	ENDS
; Function compile flags: /Ogtp
; File D:\git\src\IBK\IBK_DRFN\ProjSrc\SrcChartEx\ChartAddIn\ChartAnalysisToolAddIn\Include_Chart\ScaleBaseData.cpp
;	COMDAT ??0CScaleCompart@@QAE@ABV?$CStringT@DV?$StrTraitMFC_DLL@DV?$ChTraitsCRT@D@ATL@@@@@ATL@@0W4TEXTCOMPARTTYPE@CScaleBaseData@@@Z
_TEXT	SEGMENT
_this$ = -16						; size = 4
__$EHRec$ = -12						; size = 12
_dateCompart$ = 8					; size = 4
_timeCompart$ = 12					; size = 4
_eTextType$ = 16					; size = 4
??0CScaleCompart@@QAE@ABV?$CStringT@DV?$StrTraitMFC_DLL@DV?$ChTraitsCRT@D@ATL@@@@@ATL@@0W4TEXTCOMPARTTYPE@CScaleBaseData@@@Z PROC ; CScaleCompart::CScaleCompart, COMDAT
; _this$ = ecx

; 43   : {

  00000	55		 push	 ebp
  00001	8b ec		 mov	 ebp, esp
  00003	6a ff		 push	 -1
  00005	68 00 00 00 00	 push	 __ehhandler$??0CScaleCompart@@QAE@ABV?$CStringT@DV?$StrTraitMFC_DLL@DV?$ChTraitsCRT@D@ATL@@@@@ATL@@0W4TEXTCOMPARTTYPE@CScaleBaseData@@@Z
  0000a	64 a1 00 00 00
	00		 mov	 eax, DWORD PTR fs:0
  00010	50		 push	 eax
  00011	51		 push	 ecx
  00012	56		 push	 esi
  00013	a1 00 00 00 00	 mov	 eax, DWORD PTR ___security_cookie
  00018	33 c5		 xor	 eax, ebp
  0001a	50		 push	 eax
  0001b	8d 45 f4	 lea	 eax, DWORD PTR __$EHRec$[ebp]
  0001e	64 a3 00 00 00
	00		 mov	 DWORD PTR fs:0, eax
  00024	8b f1		 mov	 esi, ecx
  00026	89 75 f0	 mov	 DWORD PTR _this$[ebp], esi

; 40   : 	m_strDateCompart(dateCompart),

  00029	ff 75 08	 push	 DWORD PTR _dateCompart$[ebp]
  0002c	ff 15 00 00 00
	00		 call	 DWORD PTR __imp_??0?$CStringT@DV?$StrTraitMFC_DLL@DV?$ChTraitsCRT@D@ATL@@@@@ATL@@QAE@ABV01@@Z

; 41   : 	m_strTimeCompart(timeCompart),

  00032	ff 75 0c	 push	 DWORD PTR _timeCompart$[ebp]
  00035	8d 4e 04	 lea	 ecx, DWORD PTR [esi+4]
  00038	c7 45 fc 00 00
	00 00		 mov	 DWORD PTR __$EHRec$[ebp+8], 0
  0003f	ff 15 00 00 00
	00		 call	 DWORD PTR __imp_??0?$CStringT@DV?$StrTraitMFC_DLL@DV?$ChTraitsCRT@D@ATL@@@@@ATL@@QAE@ABV01@@Z

; 42   : 	m_eTextType(eTextType)

  00045	8b 45 10	 mov	 eax, DWORD PTR _eTextType$[ebp]
  00048	89 46 08	 mov	 DWORD PTR [esi+8], eax

; 44   : }

  0004b	8b c6		 mov	 eax, esi
  0004d	8b 4d f4	 mov	 ecx, DWORD PTR __$EHRec$[ebp]
  00050	64 89 0d 00 00
	00 00		 mov	 DWORD PTR fs:0, ecx
  00057	59		 pop	 ecx
  00058	5e		 pop	 esi
  00059	8b e5		 mov	 esp, ebp
  0005b	5d		 pop	 ebp
  0005c	c2 0c 00	 ret	 12			; 0000000cH
_TEXT	ENDS
;	COMDAT text$x
text$x	SEGMENT
__unwindfunclet$??0CScaleCompart@@QAE@ABV?$CStringT@DV?$StrTraitMFC_DLL@DV?$ChTraitsCRT@D@ATL@@@@@ATL@@0W4TEXTCOMPARTTYPE@CScaleBaseData@@@Z$0:
  00000	8b 4d f0	 mov	 ecx, DWORD PTR _this$[ebp]
  00003	ff 25 00 00 00
	00		 jmp	 DWORD PTR __imp_??1?$CStringT@DV?$StrTraitMFC_DLL@DV?$ChTraitsCRT@D@ATL@@@@@ATL@@QAE@XZ
  00009	cc		 int	 3
  0000a	cc		 int	 3
  0000b	cc		 int	 3
  0000c	cc		 int	 3
  0000d	cc		 int	 3
__ehhandler$??0CScaleCompart@@QAE@ABV?$CStringT@DV?$StrTraitMFC_DLL@DV?$ChTraitsCRT@D@ATL@@@@@ATL@@0W4TEXTCOMPARTTYPE@CScaleBaseData@@@Z:
  0000e	90		 npad	 1
  0000f	90		 npad	 1
  00010	8b 54 24 08	 mov	 edx, DWORD PTR [esp+8]
  00014	8d 42 0c	 lea	 eax, DWORD PTR [edx+12]
  00017	8b 4a f4	 mov	 ecx, DWORD PTR [edx-12]
  0001a	33 c8		 xor	 ecx, eax
  0001c	e8 00 00 00 00	 call	 @__security_check_cookie@4
  00021	b8 00 00 00 00	 mov	 eax, OFFSET __ehfuncinfo$??0CScaleCompart@@QAE@ABV?$CStringT@DV?$StrTraitMFC_DLL@DV?$ChTraitsCRT@D@ATL@@@@@ATL@@0W4TEXTCOMPARTTYPE@CScaleBaseData@@@Z
  00026	e9 00 00 00 00	 jmp	 ___CxxFrameHandler3
text$x	ENDS
??0CScaleCompart@@QAE@ABV?$CStringT@DV?$StrTraitMFC_DLL@DV?$ChTraitsCRT@D@ATL@@@@@ATL@@0W4TEXTCOMPARTTYPE@CScaleBaseData@@@Z ENDP ; CScaleCompart::CScaleCompart
; Function compile flags: /Ogtp
; File D:\git\src\IBK\IBK_DRFN\ProjSrc\SrcChartEx\ChartAddIn\ChartAnalysisToolAddIn\Include_Chart\ScaleBaseData.cpp
;	COMDAT ??0CScaleCompart@@QAE@XZ
_TEXT	SEGMENT
_this$ = -16						; size = 4
__$EHRec$ = -12						; size = 12
??0CScaleCompart@@QAE@XZ PROC				; CScaleCompart::CScaleCompart, COMDAT
; _this$ = ecx

; 36   : {

  00000	55		 push	 ebp
  00001	8b ec		 mov	 ebp, esp
  00003	6a ff		 push	 -1
  00005	68 00 00 00 00	 push	 __ehhandler$??0CScaleCompart@@QAE@XZ
  0000a	64 a1 00 00 00
	00		 mov	 eax, DWORD PTR fs:0
  00010	50		 push	 eax
  00011	51		 push	 ecx
  00012	56		 push	 esi
  00013	a1 00 00 00 00	 mov	 eax, DWORD PTR ___security_cookie
  00018	33 c5		 xor	 eax, ebp
  0001a	50		 push	 eax
  0001b	8d 45 f4	 lea	 eax, DWORD PTR __$EHRec$[ebp]
  0001e	64 a3 00 00 00
	00		 mov	 DWORD PTR fs:0, eax
  00024	8b f1		 mov	 esi, ecx
  00026	89 75 f0	 mov	 DWORD PTR _this$[ebp], esi

; 33   : 	m_strDateCompart("."),

  00029	68 00 00 00 00	 push	 OFFSET ??_C@_01LFCBOECM@?4@
  0002e	ff 15 00 00 00
	00		 call	 DWORD PTR __imp_??0?$CStringT@DV?$StrTraitMFC_DLL@DV?$ChTraitsCRT@D@ATL@@@@@ATL@@QAE@PBD@Z

; 34   : 	m_strTimeCompart(":"),

  00034	68 00 00 00 00	 push	 OFFSET ??_C@_01JLIPDDHJ@?3@
  00039	8d 4e 04	 lea	 ecx, DWORD PTR [esi+4]
  0003c	c7 45 fc 00 00
	00 00		 mov	 DWORD PTR __$EHRec$[ebp+8], 0
  00043	ff 15 00 00 00
	00		 call	 DWORD PTR __imp_??0?$CStringT@DV?$StrTraitMFC_DLL@DV?$ChTraitsCRT@D@ATL@@@@@ATL@@QAE@PBD@Z

; 35   : 	m_eTextType(CScaleBaseData::HORZ_TEXT_COMPART)

  00049	c7 46 08 00 00
	00 00		 mov	 DWORD PTR [esi+8], 0

; 37   : }

  00050	8b c6		 mov	 eax, esi
  00052	8b 4d f4	 mov	 ecx, DWORD PTR __$EHRec$[ebp]
  00055	64 89 0d 00 00
	00 00		 mov	 DWORD PTR fs:0, ecx
  0005c	59		 pop	 ecx
  0005d	5e		 pop	 esi
  0005e	8b e5		 mov	 esp, ebp
  00060	5d		 pop	 ebp
  00061	c3		 ret	 0
_TEXT	ENDS
;	COMDAT text$x
text$x	SEGMENT
__unwindfunclet$??0CScaleCompart@@QAE@XZ$0:
  00000	8b 4d f0	 mov	 ecx, DWORD PTR _this$[ebp]
  00003	ff 25 00 00 00
	00		 jmp	 DWORD PTR __imp_??1?$CStringT@DV?$StrTraitMFC_DLL@DV?$ChTraitsCRT@D@ATL@@@@@ATL@@QAE@XZ
  00009	cc		 int	 3
  0000a	cc		 int	 3
  0000b	cc		 int	 3
  0000c	cc		 int	 3
  0000d	cc		 int	 3
__ehhandler$??0CScaleCompart@@QAE@XZ:
  0000e	90		 npad	 1
  0000f	90		 npad	 1
  00010	8b 54 24 08	 mov	 edx, DWORD PTR [esp+8]
  00014	8d 42 0c	 lea	 eax, DWORD PTR [edx+12]
  00017	8b 4a f4	 mov	 ecx, DWORD PTR [edx-12]
  0001a	33 c8		 xor	 ecx, eax
  0001c	e8 00 00 00 00	 call	 @__security_check_cookie@4
  00021	b8 00 00 00 00	 mov	 eax, OFFSET __ehfuncinfo$??0CScaleCompart@@QAE@XZ
  00026	e9 00 00 00 00	 jmp	 ___CxxFrameHandler3
text$x	ENDS
??0CScaleCompart@@QAE@XZ ENDP				; CScaleCompart::CScaleCompart
; Function compile flags: /Ogtp
; File D:\git\src\IBK\IBK_DRFN\ProjSrc\SrcChartEx\ChartAddIn\ChartAnalysisToolAddIn\Include_Chart\ScaleBaseData.cpp
;	COMDAT ??4CScaleCompart@@QAEAAV0@ABV0@@Z
_TEXT	SEGMENT
$T2 = -16						; size = 4
__$EHRec$ = -12						; size = 12
$T3 = 8							; size = 4
_data$ = 8						; size = 4
??4CScaleCompart@@QAEAAV0@ABV0@@Z PROC			; CScaleCompart::operator=, COMDAT
; _this$ = ecx

; 22   : {

  00000	55		 push	 ebp
  00001	8b ec		 mov	 ebp, esp
  00003	6a ff		 push	 -1
  00005	68 00 00 00 00	 push	 __ehhandler$??4CScaleCompart@@QAEAAV0@ABV0@@Z
  0000a	64 a1 00 00 00
	00		 mov	 eax, DWORD PTR fs:0
  00010	50		 push	 eax
  00011	51		 push	 ecx
  00012	56		 push	 esi
  00013	57		 push	 edi
  00014	a1 00 00 00 00	 mov	 eax, DWORD PTR ___security_cookie
  00019	33 c5		 xor	 eax, ebp
  0001b	50		 push	 eax
  0001c	8d 45 f4	 lea	 eax, DWORD PTR __$EHRec$[ebp]
  0001f	64 a3 00 00 00
	00		 mov	 DWORD PTR fs:0, eax
  00025	8b f1		 mov	 esi, ecx

; 23   : 	if(this == &data)

  00027	8b 7d 08	 mov	 edi, DWORD PTR _data$[ebp]
  0002a	3b f7		 cmp	 esi, edi
  0002c	74 5d		 je	 SHORT $LN15@operator

; 48   : 	return m_strDateCompart;

  0002e	57		 push	 edi
  0002f	8d 4d 08	 lea	 ecx, DWORD PTR $T3[ebp]
  00032	ff 15 00 00 00
	00		 call	 DWORD PTR __imp_??0?$CStringT@DV?$StrTraitMFC_DLL@DV?$ChTraitsCRT@D@ATL@@@@@ATL@@QAE@ABV01@@Z

; 24   : 		return *this;
; 25   : 
; 26   : 	m_strDateCompart = data.GetDateCompart();

  00038	8d 45 08	 lea	 eax, DWORD PTR $T3[ebp]
  0003b	c7 45 fc 00 00
	00 00		 mov	 DWORD PTR __$EHRec$[ebp+8], 0
  00042	50		 push	 eax
  00043	8b ce		 mov	 ecx, esi
  00045	ff 15 00 00 00
	00		 call	 DWORD PTR __imp_??4?$CStringT@DV?$StrTraitMFC_DLL@DV?$ChTraitsCRT@D@ATL@@@@@ATL@@QAEAAV01@ABV01@@Z
  0004b	8d 4d 08	 lea	 ecx, DWORD PTR $T3[ebp]
  0004e	c7 45 fc ff ff
	ff ff		 mov	 DWORD PTR __$EHRec$[ebp+8], -1
  00055	ff 15 00 00 00
	00		 call	 DWORD PTR __imp_??1?$CStringT@DV?$StrTraitMFC_DLL@DV?$ChTraitsCRT@D@ATL@@@@@ATL@@QAE@XZ

; 53   : 	return m_strTimeCompart;

  0005b	8d 47 04	 lea	 eax, DWORD PTR [edi+4]
  0005e	50		 push	 eax
  0005f	8d 4d f0	 lea	 ecx, DWORD PTR $T2[ebp]
  00062	ff 15 00 00 00
	00		 call	 DWORD PTR __imp_??0?$CStringT@DV?$StrTraitMFC_DLL@DV?$ChTraitsCRT@D@ATL@@@@@ATL@@QAE@ABV01@@Z

; 27   : 	m_strTimeCompart = data.GetTimeCompart();

  00068	8d 45 f0	 lea	 eax, DWORD PTR $T2[ebp]
  0006b	c7 45 fc 01 00
	00 00		 mov	 DWORD PTR __$EHRec$[ebp+8], 1
  00072	50		 push	 eax
  00073	8d 4e 04	 lea	 ecx, DWORD PTR [esi+4]
  00076	ff 15 00 00 00
	00		 call	 DWORD PTR __imp_??4?$CStringT@DV?$StrTraitMFC_DLL@DV?$ChTraitsCRT@D@ATL@@@@@ATL@@QAEAAV01@ABV01@@Z
  0007c	8d 4d f0	 lea	 ecx, DWORD PTR $T2[ebp]
  0007f	ff 15 00 00 00
	00		 call	 DWORD PTR __imp_??1?$CStringT@DV?$StrTraitMFC_DLL@DV?$ChTraitsCRT@D@ATL@@@@@ATL@@QAE@XZ

; 28   : 	m_eTextType = data.GetScaleTextType();

  00085	8b 47 08	 mov	 eax, DWORD PTR [edi+8]
  00088	89 46 08	 mov	 DWORD PTR [esi+8], eax
$LN15@operator:

; 29   : 	return *this;
; 30   : }

  0008b	8b c6		 mov	 eax, esi
  0008d	8b 4d f4	 mov	 ecx, DWORD PTR __$EHRec$[ebp]
  00090	64 89 0d 00 00
	00 00		 mov	 DWORD PTR fs:0, ecx
  00097	59		 pop	 ecx
  00098	5f		 pop	 edi
  00099	5e		 pop	 esi
  0009a	8b e5		 mov	 esp, ebp
  0009c	5d		 pop	 ebp
  0009d	c2 04 00	 ret	 4
_TEXT	ENDS
;	COMDAT text$x
text$x	SEGMENT
__unwindfunclet$??4CScaleCompart@@QAEAAV0@ABV0@@Z$0:
  00000	8d 4d 08	 lea	 ecx, DWORD PTR $T3[ebp]
  00003	ff 25 00 00 00
	00		 jmp	 DWORD PTR __imp_??1?$CStringT@DV?$StrTraitMFC_DLL@DV?$ChTraitsCRT@D@ATL@@@@@ATL@@QAE@XZ
__unwindfunclet$??4CScaleCompart@@QAEAAV0@ABV0@@Z$1:
  00009	8d 4d f0	 lea	 ecx, DWORD PTR $T2[ebp]
  0000c	ff 25 00 00 00
	00		 jmp	 DWORD PTR __imp_??1?$CStringT@DV?$StrTraitMFC_DLL@DV?$ChTraitsCRT@D@ATL@@@@@ATL@@QAE@XZ
  00012	cc		 int	 3
  00013	cc		 int	 3
  00014	cc		 int	 3
  00015	cc		 int	 3
  00016	cc		 int	 3
__ehhandler$??4CScaleCompart@@QAEAAV0@ABV0@@Z:
  00017	90		 npad	 1
  00018	90		 npad	 1
  00019	8b 54 24 08	 mov	 edx, DWORD PTR [esp+8]
  0001d	8d 42 0c	 lea	 eax, DWORD PTR [edx+12]
  00020	8b 4a f0	 mov	 ecx, DWORD PTR [edx-16]
  00023	33 c8		 xor	 ecx, eax
  00025	e8 00 00 00 00	 call	 @__security_check_cookie@4
  0002a	b8 00 00 00 00	 mov	 eax, OFFSET __ehfuncinfo$??4CScaleCompart@@QAEAAV0@ABV0@@Z
  0002f	e9 00 00 00 00	 jmp	 ___CxxFrameHandler3
text$x	ENDS
??4CScaleCompart@@QAEAAV0@ABV0@@Z ENDP			; CScaleCompart::operator=
; Function compile flags: /Ogtp
; File D:\git\src\IBK\IBK_DRFN\ProjSrc\SrcChartEx\ChartAddIn\ChartAnalysisToolAddIn\Include_Chart\ScaleBaseData.cpp
;	COMDAT ?__empty_global_delete@@YAXPAXI@Z
_TEXT	SEGMENT
___formal$ = 8						; size = 4
___formal$ = 12						; size = 4
?__empty_global_delete@@YAXPAXI@Z PROC			; __empty_global_delete, COMDAT

  00000	c2 00 00	 ret	 0
?__empty_global_delete@@YAXPAXI@Z ENDP			; __empty_global_delete
_TEXT	ENDS
; Function compile flags: /Ogtp
; File D:\git\src\IBK\IBK_DRFN\ProjSrc\SrcChartEx\ChartAddIn\ChartAnalysisToolAddIn\Include_Chart\ScaleBaseData.cpp
;	COMDAT ?__empty_global_delete@@YAXPAX@Z
_TEXT	SEGMENT
___formal$ = 8						; size = 4
?__empty_global_delete@@YAXPAX@Z PROC			; __empty_global_delete, COMDAT

  00000	c2 00 00	 ret	 0
?__empty_global_delete@@YAXPAX@Z ENDP			; __empty_global_delete
_TEXT	ENDS
END
