; Listing generated by Microsoft (R) Optimizing Compiler Version 19.29.30145.0 

	TITLE	D:\git\src\IBK\IBK_DRFN\#DRfn-CS\_Obj\AnalysisTool\Selecting.obj
	.686P
	.XMM
	include listing.inc
	.model	flat

INCLUDELIB MSVCRT
INCLUDELIB OLDNAMES

PUBLIC	?__empty_global_delete@@YAXPAX@Z		; __empty_global_delete
PUBLIC	?__empty_global_delete@@YAXPAXI@Z		; __empty_global_delete
PUBLIC	?_Tidy@?$deque@VCBlockRegion@@V?$allocator@VCBlockRegion@@@std@@@std@@AAEXXZ ; std::deque<CBlockRegion,std::allocator<CBlockRegion> >::_Tidy
PUBLIC	??1CCoordinate@@QAE@XZ				; CCoordinate::~CCoordinate
PUBLIC	??1CPoints@@QAE@XZ				; CPoints::~CPoints
PUBLIC	??1CExtractingDataOfModifyType@@QAE@XZ		; CExtractingDataOfModifyType::~CExtractingDataOfModifyType
PUBLIC	??1CSelectedElementDrawingData@@QAE@XZ		; CSelectedElementDrawingData::~CSelectedElementDrawingData
PUBLIC	??1CTool@@QAE@XZ				; CTool::~CTool
PUBLIC	??0CSelectingTool@@QAE@PAVCAnalysisData@@W4COORDINATETYPE@CAnalysis@@@Z ; CSelectingTool::CSelectingTool
PUBLIC	?Initialize@CSelectingTool@@UAEXXZ		; CSelectingTool::Initialize
PUBLIC	?OnLButtonDown@CSelectingTool@@UAEPAVCElement@@PAVCDC@@ABVCPoint@@@Z ; CSelectingTool::OnLButtonDown
PUBLIC	?OnLButtonUp@CSelectingTool@@UAEXPAVCDC@@ABVCPoint@@@Z ; CSelectingTool::OnLButtonUp
PUBLIC	?OnMouseMove@CSelectingTool@@UAE_NPAVCDC@@ABVCPoint@@H@Z ; CSelectingTool::OnMouseMove
PUBLIC	?OnDraw@CSelectingTool@@UAEXPAVCDC@@@Z		; CSelectingTool::OnDraw
PUBLIC	?GetToolType@CSelectingTool@@MBE?AW4TOOLTYPE@CAnalysis@@XZ ; CSelectingTool::GetToolType
PUBLIC	?SavePoints@CSelectingTool@@MAEXABVCPoints@@@Z	; CSelectingTool::SavePoints
PUBLIC	?GetDrawingPoint@CSelectingTool@@QBE?AVCPoint@@ABV2@@Z ; CSelectingTool::GetDrawingPoint
PUBLIC	?GetElementModifyData@CSelectingTool@@QBE?AVCElementModifyData@@ABVCPoint@@@Z ; CSelectingTool::GetElementModifyData
PUBLIC	?GetSelectedElementDrawData@CSelectingTool@@QAE?AVCSelectedElementDrawingData@@XZ ; CSelectingTool::GetSelectedElementDrawData
PUBLIC	?SetBtDownPoint@CSelectingTool@@QAEXABVCPoint@@@Z ; CSelectingTool::SetBtDownPoint
PUBLIC	?IsSelectedElement@CSelectingTool@@ABE_NXZ	; CSelectingTool::IsSelectedElement
PUBLIC	?IsFindedModifyElement@CSelectingTool@@ABE_NPAVCElement@@W4ModifyType@CToolEnumData@@@Z ; CSelectingTool::IsFindedModifyElement
PUBLIC	?IsRelativePointType@CSelectingTool@@ABE_NXZ	; CSelectingTool::IsRelativePointType
PUBLIC	?GetSavingPoint@CSelectingTool@@ABE?AVCCoordinate@@ABVCPoint@@@Z ; CSelectingTool::GetSavingPoint
PUBLIC	?GetSelectedElementDrawPoint@CSelectingTool@@ABE?AVCPoint@@ABVCCoordinateCalculatorData@@ABV2@@Z ; CSelectingTool::GetSelectedElementDrawPoint
PUBLIC	?GetSelectedElementDrawData@CSelectingTool@@AAE?AVCSelectedElementDrawingData@@ABVCPoints@@@Z ; CSelectingTool::GetSelectedElementDrawData
PUBLIC	?GetElementModifyData_Data@CSelectingTool@@ABEXABVCPoint@@AAVCElementModifyData@@@Z ; CSelectingTool::GetElementModifyData_Data
PUBLIC	?GetElementModifyData_Pixel@CSelectingTool@@ABEXABVCPoint@@AAVCElementModifyData@@@Z ; CSelectingTool::GetElementModifyData_Pixel
PUBLIC	?IsFindElement@CSelectingTool@@AAE_NXZ		; CSelectingTool::IsFindElement
PUBLIC	?FindElement@CSelectingTool@@AAE_NABVCPoint@@@Z	; CSelectingTool::FindElement
PUBLIC	?FindElement@CSelectingTool@@AAEPAVCElement@@ABVCPoint@@AAW4ModifyType@CToolEnumData@@@Z ; CSelectingTool::FindElement
PUBLIC	?ModifyElement@CSelectingTool@@AAE_NPAVCDC@@ABVCPoint@@@Z ; CSelectingTool::ModifyElement
PUBLIC	?Modify_InDrawingRegion@CSelectingTool@@AAE_NPAVCDC@@ABVCPoint@@@Z ; CSelectingTool::Modify_InDrawingRegion
PUBLIC	?DrawNewToolDrawing@CSelectingTool@@AAEXPAVCDC@@ABVCPoints@@@Z ; CSelectingTool::DrawNewToolDrawing
PUBLIC	?Draw_EndPoint@CSelectingTool@@AAEXPAVCDC@@@Z	; CSelectingTool::Draw_EndPoint
PUBLIC	??_C@_00CNPNBAHC@@				; `string'
PUBLIC	??_7CSelectingTool@@6B@				; CSelectingTool::`vftable'
PUBLIC	??_R4CSelectingTool@@6B@			; CSelectingTool::`RTTI Complete Object Locator'
PUBLIC	??_R0?AVCSelectingTool@@@8			; CSelectingTool `RTTI Type Descriptor'
PUBLIC	??_R3CSelectingTool@@8				; CSelectingTool::`RTTI Class Hierarchy Descriptor'
PUBLIC	??_R2CSelectingTool@@8				; CSelectingTool::`RTTI Base Class Array'
PUBLIC	??_R1A@?0A@EA@CSelectingTool@@8			; CSelectingTool::`RTTI Base Class Descriptor at (0,-1,0,64)'
PUBLIC	??_R1A@?0A@EA@CTool@@8				; CTool::`RTTI Base Class Descriptor at (0,-1,0,64)'
PUBLIC	??_R0?AVCTool@@@8				; CTool `RTTI Type Descriptor'
PUBLIC	??_R3CTool@@8					; CTool::`RTTI Class Hierarchy Descriptor'
PUBLIC	??_R2CTool@@8					; CTool::`RTTI Base Class Array'
PUBLIC	__real@3fe0000000000000
PUBLIC	__real@bff0000000000000
PUBLIC	__xmm@7fffffffffffffff7fffffffffffffff
EXTRN	??3@YAXPAXI@Z:PROC				; operator delete
EXTRN	__imp___invalid_parameter_noinfo_noreturn:PROC
EXTRN	__imp_??0?$CStringT@DV?$StrTraitMFC_DLL@DV?$ChTraitsCRT@D@ATL@@@@@ATL@@QAE@XZ:PROC
EXTRN	__imp_??0?$CStringT@DV?$StrTraitMFC_DLL@DV?$ChTraitsCRT@D@ATL@@@@@ATL@@QAE@ABV01@@Z:PROC
EXTRN	__imp_??0?$CStringT@DV?$StrTraitMFC_DLL@DV?$ChTraitsCRT@D@ATL@@@@@ATL@@QAE@PBD@Z:PROC
EXTRN	__imp_??1?$CStringT@DV?$StrTraitMFC_DLL@DV?$ChTraitsCRT@D@ATL@@@@@ATL@@QAE@XZ:PROC
EXTRN	__imp_??4?$CStringT@DV?$StrTraitMFC_DLL@DV?$ChTraitsCRT@D@ATL@@@@@ATL@@QAEAAV01@ABV01@@Z:PROC
EXTRN	??1CCoordinateCalculatorData@@QAE@XZ:PROC	; CCoordinateCalculatorData::~CCoordinateCalculatorData
EXTRN	?GetPacket_X@CCoordinateCalculatorData@@QBEPAUIPacket133101@@XZ:PROC ; CCoordinateCalculatorData::GetPacket_X
EXTRN	??0CCoordinate@@QAE@XZ:PROC			; CCoordinate::CCoordinate
EXTRN	??0CCoordinate@@QAE@ABN0HABV?$CStringT@DV?$StrTraitMFC_DLL@DV?$ChTraitsCRT@D@ATL@@@@@ATL@@H@Z:PROC ; CCoordinate::CCoordinate
EXTRN	??0CCoordinate@@QAE@ABVCPoint@@@Z:PROC		; CCoordinate::CCoordinate
EXTRN	?GetX@CCoordinate@@QBENXZ:PROC			; CCoordinate::GetX
EXTRN	?SetX@CCoordinate@@QAEXABNH@Z:PROC		; CCoordinate::SetX
EXTRN	?SetY@CCoordinate@@QAEXABN@Z:PROC		; CCoordinate::SetY
EXTRN	??4CPoints@@QAEAAV0@ABV0@@Z:PROC		; CPoints::operator=
EXTRN	??0CPoints@@QAE@XZ:PROC				; CPoints::CPoints
EXTRN	??0CPoints@@QAE@ABVCCoordinate@@ABVCPoint@@@Z:PROC ; CPoints::CPoints
EXTRN	?GetSavingPoint@CPoints@@QBE?AVCCoordinate@@XZ:PROC ; CPoints::GetSavingPoint
EXTRN	?GetDrawingPoint@CPoints@@QBE?AVCPoint@@XZ:PROC	; CPoints::GetDrawingPoint
EXTRN	?FindElement@CElementTree@@QAEPAVCElement@@PAUIChartManager133101@@PAVCExtractingDataOfModifyType@@AAW4ModifyType@CToolEnumData@@@Z:PROC ; CElementTree::FindElement
EXTRN	?GetOrder@CElementTree@@QAEAAVCOrder@@XZ:PROC	; CElementTree::GetOrder
EXTRN	?GetSavedElementData@CElement@@QBE?AV?$CStringT@DV?$StrTraitMFC_DLL@DV?$ChTraitsCRT@D@ATL@@@@@ATL@@ABVCOrder@@@Z:PROC ; CElement::GetSavedElementData
EXTRN	?GetCoordinateType@CElement@@QBE?AW4COORDINATETYPE@CAnalysis@@XZ:PROC ; CElement::GetCoordinateType
EXTRN	?GetMainBlock@CAnalysisData@@QBEPAUIChartManager133101@@XZ:PROC ; CAnalysisData::GetMainBlock
EXTRN	?GetPacketManager@CAnalysisData@@QBEPAUIPacketManager133101@@XZ:PROC ; CAnalysisData::GetPacketManager
EXTRN	?GetElementTree@CAnalysisData@@QAEAAVCElementTree@@XZ:PROC ; CAnalysisData::GetElementTree
EXTRN	?MoveElement@CAnalysisData@@QAEHPAVCElement@@V?$CStringT@DV?$StrTraitMFC_DLL@DV?$ChTraitsCRT@D@ATL@@@@@ATL@@@Z:PROC ; CAnalysisData::MoveElement
EXTRN	?GetCount@CDrawingRegions@@QBEHXZ:PROC		; CDrawingRegions::GetCount
EXTRN	??0CExtractingDataOfModifyType@@QAE@PAVCDrawingRegions@@ABVCPoint@@PAUIChartManager133101@@@Z:PROC ; CExtractingDataOfModifyType::CExtractingDataOfModifyType
EXTRN	??0CElementModifyData@@QAE@XZ:PROC		; CElementModifyData::CElementModifyData
EXTRN	??1CElementModifyData@@QAE@XZ:PROC		; CElementModifyData::~CElementModifyData
EXTRN	?SetModifyType@CElementModifyData@@QAEXW4ModifyType@CToolEnumData@@@Z:PROC ; CElementModifyData::SetModifyType
EXTRN	?SetPacket_X@CElementModifyData@@QAEXPAUIPacket133101@@@Z:PROC ; CElementModifyData::SetPacket_X
EXTRN	?SetPoint@CElementModifyData@@QAEXABVCCoordinate@@@Z:PROC ; CElementModifyData::SetPoint
EXTRN	?SetIChartManager@CElementModifyData@@QAEXPAUIChartManager133101@@@Z:PROC ; CElementModifyData::SetIChartManager
EXTRN	?GetModifyType@CElementModifyData@@QBE?AW4ModifyType@CToolEnumData@@XZ:PROC ; CElementModifyData::GetModifyType
EXTRN	?GetPacket_XIndex@CElementModifyData@@QBEHN@Z:PROC ; CElementModifyData::GetPacket_XIndex
EXTRN	?SetBlockIndex@CElementModifyData@@QAE_NABVCPoint@@@Z:PROC ; CElementModifyData::SetBlockIndex
EXTRN	??0CSelectedElementDrawingData@@QAE@W4ModifyType@CToolEnumData@@PAVCDrawingRegions@@ABVCCoordinateCalculatorData@@ABVCPoints@@@Z:PROC ; CSelectedElementDrawingData::CSelectedElementDrawingData
EXTRN	??0CTool@@IAE@PAVCAnalysisData@@W4COORDINATETYPE@CAnalysis@@@Z:PROC ; CTool::CTool
EXTRN	?SetCoordinateType@CTool@@QAEXW4COORDINATETYPE@CAnalysis@@@Z:PROC ; CTool::SetCoordinateType
EXTRN	?SetProcessStarting@CTool@@QAEX_N@Z:PROC	; CTool::SetProcessStarting
EXTRN	?DoesElements@CTool@@QBE_NXZ:PROC		; CTool::DoesElements
EXTRN	?Initialize@CTool@@UAEXXZ:PROC			; CTool::Initialize
EXTRN	?OnRButtonUp@CTool@@UAEXPAVCDC@@ABVCPoint@@@Z:PROC ; CTool::OnRButtonUp
EXTRN	?GetCoordinateCalculatorData@CTool@@QBE?AVCCoordinateCalculatorData@@ABVCPoint@@@Z:PROC ; CTool::GetCoordinateCalculatorData
EXTRN	?GetCoordinateCalculator@CTool@@UBEAAVCCoordinateCalculator@@XZ:PROC ; CTool::GetCoordinateCalculator
EXTRN	?PointInDrawingRegion@CTool@@MBE_NABVCPoint@@@Z:PROC ; CTool::PointInDrawingRegion
EXTRN	?GetTextPosition@CTool@@MBEPBVCTextPosition@@XZ:PROC ; CTool::GetTextPosition
EXTRN	?GetTextPosition@CTool@@MAEPAVCTextPosition@@XZ:PROC ; CTool::GetTextPosition
EXTRN	?IsMakeElement@CTool@@MBE_NABVCPoint@@@Z:PROC	; CTool::IsMakeElement
EXTRN	?MakeElement@CTool@@MAEPAVCElement@@ABVCElementCommonEnvironment@@@Z:PROC ; CTool::MakeElement
EXTRN	?GetAnalysisData@CTool@@MBEPAVCAnalysisData@@XZ:PROC ; CTool::GetAnalysisData
EXTRN	?GetDrawingRegions@CTool@@IAEAAVCDrawingRegions@@XZ:PROC ; CTool::GetDrawingRegions
EXTRN	?GetPoints@CTool@@IBE?AVCPoints@@ABVCPoint@@@Z:PROC ; CTool::GetPoints
EXTRN	?SetDrawingRegions@CTool@@IAEXABVCPoint@@@Z:PROC ; CTool::SetDrawingRegions
EXTRN	?ChangeCursor@CTool@@IAEXW4ModifyType@CToolEnumData@@@Z:PROC ; CTool::ChangeCursor
EXTRN	?ChangeCursor@CTool@@IAEXW4DrawType@CToolEnumData@@@Z:PROC ; CTool::ChangeCursor
EXTRN	?AbsoluteToRelative@CCoordinateCalculator@@QBE?AVCCoordinate@@ABVCCoordinateCalculatorData@@ABVCPoint@@@Z:PROC ; CCoordinateCalculator::AbsoluteToRelative
EXTRN	?AbsoluteToAbsolute@CCoordinateCalculator@@QBE?AVCPoint@@ABVCCoordinateCalculatorData@@ABV2@@Z:PROC ; CCoordinateCalculator::AbsoluteToAbsolute
EXTRN	?GetGap@CCoordinateCalculator@@QBE?AVCCoordinate@@ABVCCoordinateCalculatorData@@ABVCPoint@@1@Z:PROC ; CCoordinateCalculator::GetGap
EXTRN	@__security_check_cookie@4:PROC
EXTRN	___CxxFrameHandler3:PROC
EXTRN	??_7type_info@@6B@:QWORD			; type_info::`vftable'
EXTRN	?g_iMetaTable@@3VIMetaTable@@A:BYTE		; g_iMetaTable
EXTRN	___security_cookie:DWORD
EXTRN	__fltused:DWORD
;	COMDAT __xmm@7fffffffffffffff7fffffffffffffff
CONST	SEGMENT
__xmm@7fffffffffffffff7fffffffffffffff DB 0ffH, 0ffH, 0ffH, 0ffH, 0ffH, 0ffH
	DB	0ffH, 07fH, 0ffH, 0ffH, 0ffH, 0ffH, 0ffH, 0ffH, 0ffH, 07fH
CONST	ENDS
;	COMDAT __real@bff0000000000000
CONST	SEGMENT
__real@bff0000000000000 DQ 0bff0000000000000r	; -1
CONST	ENDS
;	COMDAT __real@3fe0000000000000
CONST	SEGMENT
__real@3fe0000000000000 DQ 03fe0000000000000r	; 0.5
CONST	ENDS
;	COMDAT ??_R2CTool@@8
rdata$r	SEGMENT
??_R2CTool@@8 DD FLAT:??_R1A@?0A@EA@CTool@@8		; CTool::`RTTI Base Class Array'
rdata$r	ENDS
;	COMDAT ??_R3CTool@@8
rdata$r	SEGMENT
??_R3CTool@@8 DD 00H					; CTool::`RTTI Class Hierarchy Descriptor'
	DD	00H
	DD	01H
	DD	FLAT:??_R2CTool@@8
rdata$r	ENDS
;	COMDAT ??_R0?AVCTool@@@8
data$rs	SEGMENT
??_R0?AVCTool@@@8 DD FLAT:??_7type_info@@6B@		; CTool `RTTI Type Descriptor'
	DD	00H
	DB	'.?AVCTool@@', 00H
data$rs	ENDS
;	COMDAT ??_R1A@?0A@EA@CTool@@8
rdata$r	SEGMENT
??_R1A@?0A@EA@CTool@@8 DD FLAT:??_R0?AVCTool@@@8	; CTool::`RTTI Base Class Descriptor at (0,-1,0,64)'
	DD	00H
	DD	00H
	DD	0ffffffffH
	DD	00H
	DD	040H
	DD	FLAT:??_R3CTool@@8
rdata$r	ENDS
;	COMDAT ??_R1A@?0A@EA@CSelectingTool@@8
rdata$r	SEGMENT
??_R1A@?0A@EA@CSelectingTool@@8 DD FLAT:??_R0?AVCSelectingTool@@@8 ; CSelectingTool::`RTTI Base Class Descriptor at (0,-1,0,64)'
	DD	01H
	DD	00H
	DD	0ffffffffH
	DD	00H
	DD	040H
	DD	FLAT:??_R3CSelectingTool@@8
rdata$r	ENDS
;	COMDAT ??_R2CSelectingTool@@8
rdata$r	SEGMENT
??_R2CSelectingTool@@8 DD FLAT:??_R1A@?0A@EA@CSelectingTool@@8 ; CSelectingTool::`RTTI Base Class Array'
	DD	FLAT:??_R1A@?0A@EA@CTool@@8
rdata$r	ENDS
;	COMDAT ??_R3CSelectingTool@@8
rdata$r	SEGMENT
??_R3CSelectingTool@@8 DD 00H				; CSelectingTool::`RTTI Class Hierarchy Descriptor'
	DD	00H
	DD	02H
	DD	FLAT:??_R2CSelectingTool@@8
rdata$r	ENDS
;	COMDAT ??_R0?AVCSelectingTool@@@8
data$rs	SEGMENT
??_R0?AVCSelectingTool@@@8 DD FLAT:??_7type_info@@6B@	; CSelectingTool `RTTI Type Descriptor'
	DD	00H
	DB	'.?AVCSelectingTool@@', 00H
data$rs	ENDS
;	COMDAT ??_R4CSelectingTool@@6B@
rdata$r	SEGMENT
??_R4CSelectingTool@@6B@ DD 00H				; CSelectingTool::`RTTI Complete Object Locator'
	DD	00H
	DD	00H
	DD	FLAT:??_R0?AVCSelectingTool@@@8
	DD	FLAT:??_R3CSelectingTool@@8
rdata$r	ENDS
;	COMDAT ??_7CSelectingTool@@6B@
CONST	SEGMENT
??_7CSelectingTool@@6B@ DD FLAT:??_R4CSelectingTool@@6B@ ; CSelectingTool::`vftable'
	DD	FLAT:?Initialize@CSelectingTool@@UAEXXZ
	DD	FLAT:?OnLButtonDown@CSelectingTool@@UAEPAVCElement@@PAVCDC@@ABVCPoint@@@Z
	DD	FLAT:?OnLButtonUp@CSelectingTool@@UAEXPAVCDC@@ABVCPoint@@@Z
	DD	FLAT:?OnMouseMove@CSelectingTool@@UAE_NPAVCDC@@ABVCPoint@@H@Z
	DD	FLAT:?OnRButtonUp@CTool@@UAEXPAVCDC@@ABVCPoint@@@Z
	DD	FLAT:?OnDraw@CSelectingTool@@UAEXPAVCDC@@@Z
	DD	FLAT:?GetCoordinateCalculator@CTool@@UBEAAVCCoordinateCalculator@@XZ
	DD	FLAT:?PointInDrawingRegion@CTool@@MBE_NABVCPoint@@@Z
	DD	FLAT:?SavePoints@CSelectingTool@@MAEXABVCPoints@@@Z
	DD	FLAT:?GetToolType@CSelectingTool@@MBE?AW4TOOLTYPE@CAnalysis@@XZ
	DD	FLAT:?GetTextPosition@CTool@@MAEPAVCTextPosition@@XZ
	DD	FLAT:?GetTextPosition@CTool@@MBEPBVCTextPosition@@XZ
	DD	FLAT:?IsMakeElement@CTool@@MBE_NABVCPoint@@@Z
	DD	FLAT:?MakeElement@CTool@@MAEPAVCElement@@ABVCElementCommonEnvironment@@@Z
	DD	FLAT:?GetAnalysisData@CTool@@MBEPAVCAnalysisData@@XZ
CONST	ENDS
;	COMDAT ??_C@_00CNPNBAHC@@
CONST	SEGMENT
??_C@_00CNPNBAHC@@ DB 00H				; `string'
CONST	ENDS
;	COMDAT xdata$x
xdata$x	SEGMENT
__unwindtable$?Draw_EndPoint@CSelectingTool@@AAEXPAVCDC@@@Z DD 0ffffffffH
	DD	FLAT:__unwindfunclet$?Draw_EndPoint@CSelectingTool@@AAEXPAVCDC@@@Z$1
	DD	00H
	DD	FLAT:__unwindfunclet$?Draw_EndPoint@CSelectingTool@@AAEXPAVCDC@@@Z$2
	DD	01H
	DD	FLAT:__unwindfunclet$?Draw_EndPoint@CSelectingTool@@AAEXPAVCDC@@@Z$3
	DD	0ffffffffH
	DD	FLAT:__unwindfunclet$?Draw_EndPoint@CSelectingTool@@AAEXPAVCDC@@@Z$0
__ehfuncinfo$?Draw_EndPoint@CSelectingTool@@AAEXPAVCDC@@@Z DD 019930522H
	DD	04H
	DD	FLAT:__unwindtable$?Draw_EndPoint@CSelectingTool@@AAEXPAVCDC@@@Z
	DD	2 DUP(00H)
	DD	2 DUP(00H)
	DD	00H
	DD	01H
xdata$x	ENDS
;	COMDAT xdata$x
xdata$x	SEGMENT
__unwindtable$?DrawNewToolDrawing@CSelectingTool@@AAEXPAVCDC@@ABVCPoints@@@Z DD 0ffffffffH
	DD	FLAT:__unwindfunclet$?DrawNewToolDrawing@CSelectingTool@@AAEXPAVCDC@@ABVCPoints@@@Z$1
	DD	00H
	DD	FLAT:__unwindfunclet$?DrawNewToolDrawing@CSelectingTool@@AAEXPAVCDC@@ABVCPoints@@@Z$2
	DD	01H
	DD	FLAT:__unwindfunclet$?DrawNewToolDrawing@CSelectingTool@@AAEXPAVCDC@@ABVCPoints@@@Z$3
	DD	0ffffffffH
	DD	FLAT:__unwindfunclet$?DrawNewToolDrawing@CSelectingTool@@AAEXPAVCDC@@ABVCPoints@@@Z$0
__ehfuncinfo$?DrawNewToolDrawing@CSelectingTool@@AAEXPAVCDC@@ABVCPoints@@@Z DD 019930522H
	DD	04H
	DD	FLAT:__unwindtable$?DrawNewToolDrawing@CSelectingTool@@AAEXPAVCDC@@ABVCPoints@@@Z
	DD	2 DUP(00H)
	DD	2 DUP(00H)
	DD	00H
	DD	01H
xdata$x	ENDS
;	COMDAT xdata$x
xdata$x	SEGMENT
__ehfuncinfo$?Modify_InDrawingRegion@CSelectingTool@@AAE_NPAVCDC@@ABVCPoint@@@Z DD 019930522H
	DD	05H
	DD	FLAT:__unwindtable$?Modify_InDrawingRegion@CSelectingTool@@AAE_NPAVCDC@@ABVCPoint@@@Z
	DD	2 DUP(00H)
	DD	2 DUP(00H)
	DD	00H
	DD	01H
__unwindtable$?Modify_InDrawingRegion@CSelectingTool@@AAE_NPAVCDC@@ABVCPoint@@@Z DD 0ffffffffH
	DD	FLAT:__unwindfunclet$?Modify_InDrawingRegion@CSelectingTool@@AAE_NPAVCDC@@ABVCPoint@@@Z$0
	DD	00H
	DD	FLAT:__unwindfunclet$?Modify_InDrawingRegion@CSelectingTool@@AAE_NPAVCDC@@ABVCPoint@@@Z$2
	DD	01H
	DD	FLAT:__unwindfunclet$?Modify_InDrawingRegion@CSelectingTool@@AAE_NPAVCDC@@ABVCPoint@@@Z$3
	DD	02H
	DD	FLAT:__unwindfunclet$?Modify_InDrawingRegion@CSelectingTool@@AAE_NPAVCDC@@ABVCPoint@@@Z$4
	DD	00H
	DD	FLAT:__unwindfunclet$?Modify_InDrawingRegion@CSelectingTool@@AAE_NPAVCDC@@ABVCPoint@@@Z$1
xdata$x	ENDS
;	COMDAT xdata$x
xdata$x	SEGMENT
__ehfuncinfo$?ModifyElement@CSelectingTool@@AAE_NPAVCDC@@ABVCPoint@@@Z DD 019930522H
	DD	05H
	DD	FLAT:__unwindtable$?ModifyElement@CSelectingTool@@AAE_NPAVCDC@@ABVCPoint@@@Z
	DD	2 DUP(00H)
	DD	2 DUP(00H)
	DD	00H
	DD	01H
__unwindtable$?ModifyElement@CSelectingTool@@AAE_NPAVCDC@@ABVCPoint@@@Z DD 0ffffffffH
	DD	FLAT:__unwindfunclet$?ModifyElement@CSelectingTool@@AAE_NPAVCDC@@ABVCPoint@@@Z$0
	DD	00H
	DD	FLAT:__unwindfunclet$?ModifyElement@CSelectingTool@@AAE_NPAVCDC@@ABVCPoint@@@Z$2
	DD	01H
	DD	FLAT:__unwindfunclet$?ModifyElement@CSelectingTool@@AAE_NPAVCDC@@ABVCPoint@@@Z$3
	DD	02H
	DD	FLAT:__unwindfunclet$?ModifyElement@CSelectingTool@@AAE_NPAVCDC@@ABVCPoint@@@Z$4
	DD	00H
	DD	FLAT:__unwindfunclet$?ModifyElement@CSelectingTool@@AAE_NPAVCDC@@ABVCPoint@@@Z$1
xdata$x	ENDS
;	COMDAT xdata$x
xdata$x	SEGMENT
__unwindtable$?FindElement@CSelectingTool@@AAEPAVCElement@@ABVCPoint@@AAW4ModifyType@CToolEnumData@@@Z DD 0ffffffffH
	DD	FLAT:__unwindfunclet$?FindElement@CSelectingTool@@AAEPAVCElement@@ABVCPoint@@AAW4ModifyType@CToolEnumData@@@Z$0
__ehfuncinfo$?FindElement@CSelectingTool@@AAEPAVCElement@@ABVCPoint@@AAW4ModifyType@CToolEnumData@@@Z DD 019930522H
	DD	01H
	DD	FLAT:__unwindtable$?FindElement@CSelectingTool@@AAEPAVCElement@@ABVCPoint@@AAW4ModifyType@CToolEnumData@@@Z
	DD	2 DUP(00H)
	DD	2 DUP(00H)
	DD	00H
	DD	01H
xdata$x	ENDS
;	COMDAT xdata$x
xdata$x	SEGMENT
__unwindtable$?GetElementModifyData_Pixel@CSelectingTool@@ABEXABVCPoint@@AAVCElementModifyData@@@Z DD 0ffffffffH
	DD	FLAT:__unwindfunclet$?GetElementModifyData_Pixel@CSelectingTool@@ABEXABVCPoint@@AAVCElementModifyData@@@Z$0
	DD	00H
	DD	FLAT:__unwindfunclet$?GetElementModifyData_Pixel@CSelectingTool@@ABEXABVCPoint@@AAVCElementModifyData@@@Z$1
	DD	0ffffffffH
	DD	FLAT:__unwindfunclet$?GetElementModifyData_Pixel@CSelectingTool@@ABEXABVCPoint@@AAVCElementModifyData@@@Z$2
__ehfuncinfo$?GetElementModifyData_Pixel@CSelectingTool@@ABEXABVCPoint@@AAVCElementModifyData@@@Z DD 019930522H
	DD	03H
	DD	FLAT:__unwindtable$?GetElementModifyData_Pixel@CSelectingTool@@ABEXABVCPoint@@AAVCElementModifyData@@@Z
	DD	2 DUP(00H)
	DD	2 DUP(00H)
	DD	00H
	DD	01H
xdata$x	ENDS
;	COMDAT xdata$x
xdata$x	SEGMENT
__unwindtable$?GetElementModifyData_Data@CSelectingTool@@ABEXABVCPoint@@AAVCElementModifyData@@@Z DD 0ffffffffH
	DD	FLAT:__unwindfunclet$?GetElementModifyData_Data@CSelectingTool@@ABEXABVCPoint@@AAVCElementModifyData@@@Z$0
	DD	00H
	DD	FLAT:__unwindfunclet$?GetElementModifyData_Data@CSelectingTool@@ABEXABVCPoint@@AAVCElementModifyData@@@Z$1
	DD	0ffffffffH
	DD	FLAT:__unwindfunclet$?GetElementModifyData_Data@CSelectingTool@@ABEXABVCPoint@@AAVCElementModifyData@@@Z$2
	DD	0ffffffffH
	DD	FLAT:__unwindfunclet$?GetElementModifyData_Data@CSelectingTool@@ABEXABVCPoint@@AAVCElementModifyData@@@Z$3
__ehfuncinfo$?GetElementModifyData_Data@CSelectingTool@@ABEXABVCPoint@@AAVCElementModifyData@@@Z DD 019930522H
	DD	04H
	DD	FLAT:__unwindtable$?GetElementModifyData_Data@CSelectingTool@@ABEXABVCPoint@@AAVCElementModifyData@@@Z
	DD	2 DUP(00H)
	DD	2 DUP(00H)
	DD	00H
	DD	01H
xdata$x	ENDS
;	COMDAT xdata$x
xdata$x	SEGMENT
__unwindtable$?GetSelectedElementDrawData@CSelectingTool@@AAE?AVCSelectedElementDrawingData@@ABVCPoints@@@Z DD 0ffffffffH
	DD	FLAT:__unwindfunclet$?GetSelectedElementDrawData@CSelectingTool@@AAE?AVCSelectedElementDrawingData@@ABVCPoints@@@Z$0
	DD	00H
	DD	FLAT:__unwindfunclet$?GetSelectedElementDrawData@CSelectingTool@@AAE?AVCSelectedElementDrawingData@@ABVCPoints@@@Z$1
	DD	01H
	DD	FLAT:__unwindfunclet$?GetSelectedElementDrawData@CSelectingTool@@AAE?AVCSelectedElementDrawingData@@ABVCPoints@@@Z$2
__ehfuncinfo$?GetSelectedElementDrawData@CSelectingTool@@AAE?AVCSelectedElementDrawingData@@ABVCPoints@@@Z DD 019930522H
	DD	03H
	DD	FLAT:__unwindtable$?GetSelectedElementDrawData@CSelectingTool@@AAE?AVCSelectedElementDrawingData@@ABVCPoints@@@Z
	DD	2 DUP(00H)
	DD	2 DUP(00H)
	DD	00H
	DD	01H
xdata$x	ENDS
;	COMDAT xdata$x
xdata$x	SEGMENT
__unwindtable$?GetSavingPoint@CSelectingTool@@ABE?AVCCoordinate@@ABVCPoint@@@Z DD 0ffffffffH
	DD	FLAT:__unwindfunclet$?GetSavingPoint@CSelectingTool@@ABE?AVCCoordinate@@ABVCPoint@@@Z$1
__ehfuncinfo$?GetSavingPoint@CSelectingTool@@ABE?AVCCoordinate@@ABVCPoint@@@Z DD 019930522H
	DD	01H
	DD	FLAT:__unwindtable$?GetSavingPoint@CSelectingTool@@ABE?AVCCoordinate@@ABVCPoint@@@Z
	DD	2 DUP(00H)
	DD	2 DUP(00H)
	DD	00H
	DD	01H
xdata$x	ENDS
;	COMDAT xdata$x
xdata$x	SEGMENT
__unwindtable$?SetBtDownPoint@CSelectingTool@@QAEXABVCPoint@@@Z DD 0ffffffffH
	DD	FLAT:__unwindfunclet$?SetBtDownPoint@CSelectingTool@@QAEXABVCPoint@@@Z$0
__ehfuncinfo$?SetBtDownPoint@CSelectingTool@@QAEXABVCPoint@@@Z DD 019930522H
	DD	01H
	DD	FLAT:__unwindtable$?SetBtDownPoint@CSelectingTool@@QAEXABVCPoint@@@Z
	DD	2 DUP(00H)
	DD	2 DUP(00H)
	DD	00H
	DD	01H
xdata$x	ENDS
;	COMDAT xdata$x
xdata$x	SEGMENT
__unwindtable$?GetSelectedElementDrawData@CSelectingTool@@QAE?AVCSelectedElementDrawingData@@XZ DD 0ffffffffH
	DD	FLAT:__unwindfunclet$?GetSelectedElementDrawData@CSelectingTool@@QAE?AVCSelectedElementDrawingData@@XZ$0
	DD	00H
	DD	FLAT:__unwindfunclet$?GetSelectedElementDrawData@CSelectingTool@@QAE?AVCSelectedElementDrawingData@@XZ$1
	DD	01H
	DD	FLAT:__unwindfunclet$?GetSelectedElementDrawData@CSelectingTool@@QAE?AVCSelectedElementDrawingData@@XZ$2
__ehfuncinfo$?GetSelectedElementDrawData@CSelectingTool@@QAE?AVCSelectedElementDrawingData@@XZ DD 019930522H
	DD	03H
	DD	FLAT:__unwindtable$?GetSelectedElementDrawData@CSelectingTool@@QAE?AVCSelectedElementDrawingData@@XZ
	DD	2 DUP(00H)
	DD	2 DUP(00H)
	DD	00H
	DD	01H
xdata$x	ENDS
;	COMDAT xdata$x
xdata$x	SEGMENT
__ehfuncinfo$?GetElementModifyData@CSelectingTool@@QBE?AVCElementModifyData@@ABVCPoint@@@Z DD 019930522H
	DD	08H
	DD	FLAT:__unwindtable$?GetElementModifyData@CSelectingTool@@QBE?AVCElementModifyData@@ABVCPoint@@@Z
	DD	2 DUP(00H)
	DD	2 DUP(00H)
	DD	00H
	DD	01H
__unwindtable$?GetElementModifyData@CSelectingTool@@QBE?AVCElementModifyData@@ABVCPoint@@@Z DD 0ffffffffH
	DD	FLAT:__unwindfunclet$?GetElementModifyData@CSelectingTool@@QBE?AVCElementModifyData@@ABVCPoint@@@Z$0
	DD	00H
	DD	FLAT:__unwindfunclet$?GetElementModifyData@CSelectingTool@@QBE?AVCElementModifyData@@ABVCPoint@@@Z$1
	DD	01H
	DD	FLAT:__unwindfunclet$?GetElementModifyData@CSelectingTool@@QBE?AVCElementModifyData@@ABVCPoint@@@Z$2
	DD	00H
	DD	FLAT:__unwindfunclet$?GetElementModifyData@CSelectingTool@@QBE?AVCElementModifyData@@ABVCPoint@@@Z$3
	DD	00H
	DD	FLAT:__unwindfunclet$?GetElementModifyData@CSelectingTool@@QBE?AVCElementModifyData@@ABVCPoint@@@Z$4
	DD	00H
	DD	FLAT:__unwindfunclet$?GetElementModifyData@CSelectingTool@@QBE?AVCElementModifyData@@ABVCPoint@@@Z$7
	DD	05H
	DD	FLAT:__unwindfunclet$?GetElementModifyData@CSelectingTool@@QBE?AVCElementModifyData@@ABVCPoint@@@Z$8
	DD	00H
	DD	FLAT:__unwindfunclet$?GetElementModifyData@CSelectingTool@@QBE?AVCElementModifyData@@ABVCPoint@@@Z$9
xdata$x	ENDS
;	COMDAT xdata$x
xdata$x	SEGMENT
__unwindtable$?GetDrawingPoint@CSelectingTool@@QBE?AVCPoint@@ABV2@@Z DD 0ffffffffH
	DD	FLAT:__unwindfunclet$?GetDrawingPoint@CSelectingTool@@QBE?AVCPoint@@ABV2@@Z$0
__ehfuncinfo$?GetDrawingPoint@CSelectingTool@@QBE?AVCPoint@@ABV2@@Z DD 019930522H
	DD	01H
	DD	FLAT:__unwindtable$?GetDrawingPoint@CSelectingTool@@QBE?AVCPoint@@ABV2@@Z
	DD	2 DUP(00H)
	DD	2 DUP(00H)
	DD	00H
	DD	01H
xdata$x	ENDS
;	COMDAT xdata$x
xdata$x	SEGMENT
__ehfuncinfo$?OnMouseMove@CSelectingTool@@UAE_NPAVCDC@@ABVCPoint@@H@Z DD 019930522H
	DD	05H
	DD	FLAT:__unwindtable$?OnMouseMove@CSelectingTool@@UAE_NPAVCDC@@ABVCPoint@@H@Z
	DD	2 DUP(00H)
	DD	2 DUP(00H)
	DD	00H
	DD	01H
__unwindtable$?OnMouseMove@CSelectingTool@@UAE_NPAVCDC@@ABVCPoint@@H@Z DD 0ffffffffH
	DD	FLAT:__unwindfunclet$?OnMouseMove@CSelectingTool@@UAE_NPAVCDC@@ABVCPoint@@H@Z$0
	DD	00H
	DD	FLAT:__unwindfunclet$?OnMouseMove@CSelectingTool@@UAE_NPAVCDC@@ABVCPoint@@H@Z$2
	DD	01H
	DD	FLAT:__unwindfunclet$?OnMouseMove@CSelectingTool@@UAE_NPAVCDC@@ABVCPoint@@H@Z$3
	DD	02H
	DD	FLAT:__unwindfunclet$?OnMouseMove@CSelectingTool@@UAE_NPAVCDC@@ABVCPoint@@H@Z$4
	DD	00H
	DD	FLAT:__unwindfunclet$?OnMouseMove@CSelectingTool@@UAE_NPAVCDC@@ABVCPoint@@H@Z$1
xdata$x	ENDS
;	COMDAT xdata$x
xdata$x	SEGMENT
__ehfuncinfo$?OnLButtonUp@CSelectingTool@@UAEXPAVCDC@@ABVCPoint@@@Z DD 019930522H
	DD	09H
	DD	FLAT:__unwindtable$?OnLButtonUp@CSelectingTool@@UAEXPAVCDC@@ABVCPoint@@@Z
	DD	2 DUP(00H)
	DD	2 DUP(00H)
	DD	00H
	DD	01H
__unwindtable$?OnLButtonUp@CSelectingTool@@UAEXPAVCDC@@ABVCPoint@@@Z DD 0ffffffffH
	DD	FLAT:__unwindfunclet$?OnLButtonUp@CSelectingTool@@UAEXPAVCDC@@ABVCPoint@@@Z$0
	DD	00H
	DD	FLAT:__unwindfunclet$?OnLButtonUp@CSelectingTool@@UAEXPAVCDC@@ABVCPoint@@@Z$1
	DD	01H
	DD	FLAT:__unwindfunclet$?OnLButtonUp@CSelectingTool@@UAEXPAVCDC@@ABVCPoint@@@Z$2
	DD	01H
	DD	FLAT:__unwindfunclet$?OnLButtonUp@CSelectingTool@@UAEXPAVCDC@@ABVCPoint@@@Z$3
	DD	01H
	DD	FLAT:__unwindfunclet$?OnLButtonUp@CSelectingTool@@UAEXPAVCDC@@ABVCPoint@@@Z$4
	DD	01H
	DD	FLAT:__unwindfunclet$?OnLButtonUp@CSelectingTool@@UAEXPAVCDC@@ABVCPoint@@@Z$5
	DD	01H
	DD	FLAT:__unwindfunclet$?OnLButtonUp@CSelectingTool@@UAEXPAVCDC@@ABVCPoint@@@Z$6
	DD	01H
	DD	FLAT:__unwindfunclet$?OnLButtonUp@CSelectingTool@@UAEXPAVCDC@@ABVCPoint@@@Z$7
	DD	00H
	DD	FLAT:__unwindfunclet$?OnLButtonUp@CSelectingTool@@UAEXPAVCDC@@ABVCPoint@@@Z$8
xdata$x	ENDS
;	COMDAT xdata$x
xdata$x	SEGMENT
__unwindtable$?OnLButtonDown@CSelectingTool@@UAEPAVCElement@@PAVCDC@@ABVCPoint@@@Z DD 0ffffffffH
	DD	FLAT:__unwindfunclet$?OnLButtonDown@CSelectingTool@@UAEPAVCElement@@PAVCDC@@ABVCPoint@@@Z$0
	DD	0ffffffffH
	DD	FLAT:__unwindfunclet$?OnLButtonDown@CSelectingTool@@UAEPAVCElement@@PAVCDC@@ABVCPoint@@@Z$1
__ehfuncinfo$?OnLButtonDown@CSelectingTool@@UAEPAVCElement@@PAVCDC@@ABVCPoint@@@Z DD 019930522H
	DD	02H
	DD	FLAT:__unwindtable$?OnLButtonDown@CSelectingTool@@UAEPAVCElement@@PAVCDC@@ABVCPoint@@@Z
	DD	2 DUP(00H)
	DD	2 DUP(00H)
	DD	00H
	DD	01H
xdata$x	ENDS
;	COMDAT xdata$x
xdata$x	SEGMENT
__unwindtable$??0CSelectingTool@@QAE@PAVCAnalysisData@@W4COORDINATETYPE@CAnalysis@@@Z DD 0ffffffffH
	DD	FLAT:__unwindfunclet$??0CSelectingTool@@QAE@PAVCAnalysisData@@W4COORDINATETYPE@CAnalysis@@@Z$0
	DD	00H
	DD	FLAT:__unwindfunclet$??0CSelectingTool@@QAE@PAVCAnalysisData@@W4COORDINATETYPE@CAnalysis@@@Z$1
__ehfuncinfo$??0CSelectingTool@@QAE@PAVCAnalysisData@@W4COORDINATETYPE@CAnalysis@@@Z DD 019930522H
	DD	02H
	DD	FLAT:__unwindtable$??0CSelectingTool@@QAE@PAVCAnalysisData@@W4COORDINATETYPE@CAnalysis@@@Z
	DD	2 DUP(00H)
	DD	2 DUP(00H)
	DD	00H
	DD	01H
xdata$x	ENDS
; Function compile flags: /Ogtp
; File D:\git\src\IBK\IBK_DRFN\ProjSrc\SrcChartEx\ChartAddIn\ChartAnalysisToolAddIn\AnalysisTool\Selecting.cpp
;	COMDAT ?Draw_EndPoint@CSelectingTool@@AAEXPAVCDC@@@Z
_TEXT	SEGMENT
$T2 = -356						; size = 40
$T3 = -316						; size = 32
$T4 = -284						; size = 8
$T5 = -276						; size = 8
$T6 = -268						; size = 8
_pDC$GSCopy$1$ = -260					; size = 4
$T7 = -256						; size = 144
_calData$8 = -112					; size = 96
__$ArrayPad$ = -16					; size = 4
__$EHRec$ = -12						; size = 12
_pDC$ = 8						; size = 4
?Draw_EndPoint@CSelectingTool@@AAEXPAVCDC@@@Z PROC	; CSelectingTool::Draw_EndPoint, COMDAT
; _this$ = ecx

; 461  : {

  00000	55		 push	 ebp
  00001	8b ec		 mov	 ebp, esp
  00003	6a ff		 push	 -1
  00005	68 00 00 00 00	 push	 __ehhandler$?Draw_EndPoint@CSelectingTool@@AAEXPAVCDC@@@Z
  0000a	64 a1 00 00 00
	00		 mov	 eax, DWORD PTR fs:0
  00010	50		 push	 eax
  00011	81 ec 58 01 00
	00		 sub	 esp, 344		; 00000158H
  00017	a1 00 00 00 00	 mov	 eax, DWORD PTR ___security_cookie
  0001c	33 c5		 xor	 eax, ebp
  0001e	89 45 f0	 mov	 DWORD PTR __$ArrayPad$[ebp], eax
  00021	53		 push	 ebx
  00022	56		 push	 esi
  00023	57		 push	 edi
  00024	50		 push	 eax
  00025	8d 45 f4	 lea	 eax, DWORD PTR __$EHRec$[ebp]
  00028	64 a3 00 00 00
	00		 mov	 DWORD PTR fs:0, eax
  0002e	8b d9		 mov	 ebx, ecx
  00030	8b 45 08	 mov	 eax, DWORD PTR _pDC$[ebp]

; 318  : 	CCoordinateCalculatorData calData = CTool::GetCoordinateCalculatorData(points.GetDrawingPoint());

  00033	8d 8b 88 00 00
	00		 lea	 ecx, DWORD PTR [ebx+136]

; 461  : {

  00039	89 85 fc fe ff
	ff		 mov	 DWORD PTR _pDC$GSCopy$1$[ebp], eax

; 318  : 	CCoordinateCalculatorData calData = CTool::GetCoordinateCalculatorData(points.GetDrawingPoint());

  0003f	8d 85 f4 fe ff
	ff		 lea	 eax, DWORD PTR $T6[ebp]
  00045	50		 push	 eax
  00046	e8 00 00 00 00	 call	 ?GetDrawingPoint@CPoints@@QBE?AVCPoint@@XZ ; CPoints::GetDrawingPoint
  0004b	50		 push	 eax
  0004c	8d 45 90	 lea	 eax, DWORD PTR _calData$8[ebp]
  0004f	8b cb		 mov	 ecx, ebx
  00051	50		 push	 eax
  00052	e8 00 00 00 00	 call	 ?GetCoordinateCalculatorData@CTool@@QBE?AVCCoordinateCalculatorData@@ABVCPoint@@@Z ; CTool::GetCoordinateCalculatorData

; 319  : 	return CSelectedElementDrawingData(m_TypeModify,&CTool::GetDrawingRegions(), calData, 

  00057	8d 85 c4 fe ff
	ff		 lea	 eax, DWORD PTR $T3[ebp]
  0005d	c7 45 fc 00 00
	00 00		 mov	 DWORD PTR __$EHRec$[ebp+8], 0
  00064	50		 push	 eax
  00065	8d 8b 88 00 00
	00		 lea	 ecx, DWORD PTR [ebx+136]
  0006b	e8 00 00 00 00	 call	 ?GetSavingPoint@CPoints@@QBE?AVCCoordinate@@XZ ; CPoints::GetSavingPoint
  00070	8b f0		 mov	 esi, eax
  00072	8d 85 ec fe ff
	ff		 lea	 eax, DWORD PTR $T5[ebp]
  00078	c6 45 fc 01	 mov	 BYTE PTR __$EHRec$[ebp+8], 1
  0007c	50		 push	 eax
  0007d	8d 8b 88 00 00
	00		 lea	 ecx, DWORD PTR [ebx+136]
  00083	e8 00 00 00 00	 call	 ?GetDrawingPoint@CPoints@@QBE?AVCPoint@@XZ ; CPoints::GetDrawingPoint
  00088	50		 push	 eax
  00089	8d 45 90	 lea	 eax, DWORD PTR _calData$8[ebp]
  0008c	8b cb		 mov	 ecx, ebx
  0008e	50		 push	 eax
  0008f	8d 85 e4 fe ff
	ff		 lea	 eax, DWORD PTR $T4[ebp]
  00095	50		 push	 eax
  00096	e8 00 00 00 00	 call	 ?GetSelectedElementDrawPoint@CSelectingTool@@ABE?AVCPoint@@ABVCCoordinateCalculatorData@@ABV2@@Z ; CSelectingTool::GetSelectedElementDrawPoint
  0009b	50		 push	 eax
  0009c	56		 push	 esi
  0009d	8d 8d 9c fe ff
	ff		 lea	 ecx, DWORD PTR $T2[ebp]
  000a3	e8 00 00 00 00	 call	 ??0CPoints@@QAE@ABVCCoordinate@@ABVCPoint@@@Z ; CPoints::CPoints
  000a8	50		 push	 eax
  000a9	8d 45 90	 lea	 eax, DWORD PTR _calData$8[ebp]
  000ac	c6 45 fc 02	 mov	 BYTE PTR __$EHRec$[ebp+8], 2
  000b0	50		 push	 eax
  000b1	8b cb		 mov	 ecx, ebx
  000b3	e8 00 00 00 00	 call	 ?GetDrawingRegions@CTool@@IAEAAVCDrawingRegions@@XZ ; CTool::GetDrawingRegions
  000b8	50		 push	 eax
  000b9	ff 73 78	 push	 DWORD PTR [ebx+120]
  000bc	8d 8d 00 ff ff
	ff		 lea	 ecx, DWORD PTR $T7[ebp]
  000c2	e8 00 00 00 00	 call	 ??0CSelectedElementDrawingData@@QAE@W4ModifyType@CToolEnumData@@PAVCDrawingRegions@@ABVCCoordinateCalculatorData@@ABVCPoints@@@Z ; CSelectedElementDrawingData::CSelectedElementDrawingData
  000c7	8d 8d b0 fe ff
	ff		 lea	 ecx, DWORD PTR $T2[ebp+20]
  000cd	ff 15 00 00 00
	00		 call	 DWORD PTR __imp_??1?$CStringT@DV?$StrTraitMFC_DLL@DV?$ChTraitsCRT@D@ATL@@@@@ATL@@QAE@XZ
  000d3	8d 8d d8 fe ff
	ff		 lea	 ecx, DWORD PTR $T3[ebp+20]
  000d9	ff 15 00 00 00
	00		 call	 DWORD PTR __imp_??1?$CStringT@DV?$StrTraitMFC_DLL@DV?$ChTraitsCRT@D@ATL@@@@@ATL@@QAE@XZ
  000df	8d 4d 90	 lea	 ecx, DWORD PTR _calData$8[ebp]
  000e2	e8 00 00 00 00	 call	 ??1CCoordinateCalculatorData@@QAE@XZ ; CCoordinateCalculatorData::~CCoordinateCalculatorData

; 462  : 	m_pSelectedElement->DrawSelected(pDC, GetSelectedElementDrawData(m_oldSelectedPt));

  000e7	8b 4b 7c	 mov	 ecx, DWORD PTR [ebx+124]
  000ea	8d 95 00 ff ff
	ff		 lea	 edx, DWORD PTR $T7[ebp]
  000f0	52		 push	 edx
  000f1	ff b5 fc fe ff
	ff		 push	 DWORD PTR _pDC$GSCopy$1$[ebp]
  000f7	c7 45 fc 03 00
	00 00		 mov	 DWORD PTR __$EHRec$[ebp+8], 3
  000fe	8b 01		 mov	 eax, DWORD PTR [ecx]
  00100	ff 50 30	 call	 DWORD PTR [eax+48]
  00103	8d 4d 84	 lea	 ecx, DWORD PTR $T7[ebp+132]
  00106	ff 15 00 00 00
	00		 call	 DWORD PTR __imp_??1?$CStringT@DV?$StrTraitMFC_DLL@DV?$ChTraitsCRT@D@ATL@@@@@ATL@@QAE@XZ
  0010c	8d 8d 08 ff ff
	ff		 lea	 ecx, DWORD PTR $T7[ebp+8]
  00112	e8 00 00 00 00	 call	 ??1CCoordinateCalculatorData@@QAE@XZ ; CCoordinateCalculatorData::~CCoordinateCalculatorData

; 463  : }

  00117	8b 4d f4	 mov	 ecx, DWORD PTR __$EHRec$[ebp]
  0011a	64 89 0d 00 00
	00 00		 mov	 DWORD PTR fs:0, ecx
  00121	59		 pop	 ecx
  00122	5f		 pop	 edi
  00123	5e		 pop	 esi
  00124	5b		 pop	 ebx
  00125	8b 4d f0	 mov	 ecx, DWORD PTR __$ArrayPad$[ebp]
  00128	33 cd		 xor	 ecx, ebp
  0012a	e8 00 00 00 00	 call	 @__security_check_cookie@4
  0012f	8b e5		 mov	 esp, ebp
  00131	5d		 pop	 ebp
  00132	c2 04 00	 ret	 4
_TEXT	ENDS
;	COMDAT text$x
text$x	SEGMENT
__unwindfunclet$?Draw_EndPoint@CSelectingTool@@AAEXPAVCDC@@@Z$1:
  00000	8d 4d 90	 lea	 ecx, DWORD PTR _calData$8[ebp]
  00003	e9 00 00 00 00	 jmp	 ??1CCoordinateCalculatorData@@QAE@XZ ; CCoordinateCalculatorData::~CCoordinateCalculatorData
__unwindfunclet$?Draw_EndPoint@CSelectingTool@@AAEXPAVCDC@@@Z$2:
  00008	8d 8d c4 fe ff
	ff		 lea	 ecx, DWORD PTR $T3[ebp]
  0000e	e9 00 00 00 00	 jmp	 ??1CCoordinate@@QAE@XZ
__unwindfunclet$?Draw_EndPoint@CSelectingTool@@AAEXPAVCDC@@@Z$3:
  00013	8d 8d 9c fe ff
	ff		 lea	 ecx, DWORD PTR $T2[ebp]
  00019	e9 00 00 00 00	 jmp	 ??1CPoints@@QAE@XZ
__unwindfunclet$?Draw_EndPoint@CSelectingTool@@AAEXPAVCDC@@@Z$0:
  0001e	8d 8d 00 ff ff
	ff		 lea	 ecx, DWORD PTR $T7[ebp]
  00024	e9 00 00 00 00	 jmp	 ??1CSelectedElementDrawingData@@QAE@XZ
  00029	cc		 int	 3
  0002a	cc		 int	 3
  0002b	cc		 int	 3
  0002c	cc		 int	 3
  0002d	cc		 int	 3
__ehhandler$?Draw_EndPoint@CSelectingTool@@AAEXPAVCDC@@@Z:
  0002e	90		 npad	 1
  0002f	90		 npad	 1
  00030	8b 54 24 08	 mov	 edx, DWORD PTR [esp+8]
  00034	8d 42 0c	 lea	 eax, DWORD PTR [edx+12]
  00037	8b 8a 98 fe ff
	ff		 mov	 ecx, DWORD PTR [edx-360]
  0003d	33 c8		 xor	 ecx, eax
  0003f	e8 00 00 00 00	 call	 @__security_check_cookie@4
  00044	8b 4a fc	 mov	 ecx, DWORD PTR [edx-4]
  00047	33 c8		 xor	 ecx, eax
  00049	e8 00 00 00 00	 call	 @__security_check_cookie@4
  0004e	b8 00 00 00 00	 mov	 eax, OFFSET __ehfuncinfo$?Draw_EndPoint@CSelectingTool@@AAEXPAVCDC@@@Z
  00053	e9 00 00 00 00	 jmp	 ___CxxFrameHandler3
text$x	ENDS
?Draw_EndPoint@CSelectingTool@@AAEXPAVCDC@@@Z ENDP	; CSelectingTool::Draw_EndPoint
; Function compile flags: /Ogtp
; File D:\git\src\IBK\IBK_DRFN\ProjSrc\SrcChartEx\ChartAddIn\ChartAnalysisToolAddIn\AnalysisTool\Selecting.cpp
;	COMDAT ?DrawNewToolDrawing@CSelectingTool@@AAEXPAVCDC@@ABVCPoints@@@Z
_TEXT	SEGMENT
$T2 = -356						; size = 40
$T3 = -316						; size = 32
$T4 = -284						; size = 8
$T5 = -276						; size = 8
$T6 = -268						; size = 8
_pDC$GSCopy$1$ = -260					; size = 4
$T7 = -256						; size = 144
_calData$8 = -112					; size = 96
__$ArrayPad$ = -16					; size = 4
__$EHRec$ = -12						; size = 12
_pDC$ = 8						; size = 4
_points$ = 12						; size = 4
?DrawNewToolDrawing@CSelectingTool@@AAEXPAVCDC@@ABVCPoints@@@Z PROC ; CSelectingTool::DrawNewToolDrawing, COMDAT
; _this$ = ecx

; 450  : {

  00000	55		 push	 ebp
  00001	8b ec		 mov	 ebp, esp
  00003	6a ff		 push	 -1
  00005	68 00 00 00 00	 push	 __ehhandler$?DrawNewToolDrawing@CSelectingTool@@AAEXPAVCDC@@ABVCPoints@@@Z
  0000a	64 a1 00 00 00
	00		 mov	 eax, DWORD PTR fs:0
  00010	50		 push	 eax
  00011	81 ec 58 01 00
	00		 sub	 esp, 344		; 00000158H
  00017	a1 00 00 00 00	 mov	 eax, DWORD PTR ___security_cookie
  0001c	33 c5		 xor	 eax, ebp
  0001e	89 45 f0	 mov	 DWORD PTR __$ArrayPad$[ebp], eax
  00021	53		 push	 ebx
  00022	56		 push	 esi
  00023	57		 push	 edi
  00024	50		 push	 eax
  00025	8d 45 f4	 lea	 eax, DWORD PTR __$EHRec$[ebp]
  00028	64 a3 00 00 00
	00		 mov	 DWORD PTR fs:0, eax
  0002e	8b d9		 mov	 ebx, ecx
  00030	8b 45 08	 mov	 eax, DWORD PTR _pDC$[ebp]

; 451  : 	SavePoints(points);

  00033	8b 13		 mov	 edx, DWORD PTR [ebx]
  00035	89 85 fc fe ff
	ff		 mov	 DWORD PTR _pDC$GSCopy$1$[ebp], eax
  0003b	8b 45 0c	 mov	 eax, DWORD PTR _points$[ebp]
  0003e	50		 push	 eax
  0003f	ff 52 20	 call	 DWORD PTR [edx+32]

; 318  : 	CCoordinateCalculatorData calData = CTool::GetCoordinateCalculatorData(points.GetDrawingPoint());

  00042	8d 85 f4 fe ff
	ff		 lea	 eax, DWORD PTR $T6[ebp]
  00048	50		 push	 eax
  00049	8d 8b 88 00 00
	00		 lea	 ecx, DWORD PTR [ebx+136]
  0004f	e8 00 00 00 00	 call	 ?GetDrawingPoint@CPoints@@QBE?AVCPoint@@XZ ; CPoints::GetDrawingPoint
  00054	50		 push	 eax
  00055	8d 45 90	 lea	 eax, DWORD PTR _calData$8[ebp]
  00058	8b cb		 mov	 ecx, ebx
  0005a	50		 push	 eax
  0005b	e8 00 00 00 00	 call	 ?GetCoordinateCalculatorData@CTool@@QBE?AVCCoordinateCalculatorData@@ABVCPoint@@@Z ; CTool::GetCoordinateCalculatorData

; 319  : 	return CSelectedElementDrawingData(m_TypeModify,&CTool::GetDrawingRegions(), calData, 

  00060	8d 85 c4 fe ff
	ff		 lea	 eax, DWORD PTR $T3[ebp]
  00066	c7 45 fc 00 00
	00 00		 mov	 DWORD PTR __$EHRec$[ebp+8], 0
  0006d	50		 push	 eax
  0006e	8d 8b 88 00 00
	00		 lea	 ecx, DWORD PTR [ebx+136]
  00074	e8 00 00 00 00	 call	 ?GetSavingPoint@CPoints@@QBE?AVCCoordinate@@XZ ; CPoints::GetSavingPoint
  00079	8b f0		 mov	 esi, eax
  0007b	8d 85 ec fe ff
	ff		 lea	 eax, DWORD PTR $T5[ebp]
  00081	c6 45 fc 01	 mov	 BYTE PTR __$EHRec$[ebp+8], 1
  00085	50		 push	 eax
  00086	8d 8b 88 00 00
	00		 lea	 ecx, DWORD PTR [ebx+136]
  0008c	e8 00 00 00 00	 call	 ?GetDrawingPoint@CPoints@@QBE?AVCPoint@@XZ ; CPoints::GetDrawingPoint
  00091	50		 push	 eax
  00092	8d 45 90	 lea	 eax, DWORD PTR _calData$8[ebp]
  00095	8b cb		 mov	 ecx, ebx
  00097	50		 push	 eax
  00098	8d 85 e4 fe ff
	ff		 lea	 eax, DWORD PTR $T4[ebp]
  0009e	50		 push	 eax
  0009f	e8 00 00 00 00	 call	 ?GetSelectedElementDrawPoint@CSelectingTool@@ABE?AVCPoint@@ABVCCoordinateCalculatorData@@ABV2@@Z ; CSelectingTool::GetSelectedElementDrawPoint
  000a4	50		 push	 eax
  000a5	56		 push	 esi
  000a6	8d 8d 9c fe ff
	ff		 lea	 ecx, DWORD PTR $T2[ebp]
  000ac	e8 00 00 00 00	 call	 ??0CPoints@@QAE@ABVCCoordinate@@ABVCPoint@@@Z ; CPoints::CPoints
  000b1	50		 push	 eax
  000b2	8d 45 90	 lea	 eax, DWORD PTR _calData$8[ebp]
  000b5	c6 45 fc 02	 mov	 BYTE PTR __$EHRec$[ebp+8], 2
  000b9	50		 push	 eax
  000ba	8b cb		 mov	 ecx, ebx
  000bc	e8 00 00 00 00	 call	 ?GetDrawingRegions@CTool@@IAEAAVCDrawingRegions@@XZ ; CTool::GetDrawingRegions
  000c1	50		 push	 eax
  000c2	ff 73 78	 push	 DWORD PTR [ebx+120]
  000c5	8d 8d 00 ff ff
	ff		 lea	 ecx, DWORD PTR $T7[ebp]
  000cb	e8 00 00 00 00	 call	 ??0CSelectedElementDrawingData@@QAE@W4ModifyType@CToolEnumData@@PAVCDrawingRegions@@ABVCCoordinateCalculatorData@@ABVCPoints@@@Z ; CSelectedElementDrawingData::CSelectedElementDrawingData
  000d0	8d 8d b0 fe ff
	ff		 lea	 ecx, DWORD PTR $T2[ebp+20]
  000d6	ff 15 00 00 00
	00		 call	 DWORD PTR __imp_??1?$CStringT@DV?$StrTraitMFC_DLL@DV?$ChTraitsCRT@D@ATL@@@@@ATL@@QAE@XZ
  000dc	8d 8d d8 fe ff
	ff		 lea	 ecx, DWORD PTR $T3[ebp+20]
  000e2	ff 15 00 00 00
	00		 call	 DWORD PTR __imp_??1?$CStringT@DV?$StrTraitMFC_DLL@DV?$ChTraitsCRT@D@ATL@@@@@ATL@@QAE@XZ
  000e8	8d 4d 90	 lea	 ecx, DWORD PTR _calData$8[ebp]
  000eb	e8 00 00 00 00	 call	 ??1CCoordinateCalculatorData@@QAE@XZ ; CCoordinateCalculatorData::~CCoordinateCalculatorData

; 462  : 	m_pSelectedElement->DrawSelected(pDC, GetSelectedElementDrawData(m_oldSelectedPt));

  000f0	8b 4b 7c	 mov	 ecx, DWORD PTR [ebx+124]
  000f3	8d 95 00 ff ff
	ff		 lea	 edx, DWORD PTR $T7[ebp]
  000f9	52		 push	 edx
  000fa	ff b5 fc fe ff
	ff		 push	 DWORD PTR _pDC$GSCopy$1$[ebp]
  00100	c7 45 fc 03 00
	00 00		 mov	 DWORD PTR __$EHRec$[ebp+8], 3
  00107	8b 01		 mov	 eax, DWORD PTR [ecx]
  00109	ff 50 30	 call	 DWORD PTR [eax+48]
  0010c	8d 4d 84	 lea	 ecx, DWORD PTR $T7[ebp+132]
  0010f	ff 15 00 00 00
	00		 call	 DWORD PTR __imp_??1?$CStringT@DV?$StrTraitMFC_DLL@DV?$ChTraitsCRT@D@ATL@@@@@ATL@@QAE@XZ
  00115	8d 8d 08 ff ff
	ff		 lea	 ecx, DWORD PTR $T7[ebp+8]
  0011b	e8 00 00 00 00	 call	 ??1CCoordinateCalculatorData@@QAE@XZ ; CCoordinateCalculatorData::~CCoordinateCalculatorData

; 452  : 	Draw_EndPoint(pDC);
; 453  :  
; 454  : //	CElementModifyData modifyData = GetElementModifyData(m_oldSelectedPt.GetDrawingPoint());
; 455  : //	m_pSelectedElement->ElementModify(modifyData);
; 456  : 
; 457  : 	//CTool::Invalidate();
; 458  : }

  00120	8b 4d f4	 mov	 ecx, DWORD PTR __$EHRec$[ebp]
  00123	64 89 0d 00 00
	00 00		 mov	 DWORD PTR fs:0, ecx
  0012a	59		 pop	 ecx
  0012b	5f		 pop	 edi
  0012c	5e		 pop	 esi
  0012d	5b		 pop	 ebx
  0012e	8b 4d f0	 mov	 ecx, DWORD PTR __$ArrayPad$[ebp]
  00131	33 cd		 xor	 ecx, ebp
  00133	e8 00 00 00 00	 call	 @__security_check_cookie@4
  00138	8b e5		 mov	 esp, ebp
  0013a	5d		 pop	 ebp
  0013b	c2 08 00	 ret	 8
_TEXT	ENDS
;	COMDAT text$x
text$x	SEGMENT
__unwindfunclet$?DrawNewToolDrawing@CSelectingTool@@AAEXPAVCDC@@ABVCPoints@@@Z$1:
  00000	8d 4d 90	 lea	 ecx, DWORD PTR _calData$8[ebp]
  00003	e9 00 00 00 00	 jmp	 ??1CCoordinateCalculatorData@@QAE@XZ ; CCoordinateCalculatorData::~CCoordinateCalculatorData
__unwindfunclet$?DrawNewToolDrawing@CSelectingTool@@AAEXPAVCDC@@ABVCPoints@@@Z$2:
  00008	8d 8d c4 fe ff
	ff		 lea	 ecx, DWORD PTR $T3[ebp]
  0000e	e9 00 00 00 00	 jmp	 ??1CCoordinate@@QAE@XZ
__unwindfunclet$?DrawNewToolDrawing@CSelectingTool@@AAEXPAVCDC@@ABVCPoints@@@Z$3:
  00013	8d 8d 9c fe ff
	ff		 lea	 ecx, DWORD PTR $T2[ebp]
  00019	e9 00 00 00 00	 jmp	 ??1CPoints@@QAE@XZ
__unwindfunclet$?DrawNewToolDrawing@CSelectingTool@@AAEXPAVCDC@@ABVCPoints@@@Z$0:
  0001e	8d 8d 00 ff ff
	ff		 lea	 ecx, DWORD PTR $T7[ebp]
  00024	e9 00 00 00 00	 jmp	 ??1CSelectedElementDrawingData@@QAE@XZ
  00029	cc		 int	 3
  0002a	cc		 int	 3
  0002b	cc		 int	 3
  0002c	cc		 int	 3
  0002d	cc		 int	 3
__ehhandler$?DrawNewToolDrawing@CSelectingTool@@AAEXPAVCDC@@ABVCPoints@@@Z:
  0002e	90		 npad	 1
  0002f	90		 npad	 1
  00030	8b 54 24 08	 mov	 edx, DWORD PTR [esp+8]
  00034	8d 42 0c	 lea	 eax, DWORD PTR [edx+12]
  00037	8b 8a 98 fe ff
	ff		 mov	 ecx, DWORD PTR [edx-360]
  0003d	33 c8		 xor	 ecx, eax
  0003f	e8 00 00 00 00	 call	 @__security_check_cookie@4
  00044	8b 4a fc	 mov	 ecx, DWORD PTR [edx-4]
  00047	33 c8		 xor	 ecx, eax
  00049	e8 00 00 00 00	 call	 @__security_check_cookie@4
  0004e	b8 00 00 00 00	 mov	 eax, OFFSET __ehfuncinfo$?DrawNewToolDrawing@CSelectingTool@@AAEXPAVCDC@@ABVCPoints@@@Z
  00053	e9 00 00 00 00	 jmp	 ___CxxFrameHandler3
text$x	ENDS
?DrawNewToolDrawing@CSelectingTool@@AAEXPAVCDC@@ABVCPoints@@@Z ENDP ; CSelectingTool::DrawNewToolDrawing
; Function compile flags: /Ogtp
; File D:\git\src\IBK\IBK_DRFN\ProjSrc\SrcChartEx\ChartAddIn\ChartAnalysisToolAddIn\AnalysisTool\Selecting.cpp
;	COMDAT ?Modify_InDrawingRegion@CSelectingTool@@AAE_NPAVCDC@@ABVCPoint@@@Z
_TEXT	SEGMENT
$T2 = -396						; size = 40
$T3 = -356						; size = 32
_points$ = -324						; size = 40
$T4 = -284						; size = 8
$T5 = -276						; size = 8
$T6 = -268						; size = 8
_pDC$GSCopy$1$ = -260					; size = 4
$T7 = -256						; size = 144
_calData$8 = -112					; size = 96
__$ArrayPad$ = -16					; size = 4
__$EHRec$ = -12						; size = 12
_pDC$ = 8						; size = 4
_point$ = 12						; size = 4
?Modify_InDrawingRegion@CSelectingTool@@AAE_NPAVCDC@@ABVCPoint@@@Z PROC ; CSelectingTool::Modify_InDrawingRegion, COMDAT
; _this$ = ecx

; 438  : {

  00000	55		 push	 ebp
  00001	8b ec		 mov	 ebp, esp
  00003	6a ff		 push	 -1
  00005	68 00 00 00 00	 push	 __ehhandler$?Modify_InDrawingRegion@CSelectingTool@@AAE_NPAVCDC@@ABVCPoint@@@Z
  0000a	64 a1 00 00 00
	00		 mov	 eax, DWORD PTR fs:0
  00010	50		 push	 eax
  00011	81 ec 80 01 00
	00		 sub	 esp, 384		; 00000180H
  00017	a1 00 00 00 00	 mov	 eax, DWORD PTR ___security_cookie
  0001c	33 c5		 xor	 eax, ebp
  0001e	89 45 f0	 mov	 DWORD PTR __$ArrayPad$[ebp], eax
  00021	53		 push	 ebx
  00022	56		 push	 esi
  00023	57		 push	 edi
  00024	50		 push	 eax
  00025	8d 45 f4	 lea	 eax, DWORD PTR __$EHRec$[ebp]
  00028	64 a3 00 00 00
	00		 mov	 DWORD PTR fs:0, eax
  0002e	8b d9		 mov	 ebx, ecx
  00030	8b 45 08	 mov	 eax, DWORD PTR _pDC$[ebp]
  00033	8b 75 0c	 mov	 esi, DWORD PTR _point$[ebp]
  00036	89 85 fc fe ff
	ff		 mov	 DWORD PTR _pDC$GSCopy$1$[ebp], eax

; 439  : 	if(!PointInDrawingRegion(point))

  0003c	8b 03		 mov	 eax, DWORD PTR [ebx]
  0003e	56		 push	 esi
  0003f	8b 40 1c	 mov	 eax, DWORD PTR [eax+28]
  00042	ff d0		 call	 eax
  00044	84 c0		 test	 al, al
  00046	0f 84 0a 01 00
	00		 je	 $LN1@Modify_InD
$LN2@Modify_InD:

; 440  : 		return false;
; 441  :     
; 442  : 	CPoints points = CTool::GetPoints(point);

  0004c	56		 push	 esi
  0004d	8d 85 bc fe ff
	ff		 lea	 eax, DWORD PTR _points$[ebp]
  00053	8b cb		 mov	 ecx, ebx
  00055	50		 push	 eax
  00056	e8 00 00 00 00	 call	 ?GetPoints@CTool@@IBE?AVCPoints@@ABVCPoint@@@Z ; CTool::GetPoints

; 451  : 	SavePoints(points);

  0005b	8b 03		 mov	 eax, DWORD PTR [ebx]
  0005d	8d 8d bc fe ff
	ff		 lea	 ecx, DWORD PTR _points$[ebp]
  00063	51		 push	 ecx
  00064	8b cb		 mov	 ecx, ebx

; 440  : 		return false;
; 441  :     
; 442  : 	CPoints points = CTool::GetPoints(point);

  00066	c7 45 fc 00 00
	00 00		 mov	 DWORD PTR __$EHRec$[ebp+8], 0

; 451  : 	SavePoints(points);

  0006d	ff 50 20	 call	 DWORD PTR [eax+32]

; 318  : 	CCoordinateCalculatorData calData = CTool::GetCoordinateCalculatorData(points.GetDrawingPoint());

  00070	8d 85 f4 fe ff
	ff		 lea	 eax, DWORD PTR $T6[ebp]
  00076	50		 push	 eax
  00077	8d 8b 88 00 00
	00		 lea	 ecx, DWORD PTR [ebx+136]
  0007d	e8 00 00 00 00	 call	 ?GetDrawingPoint@CPoints@@QBE?AVCPoint@@XZ ; CPoints::GetDrawingPoint
  00082	50		 push	 eax
  00083	8d 45 90	 lea	 eax, DWORD PTR _calData$8[ebp]
  00086	8b cb		 mov	 ecx, ebx
  00088	50		 push	 eax
  00089	e8 00 00 00 00	 call	 ?GetCoordinateCalculatorData@CTool@@QBE?AVCCoordinateCalculatorData@@ABVCPoint@@@Z ; CTool::GetCoordinateCalculatorData

; 319  : 	return CSelectedElementDrawingData(m_TypeModify,&CTool::GetDrawingRegions(), calData, 

  0008e	8d 85 9c fe ff
	ff		 lea	 eax, DWORD PTR $T3[ebp]
  00094	c6 45 fc 01	 mov	 BYTE PTR __$EHRec$[ebp+8], 1
  00098	50		 push	 eax
  00099	8d 8b 88 00 00
	00		 lea	 ecx, DWORD PTR [ebx+136]
  0009f	e8 00 00 00 00	 call	 ?GetSavingPoint@CPoints@@QBE?AVCCoordinate@@XZ ; CPoints::GetSavingPoint
  000a4	8b f0		 mov	 esi, eax
  000a6	8d 85 ec fe ff
	ff		 lea	 eax, DWORD PTR $T5[ebp]
  000ac	c6 45 fc 02	 mov	 BYTE PTR __$EHRec$[ebp+8], 2
  000b0	50		 push	 eax
  000b1	8d 8b 88 00 00
	00		 lea	 ecx, DWORD PTR [ebx+136]
  000b7	e8 00 00 00 00	 call	 ?GetDrawingPoint@CPoints@@QBE?AVCPoint@@XZ ; CPoints::GetDrawingPoint
  000bc	50		 push	 eax
  000bd	8d 45 90	 lea	 eax, DWORD PTR _calData$8[ebp]
  000c0	8b cb		 mov	 ecx, ebx
  000c2	50		 push	 eax
  000c3	8d 85 e4 fe ff
	ff		 lea	 eax, DWORD PTR $T4[ebp]
  000c9	50		 push	 eax
  000ca	e8 00 00 00 00	 call	 ?GetSelectedElementDrawPoint@CSelectingTool@@ABE?AVCPoint@@ABVCCoordinateCalculatorData@@ABV2@@Z ; CSelectingTool::GetSelectedElementDrawPoint
  000cf	50		 push	 eax
  000d0	56		 push	 esi
  000d1	8d 8d 74 fe ff
	ff		 lea	 ecx, DWORD PTR $T2[ebp]
  000d7	e8 00 00 00 00	 call	 ??0CPoints@@QAE@ABVCCoordinate@@ABVCPoint@@@Z ; CPoints::CPoints
  000dc	50		 push	 eax
  000dd	8d 45 90	 lea	 eax, DWORD PTR _calData$8[ebp]
  000e0	c6 45 fc 03	 mov	 BYTE PTR __$EHRec$[ebp+8], 3
  000e4	50		 push	 eax
  000e5	8b cb		 mov	 ecx, ebx
  000e7	e8 00 00 00 00	 call	 ?GetDrawingRegions@CTool@@IAEAAVCDrawingRegions@@XZ ; CTool::GetDrawingRegions
  000ec	50		 push	 eax
  000ed	ff 73 78	 push	 DWORD PTR [ebx+120]
  000f0	8d 8d 00 ff ff
	ff		 lea	 ecx, DWORD PTR $T7[ebp]
  000f6	e8 00 00 00 00	 call	 ??0CSelectedElementDrawingData@@QAE@W4ModifyType@CToolEnumData@@PAVCDrawingRegions@@ABVCCoordinateCalculatorData@@ABVCPoints@@@Z ; CSelectedElementDrawingData::CSelectedElementDrawingData
  000fb	8d 8d 88 fe ff
	ff		 lea	 ecx, DWORD PTR $T2[ebp+20]
  00101	ff 15 00 00 00
	00		 call	 DWORD PTR __imp_??1?$CStringT@DV?$StrTraitMFC_DLL@DV?$ChTraitsCRT@D@ATL@@@@@ATL@@QAE@XZ
  00107	8d 8d b0 fe ff
	ff		 lea	 ecx, DWORD PTR $T3[ebp+20]
  0010d	ff 15 00 00 00
	00		 call	 DWORD PTR __imp_??1?$CStringT@DV?$StrTraitMFC_DLL@DV?$ChTraitsCRT@D@ATL@@@@@ATL@@QAE@XZ
  00113	8d 4d 90	 lea	 ecx, DWORD PTR _calData$8[ebp]
  00116	e8 00 00 00 00	 call	 ??1CCoordinateCalculatorData@@QAE@XZ ; CCoordinateCalculatorData::~CCoordinateCalculatorData

; 462  : 	m_pSelectedElement->DrawSelected(pDC, GetSelectedElementDrawData(m_oldSelectedPt));

  0011b	8b 4b 7c	 mov	 ecx, DWORD PTR [ebx+124]
  0011e	8d 95 00 ff ff
	ff		 lea	 edx, DWORD PTR $T7[ebp]
  00124	52		 push	 edx
  00125	ff b5 fc fe ff
	ff		 push	 DWORD PTR _pDC$GSCopy$1$[ebp]
  0012b	c6 45 fc 04	 mov	 BYTE PTR __$EHRec$[ebp+8], 4
  0012f	8b 01		 mov	 eax, DWORD PTR [ecx]
  00131	ff 50 30	 call	 DWORD PTR [eax+48]
  00134	8d 4d 84	 lea	 ecx, DWORD PTR $T7[ebp+132]
  00137	ff 15 00 00 00
	00		 call	 DWORD PTR __imp_??1?$CStringT@DV?$StrTraitMFC_DLL@DV?$ChTraitsCRT@D@ATL@@@@@ATL@@QAE@XZ
  0013d	8d 8d 08 ff ff
	ff		 lea	 ecx, DWORD PTR $T7[ebp+8]
  00143	e8 00 00 00 00	 call	 ??1CCoordinateCalculatorData@@QAE@XZ ; CCoordinateCalculatorData::~CCoordinateCalculatorData
  00148	8d 8d d0 fe ff
	ff		 lea	 ecx, DWORD PTR _points$[ebp+20]
  0014e	ff 15 00 00 00
	00		 call	 DWORD PTR __imp_??1?$CStringT@DV?$StrTraitMFC_DLL@DV?$ChTraitsCRT@D@ATL@@@@@ATL@@QAE@XZ

; 443  : 	DrawNewToolDrawing(pDC,points);
; 444  : 	return true;

  00154	b0 01		 mov	 al, 1
$LN1@Modify_InD:

; 445  : }

  00156	8b 4d f4	 mov	 ecx, DWORD PTR __$EHRec$[ebp]
  00159	64 89 0d 00 00
	00 00		 mov	 DWORD PTR fs:0, ecx
  00160	59		 pop	 ecx
  00161	5f		 pop	 edi
  00162	5e		 pop	 esi
  00163	5b		 pop	 ebx
  00164	8b 4d f0	 mov	 ecx, DWORD PTR __$ArrayPad$[ebp]
  00167	33 cd		 xor	 ecx, ebp
  00169	e8 00 00 00 00	 call	 @__security_check_cookie@4
  0016e	8b e5		 mov	 esp, ebp
  00170	5d		 pop	 ebp
  00171	c2 08 00	 ret	 8
_TEXT	ENDS
;	COMDAT text$x
text$x	SEGMENT
__unwindfunclet$?Modify_InDrawingRegion@CSelectingTool@@AAE_NPAVCDC@@ABVCPoint@@@Z$0:
  00000	8d 8d bc fe ff
	ff		 lea	 ecx, DWORD PTR _points$[ebp]
  00006	e9 00 00 00 00	 jmp	 ??1CPoints@@QAE@XZ
__unwindfunclet$?Modify_InDrawingRegion@CSelectingTool@@AAE_NPAVCDC@@ABVCPoint@@@Z$2:
  0000b	8d 4d 90	 lea	 ecx, DWORD PTR _calData$8[ebp]
  0000e	e9 00 00 00 00	 jmp	 ??1CCoordinateCalculatorData@@QAE@XZ ; CCoordinateCalculatorData::~CCoordinateCalculatorData
__unwindfunclet$?Modify_InDrawingRegion@CSelectingTool@@AAE_NPAVCDC@@ABVCPoint@@@Z$3:
  00013	8d 8d 9c fe ff
	ff		 lea	 ecx, DWORD PTR $T3[ebp]
  00019	e9 00 00 00 00	 jmp	 ??1CCoordinate@@QAE@XZ
__unwindfunclet$?Modify_InDrawingRegion@CSelectingTool@@AAE_NPAVCDC@@ABVCPoint@@@Z$4:
  0001e	8d 8d 74 fe ff
	ff		 lea	 ecx, DWORD PTR $T2[ebp]
  00024	e9 00 00 00 00	 jmp	 ??1CPoints@@QAE@XZ
__unwindfunclet$?Modify_InDrawingRegion@CSelectingTool@@AAE_NPAVCDC@@ABVCPoint@@@Z$1:
  00029	8d 8d 00 ff ff
	ff		 lea	 ecx, DWORD PTR $T7[ebp]
  0002f	e9 00 00 00 00	 jmp	 ??1CSelectedElementDrawingData@@QAE@XZ
  00034	cc		 int	 3
  00035	cc		 int	 3
  00036	cc		 int	 3
  00037	cc		 int	 3
  00038	cc		 int	 3
__ehhandler$?Modify_InDrawingRegion@CSelectingTool@@AAE_NPAVCDC@@ABVCPoint@@@Z:
  00039	90		 npad	 1
  0003a	90		 npad	 1
  0003b	8b 54 24 08	 mov	 edx, DWORD PTR [esp+8]
  0003f	8d 42 0c	 lea	 eax, DWORD PTR [edx+12]
  00042	8b 8a 70 fe ff
	ff		 mov	 ecx, DWORD PTR [edx-400]
  00048	33 c8		 xor	 ecx, eax
  0004a	e8 00 00 00 00	 call	 @__security_check_cookie@4
  0004f	8b 4a fc	 mov	 ecx, DWORD PTR [edx-4]
  00052	33 c8		 xor	 ecx, eax
  00054	e8 00 00 00 00	 call	 @__security_check_cookie@4
  00059	b8 00 00 00 00	 mov	 eax, OFFSET __ehfuncinfo$?Modify_InDrawingRegion@CSelectingTool@@AAE_NPAVCDC@@ABVCPoint@@@Z
  0005e	e9 00 00 00 00	 jmp	 ___CxxFrameHandler3
text$x	ENDS
?Modify_InDrawingRegion@CSelectingTool@@AAE_NPAVCDC@@ABVCPoint@@@Z ENDP ; CSelectingTool::Modify_InDrawingRegion
; Function compile flags: /Ogtp
; File D:\git\src\IBK\IBK_DRFN\ProjSrc\SrcChartEx\ChartAddIn\ChartAnalysisToolAddIn\AnalysisTool\Selecting.cpp
;	COMDAT ?ModifyElement@CSelectingTool@@AAE_NPAVCDC@@ABVCPoint@@@Z
_TEXT	SEGMENT
$T2 = -396						; size = 40
$T3 = -356						; size = 32
_points$4 = -324					; size = 40
$T5 = -284						; size = 8
$T6 = -276						; size = 8
$T7 = -268						; size = 8
_pDC$GSCopy$1$ = -260					; size = 4
$T8 = -256						; size = 144
_calData$9 = -112					; size = 96
__$ArrayPad$10 = -16					; size = 4
__$EHRec$ = -12						; size = 12
_pDC$ = 8						; size = 4
_point$ = 12						; size = 4
?ModifyElement@CSelectingTool@@AAE_NPAVCDC@@ABVCPoint@@@Z PROC ; CSelectingTool::ModifyElement, COMDAT
; _this$ = ecx

; 421  : {

  00000	55		 push	 ebp
  00001	8b ec		 mov	 ebp, esp
  00003	6a ff		 push	 -1
  00005	68 00 00 00 00	 push	 __ehhandler$?ModifyElement@CSelectingTool@@AAE_NPAVCDC@@ABVCPoint@@@Z
  0000a	64 a1 00 00 00
	00		 mov	 eax, DWORD PTR fs:0
  00010	50		 push	 eax
  00011	81 ec 80 01 00
	00		 sub	 esp, 384		; 00000180H
  00017	a1 00 00 00 00	 mov	 eax, DWORD PTR ___security_cookie
  0001c	33 c5		 xor	 eax, ebp
  0001e	89 45 f0	 mov	 DWORD PTR __$ArrayPad$10[ebp], eax
  00021	53		 push	 ebx
  00022	56		 push	 esi
  00023	57		 push	 edi
  00024	50		 push	 eax
  00025	8d 45 f4	 lea	 eax, DWORD PTR __$EHRec$[ebp]
  00028	64 a3 00 00 00
	00		 mov	 DWORD PTR fs:0, eax
  0002e	8b d9		 mov	 ebx, ecx
  00030	8b 45 08	 mov	 eax, DWORD PTR _pDC$[ebp]
  00033	8b 75 0c	 mov	 esi, DWORD PTR _point$[ebp]
  00036	89 85 fc fe ff
	ff		 mov	 DWORD PTR _pDC$GSCopy$1$[ebp], eax

; 422  : 	switch(m_TypeModify){

  0003c	8b 43 78	 mov	 eax, DWORD PTR [ebx+120]
  0003f	48		 dec	 eax
  00040	83 f8 05	 cmp	 eax, 5
  00043	0f 87 2a 01 00
	00		 ja	 $LN2@ModifyElem
  00049	0f b6 80 00 00
	00 00		 movzx	 eax, BYTE PTR $LN48@ModifyElem[eax]
  00050	ff 24 85 00 00
	00 00		 jmp	 DWORD PTR $LN49@ModifyElem[eax*4]
$LN4@ModifyElem:

; 439  : 	if(!PointInDrawingRegion(point))

  00057	8b 03		 mov	 eax, DWORD PTR [ebx]
  00059	56		 push	 esi
  0005a	8b 40 1c	 mov	 eax, DWORD PTR [eax+28]
  0005d	ff d0		 call	 eax
  0005f	84 c0		 test	 al, al
  00061	0f 84 0c 01 00
	00		 je	 $LN2@ModifyElem

; 440  : 		return false;
; 441  :     
; 442  : 	CPoints points = CTool::GetPoints(point);

  00067	56		 push	 esi
  00068	8d 85 bc fe ff
	ff		 lea	 eax, DWORD PTR _points$4[ebp]
  0006e	8b cb		 mov	 ecx, ebx
  00070	50		 push	 eax
  00071	e8 00 00 00 00	 call	 ?GetPoints@CTool@@IBE?AVCPoints@@ABVCPoint@@@Z ; CTool::GetPoints

; 451  : 	SavePoints(points);

  00076	8b 03		 mov	 eax, DWORD PTR [ebx]
  00078	8d 8d bc fe ff
	ff		 lea	 ecx, DWORD PTR _points$4[ebp]
  0007e	51		 push	 ecx
  0007f	8b cb		 mov	 ecx, ebx

; 442  : 	CPoints points = CTool::GetPoints(point);

  00081	c7 45 fc 00 00
	00 00		 mov	 DWORD PTR __$EHRec$[ebp+8], 0

; 451  : 	SavePoints(points);

  00088	ff 50 20	 call	 DWORD PTR [eax+32]

; 318  : 	CCoordinateCalculatorData calData = CTool::GetCoordinateCalculatorData(points.GetDrawingPoint());

  0008b	8d 85 f4 fe ff
	ff		 lea	 eax, DWORD PTR $T7[ebp]
  00091	50		 push	 eax
  00092	8d 8b 88 00 00
	00		 lea	 ecx, DWORD PTR [ebx+136]
  00098	e8 00 00 00 00	 call	 ?GetDrawingPoint@CPoints@@QBE?AVCPoint@@XZ ; CPoints::GetDrawingPoint
  0009d	50		 push	 eax
  0009e	8d 45 90	 lea	 eax, DWORD PTR _calData$9[ebp]
  000a1	8b cb		 mov	 ecx, ebx
  000a3	50		 push	 eax
  000a4	e8 00 00 00 00	 call	 ?GetCoordinateCalculatorData@CTool@@QBE?AVCCoordinateCalculatorData@@ABVCPoint@@@Z ; CTool::GetCoordinateCalculatorData

; 319  : 	return CSelectedElementDrawingData(m_TypeModify,&CTool::GetDrawingRegions(), calData, 

  000a9	8d 85 9c fe ff
	ff		 lea	 eax, DWORD PTR $T3[ebp]
  000af	c6 45 fc 01	 mov	 BYTE PTR __$EHRec$[ebp+8], 1
  000b3	50		 push	 eax
  000b4	8d 8b 88 00 00
	00		 lea	 ecx, DWORD PTR [ebx+136]
  000ba	e8 00 00 00 00	 call	 ?GetSavingPoint@CPoints@@QBE?AVCCoordinate@@XZ ; CPoints::GetSavingPoint
  000bf	8b f0		 mov	 esi, eax
  000c1	8d 85 ec fe ff
	ff		 lea	 eax, DWORD PTR $T6[ebp]
  000c7	c6 45 fc 02	 mov	 BYTE PTR __$EHRec$[ebp+8], 2
  000cb	50		 push	 eax
  000cc	8d 8b 88 00 00
	00		 lea	 ecx, DWORD PTR [ebx+136]
  000d2	e8 00 00 00 00	 call	 ?GetDrawingPoint@CPoints@@QBE?AVCPoint@@XZ ; CPoints::GetDrawingPoint
  000d7	50		 push	 eax
  000d8	8d 45 90	 lea	 eax, DWORD PTR _calData$9[ebp]
  000db	8b cb		 mov	 ecx, ebx
  000dd	50		 push	 eax
  000de	8d 85 e4 fe ff
	ff		 lea	 eax, DWORD PTR $T5[ebp]
  000e4	50		 push	 eax
  000e5	e8 00 00 00 00	 call	 ?GetSelectedElementDrawPoint@CSelectingTool@@ABE?AVCPoint@@ABVCCoordinateCalculatorData@@ABV2@@Z ; CSelectingTool::GetSelectedElementDrawPoint
  000ea	50		 push	 eax
  000eb	56		 push	 esi
  000ec	8d 8d 74 fe ff
	ff		 lea	 ecx, DWORD PTR $T2[ebp]
  000f2	e8 00 00 00 00	 call	 ??0CPoints@@QAE@ABVCCoordinate@@ABVCPoint@@@Z ; CPoints::CPoints
  000f7	50		 push	 eax
  000f8	8d 45 90	 lea	 eax, DWORD PTR _calData$9[ebp]
  000fb	c6 45 fc 03	 mov	 BYTE PTR __$EHRec$[ebp+8], 3
  000ff	50		 push	 eax
  00100	8b cb		 mov	 ecx, ebx
  00102	e8 00 00 00 00	 call	 ?GetDrawingRegions@CTool@@IAEAAVCDrawingRegions@@XZ ; CTool::GetDrawingRegions
  00107	50		 push	 eax
  00108	ff 73 78	 push	 DWORD PTR [ebx+120]
  0010b	8d 8d 00 ff ff
	ff		 lea	 ecx, DWORD PTR $T8[ebp]
  00111	e8 00 00 00 00	 call	 ??0CSelectedElementDrawingData@@QAE@W4ModifyType@CToolEnumData@@PAVCDrawingRegions@@ABVCCoordinateCalculatorData@@ABVCPoints@@@Z ; CSelectedElementDrawingData::CSelectedElementDrawingData
  00116	8d 8d 88 fe ff
	ff		 lea	 ecx, DWORD PTR $T2[ebp+20]
  0011c	ff 15 00 00 00
	00		 call	 DWORD PTR __imp_??1?$CStringT@DV?$StrTraitMFC_DLL@DV?$ChTraitsCRT@D@ATL@@@@@ATL@@QAE@XZ
  00122	8d 8d b0 fe ff
	ff		 lea	 ecx, DWORD PTR $T3[ebp+20]
  00128	ff 15 00 00 00
	00		 call	 DWORD PTR __imp_??1?$CStringT@DV?$StrTraitMFC_DLL@DV?$ChTraitsCRT@D@ATL@@@@@ATL@@QAE@XZ
  0012e	8d 4d 90	 lea	 ecx, DWORD PTR _calData$9[ebp]
  00131	e8 00 00 00 00	 call	 ??1CCoordinateCalculatorData@@QAE@XZ ; CCoordinateCalculatorData::~CCoordinateCalculatorData

; 462  : 	m_pSelectedElement->DrawSelected(pDC, GetSelectedElementDrawData(m_oldSelectedPt));

  00136	8b 4b 7c	 mov	 ecx, DWORD PTR [ebx+124]
  00139	8d 95 00 ff ff
	ff		 lea	 edx, DWORD PTR $T8[ebp]
  0013f	52		 push	 edx
  00140	ff b5 fc fe ff
	ff		 push	 DWORD PTR _pDC$GSCopy$1$[ebp]
  00146	c6 45 fc 04	 mov	 BYTE PTR __$EHRec$[ebp+8], 4
  0014a	8b 01		 mov	 eax, DWORD PTR [ecx]
  0014c	ff 50 30	 call	 DWORD PTR [eax+48]
  0014f	8d 4d 84	 lea	 ecx, DWORD PTR $T8[ebp+132]
  00152	ff 15 00 00 00
	00		 call	 DWORD PTR __imp_??1?$CStringT@DV?$StrTraitMFC_DLL@DV?$ChTraitsCRT@D@ATL@@@@@ATL@@QAE@XZ
  00158	8d 8d 08 ff ff
	ff		 lea	 ecx, DWORD PTR $T8[ebp+8]
  0015e	e8 00 00 00 00	 call	 ??1CCoordinateCalculatorData@@QAE@XZ ; CCoordinateCalculatorData::~CCoordinateCalculatorData
  00163	8d 8d d0 fe ff
	ff		 lea	 ecx, DWORD PTR _points$4[ebp+20]
  00169	ff 15 00 00 00
	00		 call	 DWORD PTR __imp_??1?$CStringT@DV?$StrTraitMFC_DLL@DV?$ChTraitsCRT@D@ATL@@@@@ATL@@QAE@XZ

; 444  : 	return true;

  0016f	b0 01		 mov	 al, 1

; 423  : 	case CToolEnumData::MODIFY_CENTER:
; 424  : 	case CToolEnumData::MODIFY_START:
; 425  : 	case CToolEnumData::MODIFY_MIDDLE:
; 426  : 	case CToolEnumData::MODIFY_END:
; 427  : 	case CToolEnumData::MODIFY_X:
; 428  : 	case CToolEnumData::MODIFY_Y:
; 429  : 		return Modify_InDrawingRegion(pDC, point);

  00171	eb 02		 jmp	 SHORT $LN1@ModifyElem
$LN2@ModifyElem:

; 430  : 	}
; 431  : 
; 432  : 	assert(false);
; 433  : 	return false;
; 434  : }

  00173	32 c0		 xor	 al, al
$LN1@ModifyElem:
  00175	8b 4d f4	 mov	 ecx, DWORD PTR __$EHRec$[ebp]
  00178	64 89 0d 00 00
	00 00		 mov	 DWORD PTR fs:0, ecx
  0017f	59		 pop	 ecx
  00180	5f		 pop	 edi
  00181	5e		 pop	 esi
  00182	5b		 pop	 ebx
  00183	8b 4d f0	 mov	 ecx, DWORD PTR __$ArrayPad$10[ebp]
  00186	33 cd		 xor	 ecx, ebp
  00188	e8 00 00 00 00	 call	 @__security_check_cookie@4
  0018d	8b e5		 mov	 esp, ebp
  0018f	5d		 pop	 ebp
  00190	c2 08 00	 ret	 8
  00193	90		 npad	 1
$LN49@ModifyElem:
  00194	00 00 00 00	 DD	 $LN4@ModifyElem
$LN48@ModifyElem:
  00198	00		 DB	 0
  00199	00		 DB	 0
  0019a	00		 DB	 0
  0019b	00		 DB	 0
  0019c	00		 DB	 0
  0019d	00		 DB	 0
_TEXT	ENDS
;	COMDAT text$x
text$x	SEGMENT
__unwindfunclet$?ModifyElement@CSelectingTool@@AAE_NPAVCDC@@ABVCPoint@@@Z$0:
  00000	8d 8d bc fe ff
	ff		 lea	 ecx, DWORD PTR _points$4[ebp]
  00006	e9 00 00 00 00	 jmp	 ??1CPoints@@QAE@XZ
__unwindfunclet$?ModifyElement@CSelectingTool@@AAE_NPAVCDC@@ABVCPoint@@@Z$2:
  0000b	8d 4d 90	 lea	 ecx, DWORD PTR _calData$9[ebp]
  0000e	e9 00 00 00 00	 jmp	 ??1CCoordinateCalculatorData@@QAE@XZ ; CCoordinateCalculatorData::~CCoordinateCalculatorData
__unwindfunclet$?ModifyElement@CSelectingTool@@AAE_NPAVCDC@@ABVCPoint@@@Z$3:
  00013	8d 8d 9c fe ff
	ff		 lea	 ecx, DWORD PTR $T3[ebp]
  00019	e9 00 00 00 00	 jmp	 ??1CCoordinate@@QAE@XZ
__unwindfunclet$?ModifyElement@CSelectingTool@@AAE_NPAVCDC@@ABVCPoint@@@Z$4:
  0001e	8d 8d 74 fe ff
	ff		 lea	 ecx, DWORD PTR $T2[ebp]
  00024	e9 00 00 00 00	 jmp	 ??1CPoints@@QAE@XZ
__unwindfunclet$?ModifyElement@CSelectingTool@@AAE_NPAVCDC@@ABVCPoint@@@Z$1:
  00029	8d 8d 00 ff ff
	ff		 lea	 ecx, DWORD PTR $T8[ebp]
  0002f	e9 00 00 00 00	 jmp	 ??1CSelectedElementDrawingData@@QAE@XZ
  00034	cc		 int	 3
  00035	cc		 int	 3
  00036	cc		 int	 3
  00037	cc		 int	 3
  00038	cc		 int	 3
__ehhandler$?ModifyElement@CSelectingTool@@AAE_NPAVCDC@@ABVCPoint@@@Z:
  00039	90		 npad	 1
  0003a	90		 npad	 1
  0003b	8b 54 24 08	 mov	 edx, DWORD PTR [esp+8]
  0003f	8d 42 0c	 lea	 eax, DWORD PTR [edx+12]
  00042	8b 8a 70 fe ff
	ff		 mov	 ecx, DWORD PTR [edx-400]
  00048	33 c8		 xor	 ecx, eax
  0004a	e8 00 00 00 00	 call	 @__security_check_cookie@4
  0004f	8b 4a fc	 mov	 ecx, DWORD PTR [edx-4]
  00052	33 c8		 xor	 ecx, eax
  00054	e8 00 00 00 00	 call	 @__security_check_cookie@4
  00059	b8 00 00 00 00	 mov	 eax, OFFSET __ehfuncinfo$?ModifyElement@CSelectingTool@@AAE_NPAVCDC@@ABVCPoint@@@Z
  0005e	e9 00 00 00 00	 jmp	 ___CxxFrameHandler3
text$x	ENDS
?ModifyElement@CSelectingTool@@AAE_NPAVCDC@@ABVCPoint@@@Z ENDP ; CSelectingTool::ModifyElement
; Function compile flags: /Ogtp
; File D:\git\src\IBK\IBK_DRFN\ProjSrc\SrcChartEx\ChartAddIn\ChartAnalysisToolAddIn\AnalysisTool\Selecting.cpp
;	COMDAT ?FindElement@CSelectingTool@@AAEPAVCElement@@ABVCPoint@@AAW4ModifyType@CToolEnumData@@@Z
_TEXT	SEGMENT
_modifyType$GSCopy$1$ = -132				; size = 4
$T2 = -128						; size = 112
__$ArrayPad$ = -16					; size = 4
__$EHRec$ = -12						; size = 12
_point$ = 8						; size = 4
_modifyType$ = 12					; size = 4
?FindElement@CSelectingTool@@AAEPAVCElement@@ABVCPoint@@AAW4ModifyType@CToolEnumData@@@Z PROC ; CSelectingTool::FindElement, COMDAT
; _this$ = ecx

; 401  : {

  00000	55		 push	 ebp
  00001	8b ec		 mov	 ebp, esp
  00003	6a ff		 push	 -1
  00005	68 00 00 00 00	 push	 __ehhandler$?FindElement@CSelectingTool@@AAEPAVCElement@@ABVCPoint@@AAW4ModifyType@CToolEnumData@@@Z
  0000a	64 a1 00 00 00
	00		 mov	 eax, DWORD PTR fs:0
  00010	50		 push	 eax
  00011	83 ec 78	 sub	 esp, 120		; 00000078H
  00014	a1 00 00 00 00	 mov	 eax, DWORD PTR ___security_cookie
  00019	33 c5		 xor	 eax, ebp
  0001b	89 45 f0	 mov	 DWORD PTR __$ArrayPad$[ebp], eax
  0001e	53		 push	 ebx
  0001f	56		 push	 esi
  00020	57		 push	 edi
  00021	50		 push	 eax
  00022	8d 45 f4	 lea	 eax, DWORD PTR __$EHRec$[ebp]
  00025	64 a3 00 00 00
	00		 mov	 DWORD PTR fs:0, eax
  0002b	8b f1		 mov	 esi, ecx
  0002d	8b 45 0c	 mov	 eax, DWORD PTR _modifyType$[ebp]
  00030	8b 7d 08	 mov	 edi, DWORD PTR _point$[ebp]
  00033	89 85 7c ff ff
	ff		 mov	 DWORD PTR _modifyType$GSCopy$1$[ebp], eax

; 381  : 	return (CTool::GetAnalysisData() != NULL && CTool::GetDrawingRegions().GetCount() > 0);

  00039	e8 00 00 00 00	 call	 ?GetAnalysisData@CTool@@MBEPAVCAnalysisData@@XZ ; CTool::GetAnalysisData
  0003e	85 c0		 test	 eax, eax
  00040	0f 84 8a 00 00
	00		 je	 $LN15@FindElemen
  00046	8b ce		 mov	 ecx, esi
  00048	e8 00 00 00 00	 call	 ?GetDrawingRegions@CTool@@IAEAAVCDrawingRegions@@XZ ; CTool::GetDrawingRegions
  0004d	8b c8		 mov	 ecx, eax
  0004f	e8 00 00 00 00	 call	 ?GetCount@CDrawingRegions@@QBEHXZ ; CDrawingRegions::GetCount
  00054	85 c0		 test	 eax, eax
  00056	7e 78		 jle	 SHORT $LN15@FindElemen

; 402  : 	if(!IsFindElement())
; 403  : 		return NULL;
; 404  : 
; 405  : 	IChartManager *pIChartManager = CTool::GetAnalysisData()->GetMainBlock();

  00058	8b ce		 mov	 ecx, esi
  0005a	e8 00 00 00 00	 call	 ?GetAnalysisData@CTool@@MBEPAVCAnalysisData@@XZ ; CTool::GetAnalysisData
  0005f	8b c8		 mov	 ecx, eax
  00061	e8 00 00 00 00	 call	 ?GetMainBlock@CAnalysisData@@QBEPAUIChartManager133101@@XZ ; CAnalysisData::GetMainBlock
  00066	8b d8		 mov	 ebx, eax

; 406  : 	if( !pIChartManager) 

  00068	85 db		 test	 ebx, ebx
  0006a	74 64		 je	 SHORT $LN15@FindElemen

; 408  : 	CElement* pElement = CTool::GetAnalysisData()->GetElementTree().FindElement( pIChartManager,

  0006c	53		 push	 ebx
  0006d	57		 push	 edi
  0006e	8b ce		 mov	 ecx, esi
  00070	e8 00 00 00 00	 call	 ?GetDrawingRegions@CTool@@IAEAAVCDrawingRegions@@XZ ; CTool::GetDrawingRegions
  00075	50		 push	 eax
  00076	8d 4d 80	 lea	 ecx, DWORD PTR $T2[ebp]
  00079	e8 00 00 00 00	 call	 ??0CExtractingDataOfModifyType@@QAE@PAVCDrawingRegions@@ABVCPoint@@PAUIChartManager133101@@@Z ; CExtractingDataOfModifyType::CExtractingDataOfModifyType
  0007e	ff b5 7c ff ff
	ff		 push	 DWORD PTR _modifyType$GSCopy$1$[ebp]
  00084	8b ce		 mov	 ecx, esi
  00086	c7 45 fc 00 00
	00 00		 mov	 DWORD PTR __$EHRec$[ebp+8], 0
  0008d	50		 push	 eax
  0008e	53		 push	 ebx
  0008f	e8 00 00 00 00	 call	 ?GetAnalysisData@CTool@@MBEPAVCAnalysisData@@XZ ; CTool::GetAnalysisData
  00094	8b c8		 mov	 ecx, eax
  00096	e8 00 00 00 00	 call	 ?GetElementTree@CAnalysisData@@QAEAAVCElementTree@@XZ ; CAnalysisData::GetElementTree
  0009b	8b c8		 mov	 ecx, eax
  0009d	e8 00 00 00 00	 call	 ?FindElement@CElementTree@@QAEPAVCElement@@PAUIChartManager133101@@PAVCExtractingDataOfModifyType@@AAW4ModifyType@CToolEnumData@@@Z ; CElementTree::FindElement
  000a2	8d 4d 90	 lea	 ecx, DWORD PTR $T2[ebp+16]
  000a5	c7 45 fc ff ff
	ff ff		 mov	 DWORD PTR __$EHRec$[ebp+8], -1
  000ac	8b f8		 mov	 edi, eax
  000ae	e8 00 00 00 00	 call	 ??1CCoordinateCalculatorData@@QAE@XZ ; CCoordinateCalculatorData::~CCoordinateCalculatorData

; 409  : 		&CExtractingDataOfModifyType( &CTool::GetDrawingRegions(), point, pIChartManager), modifyType);
; 410  : 	pIChartManager->Release();

  000b3	8b 13		 mov	 edx, DWORD PTR [ebx]
  000b5	53		 push	 ebx
  000b6	ff 52 08	 call	 DWORD PTR [edx+8]

; 411  : 	pIChartManager = NULL;
; 412  : 
; 413  : 	if(pElement != NULL)

  000b9	85 ff		 test	 edi, edi
  000bb	74 0f		 je	 SHORT $LN4@FindElemen

; 414  : 		CTool::SetCoordinateType(pElement->GetCoordinateType());

  000bd	8b cf		 mov	 ecx, edi
  000bf	e8 00 00 00 00	 call	 ?GetCoordinateType@CElement@@QBE?AW4COORDINATETYPE@CAnalysis@@XZ ; CElement::GetCoordinateType
  000c4	50		 push	 eax
  000c5	8b ce		 mov	 ecx, esi
  000c7	e8 00 00 00 00	 call	 ?SetCoordinateType@CTool@@QAEXW4COORDINATETYPE@CAnalysis@@@Z ; CTool::SetCoordinateType
$LN4@FindElemen:

; 415  : 
; 416  : 	return pElement;

  000cc	8b c7		 mov	 eax, edi
  000ce	eb 02		 jmp	 SHORT $LN1@FindElemen
$LN15@FindElemen:

; 407  : 		return NULL;

  000d0	33 c0		 xor	 eax, eax
$LN1@FindElemen:

; 417  : }

  000d2	8b 4d f4	 mov	 ecx, DWORD PTR __$EHRec$[ebp]
  000d5	64 89 0d 00 00
	00 00		 mov	 DWORD PTR fs:0, ecx
  000dc	59		 pop	 ecx
  000dd	5f		 pop	 edi
  000de	5e		 pop	 esi
  000df	5b		 pop	 ebx
  000e0	8b 4d f0	 mov	 ecx, DWORD PTR __$ArrayPad$[ebp]
  000e3	33 cd		 xor	 ecx, ebp
  000e5	e8 00 00 00 00	 call	 @__security_check_cookie@4
  000ea	8b e5		 mov	 esp, ebp
  000ec	5d		 pop	 ebp
  000ed	c2 08 00	 ret	 8
_TEXT	ENDS
;	COMDAT text$x
text$x	SEGMENT
__unwindfunclet$?FindElement@CSelectingTool@@AAEPAVCElement@@ABVCPoint@@AAW4ModifyType@CToolEnumData@@@Z$0:
  00000	8d 4d 80	 lea	 ecx, DWORD PTR $T2[ebp]
  00003	e9 00 00 00 00	 jmp	 ??1CExtractingDataOfModifyType@@QAE@XZ
  00008	cc		 int	 3
  00009	cc		 int	 3
  0000a	cc		 int	 3
  0000b	cc		 int	 3
  0000c	cc		 int	 3
__ehhandler$?FindElement@CSelectingTool@@AAEPAVCElement@@ABVCPoint@@AAW4ModifyType@CToolEnumData@@@Z:
  0000d	90		 npad	 1
  0000e	90		 npad	 1
  0000f	8b 54 24 08	 mov	 edx, DWORD PTR [esp+8]
  00013	8d 42 0c	 lea	 eax, DWORD PTR [edx+12]
  00016	8b 8a 78 ff ff
	ff		 mov	 ecx, DWORD PTR [edx-136]
  0001c	33 c8		 xor	 ecx, eax
  0001e	e8 00 00 00 00	 call	 @__security_check_cookie@4
  00023	8b 4a fc	 mov	 ecx, DWORD PTR [edx-4]
  00026	33 c8		 xor	 ecx, eax
  00028	e8 00 00 00 00	 call	 @__security_check_cookie@4
  0002d	b8 00 00 00 00	 mov	 eax, OFFSET __ehfuncinfo$?FindElement@CSelectingTool@@AAEPAVCElement@@ABVCPoint@@AAW4ModifyType@CToolEnumData@@@Z
  00032	e9 00 00 00 00	 jmp	 ___CxxFrameHandler3
text$x	ENDS
?FindElement@CSelectingTool@@AAEPAVCElement@@ABVCPoint@@AAW4ModifyType@CToolEnumData@@@Z ENDP ; CSelectingTool::FindElement
; Function compile flags: /Ogtp
; File D:\git\src\IBK\IBK_DRFN\ProjSrc\SrcChartEx\ChartAddIn\ChartAnalysisToolAddIn\AnalysisTool\Selecting.cpp
;	COMDAT ?FindElement@CSelectingTool@@AAE_NABVCPoint@@@Z
_TEXT	SEGMENT
_modifyType$ = -4					; size = 4
_point$ = 8						; size = 4
?FindElement@CSelectingTool@@AAE_NABVCPoint@@@Z PROC	; CSelectingTool::FindElement, COMDAT
; _this$ = ecx

; 386  : {

  00000	55		 push	 ebp
  00001	8b ec		 mov	 ebp, esp
  00003	51		 push	 ecx
  00004	57		 push	 edi
  00005	8b f9		 mov	 edi, ecx

; 387  : 	if(!CTool::DoesElements())

  00007	e8 00 00 00 00	 call	 ?DoesElements@CTool@@QBE_NXZ ; CTool::DoesElements
  0000c	84 c0		 test	 al, al
  0000e	74 3b		 je	 SHORT $LN7@FindElemen

; 388  : 		return false;
; 389  : 
; 390  : 	CTool::SetDrawingRegions(point);

  00010	ff 75 08	 push	 DWORD PTR _point$[ebp]
  00013	8b cf		 mov	 ecx, edi
  00015	e8 00 00 00 00	 call	 ?SetDrawingRegions@CTool@@IAEXABVCPoint@@@Z ; CTool::SetDrawingRegions

; 391  : 	CToolEnumData::ModifyType modifyType = CToolEnumData::MODIFY_NONE;
; 392  : 	CElement* pElement = FindElement(point, modifyType);

  0001a	8d 45 fc	 lea	 eax, DWORD PTR _modifyType$[ebp]
  0001d	c7 45 fc 00 00
	00 00		 mov	 DWORD PTR _modifyType$[ebp], 0
  00024	50		 push	 eax
  00025	ff 75 08	 push	 DWORD PTR _point$[ebp]
  00028	8b cf		 mov	 ecx, edi
  0002a	e8 00 00 00 00	 call	 ?FindElement@CSelectingTool@@AAEPAVCElement@@ABVCPoint@@AAW4ModifyType@CToolEnumData@@@Z ; CSelectingTool::FindElement

; 264  : 	return (pElement != NULL && modifyType != CToolEnumData::MODIFY_NONE);

  0002f	85 c0		 test	 eax, eax
  00031	74 18		 je	 SHORT $LN7@FindElemen
  00033	8b 45 fc	 mov	 eax, DWORD PTR _modifyType$[ebp]
  00036	85 c0		 test	 eax, eax
  00038	74 11		 je	 SHORT $LN7@FindElemen

; 395  : 
; 396  : 	CTool::ChangeCursor(modifyType);

  0003a	50		 push	 eax
  0003b	8b cf		 mov	 ecx, edi
  0003d	e8 00 00 00 00	 call	 ?ChangeCursor@CTool@@IAEXW4ModifyType@CToolEnumData@@@Z ; CTool::ChangeCursor

; 397  : 	return true;

  00042	b0 01		 mov	 al, 1
  00044	5f		 pop	 edi

; 398  : }

  00045	8b e5		 mov	 esp, ebp
  00047	5d		 pop	 ebp
  00048	c2 04 00	 ret	 4
$LN7@FindElemen:

; 393  : 	if(!IsFindedModifyElement(pElement, modifyType))
; 394  : 		return false;

  0004b	32 c0		 xor	 al, al
  0004d	5f		 pop	 edi

; 398  : }

  0004e	8b e5		 mov	 esp, ebp
  00050	5d		 pop	 ebp
  00051	c2 04 00	 ret	 4
?FindElement@CSelectingTool@@AAE_NABVCPoint@@@Z ENDP	; CSelectingTool::FindElement
_TEXT	ENDS
; Function compile flags: /Ogtp
; File D:\git\src\IBK\IBK_DRFN\ProjSrc\SrcChartEx\ChartAddIn\ChartAnalysisToolAddIn\AnalysisTool\Selecting.cpp
;	COMDAT ?IsFindElement@CSelectingTool@@AAE_NXZ
_TEXT	SEGMENT
?IsFindElement@CSelectingTool@@AAE_NXZ PROC		; CSelectingTool::IsFindElement, COMDAT
; _this$ = ecx

; 380  : {

  00000	56		 push	 esi
  00001	8b f1		 mov	 esi, ecx

; 381  : 	return (CTool::GetAnalysisData() != NULL && CTool::GetDrawingRegions().GetCount() > 0);

  00003	e8 00 00 00 00	 call	 ?GetAnalysisData@CTool@@MBEPAVCAnalysisData@@XZ ; CTool::GetAnalysisData
  00008	85 c0		 test	 eax, eax
  0000a	74 16		 je	 SHORT $LN3@IsFindElem
  0000c	8b ce		 mov	 ecx, esi
  0000e	e8 00 00 00 00	 call	 ?GetDrawingRegions@CTool@@IAEAAVCDrawingRegions@@XZ ; CTool::GetDrawingRegions
  00013	8b c8		 mov	 ecx, eax
  00015	e8 00 00 00 00	 call	 ?GetCount@CDrawingRegions@@QBEHXZ ; CDrawingRegions::GetCount
  0001a	85 c0		 test	 eax, eax
  0001c	7e 04		 jle	 SHORT $LN3@IsFindElem
  0001e	b0 01		 mov	 al, 1
  00020	5e		 pop	 esi

; 382  : }

  00021	c3		 ret	 0
$LN3@IsFindElem:

; 381  : 	return (CTool::GetAnalysisData() != NULL && CTool::GetDrawingRegions().GetCount() > 0);

  00022	32 c0		 xor	 al, al
  00024	5e		 pop	 esi

; 382  : }

  00025	c3		 ret	 0
?IsFindElement@CSelectingTool@@AAE_NXZ ENDP		; CSelectingTool::IsFindElement
_TEXT	ENDS
; Function compile flags: /Ogtp
; File D:\git\src\IBK\IBK_DRFN\ProjSrc\SrcChartEx\ChartAddIn\ChartAnalysisToolAddIn\AnalysisTool\Selecting.cpp
;	COMDAT ?GetElementModifyData_Pixel@CSelectingTool@@ABEXABVCPoint@@AAVCElementModifyData@@@Z
_TEXT	SEGMENT
$T2 = -96						; size = 32
$T3 = -64						; size = 32
$T4 = -32						; size = 8
$T5 = -24						; size = 8
$T6 = -16						; size = 4
__$EHRec$ = -12						; size = 12
_point$ = 8						; size = 4
_elementModifyData$ = 12				; size = 4
?GetElementModifyData_Pixel@CSelectingTool@@ABEXABVCPoint@@AAVCElementModifyData@@@Z PROC ; CSelectingTool::GetElementModifyData_Pixel, COMDAT
; _this$ = ecx

; 368  : {

  00000	55		 push	 ebp
  00001	8b ec		 mov	 ebp, esp
  00003	6a ff		 push	 -1
  00005	68 00 00 00 00	 push	 __ehhandler$?GetElementModifyData_Pixel@CSelectingTool@@ABEXABVCPoint@@AAVCElementModifyData@@@Z
  0000a	64 a1 00 00 00
	00		 mov	 eax, DWORD PTR fs:0
  00010	50		 push	 eax
  00011	83 ec 54	 sub	 esp, 84			; 00000054H
  00014	56		 push	 esi
  00015	a1 00 00 00 00	 mov	 eax, DWORD PTR ___security_cookie
  0001a	33 c5		 xor	 eax, ebp
  0001c	50		 push	 eax
  0001d	8d 45 f4	 lea	 eax, DWORD PTR __$EHRec$[ebp]
  00020	64 a3 00 00 00
	00		 mov	 DWORD PTR fs:0, eax
  00026	8b f1		 mov	 esi, ecx

; 369  : 	if(m_TypeModify == CToolEnumData::MODIFY_CENTER)

  00028	83 7e 78 01	 cmp	 DWORD PTR [esi+120], 1
  0002c	75 76		 jne	 SHORT $LN2@GetElement

; 370  : 		//    - ojtaso (20080811)
; 371  : 		// 20081007 JS.Kim	 
; 372  : 		elementModifyData.SetPoint(CCoordinate((double)(point.x - m_lBtDownPoint.x), (double)(point.y - m_lBtDownPoint.y), 0, "", 0));

  0002e	68 00 00 00 00	 push	 OFFSET ??_C@_00CNPNBAHC@@
  00033	8d 4d f0	 lea	 ecx, DWORD PTR $T6[ebp]
  00036	ff 15 00 00 00
	00		 call	 DWORD PTR __imp_??0?$CStringT@DV?$StrTraitMFC_DLL@DV?$ChTraitsCRT@D@ATL@@@@@ATL@@QAE@PBD@Z
  0003c	8b 4d 08	 mov	 ecx, DWORD PTR _point$[ebp]
  0003f	6a 00		 push	 0
  00041	c7 45 fc 00 00
	00 00		 mov	 DWORD PTR __$EHRec$[ebp+8], 0
  00048	8b 41 04	 mov	 eax, DWORD PTR [ecx+4]
  0004b	2b 86 b4 00 00
	00		 sub	 eax, DWORD PTR [esi+180]
  00051	66 0f 6e c0	 movd	 xmm0, eax
  00055	8b 01		 mov	 eax, DWORD PTR [ecx]
  00057	8d 4d c0	 lea	 ecx, DWORD PTR $T3[ebp]
  0005a	2b 86 b0 00 00
	00		 sub	 eax, DWORD PTR [esi+176]
  00060	f3 0f e6 c0	 cvtdq2pd xmm0, xmm0
  00064	f2 0f 11 45 e8	 movsd	 QWORD PTR $T5[ebp], xmm0
  00069	66 0f 6e c0	 movd	 xmm0, eax
  0006d	8d 45 f0	 lea	 eax, DWORD PTR $T6[ebp]
  00070	50		 push	 eax
  00071	f3 0f e6 c0	 cvtdq2pd xmm0, xmm0
  00075	6a 00		 push	 0
  00077	8d 45 e8	 lea	 eax, DWORD PTR $T5[ebp]
  0007a	50		 push	 eax
  0007b	8d 45 e0	 lea	 eax, DWORD PTR $T4[ebp]
  0007e	50		 push	 eax
  0007f	f2 0f 11 45 e0	 movsd	 QWORD PTR $T4[ebp], xmm0
  00084	e8 00 00 00 00	 call	 ??0CCoordinate@@QAE@ABN0HABV?$CStringT@DV?$StrTraitMFC_DLL@DV?$ChTraitsCRT@D@ATL@@@@@ATL@@H@Z ; CCoordinate::CCoordinate
  00089	8b 4d 0c	 mov	 ecx, DWORD PTR _elementModifyData$[ebp]
  0008c	50		 push	 eax
  0008d	c6 45 fc 01	 mov	 BYTE PTR __$EHRec$[ebp+8], 1
  00091	e8 00 00 00 00	 call	 ?SetPoint@CElementModifyData@@QAEXABVCCoordinate@@@Z ; CElementModifyData::SetPoint
  00096	8d 4d d4	 lea	 ecx, DWORD PTR $T3[ebp+20]
  00099	ff 15 00 00 00
	00		 call	 DWORD PTR __imp_??1?$CStringT@DV?$StrTraitMFC_DLL@DV?$ChTraitsCRT@D@ATL@@@@@ATL@@QAE@XZ
  0009f	8d 4d f0	 lea	 ecx, DWORD PTR $T6[ebp]
  000a2	eb 1f		 jmp	 SHORT $LN15@GetElement
$LN2@GetElement:

; 373  : 	else
; 374  : 		elementModifyData.SetPoint(GetSavingPoint(point));

  000a4	ff 75 08	 push	 DWORD PTR _point$[ebp]
  000a7	8d 45 a0	 lea	 eax, DWORD PTR $T2[ebp]
  000aa	50		 push	 eax
  000ab	e8 00 00 00 00	 call	 ?GetSavingPoint@CSelectingTool@@ABE?AVCCoordinate@@ABVCPoint@@@Z ; CSelectingTool::GetSavingPoint
  000b0	8b 4d 0c	 mov	 ecx, DWORD PTR _elementModifyData$[ebp]
  000b3	50		 push	 eax
  000b4	c7 45 fc 02 00
	00 00		 mov	 DWORD PTR __$EHRec$[ebp+8], 2
  000bb	e8 00 00 00 00	 call	 ?SetPoint@CElementModifyData@@QAEXABVCCoordinate@@@Z ; CElementModifyData::SetPoint
  000c0	8d 4d b4	 lea	 ecx, DWORD PTR $T2[ebp+20]
$LN15@GetElement:

; 375  : }

  000c3	ff 15 00 00 00
	00		 call	 DWORD PTR __imp_??1?$CStringT@DV?$StrTraitMFC_DLL@DV?$ChTraitsCRT@D@ATL@@@@@ATL@@QAE@XZ
  000c9	8b 4d f4	 mov	 ecx, DWORD PTR __$EHRec$[ebp]
  000cc	64 89 0d 00 00
	00 00		 mov	 DWORD PTR fs:0, ecx
  000d3	59		 pop	 ecx
  000d4	5e		 pop	 esi
  000d5	8b e5		 mov	 esp, ebp
  000d7	5d		 pop	 ebp
  000d8	c2 08 00	 ret	 8
_TEXT	ENDS
;	COMDAT text$x
text$x	SEGMENT
__unwindfunclet$?GetElementModifyData_Pixel@CSelectingTool@@ABEXABVCPoint@@AAVCElementModifyData@@@Z$0:
  00000	8d 4d f0	 lea	 ecx, DWORD PTR $T6[ebp]
  00003	ff 25 00 00 00
	00		 jmp	 DWORD PTR __imp_??1?$CStringT@DV?$StrTraitMFC_DLL@DV?$ChTraitsCRT@D@ATL@@@@@ATL@@QAE@XZ
__unwindfunclet$?GetElementModifyData_Pixel@CSelectingTool@@ABEXABVCPoint@@AAVCElementModifyData@@@Z$1:
  00009	8d 4d c0	 lea	 ecx, DWORD PTR $T3[ebp]
  0000c	e9 00 00 00 00	 jmp	 ??1CCoordinate@@QAE@XZ
__unwindfunclet$?GetElementModifyData_Pixel@CSelectingTool@@ABEXABVCPoint@@AAVCElementModifyData@@@Z$2:
  00011	8d 4d a0	 lea	 ecx, DWORD PTR $T2[ebp]
  00014	e9 00 00 00 00	 jmp	 ??1CCoordinate@@QAE@XZ
  00019	cc		 int	 3
  0001a	cc		 int	 3
  0001b	cc		 int	 3
  0001c	cc		 int	 3
  0001d	cc		 int	 3
__ehhandler$?GetElementModifyData_Pixel@CSelectingTool@@ABEXABVCPoint@@AAVCElementModifyData@@@Z:
  0001e	90		 npad	 1
  0001f	90		 npad	 1
  00020	8b 54 24 08	 mov	 edx, DWORD PTR [esp+8]
  00024	8d 42 0c	 lea	 eax, DWORD PTR [edx+12]
  00027	8b 4a a4	 mov	 ecx, DWORD PTR [edx-92]
  0002a	33 c8		 xor	 ecx, eax
  0002c	e8 00 00 00 00	 call	 @__security_check_cookie@4
  00031	b8 00 00 00 00	 mov	 eax, OFFSET __ehfuncinfo$?GetElementModifyData_Pixel@CSelectingTool@@ABEXABVCPoint@@AAVCElementModifyData@@@Z
  00036	e9 00 00 00 00	 jmp	 ___CxxFrameHandler3
text$x	ENDS
?GetElementModifyData_Pixel@CSelectingTool@@ABEXABVCPoint@@AAVCElementModifyData@@@Z ENDP ; CSelectingTool::GetElementModifyData_Pixel
; Function compile flags: /Ogtp
; File D:\git\src\IBK\IBK_DRFN\ProjSrc\SrcChartEx\ChartAddIn\ChartAnalysisToolAddIn\AnalysisTool\Selecting.cpp
;	COMDAT ?GetElementModifyData_Data@CSelectingTool@@ABEXABVCPoint@@AAVCElementModifyData@@@Z
_TEXT	SEGMENT
$T2 = -148						; size = 32
$T3 = -148						; size = 32
_elementModifyData$GSCopy$1$ = -116			; size = 4
_calData$4 = -112					; size = 96
_calData$5 = -112					; size = 96
__$ArrayPad$ = -16					; size = 4
__$EHRec$ = -12						; size = 12
_point$ = 8						; size = 4
_elementModifyData$ = 12				; size = 4
?GetElementModifyData_Data@CSelectingTool@@ABEXABVCPoint@@AAVCElementModifyData@@@Z PROC ; CSelectingTool::GetElementModifyData_Data, COMDAT
; _this$ = ecx

; 343  : {

  00000	55		 push	 ebp
  00001	8b ec		 mov	 ebp, esp
  00003	6a ff		 push	 -1
  00005	68 00 00 00 00	 push	 __ehhandler$?GetElementModifyData_Data@CSelectingTool@@ABEXABVCPoint@@AAVCElementModifyData@@@Z
  0000a	64 a1 00 00 00
	00		 mov	 eax, DWORD PTR fs:0
  00010	50		 push	 eax
  00011	81 ec 88 00 00
	00		 sub	 esp, 136		; 00000088H
  00017	a1 00 00 00 00	 mov	 eax, DWORD PTR ___security_cookie
  0001c	33 c5		 xor	 eax, ebp
  0001e	89 45 f0	 mov	 DWORD PTR __$ArrayPad$[ebp], eax
  00021	53		 push	 ebx
  00022	56		 push	 esi
  00023	57		 push	 edi
  00024	50		 push	 eax
  00025	8d 45 f4	 lea	 eax, DWORD PTR __$EHRec$[ebp]
  00028	64 a3 00 00 00
	00		 mov	 DWORD PTR fs:0, eax
  0002e	8b f1		 mov	 esi, ecx

; 344  : 	if(m_TypeModify == CToolEnumData::MODIFY_CENTER)

  00030	83 7e 78 01	 cmp	 DWORD PTR [esi+120], 1
  00034	8b 45 0c	 mov	 eax, DWORD PTR _elementModifyData$[ebp]
  00037	8b 5d 08	 mov	 ebx, DWORD PTR _point$[ebp]
  0003a	89 45 8c	 mov	 DWORD PTR _elementModifyData$GSCopy$1$[ebp], eax
  0003d	75 72		 jne	 SHORT $LN2@GetElement

; 345  : 	{
; 346  : 		CCoordinateCalculatorData calData = CTool::GetCoordinateCalculatorData(point);

  0003f	53		 push	 ebx
  00040	8d 45 90	 lea	 eax, DWORD PTR _calData$5[ebp]
  00043	50		 push	 eax
  00044	e8 00 00 00 00	 call	 ?GetCoordinateCalculatorData@CTool@@QBE?AVCCoordinateCalculatorData@@ABVCPoint@@@Z ; CTool::GetCoordinateCalculatorData

; 347  : 		IPacket *pIPacket = calData.GetPacket_X();

  00049	8d 4d 90	 lea	 ecx, DWORD PTR _calData$5[ebp]
  0004c	c7 45 fc 00 00
	00 00		 mov	 DWORD PTR __$EHRec$[ebp+8], 0
  00053	e8 00 00 00 00	 call	 ?GetPacket_X@CCoordinateCalculatorData@@QBEPAUIPacket133101@@XZ ; CCoordinateCalculatorData::GetPacket_X

; 348  : 		elementModifyData.SetPacket_X( pIPacket);

  00058	8b 4d 8c	 mov	 ecx, DWORD PTR _elementModifyData$GSCopy$1$[ebp]
  0005b	8b f8		 mov	 edi, eax
  0005d	57		 push	 edi
  0005e	e8 00 00 00 00	 call	 ?SetPacket_X@CElementModifyData@@QAEXPAUIPacket133101@@@Z ; CElementModifyData::SetPacket_X

; 349  : 		if( pIPacket) pIPacket->Release();

  00063	85 ff		 test	 edi, edi
  00065	74 06		 je	 SHORT $LN4@GetElement
  00067	8b 0f		 mov	 ecx, DWORD PTR [edi]
  00069	57		 push	 edi
  0006a	ff 51 08	 call	 DWORD PTR [ecx+8]
$LN4@GetElement:

; 350  : 		elementModifyData.SetPoint(CTool::GetCoordinateCalculator().GetGap(calData, m_lBtDownPoint, point));

  0006d	53		 push	 ebx
  0006e	8d 86 b0 00 00
	00		 lea	 eax, DWORD PTR [esi+176]
  00074	8b ce		 mov	 ecx, esi
  00076	50		 push	 eax
  00077	8d 45 90	 lea	 eax, DWORD PTR _calData$5[ebp]
  0007a	50		 push	 eax
  0007b	8d 85 6c ff ff
	ff		 lea	 eax, DWORD PTR $T3[ebp]
  00081	50		 push	 eax
  00082	e8 00 00 00 00	 call	 ?GetCoordinateCalculator@CTool@@UBEAAVCCoordinateCalculator@@XZ ; CTool::GetCoordinateCalculator
  00087	8b c8		 mov	 ecx, eax
  00089	e8 00 00 00 00	 call	 ?GetGap@CCoordinateCalculator@@QBE?AVCCoordinate@@ABVCCoordinateCalculatorData@@ABVCPoint@@1@Z ; CCoordinateCalculator::GetGap
  0008e	8b 4d 8c	 mov	 ecx, DWORD PTR _elementModifyData$GSCopy$1$[ebp]
  00091	50		 push	 eax
  00092	c6 45 fc 01	 mov	 BYTE PTR __$EHRec$[ebp+8], 1
  00096	e8 00 00 00 00	 call	 ?SetPoint@CElementModifyData@@QAEXABVCCoordinate@@@Z ; CElementModifyData::SetPoint
  0009b	8d 4d 80	 lea	 ecx, DWORD PTR $T3[ebp+20]
  0009e	ff 15 00 00 00
	00		 call	 DWORD PTR __imp_??1?$CStringT@DV?$StrTraitMFC_DLL@DV?$ChTraitsCRT@D@ATL@@@@@ATL@@QAE@XZ

; 351  : 	}

  000a4	8d 4d 90	 lea	 ecx, DWORD PTR _calData$5[ebp]
  000a7	e8 00 00 00 00	 call	 ??1CCoordinateCalculatorData@@QAE@XZ ; CCoordinateCalculatorData::~CCoordinateCalculatorData
  000ac	e9 8e 00 00 00	 jmp	 $LN17@GetElement
$LN2@GetElement:

; 352  : 	else
; 353  : 	{
; 354  : 		if( m_pSelectedElement->GetElementType() == CAnalysis::EN_ANALYSIS_CANDLE_LINE ||
; 355  : 			m_pSelectedElement->GetElementType() == CAnalysis::EN_ANALYSIS_LINEAR_REGRESSION ||

  000b1	8b 4e 7c	 mov	 ecx, DWORD PTR [esi+124]
  000b4	8b 01		 mov	 eax, DWORD PTR [ecx]
  000b6	ff 50 04	 call	 DWORD PTR [eax+4]
  000b9	83 f8 1e	 cmp	 eax, 30			; 0000001eH
  000bc	74 1a		 je	 SHORT $LN6@GetElement
  000be	8b 4e 7c	 mov	 ecx, DWORD PTR [esi+124]
  000c1	8b 01		 mov	 eax, DWORD PTR [ecx]
  000c3	ff 50 04	 call	 DWORD PTR [eax+4]
  000c6	83 f8 1b	 cmp	 eax, 27			; 0000001bH
  000c9	74 0d		 je	 SHORT $LN6@GetElement
  000cb	8b 4e 7c	 mov	 ecx, DWORD PTR [esi+124]
  000ce	8b 01		 mov	 eax, DWORD PTR [ecx]
  000d0	ff 50 04	 call	 DWORD PTR [eax+4]
  000d3	83 f8 1c	 cmp	 eax, 28			; 0000001cH
  000d6	75 3f		 jne	 SHORT $LN5@GetElement
$LN6@GetElement:

; 356  : 			m_pSelectedElement->GetElementType() == CAnalysis::EN_ANALYSIS_RAFF_REGRESSION)
; 357  : 		{
; 358  : 			CCoordinateCalculatorData calData = CTool::GetCoordinateCalculatorData(point);

  000d8	53		 push	 ebx
  000d9	8d 45 90	 lea	 eax, DWORD PTR _calData$4[ebp]
  000dc	8b ce		 mov	 ecx, esi
  000de	50		 push	 eax
  000df	e8 00 00 00 00	 call	 ?GetCoordinateCalculatorData@CTool@@QBE?AVCCoordinateCalculatorData@@ABVCPoint@@@Z ; CTool::GetCoordinateCalculatorData

; 359  : 			IPacket *pIPacket = calData.GetPacket_X();

  000e4	8d 4d 90	 lea	 ecx, DWORD PTR _calData$4[ebp]
  000e7	c7 45 fc 02 00
	00 00		 mov	 DWORD PTR __$EHRec$[ebp+8], 2
  000ee	e8 00 00 00 00	 call	 ?GetPacket_X@CCoordinateCalculatorData@@QBEPAUIPacket133101@@XZ ; CCoordinateCalculatorData::GetPacket_X

; 360  : 			elementModifyData.SetPacket_X( pIPacket);

  000f3	8b 4d 8c	 mov	 ecx, DWORD PTR _elementModifyData$GSCopy$1$[ebp]
  000f6	8b f8		 mov	 edi, eax
  000f8	57		 push	 edi
  000f9	e8 00 00 00 00	 call	 ?SetPacket_X@CElementModifyData@@QAEXPAUIPacket133101@@@Z ; CElementModifyData::SetPacket_X

; 361  : 			if( pIPacket) pIPacket->Release();

  000fe	85 ff		 test	 edi, edi
  00100	74 06		 je	 SHORT $LN7@GetElement
  00102	8b 0f		 mov	 ecx, DWORD PTR [edi]
  00104	57		 push	 edi
  00105	ff 51 08	 call	 DWORD PTR [ecx+8]
$LN7@GetElement:

; 362  : 		}		

  00108	8d 4d 90	 lea	 ecx, DWORD PTR _calData$4[ebp]
  0010b	c7 45 fc ff ff
	ff ff		 mov	 DWORD PTR __$EHRec$[ebp+8], -1
  00112	e8 00 00 00 00	 call	 ??1CCoordinateCalculatorData@@QAE@XZ ; CCoordinateCalculatorData::~CCoordinateCalculatorData
$LN5@GetElement:

; 363  : 		elementModifyData.SetPoint(GetSavingPoint(point));

  00117	53		 push	 ebx
  00118	8d 85 6c ff ff
	ff		 lea	 eax, DWORD PTR $T2[ebp]
  0011e	8b ce		 mov	 ecx, esi
  00120	50		 push	 eax
  00121	e8 00 00 00 00	 call	 ?GetSavingPoint@CSelectingTool@@ABE?AVCCoordinate@@ABVCPoint@@@Z ; CSelectingTool::GetSavingPoint
  00126	8b 4d 8c	 mov	 ecx, DWORD PTR _elementModifyData$GSCopy$1$[ebp]
  00129	50		 push	 eax
  0012a	c7 45 fc 03 00
	00 00		 mov	 DWORD PTR __$EHRec$[ebp+8], 3
  00131	e8 00 00 00 00	 call	 ?SetPoint@CElementModifyData@@QAEXABVCCoordinate@@@Z ; CElementModifyData::SetPoint
  00136	8d 4d 80	 lea	 ecx, DWORD PTR $T2[ebp+20]
  00139	ff 15 00 00 00
	00		 call	 DWORD PTR __imp_??1?$CStringT@DV?$StrTraitMFC_DLL@DV?$ChTraitsCRT@D@ATL@@@@@ATL@@QAE@XZ
$LN17@GetElement:

; 364  : 	}
; 365  : }

  0013f	8b 4d f4	 mov	 ecx, DWORD PTR __$EHRec$[ebp]
  00142	64 89 0d 00 00
	00 00		 mov	 DWORD PTR fs:0, ecx
  00149	59		 pop	 ecx
  0014a	5f		 pop	 edi
  0014b	5e		 pop	 esi
  0014c	5b		 pop	 ebx
  0014d	8b 4d f0	 mov	 ecx, DWORD PTR __$ArrayPad$[ebp]
  00150	33 cd		 xor	 ecx, ebp
  00152	e8 00 00 00 00	 call	 @__security_check_cookie@4
  00157	8b e5		 mov	 esp, ebp
  00159	5d		 pop	 ebp
  0015a	c2 08 00	 ret	 8
_TEXT	ENDS
;	COMDAT text$x
text$x	SEGMENT
__unwindfunclet$?GetElementModifyData_Data@CSelectingTool@@ABEXABVCPoint@@AAVCElementModifyData@@@Z$0:
  00000	8d 4d 90	 lea	 ecx, DWORD PTR _calData$5[ebp]
  00003	e9 00 00 00 00	 jmp	 ??1CCoordinateCalculatorData@@QAE@XZ ; CCoordinateCalculatorData::~CCoordinateCalculatorData
__unwindfunclet$?GetElementModifyData_Data@CSelectingTool@@ABEXABVCPoint@@AAVCElementModifyData@@@Z$1:
  00008	8d 8d 6c ff ff
	ff		 lea	 ecx, DWORD PTR $T3[ebp]
  0000e	e9 00 00 00 00	 jmp	 ??1CCoordinate@@QAE@XZ
__unwindfunclet$?GetElementModifyData_Data@CSelectingTool@@ABEXABVCPoint@@AAVCElementModifyData@@@Z$2:
  00013	8d 4d 90	 lea	 ecx, DWORD PTR _calData$4[ebp]
  00016	e9 00 00 00 00	 jmp	 ??1CCoordinateCalculatorData@@QAE@XZ ; CCoordinateCalculatorData::~CCoordinateCalculatorData
__unwindfunclet$?GetElementModifyData_Data@CSelectingTool@@ABEXABVCPoint@@AAVCElementModifyData@@@Z$3:
  0001b	8d 8d 6c ff ff
	ff		 lea	 ecx, DWORD PTR $T2[ebp]
  00021	e9 00 00 00 00	 jmp	 ??1CCoordinate@@QAE@XZ
  00026	cc		 int	 3
  00027	cc		 int	 3
  00028	cc		 int	 3
  00029	cc		 int	 3
  0002a	cc		 int	 3
__ehhandler$?GetElementModifyData_Data@CSelectingTool@@ABEXABVCPoint@@AAVCElementModifyData@@@Z:
  0002b	90		 npad	 1
  0002c	90		 npad	 1
  0002d	8b 54 24 08	 mov	 edx, DWORD PTR [esp+8]
  00031	8d 42 0c	 lea	 eax, DWORD PTR [edx+12]
  00034	8b 8a 68 ff ff
	ff		 mov	 ecx, DWORD PTR [edx-152]
  0003a	33 c8		 xor	 ecx, eax
  0003c	e8 00 00 00 00	 call	 @__security_check_cookie@4
  00041	8b 4a fc	 mov	 ecx, DWORD PTR [edx-4]
  00044	33 c8		 xor	 ecx, eax
  00046	e8 00 00 00 00	 call	 @__security_check_cookie@4
  0004b	b8 00 00 00 00	 mov	 eax, OFFSET __ehfuncinfo$?GetElementModifyData_Data@CSelectingTool@@ABEXABVCPoint@@AAVCElementModifyData@@@Z
  00050	e9 00 00 00 00	 jmp	 ___CxxFrameHandler3
text$x	ENDS
?GetElementModifyData_Data@CSelectingTool@@ABEXABVCPoint@@AAVCElementModifyData@@@Z ENDP ; CSelectingTool::GetElementModifyData_Data
; Function compile flags: /Ogtp
; File D:\git\src\IBK\IBK_DRFN\ProjSrc\SrcChartEx\ChartAddIn\ChartAnalysisToolAddIn\AnalysisTool\Selecting.cpp
;	COMDAT ?GetSelectedElementDrawData@CSelectingTool@@AAE?AVCSelectedElementDrawingData@@ABVCPoints@@@Z
_TEXT	SEGMENT
$T2 = -212						; size = 40
$T3 = -172						; size = 32
$T4 = -140						; size = 8
$T5 = -132						; size = 8
$T6 = -124						; size = 8
___$ReturnUdt$GSCopy$ = -120				; size = 4
___$ReturnUdt$GSCopy$1$ = -116				; size = 4
_calData$ = -112					; size = 96
__$ArrayPad$ = -16					; size = 4
__$EHRec$ = -12						; size = 12
___$ReturnUdt$ = 8					; size = 4
_points$ = 12						; size = 4
?GetSelectedElementDrawData@CSelectingTool@@AAE?AVCSelectedElementDrawingData@@ABVCPoints@@@Z PROC ; CSelectingTool::GetSelectedElementDrawData, COMDAT
; _this$ = ecx

; 315  : {

  00000	55		 push	 ebp
  00001	8b ec		 mov	 ebp, esp
  00003	6a ff		 push	 -1
  00005	68 00 00 00 00	 push	 __ehhandler$?GetSelectedElementDrawData@CSelectingTool@@AAE?AVCSelectedElementDrawingData@@ABVCPoints@@@Z
  0000a	64 a1 00 00 00
	00		 mov	 eax, DWORD PTR fs:0
  00010	50		 push	 eax
  00011	81 ec c8 00 00
	00		 sub	 esp, 200		; 000000c8H
  00017	a1 00 00 00 00	 mov	 eax, DWORD PTR ___security_cookie
  0001c	33 c5		 xor	 eax, ebp
  0001e	89 45 f0	 mov	 DWORD PTR __$ArrayPad$[ebp], eax
  00021	53		 push	 ebx
  00022	56		 push	 esi
  00023	57		 push	 edi
  00024	50		 push	 eax
  00025	8d 45 f4	 lea	 eax, DWORD PTR __$EHRec$[ebp]
  00028	64 a3 00 00 00
	00		 mov	 DWORD PTR fs:0, eax
  0002e	8b d9		 mov	 ebx, ecx
  00030	8b 45 08	 mov	 eax, DWORD PTR ___$ReturnUdt$[ebp]
  00033	8b 7d 0c	 mov	 edi, DWORD PTR _points$[ebp]

; 316  : 	assert(m_pSelectedElement != NULL);
; 317  : 
; 318  : 	CCoordinateCalculatorData calData = CTool::GetCoordinateCalculatorData(points.GetDrawingPoint());

  00036	8b cf		 mov	 ecx, edi
  00038	89 45 8c	 mov	 DWORD PTR ___$ReturnUdt$GSCopy$1$[ebp], eax
  0003b	89 45 88	 mov	 DWORD PTR ___$ReturnUdt$GSCopy$[ebp], eax
  0003e	8d 45 84	 lea	 eax, DWORD PTR $T6[ebp]
  00041	50		 push	 eax
  00042	e8 00 00 00 00	 call	 ?GetDrawingPoint@CPoints@@QBE?AVCPoint@@XZ ; CPoints::GetDrawingPoint
  00047	50		 push	 eax
  00048	8d 45 90	 lea	 eax, DWORD PTR _calData$[ebp]
  0004b	8b cb		 mov	 ecx, ebx
  0004d	50		 push	 eax
  0004e	e8 00 00 00 00	 call	 ?GetCoordinateCalculatorData@CTool@@QBE?AVCCoordinateCalculatorData@@ABVCPoint@@@Z ; CTool::GetCoordinateCalculatorData

; 319  : 	return CSelectedElementDrawingData(m_TypeModify,&CTool::GetDrawingRegions(), calData, 

  00053	8d 85 54 ff ff
	ff		 lea	 eax, DWORD PTR $T3[ebp]
  00059	c7 45 fc 00 00
	00 00		 mov	 DWORD PTR __$EHRec$[ebp+8], 0
  00060	50		 push	 eax
  00061	8b cf		 mov	 ecx, edi
  00063	e8 00 00 00 00	 call	 ?GetSavingPoint@CPoints@@QBE?AVCCoordinate@@XZ ; CPoints::GetSavingPoint
  00068	8b f0		 mov	 esi, eax
  0006a	8d 85 7c ff ff
	ff		 lea	 eax, DWORD PTR $T5[ebp]
  00070	c6 45 fc 01	 mov	 BYTE PTR __$EHRec$[ebp+8], 1
  00074	50		 push	 eax
  00075	8b cf		 mov	 ecx, edi
  00077	e8 00 00 00 00	 call	 ?GetDrawingPoint@CPoints@@QBE?AVCPoint@@XZ ; CPoints::GetDrawingPoint
  0007c	50		 push	 eax
  0007d	8d 45 90	 lea	 eax, DWORD PTR _calData$[ebp]
  00080	8b cb		 mov	 ecx, ebx
  00082	50		 push	 eax
  00083	8d 85 74 ff ff
	ff		 lea	 eax, DWORD PTR $T4[ebp]
  00089	50		 push	 eax
  0008a	e8 00 00 00 00	 call	 ?GetSelectedElementDrawPoint@CSelectingTool@@ABE?AVCPoint@@ABVCCoordinateCalculatorData@@ABV2@@Z ; CSelectingTool::GetSelectedElementDrawPoint
  0008f	50		 push	 eax
  00090	56		 push	 esi
  00091	8d 8d 2c ff ff
	ff		 lea	 ecx, DWORD PTR $T2[ebp]
  00097	e8 00 00 00 00	 call	 ??0CPoints@@QAE@ABVCCoordinate@@ABVCPoint@@@Z ; CPoints::CPoints
  0009c	50		 push	 eax
  0009d	8d 45 90	 lea	 eax, DWORD PTR _calData$[ebp]
  000a0	c6 45 fc 02	 mov	 BYTE PTR __$EHRec$[ebp+8], 2
  000a4	50		 push	 eax
  000a5	8b cb		 mov	 ecx, ebx
  000a7	e8 00 00 00 00	 call	 ?GetDrawingRegions@CTool@@IAEAAVCDrawingRegions@@XZ ; CTool::GetDrawingRegions
  000ac	8b 4d 8c	 mov	 ecx, DWORD PTR ___$ReturnUdt$GSCopy$1$[ebp]
  000af	50		 push	 eax
  000b0	ff 73 78	 push	 DWORD PTR [ebx+120]
  000b3	e8 00 00 00 00	 call	 ??0CSelectedElementDrawingData@@QAE@W4ModifyType@CToolEnumData@@PAVCDrawingRegions@@ABVCCoordinateCalculatorData@@ABVCPoints@@@Z ; CSelectedElementDrawingData::CSelectedElementDrawingData
  000b8	8d 8d 40 ff ff
	ff		 lea	 ecx, DWORD PTR $T2[ebp+20]
  000be	ff 15 00 00 00
	00		 call	 DWORD PTR __imp_??1?$CStringT@DV?$StrTraitMFC_DLL@DV?$ChTraitsCRT@D@ATL@@@@@ATL@@QAE@XZ
  000c4	8d 8d 68 ff ff
	ff		 lea	 ecx, DWORD PTR $T3[ebp+20]
  000ca	ff 15 00 00 00
	00		 call	 DWORD PTR __imp_??1?$CStringT@DV?$StrTraitMFC_DLL@DV?$ChTraitsCRT@D@ATL@@@@@ATL@@QAE@XZ
  000d0	8d 4d 90	 lea	 ecx, DWORD PTR _calData$[ebp]
  000d3	e8 00 00 00 00	 call	 ??1CCoordinateCalculatorData@@QAE@XZ ; CCoordinateCalculatorData::~CCoordinateCalculatorData
  000d8	8b 45 8c	 mov	 eax, DWORD PTR ___$ReturnUdt$GSCopy$1$[ebp]

; 320  : 										CPoints(points.GetSavingPoint(),GetSelectedElementDrawPoint(calData, points.GetDrawingPoint())));
; 321  : }

  000db	8b 4d f4	 mov	 ecx, DWORD PTR __$EHRec$[ebp]
  000de	64 89 0d 00 00
	00 00		 mov	 DWORD PTR fs:0, ecx
  000e5	59		 pop	 ecx
  000e6	5f		 pop	 edi
  000e7	5e		 pop	 esi
  000e8	5b		 pop	 ebx
  000e9	8b 4d f0	 mov	 ecx, DWORD PTR __$ArrayPad$[ebp]
  000ec	33 cd		 xor	 ecx, ebp
  000ee	e8 00 00 00 00	 call	 @__security_check_cookie@4
  000f3	8b e5		 mov	 esp, ebp
  000f5	5d		 pop	 ebp
  000f6	c2 08 00	 ret	 8
_TEXT	ENDS
;	COMDAT text$x
text$x	SEGMENT
__unwindfunclet$?GetSelectedElementDrawData@CSelectingTool@@AAE?AVCSelectedElementDrawingData@@ABVCPoints@@@Z$0:
  00000	8d 4d 90	 lea	 ecx, DWORD PTR _calData$[ebp]
  00003	e9 00 00 00 00	 jmp	 ??1CCoordinateCalculatorData@@QAE@XZ ; CCoordinateCalculatorData::~CCoordinateCalculatorData
__unwindfunclet$?GetSelectedElementDrawData@CSelectingTool@@AAE?AVCSelectedElementDrawingData@@ABVCPoints@@@Z$1:
  00008	8d 8d 54 ff ff
	ff		 lea	 ecx, DWORD PTR $T3[ebp]
  0000e	e9 00 00 00 00	 jmp	 ??1CCoordinate@@QAE@XZ
__unwindfunclet$?GetSelectedElementDrawData@CSelectingTool@@AAE?AVCSelectedElementDrawingData@@ABVCPoints@@@Z$2:
  00013	8d 8d 2c ff ff
	ff		 lea	 ecx, DWORD PTR $T2[ebp]
  00019	e9 00 00 00 00	 jmp	 ??1CPoints@@QAE@XZ
  0001e	cc		 int	 3
  0001f	cc		 int	 3
  00020	cc		 int	 3
  00021	cc		 int	 3
  00022	cc		 int	 3
__ehhandler$?GetSelectedElementDrawData@CSelectingTool@@AAE?AVCSelectedElementDrawingData@@ABVCPoints@@@Z:
  00023	90		 npad	 1
  00024	90		 npad	 1
  00025	8b 54 24 08	 mov	 edx, DWORD PTR [esp+8]
  00029	8d 42 0c	 lea	 eax, DWORD PTR [edx+12]
  0002c	8b 8a 28 ff ff
	ff		 mov	 ecx, DWORD PTR [edx-216]
  00032	33 c8		 xor	 ecx, eax
  00034	e8 00 00 00 00	 call	 @__security_check_cookie@4
  00039	8b 4a fc	 mov	 ecx, DWORD PTR [edx-4]
  0003c	33 c8		 xor	 ecx, eax
  0003e	e8 00 00 00 00	 call	 @__security_check_cookie@4
  00043	b8 00 00 00 00	 mov	 eax, OFFSET __ehfuncinfo$?GetSelectedElementDrawData@CSelectingTool@@AAE?AVCSelectedElementDrawingData@@ABVCPoints@@@Z
  00048	e9 00 00 00 00	 jmp	 ___CxxFrameHandler3
text$x	ENDS
?GetSelectedElementDrawData@CSelectingTool@@AAE?AVCSelectedElementDrawingData@@ABVCPoints@@@Z ENDP ; CSelectingTool::GetSelectedElementDrawData
; Function compile flags: /Ogtp
; File D:\git\src\IBK\IBK_DRFN\ProjSrc\SrcChartEx\ChartAddIn\ChartAnalysisToolAddIn\AnalysisTool\Selecting.cpp
; File C:\Program Files (x86)\Microsoft Visual Studio\2019\Community\VC\Tools\MSVC\14.29.30133\atlmfc\include\atltypes.h
; File D:\git\src\IBK\IBK_DRFN\ProjSrc\SrcChartEx\ChartAddIn\ChartAnalysisToolAddIn\AnalysisTool\Selecting.cpp
; File C:\Program Files (x86)\Microsoft Visual Studio\2019\Community\VC\Tools\MSVC\14.29.30133\atlmfc\include\atltypes.h
; File D:\git\src\IBK\IBK_DRFN\ProjSrc\SrcChartEx\ChartAddIn\ChartAnalysisToolAddIn\AnalysisTool\Selecting.cpp
; File C:\Program Files (x86)\Microsoft Visual Studio\2019\Community\VC\Tools\MSVC\14.29.30133\atlmfc\include\atltypes.h
; File D:\git\src\IBK\IBK_DRFN\ProjSrc\SrcChartEx\ChartAddIn\ChartAnalysisToolAddIn\AnalysisTool\Selecting.cpp
;	COMDAT ?GetSelectedElementDrawPoint@CSelectingTool@@ABE?AVCPoint@@ABVCCoordinateCalculatorData@@ABV2@@Z
_TEXT	SEGMENT
$T1 = -8						; size = 8
___$ReturnUdt$ = 8					; size = 4
_calData$ = 12						; size = 4
_point$ = 16						; size = 4
?GetSelectedElementDrawPoint@CSelectingTool@@ABE?AVCPoint@@ABVCCoordinateCalculatorData@@ABV2@@Z PROC ; CSelectingTool::GetSelectedElementDrawPoint, COMDAT
; _this$ = ecx

; 288  : {

  00000	55		 push	 ebp
  00001	8b ec		 mov	 ebp, esp
  00003	83 ec 08	 sub	 esp, 8
  00006	53		 push	 ebx
  00007	8b d9		 mov	 ebx, ecx
  00009	56		 push	 esi
  0000a	57		 push	 edi

; 264  : 	return (pElement != NULL && modifyType != CToolEnumData::MODIFY_NONE);

  0000b	8b 4b 7c	 mov	 ecx, DWORD PTR [ebx+124]

; 289  : 	assert(m_pSelectedElement != NULL);
; 290  : 
; 291  : 	CPoint lBtDownDrawingPoint = m_lBtDownPoint;

  0000e	8b b3 b0 00 00
	00		 mov	 esi, DWORD PTR [ebx+176]
  00014	8b bb b4 00 00
	00		 mov	 edi, DWORD PTR [ebx+180]

; 264  : 	return (pElement != NULL && modifyType != CToolEnumData::MODIFY_NONE);

  0001a	85 c9		 test	 ecx, ecx
  0001c	74 26		 je	 SHORT $LN18@GetSelecte
  0001e	83 7b 78 00	 cmp	 DWORD PTR [ebx+120], 0
  00022	74 20		 je	 SHORT $LN18@GetSelecte

; 258  : 	return (m_pSelectedElement->GetCoordinateType() == CAnalysis::RELATIVE_POINT);

  00024	e8 00 00 00 00	 call	 ?GetCoordinateType@CElement@@QBE?AW4COORDINATETYPE@CAnalysis@@XZ ; CElement::GetCoordinateType

; 292  : 	if(IsRelativePointType())

  00029	85 c0		 test	 eax, eax
  0002b	75 17		 jne	 SHORT $LN18@GetSelecte

; 293  : 		lBtDownDrawingPoint = GetDrawingPoint(m_lBtDownPoint);

  0002d	8d 83 b0 00 00
	00		 lea	 eax, DWORD PTR [ebx+176]
  00033	8b cb		 mov	 ecx, ebx
  00035	50		 push	 eax
  00036	8d 45 f8	 lea	 eax, DWORD PTR $T1[ebp]
  00039	50		 push	 eax
  0003a	e8 00 00 00 00	 call	 ?GetDrawingPoint@CSelectingTool@@QBE?AVCPoint@@ABV2@@Z ; CSelectingTool::GetDrawingPoint
  0003f	8b 30		 mov	 esi, DWORD PTR [eax]
  00041	8b 78 04	 mov	 edi, DWORD PTR [eax+4]
$LN18@GetSelecte:

; 294  : 	
; 295  : 	if(m_TypeModify != CToolEnumData::MODIFY_CENTER)

  00044	83 7b 78 01	 cmp	 DWORD PTR [ebx+120], 1
  00048	74 19		 je	 SHORT $LN3@GetSelecte

; 296  : 		return point;

  0004a	8b 45 10	 mov	 eax, DWORD PTR _point$[ebp]
  0004d	5f		 pop	 edi

; 299  : }

  0004e	5e		 pop	 esi
  0004f	5b		 pop	 ebx
  00050	8b 08		 mov	 ecx, DWORD PTR [eax]
  00052	8b 50 04	 mov	 edx, DWORD PTR [eax+4]
  00055	8b 45 08	 mov	 eax, DWORD PTR ___$ReturnUdt$[ebp]
  00058	89 08		 mov	 DWORD PTR [eax], ecx
  0005a	89 50 04	 mov	 DWORD PTR [eax+4], edx
  0005d	8b e5		 mov	 esp, ebp
  0005f	5d		 pop	 ebp
  00060	c2 0c 00	 ret	 12			; 0000000cH
$LN3@GetSelecte:

; 298  : 	return CPoint((point.x - lBtDownDrawingPoint.x), (point.y - lBtDownDrawingPoint.y));

  00063	8b 55 10	 mov	 edx, DWORD PTR _point$[ebp]
; File C:\Program Files (x86)\Microsoft Visual Studio\2019\Community\VC\Tools\MSVC\14.29.30133\atlmfc\include\atltypes.h

; 408  : 	x = initX;

  00066	8b 45 08	 mov	 eax, DWORD PTR ___$ReturnUdt$[ebp]
; File D:\git\src\IBK\IBK_DRFN\ProjSrc\SrcChartEx\ChartAddIn\ChartAnalysisToolAddIn\AnalysisTool\Selecting.cpp

; 298  : 	return CPoint((point.x - lBtDownDrawingPoint.x), (point.y - lBtDownDrawingPoint.y));

  00069	8b 0a		 mov	 ecx, DWORD PTR [edx]
  0006b	2b ce		 sub	 ecx, esi
; File C:\Program Files (x86)\Microsoft Visual Studio\2019\Community\VC\Tools\MSVC\14.29.30133\atlmfc\include\atltypes.h

; 408  : 	x = initX;

  0006d	89 08		 mov	 DWORD PTR [eax], ecx
; File D:\git\src\IBK\IBK_DRFN\ProjSrc\SrcChartEx\ChartAddIn\ChartAnalysisToolAddIn\AnalysisTool\Selecting.cpp

; 298  : 	return CPoint((point.x - lBtDownDrawingPoint.x), (point.y - lBtDownDrawingPoint.y));

  0006f	8b 4a 04	 mov	 ecx, DWORD PTR [edx+4]
  00072	2b cf		 sub	 ecx, edi
  00074	5f		 pop	 edi

; 299  : }

  00075	5e		 pop	 esi
; File C:\Program Files (x86)\Microsoft Visual Studio\2019\Community\VC\Tools\MSVC\14.29.30133\atlmfc\include\atltypes.h

; 409  : 	y = initY;

  00076	89 48 04	 mov	 DWORD PTR [eax+4], ecx
; File D:\git\src\IBK\IBK_DRFN\ProjSrc\SrcChartEx\ChartAddIn\ChartAnalysisToolAddIn\AnalysisTool\Selecting.cpp

; 299  : }

  00079	5b		 pop	 ebx
  0007a	8b e5		 mov	 esp, ebp
  0007c	5d		 pop	 ebp
  0007d	c2 0c 00	 ret	 12			; 0000000cH
?GetSelectedElementDrawPoint@CSelectingTool@@ABE?AVCPoint@@ABVCCoordinateCalculatorData@@ABV2@@Z ENDP ; CSelectingTool::GetSelectedElementDrawPoint
_TEXT	ENDS
; Function compile flags: /Ogtp
; File D:\git\src\IBK\IBK_DRFN\ProjSrc\SrcChartEx\ChartAddIn\ChartAnalysisToolAddIn\AnalysisTool\Selecting.cpp
;	COMDAT ?GetSavingPoint@CSelectingTool@@ABE?AVCCoordinate@@ABVCPoint@@@Z
_TEXT	SEGMENT
___$ReturnUdt$GSCopy$ = -116				; size = 4
_calData$ = -112					; size = 96
__$ArrayPad$ = -16					; size = 4
__$EHRec$ = -12						; size = 12
___$ReturnUdt$ = 8					; size = 4
_point$ = 12						; size = 4
?GetSavingPoint@CSelectingTool@@ABE?AVCCoordinate@@ABVCPoint@@@Z PROC ; CSelectingTool::GetSavingPoint, COMDAT
; _this$ = ecx

; 279  : {

  00000	55		 push	 ebp
  00001	8b ec		 mov	 ebp, esp
  00003	6a ff		 push	 -1
  00005	68 00 00 00 00	 push	 __ehhandler$?GetSavingPoint@CSelectingTool@@ABE?AVCCoordinate@@ABVCPoint@@@Z
  0000a	64 a1 00 00 00
	00		 mov	 eax, DWORD PTR fs:0
  00010	50		 push	 eax
  00011	83 ec 68	 sub	 esp, 104		; 00000068H
  00014	a1 00 00 00 00	 mov	 eax, DWORD PTR ___security_cookie
  00019	33 c5		 xor	 eax, ebp
  0001b	89 45 f0	 mov	 DWORD PTR __$ArrayPad$[ebp], eax
  0001e	53		 push	 ebx
  0001f	56		 push	 esi
  00020	57		 push	 edi
  00021	50		 push	 eax
  00022	8d 45 f4	 lea	 eax, DWORD PTR __$EHRec$[ebp]
  00025	64 a3 00 00 00
	00		 mov	 DWORD PTR fs:0, eax
  0002b	8b f9		 mov	 edi, ecx

; 264  : 	return (pElement != NULL && modifyType != CToolEnumData::MODIFY_NONE);

  0002d	8b 4f 7c	 mov	 ecx, DWORD PTR [edi+124]

; 279  : {

  00030	8b 75 08	 mov	 esi, DWORD PTR ___$ReturnUdt$[ebp]
  00033	8b 5d 0c	 mov	 ebx, DWORD PTR _point$[ebp]
  00036	89 75 8c	 mov	 DWORD PTR ___$ReturnUdt$GSCopy$[ebp], esi

; 264  : 	return (pElement != NULL && modifyType != CToolEnumData::MODIFY_NONE);

  00039	85 c9		 test	 ecx, ecx
  0003b	74 40		 je	 SHORT $LN16@GetSavingP
  0003d	83 7f 78 00	 cmp	 DWORD PTR [edi+120], 0
  00041	74 3a		 je	 SHORT $LN16@GetSavingP

; 258  : 	return (m_pSelectedElement->GetCoordinateType() == CAnalysis::RELATIVE_POINT);

  00043	e8 00 00 00 00	 call	 ?GetCoordinateType@CElement@@QBE?AW4COORDINATETYPE@CAnalysis@@XZ ; CElement::GetCoordinateType

; 280  : 	if(!IsRelativePointType())

  00048	85 c0		 test	 eax, eax
  0004a	75 31		 jne	 SHORT $LN16@GetSavingP

; 282  : 
; 283  : 	CCoordinateCalculatorData calData = CTool::GetCoordinateCalculatorData(point);

  0004c	53		 push	 ebx
  0004d	8d 45 90	 lea	 eax, DWORD PTR _calData$[ebp]
  00050	8b cf		 mov	 ecx, edi
  00052	50		 push	 eax
  00053	e8 00 00 00 00	 call	 ?GetCoordinateCalculatorData@CTool@@QBE?AVCCoordinateCalculatorData@@ABVCPoint@@@Z ; CTool::GetCoordinateCalculatorData

; 284  : 	return CTool::GetCoordinateCalculator().AbsoluteToRelative(calData, point);	

  00058	53		 push	 ebx
  00059	8d 45 90	 lea	 eax, DWORD PTR _calData$[ebp]
  0005c	c7 45 fc 00 00
	00 00		 mov	 DWORD PTR __$EHRec$[ebp+8], 0
  00063	50		 push	 eax
  00064	56		 push	 esi
  00065	8b cf		 mov	 ecx, edi
  00067	e8 00 00 00 00	 call	 ?GetCoordinateCalculator@CTool@@UBEAAVCCoordinateCalculator@@XZ ; CTool::GetCoordinateCalculator
  0006c	8b c8		 mov	 ecx, eax
  0006e	e8 00 00 00 00	 call	 ?AbsoluteToRelative@CCoordinateCalculator@@QBE?AVCCoordinate@@ABVCCoordinateCalculatorData@@ABVCPoint@@@Z ; CCoordinateCalculator::AbsoluteToRelative
  00073	8d 4d 90	 lea	 ecx, DWORD PTR _calData$[ebp]
  00076	e8 00 00 00 00	 call	 ??1CCoordinateCalculatorData@@QAE@XZ ; CCoordinateCalculatorData::~CCoordinateCalculatorData
  0007b	eb 08		 jmp	 SHORT $LN19@GetSavingP
$LN16@GetSavingP:

; 281  : 		return CCoordinate(point);

  0007d	53		 push	 ebx
  0007e	8b ce		 mov	 ecx, esi
  00080	e8 00 00 00 00	 call	 ??0CCoordinate@@QAE@ABVCPoint@@@Z ; CCoordinate::CCoordinate
$LN19@GetSavingP:

; 285  : }

  00085	8b c6		 mov	 eax, esi
  00087	8b 4d f4	 mov	 ecx, DWORD PTR __$EHRec$[ebp]
  0008a	64 89 0d 00 00
	00 00		 mov	 DWORD PTR fs:0, ecx
  00091	59		 pop	 ecx
  00092	5f		 pop	 edi
  00093	5e		 pop	 esi
  00094	5b		 pop	 ebx
  00095	8b 4d f0	 mov	 ecx, DWORD PTR __$ArrayPad$[ebp]
  00098	33 cd		 xor	 ecx, ebp
  0009a	e8 00 00 00 00	 call	 @__security_check_cookie@4
  0009f	8b e5		 mov	 esp, ebp
  000a1	5d		 pop	 ebp
  000a2	c2 08 00	 ret	 8
_TEXT	ENDS
;	COMDAT text$x
text$x	SEGMENT
__unwindfunclet$?GetSavingPoint@CSelectingTool@@ABE?AVCCoordinate@@ABVCPoint@@@Z$1:
  00000	8d 4d 90	 lea	 ecx, DWORD PTR _calData$[ebp]
  00003	e9 00 00 00 00	 jmp	 ??1CCoordinateCalculatorData@@QAE@XZ ; CCoordinateCalculatorData::~CCoordinateCalculatorData
  00008	cc		 int	 3
  00009	cc		 int	 3
  0000a	cc		 int	 3
  0000b	cc		 int	 3
  0000c	cc		 int	 3
__ehhandler$?GetSavingPoint@CSelectingTool@@ABE?AVCCoordinate@@ABVCPoint@@@Z:
  0000d	90		 npad	 1
  0000e	90		 npad	 1
  0000f	8b 54 24 08	 mov	 edx, DWORD PTR [esp+8]
  00013	8d 42 0c	 lea	 eax, DWORD PTR [edx+12]
  00016	8b 4a 88	 mov	 ecx, DWORD PTR [edx-120]
  00019	33 c8		 xor	 ecx, eax
  0001b	e8 00 00 00 00	 call	 @__security_check_cookie@4
  00020	8b 4a fc	 mov	 ecx, DWORD PTR [edx-4]
  00023	33 c8		 xor	 ecx, eax
  00025	e8 00 00 00 00	 call	 @__security_check_cookie@4
  0002a	b8 00 00 00 00	 mov	 eax, OFFSET __ehfuncinfo$?GetSavingPoint@CSelectingTool@@ABE?AVCCoordinate@@ABVCPoint@@@Z
  0002f	e9 00 00 00 00	 jmp	 ___CxxFrameHandler3
text$x	ENDS
?GetSavingPoint@CSelectingTool@@ABE?AVCCoordinate@@ABVCPoint@@@Z ENDP ; CSelectingTool::GetSavingPoint
; Function compile flags: /Ogtp
; File D:\git\src\IBK\IBK_DRFN\ProjSrc\SrcChartEx\ChartAddIn\ChartAnalysisToolAddIn\AnalysisTool\Selecting.cpp
;	COMDAT ?IsRelativePointType@CSelectingTool@@ABE_NXZ
_TEXT	SEGMENT
?IsRelativePointType@CSelectingTool@@ABE_NXZ PROC	; CSelectingTool::IsRelativePointType, COMDAT
; _this$ = ecx

; 264  : 	return (pElement != NULL && modifyType != CToolEnumData::MODIFY_NONE);

  00000	8b 41 7c	 mov	 eax, DWORD PTR [ecx+124]
  00003	85 c0		 test	 eax, eax
  00005	74 13		 je	 SHORT $LN8@IsRelative
  00007	83 79 78 00	 cmp	 DWORD PTR [ecx+120], 0
  0000b	74 0d		 je	 SHORT $LN8@IsRelative

; 257  : 
; 258  : 	return (m_pSelectedElement->GetCoordinateType() == CAnalysis::RELATIVE_POINT);

  0000d	8b c8		 mov	 ecx, eax
  0000f	e8 00 00 00 00	 call	 ?GetCoordinateType@CElement@@QBE?AW4COORDINATETYPE@CAnalysis@@XZ ; CElement::GetCoordinateType
  00014	85 c0		 test	 eax, eax
  00016	0f 94 c0	 sete	 al

; 259  : }

  00019	c3		 ret	 0
$LN8@IsRelative:

; 255  : 	if(!IsSelectedElement())
; 256  : 		return false;

  0001a	32 c0		 xor	 al, al

; 259  : }

  0001c	c3		 ret	 0
?IsRelativePointType@CSelectingTool@@ABE_NXZ ENDP	; CSelectingTool::IsRelativePointType
_TEXT	ENDS
; Function compile flags: /Ogtp
; File D:\git\src\IBK\IBK_DRFN\ProjSrc\SrcChartEx\ChartAddIn\ChartAnalysisToolAddIn\AnalysisTool\Selecting.cpp
;	COMDAT ?IsFindedModifyElement@CSelectingTool@@ABE_NPAVCElement@@W4ModifyType@CToolEnumData@@@Z
_TEXT	SEGMENT
_pElement$ = 8						; size = 4
_modifyType$ = 12					; size = 4
?IsFindedModifyElement@CSelectingTool@@ABE_NPAVCElement@@W4ModifyType@CToolEnumData@@@Z PROC ; CSelectingTool::IsFindedModifyElement, COMDAT
; _this$ = ecx

; 263  : {

  00000	55		 push	 ebp
  00001	8b ec		 mov	 ebp, esp

; 264  : 	return (pElement != NULL && modifyType != CToolEnumData::MODIFY_NONE);

  00003	83 7d 08 00	 cmp	 DWORD PTR _pElement$[ebp], 0
  00007	74 0c		 je	 SHORT $LN3@IsFindedMo
  00009	83 7d 0c 00	 cmp	 DWORD PTR _modifyType$[ebp], 0
  0000d	74 06		 je	 SHORT $LN3@IsFindedMo
  0000f	b0 01		 mov	 al, 1

; 265  : }

  00011	5d		 pop	 ebp
  00012	c2 08 00	 ret	 8
$LN3@IsFindedMo:

; 264  : 	return (pElement != NULL && modifyType != CToolEnumData::MODIFY_NONE);

  00015	32 c0		 xor	 al, al

; 265  : }

  00017	5d		 pop	 ebp
  00018	c2 08 00	 ret	 8
?IsFindedModifyElement@CSelectingTool@@ABE_NPAVCElement@@W4ModifyType@CToolEnumData@@@Z ENDP ; CSelectingTool::IsFindedModifyElement
_TEXT	ENDS
; Function compile flags: /Ogtp
; File D:\git\src\IBK\IBK_DRFN\ProjSrc\SrcChartEx\ChartAddIn\ChartAnalysisToolAddIn\AnalysisTool\Selecting.cpp
;	COMDAT ?IsSelectedElement@CSelectingTool@@ABE_NXZ
_TEXT	SEGMENT
?IsSelectedElement@CSelectingTool@@ABE_NXZ PROC		; CSelectingTool::IsSelectedElement, COMDAT
; _this$ = ecx

; 264  : 	return (pElement != NULL && modifyType != CToolEnumData::MODIFY_NONE);

  00000	83 79 7c 00	 cmp	 DWORD PTR [ecx+124], 0
  00004	74 09		 je	 SHORT $LN5@IsSelected
  00006	83 79 78 00	 cmp	 DWORD PTR [ecx+120], 0
  0000a	74 03		 je	 SHORT $LN5@IsSelected
  0000c	b0 01		 mov	 al, 1

; 250  : 	return IsFindedModifyElement(m_pSelectedElement, m_TypeModify);
; 251  : }

  0000e	c3		 ret	 0
$LN5@IsSelected:

; 264  : 	return (pElement != NULL && modifyType != CToolEnumData::MODIFY_NONE);

  0000f	32 c0		 xor	 al, al

; 250  : 	return IsFindedModifyElement(m_pSelectedElement, m_TypeModify);
; 251  : }

  00011	c3		 ret	 0
?IsSelectedElement@CSelectingTool@@ABE_NXZ ENDP		; CSelectingTool::IsSelectedElement
_TEXT	ENDS
; Function compile flags: /Ogtp
; File D:\git\src\IBK\IBK_DRFN\ProjSrc\SrcChartEx\ChartAddIn\ChartAnalysisToolAddIn\AnalysisTool\Selecting.cpp
;	COMDAT ?SetBtDownPoint@CSelectingTool@@QAEXABVCPoint@@@Z
_TEXT	SEGMENT
$T2 = -52						; size = 40
__$EHRec$ = -12						; size = 12
_point$ = 8						; size = 4
?SetBtDownPoint@CSelectingTool@@QAEXABVCPoint@@@Z PROC	; CSelectingTool::SetBtDownPoint, COMDAT
; _this$ = ecx

; 469  : {

  00000	55		 push	 ebp
  00001	8b ec		 mov	 ebp, esp
  00003	6a ff		 push	 -1
  00005	68 00 00 00 00	 push	 __ehhandler$?SetBtDownPoint@CSelectingTool@@QAEXABVCPoint@@@Z
  0000a	64 a1 00 00 00
	00		 mov	 eax, DWORD PTR fs:0
  00010	50		 push	 eax
  00011	83 ec 28	 sub	 esp, 40			; 00000028H
  00014	56		 push	 esi
  00015	a1 00 00 00 00	 mov	 eax, DWORD PTR ___security_cookie
  0001a	33 c5		 xor	 eax, ebp
  0001c	50		 push	 eax
  0001d	8d 45 f4	 lea	 eax, DWORD PTR __$EHRec$[ebp]
  00020	64 a3 00 00 00
	00		 mov	 DWORD PTR fs:0, eax
  00026	8b f1		 mov	 esi, ecx

; 470  : 	m_lBtDownPoint = point;
; 471  : 	if(m_pSelectedElement != NULL)

  00028	83 7e 7c 00	 cmp	 DWORD PTR [esi+124], 0
  0002c	8b 4d 08	 mov	 ecx, DWORD PTR _point$[ebp]
  0002f	8b 01		 mov	 eax, DWORD PTR [ecx]
  00031	8b 51 04	 mov	 edx, DWORD PTR [ecx+4]
  00034	89 86 b0 00 00
	00		 mov	 DWORD PTR [esi+176], eax
  0003a	89 96 b4 00 00
	00		 mov	 DWORD PTR [esi+180], edx
  00040	74 28		 je	 SHORT $LN9@SetBtDownP

; 472  : 	{
; 473  : 		m_oldSelectedPt = CTool::GetPoints(point);

  00042	51		 push	 ecx
  00043	8d 45 cc	 lea	 eax, DWORD PTR $T2[ebp]
  00046	8b ce		 mov	 ecx, esi
  00048	50		 push	 eax
  00049	e8 00 00 00 00	 call	 ?GetPoints@CTool@@IBE?AVCPoints@@ABVCPoint@@@Z ; CTool::GetPoints
  0004e	50		 push	 eax
  0004f	8d 8e 88 00 00
	00		 lea	 ecx, DWORD PTR [esi+136]
  00055	c7 45 fc 00 00
	00 00		 mov	 DWORD PTR __$EHRec$[ebp+8], 0
  0005c	e8 00 00 00 00	 call	 ??4CPoints@@QAEAAV0@ABV0@@Z ; CPoints::operator=
  00061	8d 4d e0	 lea	 ecx, DWORD PTR $T2[ebp+20]
  00064	ff 15 00 00 00
	00		 call	 DWORD PTR __imp_??1?$CStringT@DV?$StrTraitMFC_DLL@DV?$ChTraitsCRT@D@ATL@@@@@ATL@@QAE@XZ
$LN9@SetBtDownP:

; 474  : 	}
; 475  : }

  0006a	8b 4d f4	 mov	 ecx, DWORD PTR __$EHRec$[ebp]
  0006d	64 89 0d 00 00
	00 00		 mov	 DWORD PTR fs:0, ecx
  00074	59		 pop	 ecx
  00075	5e		 pop	 esi
  00076	8b e5		 mov	 esp, ebp
  00078	5d		 pop	 ebp
  00079	c2 04 00	 ret	 4
_TEXT	ENDS
;	COMDAT text$x
text$x	SEGMENT
__unwindfunclet$?SetBtDownPoint@CSelectingTool@@QAEXABVCPoint@@@Z$0:
  00000	8d 4d cc	 lea	 ecx, DWORD PTR $T2[ebp]
  00003	e9 00 00 00 00	 jmp	 ??1CPoints@@QAE@XZ
  00008	cc		 int	 3
  00009	cc		 int	 3
  0000a	cc		 int	 3
  0000b	cc		 int	 3
  0000c	cc		 int	 3
__ehhandler$?SetBtDownPoint@CSelectingTool@@QAEXABVCPoint@@@Z:
  0000d	90		 npad	 1
  0000e	90		 npad	 1
  0000f	8b 54 24 08	 mov	 edx, DWORD PTR [esp+8]
  00013	8d 42 0c	 lea	 eax, DWORD PTR [edx+12]
  00016	8b 4a d0	 mov	 ecx, DWORD PTR [edx-48]
  00019	33 c8		 xor	 ecx, eax
  0001b	e8 00 00 00 00	 call	 @__security_check_cookie@4
  00020	b8 00 00 00 00	 mov	 eax, OFFSET __ehfuncinfo$?SetBtDownPoint@CSelectingTool@@QAEXABVCPoint@@@Z
  00025	e9 00 00 00 00	 jmp	 ___CxxFrameHandler3
text$x	ENDS
?SetBtDownPoint@CSelectingTool@@QAEXABVCPoint@@@Z ENDP	; CSelectingTool::SetBtDownPoint
; Function compile flags: /Ogtp
; File D:\git\src\IBK\IBK_DRFN\ProjSrc\SrcChartEx\ChartAddIn\ChartAnalysisToolAddIn\AnalysisTool\Selecting.cpp
;	COMDAT ?GetSelectedElementDrawData@CSelectingTool@@QAE?AVCSelectedElementDrawingData@@XZ
_TEXT	SEGMENT
$T2 = -212						; size = 40
$T3 = -172						; size = 32
$T4 = -140						; size = 8
$T5 = -132						; size = 8
$T6 = -124						; size = 8
___$ReturnUdt$GSCopy$ = -120				; size = 4
___$ReturnUdt$GSCopy$1$ = -116				; size = 4
_calData$ = -112					; size = 96
__$ArrayPad$ = -16					; size = 4
__$EHRec$ = -12						; size = 12
___$ReturnUdt$ = 8					; size = 4
?GetSelectedElementDrawData@CSelectingTool@@QAE?AVCSelectedElementDrawingData@@XZ PROC ; CSelectingTool::GetSelectedElementDrawData, COMDAT
; _this$ = ecx

; 305  : {

  00000	55		 push	 ebp
  00001	8b ec		 mov	 ebp, esp
  00003	6a ff		 push	 -1
  00005	68 00 00 00 00	 push	 __ehhandler$?GetSelectedElementDrawData@CSelectingTool@@QAE?AVCSelectedElementDrawingData@@XZ
  0000a	64 a1 00 00 00
	00		 mov	 eax, DWORD PTR fs:0
  00010	50		 push	 eax
  00011	81 ec c8 00 00
	00		 sub	 esp, 200		; 000000c8H
  00017	a1 00 00 00 00	 mov	 eax, DWORD PTR ___security_cookie
  0001c	33 c5		 xor	 eax, ebp
  0001e	89 45 f0	 mov	 DWORD PTR __$ArrayPad$[ebp], eax
  00021	53		 push	 ebx
  00022	56		 push	 esi
  00023	57		 push	 edi
  00024	50		 push	 eax
  00025	8d 45 f4	 lea	 eax, DWORD PTR __$EHRec$[ebp]
  00028	64 a3 00 00 00
	00		 mov	 DWORD PTR fs:0, eax
  0002e	8b d9		 mov	 ebx, ecx
  00030	8b 45 08	 mov	 eax, DWORD PTR ___$ReturnUdt$[ebp]

; 306  : 	assert(m_pSelectedElement != NULL);
; 307  : 
; 308  : 	CCoordinateCalculatorData calData = CTool::GetCoordinateCalculatorData(m_oldSelectedPt.GetDrawingPoint());

  00033	8d 8b 88 00 00
	00		 lea	 ecx, DWORD PTR [ebx+136]
  00039	89 45 8c	 mov	 DWORD PTR ___$ReturnUdt$GSCopy$1$[ebp], eax
  0003c	89 45 88	 mov	 DWORD PTR ___$ReturnUdt$GSCopy$[ebp], eax
  0003f	8d 45 84	 lea	 eax, DWORD PTR $T6[ebp]
  00042	50		 push	 eax
  00043	e8 00 00 00 00	 call	 ?GetDrawingPoint@CPoints@@QBE?AVCPoint@@XZ ; CPoints::GetDrawingPoint
  00048	50		 push	 eax
  00049	8d 45 90	 lea	 eax, DWORD PTR _calData$[ebp]
  0004c	8b cb		 mov	 ecx, ebx
  0004e	50		 push	 eax
  0004f	e8 00 00 00 00	 call	 ?GetCoordinateCalculatorData@CTool@@QBE?AVCCoordinateCalculatorData@@ABVCPoint@@@Z ; CTool::GetCoordinateCalculatorData

; 309  : 	return CSelectedElementDrawingData(m_TypeModify,&CTool::GetDrawingRegions(), calData, 

  00054	8d 85 54 ff ff
	ff		 lea	 eax, DWORD PTR $T3[ebp]
  0005a	c7 45 fc 00 00
	00 00		 mov	 DWORD PTR __$EHRec$[ebp+8], 0
  00061	50		 push	 eax
  00062	8d 8b 88 00 00
	00		 lea	 ecx, DWORD PTR [ebx+136]
  00068	e8 00 00 00 00	 call	 ?GetSavingPoint@CPoints@@QBE?AVCCoordinate@@XZ ; CPoints::GetSavingPoint
  0006d	8b f0		 mov	 esi, eax
  0006f	8d 85 7c ff ff
	ff		 lea	 eax, DWORD PTR $T5[ebp]
  00075	c6 45 fc 01	 mov	 BYTE PTR __$EHRec$[ebp+8], 1
  00079	50		 push	 eax
  0007a	8d 8b 88 00 00
	00		 lea	 ecx, DWORD PTR [ebx+136]
  00080	e8 00 00 00 00	 call	 ?GetDrawingPoint@CPoints@@QBE?AVCPoint@@XZ ; CPoints::GetDrawingPoint
  00085	50		 push	 eax
  00086	8d 45 90	 lea	 eax, DWORD PTR _calData$[ebp]
  00089	8b cb		 mov	 ecx, ebx
  0008b	50		 push	 eax
  0008c	8d 85 74 ff ff
	ff		 lea	 eax, DWORD PTR $T4[ebp]
  00092	50		 push	 eax
  00093	e8 00 00 00 00	 call	 ?GetSelectedElementDrawPoint@CSelectingTool@@ABE?AVCPoint@@ABVCCoordinateCalculatorData@@ABV2@@Z ; CSelectingTool::GetSelectedElementDrawPoint
  00098	50		 push	 eax
  00099	56		 push	 esi
  0009a	8d 8d 2c ff ff
	ff		 lea	 ecx, DWORD PTR $T2[ebp]
  000a0	e8 00 00 00 00	 call	 ??0CPoints@@QAE@ABVCCoordinate@@ABVCPoint@@@Z ; CPoints::CPoints
  000a5	50		 push	 eax
  000a6	8d 45 90	 lea	 eax, DWORD PTR _calData$[ebp]
  000a9	c6 45 fc 02	 mov	 BYTE PTR __$EHRec$[ebp+8], 2
  000ad	50		 push	 eax
  000ae	8b cb		 mov	 ecx, ebx
  000b0	e8 00 00 00 00	 call	 ?GetDrawingRegions@CTool@@IAEAAVCDrawingRegions@@XZ ; CTool::GetDrawingRegions
  000b5	8b 4d 8c	 mov	 ecx, DWORD PTR ___$ReturnUdt$GSCopy$1$[ebp]
  000b8	50		 push	 eax
  000b9	ff 73 78	 push	 DWORD PTR [ebx+120]
  000bc	e8 00 00 00 00	 call	 ??0CSelectedElementDrawingData@@QAE@W4ModifyType@CToolEnumData@@PAVCDrawingRegions@@ABVCCoordinateCalculatorData@@ABVCPoints@@@Z ; CSelectedElementDrawingData::CSelectedElementDrawingData
  000c1	8d 8d 40 ff ff
	ff		 lea	 ecx, DWORD PTR $T2[ebp+20]
  000c7	ff 15 00 00 00
	00		 call	 DWORD PTR __imp_??1?$CStringT@DV?$StrTraitMFC_DLL@DV?$ChTraitsCRT@D@ATL@@@@@ATL@@QAE@XZ
  000cd	8d 8d 68 ff ff
	ff		 lea	 ecx, DWORD PTR $T3[ebp+20]
  000d3	ff 15 00 00 00
	00		 call	 DWORD PTR __imp_??1?$CStringT@DV?$StrTraitMFC_DLL@DV?$ChTraitsCRT@D@ATL@@@@@ATL@@QAE@XZ
  000d9	8d 4d 90	 lea	 ecx, DWORD PTR _calData$[ebp]
  000dc	e8 00 00 00 00	 call	 ??1CCoordinateCalculatorData@@QAE@XZ ; CCoordinateCalculatorData::~CCoordinateCalculatorData
  000e1	8b 45 8c	 mov	 eax, DWORD PTR ___$ReturnUdt$GSCopy$1$[ebp]

; 310  : 										CPoints(m_oldSelectedPt.GetSavingPoint(),GetSelectedElementDrawPoint(calData, m_oldSelectedPt.GetDrawingPoint())));
; 311  : }

  000e4	8b 4d f4	 mov	 ecx, DWORD PTR __$EHRec$[ebp]
  000e7	64 89 0d 00 00
	00 00		 mov	 DWORD PTR fs:0, ecx
  000ee	59		 pop	 ecx
  000ef	5f		 pop	 edi
  000f0	5e		 pop	 esi
  000f1	5b		 pop	 ebx
  000f2	8b 4d f0	 mov	 ecx, DWORD PTR __$ArrayPad$[ebp]
  000f5	33 cd		 xor	 ecx, ebp
  000f7	e8 00 00 00 00	 call	 @__security_check_cookie@4
  000fc	8b e5		 mov	 esp, ebp
  000fe	5d		 pop	 ebp
  000ff	c2 04 00	 ret	 4
_TEXT	ENDS
;	COMDAT text$x
text$x	SEGMENT
__unwindfunclet$?GetSelectedElementDrawData@CSelectingTool@@QAE?AVCSelectedElementDrawingData@@XZ$0:
  00000	8d 4d 90	 lea	 ecx, DWORD PTR _calData$[ebp]
  00003	e9 00 00 00 00	 jmp	 ??1CCoordinateCalculatorData@@QAE@XZ ; CCoordinateCalculatorData::~CCoordinateCalculatorData
__unwindfunclet$?GetSelectedElementDrawData@CSelectingTool@@QAE?AVCSelectedElementDrawingData@@XZ$1:
  00008	8d 8d 54 ff ff
	ff		 lea	 ecx, DWORD PTR $T3[ebp]
  0000e	e9 00 00 00 00	 jmp	 ??1CCoordinate@@QAE@XZ
__unwindfunclet$?GetSelectedElementDrawData@CSelectingTool@@QAE?AVCSelectedElementDrawingData@@XZ$2:
  00013	8d 8d 2c ff ff
	ff		 lea	 ecx, DWORD PTR $T2[ebp]
  00019	e9 00 00 00 00	 jmp	 ??1CPoints@@QAE@XZ
  0001e	cc		 int	 3
  0001f	cc		 int	 3
  00020	cc		 int	 3
  00021	cc		 int	 3
  00022	cc		 int	 3
__ehhandler$?GetSelectedElementDrawData@CSelectingTool@@QAE?AVCSelectedElementDrawingData@@XZ:
  00023	90		 npad	 1
  00024	90		 npad	 1
  00025	8b 54 24 08	 mov	 edx, DWORD PTR [esp+8]
  00029	8d 42 0c	 lea	 eax, DWORD PTR [edx+12]
  0002c	8b 8a 28 ff ff
	ff		 mov	 ecx, DWORD PTR [edx-216]
  00032	33 c8		 xor	 ecx, eax
  00034	e8 00 00 00 00	 call	 @__security_check_cookie@4
  00039	8b 4a fc	 mov	 ecx, DWORD PTR [edx-4]
  0003c	33 c8		 xor	 ecx, eax
  0003e	e8 00 00 00 00	 call	 @__security_check_cookie@4
  00043	b8 00 00 00 00	 mov	 eax, OFFSET __ehfuncinfo$?GetSelectedElementDrawData@CSelectingTool@@QAE?AVCSelectedElementDrawingData@@XZ
  00048	e9 00 00 00 00	 jmp	 ___CxxFrameHandler3
text$x	ENDS
?GetSelectedElementDrawData@CSelectingTool@@QAE?AVCSelectedElementDrawingData@@XZ ENDP ; CSelectingTool::GetSelectedElementDrawData
; Function compile flags: /Ogtp
; File D:\git\src\IBK\IBK_DRFN\ProjSrc\SrcChartEx\ChartAddIn\ChartAnalysisToolAddIn\AnalysisTool\Selecting.cpp
;	COMDAT ?GetElementModifyData@CSelectingTool@@QBE?AVCElementModifyData@@ABVCPoint@@@Z
_TEXT	SEGMENT
$T2 = -172						; size = 32
$T3 = -172						; size = 32
$T4 = -172						; size = 32
$T5 = -172						; size = 32
$T6 = -140						; size = 8
$T7 = -132						; size = 8
___$ReturnUdt$GSCopy$ = -124				; size = 4
$T8 = -120						; size = 4
_pIPacket$1$ = -116					; size = 4
_pIPacket$1$ = -116					; size = 4
_pIChartManager$1$ = -116				; size = 4
$T9 = -116						; size = 4
_calData$10 = -112					; size = 96
_calData$11 = -112					; size = 96
__$ArrayPad$ = -16					; size = 4
__$EHRec$ = -12						; size = 12
___$ReturnUdt$ = 8					; size = 4
_point$ = 12						; size = 4
?GetElementModifyData@CSelectingTool@@QBE?AVCElementModifyData@@ABVCPoint@@@Z PROC ; CSelectingTool::GetElementModifyData, COMDAT
; _this$ = ecx

; 325  : {

  00000	55		 push	 ebp
  00001	8b ec		 mov	 ebp, esp
  00003	6a ff		 push	 -1
  00005	68 00 00 00 00	 push	 __ehhandler$?GetElementModifyData@CSelectingTool@@QBE?AVCElementModifyData@@ABVCPoint@@@Z
  0000a	64 a1 00 00 00
	00		 mov	 eax, DWORD PTR fs:0
  00010	50		 push	 eax
  00011	81 ec a0 00 00
	00		 sub	 esp, 160		; 000000a0H
  00017	a1 00 00 00 00	 mov	 eax, DWORD PTR ___security_cookie
  0001c	33 c5		 xor	 eax, ebp
  0001e	89 45 f0	 mov	 DWORD PTR __$ArrayPad$[ebp], eax
  00021	53		 push	 ebx
  00022	56		 push	 esi
  00023	57		 push	 edi
  00024	50		 push	 eax
  00025	8d 45 f4	 lea	 eax, DWORD PTR __$EHRec$[ebp]
  00028	64 a3 00 00 00
	00		 mov	 DWORD PTR fs:0, eax
  0002e	8b f1		 mov	 esi, ecx
  00030	8b 7d 08	 mov	 edi, DWORD PTR ___$ReturnUdt$[ebp]

; 326  : 	CElementModifyData elementModifyData;

  00033	8b cf		 mov	 ecx, edi
  00035	8b 5d 0c	 mov	 ebx, DWORD PTR _point$[ebp]
  00038	89 7d 84	 mov	 DWORD PTR ___$ReturnUdt$GSCopy$[ebp], edi
  0003b	c7 45 fc 00 00
	00 00		 mov	 DWORD PTR __$EHRec$[ebp+8], 0
  00042	c7 45 88 00 00
	00 00		 mov	 DWORD PTR $T8[ebp], 0
  00049	e8 00 00 00 00	 call	 ??0CElementModifyData@@QAE@XZ ; CElementModifyData::CElementModifyData

; 336  : 	else
; 337  : 		GetElementModifyData_Pixel(point, elementModifyData);
; 338  : 
; 339  : 	return elementModifyData;

  0004e	ff 76 78	 push	 DWORD PTR [esi+120]
  00051	8b cf		 mov	 ecx, edi
  00053	c7 45 fc 00 00
	00 00		 mov	 DWORD PTR __$EHRec$[ebp+8], 0
  0005a	c7 45 88 01 00
	00 00		 mov	 DWORD PTR $T8[ebp], 1
  00061	e8 00 00 00 00	 call	 ?SetModifyType@CElementModifyData@@QAEXW4ModifyType@CToolEnumData@@@Z ; CElementModifyData::SetModifyType
  00066	8b 06		 mov	 eax, DWORD PTR [esi]
  00068	8b ce		 mov	 ecx, esi
  0006a	ff 50 38	 call	 DWORD PTR [eax+56]
  0006d	8b c8		 mov	 ecx, eax
  0006f	e8 00 00 00 00	 call	 ?GetMainBlock@CAnalysisData@@QBEPAUIChartManager133101@@XZ ; CAnalysisData::GetMainBlock
  00074	50		 push	 eax
  00075	8b cf		 mov	 ecx, edi
  00077	89 45 8c	 mov	 DWORD PTR _pIChartManager$1$[ebp], eax
  0007a	e8 00 00 00 00	 call	 ?SetIChartManager@CElementModifyData@@QAEXPAUIChartManager133101@@@Z ; CElementModifyData::SetIChartManager
  0007f	8b 4d 8c	 mov	 ecx, DWORD PTR _pIChartManager$1$[ebp]
  00082	85 c9		 test	 ecx, ecx
  00084	74 06		 je	 SHORT $LN2@GetElement

; 327  : 	elementModifyData.SetModifyType(m_TypeModify);
; 328  : 	IChartManager *pIChartManager = GetAnalysisData()->GetMainBlock();
; 329  : 	elementModifyData.SetIChartManager( pIChartManager);
; 330  : 	if( pIChartManager) pIChartManager->Release();

  00086	8b 01		 mov	 eax, DWORD PTR [ecx]
  00088	51		 push	 ecx
  00089	ff 50 08	 call	 DWORD PTR [eax+8]
$LN2@GetElement:

; 331  : 	pIChartManager = NULL;
; 332  : 	elementModifyData.SetBlockIndex(point);

  0008c	53		 push	 ebx
  0008d	8b cf		 mov	 ecx, edi
  0008f	e8 00 00 00 00	 call	 ?SetBlockIndex@CElementModifyData@@QAE_NABVCPoint@@@Z ; CElementModifyData::SetBlockIndex

; 264  : 	return (pElement != NULL && modifyType != CToolEnumData::MODIFY_NONE);

  00094	8b 4e 7c	 mov	 ecx, DWORD PTR [esi+124]
  00097	85 c9		 test	 ecx, ecx
  00099	0f 84 17 01 00
	00		 je	 $LN3@GetElement
  0009f	83 7e 78 00	 cmp	 DWORD PTR [esi+120], 0
  000a3	0f 84 0d 01 00
	00		 je	 $LN3@GetElement

; 258  : 	return (m_pSelectedElement->GetCoordinateType() == CAnalysis::RELATIVE_POINT);

  000a9	e8 00 00 00 00	 call	 ?GetCoordinateType@CElement@@QBE?AW4COORDINATETYPE@CAnalysis@@XZ ; CElement::GetCoordinateType

; 333  : 
; 334  : 	if(IsRelativePointType())

  000ae	85 c0		 test	 eax, eax
  000b0	0f 85 00 01 00
	00		 jne	 $LN3@GetElement

; 344  : 	if(m_TypeModify == CToolEnumData::MODIFY_CENTER)

  000b6	83 7e 78 01	 cmp	 DWORD PTR [esi+120], 1
  000ba	75 79		 jne	 SHORT $LN18@GetElement

; 345  : 	{
; 346  : 		CCoordinateCalculatorData calData = CTool::GetCoordinateCalculatorData(point);

  000bc	53		 push	 ebx
  000bd	8d 45 90	 lea	 eax, DWORD PTR _calData$11[ebp]
  000c0	8b ce		 mov	 ecx, esi
  000c2	50		 push	 eax
  000c3	e8 00 00 00 00	 call	 ?GetCoordinateCalculatorData@CTool@@QBE?AVCCoordinateCalculatorData@@ABVCPoint@@@Z ; CTool::GetCoordinateCalculatorData

; 347  : 		IPacket *pIPacket = calData.GetPacket_X();

  000c8	8d 4d 90	 lea	 ecx, DWORD PTR _calData$11[ebp]
  000cb	c7 45 fc 01 00
	00 00		 mov	 DWORD PTR __$EHRec$[ebp+8], 1
  000d2	e8 00 00 00 00	 call	 ?GetPacket_X@CCoordinateCalculatorData@@QBEPAUIPacket133101@@XZ ; CCoordinateCalculatorData::GetPacket_X

; 348  : 		elementModifyData.SetPacket_X( pIPacket);

  000d7	50		 push	 eax
  000d8	8b cf		 mov	 ecx, edi
  000da	89 45 8c	 mov	 DWORD PTR _pIPacket$1$[ebp], eax
  000dd	e8 00 00 00 00	 call	 ?SetPacket_X@CElementModifyData@@QAEXPAUIPacket133101@@@Z ; CElementModifyData::SetPacket_X

; 349  : 		if( pIPacket) pIPacket->Release();

  000e2	8b 4d 8c	 mov	 ecx, DWORD PTR _pIPacket$1$[ebp]
  000e5	85 c9		 test	 ecx, ecx
  000e7	74 06		 je	 SHORT $LN20@GetElement
  000e9	8b 01		 mov	 eax, DWORD PTR [ecx]
  000eb	51		 push	 ecx
  000ec	ff 50 08	 call	 DWORD PTR [eax+8]
$LN20@GetElement:

; 350  : 		elementModifyData.SetPoint(CTool::GetCoordinateCalculator().GetGap(calData, m_lBtDownPoint, point));

  000ef	53		 push	 ebx
  000f0	8d 86 b0 00 00
	00		 lea	 eax, DWORD PTR [esi+176]
  000f6	8b ce		 mov	 ecx, esi
  000f8	50		 push	 eax
  000f9	8d 45 90	 lea	 eax, DWORD PTR _calData$11[ebp]
  000fc	50		 push	 eax
  000fd	8d 85 54 ff ff
	ff		 lea	 eax, DWORD PTR $T5[ebp]
  00103	50		 push	 eax
  00104	e8 00 00 00 00	 call	 ?GetCoordinateCalculator@CTool@@UBEAAVCCoordinateCalculator@@XZ ; CTool::GetCoordinateCalculator
  00109	8b c8		 mov	 ecx, eax
  0010b	e8 00 00 00 00	 call	 ?GetGap@CCoordinateCalculator@@QBE?AVCCoordinate@@ABVCCoordinateCalculatorData@@ABVCPoint@@1@Z ; CCoordinateCalculator::GetGap
  00110	50		 push	 eax
  00111	8b cf		 mov	 ecx, edi
  00113	c6 45 fc 02	 mov	 BYTE PTR __$EHRec$[ebp+8], 2
  00117	e8 00 00 00 00	 call	 ?SetPoint@CElementModifyData@@QAEXABVCCoordinate@@@Z ; CElementModifyData::SetPoint
  0011c	8d 8d 68 ff ff
	ff		 lea	 ecx, DWORD PTR $T5[ebp+20]
  00122	ff 15 00 00 00
	00		 call	 DWORD PTR __imp_??1?$CStringT@DV?$StrTraitMFC_DLL@DV?$ChTraitsCRT@D@ATL@@@@@ATL@@QAE@XZ

; 351  : 	}

  00128	8d 4d 90	 lea	 ecx, DWORD PTR _calData$11[ebp]
  0012b	e8 00 00 00 00	 call	 ??1CCoordinateCalculatorData@@QAE@XZ ; CCoordinateCalculatorData::~CCoordinateCalculatorData
  00130	e9 39 01 00 00	 jmp	 $LN51@GetElement
$LN18@GetElement:

; 352  : 	else
; 353  : 	{
; 354  : 		if( m_pSelectedElement->GetElementType() == CAnalysis::EN_ANALYSIS_CANDLE_LINE ||
; 355  : 			m_pSelectedElement->GetElementType() == CAnalysis::EN_ANALYSIS_LINEAR_REGRESSION ||

  00135	8b 4e 7c	 mov	 ecx, DWORD PTR [esi+124]
  00138	8b 01		 mov	 eax, DWORD PTR [ecx]
  0013a	ff 50 04	 call	 DWORD PTR [eax+4]
  0013d	83 f8 1e	 cmp	 eax, 30			; 0000001eH
  00140	74 1a		 je	 SHORT $LN22@GetElement
  00142	8b 4e 7c	 mov	 ecx, DWORD PTR [esi+124]
  00145	8b 01		 mov	 eax, DWORD PTR [ecx]
  00147	ff 50 04	 call	 DWORD PTR [eax+4]
  0014a	83 f8 1b	 cmp	 eax, 27			; 0000001bH
  0014d	74 0d		 je	 SHORT $LN22@GetElement
  0014f	8b 4e 7c	 mov	 ecx, DWORD PTR [esi+124]
  00152	8b 01		 mov	 eax, DWORD PTR [ecx]
  00154	ff 50 04	 call	 DWORD PTR [eax+4]
  00157	83 f8 1c	 cmp	 eax, 28			; 0000001cH
  0015a	75 3f		 jne	 SHORT $LN21@GetElement
$LN22@GetElement:

; 356  : 			m_pSelectedElement->GetElementType() == CAnalysis::EN_ANALYSIS_RAFF_REGRESSION)
; 357  : 		{
; 358  : 			CCoordinateCalculatorData calData = CTool::GetCoordinateCalculatorData(point);

  0015c	53		 push	 ebx
  0015d	8d 45 90	 lea	 eax, DWORD PTR _calData$10[ebp]
  00160	8b ce		 mov	 ecx, esi
  00162	50		 push	 eax
  00163	e8 00 00 00 00	 call	 ?GetCoordinateCalculatorData@CTool@@QBE?AVCCoordinateCalculatorData@@ABVCPoint@@@Z ; CTool::GetCoordinateCalculatorData

; 359  : 			IPacket *pIPacket = calData.GetPacket_X();

  00168	8d 4d 90	 lea	 ecx, DWORD PTR _calData$10[ebp]
  0016b	c7 45 fc 03 00
	00 00		 mov	 DWORD PTR __$EHRec$[ebp+8], 3
  00172	e8 00 00 00 00	 call	 ?GetPacket_X@CCoordinateCalculatorData@@QBEPAUIPacket133101@@XZ ; CCoordinateCalculatorData::GetPacket_X

; 360  : 			elementModifyData.SetPacket_X( pIPacket);

  00177	50		 push	 eax
  00178	8b cf		 mov	 ecx, edi
  0017a	89 45 8c	 mov	 DWORD PTR _pIPacket$1$[ebp], eax
  0017d	e8 00 00 00 00	 call	 ?SetPacket_X@CElementModifyData@@QAEXPAUIPacket133101@@@Z ; CElementModifyData::SetPacket_X

; 361  : 			if( pIPacket) pIPacket->Release();

  00182	8b 45 8c	 mov	 eax, DWORD PTR _pIPacket$1$[ebp]
  00185	85 c0		 test	 eax, eax
  00187	74 06		 je	 SHORT $LN23@GetElement
  00189	8b 08		 mov	 ecx, DWORD PTR [eax]
  0018b	50		 push	 eax
  0018c	ff 51 08	 call	 DWORD PTR [ecx+8]
$LN23@GetElement:

; 362  : 		}		

  0018f	8d 4d 90	 lea	 ecx, DWORD PTR _calData$10[ebp]
  00192	c6 45 fc 00	 mov	 BYTE PTR __$EHRec$[ebp+8], 0
  00196	e8 00 00 00 00	 call	 ??1CCoordinateCalculatorData@@QAE@XZ ; CCoordinateCalculatorData::~CCoordinateCalculatorData
$LN21@GetElement:

; 363  : 		elementModifyData.SetPoint(GetSavingPoint(point));

  0019b	53		 push	 ebx
  0019c	8d 85 54 ff ff
	ff		 lea	 eax, DWORD PTR $T4[ebp]
  001a2	8b ce		 mov	 ecx, esi
  001a4	50		 push	 eax
  001a5	e8 00 00 00 00	 call	 ?GetSavingPoint@CSelectingTool@@ABE?AVCCoordinate@@ABVCPoint@@@Z ; CSelectingTool::GetSavingPoint
  001aa	c7 45 fc 04 00
	00 00		 mov	 DWORD PTR __$EHRec$[ebp+8], 4

; 335  : 		GetElementModifyData_Data(point, elementModifyData);

  001b1	e9 a4 00 00 00	 jmp	 $LN52@GetElement
$LN3@GetElement:

; 369  : 	if(m_TypeModify == CToolEnumData::MODIFY_CENTER)

  001b6	83 7e 78 01	 cmp	 DWORD PTR [esi+120], 1
  001ba	0f 85 84 00 00
	00		 jne	 $LN36@GetElement

; 370  : 		//    - ojtaso (20080811)
; 371  : 		// 20081007 JS.Kim	 
; 372  : 		elementModifyData.SetPoint(CCoordinate((double)(point.x - m_lBtDownPoint.x), (double)(point.y - m_lBtDownPoint.y), 0, "", 0));

  001c0	68 00 00 00 00	 push	 OFFSET ??_C@_00CNPNBAHC@@
  001c5	8d 4d 8c	 lea	 ecx, DWORD PTR $T9[ebp]
  001c8	ff 15 00 00 00
	00		 call	 DWORD PTR __imp_??0?$CStringT@DV?$StrTraitMFC_DLL@DV?$ChTraitsCRT@D@ATL@@@@@ATL@@QAE@PBD@Z
  001ce	8b 43 04	 mov	 eax, DWORD PTR [ebx+4]
  001d1	8d 8d 54 ff ff
	ff		 lea	 ecx, DWORD PTR $T3[ebp]
  001d7	2b 86 b4 00 00
	00		 sub	 eax, DWORD PTR [esi+180]
  001dd	6a 00		 push	 0
  001df	c7 45 fc 05 00
	00 00		 mov	 DWORD PTR __$EHRec$[ebp+8], 5
  001e6	66 0f 6e c0	 movd	 xmm0, eax
  001ea	8b 03		 mov	 eax, DWORD PTR [ebx]
  001ec	2b 86 b0 00 00
	00		 sub	 eax, DWORD PTR [esi+176]
  001f2	f3 0f e6 c0	 cvtdq2pd xmm0, xmm0
  001f6	f2 0f 11 85 7c
	ff ff ff	 movsd	 QWORD PTR $T7[ebp], xmm0
  001fe	66 0f 6e c0	 movd	 xmm0, eax
  00202	8d 45 8c	 lea	 eax, DWORD PTR $T9[ebp]
  00205	50		 push	 eax
  00206	f3 0f e6 c0	 cvtdq2pd xmm0, xmm0
  0020a	6a 00		 push	 0
  0020c	8d 85 7c ff ff
	ff		 lea	 eax, DWORD PTR $T7[ebp]
  00212	50		 push	 eax
  00213	8d 85 74 ff ff
	ff		 lea	 eax, DWORD PTR $T6[ebp]
  00219	50		 push	 eax
  0021a	f2 0f 11 85 74
	ff ff ff	 movsd	 QWORD PTR $T6[ebp], xmm0
  00222	e8 00 00 00 00	 call	 ??0CCoordinate@@QAE@ABN0HABV?$CStringT@DV?$StrTraitMFC_DLL@DV?$ChTraitsCRT@D@ATL@@@@@ATL@@H@Z ; CCoordinate::CCoordinate
  00227	50		 push	 eax
  00228	8b cf		 mov	 ecx, edi
  0022a	c6 45 fc 06	 mov	 BYTE PTR __$EHRec$[ebp+8], 6
  0022e	e8 00 00 00 00	 call	 ?SetPoint@CElementModifyData@@QAEXABVCCoordinate@@@Z ; CElementModifyData::SetPoint
  00233	8d 8d 68 ff ff
	ff		 lea	 ecx, DWORD PTR $T3[ebp+20]
  00239	ff 15 00 00 00
	00		 call	 DWORD PTR __imp_??1?$CStringT@DV?$StrTraitMFC_DLL@DV?$ChTraitsCRT@D@ATL@@@@@ATL@@QAE@XZ
  0023f	8d 4d 8c	 lea	 ecx, DWORD PTR $T9[ebp]
  00242	eb 24		 jmp	 SHORT $LN53@GetElement
$LN36@GetElement:

; 373  : 	else
; 374  : 		elementModifyData.SetPoint(GetSavingPoint(point));

  00244	53		 push	 ebx
  00245	8d 85 54 ff ff
	ff		 lea	 eax, DWORD PTR $T2[ebp]
  0024b	8b ce		 mov	 ecx, esi
  0024d	50		 push	 eax
  0024e	e8 00 00 00 00	 call	 ?GetSavingPoint@CSelectingTool@@ABE?AVCCoordinate@@ABVCPoint@@@Z ; CSelectingTool::GetSavingPoint
  00253	c7 45 fc 07 00
	00 00		 mov	 DWORD PTR __$EHRec$[ebp+8], 7
$LN52@GetElement:

; 340  : }

  0025a	50		 push	 eax
  0025b	8b cf		 mov	 ecx, edi
  0025d	e8 00 00 00 00	 call	 ?SetPoint@CElementModifyData@@QAEXABVCCoordinate@@@Z ; CElementModifyData::SetPoint
  00262	8d 8d 68 ff ff
	ff		 lea	 ecx, DWORD PTR $T2[ebp+20]
$LN53@GetElement:
  00268	ff 15 00 00 00
	00		 call	 DWORD PTR __imp_??1?$CStringT@DV?$StrTraitMFC_DLL@DV?$ChTraitsCRT@D@ATL@@@@@ATL@@QAE@XZ
$LN51@GetElement:
  0026e	8b c7		 mov	 eax, edi
  00270	8b 4d f4	 mov	 ecx, DWORD PTR __$EHRec$[ebp]
  00273	64 89 0d 00 00
	00 00		 mov	 DWORD PTR fs:0, ecx
  0027a	59		 pop	 ecx
  0027b	5f		 pop	 edi
  0027c	5e		 pop	 esi
  0027d	5b		 pop	 ebx
  0027e	8b 4d f0	 mov	 ecx, DWORD PTR __$ArrayPad$[ebp]
  00281	33 cd		 xor	 ecx, ebp
  00283	e8 00 00 00 00	 call	 @__security_check_cookie@4
  00288	8b e5		 mov	 esp, ebp
  0028a	5d		 pop	 ebp
  0028b	c2 08 00	 ret	 8
_TEXT	ENDS
;	COMDAT text$x
text$x	SEGMENT
__unwindfunclet$?GetElementModifyData@CSelectingTool@@QBE?AVCElementModifyData@@ABVCPoint@@@Z$0:
  00000	8b 45 88	 mov	 eax, DWORD PTR $T8[ebp]
  00003	83 e0 01	 and	 eax, 1
  00006	0f 84 0c 00 00
	00		 je	 $LN7@GetElement
  0000c	83 65 88 fe	 and	 DWORD PTR $T8[ebp], -2	; fffffffeH
  00010	8b 4d 84	 mov	 ecx, DWORD PTR ___$ReturnUdt$GSCopy$[ebp]
  00013	e9 00 00 00 00	 jmp	 ??1CElementModifyData@@QAE@XZ ; CElementModifyData::~CElementModifyData
$LN7@GetElement:
  00018	c3		 ret	 0
__unwindfunclet$?GetElementModifyData@CSelectingTool@@QBE?AVCElementModifyData@@ABVCPoint@@@Z$1:
  00019	8d 4d 90	 lea	 ecx, DWORD PTR _calData$11[ebp]
  0001c	e9 00 00 00 00	 jmp	 ??1CCoordinateCalculatorData@@QAE@XZ ; CCoordinateCalculatorData::~CCoordinateCalculatorData
__unwindfunclet$?GetElementModifyData@CSelectingTool@@QBE?AVCElementModifyData@@ABVCPoint@@@Z$2:
  00021	8d 8d 54 ff ff
	ff		 lea	 ecx, DWORD PTR $T5[ebp]
  00027	e9 00 00 00 00	 jmp	 ??1CCoordinate@@QAE@XZ
__unwindfunclet$?GetElementModifyData@CSelectingTool@@QBE?AVCElementModifyData@@ABVCPoint@@@Z$3:
  0002c	8d 4d 90	 lea	 ecx, DWORD PTR _calData$10[ebp]
  0002f	e9 00 00 00 00	 jmp	 ??1CCoordinateCalculatorData@@QAE@XZ ; CCoordinateCalculatorData::~CCoordinateCalculatorData
__unwindfunclet$?GetElementModifyData@CSelectingTool@@QBE?AVCElementModifyData@@ABVCPoint@@@Z$4:
  00034	8d 8d 54 ff ff
	ff		 lea	 ecx, DWORD PTR $T4[ebp]
  0003a	e9 00 00 00 00	 jmp	 ??1CCoordinate@@QAE@XZ
__unwindfunclet$?GetElementModifyData@CSelectingTool@@QBE?AVCElementModifyData@@ABVCPoint@@@Z$7:
  0003f	8d 4d 8c	 lea	 ecx, DWORD PTR $T9[ebp]
  00042	ff 25 00 00 00
	00		 jmp	 DWORD PTR __imp_??1?$CStringT@DV?$StrTraitMFC_DLL@DV?$ChTraitsCRT@D@ATL@@@@@ATL@@QAE@XZ
__unwindfunclet$?GetElementModifyData@CSelectingTool@@QBE?AVCElementModifyData@@ABVCPoint@@@Z$8:
  00048	8d 8d 54 ff ff
	ff		 lea	 ecx, DWORD PTR $T3[ebp]
  0004e	e9 00 00 00 00	 jmp	 ??1CCoordinate@@QAE@XZ
__unwindfunclet$?GetElementModifyData@CSelectingTool@@QBE?AVCElementModifyData@@ABVCPoint@@@Z$9:
  00053	8d 8d 54 ff ff
	ff		 lea	 ecx, DWORD PTR $T2[ebp]
  00059	e9 00 00 00 00	 jmp	 ??1CCoordinate@@QAE@XZ
  0005e	cc		 int	 3
  0005f	cc		 int	 3
  00060	cc		 int	 3
  00061	cc		 int	 3
  00062	cc		 int	 3
__ehhandler$?GetElementModifyData@CSelectingTool@@QBE?AVCElementModifyData@@ABVCPoint@@@Z:
  00063	90		 npad	 1
  00064	90		 npad	 1
  00065	8b 54 24 08	 mov	 edx, DWORD PTR [esp+8]
  00069	8d 42 0c	 lea	 eax, DWORD PTR [edx+12]
  0006c	8b 8a 50 ff ff
	ff		 mov	 ecx, DWORD PTR [edx-176]
  00072	33 c8		 xor	 ecx, eax
  00074	e8 00 00 00 00	 call	 @__security_check_cookie@4
  00079	8b 4a fc	 mov	 ecx, DWORD PTR [edx-4]
  0007c	33 c8		 xor	 ecx, eax
  0007e	e8 00 00 00 00	 call	 @__security_check_cookie@4
  00083	b8 00 00 00 00	 mov	 eax, OFFSET __ehfuncinfo$?GetElementModifyData@CSelectingTool@@QBE?AVCElementModifyData@@ABVCPoint@@@Z
  00088	e9 00 00 00 00	 jmp	 ___CxxFrameHandler3
text$x	ENDS
?GetElementModifyData@CSelectingTool@@QBE?AVCElementModifyData@@ABVCPoint@@@Z ENDP ; CSelectingTool::GetElementModifyData
; Function compile flags: /Ogtp
; File D:\git\src\IBK\IBK_DRFN\ProjSrc\SrcChartEx\ChartAddIn\ChartAnalysisToolAddIn\AnalysisTool\Selecting.cpp
;	COMDAT ?GetDrawingPoint@CSelectingTool@@QBE?AVCPoint@@ABV2@@Z
_TEXT	SEGMENT
_calData$ = -112					; size = 96
__$ArrayPad$ = -16					; size = 4
__$EHRec$ = -12						; size = 12
___$ReturnUdt$ = 8					; size = 4
_point$ = 12						; size = 4
?GetDrawingPoint@CSelectingTool@@QBE?AVCPoint@@ABV2@@Z PROC ; CSelectingTool::GetDrawingPoint, COMDAT
; _this$ = ecx

; 270  : {

  00000	55		 push	 ebp
  00001	8b ec		 mov	 ebp, esp
  00003	6a ff		 push	 -1
  00005	68 00 00 00 00	 push	 __ehhandler$?GetDrawingPoint@CSelectingTool@@QBE?AVCPoint@@ABV2@@Z
  0000a	64 a1 00 00 00
	00		 mov	 eax, DWORD PTR fs:0
  00010	50		 push	 eax
  00011	83 ec 64	 sub	 esp, 100		; 00000064H
  00014	a1 00 00 00 00	 mov	 eax, DWORD PTR ___security_cookie
  00019	33 c5		 xor	 eax, ebp
  0001b	89 45 f0	 mov	 DWORD PTR __$ArrayPad$[ebp], eax
  0001e	53		 push	 ebx
  0001f	56		 push	 esi
  00020	57		 push	 edi
  00021	50		 push	 eax
  00022	8d 45 f4	 lea	 eax, DWORD PTR __$EHRec$[ebp]
  00025	64 a3 00 00 00
	00		 mov	 DWORD PTR fs:0, eax
  0002b	8b f9		 mov	 edi, ecx

; 264  : 	return (pElement != NULL && modifyType != CToolEnumData::MODIFY_NONE);

  0002d	8b 4f 7c	 mov	 ecx, DWORD PTR [edi+124]

; 270  : {

  00030	8b 75 08	 mov	 esi, DWORD PTR ___$ReturnUdt$[ebp]
  00033	8b 5d 0c	 mov	 ebx, DWORD PTR _point$[ebp]

; 264  : 	return (pElement != NULL && modifyType != CToolEnumData::MODIFY_NONE);

  00036	85 c9		 test	 ecx, ecx
  00038	74 40		 je	 SHORT $LN14@GetDrawing
  0003a	83 7f 78 00	 cmp	 DWORD PTR [edi+120], 0
  0003e	74 3a		 je	 SHORT $LN14@GetDrawing

; 258  : 	return (m_pSelectedElement->GetCoordinateType() == CAnalysis::RELATIVE_POINT);

  00040	e8 00 00 00 00	 call	 ?GetCoordinateType@CElement@@QBE?AW4COORDINATETYPE@CAnalysis@@XZ ; CElement::GetCoordinateType

; 271  : 	if(!IsRelativePointType())

  00045	85 c0		 test	 eax, eax
  00047	75 31		 jne	 SHORT $LN14@GetDrawing

; 273  : 
; 274  : 	CCoordinateCalculatorData calData = CTool::GetCoordinateCalculatorData(point);

  00049	53		 push	 ebx
  0004a	8d 45 90	 lea	 eax, DWORD PTR _calData$[ebp]
  0004d	8b cf		 mov	 ecx, edi
  0004f	50		 push	 eax
  00050	e8 00 00 00 00	 call	 ?GetCoordinateCalculatorData@CTool@@QBE?AVCCoordinateCalculatorData@@ABVCPoint@@@Z ; CTool::GetCoordinateCalculatorData

; 275  : 	return CTool::GetCoordinateCalculator().AbsoluteToAbsolute(calData, point);

  00055	53		 push	 ebx
  00056	8d 45 90	 lea	 eax, DWORD PTR _calData$[ebp]
  00059	c7 45 fc 00 00
	00 00		 mov	 DWORD PTR __$EHRec$[ebp+8], 0
  00060	50		 push	 eax
  00061	56		 push	 esi
  00062	8b cf		 mov	 ecx, edi
  00064	e8 00 00 00 00	 call	 ?GetCoordinateCalculator@CTool@@UBEAAVCCoordinateCalculator@@XZ ; CTool::GetCoordinateCalculator
  00069	8b c8		 mov	 ecx, eax
  0006b	e8 00 00 00 00	 call	 ?AbsoluteToAbsolute@CCoordinateCalculator@@QBE?AVCPoint@@ABVCCoordinateCalculatorData@@ABV2@@Z ; CCoordinateCalculator::AbsoluteToAbsolute
  00070	8d 4d 90	 lea	 ecx, DWORD PTR _calData$[ebp]
  00073	e8 00 00 00 00	 call	 ??1CCoordinateCalculatorData@@QAE@XZ ; CCoordinateCalculatorData::~CCoordinateCalculatorData
  00078	eb 0a		 jmp	 SHORT $LN17@GetDrawing
$LN14@GetDrawing:

; 272  : 		return point;

  0007a	8b 03		 mov	 eax, DWORD PTR [ebx]
  0007c	8b 4b 04	 mov	 ecx, DWORD PTR [ebx+4]
  0007f	89 06		 mov	 DWORD PTR [esi], eax
  00081	89 4e 04	 mov	 DWORD PTR [esi+4], ecx
$LN17@GetDrawing:

; 276  : }

  00084	8b c6		 mov	 eax, esi
  00086	8b 4d f4	 mov	 ecx, DWORD PTR __$EHRec$[ebp]
  00089	64 89 0d 00 00
	00 00		 mov	 DWORD PTR fs:0, ecx
  00090	59		 pop	 ecx
  00091	5f		 pop	 edi
  00092	5e		 pop	 esi
  00093	5b		 pop	 ebx
  00094	8b 4d f0	 mov	 ecx, DWORD PTR __$ArrayPad$[ebp]
  00097	33 cd		 xor	 ecx, ebp
  00099	e8 00 00 00 00	 call	 @__security_check_cookie@4
  0009e	8b e5		 mov	 esp, ebp
  000a0	5d		 pop	 ebp
  000a1	c2 08 00	 ret	 8
_TEXT	ENDS
;	COMDAT text$x
text$x	SEGMENT
__unwindfunclet$?GetDrawingPoint@CSelectingTool@@QBE?AVCPoint@@ABV2@@Z$0:
  00000	8d 4d 90	 lea	 ecx, DWORD PTR _calData$[ebp]
  00003	e9 00 00 00 00	 jmp	 ??1CCoordinateCalculatorData@@QAE@XZ ; CCoordinateCalculatorData::~CCoordinateCalculatorData
  00008	cc		 int	 3
  00009	cc		 int	 3
  0000a	cc		 int	 3
  0000b	cc		 int	 3
  0000c	cc		 int	 3
__ehhandler$?GetDrawingPoint@CSelectingTool@@QBE?AVCPoint@@ABV2@@Z:
  0000d	90		 npad	 1
  0000e	90		 npad	 1
  0000f	8b 54 24 08	 mov	 edx, DWORD PTR [esp+8]
  00013	8d 42 0c	 lea	 eax, DWORD PTR [edx+12]
  00016	8b 4a 8c	 mov	 ecx, DWORD PTR [edx-116]
  00019	33 c8		 xor	 ecx, eax
  0001b	e8 00 00 00 00	 call	 @__security_check_cookie@4
  00020	8b 4a fc	 mov	 ecx, DWORD PTR [edx-4]
  00023	33 c8		 xor	 ecx, eax
  00025	e8 00 00 00 00	 call	 @__security_check_cookie@4
  0002a	b8 00 00 00 00	 mov	 eax, OFFSET __ehfuncinfo$?GetDrawingPoint@CSelectingTool@@QBE?AVCPoint@@ABV2@@Z
  0002f	e9 00 00 00 00	 jmp	 ___CxxFrameHandler3
text$x	ENDS
?GetDrawingPoint@CSelectingTool@@QBE?AVCPoint@@ABV2@@Z ENDP ; CSelectingTool::GetDrawingPoint
; Function compile flags: /Ogtp
; File D:\git\src\IBK\IBK_DRFN\ProjSrc\SrcChartEx\ChartAddIn\ChartAnalysisToolAddIn\AnalysisTool\Selecting.cpp
;	COMDAT ?SavePoints@CSelectingTool@@MAEXABVCPoints@@@Z
_TEXT	SEGMENT
_points$ = 8						; size = 4
?SavePoints@CSelectingTool@@MAEXABVCPoints@@@Z PROC	; CSelectingTool::SavePoints, COMDAT
; _this$ = ecx

; 242  : {

  00000	55		 push	 ebp
  00001	8b ec		 mov	 ebp, esp

; 243  : 	m_oldSelectedPt = points;

  00003	81 c1 88 00 00
	00		 add	 ecx, 136		; 00000088H

; 244  : }

  00009	5d		 pop	 ebp

; 243  : 	m_oldSelectedPt = points;

  0000a	e9 00 00 00 00	 jmp	 ??4CPoints@@QAEAAV0@ABV0@@Z ; CPoints::operator=
?SavePoints@CSelectingTool@@MAEXABVCPoints@@@Z ENDP	; CSelectingTool::SavePoints
_TEXT	ENDS
; Function compile flags: /Ogtp
; File D:\git\src\IBK\IBK_DRFN\ProjSrc\SrcChartEx\ChartAddIn\ChartAnalysisToolAddIn\AnalysisTool\Selecting.cpp
;	COMDAT ?GetToolType@CSelectingTool@@MBE?AW4TOOLTYPE@CAnalysis@@XZ
_TEXT	SEGMENT
?GetToolType@CSelectingTool@@MBE?AW4TOOLTYPE@CAnalysis@@XZ PROC ; CSelectingTool::GetToolType, COMDAT
; _this$ = ecx

; 231  : 	return CAnalysis::EN_ANALYSIS_SELECTION;

  00000	33 c0		 xor	 eax, eax

; 232  : }

  00002	c3		 ret	 0
?GetToolType@CSelectingTool@@MBE?AW4TOOLTYPE@CAnalysis@@XZ ENDP ; CSelectingTool::GetToolType
_TEXT	ENDS
; Function compile flags: /Ogtp
; File D:\git\src\IBK\IBK_DRFN\ProjSrc\SrcChartEx\ChartAddIn\ChartAnalysisToolAddIn\AnalysisTool\Selecting.cpp
;	COMDAT ?OnDraw@CSelectingTool@@UAEXPAVCDC@@@Z
_TEXT	SEGMENT
_pDC$ = 8						; size = 4
?OnDraw@CSelectingTool@@UAEXPAVCDC@@@Z PROC		; CSelectingTool::OnDraw, COMDAT
; _this$ = ecx

; 217  : 	if(m_pSelectedElement == NULL) 

  00000	83 79 7c 00	 cmp	 DWORD PTR [ecx+124], 0
  00004	74 0b		 je	 SHORT $LN3@OnDraw

; 264  : 	return (pElement != NULL && modifyType != CToolEnumData::MODIFY_NONE);

  00006	83 79 78 00	 cmp	 DWORD PTR [ecx+120], 0
  0000a	75 05		 jne	 SHORT $LN3@OnDraw

; 218  : 		return;
; 219  : 
; 220  : 	if(!IsSelectedElement()){
; 221  : 		CTool::GetDrawingRegions();

  0000c	e8 00 00 00 00	 call	 ?GetDrawingRegions@CTool@@IAEAAVCDrawingRegions@@XZ ; CTool::GetDrawingRegions
$LN3@OnDraw:

; 222  : 		return;
; 223  : 	}
; 224  : 
; 225  : 	//Draw_EndPoint(pDC);
; 226  : }

  00011	c2 04 00	 ret	 4
?OnDraw@CSelectingTool@@UAEXPAVCDC@@@Z ENDP		; CSelectingTool::OnDraw
_TEXT	ENDS
; Function compile flags: /Ogtp
; File D:\git\src\IBK\IBK_DRFN\ProjSrc\SrcChartEx\ChartAddIn\ChartAnalysisToolAddIn\AnalysisTool\Selecting.cpp
;	COMDAT ?OnMouseMove@CSelectingTool@@UAE_NPAVCDC@@ABVCPoint@@H@Z
_TEXT	SEGMENT
$T2 = -396						; size = 40
$T3 = -356						; size = 32
_points$4 = -324					; size = 40
$T5 = -284						; size = 8
$T6 = -276						; size = 8
$T7 = -268						; size = 8
_pDC$GSCopy$1$ = -260					; size = 4
_modifyType$8 = -260					; size = 4
$T9 = -256						; size = 144
_calData$10 = -112					; size = 96
__$ArrayPad$11 = -16					; size = 4
__$EHRec$ = -12						; size = 12
_pDC$ = 8						; size = 4
_point$ = 12						; size = 4
_nFlags$ = 16						; size = 4
?OnMouseMove@CSelectingTool@@UAE_NPAVCDC@@ABVCPoint@@H@Z PROC ; CSelectingTool::OnMouseMove, COMDAT
; _this$ = ecx

; 183  : {

  00000	55		 push	 ebp
  00001	8b ec		 mov	 ebp, esp
  00003	6a ff		 push	 -1
  00005	68 00 00 00 00	 push	 __ehhandler$?OnMouseMove@CSelectingTool@@UAE_NPAVCDC@@ABVCPoint@@H@Z
  0000a	64 a1 00 00 00
	00		 mov	 eax, DWORD PTR fs:0
  00010	50		 push	 eax
  00011	81 ec 80 01 00
	00		 sub	 esp, 384		; 00000180H
  00017	a1 00 00 00 00	 mov	 eax, DWORD PTR ___security_cookie
  0001c	33 c5		 xor	 eax, ebp
  0001e	89 45 f0	 mov	 DWORD PTR __$ArrayPad$11[ebp], eax
  00021	53		 push	 ebx
  00022	56		 push	 esi
  00023	57		 push	 edi
  00024	50		 push	 eax
  00025	8d 45 f4	 lea	 eax, DWORD PTR __$EHRec$[ebp]
  00028	64 a3 00 00 00
	00		 mov	 DWORD PTR fs:0, eax
  0002e	8b d9		 mov	 ebx, ecx

; 184  : 	if(nFlags != MK_LBUTTON)

  00030	83 7d 10 01	 cmp	 DWORD PTR _nFlags$[ebp], 1
  00034	8b 45 08	 mov	 eax, DWORD PTR _pDC$[ebp]
  00037	8b 75 0c	 mov	 esi, DWORD PTR _point$[ebp]
  0003a	89 85 fc fe ff
	ff		 mov	 DWORD PTR _pDC$GSCopy$1$[ebp], eax
  00040	0f 85 63 01 00
	00		 jne	 $LN18@OnMouseMov

; 264  : 	return (pElement != NULL && modifyType != CToolEnumData::MODIFY_NONE);

  00046	83 7b 7c 00	 cmp	 DWORD PTR [ebx+124], 0
  0004a	0f 84 79 01 00
	00		 je	 $LN67@OnMouseMov
  00050	8b 43 78	 mov	 eax, DWORD PTR [ebx+120]
  00053	85 c0		 test	 eax, eax
  00055	0f 84 6e 01 00
	00		 je	 $LN67@OnMouseMov

; 422  : 	switch(m_TypeModify){

  0005b	48		 dec	 eax
  0005c	83 f8 05	 cmp	 eax, 5
  0005f	0f 87 3b 01 00
	00		 ja	 $LN4@OnMouseMov
  00065	0f b6 80 00 00
	00 00		 movzx	 eax, BYTE PTR $LN71@OnMouseMov[eax]
  0006c	ff 24 85 00 00
	00 00		 jmp	 DWORD PTR $LN72@OnMouseMov[eax*4]
$LN23@OnMouseMov:

; 439  : 	if(!PointInDrawingRegion(point))

  00073	8b 03		 mov	 eax, DWORD PTR [ebx]
  00075	56		 push	 esi
  00076	8b 40 1c	 mov	 eax, DWORD PTR [eax+28]
  00079	ff d0		 call	 eax
  0007b	84 c0		 test	 al, al
  0007d	0f 84 1d 01 00
	00		 je	 $LN4@OnMouseMov

; 440  : 		return false;
; 441  :     
; 442  : 	CPoints points = CTool::GetPoints(point);

  00083	56		 push	 esi
  00084	8d 85 bc fe ff
	ff		 lea	 eax, DWORD PTR _points$4[ebp]
  0008a	8b cb		 mov	 ecx, ebx
  0008c	50		 push	 eax
  0008d	e8 00 00 00 00	 call	 ?GetPoints@CTool@@IBE?AVCPoints@@ABVCPoint@@@Z ; CTool::GetPoints

; 451  : 	SavePoints(points);

  00092	8b 03		 mov	 eax, DWORD PTR [ebx]
  00094	8d 8d bc fe ff
	ff		 lea	 ecx, DWORD PTR _points$4[ebp]
  0009a	51		 push	 ecx
  0009b	8b cb		 mov	 ecx, ebx

; 442  : 	CPoints points = CTool::GetPoints(point);

  0009d	c7 45 fc 00 00
	00 00		 mov	 DWORD PTR __$EHRec$[ebp+8], 0

; 451  : 	SavePoints(points);

  000a4	ff 50 20	 call	 DWORD PTR [eax+32]

; 318  : 	CCoordinateCalculatorData calData = CTool::GetCoordinateCalculatorData(points.GetDrawingPoint());

  000a7	8d 85 f4 fe ff
	ff		 lea	 eax, DWORD PTR $T7[ebp]
  000ad	50		 push	 eax
  000ae	8d 8b 88 00 00
	00		 lea	 ecx, DWORD PTR [ebx+136]
  000b4	e8 00 00 00 00	 call	 ?GetDrawingPoint@CPoints@@QBE?AVCPoint@@XZ ; CPoints::GetDrawingPoint
  000b9	50		 push	 eax
  000ba	8d 45 90	 lea	 eax, DWORD PTR _calData$10[ebp]
  000bd	8b cb		 mov	 ecx, ebx
  000bf	50		 push	 eax
  000c0	e8 00 00 00 00	 call	 ?GetCoordinateCalculatorData@CTool@@QBE?AVCCoordinateCalculatorData@@ABVCPoint@@@Z ; CTool::GetCoordinateCalculatorData

; 319  : 	return CSelectedElementDrawingData(m_TypeModify,&CTool::GetDrawingRegions(), calData, 

  000c5	8d 85 9c fe ff
	ff		 lea	 eax, DWORD PTR $T3[ebp]
  000cb	c6 45 fc 01	 mov	 BYTE PTR __$EHRec$[ebp+8], 1
  000cf	50		 push	 eax
  000d0	8d 8b 88 00 00
	00		 lea	 ecx, DWORD PTR [ebx+136]
  000d6	e8 00 00 00 00	 call	 ?GetSavingPoint@CPoints@@QBE?AVCCoordinate@@XZ ; CPoints::GetSavingPoint
  000db	8b f0		 mov	 esi, eax
  000dd	8d 85 ec fe ff
	ff		 lea	 eax, DWORD PTR $T6[ebp]
  000e3	c6 45 fc 02	 mov	 BYTE PTR __$EHRec$[ebp+8], 2
  000e7	50		 push	 eax
  000e8	8d 8b 88 00 00
	00		 lea	 ecx, DWORD PTR [ebx+136]
  000ee	e8 00 00 00 00	 call	 ?GetDrawingPoint@CPoints@@QBE?AVCPoint@@XZ ; CPoints::GetDrawingPoint
  000f3	50		 push	 eax
  000f4	8d 45 90	 lea	 eax, DWORD PTR _calData$10[ebp]
  000f7	8b cb		 mov	 ecx, ebx
  000f9	50		 push	 eax
  000fa	8d 85 e4 fe ff
	ff		 lea	 eax, DWORD PTR $T5[ebp]
  00100	50		 push	 eax
  00101	e8 00 00 00 00	 call	 ?GetSelectedElementDrawPoint@CSelectingTool@@ABE?AVCPoint@@ABVCCoordinateCalculatorData@@ABV2@@Z ; CSelectingTool::GetSelectedElementDrawPoint
  00106	50		 push	 eax
  00107	56		 push	 esi
  00108	8d 8d 74 fe ff
	ff		 lea	 ecx, DWORD PTR $T2[ebp]
  0010e	e8 00 00 00 00	 call	 ??0CPoints@@QAE@ABVCCoordinate@@ABVCPoint@@@Z ; CPoints::CPoints
  00113	50		 push	 eax
  00114	8d 45 90	 lea	 eax, DWORD PTR _calData$10[ebp]
  00117	c6 45 fc 03	 mov	 BYTE PTR __$EHRec$[ebp+8], 3
  0011b	50		 push	 eax
  0011c	8b cb		 mov	 ecx, ebx
  0011e	e8 00 00 00 00	 call	 ?GetDrawingRegions@CTool@@IAEAAVCDrawingRegions@@XZ ; CTool::GetDrawingRegions
  00123	50		 push	 eax
  00124	ff 73 78	 push	 DWORD PTR [ebx+120]
  00127	8d 8d 00 ff ff
	ff		 lea	 ecx, DWORD PTR $T9[ebp]
  0012d	e8 00 00 00 00	 call	 ??0CSelectedElementDrawingData@@QAE@W4ModifyType@CToolEnumData@@PAVCDrawingRegions@@ABVCCoordinateCalculatorData@@ABVCPoints@@@Z ; CSelectedElementDrawingData::CSelectedElementDrawingData
  00132	8d 8d 88 fe ff
	ff		 lea	 ecx, DWORD PTR $T2[ebp+20]
  00138	ff 15 00 00 00
	00		 call	 DWORD PTR __imp_??1?$CStringT@DV?$StrTraitMFC_DLL@DV?$ChTraitsCRT@D@ATL@@@@@ATL@@QAE@XZ
  0013e	8d 8d b0 fe ff
	ff		 lea	 ecx, DWORD PTR $T3[ebp+20]
  00144	ff 15 00 00 00
	00		 call	 DWORD PTR __imp_??1?$CStringT@DV?$StrTraitMFC_DLL@DV?$ChTraitsCRT@D@ATL@@@@@ATL@@QAE@XZ
  0014a	8d 4d 90	 lea	 ecx, DWORD PTR _calData$10[ebp]
  0014d	e8 00 00 00 00	 call	 ??1CCoordinateCalculatorData@@QAE@XZ ; CCoordinateCalculatorData::~CCoordinateCalculatorData

; 462  : 	m_pSelectedElement->DrawSelected(pDC, GetSelectedElementDrawData(m_oldSelectedPt));

  00152	8b 4b 7c	 mov	 ecx, DWORD PTR [ebx+124]
  00155	8d 95 00 ff ff
	ff		 lea	 edx, DWORD PTR $T9[ebp]
  0015b	52		 push	 edx
  0015c	ff b5 fc fe ff
	ff		 push	 DWORD PTR _pDC$GSCopy$1$[ebp]
  00162	c6 45 fc 04	 mov	 BYTE PTR __$EHRec$[ebp+8], 4
  00166	8b 01		 mov	 eax, DWORD PTR [ecx]
  00168	ff 50 30	 call	 DWORD PTR [eax+48]
  0016b	8d 4d 84	 lea	 ecx, DWORD PTR $T9[ebp+132]
  0016e	ff 15 00 00 00
	00		 call	 DWORD PTR __imp_??1?$CStringT@DV?$StrTraitMFC_DLL@DV?$ChTraitsCRT@D@ATL@@@@@ATL@@QAE@XZ
  00174	8d 8d 08 ff ff
	ff		 lea	 ecx, DWORD PTR $T9[ebp+8]
  0017a	e8 00 00 00 00	 call	 ??1CCoordinateCalculatorData@@QAE@XZ ; CCoordinateCalculatorData::~CCoordinateCalculatorData
  0017f	8d 8d d0 fe ff
	ff		 lea	 ecx, DWORD PTR _points$4[ebp+20]

; 444  : 	return true;

  00185	c7 45 fc ff ff
	ff ff		 mov	 DWORD PTR __$EHRec$[ebp+8], -1
  0018c	ff 15 00 00 00
	00		 call	 DWORD PTR __imp_??1?$CStringT@DV?$StrTraitMFC_DLL@DV?$ChTraitsCRT@D@ATL@@@@@ATL@@QAE@XZ

; 191  : 		return FindElement(point);
; 192  : 	}
; 193  : 	
; 194  : 	/*if( m_pSelectedElement->GetElementType() == CAnalysis::EN_ANALYSIS_CANDLE_BONG)
; 195  : 	{
; 196  : 		CElementModifyData modifyData = GetElementModifyData(point);
; 197  : 		switch(m_TypeModify){
; 198  : 		case CToolEnumData::MODIFY_START:
; 199  : 		case CToolEnumData::MODIFY_END:
; 200  : 			m_pSelectedElement->ElementModify_YValue(modifyData);
; 201  : 			break;
; 202  : 		}
; 203  : 	}*/
; 204  : 
; 205  : 	//  element 
; 206  : 	if(ModifyElement(pDC, point)){
; 207  : 		CTool::ChangeCursor(m_TypeModify);

  00192	ff 73 78	 push	 DWORD PTR [ebx+120]
  00195	8b cb		 mov	 ecx, ebx
  00197	e8 00 00 00 00	 call	 ?ChangeCursor@CTool@@IAEXW4ModifyType@CToolEnumData@@@Z ; CTool::ChangeCursor

; 208  : 		return true;

  0019c	b0 01		 mov	 al, 1
  0019e	eb 0b		 jmp	 SHORT $LN1@OnMouseMov
$LN4@OnMouseMov:

; 209  : 	}
; 210  : 
; 211  : 	CTool::ChangeCursor(CToolEnumData::DRAW_NODROP);

  001a0	6a 02		 push	 2
  001a2	8b cb		 mov	 ecx, ebx
  001a4	e8 00 00 00 00	 call	 ?ChangeCursor@CTool@@IAEXW4DrawType@CToolEnumData@@@Z ; CTool::ChangeCursor
$LN18@OnMouseMov:

; 212  : 	return false;
; 213  : }

  001a9	32 c0		 xor	 al, al
$LN1@OnMouseMov:
  001ab	8b 4d f4	 mov	 ecx, DWORD PTR __$EHRec$[ebp]
  001ae	64 89 0d 00 00
	00 00		 mov	 DWORD PTR fs:0, ecx
  001b5	59		 pop	 ecx
  001b6	5f		 pop	 edi
  001b7	5e		 pop	 esi
  001b8	5b		 pop	 ebx
  001b9	8b 4d f0	 mov	 ecx, DWORD PTR __$ArrayPad$11[ebp]
  001bc	33 cd		 xor	 ecx, ebp
  001be	e8 00 00 00 00	 call	 @__security_check_cookie@4
  001c3	8b e5		 mov	 esp, ebp
  001c5	5d		 pop	 ebp
  001c6	c2 0c 00	 ret	 12			; 0000000cH
$LN67@OnMouseMov:

; 185  : 		return false;
; 186  : 
; 187  : 	//m_ptOldMouse = point;
; 188  : 	// element  ->   element  .
; 189  : 	if(!IsSelectedElement()){
; 190  : 		CTool::ChangeCursor(CToolEnumData::MODIFY_NONE);

  001c9	6a 00		 push	 0
  001cb	e8 00 00 00 00	 call	 ?ChangeCursor@CTool@@IAEXW4ModifyType@CToolEnumData@@@Z ; CTool::ChangeCursor

; 387  : 	if(!CTool::DoesElements())

  001d0	8b cb		 mov	 ecx, ebx
  001d2	e8 00 00 00 00	 call	 ?DoesElements@CTool@@QBE_NXZ ; CTool::DoesElements
  001d7	84 c0		 test	 al, al
  001d9	74 ce		 je	 SHORT $LN18@OnMouseMov

; 388  : 		return false;
; 389  : 
; 390  : 	CTool::SetDrawingRegions(point);

  001db	56		 push	 esi
  001dc	8b cb		 mov	 ecx, ebx
  001de	e8 00 00 00 00	 call	 ?SetDrawingRegions@CTool@@IAEXABVCPoint@@@Z ; CTool::SetDrawingRegions

; 391  : 	CToolEnumData::ModifyType modifyType = CToolEnumData::MODIFY_NONE;
; 392  : 	CElement* pElement = FindElement(point, modifyType);

  001e3	8d 85 fc fe ff
	ff		 lea	 eax, DWORD PTR _modifyType$8[ebp]
  001e9	c7 85 fc fe ff
	ff 00 00 00 00	 mov	 DWORD PTR _modifyType$8[ebp], 0
  001f3	50		 push	 eax
  001f4	56		 push	 esi
  001f5	8b cb		 mov	 ecx, ebx
  001f7	e8 00 00 00 00	 call	 ?FindElement@CSelectingTool@@AAEPAVCElement@@ABVCPoint@@AAW4ModifyType@CToolEnumData@@@Z ; CSelectingTool::FindElement

; 264  : 	return (pElement != NULL && modifyType != CToolEnumData::MODIFY_NONE);

  001fc	85 c0		 test	 eax, eax
  001fe	74 a9		 je	 SHORT $LN18@OnMouseMov
  00200	8b 85 fc fe ff
	ff		 mov	 eax, DWORD PTR _modifyType$8[ebp]
  00206	85 c0		 test	 eax, eax
  00208	74 9f		 je	 SHORT $LN18@OnMouseMov

; 396  : 	CTool::ChangeCursor(modifyType);

  0020a	50		 push	 eax
  0020b	8b cb		 mov	 ecx, ebx
  0020d	e8 00 00 00 00	 call	 ?ChangeCursor@CTool@@IAEXW4ModifyType@CToolEnumData@@@Z ; CTool::ChangeCursor

; 397  : 	return true;

  00212	b0 01		 mov	 al, 1
  00214	eb 95		 jmp	 SHORT $LN1@OnMouseMov
  00216	66 90		 npad	 2
$LN72@OnMouseMov:

; 212  : 	return false;
; 213  : }

  00218	00 00 00 00	 DD	 $LN23@OnMouseMov
$LN71@OnMouseMov:
  0021c	00		 DB	 0
  0021d	00		 DB	 0
  0021e	00		 DB	 0
  0021f	00		 DB	 0
  00220	00		 DB	 0
  00221	00		 DB	 0
_TEXT	ENDS
;	COMDAT text$x
text$x	SEGMENT
__unwindfunclet$?OnMouseMove@CSelectingTool@@UAE_NPAVCDC@@ABVCPoint@@H@Z$0:
  00000	8d 8d bc fe ff
	ff		 lea	 ecx, DWORD PTR _points$4[ebp]
  00006	e9 00 00 00 00	 jmp	 ??1CPoints@@QAE@XZ
__unwindfunclet$?OnMouseMove@CSelectingTool@@UAE_NPAVCDC@@ABVCPoint@@H@Z$2:
  0000b	8d 4d 90	 lea	 ecx, DWORD PTR _calData$10[ebp]
  0000e	e9 00 00 00 00	 jmp	 ??1CCoordinateCalculatorData@@QAE@XZ ; CCoordinateCalculatorData::~CCoordinateCalculatorData
__unwindfunclet$?OnMouseMove@CSelectingTool@@UAE_NPAVCDC@@ABVCPoint@@H@Z$3:
  00013	8d 8d 9c fe ff
	ff		 lea	 ecx, DWORD PTR $T3[ebp]
  00019	e9 00 00 00 00	 jmp	 ??1CCoordinate@@QAE@XZ
__unwindfunclet$?OnMouseMove@CSelectingTool@@UAE_NPAVCDC@@ABVCPoint@@H@Z$4:
  0001e	8d 8d 74 fe ff
	ff		 lea	 ecx, DWORD PTR $T2[ebp]
  00024	e9 00 00 00 00	 jmp	 ??1CPoints@@QAE@XZ
__unwindfunclet$?OnMouseMove@CSelectingTool@@UAE_NPAVCDC@@ABVCPoint@@H@Z$1:
  00029	8d 8d 00 ff ff
	ff		 lea	 ecx, DWORD PTR $T9[ebp]
  0002f	e9 00 00 00 00	 jmp	 ??1CSelectedElementDrawingData@@QAE@XZ
  00034	cc		 int	 3
  00035	cc		 int	 3
  00036	cc		 int	 3
  00037	cc		 int	 3
  00038	cc		 int	 3
__ehhandler$?OnMouseMove@CSelectingTool@@UAE_NPAVCDC@@ABVCPoint@@H@Z:
  00039	90		 npad	 1
  0003a	90		 npad	 1
  0003b	8b 54 24 08	 mov	 edx, DWORD PTR [esp+8]
  0003f	8d 42 0c	 lea	 eax, DWORD PTR [edx+12]
  00042	8b 8a 70 fe ff
	ff		 mov	 ecx, DWORD PTR [edx-400]
  00048	33 c8		 xor	 ecx, eax
  0004a	e8 00 00 00 00	 call	 @__security_check_cookie@4
  0004f	8b 4a fc	 mov	 ecx, DWORD PTR [edx-4]
  00052	33 c8		 xor	 ecx, eax
  00054	e8 00 00 00 00	 call	 @__security_check_cookie@4
  00059	b8 00 00 00 00	 mov	 eax, OFFSET __ehfuncinfo$?OnMouseMove@CSelectingTool@@UAE_NPAVCDC@@ABVCPoint@@H@Z
  0005e	e9 00 00 00 00	 jmp	 ___CxxFrameHandler3
text$x	ENDS
?OnMouseMove@CSelectingTool@@UAE_NPAVCDC@@ABVCPoint@@H@Z ENDP ; CSelectingTool::OnMouseMove
; Function compile flags: /Ogtp
; File D:\git\src\IBK\IBK_DRFN\ProjSrc\SrcChartEx\ChartAddIn\ChartAnalysisToolAddIn\AnalysisTool\Selecting.cpp
; File C:\Program Files (x86)\Microsoft Visual Studio\2019\Community\VC\Tools\MSVC\14.29.30133\atlmfc\include\atltypes.h
; File D:\git\src\IBK\IBK_DRFN\ProjSrc\SrcChartEx\ChartAddIn\ChartAnalysisToolAddIn\AnalysisTool\Selecting.cpp
;	COMDAT ?OnLButtonUp@CSelectingTool@@UAEXPAVCDC@@ABVCPoint@@@Z
_TEXT	SEGMENT
_modifyData$2 = -216					; size = 56
$T3 = -160						; size = 32
$T4 = -160						; size = 32
$T5 = -160						; size = 32
_dSecondVal$6 = -128					; size = 8
_dFirstVal$7 = -120					; size = 8
_coordMoving$8 = -112					; size = 32
_coordMoving$9 = -112					; size = 32
_drawingPoint$ = -80					; size = 8
_bChanged$2$ = -72					; size = 4
_dSumN$1$ = -68						; size = 8
_nCount$1$ = -64					; size = 4
_this$1$ = -60						; size = 4
_dBeta$1$ = -56						; size = 8
_dXValue$10 = -56					; size = 8
_strElementData_Prev$ = -48				; size = 4
_dCloseYValue$11 = -44					; size = 8
_dYValue$12 = -44					; size = 8
_dAlpha$1$ = -36					; size = 8
_dYValue$13 = -36					; size = 8
_dXAvg$2$ = -28						; size = 8
_dOpenYValue$14 = -28					; size = 8
_pPacketManager$1$ = -20				; size = 4
_nStartIdx$1$ = -20					; size = 4
_pPacketManager$1$ = -20				; size = 4
_pPacketClose$1$ = -16					; size = 4
_pPacket$1$ = -16					; size = 4
__$EHRec$ = -12						; size = 12
_pDC$ = 8						; size = 4
_nIndex$1$ = 12						; size = 4
_nEndIdx$1$ = 12					; size = 4
_nIndex1$1$ = 12					; size = 4
$T15 = 12						; size = 4
$T16 = 12						; size = 4
_point$ = 12						; size = 4
?OnLButtonUp@CSelectingTool@@UAEXPAVCDC@@ABVCPoint@@@Z PROC ; CSelectingTool::OnLButtonUp, COMDAT
; _this$ = ecx

; 66   : {

  00000	55		 push	 ebp
  00001	8b ec		 mov	 ebp, esp
  00003	6a ff		 push	 -1
  00005	68 00 00 00 00	 push	 __ehhandler$?OnLButtonUp@CSelectingTool@@UAEXPAVCDC@@ABVCPoint@@@Z
  0000a	64 a1 00 00 00
	00		 mov	 eax, DWORD PTR fs:0
  00010	50		 push	 eax
  00011	81 ec cc 00 00
	00		 sub	 esp, 204		; 000000ccH
  00017	56		 push	 esi
  00018	57		 push	 edi
  00019	a1 00 00 00 00	 mov	 eax, DWORD PTR ___security_cookie
  0001e	33 c5		 xor	 eax, ebp
  00020	50		 push	 eax
  00021	8d 45 f4	 lea	 eax, DWORD PTR __$EHRec$[ebp]
  00024	64 a3 00 00 00
	00		 mov	 DWORD PTR fs:0, eax
  0002a	8b f9		 mov	 edi, ecx
  0002c	89 7d c4	 mov	 DWORD PTR _this$1$[ebp], edi

; 264  : 	return (pElement != NULL && modifyType != CToolEnumData::MODIFY_NONE);

  0002f	83 7f 7c 00	 cmp	 DWORD PTR [edi+124], 0
  00033	0f 84 4c 05 00
	00		 je	 $LN1@OnLButtonU
  00039	83 7f 78 00	 cmp	 DWORD PTR [edi+120], 0
  0003d	0f 84 42 05 00
	00		 je	 $LN1@OnLButtonU

; 67   : 	if(!IsSelectedElement())
; 68   : 		return;
; 69   : 
; 70   : 	BOOL bChanged = FALSE;
; 71   : 	CPoint drawingPoint = GetDrawingPoint(point);

  00043	8b 75 0c	 mov	 esi, DWORD PTR _point$[ebp]
  00046	8d 45 b0	 lea	 eax, DWORD PTR _drawingPoint$[ebp]
  00049	56		 push	 esi
  0004a	50		 push	 eax
  0004b	e8 00 00 00 00	 call	 ?GetDrawingPoint@CSelectingTool@@QBE?AVCPoint@@ABV2@@Z ; CSelectingTool::GetDrawingPoint

; 72   : 	CString strElementData_Prev;

  00050	8d 4d d0	 lea	 ecx, DWORD PTR _strElementData_Prev$[ebp]
  00053	ff 15 00 00 00
	00		 call	 DWORD PTR __imp_??0?$CStringT@DV?$StrTraitMFC_DLL@DV?$ChTraitsCRT@D@ATL@@@@@ATL@@QAE@XZ

; 74   : 	if(m_lBtDownPoint != point && PointInDrawingRegion(drawingPoint))

  00059	8b 06		 mov	 eax, DWORD PTR [esi]
  0005b	8b 4e 04	 mov	 ecx, DWORD PTR [esi+4]
  0005e	c7 45 fc 00 00
	00 00		 mov	 DWORD PTR __$EHRec$[ebp+8], 0
; File C:\Program Files (x86)\Microsoft Visual Studio\2019\Community\VC\Tools\MSVC\14.29.30133\atlmfc\include\atltypes.h

; 463  : 	return (x != point.x || y != point.y);

  00065	39 87 b0 00 00
	00		 cmp	 DWORD PTR [edi+176], eax
  0006b	75 0c		 jne	 SHORT $LN51@OnLButtonU
  0006d	39 8f b4 00 00
	00		 cmp	 DWORD PTR [edi+180], ecx
  00073	0f 84 fd 04 00
	00		 je	 $LN27@OnLButtonU
$LN51@OnLButtonU:
; File D:\git\src\IBK\IBK_DRFN\ProjSrc\SrcChartEx\ChartAddIn\ChartAnalysisToolAddIn\AnalysisTool\Selecting.cpp

; 74   : 	if(m_lBtDownPoint != point && PointInDrawingRegion(drawingPoint))

  00079	8b 07		 mov	 eax, DWORD PTR [edi]
  0007b	8d 4d b0	 lea	 ecx, DWORD PTR _drawingPoint$[ebp]
  0007e	51		 push	 ecx
  0007f	8b cf		 mov	 ecx, edi
  00081	8b 40 1c	 mov	 eax, DWORD PTR [eax+28]
  00084	ff d0		 call	 eax
  00086	84 c0		 test	 al, al
  00088	0f 84 e8 04 00
	00		 je	 $LN27@OnLButtonU

; 75   : 	{ 
; 76   : 		bChanged = TRUE;
; 77   : 		CElementModifyData modifyData = GetElementModifyData(drawingPoint);

  0008e	8d 45 b0	 lea	 eax, DWORD PTR _drawingPoint$[ebp]
  00091	8b cf		 mov	 ecx, edi
  00093	50		 push	 eax
  00094	8d 85 28 ff ff
	ff		 lea	 eax, DWORD PTR _modifyData$2[ebp]
  0009a	50		 push	 eax
  0009b	e8 00 00 00 00	 call	 ?GetElementModifyData@CSelectingTool@@QBE?AVCElementModifyData@@ABVCPoint@@@Z ; CSelectingTool::GetElementModifyData

; 78   : 		
; 79   : 		strElementData_Prev = m_pSelectedElement->GetSavedElementData(CTool::GetAnalysisData()->GetElementTree().GetOrder());

  000a0	8b cf		 mov	 ecx, edi
  000a2	c6 45 fc 01	 mov	 BYTE PTR __$EHRec$[ebp+8], 1
  000a6	e8 00 00 00 00	 call	 ?GetAnalysisData@CTool@@MBEPAVCAnalysisData@@XZ ; CTool::GetAnalysisData
  000ab	8b c8		 mov	 ecx, eax
  000ad	e8 00 00 00 00	 call	 ?GetElementTree@CAnalysisData@@QAEAAVCElementTree@@XZ ; CAnalysisData::GetElementTree
  000b2	8b c8		 mov	 ecx, eax
  000b4	e8 00 00 00 00	 call	 ?GetOrder@CElementTree@@QAEAAVCOrder@@XZ ; CElementTree::GetOrder
  000b9	8b 4f 7c	 mov	 ecx, DWORD PTR [edi+124]
  000bc	50		 push	 eax
  000bd	8d 45 0c	 lea	 eax, DWORD PTR $T16[ebp]
  000c0	50		 push	 eax
  000c1	e8 00 00 00 00	 call	 ?GetSavedElementData@CElement@@QBE?AV?$CStringT@DV?$StrTraitMFC_DLL@DV?$ChTraitsCRT@D@ATL@@@@@ATL@@ABVCOrder@@@Z ; CElement::GetSavedElementData
  000c6	50		 push	 eax
  000c7	8d 4d d0	 lea	 ecx, DWORD PTR _strElementData_Prev$[ebp]
  000ca	c6 45 fc 02	 mov	 BYTE PTR __$EHRec$[ebp+8], 2
  000ce	ff 15 00 00 00
	00		 call	 DWORD PTR __imp_??4?$CStringT@DV?$StrTraitMFC_DLL@DV?$ChTraitsCRT@D@ATL@@@@@ATL@@QAEAAV01@ABV01@@Z
  000d4	8d 4d 0c	 lea	 ecx, DWORD PTR $T16[ebp]
  000d7	c6 45 fc 01	 mov	 BYTE PTR __$EHRec$[ebp+8], 1
  000db	ff 15 00 00 00
	00		 call	 DWORD PTR __imp_??1?$CStringT@DV?$StrTraitMFC_DLL@DV?$ChTraitsCRT@D@ATL@@@@@ATL@@QAE@XZ

; 80   : 		if( m_pSelectedElement->GetElementType() == CAnalysis::EN_ANALYSIS_CANDLE_BONG)

  000e1	8b 4f 7c	 mov	 ecx, DWORD PTR [edi+124]
  000e4	8b 01		 mov	 eax, DWORD PTR [ecx]
  000e6	8b 40 04	 mov	 eax, DWORD PTR [eax+4]
  000e9	ff d0		 call	 eax
  000eb	8b 4f 7c	 mov	 ecx, DWORD PTR [edi+124]
  000ee	83 f8 1f	 cmp	 eax, 31			; 0000001fH
  000f1	8d 85 28 ff ff
	ff		 lea	 eax, DWORD PTR _modifyData$2[ebp]
  000f7	50		 push	 eax
  000f8	8b 11		 mov	 edx, DWORD PTR [ecx]
  000fa	75 05		 jne	 SHORT $LN10@OnLButtonU

; 81   : 			m_pSelectedElement->ElementModify_YValue(modifyData);

  000fc	ff 52 20	 call	 DWORD PTR [edx+32]
  000ff	eb 03		 jmp	 SHORT $LN11@OnLButtonU
$LN10@OnLButtonU:

; 82   : 		else
; 83   : 			m_pSelectedElement->ElementModify(modifyData);

  00101	ff 52 1c	 call	 DWORD PTR [edx+28]
$LN11@OnLButtonU:

; 84   : 
; 85   : 		// Undo / Redo
; 86   : 		if( m_pSelectedElement->GetElementType() == CAnalysis::EN_ANALYSIS_PENCIL_LINE)

  00104	8b 4f 7c	 mov	 ecx, DWORD PTR [edi+124]
  00107	8b 01		 mov	 eax, DWORD PTR [ecx]
  00109	8b 40 04	 mov	 eax, DWORD PTR [eax+4]
  0010c	ff d0		 call	 eax
  0010e	33 c9		 xor	 ecx, ecx
  00110	83 f8 23	 cmp	 eax, 35			; 00000023H
  00113	b8 01 00 00 00	 mov	 eax, 1
  00118	0f 44 c1	 cmove	 eax, ecx

; 87   : 			bChanged = FALSE;
; 88   : 
; 89   : 		if( m_pSelectedElement->GetElementType() == CAnalysis::EN_ANALYSIS_LINEAR_REGRESSION ||

  0011b	8b 4f 7c	 mov	 ecx, DWORD PTR [edi+124]
  0011e	89 45 b8	 mov	 DWORD PTR _bChanged$2$[ebp], eax
  00121	8b 01		 mov	 eax, DWORD PTR [ecx]
  00123	8b 40 04	 mov	 eax, DWORD PTR [eax+4]
  00126	ff d0		 call	 eax
  00128	83 f8 1b	 cmp	 eax, 27			; 0000001bH
  0012b	0f 84 6a 01 00
	00		 je	 $LN15@OnLButtonU
  00131	8b 4f 7c	 mov	 ecx, DWORD PTR [edi+124]
  00134	8b 01		 mov	 eax, DWORD PTR [ecx]
  00136	8b 40 04	 mov	 eax, DWORD PTR [eax+4]
  00139	ff d0		 call	 eax
  0013b	83 f8 1c	 cmp	 eax, 28			; 0000001cH
  0013e	0f 84 57 01 00
	00		 je	 $LN15@OnLButtonU

; 141  : 				m_pSelectedElement->ElementModify_Coordinate(coordMoving,modifyData.GetModifyType());
; 142  : 			}
; 143  : 		}
; 144  : 		else if( m_pSelectedElement->GetElementType() == CAnalysis::EN_ANALYSIS_CANDLE_LINE)

  00144	8b 4f 7c	 mov	 ecx, DWORD PTR [edi+124]
  00147	8b 01		 mov	 eax, DWORD PTR [ecx]
  00149	8b 40 04	 mov	 eax, DWORD PTR [eax+4]
  0014c	ff d0		 call	 eax
  0014e	83 f8 1e	 cmp	 eax, 30			; 0000001eH
  00151	0f 85 e1 03 00
	00		 jne	 $LN60@OnLButtonU

; 145  : 		{	
; 146  : 			double dXValue = m_pSelectedElement->GetCoordinate(CToolEnumData::MODIFY_START).GetX();

  00157	8b 4f 7c	 mov	 ecx, DWORD PTR [edi+124]
  0015a	8d 95 60 ff ff
	ff		 lea	 edx, DWORD PTR $T3[ebp]
  00160	6a 02		 push	 2
  00162	52		 push	 edx
  00163	8b 01		 mov	 eax, DWORD PTR [ecx]
  00165	8b 40 18	 mov	 eax, DWORD PTR [eax+24]
  00168	ff d0		 call	 eax
  0016a	8b c8		 mov	 ecx, eax
  0016c	c6 45 fc 06	 mov	 BYTE PTR __$EHRec$[ebp+8], 6
  00170	e8 00 00 00 00	 call	 ?GetX@CCoordinate@@QBENXZ ; CCoordinate::GetX
  00175	8d 8d 74 ff ff
	ff		 lea	 ecx, DWORD PTR $T3[ebp+20]
  0017b	c6 45 fc 01	 mov	 BYTE PTR __$EHRec$[ebp+8], 1
  0017f	dd 5d c8	 fstp	 QWORD PTR _dXValue$10[ebp]
  00182	ff 15 00 00 00
	00		 call	 DWORD PTR __imp_??1?$CStringT@DV?$StrTraitMFC_DLL@DV?$ChTraitsCRT@D@ATL@@@@@ATL@@QAE@XZ

; 147  : 			int	nIndex = modifyData.GetPacket_XIndex(dXValue);			

  00188	f2 0f 10 45 c8	 movsd	 xmm0, QWORD PTR _dXValue$10[ebp]
  0018d	8d 8d 28 ff ff
	ff		 lea	 ecx, DWORD PTR _modifyData$2[ebp]
  00193	83 ec 08	 sub	 esp, 8
  00196	f2 0f 11 04 24	 movsd	 QWORD PTR [esp], xmm0
  0019b	e8 00 00 00 00	 call	 ?GetPacket_XIndex@CElementModifyData@@QBEHN@Z ; CElementModifyData::GetPacket_XIndex
  001a0	89 45 0c	 mov	 DWORD PTR _nIndex$1$[ebp], eax

; 148  : 			if(nIndex < 0)

  001a3	85 c0		 test	 eax, eax
  001a5	0f 88 9f 01 00
	00		 js	 $LN40@OnLButtonU

; 149  : 				return;
; 150  : 
; 151  : 			IPacketManager* pPacketManager = GetAnalysisData()->GetPacketManager();

  001ab	8b 17		 mov	 edx, DWORD PTR [edi]
  001ad	8b cf		 mov	 ecx, edi
  001af	8b 52 38	 mov	 edx, DWORD PTR [edx+56]
  001b2	ff d2		 call	 edx
  001b4	8b c8		 mov	 ecx, eax
  001b6	e8 00 00 00 00	 call	 ?GetPacketManager@CAnalysisData@@QBEPAUIPacketManager133101@@XZ ; CAnalysisData::GetPacketManager
  001bb	8b f0		 mov	 esi, eax
  001bd	89 75 ec	 mov	 DWORD PTR _pPacketManager$1$[ebp], esi

; 152  : 			if( !pPacketManager) return;

  001c0	85 f6		 test	 esi, esi
  001c2	0f 84 82 01 00
	00		 je	 $LN40@OnLButtonU

; 153  : 			IPacket* pPacketClose = pPacketManager->GetPacket( _MTEXT( C0_CLOSE));

  001c8	8b 0d 54 00 00
	00		 mov	 ecx, DWORD PTR ?g_iMetaTable@@3VIMetaTable@@A+84
  001ce	8b 16		 mov	 edx, DWORD PTR [esi]
  001d0	ff 71 14	 push	 DWORD PTR [ecx+20]
  001d3	8b 52 10	 mov	 edx, DWORD PTR [edx+16]
  001d6	8b ce		 mov	 ecx, esi
  001d8	ff d2		 call	 edx

; 154  : 			IPacket* pPacketOpen = pPacketManager->GetPacket( _MTEXT( C0_OPEN));

  001da	8b 0d 54 00 00
	00		 mov	 ecx, DWORD PTR ?g_iMetaTable@@3VIMetaTable@@A+84
  001e0	8b 16		 mov	 edx, DWORD PTR [esi]
  001e2	89 45 f0	 mov	 DWORD PTR _pPacketClose$1$[ebp], eax
  001e5	ff 71 08	 push	 DWORD PTR [ecx+8]
  001e8	8b 52 10	 mov	 edx, DWORD PTR [edx+16]
  001eb	8b ce		 mov	 ecx, esi
  001ed	ff d2		 call	 edx
  001ef	8b f0		 mov	 esi, eax

; 155  : 			pPacketManager->Release();

  001f1	8b 45 ec	 mov	 eax, DWORD PTR _pPacketManager$1$[ebp]
  001f4	50		 push	 eax
  001f5	8b 08		 mov	 ecx, DWORD PTR [eax]
  001f7	ff 51 08	 call	 DWORD PTR [ecx+8]

; 156  : 		
; 157  : 			double dCloseYValue = 0.0;
; 158  : 			double dOpenYValue = 0.0;
; 159  : 			if( pPacketClose && pPacketOpen)

  001fa	8b 4d f0	 mov	 ecx, DWORD PTR _pPacketClose$1$[ebp]
  001fd	0f 57 c9	 xorps	 xmm1, xmm1
  00200	f2 0f 11 4d d4	 movsd	 QWORD PTR _dCloseYValue$11[ebp], xmm1
  00205	0f 57 d2	 xorps	 xmm2, xmm2
  00208	f2 0f 11 55 e4	 movsd	 QWORD PTR _dOpenYValue$14[ebp], xmm2
  0020d	85 c9		 test	 ecx, ecx
  0020f	74 31		 je	 SHORT $LN25@OnLButtonU
  00211	85 f6		 test	 esi, esi
  00213	74 1d		 je	 SHORT $LN24@OnLButtonU

; 160  : 			{
; 161  : 				pPacketClose->GetData( nIndex, dCloseYValue);

  00215	8b 01		 mov	 eax, DWORD PTR [ecx]
  00217	8d 55 d4	 lea	 edx, DWORD PTR _dCloseYValue$11[ebp]
  0021a	52		 push	 edx
  0021b	ff 75 0c	 push	 DWORD PTR _nIndex$1$[ebp]
  0021e	ff 50 40	 call	 DWORD PTR [eax+64]

; 162  : 				pPacketOpen->GetData( nIndex, dOpenYValue);

  00221	8b 06		 mov	 eax, DWORD PTR [esi]
  00223	8d 4d e4	 lea	 ecx, DWORD PTR _dOpenYValue$14[ebp]
  00226	51		 push	 ecx
  00227	ff 75 0c	 push	 DWORD PTR _nIndex$1$[ebp]
  0022a	8b ce		 mov	 ecx, esi
  0022c	ff 50 40	 call	 DWORD PTR [eax+64]
  0022f	8b 4d f0	 mov	 ecx, DWORD PTR _pPacketClose$1$[ebp]
$LN24@OnLButtonU:

; 163  : 			}
; 164  : 			if( pPacketClose) pPacketClose->Release();	

  00232	8b 01		 mov	 eax, DWORD PTR [ecx]
  00234	51		 push	 ecx
  00235	ff 50 08	 call	 DWORD PTR [eax+8]
  00238	f2 0f 10 4d d4	 movsd	 xmm1, QWORD PTR _dCloseYValue$11[ebp]
  0023d	f2 0f 10 55 e4	 movsd	 xmm2, QWORD PTR _dOpenYValue$14[ebp]
$LN25@OnLButtonU:

; 165  : 			if( pPacketOpen) pPacketOpen->Release();	

  00242	85 f6		 test	 esi, esi
  00244	74 10		 je	 SHORT $LN26@OnLButtonU
  00246	8b 06		 mov	 eax, DWORD PTR [esi]
  00248	56		 push	 esi
  00249	ff 50 08	 call	 DWORD PTR [eax+8]
  0024c	f2 0f 10 4d d4	 movsd	 xmm1, QWORD PTR _dCloseYValue$11[ebp]
  00251	f2 0f 10 55 e4	 movsd	 xmm2, QWORD PTR _dOpenYValue$14[ebp]
$LN26@OnLButtonU:

; 166  : 			
; 167  : 			double dYValue = min(dCloseYValue,dOpenYValue);
; 168  : 			dYValue+= fabs(dCloseYValue - dOpenYValue)/2;

  00256	0f 28 c1	 movaps	 xmm0, xmm1

; 169  : 			CCoordinate coordMoving;

  00259	8d 4d 90	 lea	 ecx, DWORD PTR _coordMoving$8[ebp]
  0025c	f2 0f 5c c2	 subsd	 xmm0, xmm2
  00260	f2 0f 5d ca	 minsd	 xmm1, xmm2
  00264	0f 54 05 00 00
	00 00		 andps	 xmm0, QWORD PTR __xmm@7fffffffffffffff7fffffffffffffff
  0026b	f2 0f 59 05 00
	00 00 00	 mulsd	 xmm0, QWORD PTR __real@3fe0000000000000
  00273	f2 0f 58 c1	 addsd	 xmm0, xmm1
  00277	f2 0f 11 45 dc	 movsd	 QWORD PTR _dYValue$13[ebp], xmm0
  0027c	e8 00 00 00 00	 call	 ??0CCoordinate@@QAE@XZ	; CCoordinate::CCoordinate

; 170  : 			coordMoving.SetX(dXValue,-1);

  00281	6a ff		 push	 -1
  00283	8d 45 c8	 lea	 eax, DWORD PTR _dXValue$10[ebp]
  00286	c6 45 fc 07	 mov	 BYTE PTR __$EHRec$[ebp+8], 7
  0028a	50		 push	 eax
  0028b	8d 4d 90	 lea	 ecx, DWORD PTR _coordMoving$8[ebp]
  0028e	e8 00 00 00 00	 call	 ?SetX@CCoordinate@@QAEXABNH@Z ; CCoordinate::SetX

; 171  : 			coordMoving.SetY(dYValue);

  00293	8d 45 dc	 lea	 eax, DWORD PTR _dYValue$13[ebp]
  00296	e9 70 02 00 00	 jmp	 $LN85@OnLButtonU
$LN15@OnLButtonU:

; 90   : 			m_pSelectedElement->GetElementType() == CAnalysis::EN_ANALYSIS_RAFF_REGRESSION) 
; 91   : 		{
; 92   : 			int nIndex1 = modifyData.GetPacket_XIndex(m_pSelectedElement->GetCoordinate(CToolEnumData::MODIFY_START).GetX());

  0029b	8b 4f 7c	 mov	 ecx, DWORD PTR [edi+124]
  0029e	8d 95 60 ff ff
	ff		 lea	 edx, DWORD PTR $T5[ebp]
  002a4	6a 02		 push	 2
  002a6	52		 push	 edx
  002a7	8b 01		 mov	 eax, DWORD PTR [ecx]
  002a9	8b 40 18	 mov	 eax, DWORD PTR [eax+24]
  002ac	ff d0		 call	 eax
  002ae	8b c8		 mov	 ecx, eax
  002b0	c6 45 fc 03	 mov	 BYTE PTR __$EHRec$[ebp+8], 3
  002b4	e8 00 00 00 00	 call	 ?GetX@CCoordinate@@QBENXZ ; CCoordinate::GetX
  002b9	83 ec 08	 sub	 esp, 8
  002bc	8d 8d 28 ff ff
	ff		 lea	 ecx, DWORD PTR _modifyData$2[ebp]
  002c2	dd 1c 24	 fstp	 QWORD PTR [esp]
  002c5	e8 00 00 00 00	 call	 ?GetPacket_XIndex@CElementModifyData@@QBEHN@Z ; CElementModifyData::GetPacket_XIndex
  002ca	8d 8d 74 ff ff
	ff		 lea	 ecx, DWORD PTR $T5[ebp+20]
  002d0	89 45 0c	 mov	 DWORD PTR _nIndex1$1$[ebp], eax
  002d3	c6 45 fc 01	 mov	 BYTE PTR __$EHRec$[ebp+8], 1
  002d7	ff 15 00 00 00
	00		 call	 DWORD PTR __imp_??1?$CStringT@DV?$StrTraitMFC_DLL@DV?$ChTraitsCRT@D@ATL@@@@@ATL@@QAE@XZ

; 93   : 			int nIndex2 = modifyData.GetPacket_XIndex(m_pSelectedElement->GetCoordinate(CToolEnumData::MODIFY_END).GetX());

  002dd	8b 4f 7c	 mov	 ecx, DWORD PTR [edi+124]
  002e0	8d 95 60 ff ff
	ff		 lea	 edx, DWORD PTR $T4[ebp]
  002e6	6a 04		 push	 4
  002e8	52		 push	 edx
  002e9	8b 01		 mov	 eax, DWORD PTR [ecx]
  002eb	8b 40 18	 mov	 eax, DWORD PTR [eax+24]
  002ee	ff d0		 call	 eax
  002f0	8b c8		 mov	 ecx, eax
  002f2	c6 45 fc 04	 mov	 BYTE PTR __$EHRec$[ebp+8], 4
  002f6	e8 00 00 00 00	 call	 ?GetX@CCoordinate@@QBENXZ ; CCoordinate::GetX
  002fb	83 ec 08	 sub	 esp, 8
  002fe	8d 8d 28 ff ff
	ff		 lea	 ecx, DWORD PTR _modifyData$2[ebp]
  00304	dd 1c 24	 fstp	 QWORD PTR [esp]
  00307	e8 00 00 00 00	 call	 ?GetPacket_XIndex@CElementModifyData@@QBEHN@Z ; CElementModifyData::GetPacket_XIndex
  0030c	8d 8d 74 ff ff
	ff		 lea	 ecx, DWORD PTR $T4[ebp+20]
  00312	c6 45 fc 01	 mov	 BYTE PTR __$EHRec$[ebp+8], 1
  00316	8b f0		 mov	 esi, eax
  00318	ff 15 00 00 00
	00		 call	 DWORD PTR __imp_??1?$CStringT@DV?$StrTraitMFC_DLL@DV?$ChTraitsCRT@D@ATL@@@@@ATL@@QAE@XZ

; 94   : 			
; 95   : 			if(abs(nIndex2 - nIndex1) > 1)

  0031e	8b c6		 mov	 eax, esi
  00320	2b 45 0c	 sub	 eax, DWORD PTR _nIndex1$1$[ebp]
  00323	99		 cdq
  00324	33 c2		 xor	 eax, edx
  00326	2b c2		 sub	 eax, edx
  00328	83 f8 01	 cmp	 eax, 1
  0032b	0f 8e 07 02 00
	00		 jle	 $LN60@OnLButtonU

; 96   : 			{
; 97   : 				IPacketManager* pPacketManager = GetAnalysisData()->GetPacketManager();

  00331	8b 07		 mov	 eax, DWORD PTR [edi]
  00333	8b cf		 mov	 ecx, edi
  00335	8b 40 38	 mov	 eax, DWORD PTR [eax+56]
  00338	ff d0		 call	 eax
  0033a	8b c8		 mov	 ecx, eax
  0033c	e8 00 00 00 00	 call	 ?GetPacketManager@CAnalysisData@@QBEPAUIPacketManager133101@@XZ ; CAnalysisData::GetPacketManager
  00341	8b c8		 mov	 ecx, eax
  00343	89 4d ec	 mov	 DWORD PTR _pPacketManager$1$[ebp], ecx

; 98   : 				if( !pPacketManager) return;

  00346	85 c9		 test	 ecx, ecx
  00348	75 10		 jne	 SHORT $LN17@OnLButtonU
$LN40@OnLButtonU:

; 152  : 			if( !pPacketManager) return;

  0034a	8d 8d 28 ff ff
	ff		 lea	 ecx, DWORD PTR _modifyData$2[ebp]
  00350	e8 00 00 00 00	 call	 ??1CElementModifyData@@QAE@XZ ; CElementModifyData::~CElementModifyData
  00355	e9 22 02 00 00	 jmp	 $LN42@OnLButtonU
$LN17@OnLButtonU:

; 99   : 				IPacket* pPacket = pPacketManager->GetPacket( _MTEXT( C0_CLOSE));

  0035a	a1 54 00 00 00	 mov	 eax, DWORD PTR ?g_iMetaTable@@3VIMetaTable@@A+84
  0035f	8b 11		 mov	 edx, DWORD PTR [ecx]
  00361	ff 70 14	 push	 DWORD PTR [eax+20]
  00364	8b 42 10	 mov	 eax, DWORD PTR [edx+16]
  00367	ff d0		 call	 eax
  00369	89 45 f0	 mov	 DWORD PTR _pPacket$1$[ebp], eax

; 100  : 				pPacketManager->Release();

  0036c	8b 45 ec	 mov	 eax, DWORD PTR _pPacketManager$1$[ebp]
  0036f	50		 push	 eax
  00370	8b 08		 mov	 ecx, DWORD PTR [eax]
  00372	ff 51 08	 call	 DWORD PTR [ecx+8]

; 101  : 
; 102  : 				double dXAvg = 0.0f;
; 103  : 				double dYAvg = 0.0f;
; 104  : 				POSITION pos = NULL;
; 105  : 				double dYValue = -1.0;
; 106  : 				int nStartIdx = min(nIndex1,nIndex2);

  00375	8b 45 0c	 mov	 eax, DWORD PTR _nIndex1$1$[ebp]
  00378	8b ce		 mov	 ecx, esi
  0037a	f2 0f 10 05 00
	00 00 00	 movsd	 xmm0, QWORD PTR __real@bff0000000000000
  00382	3b c6		 cmp	 eax, esi
  00384	0f 57 d2	 xorps	 xmm2, xmm2
  00387	f2 0f 11 45 d4	 movsd	 QWORD PTR _dYValue$12[ebp], xmm0

; 107  : 				int nEndIdx = max(nIndex1,nIndex2);

  0038c	0f 4f f0	 cmovg	 esi, eax
  0038f	f2 0f 11 55 c8	 movsd	 QWORD PTR _dBeta$1$[ebp], xmm2
  00394	0f 4c c8	 cmovl	 ecx, eax
  00397	89 75 0c	 mov	 DWORD PTR _nEndIdx$1$[ebp], esi

; 108  : 				int nCount = nEndIdx - nStartIdx + 1;	
; 109  : 				register int i = 0;
; 110  : 				for( i=nStartIdx; i<=nEndIdx; i++)

  0039a	8b 45 0c	 mov	 eax, DWORD PTR _nEndIdx$1$[ebp]
  0039d	2b f1		 sub	 esi, ecx
  0039f	46		 inc	 esi
  003a0	89 4d ec	 mov	 DWORD PTR _nStartIdx$1$[ebp], ecx
  003a3	89 75 c0	 mov	 DWORD PTR _nCount$1$[ebp], esi
  003a6	0f 57 c9	 xorps	 xmm1, xmm1
  003a9	f2 0f 11 4d dc	 movsd	 QWORD PTR _dAlpha$1$[ebp], xmm1
  003ae	0f 57 db	 xorps	 xmm3, xmm3
  003b1	8b f1		 mov	 esi, ecx
  003b3	3b c8		 cmp	 ecx, eax
  003b5	7f 5d		 jg	 SHORT $LN70@OnLButtonU
  003b7	8b 7d f0	 mov	 edi, DWORD PTR _pPacket$1$[ebp]
  003ba	66 0f 1f 44 00
	00		 npad	 6
$LL4@OnLButtonU:

; 111  : 				{
; 112  : 					dXAvg += i;
; 113  : 					if( !pPacket->GetData( i, dYValue)) break;

  003c0	8b 07		 mov	 eax, DWORD PTR [edi]
  003c2	8d 4d d4	 lea	 ecx, DWORD PTR _dYValue$12[ebp]
  003c5	66 0f 6e c6	 movd	 xmm0, esi
  003c9	f3 0f e6 c0	 cvtdq2pd xmm0, xmm0
  003cd	51		 push	 ecx
  003ce	8b 40 40	 mov	 eax, DWORD PTR [eax+64]
  003d1	8b cf		 mov	 ecx, edi
  003d3	56		 push	 esi
  003d4	f2 0f 58 c3	 addsd	 xmm0, xmm3
  003d8	f2 0f 11 45 e4	 movsd	 QWORD PTR _dXAvg$2$[ebp], xmm0
  003dd	ff d0		 call	 eax
  003df	85 c0		 test	 eax, eax
  003e1	8b 45 0c	 mov	 eax, DWORD PTR _nEndIdx$1$[ebp]
  003e4	74 1b		 je	 SHORT $LN82@OnLButtonU

; 114  : 					dYAvg += dYValue;

  003e6	f2 0f 10 4d d4	 movsd	 xmm1, QWORD PTR _dYValue$12[ebp]
  003eb	46		 inc	 esi
  003ec	f2 0f 10 5d e4	 movsd	 xmm3, QWORD PTR _dXAvg$2$[ebp]
  003f1	f2 0f 58 4d dc	 addsd	 xmm1, QWORD PTR _dAlpha$1$[ebp]
  003f6	f2 0f 11 4d dc	 movsd	 QWORD PTR _dAlpha$1$[ebp], xmm1
  003fb	3b f0		 cmp	 esi, eax
  003fd	7e c1		 jle	 SHORT $LL4@OnLButtonU

; 111  : 				{
; 112  : 					dXAvg += i;
; 113  : 					if( !pPacket->GetData( i, dYValue)) break;

  003ff	eb 05		 jmp	 SHORT $LN80@OnLButtonU
$LN82@OnLButtonU:
  00401	f2 0f 10 4d dc	 movsd	 xmm1, QWORD PTR _dAlpha$1$[ebp]
$LN80@OnLButtonU:
  00406	f2 0f 10 5d e4	 movsd	 xmm3, QWORD PTR _dXAvg$2$[ebp]
  0040b	0f 57 d2	 xorps	 xmm2, xmm2
  0040e	8b 7d c4	 mov	 edi, DWORD PTR _this$1$[ebp]
  00411	8b 4d ec	 mov	 ecx, DWORD PTR _nStartIdx$1$[ebp]
$LN70@OnLButtonU:
  00414	66 0f 6e 45 c0	 movd	 xmm0, DWORD PTR _nCount$1$[ebp]

; 115  : 				}
; 116  : 				dXAvg /= nCount;
; 117  : 				dYAvg /= nCount;
; 118  : 
; 119  : 				double dSumD = 0.0f;
; 120  : 				double dSumN = 0.0f;
; 121  : 				for(i=nStartIdx; i<=nEndIdx; i++)

  00419	8b f1		 mov	 esi, ecx
  0041b	f3 0f e6 c0	 cvtdq2pd xmm0, xmm0
  0041f	f2 0f 5e d8	 divsd	 xmm3, xmm0
  00423	f2 0f 5e c8	 divsd	 xmm1, xmm0
  00427	f2 0f 11 5d e4	 movsd	 QWORD PTR _dXAvg$2$[ebp], xmm3
  0042c	0f 57 c0	 xorps	 xmm0, xmm0
  0042f	f2 0f 11 4d dc	 movsd	 QWORD PTR _dAlpha$1$[ebp], xmm1
  00434	f2 0f 11 45 bc	 movsd	 QWORD PTR _dSumN$1$[ebp], xmm0
  00439	3b c8		 cmp	 ecx, eax
  0043b	7f 6d		 jg	 SHORT $LN71@OnLButtonU
  0043d	8b 7d f0	 mov	 edi, DWORD PTR _pPacket$1$[ebp]
$LL7@OnLButtonU:

; 122  : 				{
; 123  : 					if( !pPacket->GetData( i, dYValue)) break;

  00440	8b 07		 mov	 eax, DWORD PTR [edi]
  00442	8d 4d d4	 lea	 ecx, DWORD PTR _dYValue$12[ebp]
  00445	51		 push	 ecx
  00446	56		 push	 esi
  00447	8b cf		 mov	 ecx, edi
  00449	8b 40 40	 mov	 eax, DWORD PTR [eax+64]
  0044c	ff d0		 call	 eax
  0044e	f2 0f 10 5d e4	 movsd	 xmm3, QWORD PTR _dXAvg$2$[ebp]
  00453	85 c0		 test	 eax, eax
  00455	f2 0f 10 55 c8	 movsd	 xmm2, QWORD PTR _dBeta$1$[ebp]
  0045a	8b 45 0c	 mov	 eax, DWORD PTR _nEndIdx$1$[ebp]
  0045d	74 3b		 je	 SHORT $LN83@OnLButtonU

; 124  : 
; 125  : 					dSumD += (i-dXAvg) * (dYValue-dYAvg);

  0045f	f2 0f 10 45 d4	 movsd	 xmm0, QWORD PTR _dYValue$12[ebp]
  00464	f2 0f 5c 45 dc	 subsd	 xmm0, QWORD PTR _dAlpha$1$[ebp]
  00469	66 0f 6e ce	 movd	 xmm1, esi
  0046d	46		 inc	 esi
  0046e	f3 0f e6 c9	 cvtdq2pd xmm1, xmm1
  00472	f2 0f 5c cb	 subsd	 xmm1, xmm3
  00476	f2 0f 59 c1	 mulsd	 xmm0, xmm1

; 126  : 					dSumN += (i-dXAvg) * (i-dXAvg);

  0047a	f2 0f 59 c9	 mulsd	 xmm1, xmm1
  0047e	f2 0f 58 d0	 addsd	 xmm2, xmm0
  00482	f2 0f 58 4d bc	 addsd	 xmm1, QWORD PTR _dSumN$1$[ebp]
  00487	f2 0f 11 55 c8	 movsd	 QWORD PTR _dBeta$1$[ebp], xmm2
  0048c	0f 28 c1	 movaps	 xmm0, xmm1
  0048f	f2 0f 11 45 bc	 movsd	 QWORD PTR _dSumN$1$[ebp], xmm0
  00494	3b f0		 cmp	 esi, eax
  00496	7e a8		 jle	 SHORT $LL7@OnLButtonU

; 122  : 				{
; 123  : 					if( !pPacket->GetData( i, dYValue)) break;

  00498	eb 05		 jmp	 SHORT $LN81@OnLButtonU
$LN83@OnLButtonU:
  0049a	f2 0f 10 45 bc	 movsd	 xmm0, QWORD PTR _dSumN$1$[ebp]
$LN81@OnLButtonU:
  0049f	f2 0f 10 4d dc	 movsd	 xmm1, QWORD PTR _dAlpha$1$[ebp]
  004a4	8b 7d c4	 mov	 edi, DWORD PTR _this$1$[ebp]
  004a7	8b 4d ec	 mov	 ecx, DWORD PTR _nStartIdx$1$[ebp]
$LN71@OnLButtonU:

; 127  : 				}
; 128  : 
; 129  : 				double dBeta = dSumD / dSumN;

  004aa	f2 0f 5e d0	 divsd	 xmm2, xmm0

; 130  : 				double dAlpha = dYAvg - dBeta * dXAvg;

  004ae	0f 28 c2	 movaps	 xmm0, xmm2
  004b1	f2 0f 59 c3	 mulsd	 xmm0, xmm3
  004b5	f2 0f 5c c8	 subsd	 xmm1, xmm0
  004b9	0f 57 c0	 xorps	 xmm0, xmm0

; 131  : 
; 132  : 				double dFirstVal = dAlpha + dBeta * nStartIdx;

  004bc	f2 0f 2a c1	 cvtsi2sd xmm0, ecx

; 133  : 				double dSecondVal = dAlpha + dBeta * nEndIdx;
; 134  : 
; 135  : 				if(pPacket) 

  004c0	8b 4d f0	 mov	 ecx, DWORD PTR _pPacket$1$[ebp]
  004c3	f2 0f 59 c2	 mulsd	 xmm0, xmm2
  004c7	f2 0f 58 c1	 addsd	 xmm0, xmm1
  004cb	f2 0f 11 45 88	 movsd	 QWORD PTR _dFirstVal$7[ebp], xmm0
  004d0	0f 57 c0	 xorps	 xmm0, xmm0
  004d3	f2 0f 2a c0	 cvtsi2sd xmm0, eax
  004d7	f2 0f 59 c2	 mulsd	 xmm0, xmm2
  004db	f2 0f 58 c1	 addsd	 xmm0, xmm1
  004df	f2 0f 11 45 80	 movsd	 QWORD PTR _dSecondVal$6[ebp], xmm0
  004e4	85 c9		 test	 ecx, ecx
  004e6	74 06		 je	 SHORT $LN20@OnLButtonU

; 136  : 					pPacket->Release();

  004e8	8b 01		 mov	 eax, DWORD PTR [ecx]
  004ea	51		 push	 ecx
  004eb	ff 50 08	 call	 DWORD PTR [eax+8]
$LN20@OnLButtonU:

; 137  : 
; 138  : 				CCoordinate coordMoving;

  004ee	8d 4d 90	 lea	 ecx, DWORD PTR _coordMoving$9[ebp]
  004f1	e8 00 00 00 00	 call	 ??0CCoordinate@@QAE@XZ	; CCoordinate::CCoordinate

; 139  : 				coordMoving.SetX(dFirstVal,-1);

  004f6	6a ff		 push	 -1
  004f8	8d 45 88	 lea	 eax, DWORD PTR _dFirstVal$7[ebp]
  004fb	c6 45 fc 05	 mov	 BYTE PTR __$EHRec$[ebp+8], 5
  004ff	50		 push	 eax
  00500	8d 4d 90	 lea	 ecx, DWORD PTR _coordMoving$9[ebp]
  00503	e8 00 00 00 00	 call	 ?SetX@CCoordinate@@QAEXABNH@Z ; CCoordinate::SetX

; 140  : 				coordMoving.SetY(dSecondVal);

  00508	8d 45 80	 lea	 eax, DWORD PTR _dSecondVal$6[ebp]
$LN85@OnLButtonU:

; 172  : 			m_pSelectedElement->ElementModify_Coordinate(coordMoving,modifyData.GetModifyType());
; 173  : 			
; 174  : 		}		
; 175  : 	}	

  0050b	50		 push	 eax
  0050c	8d 4d 90	 lea	 ecx, DWORD PTR _coordMoving$9[ebp]
  0050f	e8 00 00 00 00	 call	 ?SetY@CCoordinate@@QAEXABN@Z ; CCoordinate::SetY
  00514	8b 47 7c	 mov	 eax, DWORD PTR [edi+124]
  00517	8d 8d 28 ff ff
	ff		 lea	 ecx, DWORD PTR _modifyData$2[ebp]
  0051d	8b 30		 mov	 esi, DWORD PTR [eax]
  0051f	e8 00 00 00 00	 call	 ?GetModifyType@CElementModifyData@@QBE?AW4ModifyType@CToolEnumData@@XZ ; CElementModifyData::GetModifyType
  00524	8b 4f 7c	 mov	 ecx, DWORD PTR [edi+124]
  00527	50		 push	 eax
  00528	8d 45 90	 lea	 eax, DWORD PTR _coordMoving$9[ebp]
  0052b	50		 push	 eax
  0052c	ff 56 24	 call	 DWORD PTR [esi+36]
  0052f	8d 4d a4	 lea	 ecx, DWORD PTR _coordMoving$9[ebp+20]
  00532	ff 15 00 00 00
	00		 call	 DWORD PTR __imp_??1?$CStringT@DV?$StrTraitMFC_DLL@DV?$ChTraitsCRT@D@ATL@@@@@ATL@@QAE@XZ
$LN60@OnLButtonU:
  00538	8d 8d 28 ff ff
	ff		 lea	 ecx, DWORD PTR _modifyData$2[ebp]
  0053e	c6 45 fc 00	 mov	 BYTE PTR __$EHRec$[ebp+8], 0
  00542	e8 00 00 00 00	 call	 ??1CElementModifyData@@QAE@XZ ; CElementModifyData::~CElementModifyData

; 176  : 
; 177  : 	if(bChanged)

  00547	83 7d b8 00	 cmp	 DWORD PTR _bChanged$2$[ebp], 0
  0054b	74 29		 je	 SHORT $LN27@OnLButtonU

; 178  : 		CTool::GetAnalysisData()->MoveElement(m_pSelectedElement, strElementData_Prev);

  0054d	51		 push	 ecx
  0054e	8d 45 d0	 lea	 eax, DWORD PTR _strElementData_Prev$[ebp]
  00551	89 65 0c	 mov	 DWORD PTR $T15[ebp], esp
  00554	8b cc		 mov	 ecx, esp
  00556	50		 push	 eax
  00557	ff 15 00 00 00
	00		 call	 DWORD PTR __imp_??0?$CStringT@DV?$StrTraitMFC_DLL@DV?$ChTraitsCRT@D@ATL@@@@@ATL@@QAE@ABV01@@Z
  0055d	ff 77 7c	 push	 DWORD PTR [edi+124]
  00560	8b cf		 mov	 ecx, edi
  00562	c6 45 fc 08	 mov	 BYTE PTR __$EHRec$[ebp+8], 8
  00566	e8 00 00 00 00	 call	 ?GetAnalysisData@CTool@@MBEPAVCAnalysisData@@XZ ; CTool::GetAnalysisData
  0056b	8b c8		 mov	 ecx, eax
  0056d	c6 45 fc 00	 mov	 BYTE PTR __$EHRec$[ebp+8], 0
  00571	e8 00 00 00 00	 call	 ?MoveElement@CAnalysisData@@QAEHPAVCElement@@V?$CStringT@DV?$StrTraitMFC_DLL@DV?$ChTraitsCRT@D@ATL@@@@@ATL@@@Z ; CAnalysisData::MoveElement
$LN27@OnLButtonU:

; 179  : 	Initialize();

  00576	8b 07		 mov	 eax, DWORD PTR [edi]
  00578	8b cf		 mov	 ecx, edi
  0057a	ff 10		 call	 DWORD PTR [eax]
$LN42@OnLButtonU:

; 180  : }

  0057c	8d 4d d0	 lea	 ecx, DWORD PTR _strElementData_Prev$[ebp]
  0057f	ff 15 00 00 00
	00		 call	 DWORD PTR __imp_??1?$CStringT@DV?$StrTraitMFC_DLL@DV?$ChTraitsCRT@D@ATL@@@@@ATL@@QAE@XZ
$LN1@OnLButtonU:
  00585	8b 4d f4	 mov	 ecx, DWORD PTR __$EHRec$[ebp]
  00588	64 89 0d 00 00
	00 00		 mov	 DWORD PTR fs:0, ecx
  0058f	59		 pop	 ecx
  00590	5f		 pop	 edi
  00591	5e		 pop	 esi
  00592	8b e5		 mov	 esp, ebp
  00594	5d		 pop	 ebp
  00595	c2 08 00	 ret	 8
_TEXT	ENDS
;	COMDAT text$x
text$x	SEGMENT
__unwindfunclet$?OnLButtonUp@CSelectingTool@@UAEXPAVCDC@@ABVCPoint@@@Z$0:
  00000	8d 4d d0	 lea	 ecx, DWORD PTR _strElementData_Prev$[ebp]
  00003	ff 25 00 00 00
	00		 jmp	 DWORD PTR __imp_??1?$CStringT@DV?$StrTraitMFC_DLL@DV?$ChTraitsCRT@D@ATL@@@@@ATL@@QAE@XZ
__unwindfunclet$?OnLButtonUp@CSelectingTool@@UAEXPAVCDC@@ABVCPoint@@@Z$1:
  00009	8d 8d 28 ff ff
	ff		 lea	 ecx, DWORD PTR _modifyData$2[ebp]
  0000f	e9 00 00 00 00	 jmp	 ??1CElementModifyData@@QAE@XZ ; CElementModifyData::~CElementModifyData
__unwindfunclet$?OnLButtonUp@CSelectingTool@@UAEXPAVCDC@@ABVCPoint@@@Z$2:
  00014	8d 4d 0c	 lea	 ecx, DWORD PTR $T16[ebp]
  00017	ff 25 00 00 00
	00		 jmp	 DWORD PTR __imp_??1?$CStringT@DV?$StrTraitMFC_DLL@DV?$ChTraitsCRT@D@ATL@@@@@ATL@@QAE@XZ
__unwindfunclet$?OnLButtonUp@CSelectingTool@@UAEXPAVCDC@@ABVCPoint@@@Z$6:
  0001d	8d 8d 60 ff ff
	ff		 lea	 ecx, DWORD PTR $T3[ebp]
  00023	e9 00 00 00 00	 jmp	 ??1CCoordinate@@QAE@XZ
__unwindfunclet$?OnLButtonUp@CSelectingTool@@UAEXPAVCDC@@ABVCPoint@@@Z$7:
  00028	8d 4d 90	 lea	 ecx, DWORD PTR _coordMoving$8[ebp]
  0002b	e9 00 00 00 00	 jmp	 ??1CCoordinate@@QAE@XZ
__unwindfunclet$?OnLButtonUp@CSelectingTool@@UAEXPAVCDC@@ABVCPoint@@@Z$3:
  00030	8d 8d 60 ff ff
	ff		 lea	 ecx, DWORD PTR $T5[ebp]
  00036	e9 00 00 00 00	 jmp	 ??1CCoordinate@@QAE@XZ
__unwindfunclet$?OnLButtonUp@CSelectingTool@@UAEXPAVCDC@@ABVCPoint@@@Z$4:
  0003b	8d 8d 60 ff ff
	ff		 lea	 ecx, DWORD PTR $T4[ebp]
  00041	e9 00 00 00 00	 jmp	 ??1CCoordinate@@QAE@XZ
__unwindfunclet$?OnLButtonUp@CSelectingTool@@UAEXPAVCDC@@ABVCPoint@@@Z$5:
  00046	8d 4d 90	 lea	 ecx, DWORD PTR _coordMoving$9[ebp]
  00049	e9 00 00 00 00	 jmp	 ??1CCoordinate@@QAE@XZ
__unwindfunclet$?OnLButtonUp@CSelectingTool@@UAEXPAVCDC@@ABVCPoint@@@Z$8:
  0004e	8b 4d 0c	 mov	 ecx, DWORD PTR $T15[ebp]
  00051	ff 25 00 00 00
	00		 jmp	 DWORD PTR __imp_??1?$CStringT@DV?$StrTraitMFC_DLL@DV?$ChTraitsCRT@D@ATL@@@@@ATL@@QAE@XZ
  00057	cc		 int	 3
  00058	cc		 int	 3
  00059	cc		 int	 3
  0005a	cc		 int	 3
  0005b	cc		 int	 3
__ehhandler$?OnLButtonUp@CSelectingTool@@UAEXPAVCDC@@ABVCPoint@@@Z:
  0005c	90		 npad	 1
  0005d	90		 npad	 1
  0005e	8b 54 24 08	 mov	 edx, DWORD PTR [esp+8]
  00062	8d 42 0c	 lea	 eax, DWORD PTR [edx+12]
  00065	8b 8a 28 ff ff
	ff		 mov	 ecx, DWORD PTR [edx-216]
  0006b	33 c8		 xor	 ecx, eax
  0006d	e8 00 00 00 00	 call	 @__security_check_cookie@4
  00072	b8 00 00 00 00	 mov	 eax, OFFSET __ehfuncinfo$?OnLButtonUp@CSelectingTool@@UAEXPAVCDC@@ABVCPoint@@@Z
  00077	e9 00 00 00 00	 jmp	 ___CxxFrameHandler3
text$x	ENDS
?OnLButtonUp@CSelectingTool@@UAEXPAVCDC@@ABVCPoint@@@Z ENDP ; CSelectingTool::OnLButtonUp
; Function compile flags: /Ogtp
; File D:\git\src\IBK\IBK_DRFN\ProjSrc\SrcChartEx\ChartAddIn\ChartAnalysisToolAddIn\AnalysisTool\Selecting.cpp
;	COMDAT ?OnLButtonDown@CSelectingTool@@UAEPAVCElement@@PAVCDC@@ABVCPoint@@@Z
_TEXT	SEGMENT
$T2 = -152						; size = 40
$T3 = -112						; size = 96
__$ArrayPad$ = -16					; size = 4
__$EHRec$ = -12						; size = 12
_pDC$ = 8						; size = 4
_point$ = 12						; size = 4
?OnLButtonDown@CSelectingTool@@UAEPAVCElement@@PAVCDC@@ABVCPoint@@@Z PROC ; CSelectingTool::OnLButtonDown, COMDAT
; _this$ = ecx

; 50   : {

  00000	55		 push	 ebp
  00001	8b ec		 mov	 ebp, esp
  00003	6a ff		 push	 -1
  00005	68 00 00 00 00	 push	 __ehhandler$?OnLButtonDown@CSelectingTool@@UAEPAVCElement@@PAVCDC@@ABVCPoint@@@Z
  0000a	64 a1 00 00 00
	00		 mov	 eax, DWORD PTR fs:0
  00010	50		 push	 eax
  00011	81 ec 8c 00 00
	00		 sub	 esp, 140		; 0000008cH
  00017	a1 00 00 00 00	 mov	 eax, DWORD PTR ___security_cookie
  0001c	33 c5		 xor	 eax, ebp
  0001e	89 45 f0	 mov	 DWORD PTR __$ArrayPad$[ebp], eax
  00021	53		 push	 ebx
  00022	56		 push	 esi
  00023	57		 push	 edi
  00024	50		 push	 eax
  00025	8d 45 f4	 lea	 eax, DWORD PTR __$EHRec$[ebp]
  00028	64 a3 00 00 00
	00		 mov	 DWORD PTR fs:0, eax
  0002e	8b f9		 mov	 edi, ecx
  00030	8b 75 0c	 mov	 esi, DWORD PTR _point$[ebp]
  00033	8b 5d 08	 mov	 ebx, DWORD PTR _pDC$[ebp]

; 51   : 	CTool::SetDrawingRegions(point);

  00036	56		 push	 esi
  00037	e8 00 00 00 00	 call	 ?SetDrawingRegions@CTool@@IAEXABVCPoint@@@Z ; CTool::SetDrawingRegions

; 52   : 	m_lBtDownPoint = point;

  0003c	8b 06		 mov	 eax, DWORD PTR [esi]
  0003e	8b 4e 04	 mov	 ecx, DWORD PTR [esi+4]
  00041	89 87 b0 00 00
	00		 mov	 DWORD PTR [edi+176], eax

; 53   : 	m_pSelectedElement = FindElement(point, m_TypeModify);

  00047	8d 47 78	 lea	 eax, DWORD PTR [edi+120]
  0004a	50		 push	 eax
  0004b	89 8f b4 00 00
	00		 mov	 DWORD PTR [edi+180], ecx
  00051	8b cf		 mov	 ecx, edi
  00053	56		 push	 esi
  00054	e8 00 00 00 00	 call	 ?FindElement@CSelectingTool@@AAEPAVCElement@@ABVCPoint@@AAW4ModifyType@CToolEnumData@@@Z ; CSelectingTool::FindElement
  00059	89 47 7c	 mov	 DWORD PTR [edi+124], eax

; 54   : 	//m_pSelectedElement = FindElement(point, m_TypeModify);
; 55   : 	
; 56   : 	if(m_pSelectedElement != NULL)

  0005c	85 c0		 test	 eax, eax
  0005e	74 68		 je	 SHORT $LN2@OnLButtonD

; 57   : 	{
; 58   : 		m_oldSelectedPt = CTool::GetPoints(point);

  00060	56		 push	 esi
  00061	8d 85 68 ff ff
	ff		 lea	 eax, DWORD PTR $T2[ebp]
  00067	8b cf		 mov	 ecx, edi
  00069	50		 push	 eax
  0006a	e8 00 00 00 00	 call	 ?GetPoints@CTool@@IBE?AVCPoints@@ABVCPoint@@@Z ; CTool::GetPoints
  0006f	50		 push	 eax
  00070	8d 8f 88 00 00
	00		 lea	 ecx, DWORD PTR [edi+136]
  00076	c7 45 fc 00 00
	00 00		 mov	 DWORD PTR __$EHRec$[ebp+8], 0
  0007d	e8 00 00 00 00	 call	 ??4CPoints@@QAEAAV0@ABV0@@Z ; CPoints::operator=
  00082	8d 8d 7c ff ff
	ff		 lea	 ecx, DWORD PTR $T2[ebp+20]
  00088	c7 45 fc ff ff
	ff ff		 mov	 DWORD PTR __$EHRec$[ebp+8], -1
  0008f	ff 15 00 00 00
	00		 call	 DWORD PTR __imp_??1?$CStringT@DV?$StrTraitMFC_DLL@DV?$ChTraitsCRT@D@ATL@@@@@ATL@@QAE@XZ

; 59   : 		m_pSelectedElement->DrawShadowAndGrip(pDC, CTool::GetDrawingRegions(), CTool::GetCoordinateCalculatorData(point));

  00095	56		 push	 esi
  00096	8d 45 90	 lea	 eax, DWORD PTR $T3[ebp]
  00099	8b cf		 mov	 ecx, edi
  0009b	50		 push	 eax
  0009c	e8 00 00 00 00	 call	 ?GetCoordinateCalculatorData@CTool@@QBE?AVCCoordinateCalculatorData@@ABVCPoint@@@Z ; CTool::GetCoordinateCalculatorData
  000a1	50		 push	 eax
  000a2	8b 47 7c	 mov	 eax, DWORD PTR [edi+124]
  000a5	8b cf		 mov	 ecx, edi
  000a7	c7 45 fc 01 00
	00 00		 mov	 DWORD PTR __$EHRec$[ebp+8], 1
  000ae	8b 30		 mov	 esi, DWORD PTR [eax]
  000b0	e8 00 00 00 00	 call	 ?GetDrawingRegions@CTool@@IAEAAVCDrawingRegions@@XZ ; CTool::GetDrawingRegions
  000b5	8b 4f 7c	 mov	 ecx, DWORD PTR [edi+124]
  000b8	50		 push	 eax
  000b9	53		 push	 ebx
  000ba	ff 56 2c	 call	 DWORD PTR [esi+44]
  000bd	8d 4d 90	 lea	 ecx, DWORD PTR $T3[ebp]
  000c0	e8 00 00 00 00	 call	 ??1CCoordinateCalculatorData@@QAE@XZ ; CCoordinateCalculatorData::~CCoordinateCalculatorData

; 60   : 	}
; 61   : 
; 62   : 	return m_pSelectedElement;

  000c5	8b 47 7c	 mov	 eax, DWORD PTR [edi+124]
$LN2@OnLButtonD:

; 63   : }

  000c8	8b 4d f4	 mov	 ecx, DWORD PTR __$EHRec$[ebp]
  000cb	64 89 0d 00 00
	00 00		 mov	 DWORD PTR fs:0, ecx
  000d2	59		 pop	 ecx
  000d3	5f		 pop	 edi
  000d4	5e		 pop	 esi
  000d5	5b		 pop	 ebx
  000d6	8b 4d f0	 mov	 ecx, DWORD PTR __$ArrayPad$[ebp]
  000d9	33 cd		 xor	 ecx, ebp
  000db	e8 00 00 00 00	 call	 @__security_check_cookie@4
  000e0	8b e5		 mov	 esp, ebp
  000e2	5d		 pop	 ebp
  000e3	c2 08 00	 ret	 8
_TEXT	ENDS
;	COMDAT text$x
text$x	SEGMENT
__unwindfunclet$?OnLButtonDown@CSelectingTool@@UAEPAVCElement@@PAVCDC@@ABVCPoint@@@Z$0:
  00000	8d 8d 68 ff ff
	ff		 lea	 ecx, DWORD PTR $T2[ebp]
  00006	e9 00 00 00 00	 jmp	 ??1CPoints@@QAE@XZ
__unwindfunclet$?OnLButtonDown@CSelectingTool@@UAEPAVCElement@@PAVCDC@@ABVCPoint@@@Z$1:
  0000b	8d 4d 90	 lea	 ecx, DWORD PTR $T3[ebp]
  0000e	e9 00 00 00 00	 jmp	 ??1CCoordinateCalculatorData@@QAE@XZ ; CCoordinateCalculatorData::~CCoordinateCalculatorData
  00013	cc		 int	 3
  00014	cc		 int	 3
  00015	cc		 int	 3
  00016	cc		 int	 3
  00017	cc		 int	 3
__ehhandler$?OnLButtonDown@CSelectingTool@@UAEPAVCElement@@PAVCDC@@ABVCPoint@@@Z:
  00018	90		 npad	 1
  00019	90		 npad	 1
  0001a	8b 54 24 08	 mov	 edx, DWORD PTR [esp+8]
  0001e	8d 42 0c	 lea	 eax, DWORD PTR [edx+12]
  00021	8b 8a 64 ff ff
	ff		 mov	 ecx, DWORD PTR [edx-156]
  00027	33 c8		 xor	 ecx, eax
  00029	e8 00 00 00 00	 call	 @__security_check_cookie@4
  0002e	8b 4a fc	 mov	 ecx, DWORD PTR [edx-4]
  00031	33 c8		 xor	 ecx, eax
  00033	e8 00 00 00 00	 call	 @__security_check_cookie@4
  00038	b8 00 00 00 00	 mov	 eax, OFFSET __ehfuncinfo$?OnLButtonDown@CSelectingTool@@UAEPAVCElement@@PAVCDC@@ABVCPoint@@@Z
  0003d	e9 00 00 00 00	 jmp	 ___CxxFrameHandler3
text$x	ENDS
?OnLButtonDown@CSelectingTool@@UAEPAVCElement@@PAVCDC@@ABVCPoint@@@Z ENDP ; CSelectingTool::OnLButtonDown
; Function compile flags: /Ogtp
; File D:\git\src\IBK\IBK_DRFN\ProjSrc\SrcChartEx\ChartAddIn\ChartAnalysisToolAddIn\AnalysisTool\Selecting.cpp
;	COMDAT ?Initialize@CSelectingTool@@UAEXXZ
_TEXT	SEGMENT
?Initialize@CSelectingTool@@UAEXXZ PROC			; CSelectingTool::Initialize, COMDAT
; _this$ = ecx

; 39   : {

  00000	56		 push	 esi
  00001	8b f1		 mov	 esi, ecx

; 40   : 	CTool::Initialize();

  00003	e8 00 00 00 00	 call	 ?Initialize@CTool@@UAEXXZ ; CTool::Initialize

; 41   : 	CTool::SetProcessStarting(true);

  00008	6a 01		 push	 1
  0000a	8b ce		 mov	 ecx, esi
  0000c	e8 00 00 00 00	 call	 ?SetProcessStarting@CTool@@QAEX_N@Z ; CTool::SetProcessStarting

; 42   : 	m_TypeModify = CToolEnumData::MODIFY_NONE;

  00011	c7 46 78 00 00
	00 00		 mov	 DWORD PTR [esi+120], 0

; 43   : 	m_pSelectedElement = NULL;

  00018	c7 46 7c 00 00
	00 00		 mov	 DWORD PTR [esi+124], 0

; 44   : 	m_bOldSelectedPtUsed = false;

  0001f	c6 86 80 00 00
	00 00		 mov	 BYTE PTR [esi+128], 0

; 45   : 	m_lBtDownPoint = CPoint(-1,-1);

  00026	c7 86 b0 00 00
	00 ff ff ff ff	 mov	 DWORD PTR [esi+176], -1
  00030	c7 86 b4 00 00
	00 ff ff ff ff	 mov	 DWORD PTR [esi+180], -1
  0003a	5e		 pop	 esi

; 46   : }

  0003b	c3		 ret	 0
?Initialize@CSelectingTool@@UAEXXZ ENDP			; CSelectingTool::Initialize
_TEXT	ENDS
; Function compile flags: /Ogtp
; File D:\git\src\IBK\IBK_DRFN\ProjSrc\SrcChartEx\ChartAddIn\ChartAnalysisToolAddIn\AnalysisTool\Selecting.cpp
; File C:\Program Files (x86)\Microsoft Visual Studio\2019\Community\VC\Tools\MSVC\14.29.30133\atlmfc\include\atltypes.h
; File D:\git\src\IBK\IBK_DRFN\ProjSrc\SrcChartEx\ChartAddIn\ChartAnalysisToolAddIn\AnalysisTool\Selecting.cpp
;	COMDAT ??0CSelectingTool@@QAE@PAVCAnalysisData@@W4COORDINATETYPE@CAnalysis@@@Z
_TEXT	SEGMENT
_this$ = -16						; size = 4
__$EHRec$ = -12						; size = 12
_pAnalysisData$ = 8					; size = 4
_eCoordinateType$ = 12					; size = 4
??0CSelectingTool@@QAE@PAVCAnalysisData@@W4COORDINATETYPE@CAnalysis@@@Z PROC ; CSelectingTool::CSelectingTool, COMDAT
; _this$ = ecx

; 32   : {

  00000	55		 push	 ebp
  00001	8b ec		 mov	 ebp, esp
  00003	6a ff		 push	 -1
  00005	68 00 00 00 00	 push	 __ehhandler$??0CSelectingTool@@QAE@PAVCAnalysisData@@W4COORDINATETYPE@CAnalysis@@@Z
  0000a	64 a1 00 00 00
	00		 mov	 eax, DWORD PTR fs:0
  00010	50		 push	 eax
  00011	51		 push	 ecx
  00012	56		 push	 esi
  00013	a1 00 00 00 00	 mov	 eax, DWORD PTR ___security_cookie
  00018	33 c5		 xor	 eax, ebp
  0001a	50		 push	 eax
  0001b	8d 45 f4	 lea	 eax, DWORD PTR __$EHRec$[ebp]
  0001e	64 a3 00 00 00
	00		 mov	 DWORD PTR fs:0, eax
  00024	8b f1		 mov	 esi, ecx
  00026	89 75 f0	 mov	 DWORD PTR _this$[ebp], esi

; 29   : 	CTool(pAnalysisData, eCoordinateType),

  00029	ff 75 0c	 push	 DWORD PTR _eCoordinateType$[ebp]
  0002c	ff 75 08	 push	 DWORD PTR _pAnalysisData$[ebp]
  0002f	e8 00 00 00 00	 call	 ??0CTool@@IAE@PAVCAnalysisData@@W4COORDINATETYPE@CAnalysis@@@Z ; CTool::CTool

; 32   : {

  00034	8d 8e 88 00 00
	00		 lea	 ecx, DWORD PTR [esi+136]
  0003a	c7 45 fc 00 00
	00 00		 mov	 DWORD PTR __$EHRec$[ebp+8], 0
  00041	c7 06 00 00 00
	00		 mov	 DWORD PTR [esi], OFFSET ??_7CSelectingTool@@6B@
  00047	c7 46 78 00 00
	00 00		 mov	 DWORD PTR [esi+120], 0
  0004e	c7 46 7c 00 00
	00 00		 mov	 DWORD PTR [esi+124], 0
  00055	e8 00 00 00 00	 call	 ??0CPoints@@QAE@XZ	; CPoints::CPoints

; 40   : 	CTool::Initialize();

  0005a	8b ce		 mov	 ecx, esi

; 32   : {

  0005c	c6 45 fc 01	 mov	 BYTE PTR __$EHRec$[ebp+8], 1
; File C:\Program Files (x86)\Microsoft Visual Studio\2019\Community\VC\Tools\MSVC\14.29.30133\atlmfc\include\atltypes.h

; 400  : 	x = 0;

  00060	c7 86 b0 00 00
	00 00 00 00 00	 mov	 DWORD PTR [esi+176], 0

; 401  : 	y = 0;

  0006a	c7 86 b4 00 00
	00 00 00 00 00	 mov	 DWORD PTR [esi+180], 0
; File D:\git\src\IBK\IBK_DRFN\ProjSrc\SrcChartEx\ChartAddIn\ChartAnalysisToolAddIn\AnalysisTool\Selecting.cpp

; 40   : 	CTool::Initialize();

  00074	e8 00 00 00 00	 call	 ?Initialize@CTool@@UAEXXZ ; CTool::Initialize

; 41   : 	CTool::SetProcessStarting(true);

  00079	6a 01		 push	 1
  0007b	8b ce		 mov	 ecx, esi
  0007d	e8 00 00 00 00	 call	 ?SetProcessStarting@CTool@@QAEX_N@Z ; CTool::SetProcessStarting

; 42   : 	m_TypeModify = CToolEnumData::MODIFY_NONE;

  00082	c7 46 78 00 00
	00 00		 mov	 DWORD PTR [esi+120], 0

; 33   : 	Initialize();
; 34   : }

  00089	8b c6		 mov	 eax, esi

; 43   : 	m_pSelectedElement = NULL;

  0008b	c7 46 7c 00 00
	00 00		 mov	 DWORD PTR [esi+124], 0

; 44   : 	m_bOldSelectedPtUsed = false;

  00092	c6 86 80 00 00
	00 00		 mov	 BYTE PTR [esi+128], 0

; 45   : 	m_lBtDownPoint = CPoint(-1,-1);

  00099	c7 86 b0 00 00
	00 ff ff ff ff	 mov	 DWORD PTR [esi+176], -1
  000a3	c7 86 b4 00 00
	00 ff ff ff ff	 mov	 DWORD PTR [esi+180], -1

; 33   : 	Initialize();
; 34   : }

  000ad	8b 4d f4	 mov	 ecx, DWORD PTR __$EHRec$[ebp]
  000b0	64 89 0d 00 00
	00 00		 mov	 DWORD PTR fs:0, ecx
  000b7	59		 pop	 ecx
  000b8	5e		 pop	 esi
  000b9	8b e5		 mov	 esp, ebp
  000bb	5d		 pop	 ebp
  000bc	c2 08 00	 ret	 8
_TEXT	ENDS
;	COMDAT text$x
text$x	SEGMENT
__unwindfunclet$??0CSelectingTool@@QAE@PAVCAnalysisData@@W4COORDINATETYPE@CAnalysis@@@Z$0:
  00000	8b 4d f0	 mov	 ecx, DWORD PTR _this$[ebp]
  00003	e9 00 00 00 00	 jmp	 ??1CTool@@QAE@XZ
__unwindfunclet$??0CSelectingTool@@QAE@PAVCAnalysisData@@W4COORDINATETYPE@CAnalysis@@@Z$1:
  00008	8b 4d f0	 mov	 ecx, DWORD PTR _this$[ebp]
  0000b	81 c1 88 00 00
	00		 add	 ecx, 136		; 00000088H
  00011	e9 00 00 00 00	 jmp	 ??1CPoints@@QAE@XZ
  00016	cc		 int	 3
  00017	cc		 int	 3
  00018	cc		 int	 3
  00019	cc		 int	 3
  0001a	cc		 int	 3
__ehhandler$??0CSelectingTool@@QAE@PAVCAnalysisData@@W4COORDINATETYPE@CAnalysis@@@Z:
  0001b	90		 npad	 1
  0001c	90		 npad	 1
  0001d	8b 54 24 08	 mov	 edx, DWORD PTR [esp+8]
  00021	8d 42 0c	 lea	 eax, DWORD PTR [edx+12]
  00024	8b 4a f4	 mov	 ecx, DWORD PTR [edx-12]
  00027	33 c8		 xor	 ecx, eax
  00029	e8 00 00 00 00	 call	 @__security_check_cookie@4
  0002e	b8 00 00 00 00	 mov	 eax, OFFSET __ehfuncinfo$??0CSelectingTool@@QAE@PAVCAnalysisData@@W4COORDINATETYPE@CAnalysis@@@Z
  00033	e9 00 00 00 00	 jmp	 ___CxxFrameHandler3
text$x	ENDS
??0CSelectingTool@@QAE@PAVCAnalysisData@@W4COORDINATETYPE@CAnalysis@@@Z ENDP ; CSelectingTool::CSelectingTool
; Function compile flags: /Ogtp
; File C:\Program Files (x86)\Microsoft Visual Studio\2019\Community\VC\Tools\MSVC\14.29.30133\include\deque
; File C:\Program Files (x86)\Microsoft Visual Studio\2019\Community\VC\Tools\MSVC\14.29.30133\include\utility
; File C:\Program Files (x86)\Microsoft Visual Studio\2019\Community\VC\Tools\MSVC\14.29.30133\include\xmemory
; File C:\Program Files (x86)\Microsoft Visual Studio\2019\Community\VC\Tools\MSVC\14.29.30133\include\utility
; File C:\Program Files (x86)\Microsoft Visual Studio\2019\Community\VC\Tools\MSVC\14.29.30133\include\xmemory
;	COMDAT ??1CTool@@QAE@XZ
_TEXT	SEGMENT
??1CTool@@QAE@XZ PROC					; CTool::~CTool, COMDAT
; _this$ = ecx
; File C:\Program Files (x86)\Microsoft Visual Studio\2019\Community\VC\Tools\MSVC\14.29.30133\include\deque

; 1332 :         _Tidy();

  00000	56		 push	 esi
  00001	8b f1		 mov	 esi, ecx
  00003	8d 4e 60	 lea	 ecx, DWORD PTR [esi+96]
  00006	ff 15 00 00 00
	00		 call	 DWORD PTR __imp_??1?$CStringT@DV?$StrTraitMFC_DLL@DV?$ChTraitsCRT@D@ATL@@@@@ATL@@QAE@XZ
  0000c	8d 4e 5c	 lea	 ecx, DWORD PTR [esi+92]
  0000f	ff 15 00 00 00
	00		 call	 DWORD PTR __imp_??1?$CStringT@DV?$StrTraitMFC_DLL@DV?$ChTraitsCRT@D@ATL@@@@@ATL@@QAE@XZ
  00015	8d 4e 58	 lea	 ecx, DWORD PTR [esi+88]
  00018	ff 15 00 00 00
	00		 call	 DWORD PTR __imp_??1?$CStringT@DV?$StrTraitMFC_DLL@DV?$ChTraitsCRT@D@ATL@@@@@ATL@@QAE@XZ
  0001e	8d 4e 14	 lea	 ecx, DWORD PTR [esi+20]
  00021	e8 00 00 00 00	 call	 ?_Tidy@?$deque@VCBlockRegion@@V?$allocator@VCBlockRegion@@@std@@@std@@AAEXXZ ; std::deque<CBlockRegion,std::allocator<CBlockRegion> >::_Tidy

; 861  :         _Tidy();

  00026	8d 4e 14	 lea	 ecx, DWORD PTR [esi+20]
  00029	e8 00 00 00 00	 call	 ?_Tidy@?$deque@VCBlockRegion@@V?$allocator@VCBlockRegion@@@std@@@std@@AAEXXZ ; std::deque<CBlockRegion,std::allocator<CBlockRegion> >::_Tidy
; File C:\Program Files (x86)\Microsoft Visual Studio\2019\Community\VC\Tools\MSVC\14.29.30133\include\utility

; 602  :     _Ty _Old_val = static_cast<_Ty&&>(_Val);

  0002e	8b 46 14	 mov	 eax, DWORD PTR [esi+20]
; File C:\Program Files (x86)\Microsoft Visual Studio\2019\Community\VC\Tools\MSVC\14.29.30133\include\xmemory

; 255  :         ::operator delete(_Ptr, _Bytes);

  00031	6a 08		 push	 8
  00033	50		 push	 eax
; File C:\Program Files (x86)\Microsoft Visual Studio\2019\Community\VC\Tools\MSVC\14.29.30133\include\utility

; 603  :     _Val         = static_cast<_Other&&>(_New_val);

  00034	c7 46 14 00 00
	00 00		 mov	 DWORD PTR [esi+20], 0
; File C:\Program Files (x86)\Microsoft Visual Studio\2019\Community\VC\Tools\MSVC\14.29.30133\include\xmemory

; 255  :         ::operator delete(_Ptr, _Bytes);

  0003b	e8 00 00 00 00	 call	 ??3@YAXPAXI@Z		; operator delete
  00040	83 c4 08	 add	 esp, 8
  00043	5e		 pop	 esi
  00044	c3		 ret	 0
??1CTool@@QAE@XZ ENDP					; CTool::~CTool
_TEXT	ENDS
; Function compile flags: /Ogtp
;	COMDAT ??1CSelectedElementDrawingData@@QAE@XZ
_TEXT	SEGMENT
??1CSelectedElementDrawingData@@QAE@XZ PROC		; CSelectedElementDrawingData::~CSelectedElementDrawingData, COMDAT
; _this$ = ecx
  00000	56		 push	 esi
  00001	8b f1		 mov	 esi, ecx
  00003	8d 8e 84 00 00
	00		 lea	 ecx, DWORD PTR [esi+132]
  00009	ff 15 00 00 00
	00		 call	 DWORD PTR __imp_??1?$CStringT@DV?$StrTraitMFC_DLL@DV?$ChTraitsCRT@D@ATL@@@@@ATL@@QAE@XZ
  0000f	8d 4e 08	 lea	 ecx, DWORD PTR [esi+8]
  00012	5e		 pop	 esi
  00013	e9 00 00 00 00	 jmp	 ??1CCoordinateCalculatorData@@QAE@XZ ; CCoordinateCalculatorData::~CCoordinateCalculatorData
??1CSelectedElementDrawingData@@QAE@XZ ENDP		; CSelectedElementDrawingData::~CSelectedElementDrawingData
_TEXT	ENDS
; Function compile flags: /Ogtp
;	COMDAT ??1CExtractingDataOfModifyType@@QAE@XZ
_TEXT	SEGMENT
??1CExtractingDataOfModifyType@@QAE@XZ PROC		; CExtractingDataOfModifyType::~CExtractingDataOfModifyType, COMDAT
; _this$ = ecx
  00000	83 c1 10	 add	 ecx, 16			; 00000010H
  00003	e9 00 00 00 00	 jmp	 ??1CCoordinateCalculatorData@@QAE@XZ ; CCoordinateCalculatorData::~CCoordinateCalculatorData
??1CExtractingDataOfModifyType@@QAE@XZ ENDP		; CExtractingDataOfModifyType::~CExtractingDataOfModifyType
_TEXT	ENDS
; Function compile flags: /Ogtp
;	COMDAT ??1CPoints@@QAE@XZ
_TEXT	SEGMENT
??1CPoints@@QAE@XZ PROC					; CPoints::~CPoints, COMDAT
; _this$ = ecx
  00000	83 c1 14	 add	 ecx, 20			; 00000014H
  00003	ff 25 00 00 00
	00		 jmp	 DWORD PTR __imp_??1?$CStringT@DV?$StrTraitMFC_DLL@DV?$ChTraitsCRT@D@ATL@@@@@ATL@@QAE@XZ
??1CPoints@@QAE@XZ ENDP					; CPoints::~CPoints
_TEXT	ENDS
; Function compile flags: /Ogtp
;	COMDAT ??1CCoordinate@@QAE@XZ
_TEXT	SEGMENT
??1CCoordinate@@QAE@XZ PROC				; CCoordinate::~CCoordinate, COMDAT
; _this$ = ecx
  00000	83 c1 14	 add	 ecx, 20			; 00000014H
  00003	ff 25 00 00 00
	00		 jmp	 DWORD PTR __imp_??1?$CStringT@DV?$StrTraitMFC_DLL@DV?$ChTraitsCRT@D@ATL@@@@@ATL@@QAE@XZ
??1CCoordinate@@QAE@XZ ENDP				; CCoordinate::~CCoordinate
_TEXT	ENDS
; Function compile flags: /Ogtp
; File C:\Program Files (x86)\Microsoft Visual Studio\2019\Community\VC\Tools\MSVC\14.29.30133\include\deque
; File C:\Program Files (x86)\Microsoft Visual Studio\2019\Community\VC\Tools\MSVC\14.29.30133\include\xmemory
; File C:\Program Files (x86)\Microsoft Visual Studio\2019\Community\VC\Tools\MSVC\14.29.30133\include\deque
; File C:\Program Files (x86)\Microsoft Visual Studio\2019\Community\VC\Tools\MSVC\14.29.30133\include\xmemory
; File C:\Program Files (x86)\Microsoft Visual Studio\2019\Community\VC\Tools\MSVC\14.29.30133\include\deque
; File C:\Program Files (x86)\Microsoft Visual Studio\2019\Community\VC\Tools\MSVC\14.29.30133\include\xmemory
; File C:\Program Files (x86)\Microsoft Visual Studio\2019\Community\VC\Tools\MSVC\14.29.30133\include\deque
;	COMDAT ?_Tidy@?$deque@VCBlockRegion@@V?$allocator@VCBlockRegion@@@std@@@std@@AAEXXZ
_TEXT	SEGMENT
?_Tidy@?$deque@VCBlockRegion@@V?$allocator@VCBlockRegion@@@std@@@std@@AAEXXZ PROC ; std::deque<CBlockRegion,std::allocator<CBlockRegion> >::_Tidy, COMDAT
; _this$ = ecx

; 1471 :     void _Tidy() noexcept { // free all storage

  00000	57		 push	 edi
  00001	8b f9		 mov	 edi, ecx

; 1002 :         return _Mysize() == 0;

  00003	8b 4f 10	 mov	 ecx, DWORD PTR [edi+16]
  00006	85 c9		 test	 ecx, ecx

; 1472 :         _Orphan_all();
; 1473 : 
; 1474 :         _Alpty _Almap(_Getal());
; 1475 :         while (!empty()) {

  00008	74 15		 je	 SHORT $LN60@Tidy
  0000a	66 0f 1f 44 00
	00		 npad	 6
$LL2@Tidy:

; 1146 :         if (--_Mysize() == 0) {

  00010	8d 41 ff	 lea	 eax, DWORD PTR [ecx-1]
  00013	89 47 10	 mov	 DWORD PTR [edi+16], eax
  00016	8b c8		 mov	 ecx, eax
  00018	85 c0		 test	 eax, eax
  0001a	75 f4		 jne	 SHORT $LL2@Tidy

; 1147 :             _Myoff() = 0;

  0001c	89 47 0c	 mov	 DWORD PTR [edi+12], eax
$LN60@Tidy:
  0001f	56		 push	 esi

; 1479 :         for (size_type _Block = _Mapsize(); 0 < _Block;) { // free storage for a block and destroy pointer

  00020	8b 77 08	 mov	 esi, DWORD PTR [edi+8]
  00023	85 f6		 test	 esi, esi
  00025	74 1a		 je	 SHORT $LN5@Tidy
$LL4@Tidy:

; 1480 :             if (_Map()[--_Block]) { // free block and destroy its pointer

  00027	8b 47 04	 mov	 eax, DWORD PTR [edi+4]
  0002a	4e		 dec	 esi
  0002b	8b 04 b0	 mov	 eax, DWORD PTR [eax+esi*4]
  0002e	85 c0		 test	 eax, eax
  00030	74 0b		 je	 SHORT $LN23@Tidy
; File C:\Program Files (x86)\Microsoft Visual Studio\2019\Community\VC\Tools\MSVC\14.29.30133\include\xmemory

; 255  :         ::operator delete(_Ptr, _Bytes);

  00032	6a 60		 push	 96			; 00000060H
  00034	50		 push	 eax
  00035	e8 00 00 00 00	 call	 ??3@YAXPAXI@Z		; operator delete
  0003a	83 c4 08	 add	 esp, 8
$LN23@Tidy:
; File C:\Program Files (x86)\Microsoft Visual Studio\2019\Community\VC\Tools\MSVC\14.29.30133\include\deque

; 1479 :         for (size_type _Block = _Mapsize(); 0 < _Block;) { // free storage for a block and destroy pointer

  0003d	85 f6		 test	 esi, esi
  0003f	75 e6		 jne	 SHORT $LL4@Tidy
$LN5@Tidy:

; 1481 :                 _Getal().deallocate(_Map()[_Block], _Block_size);
; 1482 :                 _Destroy_in_place(_Map()[_Block]);
; 1483 :             }
; 1484 :         }
; 1485 : 
; 1486 :         if (_Map() != _Mapptr()) {

  00041	8b 47 04	 mov	 eax, DWORD PTR [edi+4]
  00044	5e		 pop	 esi
  00045	85 c0		 test	 eax, eax
  00047	74 2a		 je	 SHORT $LN41@Tidy
; File C:\Program Files (x86)\Microsoft Visual Studio\2019\Community\VC\Tools\MSVC\14.29.30133\include\xmemory

; 797  :         _Deallocate<_New_alignof<_Ty>>(_Ptr, sizeof(_Ty) * _Count);

  00049	8b 4f 08	 mov	 ecx, DWORD PTR [edi+8]
  0004c	c1 e1 02	 shl	 ecx, 2

; 251  :         if (_Bytes >= _Big_allocation_threshold) { // boost the alignment of big allocations to help autovectorization

  0004f	81 f9 00 10 00
	00		 cmp	 ecx, 4096		; 00001000H
  00055	72 12		 jb	 SHORT $LN51@Tidy

; 150  :     const uintptr_t _Ptr_container   = _Ptr_user[-1];

  00057	8b 50 fc	 mov	 edx, DWORD PTR [eax-4]
  0005a	83 c1 23	 add	 ecx, 35			; 00000023H

; 151  : 
; 152  :     // If the following asserts, it likely means that we are performing
; 153  :     // an aligned delete on memory coming from an unaligned allocation.
; 154  :     _STL_ASSERT(_Ptr_user[-2] == _Big_allocation_sentinel, "invalid argument");
; 155  : 
; 156  :     // Extra paranoia on aligned allocation/deallocation; ensure _Ptr_container is
; 157  :     // in range [_Min_back_shift, _Non_user_size]
; 158  : #ifdef _DEBUG
; 159  :     constexpr uintptr_t _Min_back_shift = 2 * sizeof(void*);
; 160  : #else // ^^^ _DEBUG ^^^ // vvv !_DEBUG vvv
; 161  :     constexpr uintptr_t _Min_back_shift = sizeof(void*);
; 162  : #endif // _DEBUG
; 163  :     const uintptr_t _Back_shift = reinterpret_cast<uintptr_t>(_Ptr) - _Ptr_container;

  0005d	2b c2		 sub	 eax, edx

; 164  :     _STL_VERIFY(_Back_shift >= _Min_back_shift && _Back_shift <= _Non_user_size, "invalid argument");

  0005f	83 c0 fc	 add	 eax, -4			; fffffffcH
  00062	83 f8 1f	 cmp	 eax, 31			; 0000001fH
  00065	77 1c		 ja	 SHORT $LN48@Tidy

; 165  :     _Ptr = reinterpret_cast<void*>(_Ptr_container);

  00067	8b c2		 mov	 eax, edx
$LN51@Tidy:

; 255  :         ::operator delete(_Ptr, _Bytes);

  00069	51		 push	 ecx
  0006a	50		 push	 eax
  0006b	e8 00 00 00 00	 call	 ??3@YAXPAXI@Z		; operator delete
  00070	83 c4 08	 add	 esp, 8
$LN41@Tidy:
; File C:\Program Files (x86)\Microsoft Visual Studio\2019\Community\VC\Tools\MSVC\14.29.30133\include\deque

; 1490 :         _Mapsize() = 0;

  00073	c7 47 08 00 00
	00 00		 mov	 DWORD PTR [edi+8], 0

; 1491 :         _Map()     = _Mapptr();

  0007a	c7 47 04 00 00
	00 00		 mov	 DWORD PTR [edi+4], 0
  00081	5f		 pop	 edi

; 1492 :     }

  00082	c3		 ret	 0
$LN48@Tidy:
; File C:\Program Files (x86)\Microsoft Visual Studio\2019\Community\VC\Tools\MSVC\14.29.30133\include\xmemory

; 164  :     _STL_VERIFY(_Back_shift >= _Min_back_shift && _Back_shift <= _Non_user_size, "invalid argument");

  00083	ff 15 00 00 00
	00		 call	 DWORD PTR __imp___invalid_parameter_noinfo_noreturn
$LN62@Tidy:
  00089	cc		 int	 3
?_Tidy@?$deque@VCBlockRegion@@V?$allocator@VCBlockRegion@@@std@@@std@@AAEXXZ ENDP ; std::deque<CBlockRegion,std::allocator<CBlockRegion> >::_Tidy
_TEXT	ENDS
; Function compile flags: /Ogtp
; File D:\git\src\IBK\IBK_DRFN\ProjSrc\SrcChartEx\ChartAddIn\ChartAnalysisToolAddIn\AnalysisTool\Selecting.cpp
;	COMDAT ?__empty_global_delete@@YAXPAXI@Z
_TEXT	SEGMENT
___formal$ = 8						; size = 4
___formal$ = 12						; size = 4
?__empty_global_delete@@YAXPAXI@Z PROC			; __empty_global_delete, COMDAT

  00000	c2 00 00	 ret	 0
?__empty_global_delete@@YAXPAXI@Z ENDP			; __empty_global_delete
_TEXT	ENDS
; Function compile flags: /Ogtp
; File D:\git\src\IBK\IBK_DRFN\ProjSrc\SrcChartEx\ChartAddIn\ChartAnalysisToolAddIn\AnalysisTool\Selecting.cpp
;	COMDAT ?__empty_global_delete@@YAXPAX@Z
_TEXT	SEGMENT
___formal$ = 8						; size = 4
?__empty_global_delete@@YAXPAX@Z PROC			; __empty_global_delete, COMDAT

  00000	c2 00 00	 ret	 0
?__empty_global_delete@@YAXPAX@Z ENDP			; __empty_global_delete
_TEXT	ENDS
END
