; Listing generated by Microsoft (R) Optimizing Compiler Version 19.29.30145.0 

	TITLE	D:\git\src\IBK\IBK_DRFN\#DRfn-CS\_Obj\AnalysisTool\Tool.obj
	.686P
	.XMM
	include listing.inc
	.model	flat

INCLUDELIB MSVCRT
INCLUDELIB OLDNAMES

PUBLIC	?__empty_global_delete@@YAXPAX@Z		; __empty_global_delete
PUBLIC	?__empty_global_delete@@YAXPAXI@Z		; __empty_global_delete
PUBLIC	??1ILPCSTR133101@@QAE@XZ			; ILPCSTR133101::~ILPCSTR133101
PUBLIC	?_Tidy@?$deque@VCBlockRegion@@V?$allocator@VCBlockRegion@@@std@@@std@@AAEXXZ ; std::deque<CBlockRegion,std::allocator<CBlockRegion> >::_Tidy
PUBLIC	??1CDataTypeEnvironment@@QAE@XZ			; CDataTypeEnvironment::~CDataTypeEnvironment
PUBLIC	??1CElementCommonEnvironment@@QAE@XZ		; CElementCommonEnvironment::~CElementCommonEnvironment
PUBLIC	??1CCoordinate@@QAE@XZ				; CCoordinate::~CCoordinate
PUBLIC	??1CPoints@@QAE@XZ				; CPoints::~CPoints
PUBLIC	??1CDrawingRegions@@QAE@XZ			; CDrawingRegions::~CDrawingRegions
PUBLIC	??0CTool@@IAE@PAVCAnalysisData@@W4COORDINATETYPE@CAnalysis@@@Z ; CTool::CTool
PUBLIC	?SetAnalysisData@CTool@@QAEXPAVCAnalysisData@@@Z ; CTool::SetAnalysisData
PUBLIC	?SetCoordinateType@CTool@@QAEXW4COORDINATETYPE@CAnalysis@@@Z ; CTool::SetCoordinateType
PUBLIC	?SetProcessStarting@CTool@@QAEX_N@Z		; CTool::SetProcessStarting
PUBLIC	?SetAutoPrice@CTool@@QAEX_N@Z			; CTool::SetAutoPrice
PUBLIC	?SetPenColor@CTool@@QAEXABK@Z			; CTool::SetPenColor
PUBLIC	?SetTextColor@CTool@@QAEXABK@Z			; CTool::SetTextColor
PUBLIC	?SetLineExt@CTool@@QAEXABH0@Z			; CTool::SetLineExt
PUBLIC	?DoesProcessStarting@CTool@@QBE_NXZ		; CTool::DoesProcessStarting
PUBLIC	?DoesElements@CTool@@QBE_NXZ			; CTool::DoesElements
PUBLIC	?GetElementCommonEnvironment@CTool@@QAEAAVCElementCommonEnvironment@@XZ ; CTool::GetElementCommonEnvironment
PUBLIC	?Invalidate@CTool@@QAEXXZ			; CTool::Invalidate
PUBLIC	?Initialize@CTool@@UAEXXZ			; CTool::Initialize
PUBLIC	?OnLButtonUp@CTool@@UAEXPAVCDC@@ABVCPoint@@@Z	; CTool::OnLButtonUp
PUBLIC	?OnRButtonUp@CTool@@UAEXPAVCDC@@ABVCPoint@@@Z	; CTool::OnRButtonUp
PUBLIC	?GetCoordinateCalculatorData@CTool@@QBE?AVCCoordinateCalculatorData@@ABVCPoint@@@Z ; CTool::GetCoordinateCalculatorData
PUBLIC	?GetCoordinateCalculator@CTool@@UBEAAVCCoordinateCalculator@@XZ ; CTool::GetCoordinateCalculator
PUBLIC	?PointInDrawingRegion@CTool@@MBE_NABVCPoint@@@Z	; CTool::PointInDrawingRegion
PUBLIC	?GetTextPosition@CTool@@MBEPBVCTextPosition@@XZ	; CTool::GetTextPosition
PUBLIC	?GetTextPosition@CTool@@MAEPAVCTextPosition@@XZ	; CTool::GetTextPosition
PUBLIC	?IsMakeElement@CTool@@MBE_NABVCPoint@@@Z	; CTool::IsMakeElement
PUBLIC	?MakeElement@CTool@@MAEPAVCElement@@ABVCElementCommonEnvironment@@@Z ; CTool::MakeElement
PUBLIC	?IsRelativePointType@CTool@@IBE_NXZ		; CTool::IsRelativePointType
PUBLIC	?IsAutoPrice@CTool@@IBE_NXZ			; CTool::IsAutoPrice
PUBLIC	?GetAnalysisData@CTool@@MBEPAVCAnalysisData@@XZ	; CTool::GetAnalysisData
PUBLIC	?GetDrawingRegions@CTool@@IBEABVCDrawingRegions@@XZ ; CTool::GetDrawingRegions
PUBLIC	?GetDrawingRegions@CTool@@IAEAAVCDrawingRegions@@XZ ; CTool::GetDrawingRegions
PUBLIC	?GetElementCommonEnvironment@CTool@@IBE?AVCElementCommonEnvironment@@XZ ; CTool::GetElementCommonEnvironment
PUBLIC	?GetDisplayAttributes@CTool@@IBE?AVCDisplayAttributes@@XZ ; CTool::GetDisplayAttributes
PUBLIC	?GetVertScaleType@CTool@@IBE?AVCVertScaleType@@ABVCPoint@@@Z ; CTool::GetVertScaleType
PUBLIC	?GetPosCoordinate@CTool@@IBE?AVCCoordinate@@ABVCPoint@@@Z ; CTool::GetPosCoordinate
PUBLIC	?GetPoints@CTool@@IBE?AVCPoints@@ABVCPoint@@@Z	; CTool::GetPoints
PUBLIC	?GetPointsAndSetDataType@CTool@@IAE?AVCPoints@@ABVCPoint@@@Z ; CTool::GetPointsAndSetDataType
PUBLIC	?GetDrawingPointAndSetDataType@CTool@@IAE?AVCPoint@@ABV2@@Z ; CTool::GetDrawingPointAndSetDataType
PUBLIC	?RefreshPointsAndSetDataType@CTool@@IAE?AVCPoints@@ABVCPoint@@@Z ; CTool::RefreshPointsAndSetDataType
PUBLIC	?SetDrawingRegions@CTool@@IAEXABVCPoint@@@Z	; CTool::SetDrawingRegions
PUBLIC	?ChangeCursor@CTool@@IAEXW4ModifyType@CToolEnumData@@@Z ; CTool::ChangeCursor
PUBLIC	?ChangeCursor@CTool@@IAEXW4DrawType@CToolEnumData@@@Z ; CTool::ChangeCursor
PUBLIC	?MakeElement@CTool@@IAEXABVCPoint@@@Z		; CTool::MakeElement
PUBLIC	?IsNullMainBlock@CTool@@ABE_NXZ			; CTool::IsNullMainBlock
PUBLIC	?GetPoints@CTool@@ABE?AVCPoints@@ABVCPoint@@AAVCCoordinateCalculatorData@@@Z ; CTool::GetPoints
PUBLIC	?GetDrawingPoint@CTool@@ABE?AVCPoint@@ABV2@AAVCCoordinateCalculatorData@@@Z ; CTool::GetDrawingPoint
PUBLIC	?SetDataTypeEnvironment@CTool@@AAEXABVCCoordinateCalculatorData@@@Z ; CTool::SetDataTypeEnvironment
PUBLIC	??_7CTool@@6B@					; CTool::`vftable'
PUBLIC	??_R4CTool@@6B@					; CTool::`RTTI Complete Object Locator'
PUBLIC	??_R0?AVCTool@@@8				; CTool `RTTI Type Descriptor'
PUBLIC	??_R3CTool@@8					; CTool::`RTTI Class Hierarchy Descriptor'
PUBLIC	??_R2CTool@@8					; CTool::`RTTI Base Class Array'
PUBLIC	??_R1A@?0A@EA@CTool@@8				; CTool::`RTTI Base Class Descriptor at (0,-1,0,64)'
EXTRN	__purecall:PROC
EXTRN	??3@YAXPAXI@Z:PROC				; operator delete
EXTRN	___std_terminate:PROC
EXTRN	__imp___invalid_parameter_noinfo_noreturn:PROC
EXTRN	__imp_??0?$CStringT@DV?$StrTraitMFC_DLL@DV?$ChTraitsCRT@D@ATL@@@@@ATL@@QAE@ABV01@@Z:PROC
EXTRN	__imp_??0?$CStringT@DV?$StrTraitMFC_DLL@DV?$ChTraitsCRT@D@ATL@@@@@ATL@@QAE@PBD@Z:PROC
EXTRN	__imp_??1?$CStringT@DV?$StrTraitMFC_DLL@DV?$ChTraitsCRT@D@ATL@@@@@ATL@@QAE@XZ:PROC
EXTRN	??0CVertScaleType@@QAE@XZ:PROC			; CVertScaleType::CVertScaleType
EXTRN	??0CVertScaleType@@QAE@_N0@Z:PROC		; CVertScaleType::CVertScaleType
EXTRN	??4CCoordinateCalculatorData@@QAEAAV0@ABV0@@Z:PROC ; CCoordinateCalculatorData::operator=
EXTRN	??0CCoordinateCalculatorData@@QAE@PAUIChartManager133101@@@Z:PROC ; CCoordinateCalculatorData::CCoordinateCalculatorData
EXTRN	??1CCoordinateCalculatorData@@QAE@XZ:PROC	; CCoordinateCalculatorData::~CCoordinateCalculatorData
EXTRN	?GetVertDataType@CCoordinateCalculatorData@@QBENXZ:PROC ; CCoordinateCalculatorData::GetVertDataType
EXTRN	?GetPacket_X@CCoordinateCalculatorData@@QBEPAUIPacket133101@@XZ:PROC ; CCoordinateCalculatorData::GetPacket_X
EXTRN	?GetPacket_Y@CCoordinateCalculatorData@@QBEPAUIPacket133101@@XZ:PROC ; CCoordinateCalculatorData::GetPacket_Y
EXTRN	?SetColor@CPenEnvironment@@QAEXABK@Z:PROC	; CPenEnvironment::SetColor
EXTRN	?Reset_AbsolutePoint@CDataTypeEnvironment@@QAEXXZ:PROC ; CDataTypeEnvironment::Reset_AbsolutePoint
EXTRN	?SetCoordinateType@CDataTypeEnvironment@@QAEXW4COORDINATETYPE@CAnalysis@@@Z:PROC ; CDataTypeEnvironment::SetCoordinateType
EXTRN	?SetVert@CDataTypeEnvironment@@QAEXABN@Z:PROC	; CDataTypeEnvironment::SetVert
EXTRN	?SetHorz@CDataTypeEnvironment@@QAEXABV?$CStringT@DV?$StrTraitMFC_DLL@DV?$ChTraitsCRT@D@ATL@@@@@ATL@@@Z:PROC ; CDataTypeEnvironment::SetHorz
EXTRN	?SetStrVert@CDataTypeEnvironment@@QAEXABV?$CStringT@DV?$StrTraitMFC_DLL@DV?$ChTraitsCRT@D@ATL@@@@@ATL@@@Z:PROC ; CDataTypeEnvironment::SetStrVert
EXTRN	?IsRelativePointType@CDataTypeEnvironment@@QBE_NXZ:PROC ; CDataTypeEnvironment::IsRelativePointType
EXTRN	??0CLineExtEnvironment@@QAE@ABV0@@Z:PROC	; CLineExtEnvironment::CLineExtEnvironment
EXTRN	??0CElementCommonEnvironment@@QAE@XZ:PROC	; CElementCommonEnvironment::CElementCommonEnvironment
EXTRN	?SetAutoPrice@CElementCommonEnvironment@@QAEX_N@Z:PROC ; CElementCommonEnvironment::SetAutoPrice
EXTRN	?IsAutoPrice@CElementCommonEnvironment@@QBE_NXZ:PROC ; CElementCommonEnvironment::IsAutoPrice
EXTRN	?SetLineExt@CElementCommonEnvironment@@QAEXHH@Z:PROC ; CElementCommonEnvironment::SetLineExt
EXTRN	?GetDataType@CElementCommonEnvironment@@QBE?AVCDataTypeEnvironment@@XZ:PROC ; CElementCommonEnvironment::GetDataType
EXTRN	?GetPen@CElementCommonEnvironment@@QAEAAVCPenEnvironment@@XZ:PROC ; CElementCommonEnvironment::GetPen
EXTRN	?GetDataType@CElementCommonEnvironment@@QAEAAVCDataTypeEnvironment@@XZ:PROC ; CElementCommonEnvironment::GetDataType
EXTRN	?SetColor@CTextEnvironment@@QAEXABK@Z:PROC	; CTextEnvironment::SetColor
EXTRN	?GetTextEnvironment@CTextPosition@@QAEAAVCTextEnvironment@@XZ:PROC ; CTextPosition::GetTextEnvironment
EXTRN	??0CCoordinate@@QAE@ABVCPoint@@@Z:PROC		; CCoordinate::CCoordinate
EXTRN	??0CCoordinate@@QAE@ABV0@@Z:PROC		; CCoordinate::CCoordinate
EXTRN	??0CPoints@@QAE@ABVCCoordinate@@ABVCPoint@@@Z:PROC ; CPoints::CPoints
EXTRN	?GetDrawingPoint@CPoints@@QBE?AVCPoint@@XZ:PROC	; CPoints::GetDrawingPoint
EXTRN	?GetElementCount@CElementTree@@QBEHXZ:PROC	; CElementTree::GetElementCount
EXTRN	?Add@CElementTree@@QAEXABVCBlockIndex@@PAVCElement@@@Z:PROC ; CElementTree::Add
EXTRN	?GetCommonEnvironment@CElement@@QAEAAVCElementCommonEnvironment@@XZ:PROC ; CElement::GetCommonEnvironment
EXTRN	?RegisterElementToUnRedoManager@CUndoRedoManager@@QAEXHJPBD0@Z:PROC ; CUndoRedoManager::RegisterElementToUnRedoManager
EXTRN	?GetParent@CAnalysisData@@QBEPAVCWnd@@XZ:PROC	; CAnalysisData::GetParent
EXTRN	?GetMainBlock@CAnalysisData@@QBEPAUIChartManager133101@@XZ:PROC ; CAnalysisData::GetMainBlock
EXTRN	?GetChartOCX@CAnalysisData@@QBEPAUIChartOCX133101@@XZ:PROC ; CAnalysisData::GetChartOCX
EXTRN	?GetElementTree@CAnalysisData@@QAEAAVCElementTree@@XZ:PROC ; CAnalysisData::GetElementTree
EXTRN	?RegisterElementToOrderManager@CAnalysisData@@QAEXJ@Z:PROC ; CAnalysisData::RegisterElementToOrderManager
EXTRN	?GetDisplayAttributes@CAnalysisData@@QBE?AVCDisplayAttributes@@XZ:PROC ; CAnalysisData::GetDisplayAttributes
EXTRN	?GetVertScaleType@CAnalysisData@@QBE_NABVCPoint@@AA_N1@Z:PROC ; CAnalysisData::GetVertScaleType
EXTRN	?GetCoordinateCalculatorData@CAnalysisData@@QBE?AVCCoordinateCalculatorData@@ABVCPoint@@@Z:PROC ; CAnalysisData::GetCoordinateCalculatorData
EXTRN	?GetBlockIndexInPoint@CAnalysisData@@QBE?AVCBlockIndex@@ABVCPoint@@@Z:PROC ; CAnalysisData::GetBlockIndexInPoint
EXTRN	?SendMessageToParent@CAnalysisData@@QAEXW4CHARTOBJECT@CCursorShape@@@Z:PROC ; CAnalysisData::SendMessageToParent
EXTRN	?Invalidate@CAnalysisData@@QAEXXZ:PROC		; CAnalysisData::Invalidate
EXTRN	?GetUndoRedoManager@CAnalysisData@@QAEAAVCUndoRedoManager@@XZ:PROC ; CAnalysisData::GetUndoRedoManager
EXTRN	??0CDrawingRegions@@QAE@XZ:PROC			; CDrawingRegions::CDrawingRegions
EXTRN	?Initialize@CDrawingRegions@@QAEXXZ:PROC	; CDrawingRegions::Initialize
EXTRN	?SetDrawingRegions@CDrawingRegions@@QAEXPAUIChartManager133101@@ABVCPoint@@@Z:PROC ; CDrawingRegions::SetDrawingRegions
EXTRN	?GetCount@CDrawingRegions@@QBEHXZ:PROC		; CDrawingRegions::GetCount
EXTRN	?PointInCurrentRegion@CDrawingRegions@@QBE_NABVCPoint@@@Z:PROC ; CDrawingRegions::PointInCurrentRegion
EXTRN	??0CDisplayAttributes@@QAE@XZ:PROC		; CDisplayAttributes::CDisplayAttributes
EXTRN	?AbsoluteToRelative@CCoordinateCalculator@@QBE?AVCCoordinate@@ABVCCoordinateCalculatorData@@ABVCPoint@@@Z:PROC ; CCoordinateCalculator::AbsoluteToRelative
EXTRN	?AbsoluteToRelativeAutoPrice@CCoordinateCalculator@@QBE?AVCCoordinate@@ABVCCoordinateCalculatorData@@ABVCPoint@@@Z:PROC ; CCoordinateCalculator::AbsoluteToRelativeAutoPrice
EXTRN	?RelativeToAbsolute@CCoordinateCalculator@@QBE?AVCPoint@@ABVCCoordinateCalculatorData@@ABVCCoordinate@@@Z:PROC ; CCoordinateCalculator::RelativeToAbsolute
EXTRN	?AbsoluteToAbsolute@CCoordinateCalculator@@QBE?AVCPoint@@ABVCCoordinateCalculatorData@@ABV2@@Z:PROC ; CCoordinateCalculator::AbsoluteToAbsolute
EXTRN	?FindCoordinateCalculator@CCoordinateCalculatorFinder@@SAAAVCCoordinateCalculator@@_N@Z:PROC ; CCoordinateCalculatorFinder::FindCoordinateCalculator
EXTRN	@__security_check_cookie@4:PROC
EXTRN	___CxxFrameHandler3:PROC
EXTRN	??_7type_info@@6B@:QWORD			; type_info::`vftable'
EXTRN	___security_cookie:DWORD
EXTRN	__fltused:DWORD
;	COMDAT ??_R1A@?0A@EA@CTool@@8
rdata$r	SEGMENT
??_R1A@?0A@EA@CTool@@8 DD FLAT:??_R0?AVCTool@@@8	; CTool::`RTTI Base Class Descriptor at (0,-1,0,64)'
	DD	00H
	DD	00H
	DD	0ffffffffH
	DD	00H
	DD	040H
	DD	FLAT:??_R3CTool@@8
rdata$r	ENDS
;	COMDAT ??_R2CTool@@8
rdata$r	SEGMENT
??_R2CTool@@8 DD FLAT:??_R1A@?0A@EA@CTool@@8		; CTool::`RTTI Base Class Array'
rdata$r	ENDS
;	COMDAT ??_R3CTool@@8
rdata$r	SEGMENT
??_R3CTool@@8 DD 00H					; CTool::`RTTI Class Hierarchy Descriptor'
	DD	00H
	DD	01H
	DD	FLAT:??_R2CTool@@8
rdata$r	ENDS
;	COMDAT ??_R0?AVCTool@@@8
data$rs	SEGMENT
??_R0?AVCTool@@@8 DD FLAT:??_7type_info@@6B@		; CTool `RTTI Type Descriptor'
	DD	00H
	DB	'.?AVCTool@@', 00H
data$rs	ENDS
;	COMDAT ??_R4CTool@@6B@
rdata$r	SEGMENT
??_R4CTool@@6B@ DD 00H					; CTool::`RTTI Complete Object Locator'
	DD	00H
	DD	00H
	DD	FLAT:??_R0?AVCTool@@@8
	DD	FLAT:??_R3CTool@@8
rdata$r	ENDS
;	COMDAT ??_7CTool@@6B@
CONST	SEGMENT
??_7CTool@@6B@ DD FLAT:??_R4CTool@@6B@			; CTool::`vftable'
	DD	FLAT:?Initialize@CTool@@UAEXXZ
	DD	FLAT:__purecall
	DD	FLAT:?OnLButtonUp@CTool@@UAEXPAVCDC@@ABVCPoint@@@Z
	DD	FLAT:__purecall
	DD	FLAT:?OnRButtonUp@CTool@@UAEXPAVCDC@@ABVCPoint@@@Z
	DD	FLAT:__purecall
	DD	FLAT:?GetCoordinateCalculator@CTool@@UBEAAVCCoordinateCalculator@@XZ
	DD	FLAT:?PointInDrawingRegion@CTool@@MBE_NABVCPoint@@@Z
	DD	FLAT:__purecall
	DD	FLAT:__purecall
	DD	FLAT:?GetTextPosition@CTool@@MAEPAVCTextPosition@@XZ
	DD	FLAT:?GetTextPosition@CTool@@MBEPBVCTextPosition@@XZ
	DD	FLAT:?IsMakeElement@CTool@@MBE_NABVCPoint@@@Z
	DD	FLAT:?MakeElement@CTool@@MAEPAVCElement@@ABVCElementCommonEnvironment@@@Z
	DD	FLAT:?GetAnalysisData@CTool@@MBEPAVCAnalysisData@@XZ
CONST	ENDS
;	COMDAT xdata$x
xdata$x	SEGMENT
__ehfuncinfo$?SetDataTypeEnvironment@CTool@@AAEXABVCCoordinateCalculatorData@@@Z DD 019930522H
	DD	07H
	DD	FLAT:__unwindtable$?SetDataTypeEnvironment@CTool@@AAEXABVCCoordinateCalculatorData@@@Z
	DD	2 DUP(00H)
	DD	2 DUP(00H)
	DD	00H
	DD	01H
__unwindtable$?SetDataTypeEnvironment@CTool@@AAEXABVCCoordinateCalculatorData@@@Z DD 0ffffffffH
	DD	FLAT:__unwindfunclet$?SetDataTypeEnvironment@CTool@@AAEXABVCCoordinateCalculatorData@@@Z$4
	DD	0ffffffffH
	DD	FLAT:__unwindfunclet$?SetDataTypeEnvironment@CTool@@AAEXABVCCoordinateCalculatorData@@@Z$0
	DD	01H
	DD	FLAT:__unwindfunclet$?SetDataTypeEnvironment@CTool@@AAEXABVCCoordinateCalculatorData@@@Z$1
	DD	0ffffffffH
	DD	FLAT:___std_terminate
	DD	0ffffffffH
	DD	FLAT:__unwindfunclet$?SetDataTypeEnvironment@CTool@@AAEXABVCCoordinateCalculatorData@@@Z$2
	DD	04H
	DD	FLAT:__unwindfunclet$?SetDataTypeEnvironment@CTool@@AAEXABVCCoordinateCalculatorData@@@Z$3
	DD	0ffffffffH
	DD	FLAT:___std_terminate
xdata$x	ENDS
;	COMDAT xdata$x
xdata$x	SEGMENT
__unwindtable$?GetDrawingPoint@CTool@@ABE?AVCPoint@@ABV2@AAVCCoordinateCalculatorData@@@Z DD 0ffffffffH
	DD	FLAT:__unwindfunclet$?GetDrawingPoint@CTool@@ABE?AVCPoint@@ABV2@AAVCCoordinateCalculatorData@@@Z$1
	DD	0ffffffffH
	DD	FLAT:__unwindfunclet$?GetDrawingPoint@CTool@@ABE?AVCPoint@@ABV2@AAVCCoordinateCalculatorData@@@Z$0
__ehfuncinfo$?GetDrawingPoint@CTool@@ABE?AVCPoint@@ABV2@AAVCCoordinateCalculatorData@@@Z DD 019930522H
	DD	02H
	DD	FLAT:__unwindtable$?GetDrawingPoint@CTool@@ABE?AVCPoint@@ABV2@AAVCCoordinateCalculatorData@@@Z
	DD	2 DUP(00H)
	DD	2 DUP(00H)
	DD	00H
	DD	01H
xdata$x	ENDS
;	COMDAT xdata$x
xdata$x	SEGMENT
__unwindtable$?GetPoints@CTool@@ABE?AVCPoints@@ABVCPoint@@AAVCCoordinateCalculatorData@@@Z DD 0ffffffffH
	DD	FLAT:__unwindfunclet$?GetPoints@CTool@@ABE?AVCPoints@@ABVCPoint@@AAVCCoordinateCalculatorData@@@Z$4
	DD	0ffffffffH
	DD	FLAT:__unwindfunclet$?GetPoints@CTool@@ABE?AVCPoints@@ABVCPoint@@AAVCCoordinateCalculatorData@@@Z$0
	DD	0ffffffffH
	DD	FLAT:__unwindfunclet$?GetPoints@CTool@@ABE?AVCPoints@@ABVCPoint@@AAVCCoordinateCalculatorData@@@Z$2
	DD	0ffffffffH
	DD	FLAT:__unwindfunclet$?GetPoints@CTool@@ABE?AVCPoints@@ABVCPoint@@AAVCCoordinateCalculatorData@@@Z$3
__ehfuncinfo$?GetPoints@CTool@@ABE?AVCPoints@@ABVCPoint@@AAVCCoordinateCalculatorData@@@Z DD 019930522H
	DD	04H
	DD	FLAT:__unwindtable$?GetPoints@CTool@@ABE?AVCPoints@@ABVCPoint@@AAVCCoordinateCalculatorData@@@Z
	DD	2 DUP(00H)
	DD	2 DUP(00H)
	DD	00H
	DD	01H
xdata$x	ENDS
;	COMDAT xdata$x
xdata$x	SEGMENT
__unwindtable$?RefreshPointsAndSetDataType@CTool@@IAE?AVCPoints@@ABVCPoint@@@Z DD 0ffffffffH
	DD	FLAT:__unwindfunclet$?RefreshPointsAndSetDataType@CTool@@IAE?AVCPoints@@ABVCPoint@@@Z$0
	DD	00H
	DD	FLAT:__unwindfunclet$?RefreshPointsAndSetDataType@CTool@@IAE?AVCPoints@@ABVCPoint@@@Z$1
__ehfuncinfo$?RefreshPointsAndSetDataType@CTool@@IAE?AVCPoints@@ABVCPoint@@@Z DD 019930522H
	DD	02H
	DD	FLAT:__unwindtable$?RefreshPointsAndSetDataType@CTool@@IAE?AVCPoints@@ABVCPoint@@@Z
	DD	2 DUP(00H)
	DD	2 DUP(00H)
	DD	00H
	DD	01H
xdata$x	ENDS
;	COMDAT xdata$x
xdata$x	SEGMENT
__unwindtable$?GetDrawingPointAndSetDataType@CTool@@IAE?AVCPoint@@ABV2@@Z DD 0ffffffffH
	DD	FLAT:__unwindfunclet$?GetDrawingPointAndSetDataType@CTool@@IAE?AVCPoint@@ABV2@@Z$0
	DD	00H
	DD	FLAT:__unwindfunclet$?GetDrawingPointAndSetDataType@CTool@@IAE?AVCPoint@@ABV2@@Z$2
	DD	00H
	DD	FLAT:__unwindfunclet$?GetDrawingPointAndSetDataType@CTool@@IAE?AVCPoint@@ABV2@@Z$1
__ehfuncinfo$?GetDrawingPointAndSetDataType@CTool@@IAE?AVCPoint@@ABV2@@Z DD 019930522H
	DD	03H
	DD	FLAT:__unwindtable$?GetDrawingPointAndSetDataType@CTool@@IAE?AVCPoint@@ABV2@@Z
	DD	2 DUP(00H)
	DD	2 DUP(00H)
	DD	00H
	DD	01H
xdata$x	ENDS
;	COMDAT xdata$x
xdata$x	SEGMENT
__unwindtable$?GetPointsAndSetDataType@CTool@@IAE?AVCPoints@@ABVCPoint@@@Z DD 0ffffffffH
	DD	FLAT:__unwindfunclet$?GetPointsAndSetDataType@CTool@@IAE?AVCPoints@@ABVCPoint@@@Z$1
	DD	00H
	DD	FLAT:__unwindfunclet$?GetPointsAndSetDataType@CTool@@IAE?AVCPoints@@ABVCPoint@@@Z$0
__ehfuncinfo$?GetPointsAndSetDataType@CTool@@IAE?AVCPoints@@ABVCPoint@@@Z DD 019930522H
	DD	02H
	DD	FLAT:__unwindtable$?GetPointsAndSetDataType@CTool@@IAE?AVCPoints@@ABVCPoint@@@Z
	DD	2 DUP(00H)
	DD	2 DUP(00H)
	DD	00H
	DD	01H
xdata$x	ENDS
;	COMDAT xdata$x
xdata$x	SEGMENT
__unwindtable$?GetPoints@CTool@@IBE?AVCPoints@@ABVCPoint@@@Z DD 0ffffffffH
	DD	FLAT:__unwindfunclet$?GetPoints@CTool@@IBE?AVCPoints@@ABVCPoint@@@Z$0
__ehfuncinfo$?GetPoints@CTool@@IBE?AVCPoints@@ABVCPoint@@@Z DD 019930522H
	DD	01H
	DD	FLAT:__unwindtable$?GetPoints@CTool@@IBE?AVCPoints@@ABVCPoint@@@Z
	DD	2 DUP(00H)
	DD	2 DUP(00H)
	DD	00H
	DD	01H
xdata$x	ENDS
;	COMDAT xdata$x
xdata$x	SEGMENT
__unwindtable$?GetPosCoordinate@CTool@@IBE?AVCCoordinate@@ABVCPoint@@@Z DD 0ffffffffH
	DD	FLAT:__unwindfunclet$?GetPosCoordinate@CTool@@IBE?AVCCoordinate@@ABVCPoint@@@Z$2
	DD	0ffffffffH
	DD	FLAT:__unwindfunclet$?GetPosCoordinate@CTool@@IBE?AVCCoordinate@@ABVCPoint@@@Z$1
__ehfuncinfo$?GetPosCoordinate@CTool@@IBE?AVCCoordinate@@ABVCPoint@@@Z DD 019930522H
	DD	02H
	DD	FLAT:__unwindtable$?GetPosCoordinate@CTool@@IBE?AVCCoordinate@@ABVCPoint@@@Z
	DD	2 DUP(00H)
	DD	2 DUP(00H)
	DD	00H
	DD	01H
xdata$x	ENDS
;	COMDAT xdata$x
xdata$x	SEGMENT
__unwindtable$?GetElementCommonEnvironment@CTool@@IBE?AVCElementCommonEnvironment@@XZ DD 0ffffffffH
	DD	FLAT:__unwindfunclet$?GetElementCommonEnvironment@CTool@@IBE?AVCElementCommonEnvironment@@XZ$2
	DD	00H
	DD	FLAT:__unwindfunclet$?GetElementCommonEnvironment@CTool@@IBE?AVCElementCommonEnvironment@@XZ$3
__ehfuncinfo$?GetElementCommonEnvironment@CTool@@IBE?AVCElementCommonEnvironment@@XZ DD 019930522H
	DD	02H
	DD	FLAT:__unwindtable$?GetElementCommonEnvironment@CTool@@IBE?AVCElementCommonEnvironment@@XZ
	DD	2 DUP(00H)
	DD	2 DUP(00H)
	DD	00H
	DD	01H
xdata$x	ENDS
;	COMDAT xdata$x
xdata$x	SEGMENT
__unwindtable$?IsRelativePointType@CTool@@IBE_NXZ DD 0ffffffffH
	DD	FLAT:__unwindfunclet$?IsRelativePointType@CTool@@IBE_NXZ$0
__ehfuncinfo$?IsRelativePointType@CTool@@IBE_NXZ DD 019930522H
	DD	01H
	DD	FLAT:__unwindtable$?IsRelativePointType@CTool@@IBE_NXZ
	DD	2 DUP(00H)
	DD	2 DUP(00H)
	DD	00H
	DD	01H
xdata$x	ENDS
;	COMDAT xdata$x
xdata$x	SEGMENT
__unwindtable$?OnLButtonUp@CTool@@UAEXPAVCDC@@ABVCPoint@@@Z DD 0ffffffffH
	DD	FLAT:__unwindfunclet$?OnLButtonUp@CTool@@UAEXPAVCDC@@ABVCPoint@@@Z$1
	DD	0ffffffffH
	DD	FLAT:__unwindfunclet$?OnLButtonUp@CTool@@UAEXPAVCDC@@ABVCPoint@@@Z$0
__ehfuncinfo$?OnLButtonUp@CTool@@UAEXPAVCDC@@ABVCPoint@@@Z DD 019930522H
	DD	02H
	DD	FLAT:__unwindtable$?OnLButtonUp@CTool@@UAEXPAVCDC@@ABVCPoint@@@Z
	DD	2 DUP(00H)
	DD	2 DUP(00H)
	DD	00H
	DD	01H
xdata$x	ENDS
;	COMDAT xdata$x
xdata$x	SEGMENT
__unwindtable$?SetCoordinateType@CTool@@QAEXW4COORDINATETYPE@CAnalysis@@@Z DD 0ffffffffH
	DD	FLAT:__unwindfunclet$?SetCoordinateType@CTool@@QAEXW4COORDINATETYPE@CAnalysis@@@Z$0
__ehfuncinfo$?SetCoordinateType@CTool@@QAEXW4COORDINATETYPE@CAnalysis@@@Z DD 019930522H
	DD	01H
	DD	FLAT:__unwindtable$?SetCoordinateType@CTool@@QAEXW4COORDINATETYPE@CAnalysis@@@Z
	DD	2 DUP(00H)
	DD	2 DUP(00H)
	DD	00H
	DD	01H
xdata$x	ENDS
;	COMDAT xdata$x
xdata$x	SEGMENT
__unwindtable$??0CTool@@IAE@PAVCAnalysisData@@W4COORDINATETYPE@CAnalysis@@@Z DD 0ffffffffH
	DD	FLAT:__unwindfunclet$??0CTool@@IAE@PAVCAnalysisData@@W4COORDINATETYPE@CAnalysis@@@Z$0
	DD	00H
	DD	FLAT:__unwindfunclet$??0CTool@@IAE@PAVCAnalysisData@@W4COORDINATETYPE@CAnalysis@@@Z$1
	DD	01H
	DD	FLAT:__unwindfunclet$??0CTool@@IAE@PAVCAnalysisData@@W4COORDINATETYPE@CAnalysis@@@Z$2
__ehfuncinfo$??0CTool@@IAE@PAVCAnalysisData@@W4COORDINATETYPE@CAnalysis@@@Z DD 019930522H
	DD	03H
	DD	FLAT:__unwindtable$??0CTool@@IAE@PAVCAnalysisData@@W4COORDINATETYPE@CAnalysis@@@Z
	DD	2 DUP(00H)
	DD	2 DUP(00H)
	DD	00H
	DD	01H
xdata$x	ENDS
;	COMDAT xdata$x
xdata$x	SEGMENT
__unwindtable$??0CElementCommonEnvironment@@QAE@ABV0@@Z DD 0ffffffffH
	DD	FLAT:__unwindfunclet$??0CElementCommonEnvironment@@QAE@ABV0@@Z$1
	DD	00H
	DD	FLAT:__unwindfunclet$??0CElementCommonEnvironment@@QAE@ABV0@@Z$2
__ehfuncinfo$??0CElementCommonEnvironment@@QAE@ABV0@@Z DD 019930522H
	DD	02H
	DD	FLAT:__unwindtable$??0CElementCommonEnvironment@@QAE@ABV0@@Z
	DD	2 DUP(00H)
	DD	2 DUP(00H)
	DD	00H
	DD	01H
xdata$x	ENDS
;	COMDAT xdata$x
xdata$x	SEGMENT
__unwindtable$??0CDataTypeEnvironment@@QAE@ABV0@@Z DD 0ffffffffH
	DD	FLAT:__unwindfunclet$??0CDataTypeEnvironment@@QAE@ABV0@@Z$0
	DD	00H
	DD	FLAT:__unwindfunclet$??0CDataTypeEnvironment@@QAE@ABV0@@Z$1
__ehfuncinfo$??0CDataTypeEnvironment@@QAE@ABV0@@Z DD 019930522H
	DD	02H
	DD	FLAT:__unwindtable$??0CDataTypeEnvironment@@QAE@ABV0@@Z
	DD	2 DUP(00H)
	DD	2 DUP(00H)
	DD	00H
	DD	01H
xdata$x	ENDS
;	COMDAT xdata$x
xdata$x	SEGMENT
__ehfuncinfo$??1ILPCSTR133101@@QAE@XZ DD 019930522H
	DD	00H
	DD	00H
	DD	2 DUP(00H)
	DD	2 DUP(00H)
	DD	00H
	DD	05H
xdata$x	ENDS
; Function compile flags: /Ogtp
; File D:\git\src\IBK\IBK_DRFN\ProjSrc\SrcChartEx\ChartAddIn\ChartAnalysisToolAddIn\AnalysisTool\Tool.cpp
; File D:\git\src\IBK\IBK_DRFN\ProjSrc\SrcChartEx\ChartAddIn\ChartAnalysisToolAddIn\Include_AddIn_133101\I133101\_IString.h
; File D:\git\src\IBK\IBK_DRFN\ProjSrc\SrcChartEx\ChartAddIn\ChartAnalysisToolAddIn\AnalysisTool\Tool.cpp
; File D:\git\src\IBK\IBK_DRFN\ProjSrc\SrcChartEx\ChartAddIn\ChartAnalysisToolAddIn\Include_AddIn_133101\I133101\_IString.h
; File D:\git\src\IBK\IBK_DRFN\ProjSrc\SrcChartEx\ChartAddIn\ChartAnalysisToolAddIn\AnalysisTool\Tool.cpp
; File D:\git\src\IBK\IBK_DRFN\ProjSrc\SrcChartEx\ChartAddIn\ChartAnalysisToolAddIn\Include_AddIn_133101\I133101\_IString.h
; File D:\git\src\IBK\IBK_DRFN\ProjSrc\SrcChartEx\ChartAddIn\ChartAnalysisToolAddIn\AnalysisTool\Tool.cpp
; File D:\git\src\IBK\IBK_DRFN\ProjSrc\SrcChartEx\ChartAddIn\ChartAnalysisToolAddIn\Include_AddIn_133101\I133101\_IString.h
; File D:\git\src\IBK\IBK_DRFN\ProjSrc\SrcChartEx\ChartAddIn\ChartAnalysisToolAddIn\AnalysisTool\Tool.cpp
;	COMDAT ?SetDataTypeEnvironment@CTool@@AAEXABVCCoordinateCalculatorData@@@Z
_TEXT	SEGMENT
$T2 = -68						; size = 40
_szPacketType$3 = -28					; size = 8
_szPacketType$4 = -28					; size = 8
$T5 = -28						; size = 8
tv285 = -20						; size = 4
_strPacketType$6 = -16					; size = 4
__$EHRec$ = -12						; size = 12
$T7 = 8							; size = 4
_calData$ = 8						; size = 4
?SetDataTypeEnvironment@CTool@@AAEXABVCCoordinateCalculatorData@@@Z PROC ; CTool::SetDataTypeEnvironment, COMDAT
; _this$ = ecx

; 403  : {

  00000	55		 push	 ebp
  00001	8b ec		 mov	 ebp, esp
  00003	6a ff		 push	 -1
  00005	68 00 00 00 00	 push	 __ehhandler$?SetDataTypeEnvironment@CTool@@AAEXABVCCoordinateCalculatorData@@@Z
  0000a	64 a1 00 00 00
	00		 mov	 eax, DWORD PTR fs:0
  00010	50		 push	 eax
  00011	83 ec 38	 sub	 esp, 56			; 00000038H
  00014	53		 push	 ebx
  00015	56		 push	 esi
  00016	57		 push	 edi
  00017	a1 00 00 00 00	 mov	 eax, DWORD PTR ___security_cookie
  0001c	33 c5		 xor	 eax, ebp
  0001e	50		 push	 eax
  0001f	8d 45 f4	 lea	 eax, DWORD PTR __$EHRec$[ebp]
  00022	64 a3 00 00 00
	00		 mov	 DWORD PTR fs:0, eax

; 173  : 	return m_commonEnvironment.GetDataType().IsRelativePointType();

  00028	8d 71 28	 lea	 esi, DWORD PTR [ecx+40]
  0002b	8d 45 bc	 lea	 eax, DWORD PTR $T2[ebp]
  0002e	89 75 ec	 mov	 DWORD PTR tv285[ebp], esi
  00031	50		 push	 eax
  00032	8b ce		 mov	 ecx, esi
  00034	e8 00 00 00 00	 call	 ?GetDataType@CElementCommonEnvironment@@QBE?AVCDataTypeEnvironment@@XZ ; CElementCommonEnvironment::GetDataType
  00039	8b c8		 mov	 ecx, eax
  0003b	c7 45 fc 00 00
	00 00		 mov	 DWORD PTR __$EHRec$[ebp+8], 0
  00042	e8 00 00 00 00	 call	 ?IsRelativePointType@CDataTypeEnvironment@@QBE_NXZ ; CDataTypeEnvironment::IsRelativePointType
  00047	8d 4d d4	 lea	 ecx, DWORD PTR $T2[ebp+24]
  0004a	c7 45 fc ff ff
	ff ff		 mov	 DWORD PTR __$EHRec$[ebp+8], -1
  00051	8a d8		 mov	 bl, al
  00053	ff 15 00 00 00
	00		 call	 DWORD PTR __imp_??1?$CStringT@DV?$StrTraitMFC_DLL@DV?$ChTraitsCRT@D@ATL@@@@@ATL@@QAE@XZ
  00059	8d 4d d0	 lea	 ecx, DWORD PTR $T2[ebp+20]
  0005c	ff 15 00 00 00
	00		 call	 DWORD PTR __imp_??1?$CStringT@DV?$StrTraitMFC_DLL@DV?$ChTraitsCRT@D@ATL@@@@@ATL@@QAE@XZ
  00062	8d 4d cc	 lea	 ecx, DWORD PTR $T2[ebp+16]
  00065	ff 15 00 00 00
	00		 call	 DWORD PTR __imp_??1?$CStringT@DV?$StrTraitMFC_DLL@DV?$ChTraitsCRT@D@ATL@@@@@ATL@@QAE@XZ

; 404  : 	if(!IsRelativePointType())

  0006b	84 db		 test	 bl, bl
  0006d	75 22		 jne	 SHORT $LN2@SetDataTyp

; 405  : 	{
; 406  : 		m_commonEnvironment.GetDataType().Reset_AbsolutePoint();

  0006f	8b ce		 mov	 ecx, esi
  00071	e8 00 00 00 00	 call	 ?GetDataType@CElementCommonEnvironment@@QAEAAVCDataTypeEnvironment@@XZ ; CElementCommonEnvironment::GetDataType
  00076	8b c8		 mov	 ecx, eax
  00078	e8 00 00 00 00	 call	 ?Reset_AbsolutePoint@CDataTypeEnvironment@@QAEXXZ ; CDataTypeEnvironment::Reset_AbsolutePoint

; 429  : }

  0007d	8b 4d f4	 mov	 ecx, DWORD PTR __$EHRec$[ebp]
  00080	64 89 0d 00 00
	00 00		 mov	 DWORD PTR fs:0, ecx
  00087	59		 pop	 ecx
  00088	5f		 pop	 edi
  00089	5e		 pop	 esi
  0008a	5b		 pop	 ebx
  0008b	8b e5		 mov	 esp, ebp
  0008d	5d		 pop	 ebp
  0008e	c2 04 00	 ret	 4
$LN2@SetDataTyp:

; 407  : 	}
; 408  : 	else
; 409  : 	{
; 410  : 		m_commonEnvironment.GetDataType().SetVert(calData.GetVertDataType());

  00091	8b 4d 08	 mov	 ecx, DWORD PTR _calData$[ebp]
  00094	e8 00 00 00 00	 call	 ?GetVertDataType@CCoordinateCalculatorData@@QBENXZ ; CCoordinateCalculatorData::GetVertDataType
  00099	8d 45 e4	 lea	 eax, DWORD PTR $T5[ebp]
  0009c	8b ce		 mov	 ecx, esi
  0009e	50		 push	 eax
  0009f	dd 5d e4	 fstp	 QWORD PTR $T5[ebp]
  000a2	e8 00 00 00 00	 call	 ?GetDataType@CElementCommonEnvironment@@QAEAAVCDataTypeEnvironment@@XZ ; CElementCommonEnvironment::GetDataType
  000a7	8b c8		 mov	 ecx, eax
  000a9	e8 00 00 00 00	 call	 ?SetVert@CDataTypeEnvironment@@QAEXABN@Z ; CDataTypeEnvironment::SetVert

; 411  : 		IPacket *pIPacket = calData.GetPacket_X();

  000ae	8b 4d 08	 mov	 ecx, DWORD PTR _calData$[ebp]
  000b1	e8 00 00 00 00	 call	 ?GetPacket_X@CCoordinateCalculatorData@@QBEPAUIPacket133101@@XZ ; CCoordinateCalculatorData::GetPacket_X
  000b6	8b f8		 mov	 edi, eax

; 412  : 		if( pIPacket)

  000b8	85 ff		 test	 edi, edi
  000ba	74 73		 je	 SHORT $LN33@SetDataTyp

; 414  : 			ILPCSTR szPacketType = pIPacket->GetType();

  000bc	8b 17		 mov	 edx, DWORD PTR [edi]
  000be	8b cf		 mov	 ecx, edi
  000c0	6a 01		 push	 1
  000c2	ff 52 1c	 call	 DWORD PTR [edx+28]
; File D:\git\src\IBK\IBK_DRFN\ProjSrc\SrcChartEx\ChartAddIn\ChartAnalysisToolAddIn\Include_AddIn_133101\I133101\_IString.h

; 39   : 		m_pIStrData = p_pIString;	// Do not AddRef(). Because It must be Return Value.

  000c5	8b f0		 mov	 esi, eax
  000c7	89 75 e8	 mov	 DWORD PTR _szPacketType$4[ebp+4], esi

; 40   : 		if( m_pIStrData) m_szData = m_pIStrData->GetData();

  000ca	85 f6		 test	 esi, esi
  000cc	74 09		 je	 SHORT $LN18@SetDataTyp
  000ce	8b 16		 mov	 edx, DWORD PTR [esi]
  000d0	8b ce		 mov	 ecx, esi
  000d2	ff 52 10	 call	 DWORD PTR [edx+16]
  000d5	eb 02		 jmp	 SHORT $LN35@SetDataTyp
$LN18@SetDataTyp:

; 41   : 		else m_szData = NULL;

  000d7	33 c0		 xor	 eax, eax
$LN35@SetDataTyp:
; File D:\git\src\IBK\IBK_DRFN\ProjSrc\SrcChartEx\ChartAddIn\ChartAnalysisToolAddIn\AnalysisTool\Tool.cpp

; 414  : 			ILPCSTR szPacketType = pIPacket->GetType();

  000d9	89 45 e4	 mov	 DWORD PTR _szPacketType$4[ebp], eax

; 415  : 			CString strPacketType( szPacketType);

  000dc	50		 push	 eax
  000dd	8d 4d f0	 lea	 ecx, DWORD PTR _strPacketType$6[ebp]
  000e0	c7 45 fc 01 00
	00 00		 mov	 DWORD PTR __$EHRec$[ebp+8], 1
  000e7	ff 15 00 00 00
	00		 call	 DWORD PTR __imp_??0?$CStringT@DV?$StrTraitMFC_DLL@DV?$ChTraitsCRT@D@ATL@@@@@ATL@@QAE@PBD@Z

; 416  : 			m_commonEnvironment.GetDataType().SetHorz( strPacketType);

  000ed	8b 5d ec	 mov	 ebx, DWORD PTR tv285[ebp]
  000f0	8d 45 f0	 lea	 eax, DWORD PTR _strPacketType$6[ebp]
  000f3	50		 push	 eax
  000f4	8b cb		 mov	 ecx, ebx
  000f6	c6 45 fc 02	 mov	 BYTE PTR __$EHRec$[ebp+8], 2
  000fa	e8 00 00 00 00	 call	 ?GetDataType@CElementCommonEnvironment@@QAEAAVCDataTypeEnvironment@@XZ ; CElementCommonEnvironment::GetDataType
  000ff	8b c8		 mov	 ecx, eax
  00101	e8 00 00 00 00	 call	 ?SetHorz@CDataTypeEnvironment@@QAEXABV?$CStringT@DV?$StrTraitMFC_DLL@DV?$ChTraitsCRT@D@ATL@@@@@ATL@@@Z ; CDataTypeEnvironment::SetHorz

; 417  : 			pIPacket->Release();

  00106	8b 07		 mov	 eax, DWORD PTR [edi]
  00108	57		 push	 edi
  00109	ff 50 08	 call	 DWORD PTR [eax+8]

; 418  : 		}

  0010c	8d 4d f0	 lea	 ecx, DWORD PTR _strPacketType$6[ebp]
  0010f	ff 15 00 00 00
	00		 call	 DWORD PTR __imp_??1?$CStringT@DV?$StrTraitMFC_DLL@DV?$ChTraitsCRT@D@ATL@@@@@ATL@@QAE@XZ
; File D:\git\src\IBK\IBK_DRFN\ProjSrc\SrcChartEx\ChartAddIn\ChartAnalysisToolAddIn\Include_AddIn_133101\I133101\_IString.h

; 44   : 	{

  00115	c7 45 fc 03 00
	00 00		 mov	 DWORD PTR __$EHRec$[ebp+8], 3

; 45   : 		if( m_pIStrData)

  0011c	85 f6		 test	 esi, esi
  0011e	74 06		 je	 SHORT $LN22@SetDataTyp

; 46   : 		{
; 47   : 			m_pIStrData->Release();

  00120	8b 06		 mov	 eax, DWORD PTR [esi]
  00122	56		 push	 esi
  00123	ff 50 08	 call	 DWORD PTR [eax+8]
$LN22@SetDataTyp:

; 48   : 			m_pIStrData = NULL;
; 49   : 			m_szData = NULL;
; 50   : 		}
; 51   : 	}

  00126	c7 45 fc ff ff
	ff ff		 mov	 DWORD PTR __$EHRec$[ebp+8], -1
; File D:\git\src\IBK\IBK_DRFN\ProjSrc\SrcChartEx\ChartAddIn\ChartAnalysisToolAddIn\AnalysisTool\Tool.cpp

; 412  : 		if( pIPacket)

  0012d	eb 03		 jmp	 SHORT $LN23@SetDataTyp
$LN33@SetDataTyp:
  0012f	8b 5d ec	 mov	 ebx, DWORD PTR tv285[ebp]
$LN23@SetDataTyp:

; 419  : // 2008.10.15 by LYH >> 8,32bit지원
; 420  : 		IPacket *pIPacketY = calData.GetPacket_Y();

  00132	8b 4d 08	 mov	 ecx, DWORD PTR _calData$[ebp]
  00135	e8 00 00 00 00	 call	 ?GetPacket_Y@CCoordinateCalculatorData@@QBEPAUIPacket133101@@XZ ; CCoordinateCalculatorData::GetPacket_Y
  0013a	8b f8		 mov	 edi, eax

; 421  : 		if( pIPacketY)

  0013c	85 ff		 test	 edi, edi
  0013e	74 68		 je	 SHORT $LN30@SetDataTyp

; 423  : 			ILPCSTR szPacketType = pIPacketY->GetType( false);

  00140	8b 17		 mov	 edx, DWORD PTR [edi]
  00142	8b cf		 mov	 ecx, edi
  00144	6a 00		 push	 0
  00146	ff 52 1c	 call	 DWORD PTR [edx+28]
; File D:\git\src\IBK\IBK_DRFN\ProjSrc\SrcChartEx\ChartAddIn\ChartAnalysisToolAddIn\Include_AddIn_133101\I133101\_IString.h

; 39   : 		m_pIStrData = p_pIString;	// Do not AddRef(). Because It must be Return Value.

  00149	8b f0		 mov	 esi, eax
  0014b	89 75 e8	 mov	 DWORD PTR _szPacketType$3[ebp+4], esi

; 40   : 		if( m_pIStrData) m_szData = m_pIStrData->GetData();

  0014e	85 f6		 test	 esi, esi
  00150	74 09		 je	 SHORT $LN26@SetDataTyp
  00152	8b 16		 mov	 edx, DWORD PTR [esi]
  00154	8b ce		 mov	 ecx, esi
  00156	ff 52 10	 call	 DWORD PTR [edx+16]
  00159	eb 02		 jmp	 SHORT $LN36@SetDataTyp
$LN26@SetDataTyp:

; 41   : 		else m_szData = NULL;

  0015b	33 c0		 xor	 eax, eax
$LN36@SetDataTyp:
; File D:\git\src\IBK\IBK_DRFN\ProjSrc\SrcChartEx\ChartAddIn\ChartAnalysisToolAddIn\AnalysisTool\Tool.cpp

; 423  : 			ILPCSTR szPacketType = pIPacketY->GetType( false);

  0015d	89 45 e4	 mov	 DWORD PTR _szPacketType$3[ebp], eax

; 424  : 			m_commonEnvironment.GetDataType().SetStrVert( CString( szPacketType));

  00160	50		 push	 eax
  00161	8d 4d 08	 lea	 ecx, DWORD PTR $T7[ebp]
  00164	c7 45 fc 04 00
	00 00		 mov	 DWORD PTR __$EHRec$[ebp+8], 4
  0016b	ff 15 00 00 00
	00		 call	 DWORD PTR __imp_??0?$CStringT@DV?$StrTraitMFC_DLL@DV?$ChTraitsCRT@D@ATL@@@@@ATL@@QAE@PBD@Z
  00171	50		 push	 eax
  00172	8b cb		 mov	 ecx, ebx
  00174	c6 45 fc 05	 mov	 BYTE PTR __$EHRec$[ebp+8], 5
  00178	e8 00 00 00 00	 call	 ?GetDataType@CElementCommonEnvironment@@QAEAAVCDataTypeEnvironment@@XZ ; CElementCommonEnvironment::GetDataType
  0017d	8b c8		 mov	 ecx, eax
  0017f	e8 00 00 00 00	 call	 ?SetStrVert@CDataTypeEnvironment@@QAEXABV?$CStringT@DV?$StrTraitMFC_DLL@DV?$ChTraitsCRT@D@ATL@@@@@ATL@@@Z ; CDataTypeEnvironment::SetStrVert
  00184	8d 4d 08	 lea	 ecx, DWORD PTR $T7[ebp]
  00187	c6 45 fc 04	 mov	 BYTE PTR __$EHRec$[ebp+8], 4
  0018b	ff 15 00 00 00
	00		 call	 DWORD PTR __imp_??1?$CStringT@DV?$StrTraitMFC_DLL@DV?$ChTraitsCRT@D@ATL@@@@@ATL@@QAE@XZ

; 425  : 			pIPacketY->Release();

  00191	8b 07		 mov	 eax, DWORD PTR [edi]
  00193	57		 push	 edi
  00194	ff 50 08	 call	 DWORD PTR [eax+8]
; File D:\git\src\IBK\IBK_DRFN\ProjSrc\SrcChartEx\ChartAddIn\ChartAnalysisToolAddIn\Include_AddIn_133101\I133101\_IString.h

; 44   : 	{

  00197	c7 45 fc 06 00
	00 00		 mov	 DWORD PTR __$EHRec$[ebp+8], 6

; 45   : 		if( m_pIStrData)

  0019e	85 f6		 test	 esi, esi
  001a0	74 06		 je	 SHORT $LN30@SetDataTyp

; 46   : 		{
; 47   : 			m_pIStrData->Release();

  001a2	8b 06		 mov	 eax, DWORD PTR [esi]
  001a4	56		 push	 esi
  001a5	ff 50 08	 call	 DWORD PTR [eax+8]
$LN30@SetDataTyp:
; File D:\git\src\IBK\IBK_DRFN\ProjSrc\SrcChartEx\ChartAddIn\ChartAnalysisToolAddIn\AnalysisTool\Tool.cpp

; 429  : }

  001a8	8b 4d f4	 mov	 ecx, DWORD PTR __$EHRec$[ebp]
  001ab	64 89 0d 00 00
	00 00		 mov	 DWORD PTR fs:0, ecx
  001b2	59		 pop	 ecx
  001b3	5f		 pop	 edi
  001b4	5e		 pop	 esi
  001b5	5b		 pop	 ebx
  001b6	8b e5		 mov	 esp, ebp
  001b8	5d		 pop	 ebp
  001b9	c2 04 00	 ret	 4
_TEXT	ENDS
;	COMDAT text$x
text$x	SEGMENT
__unwindfunclet$?SetDataTypeEnvironment@CTool@@AAEXABVCCoordinateCalculatorData@@@Z$4:
  00000	8d 4d bc	 lea	 ecx, DWORD PTR $T2[ebp]
  00003	e9 00 00 00 00	 jmp	 ??1CDataTypeEnvironment@@QAE@XZ
__unwindfunclet$?SetDataTypeEnvironment@CTool@@AAEXABVCCoordinateCalculatorData@@@Z$0:
  00008	8d 4d e4	 lea	 ecx, DWORD PTR _szPacketType$4[ebp]
  0000b	e9 00 00 00 00	 jmp	 ??1ILPCSTR133101@@QAE@XZ ; ILPCSTR133101::~ILPCSTR133101
__unwindfunclet$?SetDataTypeEnvironment@CTool@@AAEXABVCCoordinateCalculatorData@@@Z$1:
  00010	8d 4d f0	 lea	 ecx, DWORD PTR _strPacketType$6[ebp]
  00013	ff 25 00 00 00
	00		 jmp	 DWORD PTR __imp_??1?$CStringT@DV?$StrTraitMFC_DLL@DV?$ChTraitsCRT@D@ATL@@@@@ATL@@QAE@XZ
__unwindfunclet$?SetDataTypeEnvironment@CTool@@AAEXABVCCoordinateCalculatorData@@@Z$2:
  00019	8d 4d e4	 lea	 ecx, DWORD PTR _szPacketType$3[ebp]
  0001c	e9 00 00 00 00	 jmp	 ??1ILPCSTR133101@@QAE@XZ ; ILPCSTR133101::~ILPCSTR133101
__unwindfunclet$?SetDataTypeEnvironment@CTool@@AAEXABVCCoordinateCalculatorData@@@Z$3:
  00021	8d 4d 08	 lea	 ecx, DWORD PTR $T7[ebp]
  00024	ff 25 00 00 00
	00		 jmp	 DWORD PTR __imp_??1?$CStringT@DV?$StrTraitMFC_DLL@DV?$ChTraitsCRT@D@ATL@@@@@ATL@@QAE@XZ
  0002a	cc		 int	 3
  0002b	cc		 int	 3
  0002c	cc		 int	 3
  0002d	cc		 int	 3
  0002e	cc		 int	 3
__ehhandler$?SetDataTypeEnvironment@CTool@@AAEXABVCCoordinateCalculatorData@@@Z:
  0002f	90		 npad	 1
  00030	90		 npad	 1
  00031	8b 54 24 08	 mov	 edx, DWORD PTR [esp+8]
  00035	8d 42 0c	 lea	 eax, DWORD PTR [edx+12]
  00038	8b 4a b8	 mov	 ecx, DWORD PTR [edx-72]
  0003b	33 c8		 xor	 ecx, eax
  0003d	e8 00 00 00 00	 call	 @__security_check_cookie@4
  00042	b8 00 00 00 00	 mov	 eax, OFFSET __ehfuncinfo$?SetDataTypeEnvironment@CTool@@AAEXABVCCoordinateCalculatorData@@@Z
  00047	e9 00 00 00 00	 jmp	 ___CxxFrameHandler3
text$x	ENDS
?SetDataTypeEnvironment@CTool@@AAEXABVCCoordinateCalculatorData@@@Z ENDP ; CTool::SetDataTypeEnvironment
; Function compile flags: /Ogtp
; File D:\git\src\IBK\IBK_DRFN\ProjSrc\SrcChartEx\ChartAddIn\ChartAnalysisToolAddIn\AnalysisTool\Tool.cpp
;	COMDAT ?GetDrawingPoint@CTool@@ABE?AVCPoint@@ABV2@AAVCCoordinateCalculatorData@@@Z
_TEXT	SEGMENT
$T2 = -160						; size = 40
_this$GSCopy$1$ = -120					; size = 4
_calData$GSCopy$1$ = -116				; size = 4
$T3 = -112						; size = 96
__$ArrayPad$ = -16					; size = 4
__$EHRec$ = -12						; size = 12
___$ReturnUdt$ = 8					; size = 4
_point$ = 12						; size = 4
_calData$ = 16						; size = 4
?GetDrawingPoint@CTool@@ABE?AVCPoint@@ABV2@AAVCCoordinateCalculatorData@@@Z PROC ; CTool::GetDrawingPoint, COMDAT
; _this$ = ecx

; 393  : {

  00000	55		 push	 ebp
  00001	8b ec		 mov	 ebp, esp
  00003	6a ff		 push	 -1
  00005	68 00 00 00 00	 push	 __ehhandler$?GetDrawingPoint@CTool@@ABE?AVCPoint@@ABV2@AAVCCoordinateCalculatorData@@@Z
  0000a	64 a1 00 00 00
	00		 mov	 eax, DWORD PTR fs:0
  00010	50		 push	 eax
  00011	81 ec 94 00 00
	00		 sub	 esp, 148		; 00000094H
  00017	a1 00 00 00 00	 mov	 eax, DWORD PTR ___security_cookie
  0001c	33 c5		 xor	 eax, ebp
  0001e	89 45 f0	 mov	 DWORD PTR __$ArrayPad$[ebp], eax
  00021	53		 push	 ebx
  00022	56		 push	 esi
  00023	57		 push	 edi
  00024	50		 push	 eax
  00025	8d 45 f4	 lea	 eax, DWORD PTR __$EHRec$[ebp]
  00028	64 a3 00 00 00
	00		 mov	 DWORD PTR fs:0, eax
  0002e	89 4d 88	 mov	 DWORD PTR _this$GSCopy$1$[ebp], ecx
  00031	8b 45 10	 mov	 eax, DWORD PTR _calData$[ebp]

; 173  : 	return m_commonEnvironment.GetDataType().IsRelativePointType();

  00034	83 c1 28	 add	 ecx, 40			; 00000028H

; 393  : {

  00037	8b 75 08	 mov	 esi, DWORD PTR ___$ReturnUdt$[ebp]
  0003a	8b 7d 0c	 mov	 edi, DWORD PTR _point$[ebp]
  0003d	89 45 8c	 mov	 DWORD PTR _calData$GSCopy$1$[ebp], eax

; 173  : 	return m_commonEnvironment.GetDataType().IsRelativePointType();

  00040	8d 85 60 ff ff
	ff		 lea	 eax, DWORD PTR $T2[ebp]
  00046	50		 push	 eax
  00047	e8 00 00 00 00	 call	 ?GetDataType@CElementCommonEnvironment@@QBE?AVCDataTypeEnvironment@@XZ ; CElementCommonEnvironment::GetDataType
  0004c	8b c8		 mov	 ecx, eax
  0004e	c7 45 fc 00 00
	00 00		 mov	 DWORD PTR __$EHRec$[ebp+8], 0
  00055	e8 00 00 00 00	 call	 ?IsRelativePointType@CDataTypeEnvironment@@QBE_NXZ ; CDataTypeEnvironment::IsRelativePointType
  0005a	8d 8d 78 ff ff
	ff		 lea	 ecx, DWORD PTR $T2[ebp+24]
  00060	c7 45 fc ff ff
	ff ff		 mov	 DWORD PTR __$EHRec$[ebp+8], -1
  00067	8a d8		 mov	 bl, al
  00069	ff 15 00 00 00
	00		 call	 DWORD PTR __imp_??1?$CStringT@DV?$StrTraitMFC_DLL@DV?$ChTraitsCRT@D@ATL@@@@@ATL@@QAE@XZ
  0006f	8d 8d 74 ff ff
	ff		 lea	 ecx, DWORD PTR $T2[ebp+20]
  00075	ff 15 00 00 00
	00		 call	 DWORD PTR __imp_??1?$CStringT@DV?$StrTraitMFC_DLL@DV?$ChTraitsCRT@D@ATL@@@@@ATL@@QAE@XZ
  0007b	8d 8d 70 ff ff
	ff		 lea	 ecx, DWORD PTR $T2[ebp+16]
  00081	ff 15 00 00 00
	00		 call	 DWORD PTR __imp_??1?$CStringT@DV?$StrTraitMFC_DLL@DV?$ChTraitsCRT@D@ATL@@@@@ATL@@QAE@XZ

; 394  : 	if(!IsRelativePointType())

  00087	84 db		 test	 bl, bl
  00089	75 0c		 jne	 SHORT $LN2@GetDrawing

; 395  : 		return point;

  0008b	8b 0f		 mov	 ecx, DWORD PTR [edi]
  0008d	8b 57 04	 mov	 edx, DWORD PTR [edi+4]
  00090	89 0e		 mov	 DWORD PTR [esi], ecx
  00092	89 56 04	 mov	 DWORD PTR [esi+4], edx
  00095	eb 67		 jmp	 SHORT $LN22@GetDrawing
$LN2@GetDrawing:

; 370  : 	if( !m_pAnalysisData) return true;

  00097	8b 5d 88	 mov	 ebx, DWORD PTR _this$GSCopy$1$[ebp]
  0009a	8b 4b 08	 mov	 ecx, DWORD PTR [ebx+8]
  0009d	85 c9		 test	 ecx, ecx
  0009f	74 1e		 je	 SHORT $LN20@GetDrawing

; 371  : 
; 372  : 	IChartManager *pIChartManager = m_pAnalysisData->GetMainBlock();

  000a1	e8 00 00 00 00	 call	 ?GetMainBlock@CAnalysisData@@QBEPAUIChartManager133101@@XZ ; CAnalysisData::GetMainBlock

; 373  : 	if( !pIChartManager) return true;

  000a6	85 c0		 test	 eax, eax
  000a8	74 15		 je	 SHORT $LN20@GetDrawing

; 374  : 	pIChartManager->Release();

  000aa	8b 08		 mov	 ecx, DWORD PTR [eax]
  000ac	50		 push	 eax
  000ad	ff 51 08	 call	 DWORD PTR [ecx+8]

; 284  : 	return m_pAnalysisData->GetCoordinateCalculatorData(point);

  000b0	8b 4b 08	 mov	 ecx, DWORD PTR [ebx+8]
  000b3	8d 45 90	 lea	 eax, DWORD PTR $T3[ebp]
  000b6	57		 push	 edi
  000b7	50		 push	 eax
  000b8	e8 00 00 00 00	 call	 ?GetCoordinateCalculatorData@CAnalysisData@@QBE?AVCCoordinateCalculatorData@@ABVCPoint@@@Z ; CAnalysisData::GetCoordinateCalculatorData
  000bd	eb 0a		 jmp	 SHORT $LN11@GetDrawing
$LN20@GetDrawing:

; 174  : }
; 175  : 
; 176  : bool CTool::IsAutoPrice() const
; 177  : {
; 178  : 	return m_commonEnvironment.IsAutoPrice();
; 179  : }
; 180  : 
; 181  : CAnalysisData* CTool::GetAnalysisData() const
; 182  : {
; 183  : 	return m_pAnalysisData;
; 184  : }
; 185  : 
; 186  : const CDrawingRegions& CTool::GetDrawingRegions() const
; 187  : {
; 188  : 	return m_drawingRegions;
; 189  : }
; 190  : 
; 191  : CDrawingRegions& CTool::GetDrawingRegions()
; 192  : {
; 193  : 	return m_drawingRegions;
; 194  : }
; 195  : 
; 196  : CElementCommonEnvironment CTool::GetElementCommonEnvironment() const
; 197  : {
; 198  : 	return m_commonEnvironment;
; 199  : }
; 200  : 
; 201  : // ----------------------------------------------------------------------------
; 202  : CDisplayAttributes CTool::GetDisplayAttributes() const
; 203  : {
; 204  : 	if(m_pAnalysisData == NULL)
; 205  : 		return CDisplayAttributes();
; 206  : 
; 207  : 	return m_pAnalysisData->GetDisplayAttributes();
; 208  : }
; 209  : 
; 210  : CVertScaleType CTool::GetVertScaleType(const CPoint& point) const
; 211  : {
; 212  : 	if(IsNullMainBlock())
; 213  : 		return CVertScaleType();
; 214  : 
; 215  : 	bool bIsLog = false, bIsInvert = false;
; 216  : 	m_pAnalysisData->GetVertScaleType(point, bIsLog, bIsInvert);
; 217  : 	return CVertScaleType(bIsLog, bIsInvert);
; 218  : }
; 219  : 
; 220  : // ----------------------------------------------------------------------------
; 221  : CPoints CTool::GetPoints(const CPoint& point) const
; 222  : {
; 223  : 	IChartManager *pIChartManager = NULL;
; 224  : 	if( m_pAnalysisData) pIChartManager = m_pAnalysisData->GetMainBlock();
; 225  : 	CCoordinateCalculatorData calData( pIChartManager);
; 226  : 	pIChartManager->Release();
; 227  : 
; 228  : 	return GetPoints(point, calData);
; 229  : }
; 230  : 
; 231  : CCoordinate CTool::GetPosCoordinate(const CPoint& point) const
; 232  : {	
; 233  : 	if(!IsRelativePointType())
; 234  : 		return CCoordinate(point);
; 235  : 
; 236  : 	CCoordinateCalculatorData calData = GetCoordinateCalculatorData(point);
; 237  : 	CCoordinateCalculator& coordinateCalculator = GetCoordinateCalculator();
; 238  : 	return coordinateCalculator.AbsoluteToRelativeAutoPrice(calData, point);
; 239  : }
; 240  : 
; 241  : CPoints CTool::GetPointsAndSetDataType(const CPoint& point)
; 242  : {
; 243  : 	IChartManager *pIChartManager = NULL;
; 244  : 	if( m_pAnalysisData) pIChartManager = m_pAnalysisData->GetMainBlock();
; 245  : 	CCoordinateCalculatorData calData( pIChartManager);
; 246  : 	pIChartManager->Release();
; 247  : 
; 248  : 	CPoints points = GetPoints(point, calData);
; 249  : 	SetDataTypeEnvironment(calData);
; 250  : 
; 251  : 	return points;
; 252  : }
; 253  : 
; 254  : CPoint CTool::GetDrawingPointAndSetDataType(const CPoint& point)
; 255  : {
; 256  : 	IChartManager *pIChartManager = NULL;
; 257  : 	if( m_pAnalysisData) pIChartManager = m_pAnalysisData->GetMainBlock();
; 258  : 	CCoordinateCalculatorData calData( pIChartManager);
; 259  : 	pIChartManager->Release();
; 260  : 
; 261  : 	CPoint drawingPoint = GetDrawingPoint(point, calData);
; 262  : 	SetDataTypeEnvironment(calData);
; 263  : 
; 264  : 	IPacket *pIPacket = calData.GetPacket_X();
; 265  : 	if( pIPacket) pIPacket->Release();
; 266  : 
; 267  : 	return drawingPoint;
; 268  : }
; 269  : 
; 270  : CPoints CTool::RefreshPointsAndSetDataType(const CPoint& point)
; 271  : {
; 272  : 	CCoordinateCalculatorData calData = GetCoordinateCalculatorData(point);
; 273  : 	CCoordinateCalculator& coordinateCalculator = GetCoordinateCalculator();
; 274  : 	CCoordinate savingPoint = GetCoordinateCalculator().AbsoluteToRelative(calData, point);
; 275  : 	CPoint drawingPoint = GetCoordinateCalculator().RelativeToAbsolute(calData, savingPoint);
; 276  : 	
; 277  : 	return CPoints(savingPoint, drawingPoint);	
; 278  : }
; 279  : 
; 280  : // 좌표 계산을 위한 data.
; 281  : CCoordinateCalculatorData CTool::GetCoordinateCalculatorData(const CPoint& point) const
; 282  : {
; 283  : 	if( IsNullMainBlock()) return CCoordinateCalculatorData( NULL);

  000bf	6a 00		 push	 0
  000c1	8d 4d 90	 lea	 ecx, DWORD PTR $T3[ebp]
  000c4	e8 00 00 00 00	 call	 ??0CCoordinateCalculatorData@@QAE@PAUIChartManager133101@@@Z ; CCoordinateCalculatorData::CCoordinateCalculatorData
$LN11@GetDrawing:

; 396  : 
; 397  : 	calData = GetCoordinateCalculatorData(point);

  000c9	8b 4d 8c	 mov	 ecx, DWORD PTR _calData$GSCopy$1$[ebp]
  000cc	8d 45 90	 lea	 eax, DWORD PTR $T3[ebp]
  000cf	50		 push	 eax
  000d0	c7 45 fc 01 00
	00 00		 mov	 DWORD PTR __$EHRec$[ebp+8], 1
  000d7	e8 00 00 00 00	 call	 ??4CCoordinateCalculatorData@@QAEAAV0@ABV0@@Z ; CCoordinateCalculatorData::operator=
  000dc	8d 4d 90	 lea	 ecx, DWORD PTR $T3[ebp]
  000df	c7 45 fc ff ff
	ff ff		 mov	 DWORD PTR __$EHRec$[ebp+8], -1
  000e6	e8 00 00 00 00	 call	 ??1CCoordinateCalculatorData@@QAE@XZ ; CCoordinateCalculatorData::~CCoordinateCalculatorData

; 398  : 	return GetCoordinateCalculator().AbsoluteToAbsolute(calData, point);

  000eb	8b 03		 mov	 eax, DWORD PTR [ebx]
  000ed	8b cb		 mov	 ecx, ebx
  000ef	57		 push	 edi
  000f0	ff 75 8c	 push	 DWORD PTR _calData$GSCopy$1$[ebp]
  000f3	56		 push	 esi
  000f4	ff 50 18	 call	 DWORD PTR [eax+24]
  000f7	8b c8		 mov	 ecx, eax
  000f9	e8 00 00 00 00	 call	 ?AbsoluteToAbsolute@CCoordinateCalculator@@QBE?AVCPoint@@ABVCCoordinateCalculatorData@@ABV2@@Z ; CCoordinateCalculator::AbsoluteToAbsolute
$LN22@GetDrawing:

; 399  : }

  000fe	8b c6		 mov	 eax, esi
  00100	8b 4d f4	 mov	 ecx, DWORD PTR __$EHRec$[ebp]
  00103	64 89 0d 00 00
	00 00		 mov	 DWORD PTR fs:0, ecx
  0010a	59		 pop	 ecx
  0010b	5f		 pop	 edi
  0010c	5e		 pop	 esi
  0010d	5b		 pop	 ebx
  0010e	8b 4d f0	 mov	 ecx, DWORD PTR __$ArrayPad$[ebp]
  00111	33 cd		 xor	 ecx, ebp
  00113	e8 00 00 00 00	 call	 @__security_check_cookie@4
  00118	8b e5		 mov	 esp, ebp
  0011a	5d		 pop	 ebp
  0011b	c2 0c 00	 ret	 12			; 0000000cH
_TEXT	ENDS
;	COMDAT text$x
text$x	SEGMENT
__unwindfunclet$?GetDrawingPoint@CTool@@ABE?AVCPoint@@ABV2@AAVCCoordinateCalculatorData@@@Z$1:
  00000	8d 8d 60 ff ff
	ff		 lea	 ecx, DWORD PTR $T2[ebp]
  00006	e9 00 00 00 00	 jmp	 ??1CDataTypeEnvironment@@QAE@XZ
__unwindfunclet$?GetDrawingPoint@CTool@@ABE?AVCPoint@@ABV2@AAVCCoordinateCalculatorData@@@Z$0:
  0000b	8d 4d 90	 lea	 ecx, DWORD PTR $T3[ebp]
  0000e	e9 00 00 00 00	 jmp	 ??1CCoordinateCalculatorData@@QAE@XZ ; CCoordinateCalculatorData::~CCoordinateCalculatorData
  00013	cc		 int	 3
  00014	cc		 int	 3
  00015	cc		 int	 3
  00016	cc		 int	 3
  00017	cc		 int	 3
__ehhandler$?GetDrawingPoint@CTool@@ABE?AVCPoint@@ABV2@AAVCCoordinateCalculatorData@@@Z:
  00018	90		 npad	 1
  00019	90		 npad	 1
  0001a	8b 54 24 08	 mov	 edx, DWORD PTR [esp+8]
  0001e	8d 42 0c	 lea	 eax, DWORD PTR [edx+12]
  00021	8b 8a 5c ff ff
	ff		 mov	 ecx, DWORD PTR [edx-164]
  00027	33 c8		 xor	 ecx, eax
  00029	e8 00 00 00 00	 call	 @__security_check_cookie@4
  0002e	8b 4a fc	 mov	 ecx, DWORD PTR [edx-4]
  00031	33 c8		 xor	 ecx, eax
  00033	e8 00 00 00 00	 call	 @__security_check_cookie@4
  00038	b8 00 00 00 00	 mov	 eax, OFFSET __ehfuncinfo$?GetDrawingPoint@CTool@@ABE?AVCPoint@@ABV2@AAVCCoordinateCalculatorData@@@Z
  0003d	e9 00 00 00 00	 jmp	 ___CxxFrameHandler3
text$x	ENDS
?GetDrawingPoint@CTool@@ABE?AVCPoint@@ABV2@AAVCCoordinateCalculatorData@@@Z ENDP ; CTool::GetDrawingPoint
; Function compile flags: /Ogtp
; File D:\git\src\IBK\IBK_DRFN\ProjSrc\SrcChartEx\ChartAddIn\ChartAnalysisToolAddIn\AnalysisTool\Tool.cpp
;	COMDAT ?GetPoints@CTool@@ABE?AVCPoints@@ABVCPoint@@AAVCCoordinateCalculatorData@@@Z
_TEXT	SEGMENT
_savingPoint$ = -200					; size = 32
$T2 = -168						; size = 40
$T3 = -160						; size = 32
_drawingPoint$ = -128					; size = 8
_calData$GSCopy$1$ = -120				; size = 4
___$ReturnUdt$GSCopy$ = -120				; size = 4
___$ReturnUdt$GSCopy$1$ = -116				; size = 4
$T4 = -112						; size = 96
__$ArrayPad$ = -16					; size = 4
__$EHRec$ = -12						; size = 12
___$ReturnUdt$ = 8					; size = 4
_point$ = 12						; size = 4
_calData$ = 16						; size = 4
?GetPoints@CTool@@ABE?AVCPoints@@ABVCPoint@@AAVCCoordinateCalculatorData@@@Z PROC ; CTool::GetPoints, COMDAT
; _this$ = ecx

; 380  : {

  00000	55		 push	 ebp
  00001	8b ec		 mov	 ebp, esp
  00003	6a ff		 push	 -1
  00005	68 00 00 00 00	 push	 __ehhandler$?GetPoints@CTool@@ABE?AVCPoints@@ABVCPoint@@AAVCCoordinateCalculatorData@@@Z
  0000a	64 a1 00 00 00
	00		 mov	 eax, DWORD PTR fs:0
  00010	50		 push	 eax
  00011	81 ec bc 00 00
	00		 sub	 esp, 188		; 000000bcH
  00017	a1 00 00 00 00	 mov	 eax, DWORD PTR ___security_cookie
  0001c	33 c5		 xor	 eax, ebp
  0001e	89 45 f0	 mov	 DWORD PTR __$ArrayPad$[ebp], eax
  00021	53		 push	 ebx
  00022	56		 push	 esi
  00023	57		 push	 edi
  00024	50		 push	 eax
  00025	8d 45 f4	 lea	 eax, DWORD PTR __$EHRec$[ebp]
  00028	64 a3 00 00 00
	00		 mov	 DWORD PTR fs:0, eax
  0002e	8b f1		 mov	 esi, ecx
  00030	8b 45 08	 mov	 eax, DWORD PTR ___$ReturnUdt$[ebp]

; 173  : 	return m_commonEnvironment.GetDataType().IsRelativePointType();

  00033	8d 4e 28	 lea	 ecx, DWORD PTR [esi+40]

; 380  : {

  00036	8b 7d 0c	 mov	 edi, DWORD PTR _point$[ebp]
  00039	89 45 88	 mov	 DWORD PTR ___$ReturnUdt$GSCopy$[ebp], eax
  0003c	89 45 8c	 mov	 DWORD PTR ___$ReturnUdt$GSCopy$1$[ebp], eax
  0003f	8b 45 10	 mov	 eax, DWORD PTR _calData$[ebp]
  00042	89 45 88	 mov	 DWORD PTR _calData$GSCopy$1$[ebp], eax

; 173  : 	return m_commonEnvironment.GetDataType().IsRelativePointType();

  00045	8d 85 58 ff ff
	ff		 lea	 eax, DWORD PTR $T2[ebp]
  0004b	50		 push	 eax
  0004c	e8 00 00 00 00	 call	 ?GetDataType@CElementCommonEnvironment@@QBE?AVCDataTypeEnvironment@@XZ ; CElementCommonEnvironment::GetDataType
  00051	8b c8		 mov	 ecx, eax
  00053	c7 45 fc 00 00
	00 00		 mov	 DWORD PTR __$EHRec$[ebp+8], 0
  0005a	e8 00 00 00 00	 call	 ?IsRelativePointType@CDataTypeEnvironment@@QBE_NXZ ; CDataTypeEnvironment::IsRelativePointType
  0005f	8d 8d 70 ff ff
	ff		 lea	 ecx, DWORD PTR $T2[ebp+24]
  00065	c7 45 fc ff ff
	ff ff		 mov	 DWORD PTR __$EHRec$[ebp+8], -1
  0006c	8a d8		 mov	 bl, al
  0006e	ff 15 00 00 00
	00		 call	 DWORD PTR __imp_??1?$CStringT@DV?$StrTraitMFC_DLL@DV?$ChTraitsCRT@D@ATL@@@@@ATL@@QAE@XZ
  00074	8d 8d 6c ff ff
	ff		 lea	 ecx, DWORD PTR $T2[ebp+20]
  0007a	ff 15 00 00 00
	00		 call	 DWORD PTR __imp_??1?$CStringT@DV?$StrTraitMFC_DLL@DV?$ChTraitsCRT@D@ATL@@@@@ATL@@QAE@XZ
  00080	8d 8d 68 ff ff
	ff		 lea	 ecx, DWORD PTR $T2[ebp+16]
  00086	ff 15 00 00 00
	00		 call	 DWORD PTR __imp_??1?$CStringT@DV?$StrTraitMFC_DLL@DV?$ChTraitsCRT@D@ATL@@@@@ATL@@QAE@XZ

; 381  : 	if(!IsRelativePointType())

  0008c	84 db		 test	 bl, bl
  0008e	75 28		 jne	 SHORT $LN2@GetPoints

; 382  : 		return CPoints(CCoordinate(point), point);

  00090	57		 push	 edi
  00091	8d 8d 60 ff ff
	ff		 lea	 ecx, DWORD PTR $T3[ebp]
  00097	e8 00 00 00 00	 call	 ??0CCoordinate@@QAE@ABVCPoint@@@Z ; CCoordinate::CCoordinate
  0009c	8b 4d 8c	 mov	 ecx, DWORD PTR ___$ReturnUdt$GSCopy$1$[ebp]
  0009f	57		 push	 edi
  000a0	50		 push	 eax
  000a1	c7 45 fc 01 00
	00 00		 mov	 DWORD PTR __$EHRec$[ebp+8], 1
  000a8	e8 00 00 00 00	 call	 ??0CPoints@@QAE@ABVCCoordinate@@ABVCPoint@@@Z ; CPoints::CPoints
  000ad	8d 8d 74 ff ff
	ff		 lea	 ecx, DWORD PTR $T3[ebp+20]
  000b3	e9 9f 00 00 00	 jmp	 $LN32@GetPoints
$LN2@GetPoints:

; 370  : 	if( !m_pAnalysisData) return true;

  000b8	8b 4e 08	 mov	 ecx, DWORD PTR [esi+8]
  000bb	85 c9		 test	 ecx, ecx
  000bd	74 1e		 je	 SHORT $LN30@GetPoints

; 371  : 
; 372  : 	IChartManager *pIChartManager = m_pAnalysisData->GetMainBlock();

  000bf	e8 00 00 00 00	 call	 ?GetMainBlock@CAnalysisData@@QBEPAUIChartManager133101@@XZ ; CAnalysisData::GetMainBlock

; 373  : 	if( !pIChartManager) return true;

  000c4	85 c0		 test	 eax, eax
  000c6	74 15		 je	 SHORT $LN30@GetPoints

; 374  : 	pIChartManager->Release();

  000c8	8b 08		 mov	 ecx, DWORD PTR [eax]
  000ca	50		 push	 eax
  000cb	ff 51 08	 call	 DWORD PTR [ecx+8]

; 284  : 	return m_pAnalysisData->GetCoordinateCalculatorData(point);

  000ce	8b 4e 08	 mov	 ecx, DWORD PTR [esi+8]
  000d1	8d 45 90	 lea	 eax, DWORD PTR $T4[ebp]
  000d4	57		 push	 edi
  000d5	50		 push	 eax
  000d6	e8 00 00 00 00	 call	 ?GetCoordinateCalculatorData@CAnalysisData@@QBE?AVCCoordinateCalculatorData@@ABVCPoint@@@Z ; CAnalysisData::GetCoordinateCalculatorData
  000db	eb 0a		 jmp	 SHORT $LN18@GetPoints
$LN30@GetPoints:

; 174  : }
; 175  : 
; 176  : bool CTool::IsAutoPrice() const
; 177  : {
; 178  : 	return m_commonEnvironment.IsAutoPrice();
; 179  : }
; 180  : 
; 181  : CAnalysisData* CTool::GetAnalysisData() const
; 182  : {
; 183  : 	return m_pAnalysisData;
; 184  : }
; 185  : 
; 186  : const CDrawingRegions& CTool::GetDrawingRegions() const
; 187  : {
; 188  : 	return m_drawingRegions;
; 189  : }
; 190  : 
; 191  : CDrawingRegions& CTool::GetDrawingRegions()
; 192  : {
; 193  : 	return m_drawingRegions;
; 194  : }
; 195  : 
; 196  : CElementCommonEnvironment CTool::GetElementCommonEnvironment() const
; 197  : {
; 198  : 	return m_commonEnvironment;
; 199  : }
; 200  : 
; 201  : // ----------------------------------------------------------------------------
; 202  : CDisplayAttributes CTool::GetDisplayAttributes() const
; 203  : {
; 204  : 	if(m_pAnalysisData == NULL)
; 205  : 		return CDisplayAttributes();
; 206  : 
; 207  : 	return m_pAnalysisData->GetDisplayAttributes();
; 208  : }
; 209  : 
; 210  : CVertScaleType CTool::GetVertScaleType(const CPoint& point) const
; 211  : {
; 212  : 	if(IsNullMainBlock())
; 213  : 		return CVertScaleType();
; 214  : 
; 215  : 	bool bIsLog = false, bIsInvert = false;
; 216  : 	m_pAnalysisData->GetVertScaleType(point, bIsLog, bIsInvert);
; 217  : 	return CVertScaleType(bIsLog, bIsInvert);
; 218  : }
; 219  : 
; 220  : // ----------------------------------------------------------------------------
; 221  : CPoints CTool::GetPoints(const CPoint& point) const
; 222  : {
; 223  : 	IChartManager *pIChartManager = NULL;
; 224  : 	if( m_pAnalysisData) pIChartManager = m_pAnalysisData->GetMainBlock();
; 225  : 	CCoordinateCalculatorData calData( pIChartManager);
; 226  : 	pIChartManager->Release();
; 227  : 
; 228  : 	return GetPoints(point, calData);
; 229  : }
; 230  : 
; 231  : CCoordinate CTool::GetPosCoordinate(const CPoint& point) const
; 232  : {	
; 233  : 	if(!IsRelativePointType())
; 234  : 		return CCoordinate(point);
; 235  : 
; 236  : 	CCoordinateCalculatorData calData = GetCoordinateCalculatorData(point);
; 237  : 	CCoordinateCalculator& coordinateCalculator = GetCoordinateCalculator();
; 238  : 	return coordinateCalculator.AbsoluteToRelativeAutoPrice(calData, point);
; 239  : }
; 240  : 
; 241  : CPoints CTool::GetPointsAndSetDataType(const CPoint& point)
; 242  : {
; 243  : 	IChartManager *pIChartManager = NULL;
; 244  : 	if( m_pAnalysisData) pIChartManager = m_pAnalysisData->GetMainBlock();
; 245  : 	CCoordinateCalculatorData calData( pIChartManager);
; 246  : 	pIChartManager->Release();
; 247  : 
; 248  : 	CPoints points = GetPoints(point, calData);
; 249  : 	SetDataTypeEnvironment(calData);
; 250  : 
; 251  : 	return points;
; 252  : }
; 253  : 
; 254  : CPoint CTool::GetDrawingPointAndSetDataType(const CPoint& point)
; 255  : {
; 256  : 	IChartManager *pIChartManager = NULL;
; 257  : 	if( m_pAnalysisData) pIChartManager = m_pAnalysisData->GetMainBlock();
; 258  : 	CCoordinateCalculatorData calData( pIChartManager);
; 259  : 	pIChartManager->Release();
; 260  : 
; 261  : 	CPoint drawingPoint = GetDrawingPoint(point, calData);
; 262  : 	SetDataTypeEnvironment(calData);
; 263  : 
; 264  : 	IPacket *pIPacket = calData.GetPacket_X();
; 265  : 	if( pIPacket) pIPacket->Release();
; 266  : 
; 267  : 	return drawingPoint;
; 268  : }
; 269  : 
; 270  : CPoints CTool::RefreshPointsAndSetDataType(const CPoint& point)
; 271  : {
; 272  : 	CCoordinateCalculatorData calData = GetCoordinateCalculatorData(point);
; 273  : 	CCoordinateCalculator& coordinateCalculator = GetCoordinateCalculator();
; 274  : 	CCoordinate savingPoint = GetCoordinateCalculator().AbsoluteToRelative(calData, point);
; 275  : 	CPoint drawingPoint = GetCoordinateCalculator().RelativeToAbsolute(calData, savingPoint);
; 276  : 	
; 277  : 	return CPoints(savingPoint, drawingPoint);	
; 278  : }
; 279  : 
; 280  : // 좌표 계산을 위한 data.
; 281  : CCoordinateCalculatorData CTool::GetCoordinateCalculatorData(const CPoint& point) const
; 282  : {
; 283  : 	if( IsNullMainBlock()) return CCoordinateCalculatorData( NULL);

  000dd	6a 00		 push	 0
  000df	8d 4d 90	 lea	 ecx, DWORD PTR $T4[ebp]
  000e2	e8 00 00 00 00	 call	 ??0CCoordinateCalculatorData@@QAE@PAUIChartManager133101@@@Z ; CCoordinateCalculatorData::CCoordinateCalculatorData
$LN18@GetPoints:

; 383  : 
; 384  : 	calData = GetCoordinateCalculatorData(point);

  000e7	8b 5d 88	 mov	 ebx, DWORD PTR _calData$GSCopy$1$[ebp]
  000ea	8d 45 90	 lea	 eax, DWORD PTR $T4[ebp]
  000ed	50		 push	 eax
  000ee	8b cb		 mov	 ecx, ebx
  000f0	c7 45 fc 02 00
	00 00		 mov	 DWORD PTR __$EHRec$[ebp+8], 2
  000f7	e8 00 00 00 00	 call	 ??4CCoordinateCalculatorData@@QAEAAV0@ABV0@@Z ; CCoordinateCalculatorData::operator=
  000fc	8d 4d 90	 lea	 ecx, DWORD PTR $T4[ebp]
  000ff	c7 45 fc ff ff
	ff ff		 mov	 DWORD PTR __$EHRec$[ebp+8], -1
  00106	e8 00 00 00 00	 call	 ??1CCoordinateCalculatorData@@QAE@XZ ; CCoordinateCalculatorData::~CCoordinateCalculatorData

; 385  : 	CCoordinateCalculator& coordinateCalculator = GetCoordinateCalculator();

  0010b	8b 06		 mov	 eax, DWORD PTR [esi]
  0010d	8b ce		 mov	 ecx, esi
  0010f	ff 50 18	 call	 DWORD PTR [eax+24]

; 386  : 	CCoordinate savingPoint = coordinateCalculator.AbsoluteToRelative(calData, point);

  00112	57		 push	 edi
  00113	8b f0		 mov	 esi, eax
  00115	8d 85 38 ff ff
	ff		 lea	 eax, DWORD PTR _savingPoint$[ebp]
  0011b	53		 push	 ebx
  0011c	50		 push	 eax
  0011d	8b ce		 mov	 ecx, esi
  0011f	e8 00 00 00 00	 call	 ?AbsoluteToRelative@CCoordinateCalculator@@QBE?AVCCoordinate@@ABVCCoordinateCalculatorData@@ABVCPoint@@@Z ; CCoordinateCalculator::AbsoluteToRelative

; 387  : 	CPoint drawingPoint = coordinateCalculator.RelativeToAbsolute(calData, savingPoint);

  00124	8d 85 38 ff ff
	ff		 lea	 eax, DWORD PTR _savingPoint$[ebp]
  0012a	c7 45 fc 03 00
	00 00		 mov	 DWORD PTR __$EHRec$[ebp+8], 3
  00131	50		 push	 eax
  00132	53		 push	 ebx
  00133	8d 45 80	 lea	 eax, DWORD PTR _drawingPoint$[ebp]
  00136	8b ce		 mov	 ecx, esi
  00138	50		 push	 eax
  00139	e8 00 00 00 00	 call	 ?RelativeToAbsolute@CCoordinateCalculator@@QBE?AVCPoint@@ABVCCoordinateCalculatorData@@ABVCCoordinate@@@Z ; CCoordinateCalculator::RelativeToAbsolute

; 388  : 	//CPoint drawingPoint = point;
; 389  : 	return CPoints(savingPoint, drawingPoint);

  0013e	8b 4d 8c	 mov	 ecx, DWORD PTR ___$ReturnUdt$GSCopy$1$[ebp]
  00141	8d 45 80	 lea	 eax, DWORD PTR _drawingPoint$[ebp]
  00144	50		 push	 eax
  00145	8d 85 38 ff ff
	ff		 lea	 eax, DWORD PTR _savingPoint$[ebp]
  0014b	50		 push	 eax
  0014c	e8 00 00 00 00	 call	 ??0CPoints@@QAE@ABVCCoordinate@@ABVCPoint@@@Z ; CPoints::CPoints
  00151	8d 8d 4c ff ff
	ff		 lea	 ecx, DWORD PTR _savingPoint$[ebp+20]
$LN32@GetPoints:

; 390  : }

  00157	ff 15 00 00 00
	00		 call	 DWORD PTR __imp_??1?$CStringT@DV?$StrTraitMFC_DLL@DV?$ChTraitsCRT@D@ATL@@@@@ATL@@QAE@XZ
  0015d	8b 45 8c	 mov	 eax, DWORD PTR ___$ReturnUdt$GSCopy$1$[ebp]
  00160	8b 4d f4	 mov	 ecx, DWORD PTR __$EHRec$[ebp]
  00163	64 89 0d 00 00
	00 00		 mov	 DWORD PTR fs:0, ecx
  0016a	59		 pop	 ecx
  0016b	5f		 pop	 edi
  0016c	5e		 pop	 esi
  0016d	5b		 pop	 ebx
  0016e	8b 4d f0	 mov	 ecx, DWORD PTR __$ArrayPad$[ebp]
  00171	33 cd		 xor	 ecx, ebp
  00173	e8 00 00 00 00	 call	 @__security_check_cookie@4
  00178	8b e5		 mov	 esp, ebp
  0017a	5d		 pop	 ebp
  0017b	c2 0c 00	 ret	 12			; 0000000cH
_TEXT	ENDS
;	COMDAT text$x
text$x	SEGMENT
__unwindfunclet$?GetPoints@CTool@@ABE?AVCPoints@@ABVCPoint@@AAVCCoordinateCalculatorData@@@Z$4:
  00000	8d 8d 58 ff ff
	ff		 lea	 ecx, DWORD PTR $T2[ebp]
  00006	e9 00 00 00 00	 jmp	 ??1CDataTypeEnvironment@@QAE@XZ
__unwindfunclet$?GetPoints@CTool@@ABE?AVCPoints@@ABVCPoint@@AAVCCoordinateCalculatorData@@@Z$0:
  0000b	8d 8d 60 ff ff
	ff		 lea	 ecx, DWORD PTR $T3[ebp]
  00011	e9 00 00 00 00	 jmp	 ??1CCoordinate@@QAE@XZ
__unwindfunclet$?GetPoints@CTool@@ABE?AVCPoints@@ABVCPoint@@AAVCCoordinateCalculatorData@@@Z$2:
  00016	8d 4d 90	 lea	 ecx, DWORD PTR $T4[ebp]
  00019	e9 00 00 00 00	 jmp	 ??1CCoordinateCalculatorData@@QAE@XZ ; CCoordinateCalculatorData::~CCoordinateCalculatorData
__unwindfunclet$?GetPoints@CTool@@ABE?AVCPoints@@ABVCPoint@@AAVCCoordinateCalculatorData@@@Z$3:
  0001e	8d 8d 38 ff ff
	ff		 lea	 ecx, DWORD PTR _savingPoint$[ebp]
  00024	e9 00 00 00 00	 jmp	 ??1CCoordinate@@QAE@XZ
  00029	cc		 int	 3
  0002a	cc		 int	 3
  0002b	cc		 int	 3
  0002c	cc		 int	 3
  0002d	cc		 int	 3
__ehhandler$?GetPoints@CTool@@ABE?AVCPoints@@ABVCPoint@@AAVCCoordinateCalculatorData@@@Z:
  0002e	90		 npad	 1
  0002f	90		 npad	 1
  00030	8b 54 24 08	 mov	 edx, DWORD PTR [esp+8]
  00034	8d 42 0c	 lea	 eax, DWORD PTR [edx+12]
  00037	8b 8a 34 ff ff
	ff		 mov	 ecx, DWORD PTR [edx-204]
  0003d	33 c8		 xor	 ecx, eax
  0003f	e8 00 00 00 00	 call	 @__security_check_cookie@4
  00044	8b 4a fc	 mov	 ecx, DWORD PTR [edx-4]
  00047	33 c8		 xor	 ecx, eax
  00049	e8 00 00 00 00	 call	 @__security_check_cookie@4
  0004e	b8 00 00 00 00	 mov	 eax, OFFSET __ehfuncinfo$?GetPoints@CTool@@ABE?AVCPoints@@ABVCPoint@@AAVCCoordinateCalculatorData@@@Z
  00053	e9 00 00 00 00	 jmp	 ___CxxFrameHandler3
text$x	ENDS
?GetPoints@CTool@@ABE?AVCPoints@@ABVCPoint@@AAVCCoordinateCalculatorData@@@Z ENDP ; CTool::GetPoints
; Function compile flags: /Ogtp
; File D:\git\src\IBK\IBK_DRFN\ProjSrc\SrcChartEx\ChartAddIn\ChartAnalysisToolAddIn\AnalysisTool\Tool.cpp
;	COMDAT ?IsNullMainBlock@CTool@@ABE_NXZ
_TEXT	SEGMENT
?IsNullMainBlock@CTool@@ABE_NXZ PROC			; CTool::IsNullMainBlock, COMDAT
; _this$ = ecx

; 370  : 	if( !m_pAnalysisData) return true;

  00000	8b 49 08	 mov	 ecx, DWORD PTR [ecx+8]
  00003	85 c9		 test	 ecx, ecx
  00005	74 12		 je	 SHORT $LN5@IsNullMain

; 371  : 
; 372  : 	IChartManager *pIChartManager = m_pAnalysisData->GetMainBlock();

  00007	e8 00 00 00 00	 call	 ?GetMainBlock@CAnalysisData@@QBEPAUIChartManager133101@@XZ ; CAnalysisData::GetMainBlock

; 373  : 	if( !pIChartManager) return true;

  0000c	85 c0		 test	 eax, eax
  0000e	74 09		 je	 SHORT $LN5@IsNullMain

; 374  : 	pIChartManager->Release();

  00010	8b 08		 mov	 ecx, DWORD PTR [eax]
  00012	50		 push	 eax
  00013	ff 51 08	 call	 DWORD PTR [ecx+8]

; 375  : 	pIChartManager = NULL;
; 376  : 	return false;

  00016	32 c0		 xor	 al, al

; 377  : }

  00018	c3		 ret	 0
$LN5@IsNullMain:

; 373  : 	if( !pIChartManager) return true;

  00019	b0 01		 mov	 al, 1

; 377  : }

  0001b	c3		 ret	 0
?IsNullMainBlock@CTool@@ABE_NXZ ENDP			; CTool::IsNullMainBlock
_TEXT	ENDS
; Function compile flags: /Ogtp
; File D:\git\src\IBK\IBK_DRFN\ProjSrc\SrcChartEx\ChartAddIn\ChartAnalysisToolAddIn\AnalysisTool\Tool.cpp
; File D:\git\src\IBK\IBK_DRFN\ProjSrc\SrcChartEx\ChartAddIn\ChartAnalysisToolAddIn\Include_Chart\BlockBaseData.h
; File D:\git\src\IBK\IBK_DRFN\ProjSrc\SrcChartEx\ChartAddIn\ChartAnalysisToolAddIn\AnalysisTool\Tool.cpp
;	COMDAT ?MakeElement@CTool@@IAEXABVCPoint@@@Z
_TEXT	SEGMENT
_blockIndex$ = -8					; size = 8
_drawingPoint$ = 8					; size = 4
?MakeElement@CTool@@IAEXABVCPoint@@@Z PROC		; CTool::MakeElement, COMDAT
; _this$ = ecx

; 345  : {

  00000	55		 push	 ebp
  00001	8b ec		 mov	 ebp, esp
  00003	83 ec 08	 sub	 esp, 8
  00006	57		 push	 edi
  00007	8b f9		 mov	 edi, ecx

; 370  : 	if( !m_pAnalysisData) return true;

  00009	8b 4f 08	 mov	 ecx, DWORD PTR [edi+8]
  0000c	85 c9		 test	 ecx, ecx
  0000e	0f 84 98 00 00
	00		 je	 $LN1@MakeElemen

; 371  : 
; 372  : 	IChartManager *pIChartManager = m_pAnalysisData->GetMainBlock();

  00014	e8 00 00 00 00	 call	 ?GetMainBlock@CAnalysisData@@QBEPAUIChartManager133101@@XZ ; CAnalysisData::GetMainBlock

; 373  : 	if( !pIChartManager) return true;

  00019	85 c0		 test	 eax, eax
  0001b	0f 84 8b 00 00
	00		 je	 $LN1@MakeElemen

; 374  : 	pIChartManager->Release();

  00021	8b 08		 mov	 ecx, DWORD PTR [eax]
  00023	50		 push	 eax
  00024	ff 51 08	 call	 DWORD PTR [ecx+8]

; 346  : 	if(IsNullMainBlock())
; 347  : 		return;
; 348  : 
; 349  : 	CBlockIndex blockIndex = m_pAnalysisData->GetBlockIndexInPoint(drawingPoint);

  00027	ff 75 08	 push	 DWORD PTR _drawingPoint$[ebp]
  0002a	8b 4f 08	 mov	 ecx, DWORD PTR [edi+8]
  0002d	8d 45 f8	 lea	 eax, DWORD PTR _blockIndex$[ebp]
  00030	50		 push	 eax
  00031	e8 00 00 00 00	 call	 ?GetBlockIndexInPoint@CAnalysisData@@QBE?AVCBlockIndex@@ABVCPoint@@@Z ; CAnalysisData::GetBlockIndexInPoint
; File D:\git\src\IBK\IBK_DRFN\ProjSrc\SrcChartEx\ChartAddIn\ChartAnalysisToolAddIn\Include_Chart\BlockBaseData.h

; 32   : 	bool IsAllValueBiggerThanZero() const { return (m_nRow >= 0 && m_nColumn >= 0); };

  00036	83 7d f8 00	 cmp	 DWORD PTR _blockIndex$[ebp], 0
  0003a	7c 70		 jl	 SHORT $LN1@MakeElemen
  0003c	83 7d fc 00	 cmp	 DWORD PTR _blockIndex$[ebp+4], 0
  00040	7c 6a		 jl	 SHORT $LN1@MakeElemen
; File D:\git\src\IBK\IBK_DRFN\ProjSrc\SrcChartEx\ChartAddIn\ChartAnalysisToolAddIn\AnalysisTool\Tool.cpp

; 353  : 	CElement *pElement = MakeElement(m_commonEnvironment);

  00042	8b 17		 mov	 edx, DWORD PTR [edi]
  00044	8d 47 28	 lea	 eax, DWORD PTR [edi+40]
  00047	56		 push	 esi
  00048	50		 push	 eax
  00049	8b cf		 mov	 ecx, edi
  0004b	ff 52 34	 call	 DWORD PTR [edx+52]
  0004e	8b f0		 mov	 esi, eax

; 354  : //>> 호가차트시 분석도구 종가따라가기 버그 수정 - vntsorl(20090202)
; 355  : 	if( pElement->GetElementType() != CToolEnumData::Linear_Regression &&

  00050	8b ce		 mov	 ecx, esi
  00052	8b 16		 mov	 edx, DWORD PTR [esi]
  00054	ff 52 04	 call	 DWORD PTR [edx+4]
  00057	83 f8 1b	 cmp	 eax, 27			; 0000001bH
  0005a	74 1c		 je	 SHORT $LN4@MakeElemen
  0005c	8b 16		 mov	 edx, DWORD PTR [esi]
  0005e	8b ce		 mov	 ecx, esi
  00060	ff 52 04	 call	 DWORD PTR [edx+4]
  00063	83 f8 1c	 cmp	 eax, 28			; 0000001cH
  00066	74 10		 je	 SHORT $LN4@MakeElemen

; 356  : 		pElement->GetElementType() != CToolEnumData::Raff_Regression )
; 357  : 		pElement->GetCommonEnvironment().SetAutoPrice(false);

  00068	6a 00		 push	 0
  0006a	8b ce		 mov	 ecx, esi
  0006c	e8 00 00 00 00	 call	 ?GetCommonEnvironment@CElement@@QAEAAVCElementCommonEnvironment@@XZ ; CElement::GetCommonEnvironment
  00071	8b c8		 mov	 ecx, eax
  00073	e8 00 00 00 00	 call	 ?SetAutoPrice@CElementCommonEnvironment@@QAEX_N@Z ; CElementCommonEnvironment::SetAutoPrice
$LN4@MakeElemen:

; 358  : //<< 호가차트시 분석도구 종가따라가기 버그 수정 - vntsorl(20090202)
; 359  : 	m_pAnalysisData->RegisterElementToOrderManager((long)pElement);

  00078	8b 4f 08	 mov	 ecx, DWORD PTR [edi+8]
  0007b	56		 push	 esi
  0007c	e8 00 00 00 00	 call	 ?RegisterElementToOrderManager@CAnalysisData@@QAEXJ@Z ; CAnalysisData::RegisterElementToOrderManager

; 360  : 	m_pAnalysisData->GetElementTree().Add(blockIndex,pElement);	

  00081	8b 4f 08	 mov	 ecx, DWORD PTR [edi+8]
  00084	8d 45 f8	 lea	 eax, DWORD PTR _blockIndex$[ebp]
  00087	56		 push	 esi
  00088	50		 push	 eax
  00089	e8 00 00 00 00	 call	 ?GetElementTree@CAnalysisData@@QAEAAVCElementTree@@XZ ; CAnalysisData::GetElementTree
  0008e	8b c8		 mov	 ecx, eax
  00090	e8 00 00 00 00	 call	 ?Add@CElementTree@@QAEXABVCBlockIndex@@PAVCElement@@@Z ; CElementTree::Add

; 361  : 	
; 362  : 	// Undo / Redo
; 363  : 	m_pAnalysisData->GetUndoRedoManager().RegisterElementToUnRedoManager(URT_NEW_OR_DEL, (long)pElement);

  00095	8b 4f 08	 mov	 ecx, DWORD PTR [edi+8]
  00098	6a 00		 push	 0
  0009a	6a 00		 push	 0
  0009c	56		 push	 esi
  0009d	6a 01		 push	 1
  0009f	e8 00 00 00 00	 call	 ?GetUndoRedoManager@CAnalysisData@@QAEAAVCUndoRedoManager@@XZ ; CAnalysisData::GetUndoRedoManager
  000a4	8b c8		 mov	 ecx, eax
  000a6	e8 00 00 00 00	 call	 ?RegisterElementToUnRedoManager@CUndoRedoManager@@QAEXHJPBD0@Z ; CUndoRedoManager::RegisterElementToUnRedoManager
  000ab	5e		 pop	 esi
$LN1@MakeElemen:
  000ac	5f		 pop	 edi

; 364  : }

  000ad	8b e5		 mov	 esp, ebp
  000af	5d		 pop	 ebp
  000b0	c2 04 00	 ret	 4
?MakeElement@CTool@@IAEXABVCPoint@@@Z ENDP		; CTool::MakeElement
_TEXT	ENDS
; Function compile flags: /Ogtp
; File D:\git\src\IBK\IBK_DRFN\ProjSrc\SrcChartEx\ChartAddIn\ChartAnalysisToolAddIn\AnalysisTool\Tool.cpp
;	COMDAT ?ChangeCursor@CTool@@IAEXW4DrawType@CToolEnumData@@@Z
_TEXT	SEGMENT
_type$ = 8						; size = 4
?ChangeCursor@CTool@@IAEXW4DrawType@CToolEnumData@@@Z PROC ; CTool::ChangeCursor, COMDAT
; _this$ = ecx

; 325  : {

  00000	55		 push	 ebp
  00001	8b ec		 mov	 ebp, esp
  00003	56		 push	 esi
  00004	8b f1		 mov	 esi, ecx

; 326  : 	if(m_pAnalysisData == NULL || m_pAnalysisData->GetParent() == NULL)

  00006	8b 4e 08	 mov	 ecx, DWORD PTR [esi+8]
  00009	85 c9		 test	 ecx, ecx
  0000b	74 43		 je	 SHORT $LN5@ChangeCurs
  0000d	e8 00 00 00 00	 call	 ?GetParent@CAnalysisData@@QBEPAVCWnd@@XZ ; CAnalysisData::GetParent
  00012	85 c0		 test	 eax, eax
  00014	74 3a		 je	 SHORT $LN5@ChangeCurs

; 327  : 		return;
; 328  : 
; 329  : 	switch(type){

  00016	8b 45 08	 mov	 eax, DWORD PTR _type$[ebp]
  00019	83 e8 00	 sub	 eax, 0
  0001c	74 28		 je	 SHORT $LN6@ChangeCurs
  0001e	83 e8 01	 sub	 eax, 1
  00021	74 14		 je	 SHORT $LN7@ChangeCurs
  00023	83 e8 01	 sub	 eax, 1
  00026	75 28		 jne	 SHORT $LN5@ChangeCurs

; 330  : 	case CToolEnumData::DRAW_NONE:
; 331  : 		m_pAnalysisData->SendMessageToParent(CCursorShape::OBJECT_NONE);
; 332  : 		break;
; 333  : 	case CToolEnumData::DRAW_PEN:
; 334  : 		m_pAnalysisData->SendMessageToParent(CCursorShape::TOOL_DRAW);
; 335  : 		break;
; 336  : 	case CToolEnumData::DRAW_NODROP:
; 337  : 		m_pAnalysisData->SendMessageToParent(CCursorShape::TOOL_NODROP);
; 338  : 		break;
; 339  : 	}
; 340  : }

  00028	8b 4e 08	 mov	 ecx, DWORD PTR [esi+8]
  0002b	6a 07		 push	 7
  0002d	e8 00 00 00 00	 call	 ?SendMessageToParent@CAnalysisData@@QAEXW4CHARTOBJECT@CCursorShape@@@Z ; CAnalysisData::SendMessageToParent
  00032	5e		 pop	 esi
  00033	5d		 pop	 ebp
  00034	c2 04 00	 ret	 4
$LN7@ChangeCurs:
  00037	8b 4e 08	 mov	 ecx, DWORD PTR [esi+8]
  0003a	6a 06		 push	 6
  0003c	e8 00 00 00 00	 call	 ?SendMessageToParent@CAnalysisData@@QAEXW4CHARTOBJECT@CCursorShape@@@Z ; CAnalysisData::SendMessageToParent
  00041	5e		 pop	 esi
  00042	5d		 pop	 ebp
  00043	c2 04 00	 ret	 4
$LN6@ChangeCurs:
  00046	8b 4e 08	 mov	 ecx, DWORD PTR [esi+8]
  00049	6a 00		 push	 0
  0004b	e8 00 00 00 00	 call	 ?SendMessageToParent@CAnalysisData@@QAEXW4CHARTOBJECT@CCursorShape@@@Z ; CAnalysisData::SendMessageToParent
$LN5@ChangeCurs:
  00050	5e		 pop	 esi
  00051	5d		 pop	 ebp
  00052	c2 04 00	 ret	 4
?ChangeCursor@CTool@@IAEXW4DrawType@CToolEnumData@@@Z ENDP ; CTool::ChangeCursor
_TEXT	ENDS
; Function compile flags: /Ogtp
; File D:\git\src\IBK\IBK_DRFN\ProjSrc\SrcChartEx\ChartAddIn\ChartAnalysisToolAddIn\AnalysisTool\Tool.cpp
;	COMDAT ?ChangeCursor@CTool@@IAEXW4ModifyType@CToolEnumData@@@Z
_TEXT	SEGMENT
_type$ = 8						; size = 4
?ChangeCursor@CTool@@IAEXW4ModifyType@CToolEnumData@@@Z PROC ; CTool::ChangeCursor, COMDAT
; _this$ = ecx

; 303  : {

  00000	55		 push	 ebp
  00001	8b ec		 mov	 ebp, esp
  00003	56		 push	 esi
  00004	8b f1		 mov	 esi, ecx

; 304  : 	if(m_pAnalysisData == NULL || m_pAnalysisData->GetParent() == NULL)

  00006	8b 4e 08	 mov	 ecx, DWORD PTR [esi+8]
  00009	85 c9		 test	 ecx, ecx
  0000b	74 40		 je	 SHORT $LN5@ChangeCurs
  0000d	e8 00 00 00 00	 call	 ?GetParent@CAnalysisData@@QBEPAVCWnd@@XZ ; CAnalysisData::GetParent
  00012	85 c0		 test	 eax, eax
  00014	74 37		 je	 SHORT $LN5@ChangeCurs

; 305  : 		return;
; 306  : 
; 307  : 	switch(type){

  00016	8b 45 08	 mov	 eax, DWORD PTR _type$[ebp]
  00019	83 f8 06	 cmp	 eax, 6
  0001c	77 2f		 ja	 SHORT $LN5@ChangeCurs
  0001e	ff 24 85 00 00
	00 00		 jmp	 DWORD PTR $LN14@ChangeCurs[eax*4]
$LN6@ChangeCurs:

; 308  : 	case CToolEnumData::MODIFY_NONE:
; 309  : 		m_pAnalysisData->SendMessageToParent(CCursorShape::OBJECT_NONE);
; 310  : 		break;
; 311  : 	case CToolEnumData::MODIFY_CENTER:
; 312  : 		m_pAnalysisData->SendMessageToParent(CCursorShape::TOOL_SIZEALL);
; 313  : 		break;
; 314  : 	case CToolEnumData::MODIFY_START:
; 315  : 	case CToolEnumData::MODIFY_MIDDLE:
; 316  : 	case CToolEnumData::MODIFY_END:
; 317  : 	case CToolEnumData::MODIFY_X:
; 318  : 	case CToolEnumData::MODIFY_Y:
; 319  : 		m_pAnalysisData->SendMessageToParent(CCursorShape::TOOL_SIZENESW);
; 320  : 		break;
; 321  : 	}
; 322  : }

  00025	8b 4e 08	 mov	 ecx, DWORD PTR [esi+8]
  00028	6a 00		 push	 0
  0002a	e8 00 00 00 00	 call	 ?SendMessageToParent@CAnalysisData@@QAEXW4CHARTOBJECT@CCursorShape@@@Z ; CAnalysisData::SendMessageToParent
  0002f	5e		 pop	 esi
  00030	5d		 pop	 ebp
  00031	c2 04 00	 ret	 4
$LN7@ChangeCurs:
  00034	8b 4e 08	 mov	 ecx, DWORD PTR [esi+8]
  00037	6a 08		 push	 8
  00039	e8 00 00 00 00	 call	 ?SendMessageToParent@CAnalysisData@@QAEXW4CHARTOBJECT@CCursorShape@@@Z ; CAnalysisData::SendMessageToParent
  0003e	5e		 pop	 esi
  0003f	5d		 pop	 ebp
  00040	c2 04 00	 ret	 4
$LN8@ChangeCurs:
  00043	8b 4e 08	 mov	 ecx, DWORD PTR [esi+8]
  00046	6a 09		 push	 9
  00048	e8 00 00 00 00	 call	 ?SendMessageToParent@CAnalysisData@@QAEXW4CHARTOBJECT@CCursorShape@@@Z ; CAnalysisData::SendMessageToParent
$LN5@ChangeCurs:
  0004d	5e		 pop	 esi
  0004e	5d		 pop	 ebp
  0004f	c2 04 00	 ret	 4
  00052	66 90		 npad	 2
$LN14@ChangeCurs:
  00054	00 00 00 00	 DD	 $LN6@ChangeCurs
  00058	00 00 00 00	 DD	 $LN7@ChangeCurs
  0005c	00 00 00 00	 DD	 $LN8@ChangeCurs
  00060	00 00 00 00	 DD	 $LN8@ChangeCurs
  00064	00 00 00 00	 DD	 $LN8@ChangeCurs
  00068	00 00 00 00	 DD	 $LN8@ChangeCurs
  0006c	00 00 00 00	 DD	 $LN8@ChangeCurs
?ChangeCursor@CTool@@IAEXW4ModifyType@CToolEnumData@@@Z ENDP ; CTool::ChangeCursor
_TEXT	ENDS
; Function compile flags: /Ogtp
; File D:\git\src\IBK\IBK_DRFN\ProjSrc\SrcChartEx\ChartAddIn\ChartAnalysisToolAddIn\AnalysisTool\Tool.cpp
;	COMDAT ?SetDrawingRegions@CTool@@IAEXABVCPoint@@@Z
_TEXT	SEGMENT
_point$ = 8						; size = 4
?SetDrawingRegions@CTool@@IAEXABVCPoint@@@Z PROC	; CTool::SetDrawingRegions, COMDAT
; _this$ = ecx

; 290  : {

  00000	55		 push	 ebp
  00001	8b ec		 mov	 ebp, esp
  00003	56		 push	 esi
  00004	8b f1		 mov	 esi, ecx

; 370  : 	if( !m_pAnalysisData) return true;

  00006	8b 4e 08	 mov	 ecx, DWORD PTR [esi+8]
  00009	85 c9		 test	 ecx, ecx
  0000b	74 31		 je	 SHORT $LN1@SetDrawing

; 371  : 
; 372  : 	IChartManager *pIChartManager = m_pAnalysisData->GetMainBlock();

  0000d	e8 00 00 00 00	 call	 ?GetMainBlock@CAnalysisData@@QBEPAUIChartManager133101@@XZ ; CAnalysisData::GetMainBlock

; 373  : 	if( !pIChartManager) return true;

  00012	85 c0		 test	 eax, eax
  00014	74 28		 je	 SHORT $LN1@SetDrawing

; 374  : 	pIChartManager->Release();

  00016	8b 08		 mov	 ecx, DWORD PTR [eax]
  00018	57		 push	 edi
  00019	50		 push	 eax
  0001a	ff 51 08	 call	 DWORD PTR [ecx+8]

; 291  : 	if(IsNullMainBlock())
; 292  : 		return;
; 293  : 
; 294  : 	IChartManager *pIChartManager = m_pAnalysisData->GetMainBlock();

  0001d	8b 4e 08	 mov	 ecx, DWORD PTR [esi+8]
  00020	e8 00 00 00 00	 call	 ?GetMainBlock@CAnalysisData@@QBEPAUIChartManager133101@@XZ ; CAnalysisData::GetMainBlock
  00025	8b f8		 mov	 edi, eax

; 295  : 	if( !pIChartManager) return;

  00027	85 ff		 test	 edi, edi
  00029	74 12		 je	 SHORT $LN10@SetDrawing

; 296  : 	m_drawingRegions.SetDrawingRegions( pIChartManager, point);

  0002b	ff 75 08	 push	 DWORD PTR _point$[ebp]
  0002e	8d 4e 10	 lea	 ecx, DWORD PTR [esi+16]
  00031	57		 push	 edi
  00032	e8 00 00 00 00	 call	 ?SetDrawingRegions@CDrawingRegions@@QAEXPAUIChartManager133101@@ABVCPoint@@@Z ; CDrawingRegions::SetDrawingRegions

; 297  : 	pIChartManager->Release();

  00037	8b 07		 mov	 eax, DWORD PTR [edi]
  00039	57		 push	 edi
  0003a	ff 50 08	 call	 DWORD PTR [eax+8]
$LN10@SetDrawing:
  0003d	5f		 pop	 edi
$LN1@SetDrawing:
  0003e	5e		 pop	 esi

; 298  : 	pIChartManager = NULL;
; 299  : }

  0003f	5d		 pop	 ebp
  00040	c2 04 00	 ret	 4
?SetDrawingRegions@CTool@@IAEXABVCPoint@@@Z ENDP	; CTool::SetDrawingRegions
_TEXT	ENDS
; Function compile flags: /Ogtp
; File D:\git\src\IBK\IBK_DRFN\ProjSrc\SrcChartEx\ChartAddIn\ChartAnalysisToolAddIn\AnalysisTool\Tool.cpp
;	COMDAT ?RefreshPointsAndSetDataType@CTool@@IAE?AVCPoints@@ABVCPoint@@@Z
_TEXT	SEGMENT
_savingPoint$ = -152					; size = 32
_drawingPoint$ = -120					; size = 8
___$ReturnUdt$GSCopy$ = -116				; size = 4
_calData$ = -112					; size = 96
__$ArrayPad$ = -16					; size = 4
__$EHRec$ = -12						; size = 12
___$ReturnUdt$ = 8					; size = 4
_point$ = 12						; size = 4
?RefreshPointsAndSetDataType@CTool@@IAE?AVCPoints@@ABVCPoint@@@Z PROC ; CTool::RefreshPointsAndSetDataType, COMDAT
; _this$ = ecx

; 271  : {

  00000	55		 push	 ebp
  00001	8b ec		 mov	 ebp, esp
  00003	6a ff		 push	 -1
  00005	68 00 00 00 00	 push	 __ehhandler$?RefreshPointsAndSetDataType@CTool@@IAE?AVCPoints@@ABVCPoint@@@Z
  0000a	64 a1 00 00 00
	00		 mov	 eax, DWORD PTR fs:0
  00010	50		 push	 eax
  00011	81 ec 8c 00 00
	00		 sub	 esp, 140		; 0000008cH
  00017	a1 00 00 00 00	 mov	 eax, DWORD PTR ___security_cookie
  0001c	33 c5		 xor	 eax, ebp
  0001e	89 45 f0	 mov	 DWORD PTR __$ArrayPad$[ebp], eax
  00021	53		 push	 ebx
  00022	56		 push	 esi
  00023	57		 push	 edi
  00024	50		 push	 eax
  00025	8d 45 f4	 lea	 eax, DWORD PTR __$EHRec$[ebp]
  00028	64 a3 00 00 00
	00		 mov	 DWORD PTR fs:0, eax
  0002e	8b f1		 mov	 esi, ecx
  00030	8b 7d 08	 mov	 edi, DWORD PTR ___$ReturnUdt$[ebp]
  00033	8b 5d 0c	 mov	 ebx, DWORD PTR _point$[ebp]
  00036	89 7d 8c	 mov	 DWORD PTR ___$ReturnUdt$GSCopy$[ebp], edi

; 370  : 	if( !m_pAnalysisData) return true;

  00039	8b 4e 08	 mov	 ecx, DWORD PTR [esi+8]
  0003c	85 c9		 test	 ecx, ecx
  0003e	74 20		 je	 SHORT $LN19@RefreshPoi

; 371  : 
; 372  : 	IChartManager *pIChartManager = m_pAnalysisData->GetMainBlock();

  00040	e8 00 00 00 00	 call	 ?GetMainBlock@CAnalysisData@@QBEPAUIChartManager133101@@XZ ; CAnalysisData::GetMainBlock
  00045	8b c8		 mov	 ecx, eax

; 373  : 	if( !pIChartManager) return true;

  00047	85 c9		 test	 ecx, ecx
  00049	74 15		 je	 SHORT $LN19@RefreshPoi

; 374  : 	pIChartManager->Release();

  0004b	8b 01		 mov	 eax, DWORD PTR [ecx]
  0004d	51		 push	 ecx
  0004e	ff 50 08	 call	 DWORD PTR [eax+8]

; 284  : 	return m_pAnalysisData->GetCoordinateCalculatorData(point);

  00051	8b 4e 08	 mov	 ecx, DWORD PTR [esi+8]
  00054	8d 45 90	 lea	 eax, DWORD PTR _calData$[ebp]
  00057	53		 push	 ebx
  00058	50		 push	 eax
  00059	e8 00 00 00 00	 call	 ?GetCoordinateCalculatorData@CAnalysisData@@QBE?AVCCoordinateCalculatorData@@ABVCPoint@@@Z ; CAnalysisData::GetCoordinateCalculatorData
  0005e	eb 0a		 jmp	 SHORT $LN7@RefreshPoi
$LN19@RefreshPoi:

; 279  : 
; 280  : // 좌표 계산을 위한 data.
; 281  : CCoordinateCalculatorData CTool::GetCoordinateCalculatorData(const CPoint& point) const
; 282  : {
; 283  : 	if( IsNullMainBlock()) return CCoordinateCalculatorData( NULL);

  00060	6a 00		 push	 0
  00062	8d 4d 90	 lea	 ecx, DWORD PTR _calData$[ebp]
  00065	e8 00 00 00 00	 call	 ??0CCoordinateCalculatorData@@QAE@PAUIChartManager133101@@@Z ; CCoordinateCalculatorData::CCoordinateCalculatorData
$LN7@RefreshPoi:

; 272  : 	CCoordinateCalculatorData calData = GetCoordinateCalculatorData(point);
; 273  : 	CCoordinateCalculator& coordinateCalculator = GetCoordinateCalculator();

  0006a	8b 06		 mov	 eax, DWORD PTR [esi]
  0006c	8b ce		 mov	 ecx, esi
  0006e	c7 45 fc 00 00
	00 00		 mov	 DWORD PTR __$EHRec$[ebp+8], 0
  00075	ff 50 18	 call	 DWORD PTR [eax+24]

; 274  : 	CCoordinate savingPoint = GetCoordinateCalculator().AbsoluteToRelative(calData, point);

  00078	53		 push	 ebx
  00079	8d 45 90	 lea	 eax, DWORD PTR _calData$[ebp]
  0007c	8b ce		 mov	 ecx, esi
  0007e	50		 push	 eax
  0007f	8d 85 68 ff ff
	ff		 lea	 eax, DWORD PTR _savingPoint$[ebp]
  00085	50		 push	 eax
  00086	8b 06		 mov	 eax, DWORD PTR [esi]
  00088	ff 50 18	 call	 DWORD PTR [eax+24]
  0008b	8b c8		 mov	 ecx, eax
  0008d	e8 00 00 00 00	 call	 ?AbsoluteToRelative@CCoordinateCalculator@@QBE?AVCCoordinate@@ABVCCoordinateCalculatorData@@ABVCPoint@@@Z ; CCoordinateCalculator::AbsoluteToRelative

; 275  : 	CPoint drawingPoint = GetCoordinateCalculator().RelativeToAbsolute(calData, savingPoint);

  00092	8d 85 68 ff ff
	ff		 lea	 eax, DWORD PTR _savingPoint$[ebp]
  00098	c6 45 fc 01	 mov	 BYTE PTR __$EHRec$[ebp+8], 1
  0009c	50		 push	 eax
  0009d	8d 45 90	 lea	 eax, DWORD PTR _calData$[ebp]
  000a0	8b ce		 mov	 ecx, esi
  000a2	50		 push	 eax
  000a3	8d 45 88	 lea	 eax, DWORD PTR _drawingPoint$[ebp]
  000a6	50		 push	 eax
  000a7	8b 06		 mov	 eax, DWORD PTR [esi]
  000a9	ff 50 18	 call	 DWORD PTR [eax+24]
  000ac	8b c8		 mov	 ecx, eax
  000ae	e8 00 00 00 00	 call	 ?RelativeToAbsolute@CCoordinateCalculator@@QBE?AVCPoint@@ABVCCoordinateCalculatorData@@ABVCCoordinate@@@Z ; CCoordinateCalculator::RelativeToAbsolute

; 276  : 	
; 277  : 	return CPoints(savingPoint, drawingPoint);	

  000b3	8d 45 88	 lea	 eax, DWORD PTR _drawingPoint$[ebp]
  000b6	8b cf		 mov	 ecx, edi
  000b8	50		 push	 eax
  000b9	8d 85 68 ff ff
	ff		 lea	 eax, DWORD PTR _savingPoint$[ebp]
  000bf	50		 push	 eax
  000c0	e8 00 00 00 00	 call	 ??0CPoints@@QAE@ABVCCoordinate@@ABVCPoint@@@Z ; CPoints::CPoints
  000c5	8d 8d 7c ff ff
	ff		 lea	 ecx, DWORD PTR _savingPoint$[ebp+20]
  000cb	ff 15 00 00 00
	00		 call	 DWORD PTR __imp_??1?$CStringT@DV?$StrTraitMFC_DLL@DV?$ChTraitsCRT@D@ATL@@@@@ATL@@QAE@XZ
  000d1	8d 4d 90	 lea	 ecx, DWORD PTR _calData$[ebp]
  000d4	e8 00 00 00 00	 call	 ??1CCoordinateCalculatorData@@QAE@XZ ; CCoordinateCalculatorData::~CCoordinateCalculatorData
  000d9	8b c7		 mov	 eax, edi

; 278  : }

  000db	8b 4d f4	 mov	 ecx, DWORD PTR __$EHRec$[ebp]
  000de	64 89 0d 00 00
	00 00		 mov	 DWORD PTR fs:0, ecx
  000e5	59		 pop	 ecx
  000e6	5f		 pop	 edi
  000e7	5e		 pop	 esi
  000e8	5b		 pop	 ebx
  000e9	8b 4d f0	 mov	 ecx, DWORD PTR __$ArrayPad$[ebp]
  000ec	33 cd		 xor	 ecx, ebp
  000ee	e8 00 00 00 00	 call	 @__security_check_cookie@4
  000f3	8b e5		 mov	 esp, ebp
  000f5	5d		 pop	 ebp
  000f6	c2 08 00	 ret	 8
_TEXT	ENDS
;	COMDAT text$x
text$x	SEGMENT
__unwindfunclet$?RefreshPointsAndSetDataType@CTool@@IAE?AVCPoints@@ABVCPoint@@@Z$0:
  00000	8d 4d 90	 lea	 ecx, DWORD PTR _calData$[ebp]
  00003	e9 00 00 00 00	 jmp	 ??1CCoordinateCalculatorData@@QAE@XZ ; CCoordinateCalculatorData::~CCoordinateCalculatorData
__unwindfunclet$?RefreshPointsAndSetDataType@CTool@@IAE?AVCPoints@@ABVCPoint@@@Z$1:
  00008	8d 8d 68 ff ff
	ff		 lea	 ecx, DWORD PTR _savingPoint$[ebp]
  0000e	e9 00 00 00 00	 jmp	 ??1CCoordinate@@QAE@XZ
  00013	cc		 int	 3
  00014	cc		 int	 3
  00015	cc		 int	 3
  00016	cc		 int	 3
  00017	cc		 int	 3
__ehhandler$?RefreshPointsAndSetDataType@CTool@@IAE?AVCPoints@@ABVCPoint@@@Z:
  00018	90		 npad	 1
  00019	90		 npad	 1
  0001a	8b 54 24 08	 mov	 edx, DWORD PTR [esp+8]
  0001e	8d 42 0c	 lea	 eax, DWORD PTR [edx+12]
  00021	8b 8a 64 ff ff
	ff		 mov	 ecx, DWORD PTR [edx-156]
  00027	33 c8		 xor	 ecx, eax
  00029	e8 00 00 00 00	 call	 @__security_check_cookie@4
  0002e	8b 4a fc	 mov	 ecx, DWORD PTR [edx-4]
  00031	33 c8		 xor	 ecx, eax
  00033	e8 00 00 00 00	 call	 @__security_check_cookie@4
  00038	b8 00 00 00 00	 mov	 eax, OFFSET __ehfuncinfo$?RefreshPointsAndSetDataType@CTool@@IAE?AVCPoints@@ABVCPoint@@@Z
  0003d	e9 00 00 00 00	 jmp	 ___CxxFrameHandler3
text$x	ENDS
?RefreshPointsAndSetDataType@CTool@@IAE?AVCPoints@@ABVCPoint@@@Z ENDP ; CTool::RefreshPointsAndSetDataType
; Function compile flags: /Ogtp
; File D:\git\src\IBK\IBK_DRFN\ProjSrc\SrcChartEx\ChartAddIn\ChartAnalysisToolAddIn\AnalysisTool\Tool.cpp
;	COMDAT ?GetDrawingPointAndSetDataType@CTool@@IAE?AVCPoint@@ABV2@@Z
_TEXT	SEGMENT
$T2 = -252						; size = 40
_point$GSCopy$1$ = -212					; size = 4
$T3 = -208						; size = 96
_calData$ = -112					; size = 96
__$ArrayPad$ = -16					; size = 4
__$EHRec$ = -12						; size = 12
___$ReturnUdt$ = 8					; size = 4
_point$ = 12						; size = 4
?GetDrawingPointAndSetDataType@CTool@@IAE?AVCPoint@@ABV2@@Z PROC ; CTool::GetDrawingPointAndSetDataType, COMDAT
; _this$ = ecx

; 255  : {

  00000	55		 push	 ebp
  00001	8b ec		 mov	 ebp, esp
  00003	6a ff		 push	 -1
  00005	68 00 00 00 00	 push	 __ehhandler$?GetDrawingPointAndSetDataType@CTool@@IAE?AVCPoint@@ABV2@@Z
  0000a	64 a1 00 00 00
	00		 mov	 eax, DWORD PTR fs:0
  00010	50		 push	 eax
  00011	81 ec f0 00 00
	00		 sub	 esp, 240		; 000000f0H
  00017	a1 00 00 00 00	 mov	 eax, DWORD PTR ___security_cookie
  0001c	33 c5		 xor	 eax, ebp
  0001e	89 45 f0	 mov	 DWORD PTR __$ArrayPad$[ebp], eax
  00021	53		 push	 ebx
  00022	56		 push	 esi
  00023	57		 push	 edi
  00024	50		 push	 eax
  00025	8d 45 f4	 lea	 eax, DWORD PTR __$EHRec$[ebp]
  00028	64 a3 00 00 00
	00		 mov	 DWORD PTR fs:0, eax
  0002e	8b f1		 mov	 esi, ecx

; 256  : 	IChartManager *pIChartManager = NULL;
; 257  : 	if( m_pAnalysisData) pIChartManager = m_pAnalysisData->GetMainBlock();

  00030	8b 4e 08	 mov	 ecx, DWORD PTR [esi+8]
  00033	33 db		 xor	 ebx, ebx
  00035	8b 45 0c	 mov	 eax, DWORD PTR _point$[ebp]
  00038	8b 7d 08	 mov	 edi, DWORD PTR ___$ReturnUdt$[ebp]
  0003b	89 85 2c ff ff
	ff		 mov	 DWORD PTR _point$GSCopy$1$[ebp], eax
  00041	85 c9		 test	 ecx, ecx
  00043	74 07		 je	 SHORT $LN2@GetDrawing
  00045	e8 00 00 00 00	 call	 ?GetMainBlock@CAnalysisData@@QBEPAUIChartManager133101@@XZ ; CAnalysisData::GetMainBlock
  0004a	8b d8		 mov	 ebx, eax
$LN2@GetDrawing:

; 258  : 	CCoordinateCalculatorData calData( pIChartManager);

  0004c	53		 push	 ebx
  0004d	8d 4d 90	 lea	 ecx, DWORD PTR _calData$[ebp]
  00050	e8 00 00 00 00	 call	 ??0CCoordinateCalculatorData@@QAE@PAUIChartManager133101@@@Z ; CCoordinateCalculatorData::CCoordinateCalculatorData

; 259  : 	pIChartManager->Release();

  00055	8b 03		 mov	 eax, DWORD PTR [ebx]
  00057	53		 push	 ebx
  00058	c7 45 fc 00 00
	00 00		 mov	 DWORD PTR __$EHRec$[ebp+8], 0
  0005f	ff 50 08	 call	 DWORD PTR [eax+8]

; 173  : 	return m_commonEnvironment.GetDataType().IsRelativePointType();

  00062	8d 85 04 ff ff
	ff		 lea	 eax, DWORD PTR $T2[ebp]
  00068	50		 push	 eax
  00069	8d 4e 28	 lea	 ecx, DWORD PTR [esi+40]
  0006c	e8 00 00 00 00	 call	 ?GetDataType@CElementCommonEnvironment@@QBE?AVCDataTypeEnvironment@@XZ ; CElementCommonEnvironment::GetDataType
  00071	8b c8		 mov	 ecx, eax
  00073	c6 45 fc 01	 mov	 BYTE PTR __$EHRec$[ebp+8], 1
  00077	e8 00 00 00 00	 call	 ?IsRelativePointType@CDataTypeEnvironment@@QBE_NXZ ; CDataTypeEnvironment::IsRelativePointType
  0007c	8d 8d 1c ff ff
	ff		 lea	 ecx, DWORD PTR $T2[ebp+24]
  00082	c6 45 fc 00	 mov	 BYTE PTR __$EHRec$[ebp+8], 0
  00086	8a d8		 mov	 bl, al
  00088	ff 15 00 00 00
	00		 call	 DWORD PTR __imp_??1?$CStringT@DV?$StrTraitMFC_DLL@DV?$ChTraitsCRT@D@ATL@@@@@ATL@@QAE@XZ
  0008e	8d 8d 18 ff ff
	ff		 lea	 ecx, DWORD PTR $T2[ebp+20]
  00094	ff 15 00 00 00
	00		 call	 DWORD PTR __imp_??1?$CStringT@DV?$StrTraitMFC_DLL@DV?$ChTraitsCRT@D@ATL@@@@@ATL@@QAE@XZ
  0009a	8d 8d 14 ff ff
	ff		 lea	 ecx, DWORD PTR $T2[ebp+16]
  000a0	ff 15 00 00 00
	00		 call	 DWORD PTR __imp_??1?$CStringT@DV?$StrTraitMFC_DLL@DV?$ChTraitsCRT@D@ATL@@@@@ATL@@QAE@XZ

; 394  : 	if(!IsRelativePointType())

  000a6	84 db		 test	 bl, bl
  000a8	75 12		 jne	 SHORT $LN7@GetDrawing

; 395  : 		return point;

  000aa	8b 9d 2c ff ff
	ff		 mov	 ebx, DWORD PTR _point$GSCopy$1$[ebp]
  000b0	8b 03		 mov	 eax, DWORD PTR [ebx]
  000b2	8b 4b 04	 mov	 ecx, DWORD PTR [ebx+4]
  000b5	89 07		 mov	 DWORD PTR [edi], eax
  000b7	89 4f 04	 mov	 DWORD PTR [edi+4], ecx
  000ba	eb 79		 jmp	 SHORT $LN6@GetDrawing
$LN7@GetDrawing:

; 370  : 	if( !m_pAnalysisData) return true;

  000bc	8b 4e 08	 mov	 ecx, DWORD PTR [esi+8]
  000bf	85 c9		 test	 ecx, ecx
  000c1	74 29		 je	 SHORT $LN25@GetDrawing

; 371  : 
; 372  : 	IChartManager *pIChartManager = m_pAnalysisData->GetMainBlock();

  000c3	e8 00 00 00 00	 call	 ?GetMainBlock@CAnalysisData@@QBEPAUIChartManager133101@@XZ ; CAnalysisData::GetMainBlock
  000c8	8b c8		 mov	 ecx, eax

; 373  : 	if( !pIChartManager) return true;

  000ca	85 c9		 test	 ecx, ecx
  000cc	74 1e		 je	 SHORT $LN25@GetDrawing

; 374  : 	pIChartManager->Release();

  000ce	8b 01		 mov	 eax, DWORD PTR [ecx]
  000d0	51		 push	 ecx
  000d1	ff 50 08	 call	 DWORD PTR [eax+8]

; 284  : 	return m_pAnalysisData->GetCoordinateCalculatorData(point);

  000d4	8b 9d 2c ff ff
	ff		 mov	 ebx, DWORD PTR _point$GSCopy$1$[ebp]
  000da	8d 85 30 ff ff
	ff		 lea	 eax, DWORD PTR $T3[ebp]
  000e0	8b 4e 08	 mov	 ecx, DWORD PTR [esi+8]
  000e3	53		 push	 ebx
  000e4	50		 push	 eax
  000e5	e8 00 00 00 00	 call	 ?GetCoordinateCalculatorData@CAnalysisData@@QBE?AVCCoordinateCalculatorData@@ABVCPoint@@@Z ; CAnalysisData::GetCoordinateCalculatorData
  000ea	eb 13		 jmp	 SHORT $LN16@GetDrawing
$LN25@GetDrawing:

; 269  : 
; 270  : CPoints CTool::RefreshPointsAndSetDataType(const CPoint& point)
; 271  : {
; 272  : 	CCoordinateCalculatorData calData = GetCoordinateCalculatorData(point);
; 273  : 	CCoordinateCalculator& coordinateCalculator = GetCoordinateCalculator();
; 274  : 	CCoordinate savingPoint = GetCoordinateCalculator().AbsoluteToRelative(calData, point);
; 275  : 	CPoint drawingPoint = GetCoordinateCalculator().RelativeToAbsolute(calData, savingPoint);
; 276  : 	
; 277  : 	return CPoints(savingPoint, drawingPoint);	
; 278  : }
; 279  : 
; 280  : // 좌표 계산을 위한 data.
; 281  : CCoordinateCalculatorData CTool::GetCoordinateCalculatorData(const CPoint& point) const
; 282  : {
; 283  : 	if( IsNullMainBlock()) return CCoordinateCalculatorData( NULL);

  000ec	6a 00		 push	 0
  000ee	8d 8d 30 ff ff
	ff		 lea	 ecx, DWORD PTR $T3[ebp]
  000f4	e8 00 00 00 00	 call	 ??0CCoordinateCalculatorData@@QAE@PAUIChartManager133101@@@Z ; CCoordinateCalculatorData::CCoordinateCalculatorData
  000f9	8b 9d 2c ff ff
	ff		 mov	 ebx, DWORD PTR _point$GSCopy$1$[ebp]
$LN16@GetDrawing:

; 397  : 	calData = GetCoordinateCalculatorData(point);

  000ff	8d 85 30 ff ff
	ff		 lea	 eax, DWORD PTR $T3[ebp]
  00105	c6 45 fc 02	 mov	 BYTE PTR __$EHRec$[ebp+8], 2
  00109	50		 push	 eax
  0010a	8d 4d 90	 lea	 ecx, DWORD PTR _calData$[ebp]
  0010d	e8 00 00 00 00	 call	 ??4CCoordinateCalculatorData@@QAEAAV0@ABV0@@Z ; CCoordinateCalculatorData::operator=
  00112	8d 8d 30 ff ff
	ff		 lea	 ecx, DWORD PTR $T3[ebp]
  00118	c6 45 fc 00	 mov	 BYTE PTR __$EHRec$[ebp+8], 0
  0011c	e8 00 00 00 00	 call	 ??1CCoordinateCalculatorData@@QAE@XZ ; CCoordinateCalculatorData::~CCoordinateCalculatorData

; 398  : 	return GetCoordinateCalculator().AbsoluteToAbsolute(calData, point);

  00121	53		 push	 ebx
  00122	8d 45 90	 lea	 eax, DWORD PTR _calData$[ebp]
  00125	8b ce		 mov	 ecx, esi
  00127	50		 push	 eax
  00128	8b 06		 mov	 eax, DWORD PTR [esi]
  0012a	57		 push	 edi
  0012b	ff 50 18	 call	 DWORD PTR [eax+24]
  0012e	8b c8		 mov	 ecx, eax
  00130	e8 00 00 00 00	 call	 ?AbsoluteToAbsolute@CCoordinateCalculator@@QBE?AVCPoint@@ABVCCoordinateCalculatorData@@ABV2@@Z ; CCoordinateCalculator::AbsoluteToAbsolute
$LN6@GetDrawing:

; 260  : 
; 261  : 	CPoint drawingPoint = GetDrawingPoint(point, calData);
; 262  : 	SetDataTypeEnvironment(calData);

  00135	8d 45 90	 lea	 eax, DWORD PTR _calData$[ebp]
  00138	8b ce		 mov	 ecx, esi
  0013a	50		 push	 eax
  0013b	e8 00 00 00 00	 call	 ?SetDataTypeEnvironment@CTool@@AAEXABVCCoordinateCalculatorData@@@Z ; CTool::SetDataTypeEnvironment

; 263  : 
; 264  : 	IPacket *pIPacket = calData.GetPacket_X();

  00140	8d 4d 90	 lea	 ecx, DWORD PTR _calData$[ebp]
  00143	e8 00 00 00 00	 call	 ?GetPacket_X@CCoordinateCalculatorData@@QBEPAUIPacket133101@@XZ ; CCoordinateCalculatorData::GetPacket_X

; 265  : 	if( pIPacket) pIPacket->Release();

  00148	85 c0		 test	 eax, eax
  0014a	74 06		 je	 SHORT $LN3@GetDrawing
  0014c	8b 08		 mov	 ecx, DWORD PTR [eax]
  0014e	50		 push	 eax
  0014f	ff 51 08	 call	 DWORD PTR [ecx+8]
$LN3@GetDrawing:

; 266  : 
; 267  : 	return drawingPoint;

  00152	8d 4d 90	 lea	 ecx, DWORD PTR _calData$[ebp]
  00155	e8 00 00 00 00	 call	 ??1CCoordinateCalculatorData@@QAE@XZ ; CCoordinateCalculatorData::~CCoordinateCalculatorData
  0015a	8b c7		 mov	 eax, edi

; 268  : }

  0015c	8b 4d f4	 mov	 ecx, DWORD PTR __$EHRec$[ebp]
  0015f	64 89 0d 00 00
	00 00		 mov	 DWORD PTR fs:0, ecx
  00166	59		 pop	 ecx
  00167	5f		 pop	 edi
  00168	5e		 pop	 esi
  00169	5b		 pop	 ebx
  0016a	8b 4d f0	 mov	 ecx, DWORD PTR __$ArrayPad$[ebp]
  0016d	33 cd		 xor	 ecx, ebp
  0016f	e8 00 00 00 00	 call	 @__security_check_cookie@4
  00174	8b e5		 mov	 esp, ebp
  00176	5d		 pop	 ebp
  00177	c2 08 00	 ret	 8
_TEXT	ENDS
;	COMDAT text$x
text$x	SEGMENT
__unwindfunclet$?GetDrawingPointAndSetDataType@CTool@@IAE?AVCPoint@@ABV2@@Z$0:
  00000	8d 4d 90	 lea	 ecx, DWORD PTR _calData$[ebp]
  00003	e9 00 00 00 00	 jmp	 ??1CCoordinateCalculatorData@@QAE@XZ ; CCoordinateCalculatorData::~CCoordinateCalculatorData
__unwindfunclet$?GetDrawingPointAndSetDataType@CTool@@IAE?AVCPoint@@ABV2@@Z$2:
  00008	8d 8d 04 ff ff
	ff		 lea	 ecx, DWORD PTR $T2[ebp]
  0000e	e9 00 00 00 00	 jmp	 ??1CDataTypeEnvironment@@QAE@XZ
__unwindfunclet$?GetDrawingPointAndSetDataType@CTool@@IAE?AVCPoint@@ABV2@@Z$1:
  00013	8d 8d 30 ff ff
	ff		 lea	 ecx, DWORD PTR $T3[ebp]
  00019	e9 00 00 00 00	 jmp	 ??1CCoordinateCalculatorData@@QAE@XZ ; CCoordinateCalculatorData::~CCoordinateCalculatorData
  0001e	cc		 int	 3
  0001f	cc		 int	 3
  00020	cc		 int	 3
  00021	cc		 int	 3
  00022	cc		 int	 3
__ehhandler$?GetDrawingPointAndSetDataType@CTool@@IAE?AVCPoint@@ABV2@@Z:
  00023	90		 npad	 1
  00024	90		 npad	 1
  00025	8b 54 24 08	 mov	 edx, DWORD PTR [esp+8]
  00029	8d 42 0c	 lea	 eax, DWORD PTR [edx+12]
  0002c	8b 8a 00 ff ff
	ff		 mov	 ecx, DWORD PTR [edx-256]
  00032	33 c8		 xor	 ecx, eax
  00034	e8 00 00 00 00	 call	 @__security_check_cookie@4
  00039	8b 4a fc	 mov	 ecx, DWORD PTR [edx-4]
  0003c	33 c8		 xor	 ecx, eax
  0003e	e8 00 00 00 00	 call	 @__security_check_cookie@4
  00043	b8 00 00 00 00	 mov	 eax, OFFSET __ehfuncinfo$?GetDrawingPointAndSetDataType@CTool@@IAE?AVCPoint@@ABV2@@Z
  00048	e9 00 00 00 00	 jmp	 ___CxxFrameHandler3
text$x	ENDS
?GetDrawingPointAndSetDataType@CTool@@IAE?AVCPoint@@ABV2@@Z ENDP ; CTool::GetDrawingPointAndSetDataType
; Function compile flags: /Ogtp
; File D:\git\src\IBK\IBK_DRFN\ProjSrc\SrcChartEx\ChartAddIn\ChartAnalysisToolAddIn\AnalysisTool\Tool.cpp
;	COMDAT ?GetPointsAndSetDataType@CTool@@IAE?AVCPoints@@ABVCPoint@@@Z
_TEXT	SEGMENT
___$ReturnUdt$GSCopy$ = -124				; size = 4
$T2 = -120						; size = 4
_point$GSCopy$1$ = -116					; size = 4
_calData$ = -112					; size = 96
__$ArrayPad$ = -16					; size = 4
__$EHRec$ = -12						; size = 12
___$ReturnUdt$ = 8					; size = 4
_point$ = 12						; size = 4
?GetPointsAndSetDataType@CTool@@IAE?AVCPoints@@ABVCPoint@@@Z PROC ; CTool::GetPointsAndSetDataType, COMDAT
; _this$ = ecx

; 242  : {

  00000	55		 push	 ebp
  00001	8b ec		 mov	 ebp, esp
  00003	6a ff		 push	 -1
  00005	68 00 00 00 00	 push	 __ehhandler$?GetPointsAndSetDataType@CTool@@IAE?AVCPoints@@ABVCPoint@@@Z
  0000a	64 a1 00 00 00
	00		 mov	 eax, DWORD PTR fs:0
  00010	50		 push	 eax
  00011	83 ec 70	 sub	 esp, 112		; 00000070H
  00014	a1 00 00 00 00	 mov	 eax, DWORD PTR ___security_cookie
  00019	33 c5		 xor	 eax, ebp
  0001b	89 45 f0	 mov	 DWORD PTR __$ArrayPad$[ebp], eax
  0001e	53		 push	 ebx
  0001f	56		 push	 esi
  00020	57		 push	 edi
  00021	50		 push	 eax
  00022	8d 45 f4	 lea	 eax, DWORD PTR __$EHRec$[ebp]
  00025	64 a3 00 00 00
	00		 mov	 DWORD PTR fs:0, eax
  0002b	8b f9		 mov	 edi, ecx
  0002d	8b 5d 08	 mov	 ebx, DWORD PTR ___$ReturnUdt$[ebp]

; 243  : 	IChartManager *pIChartManager = NULL;

  00030	33 f6		 xor	 esi, esi
  00032	8b 45 0c	 mov	 eax, DWORD PTR _point$[ebp]
  00035	89 5d 84	 mov	 DWORD PTR ___$ReturnUdt$GSCopy$[ebp], ebx
  00038	c7 45 88 00 00
	00 00		 mov	 DWORD PTR $T2[ebp], 0

; 244  : 	if( m_pAnalysisData) pIChartManager = m_pAnalysisData->GetMainBlock();

  0003f	8b 4f 08	 mov	 ecx, DWORD PTR [edi+8]
  00042	c7 45 fc 00 00
	00 00		 mov	 DWORD PTR __$EHRec$[ebp+8], 0
  00049	89 45 8c	 mov	 DWORD PTR _point$GSCopy$1$[ebp], eax
  0004c	85 c9		 test	 ecx, ecx
  0004e	74 07		 je	 SHORT $LN2@GetPointsA
  00050	e8 00 00 00 00	 call	 ?GetMainBlock@CAnalysisData@@QBEPAUIChartManager133101@@XZ ; CAnalysisData::GetMainBlock
  00055	8b f0		 mov	 esi, eax
$LN2@GetPointsA:

; 245  : 	CCoordinateCalculatorData calData( pIChartManager);

  00057	56		 push	 esi
  00058	8d 4d 90	 lea	 ecx, DWORD PTR _calData$[ebp]
  0005b	e8 00 00 00 00	 call	 ??0CCoordinateCalculatorData@@QAE@PAUIChartManager133101@@@Z ; CCoordinateCalculatorData::CCoordinateCalculatorData

; 246  : 	pIChartManager->Release();

  00060	8b 06		 mov	 eax, DWORD PTR [esi]
  00062	56		 push	 esi
  00063	c7 45 fc 01 00
	00 00		 mov	 DWORD PTR __$EHRec$[ebp+8], 1
  0006a	ff 50 08	 call	 DWORD PTR [eax+8]

; 247  : 
; 248  : 	CPoints points = GetPoints(point, calData);

  0006d	8d 45 90	 lea	 eax, DWORD PTR _calData$[ebp]
  00070	8b cf		 mov	 ecx, edi
  00072	50		 push	 eax
  00073	ff 75 8c	 push	 DWORD PTR _point$GSCopy$1$[ebp]
  00076	53		 push	 ebx
  00077	e8 00 00 00 00	 call	 ?GetPoints@CTool@@ABE?AVCPoints@@ABVCPoint@@AAVCCoordinateCalculatorData@@@Z ; CTool::GetPoints

; 249  : 	SetDataTypeEnvironment(calData);
; 250  : 
; 251  : 	return points;

  0007c	8d 45 90	 lea	 eax, DWORD PTR _calData$[ebp]
  0007f	c7 45 88 01 00
	00 00		 mov	 DWORD PTR $T2[ebp], 1
  00086	50		 push	 eax
  00087	8b cf		 mov	 ecx, edi
  00089	e8 00 00 00 00	 call	 ?SetDataTypeEnvironment@CTool@@AAEXABVCCoordinateCalculatorData@@@Z ; CTool::SetDataTypeEnvironment
  0008e	8d 4d 90	 lea	 ecx, DWORD PTR _calData$[ebp]
  00091	e8 00 00 00 00	 call	 ??1CCoordinateCalculatorData@@QAE@XZ ; CCoordinateCalculatorData::~CCoordinateCalculatorData
  00096	8b c3		 mov	 eax, ebx

; 252  : }

  00098	8b 4d f4	 mov	 ecx, DWORD PTR __$EHRec$[ebp]
  0009b	64 89 0d 00 00
	00 00		 mov	 DWORD PTR fs:0, ecx
  000a2	59		 pop	 ecx
  000a3	5f		 pop	 edi
  000a4	5e		 pop	 esi
  000a5	5b		 pop	 ebx
  000a6	8b 4d f0	 mov	 ecx, DWORD PTR __$ArrayPad$[ebp]
  000a9	33 cd		 xor	 ecx, ebp
  000ab	e8 00 00 00 00	 call	 @__security_check_cookie@4
  000b0	8b e5		 mov	 esp, ebp
  000b2	5d		 pop	 ebp
  000b3	c2 08 00	 ret	 8
_TEXT	ENDS
;	COMDAT text$x
text$x	SEGMENT
__unwindfunclet$?GetPointsAndSetDataType@CTool@@IAE?AVCPoints@@ABVCPoint@@@Z$0:
  00000	8d 4d 90	 lea	 ecx, DWORD PTR _calData$[ebp]
  00003	e9 00 00 00 00	 jmp	 ??1CCoordinateCalculatorData@@QAE@XZ ; CCoordinateCalculatorData::~CCoordinateCalculatorData
__unwindfunclet$?GetPointsAndSetDataType@CTool@@IAE?AVCPoints@@ABVCPoint@@@Z$1:
  00008	8b 45 88	 mov	 eax, DWORD PTR $T2[ebp]
  0000b	83 e0 01	 and	 eax, 1
  0000e	0f 84 0c 00 00
	00		 je	 $LN6@GetPointsA
  00014	83 65 88 fe	 and	 DWORD PTR $T2[ebp], -2	; fffffffeH
  00018	8b 4d 84	 mov	 ecx, DWORD PTR ___$ReturnUdt$GSCopy$[ebp]
  0001b	e9 00 00 00 00	 jmp	 ??1CPoints@@QAE@XZ
$LN6@GetPointsA:
  00020	c3		 ret	 0
  00021	cc		 int	 3
  00022	cc		 int	 3
  00023	cc		 int	 3
  00024	cc		 int	 3
  00025	cc		 int	 3
__ehhandler$?GetPointsAndSetDataType@CTool@@IAE?AVCPoints@@ABVCPoint@@@Z:
  00026	90		 npad	 1
  00027	90		 npad	 1
  00028	8b 54 24 08	 mov	 edx, DWORD PTR [esp+8]
  0002c	8d 42 0c	 lea	 eax, DWORD PTR [edx+12]
  0002f	8b 4a 80	 mov	 ecx, DWORD PTR [edx-128]
  00032	33 c8		 xor	 ecx, eax
  00034	e8 00 00 00 00	 call	 @__security_check_cookie@4
  00039	8b 4a fc	 mov	 ecx, DWORD PTR [edx-4]
  0003c	33 c8		 xor	 ecx, eax
  0003e	e8 00 00 00 00	 call	 @__security_check_cookie@4
  00043	b8 00 00 00 00	 mov	 eax, OFFSET __ehfuncinfo$?GetPointsAndSetDataType@CTool@@IAE?AVCPoints@@ABVCPoint@@@Z
  00048	e9 00 00 00 00	 jmp	 ___CxxFrameHandler3
text$x	ENDS
?GetPointsAndSetDataType@CTool@@IAE?AVCPoints@@ABVCPoint@@@Z ENDP ; CTool::GetPointsAndSetDataType
; Function compile flags: /Ogtp
; File D:\git\src\IBK\IBK_DRFN\ProjSrc\SrcChartEx\ChartAddIn\ChartAnalysisToolAddIn\AnalysisTool\Tool.cpp
;	COMDAT ?GetPoints@CTool@@IBE?AVCPoints@@ABVCPoint@@@Z
_TEXT	SEGMENT
_point$GSCopy$1$ = -116					; size = 4
___$ReturnUdt$GSCopy$ = -116				; size = 4
_calData$ = -112					; size = 96
__$ArrayPad$ = -16					; size = 4
__$EHRec$ = -12						; size = 12
___$ReturnUdt$ = 8					; size = 4
_point$ = 12						; size = 4
?GetPoints@CTool@@IBE?AVCPoints@@ABVCPoint@@@Z PROC	; CTool::GetPoints, COMDAT
; _this$ = ecx

; 222  : {

  00000	55		 push	 ebp
  00001	8b ec		 mov	 ebp, esp
  00003	6a ff		 push	 -1
  00005	68 00 00 00 00	 push	 __ehhandler$?GetPoints@CTool@@IBE?AVCPoints@@ABVCPoint@@@Z
  0000a	64 a1 00 00 00
	00		 mov	 eax, DWORD PTR fs:0
  00010	50		 push	 eax
  00011	83 ec 68	 sub	 esp, 104		; 00000068H
  00014	a1 00 00 00 00	 mov	 eax, DWORD PTR ___security_cookie
  00019	33 c5		 xor	 eax, ebp
  0001b	89 45 f0	 mov	 DWORD PTR __$ArrayPad$[ebp], eax
  0001e	53		 push	 ebx
  0001f	56		 push	 esi
  00020	57		 push	 edi
  00021	50		 push	 eax
  00022	8d 45 f4	 lea	 eax, DWORD PTR __$EHRec$[ebp]
  00025	64 a3 00 00 00
	00		 mov	 DWORD PTR fs:0, eax
  0002b	8b d9		 mov	 ebx, ecx
  0002d	8b 7d 08	 mov	 edi, DWORD PTR ___$ReturnUdt$[ebp]

; 223  : 	IChartManager *pIChartManager = NULL;

  00030	33 f6		 xor	 esi, esi

; 224  : 	if( m_pAnalysisData) pIChartManager = m_pAnalysisData->GetMainBlock();

  00032	8b 4b 08	 mov	 ecx, DWORD PTR [ebx+8]
  00035	8b 45 0c	 mov	 eax, DWORD PTR _point$[ebp]
  00038	89 7d 8c	 mov	 DWORD PTR ___$ReturnUdt$GSCopy$[ebp], edi
  0003b	89 45 8c	 mov	 DWORD PTR _point$GSCopy$1$[ebp], eax
  0003e	85 c9		 test	 ecx, ecx
  00040	74 07		 je	 SHORT $LN2@GetPoints
  00042	e8 00 00 00 00	 call	 ?GetMainBlock@CAnalysisData@@QBEPAUIChartManager133101@@XZ ; CAnalysisData::GetMainBlock
  00047	8b f0		 mov	 esi, eax
$LN2@GetPoints:

; 225  : 	CCoordinateCalculatorData calData( pIChartManager);

  00049	56		 push	 esi
  0004a	8d 4d 90	 lea	 ecx, DWORD PTR _calData$[ebp]
  0004d	e8 00 00 00 00	 call	 ??0CCoordinateCalculatorData@@QAE@PAUIChartManager133101@@@Z ; CCoordinateCalculatorData::CCoordinateCalculatorData

; 226  : 	pIChartManager->Release();

  00052	8b 16		 mov	 edx, DWORD PTR [esi]
  00054	56		 push	 esi
  00055	c7 45 fc 00 00
	00 00		 mov	 DWORD PTR __$EHRec$[ebp+8], 0
  0005c	ff 52 08	 call	 DWORD PTR [edx+8]

; 227  : 
; 228  : 	return GetPoints(point, calData);

  0005f	8d 45 90	 lea	 eax, DWORD PTR _calData$[ebp]
  00062	8b cb		 mov	 ecx, ebx
  00064	50		 push	 eax
  00065	ff 75 8c	 push	 DWORD PTR _point$GSCopy$1$[ebp]
  00068	57		 push	 edi
  00069	e8 00 00 00 00	 call	 ?GetPoints@CTool@@ABE?AVCPoints@@ABVCPoint@@AAVCCoordinateCalculatorData@@@Z ; CTool::GetPoints
  0006e	8d 4d 90	 lea	 ecx, DWORD PTR _calData$[ebp]
  00071	e8 00 00 00 00	 call	 ??1CCoordinateCalculatorData@@QAE@XZ ; CCoordinateCalculatorData::~CCoordinateCalculatorData
  00076	8b c7		 mov	 eax, edi

; 229  : }

  00078	8b 4d f4	 mov	 ecx, DWORD PTR __$EHRec$[ebp]
  0007b	64 89 0d 00 00
	00 00		 mov	 DWORD PTR fs:0, ecx
  00082	59		 pop	 ecx
  00083	5f		 pop	 edi
  00084	5e		 pop	 esi
  00085	5b		 pop	 ebx
  00086	8b 4d f0	 mov	 ecx, DWORD PTR __$ArrayPad$[ebp]
  00089	33 cd		 xor	 ecx, ebp
  0008b	e8 00 00 00 00	 call	 @__security_check_cookie@4
  00090	8b e5		 mov	 esp, ebp
  00092	5d		 pop	 ebp
  00093	c2 08 00	 ret	 8
_TEXT	ENDS
;	COMDAT text$x
text$x	SEGMENT
__unwindfunclet$?GetPoints@CTool@@IBE?AVCPoints@@ABVCPoint@@@Z$0:
  00000	8d 4d 90	 lea	 ecx, DWORD PTR _calData$[ebp]
  00003	e9 00 00 00 00	 jmp	 ??1CCoordinateCalculatorData@@QAE@XZ ; CCoordinateCalculatorData::~CCoordinateCalculatorData
  00008	cc		 int	 3
  00009	cc		 int	 3
  0000a	cc		 int	 3
  0000b	cc		 int	 3
  0000c	cc		 int	 3
__ehhandler$?GetPoints@CTool@@IBE?AVCPoints@@ABVCPoint@@@Z:
  0000d	90		 npad	 1
  0000e	90		 npad	 1
  0000f	8b 54 24 08	 mov	 edx, DWORD PTR [esp+8]
  00013	8d 42 0c	 lea	 eax, DWORD PTR [edx+12]
  00016	8b 4a 88	 mov	 ecx, DWORD PTR [edx-120]
  00019	33 c8		 xor	 ecx, eax
  0001b	e8 00 00 00 00	 call	 @__security_check_cookie@4
  00020	8b 4a fc	 mov	 ecx, DWORD PTR [edx-4]
  00023	33 c8		 xor	 ecx, eax
  00025	e8 00 00 00 00	 call	 @__security_check_cookie@4
  0002a	b8 00 00 00 00	 mov	 eax, OFFSET __ehfuncinfo$?GetPoints@CTool@@IBE?AVCPoints@@ABVCPoint@@@Z
  0002f	e9 00 00 00 00	 jmp	 ___CxxFrameHandler3
text$x	ENDS
?GetPoints@CTool@@IBE?AVCPoints@@ABVCPoint@@@Z ENDP	; CTool::GetPoints
; Function compile flags: /Ogtp
; File D:\git\src\IBK\IBK_DRFN\ProjSrc\SrcChartEx\ChartAddIn\ChartAnalysisToolAddIn\AnalysisTool\Tool.cpp
;	COMDAT ?GetPosCoordinate@CTool@@IBE?AVCCoordinate@@ABVCPoint@@@Z
_TEXT	SEGMENT
$T2 = -156						; size = 40
_point$GSCopy$1$ = -116					; size = 4
___$ReturnUdt$GSCopy$ = -116				; size = 4
_calData$ = -112					; size = 96
__$ArrayPad$ = -16					; size = 4
__$EHRec$ = -12						; size = 12
___$ReturnUdt$ = 8					; size = 4
_point$ = 12						; size = 4
?GetPosCoordinate@CTool@@IBE?AVCCoordinate@@ABVCPoint@@@Z PROC ; CTool::GetPosCoordinate, COMDAT
; _this$ = ecx

; 232  : {	

  00000	55		 push	 ebp
  00001	8b ec		 mov	 ebp, esp
  00003	6a ff		 push	 -1
  00005	68 00 00 00 00	 push	 __ehhandler$?GetPosCoordinate@CTool@@IBE?AVCCoordinate@@ABVCPoint@@@Z
  0000a	64 a1 00 00 00
	00		 mov	 eax, DWORD PTR fs:0
  00010	50		 push	 eax
  00011	81 ec 90 00 00
	00		 sub	 esp, 144		; 00000090H
  00017	a1 00 00 00 00	 mov	 eax, DWORD PTR ___security_cookie
  0001c	33 c5		 xor	 eax, ebp
  0001e	89 45 f0	 mov	 DWORD PTR __$ArrayPad$[ebp], eax
  00021	53		 push	 ebx
  00022	56		 push	 esi
  00023	57		 push	 edi
  00024	50		 push	 eax
  00025	8d 45 f4	 lea	 eax, DWORD PTR __$EHRec$[ebp]
  00028	64 a3 00 00 00
	00		 mov	 DWORD PTR fs:0, eax
  0002e	8b f9		 mov	 edi, ecx
  00030	8b 75 08	 mov	 esi, DWORD PTR ___$ReturnUdt$[ebp]

; 173  : 	return m_commonEnvironment.GetDataType().IsRelativePointType();

  00033	8d 4f 28	 lea	 ecx, DWORD PTR [edi+40]

; 232  : {	

  00036	8b 45 0c	 mov	 eax, DWORD PTR _point$[ebp]
  00039	89 75 8c	 mov	 DWORD PTR ___$ReturnUdt$GSCopy$[ebp], esi
  0003c	89 45 8c	 mov	 DWORD PTR _point$GSCopy$1$[ebp], eax

; 173  : 	return m_commonEnvironment.GetDataType().IsRelativePointType();

  0003f	8d 85 64 ff ff
	ff		 lea	 eax, DWORD PTR $T2[ebp]
  00045	50		 push	 eax
  00046	e8 00 00 00 00	 call	 ?GetDataType@CElementCommonEnvironment@@QBE?AVCDataTypeEnvironment@@XZ ; CElementCommonEnvironment::GetDataType
  0004b	8b c8		 mov	 ecx, eax
  0004d	c7 45 fc 00 00
	00 00		 mov	 DWORD PTR __$EHRec$[ebp+8], 0
  00054	e8 00 00 00 00	 call	 ?IsRelativePointType@CDataTypeEnvironment@@QBE_NXZ ; CDataTypeEnvironment::IsRelativePointType
  00059	8d 8d 7c ff ff
	ff		 lea	 ecx, DWORD PTR $T2[ebp+24]
  0005f	c7 45 fc ff ff
	ff ff		 mov	 DWORD PTR __$EHRec$[ebp+8], -1
  00066	8a d8		 mov	 bl, al
  00068	ff 15 00 00 00
	00		 call	 DWORD PTR __imp_??1?$CStringT@DV?$StrTraitMFC_DLL@DV?$ChTraitsCRT@D@ATL@@@@@ATL@@QAE@XZ
  0006e	8d 8d 78 ff ff
	ff		 lea	 ecx, DWORD PTR $T2[ebp+20]
  00074	ff 15 00 00 00
	00		 call	 DWORD PTR __imp_??1?$CStringT@DV?$StrTraitMFC_DLL@DV?$ChTraitsCRT@D@ATL@@@@@ATL@@QAE@XZ
  0007a	8d 8d 74 ff ff
	ff		 lea	 ecx, DWORD PTR $T2[ebp+16]
  00080	ff 15 00 00 00
	00		 call	 DWORD PTR __imp_??1?$CStringT@DV?$StrTraitMFC_DLL@DV?$ChTraitsCRT@D@ATL@@@@@ATL@@QAE@XZ

; 233  : 	if(!IsRelativePointType())

  00086	84 db		 test	 bl, bl
  00088	75 0d		 jne	 SHORT $LN2@GetPosCoor

; 234  : 		return CCoordinate(point);

  0008a	8b 5d 8c	 mov	 ebx, DWORD PTR _point$GSCopy$1$[ebp]
  0008d	8b ce		 mov	 ecx, esi
  0008f	53		 push	 ebx
  00090	e8 00 00 00 00	 call	 ??0CCoordinate@@QAE@ABVCPoint@@@Z ; CCoordinate::CCoordinate
  00095	eb 58		 jmp	 SHORT $LN24@GetPosCoor
$LN2@GetPosCoor:

; 370  : 	if( !m_pAnalysisData) return true;

  00097	8b 4f 08	 mov	 ecx, DWORD PTR [edi+8]
  0009a	85 c9		 test	 ecx, ecx
  0009c	74 21		 je	 SHORT $LN22@GetPosCoor

; 371  : 
; 372  : 	IChartManager *pIChartManager = m_pAnalysisData->GetMainBlock();

  0009e	e8 00 00 00 00	 call	 ?GetMainBlock@CAnalysisData@@QBEPAUIChartManager133101@@XZ ; CAnalysisData::GetMainBlock

; 373  : 	if( !pIChartManager) return true;

  000a3	85 c0		 test	 eax, eax
  000a5	74 18		 je	 SHORT $LN22@GetPosCoor

; 374  : 	pIChartManager->Release();

  000a7	8b 08		 mov	 ecx, DWORD PTR [eax]
  000a9	50		 push	 eax
  000aa	ff 51 08	 call	 DWORD PTR [ecx+8]

; 284  : 	return m_pAnalysisData->GetCoordinateCalculatorData(point);

  000ad	8b 5d 8c	 mov	 ebx, DWORD PTR _point$GSCopy$1$[ebp]
  000b0	8d 45 90	 lea	 eax, DWORD PTR _calData$[ebp]
  000b3	8b 4f 08	 mov	 ecx, DWORD PTR [edi+8]
  000b6	53		 push	 ebx
  000b7	50		 push	 eax
  000b8	e8 00 00 00 00	 call	 ?GetCoordinateCalculatorData@CAnalysisData@@QBE?AVCCoordinateCalculatorData@@ABVCPoint@@@Z ; CAnalysisData::GetCoordinateCalculatorData
  000bd	eb 0d		 jmp	 SHORT $LN13@GetPosCoor
$LN22@GetPosCoor:

; 240  : 
; 241  : CPoints CTool::GetPointsAndSetDataType(const CPoint& point)
; 242  : {
; 243  : 	IChartManager *pIChartManager = NULL;
; 244  : 	if( m_pAnalysisData) pIChartManager = m_pAnalysisData->GetMainBlock();
; 245  : 	CCoordinateCalculatorData calData( pIChartManager);
; 246  : 	pIChartManager->Release();
; 247  : 
; 248  : 	CPoints points = GetPoints(point, calData);
; 249  : 	SetDataTypeEnvironment(calData);
; 250  : 
; 251  : 	return points;
; 252  : }
; 253  : 
; 254  : CPoint CTool::GetDrawingPointAndSetDataType(const CPoint& point)
; 255  : {
; 256  : 	IChartManager *pIChartManager = NULL;
; 257  : 	if( m_pAnalysisData) pIChartManager = m_pAnalysisData->GetMainBlock();
; 258  : 	CCoordinateCalculatorData calData( pIChartManager);
; 259  : 	pIChartManager->Release();
; 260  : 
; 261  : 	CPoint drawingPoint = GetDrawingPoint(point, calData);
; 262  : 	SetDataTypeEnvironment(calData);
; 263  : 
; 264  : 	IPacket *pIPacket = calData.GetPacket_X();
; 265  : 	if( pIPacket) pIPacket->Release();
; 266  : 
; 267  : 	return drawingPoint;
; 268  : }
; 269  : 
; 270  : CPoints CTool::RefreshPointsAndSetDataType(const CPoint& point)
; 271  : {
; 272  : 	CCoordinateCalculatorData calData = GetCoordinateCalculatorData(point);
; 273  : 	CCoordinateCalculator& coordinateCalculator = GetCoordinateCalculator();
; 274  : 	CCoordinate savingPoint = GetCoordinateCalculator().AbsoluteToRelative(calData, point);
; 275  : 	CPoint drawingPoint = GetCoordinateCalculator().RelativeToAbsolute(calData, savingPoint);
; 276  : 	
; 277  : 	return CPoints(savingPoint, drawingPoint);	
; 278  : }
; 279  : 
; 280  : // 좌표 계산을 위한 data.
; 281  : CCoordinateCalculatorData CTool::GetCoordinateCalculatorData(const CPoint& point) const
; 282  : {
; 283  : 	if( IsNullMainBlock()) return CCoordinateCalculatorData( NULL);

  000bf	6a 00		 push	 0
  000c1	8d 4d 90	 lea	 ecx, DWORD PTR _calData$[ebp]
  000c4	e8 00 00 00 00	 call	 ??0CCoordinateCalculatorData@@QAE@PAUIChartManager133101@@@Z ; CCoordinateCalculatorData::CCoordinateCalculatorData
  000c9	8b 5d 8c	 mov	 ebx, DWORD PTR _point$GSCopy$1$[ebp]
$LN13@GetPosCoor:

; 235  : 
; 236  : 	CCoordinateCalculatorData calData = GetCoordinateCalculatorData(point);
; 237  : 	CCoordinateCalculator& coordinateCalculator = GetCoordinateCalculator();

  000cc	8b 07		 mov	 eax, DWORD PTR [edi]
  000ce	8b cf		 mov	 ecx, edi
  000d0	c7 45 fc 01 00
	00 00		 mov	 DWORD PTR __$EHRec$[ebp+8], 1
  000d7	ff 50 18	 call	 DWORD PTR [eax+24]

; 238  : 	return coordinateCalculator.AbsoluteToRelativeAutoPrice(calData, point);

  000da	53		 push	 ebx
  000db	8d 4d 90	 lea	 ecx, DWORD PTR _calData$[ebp]
  000de	51		 push	 ecx
  000df	56		 push	 esi
  000e0	8b c8		 mov	 ecx, eax
  000e2	e8 00 00 00 00	 call	 ?AbsoluteToRelativeAutoPrice@CCoordinateCalculator@@QBE?AVCCoordinate@@ABVCCoordinateCalculatorData@@ABVCPoint@@@Z ; CCoordinateCalculator::AbsoluteToRelativeAutoPrice
  000e7	8d 4d 90	 lea	 ecx, DWORD PTR _calData$[ebp]
  000ea	e8 00 00 00 00	 call	 ??1CCoordinateCalculatorData@@QAE@XZ ; CCoordinateCalculatorData::~CCoordinateCalculatorData
$LN24@GetPosCoor:

; 239  : }

  000ef	8b c6		 mov	 eax, esi
  000f1	8b 4d f4	 mov	 ecx, DWORD PTR __$EHRec$[ebp]
  000f4	64 89 0d 00 00
	00 00		 mov	 DWORD PTR fs:0, ecx
  000fb	59		 pop	 ecx
  000fc	5f		 pop	 edi
  000fd	5e		 pop	 esi
  000fe	5b		 pop	 ebx
  000ff	8b 4d f0	 mov	 ecx, DWORD PTR __$ArrayPad$[ebp]
  00102	33 cd		 xor	 ecx, ebp
  00104	e8 00 00 00 00	 call	 @__security_check_cookie@4
  00109	8b e5		 mov	 esp, ebp
  0010b	5d		 pop	 ebp
  0010c	c2 08 00	 ret	 8
_TEXT	ENDS
;	COMDAT text$x
text$x	SEGMENT
__unwindfunclet$?GetPosCoordinate@CTool@@IBE?AVCCoordinate@@ABVCPoint@@@Z$2:
  00000	8d 8d 64 ff ff
	ff		 lea	 ecx, DWORD PTR $T2[ebp]
  00006	e9 00 00 00 00	 jmp	 ??1CDataTypeEnvironment@@QAE@XZ
__unwindfunclet$?GetPosCoordinate@CTool@@IBE?AVCCoordinate@@ABVCPoint@@@Z$1:
  0000b	8d 4d 90	 lea	 ecx, DWORD PTR _calData$[ebp]
  0000e	e9 00 00 00 00	 jmp	 ??1CCoordinateCalculatorData@@QAE@XZ ; CCoordinateCalculatorData::~CCoordinateCalculatorData
  00013	cc		 int	 3
  00014	cc		 int	 3
  00015	cc		 int	 3
  00016	cc		 int	 3
  00017	cc		 int	 3
__ehhandler$?GetPosCoordinate@CTool@@IBE?AVCCoordinate@@ABVCPoint@@@Z:
  00018	90		 npad	 1
  00019	90		 npad	 1
  0001a	8b 54 24 08	 mov	 edx, DWORD PTR [esp+8]
  0001e	8d 42 0c	 lea	 eax, DWORD PTR [edx+12]
  00021	8b 8a 60 ff ff
	ff		 mov	 ecx, DWORD PTR [edx-160]
  00027	33 c8		 xor	 ecx, eax
  00029	e8 00 00 00 00	 call	 @__security_check_cookie@4
  0002e	8b 4a fc	 mov	 ecx, DWORD PTR [edx-4]
  00031	33 c8		 xor	 ecx, eax
  00033	e8 00 00 00 00	 call	 @__security_check_cookie@4
  00038	b8 00 00 00 00	 mov	 eax, OFFSET __ehfuncinfo$?GetPosCoordinate@CTool@@IBE?AVCCoordinate@@ABVCPoint@@@Z
  0003d	e9 00 00 00 00	 jmp	 ___CxxFrameHandler3
text$x	ENDS
?GetPosCoordinate@CTool@@IBE?AVCCoordinate@@ABVCPoint@@@Z ENDP ; CTool::GetPosCoordinate
; Function compile flags: /Ogtp
; File D:\git\src\IBK\IBK_DRFN\ProjSrc\SrcChartEx\ChartAddIn\ChartAnalysisToolAddIn\AnalysisTool\Tool.cpp
;	COMDAT ?GetVertScaleType@CTool@@IBE?AVCVertScaleType@@ABVCPoint@@@Z
_TEXT	SEGMENT
_bIsLog$ = -8						; size = 1
_bIsInvert$ = -4					; size = 1
___$ReturnUdt$ = 8					; size = 4
_point$ = 12						; size = 4
?GetVertScaleType@CTool@@IBE?AVCVertScaleType@@ABVCPoint@@@Z PROC ; CTool::GetVertScaleType, COMDAT
; _this$ = ecx

; 211  : {

  00000	55		 push	 ebp
  00001	8b ec		 mov	 ebp, esp
  00003	83 ec 08	 sub	 esp, 8
  00006	56		 push	 esi
  00007	8b f1		 mov	 esi, ecx

; 370  : 	if( !m_pAnalysisData) return true;

  00009	8b 4e 08	 mov	 ecx, DWORD PTR [esi+8]
  0000c	85 c9		 test	 ecx, ecx
  0000e	74 42		 je	 SHORT $LN8@GetVertSca

; 371  : 
; 372  : 	IChartManager *pIChartManager = m_pAnalysisData->GetMainBlock();

  00010	e8 00 00 00 00	 call	 ?GetMainBlock@CAnalysisData@@QBEPAUIChartManager133101@@XZ ; CAnalysisData::GetMainBlock

; 373  : 	if( !pIChartManager) return true;

  00015	85 c0		 test	 eax, eax
  00017	74 39		 je	 SHORT $LN8@GetVertSca

; 374  : 	pIChartManager->Release();

  00019	8b 08		 mov	 ecx, DWORD PTR [eax]
  0001b	50		 push	 eax
  0001c	ff 51 08	 call	 DWORD PTR [ecx+8]

; 214  : 
; 215  : 	bool bIsLog = false, bIsInvert = false;
; 216  : 	m_pAnalysisData->GetVertScaleType(point, bIsLog, bIsInvert);

  0001f	8b 4e 08	 mov	 ecx, DWORD PTR [esi+8]
  00022	8d 45 fc	 lea	 eax, DWORD PTR _bIsInvert$[ebp]
  00025	50		 push	 eax
  00026	8d 45 f8	 lea	 eax, DWORD PTR _bIsLog$[ebp]
  00029	c6 45 f8 00	 mov	 BYTE PTR _bIsLog$[ebp], 0
  0002d	50		 push	 eax
  0002e	ff 75 0c	 push	 DWORD PTR _point$[ebp]
  00031	c6 45 fc 00	 mov	 BYTE PTR _bIsInvert$[ebp], 0
  00035	e8 00 00 00 00	 call	 ?GetVertScaleType@CAnalysisData@@QBE_NABVCPoint@@AA_N1@Z ; CAnalysisData::GetVertScaleType

; 217  : 	return CVertScaleType(bIsLog, bIsInvert);

  0003a	ff 75 fc	 push	 DWORD PTR _bIsInvert$[ebp]
  0003d	8b 4d 08	 mov	 ecx, DWORD PTR ___$ReturnUdt$[ebp]
  00040	ff 75 f8	 push	 DWORD PTR _bIsLog$[ebp]
  00043	e8 00 00 00 00	 call	 ??0CVertScaleType@@QAE@_N0@Z ; CVertScaleType::CVertScaleType

; 218  : }

  00048	8b 45 08	 mov	 eax, DWORD PTR ___$ReturnUdt$[ebp]
  0004b	5e		 pop	 esi
  0004c	8b e5		 mov	 esp, ebp
  0004e	5d		 pop	 ebp
  0004f	c2 08 00	 ret	 8
$LN8@GetVertSca:

; 212  : 	if(IsNullMainBlock())
; 213  : 		return CVertScaleType();

  00052	8b 4d 08	 mov	 ecx, DWORD PTR ___$ReturnUdt$[ebp]
  00055	e8 00 00 00 00	 call	 ??0CVertScaleType@@QAE@XZ ; CVertScaleType::CVertScaleType

; 218  : }

  0005a	8b 45 08	 mov	 eax, DWORD PTR ___$ReturnUdt$[ebp]
  0005d	5e		 pop	 esi
  0005e	8b e5		 mov	 esp, ebp
  00060	5d		 pop	 ebp
  00061	c2 08 00	 ret	 8
?GetVertScaleType@CTool@@IBE?AVCVertScaleType@@ABVCPoint@@@Z ENDP ; CTool::GetVertScaleType
_TEXT	ENDS
; Function compile flags: /Ogtp
; File D:\git\src\IBK\IBK_DRFN\ProjSrc\SrcChartEx\ChartAddIn\ChartAnalysisToolAddIn\AnalysisTool\Tool.cpp
;	COMDAT ?GetDisplayAttributes@CTool@@IBE?AVCDisplayAttributes@@XZ
_TEXT	SEGMENT
___$ReturnUdt$ = 8					; size = 4
?GetDisplayAttributes@CTool@@IBE?AVCDisplayAttributes@@XZ PROC ; CTool::GetDisplayAttributes, COMDAT
; _this$ = ecx

; 203  : {

  00000	55		 push	 ebp
  00001	8b ec		 mov	 ebp, esp

; 204  : 	if(m_pAnalysisData == NULL)

  00003	8b 49 08	 mov	 ecx, DWORD PTR [ecx+8]
  00006	56		 push	 esi
  00007	85 c9		 test	 ecx, ecx
  00009	75 10		 jne	 SHORT $LN2@GetDisplay

; 205  : 		return CDisplayAttributes();

  0000b	8b 4d 08	 mov	 ecx, DWORD PTR ___$ReturnUdt$[ebp]
  0000e	e8 00 00 00 00	 call	 ??0CDisplayAttributes@@QAE@XZ ; CDisplayAttributes::CDisplayAttributes
  00013	8b 45 08	 mov	 eax, DWORD PTR ___$ReturnUdt$[ebp]
  00016	5e		 pop	 esi

; 208  : }

  00017	5d		 pop	 ebp
  00018	c2 04 00	 ret	 4
$LN2@GetDisplay:

; 206  : 
; 207  : 	return m_pAnalysisData->GetDisplayAttributes();

  0001b	8b 75 08	 mov	 esi, DWORD PTR ___$ReturnUdt$[ebp]
  0001e	56		 push	 esi
  0001f	e8 00 00 00 00	 call	 ?GetDisplayAttributes@CAnalysisData@@QBE?AVCDisplayAttributes@@XZ ; CAnalysisData::GetDisplayAttributes
  00024	8b c6		 mov	 eax, esi
  00026	5e		 pop	 esi

; 208  : }

  00027	5d		 pop	 ebp
  00028	c2 04 00	 ret	 4
?GetDisplayAttributes@CTool@@IBE?AVCDisplayAttributes@@XZ ENDP ; CTool::GetDisplayAttributes
_TEXT	ENDS
; Function compile flags: /Ogtp
; File D:\git\src\IBK\IBK_DRFN\ProjSrc\SrcChartEx\ChartAddIn\ChartAnalysisToolAddIn\AnalysisTool\Tool.cpp
;	COMDAT ?GetElementCommonEnvironment@CTool@@IBE?AVCElementCommonEnvironment@@XZ
_TEXT	SEGMENT
__$EHRec$ = -12						; size = 12
_this$ = 8						; size = 4
___$ReturnUdt$ = 8					; size = 4
?GetElementCommonEnvironment@CTool@@IBE?AVCElementCommonEnvironment@@XZ PROC ; CTool::GetElementCommonEnvironment, COMDAT
; _this$ = ecx

; 197  : {

  00000	55		 push	 ebp
  00001	8b ec		 mov	 ebp, esp
  00003	6a ff		 push	 -1
  00005	68 00 00 00 00	 push	 __ehhandler$?GetElementCommonEnvironment@CTool@@IBE?AVCElementCommonEnvironment@@XZ
  0000a	64 a1 00 00 00
	00		 mov	 eax, DWORD PTR fs:0
  00010	50		 push	 eax
  00011	53		 push	 ebx
  00012	56		 push	 esi
  00013	57		 push	 edi
  00014	a1 00 00 00 00	 mov	 eax, DWORD PTR ___security_cookie
  00019	33 c5		 xor	 eax, ebp
  0001b	50		 push	 eax
  0001c	8d 45 f4	 lea	 eax, DWORD PTR __$EHRec$[ebp]
  0001f	64 a3 00 00 00
	00		 mov	 DWORD PTR fs:0, eax
  00025	8b d9		 mov	 ebx, ecx

; 198  : 	return m_commonEnvironment;

  00027	8b 7d 08	 mov	 edi, DWORD PTR ___$ReturnUdt$[ebp]
  0002a	8a 43 28	 mov	 al, BYTE PTR [ebx+40]
  0002d	88 07		 mov	 BYTE PTR [edi], al
  0002f	8d 4f 0c	 lea	 ecx, DWORD PTR [edi+12]
  00032	8b 43 2c	 mov	 eax, DWORD PTR [ebx+44]
  00035	89 47 04	 mov	 DWORD PTR [edi+4], eax
  00038	8b 43 30	 mov	 eax, DWORD PTR [ebx+48]
  0003b	89 47 08	 mov	 DWORD PTR [edi+8], eax
  0003e	8d 43 34	 lea	 eax, DWORD PTR [ebx+52]
  00041	50		 push	 eax
  00042	e8 00 00 00 00	 call	 ??0CLineExtEnvironment@@QAE@ABV0@@Z ; CLineExtEnvironment::CLineExtEnvironment
  00047	f3 0f 7e 43 3c	 movq	 xmm0, QWORD PTR [ebx+60]
  0004c	8d 77 20	 lea	 esi, DWORD PTR [edi+32]
  0004f	66 0f d6 47 14	 movq	 QWORD PTR [edi+20], xmm0
  00054	8d 4e 10	 lea	 ecx, DWORD PTR [esi+16]
  00057	8b 43 44	 mov	 eax, DWORD PTR [ebx+68]
  0005a	89 47 1c	 mov	 DWORD PTR [edi+28], eax
  0005d	89 75 08	 mov	 DWORD PTR _this$[ebp], esi
  00060	8b 43 48	 mov	 eax, DWORD PTR [ebx+72]
  00063	89 06		 mov	 DWORD PTR [esi], eax
  00065	8d 43 58	 lea	 eax, DWORD PTR [ebx+88]
  00068	f2 0f 10 43 50	 movsd	 xmm0, QWORD PTR [ebx+80]
  0006d	50		 push	 eax
  0006e	f2 0f 11 46 08	 movsd	 QWORD PTR [esi+8], xmm0
  00073	ff 15 00 00 00
	00		 call	 DWORD PTR __imp_??0?$CStringT@DV?$StrTraitMFC_DLL@DV?$ChTraitsCRT@D@ATL@@@@@ATL@@QAE@ABV01@@Z
  00079	8d 43 5c	 lea	 eax, DWORD PTR [ebx+92]
  0007c	c7 45 fc 00 00
	00 00		 mov	 DWORD PTR __$EHRec$[ebp+8], 0
  00083	50		 push	 eax
  00084	8d 4e 14	 lea	 ecx, DWORD PTR [esi+20]
  00087	ff 15 00 00 00
	00		 call	 DWORD PTR __imp_??0?$CStringT@DV?$StrTraitMFC_DLL@DV?$ChTraitsCRT@D@ATL@@@@@ATL@@QAE@ABV01@@Z
  0008d	8d 4b 60	 lea	 ecx, DWORD PTR [ebx+96]
  00090	c6 45 fc 01	 mov	 BYTE PTR __$EHRec$[ebp+8], 1
  00094	51		 push	 ecx
  00095	8d 4e 18	 lea	 ecx, DWORD PTR [esi+24]
  00098	ff 15 00 00 00
	00		 call	 DWORD PTR __imp_??0?$CStringT@DV?$StrTraitMFC_DLL@DV?$ChTraitsCRT@D@ATL@@@@@ATL@@QAE@ABV01@@Z
  0009e	8b 4b 64	 mov	 ecx, DWORD PTR [ebx+100]
  000a1	8b c7		 mov	 eax, edi
  000a3	89 4e 1c	 mov	 DWORD PTR [esi+28], ecx
  000a6	8b 4b 68	 mov	 ecx, DWORD PTR [ebx+104]
  000a9	89 4e 20	 mov	 DWORD PTR [esi+32], ecx

; 199  : }

  000ac	8b 4d f4	 mov	 ecx, DWORD PTR __$EHRec$[ebp]
  000af	64 89 0d 00 00
	00 00		 mov	 DWORD PTR fs:0, ecx
  000b6	59		 pop	 ecx
  000b7	5f		 pop	 edi
  000b8	5e		 pop	 esi
  000b9	5b		 pop	 ebx
  000ba	8b e5		 mov	 esp, ebp
  000bc	5d		 pop	 ebp
  000bd	c2 04 00	 ret	 4
_TEXT	ENDS
;	COMDAT text$x
text$x	SEGMENT
__unwindfunclet$?GetElementCommonEnvironment@CTool@@IBE?AVCElementCommonEnvironment@@XZ$2:
  00000	8b 4d 08	 mov	 ecx, DWORD PTR _this$[ebp]
  00003	83 c1 10	 add	 ecx, 16			; 00000010H
  00006	ff 25 00 00 00
	00		 jmp	 DWORD PTR __imp_??1?$CStringT@DV?$StrTraitMFC_DLL@DV?$ChTraitsCRT@D@ATL@@@@@ATL@@QAE@XZ
__unwindfunclet$?GetElementCommonEnvironment@CTool@@IBE?AVCElementCommonEnvironment@@XZ$3:
  0000c	8b 4d 08	 mov	 ecx, DWORD PTR _this$[ebp]
  0000f	83 c1 14	 add	 ecx, 20			; 00000014H
  00012	ff 25 00 00 00
	00		 jmp	 DWORD PTR __imp_??1?$CStringT@DV?$StrTraitMFC_DLL@DV?$ChTraitsCRT@D@ATL@@@@@ATL@@QAE@XZ
  00018	cc		 int	 3
  00019	cc		 int	 3
  0001a	cc		 int	 3
  0001b	cc		 int	 3
  0001c	cc		 int	 3
__ehhandler$?GetElementCommonEnvironment@CTool@@IBE?AVCElementCommonEnvironment@@XZ:
  0001d	90		 npad	 1
  0001e	90		 npad	 1
  0001f	8b 54 24 08	 mov	 edx, DWORD PTR [esp+8]
  00023	8d 42 0c	 lea	 eax, DWORD PTR [edx+12]
  00026	8b 4a f0	 mov	 ecx, DWORD PTR [edx-16]
  00029	33 c8		 xor	 ecx, eax
  0002b	e8 00 00 00 00	 call	 @__security_check_cookie@4
  00030	b8 00 00 00 00	 mov	 eax, OFFSET __ehfuncinfo$?GetElementCommonEnvironment@CTool@@IBE?AVCElementCommonEnvironment@@XZ
  00035	e9 00 00 00 00	 jmp	 ___CxxFrameHandler3
text$x	ENDS
?GetElementCommonEnvironment@CTool@@IBE?AVCElementCommonEnvironment@@XZ ENDP ; CTool::GetElementCommonEnvironment
; Function compile flags: /Ogtp
; File D:\git\src\IBK\IBK_DRFN\ProjSrc\SrcChartEx\ChartAddIn\ChartAnalysisToolAddIn\AnalysisTool\Tool.cpp
;	COMDAT ?GetDrawingRegions@CTool@@IAEAAVCDrawingRegions@@XZ
_TEXT	SEGMENT
?GetDrawingRegions@CTool@@IAEAAVCDrawingRegions@@XZ PROC ; CTool::GetDrawingRegions, COMDAT
; _this$ = ecx

; 193  : 	return m_drawingRegions;

  00000	8d 41 10	 lea	 eax, DWORD PTR [ecx+16]

; 194  : }

  00003	c3		 ret	 0
?GetDrawingRegions@CTool@@IAEAAVCDrawingRegions@@XZ ENDP ; CTool::GetDrawingRegions
_TEXT	ENDS
; Function compile flags: /Ogtp
; File D:\git\src\IBK\IBK_DRFN\ProjSrc\SrcChartEx\ChartAddIn\ChartAnalysisToolAddIn\AnalysisTool\Tool.cpp
;	COMDAT ?GetDrawingRegions@CTool@@IBEABVCDrawingRegions@@XZ
_TEXT	SEGMENT
?GetDrawingRegions@CTool@@IBEABVCDrawingRegions@@XZ PROC ; CTool::GetDrawingRegions, COMDAT
; _this$ = ecx

; 188  : 	return m_drawingRegions;

  00000	8d 41 10	 lea	 eax, DWORD PTR [ecx+16]

; 189  : }

  00003	c3		 ret	 0
?GetDrawingRegions@CTool@@IBEABVCDrawingRegions@@XZ ENDP ; CTool::GetDrawingRegions
_TEXT	ENDS
; Function compile flags: /Ogtp
; File D:\git\src\IBK\IBK_DRFN\ProjSrc\SrcChartEx\ChartAddIn\ChartAnalysisToolAddIn\AnalysisTool\Tool.cpp
;	COMDAT ?GetAnalysisData@CTool@@MBEPAVCAnalysisData@@XZ
_TEXT	SEGMENT
?GetAnalysisData@CTool@@MBEPAVCAnalysisData@@XZ PROC	; CTool::GetAnalysisData, COMDAT
; _this$ = ecx

; 183  : 	return m_pAnalysisData;

  00000	8b 41 08	 mov	 eax, DWORD PTR [ecx+8]

; 184  : }

  00003	c3		 ret	 0
?GetAnalysisData@CTool@@MBEPAVCAnalysisData@@XZ ENDP	; CTool::GetAnalysisData
_TEXT	ENDS
; Function compile flags: /Ogtp
; File D:\git\src\IBK\IBK_DRFN\ProjSrc\SrcChartEx\ChartAddIn\ChartAnalysisToolAddIn\AnalysisTool\Tool.cpp
;	COMDAT ?IsAutoPrice@CTool@@IBE_NXZ
_TEXT	SEGMENT
?IsAutoPrice@CTool@@IBE_NXZ PROC			; CTool::IsAutoPrice, COMDAT
; _this$ = ecx

; 178  : 	return m_commonEnvironment.IsAutoPrice();

  00000	83 c1 28	 add	 ecx, 40			; 00000028H
  00003	e9 00 00 00 00	 jmp	 ?IsAutoPrice@CElementCommonEnvironment@@QBE_NXZ ; CElementCommonEnvironment::IsAutoPrice
?IsAutoPrice@CTool@@IBE_NXZ ENDP			; CTool::IsAutoPrice
_TEXT	ENDS
; Function compile flags: /Ogtp
; File D:\git\src\IBK\IBK_DRFN\ProjSrc\SrcChartEx\ChartAddIn\ChartAnalysisToolAddIn\AnalysisTool\Tool.cpp
;	COMDAT ?IsRelativePointType@CTool@@IBE_NXZ
_TEXT	SEGMENT
$T2 = -52						; size = 40
__$EHRec$ = -12						; size = 12
?IsRelativePointType@CTool@@IBE_NXZ PROC		; CTool::IsRelativePointType, COMDAT
; _this$ = ecx

; 172  : {

  00000	55		 push	 ebp
  00001	8b ec		 mov	 ebp, esp
  00003	6a ff		 push	 -1
  00005	68 00 00 00 00	 push	 __ehhandler$?IsRelativePointType@CTool@@IBE_NXZ
  0000a	64 a1 00 00 00
	00		 mov	 eax, DWORD PTR fs:0
  00010	50		 push	 eax
  00011	83 ec 28	 sub	 esp, 40			; 00000028H
  00014	53		 push	 ebx
  00015	a1 00 00 00 00	 mov	 eax, DWORD PTR ___security_cookie
  0001a	33 c5		 xor	 eax, ebp
  0001c	50		 push	 eax
  0001d	8d 45 f4	 lea	 eax, DWORD PTR __$EHRec$[ebp]
  00020	64 a3 00 00 00
	00		 mov	 DWORD PTR fs:0, eax

; 173  : 	return m_commonEnvironment.GetDataType().IsRelativePointType();

  00026	8d 45 cc	 lea	 eax, DWORD PTR $T2[ebp]
  00029	83 c1 28	 add	 ecx, 40			; 00000028H
  0002c	50		 push	 eax
  0002d	e8 00 00 00 00	 call	 ?GetDataType@CElementCommonEnvironment@@QBE?AVCDataTypeEnvironment@@XZ ; CElementCommonEnvironment::GetDataType
  00032	8b c8		 mov	 ecx, eax
  00034	c7 45 fc 00 00
	00 00		 mov	 DWORD PTR __$EHRec$[ebp+8], 0
  0003b	e8 00 00 00 00	 call	 ?IsRelativePointType@CDataTypeEnvironment@@QBE_NXZ ; CDataTypeEnvironment::IsRelativePointType
  00040	8d 4d e4	 lea	 ecx, DWORD PTR $T2[ebp+24]
  00043	8a d8		 mov	 bl, al
  00045	ff 15 00 00 00
	00		 call	 DWORD PTR __imp_??1?$CStringT@DV?$StrTraitMFC_DLL@DV?$ChTraitsCRT@D@ATL@@@@@ATL@@QAE@XZ
  0004b	8d 4d e0	 lea	 ecx, DWORD PTR $T2[ebp+20]
  0004e	ff 15 00 00 00
	00		 call	 DWORD PTR __imp_??1?$CStringT@DV?$StrTraitMFC_DLL@DV?$ChTraitsCRT@D@ATL@@@@@ATL@@QAE@XZ
  00054	8d 4d dc	 lea	 ecx, DWORD PTR $T2[ebp+16]
  00057	ff 15 00 00 00
	00		 call	 DWORD PTR __imp_??1?$CStringT@DV?$StrTraitMFC_DLL@DV?$ChTraitsCRT@D@ATL@@@@@ATL@@QAE@XZ
  0005d	8a c3		 mov	 al, bl

; 174  : }

  0005f	8b 4d f4	 mov	 ecx, DWORD PTR __$EHRec$[ebp]
  00062	64 89 0d 00 00
	00 00		 mov	 DWORD PTR fs:0, ecx
  00069	59		 pop	 ecx
  0006a	5b		 pop	 ebx
  0006b	8b e5		 mov	 esp, ebp
  0006d	5d		 pop	 ebp
  0006e	c3		 ret	 0
_TEXT	ENDS
;	COMDAT text$x
text$x	SEGMENT
__unwindfunclet$?IsRelativePointType@CTool@@IBE_NXZ$0:
  00000	8d 4d cc	 lea	 ecx, DWORD PTR $T2[ebp]
  00003	e9 00 00 00 00	 jmp	 ??1CDataTypeEnvironment@@QAE@XZ
  00008	cc		 int	 3
  00009	cc		 int	 3
  0000a	cc		 int	 3
  0000b	cc		 int	 3
  0000c	cc		 int	 3
__ehhandler$?IsRelativePointType@CTool@@IBE_NXZ:
  0000d	90		 npad	 1
  0000e	90		 npad	 1
  0000f	8b 54 24 08	 mov	 edx, DWORD PTR [esp+8]
  00013	8d 42 0c	 lea	 eax, DWORD PTR [edx+12]
  00016	8b 4a d0	 mov	 ecx, DWORD PTR [edx-48]
  00019	33 c8		 xor	 ecx, eax
  0001b	e8 00 00 00 00	 call	 @__security_check_cookie@4
  00020	b8 00 00 00 00	 mov	 eax, OFFSET __ehfuncinfo$?IsRelativePointType@CTool@@IBE_NXZ
  00025	e9 00 00 00 00	 jmp	 ___CxxFrameHandler3
text$x	ENDS
?IsRelativePointType@CTool@@IBE_NXZ ENDP		; CTool::IsRelativePointType
; Function compile flags: /Ogtp
; File D:\git\src\IBK\IBK_DRFN\ProjSrc\SrcChartEx\ChartAddIn\ChartAnalysisToolAddIn\AnalysisTool\Tool.cpp
;	COMDAT ?MakeElement@CTool@@MAEPAVCElement@@ABVCElementCommonEnvironment@@@Z
_TEXT	SEGMENT
___formal$ = 8						; size = 4
?MakeElement@CTool@@MAEPAVCElement@@ABVCElementCommonEnvironment@@@Z PROC ; CTool::MakeElement, COMDAT
; _this$ = ecx

; 167  : 	return NULL;

  00000	33 c0		 xor	 eax, eax

; 168  : }

  00002	c2 04 00	 ret	 4
?MakeElement@CTool@@MAEPAVCElement@@ABVCElementCommonEnvironment@@@Z ENDP ; CTool::MakeElement
_TEXT	ENDS
; Function compile flags: /Ogtp
; File D:\git\src\IBK\IBK_DRFN\ProjSrc\SrcChartEx\ChartAddIn\ChartAnalysisToolAddIn\AnalysisTool\Tool.cpp
;	COMDAT ?IsMakeElement@CTool@@MBE_NABVCPoint@@@Z
_TEXT	SEGMENT
_point$ = 8						; size = 4
?IsMakeElement@CTool@@MBE_NABVCPoint@@@Z PROC		; CTool::IsMakeElement, COMDAT
; _this$ = ecx

; 161  : {

  00000	55		 push	 ebp
  00001	8b ec		 mov	 ebp, esp

; 162  : 	return PointInDrawingRegion(point);

  00003	8b 01		 mov	 eax, DWORD PTR [ecx]
  00005	8b 40 1c	 mov	 eax, DWORD PTR [eax+28]

; 163  : }

  00008	5d		 pop	 ebp

; 162  : 	return PointInDrawingRegion(point);

  00009	ff e0		 jmp	 eax
?IsMakeElement@CTool@@MBE_NABVCPoint@@@Z ENDP		; CTool::IsMakeElement
_TEXT	ENDS
; Function compile flags: /Ogtp
; File D:\git\src\IBK\IBK_DRFN\ProjSrc\SrcChartEx\ChartAddIn\ChartAnalysisToolAddIn\AnalysisTool\Tool.cpp
;	COMDAT ?GetTextPosition@CTool@@MAEPAVCTextPosition@@XZ
_TEXT	SEGMENT
?GetTextPosition@CTool@@MAEPAVCTextPosition@@XZ PROC	; CTool::GetTextPosition, COMDAT
; _this$ = ecx

; 152  : 	return NULL;

  00000	33 c0		 xor	 eax, eax

; 153  : }

  00002	c3		 ret	 0
?GetTextPosition@CTool@@MAEPAVCTextPosition@@XZ ENDP	; CTool::GetTextPosition
_TEXT	ENDS
; Function compile flags: /Ogtp
; File D:\git\src\IBK\IBK_DRFN\ProjSrc\SrcChartEx\ChartAddIn\ChartAnalysisToolAddIn\AnalysisTool\Tool.cpp
;	COMDAT ?GetTextPosition@CTool@@MBEPBVCTextPosition@@XZ
_TEXT	SEGMENT
?GetTextPosition@CTool@@MBEPBVCTextPosition@@XZ PROC	; CTool::GetTextPosition, COMDAT
; _this$ = ecx

; 147  : 	return NULL;

  00000	33 c0		 xor	 eax, eax

; 148  : }

  00002	c3		 ret	 0
?GetTextPosition@CTool@@MBEPBVCTextPosition@@XZ ENDP	; CTool::GetTextPosition
_TEXT	ENDS
; Function compile flags: /Ogtp
; File D:\git\src\IBK\IBK_DRFN\ProjSrc\SrcChartEx\ChartAddIn\ChartAnalysisToolAddIn\AnalysisTool\Tool.cpp
;	COMDAT ?PointInDrawingRegion@CTool@@MBE_NABVCPoint@@@Z
_TEXT	SEGMENT
_point$ = 8						; size = 4
?PointInDrawingRegion@CTool@@MBE_NABVCPoint@@@Z PROC	; CTool::PointInDrawingRegion, COMDAT
; _this$ = ecx

; 138  : {

  00000	55		 push	 ebp
  00001	8b ec		 mov	 ebp, esp
  00003	56		 push	 esi

; 139  : 	if(GetDrawingRegions().GetCount() <= 0)

  00004	8d 71 10	 lea	 esi, DWORD PTR [ecx+16]
  00007	8b ce		 mov	 ecx, esi
  00009	e8 00 00 00 00	 call	 ?GetCount@CDrawingRegions@@QBEHXZ ; CDrawingRegions::GetCount
  0000e	85 c0		 test	 eax, eax
  00010	7f 07		 jg	 SHORT $LN2@PointInDra

; 140  : 		return false;

  00012	32 c0		 xor	 al, al
  00014	5e		 pop	 esi

; 143  : }

  00015	5d		 pop	 ebp
  00016	c2 04 00	 ret	 4
$LN2@PointInDra:

; 141  : 
; 142  : 	return (GetDrawingRegions().PointInCurrentRegion(point));

  00019	ff 75 08	 push	 DWORD PTR _point$[ebp]
  0001c	8b ce		 mov	 ecx, esi
  0001e	e8 00 00 00 00	 call	 ?PointInCurrentRegion@CDrawingRegions@@QBE_NABVCPoint@@@Z ; CDrawingRegions::PointInCurrentRegion
  00023	5e		 pop	 esi

; 143  : }

  00024	5d		 pop	 ebp
  00025	c2 04 00	 ret	 4
?PointInDrawingRegion@CTool@@MBE_NABVCPoint@@@Z ENDP	; CTool::PointInDrawingRegion
_TEXT	ENDS
; Function compile flags: /Ogtp
; File D:\git\src\IBK\IBK_DRFN\ProjSrc\SrcChartEx\ChartAddIn\ChartAnalysisToolAddIn\AnalysisTool\Tool.cpp
;	COMDAT ?GetCoordinateCalculator@CTool@@UBEAAVCCoordinateCalculator@@XZ
_TEXT	SEGMENT
$T1 = -4						; size = 1
?GetCoordinateCalculator@CTool@@UBEAAVCCoordinateCalculator@@XZ PROC ; CTool::GetCoordinateCalculator, COMDAT
; _this$ = ecx

; 156  : {

  00000	55		 push	 ebp
  00001	8b ec		 mov	 ebp, esp
  00003	51		 push	 ecx

; 178  : 	return m_commonEnvironment.IsAutoPrice();

  00004	83 c1 28	 add	 ecx, 40			; 00000028H
  00007	e8 00 00 00 00	 call	 ?IsAutoPrice@CElementCommonEnvironment@@QBE_NXZ ; CElementCommonEnvironment::IsAutoPrice
  0000c	88 45 fc	 mov	 BYTE PTR $T1[ebp], al

; 157  : 	return CCoordinateCalculatorFinder::FindCoordinateCalculator(IsAutoPrice());

  0000f	ff 75 fc	 push	 DWORD PTR $T1[ebp]
  00012	e8 00 00 00 00	 call	 ?FindCoordinateCalculator@CCoordinateCalculatorFinder@@SAAAVCCoordinateCalculator@@_N@Z ; CCoordinateCalculatorFinder::FindCoordinateCalculator
  00017	83 c4 04	 add	 esp, 4

; 158  : }

  0001a	8b e5		 mov	 esp, ebp
  0001c	5d		 pop	 ebp
  0001d	c3		 ret	 0
?GetCoordinateCalculator@CTool@@UBEAAVCCoordinateCalculator@@XZ ENDP ; CTool::GetCoordinateCalculator
_TEXT	ENDS
; Function compile flags: /Ogtp
; File D:\git\src\IBK\IBK_DRFN\ProjSrc\SrcChartEx\ChartAddIn\ChartAnalysisToolAddIn\AnalysisTool\Tool.cpp
;	COMDAT ?GetCoordinateCalculatorData@CTool@@QBE?AVCCoordinateCalculatorData@@ABVCPoint@@@Z
_TEXT	SEGMENT
___$ReturnUdt$ = 8					; size = 4
_point$ = 12						; size = 4
?GetCoordinateCalculatorData@CTool@@QBE?AVCCoordinateCalculatorData@@ABVCPoint@@@Z PROC ; CTool::GetCoordinateCalculatorData, COMDAT
; _this$ = ecx

; 282  : {

  00000	55		 push	 ebp
  00001	8b ec		 mov	 ebp, esp
  00003	56		 push	 esi
  00004	57		 push	 edi
  00005	8b f9		 mov	 edi, ecx

; 370  : 	if( !m_pAnalysisData) return true;

  00007	8b 4f 08	 mov	 ecx, DWORD PTR [edi+8]
  0000a	85 c9		 test	 ecx, ecx
  0000c	74 26		 je	 SHORT $LN10@GetCoordin

; 371  : 
; 372  : 	IChartManager *pIChartManager = m_pAnalysisData->GetMainBlock();

  0000e	e8 00 00 00 00	 call	 ?GetMainBlock@CAnalysisData@@QBEPAUIChartManager133101@@XZ ; CAnalysisData::GetMainBlock

; 373  : 	if( !pIChartManager) return true;

  00013	85 c0		 test	 eax, eax
  00015	74 1d		 je	 SHORT $LN10@GetCoordin

; 374  : 	pIChartManager->Release();

  00017	8b 08		 mov	 ecx, DWORD PTR [eax]
  00019	50		 push	 eax
  0001a	ff 51 08	 call	 DWORD PTR [ecx+8]

; 284  : 	return m_pAnalysisData->GetCoordinateCalculatorData(point);

  0001d	ff 75 0c	 push	 DWORD PTR _point$[ebp]
  00020	8b 75 08	 mov	 esi, DWORD PTR ___$ReturnUdt$[ebp]
  00023	8b 4f 08	 mov	 ecx, DWORD PTR [edi+8]
  00026	56		 push	 esi
  00027	e8 00 00 00 00	 call	 ?GetCoordinateCalculatorData@CAnalysisData@@QBE?AVCCoordinateCalculatorData@@ABVCPoint@@@Z ; CAnalysisData::GetCoordinateCalculatorData
  0002c	5f		 pop	 edi
  0002d	8b c6		 mov	 eax, esi

; 285  : }

  0002f	5e		 pop	 esi
  00030	5d		 pop	 ebp
  00031	c2 08 00	 ret	 8
$LN10@GetCoordin:

; 283  : 	if( IsNullMainBlock()) return CCoordinateCalculatorData( NULL);

  00034	8b 4d 08	 mov	 ecx, DWORD PTR ___$ReturnUdt$[ebp]
  00037	6a 00		 push	 0
  00039	e8 00 00 00 00	 call	 ??0CCoordinateCalculatorData@@QAE@PAUIChartManager133101@@@Z ; CCoordinateCalculatorData::CCoordinateCalculatorData
  0003e	8b 45 08	 mov	 eax, DWORD PTR ___$ReturnUdt$[ebp]
  00041	5f		 pop	 edi

; 285  : }

  00042	5e		 pop	 esi
  00043	5d		 pop	 ebp
  00044	c2 08 00	 ret	 8
?GetCoordinateCalculatorData@CTool@@QBE?AVCCoordinateCalculatorData@@ABVCPoint@@@Z ENDP ; CTool::GetCoordinateCalculatorData
_TEXT	ENDS
; Function compile flags: /Ogtp
; File D:\git\src\IBK\IBK_DRFN\ProjSrc\SrcChartEx\ChartAddIn\ChartAnalysisToolAddIn\AnalysisTool\Tool.cpp
;	COMDAT ?OnRButtonUp@CTool@@UAEXPAVCDC@@ABVCPoint@@@Z
_TEXT	SEGMENT
_pDC$ = 8						; size = 4
_point$ = 12						; size = 4
?OnRButtonUp@CTool@@UAEXPAVCDC@@ABVCPoint@@@Z PROC	; CTool::OnRButtonUp, COMDAT
; _this$ = ecx

; 133  : 	Initialize();

  00000	8b 01		 mov	 eax, DWORD PTR [ecx]
  00002	ff 10		 call	 DWORD PTR [eax]

; 134  : }

  00004	c2 08 00	 ret	 8
?OnRButtonUp@CTool@@UAEXPAVCDC@@ABVCPoint@@@Z ENDP	; CTool::OnRButtonUp
_TEXT	ENDS
; Function compile flags: /Ogtp
; File D:\git\src\IBK\IBK_DRFN\ProjSrc\SrcChartEx\ChartAddIn\ChartAnalysisToolAddIn\AnalysisTool\Tool.cpp
; File D:\git\src\IBK\IBK_DRFN\ProjSrc\SrcChartEx\ChartAddIn\ChartAnalysisToolAddIn\Include_Chart\BlockBaseData.h
; File D:\git\src\IBK\IBK_DRFN\ProjSrc\SrcChartEx\ChartAddIn\ChartAnalysisToolAddIn\AnalysisTool\Tool.cpp
;	COMDAT ?OnLButtonUp@CTool@@UAEXPAVCDC@@ABVCPoint@@@Z
_TEXT	SEGMENT
_points$2 = -168					; size = 40
$T3 = -128						; size = 8
_blockIndex$4 = -120					; size = 8
_calData$5 = -112					; size = 96
__$ArrayPad$ = -16					; size = 4
__$EHRec$ = -12						; size = 12
_pDC$ = 8						; size = 4
_point$ = 12						; size = 4
?OnLButtonUp@CTool@@UAEXPAVCDC@@ABVCPoint@@@Z PROC	; CTool::OnLButtonUp, COMDAT
; _this$ = ecx

; 120  : {

  00000	55		 push	 ebp
  00001	8b ec		 mov	 ebp, esp
  00003	6a ff		 push	 -1
  00005	68 00 00 00 00	 push	 __ehhandler$?OnLButtonUp@CTool@@UAEXPAVCDC@@ABVCPoint@@@Z
  0000a	64 a1 00 00 00
	00		 mov	 eax, DWORD PTR fs:0
  00010	50		 push	 eax
  00011	81 ec 9c 00 00
	00		 sub	 esp, 156		; 0000009cH
  00017	a1 00 00 00 00	 mov	 eax, DWORD PTR ___security_cookie
  0001c	33 c5		 xor	 eax, ebp
  0001e	89 45 f0	 mov	 DWORD PTR __$ArrayPad$[ebp], eax
  00021	53		 push	 ebx
  00022	56		 push	 esi
  00023	57		 push	 edi
  00024	50		 push	 eax
  00025	8d 45 f4	 lea	 eax, DWORD PTR __$EHRec$[ebp]
  00028	64 a3 00 00 00
	00		 mov	 DWORD PTR fs:0, eax
  0002e	8b f1		 mov	 esi, ecx

; 121  : 	// 그리는 영역안에 있을 경우만 object한다.
; 122  : 	if(IsMakeElement(point)){

  00030	8b 06		 mov	 eax, DWORD PTR [esi]
  00032	8b 5d 0c	 mov	 ebx, DWORD PTR _point$[ebp]
  00035	53		 push	 ebx
  00036	8b 40 30	 mov	 eax, DWORD PTR [eax+48]
  00039	ff d0		 call	 eax
  0003b	84 c0		 test	 al, al
  0003d	0f 84 19 01 00
	00		 je	 $LN28@OnLButtonU

; 224  : 	if( m_pAnalysisData) pIChartManager = m_pAnalysisData->GetMainBlock();

  00043	8b 4e 08	 mov	 ecx, DWORD PTR [esi+8]
  00046	33 ff		 xor	 edi, edi
  00048	85 c9		 test	 ecx, ecx
  0004a	74 07		 je	 SHORT $LN6@OnLButtonU
  0004c	e8 00 00 00 00	 call	 ?GetMainBlock@CAnalysisData@@QBEPAUIChartManager133101@@XZ ; CAnalysisData::GetMainBlock
  00051	8b f8		 mov	 edi, eax
$LN6@OnLButtonU:

; 225  : 	CCoordinateCalculatorData calData( pIChartManager);

  00053	57		 push	 edi
  00054	8d 4d 90	 lea	 ecx, DWORD PTR _calData$5[ebp]
  00057	e8 00 00 00 00	 call	 ??0CCoordinateCalculatorData@@QAE@PAUIChartManager133101@@@Z ; CCoordinateCalculatorData::CCoordinateCalculatorData

; 226  : 	pIChartManager->Release();

  0005c	8b 0f		 mov	 ecx, DWORD PTR [edi]
  0005e	57		 push	 edi
  0005f	c7 45 fc 00 00
	00 00		 mov	 DWORD PTR __$EHRec$[ebp+8], 0
  00066	ff 51 08	 call	 DWORD PTR [ecx+8]

; 227  : 
; 228  : 	return GetPoints(point, calData);

  00069	8d 45 90	 lea	 eax, DWORD PTR _calData$5[ebp]
  0006c	8b ce		 mov	 ecx, esi
  0006e	50		 push	 eax
  0006f	53		 push	 ebx
  00070	8d 85 58 ff ff
	ff		 lea	 eax, DWORD PTR _points$2[ebp]
  00076	50		 push	 eax
  00077	e8 00 00 00 00	 call	 ?GetPoints@CTool@@ABE?AVCPoints@@ABVCPoint@@AAVCCoordinateCalculatorData@@@Z ; CTool::GetPoints
  0007c	8d 4d 90	 lea	 ecx, DWORD PTR _calData$5[ebp]
  0007f	e8 00 00 00 00	 call	 ??1CCoordinateCalculatorData@@QAE@XZ ; CCoordinateCalculatorData::~CCoordinateCalculatorData

; 123  : 		CPoints points = GetPoints(point);
; 124  : 		SavePoints(points);

  00084	8b 06		 mov	 eax, DWORD PTR [esi]
  00086	8d 8d 58 ff ff
	ff		 lea	 ecx, DWORD PTR _points$2[ebp]
  0008c	51		 push	 ecx
  0008d	8b ce		 mov	 ecx, esi
  0008f	c7 45 fc 01 00
	00 00		 mov	 DWORD PTR __$EHRec$[ebp+8], 1
  00096	ff 50 20	 call	 DWORD PTR [eax+32]

; 125  : 		MakeElement(points.GetDrawingPoint());

  00099	8d 45 80	 lea	 eax, DWORD PTR $T3[ebp]
  0009c	50		 push	 eax
  0009d	8d 8d 58 ff ff
	ff		 lea	 ecx, DWORD PTR _points$2[ebp]
  000a3	e8 00 00 00 00	 call	 ?GetDrawingPoint@CPoints@@QBE?AVCPoint@@XZ ; CPoints::GetDrawingPoint

; 370  : 	if( !m_pAnalysisData) return true;

  000a8	8b 4e 08	 mov	 ecx, DWORD PTR [esi+8]

; 125  : 		MakeElement(points.GetDrawingPoint());

  000ab	8b f8		 mov	 edi, eax

; 370  : 	if( !m_pAnalysisData) return true;

  000ad	85 c9		 test	 ecx, ecx
  000af	0f 84 94 00 00
	00		 je	 $LN11@OnLButtonU

; 371  : 
; 372  : 	IChartManager *pIChartManager = m_pAnalysisData->GetMainBlock();

  000b5	e8 00 00 00 00	 call	 ?GetMainBlock@CAnalysisData@@QBEPAUIChartManager133101@@XZ ; CAnalysisData::GetMainBlock

; 373  : 	if( !pIChartManager) return true;

  000ba	85 c0		 test	 eax, eax
  000bc	0f 84 87 00 00
	00		 je	 $LN11@OnLButtonU

; 374  : 	pIChartManager->Release();

  000c2	8b 08		 mov	 ecx, DWORD PTR [eax]
  000c4	50		 push	 eax
  000c5	ff 51 08	 call	 DWORD PTR [ecx+8]

; 349  : 	CBlockIndex blockIndex = m_pAnalysisData->GetBlockIndexInPoint(drawingPoint);

  000c8	8b 4e 08	 mov	 ecx, DWORD PTR [esi+8]
  000cb	8d 45 88	 lea	 eax, DWORD PTR _blockIndex$4[ebp]
  000ce	57		 push	 edi
  000cf	50		 push	 eax
  000d0	e8 00 00 00 00	 call	 ?GetBlockIndexInPoint@CAnalysisData@@QBE?AVCBlockIndex@@ABVCPoint@@@Z ; CAnalysisData::GetBlockIndexInPoint
; File D:\git\src\IBK\IBK_DRFN\ProjSrc\SrcChartEx\ChartAddIn\ChartAnalysisToolAddIn\Include_Chart\BlockBaseData.h

; 32   : 	bool IsAllValueBiggerThanZero() const { return (m_nRow >= 0 && m_nColumn >= 0); };

  000d5	83 7d 88 00	 cmp	 DWORD PTR _blockIndex$4[ebp], 0
  000d9	7c 6e		 jl	 SHORT $LN11@OnLButtonU
  000db	83 7d 8c 00	 cmp	 DWORD PTR _blockIndex$4[ebp+4], 0
  000df	7c 68		 jl	 SHORT $LN11@OnLButtonU
; File D:\git\src\IBK\IBK_DRFN\ProjSrc\SrcChartEx\ChartAddIn\ChartAnalysisToolAddIn\AnalysisTool\Tool.cpp

; 353  : 	CElement *pElement = MakeElement(m_commonEnvironment);

  000e1	8b 16		 mov	 edx, DWORD PTR [esi]
  000e3	8d 46 28	 lea	 eax, DWORD PTR [esi+40]
  000e6	50		 push	 eax
  000e7	8b ce		 mov	 ecx, esi
  000e9	ff 52 34	 call	 DWORD PTR [edx+52]
  000ec	8b f8		 mov	 edi, eax

; 354  : //>> 호가차트시 분석도구 종가따라가기 버그 수정 - vntsorl(20090202)
; 355  : 	if( pElement->GetElementType() != CToolEnumData::Linear_Regression &&

  000ee	8b cf		 mov	 ecx, edi
  000f0	8b 17		 mov	 edx, DWORD PTR [edi]
  000f2	ff 52 04	 call	 DWORD PTR [edx+4]
  000f5	83 f8 1b	 cmp	 eax, 27			; 0000001bH
  000f8	74 1c		 je	 SHORT $LN14@OnLButtonU
  000fa	8b 17		 mov	 edx, DWORD PTR [edi]
  000fc	8b cf		 mov	 ecx, edi
  000fe	ff 52 04	 call	 DWORD PTR [edx+4]
  00101	83 f8 1c	 cmp	 eax, 28			; 0000001cH
  00104	74 10		 je	 SHORT $LN14@OnLButtonU

; 356  : 		pElement->GetElementType() != CToolEnumData::Raff_Regression )
; 357  : 		pElement->GetCommonEnvironment().SetAutoPrice(false);

  00106	6a 00		 push	 0
  00108	8b cf		 mov	 ecx, edi
  0010a	e8 00 00 00 00	 call	 ?GetCommonEnvironment@CElement@@QAEAAVCElementCommonEnvironment@@XZ ; CElement::GetCommonEnvironment
  0010f	8b c8		 mov	 ecx, eax
  00111	e8 00 00 00 00	 call	 ?SetAutoPrice@CElementCommonEnvironment@@QAEX_N@Z ; CElementCommonEnvironment::SetAutoPrice
$LN14@OnLButtonU:

; 358  : //<< 호가차트시 분석도구 종가따라가기 버그 수정 - vntsorl(20090202)
; 359  : 	m_pAnalysisData->RegisterElementToOrderManager((long)pElement);

  00116	8b 4e 08	 mov	 ecx, DWORD PTR [esi+8]
  00119	57		 push	 edi
  0011a	e8 00 00 00 00	 call	 ?RegisterElementToOrderManager@CAnalysisData@@QAEXJ@Z ; CAnalysisData::RegisterElementToOrderManager

; 360  : 	m_pAnalysisData->GetElementTree().Add(blockIndex,pElement);	

  0011f	8b 4e 08	 mov	 ecx, DWORD PTR [esi+8]
  00122	8d 45 88	 lea	 eax, DWORD PTR _blockIndex$4[ebp]
  00125	57		 push	 edi
  00126	50		 push	 eax
  00127	e8 00 00 00 00	 call	 ?GetElementTree@CAnalysisData@@QAEAAVCElementTree@@XZ ; CAnalysisData::GetElementTree
  0012c	8b c8		 mov	 ecx, eax
  0012e	e8 00 00 00 00	 call	 ?Add@CElementTree@@QAEXABVCBlockIndex@@PAVCElement@@@Z ; CElementTree::Add

; 361  : 	
; 362  : 	// Undo / Redo
; 363  : 	m_pAnalysisData->GetUndoRedoManager().RegisterElementToUnRedoManager(URT_NEW_OR_DEL, (long)pElement);

  00133	8b 4e 08	 mov	 ecx, DWORD PTR [esi+8]
  00136	6a 00		 push	 0
  00138	6a 00		 push	 0
  0013a	57		 push	 edi
  0013b	6a 01		 push	 1
  0013d	e8 00 00 00 00	 call	 ?GetUndoRedoManager@CAnalysisData@@QAEAAVCUndoRedoManager@@XZ ; CAnalysisData::GetUndoRedoManager
  00142	8b c8		 mov	 ecx, eax
  00144	e8 00 00 00 00	 call	 ?RegisterElementToUnRedoManager@CUndoRedoManager@@QAEXHJPBD0@Z ; CUndoRedoManager::RegisterElementToUnRedoManager
$LN11@OnLButtonU:
  00149	8d 8d 6c ff ff
	ff		 lea	 ecx, DWORD PTR _points$2[ebp+20]

; 126  : 	}

  0014f	c7 45 fc ff ff
	ff ff		 mov	 DWORD PTR __$EHRec$[ebp+8], -1
  00156	ff 15 00 00 00
	00		 call	 DWORD PTR __imp_??1?$CStringT@DV?$StrTraitMFC_DLL@DV?$ChTraitsCRT@D@ATL@@@@@ATL@@QAE@XZ
$LN28@OnLButtonU:

; 127  : 
; 128  : 	Initialize();

  0015c	8b 06		 mov	 eax, DWORD PTR [esi]
  0015e	8b ce		 mov	 ecx, esi
  00160	ff 10		 call	 DWORD PTR [eax]

; 129  : }

  00162	8b 4d f4	 mov	 ecx, DWORD PTR __$EHRec$[ebp]
  00165	64 89 0d 00 00
	00 00		 mov	 DWORD PTR fs:0, ecx
  0016c	59		 pop	 ecx
  0016d	5f		 pop	 edi
  0016e	5e		 pop	 esi
  0016f	5b		 pop	 ebx
  00170	8b 4d f0	 mov	 ecx, DWORD PTR __$ArrayPad$[ebp]
  00173	33 cd		 xor	 ecx, ebp
  00175	e8 00 00 00 00	 call	 @__security_check_cookie@4
  0017a	8b e5		 mov	 esp, ebp
  0017c	5d		 pop	 ebp
  0017d	c2 08 00	 ret	 8
_TEXT	ENDS
;	COMDAT text$x
text$x	SEGMENT
__unwindfunclet$?OnLButtonUp@CTool@@UAEXPAVCDC@@ABVCPoint@@@Z$1:
  00000	8d 4d 90	 lea	 ecx, DWORD PTR _calData$5[ebp]
  00003	e9 00 00 00 00	 jmp	 ??1CCoordinateCalculatorData@@QAE@XZ ; CCoordinateCalculatorData::~CCoordinateCalculatorData
__unwindfunclet$?OnLButtonUp@CTool@@UAEXPAVCDC@@ABVCPoint@@@Z$0:
  00008	8d 8d 58 ff ff
	ff		 lea	 ecx, DWORD PTR _points$2[ebp]
  0000e	e9 00 00 00 00	 jmp	 ??1CPoints@@QAE@XZ
  00013	cc		 int	 3
  00014	cc		 int	 3
  00015	cc		 int	 3
  00016	cc		 int	 3
  00017	cc		 int	 3
__ehhandler$?OnLButtonUp@CTool@@UAEXPAVCDC@@ABVCPoint@@@Z:
  00018	90		 npad	 1
  00019	90		 npad	 1
  0001a	8b 54 24 08	 mov	 edx, DWORD PTR [esp+8]
  0001e	8d 42 0c	 lea	 eax, DWORD PTR [edx+12]
  00021	8b 8a 54 ff ff
	ff		 mov	 ecx, DWORD PTR [edx-172]
  00027	33 c8		 xor	 ecx, eax
  00029	e8 00 00 00 00	 call	 @__security_check_cookie@4
  0002e	8b 4a fc	 mov	 ecx, DWORD PTR [edx-4]
  00031	33 c8		 xor	 ecx, eax
  00033	e8 00 00 00 00	 call	 @__security_check_cookie@4
  00038	b8 00 00 00 00	 mov	 eax, OFFSET __ehfuncinfo$?OnLButtonUp@CTool@@UAEXPAVCDC@@ABVCPoint@@@Z
  0003d	e9 00 00 00 00	 jmp	 ___CxxFrameHandler3
text$x	ENDS
?OnLButtonUp@CTool@@UAEXPAVCDC@@ABVCPoint@@@Z ENDP	; CTool::OnLButtonUp
; Function compile flags: /Ogtp
; File D:\git\src\IBK\IBK_DRFN\ProjSrc\SrcChartEx\ChartAddIn\ChartAnalysisToolAddIn\AnalysisTool\Tool.cpp
;	COMDAT ?Initialize@CTool@@UAEXXZ
_TEXT	SEGMENT
?Initialize@CTool@@UAEXXZ PROC				; CTool::Initialize, COMDAT
; _this$ = ecx

; 113  : {

  00000	56		 push	 esi
  00001	8b f1		 mov	 esi, ecx

; 304  : 	if(m_pAnalysisData == NULL || m_pAnalysisData->GetParent() == NULL)

  00003	8b 4e 08	 mov	 ecx, DWORD PTR [esi+8]
  00006	85 c9		 test	 ecx, ecx
  00008	74 13		 je	 SHORT $LN9@Initialize
  0000a	e8 00 00 00 00	 call	 ?GetParent@CAnalysisData@@QBEPAVCWnd@@XZ ; CAnalysisData::GetParent
  0000f	85 c0		 test	 eax, eax
  00011	74 0a		 je	 SHORT $LN9@Initialize

; 305  : 		return;
; 306  : 
; 307  : 	switch(type){
; 308  : 	case CToolEnumData::MODIFY_NONE:
; 309  : 		m_pAnalysisData->SendMessageToParent(CCursorShape::OBJECT_NONE);

  00013	8b 4e 08	 mov	 ecx, DWORD PTR [esi+8]
  00016	6a 00		 push	 0
  00018	e8 00 00 00 00	 call	 ?SendMessageToParent@CAnalysisData@@QAEXW4CHARTOBJECT@CCursorShape@@@Z ; CAnalysisData::SendMessageToParent
$LN9@Initialize:

; 114  : 	ChangeCursor(CToolEnumData::MODIFY_NONE);
; 115  : 	m_bProcessStarting = false;

  0001d	c6 46 0c 00	 mov	 BYTE PTR [esi+12], 0

; 116  : 	m_drawingRegions.Initialize();

  00021	8d 4e 10	 lea	 ecx, DWORD PTR [esi+16]
  00024	5e		 pop	 esi
  00025	e9 00 00 00 00	 jmp	 ?Initialize@CDrawingRegions@@QAEXXZ ; CDrawingRegions::Initialize
?Initialize@CTool@@UAEXXZ ENDP				; CTool::Initialize
_TEXT	ENDS
; Function compile flags: /Ogtp
; File D:\git\src\IBK\IBK_DRFN\ProjSrc\SrcChartEx\ChartAddIn\ChartAnalysisToolAddIn\AnalysisTool\Tool.cpp
;	COMDAT ?Invalidate@CTool@@QAEXXZ
_TEXT	SEGMENT
?Invalidate@CTool@@QAEXXZ PROC				; CTool::Invalidate, COMDAT
; _this$ = ecx

; 104  : 	if(m_pAnalysisData == NULL)

  00000	8b 49 08	 mov	 ecx, DWORD PTR [ecx+8]
  00003	85 c9		 test	 ecx, ecx
  00005	0f 85 00 00 00
	00		 jne	 ?Invalidate@CAnalysisData@@QAEXXZ ; CAnalysisData::Invalidate

; 105  : 		return;
; 106  : 
; 107  : 	m_pAnalysisData->Invalidate();
; 108  : }

  0000b	c3		 ret	 0
?Invalidate@CTool@@QAEXXZ ENDP				; CTool::Invalidate
_TEXT	ENDS
; Function compile flags: /Ogtp
; File D:\git\src\IBK\IBK_DRFN\ProjSrc\SrcChartEx\ChartAddIn\ChartAnalysisToolAddIn\AnalysisTool\Tool.cpp
;	COMDAT ?GetElementCommonEnvironment@CTool@@QAEAAVCElementCommonEnvironment@@XZ
_TEXT	SEGMENT
?GetElementCommonEnvironment@CTool@@QAEAAVCElementCommonEnvironment@@XZ PROC ; CTool::GetElementCommonEnvironment, COMDAT
; _this$ = ecx

; 98   : 	return m_commonEnvironment;

  00000	8d 41 28	 lea	 eax, DWORD PTR [ecx+40]

; 99   : }

  00003	c3		 ret	 0
?GetElementCommonEnvironment@CTool@@QAEAAVCElementCommonEnvironment@@XZ ENDP ; CTool::GetElementCommonEnvironment
_TEXT	ENDS
; Function compile flags: /Ogtp
; File D:\git\src\IBK\IBK_DRFN\ProjSrc\SrcChartEx\ChartAddIn\ChartAnalysisToolAddIn\AnalysisTool\Tool.cpp
;	COMDAT ?DoesElements@CTool@@QBE_NXZ
_TEXT	SEGMENT
?DoesElements@CTool@@QBE_NXZ PROC			; CTool::DoesElements, COMDAT
; _this$ = ecx

; 90   : 	if(m_pAnalysisData == NULL)

  00000	8b 49 08	 mov	 ecx, DWORD PTR [ecx+8]
  00003	85 c9		 test	 ecx, ecx
  00005	75 03		 jne	 SHORT $LN2@DoesElemen

; 91   : 		return false;

  00007	32 c0		 xor	 al, al

; 94   : }

  00009	c3		 ret	 0
$LN2@DoesElemen:

; 92   : 
; 93   : 	return (m_pAnalysisData->GetElementTree().GetElementCount() > 0);

  0000a	e8 00 00 00 00	 call	 ?GetElementTree@CAnalysisData@@QAEAAVCElementTree@@XZ ; CAnalysisData::GetElementTree
  0000f	8b c8		 mov	 ecx, eax
  00011	e8 00 00 00 00	 call	 ?GetElementCount@CElementTree@@QBEHXZ ; CElementTree::GetElementCount
  00016	85 c0		 test	 eax, eax
  00018	0f 9f c0	 setg	 al

; 94   : }

  0001b	c3		 ret	 0
?DoesElements@CTool@@QBE_NXZ ENDP			; CTool::DoesElements
_TEXT	ENDS
; Function compile flags: /Ogtp
; File D:\git\src\IBK\IBK_DRFN\ProjSrc\SrcChartEx\ChartAddIn\ChartAnalysisToolAddIn\AnalysisTool\Tool.cpp
;	COMDAT ?DoesProcessStarting@CTool@@QBE_NXZ
_TEXT	SEGMENT
?DoesProcessStarting@CTool@@QBE_NXZ PROC		; CTool::DoesProcessStarting, COMDAT
; _this$ = ecx

; 85   : 	return m_bProcessStarting;

  00000	8a 41 0c	 mov	 al, BYTE PTR [ecx+12]

; 86   : }

  00003	c3		 ret	 0
?DoesProcessStarting@CTool@@QBE_NXZ ENDP		; CTool::DoesProcessStarting
_TEXT	ENDS
; Function compile flags: /Ogtp
; File D:\git\src\IBK\IBK_DRFN\ProjSrc\SrcChartEx\ChartAddIn\ChartAnalysisToolAddIn\AnalysisTool\Tool.cpp
;	COMDAT ?SetLineExt@CTool@@QAEXABH0@Z
_TEXT	SEGMENT
_nLeft$ = 8						; size = 4
_nRight$ = 12						; size = 4
?SetLineExt@CTool@@QAEXABH0@Z PROC			; CTool::SetLineExt, COMDAT
; _this$ = ecx

; 78   : {

  00000	55		 push	 ebp
  00001	8b ec		 mov	 ebp, esp

; 79   : 	m_commonEnvironment.SetLineExt(nLeft,nRight);

  00003	8b 45 0c	 mov	 eax, DWORD PTR _nRight$[ebp]
  00006	83 c1 28	 add	 ecx, 40			; 00000028H
  00009	ff 30		 push	 DWORD PTR [eax]
  0000b	8b 45 08	 mov	 eax, DWORD PTR _nLeft$[ebp]
  0000e	ff 30		 push	 DWORD PTR [eax]
  00010	e8 00 00 00 00	 call	 ?SetLineExt@CElementCommonEnvironment@@QAEXHH@Z ; CElementCommonEnvironment::SetLineExt

; 80   : }

  00015	5d		 pop	 ebp
  00016	c2 08 00	 ret	 8
?SetLineExt@CTool@@QAEXABH0@Z ENDP			; CTool::SetLineExt
_TEXT	ENDS
; Function compile flags: /Ogtp
; File D:\git\src\IBK\IBK_DRFN\ProjSrc\SrcChartEx\ChartAddIn\ChartAnalysisToolAddIn\AnalysisTool\Tool.cpp
;	COMDAT ?SetTextColor@CTool@@QAEXABK@Z
_TEXT	SEGMENT
_color$ = 8						; size = 4
?SetTextColor@CTool@@QAEXABK@Z PROC			; CTool::SetTextColor, COMDAT
; _this$ = ecx

; 69   : {

  00000	55		 push	 ebp
  00001	8b ec		 mov	 ebp, esp

; 70   : 	CTextPosition* pTextPosition = GetTextPosition();

  00003	8b 01		 mov	 eax, DWORD PTR [ecx]
  00005	ff 50 28	 call	 DWORD PTR [eax+40]

; 71   : 	if(pTextPosition == NULL)

  00008	85 c0		 test	 eax, eax
  0000a	74 11		 je	 SHORT $LN1@SetTextCol

; 72   : 		return;
; 73   : 
; 74   : 	pTextPosition->GetTextEnvironment().SetColor(color);

  0000c	ff 75 08	 push	 DWORD PTR _color$[ebp]
  0000f	8b c8		 mov	 ecx, eax
  00011	e8 00 00 00 00	 call	 ?GetTextEnvironment@CTextPosition@@QAEAAVCTextEnvironment@@XZ ; CTextPosition::GetTextEnvironment
  00016	8b c8		 mov	 ecx, eax
  00018	e8 00 00 00 00	 call	 ?SetColor@CTextEnvironment@@QAEXABK@Z ; CTextEnvironment::SetColor
$LN1@SetTextCol:

; 75   : }

  0001d	5d		 pop	 ebp
  0001e	c2 04 00	 ret	 4
?SetTextColor@CTool@@QAEXABK@Z ENDP			; CTool::SetTextColor
_TEXT	ENDS
; Function compile flags: /Ogtp
; File D:\git\src\IBK\IBK_DRFN\ProjSrc\SrcChartEx\ChartAddIn\ChartAnalysisToolAddIn\AnalysisTool\Tool.cpp
;	COMDAT ?SetPenColor@CTool@@QAEXABK@Z
_TEXT	SEGMENT
_color$ = 8						; size = 4
?SetPenColor@CTool@@QAEXABK@Z PROC			; CTool::SetPenColor, COMDAT
; _this$ = ecx

; 64   : {

  00000	55		 push	 ebp
  00001	8b ec		 mov	 ebp, esp

; 65   : 	m_commonEnvironment.GetPen().SetColor(color);

  00003	ff 75 08	 push	 DWORD PTR _color$[ebp]
  00006	83 c1 28	 add	 ecx, 40			; 00000028H
  00009	e8 00 00 00 00	 call	 ?GetPen@CElementCommonEnvironment@@QAEAAVCPenEnvironment@@XZ ; CElementCommonEnvironment::GetPen
  0000e	8b c8		 mov	 ecx, eax
  00010	e8 00 00 00 00	 call	 ?SetColor@CPenEnvironment@@QAEXABK@Z ; CPenEnvironment::SetColor

; 66   : }

  00015	5d		 pop	 ebp
  00016	c2 04 00	 ret	 4
?SetPenColor@CTool@@QAEXABK@Z ENDP			; CTool::SetPenColor
_TEXT	ENDS
; Function compile flags: /Ogtp
; File D:\git\src\IBK\IBK_DRFN\ProjSrc\SrcChartEx\ChartAddIn\ChartAnalysisToolAddIn\AnalysisTool\Tool.cpp
;	COMDAT ?SetAutoPrice@CTool@@QAEX_N@Z
_TEXT	SEGMENT
_bIsAutoPrice$ = 8					; size = 1
?SetAutoPrice@CTool@@QAEX_N@Z PROC			; CTool::SetAutoPrice, COMDAT
; _this$ = ecx

; 59   : {

  00000	55		 push	 ebp
  00001	8b ec		 mov	 ebp, esp

; 60   : 	m_commonEnvironment.SetAutoPrice(bIsAutoPrice);

  00003	83 c1 28	 add	 ecx, 40			; 00000028H

; 61   : }

  00006	5d		 pop	 ebp

; 60   : 	m_commonEnvironment.SetAutoPrice(bIsAutoPrice);

  00007	e9 00 00 00 00	 jmp	 ?SetAutoPrice@CElementCommonEnvironment@@QAEX_N@Z ; CElementCommonEnvironment::SetAutoPrice
?SetAutoPrice@CTool@@QAEX_N@Z ENDP			; CTool::SetAutoPrice
_TEXT	ENDS
; Function compile flags: /Ogtp
; File D:\git\src\IBK\IBK_DRFN\ProjSrc\SrcChartEx\ChartAddIn\ChartAnalysisToolAddIn\AnalysisTool\Tool.cpp
;	COMDAT ?SetProcessStarting@CTool@@QAEX_N@Z
_TEXT	SEGMENT
_bStarting$ = 8						; size = 1
?SetProcessStarting@CTool@@QAEX_N@Z PROC		; CTool::SetProcessStarting, COMDAT
; _this$ = ecx

; 54   : {

  00000	55		 push	 ebp
  00001	8b ec		 mov	 ebp, esp

; 55   : 	m_bProcessStarting = bStarting;

  00003	8a 45 08	 mov	 al, BYTE PTR _bStarting$[ebp]
  00006	88 41 0c	 mov	 BYTE PTR [ecx+12], al

; 56   : }

  00009	5d		 pop	 ebp
  0000a	c2 04 00	 ret	 4
?SetProcessStarting@CTool@@QAEX_N@Z ENDP		; CTool::SetProcessStarting
_TEXT	ENDS
; Function compile flags: /Ogtp
; File D:\git\src\IBK\IBK_DRFN\ProjSrc\SrcChartEx\ChartAddIn\ChartAnalysisToolAddIn\AnalysisTool\Tool.cpp
;	COMDAT ?SetCoordinateType@CTool@@QAEXW4COORDINATETYPE@CAnalysis@@@Z
_TEXT	SEGMENT
$T2 = -52						; size = 40
__$EHRec$ = -12						; size = 12
_eCoordinateType$ = 8					; size = 4
?SetCoordinateType@CTool@@QAEXW4COORDINATETYPE@CAnalysis@@@Z PROC ; CTool::SetCoordinateType, COMDAT
; _this$ = ecx

; 47   : {

  00000	55		 push	 ebp
  00001	8b ec		 mov	 ebp, esp
  00003	6a ff		 push	 -1
  00005	68 00 00 00 00	 push	 __ehhandler$?SetCoordinateType@CTool@@QAEXW4COORDINATETYPE@CAnalysis@@@Z
  0000a	64 a1 00 00 00
	00		 mov	 eax, DWORD PTR fs:0
  00010	50		 push	 eax
  00011	83 ec 28	 sub	 esp, 40			; 00000028H
  00014	53		 push	 ebx
  00015	56		 push	 esi
  00016	a1 00 00 00 00	 mov	 eax, DWORD PTR ___security_cookie
  0001b	33 c5		 xor	 eax, ebp
  0001d	50		 push	 eax
  0001e	8d 45 f4	 lea	 eax, DWORD PTR __$EHRec$[ebp]
  00021	64 a3 00 00 00
	00		 mov	 DWORD PTR fs:0, eax

; 48   : 	m_commonEnvironment.GetDataType().SetCoordinateType(eCoordinateType);

  00027	ff 75 08	 push	 DWORD PTR _eCoordinateType$[ebp]
  0002a	8d 71 28	 lea	 esi, DWORD PTR [ecx+40]
  0002d	8b ce		 mov	 ecx, esi
  0002f	e8 00 00 00 00	 call	 ?GetDataType@CElementCommonEnvironment@@QAEAAVCDataTypeEnvironment@@XZ ; CElementCommonEnvironment::GetDataType
  00034	8b c8		 mov	 ecx, eax
  00036	e8 00 00 00 00	 call	 ?SetCoordinateType@CDataTypeEnvironment@@QAEXW4COORDINATETYPE@CAnalysis@@@Z ; CDataTypeEnvironment::SetCoordinateType

; 173  : 	return m_commonEnvironment.GetDataType().IsRelativePointType();

  0003b	8d 45 cc	 lea	 eax, DWORD PTR $T2[ebp]
  0003e	8b ce		 mov	 ecx, esi
  00040	50		 push	 eax
  00041	e8 00 00 00 00	 call	 ?GetDataType@CElementCommonEnvironment@@QBE?AVCDataTypeEnvironment@@XZ ; CElementCommonEnvironment::GetDataType
  00046	8b c8		 mov	 ecx, eax
  00048	c7 45 fc 00 00
	00 00		 mov	 DWORD PTR __$EHRec$[ebp+8], 0
  0004f	e8 00 00 00 00	 call	 ?IsRelativePointType@CDataTypeEnvironment@@QBE_NXZ ; CDataTypeEnvironment::IsRelativePointType
  00054	8d 4d e4	 lea	 ecx, DWORD PTR $T2[ebp+24]
  00057	c7 45 fc ff ff
	ff ff		 mov	 DWORD PTR __$EHRec$[ebp+8], -1
  0005e	8a d8		 mov	 bl, al
  00060	ff 15 00 00 00
	00		 call	 DWORD PTR __imp_??1?$CStringT@DV?$StrTraitMFC_DLL@DV?$ChTraitsCRT@D@ATL@@@@@ATL@@QAE@XZ
  00066	8d 4d e0	 lea	 ecx, DWORD PTR $T2[ebp+20]
  00069	ff 15 00 00 00
	00		 call	 DWORD PTR __imp_??1?$CStringT@DV?$StrTraitMFC_DLL@DV?$ChTraitsCRT@D@ATL@@@@@ATL@@QAE@XZ
  0006f	8d 4d dc	 lea	 ecx, DWORD PTR $T2[ebp+16]
  00072	ff 15 00 00 00
	00		 call	 DWORD PTR __imp_??1?$CStringT@DV?$StrTraitMFC_DLL@DV?$ChTraitsCRT@D@ATL@@@@@ATL@@QAE@XZ

; 49   : 	if(!IsRelativePointType())

  00078	84 db		 test	 bl, bl
  0007a	75 0e		 jne	 SHORT $LN2@SetCoordin

; 50   : 		m_commonEnvironment.GetDataType().Reset_AbsolutePoint();

  0007c	8b ce		 mov	 ecx, esi
  0007e	e8 00 00 00 00	 call	 ?GetDataType@CElementCommonEnvironment@@QAEAAVCDataTypeEnvironment@@XZ ; CElementCommonEnvironment::GetDataType
  00083	8b c8		 mov	 ecx, eax
  00085	e8 00 00 00 00	 call	 ?Reset_AbsolutePoint@CDataTypeEnvironment@@QAEXXZ ; CDataTypeEnvironment::Reset_AbsolutePoint
$LN2@SetCoordin:

; 51   : }

  0008a	8b 4d f4	 mov	 ecx, DWORD PTR __$EHRec$[ebp]
  0008d	64 89 0d 00 00
	00 00		 mov	 DWORD PTR fs:0, ecx
  00094	59		 pop	 ecx
  00095	5e		 pop	 esi
  00096	5b		 pop	 ebx
  00097	8b e5		 mov	 esp, ebp
  00099	5d		 pop	 ebp
  0009a	c2 04 00	 ret	 4
_TEXT	ENDS
;	COMDAT text$x
text$x	SEGMENT
__unwindfunclet$?SetCoordinateType@CTool@@QAEXW4COORDINATETYPE@CAnalysis@@@Z$0:
  00000	8d 4d cc	 lea	 ecx, DWORD PTR $T2[ebp]
  00003	e9 00 00 00 00	 jmp	 ??1CDataTypeEnvironment@@QAE@XZ
  00008	cc		 int	 3
  00009	cc		 int	 3
  0000a	cc		 int	 3
  0000b	cc		 int	 3
  0000c	cc		 int	 3
__ehhandler$?SetCoordinateType@CTool@@QAEXW4COORDINATETYPE@CAnalysis@@@Z:
  0000d	90		 npad	 1
  0000e	90		 npad	 1
  0000f	8b 54 24 08	 mov	 edx, DWORD PTR [esp+8]
  00013	8d 42 0c	 lea	 eax, DWORD PTR [edx+12]
  00016	8b 4a cc	 mov	 ecx, DWORD PTR [edx-52]
  00019	33 c8		 xor	 ecx, eax
  0001b	e8 00 00 00 00	 call	 @__security_check_cookie@4
  00020	b8 00 00 00 00	 mov	 eax, OFFSET __ehfuncinfo$?SetCoordinateType@CTool@@QAEXW4COORDINATETYPE@CAnalysis@@@Z
  00025	e9 00 00 00 00	 jmp	 ___CxxFrameHandler3
text$x	ENDS
?SetCoordinateType@CTool@@QAEXW4COORDINATETYPE@CAnalysis@@@Z ENDP ; CTool::SetCoordinateType
; Function compile flags: /Ogtp
; File D:\git\src\IBK\IBK_DRFN\ProjSrc\SrcChartEx\ChartAddIn\ChartAnalysisToolAddIn\AnalysisTool\Tool.cpp
;	COMDAT ?SetAnalysisData@CTool@@QAEXPAVCAnalysisData@@@Z
_TEXT	SEGMENT
_pAnalysisData$ = 8					; size = 4
?SetAnalysisData@CTool@@QAEXPAVCAnalysisData@@@Z PROC	; CTool::SetAnalysisData, COMDAT
; _this$ = ecx

; 42   : {

  00000	55		 push	 ebp
  00001	8b ec		 mov	 ebp, esp

; 43   : 	m_pAnalysisData = pAnalysisData;

  00003	8b 45 08	 mov	 eax, DWORD PTR _pAnalysisData$[ebp]
  00006	89 41 08	 mov	 DWORD PTR [ecx+8], eax

; 44   : }

  00009	5d		 pop	 ebp
  0000a	c2 04 00	 ret	 4
?SetAnalysisData@CTool@@QAEXPAVCAnalysisData@@@Z ENDP	; CTool::SetAnalysisData
_TEXT	ENDS
; Function compile flags: /Ogtp
; File D:\git\src\IBK\IBK_DRFN\ProjSrc\SrcChartEx\ChartAddIn\ChartAnalysisToolAddIn\AnalysisTool\Tool.cpp
;	COMDAT ??0CTool@@IAE@PAVCAnalysisData@@W4COORDINATETYPE@CAnalysis@@@Z
_TEXT	SEGMENT
$T2 = -56						; size = 40
_this$ = -16						; size = 4
__$EHRec$ = -12						; size = 12
_pAnalysisData$ = 8					; size = 4
_eCoordinateType$ = 12					; size = 4
??0CTool@@IAE@PAVCAnalysisData@@W4COORDINATETYPE@CAnalysis@@@Z PROC ; CTool::CTool, COMDAT
; _this$ = ecx

; 29   : {

  00000	55		 push	 ebp
  00001	8b ec		 mov	 ebp, esp
  00003	6a ff		 push	 -1
  00005	68 00 00 00 00	 push	 __ehhandler$??0CTool@@IAE@PAVCAnalysisData@@W4COORDINATETYPE@CAnalysis@@@Z
  0000a	64 a1 00 00 00
	00		 mov	 eax, DWORD PTR fs:0
  00010	50		 push	 eax
  00011	83 ec 2c	 sub	 esp, 44			; 0000002cH
  00014	53		 push	 ebx
  00015	56		 push	 esi
  00016	57		 push	 edi
  00017	a1 00 00 00 00	 mov	 eax, DWORD PTR ___security_cookie
  0001c	33 c5		 xor	 eax, ebp
  0001e	50		 push	 eax
  0001f	8d 45 f4	 lea	 eax, DWORD PTR __$EHRec$[ebp]
  00022	64 a3 00 00 00
	00		 mov	 DWORD PTR fs:0, eax
  00028	8b f1		 mov	 esi, ecx
  0002a	89 75 f0	 mov	 DWORD PTR _this$[ebp], esi

; 27   : 	m_pAnalysisData(pAnalysisData),

  0002d	8b 45 08	 mov	 eax, DWORD PTR _pAnalysisData$[ebp]

; 29   : {

  00030	8d 4e 10	 lea	 ecx, DWORD PTR [esi+16]
  00033	c7 06 00 00 00
	00		 mov	 DWORD PTR [esi], OFFSET ??_7CTool@@6B@
  00039	89 46 08	 mov	 DWORD PTR [esi+8], eax
  0003c	c6 46 0c 00	 mov	 BYTE PTR [esi+12], 0
  00040	e8 00 00 00 00	 call	 ??0CDrawingRegions@@QAE@XZ ; CDrawingRegions::CDrawingRegions
  00045	8d 4e 28	 lea	 ecx, DWORD PTR [esi+40]
  00048	c7 45 fc 00 00
	00 00		 mov	 DWORD PTR __$EHRec$[ebp+8], 0
  0004f	e8 00 00 00 00	 call	 ??0CElementCommonEnvironment@@QAE@XZ ; CElementCommonEnvironment::CElementCommonEnvironment

; 30   : 	IChartOCX* pIChartOCX = NULL;
; 31   : 	if(m_pAnalysisData)

  00054	8b 4e 08	 mov	 ecx, DWORD PTR [esi+8]
  00057	c6 45 fc 01	 mov	 BYTE PTR __$EHRec$[ebp+8], 1
  0005b	85 c9		 test	 ecx, ecx
  0005d	74 12		 je	 SHORT $LN32@CTool

; 32   : 	{
; 33   : 		pIChartOCX = m_pAnalysisData->GetChartOCX();

  0005f	e8 00 00 00 00	 call	 ?GetChartOCX@CAnalysisData@@QBEPAUIChartOCX133101@@XZ ; CAnalysisData::GetChartOCX

; 34   : 	}
; 35   : 	SetOcxHwnd(pIChartOCX ? pIChartOCX->GetOcxHwnd() : NULL);

  00064	85 c0		 test	 eax, eax
  00066	74 09		 je	 SHORT $LN32@CTool
  00068	8b 10		 mov	 edx, DWORD PTR [eax]
  0006a	8b c8		 mov	 ecx, eax
  0006c	ff 52 40	 call	 DWORD PTR [edx+64]
  0006f	eb 02		 jmp	 SHORT $LN5@CTool
$LN32@CTool:
  00071	33 c0		 xor	 eax, eax
$LN5@CTool:

; 304  : 	if(m_pAnalysisData == NULL || m_pAnalysisData->GetParent() == NULL)

  00073	8b 4e 08	 mov	 ecx, DWORD PTR [esi+8]

; 34   : 	}
; 35   : 	SetOcxHwnd(pIChartOCX ? pIChartOCX->GetOcxHwnd() : NULL);

  00076	89 46 70	 mov	 DWORD PTR [esi+112], eax

; 304  : 	if(m_pAnalysisData == NULL || m_pAnalysisData->GetParent() == NULL)

  00079	85 c9		 test	 ecx, ecx
  0007b	74 13		 je	 SHORT $LN16@CTool
  0007d	e8 00 00 00 00	 call	 ?GetParent@CAnalysisData@@QBEPAVCWnd@@XZ ; CAnalysisData::GetParent
  00082	85 c0		 test	 eax, eax
  00084	74 0a		 je	 SHORT $LN16@CTool

; 305  : 		return;
; 306  : 
; 307  : 	switch(type){
; 308  : 	case CToolEnumData::MODIFY_NONE:
; 309  : 		m_pAnalysisData->SendMessageToParent(CCursorShape::OBJECT_NONE);

  00086	8b 4e 08	 mov	 ecx, DWORD PTR [esi+8]
  00089	6a 00		 push	 0
  0008b	e8 00 00 00 00	 call	 ?SendMessageToParent@CAnalysisData@@QAEXW4CHARTOBJECT@CCursorShape@@@Z ; CAnalysisData::SendMessageToParent
$LN16@CTool:

; 116  : 	m_drawingRegions.Initialize();

  00090	8d 4e 10	 lea	 ecx, DWORD PTR [esi+16]
  00093	c6 46 0c 00	 mov	 BYTE PTR [esi+12], 0
  00097	e8 00 00 00 00	 call	 ?Initialize@CDrawingRegions@@QAEXXZ ; CDrawingRegions::Initialize

; 48   : 	m_commonEnvironment.GetDataType().SetCoordinateType(eCoordinateType);

  0009c	ff 75 0c	 push	 DWORD PTR _eCoordinateType$[ebp]
  0009f	8d 4e 28	 lea	 ecx, DWORD PTR [esi+40]
  000a2	e8 00 00 00 00	 call	 ?GetDataType@CElementCommonEnvironment@@QAEAAVCDataTypeEnvironment@@XZ ; CElementCommonEnvironment::GetDataType
  000a7	8b c8		 mov	 ecx, eax
  000a9	e8 00 00 00 00	 call	 ?SetCoordinateType@CDataTypeEnvironment@@QAEXW4COORDINATETYPE@CAnalysis@@@Z ; CDataTypeEnvironment::SetCoordinateType

; 173  : 	return m_commonEnvironment.GetDataType().IsRelativePointType();

  000ae	8d 45 c8	 lea	 eax, DWORD PTR $T2[ebp]
  000b1	50		 push	 eax
  000b2	8d 4e 28	 lea	 ecx, DWORD PTR [esi+40]
  000b5	e8 00 00 00 00	 call	 ?GetDataType@CElementCommonEnvironment@@QBE?AVCDataTypeEnvironment@@XZ ; CElementCommonEnvironment::GetDataType
  000ba	8b c8		 mov	 ecx, eax
  000bc	c6 45 fc 02	 mov	 BYTE PTR __$EHRec$[ebp+8], 2
  000c0	e8 00 00 00 00	 call	 ?IsRelativePointType@CDataTypeEnvironment@@QBE_NXZ ; CDataTypeEnvironment::IsRelativePointType
  000c5	8d 4d e0	 lea	 ecx, DWORD PTR $T2[ebp+24]
  000c8	c6 45 fc 01	 mov	 BYTE PTR __$EHRec$[ebp+8], 1
  000cc	8a d8		 mov	 bl, al
  000ce	ff 15 00 00 00
	00		 call	 DWORD PTR __imp_??1?$CStringT@DV?$StrTraitMFC_DLL@DV?$ChTraitsCRT@D@ATL@@@@@ATL@@QAE@XZ
  000d4	8d 4d dc	 lea	 ecx, DWORD PTR $T2[ebp+20]
  000d7	ff 15 00 00 00
	00		 call	 DWORD PTR __imp_??1?$CStringT@DV?$StrTraitMFC_DLL@DV?$ChTraitsCRT@D@ATL@@@@@ATL@@QAE@XZ
  000dd	8d 4d d8	 lea	 ecx, DWORD PTR $T2[ebp+16]
  000e0	ff 15 00 00 00
	00		 call	 DWORD PTR __imp_??1?$CStringT@DV?$StrTraitMFC_DLL@DV?$ChTraitsCRT@D@ATL@@@@@ATL@@QAE@XZ

; 49   : 	if(!IsRelativePointType())

  000e6	84 db		 test	 bl, bl
  000e8	75 0f		 jne	 SHORT $LN33@CTool

; 50   : 		m_commonEnvironment.GetDataType().Reset_AbsolutePoint();

  000ea	8d 4e 28	 lea	 ecx, DWORD PTR [esi+40]
  000ed	e8 00 00 00 00	 call	 ?GetDataType@CElementCommonEnvironment@@QAEAAVCDataTypeEnvironment@@XZ ; CElementCommonEnvironment::GetDataType
  000f2	8b c8		 mov	 ecx, eax
  000f4	e8 00 00 00 00	 call	 ?Reset_AbsolutePoint@CDataTypeEnvironment@@QAEXXZ ; CDataTypeEnvironment::Reset_AbsolutePoint
$LN33@CTool:

; 36   : 	Initialize();
; 37   : 	SetCoordinateType(eCoordinateType);
; 38   : }

  000f9	8b c6		 mov	 eax, esi
  000fb	8b 4d f4	 mov	 ecx, DWORD PTR __$EHRec$[ebp]
  000fe	64 89 0d 00 00
	00 00		 mov	 DWORD PTR fs:0, ecx
  00105	59		 pop	 ecx
  00106	5f		 pop	 edi
  00107	5e		 pop	 esi
  00108	5b		 pop	 ebx
  00109	8b e5		 mov	 esp, ebp
  0010b	5d		 pop	 ebp
  0010c	c2 08 00	 ret	 8
_TEXT	ENDS
;	COMDAT text$x
text$x	SEGMENT
__unwindfunclet$??0CTool@@IAE@PAVCAnalysisData@@W4COORDINATETYPE@CAnalysis@@@Z$0:
  00000	8b 4d f0	 mov	 ecx, DWORD PTR _this$[ebp]
  00003	83 c1 10	 add	 ecx, 16			; 00000010H
  00006	e9 00 00 00 00	 jmp	 ??1CDrawingRegions@@QAE@XZ
__unwindfunclet$??0CTool@@IAE@PAVCAnalysisData@@W4COORDINATETYPE@CAnalysis@@@Z$1:
  0000b	8b 4d f0	 mov	 ecx, DWORD PTR _this$[ebp]
  0000e	83 c1 28	 add	 ecx, 40			; 00000028H
  00011	e9 00 00 00 00	 jmp	 ??1CElementCommonEnvironment@@QAE@XZ
__unwindfunclet$??0CTool@@IAE@PAVCAnalysisData@@W4COORDINATETYPE@CAnalysis@@@Z$2:
  00016	8d 4d c8	 lea	 ecx, DWORD PTR $T2[ebp]
  00019	e9 00 00 00 00	 jmp	 ??1CDataTypeEnvironment@@QAE@XZ
  0001e	cc		 int	 3
  0001f	cc		 int	 3
  00020	cc		 int	 3
  00021	cc		 int	 3
  00022	cc		 int	 3
__ehhandler$??0CTool@@IAE@PAVCAnalysisData@@W4COORDINATETYPE@CAnalysis@@@Z:
  00023	90		 npad	 1
  00024	90		 npad	 1
  00025	8b 54 24 08	 mov	 edx, DWORD PTR [esp+8]
  00029	8d 42 0c	 lea	 eax, DWORD PTR [edx+12]
  0002c	8b 4a c4	 mov	 ecx, DWORD PTR [edx-60]
  0002f	33 c8		 xor	 ecx, eax
  00031	e8 00 00 00 00	 call	 @__security_check_cookie@4
  00036	b8 00 00 00 00	 mov	 eax, OFFSET __ehfuncinfo$??0CTool@@IAE@PAVCAnalysisData@@W4COORDINATETYPE@CAnalysis@@@Z
  0003b	e9 00 00 00 00	 jmp	 ___CxxFrameHandler3
text$x	ENDS
??0CTool@@IAE@PAVCAnalysisData@@W4COORDINATETYPE@CAnalysis@@@Z ENDP ; CTool::CTool
; Function compile flags: /Ogtp
; File C:\Program Files (x86)\Microsoft Visual Studio\2019\Community\VC\Tools\MSVC\14.29.30133\include\deque
; File C:\Program Files (x86)\Microsoft Visual Studio\2019\Community\VC\Tools\MSVC\14.29.30133\include\utility
; File C:\Program Files (x86)\Microsoft Visual Studio\2019\Community\VC\Tools\MSVC\14.29.30133\include\xmemory
; File C:\Program Files (x86)\Microsoft Visual Studio\2019\Community\VC\Tools\MSVC\14.29.30133\include\utility
; File C:\Program Files (x86)\Microsoft Visual Studio\2019\Community\VC\Tools\MSVC\14.29.30133\include\xmemory
;	COMDAT ??1CDrawingRegions@@QAE@XZ
_TEXT	SEGMENT
??1CDrawingRegions@@QAE@XZ PROC				; CDrawingRegions::~CDrawingRegions, COMDAT
; _this$ = ecx
; File C:\Program Files (x86)\Microsoft Visual Studio\2019\Community\VC\Tools\MSVC\14.29.30133\include\deque

; 1332 :         _Tidy();

  00000	56		 push	 esi
  00001	8d 71 04	 lea	 esi, DWORD PTR [ecx+4]
  00004	8b ce		 mov	 ecx, esi
  00006	e8 00 00 00 00	 call	 ?_Tidy@?$deque@VCBlockRegion@@V?$allocator@VCBlockRegion@@@std@@@std@@AAEXXZ ; std::deque<CBlockRegion,std::allocator<CBlockRegion> >::_Tidy

; 861  :         _Tidy();

  0000b	8b ce		 mov	 ecx, esi
  0000d	e8 00 00 00 00	 call	 ?_Tidy@?$deque@VCBlockRegion@@V?$allocator@VCBlockRegion@@@std@@@std@@AAEXXZ ; std::deque<CBlockRegion,std::allocator<CBlockRegion> >::_Tidy
; File C:\Program Files (x86)\Microsoft Visual Studio\2019\Community\VC\Tools\MSVC\14.29.30133\include\utility

; 602  :     _Ty _Old_val = static_cast<_Ty&&>(_Val);

  00012	8b 06		 mov	 eax, DWORD PTR [esi]
; File C:\Program Files (x86)\Microsoft Visual Studio\2019\Community\VC\Tools\MSVC\14.29.30133\include\xmemory

; 255  :         ::operator delete(_Ptr, _Bytes);

  00014	6a 08		 push	 8
  00016	50		 push	 eax
; File C:\Program Files (x86)\Microsoft Visual Studio\2019\Community\VC\Tools\MSVC\14.29.30133\include\utility

; 603  :     _Val         = static_cast<_Other&&>(_New_val);

  00017	c7 06 00 00 00
	00		 mov	 DWORD PTR [esi], 0
; File C:\Program Files (x86)\Microsoft Visual Studio\2019\Community\VC\Tools\MSVC\14.29.30133\include\xmemory

; 255  :         ::operator delete(_Ptr, _Bytes);

  0001d	e8 00 00 00 00	 call	 ??3@YAXPAXI@Z		; operator delete
  00022	83 c4 08	 add	 esp, 8
  00025	5e		 pop	 esi
  00026	c3		 ret	 0
??1CDrawingRegions@@QAE@XZ ENDP				; CDrawingRegions::~CDrawingRegions
_TEXT	ENDS
; Function compile flags: /Ogtp
;	COMDAT ??1CPoints@@QAE@XZ
_TEXT	SEGMENT
??1CPoints@@QAE@XZ PROC					; CPoints::~CPoints, COMDAT
; _this$ = ecx
  00000	83 c1 14	 add	 ecx, 20			; 00000014H
  00003	ff 25 00 00 00
	00		 jmp	 DWORD PTR __imp_??1?$CStringT@DV?$StrTraitMFC_DLL@DV?$ChTraitsCRT@D@ATL@@@@@ATL@@QAE@XZ
??1CPoints@@QAE@XZ ENDP					; CPoints::~CPoints
_TEXT	ENDS
; Function compile flags: /Ogtp
;	COMDAT ??1CCoordinate@@QAE@XZ
_TEXT	SEGMENT
??1CCoordinate@@QAE@XZ PROC				; CCoordinate::~CCoordinate, COMDAT
; _this$ = ecx
  00000	83 c1 14	 add	 ecx, 20			; 00000014H
  00003	ff 25 00 00 00
	00		 jmp	 DWORD PTR __imp_??1?$CStringT@DV?$StrTraitMFC_DLL@DV?$ChTraitsCRT@D@ATL@@@@@ATL@@QAE@XZ
??1CCoordinate@@QAE@XZ ENDP				; CCoordinate::~CCoordinate
_TEXT	ENDS
; Function compile flags: /Ogtp
;	COMDAT ??1CElementCommonEnvironment@@QAE@XZ
_TEXT	SEGMENT
??1CElementCommonEnvironment@@QAE@XZ PROC		; CElementCommonEnvironment::~CElementCommonEnvironment, COMDAT
; _this$ = ecx
  00000	56		 push	 esi
  00001	8b f1		 mov	 esi, ecx
  00003	8d 4e 38	 lea	 ecx, DWORD PTR [esi+56]
  00006	ff 15 00 00 00
	00		 call	 DWORD PTR __imp_??1?$CStringT@DV?$StrTraitMFC_DLL@DV?$ChTraitsCRT@D@ATL@@@@@ATL@@QAE@XZ
  0000c	8d 4e 34	 lea	 ecx, DWORD PTR [esi+52]
  0000f	ff 15 00 00 00
	00		 call	 DWORD PTR __imp_??1?$CStringT@DV?$StrTraitMFC_DLL@DV?$ChTraitsCRT@D@ATL@@@@@ATL@@QAE@XZ
  00015	8d 4e 30	 lea	 ecx, DWORD PTR [esi+48]
  00018	5e		 pop	 esi
  00019	ff 25 00 00 00
	00		 jmp	 DWORD PTR __imp_??1?$CStringT@DV?$StrTraitMFC_DLL@DV?$ChTraitsCRT@D@ATL@@@@@ATL@@QAE@XZ
??1CElementCommonEnvironment@@QAE@XZ ENDP		; CElementCommonEnvironment::~CElementCommonEnvironment
_TEXT	ENDS
; Function compile flags: /Ogtp
;	COMDAT ??1CDataTypeEnvironment@@QAE@XZ
_TEXT	SEGMENT
??1CDataTypeEnvironment@@QAE@XZ PROC			; CDataTypeEnvironment::~CDataTypeEnvironment, COMDAT
; _this$ = ecx
  00000	56		 push	 esi
  00001	8b f1		 mov	 esi, ecx
  00003	8d 4e 18	 lea	 ecx, DWORD PTR [esi+24]
  00006	ff 15 00 00 00
	00		 call	 DWORD PTR __imp_??1?$CStringT@DV?$StrTraitMFC_DLL@DV?$ChTraitsCRT@D@ATL@@@@@ATL@@QAE@XZ
  0000c	8d 4e 14	 lea	 ecx, DWORD PTR [esi+20]
  0000f	ff 15 00 00 00
	00		 call	 DWORD PTR __imp_??1?$CStringT@DV?$StrTraitMFC_DLL@DV?$ChTraitsCRT@D@ATL@@@@@ATL@@QAE@XZ
  00015	8d 4e 10	 lea	 ecx, DWORD PTR [esi+16]
  00018	5e		 pop	 esi
  00019	ff 25 00 00 00
	00		 jmp	 DWORD PTR __imp_??1?$CStringT@DV?$StrTraitMFC_DLL@DV?$ChTraitsCRT@D@ATL@@@@@ATL@@QAE@XZ
??1CDataTypeEnvironment@@QAE@XZ ENDP			; CDataTypeEnvironment::~CDataTypeEnvironment
_TEXT	ENDS
; Function compile flags: /Ogtp
; File C:\Program Files (x86)\Microsoft Visual Studio\2019\Community\VC\Tools\MSVC\14.29.30133\include\deque
; File C:\Program Files (x86)\Microsoft Visual Studio\2019\Community\VC\Tools\MSVC\14.29.30133\include\xmemory
; File C:\Program Files (x86)\Microsoft Visual Studio\2019\Community\VC\Tools\MSVC\14.29.30133\include\deque
; File C:\Program Files (x86)\Microsoft Visual Studio\2019\Community\VC\Tools\MSVC\14.29.30133\include\xmemory
; File C:\Program Files (x86)\Microsoft Visual Studio\2019\Community\VC\Tools\MSVC\14.29.30133\include\deque
; File C:\Program Files (x86)\Microsoft Visual Studio\2019\Community\VC\Tools\MSVC\14.29.30133\include\xmemory
; File C:\Program Files (x86)\Microsoft Visual Studio\2019\Community\VC\Tools\MSVC\14.29.30133\include\deque
;	COMDAT ?_Tidy@?$deque@VCBlockRegion@@V?$allocator@VCBlockRegion@@@std@@@std@@AAEXXZ
_TEXT	SEGMENT
?_Tidy@?$deque@VCBlockRegion@@V?$allocator@VCBlockRegion@@@std@@@std@@AAEXXZ PROC ; std::deque<CBlockRegion,std::allocator<CBlockRegion> >::_Tidy, COMDAT
; _this$ = ecx

; 1471 :     void _Tidy() noexcept { // free all storage

  00000	57		 push	 edi
  00001	8b f9		 mov	 edi, ecx

; 1002 :         return _Mysize() == 0;

  00003	8b 4f 10	 mov	 ecx, DWORD PTR [edi+16]
  00006	85 c9		 test	 ecx, ecx

; 1472 :         _Orphan_all();
; 1473 : 
; 1474 :         _Alpty _Almap(_Getal());
; 1475 :         while (!empty()) {

  00008	74 15		 je	 SHORT $LN60@Tidy
  0000a	66 0f 1f 44 00
	00		 npad	 6
$LL2@Tidy:

; 1146 :         if (--_Mysize() == 0) {

  00010	8d 41 ff	 lea	 eax, DWORD PTR [ecx-1]
  00013	89 47 10	 mov	 DWORD PTR [edi+16], eax
  00016	8b c8		 mov	 ecx, eax
  00018	85 c0		 test	 eax, eax
  0001a	75 f4		 jne	 SHORT $LL2@Tidy

; 1147 :             _Myoff() = 0;

  0001c	89 47 0c	 mov	 DWORD PTR [edi+12], eax
$LN60@Tidy:
  0001f	56		 push	 esi

; 1479 :         for (size_type _Block = _Mapsize(); 0 < _Block;) { // free storage for a block and destroy pointer

  00020	8b 77 08	 mov	 esi, DWORD PTR [edi+8]
  00023	85 f6		 test	 esi, esi
  00025	74 1a		 je	 SHORT $LN5@Tidy
$LL4@Tidy:

; 1480 :             if (_Map()[--_Block]) { // free block and destroy its pointer

  00027	8b 47 04	 mov	 eax, DWORD PTR [edi+4]
  0002a	4e		 dec	 esi
  0002b	8b 04 b0	 mov	 eax, DWORD PTR [eax+esi*4]
  0002e	85 c0		 test	 eax, eax
  00030	74 0b		 je	 SHORT $LN23@Tidy
; File C:\Program Files (x86)\Microsoft Visual Studio\2019\Community\VC\Tools\MSVC\14.29.30133\include\xmemory

; 255  :         ::operator delete(_Ptr, _Bytes);

  00032	6a 60		 push	 96			; 00000060H
  00034	50		 push	 eax
  00035	e8 00 00 00 00	 call	 ??3@YAXPAXI@Z		; operator delete
  0003a	83 c4 08	 add	 esp, 8
$LN23@Tidy:
; File C:\Program Files (x86)\Microsoft Visual Studio\2019\Community\VC\Tools\MSVC\14.29.30133\include\deque

; 1479 :         for (size_type _Block = _Mapsize(); 0 < _Block;) { // free storage for a block and destroy pointer

  0003d	85 f6		 test	 esi, esi
  0003f	75 e6		 jne	 SHORT $LL4@Tidy
$LN5@Tidy:

; 1481 :                 _Getal().deallocate(_Map()[_Block], _Block_size);
; 1482 :                 _Destroy_in_place(_Map()[_Block]);
; 1483 :             }
; 1484 :         }
; 1485 : 
; 1486 :         if (_Map() != _Mapptr()) {

  00041	8b 47 04	 mov	 eax, DWORD PTR [edi+4]
  00044	5e		 pop	 esi
  00045	85 c0		 test	 eax, eax
  00047	74 2a		 je	 SHORT $LN41@Tidy
; File C:\Program Files (x86)\Microsoft Visual Studio\2019\Community\VC\Tools\MSVC\14.29.30133\include\xmemory

; 797  :         _Deallocate<_New_alignof<_Ty>>(_Ptr, sizeof(_Ty) * _Count);

  00049	8b 4f 08	 mov	 ecx, DWORD PTR [edi+8]
  0004c	c1 e1 02	 shl	 ecx, 2

; 251  :         if (_Bytes >= _Big_allocation_threshold) { // boost the alignment of big allocations to help autovectorization

  0004f	81 f9 00 10 00
	00		 cmp	 ecx, 4096		; 00001000H
  00055	72 12		 jb	 SHORT $LN51@Tidy

; 150  :     const uintptr_t _Ptr_container   = _Ptr_user[-1];

  00057	8b 50 fc	 mov	 edx, DWORD PTR [eax-4]
  0005a	83 c1 23	 add	 ecx, 35			; 00000023H

; 151  : 
; 152  :     // If the following asserts, it likely means that we are performing
; 153  :     // an aligned delete on memory coming from an unaligned allocation.
; 154  :     _STL_ASSERT(_Ptr_user[-2] == _Big_allocation_sentinel, "invalid argument");
; 155  : 
; 156  :     // Extra paranoia on aligned allocation/deallocation; ensure _Ptr_container is
; 157  :     // in range [_Min_back_shift, _Non_user_size]
; 158  : #ifdef _DEBUG
; 159  :     constexpr uintptr_t _Min_back_shift = 2 * sizeof(void*);
; 160  : #else // ^^^ _DEBUG ^^^ // vvv !_DEBUG vvv
; 161  :     constexpr uintptr_t _Min_back_shift = sizeof(void*);
; 162  : #endif // _DEBUG
; 163  :     const uintptr_t _Back_shift = reinterpret_cast<uintptr_t>(_Ptr) - _Ptr_container;

  0005d	2b c2		 sub	 eax, edx

; 164  :     _STL_VERIFY(_Back_shift >= _Min_back_shift && _Back_shift <= _Non_user_size, "invalid argument");

  0005f	83 c0 fc	 add	 eax, -4			; fffffffcH
  00062	83 f8 1f	 cmp	 eax, 31			; 0000001fH
  00065	77 1c		 ja	 SHORT $LN48@Tidy

; 165  :     _Ptr = reinterpret_cast<void*>(_Ptr_container);

  00067	8b c2		 mov	 eax, edx
$LN51@Tidy:

; 255  :         ::operator delete(_Ptr, _Bytes);

  00069	51		 push	 ecx
  0006a	50		 push	 eax
  0006b	e8 00 00 00 00	 call	 ??3@YAXPAXI@Z		; operator delete
  00070	83 c4 08	 add	 esp, 8
$LN41@Tidy:
; File C:\Program Files (x86)\Microsoft Visual Studio\2019\Community\VC\Tools\MSVC\14.29.30133\include\deque

; 1490 :         _Mapsize() = 0;

  00073	c7 47 08 00 00
	00 00		 mov	 DWORD PTR [edi+8], 0

; 1491 :         _Map()     = _Mapptr();

  0007a	c7 47 04 00 00
	00 00		 mov	 DWORD PTR [edi+4], 0
  00081	5f		 pop	 edi

; 1492 :     }

  00082	c3		 ret	 0
$LN48@Tidy:
; File C:\Program Files (x86)\Microsoft Visual Studio\2019\Community\VC\Tools\MSVC\14.29.30133\include\xmemory

; 164  :     _STL_VERIFY(_Back_shift >= _Min_back_shift && _Back_shift <= _Non_user_size, "invalid argument");

  00083	ff 15 00 00 00
	00		 call	 DWORD PTR __imp___invalid_parameter_noinfo_noreturn
$LN62@Tidy:
  00089	cc		 int	 3
?_Tidy@?$deque@VCBlockRegion@@V?$allocator@VCBlockRegion@@@std@@@std@@AAEXXZ ENDP ; std::deque<CBlockRegion,std::allocator<CBlockRegion> >::_Tidy
_TEXT	ENDS
; Function compile flags: /Ogtp
; File D:\git\src\IBK\IBK_DRFN\ProjSrc\SrcChartEx\ChartAddIn\ChartAnalysisToolAddIn\Include_AddIn_133101\I133101\_IString.h
;	COMDAT ??1ILPCSTR133101@@QAE@XZ
_TEXT	SEGMENT
__$EHRec$ = -12						; size = 12
??1ILPCSTR133101@@QAE@XZ PROC				; ILPCSTR133101::~ILPCSTR133101, COMDAT
; _this$ = ecx

; 44   : 	{

  00000	55		 push	 ebp
  00001	8b ec		 mov	 ebp, esp
  00003	6a ff		 push	 -1
  00005	68 00 00 00 00	 push	 __ehhandler$??1ILPCSTR133101@@QAE@XZ
  0000a	64 a1 00 00 00
	00		 mov	 eax, DWORD PTR fs:0
  00010	50		 push	 eax
  00011	56		 push	 esi
  00012	a1 00 00 00 00	 mov	 eax, DWORD PTR ___security_cookie
  00017	33 c5		 xor	 eax, ebp
  00019	50		 push	 eax
  0001a	8d 45 f4	 lea	 eax, DWORD PTR __$EHRec$[ebp]
  0001d	64 a3 00 00 00
	00		 mov	 DWORD PTR fs:0, eax
  00023	8b f1		 mov	 esi, ecx

; 45   : 		if( m_pIStrData)

  00025	8b 4e 04	 mov	 ecx, DWORD PTR [esi+4]
  00028	85 c9		 test	 ecx, ecx
  0002a	74 13		 je	 SHORT $LN2@ILPCSTR133

; 46   : 		{
; 47   : 			m_pIStrData->Release();

  0002c	8b 01		 mov	 eax, DWORD PTR [ecx]
  0002e	51		 push	 ecx
  0002f	ff 50 08	 call	 DWORD PTR [eax+8]

; 48   : 			m_pIStrData = NULL;

  00032	c7 46 04 00 00
	00 00		 mov	 DWORD PTR [esi+4], 0

; 49   : 			m_szData = NULL;

  00039	c7 06 00 00 00
	00		 mov	 DWORD PTR [esi], 0
$LN2@ILPCSTR133:

; 50   : 		}
; 51   : 	}

  0003f	8b 4d f4	 mov	 ecx, DWORD PTR __$EHRec$[ebp]
  00042	64 89 0d 00 00
	00 00		 mov	 DWORD PTR fs:0, ecx
  00049	59		 pop	 ecx
  0004a	5e		 pop	 esi
  0004b	8b e5		 mov	 esp, ebp
  0004d	5d		 pop	 ebp
  0004e	c3		 ret	 0
  0004f	cc		 int	 3
  00050	cc		 int	 3
  00051	cc		 int	 3
  00052	cc		 int	 3
  00053	cc		 int	 3
_TEXT	ENDS
;	COMDAT text$x
text$x	SEGMENT
__ehhandler$??1ILPCSTR133101@@QAE@XZ:
  00000	90		 npad	 1
  00001	90		 npad	 1
  00002	8b 54 24 08	 mov	 edx, DWORD PTR [esp+8]
  00006	8d 42 0c	 lea	 eax, DWORD PTR [edx+12]
  00009	8b 4a f8	 mov	 ecx, DWORD PTR [edx-8]
  0000c	33 c8		 xor	 ecx, eax
  0000e	e8 00 00 00 00	 call	 @__security_check_cookie@4
  00013	b8 00 00 00 00	 mov	 eax, OFFSET __ehfuncinfo$??1ILPCSTR133101@@QAE@XZ
  00018	e9 00 00 00 00	 jmp	 ___CxxFrameHandler3
text$x	ENDS
??1ILPCSTR133101@@QAE@XZ ENDP				; ILPCSTR133101::~ILPCSTR133101
; Function compile flags: /Ogtp
; File D:\git\src\IBK\IBK_DRFN\ProjSrc\SrcChartEx\ChartAddIn\ChartAnalysisToolAddIn\AnalysisTool\Tool.cpp
;	COMDAT ?__empty_global_delete@@YAXPAXI@Z
_TEXT	SEGMENT
___formal$ = 8						; size = 4
___formal$ = 12						; size = 4
?__empty_global_delete@@YAXPAXI@Z PROC			; __empty_global_delete, COMDAT

  00000	c2 00 00	 ret	 0
?__empty_global_delete@@YAXPAXI@Z ENDP			; __empty_global_delete
_TEXT	ENDS
; Function compile flags: /Ogtp
; File D:\git\src\IBK\IBK_DRFN\ProjSrc\SrcChartEx\ChartAddIn\ChartAnalysisToolAddIn\AnalysisTool\Tool.cpp
;	COMDAT ?__empty_global_delete@@YAXPAX@Z
_TEXT	SEGMENT
___formal$ = 8						; size = 4
?__empty_global_delete@@YAXPAX@Z PROC			; __empty_global_delete, COMDAT

  00000	c2 00 00	 ret	 0
?__empty_global_delete@@YAXPAX@Z ENDP			; __empty_global_delete
_TEXT	ENDS
END
