; Listing generated by Microsoft (R) Optimizing Compiler Version 19.29.30145.0 

	TITLE	D:\git\src\IBK\IBK_DRFN\#DRfn-CS\_Obj\AnalysisTool\ToolSingleton.obj
	.686P
	.XMM
	include listing.inc
	.model	flat

INCLUDELIB MSVCRT
INCLUDELIB OLDNAMES

PUBLIC	?__empty_global_delete@@YAXPAX@Z		; __empty_global_delete
PUBLIC	?__empty_global_delete@@YAXPAXI@Z		; __empty_global_delete
PUBLIC	??0CToolSingleton@@QAE@PAVCAnalysisData@@@Z	; CToolSingleton::CToolSingleton
PUBLIC	??1CToolSingleton@@QAE@XZ			; CToolSingleton::~CToolSingleton
PUBLIC	?FindTool@CToolSingleton@@QAEPAVCTool@@W4TOOLTYPE@CAnalysis@@@Z ; CToolSingleton::FindTool
PUBLIC	?InitializeAllTool@CToolSingleton@@QAEXXZ	; CToolSingleton::InitializeAllTool
PUBLIC	?SetCoordinateType@CToolSingleton@@QAEXW4COORDINATETYPE@CAnalysis@@@Z ; CToolSingleton::SetCoordinateType
PUBLIC	?SetAutoPrice@CToolSingleton@@QAEX_N@Z		; CToolSingleton::SetAutoPrice
PUBLIC	?SetBaseColor@CToolSingleton@@QAEXABK0@Z	; CToolSingleton::SetBaseColor
PUBLIC	?SetBasePenColor@CToolSingleton@@QAEXABK@Z	; CToolSingleton::SetBasePenColor
PUBLIC	?SetBasePenThickness@CToolSingleton@@QAEXH@Z	; CToolSingleton::SetBasePenThickness
PUBLIC	?SetLineExtEnvironment@CToolSingleton@@QAEXW4TOOLTYPE@CAnalysis@@ABH1@Z ; CToolSingleton::SetLineExtEnvironment
PUBLIC	?SetLineExtEnvironment@CToolSingleton@@QAEXABH0@Z ; CToolSingleton::SetLineExtEnvironment
PUBLIC	?SetEquiDivEnvironment@CToolSingleton@@QAEXW4TOOLTYPE@CAnalysis@@ABH@Z ; CToolSingleton::SetEquiDivEnvironment
PUBLIC	?SetPriceRangeDivEnvironment@CToolSingleton@@QAEXW4TOOLTYPE@CAnalysis@@ABH@Z ; CToolSingleton::SetPriceRangeDivEnvironment
PUBLIC	?SetLineDrawingInfo@CToolSingleton@@QAEXW4TOOLTYPE@CAnalysis@@KHH@Z ; CToolSingleton::SetLineDrawingInfo
PUBLIC	?SetTextPosition@CToolSingleton@@QAEXW4TOOLTYPE@CAnalysis@@_N1111@Z ; CToolSingleton::SetTextPosition
PUBLIC	?SetTextEnvironment@CToolSingleton@@QAEXW4TOOLTYPE@CAnalysis@@ABVCTextEnvironment@@@Z ; CToolSingleton::SetTextEnvironment
PUBLIC	?SetTextEnvironment@CToolSingleton@@QAEXABVCTextEnvironment@@@Z ; CToolSingleton::SetTextEnvironment
PUBLIC	?SetFiboCoefficient@CToolSingleton@@QAEXW4TOOLTYPE@CAnalysis@@ABV?$CStringT@DV?$StrTraitMFC_DLL@DV?$ChTraitsCRT@D@ATL@@@@@ATL@@@Z ; CToolSingleton::SetFiboCoefficient
PUBLIC	?SetBalanceCoefficient@CToolSingleton@@QAEXW4TOOLTYPE@CAnalysis@@ABV?$CStringT@DV?$StrTraitMFC_DLL@DV?$ChTraitsCRT@D@ATL@@@@@ATL@@@Z ; CToolSingleton::SetBalanceCoefficient
PUBLIC	?InitializeTool@CToolSingleton@@AAEXPAVCTool@@@Z ; CToolSingleton::InitializeTool
PUBLIC	?SetEquiDivEnv@CToolSingleton@@AAEXPAVCTool@@ABH@Z ; CToolSingleton::SetEquiDivEnv
PUBLIC	?SetPriceRangeDivEnv@CToolSingleton@@AAEXPAVCTool@@ABH@Z ; CToolSingleton::SetPriceRangeDivEnv
PUBLIC	?SetLineExtEnv@CToolSingleton@@AAEXPAVCTool@@ABH1@Z ; CToolSingleton::SetLineExtEnv
PUBLIC	?SetCoordinateType@CToolSingleton@@AAEXPAVCTool@@W4COORDINATETYPE@CAnalysis@@@Z ; CToolSingleton::SetCoordinateType
PUBLIC	?SetAutoPrice@CToolSingleton@@AAEXPAVCTool@@_N@Z ; CToolSingleton::SetAutoPrice
PUBLIC	?SetBaseColor@CToolSingleton@@AAEXPAVCTool@@ABK1@Z ; CToolSingleton::SetBaseColor
PUBLIC	?SetBasePenColor@CToolSingleton@@AAEXPAVCTool@@ABK@Z ; CToolSingleton::SetBasePenColor
PUBLIC	?SetBasePenThickness@CToolSingleton@@AAEXPAVCTool@@H@Z ; CToolSingleton::SetBasePenThickness
PUBLIC	?SetBasePenStyle@CToolSingleton@@AAEXPAVCTool@@H@Z ; CToolSingleton::SetBasePenStyle
PUBLIC	?SetFiboCoefficientEnv@CToolSingleton@@AAEXPAVCTool@@ABV?$CStringT@DV?$StrTraitMFC_DLL@DV?$ChTraitsCRT@D@ATL@@@@@ATL@@@Z ; CToolSingleton::SetFiboCoefficientEnv
PUBLIC	?SetBalanceCoefficientEnv@CToolSingleton@@AAEXPAVCTool@@ABV?$CStringT@DV?$StrTraitMFC_DLL@DV?$ChTraitsCRT@D@ATL@@@@@ATL@@@Z ; CToolSingleton::SetBalanceCoefficientEnv
PUBLIC	?_Tidy@?$deque@VCBlockRegion@@V?$allocator@VCBlockRegion@@@std@@@std@@AAEXXZ ; std::deque<CBlockRegion,std::allocator<CBlockRegion> >::_Tidy
PUBLIC	??1CPoints@@QAE@XZ				; CPoints::~CPoints
PUBLIC	??1COnePointMoveTool@@QAE@XZ			; COnePointMoveTool::~COnePointMoveTool
PUBLIC	??1CDownTool@@QAE@XZ				; CDownTool::~CDownTool
PUBLIC	??1CTwoPointDownTool@@QAE@XZ			; CTwoPointDownTool::~CTwoPointDownTool
PUBLIC	??1CThreePointDownTool@@QAE@XZ			; CThreePointDownTool::~CThreePointDownTool
PUBLIC	??1CGannTool@@QAE@XZ				; CGannTool::~CGannTool
PUBLIC	??1CGannFanTool@@QAE@XZ				; CGannFanTool::~CGannFanTool
EXTRN	??_M@YGXPAXIIP6EX0@Z@Z:PROC			; `eh vector destructor iterator'
EXTRN	??2@YAPAXI@Z:PROC				; operator new
EXTRN	??3@YAXPAXI@Z:PROC				; operator delete
EXTRN	___std_terminate:PROC
EXTRN	__imp___invalid_parameter_noinfo_noreturn:PROC
EXTRN	__imp_??0?$CStringT@DV?$StrTraitMFC_DLL@DV?$ChTraitsCRT@D@ATL@@@@@ATL@@QAE@ABV01@@Z:PROC
EXTRN	__imp_??1?$CStringT@DV?$StrTraitMFC_DLL@DV?$ChTraitsCRT@D@ATL@@@@@ATL@@QAE@XZ:PROC
EXTRN	??1CDWordArray@@UAE@XZ:PROC			; CDWordArray::~CDWordArray
EXTRN	??1CObList@@UAE@XZ:PROC				; CObList::~CObList
EXTRN	?SetWidth@CPenEnvironment@@QAEXH@Z:PROC		; CPenEnvironment::SetWidth
EXTRN	?SetStyle@CPenEnvironment@@QAEXW4PenStyle@CToolEnumData@@@Z:PROC ; CPenEnvironment::SetStyle
EXTRN	?SetExtData@CDataTypeEnvironment@@QAEXABV?$CStringT@DV?$StrTraitMFC_DLL@DV?$ChTraitsCRT@D@ATL@@@@@ATL@@@Z:PROC ; CDataTypeEnvironment::SetExtData
EXTRN	?SetEquiDiv@CElementCommonEnvironment@@QAEXH@Z:PROC ; CElementCommonEnvironment::SetEquiDiv
EXTRN	?SetPriceRangeDiv@CElementCommonEnvironment@@QAEXH@Z:PROC ; CElementCommonEnvironment::SetPriceRangeDiv
EXTRN	?SetLineExt@CElementCommonEnvironment@@QAEXHH@Z:PROC ; CElementCommonEnvironment::SetLineExt
EXTRN	?GetPen@CElementCommonEnvironment@@QAEAAVCPenEnvironment@@XZ:PROC ; CElementCommonEnvironment::GetPen
EXTRN	?GetDataType@CElementCommonEnvironment@@QAEAAVCDataTypeEnvironment@@XZ:PROC ; CElementCommonEnvironment::GetDataType
EXTRN	?SetCoordinateType@CTool@@QAEXW4COORDINATETYPE@CAnalysis@@@Z:PROC ; CTool::SetCoordinateType
EXTRN	?SetAutoPrice@CTool@@QAEX_N@Z:PROC		; CTool::SetAutoPrice
EXTRN	?SetPenColor@CTool@@QAEXABK@Z:PROC		; CTool::SetPenColor
EXTRN	?SetTextColor@CTool@@QAEXABK@Z:PROC		; CTool::SetTextColor
EXTRN	?GetElementCommonEnvironment@CTool@@QAEAAVCElementCommonEnvironment@@XZ:PROC ; CTool::GetElementCommonEnvironment
EXTRN	??0CSelectingTool@@QAE@PAVCAnalysisData@@W4COORDINATETYPE@CAnalysis@@@Z:PROC ; CSelectingTool::CSelectingTool
EXTRN	??1COnePointDownTool@@IAE@XZ:PROC		; COnePointDownTool::~COnePointDownTool
EXTRN	??0CLineTool@@QAE@PAVCAnalysisData@@W4TOOLTYPE@CAnalysis@@W4COORDINATETYPE@3@@Z:PROC ; CLineTool::CLineTool
EXTRN	?SetTextPosition@CLineTool@@QAEX_N00@Z:PROC	; CLineTool::SetTextPosition
EXTRN	?SetTextEnvironment@CLineTool@@QAEXABVCTextEnvironment@@@Z:PROC ; CLineTool::SetTextEnvironment
EXTRN	??0CVertLineTool@@QAE@PAVCAnalysisData@@W4COORDINATETYPE@CAnalysis@@@Z:PROC ; CVertLineTool::CVertLineTool
EXTRN	?SetTextPosition@CVertLineTool@@QAEX_N0@Z:PROC	; CVertLineTool::SetTextPosition
EXTRN	?SetTextEnvironment@CVertLineTool@@QAEXABVCTextEnvironment@@@Z:PROC ; CVertLineTool::SetTextEnvironment
EXTRN	??0CHorzLineTool@@QAE@PAVCAnalysisData@@W4COORDINATETYPE@CAnalysis@@@Z:PROC ; CHorzLineTool::CHorzLineTool
EXTRN	?SetTextPosition@CHorzLineTool@@QAEX_N0@Z:PROC	; CHorzLineTool::SetTextPosition
EXTRN	?SetTextEnvironment@CHorzLineTool@@QAEXABVCTextEnvironment@@@Z:PROC ; CHorzLineTool::SetTextEnvironment
EXTRN	?SetTextPosition@CCrossLineTool@@QAEX_N000@Z:PROC ; CCrossLineTool::SetTextPosition
EXTRN	?SetTextEnvironment@CCrossLineTool@@QAEXABVCTextEnvironment@@@Z:PROC ; CCrossLineTool::SetTextEnvironment
EXTRN	??0CCrossLineMoveTool@@QAE@PAVCAnalysisData@@W4COORDINATETYPE@CAnalysis@@@Z:PROC ; CCrossLineMoveTool::CCrossLineMoveTool
EXTRN	??0CCrossLineDownTool@@QAE@PAVCAnalysisData@@W4COORDINATETYPE@CAnalysis@@@Z:PROC ; CCrossLineDownTool::CCrossLineDownTool
EXTRN	??0CTrisectionLineTool@@QAE@PAVCAnalysisData@@W4COORDINATETYPE@CAnalysis@@@Z:PROC ; CTrisectionLineTool::CTrisectionLineTool
EXTRN	?SetTextPosition@CTrisectionLineTool@@QAEX_N0@Z:PROC ; CTrisectionLineTool::SetTextPosition
EXTRN	?SetTextEnvironment@CTrisectionLineTool@@QAEXABVCTextEnvironment@@@Z:PROC ; CTrisectionLineTool::SetTextEnvironment
EXTRN	??0CQuadrisectLineTool@@QAE@PAVCAnalysisData@@W4COORDINATETYPE@CAnalysis@@@Z:PROC ; CQuadrisectLineTool::CQuadrisectLineTool
EXTRN	?SetTextPosition@CQuadrisectLineTool@@QAEX_N0@Z:PROC ; CQuadrisectLineTool::SetTextPosition
EXTRN	?SetTextEnvironment@CQuadrisectLineTool@@QAEXABVCTextEnvironment@@@Z:PROC ; CQuadrisectLineTool::SetTextEnvironment
EXTRN	??0CAndrewsPitchforkTool@@QAE@PAVCAnalysisData@@W4COORDINATETYPE@CAnalysis@@@Z:PROC ; CAndrewsPitchforkTool::CAndrewsPitchforkTool
EXTRN	??0CCycleLinesTool@@QAE@PAVCAnalysisData@@W4COORDINATETYPE@CAnalysis@@@Z:PROC ; CCycleLinesTool::CCycleLinesTool
EXTRN	??0CSpeedLineTool@@QAE@PAVCAnalysisData@@W4COORDINATETYPE@CAnalysis@@@Z:PROC ; CSpeedLineTool::CSpeedLineTool
EXTRN	??0CSpeedFanTool@@QAE@PAVCAnalysisData@@W4COORDINATETYPE@CAnalysis@@@Z:PROC ; CSpeedFanTool::CSpeedFanTool
EXTRN	??0CSpeedArcTool@@QAE@PAVCAnalysisData@@W4COORDINATETYPE@CAnalysis@@@Z:PROC ; CSpeedArcTool::CSpeedArcTool
EXTRN	??0CLinearRegressionTool@@QAE@PAVCAnalysisData@@W4COORDINATETYPE@CAnalysis@@@Z:PROC ; CLinearRegressionTool::CLinearRegressionTool
EXTRN	??0CRaffRegressionTool@@QAE@PAVCAnalysisData@@W4COORDINATETYPE@CAnalysis@@@Z:PROC ; CRaffRegressionTool::CRaffRegressionTool
EXTRN	??0CAngleLineTool@@QAE@PAVCAnalysisData@@W4COORDINATETYPE@CAnalysis@@@Z:PROC ; CAngleLineTool::CAngleLineTool
EXTRN	?SetTextPosition@CAngleLineTool@@QAEX_N@Z:PROC	; CAngleLineTool::SetTextPosition
EXTRN	?SetTextEnvironment@CAngleLineTool@@QAEXABVCTextEnvironment@@@Z:PROC ; CAngleLineTool::SetTextEnvironment
EXTRN	??0CCandleLineTool@@QAE@PAVCAnalysisData@@W4COORDINATETYPE@CAnalysis@@@Z:PROC ; CCandleLineTool::CCandleLineTool
EXTRN	?SetTextPosition@CCandleLineTool@@QAEX_N@Z:PROC	; CCandleLineTool::SetTextPosition
EXTRN	?SetTextEnvironment@CCandleLineTool@@QAEXABVCTextEnvironment@@@Z:PROC ; CCandleLineTool::SetTextEnvironment
EXTRN	??0CCandleBongTool@@QAE@PAVCAnalysisData@@W4COORDINATETYPE@CAnalysis@@@Z:PROC ; CCandleBongTool::CCandleBongTool
EXTRN	??0CPencilLineTool@@QAE@PAVCAnalysisData@@W4COORDINATETYPE@CAnalysis@@@Z:PROC ; CPencilLineTool::CPencilLineTool
EXTRN	??0CPeriodSumLineTool@@QAE@PAVCAnalysisData@@W4COORDINATETYPE@CAnalysis@@@Z:PROC ; CPeriodSumLineTool::CPeriodSumLineTool
EXTRN	??0CElliotLineTool@@QAE@PAVCAnalysisData@@W4COORDINATETYPE@CAnalysis@@@Z:PROC ; CElliotLineTool::CElliotLineTool
EXTRN	??0CAdjustRatioTool@@QAE@PAVCAnalysisData@@W4COORDINATETYPE@CAnalysis@@@Z:PROC ; CAdjustRatioTool::CAdjustRatioTool
EXTRN	??0CFiboSemicircleTool@@QAE@PAVCAnalysisData@@W4COORDINATETYPE@CAnalysis@@@Z:PROC ; CFiboSemicircleTool::CFiboSemicircleTool
EXTRN	?SetTextPosition@CFiboSemicircleTool@@QAEX_N@Z:PROC ; CFiboSemicircleTool::SetTextPosition
EXTRN	??0CFiboCircleTool@@QAE@PAVCAnalysisData@@W4COORDINATETYPE@CAnalysis@@@Z:PROC ; CFiboCircleTool::CFiboCircleTool
EXTRN	?SetTextPosition@CFiboCircleTool@@QAEX_N@Z:PROC	; CFiboCircleTool::SetTextPosition
EXTRN	??0CFiboPenLineTool@@QAE@PAVCAnalysisData@@W4COORDINATETYPE@CAnalysis@@@Z:PROC ; CFiboPenLineTool::CFiboPenLineTool
EXTRN	?SetTextPosition@CFiboPenLineTool@@QAEX_N@Z:PROC ; CFiboPenLineTool::SetTextPosition
EXTRN	??0CFiboRetraceTool@@QAE@PAVCAnalysisData@@W4COORDINATETYPE@CAnalysis@@@Z:PROC ; CFiboRetraceTool::CFiboRetraceTool
EXTRN	?SetTextPosition@CFiboRetraceTool@@QAEX_N@Z:PROC ; CFiboRetraceTool::SetTextPosition
EXTRN	?SetTextEnvironment@CFiboRetraceTool@@QAEXABVCTextEnvironment@@@Z:PROC ; CFiboRetraceTool::SetTextEnvironment
EXTRN	??0CFiboTimeTool@@QAE@PAVCAnalysisData@@W4COORDINATETYPE@CAnalysis@@@Z:PROC ; CFiboTimeTool::CFiboTimeTool
EXTRN	??0CGannLine45Tool@@QAE@PAVCAnalysisData@@W4COORDINATETYPE@CAnalysis@@@Z:PROC ; CGannLine45Tool::CGannLine45Tool
EXTRN	??0CGannLine315Tool@@QAE@PAVCAnalysisData@@W4COORDINATETYPE@CAnalysis@@@Z:PROC ; CGannLine315Tool::CGannLine315Tool
EXTRN	?SetTextPosition@CGannFanTool@@QAEX_N@Z:PROC	; CGannFanTool::SetTextPosition
EXTRN	??0CGannFan45Tool@@QAE@PAVCAnalysisData@@W4COORDINATETYPE@CAnalysis@@@Z:PROC ; CGannFan45Tool::CGannFan45Tool
EXTRN	??0CGannFan135Tool@@QAE@PAVCAnalysisData@@W4COORDINATETYPE@CAnalysis@@@Z:PROC ; CGannFan135Tool::CGannFan135Tool
EXTRN	??0CGannFan225Tool@@QAE@PAVCAnalysisData@@W4COORDINATETYPE@CAnalysis@@@Z:PROC ; CGannFan225Tool::CGannFan225Tool
EXTRN	??0CGannFan315Tool@@QAE@PAVCAnalysisData@@W4COORDINATETYPE@CAnalysis@@@Z:PROC ; CGannFan315Tool::CGannFan315Tool
EXTRN	??0CGannGridTool@@QAE@PAVCAnalysisData@@W4COORDINATETYPE@CAnalysis@@@Z:PROC ; CGannGridTool::CGannGridTool
EXTRN	??0CBalanceBasicTool@@QAE@PAVCAnalysisData@@W4COORDINATETYPE@CAnalysis@@@Z:PROC ; CBalanceBasicTool::CBalanceBasicTool
EXTRN	@__security_check_cookie@4:PROC
EXTRN	___CxxFrameHandler3:PROC
EXTRN	___security_cookie:DWORD
;	COMDAT xdata$x
xdata$x	SEGMENT
__unwindtable$??_GCPencilLineTool@@QAEPAXI@Z DD 0ffffffffH
	DD	FLAT:___std_terminate
__ehfuncinfo$??_GCPencilLineTool@@QAEPAXI@Z DD 019930522H
	DD	01H
	DD	FLAT:__unwindtable$??_GCPencilLineTool@@QAEPAXI@Z
	DD	2 DUP(00H)
	DD	2 DUP(00H)
	DD	00H
	DD	05H
xdata$x	ENDS
;	COMDAT xdata$x
xdata$x	SEGMENT
__unwindtable$??1CPencilLineTool@@QAE@XZ DD 0ffffffffH
	DD	FLAT:___std_terminate
__ehfuncinfo$??1CPencilLineTool@@QAE@XZ DD 019930522H
	DD	01H
	DD	FLAT:__unwindtable$??1CPencilLineTool@@QAE@XZ
	DD	2 DUP(00H)
	DD	2 DUP(00H)
	DD	00H
	DD	05H
xdata$x	ENDS
;	COMDAT xdata$x
xdata$x	SEGMENT
__ehfuncinfo$??1CMultiPointDownTool@@QAE@XZ DD 019930522H
	DD	00H
	DD	00H
	DD	2 DUP(00H)
	DD	2 DUP(00H)
	DD	00H
	DD	05H
xdata$x	ENDS
;	COMDAT xdata$x
xdata$x	SEGMENT
__unwindtable$?SetBalanceCoefficient@CToolSingleton@@QAEXW4TOOLTYPE@CAnalysis@@ABV?$CStringT@DV?$StrTraitMFC_DLL@DV?$ChTraitsCRT@D@ATL@@@@@ATL@@@Z DD 0ffffffffH
	DD	FLAT:__unwindfunclet$?SetBalanceCoefficient@CToolSingleton@@QAEXW4TOOLTYPE@CAnalysis@@ABV?$CStringT@DV?$StrTraitMFC_DLL@DV?$ChTraitsCRT@D@ATL@@@@@ATL@@@Z$0
__ehfuncinfo$?SetBalanceCoefficient@CToolSingleton@@QAEXW4TOOLTYPE@CAnalysis@@ABV?$CStringT@DV?$StrTraitMFC_DLL@DV?$ChTraitsCRT@D@ATL@@@@@ATL@@@Z DD 019930522H
	DD	01H
	DD	FLAT:__unwindtable$?SetBalanceCoefficient@CToolSingleton@@QAEXW4TOOLTYPE@CAnalysis@@ABV?$CStringT@DV?$StrTraitMFC_DLL@DV?$ChTraitsCRT@D@ATL@@@@@ATL@@@Z
	DD	2 DUP(00H)
	DD	2 DUP(00H)
	DD	00H
	DD	01H
xdata$x	ENDS
;	COMDAT xdata$x
xdata$x	SEGMENT
__unwindtable$?SetFiboCoefficient@CToolSingleton@@QAEXW4TOOLTYPE@CAnalysis@@ABV?$CStringT@DV?$StrTraitMFC_DLL@DV?$ChTraitsCRT@D@ATL@@@@@ATL@@@Z DD 0ffffffffH
	DD	FLAT:__unwindfunclet$?SetFiboCoefficient@CToolSingleton@@QAEXW4TOOLTYPE@CAnalysis@@ABV?$CStringT@DV?$StrTraitMFC_DLL@DV?$ChTraitsCRT@D@ATL@@@@@ATL@@@Z$0
__ehfuncinfo$?SetFiboCoefficient@CToolSingleton@@QAEXW4TOOLTYPE@CAnalysis@@ABV?$CStringT@DV?$StrTraitMFC_DLL@DV?$ChTraitsCRT@D@ATL@@@@@ATL@@@Z DD 019930522H
	DD	01H
	DD	FLAT:__unwindtable$?SetFiboCoefficient@CToolSingleton@@QAEXW4TOOLTYPE@CAnalysis@@ABV?$CStringT@DV?$StrTraitMFC_DLL@DV?$ChTraitsCRT@D@ATL@@@@@ATL@@@Z
	DD	2 DUP(00H)
	DD	2 DUP(00H)
	DD	00H
	DD	01H
xdata$x	ENDS
;	COMDAT xdata$x
xdata$x	SEGMENT
__unwindtable$??1CToolSingleton@@QAE@XZ DD 0ffffffffH
	DD	FLAT:___std_terminate
__ehfuncinfo$??1CToolSingleton@@QAE@XZ DD 019930522H
	DD	01H
	DD	FLAT:__unwindtable$??1CToolSingleton@@QAE@XZ
	DD	2 DUP(00H)
	DD	2 DUP(00H)
	DD	00H
	DD	05H
xdata$x	ENDS
;	COMDAT xdata$x
xdata$x	SEGMENT
__ehfuncinfo$??0CToolSingleton@@QAE@PAVCAnalysisData@@@Z DD 019930522H
	DD	023H
	DD	FLAT:__unwindtable$??0CToolSingleton@@QAE@PAVCAnalysisData@@@Z
	DD	2 DUP(00H)
	DD	2 DUP(00H)
	DD	00H
	DD	01H
__unwindtable$??0CToolSingleton@@QAE@PAVCAnalysisData@@@Z DD 0ffffffffH
	DD	FLAT:__unwindfunclet$??0CToolSingleton@@QAE@PAVCAnalysisData@@@Z$0
	DD	0ffffffffH
	DD	FLAT:__unwindfunclet$??0CToolSingleton@@QAE@PAVCAnalysisData@@@Z$1
	DD	0ffffffffH
	DD	FLAT:__unwindfunclet$??0CToolSingleton@@QAE@PAVCAnalysisData@@@Z$2
	DD	0ffffffffH
	DD	FLAT:__unwindfunclet$??0CToolSingleton@@QAE@PAVCAnalysisData@@@Z$3
	DD	0ffffffffH
	DD	FLAT:__unwindfunclet$??0CToolSingleton@@QAE@PAVCAnalysisData@@@Z$4
	DD	0ffffffffH
	DD	FLAT:__unwindfunclet$??0CToolSingleton@@QAE@PAVCAnalysisData@@@Z$5
	DD	0ffffffffH
	DD	FLAT:__unwindfunclet$??0CToolSingleton@@QAE@PAVCAnalysisData@@@Z$6
	DD	0ffffffffH
	DD	FLAT:__unwindfunclet$??0CToolSingleton@@QAE@PAVCAnalysisData@@@Z$7
	DD	0ffffffffH
	DD	FLAT:__unwindfunclet$??0CToolSingleton@@QAE@PAVCAnalysisData@@@Z$8
	DD	0ffffffffH
	DD	FLAT:__unwindfunclet$??0CToolSingleton@@QAE@PAVCAnalysisData@@@Z$9
	DD	0ffffffffH
	DD	FLAT:__unwindfunclet$??0CToolSingleton@@QAE@PAVCAnalysisData@@@Z$10
	DD	0ffffffffH
	DD	FLAT:__unwindfunclet$??0CToolSingleton@@QAE@PAVCAnalysisData@@@Z$11
	DD	0ffffffffH
	DD	FLAT:__unwindfunclet$??0CToolSingleton@@QAE@PAVCAnalysisData@@@Z$12
	DD	0ffffffffH
	DD	FLAT:__unwindfunclet$??0CToolSingleton@@QAE@PAVCAnalysisData@@@Z$13
	DD	0ffffffffH
	DD	FLAT:__unwindfunclet$??0CToolSingleton@@QAE@PAVCAnalysisData@@@Z$14
	DD	0ffffffffH
	DD	FLAT:__unwindfunclet$??0CToolSingleton@@QAE@PAVCAnalysisData@@@Z$15
	DD	0ffffffffH
	DD	FLAT:__unwindfunclet$??0CToolSingleton@@QAE@PAVCAnalysisData@@@Z$16
	DD	0ffffffffH
	DD	FLAT:__unwindfunclet$??0CToolSingleton@@QAE@PAVCAnalysisData@@@Z$17
	DD	0ffffffffH
	DD	FLAT:__unwindfunclet$??0CToolSingleton@@QAE@PAVCAnalysisData@@@Z$18
	DD	0ffffffffH
	DD	FLAT:__unwindfunclet$??0CToolSingleton@@QAE@PAVCAnalysisData@@@Z$19
	DD	0ffffffffH
	DD	FLAT:__unwindfunclet$??0CToolSingleton@@QAE@PAVCAnalysisData@@@Z$20
	DD	0ffffffffH
	DD	FLAT:__unwindfunclet$??0CToolSingleton@@QAE@PAVCAnalysisData@@@Z$21
	DD	0ffffffffH
	DD	FLAT:__unwindfunclet$??0CToolSingleton@@QAE@PAVCAnalysisData@@@Z$22
	DD	0ffffffffH
	DD	FLAT:__unwindfunclet$??0CToolSingleton@@QAE@PAVCAnalysisData@@@Z$23
	DD	0ffffffffH
	DD	FLAT:__unwindfunclet$??0CToolSingleton@@QAE@PAVCAnalysisData@@@Z$24
	DD	0ffffffffH
	DD	FLAT:__unwindfunclet$??0CToolSingleton@@QAE@PAVCAnalysisData@@@Z$25
	DD	0ffffffffH
	DD	FLAT:__unwindfunclet$??0CToolSingleton@@QAE@PAVCAnalysisData@@@Z$26
	DD	0ffffffffH
	DD	FLAT:__unwindfunclet$??0CToolSingleton@@QAE@PAVCAnalysisData@@@Z$27
	DD	0ffffffffH
	DD	FLAT:__unwindfunclet$??0CToolSingleton@@QAE@PAVCAnalysisData@@@Z$28
	DD	0ffffffffH
	DD	FLAT:__unwindfunclet$??0CToolSingleton@@QAE@PAVCAnalysisData@@@Z$29
	DD	0ffffffffH
	DD	FLAT:__unwindfunclet$??0CToolSingleton@@QAE@PAVCAnalysisData@@@Z$30
	DD	0ffffffffH
	DD	FLAT:__unwindfunclet$??0CToolSingleton@@QAE@PAVCAnalysisData@@@Z$31
	DD	0ffffffffH
	DD	FLAT:__unwindfunclet$??0CToolSingleton@@QAE@PAVCAnalysisData@@@Z$32
	DD	0ffffffffH
	DD	FLAT:__unwindfunclet$??0CToolSingleton@@QAE@PAVCAnalysisData@@@Z$33
	DD	0ffffffffH
	DD	FLAT:__unwindfunclet$??0CToolSingleton@@QAE@PAVCAnalysisData@@@Z$34
xdata$x	ENDS
; Function compile flags: /Ogtp
; File C:\Program Files (x86)\Microsoft Visual Studio\2019\Community\VC\Tools\MSVC\14.29.30133\include\deque
; File C:\Program Files (x86)\Microsoft Visual Studio\2019\Community\VC\Tools\MSVC\14.29.30133\include\utility
; File C:\Program Files (x86)\Microsoft Visual Studio\2019\Community\VC\Tools\MSVC\14.29.30133\include\xmemory
; File C:\Program Files (x86)\Microsoft Visual Studio\2019\Community\VC\Tools\MSVC\14.29.30133\include\utility
; File C:\Program Files (x86)\Microsoft Visual Studio\2019\Community\VC\Tools\MSVC\14.29.30133\include\xmemory
;	COMDAT ??1CGannFanTool@@QAE@XZ
_TEXT	SEGMENT
??1CGannFanTool@@QAE@XZ PROC				; CGannFanTool::~CGannFanTool, COMDAT
; _this$ = ecx
; File C:\Program Files (x86)\Microsoft Visual Studio\2019\Community\VC\Tools\MSVC\14.29.30133\include\deque

; 1332 :         _Tidy();

  00000	56		 push	 esi
  00001	8b f1		 mov	 esi, ecx
  00003	8d 8e 9c 00 00
	00		 lea	 ecx, DWORD PTR [esi+156]
  00009	ff 15 00 00 00
	00		 call	 DWORD PTR __imp_??1?$CStringT@DV?$StrTraitMFC_DLL@DV?$ChTraitsCRT@D@ATL@@@@@ATL@@QAE@XZ
  0000f	8d 4e 60	 lea	 ecx, DWORD PTR [esi+96]
  00012	ff 15 00 00 00
	00		 call	 DWORD PTR __imp_??1?$CStringT@DV?$StrTraitMFC_DLL@DV?$ChTraitsCRT@D@ATL@@@@@ATL@@QAE@XZ
  00018	8d 4e 5c	 lea	 ecx, DWORD PTR [esi+92]
  0001b	ff 15 00 00 00
	00		 call	 DWORD PTR __imp_??1?$CStringT@DV?$StrTraitMFC_DLL@DV?$ChTraitsCRT@D@ATL@@@@@ATL@@QAE@XZ
  00021	8d 4e 58	 lea	 ecx, DWORD PTR [esi+88]
  00024	ff 15 00 00 00
	00		 call	 DWORD PTR __imp_??1?$CStringT@DV?$StrTraitMFC_DLL@DV?$ChTraitsCRT@D@ATL@@@@@ATL@@QAE@XZ
  0002a	8d 4e 14	 lea	 ecx, DWORD PTR [esi+20]
  0002d	e8 00 00 00 00	 call	 ?_Tidy@?$deque@VCBlockRegion@@V?$allocator@VCBlockRegion@@@std@@@std@@AAEXXZ ; std::deque<CBlockRegion,std::allocator<CBlockRegion> >::_Tidy

; 861  :         _Tidy();

  00032	8d 4e 14	 lea	 ecx, DWORD PTR [esi+20]
  00035	e8 00 00 00 00	 call	 ?_Tidy@?$deque@VCBlockRegion@@V?$allocator@VCBlockRegion@@@std@@@std@@AAEXXZ ; std::deque<CBlockRegion,std::allocator<CBlockRegion> >::_Tidy
; File C:\Program Files (x86)\Microsoft Visual Studio\2019\Community\VC\Tools\MSVC\14.29.30133\include\utility

; 602  :     _Ty _Old_val = static_cast<_Ty&&>(_Val);

  0003a	8b 46 14	 mov	 eax, DWORD PTR [esi+20]
; File C:\Program Files (x86)\Microsoft Visual Studio\2019\Community\VC\Tools\MSVC\14.29.30133\include\xmemory

; 255  :         ::operator delete(_Ptr, _Bytes);

  0003d	6a 08		 push	 8
  0003f	50		 push	 eax
; File C:\Program Files (x86)\Microsoft Visual Studio\2019\Community\VC\Tools\MSVC\14.29.30133\include\utility

; 603  :     _Val         = static_cast<_Other&&>(_New_val);

  00040	c7 46 14 00 00
	00 00		 mov	 DWORD PTR [esi+20], 0
; File C:\Program Files (x86)\Microsoft Visual Studio\2019\Community\VC\Tools\MSVC\14.29.30133\include\xmemory

; 255  :         ::operator delete(_Ptr, _Bytes);

  00047	e8 00 00 00 00	 call	 ??3@YAXPAXI@Z		; operator delete
  0004c	83 c4 08	 add	 esp, 8
  0004f	5e		 pop	 esi
  00050	c3		 ret	 0
??1CGannFanTool@@QAE@XZ ENDP				; CGannFanTool::~CGannFanTool
_TEXT	ENDS
; Function compile flags: /Ogtp
; File C:\Program Files (x86)\Microsoft Visual Studio\2019\Community\VC\Tools\MSVC\14.29.30133\include\deque
; File C:\Program Files (x86)\Microsoft Visual Studio\2019\Community\VC\Tools\MSVC\14.29.30133\include\utility
; File C:\Program Files (x86)\Microsoft Visual Studio\2019\Community\VC\Tools\MSVC\14.29.30133\include\xmemory
; File C:\Program Files (x86)\Microsoft Visual Studio\2019\Community\VC\Tools\MSVC\14.29.30133\include\utility
; File C:\Program Files (x86)\Microsoft Visual Studio\2019\Community\VC\Tools\MSVC\14.29.30133\include\xmemory
;	COMDAT ??1CGannTool@@QAE@XZ
_TEXT	SEGMENT
??1CGannTool@@QAE@XZ PROC				; CGannTool::~CGannTool, COMDAT
; _this$ = ecx
; File C:\Program Files (x86)\Microsoft Visual Studio\2019\Community\VC\Tools\MSVC\14.29.30133\include\deque

; 1332 :         _Tidy();

  00000	56		 push	 esi
  00001	8b f1		 mov	 esi, ecx
  00003	8d 8e 9c 00 00
	00		 lea	 ecx, DWORD PTR [esi+156]
  00009	ff 15 00 00 00
	00		 call	 DWORD PTR __imp_??1?$CStringT@DV?$StrTraitMFC_DLL@DV?$ChTraitsCRT@D@ATL@@@@@ATL@@QAE@XZ
  0000f	8d 4e 60	 lea	 ecx, DWORD PTR [esi+96]
  00012	ff 15 00 00 00
	00		 call	 DWORD PTR __imp_??1?$CStringT@DV?$StrTraitMFC_DLL@DV?$ChTraitsCRT@D@ATL@@@@@ATL@@QAE@XZ
  00018	8d 4e 5c	 lea	 ecx, DWORD PTR [esi+92]
  0001b	ff 15 00 00 00
	00		 call	 DWORD PTR __imp_??1?$CStringT@DV?$StrTraitMFC_DLL@DV?$ChTraitsCRT@D@ATL@@@@@ATL@@QAE@XZ
  00021	8d 4e 58	 lea	 ecx, DWORD PTR [esi+88]
  00024	ff 15 00 00 00
	00		 call	 DWORD PTR __imp_??1?$CStringT@DV?$StrTraitMFC_DLL@DV?$ChTraitsCRT@D@ATL@@@@@ATL@@QAE@XZ
  0002a	8d 4e 14	 lea	 ecx, DWORD PTR [esi+20]
  0002d	e8 00 00 00 00	 call	 ?_Tidy@?$deque@VCBlockRegion@@V?$allocator@VCBlockRegion@@@std@@@std@@AAEXXZ ; std::deque<CBlockRegion,std::allocator<CBlockRegion> >::_Tidy

; 861  :         _Tidy();

  00032	8d 4e 14	 lea	 ecx, DWORD PTR [esi+20]
  00035	e8 00 00 00 00	 call	 ?_Tidy@?$deque@VCBlockRegion@@V?$allocator@VCBlockRegion@@@std@@@std@@AAEXXZ ; std::deque<CBlockRegion,std::allocator<CBlockRegion> >::_Tidy
; File C:\Program Files (x86)\Microsoft Visual Studio\2019\Community\VC\Tools\MSVC\14.29.30133\include\utility

; 602  :     _Ty _Old_val = static_cast<_Ty&&>(_Val);

  0003a	8b 46 14	 mov	 eax, DWORD PTR [esi+20]
; File C:\Program Files (x86)\Microsoft Visual Studio\2019\Community\VC\Tools\MSVC\14.29.30133\include\xmemory

; 255  :         ::operator delete(_Ptr, _Bytes);

  0003d	6a 08		 push	 8
  0003f	50		 push	 eax
; File C:\Program Files (x86)\Microsoft Visual Studio\2019\Community\VC\Tools\MSVC\14.29.30133\include\utility

; 603  :     _Val         = static_cast<_Other&&>(_New_val);

  00040	c7 46 14 00 00
	00 00		 mov	 DWORD PTR [esi+20], 0
; File C:\Program Files (x86)\Microsoft Visual Studio\2019\Community\VC\Tools\MSVC\14.29.30133\include\xmemory

; 255  :         ::operator delete(_Ptr, _Bytes);

  00047	e8 00 00 00 00	 call	 ??3@YAXPAXI@Z		; operator delete
  0004c	83 c4 08	 add	 esp, 8
  0004f	5e		 pop	 esi
  00050	c3		 ret	 0
??1CGannTool@@QAE@XZ ENDP				; CGannTool::~CGannTool
_TEXT	ENDS
; Function compile flags: /Ogtp
; File C:\Program Files (x86)\Microsoft Visual Studio\2019\Community\VC\Tools\MSVC\14.29.30133\include\deque
; File C:\Program Files (x86)\Microsoft Visual Studio\2019\Community\VC\Tools\MSVC\14.29.30133\include\utility
; File C:\Program Files (x86)\Microsoft Visual Studio\2019\Community\VC\Tools\MSVC\14.29.30133\include\xmemory
; File C:\Program Files (x86)\Microsoft Visual Studio\2019\Community\VC\Tools\MSVC\14.29.30133\include\utility
; File C:\Program Files (x86)\Microsoft Visual Studio\2019\Community\VC\Tools\MSVC\14.29.30133\include\xmemory
;	COMDAT ??1CThreePointDownTool@@QAE@XZ
_TEXT	SEGMENT
??1CThreePointDownTool@@QAE@XZ PROC			; CThreePointDownTool::~CThreePointDownTool, COMDAT
; _this$ = ecx
; File C:\Program Files (x86)\Microsoft Visual Studio\2019\Community\VC\Tools\MSVC\14.29.30133\include\deque

; 1332 :         _Tidy();

  00000	56		 push	 esi
  00001	8b f1		 mov	 esi, ecx
  00003	8d 8e ec 00 00
	00		 lea	 ecx, DWORD PTR [esi+236]
  00009	ff 15 00 00 00
	00		 call	 DWORD PTR __imp_??1?$CStringT@DV?$StrTraitMFC_DLL@DV?$ChTraitsCRT@D@ATL@@@@@ATL@@QAE@XZ
  0000f	8d 8e c4 00 00
	00		 lea	 ecx, DWORD PTR [esi+196]
  00015	ff 15 00 00 00
	00		 call	 DWORD PTR __imp_??1?$CStringT@DV?$StrTraitMFC_DLL@DV?$ChTraitsCRT@D@ATL@@@@@ATL@@QAE@XZ
  0001b	8d 8e 9c 00 00
	00		 lea	 ecx, DWORD PTR [esi+156]
  00021	ff 15 00 00 00
	00		 call	 DWORD PTR __imp_??1?$CStringT@DV?$StrTraitMFC_DLL@DV?$ChTraitsCRT@D@ATL@@@@@ATL@@QAE@XZ
  00027	8d 4e 60	 lea	 ecx, DWORD PTR [esi+96]
  0002a	ff 15 00 00 00
	00		 call	 DWORD PTR __imp_??1?$CStringT@DV?$StrTraitMFC_DLL@DV?$ChTraitsCRT@D@ATL@@@@@ATL@@QAE@XZ
  00030	8d 4e 5c	 lea	 ecx, DWORD PTR [esi+92]
  00033	ff 15 00 00 00
	00		 call	 DWORD PTR __imp_??1?$CStringT@DV?$StrTraitMFC_DLL@DV?$ChTraitsCRT@D@ATL@@@@@ATL@@QAE@XZ
  00039	8d 4e 58	 lea	 ecx, DWORD PTR [esi+88]
  0003c	ff 15 00 00 00
	00		 call	 DWORD PTR __imp_??1?$CStringT@DV?$StrTraitMFC_DLL@DV?$ChTraitsCRT@D@ATL@@@@@ATL@@QAE@XZ
  00042	8d 4e 14	 lea	 ecx, DWORD PTR [esi+20]
  00045	e8 00 00 00 00	 call	 ?_Tidy@?$deque@VCBlockRegion@@V?$allocator@VCBlockRegion@@@std@@@std@@AAEXXZ ; std::deque<CBlockRegion,std::allocator<CBlockRegion> >::_Tidy

; 861  :         _Tidy();

  0004a	8d 4e 14	 lea	 ecx, DWORD PTR [esi+20]
  0004d	e8 00 00 00 00	 call	 ?_Tidy@?$deque@VCBlockRegion@@V?$allocator@VCBlockRegion@@@std@@@std@@AAEXXZ ; std::deque<CBlockRegion,std::allocator<CBlockRegion> >::_Tidy
; File C:\Program Files (x86)\Microsoft Visual Studio\2019\Community\VC\Tools\MSVC\14.29.30133\include\utility

; 602  :     _Ty _Old_val = static_cast<_Ty&&>(_Val);

  00052	8b 46 14	 mov	 eax, DWORD PTR [esi+20]
; File C:\Program Files (x86)\Microsoft Visual Studio\2019\Community\VC\Tools\MSVC\14.29.30133\include\xmemory

; 255  :         ::operator delete(_Ptr, _Bytes);

  00055	6a 08		 push	 8
  00057	50		 push	 eax
; File C:\Program Files (x86)\Microsoft Visual Studio\2019\Community\VC\Tools\MSVC\14.29.30133\include\utility

; 603  :     _Val         = static_cast<_Other&&>(_New_val);

  00058	c7 46 14 00 00
	00 00		 mov	 DWORD PTR [esi+20], 0
; File C:\Program Files (x86)\Microsoft Visual Studio\2019\Community\VC\Tools\MSVC\14.29.30133\include\xmemory

; 255  :         ::operator delete(_Ptr, _Bytes);

  0005f	e8 00 00 00 00	 call	 ??3@YAXPAXI@Z		; operator delete
  00064	83 c4 08	 add	 esp, 8
  00067	5e		 pop	 esi
  00068	c3		 ret	 0
??1CThreePointDownTool@@QAE@XZ ENDP			; CThreePointDownTool::~CThreePointDownTool
_TEXT	ENDS
; Function compile flags: /Ogtp
; File C:\Program Files (x86)\Microsoft Visual Studio\2019\Community\VC\Tools\MSVC\14.29.30133\include\deque
; File C:\Program Files (x86)\Microsoft Visual Studio\2019\Community\VC\Tools\MSVC\14.29.30133\include\utility
; File C:\Program Files (x86)\Microsoft Visual Studio\2019\Community\VC\Tools\MSVC\14.29.30133\include\xmemory
; File C:\Program Files (x86)\Microsoft Visual Studio\2019\Community\VC\Tools\MSVC\14.29.30133\include\utility
; File C:\Program Files (x86)\Microsoft Visual Studio\2019\Community\VC\Tools\MSVC\14.29.30133\include\xmemory
;	COMDAT ??1CTwoPointDownTool@@QAE@XZ
_TEXT	SEGMENT
??1CTwoPointDownTool@@QAE@XZ PROC			; CTwoPointDownTool::~CTwoPointDownTool, COMDAT
; _this$ = ecx
; File C:\Program Files (x86)\Microsoft Visual Studio\2019\Community\VC\Tools\MSVC\14.29.30133\include\deque

; 1332 :         _Tidy();

  00000	56		 push	 esi
  00001	8b f1		 mov	 esi, ecx
  00003	8d 8e e4 00 00
	00		 lea	 ecx, DWORD PTR [esi+228]
  00009	ff 15 00 00 00
	00		 call	 DWORD PTR __imp_??1?$CStringT@DV?$StrTraitMFC_DLL@DV?$ChTraitsCRT@D@ATL@@@@@ATL@@QAE@XZ
  0000f	8d 8e bc 00 00
	00		 lea	 ecx, DWORD PTR [esi+188]
  00015	ff 15 00 00 00
	00		 call	 DWORD PTR __imp_??1?$CStringT@DV?$StrTraitMFC_DLL@DV?$ChTraitsCRT@D@ATL@@@@@ATL@@QAE@XZ
  0001b	8d 8e 80 00 00
	00		 lea	 ecx, DWORD PTR [esi+128]
  00021	e8 00 00 00 00	 call	 ??1CObList@@UAE@XZ	; CObList::~CObList
  00026	8d 4e 60	 lea	 ecx, DWORD PTR [esi+96]
  00029	ff 15 00 00 00
	00		 call	 DWORD PTR __imp_??1?$CStringT@DV?$StrTraitMFC_DLL@DV?$ChTraitsCRT@D@ATL@@@@@ATL@@QAE@XZ
  0002f	8d 4e 5c	 lea	 ecx, DWORD PTR [esi+92]
  00032	ff 15 00 00 00
	00		 call	 DWORD PTR __imp_??1?$CStringT@DV?$StrTraitMFC_DLL@DV?$ChTraitsCRT@D@ATL@@@@@ATL@@QAE@XZ
  00038	8d 4e 58	 lea	 ecx, DWORD PTR [esi+88]
  0003b	ff 15 00 00 00
	00		 call	 DWORD PTR __imp_??1?$CStringT@DV?$StrTraitMFC_DLL@DV?$ChTraitsCRT@D@ATL@@@@@ATL@@QAE@XZ
  00041	8d 4e 14	 lea	 ecx, DWORD PTR [esi+20]
  00044	e8 00 00 00 00	 call	 ?_Tidy@?$deque@VCBlockRegion@@V?$allocator@VCBlockRegion@@@std@@@std@@AAEXXZ ; std::deque<CBlockRegion,std::allocator<CBlockRegion> >::_Tidy

; 861  :         _Tidy();

  00049	8d 4e 14	 lea	 ecx, DWORD PTR [esi+20]
  0004c	e8 00 00 00 00	 call	 ?_Tidy@?$deque@VCBlockRegion@@V?$allocator@VCBlockRegion@@@std@@@std@@AAEXXZ ; std::deque<CBlockRegion,std::allocator<CBlockRegion> >::_Tidy
; File C:\Program Files (x86)\Microsoft Visual Studio\2019\Community\VC\Tools\MSVC\14.29.30133\include\utility

; 602  :     _Ty _Old_val = static_cast<_Ty&&>(_Val);

  00051	8b 46 14	 mov	 eax, DWORD PTR [esi+20]
; File C:\Program Files (x86)\Microsoft Visual Studio\2019\Community\VC\Tools\MSVC\14.29.30133\include\xmemory

; 255  :         ::operator delete(_Ptr, _Bytes);

  00054	6a 08		 push	 8
  00056	50		 push	 eax
; File C:\Program Files (x86)\Microsoft Visual Studio\2019\Community\VC\Tools\MSVC\14.29.30133\include\utility

; 603  :     _Val         = static_cast<_Other&&>(_New_val);

  00057	c7 46 14 00 00
	00 00		 mov	 DWORD PTR [esi+20], 0
; File C:\Program Files (x86)\Microsoft Visual Studio\2019\Community\VC\Tools\MSVC\14.29.30133\include\xmemory

; 255  :         ::operator delete(_Ptr, _Bytes);

  0005e	e8 00 00 00 00	 call	 ??3@YAXPAXI@Z		; operator delete
  00063	83 c4 08	 add	 esp, 8
  00066	5e		 pop	 esi
  00067	c3		 ret	 0
??1CTwoPointDownTool@@QAE@XZ ENDP			; CTwoPointDownTool::~CTwoPointDownTool
_TEXT	ENDS
; Function compile flags: /Ogtp
; File C:\Program Files (x86)\Microsoft Visual Studio\2019\Community\VC\Tools\MSVC\14.29.30133\include\deque
; File C:\Program Files (x86)\Microsoft Visual Studio\2019\Community\VC\Tools\MSVC\14.29.30133\include\utility
; File C:\Program Files (x86)\Microsoft Visual Studio\2019\Community\VC\Tools\MSVC\14.29.30133\include\xmemory
; File C:\Program Files (x86)\Microsoft Visual Studio\2019\Community\VC\Tools\MSVC\14.29.30133\include\utility
; File C:\Program Files (x86)\Microsoft Visual Studio\2019\Community\VC\Tools\MSVC\14.29.30133\include\xmemory
;	COMDAT ??1CDownTool@@QAE@XZ
_TEXT	SEGMENT
??1CDownTool@@QAE@XZ PROC				; CDownTool::~CDownTool, COMDAT
; _this$ = ecx
; File C:\Program Files (x86)\Microsoft Visual Studio\2019\Community\VC\Tools\MSVC\14.29.30133\include\deque

; 1332 :         _Tidy();

  00000	56		 push	 esi
  00001	8b f1		 mov	 esi, ecx
  00003	8d 4e 60	 lea	 ecx, DWORD PTR [esi+96]
  00006	ff 15 00 00 00
	00		 call	 DWORD PTR __imp_??1?$CStringT@DV?$StrTraitMFC_DLL@DV?$ChTraitsCRT@D@ATL@@@@@ATL@@QAE@XZ
  0000c	8d 4e 5c	 lea	 ecx, DWORD PTR [esi+92]
  0000f	ff 15 00 00 00
	00		 call	 DWORD PTR __imp_??1?$CStringT@DV?$StrTraitMFC_DLL@DV?$ChTraitsCRT@D@ATL@@@@@ATL@@QAE@XZ
  00015	8d 4e 58	 lea	 ecx, DWORD PTR [esi+88]
  00018	ff 15 00 00 00
	00		 call	 DWORD PTR __imp_??1?$CStringT@DV?$StrTraitMFC_DLL@DV?$ChTraitsCRT@D@ATL@@@@@ATL@@QAE@XZ
  0001e	8d 4e 14	 lea	 ecx, DWORD PTR [esi+20]
  00021	e8 00 00 00 00	 call	 ?_Tidy@?$deque@VCBlockRegion@@V?$allocator@VCBlockRegion@@@std@@@std@@AAEXXZ ; std::deque<CBlockRegion,std::allocator<CBlockRegion> >::_Tidy

; 861  :         _Tidy();

  00026	8d 4e 14	 lea	 ecx, DWORD PTR [esi+20]
  00029	e8 00 00 00 00	 call	 ?_Tidy@?$deque@VCBlockRegion@@V?$allocator@VCBlockRegion@@@std@@@std@@AAEXXZ ; std::deque<CBlockRegion,std::allocator<CBlockRegion> >::_Tidy
; File C:\Program Files (x86)\Microsoft Visual Studio\2019\Community\VC\Tools\MSVC\14.29.30133\include\utility

; 602  :     _Ty _Old_val = static_cast<_Ty&&>(_Val);

  0002e	8b 46 14	 mov	 eax, DWORD PTR [esi+20]
; File C:\Program Files (x86)\Microsoft Visual Studio\2019\Community\VC\Tools\MSVC\14.29.30133\include\xmemory

; 255  :         ::operator delete(_Ptr, _Bytes);

  00031	6a 08		 push	 8
  00033	50		 push	 eax
; File C:\Program Files (x86)\Microsoft Visual Studio\2019\Community\VC\Tools\MSVC\14.29.30133\include\utility

; 603  :     _Val         = static_cast<_Other&&>(_New_val);

  00034	c7 46 14 00 00
	00 00		 mov	 DWORD PTR [esi+20], 0
; File C:\Program Files (x86)\Microsoft Visual Studio\2019\Community\VC\Tools\MSVC\14.29.30133\include\xmemory

; 255  :         ::operator delete(_Ptr, _Bytes);

  0003b	e8 00 00 00 00	 call	 ??3@YAXPAXI@Z		; operator delete
  00040	83 c4 08	 add	 esp, 8
  00043	5e		 pop	 esi
  00044	c3		 ret	 0
??1CDownTool@@QAE@XZ ENDP				; CDownTool::~CDownTool
_TEXT	ENDS
; Function compile flags: /Ogtp
; File C:\Program Files (x86)\Microsoft Visual Studio\2019\Community\VC\Tools\MSVC\14.29.30133\include\deque
; File C:\Program Files (x86)\Microsoft Visual Studio\2019\Community\VC\Tools\MSVC\14.29.30133\include\utility
; File C:\Program Files (x86)\Microsoft Visual Studio\2019\Community\VC\Tools\MSVC\14.29.30133\include\xmemory
; File C:\Program Files (x86)\Microsoft Visual Studio\2019\Community\VC\Tools\MSVC\14.29.30133\include\utility
; File C:\Program Files (x86)\Microsoft Visual Studio\2019\Community\VC\Tools\MSVC\14.29.30133\include\xmemory
;	COMDAT ??1COnePointMoveTool@@QAE@XZ
_TEXT	SEGMENT
??1COnePointMoveTool@@QAE@XZ PROC			; COnePointMoveTool::~COnePointMoveTool, COMDAT
; _this$ = ecx
; File C:\Program Files (x86)\Microsoft Visual Studio\2019\Community\VC\Tools\MSVC\14.29.30133\include\deque

; 1332 :         _Tidy();

  00000	56		 push	 esi
  00001	8b f1		 mov	 esi, ecx
  00003	8d 8e 9c 00 00
	00		 lea	 ecx, DWORD PTR [esi+156]
  00009	ff 15 00 00 00
	00		 call	 DWORD PTR __imp_??1?$CStringT@DV?$StrTraitMFC_DLL@DV?$ChTraitsCRT@D@ATL@@@@@ATL@@QAE@XZ
  0000f	8d 4e 60	 lea	 ecx, DWORD PTR [esi+96]
  00012	ff 15 00 00 00
	00		 call	 DWORD PTR __imp_??1?$CStringT@DV?$StrTraitMFC_DLL@DV?$ChTraitsCRT@D@ATL@@@@@ATL@@QAE@XZ
  00018	8d 4e 5c	 lea	 ecx, DWORD PTR [esi+92]
  0001b	ff 15 00 00 00
	00		 call	 DWORD PTR __imp_??1?$CStringT@DV?$StrTraitMFC_DLL@DV?$ChTraitsCRT@D@ATL@@@@@ATL@@QAE@XZ
  00021	8d 4e 58	 lea	 ecx, DWORD PTR [esi+88]
  00024	ff 15 00 00 00
	00		 call	 DWORD PTR __imp_??1?$CStringT@DV?$StrTraitMFC_DLL@DV?$ChTraitsCRT@D@ATL@@@@@ATL@@QAE@XZ
  0002a	8d 4e 14	 lea	 ecx, DWORD PTR [esi+20]
  0002d	e8 00 00 00 00	 call	 ?_Tidy@?$deque@VCBlockRegion@@V?$allocator@VCBlockRegion@@@std@@@std@@AAEXXZ ; std::deque<CBlockRegion,std::allocator<CBlockRegion> >::_Tidy

; 861  :         _Tidy();

  00032	8d 4e 14	 lea	 ecx, DWORD PTR [esi+20]
  00035	e8 00 00 00 00	 call	 ?_Tidy@?$deque@VCBlockRegion@@V?$allocator@VCBlockRegion@@@std@@@std@@AAEXXZ ; std::deque<CBlockRegion,std::allocator<CBlockRegion> >::_Tidy
; File C:\Program Files (x86)\Microsoft Visual Studio\2019\Community\VC\Tools\MSVC\14.29.30133\include\utility

; 602  :     _Ty _Old_val = static_cast<_Ty&&>(_Val);

  0003a	8b 46 14	 mov	 eax, DWORD PTR [esi+20]
; File C:\Program Files (x86)\Microsoft Visual Studio\2019\Community\VC\Tools\MSVC\14.29.30133\include\xmemory

; 255  :         ::operator delete(_Ptr, _Bytes);

  0003d	6a 08		 push	 8
  0003f	50		 push	 eax
; File C:\Program Files (x86)\Microsoft Visual Studio\2019\Community\VC\Tools\MSVC\14.29.30133\include\utility

; 603  :     _Val         = static_cast<_Other&&>(_New_val);

  00040	c7 46 14 00 00
	00 00		 mov	 DWORD PTR [esi+20], 0
; File C:\Program Files (x86)\Microsoft Visual Studio\2019\Community\VC\Tools\MSVC\14.29.30133\include\xmemory

; 255  :         ::operator delete(_Ptr, _Bytes);

  00047	e8 00 00 00 00	 call	 ??3@YAXPAXI@Z		; operator delete
  0004c	83 c4 08	 add	 esp, 8
  0004f	5e		 pop	 esi
  00050	c3		 ret	 0
??1COnePointMoveTool@@QAE@XZ ENDP			; COnePointMoveTool::~COnePointMoveTool
_TEXT	ENDS
; Function compile flags: /Ogtp
;	COMDAT ??1CPoints@@QAE@XZ
_TEXT	SEGMENT
??1CPoints@@QAE@XZ PROC					; CPoints::~CPoints, COMDAT
; _this$ = ecx
  00000	83 c1 14	 add	 ecx, 20			; 00000014H
  00003	ff 25 00 00 00
	00		 jmp	 DWORD PTR __imp_??1?$CStringT@DV?$StrTraitMFC_DLL@DV?$ChTraitsCRT@D@ATL@@@@@ATL@@QAE@XZ
??1CPoints@@QAE@XZ ENDP					; CPoints::~CPoints
_TEXT	ENDS
; Function compile flags: /Ogtp
; File C:\Program Files (x86)\Microsoft Visual Studio\2019\Community\VC\Tools\MSVC\14.29.30133\include\deque
; File C:\Program Files (x86)\Microsoft Visual Studio\2019\Community\VC\Tools\MSVC\14.29.30133\include\xmemory
; File C:\Program Files (x86)\Microsoft Visual Studio\2019\Community\VC\Tools\MSVC\14.29.30133\include\deque
; File C:\Program Files (x86)\Microsoft Visual Studio\2019\Community\VC\Tools\MSVC\14.29.30133\include\xmemory
; File C:\Program Files (x86)\Microsoft Visual Studio\2019\Community\VC\Tools\MSVC\14.29.30133\include\deque
; File C:\Program Files (x86)\Microsoft Visual Studio\2019\Community\VC\Tools\MSVC\14.29.30133\include\xmemory
; File C:\Program Files (x86)\Microsoft Visual Studio\2019\Community\VC\Tools\MSVC\14.29.30133\include\deque
;	COMDAT ?_Tidy@?$deque@VCBlockRegion@@V?$allocator@VCBlockRegion@@@std@@@std@@AAEXXZ
_TEXT	SEGMENT
?_Tidy@?$deque@VCBlockRegion@@V?$allocator@VCBlockRegion@@@std@@@std@@AAEXXZ PROC ; std::deque<CBlockRegion,std::allocator<CBlockRegion> >::_Tidy, COMDAT
; _this$ = ecx

; 1471 :     void _Tidy() noexcept { // free all storage

  00000	57		 push	 edi
  00001	8b f9		 mov	 edi, ecx

; 1002 :         return _Mysize() == 0;

  00003	8b 4f 10	 mov	 ecx, DWORD PTR [edi+16]
  00006	85 c9		 test	 ecx, ecx

; 1472 :         _Orphan_all();
; 1473 : 
; 1474 :         _Alpty _Almap(_Getal());
; 1475 :         while (!empty()) {

  00008	74 15		 je	 SHORT $LN60@Tidy
  0000a	66 0f 1f 44 00
	00		 npad	 6
$LL2@Tidy:

; 1146 :         if (--_Mysize() == 0) {

  00010	8d 41 ff	 lea	 eax, DWORD PTR [ecx-1]
  00013	89 47 10	 mov	 DWORD PTR [edi+16], eax
  00016	8b c8		 mov	 ecx, eax
  00018	85 c0		 test	 eax, eax
  0001a	75 f4		 jne	 SHORT $LL2@Tidy

; 1147 :             _Myoff() = 0;

  0001c	89 47 0c	 mov	 DWORD PTR [edi+12], eax
$LN60@Tidy:
  0001f	56		 push	 esi

; 1479 :         for (size_type _Block = _Mapsize(); 0 < _Block;) { // free storage for a block and destroy pointer

  00020	8b 77 08	 mov	 esi, DWORD PTR [edi+8]
  00023	85 f6		 test	 esi, esi
  00025	74 1a		 je	 SHORT $LN5@Tidy
$LL4@Tidy:

; 1480 :             if (_Map()[--_Block]) { // free block and destroy its pointer

  00027	8b 47 04	 mov	 eax, DWORD PTR [edi+4]
  0002a	4e		 dec	 esi
  0002b	8b 04 b0	 mov	 eax, DWORD PTR [eax+esi*4]
  0002e	85 c0		 test	 eax, eax
  00030	74 0b		 je	 SHORT $LN23@Tidy
; File C:\Program Files (x86)\Microsoft Visual Studio\2019\Community\VC\Tools\MSVC\14.29.30133\include\xmemory

; 255  :         ::operator delete(_Ptr, _Bytes);

  00032	6a 60		 push	 96			; 00000060H
  00034	50		 push	 eax
  00035	e8 00 00 00 00	 call	 ??3@YAXPAXI@Z		; operator delete
  0003a	83 c4 08	 add	 esp, 8
$LN23@Tidy:
; File C:\Program Files (x86)\Microsoft Visual Studio\2019\Community\VC\Tools\MSVC\14.29.30133\include\deque

; 1479 :         for (size_type _Block = _Mapsize(); 0 < _Block;) { // free storage for a block and destroy pointer

  0003d	85 f6		 test	 esi, esi
  0003f	75 e6		 jne	 SHORT $LL4@Tidy
$LN5@Tidy:

; 1481 :                 _Getal().deallocate(_Map()[_Block], _Block_size);
; 1482 :                 _Destroy_in_place(_Map()[_Block]);
; 1483 :             }
; 1484 :         }
; 1485 : 
; 1486 :         if (_Map() != _Mapptr()) {

  00041	8b 47 04	 mov	 eax, DWORD PTR [edi+4]
  00044	5e		 pop	 esi
  00045	85 c0		 test	 eax, eax
  00047	74 2a		 je	 SHORT $LN41@Tidy
; File C:\Program Files (x86)\Microsoft Visual Studio\2019\Community\VC\Tools\MSVC\14.29.30133\include\xmemory

; 797  :         _Deallocate<_New_alignof<_Ty>>(_Ptr, sizeof(_Ty) * _Count);

  00049	8b 4f 08	 mov	 ecx, DWORD PTR [edi+8]
  0004c	c1 e1 02	 shl	 ecx, 2

; 251  :         if (_Bytes >= _Big_allocation_threshold) { // boost the alignment of big allocations to help autovectorization

  0004f	81 f9 00 10 00
	00		 cmp	 ecx, 4096		; 00001000H
  00055	72 12		 jb	 SHORT $LN51@Tidy

; 150  :     const uintptr_t _Ptr_container   = _Ptr_user[-1];

  00057	8b 50 fc	 mov	 edx, DWORD PTR [eax-4]
  0005a	83 c1 23	 add	 ecx, 35			; 00000023H

; 151  : 
; 152  :     // If the following asserts, it likely means that we are performing
; 153  :     // an aligned delete on memory coming from an unaligned allocation.
; 154  :     _STL_ASSERT(_Ptr_user[-2] == _Big_allocation_sentinel, "invalid argument");
; 155  : 
; 156  :     // Extra paranoia on aligned allocation/deallocation; ensure _Ptr_container is
; 157  :     // in range [_Min_back_shift, _Non_user_size]
; 158  : #ifdef _DEBUG
; 159  :     constexpr uintptr_t _Min_back_shift = 2 * sizeof(void*);
; 160  : #else // ^^^ _DEBUG ^^^ // vvv !_DEBUG vvv
; 161  :     constexpr uintptr_t _Min_back_shift = sizeof(void*);
; 162  : #endif // _DEBUG
; 163  :     const uintptr_t _Back_shift = reinterpret_cast<uintptr_t>(_Ptr) - _Ptr_container;

  0005d	2b c2		 sub	 eax, edx

; 164  :     _STL_VERIFY(_Back_shift >= _Min_back_shift && _Back_shift <= _Non_user_size, "invalid argument");

  0005f	83 c0 fc	 add	 eax, -4			; fffffffcH
  00062	83 f8 1f	 cmp	 eax, 31			; 0000001fH
  00065	77 1c		 ja	 SHORT $LN48@Tidy

; 165  :     _Ptr = reinterpret_cast<void*>(_Ptr_container);

  00067	8b c2		 mov	 eax, edx
$LN51@Tidy:

; 255  :         ::operator delete(_Ptr, _Bytes);

  00069	51		 push	 ecx
  0006a	50		 push	 eax
  0006b	e8 00 00 00 00	 call	 ??3@YAXPAXI@Z		; operator delete
  00070	83 c4 08	 add	 esp, 8
$LN41@Tidy:
; File C:\Program Files (x86)\Microsoft Visual Studio\2019\Community\VC\Tools\MSVC\14.29.30133\include\deque

; 1490 :         _Mapsize() = 0;

  00073	c7 47 08 00 00
	00 00		 mov	 DWORD PTR [edi+8], 0

; 1491 :         _Map()     = _Mapptr();

  0007a	c7 47 04 00 00
	00 00		 mov	 DWORD PTR [edi+4], 0
  00081	5f		 pop	 edi

; 1492 :     }

  00082	c3		 ret	 0
$LN48@Tidy:
; File C:\Program Files (x86)\Microsoft Visual Studio\2019\Community\VC\Tools\MSVC\14.29.30133\include\xmemory

; 164  :     _STL_VERIFY(_Back_shift >= _Min_back_shift && _Back_shift <= _Non_user_size, "invalid argument");

  00083	ff 15 00 00 00
	00		 call	 DWORD PTR __imp___invalid_parameter_noinfo_noreturn
$LN62@Tidy:
  00089	cc		 int	 3
?_Tidy@?$deque@VCBlockRegion@@V?$allocator@VCBlockRegion@@@std@@@std@@AAEXXZ ENDP ; std::deque<CBlockRegion,std::allocator<CBlockRegion> >::_Tidy
_TEXT	ENDS
; Function compile flags: /Ogtp
; File D:\git\src\IBK\IBK_DRFN\ProjSrc\SrcChartEx\ChartAddIn\ChartAnalysisToolAddIn\AnalysisTool\ToolSingleton.cpp
;	COMDAT ?SetBalanceCoefficientEnv@CToolSingleton@@AAEXPAVCTool@@ABV?$CStringT@DV?$StrTraitMFC_DLL@DV?$ChTraitsCRT@D@ATL@@@@@ATL@@@Z
_TEXT	SEGMENT
_pTool$ = 8						; size = 4
_strBalanceCoefficient$ = 12				; size = 4
?SetBalanceCoefficientEnv@CToolSingleton@@AAEXPAVCTool@@ABV?$CStringT@DV?$StrTraitMFC_DLL@DV?$ChTraitsCRT@D@ATL@@@@@ATL@@@Z PROC ; CToolSingleton::SetBalanceCoefficientEnv, COMDAT
; _this$ = ecx

; 951  : {

  00000	55		 push	 ebp
  00001	8b ec		 mov	 ebp, esp

; 952  : 	if(pTool == NULL)

  00003	8b 4d 08	 mov	 ecx, DWORD PTR _pTool$[ebp]
  00006	85 c9		 test	 ecx, ecx
  00008	74 16		 je	 SHORT $LN1@SetBalance

; 953  : 		return;
; 954  : 	
; 955  : 	pTool->GetElementCommonEnvironment().GetDataType().SetExtData(strBalanceCoefficient);

  0000a	ff 75 0c	 push	 DWORD PTR _strBalanceCoefficient$[ebp]
  0000d	e8 00 00 00 00	 call	 ?GetElementCommonEnvironment@CTool@@QAEAAVCElementCommonEnvironment@@XZ ; CTool::GetElementCommonEnvironment
  00012	8b c8		 mov	 ecx, eax
  00014	e8 00 00 00 00	 call	 ?GetDataType@CElementCommonEnvironment@@QAEAAVCDataTypeEnvironment@@XZ ; CElementCommonEnvironment::GetDataType
  00019	8b c8		 mov	 ecx, eax
  0001b	e8 00 00 00 00	 call	 ?SetExtData@CDataTypeEnvironment@@QAEXABV?$CStringT@DV?$StrTraitMFC_DLL@DV?$ChTraitsCRT@D@ATL@@@@@ATL@@@Z ; CDataTypeEnvironment::SetExtData
$LN1@SetBalance:

; 956  : }

  00020	5d		 pop	 ebp
  00021	c2 08 00	 ret	 8
?SetBalanceCoefficientEnv@CToolSingleton@@AAEXPAVCTool@@ABV?$CStringT@DV?$StrTraitMFC_DLL@DV?$ChTraitsCRT@D@ATL@@@@@ATL@@@Z ENDP ; CToolSingleton::SetBalanceCoefficientEnv
_TEXT	ENDS
; Function compile flags: /Ogtp
; File D:\git\src\IBK\IBK_DRFN\ProjSrc\SrcChartEx\ChartAddIn\ChartAnalysisToolAddIn\AnalysisTool\ToolSingleton.cpp
;	COMDAT ?SetFiboCoefficientEnv@CToolSingleton@@AAEXPAVCTool@@ABV?$CStringT@DV?$StrTraitMFC_DLL@DV?$ChTraitsCRT@D@ATL@@@@@ATL@@@Z
_TEXT	SEGMENT
_pTool$ = 8						; size = 4
_strFiboCoefficient$ = 12				; size = 4
?SetFiboCoefficientEnv@CToolSingleton@@AAEXPAVCTool@@ABV?$CStringT@DV?$StrTraitMFC_DLL@DV?$ChTraitsCRT@D@ATL@@@@@ATL@@@Z PROC ; CToolSingleton::SetFiboCoefficientEnv, COMDAT
; _this$ = ecx

; 942  : {

  00000	55		 push	 ebp
  00001	8b ec		 mov	 ebp, esp

; 943  : 	if(pTool == NULL)

  00003	8b 4d 08	 mov	 ecx, DWORD PTR _pTool$[ebp]
  00006	85 c9		 test	 ecx, ecx
  00008	74 16		 je	 SHORT $LN1@SetFiboCoe

; 944  : 		return;
; 945  : 
; 946  : 	pTool->GetElementCommonEnvironment().GetDataType().SetExtData(strFiboCoefficient);

  0000a	ff 75 0c	 push	 DWORD PTR _strFiboCoefficient$[ebp]
  0000d	e8 00 00 00 00	 call	 ?GetElementCommonEnvironment@CTool@@QAEAAVCElementCommonEnvironment@@XZ ; CTool::GetElementCommonEnvironment
  00012	8b c8		 mov	 ecx, eax
  00014	e8 00 00 00 00	 call	 ?GetDataType@CElementCommonEnvironment@@QAEAAVCDataTypeEnvironment@@XZ ; CElementCommonEnvironment::GetDataType
  00019	8b c8		 mov	 ecx, eax
  0001b	e8 00 00 00 00	 call	 ?SetExtData@CDataTypeEnvironment@@QAEXABV?$CStringT@DV?$StrTraitMFC_DLL@DV?$ChTraitsCRT@D@ATL@@@@@ATL@@@Z ; CDataTypeEnvironment::SetExtData
$LN1@SetFiboCoe:

; 947  : }

  00020	5d		 pop	 ebp
  00021	c2 08 00	 ret	 8
?SetFiboCoefficientEnv@CToolSingleton@@AAEXPAVCTool@@ABV?$CStringT@DV?$StrTraitMFC_DLL@DV?$ChTraitsCRT@D@ATL@@@@@ATL@@@Z ENDP ; CToolSingleton::SetFiboCoefficientEnv
_TEXT	ENDS
; Function compile flags: /Ogtp
; File D:\git\src\IBK\IBK_DRFN\ProjSrc\SrcChartEx\ChartAddIn\ChartAnalysisToolAddIn\AnalysisTool\ToolSingleton.cpp
;	COMDAT ?SetBasePenStyle@CToolSingleton@@AAEXPAVCTool@@H@Z
_TEXT	SEGMENT
_pTool$ = 8						; size = 4
_nStyle$ = 12						; size = 4
?SetBasePenStyle@CToolSingleton@@AAEXPAVCTool@@H@Z PROC	; CToolSingleton::SetBasePenStyle, COMDAT
; _this$ = ecx

; 908  : {

  00000	55		 push	 ebp
  00001	8b ec		 mov	 ebp, esp

; 909  : 	if(pTool == NULL)

  00003	8b 4d 08	 mov	 ecx, DWORD PTR _pTool$[ebp]
  00006	85 c9		 test	 ecx, ecx
  00008	74 16		 je	 SHORT $LN1@SetBasePen

; 910  : 		return;
; 911  : 
; 912  : 	pTool->GetElementCommonEnvironment().GetPen().SetStyle((CToolEnumData::PenStyle) nStyle);

  0000a	ff 75 0c	 push	 DWORD PTR _nStyle$[ebp]
  0000d	e8 00 00 00 00	 call	 ?GetElementCommonEnvironment@CTool@@QAEAAVCElementCommonEnvironment@@XZ ; CTool::GetElementCommonEnvironment
  00012	8b c8		 mov	 ecx, eax
  00014	e8 00 00 00 00	 call	 ?GetPen@CElementCommonEnvironment@@QAEAAVCPenEnvironment@@XZ ; CElementCommonEnvironment::GetPen
  00019	8b c8		 mov	 ecx, eax
  0001b	e8 00 00 00 00	 call	 ?SetStyle@CPenEnvironment@@QAEXW4PenStyle@CToolEnumData@@@Z ; CPenEnvironment::SetStyle
$LN1@SetBasePen:

; 913  : }

  00020	5d		 pop	 ebp
  00021	c2 08 00	 ret	 8
?SetBasePenStyle@CToolSingleton@@AAEXPAVCTool@@H@Z ENDP	; CToolSingleton::SetBasePenStyle
_TEXT	ENDS
; Function compile flags: /Ogtp
; File D:\git\src\IBK\IBK_DRFN\ProjSrc\SrcChartEx\ChartAddIn\ChartAnalysisToolAddIn\AnalysisTool\ToolSingleton.cpp
;	COMDAT ?SetBasePenThickness@CToolSingleton@@AAEXPAVCTool@@H@Z
_TEXT	SEGMENT
_pTool$ = 8						; size = 4
_nThickness$ = 12					; size = 4
?SetBasePenThickness@CToolSingleton@@AAEXPAVCTool@@H@Z PROC ; CToolSingleton::SetBasePenThickness, COMDAT
; _this$ = ecx

; 900  : {

  00000	55		 push	 ebp
  00001	8b ec		 mov	 ebp, esp

; 901  : 	if(pTool == NULL)

  00003	8b 4d 08	 mov	 ecx, DWORD PTR _pTool$[ebp]
  00006	85 c9		 test	 ecx, ecx
  00008	74 16		 je	 SHORT $LN1@SetBasePen

; 902  : 		return;
; 903  : 
; 904  : 	pTool->GetElementCommonEnvironment().GetPen().SetWidth(nThickness);

  0000a	ff 75 0c	 push	 DWORD PTR _nThickness$[ebp]
  0000d	e8 00 00 00 00	 call	 ?GetElementCommonEnvironment@CTool@@QAEAAVCElementCommonEnvironment@@XZ ; CTool::GetElementCommonEnvironment
  00012	8b c8		 mov	 ecx, eax
  00014	e8 00 00 00 00	 call	 ?GetPen@CElementCommonEnvironment@@QAEAAVCPenEnvironment@@XZ ; CElementCommonEnvironment::GetPen
  00019	8b c8		 mov	 ecx, eax
  0001b	e8 00 00 00 00	 call	 ?SetWidth@CPenEnvironment@@QAEXH@Z ; CPenEnvironment::SetWidth
$LN1@SetBasePen:

; 905  : }

  00020	5d		 pop	 ebp
  00021	c2 08 00	 ret	 8
?SetBasePenThickness@CToolSingleton@@AAEXPAVCTool@@H@Z ENDP ; CToolSingleton::SetBasePenThickness
_TEXT	ENDS
; Function compile flags: /Ogtp
; File D:\git\src\IBK\IBK_DRFN\ProjSrc\SrcChartEx\ChartAddIn\ChartAnalysisToolAddIn\AnalysisTool\ToolSingleton.cpp
;	COMDAT ?SetBasePenColor@CToolSingleton@@AAEXPAVCTool@@ABK@Z
_TEXT	SEGMENT
_pTool$ = 8						; size = 4
_color$ = 12						; size = 4
?SetBasePenColor@CToolSingleton@@AAEXPAVCTool@@ABK@Z PROC ; CToolSingleton::SetBasePenColor, COMDAT
; _this$ = ecx

; 892  : {

  00000	55		 push	 ebp
  00001	8b ec		 mov	 ebp, esp

; 893  : 	if(pTool == NULL)

  00003	8b 4d 08	 mov	 ecx, DWORD PTR _pTool$[ebp]
  00006	85 c9		 test	 ecx, ecx
  00008	74 08		 je	 SHORT $LN1@SetBasePen

; 894  : 		return;
; 895  : 
; 896  : 	pTool->SetPenColor(color);

  0000a	ff 75 0c	 push	 DWORD PTR _color$[ebp]
  0000d	e8 00 00 00 00	 call	 ?SetPenColor@CTool@@QAEXABK@Z ; CTool::SetPenColor
$LN1@SetBasePen:

; 897  : }

  00012	5d		 pop	 ebp
  00013	c2 08 00	 ret	 8
?SetBasePenColor@CToolSingleton@@AAEXPAVCTool@@ABK@Z ENDP ; CToolSingleton::SetBasePenColor
_TEXT	ENDS
; Function compile flags: /Ogtp
; File D:\git\src\IBK\IBK_DRFN\ProjSrc\SrcChartEx\ChartAddIn\ChartAnalysisToolAddIn\AnalysisTool\ToolSingleton.cpp
;	COMDAT ?SetBaseColor@CToolSingleton@@AAEXPAVCTool@@ABK1@Z
_TEXT	SEGMENT
_pTool$ = 8						; size = 4
_penColor$ = 12						; size = 4
_textColor$ = 16					; size = 4
?SetBaseColor@CToolSingleton@@AAEXPAVCTool@@ABK1@Z PROC	; CToolSingleton::SetBaseColor, COMDAT
; _this$ = ecx

; 883  : {

  00000	55		 push	 ebp
  00001	8b ec		 mov	 ebp, esp
  00003	56		 push	 esi

; 884  : 	if(pTool == NULL)

  00004	8b 75 08	 mov	 esi, DWORD PTR _pTool$[ebp]
  00007	85 f6		 test	 esi, esi
  00009	74 14		 je	 SHORT $LN1@SetBaseCol

; 885  : 		return;
; 886  : 
; 887  : 	pTool->SetPenColor(penColor);

  0000b	ff 75 0c	 push	 DWORD PTR _penColor$[ebp]
  0000e	8b ce		 mov	 ecx, esi
  00010	e8 00 00 00 00	 call	 ?SetPenColor@CTool@@QAEXABK@Z ; CTool::SetPenColor

; 888  : 	pTool->SetTextColor(textColor);

  00015	ff 75 10	 push	 DWORD PTR _textColor$[ebp]
  00018	8b ce		 mov	 ecx, esi
  0001a	e8 00 00 00 00	 call	 ?SetTextColor@CTool@@QAEXABK@Z ; CTool::SetTextColor
$LN1@SetBaseCol:
  0001f	5e		 pop	 esi

; 889  : }

  00020	5d		 pop	 ebp
  00021	c2 0c 00	 ret	 12			; 0000000cH
?SetBaseColor@CToolSingleton@@AAEXPAVCTool@@ABK1@Z ENDP	; CToolSingleton::SetBaseColor
_TEXT	ENDS
; Function compile flags: /Ogtp
; File D:\git\src\IBK\IBK_DRFN\ProjSrc\SrcChartEx\ChartAddIn\ChartAnalysisToolAddIn\AnalysisTool\ToolSingleton.cpp
;	COMDAT ?SetAutoPrice@CToolSingleton@@AAEXPAVCTool@@_N@Z
_TEXT	SEGMENT
_pTool$ = 8						; size = 4
_bIsAutoPrice$ = 12					; size = 1
?SetAutoPrice@CToolSingleton@@AAEXPAVCTool@@_N@Z PROC	; CToolSingleton::SetAutoPrice, COMDAT
; _this$ = ecx

; 875  : {

  00000	55		 push	 ebp
  00001	8b ec		 mov	 ebp, esp

; 876  : 	if(pTool == NULL)

  00003	8b 4d 08	 mov	 ecx, DWORD PTR _pTool$[ebp]
  00006	85 c9		 test	 ecx, ecx
  00008	74 08		 je	 SHORT $LN1@SetAutoPri

; 877  : 		return;
; 878  : 
; 879  : 	pTool->SetAutoPrice(bIsAutoPrice);

  0000a	ff 75 0c	 push	 DWORD PTR _bIsAutoPrice$[ebp]
  0000d	e8 00 00 00 00	 call	 ?SetAutoPrice@CTool@@QAEX_N@Z ; CTool::SetAutoPrice
$LN1@SetAutoPri:

; 880  : }

  00012	5d		 pop	 ebp
  00013	c2 08 00	 ret	 8
?SetAutoPrice@CToolSingleton@@AAEXPAVCTool@@_N@Z ENDP	; CToolSingleton::SetAutoPrice
_TEXT	ENDS
; Function compile flags: /Ogtp
; File D:\git\src\IBK\IBK_DRFN\ProjSrc\SrcChartEx\ChartAddIn\ChartAnalysisToolAddIn\AnalysisTool\ToolSingleton.cpp
;	COMDAT ?SetCoordinateType@CToolSingleton@@AAEXPAVCTool@@W4COORDINATETYPE@CAnalysis@@@Z
_TEXT	SEGMENT
_pTool$ = 8						; size = 4
_eCoordinateType$ = 12					; size = 4
?SetCoordinateType@CToolSingleton@@AAEXPAVCTool@@W4COORDINATETYPE@CAnalysis@@@Z PROC ; CToolSingleton::SetCoordinateType, COMDAT
; _this$ = ecx

; 867  : {

  00000	55		 push	 ebp
  00001	8b ec		 mov	 ebp, esp

; 868  : 	if(pTool == NULL)

  00003	8b 4d 08	 mov	 ecx, DWORD PTR _pTool$[ebp]
  00006	85 c9		 test	 ecx, ecx
  00008	74 08		 je	 SHORT $LN1@SetCoordin

; 869  : 		return;
; 870  : 
; 871  : 	pTool->SetCoordinateType(eCoordinateType);

  0000a	ff 75 0c	 push	 DWORD PTR _eCoordinateType$[ebp]
  0000d	e8 00 00 00 00	 call	 ?SetCoordinateType@CTool@@QAEXW4COORDINATETYPE@CAnalysis@@@Z ; CTool::SetCoordinateType
$LN1@SetCoordin:

; 872  : }

  00012	5d		 pop	 ebp
  00013	c2 08 00	 ret	 8
?SetCoordinateType@CToolSingleton@@AAEXPAVCTool@@W4COORDINATETYPE@CAnalysis@@@Z ENDP ; CToolSingleton::SetCoordinateType
_TEXT	ENDS
; Function compile flags: /Ogtp
; File D:\git\src\IBK\IBK_DRFN\ProjSrc\SrcChartEx\ChartAddIn\ChartAnalysisToolAddIn\AnalysisTool\ToolSingleton.cpp
;	COMDAT ?SetLineExtEnv@CToolSingleton@@AAEXPAVCTool@@ABH1@Z
_TEXT	SEGMENT
_pTool$ = 8						; size = 4
_nLeftExt$ = 12						; size = 4
_nRightExt$ = 16					; size = 4
?SetLineExtEnv@CToolSingleton@@AAEXPAVCTool@@ABH1@Z PROC ; CToolSingleton::SetLineExtEnv, COMDAT
; _this$ = ecx

; 916  : {

  00000	55		 push	 ebp
  00001	8b ec		 mov	 ebp, esp

; 917  : 	if(pTool == NULL)

  00003	8b 4d 08	 mov	 ecx, DWORD PTR _pTool$[ebp]
  00006	85 c9		 test	 ecx, ecx
  00008	74 16		 je	 SHORT $LN1@SetLineExt

; 918  : 		return;
; 919  : 
; 920  : 	pTool->GetElementCommonEnvironment().SetLineExt(nLeftExt,nRightExt);

  0000a	8b 45 10	 mov	 eax, DWORD PTR _nRightExt$[ebp]
  0000d	ff 30		 push	 DWORD PTR [eax]
  0000f	8b 45 0c	 mov	 eax, DWORD PTR _nLeftExt$[ebp]
  00012	ff 30		 push	 DWORD PTR [eax]
  00014	e8 00 00 00 00	 call	 ?GetElementCommonEnvironment@CTool@@QAEAAVCElementCommonEnvironment@@XZ ; CTool::GetElementCommonEnvironment
  00019	8b c8		 mov	 ecx, eax
  0001b	e8 00 00 00 00	 call	 ?SetLineExt@CElementCommonEnvironment@@QAEXHH@Z ; CElementCommonEnvironment::SetLineExt
$LN1@SetLineExt:

; 921  : }

  00020	5d		 pop	 ebp
  00021	c2 0c 00	 ret	 12			; 0000000cH
?SetLineExtEnv@CToolSingleton@@AAEXPAVCTool@@ABH1@Z ENDP ; CToolSingleton::SetLineExtEnv
_TEXT	ENDS
; Function compile flags: /Ogtp
; File D:\git\src\IBK\IBK_DRFN\ProjSrc\SrcChartEx\ChartAddIn\ChartAnalysisToolAddIn\AnalysisTool\ToolSingleton.cpp
;	COMDAT ?SetPriceRangeDivEnv@CToolSingleton@@AAEXPAVCTool@@ABH@Z
_TEXT	SEGMENT
_pTool$ = 8						; size = 4
_nPriceRangeDiv$ = 12					; size = 4
?SetPriceRangeDivEnv@CToolSingleton@@AAEXPAVCTool@@ABH@Z PROC ; CToolSingleton::SetPriceRangeDivEnv, COMDAT
; _this$ = ecx

; 933  : {

  00000	55		 push	 ebp
  00001	8b ec		 mov	 ebp, esp

; 934  : 	if(pTool == NULL)

  00003	8b 4d 08	 mov	 ecx, DWORD PTR _pTool$[ebp]
  00006	85 c9		 test	 ecx, ecx
  00008	74 11		 je	 SHORT $LN1@SetPriceRa

; 935  : 		return;
; 936  : 
; 937  : 	pTool->GetElementCommonEnvironment().SetPriceRangeDiv(nPriceRangeDiv);

  0000a	8b 45 0c	 mov	 eax, DWORD PTR _nPriceRangeDiv$[ebp]
  0000d	ff 30		 push	 DWORD PTR [eax]
  0000f	e8 00 00 00 00	 call	 ?GetElementCommonEnvironment@CTool@@QAEAAVCElementCommonEnvironment@@XZ ; CTool::GetElementCommonEnvironment
  00014	8b c8		 mov	 ecx, eax
  00016	e8 00 00 00 00	 call	 ?SetPriceRangeDiv@CElementCommonEnvironment@@QAEXH@Z ; CElementCommonEnvironment::SetPriceRangeDiv
$LN1@SetPriceRa:

; 938  : }

  0001b	5d		 pop	 ebp
  0001c	c2 08 00	 ret	 8
?SetPriceRangeDivEnv@CToolSingleton@@AAEXPAVCTool@@ABH@Z ENDP ; CToolSingleton::SetPriceRangeDivEnv
_TEXT	ENDS
; Function compile flags: /Ogtp
; File D:\git\src\IBK\IBK_DRFN\ProjSrc\SrcChartEx\ChartAddIn\ChartAnalysisToolAddIn\AnalysisTool\ToolSingleton.cpp
;	COMDAT ?SetEquiDivEnv@CToolSingleton@@AAEXPAVCTool@@ABH@Z
_TEXT	SEGMENT
_pTool$ = 8						; size = 4
_nEquiDiv$ = 12						; size = 4
?SetEquiDivEnv@CToolSingleton@@AAEXPAVCTool@@ABH@Z PROC	; CToolSingleton::SetEquiDivEnv, COMDAT
; _this$ = ecx

; 924  : {

  00000	55		 push	 ebp
  00001	8b ec		 mov	 ebp, esp

; 925  : 	if(pTool == NULL)

  00003	8b 4d 08	 mov	 ecx, DWORD PTR _pTool$[ebp]
  00006	85 c9		 test	 ecx, ecx
  00008	74 11		 je	 SHORT $LN1@SetEquiDiv

; 926  : 		return;
; 927  : 
; 928  : 	pTool->GetElementCommonEnvironment().SetEquiDiv(nEquiDiv);

  0000a	8b 45 0c	 mov	 eax, DWORD PTR _nEquiDiv$[ebp]
  0000d	ff 30		 push	 DWORD PTR [eax]
  0000f	e8 00 00 00 00	 call	 ?GetElementCommonEnvironment@CTool@@QAEAAVCElementCommonEnvironment@@XZ ; CTool::GetElementCommonEnvironment
  00014	8b c8		 mov	 ecx, eax
  00016	e8 00 00 00 00	 call	 ?SetEquiDiv@CElementCommonEnvironment@@QAEXH@Z ; CElementCommonEnvironment::SetEquiDiv
$LN1@SetEquiDiv:

; 929  : }

  0001b	5d		 pop	 ebp
  0001c	c2 08 00	 ret	 8
?SetEquiDivEnv@CToolSingleton@@AAEXPAVCTool@@ABH@Z ENDP	; CToolSingleton::SetEquiDivEnv
_TEXT	ENDS
; Function compile flags: /Ogtp
; File D:\git\src\IBK\IBK_DRFN\ProjSrc\SrcChartEx\ChartAddIn\ChartAnalysisToolAddIn\AnalysisTool\ToolSingleton.cpp
;	COMDAT ?InitializeTool@CToolSingleton@@AAEXPAVCTool@@@Z
_TEXT	SEGMENT
_pTool$ = 8						; size = 4
?InitializeTool@CToolSingleton@@AAEXPAVCTool@@@Z PROC	; CToolSingleton::InitializeTool, COMDAT
; _this$ = ecx

; 859  : {

  00000	55		 push	 ebp
  00001	8b ec		 mov	 ebp, esp

; 860  : 	if(pTool == NULL)

  00003	8b 4d 08	 mov	 ecx, DWORD PTR _pTool$[ebp]
  00006	85 c9		 test	 ecx, ecx
  00008	74 04		 je	 SHORT $LN1@Initialize

; 861  : 		return;
; 862  : 
; 863  : 	pTool->Initialize();

  0000a	8b 01		 mov	 eax, DWORD PTR [ecx]
  0000c	ff 10		 call	 DWORD PTR [eax]
$LN1@Initialize:

; 864  : }

  0000e	5d		 pop	 ebp
  0000f	c2 04 00	 ret	 4
?InitializeTool@CToolSingleton@@AAEXPAVCTool@@@Z ENDP	; CToolSingleton::InitializeTool
_TEXT	ENDS
; Function compile flags: /Ogtp
; File D:\git\src\IBK\IBK_DRFN\ProjSrc\SrcChartEx\ChartAddIn\ChartAnalysisToolAddIn\AnalysisTool\ToolSingleton.cpp
;	COMDAT ?SetBalanceCoefficient@CToolSingleton@@QAEXW4TOOLTYPE@CAnalysis@@ABV?$CStringT@DV?$StrTraitMFC_DLL@DV?$ChTraitsCRT@D@ATL@@@@@ATL@@@Z
_TEXT	SEGMENT
__$EHRec$ = -12						; size = 12
_eToolType$ = 8						; size = 4
_strCoefficient$ = 12					; size = 4
_strBalanceCoefficient$ = 12				; size = 4
?SetBalanceCoefficient@CToolSingleton@@QAEXW4TOOLTYPE@CAnalysis@@ABV?$CStringT@DV?$StrTraitMFC_DLL@DV?$ChTraitsCRT@D@ATL@@@@@ATL@@@Z PROC ; CToolSingleton::SetBalanceCoefficient, COMDAT
; _this$ = ecx

; 850  : {

  00000	55		 push	 ebp
  00001	8b ec		 mov	 ebp, esp
  00003	6a ff		 push	 -1
  00005	68 00 00 00 00	 push	 __ehhandler$?SetBalanceCoefficient@CToolSingleton@@QAEXW4TOOLTYPE@CAnalysis@@ABV?$CStringT@DV?$StrTraitMFC_DLL@DV?$ChTraitsCRT@D@ATL@@@@@ATL@@@Z
  0000a	64 a1 00 00 00
	00		 mov	 eax, DWORD PTR fs:0
  00010	50		 push	 eax
  00011	56		 push	 esi
  00012	a1 00 00 00 00	 mov	 eax, DWORD PTR ___security_cookie
  00017	33 c5		 xor	 eax, ebp
  00019	50		 push	 eax
  0001a	8d 45 f4	 lea	 eax, DWORD PTR __$EHRec$[ebp]
  0001d	64 a3 00 00 00
	00		 mov	 DWORD PTR fs:0, eax
  00023	8b f1		 mov	 esi, ecx

; 851  : 	CString strCoefficient = strBalanceCoefficient;

  00025	ff 75 0c	 push	 DWORD PTR _strBalanceCoefficient$[ebp]
  00028	8d 4d 0c	 lea	 ecx, DWORD PTR _strCoefficient$[ebp]
  0002b	ff 15 00 00 00
	00		 call	 DWORD PTR __imp_??0?$CStringT@DV?$StrTraitMFC_DLL@DV?$ChTraitsCRT@D@ATL@@@@@ATL@@QAE@ABV01@@Z

; 852  : 	if(eToolType == CAnalysis::EN_ANALYSIS_BALANCE_BASIC)	

  00031	83 7d 08 24	 cmp	 DWORD PTR _eToolType$[ebp], 36 ; 00000024H
  00035	c7 45 fc 00 00
	00 00		 mov	 DWORD PTR __$EHRec$[ebp+8], 0
  0003c	75 1e		 jne	 SHORT $LN5@SetBalance

; 853  : 		SetFiboCoefficientEnv(m_pFiboSemicircleTool, strCoefficient);

  0003e	8b 4e 24	 mov	 ecx, DWORD PTR [esi+36]

; 943  : 	if(pTool == NULL)

  00041	85 c9		 test	 ecx, ecx
  00043	74 17		 je	 SHORT $LN5@SetBalance

; 944  : 		return;
; 945  : 
; 946  : 	pTool->GetElementCommonEnvironment().GetDataType().SetExtData(strFiboCoefficient);

  00045	8d 45 0c	 lea	 eax, DWORD PTR _strCoefficient$[ebp]
  00048	50		 push	 eax
  00049	e8 00 00 00 00	 call	 ?GetElementCommonEnvironment@CTool@@QAEAAVCElementCommonEnvironment@@XZ ; CTool::GetElementCommonEnvironment
  0004e	8b c8		 mov	 ecx, eax
  00050	e8 00 00 00 00	 call	 ?GetDataType@CElementCommonEnvironment@@QAEAAVCDataTypeEnvironment@@XZ ; CElementCommonEnvironment::GetDataType
  00055	8b c8		 mov	 ecx, eax
  00057	e8 00 00 00 00	 call	 ?SetExtData@CDataTypeEnvironment@@QAEXABV?$CStringT@DV?$StrTraitMFC_DLL@DV?$ChTraitsCRT@D@ATL@@@@@ATL@@@Z ; CDataTypeEnvironment::SetExtData
$LN5@SetBalance:

; 854  : }

  0005c	8d 4d 0c	 lea	 ecx, DWORD PTR _strCoefficient$[ebp]
  0005f	ff 15 00 00 00
	00		 call	 DWORD PTR __imp_??1?$CStringT@DV?$StrTraitMFC_DLL@DV?$ChTraitsCRT@D@ATL@@@@@ATL@@QAE@XZ
  00065	8b 4d f4	 mov	 ecx, DWORD PTR __$EHRec$[ebp]
  00068	64 89 0d 00 00
	00 00		 mov	 DWORD PTR fs:0, ecx
  0006f	59		 pop	 ecx
  00070	5e		 pop	 esi
  00071	8b e5		 mov	 esp, ebp
  00073	5d		 pop	 ebp
  00074	c2 08 00	 ret	 8
_TEXT	ENDS
;	COMDAT text$x
text$x	SEGMENT
__unwindfunclet$?SetBalanceCoefficient@CToolSingleton@@QAEXW4TOOLTYPE@CAnalysis@@ABV?$CStringT@DV?$StrTraitMFC_DLL@DV?$ChTraitsCRT@D@ATL@@@@@ATL@@@Z$0:
  00000	8d 4d 0c	 lea	 ecx, DWORD PTR _strCoefficient$[ebp]
  00003	ff 25 00 00 00
	00		 jmp	 DWORD PTR __imp_??1?$CStringT@DV?$StrTraitMFC_DLL@DV?$ChTraitsCRT@D@ATL@@@@@ATL@@QAE@XZ
  00009	cc		 int	 3
  0000a	cc		 int	 3
  0000b	cc		 int	 3
  0000c	cc		 int	 3
  0000d	cc		 int	 3
__ehhandler$?SetBalanceCoefficient@CToolSingleton@@QAEXW4TOOLTYPE@CAnalysis@@ABV?$CStringT@DV?$StrTraitMFC_DLL@DV?$ChTraitsCRT@D@ATL@@@@@ATL@@@Z:
  0000e	90		 npad	 1
  0000f	90		 npad	 1
  00010	8b 54 24 08	 mov	 edx, DWORD PTR [esp+8]
  00014	8d 42 0c	 lea	 eax, DWORD PTR [edx+12]
  00017	8b 4a f8	 mov	 ecx, DWORD PTR [edx-8]
  0001a	33 c8		 xor	 ecx, eax
  0001c	e8 00 00 00 00	 call	 @__security_check_cookie@4
  00021	b8 00 00 00 00	 mov	 eax, OFFSET __ehfuncinfo$?SetBalanceCoefficient@CToolSingleton@@QAEXW4TOOLTYPE@CAnalysis@@ABV?$CStringT@DV?$StrTraitMFC_DLL@DV?$ChTraitsCRT@D@ATL@@@@@ATL@@@Z
  00026	e9 00 00 00 00	 jmp	 ___CxxFrameHandler3
text$x	ENDS
?SetBalanceCoefficient@CToolSingleton@@QAEXW4TOOLTYPE@CAnalysis@@ABV?$CStringT@DV?$StrTraitMFC_DLL@DV?$ChTraitsCRT@D@ATL@@@@@ATL@@@Z ENDP ; CToolSingleton::SetBalanceCoefficient
; Function compile flags: /Ogtp
; File D:\git\src\IBK\IBK_DRFN\ProjSrc\SrcChartEx\ChartAddIn\ChartAnalysisToolAddIn\AnalysisTool\ToolSingleton.cpp
;	COMDAT ?SetFiboCoefficient@CToolSingleton@@QAEXW4TOOLTYPE@CAnalysis@@ABV?$CStringT@DV?$StrTraitMFC_DLL@DV?$ChTraitsCRT@D@ATL@@@@@ATL@@@Z
_TEXT	SEGMENT
__$EHRec$ = -12						; size = 12
_eToolType$ = 8						; size = 4
_strCoefficient$ = 12					; size = 4
_strFiboCoefficient$ = 12				; size = 4
?SetFiboCoefficient@CToolSingleton@@QAEXW4TOOLTYPE@CAnalysis@@ABV?$CStringT@DV?$StrTraitMFC_DLL@DV?$ChTraitsCRT@D@ATL@@@@@ATL@@@Z PROC ; CToolSingleton::SetFiboCoefficient, COMDAT
; _this$ = ecx

; 833  : {

  00000	55		 push	 ebp
  00001	8b ec		 mov	 ebp, esp
  00003	6a ff		 push	 -1
  00005	68 00 00 00 00	 push	 __ehhandler$?SetFiboCoefficient@CToolSingleton@@QAEXW4TOOLTYPE@CAnalysis@@ABV?$CStringT@DV?$StrTraitMFC_DLL@DV?$ChTraitsCRT@D@ATL@@@@@ATL@@@Z
  0000a	64 a1 00 00 00
	00		 mov	 eax, DWORD PTR fs:0
  00010	50		 push	 eax
  00011	56		 push	 esi
  00012	a1 00 00 00 00	 mov	 eax, DWORD PTR ___security_cookie
  00017	33 c5		 xor	 eax, ebp
  00019	50		 push	 eax
  0001a	8d 45 f4	 lea	 eax, DWORD PTR __$EHRec$[ebp]
  0001d	64 a3 00 00 00
	00		 mov	 DWORD PTR fs:0, eax
  00023	8b f1		 mov	 esi, ecx

; 834  : 	CString strCoefficient = strFiboCoefficient;

  00025	ff 75 0c	 push	 DWORD PTR _strFiboCoefficient$[ebp]
  00028	8d 4d 0c	 lea	 ecx, DWORD PTR _strCoefficient$[ebp]
  0002b	ff 15 00 00 00
	00		 call	 DWORD PTR __imp_??0?$CStringT@DV?$StrTraitMFC_DLL@DV?$ChTraitsCRT@D@ATL@@@@@ATL@@QAE@ABV01@@Z

; 835  : 	if(eToolType == CAnalysis::EN_ANALYSIS_FIBO_SEMICIRCLE)	//  

  00031	8b 45 08	 mov	 eax, DWORD PTR _eToolType$[ebp]
  00034	c7 45 fc 00 00
	00 00		 mov	 DWORD PTR __$EHRec$[ebp+8], 0
  0003b	83 f8 08	 cmp	 eax, 8
  0003e	75 05		 jne	 SHORT $LN2@SetFiboCoe

; 836  : 		SetFiboCoefficientEnv(m_pFiboSemicircleTool, strCoefficient);

  00040	8b 4e 24	 mov	 ecx, DWORD PTR [esi+36]
  00043	eb 26		 jmp	 SHORT $LN30@SetFiboCoe
$LN2@SetFiboCoe:

; 837  : 	else if(eToolType == CAnalysis::EN_ANALYSIS_FIBO_CIRCLE)	//  

  00045	83 f8 09	 cmp	 eax, 9
  00048	75 05		 jne	 SHORT $LN4@SetFiboCoe

; 838  : 		SetFiboCoefficientEnv(m_pFiboCircleTool, strCoefficient);

  0004a	8b 4e 28	 mov	 ecx, DWORD PTR [esi+40]
  0004d	eb 1c		 jmp	 SHORT $LN30@SetFiboCoe
$LN4@SetFiboCoe:

; 839  : 	else if(eToolType == CAnalysis::EN_ANALYSIS_FIBO_FAN_LINE)	//  

  0004f	83 f8 0a	 cmp	 eax, 10			; 0000000aH
  00052	75 05		 jne	 SHORT $LN6@SetFiboCoe

; 840  : 		SetFiboCoefficientEnv(m_pFiboPenLineTool, strCoefficient);

  00054	8b 4e 2c	 mov	 ecx, DWORD PTR [esi+44]
  00057	eb 12		 jmp	 SHORT $LN30@SetFiboCoe
$LN6@SetFiboCoe:

; 841  : 	else if(eToolType == CAnalysis::EN_ANALYSIS_FIBO_RETRACE)	//  

  00059	83 f8 0b	 cmp	 eax, 11			; 0000000bH
  0005c	75 05		 jne	 SHORT $LN8@SetFiboCoe

; 842  : 		SetFiboCoefficientEnv(m_pFiboRetraceTool, strCoefficient);

  0005e	8b 4e 30	 mov	 ecx, DWORD PTR [esi+48]
  00061	eb 08		 jmp	 SHORT $LN30@SetFiboCoe
$LN8@SetFiboCoe:

; 843  : 	else if(eToolType == CAnalysis::EN_ANALYSIS_FIBO_TIME)		//  

  00063	83 f8 0c	 cmp	 eax, 12			; 0000000cH
  00066	75 1e		 jne	 SHORT $LN25@SetFiboCoe

; 844  : 		SetFiboCoefficientEnv(m_pFiboTimeTool, strCoefficient);

  00068	8b 4e 34	 mov	 ecx, DWORD PTR [esi+52]
$LN30@SetFiboCoe:

; 845  : }

  0006b	85 c9		 test	 ecx, ecx
  0006d	74 17		 je	 SHORT $LN25@SetFiboCoe
  0006f	8d 45 0c	 lea	 eax, DWORD PTR _strCoefficient$[ebp]
  00072	50		 push	 eax
  00073	e8 00 00 00 00	 call	 ?GetElementCommonEnvironment@CTool@@QAEAAVCElementCommonEnvironment@@XZ ; CTool::GetElementCommonEnvironment
  00078	8b c8		 mov	 ecx, eax
  0007a	e8 00 00 00 00	 call	 ?GetDataType@CElementCommonEnvironment@@QAEAAVCDataTypeEnvironment@@XZ ; CElementCommonEnvironment::GetDataType
  0007f	8b c8		 mov	 ecx, eax
  00081	e8 00 00 00 00	 call	 ?SetExtData@CDataTypeEnvironment@@QAEXABV?$CStringT@DV?$StrTraitMFC_DLL@DV?$ChTraitsCRT@D@ATL@@@@@ATL@@@Z ; CDataTypeEnvironment::SetExtData
$LN25@SetFiboCoe:
  00086	8d 4d 0c	 lea	 ecx, DWORD PTR _strCoefficient$[ebp]
  00089	ff 15 00 00 00
	00		 call	 DWORD PTR __imp_??1?$CStringT@DV?$StrTraitMFC_DLL@DV?$ChTraitsCRT@D@ATL@@@@@ATL@@QAE@XZ
  0008f	8b 4d f4	 mov	 ecx, DWORD PTR __$EHRec$[ebp]
  00092	64 89 0d 00 00
	00 00		 mov	 DWORD PTR fs:0, ecx
  00099	59		 pop	 ecx
  0009a	5e		 pop	 esi
  0009b	8b e5		 mov	 esp, ebp
  0009d	5d		 pop	 ebp
  0009e	c2 08 00	 ret	 8
_TEXT	ENDS
;	COMDAT text$x
text$x	SEGMENT
__unwindfunclet$?SetFiboCoefficient@CToolSingleton@@QAEXW4TOOLTYPE@CAnalysis@@ABV?$CStringT@DV?$StrTraitMFC_DLL@DV?$ChTraitsCRT@D@ATL@@@@@ATL@@@Z$0:
  00000	8d 4d 0c	 lea	 ecx, DWORD PTR _strCoefficient$[ebp]
  00003	ff 25 00 00 00
	00		 jmp	 DWORD PTR __imp_??1?$CStringT@DV?$StrTraitMFC_DLL@DV?$ChTraitsCRT@D@ATL@@@@@ATL@@QAE@XZ
  00009	cc		 int	 3
  0000a	cc		 int	 3
  0000b	cc		 int	 3
  0000c	cc		 int	 3
  0000d	cc		 int	 3
__ehhandler$?SetFiboCoefficient@CToolSingleton@@QAEXW4TOOLTYPE@CAnalysis@@ABV?$CStringT@DV?$StrTraitMFC_DLL@DV?$ChTraitsCRT@D@ATL@@@@@ATL@@@Z:
  0000e	90		 npad	 1
  0000f	90		 npad	 1
  00010	8b 54 24 08	 mov	 edx, DWORD PTR [esp+8]
  00014	8d 42 0c	 lea	 eax, DWORD PTR [edx+12]
  00017	8b 4a f8	 mov	 ecx, DWORD PTR [edx-8]
  0001a	33 c8		 xor	 ecx, eax
  0001c	e8 00 00 00 00	 call	 @__security_check_cookie@4
  00021	b8 00 00 00 00	 mov	 eax, OFFSET __ehfuncinfo$?SetFiboCoefficient@CToolSingleton@@QAEXW4TOOLTYPE@CAnalysis@@ABV?$CStringT@DV?$StrTraitMFC_DLL@DV?$ChTraitsCRT@D@ATL@@@@@ATL@@@Z
  00026	e9 00 00 00 00	 jmp	 ___CxxFrameHandler3
text$x	ENDS
?SetFiboCoefficient@CToolSingleton@@QAEXW4TOOLTYPE@CAnalysis@@ABV?$CStringT@DV?$StrTraitMFC_DLL@DV?$ChTraitsCRT@D@ATL@@@@@ATL@@@Z ENDP ; CToolSingleton::SetFiboCoefficient
; Function compile flags: /Ogtp
; File D:\git\src\IBK\IBK_DRFN\ProjSrc\SrcChartEx\ChartAddIn\ChartAnalysisToolAddIn\AnalysisTool\ToolSingleton.cpp
;	COMDAT ?SetTextEnvironment@CToolSingleton@@QAEXABVCTextEnvironment@@@Z
_TEXT	SEGMENT
_textEnvironment$ = 8					; size = 4
?SetTextEnvironment@CToolSingleton@@QAEXABVCTextEnvironment@@@Z PROC ; CToolSingleton::SetTextEnvironment, COMDAT
; _this$ = ecx

; 773  : {

  00000	55		 push	 ebp
  00001	8b ec		 mov	 ebp, esp
  00003	56		 push	 esi
  00004	8b f1		 mov	 esi, ecx
  00006	57		 push	 edi

; 774  : 	// , , , , , ,  , 
; 775  : 	if(m_pCrossLineMoveTool != NULL)

  00007	8b 7d 08	 mov	 edi, DWORD PTR _textEnvironment$[ebp]
  0000a	8b 4e 08	 mov	 ecx, DWORD PTR [esi+8]
  0000d	85 c9		 test	 ecx, ecx
  0000f	74 0c		 je	 SHORT $LN2@SetTextEnv

; 776  : 		m_pCrossLineMoveTool->SetTextEnvironment(textEnvironment);

  00011	57		 push	 edi
  00012	81 c1 b0 00 00
	00		 add	 ecx, 176		; 000000b0H
  00018	e8 00 00 00 00	 call	 ?SetTextEnvironment@CCrossLineTool@@QAEXABVCTextEnvironment@@@Z ; CCrossLineTool::SetTextEnvironment
$LN2@SetTextEnv:

; 777  : 	if(m_pCrossLineDownTool != NULL)

  0001d	8b 4e 0c	 mov	 ecx, DWORD PTR [esi+12]
  00020	85 c9		 test	 ecx, ecx
  00022	74 0c		 je	 SHORT $LN3@SetTextEnv

; 778  : 		m_pCrossLineDownTool->SetTextEnvironment(textEnvironment);

  00024	57		 push	 edi
  00025	81 c1 d0 00 00
	00		 add	 ecx, 208		; 000000d0H
  0002b	e8 00 00 00 00	 call	 ?SetTextEnvironment@CCrossLineTool@@QAEXABVCTextEnvironment@@@Z ; CCrossLineTool::SetTextEnvironment
$LN3@SetTextEnv:

; 779  : 	if(m_pVertLineTool != NULL)

  00030	8b 4e 10	 mov	 ecx, DWORD PTR [esi+16]
  00033	85 c9		 test	 ecx, ecx
  00035	74 06		 je	 SHORT $LN4@SetTextEnv

; 780  : 		m_pVertLineTool->SetTextEnvironment(textEnvironment);

  00037	57		 push	 edi
  00038	e8 00 00 00 00	 call	 ?SetTextEnvironment@CVertLineTool@@QAEXABVCTextEnvironment@@@Z ; CVertLineTool::SetTextEnvironment
$LN4@SetTextEnv:

; 781  : 	if(m_pHorzLineTool != NULL)

  0003d	8b 4e 14	 mov	 ecx, DWORD PTR [esi+20]
  00040	85 c9		 test	 ecx, ecx
  00042	74 06		 je	 SHORT $LN5@SetTextEnv

; 782  : 		m_pHorzLineTool->SetTextEnvironment(textEnvironment);

  00044	57		 push	 edi
  00045	e8 00 00 00 00	 call	 ?SetTextEnvironment@CHorzLineTool@@QAEXABVCTextEnvironment@@@Z ; CHorzLineTool::SetTextEnvironment
$LN5@SetTextEnv:

; 783  : 	if(m_pLineTool	!= NULL) 

  0004a	8b 4e 18	 mov	 ecx, DWORD PTR [esi+24]
  0004d	85 c9		 test	 ecx, ecx
  0004f	74 06		 je	 SHORT $LN6@SetTextEnv

; 784  : 		m_pLineTool->SetTextEnvironment(textEnvironment);

  00051	57		 push	 edi
  00052	e8 00 00 00 00	 call	 ?SetTextEnvironment@CLineTool@@QAEXABVCTextEnvironment@@@Z ; CLineTool::SetTextEnvironment
$LN6@SetTextEnv:

; 785  : 	if(m_pTrisectionLineTool != NULL)

  00057	8b 4e 1c	 mov	 ecx, DWORD PTR [esi+28]
  0005a	85 c9		 test	 ecx, ecx
  0005c	74 06		 je	 SHORT $LN7@SetTextEnv

; 786  : 		m_pTrisectionLineTool->SetTextEnvironment(textEnvironment);

  0005e	57		 push	 edi
  0005f	e8 00 00 00 00	 call	 ?SetTextEnvironment@CTrisectionLineTool@@QAEXABVCTextEnvironment@@@Z ; CTrisectionLineTool::SetTextEnvironment
$LN7@SetTextEnv:

; 787  : 	if(m_pQuadrisectLineTool != NULL)

  00064	8b 4e 20	 mov	 ecx, DWORD PTR [esi+32]
  00067	85 c9		 test	 ecx, ecx
  00069	74 06		 je	 SHORT $LN8@SetTextEnv

; 788  : 		m_pQuadrisectLineTool->SetTextEnvironment(textEnvironment);

  0006b	57		 push	 edi
  0006c	e8 00 00 00 00	 call	 ?SetTextEnvironment@CQuadrisectLineTool@@QAEXABVCTextEnvironment@@@Z ; CQuadrisectLineTool::SetTextEnvironment
$LN8@SetTextEnv:

; 789  : 	if(m_pFiboRetraceTool != NULL)

  00071	8b 4e 30	 mov	 ecx, DWORD PTR [esi+48]
  00074	85 c9		 test	 ecx, ecx
  00076	74 06		 je	 SHORT $LN9@SetTextEnv

; 790  : 		m_pFiboRetraceTool->SetTextEnvironment(textEnvironment);

  00078	57		 push	 edi
  00079	e8 00 00 00 00	 call	 ?SetTextEnvironment@CFiboRetraceTool@@QAEXABVCTextEnvironment@@@Z ; CFiboRetraceTool::SetTextEnvironment
$LN9@SetTextEnv:

; 791  : 	if(m_pAngleLineTool != NULL)

  0007e	8b 4e 70	 mov	 ecx, DWORD PTR [esi+112]
  00081	85 c9		 test	 ecx, ecx
  00083	74 06		 je	 SHORT $LN10@SetTextEnv

; 792  : 		m_pAngleLineTool->SetTextEnvironment(textEnvironment);

  00085	57		 push	 edi
  00086	e8 00 00 00 00	 call	 ?SetTextEnvironment@CAngleLineTool@@QAEXABVCTextEnvironment@@@Z ; CAngleLineTool::SetTextEnvironment
$LN10@SetTextEnv:

; 793  : 	if(m_pCandleLineTool != NULL)

  0008b	8b 4e 74	 mov	 ecx, DWORD PTR [esi+116]
  0008e	85 c9		 test	 ecx, ecx
  00090	74 06		 je	 SHORT $LN11@SetTextEnv

; 794  : 		m_pCandleLineTool->SetTextEnvironment(textEnvironment);

  00092	57		 push	 edi
  00093	e8 00 00 00 00	 call	 ?SetTextEnvironment@CCandleLineTool@@QAEXABVCTextEnvironment@@@Z ; CCandleLineTool::SetTextEnvironment
$LN11@SetTextEnv:

; 795  : }

  00098	5f		 pop	 edi
  00099	5e		 pop	 esi
  0009a	5d		 pop	 ebp
  0009b	c2 04 00	 ret	 4
?SetTextEnvironment@CToolSingleton@@QAEXABVCTextEnvironment@@@Z ENDP ; CToolSingleton::SetTextEnvironment
_TEXT	ENDS
; Function compile flags: /Ogtp
; File D:\git\src\IBK\IBK_DRFN\ProjSrc\SrcChartEx\ChartAddIn\ChartAnalysisToolAddIn\AnalysisTool\ToolSingleton.cpp
;	COMDAT ?SetTextEnvironment@CToolSingleton@@QAEXW4TOOLTYPE@CAnalysis@@ABVCTextEnvironment@@@Z
_TEXT	SEGMENT
_eToolType$ = 8						; size = 4
_textEnvironment$ = 12					; size = 4
?SetTextEnvironment@CToolSingleton@@QAEXW4TOOLTYPE@CAnalysis@@ABVCTextEnvironment@@@Z PROC ; CToolSingleton::SetTextEnvironment, COMDAT
; _this$ = ecx

; 746  : {

  00000	55		 push	 ebp
  00001	8b ec		 mov	 ebp, esp

; 747  : 	// , , , , , ,  , 
; 748  : 	if(eToolType == CAnalysis::EN_ANALYSIS_MOVE_CROSS && m_pCrossLineMoveTool != NULL)

  00003	8b 45 08	 mov	 eax, DWORD PTR _eToolType$[ebp]
  00006	83 f8 01	 cmp	 eax, 1
  00009	75 1d		 jne	 SHORT $LN2@SetTextEnv
  0000b	8b 49 08	 mov	 ecx, DWORD PTR [ecx+8]
  0000e	85 c9		 test	 ecx, ecx
  00010	0f 84 fc 00 00
	00		 je	 $LN20@SetTextEnv

; 749  : 		m_pCrossLineMoveTool->SetTextEnvironment(textEnvironment);

  00016	ff 75 0c	 push	 DWORD PTR _textEnvironment$[ebp]
  00019	81 c1 b0 00 00
	00		 add	 ecx, 176		; 000000b0H
  0001f	e8 00 00 00 00	 call	 ?SetTextEnvironment@CCrossLineTool@@QAEXABVCTextEnvironment@@@Z ; CCrossLineTool::SetTextEnvironment

; 770  : }

  00024	5d		 pop	 ebp
  00025	c2 08 00	 ret	 8
$LN2@SetTextEnv:

; 750  : 	else if(eToolType == CAnalysis::EN_ANALYSIS_DOWN_CROSS && m_pCrossLineDownTool != NULL)

  00028	83 f8 02	 cmp	 eax, 2
  0002b	75 1d		 jne	 SHORT $LN4@SetTextEnv
  0002d	8b 49 0c	 mov	 ecx, DWORD PTR [ecx+12]
  00030	85 c9		 test	 ecx, ecx
  00032	0f 84 da 00 00
	00		 je	 $LN20@SetTextEnv

; 751  : 		m_pCrossLineDownTool->SetTextEnvironment(textEnvironment);

  00038	ff 75 0c	 push	 DWORD PTR _textEnvironment$[ebp]
  0003b	81 c1 d0 00 00
	00		 add	 ecx, 208		; 000000d0H
  00041	e8 00 00 00 00	 call	 ?SetTextEnvironment@CCrossLineTool@@QAEXABVCTextEnvironment@@@Z ; CCrossLineTool::SetTextEnvironment

; 770  : }

  00046	5d		 pop	 ebp
  00047	c2 08 00	 ret	 8
$LN4@SetTextEnv:

; 752  : 	else if(eToolType == CAnalysis::EN_ANALYSIS_VERT_LINE && m_pVertLineTool != NULL)

  0004a	83 f8 03	 cmp	 eax, 3
  0004d	75 17		 jne	 SHORT $LN6@SetTextEnv
  0004f	8b 49 10	 mov	 ecx, DWORD PTR [ecx+16]
  00052	85 c9		 test	 ecx, ecx
  00054	0f 84 b8 00 00
	00		 je	 $LN20@SetTextEnv

; 753  : 		m_pVertLineTool->SetTextEnvironment(textEnvironment);

  0005a	ff 75 0c	 push	 DWORD PTR _textEnvironment$[ebp]
  0005d	e8 00 00 00 00	 call	 ?SetTextEnvironment@CVertLineTool@@QAEXABVCTextEnvironment@@@Z ; CVertLineTool::SetTextEnvironment

; 770  : }

  00062	5d		 pop	 ebp
  00063	c2 08 00	 ret	 8
$LN6@SetTextEnv:

; 754  : 	else if(eToolType == CAnalysis::EN_ANALYSIS_HORZ_LINE && m_pHorzLineTool != NULL)

  00066	83 f8 04	 cmp	 eax, 4
  00069	75 17		 jne	 SHORT $LN8@SetTextEnv
  0006b	8b 49 14	 mov	 ecx, DWORD PTR [ecx+20]
  0006e	85 c9		 test	 ecx, ecx
  00070	0f 84 9c 00 00
	00		 je	 $LN20@SetTextEnv

; 755  : 		m_pHorzLineTool->SetTextEnvironment(textEnvironment);

  00076	ff 75 0c	 push	 DWORD PTR _textEnvironment$[ebp]
  00079	e8 00 00 00 00	 call	 ?SetTextEnvironment@CHorzLineTool@@QAEXABVCTextEnvironment@@@Z ; CHorzLineTool::SetTextEnvironment

; 770  : }

  0007e	5d		 pop	 ebp
  0007f	c2 08 00	 ret	 8
$LN8@SetTextEnv:

; 756  : 
; 757  : 	else if( eToolType == CAnalysis::EN_ANALYSIS_LINE && m_pLineTool != NULL)

  00082	83 f8 05	 cmp	 eax, 5
  00085	75 17		 jne	 SHORT $LN10@SetTextEnv
  00087	8b 49 18	 mov	 ecx, DWORD PTR [ecx+24]
  0008a	85 c9		 test	 ecx, ecx
  0008c	0f 84 80 00 00
	00		 je	 $LN20@SetTextEnv

; 758  : 		m_pLineTool->SetTextEnvironment(textEnvironment);

  00092	ff 75 0c	 push	 DWORD PTR _textEnvironment$[ebp]
  00095	e8 00 00 00 00	 call	 ?SetTextEnvironment@CLineTool@@QAEXABVCTextEnvironment@@@Z ; CLineTool::SetTextEnvironment

; 770  : }

  0009a	5d		 pop	 ebp
  0009b	c2 08 00	 ret	 8
$LN10@SetTextEnv:

; 759  : 
; 760  : 	else if(eToolType == CAnalysis::EN_ANALYSIS_TRISECT && m_pTrisectionLineTool != NULL)

  0009e	83 f8 06	 cmp	 eax, 6
  000a1	75 13		 jne	 SHORT $LN12@SetTextEnv
  000a3	8b 49 1c	 mov	 ecx, DWORD PTR [ecx+28]
  000a6	85 c9		 test	 ecx, ecx
  000a8	74 68		 je	 SHORT $LN20@SetTextEnv

; 761  : 		m_pTrisectionLineTool->SetTextEnvironment(textEnvironment);

  000aa	ff 75 0c	 push	 DWORD PTR _textEnvironment$[ebp]
  000ad	e8 00 00 00 00	 call	 ?SetTextEnvironment@CTrisectionLineTool@@QAEXABVCTextEnvironment@@@Z ; CTrisectionLineTool::SetTextEnvironment

; 770  : }

  000b2	5d		 pop	 ebp
  000b3	c2 08 00	 ret	 8
$LN12@SetTextEnv:

; 762  : 	else if(eToolType == CAnalysis::EN_ANALYSIS_QUARTER && m_pQuadrisectLineTool != NULL)

  000b6	83 f8 07	 cmp	 eax, 7
  000b9	75 13		 jne	 SHORT $LN14@SetTextEnv
  000bb	8b 49 20	 mov	 ecx, DWORD PTR [ecx+32]
  000be	85 c9		 test	 ecx, ecx
  000c0	74 50		 je	 SHORT $LN20@SetTextEnv

; 763  : 		m_pQuadrisectLineTool->SetTextEnvironment(textEnvironment);

  000c2	ff 75 0c	 push	 DWORD PTR _textEnvironment$[ebp]
  000c5	e8 00 00 00 00	 call	 ?SetTextEnvironment@CQuadrisectLineTool@@QAEXABVCTextEnvironment@@@Z ; CQuadrisectLineTool::SetTextEnvironment

; 770  : }

  000ca	5d		 pop	 ebp
  000cb	c2 08 00	 ret	 8
$LN14@SetTextEnv:

; 764  : 	else if(eToolType == CAnalysis::EN_ANALYSIS_FIBO_RETRACE && m_pFiboRetraceTool != NULL)

  000ce	83 f8 0b	 cmp	 eax, 11			; 0000000bH
  000d1	75 13		 jne	 SHORT $LN16@SetTextEnv
  000d3	8b 49 30	 mov	 ecx, DWORD PTR [ecx+48]
  000d6	85 c9		 test	 ecx, ecx
  000d8	74 38		 je	 SHORT $LN20@SetTextEnv

; 765  : 		m_pFiboRetraceTool->SetTextEnvironment(textEnvironment);

  000da	ff 75 0c	 push	 DWORD PTR _textEnvironment$[ebp]
  000dd	e8 00 00 00 00	 call	 ?SetTextEnvironment@CFiboRetraceTool@@QAEXABVCTextEnvironment@@@Z ; CFiboRetraceTool::SetTextEnvironment

; 770  : }

  000e2	5d		 pop	 ebp
  000e3	c2 08 00	 ret	 8
$LN16@SetTextEnv:

; 766  : 	else if(eToolType == CAnalysis::EN_ANALYSIS_ANGLE_LINE && m_pAngleLineTool != NULL)

  000e6	83 f8 1d	 cmp	 eax, 29			; 0000001dH
  000e9	75 13		 jne	 SHORT $LN18@SetTextEnv
  000eb	8b 49 70	 mov	 ecx, DWORD PTR [ecx+112]
  000ee	85 c9		 test	 ecx, ecx
  000f0	74 20		 je	 SHORT $LN20@SetTextEnv

; 767  : 		m_pAngleLineTool->SetTextEnvironment(textEnvironment);

  000f2	ff 75 0c	 push	 DWORD PTR _textEnvironment$[ebp]
  000f5	e8 00 00 00 00	 call	 ?SetTextEnvironment@CAngleLineTool@@QAEXABVCTextEnvironment@@@Z ; CAngleLineTool::SetTextEnvironment

; 770  : }

  000fa	5d		 pop	 ebp
  000fb	c2 08 00	 ret	 8
$LN18@SetTextEnv:

; 768  : 	else if(eToolType == CAnalysis::EN_ANALYSIS_CANDLE_LINE && m_pCandleLineTool != NULL)

  000fe	83 f8 1e	 cmp	 eax, 30			; 0000001eH
  00101	75 0f		 jne	 SHORT $LN20@SetTextEnv
  00103	8b 49 74	 mov	 ecx, DWORD PTR [ecx+116]
  00106	85 c9		 test	 ecx, ecx
  00108	74 08		 je	 SHORT $LN20@SetTextEnv

; 769  : 		m_pCandleLineTool->SetTextEnvironment(textEnvironment);

  0010a	ff 75 0c	 push	 DWORD PTR _textEnvironment$[ebp]
  0010d	e8 00 00 00 00	 call	 ?SetTextEnvironment@CCandleLineTool@@QAEXABVCTextEnvironment@@@Z ; CCandleLineTool::SetTextEnvironment
$LN20@SetTextEnv:

; 770  : }

  00112	5d		 pop	 ebp
  00113	c2 08 00	 ret	 8
?SetTextEnvironment@CToolSingleton@@QAEXW4TOOLTYPE@CAnalysis@@ABVCTextEnvironment@@@Z ENDP ; CToolSingleton::SetTextEnvironment
_TEXT	ENDS
; Function compile flags: /Ogtp
; File D:\git\src\IBK\IBK_DRFN\ProjSrc\SrcChartEx\ChartAddIn\ChartAnalysisToolAddIn\AnalysisTool\ToolSingleton.cpp
;	COMDAT ?SetTextPosition@CToolSingleton@@QAEXW4TOOLTYPE@CAnalysis@@_N1111@Z
_TEXT	SEGMENT
_eToolType$ = 8						; size = 4
_bLeft$ = 12						; size = 1
_bRight$ = 16						; size = 1
_bTop$ = 20						; size = 1
_bBottom$ = 24						; size = 1
_bRightRate$ = 28					; size = 1
?SetTextPosition@CToolSingleton@@QAEXW4TOOLTYPE@CAnalysis@@_N1111@Z PROC ; CToolSingleton::SetTextPosition, COMDAT
; _this$ = ecx

; 707  : {

  00000	55		 push	 ebp
  00001	8b ec		 mov	 ebp, esp

; 708  : 	// , , , , , ,  , 
; 709  : 	if(eToolType == CAnalysis::EN_ANALYSIS_MOVE_CROSS && m_pCrossLineMoveTool != NULL)

  00003	8b 45 08	 mov	 eax, DWORD PTR _eToolType$[ebp]
  00006	83 f8 01	 cmp	 eax, 1
  00009	75 26		 jne	 SHORT $LN2@SetTextPos
  0000b	8b 49 08	 mov	 ecx, DWORD PTR [ecx+8]
  0000e	85 c9		 test	 ecx, ecx
  00010	0f 84 b2 01 00
	00		 je	 $LN34@SetTextPos

; 710  : 		m_pCrossLineMoveTool->SetTextPosition(bLeft, bRight, bTop, bBottom);

  00016	ff 75 18	 push	 DWORD PTR _bBottom$[ebp]
  00019	81 c1 b0 00 00
	00		 add	 ecx, 176		; 000000b0H
  0001f	ff 75 14	 push	 DWORD PTR _bTop$[ebp]
  00022	ff 75 10	 push	 DWORD PTR _bRight$[ebp]
  00025	ff 75 0c	 push	 DWORD PTR _bLeft$[ebp]
  00028	e8 00 00 00 00	 call	 ?SetTextPosition@CCrossLineTool@@QAEX_N000@Z ; CCrossLineTool::SetTextPosition

; 743  : }

  0002d	5d		 pop	 ebp
  0002e	c2 18 00	 ret	 24			; 00000018H
$LN2@SetTextPos:

; 711  : 	else if(eToolType == CAnalysis::EN_ANALYSIS_DOWN_CROSS && m_pCrossLineDownTool != NULL)

  00031	83 f8 02	 cmp	 eax, 2
  00034	75 26		 jne	 SHORT $LN4@SetTextPos
  00036	8b 49 0c	 mov	 ecx, DWORD PTR [ecx+12]
  00039	85 c9		 test	 ecx, ecx
  0003b	0f 84 87 01 00
	00		 je	 $LN34@SetTextPos

; 712  : 		m_pCrossLineDownTool->SetTextPosition(bLeft, bRight, bTop, bBottom);

  00041	ff 75 18	 push	 DWORD PTR _bBottom$[ebp]
  00044	81 c1 d0 00 00
	00		 add	 ecx, 208		; 000000d0H
  0004a	ff 75 14	 push	 DWORD PTR _bTop$[ebp]
  0004d	ff 75 10	 push	 DWORD PTR _bRight$[ebp]
  00050	ff 75 0c	 push	 DWORD PTR _bLeft$[ebp]
  00053	e8 00 00 00 00	 call	 ?SetTextPosition@CCrossLineTool@@QAEX_N000@Z ; CCrossLineTool::SetTextPosition

; 743  : }

  00058	5d		 pop	 ebp
  00059	c2 18 00	 ret	 24			; 00000018H
$LN4@SetTextPos:

; 713  : 	else if(eToolType == CAnalysis::EN_ANALYSIS_VERT_LINE && m_pVertLineTool != NULL)

  0005c	83 f8 03	 cmp	 eax, 3
  0005f	75 1a		 jne	 SHORT $LN6@SetTextPos
  00061	8b 49 10	 mov	 ecx, DWORD PTR [ecx+16]
  00064	85 c9		 test	 ecx, ecx
  00066	0f 84 5c 01 00
	00		 je	 $LN34@SetTextPos

; 714  : 		m_pVertLineTool->SetTextPosition(bTop, bBottom);

  0006c	ff 75 18	 push	 DWORD PTR _bBottom$[ebp]
  0006f	ff 75 14	 push	 DWORD PTR _bTop$[ebp]
  00072	e8 00 00 00 00	 call	 ?SetTextPosition@CVertLineTool@@QAEX_N0@Z ; CVertLineTool::SetTextPosition

; 743  : }

  00077	5d		 pop	 ebp
  00078	c2 18 00	 ret	 24			; 00000018H
$LN6@SetTextPos:

; 715  : 	else if(eToolType == CAnalysis::EN_ANALYSIS_HORZ_LINE && m_pHorzLineTool != NULL)

  0007b	83 f8 04	 cmp	 eax, 4
  0007e	75 1a		 jne	 SHORT $LN8@SetTextPos
  00080	8b 49 14	 mov	 ecx, DWORD PTR [ecx+20]
  00083	85 c9		 test	 ecx, ecx
  00085	0f 84 3d 01 00
	00		 je	 $LN34@SetTextPos

; 716  : 		m_pHorzLineTool->SetTextPosition(bLeft, bRight);

  0008b	ff 75 10	 push	 DWORD PTR _bRight$[ebp]
  0008e	ff 75 0c	 push	 DWORD PTR _bLeft$[ebp]
  00091	e8 00 00 00 00	 call	 ?SetTextPosition@CHorzLineTool@@QAEX_N0@Z ; CHorzLineTool::SetTextPosition

; 743  : }

  00096	5d		 pop	 ebp
  00097	c2 18 00	 ret	 24			; 00000018H
$LN8@SetTextPos:

; 717  : 	else if( eToolType == CAnalysis::EN_ANALYSIS_LINE && m_pLineTool != NULL)

  0009a	83 f8 05	 cmp	 eax, 5
  0009d	75 1d		 jne	 SHORT $LN10@SetTextPos
  0009f	8b 49 18	 mov	 ecx, DWORD PTR [ecx+24]
  000a2	85 c9		 test	 ecx, ecx
  000a4	0f 84 1e 01 00
	00		 je	 $LN34@SetTextPos

; 718  : 		m_pLineTool->SetTextPosition(bLeft, bRight, bRightRate);

  000aa	ff 75 1c	 push	 DWORD PTR _bRightRate$[ebp]
  000ad	ff 75 10	 push	 DWORD PTR _bRight$[ebp]
  000b0	ff 75 0c	 push	 DWORD PTR _bLeft$[ebp]
  000b3	e8 00 00 00 00	 call	 ?SetTextPosition@CLineTool@@QAEX_N00@Z ; CLineTool::SetTextPosition

; 743  : }

  000b8	5d		 pop	 ebp
  000b9	c2 18 00	 ret	 24			; 00000018H
$LN10@SetTextPos:

; 719  : 	else if(eToolType == CAnalysis::EN_ANALYSIS_TRISECT && m_pTrisectionLineTool != NULL)

  000bc	83 f8 06	 cmp	 eax, 6
  000bf	75 1a		 jne	 SHORT $LN12@SetTextPos
  000c1	8b 49 1c	 mov	 ecx, DWORD PTR [ecx+28]
  000c4	85 c9		 test	 ecx, ecx
  000c6	0f 84 fc 00 00
	00		 je	 $LN34@SetTextPos

; 720  : 		m_pTrisectionLineTool->SetTextPosition(bLeft, bRight);

  000cc	ff 75 10	 push	 DWORD PTR _bRight$[ebp]
  000cf	ff 75 0c	 push	 DWORD PTR _bLeft$[ebp]
  000d2	e8 00 00 00 00	 call	 ?SetTextPosition@CTrisectionLineTool@@QAEX_N0@Z ; CTrisectionLineTool::SetTextPosition

; 743  : }

  000d7	5d		 pop	 ebp
  000d8	c2 18 00	 ret	 24			; 00000018H
$LN12@SetTextPos:

; 721  : 	else if(eToolType == CAnalysis::EN_ANALYSIS_QUARTER && m_pQuadrisectLineTool != NULL)

  000db	83 f8 07	 cmp	 eax, 7
  000de	75 1a		 jne	 SHORT $LN14@SetTextPos
  000e0	8b 49 20	 mov	 ecx, DWORD PTR [ecx+32]
  000e3	85 c9		 test	 ecx, ecx
  000e5	0f 84 dd 00 00
	00		 je	 $LN34@SetTextPos

; 722  : 		m_pQuadrisectLineTool->SetTextPosition(bLeft, bRight);

  000eb	ff 75 10	 push	 DWORD PTR _bRight$[ebp]
  000ee	ff 75 0c	 push	 DWORD PTR _bLeft$[ebp]
  000f1	e8 00 00 00 00	 call	 ?SetTextPosition@CQuadrisectLineTool@@QAEX_N0@Z ; CQuadrisectLineTool::SetTextPosition

; 743  : }

  000f6	5d		 pop	 ebp
  000f7	c2 18 00	 ret	 24			; 00000018H
$LN14@SetTextPos:

; 723  : 	else if(eToolType == CAnalysis::EN_ANALYSIS_FIBO_RETRACE && m_pFiboRetraceTool != NULL)

  000fa	83 f8 0b	 cmp	 eax, 11			; 0000000bH
  000fd	75 17		 jne	 SHORT $LN16@SetTextPos
  000ff	8b 49 30	 mov	 ecx, DWORD PTR [ecx+48]
  00102	85 c9		 test	 ecx, ecx
  00104	0f 84 be 00 00
	00		 je	 $LN34@SetTextPos

; 724  : 		m_pFiboRetraceTool->SetTextPosition(bLeft);

  0010a	ff 75 0c	 push	 DWORD PTR _bLeft$[ebp]
  0010d	e8 00 00 00 00	 call	 ?SetTextPosition@CFiboRetraceTool@@QAEX_N@Z ; CFiboRetraceTool::SetTextPosition

; 743  : }

  00112	5d		 pop	 ebp
  00113	c2 18 00	 ret	 24			; 00000018H
$LN16@SetTextPos:

; 725  : 	else if(eToolType == CAnalysis::EN_ANALYSIS_FIBO_SEMICIRCLE && m_pFiboSemicircleTool != NULL)

  00116	83 f8 08	 cmp	 eax, 8
  00119	75 17		 jne	 SHORT $LN18@SetTextPos
  0011b	8b 49 24	 mov	 ecx, DWORD PTR [ecx+36]
  0011e	85 c9		 test	 ecx, ecx
  00120	0f 84 a2 00 00
	00		 je	 $LN34@SetTextPos

; 726  : 		m_pFiboSemicircleTool->SetTextPosition(bLeft);

  00126	ff 75 0c	 push	 DWORD PTR _bLeft$[ebp]
  00129	e8 00 00 00 00	 call	 ?SetTextPosition@CFiboSemicircleTool@@QAEX_N@Z ; CFiboSemicircleTool::SetTextPosition

; 743  : }

  0012e	5d		 pop	 ebp
  0012f	c2 18 00	 ret	 24			; 00000018H
$LN18@SetTextPos:

; 727  : 	else if(eToolType == CAnalysis::EN_ANALYSIS_FIBO_CIRCLE && m_pFiboCircleTool != NULL)

  00132	83 f8 09	 cmp	 eax, 9
  00135	75 17		 jne	 SHORT $LN20@SetTextPos
  00137	8b 49 28	 mov	 ecx, DWORD PTR [ecx+40]
  0013a	85 c9		 test	 ecx, ecx
  0013c	0f 84 86 00 00
	00		 je	 $LN34@SetTextPos

; 728  : 		m_pFiboCircleTool->SetTextPosition(bLeft);

  00142	ff 75 0c	 push	 DWORD PTR _bLeft$[ebp]
  00145	e8 00 00 00 00	 call	 ?SetTextPosition@CFiboCircleTool@@QAEX_N@Z ; CFiboCircleTool::SetTextPosition

; 743  : }

  0014a	5d		 pop	 ebp
  0014b	c2 18 00	 ret	 24			; 00000018H
$LN20@SetTextPos:

; 729  : 	else if(eToolType == CAnalysis::EN_ANALYSIS_FIBO_FAN_LINE && m_pFiboPenLineTool != NULL)

  0014e	83 f8 0a	 cmp	 eax, 10			; 0000000aH
  00151	75 13		 jne	 SHORT $LN22@SetTextPos
  00153	8b 49 2c	 mov	 ecx, DWORD PTR [ecx+44]
  00156	85 c9		 test	 ecx, ecx
  00158	74 6e		 je	 SHORT $LN34@SetTextPos

; 730  : 		m_pFiboPenLineTool->SetTextPosition(bLeft);

  0015a	ff 75 0c	 push	 DWORD PTR _bLeft$[ebp]
  0015d	e8 00 00 00 00	 call	 ?SetTextPosition@CFiboPenLineTool@@QAEX_N@Z ; CFiboPenLineTool::SetTextPosition

; 743  : }

  00162	5d		 pop	 ebp
  00163	c2 18 00	 ret	 24			; 00000018H
$LN22@SetTextPos:

; 731  : 	else if(eToolType == CAnalysis::EN_ANALYSIS_GANN_FAN45 && m_pGannFan45Tool != NULL)

  00166	83 f8 0f	 cmp	 eax, 15			; 0000000fH
  00169	75 05		 jne	 SHORT $LN24@SetTextPos
  0016b	8b 49 40	 mov	 ecx, DWORD PTR [ecx+64]

; 732  : 		m_pGannFan45Tool->SetTextPosition(bLeft);

  0016e	eb 1c		 jmp	 SHORT $LN36@SetTextPos
$LN24@SetTextPos:

; 733  : 	else if(eToolType == CAnalysis::EN_ANALYSIS_GANN_FAN135 && m_pGannFan135Tool != NULL)

  00170	83 f8 10	 cmp	 eax, 16			; 00000010H
  00173	75 05		 jne	 SHORT $LN26@SetTextPos
  00175	8b 49 44	 mov	 ecx, DWORD PTR [ecx+68]

; 734  : 		m_pGannFan135Tool->SetTextPosition(bLeft);

  00178	eb 12		 jmp	 SHORT $LN36@SetTextPos
$LN26@SetTextPos:

; 735  : 	else if(eToolType == CAnalysis::EN_ANALYSIS_GANN_FAN225 && m_pGannFan225Tool != NULL)

  0017a	83 f8 11	 cmp	 eax, 17			; 00000011H
  0017d	75 05		 jne	 SHORT $LN28@SetTextPos
  0017f	8b 49 48	 mov	 ecx, DWORD PTR [ecx+72]

; 736  : 		m_pGannFan225Tool->SetTextPosition(bLeft);

  00182	eb 08		 jmp	 SHORT $LN36@SetTextPos
$LN28@SetTextPos:

; 737  : 	else if(eToolType == CAnalysis::EN_ANALYSIS_GANN_FAN315 && m_pGannFan315Tool != NULL)

  00184	83 f8 12	 cmp	 eax, 18			; 00000012H
  00187	75 13		 jne	 SHORT $LN30@SetTextPos
  00189	8b 49 4c	 mov	 ecx, DWORD PTR [ecx+76]
$LN36@SetTextPos:

; 743  : }

  0018c	85 c9		 test	 ecx, ecx
  0018e	74 38		 je	 SHORT $LN34@SetTextPos
  00190	ff 75 0c	 push	 DWORD PTR _bLeft$[ebp]
  00193	e8 00 00 00 00	 call	 ?SetTextPosition@CGannFanTool@@QAEX_N@Z ; CGannFanTool::SetTextPosition
  00198	5d		 pop	 ebp
  00199	c2 18 00	 ret	 24			; 00000018H
$LN30@SetTextPos:

; 738  : 		m_pGannFan315Tool->SetTextPosition(bLeft);
; 739  : 	else if(eToolType == CAnalysis::EN_ANALYSIS_ANGLE_LINE && m_pAngleLineTool != NULL)

  0019c	83 f8 1d	 cmp	 eax, 29			; 0000001dH
  0019f	75 13		 jne	 SHORT $LN32@SetTextPos
  001a1	8b 49 70	 mov	 ecx, DWORD PTR [ecx+112]
  001a4	85 c9		 test	 ecx, ecx
  001a6	74 20		 je	 SHORT $LN34@SetTextPos

; 740  : 		m_pAngleLineTool->SetTextPosition(bLeft);

  001a8	ff 75 0c	 push	 DWORD PTR _bLeft$[ebp]
  001ab	e8 00 00 00 00	 call	 ?SetTextPosition@CAngleLineTool@@QAEX_N@Z ; CAngleLineTool::SetTextPosition

; 743  : }

  001b0	5d		 pop	 ebp
  001b1	c2 18 00	 ret	 24			; 00000018H
$LN32@SetTextPos:

; 741  : 	else if(eToolType == CAnalysis::EN_ANALYSIS_CANDLE_LINE && m_pCandleLineTool != NULL)

  001b4	83 f8 1e	 cmp	 eax, 30			; 0000001eH
  001b7	75 0f		 jne	 SHORT $LN34@SetTextPos
  001b9	8b 49 74	 mov	 ecx, DWORD PTR [ecx+116]
  001bc	85 c9		 test	 ecx, ecx
  001be	74 08		 je	 SHORT $LN34@SetTextPos

; 742  : 		m_pCandleLineTool->SetTextPosition(bLeft);

  001c0	ff 75 0c	 push	 DWORD PTR _bLeft$[ebp]
  001c3	e8 00 00 00 00	 call	 ?SetTextPosition@CCandleLineTool@@QAEX_N@Z ; CCandleLineTool::SetTextPosition
$LN34@SetTextPos:

; 743  : }

  001c8	5d		 pop	 ebp
  001c9	c2 18 00	 ret	 24			; 00000018H
?SetTextPosition@CToolSingleton@@QAEXW4TOOLTYPE@CAnalysis@@_N1111@Z ENDP ; CToolSingleton::SetTextPosition
_TEXT	ENDS
; Function compile flags: /Ogtp
; File D:\git\src\IBK\IBK_DRFN\ProjSrc\SrcChartEx\ChartAddIn\ChartAnalysisToolAddIn\AnalysisTool\ToolSingleton.cpp
;	COMDAT ?SetLineDrawingInfo@CToolSingleton@@QAEXW4TOOLTYPE@CAnalysis@@KHH@Z
_TEXT	SEGMENT
_eToolType$ = 8						; size = 4
_crLine$ = 12						; size = 4
_nStyle$ = 16						; size = 4
_nWeight$ = 20						; size = 4
?SetLineDrawingInfo@CToolSingleton@@QAEXW4TOOLTYPE@CAnalysis@@KHH@Z PROC ; CToolSingleton::SetLineDrawingInfo, COMDAT
; _this$ = ecx

; 488  : {

  00000	55		 push	 ebp
  00001	8b ec		 mov	 ebp, esp

; 489  : 	if(eToolType == CAnalysis::EN_ANALYSIS_MOVE_CROSS)

  00003	8b 45 08	 mov	 eax, DWORD PTR _eToolType$[ebp]
  00006	56		 push	 esi
  00007	8b f1		 mov	 esi, ecx
  00009	57		 push	 edi
  0000a	83 f8 01	 cmp	 eax, 1
  0000d	75 4c		 jne	 SHORT $LN2@SetLineDra

; 490  : 	{
; 491  : 		SetBaseColor(m_pCrossLineMoveTool,crLine,crLine);

  0000f	8b 7e 08	 mov	 edi, DWORD PTR [esi+8]

; 884  : 	if(pTool == NULL)

  00012	85 ff		 test	 edi, edi
  00014	0f 84 e9 0a 00
	00		 je	 $LN386@SetLineDra

; 885  : 		return;
; 886  : 
; 887  : 	pTool->SetPenColor(penColor);

  0001a	8d 45 0c	 lea	 eax, DWORD PTR _crLine$[ebp]
  0001d	8b cf		 mov	 ecx, edi
  0001f	50		 push	 eax
  00020	e8 00 00 00 00	 call	 ?SetPenColor@CTool@@QAEXABK@Z ; CTool::SetPenColor

; 888  : 	pTool->SetTextColor(textColor);

  00025	8d 45 0c	 lea	 eax, DWORD PTR _crLine$[ebp]
  00028	8b cf		 mov	 ecx, edi
  0002a	50		 push	 eax
  0002b	e8 00 00 00 00	 call	 ?SetTextColor@CTool@@QAEXABK@Z ; CTool::SetTextColor
  00030	8b 7e 08	 mov	 edi, DWORD PTR [esi+8]

; 909  : 	if(pTool == NULL)

  00033	85 ff		 test	 edi, edi
  00035	0f 84 c8 0a 00
	00		 je	 $LN386@SetLineDra

; 910  : 		return;
; 911  : 
; 912  : 	pTool->GetElementCommonEnvironment().GetPen().SetStyle((CToolEnumData::PenStyle) nStyle);

  0003b	ff 75 10	 push	 DWORD PTR _nStyle$[ebp]
  0003e	8b cf		 mov	 ecx, edi
  00040	e8 00 00 00 00	 call	 ?GetElementCommonEnvironment@CTool@@QAEAAVCElementCommonEnvironment@@XZ ; CTool::GetElementCommonEnvironment
  00045	8b c8		 mov	 ecx, eax
  00047	e8 00 00 00 00	 call	 ?GetPen@CElementCommonEnvironment@@QAEAAVCPenEnvironment@@XZ ; CElementCommonEnvironment::GetPen
  0004c	8b c8		 mov	 ecx, eax
  0004e	e8 00 00 00 00	 call	 ?SetStyle@CPenEnvironment@@QAEXW4PenStyle@CToolEnumData@@@Z ; CPenEnvironment::SetStyle
  00053	8b 4e 08	 mov	 ecx, DWORD PTR [esi+8]

; 492  : 		SetBasePenStyle(m_pCrossLineMoveTool,nStyle);
; 493  : 		SetBasePenThickness(m_pCrossLineMoveTool,nWeight);
; 494  : 	}

  00056	e9 8e 0a 00 00	 jmp	 $LN391@SetLineDra
$LN2@SetLineDra:

; 495  : 	else if(eToolType == CAnalysis::EN_ANALYSIS_DOWN_CROSS)

  0005b	83 f8 02	 cmp	 eax, 2
  0005e	75 4c		 jne	 SHORT $LN4@SetLineDra

; 496  : 	{
; 497  : 		SetBaseColor(m_pCrossLineDownTool,crLine,crLine);

  00060	8b 7e 0c	 mov	 edi, DWORD PTR [esi+12]

; 884  : 	if(pTool == NULL)

  00063	85 ff		 test	 edi, edi
  00065	0f 84 98 0a 00
	00		 je	 $LN386@SetLineDra

; 885  : 		return;
; 886  : 
; 887  : 	pTool->SetPenColor(penColor);

  0006b	8d 45 0c	 lea	 eax, DWORD PTR _crLine$[ebp]
  0006e	8b cf		 mov	 ecx, edi
  00070	50		 push	 eax
  00071	e8 00 00 00 00	 call	 ?SetPenColor@CTool@@QAEXABK@Z ; CTool::SetPenColor

; 888  : 	pTool->SetTextColor(textColor);

  00076	8d 45 0c	 lea	 eax, DWORD PTR _crLine$[ebp]
  00079	8b cf		 mov	 ecx, edi
  0007b	50		 push	 eax
  0007c	e8 00 00 00 00	 call	 ?SetTextColor@CTool@@QAEXABK@Z ; CTool::SetTextColor
  00081	8b 7e 0c	 mov	 edi, DWORD PTR [esi+12]

; 909  : 	if(pTool == NULL)

  00084	85 ff		 test	 edi, edi
  00086	0f 84 77 0a 00
	00		 je	 $LN386@SetLineDra

; 910  : 		return;
; 911  : 
; 912  : 	pTool->GetElementCommonEnvironment().GetPen().SetStyle((CToolEnumData::PenStyle) nStyle);

  0008c	ff 75 10	 push	 DWORD PTR _nStyle$[ebp]
  0008f	8b cf		 mov	 ecx, edi
  00091	e8 00 00 00 00	 call	 ?GetElementCommonEnvironment@CTool@@QAEAAVCElementCommonEnvironment@@XZ ; CTool::GetElementCommonEnvironment
  00096	8b c8		 mov	 ecx, eax
  00098	e8 00 00 00 00	 call	 ?GetPen@CElementCommonEnvironment@@QAEAAVCPenEnvironment@@XZ ; CElementCommonEnvironment::GetPen
  0009d	8b c8		 mov	 ecx, eax
  0009f	e8 00 00 00 00	 call	 ?SetStyle@CPenEnvironment@@QAEXW4PenStyle@CToolEnumData@@@Z ; CPenEnvironment::SetStyle
  000a4	8b 4e 0c	 mov	 ecx, DWORD PTR [esi+12]

; 498  : 		SetBasePenStyle(m_pCrossLineDownTool,nStyle);
; 499  : 		SetBasePenThickness(m_pCrossLineDownTool,nWeight);
; 500  : 	}

  000a7	e9 3d 0a 00 00	 jmp	 $LN391@SetLineDra
$LN4@SetLineDra:

; 501  : 	else if(eToolType == CAnalysis::EN_ANALYSIS_VERT_LINE)

  000ac	83 f8 03	 cmp	 eax, 3
  000af	75 4c		 jne	 SHORT $LN6@SetLineDra

; 502  : 	{
; 503  : 		SetBaseColor(m_pVertLineTool,crLine,crLine);

  000b1	8b 7e 10	 mov	 edi, DWORD PTR [esi+16]

; 884  : 	if(pTool == NULL)

  000b4	85 ff		 test	 edi, edi
  000b6	0f 84 47 0a 00
	00		 je	 $LN386@SetLineDra

; 885  : 		return;
; 886  : 
; 887  : 	pTool->SetPenColor(penColor);

  000bc	8d 45 0c	 lea	 eax, DWORD PTR _crLine$[ebp]
  000bf	8b cf		 mov	 ecx, edi
  000c1	50		 push	 eax
  000c2	e8 00 00 00 00	 call	 ?SetPenColor@CTool@@QAEXABK@Z ; CTool::SetPenColor

; 888  : 	pTool->SetTextColor(textColor);

  000c7	8d 45 0c	 lea	 eax, DWORD PTR _crLine$[ebp]
  000ca	8b cf		 mov	 ecx, edi
  000cc	50		 push	 eax
  000cd	e8 00 00 00 00	 call	 ?SetTextColor@CTool@@QAEXABK@Z ; CTool::SetTextColor
  000d2	8b 7e 10	 mov	 edi, DWORD PTR [esi+16]

; 909  : 	if(pTool == NULL)

  000d5	85 ff		 test	 edi, edi
  000d7	0f 84 26 0a 00
	00		 je	 $LN386@SetLineDra

; 910  : 		return;
; 911  : 
; 912  : 	pTool->GetElementCommonEnvironment().GetPen().SetStyle((CToolEnumData::PenStyle) nStyle);

  000dd	ff 75 10	 push	 DWORD PTR _nStyle$[ebp]
  000e0	8b cf		 mov	 ecx, edi
  000e2	e8 00 00 00 00	 call	 ?GetElementCommonEnvironment@CTool@@QAEAAVCElementCommonEnvironment@@XZ ; CTool::GetElementCommonEnvironment
  000e7	8b c8		 mov	 ecx, eax
  000e9	e8 00 00 00 00	 call	 ?GetPen@CElementCommonEnvironment@@QAEAAVCPenEnvironment@@XZ ; CElementCommonEnvironment::GetPen
  000ee	8b c8		 mov	 ecx, eax
  000f0	e8 00 00 00 00	 call	 ?SetStyle@CPenEnvironment@@QAEXW4PenStyle@CToolEnumData@@@Z ; CPenEnvironment::SetStyle
  000f5	8b 4e 10	 mov	 ecx, DWORD PTR [esi+16]

; 504  : 		SetBasePenStyle(m_pVertLineTool,nStyle);
; 505  : 		SetBasePenThickness(m_pVertLineTool,nWeight);
; 506  : 	}

  000f8	e9 ec 09 00 00	 jmp	 $LN391@SetLineDra
$LN6@SetLineDra:

; 507  : 	else if(eToolType == CAnalysis::EN_ANALYSIS_HORZ_LINE)

  000fd	83 f8 04	 cmp	 eax, 4
  00100	75 4c		 jne	 SHORT $LN8@SetLineDra

; 508  : 	{
; 509  : 		SetBaseColor(m_pHorzLineTool,crLine,crLine);

  00102	8b 7e 14	 mov	 edi, DWORD PTR [esi+20]

; 884  : 	if(pTool == NULL)

  00105	85 ff		 test	 edi, edi
  00107	0f 84 f6 09 00
	00		 je	 $LN386@SetLineDra

; 885  : 		return;
; 886  : 
; 887  : 	pTool->SetPenColor(penColor);

  0010d	8d 45 0c	 lea	 eax, DWORD PTR _crLine$[ebp]
  00110	8b cf		 mov	 ecx, edi
  00112	50		 push	 eax
  00113	e8 00 00 00 00	 call	 ?SetPenColor@CTool@@QAEXABK@Z ; CTool::SetPenColor

; 888  : 	pTool->SetTextColor(textColor);

  00118	8d 45 0c	 lea	 eax, DWORD PTR _crLine$[ebp]
  0011b	8b cf		 mov	 ecx, edi
  0011d	50		 push	 eax
  0011e	e8 00 00 00 00	 call	 ?SetTextColor@CTool@@QAEXABK@Z ; CTool::SetTextColor
  00123	8b 7e 14	 mov	 edi, DWORD PTR [esi+20]

; 909  : 	if(pTool == NULL)

  00126	85 ff		 test	 edi, edi
  00128	0f 84 d5 09 00
	00		 je	 $LN386@SetLineDra

; 910  : 		return;
; 911  : 
; 912  : 	pTool->GetElementCommonEnvironment().GetPen().SetStyle((CToolEnumData::PenStyle) nStyle);

  0012e	ff 75 10	 push	 DWORD PTR _nStyle$[ebp]
  00131	8b cf		 mov	 ecx, edi
  00133	e8 00 00 00 00	 call	 ?GetElementCommonEnvironment@CTool@@QAEAAVCElementCommonEnvironment@@XZ ; CTool::GetElementCommonEnvironment
  00138	8b c8		 mov	 ecx, eax
  0013a	e8 00 00 00 00	 call	 ?GetPen@CElementCommonEnvironment@@QAEAAVCPenEnvironment@@XZ ; CElementCommonEnvironment::GetPen
  0013f	8b c8		 mov	 ecx, eax
  00141	e8 00 00 00 00	 call	 ?SetStyle@CPenEnvironment@@QAEXW4PenStyle@CToolEnumData@@@Z ; CPenEnvironment::SetStyle
  00146	8b 4e 14	 mov	 ecx, DWORD PTR [esi+20]

; 510  : 		SetBasePenStyle(m_pHorzLineTool,nStyle);
; 511  : 		SetBasePenThickness(m_pHorzLineTool,nWeight);
; 512  : 	}

  00149	e9 9b 09 00 00	 jmp	 $LN391@SetLineDra
$LN8@SetLineDra:

; 513  : 	else if(eToolType == CAnalysis::EN_ANALYSIS_LINE)

  0014e	83 f8 05	 cmp	 eax, 5
  00151	75 4c		 jne	 SHORT $LN10@SetLineDra

; 514  : 	{
; 515  : 		SetBaseColor(m_pLineTool,crLine,crLine);

  00153	8b 7e 18	 mov	 edi, DWORD PTR [esi+24]

; 884  : 	if(pTool == NULL)

  00156	85 ff		 test	 edi, edi
  00158	0f 84 a5 09 00
	00		 je	 $LN386@SetLineDra

; 885  : 		return;
; 886  : 
; 887  : 	pTool->SetPenColor(penColor);

  0015e	8d 45 0c	 lea	 eax, DWORD PTR _crLine$[ebp]
  00161	8b cf		 mov	 ecx, edi
  00163	50		 push	 eax
  00164	e8 00 00 00 00	 call	 ?SetPenColor@CTool@@QAEXABK@Z ; CTool::SetPenColor

; 888  : 	pTool->SetTextColor(textColor);

  00169	8d 45 0c	 lea	 eax, DWORD PTR _crLine$[ebp]
  0016c	8b cf		 mov	 ecx, edi
  0016e	50		 push	 eax
  0016f	e8 00 00 00 00	 call	 ?SetTextColor@CTool@@QAEXABK@Z ; CTool::SetTextColor
  00174	8b 7e 18	 mov	 edi, DWORD PTR [esi+24]

; 909  : 	if(pTool == NULL)

  00177	85 ff		 test	 edi, edi
  00179	0f 84 84 09 00
	00		 je	 $LN386@SetLineDra

; 910  : 		return;
; 911  : 
; 912  : 	pTool->GetElementCommonEnvironment().GetPen().SetStyle((CToolEnumData::PenStyle) nStyle);

  0017f	ff 75 10	 push	 DWORD PTR _nStyle$[ebp]
  00182	8b cf		 mov	 ecx, edi
  00184	e8 00 00 00 00	 call	 ?GetElementCommonEnvironment@CTool@@QAEAAVCElementCommonEnvironment@@XZ ; CTool::GetElementCommonEnvironment
  00189	8b c8		 mov	 ecx, eax
  0018b	e8 00 00 00 00	 call	 ?GetPen@CElementCommonEnvironment@@QAEAAVCPenEnvironment@@XZ ; CElementCommonEnvironment::GetPen
  00190	8b c8		 mov	 ecx, eax
  00192	e8 00 00 00 00	 call	 ?SetStyle@CPenEnvironment@@QAEXW4PenStyle@CToolEnumData@@@Z ; CPenEnvironment::SetStyle
  00197	8b 4e 18	 mov	 ecx, DWORD PTR [esi+24]

; 516  : 		SetBasePenStyle(m_pLineTool,nStyle);
; 517  : 		SetBasePenThickness(m_pLineTool,nWeight);
; 518  : 	}

  0019a	e9 4a 09 00 00	 jmp	 $LN391@SetLineDra
$LN10@SetLineDra:

; 519  : 	else if(eToolType == CAnalysis::EN_ANALYSIS_TRISECT)

  0019f	83 f8 06	 cmp	 eax, 6
  001a2	75 4c		 jne	 SHORT $LN12@SetLineDra

; 520  : 	{
; 521  : 		SetBaseColor(m_pTrisectionLineTool,crLine,crLine);

  001a4	8b 7e 1c	 mov	 edi, DWORD PTR [esi+28]

; 884  : 	if(pTool == NULL)

  001a7	85 ff		 test	 edi, edi
  001a9	0f 84 54 09 00
	00		 je	 $LN386@SetLineDra

; 885  : 		return;
; 886  : 
; 887  : 	pTool->SetPenColor(penColor);

  001af	8d 45 0c	 lea	 eax, DWORD PTR _crLine$[ebp]
  001b2	8b cf		 mov	 ecx, edi
  001b4	50		 push	 eax
  001b5	e8 00 00 00 00	 call	 ?SetPenColor@CTool@@QAEXABK@Z ; CTool::SetPenColor

; 888  : 	pTool->SetTextColor(textColor);

  001ba	8d 45 0c	 lea	 eax, DWORD PTR _crLine$[ebp]
  001bd	8b cf		 mov	 ecx, edi
  001bf	50		 push	 eax
  001c0	e8 00 00 00 00	 call	 ?SetTextColor@CTool@@QAEXABK@Z ; CTool::SetTextColor
  001c5	8b 7e 1c	 mov	 edi, DWORD PTR [esi+28]

; 909  : 	if(pTool == NULL)

  001c8	85 ff		 test	 edi, edi
  001ca	0f 84 33 09 00
	00		 je	 $LN386@SetLineDra

; 910  : 		return;
; 911  : 
; 912  : 	pTool->GetElementCommonEnvironment().GetPen().SetStyle((CToolEnumData::PenStyle) nStyle);

  001d0	ff 75 10	 push	 DWORD PTR _nStyle$[ebp]
  001d3	8b cf		 mov	 ecx, edi
  001d5	e8 00 00 00 00	 call	 ?GetElementCommonEnvironment@CTool@@QAEAAVCElementCommonEnvironment@@XZ ; CTool::GetElementCommonEnvironment
  001da	8b c8		 mov	 ecx, eax
  001dc	e8 00 00 00 00	 call	 ?GetPen@CElementCommonEnvironment@@QAEAAVCPenEnvironment@@XZ ; CElementCommonEnvironment::GetPen
  001e1	8b c8		 mov	 ecx, eax
  001e3	e8 00 00 00 00	 call	 ?SetStyle@CPenEnvironment@@QAEXW4PenStyle@CToolEnumData@@@Z ; CPenEnvironment::SetStyle
  001e8	8b 4e 1c	 mov	 ecx, DWORD PTR [esi+28]

; 522  : 		SetBasePenStyle(m_pTrisectionLineTool,nStyle);
; 523  : 		SetBasePenThickness(m_pTrisectionLineTool,nWeight);
; 524  : 	}

  001eb	e9 f9 08 00 00	 jmp	 $LN391@SetLineDra
$LN12@SetLineDra:

; 525  : 	else if(eToolType == CAnalysis::EN_ANALYSIS_QUARTER)

  001f0	83 f8 07	 cmp	 eax, 7
  001f3	75 4c		 jne	 SHORT $LN14@SetLineDra

; 526  : 	{
; 527  : 		SetBaseColor(m_pQuadrisectLineTool,crLine,crLine);

  001f5	8b 7e 20	 mov	 edi, DWORD PTR [esi+32]

; 884  : 	if(pTool == NULL)

  001f8	85 ff		 test	 edi, edi
  001fa	0f 84 03 09 00
	00		 je	 $LN386@SetLineDra

; 885  : 		return;
; 886  : 
; 887  : 	pTool->SetPenColor(penColor);

  00200	8d 45 0c	 lea	 eax, DWORD PTR _crLine$[ebp]
  00203	8b cf		 mov	 ecx, edi
  00205	50		 push	 eax
  00206	e8 00 00 00 00	 call	 ?SetPenColor@CTool@@QAEXABK@Z ; CTool::SetPenColor

; 888  : 	pTool->SetTextColor(textColor);

  0020b	8d 45 0c	 lea	 eax, DWORD PTR _crLine$[ebp]
  0020e	8b cf		 mov	 ecx, edi
  00210	50		 push	 eax
  00211	e8 00 00 00 00	 call	 ?SetTextColor@CTool@@QAEXABK@Z ; CTool::SetTextColor
  00216	8b 7e 20	 mov	 edi, DWORD PTR [esi+32]

; 909  : 	if(pTool == NULL)

  00219	85 ff		 test	 edi, edi
  0021b	0f 84 e2 08 00
	00		 je	 $LN386@SetLineDra

; 910  : 		return;
; 911  : 
; 912  : 	pTool->GetElementCommonEnvironment().GetPen().SetStyle((CToolEnumData::PenStyle) nStyle);

  00221	ff 75 10	 push	 DWORD PTR _nStyle$[ebp]
  00224	8b cf		 mov	 ecx, edi
  00226	e8 00 00 00 00	 call	 ?GetElementCommonEnvironment@CTool@@QAEAAVCElementCommonEnvironment@@XZ ; CTool::GetElementCommonEnvironment
  0022b	8b c8		 mov	 ecx, eax
  0022d	e8 00 00 00 00	 call	 ?GetPen@CElementCommonEnvironment@@QAEAAVCPenEnvironment@@XZ ; CElementCommonEnvironment::GetPen
  00232	8b c8		 mov	 ecx, eax
  00234	e8 00 00 00 00	 call	 ?SetStyle@CPenEnvironment@@QAEXW4PenStyle@CToolEnumData@@@Z ; CPenEnvironment::SetStyle
  00239	8b 4e 20	 mov	 ecx, DWORD PTR [esi+32]

; 528  : 		SetBasePenStyle(m_pQuadrisectLineTool,nStyle);
; 529  : 		SetBasePenThickness(m_pQuadrisectLineTool,nWeight);
; 530  : 	}

  0023c	e9 a8 08 00 00	 jmp	 $LN391@SetLineDra
$LN14@SetLineDra:

; 531  : 	else if(eToolType == CAnalysis::EN_ANALYSIS_FIBO_SEMICIRCLE)

  00241	83 f8 08	 cmp	 eax, 8
  00244	75 4c		 jne	 SHORT $LN16@SetLineDra

; 532  : 	{
; 533  : 		SetBaseColor(m_pFiboSemicircleTool,crLine,crLine);

  00246	8b 7e 24	 mov	 edi, DWORD PTR [esi+36]

; 884  : 	if(pTool == NULL)

  00249	85 ff		 test	 edi, edi
  0024b	0f 84 b2 08 00
	00		 je	 $LN386@SetLineDra

; 885  : 		return;
; 886  : 
; 887  : 	pTool->SetPenColor(penColor);

  00251	8d 45 0c	 lea	 eax, DWORD PTR _crLine$[ebp]
  00254	8b cf		 mov	 ecx, edi
  00256	50		 push	 eax
  00257	e8 00 00 00 00	 call	 ?SetPenColor@CTool@@QAEXABK@Z ; CTool::SetPenColor

; 888  : 	pTool->SetTextColor(textColor);

  0025c	8d 45 0c	 lea	 eax, DWORD PTR _crLine$[ebp]
  0025f	8b cf		 mov	 ecx, edi
  00261	50		 push	 eax
  00262	e8 00 00 00 00	 call	 ?SetTextColor@CTool@@QAEXABK@Z ; CTool::SetTextColor
  00267	8b 7e 24	 mov	 edi, DWORD PTR [esi+36]

; 909  : 	if(pTool == NULL)

  0026a	85 ff		 test	 edi, edi
  0026c	0f 84 91 08 00
	00		 je	 $LN386@SetLineDra

; 910  : 		return;
; 911  : 
; 912  : 	pTool->GetElementCommonEnvironment().GetPen().SetStyle((CToolEnumData::PenStyle) nStyle);

  00272	ff 75 10	 push	 DWORD PTR _nStyle$[ebp]
  00275	8b cf		 mov	 ecx, edi
  00277	e8 00 00 00 00	 call	 ?GetElementCommonEnvironment@CTool@@QAEAAVCElementCommonEnvironment@@XZ ; CTool::GetElementCommonEnvironment
  0027c	8b c8		 mov	 ecx, eax
  0027e	e8 00 00 00 00	 call	 ?GetPen@CElementCommonEnvironment@@QAEAAVCPenEnvironment@@XZ ; CElementCommonEnvironment::GetPen
  00283	8b c8		 mov	 ecx, eax
  00285	e8 00 00 00 00	 call	 ?SetStyle@CPenEnvironment@@QAEXW4PenStyle@CToolEnumData@@@Z ; CPenEnvironment::SetStyle
  0028a	8b 4e 24	 mov	 ecx, DWORD PTR [esi+36]

; 534  : 		SetBasePenStyle(m_pFiboSemicircleTool,nStyle);
; 535  : 		SetBasePenThickness(m_pFiboSemicircleTool,nWeight);
; 536  : 	}

  0028d	e9 57 08 00 00	 jmp	 $LN391@SetLineDra
$LN16@SetLineDra:

; 537  : 	else if(eToolType == CAnalysis::EN_ANALYSIS_FIBO_CIRCLE)

  00292	83 f8 09	 cmp	 eax, 9
  00295	75 4c		 jne	 SHORT $LN18@SetLineDra

; 538  : 	{
; 539  : 		SetBaseColor(m_pFiboCircleTool,crLine,crLine);

  00297	8b 7e 28	 mov	 edi, DWORD PTR [esi+40]

; 884  : 	if(pTool == NULL)

  0029a	85 ff		 test	 edi, edi
  0029c	0f 84 61 08 00
	00		 je	 $LN386@SetLineDra

; 885  : 		return;
; 886  : 
; 887  : 	pTool->SetPenColor(penColor);

  002a2	8d 45 0c	 lea	 eax, DWORD PTR _crLine$[ebp]
  002a5	8b cf		 mov	 ecx, edi
  002a7	50		 push	 eax
  002a8	e8 00 00 00 00	 call	 ?SetPenColor@CTool@@QAEXABK@Z ; CTool::SetPenColor

; 888  : 	pTool->SetTextColor(textColor);

  002ad	8d 45 0c	 lea	 eax, DWORD PTR _crLine$[ebp]
  002b0	8b cf		 mov	 ecx, edi
  002b2	50		 push	 eax
  002b3	e8 00 00 00 00	 call	 ?SetTextColor@CTool@@QAEXABK@Z ; CTool::SetTextColor
  002b8	8b 7e 28	 mov	 edi, DWORD PTR [esi+40]

; 909  : 	if(pTool == NULL)

  002bb	85 ff		 test	 edi, edi
  002bd	0f 84 40 08 00
	00		 je	 $LN386@SetLineDra

; 910  : 		return;
; 911  : 
; 912  : 	pTool->GetElementCommonEnvironment().GetPen().SetStyle((CToolEnumData::PenStyle) nStyle);

  002c3	ff 75 10	 push	 DWORD PTR _nStyle$[ebp]
  002c6	8b cf		 mov	 ecx, edi
  002c8	e8 00 00 00 00	 call	 ?GetElementCommonEnvironment@CTool@@QAEAAVCElementCommonEnvironment@@XZ ; CTool::GetElementCommonEnvironment
  002cd	8b c8		 mov	 ecx, eax
  002cf	e8 00 00 00 00	 call	 ?GetPen@CElementCommonEnvironment@@QAEAAVCPenEnvironment@@XZ ; CElementCommonEnvironment::GetPen
  002d4	8b c8		 mov	 ecx, eax
  002d6	e8 00 00 00 00	 call	 ?SetStyle@CPenEnvironment@@QAEXW4PenStyle@CToolEnumData@@@Z ; CPenEnvironment::SetStyle
  002db	8b 4e 28	 mov	 ecx, DWORD PTR [esi+40]

; 540  : 		SetBasePenStyle(m_pFiboCircleTool,nStyle);
; 541  : 		SetBasePenThickness(m_pFiboCircleTool,nWeight);
; 542  : 	}

  002de	e9 06 08 00 00	 jmp	 $LN391@SetLineDra
$LN18@SetLineDra:

; 543  : 	else if(eToolType == CAnalysis::EN_ANALYSIS_FIBO_FAN_LINE)

  002e3	83 f8 0a	 cmp	 eax, 10			; 0000000aH
  002e6	75 4c		 jne	 SHORT $LN20@SetLineDra

; 544  : 	{
; 545  : 		SetBaseColor(m_pFiboPenLineTool,crLine,crLine);

  002e8	8b 7e 2c	 mov	 edi, DWORD PTR [esi+44]

; 884  : 	if(pTool == NULL)

  002eb	85 ff		 test	 edi, edi
  002ed	0f 84 10 08 00
	00		 je	 $LN386@SetLineDra

; 885  : 		return;
; 886  : 
; 887  : 	pTool->SetPenColor(penColor);

  002f3	8d 45 0c	 lea	 eax, DWORD PTR _crLine$[ebp]
  002f6	8b cf		 mov	 ecx, edi
  002f8	50		 push	 eax
  002f9	e8 00 00 00 00	 call	 ?SetPenColor@CTool@@QAEXABK@Z ; CTool::SetPenColor

; 888  : 	pTool->SetTextColor(textColor);

  002fe	8d 45 0c	 lea	 eax, DWORD PTR _crLine$[ebp]
  00301	8b cf		 mov	 ecx, edi
  00303	50		 push	 eax
  00304	e8 00 00 00 00	 call	 ?SetTextColor@CTool@@QAEXABK@Z ; CTool::SetTextColor
  00309	8b 7e 2c	 mov	 edi, DWORD PTR [esi+44]

; 909  : 	if(pTool == NULL)

  0030c	85 ff		 test	 edi, edi
  0030e	0f 84 ef 07 00
	00		 je	 $LN386@SetLineDra

; 910  : 		return;
; 911  : 
; 912  : 	pTool->GetElementCommonEnvironment().GetPen().SetStyle((CToolEnumData::PenStyle) nStyle);

  00314	ff 75 10	 push	 DWORD PTR _nStyle$[ebp]
  00317	8b cf		 mov	 ecx, edi
  00319	e8 00 00 00 00	 call	 ?GetElementCommonEnvironment@CTool@@QAEAAVCElementCommonEnvironment@@XZ ; CTool::GetElementCommonEnvironment
  0031e	8b c8		 mov	 ecx, eax
  00320	e8 00 00 00 00	 call	 ?GetPen@CElementCommonEnvironment@@QAEAAVCPenEnvironment@@XZ ; CElementCommonEnvironment::GetPen
  00325	8b c8		 mov	 ecx, eax
  00327	e8 00 00 00 00	 call	 ?SetStyle@CPenEnvironment@@QAEXW4PenStyle@CToolEnumData@@@Z ; CPenEnvironment::SetStyle
  0032c	8b 4e 2c	 mov	 ecx, DWORD PTR [esi+44]

; 546  : 		SetBasePenStyle(m_pFiboPenLineTool,nStyle);
; 547  : 		SetBasePenThickness(m_pFiboPenLineTool,nWeight);
; 548  : 	}

  0032f	e9 b5 07 00 00	 jmp	 $LN391@SetLineDra
$LN20@SetLineDra:

; 549  : 	else if(eToolType == CAnalysis::EN_ANALYSIS_FIBO_RETRACE)

  00334	83 f8 0b	 cmp	 eax, 11			; 0000000bH
  00337	75 4c		 jne	 SHORT $LN22@SetLineDra

; 550  : 	{
; 551  : 		SetBaseColor(m_pFiboRetraceTool,crLine,crLine);

  00339	8b 7e 30	 mov	 edi, DWORD PTR [esi+48]

; 884  : 	if(pTool == NULL)

  0033c	85 ff		 test	 edi, edi
  0033e	0f 84 bf 07 00
	00		 je	 $LN386@SetLineDra

; 885  : 		return;
; 886  : 
; 887  : 	pTool->SetPenColor(penColor);

  00344	8d 45 0c	 lea	 eax, DWORD PTR _crLine$[ebp]
  00347	8b cf		 mov	 ecx, edi
  00349	50		 push	 eax
  0034a	e8 00 00 00 00	 call	 ?SetPenColor@CTool@@QAEXABK@Z ; CTool::SetPenColor

; 888  : 	pTool->SetTextColor(textColor);

  0034f	8d 45 0c	 lea	 eax, DWORD PTR _crLine$[ebp]
  00352	8b cf		 mov	 ecx, edi
  00354	50		 push	 eax
  00355	e8 00 00 00 00	 call	 ?SetTextColor@CTool@@QAEXABK@Z ; CTool::SetTextColor
  0035a	8b 7e 30	 mov	 edi, DWORD PTR [esi+48]

; 909  : 	if(pTool == NULL)

  0035d	85 ff		 test	 edi, edi
  0035f	0f 84 9e 07 00
	00		 je	 $LN386@SetLineDra

; 910  : 		return;
; 911  : 
; 912  : 	pTool->GetElementCommonEnvironment().GetPen().SetStyle((CToolEnumData::PenStyle) nStyle);

  00365	ff 75 10	 push	 DWORD PTR _nStyle$[ebp]
  00368	8b cf		 mov	 ecx, edi
  0036a	e8 00 00 00 00	 call	 ?GetElementCommonEnvironment@CTool@@QAEAAVCElementCommonEnvironment@@XZ ; CTool::GetElementCommonEnvironment
  0036f	8b c8		 mov	 ecx, eax
  00371	e8 00 00 00 00	 call	 ?GetPen@CElementCommonEnvironment@@QAEAAVCPenEnvironment@@XZ ; CElementCommonEnvironment::GetPen
  00376	8b c8		 mov	 ecx, eax
  00378	e8 00 00 00 00	 call	 ?SetStyle@CPenEnvironment@@QAEXW4PenStyle@CToolEnumData@@@Z ; CPenEnvironment::SetStyle
  0037d	8b 4e 30	 mov	 ecx, DWORD PTR [esi+48]

; 552  : 		SetBasePenStyle(m_pFiboRetraceTool,nStyle);
; 553  : 		SetBasePenThickness(m_pFiboRetraceTool,nWeight);
; 554  : 	}

  00380	e9 64 07 00 00	 jmp	 $LN391@SetLineDra
$LN22@SetLineDra:

; 555  : 	else if(eToolType == CAnalysis::EN_ANALYSIS_FIBO_TIME)

  00385	83 f8 0c	 cmp	 eax, 12			; 0000000cH
  00388	75 4c		 jne	 SHORT $LN24@SetLineDra

; 556  : 	{
; 557  : 		SetBaseColor(m_pFiboTimeTool,crLine,crLine);

  0038a	8b 7e 34	 mov	 edi, DWORD PTR [esi+52]

; 884  : 	if(pTool == NULL)

  0038d	85 ff		 test	 edi, edi
  0038f	0f 84 6e 07 00
	00		 je	 $LN386@SetLineDra

; 885  : 		return;
; 886  : 
; 887  : 	pTool->SetPenColor(penColor);

  00395	8d 45 0c	 lea	 eax, DWORD PTR _crLine$[ebp]
  00398	8b cf		 mov	 ecx, edi
  0039a	50		 push	 eax
  0039b	e8 00 00 00 00	 call	 ?SetPenColor@CTool@@QAEXABK@Z ; CTool::SetPenColor

; 888  : 	pTool->SetTextColor(textColor);

  003a0	8d 45 0c	 lea	 eax, DWORD PTR _crLine$[ebp]
  003a3	8b cf		 mov	 ecx, edi
  003a5	50		 push	 eax
  003a6	e8 00 00 00 00	 call	 ?SetTextColor@CTool@@QAEXABK@Z ; CTool::SetTextColor
  003ab	8b 7e 34	 mov	 edi, DWORD PTR [esi+52]

; 909  : 	if(pTool == NULL)

  003ae	85 ff		 test	 edi, edi
  003b0	0f 84 4d 07 00
	00		 je	 $LN386@SetLineDra

; 910  : 		return;
; 911  : 
; 912  : 	pTool->GetElementCommonEnvironment().GetPen().SetStyle((CToolEnumData::PenStyle) nStyle);

  003b6	ff 75 10	 push	 DWORD PTR _nStyle$[ebp]
  003b9	8b cf		 mov	 ecx, edi
  003bb	e8 00 00 00 00	 call	 ?GetElementCommonEnvironment@CTool@@QAEAAVCElementCommonEnvironment@@XZ ; CTool::GetElementCommonEnvironment
  003c0	8b c8		 mov	 ecx, eax
  003c2	e8 00 00 00 00	 call	 ?GetPen@CElementCommonEnvironment@@QAEAAVCPenEnvironment@@XZ ; CElementCommonEnvironment::GetPen
  003c7	8b c8		 mov	 ecx, eax
  003c9	e8 00 00 00 00	 call	 ?SetStyle@CPenEnvironment@@QAEXW4PenStyle@CToolEnumData@@@Z ; CPenEnvironment::SetStyle
  003ce	8b 4e 34	 mov	 ecx, DWORD PTR [esi+52]

; 558  : 		SetBasePenStyle(m_pFiboTimeTool,nStyle);
; 559  : 		SetBasePenThickness(m_pFiboTimeTool,nWeight);
; 560  : 	}

  003d1	e9 13 07 00 00	 jmp	 $LN391@SetLineDra
$LN24@SetLineDra:

; 561  : 	else if(eToolType == CAnalysis::EN_ANALYSIS_GANN_LINE45)

  003d6	83 f8 0d	 cmp	 eax, 13			; 0000000dH
  003d9	75 4c		 jne	 SHORT $LN26@SetLineDra

; 562  : 	{
; 563  : 		SetBaseColor(m_pGannLine45Tool,crLine,crLine);

  003db	8b 7e 38	 mov	 edi, DWORD PTR [esi+56]

; 884  : 	if(pTool == NULL)

  003de	85 ff		 test	 edi, edi
  003e0	0f 84 1d 07 00
	00		 je	 $LN386@SetLineDra

; 885  : 		return;
; 886  : 
; 887  : 	pTool->SetPenColor(penColor);

  003e6	8d 45 0c	 lea	 eax, DWORD PTR _crLine$[ebp]
  003e9	8b cf		 mov	 ecx, edi
  003eb	50		 push	 eax
  003ec	e8 00 00 00 00	 call	 ?SetPenColor@CTool@@QAEXABK@Z ; CTool::SetPenColor

; 888  : 	pTool->SetTextColor(textColor);

  003f1	8d 45 0c	 lea	 eax, DWORD PTR _crLine$[ebp]
  003f4	8b cf		 mov	 ecx, edi
  003f6	50		 push	 eax
  003f7	e8 00 00 00 00	 call	 ?SetTextColor@CTool@@QAEXABK@Z ; CTool::SetTextColor
  003fc	8b 7e 38	 mov	 edi, DWORD PTR [esi+56]

; 909  : 	if(pTool == NULL)

  003ff	85 ff		 test	 edi, edi
  00401	0f 84 fc 06 00
	00		 je	 $LN386@SetLineDra

; 910  : 		return;
; 911  : 
; 912  : 	pTool->GetElementCommonEnvironment().GetPen().SetStyle((CToolEnumData::PenStyle) nStyle);

  00407	ff 75 10	 push	 DWORD PTR _nStyle$[ebp]
  0040a	8b cf		 mov	 ecx, edi
  0040c	e8 00 00 00 00	 call	 ?GetElementCommonEnvironment@CTool@@QAEAAVCElementCommonEnvironment@@XZ ; CTool::GetElementCommonEnvironment
  00411	8b c8		 mov	 ecx, eax
  00413	e8 00 00 00 00	 call	 ?GetPen@CElementCommonEnvironment@@QAEAAVCPenEnvironment@@XZ ; CElementCommonEnvironment::GetPen
  00418	8b c8		 mov	 ecx, eax
  0041a	e8 00 00 00 00	 call	 ?SetStyle@CPenEnvironment@@QAEXW4PenStyle@CToolEnumData@@@Z ; CPenEnvironment::SetStyle
  0041f	8b 4e 38	 mov	 ecx, DWORD PTR [esi+56]

; 564  : 		SetBasePenStyle(m_pGannLine45Tool,nStyle);
; 565  : 		SetBasePenThickness(m_pGannLine45Tool,nWeight);
; 566  : 	}

  00422	e9 c2 06 00 00	 jmp	 $LN391@SetLineDra
$LN26@SetLineDra:

; 567  : 	else if(eToolType == CAnalysis::EN_ANALYSIS_GANN_LINE315)

  00427	83 f8 0e	 cmp	 eax, 14			; 0000000eH
  0042a	75 4c		 jne	 SHORT $LN28@SetLineDra

; 568  : 	{
; 569  : 		SetBaseColor(m_pGannLine315Tool,crLine,crLine);

  0042c	8b 7e 3c	 mov	 edi, DWORD PTR [esi+60]

; 884  : 	if(pTool == NULL)

  0042f	85 ff		 test	 edi, edi
  00431	0f 84 cc 06 00
	00		 je	 $LN386@SetLineDra

; 885  : 		return;
; 886  : 
; 887  : 	pTool->SetPenColor(penColor);

  00437	8d 45 0c	 lea	 eax, DWORD PTR _crLine$[ebp]
  0043a	8b cf		 mov	 ecx, edi
  0043c	50		 push	 eax
  0043d	e8 00 00 00 00	 call	 ?SetPenColor@CTool@@QAEXABK@Z ; CTool::SetPenColor

; 888  : 	pTool->SetTextColor(textColor);

  00442	8d 45 0c	 lea	 eax, DWORD PTR _crLine$[ebp]
  00445	8b cf		 mov	 ecx, edi
  00447	50		 push	 eax
  00448	e8 00 00 00 00	 call	 ?SetTextColor@CTool@@QAEXABK@Z ; CTool::SetTextColor
  0044d	8b 7e 3c	 mov	 edi, DWORD PTR [esi+60]

; 909  : 	if(pTool == NULL)

  00450	85 ff		 test	 edi, edi
  00452	0f 84 ab 06 00
	00		 je	 $LN386@SetLineDra

; 910  : 		return;
; 911  : 
; 912  : 	pTool->GetElementCommonEnvironment().GetPen().SetStyle((CToolEnumData::PenStyle) nStyle);

  00458	ff 75 10	 push	 DWORD PTR _nStyle$[ebp]
  0045b	8b cf		 mov	 ecx, edi
  0045d	e8 00 00 00 00	 call	 ?GetElementCommonEnvironment@CTool@@QAEAAVCElementCommonEnvironment@@XZ ; CTool::GetElementCommonEnvironment
  00462	8b c8		 mov	 ecx, eax
  00464	e8 00 00 00 00	 call	 ?GetPen@CElementCommonEnvironment@@QAEAAVCPenEnvironment@@XZ ; CElementCommonEnvironment::GetPen
  00469	8b c8		 mov	 ecx, eax
  0046b	e8 00 00 00 00	 call	 ?SetStyle@CPenEnvironment@@QAEXW4PenStyle@CToolEnumData@@@Z ; CPenEnvironment::SetStyle
  00470	8b 4e 3c	 mov	 ecx, DWORD PTR [esi+60]

; 570  : 		SetBasePenStyle(m_pGannLine315Tool,nStyle);
; 571  : 		SetBasePenThickness(m_pGannLine315Tool,nWeight);
; 572  : 	}

  00473	e9 71 06 00 00	 jmp	 $LN391@SetLineDra
$LN28@SetLineDra:

; 573  : 	else if(eToolType == CAnalysis::EN_ANALYSIS_GANN_FAN45)

  00478	83 f8 0f	 cmp	 eax, 15			; 0000000fH
  0047b	75 4c		 jne	 SHORT $LN30@SetLineDra

; 574  : 	{
; 575  : 		SetBaseColor(m_pGannFan45Tool,crLine,crLine);

  0047d	8b 7e 40	 mov	 edi, DWORD PTR [esi+64]

; 884  : 	if(pTool == NULL)

  00480	85 ff		 test	 edi, edi
  00482	0f 84 7b 06 00
	00		 je	 $LN386@SetLineDra

; 885  : 		return;
; 886  : 
; 887  : 	pTool->SetPenColor(penColor);

  00488	8d 45 0c	 lea	 eax, DWORD PTR _crLine$[ebp]
  0048b	8b cf		 mov	 ecx, edi
  0048d	50		 push	 eax
  0048e	e8 00 00 00 00	 call	 ?SetPenColor@CTool@@QAEXABK@Z ; CTool::SetPenColor

; 888  : 	pTool->SetTextColor(textColor);

  00493	8d 45 0c	 lea	 eax, DWORD PTR _crLine$[ebp]
  00496	8b cf		 mov	 ecx, edi
  00498	50		 push	 eax
  00499	e8 00 00 00 00	 call	 ?SetTextColor@CTool@@QAEXABK@Z ; CTool::SetTextColor
  0049e	8b 7e 40	 mov	 edi, DWORD PTR [esi+64]

; 909  : 	if(pTool == NULL)

  004a1	85 ff		 test	 edi, edi
  004a3	0f 84 5a 06 00
	00		 je	 $LN386@SetLineDra

; 910  : 		return;
; 911  : 
; 912  : 	pTool->GetElementCommonEnvironment().GetPen().SetStyle((CToolEnumData::PenStyle) nStyle);

  004a9	ff 75 10	 push	 DWORD PTR _nStyle$[ebp]
  004ac	8b cf		 mov	 ecx, edi
  004ae	e8 00 00 00 00	 call	 ?GetElementCommonEnvironment@CTool@@QAEAAVCElementCommonEnvironment@@XZ ; CTool::GetElementCommonEnvironment
  004b3	8b c8		 mov	 ecx, eax
  004b5	e8 00 00 00 00	 call	 ?GetPen@CElementCommonEnvironment@@QAEAAVCPenEnvironment@@XZ ; CElementCommonEnvironment::GetPen
  004ba	8b c8		 mov	 ecx, eax
  004bc	e8 00 00 00 00	 call	 ?SetStyle@CPenEnvironment@@QAEXW4PenStyle@CToolEnumData@@@Z ; CPenEnvironment::SetStyle
  004c1	8b 4e 40	 mov	 ecx, DWORD PTR [esi+64]

; 576  : 		SetBasePenStyle(m_pGannFan45Tool,nStyle);
; 577  : 		SetBasePenThickness(m_pGannFan45Tool,nWeight);
; 578  : 	}

  004c4	e9 20 06 00 00	 jmp	 $LN391@SetLineDra
$LN30@SetLineDra:

; 579  : 	else if(eToolType == CAnalysis::EN_ANALYSIS_GANN_FAN135)

  004c9	83 f8 10	 cmp	 eax, 16			; 00000010H
  004cc	75 4c		 jne	 SHORT $LN32@SetLineDra

; 580  : 	{
; 581  : 		SetBaseColor(m_pGannFan135Tool,crLine,crLine);

  004ce	8b 7e 44	 mov	 edi, DWORD PTR [esi+68]

; 884  : 	if(pTool == NULL)

  004d1	85 ff		 test	 edi, edi
  004d3	0f 84 2a 06 00
	00		 je	 $LN386@SetLineDra

; 885  : 		return;
; 886  : 
; 887  : 	pTool->SetPenColor(penColor);

  004d9	8d 45 0c	 lea	 eax, DWORD PTR _crLine$[ebp]
  004dc	8b cf		 mov	 ecx, edi
  004de	50		 push	 eax
  004df	e8 00 00 00 00	 call	 ?SetPenColor@CTool@@QAEXABK@Z ; CTool::SetPenColor

; 888  : 	pTool->SetTextColor(textColor);

  004e4	8d 45 0c	 lea	 eax, DWORD PTR _crLine$[ebp]
  004e7	8b cf		 mov	 ecx, edi
  004e9	50		 push	 eax
  004ea	e8 00 00 00 00	 call	 ?SetTextColor@CTool@@QAEXABK@Z ; CTool::SetTextColor
  004ef	8b 7e 44	 mov	 edi, DWORD PTR [esi+68]

; 909  : 	if(pTool == NULL)

  004f2	85 ff		 test	 edi, edi
  004f4	0f 84 09 06 00
	00		 je	 $LN386@SetLineDra

; 910  : 		return;
; 911  : 
; 912  : 	pTool->GetElementCommonEnvironment().GetPen().SetStyle((CToolEnumData::PenStyle) nStyle);

  004fa	ff 75 10	 push	 DWORD PTR _nStyle$[ebp]
  004fd	8b cf		 mov	 ecx, edi
  004ff	e8 00 00 00 00	 call	 ?GetElementCommonEnvironment@CTool@@QAEAAVCElementCommonEnvironment@@XZ ; CTool::GetElementCommonEnvironment
  00504	8b c8		 mov	 ecx, eax
  00506	e8 00 00 00 00	 call	 ?GetPen@CElementCommonEnvironment@@QAEAAVCPenEnvironment@@XZ ; CElementCommonEnvironment::GetPen
  0050b	8b c8		 mov	 ecx, eax
  0050d	e8 00 00 00 00	 call	 ?SetStyle@CPenEnvironment@@QAEXW4PenStyle@CToolEnumData@@@Z ; CPenEnvironment::SetStyle
  00512	8b 4e 44	 mov	 ecx, DWORD PTR [esi+68]

; 582  : 		SetBasePenStyle(m_pGannFan135Tool,nStyle);
; 583  : 		SetBasePenThickness(m_pGannFan135Tool,nWeight);
; 584  : 	}

  00515	e9 cf 05 00 00	 jmp	 $LN391@SetLineDra
$LN32@SetLineDra:

; 585  : 	else if(eToolType == CAnalysis::EN_ANALYSIS_GANN_FAN225)

  0051a	83 f8 11	 cmp	 eax, 17			; 00000011H
  0051d	75 4c		 jne	 SHORT $LN34@SetLineDra

; 586  : 	{
; 587  : 		SetBaseColor(m_pGannFan225Tool,crLine,crLine);

  0051f	8b 7e 48	 mov	 edi, DWORD PTR [esi+72]

; 884  : 	if(pTool == NULL)

  00522	85 ff		 test	 edi, edi
  00524	0f 84 d9 05 00
	00		 je	 $LN386@SetLineDra

; 885  : 		return;
; 886  : 
; 887  : 	pTool->SetPenColor(penColor);

  0052a	8d 45 0c	 lea	 eax, DWORD PTR _crLine$[ebp]
  0052d	8b cf		 mov	 ecx, edi
  0052f	50		 push	 eax
  00530	e8 00 00 00 00	 call	 ?SetPenColor@CTool@@QAEXABK@Z ; CTool::SetPenColor

; 888  : 	pTool->SetTextColor(textColor);

  00535	8d 45 0c	 lea	 eax, DWORD PTR _crLine$[ebp]
  00538	8b cf		 mov	 ecx, edi
  0053a	50		 push	 eax
  0053b	e8 00 00 00 00	 call	 ?SetTextColor@CTool@@QAEXABK@Z ; CTool::SetTextColor
  00540	8b 7e 48	 mov	 edi, DWORD PTR [esi+72]

; 909  : 	if(pTool == NULL)

  00543	85 ff		 test	 edi, edi
  00545	0f 84 b8 05 00
	00		 je	 $LN386@SetLineDra

; 910  : 		return;
; 911  : 
; 912  : 	pTool->GetElementCommonEnvironment().GetPen().SetStyle((CToolEnumData::PenStyle) nStyle);

  0054b	ff 75 10	 push	 DWORD PTR _nStyle$[ebp]
  0054e	8b cf		 mov	 ecx, edi
  00550	e8 00 00 00 00	 call	 ?GetElementCommonEnvironment@CTool@@QAEAAVCElementCommonEnvironment@@XZ ; CTool::GetElementCommonEnvironment
  00555	8b c8		 mov	 ecx, eax
  00557	e8 00 00 00 00	 call	 ?GetPen@CElementCommonEnvironment@@QAEAAVCPenEnvironment@@XZ ; CElementCommonEnvironment::GetPen
  0055c	8b c8		 mov	 ecx, eax
  0055e	e8 00 00 00 00	 call	 ?SetStyle@CPenEnvironment@@QAEXW4PenStyle@CToolEnumData@@@Z ; CPenEnvironment::SetStyle
  00563	8b 4e 48	 mov	 ecx, DWORD PTR [esi+72]

; 588  : 		SetBasePenStyle(m_pGannFan225Tool,nStyle);
; 589  : 		SetBasePenThickness(m_pGannFan225Tool,nWeight);
; 590  : 	}

  00566	e9 7e 05 00 00	 jmp	 $LN391@SetLineDra
$LN34@SetLineDra:

; 591  : 	else if(eToolType == CAnalysis::EN_ANALYSIS_GANN_FAN315)

  0056b	83 f8 12	 cmp	 eax, 18			; 00000012H
  0056e	75 4c		 jne	 SHORT $LN36@SetLineDra

; 592  : 	{
; 593  : 		SetBaseColor(m_pGannFan315Tool,crLine,crLine);

  00570	8b 7e 4c	 mov	 edi, DWORD PTR [esi+76]

; 884  : 	if(pTool == NULL)

  00573	85 ff		 test	 edi, edi
  00575	0f 84 88 05 00
	00		 je	 $LN386@SetLineDra

; 885  : 		return;
; 886  : 
; 887  : 	pTool->SetPenColor(penColor);

  0057b	8d 45 0c	 lea	 eax, DWORD PTR _crLine$[ebp]
  0057e	8b cf		 mov	 ecx, edi
  00580	50		 push	 eax
  00581	e8 00 00 00 00	 call	 ?SetPenColor@CTool@@QAEXABK@Z ; CTool::SetPenColor

; 888  : 	pTool->SetTextColor(textColor);

  00586	8d 45 0c	 lea	 eax, DWORD PTR _crLine$[ebp]
  00589	8b cf		 mov	 ecx, edi
  0058b	50		 push	 eax
  0058c	e8 00 00 00 00	 call	 ?SetTextColor@CTool@@QAEXABK@Z ; CTool::SetTextColor
  00591	8b 7e 4c	 mov	 edi, DWORD PTR [esi+76]

; 909  : 	if(pTool == NULL)

  00594	85 ff		 test	 edi, edi
  00596	0f 84 67 05 00
	00		 je	 $LN386@SetLineDra

; 910  : 		return;
; 911  : 
; 912  : 	pTool->GetElementCommonEnvironment().GetPen().SetStyle((CToolEnumData::PenStyle) nStyle);

  0059c	ff 75 10	 push	 DWORD PTR _nStyle$[ebp]
  0059f	8b cf		 mov	 ecx, edi
  005a1	e8 00 00 00 00	 call	 ?GetElementCommonEnvironment@CTool@@QAEAAVCElementCommonEnvironment@@XZ ; CTool::GetElementCommonEnvironment
  005a6	8b c8		 mov	 ecx, eax
  005a8	e8 00 00 00 00	 call	 ?GetPen@CElementCommonEnvironment@@QAEAAVCPenEnvironment@@XZ ; CElementCommonEnvironment::GetPen
  005ad	8b c8		 mov	 ecx, eax
  005af	e8 00 00 00 00	 call	 ?SetStyle@CPenEnvironment@@QAEXW4PenStyle@CToolEnumData@@@Z ; CPenEnvironment::SetStyle
  005b4	8b 4e 4c	 mov	 ecx, DWORD PTR [esi+76]

; 594  : 		SetBasePenStyle(m_pGannFan315Tool,nStyle);
; 595  : 		SetBasePenThickness(m_pGannFan315Tool,nWeight);
; 596  : 	}

  005b7	e9 2d 05 00 00	 jmp	 $LN391@SetLineDra
$LN36@SetLineDra:

; 597  : 	else if(eToolType == CAnalysis::EN_ANALYSIS_GANN_GRID)

  005bc	83 f8 13	 cmp	 eax, 19			; 00000013H
  005bf	75 4c		 jne	 SHORT $LN38@SetLineDra

; 598  : 	{
; 599  : 		SetBaseColor(m_pGannGridTool,crLine,crLine);

  005c1	8b 7e 50	 mov	 edi, DWORD PTR [esi+80]

; 884  : 	if(pTool == NULL)

  005c4	85 ff		 test	 edi, edi
  005c6	0f 84 37 05 00
	00		 je	 $LN386@SetLineDra

; 885  : 		return;
; 886  : 
; 887  : 	pTool->SetPenColor(penColor);

  005cc	8d 45 0c	 lea	 eax, DWORD PTR _crLine$[ebp]
  005cf	8b cf		 mov	 ecx, edi
  005d1	50		 push	 eax
  005d2	e8 00 00 00 00	 call	 ?SetPenColor@CTool@@QAEXABK@Z ; CTool::SetPenColor

; 888  : 	pTool->SetTextColor(textColor);

  005d7	8d 45 0c	 lea	 eax, DWORD PTR _crLine$[ebp]
  005da	8b cf		 mov	 ecx, edi
  005dc	50		 push	 eax
  005dd	e8 00 00 00 00	 call	 ?SetTextColor@CTool@@QAEXABK@Z ; CTool::SetTextColor
  005e2	8b 7e 50	 mov	 edi, DWORD PTR [esi+80]

; 909  : 	if(pTool == NULL)

  005e5	85 ff		 test	 edi, edi
  005e7	0f 84 16 05 00
	00		 je	 $LN386@SetLineDra

; 910  : 		return;
; 911  : 
; 912  : 	pTool->GetElementCommonEnvironment().GetPen().SetStyle((CToolEnumData::PenStyle) nStyle);

  005ed	ff 75 10	 push	 DWORD PTR _nStyle$[ebp]
  005f0	8b cf		 mov	 ecx, edi
  005f2	e8 00 00 00 00	 call	 ?GetElementCommonEnvironment@CTool@@QAEAAVCElementCommonEnvironment@@XZ ; CTool::GetElementCommonEnvironment
  005f7	8b c8		 mov	 ecx, eax
  005f9	e8 00 00 00 00	 call	 ?GetPen@CElementCommonEnvironment@@QAEAAVCPenEnvironment@@XZ ; CElementCommonEnvironment::GetPen
  005fe	8b c8		 mov	 ecx, eax
  00600	e8 00 00 00 00	 call	 ?SetStyle@CPenEnvironment@@QAEXW4PenStyle@CToolEnumData@@@Z ; CPenEnvironment::SetStyle
  00605	8b 4e 50	 mov	 ecx, DWORD PTR [esi+80]

; 600  : 		SetBasePenStyle(m_pGannGridTool,nStyle);
; 601  : 		SetBasePenThickness(m_pGannGridTool,nWeight);
; 602  : 	}

  00608	e9 dc 04 00 00	 jmp	 $LN391@SetLineDra
$LN38@SetLineDra:

; 603  : 	else if(eToolType == CAnalysis::EN_ANALYSIS_ANDREWS_PITCHFORK)

  0060d	83 f8 14	 cmp	 eax, 20			; 00000014H
  00610	75 4c		 jne	 SHORT $LN40@SetLineDra

; 604  : 	{
; 605  : 		SetBaseColor(m_pAndrewsTool,crLine,crLine);

  00612	8b 7e 54	 mov	 edi, DWORD PTR [esi+84]

; 884  : 	if(pTool == NULL)

  00615	85 ff		 test	 edi, edi
  00617	0f 84 e6 04 00
	00		 je	 $LN386@SetLineDra

; 885  : 		return;
; 886  : 
; 887  : 	pTool->SetPenColor(penColor);

  0061d	8d 45 0c	 lea	 eax, DWORD PTR _crLine$[ebp]
  00620	8b cf		 mov	 ecx, edi
  00622	50		 push	 eax
  00623	e8 00 00 00 00	 call	 ?SetPenColor@CTool@@QAEXABK@Z ; CTool::SetPenColor

; 888  : 	pTool->SetTextColor(textColor);

  00628	8d 45 0c	 lea	 eax, DWORD PTR _crLine$[ebp]
  0062b	8b cf		 mov	 ecx, edi
  0062d	50		 push	 eax
  0062e	e8 00 00 00 00	 call	 ?SetTextColor@CTool@@QAEXABK@Z ; CTool::SetTextColor
  00633	8b 7e 54	 mov	 edi, DWORD PTR [esi+84]

; 909  : 	if(pTool == NULL)

  00636	85 ff		 test	 edi, edi
  00638	0f 84 c5 04 00
	00		 je	 $LN386@SetLineDra

; 910  : 		return;
; 911  : 
; 912  : 	pTool->GetElementCommonEnvironment().GetPen().SetStyle((CToolEnumData::PenStyle) nStyle);

  0063e	ff 75 10	 push	 DWORD PTR _nStyle$[ebp]
  00641	8b cf		 mov	 ecx, edi
  00643	e8 00 00 00 00	 call	 ?GetElementCommonEnvironment@CTool@@QAEAAVCElementCommonEnvironment@@XZ ; CTool::GetElementCommonEnvironment
  00648	8b c8		 mov	 ecx, eax
  0064a	e8 00 00 00 00	 call	 ?GetPen@CElementCommonEnvironment@@QAEAAVCPenEnvironment@@XZ ; CElementCommonEnvironment::GetPen
  0064f	8b c8		 mov	 ecx, eax
  00651	e8 00 00 00 00	 call	 ?SetStyle@CPenEnvironment@@QAEXW4PenStyle@CToolEnumData@@@Z ; CPenEnvironment::SetStyle
  00656	8b 4e 54	 mov	 ecx, DWORD PTR [esi+84]

; 606  : 		SetBasePenStyle(m_pAndrewsTool,nStyle);
; 607  : 		SetBasePenThickness(m_pAndrewsTool,nWeight);
; 608  : 	}

  00659	e9 8b 04 00 00	 jmp	 $LN391@SetLineDra
$LN40@SetLineDra:

; 609  : 	else if(eToolType == CAnalysis::EN_ANALYSIS_ELLIOT_WAVE_LINE)

  0065e	83 f8 15	 cmp	 eax, 21			; 00000015H
  00661	75 55		 jne	 SHORT $LN42@SetLineDra

; 610  : 	{
; 611  : 		SetBaseColor(m_pElliotLineTool,crLine,crLine);

  00663	8b be 84 00 00
	00		 mov	 edi, DWORD PTR [esi+132]

; 884  : 	if(pTool == NULL)

  00669	85 ff		 test	 edi, edi
  0066b	0f 84 92 04 00
	00		 je	 $LN386@SetLineDra

; 885  : 		return;
; 886  : 
; 887  : 	pTool->SetPenColor(penColor);

  00671	8d 45 0c	 lea	 eax, DWORD PTR _crLine$[ebp]
  00674	8b cf		 mov	 ecx, edi
  00676	50		 push	 eax
  00677	e8 00 00 00 00	 call	 ?SetPenColor@CTool@@QAEXABK@Z ; CTool::SetPenColor

; 888  : 	pTool->SetTextColor(textColor);

  0067c	8d 45 0c	 lea	 eax, DWORD PTR _crLine$[ebp]
  0067f	8b cf		 mov	 ecx, edi
  00681	50		 push	 eax
  00682	e8 00 00 00 00	 call	 ?SetTextColor@CTool@@QAEXABK@Z ; CTool::SetTextColor
  00687	8b be 84 00 00
	00		 mov	 edi, DWORD PTR [esi+132]

; 909  : 	if(pTool == NULL)

  0068d	85 ff		 test	 edi, edi
  0068f	0f 84 6e 04 00
	00		 je	 $LN386@SetLineDra

; 910  : 		return;
; 911  : 
; 912  : 	pTool->GetElementCommonEnvironment().GetPen().SetStyle((CToolEnumData::PenStyle) nStyle);

  00695	ff 75 10	 push	 DWORD PTR _nStyle$[ebp]
  00698	8b cf		 mov	 ecx, edi
  0069a	e8 00 00 00 00	 call	 ?GetElementCommonEnvironment@CTool@@QAEAAVCElementCommonEnvironment@@XZ ; CTool::GetElementCommonEnvironment
  0069f	8b c8		 mov	 ecx, eax
  006a1	e8 00 00 00 00	 call	 ?GetPen@CElementCommonEnvironment@@QAEAAVCPenEnvironment@@XZ ; CElementCommonEnvironment::GetPen
  006a6	8b c8		 mov	 ecx, eax
  006a8	e8 00 00 00 00	 call	 ?SetStyle@CPenEnvironment@@QAEXW4PenStyle@CToolEnumData@@@Z ; CPenEnvironment::SetStyle
  006ad	8b 8e 84 00 00
	00		 mov	 ecx, DWORD PTR [esi+132]

; 612  : 		SetBasePenStyle(m_pElliotLineTool,nStyle);
; 613  : 		SetBasePenThickness(m_pElliotLineTool,nWeight);
; 614  : 	}

  006b3	e9 31 04 00 00	 jmp	 $LN391@SetLineDra
$LN42@SetLineDra:

; 615  : 	else if(eToolType == CAnalysis::EN_ANALYSIS_CYCLE_LINES)

  006b8	83 f8 16	 cmp	 eax, 22			; 00000016H
  006bb	75 4c		 jne	 SHORT $LN44@SetLineDra

; 616  : 	{
; 617  : 		SetBaseColor(m_pCycleLinesTool,crLine,crLine);

  006bd	8b 7e 58	 mov	 edi, DWORD PTR [esi+88]

; 884  : 	if(pTool == NULL)

  006c0	85 ff		 test	 edi, edi
  006c2	0f 84 3b 04 00
	00		 je	 $LN386@SetLineDra

; 885  : 		return;
; 886  : 
; 887  : 	pTool->SetPenColor(penColor);

  006c8	8d 45 0c	 lea	 eax, DWORD PTR _crLine$[ebp]
  006cb	8b cf		 mov	 ecx, edi
  006cd	50		 push	 eax
  006ce	e8 00 00 00 00	 call	 ?SetPenColor@CTool@@QAEXABK@Z ; CTool::SetPenColor

; 888  : 	pTool->SetTextColor(textColor);

  006d3	8d 45 0c	 lea	 eax, DWORD PTR _crLine$[ebp]
  006d6	8b cf		 mov	 ecx, edi
  006d8	50		 push	 eax
  006d9	e8 00 00 00 00	 call	 ?SetTextColor@CTool@@QAEXABK@Z ; CTool::SetTextColor
  006de	8b 7e 58	 mov	 edi, DWORD PTR [esi+88]

; 909  : 	if(pTool == NULL)

  006e1	85 ff		 test	 edi, edi
  006e3	0f 84 1a 04 00
	00		 je	 $LN386@SetLineDra

; 910  : 		return;
; 911  : 
; 912  : 	pTool->GetElementCommonEnvironment().GetPen().SetStyle((CToolEnumData::PenStyle) nStyle);

  006e9	ff 75 10	 push	 DWORD PTR _nStyle$[ebp]
  006ec	8b cf		 mov	 ecx, edi
  006ee	e8 00 00 00 00	 call	 ?GetElementCommonEnvironment@CTool@@QAEAAVCElementCommonEnvironment@@XZ ; CTool::GetElementCommonEnvironment
  006f3	8b c8		 mov	 ecx, eax
  006f5	e8 00 00 00 00	 call	 ?GetPen@CElementCommonEnvironment@@QAEAAVCPenEnvironment@@XZ ; CElementCommonEnvironment::GetPen
  006fa	8b c8		 mov	 ecx, eax
  006fc	e8 00 00 00 00	 call	 ?SetStyle@CPenEnvironment@@QAEXW4PenStyle@CToolEnumData@@@Z ; CPenEnvironment::SetStyle
  00701	8b 4e 58	 mov	 ecx, DWORD PTR [esi+88]

; 618  : 		SetBasePenStyle(m_pCycleLinesTool,nStyle);
; 619  : 		SetBasePenThickness(m_pCycleLinesTool,nWeight);
; 620  : 	}

  00704	e9 e0 03 00 00	 jmp	 $LN391@SetLineDra
$LN44@SetLineDra:

; 621  : 	else if(eToolType == CAnalysis::EN_ANALYSIS_CUT_LINE)

  00709	83 f8 17	 cmp	 eax, 23			; 00000017H
  0070c	0f 84 f1 03 00
	00		 je	 $LN386@SetLineDra

; 622  : 	{
; 623  : 	}
; 624  : 	else if(eToolType == CAnalysis::EN_ANALYSIS_SPEED_LINE)

  00712	83 f8 18	 cmp	 eax, 24			; 00000018H
  00715	75 4c		 jne	 SHORT $LN48@SetLineDra

; 625  : 	{
; 626  : 		SetBaseColor(m_pSpeedLineTool,crLine,crLine);

  00717	8b 7e 5c	 mov	 edi, DWORD PTR [esi+92]

; 884  : 	if(pTool == NULL)

  0071a	85 ff		 test	 edi, edi
  0071c	0f 84 e1 03 00
	00		 je	 $LN386@SetLineDra

; 885  : 		return;
; 886  : 
; 887  : 	pTool->SetPenColor(penColor);

  00722	8d 45 0c	 lea	 eax, DWORD PTR _crLine$[ebp]
  00725	8b cf		 mov	 ecx, edi
  00727	50		 push	 eax
  00728	e8 00 00 00 00	 call	 ?SetPenColor@CTool@@QAEXABK@Z ; CTool::SetPenColor

; 888  : 	pTool->SetTextColor(textColor);

  0072d	8d 45 0c	 lea	 eax, DWORD PTR _crLine$[ebp]
  00730	8b cf		 mov	 ecx, edi
  00732	50		 push	 eax
  00733	e8 00 00 00 00	 call	 ?SetTextColor@CTool@@QAEXABK@Z ; CTool::SetTextColor
  00738	8b 7e 5c	 mov	 edi, DWORD PTR [esi+92]

; 909  : 	if(pTool == NULL)

  0073b	85 ff		 test	 edi, edi
  0073d	0f 84 c0 03 00
	00		 je	 $LN386@SetLineDra

; 910  : 		return;
; 911  : 
; 912  : 	pTool->GetElementCommonEnvironment().GetPen().SetStyle((CToolEnumData::PenStyle) nStyle);

  00743	ff 75 10	 push	 DWORD PTR _nStyle$[ebp]
  00746	8b cf		 mov	 ecx, edi
  00748	e8 00 00 00 00	 call	 ?GetElementCommonEnvironment@CTool@@QAEAAVCElementCommonEnvironment@@XZ ; CTool::GetElementCommonEnvironment
  0074d	8b c8		 mov	 ecx, eax
  0074f	e8 00 00 00 00	 call	 ?GetPen@CElementCommonEnvironment@@QAEAAVCPenEnvironment@@XZ ; CElementCommonEnvironment::GetPen
  00754	8b c8		 mov	 ecx, eax
  00756	e8 00 00 00 00	 call	 ?SetStyle@CPenEnvironment@@QAEXW4PenStyle@CToolEnumData@@@Z ; CPenEnvironment::SetStyle
  0075b	8b 4e 5c	 mov	 ecx, DWORD PTR [esi+92]

; 627  : 		SetBasePenStyle(m_pSpeedLineTool,nStyle);
; 628  : 		SetBasePenThickness(m_pSpeedLineTool,nWeight);
; 629  : 	}

  0075e	e9 86 03 00 00	 jmp	 $LN391@SetLineDra
$LN48@SetLineDra:

; 630  : 	else if(eToolType == CAnalysis::EN_ANALYSIS_SPEED_FAN)

  00763	83 f8 19	 cmp	 eax, 25			; 00000019H
  00766	75 4c		 jne	 SHORT $LN50@SetLineDra

; 631  : 	{
; 632  : 		SetBaseColor(m_pSpeedFanTool,crLine,crLine);

  00768	8b 7e 60	 mov	 edi, DWORD PTR [esi+96]

; 884  : 	if(pTool == NULL)

  0076b	85 ff		 test	 edi, edi
  0076d	0f 84 90 03 00
	00		 je	 $LN386@SetLineDra

; 885  : 		return;
; 886  : 
; 887  : 	pTool->SetPenColor(penColor);

  00773	8d 45 0c	 lea	 eax, DWORD PTR _crLine$[ebp]
  00776	8b cf		 mov	 ecx, edi
  00778	50		 push	 eax
  00779	e8 00 00 00 00	 call	 ?SetPenColor@CTool@@QAEXABK@Z ; CTool::SetPenColor

; 888  : 	pTool->SetTextColor(textColor);

  0077e	8d 45 0c	 lea	 eax, DWORD PTR _crLine$[ebp]
  00781	8b cf		 mov	 ecx, edi
  00783	50		 push	 eax
  00784	e8 00 00 00 00	 call	 ?SetTextColor@CTool@@QAEXABK@Z ; CTool::SetTextColor
  00789	8b 7e 60	 mov	 edi, DWORD PTR [esi+96]

; 909  : 	if(pTool == NULL)

  0078c	85 ff		 test	 edi, edi
  0078e	0f 84 6f 03 00
	00		 je	 $LN386@SetLineDra

; 910  : 		return;
; 911  : 
; 912  : 	pTool->GetElementCommonEnvironment().GetPen().SetStyle((CToolEnumData::PenStyle) nStyle);

  00794	ff 75 10	 push	 DWORD PTR _nStyle$[ebp]
  00797	8b cf		 mov	 ecx, edi
  00799	e8 00 00 00 00	 call	 ?GetElementCommonEnvironment@CTool@@QAEAAVCElementCommonEnvironment@@XZ ; CTool::GetElementCommonEnvironment
  0079e	8b c8		 mov	 ecx, eax
  007a0	e8 00 00 00 00	 call	 ?GetPen@CElementCommonEnvironment@@QAEAAVCPenEnvironment@@XZ ; CElementCommonEnvironment::GetPen
  007a5	8b c8		 mov	 ecx, eax
  007a7	e8 00 00 00 00	 call	 ?SetStyle@CPenEnvironment@@QAEXW4PenStyle@CToolEnumData@@@Z ; CPenEnvironment::SetStyle
  007ac	8b 4e 60	 mov	 ecx, DWORD PTR [esi+96]

; 633  : 		SetBasePenStyle(m_pSpeedFanTool,nStyle);
; 634  : 		SetBasePenThickness(m_pSpeedFanTool,nWeight);
; 635  : 	}

  007af	e9 35 03 00 00	 jmp	 $LN391@SetLineDra
$LN50@SetLineDra:

; 636  : 	else if(eToolType == CAnalysis::EN_ANALYSIS_SPEED_ARC)

  007b4	83 f8 1a	 cmp	 eax, 26			; 0000001aH
  007b7	75 4c		 jne	 SHORT $LN52@SetLineDra

; 637  : 	{
; 638  : 		SetBaseColor(m_pSpeedArcTool,crLine,crLine);

  007b9	8b 7e 64	 mov	 edi, DWORD PTR [esi+100]

; 884  : 	if(pTool == NULL)

  007bc	85 ff		 test	 edi, edi
  007be	0f 84 3f 03 00
	00		 je	 $LN386@SetLineDra

; 885  : 		return;
; 886  : 
; 887  : 	pTool->SetPenColor(penColor);

  007c4	8d 45 0c	 lea	 eax, DWORD PTR _crLine$[ebp]
  007c7	8b cf		 mov	 ecx, edi
  007c9	50		 push	 eax
  007ca	e8 00 00 00 00	 call	 ?SetPenColor@CTool@@QAEXABK@Z ; CTool::SetPenColor

; 888  : 	pTool->SetTextColor(textColor);

  007cf	8d 45 0c	 lea	 eax, DWORD PTR _crLine$[ebp]
  007d2	8b cf		 mov	 ecx, edi
  007d4	50		 push	 eax
  007d5	e8 00 00 00 00	 call	 ?SetTextColor@CTool@@QAEXABK@Z ; CTool::SetTextColor
  007da	8b 7e 64	 mov	 edi, DWORD PTR [esi+100]

; 909  : 	if(pTool == NULL)

  007dd	85 ff		 test	 edi, edi
  007df	0f 84 1e 03 00
	00		 je	 $LN386@SetLineDra

; 910  : 		return;
; 911  : 
; 912  : 	pTool->GetElementCommonEnvironment().GetPen().SetStyle((CToolEnumData::PenStyle) nStyle);

  007e5	ff 75 10	 push	 DWORD PTR _nStyle$[ebp]
  007e8	8b cf		 mov	 ecx, edi
  007ea	e8 00 00 00 00	 call	 ?GetElementCommonEnvironment@CTool@@QAEAAVCElementCommonEnvironment@@XZ ; CTool::GetElementCommonEnvironment
  007ef	8b c8		 mov	 ecx, eax
  007f1	e8 00 00 00 00	 call	 ?GetPen@CElementCommonEnvironment@@QAEAAVCPenEnvironment@@XZ ; CElementCommonEnvironment::GetPen
  007f6	8b c8		 mov	 ecx, eax
  007f8	e8 00 00 00 00	 call	 ?SetStyle@CPenEnvironment@@QAEXW4PenStyle@CToolEnumData@@@Z ; CPenEnvironment::SetStyle
  007fd	8b 4e 64	 mov	 ecx, DWORD PTR [esi+100]

; 639  : 		SetBasePenStyle(m_pSpeedArcTool,nStyle);
; 640  : 		SetBasePenThickness(m_pSpeedArcTool,nWeight);
; 641  : 	}

  00800	e9 e4 02 00 00	 jmp	 $LN391@SetLineDra
$LN52@SetLineDra:

; 642  : 	else if(eToolType == CAnalysis::EN_ANALYSIS_LINEAR_REGRESSION)

  00805	83 f8 1b	 cmp	 eax, 27			; 0000001bH
  00808	75 4c		 jne	 SHORT $LN54@SetLineDra

; 643  : 	{
; 644  : 		SetBaseColor(m_pLinearRegressionTool,crLine,crLine);

  0080a	8b 7e 68	 mov	 edi, DWORD PTR [esi+104]

; 884  : 	if(pTool == NULL)

  0080d	85 ff		 test	 edi, edi
  0080f	0f 84 ee 02 00
	00		 je	 $LN386@SetLineDra

; 885  : 		return;
; 886  : 
; 887  : 	pTool->SetPenColor(penColor);

  00815	8d 45 0c	 lea	 eax, DWORD PTR _crLine$[ebp]
  00818	8b cf		 mov	 ecx, edi
  0081a	50		 push	 eax
  0081b	e8 00 00 00 00	 call	 ?SetPenColor@CTool@@QAEXABK@Z ; CTool::SetPenColor

; 888  : 	pTool->SetTextColor(textColor);

  00820	8d 45 0c	 lea	 eax, DWORD PTR _crLine$[ebp]
  00823	8b cf		 mov	 ecx, edi
  00825	50		 push	 eax
  00826	e8 00 00 00 00	 call	 ?SetTextColor@CTool@@QAEXABK@Z ; CTool::SetTextColor
  0082b	8b 7e 68	 mov	 edi, DWORD PTR [esi+104]

; 909  : 	if(pTool == NULL)

  0082e	85 ff		 test	 edi, edi
  00830	0f 84 cd 02 00
	00		 je	 $LN386@SetLineDra

; 910  : 		return;
; 911  : 
; 912  : 	pTool->GetElementCommonEnvironment().GetPen().SetStyle((CToolEnumData::PenStyle) nStyle);

  00836	ff 75 10	 push	 DWORD PTR _nStyle$[ebp]
  00839	8b cf		 mov	 ecx, edi
  0083b	e8 00 00 00 00	 call	 ?GetElementCommonEnvironment@CTool@@QAEAAVCElementCommonEnvironment@@XZ ; CTool::GetElementCommonEnvironment
  00840	8b c8		 mov	 ecx, eax
  00842	e8 00 00 00 00	 call	 ?GetPen@CElementCommonEnvironment@@QAEAAVCPenEnvironment@@XZ ; CElementCommonEnvironment::GetPen
  00847	8b c8		 mov	 ecx, eax
  00849	e8 00 00 00 00	 call	 ?SetStyle@CPenEnvironment@@QAEXW4PenStyle@CToolEnumData@@@Z ; CPenEnvironment::SetStyle
  0084e	8b 4e 68	 mov	 ecx, DWORD PTR [esi+104]

; 645  : 		SetBasePenStyle(m_pLinearRegressionTool,nStyle);
; 646  : 		SetBasePenThickness(m_pLinearRegressionTool,nWeight);
; 647  : 	}

  00851	e9 93 02 00 00	 jmp	 $LN391@SetLineDra
$LN54@SetLineDra:

; 648  : 	else if(eToolType == CAnalysis::EN_ANALYSIS_RAFF_REGRESSION)

  00856	83 f8 1c	 cmp	 eax, 28			; 0000001cH
  00859	75 4c		 jne	 SHORT $LN56@SetLineDra

; 649  : 	{
; 650  : 		SetBaseColor(m_pRaffRegressionTool,crLine,crLine);

  0085b	8b 7e 6c	 mov	 edi, DWORD PTR [esi+108]

; 884  : 	if(pTool == NULL)

  0085e	85 ff		 test	 edi, edi
  00860	0f 84 9d 02 00
	00		 je	 $LN386@SetLineDra

; 885  : 		return;
; 886  : 
; 887  : 	pTool->SetPenColor(penColor);

  00866	8d 45 0c	 lea	 eax, DWORD PTR _crLine$[ebp]
  00869	8b cf		 mov	 ecx, edi
  0086b	50		 push	 eax
  0086c	e8 00 00 00 00	 call	 ?SetPenColor@CTool@@QAEXABK@Z ; CTool::SetPenColor

; 888  : 	pTool->SetTextColor(textColor);

  00871	8d 45 0c	 lea	 eax, DWORD PTR _crLine$[ebp]
  00874	8b cf		 mov	 ecx, edi
  00876	50		 push	 eax
  00877	e8 00 00 00 00	 call	 ?SetTextColor@CTool@@QAEXABK@Z ; CTool::SetTextColor
  0087c	8b 7e 6c	 mov	 edi, DWORD PTR [esi+108]

; 909  : 	if(pTool == NULL)

  0087f	85 ff		 test	 edi, edi
  00881	0f 84 7c 02 00
	00		 je	 $LN386@SetLineDra

; 910  : 		return;
; 911  : 
; 912  : 	pTool->GetElementCommonEnvironment().GetPen().SetStyle((CToolEnumData::PenStyle) nStyle);

  00887	ff 75 10	 push	 DWORD PTR _nStyle$[ebp]
  0088a	8b cf		 mov	 ecx, edi
  0088c	e8 00 00 00 00	 call	 ?GetElementCommonEnvironment@CTool@@QAEAAVCElementCommonEnvironment@@XZ ; CTool::GetElementCommonEnvironment
  00891	8b c8		 mov	 ecx, eax
  00893	e8 00 00 00 00	 call	 ?GetPen@CElementCommonEnvironment@@QAEAAVCPenEnvironment@@XZ ; CElementCommonEnvironment::GetPen
  00898	8b c8		 mov	 ecx, eax
  0089a	e8 00 00 00 00	 call	 ?SetStyle@CPenEnvironment@@QAEXW4PenStyle@CToolEnumData@@@Z ; CPenEnvironment::SetStyle
  0089f	8b 4e 6c	 mov	 ecx, DWORD PTR [esi+108]

; 651  : 		SetBasePenStyle(m_pRaffRegressionTool,nStyle);
; 652  : 		SetBasePenThickness(m_pRaffRegressionTool,nWeight);
; 653  : 	}

  008a2	e9 42 02 00 00	 jmp	 $LN391@SetLineDra
$LN56@SetLineDra:

; 654  : 	else if(eToolType == CAnalysis::EN_ANALYSIS_ANGLE_LINE)

  008a7	83 f8 1d	 cmp	 eax, 29			; 0000001dH
  008aa	75 4c		 jne	 SHORT $LN58@SetLineDra

; 655  : 	{
; 656  : 		SetBaseColor(m_pAngleLineTool,crLine,crLine);

  008ac	8b 7e 70	 mov	 edi, DWORD PTR [esi+112]

; 884  : 	if(pTool == NULL)

  008af	85 ff		 test	 edi, edi
  008b1	0f 84 4c 02 00
	00		 je	 $LN386@SetLineDra

; 885  : 		return;
; 886  : 
; 887  : 	pTool->SetPenColor(penColor);

  008b7	8d 45 0c	 lea	 eax, DWORD PTR _crLine$[ebp]
  008ba	8b cf		 mov	 ecx, edi
  008bc	50		 push	 eax
  008bd	e8 00 00 00 00	 call	 ?SetPenColor@CTool@@QAEXABK@Z ; CTool::SetPenColor

; 888  : 	pTool->SetTextColor(textColor);

  008c2	8d 45 0c	 lea	 eax, DWORD PTR _crLine$[ebp]
  008c5	8b cf		 mov	 ecx, edi
  008c7	50		 push	 eax
  008c8	e8 00 00 00 00	 call	 ?SetTextColor@CTool@@QAEXABK@Z ; CTool::SetTextColor
  008cd	8b 7e 70	 mov	 edi, DWORD PTR [esi+112]

; 909  : 	if(pTool == NULL)

  008d0	85 ff		 test	 edi, edi
  008d2	0f 84 2b 02 00
	00		 je	 $LN386@SetLineDra

; 910  : 		return;
; 911  : 
; 912  : 	pTool->GetElementCommonEnvironment().GetPen().SetStyle((CToolEnumData::PenStyle) nStyle);

  008d8	ff 75 10	 push	 DWORD PTR _nStyle$[ebp]
  008db	8b cf		 mov	 ecx, edi
  008dd	e8 00 00 00 00	 call	 ?GetElementCommonEnvironment@CTool@@QAEAAVCElementCommonEnvironment@@XZ ; CTool::GetElementCommonEnvironment
  008e2	8b c8		 mov	 ecx, eax
  008e4	e8 00 00 00 00	 call	 ?GetPen@CElementCommonEnvironment@@QAEAAVCPenEnvironment@@XZ ; CElementCommonEnvironment::GetPen
  008e9	8b c8		 mov	 ecx, eax
  008eb	e8 00 00 00 00	 call	 ?SetStyle@CPenEnvironment@@QAEXW4PenStyle@CToolEnumData@@@Z ; CPenEnvironment::SetStyle
  008f0	8b 4e 70	 mov	 ecx, DWORD PTR [esi+112]

; 657  : 		SetBasePenStyle(m_pAngleLineTool,nStyle);
; 658  : 		SetBasePenThickness(m_pAngleLineTool,nWeight);
; 659  : 	}

  008f3	e9 f1 01 00 00	 jmp	 $LN391@SetLineDra
$LN58@SetLineDra:

; 660  : 	else if(eToolType == CAnalysis::EN_ANALYSIS_CANDLE_LINE)

  008f8	83 f8 1e	 cmp	 eax, 30			; 0000001eH
  008fb	75 4c		 jne	 SHORT $LN60@SetLineDra

; 661  : 	{
; 662  : 		SetBaseColor(m_pCandleLineTool,crLine,crLine);

  008fd	8b 7e 74	 mov	 edi, DWORD PTR [esi+116]

; 884  : 	if(pTool == NULL)

  00900	85 ff		 test	 edi, edi
  00902	0f 84 fb 01 00
	00		 je	 $LN386@SetLineDra

; 885  : 		return;
; 886  : 
; 887  : 	pTool->SetPenColor(penColor);

  00908	8d 45 0c	 lea	 eax, DWORD PTR _crLine$[ebp]
  0090b	8b cf		 mov	 ecx, edi
  0090d	50		 push	 eax
  0090e	e8 00 00 00 00	 call	 ?SetPenColor@CTool@@QAEXABK@Z ; CTool::SetPenColor

; 888  : 	pTool->SetTextColor(textColor);

  00913	8d 45 0c	 lea	 eax, DWORD PTR _crLine$[ebp]
  00916	8b cf		 mov	 ecx, edi
  00918	50		 push	 eax
  00919	e8 00 00 00 00	 call	 ?SetTextColor@CTool@@QAEXABK@Z ; CTool::SetTextColor
  0091e	8b 7e 74	 mov	 edi, DWORD PTR [esi+116]

; 909  : 	if(pTool == NULL)

  00921	85 ff		 test	 edi, edi
  00923	0f 84 da 01 00
	00		 je	 $LN386@SetLineDra

; 910  : 		return;
; 911  : 
; 912  : 	pTool->GetElementCommonEnvironment().GetPen().SetStyle((CToolEnumData::PenStyle) nStyle);

  00929	ff 75 10	 push	 DWORD PTR _nStyle$[ebp]
  0092c	8b cf		 mov	 ecx, edi
  0092e	e8 00 00 00 00	 call	 ?GetElementCommonEnvironment@CTool@@QAEAAVCElementCommonEnvironment@@XZ ; CTool::GetElementCommonEnvironment
  00933	8b c8		 mov	 ecx, eax
  00935	e8 00 00 00 00	 call	 ?GetPen@CElementCommonEnvironment@@QAEAAVCPenEnvironment@@XZ ; CElementCommonEnvironment::GetPen
  0093a	8b c8		 mov	 ecx, eax
  0093c	e8 00 00 00 00	 call	 ?SetStyle@CPenEnvironment@@QAEXW4PenStyle@CToolEnumData@@@Z ; CPenEnvironment::SetStyle
  00941	8b 4e 74	 mov	 ecx, DWORD PTR [esi+116]

; 663  : 		SetBasePenStyle(m_pCandleLineTool,nStyle);
; 664  : 		SetBasePenThickness(m_pCandleLineTool,nWeight);
; 665  : 	}

  00944	e9 a0 01 00 00	 jmp	 $LN391@SetLineDra
$LN60@SetLineDra:

; 666  : 	else if(eToolType == CAnalysis::EN_ANALYSIS_CANDLE_BONG)

  00949	83 f8 1f	 cmp	 eax, 31			; 0000001fH
  0094c	75 4c		 jne	 SHORT $LN62@SetLineDra

; 667  : 	{
; 668  : 		SetBaseColor(m_pCandleBongTool,crLine,crLine);

  0094e	8b 7e 78	 mov	 edi, DWORD PTR [esi+120]

; 884  : 	if(pTool == NULL)

  00951	85 ff		 test	 edi, edi
  00953	0f 84 aa 01 00
	00		 je	 $LN386@SetLineDra

; 885  : 		return;
; 886  : 
; 887  : 	pTool->SetPenColor(penColor);

  00959	8d 45 0c	 lea	 eax, DWORD PTR _crLine$[ebp]
  0095c	8b cf		 mov	 ecx, edi
  0095e	50		 push	 eax
  0095f	e8 00 00 00 00	 call	 ?SetPenColor@CTool@@QAEXABK@Z ; CTool::SetPenColor

; 888  : 	pTool->SetTextColor(textColor);

  00964	8d 45 0c	 lea	 eax, DWORD PTR _crLine$[ebp]
  00967	8b cf		 mov	 ecx, edi
  00969	50		 push	 eax
  0096a	e8 00 00 00 00	 call	 ?SetTextColor@CTool@@QAEXABK@Z ; CTool::SetTextColor
  0096f	8b 7e 78	 mov	 edi, DWORD PTR [esi+120]

; 909  : 	if(pTool == NULL)

  00972	85 ff		 test	 edi, edi
  00974	0f 84 89 01 00
	00		 je	 $LN386@SetLineDra

; 910  : 		return;
; 911  : 
; 912  : 	pTool->GetElementCommonEnvironment().GetPen().SetStyle((CToolEnumData::PenStyle) nStyle);

  0097a	ff 75 10	 push	 DWORD PTR _nStyle$[ebp]
  0097d	8b cf		 mov	 ecx, edi
  0097f	e8 00 00 00 00	 call	 ?GetElementCommonEnvironment@CTool@@QAEAAVCElementCommonEnvironment@@XZ ; CTool::GetElementCommonEnvironment
  00984	8b c8		 mov	 ecx, eax
  00986	e8 00 00 00 00	 call	 ?GetPen@CElementCommonEnvironment@@QAEAAVCPenEnvironment@@XZ ; CElementCommonEnvironment::GetPen
  0098b	8b c8		 mov	 ecx, eax
  0098d	e8 00 00 00 00	 call	 ?SetStyle@CPenEnvironment@@QAEXW4PenStyle@CToolEnumData@@@Z ; CPenEnvironment::SetStyle
  00992	8b 4e 78	 mov	 ecx, DWORD PTR [esi+120]

; 669  : 		SetBasePenStyle(m_pCandleBongTool,nStyle);
; 670  : 		SetBasePenThickness(m_pCandleBongTool,nWeight);
; 671  : 	}

  00995	e9 4f 01 00 00	 jmp	 $LN391@SetLineDra
$LN62@SetLineDra:

; 672  : 	else if(eToolType == CAnalysis::EN_ANALYSIS_PENCIL_LINE)

  0099a	83 f8 23	 cmp	 eax, 35			; 00000023H
  0099d	75 4c		 jne	 SHORT $LN64@SetLineDra

; 673  : 	{
; 674  : 		SetBaseColor(m_pPencilLineTool,crLine,crLine);

  0099f	8b 7e 7c	 mov	 edi, DWORD PTR [esi+124]

; 884  : 	if(pTool == NULL)

  009a2	85 ff		 test	 edi, edi
  009a4	0f 84 59 01 00
	00		 je	 $LN386@SetLineDra

; 885  : 		return;
; 886  : 
; 887  : 	pTool->SetPenColor(penColor);

  009aa	8d 45 0c	 lea	 eax, DWORD PTR _crLine$[ebp]
  009ad	8b cf		 mov	 ecx, edi
  009af	50		 push	 eax
  009b0	e8 00 00 00 00	 call	 ?SetPenColor@CTool@@QAEXABK@Z ; CTool::SetPenColor

; 888  : 	pTool->SetTextColor(textColor);

  009b5	8d 45 0c	 lea	 eax, DWORD PTR _crLine$[ebp]
  009b8	8b cf		 mov	 ecx, edi
  009ba	50		 push	 eax
  009bb	e8 00 00 00 00	 call	 ?SetTextColor@CTool@@QAEXABK@Z ; CTool::SetTextColor
  009c0	8b 7e 7c	 mov	 edi, DWORD PTR [esi+124]

; 909  : 	if(pTool == NULL)

  009c3	85 ff		 test	 edi, edi
  009c5	0f 84 38 01 00
	00		 je	 $LN386@SetLineDra

; 910  : 		return;
; 911  : 
; 912  : 	pTool->GetElementCommonEnvironment().GetPen().SetStyle((CToolEnumData::PenStyle) nStyle);

  009cb	ff 75 10	 push	 DWORD PTR _nStyle$[ebp]
  009ce	8b cf		 mov	 ecx, edi
  009d0	e8 00 00 00 00	 call	 ?GetElementCommonEnvironment@CTool@@QAEAAVCElementCommonEnvironment@@XZ ; CTool::GetElementCommonEnvironment
  009d5	8b c8		 mov	 ecx, eax
  009d7	e8 00 00 00 00	 call	 ?GetPen@CElementCommonEnvironment@@QAEAAVCPenEnvironment@@XZ ; CElementCommonEnvironment::GetPen
  009dc	8b c8		 mov	 ecx, eax
  009de	e8 00 00 00 00	 call	 ?SetStyle@CPenEnvironment@@QAEXW4PenStyle@CToolEnumData@@@Z ; CPenEnvironment::SetStyle
  009e3	8b 4e 7c	 mov	 ecx, DWORD PTR [esi+124]

; 675  : 		SetBasePenStyle(m_pPencilLineTool,nStyle);
; 676  : 		SetBasePenThickness(m_pPencilLineTool,nWeight);
; 677  : 	}

  009e6	e9 fe 00 00 00	 jmp	 $LN391@SetLineDra
$LN64@SetLineDra:

; 678  : 	else if(eToolType == CAnalysis::EN_ANALYSIS_PERIOD_SUMMARY)

  009eb	83 f8 21	 cmp	 eax, 33			; 00000021H
  009ee	75 55		 jne	 SHORT $LN66@SetLineDra

; 679  : 	{
; 680  : 		SetBaseColor(m_pPeriodLineTool,crLine,crLine);

  009f0	8b be 80 00 00
	00		 mov	 edi, DWORD PTR [esi+128]

; 884  : 	if(pTool == NULL)

  009f6	85 ff		 test	 edi, edi
  009f8	0f 84 05 01 00
	00		 je	 $LN386@SetLineDra

; 885  : 		return;
; 886  : 
; 887  : 	pTool->SetPenColor(penColor);

  009fe	8d 45 0c	 lea	 eax, DWORD PTR _crLine$[ebp]
  00a01	8b cf		 mov	 ecx, edi
  00a03	50		 push	 eax
  00a04	e8 00 00 00 00	 call	 ?SetPenColor@CTool@@QAEXABK@Z ; CTool::SetPenColor

; 888  : 	pTool->SetTextColor(textColor);

  00a09	8d 45 0c	 lea	 eax, DWORD PTR _crLine$[ebp]
  00a0c	8b cf		 mov	 ecx, edi
  00a0e	50		 push	 eax
  00a0f	e8 00 00 00 00	 call	 ?SetTextColor@CTool@@QAEXABK@Z ; CTool::SetTextColor
  00a14	8b be 80 00 00
	00		 mov	 edi, DWORD PTR [esi+128]

; 909  : 	if(pTool == NULL)

  00a1a	85 ff		 test	 edi, edi
  00a1c	0f 84 e1 00 00
	00		 je	 $LN386@SetLineDra

; 910  : 		return;
; 911  : 
; 912  : 	pTool->GetElementCommonEnvironment().GetPen().SetStyle((CToolEnumData::PenStyle) nStyle);

  00a22	ff 75 10	 push	 DWORD PTR _nStyle$[ebp]
  00a25	8b cf		 mov	 ecx, edi
  00a27	e8 00 00 00 00	 call	 ?GetElementCommonEnvironment@CTool@@QAEAAVCElementCommonEnvironment@@XZ ; CTool::GetElementCommonEnvironment
  00a2c	8b c8		 mov	 ecx, eax
  00a2e	e8 00 00 00 00	 call	 ?GetPen@CElementCommonEnvironment@@QAEAAVCPenEnvironment@@XZ ; CElementCommonEnvironment::GetPen
  00a33	8b c8		 mov	 ecx, eax
  00a35	e8 00 00 00 00	 call	 ?SetStyle@CPenEnvironment@@QAEXW4PenStyle@CToolEnumData@@@Z ; CPenEnvironment::SetStyle
  00a3a	8b 8e 80 00 00
	00		 mov	 ecx, DWORD PTR [esi+128]

; 681  : 		SetBasePenStyle(m_pPeriodLineTool,nStyle);
; 682  : 		SetBasePenThickness(m_pPeriodLineTool,nWeight);
; 683  : 	}

  00a40	e9 a4 00 00 00	 jmp	 $LN391@SetLineDra
$LN66@SetLineDra:

; 684  : 	else if(eToolType == CAnalysis::EN_ANALYSIS_ELLIOT_WAVE_LINE)
; 685  : 	{
; 686  : 		SetBaseColor(m_pElliotLineTool,crLine,crLine);
; 687  : 		SetBasePenStyle(m_pElliotLineTool,nStyle);
; 688  : 		SetBasePenThickness(m_pElliotLineTool,nWeight);
; 689  : 	}
; 690  : 	else if(eToolType == CAnalysis::EN_ANALYSIS_ADJUST_RATIO)

  00a45	83 f8 20	 cmp	 eax, 32			; 00000020H
  00a48	75 52		 jne	 SHORT $LN70@SetLineDra

; 691  : 	{
; 692  : 		SetBaseColor(m_pAdjustRatioTool,crLine,crLine);

  00a4a	8b be 88 00 00
	00		 mov	 edi, DWORD PTR [esi+136]

; 884  : 	if(pTool == NULL)

  00a50	85 ff		 test	 edi, edi
  00a52	0f 84 ab 00 00
	00		 je	 $LN386@SetLineDra

; 885  : 		return;
; 886  : 
; 887  : 	pTool->SetPenColor(penColor);

  00a58	8d 45 0c	 lea	 eax, DWORD PTR _crLine$[ebp]
  00a5b	8b cf		 mov	 ecx, edi
  00a5d	50		 push	 eax
  00a5e	e8 00 00 00 00	 call	 ?SetPenColor@CTool@@QAEXABK@Z ; CTool::SetPenColor

; 888  : 	pTool->SetTextColor(textColor);

  00a63	8d 45 0c	 lea	 eax, DWORD PTR _crLine$[ebp]
  00a66	8b cf		 mov	 ecx, edi
  00a68	50		 push	 eax
  00a69	e8 00 00 00 00	 call	 ?SetTextColor@CTool@@QAEXABK@Z ; CTool::SetTextColor
  00a6e	8b be 88 00 00
	00		 mov	 edi, DWORD PTR [esi+136]

; 909  : 	if(pTool == NULL)

  00a74	85 ff		 test	 edi, edi
  00a76	0f 84 87 00 00
	00		 je	 $LN386@SetLineDra

; 910  : 		return;
; 911  : 
; 912  : 	pTool->GetElementCommonEnvironment().GetPen().SetStyle((CToolEnumData::PenStyle) nStyle);

  00a7c	ff 75 10	 push	 DWORD PTR _nStyle$[ebp]
  00a7f	8b cf		 mov	 ecx, edi
  00a81	e8 00 00 00 00	 call	 ?GetElementCommonEnvironment@CTool@@QAEAAVCElementCommonEnvironment@@XZ ; CTool::GetElementCommonEnvironment
  00a86	8b c8		 mov	 ecx, eax
  00a88	e8 00 00 00 00	 call	 ?GetPen@CElementCommonEnvironment@@QAEAAVCPenEnvironment@@XZ ; CElementCommonEnvironment::GetPen
  00a8d	8b c8		 mov	 ecx, eax
  00a8f	e8 00 00 00 00	 call	 ?SetStyle@CPenEnvironment@@QAEXW4PenStyle@CToolEnumData@@@Z ; CPenEnvironment::SetStyle
  00a94	8b 8e 88 00 00
	00		 mov	 ecx, DWORD PTR [esi+136]

; 693  : 		SetBasePenStyle(m_pAdjustRatioTool,nStyle);
; 694  : 		SetBasePenThickness(m_pAdjustRatioTool,nWeight);
; 695  : 	}

  00a9a	eb 4d		 jmp	 SHORT $LN391@SetLineDra
$LN70@SetLineDra:

; 696  : 	// 2014.09.24  : 0010862: [7111]    []  IBK    >>
; 697  : 	else if(eToolType == CAnalysis::EN_ANALYSIS_BALANCE_BASIC)

  00a9c	83 f8 24	 cmp	 eax, 36			; 00000024H
  00a9f	75 62		 jne	 SHORT $LN386@SetLineDra

; 698  : 	{
; 699  : 		SetBaseColor(m_pBalanceBasicTool,crLine,crLine);

  00aa1	8b be 8c 00 00
	00		 mov	 edi, DWORD PTR [esi+140]

; 884  : 	if(pTool == NULL)

  00aa7	85 ff		 test	 edi, edi
  00aa9	74 58		 je	 SHORT $LN386@SetLineDra

; 885  : 		return;
; 886  : 
; 887  : 	pTool->SetPenColor(penColor);

  00aab	8d 45 0c	 lea	 eax, DWORD PTR _crLine$[ebp]
  00aae	8b cf		 mov	 ecx, edi
  00ab0	50		 push	 eax
  00ab1	e8 00 00 00 00	 call	 ?SetPenColor@CTool@@QAEXABK@Z ; CTool::SetPenColor

; 888  : 	pTool->SetTextColor(textColor);

  00ab6	8d 45 0c	 lea	 eax, DWORD PTR _crLine$[ebp]
  00ab9	8b cf		 mov	 ecx, edi
  00abb	50		 push	 eax
  00abc	e8 00 00 00 00	 call	 ?SetTextColor@CTool@@QAEXABK@Z ; CTool::SetTextColor
  00ac1	8b be 8c 00 00
	00		 mov	 edi, DWORD PTR [esi+140]

; 909  : 	if(pTool == NULL)

  00ac7	85 ff		 test	 edi, edi
  00ac9	74 38		 je	 SHORT $LN386@SetLineDra

; 910  : 		return;
; 911  : 
; 912  : 	pTool->GetElementCommonEnvironment().GetPen().SetStyle((CToolEnumData::PenStyle) nStyle);

  00acb	ff 75 10	 push	 DWORD PTR _nStyle$[ebp]
  00ace	8b cf		 mov	 ecx, edi
  00ad0	e8 00 00 00 00	 call	 ?GetElementCommonEnvironment@CTool@@QAEAAVCElementCommonEnvironment@@XZ ; CTool::GetElementCommonEnvironment
  00ad5	8b c8		 mov	 ecx, eax
  00ad7	e8 00 00 00 00	 call	 ?GetPen@CElementCommonEnvironment@@QAEAAVCPenEnvironment@@XZ ; CElementCommonEnvironment::GetPen
  00adc	8b c8		 mov	 ecx, eax
  00ade	e8 00 00 00 00	 call	 ?SetStyle@CPenEnvironment@@QAEXW4PenStyle@CToolEnumData@@@Z ; CPenEnvironment::SetStyle
  00ae3	8b 8e 8c 00 00
	00		 mov	 ecx, DWORD PTR [esi+140]
$LN391@SetLineDra:

; 700  : 		SetBasePenStyle(m_pBalanceBasicTool,nStyle);
; 701  : 		SetBasePenThickness(m_pBalanceBasicTool,nWeight);
; 702  : 	}
; 703  : 	// 2014.09.24  : 0010862: [7111]    []  IBK    <<
; 704  : }

  00ae9	85 c9		 test	 ecx, ecx
  00aeb	74 16		 je	 SHORT $LN386@SetLineDra
  00aed	ff 75 14	 push	 DWORD PTR _nWeight$[ebp]
  00af0	e8 00 00 00 00	 call	 ?GetElementCommonEnvironment@CTool@@QAEAAVCElementCommonEnvironment@@XZ ; CTool::GetElementCommonEnvironment
  00af5	8b c8		 mov	 ecx, eax
  00af7	e8 00 00 00 00	 call	 ?GetPen@CElementCommonEnvironment@@QAEAAVCPenEnvironment@@XZ ; CElementCommonEnvironment::GetPen
  00afc	8b c8		 mov	 ecx, eax
  00afe	e8 00 00 00 00	 call	 ?SetWidth@CPenEnvironment@@QAEXH@Z ; CPenEnvironment::SetWidth
$LN386@SetLineDra:
  00b03	5f		 pop	 edi
  00b04	5e		 pop	 esi
  00b05	5d		 pop	 ebp
  00b06	c2 10 00	 ret	 16			; 00000010H
?SetLineDrawingInfo@CToolSingleton@@QAEXW4TOOLTYPE@CAnalysis@@KHH@Z ENDP ; CToolSingleton::SetLineDrawingInfo
_TEXT	ENDS
; Function compile flags: /Ogtp
; File D:\git\src\IBK\IBK_DRFN\ProjSrc\SrcChartEx\ChartAddIn\ChartAnalysisToolAddIn\AnalysisTool\ToolSingleton.cpp
;	COMDAT ?SetPriceRangeDivEnvironment@CToolSingleton@@QAEXW4TOOLTYPE@CAnalysis@@ABH@Z
_TEXT	SEGMENT
_eToolType$ = 8						; size = 4
_nPriceRangeDiv$ = 12					; size = 4
?SetPriceRangeDivEnvironment@CToolSingleton@@QAEXW4TOOLTYPE@CAnalysis@@ABH@Z PROC ; CToolSingleton::SetPriceRangeDivEnvironment, COMDAT
; _this$ = ecx

; 824  : {

  00000	55		 push	 ebp
  00001	8b ec		 mov	 ebp, esp

; 825  : 	if(eToolType == CAnalysis::EN_ANALYSIS_TRISECT)

  00003	8b 45 08	 mov	 eax, DWORD PTR _eToolType$[ebp]
  00006	83 f8 06	 cmp	 eax, 6
  00009	75 05		 jne	 SHORT $LN2@SetPriceRa

; 826  : 		SetPriceRangeDivEnv(m_pTrisectionLineTool,nPriceRangeDiv);

  0000b	8b 49 1c	 mov	 ecx, DWORD PTR [ecx+28]
  0000e	eb 08		 jmp	 SHORT $LN13@SetPriceRa
$LN2@SetPriceRa:

; 827  : 	else if(eToolType == CAnalysis::EN_ANALYSIS_QUARTER)

  00010	83 f8 07	 cmp	 eax, 7
  00013	75 18		 jne	 SHORT $LN9@SetPriceRa

; 828  : 		SetPriceRangeDivEnv(m_pQuadrisectLineTool,nPriceRangeDiv);

  00015	8b 49 20	 mov	 ecx, DWORD PTR [ecx+32]
$LN13@SetPriceRa:

; 829  : }

  00018	85 c9		 test	 ecx, ecx
  0001a	74 11		 je	 SHORT $LN9@SetPriceRa
  0001c	8b 45 0c	 mov	 eax, DWORD PTR _nPriceRangeDiv$[ebp]
  0001f	ff 30		 push	 DWORD PTR [eax]
  00021	e8 00 00 00 00	 call	 ?GetElementCommonEnvironment@CTool@@QAEAAVCElementCommonEnvironment@@XZ ; CTool::GetElementCommonEnvironment
  00026	8b c8		 mov	 ecx, eax
  00028	e8 00 00 00 00	 call	 ?SetPriceRangeDiv@CElementCommonEnvironment@@QAEXH@Z ; CElementCommonEnvironment::SetPriceRangeDiv
$LN9@SetPriceRa:
  0002d	5d		 pop	 ebp
  0002e	c2 08 00	 ret	 8
?SetPriceRangeDivEnvironment@CToolSingleton@@QAEXW4TOOLTYPE@CAnalysis@@ABH@Z ENDP ; CToolSingleton::SetPriceRangeDivEnvironment
_TEXT	ENDS
; Function compile flags: /Ogtp
; File D:\git\src\IBK\IBK_DRFN\ProjSrc\SrcChartEx\ChartAddIn\ChartAnalysisToolAddIn\AnalysisTool\ToolSingleton.cpp
;	COMDAT ?SetEquiDivEnvironment@CToolSingleton@@QAEXW4TOOLTYPE@CAnalysis@@ABH@Z
_TEXT	SEGMENT
_eToolType$ = 8						; size = 4
_nEquiDiv$ = 12						; size = 4
?SetEquiDivEnvironment@CToolSingleton@@QAEXW4TOOLTYPE@CAnalysis@@ABH@Z PROC ; CToolSingleton::SetEquiDivEnvironment, COMDAT
; _this$ = ecx

; 815  : {

  00000	55		 push	 ebp
  00001	8b ec		 mov	 ebp, esp

; 816  : 	if(eToolType == CAnalysis::EN_ANALYSIS_TRISECT)

  00003	8b 45 08	 mov	 eax, DWORD PTR _eToolType$[ebp]
  00006	83 f8 06	 cmp	 eax, 6
  00009	75 05		 jne	 SHORT $LN2@SetEquiDiv

; 817  : 		SetEquiDivEnv(m_pTrisectionLineTool,nEquiDiv);

  0000b	8b 49 1c	 mov	 ecx, DWORD PTR [ecx+28]
  0000e	eb 08		 jmp	 SHORT $LN13@SetEquiDiv
$LN2@SetEquiDiv:

; 818  : 	else if(eToolType == CAnalysis::EN_ANALYSIS_QUARTER)

  00010	83 f8 07	 cmp	 eax, 7
  00013	75 18		 jne	 SHORT $LN9@SetEquiDiv

; 819  : 		SetEquiDivEnv(m_pQuadrisectLineTool,nEquiDiv);

  00015	8b 49 20	 mov	 ecx, DWORD PTR [ecx+32]
$LN13@SetEquiDiv:

; 820  : }

  00018	85 c9		 test	 ecx, ecx
  0001a	74 11		 je	 SHORT $LN9@SetEquiDiv
  0001c	8b 45 0c	 mov	 eax, DWORD PTR _nEquiDiv$[ebp]
  0001f	ff 30		 push	 DWORD PTR [eax]
  00021	e8 00 00 00 00	 call	 ?GetElementCommonEnvironment@CTool@@QAEAAVCElementCommonEnvironment@@XZ ; CTool::GetElementCommonEnvironment
  00026	8b c8		 mov	 ecx, eax
  00028	e8 00 00 00 00	 call	 ?SetEquiDiv@CElementCommonEnvironment@@QAEXH@Z ; CElementCommonEnvironment::SetEquiDiv
$LN9@SetEquiDiv:
  0002d	5d		 pop	 ebp
  0002e	c2 08 00	 ret	 8
?SetEquiDivEnvironment@CToolSingleton@@QAEXW4TOOLTYPE@CAnalysis@@ABH@Z ENDP ; CToolSingleton::SetEquiDivEnvironment
_TEXT	ENDS
; Function compile flags: /Ogtp
; File D:\git\src\IBK\IBK_DRFN\ProjSrc\SrcChartEx\ChartAddIn\ChartAnalysisToolAddIn\AnalysisTool\ToolSingleton.cpp
;	COMDAT ?SetLineExtEnvironment@CToolSingleton@@QAEXABH0@Z
_TEXT	SEGMENT
_nLeftExt$ = 8						; size = 4
_nRightExt$ = 12					; size = 4
?SetLineExtEnvironment@CToolSingleton@@QAEXABH0@Z PROC	; CToolSingleton::SetLineExtEnvironment, COMDAT
; _this$ = ecx

; 446  : {

  00000	55		 push	 ebp
  00001	8b ec		 mov	 ebp, esp
  00003	53		 push	 ebx

; 917  : 	if(pTool == NULL)

  00004	8b 5d 08	 mov	 ebx, DWORD PTR _nLeftExt$[ebp]

; 446  : {

  00007	56		 push	 esi
  00008	8b f1		 mov	 esi, ecx
  0000a	57		 push	 edi

; 917  : 	if(pTool == NULL)

  0000b	8b 7d 0c	 mov	 edi, DWORD PTR _nRightExt$[ebp]

; 447  : 	SetLineExtEnv(m_pSelectingTool, nLeftExt,nRightExt);

  0000e	8b 4e 04	 mov	 ecx, DWORD PTR [esi+4]

; 917  : 	if(pTool == NULL)

  00011	85 c9		 test	 ecx, ecx
  00013	74 10		 je	 SHORT $LN3@SetLineExt

; 918  : 		return;
; 919  : 
; 920  : 	pTool->GetElementCommonEnvironment().SetLineExt(nLeftExt,nRightExt);

  00015	ff 37		 push	 DWORD PTR [edi]
  00017	ff 33		 push	 DWORD PTR [ebx]
  00019	e8 00 00 00 00	 call	 ?GetElementCommonEnvironment@CTool@@QAEAAVCElementCommonEnvironment@@XZ ; CTool::GetElementCommonEnvironment
  0001e	8b c8		 mov	 ecx, eax
  00020	e8 00 00 00 00	 call	 ?SetLineExt@CElementCommonEnvironment@@QAEXHH@Z ; CElementCommonEnvironment::SetLineExt
$LN3@SetLineExt:

; 448  : 	SetLineExtEnv(m_pCrossLineMoveTool, nLeftExt,nRightExt);

  00025	8b 4e 08	 mov	 ecx, DWORD PTR [esi+8]

; 917  : 	if(pTool == NULL)

  00028	85 c9		 test	 ecx, ecx
  0002a	74 10		 je	 SHORT $LN6@SetLineExt

; 918  : 		return;
; 919  : 
; 920  : 	pTool->GetElementCommonEnvironment().SetLineExt(nLeftExt,nRightExt);

  0002c	ff 37		 push	 DWORD PTR [edi]
  0002e	ff 33		 push	 DWORD PTR [ebx]
  00030	e8 00 00 00 00	 call	 ?GetElementCommonEnvironment@CTool@@QAEAAVCElementCommonEnvironment@@XZ ; CTool::GetElementCommonEnvironment
  00035	8b c8		 mov	 ecx, eax
  00037	e8 00 00 00 00	 call	 ?SetLineExt@CElementCommonEnvironment@@QAEXHH@Z ; CElementCommonEnvironment::SetLineExt
$LN6@SetLineExt:

; 449  : 	SetLineExtEnv(m_pCrossLineDownTool, nLeftExt,nRightExt);

  0003c	8b 4e 0c	 mov	 ecx, DWORD PTR [esi+12]

; 917  : 	if(pTool == NULL)

  0003f	85 c9		 test	 ecx, ecx
  00041	74 10		 je	 SHORT $LN9@SetLineExt

; 918  : 		return;
; 919  : 
; 920  : 	pTool->GetElementCommonEnvironment().SetLineExt(nLeftExt,nRightExt);

  00043	ff 37		 push	 DWORD PTR [edi]
  00045	ff 33		 push	 DWORD PTR [ebx]
  00047	e8 00 00 00 00	 call	 ?GetElementCommonEnvironment@CTool@@QAEAAVCElementCommonEnvironment@@XZ ; CTool::GetElementCommonEnvironment
  0004c	8b c8		 mov	 ecx, eax
  0004e	e8 00 00 00 00	 call	 ?SetLineExt@CElementCommonEnvironment@@QAEXHH@Z ; CElementCommonEnvironment::SetLineExt
$LN9@SetLineExt:

; 450  : 	SetLineExtEnv(m_pVertLineTool, nLeftExt,nRightExt);

  00053	8b 4e 10	 mov	 ecx, DWORD PTR [esi+16]

; 917  : 	if(pTool == NULL)

  00056	85 c9		 test	 ecx, ecx
  00058	74 10		 je	 SHORT $LN12@SetLineExt

; 918  : 		return;
; 919  : 
; 920  : 	pTool->GetElementCommonEnvironment().SetLineExt(nLeftExt,nRightExt);

  0005a	ff 37		 push	 DWORD PTR [edi]
  0005c	ff 33		 push	 DWORD PTR [ebx]
  0005e	e8 00 00 00 00	 call	 ?GetElementCommonEnvironment@CTool@@QAEAAVCElementCommonEnvironment@@XZ ; CTool::GetElementCommonEnvironment
  00063	8b c8		 mov	 ecx, eax
  00065	e8 00 00 00 00	 call	 ?SetLineExt@CElementCommonEnvironment@@QAEXHH@Z ; CElementCommonEnvironment::SetLineExt
$LN12@SetLineExt:

; 451  : 	SetLineExtEnv(m_pHorzLineTool, nLeftExt,nRightExt);

  0006a	8b 4e 14	 mov	 ecx, DWORD PTR [esi+20]

; 917  : 	if(pTool == NULL)

  0006d	85 c9		 test	 ecx, ecx
  0006f	74 10		 je	 SHORT $LN15@SetLineExt

; 918  : 		return;
; 919  : 
; 920  : 	pTool->GetElementCommonEnvironment().SetLineExt(nLeftExt,nRightExt);

  00071	ff 37		 push	 DWORD PTR [edi]
  00073	ff 33		 push	 DWORD PTR [ebx]
  00075	e8 00 00 00 00	 call	 ?GetElementCommonEnvironment@CTool@@QAEAAVCElementCommonEnvironment@@XZ ; CTool::GetElementCommonEnvironment
  0007a	8b c8		 mov	 ecx, eax
  0007c	e8 00 00 00 00	 call	 ?SetLineExt@CElementCommonEnvironment@@QAEXHH@Z ; CElementCommonEnvironment::SetLineExt
$LN15@SetLineExt:

; 452  : 
; 453  : 	SetLineExtEnv( m_pLineTool,nLeftExt,nRightExt);

  00081	8b 4e 18	 mov	 ecx, DWORD PTR [esi+24]

; 917  : 	if(pTool == NULL)

  00084	85 c9		 test	 ecx, ecx
  00086	74 10		 je	 SHORT $LN18@SetLineExt

; 918  : 		return;
; 919  : 
; 920  : 	pTool->GetElementCommonEnvironment().SetLineExt(nLeftExt,nRightExt);

  00088	ff 37		 push	 DWORD PTR [edi]
  0008a	ff 33		 push	 DWORD PTR [ebx]
  0008c	e8 00 00 00 00	 call	 ?GetElementCommonEnvironment@CTool@@QAEAAVCElementCommonEnvironment@@XZ ; CTool::GetElementCommonEnvironment
  00091	8b c8		 mov	 ecx, eax
  00093	e8 00 00 00 00	 call	 ?SetLineExt@CElementCommonEnvironment@@QAEXHH@Z ; CElementCommonEnvironment::SetLineExt
$LN18@SetLineExt:

; 454  : 
; 455  : 	SetLineExtEnv(m_pTrisectionLineTool, nLeftExt,nRightExt);

  00098	8b 4e 1c	 mov	 ecx, DWORD PTR [esi+28]

; 917  : 	if(pTool == NULL)

  0009b	85 c9		 test	 ecx, ecx
  0009d	74 10		 je	 SHORT $LN21@SetLineExt

; 918  : 		return;
; 919  : 
; 920  : 	pTool->GetElementCommonEnvironment().SetLineExt(nLeftExt,nRightExt);

  0009f	ff 37		 push	 DWORD PTR [edi]
  000a1	ff 33		 push	 DWORD PTR [ebx]
  000a3	e8 00 00 00 00	 call	 ?GetElementCommonEnvironment@CTool@@QAEAAVCElementCommonEnvironment@@XZ ; CTool::GetElementCommonEnvironment
  000a8	8b c8		 mov	 ecx, eax
  000aa	e8 00 00 00 00	 call	 ?SetLineExt@CElementCommonEnvironment@@QAEXHH@Z ; CElementCommonEnvironment::SetLineExt
$LN21@SetLineExt:

; 456  : 	SetLineExtEnv(m_pQuadrisectLineTool, nLeftExt,nRightExt);

  000af	8b 4e 20	 mov	 ecx, DWORD PTR [esi+32]

; 917  : 	if(pTool == NULL)

  000b2	85 c9		 test	 ecx, ecx
  000b4	74 10		 je	 SHORT $LN24@SetLineExt

; 918  : 		return;
; 919  : 
; 920  : 	pTool->GetElementCommonEnvironment().SetLineExt(nLeftExt,nRightExt);

  000b6	ff 37		 push	 DWORD PTR [edi]
  000b8	ff 33		 push	 DWORD PTR [ebx]
  000ba	e8 00 00 00 00	 call	 ?GetElementCommonEnvironment@CTool@@QAEAAVCElementCommonEnvironment@@XZ ; CTool::GetElementCommonEnvironment
  000bf	8b c8		 mov	 ecx, eax
  000c1	e8 00 00 00 00	 call	 ?SetLineExt@CElementCommonEnvironment@@QAEXHH@Z ; CElementCommonEnvironment::SetLineExt
$LN24@SetLineExt:

; 457  : 	SetLineExtEnv(m_pFiboSemicircleTool, nLeftExt,nRightExt);

  000c6	8b 4e 24	 mov	 ecx, DWORD PTR [esi+36]

; 917  : 	if(pTool == NULL)

  000c9	85 c9		 test	 ecx, ecx
  000cb	74 10		 je	 SHORT $LN27@SetLineExt

; 918  : 		return;
; 919  : 
; 920  : 	pTool->GetElementCommonEnvironment().SetLineExt(nLeftExt,nRightExt);

  000cd	ff 37		 push	 DWORD PTR [edi]
  000cf	ff 33		 push	 DWORD PTR [ebx]
  000d1	e8 00 00 00 00	 call	 ?GetElementCommonEnvironment@CTool@@QAEAAVCElementCommonEnvironment@@XZ ; CTool::GetElementCommonEnvironment
  000d6	8b c8		 mov	 ecx, eax
  000d8	e8 00 00 00 00	 call	 ?SetLineExt@CElementCommonEnvironment@@QAEXHH@Z ; CElementCommonEnvironment::SetLineExt
$LN27@SetLineExt:

; 458  : 	SetLineExtEnv(m_pFiboCircleTool, nLeftExt,nRightExt);

  000dd	8b 4e 28	 mov	 ecx, DWORD PTR [esi+40]

; 917  : 	if(pTool == NULL)

  000e0	85 c9		 test	 ecx, ecx
  000e2	74 10		 je	 SHORT $LN30@SetLineExt

; 918  : 		return;
; 919  : 
; 920  : 	pTool->GetElementCommonEnvironment().SetLineExt(nLeftExt,nRightExt);

  000e4	ff 37		 push	 DWORD PTR [edi]
  000e6	ff 33		 push	 DWORD PTR [ebx]
  000e8	e8 00 00 00 00	 call	 ?GetElementCommonEnvironment@CTool@@QAEAAVCElementCommonEnvironment@@XZ ; CTool::GetElementCommonEnvironment
  000ed	8b c8		 mov	 ecx, eax
  000ef	e8 00 00 00 00	 call	 ?SetLineExt@CElementCommonEnvironment@@QAEXHH@Z ; CElementCommonEnvironment::SetLineExt
$LN30@SetLineExt:

; 459  : 	SetLineExtEnv(m_pFiboPenLineTool, nLeftExt,nRightExt);

  000f4	8b 4e 2c	 mov	 ecx, DWORD PTR [esi+44]

; 917  : 	if(pTool == NULL)

  000f7	85 c9		 test	 ecx, ecx
  000f9	74 10		 je	 SHORT $LN33@SetLineExt

; 918  : 		return;
; 919  : 
; 920  : 	pTool->GetElementCommonEnvironment().SetLineExt(nLeftExt,nRightExt);

  000fb	ff 37		 push	 DWORD PTR [edi]
  000fd	ff 33		 push	 DWORD PTR [ebx]
  000ff	e8 00 00 00 00	 call	 ?GetElementCommonEnvironment@CTool@@QAEAAVCElementCommonEnvironment@@XZ ; CTool::GetElementCommonEnvironment
  00104	8b c8		 mov	 ecx, eax
  00106	e8 00 00 00 00	 call	 ?SetLineExt@CElementCommonEnvironment@@QAEXHH@Z ; CElementCommonEnvironment::SetLineExt
$LN33@SetLineExt:

; 460  : 	SetLineExtEnv(m_pFiboRetraceTool, nLeftExt,nRightExt);

  0010b	8b 4e 30	 mov	 ecx, DWORD PTR [esi+48]

; 917  : 	if(pTool == NULL)

  0010e	85 c9		 test	 ecx, ecx
  00110	74 10		 je	 SHORT $LN36@SetLineExt

; 918  : 		return;
; 919  : 
; 920  : 	pTool->GetElementCommonEnvironment().SetLineExt(nLeftExt,nRightExt);

  00112	ff 37		 push	 DWORD PTR [edi]
  00114	ff 33		 push	 DWORD PTR [ebx]
  00116	e8 00 00 00 00	 call	 ?GetElementCommonEnvironment@CTool@@QAEAAVCElementCommonEnvironment@@XZ ; CTool::GetElementCommonEnvironment
  0011b	8b c8		 mov	 ecx, eax
  0011d	e8 00 00 00 00	 call	 ?SetLineExt@CElementCommonEnvironment@@QAEXHH@Z ; CElementCommonEnvironment::SetLineExt
$LN36@SetLineExt:

; 461  : 	SetLineExtEnv(m_pFiboTimeTool, nLeftExt,nRightExt);

  00122	8b 4e 34	 mov	 ecx, DWORD PTR [esi+52]

; 917  : 	if(pTool == NULL)

  00125	85 c9		 test	 ecx, ecx
  00127	74 10		 je	 SHORT $LN39@SetLineExt

; 918  : 		return;
; 919  : 
; 920  : 	pTool->GetElementCommonEnvironment().SetLineExt(nLeftExt,nRightExt);

  00129	ff 37		 push	 DWORD PTR [edi]
  0012b	ff 33		 push	 DWORD PTR [ebx]
  0012d	e8 00 00 00 00	 call	 ?GetElementCommonEnvironment@CTool@@QAEAAVCElementCommonEnvironment@@XZ ; CTool::GetElementCommonEnvironment
  00132	8b c8		 mov	 ecx, eax
  00134	e8 00 00 00 00	 call	 ?SetLineExt@CElementCommonEnvironment@@QAEXHH@Z ; CElementCommonEnvironment::SetLineExt
$LN39@SetLineExt:

; 462  : 	SetLineExtEnv(m_pGannLine45Tool, nLeftExt,nRightExt);

  00139	8b 4e 38	 mov	 ecx, DWORD PTR [esi+56]

; 917  : 	if(pTool == NULL)

  0013c	85 c9		 test	 ecx, ecx
  0013e	74 10		 je	 SHORT $LN42@SetLineExt

; 918  : 		return;
; 919  : 
; 920  : 	pTool->GetElementCommonEnvironment().SetLineExt(nLeftExt,nRightExt);

  00140	ff 37		 push	 DWORD PTR [edi]
  00142	ff 33		 push	 DWORD PTR [ebx]
  00144	e8 00 00 00 00	 call	 ?GetElementCommonEnvironment@CTool@@QAEAAVCElementCommonEnvironment@@XZ ; CTool::GetElementCommonEnvironment
  00149	8b c8		 mov	 ecx, eax
  0014b	e8 00 00 00 00	 call	 ?SetLineExt@CElementCommonEnvironment@@QAEXHH@Z ; CElementCommonEnvironment::SetLineExt
$LN42@SetLineExt:

; 463  : 	SetLineExtEnv(m_pGannLine315Tool, nLeftExt,nRightExt);

  00150	8b 4e 3c	 mov	 ecx, DWORD PTR [esi+60]

; 917  : 	if(pTool == NULL)

  00153	85 c9		 test	 ecx, ecx
  00155	74 10		 je	 SHORT $LN45@SetLineExt

; 918  : 		return;
; 919  : 
; 920  : 	pTool->GetElementCommonEnvironment().SetLineExt(nLeftExt,nRightExt);

  00157	ff 37		 push	 DWORD PTR [edi]
  00159	ff 33		 push	 DWORD PTR [ebx]
  0015b	e8 00 00 00 00	 call	 ?GetElementCommonEnvironment@CTool@@QAEAAVCElementCommonEnvironment@@XZ ; CTool::GetElementCommonEnvironment
  00160	8b c8		 mov	 ecx, eax
  00162	e8 00 00 00 00	 call	 ?SetLineExt@CElementCommonEnvironment@@QAEXHH@Z ; CElementCommonEnvironment::SetLineExt
$LN45@SetLineExt:

; 464  : 	SetLineExtEnv(m_pGannFan45Tool, nLeftExt,nRightExt);

  00167	8b 4e 40	 mov	 ecx, DWORD PTR [esi+64]

; 917  : 	if(pTool == NULL)

  0016a	85 c9		 test	 ecx, ecx
  0016c	74 10		 je	 SHORT $LN48@SetLineExt

; 918  : 		return;
; 919  : 
; 920  : 	pTool->GetElementCommonEnvironment().SetLineExt(nLeftExt,nRightExt);

  0016e	ff 37		 push	 DWORD PTR [edi]
  00170	ff 33		 push	 DWORD PTR [ebx]
  00172	e8 00 00 00 00	 call	 ?GetElementCommonEnvironment@CTool@@QAEAAVCElementCommonEnvironment@@XZ ; CTool::GetElementCommonEnvironment
  00177	8b c8		 mov	 ecx, eax
  00179	e8 00 00 00 00	 call	 ?SetLineExt@CElementCommonEnvironment@@QAEXHH@Z ; CElementCommonEnvironment::SetLineExt
$LN48@SetLineExt:

; 465  : 	SetLineExtEnv(m_pGannFan135Tool, nLeftExt,nRightExt);

  0017e	8b 4e 44	 mov	 ecx, DWORD PTR [esi+68]

; 917  : 	if(pTool == NULL)

  00181	85 c9		 test	 ecx, ecx
  00183	74 10		 je	 SHORT $LN51@SetLineExt

; 918  : 		return;
; 919  : 
; 920  : 	pTool->GetElementCommonEnvironment().SetLineExt(nLeftExt,nRightExt);

  00185	ff 37		 push	 DWORD PTR [edi]
  00187	ff 33		 push	 DWORD PTR [ebx]
  00189	e8 00 00 00 00	 call	 ?GetElementCommonEnvironment@CTool@@QAEAAVCElementCommonEnvironment@@XZ ; CTool::GetElementCommonEnvironment
  0018e	8b c8		 mov	 ecx, eax
  00190	e8 00 00 00 00	 call	 ?SetLineExt@CElementCommonEnvironment@@QAEXHH@Z ; CElementCommonEnvironment::SetLineExt
$LN51@SetLineExt:

; 466  : 	SetLineExtEnv(m_pGannFan225Tool, nLeftExt,nRightExt);

  00195	8b 4e 48	 mov	 ecx, DWORD PTR [esi+72]

; 917  : 	if(pTool == NULL)

  00198	85 c9		 test	 ecx, ecx
  0019a	74 10		 je	 SHORT $LN54@SetLineExt

; 918  : 		return;
; 919  : 
; 920  : 	pTool->GetElementCommonEnvironment().SetLineExt(nLeftExt,nRightExt);

  0019c	ff 37		 push	 DWORD PTR [edi]
  0019e	ff 33		 push	 DWORD PTR [ebx]
  001a0	e8 00 00 00 00	 call	 ?GetElementCommonEnvironment@CTool@@QAEAAVCElementCommonEnvironment@@XZ ; CTool::GetElementCommonEnvironment
  001a5	8b c8		 mov	 ecx, eax
  001a7	e8 00 00 00 00	 call	 ?SetLineExt@CElementCommonEnvironment@@QAEXHH@Z ; CElementCommonEnvironment::SetLineExt
$LN54@SetLineExt:

; 467  : 	SetLineExtEnv(m_pGannFan315Tool, nLeftExt,nRightExt);

  001ac	8b 4e 4c	 mov	 ecx, DWORD PTR [esi+76]

; 917  : 	if(pTool == NULL)

  001af	85 c9		 test	 ecx, ecx
  001b1	74 10		 je	 SHORT $LN57@SetLineExt

; 918  : 		return;
; 919  : 
; 920  : 	pTool->GetElementCommonEnvironment().SetLineExt(nLeftExt,nRightExt);

  001b3	ff 37		 push	 DWORD PTR [edi]
  001b5	ff 33		 push	 DWORD PTR [ebx]
  001b7	e8 00 00 00 00	 call	 ?GetElementCommonEnvironment@CTool@@QAEAAVCElementCommonEnvironment@@XZ ; CTool::GetElementCommonEnvironment
  001bc	8b c8		 mov	 ecx, eax
  001be	e8 00 00 00 00	 call	 ?SetLineExt@CElementCommonEnvironment@@QAEXHH@Z ; CElementCommonEnvironment::SetLineExt
$LN57@SetLineExt:

; 468  : 	SetLineExtEnv(m_pGannGridTool, nLeftExt,nRightExt);

  001c3	8b 4e 50	 mov	 ecx, DWORD PTR [esi+80]

; 917  : 	if(pTool == NULL)

  001c6	85 c9		 test	 ecx, ecx
  001c8	74 10		 je	 SHORT $LN60@SetLineExt

; 918  : 		return;
; 919  : 
; 920  : 	pTool->GetElementCommonEnvironment().SetLineExt(nLeftExt,nRightExt);

  001ca	ff 37		 push	 DWORD PTR [edi]
  001cc	ff 33		 push	 DWORD PTR [ebx]
  001ce	e8 00 00 00 00	 call	 ?GetElementCommonEnvironment@CTool@@QAEAAVCElementCommonEnvironment@@XZ ; CTool::GetElementCommonEnvironment
  001d3	8b c8		 mov	 ecx, eax
  001d5	e8 00 00 00 00	 call	 ?SetLineExt@CElementCommonEnvironment@@QAEXHH@Z ; CElementCommonEnvironment::SetLineExt
$LN60@SetLineExt:

; 469  : 	SetLineExtEnv(m_pAndrewsTool, nLeftExt,nRightExt);

  001da	8b 4e 54	 mov	 ecx, DWORD PTR [esi+84]

; 917  : 	if(pTool == NULL)

  001dd	85 c9		 test	 ecx, ecx
  001df	74 10		 je	 SHORT $LN63@SetLineExt

; 918  : 		return;
; 919  : 
; 920  : 	pTool->GetElementCommonEnvironment().SetLineExt(nLeftExt,nRightExt);

  001e1	ff 37		 push	 DWORD PTR [edi]
  001e3	ff 33		 push	 DWORD PTR [ebx]
  001e5	e8 00 00 00 00	 call	 ?GetElementCommonEnvironment@CTool@@QAEAAVCElementCommonEnvironment@@XZ ; CTool::GetElementCommonEnvironment
  001ea	8b c8		 mov	 ecx, eax
  001ec	e8 00 00 00 00	 call	 ?SetLineExt@CElementCommonEnvironment@@QAEXHH@Z ; CElementCommonEnvironment::SetLineExt
$LN63@SetLineExt:

; 470  : 	SetLineExtEnv(m_pCycleLinesTool, nLeftExt,nRightExt);

  001f1	8b 4e 58	 mov	 ecx, DWORD PTR [esi+88]

; 917  : 	if(pTool == NULL)

  001f4	85 c9		 test	 ecx, ecx
  001f6	74 10		 je	 SHORT $LN66@SetLineExt

; 918  : 		return;
; 919  : 
; 920  : 	pTool->GetElementCommonEnvironment().SetLineExt(nLeftExt,nRightExt);

  001f8	ff 37		 push	 DWORD PTR [edi]
  001fa	ff 33		 push	 DWORD PTR [ebx]
  001fc	e8 00 00 00 00	 call	 ?GetElementCommonEnvironment@CTool@@QAEAAVCElementCommonEnvironment@@XZ ; CTool::GetElementCommonEnvironment
  00201	8b c8		 mov	 ecx, eax
  00203	e8 00 00 00 00	 call	 ?SetLineExt@CElementCommonEnvironment@@QAEXHH@Z ; CElementCommonEnvironment::SetLineExt
$LN66@SetLineExt:

; 471  : 	SetLineExtEnv(m_pSpeedLineTool, nLeftExt,nRightExt);

  00208	8b 4e 5c	 mov	 ecx, DWORD PTR [esi+92]

; 917  : 	if(pTool == NULL)

  0020b	85 c9		 test	 ecx, ecx
  0020d	74 10		 je	 SHORT $LN69@SetLineExt

; 918  : 		return;
; 919  : 
; 920  : 	pTool->GetElementCommonEnvironment().SetLineExt(nLeftExt,nRightExt);

  0020f	ff 37		 push	 DWORD PTR [edi]
  00211	ff 33		 push	 DWORD PTR [ebx]
  00213	e8 00 00 00 00	 call	 ?GetElementCommonEnvironment@CTool@@QAEAAVCElementCommonEnvironment@@XZ ; CTool::GetElementCommonEnvironment
  00218	8b c8		 mov	 ecx, eax
  0021a	e8 00 00 00 00	 call	 ?SetLineExt@CElementCommonEnvironment@@QAEXHH@Z ; CElementCommonEnvironment::SetLineExt
$LN69@SetLineExt:

; 472  : 	SetLineExtEnv(m_pSpeedFanTool, nLeftExt,nRightExt);

  0021f	8b 4e 60	 mov	 ecx, DWORD PTR [esi+96]

; 917  : 	if(pTool == NULL)

  00222	85 c9		 test	 ecx, ecx
  00224	74 10		 je	 SHORT $LN72@SetLineExt

; 918  : 		return;
; 919  : 
; 920  : 	pTool->GetElementCommonEnvironment().SetLineExt(nLeftExt,nRightExt);

  00226	ff 37		 push	 DWORD PTR [edi]
  00228	ff 33		 push	 DWORD PTR [ebx]
  0022a	e8 00 00 00 00	 call	 ?GetElementCommonEnvironment@CTool@@QAEAAVCElementCommonEnvironment@@XZ ; CTool::GetElementCommonEnvironment
  0022f	8b c8		 mov	 ecx, eax
  00231	e8 00 00 00 00	 call	 ?SetLineExt@CElementCommonEnvironment@@QAEXHH@Z ; CElementCommonEnvironment::SetLineExt
$LN72@SetLineExt:

; 473  : 	SetLineExtEnv(m_pSpeedArcTool, nLeftExt,nRightExt);

  00236	8b 4e 64	 mov	 ecx, DWORD PTR [esi+100]

; 917  : 	if(pTool == NULL)

  00239	85 c9		 test	 ecx, ecx
  0023b	74 10		 je	 SHORT $LN75@SetLineExt

; 918  : 		return;
; 919  : 
; 920  : 	pTool->GetElementCommonEnvironment().SetLineExt(nLeftExt,nRightExt);

  0023d	ff 37		 push	 DWORD PTR [edi]
  0023f	ff 33		 push	 DWORD PTR [ebx]
  00241	e8 00 00 00 00	 call	 ?GetElementCommonEnvironment@CTool@@QAEAAVCElementCommonEnvironment@@XZ ; CTool::GetElementCommonEnvironment
  00246	8b c8		 mov	 ecx, eax
  00248	e8 00 00 00 00	 call	 ?SetLineExt@CElementCommonEnvironment@@QAEXHH@Z ; CElementCommonEnvironment::SetLineExt
$LN75@SetLineExt:

; 474  : 	SetLineExtEnv(m_pLinearRegressionTool, nLeftExt,nRightExt);

  0024d	8b 4e 68	 mov	 ecx, DWORD PTR [esi+104]

; 917  : 	if(pTool == NULL)

  00250	85 c9		 test	 ecx, ecx
  00252	74 10		 je	 SHORT $LN78@SetLineExt

; 918  : 		return;
; 919  : 
; 920  : 	pTool->GetElementCommonEnvironment().SetLineExt(nLeftExt,nRightExt);

  00254	ff 37		 push	 DWORD PTR [edi]
  00256	ff 33		 push	 DWORD PTR [ebx]
  00258	e8 00 00 00 00	 call	 ?GetElementCommonEnvironment@CTool@@QAEAAVCElementCommonEnvironment@@XZ ; CTool::GetElementCommonEnvironment
  0025d	8b c8		 mov	 ecx, eax
  0025f	e8 00 00 00 00	 call	 ?SetLineExt@CElementCommonEnvironment@@QAEXHH@Z ; CElementCommonEnvironment::SetLineExt
$LN78@SetLineExt:

; 475  : 	SetLineExtEnv(m_pRaffRegressionTool, nLeftExt,nRightExt);

  00264	8b 4e 6c	 mov	 ecx, DWORD PTR [esi+108]

; 917  : 	if(pTool == NULL)

  00267	85 c9		 test	 ecx, ecx
  00269	74 10		 je	 SHORT $LN81@SetLineExt

; 918  : 		return;
; 919  : 
; 920  : 	pTool->GetElementCommonEnvironment().SetLineExt(nLeftExt,nRightExt);

  0026b	ff 37		 push	 DWORD PTR [edi]
  0026d	ff 33		 push	 DWORD PTR [ebx]
  0026f	e8 00 00 00 00	 call	 ?GetElementCommonEnvironment@CTool@@QAEAAVCElementCommonEnvironment@@XZ ; CTool::GetElementCommonEnvironment
  00274	8b c8		 mov	 ecx, eax
  00276	e8 00 00 00 00	 call	 ?SetLineExt@CElementCommonEnvironment@@QAEXHH@Z ; CElementCommonEnvironment::SetLineExt
$LN81@SetLineExt:

; 476  : 	SetLineExtEnv(m_pAngleLineTool, nLeftExt,nRightExt);

  0027b	8b 4e 70	 mov	 ecx, DWORD PTR [esi+112]

; 917  : 	if(pTool == NULL)

  0027e	85 c9		 test	 ecx, ecx
  00280	74 10		 je	 SHORT $LN84@SetLineExt

; 918  : 		return;
; 919  : 
; 920  : 	pTool->GetElementCommonEnvironment().SetLineExt(nLeftExt,nRightExt);

  00282	ff 37		 push	 DWORD PTR [edi]
  00284	ff 33		 push	 DWORD PTR [ebx]
  00286	e8 00 00 00 00	 call	 ?GetElementCommonEnvironment@CTool@@QAEAAVCElementCommonEnvironment@@XZ ; CTool::GetElementCommonEnvironment
  0028b	8b c8		 mov	 ecx, eax
  0028d	e8 00 00 00 00	 call	 ?SetLineExt@CElementCommonEnvironment@@QAEXHH@Z ; CElementCommonEnvironment::SetLineExt
$LN84@SetLineExt:

; 477  : 	SetLineExtEnv(m_pCandleLineTool, nLeftExt,nRightExt);

  00292	8b 4e 74	 mov	 ecx, DWORD PTR [esi+116]

; 917  : 	if(pTool == NULL)

  00295	85 c9		 test	 ecx, ecx
  00297	74 10		 je	 SHORT $LN87@SetLineExt

; 918  : 		return;
; 919  : 
; 920  : 	pTool->GetElementCommonEnvironment().SetLineExt(nLeftExt,nRightExt);

  00299	ff 37		 push	 DWORD PTR [edi]
  0029b	ff 33		 push	 DWORD PTR [ebx]
  0029d	e8 00 00 00 00	 call	 ?GetElementCommonEnvironment@CTool@@QAEAAVCElementCommonEnvironment@@XZ ; CTool::GetElementCommonEnvironment
  002a2	8b c8		 mov	 ecx, eax
  002a4	e8 00 00 00 00	 call	 ?SetLineExt@CElementCommonEnvironment@@QAEXHH@Z ; CElementCommonEnvironment::SetLineExt
$LN87@SetLineExt:

; 478  : 	SetLineExtEnv(m_pCandleBongTool, nLeftExt,nRightExt);

  002a9	8b 4e 78	 mov	 ecx, DWORD PTR [esi+120]

; 917  : 	if(pTool == NULL)

  002ac	85 c9		 test	 ecx, ecx
  002ae	74 10		 je	 SHORT $LN90@SetLineExt

; 918  : 		return;
; 919  : 
; 920  : 	pTool->GetElementCommonEnvironment().SetLineExt(nLeftExt,nRightExt);

  002b0	ff 37		 push	 DWORD PTR [edi]
  002b2	ff 33		 push	 DWORD PTR [ebx]
  002b4	e8 00 00 00 00	 call	 ?GetElementCommonEnvironment@CTool@@QAEAAVCElementCommonEnvironment@@XZ ; CTool::GetElementCommonEnvironment
  002b9	8b c8		 mov	 ecx, eax
  002bb	e8 00 00 00 00	 call	 ?SetLineExt@CElementCommonEnvironment@@QAEXHH@Z ; CElementCommonEnvironment::SetLineExt
$LN90@SetLineExt:

; 479  : 	SetLineExtEnv(m_pPencilLineTool, nLeftExt,nRightExt);

  002c0	8b 4e 7c	 mov	 ecx, DWORD PTR [esi+124]

; 917  : 	if(pTool == NULL)

  002c3	85 c9		 test	 ecx, ecx
  002c5	74 10		 je	 SHORT $LN93@SetLineExt

; 918  : 		return;
; 919  : 
; 920  : 	pTool->GetElementCommonEnvironment().SetLineExt(nLeftExt,nRightExt);

  002c7	ff 37		 push	 DWORD PTR [edi]
  002c9	ff 33		 push	 DWORD PTR [ebx]
  002cb	e8 00 00 00 00	 call	 ?GetElementCommonEnvironment@CTool@@QAEAAVCElementCommonEnvironment@@XZ ; CTool::GetElementCommonEnvironment
  002d0	8b c8		 mov	 ecx, eax
  002d2	e8 00 00 00 00	 call	 ?SetLineExt@CElementCommonEnvironment@@QAEXHH@Z ; CElementCommonEnvironment::SetLineExt
$LN93@SetLineExt:

; 480  : 	SetLineExtEnv(m_pPeriodLineTool, nLeftExt,nRightExt);

  002d7	8b 8e 80 00 00
	00		 mov	 ecx, DWORD PTR [esi+128]

; 917  : 	if(pTool == NULL)

  002dd	85 c9		 test	 ecx, ecx
  002df	74 10		 je	 SHORT $LN96@SetLineExt

; 918  : 		return;
; 919  : 
; 920  : 	pTool->GetElementCommonEnvironment().SetLineExt(nLeftExt,nRightExt);

  002e1	ff 37		 push	 DWORD PTR [edi]
  002e3	ff 33		 push	 DWORD PTR [ebx]
  002e5	e8 00 00 00 00	 call	 ?GetElementCommonEnvironment@CTool@@QAEAAVCElementCommonEnvironment@@XZ ; CTool::GetElementCommonEnvironment
  002ea	8b c8		 mov	 ecx, eax
  002ec	e8 00 00 00 00	 call	 ?SetLineExt@CElementCommonEnvironment@@QAEXHH@Z ; CElementCommonEnvironment::SetLineExt
$LN96@SetLineExt:

; 481  : 	SetLineExtEnv(m_pElliotLineTool, nLeftExt,nRightExt);

  002f1	8b 8e 84 00 00
	00		 mov	 ecx, DWORD PTR [esi+132]

; 917  : 	if(pTool == NULL)

  002f7	85 c9		 test	 ecx, ecx
  002f9	74 10		 je	 SHORT $LN99@SetLineExt

; 918  : 		return;
; 919  : 
; 920  : 	pTool->GetElementCommonEnvironment().SetLineExt(nLeftExt,nRightExt);

  002fb	ff 37		 push	 DWORD PTR [edi]
  002fd	ff 33		 push	 DWORD PTR [ebx]
  002ff	e8 00 00 00 00	 call	 ?GetElementCommonEnvironment@CTool@@QAEAAVCElementCommonEnvironment@@XZ ; CTool::GetElementCommonEnvironment
  00304	8b c8		 mov	 ecx, eax
  00306	e8 00 00 00 00	 call	 ?SetLineExt@CElementCommonEnvironment@@QAEXHH@Z ; CElementCommonEnvironment::SetLineExt
$LN99@SetLineExt:

; 482  : 	SetLineExtEnv(m_pAdjustRatioTool, nLeftExt,nRightExt);

  0030b	8b 8e 88 00 00
	00		 mov	 ecx, DWORD PTR [esi+136]

; 917  : 	if(pTool == NULL)

  00311	85 c9		 test	 ecx, ecx
  00313	74 10		 je	 SHORT $LN102@SetLineExt

; 918  : 		return;
; 919  : 
; 920  : 	pTool->GetElementCommonEnvironment().SetLineExt(nLeftExt,nRightExt);

  00315	ff 37		 push	 DWORD PTR [edi]
  00317	ff 33		 push	 DWORD PTR [ebx]
  00319	e8 00 00 00 00	 call	 ?GetElementCommonEnvironment@CTool@@QAEAAVCElementCommonEnvironment@@XZ ; CTool::GetElementCommonEnvironment
  0031e	8b c8		 mov	 ecx, eax
  00320	e8 00 00 00 00	 call	 ?SetLineExt@CElementCommonEnvironment@@QAEXHH@Z ; CElementCommonEnvironment::SetLineExt
$LN102@SetLineExt:

; 483  : 
; 484  : 	SetLineExtEnv(m_pBalanceBasicTool, nLeftExt, nRightExt);	// 2014.09.24  : 0010862: [7111]    []  IBK   

  00325	8b 8e 8c 00 00
	00		 mov	 ecx, DWORD PTR [esi+140]

; 917  : 	if(pTool == NULL)

  0032b	85 c9		 test	 ecx, ecx
  0032d	74 10		 je	 SHORT $LN105@SetLineExt

; 918  : 		return;
; 919  : 
; 920  : 	pTool->GetElementCommonEnvironment().SetLineExt(nLeftExt,nRightExt);

  0032f	ff 37		 push	 DWORD PTR [edi]
  00331	ff 33		 push	 DWORD PTR [ebx]
  00333	e8 00 00 00 00	 call	 ?GetElementCommonEnvironment@CTool@@QAEAAVCElementCommonEnvironment@@XZ ; CTool::GetElementCommonEnvironment
  00338	8b c8		 mov	 ecx, eax
  0033a	e8 00 00 00 00	 call	 ?SetLineExt@CElementCommonEnvironment@@QAEXHH@Z ; CElementCommonEnvironment::SetLineExt
$LN105@SetLineExt:
  0033f	5f		 pop	 edi

; 485  : }

  00340	5e		 pop	 esi
  00341	5b		 pop	 ebx
  00342	5d		 pop	 ebp
  00343	c2 08 00	 ret	 8
?SetLineExtEnvironment@CToolSingleton@@QAEXABH0@Z ENDP	; CToolSingleton::SetLineExtEnvironment
_TEXT	ENDS
; Function compile flags: /Ogtp
; File D:\git\src\IBK\IBK_DRFN\ProjSrc\SrcChartEx\ChartAddIn\ChartAnalysisToolAddIn\AnalysisTool\ToolSingleton.cpp
;	COMDAT ?SetLineExtEnvironment@CToolSingleton@@QAEXW4TOOLTYPE@CAnalysis@@ABH1@Z
_TEXT	SEGMENT
_eToolType$ = 8						; size = 4
_nLeftExt$ = 12						; size = 4
_nRightExt$ = 16					; size = 4
?SetLineExtEnvironment@CToolSingleton@@QAEXW4TOOLTYPE@CAnalysis@@ABH1@Z PROC ; CToolSingleton::SetLineExtEnvironment, COMDAT
; _this$ = ecx

; 798  : {

  00000	55		 push	 ebp
  00001	8b ec		 mov	 ebp, esp

; 799  : 	// , , ,  , 
; 800  : 	if( eToolType == CAnalysis::EN_ANALYSIS_LINE)

  00003	8b 45 08	 mov	 eax, DWORD PTR _eToolType$[ebp]
  00006	83 f8 05	 cmp	 eax, 5
  00009	75 05		 jne	 SHORT $LN2@SetLineExt

; 801  : 		SetLineExtEnv(m_pLineTool,nLeftExt,nRightExt);

  0000b	8b 49 18	 mov	 ecx, DWORD PTR [ecx+24]
  0000e	eb 2b		 jmp	 SHORT $LN33@SetLineExt
$LN2@SetLineExt:

; 802  : 	else if(eToolType == CAnalysis::EN_ANALYSIS_TRISECT)

  00010	83 f8 06	 cmp	 eax, 6
  00013	75 05		 jne	 SHORT $LN4@SetLineExt

; 803  : 		SetLineExtEnv(m_pTrisectionLineTool,nLeftExt,nRightExt);

  00015	8b 49 1c	 mov	 ecx, DWORD PTR [ecx+28]
  00018	eb 21		 jmp	 SHORT $LN33@SetLineExt
$LN4@SetLineExt:

; 804  : 	else if(eToolType == CAnalysis::EN_ANALYSIS_QUARTER)

  0001a	83 f8 07	 cmp	 eax, 7
  0001d	75 05		 jne	 SHORT $LN6@SetLineExt

; 805  : 		SetLineExtEnv(m_pQuadrisectLineTool,nLeftExt,nRightExt);

  0001f	8b 49 20	 mov	 ecx, DWORD PTR [ecx+32]
  00022	eb 17		 jmp	 SHORT $LN33@SetLineExt
$LN6@SetLineExt:

; 806  : 	else if(eToolType == CAnalysis::EN_ANALYSIS_FIBO_RETRACE)

  00024	83 f8 0b	 cmp	 eax, 11			; 0000000bH
  00027	75 05		 jne	 SHORT $LN8@SetLineExt

; 807  : 		SetLineExtEnv(m_pFiboRetraceTool,nLeftExt,nRightExt);

  00029	8b 49 30	 mov	 ecx, DWORD PTR [ecx+48]
  0002c	eb 0d		 jmp	 SHORT $LN33@SetLineExt
$LN8@SetLineExt:

; 808  : 	else if(eToolType == CAnalysis::EN_ANALYSIS_LINEAR_REGRESSION)

  0002e	83 f8 1b	 cmp	 eax, 27			; 0000001bH
  00031	74 05		 je	 SHORT $LN34@SetLineExt

; 809  : 		SetLineExtEnv(m_pLinearRegressionTool,nLeftExt,nRightExt);
; 810  : 	else if(eToolType == CAnalysis::EN_ANALYSIS_RAFF_REGRESSION)

  00033	83 f8 1c	 cmp	 eax, 28			; 0000001cH
  00036	75 1d		 jne	 SHORT $LN29@SetLineExt
$LN34@SetLineExt:

; 811  : 		SetLineExtEnv(m_pLinearRegressionTool,nLeftExt,nRightExt);
; 812  : }

  00038	8b 49 68	 mov	 ecx, DWORD PTR [ecx+104]
$LN33@SetLineExt:
  0003b	85 c9		 test	 ecx, ecx
  0003d	74 16		 je	 SHORT $LN29@SetLineExt
  0003f	8b 45 10	 mov	 eax, DWORD PTR _nRightExt$[ebp]
  00042	ff 30		 push	 DWORD PTR [eax]
  00044	8b 45 0c	 mov	 eax, DWORD PTR _nLeftExt$[ebp]
  00047	ff 30		 push	 DWORD PTR [eax]
  00049	e8 00 00 00 00	 call	 ?GetElementCommonEnvironment@CTool@@QAEAAVCElementCommonEnvironment@@XZ ; CTool::GetElementCommonEnvironment
  0004e	8b c8		 mov	 ecx, eax
  00050	e8 00 00 00 00	 call	 ?SetLineExt@CElementCommonEnvironment@@QAEXHH@Z ; CElementCommonEnvironment::SetLineExt
$LN29@SetLineExt:
  00055	5d		 pop	 ebp
  00056	c2 0c 00	 ret	 12			; 0000000cH
?SetLineExtEnvironment@CToolSingleton@@QAEXW4TOOLTYPE@CAnalysis@@ABH1@Z ENDP ; CToolSingleton::SetLineExtEnvironment
_TEXT	ENDS
; Function compile flags: /Ogtp
; File D:\git\src\IBK\IBK_DRFN\ProjSrc\SrcChartEx\ChartAddIn\ChartAnalysisToolAddIn\AnalysisTool\ToolSingleton.cpp
;	COMDAT ?SetBasePenThickness@CToolSingleton@@QAEXH@Z
_TEXT	SEGMENT
_nThickness$ = 8					; size = 4
?SetBasePenThickness@CToolSingleton@@QAEXH@Z PROC	; CToolSingleton::SetBasePenThickness, COMDAT
; _this$ = ecx

; 404  : {

  00000	55		 push	 ebp
  00001	8b ec		 mov	 ebp, esp
  00003	56		 push	 esi
  00004	8b f1		 mov	 esi, ecx
  00006	57		 push	 edi

; 901  : 	if(pTool == NULL)

  00007	8b 7d 08	 mov	 edi, DWORD PTR _nThickness$[ebp]

; 405  : 	SetBasePenThickness(m_pSelectingTool, nThickness);

  0000a	8b 4e 04	 mov	 ecx, DWORD PTR [esi+4]

; 901  : 	if(pTool == NULL)

  0000d	85 c9		 test	 ecx, ecx
  0000f	74 14		 je	 SHORT $LN3@SetBasePen

; 902  : 		return;
; 903  : 
; 904  : 	pTool->GetElementCommonEnvironment().GetPen().SetWidth(nThickness);

  00011	57		 push	 edi
  00012	e8 00 00 00 00	 call	 ?GetElementCommonEnvironment@CTool@@QAEAAVCElementCommonEnvironment@@XZ ; CTool::GetElementCommonEnvironment
  00017	8b c8		 mov	 ecx, eax
  00019	e8 00 00 00 00	 call	 ?GetPen@CElementCommonEnvironment@@QAEAAVCPenEnvironment@@XZ ; CElementCommonEnvironment::GetPen
  0001e	8b c8		 mov	 ecx, eax
  00020	e8 00 00 00 00	 call	 ?SetWidth@CPenEnvironment@@QAEXH@Z ; CPenEnvironment::SetWidth
$LN3@SetBasePen:

; 406  : 	SetBasePenThickness(m_pCrossLineMoveTool, nThickness);

  00025	8b 4e 08	 mov	 ecx, DWORD PTR [esi+8]

; 901  : 	if(pTool == NULL)

  00028	85 c9		 test	 ecx, ecx
  0002a	74 14		 je	 SHORT $LN6@SetBasePen

; 902  : 		return;
; 903  : 
; 904  : 	pTool->GetElementCommonEnvironment().GetPen().SetWidth(nThickness);

  0002c	57		 push	 edi
  0002d	e8 00 00 00 00	 call	 ?GetElementCommonEnvironment@CTool@@QAEAAVCElementCommonEnvironment@@XZ ; CTool::GetElementCommonEnvironment
  00032	8b c8		 mov	 ecx, eax
  00034	e8 00 00 00 00	 call	 ?GetPen@CElementCommonEnvironment@@QAEAAVCPenEnvironment@@XZ ; CElementCommonEnvironment::GetPen
  00039	8b c8		 mov	 ecx, eax
  0003b	e8 00 00 00 00	 call	 ?SetWidth@CPenEnvironment@@QAEXH@Z ; CPenEnvironment::SetWidth
$LN6@SetBasePen:

; 407  : 	SetBasePenThickness(m_pCrossLineDownTool, nThickness);

  00040	8b 4e 0c	 mov	 ecx, DWORD PTR [esi+12]

; 901  : 	if(pTool == NULL)

  00043	85 c9		 test	 ecx, ecx
  00045	74 14		 je	 SHORT $LN9@SetBasePen

; 902  : 		return;
; 903  : 
; 904  : 	pTool->GetElementCommonEnvironment().GetPen().SetWidth(nThickness);

  00047	57		 push	 edi
  00048	e8 00 00 00 00	 call	 ?GetElementCommonEnvironment@CTool@@QAEAAVCElementCommonEnvironment@@XZ ; CTool::GetElementCommonEnvironment
  0004d	8b c8		 mov	 ecx, eax
  0004f	e8 00 00 00 00	 call	 ?GetPen@CElementCommonEnvironment@@QAEAAVCPenEnvironment@@XZ ; CElementCommonEnvironment::GetPen
  00054	8b c8		 mov	 ecx, eax
  00056	e8 00 00 00 00	 call	 ?SetWidth@CPenEnvironment@@QAEXH@Z ; CPenEnvironment::SetWidth
$LN9@SetBasePen:

; 408  : 	SetBasePenThickness(m_pVertLineTool, nThickness);

  0005b	8b 4e 10	 mov	 ecx, DWORD PTR [esi+16]

; 901  : 	if(pTool == NULL)

  0005e	85 c9		 test	 ecx, ecx
  00060	74 14		 je	 SHORT $LN12@SetBasePen

; 902  : 		return;
; 903  : 
; 904  : 	pTool->GetElementCommonEnvironment().GetPen().SetWidth(nThickness);

  00062	57		 push	 edi
  00063	e8 00 00 00 00	 call	 ?GetElementCommonEnvironment@CTool@@QAEAAVCElementCommonEnvironment@@XZ ; CTool::GetElementCommonEnvironment
  00068	8b c8		 mov	 ecx, eax
  0006a	e8 00 00 00 00	 call	 ?GetPen@CElementCommonEnvironment@@QAEAAVCPenEnvironment@@XZ ; CElementCommonEnvironment::GetPen
  0006f	8b c8		 mov	 ecx, eax
  00071	e8 00 00 00 00	 call	 ?SetWidth@CPenEnvironment@@QAEXH@Z ; CPenEnvironment::SetWidth
$LN12@SetBasePen:

; 409  : 	SetBasePenThickness(m_pHorzLineTool, nThickness);

  00076	8b 4e 14	 mov	 ecx, DWORD PTR [esi+20]

; 901  : 	if(pTool == NULL)

  00079	85 c9		 test	 ecx, ecx
  0007b	74 14		 je	 SHORT $LN15@SetBasePen

; 902  : 		return;
; 903  : 
; 904  : 	pTool->GetElementCommonEnvironment().GetPen().SetWidth(nThickness);

  0007d	57		 push	 edi
  0007e	e8 00 00 00 00	 call	 ?GetElementCommonEnvironment@CTool@@QAEAAVCElementCommonEnvironment@@XZ ; CTool::GetElementCommonEnvironment
  00083	8b c8		 mov	 ecx, eax
  00085	e8 00 00 00 00	 call	 ?GetPen@CElementCommonEnvironment@@QAEAAVCPenEnvironment@@XZ ; CElementCommonEnvironment::GetPen
  0008a	8b c8		 mov	 ecx, eax
  0008c	e8 00 00 00 00	 call	 ?SetWidth@CPenEnvironment@@QAEXH@Z ; CPenEnvironment::SetWidth
$LN15@SetBasePen:

; 410  : 
; 411  : 	SetBasePenThickness( m_pLineTool, nThickness);

  00091	8b 4e 18	 mov	 ecx, DWORD PTR [esi+24]

; 901  : 	if(pTool == NULL)

  00094	85 c9		 test	 ecx, ecx
  00096	74 14		 je	 SHORT $LN18@SetBasePen

; 902  : 		return;
; 903  : 
; 904  : 	pTool->GetElementCommonEnvironment().GetPen().SetWidth(nThickness);

  00098	57		 push	 edi
  00099	e8 00 00 00 00	 call	 ?GetElementCommonEnvironment@CTool@@QAEAAVCElementCommonEnvironment@@XZ ; CTool::GetElementCommonEnvironment
  0009e	8b c8		 mov	 ecx, eax
  000a0	e8 00 00 00 00	 call	 ?GetPen@CElementCommonEnvironment@@QAEAAVCPenEnvironment@@XZ ; CElementCommonEnvironment::GetPen
  000a5	8b c8		 mov	 ecx, eax
  000a7	e8 00 00 00 00	 call	 ?SetWidth@CPenEnvironment@@QAEXH@Z ; CPenEnvironment::SetWidth
$LN18@SetBasePen:

; 412  : 
; 413  : 	SetBasePenThickness(m_pTrisectionLineTool, nThickness);

  000ac	8b 4e 1c	 mov	 ecx, DWORD PTR [esi+28]

; 901  : 	if(pTool == NULL)

  000af	85 c9		 test	 ecx, ecx
  000b1	74 14		 je	 SHORT $LN21@SetBasePen

; 902  : 		return;
; 903  : 
; 904  : 	pTool->GetElementCommonEnvironment().GetPen().SetWidth(nThickness);

  000b3	57		 push	 edi
  000b4	e8 00 00 00 00	 call	 ?GetElementCommonEnvironment@CTool@@QAEAAVCElementCommonEnvironment@@XZ ; CTool::GetElementCommonEnvironment
  000b9	8b c8		 mov	 ecx, eax
  000bb	e8 00 00 00 00	 call	 ?GetPen@CElementCommonEnvironment@@QAEAAVCPenEnvironment@@XZ ; CElementCommonEnvironment::GetPen
  000c0	8b c8		 mov	 ecx, eax
  000c2	e8 00 00 00 00	 call	 ?SetWidth@CPenEnvironment@@QAEXH@Z ; CPenEnvironment::SetWidth
$LN21@SetBasePen:

; 414  : 	SetBasePenThickness(m_pQuadrisectLineTool, nThickness);

  000c7	8b 4e 20	 mov	 ecx, DWORD PTR [esi+32]

; 901  : 	if(pTool == NULL)

  000ca	85 c9		 test	 ecx, ecx
  000cc	74 14		 je	 SHORT $LN24@SetBasePen

; 902  : 		return;
; 903  : 
; 904  : 	pTool->GetElementCommonEnvironment().GetPen().SetWidth(nThickness);

  000ce	57		 push	 edi
  000cf	e8 00 00 00 00	 call	 ?GetElementCommonEnvironment@CTool@@QAEAAVCElementCommonEnvironment@@XZ ; CTool::GetElementCommonEnvironment
  000d4	8b c8		 mov	 ecx, eax
  000d6	e8 00 00 00 00	 call	 ?GetPen@CElementCommonEnvironment@@QAEAAVCPenEnvironment@@XZ ; CElementCommonEnvironment::GetPen
  000db	8b c8		 mov	 ecx, eax
  000dd	e8 00 00 00 00	 call	 ?SetWidth@CPenEnvironment@@QAEXH@Z ; CPenEnvironment::SetWidth
$LN24@SetBasePen:

; 415  : 	SetBasePenThickness(m_pFiboSemicircleTool, nThickness);

  000e2	8b 4e 24	 mov	 ecx, DWORD PTR [esi+36]

; 901  : 	if(pTool == NULL)

  000e5	85 c9		 test	 ecx, ecx
  000e7	74 14		 je	 SHORT $LN27@SetBasePen

; 902  : 		return;
; 903  : 
; 904  : 	pTool->GetElementCommonEnvironment().GetPen().SetWidth(nThickness);

  000e9	57		 push	 edi
  000ea	e8 00 00 00 00	 call	 ?GetElementCommonEnvironment@CTool@@QAEAAVCElementCommonEnvironment@@XZ ; CTool::GetElementCommonEnvironment
  000ef	8b c8		 mov	 ecx, eax
  000f1	e8 00 00 00 00	 call	 ?GetPen@CElementCommonEnvironment@@QAEAAVCPenEnvironment@@XZ ; CElementCommonEnvironment::GetPen
  000f6	8b c8		 mov	 ecx, eax
  000f8	e8 00 00 00 00	 call	 ?SetWidth@CPenEnvironment@@QAEXH@Z ; CPenEnvironment::SetWidth
$LN27@SetBasePen:

; 416  : 	SetBasePenThickness(m_pFiboCircleTool, nThickness);

  000fd	8b 4e 28	 mov	 ecx, DWORD PTR [esi+40]

; 901  : 	if(pTool == NULL)

  00100	85 c9		 test	 ecx, ecx
  00102	74 14		 je	 SHORT $LN30@SetBasePen

; 902  : 		return;
; 903  : 
; 904  : 	pTool->GetElementCommonEnvironment().GetPen().SetWidth(nThickness);

  00104	57		 push	 edi
  00105	e8 00 00 00 00	 call	 ?GetElementCommonEnvironment@CTool@@QAEAAVCElementCommonEnvironment@@XZ ; CTool::GetElementCommonEnvironment
  0010a	8b c8		 mov	 ecx, eax
  0010c	e8 00 00 00 00	 call	 ?GetPen@CElementCommonEnvironment@@QAEAAVCPenEnvironment@@XZ ; CElementCommonEnvironment::GetPen
  00111	8b c8		 mov	 ecx, eax
  00113	e8 00 00 00 00	 call	 ?SetWidth@CPenEnvironment@@QAEXH@Z ; CPenEnvironment::SetWidth
$LN30@SetBasePen:

; 417  : 	SetBasePenThickness(m_pFiboPenLineTool, nThickness);

  00118	8b 4e 2c	 mov	 ecx, DWORD PTR [esi+44]

; 901  : 	if(pTool == NULL)

  0011b	85 c9		 test	 ecx, ecx
  0011d	74 14		 je	 SHORT $LN33@SetBasePen

; 902  : 		return;
; 903  : 
; 904  : 	pTool->GetElementCommonEnvironment().GetPen().SetWidth(nThickness);

  0011f	57		 push	 edi
  00120	e8 00 00 00 00	 call	 ?GetElementCommonEnvironment@CTool@@QAEAAVCElementCommonEnvironment@@XZ ; CTool::GetElementCommonEnvironment
  00125	8b c8		 mov	 ecx, eax
  00127	e8 00 00 00 00	 call	 ?GetPen@CElementCommonEnvironment@@QAEAAVCPenEnvironment@@XZ ; CElementCommonEnvironment::GetPen
  0012c	8b c8		 mov	 ecx, eax
  0012e	e8 00 00 00 00	 call	 ?SetWidth@CPenEnvironment@@QAEXH@Z ; CPenEnvironment::SetWidth
$LN33@SetBasePen:

; 418  : 	SetBasePenThickness(m_pFiboRetraceTool, nThickness);

  00133	8b 4e 30	 mov	 ecx, DWORD PTR [esi+48]

; 901  : 	if(pTool == NULL)

  00136	85 c9		 test	 ecx, ecx
  00138	74 14		 je	 SHORT $LN36@SetBasePen

; 902  : 		return;
; 903  : 
; 904  : 	pTool->GetElementCommonEnvironment().GetPen().SetWidth(nThickness);

  0013a	57		 push	 edi
  0013b	e8 00 00 00 00	 call	 ?GetElementCommonEnvironment@CTool@@QAEAAVCElementCommonEnvironment@@XZ ; CTool::GetElementCommonEnvironment
  00140	8b c8		 mov	 ecx, eax
  00142	e8 00 00 00 00	 call	 ?GetPen@CElementCommonEnvironment@@QAEAAVCPenEnvironment@@XZ ; CElementCommonEnvironment::GetPen
  00147	8b c8		 mov	 ecx, eax
  00149	e8 00 00 00 00	 call	 ?SetWidth@CPenEnvironment@@QAEXH@Z ; CPenEnvironment::SetWidth
$LN36@SetBasePen:

; 419  : 	SetBasePenThickness(m_pFiboTimeTool, nThickness);

  0014e	8b 4e 34	 mov	 ecx, DWORD PTR [esi+52]

; 901  : 	if(pTool == NULL)

  00151	85 c9		 test	 ecx, ecx
  00153	74 14		 je	 SHORT $LN39@SetBasePen

; 902  : 		return;
; 903  : 
; 904  : 	pTool->GetElementCommonEnvironment().GetPen().SetWidth(nThickness);

  00155	57		 push	 edi
  00156	e8 00 00 00 00	 call	 ?GetElementCommonEnvironment@CTool@@QAEAAVCElementCommonEnvironment@@XZ ; CTool::GetElementCommonEnvironment
  0015b	8b c8		 mov	 ecx, eax
  0015d	e8 00 00 00 00	 call	 ?GetPen@CElementCommonEnvironment@@QAEAAVCPenEnvironment@@XZ ; CElementCommonEnvironment::GetPen
  00162	8b c8		 mov	 ecx, eax
  00164	e8 00 00 00 00	 call	 ?SetWidth@CPenEnvironment@@QAEXH@Z ; CPenEnvironment::SetWidth
$LN39@SetBasePen:

; 420  : 	SetBasePenThickness(m_pGannLine45Tool, nThickness);

  00169	8b 4e 38	 mov	 ecx, DWORD PTR [esi+56]

; 901  : 	if(pTool == NULL)

  0016c	85 c9		 test	 ecx, ecx
  0016e	74 14		 je	 SHORT $LN42@SetBasePen

; 902  : 		return;
; 903  : 
; 904  : 	pTool->GetElementCommonEnvironment().GetPen().SetWidth(nThickness);

  00170	57		 push	 edi
  00171	e8 00 00 00 00	 call	 ?GetElementCommonEnvironment@CTool@@QAEAAVCElementCommonEnvironment@@XZ ; CTool::GetElementCommonEnvironment
  00176	8b c8		 mov	 ecx, eax
  00178	e8 00 00 00 00	 call	 ?GetPen@CElementCommonEnvironment@@QAEAAVCPenEnvironment@@XZ ; CElementCommonEnvironment::GetPen
  0017d	8b c8		 mov	 ecx, eax
  0017f	e8 00 00 00 00	 call	 ?SetWidth@CPenEnvironment@@QAEXH@Z ; CPenEnvironment::SetWidth
$LN42@SetBasePen:

; 421  : 	SetBasePenThickness(m_pGannLine315Tool, nThickness);

  00184	8b 4e 3c	 mov	 ecx, DWORD PTR [esi+60]

; 901  : 	if(pTool == NULL)

  00187	85 c9		 test	 ecx, ecx
  00189	74 14		 je	 SHORT $LN45@SetBasePen

; 902  : 		return;
; 903  : 
; 904  : 	pTool->GetElementCommonEnvironment().GetPen().SetWidth(nThickness);

  0018b	57		 push	 edi
  0018c	e8 00 00 00 00	 call	 ?GetElementCommonEnvironment@CTool@@QAEAAVCElementCommonEnvironment@@XZ ; CTool::GetElementCommonEnvironment
  00191	8b c8		 mov	 ecx, eax
  00193	e8 00 00 00 00	 call	 ?GetPen@CElementCommonEnvironment@@QAEAAVCPenEnvironment@@XZ ; CElementCommonEnvironment::GetPen
  00198	8b c8		 mov	 ecx, eax
  0019a	e8 00 00 00 00	 call	 ?SetWidth@CPenEnvironment@@QAEXH@Z ; CPenEnvironment::SetWidth
$LN45@SetBasePen:

; 422  : 	SetBasePenThickness(m_pGannFan45Tool, nThickness);

  0019f	8b 4e 40	 mov	 ecx, DWORD PTR [esi+64]

; 901  : 	if(pTool == NULL)

  001a2	85 c9		 test	 ecx, ecx
  001a4	74 14		 je	 SHORT $LN48@SetBasePen

; 902  : 		return;
; 903  : 
; 904  : 	pTool->GetElementCommonEnvironment().GetPen().SetWidth(nThickness);

  001a6	57		 push	 edi
  001a7	e8 00 00 00 00	 call	 ?GetElementCommonEnvironment@CTool@@QAEAAVCElementCommonEnvironment@@XZ ; CTool::GetElementCommonEnvironment
  001ac	8b c8		 mov	 ecx, eax
  001ae	e8 00 00 00 00	 call	 ?GetPen@CElementCommonEnvironment@@QAEAAVCPenEnvironment@@XZ ; CElementCommonEnvironment::GetPen
  001b3	8b c8		 mov	 ecx, eax
  001b5	e8 00 00 00 00	 call	 ?SetWidth@CPenEnvironment@@QAEXH@Z ; CPenEnvironment::SetWidth
$LN48@SetBasePen:

; 423  : 	SetBasePenThickness(m_pGannFan135Tool, nThickness);

  001ba	8b 4e 44	 mov	 ecx, DWORD PTR [esi+68]

; 901  : 	if(pTool == NULL)

  001bd	85 c9		 test	 ecx, ecx
  001bf	74 14		 je	 SHORT $LN51@SetBasePen

; 902  : 		return;
; 903  : 
; 904  : 	pTool->GetElementCommonEnvironment().GetPen().SetWidth(nThickness);

  001c1	57		 push	 edi
  001c2	e8 00 00 00 00	 call	 ?GetElementCommonEnvironment@CTool@@QAEAAVCElementCommonEnvironment@@XZ ; CTool::GetElementCommonEnvironment
  001c7	8b c8		 mov	 ecx, eax
  001c9	e8 00 00 00 00	 call	 ?GetPen@CElementCommonEnvironment@@QAEAAVCPenEnvironment@@XZ ; CElementCommonEnvironment::GetPen
  001ce	8b c8		 mov	 ecx, eax
  001d0	e8 00 00 00 00	 call	 ?SetWidth@CPenEnvironment@@QAEXH@Z ; CPenEnvironment::SetWidth
$LN51@SetBasePen:

; 424  : 	SetBasePenThickness(m_pGannFan225Tool, nThickness);

  001d5	8b 4e 48	 mov	 ecx, DWORD PTR [esi+72]

; 901  : 	if(pTool == NULL)

  001d8	85 c9		 test	 ecx, ecx
  001da	74 14		 je	 SHORT $LN54@SetBasePen

; 902  : 		return;
; 903  : 
; 904  : 	pTool->GetElementCommonEnvironment().GetPen().SetWidth(nThickness);

  001dc	57		 push	 edi
  001dd	e8 00 00 00 00	 call	 ?GetElementCommonEnvironment@CTool@@QAEAAVCElementCommonEnvironment@@XZ ; CTool::GetElementCommonEnvironment
  001e2	8b c8		 mov	 ecx, eax
  001e4	e8 00 00 00 00	 call	 ?GetPen@CElementCommonEnvironment@@QAEAAVCPenEnvironment@@XZ ; CElementCommonEnvironment::GetPen
  001e9	8b c8		 mov	 ecx, eax
  001eb	e8 00 00 00 00	 call	 ?SetWidth@CPenEnvironment@@QAEXH@Z ; CPenEnvironment::SetWidth
$LN54@SetBasePen:

; 425  : 	SetBasePenThickness(m_pGannFan315Tool, nThickness);

  001f0	8b 4e 4c	 mov	 ecx, DWORD PTR [esi+76]

; 901  : 	if(pTool == NULL)

  001f3	85 c9		 test	 ecx, ecx
  001f5	74 14		 je	 SHORT $LN57@SetBasePen

; 902  : 		return;
; 903  : 
; 904  : 	pTool->GetElementCommonEnvironment().GetPen().SetWidth(nThickness);

  001f7	57		 push	 edi
  001f8	e8 00 00 00 00	 call	 ?GetElementCommonEnvironment@CTool@@QAEAAVCElementCommonEnvironment@@XZ ; CTool::GetElementCommonEnvironment
  001fd	8b c8		 mov	 ecx, eax
  001ff	e8 00 00 00 00	 call	 ?GetPen@CElementCommonEnvironment@@QAEAAVCPenEnvironment@@XZ ; CElementCommonEnvironment::GetPen
  00204	8b c8		 mov	 ecx, eax
  00206	e8 00 00 00 00	 call	 ?SetWidth@CPenEnvironment@@QAEXH@Z ; CPenEnvironment::SetWidth
$LN57@SetBasePen:

; 426  : 	SetBasePenThickness(m_pGannGridTool, nThickness);

  0020b	8b 4e 50	 mov	 ecx, DWORD PTR [esi+80]

; 901  : 	if(pTool == NULL)

  0020e	85 c9		 test	 ecx, ecx
  00210	74 14		 je	 SHORT $LN60@SetBasePen

; 902  : 		return;
; 903  : 
; 904  : 	pTool->GetElementCommonEnvironment().GetPen().SetWidth(nThickness);

  00212	57		 push	 edi
  00213	e8 00 00 00 00	 call	 ?GetElementCommonEnvironment@CTool@@QAEAAVCElementCommonEnvironment@@XZ ; CTool::GetElementCommonEnvironment
  00218	8b c8		 mov	 ecx, eax
  0021a	e8 00 00 00 00	 call	 ?GetPen@CElementCommonEnvironment@@QAEAAVCPenEnvironment@@XZ ; CElementCommonEnvironment::GetPen
  0021f	8b c8		 mov	 ecx, eax
  00221	e8 00 00 00 00	 call	 ?SetWidth@CPenEnvironment@@QAEXH@Z ; CPenEnvironment::SetWidth
$LN60@SetBasePen:

; 427  : 	SetBasePenThickness(m_pAndrewsTool, nThickness);

  00226	8b 4e 54	 mov	 ecx, DWORD PTR [esi+84]

; 901  : 	if(pTool == NULL)

  00229	85 c9		 test	 ecx, ecx
  0022b	74 14		 je	 SHORT $LN63@SetBasePen

; 902  : 		return;
; 903  : 
; 904  : 	pTool->GetElementCommonEnvironment().GetPen().SetWidth(nThickness);

  0022d	57		 push	 edi
  0022e	e8 00 00 00 00	 call	 ?GetElementCommonEnvironment@CTool@@QAEAAVCElementCommonEnvironment@@XZ ; CTool::GetElementCommonEnvironment
  00233	8b c8		 mov	 ecx, eax
  00235	e8 00 00 00 00	 call	 ?GetPen@CElementCommonEnvironment@@QAEAAVCPenEnvironment@@XZ ; CElementCommonEnvironment::GetPen
  0023a	8b c8		 mov	 ecx, eax
  0023c	e8 00 00 00 00	 call	 ?SetWidth@CPenEnvironment@@QAEXH@Z ; CPenEnvironment::SetWidth
$LN63@SetBasePen:

; 428  : 	SetBasePenThickness(m_pCycleLinesTool, nThickness);

  00241	8b 4e 58	 mov	 ecx, DWORD PTR [esi+88]

; 901  : 	if(pTool == NULL)

  00244	85 c9		 test	 ecx, ecx
  00246	74 14		 je	 SHORT $LN66@SetBasePen

; 902  : 		return;
; 903  : 
; 904  : 	pTool->GetElementCommonEnvironment().GetPen().SetWidth(nThickness);

  00248	57		 push	 edi
  00249	e8 00 00 00 00	 call	 ?GetElementCommonEnvironment@CTool@@QAEAAVCElementCommonEnvironment@@XZ ; CTool::GetElementCommonEnvironment
  0024e	8b c8		 mov	 ecx, eax
  00250	e8 00 00 00 00	 call	 ?GetPen@CElementCommonEnvironment@@QAEAAVCPenEnvironment@@XZ ; CElementCommonEnvironment::GetPen
  00255	8b c8		 mov	 ecx, eax
  00257	e8 00 00 00 00	 call	 ?SetWidth@CPenEnvironment@@QAEXH@Z ; CPenEnvironment::SetWidth
$LN66@SetBasePen:

; 429  : 	SetBasePenThickness(m_pSpeedLineTool, nThickness);

  0025c	8b 4e 5c	 mov	 ecx, DWORD PTR [esi+92]

; 901  : 	if(pTool == NULL)

  0025f	85 c9		 test	 ecx, ecx
  00261	74 14		 je	 SHORT $LN69@SetBasePen

; 902  : 		return;
; 903  : 
; 904  : 	pTool->GetElementCommonEnvironment().GetPen().SetWidth(nThickness);

  00263	57		 push	 edi
  00264	e8 00 00 00 00	 call	 ?GetElementCommonEnvironment@CTool@@QAEAAVCElementCommonEnvironment@@XZ ; CTool::GetElementCommonEnvironment
  00269	8b c8		 mov	 ecx, eax
  0026b	e8 00 00 00 00	 call	 ?GetPen@CElementCommonEnvironment@@QAEAAVCPenEnvironment@@XZ ; CElementCommonEnvironment::GetPen
  00270	8b c8		 mov	 ecx, eax
  00272	e8 00 00 00 00	 call	 ?SetWidth@CPenEnvironment@@QAEXH@Z ; CPenEnvironment::SetWidth
$LN69@SetBasePen:

; 430  : 	SetBasePenThickness(m_pSpeedFanTool, nThickness);

  00277	8b 4e 60	 mov	 ecx, DWORD PTR [esi+96]

; 901  : 	if(pTool == NULL)

  0027a	85 c9		 test	 ecx, ecx
  0027c	74 14		 je	 SHORT $LN72@SetBasePen

; 902  : 		return;
; 903  : 
; 904  : 	pTool->GetElementCommonEnvironment().GetPen().SetWidth(nThickness);

  0027e	57		 push	 edi
  0027f	e8 00 00 00 00	 call	 ?GetElementCommonEnvironment@CTool@@QAEAAVCElementCommonEnvironment@@XZ ; CTool::GetElementCommonEnvironment
  00284	8b c8		 mov	 ecx, eax
  00286	e8 00 00 00 00	 call	 ?GetPen@CElementCommonEnvironment@@QAEAAVCPenEnvironment@@XZ ; CElementCommonEnvironment::GetPen
  0028b	8b c8		 mov	 ecx, eax
  0028d	e8 00 00 00 00	 call	 ?SetWidth@CPenEnvironment@@QAEXH@Z ; CPenEnvironment::SetWidth
$LN72@SetBasePen:

; 431  : 	SetBasePenThickness(m_pSpeedArcTool, nThickness);

  00292	8b 4e 64	 mov	 ecx, DWORD PTR [esi+100]

; 901  : 	if(pTool == NULL)

  00295	85 c9		 test	 ecx, ecx
  00297	74 14		 je	 SHORT $LN75@SetBasePen

; 902  : 		return;
; 903  : 
; 904  : 	pTool->GetElementCommonEnvironment().GetPen().SetWidth(nThickness);

  00299	57		 push	 edi
  0029a	e8 00 00 00 00	 call	 ?GetElementCommonEnvironment@CTool@@QAEAAVCElementCommonEnvironment@@XZ ; CTool::GetElementCommonEnvironment
  0029f	8b c8		 mov	 ecx, eax
  002a1	e8 00 00 00 00	 call	 ?GetPen@CElementCommonEnvironment@@QAEAAVCPenEnvironment@@XZ ; CElementCommonEnvironment::GetPen
  002a6	8b c8		 mov	 ecx, eax
  002a8	e8 00 00 00 00	 call	 ?SetWidth@CPenEnvironment@@QAEXH@Z ; CPenEnvironment::SetWidth
$LN75@SetBasePen:

; 432  : 	SetBasePenThickness(m_pLinearRegressionTool, nThickness);

  002ad	8b 4e 68	 mov	 ecx, DWORD PTR [esi+104]

; 901  : 	if(pTool == NULL)

  002b0	85 c9		 test	 ecx, ecx
  002b2	74 14		 je	 SHORT $LN78@SetBasePen

; 902  : 		return;
; 903  : 
; 904  : 	pTool->GetElementCommonEnvironment().GetPen().SetWidth(nThickness);

  002b4	57		 push	 edi
  002b5	e8 00 00 00 00	 call	 ?GetElementCommonEnvironment@CTool@@QAEAAVCElementCommonEnvironment@@XZ ; CTool::GetElementCommonEnvironment
  002ba	8b c8		 mov	 ecx, eax
  002bc	e8 00 00 00 00	 call	 ?GetPen@CElementCommonEnvironment@@QAEAAVCPenEnvironment@@XZ ; CElementCommonEnvironment::GetPen
  002c1	8b c8		 mov	 ecx, eax
  002c3	e8 00 00 00 00	 call	 ?SetWidth@CPenEnvironment@@QAEXH@Z ; CPenEnvironment::SetWidth
$LN78@SetBasePen:

; 433  : 	SetBasePenThickness(m_pRaffRegressionTool, nThickness);

  002c8	8b 4e 6c	 mov	 ecx, DWORD PTR [esi+108]

; 901  : 	if(pTool == NULL)

  002cb	85 c9		 test	 ecx, ecx
  002cd	74 14		 je	 SHORT $LN81@SetBasePen

; 902  : 		return;
; 903  : 
; 904  : 	pTool->GetElementCommonEnvironment().GetPen().SetWidth(nThickness);

  002cf	57		 push	 edi
  002d0	e8 00 00 00 00	 call	 ?GetElementCommonEnvironment@CTool@@QAEAAVCElementCommonEnvironment@@XZ ; CTool::GetElementCommonEnvironment
  002d5	8b c8		 mov	 ecx, eax
  002d7	e8 00 00 00 00	 call	 ?GetPen@CElementCommonEnvironment@@QAEAAVCPenEnvironment@@XZ ; CElementCommonEnvironment::GetPen
  002dc	8b c8		 mov	 ecx, eax
  002de	e8 00 00 00 00	 call	 ?SetWidth@CPenEnvironment@@QAEXH@Z ; CPenEnvironment::SetWidth
$LN81@SetBasePen:

; 434  : 	SetBasePenThickness(m_pAngleLineTool, nThickness);

  002e3	8b 4e 70	 mov	 ecx, DWORD PTR [esi+112]

; 901  : 	if(pTool == NULL)

  002e6	85 c9		 test	 ecx, ecx
  002e8	74 14		 je	 SHORT $LN84@SetBasePen

; 902  : 		return;
; 903  : 
; 904  : 	pTool->GetElementCommonEnvironment().GetPen().SetWidth(nThickness);

  002ea	57		 push	 edi
  002eb	e8 00 00 00 00	 call	 ?GetElementCommonEnvironment@CTool@@QAEAAVCElementCommonEnvironment@@XZ ; CTool::GetElementCommonEnvironment
  002f0	8b c8		 mov	 ecx, eax
  002f2	e8 00 00 00 00	 call	 ?GetPen@CElementCommonEnvironment@@QAEAAVCPenEnvironment@@XZ ; CElementCommonEnvironment::GetPen
  002f7	8b c8		 mov	 ecx, eax
  002f9	e8 00 00 00 00	 call	 ?SetWidth@CPenEnvironment@@QAEXH@Z ; CPenEnvironment::SetWidth
$LN84@SetBasePen:

; 435  : 	SetBasePenThickness(m_pCandleLineTool, nThickness);

  002fe	8b 4e 74	 mov	 ecx, DWORD PTR [esi+116]

; 901  : 	if(pTool == NULL)

  00301	85 c9		 test	 ecx, ecx
  00303	74 14		 je	 SHORT $LN87@SetBasePen

; 902  : 		return;
; 903  : 
; 904  : 	pTool->GetElementCommonEnvironment().GetPen().SetWidth(nThickness);

  00305	57		 push	 edi
  00306	e8 00 00 00 00	 call	 ?GetElementCommonEnvironment@CTool@@QAEAAVCElementCommonEnvironment@@XZ ; CTool::GetElementCommonEnvironment
  0030b	8b c8		 mov	 ecx, eax
  0030d	e8 00 00 00 00	 call	 ?GetPen@CElementCommonEnvironment@@QAEAAVCPenEnvironment@@XZ ; CElementCommonEnvironment::GetPen
  00312	8b c8		 mov	 ecx, eax
  00314	e8 00 00 00 00	 call	 ?SetWidth@CPenEnvironment@@QAEXH@Z ; CPenEnvironment::SetWidth
$LN87@SetBasePen:

; 436  : 	SetBasePenThickness(m_pCandleBongTool, nThickness);

  00319	8b 4e 78	 mov	 ecx, DWORD PTR [esi+120]

; 901  : 	if(pTool == NULL)

  0031c	85 c9		 test	 ecx, ecx
  0031e	74 14		 je	 SHORT $LN90@SetBasePen

; 902  : 		return;
; 903  : 
; 904  : 	pTool->GetElementCommonEnvironment().GetPen().SetWidth(nThickness);

  00320	57		 push	 edi
  00321	e8 00 00 00 00	 call	 ?GetElementCommonEnvironment@CTool@@QAEAAVCElementCommonEnvironment@@XZ ; CTool::GetElementCommonEnvironment
  00326	8b c8		 mov	 ecx, eax
  00328	e8 00 00 00 00	 call	 ?GetPen@CElementCommonEnvironment@@QAEAAVCPenEnvironment@@XZ ; CElementCommonEnvironment::GetPen
  0032d	8b c8		 mov	 ecx, eax
  0032f	e8 00 00 00 00	 call	 ?SetWidth@CPenEnvironment@@QAEXH@Z ; CPenEnvironment::SetWidth
$LN90@SetBasePen:

; 437  : 	SetBasePenThickness(m_pPencilLineTool, nThickness);

  00334	8b 4e 7c	 mov	 ecx, DWORD PTR [esi+124]

; 901  : 	if(pTool == NULL)

  00337	85 c9		 test	 ecx, ecx
  00339	74 14		 je	 SHORT $LN93@SetBasePen

; 902  : 		return;
; 903  : 
; 904  : 	pTool->GetElementCommonEnvironment().GetPen().SetWidth(nThickness);

  0033b	57		 push	 edi
  0033c	e8 00 00 00 00	 call	 ?GetElementCommonEnvironment@CTool@@QAEAAVCElementCommonEnvironment@@XZ ; CTool::GetElementCommonEnvironment
  00341	8b c8		 mov	 ecx, eax
  00343	e8 00 00 00 00	 call	 ?GetPen@CElementCommonEnvironment@@QAEAAVCPenEnvironment@@XZ ; CElementCommonEnvironment::GetPen
  00348	8b c8		 mov	 ecx, eax
  0034a	e8 00 00 00 00	 call	 ?SetWidth@CPenEnvironment@@QAEXH@Z ; CPenEnvironment::SetWidth
$LN93@SetBasePen:

; 438  : 	SetBasePenThickness(m_pPeriodLineTool, nThickness);

  0034f	8b 8e 80 00 00
	00		 mov	 ecx, DWORD PTR [esi+128]

; 901  : 	if(pTool == NULL)

  00355	85 c9		 test	 ecx, ecx
  00357	74 14		 je	 SHORT $LN96@SetBasePen

; 902  : 		return;
; 903  : 
; 904  : 	pTool->GetElementCommonEnvironment().GetPen().SetWidth(nThickness);

  00359	57		 push	 edi
  0035a	e8 00 00 00 00	 call	 ?GetElementCommonEnvironment@CTool@@QAEAAVCElementCommonEnvironment@@XZ ; CTool::GetElementCommonEnvironment
  0035f	8b c8		 mov	 ecx, eax
  00361	e8 00 00 00 00	 call	 ?GetPen@CElementCommonEnvironment@@QAEAAVCPenEnvironment@@XZ ; CElementCommonEnvironment::GetPen
  00366	8b c8		 mov	 ecx, eax
  00368	e8 00 00 00 00	 call	 ?SetWidth@CPenEnvironment@@QAEXH@Z ; CPenEnvironment::SetWidth
$LN96@SetBasePen:

; 439  : 	SetBasePenThickness(m_pElliotLineTool, nThickness);

  0036d	8b 8e 84 00 00
	00		 mov	 ecx, DWORD PTR [esi+132]

; 901  : 	if(pTool == NULL)

  00373	85 c9		 test	 ecx, ecx
  00375	74 14		 je	 SHORT $LN99@SetBasePen

; 902  : 		return;
; 903  : 
; 904  : 	pTool->GetElementCommonEnvironment().GetPen().SetWidth(nThickness);

  00377	57		 push	 edi
  00378	e8 00 00 00 00	 call	 ?GetElementCommonEnvironment@CTool@@QAEAAVCElementCommonEnvironment@@XZ ; CTool::GetElementCommonEnvironment
  0037d	8b c8		 mov	 ecx, eax
  0037f	e8 00 00 00 00	 call	 ?GetPen@CElementCommonEnvironment@@QAEAAVCPenEnvironment@@XZ ; CElementCommonEnvironment::GetPen
  00384	8b c8		 mov	 ecx, eax
  00386	e8 00 00 00 00	 call	 ?SetWidth@CPenEnvironment@@QAEXH@Z ; CPenEnvironment::SetWidth
$LN99@SetBasePen:

; 440  : 	SetBasePenThickness(m_pAdjustRatioTool, nThickness);

  0038b	8b 8e 88 00 00
	00		 mov	 ecx, DWORD PTR [esi+136]

; 901  : 	if(pTool == NULL)

  00391	85 c9		 test	 ecx, ecx
  00393	74 14		 je	 SHORT $LN102@SetBasePen

; 902  : 		return;
; 903  : 
; 904  : 	pTool->GetElementCommonEnvironment().GetPen().SetWidth(nThickness);

  00395	57		 push	 edi
  00396	e8 00 00 00 00	 call	 ?GetElementCommonEnvironment@CTool@@QAEAAVCElementCommonEnvironment@@XZ ; CTool::GetElementCommonEnvironment
  0039b	8b c8		 mov	 ecx, eax
  0039d	e8 00 00 00 00	 call	 ?GetPen@CElementCommonEnvironment@@QAEAAVCPenEnvironment@@XZ ; CElementCommonEnvironment::GetPen
  003a2	8b c8		 mov	 ecx, eax
  003a4	e8 00 00 00 00	 call	 ?SetWidth@CPenEnvironment@@QAEXH@Z ; CPenEnvironment::SetWidth
$LN102@SetBasePen:

; 441  : 
; 442  : 	SetBasePenThickness(m_pBalanceBasicTool, nThickness);	// 2014.09.24  : 0010862: [7111]    []  IBK   

  003a9	8b 8e 8c 00 00
	00		 mov	 ecx, DWORD PTR [esi+140]

; 901  : 	if(pTool == NULL)

  003af	85 c9		 test	 ecx, ecx
  003b1	74 14		 je	 SHORT $LN105@SetBasePen

; 902  : 		return;
; 903  : 
; 904  : 	pTool->GetElementCommonEnvironment().GetPen().SetWidth(nThickness);

  003b3	57		 push	 edi
  003b4	e8 00 00 00 00	 call	 ?GetElementCommonEnvironment@CTool@@QAEAAVCElementCommonEnvironment@@XZ ; CTool::GetElementCommonEnvironment
  003b9	8b c8		 mov	 ecx, eax
  003bb	e8 00 00 00 00	 call	 ?GetPen@CElementCommonEnvironment@@QAEAAVCPenEnvironment@@XZ ; CElementCommonEnvironment::GetPen
  003c0	8b c8		 mov	 ecx, eax
  003c2	e8 00 00 00 00	 call	 ?SetWidth@CPenEnvironment@@QAEXH@Z ; CPenEnvironment::SetWidth
$LN105@SetBasePen:
  003c7	5f		 pop	 edi

; 443  : }

  003c8	5e		 pop	 esi
  003c9	5d		 pop	 ebp
  003ca	c2 04 00	 ret	 4
?SetBasePenThickness@CToolSingleton@@QAEXH@Z ENDP	; CToolSingleton::SetBasePenThickness
_TEXT	ENDS
; Function compile flags: /Ogtp
; File D:\git\src\IBK\IBK_DRFN\ProjSrc\SrcChartEx\ChartAddIn\ChartAnalysisToolAddIn\AnalysisTool\ToolSingleton.cpp
;	COMDAT ?SetBasePenColor@CToolSingleton@@QAEXABK@Z
_TEXT	SEGMENT
_color$ = 8						; size = 4
?SetBasePenColor@CToolSingleton@@QAEXABK@Z PROC		; CToolSingleton::SetBasePenColor, COMDAT
; _this$ = ecx

; 362  : {

  00000	55		 push	 ebp
  00001	8b ec		 mov	 ebp, esp
  00003	56		 push	 esi
  00004	8b f1		 mov	 esi, ecx
  00006	57		 push	 edi

; 893  : 	if(pTool == NULL)

  00007	8b 7d 08	 mov	 edi, DWORD PTR _color$[ebp]

; 363  : 	SetBasePenColor(m_pSelectingTool, color);

  0000a	8b 4e 04	 mov	 ecx, DWORD PTR [esi+4]

; 893  : 	if(pTool == NULL)

  0000d	85 c9		 test	 ecx, ecx
  0000f	74 06		 je	 SHORT $LN3@SetBasePen

; 894  : 		return;
; 895  : 
; 896  : 	pTool->SetPenColor(color);

  00011	57		 push	 edi
  00012	e8 00 00 00 00	 call	 ?SetPenColor@CTool@@QAEXABK@Z ; CTool::SetPenColor
$LN3@SetBasePen:

; 364  : 	SetBasePenColor(m_pCrossLineMoveTool, color);

  00017	8b 4e 08	 mov	 ecx, DWORD PTR [esi+8]

; 893  : 	if(pTool == NULL)

  0001a	85 c9		 test	 ecx, ecx
  0001c	74 06		 je	 SHORT $LN6@SetBasePen

; 894  : 		return;
; 895  : 
; 896  : 	pTool->SetPenColor(color);

  0001e	57		 push	 edi
  0001f	e8 00 00 00 00	 call	 ?SetPenColor@CTool@@QAEXABK@Z ; CTool::SetPenColor
$LN6@SetBasePen:

; 365  : 	SetBasePenColor(m_pCrossLineDownTool, color);

  00024	8b 4e 0c	 mov	 ecx, DWORD PTR [esi+12]

; 893  : 	if(pTool == NULL)

  00027	85 c9		 test	 ecx, ecx
  00029	74 06		 je	 SHORT $LN9@SetBasePen

; 894  : 		return;
; 895  : 
; 896  : 	pTool->SetPenColor(color);

  0002b	57		 push	 edi
  0002c	e8 00 00 00 00	 call	 ?SetPenColor@CTool@@QAEXABK@Z ; CTool::SetPenColor
$LN9@SetBasePen:

; 366  : 	SetBasePenColor(m_pVertLineTool, color);

  00031	8b 4e 10	 mov	 ecx, DWORD PTR [esi+16]

; 893  : 	if(pTool == NULL)

  00034	85 c9		 test	 ecx, ecx
  00036	74 06		 je	 SHORT $LN12@SetBasePen

; 894  : 		return;
; 895  : 
; 896  : 	pTool->SetPenColor(color);

  00038	57		 push	 edi
  00039	e8 00 00 00 00	 call	 ?SetPenColor@CTool@@QAEXABK@Z ; CTool::SetPenColor
$LN12@SetBasePen:

; 367  : 	SetBasePenColor(m_pHorzLineTool, color);

  0003e	8b 4e 14	 mov	 ecx, DWORD PTR [esi+20]

; 893  : 	if(pTool == NULL)

  00041	85 c9		 test	 ecx, ecx
  00043	74 06		 je	 SHORT $LN15@SetBasePen

; 894  : 		return;
; 895  : 
; 896  : 	pTool->SetPenColor(color);

  00045	57		 push	 edi
  00046	e8 00 00 00 00	 call	 ?SetPenColor@CTool@@QAEXABK@Z ; CTool::SetPenColor
$LN15@SetBasePen:

; 368  : 
; 369  : 	SetBasePenColor( m_pLineTool, color);

  0004b	8b 4e 18	 mov	 ecx, DWORD PTR [esi+24]

; 893  : 	if(pTool == NULL)

  0004e	85 c9		 test	 ecx, ecx
  00050	74 06		 je	 SHORT $LN18@SetBasePen

; 894  : 		return;
; 895  : 
; 896  : 	pTool->SetPenColor(color);

  00052	57		 push	 edi
  00053	e8 00 00 00 00	 call	 ?SetPenColor@CTool@@QAEXABK@Z ; CTool::SetPenColor
$LN18@SetBasePen:

; 370  : 
; 371  : 	SetBasePenColor(m_pTrisectionLineTool, color);

  00058	8b 4e 1c	 mov	 ecx, DWORD PTR [esi+28]

; 893  : 	if(pTool == NULL)

  0005b	85 c9		 test	 ecx, ecx
  0005d	74 06		 je	 SHORT $LN21@SetBasePen

; 894  : 		return;
; 895  : 
; 896  : 	pTool->SetPenColor(color);

  0005f	57		 push	 edi
  00060	e8 00 00 00 00	 call	 ?SetPenColor@CTool@@QAEXABK@Z ; CTool::SetPenColor
$LN21@SetBasePen:

; 372  : 	SetBasePenColor(m_pQuadrisectLineTool, color);

  00065	8b 4e 20	 mov	 ecx, DWORD PTR [esi+32]

; 893  : 	if(pTool == NULL)

  00068	85 c9		 test	 ecx, ecx
  0006a	74 06		 je	 SHORT $LN24@SetBasePen

; 894  : 		return;
; 895  : 
; 896  : 	pTool->SetPenColor(color);

  0006c	57		 push	 edi
  0006d	e8 00 00 00 00	 call	 ?SetPenColor@CTool@@QAEXABK@Z ; CTool::SetPenColor
$LN24@SetBasePen:

; 373  : 	SetBasePenColor(m_pFiboSemicircleTool, color);

  00072	8b 4e 24	 mov	 ecx, DWORD PTR [esi+36]

; 893  : 	if(pTool == NULL)

  00075	85 c9		 test	 ecx, ecx
  00077	74 06		 je	 SHORT $LN27@SetBasePen

; 894  : 		return;
; 895  : 
; 896  : 	pTool->SetPenColor(color);

  00079	57		 push	 edi
  0007a	e8 00 00 00 00	 call	 ?SetPenColor@CTool@@QAEXABK@Z ; CTool::SetPenColor
$LN27@SetBasePen:

; 374  : 	SetBasePenColor(m_pFiboCircleTool, color);

  0007f	8b 4e 28	 mov	 ecx, DWORD PTR [esi+40]

; 893  : 	if(pTool == NULL)

  00082	85 c9		 test	 ecx, ecx
  00084	74 06		 je	 SHORT $LN30@SetBasePen

; 894  : 		return;
; 895  : 
; 896  : 	pTool->SetPenColor(color);

  00086	57		 push	 edi
  00087	e8 00 00 00 00	 call	 ?SetPenColor@CTool@@QAEXABK@Z ; CTool::SetPenColor
$LN30@SetBasePen:

; 375  : 	SetBasePenColor(m_pFiboPenLineTool, color);

  0008c	8b 4e 2c	 mov	 ecx, DWORD PTR [esi+44]

; 893  : 	if(pTool == NULL)

  0008f	85 c9		 test	 ecx, ecx
  00091	74 06		 je	 SHORT $LN33@SetBasePen

; 894  : 		return;
; 895  : 
; 896  : 	pTool->SetPenColor(color);

  00093	57		 push	 edi
  00094	e8 00 00 00 00	 call	 ?SetPenColor@CTool@@QAEXABK@Z ; CTool::SetPenColor
$LN33@SetBasePen:

; 376  : 	SetBasePenColor(m_pFiboRetraceTool, color);

  00099	8b 4e 30	 mov	 ecx, DWORD PTR [esi+48]

; 893  : 	if(pTool == NULL)

  0009c	85 c9		 test	 ecx, ecx
  0009e	74 06		 je	 SHORT $LN36@SetBasePen

; 894  : 		return;
; 895  : 
; 896  : 	pTool->SetPenColor(color);

  000a0	57		 push	 edi
  000a1	e8 00 00 00 00	 call	 ?SetPenColor@CTool@@QAEXABK@Z ; CTool::SetPenColor
$LN36@SetBasePen:

; 377  : 	SetBasePenColor(m_pFiboTimeTool, color);

  000a6	8b 4e 34	 mov	 ecx, DWORD PTR [esi+52]

; 893  : 	if(pTool == NULL)

  000a9	85 c9		 test	 ecx, ecx
  000ab	74 06		 je	 SHORT $LN39@SetBasePen

; 894  : 		return;
; 895  : 
; 896  : 	pTool->SetPenColor(color);

  000ad	57		 push	 edi
  000ae	e8 00 00 00 00	 call	 ?SetPenColor@CTool@@QAEXABK@Z ; CTool::SetPenColor
$LN39@SetBasePen:

; 378  : 	SetBasePenColor(m_pGannLine45Tool, color);

  000b3	8b 4e 38	 mov	 ecx, DWORD PTR [esi+56]

; 893  : 	if(pTool == NULL)

  000b6	85 c9		 test	 ecx, ecx
  000b8	74 06		 je	 SHORT $LN42@SetBasePen

; 894  : 		return;
; 895  : 
; 896  : 	pTool->SetPenColor(color);

  000ba	57		 push	 edi
  000bb	e8 00 00 00 00	 call	 ?SetPenColor@CTool@@QAEXABK@Z ; CTool::SetPenColor
$LN42@SetBasePen:

; 379  : 	SetBasePenColor(m_pGannLine315Tool, color);

  000c0	8b 4e 3c	 mov	 ecx, DWORD PTR [esi+60]

; 893  : 	if(pTool == NULL)

  000c3	85 c9		 test	 ecx, ecx
  000c5	74 06		 je	 SHORT $LN45@SetBasePen

; 894  : 		return;
; 895  : 
; 896  : 	pTool->SetPenColor(color);

  000c7	57		 push	 edi
  000c8	e8 00 00 00 00	 call	 ?SetPenColor@CTool@@QAEXABK@Z ; CTool::SetPenColor
$LN45@SetBasePen:

; 380  : 	SetBasePenColor(m_pGannFan45Tool, color);

  000cd	8b 4e 40	 mov	 ecx, DWORD PTR [esi+64]

; 893  : 	if(pTool == NULL)

  000d0	85 c9		 test	 ecx, ecx
  000d2	74 06		 je	 SHORT $LN48@SetBasePen

; 894  : 		return;
; 895  : 
; 896  : 	pTool->SetPenColor(color);

  000d4	57		 push	 edi
  000d5	e8 00 00 00 00	 call	 ?SetPenColor@CTool@@QAEXABK@Z ; CTool::SetPenColor
$LN48@SetBasePen:

; 381  : 	SetBasePenColor(m_pGannFan135Tool, color);

  000da	8b 4e 44	 mov	 ecx, DWORD PTR [esi+68]

; 893  : 	if(pTool == NULL)

  000dd	85 c9		 test	 ecx, ecx
  000df	74 06		 je	 SHORT $LN51@SetBasePen

; 894  : 		return;
; 895  : 
; 896  : 	pTool->SetPenColor(color);

  000e1	57		 push	 edi
  000e2	e8 00 00 00 00	 call	 ?SetPenColor@CTool@@QAEXABK@Z ; CTool::SetPenColor
$LN51@SetBasePen:

; 382  : 	SetBasePenColor(m_pGannFan225Tool, color);

  000e7	8b 4e 48	 mov	 ecx, DWORD PTR [esi+72]

; 893  : 	if(pTool == NULL)

  000ea	85 c9		 test	 ecx, ecx
  000ec	74 06		 je	 SHORT $LN54@SetBasePen

; 894  : 		return;
; 895  : 
; 896  : 	pTool->SetPenColor(color);

  000ee	57		 push	 edi
  000ef	e8 00 00 00 00	 call	 ?SetPenColor@CTool@@QAEXABK@Z ; CTool::SetPenColor
$LN54@SetBasePen:

; 383  : 	SetBasePenColor(m_pGannFan315Tool, color);

  000f4	8b 4e 4c	 mov	 ecx, DWORD PTR [esi+76]

; 893  : 	if(pTool == NULL)

  000f7	85 c9		 test	 ecx, ecx
  000f9	74 06		 je	 SHORT $LN57@SetBasePen

; 894  : 		return;
; 895  : 
; 896  : 	pTool->SetPenColor(color);

  000fb	57		 push	 edi
  000fc	e8 00 00 00 00	 call	 ?SetPenColor@CTool@@QAEXABK@Z ; CTool::SetPenColor
$LN57@SetBasePen:

; 384  : 	SetBasePenColor(m_pGannGridTool, color);

  00101	8b 4e 50	 mov	 ecx, DWORD PTR [esi+80]

; 893  : 	if(pTool == NULL)

  00104	85 c9		 test	 ecx, ecx
  00106	74 06		 je	 SHORT $LN60@SetBasePen

; 894  : 		return;
; 895  : 
; 896  : 	pTool->SetPenColor(color);

  00108	57		 push	 edi
  00109	e8 00 00 00 00	 call	 ?SetPenColor@CTool@@QAEXABK@Z ; CTool::SetPenColor
$LN60@SetBasePen:

; 385  : 	SetBasePenColor(m_pAndrewsTool, color);

  0010e	8b 4e 54	 mov	 ecx, DWORD PTR [esi+84]

; 893  : 	if(pTool == NULL)

  00111	85 c9		 test	 ecx, ecx
  00113	74 06		 je	 SHORT $LN63@SetBasePen

; 894  : 		return;
; 895  : 
; 896  : 	pTool->SetPenColor(color);

  00115	57		 push	 edi
  00116	e8 00 00 00 00	 call	 ?SetPenColor@CTool@@QAEXABK@Z ; CTool::SetPenColor
$LN63@SetBasePen:

; 386  : 	SetBasePenColor(m_pCycleLinesTool, color);

  0011b	8b 4e 58	 mov	 ecx, DWORD PTR [esi+88]

; 893  : 	if(pTool == NULL)

  0011e	85 c9		 test	 ecx, ecx
  00120	74 06		 je	 SHORT $LN66@SetBasePen

; 894  : 		return;
; 895  : 
; 896  : 	pTool->SetPenColor(color);

  00122	57		 push	 edi
  00123	e8 00 00 00 00	 call	 ?SetPenColor@CTool@@QAEXABK@Z ; CTool::SetPenColor
$LN66@SetBasePen:

; 387  : 	SetBasePenColor(m_pSpeedLineTool, color);

  00128	8b 4e 5c	 mov	 ecx, DWORD PTR [esi+92]

; 893  : 	if(pTool == NULL)

  0012b	85 c9		 test	 ecx, ecx
  0012d	74 06		 je	 SHORT $LN69@SetBasePen

; 894  : 		return;
; 895  : 
; 896  : 	pTool->SetPenColor(color);

  0012f	57		 push	 edi
  00130	e8 00 00 00 00	 call	 ?SetPenColor@CTool@@QAEXABK@Z ; CTool::SetPenColor
$LN69@SetBasePen:

; 388  : 	SetBasePenColor(m_pSpeedFanTool, color);

  00135	8b 4e 60	 mov	 ecx, DWORD PTR [esi+96]

; 893  : 	if(pTool == NULL)

  00138	85 c9		 test	 ecx, ecx
  0013a	74 06		 je	 SHORT $LN72@SetBasePen

; 894  : 		return;
; 895  : 
; 896  : 	pTool->SetPenColor(color);

  0013c	57		 push	 edi
  0013d	e8 00 00 00 00	 call	 ?SetPenColor@CTool@@QAEXABK@Z ; CTool::SetPenColor
$LN72@SetBasePen:

; 389  : 	SetBasePenColor(m_pSpeedArcTool, color);

  00142	8b 4e 64	 mov	 ecx, DWORD PTR [esi+100]

; 893  : 	if(pTool == NULL)

  00145	85 c9		 test	 ecx, ecx
  00147	74 06		 je	 SHORT $LN75@SetBasePen

; 894  : 		return;
; 895  : 
; 896  : 	pTool->SetPenColor(color);

  00149	57		 push	 edi
  0014a	e8 00 00 00 00	 call	 ?SetPenColor@CTool@@QAEXABK@Z ; CTool::SetPenColor
$LN75@SetBasePen:

; 390  : 	SetBasePenColor(m_pLinearRegressionTool, color);

  0014f	8b 4e 68	 mov	 ecx, DWORD PTR [esi+104]

; 893  : 	if(pTool == NULL)

  00152	85 c9		 test	 ecx, ecx
  00154	74 06		 je	 SHORT $LN78@SetBasePen

; 894  : 		return;
; 895  : 
; 896  : 	pTool->SetPenColor(color);

  00156	57		 push	 edi
  00157	e8 00 00 00 00	 call	 ?SetPenColor@CTool@@QAEXABK@Z ; CTool::SetPenColor
$LN78@SetBasePen:

; 391  : 	SetBasePenColor(m_pRaffRegressionTool, color);

  0015c	8b 4e 6c	 mov	 ecx, DWORD PTR [esi+108]

; 893  : 	if(pTool == NULL)

  0015f	85 c9		 test	 ecx, ecx
  00161	74 06		 je	 SHORT $LN81@SetBasePen

; 894  : 		return;
; 895  : 
; 896  : 	pTool->SetPenColor(color);

  00163	57		 push	 edi
  00164	e8 00 00 00 00	 call	 ?SetPenColor@CTool@@QAEXABK@Z ; CTool::SetPenColor
$LN81@SetBasePen:

; 392  : 	SetBasePenColor(m_pAngleLineTool, color);

  00169	8b 4e 70	 mov	 ecx, DWORD PTR [esi+112]

; 893  : 	if(pTool == NULL)

  0016c	85 c9		 test	 ecx, ecx
  0016e	74 06		 je	 SHORT $LN84@SetBasePen

; 894  : 		return;
; 895  : 
; 896  : 	pTool->SetPenColor(color);

  00170	57		 push	 edi
  00171	e8 00 00 00 00	 call	 ?SetPenColor@CTool@@QAEXABK@Z ; CTool::SetPenColor
$LN84@SetBasePen:

; 393  : 	SetBasePenColor(m_pCandleLineTool, color);

  00176	8b 4e 74	 mov	 ecx, DWORD PTR [esi+116]

; 893  : 	if(pTool == NULL)

  00179	85 c9		 test	 ecx, ecx
  0017b	74 06		 je	 SHORT $LN87@SetBasePen

; 894  : 		return;
; 895  : 
; 896  : 	pTool->SetPenColor(color);

  0017d	57		 push	 edi
  0017e	e8 00 00 00 00	 call	 ?SetPenColor@CTool@@QAEXABK@Z ; CTool::SetPenColor
$LN87@SetBasePen:

; 394  : 	SetBasePenColor(m_pCandleBongTool, color);

  00183	8b 4e 78	 mov	 ecx, DWORD PTR [esi+120]

; 893  : 	if(pTool == NULL)

  00186	85 c9		 test	 ecx, ecx
  00188	74 06		 je	 SHORT $LN90@SetBasePen

; 894  : 		return;
; 895  : 
; 896  : 	pTool->SetPenColor(color);

  0018a	57		 push	 edi
  0018b	e8 00 00 00 00	 call	 ?SetPenColor@CTool@@QAEXABK@Z ; CTool::SetPenColor
$LN90@SetBasePen:

; 395  : 	SetBasePenColor(m_pPencilLineTool, color);

  00190	8b 4e 7c	 mov	 ecx, DWORD PTR [esi+124]

; 893  : 	if(pTool == NULL)

  00193	85 c9		 test	 ecx, ecx
  00195	74 06		 je	 SHORT $LN93@SetBasePen

; 894  : 		return;
; 895  : 
; 896  : 	pTool->SetPenColor(color);

  00197	57		 push	 edi
  00198	e8 00 00 00 00	 call	 ?SetPenColor@CTool@@QAEXABK@Z ; CTool::SetPenColor
$LN93@SetBasePen:

; 396  : 	SetBasePenColor(m_pPeriodLineTool, color);

  0019d	8b 8e 80 00 00
	00		 mov	 ecx, DWORD PTR [esi+128]

; 893  : 	if(pTool == NULL)

  001a3	85 c9		 test	 ecx, ecx
  001a5	74 06		 je	 SHORT $LN96@SetBasePen

; 894  : 		return;
; 895  : 
; 896  : 	pTool->SetPenColor(color);

  001a7	57		 push	 edi
  001a8	e8 00 00 00 00	 call	 ?SetPenColor@CTool@@QAEXABK@Z ; CTool::SetPenColor
$LN96@SetBasePen:

; 397  : 	SetBasePenColor(m_pElliotLineTool, color);

  001ad	8b 8e 84 00 00
	00		 mov	 ecx, DWORD PTR [esi+132]

; 893  : 	if(pTool == NULL)

  001b3	85 c9		 test	 ecx, ecx
  001b5	74 06		 je	 SHORT $LN99@SetBasePen

; 894  : 		return;
; 895  : 
; 896  : 	pTool->SetPenColor(color);

  001b7	57		 push	 edi
  001b8	e8 00 00 00 00	 call	 ?SetPenColor@CTool@@QAEXABK@Z ; CTool::SetPenColor
$LN99@SetBasePen:

; 398  : 	SetBasePenColor(m_pAdjustRatioTool, color);

  001bd	8b 8e 88 00 00
	00		 mov	 ecx, DWORD PTR [esi+136]

; 893  : 	if(pTool == NULL)

  001c3	85 c9		 test	 ecx, ecx
  001c5	74 06		 je	 SHORT $LN102@SetBasePen

; 894  : 		return;
; 895  : 
; 896  : 	pTool->SetPenColor(color);

  001c7	57		 push	 edi
  001c8	e8 00 00 00 00	 call	 ?SetPenColor@CTool@@QAEXABK@Z ; CTool::SetPenColor
$LN102@SetBasePen:

; 399  : 
; 400  : 	SetBasePenColor(m_pBalanceBasicTool, color);	// 2014.09.24  : 0010862: [7111]    []  IBK   

  001cd	8b 8e 8c 00 00
	00		 mov	 ecx, DWORD PTR [esi+140]

; 893  : 	if(pTool == NULL)

  001d3	85 c9		 test	 ecx, ecx
  001d5	74 06		 je	 SHORT $LN105@SetBasePen

; 894  : 		return;
; 895  : 
; 896  : 	pTool->SetPenColor(color);

  001d7	57		 push	 edi
  001d8	e8 00 00 00 00	 call	 ?SetPenColor@CTool@@QAEXABK@Z ; CTool::SetPenColor
$LN105@SetBasePen:
  001dd	5f		 pop	 edi

; 401  : }

  001de	5e		 pop	 esi
  001df	5d		 pop	 ebp
  001e0	c2 04 00	 ret	 4
?SetBasePenColor@CToolSingleton@@QAEXABK@Z ENDP		; CToolSingleton::SetBasePenColor
_TEXT	ENDS
; Function compile flags: /Ogtp
; File D:\git\src\IBK\IBK_DRFN\ProjSrc\SrcChartEx\ChartAddIn\ChartAnalysisToolAddIn\AnalysisTool\ToolSingleton.cpp
;	COMDAT ?SetBaseColor@CToolSingleton@@QAEXABK0@Z
_TEXT	SEGMENT
_pTool$1$ = 8						; size = 4
_pTool$1$ = 8						; size = 4
_pTool$1$ = 8						; size = 4
_pTool$1$ = 8						; size = 4
_pTool$1$ = 8						; size = 4
_pTool$1$ = 8						; size = 4
_pTool$1$ = 8						; size = 4
_pTool$1$ = 8						; size = 4
_pTool$1$ = 8						; size = 4
_pTool$1$ = 8						; size = 4
_pTool$1$ = 8						; size = 4
_pTool$1$ = 8						; size = 4
_pTool$1$ = 8						; size = 4
_pTool$1$ = 8						; size = 4
_pTool$1$ = 8						; size = 4
_pTool$1$ = 8						; size = 4
_pTool$1$ = 8						; size = 4
_pTool$1$ = 8						; size = 4
_pTool$1$ = 8						; size = 4
_pTool$1$ = 8						; size = 4
_pTool$1$ = 8						; size = 4
_pTool$1$ = 8						; size = 4
_pTool$1$ = 8						; size = 4
_pTool$1$ = 8						; size = 4
_pTool$1$ = 8						; size = 4
_pTool$1$ = 8						; size = 4
_pTool$1$ = 8						; size = 4
_pTool$1$ = 8						; size = 4
_pTool$1$ = 8						; size = 4
_pTool$1$ = 8						; size = 4
_penColor$ = 8						; size = 4
_textColor$ = 12					; size = 4
?SetBaseColor@CToolSingleton@@QAEXABK0@Z PROC		; CToolSingleton::SetBaseColor, COMDAT
; _this$ = ecx

; 318  : {

  00000	55		 push	 ebp
  00001	8b ec		 mov	 ebp, esp
  00003	53		 push	 ebx
  00004	56		 push	 esi
  00005	8b f1		 mov	 esi, ecx
  00007	57		 push	 edi

; 893  : 	if(pTool == NULL)

  00008	8b 7d 08	 mov	 edi, DWORD PTR _penColor$[ebp]

; 319  : 	// Text Color  Tool
; 320  : 	SetBasePenColor(m_pCrossLineMoveTool, penColor);

  0000b	8b 4e 08	 mov	 ecx, DWORD PTR [esi+8]

; 893  : 	if(pTool == NULL)

  0000e	85 c9		 test	 ecx, ecx
  00010	74 06		 je	 SHORT $LN3@SetBaseCol

; 894  : 		return;
; 895  : 
; 896  : 	pTool->SetPenColor(color);

  00012	57		 push	 edi
  00013	e8 00 00 00 00	 call	 ?SetPenColor@CTool@@QAEXABK@Z ; CTool::SetPenColor
$LN3@SetBaseCol:

; 321  : 	SetBasePenColor(m_pCrossLineDownTool, penColor);

  00018	8b 4e 0c	 mov	 ecx, DWORD PTR [esi+12]

; 893  : 	if(pTool == NULL)

  0001b	85 c9		 test	 ecx, ecx
  0001d	74 06		 je	 SHORT $LN6@SetBaseCol

; 894  : 		return;
; 895  : 
; 896  : 	pTool->SetPenColor(color);

  0001f	57		 push	 edi
  00020	e8 00 00 00 00	 call	 ?SetPenColor@CTool@@QAEXABK@Z ; CTool::SetPenColor
$LN6@SetBaseCol:

; 322  : 	SetBasePenColor(m_pVertLineTool, penColor);

  00025	8b 4e 10	 mov	 ecx, DWORD PTR [esi+16]

; 893  : 	if(pTool == NULL)

  00028	85 c9		 test	 ecx, ecx
  0002a	74 06		 je	 SHORT $LN9@SetBaseCol

; 894  : 		return;
; 895  : 
; 896  : 	pTool->SetPenColor(color);

  0002c	57		 push	 edi
  0002d	e8 00 00 00 00	 call	 ?SetPenColor@CTool@@QAEXABK@Z ; CTool::SetPenColor
$LN9@SetBaseCol:

; 323  : 	SetBasePenColor(m_pHorzLineTool, penColor);

  00032	8b 4e 14	 mov	 ecx, DWORD PTR [esi+20]

; 893  : 	if(pTool == NULL)

  00035	85 c9		 test	 ecx, ecx
  00037	74 06		 je	 SHORT $LN12@SetBaseCol

; 894  : 		return;
; 895  : 
; 896  : 	pTool->SetPenColor(color);

  00039	57		 push	 edi
  0003a	e8 00 00 00 00	 call	 ?SetPenColor@CTool@@QAEXABK@Z ; CTool::SetPenColor
$LN12@SetBaseCol:

; 324  : 
; 325  : 	// Text Color   Tool
; 326  : 	SetBaseColor(m_pSelectingTool, penColor, textColor);

  0003f	8b 46 04	 mov	 eax, DWORD PTR [esi+4]

; 884  : 	if(pTool == NULL)

  00042	8b 5d 0c	 mov	 ebx, DWORD PTR _textColor$[ebp]

; 324  : 
; 325  : 	// Text Color   Tool
; 326  : 	SetBaseColor(m_pSelectingTool, penColor, textColor);

  00045	89 45 08	 mov	 DWORD PTR _pTool$1$[ebp], eax

; 884  : 	if(pTool == NULL)

  00048	85 c0		 test	 eax, eax
  0004a	74 11		 je	 SHORT $LN15@SetBaseCol

; 885  : 		return;
; 886  : 
; 887  : 	pTool->SetPenColor(penColor);

  0004c	57		 push	 edi
  0004d	8b c8		 mov	 ecx, eax
  0004f	e8 00 00 00 00	 call	 ?SetPenColor@CTool@@QAEXABK@Z ; CTool::SetPenColor

; 888  : 	pTool->SetTextColor(textColor);

  00054	8b 4d 08	 mov	 ecx, DWORD PTR _pTool$1$[ebp]
  00057	53		 push	 ebx
  00058	e8 00 00 00 00	 call	 ?SetTextColor@CTool@@QAEXABK@Z ; CTool::SetTextColor
$LN15@SetBaseCol:

; 327  : 	SetBaseColor( m_pLineTool, penColor, textColor);

  0005d	8b 46 18	 mov	 eax, DWORD PTR [esi+24]
  00060	89 45 08	 mov	 DWORD PTR _pTool$1$[ebp], eax

; 884  : 	if(pTool == NULL)

  00063	85 c0		 test	 eax, eax
  00065	74 11		 je	 SHORT $LN18@SetBaseCol

; 885  : 		return;
; 886  : 
; 887  : 	pTool->SetPenColor(penColor);

  00067	57		 push	 edi
  00068	8b c8		 mov	 ecx, eax
  0006a	e8 00 00 00 00	 call	 ?SetPenColor@CTool@@QAEXABK@Z ; CTool::SetPenColor

; 888  : 	pTool->SetTextColor(textColor);

  0006f	8b 4d 08	 mov	 ecx, DWORD PTR _pTool$1$[ebp]
  00072	53		 push	 ebx
  00073	e8 00 00 00 00	 call	 ?SetTextColor@CTool@@QAEXABK@Z ; CTool::SetTextColor
$LN18@SetBaseCol:

; 328  : 
; 329  : 	SetBaseColor(m_pTrisectionLineTool, penColor, textColor);

  00078	8b 46 1c	 mov	 eax, DWORD PTR [esi+28]
  0007b	89 45 08	 mov	 DWORD PTR _pTool$1$[ebp], eax

; 884  : 	if(pTool == NULL)

  0007e	85 c0		 test	 eax, eax
  00080	74 11		 je	 SHORT $LN21@SetBaseCol

; 885  : 		return;
; 886  : 
; 887  : 	pTool->SetPenColor(penColor);

  00082	57		 push	 edi
  00083	8b c8		 mov	 ecx, eax
  00085	e8 00 00 00 00	 call	 ?SetPenColor@CTool@@QAEXABK@Z ; CTool::SetPenColor

; 888  : 	pTool->SetTextColor(textColor);

  0008a	8b 4d 08	 mov	 ecx, DWORD PTR _pTool$1$[ebp]
  0008d	53		 push	 ebx
  0008e	e8 00 00 00 00	 call	 ?SetTextColor@CTool@@QAEXABK@Z ; CTool::SetTextColor
$LN21@SetBaseCol:

; 330  : 	SetBaseColor(m_pQuadrisectLineTool, penColor, textColor);

  00093	8b 46 20	 mov	 eax, DWORD PTR [esi+32]
  00096	89 45 08	 mov	 DWORD PTR _pTool$1$[ebp], eax

; 884  : 	if(pTool == NULL)

  00099	85 c0		 test	 eax, eax
  0009b	74 11		 je	 SHORT $LN24@SetBaseCol

; 885  : 		return;
; 886  : 
; 887  : 	pTool->SetPenColor(penColor);

  0009d	57		 push	 edi
  0009e	8b c8		 mov	 ecx, eax
  000a0	e8 00 00 00 00	 call	 ?SetPenColor@CTool@@QAEXABK@Z ; CTool::SetPenColor

; 888  : 	pTool->SetTextColor(textColor);

  000a5	8b 4d 08	 mov	 ecx, DWORD PTR _pTool$1$[ebp]
  000a8	53		 push	 ebx
  000a9	e8 00 00 00 00	 call	 ?SetTextColor@CTool@@QAEXABK@Z ; CTool::SetTextColor
$LN24@SetBaseCol:

; 331  : 	SetBaseColor(m_pFiboSemicircleTool, penColor, textColor);

  000ae	8b 46 24	 mov	 eax, DWORD PTR [esi+36]
  000b1	89 45 08	 mov	 DWORD PTR _pTool$1$[ebp], eax

; 884  : 	if(pTool == NULL)

  000b4	85 c0		 test	 eax, eax
  000b6	74 11		 je	 SHORT $LN27@SetBaseCol

; 885  : 		return;
; 886  : 
; 887  : 	pTool->SetPenColor(penColor);

  000b8	57		 push	 edi
  000b9	8b c8		 mov	 ecx, eax
  000bb	e8 00 00 00 00	 call	 ?SetPenColor@CTool@@QAEXABK@Z ; CTool::SetPenColor

; 888  : 	pTool->SetTextColor(textColor);

  000c0	8b 4d 08	 mov	 ecx, DWORD PTR _pTool$1$[ebp]
  000c3	53		 push	 ebx
  000c4	e8 00 00 00 00	 call	 ?SetTextColor@CTool@@QAEXABK@Z ; CTool::SetTextColor
$LN27@SetBaseCol:

; 332  : 	SetBaseColor(m_pFiboCircleTool, penColor, textColor);

  000c9	8b 46 28	 mov	 eax, DWORD PTR [esi+40]
  000cc	89 45 08	 mov	 DWORD PTR _pTool$1$[ebp], eax

; 884  : 	if(pTool == NULL)

  000cf	85 c0		 test	 eax, eax
  000d1	74 11		 je	 SHORT $LN30@SetBaseCol

; 885  : 		return;
; 886  : 
; 887  : 	pTool->SetPenColor(penColor);

  000d3	57		 push	 edi
  000d4	8b c8		 mov	 ecx, eax
  000d6	e8 00 00 00 00	 call	 ?SetPenColor@CTool@@QAEXABK@Z ; CTool::SetPenColor

; 888  : 	pTool->SetTextColor(textColor);

  000db	8b 4d 08	 mov	 ecx, DWORD PTR _pTool$1$[ebp]
  000de	53		 push	 ebx
  000df	e8 00 00 00 00	 call	 ?SetTextColor@CTool@@QAEXABK@Z ; CTool::SetTextColor
$LN30@SetBaseCol:

; 333  : 	SetBaseColor(m_pFiboPenLineTool, penColor, textColor);

  000e4	8b 46 2c	 mov	 eax, DWORD PTR [esi+44]
  000e7	89 45 08	 mov	 DWORD PTR _pTool$1$[ebp], eax

; 884  : 	if(pTool == NULL)

  000ea	85 c0		 test	 eax, eax
  000ec	74 11		 je	 SHORT $LN33@SetBaseCol

; 885  : 		return;
; 886  : 
; 887  : 	pTool->SetPenColor(penColor);

  000ee	57		 push	 edi
  000ef	8b c8		 mov	 ecx, eax
  000f1	e8 00 00 00 00	 call	 ?SetPenColor@CTool@@QAEXABK@Z ; CTool::SetPenColor

; 888  : 	pTool->SetTextColor(textColor);

  000f6	8b 4d 08	 mov	 ecx, DWORD PTR _pTool$1$[ebp]
  000f9	53		 push	 ebx
  000fa	e8 00 00 00 00	 call	 ?SetTextColor@CTool@@QAEXABK@Z ; CTool::SetTextColor
$LN33@SetBaseCol:

; 334  : 	SetBaseColor(m_pFiboRetraceTool, penColor, textColor);

  000ff	8b 46 30	 mov	 eax, DWORD PTR [esi+48]
  00102	89 45 08	 mov	 DWORD PTR _pTool$1$[ebp], eax

; 884  : 	if(pTool == NULL)

  00105	85 c0		 test	 eax, eax
  00107	74 11		 je	 SHORT $LN36@SetBaseCol

; 885  : 		return;
; 886  : 
; 887  : 	pTool->SetPenColor(penColor);

  00109	57		 push	 edi
  0010a	8b c8		 mov	 ecx, eax
  0010c	e8 00 00 00 00	 call	 ?SetPenColor@CTool@@QAEXABK@Z ; CTool::SetPenColor

; 888  : 	pTool->SetTextColor(textColor);

  00111	8b 4d 08	 mov	 ecx, DWORD PTR _pTool$1$[ebp]
  00114	53		 push	 ebx
  00115	e8 00 00 00 00	 call	 ?SetTextColor@CTool@@QAEXABK@Z ; CTool::SetTextColor
$LN36@SetBaseCol:

; 335  : 	SetBaseColor(m_pFiboTimeTool, penColor, textColor);

  0011a	8b 46 34	 mov	 eax, DWORD PTR [esi+52]
  0011d	89 45 08	 mov	 DWORD PTR _pTool$1$[ebp], eax

; 884  : 	if(pTool == NULL)

  00120	85 c0		 test	 eax, eax
  00122	74 11		 je	 SHORT $LN39@SetBaseCol

; 885  : 		return;
; 886  : 
; 887  : 	pTool->SetPenColor(penColor);

  00124	57		 push	 edi
  00125	8b c8		 mov	 ecx, eax
  00127	e8 00 00 00 00	 call	 ?SetPenColor@CTool@@QAEXABK@Z ; CTool::SetPenColor

; 888  : 	pTool->SetTextColor(textColor);

  0012c	8b 4d 08	 mov	 ecx, DWORD PTR _pTool$1$[ebp]
  0012f	53		 push	 ebx
  00130	e8 00 00 00 00	 call	 ?SetTextColor@CTool@@QAEXABK@Z ; CTool::SetTextColor
$LN39@SetBaseCol:

; 336  : 	SetBaseColor(m_pGannLine45Tool, penColor, textColor);

  00135	8b 46 38	 mov	 eax, DWORD PTR [esi+56]
  00138	89 45 08	 mov	 DWORD PTR _pTool$1$[ebp], eax

; 884  : 	if(pTool == NULL)

  0013b	85 c0		 test	 eax, eax
  0013d	74 11		 je	 SHORT $LN42@SetBaseCol

; 885  : 		return;
; 886  : 
; 887  : 	pTool->SetPenColor(penColor);

  0013f	57		 push	 edi
  00140	8b c8		 mov	 ecx, eax
  00142	e8 00 00 00 00	 call	 ?SetPenColor@CTool@@QAEXABK@Z ; CTool::SetPenColor

; 888  : 	pTool->SetTextColor(textColor);

  00147	8b 4d 08	 mov	 ecx, DWORD PTR _pTool$1$[ebp]
  0014a	53		 push	 ebx
  0014b	e8 00 00 00 00	 call	 ?SetTextColor@CTool@@QAEXABK@Z ; CTool::SetTextColor
$LN42@SetBaseCol:

; 337  : 	SetBaseColor(m_pGannLine315Tool, penColor, textColor);

  00150	8b 46 3c	 mov	 eax, DWORD PTR [esi+60]
  00153	89 45 08	 mov	 DWORD PTR _pTool$1$[ebp], eax

; 884  : 	if(pTool == NULL)

  00156	85 c0		 test	 eax, eax
  00158	74 11		 je	 SHORT $LN45@SetBaseCol

; 885  : 		return;
; 886  : 
; 887  : 	pTool->SetPenColor(penColor);

  0015a	57		 push	 edi
  0015b	8b c8		 mov	 ecx, eax
  0015d	e8 00 00 00 00	 call	 ?SetPenColor@CTool@@QAEXABK@Z ; CTool::SetPenColor

; 888  : 	pTool->SetTextColor(textColor);

  00162	8b 4d 08	 mov	 ecx, DWORD PTR _pTool$1$[ebp]
  00165	53		 push	 ebx
  00166	e8 00 00 00 00	 call	 ?SetTextColor@CTool@@QAEXABK@Z ; CTool::SetTextColor
$LN45@SetBaseCol:

; 338  : 	SetBaseColor(m_pGannFan45Tool, penColor, textColor);

  0016b	8b 46 40	 mov	 eax, DWORD PTR [esi+64]
  0016e	89 45 08	 mov	 DWORD PTR _pTool$1$[ebp], eax

; 884  : 	if(pTool == NULL)

  00171	85 c0		 test	 eax, eax
  00173	74 11		 je	 SHORT $LN48@SetBaseCol

; 885  : 		return;
; 886  : 
; 887  : 	pTool->SetPenColor(penColor);

  00175	57		 push	 edi
  00176	8b c8		 mov	 ecx, eax
  00178	e8 00 00 00 00	 call	 ?SetPenColor@CTool@@QAEXABK@Z ; CTool::SetPenColor

; 888  : 	pTool->SetTextColor(textColor);

  0017d	8b 4d 08	 mov	 ecx, DWORD PTR _pTool$1$[ebp]
  00180	53		 push	 ebx
  00181	e8 00 00 00 00	 call	 ?SetTextColor@CTool@@QAEXABK@Z ; CTool::SetTextColor
$LN48@SetBaseCol:

; 339  : 	SetBaseColor(m_pGannFan135Tool, penColor, textColor);

  00186	8b 46 44	 mov	 eax, DWORD PTR [esi+68]
  00189	89 45 08	 mov	 DWORD PTR _pTool$1$[ebp], eax

; 884  : 	if(pTool == NULL)

  0018c	85 c0		 test	 eax, eax
  0018e	74 11		 je	 SHORT $LN51@SetBaseCol

; 885  : 		return;
; 886  : 
; 887  : 	pTool->SetPenColor(penColor);

  00190	57		 push	 edi
  00191	8b c8		 mov	 ecx, eax
  00193	e8 00 00 00 00	 call	 ?SetPenColor@CTool@@QAEXABK@Z ; CTool::SetPenColor

; 888  : 	pTool->SetTextColor(textColor);

  00198	8b 4d 08	 mov	 ecx, DWORD PTR _pTool$1$[ebp]
  0019b	53		 push	 ebx
  0019c	e8 00 00 00 00	 call	 ?SetTextColor@CTool@@QAEXABK@Z ; CTool::SetTextColor
$LN51@SetBaseCol:

; 340  : 	SetBaseColor(m_pGannFan225Tool, penColor, textColor);

  001a1	8b 46 48	 mov	 eax, DWORD PTR [esi+72]
  001a4	89 45 08	 mov	 DWORD PTR _pTool$1$[ebp], eax

; 884  : 	if(pTool == NULL)

  001a7	85 c0		 test	 eax, eax
  001a9	74 11		 je	 SHORT $LN54@SetBaseCol

; 885  : 		return;
; 886  : 
; 887  : 	pTool->SetPenColor(penColor);

  001ab	57		 push	 edi
  001ac	8b c8		 mov	 ecx, eax
  001ae	e8 00 00 00 00	 call	 ?SetPenColor@CTool@@QAEXABK@Z ; CTool::SetPenColor

; 888  : 	pTool->SetTextColor(textColor);

  001b3	8b 4d 08	 mov	 ecx, DWORD PTR _pTool$1$[ebp]
  001b6	53		 push	 ebx
  001b7	e8 00 00 00 00	 call	 ?SetTextColor@CTool@@QAEXABK@Z ; CTool::SetTextColor
$LN54@SetBaseCol:

; 341  : 	SetBaseColor(m_pGannFan315Tool, penColor, textColor);

  001bc	8b 46 4c	 mov	 eax, DWORD PTR [esi+76]
  001bf	89 45 08	 mov	 DWORD PTR _pTool$1$[ebp], eax

; 884  : 	if(pTool == NULL)

  001c2	85 c0		 test	 eax, eax
  001c4	74 11		 je	 SHORT $LN57@SetBaseCol

; 885  : 		return;
; 886  : 
; 887  : 	pTool->SetPenColor(penColor);

  001c6	57		 push	 edi
  001c7	8b c8		 mov	 ecx, eax
  001c9	e8 00 00 00 00	 call	 ?SetPenColor@CTool@@QAEXABK@Z ; CTool::SetPenColor

; 888  : 	pTool->SetTextColor(textColor);

  001ce	8b 4d 08	 mov	 ecx, DWORD PTR _pTool$1$[ebp]
  001d1	53		 push	 ebx
  001d2	e8 00 00 00 00	 call	 ?SetTextColor@CTool@@QAEXABK@Z ; CTool::SetTextColor
$LN57@SetBaseCol:

; 342  : 	SetBaseColor(m_pGannGridTool, penColor, textColor);

  001d7	8b 46 50	 mov	 eax, DWORD PTR [esi+80]
  001da	89 45 08	 mov	 DWORD PTR _pTool$1$[ebp], eax

; 884  : 	if(pTool == NULL)

  001dd	85 c0		 test	 eax, eax
  001df	74 11		 je	 SHORT $LN60@SetBaseCol

; 885  : 		return;
; 886  : 
; 887  : 	pTool->SetPenColor(penColor);

  001e1	57		 push	 edi
  001e2	8b c8		 mov	 ecx, eax
  001e4	e8 00 00 00 00	 call	 ?SetPenColor@CTool@@QAEXABK@Z ; CTool::SetPenColor

; 888  : 	pTool->SetTextColor(textColor);

  001e9	8b 4d 08	 mov	 ecx, DWORD PTR _pTool$1$[ebp]
  001ec	53		 push	 ebx
  001ed	e8 00 00 00 00	 call	 ?SetTextColor@CTool@@QAEXABK@Z ; CTool::SetTextColor
$LN60@SetBaseCol:

; 343  : 	SetBaseColor(m_pAndrewsTool, penColor, textColor);

  001f2	8b 46 54	 mov	 eax, DWORD PTR [esi+84]
  001f5	89 45 08	 mov	 DWORD PTR _pTool$1$[ebp], eax

; 884  : 	if(pTool == NULL)

  001f8	85 c0		 test	 eax, eax
  001fa	74 11		 je	 SHORT $LN63@SetBaseCol

; 885  : 		return;
; 886  : 
; 887  : 	pTool->SetPenColor(penColor);

  001fc	57		 push	 edi
  001fd	8b c8		 mov	 ecx, eax
  001ff	e8 00 00 00 00	 call	 ?SetPenColor@CTool@@QAEXABK@Z ; CTool::SetPenColor

; 888  : 	pTool->SetTextColor(textColor);

  00204	8b 4d 08	 mov	 ecx, DWORD PTR _pTool$1$[ebp]
  00207	53		 push	 ebx
  00208	e8 00 00 00 00	 call	 ?SetTextColor@CTool@@QAEXABK@Z ; CTool::SetTextColor
$LN63@SetBaseCol:

; 344  : 	SetBaseColor(m_pCycleLinesTool, penColor, textColor);

  0020d	8b 46 58	 mov	 eax, DWORD PTR [esi+88]
  00210	89 45 08	 mov	 DWORD PTR _pTool$1$[ebp], eax

; 884  : 	if(pTool == NULL)

  00213	85 c0		 test	 eax, eax
  00215	74 11		 je	 SHORT $LN66@SetBaseCol

; 885  : 		return;
; 886  : 
; 887  : 	pTool->SetPenColor(penColor);

  00217	57		 push	 edi
  00218	8b c8		 mov	 ecx, eax
  0021a	e8 00 00 00 00	 call	 ?SetPenColor@CTool@@QAEXABK@Z ; CTool::SetPenColor

; 888  : 	pTool->SetTextColor(textColor);

  0021f	8b 4d 08	 mov	 ecx, DWORD PTR _pTool$1$[ebp]
  00222	53		 push	 ebx
  00223	e8 00 00 00 00	 call	 ?SetTextColor@CTool@@QAEXABK@Z ; CTool::SetTextColor
$LN66@SetBaseCol:

; 345  : 	SetBaseColor(m_pSpeedLineTool, penColor, textColor);

  00228	8b 46 5c	 mov	 eax, DWORD PTR [esi+92]
  0022b	89 45 08	 mov	 DWORD PTR _pTool$1$[ebp], eax

; 884  : 	if(pTool == NULL)

  0022e	85 c0		 test	 eax, eax
  00230	74 11		 je	 SHORT $LN69@SetBaseCol

; 885  : 		return;
; 886  : 
; 887  : 	pTool->SetPenColor(penColor);

  00232	57		 push	 edi
  00233	8b c8		 mov	 ecx, eax
  00235	e8 00 00 00 00	 call	 ?SetPenColor@CTool@@QAEXABK@Z ; CTool::SetPenColor

; 888  : 	pTool->SetTextColor(textColor);

  0023a	8b 4d 08	 mov	 ecx, DWORD PTR _pTool$1$[ebp]
  0023d	53		 push	 ebx
  0023e	e8 00 00 00 00	 call	 ?SetTextColor@CTool@@QAEXABK@Z ; CTool::SetTextColor
$LN69@SetBaseCol:

; 346  : 	SetBaseColor(m_pSpeedFanTool, penColor, textColor);

  00243	8b 46 60	 mov	 eax, DWORD PTR [esi+96]
  00246	89 45 08	 mov	 DWORD PTR _pTool$1$[ebp], eax

; 884  : 	if(pTool == NULL)

  00249	85 c0		 test	 eax, eax
  0024b	74 11		 je	 SHORT $LN72@SetBaseCol

; 885  : 		return;
; 886  : 
; 887  : 	pTool->SetPenColor(penColor);

  0024d	57		 push	 edi
  0024e	8b c8		 mov	 ecx, eax
  00250	e8 00 00 00 00	 call	 ?SetPenColor@CTool@@QAEXABK@Z ; CTool::SetPenColor

; 888  : 	pTool->SetTextColor(textColor);

  00255	8b 4d 08	 mov	 ecx, DWORD PTR _pTool$1$[ebp]
  00258	53		 push	 ebx
  00259	e8 00 00 00 00	 call	 ?SetTextColor@CTool@@QAEXABK@Z ; CTool::SetTextColor
$LN72@SetBaseCol:

; 347  : 	SetBaseColor(m_pSpeedArcTool, penColor, textColor);

  0025e	8b 46 64	 mov	 eax, DWORD PTR [esi+100]
  00261	89 45 08	 mov	 DWORD PTR _pTool$1$[ebp], eax

; 884  : 	if(pTool == NULL)

  00264	85 c0		 test	 eax, eax
  00266	74 11		 je	 SHORT $LN75@SetBaseCol

; 885  : 		return;
; 886  : 
; 887  : 	pTool->SetPenColor(penColor);

  00268	57		 push	 edi
  00269	8b c8		 mov	 ecx, eax
  0026b	e8 00 00 00 00	 call	 ?SetPenColor@CTool@@QAEXABK@Z ; CTool::SetPenColor

; 888  : 	pTool->SetTextColor(textColor);

  00270	8b 4d 08	 mov	 ecx, DWORD PTR _pTool$1$[ebp]
  00273	53		 push	 ebx
  00274	e8 00 00 00 00	 call	 ?SetTextColor@CTool@@QAEXABK@Z ; CTool::SetTextColor
$LN75@SetBaseCol:

; 348  : 	SetBaseColor(m_pLinearRegressionTool, penColor, textColor);

  00279	8b 46 68	 mov	 eax, DWORD PTR [esi+104]
  0027c	89 45 08	 mov	 DWORD PTR _pTool$1$[ebp], eax

; 884  : 	if(pTool == NULL)

  0027f	85 c0		 test	 eax, eax
  00281	74 11		 je	 SHORT $LN78@SetBaseCol

; 885  : 		return;
; 886  : 
; 887  : 	pTool->SetPenColor(penColor);

  00283	57		 push	 edi
  00284	8b c8		 mov	 ecx, eax
  00286	e8 00 00 00 00	 call	 ?SetPenColor@CTool@@QAEXABK@Z ; CTool::SetPenColor

; 888  : 	pTool->SetTextColor(textColor);

  0028b	8b 4d 08	 mov	 ecx, DWORD PTR _pTool$1$[ebp]
  0028e	53		 push	 ebx
  0028f	e8 00 00 00 00	 call	 ?SetTextColor@CTool@@QAEXABK@Z ; CTool::SetTextColor
$LN78@SetBaseCol:

; 349  : 	SetBaseColor(m_pRaffRegressionTool, penColor, textColor);

  00294	8b 46 6c	 mov	 eax, DWORD PTR [esi+108]
  00297	89 45 08	 mov	 DWORD PTR _pTool$1$[ebp], eax

; 884  : 	if(pTool == NULL)

  0029a	85 c0		 test	 eax, eax
  0029c	74 11		 je	 SHORT $LN81@SetBaseCol

; 885  : 		return;
; 886  : 
; 887  : 	pTool->SetPenColor(penColor);

  0029e	57		 push	 edi
  0029f	8b c8		 mov	 ecx, eax
  002a1	e8 00 00 00 00	 call	 ?SetPenColor@CTool@@QAEXABK@Z ; CTool::SetPenColor

; 888  : 	pTool->SetTextColor(textColor);

  002a6	8b 4d 08	 mov	 ecx, DWORD PTR _pTool$1$[ebp]
  002a9	53		 push	 ebx
  002aa	e8 00 00 00 00	 call	 ?SetTextColor@CTool@@QAEXABK@Z ; CTool::SetTextColor
$LN81@SetBaseCol:

; 350  : 	SetBaseColor(m_pAngleLineTool, penColor, textColor);

  002af	8b 46 70	 mov	 eax, DWORD PTR [esi+112]
  002b2	89 45 08	 mov	 DWORD PTR _pTool$1$[ebp], eax

; 884  : 	if(pTool == NULL)

  002b5	85 c0		 test	 eax, eax
  002b7	74 11		 je	 SHORT $LN84@SetBaseCol

; 885  : 		return;
; 886  : 
; 887  : 	pTool->SetPenColor(penColor);

  002b9	57		 push	 edi
  002ba	8b c8		 mov	 ecx, eax
  002bc	e8 00 00 00 00	 call	 ?SetPenColor@CTool@@QAEXABK@Z ; CTool::SetPenColor

; 888  : 	pTool->SetTextColor(textColor);

  002c1	8b 4d 08	 mov	 ecx, DWORD PTR _pTool$1$[ebp]
  002c4	53		 push	 ebx
  002c5	e8 00 00 00 00	 call	 ?SetTextColor@CTool@@QAEXABK@Z ; CTool::SetTextColor
$LN84@SetBaseCol:

; 351  : 	SetBaseColor(m_pCandleLineTool, penColor, textColor);

  002ca	8b 46 74	 mov	 eax, DWORD PTR [esi+116]
  002cd	89 45 08	 mov	 DWORD PTR _pTool$1$[ebp], eax

; 884  : 	if(pTool == NULL)

  002d0	85 c0		 test	 eax, eax
  002d2	74 11		 je	 SHORT $LN87@SetBaseCol

; 885  : 		return;
; 886  : 
; 887  : 	pTool->SetPenColor(penColor);

  002d4	57		 push	 edi
  002d5	8b c8		 mov	 ecx, eax
  002d7	e8 00 00 00 00	 call	 ?SetPenColor@CTool@@QAEXABK@Z ; CTool::SetPenColor

; 888  : 	pTool->SetTextColor(textColor);

  002dc	8b 4d 08	 mov	 ecx, DWORD PTR _pTool$1$[ebp]
  002df	53		 push	 ebx
  002e0	e8 00 00 00 00	 call	 ?SetTextColor@CTool@@QAEXABK@Z ; CTool::SetTextColor
$LN87@SetBaseCol:

; 352  : 	SetBaseColor(m_pCandleBongTool, penColor, textColor);

  002e5	8b 46 78	 mov	 eax, DWORD PTR [esi+120]
  002e8	89 45 08	 mov	 DWORD PTR _pTool$1$[ebp], eax

; 884  : 	if(pTool == NULL)

  002eb	85 c0		 test	 eax, eax
  002ed	74 11		 je	 SHORT $LN90@SetBaseCol

; 885  : 		return;
; 886  : 
; 887  : 	pTool->SetPenColor(penColor);

  002ef	57		 push	 edi
  002f0	8b c8		 mov	 ecx, eax
  002f2	e8 00 00 00 00	 call	 ?SetPenColor@CTool@@QAEXABK@Z ; CTool::SetPenColor

; 888  : 	pTool->SetTextColor(textColor);

  002f7	8b 4d 08	 mov	 ecx, DWORD PTR _pTool$1$[ebp]
  002fa	53		 push	 ebx
  002fb	e8 00 00 00 00	 call	 ?SetTextColor@CTool@@QAEXABK@Z ; CTool::SetTextColor
$LN90@SetBaseCol:

; 353  : 	SetBaseColor(m_pPencilLineTool, penColor, textColor);

  00300	8b 46 7c	 mov	 eax, DWORD PTR [esi+124]
  00303	89 45 08	 mov	 DWORD PTR _pTool$1$[ebp], eax

; 884  : 	if(pTool == NULL)

  00306	85 c0		 test	 eax, eax
  00308	74 11		 je	 SHORT $LN93@SetBaseCol

; 885  : 		return;
; 886  : 
; 887  : 	pTool->SetPenColor(penColor);

  0030a	57		 push	 edi
  0030b	8b c8		 mov	 ecx, eax
  0030d	e8 00 00 00 00	 call	 ?SetPenColor@CTool@@QAEXABK@Z ; CTool::SetPenColor

; 888  : 	pTool->SetTextColor(textColor);

  00312	8b 4d 08	 mov	 ecx, DWORD PTR _pTool$1$[ebp]
  00315	53		 push	 ebx
  00316	e8 00 00 00 00	 call	 ?SetTextColor@CTool@@QAEXABK@Z ; CTool::SetTextColor
$LN93@SetBaseCol:

; 354  : 	SetBaseColor(m_pPeriodLineTool, penColor, textColor);

  0031b	8b 86 80 00 00
	00		 mov	 eax, DWORD PTR [esi+128]
  00321	89 45 08	 mov	 DWORD PTR _pTool$1$[ebp], eax

; 884  : 	if(pTool == NULL)

  00324	85 c0		 test	 eax, eax
  00326	74 11		 je	 SHORT $LN96@SetBaseCol

; 885  : 		return;
; 886  : 
; 887  : 	pTool->SetPenColor(penColor);

  00328	57		 push	 edi
  00329	8b c8		 mov	 ecx, eax
  0032b	e8 00 00 00 00	 call	 ?SetPenColor@CTool@@QAEXABK@Z ; CTool::SetPenColor

; 888  : 	pTool->SetTextColor(textColor);

  00330	8b 4d 08	 mov	 ecx, DWORD PTR _pTool$1$[ebp]
  00333	53		 push	 ebx
  00334	e8 00 00 00 00	 call	 ?SetTextColor@CTool@@QAEXABK@Z ; CTool::SetTextColor
$LN96@SetBaseCol:

; 355  : 	SetBaseColor(m_pElliotLineTool, penColor, textColor);

  00339	8b 86 84 00 00
	00		 mov	 eax, DWORD PTR [esi+132]
  0033f	89 45 08	 mov	 DWORD PTR _pTool$1$[ebp], eax

; 884  : 	if(pTool == NULL)

  00342	85 c0		 test	 eax, eax
  00344	74 11		 je	 SHORT $LN99@SetBaseCol

; 885  : 		return;
; 886  : 
; 887  : 	pTool->SetPenColor(penColor);

  00346	57		 push	 edi
  00347	8b c8		 mov	 ecx, eax
  00349	e8 00 00 00 00	 call	 ?SetPenColor@CTool@@QAEXABK@Z ; CTool::SetPenColor

; 888  : 	pTool->SetTextColor(textColor);

  0034e	8b 4d 08	 mov	 ecx, DWORD PTR _pTool$1$[ebp]
  00351	53		 push	 ebx
  00352	e8 00 00 00 00	 call	 ?SetTextColor@CTool@@QAEXABK@Z ; CTool::SetTextColor
$LN99@SetBaseCol:

; 356  : 	SetBaseColor(m_pAdjustRatioTool, penColor, textColor);

  00357	8b 86 88 00 00
	00		 mov	 eax, DWORD PTR [esi+136]
  0035d	89 45 08	 mov	 DWORD PTR _pTool$1$[ebp], eax

; 884  : 	if(pTool == NULL)

  00360	85 c0		 test	 eax, eax
  00362	74 11		 je	 SHORT $LN102@SetBaseCol

; 885  : 		return;
; 886  : 
; 887  : 	pTool->SetPenColor(penColor);

  00364	57		 push	 edi
  00365	8b c8		 mov	 ecx, eax
  00367	e8 00 00 00 00	 call	 ?SetPenColor@CTool@@QAEXABK@Z ; CTool::SetPenColor

; 888  : 	pTool->SetTextColor(textColor);

  0036c	8b 4d 08	 mov	 ecx, DWORD PTR _pTool$1$[ebp]
  0036f	53		 push	 ebx
  00370	e8 00 00 00 00	 call	 ?SetTextColor@CTool@@QAEXABK@Z ; CTool::SetTextColor
$LN102@SetBaseCol:

; 357  : 
; 358  : 	SetBaseColor(m_pBalanceBasicTool, penColor, textColor);		// 2014.09.24  : 0010862: [7111]    []  IBK   

  00375	8b b6 8c 00 00
	00		 mov	 esi, DWORD PTR [esi+140]

; 884  : 	if(pTool == NULL)

  0037b	85 f6		 test	 esi, esi
  0037d	74 10		 je	 SHORT $LN105@SetBaseCol

; 885  : 		return;
; 886  : 
; 887  : 	pTool->SetPenColor(penColor);

  0037f	57		 push	 edi
  00380	8b ce		 mov	 ecx, esi
  00382	e8 00 00 00 00	 call	 ?SetPenColor@CTool@@QAEXABK@Z ; CTool::SetPenColor

; 888  : 	pTool->SetTextColor(textColor);

  00387	53		 push	 ebx
  00388	8b ce		 mov	 ecx, esi
  0038a	e8 00 00 00 00	 call	 ?SetTextColor@CTool@@QAEXABK@Z ; CTool::SetTextColor
$LN105@SetBaseCol:
  0038f	5f		 pop	 edi

; 359  : }

  00390	5e		 pop	 esi
  00391	5b		 pop	 ebx
  00392	5d		 pop	 ebp
  00393	c2 08 00	 ret	 8
?SetBaseColor@CToolSingleton@@QAEXABK0@Z ENDP		; CToolSingleton::SetBaseColor
_TEXT	ENDS
; Function compile flags: /Ogtp
; File D:\git\src\IBK\IBK_DRFN\ProjSrc\SrcChartEx\ChartAddIn\ChartAnalysisToolAddIn\AnalysisTool\ToolSingleton.cpp
;	COMDAT ?SetAutoPrice@CToolSingleton@@QAEX_N@Z
_TEXT	SEGMENT
_bIsAutoPrice$ = 8					; size = 1
?SetAutoPrice@CToolSingleton@@QAEX_N@Z PROC		; CToolSingleton::SetAutoPrice, COMDAT
; _this$ = ecx

; 276  : {

  00000	55		 push	 ebp
  00001	8b ec		 mov	 ebp, esp
  00003	56		 push	 esi
  00004	8b f1		 mov	 esi, ecx
  00006	57		 push	 edi

; 876  : 	if(pTool == NULL)

  00007	8b 7d 08	 mov	 edi, DWORD PTR _bIsAutoPrice$[ebp]

; 277  : 	SetAutoPrice(m_pSelectingTool, bIsAutoPrice);

  0000a	8b 4e 04	 mov	 ecx, DWORD PTR [esi+4]

; 876  : 	if(pTool == NULL)

  0000d	85 c9		 test	 ecx, ecx
  0000f	74 06		 je	 SHORT $LN3@SetAutoPri

; 877  : 		return;
; 878  : 
; 879  : 	pTool->SetAutoPrice(bIsAutoPrice);

  00011	57		 push	 edi
  00012	e8 00 00 00 00	 call	 ?SetAutoPrice@CTool@@QAEX_N@Z ; CTool::SetAutoPrice
$LN3@SetAutoPri:

; 278  : 	SetAutoPrice(m_pCrossLineMoveTool, bIsAutoPrice);

  00017	8b 4e 08	 mov	 ecx, DWORD PTR [esi+8]

; 876  : 	if(pTool == NULL)

  0001a	85 c9		 test	 ecx, ecx
  0001c	74 06		 je	 SHORT $LN6@SetAutoPri

; 877  : 		return;
; 878  : 
; 879  : 	pTool->SetAutoPrice(bIsAutoPrice);

  0001e	57		 push	 edi
  0001f	e8 00 00 00 00	 call	 ?SetAutoPrice@CTool@@QAEX_N@Z ; CTool::SetAutoPrice
$LN6@SetAutoPri:

; 279  : 	SetAutoPrice(m_pCrossLineDownTool, bIsAutoPrice);

  00024	8b 4e 0c	 mov	 ecx, DWORD PTR [esi+12]

; 876  : 	if(pTool == NULL)

  00027	85 c9		 test	 ecx, ecx
  00029	74 06		 je	 SHORT $LN9@SetAutoPri

; 877  : 		return;
; 878  : 
; 879  : 	pTool->SetAutoPrice(bIsAutoPrice);

  0002b	57		 push	 edi
  0002c	e8 00 00 00 00	 call	 ?SetAutoPrice@CTool@@QAEX_N@Z ; CTool::SetAutoPrice
$LN9@SetAutoPri:

; 280  : 	SetAutoPrice(m_pVertLineTool, bIsAutoPrice);

  00031	8b 4e 10	 mov	 ecx, DWORD PTR [esi+16]

; 876  : 	if(pTool == NULL)

  00034	85 c9		 test	 ecx, ecx
  00036	74 06		 je	 SHORT $LN12@SetAutoPri

; 877  : 		return;
; 878  : 
; 879  : 	pTool->SetAutoPrice(bIsAutoPrice);

  00038	57		 push	 edi
  00039	e8 00 00 00 00	 call	 ?SetAutoPrice@CTool@@QAEX_N@Z ; CTool::SetAutoPrice
$LN12@SetAutoPri:

; 281  : 	SetAutoPrice(m_pHorzLineTool, bIsAutoPrice);

  0003e	8b 4e 14	 mov	 ecx, DWORD PTR [esi+20]

; 876  : 	if(pTool == NULL)

  00041	85 c9		 test	 ecx, ecx
  00043	74 06		 je	 SHORT $LN15@SetAutoPri

; 877  : 		return;
; 878  : 
; 879  : 	pTool->SetAutoPrice(bIsAutoPrice);

  00045	57		 push	 edi
  00046	e8 00 00 00 00	 call	 ?SetAutoPrice@CTool@@QAEX_N@Z ; CTool::SetAutoPrice
$LN15@SetAutoPri:

; 282  : 
; 283  : 	SetAutoPrice(m_pLineTool, bIsAutoPrice);

  0004b	8b 4e 18	 mov	 ecx, DWORD PTR [esi+24]

; 876  : 	if(pTool == NULL)

  0004e	85 c9		 test	 ecx, ecx
  00050	74 06		 je	 SHORT $LN18@SetAutoPri

; 877  : 		return;
; 878  : 
; 879  : 	pTool->SetAutoPrice(bIsAutoPrice);

  00052	57		 push	 edi
  00053	e8 00 00 00 00	 call	 ?SetAutoPrice@CTool@@QAEX_N@Z ; CTool::SetAutoPrice
$LN18@SetAutoPri:

; 284  : 	
; 285  : 	SetAutoPrice(m_pTrisectionLineTool, bIsAutoPrice);

  00058	8b 4e 1c	 mov	 ecx, DWORD PTR [esi+28]

; 876  : 	if(pTool == NULL)

  0005b	85 c9		 test	 ecx, ecx
  0005d	74 06		 je	 SHORT $LN21@SetAutoPri

; 877  : 		return;
; 878  : 
; 879  : 	pTool->SetAutoPrice(bIsAutoPrice);

  0005f	57		 push	 edi
  00060	e8 00 00 00 00	 call	 ?SetAutoPrice@CTool@@QAEX_N@Z ; CTool::SetAutoPrice
$LN21@SetAutoPri:

; 286  : 	SetAutoPrice(m_pQuadrisectLineTool, bIsAutoPrice);

  00065	8b 4e 20	 mov	 ecx, DWORD PTR [esi+32]

; 876  : 	if(pTool == NULL)

  00068	85 c9		 test	 ecx, ecx
  0006a	74 06		 je	 SHORT $LN24@SetAutoPri

; 877  : 		return;
; 878  : 
; 879  : 	pTool->SetAutoPrice(bIsAutoPrice);

  0006c	57		 push	 edi
  0006d	e8 00 00 00 00	 call	 ?SetAutoPrice@CTool@@QAEX_N@Z ; CTool::SetAutoPrice
$LN24@SetAutoPri:

; 287  : 	SetAutoPrice(m_pFiboSemicircleTool, bIsAutoPrice);

  00072	8b 4e 24	 mov	 ecx, DWORD PTR [esi+36]

; 876  : 	if(pTool == NULL)

  00075	85 c9		 test	 ecx, ecx
  00077	74 06		 je	 SHORT $LN27@SetAutoPri

; 877  : 		return;
; 878  : 
; 879  : 	pTool->SetAutoPrice(bIsAutoPrice);

  00079	57		 push	 edi
  0007a	e8 00 00 00 00	 call	 ?SetAutoPrice@CTool@@QAEX_N@Z ; CTool::SetAutoPrice
$LN27@SetAutoPri:

; 288  : 	SetAutoPrice(m_pFiboCircleTool, bIsAutoPrice);

  0007f	8b 4e 28	 mov	 ecx, DWORD PTR [esi+40]

; 876  : 	if(pTool == NULL)

  00082	85 c9		 test	 ecx, ecx
  00084	74 06		 je	 SHORT $LN30@SetAutoPri

; 877  : 		return;
; 878  : 
; 879  : 	pTool->SetAutoPrice(bIsAutoPrice);

  00086	57		 push	 edi
  00087	e8 00 00 00 00	 call	 ?SetAutoPrice@CTool@@QAEX_N@Z ; CTool::SetAutoPrice
$LN30@SetAutoPri:

; 289  : 	SetAutoPrice(m_pFiboPenLineTool, bIsAutoPrice);

  0008c	8b 4e 2c	 mov	 ecx, DWORD PTR [esi+44]

; 876  : 	if(pTool == NULL)

  0008f	85 c9		 test	 ecx, ecx
  00091	74 06		 je	 SHORT $LN33@SetAutoPri

; 877  : 		return;
; 878  : 
; 879  : 	pTool->SetAutoPrice(bIsAutoPrice);

  00093	57		 push	 edi
  00094	e8 00 00 00 00	 call	 ?SetAutoPrice@CTool@@QAEX_N@Z ; CTool::SetAutoPrice
$LN33@SetAutoPri:

; 290  : 	SetAutoPrice(m_pFiboRetraceTool, bIsAutoPrice);

  00099	8b 4e 30	 mov	 ecx, DWORD PTR [esi+48]

; 876  : 	if(pTool == NULL)

  0009c	85 c9		 test	 ecx, ecx
  0009e	74 06		 je	 SHORT $LN36@SetAutoPri

; 877  : 		return;
; 878  : 
; 879  : 	pTool->SetAutoPrice(bIsAutoPrice);

  000a0	57		 push	 edi
  000a1	e8 00 00 00 00	 call	 ?SetAutoPrice@CTool@@QAEX_N@Z ; CTool::SetAutoPrice
$LN36@SetAutoPri:

; 291  : 	SetAutoPrice(m_pFiboTimeTool, bIsAutoPrice);

  000a6	8b 4e 34	 mov	 ecx, DWORD PTR [esi+52]

; 876  : 	if(pTool == NULL)

  000a9	85 c9		 test	 ecx, ecx
  000ab	74 06		 je	 SHORT $LN39@SetAutoPri

; 877  : 		return;
; 878  : 
; 879  : 	pTool->SetAutoPrice(bIsAutoPrice);

  000ad	57		 push	 edi
  000ae	e8 00 00 00 00	 call	 ?SetAutoPrice@CTool@@QAEX_N@Z ; CTool::SetAutoPrice
$LN39@SetAutoPri:

; 292  : 	SetAutoPrice(m_pGannLine45Tool, bIsAutoPrice);

  000b3	8b 4e 38	 mov	 ecx, DWORD PTR [esi+56]

; 876  : 	if(pTool == NULL)

  000b6	85 c9		 test	 ecx, ecx
  000b8	74 06		 je	 SHORT $LN42@SetAutoPri

; 877  : 		return;
; 878  : 
; 879  : 	pTool->SetAutoPrice(bIsAutoPrice);

  000ba	57		 push	 edi
  000bb	e8 00 00 00 00	 call	 ?SetAutoPrice@CTool@@QAEX_N@Z ; CTool::SetAutoPrice
$LN42@SetAutoPri:

; 293  : 	SetAutoPrice(m_pGannLine315Tool, bIsAutoPrice);

  000c0	8b 4e 3c	 mov	 ecx, DWORD PTR [esi+60]

; 876  : 	if(pTool == NULL)

  000c3	85 c9		 test	 ecx, ecx
  000c5	74 06		 je	 SHORT $LN45@SetAutoPri

; 877  : 		return;
; 878  : 
; 879  : 	pTool->SetAutoPrice(bIsAutoPrice);

  000c7	57		 push	 edi
  000c8	e8 00 00 00 00	 call	 ?SetAutoPrice@CTool@@QAEX_N@Z ; CTool::SetAutoPrice
$LN45@SetAutoPri:

; 294  : 	SetAutoPrice(m_pGannFan45Tool, bIsAutoPrice);

  000cd	8b 4e 40	 mov	 ecx, DWORD PTR [esi+64]

; 876  : 	if(pTool == NULL)

  000d0	85 c9		 test	 ecx, ecx
  000d2	74 06		 je	 SHORT $LN48@SetAutoPri

; 877  : 		return;
; 878  : 
; 879  : 	pTool->SetAutoPrice(bIsAutoPrice);

  000d4	57		 push	 edi
  000d5	e8 00 00 00 00	 call	 ?SetAutoPrice@CTool@@QAEX_N@Z ; CTool::SetAutoPrice
$LN48@SetAutoPri:

; 295  : 	SetAutoPrice(m_pGannFan135Tool, bIsAutoPrice);

  000da	8b 4e 44	 mov	 ecx, DWORD PTR [esi+68]

; 876  : 	if(pTool == NULL)

  000dd	85 c9		 test	 ecx, ecx
  000df	74 06		 je	 SHORT $LN51@SetAutoPri

; 877  : 		return;
; 878  : 
; 879  : 	pTool->SetAutoPrice(bIsAutoPrice);

  000e1	57		 push	 edi
  000e2	e8 00 00 00 00	 call	 ?SetAutoPrice@CTool@@QAEX_N@Z ; CTool::SetAutoPrice
$LN51@SetAutoPri:

; 296  : 	SetAutoPrice(m_pGannFan225Tool, bIsAutoPrice);

  000e7	8b 4e 48	 mov	 ecx, DWORD PTR [esi+72]

; 876  : 	if(pTool == NULL)

  000ea	85 c9		 test	 ecx, ecx
  000ec	74 06		 je	 SHORT $LN54@SetAutoPri

; 877  : 		return;
; 878  : 
; 879  : 	pTool->SetAutoPrice(bIsAutoPrice);

  000ee	57		 push	 edi
  000ef	e8 00 00 00 00	 call	 ?SetAutoPrice@CTool@@QAEX_N@Z ; CTool::SetAutoPrice
$LN54@SetAutoPri:

; 297  : 	SetAutoPrice(m_pGannFan315Tool, bIsAutoPrice);

  000f4	8b 4e 4c	 mov	 ecx, DWORD PTR [esi+76]

; 876  : 	if(pTool == NULL)

  000f7	85 c9		 test	 ecx, ecx
  000f9	74 06		 je	 SHORT $LN57@SetAutoPri

; 877  : 		return;
; 878  : 
; 879  : 	pTool->SetAutoPrice(bIsAutoPrice);

  000fb	57		 push	 edi
  000fc	e8 00 00 00 00	 call	 ?SetAutoPrice@CTool@@QAEX_N@Z ; CTool::SetAutoPrice
$LN57@SetAutoPri:

; 298  : 	SetAutoPrice(m_pGannGridTool, bIsAutoPrice);

  00101	8b 4e 50	 mov	 ecx, DWORD PTR [esi+80]

; 876  : 	if(pTool == NULL)

  00104	85 c9		 test	 ecx, ecx
  00106	74 06		 je	 SHORT $LN60@SetAutoPri

; 877  : 		return;
; 878  : 
; 879  : 	pTool->SetAutoPrice(bIsAutoPrice);

  00108	57		 push	 edi
  00109	e8 00 00 00 00	 call	 ?SetAutoPrice@CTool@@QAEX_N@Z ; CTool::SetAutoPrice
$LN60@SetAutoPri:

; 299  : 	SetAutoPrice(m_pAndrewsTool, bIsAutoPrice);

  0010e	8b 4e 54	 mov	 ecx, DWORD PTR [esi+84]

; 876  : 	if(pTool == NULL)

  00111	85 c9		 test	 ecx, ecx
  00113	74 06		 je	 SHORT $LN63@SetAutoPri

; 877  : 		return;
; 878  : 
; 879  : 	pTool->SetAutoPrice(bIsAutoPrice);

  00115	57		 push	 edi
  00116	e8 00 00 00 00	 call	 ?SetAutoPrice@CTool@@QAEX_N@Z ; CTool::SetAutoPrice
$LN63@SetAutoPri:

; 300  : 	SetAutoPrice(m_pCycleLinesTool, bIsAutoPrice);

  0011b	8b 4e 58	 mov	 ecx, DWORD PTR [esi+88]

; 876  : 	if(pTool == NULL)

  0011e	85 c9		 test	 ecx, ecx
  00120	74 06		 je	 SHORT $LN66@SetAutoPri

; 877  : 		return;
; 878  : 
; 879  : 	pTool->SetAutoPrice(bIsAutoPrice);

  00122	57		 push	 edi
  00123	e8 00 00 00 00	 call	 ?SetAutoPrice@CTool@@QAEX_N@Z ; CTool::SetAutoPrice
$LN66@SetAutoPri:

; 301  : 	SetAutoPrice(m_pSpeedLineTool, bIsAutoPrice);

  00128	8b 4e 5c	 mov	 ecx, DWORD PTR [esi+92]

; 876  : 	if(pTool == NULL)

  0012b	85 c9		 test	 ecx, ecx
  0012d	74 06		 je	 SHORT $LN69@SetAutoPri

; 877  : 		return;
; 878  : 
; 879  : 	pTool->SetAutoPrice(bIsAutoPrice);

  0012f	57		 push	 edi
  00130	e8 00 00 00 00	 call	 ?SetAutoPrice@CTool@@QAEX_N@Z ; CTool::SetAutoPrice
$LN69@SetAutoPri:

; 302  : 	SetAutoPrice(m_pSpeedFanTool, bIsAutoPrice);

  00135	8b 4e 60	 mov	 ecx, DWORD PTR [esi+96]

; 876  : 	if(pTool == NULL)

  00138	85 c9		 test	 ecx, ecx
  0013a	74 06		 je	 SHORT $LN72@SetAutoPri

; 877  : 		return;
; 878  : 
; 879  : 	pTool->SetAutoPrice(bIsAutoPrice);

  0013c	57		 push	 edi
  0013d	e8 00 00 00 00	 call	 ?SetAutoPrice@CTool@@QAEX_N@Z ; CTool::SetAutoPrice
$LN72@SetAutoPri:

; 303  : 	SetAutoPrice(m_pSpeedArcTool, bIsAutoPrice);

  00142	8b 4e 64	 mov	 ecx, DWORD PTR [esi+100]

; 876  : 	if(pTool == NULL)

  00145	85 c9		 test	 ecx, ecx
  00147	74 06		 je	 SHORT $LN75@SetAutoPri

; 877  : 		return;
; 878  : 
; 879  : 	pTool->SetAutoPrice(bIsAutoPrice);

  00149	57		 push	 edi
  0014a	e8 00 00 00 00	 call	 ?SetAutoPrice@CTool@@QAEX_N@Z ; CTool::SetAutoPrice
$LN75@SetAutoPri:

; 304  : 	SetAutoPrice(m_pLinearRegressionTool, bIsAutoPrice);

  0014f	8b 4e 68	 mov	 ecx, DWORD PTR [esi+104]

; 876  : 	if(pTool == NULL)

  00152	85 c9		 test	 ecx, ecx
  00154	74 06		 je	 SHORT $LN78@SetAutoPri

; 877  : 		return;
; 878  : 
; 879  : 	pTool->SetAutoPrice(bIsAutoPrice);

  00156	57		 push	 edi
  00157	e8 00 00 00 00	 call	 ?SetAutoPrice@CTool@@QAEX_N@Z ; CTool::SetAutoPrice
$LN78@SetAutoPri:

; 305  : 	SetAutoPrice(m_pRaffRegressionTool, bIsAutoPrice);

  0015c	8b 4e 6c	 mov	 ecx, DWORD PTR [esi+108]

; 876  : 	if(pTool == NULL)

  0015f	85 c9		 test	 ecx, ecx
  00161	74 06		 je	 SHORT $LN81@SetAutoPri

; 877  : 		return;
; 878  : 
; 879  : 	pTool->SetAutoPrice(bIsAutoPrice);

  00163	57		 push	 edi
  00164	e8 00 00 00 00	 call	 ?SetAutoPrice@CTool@@QAEX_N@Z ; CTool::SetAutoPrice
$LN81@SetAutoPri:

; 306  : 	SetAutoPrice(m_pAngleLineTool, bIsAutoPrice);

  00169	8b 4e 70	 mov	 ecx, DWORD PTR [esi+112]

; 876  : 	if(pTool == NULL)

  0016c	85 c9		 test	 ecx, ecx
  0016e	74 06		 je	 SHORT $LN84@SetAutoPri

; 877  : 		return;
; 878  : 
; 879  : 	pTool->SetAutoPrice(bIsAutoPrice);

  00170	57		 push	 edi
  00171	e8 00 00 00 00	 call	 ?SetAutoPrice@CTool@@QAEX_N@Z ; CTool::SetAutoPrice
$LN84@SetAutoPri:

; 307  : 	SetAutoPrice(m_pCandleLineTool, bIsAutoPrice);

  00176	8b 4e 74	 mov	 ecx, DWORD PTR [esi+116]

; 876  : 	if(pTool == NULL)

  00179	85 c9		 test	 ecx, ecx
  0017b	74 06		 je	 SHORT $LN87@SetAutoPri

; 877  : 		return;
; 878  : 
; 879  : 	pTool->SetAutoPrice(bIsAutoPrice);

  0017d	57		 push	 edi
  0017e	e8 00 00 00 00	 call	 ?SetAutoPrice@CTool@@QAEX_N@Z ; CTool::SetAutoPrice
$LN87@SetAutoPri:

; 308  : 	SetAutoPrice(m_pCandleBongTool, bIsAutoPrice);

  00183	8b 4e 78	 mov	 ecx, DWORD PTR [esi+120]

; 876  : 	if(pTool == NULL)

  00186	85 c9		 test	 ecx, ecx
  00188	74 06		 je	 SHORT $LN90@SetAutoPri

; 877  : 		return;
; 878  : 
; 879  : 	pTool->SetAutoPrice(bIsAutoPrice);

  0018a	57		 push	 edi
  0018b	e8 00 00 00 00	 call	 ?SetAutoPrice@CTool@@QAEX_N@Z ; CTool::SetAutoPrice
$LN90@SetAutoPri:

; 309  : 	SetAutoPrice(m_pPencilLineTool, bIsAutoPrice);

  00190	8b 4e 7c	 mov	 ecx, DWORD PTR [esi+124]

; 876  : 	if(pTool == NULL)

  00193	85 c9		 test	 ecx, ecx
  00195	74 06		 je	 SHORT $LN93@SetAutoPri

; 877  : 		return;
; 878  : 
; 879  : 	pTool->SetAutoPrice(bIsAutoPrice);

  00197	57		 push	 edi
  00198	e8 00 00 00 00	 call	 ?SetAutoPrice@CTool@@QAEX_N@Z ; CTool::SetAutoPrice
$LN93@SetAutoPri:

; 310  : 	SetAutoPrice(m_pPeriodLineTool, bIsAutoPrice);

  0019d	8b 8e 80 00 00
	00		 mov	 ecx, DWORD PTR [esi+128]

; 876  : 	if(pTool == NULL)

  001a3	85 c9		 test	 ecx, ecx
  001a5	74 06		 je	 SHORT $LN96@SetAutoPri

; 877  : 		return;
; 878  : 
; 879  : 	pTool->SetAutoPrice(bIsAutoPrice);

  001a7	57		 push	 edi
  001a8	e8 00 00 00 00	 call	 ?SetAutoPrice@CTool@@QAEX_N@Z ; CTool::SetAutoPrice
$LN96@SetAutoPri:

; 311  : 	SetAutoPrice(m_pElliotLineTool, bIsAutoPrice);

  001ad	8b 8e 84 00 00
	00		 mov	 ecx, DWORD PTR [esi+132]

; 876  : 	if(pTool == NULL)

  001b3	85 c9		 test	 ecx, ecx
  001b5	74 06		 je	 SHORT $LN99@SetAutoPri

; 877  : 		return;
; 878  : 
; 879  : 	pTool->SetAutoPrice(bIsAutoPrice);

  001b7	57		 push	 edi
  001b8	e8 00 00 00 00	 call	 ?SetAutoPrice@CTool@@QAEX_N@Z ; CTool::SetAutoPrice
$LN99@SetAutoPri:

; 312  : 	SetAutoPrice(m_pAdjustRatioTool, bIsAutoPrice);

  001bd	8b 8e 88 00 00
	00		 mov	 ecx, DWORD PTR [esi+136]

; 876  : 	if(pTool == NULL)

  001c3	85 c9		 test	 ecx, ecx
  001c5	74 06		 je	 SHORT $LN102@SetAutoPri

; 877  : 		return;
; 878  : 
; 879  : 	pTool->SetAutoPrice(bIsAutoPrice);

  001c7	57		 push	 edi
  001c8	e8 00 00 00 00	 call	 ?SetAutoPrice@CTool@@QAEX_N@Z ; CTool::SetAutoPrice
$LN102@SetAutoPri:

; 313  : 
; 314  : 	SetAutoPrice(m_pBalanceBasicTool, bIsAutoPrice);	// 2014.09.24  : 0010862: [7111]    []  IBK   

  001cd	8b 8e 8c 00 00
	00		 mov	 ecx, DWORD PTR [esi+140]

; 876  : 	if(pTool == NULL)

  001d3	85 c9		 test	 ecx, ecx
  001d5	74 06		 je	 SHORT $LN105@SetAutoPri

; 877  : 		return;
; 878  : 
; 879  : 	pTool->SetAutoPrice(bIsAutoPrice);

  001d7	57		 push	 edi
  001d8	e8 00 00 00 00	 call	 ?SetAutoPrice@CTool@@QAEX_N@Z ; CTool::SetAutoPrice
$LN105@SetAutoPri:
  001dd	5f		 pop	 edi

; 315  : }

  001de	5e		 pop	 esi
  001df	5d		 pop	 ebp
  001e0	c2 04 00	 ret	 4
?SetAutoPrice@CToolSingleton@@QAEX_N@Z ENDP		; CToolSingleton::SetAutoPrice
_TEXT	ENDS
; Function compile flags: /Ogtp
; File D:\git\src\IBK\IBK_DRFN\ProjSrc\SrcChartEx\ChartAddIn\ChartAnalysisToolAddIn\AnalysisTool\ToolSingleton.cpp
;	COMDAT ?SetCoordinateType@CToolSingleton@@QAEXW4COORDINATETYPE@CAnalysis@@@Z
_TEXT	SEGMENT
_eCoordinateType$ = 8					; size = 4
?SetCoordinateType@CToolSingleton@@QAEXW4COORDINATETYPE@CAnalysis@@@Z PROC ; CToolSingleton::SetCoordinateType, COMDAT
; _this$ = ecx

; 234  : {

  00000	55		 push	 ebp
  00001	8b ec		 mov	 ebp, esp
  00003	56		 push	 esi
  00004	8b f1		 mov	 esi, ecx
  00006	57		 push	 edi

; 868  : 	if(pTool == NULL)

  00007	8b 7d 08	 mov	 edi, DWORD PTR _eCoordinateType$[ebp]

; 235  : 	SetCoordinateType(m_pSelectingTool, eCoordinateType);

  0000a	8b 4e 04	 mov	 ecx, DWORD PTR [esi+4]

; 868  : 	if(pTool == NULL)

  0000d	85 c9		 test	 ecx, ecx
  0000f	74 06		 je	 SHORT $LN3@SetCoordin

; 869  : 		return;
; 870  : 
; 871  : 	pTool->SetCoordinateType(eCoordinateType);

  00011	57		 push	 edi
  00012	e8 00 00 00 00	 call	 ?SetCoordinateType@CTool@@QAEXW4COORDINATETYPE@CAnalysis@@@Z ; CTool::SetCoordinateType
$LN3@SetCoordin:

; 236  : 	SetCoordinateType(m_pCrossLineMoveTool, eCoordinateType);

  00017	8b 4e 08	 mov	 ecx, DWORD PTR [esi+8]

; 868  : 	if(pTool == NULL)

  0001a	85 c9		 test	 ecx, ecx
  0001c	74 06		 je	 SHORT $LN6@SetCoordin

; 869  : 		return;
; 870  : 
; 871  : 	pTool->SetCoordinateType(eCoordinateType);

  0001e	57		 push	 edi
  0001f	e8 00 00 00 00	 call	 ?SetCoordinateType@CTool@@QAEXW4COORDINATETYPE@CAnalysis@@@Z ; CTool::SetCoordinateType
$LN6@SetCoordin:

; 237  : 	SetCoordinateType(m_pCrossLineDownTool, eCoordinateType);

  00024	8b 4e 0c	 mov	 ecx, DWORD PTR [esi+12]

; 868  : 	if(pTool == NULL)

  00027	85 c9		 test	 ecx, ecx
  00029	74 06		 je	 SHORT $LN9@SetCoordin

; 869  : 		return;
; 870  : 
; 871  : 	pTool->SetCoordinateType(eCoordinateType);

  0002b	57		 push	 edi
  0002c	e8 00 00 00 00	 call	 ?SetCoordinateType@CTool@@QAEXW4COORDINATETYPE@CAnalysis@@@Z ; CTool::SetCoordinateType
$LN9@SetCoordin:

; 238  : 	SetCoordinateType(m_pVertLineTool, eCoordinateType);

  00031	8b 4e 10	 mov	 ecx, DWORD PTR [esi+16]

; 868  : 	if(pTool == NULL)

  00034	85 c9		 test	 ecx, ecx
  00036	74 06		 je	 SHORT $LN12@SetCoordin

; 869  : 		return;
; 870  : 
; 871  : 	pTool->SetCoordinateType(eCoordinateType);

  00038	57		 push	 edi
  00039	e8 00 00 00 00	 call	 ?SetCoordinateType@CTool@@QAEXW4COORDINATETYPE@CAnalysis@@@Z ; CTool::SetCoordinateType
$LN12@SetCoordin:

; 239  : 	SetCoordinateType(m_pHorzLineTool, eCoordinateType);

  0003e	8b 4e 14	 mov	 ecx, DWORD PTR [esi+20]

; 868  : 	if(pTool == NULL)

  00041	85 c9		 test	 ecx, ecx
  00043	74 06		 je	 SHORT $LN15@SetCoordin

; 869  : 		return;
; 870  : 
; 871  : 	pTool->SetCoordinateType(eCoordinateType);

  00045	57		 push	 edi
  00046	e8 00 00 00 00	 call	 ?SetCoordinateType@CTool@@QAEXW4COORDINATETYPE@CAnalysis@@@Z ; CTool::SetCoordinateType
$LN15@SetCoordin:

; 240  : 
; 241  : 	SetCoordinateType( m_pLineTool,	eCoordinateType);

  0004b	8b 4e 18	 mov	 ecx, DWORD PTR [esi+24]

; 868  : 	if(pTool == NULL)

  0004e	85 c9		 test	 ecx, ecx
  00050	74 06		 je	 SHORT $LN18@SetCoordin

; 869  : 		return;
; 870  : 
; 871  : 	pTool->SetCoordinateType(eCoordinateType);

  00052	57		 push	 edi
  00053	e8 00 00 00 00	 call	 ?SetCoordinateType@CTool@@QAEXW4COORDINATETYPE@CAnalysis@@@Z ; CTool::SetCoordinateType
$LN18@SetCoordin:

; 242  : 
; 243  : 	SetCoordinateType(m_pTrisectionLineTool, eCoordinateType);

  00058	8b 4e 1c	 mov	 ecx, DWORD PTR [esi+28]

; 868  : 	if(pTool == NULL)

  0005b	85 c9		 test	 ecx, ecx
  0005d	74 06		 je	 SHORT $LN21@SetCoordin

; 869  : 		return;
; 870  : 
; 871  : 	pTool->SetCoordinateType(eCoordinateType);

  0005f	57		 push	 edi
  00060	e8 00 00 00 00	 call	 ?SetCoordinateType@CTool@@QAEXW4COORDINATETYPE@CAnalysis@@@Z ; CTool::SetCoordinateType
$LN21@SetCoordin:

; 244  : 	SetCoordinateType(m_pQuadrisectLineTool, eCoordinateType);

  00065	8b 4e 20	 mov	 ecx, DWORD PTR [esi+32]

; 868  : 	if(pTool == NULL)

  00068	85 c9		 test	 ecx, ecx
  0006a	74 06		 je	 SHORT $LN24@SetCoordin

; 869  : 		return;
; 870  : 
; 871  : 	pTool->SetCoordinateType(eCoordinateType);

  0006c	57		 push	 edi
  0006d	e8 00 00 00 00	 call	 ?SetCoordinateType@CTool@@QAEXW4COORDINATETYPE@CAnalysis@@@Z ; CTool::SetCoordinateType
$LN24@SetCoordin:

; 245  : 	SetCoordinateType(m_pFiboSemicircleTool, eCoordinateType);

  00072	8b 4e 24	 mov	 ecx, DWORD PTR [esi+36]

; 868  : 	if(pTool == NULL)

  00075	85 c9		 test	 ecx, ecx
  00077	74 06		 je	 SHORT $LN27@SetCoordin

; 869  : 		return;
; 870  : 
; 871  : 	pTool->SetCoordinateType(eCoordinateType);

  00079	57		 push	 edi
  0007a	e8 00 00 00 00	 call	 ?SetCoordinateType@CTool@@QAEXW4COORDINATETYPE@CAnalysis@@@Z ; CTool::SetCoordinateType
$LN27@SetCoordin:

; 246  : 	SetCoordinateType(m_pFiboCircleTool, eCoordinateType);

  0007f	8b 4e 28	 mov	 ecx, DWORD PTR [esi+40]

; 868  : 	if(pTool == NULL)

  00082	85 c9		 test	 ecx, ecx
  00084	74 06		 je	 SHORT $LN30@SetCoordin

; 869  : 		return;
; 870  : 
; 871  : 	pTool->SetCoordinateType(eCoordinateType);

  00086	57		 push	 edi
  00087	e8 00 00 00 00	 call	 ?SetCoordinateType@CTool@@QAEXW4COORDINATETYPE@CAnalysis@@@Z ; CTool::SetCoordinateType
$LN30@SetCoordin:

; 247  : 	SetCoordinateType(m_pFiboPenLineTool, eCoordinateType);

  0008c	8b 4e 2c	 mov	 ecx, DWORD PTR [esi+44]

; 868  : 	if(pTool == NULL)

  0008f	85 c9		 test	 ecx, ecx
  00091	74 06		 je	 SHORT $LN33@SetCoordin

; 869  : 		return;
; 870  : 
; 871  : 	pTool->SetCoordinateType(eCoordinateType);

  00093	57		 push	 edi
  00094	e8 00 00 00 00	 call	 ?SetCoordinateType@CTool@@QAEXW4COORDINATETYPE@CAnalysis@@@Z ; CTool::SetCoordinateType
$LN33@SetCoordin:

; 248  : 	SetCoordinateType(m_pFiboRetraceTool, eCoordinateType);

  00099	8b 4e 30	 mov	 ecx, DWORD PTR [esi+48]

; 868  : 	if(pTool == NULL)

  0009c	85 c9		 test	 ecx, ecx
  0009e	74 06		 je	 SHORT $LN36@SetCoordin

; 869  : 		return;
; 870  : 
; 871  : 	pTool->SetCoordinateType(eCoordinateType);

  000a0	57		 push	 edi
  000a1	e8 00 00 00 00	 call	 ?SetCoordinateType@CTool@@QAEXW4COORDINATETYPE@CAnalysis@@@Z ; CTool::SetCoordinateType
$LN36@SetCoordin:

; 249  : 	SetCoordinateType(m_pFiboTimeTool, eCoordinateType);

  000a6	8b 4e 34	 mov	 ecx, DWORD PTR [esi+52]

; 868  : 	if(pTool == NULL)

  000a9	85 c9		 test	 ecx, ecx
  000ab	74 06		 je	 SHORT $LN39@SetCoordin

; 869  : 		return;
; 870  : 
; 871  : 	pTool->SetCoordinateType(eCoordinateType);

  000ad	57		 push	 edi
  000ae	e8 00 00 00 00	 call	 ?SetCoordinateType@CTool@@QAEXW4COORDINATETYPE@CAnalysis@@@Z ; CTool::SetCoordinateType
$LN39@SetCoordin:

; 250  : 	SetCoordinateType(m_pGannLine45Tool, eCoordinateType);

  000b3	8b 4e 38	 mov	 ecx, DWORD PTR [esi+56]

; 868  : 	if(pTool == NULL)

  000b6	85 c9		 test	 ecx, ecx
  000b8	74 06		 je	 SHORT $LN42@SetCoordin

; 869  : 		return;
; 870  : 
; 871  : 	pTool->SetCoordinateType(eCoordinateType);

  000ba	57		 push	 edi
  000bb	e8 00 00 00 00	 call	 ?SetCoordinateType@CTool@@QAEXW4COORDINATETYPE@CAnalysis@@@Z ; CTool::SetCoordinateType
$LN42@SetCoordin:

; 251  : 	SetCoordinateType(m_pGannLine315Tool, eCoordinateType);

  000c0	8b 4e 3c	 mov	 ecx, DWORD PTR [esi+60]

; 868  : 	if(pTool == NULL)

  000c3	85 c9		 test	 ecx, ecx
  000c5	74 06		 je	 SHORT $LN45@SetCoordin

; 869  : 		return;
; 870  : 
; 871  : 	pTool->SetCoordinateType(eCoordinateType);

  000c7	57		 push	 edi
  000c8	e8 00 00 00 00	 call	 ?SetCoordinateType@CTool@@QAEXW4COORDINATETYPE@CAnalysis@@@Z ; CTool::SetCoordinateType
$LN45@SetCoordin:

; 252  : 	SetCoordinateType(m_pGannFan45Tool, eCoordinateType);

  000cd	8b 4e 40	 mov	 ecx, DWORD PTR [esi+64]

; 868  : 	if(pTool == NULL)

  000d0	85 c9		 test	 ecx, ecx
  000d2	74 06		 je	 SHORT $LN48@SetCoordin

; 869  : 		return;
; 870  : 
; 871  : 	pTool->SetCoordinateType(eCoordinateType);

  000d4	57		 push	 edi
  000d5	e8 00 00 00 00	 call	 ?SetCoordinateType@CTool@@QAEXW4COORDINATETYPE@CAnalysis@@@Z ; CTool::SetCoordinateType
$LN48@SetCoordin:

; 253  : 	SetCoordinateType(m_pGannFan135Tool, eCoordinateType);

  000da	8b 4e 44	 mov	 ecx, DWORD PTR [esi+68]

; 868  : 	if(pTool == NULL)

  000dd	85 c9		 test	 ecx, ecx
  000df	74 06		 je	 SHORT $LN51@SetCoordin

; 869  : 		return;
; 870  : 
; 871  : 	pTool->SetCoordinateType(eCoordinateType);

  000e1	57		 push	 edi
  000e2	e8 00 00 00 00	 call	 ?SetCoordinateType@CTool@@QAEXW4COORDINATETYPE@CAnalysis@@@Z ; CTool::SetCoordinateType
$LN51@SetCoordin:

; 254  : 	SetCoordinateType(m_pGannFan225Tool, eCoordinateType);

  000e7	8b 4e 48	 mov	 ecx, DWORD PTR [esi+72]

; 868  : 	if(pTool == NULL)

  000ea	85 c9		 test	 ecx, ecx
  000ec	74 06		 je	 SHORT $LN54@SetCoordin

; 869  : 		return;
; 870  : 
; 871  : 	pTool->SetCoordinateType(eCoordinateType);

  000ee	57		 push	 edi
  000ef	e8 00 00 00 00	 call	 ?SetCoordinateType@CTool@@QAEXW4COORDINATETYPE@CAnalysis@@@Z ; CTool::SetCoordinateType
$LN54@SetCoordin:

; 255  : 	SetCoordinateType(m_pGannFan315Tool, eCoordinateType);

  000f4	8b 4e 4c	 mov	 ecx, DWORD PTR [esi+76]

; 868  : 	if(pTool == NULL)

  000f7	85 c9		 test	 ecx, ecx
  000f9	74 06		 je	 SHORT $LN57@SetCoordin

; 869  : 		return;
; 870  : 
; 871  : 	pTool->SetCoordinateType(eCoordinateType);

  000fb	57		 push	 edi
  000fc	e8 00 00 00 00	 call	 ?SetCoordinateType@CTool@@QAEXW4COORDINATETYPE@CAnalysis@@@Z ; CTool::SetCoordinateType
$LN57@SetCoordin:

; 256  : 	SetCoordinateType(m_pGannGridTool, eCoordinateType);

  00101	8b 4e 50	 mov	 ecx, DWORD PTR [esi+80]

; 868  : 	if(pTool == NULL)

  00104	85 c9		 test	 ecx, ecx
  00106	74 06		 je	 SHORT $LN60@SetCoordin

; 869  : 		return;
; 870  : 
; 871  : 	pTool->SetCoordinateType(eCoordinateType);

  00108	57		 push	 edi
  00109	e8 00 00 00 00	 call	 ?SetCoordinateType@CTool@@QAEXW4COORDINATETYPE@CAnalysis@@@Z ; CTool::SetCoordinateType
$LN60@SetCoordin:

; 257  : 	SetCoordinateType(m_pAndrewsTool, eCoordinateType);

  0010e	8b 4e 54	 mov	 ecx, DWORD PTR [esi+84]

; 868  : 	if(pTool == NULL)

  00111	85 c9		 test	 ecx, ecx
  00113	74 06		 je	 SHORT $LN63@SetCoordin

; 869  : 		return;
; 870  : 
; 871  : 	pTool->SetCoordinateType(eCoordinateType);

  00115	57		 push	 edi
  00116	e8 00 00 00 00	 call	 ?SetCoordinateType@CTool@@QAEXW4COORDINATETYPE@CAnalysis@@@Z ; CTool::SetCoordinateType
$LN63@SetCoordin:

; 258  : 	SetCoordinateType(m_pCycleLinesTool, eCoordinateType);

  0011b	8b 4e 58	 mov	 ecx, DWORD PTR [esi+88]

; 868  : 	if(pTool == NULL)

  0011e	85 c9		 test	 ecx, ecx
  00120	74 06		 je	 SHORT $LN66@SetCoordin

; 869  : 		return;
; 870  : 
; 871  : 	pTool->SetCoordinateType(eCoordinateType);

  00122	57		 push	 edi
  00123	e8 00 00 00 00	 call	 ?SetCoordinateType@CTool@@QAEXW4COORDINATETYPE@CAnalysis@@@Z ; CTool::SetCoordinateType
$LN66@SetCoordin:

; 259  : 	SetCoordinateType(m_pSpeedLineTool, eCoordinateType);

  00128	8b 4e 5c	 mov	 ecx, DWORD PTR [esi+92]

; 868  : 	if(pTool == NULL)

  0012b	85 c9		 test	 ecx, ecx
  0012d	74 06		 je	 SHORT $LN69@SetCoordin

; 869  : 		return;
; 870  : 
; 871  : 	pTool->SetCoordinateType(eCoordinateType);

  0012f	57		 push	 edi
  00130	e8 00 00 00 00	 call	 ?SetCoordinateType@CTool@@QAEXW4COORDINATETYPE@CAnalysis@@@Z ; CTool::SetCoordinateType
$LN69@SetCoordin:

; 260  : 	SetCoordinateType(m_pSpeedFanTool, eCoordinateType);

  00135	8b 4e 60	 mov	 ecx, DWORD PTR [esi+96]

; 868  : 	if(pTool == NULL)

  00138	85 c9		 test	 ecx, ecx
  0013a	74 06		 je	 SHORT $LN72@SetCoordin

; 869  : 		return;
; 870  : 
; 871  : 	pTool->SetCoordinateType(eCoordinateType);

  0013c	57		 push	 edi
  0013d	e8 00 00 00 00	 call	 ?SetCoordinateType@CTool@@QAEXW4COORDINATETYPE@CAnalysis@@@Z ; CTool::SetCoordinateType
$LN72@SetCoordin:

; 261  : 	SetCoordinateType(m_pSpeedArcTool, eCoordinateType);

  00142	8b 4e 64	 mov	 ecx, DWORD PTR [esi+100]

; 868  : 	if(pTool == NULL)

  00145	85 c9		 test	 ecx, ecx
  00147	74 06		 je	 SHORT $LN75@SetCoordin

; 869  : 		return;
; 870  : 
; 871  : 	pTool->SetCoordinateType(eCoordinateType);

  00149	57		 push	 edi
  0014a	e8 00 00 00 00	 call	 ?SetCoordinateType@CTool@@QAEXW4COORDINATETYPE@CAnalysis@@@Z ; CTool::SetCoordinateType
$LN75@SetCoordin:

; 262  : 	SetCoordinateType(m_pLinearRegressionTool, eCoordinateType);

  0014f	8b 4e 68	 mov	 ecx, DWORD PTR [esi+104]

; 868  : 	if(pTool == NULL)

  00152	85 c9		 test	 ecx, ecx
  00154	74 06		 je	 SHORT $LN78@SetCoordin

; 869  : 		return;
; 870  : 
; 871  : 	pTool->SetCoordinateType(eCoordinateType);

  00156	57		 push	 edi
  00157	e8 00 00 00 00	 call	 ?SetCoordinateType@CTool@@QAEXW4COORDINATETYPE@CAnalysis@@@Z ; CTool::SetCoordinateType
$LN78@SetCoordin:

; 263  : 	SetCoordinateType(m_pRaffRegressionTool, eCoordinateType);

  0015c	8b 4e 6c	 mov	 ecx, DWORD PTR [esi+108]

; 868  : 	if(pTool == NULL)

  0015f	85 c9		 test	 ecx, ecx
  00161	74 06		 je	 SHORT $LN81@SetCoordin

; 869  : 		return;
; 870  : 
; 871  : 	pTool->SetCoordinateType(eCoordinateType);

  00163	57		 push	 edi
  00164	e8 00 00 00 00	 call	 ?SetCoordinateType@CTool@@QAEXW4COORDINATETYPE@CAnalysis@@@Z ; CTool::SetCoordinateType
$LN81@SetCoordin:

; 264  : 	SetCoordinateType(m_pAngleLineTool, eCoordinateType);

  00169	8b 4e 70	 mov	 ecx, DWORD PTR [esi+112]

; 868  : 	if(pTool == NULL)

  0016c	85 c9		 test	 ecx, ecx
  0016e	74 06		 je	 SHORT $LN84@SetCoordin

; 869  : 		return;
; 870  : 
; 871  : 	pTool->SetCoordinateType(eCoordinateType);

  00170	57		 push	 edi
  00171	e8 00 00 00 00	 call	 ?SetCoordinateType@CTool@@QAEXW4COORDINATETYPE@CAnalysis@@@Z ; CTool::SetCoordinateType
$LN84@SetCoordin:

; 265  : 	SetCoordinateType(m_pCandleLineTool, eCoordinateType);

  00176	8b 4e 74	 mov	 ecx, DWORD PTR [esi+116]

; 868  : 	if(pTool == NULL)

  00179	85 c9		 test	 ecx, ecx
  0017b	74 06		 je	 SHORT $LN87@SetCoordin

; 869  : 		return;
; 870  : 
; 871  : 	pTool->SetCoordinateType(eCoordinateType);

  0017d	57		 push	 edi
  0017e	e8 00 00 00 00	 call	 ?SetCoordinateType@CTool@@QAEXW4COORDINATETYPE@CAnalysis@@@Z ; CTool::SetCoordinateType
$LN87@SetCoordin:

; 266  : 	SetCoordinateType(m_pCandleBongTool, eCoordinateType);

  00183	8b 4e 78	 mov	 ecx, DWORD PTR [esi+120]

; 868  : 	if(pTool == NULL)

  00186	85 c9		 test	 ecx, ecx
  00188	74 06		 je	 SHORT $LN90@SetCoordin

; 869  : 		return;
; 870  : 
; 871  : 	pTool->SetCoordinateType(eCoordinateType);

  0018a	57		 push	 edi
  0018b	e8 00 00 00 00	 call	 ?SetCoordinateType@CTool@@QAEXW4COORDINATETYPE@CAnalysis@@@Z ; CTool::SetCoordinateType
$LN90@SetCoordin:

; 267  : 	SetCoordinateType(m_pPencilLineTool, eCoordinateType);

  00190	8b 4e 7c	 mov	 ecx, DWORD PTR [esi+124]

; 868  : 	if(pTool == NULL)

  00193	85 c9		 test	 ecx, ecx
  00195	74 06		 je	 SHORT $LN93@SetCoordin

; 869  : 		return;
; 870  : 
; 871  : 	pTool->SetCoordinateType(eCoordinateType);

  00197	57		 push	 edi
  00198	e8 00 00 00 00	 call	 ?SetCoordinateType@CTool@@QAEXW4COORDINATETYPE@CAnalysis@@@Z ; CTool::SetCoordinateType
$LN93@SetCoordin:

; 268  : 	SetCoordinateType(m_pPeriodLineTool, eCoordinateType);

  0019d	8b 8e 80 00 00
	00		 mov	 ecx, DWORD PTR [esi+128]

; 868  : 	if(pTool == NULL)

  001a3	85 c9		 test	 ecx, ecx
  001a5	74 06		 je	 SHORT $LN96@SetCoordin

; 869  : 		return;
; 870  : 
; 871  : 	pTool->SetCoordinateType(eCoordinateType);

  001a7	57		 push	 edi
  001a8	e8 00 00 00 00	 call	 ?SetCoordinateType@CTool@@QAEXW4COORDINATETYPE@CAnalysis@@@Z ; CTool::SetCoordinateType
$LN96@SetCoordin:

; 269  : 	SetCoordinateType(m_pElliotLineTool, eCoordinateType);

  001ad	8b 8e 84 00 00
	00		 mov	 ecx, DWORD PTR [esi+132]

; 868  : 	if(pTool == NULL)

  001b3	85 c9		 test	 ecx, ecx
  001b5	74 06		 je	 SHORT $LN99@SetCoordin

; 869  : 		return;
; 870  : 
; 871  : 	pTool->SetCoordinateType(eCoordinateType);

  001b7	57		 push	 edi
  001b8	e8 00 00 00 00	 call	 ?SetCoordinateType@CTool@@QAEXW4COORDINATETYPE@CAnalysis@@@Z ; CTool::SetCoordinateType
$LN99@SetCoordin:

; 270  : 	SetCoordinateType(m_pAdjustRatioTool, eCoordinateType);

  001bd	8b 8e 88 00 00
	00		 mov	 ecx, DWORD PTR [esi+136]

; 868  : 	if(pTool == NULL)

  001c3	85 c9		 test	 ecx, ecx
  001c5	74 06		 je	 SHORT $LN102@SetCoordin

; 869  : 		return;
; 870  : 
; 871  : 	pTool->SetCoordinateType(eCoordinateType);

  001c7	57		 push	 edi
  001c8	e8 00 00 00 00	 call	 ?SetCoordinateType@CTool@@QAEXW4COORDINATETYPE@CAnalysis@@@Z ; CTool::SetCoordinateType
$LN102@SetCoordin:

; 271  : 
; 272  : 	SetCoordinateType(m_pBalanceBasicTool, eCoordinateType);	// 2014.09.24  : 0010862: [7111]    []  IBK   

  001cd	8b 8e 8c 00 00
	00		 mov	 ecx, DWORD PTR [esi+140]

; 868  : 	if(pTool == NULL)

  001d3	85 c9		 test	 ecx, ecx
  001d5	74 06		 je	 SHORT $LN105@SetCoordin

; 869  : 		return;
; 870  : 
; 871  : 	pTool->SetCoordinateType(eCoordinateType);

  001d7	57		 push	 edi
  001d8	e8 00 00 00 00	 call	 ?SetCoordinateType@CTool@@QAEXW4COORDINATETYPE@CAnalysis@@@Z ; CTool::SetCoordinateType
$LN105@SetCoordin:
  001dd	5f		 pop	 edi

; 273  : }

  001de	5e		 pop	 esi
  001df	5d		 pop	 ebp
  001e0	c2 04 00	 ret	 4
?SetCoordinateType@CToolSingleton@@QAEXW4COORDINATETYPE@CAnalysis@@@Z ENDP ; CToolSingleton::SetCoordinateType
_TEXT	ENDS
; Function compile flags: /Ogtp
; File D:\git\src\IBK\IBK_DRFN\ProjSrc\SrcChartEx\ChartAddIn\ChartAnalysisToolAddIn\AnalysisTool\ToolSingleton.cpp
;	COMDAT ?InitializeAllTool@CToolSingleton@@QAEXXZ
_TEXT	SEGMENT
?InitializeAllTool@CToolSingleton@@QAEXXZ PROC		; CToolSingleton::InitializeAllTool, COMDAT
; _this$ = ecx

; 192  : {

  00000	56		 push	 esi
  00001	8b f1		 mov	 esi, ecx

; 193  : 	InitializeTool(m_pSelectingTool);

  00003	8b 4e 04	 mov	 ecx, DWORD PTR [esi+4]

; 860  : 	if(pTool == NULL)

  00006	85 c9		 test	 ecx, ecx
  00008	74 04		 je	 SHORT $LN3@Initialize

; 861  : 		return;
; 862  : 
; 863  : 	pTool->Initialize();

  0000a	8b 01		 mov	 eax, DWORD PTR [ecx]
  0000c	ff 10		 call	 DWORD PTR [eax]
$LN3@Initialize:

; 194  : 	InitializeTool(m_pCrossLineMoveTool);

  0000e	8b 4e 08	 mov	 ecx, DWORD PTR [esi+8]

; 860  : 	if(pTool == NULL)

  00011	85 c9		 test	 ecx, ecx
  00013	74 04		 je	 SHORT $LN6@Initialize

; 861  : 		return;
; 862  : 
; 863  : 	pTool->Initialize();

  00015	8b 01		 mov	 eax, DWORD PTR [ecx]
  00017	ff 10		 call	 DWORD PTR [eax]
$LN6@Initialize:

; 195  : 	InitializeTool(m_pCrossLineDownTool);

  00019	8b 4e 0c	 mov	 ecx, DWORD PTR [esi+12]

; 860  : 	if(pTool == NULL)

  0001c	85 c9		 test	 ecx, ecx
  0001e	74 04		 je	 SHORT $LN9@Initialize

; 861  : 		return;
; 862  : 
; 863  : 	pTool->Initialize();

  00020	8b 01		 mov	 eax, DWORD PTR [ecx]
  00022	ff 10		 call	 DWORD PTR [eax]
$LN9@Initialize:

; 196  : 	InitializeTool(m_pVertLineTool);

  00024	8b 4e 10	 mov	 ecx, DWORD PTR [esi+16]

; 860  : 	if(pTool == NULL)

  00027	85 c9		 test	 ecx, ecx
  00029	74 04		 je	 SHORT $LN12@Initialize

; 861  : 		return;
; 862  : 
; 863  : 	pTool->Initialize();

  0002b	8b 01		 mov	 eax, DWORD PTR [ecx]
  0002d	ff 10		 call	 DWORD PTR [eax]
$LN12@Initialize:

; 197  : 	InitializeTool(m_pHorzLineTool);

  0002f	8b 4e 14	 mov	 ecx, DWORD PTR [esi+20]

; 860  : 	if(pTool == NULL)

  00032	85 c9		 test	 ecx, ecx
  00034	74 04		 je	 SHORT $LN15@Initialize

; 861  : 		return;
; 862  : 
; 863  : 	pTool->Initialize();

  00036	8b 01		 mov	 eax, DWORD PTR [ecx]
  00038	ff 10		 call	 DWORD PTR [eax]
$LN15@Initialize:

; 198  : 
; 199  : 	InitializeTool( m_pLineTool);

  0003a	8b 4e 18	 mov	 ecx, DWORD PTR [esi+24]

; 860  : 	if(pTool == NULL)

  0003d	85 c9		 test	 ecx, ecx
  0003f	74 04		 je	 SHORT $LN18@Initialize

; 861  : 		return;
; 862  : 
; 863  : 	pTool->Initialize();

  00041	8b 01		 mov	 eax, DWORD PTR [ecx]
  00043	ff 10		 call	 DWORD PTR [eax]
$LN18@Initialize:

; 200  : 
; 201  : 	InitializeTool(m_pTrisectionLineTool);

  00045	8b 4e 1c	 mov	 ecx, DWORD PTR [esi+28]

; 860  : 	if(pTool == NULL)

  00048	85 c9		 test	 ecx, ecx
  0004a	74 04		 je	 SHORT $LN21@Initialize

; 861  : 		return;
; 862  : 
; 863  : 	pTool->Initialize();

  0004c	8b 01		 mov	 eax, DWORD PTR [ecx]
  0004e	ff 10		 call	 DWORD PTR [eax]
$LN21@Initialize:

; 202  : 	InitializeTool(m_pQuadrisectLineTool);

  00050	8b 4e 20	 mov	 ecx, DWORD PTR [esi+32]

; 860  : 	if(pTool == NULL)

  00053	85 c9		 test	 ecx, ecx
  00055	74 04		 je	 SHORT $LN24@Initialize

; 861  : 		return;
; 862  : 
; 863  : 	pTool->Initialize();

  00057	8b 01		 mov	 eax, DWORD PTR [ecx]
  00059	ff 10		 call	 DWORD PTR [eax]
$LN24@Initialize:

; 203  : 	InitializeTool(m_pFiboSemicircleTool);

  0005b	8b 4e 24	 mov	 ecx, DWORD PTR [esi+36]

; 860  : 	if(pTool == NULL)

  0005e	85 c9		 test	 ecx, ecx
  00060	74 04		 je	 SHORT $LN27@Initialize

; 861  : 		return;
; 862  : 
; 863  : 	pTool->Initialize();

  00062	8b 01		 mov	 eax, DWORD PTR [ecx]
  00064	ff 10		 call	 DWORD PTR [eax]
$LN27@Initialize:

; 204  : 	InitializeTool(m_pFiboCircleTool);

  00066	8b 4e 28	 mov	 ecx, DWORD PTR [esi+40]

; 860  : 	if(pTool == NULL)

  00069	85 c9		 test	 ecx, ecx
  0006b	74 04		 je	 SHORT $LN30@Initialize

; 861  : 		return;
; 862  : 
; 863  : 	pTool->Initialize();

  0006d	8b 01		 mov	 eax, DWORD PTR [ecx]
  0006f	ff 10		 call	 DWORD PTR [eax]
$LN30@Initialize:

; 205  : 	InitializeTool(m_pFiboPenLineTool);

  00071	8b 4e 2c	 mov	 ecx, DWORD PTR [esi+44]

; 860  : 	if(pTool == NULL)

  00074	85 c9		 test	 ecx, ecx
  00076	74 04		 je	 SHORT $LN33@Initialize

; 861  : 		return;
; 862  : 
; 863  : 	pTool->Initialize();

  00078	8b 01		 mov	 eax, DWORD PTR [ecx]
  0007a	ff 10		 call	 DWORD PTR [eax]
$LN33@Initialize:

; 206  : 	InitializeTool(m_pFiboRetraceTool);

  0007c	8b 4e 30	 mov	 ecx, DWORD PTR [esi+48]

; 860  : 	if(pTool == NULL)

  0007f	85 c9		 test	 ecx, ecx
  00081	74 04		 je	 SHORT $LN36@Initialize

; 861  : 		return;
; 862  : 
; 863  : 	pTool->Initialize();

  00083	8b 01		 mov	 eax, DWORD PTR [ecx]
  00085	ff 10		 call	 DWORD PTR [eax]
$LN36@Initialize:

; 207  : 	InitializeTool(m_pFiboTimeTool);

  00087	8b 4e 34	 mov	 ecx, DWORD PTR [esi+52]

; 860  : 	if(pTool == NULL)

  0008a	85 c9		 test	 ecx, ecx
  0008c	74 04		 je	 SHORT $LN39@Initialize

; 861  : 		return;
; 862  : 
; 863  : 	pTool->Initialize();

  0008e	8b 01		 mov	 eax, DWORD PTR [ecx]
  00090	ff 10		 call	 DWORD PTR [eax]
$LN39@Initialize:

; 208  : 	InitializeTool(m_pGannLine45Tool);

  00092	8b 4e 38	 mov	 ecx, DWORD PTR [esi+56]

; 860  : 	if(pTool == NULL)

  00095	85 c9		 test	 ecx, ecx
  00097	74 04		 je	 SHORT $LN42@Initialize

; 861  : 		return;
; 862  : 
; 863  : 	pTool->Initialize();

  00099	8b 01		 mov	 eax, DWORD PTR [ecx]
  0009b	ff 10		 call	 DWORD PTR [eax]
$LN42@Initialize:

; 209  : 	InitializeTool(m_pGannLine315Tool);

  0009d	8b 4e 3c	 mov	 ecx, DWORD PTR [esi+60]

; 860  : 	if(pTool == NULL)

  000a0	85 c9		 test	 ecx, ecx
  000a2	74 04		 je	 SHORT $LN45@Initialize

; 861  : 		return;
; 862  : 
; 863  : 	pTool->Initialize();

  000a4	8b 01		 mov	 eax, DWORD PTR [ecx]
  000a6	ff 10		 call	 DWORD PTR [eax]
$LN45@Initialize:

; 210  : 	InitializeTool(m_pGannFan45Tool);

  000a8	8b 4e 40	 mov	 ecx, DWORD PTR [esi+64]

; 860  : 	if(pTool == NULL)

  000ab	85 c9		 test	 ecx, ecx
  000ad	74 04		 je	 SHORT $LN48@Initialize

; 861  : 		return;
; 862  : 
; 863  : 	pTool->Initialize();

  000af	8b 01		 mov	 eax, DWORD PTR [ecx]
  000b1	ff 10		 call	 DWORD PTR [eax]
$LN48@Initialize:

; 211  : 	InitializeTool(m_pGannFan135Tool);

  000b3	8b 4e 44	 mov	 ecx, DWORD PTR [esi+68]

; 860  : 	if(pTool == NULL)

  000b6	85 c9		 test	 ecx, ecx
  000b8	74 04		 je	 SHORT $LN51@Initialize

; 861  : 		return;
; 862  : 
; 863  : 	pTool->Initialize();

  000ba	8b 01		 mov	 eax, DWORD PTR [ecx]
  000bc	ff 10		 call	 DWORD PTR [eax]
$LN51@Initialize:

; 212  : 	InitializeTool(m_pGannFan225Tool);

  000be	8b 4e 48	 mov	 ecx, DWORD PTR [esi+72]

; 860  : 	if(pTool == NULL)

  000c1	85 c9		 test	 ecx, ecx
  000c3	74 04		 je	 SHORT $LN54@Initialize

; 861  : 		return;
; 862  : 
; 863  : 	pTool->Initialize();

  000c5	8b 01		 mov	 eax, DWORD PTR [ecx]
  000c7	ff 10		 call	 DWORD PTR [eax]
$LN54@Initialize:

; 213  : 	InitializeTool(m_pGannFan315Tool);

  000c9	8b 4e 4c	 mov	 ecx, DWORD PTR [esi+76]

; 860  : 	if(pTool == NULL)

  000cc	85 c9		 test	 ecx, ecx
  000ce	74 04		 je	 SHORT $LN57@Initialize

; 861  : 		return;
; 862  : 
; 863  : 	pTool->Initialize();

  000d0	8b 01		 mov	 eax, DWORD PTR [ecx]
  000d2	ff 10		 call	 DWORD PTR [eax]
$LN57@Initialize:

; 214  : 	InitializeTool(m_pGannGridTool);

  000d4	8b 4e 50	 mov	 ecx, DWORD PTR [esi+80]

; 860  : 	if(pTool == NULL)

  000d7	85 c9		 test	 ecx, ecx
  000d9	74 04		 je	 SHORT $LN60@Initialize

; 861  : 		return;
; 862  : 
; 863  : 	pTool->Initialize();

  000db	8b 01		 mov	 eax, DWORD PTR [ecx]
  000dd	ff 10		 call	 DWORD PTR [eax]
$LN60@Initialize:

; 215  : 	InitializeTool(m_pAndrewsTool);

  000df	8b 4e 54	 mov	 ecx, DWORD PTR [esi+84]

; 860  : 	if(pTool == NULL)

  000e2	85 c9		 test	 ecx, ecx
  000e4	74 04		 je	 SHORT $LN63@Initialize

; 861  : 		return;
; 862  : 
; 863  : 	pTool->Initialize();

  000e6	8b 01		 mov	 eax, DWORD PTR [ecx]
  000e8	ff 10		 call	 DWORD PTR [eax]
$LN63@Initialize:

; 216  : 	InitializeTool(m_pCycleLinesTool);

  000ea	8b 4e 58	 mov	 ecx, DWORD PTR [esi+88]

; 860  : 	if(pTool == NULL)

  000ed	85 c9		 test	 ecx, ecx
  000ef	74 04		 je	 SHORT $LN66@Initialize

; 861  : 		return;
; 862  : 
; 863  : 	pTool->Initialize();

  000f1	8b 01		 mov	 eax, DWORD PTR [ecx]
  000f3	ff 10		 call	 DWORD PTR [eax]
$LN66@Initialize:

; 217  : 	InitializeTool(m_pSpeedLineTool);

  000f5	8b 4e 5c	 mov	 ecx, DWORD PTR [esi+92]

; 860  : 	if(pTool == NULL)

  000f8	85 c9		 test	 ecx, ecx
  000fa	74 04		 je	 SHORT $LN69@Initialize

; 861  : 		return;
; 862  : 
; 863  : 	pTool->Initialize();

  000fc	8b 01		 mov	 eax, DWORD PTR [ecx]
  000fe	ff 10		 call	 DWORD PTR [eax]
$LN69@Initialize:

; 218  : 	InitializeTool(m_pSpeedFanTool);

  00100	8b 4e 60	 mov	 ecx, DWORD PTR [esi+96]

; 860  : 	if(pTool == NULL)

  00103	85 c9		 test	 ecx, ecx
  00105	74 04		 je	 SHORT $LN72@Initialize

; 861  : 		return;
; 862  : 
; 863  : 	pTool->Initialize();

  00107	8b 01		 mov	 eax, DWORD PTR [ecx]
  00109	ff 10		 call	 DWORD PTR [eax]
$LN72@Initialize:

; 219  : 	InitializeTool(m_pSpeedArcTool);

  0010b	8b 4e 64	 mov	 ecx, DWORD PTR [esi+100]

; 860  : 	if(pTool == NULL)

  0010e	85 c9		 test	 ecx, ecx
  00110	74 04		 je	 SHORT $LN75@Initialize

; 861  : 		return;
; 862  : 
; 863  : 	pTool->Initialize();

  00112	8b 01		 mov	 eax, DWORD PTR [ecx]
  00114	ff 10		 call	 DWORD PTR [eax]
$LN75@Initialize:

; 220  : 	InitializeTool(m_pLinearRegressionTool);

  00116	8b 4e 68	 mov	 ecx, DWORD PTR [esi+104]

; 860  : 	if(pTool == NULL)

  00119	85 c9		 test	 ecx, ecx
  0011b	74 04		 je	 SHORT $LN78@Initialize

; 861  : 		return;
; 862  : 
; 863  : 	pTool->Initialize();

  0011d	8b 01		 mov	 eax, DWORD PTR [ecx]
  0011f	ff 10		 call	 DWORD PTR [eax]
$LN78@Initialize:

; 221  : 	InitializeTool(m_pRaffRegressionTool);

  00121	8b 4e 6c	 mov	 ecx, DWORD PTR [esi+108]

; 860  : 	if(pTool == NULL)

  00124	85 c9		 test	 ecx, ecx
  00126	74 04		 je	 SHORT $LN81@Initialize

; 861  : 		return;
; 862  : 
; 863  : 	pTool->Initialize();

  00128	8b 01		 mov	 eax, DWORD PTR [ecx]
  0012a	ff 10		 call	 DWORD PTR [eax]
$LN81@Initialize:

; 222  : 	InitializeTool(m_pAngleLineTool);

  0012c	8b 4e 70	 mov	 ecx, DWORD PTR [esi+112]

; 860  : 	if(pTool == NULL)

  0012f	85 c9		 test	 ecx, ecx
  00131	74 04		 je	 SHORT $LN84@Initialize

; 861  : 		return;
; 862  : 
; 863  : 	pTool->Initialize();

  00133	8b 01		 mov	 eax, DWORD PTR [ecx]
  00135	ff 10		 call	 DWORD PTR [eax]
$LN84@Initialize:

; 223  : 	InitializeTool(m_pCandleLineTool);

  00137	8b 4e 74	 mov	 ecx, DWORD PTR [esi+116]

; 860  : 	if(pTool == NULL)

  0013a	85 c9		 test	 ecx, ecx
  0013c	74 04		 je	 SHORT $LN87@Initialize

; 861  : 		return;
; 862  : 
; 863  : 	pTool->Initialize();

  0013e	8b 01		 mov	 eax, DWORD PTR [ecx]
  00140	ff 10		 call	 DWORD PTR [eax]
$LN87@Initialize:

; 224  : 	InitializeTool(m_pCandleBongTool);

  00142	8b 4e 78	 mov	 ecx, DWORD PTR [esi+120]

; 860  : 	if(pTool == NULL)

  00145	85 c9		 test	 ecx, ecx
  00147	74 04		 je	 SHORT $LN90@Initialize

; 861  : 		return;
; 862  : 
; 863  : 	pTool->Initialize();

  00149	8b 01		 mov	 eax, DWORD PTR [ecx]
  0014b	ff 10		 call	 DWORD PTR [eax]
$LN90@Initialize:

; 225  : 	InitializeTool(m_pPencilLineTool);

  0014d	8b 4e 7c	 mov	 ecx, DWORD PTR [esi+124]

; 860  : 	if(pTool == NULL)

  00150	85 c9		 test	 ecx, ecx
  00152	74 04		 je	 SHORT $LN93@Initialize

; 861  : 		return;
; 862  : 
; 863  : 	pTool->Initialize();

  00154	8b 01		 mov	 eax, DWORD PTR [ecx]
  00156	ff 10		 call	 DWORD PTR [eax]
$LN93@Initialize:

; 226  : 	InitializeTool(m_pPeriodLineTool);

  00158	8b 8e 80 00 00
	00		 mov	 ecx, DWORD PTR [esi+128]

; 860  : 	if(pTool == NULL)

  0015e	85 c9		 test	 ecx, ecx
  00160	74 04		 je	 SHORT $LN96@Initialize

; 861  : 		return;
; 862  : 
; 863  : 	pTool->Initialize();

  00162	8b 01		 mov	 eax, DWORD PTR [ecx]
  00164	ff 10		 call	 DWORD PTR [eax]
$LN96@Initialize:

; 227  : 	InitializeTool(m_pElliotLineTool);

  00166	8b 8e 84 00 00
	00		 mov	 ecx, DWORD PTR [esi+132]

; 860  : 	if(pTool == NULL)

  0016c	85 c9		 test	 ecx, ecx
  0016e	74 04		 je	 SHORT $LN99@Initialize

; 861  : 		return;
; 862  : 
; 863  : 	pTool->Initialize();

  00170	8b 01		 mov	 eax, DWORD PTR [ecx]
  00172	ff 10		 call	 DWORD PTR [eax]
$LN99@Initialize:

; 228  : 	InitializeTool(m_pAdjustRatioTool);

  00174	8b 8e 88 00 00
	00		 mov	 ecx, DWORD PTR [esi+136]

; 860  : 	if(pTool == NULL)

  0017a	85 c9		 test	 ecx, ecx
  0017c	74 04		 je	 SHORT $LN102@Initialize

; 861  : 		return;
; 862  : 
; 863  : 	pTool->Initialize();

  0017e	8b 01		 mov	 eax, DWORD PTR [ecx]
  00180	ff 10		 call	 DWORD PTR [eax]
$LN102@Initialize:

; 229  : 
; 230  : 	InitializeTool(m_pBalanceBasicTool);	// 2014.09.24  : 0010862: [7111]    []  IBK   

  00182	8b 8e 8c 00 00
	00		 mov	 ecx, DWORD PTR [esi+140]
  00188	5e		 pop	 esi

; 860  : 	if(pTool == NULL)

  00189	85 c9		 test	 ecx, ecx
  0018b	74 04		 je	 SHORT $LN105@Initialize

; 861  : 		return;
; 862  : 
; 863  : 	pTool->Initialize();

  0018d	8b 01		 mov	 eax, DWORD PTR [ecx]
  0018f	ff 20		 jmp	 DWORD PTR [eax]
$LN105@Initialize:

; 231  : }

  00191	c3		 ret	 0
?InitializeAllTool@CToolSingleton@@QAEXXZ ENDP		; CToolSingleton::InitializeAllTool
_TEXT	ENDS
; Function compile flags: /Ogtp
; File D:\git\src\IBK\IBK_DRFN\ProjSrc\SrcChartEx\ChartAddIn\ChartAnalysisToolAddIn\AnalysisTool\ToolSingleton.cpp
;	COMDAT ?FindTool@CToolSingleton@@QAEPAVCTool@@W4TOOLTYPE@CAnalysis@@@Z
_TEXT	SEGMENT
_eToolType$ = 8						; size = 4
?FindTool@CToolSingleton@@QAEPAVCTool@@W4TOOLTYPE@CAnalysis@@@Z PROC ; CToolSingleton::FindTool, COMDAT
; _this$ = ecx

; 110  : {

  00000	55		 push	 ebp
  00001	8b ec		 mov	 ebp, esp

; 111  : 	switch(eToolType){

  00003	8b 45 08	 mov	 eax, DWORD PTR _eToolType$[ebp]
  00006	83 f8 24	 cmp	 eax, 36			; 00000024H
  00009	0f 87 08 01 00
	00		 ja	 $LN2@FindTool
  0000f	ff 24 85 00 00
	00 00		 jmp	 DWORD PTR $LN40@FindTool[eax*4]
$LN4@FindTool:

; 112  : 	case CAnalysis::EN_ANALYSIS_SELECTION:		// 
; 113  : 		return m_pSelectingTool;

  00016	8b 41 04	 mov	 eax, DWORD PTR [ecx+4]

; 187  : }

  00019	5d		 pop	 ebp
  0001a	c2 04 00	 ret	 4
$LN5@FindTool:

; 114  : 	case CAnalysis::EN_ANALYSIS_MOVE_CROSS:		//  mouse move
; 115  : 		return m_pCrossLineMoveTool;

  0001d	8b 41 08	 mov	 eax, DWORD PTR [ecx+8]

; 187  : }

  00020	5d		 pop	 ebp
  00021	c2 04 00	 ret	 4
$LN6@FindTool:

; 116  : 	case CAnalysis::EN_ANALYSIS_DOWN_CROSS:		//  mouse down
; 117  : 		return m_pCrossLineDownTool;

  00024	8b 41 0c	 mov	 eax, DWORD PTR [ecx+12]

; 187  : }

  00027	5d		 pop	 ebp
  00028	c2 04 00	 ret	 4
$LN7@FindTool:

; 118  : 	case CAnalysis::EN_ANALYSIS_VERT_LINE:		// 
; 119  : 		return m_pVertLineTool;

  0002b	8b 41 10	 mov	 eax, DWORD PTR [ecx+16]

; 187  : }

  0002e	5d		 pop	 ebp
  0002f	c2 04 00	 ret	 4
$LN8@FindTool:

; 120  : 	case CAnalysis::EN_ANALYSIS_HORZ_LINE:		// 
; 121  : 		return m_pHorzLineTool;	

  00032	8b 41 14	 mov	 eax, DWORD PTR [ecx+20]

; 187  : }

  00035	5d		 pop	 ebp
  00036	c2 04 00	 ret	 4
$LN9@FindTool:

; 122  : 	case CAnalysis::EN_ANALYSIS_LINE:			// 
; 123  : 		return m_pLineTool;

  00039	8b 41 18	 mov	 eax, DWORD PTR [ecx+24]

; 187  : }

  0003c	5d		 pop	 ebp
  0003d	c2 04 00	 ret	 4
$LN10@FindTool:

; 124  : 	case CAnalysis::EN_ANALYSIS_TRISECT:		// 
; 125  : 		return m_pTrisectionLineTool;

  00040	8b 41 1c	 mov	 eax, DWORD PTR [ecx+28]

; 187  : }

  00043	5d		 pop	 ebp
  00044	c2 04 00	 ret	 4
$LN11@FindTool:

; 126  : 	case CAnalysis::EN_ANALYSIS_QUARTER:		// 
; 127  : 		return m_pQuadrisectLineTool;

  00047	8b 41 20	 mov	 eax, DWORD PTR [ecx+32]

; 187  : }

  0004a	5d		 pop	 ebp
  0004b	c2 04 00	 ret	 4
$LN12@FindTool:

; 128  : 	case CAnalysis::EN_ANALYSIS_FIBO_SEMICIRCLE://  
; 129  : 		return m_pFiboSemicircleTool;

  0004e	8b 41 24	 mov	 eax, DWORD PTR [ecx+36]

; 187  : }

  00051	5d		 pop	 ebp
  00052	c2 04 00	 ret	 4
$LN13@FindTool:

; 130  : 	case CAnalysis::EN_ANALYSIS_FIBO_CIRCLE:	//  
; 131  : 		return m_pFiboCircleTool;

  00055	8b 41 28	 mov	 eax, DWORD PTR [ecx+40]

; 187  : }

  00058	5d		 pop	 ebp
  00059	c2 04 00	 ret	 4
$LN14@FindTool:

; 132  : 	case CAnalysis::EN_ANALYSIS_FIBO_FAN_LINE:	//  
; 133  : 		return m_pFiboPenLineTool;	

  0005c	8b 41 2c	 mov	 eax, DWORD PTR [ecx+44]

; 187  : }

  0005f	5d		 pop	 ebp
  00060	c2 04 00	 ret	 4
$LN15@FindTool:

; 134  : 	case CAnalysis::EN_ANALYSIS_FIBO_RETRACE:	//  
; 135  : 		return m_pFiboRetraceTool;

  00063	8b 41 30	 mov	 eax, DWORD PTR [ecx+48]

; 187  : }

  00066	5d		 pop	 ebp
  00067	c2 04 00	 ret	 4
$LN16@FindTool:

; 136  : 	case CAnalysis::EN_ANALYSIS_FIBO_TIME:		//  
; 137  : 		return m_pFiboTimeTool;

  0006a	8b 41 34	 mov	 eax, DWORD PTR [ecx+52]

; 187  : }

  0006d	5d		 pop	 ebp
  0006e	c2 04 00	 ret	 4
$LN17@FindTool:

; 138  : 	case CAnalysis::EN_ANALYSIS_GANN_LINE45:	// (45)
; 139  : 		return m_pGannLine45Tool;

  00071	8b 41 38	 mov	 eax, DWORD PTR [ecx+56]

; 187  : }

  00074	5d		 pop	 ebp
  00075	c2 04 00	 ret	 4
$LN18@FindTool:

; 140  : 	case CAnalysis::EN_ANALYSIS_GANN_LINE315:	// (315)
; 141  : 		return m_pGannLine315Tool;

  00078	8b 41 3c	 mov	 eax, DWORD PTR [ecx+60]

; 187  : }

  0007b	5d		 pop	 ebp
  0007c	c2 04 00	 ret	 4
$LN19@FindTool:

; 142  : 	case CAnalysis::EN_ANALYSIS_GANN_FAN45:		// (45)
; 143  : 		return m_pGannFan45Tool;

  0007f	8b 41 40	 mov	 eax, DWORD PTR [ecx+64]

; 187  : }

  00082	5d		 pop	 ebp
  00083	c2 04 00	 ret	 4
$LN20@FindTool:

; 144  : 	case CAnalysis::EN_ANALYSIS_GANN_FAN135:	// (45)
; 145  : 		return m_pGannFan135Tool;

  00086	8b 41 44	 mov	 eax, DWORD PTR [ecx+68]

; 187  : }

  00089	5d		 pop	 ebp
  0008a	c2 04 00	 ret	 4
$LN21@FindTool:

; 146  : 	case CAnalysis::EN_ANALYSIS_GANN_FAN225:	// (45)
; 147  : 		return m_pGannFan225Tool;

  0008d	8b 41 48	 mov	 eax, DWORD PTR [ecx+72]

; 187  : }

  00090	5d		 pop	 ebp
  00091	c2 04 00	 ret	 4
$LN22@FindTool:

; 148  : 	case CAnalysis::EN_ANALYSIS_GANN_FAN315:	// (45)
; 149  : 		return m_pGannFan315Tool;

  00094	8b 41 4c	 mov	 eax, DWORD PTR [ecx+76]

; 187  : }

  00097	5d		 pop	 ebp
  00098	c2 04 00	 ret	 4
$LN23@FindTool:

; 150  : 	case CAnalysis::EN_ANALYSIS_GANN_GRID:		// 
; 151  : 		return m_pGannGridTool;

  0009b	8b 41 50	 mov	 eax, DWORD PTR [ecx+80]

; 187  : }

  0009e	5d		 pop	 ebp
  0009f	c2 04 00	 ret	 4
$LN24@FindTool:

; 152  : 	case CAnalysis::EN_ANALYSIS_ANDREWS_PITCHFORK:	//  
; 153  : 		return m_pAndrewsTool;

  000a2	8b 41 54	 mov	 eax, DWORD PTR [ecx+84]

; 187  : }

  000a5	5d		 pop	 ebp
  000a6	c2 04 00	 ret	 4
$LN25@FindTool:

; 154  : 	case CAnalysis::EN_ANALYSIS_CYCLE_LINES:	//  
; 155  : 		return m_pCycleLinesTool;

  000a9	8b 41 58	 mov	 eax, DWORD PTR [ecx+88]

; 187  : }

  000ac	5d		 pop	 ebp
  000ad	c2 04 00	 ret	 4
$LN26@FindTool:

; 156  : 	case CAnalysis::EN_ANALYSIS_SPEED_LINE:		//  
; 157  : 		return m_pSpeedLineTool;

  000b0	8b 41 5c	 mov	 eax, DWORD PTR [ecx+92]

; 187  : }

  000b3	5d		 pop	 ebp
  000b4	c2 04 00	 ret	 4
$LN27@FindTool:

; 158  : 	case CAnalysis::EN_ANALYSIS_SPEED_FAN:		//  Fan
; 159  : 		return m_pSpeedFanTool;

  000b7	8b 41 60	 mov	 eax, DWORD PTR [ecx+96]

; 187  : }

  000ba	5d		 pop	 ebp
  000bb	c2 04 00	 ret	 4
$LN28@FindTool:

; 160  : 	case CAnalysis::EN_ANALYSIS_SPEED_ARC:		//  
; 161  : 		return m_pSpeedArcTool;

  000be	8b 41 64	 mov	 eax, DWORD PTR [ecx+100]

; 187  : }

  000c1	5d		 pop	 ebp
  000c2	c2 04 00	 ret	 4
$LN29@FindTool:

; 162  : 	case CAnalysis::EN_ANALYSIS_LINEAR_REGRESSION:	// 
; 163  : 		return m_pLinearRegressionTool;

  000c5	8b 41 68	 mov	 eax, DWORD PTR [ecx+104]

; 187  : }

  000c8	5d		 pop	 ebp
  000c9	c2 04 00	 ret	 4
$LN30@FindTool:

; 164  : 	case CAnalysis::EN_ANALYSIS_RAFF_REGRESSION:	// 
; 165  : 		return m_pRaffRegressionTool;

  000cc	8b 41 6c	 mov	 eax, DWORD PTR [ecx+108]

; 187  : }

  000cf	5d		 pop	 ebp
  000d0	c2 04 00	 ret	 4
$LN31@FindTool:

; 166  : 	case CAnalysis::EN_ANALYSIS_ANGLE_LINE:		// 
; 167  : 		return m_pAngleLineTool;

  000d3	8b 41 70	 mov	 eax, DWORD PTR [ecx+112]

; 187  : }

  000d6	5d		 pop	 ebp
  000d7	c2 04 00	 ret	 4
$LN32@FindTool:

; 168  : 	case CAnalysis::EN_ANALYSIS_CANDLE_LINE:	// 
; 169  : 		return m_pCandleLineTool;

  000da	8b 41 74	 mov	 eax, DWORD PTR [ecx+116]

; 187  : }

  000dd	5d		 pop	 ebp
  000de	c2 04 00	 ret	 4
$LN33@FindTool:

; 170  : 	case CAnalysis::EN_ANALYSIS_CANDLE_BONG:	// 
; 171  : 		return m_pCandleBongTool;

  000e1	8b 41 78	 mov	 eax, DWORD PTR [ecx+120]

; 187  : }

  000e4	5d		 pop	 ebp
  000e5	c2 04 00	 ret	 4
$LN34@FindTool:

; 172  : 	case CAnalysis::EN_ANALYSIS_PENCIL_LINE:	// 
; 173  : 		return m_pPencilLineTool;

  000e8	8b 41 7c	 mov	 eax, DWORD PTR [ecx+124]

; 187  : }

  000eb	5d		 pop	 ebp
  000ec	c2 04 00	 ret	 4
$LN35@FindTool:

; 174  : 	case CAnalysis::EN_ANALYSIS_PERIOD_SUMMARY:	// 
; 175  : 		return m_pPeriodLineTool;

  000ef	8b 81 80 00 00
	00		 mov	 eax, DWORD PTR [ecx+128]

; 187  : }

  000f5	5d		 pop	 ebp
  000f6	c2 04 00	 ret	 4
$LN36@FindTool:

; 176  : 	case CAnalysis::EN_ANALYSIS_ELLIOT_WAVE_LINE:	// Elliot
; 177  : 		return m_pElliotLineTool;

  000f9	8b 81 84 00 00
	00		 mov	 eax, DWORD PTR [ecx+132]

; 187  : }

  000ff	5d		 pop	 ebp
  00100	c2 04 00	 ret	 4
$LN37@FindTool:

; 178  : 	case CAnalysis::EN_ANALYSIS_ADJUST_RATIO:	// AdjustRatio
; 179  : 		return m_pAdjustRatioTool;

  00103	8b 81 88 00 00
	00		 mov	 eax, DWORD PTR [ecx+136]

; 187  : }

  00109	5d		 pop	 ebp
  0010a	c2 04 00	 ret	 4
$LN38@FindTool:

; 180  : 	// 2014.09.24  : 0010862: [7111]    []  IBK    >>
; 181  : 	case CAnalysis::EN_ANALYSIS_BALANCE_BASIC:	// 
; 182  : 		return m_pBalanceBasicTool;

  0010d	8b 81 8c 00 00
	00		 mov	 eax, DWORD PTR [ecx+140]

; 187  : }

  00113	5d		 pop	 ebp
  00114	c2 04 00	 ret	 4
$LN2@FindTool:

; 183  : 	// 2014.09.24  : 0010862: [7111]    []  IBK    <<
; 184  : 	}
; 185  : 
; 186  : 	return NULL;

  00117	33 c0		 xor	 eax, eax

; 187  : }

  00119	5d		 pop	 ebp
  0011a	c2 04 00	 ret	 4
  0011d	0f 1f 00	 npad	 3
$LN40@FindTool:
  00120	00 00 00 00	 DD	 $LN4@FindTool
  00124	00 00 00 00	 DD	 $LN5@FindTool
  00128	00 00 00 00	 DD	 $LN6@FindTool
  0012c	00 00 00 00	 DD	 $LN7@FindTool
  00130	00 00 00 00	 DD	 $LN8@FindTool
  00134	00 00 00 00	 DD	 $LN9@FindTool
  00138	00 00 00 00	 DD	 $LN10@FindTool
  0013c	00 00 00 00	 DD	 $LN11@FindTool
  00140	00 00 00 00	 DD	 $LN12@FindTool
  00144	00 00 00 00	 DD	 $LN13@FindTool
  00148	00 00 00 00	 DD	 $LN14@FindTool
  0014c	00 00 00 00	 DD	 $LN15@FindTool
  00150	00 00 00 00	 DD	 $LN16@FindTool
  00154	00 00 00 00	 DD	 $LN17@FindTool
  00158	00 00 00 00	 DD	 $LN18@FindTool
  0015c	00 00 00 00	 DD	 $LN19@FindTool
  00160	00 00 00 00	 DD	 $LN20@FindTool
  00164	00 00 00 00	 DD	 $LN21@FindTool
  00168	00 00 00 00	 DD	 $LN22@FindTool
  0016c	00 00 00 00	 DD	 $LN23@FindTool
  00170	00 00 00 00	 DD	 $LN24@FindTool
  00174	00 00 00 00	 DD	 $LN36@FindTool
  00178	00 00 00 00	 DD	 $LN25@FindTool
  0017c	00 00 00 00	 DD	 $LN2@FindTool
  00180	00 00 00 00	 DD	 $LN26@FindTool
  00184	00 00 00 00	 DD	 $LN27@FindTool
  00188	00 00 00 00	 DD	 $LN28@FindTool
  0018c	00 00 00 00	 DD	 $LN29@FindTool
  00190	00 00 00 00	 DD	 $LN30@FindTool
  00194	00 00 00 00	 DD	 $LN31@FindTool
  00198	00 00 00 00	 DD	 $LN32@FindTool
  0019c	00 00 00 00	 DD	 $LN33@FindTool
  001a0	00 00 00 00	 DD	 $LN37@FindTool
  001a4	00 00 00 00	 DD	 $LN35@FindTool
  001a8	00 00 00 00	 DD	 $LN2@FindTool
  001ac	00 00 00 00	 DD	 $LN34@FindTool
  001b0	00 00 00 00	 DD	 $LN38@FindTool
?FindTool@CToolSingleton@@QAEPAVCTool@@W4TOOLTYPE@CAnalysis@@@Z ENDP ; CToolSingleton::FindTool
_TEXT	ENDS
; Function compile flags: /Ogtp
; File D:\git\src\IBK\IBK_DRFN\ProjSrc\SrcChartEx\ChartAddIn\ChartAnalysisToolAddIn\AnalysisTool\ToolSingleton.cpp
; File C:\Program Files (x86)\Microsoft Visual Studio\2019\Community\VC\Tools\MSVC\14.29.30133\include\deque
; File C:\Program Files (x86)\Microsoft Visual Studio\2019\Community\VC\Tools\MSVC\14.29.30133\include\utility
; File C:\Program Files (x86)\Microsoft Visual Studio\2019\Community\VC\Tools\MSVC\14.29.30133\include\xmemory
; File C:\Program Files (x86)\Microsoft Visual Studio\2019\Community\VC\Tools\MSVC\14.29.30133\include\utility
; File C:\Program Files (x86)\Microsoft Visual Studio\2019\Community\VC\Tools\MSVC\14.29.30133\include\xmemory
; File D:\git\src\IBK\IBK_DRFN\ProjSrc\SrcChartEx\ChartAddIn\ChartAnalysisToolAddIn\AnalysisTool\ToolSingleton.cpp
; File C:\Program Files (x86)\Microsoft Visual Studio\2019\Community\VC\Tools\MSVC\14.29.30133\include\deque
; File C:\Program Files (x86)\Microsoft Visual Studio\2019\Community\VC\Tools\MSVC\14.29.30133\include\utility
; File C:\Program Files (x86)\Microsoft Visual Studio\2019\Community\VC\Tools\MSVC\14.29.30133\include\xmemory
; File C:\Program Files (x86)\Microsoft Visual Studio\2019\Community\VC\Tools\MSVC\14.29.30133\include\utility
; File C:\Program Files (x86)\Microsoft Visual Studio\2019\Community\VC\Tools\MSVC\14.29.30133\include\xmemory
; File D:\git\src\IBK\IBK_DRFN\ProjSrc\SrcChartEx\ChartAddIn\ChartAnalysisToolAddIn\AnalysisTool\ToolSingleton.cpp
; File C:\Program Files (x86)\Microsoft Visual Studio\2019\Community\VC\Tools\MSVC\14.29.30133\include\deque
; File C:\Program Files (x86)\Microsoft Visual Studio\2019\Community\VC\Tools\MSVC\14.29.30133\include\utility
; File C:\Program Files (x86)\Microsoft Visual Studio\2019\Community\VC\Tools\MSVC\14.29.30133\include\xmemory
; File C:\Program Files (x86)\Microsoft Visual Studio\2019\Community\VC\Tools\MSVC\14.29.30133\include\utility
; File C:\Program Files (x86)\Microsoft Visual Studio\2019\Community\VC\Tools\MSVC\14.29.30133\include\xmemory
; File D:\git\src\IBK\IBK_DRFN\ProjSrc\SrcChartEx\ChartAddIn\ChartAnalysisToolAddIn\AnalysisTool\ToolSingleton.cpp
; File C:\Program Files (x86)\Microsoft Visual Studio\2019\Community\VC\Tools\MSVC\14.29.30133\include\deque
; File C:\Program Files (x86)\Microsoft Visual Studio\2019\Community\VC\Tools\MSVC\14.29.30133\include\utility
; File C:\Program Files (x86)\Microsoft Visual Studio\2019\Community\VC\Tools\MSVC\14.29.30133\include\xmemory
; File C:\Program Files (x86)\Microsoft Visual Studio\2019\Community\VC\Tools\MSVC\14.29.30133\include\utility
; File C:\Program Files (x86)\Microsoft Visual Studio\2019\Community\VC\Tools\MSVC\14.29.30133\include\xmemory
; File D:\git\src\IBK\IBK_DRFN\ProjSrc\SrcChartEx\ChartAddIn\ChartAnalysisToolAddIn\AnalysisTool\ToolSingleton.cpp
; File C:\Program Files (x86)\Microsoft Visual Studio\2019\Community\VC\Tools\MSVC\14.29.30133\include\deque
; File C:\Program Files (x86)\Microsoft Visual Studio\2019\Community\VC\Tools\MSVC\14.29.30133\include\utility
; File C:\Program Files (x86)\Microsoft Visual Studio\2019\Community\VC\Tools\MSVC\14.29.30133\include\xmemory
; File C:\Program Files (x86)\Microsoft Visual Studio\2019\Community\VC\Tools\MSVC\14.29.30133\include\utility
; File C:\Program Files (x86)\Microsoft Visual Studio\2019\Community\VC\Tools\MSVC\14.29.30133\include\xmemory
; File D:\git\src\IBK\IBK_DRFN\ProjSrc\SrcChartEx\ChartAddIn\ChartAnalysisToolAddIn\AnalysisTool\ToolSingleton.cpp
; File C:\Program Files (x86)\Microsoft Visual Studio\2019\Community\VC\Tools\MSVC\14.29.30133\include\deque
; File C:\Program Files (x86)\Microsoft Visual Studio\2019\Community\VC\Tools\MSVC\14.29.30133\include\utility
; File C:\Program Files (x86)\Microsoft Visual Studio\2019\Community\VC\Tools\MSVC\14.29.30133\include\xmemory
; File C:\Program Files (x86)\Microsoft Visual Studio\2019\Community\VC\Tools\MSVC\14.29.30133\include\utility
; File C:\Program Files (x86)\Microsoft Visual Studio\2019\Community\VC\Tools\MSVC\14.29.30133\include\xmemory
; File D:\git\src\IBK\IBK_DRFN\ProjSrc\SrcChartEx\ChartAddIn\ChartAnalysisToolAddIn\AnalysisTool\ToolSingleton.cpp
; File C:\Program Files (x86)\Microsoft Visual Studio\2019\Community\VC\Tools\MSVC\14.29.30133\include\deque
; File C:\Program Files (x86)\Microsoft Visual Studio\2019\Community\VC\Tools\MSVC\14.29.30133\include\utility
; File C:\Program Files (x86)\Microsoft Visual Studio\2019\Community\VC\Tools\MSVC\14.29.30133\include\xmemory
; File C:\Program Files (x86)\Microsoft Visual Studio\2019\Community\VC\Tools\MSVC\14.29.30133\include\utility
; File C:\Program Files (x86)\Microsoft Visual Studio\2019\Community\VC\Tools\MSVC\14.29.30133\include\xmemory
; File D:\git\src\IBK\IBK_DRFN\ProjSrc\SrcChartEx\ChartAddIn\ChartAnalysisToolAddIn\AnalysisTool\ToolSingleton.cpp
; File C:\Program Files (x86)\Microsoft Visual Studio\2019\Community\VC\Tools\MSVC\14.29.30133\include\deque
; File C:\Program Files (x86)\Microsoft Visual Studio\2019\Community\VC\Tools\MSVC\14.29.30133\include\utility
; File C:\Program Files (x86)\Microsoft Visual Studio\2019\Community\VC\Tools\MSVC\14.29.30133\include\xmemory
; File C:\Program Files (x86)\Microsoft Visual Studio\2019\Community\VC\Tools\MSVC\14.29.30133\include\utility
; File C:\Program Files (x86)\Microsoft Visual Studio\2019\Community\VC\Tools\MSVC\14.29.30133\include\xmemory
; File D:\git\src\IBK\IBK_DRFN\ProjSrc\SrcChartEx\ChartAddIn\ChartAnalysisToolAddIn\AnalysisTool\ToolSingleton.cpp
; File C:\Program Files (x86)\Microsoft Visual Studio\2019\Community\VC\Tools\MSVC\14.29.30133\include\deque
; File C:\Program Files (x86)\Microsoft Visual Studio\2019\Community\VC\Tools\MSVC\14.29.30133\include\utility
; File C:\Program Files (x86)\Microsoft Visual Studio\2019\Community\VC\Tools\MSVC\14.29.30133\include\xmemory
; File C:\Program Files (x86)\Microsoft Visual Studio\2019\Community\VC\Tools\MSVC\14.29.30133\include\utility
; File C:\Program Files (x86)\Microsoft Visual Studio\2019\Community\VC\Tools\MSVC\14.29.30133\include\xmemory
; File D:\git\src\IBK\IBK_DRFN\ProjSrc\SrcChartEx\ChartAddIn\ChartAnalysisToolAddIn\AnalysisTool\ToolSingleton.cpp
;	COMDAT ??1CToolSingleton@@QAE@XZ
_TEXT	SEGMENT
__$EHRec$ = -12						; size = 12
??1CToolSingleton@@QAE@XZ PROC				; CToolSingleton::~CToolSingleton, COMDAT
; _this$ = ecx

; 67   : {

  00000	55		 push	 ebp
  00001	8b ec		 mov	 ebp, esp
  00003	6a ff		 push	 -1
  00005	68 00 00 00 00	 push	 __ehhandler$??1CToolSingleton@@QAE@XZ
  0000a	64 a1 00 00 00
	00		 mov	 eax, DWORD PTR fs:0
  00010	50		 push	 eax
  00011	53		 push	 ebx
  00012	56		 push	 esi
  00013	57		 push	 edi
  00014	a1 00 00 00 00	 mov	 eax, DWORD PTR ___security_cookie
  00019	33 c5		 xor	 eax, ebp
  0001b	50		 push	 eax
  0001c	8d 45 f4	 lea	 eax, DWORD PTR __$EHRec$[ebp]
  0001f	64 a3 00 00 00
	00		 mov	 DWORD PTR fs:0, eax
  00025	8b f9		 mov	 edi, ecx

; 68   : 	delete m_pSelectingTool;

  00027	8b 5f 04	 mov	 ebx, DWORD PTR [edi+4]
  0002a	85 db		 test	 ebx, ebx
  0002c	74 57		 je	 SHORT $LN74@CToolSingl
  0002e	8d 8b 9c 00 00
	00		 lea	 ecx, DWORD PTR [ebx+156]
  00034	ff 15 00 00 00
	00		 call	 DWORD PTR __imp_??1?$CStringT@DV?$StrTraitMFC_DLL@DV?$ChTraitsCRT@D@ATL@@@@@ATL@@QAE@XZ
; File C:\Program Files (x86)\Microsoft Visual Studio\2019\Community\VC\Tools\MSVC\14.29.30133\include\deque

; 1332 :         _Tidy();

  0003a	8d 4b 60	 lea	 ecx, DWORD PTR [ebx+96]
  0003d	ff 15 00 00 00
	00		 call	 DWORD PTR __imp_??1?$CStringT@DV?$StrTraitMFC_DLL@DV?$ChTraitsCRT@D@ATL@@@@@ATL@@QAE@XZ
  00043	8d 4b 5c	 lea	 ecx, DWORD PTR [ebx+92]
  00046	ff 15 00 00 00
	00		 call	 DWORD PTR __imp_??1?$CStringT@DV?$StrTraitMFC_DLL@DV?$ChTraitsCRT@D@ATL@@@@@ATL@@QAE@XZ
  0004c	8d 4b 58	 lea	 ecx, DWORD PTR [ebx+88]
  0004f	ff 15 00 00 00
	00		 call	 DWORD PTR __imp_??1?$CStringT@DV?$StrTraitMFC_DLL@DV?$ChTraitsCRT@D@ATL@@@@@ATL@@QAE@XZ
  00055	8d 4b 14	 lea	 ecx, DWORD PTR [ebx+20]
  00058	e8 00 00 00 00	 call	 ?_Tidy@?$deque@VCBlockRegion@@V?$allocator@VCBlockRegion@@@std@@@std@@AAEXXZ ; std::deque<CBlockRegion,std::allocator<CBlockRegion> >::_Tidy

; 861  :         _Tidy();

  0005d	8d 4b 14	 lea	 ecx, DWORD PTR [ebx+20]
  00060	e8 00 00 00 00	 call	 ?_Tidy@?$deque@VCBlockRegion@@V?$allocator@VCBlockRegion@@@std@@@std@@AAEXXZ ; std::deque<CBlockRegion,std::allocator<CBlockRegion> >::_Tidy
; File C:\Program Files (x86)\Microsoft Visual Studio\2019\Community\VC\Tools\MSVC\14.29.30133\include\utility

; 602  :     _Ty _Old_val = static_cast<_Ty&&>(_Val);

  00065	8b 43 14	 mov	 eax, DWORD PTR [ebx+20]
; File C:\Program Files (x86)\Microsoft Visual Studio\2019\Community\VC\Tools\MSVC\14.29.30133\include\xmemory

; 255  :         ::operator delete(_Ptr, _Bytes);

  00068	6a 08		 push	 8
  0006a	50		 push	 eax
; File C:\Program Files (x86)\Microsoft Visual Studio\2019\Community\VC\Tools\MSVC\14.29.30133\include\utility

; 603  :     _Val         = static_cast<_Other&&>(_New_val);

  0006b	c7 43 14 00 00
	00 00		 mov	 DWORD PTR [ebx+20], 0
; File C:\Program Files (x86)\Microsoft Visual Studio\2019\Community\VC\Tools\MSVC\14.29.30133\include\xmemory

; 255  :         ::operator delete(_Ptr, _Bytes);

  00072	e8 00 00 00 00	 call	 ??3@YAXPAXI@Z		; operator delete
  00077	68 b8 00 00 00	 push	 184			; 000000b8H
  0007c	53		 push	 ebx
  0007d	e8 00 00 00 00	 call	 ??3@YAXPAXI@Z		; operator delete
  00082	83 c4 10	 add	 esp, 16			; 00000010H
$LN74@CToolSingl:
; File D:\git\src\IBK\IBK_DRFN\ProjSrc\SrcChartEx\ChartAddIn\ChartAnalysisToolAddIn\AnalysisTool\ToolSingleton.cpp

; 69   : 	delete m_pCrossLineMoveTool;

  00085	8b 5f 08	 mov	 ebx, DWORD PTR [edi+8]
  00088	85 db		 test	 ebx, ebx
  0008a	74 57		 je	 SHORT $LN141@CToolSingl
  0008c	8d 8b 9c 00 00
	00		 lea	 ecx, DWORD PTR [ebx+156]
  00092	ff 15 00 00 00
	00		 call	 DWORD PTR __imp_??1?$CStringT@DV?$StrTraitMFC_DLL@DV?$ChTraitsCRT@D@ATL@@@@@ATL@@QAE@XZ
; File C:\Program Files (x86)\Microsoft Visual Studio\2019\Community\VC\Tools\MSVC\14.29.30133\include\deque

; 1332 :         _Tidy();

  00098	8d 4b 60	 lea	 ecx, DWORD PTR [ebx+96]
  0009b	ff 15 00 00 00
	00		 call	 DWORD PTR __imp_??1?$CStringT@DV?$StrTraitMFC_DLL@DV?$ChTraitsCRT@D@ATL@@@@@ATL@@QAE@XZ
  000a1	8d 4b 5c	 lea	 ecx, DWORD PTR [ebx+92]
  000a4	ff 15 00 00 00
	00		 call	 DWORD PTR __imp_??1?$CStringT@DV?$StrTraitMFC_DLL@DV?$ChTraitsCRT@D@ATL@@@@@ATL@@QAE@XZ
  000aa	8d 4b 58	 lea	 ecx, DWORD PTR [ebx+88]
  000ad	ff 15 00 00 00
	00		 call	 DWORD PTR __imp_??1?$CStringT@DV?$StrTraitMFC_DLL@DV?$ChTraitsCRT@D@ATL@@@@@ATL@@QAE@XZ
  000b3	8d 4b 14	 lea	 ecx, DWORD PTR [ebx+20]
  000b6	e8 00 00 00 00	 call	 ?_Tidy@?$deque@VCBlockRegion@@V?$allocator@VCBlockRegion@@@std@@@std@@AAEXXZ ; std::deque<CBlockRegion,std::allocator<CBlockRegion> >::_Tidy

; 861  :         _Tidy();

  000bb	8d 4b 14	 lea	 ecx, DWORD PTR [ebx+20]
  000be	e8 00 00 00 00	 call	 ?_Tidy@?$deque@VCBlockRegion@@V?$allocator@VCBlockRegion@@@std@@@std@@AAEXXZ ; std::deque<CBlockRegion,std::allocator<CBlockRegion> >::_Tidy
; File C:\Program Files (x86)\Microsoft Visual Studio\2019\Community\VC\Tools\MSVC\14.29.30133\include\utility

; 602  :     _Ty _Old_val = static_cast<_Ty&&>(_Val);

  000c3	8b 43 14	 mov	 eax, DWORD PTR [ebx+20]
; File C:\Program Files (x86)\Microsoft Visual Studio\2019\Community\VC\Tools\MSVC\14.29.30133\include\xmemory

; 255  :         ::operator delete(_Ptr, _Bytes);

  000c6	6a 08		 push	 8
  000c8	50		 push	 eax
; File C:\Program Files (x86)\Microsoft Visual Studio\2019\Community\VC\Tools\MSVC\14.29.30133\include\utility

; 603  :     _Val         = static_cast<_Other&&>(_New_val);

  000c9	c7 43 14 00 00
	00 00		 mov	 DWORD PTR [ebx+20], 0
; File C:\Program Files (x86)\Microsoft Visual Studio\2019\Community\VC\Tools\MSVC\14.29.30133\include\xmemory

; 255  :         ::operator delete(_Ptr, _Bytes);

  000d0	e8 00 00 00 00	 call	 ??3@YAXPAXI@Z		; operator delete
  000d5	68 f8 00 00 00	 push	 248			; 000000f8H
  000da	53		 push	 ebx
  000db	e8 00 00 00 00	 call	 ??3@YAXPAXI@Z		; operator delete
  000e0	83 c4 10	 add	 esp, 16			; 00000010H
$LN141@CToolSingl:
; File D:\git\src\IBK\IBK_DRFN\ProjSrc\SrcChartEx\ChartAddIn\ChartAnalysisToolAddIn\AnalysisTool\ToolSingleton.cpp

; 70   : 	delete m_pCrossLineDownTool;

  000e3	8b 77 0c	 mov	 esi, DWORD PTR [edi+12]
  000e6	85 f6		 test	 esi, esi
  000e8	74 15		 je	 SHORT $LN215@CToolSingl
  000ea	8b ce		 mov	 ecx, esi
  000ec	e8 00 00 00 00	 call	 ??1COnePointDownTool@@IAE@XZ ; COnePointDownTool::~COnePointDownTool
  000f1	68 18 01 00 00	 push	 280			; 00000118H
  000f6	56		 push	 esi
  000f7	e8 00 00 00 00	 call	 ??3@YAXPAXI@Z		; operator delete
  000fc	83 c4 08	 add	 esp, 8
$LN215@CToolSingl:

; 71   : 	delete m_pVertLineTool;

  000ff	8b 5f 10	 mov	 ebx, DWORD PTR [edi+16]
  00102	85 db		 test	 ebx, ebx
  00104	74 57		 je	 SHORT $LN221@CToolSingl
  00106	8d 8b 9c 00 00
	00		 lea	 ecx, DWORD PTR [ebx+156]
  0010c	ff 15 00 00 00
	00		 call	 DWORD PTR __imp_??1?$CStringT@DV?$StrTraitMFC_DLL@DV?$ChTraitsCRT@D@ATL@@@@@ATL@@QAE@XZ
; File C:\Program Files (x86)\Microsoft Visual Studio\2019\Community\VC\Tools\MSVC\14.29.30133\include\deque

; 1332 :         _Tidy();

  00112	8d 4b 60	 lea	 ecx, DWORD PTR [ebx+96]
  00115	ff 15 00 00 00
	00		 call	 DWORD PTR __imp_??1?$CStringT@DV?$StrTraitMFC_DLL@DV?$ChTraitsCRT@D@ATL@@@@@ATL@@QAE@XZ
  0011b	8d 4b 5c	 lea	 ecx, DWORD PTR [ebx+92]
  0011e	ff 15 00 00 00
	00		 call	 DWORD PTR __imp_??1?$CStringT@DV?$StrTraitMFC_DLL@DV?$ChTraitsCRT@D@ATL@@@@@ATL@@QAE@XZ
  00124	8d 4b 58	 lea	 ecx, DWORD PTR [ebx+88]
  00127	ff 15 00 00 00
	00		 call	 DWORD PTR __imp_??1?$CStringT@DV?$StrTraitMFC_DLL@DV?$ChTraitsCRT@D@ATL@@@@@ATL@@QAE@XZ
  0012d	8d 4b 14	 lea	 ecx, DWORD PTR [ebx+20]
  00130	e8 00 00 00 00	 call	 ?_Tidy@?$deque@VCBlockRegion@@V?$allocator@VCBlockRegion@@@std@@@std@@AAEXXZ ; std::deque<CBlockRegion,std::allocator<CBlockRegion> >::_Tidy

; 861  :         _Tidy();

  00135	8d 4b 14	 lea	 ecx, DWORD PTR [ebx+20]
  00138	e8 00 00 00 00	 call	 ?_Tidy@?$deque@VCBlockRegion@@V?$allocator@VCBlockRegion@@@std@@@std@@AAEXXZ ; std::deque<CBlockRegion,std::allocator<CBlockRegion> >::_Tidy
; File C:\Program Files (x86)\Microsoft Visual Studio\2019\Community\VC\Tools\MSVC\14.29.30133\include\utility

; 602  :     _Ty _Old_val = static_cast<_Ty&&>(_Val);

  0013d	8b 43 14	 mov	 eax, DWORD PTR [ebx+20]
; File C:\Program Files (x86)\Microsoft Visual Studio\2019\Community\VC\Tools\MSVC\14.29.30133\include\xmemory

; 255  :         ::operator delete(_Ptr, _Bytes);

  00140	6a 08		 push	 8
  00142	50		 push	 eax
; File C:\Program Files (x86)\Microsoft Visual Studio\2019\Community\VC\Tools\MSVC\14.29.30133\include\utility

; 603  :     _Val         = static_cast<_Other&&>(_New_val);

  00143	c7 43 14 00 00
	00 00		 mov	 DWORD PTR [ebx+20], 0
; File C:\Program Files (x86)\Microsoft Visual Studio\2019\Community\VC\Tools\MSVC\14.29.30133\include\xmemory

; 255  :         ::operator delete(_Ptr, _Bytes);

  0014a	e8 00 00 00 00	 call	 ??3@YAXPAXI@Z		; operator delete
  0014f	68 e8 00 00 00	 push	 232			; 000000e8H
  00154	53		 push	 ebx
  00155	e8 00 00 00 00	 call	 ??3@YAXPAXI@Z		; operator delete
  0015a	83 c4 10	 add	 esp, 16			; 00000010H
$LN221@CToolSingl:
; File D:\git\src\IBK\IBK_DRFN\ProjSrc\SrcChartEx\ChartAddIn\ChartAnalysisToolAddIn\AnalysisTool\ToolSingleton.cpp

; 72   : 	delete m_pHorzLineTool;

  0015d	8b 5f 14	 mov	 ebx, DWORD PTR [edi+20]
  00160	85 db		 test	 ebx, ebx
  00162	74 57		 je	 SHORT $LN295@CToolSingl
  00164	8d 8b 9c 00 00
	00		 lea	 ecx, DWORD PTR [ebx+156]
  0016a	ff 15 00 00 00
	00		 call	 DWORD PTR __imp_??1?$CStringT@DV?$StrTraitMFC_DLL@DV?$ChTraitsCRT@D@ATL@@@@@ATL@@QAE@XZ
; File C:\Program Files (x86)\Microsoft Visual Studio\2019\Community\VC\Tools\MSVC\14.29.30133\include\deque

; 1332 :         _Tidy();

  00170	8d 4b 60	 lea	 ecx, DWORD PTR [ebx+96]
  00173	ff 15 00 00 00
	00		 call	 DWORD PTR __imp_??1?$CStringT@DV?$StrTraitMFC_DLL@DV?$ChTraitsCRT@D@ATL@@@@@ATL@@QAE@XZ
  00179	8d 4b 5c	 lea	 ecx, DWORD PTR [ebx+92]
  0017c	ff 15 00 00 00
	00		 call	 DWORD PTR __imp_??1?$CStringT@DV?$StrTraitMFC_DLL@DV?$ChTraitsCRT@D@ATL@@@@@ATL@@QAE@XZ
  00182	8d 4b 58	 lea	 ecx, DWORD PTR [ebx+88]
  00185	ff 15 00 00 00
	00		 call	 DWORD PTR __imp_??1?$CStringT@DV?$StrTraitMFC_DLL@DV?$ChTraitsCRT@D@ATL@@@@@ATL@@QAE@XZ
  0018b	8d 4b 14	 lea	 ecx, DWORD PTR [ebx+20]
  0018e	e8 00 00 00 00	 call	 ?_Tidy@?$deque@VCBlockRegion@@V?$allocator@VCBlockRegion@@@std@@@std@@AAEXXZ ; std::deque<CBlockRegion,std::allocator<CBlockRegion> >::_Tidy

; 861  :         _Tidy();

  00193	8d 4b 14	 lea	 ecx, DWORD PTR [ebx+20]
  00196	e8 00 00 00 00	 call	 ?_Tidy@?$deque@VCBlockRegion@@V?$allocator@VCBlockRegion@@@std@@@std@@AAEXXZ ; std::deque<CBlockRegion,std::allocator<CBlockRegion> >::_Tidy
; File C:\Program Files (x86)\Microsoft Visual Studio\2019\Community\VC\Tools\MSVC\14.29.30133\include\utility

; 602  :     _Ty _Old_val = static_cast<_Ty&&>(_Val);

  0019b	8b 43 14	 mov	 eax, DWORD PTR [ebx+20]
; File C:\Program Files (x86)\Microsoft Visual Studio\2019\Community\VC\Tools\MSVC\14.29.30133\include\xmemory

; 255  :         ::operator delete(_Ptr, _Bytes);

  0019e	6a 08		 push	 8
  001a0	50		 push	 eax
; File C:\Program Files (x86)\Microsoft Visual Studio\2019\Community\VC\Tools\MSVC\14.29.30133\include\utility

; 603  :     _Val         = static_cast<_Other&&>(_New_val);

  001a1	c7 43 14 00 00
	00 00		 mov	 DWORD PTR [ebx+20], 0
; File C:\Program Files (x86)\Microsoft Visual Studio\2019\Community\VC\Tools\MSVC\14.29.30133\include\xmemory

; 255  :         ::operator delete(_Ptr, _Bytes);

  001a8	e8 00 00 00 00	 call	 ??3@YAXPAXI@Z		; operator delete
  001ad	68 e8 00 00 00	 push	 232			; 000000e8H
  001b2	53		 push	 ebx
  001b3	e8 00 00 00 00	 call	 ??3@YAXPAXI@Z		; operator delete
  001b8	83 c4 10	 add	 esp, 16			; 00000010H
$LN295@CToolSingl:
; File D:\git\src\IBK\IBK_DRFN\ProjSrc\SrcChartEx\ChartAddIn\ChartAnalysisToolAddIn\AnalysisTool\ToolSingleton.cpp

; 74   : 	delete m_pLineTool;

  001bb	8b 77 18	 mov	 esi, DWORD PTR [edi+24]
  001be	85 f6		 test	 esi, esi
  001c0	74 15		 je	 SHORT $LN369@CToolSingl
  001c2	8b ce		 mov	 ecx, esi
  001c4	e8 00 00 00 00	 call	 ??1CTwoPointDownTool@@QAE@XZ
  001c9	68 28 01 00 00	 push	 296			; 00000128H
  001ce	56		 push	 esi
  001cf	e8 00 00 00 00	 call	 ??3@YAXPAXI@Z		; operator delete
  001d4	83 c4 08	 add	 esp, 8
$LN369@CToolSingl:

; 75   : 
; 76   : 	delete m_pTrisectionLineTool;

  001d7	8b 77 1c	 mov	 esi, DWORD PTR [edi+28]
  001da	85 f6		 test	 esi, esi
  001dc	74 15		 je	 SHORT $LN375@CToolSingl
  001de	8b ce		 mov	 ecx, esi
  001e0	e8 00 00 00 00	 call	 ??1CTwoPointDownTool@@QAE@XZ
  001e5	68 20 01 00 00	 push	 288			; 00000120H
  001ea	56		 push	 esi
  001eb	e8 00 00 00 00	 call	 ??3@YAXPAXI@Z		; operator delete
  001f0	83 c4 08	 add	 esp, 8
$LN375@CToolSingl:

; 77   : 	delete m_pQuadrisectLineTool;

  001f3	8b 77 20	 mov	 esi, DWORD PTR [edi+32]
  001f6	85 f6		 test	 esi, esi
  001f8	74 15		 je	 SHORT $LN381@CToolSingl
  001fa	8b ce		 mov	 ecx, esi
  001fc	e8 00 00 00 00	 call	 ??1CTwoPointDownTool@@QAE@XZ
  00201	68 20 01 00 00	 push	 288			; 00000120H
  00206	56		 push	 esi
  00207	e8 00 00 00 00	 call	 ??3@YAXPAXI@Z		; operator delete
  0020c	83 c4 08	 add	 esp, 8
$LN381@CToolSingl:

; 78   : 	delete m_pFiboSemicircleTool;

  0020f	8b 77 24	 mov	 esi, DWORD PTR [edi+36]
  00212	85 f6		 test	 esi, esi
  00214	74 2c		 je	 SHORT $LN387@CToolSingl
  00216	8d 8e 20 01 00
	00		 lea	 ecx, DWORD PTR [esi+288]
  0021c	ff 15 00 00 00
	00		 call	 DWORD PTR __imp_??1?$CStringT@DV?$StrTraitMFC_DLL@DV?$ChTraitsCRT@D@ATL@@@@@ATL@@QAE@XZ
  00222	8d 8e 0c 01 00
	00		 lea	 ecx, DWORD PTR [esi+268]
  00228	e8 00 00 00 00	 call	 ??1CDWordArray@@UAE@XZ	; CDWordArray::~CDWordArray
  0022d	8b ce		 mov	 ecx, esi
  0022f	e8 00 00 00 00	 call	 ??1CTwoPointDownTool@@QAE@XZ
  00234	68 38 01 00 00	 push	 312			; 00000138H
  00239	56		 push	 esi
  0023a	e8 00 00 00 00	 call	 ??3@YAXPAXI@Z		; operator delete
  0023f	83 c4 08	 add	 esp, 8
$LN387@CToolSingl:

; 79   : 	delete m_pFiboCircleTool;

  00242	8b 77 28	 mov	 esi, DWORD PTR [edi+40]
  00245	85 f6		 test	 esi, esi
  00247	74 2c		 je	 SHORT $LN402@CToolSingl
  00249	8d 8e 20 01 00
	00		 lea	 ecx, DWORD PTR [esi+288]
  0024f	ff 15 00 00 00
	00		 call	 DWORD PTR __imp_??1?$CStringT@DV?$StrTraitMFC_DLL@DV?$ChTraitsCRT@D@ATL@@@@@ATL@@QAE@XZ
  00255	8d 8e 0c 01 00
	00		 lea	 ecx, DWORD PTR [esi+268]
  0025b	e8 00 00 00 00	 call	 ??1CDWordArray@@UAE@XZ	; CDWordArray::~CDWordArray
  00260	8b ce		 mov	 ecx, esi
  00262	e8 00 00 00 00	 call	 ??1CTwoPointDownTool@@QAE@XZ
  00267	68 38 01 00 00	 push	 312			; 00000138H
  0026c	56		 push	 esi
  0026d	e8 00 00 00 00	 call	 ??3@YAXPAXI@Z		; operator delete
  00272	83 c4 08	 add	 esp, 8
$LN402@CToolSingl:

; 80   : 	delete m_pFiboPenLineTool;

  00275	8b 77 2c	 mov	 esi, DWORD PTR [edi+44]
  00278	85 f6		 test	 esi, esi
  0027a	74 2c		 je	 SHORT $LN417@CToolSingl
  0027c	8d 8e 20 01 00
	00		 lea	 ecx, DWORD PTR [esi+288]
  00282	ff 15 00 00 00
	00		 call	 DWORD PTR __imp_??1?$CStringT@DV?$StrTraitMFC_DLL@DV?$ChTraitsCRT@D@ATL@@@@@ATL@@QAE@XZ
  00288	8d 8e 0c 01 00
	00		 lea	 ecx, DWORD PTR [esi+268]
  0028e	e8 00 00 00 00	 call	 ??1CDWordArray@@UAE@XZ	; CDWordArray::~CDWordArray
  00293	8b ce		 mov	 ecx, esi
  00295	e8 00 00 00 00	 call	 ??1CTwoPointDownTool@@QAE@XZ
  0029a	68 38 01 00 00	 push	 312			; 00000138H
  0029f	56		 push	 esi
  002a0	e8 00 00 00 00	 call	 ??3@YAXPAXI@Z		; operator delete
  002a5	83 c4 08	 add	 esp, 8
$LN417@CToolSingl:

; 81   : 	delete m_pFiboRetraceTool;

  002a8	8b 77 30	 mov	 esi, DWORD PTR [edi+48]
  002ab	85 f6		 test	 esi, esi
  002ad	74 2c		 je	 SHORT $LN429@CToolSingl
  002af	8d 8e 20 01 00
	00		 lea	 ecx, DWORD PTR [esi+288]
  002b5	ff 15 00 00 00
	00		 call	 DWORD PTR __imp_??1?$CStringT@DV?$StrTraitMFC_DLL@DV?$ChTraitsCRT@D@ATL@@@@@ATL@@QAE@XZ
  002bb	8d 8e 0c 01 00
	00		 lea	 ecx, DWORD PTR [esi+268]
  002c1	e8 00 00 00 00	 call	 ??1CDWordArray@@UAE@XZ	; CDWordArray::~CDWordArray
  002c6	8b ce		 mov	 ecx, esi
  002c8	e8 00 00 00 00	 call	 ??1CTwoPointDownTool@@QAE@XZ
  002cd	68 38 01 00 00	 push	 312			; 00000138H
  002d2	56		 push	 esi
  002d3	e8 00 00 00 00	 call	 ??3@YAXPAXI@Z		; operator delete
  002d8	83 c4 08	 add	 esp, 8
$LN429@CToolSingl:

; 82   : 	delete m_pFiboTimeTool;

  002db	8b 5f 34	 mov	 ebx, DWORD PTR [edi+52]
  002de	85 db		 test	 ebx, ebx
  002e0	74 6e		 je	 SHORT $LN441@CToolSingl
; File C:\Program Files (x86)\Microsoft Visual Studio\2019\Community\VC\Tools\MSVC\14.29.30133\include\deque

; 1332 :         _Tidy();

  002e2	8d 8b dc 00 00
	00		 lea	 ecx, DWORD PTR [ebx+220]
  002e8	ff 15 00 00 00
	00		 call	 DWORD PTR __imp_??1?$CStringT@DV?$StrTraitMFC_DLL@DV?$ChTraitsCRT@D@ATL@@@@@ATL@@QAE@XZ
  002ee	8d 8b c8 00 00
	00		 lea	 ecx, DWORD PTR [ebx+200]
  002f4	e8 00 00 00 00	 call	 ??1CDWordArray@@UAE@XZ	; CDWordArray::~CDWordArray
  002f9	8d 8b 9c 00 00
	00		 lea	 ecx, DWORD PTR [ebx+156]
  002ff	ff 15 00 00 00
	00		 call	 DWORD PTR __imp_??1?$CStringT@DV?$StrTraitMFC_DLL@DV?$ChTraitsCRT@D@ATL@@@@@ATL@@QAE@XZ
  00305	8d 4b 60	 lea	 ecx, DWORD PTR [ebx+96]
  00308	ff 15 00 00 00
	00		 call	 DWORD PTR __imp_??1?$CStringT@DV?$StrTraitMFC_DLL@DV?$ChTraitsCRT@D@ATL@@@@@ATL@@QAE@XZ
  0030e	8d 4b 5c	 lea	 ecx, DWORD PTR [ebx+92]
  00311	ff 15 00 00 00
	00		 call	 DWORD PTR __imp_??1?$CStringT@DV?$StrTraitMFC_DLL@DV?$ChTraitsCRT@D@ATL@@@@@ATL@@QAE@XZ
  00317	8d 4b 58	 lea	 ecx, DWORD PTR [ebx+88]
  0031a	ff 15 00 00 00
	00		 call	 DWORD PTR __imp_??1?$CStringT@DV?$StrTraitMFC_DLL@DV?$ChTraitsCRT@D@ATL@@@@@ATL@@QAE@XZ
  00320	8d 4b 14	 lea	 ecx, DWORD PTR [ebx+20]
  00323	e8 00 00 00 00	 call	 ?_Tidy@?$deque@VCBlockRegion@@V?$allocator@VCBlockRegion@@@std@@@std@@AAEXXZ ; std::deque<CBlockRegion,std::allocator<CBlockRegion> >::_Tidy

; 861  :         _Tidy();

  00328	8d 4b 14	 lea	 ecx, DWORD PTR [ebx+20]
  0032b	e8 00 00 00 00	 call	 ?_Tidy@?$deque@VCBlockRegion@@V?$allocator@VCBlockRegion@@@std@@@std@@AAEXXZ ; std::deque<CBlockRegion,std::allocator<CBlockRegion> >::_Tidy
; File C:\Program Files (x86)\Microsoft Visual Studio\2019\Community\VC\Tools\MSVC\14.29.30133\include\utility

; 602  :     _Ty _Old_val = static_cast<_Ty&&>(_Val);

  00330	8b 43 14	 mov	 eax, DWORD PTR [ebx+20]
; File C:\Program Files (x86)\Microsoft Visual Studio\2019\Community\VC\Tools\MSVC\14.29.30133\include\xmemory

; 255  :         ::operator delete(_Ptr, _Bytes);

  00333	6a 08		 push	 8
  00335	50		 push	 eax
; File C:\Program Files (x86)\Microsoft Visual Studio\2019\Community\VC\Tools\MSVC\14.29.30133\include\utility

; 603  :     _Val         = static_cast<_Other&&>(_New_val);

  00336	c7 43 14 00 00
	00 00		 mov	 DWORD PTR [ebx+20], 0
; File C:\Program Files (x86)\Microsoft Visual Studio\2019\Community\VC\Tools\MSVC\14.29.30133\include\xmemory

; 255  :         ::operator delete(_Ptr, _Bytes);

  0033d	e8 00 00 00 00	 call	 ??3@YAXPAXI@Z		; operator delete
  00342	68 00 01 00 00	 push	 256			; 00000100H
  00347	53		 push	 ebx
  00348	e8 00 00 00 00	 call	 ??3@YAXPAXI@Z		; operator delete
  0034d	83 c4 10	 add	 esp, 16			; 00000010H
$LN441@CToolSingl:
; File D:\git\src\IBK\IBK_DRFN\ProjSrc\SrcChartEx\ChartAddIn\ChartAnalysisToolAddIn\AnalysisTool\ToolSingleton.cpp

; 83   : 	delete m_pGannLine45Tool;

  00350	8b 5f 38	 mov	 ebx, DWORD PTR [edi+56]
  00353	85 db		 test	 ebx, ebx
  00355	74 57		 je	 SHORT $LN518@CToolSingl
  00357	8d 8b 9c 00 00
	00		 lea	 ecx, DWORD PTR [ebx+156]
  0035d	ff 15 00 00 00
	00		 call	 DWORD PTR __imp_??1?$CStringT@DV?$StrTraitMFC_DLL@DV?$ChTraitsCRT@D@ATL@@@@@ATL@@QAE@XZ
; File C:\Program Files (x86)\Microsoft Visual Studio\2019\Community\VC\Tools\MSVC\14.29.30133\include\deque

; 1332 :         _Tidy();

  00363	8d 4b 60	 lea	 ecx, DWORD PTR [ebx+96]
  00366	ff 15 00 00 00
	00		 call	 DWORD PTR __imp_??1?$CStringT@DV?$StrTraitMFC_DLL@DV?$ChTraitsCRT@D@ATL@@@@@ATL@@QAE@XZ
  0036c	8d 4b 5c	 lea	 ecx, DWORD PTR [ebx+92]
  0036f	ff 15 00 00 00
	00		 call	 DWORD PTR __imp_??1?$CStringT@DV?$StrTraitMFC_DLL@DV?$ChTraitsCRT@D@ATL@@@@@ATL@@QAE@XZ
  00375	8d 4b 58	 lea	 ecx, DWORD PTR [ebx+88]
  00378	ff 15 00 00 00
	00		 call	 DWORD PTR __imp_??1?$CStringT@DV?$StrTraitMFC_DLL@DV?$ChTraitsCRT@D@ATL@@@@@ATL@@QAE@XZ
  0037e	8d 4b 14	 lea	 ecx, DWORD PTR [ebx+20]
  00381	e8 00 00 00 00	 call	 ?_Tidy@?$deque@VCBlockRegion@@V?$allocator@VCBlockRegion@@@std@@@std@@AAEXXZ ; std::deque<CBlockRegion,std::allocator<CBlockRegion> >::_Tidy

; 861  :         _Tidy();

  00386	8d 4b 14	 lea	 ecx, DWORD PTR [ebx+20]
  00389	e8 00 00 00 00	 call	 ?_Tidy@?$deque@VCBlockRegion@@V?$allocator@VCBlockRegion@@@std@@@std@@AAEXXZ ; std::deque<CBlockRegion,std::allocator<CBlockRegion> >::_Tidy
; File C:\Program Files (x86)\Microsoft Visual Studio\2019\Community\VC\Tools\MSVC\14.29.30133\include\utility

; 602  :     _Ty _Old_val = static_cast<_Ty&&>(_Val);

  0038e	8b 43 14	 mov	 eax, DWORD PTR [ebx+20]
; File C:\Program Files (x86)\Microsoft Visual Studio\2019\Community\VC\Tools\MSVC\14.29.30133\include\xmemory

; 255  :         ::operator delete(_Ptr, _Bytes);

  00391	6a 08		 push	 8
  00393	50		 push	 eax
; File C:\Program Files (x86)\Microsoft Visual Studio\2019\Community\VC\Tools\MSVC\14.29.30133\include\utility

; 603  :     _Val         = static_cast<_Other&&>(_New_val);

  00394	c7 43 14 00 00
	00 00		 mov	 DWORD PTR [ebx+20], 0
; File C:\Program Files (x86)\Microsoft Visual Studio\2019\Community\VC\Tools\MSVC\14.29.30133\include\xmemory

; 255  :         ::operator delete(_Ptr, _Bytes);

  0039b	e8 00 00 00 00	 call	 ??3@YAXPAXI@Z		; operator delete
  003a0	68 d0 00 00 00	 push	 208			; 000000d0H
  003a5	53		 push	 ebx
  003a6	e8 00 00 00 00	 call	 ??3@YAXPAXI@Z		; operator delete
  003ab	83 c4 10	 add	 esp, 16			; 00000010H
$LN518@CToolSingl:
; File D:\git\src\IBK\IBK_DRFN\ProjSrc\SrcChartEx\ChartAddIn\ChartAnalysisToolAddIn\AnalysisTool\ToolSingleton.cpp

; 84   : 	delete m_pGannLine315Tool;

  003ae	8b 5f 3c	 mov	 ebx, DWORD PTR [edi+60]
  003b1	85 db		 test	 ebx, ebx
  003b3	74 57		 je	 SHORT $LN600@CToolSingl
  003b5	8d 8b 9c 00 00
	00		 lea	 ecx, DWORD PTR [ebx+156]
  003bb	ff 15 00 00 00
	00		 call	 DWORD PTR __imp_??1?$CStringT@DV?$StrTraitMFC_DLL@DV?$ChTraitsCRT@D@ATL@@@@@ATL@@QAE@XZ
; File C:\Program Files (x86)\Microsoft Visual Studio\2019\Community\VC\Tools\MSVC\14.29.30133\include\deque

; 1332 :         _Tidy();

  003c1	8d 4b 60	 lea	 ecx, DWORD PTR [ebx+96]
  003c4	ff 15 00 00 00
	00		 call	 DWORD PTR __imp_??1?$CStringT@DV?$StrTraitMFC_DLL@DV?$ChTraitsCRT@D@ATL@@@@@ATL@@QAE@XZ
  003ca	8d 4b 5c	 lea	 ecx, DWORD PTR [ebx+92]
  003cd	ff 15 00 00 00
	00		 call	 DWORD PTR __imp_??1?$CStringT@DV?$StrTraitMFC_DLL@DV?$ChTraitsCRT@D@ATL@@@@@ATL@@QAE@XZ
  003d3	8d 4b 58	 lea	 ecx, DWORD PTR [ebx+88]
  003d6	ff 15 00 00 00
	00		 call	 DWORD PTR __imp_??1?$CStringT@DV?$StrTraitMFC_DLL@DV?$ChTraitsCRT@D@ATL@@@@@ATL@@QAE@XZ
  003dc	8d 4b 14	 lea	 ecx, DWORD PTR [ebx+20]
  003df	e8 00 00 00 00	 call	 ?_Tidy@?$deque@VCBlockRegion@@V?$allocator@VCBlockRegion@@@std@@@std@@AAEXXZ ; std::deque<CBlockRegion,std::allocator<CBlockRegion> >::_Tidy

; 861  :         _Tidy();

  003e4	8d 4b 14	 lea	 ecx, DWORD PTR [ebx+20]
  003e7	e8 00 00 00 00	 call	 ?_Tidy@?$deque@VCBlockRegion@@V?$allocator@VCBlockRegion@@@std@@@std@@AAEXXZ ; std::deque<CBlockRegion,std::allocator<CBlockRegion> >::_Tidy
; File C:\Program Files (x86)\Microsoft Visual Studio\2019\Community\VC\Tools\MSVC\14.29.30133\include\utility

; 602  :     _Ty _Old_val = static_cast<_Ty&&>(_Val);

  003ec	8b 43 14	 mov	 eax, DWORD PTR [ebx+20]
; File C:\Program Files (x86)\Microsoft Visual Studio\2019\Community\VC\Tools\MSVC\14.29.30133\include\xmemory

; 255  :         ::operator delete(_Ptr, _Bytes);

  003ef	6a 08		 push	 8
  003f1	50		 push	 eax
; File C:\Program Files (x86)\Microsoft Visual Studio\2019\Community\VC\Tools\MSVC\14.29.30133\include\utility

; 603  :     _Val         = static_cast<_Other&&>(_New_val);

  003f2	c7 43 14 00 00
	00 00		 mov	 DWORD PTR [ebx+20], 0
; File C:\Program Files (x86)\Microsoft Visual Studio\2019\Community\VC\Tools\MSVC\14.29.30133\include\xmemory

; 255  :         ::operator delete(_Ptr, _Bytes);

  003f9	e8 00 00 00 00	 call	 ??3@YAXPAXI@Z		; operator delete
  003fe	68 d0 00 00 00	 push	 208			; 000000d0H
  00403	53		 push	 ebx
  00404	e8 00 00 00 00	 call	 ??3@YAXPAXI@Z		; operator delete
  00409	83 c4 10	 add	 esp, 16			; 00000010H
$LN600@CToolSingl:
; File D:\git\src\IBK\IBK_DRFN\ProjSrc\SrcChartEx\ChartAddIn\ChartAnalysisToolAddIn\AnalysisTool\ToolSingleton.cpp

; 85   : 	delete m_pGannFan45Tool;

  0040c	8b 5f 40	 mov	 ebx, DWORD PTR [edi+64]
  0040f	85 db		 test	 ebx, ebx
  00411	74 57		 je	 SHORT $LN682@CToolSingl
  00413	8d 8b 9c 00 00
	00		 lea	 ecx, DWORD PTR [ebx+156]
  00419	ff 15 00 00 00
	00		 call	 DWORD PTR __imp_??1?$CStringT@DV?$StrTraitMFC_DLL@DV?$ChTraitsCRT@D@ATL@@@@@ATL@@QAE@XZ
; File C:\Program Files (x86)\Microsoft Visual Studio\2019\Community\VC\Tools\MSVC\14.29.30133\include\deque

; 1332 :         _Tidy();

  0041f	8d 4b 60	 lea	 ecx, DWORD PTR [ebx+96]
  00422	ff 15 00 00 00
	00		 call	 DWORD PTR __imp_??1?$CStringT@DV?$StrTraitMFC_DLL@DV?$ChTraitsCRT@D@ATL@@@@@ATL@@QAE@XZ
  00428	8d 4b 5c	 lea	 ecx, DWORD PTR [ebx+92]
  0042b	ff 15 00 00 00
	00		 call	 DWORD PTR __imp_??1?$CStringT@DV?$StrTraitMFC_DLL@DV?$ChTraitsCRT@D@ATL@@@@@ATL@@QAE@XZ
  00431	8d 4b 58	 lea	 ecx, DWORD PTR [ebx+88]
  00434	ff 15 00 00 00
	00		 call	 DWORD PTR __imp_??1?$CStringT@DV?$StrTraitMFC_DLL@DV?$ChTraitsCRT@D@ATL@@@@@ATL@@QAE@XZ
  0043a	8d 4b 14	 lea	 ecx, DWORD PTR [ebx+20]
  0043d	e8 00 00 00 00	 call	 ?_Tidy@?$deque@VCBlockRegion@@V?$allocator@VCBlockRegion@@@std@@@std@@AAEXXZ ; std::deque<CBlockRegion,std::allocator<CBlockRegion> >::_Tidy

; 861  :         _Tidy();

  00442	8d 4b 14	 lea	 ecx, DWORD PTR [ebx+20]
  00445	e8 00 00 00 00	 call	 ?_Tidy@?$deque@VCBlockRegion@@V?$allocator@VCBlockRegion@@@std@@@std@@AAEXXZ ; std::deque<CBlockRegion,std::allocator<CBlockRegion> >::_Tidy
; File C:\Program Files (x86)\Microsoft Visual Studio\2019\Community\VC\Tools\MSVC\14.29.30133\include\utility

; 602  :     _Ty _Old_val = static_cast<_Ty&&>(_Val);

  0044a	8b 43 14	 mov	 eax, DWORD PTR [ebx+20]
; File C:\Program Files (x86)\Microsoft Visual Studio\2019\Community\VC\Tools\MSVC\14.29.30133\include\xmemory

; 255  :         ::operator delete(_Ptr, _Bytes);

  0044d	6a 08		 push	 8
  0044f	50		 push	 eax
; File C:\Program Files (x86)\Microsoft Visual Studio\2019\Community\VC\Tools\MSVC\14.29.30133\include\utility

; 603  :     _Val         = static_cast<_Other&&>(_New_val);

  00450	c7 43 14 00 00
	00 00		 mov	 DWORD PTR [ebx+20], 0
; File C:\Program Files (x86)\Microsoft Visual Studio\2019\Community\VC\Tools\MSVC\14.29.30133\include\xmemory

; 255  :         ::operator delete(_Ptr, _Bytes);

  00457	e8 00 00 00 00	 call	 ??3@YAXPAXI@Z		; operator delete
  0045c	68 d8 00 00 00	 push	 216			; 000000d8H
  00461	53		 push	 ebx
  00462	e8 00 00 00 00	 call	 ??3@YAXPAXI@Z		; operator delete
  00467	83 c4 10	 add	 esp, 16			; 00000010H
$LN682@CToolSingl:
; File D:\git\src\IBK\IBK_DRFN\ProjSrc\SrcChartEx\ChartAddIn\ChartAnalysisToolAddIn\AnalysisTool\ToolSingleton.cpp

; 86   : 	delete m_pGannFan135Tool;

  0046a	8b 5f 44	 mov	 ebx, DWORD PTR [edi+68]
  0046d	85 db		 test	 ebx, ebx
  0046f	74 57		 je	 SHORT $LN764@CToolSingl
  00471	8d 8b 9c 00 00
	00		 lea	 ecx, DWORD PTR [ebx+156]
  00477	ff 15 00 00 00
	00		 call	 DWORD PTR __imp_??1?$CStringT@DV?$StrTraitMFC_DLL@DV?$ChTraitsCRT@D@ATL@@@@@ATL@@QAE@XZ
; File C:\Program Files (x86)\Microsoft Visual Studio\2019\Community\VC\Tools\MSVC\14.29.30133\include\deque

; 1332 :         _Tidy();

  0047d	8d 4b 60	 lea	 ecx, DWORD PTR [ebx+96]
  00480	ff 15 00 00 00
	00		 call	 DWORD PTR __imp_??1?$CStringT@DV?$StrTraitMFC_DLL@DV?$ChTraitsCRT@D@ATL@@@@@ATL@@QAE@XZ
  00486	8d 4b 5c	 lea	 ecx, DWORD PTR [ebx+92]
  00489	ff 15 00 00 00
	00		 call	 DWORD PTR __imp_??1?$CStringT@DV?$StrTraitMFC_DLL@DV?$ChTraitsCRT@D@ATL@@@@@ATL@@QAE@XZ
  0048f	8d 4b 58	 lea	 ecx, DWORD PTR [ebx+88]
  00492	ff 15 00 00 00
	00		 call	 DWORD PTR __imp_??1?$CStringT@DV?$StrTraitMFC_DLL@DV?$ChTraitsCRT@D@ATL@@@@@ATL@@QAE@XZ
  00498	8d 4b 14	 lea	 ecx, DWORD PTR [ebx+20]
  0049b	e8 00 00 00 00	 call	 ?_Tidy@?$deque@VCBlockRegion@@V?$allocator@VCBlockRegion@@@std@@@std@@AAEXXZ ; std::deque<CBlockRegion,std::allocator<CBlockRegion> >::_Tidy

; 861  :         _Tidy();

  004a0	8d 4b 14	 lea	 ecx, DWORD PTR [ebx+20]
  004a3	e8 00 00 00 00	 call	 ?_Tidy@?$deque@VCBlockRegion@@V?$allocator@VCBlockRegion@@@std@@@std@@AAEXXZ ; std::deque<CBlockRegion,std::allocator<CBlockRegion> >::_Tidy
; File C:\Program Files (x86)\Microsoft Visual Studio\2019\Community\VC\Tools\MSVC\14.29.30133\include\utility

; 602  :     _Ty _Old_val = static_cast<_Ty&&>(_Val);

  004a8	8b 43 14	 mov	 eax, DWORD PTR [ebx+20]
; File C:\Program Files (x86)\Microsoft Visual Studio\2019\Community\VC\Tools\MSVC\14.29.30133\include\xmemory

; 255  :         ::operator delete(_Ptr, _Bytes);

  004ab	6a 08		 push	 8
  004ad	50		 push	 eax
; File C:\Program Files (x86)\Microsoft Visual Studio\2019\Community\VC\Tools\MSVC\14.29.30133\include\utility

; 603  :     _Val         = static_cast<_Other&&>(_New_val);

  004ae	c7 43 14 00 00
	00 00		 mov	 DWORD PTR [ebx+20], 0
; File C:\Program Files (x86)\Microsoft Visual Studio\2019\Community\VC\Tools\MSVC\14.29.30133\include\xmemory

; 255  :         ::operator delete(_Ptr, _Bytes);

  004b5	e8 00 00 00 00	 call	 ??3@YAXPAXI@Z		; operator delete
  004ba	68 d8 00 00 00	 push	 216			; 000000d8H
  004bf	53		 push	 ebx
  004c0	e8 00 00 00 00	 call	 ??3@YAXPAXI@Z		; operator delete
  004c5	83 c4 10	 add	 esp, 16			; 00000010H
$LN764@CToolSingl:
; File D:\git\src\IBK\IBK_DRFN\ProjSrc\SrcChartEx\ChartAddIn\ChartAnalysisToolAddIn\AnalysisTool\ToolSingleton.cpp

; 87   : 	delete m_pGannFan225Tool;

  004c8	8b 77 48	 mov	 esi, DWORD PTR [edi+72]
  004cb	85 f6		 test	 esi, esi
  004cd	74 15		 je	 SHORT $LN846@CToolSingl
  004cf	8b ce		 mov	 ecx, esi
  004d1	e8 00 00 00 00	 call	 ??1CGannFanTool@@QAE@XZ
  004d6	68 d8 00 00 00	 push	 216			; 000000d8H
  004db	56		 push	 esi
  004dc	e8 00 00 00 00	 call	 ??3@YAXPAXI@Z		; operator delete
  004e1	83 c4 08	 add	 esp, 8
$LN846@CToolSingl:

; 88   : 	delete m_pGannFan315Tool;

  004e4	8b 77 4c	 mov	 esi, DWORD PTR [edi+76]
  004e7	85 f6		 test	 esi, esi
  004e9	74 15		 je	 SHORT $LN852@CToolSingl
  004eb	8b ce		 mov	 ecx, esi
  004ed	e8 00 00 00 00	 call	 ??1CGannFanTool@@QAE@XZ
  004f2	68 d8 00 00 00	 push	 216			; 000000d8H
  004f7	56		 push	 esi
  004f8	e8 00 00 00 00	 call	 ??3@YAXPAXI@Z		; operator delete
  004fd	83 c4 08	 add	 esp, 8
$LN852@CToolSingl:

; 89   : 	delete m_pGannGridTool;

  00500	8b 77 50	 mov	 esi, DWORD PTR [edi+80]
  00503	85 f6		 test	 esi, esi
  00505	74 15		 je	 SHORT $LN858@CToolSingl
  00507	8b ce		 mov	 ecx, esi
  00509	e8 00 00 00 00	 call	 ??1CGannTool@@QAE@XZ
  0050e	68 d0 00 00 00	 push	 208			; 000000d0H
  00513	56		 push	 esi
  00514	e8 00 00 00 00	 call	 ??3@YAXPAXI@Z		; operator delete
  00519	83 c4 08	 add	 esp, 8
$LN858@CToolSingl:

; 90   : 	delete m_pAndrewsTool;

  0051c	8b 77 54	 mov	 esi, DWORD PTR [edi+84]
  0051f	85 f6		 test	 esi, esi
  00521	74 15		 je	 SHORT $LN864@CToolSingl
  00523	8b ce		 mov	 ecx, esi
  00525	e8 00 00 00 00	 call	 ??1CThreePointDownTool@@QAE@XZ
  0052a	68 18 01 00 00	 push	 280			; 00000118H
  0052f	56		 push	 esi
  00530	e8 00 00 00 00	 call	 ??3@YAXPAXI@Z		; operator delete
  00535	83 c4 08	 add	 esp, 8
$LN864@CToolSingl:

; 91   : 	delete m_pCycleLinesTool;

  00538	8b 77 58	 mov	 esi, DWORD PTR [edi+88]
  0053b	85 f6		 test	 esi, esi
  0053d	74 15		 je	 SHORT $LN870@CToolSingl
  0053f	8b ce		 mov	 ecx, esi
  00541	e8 00 00 00 00	 call	 ??1CTwoPointDownTool@@QAE@XZ
  00546	68 20 01 00 00	 push	 288			; 00000120H
  0054b	56		 push	 esi
  0054c	e8 00 00 00 00	 call	 ??3@YAXPAXI@Z		; operator delete
  00551	83 c4 08	 add	 esp, 8
$LN870@CToolSingl:

; 92   : 	delete m_pSpeedLineTool;

  00554	8b 77 5c	 mov	 esi, DWORD PTR [edi+92]
  00557	85 f6		 test	 esi, esi
  00559	74 15		 je	 SHORT $LN876@CToolSingl
  0055b	8b ce		 mov	 ecx, esi
  0055d	e8 00 00 00 00	 call	 ??1CTwoPointDownTool@@QAE@XZ
  00562	68 18 01 00 00	 push	 280			; 00000118H
  00567	56		 push	 esi
  00568	e8 00 00 00 00	 call	 ??3@YAXPAXI@Z		; operator delete
  0056d	83 c4 08	 add	 esp, 8
$LN876@CToolSingl:

; 93   : 	delete m_pSpeedFanTool;

  00570	8b 77 60	 mov	 esi, DWORD PTR [edi+96]
  00573	85 f6		 test	 esi, esi
  00575	74 15		 je	 SHORT $LN882@CToolSingl
  00577	8b ce		 mov	 ecx, esi
  00579	e8 00 00 00 00	 call	 ??1CTwoPointDownTool@@QAE@XZ
  0057e	68 18 01 00 00	 push	 280			; 00000118H
  00583	56		 push	 esi
  00584	e8 00 00 00 00	 call	 ??3@YAXPAXI@Z		; operator delete
  00589	83 c4 08	 add	 esp, 8
$LN882@CToolSingl:

; 94   : 	delete m_pSpeedArcTool;

  0058c	8b 77 64	 mov	 esi, DWORD PTR [edi+100]
  0058f	85 f6		 test	 esi, esi
  00591	74 15		 je	 SHORT $LN888@CToolSingl
  00593	8b ce		 mov	 ecx, esi
  00595	e8 00 00 00 00	 call	 ??1CTwoPointDownTool@@QAE@XZ
  0059a	68 18 01 00 00	 push	 280			; 00000118H
  0059f	56		 push	 esi
  005a0	e8 00 00 00 00	 call	 ??3@YAXPAXI@Z		; operator delete
  005a5	83 c4 08	 add	 esp, 8
$LN888@CToolSingl:

; 95   : 	delete m_pLinearRegressionTool;

  005a8	8b 77 68	 mov	 esi, DWORD PTR [edi+104]
  005ab	85 f6		 test	 esi, esi
  005ad	74 15		 je	 SHORT $LN894@CToolSingl
  005af	8b ce		 mov	 ecx, esi
  005b1	e8 00 00 00 00	 call	 ??1CTwoPointDownTool@@QAE@XZ
  005b6	68 18 01 00 00	 push	 280			; 00000118H
  005bb	56		 push	 esi
  005bc	e8 00 00 00 00	 call	 ??3@YAXPAXI@Z		; operator delete
  005c1	83 c4 08	 add	 esp, 8
$LN894@CToolSingl:

; 96   : 	delete m_pRaffRegressionTool;

  005c4	8b 77 6c	 mov	 esi, DWORD PTR [edi+108]
  005c7	85 f6		 test	 esi, esi
  005c9	74 15		 je	 SHORT $LN900@CToolSingl
  005cb	8b ce		 mov	 ecx, esi
  005cd	e8 00 00 00 00	 call	 ??1CTwoPointDownTool@@QAE@XZ
  005d2	68 20 01 00 00	 push	 288			; 00000120H
  005d7	56		 push	 esi
  005d8	e8 00 00 00 00	 call	 ??3@YAXPAXI@Z		; operator delete
  005dd	83 c4 08	 add	 esp, 8
$LN900@CToolSingl:

; 97   : 	delete m_pAngleLineTool;

  005e0	8b 77 70	 mov	 esi, DWORD PTR [edi+112]
  005e3	85 f6		 test	 esi, esi
  005e5	74 15		 je	 SHORT $LN906@CToolSingl
  005e7	8b ce		 mov	 ecx, esi
  005e9	e8 00 00 00 00	 call	 ??1CTwoPointDownTool@@QAE@XZ
  005ee	68 20 01 00 00	 push	 288			; 00000120H
  005f3	56		 push	 esi
  005f4	e8 00 00 00 00	 call	 ??3@YAXPAXI@Z		; operator delete
  005f9	83 c4 08	 add	 esp, 8
$LN906@CToolSingl:

; 98   : 	delete m_pCandleLineTool;

  005fc	8b 77 74	 mov	 esi, DWORD PTR [edi+116]
  005ff	85 f6		 test	 esi, esi
  00601	74 15		 je	 SHORT $LN912@CToolSingl
  00603	8b ce		 mov	 ecx, esi
  00605	e8 00 00 00 00	 call	 ??1COnePointMoveTool@@QAE@XZ
  0060a	68 d8 00 00 00	 push	 216			; 000000d8H
  0060f	56		 push	 esi
  00610	e8 00 00 00 00	 call	 ??3@YAXPAXI@Z		; operator delete
  00615	83 c4 08	 add	 esp, 8
$LN912@CToolSingl:

; 99   : 	delete m_pCandleBongTool;

  00618	8b 77 78	 mov	 esi, DWORD PTR [edi+120]
  0061b	85 f6		 test	 esi, esi
  0061d	74 15		 je	 SHORT $LN918@CToolSingl
  0061f	8b ce		 mov	 ecx, esi
  00621	e8 00 00 00 00	 call	 ??1CTwoPointDownTool@@QAE@XZ
  00626	68 18 01 00 00	 push	 280			; 00000118H
  0062b	56		 push	 esi
  0062c	e8 00 00 00 00	 call	 ??3@YAXPAXI@Z		; operator delete
  00631	83 c4 08	 add	 esp, 8
$LN918@CToolSingl:

; 100  : 	delete m_pPencilLineTool;

  00634	8b 77 7c	 mov	 esi, DWORD PTR [edi+124]
  00637	85 f6		 test	 esi, esi
  00639	74 34		 je	 SHORT $LN924@CToolSingl
  0063b	68 00 00 00 00	 push	 OFFSET ??1CPoints@@QAE@XZ
  00640	68 f4 01 00 00	 push	 500			; 000001f4H
  00645	6a 28		 push	 40			; 00000028H
  00647	8d 86 88 00 00
	00		 lea	 eax, DWORD PTR [esi+136]
  0064d	c7 45 fc 00 00
	00 00		 mov	 DWORD PTR __$EHRec$[ebp+8], 0
  00654	50		 push	 eax
  00655	e8 00 00 00 00	 call	 ??_M@YGXPAXIIP6EX0@Z@Z
  0065a	8b ce		 mov	 ecx, esi
  0065c	e8 00 00 00 00	 call	 ??1CDownTool@@QAE@XZ
  00661	68 c0 4e 00 00	 push	 20160			; 00004ec0H
  00666	56		 push	 esi
  00667	e8 00 00 00 00	 call	 ??3@YAXPAXI@Z		; operator delete
  0066c	83 c4 08	 add	 esp, 8
$LN924@CToolSingl:

; 101  : 	delete m_pPeriodLineTool;

  0066f	8b b7 80 00 00
	00		 mov	 esi, DWORD PTR [edi+128]
  00675	85 f6		 test	 esi, esi
  00677	74 15		 je	 SHORT $LN933@CToolSingl
  00679	8b ce		 mov	 ecx, esi
  0067b	e8 00 00 00 00	 call	 ??1CTwoPointDownTool@@QAE@XZ
  00680	68 20 01 00 00	 push	 288			; 00000120H
  00685	56		 push	 esi
  00686	e8 00 00 00 00	 call	 ??3@YAXPAXI@Z		; operator delete
  0068b	83 c4 08	 add	 esp, 8
$LN933@CToolSingl:

; 102  : 	delete m_pElliotLineTool;

  0068e	8b b7 84 00 00
	00		 mov	 esi, DWORD PTR [edi+132]
  00694	85 f6		 test	 esi, esi
  00696	74 15		 je	 SHORT $LN939@CToolSingl
  00698	8b ce		 mov	 ecx, esi
  0069a	e8 00 00 00 00	 call	 ??1CTwoPointDownTool@@QAE@XZ
  0069f	68 18 01 00 00	 push	 280			; 00000118H
  006a4	56		 push	 esi
  006a5	e8 00 00 00 00	 call	 ??3@YAXPAXI@Z		; operator delete
  006aa	83 c4 08	 add	 esp, 8
$LN939@CToolSingl:

; 103  : 	delete m_pAdjustRatioTool;

  006ad	8b b7 88 00 00
	00		 mov	 esi, DWORD PTR [edi+136]
  006b3	85 f6		 test	 esi, esi
  006b5	74 15		 je	 SHORT $LN945@CToolSingl
  006b7	8b ce		 mov	 ecx, esi
  006b9	e8 00 00 00 00	 call	 ??1CThreePointDownTool@@QAE@XZ
  006be	68 18 01 00 00	 push	 280			; 00000118H
  006c3	56		 push	 esi
  006c4	e8 00 00 00 00	 call	 ??3@YAXPAXI@Z		; operator delete
  006c9	83 c4 08	 add	 esp, 8
$LN945@CToolSingl:

; 104  : 
; 105  : 	delete m_pBalanceBasicTool;		// 2014.09.24  : 0010862: [7111]    []  IBK   

  006cc	8b b7 8c 00 00
	00		 mov	 esi, DWORD PTR [edi+140]
  006d2	85 f6		 test	 esi, esi
  006d4	74 2c		 je	 SHORT $LN951@CToolSingl
  006d6	8d 8e dc 00 00
	00		 lea	 ecx, DWORD PTR [esi+220]
  006dc	ff 15 00 00 00
	00		 call	 DWORD PTR __imp_??1?$CStringT@DV?$StrTraitMFC_DLL@DV?$ChTraitsCRT@D@ATL@@@@@ATL@@QAE@XZ
  006e2	8d 8e c8 00 00
	00		 lea	 ecx, DWORD PTR [esi+200]
  006e8	e8 00 00 00 00	 call	 ??1CDWordArray@@UAE@XZ	; CDWordArray::~CDWordArray
  006ed	8b ce		 mov	 ecx, esi
  006ef	e8 00 00 00 00	 call	 ??1COnePointMoveTool@@QAE@XZ
  006f4	68 00 01 00 00	 push	 256			; 00000100H
  006f9	56		 push	 esi
  006fa	e8 00 00 00 00	 call	 ??3@YAXPAXI@Z		; operator delete
  006ff	83 c4 08	 add	 esp, 8
$LN951@CToolSingl:

; 106  : }

  00702	8b 4d f4	 mov	 ecx, DWORD PTR __$EHRec$[ebp]
  00705	64 89 0d 00 00
	00 00		 mov	 DWORD PTR fs:0, ecx
  0070c	59		 pop	 ecx
  0070d	5f		 pop	 edi
  0070e	5e		 pop	 esi
  0070f	5b		 pop	 ebx
  00710	8b e5		 mov	 esp, ebp
  00712	5d		 pop	 ebp
  00713	c3		 ret	 0
  00714	cc		 int	 3
  00715	cc		 int	 3
  00716	cc		 int	 3
  00717	cc		 int	 3
  00718	cc		 int	 3
_TEXT	ENDS
;	COMDAT text$x
text$x	SEGMENT
__ehhandler$??1CToolSingleton@@QAE@XZ:
  00000	90		 npad	 1
  00001	90		 npad	 1
  00002	8b 54 24 08	 mov	 edx, DWORD PTR [esp+8]
  00006	8d 42 0c	 lea	 eax, DWORD PTR [edx+12]
  00009	8b 4a f0	 mov	 ecx, DWORD PTR [edx-16]
  0000c	33 c8		 xor	 ecx, eax
  0000e	e8 00 00 00 00	 call	 @__security_check_cookie@4
  00013	b8 00 00 00 00	 mov	 eax, OFFSET __ehfuncinfo$??1CToolSingleton@@QAE@XZ
  00018	e9 00 00 00 00	 jmp	 ___CxxFrameHandler3
text$x	ENDS
??1CToolSingleton@@QAE@XZ ENDP				; CToolSingleton::~CToolSingleton
; Function compile flags: /Ogtp
; File D:\git\src\IBK\IBK_DRFN\ProjSrc\SrcChartEx\ChartAddIn\ChartAnalysisToolAddIn\AnalysisTool\ToolSingleton.cpp
;	COMDAT ??0CToolSingleton@@QAE@PAVCAnalysisData@@@Z
_TEXT	SEGMENT
$T2 = -16						; size = 4
__$EHRec$ = -12						; size = 12
$T3 = 8							; size = 4
$T4 = 8							; size = 4
$T5 = 8							; size = 4
$T6 = 8							; size = 4
$T7 = 8							; size = 4
$T8 = 8							; size = 4
$T9 = 8							; size = 4
$T10 = 8						; size = 4
$T11 = 8						; size = 4
$T12 = 8						; size = 4
$T13 = 8						; size = 4
$T14 = 8						; size = 4
$T15 = 8						; size = 4
$T16 = 8						; size = 4
$T17 = 8						; size = 4
$T18 = 8						; size = 4
$T19 = 8						; size = 4
$T20 = 8						; size = 4
$T21 = 8						; size = 4
$T22 = 8						; size = 4
$T23 = 8						; size = 4
$T24 = 8						; size = 4
$T25 = 8						; size = 4
$T26 = 8						; size = 4
$T27 = 8						; size = 4
$T28 = 8						; size = 4
$T29 = 8						; size = 4
$T30 = 8						; size = 4
$T31 = 8						; size = 4
$T32 = 8						; size = 4
$T33 = 8						; size = 4
$T34 = 8						; size = 4
$T35 = 8						; size = 4
$T36 = 8						; size = 4
_pAnalysisData$ = 8					; size = 4
??0CToolSingleton@@QAE@PAVCAnalysisData@@@Z PROC	; CToolSingleton::CToolSingleton, COMDAT
; _this$ = ecx

; 26   : {

  00000	55		 push	 ebp
  00001	8b ec		 mov	 ebp, esp
  00003	6a ff		 push	 -1
  00005	68 00 00 00 00	 push	 __ehhandler$??0CToolSingleton@@QAE@PAVCAnalysisData@@@Z
  0000a	64 a1 00 00 00
	00		 mov	 eax, DWORD PTR fs:0
  00010	50		 push	 eax
  00011	51		 push	 ecx
  00012	56		 push	 esi
  00013	57		 push	 edi
  00014	a1 00 00 00 00	 mov	 eax, DWORD PTR ___security_cookie
  00019	33 c5		 xor	 eax, ebp
  0001b	50		 push	 eax
  0001c	8d 45 f4	 lea	 eax, DWORD PTR __$EHRec$[ebp]
  0001f	64 a3 00 00 00
	00		 mov	 DWORD PTR fs:0, eax
  00025	8b f1		 mov	 esi, ecx

; 27   : 	m_pSelectingTool = new CSelectingTool(pAnalysisData);

  00027	68 b8 00 00 00	 push	 184			; 000000b8H
  0002c	e8 00 00 00 00	 call	 ??2@YAPAXI@Z		; operator new
  00031	83 c4 04	 add	 esp, 4
  00034	89 45 f0	 mov	 DWORD PTR $T2[ebp], eax
  00037	8b 7d 08	 mov	 edi, DWORD PTR _pAnalysisData$[ebp]
  0003a	c7 45 fc 00 00
	00 00		 mov	 DWORD PTR __$EHRec$[ebp+8], 0
  00041	85 c0		 test	 eax, eax
  00043	74 0c		 je	 SHORT $LN3@CToolSingl
  00045	6a 00		 push	 0
  00047	57		 push	 edi
  00048	8b c8		 mov	 ecx, eax
  0004a	e8 00 00 00 00	 call	 ??0CSelectingTool@@QAE@PAVCAnalysisData@@W4COORDINATETYPE@CAnalysis@@@Z ; CSelectingTool::CSelectingTool
  0004f	eb 02		 jmp	 SHORT $LN4@CToolSingl
$LN3@CToolSingl:
  00051	33 c0		 xor	 eax, eax
$LN4@CToolSingl:

; 28   : 	m_pCrossLineMoveTool = new CCrossLineMoveTool(pAnalysisData);

  00053	68 f8 00 00 00	 push	 248			; 000000f8H
  00058	c7 45 fc ff ff
	ff ff		 mov	 DWORD PTR __$EHRec$[ebp+8], -1
  0005f	89 46 04	 mov	 DWORD PTR [esi+4], eax
  00062	e8 00 00 00 00	 call	 ??2@YAPAXI@Z		; operator new
  00067	83 c4 04	 add	 esp, 4
  0006a	89 45 08	 mov	 DWORD PTR $T36[ebp], eax
  0006d	c7 45 fc 01 00
	00 00		 mov	 DWORD PTR __$EHRec$[ebp+8], 1
  00074	85 c0		 test	 eax, eax
  00076	74 0c		 je	 SHORT $LN5@CToolSingl
  00078	6a 00		 push	 0
  0007a	57		 push	 edi
  0007b	8b c8		 mov	 ecx, eax
  0007d	e8 00 00 00 00	 call	 ??0CCrossLineMoveTool@@QAE@PAVCAnalysisData@@W4COORDINATETYPE@CAnalysis@@@Z ; CCrossLineMoveTool::CCrossLineMoveTool
  00082	eb 02		 jmp	 SHORT $LN6@CToolSingl
$LN5@CToolSingl:
  00084	33 c0		 xor	 eax, eax
$LN6@CToolSingl:

; 29   : 	m_pCrossLineDownTool = new CCrossLineDownTool(pAnalysisData);

  00086	68 18 01 00 00	 push	 280			; 00000118H
  0008b	c7 45 fc ff ff
	ff ff		 mov	 DWORD PTR __$EHRec$[ebp+8], -1
  00092	89 46 08	 mov	 DWORD PTR [esi+8], eax
  00095	e8 00 00 00 00	 call	 ??2@YAPAXI@Z		; operator new
  0009a	83 c4 04	 add	 esp, 4
  0009d	89 45 08	 mov	 DWORD PTR $T35[ebp], eax
  000a0	c7 45 fc 02 00
	00 00		 mov	 DWORD PTR __$EHRec$[ebp+8], 2
  000a7	85 c0		 test	 eax, eax
  000a9	74 0c		 je	 SHORT $LN7@CToolSingl
  000ab	6a 00		 push	 0
  000ad	57		 push	 edi
  000ae	8b c8		 mov	 ecx, eax
  000b0	e8 00 00 00 00	 call	 ??0CCrossLineDownTool@@QAE@PAVCAnalysisData@@W4COORDINATETYPE@CAnalysis@@@Z ; CCrossLineDownTool::CCrossLineDownTool
  000b5	eb 02		 jmp	 SHORT $LN8@CToolSingl
$LN7@CToolSingl:
  000b7	33 c0		 xor	 eax, eax
$LN8@CToolSingl:

; 30   : 	m_pVertLineTool = new CVertLineTool(pAnalysisData);

  000b9	68 e8 00 00 00	 push	 232			; 000000e8H
  000be	c7 45 fc ff ff
	ff ff		 mov	 DWORD PTR __$EHRec$[ebp+8], -1
  000c5	89 46 0c	 mov	 DWORD PTR [esi+12], eax
  000c8	e8 00 00 00 00	 call	 ??2@YAPAXI@Z		; operator new
  000cd	83 c4 04	 add	 esp, 4
  000d0	89 45 08	 mov	 DWORD PTR $T34[ebp], eax
  000d3	c7 45 fc 03 00
	00 00		 mov	 DWORD PTR __$EHRec$[ebp+8], 3
  000da	85 c0		 test	 eax, eax
  000dc	74 0c		 je	 SHORT $LN9@CToolSingl
  000de	6a 00		 push	 0
  000e0	57		 push	 edi
  000e1	8b c8		 mov	 ecx, eax
  000e3	e8 00 00 00 00	 call	 ??0CVertLineTool@@QAE@PAVCAnalysisData@@W4COORDINATETYPE@CAnalysis@@@Z ; CVertLineTool::CVertLineTool
  000e8	eb 02		 jmp	 SHORT $LN10@CToolSingl
$LN9@CToolSingl:
  000ea	33 c0		 xor	 eax, eax
$LN10@CToolSingl:

; 31   : 	m_pHorzLineTool = new CHorzLineTool(pAnalysisData);

  000ec	68 e8 00 00 00	 push	 232			; 000000e8H
  000f1	c7 45 fc ff ff
	ff ff		 mov	 DWORD PTR __$EHRec$[ebp+8], -1
  000f8	89 46 10	 mov	 DWORD PTR [esi+16], eax
  000fb	e8 00 00 00 00	 call	 ??2@YAPAXI@Z		; operator new
  00100	83 c4 04	 add	 esp, 4
  00103	89 45 08	 mov	 DWORD PTR $T33[ebp], eax
  00106	c7 45 fc 04 00
	00 00		 mov	 DWORD PTR __$EHRec$[ebp+8], 4
  0010d	85 c0		 test	 eax, eax
  0010f	74 0c		 je	 SHORT $LN11@CToolSingl
  00111	6a 00		 push	 0
  00113	57		 push	 edi
  00114	8b c8		 mov	 ecx, eax
  00116	e8 00 00 00 00	 call	 ??0CHorzLineTool@@QAE@PAVCAnalysisData@@W4COORDINATETYPE@CAnalysis@@@Z ; CHorzLineTool::CHorzLineTool
  0011b	eb 02		 jmp	 SHORT $LN12@CToolSingl
$LN11@CToolSingl:
  0011d	33 c0		 xor	 eax, eax
$LN12@CToolSingl:

; 32   : 
; 33   : 	m_pLineTool	= new CLineTool( pAnalysisData, CAnalysis::EN_ANALYSIS_LINE);

  0011f	68 28 01 00 00	 push	 296			; 00000128H
  00124	c7 45 fc ff ff
	ff ff		 mov	 DWORD PTR __$EHRec$[ebp+8], -1
  0012b	89 46 14	 mov	 DWORD PTR [esi+20], eax
  0012e	e8 00 00 00 00	 call	 ??2@YAPAXI@Z		; operator new
  00133	83 c4 04	 add	 esp, 4
  00136	89 45 08	 mov	 DWORD PTR $T32[ebp], eax
  00139	c7 45 fc 05 00
	00 00		 mov	 DWORD PTR __$EHRec$[ebp+8], 5
  00140	85 c0		 test	 eax, eax
  00142	74 0e		 je	 SHORT $LN13@CToolSingl
  00144	6a 00		 push	 0
  00146	6a 05		 push	 5
  00148	57		 push	 edi
  00149	8b c8		 mov	 ecx, eax
  0014b	e8 00 00 00 00	 call	 ??0CLineTool@@QAE@PAVCAnalysisData@@W4TOOLTYPE@CAnalysis@@W4COORDINATETYPE@3@@Z ; CLineTool::CLineTool
  00150	eb 02		 jmp	 SHORT $LN14@CToolSingl
$LN13@CToolSingl:
  00152	33 c0		 xor	 eax, eax
$LN14@CToolSingl:

; 34   : 
; 35   : 	m_pTrisectionLineTool = new CTrisectionLineTool(pAnalysisData);

  00154	68 20 01 00 00	 push	 288			; 00000120H
  00159	c7 45 fc ff ff
	ff ff		 mov	 DWORD PTR __$EHRec$[ebp+8], -1
  00160	89 46 18	 mov	 DWORD PTR [esi+24], eax
  00163	e8 00 00 00 00	 call	 ??2@YAPAXI@Z		; operator new
  00168	83 c4 04	 add	 esp, 4
  0016b	89 45 08	 mov	 DWORD PTR $T31[ebp], eax
  0016e	c7 45 fc 06 00
	00 00		 mov	 DWORD PTR __$EHRec$[ebp+8], 6
  00175	85 c0		 test	 eax, eax
  00177	74 0c		 je	 SHORT $LN15@CToolSingl
  00179	6a 00		 push	 0
  0017b	57		 push	 edi
  0017c	8b c8		 mov	 ecx, eax
  0017e	e8 00 00 00 00	 call	 ??0CTrisectionLineTool@@QAE@PAVCAnalysisData@@W4COORDINATETYPE@CAnalysis@@@Z ; CTrisectionLineTool::CTrisectionLineTool
  00183	eb 02		 jmp	 SHORT $LN16@CToolSingl
$LN15@CToolSingl:
  00185	33 c0		 xor	 eax, eax
$LN16@CToolSingl:

; 36   : 	m_pQuadrisectLineTool = new CQuadrisectLineTool(pAnalysisData);

  00187	68 20 01 00 00	 push	 288			; 00000120H
  0018c	c7 45 fc ff ff
	ff ff		 mov	 DWORD PTR __$EHRec$[ebp+8], -1
  00193	89 46 1c	 mov	 DWORD PTR [esi+28], eax
  00196	e8 00 00 00 00	 call	 ??2@YAPAXI@Z		; operator new
  0019b	83 c4 04	 add	 esp, 4
  0019e	89 45 08	 mov	 DWORD PTR $T30[ebp], eax
  001a1	c7 45 fc 07 00
	00 00		 mov	 DWORD PTR __$EHRec$[ebp+8], 7
  001a8	85 c0		 test	 eax, eax
  001aa	74 0c		 je	 SHORT $LN17@CToolSingl
  001ac	6a 00		 push	 0
  001ae	57		 push	 edi
  001af	8b c8		 mov	 ecx, eax
  001b1	e8 00 00 00 00	 call	 ??0CQuadrisectLineTool@@QAE@PAVCAnalysisData@@W4COORDINATETYPE@CAnalysis@@@Z ; CQuadrisectLineTool::CQuadrisectLineTool
  001b6	eb 02		 jmp	 SHORT $LN18@CToolSingl
$LN17@CToolSingl:
  001b8	33 c0		 xor	 eax, eax
$LN18@CToolSingl:

; 37   : 	m_pFiboSemicircleTool = new CFiboSemicircleTool(pAnalysisData);

  001ba	68 38 01 00 00	 push	 312			; 00000138H
  001bf	c7 45 fc ff ff
	ff ff		 mov	 DWORD PTR __$EHRec$[ebp+8], -1
  001c6	89 46 20	 mov	 DWORD PTR [esi+32], eax
  001c9	e8 00 00 00 00	 call	 ??2@YAPAXI@Z		; operator new
  001ce	83 c4 04	 add	 esp, 4
  001d1	89 45 08	 mov	 DWORD PTR $T29[ebp], eax
  001d4	c7 45 fc 08 00
	00 00		 mov	 DWORD PTR __$EHRec$[ebp+8], 8
  001db	85 c0		 test	 eax, eax
  001dd	74 0c		 je	 SHORT $LN19@CToolSingl
  001df	6a 00		 push	 0
  001e1	57		 push	 edi
  001e2	8b c8		 mov	 ecx, eax
  001e4	e8 00 00 00 00	 call	 ??0CFiboSemicircleTool@@QAE@PAVCAnalysisData@@W4COORDINATETYPE@CAnalysis@@@Z ; CFiboSemicircleTool::CFiboSemicircleTool
  001e9	eb 02		 jmp	 SHORT $LN20@CToolSingl
$LN19@CToolSingl:
  001eb	33 c0		 xor	 eax, eax
$LN20@CToolSingl:

; 38   : 	m_pFiboCircleTool = new CFiboCircleTool(pAnalysisData);

  001ed	68 38 01 00 00	 push	 312			; 00000138H
  001f2	c7 45 fc ff ff
	ff ff		 mov	 DWORD PTR __$EHRec$[ebp+8], -1
  001f9	89 46 24	 mov	 DWORD PTR [esi+36], eax
  001fc	e8 00 00 00 00	 call	 ??2@YAPAXI@Z		; operator new
  00201	83 c4 04	 add	 esp, 4
  00204	89 45 08	 mov	 DWORD PTR $T28[ebp], eax
  00207	c7 45 fc 09 00
	00 00		 mov	 DWORD PTR __$EHRec$[ebp+8], 9
  0020e	85 c0		 test	 eax, eax
  00210	74 0c		 je	 SHORT $LN21@CToolSingl
  00212	6a 00		 push	 0
  00214	57		 push	 edi
  00215	8b c8		 mov	 ecx, eax
  00217	e8 00 00 00 00	 call	 ??0CFiboCircleTool@@QAE@PAVCAnalysisData@@W4COORDINATETYPE@CAnalysis@@@Z ; CFiboCircleTool::CFiboCircleTool
  0021c	eb 02		 jmp	 SHORT $LN22@CToolSingl
$LN21@CToolSingl:
  0021e	33 c0		 xor	 eax, eax
$LN22@CToolSingl:

; 39   : 	m_pFiboPenLineTool = new CFiboPenLineTool(pAnalysisData);

  00220	68 38 01 00 00	 push	 312			; 00000138H
  00225	c7 45 fc ff ff
	ff ff		 mov	 DWORD PTR __$EHRec$[ebp+8], -1
  0022c	89 46 28	 mov	 DWORD PTR [esi+40], eax
  0022f	e8 00 00 00 00	 call	 ??2@YAPAXI@Z		; operator new
  00234	83 c4 04	 add	 esp, 4
  00237	89 45 08	 mov	 DWORD PTR $T27[ebp], eax
  0023a	c7 45 fc 0a 00
	00 00		 mov	 DWORD PTR __$EHRec$[ebp+8], 10 ; 0000000aH
  00241	85 c0		 test	 eax, eax
  00243	74 0c		 je	 SHORT $LN23@CToolSingl
  00245	6a 00		 push	 0
  00247	57		 push	 edi
  00248	8b c8		 mov	 ecx, eax
  0024a	e8 00 00 00 00	 call	 ??0CFiboPenLineTool@@QAE@PAVCAnalysisData@@W4COORDINATETYPE@CAnalysis@@@Z ; CFiboPenLineTool::CFiboPenLineTool
  0024f	eb 02		 jmp	 SHORT $LN24@CToolSingl
$LN23@CToolSingl:
  00251	33 c0		 xor	 eax, eax
$LN24@CToolSingl:

; 40   : 	m_pFiboRetraceTool = new CFiboRetraceTool(pAnalysisData);

  00253	68 38 01 00 00	 push	 312			; 00000138H
  00258	c7 45 fc ff ff
	ff ff		 mov	 DWORD PTR __$EHRec$[ebp+8], -1
  0025f	89 46 2c	 mov	 DWORD PTR [esi+44], eax
  00262	e8 00 00 00 00	 call	 ??2@YAPAXI@Z		; operator new
  00267	83 c4 04	 add	 esp, 4
  0026a	89 45 08	 mov	 DWORD PTR $T26[ebp], eax
  0026d	c7 45 fc 0b 00
	00 00		 mov	 DWORD PTR __$EHRec$[ebp+8], 11 ; 0000000bH
  00274	85 c0		 test	 eax, eax
  00276	74 0c		 je	 SHORT $LN25@CToolSingl
  00278	6a 00		 push	 0
  0027a	57		 push	 edi
  0027b	8b c8		 mov	 ecx, eax
  0027d	e8 00 00 00 00	 call	 ??0CFiboRetraceTool@@QAE@PAVCAnalysisData@@W4COORDINATETYPE@CAnalysis@@@Z ; CFiboRetraceTool::CFiboRetraceTool
  00282	eb 02		 jmp	 SHORT $LN26@CToolSingl
$LN25@CToolSingl:
  00284	33 c0		 xor	 eax, eax
$LN26@CToolSingl:

; 41   : 	m_pFiboTimeTool = new CFiboTimeTool(pAnalysisData);

  00286	68 00 01 00 00	 push	 256			; 00000100H
  0028b	c7 45 fc ff ff
	ff ff		 mov	 DWORD PTR __$EHRec$[ebp+8], -1
  00292	89 46 30	 mov	 DWORD PTR [esi+48], eax
  00295	e8 00 00 00 00	 call	 ??2@YAPAXI@Z		; operator new
  0029a	83 c4 04	 add	 esp, 4
  0029d	89 45 08	 mov	 DWORD PTR $T25[ebp], eax
  002a0	c7 45 fc 0c 00
	00 00		 mov	 DWORD PTR __$EHRec$[ebp+8], 12 ; 0000000cH
  002a7	85 c0		 test	 eax, eax
  002a9	74 0c		 je	 SHORT $LN27@CToolSingl
  002ab	6a 00		 push	 0
  002ad	57		 push	 edi
  002ae	8b c8		 mov	 ecx, eax
  002b0	e8 00 00 00 00	 call	 ??0CFiboTimeTool@@QAE@PAVCAnalysisData@@W4COORDINATETYPE@CAnalysis@@@Z ; CFiboTimeTool::CFiboTimeTool
  002b5	eb 02		 jmp	 SHORT $LN28@CToolSingl
$LN27@CToolSingl:
  002b7	33 c0		 xor	 eax, eax
$LN28@CToolSingl:

; 42   : 	m_pGannLine45Tool = new CGannLine45Tool(pAnalysisData);

  002b9	68 d0 00 00 00	 push	 208			; 000000d0H
  002be	c7 45 fc ff ff
	ff ff		 mov	 DWORD PTR __$EHRec$[ebp+8], -1
  002c5	89 46 34	 mov	 DWORD PTR [esi+52], eax
  002c8	e8 00 00 00 00	 call	 ??2@YAPAXI@Z		; operator new
  002cd	83 c4 04	 add	 esp, 4
  002d0	89 45 08	 mov	 DWORD PTR $T24[ebp], eax
  002d3	c7 45 fc 0d 00
	00 00		 mov	 DWORD PTR __$EHRec$[ebp+8], 13 ; 0000000dH
  002da	85 c0		 test	 eax, eax
  002dc	74 0c		 je	 SHORT $LN29@CToolSingl
  002de	6a 00		 push	 0
  002e0	57		 push	 edi
  002e1	8b c8		 mov	 ecx, eax
  002e3	e8 00 00 00 00	 call	 ??0CGannLine45Tool@@QAE@PAVCAnalysisData@@W4COORDINATETYPE@CAnalysis@@@Z ; CGannLine45Tool::CGannLine45Tool
  002e8	eb 02		 jmp	 SHORT $LN30@CToolSingl
$LN29@CToolSingl:
  002ea	33 c0		 xor	 eax, eax
$LN30@CToolSingl:

; 43   : 	m_pGannLine315Tool = new CGannLine315Tool(pAnalysisData);

  002ec	68 d0 00 00 00	 push	 208			; 000000d0H
  002f1	c7 45 fc ff ff
	ff ff		 mov	 DWORD PTR __$EHRec$[ebp+8], -1
  002f8	89 46 38	 mov	 DWORD PTR [esi+56], eax
  002fb	e8 00 00 00 00	 call	 ??2@YAPAXI@Z		; operator new
  00300	83 c4 04	 add	 esp, 4
  00303	89 45 08	 mov	 DWORD PTR $T23[ebp], eax
  00306	c7 45 fc 0e 00
	00 00		 mov	 DWORD PTR __$EHRec$[ebp+8], 14 ; 0000000eH
  0030d	85 c0		 test	 eax, eax
  0030f	74 0c		 je	 SHORT $LN31@CToolSingl
  00311	6a 00		 push	 0
  00313	57		 push	 edi
  00314	8b c8		 mov	 ecx, eax
  00316	e8 00 00 00 00	 call	 ??0CGannLine315Tool@@QAE@PAVCAnalysisData@@W4COORDINATETYPE@CAnalysis@@@Z ; CGannLine315Tool::CGannLine315Tool
  0031b	eb 02		 jmp	 SHORT $LN32@CToolSingl
$LN31@CToolSingl:
  0031d	33 c0		 xor	 eax, eax
$LN32@CToolSingl:

; 44   : 	m_pGannFan45Tool = new CGannFan45Tool(pAnalysisData);

  0031f	68 d8 00 00 00	 push	 216			; 000000d8H
  00324	c7 45 fc ff ff
	ff ff		 mov	 DWORD PTR __$EHRec$[ebp+8], -1
  0032b	89 46 3c	 mov	 DWORD PTR [esi+60], eax
  0032e	e8 00 00 00 00	 call	 ??2@YAPAXI@Z		; operator new
  00333	83 c4 04	 add	 esp, 4
  00336	89 45 08	 mov	 DWORD PTR $T22[ebp], eax
  00339	c7 45 fc 0f 00
	00 00		 mov	 DWORD PTR __$EHRec$[ebp+8], 15 ; 0000000fH
  00340	85 c0		 test	 eax, eax
  00342	74 0c		 je	 SHORT $LN33@CToolSingl
  00344	6a 00		 push	 0
  00346	57		 push	 edi
  00347	8b c8		 mov	 ecx, eax
  00349	e8 00 00 00 00	 call	 ??0CGannFan45Tool@@QAE@PAVCAnalysisData@@W4COORDINATETYPE@CAnalysis@@@Z ; CGannFan45Tool::CGannFan45Tool
  0034e	eb 02		 jmp	 SHORT $LN34@CToolSingl
$LN33@CToolSingl:
  00350	33 c0		 xor	 eax, eax
$LN34@CToolSingl:

; 45   : 	m_pGannFan135Tool = new CGannFan135Tool(pAnalysisData);

  00352	68 d8 00 00 00	 push	 216			; 000000d8H
  00357	c7 45 fc ff ff
	ff ff		 mov	 DWORD PTR __$EHRec$[ebp+8], -1
  0035e	89 46 40	 mov	 DWORD PTR [esi+64], eax
  00361	e8 00 00 00 00	 call	 ??2@YAPAXI@Z		; operator new
  00366	83 c4 04	 add	 esp, 4
  00369	89 45 08	 mov	 DWORD PTR $T21[ebp], eax
  0036c	c7 45 fc 10 00
	00 00		 mov	 DWORD PTR __$EHRec$[ebp+8], 16 ; 00000010H
  00373	85 c0		 test	 eax, eax
  00375	74 0c		 je	 SHORT $LN35@CToolSingl
  00377	6a 00		 push	 0
  00379	57		 push	 edi
  0037a	8b c8		 mov	 ecx, eax
  0037c	e8 00 00 00 00	 call	 ??0CGannFan135Tool@@QAE@PAVCAnalysisData@@W4COORDINATETYPE@CAnalysis@@@Z ; CGannFan135Tool::CGannFan135Tool
  00381	eb 02		 jmp	 SHORT $LN36@CToolSingl
$LN35@CToolSingl:
  00383	33 c0		 xor	 eax, eax
$LN36@CToolSingl:

; 46   : 	m_pGannFan225Tool = new CGannFan225Tool(pAnalysisData);

  00385	68 d8 00 00 00	 push	 216			; 000000d8H
  0038a	c7 45 fc ff ff
	ff ff		 mov	 DWORD PTR __$EHRec$[ebp+8], -1
  00391	89 46 44	 mov	 DWORD PTR [esi+68], eax
  00394	e8 00 00 00 00	 call	 ??2@YAPAXI@Z		; operator new
  00399	83 c4 04	 add	 esp, 4
  0039c	89 45 08	 mov	 DWORD PTR $T20[ebp], eax
  0039f	c7 45 fc 11 00
	00 00		 mov	 DWORD PTR __$EHRec$[ebp+8], 17 ; 00000011H
  003a6	85 c0		 test	 eax, eax
  003a8	74 0c		 je	 SHORT $LN37@CToolSingl
  003aa	6a 00		 push	 0
  003ac	57		 push	 edi
  003ad	8b c8		 mov	 ecx, eax
  003af	e8 00 00 00 00	 call	 ??0CGannFan225Tool@@QAE@PAVCAnalysisData@@W4COORDINATETYPE@CAnalysis@@@Z ; CGannFan225Tool::CGannFan225Tool
  003b4	eb 02		 jmp	 SHORT $LN38@CToolSingl
$LN37@CToolSingl:
  003b6	33 c0		 xor	 eax, eax
$LN38@CToolSingl:

; 47   : 	m_pGannFan315Tool = new CGannFan315Tool(pAnalysisData);

  003b8	68 d8 00 00 00	 push	 216			; 000000d8H
  003bd	c7 45 fc ff ff
	ff ff		 mov	 DWORD PTR __$EHRec$[ebp+8], -1
  003c4	89 46 48	 mov	 DWORD PTR [esi+72], eax
  003c7	e8 00 00 00 00	 call	 ??2@YAPAXI@Z		; operator new
  003cc	83 c4 04	 add	 esp, 4
  003cf	89 45 08	 mov	 DWORD PTR $T19[ebp], eax
  003d2	c7 45 fc 12 00
	00 00		 mov	 DWORD PTR __$EHRec$[ebp+8], 18 ; 00000012H
  003d9	85 c0		 test	 eax, eax
  003db	74 0c		 je	 SHORT $LN39@CToolSingl
  003dd	6a 00		 push	 0
  003df	57		 push	 edi
  003e0	8b c8		 mov	 ecx, eax
  003e2	e8 00 00 00 00	 call	 ??0CGannFan315Tool@@QAE@PAVCAnalysisData@@W4COORDINATETYPE@CAnalysis@@@Z ; CGannFan315Tool::CGannFan315Tool
  003e7	eb 02		 jmp	 SHORT $LN40@CToolSingl
$LN39@CToolSingl:
  003e9	33 c0		 xor	 eax, eax
$LN40@CToolSingl:

; 48   : 	m_pGannGridTool = new CGannGridTool(pAnalysisData);

  003eb	68 d0 00 00 00	 push	 208			; 000000d0H
  003f0	c7 45 fc ff ff
	ff ff		 mov	 DWORD PTR __$EHRec$[ebp+8], -1
  003f7	89 46 4c	 mov	 DWORD PTR [esi+76], eax
  003fa	e8 00 00 00 00	 call	 ??2@YAPAXI@Z		; operator new
  003ff	83 c4 04	 add	 esp, 4
  00402	89 45 08	 mov	 DWORD PTR $T18[ebp], eax
  00405	c7 45 fc 13 00
	00 00		 mov	 DWORD PTR __$EHRec$[ebp+8], 19 ; 00000013H
  0040c	85 c0		 test	 eax, eax
  0040e	74 0c		 je	 SHORT $LN41@CToolSingl
  00410	6a 00		 push	 0
  00412	57		 push	 edi
  00413	8b c8		 mov	 ecx, eax
  00415	e8 00 00 00 00	 call	 ??0CGannGridTool@@QAE@PAVCAnalysisData@@W4COORDINATETYPE@CAnalysis@@@Z ; CGannGridTool::CGannGridTool
  0041a	eb 02		 jmp	 SHORT $LN42@CToolSingl
$LN41@CToolSingl:
  0041c	33 c0		 xor	 eax, eax
$LN42@CToolSingl:

; 49   : 	m_pAndrewsTool = new CAndrewsPitchforkTool(pAnalysisData);

  0041e	68 18 01 00 00	 push	 280			; 00000118H
  00423	c7 45 fc ff ff
	ff ff		 mov	 DWORD PTR __$EHRec$[ebp+8], -1
  0042a	89 46 50	 mov	 DWORD PTR [esi+80], eax
  0042d	e8 00 00 00 00	 call	 ??2@YAPAXI@Z		; operator new
  00432	83 c4 04	 add	 esp, 4
  00435	89 45 08	 mov	 DWORD PTR $T17[ebp], eax
  00438	c7 45 fc 14 00
	00 00		 mov	 DWORD PTR __$EHRec$[ebp+8], 20 ; 00000014H
  0043f	85 c0		 test	 eax, eax
  00441	74 0c		 je	 SHORT $LN43@CToolSingl
  00443	6a 00		 push	 0
  00445	57		 push	 edi
  00446	8b c8		 mov	 ecx, eax
  00448	e8 00 00 00 00	 call	 ??0CAndrewsPitchforkTool@@QAE@PAVCAnalysisData@@W4COORDINATETYPE@CAnalysis@@@Z ; CAndrewsPitchforkTool::CAndrewsPitchforkTool
  0044d	eb 02		 jmp	 SHORT $LN44@CToolSingl
$LN43@CToolSingl:
  0044f	33 c0		 xor	 eax, eax
$LN44@CToolSingl:

; 50   : 	m_pCycleLinesTool = new CCycleLinesTool(pAnalysisData);

  00451	68 20 01 00 00	 push	 288			; 00000120H
  00456	c7 45 fc ff ff
	ff ff		 mov	 DWORD PTR __$EHRec$[ebp+8], -1
  0045d	89 46 54	 mov	 DWORD PTR [esi+84], eax
  00460	e8 00 00 00 00	 call	 ??2@YAPAXI@Z		; operator new
  00465	83 c4 04	 add	 esp, 4
  00468	89 45 08	 mov	 DWORD PTR $T16[ebp], eax
  0046b	c7 45 fc 15 00
	00 00		 mov	 DWORD PTR __$EHRec$[ebp+8], 21 ; 00000015H
  00472	85 c0		 test	 eax, eax
  00474	74 0c		 je	 SHORT $LN45@CToolSingl
  00476	6a 00		 push	 0
  00478	57		 push	 edi
  00479	8b c8		 mov	 ecx, eax
  0047b	e8 00 00 00 00	 call	 ??0CCycleLinesTool@@QAE@PAVCAnalysisData@@W4COORDINATETYPE@CAnalysis@@@Z ; CCycleLinesTool::CCycleLinesTool
  00480	eb 02		 jmp	 SHORT $LN46@CToolSingl
$LN45@CToolSingl:
  00482	33 c0		 xor	 eax, eax
$LN46@CToolSingl:

; 51   : 	m_pSpeedLineTool = new CSpeedLineTool(pAnalysisData);

  00484	68 18 01 00 00	 push	 280			; 00000118H
  00489	c7 45 fc ff ff
	ff ff		 mov	 DWORD PTR __$EHRec$[ebp+8], -1
  00490	89 46 58	 mov	 DWORD PTR [esi+88], eax
  00493	e8 00 00 00 00	 call	 ??2@YAPAXI@Z		; operator new
  00498	83 c4 04	 add	 esp, 4
  0049b	89 45 08	 mov	 DWORD PTR $T15[ebp], eax
  0049e	c7 45 fc 16 00
	00 00		 mov	 DWORD PTR __$EHRec$[ebp+8], 22 ; 00000016H
  004a5	85 c0		 test	 eax, eax
  004a7	74 0c		 je	 SHORT $LN47@CToolSingl
  004a9	6a 00		 push	 0
  004ab	57		 push	 edi
  004ac	8b c8		 mov	 ecx, eax
  004ae	e8 00 00 00 00	 call	 ??0CSpeedLineTool@@QAE@PAVCAnalysisData@@W4COORDINATETYPE@CAnalysis@@@Z ; CSpeedLineTool::CSpeedLineTool
  004b3	eb 02		 jmp	 SHORT $LN48@CToolSingl
$LN47@CToolSingl:
  004b5	33 c0		 xor	 eax, eax
$LN48@CToolSingl:

; 52   : 	m_pSpeedFanTool = new CSpeedFanTool(pAnalysisData);

  004b7	68 18 01 00 00	 push	 280			; 00000118H
  004bc	c7 45 fc ff ff
	ff ff		 mov	 DWORD PTR __$EHRec$[ebp+8], -1
  004c3	89 46 5c	 mov	 DWORD PTR [esi+92], eax
  004c6	e8 00 00 00 00	 call	 ??2@YAPAXI@Z		; operator new
  004cb	83 c4 04	 add	 esp, 4
  004ce	89 45 08	 mov	 DWORD PTR $T14[ebp], eax
  004d1	c7 45 fc 17 00
	00 00		 mov	 DWORD PTR __$EHRec$[ebp+8], 23 ; 00000017H
  004d8	85 c0		 test	 eax, eax
  004da	74 0c		 je	 SHORT $LN49@CToolSingl
  004dc	6a 00		 push	 0
  004de	57		 push	 edi
  004df	8b c8		 mov	 ecx, eax
  004e1	e8 00 00 00 00	 call	 ??0CSpeedFanTool@@QAE@PAVCAnalysisData@@W4COORDINATETYPE@CAnalysis@@@Z ; CSpeedFanTool::CSpeedFanTool
  004e6	eb 02		 jmp	 SHORT $LN50@CToolSingl
$LN49@CToolSingl:
  004e8	33 c0		 xor	 eax, eax
$LN50@CToolSingl:

; 53   : 	m_pSpeedArcTool = new CSpeedArcTool(pAnalysisData);

  004ea	68 18 01 00 00	 push	 280			; 00000118H
  004ef	c7 45 fc ff ff
	ff ff		 mov	 DWORD PTR __$EHRec$[ebp+8], -1
  004f6	89 46 60	 mov	 DWORD PTR [esi+96], eax
  004f9	e8 00 00 00 00	 call	 ??2@YAPAXI@Z		; operator new
  004fe	83 c4 04	 add	 esp, 4
  00501	89 45 08	 mov	 DWORD PTR $T13[ebp], eax
  00504	c7 45 fc 18 00
	00 00		 mov	 DWORD PTR __$EHRec$[ebp+8], 24 ; 00000018H
  0050b	85 c0		 test	 eax, eax
  0050d	74 0c		 je	 SHORT $LN51@CToolSingl
  0050f	6a 00		 push	 0
  00511	57		 push	 edi
  00512	8b c8		 mov	 ecx, eax
  00514	e8 00 00 00 00	 call	 ??0CSpeedArcTool@@QAE@PAVCAnalysisData@@W4COORDINATETYPE@CAnalysis@@@Z ; CSpeedArcTool::CSpeedArcTool
  00519	eb 02		 jmp	 SHORT $LN52@CToolSingl
$LN51@CToolSingl:
  0051b	33 c0		 xor	 eax, eax
$LN52@CToolSingl:

; 54   : 	m_pLinearRegressionTool = new CLinearRegressionTool(pAnalysisData);

  0051d	68 18 01 00 00	 push	 280			; 00000118H
  00522	c7 45 fc ff ff
	ff ff		 mov	 DWORD PTR __$EHRec$[ebp+8], -1
  00529	89 46 64	 mov	 DWORD PTR [esi+100], eax
  0052c	e8 00 00 00 00	 call	 ??2@YAPAXI@Z		; operator new
  00531	83 c4 04	 add	 esp, 4
  00534	89 45 08	 mov	 DWORD PTR $T12[ebp], eax
  00537	c7 45 fc 19 00
	00 00		 mov	 DWORD PTR __$EHRec$[ebp+8], 25 ; 00000019H
  0053e	85 c0		 test	 eax, eax
  00540	74 0c		 je	 SHORT $LN53@CToolSingl
  00542	6a 00		 push	 0
  00544	57		 push	 edi
  00545	8b c8		 mov	 ecx, eax
  00547	e8 00 00 00 00	 call	 ??0CLinearRegressionTool@@QAE@PAVCAnalysisData@@W4COORDINATETYPE@CAnalysis@@@Z ; CLinearRegressionTool::CLinearRegressionTool
  0054c	eb 02		 jmp	 SHORT $LN54@CToolSingl
$LN53@CToolSingl:
  0054e	33 c0		 xor	 eax, eax
$LN54@CToolSingl:

; 55   : 	m_pRaffRegressionTool = new CRaffRegressionTool(pAnalysisData);

  00550	68 20 01 00 00	 push	 288			; 00000120H
  00555	c7 45 fc ff ff
	ff ff		 mov	 DWORD PTR __$EHRec$[ebp+8], -1
  0055c	89 46 68	 mov	 DWORD PTR [esi+104], eax
  0055f	e8 00 00 00 00	 call	 ??2@YAPAXI@Z		; operator new
  00564	83 c4 04	 add	 esp, 4
  00567	89 45 08	 mov	 DWORD PTR $T11[ebp], eax
  0056a	c7 45 fc 1a 00
	00 00		 mov	 DWORD PTR __$EHRec$[ebp+8], 26 ; 0000001aH
  00571	85 c0		 test	 eax, eax
  00573	74 0c		 je	 SHORT $LN55@CToolSingl
  00575	6a 00		 push	 0
  00577	57		 push	 edi
  00578	8b c8		 mov	 ecx, eax
  0057a	e8 00 00 00 00	 call	 ??0CRaffRegressionTool@@QAE@PAVCAnalysisData@@W4COORDINATETYPE@CAnalysis@@@Z ; CRaffRegressionTool::CRaffRegressionTool
  0057f	eb 02		 jmp	 SHORT $LN56@CToolSingl
$LN55@CToolSingl:
  00581	33 c0		 xor	 eax, eax
$LN56@CToolSingl:

; 56   : 	m_pAngleLineTool = new CAngleLineTool(pAnalysisData);

  00583	68 20 01 00 00	 push	 288			; 00000120H
  00588	c7 45 fc ff ff
	ff ff		 mov	 DWORD PTR __$EHRec$[ebp+8], -1
  0058f	89 46 6c	 mov	 DWORD PTR [esi+108], eax
  00592	e8 00 00 00 00	 call	 ??2@YAPAXI@Z		; operator new
  00597	83 c4 04	 add	 esp, 4
  0059a	89 45 08	 mov	 DWORD PTR $T10[ebp], eax
  0059d	c7 45 fc 1b 00
	00 00		 mov	 DWORD PTR __$EHRec$[ebp+8], 27 ; 0000001bH
  005a4	85 c0		 test	 eax, eax
  005a6	74 0c		 je	 SHORT $LN57@CToolSingl
  005a8	6a 00		 push	 0
  005aa	57		 push	 edi
  005ab	8b c8		 mov	 ecx, eax
  005ad	e8 00 00 00 00	 call	 ??0CAngleLineTool@@QAE@PAVCAnalysisData@@W4COORDINATETYPE@CAnalysis@@@Z ; CAngleLineTool::CAngleLineTool
  005b2	eb 02		 jmp	 SHORT $LN58@CToolSingl
$LN57@CToolSingl:
  005b4	33 c0		 xor	 eax, eax
$LN58@CToolSingl:

; 57   : 	m_pCandleLineTool = new CCandleLineTool(pAnalysisData);

  005b6	68 d8 00 00 00	 push	 216			; 000000d8H
  005bb	c7 45 fc ff ff
	ff ff		 mov	 DWORD PTR __$EHRec$[ebp+8], -1
  005c2	89 46 70	 mov	 DWORD PTR [esi+112], eax
  005c5	e8 00 00 00 00	 call	 ??2@YAPAXI@Z		; operator new
  005ca	83 c4 04	 add	 esp, 4
  005cd	89 45 08	 mov	 DWORD PTR $T9[ebp], eax
  005d0	c7 45 fc 1c 00
	00 00		 mov	 DWORD PTR __$EHRec$[ebp+8], 28 ; 0000001cH
  005d7	85 c0		 test	 eax, eax
  005d9	74 0c		 je	 SHORT $LN59@CToolSingl
  005db	6a 00		 push	 0
  005dd	57		 push	 edi
  005de	8b c8		 mov	 ecx, eax
  005e0	e8 00 00 00 00	 call	 ??0CCandleLineTool@@QAE@PAVCAnalysisData@@W4COORDINATETYPE@CAnalysis@@@Z ; CCandleLineTool::CCandleLineTool
  005e5	eb 02		 jmp	 SHORT $LN60@CToolSingl
$LN59@CToolSingl:
  005e7	33 c0		 xor	 eax, eax
$LN60@CToolSingl:

; 58   : 	m_pCandleBongTool = new CCandleBongTool(pAnalysisData);

  005e9	68 18 01 00 00	 push	 280			; 00000118H
  005ee	c7 45 fc ff ff
	ff ff		 mov	 DWORD PTR __$EHRec$[ebp+8], -1
  005f5	89 46 74	 mov	 DWORD PTR [esi+116], eax
  005f8	e8 00 00 00 00	 call	 ??2@YAPAXI@Z		; operator new
  005fd	83 c4 04	 add	 esp, 4
  00600	89 45 08	 mov	 DWORD PTR $T8[ebp], eax
  00603	c7 45 fc 1d 00
	00 00		 mov	 DWORD PTR __$EHRec$[ebp+8], 29 ; 0000001dH
  0060a	85 c0		 test	 eax, eax
  0060c	74 0c		 je	 SHORT $LN61@CToolSingl
  0060e	6a 00		 push	 0
  00610	57		 push	 edi
  00611	8b c8		 mov	 ecx, eax
  00613	e8 00 00 00 00	 call	 ??0CCandleBongTool@@QAE@PAVCAnalysisData@@W4COORDINATETYPE@CAnalysis@@@Z ; CCandleBongTool::CCandleBongTool
  00618	eb 02		 jmp	 SHORT $LN62@CToolSingl
$LN61@CToolSingl:
  0061a	33 c0		 xor	 eax, eax
$LN62@CToolSingl:

; 59   : 	m_pPencilLineTool = new CPencilLineTool(pAnalysisData);

  0061c	68 c0 4e 00 00	 push	 20160			; 00004ec0H
  00621	c7 45 fc ff ff
	ff ff		 mov	 DWORD PTR __$EHRec$[ebp+8], -1
  00628	89 46 78	 mov	 DWORD PTR [esi+120], eax
  0062b	e8 00 00 00 00	 call	 ??2@YAPAXI@Z		; operator new
  00630	83 c4 04	 add	 esp, 4
  00633	89 45 08	 mov	 DWORD PTR $T7[ebp], eax
  00636	c7 45 fc 1e 00
	00 00		 mov	 DWORD PTR __$EHRec$[ebp+8], 30 ; 0000001eH
  0063d	85 c0		 test	 eax, eax
  0063f	74 0c		 je	 SHORT $LN63@CToolSingl
  00641	6a 00		 push	 0
  00643	57		 push	 edi
  00644	8b c8		 mov	 ecx, eax
  00646	e8 00 00 00 00	 call	 ??0CPencilLineTool@@QAE@PAVCAnalysisData@@W4COORDINATETYPE@CAnalysis@@@Z ; CPencilLineTool::CPencilLineTool
  0064b	eb 02		 jmp	 SHORT $LN64@CToolSingl
$LN63@CToolSingl:
  0064d	33 c0		 xor	 eax, eax
$LN64@CToolSingl:

; 60   : 	m_pPeriodLineTool = new CPeriodSumLineTool(pAnalysisData);

  0064f	68 20 01 00 00	 push	 288			; 00000120H
  00654	c7 45 fc ff ff
	ff ff		 mov	 DWORD PTR __$EHRec$[ebp+8], -1
  0065b	89 46 7c	 mov	 DWORD PTR [esi+124], eax
  0065e	e8 00 00 00 00	 call	 ??2@YAPAXI@Z		; operator new
  00663	83 c4 04	 add	 esp, 4
  00666	89 45 08	 mov	 DWORD PTR $T6[ebp], eax
  00669	c7 45 fc 1f 00
	00 00		 mov	 DWORD PTR __$EHRec$[ebp+8], 31 ; 0000001fH
  00670	85 c0		 test	 eax, eax
  00672	74 0c		 je	 SHORT $LN65@CToolSingl
  00674	6a 00		 push	 0
  00676	57		 push	 edi
  00677	8b c8		 mov	 ecx, eax
  00679	e8 00 00 00 00	 call	 ??0CPeriodSumLineTool@@QAE@PAVCAnalysisData@@W4COORDINATETYPE@CAnalysis@@@Z ; CPeriodSumLineTool::CPeriodSumLineTool
  0067e	eb 02		 jmp	 SHORT $LN66@CToolSingl
$LN65@CToolSingl:
  00680	33 c0		 xor	 eax, eax
$LN66@CToolSingl:

; 61   : 	m_pElliotLineTool = new CElliotLineTool(pAnalysisData);

  00682	68 18 01 00 00	 push	 280			; 00000118H
  00687	c7 45 fc ff ff
	ff ff		 mov	 DWORD PTR __$EHRec$[ebp+8], -1
  0068e	89 86 80 00 00
	00		 mov	 DWORD PTR [esi+128], eax
  00694	e8 00 00 00 00	 call	 ??2@YAPAXI@Z		; operator new
  00699	83 c4 04	 add	 esp, 4
  0069c	89 45 08	 mov	 DWORD PTR $T5[ebp], eax
  0069f	c7 45 fc 20 00
	00 00		 mov	 DWORD PTR __$EHRec$[ebp+8], 32 ; 00000020H
  006a6	85 c0		 test	 eax, eax
  006a8	74 0c		 je	 SHORT $LN67@CToolSingl
  006aa	6a 00		 push	 0
  006ac	57		 push	 edi
  006ad	8b c8		 mov	 ecx, eax
  006af	e8 00 00 00 00	 call	 ??0CElliotLineTool@@QAE@PAVCAnalysisData@@W4COORDINATETYPE@CAnalysis@@@Z ; CElliotLineTool::CElliotLineTool
  006b4	eb 02		 jmp	 SHORT $LN68@CToolSingl
$LN67@CToolSingl:
  006b6	33 c0		 xor	 eax, eax
$LN68@CToolSingl:

; 62   : 	m_pAdjustRatioTool = new CAdjustRatioTool(pAnalysisData);

  006b8	68 18 01 00 00	 push	 280			; 00000118H
  006bd	c7 45 fc ff ff
	ff ff		 mov	 DWORD PTR __$EHRec$[ebp+8], -1
  006c4	89 86 84 00 00
	00		 mov	 DWORD PTR [esi+132], eax
  006ca	e8 00 00 00 00	 call	 ??2@YAPAXI@Z		; operator new
  006cf	83 c4 04	 add	 esp, 4
  006d2	89 45 08	 mov	 DWORD PTR $T4[ebp], eax
  006d5	c7 45 fc 21 00
	00 00		 mov	 DWORD PTR __$EHRec$[ebp+8], 33 ; 00000021H
  006dc	85 c0		 test	 eax, eax
  006de	74 0c		 je	 SHORT $LN69@CToolSingl
  006e0	6a 00		 push	 0
  006e2	57		 push	 edi
  006e3	8b c8		 mov	 ecx, eax
  006e5	e8 00 00 00 00	 call	 ??0CAdjustRatioTool@@QAE@PAVCAnalysisData@@W4COORDINATETYPE@CAnalysis@@@Z ; CAdjustRatioTool::CAdjustRatioTool
  006ea	eb 02		 jmp	 SHORT $LN70@CToolSingl
$LN69@CToolSingl:
  006ec	33 c0		 xor	 eax, eax
$LN70@CToolSingl:

; 63   : 	m_pBalanceBasicTool = new CBalanceBasicTool(pAnalysisData);		// 2014.09.24  : 0010862: [7111]    []  IBK   

  006ee	68 00 01 00 00	 push	 256			; 00000100H
  006f3	c7 45 fc ff ff
	ff ff		 mov	 DWORD PTR __$EHRec$[ebp+8], -1
  006fa	89 86 88 00 00
	00		 mov	 DWORD PTR [esi+136], eax
  00700	e8 00 00 00 00	 call	 ??2@YAPAXI@Z		; operator new
  00705	83 c4 04	 add	 esp, 4
  00708	89 45 08	 mov	 DWORD PTR $T3[ebp], eax
  0070b	c7 45 fc 22 00
	00 00		 mov	 DWORD PTR __$EHRec$[ebp+8], 34 ; 00000022H
  00712	85 c0		 test	 eax, eax
  00714	74 12		 je	 SHORT $LN71@CToolSingl
  00716	6a 00		 push	 0
  00718	57		 push	 edi
  00719	8b c8		 mov	 ecx, eax
  0071b	e8 00 00 00 00	 call	 ??0CBalanceBasicTool@@QAE@PAVCAnalysisData@@W4COORDINATETYPE@CAnalysis@@@Z ; CBalanceBasicTool::CBalanceBasicTool
  00720	89 86 8c 00 00
	00		 mov	 DWORD PTR [esi+140], eax
  00726	eb 0a		 jmp	 SHORT $LN109@CToolSingl
$LN71@CToolSingl:
  00728	c7 86 8c 00 00
	00 00 00 00 00	 mov	 DWORD PTR [esi+140], 0
$LN109@CToolSingl:

; 64   : }

  00732	8b c6		 mov	 eax, esi
  00734	8b 4d f4	 mov	 ecx, DWORD PTR __$EHRec$[ebp]
  00737	64 89 0d 00 00
	00 00		 mov	 DWORD PTR fs:0, ecx
  0073e	59		 pop	 ecx
  0073f	5f		 pop	 edi
  00740	5e		 pop	 esi
  00741	8b e5		 mov	 esp, ebp
  00743	5d		 pop	 ebp
  00744	c2 04 00	 ret	 4
_TEXT	ENDS
;	COMDAT text$x
text$x	SEGMENT
__unwindfunclet$??0CToolSingleton@@QAE@PAVCAnalysisData@@@Z$0:
  00000	68 b8 00 00 00	 push	 184			; 000000b8H
  00005	8b 45 f0	 mov	 eax, DWORD PTR $T2[ebp]
  00008	50		 push	 eax
  00009	e8 00 00 00 00	 call	 ??3@YAXPAXI@Z		; operator delete
  0000e	83 c4 08	 add	 esp, 8
  00011	c3		 ret	 0
__unwindfunclet$??0CToolSingleton@@QAE@PAVCAnalysisData@@@Z$1:
  00012	68 f8 00 00 00	 push	 248			; 000000f8H
  00017	8b 45 08	 mov	 eax, DWORD PTR $T36[ebp]
  0001a	50		 push	 eax
  0001b	e8 00 00 00 00	 call	 ??3@YAXPAXI@Z		; operator delete
  00020	83 c4 08	 add	 esp, 8
  00023	c3		 ret	 0
__unwindfunclet$??0CToolSingleton@@QAE@PAVCAnalysisData@@@Z$2:
  00024	68 18 01 00 00	 push	 280			; 00000118H
  00029	8b 45 08	 mov	 eax, DWORD PTR $T35[ebp]
  0002c	50		 push	 eax
  0002d	e8 00 00 00 00	 call	 ??3@YAXPAXI@Z		; operator delete
  00032	83 c4 08	 add	 esp, 8
  00035	c3		 ret	 0
__unwindfunclet$??0CToolSingleton@@QAE@PAVCAnalysisData@@@Z$3:
  00036	68 e8 00 00 00	 push	 232			; 000000e8H
  0003b	8b 45 08	 mov	 eax, DWORD PTR $T34[ebp]
  0003e	50		 push	 eax
  0003f	e8 00 00 00 00	 call	 ??3@YAXPAXI@Z		; operator delete
  00044	83 c4 08	 add	 esp, 8
  00047	c3		 ret	 0
__unwindfunclet$??0CToolSingleton@@QAE@PAVCAnalysisData@@@Z$4:
  00048	68 e8 00 00 00	 push	 232			; 000000e8H
  0004d	8b 45 08	 mov	 eax, DWORD PTR $T33[ebp]
  00050	50		 push	 eax
  00051	e8 00 00 00 00	 call	 ??3@YAXPAXI@Z		; operator delete
  00056	83 c4 08	 add	 esp, 8
  00059	c3		 ret	 0
__unwindfunclet$??0CToolSingleton@@QAE@PAVCAnalysisData@@@Z$5:
  0005a	68 28 01 00 00	 push	 296			; 00000128H
  0005f	8b 45 08	 mov	 eax, DWORD PTR $T32[ebp]
  00062	50		 push	 eax
  00063	e8 00 00 00 00	 call	 ??3@YAXPAXI@Z		; operator delete
  00068	83 c4 08	 add	 esp, 8
  0006b	c3		 ret	 0
__unwindfunclet$??0CToolSingleton@@QAE@PAVCAnalysisData@@@Z$6:
  0006c	68 20 01 00 00	 push	 288			; 00000120H
  00071	8b 45 08	 mov	 eax, DWORD PTR $T31[ebp]
  00074	50		 push	 eax
  00075	e8 00 00 00 00	 call	 ??3@YAXPAXI@Z		; operator delete
  0007a	83 c4 08	 add	 esp, 8
  0007d	c3		 ret	 0
__unwindfunclet$??0CToolSingleton@@QAE@PAVCAnalysisData@@@Z$7:
  0007e	68 20 01 00 00	 push	 288			; 00000120H
  00083	8b 45 08	 mov	 eax, DWORD PTR $T30[ebp]
  00086	50		 push	 eax
  00087	e8 00 00 00 00	 call	 ??3@YAXPAXI@Z		; operator delete
  0008c	83 c4 08	 add	 esp, 8
  0008f	c3		 ret	 0
__unwindfunclet$??0CToolSingleton@@QAE@PAVCAnalysisData@@@Z$8:
  00090	68 38 01 00 00	 push	 312			; 00000138H
  00095	8b 45 08	 mov	 eax, DWORD PTR $T29[ebp]
  00098	50		 push	 eax
  00099	e8 00 00 00 00	 call	 ??3@YAXPAXI@Z		; operator delete
  0009e	83 c4 08	 add	 esp, 8
  000a1	c3		 ret	 0
__unwindfunclet$??0CToolSingleton@@QAE@PAVCAnalysisData@@@Z$9:
  000a2	68 38 01 00 00	 push	 312			; 00000138H
  000a7	8b 45 08	 mov	 eax, DWORD PTR $T28[ebp]
  000aa	50		 push	 eax
  000ab	e8 00 00 00 00	 call	 ??3@YAXPAXI@Z		; operator delete
  000b0	83 c4 08	 add	 esp, 8
  000b3	c3		 ret	 0
__unwindfunclet$??0CToolSingleton@@QAE@PAVCAnalysisData@@@Z$10:
  000b4	68 38 01 00 00	 push	 312			; 00000138H
  000b9	8b 45 08	 mov	 eax, DWORD PTR $T27[ebp]
  000bc	50		 push	 eax
  000bd	e8 00 00 00 00	 call	 ??3@YAXPAXI@Z		; operator delete
  000c2	83 c4 08	 add	 esp, 8
  000c5	c3		 ret	 0
__unwindfunclet$??0CToolSingleton@@QAE@PAVCAnalysisData@@@Z$11:
  000c6	68 38 01 00 00	 push	 312			; 00000138H
  000cb	8b 45 08	 mov	 eax, DWORD PTR $T26[ebp]
  000ce	50		 push	 eax
  000cf	e8 00 00 00 00	 call	 ??3@YAXPAXI@Z		; operator delete
  000d4	83 c4 08	 add	 esp, 8
  000d7	c3		 ret	 0
__unwindfunclet$??0CToolSingleton@@QAE@PAVCAnalysisData@@@Z$12:
  000d8	68 00 01 00 00	 push	 256			; 00000100H
  000dd	8b 45 08	 mov	 eax, DWORD PTR $T25[ebp]
  000e0	50		 push	 eax
  000e1	e8 00 00 00 00	 call	 ??3@YAXPAXI@Z		; operator delete
  000e6	83 c4 08	 add	 esp, 8
  000e9	c3		 ret	 0
__unwindfunclet$??0CToolSingleton@@QAE@PAVCAnalysisData@@@Z$13:
  000ea	68 d0 00 00 00	 push	 208			; 000000d0H
  000ef	8b 45 08	 mov	 eax, DWORD PTR $T24[ebp]
  000f2	50		 push	 eax
  000f3	e8 00 00 00 00	 call	 ??3@YAXPAXI@Z		; operator delete
  000f8	83 c4 08	 add	 esp, 8
  000fb	c3		 ret	 0
__unwindfunclet$??0CToolSingleton@@QAE@PAVCAnalysisData@@@Z$14:
  000fc	68 d0 00 00 00	 push	 208			; 000000d0H
  00101	8b 45 08	 mov	 eax, DWORD PTR $T23[ebp]
  00104	50		 push	 eax
  00105	e8 00 00 00 00	 call	 ??3@YAXPAXI@Z		; operator delete
  0010a	83 c4 08	 add	 esp, 8
  0010d	c3		 ret	 0
__unwindfunclet$??0CToolSingleton@@QAE@PAVCAnalysisData@@@Z$15:
  0010e	68 d8 00 00 00	 push	 216			; 000000d8H
  00113	8b 45 08	 mov	 eax, DWORD PTR $T22[ebp]
  00116	50		 push	 eax
  00117	e8 00 00 00 00	 call	 ??3@YAXPAXI@Z		; operator delete
  0011c	83 c4 08	 add	 esp, 8
  0011f	c3		 ret	 0
__unwindfunclet$??0CToolSingleton@@QAE@PAVCAnalysisData@@@Z$16:
  00120	68 d8 00 00 00	 push	 216			; 000000d8H
  00125	8b 45 08	 mov	 eax, DWORD PTR $T21[ebp]
  00128	50		 push	 eax
  00129	e8 00 00 00 00	 call	 ??3@YAXPAXI@Z		; operator delete
  0012e	83 c4 08	 add	 esp, 8
  00131	c3		 ret	 0
__unwindfunclet$??0CToolSingleton@@QAE@PAVCAnalysisData@@@Z$17:
  00132	68 d8 00 00 00	 push	 216			; 000000d8H
  00137	8b 45 08	 mov	 eax, DWORD PTR $T20[ebp]
  0013a	50		 push	 eax
  0013b	e8 00 00 00 00	 call	 ??3@YAXPAXI@Z		; operator delete
  00140	83 c4 08	 add	 esp, 8
  00143	c3		 ret	 0
__unwindfunclet$??0CToolSingleton@@QAE@PAVCAnalysisData@@@Z$18:
  00144	68 d8 00 00 00	 push	 216			; 000000d8H
  00149	8b 45 08	 mov	 eax, DWORD PTR $T19[ebp]
  0014c	50		 push	 eax
  0014d	e8 00 00 00 00	 call	 ??3@YAXPAXI@Z		; operator delete
  00152	83 c4 08	 add	 esp, 8
  00155	c3		 ret	 0
__unwindfunclet$??0CToolSingleton@@QAE@PAVCAnalysisData@@@Z$19:
  00156	68 d0 00 00 00	 push	 208			; 000000d0H
  0015b	8b 45 08	 mov	 eax, DWORD PTR $T18[ebp]
  0015e	50		 push	 eax
  0015f	e8 00 00 00 00	 call	 ??3@YAXPAXI@Z		; operator delete
  00164	83 c4 08	 add	 esp, 8
  00167	c3		 ret	 0
__unwindfunclet$??0CToolSingleton@@QAE@PAVCAnalysisData@@@Z$20:
  00168	68 18 01 00 00	 push	 280			; 00000118H
  0016d	8b 45 08	 mov	 eax, DWORD PTR $T17[ebp]
  00170	50		 push	 eax
  00171	e8 00 00 00 00	 call	 ??3@YAXPAXI@Z		; operator delete
  00176	83 c4 08	 add	 esp, 8
  00179	c3		 ret	 0
__unwindfunclet$??0CToolSingleton@@QAE@PAVCAnalysisData@@@Z$21:
  0017a	68 20 01 00 00	 push	 288			; 00000120H
  0017f	8b 45 08	 mov	 eax, DWORD PTR $T16[ebp]
  00182	50		 push	 eax
  00183	e8 00 00 00 00	 call	 ??3@YAXPAXI@Z		; operator delete
  00188	83 c4 08	 add	 esp, 8
  0018b	c3		 ret	 0
__unwindfunclet$??0CToolSingleton@@QAE@PAVCAnalysisData@@@Z$22:
  0018c	68 18 01 00 00	 push	 280			; 00000118H
  00191	8b 45 08	 mov	 eax, DWORD PTR $T15[ebp]
  00194	50		 push	 eax
  00195	e8 00 00 00 00	 call	 ??3@YAXPAXI@Z		; operator delete
  0019a	83 c4 08	 add	 esp, 8
  0019d	c3		 ret	 0
__unwindfunclet$??0CToolSingleton@@QAE@PAVCAnalysisData@@@Z$23:
  0019e	68 18 01 00 00	 push	 280			; 00000118H
  001a3	8b 45 08	 mov	 eax, DWORD PTR $T14[ebp]
  001a6	50		 push	 eax
  001a7	e8 00 00 00 00	 call	 ??3@YAXPAXI@Z		; operator delete
  001ac	83 c4 08	 add	 esp, 8
  001af	c3		 ret	 0
__unwindfunclet$??0CToolSingleton@@QAE@PAVCAnalysisData@@@Z$24:
  001b0	68 18 01 00 00	 push	 280			; 00000118H
  001b5	8b 45 08	 mov	 eax, DWORD PTR $T13[ebp]
  001b8	50		 push	 eax
  001b9	e8 00 00 00 00	 call	 ??3@YAXPAXI@Z		; operator delete
  001be	83 c4 08	 add	 esp, 8
  001c1	c3		 ret	 0
__unwindfunclet$??0CToolSingleton@@QAE@PAVCAnalysisData@@@Z$25:
  001c2	68 18 01 00 00	 push	 280			; 00000118H
  001c7	8b 45 08	 mov	 eax, DWORD PTR $T12[ebp]
  001ca	50		 push	 eax
  001cb	e8 00 00 00 00	 call	 ??3@YAXPAXI@Z		; operator delete
  001d0	83 c4 08	 add	 esp, 8
  001d3	c3		 ret	 0
__unwindfunclet$??0CToolSingleton@@QAE@PAVCAnalysisData@@@Z$26:
  001d4	68 20 01 00 00	 push	 288			; 00000120H
  001d9	8b 45 08	 mov	 eax, DWORD PTR $T11[ebp]
  001dc	50		 push	 eax
  001dd	e8 00 00 00 00	 call	 ??3@YAXPAXI@Z		; operator delete
  001e2	83 c4 08	 add	 esp, 8
  001e5	c3		 ret	 0
__unwindfunclet$??0CToolSingleton@@QAE@PAVCAnalysisData@@@Z$27:
  001e6	68 20 01 00 00	 push	 288			; 00000120H
  001eb	8b 45 08	 mov	 eax, DWORD PTR $T10[ebp]
  001ee	50		 push	 eax
  001ef	e8 00 00 00 00	 call	 ??3@YAXPAXI@Z		; operator delete
  001f4	83 c4 08	 add	 esp, 8
  001f7	c3		 ret	 0
__unwindfunclet$??0CToolSingleton@@QAE@PAVCAnalysisData@@@Z$28:
  001f8	68 d8 00 00 00	 push	 216			; 000000d8H
  001fd	8b 45 08	 mov	 eax, DWORD PTR $T9[ebp]
  00200	50		 push	 eax
  00201	e8 00 00 00 00	 call	 ??3@YAXPAXI@Z		; operator delete
  00206	83 c4 08	 add	 esp, 8
  00209	c3		 ret	 0
__unwindfunclet$??0CToolSingleton@@QAE@PAVCAnalysisData@@@Z$29:
  0020a	68 18 01 00 00	 push	 280			; 00000118H
  0020f	8b 45 08	 mov	 eax, DWORD PTR $T8[ebp]
  00212	50		 push	 eax
  00213	e8 00 00 00 00	 call	 ??3@YAXPAXI@Z		; operator delete
  00218	83 c4 08	 add	 esp, 8
  0021b	c3		 ret	 0
__unwindfunclet$??0CToolSingleton@@QAE@PAVCAnalysisData@@@Z$30:
  0021c	68 c0 4e 00 00	 push	 20160			; 00004ec0H
  00221	8b 45 08	 mov	 eax, DWORD PTR $T7[ebp]
  00224	50		 push	 eax
  00225	e8 00 00 00 00	 call	 ??3@YAXPAXI@Z		; operator delete
  0022a	83 c4 08	 add	 esp, 8
  0022d	c3		 ret	 0
__unwindfunclet$??0CToolSingleton@@QAE@PAVCAnalysisData@@@Z$31:
  0022e	68 20 01 00 00	 push	 288			; 00000120H
  00233	8b 45 08	 mov	 eax, DWORD PTR $T6[ebp]
  00236	50		 push	 eax
  00237	e8 00 00 00 00	 call	 ??3@YAXPAXI@Z		; operator delete
  0023c	83 c4 08	 add	 esp, 8
  0023f	c3		 ret	 0
__unwindfunclet$??0CToolSingleton@@QAE@PAVCAnalysisData@@@Z$32:
  00240	68 18 01 00 00	 push	 280			; 00000118H
  00245	8b 45 08	 mov	 eax, DWORD PTR $T5[ebp]
  00248	50		 push	 eax
  00249	e8 00 00 00 00	 call	 ??3@YAXPAXI@Z		; operator delete
  0024e	83 c4 08	 add	 esp, 8
  00251	c3		 ret	 0
__unwindfunclet$??0CToolSingleton@@QAE@PAVCAnalysisData@@@Z$33:
  00252	68 18 01 00 00	 push	 280			; 00000118H
  00257	8b 45 08	 mov	 eax, DWORD PTR $T4[ebp]
  0025a	50		 push	 eax
  0025b	e8 00 00 00 00	 call	 ??3@YAXPAXI@Z		; operator delete
  00260	83 c4 08	 add	 esp, 8
  00263	c3		 ret	 0
__unwindfunclet$??0CToolSingleton@@QAE@PAVCAnalysisData@@@Z$34:
  00264	68 00 01 00 00	 push	 256			; 00000100H
  00269	8b 45 08	 mov	 eax, DWORD PTR $T3[ebp]
  0026c	50		 push	 eax
  0026d	e8 00 00 00 00	 call	 ??3@YAXPAXI@Z		; operator delete
  00272	83 c4 08	 add	 esp, 8
  00275	c3		 ret	 0
  00276	cc		 int	 3
  00277	cc		 int	 3
  00278	cc		 int	 3
  00279	cc		 int	 3
  0027a	cc		 int	 3
__ehhandler$??0CToolSingleton@@QAE@PAVCAnalysisData@@@Z:
  0027b	90		 npad	 1
  0027c	90		 npad	 1
  0027d	8b 54 24 08	 mov	 edx, DWORD PTR [esp+8]
  00281	8d 42 0c	 lea	 eax, DWORD PTR [edx+12]
  00284	8b 4a f0	 mov	 ecx, DWORD PTR [edx-16]
  00287	33 c8		 xor	 ecx, eax
  00289	e8 00 00 00 00	 call	 @__security_check_cookie@4
  0028e	b8 00 00 00 00	 mov	 eax, OFFSET __ehfuncinfo$??0CToolSingleton@@QAE@PAVCAnalysisData@@@Z
  00293	e9 00 00 00 00	 jmp	 ___CxxFrameHandler3
text$x	ENDS
??0CToolSingleton@@QAE@PAVCAnalysisData@@@Z ENDP	; CToolSingleton::CToolSingleton
; Function compile flags: /Ogtp
; File D:\git\src\IBK\IBK_DRFN\ProjSrc\SrcChartEx\ChartAddIn\ChartAnalysisToolAddIn\AnalysisTool\ToolSingleton.cpp
;	COMDAT ?__empty_global_delete@@YAXPAXI@Z
_TEXT	SEGMENT
___formal$ = 8						; size = 4
___formal$ = 12						; size = 4
?__empty_global_delete@@YAXPAXI@Z PROC			; __empty_global_delete, COMDAT

  00000	c2 00 00	 ret	 0
?__empty_global_delete@@YAXPAXI@Z ENDP			; __empty_global_delete
_TEXT	ENDS
; Function compile flags: /Ogtp
; File D:\git\src\IBK\IBK_DRFN\ProjSrc\SrcChartEx\ChartAddIn\ChartAnalysisToolAddIn\AnalysisTool\ToolSingleton.cpp
;	COMDAT ?__empty_global_delete@@YAXPAX@Z
_TEXT	SEGMENT
___formal$ = 8						; size = 4
?__empty_global_delete@@YAXPAX@Z PROC			; __empty_global_delete, COMDAT

  00000	c2 00 00	 ret	 0
?__empty_global_delete@@YAXPAX@Z ENDP			; __empty_global_delete
_TEXT	ENDS
END
