; Listing generated by Microsoft (R) Optimizing Compiler Version 19.29.30145.0 

	TITLE	D:\git\src\IBK\IBK_DRFN\#DRfn-CS\_Obj\ChartLanguageTable\ChartCtrl.obj
	.686P
	.XMM
	include listing.inc
	.model	flat

INCLUDELIB MSVCRT
INCLUDELIB OLDNAMES

PUBLIC	?__empty_global_delete@@YAXPAX@Z		; __empty_global_delete
PUBLIC	?__empty_global_delete@@YAXPAXI@Z		; __empty_global_delete
PUBLIC	??1CObject@@UAE@XZ				; CObject::~CObject
PUBLIC	?Serialize@CObject@@UAEXAAVCArchive@@@Z		; CObject::Serialize
PUBLIC	?AssertValid@CObject@@UBEXXZ			; CObject::AssertValid
PUBLIC	?Dump@CObject@@UBEXAAVCDumpContext@@@Z		; CObject::Dump
PUBLIC	??0CChartCtrl@@QAE@PAUHWND__@@W4E_LANGUAGEID@IMetaTable@@@Z ; CChartCtrl::CChartCtrl
PUBLIC	??1CChartCtrl@@UAE@XZ				; CChartCtrl::~CChartCtrl
PUBLIC	?CreateLocalLanguageTable@CChartCtrl@@QAEXPBDH@Z ; CChartCtrl::CreateLocalLanguageTable
PUBLIC	?GetLocalLanguageTable@CChartCtrl@@QAEPBDXZ	; CChartCtrl::GetLocalLanguageTable
PUBLIC	?GetLanguageText@CChartCtrl@@QAEPBDW4E_CODEPAGE@IMetaTable@@PBD@Z ; CChartCtrl::GetLanguageText
PUBLIC	?CreateLocalMetaText@CChartCtrl@@QAEPBDPBD@Z	; CChartCtrl::CreateLocalMetaText
PUBLIC	?SetLocalMetaText@CChartCtrl@@QAEHPBD0@Z	; CChartCtrl::SetLocalMetaText
PUBLIC	?GetMetaText@CChartCtrl@@QAEPBDW4E_CODEPAGE@IMetaTable@@PBD@Z ; CChartCtrl::GetMetaText
PUBLIC	?GetMetaTextForScript@CChartCtrl@@QAEPBDW4E_CODEPAGE@IMetaTable@@PBD@Z ; CChartCtrl::GetMetaTextForScript
PUBLIC	??_GCChartCtrl@@UAEPAXI@Z			; CChartCtrl::`scalar deleting destructor'
PUBLIC	??_R0?AVCObject@@@8				; CObject `RTTI Type Descriptor'
PUBLIC	??_R3CObject@@8					; CObject::`RTTI Class Hierarchy Descriptor'
PUBLIC	??_R2CObject@@8					; CObject::`RTTI Base Class Array'
PUBLIC	??_R1A@?0A@EA@CObject@@8			; CObject::`RTTI Base Class Descriptor at (0,-1,0,64)'
PUBLIC	??_7CChartCtrl@@6B@				; CChartCtrl::`vftable'
PUBLIC	??_R4CChartCtrl@@6B@				; CChartCtrl::`RTTI Complete Object Locator'
PUBLIC	??_R0?AVCChartCtrl@@@8				; CChartCtrl `RTTI Type Descriptor'
PUBLIC	??_R3CChartCtrl@@8				; CChartCtrl::`RTTI Class Hierarchy Descriptor'
PUBLIC	??_R2CChartCtrl@@8				; CChartCtrl::`RTTI Base Class Array'
PUBLIC	??_R1A@?0A@EA@CChartCtrl@@8			; CChartCtrl::`RTTI Base Class Descriptor at (0,-1,0,64)'
EXTRN	??2@YAPAXI@Z:PROC				; operator new
EXTRN	??3@YAXPAX@Z:PROC				; operator delete
EXTRN	??3@YAXPAXI@Z:PROC				; operator delete
EXTRN	?__global_delete@@YAXPAXI@Z:PROC		; __global_delete
EXTRN	?GetRuntimeClass@CObject@@UBEPAUCRuntimeClass@@XZ:PROC ; CObject::GetRuntimeClass
EXTRN	__imp_?Empty@?$CSimpleStringT@D$00@ATL@@QAEXXZ:PROC
EXTRN	__imp_?GetBufferSetLength@?$CSimpleStringT@D$00@ATL@@QAEPADH@Z:PROC
EXTRN	__imp_??0?$CStringT@DV?$StrTraitMFC_DLL@DV?$ChTraitsCRT@D@ATL@@@@@ATL@@QAE@XZ:PROC
EXTRN	__imp_??1?$CStringT@DV?$StrTraitMFC_DLL@DV?$ChTraitsCRT@D@ATL@@@@@ATL@@QAE@XZ:PROC
EXTRN	??_ECChartCtrl@@UAEPAXI@Z:PROC			; CChartCtrl::`vector deleting destructor'
EXTRN	??0CCodePage@@QAE@H@Z:PROC			; CCodePage::CCodePage
EXTRN	?LoadMetaTable@CCodePage@@QAEHPAD@Z:PROC	; CCodePage::LoadMetaTable
EXTRN	?GetMetaTableString@CCodePage@@QAEHAAV?$CStringT@DV?$StrTraitMFC_DLL@DV?$ChTraitsCRT@D@ATL@@@@@ATL@@@Z:PROC ; CCodePage::GetMetaTableString
EXTRN	?SetLocalMetaText@CCodePage@@QAEHPBDW4E_LANGUAGEID@IMetaTable@@0@Z:PROC ; CCodePage::SetLocalMetaText
EXTRN	?GetLanguageText@CCodePage@@QAEPBDW4E_LANGUAGEID@IMetaTable@@PBD@Z:PROC ; CCodePage::GetLanguageText
EXTRN	?CreateMetaText@CCodePage@@QAEPBDW4E_LANGUAGEID@IMetaTable@@PBD@Z:PROC ; CCodePage::CreateMetaText
EXTRN	?GetMetaText@CCodePage@@QAEPBDW4E_LANGUAGEID@IMetaTable@@PBD@Z:PROC ; CCodePage::GetMetaText
EXTRN	?GetMetaTextForScript@CCodePage@@QAEPBDW4E_LANGUAGEID@IMetaTable@@PBD@Z:PROC ; CCodePage::GetMetaTextForScript
EXTRN	@__security_check_cookie@4:PROC
EXTRN	___CxxFrameHandler3:PROC
EXTRN	??_7type_info@@6B@:QWORD			; type_info::`vftable'
EXTRN	?g_metaTable@@3VCMetaTable@@A:BYTE		; g_metaTable
EXTRN	___security_cookie:DWORD
;	COMDAT ??_R1A@?0A@EA@CChartCtrl@@8
rdata$r	SEGMENT
??_R1A@?0A@EA@CChartCtrl@@8 DD FLAT:??_R0?AVCChartCtrl@@@8 ; CChartCtrl::`RTTI Base Class Descriptor at (0,-1,0,64)'
	DD	01H
	DD	00H
	DD	0ffffffffH
	DD	00H
	DD	040H
	DD	FLAT:??_R3CChartCtrl@@8
rdata$r	ENDS
;	COMDAT ??_R2CChartCtrl@@8
rdata$r	SEGMENT
??_R2CChartCtrl@@8 DD FLAT:??_R1A@?0A@EA@CChartCtrl@@8	; CChartCtrl::`RTTI Base Class Array'
	DD	FLAT:??_R1A@?0A@EA@CObject@@8
rdata$r	ENDS
;	COMDAT ??_R3CChartCtrl@@8
rdata$r	SEGMENT
??_R3CChartCtrl@@8 DD 00H				; CChartCtrl::`RTTI Class Hierarchy Descriptor'
	DD	00H
	DD	02H
	DD	FLAT:??_R2CChartCtrl@@8
rdata$r	ENDS
;	COMDAT ??_R0?AVCChartCtrl@@@8
data$rs	SEGMENT
??_R0?AVCChartCtrl@@@8 DD FLAT:??_7type_info@@6B@	; CChartCtrl `RTTI Type Descriptor'
	DD	00H
	DB	'.?AVCChartCtrl@@', 00H
data$rs	ENDS
;	COMDAT ??_R4CChartCtrl@@6B@
rdata$r	SEGMENT
??_R4CChartCtrl@@6B@ DD 00H				; CChartCtrl::`RTTI Complete Object Locator'
	DD	00H
	DD	00H
	DD	FLAT:??_R0?AVCChartCtrl@@@8
	DD	FLAT:??_R3CChartCtrl@@8
rdata$r	ENDS
;	COMDAT ??_7CChartCtrl@@6B@
CONST	SEGMENT
??_7CChartCtrl@@6B@ DD FLAT:??_R4CChartCtrl@@6B@	; CChartCtrl::`vftable'
	DD	FLAT:?GetRuntimeClass@CObject@@UBEPAUCRuntimeClass@@XZ
	DD	FLAT:??_ECChartCtrl@@UAEPAXI@Z
	DD	FLAT:?Serialize@CObject@@UAEXAAVCArchive@@@Z
	DD	FLAT:?AssertValid@CObject@@UBEXXZ
	DD	FLAT:?Dump@CObject@@UBEXAAVCDumpContext@@@Z
CONST	ENDS
;	COMDAT ??_R1A@?0A@EA@CObject@@8
rdata$r	SEGMENT
??_R1A@?0A@EA@CObject@@8 DD FLAT:??_R0?AVCObject@@@8	; CObject::`RTTI Base Class Descriptor at (0,-1,0,64)'
	DD	00H
	DD	00H
	DD	0ffffffffH
	DD	00H
	DD	040H
	DD	FLAT:??_R3CObject@@8
rdata$r	ENDS
;	COMDAT ??_R2CObject@@8
rdata$r	SEGMENT
??_R2CObject@@8 DD FLAT:??_R1A@?0A@EA@CObject@@8	; CObject::`RTTI Base Class Array'
rdata$r	ENDS
;	COMDAT ??_R3CObject@@8
rdata$r	SEGMENT
??_R3CObject@@8 DD 00H					; CObject::`RTTI Class Hierarchy Descriptor'
	DD	00H
	DD	01H
	DD	FLAT:??_R2CObject@@8
rdata$r	ENDS
;	COMDAT ??_R0?AVCObject@@@8
data$rs	SEGMENT
??_R0?AVCObject@@@8 DD FLAT:??_7type_info@@6B@		; CObject `RTTI Type Descriptor'
	DD	00H
	DB	'.?AVCObject@@', 00H
data$rs	ENDS
;	COMDAT xdata$x
xdata$x	SEGMENT
__unwindtable$?CreateLocalLanguageTable@CChartCtrl@@QAEXPBDH@Z DD 0ffffffffH
	DD	FLAT:__unwindfunclet$?CreateLocalLanguageTable@CChartCtrl@@QAEXPBDH@Z$0
__ehfuncinfo$?CreateLocalLanguageTable@CChartCtrl@@QAEXPBDH@Z DD 019930522H
	DD	01H
	DD	FLAT:__unwindtable$?CreateLocalLanguageTable@CChartCtrl@@QAEXPBDH@Z
	DD	2 DUP(00H)
	DD	2 DUP(00H)
	DD	00H
	DD	01H
xdata$x	ENDS
; Function compile flags: /Ogtp
; File D:\git\src\IBK\IBK_DRFN\ProjSrc\SrcChartEx\ChartOCX\ChartLanguageTable\ChartCtrl.cpp
; File C:\Program Files (x86)\Microsoft Visual Studio\2019\Community\VC\Tools\MSVC\14.29.30133\atlmfc\include\afx.inl
;	COMDAT ??_GCChartCtrl@@UAEPAXI@Z
_TEXT	SEGMENT
___flags$ = 8						; size = 4
??_GCChartCtrl@@UAEPAXI@Z PROC				; CChartCtrl::`scalar deleting destructor', COMDAT
; _this$ = ecx
  00000	55		 push	 ebp
  00001	8b ec		 mov	 ebp, esp
; File D:\git\src\IBK\IBK_DRFN\ProjSrc\SrcChartEx\ChartOCX\ChartLanguageTable\ChartCtrl.cpp

; 31   : {

  00003	56		 push	 esi
  00004	8b f1		 mov	 esi, ecx

; 32   : 	if( m_pLocalCodePage)

  00006	8b 4e 10	 mov	 ecx, DWORD PTR [esi+16]
  00009	c7 06 00 00 00
	00		 mov	 DWORD PTR [esi], OFFSET ??_7CChartCtrl@@6B@
  0000f	85 c9		 test	 ecx, ecx
  00011	74 0d		 je	 SHORT $LN8@scalar

; 33   : 	{
; 34   : 		delete m_pLocalCodePage;

  00013	8b 01		 mov	 eax, DWORD PTR [ecx]
  00015	6a 01		 push	 1
  00017	ff 10		 call	 DWORD PTR [eax]

; 35   : 		m_pLocalCodePage = NULL;

  00019	c7 46 10 00 00
	00 00		 mov	 DWORD PTR [esi+16], 0
$LN8@scalar:

; 36   : 	}
; 37   : }

  00020	8d 4e 18	 lea	 ecx, DWORD PTR [esi+24]
  00023	ff 15 00 00 00
	00		 call	 DWORD PTR __imp_??1?$CStringT@DV?$StrTraitMFC_DLL@DV?$ChTraitsCRT@D@ATL@@@@@ATL@@QAE@XZ
  00029	8d 4e 14	 lea	 ecx, DWORD PTR [esi+20]
  0002c	ff 15 00 00 00
	00		 call	 DWORD PTR __imp_??1?$CStringT@DV?$StrTraitMFC_DLL@DV?$ChTraitsCRT@D@ATL@@@@@ATL@@QAE@XZ
  00032	8b 45 08	 mov	 eax, DWORD PTR ___flags$[ebp]
  00035	a8 01		 test	 al, 1
  00037	74 1f		 je	 SHORT $LN15@scalar
  00039	a8 04		 test	 al, 4
  0003b	75 10		 jne	 SHORT $LN3@scalar
; File C:\Program Files (x86)\Microsoft Visual Studio\2019\Community\VC\Tools\MSVC\14.29.30133\atlmfc\include\afx.inl

; 112  : 	{ ::operator delete(p); }

  0003d	56		 push	 esi
  0003e	e8 00 00 00 00	 call	 ??3@YAXPAX@Z		; operator delete
  00043	83 c4 04	 add	 esp, 4
  00046	8b c6		 mov	 eax, esi
  00048	5e		 pop	 esi
  00049	5d		 pop	 ebp
  0004a	c2 04 00	 ret	 4
$LN3@scalar:
  0004d	6a 1c		 push	 28			; 0000001cH
  0004f	56		 push	 esi
  00050	e8 00 00 00 00	 call	 ?__global_delete@@YAXPAXI@Z ; __global_delete
  00055	83 c4 08	 add	 esp, 8
$LN15@scalar:
  00058	8b c6		 mov	 eax, esi
  0005a	5e		 pop	 esi
  0005b	5d		 pop	 ebp
  0005c	c2 04 00	 ret	 4
??_GCChartCtrl@@UAEPAXI@Z ENDP				; CChartCtrl::`scalar deleting destructor'
_TEXT	ENDS
; Function compile flags: /Ogtp
; File D:\git\src\IBK\IBK_DRFN\ProjSrc\SrcChartEx\ChartOCX\ChartLanguageTable\ChartCtrl.cpp
; File D:\git\src\IBK\IBK_DRFN\ProjSrc\SrcChartEx\ChartOCX\ChartLanguageTable\MetaTable.h
; File D:\git\src\IBK\IBK_DRFN\ProjSrc\SrcChartEx\ChartOCX\ChartLanguageTable\ChartCtrl.cpp
;	COMDAT ?GetMetaTextForScript@CChartCtrl@@QAEPBDW4E_CODEPAGE@IMetaTable@@PBD@Z
_TEXT	SEGMENT
_p_eCodePage$ = 8					; size = 4
_p_szOtherMOrLText$ = 12				; size = 4
?GetMetaTextForScript@CChartCtrl@@QAEPBDW4E_CODEPAGE@IMetaTable@@PBD@Z PROC ; CChartCtrl::GetMetaTextForScript, COMDAT
; _this$ = ecx

; 124  : {

  00000	55		 push	 ebp
  00001	8b ec		 mov	 ebp, esp
  00003	56		 push	 esi
  00004	8b 75 08	 mov	 esi, DWORD PTR _p_eCodePage$[ebp]

; 125  : 	const char *szMetaText = NULL;

  00007	33 c0		 xor	 eax, eax
  00009	57		 push	 edi
  0000a	8b f9		 mov	 edi, ecx

; 126  : 	if( IMetaTable::PACKET_NAME == p_eCodePage || IMetaTable::GRAPH_TITLE == p_eCodePage)

  0000c	85 f6		 test	 esi, esi
  0000e	74 05		 je	 SHORT $LN3@GetMetaTex
  00010	83 fe 01	 cmp	 esi, 1
  00013	75 16		 jne	 SHORT $LN12@GetMetaTex
$LN3@GetMetaTex:

; 127  : 		if( m_pLocalCodePage) szMetaText = m_pLocalCodePage->GetMetaTextForScript( m_eLanguageID, p_szOtherMOrLText);

  00015	8b 4f 10	 mov	 ecx, DWORD PTR [edi+16]
  00018	85 c9		 test	 ecx, ecx
  0001a	74 0f		 je	 SHORT $LN12@GetMetaTex
  0001c	ff 75 0c	 push	 DWORD PTR _p_szOtherMOrLText$[ebp]
  0001f	ff 77 08	 push	 DWORD PTR [edi+8]
  00022	e8 00 00 00 00	 call	 ?GetMetaTextForScript@CCodePage@@QAEPBDW4E_LANGUAGEID@IMetaTable@@PBD@Z ; CCodePage::GetMetaTextForScript

; 128  : 	
; 129  : 	if( !szMetaText)

  00027	85 c0		 test	 eax, eax
  00029	75 1b		 jne	 SHORT $LN6@GetMetaTex
$LN12@GetMetaTex:
; File D:\git\src\IBK\IBK_DRFN\ProjSrc\SrcChartEx\ChartOCX\ChartLanguageTable\MetaTable.h

; 36   : 					{	return ( IMetaTable::PACKET_NAME <= p_eCodePage && p_eCodePage < IMetaTable::CODE_PAGE_END) ? m_pCodePage[ p_eCodePage] : NULL;	}

  0002b	83 fe 08	 cmp	 esi, 8
  0002e	77 16		 ja	 SHORT $LN6@GetMetaTex
  00030	8b 0c b5 08 00
	00 00		 mov	 ecx, DWORD PTR ?g_metaTable@@3VCMetaTable@@A[esi*4+8]
; File D:\git\src\IBK\IBK_DRFN\ProjSrc\SrcChartEx\ChartOCX\ChartLanguageTable\ChartCtrl.cpp

; 132  : 		if( pCodePage) szMetaText = pCodePage->GetMetaTextForScript( m_eLanguageID, p_szOtherMOrLText);

  00037	85 c9		 test	 ecx, ecx
  00039	74 0b		 je	 SHORT $LN6@GetMetaTex
  0003b	ff 75 0c	 push	 DWORD PTR _p_szOtherMOrLText$[ebp]
  0003e	ff 77 08	 push	 DWORD PTR [edi+8]
  00041	e8 00 00 00 00	 call	 ?GetMetaTextForScript@CCodePage@@QAEPBDW4E_LANGUAGEID@IMetaTable@@PBD@Z ; CCodePage::GetMetaTextForScript
$LN6@GetMetaTex:

; 133  : 	}
; 134  : 
; 135  : 	return szMetaText;
; 136  : }

  00046	5f		 pop	 edi
  00047	5e		 pop	 esi
  00048	5d		 pop	 ebp
  00049	c2 08 00	 ret	 8
?GetMetaTextForScript@CChartCtrl@@QAEPBDW4E_CODEPAGE@IMetaTable@@PBD@Z ENDP ; CChartCtrl::GetMetaTextForScript
_TEXT	ENDS
; Function compile flags: /Ogtp
; File D:\git\src\IBK\IBK_DRFN\ProjSrc\SrcChartEx\ChartOCX\ChartLanguageTable\ChartCtrl.cpp
; File D:\git\src\IBK\IBK_DRFN\ProjSrc\SrcChartEx\ChartOCX\ChartLanguageTable\MetaTable.h
; File D:\git\src\IBK\IBK_DRFN\ProjSrc\SrcChartEx\ChartOCX\ChartLanguageTable\ChartCtrl.cpp
;	COMDAT ?GetMetaText@CChartCtrl@@QAEPBDW4E_CODEPAGE@IMetaTable@@PBD@Z
_TEXT	SEGMENT
_p_eCodePage$ = 8					; size = 4
_p_szLanguageText$ = 12					; size = 4
?GetMetaText@CChartCtrl@@QAEPBDW4E_CODEPAGE@IMetaTable@@PBD@Z PROC ; CChartCtrl::GetMetaText, COMDAT
; _this$ = ecx

; 105  : {

  00000	55		 push	 ebp
  00001	8b ec		 mov	 ebp, esp
  00003	53		 push	 ebx
  00004	56		 push	 esi
  00005	8b 75 08	 mov	 esi, DWORD PTR _p_eCodePage$[ebp]
  00008	8b d9		 mov	 ebx, ecx
  0000a	57		 push	 edi

; 106  : 
; 107  : 	const char *szMetaText = NULL;
; 108  : 	if( IMetaTable::PACKET_NAME == p_eCodePage || IMetaTable::GRAPH_TITLE == p_eCodePage)

  0000b	8b 7d 0c	 mov	 edi, DWORD PTR _p_szLanguageText$[ebp]
  0000e	85 f6		 test	 esi, esi
  00010	74 05		 je	 SHORT $LN3@GetMetaTex
  00012	83 fe 01	 cmp	 esi, 1
  00015	75 14		 jne	 SHORT $LN5@GetMetaTex
$LN3@GetMetaTex:

; 109  : 		if( m_pLocalCodePage) szMetaText = m_pLocalCodePage->GetMetaText( m_eLanguageID, p_szLanguageText);

  00017	8b 4b 10	 mov	 ecx, DWORD PTR [ebx+16]
  0001a	85 c9		 test	 ecx, ecx
  0001c	74 0d		 je	 SHORT $LN5@GetMetaTex
  0001e	57		 push	 edi
  0001f	ff 73 08	 push	 DWORD PTR [ebx+8]
  00022	e8 00 00 00 00	 call	 ?GetMetaText@CCodePage@@QAEPBDW4E_LANGUAGEID@IMetaTable@@PBD@Z ; CCodePage::GetMetaText

; 110  : 	
; 111  : 	if( szMetaText) return szMetaText;

  00027	85 c0		 test	 eax, eax
  00029	75 22		 jne	 SHORT $LN1@GetMetaTex
$LN5@GetMetaTex:
; File D:\git\src\IBK\IBK_DRFN\ProjSrc\SrcChartEx\ChartOCX\ChartLanguageTable\MetaTable.h

; 36   : 					{	return ( IMetaTable::PACKET_NAME <= p_eCodePage && p_eCodePage < IMetaTable::CODE_PAGE_END) ? m_pCodePage[ p_eCodePage] : NULL;	}

  0002b	83 fe 08	 cmp	 esi, 8
  0002e	77 1b		 ja	 SHORT $LN12@GetMetaTex
  00030	8b 0c b5 08 00
	00 00		 mov	 ecx, DWORD PTR ?g_metaTable@@3VCMetaTable@@A[esi*4+8]
; File D:\git\src\IBK\IBK_DRFN\ProjSrc\SrcChartEx\ChartOCX\ChartLanguageTable\ChartCtrl.cpp

; 114  : 	if( !pCodePage)

  00037	85 c9		 test	 ecx, ecx
  00039	74 10		 je	 SHORT $LN12@GetMetaTex

; 117  : 	}
; 118  : 	return pCodePage->GetMetaText( m_eLanguageID, p_szLanguageText);

  0003b	57		 push	 edi
  0003c	ff 73 08	 push	 DWORD PTR [ebx+8]
  0003f	e8 00 00 00 00	 call	 ?GetMetaText@CCodePage@@QAEPBDW4E_LANGUAGEID@IMetaTable@@PBD@Z ; CCodePage::GetMetaText
  00044	5f		 pop	 edi

; 119  : }

  00045	5e		 pop	 esi
  00046	5b		 pop	 ebx
  00047	5d		 pop	 ebp
  00048	c2 08 00	 ret	 8
$LN12@GetMetaTex:

; 115  : 	{
; 116  : 		return p_szLanguageText;

  0004b	8b c7		 mov	 eax, edi
$LN1@GetMetaTex:
  0004d	5f		 pop	 edi

; 119  : }

  0004e	5e		 pop	 esi
  0004f	5b		 pop	 ebx
  00050	5d		 pop	 ebp
  00051	c2 08 00	 ret	 8
?GetMetaText@CChartCtrl@@QAEPBDW4E_CODEPAGE@IMetaTable@@PBD@Z ENDP ; CChartCtrl::GetMetaText
_TEXT	ENDS
; Function compile flags: /Ogtp
; File D:\git\src\IBK\IBK_DRFN\ProjSrc\SrcChartEx\ChartOCX\ChartLanguageTable\ChartCtrl.cpp
;	COMDAT ?SetLocalMetaText@CChartCtrl@@QAEHPBD0@Z
_TEXT	SEGMENT
_p_szMetaText$ = 8					; size = 4
_p_szLanguageText$ = 12					; size = 4
?SetLocalMetaText@CChartCtrl@@QAEHPBD0@Z PROC		; CChartCtrl::SetLocalMetaText, COMDAT
; _this$ = ecx

; 97   : {

  00000	55		 push	 ebp
  00001	8b ec		 mov	 ebp, esp

; 98   : 	if( !m_pLocalCodePage || !m_bDesignMode) return FALSE;

  00003	8b 41 10	 mov	 eax, DWORD PTR [ecx+16]
  00006	85 c0		 test	 eax, eax
  00008	74 1a		 je	 SHORT $LN3@SetLocalMe
  0000a	83 79 0c 00	 cmp	 DWORD PTR [ecx+12], 0
  0000e	74 14		 je	 SHORT $LN3@SetLocalMe

; 99   : 	return m_pLocalCodePage->SetLocalMetaText( p_szMetaText, m_eLanguageID, p_szLanguageText);

  00010	ff 75 0c	 push	 DWORD PTR _p_szLanguageText$[ebp]
  00013	ff 71 08	 push	 DWORD PTR [ecx+8]
  00016	8b c8		 mov	 ecx, eax
  00018	ff 75 08	 push	 DWORD PTR _p_szMetaText$[ebp]
  0001b	e8 00 00 00 00	 call	 ?SetLocalMetaText@CCodePage@@QAEHPBDW4E_LANGUAGEID@IMetaTable@@0@Z ; CCodePage::SetLocalMetaText

; 100  : }

  00020	5d		 pop	 ebp
  00021	c2 08 00	 ret	 8
$LN3@SetLocalMe:

; 98   : 	if( !m_pLocalCodePage || !m_bDesignMode) return FALSE;

  00024	33 c0		 xor	 eax, eax

; 100  : }

  00026	5d		 pop	 ebp
  00027	c2 08 00	 ret	 8
?SetLocalMetaText@CChartCtrl@@QAEHPBD0@Z ENDP		; CChartCtrl::SetLocalMetaText
_TEXT	ENDS
; Function compile flags: /Ogtp
; File D:\git\src\IBK\IBK_DRFN\ProjSrc\SrcChartEx\ChartOCX\ChartLanguageTable\ChartCtrl.cpp
;	COMDAT ?CreateLocalMetaText@CChartCtrl@@QAEPBDPBD@Z
_TEXT	SEGMENT
_p_szLanguageText$ = 8					; size = 4
?CreateLocalMetaText@CChartCtrl@@QAEPBDPBD@Z PROC	; CChartCtrl::CreateLocalMetaText, COMDAT
; _this$ = ecx

; 84   : {

  00000	55		 push	 ebp
  00001	8b ec		 mov	 ebp, esp
  00003	56		 push	 esi
  00004	8b f1		 mov	 esi, ecx
  00006	57		 push	 edi

; 85   : 	if( !m_pLocalCodePage) return p_szLanguageText;

  00007	8b 7d 08	 mov	 edi, DWORD PTR _p_szLanguageText$[ebp]
  0000a	8b 4e 10	 mov	 ecx, DWORD PTR [esi+16]
  0000d	85 c9		 test	 ecx, ecx
  0000f	74 24		 je	 SHORT $LN6@CreateLoca

; 86   : 
; 87   : 	const char *szMetaText = m_pLocalCodePage->GetMetaText( m_eLanguageID, p_szLanguageText);

  00011	57		 push	 edi
  00012	ff 76 08	 push	 DWORD PTR [esi+8]
  00015	e8 00 00 00 00	 call	 ?GetMetaText@CCodePage@@QAEPBDW4E_LANGUAGEID@IMetaTable@@PBD@Z ; CCodePage::GetMetaText

; 88   : 	if( szMetaText) return szMetaText;

  0001a	85 c0		 test	 eax, eax
  0001c	75 19		 jne	 SHORT $LN1@CreateLoca

; 89   : 	if( !m_bDesignMode) return p_szLanguageText;

  0001e	39 46 0c	 cmp	 DWORD PTR [esi+12], eax
  00021	74 12		 je	 SHORT $LN6@CreateLoca

; 90   : 
; 91   : 	return m_pLocalCodePage->CreateMetaText( m_eLanguageID, p_szLanguageText);

  00023	8b 4e 10	 mov	 ecx, DWORD PTR [esi+16]
  00026	57		 push	 edi
  00027	ff 76 08	 push	 DWORD PTR [esi+8]
  0002a	e8 00 00 00 00	 call	 ?CreateMetaText@CCodePage@@QAEPBDW4E_LANGUAGEID@IMetaTable@@PBD@Z ; CCodePage::CreateMetaText
  0002f	5f		 pop	 edi

; 92   : }

  00030	5e		 pop	 esi
  00031	5d		 pop	 ebp
  00032	c2 04 00	 ret	 4
$LN6@CreateLoca:

; 89   : 	if( !m_bDesignMode) return p_szLanguageText;

  00035	8b c7		 mov	 eax, edi
$LN1@CreateLoca:
  00037	5f		 pop	 edi

; 92   : }

  00038	5e		 pop	 esi
  00039	5d		 pop	 ebp
  0003a	c2 04 00	 ret	 4
?CreateLocalMetaText@CChartCtrl@@QAEPBDPBD@Z ENDP	; CChartCtrl::CreateLocalMetaText
_TEXT	ENDS
; Function compile flags: /Ogtp
; File D:\git\src\IBK\IBK_DRFN\ProjSrc\SrcChartEx\ChartOCX\ChartLanguageTable\ChartCtrl.cpp
; File D:\git\src\IBK\IBK_DRFN\ProjSrc\SrcChartEx\ChartOCX\ChartLanguageTable\MetaTable.h
; File D:\git\src\IBK\IBK_DRFN\ProjSrc\SrcChartEx\ChartOCX\ChartLanguageTable\ChartCtrl.cpp
;	COMDAT ?GetLanguageText@CChartCtrl@@QAEPBDW4E_CODEPAGE@IMetaTable@@PBD@Z
_TEXT	SEGMENT
_p_eCodePage$ = 8					; size = 4
_p_szMetaText$ = 12					; size = 4
?GetLanguageText@CChartCtrl@@QAEPBDW4E_CODEPAGE@IMetaTable@@PBD@Z PROC ; CChartCtrl::GetLanguageText, COMDAT
; _this$ = ecx

; 66   : {

  00000	55		 push	 ebp
  00001	8b ec		 mov	 ebp, esp
  00003	53		 push	 ebx
  00004	56		 push	 esi
  00005	8b 75 08	 mov	 esi, DWORD PTR _p_eCodePage$[ebp]
  00008	8b d9		 mov	 ebx, ecx
  0000a	57		 push	 edi

; 67   : 	const char *szLanguageText = NULL;
; 68   : 	if( IMetaTable::PACKET_NAME == p_eCodePage || IMetaTable::GRAPH_TITLE == p_eCodePage)

  0000b	8b 7d 0c	 mov	 edi, DWORD PTR _p_szMetaText$[ebp]
  0000e	85 f6		 test	 esi, esi
  00010	74 05		 je	 SHORT $LN3@GetLanguag
  00012	83 fe 01	 cmp	 esi, 1
  00015	75 14		 jne	 SHORT $LN5@GetLanguag
$LN3@GetLanguag:

; 69   : 		if( m_pLocalCodePage) szLanguageText = m_pLocalCodePage->GetLanguageText( m_eLanguageID, p_szMetaText);

  00017	8b 4b 10	 mov	 ecx, DWORD PTR [ebx+16]
  0001a	85 c9		 test	 ecx, ecx
  0001c	74 0d		 je	 SHORT $LN5@GetLanguag
  0001e	57		 push	 edi
  0001f	ff 73 08	 push	 DWORD PTR [ebx+8]
  00022	e8 00 00 00 00	 call	 ?GetLanguageText@CCodePage@@QAEPBDW4E_LANGUAGEID@IMetaTable@@PBD@Z ; CCodePage::GetLanguageText

; 70   : 	
; 71   : 	if( szLanguageText) return szLanguageText;

  00027	85 c0		 test	 eax, eax
  00029	75 22		 jne	 SHORT $LN1@GetLanguag
$LN5@GetLanguag:
; File D:\git\src\IBK\IBK_DRFN\ProjSrc\SrcChartEx\ChartOCX\ChartLanguageTable\MetaTable.h

; 36   : 					{	return ( IMetaTable::PACKET_NAME <= p_eCodePage && p_eCodePage < IMetaTable::CODE_PAGE_END) ? m_pCodePage[ p_eCodePage] : NULL;	}

  0002b	83 fe 08	 cmp	 esi, 8
  0002e	77 1b		 ja	 SHORT $LN12@GetLanguag
  00030	8b 0c b5 08 00
	00 00		 mov	 ecx, DWORD PTR ?g_metaTable@@3VCMetaTable@@A[esi*4+8]
; File D:\git\src\IBK\IBK_DRFN\ProjSrc\SrcChartEx\ChartOCX\ChartLanguageTable\ChartCtrl.cpp

; 75   : 	if( !pCodePage) return p_szMetaText;

  00037	85 c9		 test	 ecx, ecx
  00039	74 10		 je	 SHORT $LN12@GetLanguag

; 76   : 
; 77   : 	return pCodePage->GetLanguageText( m_eLanguageID, p_szMetaText);

  0003b	57		 push	 edi
  0003c	ff 73 08	 push	 DWORD PTR [ebx+8]
  0003f	e8 00 00 00 00	 call	 ?GetLanguageText@CCodePage@@QAEPBDW4E_LANGUAGEID@IMetaTable@@PBD@Z ; CCodePage::GetLanguageText
  00044	5f		 pop	 edi

; 78   : }

  00045	5e		 pop	 esi
  00046	5b		 pop	 ebx
  00047	5d		 pop	 ebp
  00048	c2 08 00	 ret	 8
$LN12@GetLanguag:

; 75   : 	if( !pCodePage) return p_szMetaText;

  0004b	8b c7		 mov	 eax, edi
$LN1@GetLanguag:
  0004d	5f		 pop	 edi

; 78   : }

  0004e	5e		 pop	 esi
  0004f	5b		 pop	 ebx
  00050	5d		 pop	 ebp
  00051	c2 08 00	 ret	 8
?GetLanguageText@CChartCtrl@@QAEPBDW4E_CODEPAGE@IMetaTable@@PBD@Z ENDP ; CChartCtrl::GetLanguageText
_TEXT	ENDS
; Function compile flags: /Ogtp
; File D:\git\src\IBK\IBK_DRFN\ProjSrc\SrcChartEx\ChartOCX\ChartLanguageTable\ChartCtrl.cpp
;	COMDAT ?GetLocalLanguageTable@CChartCtrl@@QAEPBDXZ
_TEXT	SEGMENT
?GetLocalLanguageTable@CChartCtrl@@QAEPBDXZ PROC	; CChartCtrl::GetLocalLanguageTable, COMDAT
; _this$ = ecx

; 59   : {

  00000	56		 push	 esi
  00001	8b f1		 mov	 esi, ecx
  00003	57		 push	 edi

; 60   : 	m_strLocalLanguageTableRetrieveBuffer.Empty();

  00004	8d 7e 18	 lea	 edi, DWORD PTR [esi+24]
  00007	8b cf		 mov	 ecx, edi
  00009	ff 15 00 00 00
	00		 call	 DWORD PTR __imp_?Empty@?$CSimpleStringT@D$00@ATL@@QAEXXZ

; 61   : 	if( m_pLocalCodePage) m_pLocalCodePage->GetMetaTableString( m_strLocalLanguageTableRetrieveBuffer);

  0000f	8b 4e 10	 mov	 ecx, DWORD PTR [esi+16]
  00012	85 c9		 test	 ecx, ecx
  00014	74 06		 je	 SHORT $LN6@GetLocalLa
  00016	57		 push	 edi
  00017	e8 00 00 00 00	 call	 ?GetMetaTableString@CCodePage@@QAEHAAV?$CStringT@DV?$StrTraitMFC_DLL@DV?$ChTraitsCRT@D@ATL@@@@@ATL@@@Z ; CCodePage::GetMetaTableString
$LN6@GetLocalLa:

; 62   : 	return m_strLocalLanguageTableRetrieveBuffer;
; 63   : }

  0001c	8b 07		 mov	 eax, DWORD PTR [edi]
  0001e	5f		 pop	 edi
  0001f	5e		 pop	 esi
  00020	c3		 ret	 0
?GetLocalLanguageTable@CChartCtrl@@QAEPBDXZ ENDP	; CChartCtrl::GetLocalLanguageTable
_TEXT	ENDS
; Function compile flags: /Ogtp
; File D:\git\src\IBK\IBK_DRFN\ProjSrc\SrcChartEx\ChartOCX\ChartLanguageTable\ChartCtrl.cpp
;	COMDAT ?CreateLocalLanguageTable@CChartCtrl@@QAEXPBDH@Z
_TEXT	SEGMENT
__$EHRec$ = -12						; size = 12
_p_szLocalLanguageTable$ = 8				; size = 4
$T2 = 12						; size = 4
_p_bDesignMode$ = 12					; size = 4
?CreateLocalLanguageTable@CChartCtrl@@QAEXPBDH@Z PROC	; CChartCtrl::CreateLocalLanguageTable, COMDAT
; _this$ = ecx

; 40   : {

  00000	55		 push	 ebp
  00001	8b ec		 mov	 ebp, esp
  00003	6a ff		 push	 -1
  00005	68 00 00 00 00	 push	 __ehhandler$?CreateLocalLanguageTable@CChartCtrl@@QAEXPBDH@Z
  0000a	64 a1 00 00 00
	00		 mov	 eax, DWORD PTR fs:0
  00010	50		 push	 eax
  00011	56		 push	 esi
  00012	57		 push	 edi
  00013	a1 00 00 00 00	 mov	 eax, DWORD PTR ___security_cookie
  00018	33 c5		 xor	 eax, ebp
  0001a	50		 push	 eax
  0001b	8d 45 f4	 lea	 eax, DWORD PTR __$EHRec$[ebp]
  0001e	64 a3 00 00 00
	00		 mov	 DWORD PTR fs:0, eax
  00024	8b f9		 mov	 edi, ecx

; 41   : 	if( m_pLocalCodePage)

  00026	8b 4f 10	 mov	 ecx, DWORD PTR [edi+16]
  00029	85 c9		 test	 ecx, ecx
  0002b	74 0d		 je	 SHORT $LN2@CreateLoca

; 42   : 	{
; 43   : 		delete m_pLocalCodePage;

  0002d	8b 01		 mov	 eax, DWORD PTR [ecx]
  0002f	6a 01		 push	 1
  00031	ff 10		 call	 DWORD PTR [eax]

; 44   : 		m_pLocalCodePage = NULL;

  00033	c7 47 10 00 00
	00 00		 mov	 DWORD PTR [edi+16], 0
$LN2@CreateLoca:

; 45   : 	}
; 46   : 	m_bDesignMode = p_bDesignMode;

  0003a	8b 45 0c	 mov	 eax, DWORD PTR _p_bDesignMode$[ebp]

; 47   : 	m_pLocalCodePage = new CCodePage( -1);

  0003d	68 94 00 00 00	 push	 148			; 00000094H
  00042	89 47 0c	 mov	 DWORD PTR [edi+12], eax
  00045	e8 00 00 00 00	 call	 ??2@YAPAXI@Z		; operator new
  0004a	83 c4 04	 add	 esp, 4
  0004d	89 45 0c	 mov	 DWORD PTR $T2[ebp], eax
  00050	c7 45 fc 00 00
	00 00		 mov	 DWORD PTR __$EHRec$[ebp+8], 0
  00057	85 c0		 test	 eax, eax
  00059	74 0b		 je	 SHORT $LN8@CreateLoca
  0005b	6a ff		 push	 -1
  0005d	8b c8		 mov	 ecx, eax
  0005f	e8 00 00 00 00	 call	 ??0CCodePage@@QAE@H@Z	; CCodePage::CCodePage
  00064	eb 02		 jmp	 SHORT $LN9@CreateLoca
$LN8@CreateLoca:
  00066	33 c0		 xor	 eax, eax
$LN9@CreateLoca:

; 48   : 
; 49   : 	if( !p_szLocalLanguageTable) return;

  00068	8b 75 08	 mov	 esi, DWORD PTR _p_szLocalLanguageTable$[ebp]
  0006b	c7 45 fc ff ff
	ff ff		 mov	 DWORD PTR __$EHRec$[ebp+8], -1
  00072	89 47 10	 mov	 DWORD PTR [edi+16], eax
  00075	85 f6		 test	 esi, esi
  00077	74 3d		 je	 SHORT $LN1@CreateLoca

; 50   : 	if( !*p_szLocalLanguageTable) return;

  00079	80 3e 00	 cmp	 BYTE PTR [esi], 0
  0007c	74 38		 je	 SHORT $LN1@CreateLoca

; 51   : 
; 52   : 	size_t nTableLen = strlen( p_szLocalLanguageTable);

  0007e	8b ce		 mov	 ecx, esi
  00080	8d 51 01	 lea	 edx, DWORD PTR [ecx+1]
$LL15@CreateLoca:
  00083	8a 01		 mov	 al, BYTE PTR [ecx]
  00085	41		 inc	 ecx
  00086	84 c0		 test	 al, al
  00088	75 f9		 jne	 SHORT $LL15@CreateLoca
  0008a	2b ca		 sub	 ecx, edx

; 53   : 	char *szLocalLanguageTable = m_strLocalLanguageTable.GetBufferSetLength( nTableLen);

  0008c	51		 push	 ecx
  0008d	8d 4f 14	 lea	 ecx, DWORD PTR [edi+20]
  00090	ff 15 00 00 00
	00		 call	 DWORD PTR __imp_?GetBufferSetLength@?$CSimpleStringT@D$00@ATL@@QAEPADH@Z
  00096	8b d0		 mov	 edx, eax
  00098	2b d6		 sub	 edx, esi
  0009a	66 0f 1f 44 00
	00		 npad	 6
$LL10@CreateLoca:

; 54   : 	strcpy( szLocalLanguageTable, p_szLocalLanguageTable);

  000a0	8a 0e		 mov	 cl, BYTE PTR [esi]
  000a2	8d 76 01	 lea	 esi, DWORD PTR [esi+1]
  000a5	88 4c 32 ff	 mov	 BYTE PTR [edx+esi-1], cl
  000a9	84 c9		 test	 cl, cl
  000ab	75 f3		 jne	 SHORT $LL10@CreateLoca

; 55   : 	m_pLocalCodePage->LoadMetaTable( szLocalLanguageTable);

  000ad	8b 4f 10	 mov	 ecx, DWORD PTR [edi+16]
  000b0	50		 push	 eax
  000b1	e8 00 00 00 00	 call	 ?LoadMetaTable@CCodePage@@QAEHPAD@Z ; CCodePage::LoadMetaTable
$LN1@CreateLoca:

; 56   : }

  000b6	8b 4d f4	 mov	 ecx, DWORD PTR __$EHRec$[ebp]
  000b9	64 89 0d 00 00
	00 00		 mov	 DWORD PTR fs:0, ecx
  000c0	59		 pop	 ecx
  000c1	5f		 pop	 edi
  000c2	5e		 pop	 esi
  000c3	8b e5		 mov	 esp, ebp
  000c5	5d		 pop	 ebp
  000c6	c2 08 00	 ret	 8
_TEXT	ENDS
;	COMDAT text$x
text$x	SEGMENT
__unwindfunclet$?CreateLocalLanguageTable@CChartCtrl@@QAEXPBDH@Z$0:
  00000	68 94 00 00 00	 push	 148			; 00000094H
  00005	8b 45 0c	 mov	 eax, DWORD PTR $T2[ebp]
  00008	50		 push	 eax
  00009	e8 00 00 00 00	 call	 ??3@YAXPAXI@Z		; operator delete
  0000e	83 c4 08	 add	 esp, 8
  00011	c3		 ret	 0
  00012	cc		 int	 3
  00013	cc		 int	 3
  00014	cc		 int	 3
  00015	cc		 int	 3
  00016	cc		 int	 3
__ehhandler$?CreateLocalLanguageTable@CChartCtrl@@QAEXPBDH@Z:
  00017	90		 npad	 1
  00018	90		 npad	 1
  00019	8b 54 24 08	 mov	 edx, DWORD PTR [esp+8]
  0001d	8d 42 0c	 lea	 eax, DWORD PTR [edx+12]
  00020	8b 4a f4	 mov	 ecx, DWORD PTR [edx-12]
  00023	33 c8		 xor	 ecx, eax
  00025	e8 00 00 00 00	 call	 @__security_check_cookie@4
  0002a	b8 00 00 00 00	 mov	 eax, OFFSET __ehfuncinfo$?CreateLocalLanguageTable@CChartCtrl@@QAEXPBDH@Z
  0002f	e9 00 00 00 00	 jmp	 ___CxxFrameHandler3
text$x	ENDS
?CreateLocalLanguageTable@CChartCtrl@@QAEXPBDH@Z ENDP	; CChartCtrl::CreateLocalLanguageTable
; Function compile flags: /Ogtp
; File D:\git\src\IBK\IBK_DRFN\ProjSrc\SrcChartEx\ChartOCX\ChartLanguageTable\ChartCtrl.cpp
;	COMDAT ??1CChartCtrl@@UAE@XZ
_TEXT	SEGMENT
??1CChartCtrl@@UAE@XZ PROC				; CChartCtrl::~CChartCtrl, COMDAT
; _this$ = ecx

; 31   : {

  00000	56		 push	 esi
  00001	8b f1		 mov	 esi, ecx

; 32   : 	if( m_pLocalCodePage)

  00003	8b 4e 10	 mov	 ecx, DWORD PTR [esi+16]
  00006	c7 06 00 00 00
	00		 mov	 DWORD PTR [esi], OFFSET ??_7CChartCtrl@@6B@
  0000c	85 c9		 test	 ecx, ecx
  0000e	74 0d		 je	 SHORT $LN2@CChartCtrl

; 33   : 	{
; 34   : 		delete m_pLocalCodePage;

  00010	8b 01		 mov	 eax, DWORD PTR [ecx]
  00012	6a 01		 push	 1
  00014	ff 10		 call	 DWORD PTR [eax]

; 35   : 		m_pLocalCodePage = NULL;

  00016	c7 46 10 00 00
	00 00		 mov	 DWORD PTR [esi+16], 0
$LN2@CChartCtrl:

; 36   : 	}
; 37   : }

  0001d	8d 4e 18	 lea	 ecx, DWORD PTR [esi+24]
  00020	ff 15 00 00 00
	00		 call	 DWORD PTR __imp_??1?$CStringT@DV?$StrTraitMFC_DLL@DV?$ChTraitsCRT@D@ATL@@@@@ATL@@QAE@XZ
  00026	8d 4e 14	 lea	 ecx, DWORD PTR [esi+20]
  00029	5e		 pop	 esi
  0002a	ff 25 00 00 00
	00		 jmp	 DWORD PTR __imp_??1?$CStringT@DV?$StrTraitMFC_DLL@DV?$ChTraitsCRT@D@ATL@@@@@ATL@@QAE@XZ
??1CChartCtrl@@UAE@XZ ENDP				; CChartCtrl::~CChartCtrl
_TEXT	ENDS
; Function compile flags: /Ogtp
; File D:\git\src\IBK\IBK_DRFN\ProjSrc\SrcChartEx\ChartOCX\ChartLanguageTable\ChartCtrl.cpp
;	COMDAT ??0CChartCtrl@@QAE@PAUHWND__@@W4E_LANGUAGEID@IMetaTable@@@Z
_TEXT	SEGMENT
_this$ = -4						; size = 4
_p_hOcxWnd$ = 8						; size = 4
_p_eLanguageID$ = 12					; size = 4
??0CChartCtrl@@QAE@PAUHWND__@@W4E_LANGUAGEID@IMetaTable@@@Z PROC ; CChartCtrl::CChartCtrl, COMDAT
; _this$ = ecx

; 23   : {

  00000	55		 push	 ebp
  00001	8b ec		 mov	 ebp, esp
  00003	51		 push	 ecx
  00004	56		 push	 esi
  00005	8b f1		 mov	 esi, ecx
  00007	89 75 fc	 mov	 DWORD PTR _this$[ebp], esi
  0000a	8d 4e 14	 lea	 ecx, DWORD PTR [esi+20]
  0000d	c7 06 00 00 00
	00		 mov	 DWORD PTR [esi], OFFSET ??_7CChartCtrl@@6B@
  00013	ff 15 00 00 00
	00		 call	 DWORD PTR __imp_??0?$CStringT@DV?$StrTraitMFC_DLL@DV?$ChTraitsCRT@D@ATL@@@@@ATL@@QAE@XZ
  00019	8d 4e 18	 lea	 ecx, DWORD PTR [esi+24]
  0001c	ff 15 00 00 00
	00		 call	 DWORD PTR __imp_??0?$CStringT@DV?$StrTraitMFC_DLL@DV?$ChTraitsCRT@D@ATL@@@@@ATL@@QAE@XZ

; 24   : 	m_hOcxWnd				= p_hOcxWnd;

  00022	8b 45 08	 mov	 eax, DWORD PTR _p_hOcxWnd$[ebp]
  00025	89 46 04	 mov	 DWORD PTR [esi+4], eax

; 25   : 	m_eLanguageID			= p_eLanguageID;

  00028	8b 45 0c	 mov	 eax, DWORD PTR _p_eLanguageID$[ebp]
  0002b	89 46 08	 mov	 DWORD PTR [esi+8], eax

; 26   : 	m_pLocalCodePage		= NULL;
; 27   : 	m_bDesignMode			= FALSE;
; 28   : }

  0002e	8b c6		 mov	 eax, esi
  00030	c7 46 10 00 00
	00 00		 mov	 DWORD PTR [esi+16], 0
  00037	c7 46 0c 00 00
	00 00		 mov	 DWORD PTR [esi+12], 0
  0003e	5e		 pop	 esi
  0003f	8b e5		 mov	 esp, ebp
  00041	5d		 pop	 ebp
  00042	c2 08 00	 ret	 8
??0CChartCtrl@@QAE@PAUHWND__@@W4E_LANGUAGEID@IMetaTable@@@Z ENDP ; CChartCtrl::CChartCtrl
_TEXT	ENDS
; Function compile flags: /Ogtp
; File C:\Program Files (x86)\Microsoft Visual Studio\2019\Community\VC\Tools\MSVC\14.29.30133\atlmfc\include\afx.inl
;	COMDAT ?Dump@CObject@@UBEXAAVCDumpContext@@@Z
_TEXT	SEGMENT
___formal$ = 8						; size = 4
?Dump@CObject@@UBEXAAVCDumpContext@@@Z PROC		; CObject::Dump, COMDAT
; _this$ = ecx

; 122  : 	{ /* no dumping in release builds */ }

  00000	c2 04 00	 ret	 4
?Dump@CObject@@UBEXAAVCDumpContext@@@Z ENDP		; CObject::Dump
_TEXT	ENDS
; Function compile flags: /Ogtp
; File C:\Program Files (x86)\Microsoft Visual Studio\2019\Community\VC\Tools\MSVC\14.29.30133\atlmfc\include\afx.inl
;	COMDAT ?AssertValid@CObject@@UBEXXZ
_TEXT	SEGMENT
?AssertValid@CObject@@UBEXXZ PROC			; CObject::AssertValid, COMDAT
; _this$ = ecx

; 120  : 	{ /* no asserts in release builds */ }

  00000	c2 00 00	 ret	 0
?AssertValid@CObject@@UBEXXZ ENDP			; CObject::AssertValid
_TEXT	ENDS
; Function compile flags: /Ogtp
; File C:\Program Files (x86)\Microsoft Visual Studio\2019\Community\VC\Tools\MSVC\14.29.30133\atlmfc\include\afx.inl
;	COMDAT ?Serialize@CObject@@UAEXAAVCArchive@@@Z
_TEXT	SEGMENT
___formal$ = 8						; size = 4
?Serialize@CObject@@UAEXAAVCArchive@@@Z PROC		; CObject::Serialize, COMDAT
; _this$ = ecx

; 106  : 	{ /* CObject does not serialize anything by default */ }

  00000	c2 04 00	 ret	 4
?Serialize@CObject@@UAEXAAVCArchive@@@Z ENDP		; CObject::Serialize
_TEXT	ENDS
; Function compile flags: /Ogtp
; File C:\Program Files (x86)\Microsoft Visual Studio\2019\Community\VC\Tools\MSVC\14.29.30133\atlmfc\include\afx.inl
;	COMDAT ??1CObject@@UAE@XZ
_TEXT	SEGMENT
??1CObject@@UAE@XZ PROC					; CObject::~CObject, COMDAT
; _this$ = ecx

; 104  : 	{ }

  00000	c2 00 00	 ret	 0
??1CObject@@UAE@XZ ENDP					; CObject::~CObject
_TEXT	ENDS
; Function compile flags: /Ogtp
; File D:\git\src\IBK\IBK_DRFN\ProjSrc\SrcChartEx\ChartOCX\ChartLanguageTable\ChartCtrl.cpp
;	COMDAT ?__empty_global_delete@@YAXPAXI@Z
_TEXT	SEGMENT
___formal$ = 8						; size = 4
___formal$ = 12						; size = 4
?__empty_global_delete@@YAXPAXI@Z PROC			; __empty_global_delete, COMDAT

  00000	c2 00 00	 ret	 0
?__empty_global_delete@@YAXPAXI@Z ENDP			; __empty_global_delete
_TEXT	ENDS
; Function compile flags: /Ogtp
; File D:\git\src\IBK\IBK_DRFN\ProjSrc\SrcChartEx\ChartOCX\ChartLanguageTable\ChartCtrl.cpp
;	COMDAT ?__empty_global_delete@@YAXPAX@Z
_TEXT	SEGMENT
___formal$ = 8						; size = 4
?__empty_global_delete@@YAXPAX@Z PROC			; __empty_global_delete, COMDAT

  00000	c2 00 00	 ret	 0
?__empty_global_delete@@YAXPAX@Z ENDP			; __empty_global_delete
_TEXT	ENDS
END
