; Listing generated by Microsoft (R) Optimizing Compiler Version 19.29.30145.0 

	TITLE	D:\git\src\IBK\IBK_DRFN\#DRfn-CS\_Obj\ChartLanguageTable\MetaTable.obj
	.686P
	.XMM
	include listing.inc
	.model	flat

INCLUDELIB MSVCRT
INCLUDELIB OLDNAMES

PUBLIC	??_C@_00CNPNBAHC@@				; `string'
PUBLIC	?m_szNullString@CMetaTable@@2PBDB		; CMetaTable::m_szNullString
PUBLIC	?m_szMetaTexts@CMetaTable@@2PAPBDA		; CMetaTable::m_szMetaTexts
_BSS	SEGMENT
?m_szMetaTexts@CMetaTable@@2PAPBDA DD 03e9H DUP (?)	; CMetaTable::m_szMetaTexts
_BSS	ENDS
_DATA	SEGMENT
?m_szNullString@CMetaTable@@2PBDB DD FLAT:??_C@_00CNPNBAHC@@ ; CMetaTable::m_szNullString
_DATA	ENDS
;	COMDAT ??_C@_00CNPNBAHC@@
CONST	SEGMENT
??_C@_00CNPNBAHC@@ DB 00H				; `string'
CONST	ENDS
PUBLIC	?__empty_global_delete@@YAXPAX@Z		; __empty_global_delete
PUBLIC	?__empty_global_delete@@YAXPAXI@Z		; __empty_global_delete
PUBLIC	??1CObject@@UAE@XZ				; CObject::~CObject
PUBLIC	?Serialize@CObject@@UAEXAAVCArchive@@@Z		; CObject::Serialize
PUBLIC	?AssertValid@CObject@@UBEXXZ			; CObject::AssertValid
PUBLIC	?Dump@CObject@@UBEXAAVCDumpContext@@@Z		; CObject::Dump
PUBLIC	??_GCMapStringToWord@@UAEPAXI@Z			; CMapStringToWord::`scalar deleting destructor'
PUBLIC	??0CMetaTable@@QAE@XZ				; CMetaTable::CMetaTable
PUBLIC	??1CMetaTable@@UAE@XZ				; CMetaTable::~CMetaTable
PUBLIC	?LoadMetaTable@CMetaTable@@QAEXPBD0@Z		; CMetaTable::LoadMetaTable
PUBLIC	??_GCMetaTable@@UAEPAXI@Z			; CMetaTable::`scalar deleting destructor'
PUBLIC	??_R0?AVCObject@@@8				; CObject `RTTI Type Descriptor'
PUBLIC	??_R3CObject@@8					; CObject::`RTTI Class Hierarchy Descriptor'
PUBLIC	??_R2CObject@@8					; CObject::`RTTI Base Class Array'
PUBLIC	??_R1A@?0A@EA@CObject@@8			; CObject::`RTTI Base Class Descriptor at (0,-1,0,64)'
PUBLIC	??_7CMapStringToWord@@6B@			; CMapStringToWord::`vftable'
PUBLIC	??_7CMetaTable@@6B@				; CMetaTable::`vftable'
PUBLIC	??_C@_02JDPG@rb@				; `string'
PUBLIC	??_C@_0BD@PNOKNCJO@ChartMetaTable?4dat@		; `string'
PUBLIC	??_C@_0CC@KPHOFFKO@Error?5in?5reading?5Chart?5Meta?5Fil@ ; `string'
PUBLIC	??_C@_0L@GBCKJPHP@?$FLCodePage?5@		; `string'
PUBLIC	??_C@_02PCIJFNDE@?$AN?6@			; `string'
PUBLIC	??_R4CMetaTable@@6B@				; CMetaTable::`RTTI Complete Object Locator'
PUBLIC	??_R0?AVCMetaTable@@@8				; CMetaTable `RTTI Type Descriptor'
PUBLIC	??_R3CMetaTable@@8				; CMetaTable::`RTTI Class Hierarchy Descriptor'
PUBLIC	??_R2CMetaTable@@8				; CMetaTable::`RTTI Base Class Array'
PUBLIC	??_R1A@?0A@EA@CMetaTable@@8			; CMetaTable::`RTTI Base Class Descriptor at (0,-1,0,64)'
PUBLIC	??_R4CMapStringToWord@@6B@			; CMapStringToWord::`RTTI Complete Object Locator'
PUBLIC	??_R0?AVCMapStringToWord@@@8			; CMapStringToWord `RTTI Type Descriptor'
PUBLIC	??_R3CMapStringToWord@@8			; CMapStringToWord::`RTTI Class Hierarchy Descriptor'
PUBLIC	??_R2CMapStringToWord@@8			; CMapStringToWord::`RTTI Base Class Array'
PUBLIC	??_R1A@?0A@EA@CMapStringToWord@@8		; CMapStringToWord::`RTTI Base Class Descriptor at (0,-1,0,64)'
PUBLIC	??_R1A@?0A@EA@CMapStringToPtr@@8		; CMapStringToPtr::`RTTI Base Class Descriptor at (0,-1,0,64)'
PUBLIC	??_R0?AVCMapStringToPtr@@@8			; CMapStringToPtr `RTTI Type Descriptor'
PUBLIC	??_R3CMapStringToPtr@@8				; CMapStringToPtr::`RTTI Class Hierarchy Descriptor'
PUBLIC	??_R2CMapStringToPtr@@8				; CMapStringToPtr::`RTTI Base Class Array'
EXTRN	??2@YAPAXI@Z:PROC				; operator new
EXTRN	??3@YAXPAX@Z:PROC				; operator delete
EXTRN	??3@YAXPAXI@Z:PROC				; operator delete
EXTRN	?__global_delete@@YAXPAXI@Z:PROC		; __global_delete
EXTRN	_strchr:PROC
EXTRN	_strstr:PROC
EXTRN	__imp__fclose:PROC
EXTRN	__imp__fopen:PROC
EXTRN	__imp__fread:PROC
EXTRN	__imp__fseek:PROC
EXTRN	__imp__ftell:PROC
EXTRN	__imp__atoi:PROC
EXTRN	?GetRuntimeClass@CObject@@UBEPAUCRuntimeClass@@XZ:PROC ; CObject::GetRuntimeClass
EXTRN	__imp_?GetBufferSetLength@?$CSimpleStringT@D$00@ATL@@QAEPADH@Z:PROC
EXTRN	__imp_?Concatenate@?$CSimpleStringT@D$00@ATL@@KAXAAV12@PBDH1H@Z:PROC
EXTRN	__imp_??0?$CStringT@DV?$StrTraitMFC_DLL@DV?$ChTraitsCRT@D@ATL@@@@@ATL@@QAE@XZ:PROC
EXTRN	__imp_??0?$CStringT@DV?$StrTraitMFC_DLL@DV?$ChTraitsCRT@D@ATL@@@@@ATL@@QAE@PAUIAtlStringMgr@1@@Z:PROC
EXTRN	__imp_??0?$CStringT@DV?$StrTraitMFC_DLL@DV?$ChTraitsCRT@D@ATL@@@@@ATL@@QAE@PBD@Z:PROC
EXTRN	__imp_??1?$CStringT@DV?$StrTraitMFC_DLL@DV?$ChTraitsCRT@D@ATL@@@@@ATL@@QAE@XZ:PROC
EXTRN	__imp_?GetManager@?$CStringT@DV?$StrTraitMFC_DLL@DV?$ChTraitsCRT@D@ATL@@@@@ATL@@QBEPAUIAtlStringMgr@2@XZ:PROC
EXTRN	?GetRuntimeClass@CMapStringToPtr@@UBEPAUCRuntimeClass@@XZ:PROC ; CMapStringToPtr::GetRuntimeClass
EXTRN	??0CMapStringToPtr@@QAE@H@Z:PROC		; CMapStringToPtr::CMapStringToPtr
EXTRN	??ACMapStringToPtr@@QAEAAPAXPBD@Z:PROC		; CMapStringToPtr::operator[]
EXTRN	?InitHashTable@CMapStringToPtr@@QAEXIH@Z:PROC	; CMapStringToPtr::InitHashTable
EXTRN	??1CMapStringToPtr@@UAE@XZ:PROC			; CMapStringToPtr::~CMapStringToPtr
EXTRN	?AfxMessageBox@@YGHPBDII@Z:PROC			; AfxMessageBox
EXTRN	??_ECMapStringToWord@@UAEPAXI@Z:PROC		; CMapStringToWord::`vector deleting destructor'
EXTRN	??_ECMetaTable@@UAEPAXI@Z:PROC			; CMetaTable::`vector deleting destructor'
EXTRN	??0CCodePage@@QAE@H@Z:PROC			; CCodePage::CCodePage
EXTRN	?LoadMetaTable@CCodePage@@QAEHPAD@Z:PROC	; CCodePage::LoadMetaTable
EXTRN	@__security_check_cookie@4:PROC
EXTRN	___CxxFrameHandler3:PROC
EXTRN	??_7type_info@@6B@:QWORD			; type_info::`vftable'
EXTRN	___security_cookie:DWORD
;	COMDAT ??_R2CMapStringToPtr@@8
rdata$r	SEGMENT
??_R2CMapStringToPtr@@8 DD FLAT:??_R1A@?0A@EA@CMapStringToPtr@@8 ; CMapStringToPtr::`RTTI Base Class Array'
	DD	FLAT:??_R1A@?0A@EA@CObject@@8
rdata$r	ENDS
;	COMDAT ??_R3CMapStringToPtr@@8
rdata$r	SEGMENT
??_R3CMapStringToPtr@@8 DD 00H				; CMapStringToPtr::`RTTI Class Hierarchy Descriptor'
	DD	00H
	DD	02H
	DD	FLAT:??_R2CMapStringToPtr@@8
rdata$r	ENDS
;	COMDAT ??_R0?AVCMapStringToPtr@@@8
data$rs	SEGMENT
??_R0?AVCMapStringToPtr@@@8 DD FLAT:??_7type_info@@6B@	; CMapStringToPtr `RTTI Type Descriptor'
	DD	00H
	DB	'.?AVCMapStringToPtr@@', 00H
data$rs	ENDS
;	COMDAT ??_R1A@?0A@EA@CMapStringToPtr@@8
rdata$r	SEGMENT
??_R1A@?0A@EA@CMapStringToPtr@@8 DD FLAT:??_R0?AVCMapStringToPtr@@@8 ; CMapStringToPtr::`RTTI Base Class Descriptor at (0,-1,0,64)'
	DD	01H
	DD	00H
	DD	0ffffffffH
	DD	00H
	DD	040H
	DD	FLAT:??_R3CMapStringToPtr@@8
rdata$r	ENDS
;	COMDAT ??_R1A@?0A@EA@CMapStringToWord@@8
rdata$r	SEGMENT
??_R1A@?0A@EA@CMapStringToWord@@8 DD FLAT:??_R0?AVCMapStringToWord@@@8 ; CMapStringToWord::`RTTI Base Class Descriptor at (0,-1,0,64)'
	DD	02H
	DD	00H
	DD	0ffffffffH
	DD	00H
	DD	040H
	DD	FLAT:??_R3CMapStringToWord@@8
rdata$r	ENDS
;	COMDAT ??_R2CMapStringToWord@@8
rdata$r	SEGMENT
??_R2CMapStringToWord@@8 DD FLAT:??_R1A@?0A@EA@CMapStringToWord@@8 ; CMapStringToWord::`RTTI Base Class Array'
	DD	FLAT:??_R1A@?0A@EA@CMapStringToPtr@@8
	DD	FLAT:??_R1A@?0A@EA@CObject@@8
rdata$r	ENDS
;	COMDAT ??_R3CMapStringToWord@@8
rdata$r	SEGMENT
??_R3CMapStringToWord@@8 DD 00H				; CMapStringToWord::`RTTI Class Hierarchy Descriptor'
	DD	00H
	DD	03H
	DD	FLAT:??_R2CMapStringToWord@@8
rdata$r	ENDS
;	COMDAT ??_R0?AVCMapStringToWord@@@8
data$rs	SEGMENT
??_R0?AVCMapStringToWord@@@8 DD FLAT:??_7type_info@@6B@	; CMapStringToWord `RTTI Type Descriptor'
	DD	00H
	DB	'.?AVCMapStringToWord@@', 00H
data$rs	ENDS
;	COMDAT ??_R4CMapStringToWord@@6B@
rdata$r	SEGMENT
??_R4CMapStringToWord@@6B@ DD 00H			; CMapStringToWord::`RTTI Complete Object Locator'
	DD	00H
	DD	00H
	DD	FLAT:??_R0?AVCMapStringToWord@@@8
	DD	FLAT:??_R3CMapStringToWord@@8
rdata$r	ENDS
;	COMDAT ??_R1A@?0A@EA@CMetaTable@@8
rdata$r	SEGMENT
??_R1A@?0A@EA@CMetaTable@@8 DD FLAT:??_R0?AVCMetaTable@@@8 ; CMetaTable::`RTTI Base Class Descriptor at (0,-1,0,64)'
	DD	01H
	DD	00H
	DD	0ffffffffH
	DD	00H
	DD	040H
	DD	FLAT:??_R3CMetaTable@@8
rdata$r	ENDS
;	COMDAT ??_R2CMetaTable@@8
rdata$r	SEGMENT
??_R2CMetaTable@@8 DD FLAT:??_R1A@?0A@EA@CMetaTable@@8	; CMetaTable::`RTTI Base Class Array'
	DD	FLAT:??_R1A@?0A@EA@CObject@@8
rdata$r	ENDS
;	COMDAT ??_R3CMetaTable@@8
rdata$r	SEGMENT
??_R3CMetaTable@@8 DD 00H				; CMetaTable::`RTTI Class Hierarchy Descriptor'
	DD	00H
	DD	02H
	DD	FLAT:??_R2CMetaTable@@8
rdata$r	ENDS
;	COMDAT ??_R0?AVCMetaTable@@@8
data$rs	SEGMENT
??_R0?AVCMetaTable@@@8 DD FLAT:??_7type_info@@6B@	; CMetaTable `RTTI Type Descriptor'
	DD	00H
	DB	'.?AVCMetaTable@@', 00H
data$rs	ENDS
;	COMDAT ??_R4CMetaTable@@6B@
rdata$r	SEGMENT
??_R4CMetaTable@@6B@ DD 00H				; CMetaTable::`RTTI Complete Object Locator'
	DD	00H
	DD	00H
	DD	FLAT:??_R0?AVCMetaTable@@@8
	DD	FLAT:??_R3CMetaTable@@8
rdata$r	ENDS
;	COMDAT ??_C@_02PCIJFNDE@?$AN?6@
CONST	SEGMENT
??_C@_02PCIJFNDE@?$AN?6@ DB 0dH, 0aH, 00H		; `string'
CONST	ENDS
;	COMDAT ??_C@_0L@GBCKJPHP@?$FLCodePage?5@
CONST	SEGMENT
??_C@_0L@GBCKJPHP@?$FLCodePage?5@ DB '[CodePage ', 00H	; `string'
CONST	ENDS
;	COMDAT ??_C@_0CC@KPHOFFKO@Error?5in?5reading?5Chart?5Meta?5Fil@
CONST	SEGMENT
??_C@_0CC@KPHOFFKO@Error?5in?5reading?5Chart?5Meta?5Fil@ DB 'Error in rea'
	DB	'ding Chart Meta File!', 00H			; `string'
CONST	ENDS
;	COMDAT ??_C@_0BD@PNOKNCJO@ChartMetaTable?4dat@
CONST	SEGMENT
??_C@_0BD@PNOKNCJO@ChartMetaTable?4dat@ DB 'ChartMetaTable.dat', 00H ; `string'
CONST	ENDS
;	COMDAT ??_C@_02JDPG@rb@
CONST	SEGMENT
??_C@_02JDPG@rb@ DB 'rb', 00H				; `string'
CONST	ENDS
;	COMDAT ??_7CMetaTable@@6B@
CONST	SEGMENT
??_7CMetaTable@@6B@ DD FLAT:??_R4CMetaTable@@6B@	; CMetaTable::`vftable'
	DD	FLAT:?GetRuntimeClass@CObject@@UBEPAUCRuntimeClass@@XZ
	DD	FLAT:??_ECMetaTable@@UAEPAXI@Z
	DD	FLAT:?Serialize@CObject@@UAEXAAVCArchive@@@Z
	DD	FLAT:?AssertValid@CObject@@UBEXXZ
	DD	FLAT:?Dump@CObject@@UBEXAAVCDumpContext@@@Z
CONST	ENDS
;	COMDAT ??_7CMapStringToWord@@6B@
CONST	SEGMENT
??_7CMapStringToWord@@6B@ DD FLAT:??_R4CMapStringToWord@@6B@ ; CMapStringToWord::`vftable'
	DD	FLAT:?GetRuntimeClass@CMapStringToPtr@@UBEPAUCRuntimeClass@@XZ
	DD	FLAT:??_ECMapStringToWord@@UAEPAXI@Z
	DD	FLAT:?Serialize@CObject@@UAEXAAVCArchive@@@Z
	DD	FLAT:?AssertValid@CObject@@UBEXXZ
	DD	FLAT:?Dump@CObject@@UBEXAAVCDumpContext@@@Z
CONST	ENDS
;	COMDAT ??_R1A@?0A@EA@CObject@@8
rdata$r	SEGMENT
??_R1A@?0A@EA@CObject@@8 DD FLAT:??_R0?AVCObject@@@8	; CObject::`RTTI Base Class Descriptor at (0,-1,0,64)'
	DD	00H
	DD	00H
	DD	0ffffffffH
	DD	00H
	DD	040H
	DD	FLAT:??_R3CObject@@8
rdata$r	ENDS
;	COMDAT ??_R2CObject@@8
rdata$r	SEGMENT
??_R2CObject@@8 DD FLAT:??_R1A@?0A@EA@CObject@@8	; CObject::`RTTI Base Class Array'
rdata$r	ENDS
;	COMDAT ??_R3CObject@@8
rdata$r	SEGMENT
??_R3CObject@@8 DD 00H					; CObject::`RTTI Class Hierarchy Descriptor'
	DD	00H
	DD	01H
	DD	FLAT:??_R2CObject@@8
rdata$r	ENDS
;	COMDAT ??_R0?AVCObject@@@8
data$rs	SEGMENT
??_R0?AVCObject@@@8 DD FLAT:??_7type_info@@6B@		; CObject `RTTI Type Descriptor'
	DD	00H
	DB	'.?AVCObject@@', 00H
data$rs	ENDS
;	COMDAT xdata$x
xdata$x	SEGMENT
__unwindtable$?LoadMetaTable@CMetaTable@@QAEXPBD0@Z DD 0ffffffffH
	DD	FLAT:__unwindfunclet$?LoadMetaTable@CMetaTable@@QAEXPBD0@Z$0
	DD	00H
	DD	FLAT:__unwindfunclet$?LoadMetaTable@CMetaTable@@QAEXPBD0@Z$3
	DD	0ffffffffH
	DD	FLAT:__unwindfunclet$?LoadMetaTable@CMetaTable@@QAEXPBD0@Z$2
__ehfuncinfo$?LoadMetaTable@CMetaTable@@QAEXPBD0@Z DD 019930522H
	DD	03H
	DD	FLAT:__unwindtable$?LoadMetaTable@CMetaTable@@QAEXPBD0@Z
	DD	2 DUP(00H)
	DD	2 DUP(00H)
	DD	00H
	DD	01H
xdata$x	ENDS
;	COMDAT xdata$x
xdata$x	SEGMENT
__unwindtable$??0CMetaTable@@QAE@XZ DD 0ffffffffH
	DD	FLAT:__unwindfunclet$??0CMetaTable@@QAE@XZ$0
__ehfuncinfo$??0CMetaTable@@QAE@XZ DD 019930522H
	DD	01H
	DD	FLAT:__unwindtable$??0CMetaTable@@QAE@XZ
	DD	2 DUP(00H)
	DD	2 DUP(00H)
	DD	00H
	DD	01H
xdata$x	ENDS
;	COMDAT xdata$x
xdata$x	SEGMENT
__unwindtable$??HATL@@YA?AV?$CStringT@DV?$StrTraitMFC_DLL@DV?$ChTraitsCRT@D@ATL@@@@@0@PBDABV10@@Z DD 0ffffffffH
	DD	FLAT:__unwindfunclet$??HATL@@YA?AV?$CStringT@DV?$StrTraitMFC_DLL@DV?$ChTraitsCRT@D@ATL@@@@@0@PBDABV10@@Z$0
__ehfuncinfo$??HATL@@YA?AV?$CStringT@DV?$StrTraitMFC_DLL@DV?$ChTraitsCRT@D@ATL@@@@@0@PBDABV10@@Z DD 019930522H
	DD	01H
	DD	FLAT:__unwindtable$??HATL@@YA?AV?$CStringT@DV?$StrTraitMFC_DLL@DV?$ChTraitsCRT@D@ATL@@@@@0@PBDABV10@@Z
	DD	2 DUP(00H)
	DD	2 DUP(00H)
	DD	00H
	DD	01H
xdata$x	ENDS
; Function compile flags: /Ogtp
; File D:\git\src\IBK\IBK_DRFN\ProjSrc\SrcChartEx\ChartOCX\ChartLanguageTable\MetaTable.cpp
; File C:\Program Files (x86)\Microsoft Visual Studio\2019\Community\VC\Tools\MSVC\14.29.30133\atlmfc\include\afx.inl
;	COMDAT ??_GCMetaTable@@UAEPAXI@Z
_TEXT	SEGMENT
___flags$ = 8						; size = 4
??_GCMetaTable@@UAEPAXI@Z PROC				; CMetaTable::`scalar deleting destructor', COMDAT
; _this$ = ecx
  00000	55		 push	 ebp
  00001	8b ec		 mov	 ebp, esp
; File D:\git\src\IBK\IBK_DRFN\ProjSrc\SrcChartEx\ChartOCX\ChartLanguageTable\MetaTable.cpp

; 35   : {

  00003	53		 push	 ebx
  00004	56		 push	 esi
  00005	57		 push	 edi
  00006	8b f9		 mov	 edi, ecx
  00008	bb 09 00 00 00	 mov	 ebx, 9
  0000d	c7 07 00 00 00
	00		 mov	 DWORD PTR [edi], OFFSET ??_7CMetaTable@@6B@
  00013	8d 77 08	 lea	 esi, DWORD PTR [edi+8]
$LL10@scalar:

; 37   : 		if( m_pCodePage[ i]) delete m_pCodePage[ i];

  00016	8b 0e		 mov	 ecx, DWORD PTR [esi]
  00018	85 c9		 test	 ecx, ecx
  0001a	74 06		 je	 SHORT $LN8@scalar
  0001c	8b 01		 mov	 eax, DWORD PTR [ecx]
  0001e	6a 01		 push	 1
  00020	ff 10		 call	 DWORD PTR [eax]
$LN8@scalar:

; 36   : 	for( int i = IMetaTable::PACKET_NAME; i < IMetaTable::CODE_PAGE_END; i++)

  00022	83 c6 04	 add	 esi, 4
  00025	83 eb 01	 sub	 ebx, 1
  00028	75 ec		 jne	 SHORT $LL10@scalar

; 38   : }

  0002a	8d 4f 2c	 lea	 ecx, DWORD PTR [edi+44]
  0002d	e8 00 00 00 00	 call	 ??1CMapStringToPtr@@UAE@XZ ; CMapStringToPtr::~CMapStringToPtr
  00032	8d 4f 04	 lea	 ecx, DWORD PTR [edi+4]
  00035	ff 15 00 00 00
	00		 call	 DWORD PTR __imp_??1?$CStringT@DV?$StrTraitMFC_DLL@DV?$ChTraitsCRT@D@ATL@@@@@ATL@@QAE@XZ
  0003b	8b 45 08	 mov	 eax, DWORD PTR ___flags$[ebp]
  0003e	a8 01		 test	 al, 1
  00040	74 24		 je	 SHORT $LN25@scalar
  00042	a8 04		 test	 al, 4
  00044	75 12		 jne	 SHORT $LN3@scalar
; File C:\Program Files (x86)\Microsoft Visual Studio\2019\Community\VC\Tools\MSVC\14.29.30133\atlmfc\include\afx.inl

; 112  : 	{ ::operator delete(p); }

  00046	57		 push	 edi
  00047	e8 00 00 00 00	 call	 ??3@YAXPAX@Z		; operator delete
  0004c	83 c4 04	 add	 esp, 4
  0004f	8b c7		 mov	 eax, edi
  00051	5f		 pop	 edi
  00052	5e		 pop	 esi
  00053	5b		 pop	 ebx
  00054	5d		 pop	 ebp
  00055	c2 04 00	 ret	 4
$LN3@scalar:
  00058	68 e4 02 00 00	 push	 740			; 000002e4H
  0005d	57		 push	 edi
  0005e	e8 00 00 00 00	 call	 ?__global_delete@@YAXPAXI@Z ; __global_delete
  00063	83 c4 08	 add	 esp, 8
$LN25@scalar:
  00066	8b c7		 mov	 eax, edi
  00068	5f		 pop	 edi
  00069	5e		 pop	 esi
  0006a	5b		 pop	 ebx
  0006b	5d		 pop	 ebp
  0006c	c2 04 00	 ret	 4
??_GCMetaTable@@UAEPAXI@Z ENDP				; CMetaTable::`scalar deleting destructor'
_TEXT	ENDS
; Function compile flags: /Ogtp
; File D:\git\src\IBK\IBK_DRFN\ProjSrc\SrcChartEx\ChartOCX\ChartLanguageTable\MetaTable.cpp
; File C:\Program Files (x86)\Microsoft Visual Studio\2019\Community\VC\Tools\MSVC\14.29.30133\atlmfc\include\cstringt.h
; File D:\git\src\IBK\IBK_DRFN\ProjSrc\SrcChartEx\ChartOCX\ChartLanguageTable\MetaTable.cpp
; File C:\Program Files (x86)\Microsoft Visual Studio\2019\Community\VC\Tools\MSVC\14.29.30133\atlmfc\include\cstringt.h
; File C:\Program Files (x86)\Microsoft Visual Studio\2019\Community\VC\Tools\MSVC\14.29.30133\atlmfc\include\atlsimpstr.h
; File C:\Program Files (x86)\Microsoft Visual Studio\2019\Community\VC\Tools\MSVC\14.29.30133\atlmfc\include\cstringt.h
; File C:\Program Files (x86)\Microsoft Visual Studio\2019\Community\VC\Tools\MSVC\14.29.30133\atlmfc\include\atlsimpstr.h
; File C:\Program Files (x86)\Microsoft Visual Studio\2019\Community\VC\Tools\MSVC\14.29.30133\atlmfc\include\cstringt.h
; File D:\git\src\IBK\IBK_DRFN\ProjSrc\SrcChartEx\ChartOCX\ChartLanguageTable\MetaTable.cpp
; File C:\Program Files (x86)\Windows Kits\10\Include\10.0.22000.0\ucrt\string.h
; File D:\git\src\IBK\IBK_DRFN\ProjSrc\SrcChartEx\ChartOCX\ChartLanguageTable\MetaTable.cpp
; File C:\Program Files (x86)\Windows Kits\10\Include\10.0.22000.0\ucrt\string.h
; File D:\git\src\IBK\IBK_DRFN\ProjSrc\SrcChartEx\ChartOCX\ChartLanguageTable\MetaTable.cpp
; File C:\Program Files (x86)\Windows Kits\10\Include\10.0.22000.0\ucrt\string.h
; File D:\git\src\IBK\IBK_DRFN\ProjSrc\SrcChartEx\ChartOCX\ChartLanguageTable\MetaTable.cpp
; File C:\Program Files (x86)\Windows Kits\10\Include\10.0.22000.0\ucrt\string.h
; File D:\git\src\IBK\IBK_DRFN\ProjSrc\SrcChartEx\ChartOCX\ChartLanguageTable\MetaTable.cpp
; File C:\Program Files (x86)\Windows Kits\10\Include\10.0.22000.0\ucrt\string.h
; File D:\git\src\IBK\IBK_DRFN\ProjSrc\SrcChartEx\ChartOCX\ChartLanguageTable\MetaTable.cpp
; File C:\Program Files (x86)\Windows Kits\10\Include\10.0.22000.0\ucrt\string.h
; File D:\git\src\IBK\IBK_DRFN\ProjSrc\SrcChartEx\ChartOCX\ChartLanguageTable\MetaTable.cpp
; File C:\Program Files (x86)\Windows Kits\10\Include\10.0.22000.0\ucrt\string.h
; File D:\git\src\IBK\IBK_DRFN\ProjSrc\SrcChartEx\ChartOCX\ChartLanguageTable\MetaTable.cpp
; File C:\Program Files (x86)\Microsoft Visual Studio\2019\Community\VC\Tools\MSVC\14.29.30133\atlmfc\include\afxcoll.inl
; File D:\git\src\IBK\IBK_DRFN\ProjSrc\SrcChartEx\ChartOCX\Include_Chart\MapStringToWord.h
; File D:\git\src\IBK\IBK_DRFN\ProjSrc\SrcChartEx\ChartOCX\ChartLanguageTable\MetaTable.cpp
; File C:\Program Files (x86)\Microsoft Visual Studio\2019\Community\VC\Tools\MSVC\14.29.30133\atlmfc\include\afxcoll.inl
; File D:\git\src\IBK\IBK_DRFN\ProjSrc\SrcChartEx\ChartOCX\ChartLanguageTable\MetaTable.cpp
;	COMDAT ?LoadMetaTable@CMetaTable@@QAEXPBD0@Z
_TEXT	SEGMENT
$T2 = -24						; size = 4
$T3 = -20						; size = 4
$T4 = -20						; size = 4
$T5 = -16						; size = 4
__$EHRec$ = -12						; size = 12
_p_szMetaTableName$ = 8					; size = 4
_szNextCodePage$1$ = 12					; size = 4
_stream$1$ = 12						; size = 4
_p_szDataFolder$ = 12					; size = 4
?LoadMetaTable@CMetaTable@@QAEXPBD0@Z PROC		; CMetaTable::LoadMetaTable, COMDAT
; _this$ = ecx

; 41   : {

  00000	55		 push	 ebp
  00001	8b ec		 mov	 ebp, esp
  00003	6a ff		 push	 -1
  00005	68 00 00 00 00	 push	 __ehhandler$?LoadMetaTable@CMetaTable@@QAEXPBD0@Z
  0000a	64 a1 00 00 00
	00		 mov	 eax, DWORD PTR fs:0
  00010	50		 push	 eax
  00011	83 ec 0c	 sub	 esp, 12			; 0000000cH
  00014	53		 push	 ebx
  00015	56		 push	 esi
  00016	57		 push	 edi
  00017	a1 00 00 00 00	 mov	 eax, DWORD PTR ___security_cookie
  0001c	33 c5		 xor	 eax, ebp
  0001e	50		 push	 eax
  0001f	8d 45 f4	 lea	 eax, DWORD PTR __$EHRec$[ebp]
  00022	64 a3 00 00 00
	00		 mov	 DWORD PTR fs:0, eax
  00028	8b f1		 mov	 esi, ecx

; 43   : 	FILE *stream = fopen( p_szDataFolder + CString( "ChartMetaTable.dat"), "rb");

  0002a	68 00 00 00 00	 push	 OFFSET ??_C@_0BD@PNOKNCJO@ChartMetaTable?4dat@
  0002f	8d 4d e8	 lea	 ecx, DWORD PTR $T2[ebp]
  00032	c7 45 ec 00 00
	00 00		 mov	 DWORD PTR $T3[ebp], 0
  00039	ff 15 00 00 00
	00		 call	 DWORD PTR __imp_??0?$CStringT@DV?$StrTraitMFC_DLL@DV?$ChTraitsCRT@D@ATL@@@@@ATL@@QAE@PBD@Z
  0003f	8b f8		 mov	 edi, eax
; File C:\Program Files (x86)\Microsoft Visual Studio\2019\Community\VC\Tools\MSVC\14.29.30133\atlmfc\include\cstringt.h

; 2412 : 		CStringT strResult( str2.GetManager() );

  00041	8b cf		 mov	 ecx, edi
; File D:\git\src\IBK\IBK_DRFN\ProjSrc\SrcChartEx\ChartOCX\ChartLanguageTable\MetaTable.cpp

; 43   : 	FILE *stream = fopen( p_szDataFolder + CString( "ChartMetaTable.dat"), "rb");

  00043	c7 45 fc 01 00
	00 00		 mov	 DWORD PTR __$EHRec$[ebp+8], 1
; File C:\Program Files (x86)\Microsoft Visual Studio\2019\Community\VC\Tools\MSVC\14.29.30133\atlmfc\include\cstringt.h

; 2412 : 		CStringT strResult( str2.GetManager() );

  0004a	ff 15 00 00 00
	00		 call	 DWORD PTR __imp_?GetManager@?$CStringT@DV?$StrTraitMFC_DLL@DV?$ChTraitsCRT@D@ATL@@@@@ATL@@QBEPAUIAtlStringMgr@2@XZ
  00050	50		 push	 eax
  00051	8d 4d f0	 lea	 ecx, DWORD PTR $T5[ebp]
  00054	ff 15 00 00 00
	00		 call	 DWORD PTR __imp_??0?$CStringT@DV?$StrTraitMFC_DLL@DV?$ChTraitsCRT@D@ATL@@@@@ATL@@QAE@PAUIAtlStringMgr@1@@Z
; File C:\Program Files (x86)\Microsoft Visual Studio\2019\Community\VC\Tools\MSVC\14.29.30133\atlmfc\include\atlsimpstr.h

; 722  : 		if( psz == NULL )

  0005a	8b 55 0c	 mov	 edx, DWORD PTR _p_szDataFolder$[ebp]

; 519  : 		return( GetData()->nDataLength );

  0005d	8b 3f		 mov	 edi, DWORD PTR [edi]
; File C:\Program Files (x86)\Microsoft Visual Studio\2019\Community\VC\Tools\MSVC\14.29.30133\atlmfc\include\cstringt.h

; 2416 : 		return( strResult );

  0005f	c7 45 ec 01 00
	00 00		 mov	 DWORD PTR $T3[ebp], 1
; File C:\Program Files (x86)\Microsoft Visual Studio\2019\Community\VC\Tools\MSVC\14.29.30133\atlmfc\include\atlsimpstr.h

; 722  : 		if( psz == NULL )

  00066	85 d2		 test	 edx, edx
  00068	75 04		 jne	 SHORT $LN31@LoadMetaTa

; 723  : 		{
; 724  : 			return( 0 );

  0006a	33 c9		 xor	 ecx, ecx
  0006c	eb 0e		 jmp	 SHORT $LN30@LoadMetaTa
$LN31@LoadMetaTa:

; 725  : 		}
; 726  : 		return( int( strlen( psz ) ) );

  0006e	8b ca		 mov	 ecx, edx
  00070	8d 59 01	 lea	 ebx, DWORD PTR [ecx+1]
$LL87@LoadMetaTa:
  00073	8a 01		 mov	 al, BYTE PTR [ecx]
  00075	41		 inc	 ecx
  00076	84 c0		 test	 al, al
  00078	75 f9		 jne	 SHORT $LL87@LoadMetaTa
  0007a	2b cb		 sub	 ecx, ebx
$LN30@LoadMetaTa:
; File C:\Program Files (x86)\Microsoft Visual Studio\2019\Community\VC\Tools\MSVC\14.29.30133\atlmfc\include\cstringt.h

; 2414 : 		CThisSimpleString::Concatenate( strResult, psz1, CThisSimpleString::StringLength( psz1 ), str2, str2.GetLength() );

  0007c	ff 77 f4	 push	 DWORD PTR [edi-12]
  0007f	8d 45 f0	 lea	 eax, DWORD PTR $T5[ebp]
  00082	57		 push	 edi
  00083	51		 push	 ecx
  00084	52		 push	 edx
  00085	50		 push	 eax
  00086	ff 15 00 00 00
	00		 call	 DWORD PTR __imp_?Concatenate@?$CSimpleStringT@D$00@ATL@@KAXAAV12@PBDH1H@Z
; File D:\git\src\IBK\IBK_DRFN\ProjSrc\SrcChartEx\ChartOCX\ChartLanguageTable\MetaTable.cpp

; 43   : 	FILE *stream = fopen( p_szDataFolder + CString( "ChartMetaTable.dat"), "rb");

  0008c	68 00 00 00 00	 push	 OFFSET ??_C@_02JDPG@rb@
  00091	ff 75 f0	 push	 DWORD PTR $T5[ebp]
  00094	ff 15 00 00 00
	00		 call	 DWORD PTR __imp__fopen
  0009a	83 c4 1c	 add	 esp, 28			; 0000001cH
  0009d	8d 4d f0	 lea	 ecx, DWORD PTR $T5[ebp]
  000a0	8b d8		 mov	 ebx, eax
  000a2	89 5d 0c	 mov	 DWORD PTR _stream$1$[ebp], ebx
  000a5	ff 15 00 00 00
	00		 call	 DWORD PTR __imp_??1?$CStringT@DV?$StrTraitMFC_DLL@DV?$ChTraitsCRT@D@ATL@@@@@ATL@@QAE@XZ
  000ab	8d 4d e8	 lea	 ecx, DWORD PTR $T2[ebp]
  000ae	c7 45 fc ff ff
	ff ff		 mov	 DWORD PTR __$EHRec$[ebp+8], -1
  000b5	ff 15 00 00 00
	00		 call	 DWORD PTR __imp_??1?$CStringT@DV?$StrTraitMFC_DLL@DV?$ChTraitsCRT@D@ATL@@@@@ATL@@QAE@XZ

; 44   : 	if( stream == NULL)

  000bb	85 db		 test	 ebx, ebx
  000bd	75 20		 jne	 SHORT $LN7@LoadMetaTa

; 45   : 	{
; 46   : 		AfxMessageBox( "Error in reading Chart Meta File!");

  000bf	53		 push	 ebx
  000c0	53		 push	 ebx
  000c1	68 00 00 00 00	 push	 OFFSET ??_C@_0CC@KPHOFFKO@Error?5in?5reading?5Chart?5Meta?5Fil@
  000c6	e8 00 00 00 00	 call	 ?AfxMessageBox@@YGHPBDII@Z ; AfxMessageBox

; 297  : 		m_mapIndicatorID.SetAt( m_szIndicatorNames[ i], i);
; 298  : }

  000cb	8b 4d f4	 mov	 ecx, DWORD PTR __$EHRec$[ebp]
  000ce	64 89 0d 00 00
	00 00		 mov	 DWORD PTR fs:0, ecx
  000d5	59		 pop	 ecx
  000d6	5f		 pop	 edi
  000d7	5e		 pop	 esi
  000d8	5b		 pop	 ebx
  000d9	8b e5		 mov	 esp, ebp
  000db	5d		 pop	 ebp
  000dc	c2 08 00	 ret	 8
$LN7@LoadMetaTa:

; 47   : 		return;
; 48   : 	}
; 49   : 
; 50   : 	//fseek( stream, 0L, SEEK_SET);
; 51   : 	//long nbytes = _filelength( stream->_file);
; 52   : 	fseek(stream, 0L, SEEK_END);//tour2k

  000df	8b 3d 00 00 00
	00		 mov	 edi, DWORD PTR __imp__fseek
  000e5	6a 02		 push	 2
  000e7	6a 00		 push	 0
  000e9	53		 push	 ebx
  000ea	ff d7		 call	 edi

; 53   : 	long nbytes = ftell(stream);

  000ec	53		 push	 ebx
  000ed	ff 15 00 00 00
	00		 call	 DWORD PTR __imp__ftell

; 54   : 	fseek(stream, 0L, SEEK_SET);

  000f3	6a 00		 push	 0
  000f5	6a 00		 push	 0
  000f7	ff 75 0c	 push	 DWORD PTR _stream$1$[ebp]
  000fa	8b d8		 mov	 ebx, eax
  000fc	ff d7		 call	 edi
  000fe	83 c4 1c	 add	 esp, 28			; 0000001cH

; 55   : 
; 56   : 	char* buffer = 	m_strMetaFileStringData.GetBufferSetLength( nbytes);

  00101	8d 4e 04	 lea	 ecx, DWORD PTR [esi+4]
  00104	53		 push	 ebx
  00105	ff 15 00 00 00
	00		 call	 DWORD PTR __imp_?GetBufferSetLength@?$CSimpleStringT@D$00@ATL@@QAEPADH@Z

; 57   : 	fread( buffer, sizeof(char), nbytes, stream);

  0010b	ff 75 0c	 push	 DWORD PTR _stream$1$[ebp]
  0010e	8b f8		 mov	 edi, eax
  00110	53		 push	 ebx
  00111	6a 01		 push	 1
  00113	57		 push	 edi
  00114	ff 15 00 00 00
	00		 call	 DWORD PTR __imp__fread

; 58   :     fclose( stream);

  0011a	ff 75 0c	 push	 DWORD PTR _stream$1$[ebp]
  0011d	ff 15 00 00 00
	00		 call	 DWORD PTR __imp__fclose
; File C:\Program Files (x86)\Windows Kits\10\Include\10.0.22000.0\ucrt\string.h

; 520  :         return const_cast<char*>(strstr(static_cast<char const*>(_String), _SubString));

  00123	68 00 00 00 00	 push	 OFFSET ??_C@_0L@GBCKJPHP@?$FLCodePage?5@
  00128	57		 push	 edi
  00129	e8 00 00 00 00	 call	 _strstr
; File D:\git\src\IBK\IBK_DRFN\ProjSrc\SrcChartEx\ChartOCX\ChartLanguageTable\MetaTable.cpp

; 62   : 	szNext = strstr( szNext, "[CodePage ");

  0012e	8b f8		 mov	 edi, eax
; File C:\Program Files (x86)\Windows Kits\10\Include\10.0.22000.0\ucrt\string.h

; 520  :         return const_cast<char*>(strstr(static_cast<char const*>(_String), _SubString));

  00130	83 c4 1c	 add	 esp, 28			; 0000001cH
; File D:\git\src\IBK\IBK_DRFN\ProjSrc\SrcChartEx\ChartOCX\ChartLanguageTable\MetaTable.cpp

; 67   : 	while( szNext)

  00133	85 ff		 test	 edi, edi
  00135	0f 84 b8 00 00
	00		 je	 $LN3@LoadMetaTa
  0013b	0f 1f 44 00 00	 npad	 5
$LL2@LoadMetaTa:

; 68   : 	{
; 69   : 		szNext += strlen( _CODE_PAGE_KEY);

  00140	83 c7 0a	 add	 edi, 10			; 0000000aH
; File C:\Program Files (x86)\Windows Kits\10\Include\10.0.22000.0\ucrt\string.h

; 520  :         return const_cast<char*>(strstr(static_cast<char const*>(_String), _SubString));

  00143	68 00 00 00 00	 push	 OFFSET ??_C@_0L@GBCKJPHP@?$FLCodePage?5@
  00148	57		 push	 edi
  00149	e8 00 00 00 00	 call	 _strstr
  0014e	83 c4 08	 add	 esp, 8
; File D:\git\src\IBK\IBK_DRFN\ProjSrc\SrcChartEx\ChartOCX\ChartLanguageTable\MetaTable.cpp

; 71   : 		szNextCodePage = strstr( szNext, "[CodePage ");

  00151	89 45 0c	 mov	 DWORD PTR _szNextCodePage$1$[ebp], eax

; 72   : 		if( szNextCodePage) *szNextCodePage = '\0';

  00154	85 c0		 test	 eax, eax
  00156	74 03		 je	 SHORT $LN8@LoadMetaTa
  00158	c6 00 00	 mov	 BYTE PTR [eax], 0
$LN8@LoadMetaTa:
; File C:\Program Files (x86)\Windows Kits\10\Include\10.0.22000.0\ucrt\string.h

; 520  :         return const_cast<char*>(strstr(static_cast<char const*>(_String), _SubString));

  0015b	68 00 00 00 00	 push	 OFFSET ??_C@_02PCIJFNDE@?$AN?6@
  00160	57		 push	 edi
  00161	e8 00 00 00 00	 call	 _strstr
; File D:\git\src\IBK\IBK_DRFN\ProjSrc\SrcChartEx\ChartOCX\ChartLanguageTable\MetaTable.cpp

; 74   : 		szNextLine = strstr( szNext, "\r\n");

  00166	8b d8		 mov	 ebx, eax
; File C:\Program Files (x86)\Windows Kits\10\Include\10.0.22000.0\ucrt\string.h

; 520  :         return const_cast<char*>(strstr(static_cast<char const*>(_String), _SubString));

  00168	83 c4 08	 add	 esp, 8
; File D:\git\src\IBK\IBK_DRFN\ProjSrc\SrcChartEx\ChartOCX\ChartLanguageTable\MetaTable.cpp

; 75   : 		if( szNextLine)

  0016b	85 db		 test	 ebx, ebx
  0016d	74 77		 je	 SHORT $LN13@LoadMetaTa
; File C:\Program Files (x86)\Windows Kits\10\Include\10.0.22000.0\ucrt\string.h

; 502  :         return const_cast<char*>(strchr(static_cast<char const*>(_String), _Ch));

  0016f	6a 5d		 push	 93			; 0000005dH
  00171	57		 push	 edi
; File D:\git\src\IBK\IBK_DRFN\ProjSrc\SrcChartEx\ChartOCX\ChartLanguageTable\MetaTable.cpp

; 78   : 			*szNextLine = '\0';

  00172	c6 43 01 00	 mov	 BYTE PTR [ebx+1], 0
; File C:\Program Files (x86)\Windows Kits\10\Include\10.0.22000.0\ucrt\string.h

; 502  :         return const_cast<char*>(strchr(static_cast<char const*>(_String), _Ch));

  00176	e8 00 00 00 00	 call	 _strchr
  0017b	83 c4 08	 add	 esp, 8
; File D:\git\src\IBK\IBK_DRFN\ProjSrc\SrcChartEx\ChartOCX\ChartLanguageTable\MetaTable.cpp

; 81   : 			if( szNextItem)

  0017e	85 c0		 test	 eax, eax
  00180	74 64		 je	 SHORT $LN13@LoadMetaTa

; 82   : 			{
; 83   : 				*szNextItem = '\0';
; 84   : 
; 85   : 				nCodePage = atoi( szNext);

  00182	57		 push	 edi
  00183	c6 00 00	 mov	 BYTE PTR [eax], 0
  00186	ff 15 00 00 00
	00		 call	 DWORD PTR __imp__atoi
  0018c	8b f8		 mov	 edi, eax
  0018e	83 c4 04	 add	 esp, 4

; 86   : 				if( IMetaTable::PACKET_NAME <= nCodePage && nCodePage < IMetaTable::META_CODE_END)

  00191	81 ff e7 03 00
	00		 cmp	 edi, 999		; 000003e7H
  00197	77 4d		 ja	 SHORT $LN13@LoadMetaTa

; 87   : 				{
; 88   : 					if( !m_pCodePage[ nCodePage]) m_pCodePage[ nCodePage] = new CCodePage( nCodePage);

  00199	8b 4c be 08	 mov	 ecx, DWORD PTR [esi+edi*4+8]
  0019d	85 c9		 test	 ecx, ecx
  0019f	75 34		 jne	 SHORT $LN12@LoadMetaTa
  001a1	68 94 00 00 00	 push	 148			; 00000094H
  001a6	e8 00 00 00 00	 call	 ??2@YAPAXI@Z		; operator new
  001ab	83 c4 04	 add	 esp, 4
  001ae	89 45 ec	 mov	 DWORD PTR $T4[ebp], eax
  001b1	c7 45 fc 02 00
	00 00		 mov	 DWORD PTR __$EHRec$[ebp+8], 2
  001b8	85 c0		 test	 eax, eax
  001ba	74 0c		 je	 SHORT $LN15@LoadMetaTa
  001bc	57		 push	 edi
  001bd	8b c8		 mov	 ecx, eax
  001bf	e8 00 00 00 00	 call	 ??0CCodePage@@QAE@H@Z	; CCodePage::CCodePage
  001c4	8b c8		 mov	 ecx, eax
  001c6	eb 02		 jmp	 SHORT $LN16@LoadMetaTa
$LN15@LoadMetaTa:
  001c8	33 c9		 xor	 ecx, ecx
$LN16@LoadMetaTa:
  001ca	c7 45 fc ff ff
	ff ff		 mov	 DWORD PTR __$EHRec$[ebp+8], -1
  001d1	89 4c be 08	 mov	 DWORD PTR [esi+edi*4+8], ecx
$LN12@LoadMetaTa:

; 89   : 
; 90   : 					szNext = szNextLine;
; 91   : 					szNext++;

  001d5	8d 43 02	 lea	 eax, DWORD PTR [ebx+2]

; 92   : 
; 93   : 					if( !m_pCodePage[ nCodePage]->LoadMetaTable( szNext)) return;

  001d8	50		 push	 eax
  001d9	e8 00 00 00 00	 call	 ?LoadMetaTable@CCodePage@@QAEHPAD@Z ; CCodePage::LoadMetaTable
  001de	85 c0		 test	 eax, eax
  001e0	0f 84 84 04 00
	00		 je	 $LN5@LoadMetaTa
$LN13@LoadMetaTa:

; 94   : 				}
; 95   : 			}
; 96   : 		}
; 97   : 
; 98   : 		szNext = szNextCodePage;

  001e6	8b 45 0c	 mov	 eax, DWORD PTR _szNextCodePage$1$[ebp]
  001e9	8b f8		 mov	 edi, eax
  001eb	85 c0		 test	 eax, eax
  001ed	0f 85 4d ff ff
	ff		 jne	 $LL2@LoadMetaTa
$LN3@LoadMetaTa:

; 99   : 	}
; 100  : 
; 101  : 	// 기본지표
; 102  : 	m_szIndicatorNames[ IMetaTable::EDDC_PRICECHART]				= m_szMetaTexts[ IMetaTable::C2_PRICE_CHART];			// 가격차트

  001f3	a1 28 03 00 00	 mov	 eax, DWORD PTR ?m_szMetaTexts@CMetaTable@@2PAPBDA+808
  001f8	8d 7e 48	 lea	 edi, DWORD PTR [esi+72]
  001fb	89 07		 mov	 DWORD PTR [edi], eax
  001fd	8d 56 60	 lea	 edx, DWORD PTR [esi+96]

; 103  : // vntsorl:[0003431] [7111]차트화면에서의 조회속도가 구차트에 비해 늦어 개선 요구
; 104  : // 	m_szIndicatorNames[ IMetaTable::EDDC_ST_PRICEMACHART]			= m_szMetaTexts[ IMetaTable::C2_PRICE_MA];				// 가격 이동평균
; 105  : 	m_szIndicatorNames[ IMetaTable::EDDC_OCX_PRICEMACHART]			= m_szMetaTexts[ IMetaTable::C2_PRICE_MA];				// 가격 이동평균

  00200	a1 20 03 00 00	 mov	 eax, DWORD PTR ?m_szMetaTexts@CMetaTable@@2PAPBDA+800
  00205	b9 38 03 00 00	 mov	 ecx, OFFSET ?m_szMetaTexts@CMetaTable@@2PAPBDA+824
  0020a	89 46 4c	 mov	 DWORD PTR [esi+76], eax

; 106  : 	m_szIndicatorNames[ IMetaTable::EDDC_VOLUMECHART]				= m_szMetaTexts[ IMetaTable::C2_VOLUME_CHART];			// 거래량차트

  0020d	a1 2c 03 00 00	 mov	 eax, DWORD PTR ?m_szMetaTexts@CMetaTable@@2PAPBDA+812
  00212	89 46 50	 mov	 DWORD PTR [esi+80], eax

; 107  : // 	m_szIndicatorNames[ IMetaTable::EDDC_ST_VOLUMEMACHART]			= m_szMetaTexts[ IMetaTable::C2_VOLUME_MA];				// 거래량 이동평균
; 108  : 	m_szIndicatorNames[ IMetaTable::EDDC_OCX_VOLUMEMACHART]			= m_szMetaTexts[ IMetaTable::C2_VOLUME_MA];				// 거래량 이동평균

  00215	a1 24 03 00 00	 mov	 eax, DWORD PTR ?m_szMetaTexts@CMetaTable@@2PAPBDA+804
  0021a	89 46 54	 mov	 DWORD PTR [esi+84], eax

; 109  : 
; 110  : 	// 가격지표
; 111  : 	m_szIndicatorNames[ IMetaTable::EDDC_OCX_RAINBOWCHART]			= m_szMetaTexts[ IMetaTable::C2_RAINBOW_CHART];			// 그물차트

  0021d	a1 30 03 00 00	 mov	 eax, DWORD PTR ?m_szMetaTexts@CMetaTable@@2PAPBDA+816
  00222	89 46 58	 mov	 DWORD PTR [esi+88], eax

; 112  : 	m_szIndicatorNames[ IMetaTable::EDDC_OCX_VOLUMEFORSALE]			= m_szMetaTexts[ IMetaTable::C2_OVERHANGING_SUPPLY];			// 대기매물

  00225	a1 34 03 00 00	 mov	 eax, DWORD PTR ?m_szMetaTexts@CMetaTable@@2PAPBDA+820
  0022a	89 46 5c	 mov	 DWORD PTR [esi+92], eax
  0022d	0f 1f 00	 npad	 3
$LL52@LoadMetaTa:

; 113  : 	m_szIndicatorNames[ IMetaTable::EDDC_OCX_GLANCEBALANCECHART]	= m_szMetaTexts[ IMetaTable::C2_OBVIOUSLY_BALANCE_CHART];		// 일목균형표

  00230	8b 01		 mov	 eax, DWORD PTR [ecx]
  00232	8d 52 04	 lea	 edx, DWORD PTR [edx+4]
  00235	83 c1 04	 add	 ecx, 4
  00238	89 42 fc	 mov	 DWORD PTR [edx-4], eax
  0023b	81 f9 6c 03 00
	00		 cmp	 ecx, OFFSET ?m_szMetaTexts@CMetaTable@@2PAPBDA+876
  00241	7c ed		 jl	 SHORT $LL52@LoadMetaTa

; 114  : 	m_szIndicatorNames[ IMetaTable::EDDC_ST_BOLLINGERCHART]			= m_szMetaTexts[ IMetaTable::C2_BOLLINGER_BANDS];				// Bollinger Bands
; 115  : 	m_szIndicatorNames[ IMetaTable::EDDC_OCX_BOXCHARTCHART]			= m_szMetaTexts[ IMetaTable::C2_BOX_CHART];			// Box Chart
; 116  : 	m_szIndicatorNames[ IMetaTable::EDDC_ST_DEMACHART]				= m_szMetaTexts[ IMetaTable::C2_DEMA];					// DEMA
; 117  : 	m_szIndicatorNames[ IMetaTable::EDDC_ST_DEMARKCHART]			= m_szMetaTexts[ IMetaTable::C2_DEMARK];					// Demark
; 118  : 	m_szIndicatorNames[ IMetaTable::EDDC_ST_ENVELOPECHART]			= m_szMetaTexts[ IMetaTable::C2_ENVELOPE];				// Envelope
; 119  : 	m_szIndicatorNames[ IMetaTable::EDDC_ST_MACCHART]				= m_szMetaTexts[ IMetaTable::C2_MAC];					// MAC
; 120  : 	m_szIndicatorNames[ IMetaTable::EDDC_ST_PARABOLICCHART]			= m_szMetaTexts[ IMetaTable::C2_PARABOLIC_SAR];				// Parabolic SAR
; 121  : 	m_szIndicatorNames[ IMetaTable::EDDC_ST_PIVOTCHART]				= m_szMetaTexts[ IMetaTable::C2_PIVOT];					// Pivot
; 122  : 	m_szIndicatorNames[ IMetaTable::EDDC_ST_PRICECHANNELCHART]		= m_szMetaTexts[ IMetaTable::C2_PRICE_CHANNEL];			// Price Channel
; 123  : 	m_szIndicatorNames[ IMetaTable::EDDC_ST_STARCBANDSCHART]		= m_szMetaTexts[ IMetaTable::C2_STARC_BANDS];				// Starc Bands
; 124  : 	m_szIndicatorNames[ IMetaTable::EDDC_ST_TEMACHART]				= m_szMetaTexts[ IMetaTable::C2_TEMA];					// TEMA
; 125  : 	m_szIndicatorNames[ IMetaTable::EDDC_OCX_ZIGZAGCHART]			= m_szMetaTexts[ IMetaTable::C2_ZIG_ZAG];				// Zig Zag
; 126  : 	m_szIndicatorNames[ IMetaTable::EDDC_OCX_CLCCHART]				= m_szMetaTexts[ IMetaTable::C2_BROKEN_LINE_CHART];				// 꺽은선차트

  00243	a1 98 0c 00 00	 mov	 eax, DWORD PTR ?m_szMetaTexts@CMetaTable@@2PAPBDA+3224
  00248	8d 96 d4 00 00
	00		 lea	 edx, DWORD PTR [esi+212]
  0024e	89 86 94 00 00
	00		 mov	 DWORD PTR [esi+148], eax
  00254	b9 98 03 00 00	 mov	 ecx, OFFSET ?m_szMetaTexts@CMetaTable@@2PAPBDA+920

; 127  : 	m_szIndicatorNames[ IMetaTable::EDDC_ST_STD_ERROR_BAND]			= m_szMetaTexts[ IMetaTable::C2_STANDARD_ERROR_BAND];				// 표준오차밴드

  00259	a1 9c 0c 00 00	 mov	 eax, DWORD PTR ?m_szMetaTexts@CMetaTable@@2PAPBDA+3228
  0025e	89 86 98 00 00
	00		 mov	 DWORD PTR [esi+152], eax

; 128  : 
; 129  : 	// 변동성지표
; 130  : 	m_szIndicatorNames[ IMetaTable::EDDC_ST_DISPARITYCHART]			= m_szMetaTexts[ IMetaTable::C2_DISPARITY];				// 이격도

  00264	a1 ac 04 00 00	 mov	 eax, DWORD PTR ?m_szMetaTexts@CMetaTable@@2PAPBDA+1196
  00269	89 86 9c 00 00
	00		 mov	 DWORD PTR [esi+156], eax

; 131  : 	m_szIndicatorNames[ IMetaTable::EDDC_ST_DISPARITYCHART_SMA]		= m_szMetaTexts[ IMetaTable::C2_DISPARITY_SMA];			// 이격도(단순)

  0026f	a1 6c 03 00 00	 mov	 eax, DWORD PTR ?m_szMetaTexts@CMetaTable@@2PAPBDA+876
  00274	89 86 a0 00 00
	00		 mov	 DWORD PTR [esi+160], eax

; 132  : 	m_szIndicatorNames[ IMetaTable::EDDC_ST_DISPARITYCHART_EMA]		= m_szMetaTexts[ IMetaTable::C2_DISPARITY_EMA];			// 이격도(지수)

  0027a	a1 70 03 00 00	 mov	 eax, DWORD PTR ?m_szMetaTexts@CMetaTable@@2PAPBDA+880
  0027f	89 86 a4 00 00
	00		 mov	 DWORD PTR [esi+164], eax

; 133  : 	m_szIndicatorNames[ IMetaTable::EDDC_ST_ABRATIO]				= m_szMetaTexts[ IMetaTable::C2_AB_RATIO];						// AB Ratio

  00285	a1 74 03 00 00	 mov	 eax, DWORD PTR ?m_szMetaTexts@CMetaTable@@2PAPBDA+884
  0028a	89 86 a8 00 00
	00		 mov	 DWORD PTR [esi+168], eax

; 134  : 	m_szIndicatorNames[ IMetaTable::EDDC_ST_ATR]					= m_szMetaTexts[ IMetaTable::C2_ATR];							// ATR

  00290	a1 78 03 00 00	 mov	 eax, DWORD PTR ?m_szMetaTexts@CMetaTable@@2PAPBDA+888
  00295	89 86 ac 00 00
	00		 mov	 DWORD PTR [esi+172], eax

; 135  : 	m_szIndicatorNames[ IMetaTable::EDDC_ST_BAND_PERCENT_B]			= m_szMetaTexts[ IMetaTable::C2_BAND_PERCENT_B];				// Band %B

  0029b	a1 7c 03 00 00	 mov	 eax, DWORD PTR ?m_szMetaTexts@CMetaTable@@2PAPBDA+892
  002a0	89 86 b0 00 00
	00		 mov	 DWORD PTR [esi+176], eax

; 136  : 	m_szIndicatorNames[ IMetaTable::EDDC_ST_BAND_WIDTH]				= m_szMetaTexts[ IMetaTable::C2_BAND_WIDTH];					// Band Width

  002a6	a1 80 03 00 00	 mov	 eax, DWORD PTR ?m_szMetaTexts@CMetaTable@@2PAPBDA+896
  002ab	89 86 b4 00 00
	00		 mov	 DWORD PTR [esi+180], eax

; 137  : 	m_szIndicatorNames[ IMetaTable::EDDC_ST_BWI]					= m_szMetaTexts[ IMetaTable::C2_BWI];					// BWI

  002b1	a1 a0 0c 00 00	 mov	 eax, DWORD PTR ?m_szMetaTexts@CMetaTable@@2PAPBDA+3232
  002b6	89 86 b8 00 00
	00		 mov	 DWORD PTR [esi+184], eax

; 138  : 	m_szIndicatorNames[ IMetaTable::EDDC_ST_CHAIKINS_VOLATILITY]	= m_szMetaTexts[ IMetaTable::C2_CHAIKINS_VOLATILITY];			// Chaikin's Volatility

  002bc	a1 84 03 00 00	 mov	 eax, DWORD PTR ?m_szMetaTexts@CMetaTable@@2PAPBDA+900
  002c1	89 86 bc 00 00
	00		 mov	 DWORD PTR [esi+188], eax

; 139  : 	m_szIndicatorNames[ IMetaTable::EDDC_ST_DPO]					= m_szMetaTexts[ IMetaTable::C2_DPO];							// DPO

  002c7	a1 88 03 00 00	 mov	 eax, DWORD PTR ?m_szMetaTexts@CMetaTable@@2PAPBDA+904
  002cc	89 86 c0 00 00
	00		 mov	 DWORD PTR [esi+192], eax

; 140  : 	m_szIndicatorNames[ IMetaTable::EDDC_ST_DRF]					= m_szMetaTexts[ IMetaTable::C2_DRF];							// DRF

  002d2	a1 8c 03 00 00	 mov	 eax, DWORD PTR ?m_szMetaTexts@CMetaTable@@2PAPBDA+908
  002d7	89 86 c4 00 00
	00		 mov	 DWORD PTR [esi+196], eax

; 141  : 	m_szIndicatorNames[ IMetaTable::EDDC_ST_ELDER_RAY_BEAR]			= m_szMetaTexts[ IMetaTable::C2_ELDER_RAY_BEAR];				// Elder Ray Bear

  002dd	a1 90 03 00 00	 mov	 eax, DWORD PTR ?m_szMetaTexts@CMetaTable@@2PAPBDA+912
  002e2	89 86 c8 00 00
	00		 mov	 DWORD PTR [esi+200], eax

; 142  : 	m_szIndicatorNames[ IMetaTable::EDDC_ST_ELDER_RAY_BULL]			= m_szMetaTexts[ IMetaTable::C2_ELDER_RAY_BULL];				// Elder Ray Bull

  002e8	a1 94 03 00 00	 mov	 eax, DWORD PTR ?m_szMetaTexts@CMetaTable@@2PAPBDA+916
  002ed	89 86 cc 00 00
	00		 mov	 DWORD PTR [esi+204], eax

; 143  : 	m_szIndicatorNames[ IMetaTable::EDDC_ST_HV]						= m_szMetaTexts[ IMetaTable::C2_HISTORICAL_VOLATILITY];							// 역사적변동성

  002f3	a1 a4 0c 00 00	 mov	 eax, DWORD PTR ?m_szMetaTexts@CMetaTable@@2PAPBDA+3236
  002f8	89 86 d0 00 00
	00		 mov	 DWORD PTR [esi+208], eax
  002fe	66 90		 npad	 2
$LL54@LoadMetaTa:

; 144  : 	m_szIndicatorNames[ IMetaTable::EDDC_ST_MASSINDEX]				= m_szMetaTexts[ IMetaTable::C2_MASS_INDEX];					// Mass Index

  00300	8b 01		 mov	 eax, DWORD PTR [ecx]
  00302	8d 52 04	 lea	 edx, DWORD PTR [edx+4]
  00305	83 c1 04	 add	 ecx, 4
  00308	89 42 fc	 mov	 DWORD PTR [edx-4], eax
  0030b	81 f9 14 04 00
	00		 cmp	 ecx, OFFSET ?m_szMetaTexts@CMetaTable@@2PAPBDA+1044
  00311	7c ed		 jl	 SHORT $LL54@LoadMetaTa

; 145  : 	m_szIndicatorNames[ IMetaTable::EDDC_ST_NCO]					= m_szMetaTexts[ IMetaTable::C2_NCO];							// NCO
; 146  : 	m_szIndicatorNames[ IMetaTable::EDDC_ST_QSTIC]					= m_szMetaTexts[ IMetaTable::C2_QSTIC];						// Qstic
; 147  : 	m_szIndicatorNames[ IMetaTable::EDDC_ST_RMI]					= m_szMetaTexts[ IMetaTable::C2_RMI];							// RMI
; 148  : 	m_szIndicatorNames[ IMetaTable::EDDC_ST_RSICHART]				= m_szMetaTexts[ IMetaTable::C2_RSI];					// RSI
; 149  : 	m_szIndicatorNames[ IMetaTable::EDDC_ST_SIGMA]					= m_szMetaTexts[ IMetaTable::C2_SIGMA];						// Sigma
; 150  : 	m_szIndicatorNames[ IMetaTable::EDDC_ST_STANDARD_DEVIATION]		= m_szMetaTexts[ IMetaTable::C2_STANDARD_DEVIATION];			// Standard Deviation
; 151  : 	m_szIndicatorNames[ IMetaTable::EDDC_ST_STANDARD_ERROR]			= m_szMetaTexts[ IMetaTable::C2_STANDARD_ERROR];				// Standard Error
; 152  : 	m_szIndicatorNames[ IMetaTable::EDDC_ST_STOCHASTICSFASTCHART]	= m_szMetaTexts[ IMetaTable::C2_STOCHASTIC_FAST];		// Stochastic Fast
; 153  : 	m_szIndicatorNames[ IMetaTable::EDDC_ST_STOCHASTICSFASTCHART2]	= m_szMetaTexts[ IMetaTable::C2_STOCHASTIC_FAST2];		// Stochastic Fast2
; 154  : 	m_szIndicatorNames[ IMetaTable::EDDC_ST_STOCHASTICSFASTCHART3]	= m_szMetaTexts[ IMetaTable::C2_STOCHASTIC_FAST3];		// Stochastic Fast3
; 155  : 	m_szIndicatorNames[ IMetaTable::EDDC_ST_STOCHASTICSSLOWCHART]	= m_szMetaTexts[ IMetaTable::C2_STOCHASTIC_SLOW];		// Stochastic Slow
; 156  : 	m_szIndicatorNames[ IMetaTable::EDDC_ST_STOCHASTICSSLOWCHART2]	= m_szMetaTexts[ IMetaTable::C2_STOCHASTIC_SLOW2];		// Stochastic Slow2
; 157  : 	m_szIndicatorNames[ IMetaTable::EDDC_ST_STOCHASTICSSLOWCHART3]	= m_szMetaTexts[ IMetaTable::C2_STOCHASTIC_SLOW3];		// Stochastic Slow3
; 158  : 	m_szIndicatorNames[ IMetaTable::EDDC_ST_WILLIAMCHART]			= m_szMetaTexts[ IMetaTable::C2_PERCENT_R];				// William's %R
; 159  : 
; 160  : 	// 추세지표
; 161  : 	m_szIndicatorNames[ IMetaTable::EDDC_ST_ADLINE]					= m_szMetaTexts[ IMetaTable::C2_AD_LINE];						// AD Line
; 162  : 	m_szIndicatorNames[ IMetaTable::EDDC_ST_ADX]					= m_szMetaTexts[ IMetaTable::C2_ADX];							// ADX
; 163  : 	m_szIndicatorNames[ IMetaTable::EDDC_ST_ADXR]					= m_szMetaTexts[ IMetaTable::C2_ADXR];						// ADXR
; 164  : 	m_szIndicatorNames[ IMetaTable::EDDC_ST_AROON]					= m_szMetaTexts[ IMetaTable::C2_AROON];						// Aroon
; 165  : 	m_szIndicatorNames[ IMetaTable::EDDC_ST_CCI]					= m_szMetaTexts[ IMetaTable::C2_CCI];							// CCI
; 166  : 	m_szIndicatorNames[ IMetaTable::EDDC_ST_FORMULA]				= m_szMetaTexts[ IMetaTable::C2_FORMULA];						// Formula
; 167  : 	m_szIndicatorNames[ IMetaTable::EDDC_ST_LRS]					= m_szMetaTexts[ IMetaTable::C2_LRS];							// LRS
; 168  : 	m_szIndicatorNames[ IMetaTable::EDDC_ST_MACD]					= m_szMetaTexts[ IMetaTable::C2_MACD];						// MACD
; 169  : 	m_szIndicatorNames[ IMetaTable::EDDC_ST_MACD_OSCILLATOR]		= m_szMetaTexts[ IMetaTable::C2_MACD_OSCILLATOR];				// MACD Oscillator
; 170  : 	m_szIndicatorNames[ IMetaTable::EDDC_ST_MAO]					= m_szMetaTexts[ IMetaTable::C2_MAO];							// MAO
; 171  : 	m_szIndicatorNames[ IMetaTable::EDDC_ST_MOMENTUM]				= m_szMetaTexts[ IMetaTable::C2_MOMENTUM];					// Momentum
; 172  : 	m_szIndicatorNames[ IMetaTable::EDDC_ST_NDI]					= m_szMetaTexts[ IMetaTable::C2_NDI];							// NDI
; 173  : 	m_szIndicatorNames[ IMetaTable::EDDC_ST_PRICEOSCILLATOR]		= m_szMetaTexts[ IMetaTable::C2_PRICE_OSCILLATOR];				// Price Oscillator
; 174  : 	m_szIndicatorNames[ IMetaTable::EDDC_ST_ROC]					= m_szMetaTexts[ IMetaTable::C2_ROC];							// ROC
; 175  : 	m_szIndicatorNames[ IMetaTable::EDDC_ST_SONAR]					= m_szMetaTexts[ IMetaTable::C2_SONAR];						// Sonar
; 176  : 	m_szIndicatorNames[ IMetaTable::EDDC_ST_SROC]					= m_szMetaTexts[ IMetaTable::C2_SROC];						// SROC
; 177  : 	m_szIndicatorNames[ IMetaTable::EDDC_ST_TDI]					= m_szMetaTexts[ IMetaTable::C2_TDI];							// TDI

  00313	a1 a8 0c 00 00	 mov	 eax, DWORD PTR ?m_szMetaTexts@CMetaTable@@2PAPBDA+3240
  00318	8d 96 6c 01 00
	00		 lea	 edx, DWORD PTR [esi+364]
  0031e	89 86 50 01 00
	00		 mov	 DWORD PTR [esi+336], eax
  00324	b9 1c 04 00 00	 mov	 ecx, OFFSET ?m_szMetaTexts@CMetaTable@@2PAPBDA+1052

; 178  : 	m_szIndicatorNames[ IMetaTable::EDDC_ST_TRIX]					= m_szMetaTexts[ IMetaTable::C2_TRIX];						// TRIX

  00329	a1 14 04 00 00	 mov	 eax, DWORD PTR ?m_szMetaTexts@CMetaTable@@2PAPBDA+1044
  0032e	89 86 54 01 00
	00		 mov	 DWORD PTR [esi+340], eax

; 179  : 	m_szIndicatorNames[ IMetaTable::EDDC_ST_VHF]					= m_szMetaTexts[ IMetaTable::C2_VHF];							// VHF

  00334	a1 18 04 00 00	 mov	 eax, DWORD PTR ?m_szMetaTexts@CMetaTable@@2PAPBDA+1048
  00339	89 86 58 01 00
	00		 mov	 DWORD PTR [esi+344], eax

; 180  : 	m_szIndicatorNames[ IMetaTable::EDDC_ST_LRL]					= m_szMetaTexts[ IMetaTable::C2_LRL];							// LRL

  0033f	a1 ac 0c 00 00	 mov	 eax, DWORD PTR ?m_szMetaTexts@CMetaTable@@2PAPBDA+3244
  00344	89 86 5c 01 00
	00		 mov	 DWORD PTR [esi+348], eax

; 181  : 	m_szIndicatorNames[ IMetaTable::EDDC_ST_TSF]					= m_szMetaTexts[ IMetaTable::C2_TSF];							// TSF

  0034a	a1 a4 04 00 00	 mov	 eax, DWORD PTR ?m_szMetaTexts@CMetaTable@@2PAPBDA+1188
  0034f	89 86 60 01 00
	00		 mov	 DWORD PTR [esi+352], eax

; 182  : 	m_szIndicatorNames[ IMetaTable::EDDC_ST_DMI]					= m_szMetaTexts[ IMetaTable::C2_DMI];							// DMI

  00355	a1 a8 04 00 00	 mov	 eax, DWORD PTR ?m_szMetaTexts@CMetaTable@@2PAPBDA+1192
  0035a	89 86 64 01 00
	00		 mov	 DWORD PTR [esi+356], eax

; 183  : 	m_szIndicatorNames[ IMetaTable::EDDC_ST_VR]						= m_szMetaTexts[ IMetaTable::C2_VR];							// VR

  00360	a1 80 0c 00 00	 mov	 eax, DWORD PTR ?m_szMetaTexts@CMetaTable@@2PAPBDA+3200
  00365	89 86 68 01 00
	00		 mov	 DWORD PTR [esi+360], eax
  0036b	0f 1f 44 00 00	 npad	 5
$LL56@LoadMetaTa:

; 184  : 
; 185  : 	// 거래량지표
; 186  : 	m_szIndicatorNames[ IMetaTable::EDDC_ST_CMF]					= m_szMetaTexts[ IMetaTable::C2_CMF];							// CMF

  00370	8b 01		 mov	 eax, DWORD PTR [ecx]
  00372	8d 52 04	 lea	 edx, DWORD PTR [edx+4]
  00375	83 c1 04	 add	 ecx, 4
  00378	89 42 fc	 mov	 DWORD PTR [edx-4], eax
  0037b	81 f9 5c 04 00
	00		 cmp	 ecx, OFFSET ?m_szMetaTexts@CMetaTable@@2PAPBDA+1116
  00381	7c ed		 jl	 SHORT $LL56@LoadMetaTa

; 187  : 	m_szIndicatorNames[ IMetaTable::EDDC_ST_CHAIKINS_OSCILLATOR]	= m_szMetaTexts[ IMetaTable::C2_CHAIKINS_OSCILLATOR];			// Chaikin's Oscillator
; 188  : 	m_szIndicatorNames[ IMetaTable::EDDC_ST_EOM]					= m_szMetaTexts[ IMetaTable::C2_EOM];							// EOM
; 189  : 	m_szIndicatorNames[ IMetaTable::EDDC_ST_FORCE_INDEX]			= m_szMetaTexts[ IMetaTable::C2_FORCE_INDEX];					// Force Index
; 190  : 	m_szIndicatorNames[ IMetaTable::EDDC_ST_MFI]					= m_szMetaTexts[ IMetaTable::C2_MFI];							// MFI
; 191  : 	m_szIndicatorNames[ IMetaTable::EDDC_ST_NVI]					= m_szMetaTexts[ IMetaTable::C2_NVI];							// NVI
; 192  : 	m_szIndicatorNames[ IMetaTable::EDDC_ST_OBV]					= m_szMetaTexts[ IMetaTable::C2_OBV];						// OBV
; 193  : 	m_szIndicatorNames[ IMetaTable::EDDC_ST_PVI]					= m_szMetaTexts[ IMetaTable::C2_PVI];							// PVI
; 194  : 	m_szIndicatorNames[ IMetaTable::EDDC_ST_VA_OSCILLATOR]			= m_szMetaTexts[ IMetaTable::C2_VA_OSCILLATOR];				// VA Oscillator
; 195  : 	m_szIndicatorNames[ IMetaTable::EDDC_ST_VOLUME_OSCILLATOR]		= m_szMetaTexts[ IMetaTable::C2_VOLUME_OSCILLATOR];			// Volume Oscillator
; 196  : 	m_szIndicatorNames[ IMetaTable::EDDC_ST_VOLUME_RATIO]			= m_szMetaTexts[ IMetaTable::C2_VOLUME_RATIO];				// Volume Ratio
; 197  : 	m_szIndicatorNames[ IMetaTable::EDDC_ST_VROC]					= m_szMetaTexts[ IMetaTable::C2_VROC];						// VROC
; 198  : 
; 199  : 	// 기타지표
; 200  : 	m_szIndicatorNames[ IMetaTable::EDDC_ST_PSYCHCHART]				= m_szMetaTexts[ IMetaTable::C2_PSYCHOLOGICAL_LINE];				// 심리도, 투자심리선
; 201  : 	m_szIndicatorNames[ IMetaTable::EDDC_ST_7_BINARY_WAVE]			= m_szMetaTexts[ IMetaTable::C2_7_BINARY_WAVE];			// 7Binary Wave
; 202  : 	m_szIndicatorNames[ IMetaTable::EDDC_ST_BINARY_WAVE]			= m_szMetaTexts[ IMetaTable::C2_BINARY_WAVE];					// Binary Wave
; 203  : 	m_szIndicatorNames[ IMetaTable::EDDC_ST_PVT]					= m_szMetaTexts[ IMetaTable::C2_PVT];							// PVT
; 204  : 	m_szIndicatorNames[ IMetaTable::EDDC_ST_NFI]					= m_szMetaTexts[ IMetaTable::C2_NFI];							// NFI

  00383	a1 b0 0c 00 00	 mov	 eax, DWORD PTR ?m_szMetaTexts@CMetaTable@@2PAPBDA+3248
  00388	8d 96 b4 01 00
	00		 lea	 edx, DWORD PTR [esi+436]
  0038e	89 86 ac 01 00
	00		 mov	 DWORD PTR [esi+428], eax
  00394	b9 5c 04 00 00	 mov	 ecx, OFFSET ?m_szMetaTexts@CMetaTable@@2PAPBDA+1116

; 205  : 	m_szIndicatorNames[ IMetaTable::EDDC_ST_NEW_PSYCHOLOGY_LINE]	= m_szMetaTexts[ IMetaTable::C2_NEW_PSYCHOLOGY_LINE];			// 신심리도

  00399	a1 3c 0d 00 00	 mov	 eax, DWORD PTR ?m_szMetaTexts@CMetaTable@@2PAPBDA+3388
  0039e	89 86 b0 01 00
	00		 mov	 DWORD PTR [esi+432], eax
$LL58@LoadMetaTa:

; 206  : 
; 207  : 	// 2차 파생지표
; 208  : 	m_szIndicatorNames[ IMetaTable::EDDC_ST_LRS_STOCHASTIC]			= m_szMetaTexts[ IMetaTable::C2_LRS_STOCHASTIC];				// LRS+Stochastic

  003a4	8b 01		 mov	 eax, DWORD PTR [ecx]
  003a6	8d 52 04	 lea	 edx, DWORD PTR [edx+4]
  003a9	83 c1 04	 add	 ecx, 4
  003ac	89 42 fc	 mov	 DWORD PTR [edx-4], eax
  003af	81 f9 a0 04 00
	00		 cmp	 ecx, OFFSET ?m_szMetaTexts@CMetaTable@@2PAPBDA+1184
  003b5	7c ed		 jl	 SHORT $LL58@LoadMetaTa

; 209  : 	m_szIndicatorNames[ IMetaTable::EDDC_ST_MACD_STOCHASTIC]		= m_szMetaTexts[ IMetaTable::C2_MACD_STOCHASTIC];				// MACD+Stochastic
; 210  : 	m_szIndicatorNames[ IMetaTable::EDDC_ST_MOMENTUM_STOCHASTIC]	= m_szMetaTexts[ IMetaTable::C2_MOMENTUM_STOCHASTIC];			// Momentum+Stochastic
; 211  : 	m_szIndicatorNames[ IMetaTable::EDDC_ST_OBV_MOMENTUM]			= m_szMetaTexts[ IMetaTable::C2_OBV_MOMENTUM];				// OBV+Momentum
; 212  : 	m_szIndicatorNames[ IMetaTable::EDDC_ST_OBV_STOCHASTIC]			= m_szMetaTexts[ IMetaTable::C2_OBV_STOCHASTIC];				// OBV+Stochastic
; 213  : 	m_szIndicatorNames[ IMetaTable::EDDC_ST_ROC_STOCHASTIC]			= m_szMetaTexts[ IMetaTable::C2_ROC_STOCHASTIC];				// ROC+Stochastic
; 214  : 	m_szIndicatorNames[ IMetaTable::EDDC_ST_RSI_MACD]				= m_szMetaTexts[ IMetaTable::C2_RSI_MACD];					// RSI+MACD
; 215  : 	m_szIndicatorNames[ IMetaTable::EDDC_ST_RSI_STOCHASTIC]			= m_szMetaTexts[ IMetaTable::C2_RSI_STOCHASTIC];				// RSI+Stochastic
; 216  : 	m_szIndicatorNames[ IMetaTable::EDDC_ST_SONAR_PSYCHCHART]		= m_szMetaTexts[ IMetaTable::C2_SONAR_PSYCHOLOGY];			// Sonar+심리도
; 217  : 	m_szIndicatorNames[ IMetaTable::EDDC_ST_STOCHASTIC_RSI]			= m_szMetaTexts[ IMetaTable::C2_STOCHASTIC_RSI];				// Stochastic+RSI
; 218  : 	m_szIndicatorNames[ IMetaTable::EDDC_ST_PERCENT_B_STOCHASTIC]	= m_szMetaTexts[ IMetaTable::C2_PERCENT_B_STOCHASTIC];		// %B+Stochastic
; 219  : 
; 220  : 	// 특수지표
; 221  : 	m_szIndicatorNames[ IMetaTable::EDDC_OCX_THREELINEBRACKCHART]	= m_szMetaTexts[ IMetaTable::C2_THREE_LINE_BREAK];		// 삼선전환도
; 222  : 	m_szIndicatorNames[ IMetaTable::EDDC_OCX_INVERSLINECHART]		= m_szMetaTexts[ IMetaTable::C2_INVERSE_TIME_LINE];			// 역시계곡선
; 223  : 	m_szIndicatorNames[ IMetaTable::EDDC_OCX_PANDFCHART]			= m_szMetaTexts[ IMetaTable::C2_P_AND_F];				// P&F
; 224  : 	m_szIndicatorNames[ IMetaTable::EDDC_OCX_SWINGCHART]			= m_szMetaTexts[ IMetaTable::C2_SWING_CHART];				// SwingChart
; 225  : 	m_szIndicatorNames[ IMetaTable::EDDC_OCX_KAGICHART]				= m_szMetaTexts[ IMetaTable::C2_KAGI_CHART];				// KagiChart
; 226  : 	m_szIndicatorNames[ IMetaTable::EDDC_OCX_RENKOCHART]			= m_szMetaTexts[ IMetaTable::C2_RENKO_CHART];				// RenkoChart
; 227  : 	m_szIndicatorNames[ IMetaTable::EDDC_DISPERSIONCHART]			= m_szMetaTexts[ IMetaTable::C2_DISPERSION];				// 분산Chart	// (2006.11.09 안승환) 분산차트 추가

  003b7	a1 90 0c 00 00	 mov	 eax, DWORD PTR ?m_szMetaTexts@CMetaTable@@2PAPBDA+3216
  003bc	89 86 f8 01 00
	00		 mov	 DWORD PTR [esi+504], eax

; 228  : 
; 229  : 	// 비정규 지표
; 230  : 	m_szIndicatorNames[ IMetaTable::EDDC_OCX_COMPARATIVECHART]		= m_szMetaTexts[ IMetaTable::C2_COMPARISON_CHART];		// 상대비교차트

  003c2	a1 88 0c 00 00	 mov	 eax, DWORD PTR ?m_szMetaTexts@CMetaTable@@2PAPBDA+3208
  003c7	89 86 fc 01 00
	00		 mov	 DWORD PTR [esi+508], eax

; 231  : 	m_szIndicatorNames[ IMetaTable::EDDC_OCX_LOCKCHART]				= m_szMetaTexts[ IMetaTable::C3_LOCK];				// 락

  003cd	a1 b8 04 00 00	 mov	 eax, DWORD PTR ?m_szMetaTexts@CMetaTable@@2PAPBDA+1208
  003d2	89 86 00 02 00
	00		 mov	 DWORD PTR [esi+512], eax

; 232  : 	m_szIndicatorNames[ IMetaTable::EDDC_OCX_MARKETPROFILECHART]	= m_szMetaTexts[ IMetaTable::C3_MARKET_PROFILE];		// MarketProfile

  003d8	a1 b0 04 00 00	 mov	 eax, DWORD PTR ?m_szMetaTexts@CMetaTable@@2PAPBDA+1200
  003dd	89 86 04 02 00
	00		 mov	 DWORD PTR [esi+516], eax

; 233  : 	m_szIndicatorNames[ IMetaTable::EDDC_OCX_FUOPPANDFCHART]		= m_szMetaTexts[ IMetaTable::C2_FUTURE_OPTION_P_AND_F];			// FuOpP&F

  003e3	a1 8c 0c 00 00	 mov	 eax, DWORD PTR ?m_szMetaTexts@CMetaTable@@2PAPBDA+3212
  003e8	89 86 08 02 00
	00		 mov	 DWORD PTR [esi+520], eax

; 234  : 	m_szIndicatorNames[ IMetaTable::EDDC_OCX_VOLUMESELLBUYCHART]	= m_szMetaTexts[ IMetaTable::C2_BUY_SELL_OVERHANGING_SUPPLY];			// 매수매도대기매물

  003ee	a1 84 0c 00 00	 mov	 eax, DWORD PTR ?m_szMetaTexts@CMetaTable@@2PAPBDA+3204
  003f3	89 86 0c 02 00
	00		 mov	 DWORD PTR [esi+524], eax

; 235  : 
; 236  : 	// 기타 시장지표
; 237  : 	m_szIndicatorNames[ IMetaTable::EDDC_VOLUMEPRICE]					= m_szMetaTexts[ IMetaTable::C2_VOLUME_AMOUNT];					// 거래대금

  003f9	a1 a0 04 00 00	 mov	 eax, DWORD PTR ?m_szMetaTexts@CMetaTable@@2PAPBDA+1184
  003fe	89 86 10 02 00
	00		 mov	 DWORD PTR [esi+528], eax

; 238  : 	m_szIndicatorNames[ IMetaTable::EDDC_MINIJISUCHART]					= m_szMetaTexts[ IMetaTable::C2_MINI_INDEX_CHART];				// 미니지수차트

  00404	a1 94 0c 00 00	 mov	 eax, DWORD PTR ?m_szMetaTexts@CMetaTable@@2PAPBDA+3220
  00409	89 86 14 02 00
	00		 mov	 DWORD PTR [esi+532], eax

; 239  : 	m_szIndicatorNames[ IMetaTable::EDDC_INDUSTRYJISUCHART]				= m_szMetaTexts[ IMetaTable::C2_INDUSTRY_INDEX];				// 업종지수

  0040f	a1 b4 0c 00 00	 mov	 eax, DWORD PTR ?m_szMetaTexts@CMetaTable@@2PAPBDA+3252
  00414	89 86 18 02 00
	00		 mov	 DWORD PTR [esi+536], eax

; 240  : 	m_szIndicatorNames[ IMetaTable::EDDC_MARKETJISUCHART]				= m_szMetaTexts[ IMetaTable::C2_MARKET_INDEX];					// 시장지수

  0041a	a1 b8 0c 00 00	 mov	 eax, DWORD PTR ?m_szMetaTexts@CMetaTable@@2PAPBDA+3256
  0041f	89 86 1c 02 00
	00		 mov	 DWORD PTR [esi+540], eax
  00425	a1 bc 0c 00 00	 mov	 eax, DWORD PTR ?m_szMetaTexts@CMetaTable@@2PAPBDA+3260
  0042a	89 86 20 02 00
	00		 mov	 DWORD PTR [esi+544], eax
  00430	a1 c0 0c 00 00	 mov	 eax, DWORD PTR ?m_szMetaTexts@CMetaTable@@2PAPBDA+3264
  00435	89 86 24 02 00
	00		 mov	 DWORD PTR [esi+548], eax
  0043b	a1 c4 0c 00 00	 mov	 eax, DWORD PTR ?m_szMetaTexts@CMetaTable@@2PAPBDA+3268
  00440	89 86 28 02 00
	00		 mov	 DWORD PTR [esi+552], eax

; 241  : 	m_szIndicatorNames[ IMetaTable::EDDC_OCX_ACCOUNT_ITEMSIZE]			= m_szMetaTexts[ IMetaTable::C2_DEAL_LIST];						// 거래내역
; 242  : 	m_szIndicatorNames[ IMetaTable::EDDC_OCX_BIG_NEWS]					= m_szMetaTexts[ IMetaTable::C2_BIG_NEWS];						// Big News
; 243  : 	m_szIndicatorNames[ IMetaTable::EDDC_OCX_FOURIER_TRANSFORM]			= m_szMetaTexts[ IMetaTable::C2_FOURIER_TRANSFORM];				// Fourier Transform
; 244  : 	m_szIndicatorNames[ IMetaTable::EDDC_ORGAN_PUREBUY_ACCUMULATION]	= m_szMetaTexts[ IMetaTable::C2_ORGAN_PURE_BUY_ACCUMULATION];	// 기관순매수누적

  00446	a1 fc 0c 00 00	 mov	 eax, DWORD PTR ?m_szMetaTexts@CMetaTable@@2PAPBDA+3324
  0044b	89 86 2c 02 00
	00		 mov	 DWORD PTR [esi+556], eax

; 245  : 	m_szIndicatorNames[ IMetaTable::EDDC_ORGAN_PUREBUY]					= m_szMetaTexts[ IMetaTable::C2_ORGAN_PURE_BUY];				// 기관순매수량

  00451	a1 00 0d 00 00	 mov	 eax, DWORD PTR ?m_szMetaTexts@CMetaTable@@2PAPBDA+3328
  00456	89 86 30 02 00
	00		 mov	 DWORD PTR [esi+560], eax

; 246  : 	m_szIndicatorNames[ IMetaTable::EDDC_SUSPENSE_CONTRACT]				= m_szMetaTexts[ IMetaTable::C2_SUSPENSE_CONTRACT];				// 미결제약정

  0045c	a1 04 0d 00 00	 mov	 eax, DWORD PTR ?m_szMetaTexts@CMetaTable@@2PAPBDA+3332
  00461	89 86 34 02 00
	00		 mov	 DWORD PTR [esi+564], eax

; 247  : 	m_szIndicatorNames[ IMetaTable::EDDC_TOTAL_AMOUNT]					= m_szMetaTexts[ IMetaTable::C2_TOTAL_AMOUNT];					// 시가총액

  00467	a1 e8 0c 00 00	 mov	 eax, DWORD PTR ?m_szMetaTexts@CMetaTable@@2PAPBDA+3304
  0046c	89 86 38 02 00
	00		 mov	 DWORD PTR [esi+568], eax

; 248  : 	m_szIndicatorNames[ IMetaTable::EDDC_FOREIGN_HOLDING]				= m_szMetaTexts[ IMetaTable::C2_FOREIGN_HOLDING];				// 외국인 보유량

  00472	a1 ec 0c 00 00	 mov	 eax, DWORD PTR ?m_szMetaTexts@CMetaTable@@2PAPBDA+3308
  00477	89 86 3c 02 00
	00		 mov	 DWORD PTR [esi+572], eax

; 249  : 	m_szIndicatorNames[ IMetaTable::EDDC_FOREIGN_HOLDING_RATE]			= m_szMetaTexts[ IMetaTable::C2_FOREIGN_HOLDING_RATE];			// 외국인 보유율

  0047d	a1 f0 0c 00 00	 mov	 eax, DWORD PTR ?m_szMetaTexts@CMetaTable@@2PAPBDA+3312
  00482	89 86 40 02 00
	00		 mov	 DWORD PTR [esi+576], eax

; 250  : 	m_szIndicatorNames[ IMetaTable::EDDC_FOREIGN_PUREBUY]				= m_szMetaTexts[ IMetaTable::C2_FOREIGN_PURE_BUY];				// 외국인 순매수

  00488	a1 f8 0c 00 00	 mov	 eax, DWORD PTR ?m_szMetaTexts@CMetaTable@@2PAPBDA+3320
  0048d	89 86 44 02 00
	00		 mov	 DWORD PTR [esi+580], eax

; 251  : 	m_szIndicatorNames[ IMetaTable::EDDC_KOSPI_PER_INVESTER]			= m_szMetaTexts[ IMetaTable::C2_KOSPI_PER_INVESTOR];			// 투자자별거래소

  00493	a1 08 0d 00 00	 mov	 eax, DWORD PTR ?m_szMetaTexts@CMetaTable@@2PAPBDA+3336
  00498	89 86 48 02 00
	00		 mov	 DWORD PTR [esi+584], eax

; 252  : 	m_szIndicatorNames[ IMetaTable::EDDC_KOSDAQ_PER_INVESTER]			= m_szMetaTexts[ IMetaTable::C2_KOSDAQ_PER_INVESTOR];			// 투자자별코스닥

  0049e	a1 0c 0d 00 00	 mov	 eax, DWORD PTR ?m_szMetaTexts@CMetaTable@@2PAPBDA+3340
  004a3	89 86 4c 02 00
	00		 mov	 DWORD PTR [esi+588], eax

; 253  : 	m_szIndicatorNames[ IMetaTable::EDDC_K200_PER_INVESTER]				= m_szMetaTexts[ IMetaTable::C2_K200_PER_INVESTOR];				// 투자자별K200

  004a9	a1 10 0d 00 00	 mov	 eax, DWORD PTR ?m_szMetaTexts@CMetaTable@@2PAPBDA+3344
  004ae	89 86 50 02 00
	00		 mov	 DWORD PTR [esi+592], eax

; 254  : 	m_szIndicatorNames[ IMetaTable::EDDC_FUTURE_PER_INVESTER]			= m_szMetaTexts[ IMetaTable::C2_FUTURE_PER_INVESTOR];			// 투자자별선물

  004b4	a1 14 0d 00 00	 mov	 eax, DWORD PTR ?m_szMetaTexts@CMetaTable@@2PAPBDA+3348
  004b9	89 86 54 02 00
	00		 mov	 DWORD PTR [esi+596], eax

; 255  : 	m_szIndicatorNames[ IMetaTable::EDDC_CALL_OPTION_PER_INVESTER]		= m_szMetaTexts[ IMetaTable::C2_CALLOPTION_PER_INVESTOR];		// 투자자별콜옵션

  004bf	a1 18 0d 00 00	 mov	 eax, DWORD PTR ?m_szMetaTexts@CMetaTable@@2PAPBDA+3352
  004c4	89 86 58 02 00
	00		 mov	 DWORD PTR [esi+600], eax

; 256  : 	m_szIndicatorNames[ IMetaTable::EDDC_PUT_OPTION_PER_INVESTER]		= m_szMetaTexts[ IMetaTable::C2_PUTOPTION_PER_INVESTOR];		// 투자자별풋옵션

  004ca	a1 1c 0d 00 00	 mov	 eax, DWORD PTR ?m_szMetaTexts@CMetaTable@@2PAPBDA+3356
  004cf	89 86 5c 02 00
	00		 mov	 DWORD PTR [esi+604], eax

; 257  : 	m_szIndicatorNames[ IMetaTable::EDDC_PROGRAM_TRADE_PUREBUY_KOSPI]	= m_szMetaTexts[ IMetaTable::C2_PROGRAMTRADE_PUREBUY_KOSPI];	// 프로그램순매수 거래소

  004d5	a1 20 0d 00 00	 mov	 eax, DWORD PTR ?m_szMetaTexts@CMetaTable@@2PAPBDA+3360
  004da	89 86 60 02 00
	00		 mov	 DWORD PTR [esi+608], eax

; 258  : 	m_szIndicatorNames[ IMetaTable::EDDC_PROGRAM_TRADE_PUREBUY_KOSDAQ]	= m_szMetaTexts[ IMetaTable::C2_PROGRAMTRADE_PUREBUY_KOSDAQ];	// 프로그램순매수 코스닥

  004e0	a1 24 0d 00 00	 mov	 eax, DWORD PTR ?m_szMetaTexts@CMetaTable@@2PAPBDA+3364
  004e5	89 86 64 02 00
	00		 mov	 DWORD PTR [esi+612], eax

; 259  : 	
; 260  : 	m_szIndicatorNames[ IMetaTable::EDDC_PERSON_PUREBUY]				= m_szMetaTexts[ IMetaTable::C2_PERSON_PUREBUY];				// 프로그램순매수 코스닥

  004eb	a1 30 0d 00 00	 mov	 eax, DWORD PTR ?m_szMetaTexts@CMetaTable@@2PAPBDA+3376
  004f0	89 86 68 02 00
	00		 mov	 DWORD PTR [esi+616], eax

; 261  : 	m_szIndicatorNames[ IMetaTable::EDDC_PERSON_PUREBUYACCUM]			= m_szMetaTexts[ IMetaTable::C2_PERSON_PUREBUYACCUM];			// 프로그램순매수 코스닥

  004f6	a1 34 0d 00 00	 mov	 eax, DWORD PTR ?m_szMetaTexts@CMetaTable@@2PAPBDA+3380
  004fb	89 86 6c 02 00
	00		 mov	 DWORD PTR [esi+620], eax

; 262  : 	m_szIndicatorNames[ IMetaTable::EDDC_FOREIGN_PUREBUYACCM]			= m_szMetaTexts[ IMetaTable::C2_FOREIGN_PUREBUYACCM];			// 프로그램순매수 코스닥

  00501	a1 38 0d 00 00	 mov	 eax, DWORD PTR ?m_szMetaTexts@CMetaTable@@2PAPBDA+3384
  00506	89 86 70 02 00
	00		 mov	 DWORD PTR [esi+624], eax

; 263  : 	m_szIndicatorNames[ IMetaTable::EDDC_LINE_PRICE_MA]					= m_szMetaTexts[ IMetaTable::C2_LINE_PRICE_MA];					// 프로그램순매수 코스닥

  0050c	a1 40 0d 00 00	 mov	 eax, DWORD PTR ?m_szMetaTexts@CMetaTable@@2PAPBDA+3392
  00511	89 86 74 02 00
	00		 mov	 DWORD PTR [esi+628], eax

; 264  : 
; 265  : 	m_szIndicatorNames[ IMetaTable::EDDC_ORGAN_FINANCE_PUREBUYACCUM]	= m_szMetaTexts[ IMetaTable::C2_ORGAN_FINANCE_PUREBUYACCUM];	// 기관(금융투자) 순매수누적

  00517	a1 44 0d 00 00	 mov	 eax, DWORD PTR ?m_szMetaTexts@CMetaTable@@2PAPBDA+3396
  0051c	89 86 78 02 00
	00		 mov	 DWORD PTR [esi+632], eax

; 266  : 	m_szIndicatorNames[ IMetaTable::EDDC_ORGAN_FINANCE_PUREBUY]			= m_szMetaTexts[ IMetaTable::C2_ORGAN_FINANCE_PUREBUY];			// 기관(금융투자) 순매수량

  00522	a1 48 0d 00 00	 mov	 eax, DWORD PTR ?m_szMetaTexts@CMetaTable@@2PAPBDA+3400
  00527	89 86 7c 02 00
	00		 mov	 DWORD PTR [esi+636], eax

; 267  : 	m_szIndicatorNames[ IMetaTable::EDDC_ORGAN_INSURE_PUREBUYACCUM]		= m_szMetaTexts[ IMetaTable::C2_ORGAN_INSURE_PUREBUYACCUM];		// 기관(보험) 순매수누적

  0052d	a1 4c 0d 00 00	 mov	 eax, DWORD PTR ?m_szMetaTexts@CMetaTable@@2PAPBDA+3404
  00532	89 86 80 02 00
	00		 mov	 DWORD PTR [esi+640], eax

; 268  : 	m_szIndicatorNames[ IMetaTable::EDDC_ORGAN_INSURE_PUREBUY]			= m_szMetaTexts[ IMetaTable::C2_ORGAN_INSURE_PUREBUY];			// 기관(보험) 순매수량

  00538	a1 50 0d 00 00	 mov	 eax, DWORD PTR ?m_szMetaTexts@CMetaTable@@2PAPBDA+3408
  0053d	89 86 84 02 00
	00		 mov	 DWORD PTR [esi+644], eax

; 269  : 	m_szIndicatorNames[ IMetaTable::EDDC_ORGAN_INVESTMENT_PUREBUYACCUM]	= m_szMetaTexts[ IMetaTable::C2_ORGAN_INVESTMENT_PUREBUYACCUM];	// 기관(투신) 순매수누적

  00543	a1 54 0d 00 00	 mov	 eax, DWORD PTR ?m_szMetaTexts@CMetaTable@@2PAPBDA+3412
  00548	89 86 88 02 00
	00		 mov	 DWORD PTR [esi+648], eax

; 270  : 	m_szIndicatorNames[ IMetaTable::EDDC_ORGAN_INVESTMENT_PUREBUY]		= m_szMetaTexts[ IMetaTable::C2_ORGAN_INVESTMENT_PUREBUY];		// 기관(투신) 순매수량

  0054e	a1 58 0d 00 00	 mov	 eax, DWORD PTR ?m_szMetaTexts@CMetaTable@@2PAPBDA+3416
  00553	89 86 8c 02 00
	00		 mov	 DWORD PTR [esi+652], eax

; 271  : 	m_szIndicatorNames[ IMetaTable::EDDC_ORGAN_PRIVATEEQUITY_PUREBUYACCUM]	= m_szMetaTexts[ IMetaTable::C2_ORGAN_PRIVATEEQUITY_PUREBUYACCUM];	// 기관(사모) 순매수누적

  00559	a1 7c 0d 00 00	 mov	 eax, DWORD PTR ?m_szMetaTexts@CMetaTable@@2PAPBDA+3452
  0055e	89 86 90 02 00
	00		 mov	 DWORD PTR [esi+656], eax

; 272  : 	m_szIndicatorNames[ IMetaTable::EDDC_ORGAN_PRIVATEEQUITY_PUREBUY]	= m_szMetaTexts[ IMetaTable::C2_ORGAN_PRIVATEEQUITY_PUREBUY];	// 기관(사모) 순매수량

  00564	a1 80 0d 00 00	 mov	 eax, DWORD PTR ?m_szMetaTexts@CMetaTable@@2PAPBDA+3456
  00569	89 86 94 02 00
	00		 mov	 DWORD PTR [esi+660], eax

; 273  : 	m_szIndicatorNames[ IMetaTable::EDDC_ORGAN_BANK_PUREBUYACCUM]		= m_szMetaTexts[ IMetaTable::C2_ORGAN_BANK_PUREBUYACCUM];		// 기관(은행) 순매수누적

  0056f	a1 5c 0d 00 00	 mov	 eax, DWORD PTR ?m_szMetaTexts@CMetaTable@@2PAPBDA+3420
  00574	89 86 98 02 00
	00		 mov	 DWORD PTR [esi+664], eax

; 274  : 	m_szIndicatorNames[ IMetaTable::EDDC_ORGAN_BANK_PUREBUY]			= m_szMetaTexts[ IMetaTable::C2_ORGAN_BANK_PUREBUY];			// 기관(은행) 순매수량
; 275  : 	m_szIndicatorNames[ IMetaTable::EDDC_ORGAN_ETCFINANCE_PUREBUYACCUM]	= m_szMetaTexts[ IMetaTable::C2_ORGAN_ETCFINANCE_PUREBUYACCUM];	// 기관(기타금융) 순매수누적
; 276  : 	m_szIndicatorNames[ IMetaTable::EDDC_ORGAN_ETCFINANCE_PUREBUY]	= m_szMetaTexts[ IMetaTable::C2_ORGAN_ETCFINANCE_PUREBUY];	// 기관(기타금융) 순매수량
; 277  : 	m_szIndicatorNames[ IMetaTable::EDDC_ORGAN_PENSIONFUND_PUREBUYACCUM]	= m_szMetaTexts[ IMetaTable::C2_ORGAN_PENSIONFUND_PUREBUYACCUM];	// 기관(연기금) 순매수누적
; 278  : 	m_szIndicatorNames[ IMetaTable::EDDC_ORGAN_PENSIONFUND_PUREBUY]		= m_szMetaTexts[ IMetaTable::C2_ORGAN_PENSIONFUND_PUREBUY];		// 기관(연기금) 순매수량
; 279  : 	m_szIndicatorNames[ IMetaTable::EDDC_ORGAN_COUNTRY_PUREBUYACCUM]	= m_szMetaTexts[ IMetaTable::C2_ORGAN_COUNTRY_PUREBUYACCUM];	// 기관(국가) 순매수누적
; 280  : 	m_szIndicatorNames[ IMetaTable::EDDC_ORGAN_COUNTRY_PUREBUY]			= m_szMetaTexts[ IMetaTable::C2_ORGAN_COUNTRY_PUREBUY];			// 기관(국가) 순매수량
; 281  : 	m_szIndicatorNames[ IMetaTable::EDDC_ORGAN_ETCCORP_PUREBUYACCUM]	= m_szMetaTexts[ IMetaTable::C2_ORGAN_ETCCORP_PUREBUYACCUM];	// 기관(기타법인) 순매수누적
; 282  : 	m_szIndicatorNames[ IMetaTable::EDDC_ORGAN_ETCCORP_PUREBUY]		= m_szMetaTexts[ IMetaTable::C2_ORGAN_ETCCORP_PUREBUY];		// 기관(기타법인) 순매수량
; 283  : 	
; 284  : 	m_szIndicatorNames[ IMetaTable::EDDC_ADL]		= m_szMetaTexts[ IMetaTable::C0_ADL];						// 업종시장지표 ADL
; 285  : 	m_szIndicatorNames[ IMetaTable::EDDC_ADR]		= m_szMetaTexts[ IMetaTable::C2_ADR];					// 업종시장지표 ADR
; 286  : 
; 287  : 	m_szIndicatorNames[ IMetaTable::EDDC_ORGAN_CREDIT_BALANCE_RATE]			= m_szMetaTexts[ IMetaTable::C2_ORGAN__CREDIT_BALANCE_RATE];		// 신용잔고율
; 288  : 	m_szIndicatorNames[ IMetaTable::EDDC_ORGAN_CREDIT_GIVING_RATE]			= m_szMetaTexts[ IMetaTable::C2_ORGAN__CREDIT_GIVING_RATE];			// 신용공여율
; 289  : 	m_szIndicatorNames[ IMetaTable::EDDC_ORGAN_CREDIT_BALANCE_QTY]			= m_szMetaTexts[ IMetaTable::C2_ORGAN__CREDIT_BALANCE_QTY];			// 신용잔고수량
; 290  : 	m_szIndicatorNames[ IMetaTable::EDDC_ORGAN_CREDIT_BALANCE_VARIATION]	= m_szMetaTexts[ IMetaTable::C2_ORGAN__CREDIT_BALANCE_VARIATION];	// 신용잔고증감
; 291  : 
; 292  : 	m_szIndicatorNames[ IMetaTable::EDDC_FOREIGN_ORGAN_PUREBUY]				= m_szMetaTexts[ IMetaTable::C2_FOREIGN_ORGAN_PUREBUY];				// 외국인+기관 순매수
; 293  : 	m_szIndicatorNames[ IMetaTable::EDDC_FOREIGN_ORGAN_PUREBUYACCUM]		= m_szMetaTexts[ IMetaTable::C2_FOREIGN_ORGAN_PUREBUYACCUM];		// 외국인+기관 순매수누적
; 294  : 
; 295  : 	m_mapIndicatorID.InitHashTable( int( IMetaTable::EDDC_INDICATOR_COUNT * 1.5));

  0057a	8d 5e 2c	 lea	 ebx, DWORD PTR [esi+44]
  0057d	a1 60 0d 00 00	 mov	 eax, DWORD PTR ?m_szMetaTexts@CMetaTable@@2PAPBDA+3424
  00582	8b cb		 mov	 ecx, ebx
  00584	89 86 9c 02 00
	00		 mov	 DWORD PTR [esi+668], eax
  0058a	a1 64 0d 00 00	 mov	 eax, DWORD PTR ?m_szMetaTexts@CMetaTable@@2PAPBDA+3428
  0058f	89 86 a0 02 00
	00		 mov	 DWORD PTR [esi+672], eax
  00595	a1 68 0d 00 00	 mov	 eax, DWORD PTR ?m_szMetaTexts@CMetaTable@@2PAPBDA+3432
  0059a	89 86 a4 02 00
	00		 mov	 DWORD PTR [esi+676], eax
  005a0	a1 6c 0d 00 00	 mov	 eax, DWORD PTR ?m_szMetaTexts@CMetaTable@@2PAPBDA+3436
  005a5	89 86 a8 02 00
	00		 mov	 DWORD PTR [esi+680], eax
  005ab	a1 70 0d 00 00	 mov	 eax, DWORD PTR ?m_szMetaTexts@CMetaTable@@2PAPBDA+3440
  005b0	89 86 ac 02 00
	00		 mov	 DWORD PTR [esi+684], eax
  005b6	a1 84 0d 00 00	 mov	 eax, DWORD PTR ?m_szMetaTexts@CMetaTable@@2PAPBDA+3460
  005bb	89 86 b0 02 00
	00		 mov	 DWORD PTR [esi+688], eax
  005c1	a1 88 0d 00 00	 mov	 eax, DWORD PTR ?m_szMetaTexts@CMetaTable@@2PAPBDA+3464
  005c6	89 86 b4 02 00
	00		 mov	 DWORD PTR [esi+692], eax
  005cc	a1 74 0d 00 00	 mov	 eax, DWORD PTR ?m_szMetaTexts@CMetaTable@@2PAPBDA+3444
  005d1	89 86 b8 02 00
	00		 mov	 DWORD PTR [esi+696], eax
  005d7	a1 78 0d 00 00	 mov	 eax, DWORD PTR ?m_szMetaTexts@CMetaTable@@2PAPBDA+3448
  005dc	89 86 bc 02 00
	00		 mov	 DWORD PTR [esi+700], eax
  005e2	a1 3c 00 00 00	 mov	 eax, DWORD PTR ?m_szMetaTexts@CMetaTable@@2PAPBDA+60
  005e7	89 86 c0 02 00
	00		 mov	 DWORD PTR [esi+704], eax
  005ed	a1 cc 0c 00 00	 mov	 eax, DWORD PTR ?m_szMetaTexts@CMetaTable@@2PAPBDA+3276
  005f2	89 86 c4 02 00
	00		 mov	 DWORD PTR [esi+708], eax
  005f8	a1 8c 0d 00 00	 mov	 eax, DWORD PTR ?m_szMetaTexts@CMetaTable@@2PAPBDA+3468
  005fd	89 86 c8 02 00
	00		 mov	 DWORD PTR [esi+712], eax
  00603	a1 90 0d 00 00	 mov	 eax, DWORD PTR ?m_szMetaTexts@CMetaTable@@2PAPBDA+3472
  00608	89 86 cc 02 00
	00		 mov	 DWORD PTR [esi+716], eax
  0060e	a1 94 0d 00 00	 mov	 eax, DWORD PTR ?m_szMetaTexts@CMetaTable@@2PAPBDA+3476
  00613	89 86 d0 02 00
	00		 mov	 DWORD PTR [esi+720], eax
  00619	a1 98 0d 00 00	 mov	 eax, DWORD PTR ?m_szMetaTexts@CMetaTable@@2PAPBDA+3480
  0061e	89 86 d4 02 00
	00		 mov	 DWORD PTR [esi+724], eax
  00624	a1 9c 0d 00 00	 mov	 eax, DWORD PTR ?m_szMetaTexts@CMetaTable@@2PAPBDA+3484
  00629	89 86 d8 02 00
	00		 mov	 DWORD PTR [esi+728], eax
  0062f	a1 a0 0d 00 00	 mov	 eax, DWORD PTR ?m_szMetaTexts@CMetaTable@@2PAPBDA+3488
  00634	6a 01		 push	 1
  00636	68 f9 00 00 00	 push	 249			; 000000f9H
  0063b	89 86 dc 02 00
	00		 mov	 DWORD PTR [esi+732], eax
  00641	e8 00 00 00 00	 call	 ?InitHashTable@CMapStringToPtr@@QAEXIH@Z ; CMapStringToPtr::InitHashTable

; 296  : 	for( int i = 0; i < IMetaTable::EDDC_INDICATOR_COUNT; i++) 

  00646	33 f6		 xor	 esi, esi
  00648	0f 1f 84 00 00
	00 00 00	 npad	 8
$LL6@LoadMetaTa:
; File C:\Program Files (x86)\Microsoft Visual Studio\2019\Community\VC\Tools\MSVC\14.29.30133\atlmfc\include\afxcoll.inl

; 628  : 	{ (*this)[key] = newValue; }

  00650	ff 37		 push	 DWORD PTR [edi]
  00652	8b cb		 mov	 ecx, ebx
  00654	e8 00 00 00 00	 call	 ??ACMapStringToPtr@@QAEAAPAXPBD@Z ; CMapStringToPtr::operator[]
; File D:\git\src\IBK\IBK_DRFN\ProjSrc\SrcChartEx\ChartOCX\Include_Chart\MapStringToWord.h

; 18   : 			{	CMapStringToPtr::SetAt( key, ( void *)p_wWord);	}

  00659	0f b7 ce	 movzx	 ecx, si
; File D:\git\src\IBK\IBK_DRFN\ProjSrc\SrcChartEx\ChartOCX\ChartLanguageTable\MetaTable.cpp

; 296  : 	for( int i = 0; i < IMetaTable::EDDC_INDICATOR_COUNT; i++) 

  0065c	8d 7f 04	 lea	 edi, DWORD PTR [edi+4]
  0065f	46		 inc	 esi
; File C:\Program Files (x86)\Microsoft Visual Studio\2019\Community\VC\Tools\MSVC\14.29.30133\atlmfc\include\afxcoll.inl

; 628  : 	{ (*this)[key] = newValue; }

  00660	89 08		 mov	 DWORD PTR [eax], ecx
; File D:\git\src\IBK\IBK_DRFN\ProjSrc\SrcChartEx\ChartOCX\ChartLanguageTable\MetaTable.cpp

; 296  : 	for( int i = 0; i < IMetaTable::EDDC_INDICATOR_COUNT; i++) 

  00662	81 fe a6 00 00
	00		 cmp	 esi, 166		; 000000a6H
  00668	7c e6		 jl	 SHORT $LL6@LoadMetaTa
$LN5@LoadMetaTa:

; 297  : 		m_mapIndicatorID.SetAt( m_szIndicatorNames[ i], i);
; 298  : }

  0066a	8b 4d f4	 mov	 ecx, DWORD PTR __$EHRec$[ebp]
  0066d	64 89 0d 00 00
	00 00		 mov	 DWORD PTR fs:0, ecx
  00674	59		 pop	 ecx
  00675	5f		 pop	 edi
  00676	5e		 pop	 esi
  00677	5b		 pop	 ebx
  00678	8b e5		 mov	 esp, ebp
  0067a	5d		 pop	 ebp
  0067b	c2 08 00	 ret	 8
_TEXT	ENDS
;	COMDAT text$x
text$x	SEGMENT
__unwindfunclet$?LoadMetaTable@CMetaTable@@QAEXPBD0@Z$0:
  00000	8d 4d e8	 lea	 ecx, DWORD PTR $T2[ebp]
  00003	ff 25 00 00 00
	00		 jmp	 DWORD PTR __imp_??1?$CStringT@DV?$StrTraitMFC_DLL@DV?$ChTraitsCRT@D@ATL@@@@@ATL@@QAE@XZ
__unwindfunclet$?LoadMetaTable@CMetaTable@@QAEXPBD0@Z$3:
  00009	8b 45 ec	 mov	 eax, DWORD PTR $T3[ebp]
  0000c	83 e0 01	 and	 eax, 1
  0000f	0f 84 0d 00 00
	00		 je	 $LN23@LoadMetaTa
  00015	83 65 ec fe	 and	 DWORD PTR $T3[ebp], -2	; fffffffeH
  00019	8d 4d f0	 lea	 ecx, DWORD PTR $T5[ebp]
  0001c	ff 25 00 00 00
	00		 jmp	 DWORD PTR __imp_??1?$CStringT@DV?$StrTraitMFC_DLL@DV?$ChTraitsCRT@D@ATL@@@@@ATL@@QAE@XZ
$LN23@LoadMetaTa:
  00022	c3		 ret	 0
__unwindfunclet$?LoadMetaTable@CMetaTable@@QAEXPBD0@Z$2:
  00023	68 94 00 00 00	 push	 148			; 00000094H
  00028	8b 45 ec	 mov	 eax, DWORD PTR $T4[ebp]
  0002b	50		 push	 eax
  0002c	e8 00 00 00 00	 call	 ??3@YAXPAXI@Z		; operator delete
  00031	83 c4 08	 add	 esp, 8
  00034	c3		 ret	 0
  00035	cc		 int	 3
  00036	cc		 int	 3
  00037	cc		 int	 3
  00038	cc		 int	 3
  00039	cc		 int	 3
__ehhandler$?LoadMetaTable@CMetaTable@@QAEXPBD0@Z:
  0003a	90		 npad	 1
  0003b	90		 npad	 1
  0003c	8b 54 24 08	 mov	 edx, DWORD PTR [esp+8]
  00040	8d 42 0c	 lea	 eax, DWORD PTR [edx+12]
  00043	8b 4a e4	 mov	 ecx, DWORD PTR [edx-28]
  00046	33 c8		 xor	 ecx, eax
  00048	e8 00 00 00 00	 call	 @__security_check_cookie@4
  0004d	b8 00 00 00 00	 mov	 eax, OFFSET __ehfuncinfo$?LoadMetaTable@CMetaTable@@QAEXPBD0@Z
  00052	e9 00 00 00 00	 jmp	 ___CxxFrameHandler3
text$x	ENDS
?LoadMetaTable@CMetaTable@@QAEXPBD0@Z ENDP		; CMetaTable::LoadMetaTable
; Function compile flags: /Ogtp
; File D:\git\src\IBK\IBK_DRFN\ProjSrc\SrcChartEx\ChartOCX\ChartLanguageTable\MetaTable.cpp
;	COMDAT ??1CMetaTable@@UAE@XZ
_TEXT	SEGMENT
??1CMetaTable@@UAE@XZ PROC				; CMetaTable::~CMetaTable, COMDAT
; _this$ = ecx

; 35   : {

  00000	53		 push	 ebx
  00001	8b d9		 mov	 ebx, ecx
  00003	56		 push	 esi
  00004	57		 push	 edi
  00005	bf 09 00 00 00	 mov	 edi, 9
  0000a	c7 03 00 00 00
	00		 mov	 DWORD PTR [ebx], OFFSET ??_7CMetaTable@@6B@
  00010	8d 73 08	 lea	 esi, DWORD PTR [ebx+8]
$LL4@CMetaTable:

; 37   : 		if( m_pCodePage[ i]) delete m_pCodePage[ i];

  00013	8b 0e		 mov	 ecx, DWORD PTR [esi]
  00015	85 c9		 test	 ecx, ecx
  00017	74 06		 je	 SHORT $LN2@CMetaTable
  00019	8b 01		 mov	 eax, DWORD PTR [ecx]
  0001b	6a 01		 push	 1
  0001d	ff 10		 call	 DWORD PTR [eax]
$LN2@CMetaTable:

; 36   : 	for( int i = IMetaTable::PACKET_NAME; i < IMetaTable::CODE_PAGE_END; i++)

  0001f	83 c6 04	 add	 esi, 4
  00022	83 ef 01	 sub	 edi, 1
  00025	75 ec		 jne	 SHORT $LL4@CMetaTable

; 38   : }

  00027	8d 4b 2c	 lea	 ecx, DWORD PTR [ebx+44]
  0002a	e8 00 00 00 00	 call	 ??1CMapStringToPtr@@UAE@XZ ; CMapStringToPtr::~CMapStringToPtr
  0002f	5f		 pop	 edi
  00030	5e		 pop	 esi
  00031	8d 4b 04	 lea	 ecx, DWORD PTR [ebx+4]
  00034	5b		 pop	 ebx
  00035	ff 25 00 00 00
	00		 jmp	 DWORD PTR __imp_??1?$CStringT@DV?$StrTraitMFC_DLL@DV?$ChTraitsCRT@D@ATL@@@@@ATL@@QAE@XZ
??1CMetaTable@@UAE@XZ ENDP				; CMetaTable::~CMetaTable
_TEXT	ENDS
; Function compile flags: /Ogtp
; File D:\git\src\IBK\IBK_DRFN\ProjSrc\SrcChartEx\ChartOCX\ChartLanguageTable\MetaTable.cpp
;	COMDAT ??0CMetaTable@@QAE@XZ
_TEXT	SEGMENT
_this$ = -20						; size = 4
_this$ = -16						; size = 4
__$EHRec$ = -12						; size = 12
??0CMetaTable@@QAE@XZ PROC				; CMetaTable::CMetaTable, COMDAT
; _this$ = ecx

; 28   : {

  00000	55		 push	 ebp
  00001	8b ec		 mov	 ebp, esp
  00003	6a ff		 push	 -1
  00005	68 00 00 00 00	 push	 __ehhandler$??0CMetaTable@@QAE@XZ
  0000a	64 a1 00 00 00
	00		 mov	 eax, DWORD PTR fs:0
  00010	50		 push	 eax
  00011	83 ec 08	 sub	 esp, 8
  00014	53		 push	 ebx
  00015	56		 push	 esi
  00016	57		 push	 edi
  00017	a1 00 00 00 00	 mov	 eax, DWORD PTR ___security_cookie
  0001c	33 c5		 xor	 eax, ebp
  0001e	50		 push	 eax
  0001f	8d 45 f4	 lea	 eax, DWORD PTR __$EHRec$[ebp]
  00022	64 a3 00 00 00
	00		 mov	 DWORD PTR fs:0, eax
  00028	8b d9		 mov	 ebx, ecx
  0002a	89 5d f0	 mov	 DWORD PTR _this$[ebp], ebx
  0002d	8d 4b 04	 lea	 ecx, DWORD PTR [ebx+4]
  00030	c7 03 00 00 00
	00		 mov	 DWORD PTR [ebx], OFFSET ??_7CMetaTable@@6B@
  00036	ff 15 00 00 00
	00		 call	 DWORD PTR __imp_??0?$CStringT@DV?$StrTraitMFC_DLL@DV?$ChTraitsCRT@D@ATL@@@@@ATL@@QAE@XZ
  0003c	8d 73 2c	 lea	 esi, DWORD PTR [ebx+44]
  0003f	c7 45 fc 00 00
	00 00		 mov	 DWORD PTR __$EHRec$[ebp+8], 0
  00046	6a 0a		 push	 10			; 0000000aH
  00048	8b ce		 mov	 ecx, esi
  0004a	89 75 ec	 mov	 DWORD PTR _this$[ebp], esi
  0004d	e8 00 00 00 00	 call	 ??0CMapStringToPtr@@QAE@H@Z ; CMapStringToPtr::CMapStringToPtr
  00052	c7 06 00 00 00
	00		 mov	 DWORD PTR [esi], OFFSET ??_7CMapStringToWord@@6B@

; 29   : 	for( int i = IMetaTable::PACKET_NAME; i < IMetaTable::CODE_PAGE_END; i++) m_pCodePage[ i] = NULL;
; 30   : 	for( int i = IMetaTable::C0_DATE_TIME; i < IMetaTable::META_CODE_END; i++) m_szMetaTexts[ i] = m_szNullString;

  00058	b9 e8 03 00 00	 mov	 ecx, 1000		; 000003e8H
  0005d	c7 43 08 00 00
	00 00		 mov	 DWORD PTR [ebx+8], 0
  00064	bf 00 00 00 00	 mov	 edi, OFFSET ?m_szMetaTexts@CMetaTable@@2PAPBDA ; CMetaTable::m_szMetaTexts
  00069	c7 43 0c 00 00
	00 00		 mov	 DWORD PTR [ebx+12], 0
  00070	c7 43 10 00 00
	00 00		 mov	 DWORD PTR [ebx+16], 0
  00077	c7 43 14 00 00
	00 00		 mov	 DWORD PTR [ebx+20], 0
  0007e	c7 43 18 00 00
	00 00		 mov	 DWORD PTR [ebx+24], 0
  00085	c7 43 1c 00 00
	00 00		 mov	 DWORD PTR [ebx+28], 0
  0008c	c7 43 20 00 00
	00 00		 mov	 DWORD PTR [ebx+32], 0
  00093	c7 43 24 00 00
	00 00		 mov	 DWORD PTR [ebx+36], 0
  0009a	c7 43 28 00 00
	00 00		 mov	 DWORD PTR [ebx+40], 0
  000a1	8b 15 00 00 00
	00		 mov	 edx, DWORD PTR ?m_szNullString@CMetaTable@@2PBDB ; CMetaTable::m_szNullString
  000a7	8b c2		 mov	 eax, edx
  000a9	f3 ab		 rep stosd
  000ab	8d 43 48	 lea	 eax, DWORD PTR [ebx+72]
  000ae	b9 a6 00 00 00	 mov	 ecx, 166		; 000000a6H
$LL10@CMetaTable:

; 31   : 	for( int i = IMetaTable::EDDC_PRICECHART; i < IMetaTable::EDDC_INDICATOR_COUNT; i++) m_szIndicatorNames[ i] = m_szNullString;

  000b3	89 10		 mov	 DWORD PTR [eax], edx
  000b5	8d 40 04	 lea	 eax, DWORD PTR [eax+4]
  000b8	83 e9 01	 sub	 ecx, 1
  000bb	74 08		 je	 SHORT $LN41@CMetaTable
  000bd	8b 15 00 00 00
	00		 mov	 edx, DWORD PTR ?m_szNullString@CMetaTable@@2PBDB ; CMetaTable::m_szNullString
  000c3	eb ee		 jmp	 SHORT $LL10@CMetaTable
$LN41@CMetaTable:

; 32   : }

  000c5	8b c3		 mov	 eax, ebx
  000c7	8b 4d f4	 mov	 ecx, DWORD PTR __$EHRec$[ebp]
  000ca	64 89 0d 00 00
	00 00		 mov	 DWORD PTR fs:0, ecx
  000d1	59		 pop	 ecx
  000d2	5f		 pop	 edi
  000d3	5e		 pop	 esi
  000d4	5b		 pop	 ebx
  000d5	8b e5		 mov	 esp, ebp
  000d7	5d		 pop	 ebp
  000d8	c3		 ret	 0
_TEXT	ENDS
;	COMDAT text$x
text$x	SEGMENT
__unwindfunclet$??0CMetaTable@@QAE@XZ$0:
  00000	8b 4d f0	 mov	 ecx, DWORD PTR _this$[ebp]
  00003	83 c1 04	 add	 ecx, 4
  00006	ff 25 00 00 00
	00		 jmp	 DWORD PTR __imp_??1?$CStringT@DV?$StrTraitMFC_DLL@DV?$ChTraitsCRT@D@ATL@@@@@ATL@@QAE@XZ
  0000c	cc		 int	 3
  0000d	cc		 int	 3
  0000e	cc		 int	 3
  0000f	cc		 int	 3
  00010	cc		 int	 3
__ehhandler$??0CMetaTable@@QAE@XZ:
  00011	90		 npad	 1
  00012	90		 npad	 1
  00013	8b 54 24 08	 mov	 edx, DWORD PTR [esp+8]
  00017	8d 42 0c	 lea	 eax, DWORD PTR [edx+12]
  0001a	8b 4a e8	 mov	 ecx, DWORD PTR [edx-24]
  0001d	33 c8		 xor	 ecx, eax
  0001f	e8 00 00 00 00	 call	 @__security_check_cookie@4
  00024	b8 00 00 00 00	 mov	 eax, OFFSET __ehfuncinfo$??0CMetaTable@@QAE@XZ
  00029	e9 00 00 00 00	 jmp	 ___CxxFrameHandler3
text$x	ENDS
??0CMetaTable@@QAE@XZ ENDP				; CMetaTable::CMetaTable
; Function compile flags: /Ogtp
; File C:\Program Files (x86)\Microsoft Visual Studio\2019\Community\VC\Tools\MSVC\14.29.30133\atlmfc\include\afx.inl
;	COMDAT ??_GCMapStringToWord@@UAEPAXI@Z
_TEXT	SEGMENT
___flags$ = 8						; size = 4
??_GCMapStringToWord@@UAEPAXI@Z PROC			; CMapStringToWord::`scalar deleting destructor', COMDAT
; _this$ = ecx
  00000	55		 push	 ebp
  00001	8b ec		 mov	 ebp, esp
  00003	56		 push	 esi
  00004	8b f1		 mov	 esi, ecx
  00006	e8 00 00 00 00	 call	 ??1CMapStringToPtr@@UAE@XZ ; CMapStringToPtr::~CMapStringToPtr
  0000b	8b 45 08	 mov	 eax, DWORD PTR ___flags$[ebp]
  0000e	a8 01		 test	 al, 1
  00010	74 1f		 je	 SHORT $LN12@scalar
  00012	a8 04		 test	 al, 4
  00014	75 10		 jne	 SHORT $LN3@scalar

; 112  : 	{ ::operator delete(p); }

  00016	56		 push	 esi
  00017	e8 00 00 00 00	 call	 ??3@YAXPAX@Z		; operator delete
  0001c	83 c4 04	 add	 esp, 4
  0001f	8b c6		 mov	 eax, esi
  00021	5e		 pop	 esi
  00022	5d		 pop	 ebp
  00023	c2 04 00	 ret	 4
$LN3@scalar:
  00026	6a 1c		 push	 28			; 0000001cH
  00028	56		 push	 esi
  00029	e8 00 00 00 00	 call	 ?__global_delete@@YAXPAXI@Z ; __global_delete
  0002e	83 c4 08	 add	 esp, 8
$LN12@scalar:
  00031	8b c6		 mov	 eax, esi
  00033	5e		 pop	 esi
  00034	5d		 pop	 ebp
  00035	c2 04 00	 ret	 4
??_GCMapStringToWord@@UAEPAXI@Z ENDP			; CMapStringToWord::`scalar deleting destructor'
_TEXT	ENDS
; Function compile flags: /Ogtp
; File C:\Program Files (x86)\Microsoft Visual Studio\2019\Community\VC\Tools\MSVC\14.29.30133\atlmfc\include\afx.inl
;	COMDAT ?Dump@CObject@@UBEXAAVCDumpContext@@@Z
_TEXT	SEGMENT
___formal$ = 8						; size = 4
?Dump@CObject@@UBEXAAVCDumpContext@@@Z PROC		; CObject::Dump, COMDAT
; _this$ = ecx

; 122  : 	{ /* no dumping in release builds */ }

  00000	c2 04 00	 ret	 4
?Dump@CObject@@UBEXAAVCDumpContext@@@Z ENDP		; CObject::Dump
_TEXT	ENDS
; Function compile flags: /Ogtp
; File C:\Program Files (x86)\Microsoft Visual Studio\2019\Community\VC\Tools\MSVC\14.29.30133\atlmfc\include\afx.inl
;	COMDAT ?AssertValid@CObject@@UBEXXZ
_TEXT	SEGMENT
?AssertValid@CObject@@UBEXXZ PROC			; CObject::AssertValid, COMDAT
; _this$ = ecx

; 120  : 	{ /* no asserts in release builds */ }

  00000	c2 00 00	 ret	 0
?AssertValid@CObject@@UBEXXZ ENDP			; CObject::AssertValid
_TEXT	ENDS
; Function compile flags: /Ogtp
; File C:\Program Files (x86)\Microsoft Visual Studio\2019\Community\VC\Tools\MSVC\14.29.30133\atlmfc\include\afx.inl
;	COMDAT ?Serialize@CObject@@UAEXAAVCArchive@@@Z
_TEXT	SEGMENT
___formal$ = 8						; size = 4
?Serialize@CObject@@UAEXAAVCArchive@@@Z PROC		; CObject::Serialize, COMDAT
; _this$ = ecx

; 106  : 	{ /* CObject does not serialize anything by default */ }

  00000	c2 04 00	 ret	 4
?Serialize@CObject@@UAEXAAVCArchive@@@Z ENDP		; CObject::Serialize
_TEXT	ENDS
; Function compile flags: /Ogtp
; File C:\Program Files (x86)\Microsoft Visual Studio\2019\Community\VC\Tools\MSVC\14.29.30133\atlmfc\include\afx.inl
;	COMDAT ??1CObject@@UAE@XZ
_TEXT	SEGMENT
??1CObject@@UAE@XZ PROC					; CObject::~CObject, COMDAT
; _this$ = ecx

; 104  : 	{ }

  00000	c2 00 00	 ret	 0
??1CObject@@UAE@XZ ENDP					; CObject::~CObject
_TEXT	ENDS
; Function compile flags: /Ogtp
; File D:\git\src\IBK\IBK_DRFN\ProjSrc\SrcChartEx\ChartOCX\ChartLanguageTable\MetaTable.cpp
;	COMDAT ?__empty_global_delete@@YAXPAXI@Z
_TEXT	SEGMENT
___formal$ = 8						; size = 4
___formal$ = 12						; size = 4
?__empty_global_delete@@YAXPAXI@Z PROC			; __empty_global_delete, COMDAT

  00000	c2 00 00	 ret	 0
?__empty_global_delete@@YAXPAXI@Z ENDP			; __empty_global_delete
_TEXT	ENDS
; Function compile flags: /Ogtp
; File D:\git\src\IBK\IBK_DRFN\ProjSrc\SrcChartEx\ChartOCX\ChartLanguageTable\MetaTable.cpp
;	COMDAT ?__empty_global_delete@@YAXPAX@Z
_TEXT	SEGMENT
___formal$ = 8						; size = 4
?__empty_global_delete@@YAXPAX@Z PROC			; __empty_global_delete, COMDAT

  00000	c2 00 00	 ret	 0
?__empty_global_delete@@YAXPAX@Z ENDP			; __empty_global_delete
_TEXT	ENDS
END
