; Listing generated by Microsoft (R) Optimizing Compiler Version 19.29.30145.0 

	TITLE	D:\git\src\IBK\IBK_DRFN\#DRfn-CS\_Obj\ChartLanguageTable\ResourceDllManager.obj
	.686P
	.XMM
	include listing.inc
	.model	flat

INCLUDELIB MSVCRT
INCLUDELIB OLDNAMES

PUBLIC	?m_szLanguageIDs@CResourceDllManager@@1PAPADA	; CResourceDllManager::m_szLanguageIDs
PUBLIC	??_C@_03LHENPBOE@ENG@				; `string'
PUBLIC	??_C@_03GBOFAKPE@KOR@				; `string'
;	COMDAT ??_C@_03GBOFAKPE@KOR@
CONST	SEGMENT
??_C@_03GBOFAKPE@KOR@ DB 'KOR', 00H			; `string'
CONST	ENDS
;	COMDAT ??_C@_03LHENPBOE@ENG@
CONST	SEGMENT
??_C@_03LHENPBOE@ENG@ DB 'ENG', 00H			; `string'
CONST	ENDS
_DATA	SEGMENT
?m_szLanguageIDs@CResourceDllManager@@1PAPADA DD FLAT:??_C@_03LHENPBOE@ENG@ ; CResourceDllManager::m_szLanguageIDs
	DD	FLAT:??_C@_03GBOFAKPE@KOR@
_DATA	ENDS
PUBLIC	?__empty_global_delete@@YAXPAX@Z		; __empty_global_delete
PUBLIC	?__empty_global_delete@@YAXPAXI@Z		; __empty_global_delete
PUBLIC	?Serialize@CObject@@UAEXAAVCArchive@@@Z		; CObject::Serialize
PUBLIC	?AssertValid@CObject@@UBEXXZ			; CObject::AssertValid
PUBLIC	?Dump@CObject@@UBEXAAVCDumpContext@@@Z		; CObject::Dump
PUBLIC	??0CResourceDllManager@@QAE@XZ			; CResourceDllManager::CResourceDllManager
PUBLIC	??1CResourceDllManager@@UAE@XZ			; CResourceDllManager::~CResourceDllManager
PUBLIC	??_G?$CTypedPtrMap@VCMapStringToPtr@@V?$CStringT@DV?$StrTraitMFC_DLL@DV?$ChTraitsCRT@D@ATL@@@@@ATL@@PAY01PAUHINSTANCE__@@@@UAEPAXI@Z ; CTypedPtrMap<CMapStringToPtr,ATL::CStringT<char,StrTraitMFC_DLL<char,ATL::ChTraitsCRT<char> > >,HINSTANCE__ * (*)[2]>::`scalar deleting destructor'
PUBLIC	?LoadResourceDLL@CResourceDllManager@@QAEPAUHINSTANCE__@@PAU2@W4E_LANGUAGEID@IMetaTable@@@Z ; CResourceDllManager::LoadResourceDLL
PUBLIC	?UnloadResourceDLL@CResourceDllManager@@QAEXXZ	; CResourceDllManager::UnloadResourceDLL
PUBLIC	??_GCResourceDllManager@@UAEPAXI@Z		; CResourceDllManager::`scalar deleting destructor'
PUBLIC	??_R0?AVCObject@@@8				; CObject `RTTI Type Descriptor'
PUBLIC	??_R3CObject@@8					; CObject::`RTTI Class Hierarchy Descriptor'
PUBLIC	??_R2CObject@@8					; CObject::`RTTI Base Class Array'
PUBLIC	??_R1A@?0A@EA@CObject@@8			; CObject::`RTTI Base Class Descriptor at (0,-1,0,64)'
PUBLIC	??_7?$CTypedPtrMap@VCMapStringToPtr@@V?$CStringT@DV?$StrTraitMFC_DLL@DV?$ChTraitsCRT@D@ATL@@@@@ATL@@PAY01PAUHINSTANCE__@@@@6B@ ; CTypedPtrMap<CMapStringToPtr,ATL::CStringT<char,StrTraitMFC_DLL<char,ATL::ChTraitsCRT<char> > >,HINSTANCE__ * (*)[2]>::`vftable'
PUBLIC	??_7CResourceDllManager@@6B@			; CResourceDllManager::`vftable'
PUBLIC	??_C@_07NOAGBNEL@LNG_RES@			; `string'
PUBLIC	??_C@_03PHEEJDBI@CHT@				; `string'
PUBLIC	??_R4CResourceDllManager@@6B@			; CResourceDllManager::`RTTI Complete Object Locator'
PUBLIC	??_R0?AVCResourceDllManager@@@8			; CResourceDllManager `RTTI Type Descriptor'
PUBLIC	??_R3CResourceDllManager@@8			; CResourceDllManager::`RTTI Class Hierarchy Descriptor'
PUBLIC	??_R2CResourceDllManager@@8			; CResourceDllManager::`RTTI Base Class Array'
PUBLIC	??_R1A@?0A@EA@CResourceDllManager@@8		; CResourceDllManager::`RTTI Base Class Descriptor at (0,-1,0,64)'
PUBLIC	??_R4?$CTypedPtrMap@VCMapStringToPtr@@V?$CStringT@DV?$StrTraitMFC_DLL@DV?$ChTraitsCRT@D@ATL@@@@@ATL@@PAY01PAUHINSTANCE__@@@@6B@ ; CTypedPtrMap<CMapStringToPtr,ATL::CStringT<char,StrTraitMFC_DLL<char,ATL::ChTraitsCRT<char> > >,HINSTANCE__ * (*)[2]>::`RTTI Complete Object Locator'
PUBLIC	??_R0?AV?$CTypedPtrMap@VCMapStringToPtr@@V?$CStringT@DV?$StrTraitMFC_DLL@DV?$ChTraitsCRT@D@ATL@@@@@ATL@@PAY01PAUHINSTANCE__@@@@@8 ; CTypedPtrMap<CMapStringToPtr,ATL::CStringT<char,StrTraitMFC_DLL<char,ATL::ChTraitsCRT<char> > >,HINSTANCE__ * (*)[2]> `RTTI Type Descriptor'
PUBLIC	??_R3?$CTypedPtrMap@VCMapStringToPtr@@V?$CStringT@DV?$StrTraitMFC_DLL@DV?$ChTraitsCRT@D@ATL@@@@@ATL@@PAY01PAUHINSTANCE__@@@@8 ; CTypedPtrMap<CMapStringToPtr,ATL::CStringT<char,StrTraitMFC_DLL<char,ATL::ChTraitsCRT<char> > >,HINSTANCE__ * (*)[2]>::`RTTI Class Hierarchy Descriptor'
PUBLIC	??_R2?$CTypedPtrMap@VCMapStringToPtr@@V?$CStringT@DV?$StrTraitMFC_DLL@DV?$ChTraitsCRT@D@ATL@@@@@ATL@@PAY01PAUHINSTANCE__@@@@8 ; CTypedPtrMap<CMapStringToPtr,ATL::CStringT<char,StrTraitMFC_DLL<char,ATL::ChTraitsCRT<char> > >,HINSTANCE__ * (*)[2]>::`RTTI Base Class Array'
PUBLIC	??_R1A@?0A@EA@?$CTypedPtrMap@VCMapStringToPtr@@V?$CStringT@DV?$StrTraitMFC_DLL@DV?$ChTraitsCRT@D@ATL@@@@@ATL@@PAY01PAUHINSTANCE__@@@@8 ; CTypedPtrMap<CMapStringToPtr,ATL::CStringT<char,StrTraitMFC_DLL<char,ATL::ChTraitsCRT<char> > >,HINSTANCE__ * (*)[2]>::`RTTI Base Class Descriptor at (0,-1,0,64)'
PUBLIC	??_R1A@?0A@EA@CMapStringToPtr@@8		; CMapStringToPtr::`RTTI Base Class Descriptor at (0,-1,0,64)'
PUBLIC	??_R0?AVCMapStringToPtr@@@8			; CMapStringToPtr `RTTI Type Descriptor'
PUBLIC	??_R3CMapStringToPtr@@8				; CMapStringToPtr::`RTTI Class Hierarchy Descriptor'
PUBLIC	??_R2CMapStringToPtr@@8				; CMapStringToPtr::`RTTI Base Class Array'
EXTRN	??3@YAXPAX@Z:PROC				; operator delete
EXTRN	??3@YAXPAXI@Z:PROC				; operator delete
EXTRN	?__global_delete@@YAXPAXI@Z:PROC		; __global_delete
EXTRN	??_U@YAPAXI@Z:PROC				; operator new[]
EXTRN	??_V@YAXPAX@Z:PROC				; operator delete[]
EXTRN	__imp__CreateFileA@28:PROC
EXTRN	__imp__DeleteFileA@4:PROC
EXTRN	__imp__WriteFile@20:PROC
EXTRN	__imp__GetTempPathA@8:PROC
EXTRN	__imp__GetTempFileNameA@16:PROC
EXTRN	__imp__CloseHandle@4:PROC
EXTRN	__imp__GetLastError@0:PROC
EXTRN	__imp__FreeLibrary@4:PROC
EXTRN	__imp__GetModuleFileNameA@12:PROC
EXTRN	__imp__LoadResource@8:PROC
EXTRN	__imp__LockResource@4:PROC
EXTRN	__imp__SizeofResource@8:PROC
EXTRN	__imp__LoadLibraryA@4:PROC
EXTRN	__imp__FindResourceA@12:PROC
EXTRN	__imp_??0?$CStringT@DV?$StrTraitMFC_DLL@DV?$ChTraitsCRT@D@ATL@@@@@ATL@@QAE@XZ:PROC
EXTRN	__imp_??0?$CStringT@DV?$StrTraitMFC_DLL@DV?$ChTraitsCRT@D@ATL@@@@@ATL@@QAE@PBD@Z:PROC
EXTRN	__imp_??1?$CStringT@DV?$StrTraitMFC_DLL@DV?$ChTraitsCRT@D@ATL@@@@@ATL@@QAE@XZ:PROC
EXTRN	?GetRuntimeClass@CMapStringToPtr@@UBEPAUCRuntimeClass@@XZ:PROC ; CMapStringToPtr::GetRuntimeClass
EXTRN	??0CMapStringToPtr@@QAE@H@Z:PROC		; CMapStringToPtr::CMapStringToPtr
EXTRN	?Lookup@CMapStringToPtr@@QBEHPBDAAPAX@Z:PROC	; CMapStringToPtr::Lookup
EXTRN	??ACMapStringToPtr@@QAEAAPAXPBD@Z:PROC		; CMapStringToPtr::operator[]
EXTRN	?RemoveAll@CMapStringToPtr@@QAEXXZ:PROC		; CMapStringToPtr::RemoveAll
EXTRN	?GetNextAssoc@CMapStringToPtr@@QBEXAAPAU__POSITION@@AAV?$CStringT@DV?$StrTraitMFC_DLL@DV?$ChTraitsCRT@D@ATL@@@@@ATL@@AAPAX@Z:PROC ; CMapStringToPtr::GetNextAssoc
EXTRN	??1CMapStringToPtr@@UAE@XZ:PROC			; CMapStringToPtr::~CMapStringToPtr
EXTRN	??_E?$CTypedPtrMap@VCMapStringToPtr@@V?$CStringT@DV?$StrTraitMFC_DLL@DV?$ChTraitsCRT@D@ATL@@@@@ATL@@PAY01PAUHINSTANCE__@@@@UAEPAXI@Z:PROC ; CTypedPtrMap<CMapStringToPtr,ATL::CStringT<char,StrTraitMFC_DLL<char,ATL::ChTraitsCRT<char> > >,HINSTANCE__ * (*)[2]>::`vector deleting destructor'
EXTRN	??_ECResourceDllManager@@UAEPAXI@Z:PROC		; CResourceDllManager::`vector deleting destructor'
EXTRN	@__security_check_cookie@4:PROC
EXTRN	___CxxFrameHandler3:PROC
EXTRN	??_7type_info@@6B@:QWORD			; type_info::`vftable'
EXTRN	___security_cookie:DWORD
;	COMDAT ??_R2CMapStringToPtr@@8
rdata$r	SEGMENT
??_R2CMapStringToPtr@@8 DD FLAT:??_R1A@?0A@EA@CMapStringToPtr@@8 ; CMapStringToPtr::`RTTI Base Class Array'
	DD	FLAT:??_R1A@?0A@EA@CObject@@8
rdata$r	ENDS
;	COMDAT ??_R3CMapStringToPtr@@8
rdata$r	SEGMENT
??_R3CMapStringToPtr@@8 DD 00H				; CMapStringToPtr::`RTTI Class Hierarchy Descriptor'
	DD	00H
	DD	02H
	DD	FLAT:??_R2CMapStringToPtr@@8
rdata$r	ENDS
;	COMDAT ??_R0?AVCMapStringToPtr@@@8
data$rs	SEGMENT
??_R0?AVCMapStringToPtr@@@8 DD FLAT:??_7type_info@@6B@	; CMapStringToPtr `RTTI Type Descriptor'
	DD	00H
	DB	'.?AVCMapStringToPtr@@', 00H
data$rs	ENDS
;	COMDAT ??_R1A@?0A@EA@CMapStringToPtr@@8
rdata$r	SEGMENT
??_R1A@?0A@EA@CMapStringToPtr@@8 DD FLAT:??_R0?AVCMapStringToPtr@@@8 ; CMapStringToPtr::`RTTI Base Class Descriptor at (0,-1,0,64)'
	DD	01H
	DD	00H
	DD	0ffffffffH
	DD	00H
	DD	040H
	DD	FLAT:??_R3CMapStringToPtr@@8
rdata$r	ENDS
;	COMDAT ??_R1A@?0A@EA@?$CTypedPtrMap@VCMapStringToPtr@@V?$CStringT@DV?$StrTraitMFC_DLL@DV?$ChTraitsCRT@D@ATL@@@@@ATL@@PAY01PAUHINSTANCE__@@@@8
rdata$r	SEGMENT
??_R1A@?0A@EA@?$CTypedPtrMap@VCMapStringToPtr@@V?$CStringT@DV?$StrTraitMFC_DLL@DV?$ChTraitsCRT@D@ATL@@@@@ATL@@PAY01PAUHINSTANCE__@@@@8 DD FLAT:??_R0?AV?$CTypedPtrMap@VCMapStringToPtr@@V?$CStringT@DV?$StrTraitMFC_DLL@DV?$ChTraitsCRT@D@ATL@@@@@ATL@@PAY01PAUHINSTANCE__@@@@@8 ; CTypedPtrMap<CMapStringToPtr,ATL::CStringT<char,StrTraitMFC_DLL<char,ATL::ChTraitsCRT<char> > >,HINSTANCE__ * (*)[2]>::`RTTI Base Class Descriptor at (0,-1,0,64)'
	DD	02H
	DD	00H
	DD	0ffffffffH
	DD	00H
	DD	040H
	DD	FLAT:??_R3?$CTypedPtrMap@VCMapStringToPtr@@V?$CStringT@DV?$StrTraitMFC_DLL@DV?$ChTraitsCRT@D@ATL@@@@@ATL@@PAY01PAUHINSTANCE__@@@@8
rdata$r	ENDS
;	COMDAT ??_R2?$CTypedPtrMap@VCMapStringToPtr@@V?$CStringT@DV?$StrTraitMFC_DLL@DV?$ChTraitsCRT@D@ATL@@@@@ATL@@PAY01PAUHINSTANCE__@@@@8
rdata$r	SEGMENT
??_R2?$CTypedPtrMap@VCMapStringToPtr@@V?$CStringT@DV?$StrTraitMFC_DLL@DV?$ChTraitsCRT@D@ATL@@@@@ATL@@PAY01PAUHINSTANCE__@@@@8 DD FLAT:??_R1A@?0A@EA@?$CTypedPtrMap@VCMapStringToPtr@@V?$CStringT@DV?$StrTraitMFC_DLL@DV?$ChTraitsCRT@D@ATL@@@@@ATL@@PAY01PAUHINSTANCE__@@@@8 ; CTypedPtrMap<CMapStringToPtr,ATL::CStringT<char,StrTraitMFC_DLL<char,ATL::ChTraitsCRT<char> > >,HINSTANCE__ * (*)[2]>::`RTTI Base Class Array'
	DD	FLAT:??_R1A@?0A@EA@CMapStringToPtr@@8
	DD	FLAT:??_R1A@?0A@EA@CObject@@8
rdata$r	ENDS
;	COMDAT ??_R3?$CTypedPtrMap@VCMapStringToPtr@@V?$CStringT@DV?$StrTraitMFC_DLL@DV?$ChTraitsCRT@D@ATL@@@@@ATL@@PAY01PAUHINSTANCE__@@@@8
rdata$r	SEGMENT
??_R3?$CTypedPtrMap@VCMapStringToPtr@@V?$CStringT@DV?$StrTraitMFC_DLL@DV?$ChTraitsCRT@D@ATL@@@@@ATL@@PAY01PAUHINSTANCE__@@@@8 DD 00H ; CTypedPtrMap<CMapStringToPtr,ATL::CStringT<char,StrTraitMFC_DLL<char,ATL::ChTraitsCRT<char> > >,HINSTANCE__ * (*)[2]>::`RTTI Class Hierarchy Descriptor'
	DD	00H
	DD	03H
	DD	FLAT:??_R2?$CTypedPtrMap@VCMapStringToPtr@@V?$CStringT@DV?$StrTraitMFC_DLL@DV?$ChTraitsCRT@D@ATL@@@@@ATL@@PAY01PAUHINSTANCE__@@@@8
rdata$r	ENDS
;	COMDAT ??_R0?AV?$CTypedPtrMap@VCMapStringToPtr@@V?$CStringT@DV?$StrTraitMFC_DLL@DV?$ChTraitsCRT@D@ATL@@@@@ATL@@PAY01PAUHINSTANCE__@@@@@8
data$rs	SEGMENT
??_R0?AV?$CTypedPtrMap@VCMapStringToPtr@@V?$CStringT@DV?$StrTraitMFC_DLL@DV?$ChTraitsCRT@D@ATL@@@@@ATL@@PAY01PAUHINSTANCE__@@@@@8 DD FLAT:??_7type_info@@6B@ ; CTypedPtrMap<CMapStringToPtr,ATL::CStringT<char,StrTraitMFC_DLL<char,ATL::ChTraitsCRT<char> > >,HINSTANCE__ * (*)[2]> `RTTI Type Descriptor'
	DD	00H
	DB	'.?AV?$CTypedPtrMap@VCMapStringToPtr@@V?$CStringT@DV?$Str'
	DB	'TraitMFC_DLL@DV?$ChTraitsCRT@D@ATL@@@@@ATL@@PAY01PAUHINSTANCE'
	DB	'__@@@@', 00H
data$rs	ENDS
;	COMDAT ??_R4?$CTypedPtrMap@VCMapStringToPtr@@V?$CStringT@DV?$StrTraitMFC_DLL@DV?$ChTraitsCRT@D@ATL@@@@@ATL@@PAY01PAUHINSTANCE__@@@@6B@
rdata$r	SEGMENT
??_R4?$CTypedPtrMap@VCMapStringToPtr@@V?$CStringT@DV?$StrTraitMFC_DLL@DV?$ChTraitsCRT@D@ATL@@@@@ATL@@PAY01PAUHINSTANCE__@@@@6B@ DD 00H ; CTypedPtrMap<CMapStringToPtr,ATL::CStringT<char,StrTraitMFC_DLL<char,ATL::ChTraitsCRT<char> > >,HINSTANCE__ * (*)[2]>::`RTTI Complete Object Locator'
	DD	00H
	DD	00H
	DD	FLAT:??_R0?AV?$CTypedPtrMap@VCMapStringToPtr@@V?$CStringT@DV?$StrTraitMFC_DLL@DV?$ChTraitsCRT@D@ATL@@@@@ATL@@PAY01PAUHINSTANCE__@@@@@8
	DD	FLAT:??_R3?$CTypedPtrMap@VCMapStringToPtr@@V?$CStringT@DV?$StrTraitMFC_DLL@DV?$ChTraitsCRT@D@ATL@@@@@ATL@@PAY01PAUHINSTANCE__@@@@8
rdata$r	ENDS
;	COMDAT ??_R1A@?0A@EA@CResourceDllManager@@8
rdata$r	SEGMENT
??_R1A@?0A@EA@CResourceDllManager@@8 DD FLAT:??_R0?AVCResourceDllManager@@@8 ; CResourceDllManager::`RTTI Base Class Descriptor at (0,-1,0,64)'
	DD	00H
	DD	00H
	DD	0ffffffffH
	DD	00H
	DD	040H
	DD	FLAT:??_R3CResourceDllManager@@8
rdata$r	ENDS
;	COMDAT ??_R2CResourceDllManager@@8
rdata$r	SEGMENT
??_R2CResourceDllManager@@8 DD FLAT:??_R1A@?0A@EA@CResourceDllManager@@8 ; CResourceDllManager::`RTTI Base Class Array'
rdata$r	ENDS
;	COMDAT ??_R3CResourceDllManager@@8
rdata$r	SEGMENT
??_R3CResourceDllManager@@8 DD 00H			; CResourceDllManager::`RTTI Class Hierarchy Descriptor'
	DD	00H
	DD	01H
	DD	FLAT:??_R2CResourceDllManager@@8
rdata$r	ENDS
;	COMDAT ??_R0?AVCResourceDllManager@@@8
data$rs	SEGMENT
??_R0?AVCResourceDllManager@@@8 DD FLAT:??_7type_info@@6B@ ; CResourceDllManager `RTTI Type Descriptor'
	DD	00H
	DB	'.?AVCResourceDllManager@@', 00H
data$rs	ENDS
;	COMDAT ??_R4CResourceDllManager@@6B@
rdata$r	SEGMENT
??_R4CResourceDllManager@@6B@ DD 00H			; CResourceDllManager::`RTTI Complete Object Locator'
	DD	00H
	DD	00H
	DD	FLAT:??_R0?AVCResourceDllManager@@@8
	DD	FLAT:??_R3CResourceDllManager@@8
rdata$r	ENDS
;	COMDAT ??_C@_03PHEEJDBI@CHT@
CONST	SEGMENT
??_C@_03PHEEJDBI@CHT@ DB 'CHT', 00H			; `string'
CONST	ENDS
;	COMDAT ??_C@_07NOAGBNEL@LNG_RES@
CONST	SEGMENT
??_C@_07NOAGBNEL@LNG_RES@ DB 'LNG_RES', 00H		; `string'
CONST	ENDS
;	COMDAT ??_7CResourceDllManager@@6B@
CONST	SEGMENT
??_7CResourceDllManager@@6B@ DD FLAT:??_R4CResourceDllManager@@6B@ ; CResourceDllManager::`vftable'
	DD	FLAT:??_ECResourceDllManager@@UAEPAXI@Z
CONST	ENDS
;	COMDAT ??_7?$CTypedPtrMap@VCMapStringToPtr@@V?$CStringT@DV?$StrTraitMFC_DLL@DV?$ChTraitsCRT@D@ATL@@@@@ATL@@PAY01PAUHINSTANCE__@@@@6B@
CONST	SEGMENT
??_7?$CTypedPtrMap@VCMapStringToPtr@@V?$CStringT@DV?$StrTraitMFC_DLL@DV?$ChTraitsCRT@D@ATL@@@@@ATL@@PAY01PAUHINSTANCE__@@@@6B@ DD FLAT:??_R4?$CTypedPtrMap@VCMapStringToPtr@@V?$CStringT@DV?$StrTraitMFC_DLL@DV?$ChTraitsCRT@D@ATL@@@@@ATL@@PAY01PAUHINSTANCE__@@@@6B@ ; CTypedPtrMap<CMapStringToPtr,ATL::CStringT<char,StrTraitMFC_DLL<char,ATL::ChTraitsCRT<char> > >,HINSTANCE__ * (*)[2]>::`vftable'
	DD	FLAT:?GetRuntimeClass@CMapStringToPtr@@UBEPAUCRuntimeClass@@XZ
	DD	FLAT:??_E?$CTypedPtrMap@VCMapStringToPtr@@V?$CStringT@DV?$StrTraitMFC_DLL@DV?$ChTraitsCRT@D@ATL@@@@@ATL@@PAY01PAUHINSTANCE__@@@@UAEPAXI@Z
	DD	FLAT:?Serialize@CObject@@UAEXAAVCArchive@@@Z
	DD	FLAT:?AssertValid@CObject@@UBEXXZ
	DD	FLAT:?Dump@CObject@@UBEXAAVCDumpContext@@@Z
CONST	ENDS
;	COMDAT ??_R1A@?0A@EA@CObject@@8
rdata$r	SEGMENT
??_R1A@?0A@EA@CObject@@8 DD FLAT:??_R0?AVCObject@@@8	; CObject::`RTTI Base Class Descriptor at (0,-1,0,64)'
	DD	00H
	DD	00H
	DD	0ffffffffH
	DD	00H
	DD	040H
	DD	FLAT:??_R3CObject@@8
rdata$r	ENDS
;	COMDAT ??_R2CObject@@8
rdata$r	SEGMENT
??_R2CObject@@8 DD FLAT:??_R1A@?0A@EA@CObject@@8	; CObject::`RTTI Base Class Array'
rdata$r	ENDS
;	COMDAT ??_R3CObject@@8
rdata$r	SEGMENT
??_R3CObject@@8 DD 00H					; CObject::`RTTI Class Hierarchy Descriptor'
	DD	00H
	DD	01H
	DD	FLAT:??_R2CObject@@8
rdata$r	ENDS
;	COMDAT ??_R0?AVCObject@@@8
data$rs	SEGMENT
??_R0?AVCObject@@@8 DD FLAT:??_7type_info@@6B@		; CObject `RTTI Type Descriptor'
	DD	00H
	DB	'.?AVCObject@@', 00H
data$rs	ENDS
;	COMDAT xdata$x
xdata$x	SEGMENT
__unwindtable$?UnloadResourceDLL@CResourceDllManager@@QAEXXZ DD 0ffffffffH
	DD	FLAT:__unwindfunclet$?UnloadResourceDLL@CResourceDllManager@@QAEXXZ$0
__ehfuncinfo$?UnloadResourceDLL@CResourceDllManager@@QAEXXZ DD 019930522H
	DD	01H
	DD	FLAT:__unwindtable$?UnloadResourceDLL@CResourceDllManager@@QAEXXZ
	DD	2 DUP(00H)
	DD	2 DUP(00H)
	DD	00H
	DD	01H
xdata$x	ENDS
;	COMDAT xdata$x
xdata$x	SEGMENT
__unwindtable$?LoadResourceDLL@CResourceDllManager@@QAEPAUHINSTANCE__@@PAU2@W4E_LANGUAGEID@IMetaTable@@@Z DD 0ffffffffH
	DD	FLAT:__unwindfunclet$?LoadResourceDLL@CResourceDllManager@@QAEPAUHINSTANCE__@@PAU2@W4E_LANGUAGEID@IMetaTable@@@Z$1
__ehfuncinfo$?LoadResourceDLL@CResourceDllManager@@QAEPAUHINSTANCE__@@PAU2@W4E_LANGUAGEID@IMetaTable@@@Z DD 019930522H
	DD	01H
	DD	FLAT:__unwindtable$?LoadResourceDLL@CResourceDllManager@@QAEPAUHINSTANCE__@@PAU2@W4E_LANGUAGEID@IMetaTable@@@Z
	DD	2 DUP(00H)
	DD	2 DUP(00H)
	DD	00H
	DD	01H
xdata$x	ENDS
;	COMDAT xdata$x
xdata$x	SEGMENT
__unwindtable$?SetAt@?$CTypedPtrMap@VCMapStringToPtr@@V?$CStringT@DV?$StrTraitMFC_DLL@DV?$ChTraitsCRT@D@ATL@@@@@ATL@@PAY01PAUHINSTANCE__@@@@QAEXV?$CStringT@DV?$StrTraitMFC_DLL@DV?$ChTraitsCRT@D@ATL@@@@@ATL@@PAY01PAUHINSTANCE__@@@Z DD 0ffffffffH
	DD	FLAT:__unwindfunclet$?SetAt@?$CTypedPtrMap@VCMapStringToPtr@@V?$CStringT@DV?$StrTraitMFC_DLL@DV?$ChTraitsCRT@D@ATL@@@@@ATL@@PAY01PAUHINSTANCE__@@@@QAEXV?$CStringT@DV?$StrTraitMFC_DLL@DV?$ChTraitsCRT@D@ATL@@@@@ATL@@PAY01PAUHINSTANCE__@@@Z$0
__ehfuncinfo$?SetAt@?$CTypedPtrMap@VCMapStringToPtr@@V?$CStringT@DV?$StrTraitMFC_DLL@DV?$ChTraitsCRT@D@ATL@@@@@ATL@@PAY01PAUHINSTANCE__@@@@QAEXV?$CStringT@DV?$StrTraitMFC_DLL@DV?$ChTraitsCRT@D@ATL@@@@@ATL@@PAY01PAUHINSTANCE__@@@Z DD 019930522H
	DD	01H
	DD	FLAT:__unwindtable$?SetAt@?$CTypedPtrMap@VCMapStringToPtr@@V?$CStringT@DV?$StrTraitMFC_DLL@DV?$ChTraitsCRT@D@ATL@@@@@ATL@@PAY01PAUHINSTANCE__@@@@QAEXV?$CStringT@DV?$StrTraitMFC_DLL@DV?$ChTraitsCRT@D@ATL@@@@@ATL@@PAY01PAUHINSTANCE__@@@Z
	DD	2 DUP(00H)
	DD	2 DUP(00H)
	DD	00H
	DD	01H
xdata$x	ENDS
; Function compile flags: /Ogtp
; File D:\git\src\IBK\IBK_DRFN\ProjSrc\SrcChartEx\ChartOCX\ChartLanguageTable\ResourceDllManager.cpp
;	COMDAT ??_GCResourceDllManager@@UAEPAXI@Z
_TEXT	SEGMENT
___flags$ = 8						; size = 4
??_GCResourceDllManager@@UAEPAXI@Z PROC			; CResourceDllManager::`scalar deleting destructor', COMDAT
; _this$ = ecx
  00000	55		 push	 ebp
  00001	8b ec		 mov	 ebp, esp

; 33   : {

  00003	56		 push	 esi
  00004	8b f1		 mov	 esi, ecx

; 34   : }

  00006	8d 4e 04	 lea	 ecx, DWORD PTR [esi+4]
  00009	c7 06 00 00 00
	00		 mov	 DWORD PTR [esi], OFFSET ??_7CResourceDllManager@@6B@
  0000f	e8 00 00 00 00	 call	 ??1CMapStringToPtr@@UAE@XZ ; CMapStringToPtr::~CMapStringToPtr
  00014	f6 45 08 01	 test	 BYTE PTR ___flags$[ebp], 1
  00018	74 0b		 je	 SHORT $LN10@scalar
  0001a	6a 20		 push	 32			; 00000020H
  0001c	56		 push	 esi
  0001d	e8 00 00 00 00	 call	 ??3@YAXPAXI@Z		; operator delete
  00022	83 c4 08	 add	 esp, 8
$LN10@scalar:
  00025	8b c6		 mov	 eax, esi
  00027	5e		 pop	 esi
  00028	5d		 pop	 ebp
  00029	c2 04 00	 ret	 4
??_GCResourceDllManager@@UAEPAXI@Z ENDP			; CResourceDllManager::`scalar deleting destructor'
_TEXT	ENDS
; Function compile flags: /Ogtp
; File D:\git\src\IBK\IBK_DRFN\ProjSrc\SrcChartEx\ChartOCX\ChartLanguageTable\ResourceDllManager.cpp
; File C:\Program Files (x86)\Microsoft Visual Studio\2019\Community\VC\Tools\MSVC\14.29.30133\atlmfc\include\afxcoll.inl
; File D:\git\src\IBK\IBK_DRFN\ProjSrc\SrcChartEx\ChartOCX\ChartLanguageTable\ResourceDllManager.cpp
; File C:\Program Files (x86)\Microsoft Visual Studio\2019\Community\VC\Tools\MSVC\14.29.30133\atlmfc\include\afxcoll.inl
; File D:\git\src\IBK\IBK_DRFN\ProjSrc\SrcChartEx\ChartOCX\ChartLanguageTable\ResourceDllManager.cpp
; File C:\Program Files (x86)\Microsoft Visual Studio\2019\Community\VC\Tools\MSVC\14.29.30133\atlmfc\include\afxtempl.h
; File D:\git\src\IBK\IBK_DRFN\ProjSrc\SrcChartEx\ChartOCX\ChartLanguageTable\ResourceDllManager.cpp
;	COMDAT ?UnloadResourceDLL@CResourceDllManager@@QAEXXZ
_TEXT	SEGMENT
_this$GSCopy$1$ = -300					; size = 4
tv199 = -296						; size = 4
_strModulePath$ = -292					; size = 4
_psnResModules$ = -288					; size = 4
_pResModules$ = -284					; size = 4
_szModuleFilePath$ = -280				; size = 261
__$ArrayPad$ = -16					; size = 4
__$EHRec$ = -12						; size = 12
?UnloadResourceDLL@CResourceDllManager@@QAEXXZ PROC	; CResourceDllManager::UnloadResourceDLL, COMDAT
; _this$ = ecx

; 103  : {

  00000	55		 push	 ebp
  00001	8b ec		 mov	 ebp, esp
  00003	6a ff		 push	 -1
  00005	68 00 00 00 00	 push	 __ehhandler$?UnloadResourceDLL@CResourceDllManager@@QAEXXZ
  0000a	64 a1 00 00 00
	00		 mov	 eax, DWORD PTR fs:0
  00010	50		 push	 eax
  00011	81 ec 20 01 00
	00		 sub	 esp, 288		; 00000120H
  00017	a1 00 00 00 00	 mov	 eax, DWORD PTR ___security_cookie
  0001c	33 c5		 xor	 eax, ebp
  0001e	89 45 f0	 mov	 DWORD PTR __$ArrayPad$[ebp], eax
  00021	53		 push	 ebx
  00022	56		 push	 esi
  00023	57		 push	 edi
  00024	50		 push	 eax
  00025	8d 45 f4	 lea	 eax, DWORD PTR __$EHRec$[ebp]
  00028	64 a3 00 00 00
	00		 mov	 DWORD PTR fs:0, eax
  0002e	8b d9		 mov	 ebx, ecx
  00030	89 9d d4 fe ff
	ff		 mov	 DWORD PTR _this$GSCopy$1$[ebp], ebx

; 105  : 	CString strModulePath;

  00036	8d 8d dc fe ff
	ff		 lea	 ecx, DWORD PTR _strModulePath$[ebp]
  0003c	ff 15 00 00 00
	00		 call	 DWORD PTR __imp_??0?$CStringT@DV?$StrTraitMFC_DLL@DV?$ChTraitsCRT@D@ATL@@@@@ATL@@QAE@XZ
; File C:\Program Files (x86)\Microsoft Visual Studio\2019\Community\VC\Tools\MSVC\14.29.30133\atlmfc\include\afxcoll.inl

; 630  : 	{ return (m_nCount == 0) ? NULL : BEFORE_START_POSITION; }

  00042	8b 53 10	 mov	 edx, DWORD PTR [ebx+16]
  00045	8b c2		 mov	 eax, edx
  00047	f7 d8		 neg	 eax
; File D:\git\src\IBK\IBK_DRFN\ProjSrc\SrcChartEx\ChartOCX\ChartLanguageTable\ResourceDllManager.cpp

; 105  : 	CString strModulePath;

  00049	c7 45 fc 00 00
	00 00		 mov	 DWORD PTR __$EHRec$[ebp+8], 0

; 106  : 	char szModuleFilePath[ _MAX_PATH + 1];
; 107  : 	ResourceModules *pResModules = NULL;

  00050	c7 85 e4 fe ff
	ff 00 00 00 00	 mov	 DWORD PTR _pResModules$[ebp], 0
; File C:\Program Files (x86)\Microsoft Visual Studio\2019\Community\VC\Tools\MSVC\14.29.30133\atlmfc\include\afxcoll.inl

; 630  : 	{ return (m_nCount == 0) ? NULL : BEFORE_START_POSITION; }

  0005a	1b c0		 sbb	 eax, eax
; File D:\git\src\IBK\IBK_DRFN\ProjSrc\SrcChartEx\ChartOCX\ChartLanguageTable\ResourceDllManager.cpp

; 108  : 	POSITION psnResModules = m_mapResModules.GetStartPosition();

  0005c	89 85 e0 fe ff
	ff		 mov	 DWORD PTR _psnResModules$[ebp], eax
  00062	85 d2		 test	 edx, edx

; 109  : 	while( psnResModules)

  00064	0f 84 af 00 00
	00		 je	 $LN3@UnloadReso
  0006a	8b 3d 00 00 00
	00		 mov	 edi, DWORD PTR __imp__DeleteFileA@4
  00070	8d 4b 04	 lea	 ecx, DWORD PTR [ebx+4]
  00073	8b 1d 00 00 00
	00		 mov	 ebx, DWORD PTR __imp__GetModuleFileNameA@12
  00079	89 8d d8 fe ff
	ff		 mov	 DWORD PTR tv199[ebp], ecx
  0007f	90		 npad	 1
$LL2@UnloadReso:
; File C:\Program Files (x86)\Microsoft Visual Studio\2019\Community\VC\Tools\MSVC\14.29.30133\atlmfc\include\afxtempl.h

; 2068 : 		{ BASE_CLASS::GetNextAssoc(rPosition, (typename BASE_CLASS::BASE_KEY&)rKey,

  00080	8d 85 e4 fe ff
	ff		 lea	 eax, DWORD PTR _pResModules$[ebp]
  00086	50		 push	 eax
  00087	8d 85 dc fe ff
	ff		 lea	 eax, DWORD PTR _strModulePath$[ebp]
  0008d	50		 push	 eax
  0008e	8d 85 e0 fe ff
	ff		 lea	 eax, DWORD PTR _psnResModules$[ebp]
  00094	50		 push	 eax
  00095	e8 00 00 00 00	 call	 ?GetNextAssoc@CMapStringToPtr@@QBEXAAPAU__POSITION@@AAV?$CStringT@DV?$StrTraitMFC_DLL@DV?$ChTraitsCRT@D@ATL@@@@@ATL@@AAPAX@Z ; CMapStringToPtr::GetNextAssoc
; File D:\git\src\IBK\IBK_DRFN\ProjSrc\SrcChartEx\ChartOCX\ChartLanguageTable\ResourceDllManager.cpp

; 112  : 		for( i = IMetaTable::ENGLISH; i < IMetaTable::LANGUAGE_ID_END; i++) if( _DEFAULT_RESOURCE_ID != i && ( *pResModules)[ i])

  0009a	33 f6		 xor	 esi, esi
  0009c	0f 1f 40 00	 npad	 4
$LL6@UnloadReso:
  000a0	83 fe 01	 cmp	 esi, 1
  000a3	74 47		 je	 SHORT $LN4@UnloadReso
  000a5	8b 85 e4 fe ff
	ff		 mov	 eax, DWORD PTR _pResModules$[ebp]
  000ab	8b 04 b0	 mov	 eax, DWORD PTR [eax+esi*4]
  000ae	85 c0		 test	 eax, eax
  000b0	74 3a		 je	 SHORT $LN4@UnloadReso

; 113  : 		{
; 114  : 			if( !GetModuleFileName( ( *pResModules)[ i], szModuleFilePath, _MAX_PATH))

  000b2	68 04 01 00 00	 push	 260			; 00000104H
  000b7	8d 8d e8 fe ff
	ff		 lea	 ecx, DWORD PTR _szModuleFilePath$[ebp]
  000bd	51		 push	 ecx
  000be	50		 push	 eax
  000bf	ff d3		 call	 ebx
  000c1	f7 d8		 neg	 eax
  000c3	1a c0		 sbb	 al, al
  000c5	20 85 e8 fe ff
	ff		 and	 BYTE PTR _szModuleFilePath$[ebp], al

; 115  : 				szModuleFilePath[ 0] = '\0';
; 116  : 			FreeLibrary( ( *pResModules)[ i]);

  000cb	8b 85 e4 fe ff
	ff		 mov	 eax, DWORD PTR _pResModules$[ebp]
  000d1	ff 34 b0	 push	 DWORD PTR [eax+esi*4]
  000d4	ff 15 00 00 00
	00		 call	 DWORD PTR __imp__FreeLibrary@4

; 117  : 			if( szModuleFilePath[ 0]) DeleteFile( szModuleFilePath);

  000da	80 bd e8 fe ff
	ff 00		 cmp	 BYTE PTR _szModuleFilePath$[ebp], 0
  000e1	74 09		 je	 SHORT $LN4@UnloadReso
  000e3	8d 85 e8 fe ff
	ff		 lea	 eax, DWORD PTR _szModuleFilePath$[ebp]
  000e9	50		 push	 eax
  000ea	ff d7		 call	 edi
$LN4@UnloadReso:

; 112  : 		for( i = IMetaTable::ENGLISH; i < IMetaTable::LANGUAGE_ID_END; i++) if( _DEFAULT_RESOURCE_ID != i && ( *pResModules)[ i])

  000ec	46		 inc	 esi
  000ed	83 fe 02	 cmp	 esi, 2
  000f0	7c ae		 jl	 SHORT $LL6@UnloadReso

; 118  : 		}
; 119  : 		delete [] pResModules;

  000f2	ff b5 e4 fe ff
	ff		 push	 DWORD PTR _pResModules$[ebp]
  000f8	e8 00 00 00 00	 call	 ??_V@YAXPAX@Z		; operator delete[]
  000fd	8b 8d d8 fe ff
	ff		 mov	 ecx, DWORD PTR tv199[ebp]
  00103	83 c4 04	 add	 esp, 4
  00106	83 bd e0 fe ff
	ff 00		 cmp	 DWORD PTR _psnResModules$[ebp], 0
  0010d	0f 85 6d ff ff
	ff		 jne	 $LL2@UnloadReso
  00113	8b 9d d4 fe ff
	ff		 mov	 ebx, DWORD PTR _this$GSCopy$1$[ebp]
$LN3@UnloadReso:

; 120  : 	}
; 121  : 	m_mapResModules.RemoveAll();

  00119	8d 4b 04	 lea	 ecx, DWORD PTR [ebx+4]
  0011c	e8 00 00 00 00	 call	 ?RemoveAll@CMapStringToPtr@@QAEXXZ ; CMapStringToPtr::RemoveAll

; 122  : }

  00121	8d 8d dc fe ff
	ff		 lea	 ecx, DWORD PTR _strModulePath$[ebp]
  00127	ff 15 00 00 00
	00		 call	 DWORD PTR __imp_??1?$CStringT@DV?$StrTraitMFC_DLL@DV?$ChTraitsCRT@D@ATL@@@@@ATL@@QAE@XZ
  0012d	8b 4d f4	 mov	 ecx, DWORD PTR __$EHRec$[ebp]
  00130	64 89 0d 00 00
	00 00		 mov	 DWORD PTR fs:0, ecx
  00137	59		 pop	 ecx
  00138	5f		 pop	 edi
  00139	5e		 pop	 esi
  0013a	5b		 pop	 ebx
  0013b	8b 4d f0	 mov	 ecx, DWORD PTR __$ArrayPad$[ebp]
  0013e	33 cd		 xor	 ecx, ebp
  00140	e8 00 00 00 00	 call	 @__security_check_cookie@4
  00145	8b e5		 mov	 esp, ebp
  00147	5d		 pop	 ebp
  00148	c3		 ret	 0
_TEXT	ENDS
;	COMDAT text$x
text$x	SEGMENT
__unwindfunclet$?UnloadResourceDLL@CResourceDllManager@@QAEXXZ$0:
  00000	8d 8d dc fe ff
	ff		 lea	 ecx, DWORD PTR _strModulePath$[ebp]
  00006	ff 25 00 00 00
	00		 jmp	 DWORD PTR __imp_??1?$CStringT@DV?$StrTraitMFC_DLL@DV?$ChTraitsCRT@D@ATL@@@@@ATL@@QAE@XZ
  0000c	cc		 int	 3
  0000d	cc		 int	 3
  0000e	cc		 int	 3
  0000f	cc		 int	 3
  00010	cc		 int	 3
__ehhandler$?UnloadResourceDLL@CResourceDllManager@@QAEXXZ:
  00011	90		 npad	 1
  00012	90		 npad	 1
  00013	8b 54 24 08	 mov	 edx, DWORD PTR [esp+8]
  00017	8d 42 0c	 lea	 eax, DWORD PTR [edx+12]
  0001a	8b 8a d0 fe ff
	ff		 mov	 ecx, DWORD PTR [edx-304]
  00020	33 c8		 xor	 ecx, eax
  00022	e8 00 00 00 00	 call	 @__security_check_cookie@4
  00027	8b 4a fc	 mov	 ecx, DWORD PTR [edx-4]
  0002a	33 c8		 xor	 ecx, eax
  0002c	e8 00 00 00 00	 call	 @__security_check_cookie@4
  00031	b8 00 00 00 00	 mov	 eax, OFFSET __ehfuncinfo$?UnloadResourceDLL@CResourceDllManager@@QAEXXZ
  00036	e9 00 00 00 00	 jmp	 ___CxxFrameHandler3
text$x	ENDS
?UnloadResourceDLL@CResourceDllManager@@QAEXXZ ENDP	; CResourceDllManager::UnloadResourceDLL
; Function compile flags: /Ogtp
; File D:\git\src\IBK\IBK_DRFN\ProjSrc\SrcChartEx\ChartOCX\ChartLanguageTable\ResourceDllManager.cpp
; File C:\Program Files (x86)\Microsoft Visual Studio\2019\Community\VC\Tools\MSVC\14.29.30133\atlmfc\include\afxtempl.h
; File D:\git\src\IBK\IBK_DRFN\ProjSrc\SrcChartEx\ChartOCX\ChartLanguageTable\ResourceDllManager.cpp
; File C:\Program Files (x86)\Microsoft Visual Studio\2019\Community\VC\Tools\MSVC\14.29.30133\atlmfc\include\afxtempl.h
; File D:\git\src\IBK\IBK_DRFN\ProjSrc\SrcChartEx\ChartOCX\ChartLanguageTable\ResourceDllManager.cpp
; File C:\Program Files (x86)\Microsoft Visual Studio\2019\Community\VC\Tools\MSVC\14.29.30133\atlmfc\include\afxcoll.inl
; File C:\Program Files (x86)\Microsoft Visual Studio\2019\Community\VC\Tools\MSVC\14.29.30133\atlmfc\include\afxtempl.h
; File C:\Program Files (x86)\Microsoft Visual Studio\2019\Community\VC\Tools\MSVC\14.29.30133\atlmfc\include\afxcoll.inl
; File C:\Program Files (x86)\Microsoft Visual Studio\2019\Community\VC\Tools\MSVC\14.29.30133\atlmfc\include\afxtempl.h
; File C:\Program Files (x86)\Microsoft Visual Studio\2019\Community\VC\Tools\MSVC\14.29.30133\atlmfc\include\afxcoll.inl
; File C:\Program Files (x86)\Microsoft Visual Studio\2019\Community\VC\Tools\MSVC\14.29.30133\atlmfc\include\afxtempl.h
; File D:\git\src\IBK\IBK_DRFN\ProjSrc\SrcChartEx\ChartOCX\ChartLanguageTable\ResourceDllManager.cpp
;	COMDAT ?LoadResourceDLL@CResourceDllManager@@QAEPAUHINSTANCE__@@PAU2@W4E_LANGUAGEID@IMetaTable@@@Z
_TEXT	SEGMENT
_p_eLanguageID$GSCopy$1$ = -828				; size = 4
_dwWrited$ = -824					; size = 4
$T2 = -820						; size = 4
_this$GSCopy$1$ = -816					; size = 4
_pResModule$1$ = -816					; size = 4
_pResModules$ = -812					; size = 4
_szTempPath$ = -808					; size = 261
_szResFileName$ = -544					; size = 261
_szModuleFilePath$ = -280				; size = 261
__$ArrayPad$ = -16					; size = 4
__$EHRec$ = -12						; size = 12
_p_hMainModule$ = 8					; size = 4
_p_eLanguageID$ = 12					; size = 4
?LoadResourceDLL@CResourceDllManager@@QAEPAUHINSTANCE__@@PAU2@W4E_LANGUAGEID@IMetaTable@@@Z PROC ; CResourceDllManager::LoadResourceDLL, COMDAT
; _this$ = ecx

; 37   : {

  00000	55		 push	 ebp
  00001	8b ec		 mov	 ebp, esp
  00003	6a ff		 push	 -1
  00005	68 00 00 00 00	 push	 __ehhandler$?LoadResourceDLL@CResourceDllManager@@QAEPAUHINSTANCE__@@PAU2@W4E_LANGUAGEID@IMetaTable@@@Z
  0000a	64 a1 00 00 00
	00		 mov	 eax, DWORD PTR fs:0
  00010	50		 push	 eax
  00011	81 ec 30 03 00
	00		 sub	 esp, 816		; 00000330H
  00017	a1 00 00 00 00	 mov	 eax, DWORD PTR ___security_cookie
  0001c	33 c5		 xor	 eax, ebp
  0001e	89 45 f0	 mov	 DWORD PTR __$ArrayPad$[ebp], eax
  00021	53		 push	 ebx
  00022	56		 push	 esi
  00023	57		 push	 edi
  00024	50		 push	 eax
  00025	8d 45 f4	 lea	 eax, DWORD PTR __$EHRec$[ebp]
  00028	64 a3 00 00 00
	00		 mov	 DWORD PTR fs:0, eax
  0002e	8b f1		 mov	 esi, ecx
  00030	89 b5 d0 fc ff
	ff		 mov	 DWORD PTR _this$GSCopy$1$[ebp], esi
  00036	8b 7d 08	 mov	 edi, DWORD PTR _p_hMainModule$[ebp]

; 38   : 	assert( p_hMainModule);
; 39   : 	
; 40   : 	char szModuleFilePath[ _MAX_PATH + 1];
; 41   : 	if( !GetModuleFileName( p_hMainModule, szModuleFilePath, _MAX_PATH)) return p_hMainModule;

  00039	8d 85 e8 fe ff
	ff		 lea	 eax, DWORD PTR _szModuleFilePath$[ebp]
  0003f	8b 5d 0c	 mov	 ebx, DWORD PTR _p_eLanguageID$[ebp]
  00042	68 04 01 00 00	 push	 260			; 00000104H
  00047	50		 push	 eax
  00048	57		 push	 edi
  00049	89 9d c4 fc ff
	ff		 mov	 DWORD PTR _p_eLanguageID$GSCopy$1$[ebp], ebx
  0004f	ff 15 00 00 00
	00		 call	 DWORD PTR __imp__GetModuleFileNameA@12
  00055	85 c0		 test	 eax, eax
  00057	0f 84 11 01 00
	00		 je	 $LN31@LoadResour
; File C:\Program Files (x86)\Microsoft Visual Studio\2019\Community\VC\Tools\MSVC\14.29.30133\atlmfc\include\afxtempl.h

; 2052 : 		{ return BASE_CLASS::Lookup(key, (typename BASE_CLASS::BASE_VALUE&)rValue); }

  0005d	8d 8d d4 fc ff
	ff		 lea	 ecx, DWORD PTR _pResModules$[ebp]
; File D:\git\src\IBK\IBK_DRFN\ProjSrc\SrcChartEx\ChartOCX\ChartLanguageTable\ResourceDllManager.cpp

; 43   : 	ResourceModules *pResModules = NULL;

  00063	c7 85 d4 fc ff
	ff 00 00 00 00	 mov	 DWORD PTR _pResModules$[ebp], 0
; File C:\Program Files (x86)\Microsoft Visual Studio\2019\Community\VC\Tools\MSVC\14.29.30133\atlmfc\include\afxtempl.h

; 2052 : 		{ return BASE_CLASS::Lookup(key, (typename BASE_CLASS::BASE_VALUE&)rValue); }

  0006d	51		 push	 ecx
  0006e	8d 8d e8 fe ff
	ff		 lea	 ecx, DWORD PTR _szModuleFilePath$[ebp]
  00074	51		 push	 ecx
  00075	8d 4e 04	 lea	 ecx, DWORD PTR [esi+4]
  00078	e8 00 00 00 00	 call	 ?Lookup@CMapStringToPtr@@QBEHPBDAAPAX@Z ; CMapStringToPtr::Lookup
; File D:\git\src\IBK\IBK_DRFN\ProjSrc\SrcChartEx\ChartOCX\ChartLanguageTable\ResourceDllManager.cpp

; 44   : 	if( !m_mapResModules.Lookup( szModuleFilePath, pResModules))

  0007d	85 c0		 test	 eax, eax
  0007f	75 6b		 jne	 SHORT $LN28@LoadResour

; 45   : 	{
; 46   : 		pResModules = ( ResourceModules *)new ResourceModules;

  00081	6a 08		 push	 8
  00083	e8 00 00 00 00	 call	 ??_U@YAPAXI@Z		; operator new[]
  00088	83 c4 04	 add	 esp, 4
  0008b	89 85 d4 fc ff
	ff		 mov	 DWORD PTR _pResModules$[ebp], eax

; 47   : 		m_mapResModules.SetAt( szModuleFilePath, pResModules);

  00091	8d 85 e8 fe ff
	ff		 lea	 eax, DWORD PTR _szModuleFilePath$[ebp]
  00097	8d 8d cc fc ff
	ff		 lea	 ecx, DWORD PTR $T2[ebp]
  0009d	50		 push	 eax
  0009e	ff 15 00 00 00
	00		 call	 DWORD PTR __imp_??0?$CStringT@DV?$StrTraitMFC_DLL@DV?$ChTraitsCRT@D@ATL@@@@@ATL@@QAE@PBD@Z
  000a4	8b b5 d4 fc ff
	ff		 mov	 esi, DWORD PTR _pResModules$[ebp]
; File C:\Program Files (x86)\Microsoft Visual Studio\2019\Community\VC\Tools\MSVC\14.29.30133\atlmfc\include\afxcoll.inl

; 628  : 	{ (*this)[key] = newValue; }

  000aa	8b 8d d0 fc ff
	ff		 mov	 ecx, DWORD PTR _this$GSCopy$1$[ebp]
  000b0	ff b5 cc fc ff
	ff		 push	 DWORD PTR $T2[ebp]
; File C:\Program Files (x86)\Microsoft Visual Studio\2019\Community\VC\Tools\MSVC\14.29.30133\atlmfc\include\afxtempl.h

; 2060 : 		{ BASE_CLASS::SetAt(key, newValue); }

  000b6	c7 45 fc 00 00
	00 00		 mov	 DWORD PTR __$EHRec$[ebp+8], 0
; File C:\Program Files (x86)\Microsoft Visual Studio\2019\Community\VC\Tools\MSVC\14.29.30133\atlmfc\include\afxcoll.inl

; 628  : 	{ (*this)[key] = newValue; }

  000bd	8d 49 04	 lea	 ecx, DWORD PTR [ecx+4]
  000c0	e8 00 00 00 00	 call	 ??ACMapStringToPtr@@QAEAAPAXPBD@Z ; CMapStringToPtr::operator[]
; File C:\Program Files (x86)\Microsoft Visual Studio\2019\Community\VC\Tools\MSVC\14.29.30133\atlmfc\include\afxtempl.h

; 2060 : 		{ BASE_CLASS::SetAt(key, newValue); }

  000c5	8d 8d cc fc ff
	ff		 lea	 ecx, DWORD PTR $T2[ebp]
; File C:\Program Files (x86)\Microsoft Visual Studio\2019\Community\VC\Tools\MSVC\14.29.30133\atlmfc\include\afxcoll.inl

; 628  : 	{ (*this)[key] = newValue; }

  000cb	89 30		 mov	 DWORD PTR [eax], esi
; File C:\Program Files (x86)\Microsoft Visual Studio\2019\Community\VC\Tools\MSVC\14.29.30133\atlmfc\include\afxtempl.h

; 2060 : 		{ BASE_CLASS::SetAt(key, newValue); }

  000cd	ff 15 00 00 00
	00		 call	 DWORD PTR __imp_??1?$CStringT@DV?$StrTraitMFC_DLL@DV?$ChTraitsCRT@D@ATL@@@@@ATL@@QAE@XZ
; File D:\git\src\IBK\IBK_DRFN\ProjSrc\SrcChartEx\ChartOCX\ChartLanguageTable\ResourceDllManager.cpp

; 48   : 		for( int i = IMetaTable::ENGLISH; i < IMetaTable::LANGUAGE_ID_END; i++) ( *pResModules)[ i] = NULL;

  000d3	8b 85 d4 fc ff
	ff		 mov	 eax, DWORD PTR _pResModules$[ebp]
  000d9	c7 00 00 00 00
	00		 mov	 DWORD PTR [eax], 0
  000df	8b 85 d4 fc ff
	ff		 mov	 eax, DWORD PTR _pResModules$[ebp]
  000e5	c7 40 04 00 00
	00 00		 mov	 DWORD PTR [eax+4], 0
$LN28@LoadResour:

; 49   : 	}
; 50   : 
; 51   : 	if( ( *pResModules)[ p_eLanguageID]) return ( *pResModules)[ p_eLanguageID];

  000ec	8b 85 d4 fc ff
	ff		 mov	 eax, DWORD PTR _pResModules$[ebp]
  000f2	83 3c 98 00	 cmp	 DWORD PTR [eax+ebx*4], 0
  000f6	74 05		 je	 SHORT $LN7@LoadResour
  000f8	8b 04 98	 mov	 eax, DWORD PTR [eax+ebx*4]
  000fb	eb 73		 jmp	 SHORT $LN1@LoadResour
$LN7@LoadResour:

; 52   : 
; 53   : 	HRSRC hResource = FindResource( p_hMainModule, m_szLanguageIDs[ p_eLanguageID], "LNG_RES");

  000fd	68 00 00 00 00	 push	 OFFSET ??_C@_07NOAGBNEL@LNG_RES@
  00102	ff 34 9d 00 00
	00 00		 push	 DWORD PTR ?m_szLanguageIDs@CResourceDllManager@@1PAPADA[ebx*4]
  00109	57		 push	 edi
  0010a	ff 15 00 00 00
	00		 call	 DWORD PTR __imp__FindResourceA@12
  00110	8b f0		 mov	 esi, eax

; 54   : 	if( !hResource) return p_hMainModule;

  00112	85 f6		 test	 esi, esi
  00114	74 58		 je	 SHORT $LN31@LoadResour

; 55   : 
; 56   : 	HGLOBAL hResModule = LoadResource( p_hMainModule, hResource);

  00116	56		 push	 esi
  00117	57		 push	 edi
  00118	ff 15 00 00 00
	00		 call	 DWORD PTR __imp__LoadResource@8

; 57   : 	if( !hResModule) return p_hMainModule;

  0011e	85 c0		 test	 eax, eax
  00120	74 4c		 je	 SHORT $LN31@LoadResour

; 58   : 
; 59   : 	VOID *pResModule = LockResource( hResModule);

  00122	50		 push	 eax
  00123	ff 15 00 00 00
	00		 call	 DWORD PTR __imp__LockResource@4
  00129	89 85 d0 fc ff
	ff		 mov	 DWORD PTR _pResModule$1$[ebp], eax

; 60   : 	if( !pResModule) return p_hMainModule;

  0012f	85 c0		 test	 eax, eax
  00131	74 3b		 je	 SHORT $LN31@LoadResour

; 61   : 
; 62   : 	char szTempPath[ _MAX_PATH + 1];
; 63   : 	if( !GetTempPath( _MAX_PATH, szTempPath))

  00133	8d 85 d8 fc ff
	ff		 lea	 eax, DWORD PTR _szTempPath$[ebp]
  00139	50		 push	 eax
  0013a	68 04 01 00 00	 push	 260			; 00000104H
  0013f	ff 15 00 00 00
	00		 call	 DWORD PTR __imp__GetTempPathA@8
  00145	85 c0		 test	 eax, eax
  00147	74 25		 je	 SHORT $LN31@LoadResour

; 64   : 	{
; 65   : 		UnlockResource( hResModule);
; 66   : 		return p_hMainModule;
; 67   : 	}
; 68   : 
; 69   : 	char szResFileName[ _MAX_PATH + 1];
; 70   : 	if( !GetTempFileName(	szTempPath,			// dir. for temp. files 

  00149	8d 85 e0 fd ff
	ff		 lea	 eax, DWORD PTR _szResFileName$[ebp]
  0014f	50		 push	 eax
  00150	6a 00		 push	 0
  00152	68 00 00 00 00	 push	 OFFSET ??_C@_03PHEEJDBI@CHT@
  00157	8d 85 d8 fc ff
	ff		 lea	 eax, DWORD PTR _szTempPath$[ebp]
  0015d	50		 push	 eax
  0015e	ff 15 00 00 00
	00		 call	 DWORD PTR __imp__GetTempFileNameA@16
  00164	85 c0		 test	 eax, eax
  00166	75 26		 jne	 SHORT $LN12@LoadResour

; 71   : 							"CHT",				// temp. file name prefix 
; 72   : 							0,					// create unique name 
; 73   : 							szResFileName))		// buffer for name 
; 74   : 	{
; 75   : 		DWORD dwError = GetLastError();

  00168	ff 15 00 00 00
	00		 call	 DWORD PTR __imp__GetLastError@0
$LN31@LoadResour:

; 100  : }

  0016e	8b c7		 mov	 eax, edi
$LN1@LoadResour:
  00170	8b 4d f4	 mov	 ecx, DWORD PTR __$EHRec$[ebp]
  00173	64 89 0d 00 00
	00 00		 mov	 DWORD PTR fs:0, ecx
  0017a	59		 pop	 ecx
  0017b	5f		 pop	 edi
  0017c	5e		 pop	 esi
  0017d	5b		 pop	 ebx
  0017e	8b 4d f0	 mov	 ecx, DWORD PTR __$ArrayPad$[ebp]
  00181	33 cd		 xor	 ecx, ebp
  00183	e8 00 00 00 00	 call	 @__security_check_cookie@4
  00188	8b e5		 mov	 esp, ebp
  0018a	5d		 pop	 ebp
  0018b	c2 08 00	 ret	 8
$LN12@LoadResour:

; 76   : 		UnlockResource( hResModule);
; 77   : 		return p_hMainModule;
; 78   : 	}
; 79   : 
; 80   : 	HANDLE hResFile = CreateFile(	szResFileName,			// file name 

  0018e	6a 00		 push	 0
  00190	68 80 00 00 00	 push	 128			; 00000080H
  00195	6a 02		 push	 2
  00197	6a 00		 push	 0
  00199	6a 00		 push	 0
  0019b	68 00 00 00 40	 push	 1073741824		; 40000000H
  001a0	8d 85 e0 fd ff
	ff		 lea	 eax, DWORD PTR _szResFileName$[ebp]
  001a6	50		 push	 eax
  001a7	ff 15 00 00 00
	00		 call	 DWORD PTR __imp__CreateFileA@28
  001ad	8b d8		 mov	 ebx, eax

; 81   : 									GENERIC_WRITE,			// open for read/write 
; 82   : 									0,						// do not share 
; 83   : 									NULL,					// no security 
; 84   : 									CREATE_ALWAYS,			// overwrite existing file
; 85   : 									FILE_ATTRIBUTE_NORMAL,	// normal file 
; 86   : 									NULL);					// no attr. template 
; 87   : 	if( INVALID_HANDLE_VALUE == hResFile)

  001af	83 fb ff	 cmp	 ebx, -1
  001b2	74 ba		 je	 SHORT $LN31@LoadResour

; 88   : 	{
; 89   : 		UnlockResource( hResModule);
; 90   : 		return p_hMainModule;
; 91   : 	}
; 92   : 
; 93   : 	DWORD dwWrited = 0;
; 94   : 	WriteFile( hResFile, pResModule, SizeofResource( p_hMainModule, hResource), &dwWrited, NULL);

  001b4	6a 00		 push	 0
  001b6	8d 85 c8 fc ff
	ff		 lea	 eax, DWORD PTR _dwWrited$[ebp]
  001bc	c7 85 c8 fc ff
	ff 00 00 00 00	 mov	 DWORD PTR _dwWrited$[ebp], 0
  001c6	50		 push	 eax
  001c7	56		 push	 esi
  001c8	57		 push	 edi
  001c9	ff 15 00 00 00
	00		 call	 DWORD PTR __imp__SizeofResource@8
  001cf	50		 push	 eax
  001d0	ff b5 d0 fc ff
	ff		 push	 DWORD PTR _pResModule$1$[ebp]
  001d6	53		 push	 ebx
  001d7	ff 15 00 00 00
	00		 call	 DWORD PTR __imp__WriteFile@20

; 95   : 	CloseHandle( hResFile);

  001dd	53		 push	 ebx
  001de	ff 15 00 00 00
	00		 call	 DWORD PTR __imp__CloseHandle@4

; 96   : 	UnlockResource( hResModule);
; 97   : 
; 98   : 	( *pResModules)[ p_eLanguageID] = LoadLibrary( szResFileName);

  001e4	8d 85 e0 fd ff
	ff		 lea	 eax, DWORD PTR _szResFileName$[ebp]
  001ea	50		 push	 eax
  001eb	ff 15 00 00 00
	00		 call	 DWORD PTR __imp__LoadLibraryA@4
  001f1	8b 95 c4 fc ff
	ff		 mov	 edx, DWORD PTR _p_eLanguageID$GSCopy$1$[ebp]
  001f7	8b 8d d4 fc ff
	ff		 mov	 ecx, DWORD PTR _pResModules$[ebp]
  001fd	89 04 91	 mov	 DWORD PTR [ecx+edx*4], eax

; 99   : 	return ( *pResModules)[ p_eLanguageID];

  00200	8b 85 d4 fc ff
	ff		 mov	 eax, DWORD PTR _pResModules$[ebp]
  00206	8b 04 90	 mov	 eax, DWORD PTR [eax+edx*4]
  00209	e9 62 ff ff ff	 jmp	 $LN1@LoadResour
_TEXT	ENDS
;	COMDAT text$x
text$x	SEGMENT
__unwindfunclet$?LoadResourceDLL@CResourceDllManager@@QAEPAUHINSTANCE__@@PAU2@W4E_LANGUAGEID@IMetaTable@@@Z$1:
  00000	8d 8d cc fc ff
	ff		 lea	 ecx, DWORD PTR $T2[ebp]
  00006	ff 25 00 00 00
	00		 jmp	 DWORD PTR __imp_??1?$CStringT@DV?$StrTraitMFC_DLL@DV?$ChTraitsCRT@D@ATL@@@@@ATL@@QAE@XZ
  0000c	cc		 int	 3
  0000d	cc		 int	 3
  0000e	cc		 int	 3
  0000f	cc		 int	 3
  00010	cc		 int	 3
__ehhandler$?LoadResourceDLL@CResourceDllManager@@QAEPAUHINSTANCE__@@PAU2@W4E_LANGUAGEID@IMetaTable@@@Z:
  00011	90		 npad	 1
  00012	90		 npad	 1
  00013	8b 54 24 08	 mov	 edx, DWORD PTR [esp+8]
  00017	8d 42 0c	 lea	 eax, DWORD PTR [edx+12]
  0001a	8b 8a c0 fc ff
	ff		 mov	 ecx, DWORD PTR [edx-832]
  00020	33 c8		 xor	 ecx, eax
  00022	e8 00 00 00 00	 call	 @__security_check_cookie@4
  00027	8b 4a fc	 mov	 ecx, DWORD PTR [edx-4]
  0002a	33 c8		 xor	 ecx, eax
  0002c	e8 00 00 00 00	 call	 @__security_check_cookie@4
  00031	b8 00 00 00 00	 mov	 eax, OFFSET __ehfuncinfo$?LoadResourceDLL@CResourceDllManager@@QAEPAUHINSTANCE__@@PAU2@W4E_LANGUAGEID@IMetaTable@@@Z
  00036	e9 00 00 00 00	 jmp	 ___CxxFrameHandler3
text$x	ENDS
?LoadResourceDLL@CResourceDllManager@@QAEPAUHINSTANCE__@@PAU2@W4E_LANGUAGEID@IMetaTable@@@Z ENDP ; CResourceDllManager::LoadResourceDLL
; Function compile flags: /Ogtp
; File C:\Program Files (x86)\Microsoft Visual Studio\2019\Community\VC\Tools\MSVC\14.29.30133\atlmfc\include\afx.inl
;	COMDAT ??_G?$CTypedPtrMap@VCMapStringToPtr@@V?$CStringT@DV?$StrTraitMFC_DLL@DV?$ChTraitsCRT@D@ATL@@@@@ATL@@PAY01PAUHINSTANCE__@@@@UAEPAXI@Z
_TEXT	SEGMENT
___flags$ = 8						; size = 4
??_G?$CTypedPtrMap@VCMapStringToPtr@@V?$CStringT@DV?$StrTraitMFC_DLL@DV?$ChTraitsCRT@D@ATL@@@@@ATL@@PAY01PAUHINSTANCE__@@@@UAEPAXI@Z PROC ; CTypedPtrMap<CMapStringToPtr,ATL::CStringT<char,StrTraitMFC_DLL<char,ATL::ChTraitsCRT<char> > >,HINSTANCE__ * (*)[2]>::`scalar deleting destructor', COMDAT
; _this$ = ecx
  00000	55		 push	 ebp
  00001	8b ec		 mov	 ebp, esp
  00003	56		 push	 esi
  00004	8b f1		 mov	 esi, ecx
  00006	e8 00 00 00 00	 call	 ??1CMapStringToPtr@@UAE@XZ ; CMapStringToPtr::~CMapStringToPtr
  0000b	8b 45 08	 mov	 eax, DWORD PTR ___flags$[ebp]
  0000e	a8 01		 test	 al, 1
  00010	74 1f		 je	 SHORT $LN12@scalar
  00012	a8 04		 test	 al, 4
  00014	75 10		 jne	 SHORT $LN3@scalar

; 112  : 	{ ::operator delete(p); }

  00016	56		 push	 esi
  00017	e8 00 00 00 00	 call	 ??3@YAXPAX@Z		; operator delete
  0001c	83 c4 04	 add	 esp, 4
  0001f	8b c6		 mov	 eax, esi
  00021	5e		 pop	 esi
  00022	5d		 pop	 ebp
  00023	c2 04 00	 ret	 4
$LN3@scalar:
  00026	6a 1c		 push	 28			; 0000001cH
  00028	56		 push	 esi
  00029	e8 00 00 00 00	 call	 ?__global_delete@@YAXPAXI@Z ; __global_delete
  0002e	83 c4 08	 add	 esp, 8
$LN12@scalar:
  00031	8b c6		 mov	 eax, esi
  00033	5e		 pop	 esi
  00034	5d		 pop	 ebp
  00035	c2 04 00	 ret	 4
??_G?$CTypedPtrMap@VCMapStringToPtr@@V?$CStringT@DV?$StrTraitMFC_DLL@DV?$ChTraitsCRT@D@ATL@@@@@ATL@@PAY01PAUHINSTANCE__@@@@UAEPAXI@Z ENDP ; CTypedPtrMap<CMapStringToPtr,ATL::CStringT<char,StrTraitMFC_DLL<char,ATL::ChTraitsCRT<char> > >,HINSTANCE__ * (*)[2]>::`scalar deleting destructor'
_TEXT	ENDS
; Function compile flags: /Ogtp
; File D:\git\src\IBK\IBK_DRFN\ProjSrc\SrcChartEx\ChartOCX\ChartLanguageTable\ResourceDllManager.cpp
;	COMDAT ??1CResourceDllManager@@UAE@XZ
_TEXT	SEGMENT
??1CResourceDllManager@@UAE@XZ PROC			; CResourceDllManager::~CResourceDllManager, COMDAT
; _this$ = ecx

; 33   : {

  00000	c7 01 00 00 00
	00		 mov	 DWORD PTR [ecx], OFFSET ??_7CResourceDllManager@@6B@

; 34   : }

  00006	83 c1 04	 add	 ecx, 4
  00009	e9 00 00 00 00	 jmp	 ??1CMapStringToPtr@@UAE@XZ ; CMapStringToPtr::~CMapStringToPtr
??1CResourceDllManager@@UAE@XZ ENDP			; CResourceDllManager::~CResourceDllManager
_TEXT	ENDS
; Function compile flags: /Ogtp
; File D:\git\src\IBK\IBK_DRFN\ProjSrc\SrcChartEx\ChartOCX\ChartLanguageTable\ResourceDllManager.cpp
; File C:\Program Files (x86)\Microsoft Visual Studio\2019\Community\VC\Tools\MSVC\14.29.30133\atlmfc\include\afxtempl.h
; File D:\git\src\IBK\IBK_DRFN\ProjSrc\SrcChartEx\ChartOCX\ChartLanguageTable\ResourceDllManager.cpp
; File C:\Program Files (x86)\Microsoft Visual Studio\2019\Community\VC\Tools\MSVC\14.29.30133\atlmfc\include\afxtempl.h
; File D:\git\src\IBK\IBK_DRFN\ProjSrc\SrcChartEx\ChartOCX\ChartLanguageTable\ResourceDllManager.cpp
; File C:\Program Files (x86)\Microsoft Visual Studio\2019\Community\VC\Tools\MSVC\14.29.30133\atlmfc\include\afxtempl.h
; File D:\git\src\IBK\IBK_DRFN\ProjSrc\SrcChartEx\ChartOCX\ChartLanguageTable\ResourceDllManager.cpp
; File C:\Program Files (x86)\Microsoft Visual Studio\2019\Community\VC\Tools\MSVC\14.29.30133\atlmfc\include\afxtempl.h
; File D:\git\src\IBK\IBK_DRFN\ProjSrc\SrcChartEx\ChartOCX\ChartLanguageTable\ResourceDllManager.cpp
;	COMDAT ??0CResourceDllManager@@QAE@XZ
_TEXT	SEGMENT
_this$ = -4						; size = 4
_this$ = -4						; size = 4
??0CResourceDllManager@@QAE@XZ PROC			; CResourceDllManager::CResourceDllManager, COMDAT
; _this$ = ecx

; 28   : {

  00000	55		 push	 ebp
  00001	8b ec		 mov	 ebp, esp
  00003	51		 push	 ecx
  00004	56		 push	 esi
  00005	57		 push	 edi
  00006	8b f9		 mov	 edi, ecx
  00008	89 7d fc	 mov	 DWORD PTR _this$[ebp], edi
; File C:\Program Files (x86)\Microsoft Visual Studio\2019\Community\VC\Tools\MSVC\14.29.30133\atlmfc\include\afxtempl.h

; 2048 : 		: BASE_CLASS(nBlockSize) { }

  0000b	6a 0a		 push	 10			; 0000000aH
; File D:\git\src\IBK\IBK_DRFN\ProjSrc\SrcChartEx\ChartOCX\ChartLanguageTable\ResourceDllManager.cpp

; 28   : {

  0000d	8d 77 04	 lea	 esi, DWORD PTR [edi+4]
  00010	c7 07 00 00 00
	00		 mov	 DWORD PTR [edi], OFFSET ??_7CResourceDllManager@@6B@
; File C:\Program Files (x86)\Microsoft Visual Studio\2019\Community\VC\Tools\MSVC\14.29.30133\atlmfc\include\afxtempl.h

; 2048 : 		: BASE_CLASS(nBlockSize) { }

  00016	8b ce		 mov	 ecx, esi
; File D:\git\src\IBK\IBK_DRFN\ProjSrc\SrcChartEx\ChartOCX\ChartLanguageTable\ResourceDllManager.cpp

; 28   : {

  00018	89 75 fc	 mov	 DWORD PTR _this$[ebp], esi
; File C:\Program Files (x86)\Microsoft Visual Studio\2019\Community\VC\Tools\MSVC\14.29.30133\atlmfc\include\afxtempl.h

; 2048 : 		: BASE_CLASS(nBlockSize) { }

  0001b	e8 00 00 00 00	 call	 ??0CMapStringToPtr@@QAE@H@Z ; CMapStringToPtr::CMapStringToPtr
; File D:\git\src\IBK\IBK_DRFN\ProjSrc\SrcChartEx\ChartOCX\ChartLanguageTable\ResourceDllManager.cpp

; 30   : }

  00020	8b c7		 mov	 eax, edi
; File C:\Program Files (x86)\Microsoft Visual Studio\2019\Community\VC\Tools\MSVC\14.29.30133\atlmfc\include\afxtempl.h

; 2048 : 		: BASE_CLASS(nBlockSize) { }

  00022	c7 06 00 00 00
	00		 mov	 DWORD PTR [esi], OFFSET ??_7?$CTypedPtrMap@VCMapStringToPtr@@V?$CStringT@DV?$StrTraitMFC_DLL@DV?$ChTraitsCRT@D@ATL@@@@@ATL@@PAY01PAUHINSTANCE__@@@@6B@
; File D:\git\src\IBK\IBK_DRFN\ProjSrc\SrcChartEx\ChartOCX\ChartLanguageTable\ResourceDllManager.cpp

; 30   : }

  00028	5f		 pop	 edi
  00029	5e		 pop	 esi
  0002a	8b e5		 mov	 esp, ebp
  0002c	5d		 pop	 ebp
  0002d	c3		 ret	 0
??0CResourceDllManager@@QAE@XZ ENDP			; CResourceDllManager::CResourceDllManager
_TEXT	ENDS
; Function compile flags: /Ogtp
; File C:\Program Files (x86)\Microsoft Visual Studio\2019\Community\VC\Tools\MSVC\14.29.30133\atlmfc\include\afx.inl
;	COMDAT ?Dump@CObject@@UBEXAAVCDumpContext@@@Z
_TEXT	SEGMENT
___formal$ = 8						; size = 4
?Dump@CObject@@UBEXAAVCDumpContext@@@Z PROC		; CObject::Dump, COMDAT
; _this$ = ecx

; 122  : 	{ /* no dumping in release builds */ }

  00000	c2 04 00	 ret	 4
?Dump@CObject@@UBEXAAVCDumpContext@@@Z ENDP		; CObject::Dump
_TEXT	ENDS
; Function compile flags: /Ogtp
; File C:\Program Files (x86)\Microsoft Visual Studio\2019\Community\VC\Tools\MSVC\14.29.30133\atlmfc\include\afx.inl
;	COMDAT ?AssertValid@CObject@@UBEXXZ
_TEXT	SEGMENT
?AssertValid@CObject@@UBEXXZ PROC			; CObject::AssertValid, COMDAT
; _this$ = ecx

; 120  : 	{ /* no asserts in release builds */ }

  00000	c2 00 00	 ret	 0
?AssertValid@CObject@@UBEXXZ ENDP			; CObject::AssertValid
_TEXT	ENDS
; Function compile flags: /Ogtp
; File C:\Program Files (x86)\Microsoft Visual Studio\2019\Community\VC\Tools\MSVC\14.29.30133\atlmfc\include\afx.inl
;	COMDAT ?Serialize@CObject@@UAEXAAVCArchive@@@Z
_TEXT	SEGMENT
___formal$ = 8						; size = 4
?Serialize@CObject@@UAEXAAVCArchive@@@Z PROC		; CObject::Serialize, COMDAT
; _this$ = ecx

; 106  : 	{ /* CObject does not serialize anything by default */ }

  00000	c2 04 00	 ret	 4
?Serialize@CObject@@UAEXAAVCArchive@@@Z ENDP		; CObject::Serialize
_TEXT	ENDS
; Function compile flags: /Ogtp
; File D:\git\src\IBK\IBK_DRFN\ProjSrc\SrcChartEx\ChartOCX\ChartLanguageTable\ResourceDllManager.cpp
;	COMDAT ?__empty_global_delete@@YAXPAXI@Z
_TEXT	SEGMENT
___formal$ = 8						; size = 4
___formal$ = 12						; size = 4
?__empty_global_delete@@YAXPAXI@Z PROC			; __empty_global_delete, COMDAT

  00000	c2 00 00	 ret	 0
?__empty_global_delete@@YAXPAXI@Z ENDP			; __empty_global_delete
_TEXT	ENDS
; Function compile flags: /Ogtp
; File D:\git\src\IBK\IBK_DRFN\ProjSrc\SrcChartEx\ChartOCX\ChartLanguageTable\ResourceDllManager.cpp
;	COMDAT ?__empty_global_delete@@YAXPAX@Z
_TEXT	SEGMENT
___formal$ = 8						; size = 4
?__empty_global_delete@@YAXPAX@Z PROC			; __empty_global_delete, COMDAT

  00000	c2 00 00	 ret	 0
?__empty_global_delete@@YAXPAX@Z ENDP			; __empty_global_delete
_TEXT	ENDS
END
