; Listing generated by Microsoft (R) Optimizing Compiler Version 19.29.30145.0 

	TITLE	D:\git\src\IBK\IBK_DRFN\#DRfn-CS\_Obj\HWStrategyConfigureWizard\_STLoadmanager.obj
	.686P
	.XMM
	include listing.inc
	.model	flat

INCLUDELIB MSVCRT
INCLUDELIB OLDNAMES

PUBLIC	??_C@_0BB@GOOPDKI@RMSG_GETPCTRDATA@		; `string'
;	COMDAT ??_C@_0BB@GOOPDKI@RMSG_GETPCTRDATA@
CONST	SEGMENT
??_C@_0BB@GOOPDKI@RMSG_GETPCTRDATA@ DB 'RMSG_GETPCTRDATA', 00H ; `string'
CONST	ENDS
PUBLIC	?__empty_global_delete@@YAXPAX@Z		; __empty_global_delete
PUBLIC	?__empty_global_delete@@YAXPAXI@Z		; __empty_global_delete
PUBLIC	___local_stdio_printf_options
PUBLIC	___local_stdio_scanf_options
PUBLIC	_sprintf
PUBLIC	_sscanf
PUBLIC	??1CObject@@UAE@XZ				; CObject::~CObject
PUBLIC	??3CObject@@SGXPAX@Z				; CObject::operator delete
PUBLIC	?Serialize@CObject@@UAEXAAVCArchive@@@Z		; CObject::Serialize
PUBLIC	?AssertValid@CObject@@UBEXXZ			; CObject::AssertValid
PUBLIC	?Dump@CObject@@UBEXAAVCDumpContext@@@Z		; CObject::Dump
PUBLIC	?Init@CSTLoadManager@@UAGXHV?$CStringT@DV?$StrTraitMFC_DLL@DV?$ChTraitsCRT@D@ATL@@@@@ATL@@PAVCImageList@@@Z ; CSTLoadManager::Init
PUBLIC	?LoadST@CSTLoadManager@@UAGXPAVCWnd@@PAVCStringArray@@KH@Z ; CSTLoadManager::LoadST
PUBLIC	?UnloadST@CSTLoadManager@@UAGHXZ		; CSTLoadManager::UnloadST
PUBLIC	?SearchST@CSTLoadManager@@UAGHV?$CStringT@DV?$StrTraitMFC_DLL@DV?$ChTraitsCRT@D@ATL@@@@@ATL@@AAVCStringArray@@@Z ; CSTLoadManager::SearchST
PUBLIC	?UpdateST@CSTLoadManager@@UAGHHV?$CStringT@DV?$StrTraitMFC_DLL@DV?$ChTraitsCRT@D@ATL@@@@@ATL@@@Z ; CSTLoadManager::UpdateST
PUBLIC	?GetFolderST@CSTLoadManager@@UAGHK@Z		; CSTLoadManager::GetFolderST
PUBLIC	?GetItemST@CSTLoadManager@@UAGHK@Z		; CSTLoadManager::GetItemST
PUBLIC	?SetSelectedItem@CSTLoadManager@@UAGXHH@Z	; CSTLoadManager::SetSelectedItem
PUBLIC	?SetUseBoldFont@CSTLoadManager@@UAGXH@Z		; CSTLoadManager::SetUseBoldFont
PUBLIC	?LoadST2@CSTLoadManager@@UAGXPAVCWnd@@PAVCStringArray@@KHH@Z ; CSTLoadManager::LoadST2
PUBLIC	?SetSelectedItem@CSTLoadManager@@UAGXPAUSTMNG_ITEMINFO@@@Z ; CSTLoadManager::SetSelectedItem
PUBLIC	??0CSTLoadManager@@QAE@XZ			; CSTLoadManager::CSTLoadManager
PUBLIC	?GetSelectedItem@CSTLoadManager@@QAEHAAUSTMNG_ITEMINFO@@@Z ; CSTLoadManager::GetSelectedItem
PUBLIC	?DeleteSTFile@CSTLoadManager@@QAEXHV?$CStringT@DV?$StrTraitMFC_DLL@DV?$ChTraitsCRT@D@ATL@@@@@ATL@@@Z ; CSTLoadManager::DeleteSTFile
PUBLIC	?GetRunSTItemInfo@CSTLoadManager@@QAEHV?$CStringT@DV?$StrTraitMFC_DLL@DV?$ChTraitsCRT@D@ATL@@@@@ATL@@AAUSTMNG_ITEMINFO@@@Z ; CSTLoadManager::GetRunSTItemInfo
PUBLIC	?LoadSTList@CSTLoadManager@@IAEXH@Z		; CSTLoadManager::LoadSTList
PUBLIC	?LoadSTListFromSTIndex@CSTLoadManager@@IAEXHH@Z	; CSTLoadManager::LoadSTListFromSTIndex
PUBLIC	?IsSTTypeToLoad@CSTLoadManager@@IAEHAAV?$CStringT@DV?$StrTraitMFC_DLL@DV?$ChTraitsCRT@D@ATL@@@@@ATL@@0@Z ; CSTLoadManager::IsSTTypeToLoad
PUBLIC	?AddFolder@CSTLoadManager@@IAEXPBD0@Z		; CSTLoadManager::AddFolder
PUBLIC	?AddSTFile@CSTLoadManager@@IAEXPBD0@Z		; CSTLoadManager::AddSTFile
PUBLIC	?GetFolderName@CSTLoadManager@@IAEXV?$CStringT@DV?$StrTraitMFC_DLL@DV?$ChTraitsCRT@D@ATL@@@@@ATL@@AAV23@@Z ; CSTLoadManager::GetFolderName
PUBLIC	?GetFolderIndexFromFolderName@CSTLoadManager@@IAEHV?$CStringT@DV?$StrTraitMFC_DLL@DV?$ChTraitsCRT@D@ATL@@@@@ATL@@@Z ; CSTLoadManager::GetFolderIndexFromFolderName
PUBLIC	?DirectorySearch@CSTLoadManager@@IAEHPBD0H@Z	; CSTLoadManager::DirectorySearch
PUBLIC	?LoadSTFolderList@CSTLoadManager@@IAEXPBD0H@Z	; CSTLoadManager::LoadSTFolderList
PUBLIC	?GetSTFileList@CSTLoadManager@@KAHPBDHPAV?$CList@PAUSTFILEITEM@@PAU1@@@@Z ; CSTLoadManager::GetSTFileList
PUBLIC	?GetSTFileList@CSTLoadManager@@KAHPBDAAVCStringArray@@@Z ; CSTLoadManager::GetSTFileList
PUBLIC	?AddTail@?$CList@PAUSTMNG_ITEMINFO@@PAU1@@@QAEPAU__POSITION@@PAUSTMNG_ITEMINFO@@@Z ; CList<STMNG_ITEMINFO *,STMNG_ITEMINFO *>::AddTail
PUBLIC	?NewNode@?$CList@PAUSTMNG_ITEMINFO@@PAU1@@@IAEPAUCNode@1@PAU21@0@Z ; CList<STMNG_ITEMINFO *,STMNG_ITEMINFO *>::NewNode
PUBLIC	??0?$CList@PAUSTFILEITEM@@PAU1@@@QAE@H@Z	; CList<STFILEITEM *,STFILEITEM *>::CList<STFILEITEM *,STFILEITEM *>
PUBLIC	?AddTail@?$CList@PAUSTFILEITEM@@PAU1@@@QAEPAU__POSITION@@PAUSTFILEITEM@@@Z ; CList<STFILEITEM *,STFILEITEM *>::AddTail
PUBLIC	?RemoveAll@?$CList@PAUSTFILEITEM@@PAU1@@@QAEXXZ	; CList<STFILEITEM *,STFILEITEM *>::RemoveAll
PUBLIC	?NewNode@?$CList@PAUSTFILEITEM@@PAU1@@@IAEPAUCNode@1@PAU21@0@Z ; CList<STFILEITEM *,STFILEITEM *>::NewNode
PUBLIC	??1?$CList@PAUSTFILEITEM@@PAU1@@@UAE@XZ		; CList<STFILEITEM *,STFILEITEM *>::~CList<STFILEITEM *,STFILEITEM *>
PUBLIC	?Serialize@?$CList@PAUSTFILEITEM@@PAU1@@@UAEXAAVCArchive@@@Z ; CList<STFILEITEM *,STFILEITEM *>::Serialize
PUBLIC	??_G?$CList@PAUSTFILEITEM@@PAU1@@@UAEPAXI@Z	; CList<STFILEITEM *,STFILEITEM *>::`scalar deleting destructor'
PUBLIC	??$SerializeElements@PAUSTFILEITEM@@@@YGXAAVCArchive@@PAPAUSTFILEITEM@@H@Z ; SerializeElements<STFILEITEM *>
PUBLIC	?_OptionsStorage@?1??__local_stdio_printf_options@@9@4_KA ; `__local_stdio_printf_options'::`2'::_OptionsStorage
PUBLIC	?_OptionsStorage@?1??__local_stdio_scanf_options@@9@4_KA ; `__local_stdio_scanf_options'::`2'::_OptionsStorage
PUBLIC	??_C@_02DPKJAMEF@?$CFd@				; `string'
PUBLIC	??_C@_00CNPNBAHC@@				; `string'
PUBLIC	??_C@_0M@CBBNGGHM@PcTrMng?4dll@			; `string'
PUBLIC	??_C@_0P@IDMAJEGN@HANAROPCTRMAIN@		; `string'
PUBLIC	??_C@_06NDLAHCHE@?$CFs?$CF08X@			; `string'
PUBLIC	??_C@_02EMFKHFLK@?$CFX@				; `string'
PUBLIC	??_R0?AVCObject@@@8				; CObject `RTTI Type Descriptor'
PUBLIC	??_R3CObject@@8					; CObject::`RTTI Class Hierarchy Descriptor'
PUBLIC	??_R2CObject@@8					; CObject::`RTTI Base Class Array'
PUBLIC	??_R1A@?0A@EA@CObject@@8			; CObject::`RTTI Base Class Descriptor at (0,-1,0,64)'
PUBLIC	??_7ISTLoadManager@@6B@				; ISTLoadManager::`vftable'
PUBLIC	??_7CSTLoadManager@@6B@				; CSTLoadManager::`vftable'
PUBLIC	??_C@_05BMGBEOOC@?$CFs?2?$CFs@			; `string'
PUBLIC	??_C@_03EMIMMIHL@?$CK?4?$CK@			; `string'
PUBLIC	??_C@_04ECGMOPPD@?$CK?4ST@			; `string'
PUBLIC	??_C@_03COHLPAFH@?4ST@				; `string'
PUBLIC	??_C@_02DKCKIIND@?$CFs@				; `string'
PUBLIC	??_C@_05NFGPCJDJ@?$CFd?3?$CFd@			; `string'
PUBLIC	??_C@_0P@EACIJNAL@?$LL?g?$LP?k?$MA?Z?$LA?$KN?$LM?$LM?$LO?$OA?$LM?$LM@ ; `string'
PUBLIC	??_C@_0P@GKBMMIPA@?$LL?g?$LP?k?$MA?Z?$LE?$NM?$MA?$KH?$MA?$PM?$LH?$KL@ ; `string'
PUBLIC	??_C@_0L@DLNLHHBM@?$LL?g?$LP?k?$MA?Z?A?v?G?$KF@	; `string'
PUBLIC	??_C@_0P@BCEOGAFN@?$LL?g?$LP?k?$MA?Z?A?$LG?G?U?$MA?$PM?$LH?$KL@ ; `string'
PUBLIC	??_C@_0L@LHMOIOEP@?$CFs?2?$CFs?2?$CFs?$CFs@	; `string'
PUBLIC	??_C@_06GNAFJLOE@?$CFs?$CFc?$CFd@		; `string'
PUBLIC	??_C@_0BI@JGCPDNC@?$CFs?2STData?2VarOptima?4cfg@ ; `string'
PUBLIC	??_C@_0M@FDALMHON@STIndex?4dat@			; `string'
PUBLIC	??_C@_04PCOPKCKE@LIST@				; `string'
PUBLIC	??_C@_05IJGIMMHE@Count@				; `string'
PUBLIC	??_C@_08BHLLDOMG@?$LA?$KN?$LM?$LM?$LO?$OA?$LM?$LM@ ; `string'
PUBLIC	??_C@_0P@KLCPEEFK@RealFolderName@		; `string'
PUBLIC	??_C@_01KICIPPFI@?2@				; `string'
PUBLIC	??_C@_07NGFJPNPN@Version@			; `string'
PUBLIC	??_C@_01JKBOJNNK@?$FO@				; `string'
PUBLIC	??_C@_08OOJOHCD@?$CFs?2?$CFs?4ST@		; `string'
PUBLIC	??_7?$CList@PAUSTFILEITEM@@PAU1@@@6B@		; CList<STFILEITEM *,STFILEITEM *>::`vftable'
PUBLIC	??_C@_07MHLIEPKG@?$CFs?2?$CFs?$CFs@		; `string'
PUBLIC	??_R4ISTLoadManager@@6B@			; ISTLoadManager::`RTTI Complete Object Locator'
PUBLIC	??_R0?AUISTLoadManager@@@8			; ISTLoadManager `RTTI Type Descriptor'
PUBLIC	??_R3ISTLoadManager@@8				; ISTLoadManager::`RTTI Class Hierarchy Descriptor'
PUBLIC	??_R2ISTLoadManager@@8				; ISTLoadManager::`RTTI Base Class Array'
PUBLIC	??_R1A@?0A@EA@ISTLoadManager@@8			; ISTLoadManager::`RTTI Base Class Descriptor at (0,-1,0,64)'
PUBLIC	??_R0?AUISTLoadManager2@@@8			; ISTLoadManager2 `RTTI Type Descriptor'
PUBLIC	??_R3ISTLoadManager2@@8				; ISTLoadManager2::`RTTI Class Hierarchy Descriptor'
PUBLIC	??_R2ISTLoadManager2@@8				; ISTLoadManager2::`RTTI Base Class Array'
PUBLIC	??_R1A@?0A@EA@ISTLoadManager2@@8		; ISTLoadManager2::`RTTI Base Class Descriptor at (0,-1,0,64)'
PUBLIC	??_R4?$CList@PAUSTFILEITEM@@PAU1@@@6B@		; CList<STFILEITEM *,STFILEITEM *>::`RTTI Complete Object Locator'
PUBLIC	??_R0?AV?$CList@PAUSTFILEITEM@@PAU1@@@@8	; CList<STFILEITEM *,STFILEITEM *> `RTTI Type Descriptor'
PUBLIC	??_R3?$CList@PAUSTFILEITEM@@PAU1@@@8		; CList<STFILEITEM *,STFILEITEM *>::`RTTI Class Hierarchy Descriptor'
PUBLIC	??_R2?$CList@PAUSTFILEITEM@@PAU1@@@8		; CList<STFILEITEM *,STFILEITEM *>::`RTTI Base Class Array'
PUBLIC	??_R1A@?0A@EA@?$CList@PAUSTFILEITEM@@PAU1@@@8	; CList<STFILEITEM *,STFILEITEM *>::`RTTI Base Class Descriptor at (0,-1,0,64)'
PUBLIC	??_R4CSTLoadManager@@6B@			; CSTLoadManager::`RTTI Complete Object Locator'
PUBLIC	??_R0?AVCSTLoadManager@@@8			; CSTLoadManager `RTTI Type Descriptor'
PUBLIC	??_R3CSTLoadManager@@8				; CSTLoadManager::`RTTI Class Hierarchy Descriptor'
PUBLIC	??_R2CSTLoadManager@@8				; CSTLoadManager::`RTTI Base Class Array'
PUBLIC	??_R1A@?0A@EA@CSTLoadManager@@8			; CSTLoadManager::`RTTI Base Class Descriptor at (0,-1,0,64)'
EXTRN	__purecall:PROC
EXTRN	??2@YAPAXI@Z:PROC				; operator new
EXTRN	??3@YAXPAX@Z:PROC				; operator delete
EXTRN	??3@YAXPAXI@Z:PROC				; operator delete
EXTRN	?__global_delete@@YAXPAXI@Z:PROC		; __global_delete
EXTRN	___std_terminate:PROC
EXTRN	__imp___strupr:PROC
EXTRN	__imp__GetEnvironmentVariableA@12:PROC
EXTRN	__imp__GetModuleHandleA@4:PROC
EXTRN	__imp__GetPrivateProfileIntA@16:PROC
EXTRN	__imp__GetPrivateProfileStringA@24:PROC
EXTRN	__imp__RegisterWindowMessageA@4:PROC
EXTRN	__imp__SendMessageA@16:PROC
EXTRN	__imp____stdio_common_vsprintf:PROC
EXTRN	__imp____stdio_common_vsscanf:PROC
EXTRN	__imp__atoi:PROC
EXTRN	__imp__atol:PROC
EXTRN	?AfxThrowInvalidArgException@@YGXXZ:PROC	; AfxThrowInvalidArgException
EXTRN	?AfxThrowArchiveException@@YGXHPBD@Z:PROC	; AfxThrowArchiveException
EXTRN	?GetRuntimeClass@CObject@@UBEPAUCRuntimeClass@@XZ:PROC ; CObject::GetRuntimeClass
EXTRN	__imp_??A?$CSimpleStringT@D$00@ATL@@QBEDH@Z:PROC
EXTRN	__imp_?Empty@?$CSimpleStringT@D$00@ATL@@QAEXXZ:PROC
EXTRN	__imp_?Concatenate@?$CSimpleStringT@D$00@ATL@@KAXAAV12@PBDH1H@Z:PROC
EXTRN	__imp_??0?$CStringT@DV?$StrTraitMFC_DLL@DV?$ChTraitsCRT@D@ATL@@@@@ATL@@QAE@XZ:PROC
EXTRN	__imp_??0?$CStringT@DV?$StrTraitMFC_DLL@DV?$ChTraitsCRT@D@ATL@@@@@ATL@@QAE@PAUIAtlStringMgr@1@@Z:PROC
EXTRN	__imp_??0?$CStringT@DV?$StrTraitMFC_DLL@DV?$ChTraitsCRT@D@ATL@@@@@ATL@@QAE@ABV01@@Z:PROC
EXTRN	__imp_??0?$CStringT@DV?$StrTraitMFC_DLL@DV?$ChTraitsCRT@D@ATL@@@@@ATL@@QAE@PBD@Z:PROC
EXTRN	__imp_??1?$CStringT@DV?$StrTraitMFC_DLL@DV?$ChTraitsCRT@D@ATL@@@@@ATL@@QAE@XZ:PROC
EXTRN	__imp_??4?$CStringT@DV?$StrTraitMFC_DLL@DV?$ChTraitsCRT@D@ATL@@@@@ATL@@QAEAAV01@ABV01@@Z:PROC
EXTRN	__imp_??4?$CStringT@DV?$StrTraitMFC_DLL@DV?$ChTraitsCRT@D@ATL@@@@@ATL@@QAEAAV01@PBD@Z:PROC
EXTRN	__imp_?GetManager@?$CStringT@DV?$StrTraitMFC_DLL@DV?$ChTraitsCRT@D@ATL@@@@@ATL@@QBEPAUIAtlStringMgr@2@XZ:PROC
EXTRN	__imp_?Compare@?$CStringT@DV?$StrTraitMFC_DLL@DV?$ChTraitsCRT@D@ATL@@@@@ATL@@QBEHPBD@Z:PROC
EXTRN	__imp_?CompareNoCase@?$CStringT@DV?$StrTraitMFC_DLL@DV?$ChTraitsCRT@D@ATL@@@@@ATL@@QBEHPBD@Z:PROC
EXTRN	__imp_?Delete@?$CStringT@DV?$StrTraitMFC_DLL@DV?$ChTraitsCRT@D@ATL@@@@@ATL@@QAEHHH@Z:PROC
EXTRN	__imp_?Find@?$CStringT@DV?$StrTraitMFC_DLL@DV?$ChTraitsCRT@D@ATL@@@@@ATL@@QBEHDH@Z:PROC
EXTRN	__imp_?Find@?$CStringT@DV?$StrTraitMFC_DLL@DV?$ChTraitsCRT@D@ATL@@@@@ATL@@QBEHPBDH@Z:PROC
EXTRN	__imp_?ReverseFind@?$CStringT@DV?$StrTraitMFC_DLL@DV?$ChTraitsCRT@D@ATL@@@@@ATL@@QBEHD@Z:PROC
EXTRN	__imp_?MakeUpper@?$CStringT@DV?$StrTraitMFC_DLL@DV?$ChTraitsCRT@D@ATL@@@@@ATL@@QAEAAV12@XZ:PROC
EXTRN	__imp_?Mid@?$CStringT@DV?$StrTraitMFC_DLL@DV?$ChTraitsCRT@D@ATL@@@@@ATL@@QBE?AV12@H@Z:PROC
EXTRN	__imp_?Mid@?$CStringT@DV?$StrTraitMFC_DLL@DV?$ChTraitsCRT@D@ATL@@@@@ATL@@QBE?AV12@HH@Z:PROC
EXTRN	__imp_?Left@?$CStringT@DV?$StrTraitMFC_DLL@DV?$ChTraitsCRT@D@ATL@@@@@ATL@@QBE?AV12@H@Z:PROC
EXTRN	__imp_?Format@?$CStringT@DV?$StrTraitMFC_DLL@DV?$ChTraitsCRT@D@ATL@@@@@ATL@@QAAXPBDZZ:PROC
EXTRN	??0CFileFind@@QAE@XZ:PROC			; CFileFind::CFileFind
EXTRN	??1CFileFind@@UAE@XZ:PROC			; CFileFind::~CFileFind
EXTRN	?GetFileName@CFileFind@@UBE?AV?$CStringT@DV?$StrTraitMFC_DLL@DV?$ChTraitsCRT@D@ATL@@@@@ATL@@XZ:PROC ; CFileFind::GetFileName
EXTRN	?IsDots@CFileFind@@UBEHXZ:PROC			; CFileFind::IsDots
EXTRN	?FindFile@CFileFind@@UAEHPBDK@Z:PROC		; CFileFind::FindFile
EXTRN	?FindNextFileA@CFileFind@@UAEHXZ:PROC		; CFileFind::FindNextFileA
EXTRN	?Read@CArchive@@QAEIPAXI@Z:PROC			; CArchive::Read
EXTRN	?Write@CArchive@@QAEXPBXI@Z:PROC		; CArchive::Write
EXTRN	?ReadCount@CArchive@@QAEKXZ:PROC		; CArchive::ReadCount
EXTRN	?WriteCount@CArchive@@QAEXK@Z:PROC		; CArchive::WriteCount
EXTRN	??0CStringArray@@QAE@XZ:PROC			; CStringArray::CStringArray
EXTRN	?SetSize@CStringArray@@QAEXHH@Z:PROC		; CStringArray::SetSize
EXTRN	?SetAtGrow@CStringArray@@QAEXHABV?$CStringT@DV?$StrTraitMFC_DLL@DV?$ChTraitsCRT@D@ATL@@@@@ATL@@@Z:PROC ; CStringArray::SetAtGrow
EXTRN	??1CStringArray@@UAE@XZ:PROC			; CStringArray::~CStringArray
EXTRN	?Create@CPlex@@SGPAU1@AAPAU1@II@Z:PROC		; CPlex::Create
EXTRN	?FreeDataChain@CPlex@@QAEXXZ:PROC		; CPlex::FreeDataChain
EXTRN	?FromHandle@CImageList@@SGPAV1@PAU_IMAGELIST@@@Z:PROC ; CImageList::FromHandle
EXTRN	?Create@CListCtrl@@QAEHKABUtagRECT@@PAVCWnd@@I@Z:PROC ; CListCtrl::Create
EXTRN	?SetItem@CListCtrl@@QAEHHHIPBDHIIJ@Z:PROC	; CListCtrl::SetItem
EXTRN	?SetItemState@CListCtrl@@QAEHHII@Z:PROC		; CListCtrl::SetItemState
EXTRN	?GetItemText@CListCtrl@@QBE?AV?$CStringT@DV?$StrTraitMFC_DLL@DV?$ChTraitsCRT@D@ATL@@@@@ATL@@HH@Z:PROC ; CListCtrl::GetItemText
EXTRN	?GetItemData@CListCtrl@@QBEKH@Z:PROC		; CListCtrl::GetItemData
EXTRN	?InsertColumn@CListCtrl@@QAEHHPBDHHH@Z:PROC	; CListCtrl::InsertColumn
EXTRN	?InsertItem@CListCtrl@@QAEHIHPBDIIHJ@Z:PROC	; CListCtrl::InsertItem
EXTRN	?DeleteAllFolder@CSTGfxOutBarCtrl@@QAEXXZ:PROC	; CSTGfxOutBarCtrl::DeleteAllFolder
EXTRN	?GetFolderChild@CSTGfxOutBarCtrl@@QAEPAVCWnd@@H@Z:PROC ; CSTGfxOutBarCtrl::GetFolderChild
EXTRN	?AddFolderBar@CSTGfxOutBarCtrl@@QAEHPBDPAVCWnd@@K@Z:PROC ; CSTGfxOutBarCtrl::AddFolderBar
EXTRN	?GetSelFolder@CSTGfxOutBarCtrl@@QBEHXZ:PROC	; CSTGfxOutBarCtrl::GetSelFolder
EXTRN	?GetFolderCount@CSTGfxOutBarCtrl@@QBEHXZ:PROC	; CSTGfxOutBarCtrl::GetFolderCount
EXTRN	?SetSelFolder@CSTGfxOutBarCtrl@@QAEXH@Z:PROC	; CSTGfxOutBarCtrl::SetSelFolder
EXTRN	??0CSTListCtrl@@QAE@XZ:PROC			; CSTListCtrl::CSTListCtrl
EXTRN	?InitFont@CSTListCtrl@@QAEXH@Z:PROC		; CSTListCtrl::InitFont
EXTRN	??_E?$CList@PAUSTFILEITEM@@PAU1@@@UAEPAXI@Z:PROC ; CList<STFILEITEM *,STFILEITEM *>::`vector deleting destructor'
EXTRN	@__security_check_cookie@4:PROC
EXTRN	___CxxFrameHandler3:PROC
EXTRN	_memset:PROC
EXTRN	??_7type_info@@6B@:QWORD			; type_info::`vftable'
EXTRN	___security_cookie:DWORD
;	COMDAT ?_OptionsStorage@?1??__local_stdio_printf_options@@9@4_KA
_BSS	SEGMENT
?_OptionsStorage@?1??__local_stdio_printf_options@@9@4_KA DQ 01H DUP (?) ; `__local_stdio_printf_options'::`2'::_OptionsStorage
_BSS	ENDS
;	COMDAT ?_OptionsStorage@?1??__local_stdio_scanf_options@@9@4_KA
_BSS	SEGMENT
?_OptionsStorage@?1??__local_stdio_scanf_options@@9@4_KA DQ 01H DUP (?) ; `__local_stdio_scanf_options'::`2'::_OptionsStorage
_BSS	ENDS
_BSS	SEGMENT
?RMSG_GETPCTRDATA@@3IB DD 01H DUP (?)			; RMSG_GETPCTRDATA
_BSS	ENDS
CRT$XCU	SEGMENT
?RMSG_GETPCTRDATA$initializer$@@3P6AXXZA DD FLAT:??__ERMSG_GETPCTRDATA@@YAXXZ ; RMSG_GETPCTRDATA$initializer$
CRT$XCU	ENDS
;	COMDAT ??_R1A@?0A@EA@CSTLoadManager@@8
rdata$r	SEGMENT
??_R1A@?0A@EA@CSTLoadManager@@8 DD FLAT:??_R0?AVCSTLoadManager@@@8 ; CSTLoadManager::`RTTI Base Class Descriptor at (0,-1,0,64)'
	DD	02H
	DD	00H
	DD	0ffffffffH
	DD	00H
	DD	040H
	DD	FLAT:??_R3CSTLoadManager@@8
rdata$r	ENDS
;	COMDAT ??_R2CSTLoadManager@@8
rdata$r	SEGMENT
??_R2CSTLoadManager@@8 DD FLAT:??_R1A@?0A@EA@CSTLoadManager@@8 ; CSTLoadManager::`RTTI Base Class Array'
	DD	FLAT:??_R1A@?0A@EA@ISTLoadManager2@@8
	DD	FLAT:??_R1A@?0A@EA@ISTLoadManager@@8
rdata$r	ENDS
;	COMDAT ??_R3CSTLoadManager@@8
rdata$r	SEGMENT
??_R3CSTLoadManager@@8 DD 00H				; CSTLoadManager::`RTTI Class Hierarchy Descriptor'
	DD	00H
	DD	03H
	DD	FLAT:??_R2CSTLoadManager@@8
rdata$r	ENDS
;	COMDAT ??_R0?AVCSTLoadManager@@@8
data$rs	SEGMENT
??_R0?AVCSTLoadManager@@@8 DD FLAT:??_7type_info@@6B@	; CSTLoadManager `RTTI Type Descriptor'
	DD	00H
	DB	'.?AVCSTLoadManager@@', 00H
data$rs	ENDS
;	COMDAT ??_R4CSTLoadManager@@6B@
rdata$r	SEGMENT
??_R4CSTLoadManager@@6B@ DD 00H				; CSTLoadManager::`RTTI Complete Object Locator'
	DD	00H
	DD	00H
	DD	FLAT:??_R0?AVCSTLoadManager@@@8
	DD	FLAT:??_R3CSTLoadManager@@8
rdata$r	ENDS
;	COMDAT ??_R1A@?0A@EA@?$CList@PAUSTFILEITEM@@PAU1@@@8
rdata$r	SEGMENT
??_R1A@?0A@EA@?$CList@PAUSTFILEITEM@@PAU1@@@8 DD FLAT:??_R0?AV?$CList@PAUSTFILEITEM@@PAU1@@@@8 ; CList<STFILEITEM *,STFILEITEM *>::`RTTI Base Class Descriptor at (0,-1,0,64)'
	DD	01H
	DD	00H
	DD	0ffffffffH
	DD	00H
	DD	040H
	DD	FLAT:??_R3?$CList@PAUSTFILEITEM@@PAU1@@@8
rdata$r	ENDS
;	COMDAT ??_R2?$CList@PAUSTFILEITEM@@PAU1@@@8
rdata$r	SEGMENT
??_R2?$CList@PAUSTFILEITEM@@PAU1@@@8 DD FLAT:??_R1A@?0A@EA@?$CList@PAUSTFILEITEM@@PAU1@@@8 ; CList<STFILEITEM *,STFILEITEM *>::`RTTI Base Class Array'
	DD	FLAT:??_R1A@?0A@EA@CObject@@8
rdata$r	ENDS
;	COMDAT ??_R3?$CList@PAUSTFILEITEM@@PAU1@@@8
rdata$r	SEGMENT
??_R3?$CList@PAUSTFILEITEM@@PAU1@@@8 DD 00H		; CList<STFILEITEM *,STFILEITEM *>::`RTTI Class Hierarchy Descriptor'
	DD	00H
	DD	02H
	DD	FLAT:??_R2?$CList@PAUSTFILEITEM@@PAU1@@@8
rdata$r	ENDS
;	COMDAT ??_R0?AV?$CList@PAUSTFILEITEM@@PAU1@@@@8
data$rs	SEGMENT
??_R0?AV?$CList@PAUSTFILEITEM@@PAU1@@@@8 DD FLAT:??_7type_info@@6B@ ; CList<STFILEITEM *,STFILEITEM *> `RTTI Type Descriptor'
	DD	00H
	DB	'.?AV?$CList@PAUSTFILEITEM@@PAU1@@@', 00H
data$rs	ENDS
;	COMDAT ??_R4?$CList@PAUSTFILEITEM@@PAU1@@@6B@
rdata$r	SEGMENT
??_R4?$CList@PAUSTFILEITEM@@PAU1@@@6B@ DD 00H		; CList<STFILEITEM *,STFILEITEM *>::`RTTI Complete Object Locator'
	DD	00H
	DD	00H
	DD	FLAT:??_R0?AV?$CList@PAUSTFILEITEM@@PAU1@@@@8
	DD	FLAT:??_R3?$CList@PAUSTFILEITEM@@PAU1@@@8
rdata$r	ENDS
;	COMDAT ??_R1A@?0A@EA@ISTLoadManager2@@8
rdata$r	SEGMENT
??_R1A@?0A@EA@ISTLoadManager2@@8 DD FLAT:??_R0?AUISTLoadManager2@@@8 ; ISTLoadManager2::`RTTI Base Class Descriptor at (0,-1,0,64)'
	DD	01H
	DD	00H
	DD	0ffffffffH
	DD	00H
	DD	040H
	DD	FLAT:??_R3ISTLoadManager2@@8
rdata$r	ENDS
;	COMDAT ??_R2ISTLoadManager2@@8
rdata$r	SEGMENT
??_R2ISTLoadManager2@@8 DD FLAT:??_R1A@?0A@EA@ISTLoadManager2@@8 ; ISTLoadManager2::`RTTI Base Class Array'
	DD	FLAT:??_R1A@?0A@EA@ISTLoadManager@@8
rdata$r	ENDS
;	COMDAT ??_R3ISTLoadManager2@@8
rdata$r	SEGMENT
??_R3ISTLoadManager2@@8 DD 00H				; ISTLoadManager2::`RTTI Class Hierarchy Descriptor'
	DD	00H
	DD	02H
	DD	FLAT:??_R2ISTLoadManager2@@8
rdata$r	ENDS
;	COMDAT ??_R0?AUISTLoadManager2@@@8
data$rs	SEGMENT
??_R0?AUISTLoadManager2@@@8 DD FLAT:??_7type_info@@6B@	; ISTLoadManager2 `RTTI Type Descriptor'
	DD	00H
	DB	'.?AUISTLoadManager2@@', 00H
data$rs	ENDS
;	COMDAT ??_R1A@?0A@EA@ISTLoadManager@@8
rdata$r	SEGMENT
??_R1A@?0A@EA@ISTLoadManager@@8 DD FLAT:??_R0?AUISTLoadManager@@@8 ; ISTLoadManager::`RTTI Base Class Descriptor at (0,-1,0,64)'
	DD	00H
	DD	00H
	DD	0ffffffffH
	DD	00H
	DD	040H
	DD	FLAT:??_R3ISTLoadManager@@8
rdata$r	ENDS
;	COMDAT ??_R2ISTLoadManager@@8
rdata$r	SEGMENT
??_R2ISTLoadManager@@8 DD FLAT:??_R1A@?0A@EA@ISTLoadManager@@8 ; ISTLoadManager::`RTTI Base Class Array'
rdata$r	ENDS
;	COMDAT ??_R3ISTLoadManager@@8
rdata$r	SEGMENT
??_R3ISTLoadManager@@8 DD 00H				; ISTLoadManager::`RTTI Class Hierarchy Descriptor'
	DD	00H
	DD	01H
	DD	FLAT:??_R2ISTLoadManager@@8
rdata$r	ENDS
;	COMDAT ??_R0?AUISTLoadManager@@@8
data$rs	SEGMENT
??_R0?AUISTLoadManager@@@8 DD FLAT:??_7type_info@@6B@	; ISTLoadManager `RTTI Type Descriptor'
	DD	00H
	DB	'.?AUISTLoadManager@@', 00H
data$rs	ENDS
;	COMDAT ??_R4ISTLoadManager@@6B@
rdata$r	SEGMENT
??_R4ISTLoadManager@@6B@ DD 00H				; ISTLoadManager::`RTTI Complete Object Locator'
	DD	00H
	DD	00H
	DD	FLAT:??_R0?AUISTLoadManager@@@8
	DD	FLAT:??_R3ISTLoadManager@@8
rdata$r	ENDS
;	COMDAT ??_C@_07MHLIEPKG@?$CFs?2?$CFs?$CFs@
CONST	SEGMENT
??_C@_07MHLIEPKG@?$CFs?2?$CFs?$CFs@ DB '%s\%s%s', 00H	; `string'
CONST	ENDS
;	COMDAT ??_7?$CList@PAUSTFILEITEM@@PAU1@@@6B@
CONST	SEGMENT
??_7?$CList@PAUSTFILEITEM@@PAU1@@@6B@ DD FLAT:??_R4?$CList@PAUSTFILEITEM@@PAU1@@@6B@ ; CList<STFILEITEM *,STFILEITEM *>::`vftable'
	DD	FLAT:?GetRuntimeClass@CObject@@UBEPAUCRuntimeClass@@XZ
	DD	FLAT:??_E?$CList@PAUSTFILEITEM@@PAU1@@@UAEPAXI@Z
	DD	FLAT:?Serialize@?$CList@PAUSTFILEITEM@@PAU1@@@UAEXAAVCArchive@@@Z
	DD	FLAT:?AssertValid@CObject@@UBEXXZ
	DD	FLAT:?Dump@CObject@@UBEXAAVCDumpContext@@@Z
CONST	ENDS
;	COMDAT ??_C@_08OOJOHCD@?$CFs?2?$CFs?4ST@
CONST	SEGMENT
??_C@_08OOJOHCD@?$CFs?2?$CFs?4ST@ DB '%s\%s.ST', 00H	; `string'
CONST	ENDS
;	COMDAT ??_C@_01JKBOJNNK@?$FO@
CONST	SEGMENT
??_C@_01JKBOJNNK@?$FO@ DB '^', 00H			; `string'
CONST	ENDS
;	COMDAT ??_C@_07NGFJPNPN@Version@
CONST	SEGMENT
??_C@_07NGFJPNPN@Version@ DB 'Version', 00H		; `string'
CONST	ENDS
;	COMDAT ??_C@_01KICIPPFI@?2@
CONST	SEGMENT
??_C@_01KICIPPFI@?2@ DB '\', 00H			; `string'
CONST	ENDS
;	COMDAT ??_C@_0P@KLCPEEFK@RealFolderName@
CONST	SEGMENT
??_C@_0P@KLCPEEFK@RealFolderName@ DB 'RealFolderName', 00H ; `string'
CONST	ENDS
;	COMDAT ??_C@_08BHLLDOMG@?$LA?$KN?$LM?$LM?$LO?$OA?$LM?$LM@
CONST	SEGMENT
??_C@_08BHLLDOMG@?$LA?$KN?$LM?$LM?$LO?$OA?$LM?$LM@ DB 0b0H, 0adH, 0bcH, 0bcH
	DB	0beH, 0e0H, 0bcH, 0bcH, 00H			; `string'
CONST	ENDS
;	COMDAT ??_C@_05IJGIMMHE@Count@
CONST	SEGMENT
??_C@_05IJGIMMHE@Count@ DB 'Count', 00H			; `string'
CONST	ENDS
;	COMDAT ??_C@_04PCOPKCKE@LIST@
CONST	SEGMENT
??_C@_04PCOPKCKE@LIST@ DB 'LIST', 00H			; `string'
CONST	ENDS
;	COMDAT ??_C@_0M@FDALMHON@STIndex?4dat@
CONST	SEGMENT
??_C@_0M@FDALMHON@STIndex?4dat@ DB 'STIndex.dat', 00H	; `string'
CONST	ENDS
;	COMDAT ??_C@_0BI@JGCPDNC@?$CFs?2STData?2VarOptima?4cfg@
CONST	SEGMENT
??_C@_0BI@JGCPDNC@?$CFs?2STData?2VarOptima?4cfg@ DB '%s\STData\VarOptima.'
	DB	'cfg', 00H					; `string'
CONST	ENDS
;	COMDAT ??_C@_06GNAFJLOE@?$CFs?$CFc?$CFd@
CONST	SEGMENT
??_C@_06GNAFJLOE@?$CFs?$CFc?$CFd@ DB '%s%c%d', 00H	; `string'
CONST	ENDS
;	COMDAT ??_C@_0L@LHMOIOEP@?$CFs?2?$CFs?2?$CFs?$CFs@
CONST	SEGMENT
??_C@_0L@LHMOIOEP@?$CFs?2?$CFs?2?$CFs?$CFs@ DB '%s\%s\%s%s', 00H ; `string'
CONST	ENDS
;	COMDAT ??_C@_0P@BCEOGAFN@?$LL?g?$LP?k?$MA?Z?A?$LG?G?U?$MA?$PM?$LH?$KL@
CONST	SEGMENT
??_C@_0P@BCEOGAFN@?$LL?g?$LP?k?$MA?Z?A?$LG?G?U?$MA?$PM?$LH?$KL@ DB 0bbH, 0e7H
	DB	0bfH, 0ebH, 0c0H, 0daH, 0c1H, 0b6H, 0c7H, 0d5H, 0c0H, 0fcH, 0b7H
	DB	0abH, 00H					; `string'
CONST	ENDS
;	COMDAT ??_C@_0L@DLNLHHBM@?$LL?g?$LP?k?$MA?Z?A?v?G?$KF@
CONST	SEGMENT
??_C@_0L@DLNLHHBM@?$LL?g?$LP?k?$MA?Z?A?v?G?$KF@ DB 0bbH, 0e7H, 0bfH, 0ebH
	DB	0c0H, 0daH, 0c1H, 0f6H, 0c7H, 0a5H, 00H	; `string'
CONST	ENDS
;	COMDAT ??_C@_0P@GKBMMIPA@?$LL?g?$LP?k?$MA?Z?$LE?$NM?$MA?$KH?$MA?$PM?$LH?$KL@
CONST	SEGMENT
??_C@_0P@GKBMMIPA@?$LL?g?$LP?k?$MA?Z?$LE?$NM?$MA?$KH?$MA?$PM?$LH?$KL@ DB 0bbH
	DB	0e7H, 0bfH, 0ebH, 0c0H, 0daH, 0b4H, 0dcH, 0c0H, 0a7H, 0c0H, 0fcH
	DB	0b7H, 0abH, 00H				; `string'
CONST	ENDS
;	COMDAT ??_C@_0P@EACIJNAL@?$LL?g?$LP?k?$MA?Z?$LA?$KN?$LM?$LM?$LO?$OA?$LM?$LM@
CONST	SEGMENT
??_C@_0P@EACIJNAL@?$LL?g?$LP?k?$MA?Z?$LA?$KN?$LM?$LM?$LO?$OA?$LM?$LM@ DB 0bbH
	DB	0e7H, 0bfH, 0ebH, 0c0H, 0daH, 0b0H, 0adH, 0bcH, 0bcH, 0beH, 0e0H
	DB	0bcH, 0bcH, 00H				; `string'
CONST	ENDS
;	COMDAT ??_C@_05NFGPCJDJ@?$CFd?3?$CFd@
CONST	SEGMENT
??_C@_05NFGPCJDJ@?$CFd?3?$CFd@ DB '%d:%d', 00H		; `string'
CONST	ENDS
;	COMDAT ??_C@_02DKCKIIND@?$CFs@
CONST	SEGMENT
??_C@_02DKCKIIND@?$CFs@ DB '%s', 00H			; `string'
CONST	ENDS
;	COMDAT ??_C@_03COHLPAFH@?4ST@
CONST	SEGMENT
??_C@_03COHLPAFH@?4ST@ DB '.ST', 00H			; `string'
CONST	ENDS
;	COMDAT ??_C@_04ECGMOPPD@?$CK?4ST@
CONST	SEGMENT
??_C@_04ECGMOPPD@?$CK?4ST@ DB '*.ST', 00H		; `string'
CONST	ENDS
;	COMDAT ??_C@_03EMIMMIHL@?$CK?4?$CK@
CONST	SEGMENT
??_C@_03EMIMMIHL@?$CK?4?$CK@ DB '*.*', 00H		; `string'
CONST	ENDS
;	COMDAT ??_C@_05BMGBEOOC@?$CFs?2?$CFs@
CONST	SEGMENT
??_C@_05BMGBEOOC@?$CFs?2?$CFs@ DB '%s\%s', 00H		; `string'
CONST	ENDS
;	COMDAT ??_7CSTLoadManager@@6B@
CONST	SEGMENT
??_7CSTLoadManager@@6B@ DD FLAT:??_R4CSTLoadManager@@6B@ ; CSTLoadManager::`vftable'
	DD	FLAT:?Init@CSTLoadManager@@UAGXHV?$CStringT@DV?$StrTraitMFC_DLL@DV?$ChTraitsCRT@D@ATL@@@@@ATL@@PAVCImageList@@@Z
	DD	FLAT:?LoadST@CSTLoadManager@@UAGXPAVCWnd@@PAVCStringArray@@KH@Z
	DD	FLAT:?UnloadST@CSTLoadManager@@UAGHXZ
	DD	FLAT:?SearchST@CSTLoadManager@@UAGHV?$CStringT@DV?$StrTraitMFC_DLL@DV?$ChTraitsCRT@D@ATL@@@@@ATL@@AAVCStringArray@@@Z
	DD	FLAT:?UpdateST@CSTLoadManager@@UAGHHV?$CStringT@DV?$StrTraitMFC_DLL@DV?$ChTraitsCRT@D@ATL@@@@@ATL@@@Z
	DD	FLAT:?GetFolderST@CSTLoadManager@@UAGHK@Z
	DD	FLAT:?GetItemST@CSTLoadManager@@UAGHK@Z
	DD	FLAT:?SetSelectedItem@CSTLoadManager@@UAGXHH@Z
	DD	FLAT:?SetUseBoldFont@CSTLoadManager@@UAGXH@Z
	DD	FLAT:?LoadST2@CSTLoadManager@@UAGXPAVCWnd@@PAVCStringArray@@KHH@Z
	DD	FLAT:?SetSelectedItem@CSTLoadManager@@UAGXPAUSTMNG_ITEMINFO@@@Z
CONST	ENDS
;	COMDAT ??_7ISTLoadManager@@6B@
CONST	SEGMENT
??_7ISTLoadManager@@6B@ DD FLAT:??_R4ISTLoadManager@@6B@ ; ISTLoadManager::`vftable'
	DD	FLAT:__purecall
	DD	FLAT:__purecall
	DD	FLAT:__purecall
	DD	FLAT:__purecall
	DD	FLAT:__purecall
	DD	FLAT:__purecall
	DD	FLAT:__purecall
	DD	FLAT:__purecall
	DD	FLAT:__purecall
CONST	ENDS
;	COMDAT ??_R1A@?0A@EA@CObject@@8
rdata$r	SEGMENT
??_R1A@?0A@EA@CObject@@8 DD FLAT:??_R0?AVCObject@@@8	; CObject::`RTTI Base Class Descriptor at (0,-1,0,64)'
	DD	00H
	DD	00H
	DD	0ffffffffH
	DD	00H
	DD	040H
	DD	FLAT:??_R3CObject@@8
rdata$r	ENDS
;	COMDAT ??_R2CObject@@8
rdata$r	SEGMENT
??_R2CObject@@8 DD FLAT:??_R1A@?0A@EA@CObject@@8	; CObject::`RTTI Base Class Array'
rdata$r	ENDS
;	COMDAT ??_R3CObject@@8
rdata$r	SEGMENT
??_R3CObject@@8 DD 00H					; CObject::`RTTI Class Hierarchy Descriptor'
	DD	00H
	DD	01H
	DD	FLAT:??_R2CObject@@8
rdata$r	ENDS
;	COMDAT ??_R0?AVCObject@@@8
data$rs	SEGMENT
??_R0?AVCObject@@@8 DD FLAT:??_7type_info@@6B@		; CObject `RTTI Type Descriptor'
	DD	00H
	DB	'.?AVCObject@@', 00H
data$rs	ENDS
;	COMDAT ??_C@_02EMFKHFLK@?$CFX@
CONST	SEGMENT
??_C@_02EMFKHFLK@?$CFX@ DB '%X', 00H			; `string'
CONST	ENDS
;	COMDAT ??_C@_06NDLAHCHE@?$CFs?$CF08X@
CONST	SEGMENT
??_C@_06NDLAHCHE@?$CFs?$CF08X@ DB '%s%08X', 00H		; `string'
CONST	ENDS
;	COMDAT ??_C@_0P@IDMAJEGN@HANAROPCTRMAIN@
CONST	SEGMENT
??_C@_0P@IDMAJEGN@HANAROPCTRMAIN@ DB 'HANAROPCTRMAIN', 00H ; `string'
CONST	ENDS
;	COMDAT ??_C@_0M@CBBNGGHM@PcTrMng?4dll@
CONST	SEGMENT
??_C@_0M@CBBNGGHM@PcTrMng?4dll@ DB 'PcTrMng.dll', 00H	; `string'
CONST	ENDS
;	COMDAT ??_C@_00CNPNBAHC@@
CONST	SEGMENT
??_C@_00CNPNBAHC@@ DB 00H				; `string'
CONST	ENDS
;	COMDAT ??_C@_02DPKJAMEF@?$CFd@
CONST	SEGMENT
??_C@_02DPKJAMEF@?$CFd@ DB '%d', 00H			; `string'
CONST	ENDS
;	COMDAT xdata$x
xdata$x	SEGMENT
__unwindtable$??_G?$CList@PAUSTFILEITEM@@PAU1@@@UAEPAXI@Z DD 0ffffffffH
	DD	FLAT:___std_terminate
__ehfuncinfo$??_G?$CList@PAUSTFILEITEM@@PAU1@@@UAEPAXI@Z DD 019930522H
	DD	01H
	DD	FLAT:__unwindtable$??_G?$CList@PAUSTFILEITEM@@PAU1@@@UAEPAXI@Z
	DD	2 DUP(00H)
	DD	2 DUP(00H)
	DD	00H
	DD	05H
xdata$x	ENDS
;	COMDAT xdata$x
xdata$x	SEGMENT
__ehfuncinfo$??1?$CList@PAUSTFILEITEM@@PAU1@@@UAE@XZ DD 019930522H
	DD	00H
	DD	00H
	DD	2 DUP(00H)
	DD	2 DUP(00H)
	DD	00H
	DD	05H
xdata$x	ENDS
;	COMDAT xdata$x
xdata$x	SEGMENT
__ehfuncinfo$?GetSTFileList@CSTLoadManager@@KAHPBDAAVCStringArray@@@Z DD 019930522H
	DD	05H
	DD	FLAT:__unwindtable$?GetSTFileList@CSTLoadManager@@KAHPBDAAVCStringArray@@@Z
	DD	2 DUP(00H)
	DD	2 DUP(00H)
	DD	00H
	DD	01H
__unwindtable$?GetSTFileList@CSTLoadManager@@KAHPBDAAVCStringArray@@@Z DD 0ffffffffH
	DD	FLAT:__unwindfunclet$?GetSTFileList@CSTLoadManager@@KAHPBDAAVCStringArray@@@Z$0
	DD	00H
	DD	FLAT:__unwindfunclet$?GetSTFileList@CSTLoadManager@@KAHPBDAAVCStringArray@@@Z$1
	DD	01H
	DD	FLAT:__unwindfunclet$?GetSTFileList@CSTLoadManager@@KAHPBDAAVCStringArray@@@Z$2
	DD	02H
	DD	FLAT:__unwindfunclet$?GetSTFileList@CSTLoadManager@@KAHPBDAAVCStringArray@@@Z$3
	DD	02H
	DD	FLAT:__unwindfunclet$?GetSTFileList@CSTLoadManager@@KAHPBDAAVCStringArray@@@Z$4
xdata$x	ENDS
;	COMDAT xdata$x
xdata$x	SEGMENT
__ehfuncinfo$?GetSTFileList@CSTLoadManager@@KAHPBDHPAV?$CList@PAUSTFILEITEM@@PAU1@@@@Z DD 019930522H
	DD	0bH
	DD	FLAT:__unwindtable$?GetSTFileList@CSTLoadManager@@KAHPBDHPAV?$CList@PAUSTFILEITEM@@PAU1@@@@Z
	DD	2 DUP(00H)
	DD	2 DUP(00H)
	DD	00H
	DD	01H
__unwindtable$?GetSTFileList@CSTLoadManager@@KAHPBDHPAV?$CList@PAUSTFILEITEM@@PAU1@@@@Z DD 0ffffffffH
	DD	FLAT:__unwindfunclet$?GetSTFileList@CSTLoadManager@@KAHPBDHPAV?$CList@PAUSTFILEITEM@@PAU1@@@@Z$0
	DD	00H
	DD	FLAT:__unwindfunclet$?GetSTFileList@CSTLoadManager@@KAHPBDHPAV?$CList@PAUSTFILEITEM@@PAU1@@@@Z$7
	DD	01H
	DD	FLAT:__unwindfunclet$?GetSTFileList@CSTLoadManager@@KAHPBDHPAV?$CList@PAUSTFILEITEM@@PAU1@@@@Z$8
	DD	02H
	DD	FLAT:__unwindfunclet$?GetSTFileList@CSTLoadManager@@KAHPBDHPAV?$CList@PAUSTFILEITEM@@PAU1@@@@Z$9
	DD	03H
	DD	FLAT:__unwindfunclet$?GetSTFileList@CSTLoadManager@@KAHPBDHPAV?$CList@PAUSTFILEITEM@@PAU1@@@@Z$10
	DD	03H
	DD	FLAT:__unwindfunclet$?GetSTFileList@CSTLoadManager@@KAHPBDHPAV?$CList@PAUSTFILEITEM@@PAU1@@@@Z$11
	DD	00H
	DD	FLAT:__unwindfunclet$?GetSTFileList@CSTLoadManager@@KAHPBDHPAV?$CList@PAUSTFILEITEM@@PAU1@@@@Z$1
	DD	06H
	DD	FLAT:__unwindfunclet$?GetSTFileList@CSTLoadManager@@KAHPBDHPAV?$CList@PAUSTFILEITEM@@PAU1@@@@Z$2
	DD	06H
	DD	FLAT:__unwindfunclet$?GetSTFileList@CSTLoadManager@@KAHPBDHPAV?$CList@PAUSTFILEITEM@@PAU1@@@@Z$3
	DD	06H
	DD	FLAT:__unwindfunclet$?GetSTFileList@CSTLoadManager@@KAHPBDHPAV?$CList@PAUSTFILEITEM@@PAU1@@@@Z$4
	DD	06H
	DD	FLAT:__unwindfunclet$?GetSTFileList@CSTLoadManager@@KAHPBDHPAV?$CList@PAUSTFILEITEM@@PAU1@@@@Z$5
xdata$x	ENDS
;	COMDAT xdata$x
xdata$x	SEGMENT
__unwindtable$?LoadSTFolderList@CSTLoadManager@@IAEXPBD0H@Z DD 0ffffffffH
	DD	FLAT:__unwindfunclet$?LoadSTFolderList@CSTLoadManager@@IAEXPBD0H@Z$0
	DD	00H
	DD	FLAT:__unwindfunclet$?LoadSTFolderList@CSTLoadManager@@IAEXPBD0H@Z$1
	DD	0ffffffffH
	DD	FLAT:___std_terminate
__ehfuncinfo$?LoadSTFolderList@CSTLoadManager@@IAEXPBD0H@Z DD 019930522H
	DD	03H
	DD	FLAT:__unwindtable$?LoadSTFolderList@CSTLoadManager@@IAEXPBD0H@Z
	DD	2 DUP(00H)
	DD	2 DUP(00H)
	DD	00H
	DD	01H
xdata$x	ENDS
;	COMDAT xdata$x
xdata$x	SEGMENT
__ehfuncinfo$?DirectorySearch@CSTLoadManager@@IAEHPBD0H@Z DD 019930522H
	DD	08H
	DD	FLAT:__unwindtable$?DirectorySearch@CSTLoadManager@@IAEHPBD0H@Z
	DD	2 DUP(00H)
	DD	2 DUP(00H)
	DD	00H
	DD	01H
__unwindtable$?DirectorySearch@CSTLoadManager@@IAEHPBD0H@Z DD 0ffffffffH
	DD	FLAT:__unwindfunclet$?DirectorySearch@CSTLoadManager@@IAEHPBD0H@Z$0
	DD	00H
	DD	FLAT:__unwindfunclet$?DirectorySearch@CSTLoadManager@@IAEHPBD0H@Z$1
	DD	01H
	DD	FLAT:__unwindfunclet$?DirectorySearch@CSTLoadManager@@IAEHPBD0H@Z$2
	DD	02H
	DD	FLAT:__unwindfunclet$?DirectorySearch@CSTLoadManager@@IAEHPBD0H@Z$3
	DD	02H
	DD	FLAT:__unwindfunclet$?DirectorySearch@CSTLoadManager@@IAEHPBD0H@Z$4
	DD	04H
	DD	FLAT:__unwindfunclet$?DirectorySearch@CSTLoadManager@@IAEHPBD0H@Z$5
	DD	02H
	DD	FLAT:__unwindfunclet$?DirectorySearch@CSTLoadManager@@IAEHPBD0H@Z$6
	DD	02H
	DD	FLAT:__unwindfunclet$?DirectorySearch@CSTLoadManager@@IAEHPBD0H@Z$7
xdata$x	ENDS
;	COMDAT xdata$x
xdata$x	SEGMENT
__unwindtable$?GetFolderIndexFromFolderName@CSTLoadManager@@IAEHV?$CStringT@DV?$StrTraitMFC_DLL@DV?$ChTraitsCRT@D@ATL@@@@@ATL@@@Z DD 0ffffffffH
	DD	FLAT:__unwindfunclet$?GetFolderIndexFromFolderName@CSTLoadManager@@IAEHV?$CStringT@DV?$StrTraitMFC_DLL@DV?$ChTraitsCRT@D@ATL@@@@@ATL@@@Z$0
__ehfuncinfo$?GetFolderIndexFromFolderName@CSTLoadManager@@IAEHV?$CStringT@DV?$StrTraitMFC_DLL@DV?$ChTraitsCRT@D@ATL@@@@@ATL@@@Z DD 019930522H
	DD	01H
	DD	FLAT:__unwindtable$?GetFolderIndexFromFolderName@CSTLoadManager@@IAEHV?$CStringT@DV?$StrTraitMFC_DLL@DV?$ChTraitsCRT@D@ATL@@@@@ATL@@@Z
	DD	2 DUP(00H)
	DD	2 DUP(00H)
	DD	00H
	DD	01H
xdata$x	ENDS
;	COMDAT xdata$x
xdata$x	SEGMENT
__unwindtable$?SetExtName@CSTLoadManager@@IAEXV?$CStringT@DV?$StrTraitMFC_DLL@DV?$ChTraitsCRT@D@ATL@@@@@ATL@@@Z DD 0ffffffffH
	DD	FLAT:__unwindfunclet$?SetExtName@CSTLoadManager@@IAEXV?$CStringT@DV?$StrTraitMFC_DLL@DV?$ChTraitsCRT@D@ATL@@@@@ATL@@@Z$0
__ehfuncinfo$?SetExtName@CSTLoadManager@@IAEXV?$CStringT@DV?$StrTraitMFC_DLL@DV?$ChTraitsCRT@D@ATL@@@@@ATL@@@Z DD 019930522H
	DD	01H
	DD	FLAT:__unwindtable$?SetExtName@CSTLoadManager@@IAEXV?$CStringT@DV?$StrTraitMFC_DLL@DV?$ChTraitsCRT@D@ATL@@@@@ATL@@@Z
	DD	2 DUP(00H)
	DD	2 DUP(00H)
	DD	00H
	DD	01H
xdata$x	ENDS
;	COMDAT xdata$x
xdata$x	SEGMENT
__unwindtable$?GetFolderName@CSTLoadManager@@IAEXV?$CStringT@DV?$StrTraitMFC_DLL@DV?$ChTraitsCRT@D@ATL@@@@@ATL@@AAV23@@Z DD 0ffffffffH
	DD	FLAT:__unwindfunclet$?GetFolderName@CSTLoadManager@@IAEXV?$CStringT@DV?$StrTraitMFC_DLL@DV?$ChTraitsCRT@D@ATL@@@@@ATL@@AAV23@@Z$0
	DD	00H
	DD	FLAT:__unwindfunclet$?GetFolderName@CSTLoadManager@@IAEXV?$CStringT@DV?$StrTraitMFC_DLL@DV?$ChTraitsCRT@D@ATL@@@@@ATL@@AAV23@@Z$1
__ehfuncinfo$?GetFolderName@CSTLoadManager@@IAEXV?$CStringT@DV?$StrTraitMFC_DLL@DV?$ChTraitsCRT@D@ATL@@@@@ATL@@AAV23@@Z DD 019930522H
	DD	02H
	DD	FLAT:__unwindtable$?GetFolderName@CSTLoadManager@@IAEXV?$CStringT@DV?$StrTraitMFC_DLL@DV?$ChTraitsCRT@D@ATL@@@@@ATL@@AAV23@@Z
	DD	2 DUP(00H)
	DD	2 DUP(00H)
	DD	00H
	DD	01H
xdata$x	ENDS
;	COMDAT xdata$x
xdata$x	SEGMENT
__ehfuncinfo$?AddSTFile@CSTLoadManager@@IAEXPBD0@Z DD 019930522H
	DD	0aH
	DD	FLAT:__unwindtable$?AddSTFile@CSTLoadManager@@IAEXPBD0@Z
	DD	2 DUP(00H)
	DD	2 DUP(00H)
	DD	00H
	DD	01H
__unwindtable$?AddSTFile@CSTLoadManager@@IAEXPBD0@Z DD 0ffffffffH
	DD	FLAT:__unwindfunclet$?AddSTFile@CSTLoadManager@@IAEXPBD0@Z$0
	DD	00H
	DD	FLAT:__unwindfunclet$?AddSTFile@CSTLoadManager@@IAEXPBD0@Z$1
	DD	01H
	DD	FLAT:__unwindfunclet$?AddSTFile@CSTLoadManager@@IAEXPBD0@Z$2
	DD	01H
	DD	FLAT:__unwindfunclet$?AddSTFile@CSTLoadManager@@IAEXPBD0@Z$3
	DD	03H
	DD	FLAT:__unwindfunclet$?AddSTFile@CSTLoadManager@@IAEXPBD0@Z$4
	DD	03H
	DD	FLAT:__unwindfunclet$?AddSTFile@CSTLoadManager@@IAEXPBD0@Z$5
	DD	03H
	DD	FLAT:__unwindfunclet$?AddSTFile@CSTLoadManager@@IAEXPBD0@Z$6
	DD	06H
	DD	FLAT:__unwindfunclet$?AddSTFile@CSTLoadManager@@IAEXPBD0@Z$9
	DD	07H
	DD	FLAT:__unwindfunclet$?AddSTFile@CSTLoadManager@@IAEXPBD0@Z$10
	DD	06H
	DD	FLAT:__unwindfunclet$?AddSTFile@CSTLoadManager@@IAEXPBD0@Z$8
xdata$x	ENDS
;	COMDAT xdata$x
xdata$x	SEGMENT
__unwindtable$?AddFolder@CSTLoadManager@@IAEXPBD0@Z DD 0ffffffffH
	DD	FLAT:__unwindfunclet$?AddFolder@CSTLoadManager@@IAEXPBD0@Z$0
	DD	00H
	DD	FLAT:__unwindfunclet$?AddFolder@CSTLoadManager@@IAEXPBD0@Z$1
	DD	00H
	DD	FLAT:__unwindfunclet$?AddFolder@CSTLoadManager@@IAEXPBD0@Z$2
__ehfuncinfo$?AddFolder@CSTLoadManager@@IAEXPBD0@Z DD 019930522H
	DD	03H
	DD	FLAT:__unwindtable$?AddFolder@CSTLoadManager@@IAEXPBD0@Z
	DD	2 DUP(00H)
	DD	2 DUP(00H)
	DD	00H
	DD	01H
xdata$x	ENDS
;	COMDAT xdata$x
xdata$x	SEGMENT
__unwindtable$?IsSTTypeToLoad@CSTLoadManager@@IAEHAAV?$CStringT@DV?$StrTraitMFC_DLL@DV?$ChTraitsCRT@D@ATL@@@@@ATL@@0@Z DD 0ffffffffH
	DD	FLAT:__unwindfunclet$?IsSTTypeToLoad@CSTLoadManager@@IAEHAAV?$CStringT@DV?$StrTraitMFC_DLL@DV?$ChTraitsCRT@D@ATL@@@@@ATL@@0@Z$0
	DD	0ffffffffH
	DD	FLAT:__unwindfunclet$?IsSTTypeToLoad@CSTLoadManager@@IAEHAAV?$CStringT@DV?$StrTraitMFC_DLL@DV?$ChTraitsCRT@D@ATL@@@@@ATL@@0@Z$1
__ehfuncinfo$?IsSTTypeToLoad@CSTLoadManager@@IAEHAAV?$CStringT@DV?$StrTraitMFC_DLL@DV?$ChTraitsCRT@D@ATL@@@@@ATL@@0@Z DD 019930522H
	DD	02H
	DD	FLAT:__unwindtable$?IsSTTypeToLoad@CSTLoadManager@@IAEHAAV?$CStringT@DV?$StrTraitMFC_DLL@DV?$ChTraitsCRT@D@ATL@@@@@ATL@@0@Z
	DD	2 DUP(00H)
	DD	2 DUP(00H)
	DD	00H
	DD	01H
xdata$x	ENDS
;	COMDAT xdata$x
xdata$x	SEGMENT
__ehfuncinfo$?LoadSTListFromSTIndex@CSTLoadManager@@IAEXHH@Z DD 019930522H
	DD	01aH
	DD	FLAT:__unwindtable$?LoadSTListFromSTIndex@CSTLoadManager@@IAEXHH@Z
	DD	2 DUP(00H)
	DD	2 DUP(00H)
	DD	00H
	DD	01H
__unwindtable$?LoadSTListFromSTIndex@CSTLoadManager@@IAEXHH@Z DD 0ffffffffH
	DD	FLAT:__unwindfunclet$?LoadSTListFromSTIndex@CSTLoadManager@@IAEXHH@Z$0
	DD	00H
	DD	FLAT:__unwindfunclet$?LoadSTListFromSTIndex@CSTLoadManager@@IAEXHH@Z$1
	DD	01H
	DD	FLAT:__unwindfunclet$?LoadSTListFromSTIndex@CSTLoadManager@@IAEXHH@Z$2
	DD	02H
	DD	FLAT:__unwindfunclet$?LoadSTListFromSTIndex@CSTLoadManager@@IAEXHH@Z$3
	DD	03H
	DD	FLAT:__unwindfunclet$?LoadSTListFromSTIndex@CSTLoadManager@@IAEXHH@Z$4
	DD	04H
	DD	FLAT:__unwindfunclet$?LoadSTListFromSTIndex@CSTLoadManager@@IAEXHH@Z$26
	DD	05H
	DD	FLAT:__unwindfunclet$?LoadSTListFromSTIndex@CSTLoadManager@@IAEXHH@Z$27
	DD	04H
	DD	FLAT:__unwindfunclet$?LoadSTListFromSTIndex@CSTLoadManager@@IAEXHH@Z$7
	DD	07H
	DD	FLAT:__unwindfunclet$?LoadSTListFromSTIndex@CSTLoadManager@@IAEXHH@Z$8
	DD	07H
	DD	FLAT:__unwindfunclet$?LoadSTListFromSTIndex@CSTLoadManager@@IAEXHH@Z$9
	DD	04H
	DD	FLAT:__unwindfunclet$?LoadSTListFromSTIndex@CSTLoadManager@@IAEXHH@Z$10
	DD	0aH
	DD	FLAT:__unwindfunclet$?LoadSTListFromSTIndex@CSTLoadManager@@IAEXHH@Z$11
	DD	0bH
	DD	FLAT:__unwindfunclet$?LoadSTListFromSTIndex@CSTLoadManager@@IAEXHH@Z$12
	DD	0cH
	DD	FLAT:__unwindfunclet$?LoadSTListFromSTIndex@CSTLoadManager@@IAEXHH@Z$13
	DD	0dH
	DD	FLAT:__unwindfunclet$?LoadSTListFromSTIndex@CSTLoadManager@@IAEXHH@Z$14
	DD	0dH
	DD	FLAT:__unwindfunclet$?LoadSTListFromSTIndex@CSTLoadManager@@IAEXHH@Z$15
	DD	0dH
	DD	FLAT:__unwindfunclet$?LoadSTListFromSTIndex@CSTLoadManager@@IAEXHH@Z$16
	DD	0dH
	DD	FLAT:__unwindfunclet$?LoadSTListFromSTIndex@CSTLoadManager@@IAEXHH@Z$17
	DD	0ffffffffH
	DD	FLAT:__unwindfunclet$?LoadSTListFromSTIndex@CSTLoadManager@@IAEXHH@Z$18
	DD	012H
	DD	FLAT:__unwindfunclet$?LoadSTListFromSTIndex@CSTLoadManager@@IAEXHH@Z$19
	DD	013H
	DD	FLAT:__unwindfunclet$?LoadSTListFromSTIndex@CSTLoadManager@@IAEXHH@Z$28
	DD	014H
	DD	FLAT:__unwindfunclet$?LoadSTListFromSTIndex@CSTLoadManager@@IAEXHH@Z$29
	DD	013H
	DD	FLAT:__unwindfunclet$?LoadSTListFromSTIndex@CSTLoadManager@@IAEXHH@Z$30
	DD	016H
	DD	FLAT:__unwindfunclet$?LoadSTListFromSTIndex@CSTLoadManager@@IAEXHH@Z$31
	DD	013H
	DD	FLAT:__unwindfunclet$?LoadSTListFromSTIndex@CSTLoadManager@@IAEXHH@Z$32
	DD	018H
	DD	FLAT:__unwindfunclet$?LoadSTListFromSTIndex@CSTLoadManager@@IAEXHH@Z$33
xdata$x	ENDS
;	COMDAT xdata$x
xdata$x	SEGMENT
__unwindtable$?LoadSTList@CSTLoadManager@@IAEXH@Z DD 0ffffffffH
	DD	FLAT:__unwindfunclet$?LoadSTList@CSTLoadManager@@IAEXH@Z$0
__ehfuncinfo$?LoadSTList@CSTLoadManager@@IAEXH@Z DD 019930522H
	DD	01H
	DD	FLAT:__unwindtable$?LoadSTList@CSTLoadManager@@IAEXH@Z
	DD	2 DUP(00H)
	DD	2 DUP(00H)
	DD	00H
	DD	01H
xdata$x	ENDS
;	COMDAT xdata$x
xdata$x	SEGMENT
__unwindtable$?GetRunSTItemInfo@CSTLoadManager@@QAEHV?$CStringT@DV?$StrTraitMFC_DLL@DV?$ChTraitsCRT@D@ATL@@@@@ATL@@AAUSTMNG_ITEMINFO@@@Z DD 0ffffffffH
	DD	FLAT:__unwindfunclet$?GetRunSTItemInfo@CSTLoadManager@@QAEHV?$CStringT@DV?$StrTraitMFC_DLL@DV?$ChTraitsCRT@D@ATL@@@@@ATL@@AAUSTMNG_ITEMINFO@@@Z$0
	DD	00H
	DD	FLAT:__unwindfunclet$?GetRunSTItemInfo@CSTLoadManager@@QAEHV?$CStringT@DV?$StrTraitMFC_DLL@DV?$ChTraitsCRT@D@ATL@@@@@ATL@@AAUSTMNG_ITEMINFO@@@Z$1
	DD	01H
	DD	FLAT:__unwindfunclet$?GetRunSTItemInfo@CSTLoadManager@@QAEHV?$CStringT@DV?$StrTraitMFC_DLL@DV?$ChTraitsCRT@D@ATL@@@@@ATL@@AAUSTMNG_ITEMINFO@@@Z$2
	DD	02H
	DD	FLAT:__unwindfunclet$?GetRunSTItemInfo@CSTLoadManager@@QAEHV?$CStringT@DV?$StrTraitMFC_DLL@DV?$ChTraitsCRT@D@ATL@@@@@ATL@@AAUSTMNG_ITEMINFO@@@Z$3
__ehfuncinfo$?GetRunSTItemInfo@CSTLoadManager@@QAEHV?$CStringT@DV?$StrTraitMFC_DLL@DV?$ChTraitsCRT@D@ATL@@@@@ATL@@AAUSTMNG_ITEMINFO@@@Z DD 019930522H
	DD	04H
	DD	FLAT:__unwindtable$?GetRunSTItemInfo@CSTLoadManager@@QAEHV?$CStringT@DV?$StrTraitMFC_DLL@DV?$ChTraitsCRT@D@ATL@@@@@ATL@@AAUSTMNG_ITEMINFO@@@Z
	DD	2 DUP(00H)
	DD	2 DUP(00H)
	DD	00H
	DD	01H
xdata$x	ENDS
;	COMDAT xdata$x
xdata$x	SEGMENT
__ehfuncinfo$?DeleteSTFile@CSTLoadManager@@QAEXHV?$CStringT@DV?$StrTraitMFC_DLL@DV?$ChTraitsCRT@D@ATL@@@@@ATL@@@Z DD 019930522H
	DD	05H
	DD	FLAT:__unwindtable$?DeleteSTFile@CSTLoadManager@@QAEXHV?$CStringT@DV?$StrTraitMFC_DLL@DV?$ChTraitsCRT@D@ATL@@@@@ATL@@@Z
	DD	2 DUP(00H)
	DD	2 DUP(00H)
	DD	00H
	DD	01H
__unwindtable$?DeleteSTFile@CSTLoadManager@@QAEXHV?$CStringT@DV?$StrTraitMFC_DLL@DV?$ChTraitsCRT@D@ATL@@@@@ATL@@@Z DD 0ffffffffH
	DD	FLAT:__unwindfunclet$?DeleteSTFile@CSTLoadManager@@QAEXHV?$CStringT@DV?$StrTraitMFC_DLL@DV?$ChTraitsCRT@D@ATL@@@@@ATL@@@Z$0
	DD	00H
	DD	FLAT:__unwindfunclet$?DeleteSTFile@CSTLoadManager@@QAEXHV?$CStringT@DV?$StrTraitMFC_DLL@DV?$ChTraitsCRT@D@ATL@@@@@ATL@@@Z$1
	DD	01H
	DD	FLAT:__unwindfunclet$?DeleteSTFile@CSTLoadManager@@QAEXHV?$CStringT@DV?$StrTraitMFC_DLL@DV?$ChTraitsCRT@D@ATL@@@@@ATL@@@Z$2
	DD	02H
	DD	FLAT:__unwindfunclet$?DeleteSTFile@CSTLoadManager@@QAEXHV?$CStringT@DV?$StrTraitMFC_DLL@DV?$ChTraitsCRT@D@ATL@@@@@ATL@@@Z$3
	DD	02H
	DD	FLAT:__unwindfunclet$?DeleteSTFile@CSTLoadManager@@QAEXHV?$CStringT@DV?$StrTraitMFC_DLL@DV?$ChTraitsCRT@D@ATL@@@@@ATL@@@Z$4
xdata$x	ENDS
;	COMDAT xdata$x
xdata$x	SEGMENT
__unwindtable$?GetSelectedItem@CSTLoadManager@@QAEHAAUSTMNG_ITEMINFO@@@Z DD 0ffffffffH
	DD	FLAT:__unwindfunclet$?GetSelectedItem@CSTLoadManager@@QAEHAAUSTMNG_ITEMINFO@@@Z$0
__ehfuncinfo$?GetSelectedItem@CSTLoadManager@@QAEHAAUSTMNG_ITEMINFO@@@Z DD 019930522H
	DD	01H
	DD	FLAT:__unwindtable$?GetSelectedItem@CSTLoadManager@@QAEHAAUSTMNG_ITEMINFO@@@Z
	DD	2 DUP(00H)
	DD	2 DUP(00H)
	DD	00H
	DD	01H
xdata$x	ENDS
;	COMDAT xdata$x
xdata$x	SEGMENT
__unwindtable$?AfxGetPctrData@@YGJH@Z DD 0ffffffffH
	DD	FLAT:__unwindfunclet$?AfxGetPctrData@@YGJH@Z$0
__ehfuncinfo$?AfxGetPctrData@@YGJH@Z DD 019930522H
	DD	01H
	DD	FLAT:__unwindtable$?AfxGetPctrData@@YGJH@Z
	DD	2 DUP(00H)
	DD	2 DUP(00H)
	DD	00H
	DD	01H
xdata$x	ENDS
;	COMDAT xdata$x
xdata$x	SEGMENT
__unwindtable$??HATL@@YA?AV?$CStringT@DV?$StrTraitMFC_DLL@DV?$ChTraitsCRT@D@ATL@@@@@0@ABV10@PBD@Z DD 0ffffffffH
	DD	FLAT:__unwindfunclet$??HATL@@YA?AV?$CStringT@DV?$StrTraitMFC_DLL@DV?$ChTraitsCRT@D@ATL@@@@@0@ABV10@PBD@Z$0
__ehfuncinfo$??HATL@@YA?AV?$CStringT@DV?$StrTraitMFC_DLL@DV?$ChTraitsCRT@D@ATL@@@@@0@ABV10@PBD@Z DD 019930522H
	DD	01H
	DD	FLAT:__unwindtable$??HATL@@YA?AV?$CStringT@DV?$StrTraitMFC_DLL@DV?$ChTraitsCRT@D@ATL@@@@@0@ABV10@PBD@Z
	DD	2 DUP(00H)
	DD	2 DUP(00H)
	DD	00H
	DD	01H
xdata$x	ENDS
;	COMDAT xdata$x
xdata$x	SEGMENT
__unwindtable$??HATL@@YA?AV?$CStringT@DV?$StrTraitMFC_DLL@DV?$ChTraitsCRT@D@ATL@@@@@0@ABV10@0@Z DD 0ffffffffH
	DD	FLAT:__unwindfunclet$??HATL@@YA?AV?$CStringT@DV?$StrTraitMFC_DLL@DV?$ChTraitsCRT@D@ATL@@@@@0@ABV10@0@Z$0
__ehfuncinfo$??HATL@@YA?AV?$CStringT@DV?$StrTraitMFC_DLL@DV?$ChTraitsCRT@D@ATL@@@@@0@ABV10@0@Z DD 019930522H
	DD	01H
	DD	FLAT:__unwindtable$??HATL@@YA?AV?$CStringT@DV?$StrTraitMFC_DLL@DV?$ChTraitsCRT@D@ATL@@@@@0@ABV10@0@Z
	DD	2 DUP(00H)
	DD	2 DUP(00H)
	DD	00H
	DD	01H
xdata$x	ENDS
; Function compile flags: /Ogtp
; File C:\Program Files (x86)\Microsoft Visual Studio\2019\Community\VC\Tools\MSVC\14.29.30133\atlmfc\include\afxtempl.h
; File C:\Program Files (x86)\Microsoft Visual Studio\2019\Community\VC\Tools\MSVC\14.29.30133\atlmfc\include\afx.inl
; File C:\Program Files (x86)\Microsoft Visual Studio\2019\Community\VC\Tools\MSVC\14.29.30133\atlmfc\include\afxtempl.h
; File C:\Program Files (x86)\Microsoft Visual Studio\2019\Community\VC\Tools\MSVC\14.29.30133\atlmfc\include\afx.inl
; File C:\Program Files (x86)\Microsoft Visual Studio\2019\Community\VC\Tools\MSVC\14.29.30133\atlmfc\include\afxtempl.h
; File C:\Program Files (x86)\Microsoft Visual Studio\2019\Community\VC\Tools\MSVC\14.29.30133\atlmfc\include\afx.inl
; File C:\Program Files (x86)\Microsoft Visual Studio\2019\Community\VC\Tools\MSVC\14.29.30133\atlmfc\include\afxtempl.h
;	COMDAT ??$SerializeElements@PAUSTFILEITEM@@@@YGXAAVCArchive@@PAPAUSTFILEITEM@@H@Z
_TEXT	SEGMENT
_ar$ = 8						; size = 4
_pElements$ = 12					; size = 4
_nCount$ = 16						; size = 4
??$SerializeElements@PAUSTFILEITEM@@@@YGXAAVCArchive@@PAPAUSTFILEITEM@@H@Z PROC ; SerializeElements<STFILEITEM *>, COMDAT

; 67   : {

  00000	55		 push	 ebp
  00001	8b ec		 mov	 ebp, esp

; 68   : 	ENSURE(nCount == 0 || pElements != NULL);

  00003	8b 4d 0c	 mov	 ecx, DWORD PTR _pElements$[ebp]
  00006	53		 push	 ebx
  00007	56		 push	 esi
  00008	8b 75 10	 mov	 esi, DWORD PTR _nCount$[ebp]
  0000b	57		 push	 edi
  0000c	85 f6		 test	 esi, esi
  0000e	74 08		 je	 SHORT $LN2@SerializeE
  00010	85 c9		 test	 ecx, ecx
  00012	0f 84 89 00 00
	00		 je	 $LN34@SerializeE
$LN2@SerializeE:
; File C:\Program Files (x86)\Microsoft Visual Studio\2019\Community\VC\Tools\MSVC\14.29.30133\atlmfc\include\afx.inl

; 212  : 	{ return (m_nMode & CArchive::load) == 0; }

  00018	8b 55 08	 mov	 edx, DWORD PTR _ar$[ebp]
  0001b	8b 42 18	 mov	 eax, DWORD PTR [edx+24]
  0001e	f7 d0		 not	 eax
  00020	a8 01		 test	 al, 1
; File C:\Program Files (x86)\Microsoft Visual Studio\2019\Community\VC\Tools\MSVC\14.29.30133\atlmfc\include\afxtempl.h

; 73   : 	if (ar.IsStoring())

  00022	74 3c		 je	 SHORT $LN10@SerializeE

; 74   : 	{
; 75   : 		TYPE* pData;
; 76   : 		UINT_PTR nElementsLeft;
; 77   : 
; 78   : 		nElementsLeft = nCount;
; 79   : 		pData = pElements;
; 80   : 		while( nElementsLeft > 0 )

  00024	85 f6		 test	 esi, esi
  00026	74 31		 je	 SHORT $LN8@SerializeE
  00028	0f 1f 84 00 00
	00 00 00	 npad	 8
$LL5@SerializeE:

; 81   : 		{
; 82   : 			UINT nElementsToWrite;
; 83   : 
; 84   : 			nElementsToWrite = UINT(__min(nElementsLeft, INT_MAX/sizeof(TYPE)));

  00030	bb ff ff ff 1f	 mov	 ebx, 536870911		; 1fffffffH
  00035	3b f3		 cmp	 esi, ebx
  00037	0f 42 de	 cmovb	 ebx, esi

; 85   : 			ar.Write(pData, nElementsToWrite*sizeof(TYPE));

  0003a	8d 3c 9d 00 00
	00 00		 lea	 edi, DWORD PTR [ebx*4]
  00041	57		 push	 edi
  00042	51		 push	 ecx
  00043	8b ca		 mov	 ecx, edx
  00045	e8 00 00 00 00	 call	 ?Write@CArchive@@QAEXPBXI@Z ; CArchive::Write

; 86   : 			nElementsLeft -= nElementsToWrite;
; 87   : 			pData += nElementsToWrite;

  0004a	8b 4d 0c	 mov	 ecx, DWORD PTR _pElements$[ebp]
  0004d	8b 55 08	 mov	 edx, DWORD PTR _ar$[ebp]
  00050	03 cf		 add	 ecx, edi
  00052	89 4d 0c	 mov	 DWORD PTR _pElements$[ebp], ecx
  00055	2b f3		 sub	 esi, ebx
  00057	75 d7		 jne	 SHORT $LL5@SerializeE
$LN8@SerializeE:
  00059	5f		 pop	 edi

; 105  : 		}
; 106  : 	}
; 107  : }

  0005a	5e		 pop	 esi
  0005b	5b		 pop	 ebx
  0005c	5d		 pop	 ebp
  0005d	c2 0c 00	 ret	 12			; 0000000cH
$LN10@SerializeE:

; 97   : 		while( nElementsLeft > 0 )

  00060	85 f6		 test	 esi, esi
  00062	74 f5		 je	 SHORT $LN8@SerializeE
$LL7@SerializeE:

; 98   : 		{
; 99   : 			UINT nElementsToRead;
; 100  : 
; 101  : 			nElementsToRead = UINT(__min(nElementsLeft, INT_MAX/sizeof(TYPE)));

  00064	bf ff ff ff 1f	 mov	 edi, 536870911		; 1fffffffH
  00069	3b f7		 cmp	 esi, edi
  0006b	0f 42 fe	 cmovb	 edi, esi

; 102  : 			ar.EnsureRead(pData, nElementsToRead*sizeof(TYPE));

  0006e	8d 1c bd 00 00
	00 00		 lea	 ebx, DWORD PTR [edi*4]
; File C:\Program Files (x86)\Microsoft Visual Studio\2019\Community\VC\Tools\MSVC\14.29.30133\atlmfc\include\afx.inl

; 399  : 	UINT nRead=Read(lpBuf, nCount);

  00075	53		 push	 ebx
  00076	51		 push	 ecx
  00077	8b ca		 mov	 ecx, edx
  00079	e8 00 00 00 00	 call	 ?Read@CArchive@@QAEIPAXI@Z ; CArchive::Read

; 400  : 	if(nRead!=nCount)

  0007e	3b c3		 cmp	 eax, ebx
  00080	75 16		 jne	 SHORT $LN23@SerializeE
; File C:\Program Files (x86)\Microsoft Visual Studio\2019\Community\VC\Tools\MSVC\14.29.30133\atlmfc\include\afxtempl.h

; 97   : 		while( nElementsLeft > 0 )

  00082	8b 4d 0c	 mov	 ecx, DWORD PTR _pElements$[ebp]
  00085	8b 55 08	 mov	 edx, DWORD PTR _ar$[ebp]

; 103  : 			nElementsLeft -= nElementsToRead;
; 104  : 			pData += nElementsToRead;

  00088	03 cb		 add	 ecx, ebx
  0008a	89 4d 0c	 mov	 DWORD PTR _pElements$[ebp], ecx
  0008d	2b f7		 sub	 esi, edi
  0008f	75 d3		 jne	 SHORT $LL7@SerializeE

; 105  : 		}
; 106  : 	}
; 107  : }

  00091	5f		 pop	 edi
  00092	5e		 pop	 esi
  00093	5b		 pop	 ebx
  00094	5d		 pop	 ebp
  00095	c2 0c 00	 ret	 12			; 0000000cH
$LN23@SerializeE:
; File C:\Program Files (x86)\Microsoft Visual Studio\2019\Community\VC\Tools\MSVC\14.29.30133\atlmfc\include\afx.inl

; 402  : 		AfxThrowArchiveException(CArchiveException::endOfFile);

  00098	6a 00		 push	 0
  0009a	6a 03		 push	 3
  0009c	e8 00 00 00 00	 call	 ?AfxThrowArchiveException@@YGXHPBD@Z ; AfxThrowArchiveException
$LN34@SerializeE:
; File C:\Program Files (x86)\Microsoft Visual Studio\2019\Community\VC\Tools\MSVC\14.29.30133\atlmfc\include\afxtempl.h

; 68   : 	ENSURE(nCount == 0 || pElements != NULL);

  000a1	e8 00 00 00 00	 call	 ?AfxThrowInvalidArgException@@YGXXZ ; AfxThrowInvalidArgException
$LN32@SerializeE:
  000a6	cc		 int	 3
??$SerializeElements@PAUSTFILEITEM@@@@YGXAAVCArchive@@PAPAUSTFILEITEM@@H@Z ENDP ; SerializeElements<STFILEITEM *>
_TEXT	ENDS
; Function compile flags: /Ogtp
; File C:\Program Files (x86)\Microsoft Visual Studio\2019\Community\VC\Tools\MSVC\14.29.30133\atlmfc\include\afxtempl.h
; File C:\Program Files (x86)\Microsoft Visual Studio\2019\Community\VC\Tools\MSVC\14.29.30133\atlmfc\include\afx.inl
;	COMDAT ??_G?$CList@PAUSTFILEITEM@@PAU1@@@UAEPAXI@Z
_TEXT	SEGMENT
__$EHRec$ = -12						; size = 12
___flags$ = 8						; size = 4
??_G?$CList@PAUSTFILEITEM@@PAU1@@@UAEPAXI@Z PROC	; CList<STFILEITEM *,STFILEITEM *>::`scalar deleting destructor', COMDAT
; _this$ = ecx
  00000	55		 push	 ebp
  00001	8b ec		 mov	 ebp, esp
  00003	6a ff		 push	 -1
  00005	68 00 00 00 00	 push	 __ehhandler$??_G?$CList@PAUSTFILEITEM@@PAU1@@@UAEPAXI@Z
  0000a	64 a1 00 00 00
	00		 mov	 eax, DWORD PTR fs:0
  00010	50		 push	 eax
  00011	56		 push	 esi
  00012	a1 00 00 00 00	 mov	 eax, DWORD PTR ___security_cookie
  00017	33 c5		 xor	 eax, ebp
  00019	50		 push	 eax
  0001a	8d 45 f4	 lea	 eax, DWORD PTR __$EHRec$[ebp]
  0001d	64 a3 00 00 00
	00		 mov	 DWORD PTR fs:0, eax
  00023	8b f1		 mov	 esi, ecx
; File C:\Program Files (x86)\Microsoft Visual Studio\2019\Community\VC\Tools\MSVC\14.29.30133\atlmfc\include\afxtempl.h

; 872  : 	m_pBlocks->FreeDataChain();

  00025	8b 4e 14	 mov	 ecx, DWORD PTR [esi+20]

; 878  : {

  00028	c7 45 fc 00 00
	00 00		 mov	 DWORD PTR __$EHRec$[ebp+8], 0
  0002f	c7 06 00 00 00
	00		 mov	 DWORD PTR [esi], OFFSET ??_7?$CList@PAUSTFILEITEM@@PAU1@@@6B@

; 870  : 	m_nCount = 0;

  00035	c7 46 0c 00 00
	00 00		 mov	 DWORD PTR [esi+12], 0

; 871  : 	m_pNodeHead = m_pNodeTail = m_pNodeFree = NULL;

  0003c	c7 46 10 00 00
	00 00		 mov	 DWORD PTR [esi+16], 0
  00043	c7 46 08 00 00
	00 00		 mov	 DWORD PTR [esi+8], 0
  0004a	c7 46 04 00 00
	00 00		 mov	 DWORD PTR [esi+4], 0

; 872  : 	m_pBlocks->FreeDataChain();

  00051	e8 00 00 00 00	 call	 ?FreeDataChain@CPlex@@QAEXXZ ; CPlex::FreeDataChain

; 873  : 	m_pBlocks = NULL;

  00056	8b 45 08	 mov	 eax, DWORD PTR ___flags$[ebp]
  00059	c7 46 14 00 00
	00 00		 mov	 DWORD PTR [esi+20], 0
  00060	a8 01		 test	 al, 1
  00062	74 2c		 je	 SHORT $LN22@scalar
  00064	a8 04		 test	 al, 4
  00066	75 1d		 jne	 SHORT $LN3@scalar
; File C:\Program Files (x86)\Microsoft Visual Studio\2019\Community\VC\Tools\MSVC\14.29.30133\atlmfc\include\afx.inl

; 112  : 	{ ::operator delete(p); }

  00068	56		 push	 esi
  00069	e8 00 00 00 00	 call	 ??3@YAXPAX@Z		; operator delete
  0006e	83 c4 04	 add	 esp, 4
  00071	8b c6		 mov	 eax, esi
  00073	8b 4d f4	 mov	 ecx, DWORD PTR __$EHRec$[ebp]
  00076	64 89 0d 00 00
	00 00		 mov	 DWORD PTR fs:0, ecx
  0007d	59		 pop	 ecx
  0007e	5e		 pop	 esi
  0007f	8b e5		 mov	 esp, ebp
  00081	5d		 pop	 ebp
  00082	c2 04 00	 ret	 4
$LN3@scalar:
  00085	6a 1c		 push	 28			; 0000001cH
  00087	56		 push	 esi
  00088	e8 00 00 00 00	 call	 ?__global_delete@@YAXPAXI@Z ; __global_delete
  0008d	83 c4 08	 add	 esp, 8
$LN22@scalar:
  00090	8b c6		 mov	 eax, esi
  00092	8b 4d f4	 mov	 ecx, DWORD PTR __$EHRec$[ebp]
  00095	64 89 0d 00 00
	00 00		 mov	 DWORD PTR fs:0, ecx
  0009c	59		 pop	 ecx
  0009d	5e		 pop	 esi
  0009e	8b e5		 mov	 esp, ebp
  000a0	5d		 pop	 ebp
  000a1	c2 04 00	 ret	 4
  000a4	cc		 int	 3
  000a5	cc		 int	 3
  000a6	cc		 int	 3
  000a7	cc		 int	 3
  000a8	cc		 int	 3
_TEXT	ENDS
;	COMDAT text$x
text$x	SEGMENT
__ehhandler$??_G?$CList@PAUSTFILEITEM@@PAU1@@@UAEPAXI@Z:
  00000	90		 npad	 1
  00001	90		 npad	 1
  00002	8b 54 24 08	 mov	 edx, DWORD PTR [esp+8]
  00006	8d 42 0c	 lea	 eax, DWORD PTR [edx+12]
  00009	8b 4a f8	 mov	 ecx, DWORD PTR [edx-8]
  0000c	33 c8		 xor	 ecx, eax
  0000e	e8 00 00 00 00	 call	 @__security_check_cookie@4
  00013	b8 00 00 00 00	 mov	 eax, OFFSET __ehfuncinfo$??_G?$CList@PAUSTFILEITEM@@PAU1@@@UAEPAXI@Z
  00018	e9 00 00 00 00	 jmp	 ___CxxFrameHandler3
text$x	ENDS
??_G?$CList@PAUSTFILEITEM@@PAU1@@@UAEPAXI@Z ENDP	; CList<STFILEITEM *,STFILEITEM *>::`scalar deleting destructor'
; Function compile flags: /Ogtp
; File C:\Program Files (x86)\Microsoft Visual Studio\2019\Community\VC\Tools\MSVC\14.29.30133\atlmfc\include\afxtempl.h
; File C:\Program Files (x86)\Microsoft Visual Studio\2019\Community\VC\Tools\MSVC\14.29.30133\atlmfc\include\afx.inl
; File C:\Program Files (x86)\Microsoft Visual Studio\2019\Community\VC\Tools\MSVC\14.29.30133\atlmfc\include\afxtempl.h
; File C:\Program Files (x86)\Microsoft Visual Studio\2019\Community\VC\Tools\MSVC\14.29.30133\atlmfc\include\afx.inl
; File C:\Program Files (x86)\Microsoft Visual Studio\2019\Community\VC\Tools\MSVC\14.29.30133\atlmfc\include\afxtempl.h
; File C:\Program Files (x86)\Microsoft Visual Studio\2019\Community\VC\Tools\MSVC\14.29.30133\atlmfc\include\afx.inl
; File C:\Program Files (x86)\Microsoft Visual Studio\2019\Community\VC\Tools\MSVC\14.29.30133\atlmfc\include\afxtempl.h
; File C:\Program Files (x86)\Microsoft Visual Studio\2019\Community\VC\Tools\MSVC\14.29.30133\atlmfc\include\afx.inl
; File C:\Program Files (x86)\Microsoft Visual Studio\2019\Community\VC\Tools\MSVC\14.29.30133\atlmfc\include\afxtempl.h
; File C:\Program Files (x86)\Microsoft Visual Studio\2019\Community\VC\Tools\MSVC\14.29.30133\atlmfc\include\afx.inl
; File C:\Program Files (x86)\Microsoft Visual Studio\2019\Community\VC\Tools\MSVC\14.29.30133\atlmfc\include\afxtempl.h
; File C:\Program Files (x86)\Microsoft Visual Studio\2019\Community\VC\Tools\MSVC\14.29.30133\atlmfc\include\afx.inl
; File C:\Program Files (x86)\Microsoft Visual Studio\2019\Community\VC\Tools\MSVC\14.29.30133\atlmfc\include\afxtempl.h
;	COMDAT ?Serialize@?$CList@PAUSTFILEITEM@@PAU1@@@UAEXAAVCArchive@@@Z
_TEXT	SEGMENT
_nNewCount$1$ = -16					; size = 4
_newData$1 = -12					; size = 4
_pData$1$ = -8						; size = 4
_pNode$1$ = -8						; size = 4
_nElementsLeft$1$ = -4					; size = 4
_this$1$ = -4						; size = 4
_ar$ = 8						; size = 4
?Serialize@?$CList@PAUSTFILEITEM@@PAU1@@@UAEXAAVCArchive@@@Z PROC ; CList<STFILEITEM *,STFILEITEM *>::Serialize, COMDAT
; _this$ = ecx

; 1169 : {

  00000	55		 push	 ebp
  00001	8b ec		 mov	 ebp, esp
  00003	83 ec 10	 sub	 esp, 16			; 00000010H
  00006	53		 push	 ebx
  00007	8b d9		 mov	 ebx, ecx
; File C:\Program Files (x86)\Microsoft Visual Studio\2019\Community\VC\Tools\MSVC\14.29.30133\atlmfc\include\afx.inl

; 212  : 	{ return (m_nMode & CArchive::load) == 0; }

  00009	8b 4d 08	 mov	 ecx, DWORD PTR _ar$[ebp]
; File C:\Program Files (x86)\Microsoft Visual Studio\2019\Community\VC\Tools\MSVC\14.29.30133\atlmfc\include\afxtempl.h

; 1169 : {

  0000c	56		 push	 esi
  0000d	57		 push	 edi
  0000e	89 5d fc	 mov	 DWORD PTR _this$1$[ebp], ebx
; File C:\Program Files (x86)\Microsoft Visual Studio\2019\Community\VC\Tools\MSVC\14.29.30133\atlmfc\include\afx.inl

; 212  : 	{ return (m_nMode & CArchive::load) == 0; }

  00011	8b 41 18	 mov	 eax, DWORD PTR [ecx+24]
  00014	f7 d0		 not	 eax
  00016	a8 01		 test	 al, 1
; File C:\Program Files (x86)\Microsoft Visual Studio\2019\Community\VC\Tools\MSVC\14.29.30133\atlmfc\include\afxtempl.h

; 1174 : 	if (ar.IsStoring())

  00018	0f 84 ae 00 00
	00		 je	 $LN7@Serialize

; 1175 : 	{
; 1176 : 		ar.WriteCount(m_nCount);

  0001e	ff 73 0c	 push	 DWORD PTR [ebx+12]
  00021	e8 00 00 00 00	 call	 ?WriteCount@CArchive@@QAEXK@Z ; CArchive::WriteCount

; 1177 : 		for (CNode* pNode = m_pNodeHead; pNode != NULL; pNode = pNode->pNext)

  00026	8b 43 04	 mov	 eax, DWORD PTR [ebx+4]
  00029	89 45 f8	 mov	 DWORD PTR _pNode$1$[ebp], eax
  0002c	85 c0		 test	 eax, eax
  0002e	0f 84 43 01 00
	00		 je	 $LN68@Serialize
$LL4@Serialize:

; 1178 : 		{
; 1179 : 			ASSERT(AfxIsValidAddress(pNode, sizeof(CNode)));
; 1180 : 			TYPE* pData;
; 1181 : 			/*
; 1182 : 			 * in some cases the & operator might be overloaded, and we cannot use it to obtain
; 1183 : 			 * the address of a given object.  We then use the following trick to get the address
; 1184 : 			 */
; 1185 : 			pData = reinterpret_cast< TYPE* >( &reinterpret_cast< int& >( static_cast< TYPE& >( pNode->data ) ) );

  00034	8d 70 08	 lea	 esi, DWORD PTR [eax+8]

; 68   : 	ENSURE(nCount == 0 || pElements != NULL);

  00037	85 f6		 test	 esi, esi
  00039	0f 84 4a 01 00
	00		 je	 $LN60@Serialize
; File C:\Program Files (x86)\Microsoft Visual Studio\2019\Community\VC\Tools\MSVC\14.29.30133\atlmfc\include\afx.inl

; 212  : 	{ return (m_nMode & CArchive::load) == 0; }

  0003f	8b 4d 08	 mov	 ecx, DWORD PTR _ar$[ebp]
  00042	8b 41 18	 mov	 eax, DWORD PTR [ecx+24]
  00045	f7 d0		 not	 eax
  00047	a8 01		 test	 al, 1
; File C:\Program Files (x86)\Microsoft Visual Studio\2019\Community\VC\Tools\MSVC\14.29.30133\atlmfc\include\afxtempl.h

; 73   : 	if (ar.IsStoring())

  00049	74 33		 je	 SHORT $LN21@Serialize

; 74   : 	{
; 75   : 		TYPE* pData;
; 76   : 		UINT_PTR nElementsLeft;
; 77   : 
; 78   : 		nElementsLeft = nCount;

  0004b	b8 01 00 00 00	 mov	 eax, 1
  00050	89 45 fc	 mov	 DWORD PTR _nElementsLeft$1$[ebp], eax
$LL16@Serialize:

; 80   : 		while( nElementsLeft > 0 )
; 81   : 		{
; 82   : 			UINT nElementsToWrite;
; 83   : 
; 84   : 			nElementsToWrite = UINT(__min(nElementsLeft, INT_MAX/sizeof(TYPE)));

  00053	bb ff ff ff 1f	 mov	 ebx, 536870911		; 1fffffffH
  00058	3b c3		 cmp	 eax, ebx
  0005a	0f 42 d8	 cmovb	 ebx, eax

; 85   : 			ar.Write(pData, nElementsToWrite*sizeof(TYPE));

  0005d	8d 3c 9d 00 00
	00 00		 lea	 edi, DWORD PTR [ebx*4]
  00064	57		 push	 edi
  00065	56		 push	 esi
  00066	e8 00 00 00 00	 call	 ?Write@CArchive@@QAEXPBXI@Z ; CArchive::Write

; 86   : 			nElementsLeft -= nElementsToWrite;

  0006b	8b 45 fc	 mov	 eax, DWORD PTR _nElementsLeft$1$[ebp]

; 87   : 			pData += nElementsToWrite;

  0006e	03 f7		 add	 esi, edi
  00070	8b 4d 08	 mov	 ecx, DWORD PTR _ar$[ebp]
  00073	2b c3		 sub	 eax, ebx
  00075	89 45 fc	 mov	 DWORD PTR _nElementsLeft$1$[ebp], eax
  00078	85 c0		 test	 eax, eax
  0007a	75 d7		 jne	 SHORT $LL16@Serialize

; 88   : 		}
; 89   : 	}

  0007c	eb 35		 jmp	 SHORT $LN2@Serialize
$LN21@Serialize:

; 90   : 	else
; 91   : 	{
; 92   : 		TYPE* pData;
; 93   : 		UINT_PTR nElementsLeft;
; 94   : 
; 95   : 		nElementsLeft = nCount;

  0007e	bf 01 00 00 00	 mov	 edi, 1
$LL18@Serialize:

; 98   : 		{
; 99   : 			UINT nElementsToRead;
; 100  : 
; 101  : 			nElementsToRead = UINT(__min(nElementsLeft, INT_MAX/sizeof(TYPE)));

  00083	bb ff ff ff 1f	 mov	 ebx, 536870911		; 1fffffffH
  00088	3b fb		 cmp	 edi, ebx
  0008a	0f 42 df	 cmovb	 ebx, edi

; 102  : 			ar.EnsureRead(pData, nElementsToRead*sizeof(TYPE));

  0008d	8d 04 9d 00 00
	00 00		 lea	 eax, DWORD PTR [ebx*4]
; File C:\Program Files (x86)\Microsoft Visual Studio\2019\Community\VC\Tools\MSVC\14.29.30133\atlmfc\include\afx.inl

; 399  : 	UINT nRead=Read(lpBuf, nCount);

  00094	50		 push	 eax
  00095	56		 push	 esi
  00096	e8 00 00 00 00	 call	 ?Read@CArchive@@QAEIPAXI@Z ; CArchive::Read

; 400  : 	if(nRead!=nCount)

  0009b	8d 0c 9d 00 00
	00 00		 lea	 ecx, DWORD PTR [ebx*4]
  000a2	3b c1		 cmp	 eax, ecx
  000a4	0f 85 d6 00 00
	00		 jne	 $LN59@Serialize
; File C:\Program Files (x86)\Microsoft Visual Studio\2019\Community\VC\Tools\MSVC\14.29.30133\atlmfc\include\afxtempl.h

; 97   : 		while( nElementsLeft > 0 )

  000aa	03 f1		 add	 esi, ecx
  000ac	8b 4d 08	 mov	 ecx, DWORD PTR _ar$[ebp]

; 103  : 			nElementsLeft -= nElementsToRead;

  000af	2b fb		 sub	 edi, ebx
  000b1	75 d0		 jne	 SHORT $LL18@Serialize
$LN2@Serialize:

; 1177 : 		for (CNode* pNode = m_pNodeHead; pNode != NULL; pNode = pNode->pNext)

  000b3	8b 45 f8	 mov	 eax, DWORD PTR _pNode$1$[ebp]
  000b6	8b 00		 mov	 eax, DWORD PTR [eax]
  000b8	89 45 f8	 mov	 DWORD PTR _pNode$1$[ebp], eax
  000bb	85 c0		 test	 eax, eax
  000bd	0f 85 71 ff ff
	ff		 jne	 $LL4@Serialize

; 1197 : 		}
; 1198 : 	}
; 1199 : }

  000c3	5f		 pop	 edi
  000c4	5e		 pop	 esi
  000c5	5b		 pop	 ebx
  000c6	8b e5		 mov	 esp, ebp
  000c8	5d		 pop	 ebp
  000c9	c2 04 00	 ret	 4
$LN7@Serialize:

; 1186 : 			SerializeElements<TYPE>(ar, pData, 1);
; 1187 : 		}
; 1188 : 	}
; 1189 : 	else
; 1190 : 	{
; 1191 : 		DWORD_PTR nNewCount = ar.ReadCount();

  000cc	e8 00 00 00 00	 call	 ?ReadCount@CArchive@@QAEKXZ ; CArchive::ReadCount

; 1192 : 		while (nNewCount--)

  000d1	85 c0		 test	 eax, eax
  000d3	0f 84 9e 00 00
	00		 je	 $LN68@Serialize
  000d9	0f 1f 80 00 00
	00 00		 npad	 7
$LL5@Serialize:
  000e0	48		 dec	 eax
  000e1	89 45 f0	 mov	 DWORD PTR _nNewCount$1$[ebp], eax
; File C:\Program Files (x86)\Microsoft Visual Studio\2019\Community\VC\Tools\MSVC\14.29.30133\atlmfc\include\afx.inl

; 212  : 	{ return (m_nMode & CArchive::load) == 0; }

  000e4	8b 45 08	 mov	 eax, DWORD PTR _ar$[ebp]
  000e7	8b 48 18	 mov	 ecx, DWORD PTR [eax+24]
  000ea	f7 d1		 not	 ecx
  000ec	f6 c1 01	 test	 cl, 1
; File C:\Program Files (x86)\Microsoft Visual Studio\2019\Community\VC\Tools\MSVC\14.29.30133\atlmfc\include\afxtempl.h

; 73   : 	if (ar.IsStoring())

  000ef	74 3a		 je	 SHORT $LN42@Serialize

; 79   : 		pData = pElements;

  000f1	8d 4d f4	 lea	 ecx, DWORD PTR _newData$1[ebp]
  000f4	bb 01 00 00 00	 mov	 ebx, 1
  000f9	89 4d f8	 mov	 DWORD PTR _pData$1$[ebp], ecx
  000fc	0f 1f 40 00	 npad	 4
$LL37@Serialize:

; 80   : 		while( nElementsLeft > 0 )
; 81   : 		{
; 82   : 			UINT nElementsToWrite;
; 83   : 
; 84   : 			nElementsToWrite = UINT(__min(nElementsLeft, INT_MAX/sizeof(TYPE)));

  00100	bf ff ff ff 1f	 mov	 edi, 536870911		; 1fffffffH
  00105	3b df		 cmp	 ebx, edi
  00107	0f 42 fb	 cmovb	 edi, ebx

; 85   : 			ar.Write(pData, nElementsToWrite*sizeof(TYPE));

  0010a	8d 34 bd 00 00
	00 00		 lea	 esi, DWORD PTR [edi*4]
  00111	56		 push	 esi
  00112	51		 push	 ecx
  00113	8b c8		 mov	 ecx, eax
  00115	e8 00 00 00 00	 call	 ?Write@CArchive@@QAEXPBXI@Z ; CArchive::Write

; 87   : 			pData += nElementsToWrite;

  0011a	8b 4d f8	 mov	 ecx, DWORD PTR _pData$1$[ebp]
  0011d	8b 45 08	 mov	 eax, DWORD PTR _ar$[ebp]
  00120	03 ce		 add	 ecx, esi
  00122	89 4d f8	 mov	 DWORD PTR _pData$1$[ebp], ecx
  00125	2b df		 sub	 ebx, edi
  00127	75 d7		 jne	 SHORT $LL37@Serialize

; 88   : 		}
; 89   : 	}

  00129	eb 36		 jmp	 SHORT $LN40@Serialize
$LN42@Serialize:

; 90   : 	else
; 91   : 	{
; 92   : 		TYPE* pData;
; 93   : 		UINT_PTR nElementsLeft;
; 94   : 
; 95   : 		nElementsLeft = nCount;

  0012b	be 01 00 00 00	 mov	 esi, 1

; 96   : 		pData = pElements;

  00130	8d 5d f4	 lea	 ebx, DWORD PTR _newData$1[ebp]
$LL39@Serialize:

; 98   : 		{
; 99   : 			UINT nElementsToRead;
; 100  : 
; 101  : 			nElementsToRead = UINT(__min(nElementsLeft, INT_MAX/sizeof(TYPE)));

  00133	bf ff ff ff 1f	 mov	 edi, 536870911		; 1fffffffH
  00138	3b f7		 cmp	 esi, edi
  0013a	0f 42 fe	 cmovb	 edi, esi

; 102  : 			ar.EnsureRead(pData, nElementsToRead*sizeof(TYPE));

  0013d	8d 0c bd 00 00
	00 00		 lea	 ecx, DWORD PTR [edi*4]
; File C:\Program Files (x86)\Microsoft Visual Studio\2019\Community\VC\Tools\MSVC\14.29.30133\atlmfc\include\afx.inl

; 399  : 	UINT nRead=Read(lpBuf, nCount);

  00144	51		 push	 ecx
  00145	53		 push	 ebx
  00146	8b c8		 mov	 ecx, eax
  00148	e8 00 00 00 00	 call	 ?Read@CArchive@@QAEIPAXI@Z ; CArchive::Read

; 400  : 	if(nRead!=nCount)

  0014d	8d 0c bd 00 00
	00 00		 lea	 ecx, DWORD PTR [edi*4]
  00154	3b c1		 cmp	 eax, ecx
  00156	75 28		 jne	 SHORT $LN59@Serialize
; File C:\Program Files (x86)\Microsoft Visual Studio\2019\Community\VC\Tools\MSVC\14.29.30133\atlmfc\include\afxtempl.h

; 104  : 			pData += nElementsToRead;

  00158	8b 45 08	 mov	 eax, DWORD PTR _ar$[ebp]
  0015b	03 d9		 add	 ebx, ecx
  0015d	2b f7		 sub	 esi, edi
  0015f	75 d2		 jne	 SHORT $LL39@Serialize
$LN40@Serialize:

; 1193 : 		{
; 1194 : 			TYPE newData[1];
; 1195 : 			SerializeElements<TYPE>(ar, newData, 1);
; 1196 : 			AddTail(newData[0]);

  00161	ff 75 f4	 push	 DWORD PTR _newData$1[ebp]
  00164	8b 4d fc	 mov	 ecx, DWORD PTR _this$1$[ebp]
  00167	e8 00 00 00 00	 call	 ?AddTail@?$CList@PAUSTFILEITEM@@PAU1@@@QAEPAU__POSITION@@PAUSTFILEITEM@@@Z ; CList<STFILEITEM *,STFILEITEM *>::AddTail
  0016c	8b 45 f0	 mov	 eax, DWORD PTR _nNewCount$1$[ebp]
  0016f	85 c0		 test	 eax, eax
  00171	0f 85 69 ff ff
	ff		 jne	 $LL5@Serialize
$LN68@Serialize:
  00177	5f		 pop	 edi

; 1197 : 		}
; 1198 : 	}
; 1199 : }

  00178	5e		 pop	 esi
  00179	5b		 pop	 ebx
  0017a	8b e5		 mov	 esp, ebp
  0017c	5d		 pop	 ebp
  0017d	c2 04 00	 ret	 4
$LN59@Serialize:
  00180	6a 00		 push	 0
  00182	6a 03		 push	 3
  00184	e8 00 00 00 00	 call	 ?AfxThrowArchiveException@@YGXHPBD@Z ; AfxThrowArchiveException
$LN60@Serialize:

; 68   : 	ENSURE(nCount == 0 || pElements != NULL);

  00189	e8 00 00 00 00	 call	 ?AfxThrowInvalidArgException@@YGXXZ ; AfxThrowInvalidArgException
$LN85@Serialize:
  0018e	cc		 int	 3
?Serialize@?$CList@PAUSTFILEITEM@@PAU1@@@UAEXAAVCArchive@@@Z ENDP ; CList<STFILEITEM *,STFILEITEM *>::Serialize
_TEXT	ENDS
; Function compile flags: /Ogtp
; File C:\Program Files (x86)\Microsoft Visual Studio\2019\Community\VC\Tools\MSVC\14.29.30133\atlmfc\include\afxtempl.h
;	COMDAT ??1?$CList@PAUSTFILEITEM@@PAU1@@@UAE@XZ
_TEXT	SEGMENT
__$EHRec$ = -12						; size = 12
??1?$CList@PAUSTFILEITEM@@PAU1@@@UAE@XZ PROC		; CList<STFILEITEM *,STFILEITEM *>::~CList<STFILEITEM *,STFILEITEM *>, COMDAT
; _this$ = ecx

; 878  : {

  00000	55		 push	 ebp
  00001	8b ec		 mov	 ebp, esp
  00003	6a ff		 push	 -1
  00005	68 00 00 00 00	 push	 __ehhandler$??1?$CList@PAUSTFILEITEM@@PAU1@@@UAE@XZ
  0000a	64 a1 00 00 00
	00		 mov	 eax, DWORD PTR fs:0
  00010	50		 push	 eax
  00011	56		 push	 esi
  00012	a1 00 00 00 00	 mov	 eax, DWORD PTR ___security_cookie
  00017	33 c5		 xor	 eax, ebp
  00019	50		 push	 eax
  0001a	8d 45 f4	 lea	 eax, DWORD PTR __$EHRec$[ebp]
  0001d	64 a3 00 00 00
	00		 mov	 DWORD PTR fs:0, eax
  00023	8b f1		 mov	 esi, ecx

; 872  : 	m_pBlocks->FreeDataChain();

  00025	8b 4e 14	 mov	 ecx, DWORD PTR [esi+20]

; 878  : {

  00028	c7 06 00 00 00
	00		 mov	 DWORD PTR [esi], OFFSET ??_7?$CList@PAUSTFILEITEM@@PAU1@@@6B@

; 870  : 	m_nCount = 0;

  0002e	c7 46 0c 00 00
	00 00		 mov	 DWORD PTR [esi+12], 0

; 871  : 	m_pNodeHead = m_pNodeTail = m_pNodeFree = NULL;

  00035	c7 46 10 00 00
	00 00		 mov	 DWORD PTR [esi+16], 0
  0003c	c7 46 08 00 00
	00 00		 mov	 DWORD PTR [esi+8], 0
  00043	c7 46 04 00 00
	00 00		 mov	 DWORD PTR [esi+4], 0

; 872  : 	m_pBlocks->FreeDataChain();

  0004a	e8 00 00 00 00	 call	 ?FreeDataChain@CPlex@@QAEXXZ ; CPlex::FreeDataChain

; 873  : 	m_pBlocks = NULL;

  0004f	c7 46 14 00 00
	00 00		 mov	 DWORD PTR [esi+20], 0

; 879  : 	RemoveAll();
; 880  : 	ASSERT(m_nCount == 0);
; 881  : }

  00056	8b 4d f4	 mov	 ecx, DWORD PTR __$EHRec$[ebp]
  00059	64 89 0d 00 00
	00 00		 mov	 DWORD PTR fs:0, ecx
  00060	59		 pop	 ecx
  00061	5e		 pop	 esi
  00062	8b e5		 mov	 esp, ebp
  00064	5d		 pop	 ebp
  00065	c3		 ret	 0
  00066	cc		 int	 3
  00067	cc		 int	 3
  00068	cc		 int	 3
  00069	cc		 int	 3
  0006a	cc		 int	 3
_TEXT	ENDS
;	COMDAT text$x
text$x	SEGMENT
__ehhandler$??1?$CList@PAUSTFILEITEM@@PAU1@@@UAE@XZ:
  00000	90		 npad	 1
  00001	90		 npad	 1
  00002	8b 54 24 08	 mov	 edx, DWORD PTR [esp+8]
  00006	8d 42 0c	 lea	 eax, DWORD PTR [edx+12]
  00009	8b 4a f8	 mov	 ecx, DWORD PTR [edx-8]
  0000c	33 c8		 xor	 ecx, eax
  0000e	e8 00 00 00 00	 call	 @__security_check_cookie@4
  00013	b8 00 00 00 00	 mov	 eax, OFFSET __ehfuncinfo$??1?$CList@PAUSTFILEITEM@@PAU1@@@UAE@XZ
  00018	e9 00 00 00 00	 jmp	 ___CxxFrameHandler3
text$x	ENDS
??1?$CList@PAUSTFILEITEM@@PAU1@@@UAE@XZ ENDP		; CList<STFILEITEM *,STFILEITEM *>::~CList<STFILEITEM *,STFILEITEM *>
; Function compile flags: /Ogtp
; File C:\Program Files (x86)\Microsoft Visual Studio\2019\Community\VC\Tools\MSVC\14.29.30133\atlmfc\include\afxtempl.h
;	COMDAT ?NewNode@?$CList@PAUSTFILEITEM@@PAU1@@@IAEPAUCNode@1@PAU21@0@Z
_TEXT	SEGMENT
_pPrev$ = 8						; size = 4
_pNext$ = 12						; size = 4
?NewNode@?$CList@PAUSTFILEITEM@@PAU1@@@IAEPAUCNode@1@PAU21@0@Z PROC ; CList<STFILEITEM *,STFILEITEM *>::NewNode, COMDAT
; _this$ = ecx

; 901  : {

  00000	55		 push	 ebp
  00001	8b ec		 mov	 ebp, esp
  00003	56		 push	 esi
  00004	8b f1		 mov	 esi, ecx

; 902  : 	if (m_pNodeFree == NULL)

  00006	83 7e 10 00	 cmp	 DWORD PTR [esi+16], 0
  0000a	75 34		 jne	 SHORT $LN7@NewNode

; 903  : 	{
; 904  : 		// add another block
; 905  : 		CPlex* pNewBlock = CPlex::Create(m_pBlocks, m_nBlockSize,

  0000c	6a 0c		 push	 12			; 0000000cH
  0000e	ff 76 18	 push	 DWORD PTR [esi+24]
  00011	8d 46 14	 lea	 eax, DWORD PTR [esi+20]
  00014	50		 push	 eax
  00015	e8 00 00 00 00	 call	 ?Create@CPlex@@SGPAU1@AAPAU1@II@Z ; CPlex::Create

; 906  : 				 sizeof(CNode));
; 907  : 
; 908  : 		// chain them into free list
; 909  : 		CNode* pNode = (CNode*) pNewBlock->data();
; 910  : 		// free in reverse order to make it easier to debug
; 911  : 		pNode += m_nBlockSize - 1;

  0001a	8b 56 18	 mov	 edx, DWORD PTR [esi+24]
  0001d	83 c0 08	 add	 eax, 8
  00020	8d 0c 52	 lea	 ecx, DWORD PTR [edx+edx*2]
  00023	8d 04 88	 lea	 eax, DWORD PTR [eax+ecx*4]
  00026	83 c0 f4	 add	 eax, -12		; fffffff4H

; 912  : 		for (INT_PTR i = m_nBlockSize-1; i >= 0; i--, pNode--)

  00029	83 c2 ff	 add	 edx, -1
  0002c	78 12		 js	 SHORT $LN7@NewNode
  0002e	66 90		 npad	 2
$LL4@NewNode:

; 913  : 		{
; 914  : 			pNode->pNext = m_pNodeFree;

  00030	8b 4e 10	 mov	 ecx, DWORD PTR [esi+16]
  00033	89 08		 mov	 DWORD PTR [eax], ecx

; 915  : 			m_pNodeFree = pNode;

  00035	89 46 10	 mov	 DWORD PTR [esi+16], eax
  00038	83 e8 0c	 sub	 eax, 12			; 0000000cH
  0003b	83 ea 01	 sub	 edx, 1
  0003e	79 f0		 jns	 SHORT $LL4@NewNode
$LN7@NewNode:

; 916  : 		}
; 917  : 	}
; 918  : 	ENSURE(m_pNodeFree != NULL);  // we must have something

  00040	8b 46 10	 mov	 eax, DWORD PTR [esi+16]
  00043	85 c0		 test	 eax, eax
  00045	74 18		 je	 SHORT $LN17@NewNode

; 919  : 
; 920  : 	CList::CNode* pNode = m_pNodeFree;
; 921  : 	m_pNodeFree = m_pNodeFree->pNext;

  00047	8b 08		 mov	 ecx, DWORD PTR [eax]
  00049	89 4e 10	 mov	 DWORD PTR [esi+16], ecx

; 922  : 	pNode->pPrev = pPrev;

  0004c	8b 4d 08	 mov	 ecx, DWORD PTR _pPrev$[ebp]
  0004f	89 48 04	 mov	 DWORD PTR [eax+4], ecx

; 923  : 	pNode->pNext = pNext;

  00052	8b 4d 0c	 mov	 ecx, DWORD PTR _pNext$[ebp]
  00055	89 08		 mov	 DWORD PTR [eax], ecx

; 924  : 	m_nCount++;

  00057	ff 46 0c	 inc	 DWORD PTR [esi+12]

; 925  : 	ASSERT(m_nCount > 0);  // make sure we don't overflow
; 926  : 
; 927  : #pragma push_macro("new")
; 928  : #undef new
; 929  : 	::new( (void*)( &pNode->data ) ) TYPE;
; 930  : #pragma pop_macro("new")
; 931  : 	return pNode;

  0005a	5e		 pop	 esi

; 932  : }

  0005b	5d		 pop	 ebp
  0005c	c2 08 00	 ret	 8
$LN17@NewNode:

; 916  : 		}
; 917  : 	}
; 918  : 	ENSURE(m_pNodeFree != NULL);  // we must have something

  0005f	e8 00 00 00 00	 call	 ?AfxThrowInvalidArgException@@YGXXZ ; AfxThrowInvalidArgException
$LN15@NewNode:
  00064	cc		 int	 3
?NewNode@?$CList@PAUSTFILEITEM@@PAU1@@@IAEPAUCNode@1@PAU21@0@Z ENDP ; CList<STFILEITEM *,STFILEITEM *>::NewNode
_TEXT	ENDS
; Function compile flags: /Ogtp
; File C:\Program Files (x86)\Microsoft Visual Studio\2019\Community\VC\Tools\MSVC\14.29.30133\atlmfc\include\afxtempl.h
;	COMDAT ?RemoveAll@?$CList@PAUSTFILEITEM@@PAU1@@@QAEXXZ
_TEXT	SEGMENT
?RemoveAll@?$CList@PAUSTFILEITEM@@PAU1@@@QAEXXZ PROC	; CList<STFILEITEM *,STFILEITEM *>::RemoveAll, COMDAT
; _this$ = ecx

; 862  : {

  00000	56		 push	 esi
  00001	8b f1		 mov	 esi, ecx

; 863  : 	ASSERT_VALID(this);
; 864  : 
; 865  : 	// destroy elements
; 866  : 	CNode* pNode;
; 867  : 	for (pNode = m_pNodeHead; pNode != NULL; pNode = pNode->pNext)
; 868  : 		pNode->data.~TYPE();
; 869  : 
; 870  : 	m_nCount = 0;
; 871  : 	m_pNodeHead = m_pNodeTail = m_pNodeFree = NULL;
; 872  : 	m_pBlocks->FreeDataChain();

  00003	8b 4e 14	 mov	 ecx, DWORD PTR [esi+20]
  00006	c7 46 0c 00 00
	00 00		 mov	 DWORD PTR [esi+12], 0
  0000d	c7 46 10 00 00
	00 00		 mov	 DWORD PTR [esi+16], 0
  00014	c7 46 08 00 00
	00 00		 mov	 DWORD PTR [esi+8], 0
  0001b	c7 46 04 00 00
	00 00		 mov	 DWORD PTR [esi+4], 0
  00022	e8 00 00 00 00	 call	 ?FreeDataChain@CPlex@@QAEXXZ ; CPlex::FreeDataChain

; 873  : 	m_pBlocks = NULL;

  00027	c7 46 14 00 00
	00 00		 mov	 DWORD PTR [esi+20], 0
  0002e	5e		 pop	 esi

; 874  : }

  0002f	c3		 ret	 0
?RemoveAll@?$CList@PAUSTFILEITEM@@PAU1@@@QAEXXZ ENDP	; CList<STFILEITEM *,STFILEITEM *>::RemoveAll
_TEXT	ENDS
; Function compile flags: /Ogtp
; File C:\Program Files (x86)\Microsoft Visual Studio\2019\Community\VC\Tools\MSVC\14.29.30133\atlmfc\include\afxtempl.h
;	COMDAT ?AddTail@?$CList@PAUSTFILEITEM@@PAU1@@@QAEPAU__POSITION@@PAUSTFILEITEM@@@Z
_TEXT	SEGMENT
_newElement$ = 8					; size = 4
?AddTail@?$CList@PAUSTFILEITEM@@PAU1@@@QAEPAU__POSITION@@PAUSTFILEITEM@@@Z PROC ; CList<STFILEITEM *,STFILEITEM *>::AddTail, COMDAT
; _this$ = ecx

; 965  : {

  00000	55		 push	 ebp
  00001	8b ec		 mov	 ebp, esp
  00003	56		 push	 esi
  00004	8b f1		 mov	 esi, ecx
  00006	57		 push	 edi

; 902  : 	if (m_pNodeFree == NULL)

  00007	83 7e 10 00	 cmp	 DWORD PTR [esi+16], 0

; 966  : 	ASSERT_VALID(this);
; 967  : 
; 968  : 	CNode* pNewNode = NewNode(m_pNodeTail, NULL);

  0000b	8b 7e 08	 mov	 edi, DWORD PTR [esi+8]

; 902  : 	if (m_pNodeFree == NULL)

  0000e	75 32		 jne	 SHORT $LN11@AddTail

; 903  : 	{
; 904  : 		// add another block
; 905  : 		CPlex* pNewBlock = CPlex::Create(m_pBlocks, m_nBlockSize,

  00010	6a 0c		 push	 12			; 0000000cH
  00012	ff 76 18	 push	 DWORD PTR [esi+24]
  00015	8d 46 14	 lea	 eax, DWORD PTR [esi+20]
  00018	50		 push	 eax
  00019	e8 00 00 00 00	 call	 ?Create@CPlex@@SGPAU1@AAPAU1@II@Z ; CPlex::Create

; 906  : 				 sizeof(CNode));
; 907  : 
; 908  : 		// chain them into free list
; 909  : 		CNode* pNode = (CNode*) pNewBlock->data();
; 910  : 		// free in reverse order to make it easier to debug
; 911  : 		pNode += m_nBlockSize - 1;

  0001e	8b 56 18	 mov	 edx, DWORD PTR [esi+24]
  00021	83 c0 08	 add	 eax, 8
  00024	8d 4a ff	 lea	 ecx, DWORD PTR [edx-1]

; 912  : 		for (INT_PTR i = m_nBlockSize-1; i >= 0; i--, pNode--)

  00027	83 c2 ff	 add	 edx, -1
  0002a	8d 0c 49	 lea	 ecx, DWORD PTR [ecx+ecx*2]
  0002d	8d 0c 88	 lea	 ecx, DWORD PTR [eax+ecx*4]
  00030	78 10		 js	 SHORT $LN11@AddTail
$LL8@AddTail:

; 913  : 		{
; 914  : 			pNode->pNext = m_pNodeFree;

  00032	8b 46 10	 mov	 eax, DWORD PTR [esi+16]
  00035	89 01		 mov	 DWORD PTR [ecx], eax

; 915  : 			m_pNodeFree = pNode;

  00037	89 4e 10	 mov	 DWORD PTR [esi+16], ecx
  0003a	83 e9 0c	 sub	 ecx, 12			; 0000000cH
  0003d	83 ea 01	 sub	 edx, 1
  00040	79 f0		 jns	 SHORT $LL8@AddTail
$LN11@AddTail:

; 916  : 		}
; 917  : 	}
; 918  : 	ENSURE(m_pNodeFree != NULL);  // we must have something

  00042	8b 4e 10	 mov	 ecx, DWORD PTR [esi+16]
  00045	85 c9		 test	 ecx, ecx
  00047	74 39		 je	 SHORT $LN22@AddTail

; 919  : 
; 920  : 	CList::CNode* pNode = m_pNodeFree;
; 921  : 	m_pNodeFree = m_pNodeFree->pNext;

  00049	8b 01		 mov	 eax, DWORD PTR [ecx]
  0004b	89 46 10	 mov	 DWORD PTR [esi+16], eax

; 969  : 	pNewNode->data = newElement;

  0004e	8b 45 08	 mov	 eax, DWORD PTR _newElement$[ebp]

; 922  : 	pNode->pPrev = pPrev;

  00051	89 79 04	 mov	 DWORD PTR [ecx+4], edi

; 923  : 	pNode->pNext = pNext;

  00054	c7 01 00 00 00
	00		 mov	 DWORD PTR [ecx], 0

; 924  : 	m_nCount++;

  0005a	ff 46 0c	 inc	 DWORD PTR [esi+12]

; 969  : 	pNewNode->data = newElement;

  0005d	89 41 08	 mov	 DWORD PTR [ecx+8], eax

; 970  : 	if (m_pNodeTail != NULL)

  00060	8b 46 08	 mov	 eax, DWORD PTR [esi+8]
  00063	85 c0		 test	 eax, eax
  00065	74 0d		 je	 SHORT $LN2@AddTail

; 971  : 		m_pNodeTail->pNext = pNewNode;

  00067	89 08		 mov	 DWORD PTR [eax], ecx

; 972  : 	else
; 973  : 		m_pNodeHead = pNewNode;
; 974  : 	m_pNodeTail = pNewNode;
; 975  : 	return (POSITION) pNewNode;

  00069	8b c1		 mov	 eax, ecx
  0006b	5f		 pop	 edi
  0006c	89 4e 08	 mov	 DWORD PTR [esi+8], ecx
  0006f	5e		 pop	 esi

; 976  : }

  00070	5d		 pop	 ebp
  00071	c2 04 00	 ret	 4
$LN2@AddTail:

; 972  : 	else
; 973  : 		m_pNodeHead = pNewNode;
; 974  : 	m_pNodeTail = pNewNode;
; 975  : 	return (POSITION) pNewNode;

  00074	5f		 pop	 edi
  00075	89 4e 04	 mov	 DWORD PTR [esi+4], ecx
  00078	8b c1		 mov	 eax, ecx
  0007a	89 4e 08	 mov	 DWORD PTR [esi+8], ecx
  0007d	5e		 pop	 esi

; 976  : }

  0007e	5d		 pop	 ebp
  0007f	c2 04 00	 ret	 4
$LN22@AddTail:

; 918  : 	ENSURE(m_pNodeFree != NULL);  // we must have something

  00082	e8 00 00 00 00	 call	 ?AfxThrowInvalidArgException@@YGXXZ ; AfxThrowInvalidArgException
$LN20@AddTail:
  00087	cc		 int	 3
?AddTail@?$CList@PAUSTFILEITEM@@PAU1@@@QAEPAU__POSITION@@PAUSTFILEITEM@@@Z ENDP ; CList<STFILEITEM *,STFILEITEM *>::AddTail
_TEXT	ENDS
; Function compile flags: /Ogtp
; File C:\Program Files (x86)\Microsoft Visual Studio\2019\Community\VC\Tools\MSVC\14.29.30133\atlmfc\include\afxtempl.h
;	COMDAT ??0?$CList@PAUSTFILEITEM@@PAU1@@@QAE@H@Z
_TEXT	SEGMENT
_nBlockSize$ = 8					; size = 4
??0?$CList@PAUSTFILEITEM@@PAU1@@@QAE@H@Z PROC		; CList<STFILEITEM *,STFILEITEM *>::CList<STFILEITEM *,STFILEITEM *>, COMDAT
; _this$ = ecx

; 851  : {

  00000	55		 push	 ebp
  00001	8b ec		 mov	 ebp, esp

; 852  : 	ASSERT(nBlockSize > 0);
; 853  : 
; 854  : 	m_nCount = 0;
; 855  : 	m_pNodeHead = m_pNodeTail = m_pNodeFree = NULL;
; 856  : 	m_pBlocks = NULL;
; 857  : 	m_nBlockSize = nBlockSize;

  00003	8b 45 08	 mov	 eax, DWORD PTR _nBlockSize$[ebp]
  00006	89 41 18	 mov	 DWORD PTR [ecx+24], eax

; 858  : }

  00009	8b c1		 mov	 eax, ecx
  0000b	c7 01 00 00 00
	00		 mov	 DWORD PTR [ecx], OFFSET ??_7?$CList@PAUSTFILEITEM@@PAU1@@@6B@
  00011	c7 41 0c 00 00
	00 00		 mov	 DWORD PTR [ecx+12], 0
  00018	c7 41 10 00 00
	00 00		 mov	 DWORD PTR [ecx+16], 0
  0001f	c7 41 08 00 00
	00 00		 mov	 DWORD PTR [ecx+8], 0
  00026	c7 41 04 00 00
	00 00		 mov	 DWORD PTR [ecx+4], 0
  0002d	c7 41 14 00 00
	00 00		 mov	 DWORD PTR [ecx+20], 0
  00034	5d		 pop	 ebp
  00035	c2 04 00	 ret	 4
??0?$CList@PAUSTFILEITEM@@PAU1@@@QAE@H@Z ENDP		; CList<STFILEITEM *,STFILEITEM *>::CList<STFILEITEM *,STFILEITEM *>
_TEXT	ENDS
; Function compile flags: /Ogtp
; File C:\Program Files (x86)\Microsoft Visual Studio\2019\Community\VC\Tools\MSVC\14.29.30133\atlmfc\include\afxtempl.h
;	COMDAT ?NewNode@?$CList@PAUSTMNG_ITEMINFO@@PAU1@@@IAEPAUCNode@1@PAU21@0@Z
_TEXT	SEGMENT
_pPrev$ = 8						; size = 4
_pNext$ = 12						; size = 4
?NewNode@?$CList@PAUSTMNG_ITEMINFO@@PAU1@@@IAEPAUCNode@1@PAU21@0@Z PROC ; CList<STMNG_ITEMINFO *,STMNG_ITEMINFO *>::NewNode, COMDAT
; _this$ = ecx

; 901  : {

  00000	55		 push	 ebp
  00001	8b ec		 mov	 ebp, esp
  00003	56		 push	 esi
  00004	8b f1		 mov	 esi, ecx

; 902  : 	if (m_pNodeFree == NULL)

  00006	83 7e 10 00	 cmp	 DWORD PTR [esi+16], 0
  0000a	75 34		 jne	 SHORT $LN7@NewNode

; 903  : 	{
; 904  : 		// add another block
; 905  : 		CPlex* pNewBlock = CPlex::Create(m_pBlocks, m_nBlockSize,

  0000c	6a 0c		 push	 12			; 0000000cH
  0000e	ff 76 18	 push	 DWORD PTR [esi+24]
  00011	8d 46 14	 lea	 eax, DWORD PTR [esi+20]
  00014	50		 push	 eax
  00015	e8 00 00 00 00	 call	 ?Create@CPlex@@SGPAU1@AAPAU1@II@Z ; CPlex::Create

; 906  : 				 sizeof(CNode));
; 907  : 
; 908  : 		// chain them into free list
; 909  : 		CNode* pNode = (CNode*) pNewBlock->data();
; 910  : 		// free in reverse order to make it easier to debug
; 911  : 		pNode += m_nBlockSize - 1;

  0001a	8b 56 18	 mov	 edx, DWORD PTR [esi+24]
  0001d	83 c0 08	 add	 eax, 8
  00020	8d 0c 52	 lea	 ecx, DWORD PTR [edx+edx*2]
  00023	8d 04 88	 lea	 eax, DWORD PTR [eax+ecx*4]
  00026	83 c0 f4	 add	 eax, -12		; fffffff4H

; 912  : 		for (INT_PTR i = m_nBlockSize-1; i >= 0; i--, pNode--)

  00029	83 c2 ff	 add	 edx, -1
  0002c	78 12		 js	 SHORT $LN7@NewNode
  0002e	66 90		 npad	 2
$LL4@NewNode:

; 913  : 		{
; 914  : 			pNode->pNext = m_pNodeFree;

  00030	8b 4e 10	 mov	 ecx, DWORD PTR [esi+16]
  00033	89 08		 mov	 DWORD PTR [eax], ecx

; 915  : 			m_pNodeFree = pNode;

  00035	89 46 10	 mov	 DWORD PTR [esi+16], eax
  00038	83 e8 0c	 sub	 eax, 12			; 0000000cH
  0003b	83 ea 01	 sub	 edx, 1
  0003e	79 f0		 jns	 SHORT $LL4@NewNode
$LN7@NewNode:

; 916  : 		}
; 917  : 	}
; 918  : 	ENSURE(m_pNodeFree != NULL);  // we must have something

  00040	8b 46 10	 mov	 eax, DWORD PTR [esi+16]
  00043	85 c0		 test	 eax, eax
  00045	74 18		 je	 SHORT $LN17@NewNode

; 919  : 
; 920  : 	CList::CNode* pNode = m_pNodeFree;
; 921  : 	m_pNodeFree = m_pNodeFree->pNext;

  00047	8b 08		 mov	 ecx, DWORD PTR [eax]
  00049	89 4e 10	 mov	 DWORD PTR [esi+16], ecx

; 922  : 	pNode->pPrev = pPrev;

  0004c	8b 4d 08	 mov	 ecx, DWORD PTR _pPrev$[ebp]
  0004f	89 48 04	 mov	 DWORD PTR [eax+4], ecx

; 923  : 	pNode->pNext = pNext;

  00052	8b 4d 0c	 mov	 ecx, DWORD PTR _pNext$[ebp]
  00055	89 08		 mov	 DWORD PTR [eax], ecx

; 924  : 	m_nCount++;

  00057	ff 46 0c	 inc	 DWORD PTR [esi+12]

; 925  : 	ASSERT(m_nCount > 0);  // make sure we don't overflow
; 926  : 
; 927  : #pragma push_macro("new")
; 928  : #undef new
; 929  : 	::new( (void*)( &pNode->data ) ) TYPE;
; 930  : #pragma pop_macro("new")
; 931  : 	return pNode;

  0005a	5e		 pop	 esi

; 932  : }

  0005b	5d		 pop	 ebp
  0005c	c2 08 00	 ret	 8
$LN17@NewNode:

; 916  : 		}
; 917  : 	}
; 918  : 	ENSURE(m_pNodeFree != NULL);  // we must have something

  0005f	e8 00 00 00 00	 call	 ?AfxThrowInvalidArgException@@YGXXZ ; AfxThrowInvalidArgException
$LN15@NewNode:
  00064	cc		 int	 3
?NewNode@?$CList@PAUSTMNG_ITEMINFO@@PAU1@@@IAEPAUCNode@1@PAU21@0@Z ENDP ; CList<STMNG_ITEMINFO *,STMNG_ITEMINFO *>::NewNode
_TEXT	ENDS
; Function compile flags: /Ogtp
; File C:\Program Files (x86)\Microsoft Visual Studio\2019\Community\VC\Tools\MSVC\14.29.30133\atlmfc\include\afxtempl.h
;	COMDAT ?AddTail@?$CList@PAUSTMNG_ITEMINFO@@PAU1@@@QAEPAU__POSITION@@PAUSTMNG_ITEMINFO@@@Z
_TEXT	SEGMENT
_newElement$ = 8					; size = 4
?AddTail@?$CList@PAUSTMNG_ITEMINFO@@PAU1@@@QAEPAU__POSITION@@PAUSTMNG_ITEMINFO@@@Z PROC ; CList<STMNG_ITEMINFO *,STMNG_ITEMINFO *>::AddTail, COMDAT
; _this$ = ecx

; 965  : {

  00000	55		 push	 ebp
  00001	8b ec		 mov	 ebp, esp
  00003	56		 push	 esi
  00004	8b f1		 mov	 esi, ecx
  00006	57		 push	 edi

; 902  : 	if (m_pNodeFree == NULL)

  00007	83 7e 10 00	 cmp	 DWORD PTR [esi+16], 0

; 966  : 	ASSERT_VALID(this);
; 967  : 
; 968  : 	CNode* pNewNode = NewNode(m_pNodeTail, NULL);

  0000b	8b 7e 08	 mov	 edi, DWORD PTR [esi+8]

; 902  : 	if (m_pNodeFree == NULL)

  0000e	75 32		 jne	 SHORT $LN11@AddTail

; 903  : 	{
; 904  : 		// add another block
; 905  : 		CPlex* pNewBlock = CPlex::Create(m_pBlocks, m_nBlockSize,

  00010	6a 0c		 push	 12			; 0000000cH
  00012	ff 76 18	 push	 DWORD PTR [esi+24]
  00015	8d 46 14	 lea	 eax, DWORD PTR [esi+20]
  00018	50		 push	 eax
  00019	e8 00 00 00 00	 call	 ?Create@CPlex@@SGPAU1@AAPAU1@II@Z ; CPlex::Create

; 906  : 				 sizeof(CNode));
; 907  : 
; 908  : 		// chain them into free list
; 909  : 		CNode* pNode = (CNode*) pNewBlock->data();
; 910  : 		// free in reverse order to make it easier to debug
; 911  : 		pNode += m_nBlockSize - 1;

  0001e	8b 56 18	 mov	 edx, DWORD PTR [esi+24]
  00021	83 c0 08	 add	 eax, 8
  00024	8d 4a ff	 lea	 ecx, DWORD PTR [edx-1]

; 912  : 		for (INT_PTR i = m_nBlockSize-1; i >= 0; i--, pNode--)

  00027	83 c2 ff	 add	 edx, -1
  0002a	8d 0c 49	 lea	 ecx, DWORD PTR [ecx+ecx*2]
  0002d	8d 0c 88	 lea	 ecx, DWORD PTR [eax+ecx*4]
  00030	78 10		 js	 SHORT $LN11@AddTail
$LL8@AddTail:

; 913  : 		{
; 914  : 			pNode->pNext = m_pNodeFree;

  00032	8b 46 10	 mov	 eax, DWORD PTR [esi+16]
  00035	89 01		 mov	 DWORD PTR [ecx], eax

; 915  : 			m_pNodeFree = pNode;

  00037	89 4e 10	 mov	 DWORD PTR [esi+16], ecx
  0003a	83 e9 0c	 sub	 ecx, 12			; 0000000cH
  0003d	83 ea 01	 sub	 edx, 1
  00040	79 f0		 jns	 SHORT $LL8@AddTail
$LN11@AddTail:

; 916  : 		}
; 917  : 	}
; 918  : 	ENSURE(m_pNodeFree != NULL);  // we must have something

  00042	8b 4e 10	 mov	 ecx, DWORD PTR [esi+16]
  00045	85 c9		 test	 ecx, ecx
  00047	74 39		 je	 SHORT $LN22@AddTail

; 919  : 
; 920  : 	CList::CNode* pNode = m_pNodeFree;
; 921  : 	m_pNodeFree = m_pNodeFree->pNext;

  00049	8b 01		 mov	 eax, DWORD PTR [ecx]
  0004b	89 46 10	 mov	 DWORD PTR [esi+16], eax

; 969  : 	pNewNode->data = newElement;

  0004e	8b 45 08	 mov	 eax, DWORD PTR _newElement$[ebp]

; 922  : 	pNode->pPrev = pPrev;

  00051	89 79 04	 mov	 DWORD PTR [ecx+4], edi

; 923  : 	pNode->pNext = pNext;

  00054	c7 01 00 00 00
	00		 mov	 DWORD PTR [ecx], 0

; 924  : 	m_nCount++;

  0005a	ff 46 0c	 inc	 DWORD PTR [esi+12]

; 969  : 	pNewNode->data = newElement;

  0005d	89 41 08	 mov	 DWORD PTR [ecx+8], eax

; 970  : 	if (m_pNodeTail != NULL)

  00060	8b 46 08	 mov	 eax, DWORD PTR [esi+8]
  00063	85 c0		 test	 eax, eax
  00065	74 0d		 je	 SHORT $LN2@AddTail

; 971  : 		m_pNodeTail->pNext = pNewNode;

  00067	89 08		 mov	 DWORD PTR [eax], ecx

; 972  : 	else
; 973  : 		m_pNodeHead = pNewNode;
; 974  : 	m_pNodeTail = pNewNode;
; 975  : 	return (POSITION) pNewNode;

  00069	8b c1		 mov	 eax, ecx
  0006b	5f		 pop	 edi
  0006c	89 4e 08	 mov	 DWORD PTR [esi+8], ecx
  0006f	5e		 pop	 esi

; 976  : }

  00070	5d		 pop	 ebp
  00071	c2 04 00	 ret	 4
$LN2@AddTail:

; 972  : 	else
; 973  : 		m_pNodeHead = pNewNode;
; 974  : 	m_pNodeTail = pNewNode;
; 975  : 	return (POSITION) pNewNode;

  00074	5f		 pop	 edi
  00075	89 4e 04	 mov	 DWORD PTR [esi+4], ecx
  00078	8b c1		 mov	 eax, ecx
  0007a	89 4e 08	 mov	 DWORD PTR [esi+8], ecx
  0007d	5e		 pop	 esi

; 976  : }

  0007e	5d		 pop	 ebp
  0007f	c2 04 00	 ret	 4
$LN22@AddTail:

; 918  : 	ENSURE(m_pNodeFree != NULL);  // we must have something

  00082	e8 00 00 00 00	 call	 ?AfxThrowInvalidArgException@@YGXXZ ; AfxThrowInvalidArgException
$LN20@AddTail:
  00087	cc		 int	 3
?AddTail@?$CList@PAUSTMNG_ITEMINFO@@PAU1@@@QAEPAU__POSITION@@PAUSTMNG_ITEMINFO@@@Z ENDP ; CList<STMNG_ITEMINFO *,STMNG_ITEMINFO *>::AddTail
_TEXT	ENDS
; Function compile flags: /Ogtp
; File D:\git\src\IBK\IBK_DRFN\ProjSrc\SrcDrfn\Chart\Common_ST\_STLoadmanager.cpp
; File C:\Program Files (x86)\Microsoft Visual Studio\2019\Community\VC\Tools\MSVC\14.29.30133\atlmfc\include\afxcoll.inl
; File D:\git\src\IBK\IBK_DRFN\ProjSrc\SrcDrfn\Chart\Common_ST\_STLoadmanager.cpp
; File C:\Program Files (x86)\Microsoft Visual Studio\2019\Community\VC\Tools\MSVC\14.29.30133\atlmfc\include\afxcoll.inl
; File D:\git\src\IBK\IBK_DRFN\ProjSrc\SrcDrfn\Chart\Common_ST\_STLoadmanager.cpp
; File C:\Program Files (x86)\Microsoft Visual Studio\2019\Community\VC\Tools\MSVC\14.29.30133\atlmfc\include\afx.inl
; File D:\git\src\IBK\IBK_DRFN\ProjSrc\SrcDrfn\Chart\Common_ST\_STLoadmanager.cpp
; File C:\Program Files (x86)\Microsoft Visual Studio\2019\Community\VC\Tools\MSVC\14.29.30133\atlmfc\include\afxcoll.inl
; File D:\git\src\IBK\IBK_DRFN\ProjSrc\SrcDrfn\Chart\Common_ST\_STLoadmanager.cpp
;	COMDAT ?GetSTFileList@CSTLoadManager@@KAHPBDAAVCStringArray@@@Z
_TEXT	SEGMENT
_finder$ = -320						; size = 28
$T2 = -292						; size = 4
$T3 = -288						; size = 4
_szTmp$ = -284						; size = 4
_strComponent$ = -280					; size = 4
_aFile$ = -276						; size = 260
__$ArrayPad$ = -16					; size = 4
__$EHRec$ = -12						; size = 12
_p_aTarDir$ = 8						; size = 4
_p_arr$ = 12						; size = 4
?GetSTFileList@CSTLoadManager@@KAHPBDAAVCStringArray@@@Z PROC ; CSTLoadManager::GetSTFileList, COMDAT

; 986  : {

  00000	55		 push	 ebp
  00001	8b ec		 mov	 ebp, esp
  00003	6a ff		 push	 -1
  00005	68 00 00 00 00	 push	 __ehhandler$?GetSTFileList@CSTLoadManager@@KAHPBDAAVCStringArray@@@Z
  0000a	64 a1 00 00 00
	00		 mov	 eax, DWORD PTR fs:0
  00010	50		 push	 eax
  00011	81 ec 34 01 00
	00		 sub	 esp, 308		; 00000134H
  00017	a1 00 00 00 00	 mov	 eax, DWORD PTR ___security_cookie
  0001c	33 c5		 xor	 eax, ebp
  0001e	89 45 f0	 mov	 DWORD PTR __$ArrayPad$[ebp], eax
  00021	56		 push	 esi
  00022	57		 push	 edi
  00023	50		 push	 eax
  00024	8d 45 f4	 lea	 eax, DWORD PTR __$EHRec$[ebp]
  00027	64 a3 00 00 00
	00		 mov	 DWORD PTR fs:0, eax
  0002d	8b 7d 0c	 mov	 edi, DWORD PTR _p_arr$[ebp]
; File C:\Program Files (x86)\Microsoft Visual Studio\2019\Community\VC\Tools\MSVC\14.29.30133\atlmfc\include\afxcoll.inl

; 286  : 	{ SetSize(0); }

  00030	8b cf		 mov	 ecx, edi
; File D:\git\src\IBK\IBK_DRFN\ProjSrc\SrcDrfn\Chart\Common_ST\_STLoadmanager.cpp

; 986  : {

  00032	8b 75 08	 mov	 esi, DWORD PTR _p_aTarDir$[ebp]
; File C:\Program Files (x86)\Microsoft Visual Studio\2019\Community\VC\Tools\MSVC\14.29.30133\atlmfc\include\afxcoll.inl

; 286  : 	{ SetSize(0); }

  00035	6a ff		 push	 -1
  00037	6a 00		 push	 0
  00039	e8 00 00 00 00	 call	 ?SetSize@CStringArray@@QAEXHH@Z ; CStringArray::SetSize
; File D:\git\src\IBK\IBK_DRFN\ProjSrc\SrcDrfn\Chart\Common_ST\_STLoadmanager.cpp

; 990  : 	sprintf(aFile, "%s\\%s", p_aTarDir, "*.ST");

  0003e	68 00 00 00 00	 push	 OFFSET ??_C@_04ECGMOPPD@?$CK?4ST@
  00043	56		 push	 esi
  00044	8d 85 ec fe ff
	ff		 lea	 eax, DWORD PTR _aFile$[ebp]
  0004a	68 00 00 00 00	 push	 OFFSET ??_C@_05BMGBEOOC@?$CFs?2?$CFs@
  0004f	50		 push	 eax
  00050	e8 00 00 00 00	 call	 _sprintf

; 991  : 	char* aFilePath = _strupr(aFile);

  00055	8d 85 ec fe ff
	ff		 lea	 eax, DWORD PTR _aFile$[ebp]
  0005b	50		 push	 eax
  0005c	ff 15 00 00 00
	00		 call	 DWORD PTR __imp___strupr
  00062	83 c4 14	 add	 esp, 20			; 00000014H

; 992  : 
; 993  : 	CString strComponent, szTmp;

  00065	8d 8d e8 fe ff
	ff		 lea	 ecx, DWORD PTR _strComponent$[ebp]
  0006b	8b f0		 mov	 esi, eax
  0006d	ff 15 00 00 00
	00		 call	 DWORD PTR __imp_??0?$CStringT@DV?$StrTraitMFC_DLL@DV?$ChTraitsCRT@D@ATL@@@@@ATL@@QAE@XZ
  00073	8d 8d e4 fe ff
	ff		 lea	 ecx, DWORD PTR _szTmp$[ebp]
  00079	c7 45 fc 00 00
	00 00		 mov	 DWORD PTR __$EHRec$[ebp+8], 0
  00080	ff 15 00 00 00
	00		 call	 DWORD PTR __imp_??0?$CStringT@DV?$StrTraitMFC_DLL@DV?$ChTraitsCRT@D@ATL@@@@@ATL@@QAE@XZ

; 994  : 	int nFind;
; 995  : 	CFileFind finder;

  00086	8d 8d c0 fe ff
	ff		 lea	 ecx, DWORD PTR _finder$[ebp]
  0008c	c6 45 fc 01	 mov	 BYTE PTR __$EHRec$[ebp+8], 1
  00090	e8 00 00 00 00	 call	 ??0CFileFind@@QAE@XZ	; CFileFind::CFileFind

; 996  : 	BOOL bWorking = finder.FindFile( aFilePath );

  00095	6a 00		 push	 0
  00097	56		 push	 esi
  00098	8d 8d c0 fe ff
	ff		 lea	 ecx, DWORD PTR _finder$[ebp]
  0009e	c6 45 fc 02	 mov	 BYTE PTR __$EHRec$[ebp+8], 2
  000a2	e8 00 00 00 00	 call	 ?FindFile@CFileFind@@UAEHPBDK@Z ; CFileFind::FindFile

; 997  : 	while (bWorking){

  000a7	85 c0		 test	 eax, eax
  000a9	0f 84 d9 00 00
	00		 je	 $LN3@GetSTFileL
  000af	90		 npad	 1
$LL2@GetSTFileL:

; 998  : 		bWorking = finder.FindNextFile();

  000b0	8d 8d c0 fe ff
	ff		 lea	 ecx, DWORD PTR _finder$[ebp]
  000b6	e8 00 00 00 00	 call	 ?FindNextFileA@CFileFind@@UAEHXZ ; CFileFind::FindNextFileA
  000bb	8b f0		 mov	 esi, eax

; 999  : 		strComponent = finder.GetFileName();

  000bd	8d 8d c0 fe ff
	ff		 lea	 ecx, DWORD PTR _finder$[ebp]
  000c3	8d 85 e0 fe ff
	ff		 lea	 eax, DWORD PTR $T3[ebp]
  000c9	50		 push	 eax
  000ca	e8 00 00 00 00	 call	 ?GetFileName@CFileFind@@UBE?AV?$CStringT@DV?$StrTraitMFC_DLL@DV?$ChTraitsCRT@D@ATL@@@@@ATL@@XZ ; CFileFind::GetFileName
  000cf	50		 push	 eax
  000d0	8d 8d e8 fe ff
	ff		 lea	 ecx, DWORD PTR _strComponent$[ebp]
  000d6	c6 45 fc 03	 mov	 BYTE PTR __$EHRec$[ebp+8], 3
  000da	ff 15 00 00 00
	00		 call	 DWORD PTR __imp_??4?$CStringT@DV?$StrTraitMFC_DLL@DV?$ChTraitsCRT@D@ATL@@@@@ATL@@QAEAAV01@ABV01@@Z
  000e0	8d 8d e0 fe ff
	ff		 lea	 ecx, DWORD PTR $T3[ebp]
  000e6	c6 45 fc 02	 mov	 BYTE PTR __$EHRec$[ebp+8], 2
  000ea	ff 15 00 00 00
	00		 call	 DWORD PTR __imp_??1?$CStringT@DV?$StrTraitMFC_DLL@DV?$ChTraitsCRT@D@ATL@@@@@ATL@@QAE@XZ

; 1000 : 		szTmp = strComponent;

  000f0	8d 85 e8 fe ff
	ff		 lea	 eax, DWORD PTR _strComponent$[ebp]
  000f6	50		 push	 eax
  000f7	8d 8d e4 fe ff
	ff		 lea	 ecx, DWORD PTR _szTmp$[ebp]
  000fd	ff 15 00 00 00
	00		 call	 DWORD PTR __imp_??4?$CStringT@DV?$StrTraitMFC_DLL@DV?$ChTraitsCRT@D@ATL@@@@@ATL@@QAEAAV01@ABV01@@Z

; 1001 : 		szTmp.MakeUpper();

  00103	8d 8d e4 fe ff
	ff		 lea	 ecx, DWORD PTR _szTmp$[ebp]
  00109	ff 15 00 00 00
	00		 call	 DWORD PTR __imp_?MakeUpper@?$CStringT@DV?$StrTraitMFC_DLL@DV?$ChTraitsCRT@D@ATL@@@@@ATL@@QAEAAV12@XZ
; File C:\Program Files (x86)\Microsoft Visual Studio\2019\Community\VC\Tools\MSVC\14.29.30133\atlmfc\include\afx.inl

; 194  : 	{ return MatchesMask(FILE_ATTRIBUTE_DIRECTORY); }

  0010f	8b 85 c0 fe ff
	ff		 mov	 eax, DWORD PTR _finder$[ebp]
  00115	8d 8d c0 fe ff
	ff		 lea	 ecx, DWORD PTR _finder$[ebp]
  0011b	6a 10		 push	 16			; 00000010H
  0011d	ff 50 40	 call	 DWORD PTR [eax+64]
; File D:\git\src\IBK\IBK_DRFN\ProjSrc\SrcDrfn\Chart\Common_ST\_STLoadmanager.cpp

; 1003 : 		if(!finder.IsDirectory())  

  00120	85 c0		 test	 eax, eax
  00122	75 5c		 jne	 SHORT $LN5@GetSTFileL

; 1004 : 		{
; 1005 : 			nFind = szTmp.Find(SZSTEXT);

  00124	50		 push	 eax
  00125	68 00 00 00 00	 push	 OFFSET ??_C@_03COHLPAFH@?4ST@
  0012a	8d 8d e4 fe ff
	ff		 lea	 ecx, DWORD PTR _szTmp$[ebp]
  00130	ff 15 00 00 00
	00		 call	 DWORD PTR __imp_?Find@?$CStringT@DV?$StrTraitMFC_DLL@DV?$ChTraitsCRT@D@ATL@@@@@ATL@@QBEHPBDH@Z

; 1006 : 			if(nFind>0)

  00136	85 c0		 test	 eax, eax
  00138	7e 46		 jle	 SHORT $LN5@GetSTFileL

; 1007 : 			{
; 1008 : 				strComponent = strComponent.Left(nFind);

  0013a	50		 push	 eax
  0013b	8d 85 dc fe ff
	ff		 lea	 eax, DWORD PTR $T2[ebp]
  00141	50		 push	 eax
  00142	8d 8d e8 fe ff
	ff		 lea	 ecx, DWORD PTR _strComponent$[ebp]
  00148	ff 15 00 00 00
	00		 call	 DWORD PTR __imp_?Left@?$CStringT@DV?$StrTraitMFC_DLL@DV?$ChTraitsCRT@D@ATL@@@@@ATL@@QBE?AV12@H@Z
  0014e	50		 push	 eax
  0014f	8d 8d e8 fe ff
	ff		 lea	 ecx, DWORD PTR _strComponent$[ebp]
  00155	c6 45 fc 04	 mov	 BYTE PTR __$EHRec$[ebp+8], 4
  00159	ff 15 00 00 00
	00		 call	 DWORD PTR __imp_??4?$CStringT@DV?$StrTraitMFC_DLL@DV?$ChTraitsCRT@D@ATL@@@@@ATL@@QAEAAV01@ABV01@@Z
  0015f	8d 8d dc fe ff
	ff		 lea	 ecx, DWORD PTR $T2[ebp]
  00165	c6 45 fc 02	 mov	 BYTE PTR __$EHRec$[ebp+8], 2
  00169	ff 15 00 00 00
	00		 call	 DWORD PTR __imp_??1?$CStringT@DV?$StrTraitMFC_DLL@DV?$ChTraitsCRT@D@ATL@@@@@ATL@@QAE@XZ
; File C:\Program Files (x86)\Microsoft Visual Studio\2019\Community\VC\Tools\MSVC\14.29.30133\atlmfc\include\afxcoll.inl

; 321  : 		SetAtGrow(nIndex, newElement);

  0016f	8d 85 e8 fe ff
	ff		 lea	 eax, DWORD PTR _strComponent$[ebp]
  00175	8b cf		 mov	 ecx, edi
  00177	50		 push	 eax
  00178	ff 77 08	 push	 DWORD PTR [edi+8]
  0017b	e8 00 00 00 00	 call	 ?SetAtGrow@CStringArray@@QAEXHABV?$CStringT@DV?$StrTraitMFC_DLL@DV?$ChTraitsCRT@D@ATL@@@@@ATL@@@Z ; CStringArray::SetAtGrow
$LN5@GetSTFileL:
; File D:\git\src\IBK\IBK_DRFN\ProjSrc\SrcDrfn\Chart\Common_ST\_STLoadmanager.cpp

; 997  : 	while (bWorking){

  00180	85 f6		 test	 esi, esi
  00182	0f 85 28 ff ff
	ff		 jne	 $LL2@GetSTFileL
$LN3@GetSTFileL:

; 1009 : 				p_arr.Add(strComponent);
; 1010 : 			}
; 1011 : 		}
; 1012 : 	}
; 1013 : 	return p_arr.GetSize();

  00188	8b 77 08	 mov	 esi, DWORD PTR [edi+8]
  0018b	8d 8d c0 fe ff
	ff		 lea	 ecx, DWORD PTR _finder$[ebp]
  00191	e8 00 00 00 00	 call	 ??1CFileFind@@UAE@XZ	; CFileFind::~CFileFind
  00196	8d 8d e4 fe ff
	ff		 lea	 ecx, DWORD PTR _szTmp$[ebp]
  0019c	ff 15 00 00 00
	00		 call	 DWORD PTR __imp_??1?$CStringT@DV?$StrTraitMFC_DLL@DV?$ChTraitsCRT@D@ATL@@@@@ATL@@QAE@XZ
  001a2	8d 8d e8 fe ff
	ff		 lea	 ecx, DWORD PTR _strComponent$[ebp]
  001a8	ff 15 00 00 00
	00		 call	 DWORD PTR __imp_??1?$CStringT@DV?$StrTraitMFC_DLL@DV?$ChTraitsCRT@D@ATL@@@@@ATL@@QAE@XZ
  001ae	8b c6		 mov	 eax, esi

; 1014 : }

  001b0	8b 4d f4	 mov	 ecx, DWORD PTR __$EHRec$[ebp]
  001b3	64 89 0d 00 00
	00 00		 mov	 DWORD PTR fs:0, ecx
  001ba	59		 pop	 ecx
  001bb	5f		 pop	 edi
  001bc	5e		 pop	 esi
  001bd	8b 4d f0	 mov	 ecx, DWORD PTR __$ArrayPad$[ebp]
  001c0	33 cd		 xor	 ecx, ebp
  001c2	e8 00 00 00 00	 call	 @__security_check_cookie@4
  001c7	8b e5		 mov	 esp, ebp
  001c9	5d		 pop	 ebp
  001ca	c3		 ret	 0
_TEXT	ENDS
;	COMDAT text$x
text$x	SEGMENT
__unwindfunclet$?GetSTFileList@CSTLoadManager@@KAHPBDAAVCStringArray@@@Z$0:
  00000	8d 8d e8 fe ff
	ff		 lea	 ecx, DWORD PTR _strComponent$[ebp]
  00006	ff 25 00 00 00
	00		 jmp	 DWORD PTR __imp_??1?$CStringT@DV?$StrTraitMFC_DLL@DV?$ChTraitsCRT@D@ATL@@@@@ATL@@QAE@XZ
__unwindfunclet$?GetSTFileList@CSTLoadManager@@KAHPBDAAVCStringArray@@@Z$1:
  0000c	8d 8d e4 fe ff
	ff		 lea	 ecx, DWORD PTR _szTmp$[ebp]
  00012	ff 25 00 00 00
	00		 jmp	 DWORD PTR __imp_??1?$CStringT@DV?$StrTraitMFC_DLL@DV?$ChTraitsCRT@D@ATL@@@@@ATL@@QAE@XZ
__unwindfunclet$?GetSTFileList@CSTLoadManager@@KAHPBDAAVCStringArray@@@Z$2:
  00018	8d 8d c0 fe ff
	ff		 lea	 ecx, DWORD PTR _finder$[ebp]
  0001e	e9 00 00 00 00	 jmp	 ??1CFileFind@@UAE@XZ	; CFileFind::~CFileFind
__unwindfunclet$?GetSTFileList@CSTLoadManager@@KAHPBDAAVCStringArray@@@Z$3:
  00023	8d 8d e0 fe ff
	ff		 lea	 ecx, DWORD PTR $T3[ebp]
  00029	ff 25 00 00 00
	00		 jmp	 DWORD PTR __imp_??1?$CStringT@DV?$StrTraitMFC_DLL@DV?$ChTraitsCRT@D@ATL@@@@@ATL@@QAE@XZ
__unwindfunclet$?GetSTFileList@CSTLoadManager@@KAHPBDAAVCStringArray@@@Z$4:
  0002f	8d 8d dc fe ff
	ff		 lea	 ecx, DWORD PTR $T2[ebp]
  00035	ff 25 00 00 00
	00		 jmp	 DWORD PTR __imp_??1?$CStringT@DV?$StrTraitMFC_DLL@DV?$ChTraitsCRT@D@ATL@@@@@ATL@@QAE@XZ
  0003b	cc		 int	 3
  0003c	cc		 int	 3
  0003d	cc		 int	 3
  0003e	cc		 int	 3
  0003f	cc		 int	 3
__ehhandler$?GetSTFileList@CSTLoadManager@@KAHPBDAAVCStringArray@@@Z:
  00040	90		 npad	 1
  00041	90		 npad	 1
  00042	8b 54 24 08	 mov	 edx, DWORD PTR [esp+8]
  00046	8d 42 0c	 lea	 eax, DWORD PTR [edx+12]
  00049	8b 8a c0 fe ff
	ff		 mov	 ecx, DWORD PTR [edx-320]
  0004f	33 c8		 xor	 ecx, eax
  00051	e8 00 00 00 00	 call	 @__security_check_cookie@4
  00056	8b 4a fc	 mov	 ecx, DWORD PTR [edx-4]
  00059	33 c8		 xor	 ecx, eax
  0005b	e8 00 00 00 00	 call	 @__security_check_cookie@4
  00060	b8 00 00 00 00	 mov	 eax, OFFSET __ehfuncinfo$?GetSTFileList@CSTLoadManager@@KAHPBDAAVCStringArray@@@Z
  00065	e9 00 00 00 00	 jmp	 ___CxxFrameHandler3
text$x	ENDS
?GetSTFileList@CSTLoadManager@@KAHPBDAAVCStringArray@@@Z ENDP ; CSTLoadManager::GetSTFileList
; Function compile flags: /Ogtp
; File D:\git\src\IBK\IBK_DRFN\ProjSrc\SrcDrfn\Chart\Common_ST\_STLoadmanager.cpp
; File C:\Program Files (x86)\Microsoft Visual Studio\2019\Community\VC\Tools\MSVC\14.29.30133\atlmfc\include\afxtempl.h
; File D:\git\src\IBK\IBK_DRFN\ProjSrc\SrcDrfn\Chart\Common_ST\_STLoadmanager.cpp
; File C:\Program Files (x86)\Microsoft Visual Studio\2019\Community\VC\Tools\MSVC\14.29.30133\atlmfc\include\afxtempl.h
; File D:\git\src\IBK\IBK_DRFN\ProjSrc\SrcDrfn\Chart\Common_ST\_STLoadmanager.cpp
; File C:\Program Files (x86)\Microsoft Visual Studio\2019\Community\VC\Tools\MSVC\14.29.30133\atlmfc\include\afxtempl.h
; File D:\git\src\IBK\IBK_DRFN\ProjSrc\SrcDrfn\Chart\Common_ST\_STLoadmanager.cpp
; File C:\Program Files (x86)\Microsoft Visual Studio\2019\Community\VC\Tools\MSVC\14.29.30133\atlmfc\include\afxcoll.inl
; File D:\git\src\IBK\IBK_DRFN\ProjSrc\SrcDrfn\Chart\Common_ST\_STLoadmanager.cpp
; File C:\Program Files (x86)\Microsoft Visual Studio\2019\Community\VC\Tools\MSVC\14.29.30133\atlmfc\include\afxcoll.inl
; File D:\git\src\IBK\IBK_DRFN\ProjSrc\SrcDrfn\Chart\Common_ST\_STLoadmanager.cpp
; File C:\Program Files (x86)\Microsoft Visual Studio\2019\Community\VC\Tools\MSVC\14.29.30133\atlmfc\include\afx.inl
; File D:\git\src\IBK\IBK_DRFN\ProjSrc\SrcDrfn\Chart\Common_ST\_STLoadmanager.cpp
; File C:\Program Files (x86)\Microsoft Visual Studio\2019\Community\VC\Tools\MSVC\14.29.30133\atlmfc\include\afxcoll.inl
; File D:\git\src\IBK\IBK_DRFN\ProjSrc\SrcDrfn\Chart\Common_ST\_STLoadmanager.cpp
; File C:\Program Files (x86)\Microsoft Visual Studio\2019\Community\VC\Tools\MSVC\14.29.30133\atlmfc\include\afxcoll.inl
; File D:\git\src\IBK\IBK_DRFN\ProjSrc\SrcDrfn\Chart\Common_ST\_STLoadmanager.cpp
; File C:\Program Files (x86)\Microsoft Visual Studio\2019\Community\VC\Tools\MSVC\14.29.30133\atlmfc\include\afxtempl.h
; File D:\git\src\IBK\IBK_DRFN\ProjSrc\SrcDrfn\Chart\Common_ST\_STLoadmanager.cpp
; File C:\Program Files (x86)\Microsoft Visual Studio\2019\Community\VC\Tools\MSVC\14.29.30133\atlmfc\include\afxcoll.inl
; File D:\git\src\IBK\IBK_DRFN\ProjSrc\SrcDrfn\Chart\Common_ST\_STLoadmanager.cpp
;	COMDAT ?GetSTFileList@CSTLoadManager@@KAHPBDHPAV?$CList@PAUSTFILEITEM@@PAU1@@@@Z
_TEXT	SEGMENT
_finder$2 = -352					; size = 28
_arr$ = -324						; size = 20
_pPrev$1$ = -304					; size = 4
$T3 = -300						; size = 4
$T4 = -296						; size = 4
$T5 = -296						; size = 4
_szDir$GSCopy$1$ = -292					; size = 4
$T6 = -292						; size = 4
$T7 = -292						; size = 4
_i$1$ = -288						; size = 4
_szTmp$8 = -288						; size = 4
_strComponent$9 = -284					; size = 4
$T10 = -284						; size = 4
_szText$ = -280						; size = 4
_aFile$11 = -276					; size = 260
__$ArrayPad$ = -16					; size = 4
__$EHRec$ = -12						; size = 12
_szDir$ = 8						; size = 4
_p_nSTType$ = 12					; size = 4
_p_arrSTList$ = 16					; size = 4
?GetSTFileList@CSTLoadManager@@KAHPBDHPAV?$CList@PAUSTFILEITEM@@PAU1@@@@Z PROC ; CSTLoadManager::GetSTFileList, COMDAT

; 904  : {

  00000	55		 push	 ebp
  00001	8b ec		 mov	 ebp, esp
  00003	6a ff		 push	 -1
  00005	68 00 00 00 00	 push	 __ehhandler$?GetSTFileList@CSTLoadManager@@KAHPBDHPAV?$CList@PAUSTFILEITEM@@PAU1@@@@Z
  0000a	64 a1 00 00 00
	00		 mov	 eax, DWORD PTR fs:0
  00010	50		 push	 eax
  00011	81 ec 54 01 00
	00		 sub	 esp, 340		; 00000154H
  00017	a1 00 00 00 00	 mov	 eax, DWORD PTR ___security_cookie
  0001c	33 c5		 xor	 eax, ebp
  0001e	89 45 f0	 mov	 DWORD PTR __$ArrayPad$[ebp], eax
  00021	53		 push	 ebx
  00022	56		 push	 esi
  00023	57		 push	 edi
  00024	50		 push	 eax
  00025	8d 45 f4	 lea	 eax, DWORD PTR __$EHRec$[ebp]
  00028	64 a3 00 00 00
	00		 mov	 DWORD PTR fs:0, eax
  0002e	8b 7d 10	 mov	 edi, DWORD PTR _p_arrSTList$[ebp]
  00031	8b 45 08	 mov	 eax, DWORD PTR _szDir$[ebp]
  00034	89 85 dc fe ff
	ff		 mov	 DWORD PTR _szDir$GSCopy$1$[ebp], eax

; 905  : 	Delete_List_STFILEITEMP(p_arrSTList);

  0003a	8b 5f 04	 mov	 ebx, DWORD PTR [edi+4]
  0003d	85 db		 test	 ebx, ebx
  0003f	74 29		 je	 SHORT $LN56@GetSTFileL
$LL2@GetSTFileL:
  00041	8b 73 08	 mov	 esi, DWORD PTR [ebx+8]
; File C:\Program Files (x86)\Microsoft Visual Studio\2019\Community\VC\Tools\MSVC\14.29.30133\atlmfc\include\afxtempl.h

; 813  : 		rPosition = (POSITION) pNode->pNext;

  00044	8b 1b		 mov	 ebx, DWORD PTR [ebx]
; File D:\git\src\IBK\IBK_DRFN\ProjSrc\SrcDrfn\Chart\Common_ST\_STLoadmanager.cpp

; 905  : 	Delete_List_STFILEITEMP(p_arrSTList);

  00046	85 f6		 test	 esi, esi
  00048	74 1c		 je	 SHORT $LN49@GetSTFileL
  0004a	8d 4e 04	 lea	 ecx, DWORD PTR [esi+4]
  0004d	ff 15 00 00 00
	00		 call	 DWORD PTR __imp_??1?$CStringT@DV?$StrTraitMFC_DLL@DV?$ChTraitsCRT@D@ATL@@@@@ATL@@QAE@XZ
  00053	8b ce		 mov	 ecx, esi
  00055	ff 15 00 00 00
	00		 call	 DWORD PTR __imp_??1?$CStringT@DV?$StrTraitMFC_DLL@DV?$ChTraitsCRT@D@ATL@@@@@ATL@@QAE@XZ
  0005b	6a 08		 push	 8
  0005d	56		 push	 esi
  0005e	e8 00 00 00 00	 call	 ??3@YAXPAXI@Z		; operator delete
  00063	83 c4 08	 add	 esp, 8
$LN49@GetSTFileL:
  00066	85 db		 test	 ebx, ebx
  00068	75 d7		 jne	 SHORT $LL2@GetSTFileL
$LN56@GetSTFileL:
; File C:\Program Files (x86)\Microsoft Visual Studio\2019\Community\VC\Tools\MSVC\14.29.30133\atlmfc\include\afxtempl.h

; 872  : 	m_pBlocks->FreeDataChain();

  0006a	8b 4f 14	 mov	 ecx, DWORD PTR [edi+20]
  0006d	c7 47 0c 00 00
	00 00		 mov	 DWORD PTR [edi+12], 0
  00074	c7 47 10 00 00
	00 00		 mov	 DWORD PTR [edi+16], 0
  0007b	c7 47 08 00 00
	00 00		 mov	 DWORD PTR [edi+8], 0
  00082	c7 47 04 00 00
	00 00		 mov	 DWORD PTR [edi+4], 0
  00089	e8 00 00 00 00	 call	 ?FreeDataChain@CPlex@@QAEXXZ ; CPlex::FreeDataChain
; File D:\git\src\IBK\IBK_DRFN\ProjSrc\SrcDrfn\Chart\Common_ST\_STLoadmanager.cpp

; 907  : 	CStringArray arr;

  0008e	8d 8d bc fe ff
	ff		 lea	 ecx, DWORD PTR _arr$[ebp]
; File C:\Program Files (x86)\Microsoft Visual Studio\2019\Community\VC\Tools\MSVC\14.29.30133\atlmfc\include\afxtempl.h

; 873  : 	m_pBlocks = NULL;

  00094	c7 47 14 00 00
	00 00		 mov	 DWORD PTR [edi+20], 0
; File D:\git\src\IBK\IBK_DRFN\ProjSrc\SrcDrfn\Chart\Common_ST\_STLoadmanager.cpp

; 907  : 	CStringArray arr;

  0009b	e8 00 00 00 00	 call	 ??0CStringArray@@QAE@XZ	; CStringArray::CStringArray
; File C:\Program Files (x86)\Microsoft Visual Studio\2019\Community\VC\Tools\MSVC\14.29.30133\atlmfc\include\afxcoll.inl

; 286  : 	{ SetSize(0); }

  000a0	6a ff		 push	 -1
  000a2	6a 00		 push	 0
  000a4	8d 8d bc fe ff
	ff		 lea	 ecx, DWORD PTR _arr$[ebp]
; File D:\git\src\IBK\IBK_DRFN\ProjSrc\SrcDrfn\Chart\Common_ST\_STLoadmanager.cpp

; 907  : 	CStringArray arr;

  000aa	c7 45 fc 00 00
	00 00		 mov	 DWORD PTR __$EHRec$[ebp+8], 0
; File C:\Program Files (x86)\Microsoft Visual Studio\2019\Community\VC\Tools\MSVC\14.29.30133\atlmfc\include\afxcoll.inl

; 286  : 	{ SetSize(0); }

  000b1	e8 00 00 00 00	 call	 ?SetSize@CStringArray@@QAEXHH@Z ; CStringArray::SetSize
; File D:\git\src\IBK\IBK_DRFN\ProjSrc\SrcDrfn\Chart\Common_ST\_STLoadmanager.cpp

; 990  : 	sprintf(aFile, "%s\\%s", p_aTarDir, "*.ST");

  000b6	68 00 00 00 00	 push	 OFFSET ??_C@_04ECGMOPPD@?$CK?4ST@
  000bb	ff b5 dc fe ff
	ff		 push	 DWORD PTR _szDir$GSCopy$1$[ebp]
  000c1	8d 85 ec fe ff
	ff		 lea	 eax, DWORD PTR _aFile$11[ebp]
  000c7	68 00 00 00 00	 push	 OFFSET ??_C@_05BMGBEOOC@?$CFs?2?$CFs@
  000cc	50		 push	 eax
  000cd	e8 00 00 00 00	 call	 _sprintf

; 991  : 	char* aFilePath = _strupr(aFile);

  000d2	8d 85 ec fe ff
	ff		 lea	 eax, DWORD PTR _aFile$11[ebp]
  000d8	50		 push	 eax
  000d9	ff 15 00 00 00
	00		 call	 DWORD PTR __imp___strupr
  000df	83 c4 14	 add	 esp, 20			; 00000014H

; 992  : 
; 993  : 	CString strComponent, szTmp;

  000e2	8d 8d e4 fe ff
	ff		 lea	 ecx, DWORD PTR _strComponent$9[ebp]
  000e8	8b f0		 mov	 esi, eax
  000ea	ff 15 00 00 00
	00		 call	 DWORD PTR __imp_??0?$CStringT@DV?$StrTraitMFC_DLL@DV?$ChTraitsCRT@D@ATL@@@@@ATL@@QAE@XZ
  000f0	8d 8d e0 fe ff
	ff		 lea	 ecx, DWORD PTR _szTmp$8[ebp]
  000f6	ff 15 00 00 00
	00		 call	 DWORD PTR __imp_??0?$CStringT@DV?$StrTraitMFC_DLL@DV?$ChTraitsCRT@D@ATL@@@@@ATL@@QAE@XZ

; 994  : 	int nFind;
; 995  : 	CFileFind finder;

  000fc	8d 8d a0 fe ff
	ff		 lea	 ecx, DWORD PTR _finder$2[ebp]
  00102	c6 45 fc 02	 mov	 BYTE PTR __$EHRec$[ebp+8], 2
  00106	e8 00 00 00 00	 call	 ??0CFileFind@@QAE@XZ	; CFileFind::CFileFind

; 996  : 	BOOL bWorking = finder.FindFile( aFilePath );

  0010b	6a 00		 push	 0
  0010d	56		 push	 esi
  0010e	8d 8d a0 fe ff
	ff		 lea	 ecx, DWORD PTR _finder$2[ebp]
  00114	c6 45 fc 03	 mov	 BYTE PTR __$EHRec$[ebp+8], 3
  00118	e8 00 00 00 00	 call	 ?FindFile@CFileFind@@UAEHPBDK@Z ; CFileFind::FindFile

; 997  : 	while (bWorking){

  0011d	85 c0		 test	 eax, eax
  0011f	0f 84 df 00 00
	00		 je	 $LN61@GetSTFileL
$LL60@GetSTFileL:

; 998  : 		bWorking = finder.FindNextFile();

  00125	8d 8d a0 fe ff
	ff		 lea	 ecx, DWORD PTR _finder$2[ebp]
  0012b	e8 00 00 00 00	 call	 ?FindNextFileA@CFileFind@@UAEHXZ ; CFileFind::FindNextFileA
  00130	8b f0		 mov	 esi, eax

; 999  : 		strComponent = finder.GetFileName();

  00132	8d 8d a0 fe ff
	ff		 lea	 ecx, DWORD PTR _finder$2[ebp]
  00138	8d 85 dc fe ff
	ff		 lea	 eax, DWORD PTR $T6[ebp]
  0013e	50		 push	 eax
  0013f	e8 00 00 00 00	 call	 ?GetFileName@CFileFind@@UBE?AV?$CStringT@DV?$StrTraitMFC_DLL@DV?$ChTraitsCRT@D@ATL@@@@@ATL@@XZ ; CFileFind::GetFileName
  00144	50		 push	 eax
  00145	8d 8d e4 fe ff
	ff		 lea	 ecx, DWORD PTR _strComponent$9[ebp]
  0014b	c6 45 fc 04	 mov	 BYTE PTR __$EHRec$[ebp+8], 4
  0014f	ff 15 00 00 00
	00		 call	 DWORD PTR __imp_??4?$CStringT@DV?$StrTraitMFC_DLL@DV?$ChTraitsCRT@D@ATL@@@@@ATL@@QAEAAV01@ABV01@@Z
  00155	8d 8d dc fe ff
	ff		 lea	 ecx, DWORD PTR $T6[ebp]
  0015b	c6 45 fc 03	 mov	 BYTE PTR __$EHRec$[ebp+8], 3
  0015f	ff 15 00 00 00
	00		 call	 DWORD PTR __imp_??1?$CStringT@DV?$StrTraitMFC_DLL@DV?$ChTraitsCRT@D@ATL@@@@@ATL@@QAE@XZ

; 1000 : 		szTmp = strComponent;

  00165	8d 85 e4 fe ff
	ff		 lea	 eax, DWORD PTR _strComponent$9[ebp]
  0016b	50		 push	 eax
  0016c	8d 8d e0 fe ff
	ff		 lea	 ecx, DWORD PTR _szTmp$8[ebp]
  00172	ff 15 00 00 00
	00		 call	 DWORD PTR __imp_??4?$CStringT@DV?$StrTraitMFC_DLL@DV?$ChTraitsCRT@D@ATL@@@@@ATL@@QAEAAV01@ABV01@@Z

; 1001 : 		szTmp.MakeUpper();

  00178	8d 8d e0 fe ff
	ff		 lea	 ecx, DWORD PTR _szTmp$8[ebp]
  0017e	ff 15 00 00 00
	00		 call	 DWORD PTR __imp_?MakeUpper@?$CStringT@DV?$StrTraitMFC_DLL@DV?$ChTraitsCRT@D@ATL@@@@@ATL@@QAEAAV12@XZ
; File C:\Program Files (x86)\Microsoft Visual Studio\2019\Community\VC\Tools\MSVC\14.29.30133\atlmfc\include\afx.inl

; 194  : 	{ return MatchesMask(FILE_ATTRIBUTE_DIRECTORY); }

  00184	8b 85 a0 fe ff
	ff		 mov	 eax, DWORD PTR _finder$2[ebp]
  0018a	8d 8d a0 fe ff
	ff		 lea	 ecx, DWORD PTR _finder$2[ebp]
  00190	6a 10		 push	 16			; 00000010H
  00192	ff 50 40	 call	 DWORD PTR [eax+64]
; File D:\git\src\IBK\IBK_DRFN\ProjSrc\SrcDrfn\Chart\Common_ST\_STLoadmanager.cpp

; 1003 : 		if(!finder.IsDirectory())  

  00195	85 c0		 test	 eax, eax
  00197	75 63		 jne	 SHORT $LN63@GetSTFileL

; 1004 : 		{
; 1005 : 			nFind = szTmp.Find(SZSTEXT);

  00199	50		 push	 eax
  0019a	68 00 00 00 00	 push	 OFFSET ??_C@_03COHLPAFH@?4ST@
  0019f	8d 8d e0 fe ff
	ff		 lea	 ecx, DWORD PTR _szTmp$8[ebp]
  001a5	ff 15 00 00 00
	00		 call	 DWORD PTR __imp_?Find@?$CStringT@DV?$StrTraitMFC_DLL@DV?$ChTraitsCRT@D@ATL@@@@@ATL@@QBEHPBDH@Z

; 1006 : 			if(nFind>0)

  001ab	85 c0		 test	 eax, eax
  001ad	7e 4d		 jle	 SHORT $LN63@GetSTFileL

; 1007 : 			{
; 1008 : 				strComponent = strComponent.Left(nFind);

  001af	50		 push	 eax
  001b0	8d 85 d8 fe ff
	ff		 lea	 eax, DWORD PTR $T4[ebp]
  001b6	50		 push	 eax
  001b7	8d 8d e4 fe ff
	ff		 lea	 ecx, DWORD PTR _strComponent$9[ebp]
  001bd	ff 15 00 00 00
	00		 call	 DWORD PTR __imp_?Left@?$CStringT@DV?$StrTraitMFC_DLL@DV?$ChTraitsCRT@D@ATL@@@@@ATL@@QBE?AV12@H@Z
  001c3	50		 push	 eax
  001c4	8d 8d e4 fe ff
	ff		 lea	 ecx, DWORD PTR _strComponent$9[ebp]
  001ca	c6 45 fc 05	 mov	 BYTE PTR __$EHRec$[ebp+8], 5
  001ce	ff 15 00 00 00
	00		 call	 DWORD PTR __imp_??4?$CStringT@DV?$StrTraitMFC_DLL@DV?$ChTraitsCRT@D@ATL@@@@@ATL@@QAEAAV01@ABV01@@Z
  001d4	8d 8d d8 fe ff
	ff		 lea	 ecx, DWORD PTR $T4[ebp]
  001da	c6 45 fc 03	 mov	 BYTE PTR __$EHRec$[ebp+8], 3
  001de	ff 15 00 00 00
	00		 call	 DWORD PTR __imp_??1?$CStringT@DV?$StrTraitMFC_DLL@DV?$ChTraitsCRT@D@ATL@@@@@ATL@@QAE@XZ
; File C:\Program Files (x86)\Microsoft Visual Studio\2019\Community\VC\Tools\MSVC\14.29.30133\atlmfc\include\afxcoll.inl

; 321  : 		SetAtGrow(nIndex, newElement);

  001e4	8d 85 e4 fe ff
	ff		 lea	 eax, DWORD PTR _strComponent$9[ebp]
  001ea	50		 push	 eax
  001eb	ff b5 c4 fe ff
	ff		 push	 DWORD PTR _arr$[ebp+8]
  001f1	8d 8d bc fe ff
	ff		 lea	 ecx, DWORD PTR _arr$[ebp]
  001f7	e8 00 00 00 00	 call	 ?SetAtGrow@CStringArray@@QAEXHABV?$CStringT@DV?$StrTraitMFC_DLL@DV?$ChTraitsCRT@D@ATL@@@@@ATL@@@Z ; CStringArray::SetAtGrow
$LN63@GetSTFileL:
; File D:\git\src\IBK\IBK_DRFN\ProjSrc\SrcDrfn\Chart\Common_ST\_STLoadmanager.cpp

; 997  : 	while (bWorking){

  001fc	85 f6		 test	 esi, esi
  001fe	0f 85 21 ff ff
	ff		 jne	 $LL60@GetSTFileL
$LN61@GetSTFileL:

; 1009 : 				p_arr.Add(strComponent);
; 1010 : 			}
; 1011 : 		}
; 1012 : 	}
; 1013 : 	return p_arr.GetSize();

  00204	8d 8d a0 fe ff
	ff		 lea	 ecx, DWORD PTR _finder$2[ebp]
  0020a	e8 00 00 00 00	 call	 ??1CFileFind@@UAE@XZ	; CFileFind::~CFileFind
  0020f	8d 8d e0 fe ff
	ff		 lea	 ecx, DWORD PTR _szTmp$8[ebp]
  00215	ff 15 00 00 00
	00		 call	 DWORD PTR __imp_??1?$CStringT@DV?$StrTraitMFC_DLL@DV?$ChTraitsCRT@D@ATL@@@@@ATL@@QAE@XZ
  0021b	8d 8d e4 fe ff
	ff		 lea	 ecx, DWORD PTR _strComponent$9[ebp]
  00221	ff 15 00 00 00
	00		 call	 DWORD PTR __imp_??1?$CStringT@DV?$StrTraitMFC_DLL@DV?$ChTraitsCRT@D@ATL@@@@@ATL@@QAE@XZ

; 908  : 	CSTLoadManager::GetSTFileList(szDir, arr);
; 909  : 	
; 910  : 	CString szText;

  00227	8d 8d e8 fe ff
	ff		 lea	 ecx, DWORD PTR _szText$[ebp]
  0022d	ff 15 00 00 00
	00		 call	 DWORD PTR __imp_??0?$CStringT@DV?$StrTraitMFC_DLL@DV?$ChTraitsCRT@D@ATL@@@@@ATL@@QAE@XZ

; 914  : 	for(int i=0; i<arr.GetSize(); i++)

  00233	8b 85 c4 fe ff
	ff		 mov	 eax, DWORD PTR _arr$[ebp+8]
  00239	33 c9		 xor	 ecx, ecx
  0023b	c6 45 fc 06	 mov	 BYTE PTR __$EHRec$[ebp+8], 6
  0023f	89 8d e0 fe ff
	ff		 mov	 DWORD PTR _i$1$[ebp], ecx
  00245	85 c0		 test	 eax, eax
  00247	0f 8e 88 03 00
	00		 jle	 $LN6@GetSTFileL
  0024d	0f 1f 00	 npad	 3
$LL7@GetSTFileL:
; File C:\Program Files (x86)\Microsoft Visual Studio\2019\Community\VC\Tools\MSVC\14.29.30133\atlmfc\include\afxcoll.inl

; 289  : 		if( nIndex < 0 || nIndex >= m_nSize )

  00250	85 c9		 test	 ecx, ecx
  00252	0f 88 b5 03 00
	00		 js	 $LN78@GetSTFileL
  00258	3b c8		 cmp	 ecx, eax
  0025a	0f 8d ad 03 00
	00		 jge	 $LN78@GetSTFileL

; 291  : 		return m_pData[nIndex]; }

  00260	8b 85 c0 fe ff
	ff		 mov	 eax, DWORD PTR _arr$[ebp+4]
  00266	8d 04 88	 lea	 eax, DWORD PTR [eax+ecx*4]
; File D:\git\src\IBK\IBK_DRFN\ProjSrc\SrcDrfn\Chart\Common_ST\_STLoadmanager.cpp

; 916  : 		szText = arr.GetAt(i); 

  00269	50		 push	 eax
  0026a	8d 8d e8 fe ff
	ff		 lea	 ecx, DWORD PTR _szText$[ebp]
  00270	ff 15 00 00 00
	00		 call	 DWORD PTR __imp_??4?$CStringT@DV?$StrTraitMFC_DLL@DV?$ChTraitsCRT@D@ATL@@@@@ATL@@QAEAAV01@ABV01@@Z

; 917  : 
; 918  : 		nFind = szText.Find(gSTGubunKeys);

  00276	6a 00		 push	 0
  00278	68 00 00 00 00	 push	 OFFSET ??_C@_01JKBOJNNK@?$FO@
  0027d	8d 8d e8 fe ff
	ff		 lea	 ecx, DWORD PTR _szText$[ebp]
  00283	ff 15 00 00 00
	00		 call	 DWORD PTR __imp_?Find@?$CStringT@DV?$StrTraitMFC_DLL@DV?$ChTraitsCRT@D@ATL@@@@@ATL@@QBEHPBDH@Z
  00289	8b d8		 mov	 ebx, eax

; 919  : 		if(nFind>0)

  0028b	85 db		 test	 ebx, ebx
  0028d	0f 8e 5c 02 00
	00		 jle	 $LN8@GetSTFileL

; 920  : 		{
; 921  : 			if(p_nSTType==1)

  00293	8b 45 0c	 mov	 eax, DWORD PTR _p_nSTType$[ebp]
  00296	83 f8 01	 cmp	 eax, 1
  00299	0f 85 87 00 00
	00		 jne	 $LN10@GetSTFileL

; 922  : 			{
; 923  : 				if(szText[nFind+1]=='1') 

  0029f	8d 4b 01	 lea	 ecx, DWORD PTR [ebx+1]
  002a2	51		 push	 ecx
  002a3	8d 8d e8 fe ff
	ff		 lea	 ecx, DWORD PTR _szText$[ebp]
  002a9	ff 15 00 00 00
	00		 call	 DWORD PTR __imp_??A?$CSimpleStringT@D$00@ATL@@QBEDH@Z
  002af	3c 31		 cmp	 al, 49			; 00000031H
  002b1	0f 85 03 03 00
	00		 jne	 $LN5@GetSTFileL

; 924  : 				{
; 925  : 					pItemInfo = new STFILEITEM;

  002b7	6a 08		 push	 8
  002b9	e8 00 00 00 00	 call	 ??2@YAPAXI@Z		; operator new
  002be	8b f0		 mov	 esi, eax
  002c0	83 c4 04	 add	 esp, 4
  002c3	85 f6		 test	 esi, esi
  002c5	74 13		 je	 SHORT $LN30@GetSTFileL
  002c7	8b ce		 mov	 ecx, esi
  002c9	ff 15 00 00 00
	00		 call	 DWORD PTR __imp_??0?$CStringT@DV?$StrTraitMFC_DLL@DV?$ChTraitsCRT@D@ATL@@@@@ATL@@QAE@XZ
  002cf	8d 4e 04	 lea	 ecx, DWORD PTR [esi+4]
  002d2	ff 15 00 00 00
	00		 call	 DWORD PTR __imp_??0?$CStringT@DV?$StrTraitMFC_DLL@DV?$ChTraitsCRT@D@ATL@@@@@ATL@@QAE@XZ
  002d8	eb 02		 jmp	 SHORT $LN31@GetSTFileL
$LN30@GetSTFileL:
  002da	33 f6		 xor	 esi, esi
$LN31@GetSTFileL:

; 926  : 					pItemInfo->szRawName = szText;

  002dc	8d 85 e8 fe ff
	ff		 lea	 eax, DWORD PTR _szText$[ebp]
  002e2	50		 push	 eax
  002e3	8d 4e 04	 lea	 ecx, DWORD PTR [esi+4]
  002e6	ff 15 00 00 00
	00		 call	 DWORD PTR __imp_??4?$CStringT@DV?$StrTraitMFC_DLL@DV?$ChTraitsCRT@D@ATL@@@@@ATL@@QAEAAV01@ABV01@@Z

; 927  : 
; 928  : 					szText = szText.Left(nFind);

  002ec	53		 push	 ebx
  002ed	8d 85 d8 fe ff
	ff		 lea	 eax, DWORD PTR $T5[ebp]
  002f3	50		 push	 eax
  002f4	8d 8d e8 fe ff
	ff		 lea	 ecx, DWORD PTR _szText$[ebp]
  002fa	ff 15 00 00 00
	00		 call	 DWORD PTR __imp_?Left@?$CStringT@DV?$StrTraitMFC_DLL@DV?$ChTraitsCRT@D@ATL@@@@@ATL@@QBE?AV12@H@Z
  00300	50		 push	 eax
  00301	8d 8d e8 fe ff
	ff		 lea	 ecx, DWORD PTR _szText$[ebp]
  00307	c6 45 fc 07	 mov	 BYTE PTR __$EHRec$[ebp+8], 7
  0030b	ff 15 00 00 00
	00		 call	 DWORD PTR __imp_??4?$CStringT@DV?$StrTraitMFC_DLL@DV?$ChTraitsCRT@D@ATL@@@@@ATL@@QAEAAV01@ABV01@@Z
  00311	8d 8d d8 fe ff
	ff		 lea	 ecx, DWORD PTR $T5[ebp]
  00317	c6 45 fc 06	 mov	 BYTE PTR __$EHRec$[ebp+8], 6
  0031b	ff 15 00 00 00
	00		 call	 DWORD PTR __imp_??1?$CStringT@DV?$StrTraitMFC_DLL@DV?$ChTraitsCRT@D@ATL@@@@@ATL@@QAE@XZ

; 929  : 					pItemInfo->szSTName = szText;
; 930  : 
; 931  : 				}
; 932  : 				else continue;
; 933  : 			}

  00321	e9 06 02 00 00	 jmp	 $LN136@GetSTFileL
$LN10@GetSTFileL:

; 934  : 			else if(p_nSTType==45)

  00326	83 f8 2d	 cmp	 eax, 45			; 0000002dH
  00329	0f 85 98 00 00
	00		 jne	 $LN14@GetSTFileL

; 935  : 			{
; 936  : 				if(szText[nFind+1]=='5' || szText[nFind+1]=='4') 

  0032f	8d 73 01	 lea	 esi, DWORD PTR [ebx+1]
  00332	56		 push	 esi
  00333	8d 8d e8 fe ff
	ff		 lea	 ecx, DWORD PTR _szText$[ebp]
  00339	ff 15 00 00 00
	00		 call	 DWORD PTR __imp_??A?$CSimpleStringT@D$00@ATL@@QBEDH@Z
  0033f	3c 35		 cmp	 al, 53			; 00000035H
  00341	74 15		 je	 SHORT $LN18@GetSTFileL
  00343	56		 push	 esi
  00344	8d 8d e8 fe ff
	ff		 lea	 ecx, DWORD PTR _szText$[ebp]
  0034a	ff 15 00 00 00
	00		 call	 DWORD PTR __imp_??A?$CSimpleStringT@D$00@ATL@@QBEDH@Z
  00350	3c 34		 cmp	 al, 52			; 00000034H
  00352	0f 85 62 02 00
	00		 jne	 $LN5@GetSTFileL
$LN18@GetSTFileL:

; 937  : 				{
; 938  : 					pItemInfo = new STFILEITEM;

  00358	6a 08		 push	 8
  0035a	e8 00 00 00 00	 call	 ??2@YAPAXI@Z		; operator new
  0035f	8b f0		 mov	 esi, eax
  00361	83 c4 04	 add	 esp, 4
  00364	85 f6		 test	 esi, esi
  00366	74 13		 je	 SHORT $LN32@GetSTFileL
  00368	8b ce		 mov	 ecx, esi
  0036a	ff 15 00 00 00
	00		 call	 DWORD PTR __imp_??0?$CStringT@DV?$StrTraitMFC_DLL@DV?$ChTraitsCRT@D@ATL@@@@@ATL@@QAE@XZ
  00370	8d 4e 04	 lea	 ecx, DWORD PTR [esi+4]
  00373	ff 15 00 00 00
	00		 call	 DWORD PTR __imp_??0?$CStringT@DV?$StrTraitMFC_DLL@DV?$ChTraitsCRT@D@ATL@@@@@ATL@@QAE@XZ
  00379	eb 02		 jmp	 SHORT $LN33@GetSTFileL
$LN32@GetSTFileL:
  0037b	33 f6		 xor	 esi, esi
$LN33@GetSTFileL:

; 939  : 					pItemInfo->szRawName = szText;

  0037d	8d 85 e8 fe ff
	ff		 lea	 eax, DWORD PTR _szText$[ebp]
  00383	50		 push	 eax
  00384	8d 4e 04	 lea	 ecx, DWORD PTR [esi+4]
  00387	ff 15 00 00 00
	00		 call	 DWORD PTR __imp_??4?$CStringT@DV?$StrTraitMFC_DLL@DV?$ChTraitsCRT@D@ATL@@@@@ATL@@QAEAAV01@ABV01@@Z

; 940  : 
; 941  : 					szText = szText.Left(nFind);

  0038d	53		 push	 ebx
  0038e	8d 85 dc fe ff
	ff		 lea	 eax, DWORD PTR $T7[ebp]
  00394	50		 push	 eax
  00395	8d 8d e8 fe ff
	ff		 lea	 ecx, DWORD PTR _szText$[ebp]
  0039b	ff 15 00 00 00
	00		 call	 DWORD PTR __imp_?Left@?$CStringT@DV?$StrTraitMFC_DLL@DV?$ChTraitsCRT@D@ATL@@@@@ATL@@QBE?AV12@H@Z
  003a1	50		 push	 eax
  003a2	8d 8d e8 fe ff
	ff		 lea	 ecx, DWORD PTR _szText$[ebp]
  003a8	c6 45 fc 08	 mov	 BYTE PTR __$EHRec$[ebp+8], 8
  003ac	ff 15 00 00 00
	00		 call	 DWORD PTR __imp_??4?$CStringT@DV?$StrTraitMFC_DLL@DV?$ChTraitsCRT@D@ATL@@@@@ATL@@QAEAAV01@ABV01@@Z
  003b2	8d 8d dc fe ff
	ff		 lea	 ecx, DWORD PTR $T7[ebp]
  003b8	c6 45 fc 06	 mov	 BYTE PTR __$EHRec$[ebp+8], 6
  003bc	ff 15 00 00 00
	00		 call	 DWORD PTR __imp_??1?$CStringT@DV?$StrTraitMFC_DLL@DV?$ChTraitsCRT@D@ATL@@@@@ATL@@QAE@XZ

; 942  : 					pItemInfo->szSTName = szText;
; 943  : 				}
; 944  : 				else continue;
; 945  : 			}

  003c2	e9 65 01 00 00	 jmp	 $LN136@GetSTFileL
$LN14@GetSTFileL:

; 946  : 			else if(p_nSTType==237)

  003c7	3d ed 00 00 00	 cmp	 eax, 237		; 000000edH
  003cc	0f 85 a9 00 00
	00		 jne	 $LN19@GetSTFileL

; 947  : 			{
; 948  : 				if(szText[nFind+1]=='2' || szText[nFind+1]=='3' ||szText[nFind+1]=='7') 

  003d2	8d 73 01	 lea	 esi, DWORD PTR [ebx+1]
  003d5	56		 push	 esi
  003d6	8d 8d e8 fe ff
	ff		 lea	 ecx, DWORD PTR _szText$[ebp]
  003dc	ff 15 00 00 00
	00		 call	 DWORD PTR __imp_??A?$CSimpleStringT@D$00@ATL@@QBEDH@Z
  003e2	3c 32		 cmp	 al, 50			; 00000032H
  003e4	74 26		 je	 SHORT $LN23@GetSTFileL
  003e6	56		 push	 esi
  003e7	8d 8d e8 fe ff
	ff		 lea	 ecx, DWORD PTR _szText$[ebp]
  003ed	ff 15 00 00 00
	00		 call	 DWORD PTR __imp_??A?$CSimpleStringT@D$00@ATL@@QBEDH@Z
  003f3	3c 33		 cmp	 al, 51			; 00000033H
  003f5	74 15		 je	 SHORT $LN23@GetSTFileL
  003f7	56		 push	 esi
  003f8	8d 8d e8 fe ff
	ff		 lea	 ecx, DWORD PTR _szText$[ebp]
  003fe	ff 15 00 00 00
	00		 call	 DWORD PTR __imp_??A?$CSimpleStringT@D$00@ATL@@QBEDH@Z
  00404	3c 37		 cmp	 al, 55			; 00000037H
  00406	0f 85 ae 01 00
	00		 jne	 $LN5@GetSTFileL
$LN23@GetSTFileL:

; 949  : 				{
; 950  : 					pItemInfo = new STFILEITEM;

  0040c	6a 08		 push	 8
  0040e	e8 00 00 00 00	 call	 ??2@YAPAXI@Z		; operator new
  00413	8b f0		 mov	 esi, eax
  00415	83 c4 04	 add	 esp, 4
  00418	85 f6		 test	 esi, esi
  0041a	74 13		 je	 SHORT $LN34@GetSTFileL
  0041c	8b ce		 mov	 ecx, esi
  0041e	ff 15 00 00 00
	00		 call	 DWORD PTR __imp_??0?$CStringT@DV?$StrTraitMFC_DLL@DV?$ChTraitsCRT@D@ATL@@@@@ATL@@QAE@XZ
  00424	8d 4e 04	 lea	 ecx, DWORD PTR [esi+4]
  00427	ff 15 00 00 00
	00		 call	 DWORD PTR __imp_??0?$CStringT@DV?$StrTraitMFC_DLL@DV?$ChTraitsCRT@D@ATL@@@@@ATL@@QAE@XZ
  0042d	eb 02		 jmp	 SHORT $LN35@GetSTFileL
$LN34@GetSTFileL:
  0042f	33 f6		 xor	 esi, esi
$LN35@GetSTFileL:

; 951  : 					pItemInfo->szRawName = szText;

  00431	8d 85 e8 fe ff
	ff		 lea	 eax, DWORD PTR _szText$[ebp]
  00437	50		 push	 eax
  00438	8d 4e 04	 lea	 ecx, DWORD PTR [esi+4]
  0043b	ff 15 00 00 00
	00		 call	 DWORD PTR __imp_??4?$CStringT@DV?$StrTraitMFC_DLL@DV?$ChTraitsCRT@D@ATL@@@@@ATL@@QAEAAV01@ABV01@@Z

; 952  : 
; 953  : 					szText = szText.Left(nFind);

  00441	53		 push	 ebx
  00442	8d 85 e4 fe ff
	ff		 lea	 eax, DWORD PTR $T10[ebp]
  00448	50		 push	 eax
  00449	8d 8d e8 fe ff
	ff		 lea	 ecx, DWORD PTR _szText$[ebp]
  0044f	ff 15 00 00 00
	00		 call	 DWORD PTR __imp_?Left@?$CStringT@DV?$StrTraitMFC_DLL@DV?$ChTraitsCRT@D@ATL@@@@@ATL@@QBE?AV12@H@Z
  00455	50		 push	 eax
  00456	8d 8d e8 fe ff
	ff		 lea	 ecx, DWORD PTR _szText$[ebp]
  0045c	c6 45 fc 09	 mov	 BYTE PTR __$EHRec$[ebp+8], 9
  00460	ff 15 00 00 00
	00		 call	 DWORD PTR __imp_??4?$CStringT@DV?$StrTraitMFC_DLL@DV?$ChTraitsCRT@D@ATL@@@@@ATL@@QAEAAV01@ABV01@@Z
  00466	8d 8d e4 fe ff
	ff		 lea	 ecx, DWORD PTR $T10[ebp]
  0046c	c6 45 fc 06	 mov	 BYTE PTR __$EHRec$[ebp+8], 6
  00470	ff 15 00 00 00
	00		 call	 DWORD PTR __imp_??1?$CStringT@DV?$StrTraitMFC_DLL@DV?$ChTraitsCRT@D@ATL@@@@@ATL@@QAE@XZ

; 954  : 					pItemInfo->szSTName = szText;
; 955  : 				}
; 956  : 				else continue;
; 957  : 			}

  00476	e9 b1 00 00 00	 jmp	 $LN136@GetSTFileL
$LN19@GetSTFileL:

; 958  : 			else if(p_nSTType=999)

  0047b	b8 e7 03 00 00	 mov	 eax, 999		; 000003e7H

; 959  : 			{
; 960  : 				pItemInfo = new STFILEITEM;

  00480	6a 08		 push	 8
  00482	89 45 0c	 mov	 DWORD PTR _p_nSTType$[ebp], eax
  00485	e8 00 00 00 00	 call	 ??2@YAPAXI@Z		; operator new
  0048a	8b f0		 mov	 esi, eax
  0048c	83 c4 04	 add	 esp, 4
  0048f	85 f6		 test	 esi, esi
  00491	74 13		 je	 SHORT $LN36@GetSTFileL
  00493	8b ce		 mov	 ecx, esi
  00495	ff 15 00 00 00
	00		 call	 DWORD PTR __imp_??0?$CStringT@DV?$StrTraitMFC_DLL@DV?$ChTraitsCRT@D@ATL@@@@@ATL@@QAE@XZ
  0049b	8d 4e 04	 lea	 ecx, DWORD PTR [esi+4]
  0049e	ff 15 00 00 00
	00		 call	 DWORD PTR __imp_??0?$CStringT@DV?$StrTraitMFC_DLL@DV?$ChTraitsCRT@D@ATL@@@@@ATL@@QAE@XZ
  004a4	eb 02		 jmp	 SHORT $LN37@GetSTFileL
$LN36@GetSTFileL:
  004a6	33 f6		 xor	 esi, esi
$LN37@GetSTFileL:

; 961  : 				pItemInfo->szRawName = szText;

  004a8	8d 85 e8 fe ff
	ff		 lea	 eax, DWORD PTR _szText$[ebp]
  004ae	50		 push	 eax
  004af	8d 4e 04	 lea	 ecx, DWORD PTR [esi+4]
  004b2	ff 15 00 00 00
	00		 call	 DWORD PTR __imp_??4?$CStringT@DV?$StrTraitMFC_DLL@DV?$ChTraitsCRT@D@ATL@@@@@ATL@@QAEAAV01@ABV01@@Z

; 962  : 
; 963  : 				szText = szText.Left(nFind);

  004b8	53		 push	 ebx
  004b9	8d 85 d4 fe ff
	ff		 lea	 eax, DWORD PTR $T3[ebp]
  004bf	50		 push	 eax
  004c0	8d 8d e8 fe ff
	ff		 lea	 ecx, DWORD PTR _szText$[ebp]
  004c6	ff 15 00 00 00
	00		 call	 DWORD PTR __imp_?Left@?$CStringT@DV?$StrTraitMFC_DLL@DV?$ChTraitsCRT@D@ATL@@@@@ATL@@QBE?AV12@H@Z
  004cc	50		 push	 eax
  004cd	8d 8d e8 fe ff
	ff		 lea	 ecx, DWORD PTR _szText$[ebp]
  004d3	c6 45 fc 0a	 mov	 BYTE PTR __$EHRec$[ebp+8], 10 ; 0000000aH
  004d7	ff 15 00 00 00
	00		 call	 DWORD PTR __imp_??4?$CStringT@DV?$StrTraitMFC_DLL@DV?$ChTraitsCRT@D@ATL@@@@@ATL@@QAEAAV01@ABV01@@Z
  004dd	8d 8d d4 fe ff
	ff		 lea	 ecx, DWORD PTR $T3[ebp]
  004e3	c6 45 fc 06	 mov	 BYTE PTR __$EHRec$[ebp+8], 6
  004e7	ff 15 00 00 00
	00		 call	 DWORD PTR __imp_??1?$CStringT@DV?$StrTraitMFC_DLL@DV?$ChTraitsCRT@D@ATL@@@@@ATL@@QAE@XZ

; 964  : 				pItemInfo->szSTName = szText;
; 965  : 			}
; 966  : 		}

  004ed	eb 3d		 jmp	 SHORT $LN136@GetSTFileL
$LN8@GetSTFileL:

; 967  : 		else
; 968  : 		{
; 969  : 			if(p_nSTType=999)

  004ef	b8 e7 03 00 00	 mov	 eax, 999		; 000003e7H

; 970  : 			{
; 971  : 				pItemInfo = new STFILEITEM;

  004f4	6a 08		 push	 8
  004f6	89 45 0c	 mov	 DWORD PTR _p_nSTType$[ebp], eax
  004f9	e8 00 00 00 00	 call	 ??2@YAPAXI@Z		; operator new
  004fe	8b f0		 mov	 esi, eax
  00500	83 c4 04	 add	 esp, 4
  00503	85 f6		 test	 esi, esi
  00505	74 13		 je	 SHORT $LN38@GetSTFileL
  00507	8b ce		 mov	 ecx, esi
  00509	ff 15 00 00 00
	00		 call	 DWORD PTR __imp_??0?$CStringT@DV?$StrTraitMFC_DLL@DV?$ChTraitsCRT@D@ATL@@@@@ATL@@QAE@XZ
  0050f	8d 4e 04	 lea	 ecx, DWORD PTR [esi+4]
  00512	ff 15 00 00 00
	00		 call	 DWORD PTR __imp_??0?$CStringT@DV?$StrTraitMFC_DLL@DV?$ChTraitsCRT@D@ATL@@@@@ATL@@QAE@XZ
  00518	eb 02		 jmp	 SHORT $LN39@GetSTFileL
$LN38@GetSTFileL:
  0051a	33 f6		 xor	 esi, esi
$LN39@GetSTFileL:

; 972  : 				pItemInfo->szRawName = szText;

  0051c	8d 85 e8 fe ff
	ff		 lea	 eax, DWORD PTR _szText$[ebp]
  00522	50		 push	 eax
  00523	8d 4e 04	 lea	 ecx, DWORD PTR [esi+4]
  00526	ff 15 00 00 00
	00		 call	 DWORD PTR __imp_??4?$CStringT@DV?$StrTraitMFC_DLL@DV?$ChTraitsCRT@D@ATL@@@@@ATL@@QAEAAV01@ABV01@@Z
$LN136@GetSTFileL:
; File C:\Program Files (x86)\Microsoft Visual Studio\2019\Community\VC\Tools\MSVC\14.29.30133\atlmfc\include\afxtempl.h

; 968  : 	CNode* pNewNode = NewNode(m_pNodeTail, NULL);

  0052c	8d 85 e8 fe ff
	ff		 lea	 eax, DWORD PTR _szText$[ebp]
  00532	8b ce		 mov	 ecx, esi
  00534	50		 push	 eax
  00535	ff 15 00 00 00
	00		 call	 DWORD PTR __imp_??4?$CStringT@DV?$StrTraitMFC_DLL@DV?$ChTraitsCRT@D@ATL@@@@@ATL@@QAEAAV01@ABV01@@Z

; 902  : 	if (m_pNodeFree == NULL)

  0053b	8b 57 10	 mov	 edx, DWORD PTR [edi+16]

; 968  : 	CNode* pNewNode = NewNode(m_pNodeTail, NULL);

  0053e	8b 47 08	 mov	 eax, DWORD PTR [edi+8]
  00541	89 85 d0 fe ff
	ff		 mov	 DWORD PTR _pPrev$1$[ebp], eax

; 902  : 	if (m_pNodeFree == NULL)

  00547	85 d2		 test	 edx, edx
  00549	75 44		 jne	 SHORT $LN131@GetSTFileL

; 903  : 	{
; 904  : 		// add another block
; 905  : 		CPlex* pNewBlock = CPlex::Create(m_pBlocks, m_nBlockSize,

  0054b	6a 0c		 push	 12			; 0000000cH
  0054d	ff 77 18	 push	 DWORD PTR [edi+24]
  00550	8d 47 14	 lea	 eax, DWORD PTR [edi+20]
  00553	50		 push	 eax
  00554	e8 00 00 00 00	 call	 ?Create@CPlex@@SGPAU1@AAPAU1@II@Z ; CPlex::Create

; 906  : 				 sizeof(CNode));
; 907  : 
; 908  : 		// chain them into free list
; 909  : 		CNode* pNode = (CNode*) pNewBlock->data();
; 910  : 		// free in reverse order to make it easier to debug
; 911  : 		pNode += m_nBlockSize - 1;

  00559	8b 57 18	 mov	 edx, DWORD PTR [edi+24]
  0055c	83 c0 08	 add	 eax, 8
  0055f	8d 4a ff	 lea	 ecx, DWORD PTR [edx-1]

; 912  : 		for (INT_PTR i = m_nBlockSize-1; i >= 0; i--, pNode--)

  00562	8d 5a ff	 lea	 ebx, DWORD PTR [edx-1]
  00565	8d 0c 49	 lea	 ecx, DWORD PTR [ecx+ecx*2]
  00568	8d 0c 88	 lea	 ecx, DWORD PTR [eax+ecx*4]
  0056b	85 db		 test	 ebx, ebx
  0056d	78 15		 js	 SHORT $LN132@GetSTFileL
  0056f	90		 npad	 1
$LL103@GetSTFileL:

; 913  : 		{
; 914  : 			pNode->pNext = m_pNodeFree;

  00570	8b 47 10	 mov	 eax, DWORD PTR [edi+16]
  00573	8b d1		 mov	 edx, ecx
  00575	89 01		 mov	 DWORD PTR [ecx], eax

; 915  : 			m_pNodeFree = pNode;

  00577	89 4f 10	 mov	 DWORD PTR [edi+16], ecx
  0057a	83 e9 0c	 sub	 ecx, 12			; 0000000cH
  0057d	83 eb 01	 sub	 ebx, 1
  00580	79 ee		 jns	 SHORT $LL103@GetSTFileL
  00582	eb 03		 jmp	 SHORT $LN106@GetSTFileL
$LN132@GetSTFileL:
  00584	8b 57 10	 mov	 edx, DWORD PTR [edi+16]
$LN106@GetSTFileL:

; 916  : 		}
; 917  : 	}
; 918  : 	ENSURE(m_pNodeFree != NULL);  // we must have something

  00587	85 d2		 test	 edx, edx
  00589	0f 84 7e 00 00
	00		 je	 $LN78@GetSTFileL
$LN131@GetSTFileL:

; 919  : 
; 920  : 	CList::CNode* pNode = m_pNodeFree;
; 921  : 	m_pNodeFree = m_pNodeFree->pNext;

  0058f	8b 02		 mov	 eax, DWORD PTR [edx]
  00591	89 47 10	 mov	 DWORD PTR [edi+16], eax

; 922  : 	pNode->pPrev = pPrev;

  00594	8b 85 d0 fe ff
	ff		 mov	 eax, DWORD PTR _pPrev$1$[ebp]
  0059a	89 42 04	 mov	 DWORD PTR [edx+4], eax

; 923  : 	pNode->pNext = pNext;

  0059d	c7 02 00 00 00
	00		 mov	 DWORD PTR [edx], 0

; 924  : 	m_nCount++;

  005a3	ff 47 0c	 inc	 DWORD PTR [edi+12]

; 969  : 	pNewNode->data = newElement;

  005a6	89 72 08	 mov	 DWORD PTR [edx+8], esi

; 970  : 	if (m_pNodeTail != NULL)

  005a9	8b 47 08	 mov	 eax, DWORD PTR [edi+8]
  005ac	85 c0		 test	 eax, eax
  005ae	74 04		 je	 SHORT $LN97@GetSTFileL

; 971  : 		m_pNodeTail->pNext = pNewNode;

  005b0	89 10		 mov	 DWORD PTR [eax], edx
  005b2	eb 03		 jmp	 SHORT $LN98@GetSTFileL
$LN97@GetSTFileL:

; 972  : 	else
; 973  : 		m_pNodeHead = pNewNode;

  005b4	89 57 04	 mov	 DWORD PTR [edi+4], edx
$LN98@GetSTFileL:

; 974  : 	m_pNodeTail = pNewNode;

  005b7	89 57 08	 mov	 DWORD PTR [edi+8], edx
$LN5@GetSTFileL:
; File D:\git\src\IBK\IBK_DRFN\ProjSrc\SrcDrfn\Chart\Common_ST\_STLoadmanager.cpp

; 914  : 	for(int i=0; i<arr.GetSize(); i++)

  005ba	8b 8d e0 fe ff
	ff		 mov	 ecx, DWORD PTR _i$1$[ebp]
  005c0	8b 85 c4 fe ff
	ff		 mov	 eax, DWORD PTR _arr$[ebp+8]
  005c6	41		 inc	 ecx
  005c7	89 8d e0 fe ff
	ff		 mov	 DWORD PTR _i$1$[ebp], ecx
  005cd	3b c8		 cmp	 ecx, eax
  005cf	0f 8c 7b fc ff
	ff		 jl	 $LL7@GetSTFileL
$LN6@GetSTFileL:

; 973  : 				pItemInfo->szSTName = szText;
; 974  : 			}
; 975  : 			else
; 976  : 				continue;
; 977  : 		}
; 978  : 
; 979  : 		p_arrSTList->AddTail(pItemInfo);
; 980  : 	}
; 981  : 
; 982  : 	return p_arrSTList->GetCount();

  005d5	8b 77 0c	 mov	 esi, DWORD PTR [edi+12]
  005d8	8d 8d e8 fe ff
	ff		 lea	 ecx, DWORD PTR _szText$[ebp]
  005de	ff 15 00 00 00
	00		 call	 DWORD PTR __imp_??1?$CStringT@DV?$StrTraitMFC_DLL@DV?$ChTraitsCRT@D@ATL@@@@@ATL@@QAE@XZ
  005e4	8d 8d bc fe ff
	ff		 lea	 ecx, DWORD PTR _arr$[ebp]
  005ea	e8 00 00 00 00	 call	 ??1CStringArray@@UAE@XZ	; CStringArray::~CStringArray
  005ef	8b c6		 mov	 eax, esi

; 983  : }

  005f1	8b 4d f4	 mov	 ecx, DWORD PTR __$EHRec$[ebp]
  005f4	64 89 0d 00 00
	00 00		 mov	 DWORD PTR fs:0, ecx
  005fb	59		 pop	 ecx
  005fc	5f		 pop	 edi
  005fd	5e		 pop	 esi
  005fe	5b		 pop	 ebx
  005ff	8b 4d f0	 mov	 ecx, DWORD PTR __$ArrayPad$[ebp]
  00602	33 cd		 xor	 ecx, ebp
  00604	e8 00 00 00 00	 call	 @__security_check_cookie@4
  00609	8b e5		 mov	 esp, ebp
  0060b	5d		 pop	 ebp
  0060c	c3		 ret	 0
$LN78@GetSTFileL:
; File C:\Program Files (x86)\Microsoft Visual Studio\2019\Community\VC\Tools\MSVC\14.29.30133\atlmfc\include\afxcoll.inl

; 290  : 			AfxThrowInvalidArgException();

  0060d	e8 00 00 00 00	 call	 ?AfxThrowInvalidArgException@@YGXXZ ; AfxThrowInvalidArgException
$LN135@GetSTFileL:
  00612	cc		 int	 3
_TEXT	ENDS
;	COMDAT text$x
text$x	SEGMENT
__unwindfunclet$?GetSTFileList@CSTLoadManager@@KAHPBDHPAV?$CList@PAUSTFILEITEM@@PAU1@@@@Z$0:
  00000	8d 8d bc fe ff
	ff		 lea	 ecx, DWORD PTR _arr$[ebp]
  00006	e9 00 00 00 00	 jmp	 ??1CStringArray@@UAE@XZ	; CStringArray::~CStringArray
__unwindfunclet$?GetSTFileList@CSTLoadManager@@KAHPBDHPAV?$CList@PAUSTFILEITEM@@PAU1@@@@Z$7:
  0000b	8d 8d e4 fe ff
	ff		 lea	 ecx, DWORD PTR _strComponent$9[ebp]
  00011	ff 25 00 00 00
	00		 jmp	 DWORD PTR __imp_??1?$CStringT@DV?$StrTraitMFC_DLL@DV?$ChTraitsCRT@D@ATL@@@@@ATL@@QAE@XZ
__unwindfunclet$?GetSTFileList@CSTLoadManager@@KAHPBDHPAV?$CList@PAUSTFILEITEM@@PAU1@@@@Z$8:
  00017	8d 8d e0 fe ff
	ff		 lea	 ecx, DWORD PTR _szTmp$8[ebp]
  0001d	ff 25 00 00 00
	00		 jmp	 DWORD PTR __imp_??1?$CStringT@DV?$StrTraitMFC_DLL@DV?$ChTraitsCRT@D@ATL@@@@@ATL@@QAE@XZ
__unwindfunclet$?GetSTFileList@CSTLoadManager@@KAHPBDHPAV?$CList@PAUSTFILEITEM@@PAU1@@@@Z$9:
  00023	8d 8d a0 fe ff
	ff		 lea	 ecx, DWORD PTR _finder$2[ebp]
  00029	e9 00 00 00 00	 jmp	 ??1CFileFind@@UAE@XZ	; CFileFind::~CFileFind
__unwindfunclet$?GetSTFileList@CSTLoadManager@@KAHPBDHPAV?$CList@PAUSTFILEITEM@@PAU1@@@@Z$10:
  0002e	8d 8d dc fe ff
	ff		 lea	 ecx, DWORD PTR $T6[ebp]
  00034	ff 25 00 00 00
	00		 jmp	 DWORD PTR __imp_??1?$CStringT@DV?$StrTraitMFC_DLL@DV?$ChTraitsCRT@D@ATL@@@@@ATL@@QAE@XZ
__unwindfunclet$?GetSTFileList@CSTLoadManager@@KAHPBDHPAV?$CList@PAUSTFILEITEM@@PAU1@@@@Z$11:
  0003a	8d 8d d8 fe ff
	ff		 lea	 ecx, DWORD PTR $T4[ebp]
  00040	ff 25 00 00 00
	00		 jmp	 DWORD PTR __imp_??1?$CStringT@DV?$StrTraitMFC_DLL@DV?$ChTraitsCRT@D@ATL@@@@@ATL@@QAE@XZ
__unwindfunclet$?GetSTFileList@CSTLoadManager@@KAHPBDHPAV?$CList@PAUSTFILEITEM@@PAU1@@@@Z$1:
  00046	8d 8d e8 fe ff
	ff		 lea	 ecx, DWORD PTR _szText$[ebp]
  0004c	ff 25 00 00 00
	00		 jmp	 DWORD PTR __imp_??1?$CStringT@DV?$StrTraitMFC_DLL@DV?$ChTraitsCRT@D@ATL@@@@@ATL@@QAE@XZ
__unwindfunclet$?GetSTFileList@CSTLoadManager@@KAHPBDHPAV?$CList@PAUSTFILEITEM@@PAU1@@@@Z$2:
  00052	8d 8d d8 fe ff
	ff		 lea	 ecx, DWORD PTR $T5[ebp]
  00058	ff 25 00 00 00
	00		 jmp	 DWORD PTR __imp_??1?$CStringT@DV?$StrTraitMFC_DLL@DV?$ChTraitsCRT@D@ATL@@@@@ATL@@QAE@XZ
__unwindfunclet$?GetSTFileList@CSTLoadManager@@KAHPBDHPAV?$CList@PAUSTFILEITEM@@PAU1@@@@Z$3:
  0005e	8d 8d dc fe ff
	ff		 lea	 ecx, DWORD PTR $T7[ebp]
  00064	ff 25 00 00 00
	00		 jmp	 DWORD PTR __imp_??1?$CStringT@DV?$StrTraitMFC_DLL@DV?$ChTraitsCRT@D@ATL@@@@@ATL@@QAE@XZ
__unwindfunclet$?GetSTFileList@CSTLoadManager@@KAHPBDHPAV?$CList@PAUSTFILEITEM@@PAU1@@@@Z$4:
  0006a	8d 8d e4 fe ff
	ff		 lea	 ecx, DWORD PTR $T10[ebp]
  00070	ff 25 00 00 00
	00		 jmp	 DWORD PTR __imp_??1?$CStringT@DV?$StrTraitMFC_DLL@DV?$ChTraitsCRT@D@ATL@@@@@ATL@@QAE@XZ
__unwindfunclet$?GetSTFileList@CSTLoadManager@@KAHPBDHPAV?$CList@PAUSTFILEITEM@@PAU1@@@@Z$5:
  00076	8d 8d d4 fe ff
	ff		 lea	 ecx, DWORD PTR $T3[ebp]
  0007c	ff 25 00 00 00
	00		 jmp	 DWORD PTR __imp_??1?$CStringT@DV?$StrTraitMFC_DLL@DV?$ChTraitsCRT@D@ATL@@@@@ATL@@QAE@XZ
  00082	cc		 int	 3
  00083	cc		 int	 3
  00084	cc		 int	 3
  00085	cc		 int	 3
  00086	cc		 int	 3
__ehhandler$?GetSTFileList@CSTLoadManager@@KAHPBDHPAV?$CList@PAUSTFILEITEM@@PAU1@@@@Z:
  00087	90		 npad	 1
  00088	90		 npad	 1
  00089	8b 54 24 08	 mov	 edx, DWORD PTR [esp+8]
  0008d	8d 42 0c	 lea	 eax, DWORD PTR [edx+12]
  00090	8b 8a 9c fe ff
	ff		 mov	 ecx, DWORD PTR [edx-356]
  00096	33 c8		 xor	 ecx, eax
  00098	e8 00 00 00 00	 call	 @__security_check_cookie@4
  0009d	8b 4a fc	 mov	 ecx, DWORD PTR [edx-4]
  000a0	33 c8		 xor	 ecx, eax
  000a2	e8 00 00 00 00	 call	 @__security_check_cookie@4
  000a7	b8 00 00 00 00	 mov	 eax, OFFSET __ehfuncinfo$?GetSTFileList@CSTLoadManager@@KAHPBDHPAV?$CList@PAUSTFILEITEM@@PAU1@@@@Z
  000ac	e9 00 00 00 00	 jmp	 ___CxxFrameHandler3
text$x	ENDS
?GetSTFileList@CSTLoadManager@@KAHPBDHPAV?$CList@PAUSTFILEITEM@@PAU1@@@@Z ENDP ; CSTLoadManager::GetSTFileList
; Function compile flags: /Ogtp
; File D:\git\src\IBK\IBK_DRFN\ProjSrc\SrcDrfn\Chart\Common_ST\_STLoadmanager.cpp
; File C:\Program Files (x86)\Microsoft Visual Studio\2019\Community\VC\Tools\MSVC\14.29.30133\atlmfc\include\afxtempl.h
; File D:\git\src\IBK\IBK_DRFN\ProjSrc\SrcDrfn\Chart\Common_ST\_STLoadmanager.cpp
; File C:\Program Files (x86)\Microsoft Visual Studio\2019\Community\VC\Tools\MSVC\14.29.30133\atlmfc\include\afxtempl.h
; File D:\git\src\IBK\IBK_DRFN\ProjSrc\SrcDrfn\Chart\Common_ST\_STLoadmanager.cpp
; File C:\Program Files (x86)\Microsoft Visual Studio\2019\Community\VC\Tools\MSVC\14.29.30133\atlmfc\include\afxtempl.h
; File D:\git\src\IBK\IBK_DRFN\ProjSrc\SrcDrfn\Chart\Common_ST\_STLoadmanager.cpp
; File C:\Program Files (x86)\Microsoft Visual Studio\2019\Community\VC\Tools\MSVC\14.29.30133\atlmfc\include\afxtempl.h
; File D:\git\src\IBK\IBK_DRFN\ProjSrc\SrcDrfn\Chart\Common_ST\_STLoadmanager.cpp
; File C:\Program Files (x86)\Microsoft Visual Studio\2019\Community\VC\Tools\MSVC\14.29.30133\atlmfc\include\afxtempl.h
; File D:\git\src\IBK\IBK_DRFN\ProjSrc\SrcDrfn\Chart\Common_ST\_STLoadmanager.cpp
; File C:\Program Files (x86)\Microsoft Visual Studio\2019\Community\VC\Tools\MSVC\14.29.30133\atlmfc\include\afxtempl.h
; File D:\git\src\IBK\IBK_DRFN\ProjSrc\SrcDrfn\Chart\Common_ST\_STLoadmanager.cpp
;	COMDAT ?LoadSTFolderList@CSTLoadManager@@IAEXPBD0H@Z
_TEXT	SEGMENT
_arrSTList$ = -44					; size = 28
_this$1$ = -16						; size = 4
__$EHRec$ = -12						; size = 12
_p_szGroupName$ = 8					; size = 4
_p_szTargetDir$ = 12					; size = 4
_szSTFilePath$ = 16					; size = 4
_p_nSTType$ = 16					; size = 4
?LoadSTFolderList@CSTLoadManager@@IAEXPBD0H@Z PROC	; CSTLoadManager::LoadSTFolderList, COMDAT
; _this$ = ecx

; 649  : {

  00000	55		 push	 ebp
  00001	8b ec		 mov	 ebp, esp
  00003	6a ff		 push	 -1
  00005	68 00 00 00 00	 push	 __ehhandler$?LoadSTFolderList@CSTLoadManager@@IAEXPBD0H@Z
  0000a	64 a1 00 00 00
	00		 mov	 eax, DWORD PTR fs:0
  00010	50		 push	 eax
  00011	83 ec 20	 sub	 esp, 32			; 00000020H
  00014	53		 push	 ebx
  00015	56		 push	 esi
  00016	57		 push	 edi
  00017	a1 00 00 00 00	 mov	 eax, DWORD PTR ___security_cookie
  0001c	33 c5		 xor	 eax, ebp
  0001e	50		 push	 eax
  0001f	8d 45 f4	 lea	 eax, DWORD PTR __$EHRec$[ebp]
  00022	64 a3 00 00 00
	00		 mov	 DWORD PTR fs:0, eax
  00028	8b d9		 mov	 ebx, ecx
  0002a	89 5d f0	 mov	 DWORD PTR _this$1$[ebp], ebx
; File C:\Program Files (x86)\Microsoft Visual Studio\2019\Community\VC\Tools\MSVC\14.29.30133\atlmfc\include\afxtempl.h

; 851  : {

  0002d	c7 45 d4 00 00
	00 00		 mov	 DWORD PTR _arrSTList$[ebp], OFFSET ??_7?$CList@PAUSTFILEITEM@@PAU1@@@6B@

; 852  : 	ASSERT(nBlockSize > 0);
; 853  : 
; 854  : 	m_nCount = 0;

  00034	c7 45 e0 00 00
	00 00		 mov	 DWORD PTR _arrSTList$[ebp+12], 0

; 855  : 	m_pNodeHead = m_pNodeTail = m_pNodeFree = NULL;

  0003b	c7 45 e4 00 00
	00 00		 mov	 DWORD PTR _arrSTList$[ebp+16], 0
  00042	c7 45 dc 00 00
	00 00		 mov	 DWORD PTR _arrSTList$[ebp+8], 0
  00049	c7 45 d8 00 00
	00 00		 mov	 DWORD PTR _arrSTList$[ebp+4], 0

; 856  : 	m_pBlocks = NULL;

  00050	c7 45 e8 00 00
	00 00		 mov	 DWORD PTR _arrSTList$[ebp+20], 0

; 857  : 	m_nBlockSize = nBlockSize;

  00057	c7 45 ec 0a 00
	00 00		 mov	 DWORD PTR _arrSTList$[ebp+24], 10 ; 0000000aH
; File D:\git\src\IBK\IBK_DRFN\ProjSrc\SrcDrfn\Chart\Common_ST\_STLoadmanager.cpp

; 651  : 	CSTLoadManager::GetSTFileList(p_szTargetDir, p_nSTType, &arrSTList);

  0005e	8b 7d 0c	 mov	 edi, DWORD PTR _p_szTargetDir$[ebp]
  00061	8d 45 d4	 lea	 eax, DWORD PTR _arrSTList$[ebp]
  00064	50		 push	 eax
  00065	ff 75 10	 push	 DWORD PTR _p_nSTType$[ebp]
  00068	c7 45 fc 00 00
	00 00		 mov	 DWORD PTR __$EHRec$[ebp+8], 0
  0006f	57		 push	 edi
  00070	e8 00 00 00 00	 call	 ?GetSTFileList@CSTLoadManager@@KAHPBDHPAV?$CList@PAUSTFILEITEM@@PAU1@@@@Z ; CSTLoadManager::GetSTFileList
  00075	83 c4 0c	 add	 esp, 12			; 0000000cH

; 652  : 
; 653  : //	if(arrSTList.GetCount()==0) return;
; 654  : 
; 655  : 	//  .
; 656  : 	AddFolder(p_szTargetDir, p_szGroupName);

  00078	8b cb		 mov	 ecx, ebx
  0007a	ff 75 08	 push	 DWORD PTR _p_szGroupName$[ebp]
  0007d	57		 push	 edi
  0007e	e8 00 00 00 00	 call	 ?AddFolder@CSTLoadManager@@IAEXPBD0@Z ; CSTLoadManager::AddFolder

; 657  : 
; 658  : 	//   
; 659  : 	CString szSTFilePath;

  00083	8d 4d 10	 lea	 ecx, DWORD PTR _szSTFilePath$[ebp]
  00086	ff 15 00 00 00
	00		 call	 DWORD PTR __imp_??0?$CStringT@DV?$StrTraitMFC_DLL@DV?$ChTraitsCRT@D@ATL@@@@@ATL@@QAE@XZ

; 660  : 	STFILEITEM*  pItem = NULL;
; 661  : 
; 662  : 	for(POSITION pos=arrSTList.GetHeadPosition(); pos;)

  0008c	8b 75 d8	 mov	 esi, DWORD PTR _arrSTList$[ebp+4]
  0008f	c6 45 fc 01	 mov	 BYTE PTR __$EHRec$[ebp+8], 1
  00093	85 f6		 test	 esi, esi
  00095	74 66		 je	 SHORT $LN29@LoadSTFold
  00097	8b 1d 00 00 00
	00		 mov	 ebx, DWORD PTR __imp_?Format@?$CStringT@DV?$StrTraitMFC_DLL@DV?$ChTraitsCRT@D@ATL@@@@@ATL@@QAAXPBDZZ
  0009d	0f 1f 00	 npad	 3
$LL2@LoadSTFold:

; 663  : 	{
; 664  : 		pItem = arrSTList.GetNext(pos);

  000a0	8b 46 08	 mov	 eax, DWORD PTR [esi+8]
; File C:\Program Files (x86)\Microsoft Visual Studio\2019\Community\VC\Tools\MSVC\14.29.30133\atlmfc\include\afxtempl.h

; 813  : 		rPosition = (POSITION) pNode->pNext;

  000a3	8b 36		 mov	 esi, DWORD PTR [esi]
; File D:\git\src\IBK\IBK_DRFN\ProjSrc\SrcDrfn\Chart\Common_ST\_STLoadmanager.cpp

; 665  : 		szSTFilePath.Format("%s\\%s%s", p_szTargetDir, pItem->szRawName, ".ST");

  000a5	68 00 00 00 00	 push	 OFFSET ??_C@_03COHLPAFH@?4ST@
  000aa	ff 70 04	 push	 DWORD PTR [eax+4]
  000ad	8d 45 10	 lea	 eax, DWORD PTR _szSTFilePath$[ebp]
  000b0	57		 push	 edi
  000b1	68 00 00 00 00	 push	 OFFSET ??_C@_07MHLIEPKG@?$CFs?2?$CFs?$CFs@
  000b6	50		 push	 eax
  000b7	ff d3		 call	 ebx

; 666  : 		AddSTFile(szSTFilePath);

  000b9	8b 4d f0	 mov	 ecx, DWORD PTR _this$1$[ebp]
  000bc	83 c4 14	 add	 esp, 20			; 00000014H
  000bf	6a 00		 push	 0
  000c1	ff 75 10	 push	 DWORD PTR _szSTFilePath$[ebp]
  000c4	e8 00 00 00 00	 call	 ?AddSTFile@CSTLoadManager@@IAEXPBD0@Z ; CSTLoadManager::AddSTFile
  000c9	85 f6		 test	 esi, esi
  000cb	75 d3		 jne	 SHORT $LL2@LoadSTFold

; 669  : 	Delete_List_STFILEITEM(arrSTList);

  000cd	8b 75 d8	 mov	 esi, DWORD PTR _arrSTList$[ebp+4]
  000d0	85 f6		 test	 esi, esi
  000d2	74 29		 je	 SHORT $LN29@LoadSTFold
$LL5@LoadSTFold:
  000d4	8b 7e 08	 mov	 edi, DWORD PTR [esi+8]
; File C:\Program Files (x86)\Microsoft Visual Studio\2019\Community\VC\Tools\MSVC\14.29.30133\atlmfc\include\afxtempl.h

; 813  : 		rPosition = (POSITION) pNode->pNext;

  000d7	8b 36		 mov	 esi, DWORD PTR [esi]
; File D:\git\src\IBK\IBK_DRFN\ProjSrc\SrcDrfn\Chart\Common_ST\_STLoadmanager.cpp

; 669  : 	Delete_List_STFILEITEM(arrSTList);

  000d9	85 ff		 test	 edi, edi
  000db	74 1c		 je	 SHORT $LN22@LoadSTFold
  000dd	8d 4f 04	 lea	 ecx, DWORD PTR [edi+4]
  000e0	ff 15 00 00 00
	00		 call	 DWORD PTR __imp_??1?$CStringT@DV?$StrTraitMFC_DLL@DV?$ChTraitsCRT@D@ATL@@@@@ATL@@QAE@XZ
  000e6	8b cf		 mov	 ecx, edi
  000e8	ff 15 00 00 00
	00		 call	 DWORD PTR __imp_??1?$CStringT@DV?$StrTraitMFC_DLL@DV?$ChTraitsCRT@D@ATL@@@@@ATL@@QAE@XZ
  000ee	6a 08		 push	 8
  000f0	57		 push	 edi
  000f1	e8 00 00 00 00	 call	 ??3@YAXPAXI@Z		; operator delete
  000f6	83 c4 08	 add	 esp, 8
$LN22@LoadSTFold:
  000f9	85 f6		 test	 esi, esi
  000fb	75 d7		 jne	 SHORT $LL5@LoadSTFold
$LN29@LoadSTFold:
; File C:\Program Files (x86)\Microsoft Visual Studio\2019\Community\VC\Tools\MSVC\14.29.30133\atlmfc\include\afxtempl.h

; 872  : 	m_pBlocks->FreeDataChain();

  000fd	8b 4d e8	 mov	 ecx, DWORD PTR _arrSTList$[ebp+20]
  00100	c7 45 e0 00 00
	00 00		 mov	 DWORD PTR _arrSTList$[ebp+12], 0
  00107	c7 45 e4 00 00
	00 00		 mov	 DWORD PTR _arrSTList$[ebp+16], 0
  0010e	c7 45 dc 00 00
	00 00		 mov	 DWORD PTR _arrSTList$[ebp+8], 0
  00115	c7 45 d8 00 00
	00 00		 mov	 DWORD PTR _arrSTList$[ebp+4], 0
  0011c	e8 00 00 00 00	 call	 ?FreeDataChain@CPlex@@QAEXXZ ; CPlex::FreeDataChain
; File D:\git\src\IBK\IBK_DRFN\ProjSrc\SrcDrfn\Chart\Common_ST\_STLoadmanager.cpp

; 670  : }

  00121	8d 4d 10	 lea	 ecx, DWORD PTR _szSTFilePath$[ebp]
; File C:\Program Files (x86)\Microsoft Visual Studio\2019\Community\VC\Tools\MSVC\14.29.30133\atlmfc\include\afxtempl.h

; 873  : 	m_pBlocks = NULL;

  00124	c7 45 e8 00 00
	00 00		 mov	 DWORD PTR _arrSTList$[ebp+20], 0
; File D:\git\src\IBK\IBK_DRFN\ProjSrc\SrcDrfn\Chart\Common_ST\_STLoadmanager.cpp

; 670  : }

  0012b	ff 15 00 00 00
	00		 call	 DWORD PTR __imp_??1?$CStringT@DV?$StrTraitMFC_DLL@DV?$ChTraitsCRT@D@ATL@@@@@ATL@@QAE@XZ
; File C:\Program Files (x86)\Microsoft Visual Studio\2019\Community\VC\Tools\MSVC\14.29.30133\atlmfc\include\afxtempl.h

; 872  : 	m_pBlocks->FreeDataChain();

  00131	8b 4d e8	 mov	 ecx, DWORD PTR _arrSTList$[ebp+20]

; 878  : {

  00134	c7 45 fc 02 00
	00 00		 mov	 DWORD PTR __$EHRec$[ebp+8], 2
  0013b	c7 45 d4 00 00
	00 00		 mov	 DWORD PTR _arrSTList$[ebp], OFFSET ??_7?$CList@PAUSTFILEITEM@@PAU1@@@6B@

; 870  : 	m_nCount = 0;

  00142	c7 45 e0 00 00
	00 00		 mov	 DWORD PTR _arrSTList$[ebp+12], 0

; 871  : 	m_pNodeHead = m_pNodeTail = m_pNodeFree = NULL;

  00149	c7 45 e4 00 00
	00 00		 mov	 DWORD PTR _arrSTList$[ebp+16], 0
  00150	c7 45 dc 00 00
	00 00		 mov	 DWORD PTR _arrSTList$[ebp+8], 0
  00157	c7 45 d8 00 00
	00 00		 mov	 DWORD PTR _arrSTList$[ebp+4], 0

; 872  : 	m_pBlocks->FreeDataChain();

  0015e	e8 00 00 00 00	 call	 ?FreeDataChain@CPlex@@QAEXXZ ; CPlex::FreeDataChain
; File D:\git\src\IBK\IBK_DRFN\ProjSrc\SrcDrfn\Chart\Common_ST\_STLoadmanager.cpp

; 670  : }

  00163	8b 4d f4	 mov	 ecx, DWORD PTR __$EHRec$[ebp]
  00166	64 89 0d 00 00
	00 00		 mov	 DWORD PTR fs:0, ecx
  0016d	59		 pop	 ecx
  0016e	5f		 pop	 edi
  0016f	5e		 pop	 esi
  00170	5b		 pop	 ebx
  00171	8b e5		 mov	 esp, ebp
  00173	5d		 pop	 ebp
  00174	c2 0c 00	 ret	 12			; 0000000cH
_TEXT	ENDS
;	COMDAT text$x
text$x	SEGMENT
__unwindfunclet$?LoadSTFolderList@CSTLoadManager@@IAEXPBD0H@Z$0:
  00000	8d 4d d4	 lea	 ecx, DWORD PTR _arrSTList$[ebp]
  00003	e9 00 00 00 00	 jmp	 ??1?$CList@PAUSTFILEITEM@@PAU1@@@UAE@XZ ; CList<STFILEITEM *,STFILEITEM *>::~CList<STFILEITEM *,STFILEITEM *>
__unwindfunclet$?LoadSTFolderList@CSTLoadManager@@IAEXPBD0H@Z$1:
  00008	8d 4d 10	 lea	 ecx, DWORD PTR _szSTFilePath$[ebp]
  0000b	ff 25 00 00 00
	00		 jmp	 DWORD PTR __imp_??1?$CStringT@DV?$StrTraitMFC_DLL@DV?$ChTraitsCRT@D@ATL@@@@@ATL@@QAE@XZ
  00011	cc		 int	 3
  00012	cc		 int	 3
  00013	cc		 int	 3
  00014	cc		 int	 3
  00015	cc		 int	 3
__ehhandler$?LoadSTFolderList@CSTLoadManager@@IAEXPBD0H@Z:
  00016	90		 npad	 1
  00017	90		 npad	 1
  00018	8b 54 24 08	 mov	 edx, DWORD PTR [esp+8]
  0001c	8d 42 0c	 lea	 eax, DWORD PTR [edx+12]
  0001f	8b 4a d0	 mov	 ecx, DWORD PTR [edx-48]
  00022	33 c8		 xor	 ecx, eax
  00024	e8 00 00 00 00	 call	 @__security_check_cookie@4
  00029	b8 00 00 00 00	 mov	 eax, OFFSET __ehfuncinfo$?LoadSTFolderList@CSTLoadManager@@IAEXPBD0H@Z
  0002e	e9 00 00 00 00	 jmp	 ___CxxFrameHandler3
text$x	ENDS
?LoadSTFolderList@CSTLoadManager@@IAEXPBD0H@Z ENDP	; CSTLoadManager::LoadSTFolderList
; Function compile flags: /Ogtp
; File D:\git\src\IBK\IBK_DRFN\ProjSrc\SrcDrfn\Chart\Common_ST\_STLoadmanager.cpp
; File C:\Program Files (x86)\Microsoft Visual Studio\2019\Community\VC\Tools\MSVC\14.29.30133\atlmfc\include\afx.inl
; File D:\git\src\IBK\IBK_DRFN\ProjSrc\SrcDrfn\Chart\Common_ST\_STLoadmanager.cpp
;	COMDAT ?DirectorySearch@CSTLoadManager@@IAEHPBD0H@Z
_TEXT	SEGMENT
_finder$ = -604						; size = 28
_bWorking$2$ = -576					; size = 4
_pszExt$GSCopy$1$ = -572				; size = 4
$T2 = -568						; size = 4
$T3 = -564						; size = 4
_szSTFolderPath$4 = -560				; size = 4
_szOptimizerPath$ = -556				; size = 4
_pszStartDir$GSCopy$1$ = -552				; size = 4
_szSTFilePath$5 = -548					; size = 4
_strComponent$ = -544					; size = 4
_szSection$6 = -540					; size = 4
_aFile$ = -536						; size = 260
_aSubDir$7 = -276					; size = 260
__$ArrayPad$ = -16					; size = 4
__$EHRec$ = -12						; size = 12
_pszStartDir$ = 8					; size = 4
_pszExt$ = 12						; size = 4
_bSub$ = 16						; size = 4
?DirectorySearch@CSTLoadManager@@IAEHPBD0H@Z PROC	; CSTLoadManager::DirectorySearch, COMDAT
; _this$ = ecx

; 845  : {

  00000	55		 push	 ebp
  00001	8b ec		 mov	 ebp, esp
  00003	6a ff		 push	 -1
  00005	68 00 00 00 00	 push	 __ehhandler$?DirectorySearch@CSTLoadManager@@IAEHPBD0H@Z
  0000a	64 a1 00 00 00
	00		 mov	 eax, DWORD PTR fs:0
  00010	50		 push	 eax
  00011	81 ec 50 02 00
	00		 sub	 esp, 592		; 00000250H
  00017	a1 00 00 00 00	 mov	 eax, DWORD PTR ___security_cookie
  0001c	33 c5		 xor	 eax, ebp
  0001e	89 45 f0	 mov	 DWORD PTR __$ArrayPad$[ebp], eax
  00021	53		 push	 ebx
  00022	56		 push	 esi
  00023	57		 push	 edi
  00024	50		 push	 eax
  00025	8d 45 f4	 lea	 eax, DWORD PTR __$EHRec$[ebp]
  00028	64 a3 00 00 00
	00		 mov	 DWORD PTR fs:0, eax
  0002e	8b f9		 mov	 edi, ecx
  00030	8b 4d 0c	 mov	 ecx, DWORD PTR _pszExt$[ebp]
  00033	8b 45 08	 mov	 eax, DWORD PTR _pszStartDir$[ebp]

; 846  : 	char aFile[MAX_PATH];
; 847  : 	sprintf(aFile, "%s\\%s", pszStartDir, pszExt);

  00036	51		 push	 ecx
  00037	50		 push	 eax
  00038	89 85 d8 fd ff
	ff		 mov	 DWORD PTR _pszStartDir$GSCopy$1$[ebp], eax
  0003e	8d 85 e8 fd ff
	ff		 lea	 eax, DWORD PTR _aFile$[ebp]
  00044	68 00 00 00 00	 push	 OFFSET ??_C@_05BMGBEOOC@?$CFs?2?$CFs@
  00049	50		 push	 eax
  0004a	89 8d c4 fd ff
	ff		 mov	 DWORD PTR _pszExt$GSCopy$1$[ebp], ecx
  00050	e8 00 00 00 00	 call	 _sprintf
  00055	83 c4 10	 add	 esp, 16			; 00000010H

; 848  : 
; 849  : 	CString strComponent;

  00058	8d 8d e0 fd ff
	ff		 lea	 ecx, DWORD PTR _strComponent$[ebp]
  0005e	ff 15 00 00 00
	00		 call	 DWORD PTR __imp_??0?$CStringT@DV?$StrTraitMFC_DLL@DV?$ChTraitsCRT@D@ATL@@@@@ATL@@QAE@XZ

; 850  : 	CFileFind finder;

  00064	8d 8d a4 fd ff
	ff		 lea	 ecx, DWORD PTR _finder$[ebp]
  0006a	c7 45 fc 00 00
	00 00		 mov	 DWORD PTR __$EHRec$[ebp+8], 0
  00071	e8 00 00 00 00	 call	 ??0CFileFind@@QAE@XZ	; CFileFind::CFileFind

; 851  : 	BOOL bWorking = finder.FindFile( aFile );

  00076	6a 00		 push	 0
  00078	8d 85 e8 fd ff
	ff		 lea	 eax, DWORD PTR _aFile$[ebp]
  0007e	c6 45 fc 01	 mov	 BYTE PTR __$EHRec$[ebp+8], 1
  00082	50		 push	 eax
  00083	8d 8d a4 fd ff
	ff		 lea	 ecx, DWORD PTR _finder$[ebp]
  00089	e8 00 00 00 00	 call	 ?FindFile@CFileFind@@UAEHPBDK@Z ; CFileFind::FindFile

; 852  : 	int nCnt = 0;
; 853  : 	//KHD :  Count ..
; 854  : 	CString szOptimizerPath ;

  0008e	8d 8d d4 fd ff
	ff		 lea	 ecx, DWORD PTR _szOptimizerPath$[ebp]
  00094	8b f0		 mov	 esi, eax
  00096	33 db		 xor	 ebx, ebx
  00098	ff 15 00 00 00
	00		 call	 DWORD PTR __imp_??0?$CStringT@DV?$StrTraitMFC_DLL@DV?$ChTraitsCRT@D@ATL@@@@@ATL@@QAE@XZ

; 855  : 	szOptimizerPath.Format("%s\\STData\\VarOptima.cfg",(LPCSTR)AfxGetPctrData(12));

  0009e	6a 0c		 push	 12			; 0000000cH
  000a0	c6 45 fc 02	 mov	 BYTE PTR __$EHRec$[ebp+8], 2
  000a4	e8 00 00 00 00	 call	 ?AfxGetPctrData@@YGJH@Z	; AfxGetPctrData
  000a9	50		 push	 eax
  000aa	8d 85 d4 fd ff
	ff		 lea	 eax, DWORD PTR _szOptimizerPath$[ebp]
  000b0	68 00 00 00 00	 push	 OFFSET ??_C@_0BI@JGCPDNC@?$CFs?2STData?2VarOptima?4cfg@
  000b5	50		 push	 eax
  000b6	ff 15 00 00 00
	00		 call	 DWORD PTR __imp_?Format@?$CStringT@DV?$StrTraitMFC_DLL@DV?$ChTraitsCRT@D@ATL@@@@@ATL@@QAAXPBDZZ
  000bc	83 c4 0c	 add	 esp, 12			; 0000000cH

; 856  : 
; 857  : 	while (bWorking){

  000bf	85 f6		 test	 esi, esi
  000c1	0f 84 1c 02 00
	00		 je	 $LN3@DirectoryS
  000c7	8b 35 00 00 00
	00		 mov	 esi, DWORD PTR __imp_?Format@?$CStringT@DV?$StrTraitMFC_DLL@DV?$ChTraitsCRT@D@ATL@@@@@ATL@@QAAXPBDZZ
  000cd	0f 1f 00	 npad	 3
$LL2@DirectoryS:

; 858  : 		bWorking = finder.FindNextFile();

  000d0	8d 8d a4 fd ff
	ff		 lea	 ecx, DWORD PTR _finder$[ebp]
  000d6	e8 00 00 00 00	 call	 ?FindNextFileA@CFileFind@@UAEHXZ ; CFileFind::FindNextFileA
  000db	89 85 c0 fd ff
	ff		 mov	 DWORD PTR _bWorking$2$[ebp], eax

; 859  : 		strComponent = finder.GetFileName();		// 

  000e1	8d 8d a4 fd ff
	ff		 lea	 ecx, DWORD PTR _finder$[ebp]
  000e7	8d 85 cc fd ff
	ff		 lea	 eax, DWORD PTR $T3[ebp]
  000ed	50		 push	 eax
  000ee	e8 00 00 00 00	 call	 ?GetFileName@CFileFind@@UBE?AV?$CStringT@DV?$StrTraitMFC_DLL@DV?$ChTraitsCRT@D@ATL@@@@@ATL@@XZ ; CFileFind::GetFileName
  000f3	50		 push	 eax
  000f4	8d 8d e0 fd ff
	ff		 lea	 ecx, DWORD PTR _strComponent$[ebp]
  000fa	c6 45 fc 03	 mov	 BYTE PTR __$EHRec$[ebp+8], 3
  000fe	ff 15 00 00 00
	00		 call	 DWORD PTR __imp_??4?$CStringT@DV?$StrTraitMFC_DLL@DV?$ChTraitsCRT@D@ATL@@@@@ATL@@QAEAAV01@ABV01@@Z
  00104	8d 8d cc fd ff
	ff		 lea	 ecx, DWORD PTR $T3[ebp]
  0010a	c6 45 fc 02	 mov	 BYTE PTR __$EHRec$[ebp+8], 2
  0010e	ff 15 00 00 00
	00		 call	 DWORD PTR __imp_??1?$CStringT@DV?$StrTraitMFC_DLL@DV?$ChTraitsCRT@D@ATL@@@@@ATL@@QAE@XZ
; File C:\Program Files (x86)\Microsoft Visual Studio\2019\Community\VC\Tools\MSVC\14.29.30133\atlmfc\include\afx.inl

; 194  : 	{ return MatchesMask(FILE_ATTRIBUTE_DIRECTORY); }

  00114	8b 85 a4 fd ff
	ff		 mov	 eax, DWORD PTR _finder$[ebp]
  0011a	8d 8d a4 fd ff
	ff		 lea	 ecx, DWORD PTR _finder$[ebp]
  00120	6a 10		 push	 16			; 00000010H
  00122	ff 50 40	 call	 DWORD PTR [eax+64]
; File D:\git\src\IBK\IBK_DRFN\ProjSrc\SrcDrfn\Chart\Common_ST\_STLoadmanager.cpp

; 861  : 		if(!finder.IsDirectory())  {

  00125	85 c0		 test	 eax, eax
  00127	0f 85 f1 00 00
	00		 jne	 $LN4@DirectoryS

; 862  : 			//   .
; 863  : 			//    .
; 864  : 			// ...
; 865  : 			//
; 866  : 			TRACE("CSTLoadManager::DirectorySearch(..) FileInfo => [Dir=%s][FileName=%s]\n", pszStartDir, strComponent);
; 867  : 			if(m_parSTPath->GetSize()==1)//  : KHD 

  0012d	8b 47 08	 mov	 eax, DWORD PTR [edi+8]
  00130	83 78 08 01	 cmp	 DWORD PTR [eax+8], 1
  00134	0f 85 9c 00 00
	00		 jne	 $LN6@DirectoryS

; 868  : 			{
; 869  : 				CString szSection;

  0013a	8d 8d e4 fd ff
	ff		 lea	 ecx, DWORD PTR _szSection$6[ebp]
  00140	ff 15 00 00 00
	00		 call	 DWORD PTR __imp_??0?$CStringT@DV?$StrTraitMFC_DLL@DV?$ChTraitsCRT@D@ATL@@@@@ATL@@QAE@XZ

; 870  : 
; 871  : 				szSection.Format("%s",strComponent);

  00146	ff b5 e0 fd ff
	ff		 push	 DWORD PTR _strComponent$[ebp]
  0014c	8d 85 e4 fd ff
	ff		 lea	 eax, DWORD PTR _szSection$6[ebp]
  00152	c6 45 fc 04	 mov	 BYTE PTR __$EHRec$[ebp+8], 4
  00156	68 00 00 00 00	 push	 OFFSET ??_C@_02DKCKIIND@?$CFs@
  0015b	50		 push	 eax
  0015c	ff d6		 call	 esi
  0015e	83 c4 0c	 add	 esp, 12			; 0000000cH

; 872  : 
; 873  : 				int nFind = szSection.Find(gSTGubunKeys);

  00161	8d 8d e4 fd ff
	ff		 lea	 ecx, DWORD PTR _szSection$6[ebp]
  00167	6a 00		 push	 0
  00169	68 00 00 00 00	 push	 OFFSET ??_C@_01JKBOJNNK@?$FO@
  0016e	ff 15 00 00 00
	00		 call	 DWORD PTR __imp_?Find@?$CStringT@DV?$StrTraitMFC_DLL@DV?$ChTraitsCRT@D@ATL@@@@@ATL@@QBEHPBDH@Z

; 874  : 				if(nFind>0) szSection = szSection.Left(nFind);

  00174	85 c0		 test	 eax, eax
  00176	7e 31		 jle	 SHORT $LN7@DirectoryS
  00178	50		 push	 eax
  00179	8d 85 c8 fd ff
	ff		 lea	 eax, DWORD PTR $T2[ebp]
  0017f	50		 push	 eax
  00180	8d 8d e4 fd ff
	ff		 lea	 ecx, DWORD PTR _szSection$6[ebp]
  00186	ff 15 00 00 00
	00		 call	 DWORD PTR __imp_?Left@?$CStringT@DV?$StrTraitMFC_DLL@DV?$ChTraitsCRT@D@ATL@@@@@ATL@@QBE?AV12@H@Z
  0018c	50		 push	 eax
  0018d	8d 8d e4 fd ff
	ff		 lea	 ecx, DWORD PTR _szSection$6[ebp]
  00193	c6 45 fc 05	 mov	 BYTE PTR __$EHRec$[ebp+8], 5
  00197	ff 15 00 00 00
	00		 call	 DWORD PTR __imp_??4?$CStringT@DV?$StrTraitMFC_DLL@DV?$ChTraitsCRT@D@ATL@@@@@ATL@@QAEAAV01@ABV01@@Z
  0019d	8d 8d c8 fd ff
	ff		 lea	 ecx, DWORD PTR $T2[ebp]
  001a3	ff 15 00 00 00
	00		 call	 DWORD PTR __imp_??1?$CStringT@DV?$StrTraitMFC_DLL@DV?$ChTraitsCRT@D@ATL@@@@@ATL@@QAE@XZ
$LN7@DirectoryS:

; 875  : 				int nCount = ::GetPrivateProfileInt(szSection, "Count", 0, szOptimizerPath);

  001a9	ff b5 d4 fd ff
	ff		 push	 DWORD PTR _szOptimizerPath$[ebp]
  001af	6a 00		 push	 0
  001b1	68 00 00 00 00	 push	 OFFSET ??_C@_05IJGIMMHE@Count@
  001b6	ff b5 e4 fd ff
	ff		 push	 DWORD PTR _szSection$6[ebp]
  001bc	ff 15 00 00 00
	00		 call	 DWORD PTR __imp__GetPrivateProfileIntA@16

; 876  : 				if(nCount==0) continue;

  001c2	8d 8d e4 fd ff
	ff		 lea	 ecx, DWORD PTR _szSection$6[ebp]
  001c8	85 c0		 test	 eax, eax
  001ca	0f 84 fc 00 00
	00		 je	 $LN34@DirectoryS

; 877  : 			}

  001d0	ff 15 00 00 00
	00		 call	 DWORD PTR __imp_??1?$CStringT@DV?$StrTraitMFC_DLL@DV?$ChTraitsCRT@D@ATL@@@@@ATL@@QAE@XZ
$LN6@DirectoryS:

; 878  : 			CString szSTFilePath;

  001d6	8d 8d dc fd ff
	ff		 lea	 ecx, DWORD PTR _szSTFilePath$5[ebp]
  001dc	ff 15 00 00 00
	00		 call	 DWORD PTR __imp_??0?$CStringT@DV?$StrTraitMFC_DLL@DV?$ChTraitsCRT@D@ATL@@@@@ATL@@QAE@XZ

; 879  : 			szSTFilePath.Format(_T("%s\\%s"), pszStartDir, strComponent);

  001e2	ff b5 e0 fd ff
	ff		 push	 DWORD PTR _strComponent$[ebp]
  001e8	8d 85 dc fd ff
	ff		 lea	 eax, DWORD PTR _szSTFilePath$5[ebp]
  001ee	c6 45 fc 06	 mov	 BYTE PTR __$EHRec$[ebp+8], 6
  001f2	ff b5 d8 fd ff
	ff		 push	 DWORD PTR _pszStartDir$GSCopy$1$[ebp]
  001f8	68 00 00 00 00	 push	 OFFSET ??_C@_05BMGBEOOC@?$CFs?2?$CFs@
  001fd	50		 push	 eax
  001fe	ff d6		 call	 esi
  00200	83 c4 10	 add	 esp, 16			; 00000010H

; 880  : 			AddSTFile(szSTFilePath);

  00203	8b cf		 mov	 ecx, edi
  00205	6a 00		 push	 0
  00207	ff b5 dc fd ff
	ff		 push	 DWORD PTR _szSTFilePath$5[ebp]
  0020d	e8 00 00 00 00	 call	 ?AddSTFile@CSTLoadManager@@IAEXPBD0@Z ; CSTLoadManager::AddSTFile

; 881  : 			nCnt++;

  00212	43		 inc	 ebx

; 882  : 		}

  00213	8d 8d dc fd ff
	ff		 lea	 ecx, DWORD PTR _szSTFilePath$5[ebp]
  00219	e9 ae 00 00 00	 jmp	 $LN34@DirectoryS
$LN4@DirectoryS:

; 883  : 		//else if(bSub && strComponent[0]!='.') {
; 884  : 		else if(finder.IsDots()==FALSE && bSub) {

  0021e	8d 8d a4 fd ff
	ff		 lea	 ecx, DWORD PTR _finder$[ebp]
  00224	e8 00 00 00 00	 call	 ?IsDots@CFileFind@@UBEHXZ ; CFileFind::IsDots
  00229	85 c0		 test	 eax, eax
  0022b	0f 85 a5 00 00
	00		 jne	 $LN9@DirectoryS
  00231	39 45 10	 cmp	 DWORD PTR _bSub$[ebp], eax
  00234	0f 84 9c 00 00
	00		 je	 $LN9@DirectoryS

; 885  : 			//    .
; 886  : 			char aSubDir[MAX_PATH]={0,};

  0023a	68 04 01 00 00	 push	 260			; 00000104H
  0023f	50		 push	 eax
  00240	8d 85 ec fe ff
	ff		 lea	 eax, DWORD PTR _aSubDir$7[ebp]
  00246	50		 push	 eax
  00247	e8 00 00 00 00	 call	 _memset

; 887  : 			sprintf(aSubDir, "%s\\%s", pszStartDir, strComponent);

  0024c	ff b5 e0 fd ff
	ff		 push	 DWORD PTR _strComponent$[ebp]
  00252	8d 85 ec fe ff
	ff		 lea	 eax, DWORD PTR _aSubDir$7[ebp]
  00258	ff b5 d8 fd ff
	ff		 push	 DWORD PTR _pszStartDir$GSCopy$1$[ebp]
  0025e	68 00 00 00 00	 push	 OFFSET ??_C@_05BMGBEOOC@?$CFs?2?$CFs@
  00263	50		 push	 eax
  00264	e8 00 00 00 00	 call	 _sprintf
  00269	83 c4 1c	 add	 esp, 28			; 0000001cH

; 888  : 			TRACE("CSTLoadManager::DirectorySearch(..) Directory => %s\n", aSubDir);
; 889  : 			CString szSTFolderPath;

  0026c	8d 8d d0 fd ff
	ff		 lea	 ecx, DWORD PTR _szSTFolderPath$4[ebp]
  00272	ff 15 00 00 00
	00		 call	 DWORD PTR __imp_??0?$CStringT@DV?$StrTraitMFC_DLL@DV?$ChTraitsCRT@D@ATL@@@@@ATL@@QAE@XZ

; 890  : 			szSTFolderPath.Format(_T("%s\\%s"), pszStartDir, strComponent);

  00278	ff b5 e0 fd ff
	ff		 push	 DWORD PTR _strComponent$[ebp]
  0027e	8d 85 d0 fd ff
	ff		 lea	 eax, DWORD PTR _szSTFolderPath$4[ebp]
  00284	c6 45 fc 07	 mov	 BYTE PTR __$EHRec$[ebp+8], 7
  00288	ff b5 d8 fd ff
	ff		 push	 DWORD PTR _pszStartDir$GSCopy$1$[ebp]
  0028e	68 00 00 00 00	 push	 OFFSET ??_C@_05BMGBEOOC@?$CFs?2?$CFs@
  00293	50		 push	 eax
  00294	ff d6		 call	 esi
  00296	83 c4 10	 add	 esp, 16			; 00000010H

; 891  : 			AddFolder(aSubDir, strComponent);

  00299	8d 85 ec fe ff
	ff		 lea	 eax, DWORD PTR _aSubDir$7[ebp]
  0029f	8b cf		 mov	 ecx, edi
  002a1	ff b5 e0 fd ff
	ff		 push	 DWORD PTR _strComponent$[ebp]
  002a7	50		 push	 eax
  002a8	e8 00 00 00 00	 call	 ?AddFolder@CSTLoadManager@@IAEXPBD0@Z ; CSTLoadManager::AddFolder

; 892  : 			nCnt += DirectorySearch(aSubDir, pszExt, bSub);

  002ad	ff 75 10	 push	 DWORD PTR _bSub$[ebp]
  002b0	8d 85 ec fe ff
	ff		 lea	 eax, DWORD PTR _aSubDir$7[ebp]
  002b6	8b cf		 mov	 ecx, edi
  002b8	ff b5 c4 fd ff
	ff		 push	 DWORD PTR _pszExt$GSCopy$1$[ebp]
  002be	50		 push	 eax
  002bf	e8 00 00 00 00	 call	 ?DirectorySearch@CSTLoadManager@@IAEHPBD0H@Z ; CSTLoadManager::DirectorySearch
  002c4	03 d8		 add	 ebx, eax

; 893  : 		}

  002c6	8d 8d d0 fd ff
	ff		 lea	 ecx, DWORD PTR _szSTFolderPath$4[ebp]
$LN34@DirectoryS:

; 856  : 
; 857  : 	while (bWorking){

  002cc	c6 45 fc 02	 mov	 BYTE PTR __$EHRec$[ebp+8], 2
  002d0	ff 15 00 00 00
	00		 call	 DWORD PTR __imp_??1?$CStringT@DV?$StrTraitMFC_DLL@DV?$ChTraitsCRT@D@ATL@@@@@ATL@@QAE@XZ
$LN9@DirectoryS:
  002d6	83 bd c0 fd ff
	ff 00		 cmp	 DWORD PTR _bWorking$2$[ebp], 0
  002dd	0f 85 ed fd ff
	ff		 jne	 $LL2@DirectoryS
$LN3@DirectoryS:

; 894  : 	}
; 895  : 	return nCnt;

  002e3	8d 8d d4 fd ff
	ff		 lea	 ecx, DWORD PTR _szOptimizerPath$[ebp]
  002e9	ff 15 00 00 00
	00		 call	 DWORD PTR __imp_??1?$CStringT@DV?$StrTraitMFC_DLL@DV?$ChTraitsCRT@D@ATL@@@@@ATL@@QAE@XZ
  002ef	8d 8d a4 fd ff
	ff		 lea	 ecx, DWORD PTR _finder$[ebp]
  002f5	e8 00 00 00 00	 call	 ??1CFileFind@@UAE@XZ	; CFileFind::~CFileFind
  002fa	8d 8d e0 fd ff
	ff		 lea	 ecx, DWORD PTR _strComponent$[ebp]
  00300	ff 15 00 00 00
	00		 call	 DWORD PTR __imp_??1?$CStringT@DV?$StrTraitMFC_DLL@DV?$ChTraitsCRT@D@ATL@@@@@ATL@@QAE@XZ
  00306	8b c3		 mov	 eax, ebx

; 896  : }

  00308	8b 4d f4	 mov	 ecx, DWORD PTR __$EHRec$[ebp]
  0030b	64 89 0d 00 00
	00 00		 mov	 DWORD PTR fs:0, ecx
  00312	59		 pop	 ecx
  00313	5f		 pop	 edi
  00314	5e		 pop	 esi
  00315	5b		 pop	 ebx
  00316	8b 4d f0	 mov	 ecx, DWORD PTR __$ArrayPad$[ebp]
  00319	33 cd		 xor	 ecx, ebp
  0031b	e8 00 00 00 00	 call	 @__security_check_cookie@4
  00320	8b e5		 mov	 esp, ebp
  00322	5d		 pop	 ebp
  00323	c2 0c 00	 ret	 12			; 0000000cH
_TEXT	ENDS
;	COMDAT text$x
text$x	SEGMENT
__unwindfunclet$?DirectorySearch@CSTLoadManager@@IAEHPBD0H@Z$0:
  00000	8d 8d e0 fd ff
	ff		 lea	 ecx, DWORD PTR _strComponent$[ebp]
  00006	ff 25 00 00 00
	00		 jmp	 DWORD PTR __imp_??1?$CStringT@DV?$StrTraitMFC_DLL@DV?$ChTraitsCRT@D@ATL@@@@@ATL@@QAE@XZ
__unwindfunclet$?DirectorySearch@CSTLoadManager@@IAEHPBD0H@Z$1:
  0000c	8d 8d a4 fd ff
	ff		 lea	 ecx, DWORD PTR _finder$[ebp]
  00012	e9 00 00 00 00	 jmp	 ??1CFileFind@@UAE@XZ	; CFileFind::~CFileFind
__unwindfunclet$?DirectorySearch@CSTLoadManager@@IAEHPBD0H@Z$2:
  00017	8d 8d d4 fd ff
	ff		 lea	 ecx, DWORD PTR _szOptimizerPath$[ebp]
  0001d	ff 25 00 00 00
	00		 jmp	 DWORD PTR __imp_??1?$CStringT@DV?$StrTraitMFC_DLL@DV?$ChTraitsCRT@D@ATL@@@@@ATL@@QAE@XZ
__unwindfunclet$?DirectorySearch@CSTLoadManager@@IAEHPBD0H@Z$3:
  00023	8d 8d cc fd ff
	ff		 lea	 ecx, DWORD PTR $T3[ebp]
  00029	ff 25 00 00 00
	00		 jmp	 DWORD PTR __imp_??1?$CStringT@DV?$StrTraitMFC_DLL@DV?$ChTraitsCRT@D@ATL@@@@@ATL@@QAE@XZ
__unwindfunclet$?DirectorySearch@CSTLoadManager@@IAEHPBD0H@Z$4:
  0002f	8d 8d e4 fd ff
	ff		 lea	 ecx, DWORD PTR _szSection$6[ebp]
  00035	ff 25 00 00 00
	00		 jmp	 DWORD PTR __imp_??1?$CStringT@DV?$StrTraitMFC_DLL@DV?$ChTraitsCRT@D@ATL@@@@@ATL@@QAE@XZ
__unwindfunclet$?DirectorySearch@CSTLoadManager@@IAEHPBD0H@Z$5:
  0003b	8d 8d c8 fd ff
	ff		 lea	 ecx, DWORD PTR $T2[ebp]
  00041	ff 25 00 00 00
	00		 jmp	 DWORD PTR __imp_??1?$CStringT@DV?$StrTraitMFC_DLL@DV?$ChTraitsCRT@D@ATL@@@@@ATL@@QAE@XZ
__unwindfunclet$?DirectorySearch@CSTLoadManager@@IAEHPBD0H@Z$6:
  00047	8d 8d dc fd ff
	ff		 lea	 ecx, DWORD PTR _szSTFilePath$5[ebp]
  0004d	ff 25 00 00 00
	00		 jmp	 DWORD PTR __imp_??1?$CStringT@DV?$StrTraitMFC_DLL@DV?$ChTraitsCRT@D@ATL@@@@@ATL@@QAE@XZ
__unwindfunclet$?DirectorySearch@CSTLoadManager@@IAEHPBD0H@Z$7:
  00053	8d 8d d0 fd ff
	ff		 lea	 ecx, DWORD PTR _szSTFolderPath$4[ebp]
  00059	ff 25 00 00 00
	00		 jmp	 DWORD PTR __imp_??1?$CStringT@DV?$StrTraitMFC_DLL@DV?$ChTraitsCRT@D@ATL@@@@@ATL@@QAE@XZ
  0005f	cc		 int	 3
  00060	cc		 int	 3
  00061	cc		 int	 3
  00062	cc		 int	 3
  00063	cc		 int	 3
__ehhandler$?DirectorySearch@CSTLoadManager@@IAEHPBD0H@Z:
  00064	90		 npad	 1
  00065	90		 npad	 1
  00066	8b 54 24 08	 mov	 edx, DWORD PTR [esp+8]
  0006a	8d 42 0c	 lea	 eax, DWORD PTR [edx+12]
  0006d	8b 8a a0 fd ff
	ff		 mov	 ecx, DWORD PTR [edx-608]
  00073	33 c8		 xor	 ecx, eax
  00075	e8 00 00 00 00	 call	 @__security_check_cookie@4
  0007a	8b 4a fc	 mov	 ecx, DWORD PTR [edx-4]
  0007d	33 c8		 xor	 ecx, eax
  0007f	e8 00 00 00 00	 call	 @__security_check_cookie@4
  00084	b8 00 00 00 00	 mov	 eax, OFFSET __ehfuncinfo$?DirectorySearch@CSTLoadManager@@IAEHPBD0H@Z
  00089	e9 00 00 00 00	 jmp	 ___CxxFrameHandler3
text$x	ENDS
?DirectorySearch@CSTLoadManager@@IAEHPBD0H@Z ENDP	; CSTLoadManager::DirectorySearch
; Function compile flags: /Ogtp
; File D:\git\src\IBK\IBK_DRFN\ProjSrc\SrcDrfn\Chart\Common_ST\_STLoadmanager.cpp
;	COMDAT ?GetFolderIndexFromFolderName@CSTLoadManager@@IAEHV?$CStringT@DV?$StrTraitMFC_DLL@DV?$ChTraitsCRT@D@ATL@@@@@ATL@@@Z
_TEXT	SEGMENT
_nFolderIndx$1$ = -16					; size = 4
__$EHRec$ = -12						; size = 12
_szFolderName$ = 8					; size = 4
?GetFolderIndexFromFolderName@CSTLoadManager@@IAEHV?$CStringT@DV?$StrTraitMFC_DLL@DV?$ChTraitsCRT@D@ATL@@@@@ATL@@@Z PROC ; CSTLoadManager::GetFolderIndexFromFolderName, COMDAT
; _this$ = ecx

; 267  : {

  00000	55		 push	 ebp
  00001	8b ec		 mov	 ebp, esp
  00003	6a ff		 push	 -1
  00005	68 00 00 00 00	 push	 __ehhandler$?GetFolderIndexFromFolderName@CSTLoadManager@@IAEHV?$CStringT@DV?$StrTraitMFC_DLL@DV?$ChTraitsCRT@D@ATL@@@@@ATL@@@Z
  0000a	64 a1 00 00 00
	00		 mov	 eax, DWORD PTR fs:0
  00010	50		 push	 eax
  00011	51		 push	 ecx
  00012	53		 push	 ebx
  00013	56		 push	 esi
  00014	57		 push	 edi
  00015	a1 00 00 00 00	 mov	 eax, DWORD PTR ___security_cookie
  0001a	33 c5		 xor	 eax, ebp
  0001c	50		 push	 eax
  0001d	8d 45 f4	 lea	 eax, DWORD PTR __$EHRec$[ebp]
  00020	64 a3 00 00 00
	00		 mov	 DWORD PTR fs:0, eax
  00026	8b d9		 mov	 ebx, ecx

; 268  : 	CSTListCtrl* pSTListCtrl = NULL;
; 269  : 	int nFolderIndx = -1;
; 270  : 	int nFolderCount = m_pOutBarCtrl->GetFolderCount();

  00028	8b 4b 04	 mov	 ecx, DWORD PTR [ebx+4]
  0002b	c7 45 fc 00 00
	00 00		 mov	 DWORD PTR __$EHRec$[ebp+8], 0
  00032	c7 45 f0 ff ff
	ff ff		 mov	 DWORD PTR _nFolderIndx$1$[ebp], -1
  00039	e8 00 00 00 00	 call	 ?GetFolderCount@CSTGfxOutBarCtrl@@QBEHXZ ; CSTGfxOutBarCtrl::GetFolderCount
  0003e	8b f8		 mov	 edi, eax

; 271  : 
; 272  : 	for(int nFIndx = 0; nFIndx < nFolderCount; ++nFIndx)

  00040	33 f6		 xor	 esi, esi
  00042	85 ff		 test	 edi, edi
  00044	7e 2a		 jle	 SHORT $LN16@GetFolderI
$LL4@GetFolderI:

; 273  : 	{
; 274  : 		if(pSTListCtrl = (CSTListCtrl*)m_pOutBarCtrl->GetFolderChild(nFIndx))

  00046	8b 4b 04	 mov	 ecx, DWORD PTR [ebx+4]
  00049	56		 push	 esi
  0004a	e8 00 00 00 00	 call	 ?GetFolderChild@CSTGfxOutBarCtrl@@QAEPAVCWnd@@H@Z ; CSTGfxOutBarCtrl::GetFolderChild
  0004f	85 c0		 test	 eax, eax
  00051	74 13		 je	 SHORT $LN2@GetFolderI

; 275  : 		{
; 276  : 			if(szFolderName.Compare(pSTListCtrl->m_szFolderName) == 0)

  00053	ff b0 80 00 00
	00		 push	 DWORD PTR [eax+128]
  00059	8d 4d 08	 lea	 ecx, DWORD PTR _szFolderName$[ebp]
  0005c	ff 15 00 00 00
	00		 call	 DWORD PTR __imp_?Compare@?$CStringT@DV?$StrTraitMFC_DLL@DV?$ChTraitsCRT@D@ATL@@@@@ATL@@QBEHPBD@Z
  00062	85 c0		 test	 eax, eax
  00064	74 07		 je	 SHORT $LN12@GetFolderI
$LN2@GetFolderI:

; 271  : 
; 272  : 	for(int nFIndx = 0; nFIndx < nFolderCount; ++nFIndx)

  00066	46		 inc	 esi
  00067	3b f7		 cmp	 esi, edi
  00069	7c db		 jl	 SHORT $LL4@GetFolderI
  0006b	eb 03		 jmp	 SHORT $LN16@GetFolderI
$LN12@GetFolderI:

; 277  : 			{
; 278  : 				nFolderIndx = nFIndx;

  0006d	89 75 f0	 mov	 DWORD PTR _nFolderIndx$1$[ebp], esi
$LN16@GetFolderI:

; 279  : 				break;
; 280  : 			}
; 281  : 		}
; 282  : 	}
; 283  : 
; 284  : 	return nFolderIndx;

  00070	8d 4d 08	 lea	 ecx, DWORD PTR _szFolderName$[ebp]
  00073	ff 15 00 00 00
	00		 call	 DWORD PTR __imp_??1?$CStringT@DV?$StrTraitMFC_DLL@DV?$ChTraitsCRT@D@ATL@@@@@ATL@@QAE@XZ
  00079	8b 45 f0	 mov	 eax, DWORD PTR _nFolderIndx$1$[ebp]

; 285  : }

  0007c	8b 4d f4	 mov	 ecx, DWORD PTR __$EHRec$[ebp]
  0007f	64 89 0d 00 00
	00 00		 mov	 DWORD PTR fs:0, ecx
  00086	59		 pop	 ecx
  00087	5f		 pop	 edi
  00088	5e		 pop	 esi
  00089	5b		 pop	 ebx
  0008a	8b e5		 mov	 esp, ebp
  0008c	5d		 pop	 ebp
  0008d	c2 04 00	 ret	 4
_TEXT	ENDS
;	COMDAT text$x
text$x	SEGMENT
__unwindfunclet$?GetFolderIndexFromFolderName@CSTLoadManager@@IAEHV?$CStringT@DV?$StrTraitMFC_DLL@DV?$ChTraitsCRT@D@ATL@@@@@ATL@@@Z$0:
  00000	8d 4d 08	 lea	 ecx, DWORD PTR _szFolderName$[ebp]
  00003	ff 25 00 00 00
	00		 jmp	 DWORD PTR __imp_??1?$CStringT@DV?$StrTraitMFC_DLL@DV?$ChTraitsCRT@D@ATL@@@@@ATL@@QAE@XZ
  00009	cc		 int	 3
  0000a	cc		 int	 3
  0000b	cc		 int	 3
  0000c	cc		 int	 3
  0000d	cc		 int	 3
__ehhandler$?GetFolderIndexFromFolderName@CSTLoadManager@@IAEHV?$CStringT@DV?$StrTraitMFC_DLL@DV?$ChTraitsCRT@D@ATL@@@@@ATL@@@Z:
  0000e	90		 npad	 1
  0000f	90		 npad	 1
  00010	8b 54 24 08	 mov	 edx, DWORD PTR [esp+8]
  00014	8d 42 0c	 lea	 eax, DWORD PTR [edx+12]
  00017	8b 4a ec	 mov	 ecx, DWORD PTR [edx-20]
  0001a	33 c8		 xor	 ecx, eax
  0001c	e8 00 00 00 00	 call	 @__security_check_cookie@4
  00021	b8 00 00 00 00	 mov	 eax, OFFSET __ehfuncinfo$?GetFolderIndexFromFolderName@CSTLoadManager@@IAEHV?$CStringT@DV?$StrTraitMFC_DLL@DV?$ChTraitsCRT@D@ATL@@@@@ATL@@@Z
  00026	e9 00 00 00 00	 jmp	 ___CxxFrameHandler3
text$x	ENDS
?GetFolderIndexFromFolderName@CSTLoadManager@@IAEHV?$CStringT@DV?$StrTraitMFC_DLL@DV?$ChTraitsCRT@D@ATL@@@@@ATL@@@Z ENDP ; CSTLoadManager::GetFolderIndexFromFolderName
; Function compile flags: /Ogtp
; File D:\git\src\IBK\IBK_DRFN\ProjSrc\SrcDrfn\Chart\Common_ST\_STLoadmanager.cpp
; File C:\Program Files (x86)\Microsoft Visual Studio\2019\Community\VC\Tools\MSVC\14.29.30133\atlmfc\include\atlsimpstr.h
; File D:\git\src\IBK\IBK_DRFN\ProjSrc\SrcDrfn\Chart\Common_ST\_STLoadmanager.cpp
;	COMDAT ?GetFolderName@CSTLoadManager@@IAEXV?$CStringT@DV?$StrTraitMFC_DLL@DV?$ChTraitsCRT@D@ATL@@@@@ATL@@AAV23@@Z
_TEXT	SEGMENT
$T2 = -16						; size = 4
__$EHRec$ = -12						; size = 12
_szPath$ = 8						; size = 4
_szSTFolder$ = 12					; size = 4
?GetFolderName@CSTLoadManager@@IAEXV?$CStringT@DV?$StrTraitMFC_DLL@DV?$ChTraitsCRT@D@ATL@@@@@ATL@@AAV23@@Z PROC ; CSTLoadManager::GetFolderName, COMDAT
; _this$ = ecx

; 705  : {

  00000	55		 push	 ebp
  00001	8b ec		 mov	 ebp, esp
  00003	6a ff		 push	 -1
  00005	68 00 00 00 00	 push	 __ehhandler$?GetFolderName@CSTLoadManager@@IAEXV?$CStringT@DV?$StrTraitMFC_DLL@DV?$ChTraitsCRT@D@ATL@@@@@ATL@@AAV23@@Z
  0000a	64 a1 00 00 00
	00		 mov	 eax, DWORD PTR fs:0
  00010	50		 push	 eax
  00011	51		 push	 ecx
  00012	a1 00 00 00 00	 mov	 eax, DWORD PTR ___security_cookie
  00017	33 c5		 xor	 eax, ebp
  00019	50		 push	 eax
  0001a	8d 45 f4	 lea	 eax, DWORD PTR __$EHRec$[ebp]
  0001d	64 a3 00 00 00
	00		 mov	 DWORD PTR fs:0, eax

; 706  : 	szSTFolder.Empty();

  00023	8b 4d 0c	 mov	 ecx, DWORD PTR _szSTFolder$[ebp]
  00026	c7 45 fc 00 00
	00 00		 mov	 DWORD PTR __$EHRec$[ebp+8], 0
  0002d	ff 15 00 00 00
	00		 call	 DWORD PTR __imp_?Empty@?$CSimpleStringT@D$00@ATL@@QAEXXZ
; File C:\Program Files (x86)\Microsoft Visual Studio\2019\Community\VC\Tools\MSVC\14.29.30133\atlmfc\include\atlsimpstr.h

; 519  : 		return( GetData()->nDataLength );

  00033	8b 45 08	 mov	 eax, DWORD PTR _szPath$[ebp]

; 533  : 		return( GetLength() == 0 );

  00036	83 78 f4 00	 cmp	 DWORD PTR [eax-12], 0
; File D:\git\src\IBK\IBK_DRFN\ProjSrc\SrcDrfn\Chart\Common_ST\_STLoadmanager.cpp

; 707  : 	if(szPath.IsEmpty())

  0003a	74 31		 je	 SHORT $LN6@GetFolderN

; 708  : 		return;
; 709  : 
; 710  : 	//   
; 711  : 	int nLastSlashPos = szPath.ReverseFind('\\');

  0003c	6a 5c		 push	 92			; 0000005cH
  0003e	8d 4d 08	 lea	 ecx, DWORD PTR _szPath$[ebp]
  00041	ff 15 00 00 00
	00		 call	 DWORD PTR __imp_?ReverseFind@?$CStringT@DV?$StrTraitMFC_DLL@DV?$ChTraitsCRT@D@ATL@@@@@ATL@@QBEHD@Z

; 712  : 	szSTFolder = szPath.Mid(nLastSlashPos + 1);

  00047	40		 inc	 eax
  00048	8d 4d 08	 lea	 ecx, DWORD PTR _szPath$[ebp]
  0004b	50		 push	 eax
  0004c	8d 45 f0	 lea	 eax, DWORD PTR $T2[ebp]
  0004f	50		 push	 eax
  00050	ff 15 00 00 00
	00		 call	 DWORD PTR __imp_?Mid@?$CStringT@DV?$StrTraitMFC_DLL@DV?$ChTraitsCRT@D@ATL@@@@@ATL@@QBE?AV12@H@Z
  00056	8b 4d 0c	 mov	 ecx, DWORD PTR _szSTFolder$[ebp]
  00059	50		 push	 eax
  0005a	c6 45 fc 01	 mov	 BYTE PTR __$EHRec$[ebp+8], 1
  0005e	ff 15 00 00 00
	00		 call	 DWORD PTR __imp_??4?$CStringT@DV?$StrTraitMFC_DLL@DV?$ChTraitsCRT@D@ATL@@@@@ATL@@QAEAAV01@ABV01@@Z
  00064	8d 4d f0	 lea	 ecx, DWORD PTR $T2[ebp]
  00067	ff 15 00 00 00
	00		 call	 DWORD PTR __imp_??1?$CStringT@DV?$StrTraitMFC_DLL@DV?$ChTraitsCRT@D@ATL@@@@@ATL@@QAE@XZ
$LN6@GetFolderN:

; 713  : }

  0006d	8d 4d 08	 lea	 ecx, DWORD PTR _szPath$[ebp]
  00070	ff 15 00 00 00
	00		 call	 DWORD PTR __imp_??1?$CStringT@DV?$StrTraitMFC_DLL@DV?$ChTraitsCRT@D@ATL@@@@@ATL@@QAE@XZ
  00076	8b 4d f4	 mov	 ecx, DWORD PTR __$EHRec$[ebp]
  00079	64 89 0d 00 00
	00 00		 mov	 DWORD PTR fs:0, ecx
  00080	59		 pop	 ecx
  00081	8b e5		 mov	 esp, ebp
  00083	5d		 pop	 ebp
  00084	c2 08 00	 ret	 8
_TEXT	ENDS
;	COMDAT text$x
text$x	SEGMENT
__unwindfunclet$?GetFolderName@CSTLoadManager@@IAEXV?$CStringT@DV?$StrTraitMFC_DLL@DV?$ChTraitsCRT@D@ATL@@@@@ATL@@AAV23@@Z$0:
  00000	8d 4d 08	 lea	 ecx, DWORD PTR _szPath$[ebp]
  00003	ff 25 00 00 00
	00		 jmp	 DWORD PTR __imp_??1?$CStringT@DV?$StrTraitMFC_DLL@DV?$ChTraitsCRT@D@ATL@@@@@ATL@@QAE@XZ
__unwindfunclet$?GetFolderName@CSTLoadManager@@IAEXV?$CStringT@DV?$StrTraitMFC_DLL@DV?$ChTraitsCRT@D@ATL@@@@@ATL@@AAV23@@Z$1:
  00009	8d 4d f0	 lea	 ecx, DWORD PTR $T2[ebp]
  0000c	ff 25 00 00 00
	00		 jmp	 DWORD PTR __imp_??1?$CStringT@DV?$StrTraitMFC_DLL@DV?$ChTraitsCRT@D@ATL@@@@@ATL@@QAE@XZ
  00012	cc		 int	 3
  00013	cc		 int	 3
  00014	cc		 int	 3
  00015	cc		 int	 3
  00016	cc		 int	 3
__ehhandler$?GetFolderName@CSTLoadManager@@IAEXV?$CStringT@DV?$StrTraitMFC_DLL@DV?$ChTraitsCRT@D@ATL@@@@@ATL@@AAV23@@Z:
  00017	90		 npad	 1
  00018	90		 npad	 1
  00019	8b 54 24 08	 mov	 edx, DWORD PTR [esp+8]
  0001d	8d 42 0c	 lea	 eax, DWORD PTR [edx+12]
  00020	8b 4a f8	 mov	 ecx, DWORD PTR [edx-8]
  00023	33 c8		 xor	 ecx, eax
  00025	e8 00 00 00 00	 call	 @__security_check_cookie@4
  0002a	b8 00 00 00 00	 mov	 eax, OFFSET __ehfuncinfo$?GetFolderName@CSTLoadManager@@IAEXV?$CStringT@DV?$StrTraitMFC_DLL@DV?$ChTraitsCRT@D@ATL@@@@@ATL@@AAV23@@Z
  0002f	e9 00 00 00 00	 jmp	 ___CxxFrameHandler3
text$x	ENDS
?GetFolderName@CSTLoadManager@@IAEXV?$CStringT@DV?$StrTraitMFC_DLL@DV?$ChTraitsCRT@D@ATL@@@@@ATL@@AAV23@@Z ENDP ; CSTLoadManager::GetFolderName
; Function compile flags: /Ogtp
; File D:\git\src\IBK\IBK_DRFN\ProjSrc\SrcDrfn\Chart\Common_ST\_STLoadmanager.cpp
; File C:\Program Files (x86)\Microsoft Visual Studio\2019\Community\VC\Tools\MSVC\14.29.30133\atlmfc\include\atlsimpstr.h
; File D:\git\src\IBK\IBK_DRFN\ProjSrc\SrcDrfn\Chart\Common_ST\_STLoadmanager.cpp
; File C:\Program Files (x86)\Microsoft Visual Studio\2019\Community\VC\Tools\MSVC\14.29.30133\atlmfc\include\atlsimpstr.h
; File D:\git\src\IBK\IBK_DRFN\ProjSrc\SrcDrfn\Chart\Common_ST\_STLoadmanager.cpp
; File C:\Program Files (x86)\Microsoft Visual Studio\2019\Community\VC\Tools\MSVC\14.29.30133\atlmfc\include\atlsimpstr.h
; File D:\git\src\IBK\IBK_DRFN\ProjSrc\SrcDrfn\Chart\Common_ST\_STLoadmanager.cpp
; File C:\Program Files (x86)\Microsoft Visual Studio\2019\Community\VC\Tools\MSVC\14.29.30133\atlmfc\include\atlsimpstr.h
; File D:\git\src\IBK\IBK_DRFN\ProjSrc\SrcDrfn\Chart\Common_ST\_STLoadmanager.cpp
; File C:\Program Files (x86)\Microsoft Visual Studio\2019\Community\VC\Tools\MSVC\14.29.30133\atlmfc\include\atlsimpstr.h
; File C:\Program Files (x86)\Microsoft Visual Studio\2019\Community\VC\Tools\MSVC\14.29.30133\atlmfc\include\afxcmn.inl
; File D:\git\src\IBK\IBK_DRFN\ProjSrc\SrcDrfn\Chart\Common_ST\_STLoadmanager.cpp
; File C:\Program Files (x86)\Microsoft Visual Studio\2019\Community\VC\Tools\MSVC\14.29.30133\atlmfc\include\afxcmn.inl
; File D:\git\src\IBK\IBK_DRFN\ProjSrc\SrcDrfn\Chart\Common_ST\_STLoadmanager.cpp
; File C:\Program Files (x86)\Microsoft Visual Studio\2019\Community\VC\Tools\MSVC\14.29.30133\atlmfc\include\afxcmn.inl
; File D:\git\src\IBK\IBK_DRFN\ProjSrc\SrcDrfn\Chart\Common_ST\_STLoadmanager.cpp
;	COMDAT ?AddSTFile@CSTLoadManager@@IAEXPBD0@Z
_TEXT	SEGMENT
_nFolderCount$1$ = -40					; size = 4
$T2 = -36						; size = 4
$T3 = -36						; size = 4
_nPosFileTitle$1$ = -32					; size = 4
_szExt$4 = -28						; size = 4
_szSTType$5 = -24					; size = 4
_szFolderName$6 = -20					; size = 4
_szPath$7 = -16						; size = 4
__$EHRec$ = -12						; size = 12
_szFileTitle$8 = 8					; size = 4
_szSTFilePath$ = 8					; size = 4
$T9 = 12						; size = 4
$T10 = 12						; size = 4
$T11 = 12						; size = 4
_p_szShowName$ = 12					; size = 4
?AddSTFile@CSTLoadManager@@IAEXPBD0@Z PROC		; CSTLoadManager::AddSTFile, COMDAT
; _this$ = ecx

; 763  : {

  00000	55		 push	 ebp
  00001	8b ec		 mov	 ebp, esp
  00003	6a ff		 push	 -1
  00005	68 00 00 00 00	 push	 __ehhandler$?AddSTFile@CSTLoadManager@@IAEXPBD0@Z
  0000a	64 a1 00 00 00
	00		 mov	 eax, DWORD PTR fs:0
  00010	50		 push	 eax
  00011	83 ec 1c	 sub	 esp, 28			; 0000001cH
  00014	53		 push	 ebx
  00015	56		 push	 esi
  00016	57		 push	 edi
  00017	a1 00 00 00 00	 mov	 eax, DWORD PTR ___security_cookie
  0001c	33 c5		 xor	 eax, ebp
  0001e	50		 push	 eax
  0001f	8d 45 f4	 lea	 eax, DWORD PTR __$EHRec$[ebp]
  00022	64 a3 00 00 00
	00		 mov	 DWORD PTR fs:0, eax
  00028	8b d9		 mov	 ebx, ecx

; 764  : 	int nFolderCount = m_pOutBarCtrl->GetFolderCount();

  0002a	8b 4b 04	 mov	 ecx, DWORD PTR [ebx+4]
  0002d	e8 00 00 00 00	 call	 ?GetFolderCount@CSTGfxOutBarCtrl@@QBEHXZ ; CSTGfxOutBarCtrl::GetFolderCount
  00032	8b f8		 mov	 edi, eax
  00034	89 7d d8	 mov	 DWORD PTR _nFolderCount$1$[ebp], edi

; 765  : 	
; 766  : 	if(nFolderCount > 0) {

  00037	85 ff		 test	 edi, edi
  00039	0f 8e 6e 02 00
	00		 jle	 $LN5@AddSTFile

; 767  : 
; 768  : 
; 769  : 		CString szPath(szSTFilePath);

  0003f	ff 75 08	 push	 DWORD PTR _szSTFilePath$[ebp]
  00042	8d 4d f0	 lea	 ecx, DWORD PTR _szPath$7[ebp]
  00045	ff 15 00 00 00
	00		 call	 DWORD PTR __imp_??0?$CStringT@DV?$StrTraitMFC_DLL@DV?$ChTraitsCRT@D@ATL@@@@@ATL@@QAE@PBD@Z

; 770  : 		CString szExt;

  0004b	8d 4d e4	 lea	 ecx, DWORD PTR _szExt$4[ebp]
  0004e	c7 45 fc 00 00
	00 00		 mov	 DWORD PTR __$EHRec$[ebp+8], 0
  00055	ff 15 00 00 00
	00		 call	 DWORD PTR __imp_??0?$CStringT@DV?$StrTraitMFC_DLL@DV?$ChTraitsCRT@D@ATL@@@@@ATL@@QAE@XZ

; 771  : 		int nPosExt = szPath.ReverseFind('.');

  0005b	6a 2e		 push	 46			; 0000002eH
  0005d	8d 4d f0	 lea	 ecx, DWORD PTR _szPath$7[ebp]
  00060	c6 45 fc 01	 mov	 BYTE PTR __$EHRec$[ebp+8], 1
  00064	ff 15 00 00 00
	00		 call	 DWORD PTR __imp_?ReverseFind@?$CStringT@DV?$StrTraitMFC_DLL@DV?$ChTraitsCRT@D@ATL@@@@@ATL@@QBEHD@Z

; 772  : 		int nPosFileTitle = szPath.ReverseFind(('\\'));

  0006a	6a 5c		 push	 92			; 0000005cH
  0006c	8d 4d f0	 lea	 ecx, DWORD PTR _szPath$7[ebp]
  0006f	8b f0		 mov	 esi, eax
  00071	ff 15 00 00 00
	00		 call	 DWORD PTR __imp_?ReverseFind@?$CStringT@DV?$StrTraitMFC_DLL@DV?$ChTraitsCRT@D@ATL@@@@@ATL@@QBEHD@Z
  00077	89 45 e0	 mov	 DWORD PTR _nPosFileTitle$1$[ebp], eax

; 773  : 		szExt = szPath.Mid(nPosExt);

  0007a	8d 4d f0	 lea	 ecx, DWORD PTR _szPath$7[ebp]
  0007d	56		 push	 esi
  0007e	8d 45 dc	 lea	 eax, DWORD PTR $T3[ebp]
  00081	50		 push	 eax
  00082	ff 15 00 00 00
	00		 call	 DWORD PTR __imp_?Mid@?$CStringT@DV?$StrTraitMFC_DLL@DV?$ChTraitsCRT@D@ATL@@@@@ATL@@QBE?AV12@H@Z
  00088	50		 push	 eax
  00089	8d 4d e4	 lea	 ecx, DWORD PTR _szExt$4[ebp]
  0008c	c6 45 fc 02	 mov	 BYTE PTR __$EHRec$[ebp+8], 2
  00090	ff 15 00 00 00
	00		 call	 DWORD PTR __imp_??4?$CStringT@DV?$StrTraitMFC_DLL@DV?$ChTraitsCRT@D@ATL@@@@@ATL@@QAEAAV01@ABV01@@Z
  00096	8d 4d dc	 lea	 ecx, DWORD PTR $T3[ebp]
  00099	c6 45 fc 01	 mov	 BYTE PTR __$EHRec$[ebp+8], 1
  0009d	ff 15 00 00 00
	00		 call	 DWORD PTR __imp_??1?$CStringT@DV?$StrTraitMFC_DLL@DV?$ChTraitsCRT@D@ATL@@@@@ATL@@QAE@XZ

; 774  : 
; 775  : 		//   ".ST"   
; 776  : 
; 777  : 		if(szExt.CompareNoCase(".ST"))

  000a3	68 00 00 00 00	 push	 OFFSET ??_C@_03COHLPAFH@?4ST@
  000a8	8d 4d e4	 lea	 ecx, DWORD PTR _szExt$4[ebp]
  000ab	ff 15 00 00 00
	00		 call	 DWORD PTR __imp_?CompareNoCase@?$CStringT@DV?$StrTraitMFC_DLL@DV?$ChTraitsCRT@D@ATL@@@@@ATL@@QBEHPBD@Z
  000b1	85 c0		 test	 eax, eax
  000b3	0f 85 e2 01 00
	00		 jne	 $LN26@AddSTFile

; 778  : 			return;
; 779  : 
; 780  : 		CString szFileTitle;

  000b9	8d 4d 08	 lea	 ecx, DWORD PTR _szFileTitle$8[ebp]
  000bc	ff 15 00 00 00
	00		 call	 DWORD PTR __imp_??0?$CStringT@DV?$StrTraitMFC_DLL@DV?$ChTraitsCRT@D@ATL@@@@@ATL@@QAE@XZ

; 781  : 		if(p_szShowName) 

  000c2	8b 45 0c	 mov	 eax, DWORD PTR _p_szShowName$[ebp]
  000c5	c6 45 fc 03	 mov	 BYTE PTR __$EHRec$[ebp+8], 3
  000c9	85 c0		 test	 eax, eax
  000cb	74 0f		 je	 SHORT $LN7@AddSTFile

; 782  : 		{
; 783  : 			szFileTitle = p_szShowName;

  000cd	50		 push	 eax
  000ce	8d 4d 08	 lea	 ecx, DWORD PTR _szFileTitle$8[ebp]
  000d1	ff 15 00 00 00
	00		 call	 DWORD PTR __imp_??4?$CStringT@DV?$StrTraitMFC_DLL@DV?$ChTraitsCRT@D@ATL@@@@@ATL@@QAEAAV01@PBD@Z

; 784  : 		}

  000d7	8b 75 e0	 mov	 esi, DWORD PTR _nPosFileTitle$1$[ebp]
  000da	eb 5d		 jmp	 SHORT $LN8@AddSTFile
$LN7@AddSTFile:

; 785  : 		else{
; 786  : 			 szFileTitle = szPath.Mid(nPosFileTitle+1);

  000dc	8b 75 e0	 mov	 esi, DWORD PTR _nPosFileTitle$1$[ebp]
  000df	8d 4d f0	 lea	 ecx, DWORD PTR _szPath$7[ebp]
  000e2	8d 46 01	 lea	 eax, DWORD PTR [esi+1]
  000e5	50		 push	 eax
  000e6	8d 45 0c	 lea	 eax, DWORD PTR $T11[ebp]
  000e9	50		 push	 eax
  000ea	ff 15 00 00 00
	00		 call	 DWORD PTR __imp_?Mid@?$CStringT@DV?$StrTraitMFC_DLL@DV?$ChTraitsCRT@D@ATL@@@@@ATL@@QBE?AV12@H@Z
  000f0	50		 push	 eax
  000f1	8d 4d 08	 lea	 ecx, DWORD PTR _szFileTitle$8[ebp]
  000f4	c6 45 fc 04	 mov	 BYTE PTR __$EHRec$[ebp+8], 4
  000f8	ff 15 00 00 00
	00		 call	 DWORD PTR __imp_??4?$CStringT@DV?$StrTraitMFC_DLL@DV?$ChTraitsCRT@D@ATL@@@@@ATL@@QAEAAV01@ABV01@@Z
  000fe	8d 4d 0c	 lea	 ecx, DWORD PTR $T11[ebp]
  00101	c6 45 fc 03	 mov	 BYTE PTR __$EHRec$[ebp+8], 3
  00105	ff 15 00 00 00
	00		 call	 DWORD PTR __imp_??1?$CStringT@DV?$StrTraitMFC_DLL@DV?$ChTraitsCRT@D@ATL@@@@@ATL@@QAE@XZ
; File C:\Program Files (x86)\Microsoft Visual Studio\2019\Community\VC\Tools\MSVC\14.29.30133\atlmfc\include\atlsimpstr.h

; 519  : 		return( GetData()->nDataLength );

  0010b	8b 45 08	 mov	 eax, DWORD PTR _szFileTitle$8[ebp]
; File D:\git\src\IBK\IBK_DRFN\ProjSrc\SrcDrfn\Chart\Common_ST\_STLoadmanager.cpp

; 787  : 			 szFileTitle = szFileTitle.Left(szFileTitle.GetLength()-3);

  0010e	8d 4d 08	 lea	 ecx, DWORD PTR _szFileTitle$8[ebp]
; File C:\Program Files (x86)\Microsoft Visual Studio\2019\Community\VC\Tools\MSVC\14.29.30133\atlmfc\include\atlsimpstr.h

; 519  : 		return( GetData()->nDataLength );

  00111	8b 40 f4	 mov	 eax, DWORD PTR [eax-12]
; File D:\git\src\IBK\IBK_DRFN\ProjSrc\SrcDrfn\Chart\Common_ST\_STLoadmanager.cpp

; 787  : 			 szFileTitle = szFileTitle.Left(szFileTitle.GetLength()-3);

  00114	83 c0 fd	 add	 eax, -3			; fffffffdH
  00117	50		 push	 eax
  00118	8d 45 0c	 lea	 eax, DWORD PTR $T10[ebp]
  0011b	50		 push	 eax
  0011c	ff 15 00 00 00
	00		 call	 DWORD PTR __imp_?Left@?$CStringT@DV?$StrTraitMFC_DLL@DV?$ChTraitsCRT@D@ATL@@@@@ATL@@QBE?AV12@H@Z
  00122	50		 push	 eax
  00123	8d 4d 08	 lea	 ecx, DWORD PTR _szFileTitle$8[ebp]
  00126	c6 45 fc 05	 mov	 BYTE PTR __$EHRec$[ebp+8], 5
  0012a	ff 15 00 00 00
	00		 call	 DWORD PTR __imp_??4?$CStringT@DV?$StrTraitMFC_DLL@DV?$ChTraitsCRT@D@ATL@@@@@ATL@@QAEAAV01@ABV01@@Z
  00130	8d 4d 0c	 lea	 ecx, DWORD PTR $T10[ebp]
  00133	ff 15 00 00 00
	00		 call	 DWORD PTR __imp_??1?$CStringT@DV?$StrTraitMFC_DLL@DV?$ChTraitsCRT@D@ATL@@@@@ATL@@QAE@XZ
$LN8@AddSTFile:

; 788  : 		}
; 789  : 
; 790  : 		CString szFolderName;

  00139	8d 4d ec	 lea	 ecx, DWORD PTR _szFolderName$6[ebp]
  0013c	ff 15 00 00 00
	00		 call	 DWORD PTR __imp_??0?$CStringT@DV?$StrTraitMFC_DLL@DV?$ChTraitsCRT@D@ATL@@@@@ATL@@QAE@XZ

; 791  : 		GetFolderName(szPath.Left(nPosFileTitle), szFolderName);

  00142	56		 push	 esi
  00143	8d 45 0c	 lea	 eax, DWORD PTR $T9[ebp]
  00146	c6 45 fc 06	 mov	 BYTE PTR __$EHRec$[ebp+8], 6
  0014a	50		 push	 eax
  0014b	8d 4d f0	 lea	 ecx, DWORD PTR _szPath$7[ebp]
  0014e	ff 15 00 00 00
	00		 call	 DWORD PTR __imp_?Left@?$CStringT@DV?$StrTraitMFC_DLL@DV?$ChTraitsCRT@D@ATL@@@@@ATL@@QBE?AV12@H@Z

; 706  : 	szSTFolder.Empty();

  00154	8d 4d ec	 lea	 ecx, DWORD PTR _szFolderName$6[ebp]
  00157	c6 45 fc 07	 mov	 BYTE PTR __$EHRec$[ebp+8], 7
  0015b	ff 15 00 00 00
	00		 call	 DWORD PTR __imp_?Empty@?$CSimpleStringT@D$00@ATL@@QAEXXZ
; File C:\Program Files (x86)\Microsoft Visual Studio\2019\Community\VC\Tools\MSVC\14.29.30133\atlmfc\include\atlsimpstr.h

; 519  : 		return( GetData()->nDataLength );

  00161	8b 45 0c	 mov	 eax, DWORD PTR $T9[ebp]
; File D:\git\src\IBK\IBK_DRFN\ProjSrc\SrcDrfn\Chart\Common_ST\_STLoadmanager.cpp

; 707  : 	if(szPath.IsEmpty())

  00164	8d 4d 0c	 lea	 ecx, DWORD PTR $T9[ebp]
; File C:\Program Files (x86)\Microsoft Visual Studio\2019\Community\VC\Tools\MSVC\14.29.30133\atlmfc\include\atlsimpstr.h

; 533  : 		return( GetLength() == 0 );

  00167	83 78 f4 00	 cmp	 DWORD PTR [eax-12], 0
; File D:\git\src\IBK\IBK_DRFN\ProjSrc\SrcDrfn\Chart\Common_ST\_STLoadmanager.cpp

; 707  : 	if(szPath.IsEmpty())

  0016b	74 31		 je	 SHORT $LN72@AddSTFile

; 708  : 		return;
; 709  : 
; 710  : 	//   
; 711  : 	int nLastSlashPos = szPath.ReverseFind('\\');

  0016d	6a 5c		 push	 92			; 0000005cH
  0016f	ff 15 00 00 00
	00		 call	 DWORD PTR __imp_?ReverseFind@?$CStringT@DV?$StrTraitMFC_DLL@DV?$ChTraitsCRT@D@ATL@@@@@ATL@@QBEHD@Z

; 712  : 	szSTFolder = szPath.Mid(nLastSlashPos + 1);

  00175	40		 inc	 eax
  00176	8d 4d 0c	 lea	 ecx, DWORD PTR $T9[ebp]
  00179	50		 push	 eax
  0017a	8d 45 dc	 lea	 eax, DWORD PTR $T2[ebp]
  0017d	50		 push	 eax
  0017e	ff 15 00 00 00
	00		 call	 DWORD PTR __imp_?Mid@?$CStringT@DV?$StrTraitMFC_DLL@DV?$ChTraitsCRT@D@ATL@@@@@ATL@@QBE?AV12@H@Z
  00184	50		 push	 eax
  00185	8d 4d ec	 lea	 ecx, DWORD PTR _szFolderName$6[ebp]
  00188	c6 45 fc 08	 mov	 BYTE PTR __$EHRec$[ebp+8], 8
  0018c	ff 15 00 00 00
	00		 call	 DWORD PTR __imp_??4?$CStringT@DV?$StrTraitMFC_DLL@DV?$ChTraitsCRT@D@ATL@@@@@ATL@@QAEAAV01@ABV01@@Z
  00192	8d 4d dc	 lea	 ecx, DWORD PTR $T2[ebp]
  00195	ff 15 00 00 00
	00		 call	 DWORD PTR __imp_??1?$CStringT@DV?$StrTraitMFC_DLL@DV?$ChTraitsCRT@D@ATL@@@@@ATL@@QAE@XZ

; 713  : }

  0019b	8d 4d 0c	 lea	 ecx, DWORD PTR $T9[ebp]
$LN72@AddSTFile:

; 792  : 
; 793  : 		CString szSTType;

  0019e	ff 15 00 00 00
	00		 call	 DWORD PTR __imp_??1?$CStringT@DV?$StrTraitMFC_DLL@DV?$ChTraitsCRT@D@ATL@@@@@ATL@@QAE@XZ
  001a4	8d 4d e8	 lea	 ecx, DWORD PTR _szSTType$5[ebp]
  001a7	ff 15 00 00 00
	00		 call	 DWORD PTR __imp_??0?$CStringT@DV?$StrTraitMFC_DLL@DV?$ChTraitsCRT@D@ATL@@@@@ATL@@QAE@XZ

; 794  : 		CSTListCtrl* pSTListCtrl = NULL;
; 795  : 		if(IsSTTypeToLoad(szFileTitle, szSTType))

  001ad	8d 45 e8	 lea	 eax, DWORD PTR _szSTType$5[ebp]
  001b0	c6 45 fc 09	 mov	 BYTE PTR __$EHRec$[ebp+8], 9
  001b4	50		 push	 eax
  001b5	8d 45 08	 lea	 eax, DWORD PTR _szFileTitle$8[ebp]
  001b8	8b cb		 mov	 ecx, ebx
  001ba	50		 push	 eax
  001bb	e8 00 00 00 00	 call	 ?IsSTTypeToLoad@CSTLoadManager@@IAEHAAV?$CStringT@DV?$StrTraitMFC_DLL@DV?$ChTraitsCRT@D@ATL@@@@@ATL@@0@Z ; CSTLoadManager::IsSTTypeToLoad
  001c0	85 c0		 test	 eax, eax
  001c2	0f 84 b8 00 00
	00		 je	 $LN15@AddSTFile

; 796  : 		{
; 797  : 			if(m_bSearching)

  001c8	83 7b 24 00	 cmp	 DWORD PTR [ebx+36], 0
  001cc	74 10		 je	 SHORT $LN10@AddSTFile

; 798  : 				pSTListCtrl = (CSTListCtrl*)m_pOutBarCtrl->GetFolderChild(nFolderCount - 1);

  001ce	8b 4b 04	 mov	 ecx, DWORD PTR [ebx+4]
  001d1	8d 47 ff	 lea	 eax, DWORD PTR [edi-1]
  001d4	50		 push	 eax
  001d5	e8 00 00 00 00	 call	 ?GetFolderChild@CSTGfxOutBarCtrl@@QAEPAVCWnd@@H@Z ; CSTGfxOutBarCtrl::GetFolderChild
  001da	8b f8		 mov	 edi, eax
  001dc	eb 26		 jmp	 SHORT $LN65@AddSTFile
$LN10@AddSTFile:

; 799  : 			else
; 800  : 			{
; 801  : 				for(int nIndx = 0; nIndx < nFolderCount; ++nIndx)

  001de	33 f6		 xor	 esi, esi
$LL4@AddSTFile:

; 802  : 				{
; 803  : 					pSTListCtrl = (CSTListCtrl*)m_pOutBarCtrl->GetFolderChild(nIndx);

  001e0	8b 4b 04	 mov	 ecx, DWORD PTR [ebx+4]
  001e3	56		 push	 esi
  001e4	e8 00 00 00 00	 call	 ?GetFolderChild@CSTGfxOutBarCtrl@@QAEPAVCWnd@@H@Z ; CSTGfxOutBarCtrl::GetFolderChild
  001e9	8b f8		 mov	 edi, eax

; 804  : 					if(szFolderName.CompareNoCase(pSTListCtrl->m_szFolderName) == 0)

  001eb	8d 4d ec	 lea	 ecx, DWORD PTR _szFolderName$6[ebp]
  001ee	ff b7 80 00 00
	00		 push	 DWORD PTR [edi+128]
  001f4	ff 15 00 00 00
	00		 call	 DWORD PTR __imp_?CompareNoCase@?$CStringT@DV?$StrTraitMFC_DLL@DV?$ChTraitsCRT@D@ATL@@@@@ATL@@QBEHPBD@Z
  001fa	85 c0		 test	 eax, eax
  001fc	74 06		 je	 SHORT $LN65@AddSTFile

; 799  : 			else
; 800  : 			{
; 801  : 				for(int nIndx = 0; nIndx < nFolderCount; ++nIndx)

  001fe	46		 inc	 esi
  001ff	3b 75 d8	 cmp	 esi, DWORD PTR _nFolderCount$1$[ebp]
  00202	7c dc		 jl	 SHORT $LL4@AddSTFile
$LN65@AddSTFile:

; 805  : 						break;
; 806  : 				}
; 807  : 			}
; 808  : 
; 809  : 			if(pSTListCtrl == NULL)

  00204	85 ff		 test	 edi, edi
  00206	74 78		 je	 SHORT $LN15@AddSTFile
; File C:\Program Files (x86)\Microsoft Visual Studio\2019\Community\VC\Tools\MSVC\14.29.30133\atlmfc\include\atlsimpstr.h

; 377  : 		return( m_pszData );

  00208	8b 75 08	 mov	 esi, DWORD PTR _szFileTitle$8[ebp]
; File C:\Program Files (x86)\Microsoft Visual Studio\2019\Community\VC\Tools\MSVC\14.29.30133\atlmfc\include\afxcmn.inl

; 155  : 	{ ASSERT(::IsWindow(m_hWnd)); return (int) ::SendMessage(m_hWnd, LVM_GETITEMCOUNT, 0, 0L); }

  0020b	8b 1d 00 00 00
	00		 mov	 ebx, DWORD PTR __imp__SendMessageA@16
  00211	6a 00		 push	 0
  00213	6a 00		 push	 0
  00215	68 04 10 00 00	 push	 4100			; 00001004H
  0021a	ff 77 20	 push	 DWORD PTR [edi+32]
  0021d	ff d3		 call	 ebx

; 167  : 	{ ASSERT(::IsWindow(m_hWnd)); return InsertItem(LVIF_TEXT|LVIF_IMAGE, nItem, lpszItem, 0, 0, nImage, 0); }

  0021f	6a 00		 push	 0
  00221	6a 00		 push	 0
  00223	6a 00		 push	 0
  00225	6a 00		 push	 0
  00227	56		 push	 esi
  00228	50		 push	 eax
  00229	6a 03		 push	 3
  0022b	8b cf		 mov	 ecx, edi
  0022d	e8 00 00 00 00	 call	 ?InsertItem@CListCtrl@@QAEHIHPBDIIHJ@Z ; CListCtrl::InsertItem
; File D:\git\src\IBK\IBK_DRFN\ProjSrc\SrcDrfn\Chart\Common_ST\_STLoadmanager.cpp

; 815  : 			if(szSTType.GetLength())

  00232	8b 45 e8	 mov	 eax, DWORD PTR _szSTType$5[ebp]
  00235	83 78 f4 00	 cmp	 DWORD PTR [eax-12], 0
  00239	74 1d		 je	 SHORT $LN14@AddSTFile

; 816  : 			{
; 817  : 				DWORD dwType = (DWORD)atoi(szSTType);

  0023b	50		 push	 eax
  0023c	ff 15 00 00 00
	00		 call	 DWORD PTR __imp__atoi
  00242	83 c4 04	 add	 esp, 4
  00245	8b f0		 mov	 esi, eax
; File C:\Program Files (x86)\Microsoft Visual Studio\2019\Community\VC\Tools\MSVC\14.29.30133\atlmfc\include\afxcmn.inl

; 155  : 	{ ASSERT(::IsWindow(m_hWnd)); return (int) ::SendMessage(m_hWnd, LVM_GETITEMCOUNT, 0, 0L); }

  00247	6a 00		 push	 0
  00249	6a 00		 push	 0
  0024b	68 04 10 00 00	 push	 4100			; 00001004H
  00250	ff 77 20	 push	 DWORD PTR [edi+32]
  00253	ff d3		 call	 ebx

; 161  : 	{ ASSERT(::IsWindow(m_hWnd)); return SetItem(nItem, 0, LVIF_PARAM, NULL, 0, 0, 0, (LPARAM)dwData); }

  00255	56		 push	 esi
; File D:\git\src\IBK\IBK_DRFN\ProjSrc\SrcDrfn\Chart\Common_ST\_STLoadmanager.cpp

; 822  : 			}

  00256	eb 13		 jmp	 SHORT $LN73@AddSTFile
$LN14@AddSTFile:
; File C:\Program Files (x86)\Microsoft Visual Studio\2019\Community\VC\Tools\MSVC\14.29.30133\atlmfc\include\afxcmn.inl

; 155  : 	{ ASSERT(::IsWindow(m_hWnd)); return (int) ::SendMessage(m_hWnd, LVM_GETITEMCOUNT, 0, 0L); }

  00258	6a 00		 push	 0
  0025a	6a 00		 push	 0
  0025c	68 04 10 00 00	 push	 4100			; 00001004H
  00261	ff 77 20	 push	 DWORD PTR [edi+32]
  00264	ff d3		 call	 ebx

; 161  : 	{ ASSERT(::IsWindow(m_hWnd)); return SetItem(nItem, 0, LVIF_PARAM, NULL, 0, 0, 0, (LPARAM)dwData); }

  00266	68 0f 27 00 00	 push	 9999			; 0000270fH
$LN73@AddSTFile:
; File D:\git\src\IBK\IBK_DRFN\ProjSrc\SrcDrfn\Chart\Common_ST\_STLoadmanager.cpp

; 829  : 	}

  0026b	6a 00		 push	 0
  0026d	6a 00		 push	 0
  0026f	6a 00		 push	 0
  00271	6a 00		 push	 0
  00273	6a 04		 push	 4
  00275	6a 00		 push	 0
  00277	48		 dec	 eax
  00278	8b cf		 mov	 ecx, edi
  0027a	50		 push	 eax
  0027b	e8 00 00 00 00	 call	 ?SetItem@CListCtrl@@QAEHHHIPBDHIIJ@Z ; CListCtrl::SetItem
$LN15@AddSTFile:

; 830  : }

  00280	8d 4d e8	 lea	 ecx, DWORD PTR _szSTType$5[ebp]
  00283	ff 15 00 00 00
	00		 call	 DWORD PTR __imp_??1?$CStringT@DV?$StrTraitMFC_DLL@DV?$ChTraitsCRT@D@ATL@@@@@ATL@@QAE@XZ
  00289	8d 4d ec	 lea	 ecx, DWORD PTR _szFolderName$6[ebp]
  0028c	ff 15 00 00 00
	00		 call	 DWORD PTR __imp_??1?$CStringT@DV?$StrTraitMFC_DLL@DV?$ChTraitsCRT@D@ATL@@@@@ATL@@QAE@XZ
  00292	8d 4d 08	 lea	 ecx, DWORD PTR _szFileTitle$8[ebp]
  00295	ff 15 00 00 00
	00		 call	 DWORD PTR __imp_??1?$CStringT@DV?$StrTraitMFC_DLL@DV?$ChTraitsCRT@D@ATL@@@@@ATL@@QAE@XZ
$LN26@AddSTFile:
  0029b	8d 4d e4	 lea	 ecx, DWORD PTR _szExt$4[ebp]
  0029e	ff 15 00 00 00
	00		 call	 DWORD PTR __imp_??1?$CStringT@DV?$StrTraitMFC_DLL@DV?$ChTraitsCRT@D@ATL@@@@@ATL@@QAE@XZ
  002a4	8d 4d f0	 lea	 ecx, DWORD PTR _szPath$7[ebp]
  002a7	ff 15 00 00 00
	00		 call	 DWORD PTR __imp_??1?$CStringT@DV?$StrTraitMFC_DLL@DV?$ChTraitsCRT@D@ATL@@@@@ATL@@QAE@XZ
$LN5@AddSTFile:
  002ad	8b 4d f4	 mov	 ecx, DWORD PTR __$EHRec$[ebp]
  002b0	64 89 0d 00 00
	00 00		 mov	 DWORD PTR fs:0, ecx
  002b7	59		 pop	 ecx
  002b8	5f		 pop	 edi
  002b9	5e		 pop	 esi
  002ba	5b		 pop	 ebx
  002bb	8b e5		 mov	 esp, ebp
  002bd	5d		 pop	 ebp
  002be	c2 08 00	 ret	 8
_TEXT	ENDS
;	COMDAT text$x
text$x	SEGMENT
__unwindfunclet$?AddSTFile@CSTLoadManager@@IAEXPBD0@Z$0:
  00000	8d 4d f0	 lea	 ecx, DWORD PTR _szPath$7[ebp]
  00003	ff 25 00 00 00
	00		 jmp	 DWORD PTR __imp_??1?$CStringT@DV?$StrTraitMFC_DLL@DV?$ChTraitsCRT@D@ATL@@@@@ATL@@QAE@XZ
__unwindfunclet$?AddSTFile@CSTLoadManager@@IAEXPBD0@Z$1:
  00009	8d 4d e4	 lea	 ecx, DWORD PTR _szExt$4[ebp]
  0000c	ff 25 00 00 00
	00		 jmp	 DWORD PTR __imp_??1?$CStringT@DV?$StrTraitMFC_DLL@DV?$ChTraitsCRT@D@ATL@@@@@ATL@@QAE@XZ
__unwindfunclet$?AddSTFile@CSTLoadManager@@IAEXPBD0@Z$2:
  00012	8d 4d dc	 lea	 ecx, DWORD PTR $T3[ebp]
  00015	ff 25 00 00 00
	00		 jmp	 DWORD PTR __imp_??1?$CStringT@DV?$StrTraitMFC_DLL@DV?$ChTraitsCRT@D@ATL@@@@@ATL@@QAE@XZ
__unwindfunclet$?AddSTFile@CSTLoadManager@@IAEXPBD0@Z$3:
  0001b	8d 4d 08	 lea	 ecx, DWORD PTR _szFileTitle$8[ebp]
  0001e	ff 25 00 00 00
	00		 jmp	 DWORD PTR __imp_??1?$CStringT@DV?$StrTraitMFC_DLL@DV?$ChTraitsCRT@D@ATL@@@@@ATL@@QAE@XZ
__unwindfunclet$?AddSTFile@CSTLoadManager@@IAEXPBD0@Z$4:
  00024	8d 4d 0c	 lea	 ecx, DWORD PTR $T11[ebp]
  00027	ff 25 00 00 00
	00		 jmp	 DWORD PTR __imp_??1?$CStringT@DV?$StrTraitMFC_DLL@DV?$ChTraitsCRT@D@ATL@@@@@ATL@@QAE@XZ
__unwindfunclet$?AddSTFile@CSTLoadManager@@IAEXPBD0@Z$5:
  0002d	8d 4d 0c	 lea	 ecx, DWORD PTR $T10[ebp]
  00030	ff 25 00 00 00
	00		 jmp	 DWORD PTR __imp_??1?$CStringT@DV?$StrTraitMFC_DLL@DV?$ChTraitsCRT@D@ATL@@@@@ATL@@QAE@XZ
__unwindfunclet$?AddSTFile@CSTLoadManager@@IAEXPBD0@Z$6:
  00036	8d 4d ec	 lea	 ecx, DWORD PTR _szFolderName$6[ebp]
  00039	ff 25 00 00 00
	00		 jmp	 DWORD PTR __imp_??1?$CStringT@DV?$StrTraitMFC_DLL@DV?$ChTraitsCRT@D@ATL@@@@@ATL@@QAE@XZ
__unwindfunclet$?AddSTFile@CSTLoadManager@@IAEXPBD0@Z$9:
  0003f	8d 4d 0c	 lea	 ecx, DWORD PTR $T9[ebp]
  00042	ff 25 00 00 00
	00		 jmp	 DWORD PTR __imp_??1?$CStringT@DV?$StrTraitMFC_DLL@DV?$ChTraitsCRT@D@ATL@@@@@ATL@@QAE@XZ
__unwindfunclet$?AddSTFile@CSTLoadManager@@IAEXPBD0@Z$10:
  00048	8d 4d dc	 lea	 ecx, DWORD PTR $T2[ebp]
  0004b	ff 25 00 00 00
	00		 jmp	 DWORD PTR __imp_??1?$CStringT@DV?$StrTraitMFC_DLL@DV?$ChTraitsCRT@D@ATL@@@@@ATL@@QAE@XZ
__unwindfunclet$?AddSTFile@CSTLoadManager@@IAEXPBD0@Z$8:
  00051	8d 4d e8	 lea	 ecx, DWORD PTR _szSTType$5[ebp]
  00054	ff 25 00 00 00
	00		 jmp	 DWORD PTR __imp_??1?$CStringT@DV?$StrTraitMFC_DLL@DV?$ChTraitsCRT@D@ATL@@@@@ATL@@QAE@XZ
  0005a	cc		 int	 3
  0005b	cc		 int	 3
  0005c	cc		 int	 3
  0005d	cc		 int	 3
  0005e	cc		 int	 3
__ehhandler$?AddSTFile@CSTLoadManager@@IAEXPBD0@Z:
  0005f	90		 npad	 1
  00060	90		 npad	 1
  00061	8b 54 24 08	 mov	 edx, DWORD PTR [esp+8]
  00065	8d 42 0c	 lea	 eax, DWORD PTR [edx+12]
  00068	8b 4a d4	 mov	 ecx, DWORD PTR [edx-44]
  0006b	33 c8		 xor	 ecx, eax
  0006d	e8 00 00 00 00	 call	 @__security_check_cookie@4
  00072	b8 00 00 00 00	 mov	 eax, OFFSET __ehfuncinfo$?AddSTFile@CSTLoadManager@@IAEXPBD0@Z
  00077	e9 00 00 00 00	 jmp	 ___CxxFrameHandler3
text$x	ENDS
?AddSTFile@CSTLoadManager@@IAEXPBD0@Z ENDP		; CSTLoadManager::AddSTFile
; Function compile flags: /Ogtp
; File D:\git\src\IBK\IBK_DRFN\ProjSrc\SrcDrfn\Chart\Common_ST\_STLoadmanager.cpp
; File C:\Program Files (x86)\Microsoft Visual Studio\2019\Community\VC\Tools\MSVC\14.29.30133\atlmfc\include\afx.inl
; File D:\git\src\IBK\IBK_DRFN\ProjSrc\SrcDrfn\Chart\Common_ST\_STLoadmanager.cpp
; File C:\Program Files (x86)\Microsoft Visual Studio\2019\Community\VC\Tools\MSVC\14.29.30133\atlmfc\include\atltypes.h
; File D:\git\src\IBK\IBK_DRFN\ProjSrc\SrcDrfn\Chart\Common_ST\_STLoadmanager.cpp
; File C:\Program Files (x86)\Microsoft Visual Studio\2019\Community\VC\Tools\MSVC\14.29.30133\atlmfc\include\afxcmn2.inl
; File D:\git\src\IBK\IBK_DRFN\ProjSrc\SrcDrfn\Chart\Common_ST\_STLoadmanager.cpp
; File C:\Program Files (x86)\Microsoft Visual Studio\2019\Community\VC\Tools\MSVC\14.29.30133\atlmfc\include\afxcmn2.inl
; File D:\git\src\IBK\IBK_DRFN\ProjSrc\SrcDrfn\Chart\Common_ST\_STLoadmanager.cpp
; File C:\Program Files (x86)\Microsoft Visual Studio\2019\Community\VC\Tools\MSVC\14.29.30133\atlmfc\include\afxwin1.inl
; File C:\Program Files (x86)\Microsoft Visual Studio\2019\Community\VC\Tools\MSVC\14.29.30133\atlmfc\include\afxcmn.inl
; File D:\git\src\IBK\IBK_DRFN\ProjSrc\SrcDrfn\Chart\Common_ST\_STLoadmanager.cpp
;	COMDAT ?AddFolder@CSTLoadManager@@IAEXPBD0@Z
_TEXT	SEGMENT
$T2 = -48						; size = 4
_szPath$ = -44						; size = 4
_szFolerName$GSCopy$1$ = -40				; size = 4
_szRealFolderName$ = -36				; size = 4
$T3 = -32						; size = 16
__$ArrayPad$ = -16					; size = 4
__$EHRec$ = -12						; size = 12
_szSTFolderPath$ = 8					; size = 4
_szFolerName$ = 12					; size = 4
?AddFolder@CSTLoadManager@@IAEXPBD0@Z PROC		; CSTLoadManager::AddFolder, COMDAT
; _this$ = ecx

; 716  : {

  00000	55		 push	 ebp
  00001	8b ec		 mov	 ebp, esp
  00003	6a ff		 push	 -1
  00005	68 00 00 00 00	 push	 __ehhandler$?AddFolder@CSTLoadManager@@IAEXPBD0@Z
  0000a	64 a1 00 00 00
	00		 mov	 eax, DWORD PTR fs:0
  00010	50		 push	 eax
  00011	83 ec 24	 sub	 esp, 36			; 00000024H
  00014	a1 00 00 00 00	 mov	 eax, DWORD PTR ___security_cookie
  00019	33 c5		 xor	 eax, ebp
  0001b	89 45 f0	 mov	 DWORD PTR __$ArrayPad$[ebp], eax
  0001e	53		 push	 ebx
  0001f	56		 push	 esi
  00020	57		 push	 edi
  00021	50		 push	 eax
  00022	8d 45 f4	 lea	 eax, DWORD PTR __$EHRec$[ebp]
  00025	64 a3 00 00 00
	00		 mov	 DWORD PTR fs:0, eax
  0002b	8b f9		 mov	 edi, ecx
  0002d	8b 5d 08	 mov	 ebx, DWORD PTR _szSTFolderPath$[ebp]

; 717  : 	CString szPath = szSTFolderPath;

  00030	8d 4d d4	 lea	 ecx, DWORD PTR _szPath$[ebp]
  00033	8b 45 0c	 mov	 eax, DWORD PTR _szFolerName$[ebp]
  00036	53		 push	 ebx
  00037	89 45 d8	 mov	 DWORD PTR _szFolerName$GSCopy$1$[ebp], eax
  0003a	ff 15 00 00 00
	00		 call	 DWORD PTR __imp_??0?$CStringT@DV?$StrTraitMFC_DLL@DV?$ChTraitsCRT@D@ATL@@@@@ATL@@QAE@PBD@Z

; 718  : 	if(!szPath.Compare(m_szCurrentSTPath))

  00040	ff 77 0c	 push	 DWORD PTR [edi+12]
  00043	8d 4d d4	 lea	 ecx, DWORD PTR _szPath$[ebp]
  00046	c7 45 fc 00 00
	00 00		 mov	 DWORD PTR __$EHRec$[ebp+8], 0
  0004d	ff 15 00 00 00
	00		 call	 DWORD PTR __imp_?Compare@?$CStringT@DV?$StrTraitMFC_DLL@DV?$ChTraitsCRT@D@ATL@@@@@ATL@@QBEHPBD@Z
  00053	85 c0		 test	 eax, eax
  00055	0f 84 44 01 00
	00		 je	 $LN13@AddFolder
; File C:\Program Files (x86)\Microsoft Visual Studio\2019\Community\VC\Tools\MSVC\14.29.30133\atlmfc\include\afx.inl

; 116  : 	{ return ::operator new(nSize); }

  0005b	68 f8 00 00 00	 push	 248			; 000000f8H
  00060	e8 00 00 00 00	 call	 ??2@YAPAXI@Z		; operator new
  00065	83 c4 04	 add	 esp, 4
; File D:\git\src\IBK\IBK_DRFN\ProjSrc\SrcDrfn\Chart\Common_ST\_STLoadmanager.cpp

; 722  : 	CSTListCtrl* pSTListCtrl = new CSTListCtrl;

  00068	89 45 d0	 mov	 DWORD PTR $T2[ebp], eax
  0006b	c6 45 fc 01	 mov	 BYTE PTR __$EHRec$[ebp+8], 1
  0006f	85 c0		 test	 eax, eax
  00071	74 0b		 je	 SHORT $LN6@AddFolder
  00073	8b c8		 mov	 ecx, eax
  00075	e8 00 00 00 00	 call	 ??0CSTListCtrl@@QAE@XZ	; CSTListCtrl::CSTListCtrl
  0007a	8b f0		 mov	 esi, eax
  0007c	eb 02		 jmp	 SHORT $LN7@AddFolder
$LN6@AddFolder:
  0007e	33 f6		 xor	 esi, esi
$LN7@AddFolder:

; 723  : 
; 724  : 	CString szRealFolderName(szSTFolderPath);

  00080	53		 push	 ebx
  00081	8d 4d dc	 lea	 ecx, DWORD PTR _szRealFolderName$[ebp]
  00084	c6 45 fc 00	 mov	 BYTE PTR __$EHRec$[ebp+8], 0
  00088	ff 15 00 00 00
	00		 call	 DWORD PTR __imp_??0?$CStringT@DV?$StrTraitMFC_DLL@DV?$ChTraitsCRT@D@ATL@@@@@ATL@@QAE@PBD@Z

; 725  : 	szRealFolderName.Delete(0, szRealFolderName.ReverseFind('\\') + 1);

  0008e	6a 5c		 push	 92			; 0000005cH
  00090	8d 4d dc	 lea	 ecx, DWORD PTR _szRealFolderName$[ebp]
  00093	c6 45 fc 02	 mov	 BYTE PTR __$EHRec$[ebp+8], 2
  00097	ff 15 00 00 00
	00		 call	 DWORD PTR __imp_?ReverseFind@?$CStringT@DV?$StrTraitMFC_DLL@DV?$ChTraitsCRT@D@ATL@@@@@ATL@@QBEHD@Z
  0009d	40		 inc	 eax
  0009e	8d 4d dc	 lea	 ecx, DWORD PTR _szRealFolderName$[ebp]
  000a1	50		 push	 eax
  000a2	6a 00		 push	 0
  000a4	ff 15 00 00 00
	00		 call	 DWORD PTR __imp_?Delete@?$CStringT@DV?$StrTraitMFC_DLL@DV?$ChTraitsCRT@D@ATL@@@@@ATL@@QAEHHH@Z

; 726  : 	pSTListCtrl->m_szFolderName = szFolerName;

  000aa	ff 75 d8	 push	 DWORD PTR _szFolerName$GSCopy$1$[ebp]
  000ad	8d 8e 80 00 00
	00		 lea	 ecx, DWORD PTR [esi+128]
  000b3	ff 15 00 00 00
	00		 call	 DWORD PTR __imp_??4?$CStringT@DV?$StrTraitMFC_DLL@DV?$ChTraitsCRT@D@ATL@@@@@ATL@@QAEAAV01@PBD@Z

; 727  : 	pSTListCtrl->m_szRealFolderName = szRealFolderName;

  000b9	8d 45 dc	 lea	 eax, DWORD PTR _szRealFolderName$[ebp]
  000bc	50		 push	 eax
  000bd	8d 8e e0 00 00
	00		 lea	 ecx, DWORD PTR [esi+224]
  000c3	ff 15 00 00 00
	00		 call	 DWORD PTR __imp_??4?$CStringT@DV?$StrTraitMFC_DLL@DV?$ChTraitsCRT@D@ATL@@@@@ATL@@QAEAAV01@ABV01@@Z

; 728  : 	pSTListCtrl->m_szFullPath = szSTFolderPath;

  000c9	53		 push	 ebx
  000ca	8d 8e 84 00 00
	00		 lea	 ecx, DWORD PTR [esi+132]
  000d0	ff 15 00 00 00
	00		 call	 DWORD PTR __imp_??4?$CStringT@DV?$StrTraitMFC_DLL@DV?$ChTraitsCRT@D@ATL@@@@@ATL@@QAEAAV01@PBD@Z

; 729  : 	pSTListCtrl->m_nSTFolderType = (int)m_bSTUserLoading;

  000d6	8b 47 28	 mov	 eax, DWORD PTR [edi+40]
  000d9	0f 57 c0	 xorps	 xmm0, xmm0
  000dc	89 86 88 00 00
	00		 mov	 DWORD PTR [esi+136], eax

; 730  : 	pSTListCtrl->m_nFolderIndx = m_uSTIndx;

  000e2	8b 47 1c	 mov	 eax, DWORD PTR [edi+28]
  000e5	89 86 8c 00 00
	00		 mov	 DWORD PTR [esi+140], eax

; 733  : 	if(!pSTListCtrl->Create(

  000eb	8b 47 1c	 mov	 eax, DWORD PTR [edi+28]
; File C:\Program Files (x86)\Microsoft Visual Studio\2019\Community\VC\Tools\MSVC\14.29.30133\atlmfc\include\atltypes.h

; 540  : 	left = l;

  000ee	0f 11 45 e0	 movups	 XMMWORD PTR $T3[ebp], xmm0
; File D:\git\src\IBK\IBK_DRFN\ProjSrc\SrcDrfn\Chart\Common_ST\_STLoadmanager.cpp

; 733  : 	if(!pSTListCtrl->Create(

  000f2	8d 88 e9 03 00
	00		 lea	 ecx, DWORD PTR [eax+1001]
  000f8	40		 inc	 eax
  000f9	51		 push	 ecx
  000fa	ff 77 04	 push	 DWORD PTR [edi+4]
  000fd	89 47 1c	 mov	 DWORD PTR [edi+28], eax
  00100	8b ce		 mov	 ecx, esi
  00102	8d 45 e0	 lea	 eax, DWORD PTR $T3[ebp]
  00105	50		 push	 eax
  00106	68 0d 40 00 40	 push	 1073758221		; 4000400dH
  0010b	e8 00 00 00 00	 call	 ?Create@CListCtrl@@QAEHKABUtagRECT@@PAVCWnd@@I@Z ; CListCtrl::Create
  00110	8b ce		 mov	 ecx, esi
  00112	85 c0		 test	 eax, eax
  00114	75 09		 jne	 SHORT $LN3@AddFolder

; 734  : 		WS_CHILD|LVS_REPORT|LVS_SHOWSELALWAYS|LVS_SINGLESEL|LVS_NOCOLUMNHEADER, 
; 735  : 		CRect(0,0,0,0), 
; 736  : 		m_pOutBarCtrl, 
; 737  : 		IDC_STListCtrl + m_uSTIndx++)) 
; 738  : 	{
; 739  : 		delete pSTListCtrl;

  00116	8b 06		 mov	 eax, DWORD PTR [esi]
  00118	6a 01		 push	 1
  0011a	ff 50 04	 call	 DWORD PTR [eax+4]
  0011d	eb 77		 jmp	 SHORT $LN4@AddFolder
$LN3@AddFolder:

; 740  : 		pSTListCtrl = NULL;
; 741  : 		return;
; 742  : 	}
; 743  : 
; 744  : 	pSTListCtrl->InitFont(m_bUseBoldFont);

  0011f	ff 77 34	 push	 DWORD PTR [edi+52]
  00122	e8 00 00 00 00	 call	 ?InitFont@CSTListCtrl@@QAEXH@Z ; CSTListCtrl::InitFont
; File C:\Program Files (x86)\Microsoft Visual Studio\2019\Community\VC\Tools\MSVC\14.29.30133\atlmfc\include\afxcmn2.inl

; 131  : 	{ ASSERT(::IsWindow(m_hWnd)); return (DWORD) ::SendMessage(m_hWnd, LVM_GETEXTENDEDLISTVIEWSTYLE, 0, 0); }

  00127	8b 1d 00 00 00
	00		 mov	 ebx, DWORD PTR __imp__SendMessageA@16
  0012d	6a 00		 push	 0
  0012f	6a 00		 push	 0
  00131	68 37 10 00 00	 push	 4151			; 00001037H
  00136	ff 76 20	 push	 DWORD PTR [esi+32]
  00139	ff d3		 call	 ebx
; File D:\git\src\IBK\IBK_DRFN\ProjSrc\SrcDrfn\Chart\Common_ST\_STLoadmanager.cpp

; 745  : 	pSTListCtrl->SetExtendedStyle(pSTListCtrl->GetExtendedStyle() | LVS_EX_FULLROWSELECT);

  0013b	83 c8 20	 or	 eax, 32			; 00000020H
; File C:\Program Files (x86)\Microsoft Visual Studio\2019\Community\VC\Tools\MSVC\14.29.30133\atlmfc\include\afxcmn2.inl

; 117  : 	{ ASSERT(::IsWindow(m_hWnd)); return (DWORD) ::SendMessage(m_hWnd, LVM_SETEXTENDEDLISTVIEWSTYLE, 0, (LPARAM) dwNewStyle); }

  0013e	50		 push	 eax
  0013f	6a 00		 push	 0
  00141	68 36 10 00 00	 push	 4150			; 00001036H
  00146	ff 76 20	 push	 DWORD PTR [esi+32]
  00149	ff d3		 call	 ebx
; File D:\git\src\IBK\IBK_DRFN\ProjSrc\SrcDrfn\Chart\Common_ST\_STLoadmanager.cpp

; 746  : 	pSTListCtrl->SetImageList(m_pILSTIcon, LVSIL_SMALL);

  0014b	8b 47 10	 mov	 eax, DWORD PTR [edi+16]
; File C:\Program Files (x86)\Microsoft Visual Studio\2019\Community\VC\Tools\MSVC\14.29.30133\atlmfc\include\afxwin1.inl

; 853  : 	{ return (this == NULL) ? NULL : m_hImageList; }

  0014e	85 c0		 test	 eax, eax
  00150	74 03		 je	 SHORT $LN30@AddFolder
$LN29@AddFolder:
  00152	8b 40 04	 mov	 eax, DWORD PTR [eax+4]
$LN30@AddFolder:
; File C:\Program Files (x86)\Microsoft Visual Studio\2019\Community\VC\Tools\MSVC\14.29.30133\atlmfc\include\afxcmn.inl

; 153  : 	{ ASSERT(::IsWindow(m_hWnd)); return CImageList::FromHandle((HIMAGELIST) ::SendMessage(m_hWnd, LVM_SETIMAGELIST, nImageList, (LPARAM)pImageList->GetSafeHandle())); }

  00155	50		 push	 eax
  00156	6a 01		 push	 1
  00158	68 03 10 00 00	 push	 4099			; 00001003H
  0015d	ff 76 20	 push	 DWORD PTR [esi+32]
  00160	ff d3		 call	 ebx
  00162	50		 push	 eax
  00163	e8 00 00 00 00	 call	 ?FromHandle@CImageList@@SGPAV1@PAU_IMAGELIST@@@Z ; CImageList::FromHandle
; File D:\git\src\IBK\IBK_DRFN\ProjSrc\SrcDrfn\Chart\Common_ST\_STLoadmanager.cpp

; 747  : 	pSTListCtrl->InsertColumn(0, _T(""), LVCFMT_LEFT, 200);

  00168	6a ff		 push	 -1
  0016a	68 c8 00 00 00	 push	 200			; 000000c8H
  0016f	6a 00		 push	 0
  00171	68 00 00 00 00	 push	 OFFSET ??_C@_00CNPNBAHC@@
  00176	6a 00		 push	 0
  00178	8b ce		 mov	 ecx, esi
  0017a	e8 00 00 00 00	 call	 ?InsertColumn@CListCtrl@@QAEHHPBDHHH@Z ; CListCtrl::InsertColumn

; 748  : 
; 749  : 	//    
; 750  : //	CString szSTFolder;
; 751  : //	GetFolderName(szPath, szSTFolder);
; 752  : 
; 753  : 	//  ListCtrl(ST) Add
; 754  : 	//m_pOutBarCtrl->AddFolderBar(szFolerName, pSTListCtrl);
; 755  : 	m_pOutBarCtrl->AddFolderBar(szFolerName, pSTListCtrl);

  0017f	8b 4f 04	 mov	 ecx, DWORD PTR [edi+4]
  00182	6a 00		 push	 0
  00184	56		 push	 esi
  00185	ff 75 d8	 push	 DWORD PTR _szFolerName$GSCopy$1$[ebp]
  00188	e8 00 00 00 00	 call	 ?AddFolderBar@CSTGfxOutBarCtrl@@QAEHPBDPAVCWnd@@K@Z ; CSTGfxOutBarCtrl::AddFolderBar

; 756  : 
; 757  : 	// ListCtrl ID   Counting
; 758  : 	if(m_bSTUserLoading)

  0018d	83 7f 28 00	 cmp	 DWORD PTR [edi+40], 0
  00191	74 03		 je	 SHORT $LN4@AddFolder

; 759  : 		m_uSTUserCount++;

  00193	ff 47 2c	 inc	 DWORD PTR [edi+44]
$LN4@AddFolder:

; 760  : }

  00196	8d 4d dc	 lea	 ecx, DWORD PTR _szRealFolderName$[ebp]
  00199	ff 15 00 00 00
	00		 call	 DWORD PTR __imp_??1?$CStringT@DV?$StrTraitMFC_DLL@DV?$ChTraitsCRT@D@ATL@@@@@ATL@@QAE@XZ
$LN13@AddFolder:
  0019f	8d 4d d4	 lea	 ecx, DWORD PTR _szPath$[ebp]
  001a2	ff 15 00 00 00
	00		 call	 DWORD PTR __imp_??1?$CStringT@DV?$StrTraitMFC_DLL@DV?$ChTraitsCRT@D@ATL@@@@@ATL@@QAE@XZ
  001a8	8b 4d f4	 mov	 ecx, DWORD PTR __$EHRec$[ebp]
  001ab	64 89 0d 00 00
	00 00		 mov	 DWORD PTR fs:0, ecx
  001b2	59		 pop	 ecx
  001b3	5f		 pop	 edi
  001b4	5e		 pop	 esi
  001b5	5b		 pop	 ebx
  001b6	8b 4d f0	 mov	 ecx, DWORD PTR __$ArrayPad$[ebp]
  001b9	33 cd		 xor	 ecx, ebp
  001bb	e8 00 00 00 00	 call	 @__security_check_cookie@4
  001c0	8b e5		 mov	 esp, ebp
  001c2	5d		 pop	 ebp
  001c3	c2 08 00	 ret	 8
_TEXT	ENDS
;	COMDAT text$x
text$x	SEGMENT
__unwindfunclet$?AddFolder@CSTLoadManager@@IAEXPBD0@Z$0:
  00000	8d 4d d4	 lea	 ecx, DWORD PTR _szPath$[ebp]
  00003	ff 25 00 00 00
	00		 jmp	 DWORD PTR __imp_??1?$CStringT@DV?$StrTraitMFC_DLL@DV?$ChTraitsCRT@D@ATL@@@@@ATL@@QAE@XZ
__unwindfunclet$?AddFolder@CSTLoadManager@@IAEXPBD0@Z$1:
  00009	8b 45 d0	 mov	 eax, DWORD PTR $T2[ebp]
  0000c	50		 push	 eax
  0000d	e8 00 00 00 00	 call	 ??3CObject@@SGXPAX@Z	; CObject::operator delete
  00012	c3		 ret	 0
__unwindfunclet$?AddFolder@CSTLoadManager@@IAEXPBD0@Z$2:
  00013	8d 4d dc	 lea	 ecx, DWORD PTR _szRealFolderName$[ebp]
  00016	ff 25 00 00 00
	00		 jmp	 DWORD PTR __imp_??1?$CStringT@DV?$StrTraitMFC_DLL@DV?$ChTraitsCRT@D@ATL@@@@@ATL@@QAE@XZ
  0001c	cc		 int	 3
  0001d	cc		 int	 3
  0001e	cc		 int	 3
  0001f	cc		 int	 3
  00020	cc		 int	 3
__ehhandler$?AddFolder@CSTLoadManager@@IAEXPBD0@Z:
  00021	90		 npad	 1
  00022	90		 npad	 1
  00023	8b 54 24 08	 mov	 edx, DWORD PTR [esp+8]
  00027	8d 42 0c	 lea	 eax, DWORD PTR [edx+12]
  0002a	8b 4a cc	 mov	 ecx, DWORD PTR [edx-52]
  0002d	33 c8		 xor	 ecx, eax
  0002f	e8 00 00 00 00	 call	 @__security_check_cookie@4
  00034	8b 4a fc	 mov	 ecx, DWORD PTR [edx-4]
  00037	33 c8		 xor	 ecx, eax
  00039	e8 00 00 00 00	 call	 @__security_check_cookie@4
  0003e	b8 00 00 00 00	 mov	 eax, OFFSET __ehfuncinfo$?AddFolder@CSTLoadManager@@IAEXPBD0@Z
  00043	e9 00 00 00 00	 jmp	 ___CxxFrameHandler3
text$x	ENDS
?AddFolder@CSTLoadManager@@IAEXPBD0@Z ENDP		; CSTLoadManager::AddFolder
; Function compile flags: /Ogtp
; File D:\git\src\IBK\IBK_DRFN\ProjSrc\SrcDrfn\Chart\Common_ST\_STLoadmanager.cpp
; File C:\Program Files (x86)\Microsoft Visual Studio\2019\Community\VC\Tools\MSVC\14.29.30133\atlmfc\include\atlsimpstr.h
; File D:\git\src\IBK\IBK_DRFN\ProjSrc\SrcDrfn\Chart\Common_ST\_STLoadmanager.cpp
;	COMDAT ?IsSTTypeToLoad@CSTLoadManager@@IAEHAAV?$CStringT@DV?$StrTraitMFC_DLL@DV?$ChTraitsCRT@D@ATL@@@@@ATL@@0@Z
_TEXT	SEGMENT
__$EHRec$ = -12						; size = 12
$T2 = 8							; size = 4
_szFileTitle$ = 8					; size = 4
$T3 = 12						; size = 4
_szSTType$ = 12						; size = 4
?IsSTTypeToLoad@CSTLoadManager@@IAEHAAV?$CStringT@DV?$StrTraitMFC_DLL@DV?$ChTraitsCRT@D@ATL@@@@@ATL@@0@Z PROC ; CSTLoadManager::IsSTTypeToLoad, COMDAT
; _this$ = ecx

; 673  : {

  00000	55		 push	 ebp
  00001	8b ec		 mov	 ebp, esp
  00003	6a ff		 push	 -1
  00005	68 00 00 00 00	 push	 __ehhandler$?IsSTTypeToLoad@CSTLoadManager@@IAEHAAV?$CStringT@DV?$StrTraitMFC_DLL@DV?$ChTraitsCRT@D@ATL@@@@@ATL@@0@Z
  0000a	64 a1 00 00 00
	00		 mov	 eax, DWORD PTR fs:0
  00010	50		 push	 eax
  00011	53		 push	 ebx
  00012	56		 push	 esi
  00013	57		 push	 edi
  00014	a1 00 00 00 00	 mov	 eax, DWORD PTR ___security_cookie
  00019	33 c5		 xor	 eax, ebp
  0001b	50		 push	 eax
  0001c	8d 45 f4	 lea	 eax, DWORD PTR __$EHRec$[ebp]
  0001f	64 a3 00 00 00
	00		 mov	 DWORD PTR fs:0, eax
; File C:\Program Files (x86)\Microsoft Visual Studio\2019\Community\VC\Tools\MSVC\14.29.30133\atlmfc\include\atlsimpstr.h

; 519  : 		return( GetData()->nDataLength );

  00025	8b 75 08	 mov	 esi, DWORD PTR _szFileTitle$[ebp]
  00028	8b 06		 mov	 eax, DWORD PTR [esi]

; 533  : 		return( GetLength() == 0 );

  0002a	83 78 f4 00	 cmp	 DWORD PTR [eax-12], 0
; File D:\git\src\IBK\IBK_DRFN\ProjSrc\SrcDrfn\Chart\Common_ST\_STLoadmanager.cpp

; 674  : 	if(szFileTitle.IsEmpty())

  0002e	0f 84 a9 00 00
	00		 je	 $LN18@IsSTTypeTo

; 675  : 		return FALSE;
; 676  : 
; 677  : 	szSTType.Empty();

  00034	8b 7d 0c	 mov	 edi, DWORD PTR _szSTType$[ebp]
  00037	8b cf		 mov	 ecx, edi
  00039	ff 15 00 00 00
	00		 call	 DWORD PTR __imp_?Empty@?$CSimpleStringT@D$00@ATL@@QAEXXZ

; 678  : 	int nSTTypePosition = szFileTitle.Find(gSTGubunKey);

  0003f	6a 00		 push	 0
  00041	6a 5e		 push	 94			; 0000005eH
  00043	8b ce		 mov	 ecx, esi
  00045	ff 15 00 00 00
	00		 call	 DWORD PTR __imp_?Find@?$CStringT@DV?$StrTraitMFC_DLL@DV?$ChTraitsCRT@D@ATL@@@@@ATL@@QBEHDH@Z
  0004b	8b d8		 mov	 ebx, eax

; 679  : 
; 680  : 	//  
; 681  : 	if(nSTTypePosition == -1)

  0004d	83 fb ff	 cmp	 ebx, -1
  00050	74 72		 je	 SHORT $LN4@IsSTTypeTo

; 682  : 		return TRUE;
; 683  : 
; 684  : 	//   
; 685  : 	szSTType = szFileTitle;

  00052	56		 push	 esi
  00053	8b cf		 mov	 ecx, edi
  00055	ff 15 00 00 00
	00		 call	 DWORD PTR __imp_??4?$CStringT@DV?$StrTraitMFC_DLL@DV?$ChTraitsCRT@D@ATL@@@@@ATL@@QAEAAV01@ABV01@@Z

; 686  : 	szFileTitle = szFileTitle.Mid(0, nSTTypePosition);

  0005b	53		 push	 ebx
  0005c	6a 00		 push	 0
  0005e	8d 45 08	 lea	 eax, DWORD PTR $T2[ebp]
  00061	8b ce		 mov	 ecx, esi
  00063	50		 push	 eax
  00064	ff 15 00 00 00
	00		 call	 DWORD PTR __imp_?Mid@?$CStringT@DV?$StrTraitMFC_DLL@DV?$ChTraitsCRT@D@ATL@@@@@ATL@@QBE?AV12@HH@Z
  0006a	50		 push	 eax
  0006b	8b ce		 mov	 ecx, esi
  0006d	c7 45 fc 00 00
	00 00		 mov	 DWORD PTR __$EHRec$[ebp+8], 0
  00074	ff 15 00 00 00
	00		 call	 DWORD PTR __imp_??4?$CStringT@DV?$StrTraitMFC_DLL@DV?$ChTraitsCRT@D@ATL@@@@@ATL@@QAEAAV01@ABV01@@Z
  0007a	8d 4d 08	 lea	 ecx, DWORD PTR $T2[ebp]
  0007d	c7 45 fc ff ff
	ff ff		 mov	 DWORD PTR __$EHRec$[ebp+8], -1
  00084	ff 15 00 00 00
	00		 call	 DWORD PTR __imp_??1?$CStringT@DV?$StrTraitMFC_DLL@DV?$ChTraitsCRT@D@ATL@@@@@ATL@@QAE@XZ

; 687  : 	szSTType = szSTType.Mid(nSTTypePosition + 1, 1);

  0008a	6a 01		 push	 1
  0008c	8d 43 01	 lea	 eax, DWORD PTR [ebx+1]
  0008f	8b cf		 mov	 ecx, edi
  00091	50		 push	 eax
  00092	8d 45 0c	 lea	 eax, DWORD PTR $T3[ebp]
  00095	50		 push	 eax
  00096	ff 15 00 00 00
	00		 call	 DWORD PTR __imp_?Mid@?$CStringT@DV?$StrTraitMFC_DLL@DV?$ChTraitsCRT@D@ATL@@@@@ATL@@QBE?AV12@HH@Z
  0009c	50		 push	 eax
  0009d	8b cf		 mov	 ecx, edi
  0009f	c7 45 fc 01 00
	00 00		 mov	 DWORD PTR __$EHRec$[ebp+8], 1
  000a6	ff 15 00 00 00
	00		 call	 DWORD PTR __imp_??4?$CStringT@DV?$StrTraitMFC_DLL@DV?$ChTraitsCRT@D@ATL@@@@@ATL@@QAEAAV01@ABV01@@Z
  000ac	8d 4d 0c	 lea	 ecx, DWORD PTR $T3[ebp]
  000af	ff 15 00 00 00
	00		 call	 DWORD PTR __imp_??1?$CStringT@DV?$StrTraitMFC_DLL@DV?$ChTraitsCRT@D@ATL@@@@@ATL@@QAE@XZ

; 688  : 	DWORD dwSTType = atol(szSTType);

  000b5	ff 37		 push	 DWORD PTR [edi]
  000b7	ff 15 00 00 00
	00		 call	 DWORD PTR __imp__atol
  000bd	83 c4 04	 add	 esp, 4

; 689  : 	if(dwSTType == NULL)

  000c0	85 c0		 test	 eax, eax
  000c2	74 19		 je	 SHORT $LN18@IsSTTypeTo
$LN4@IsSTTypeTo:

; 691  : 
; 692  : 	BOOL bAvailable = FALSE;
; 693  : 	if( dwSTType & STRATEGY_INDEX ||				// 
; 694  : 		dwSTType & STRATEGY_ORDER ||				// 
; 695  : 	    dwSTType & STRATEGY_BULL)					// 
; 696  : 		bAvailable = TRUE;
; 697  : 
; 698  : //	if(!bAvailable && (dwSTType & STRATEGY_INDEX))	// 
; 699  : //		return FALSE;
; 700  : 
; 701  : 	return TRUE;

  000c4	b8 01 00 00 00	 mov	 eax, 1

; 702  : }

  000c9	8b 4d f4	 mov	 ecx, DWORD PTR __$EHRec$[ebp]
  000cc	64 89 0d 00 00
	00 00		 mov	 DWORD PTR fs:0, ecx
  000d3	59		 pop	 ecx
  000d4	5f		 pop	 edi
  000d5	5e		 pop	 esi
  000d6	5b		 pop	 ebx
  000d7	8b e5		 mov	 esp, ebp
  000d9	5d		 pop	 ebp
  000da	c2 08 00	 ret	 8
$LN18@IsSTTypeTo:

; 690  : 		return FALSE;

  000dd	33 c0		 xor	 eax, eax

; 702  : }

  000df	8b 4d f4	 mov	 ecx, DWORD PTR __$EHRec$[ebp]
  000e2	64 89 0d 00 00
	00 00		 mov	 DWORD PTR fs:0, ecx
  000e9	59		 pop	 ecx
  000ea	5f		 pop	 edi
  000eb	5e		 pop	 esi
  000ec	5b		 pop	 ebx
  000ed	8b e5		 mov	 esp, ebp
  000ef	5d		 pop	 ebp
  000f0	c2 08 00	 ret	 8
_TEXT	ENDS
;	COMDAT text$x
text$x	SEGMENT
__unwindfunclet$?IsSTTypeToLoad@CSTLoadManager@@IAEHAAV?$CStringT@DV?$StrTraitMFC_DLL@DV?$ChTraitsCRT@D@ATL@@@@@ATL@@0@Z$0:
  00000	8d 4d 08	 lea	 ecx, DWORD PTR $T2[ebp]
  00003	ff 25 00 00 00
	00		 jmp	 DWORD PTR __imp_??1?$CStringT@DV?$StrTraitMFC_DLL@DV?$ChTraitsCRT@D@ATL@@@@@ATL@@QAE@XZ
__unwindfunclet$?IsSTTypeToLoad@CSTLoadManager@@IAEHAAV?$CStringT@DV?$StrTraitMFC_DLL@DV?$ChTraitsCRT@D@ATL@@@@@ATL@@0@Z$1:
  00009	8d 4d 0c	 lea	 ecx, DWORD PTR $T3[ebp]
  0000c	ff 25 00 00 00
	00		 jmp	 DWORD PTR __imp_??1?$CStringT@DV?$StrTraitMFC_DLL@DV?$ChTraitsCRT@D@ATL@@@@@ATL@@QAE@XZ
  00012	cc		 int	 3
  00013	cc		 int	 3
  00014	cc		 int	 3
  00015	cc		 int	 3
  00016	cc		 int	 3
__ehhandler$?IsSTTypeToLoad@CSTLoadManager@@IAEHAAV?$CStringT@DV?$StrTraitMFC_DLL@DV?$ChTraitsCRT@D@ATL@@@@@ATL@@0@Z:
  00017	90		 npad	 1
  00018	90		 npad	 1
  00019	8b 54 24 08	 mov	 edx, DWORD PTR [esp+8]
  0001d	8d 42 0c	 lea	 eax, DWORD PTR [edx+12]
  00020	8b 4a f0	 mov	 ecx, DWORD PTR [edx-16]
  00023	33 c8		 xor	 ecx, eax
  00025	e8 00 00 00 00	 call	 @__security_check_cookie@4
  0002a	b8 00 00 00 00	 mov	 eax, OFFSET __ehfuncinfo$?IsSTTypeToLoad@CSTLoadManager@@IAEHAAV?$CStringT@DV?$StrTraitMFC_DLL@DV?$ChTraitsCRT@D@ATL@@@@@ATL@@0@Z
  0002f	e9 00 00 00 00	 jmp	 ___CxxFrameHandler3
text$x	ENDS
?IsSTTypeToLoad@CSTLoadManager@@IAEHAAV?$CStringT@DV?$StrTraitMFC_DLL@DV?$ChTraitsCRT@D@ATL@@@@@ATL@@0@Z ENDP ; CSTLoadManager::IsSTTypeToLoad
; Function compile flags: /Ogtp
; File D:\git\src\IBK\IBK_DRFN\ProjSrc\SrcDrfn\Chart\Common_ST\_STLoadmanager.cpp
; File C:\Program Files (x86)\Microsoft Visual Studio\2019\Community\VC\Tools\MSVC\14.29.30133\atlmfc\include\afxcoll.inl
; File D:\git\src\IBK\IBK_DRFN\ProjSrc\SrcDrfn\Chart\Common_ST\_STLoadmanager.cpp
; File C:\Program Files (x86)\Microsoft Visual Studio\2019\Community\VC\Tools\MSVC\14.29.30133\atlmfc\include\cstringt.h
; File D:\git\src\IBK\IBK_DRFN\ProjSrc\SrcDrfn\Chart\Common_ST\_STLoadmanager.cpp
; File C:\Program Files (x86)\Microsoft Visual Studio\2019\Community\VC\Tools\MSVC\14.29.30133\atlmfc\include\cstringt.h
; File C:\Program Files (x86)\Microsoft Visual Studio\2019\Community\VC\Tools\MSVC\14.29.30133\atlmfc\include\atlsimpstr.h
; File C:\Program Files (x86)\Microsoft Visual Studio\2019\Community\VC\Tools\MSVC\14.29.30133\atlmfc\include\cstringt.h
; File D:\git\src\IBK\IBK_DRFN\ProjSrc\SrcDrfn\Chart\Common_ST\_STLoadmanager.cpp
; File C:\Program Files (x86)\Microsoft Visual Studio\2019\Community\VC\Tools\MSVC\14.29.30133\atlmfc\include\cstringt.h
; File C:\Program Files (x86)\Microsoft Visual Studio\2019\Community\VC\Tools\MSVC\14.29.30133\atlmfc\include\atlsimpstr.h
; File C:\Program Files (x86)\Microsoft Visual Studio\2019\Community\VC\Tools\MSVC\14.29.30133\atlmfc\include\cstringt.h
; File C:\Program Files (x86)\Microsoft Visual Studio\2019\Community\VC\Tools\MSVC\14.29.30133\atlmfc\include\atlsimpstr.h
; File C:\Program Files (x86)\Microsoft Visual Studio\2019\Community\VC\Tools\MSVC\14.29.30133\atlmfc\include\cstringt.h
; File D:\git\src\IBK\IBK_DRFN\ProjSrc\SrcDrfn\Chart\Common_ST\_STLoadmanager.cpp
; File C:\Program Files (x86)\Microsoft Visual Studio\2019\Community\VC\Tools\MSVC\14.29.30133\atlmfc\include\afxcoll.inl
; File D:\git\src\IBK\IBK_DRFN\ProjSrc\SrcDrfn\Chart\Common_ST\_STLoadmanager.cpp
; File C:\Program Files (x86)\Microsoft Visual Studio\2019\Community\VC\Tools\MSVC\14.29.30133\atlmfc\include\afxcoll.inl
; File D:\git\src\IBK\IBK_DRFN\ProjSrc\SrcDrfn\Chart\Common_ST\_STLoadmanager.cpp
; File C:\Program Files (x86)\Microsoft Visual Studio\2019\Community\VC\Tools\MSVC\14.29.30133\atlmfc\include\cstringt.h
; File D:\git\src\IBK\IBK_DRFN\ProjSrc\SrcDrfn\Chart\Common_ST\_STLoadmanager.cpp
; File C:\Program Files (x86)\Microsoft Visual Studio\2019\Community\VC\Tools\MSVC\14.29.30133\atlmfc\include\cstringt.h
; File C:\Program Files (x86)\Microsoft Visual Studio\2019\Community\VC\Tools\MSVC\14.29.30133\atlmfc\include\atlsimpstr.h
; File C:\Program Files (x86)\Microsoft Visual Studio\2019\Community\VC\Tools\MSVC\14.29.30133\atlmfc\include\cstringt.h
; File D:\git\src\IBK\IBK_DRFN\ProjSrc\SrcDrfn\Chart\Common_ST\_STLoadmanager.cpp
; File C:\Program Files (x86)\Microsoft Visual Studio\2019\Community\VC\Tools\MSVC\14.29.30133\atlmfc\include\cstringt.h
; File C:\Program Files (x86)\Microsoft Visual Studio\2019\Community\VC\Tools\MSVC\14.29.30133\atlmfc\include\atlsimpstr.h
; File C:\Program Files (x86)\Microsoft Visual Studio\2019\Community\VC\Tools\MSVC\14.29.30133\atlmfc\include\cstringt.h
; File D:\git\src\IBK\IBK_DRFN\ProjSrc\SrcDrfn\Chart\Common_ST\_STLoadmanager.cpp
; File C:\Program Files (x86)\Microsoft Visual Studio\2019\Community\VC\Tools\MSVC\14.29.30133\atlmfc\include\cstringt.h
; File D:\git\src\IBK\IBK_DRFN\ProjSrc\SrcDrfn\Chart\Common_ST\_STLoadmanager.cpp
; File C:\Program Files (x86)\Microsoft Visual Studio\2019\Community\VC\Tools\MSVC\14.29.30133\atlmfc\include\cstringt.h
; File C:\Program Files (x86)\Microsoft Visual Studio\2019\Community\VC\Tools\MSVC\14.29.30133\atlmfc\include\atlsimpstr.h
; File C:\Program Files (x86)\Microsoft Visual Studio\2019\Community\VC\Tools\MSVC\14.29.30133\atlmfc\include\cstringt.h
; File D:\git\src\IBK\IBK_DRFN\ProjSrc\SrcDrfn\Chart\Common_ST\_STLoadmanager.cpp
; File C:\Program Files (x86)\Microsoft Visual Studio\2019\Community\VC\Tools\MSVC\14.29.30133\atlmfc\include\cstringt.h
; File C:\Program Files (x86)\Microsoft Visual Studio\2019\Community\VC\Tools\MSVC\14.29.30133\atlmfc\include\atlsimpstr.h
; File C:\Program Files (x86)\Microsoft Visual Studio\2019\Community\VC\Tools\MSVC\14.29.30133\atlmfc\include\cstringt.h
; File D:\git\src\IBK\IBK_DRFN\ProjSrc\SrcDrfn\Chart\Common_ST\_STLoadmanager.cpp
; File C:\Program Files (x86)\Microsoft Visual Studio\2019\Community\VC\Tools\MSVC\14.29.30133\atlmfc\include\cstringt.h
; File D:\git\src\IBK\IBK_DRFN\ProjSrc\SrcDrfn\Chart\Common_ST\_STLoadmanager.cpp
; File C:\Program Files (x86)\Microsoft Visual Studio\2019\Community\VC\Tools\MSVC\14.29.30133\atlmfc\include\cstringt.h
; File C:\Program Files (x86)\Microsoft Visual Studio\2019\Community\VC\Tools\MSVC\14.29.30133\atlmfc\include\atlsimpstr.h
; File C:\Program Files (x86)\Microsoft Visual Studio\2019\Community\VC\Tools\MSVC\14.29.30133\atlmfc\include\cstringt.h
; File D:\git\src\IBK\IBK_DRFN\ProjSrc\SrcDrfn\Chart\Common_ST\_STLoadmanager.cpp
; File C:\Program Files (x86)\Microsoft Visual Studio\2019\Community\VC\Tools\MSVC\14.29.30133\atlmfc\include\cstringt.h
; File C:\Program Files (x86)\Microsoft Visual Studio\2019\Community\VC\Tools\MSVC\14.29.30133\atlmfc\include\atlsimpstr.h
; File C:\Program Files (x86)\Microsoft Visual Studio\2019\Community\VC\Tools\MSVC\14.29.30133\atlmfc\include\cstringt.h
; File D:\git\src\IBK\IBK_DRFN\ProjSrc\SrcDrfn\Chart\Common_ST\_STLoadmanager.cpp
; File C:\Program Files (x86)\Microsoft Visual Studio\2019\Community\VC\Tools\MSVC\14.29.30133\atlmfc\include\afxcoll.inl
; File D:\git\src\IBK\IBK_DRFN\ProjSrc\SrcDrfn\Chart\Common_ST\_STLoadmanager.cpp
;	COMDAT ?LoadSTListFromSTIndex@CSTLoadManager@@IAEXHH@Z
_TEXT	SEGMENT
_finder$ = -1180					; size = 28
_nFolder$1$ = -1152					; size = 4
$T2 = -1148						; size = 4
$T3 = -1144						; size = 4
$T4 = -1140						; size = 4
$T5 = -1136						; size = 4
_nFolderCnt$1$ = -1132					; size = 4
_szKeyFileName1$6 = -1128				; size = 4
_szKeyFileName2$7 = -1124				; size = 4
_szSTFilePath$8 = -1120					; size = 4
_szSTFilePath$9 = -1116					; size = 4
$T10 = -1112						; size = 4
_szFolderName$11 = -1108				; size = 4
$T12 = -1104						; size = 4
_szSTDataPath$13 = -1100				; size = 4
_szSTPath$14 = -1096					; size = 4
_szTmp$15 = -1092					; size = 4
_szSection$16 = -1088					; size = 4
_szSection$17 = -1084					; size = 4
_nFileCnt$1$ = -1080					; size = 4
$T18 = -1080						; size = 4
$T19 = -1076						; size = 4
$T20 = -1076						; size = 4
$T21 = -1076						; size = 4
_szRealFolderName$22 = -1076				; size = 4
$T23 = -1072						; size = 4
_szSTDir$24 = -1072					; size = 4
$T25 = -1068						; size = 4
$T26 = -1068						; size = 4
$T27 = -1068						; size = 4
_szOptimizerPath$28 = -1068				; size = 4
_szKeyRealFolderName$29 = -1064				; size = 260
_szKeyFileName$30 = -804				; size = 260
_szKeyFolderName$31 = -544				; size = 260
_szSTIndexPath$32 = -284				; size = 260
_szKey$33 = -24						; size = 5
__$ArrayPad$ = -16					; size = 4
__$EHRec$ = -12						; size = 12
_p_LoadOption$ = 8					; size = 4
_bOnlyUser$ = 12					; size = 4
?LoadSTListFromSTIndex@CSTLoadManager@@IAEXHH@Z PROC	; CSTLoadManager::LoadSTListFromSTIndex, COMDAT
; _this$ = ecx

; 482  : {

  00000	55		 push	 ebp
  00001	8b ec		 mov	 ebp, esp
  00003	6a ff		 push	 -1
  00005	68 00 00 00 00	 push	 __ehhandler$?LoadSTListFromSTIndex@CSTLoadManager@@IAEXHH@Z
  0000a	64 a1 00 00 00
	00		 mov	 eax, DWORD PTR fs:0
  00010	50		 push	 eax
  00011	81 ec 90 04 00
	00		 sub	 esp, 1168		; 00000490H
  00017	a1 00 00 00 00	 mov	 eax, DWORD PTR ___security_cookie
  0001c	33 c5		 xor	 eax, ebp
  0001e	89 45 f0	 mov	 DWORD PTR __$ArrayPad$[ebp], eax
  00021	53		 push	 ebx
  00022	56		 push	 esi
  00023	57		 push	 edi
  00024	50		 push	 eax
  00025	8d 45 f4	 lea	 eax, DWORD PTR __$EHRec$[ebp]
  00028	64 a3 00 00 00
	00		 mov	 DWORD PTR fs:0, eax
  0002e	8b f1		 mov	 esi, ecx
  00030	33 db		 xor	 ebx, ebx
  00032	89 9d d0 fb ff
	ff		 mov	 DWORD PTR $T23[ebp], ebx
  00038	89 9d c8 fb ff
	ff		 mov	 DWORD PTR $T18[ebp], ebx

; 483  : 	// Data STData
; 484  : 	if(!bOnlyUser) 

  0003e	39 5d 0c	 cmp	 DWORD PTR _bOnlyUser$[ebp], ebx
  00041	0f 85 03 07 00
	00		 jne	 $LN11@LoadSTList

; 485  : 	{
; 486  : 		CString szOptimizerPath ;

  00047	8d 8d d4 fb ff
	ff		 lea	 ecx, DWORD PTR _szOptimizerPath$28[ebp]
  0004d	ff 15 00 00 00
	00		 call	 DWORD PTR __imp_??0?$CStringT@DV?$StrTraitMFC_DLL@DV?$ChTraitsCRT@D@ATL@@@@@ATL@@QAE@XZ

; 487  : 		szOptimizerPath.Format("%s\\STData\\VarOptima.cfg",(LPCSTR)AfxGetPctrData(12));

  00053	6a 0c		 push	 12			; 0000000cH
  00055	89 5d fc	 mov	 DWORD PTR __$EHRec$[ebp+8], ebx
  00058	e8 00 00 00 00	 call	 ?AfxGetPctrData@@YGJH@Z	; AfxGetPctrData
  0005d	8b 1d 00 00 00
	00		 mov	 ebx, DWORD PTR __imp_?Format@?$CStringT@DV?$StrTraitMFC_DLL@DV?$ChTraitsCRT@D@ATL@@@@@ATL@@QAAXPBDZZ
  00063	50		 push	 eax
  00064	8d 85 d4 fb ff
	ff		 lea	 eax, DWORD PTR _szOptimizerPath$28[ebp]
  0006a	68 00 00 00 00	 push	 OFFSET ??_C@_0BI@JGCPDNC@?$CFs?2STData?2VarOptima?4cfg@
  0006f	50		 push	 eax
  00070	ff d3		 call	 ebx

; 489  : 		CString szSTDataPath = m_parSTPath->GetAt(STDATA_INDEX);

  00072	8b 46 08	 mov	 eax, DWORD PTR [esi+8]
  00075	83 c4 0c	 add	 esp, 12			; 0000000cH
; File C:\Program Files (x86)\Microsoft Visual Studio\2019\Community\VC\Tools\MSVC\14.29.30133\atlmfc\include\afxcoll.inl

; 289  : 		if( nIndex < 0 || nIndex >= m_nSize )

  00078	83 78 08 00	 cmp	 DWORD PTR [eax+8], 0
  0007c	0f 8e fc 09 00
	00		 jle	 $LN218@LoadSTList
; File D:\git\src\IBK\IBK_DRFN\ProjSrc\SrcDrfn\Chart\Common_ST\_STLoadmanager.cpp

; 489  : 		CString szSTDataPath = m_parSTPath->GetAt(STDATA_INDEX);

  00082	ff 70 04	 push	 DWORD PTR [eax+4]
  00085	8d 8d b4 fb ff
	ff		 lea	 ecx, DWORD PTR _szSTDataPath$13[ebp]
  0008b	ff 15 00 00 00
	00		 call	 DWORD PTR __imp_??0?$CStringT@DV?$StrTraitMFC_DLL@DV?$ChTraitsCRT@D@ATL@@@@@ATL@@QAE@ABV01@@Z

; 490  : 		m_szCurrentSTPath = szSTDataPath;

  00091	8d 85 b4 fb ff
	ff		 lea	 eax, DWORD PTR _szSTDataPath$13[ebp]
  00097	c6 45 fc 01	 mov	 BYTE PTR __$EHRec$[ebp+8], 1
  0009b	50		 push	 eax
  0009c	8d 4e 0c	 lea	 ecx, DWORD PTR [esi+12]
  0009f	ff 15 00 00 00
	00		 call	 DWORD PTR __imp_??4?$CStringT@DV?$StrTraitMFC_DLL@DV?$ChTraitsCRT@D@ATL@@@@@ATL@@QAEAAV01@ABV01@@Z

; 491  : 
; 492  : 		char szSTIndexPath[MAX_PATH];
; 493  : 		sprintf(szSTIndexPath, "%s\\%s", szSTDataPath, "STIndex.dat");

  000a5	68 00 00 00 00	 push	 OFFSET ??_C@_0M@FDALMHON@STIndex?4dat@
  000aa	ff b5 b4 fb ff
	ff		 push	 DWORD PTR _szSTDataPath$13[ebp]
  000b0	8d 85 e4 fe ff
	ff		 lea	 eax, DWORD PTR _szSTIndexPath$32[ebp]
  000b6	68 00 00 00 00	 push	 OFFSET ??_C@_05BMGBEOOC@?$CFs?2?$CFs@
  000bb	50		 push	 eax
  000bc	e8 00 00 00 00	 call	 _sprintf

; 494  : 
; 495  : 		LPCSTR szSecKey = "LIST";
; 496  : 		int nFolderCnt = ::GetPrivateProfileInt(szSecKey, "Count", 0, szSTIndexPath);

  000c1	8b 3d 00 00 00
	00		 mov	 edi, DWORD PTR __imp__GetPrivateProfileIntA@16
  000c7	8d 85 e4 fe ff
	ff		 lea	 eax, DWORD PTR _szSTIndexPath$32[ebp]
  000cd	83 c4 10	 add	 esp, 16			; 00000010H
  000d0	50		 push	 eax
  000d1	6a 00		 push	 0
  000d3	68 00 00 00 00	 push	 OFFSET ??_C@_05IJGIMMHE@Count@
  000d8	68 00 00 00 00	 push	 OFFSET ??_C@_04PCOPKCKE@LIST@
  000dd	ff d7		 call	 edi

; 497  : 		int nFileCnt = 0;
; 498  : 
; 499  : 		char szKeyFolderName[MAX_PATH]={0,}, szKeyFileName[MAX_PATH]={0,}, szKeyRealFolderName[MAX_PATH]={0,};

  000df	68 04 01 00 00	 push	 260			; 00000104H
  000e4	89 85 94 fb ff
	ff		 mov	 DWORD PTR _nFolderCnt$1$[ebp], eax
  000ea	8d 85 e0 fd ff
	ff		 lea	 eax, DWORD PTR _szKeyFolderName$31[ebp]
  000f0	6a 00		 push	 0
  000f2	50		 push	 eax
  000f3	e8 00 00 00 00	 call	 _memset
  000f8	68 04 01 00 00	 push	 260			; 00000104H
  000fd	8d 85 dc fc ff
	ff		 lea	 eax, DWORD PTR _szKeyFileName$30[ebp]
  00103	6a 00		 push	 0
  00105	50		 push	 eax
  00106	e8 00 00 00 00	 call	 _memset
  0010b	68 04 01 00 00	 push	 260			; 00000104H
  00110	8d 85 d8 fb ff
	ff		 lea	 eax, DWORD PTR _szKeyRealFolderName$29[ebp]
  00116	6a 00		 push	 0
  00118	50		 push	 eax
  00119	e8 00 00 00 00	 call	 _memset
  0011e	83 c4 24	 add	 esp, 36			; 00000024H

; 500  : 
; 501  : 		char szKey[5];
; 502  : 		CString szSTPath;

  00121	8d 8d b8 fb ff
	ff		 lea	 ecx, DWORD PTR _szSTPath$14[ebp]
  00127	ff 15 00 00 00
	00		 call	 DWORD PTR __imp_??0?$CStringT@DV?$StrTraitMFC_DLL@DV?$ChTraitsCRT@D@ATL@@@@@ATL@@QAE@XZ

; 503  : 		int	nVersion=0;
; 504  : 		CString szFolderName;

  0012d	8d 8d ac fb ff
	ff		 lea	 ecx, DWORD PTR _szFolderName$11[ebp]
  00133	ff 15 00 00 00
	00		 call	 DWORD PTR __imp_??0?$CStringT@DV?$StrTraitMFC_DLL@DV?$ChTraitsCRT@D@ATL@@@@@ATL@@QAE@XZ

; 505  : 		CString szRealFolderName;

  00139	8d 8d cc fb ff
	ff		 lea	 ecx, DWORD PTR _szRealFolderName$22[ebp]
  0013f	ff 15 00 00 00
	00		 call	 DWORD PTR __imp_??0?$CStringT@DV?$StrTraitMFC_DLL@DV?$ChTraitsCRT@D@ATL@@@@@ATL@@QAE@XZ

; 506  : 		for(int nFolder = 0; nFolder < nFolderCnt; ++nFolder)

  00145	33 c9		 xor	 ecx, ecx
  00147	c6 45 fc 04	 mov	 BYTE PTR __$EHRec$[ebp+8], 4
  0014b	39 8d 94 fb ff
	ff		 cmp	 DWORD PTR _nFolderCnt$1$[ebp], ecx
  00151	0f 8e aa 05 00
	00		 jle	 $LN3@LoadSTList
$LL4@LoadSTList:

; 507  : 		{
; 508  : 			sprintf(szKey, "%d", nFolder+1);

  00157	41		 inc	 ecx
  00158	8d 45 e8	 lea	 eax, DWORD PTR _szKey$33[ebp]
  0015b	51		 push	 ecx
  0015c	68 00 00 00 00	 push	 OFFSET ??_C@_02DPKJAMEF@?$CFd@
  00161	50		 push	 eax
  00162	89 8d 80 fb ff
	ff		 mov	 DWORD PTR _nFolder$1$[ebp], ecx
  00168	e8 00 00 00 00	 call	 _sprintf
  0016d	83 c4 0c	 add	 esp, 12			; 0000000cH

; 509  : 
; 510  : 			if(::GetPrivateProfileString(szSecKey, szKey, "", szKeyFolderName, MAX_PATH, szSTIndexPath) > 0)

  00170	8d 85 e4 fe ff
	ff		 lea	 eax, DWORD PTR _szSTIndexPath$32[ebp]
  00176	50		 push	 eax
  00177	68 04 01 00 00	 push	 260			; 00000104H
  0017c	8d 85 e0 fd ff
	ff		 lea	 eax, DWORD PTR _szKeyFolderName$31[ebp]
  00182	50		 push	 eax
  00183	68 00 00 00 00	 push	 OFFSET ??_C@_00CNPNBAHC@@
  00188	8d 45 e8	 lea	 eax, DWORD PTR _szKey$33[ebp]
  0018b	50		 push	 eax
  0018c	68 00 00 00 00	 push	 OFFSET ??_C@_04PCOPKCKE@LIST@
  00191	ff 15 00 00 00
	00		 call	 DWORD PTR __imp__GetPrivateProfileStringA@24
  00197	85 c0		 test	 eax, eax
  00199	0f 84 50 05 00
	00		 je	 $LN2@LoadSTList

; 511  : 			{
; 512  : 				szFolderName = szKeyFolderName;

  0019f	8d 85 e0 fd ff
	ff		 lea	 eax, DWORD PTR _szKeyFolderName$31[ebp]
  001a5	50		 push	 eax
  001a6	8d 8d ac fb ff
	ff		 lea	 ecx, DWORD PTR _szFolderName$11[ebp]
  001ac	ff 15 00 00 00
	00		 call	 DWORD PTR __imp_??4?$CStringT@DV?$StrTraitMFC_DLL@DV?$ChTraitsCRT@D@ATL@@@@@ATL@@QAEAAV01@PBD@Z

; 513  : 				if(p_LoadOption == 1 && szFolderName.Compare("") == 0)

  001b2	83 7d 08 01	 cmp	 DWORD PTR _p_LoadOption$[ebp], 1
  001b6	75 19		 jne	 SHORT $LN13@LoadSTList
  001b8	68 00 00 00 00	 push	 OFFSET ??_C@_08BHLLDOMG@?$LA?$KN?$LM?$LM?$LO?$OA?$LM?$LM@
  001bd	8d 8d ac fb ff
	ff		 lea	 ecx, DWORD PTR _szFolderName$11[ebp]
  001c3	ff 15 00 00 00
	00		 call	 DWORD PTR __imp_?Compare@?$CStringT@DV?$StrTraitMFC_DLL@DV?$ChTraitsCRT@D@ATL@@@@@ATL@@QBEHPBD@Z
  001c9	85 c0		 test	 eax, eax
  001cb	0f 84 1e 05 00
	00		 je	 $LN2@LoadSTList
$LN13@LoadSTList:

; 514  : 					continue;
; 515  : 
; 516  : 				::GetPrivateProfileString(szKeyFolderName, "RealFolderName", "", szKeyRealFolderName, MAX_PATH, szSTIndexPath);

  001d1	8d 85 e4 fe ff
	ff		 lea	 eax, DWORD PTR _szSTIndexPath$32[ebp]
  001d7	50		 push	 eax
  001d8	68 04 01 00 00	 push	 260			; 00000104H
  001dd	8d 85 d8 fb ff
	ff		 lea	 eax, DWORD PTR _szKeyRealFolderName$29[ebp]
  001e3	50		 push	 eax
  001e4	68 00 00 00 00	 push	 OFFSET ??_C@_00CNPNBAHC@@
  001e9	68 00 00 00 00	 push	 OFFSET ??_C@_0P@KLCPEEFK@RealFolderName@
  001ee	8d 85 e0 fd ff
	ff		 lea	 eax, DWORD PTR _szKeyFolderName$31[ebp]
  001f4	50		 push	 eax
  001f5	ff 15 00 00 00
	00		 call	 DWORD PTR __imp__GetPrivateProfileStringA@24

; 517  : 				//szSTPath = szSTDataPath + "\\" + szKeyFolderName;
; 518  : 				//AddFolder(szSTPath, szKeyFolderName);
; 519  : 				szRealFolderName = szKeyRealFolderName;

  001fb	8d 85 d8 fb ff
	ff		 lea	 eax, DWORD PTR _szKeyRealFolderName$29[ebp]
  00201	50		 push	 eax
  00202	8d 8d cc fb ff
	ff		 lea	 ecx, DWORD PTR _szRealFolderName$22[ebp]
  00208	ff 15 00 00 00
	00		 call	 DWORD PTR __imp_??4?$CStringT@DV?$StrTraitMFC_DLL@DV?$ChTraitsCRT@D@ATL@@@@@ATL@@QAEAAV01@PBD@Z
; File C:\Program Files (x86)\Microsoft Visual Studio\2019\Community\VC\Tools\MSVC\14.29.30133\atlmfc\include\cstringt.h

; 2401 : 		CStringT strResult( str1.GetManager() );

  0020e	8d 8d b4 fb ff
	ff		 lea	 ecx, DWORD PTR _szSTDataPath$13[ebp]
; File D:\git\src\IBK\IBK_DRFN\ProjSrc\SrcDrfn\Chart\Common_ST\_STLoadmanager.cpp

; 520  : 				szSTPath = szSTDataPath + "\\" + szRealFolderName;

  00214	c6 45 fc 05	 mov	 BYTE PTR __$EHRec$[ebp+8], 5
; File C:\Program Files (x86)\Microsoft Visual Studio\2019\Community\VC\Tools\MSVC\14.29.30133\atlmfc\include\cstringt.h

; 2401 : 		CStringT strResult( str1.GetManager() );

  00218	ff 15 00 00 00
	00		 call	 DWORD PTR __imp_?GetManager@?$CStringT@DV?$StrTraitMFC_DLL@DV?$ChTraitsCRT@D@ATL@@@@@ATL@@QBEPAUIAtlStringMgr@2@XZ
  0021e	50		 push	 eax
  0021f	8d 8d b0 fb ff
	ff		 lea	 ecx, DWORD PTR $T12[ebp]
  00225	ff 15 00 00 00
	00		 call	 DWORD PTR __imp_??0?$CStringT@DV?$StrTraitMFC_DLL@DV?$ChTraitsCRT@D@ATL@@@@@ATL@@QAE@PAUIAtlStringMgr@1@@Z

; 2405 : 		return( strResult );

  0022b	8b 85 d0 fb ff
	ff		 mov	 eax, DWORD PTR $T23[ebp]
  00231	83 c8 01	 or	 eax, 1
  00234	89 85 d0 fb ff
	ff		 mov	 DWORD PTR $T23[ebp], eax
  0023a	89 85 c8 fb ff
	ff		 mov	 DWORD PTR $T18[ebp], eax
; File C:\Program Files (x86)\Microsoft Visual Studio\2019\Community\VC\Tools\MSVC\14.29.30133\atlmfc\include\atlsimpstr.h

; 519  : 		return( GetData()->nDataLength );

  00240	8b 85 b4 fb ff
	ff		 mov	 eax, DWORD PTR _szSTDataPath$13[ebp]
; File C:\Program Files (x86)\Microsoft Visual Studio\2019\Community\VC\Tools\MSVC\14.29.30133\atlmfc\include\cstringt.h

; 2403 : 		CThisSimpleString::Concatenate( strResult, str1, str1.GetLength(), psz2, CThisSimpleString::StringLength( psz2 ) );

  00246	6a 01		 push	 1
  00248	68 00 00 00 00	 push	 OFFSET ??_C@_01KICIPPFI@?2@
  0024d	ff 70 f4	 push	 DWORD PTR [eax-12]
  00250	50		 push	 eax
  00251	8d 85 b0 fb ff
	ff		 lea	 eax, DWORD PTR $T12[ebp]
  00257	50		 push	 eax
  00258	ff 15 00 00 00
	00		 call	 DWORD PTR __imp_?Concatenate@?$CSimpleStringT@D$00@ATL@@KAXAAV12@PBDH1H@Z
  0025e	83 c4 14	 add	 esp, 20			; 00000014H

; 2390 : 		CStringT strResult( str1.GetManager() );

  00261	8d 8d b0 fb ff
	ff		 lea	 ecx, DWORD PTR $T12[ebp]
; File D:\git\src\IBK\IBK_DRFN\ProjSrc\SrcDrfn\Chart\Common_ST\_STLoadmanager.cpp

; 520  : 				szSTPath = szSTDataPath + "\\" + szRealFolderName;

  00267	c6 45 fc 06	 mov	 BYTE PTR __$EHRec$[ebp+8], 6
; File C:\Program Files (x86)\Microsoft Visual Studio\2019\Community\VC\Tools\MSVC\14.29.30133\atlmfc\include\cstringt.h

; 2390 : 		CStringT strResult( str1.GetManager() );

  0026b	ff 15 00 00 00
	00		 call	 DWORD PTR __imp_?GetManager@?$CStringT@DV?$StrTraitMFC_DLL@DV?$ChTraitsCRT@D@ATL@@@@@ATL@@QBEPAUIAtlStringMgr@2@XZ
  00271	50		 push	 eax
  00272	8d 8d a8 fb ff
	ff		 lea	 ecx, DWORD PTR $T10[ebp]
  00278	ff 15 00 00 00
	00		 call	 DWORD PTR __imp_??0?$CStringT@DV?$StrTraitMFC_DLL@DV?$ChTraitsCRT@D@ATL@@@@@ATL@@QAE@PAUIAtlStringMgr@1@@Z

; 2394 : 		return( strResult );

  0027e	8b 85 d0 fb ff
	ff		 mov	 eax, DWORD PTR $T23[ebp]
; File C:\Program Files (x86)\Microsoft Visual Studio\2019\Community\VC\Tools\MSVC\14.29.30133\atlmfc\include\atlsimpstr.h

; 519  : 		return( GetData()->nDataLength );

  00284	8b 8d b0 fb ff
	ff		 mov	 ecx, DWORD PTR $T12[ebp]
; File C:\Program Files (x86)\Microsoft Visual Studio\2019\Community\VC\Tools\MSVC\14.29.30133\atlmfc\include\cstringt.h

; 2394 : 		return( strResult );

  0028a	83 c8 02	 or	 eax, 2
  0028d	89 85 d0 fb ff
	ff		 mov	 DWORD PTR $T23[ebp], eax
  00293	89 85 c8 fb ff
	ff		 mov	 DWORD PTR $T18[ebp], eax
; File C:\Program Files (x86)\Microsoft Visual Studio\2019\Community\VC\Tools\MSVC\14.29.30133\atlmfc\include\atlsimpstr.h

; 519  : 		return( GetData()->nDataLength );

  00299	8b 85 cc fb ff
	ff		 mov	 eax, DWORD PTR _szRealFolderName$22[ebp]
; File C:\Program Files (x86)\Microsoft Visual Studio\2019\Community\VC\Tools\MSVC\14.29.30133\atlmfc\include\cstringt.h

; 2392 : 		CThisSimpleString::Concatenate( strResult, str1, str1.GetLength(), str2, str2.GetLength() );

  0029f	ff 70 f4	 push	 DWORD PTR [eax-12]
  002a2	50		 push	 eax
  002a3	ff 71 f4	 push	 DWORD PTR [ecx-12]
  002a6	8d 85 a8 fb ff
	ff		 lea	 eax, DWORD PTR $T10[ebp]
  002ac	51		 push	 ecx
  002ad	50		 push	 eax
  002ae	ff 15 00 00 00
	00		 call	 DWORD PTR __imp_?Concatenate@?$CSimpleStringT@D$00@ATL@@KAXAAV12@PBDH1H@Z
  002b4	83 c4 14	 add	 esp, 20			; 00000014H
; File D:\git\src\IBK\IBK_DRFN\ProjSrc\SrcDrfn\Chart\Common_ST\_STLoadmanager.cpp

; 520  : 				szSTPath = szSTDataPath + "\\" + szRealFolderName;

  002b7	8d 85 a8 fb ff
	ff		 lea	 eax, DWORD PTR $T10[ebp]
  002bd	8d 8d b8 fb ff
	ff		 lea	 ecx, DWORD PTR _szSTPath$14[ebp]
  002c3	50		 push	 eax
  002c4	ff 15 00 00 00
	00		 call	 DWORD PTR __imp_??4?$CStringT@DV?$StrTraitMFC_DLL@DV?$ChTraitsCRT@D@ATL@@@@@ATL@@QAEAAV01@ABV01@@Z
  002ca	83 a5 d0 fb ff
	ff fd		 and	 DWORD PTR $T23[ebp], -3	; fffffffdH
  002d1	8d 8d a8 fb ff
	ff		 lea	 ecx, DWORD PTR $T10[ebp]
  002d7	ff 15 00 00 00
	00		 call	 DWORD PTR __imp_??1?$CStringT@DV?$StrTraitMFC_DLL@DV?$ChTraitsCRT@D@ATL@@@@@ATL@@QAE@XZ
  002dd	83 a5 d0 fb ff
	ff fe		 and	 DWORD PTR $T23[ebp], -2	; fffffffeH
  002e4	8d 8d b0 fb ff
	ff		 lea	 ecx, DWORD PTR $T12[ebp]
  002ea	c6 45 fc 04	 mov	 BYTE PTR __$EHRec$[ebp+8], 4
  002ee	ff 15 00 00 00
	00		 call	 DWORD PTR __imp_??1?$CStringT@DV?$StrTraitMFC_DLL@DV?$ChTraitsCRT@D@ATL@@@@@ATL@@QAE@XZ

; 521  : 				AddFolder(szSTPath, szFolderName);

  002f4	ff b5 ac fb ff
	ff		 push	 DWORD PTR _szFolderName$11[ebp]
  002fa	8b ce		 mov	 ecx, esi
  002fc	ff b5 b8 fb ff
	ff		 push	 DWORD PTR _szSTPath$14[ebp]
  00302	e8 00 00 00 00	 call	 ?AddFolder@CSTLoadManager@@IAEXPBD0@Z ; CSTLoadManager::AddFolder

; 522  : 
; 523  : 				nFileCnt = ::GetPrivateProfileInt(szKeyFolderName, "Count", 0, szSTIndexPath);

  00307	8d 85 e4 fe ff
	ff		 lea	 eax, DWORD PTR _szSTIndexPath$32[ebp]
  0030d	50		 push	 eax
  0030e	6a 00		 push	 0
  00310	68 00 00 00 00	 push	 OFFSET ??_C@_05IJGIMMHE@Count@
  00315	8d 85 e0 fd ff
	ff		 lea	 eax, DWORD PTR _szKeyFolderName$31[ebp]
  0031b	50		 push	 eax
  0031c	ff d7		 call	 edi
  0031e	89 85 c8 fb ff
	ff		 mov	 DWORD PTR _nFileCnt$1$[ebp], eax

; 524  : 				nVersion = ::GetPrivateProfileInt(szKeyFolderName, "Version", 0, szSTIndexPath);

  00324	8d 85 e4 fe ff
	ff		 lea	 eax, DWORD PTR _szSTIndexPath$32[ebp]
  0032a	50		 push	 eax
  0032b	6a 00		 push	 0
  0032d	68 00 00 00 00	 push	 OFFSET ??_C@_07NGFJPNPN@Version@
  00332	8d 85 e0 fd ff
	ff		 lea	 eax, DWORD PTR _szKeyFolderName$31[ebp]
  00338	50		 push	 eax
  00339	ff d7		 call	 edi

; 525  : 				if(nVersion==0)

  0033b	85 c0		 test	 eax, eax
  0033d	0f 85 56 01 00
	00		 jne	 $LN14@LoadSTList

; 526  : 				{
; 527  : 					for(int nFile = 0; nFile < nFileCnt; ++nFile)

  00343	33 ff		 xor	 edi, edi
  00345	39 bd c8 fb ff
	ff		 cmp	 DWORD PTR _nFileCnt$1$[ebp], edi
  0034b	0f 8e 98 03 00
	00		 jle	 $LN214@LoadSTList
$LL7@LoadSTList:

; 528  : 					{
; 529  : 						CString szSection;

  00351	8d 8d c4 fb ff
	ff		 lea	 ecx, DWORD PTR _szSection$17[ebp]
  00357	ff 15 00 00 00
	00		 call	 DWORD PTR __imp_??0?$CStringT@DV?$StrTraitMFC_DLL@DV?$ChTraitsCRT@D@ATL@@@@@ATL@@QAE@XZ

; 530  : 						sprintf(szKey, "%d", nFile+1);

  0035d	47		 inc	 edi
  0035e	c6 45 fc 07	 mov	 BYTE PTR __$EHRec$[ebp+8], 7
  00362	57		 push	 edi
  00363	8d 45 e8	 lea	 eax, DWORD PTR _szKey$33[ebp]
  00366	68 00 00 00 00	 push	 OFFSET ??_C@_02DPKJAMEF@?$CFd@
  0036b	50		 push	 eax
  0036c	e8 00 00 00 00	 call	 _sprintf
  00371	83 c4 0c	 add	 esp, 12			; 0000000cH

; 531  : 						if(::GetPrivateProfileString(szKeyFolderName, szKey, "", szKeyFileName, MAX_PATH, szSTIndexPath) > 0)

  00374	8d 85 e4 fe ff
	ff		 lea	 eax, DWORD PTR _szSTIndexPath$32[ebp]
  0037a	50		 push	 eax
  0037b	68 04 01 00 00	 push	 260			; 00000104H
  00380	8d 85 dc fc ff
	ff		 lea	 eax, DWORD PTR _szKeyFileName$30[ebp]
  00386	50		 push	 eax
  00387	68 00 00 00 00	 push	 OFFSET ??_C@_00CNPNBAHC@@
  0038c	8d 45 e8	 lea	 eax, DWORD PTR _szKey$33[ebp]
  0038f	50		 push	 eax
  00390	8d 85 e0 fd ff
	ff		 lea	 eax, DWORD PTR _szKeyFolderName$31[ebp]
  00396	50		 push	 eax
  00397	ff 15 00 00 00
	00		 call	 DWORD PTR __imp__GetPrivateProfileStringA@24
  0039d	85 c0		 test	 eax, eax
  0039f	0f 84 d3 00 00
	00		 je	 $LN16@LoadSTList

; 532  : 						{
; 533  : 							if(m_parSTPath->GetSize()==1)//  : KHD 

  003a5	8b 46 08	 mov	 eax, DWORD PTR [esi+8]
  003a8	83 78 08 01	 cmp	 DWORD PTR [eax+8], 1
  003ac	0f 85 7d 00 00
	00		 jne	 $LN19@LoadSTList

; 534  : 							{
; 535  : 								szSection.Format("%s",szKeyFileName);

  003b2	8d 85 dc fc ff
	ff		 lea	 eax, DWORD PTR _szKeyFileName$30[ebp]
  003b8	50		 push	 eax
  003b9	8d 85 c4 fb ff
	ff		 lea	 eax, DWORD PTR _szSection$17[ebp]
  003bf	68 00 00 00 00	 push	 OFFSET ??_C@_02DKCKIIND@?$CFs@
  003c4	50		 push	 eax
  003c5	ff d3		 call	 ebx
  003c7	83 c4 0c	 add	 esp, 12			; 0000000cH

; 536  : 
; 537  : 								int nFind = szSection.Find(gSTGubunKeys);

  003ca	8d 8d c4 fb ff
	ff		 lea	 ecx, DWORD PTR _szSection$17[ebp]
  003d0	6a 00		 push	 0
  003d2	68 00 00 00 00	 push	 OFFSET ??_C@_01JKBOJNNK@?$FO@
  003d7	ff 15 00 00 00
	00		 call	 DWORD PTR __imp_?Find@?$CStringT@DV?$StrTraitMFC_DLL@DV?$ChTraitsCRT@D@ATL@@@@@ATL@@QBEHPBDH@Z

; 538  : 								if(nFind>0) szSection = szSection.Left(nFind);

  003dd	85 c0		 test	 eax, eax
  003df	7e 31		 jle	 SHORT $LN18@LoadSTList
  003e1	50		 push	 eax
  003e2	8d 85 90 fb ff
	ff		 lea	 eax, DWORD PTR $T5[ebp]
  003e8	50		 push	 eax
  003e9	8d 8d c4 fb ff
	ff		 lea	 ecx, DWORD PTR _szSection$17[ebp]
  003ef	ff 15 00 00 00
	00		 call	 DWORD PTR __imp_?Left@?$CStringT@DV?$StrTraitMFC_DLL@DV?$ChTraitsCRT@D@ATL@@@@@ATL@@QBE?AV12@H@Z
  003f5	50		 push	 eax
  003f6	8d 8d c4 fb ff
	ff		 lea	 ecx, DWORD PTR _szSection$17[ebp]
  003fc	c6 45 fc 08	 mov	 BYTE PTR __$EHRec$[ebp+8], 8
  00400	ff 15 00 00 00
	00		 call	 DWORD PTR __imp_??4?$CStringT@DV?$StrTraitMFC_DLL@DV?$ChTraitsCRT@D@ATL@@@@@ATL@@QAEAAV01@ABV01@@Z
  00406	8d 8d 90 fb ff
	ff		 lea	 ecx, DWORD PTR $T5[ebp]
  0040c	ff 15 00 00 00
	00		 call	 DWORD PTR __imp_??1?$CStringT@DV?$StrTraitMFC_DLL@DV?$ChTraitsCRT@D@ATL@@@@@ATL@@QAE@XZ
$LN18@LoadSTList:

; 539  : 								int nCount = ::GetPrivateProfileInt(szSection, "Count", 0, szOptimizerPath);

  00412	ff b5 d4 fb ff
	ff		 push	 DWORD PTR _szOptimizerPath$28[ebp]
  00418	6a 00		 push	 0
  0041a	68 00 00 00 00	 push	 OFFSET ??_C@_05IJGIMMHE@Count@
  0041f	ff b5 c4 fb ff
	ff		 push	 DWORD PTR _szSection$17[ebp]
  00425	ff 15 00 00 00
	00		 call	 DWORD PTR __imp__GetPrivateProfileIntA@16

; 540  : 								if(nCount==0) continue;

  0042b	85 c0		 test	 eax, eax
  0042d	74 49		 je	 SHORT $LN16@LoadSTList
$LN19@LoadSTList:

; 541  : 							}
; 542  : 							CString szSTFilePath;

  0042f	8d 8d a4 fb ff
	ff		 lea	 ecx, DWORD PTR _szSTFilePath$9[ebp]
  00435	ff 15 00 00 00
	00		 call	 DWORD PTR __imp_??0?$CStringT@DV?$StrTraitMFC_DLL@DV?$ChTraitsCRT@D@ATL@@@@@ATL@@QAE@XZ

; 543  : 							szSTFilePath.Format(_T("%s\\%s.ST"), szSTPath, szKeyFileName);

  0043b	8d 85 dc fc ff
	ff		 lea	 eax, DWORD PTR _szKeyFileName$30[ebp]
  00441	c6 45 fc 09	 mov	 BYTE PTR __$EHRec$[ebp+8], 9
  00445	50		 push	 eax
  00446	ff b5 b8 fb ff
	ff		 push	 DWORD PTR _szSTPath$14[ebp]
  0044c	8d 85 a4 fb ff
	ff		 lea	 eax, DWORD PTR _szSTFilePath$9[ebp]
  00452	68 00 00 00 00	 push	 OFFSET ??_C@_08OOJOHCD@?$CFs?2?$CFs?4ST@
  00457	50		 push	 eax
  00458	ff d3		 call	 ebx
  0045a	83 c4 10	 add	 esp, 16			; 00000010H

; 544  : 							AddSTFile(szSTFilePath);

  0045d	8b ce		 mov	 ecx, esi
  0045f	6a 00		 push	 0
  00461	ff b5 a4 fb ff
	ff		 push	 DWORD PTR _szSTFilePath$9[ebp]
  00467	e8 00 00 00 00	 call	 ?AddSTFile@CSTLoadManager@@IAEXPBD0@Z ; CSTLoadManager::AddSTFile

; 545  : 						}

  0046c	8d 8d a4 fb ff
	ff		 lea	 ecx, DWORD PTR _szSTFilePath$9[ebp]
  00472	ff 15 00 00 00
	00		 call	 DWORD PTR __imp_??1?$CStringT@DV?$StrTraitMFC_DLL@DV?$ChTraitsCRT@D@ATL@@@@@ATL@@QAE@XZ
$LN16@LoadSTList:

; 526  : 				{
; 527  : 					for(int nFile = 0; nFile < nFileCnt; ++nFile)

  00478	8d 8d c4 fb ff
	ff		 lea	 ecx, DWORD PTR _szSection$17[ebp]
  0047e	c6 45 fc 04	 mov	 BYTE PTR __$EHRec$[ebp+8], 4
  00482	ff 15 00 00 00
	00		 call	 DWORD PTR __imp_??1?$CStringT@DV?$StrTraitMFC_DLL@DV?$ChTraitsCRT@D@ATL@@@@@ATL@@QAE@XZ
  00488	3b bd c8 fb ff
	ff		 cmp	 edi, DWORD PTR _nFileCnt$1$[ebp]
  0048e	0f 8c bd fe ff
	ff		 jl	 $LL7@LoadSTList

; 546  : 					}
; 547  : 				}

  00494	e9 50 02 00 00	 jmp	 $LN214@LoadSTList
$LN14@LoadSTList:

; 548  : 				else if(nVersion==1)

  00499	83 f8 01	 cmp	 eax, 1
  0049c	0f 85 4d 02 00
	00		 jne	 $LN2@LoadSTList

; 549  : 				{
; 550  : 					int nFind;
; 551  : 					CString szKeyFileName1, szKeyFileName2, szTmp;

  004a2	8d 8d 98 fb ff
	ff		 lea	 ecx, DWORD PTR _szKeyFileName1$6[ebp]
  004a8	ff 15 00 00 00
	00		 call	 DWORD PTR __imp_??0?$CStringT@DV?$StrTraitMFC_DLL@DV?$ChTraitsCRT@D@ATL@@@@@ATL@@QAE@XZ
  004ae	8d 8d 9c fb ff
	ff		 lea	 ecx, DWORD PTR _szKeyFileName2$7[ebp]
  004b4	ff 15 00 00 00
	00		 call	 DWORD PTR __imp_??0?$CStringT@DV?$StrTraitMFC_DLL@DV?$ChTraitsCRT@D@ATL@@@@@ATL@@QAE@XZ
  004ba	8d 8d bc fb ff
	ff		 lea	 ecx, DWORD PTR _szTmp$15[ebp]
  004c0	ff 15 00 00 00
	00		 call	 DWORD PTR __imp_??0?$CStringT@DV?$StrTraitMFC_DLL@DV?$ChTraitsCRT@D@ATL@@@@@ATL@@QAE@XZ

; 552  : 					for(int nFile = 0; nFile < nFileCnt; ++nFile)

  004c6	33 ff		 xor	 edi, edi
  004c8	39 bd c8 fb ff
	ff		 cmp	 DWORD PTR _nFileCnt$1$[ebp], edi
  004ce	0f 8e ed 01 00
	00		 jle	 $LN9@LoadSTList
$LL10@LoadSTList:

; 553  : 					{
; 554  : 						CString szSection;

  004d4	8d 8d c0 fb ff
	ff		 lea	 ecx, DWORD PTR _szSection$16[ebp]
  004da	ff 15 00 00 00
	00		 call	 DWORD PTR __imp_??0?$CStringT@DV?$StrTraitMFC_DLL@DV?$ChTraitsCRT@D@ATL@@@@@ATL@@QAE@XZ

; 555  : 						sprintf(szKey, "%d", nFile+1);

  004e0	47		 inc	 edi
  004e1	c6 45 fc 0d	 mov	 BYTE PTR __$EHRec$[ebp+8], 13 ; 0000000dH
  004e5	57		 push	 edi
  004e6	8d 45 e8	 lea	 eax, DWORD PTR _szKey$33[ebp]
  004e9	68 00 00 00 00	 push	 OFFSET ??_C@_02DPKJAMEF@?$CFd@
  004ee	50		 push	 eax
  004ef	e8 00 00 00 00	 call	 _sprintf
  004f4	83 c4 0c	 add	 esp, 12			; 0000000cH

; 556  : 						if(::GetPrivateProfileString(szKeyFolderName, szKey, "", szKeyFileName, MAX_PATH, szSTIndexPath) > 0)

  004f7	8d 85 e4 fe ff
	ff		 lea	 eax, DWORD PTR _szSTIndexPath$32[ebp]
  004fd	50		 push	 eax
  004fe	68 04 01 00 00	 push	 260			; 00000104H
  00503	8d 85 dc fc ff
	ff		 lea	 eax, DWORD PTR _szKeyFileName$30[ebp]
  00509	50		 push	 eax
  0050a	68 00 00 00 00	 push	 OFFSET ??_C@_00CNPNBAHC@@
  0050f	8d 45 e8	 lea	 eax, DWORD PTR _szKey$33[ebp]
  00512	50		 push	 eax
  00513	8d 85 e0 fd ff
	ff		 lea	 eax, DWORD PTR _szKeyFolderName$31[ebp]
  00519	50		 push	 eax
  0051a	ff 15 00 00 00
	00		 call	 DWORD PTR __imp__GetPrivateProfileStringA@24
  00520	85 c0		 test	 eax, eax
  00522	0f 84 81 01 00
	00		 je	 $LN21@LoadSTList

; 557  : 						{
; 558  : 							if(m_parSTPath->GetSize()==1)//  : KHD 

  00528	8b 46 08	 mov	 eax, DWORD PTR [esi+8]
  0052b	83 78 08 01	 cmp	 DWORD PTR [eax+8], 1
  0052f	0f 85 85 00 00
	00		 jne	 $LN24@LoadSTList

; 559  : 							{
; 560  : 								szSection.Format("%s",szKeyFileName);

  00535	8d 85 dc fc ff
	ff		 lea	 eax, DWORD PTR _szKeyFileName$30[ebp]
  0053b	50		 push	 eax
  0053c	8d 85 c0 fb ff
	ff		 lea	 eax, DWORD PTR _szSection$16[ebp]
  00542	68 00 00 00 00	 push	 OFFSET ??_C@_02DKCKIIND@?$CFs@
  00547	50		 push	 eax
  00548	ff d3		 call	 ebx
  0054a	83 c4 0c	 add	 esp, 12			; 0000000cH

; 561  : 
; 562  : 								int nFind = szSection.Find(gSTGubunKeys);

  0054d	8d 8d c0 fb ff
	ff		 lea	 ecx, DWORD PTR _szSection$16[ebp]
  00553	6a 00		 push	 0
  00555	68 00 00 00 00	 push	 OFFSET ??_C@_01JKBOJNNK@?$FO@
  0055a	ff 15 00 00 00
	00		 call	 DWORD PTR __imp_?Find@?$CStringT@DV?$StrTraitMFC_DLL@DV?$ChTraitsCRT@D@ATL@@@@@ATL@@QBEHPBDH@Z

; 563  : 								if(nFind>0) szSection = szSection.Left(nFind);

  00560	85 c0		 test	 eax, eax
  00562	7e 35		 jle	 SHORT $LN23@LoadSTList
  00564	50		 push	 eax
  00565	8d 85 8c fb ff
	ff		 lea	 eax, DWORD PTR $T4[ebp]
  0056b	50		 push	 eax
  0056c	8d 8d c0 fb ff
	ff		 lea	 ecx, DWORD PTR _szSection$16[ebp]
  00572	ff 15 00 00 00
	00		 call	 DWORD PTR __imp_?Left@?$CStringT@DV?$StrTraitMFC_DLL@DV?$ChTraitsCRT@D@ATL@@@@@ATL@@QBE?AV12@H@Z
  00578	50		 push	 eax
  00579	8d 8d c0 fb ff
	ff		 lea	 ecx, DWORD PTR _szSection$16[ebp]
  0057f	c6 45 fc 0e	 mov	 BYTE PTR __$EHRec$[ebp+8], 14 ; 0000000eH
  00583	ff 15 00 00 00
	00		 call	 DWORD PTR __imp_??4?$CStringT@DV?$StrTraitMFC_DLL@DV?$ChTraitsCRT@D@ATL@@@@@ATL@@QAEAAV01@ABV01@@Z
  00589	8d 8d 8c fb ff
	ff		 lea	 ecx, DWORD PTR $T4[ebp]
  0058f	c6 45 fc 0d	 mov	 BYTE PTR __$EHRec$[ebp+8], 13 ; 0000000dH
  00593	ff 15 00 00 00
	00		 call	 DWORD PTR __imp_??1?$CStringT@DV?$StrTraitMFC_DLL@DV?$ChTraitsCRT@D@ATL@@@@@ATL@@QAE@XZ
$LN23@LoadSTList:

; 564  : 								int nCount = ::GetPrivateProfileInt(szSection, "Count", 0, szOptimizerPath);

  00599	ff b5 d4 fb ff
	ff		 push	 DWORD PTR _szOptimizerPath$28[ebp]
  0059f	6a 00		 push	 0
  005a1	68 00 00 00 00	 push	 OFFSET ??_C@_05IJGIMMHE@Count@
  005a6	ff b5 c0 fb ff
	ff		 push	 DWORD PTR _szSection$16[ebp]
  005ac	ff 15 00 00 00
	00		 call	 DWORD PTR __imp__GetPrivateProfileIntA@16

; 565  : 								if(nCount==0) continue;

  005b2	85 c0		 test	 eax, eax
  005b4	0f 84 ef 00 00
	00		 je	 $LN21@LoadSTList
$LN24@LoadSTList:

; 566  : 							}
; 567  : 
; 568  : 							szTmp = szKeyFileName;

  005ba	8d 85 dc fc ff
	ff		 lea	 eax, DWORD PTR _szKeyFileName$30[ebp]
  005c0	50		 push	 eax
  005c1	8d 8d bc fb ff
	ff		 lea	 ecx, DWORD PTR _szTmp$15[ebp]
  005c7	ff 15 00 00 00
	00		 call	 DWORD PTR __imp_??4?$CStringT@DV?$StrTraitMFC_DLL@DV?$ChTraitsCRT@D@ATL@@@@@ATL@@QAEAAV01@PBD@Z

; 569  : 							nFind = szTmp.Find(';');

  005cd	6a 00		 push	 0
  005cf	6a 3b		 push	 59			; 0000003bH
  005d1	8d 8d bc fb ff
	ff		 lea	 ecx, DWORD PTR _szTmp$15[ebp]
  005d7	ff 15 00 00 00
	00		 call	 DWORD PTR __imp_?Find@?$CStringT@DV?$StrTraitMFC_DLL@DV?$ChTraitsCRT@D@ATL@@@@@ATL@@QBEHDH@Z
  005dd	8b d8		 mov	 ebx, eax

; 570  : 							if(nFind<0) continue;

  005df	85 db		 test	 ebx, ebx
  005e1	79 0b		 jns	 SHORT $LN25@LoadSTList
  005e3	8b 1d 00 00 00
	00		 mov	 ebx, DWORD PTR __imp_?Format@?$CStringT@DV?$StrTraitMFC_DLL@DV?$ChTraitsCRT@D@ATL@@@@@ATL@@QAAXPBDZZ
  005e9	e9 bb 00 00 00	 jmp	 $LN21@LoadSTList
$LN25@LoadSTList:

; 571  : 
; 572  : 							szKeyFileName1 = szTmp.Left(nFind);

  005ee	53		 push	 ebx
  005ef	8d 85 88 fb ff
	ff		 lea	 eax, DWORD PTR $T3[ebp]
  005f5	50		 push	 eax
  005f6	8d 8d bc fb ff
	ff		 lea	 ecx, DWORD PTR _szTmp$15[ebp]
  005fc	ff 15 00 00 00
	00		 call	 DWORD PTR __imp_?Left@?$CStringT@DV?$StrTraitMFC_DLL@DV?$ChTraitsCRT@D@ATL@@@@@ATL@@QBE?AV12@H@Z
  00602	50		 push	 eax
  00603	8d 8d 98 fb ff
	ff		 lea	 ecx, DWORD PTR _szKeyFileName1$6[ebp]
  00609	c6 45 fc 0f	 mov	 BYTE PTR __$EHRec$[ebp+8], 15 ; 0000000fH
  0060d	ff 15 00 00 00
	00		 call	 DWORD PTR __imp_??4?$CStringT@DV?$StrTraitMFC_DLL@DV?$ChTraitsCRT@D@ATL@@@@@ATL@@QAEAAV01@ABV01@@Z
  00613	8d 8d 88 fb ff
	ff		 lea	 ecx, DWORD PTR $T3[ebp]
  00619	c6 45 fc 0d	 mov	 BYTE PTR __$EHRec$[ebp+8], 13 ; 0000000dH
  0061d	ff 15 00 00 00
	00		 call	 DWORD PTR __imp_??1?$CStringT@DV?$StrTraitMFC_DLL@DV?$ChTraitsCRT@D@ATL@@@@@ATL@@QAE@XZ

; 573  : 							szKeyFileName2 = szTmp.Mid(nFind+1);

  00623	8d 43 01	 lea	 eax, DWORD PTR [ebx+1]
  00626	50		 push	 eax
  00627	8d 85 84 fb ff
	ff		 lea	 eax, DWORD PTR $T2[ebp]
  0062d	50		 push	 eax
  0062e	8d 8d bc fb ff
	ff		 lea	 ecx, DWORD PTR _szTmp$15[ebp]
  00634	ff 15 00 00 00
	00		 call	 DWORD PTR __imp_?Mid@?$CStringT@DV?$StrTraitMFC_DLL@DV?$ChTraitsCRT@D@ATL@@@@@ATL@@QBE?AV12@H@Z
  0063a	50		 push	 eax
  0063b	8d 8d 9c fb ff
	ff		 lea	 ecx, DWORD PTR _szKeyFileName2$7[ebp]
  00641	c6 45 fc 10	 mov	 BYTE PTR __$EHRec$[ebp+8], 16 ; 00000010H
  00645	ff 15 00 00 00
	00		 call	 DWORD PTR __imp_??4?$CStringT@DV?$StrTraitMFC_DLL@DV?$ChTraitsCRT@D@ATL@@@@@ATL@@QAEAAV01@ABV01@@Z
  0064b	8d 8d 84 fb ff
	ff		 lea	 ecx, DWORD PTR $T2[ebp]
  00651	ff 15 00 00 00
	00		 call	 DWORD PTR __imp_??1?$CStringT@DV?$StrTraitMFC_DLL@DV?$ChTraitsCRT@D@ATL@@@@@ATL@@QAE@XZ

; 574  : 
; 575  : 							CString szSTFilePath;

  00657	8d 8d a0 fb ff
	ff		 lea	 ecx, DWORD PTR _szSTFilePath$8[ebp]
  0065d	ff 15 00 00 00
	00		 call	 DWORD PTR __imp_??0?$CStringT@DV?$StrTraitMFC_DLL@DV?$ChTraitsCRT@D@ATL@@@@@ATL@@QAE@XZ

; 576  : 							szSTFilePath.Format(_T("%s\\%s.ST"), szSTPath, szKeyFileName2);

  00663	ff b5 9c fb ff
	ff		 push	 DWORD PTR _szKeyFileName2$7[ebp]
  00669	8b 1d 00 00 00
	00		 mov	 ebx, DWORD PTR __imp_?Format@?$CStringT@DV?$StrTraitMFC_DLL@DV?$ChTraitsCRT@D@ATL@@@@@ATL@@QAAXPBDZZ
  0066f	8d 85 a0 fb ff
	ff		 lea	 eax, DWORD PTR _szSTFilePath$8[ebp]
  00675	ff b5 b8 fb ff
	ff		 push	 DWORD PTR _szSTPath$14[ebp]
  0067b	c6 45 fc 11	 mov	 BYTE PTR __$EHRec$[ebp+8], 17 ; 00000011H
  0067f	68 00 00 00 00	 push	 OFFSET ??_C@_08OOJOHCD@?$CFs?2?$CFs?4ST@
  00684	50		 push	 eax
  00685	ff d3		 call	 ebx
  00687	83 c4 10	 add	 esp, 16			; 00000010H

; 577  : 							AddSTFile(szSTFilePath, szKeyFileName1);

  0068a	8b ce		 mov	 ecx, esi
  0068c	ff b5 98 fb ff
	ff		 push	 DWORD PTR _szKeyFileName1$6[ebp]
  00692	ff b5 a0 fb ff
	ff		 push	 DWORD PTR _szSTFilePath$8[ebp]
  00698	e8 00 00 00 00	 call	 ?AddSTFile@CSTLoadManager@@IAEXPBD0@Z ; CSTLoadManager::AddSTFile

; 578  : 						}

  0069d	8d 8d a0 fb ff
	ff		 lea	 ecx, DWORD PTR _szSTFilePath$8[ebp]
  006a3	ff 15 00 00 00
	00		 call	 DWORD PTR __imp_??1?$CStringT@DV?$StrTraitMFC_DLL@DV?$ChTraitsCRT@D@ATL@@@@@ATL@@QAE@XZ
$LN21@LoadSTList:

; 552  : 					for(int nFile = 0; nFile < nFileCnt; ++nFile)

  006a9	8d 8d c0 fb ff
	ff		 lea	 ecx, DWORD PTR _szSection$16[ebp]
  006af	ff 15 00 00 00
	00		 call	 DWORD PTR __imp_??1?$CStringT@DV?$StrTraitMFC_DLL@DV?$ChTraitsCRT@D@ATL@@@@@ATL@@QAE@XZ
  006b5	3b bd c8 fb ff
	ff		 cmp	 edi, DWORD PTR _nFileCnt$1$[ebp]
  006bb	0f 8c 13 fe ff
	ff		 jl	 $LL10@LoadSTList
$LN9@LoadSTList:

; 579  : 					}
; 580  : 				}

  006c1	8d 8d bc fb ff
	ff		 lea	 ecx, DWORD PTR _szTmp$15[ebp]
  006c7	ff 15 00 00 00
	00		 call	 DWORD PTR __imp_??1?$CStringT@DV?$StrTraitMFC_DLL@DV?$ChTraitsCRT@D@ATL@@@@@ATL@@QAE@XZ
  006cd	8d 8d 9c fb ff
	ff		 lea	 ecx, DWORD PTR _szKeyFileName2$7[ebp]
  006d3	ff 15 00 00 00
	00		 call	 DWORD PTR __imp_??1?$CStringT@DV?$StrTraitMFC_DLL@DV?$ChTraitsCRT@D@ATL@@@@@ATL@@QAE@XZ
  006d9	8d 8d 98 fb ff
	ff		 lea	 ecx, DWORD PTR _szKeyFileName1$6[ebp]
  006df	c6 45 fc 04	 mov	 BYTE PTR __$EHRec$[ebp+8], 4
  006e3	ff 15 00 00 00
	00		 call	 DWORD PTR __imp_??1?$CStringT@DV?$StrTraitMFC_DLL@DV?$ChTraitsCRT@D@ATL@@@@@ATL@@QAE@XZ
$LN214@LoadSTList:

; 506  : 		for(int nFolder = 0; nFolder < nFolderCnt; ++nFolder)

  006e9	8b 3d 00 00 00
	00		 mov	 edi, DWORD PTR __imp__GetPrivateProfileIntA@16
$LN2@LoadSTList:
  006ef	8b 8d 80 fb ff
	ff		 mov	 ecx, DWORD PTR _nFolder$1$[ebp]
  006f5	3b 8d 94 fb ff
	ff		 cmp	 ecx, DWORD PTR _nFolderCnt$1$[ebp]
  006fb	0f 8c 56 fa ff
	ff		 jl	 $LL4@LoadSTList
$LN3@LoadSTList:

; 581  : 			}
; 582  : 		}
; 583  : 	}

  00701	8d 8d cc fb ff
	ff		 lea	 ecx, DWORD PTR _szRealFolderName$22[ebp]
  00707	ff 15 00 00 00
	00		 call	 DWORD PTR __imp_??1?$CStringT@DV?$StrTraitMFC_DLL@DV?$ChTraitsCRT@D@ATL@@@@@ATL@@QAE@XZ
  0070d	8d 8d ac fb ff
	ff		 lea	 ecx, DWORD PTR _szFolderName$11[ebp]
  00713	ff 15 00 00 00
	00		 call	 DWORD PTR __imp_??1?$CStringT@DV?$StrTraitMFC_DLL@DV?$ChTraitsCRT@D@ATL@@@@@ATL@@QAE@XZ
  00719	8d 8d b8 fb ff
	ff		 lea	 ecx, DWORD PTR _szSTPath$14[ebp]
  0071f	ff 15 00 00 00
	00		 call	 DWORD PTR __imp_??1?$CStringT@DV?$StrTraitMFC_DLL@DV?$ChTraitsCRT@D@ATL@@@@@ATL@@QAE@XZ
  00725	8d 8d b4 fb ff
	ff		 lea	 ecx, DWORD PTR _szSTDataPath$13[ebp]
  0072b	ff 15 00 00 00
	00		 call	 DWORD PTR __imp_??1?$CStringT@DV?$StrTraitMFC_DLL@DV?$ChTraitsCRT@D@ATL@@@@@ATL@@QAE@XZ
  00731	8d 8d d4 fb ff
	ff		 lea	 ecx, DWORD PTR _szOptimizerPath$28[ebp]
  00737	c7 45 fc ff ff
	ff ff		 mov	 DWORD PTR __$EHRec$[ebp+8], -1
  0073e	ff 15 00 00 00
	00		 call	 DWORD PTR __imp_??1?$CStringT@DV?$StrTraitMFC_DLL@DV?$ChTraitsCRT@D@ATL@@@@@ATL@@QAE@XZ
  00744	8b 9d d0 fb ff
	ff		 mov	 ebx, DWORD PTR $T23[ebp]
$LN11@LoadSTList:

; 584  : 
; 585  : 	// User STData
; 586  : 	CFileFind finder;

  0074a	8d 8d 64 fb ff
	ff		 lea	 ecx, DWORD PTR _finder$[ebp]
  00750	e8 00 00 00 00	 call	 ??0CFileFind@@QAE@XZ	; CFileFind::CFileFind

; 587  : 	if(m_parSTPath->GetSize()>1)//KHD:   :  ..

  00755	8b 46 08	 mov	 eax, DWORD PTR [esi+8]
  00758	c7 45 fc 12 00
	00 00		 mov	 DWORD PTR __$EHRec$[ebp+8], 18 ; 00000012H
  0075f	83 78 08 01	 cmp	 DWORD PTR [eax+8], 1
  00763	0f 8e ec 02 00
	00		 jle	 $LN26@LoadSTList
; File C:\Program Files (x86)\Microsoft Visual Studio\2019\Community\VC\Tools\MSVC\14.29.30133\atlmfc\include\afxcoll.inl

; 291  : 		return m_pData[nIndex]; }

  00769	8b 40 04	 mov	 eax, DWORD PTR [eax+4]
; File D:\git\src\IBK\IBK_DRFN\ProjSrc\SrcDrfn\Chart\Common_ST\_STLoadmanager.cpp

; 589  : 		m_szCurrentSTPath = m_parSTPath->GetAt(STUSER_INDEX);

  0076c	8d 4e 0c	 lea	 ecx, DWORD PTR [esi+12]
; File C:\Program Files (x86)\Microsoft Visual Studio\2019\Community\VC\Tools\MSVC\14.29.30133\atlmfc\include\afxcoll.inl

; 291  : 		return m_pData[nIndex]; }

  0076f	83 c0 04	 add	 eax, 4
; File D:\git\src\IBK\IBK_DRFN\ProjSrc\SrcDrfn\Chart\Common_ST\_STLoadmanager.cpp

; 589  : 		m_szCurrentSTPath = m_parSTPath->GetAt(STUSER_INDEX);

  00772	50		 push	 eax
  00773	ff 15 00 00 00
	00		 call	 DWORD PTR __imp_??4?$CStringT@DV?$StrTraitMFC_DLL@DV?$ChTraitsCRT@D@ATL@@@@@ATL@@QAEAAV01@ABV01@@Z

; 590  : 		m_uSTUserCount = 0;
; 591  : 
; 592  : 		/*       .
; 593  : 		   .
; 594  : 		 START
; 595  : 		BOOL bExist = finder.FindFile(m_szCurrentSTPath);
; 596  : 		if(bExist)
; 597  : 		{
; 598  : 			m_bSearching = TRUE;
; 599  : 			m_bSTUserLoading = TRUE;
; 600  : 			DirectorySearch(m_szCurrentSTPath, "*.*", m_bSubFolders);
; 601  : 			m_bSTUserLoading = FALSE;
; 602  : 			m_bSearching = FALSE;
; 603  : 		}
; 604  : 		 END */
; 605  : 
; 606  : 		//     START
; 607  : 		// 
; 608  : 		//		1.((@1) ^1
; 609  : 		//		2.(.ST )	
; 610  : 		//		3./(@4,@5)	^4, ^5
; 611  : 		//		4.(@1) ^1
; 612  : 		m_bSearching = TRUE;
; 613  : 		m_bSTUserLoading = TRUE;
; 614  : 
; 615  : 		CString szSTDir;

  00779	8d 8d d0 fb ff
	ff		 lea	 ecx, DWORD PTR _szSTDir$24[ebp]
  0077f	c7 46 2c 00 00
	00 00		 mov	 DWORD PTR [esi+44], 0
  00786	c7 46 24 01 00
	00 00		 mov	 DWORD PTR [esi+36], 1
  0078d	c7 46 28 01 00
	00 00		 mov	 DWORD PTR [esi+40], 1
  00794	ff 15 00 00 00
	00		 call	 DWORD PTR __imp_??0?$CStringT@DV?$StrTraitMFC_DLL@DV?$ChTraitsCRT@D@ATL@@@@@ATL@@QAE@XZ

; 616  : 		LPCSTR  szDirKey;
; 617  : 
; 618  : 		BOOL bWizardType = FALSE;
; 619  : 		if(p_LoadOption==0) bWizardType = FALSE;

  0079a	8b 45 08	 mov	 eax, DWORD PTR _p_LoadOption$[ebp]
  0079d	33 ff		 xor	 edi, edi
  0079f	85 c0		 test	 eax, eax
  007a1	74 0a		 je	 SHORT $LN29@LoadSTList
$LN27@LoadSTList:

; 620  : 		else if(p_LoadOption==1) bWizardType = TRUE;

  007a3	b9 01 00 00 00	 mov	 ecx, 1
  007a8	3b c1		 cmp	 eax, ecx
  007aa	0f 44 f9	 cmove	 edi, ecx
$LN29@LoadSTList:
; File C:\Program Files (x86)\Microsoft Visual Studio\2019\Community\VC\Tools\MSVC\14.29.30133\atlmfc\include\cstringt.h

; 2401 : 		CStringT strResult( str1.GetManager() );

  007ad	8d 4e 0c	 lea	 ecx, DWORD PTR [esi+12]
; File D:\git\src\IBK\IBK_DRFN\ProjSrc\SrcDrfn\Chart\Common_ST\_STLoadmanager.cpp

; 624  : 		szSTDir = m_szCurrentSTPath + "\\" + szDirKey;

  007b0	c6 45 fc 14	 mov	 BYTE PTR __$EHRec$[ebp+8], 20 ; 00000014H
; File C:\Program Files (x86)\Microsoft Visual Studio\2019\Community\VC\Tools\MSVC\14.29.30133\atlmfc\include\cstringt.h

; 2401 : 		CStringT strResult( str1.GetManager() );

  007b4	ff 15 00 00 00
	00		 call	 DWORD PTR __imp_?GetManager@?$CStringT@DV?$StrTraitMFC_DLL@DV?$ChTraitsCRT@D@ATL@@@@@ATL@@QBEPAUIAtlStringMgr@2@XZ
  007ba	50		 push	 eax
  007bb	8d 8d d4 fb ff
	ff		 lea	 ecx, DWORD PTR $T27[ebp]
  007c1	ff 15 00 00 00
	00		 call	 DWORD PTR __imp_??0?$CStringT@DV?$StrTraitMFC_DLL@DV?$ChTraitsCRT@D@ATL@@@@@ATL@@QAE@PAUIAtlStringMgr@1@@Z
; File C:\Program Files (x86)\Microsoft Visual Studio\2019\Community\VC\Tools\MSVC\14.29.30133\atlmfc\include\atlsimpstr.h

; 519  : 		return( GetData()->nDataLength );

  007c7	8b 46 0c	 mov	 eax, DWORD PTR [esi+12]
; File C:\Program Files (x86)\Microsoft Visual Studio\2019\Community\VC\Tools\MSVC\14.29.30133\atlmfc\include\cstringt.h

; 2405 : 		return( strResult );

  007ca	83 cb 04	 or	 ebx, 4
  007cd	6a 01		 push	 1
  007cf	68 00 00 00 00	 push	 OFFSET ??_C@_01KICIPPFI@?2@
  007d4	89 9d c8 fb ff
	ff		 mov	 DWORD PTR $T18[ebp], ebx
  007da	ff 70 f4	 push	 DWORD PTR [eax-12]
  007dd	50		 push	 eax
  007de	8d 85 d4 fb ff
	ff		 lea	 eax, DWORD PTR $T27[ebp]
  007e4	50		 push	 eax
  007e5	ff 15 00 00 00
	00		 call	 DWORD PTR __imp_?Concatenate@?$CSimpleStringT@D$00@ATL@@KAXAAV12@PBDH1H@Z
  007eb	83 c4 14	 add	 esp, 20			; 00000014H

; 2401 : 		CStringT strResult( str1.GetManager() );

  007ee	8d 8d d4 fb ff
	ff		 lea	 ecx, DWORD PTR $T27[ebp]
; File D:\git\src\IBK\IBK_DRFN\ProjSrc\SrcDrfn\Chart\Common_ST\_STLoadmanager.cpp

; 624  : 		szSTDir = m_szCurrentSTPath + "\\" + szDirKey;

  007f4	c6 45 fc 15	 mov	 BYTE PTR __$EHRec$[ebp+8], 21 ; 00000015H
; File C:\Program Files (x86)\Microsoft Visual Studio\2019\Community\VC\Tools\MSVC\14.29.30133\atlmfc\include\cstringt.h

; 2401 : 		CStringT strResult( str1.GetManager() );

  007f8	ff 15 00 00 00
	00		 call	 DWORD PTR __imp_?GetManager@?$CStringT@DV?$StrTraitMFC_DLL@DV?$ChTraitsCRT@D@ATL@@@@@ATL@@QBEPAUIAtlStringMgr@2@XZ
  007fe	50		 push	 eax
  007ff	8d 8d cc fb ff
	ff		 lea	 ecx, DWORD PTR $T21[ebp]
  00805	ff 15 00 00 00
	00		 call	 DWORD PTR __imp_??0?$CStringT@DV?$StrTraitMFC_DLL@DV?$ChTraitsCRT@D@ATL@@@@@ATL@@QAE@PAUIAtlStringMgr@1@@Z
; File C:\Program Files (x86)\Microsoft Visual Studio\2019\Community\VC\Tools\MSVC\14.29.30133\atlmfc\include\atlsimpstr.h

; 519  : 		return( GetData()->nDataLength );

  0080b	8b 85 d4 fb ff
	ff		 mov	 eax, DWORD PTR $T27[ebp]
; File C:\Program Files (x86)\Microsoft Visual Studio\2019\Community\VC\Tools\MSVC\14.29.30133\atlmfc\include\cstringt.h

; 2405 : 		return( strResult );

  00811	83 cb 08	 or	 ebx, 8
  00814	6a 0e		 push	 14			; 0000000eH
  00816	68 00 00 00 00	 push	 OFFSET ??_C@_0P@GKBMMIPA@?$LL?g?$LP?k?$MA?Z?$LE?$NM?$MA?$KH?$MA?$PM?$LH?$KL@
  0081b	89 9d c8 fb ff
	ff		 mov	 DWORD PTR $T18[ebp], ebx
  00821	ff 70 f4	 push	 DWORD PTR [eax-12]
  00824	50		 push	 eax
  00825	8d 85 cc fb ff
	ff		 lea	 eax, DWORD PTR $T21[ebp]
  0082b	50		 push	 eax
  0082c	ff 15 00 00 00
	00		 call	 DWORD PTR __imp_?Concatenate@?$CSimpleStringT@D$00@ATL@@KAXAAV12@PBDH1H@Z
  00832	83 c4 14	 add	 esp, 20			; 00000014H
; File D:\git\src\IBK\IBK_DRFN\ProjSrc\SrcDrfn\Chart\Common_ST\_STLoadmanager.cpp

; 624  : 		szSTDir = m_szCurrentSTPath + "\\" + szDirKey;

  00835	8d 85 cc fb ff
	ff		 lea	 eax, DWORD PTR $T21[ebp]
  0083b	8d 8d d0 fb ff
	ff		 lea	 ecx, DWORD PTR _szSTDir$24[ebp]
  00841	50		 push	 eax
  00842	ff 15 00 00 00
	00		 call	 DWORD PTR __imp_??4?$CStringT@DV?$StrTraitMFC_DLL@DV?$ChTraitsCRT@D@ATL@@@@@ATL@@QAEAAV01@ABV01@@Z
  00848	8d 8d cc fb ff
	ff		 lea	 ecx, DWORD PTR $T21[ebp]
  0084e	83 e3 f7	 and	 ebx, -9			; fffffff7H
  00851	ff 15 00 00 00
	00		 call	 DWORD PTR __imp_??1?$CStringT@DV?$StrTraitMFC_DLL@DV?$ChTraitsCRT@D@ATL@@@@@ATL@@QAE@XZ
  00857	8d 8d d4 fb ff
	ff		 lea	 ecx, DWORD PTR $T27[ebp]
  0085d	c6 45 fc 13	 mov	 BYTE PTR __$EHRec$[ebp+8], 19 ; 00000013H
  00861	83 e3 fb	 and	 ebx, -5			; fffffffbH
  00864	ff 15 00 00 00
	00		 call	 DWORD PTR __imp_??1?$CStringT@DV?$StrTraitMFC_DLL@DV?$ChTraitsCRT@D@ATL@@@@@ATL@@QAE@XZ

; 625  : 		LoadSTFolderList(szDirKey, szSTDir, 237);

  0086a	68 ed 00 00 00	 push	 237			; 000000edH
  0086f	ff b5 d0 fb ff
	ff		 push	 DWORD PTR _szSTDir$24[ebp]
  00875	8b ce		 mov	 ecx, esi
  00877	68 00 00 00 00	 push	 OFFSET ??_C@_0P@GKBMMIPA@?$LL?g?$LP?k?$MA?Z?$LE?$NM?$MA?$KH?$MA?$PM?$LH?$KL@
  0087c	e8 00 00 00 00	 call	 ?LoadSTFolderList@CSTLoadManager@@IAEXPBD0H@Z ; CSTLoadManager::LoadSTFolderList
; File C:\Program Files (x86)\Microsoft Visual Studio\2019\Community\VC\Tools\MSVC\14.29.30133\atlmfc\include\cstringt.h

; 2401 : 		CStringT strResult( str1.GetManager() );

  00881	8d 4e 0c	 lea	 ecx, DWORD PTR [esi+12]
; File D:\git\src\IBK\IBK_DRFN\ProjSrc\SrcDrfn\Chart\Common_ST\_STLoadmanager.cpp

; 629  : 		szSTDir = m_szCurrentSTPath + "\\" + szDirKey;

  00884	c6 45 fc 16	 mov	 BYTE PTR __$EHRec$[ebp+8], 22 ; 00000016H
; File C:\Program Files (x86)\Microsoft Visual Studio\2019\Community\VC\Tools\MSVC\14.29.30133\atlmfc\include\cstringt.h

; 2401 : 		CStringT strResult( str1.GetManager() );

  00888	ff 15 00 00 00
	00		 call	 DWORD PTR __imp_?GetManager@?$CStringT@DV?$StrTraitMFC_DLL@DV?$ChTraitsCRT@D@ATL@@@@@ATL@@QBEPAUIAtlStringMgr@2@XZ
  0088e	50		 push	 eax
  0088f	8d 8d d4 fb ff
	ff		 lea	 ecx, DWORD PTR $T26[ebp]
  00895	ff 15 00 00 00
	00		 call	 DWORD PTR __imp_??0?$CStringT@DV?$StrTraitMFC_DLL@DV?$ChTraitsCRT@D@ATL@@@@@ATL@@QAE@PAUIAtlStringMgr@1@@Z
; File C:\Program Files (x86)\Microsoft Visual Studio\2019\Community\VC\Tools\MSVC\14.29.30133\atlmfc\include\atlsimpstr.h

; 519  : 		return( GetData()->nDataLength );

  0089b	8b 46 0c	 mov	 eax, DWORD PTR [esi+12]
; File C:\Program Files (x86)\Microsoft Visual Studio\2019\Community\VC\Tools\MSVC\14.29.30133\atlmfc\include\cstringt.h

; 2405 : 		return( strResult );

  0089e	83 cb 10	 or	 ebx, 16			; 00000010H
  008a1	6a 01		 push	 1
  008a3	68 00 00 00 00	 push	 OFFSET ??_C@_01KICIPPFI@?2@
  008a8	89 9d c8 fb ff
	ff		 mov	 DWORD PTR $T18[ebp], ebx
  008ae	ff 70 f4	 push	 DWORD PTR [eax-12]
  008b1	50		 push	 eax
  008b2	8d 85 d4 fb ff
	ff		 lea	 eax, DWORD PTR $T26[ebp]
  008b8	50		 push	 eax
  008b9	ff 15 00 00 00
	00		 call	 DWORD PTR __imp_?Concatenate@?$CSimpleStringT@D$00@ATL@@KAXAAV12@PBDH1H@Z
  008bf	83 c4 14	 add	 esp, 20			; 00000014H

; 2401 : 		CStringT strResult( str1.GetManager() );

  008c2	8d 8d d4 fb ff
	ff		 lea	 ecx, DWORD PTR $T26[ebp]
; File D:\git\src\IBK\IBK_DRFN\ProjSrc\SrcDrfn\Chart\Common_ST\_STLoadmanager.cpp

; 629  : 		szSTDir = m_szCurrentSTPath + "\\" + szDirKey;

  008c8	c6 45 fc 17	 mov	 BYTE PTR __$EHRec$[ebp+8], 23 ; 00000017H
; File C:\Program Files (x86)\Microsoft Visual Studio\2019\Community\VC\Tools\MSVC\14.29.30133\atlmfc\include\cstringt.h

; 2401 : 		CStringT strResult( str1.GetManager() );

  008cc	ff 15 00 00 00
	00		 call	 DWORD PTR __imp_?GetManager@?$CStringT@DV?$StrTraitMFC_DLL@DV?$ChTraitsCRT@D@ATL@@@@@ATL@@QBEPAUIAtlStringMgr@2@XZ
  008d2	50		 push	 eax
  008d3	8d 8d cc fb ff
	ff		 lea	 ecx, DWORD PTR $T20[ebp]
  008d9	ff 15 00 00 00
	00		 call	 DWORD PTR __imp_??0?$CStringT@DV?$StrTraitMFC_DLL@DV?$ChTraitsCRT@D@ATL@@@@@ATL@@QAE@PAUIAtlStringMgr@1@@Z
; File C:\Program Files (x86)\Microsoft Visual Studio\2019\Community\VC\Tools\MSVC\14.29.30133\atlmfc\include\atlsimpstr.h

; 519  : 		return( GetData()->nDataLength );

  008df	8b 85 d4 fb ff
	ff		 mov	 eax, DWORD PTR $T26[ebp]
; File C:\Program Files (x86)\Microsoft Visual Studio\2019\Community\VC\Tools\MSVC\14.29.30133\atlmfc\include\cstringt.h

; 2405 : 		return( strResult );

  008e5	83 cb 20	 or	 ebx, 32			; 00000020H
  008e8	89 9d c8 fb ff
	ff		 mov	 DWORD PTR $T18[ebp], ebx
  008ee	6a 0e		 push	 14			; 0000000eH

; 2403 : 		CThisSimpleString::Concatenate( strResult, str1, str1.GetLength(), psz2, CThisSimpleString::StringLength( psz2 ) );

  008f0	68 00 00 00 00	 push	 OFFSET ??_C@_0P@BCEOGAFN@?$LL?g?$LP?k?$MA?Z?A?$LG?G?U?$MA?$PM?$LH?$KL@
  008f5	ff 70 f4	 push	 DWORD PTR [eax-12]
  008f8	50		 push	 eax
  008f9	8d 85 cc fb ff
	ff		 lea	 eax, DWORD PTR $T20[ebp]
  008ff	50		 push	 eax
  00900	ff 15 00 00 00
	00		 call	 DWORD PTR __imp_?Concatenate@?$CSimpleStringT@D$00@ATL@@KAXAAV12@PBDH1H@Z
  00906	83 c4 14	 add	 esp, 20			; 00000014H
; File D:\git\src\IBK\IBK_DRFN\ProjSrc\SrcDrfn\Chart\Common_ST\_STLoadmanager.cpp

; 629  : 		szSTDir = m_szCurrentSTPath + "\\" + szDirKey;

  00909	8d 85 cc fb ff
	ff		 lea	 eax, DWORD PTR $T20[ebp]
  0090f	8d 8d d0 fb ff
	ff		 lea	 ecx, DWORD PTR _szSTDir$24[ebp]
  00915	50		 push	 eax
  00916	ff 15 00 00 00
	00		 call	 DWORD PTR __imp_??4?$CStringT@DV?$StrTraitMFC_DLL@DV?$ChTraitsCRT@D@ATL@@@@@ATL@@QAEAAV01@ABV01@@Z
  0091c	8d 8d cc fb ff
	ff		 lea	 ecx, DWORD PTR $T20[ebp]
  00922	83 e3 df	 and	 ebx, -33		; ffffffdfH
  00925	ff 15 00 00 00
	00		 call	 DWORD PTR __imp_??1?$CStringT@DV?$StrTraitMFC_DLL@DV?$ChTraitsCRT@D@ATL@@@@@ATL@@QAE@XZ
  0092b	8d 8d d4 fb ff
	ff		 lea	 ecx, DWORD PTR $T26[ebp]
  00931	c6 45 fc 13	 mov	 BYTE PTR __$EHRec$[ebp+8], 19 ; 00000013H
  00935	83 e3 ef	 and	 ebx, -17		; ffffffefH
  00938	ff 15 00 00 00
	00		 call	 DWORD PTR __imp_??1?$CStringT@DV?$StrTraitMFC_DLL@DV?$ChTraitsCRT@D@ATL@@@@@ATL@@QAE@XZ

; 630  : 		LoadSTFolderList(szDirKey, szSTDir, 999);

  0093e	68 e7 03 00 00	 push	 999			; 000003e7H
  00943	ff b5 d0 fb ff
	ff		 push	 DWORD PTR _szSTDir$24[ebp]
  00949	8b ce		 mov	 ecx, esi
  0094b	68 00 00 00 00	 push	 OFFSET ??_C@_0P@BCEOGAFN@?$LL?g?$LP?k?$MA?Z?A?$LG?G?U?$MA?$PM?$LH?$KL@
  00950	e8 00 00 00 00	 call	 ?LoadSTFolderList@CSTLoadManager@@IAEXPBD0H@Z ; CSTLoadManager::LoadSTFolderList
; File C:\Program Files (x86)\Microsoft Visual Studio\2019\Community\VC\Tools\MSVC\14.29.30133\atlmfc\include\cstringt.h

; 2401 : 		CStringT strResult( str1.GetManager() );

  00955	8d 4e 0c	 lea	 ecx, DWORD PTR [esi+12]
; File D:\git\src\IBK\IBK_DRFN\ProjSrc\SrcDrfn\Chart\Common_ST\_STLoadmanager.cpp

; 634  : 		szSTDir = m_szCurrentSTPath + "\\" + szDirKey;

  00958	c6 45 fc 18	 mov	 BYTE PTR __$EHRec$[ebp+8], 24 ; 00000018H
; File C:\Program Files (x86)\Microsoft Visual Studio\2019\Community\VC\Tools\MSVC\14.29.30133\atlmfc\include\cstringt.h

; 2401 : 		CStringT strResult( str1.GetManager() );

  0095c	ff 15 00 00 00
	00		 call	 DWORD PTR __imp_?GetManager@?$CStringT@DV?$StrTraitMFC_DLL@DV?$ChTraitsCRT@D@ATL@@@@@ATL@@QBEPAUIAtlStringMgr@2@XZ
  00962	50		 push	 eax
  00963	8d 8d d4 fb ff
	ff		 lea	 ecx, DWORD PTR $T25[ebp]
  00969	ff 15 00 00 00
	00		 call	 DWORD PTR __imp_??0?$CStringT@DV?$StrTraitMFC_DLL@DV?$ChTraitsCRT@D@ATL@@@@@ATL@@QAE@PAUIAtlStringMgr@1@@Z
; File C:\Program Files (x86)\Microsoft Visual Studio\2019\Community\VC\Tools\MSVC\14.29.30133\atlmfc\include\atlsimpstr.h

; 519  : 		return( GetData()->nDataLength );

  0096f	8b 46 0c	 mov	 eax, DWORD PTR [esi+12]
; File C:\Program Files (x86)\Microsoft Visual Studio\2019\Community\VC\Tools\MSVC\14.29.30133\atlmfc\include\cstringt.h

; 2405 : 		return( strResult );

  00972	83 cb 40	 or	 ebx, 64			; 00000040H
  00975	6a 01		 push	 1
  00977	68 00 00 00 00	 push	 OFFSET ??_C@_01KICIPPFI@?2@
  0097c	89 9d c8 fb ff
	ff		 mov	 DWORD PTR $T18[ebp], ebx
  00982	ff 70 f4	 push	 DWORD PTR [eax-12]
  00985	50		 push	 eax
  00986	8d 85 d4 fb ff
	ff		 lea	 eax, DWORD PTR $T25[ebp]
  0098c	50		 push	 eax
  0098d	ff 15 00 00 00
	00		 call	 DWORD PTR __imp_?Concatenate@?$CSimpleStringT@D$00@ATL@@KAXAAV12@PBDH1H@Z
  00993	83 c4 14	 add	 esp, 20			; 00000014H

; 2401 : 		CStringT strResult( str1.GetManager() );

  00996	8d 8d d4 fb ff
	ff		 lea	 ecx, DWORD PTR $T25[ebp]
; File D:\git\src\IBK\IBK_DRFN\ProjSrc\SrcDrfn\Chart\Common_ST\_STLoadmanager.cpp

; 634  : 		szSTDir = m_szCurrentSTPath + "\\" + szDirKey;

  0099c	c6 45 fc 19	 mov	 BYTE PTR __$EHRec$[ebp+8], 25 ; 00000019H
; File C:\Program Files (x86)\Microsoft Visual Studio\2019\Community\VC\Tools\MSVC\14.29.30133\atlmfc\include\cstringt.h

; 2401 : 		CStringT strResult( str1.GetManager() );

  009a0	ff 15 00 00 00
	00		 call	 DWORD PTR __imp_?GetManager@?$CStringT@DV?$StrTraitMFC_DLL@DV?$ChTraitsCRT@D@ATL@@@@@ATL@@QBEPAUIAtlStringMgr@2@XZ
  009a6	50		 push	 eax
  009a7	8d 8d cc fb ff
	ff		 lea	 ecx, DWORD PTR $T19[ebp]
  009ad	ff 15 00 00 00
	00		 call	 DWORD PTR __imp_??0?$CStringT@DV?$StrTraitMFC_DLL@DV?$ChTraitsCRT@D@ATL@@@@@ATL@@QAE@PAUIAtlStringMgr@1@@Z
; File C:\Program Files (x86)\Microsoft Visual Studio\2019\Community\VC\Tools\MSVC\14.29.30133\atlmfc\include\atlsimpstr.h

; 519  : 		return( GetData()->nDataLength );

  009b3	8b 85 d4 fb ff
	ff		 mov	 eax, DWORD PTR $T25[ebp]
; File C:\Program Files (x86)\Microsoft Visual Studio\2019\Community\VC\Tools\MSVC\14.29.30133\atlmfc\include\cstringt.h

; 2405 : 		return( strResult );

  009b9	81 cb 80 00 00
	00		 or	 ebx, 128		; 00000080H
  009bf	6a 0e		 push	 14			; 0000000eH
  009c1	68 00 00 00 00	 push	 OFFSET ??_C@_0P@GKBMMIPA@?$LL?g?$LP?k?$MA?Z?$LE?$NM?$MA?$KH?$MA?$PM?$LH?$KL@
  009c6	89 9d c8 fb ff
	ff		 mov	 DWORD PTR $T18[ebp], ebx
  009cc	ff 70 f4	 push	 DWORD PTR [eax-12]
  009cf	50		 push	 eax
  009d0	8d 85 cc fb ff
	ff		 lea	 eax, DWORD PTR $T19[ebp]
  009d6	50		 push	 eax
  009d7	ff 15 00 00 00
	00		 call	 DWORD PTR __imp_?Concatenate@?$CSimpleStringT@D$00@ATL@@KAXAAV12@PBDH1H@Z
  009dd	83 c4 14	 add	 esp, 20			; 00000014H
; File D:\git\src\IBK\IBK_DRFN\ProjSrc\SrcDrfn\Chart\Common_ST\_STLoadmanager.cpp

; 634  : 		szSTDir = m_szCurrentSTPath + "\\" + szDirKey;

  009e0	8d 85 cc fb ff
	ff		 lea	 eax, DWORD PTR $T19[ebp]
  009e6	8d 8d d0 fb ff
	ff		 lea	 ecx, DWORD PTR _szSTDir$24[ebp]
  009ec	50		 push	 eax
  009ed	ff 15 00 00 00
	00		 call	 DWORD PTR __imp_??4?$CStringT@DV?$StrTraitMFC_DLL@DV?$ChTraitsCRT@D@ATL@@@@@ATL@@QAEAAV01@ABV01@@Z
  009f3	8d 8d cc fb ff
	ff		 lea	 ecx, DWORD PTR $T19[ebp]
  009f9	ff 15 00 00 00
	00		 call	 DWORD PTR __imp_??1?$CStringT@DV?$StrTraitMFC_DLL@DV?$ChTraitsCRT@D@ATL@@@@@ATL@@QAE@XZ
  009ff	8d 8d d4 fb ff
	ff		 lea	 ecx, DWORD PTR $T25[ebp]
  00a05	c6 45 fc 13	 mov	 BYTE PTR __$EHRec$[ebp+8], 19 ; 00000013H
  00a09	ff 15 00 00 00
	00		 call	 DWORD PTR __imp_??1?$CStringT@DV?$StrTraitMFC_DLL@DV?$ChTraitsCRT@D@ATL@@@@@ATL@@QAE@XZ

; 635  : 		if(!bWizardType)LoadSTFolderList("", szSTDir, 1);

  00a0f	85 ff		 test	 edi, edi
  00a11	75 28		 jne	 SHORT $LN31@LoadSTList
  00a13	6a 01		 push	 1
  00a15	ff b5 d0 fb ff
	ff		 push	 DWORD PTR _szSTDir$24[ebp]
  00a1b	8b ce		 mov	 ecx, esi
  00a1d	68 00 00 00 00	 push	 OFFSET ??_C@_0L@DLNLHHBM@?$LL?g?$LP?k?$MA?Z?A?v?G?$KF@
  00a22	e8 00 00 00 00	 call	 ?LoadSTFolderList@CSTLoadManager@@IAEXPBD0H@Z ; CSTLoadManager::LoadSTFolderList

; 636  : 
; 637  : 		//#.  .     @5 .
; 638  : 		//szDirKey = "";
; 639  : 		//szSTDir = m_szCurrentSTPath + "\\" + szDirKey;
; 640  : 		if(!bWizardType)LoadSTFolderList("", szSTDir, 45);

  00a27	6a 2d		 push	 45			; 0000002dH
  00a29	ff b5 d0 fb ff
	ff		 push	 DWORD PTR _szSTDir$24[ebp]
  00a2f	8b ce		 mov	 ecx, esi
  00a31	68 00 00 00 00	 push	 OFFSET ??_C@_0P@EACIJNAL@?$LL?g?$LP?k?$MA?Z?$LA?$KN?$LM?$LM?$LO?$OA?$LM?$LM@
  00a36	e8 00 00 00 00	 call	 ?LoadSTFolderList@CSTLoadManager@@IAEXPBD0H@Z ; CSTLoadManager::LoadSTFolderList
$LN31@LoadSTList:

; 641  : 
; 642  : 		m_bSTUserLoading = FALSE;
; 643  : 		m_bSearching = FALSE;
; 644  : 		//   END
; 645  : 	}

  00a3b	8d 8d d0 fb ff
	ff		 lea	 ecx, DWORD PTR _szSTDir$24[ebp]
  00a41	c7 46 28 00 00
	00 00		 mov	 DWORD PTR [esi+40], 0
  00a48	c7 46 24 00 00
	00 00		 mov	 DWORD PTR [esi+36], 0
  00a4f	ff 15 00 00 00
	00		 call	 DWORD PTR __imp_??1?$CStringT@DV?$StrTraitMFC_DLL@DV?$ChTraitsCRT@D@ATL@@@@@ATL@@QAE@XZ
$LN26@LoadSTList:

; 646  : }

  00a55	8d 8d 64 fb ff
	ff		 lea	 ecx, DWORD PTR _finder$[ebp]
  00a5b	e8 00 00 00 00	 call	 ??1CFileFind@@UAE@XZ	; CFileFind::~CFileFind
  00a60	8b 4d f4	 mov	 ecx, DWORD PTR __$EHRec$[ebp]
  00a63	64 89 0d 00 00
	00 00		 mov	 DWORD PTR fs:0, ecx
  00a6a	59		 pop	 ecx
  00a6b	5f		 pop	 edi
  00a6c	5e		 pop	 esi
  00a6d	5b		 pop	 ebx
  00a6e	8b 4d f0	 mov	 ecx, DWORD PTR __$ArrayPad$[ebp]
  00a71	33 cd		 xor	 ecx, ebp
  00a73	e8 00 00 00 00	 call	 @__security_check_cookie@4
  00a78	8b e5		 mov	 esp, ebp
  00a7a	5d		 pop	 ebp
  00a7b	c2 08 00	 ret	 8
$LN218@LoadSTList:
; File C:\Program Files (x86)\Microsoft Visual Studio\2019\Community\VC\Tools\MSVC\14.29.30133\atlmfc\include\afxcoll.inl

; 290  : 			AfxThrowInvalidArgException();

  00a7e	e8 00 00 00 00	 call	 ?AfxThrowInvalidArgException@@YGXXZ ; AfxThrowInvalidArgException
$LN216@LoadSTList:
  00a83	cc		 int	 3
_TEXT	ENDS
;	COMDAT text$x
text$x	SEGMENT
__unwindfunclet$?LoadSTListFromSTIndex@CSTLoadManager@@IAEXHH@Z$0:
  00000	8d 8d d4 fb ff
	ff		 lea	 ecx, DWORD PTR _szOptimizerPath$28[ebp]
  00006	ff 25 00 00 00
	00		 jmp	 DWORD PTR __imp_??1?$CStringT@DV?$StrTraitMFC_DLL@DV?$ChTraitsCRT@D@ATL@@@@@ATL@@QAE@XZ
__unwindfunclet$?LoadSTListFromSTIndex@CSTLoadManager@@IAEXHH@Z$1:
  0000c	8d 8d b4 fb ff
	ff		 lea	 ecx, DWORD PTR _szSTDataPath$13[ebp]
  00012	ff 25 00 00 00
	00		 jmp	 DWORD PTR __imp_??1?$CStringT@DV?$StrTraitMFC_DLL@DV?$ChTraitsCRT@D@ATL@@@@@ATL@@QAE@XZ
__unwindfunclet$?LoadSTListFromSTIndex@CSTLoadManager@@IAEXHH@Z$2:
  00018	8d 8d b8 fb ff
	ff		 lea	 ecx, DWORD PTR _szSTPath$14[ebp]
  0001e	ff 25 00 00 00
	00		 jmp	 DWORD PTR __imp_??1?$CStringT@DV?$StrTraitMFC_DLL@DV?$ChTraitsCRT@D@ATL@@@@@ATL@@QAE@XZ
__unwindfunclet$?LoadSTListFromSTIndex@CSTLoadManager@@IAEXHH@Z$3:
  00024	8d 8d ac fb ff
	ff		 lea	 ecx, DWORD PTR _szFolderName$11[ebp]
  0002a	ff 25 00 00 00
	00		 jmp	 DWORD PTR __imp_??1?$CStringT@DV?$StrTraitMFC_DLL@DV?$ChTraitsCRT@D@ATL@@@@@ATL@@QAE@XZ
__unwindfunclet$?LoadSTListFromSTIndex@CSTLoadManager@@IAEXHH@Z$4:
  00030	8d 8d cc fb ff
	ff		 lea	 ecx, DWORD PTR _szRealFolderName$22[ebp]
  00036	ff 25 00 00 00
	00		 jmp	 DWORD PTR __imp_??1?$CStringT@DV?$StrTraitMFC_DLL@DV?$ChTraitsCRT@D@ATL@@@@@ATL@@QAE@XZ
__unwindfunclet$?LoadSTListFromSTIndex@CSTLoadManager@@IAEXHH@Z$26:
  0003c	8b 85 c8 fb ff
	ff		 mov	 eax, DWORD PTR $T18[ebp]
  00042	83 e0 01	 and	 eax, 1
  00045	0f 84 13 00 00
	00		 je	 $LN67@LoadSTList
  0004b	83 a5 c8 fb ff
	ff fe		 and	 DWORD PTR $T18[ebp], -2	; fffffffeH
  00052	8d 8d b0 fb ff
	ff		 lea	 ecx, DWORD PTR $T12[ebp]
  00058	ff 25 00 00 00
	00		 jmp	 DWORD PTR __imp_??1?$CStringT@DV?$StrTraitMFC_DLL@DV?$ChTraitsCRT@D@ATL@@@@@ATL@@QAE@XZ
$LN67@LoadSTList:
  0005e	c3		 ret	 0
__unwindfunclet$?LoadSTListFromSTIndex@CSTLoadManager@@IAEXHH@Z$27:
  0005f	8b 85 c8 fb ff
	ff		 mov	 eax, DWORD PTR $T18[ebp]
  00065	83 e0 02	 and	 eax, 2
  00068	0f 84 13 00 00
	00		 je	 $LN80@LoadSTList
  0006e	83 a5 c8 fb ff
	ff fd		 and	 DWORD PTR $T18[ebp], -3	; fffffffdH
  00075	8d 8d a8 fb ff
	ff		 lea	 ecx, DWORD PTR $T10[ebp]
  0007b	ff 25 00 00 00
	00		 jmp	 DWORD PTR __imp_??1?$CStringT@DV?$StrTraitMFC_DLL@DV?$ChTraitsCRT@D@ATL@@@@@ATL@@QAE@XZ
$LN80@LoadSTList:
  00081	c3		 ret	 0
__unwindfunclet$?LoadSTListFromSTIndex@CSTLoadManager@@IAEXHH@Z$7:
  00082	8d 8d c4 fb ff
	ff		 lea	 ecx, DWORD PTR _szSection$17[ebp]
  00088	ff 25 00 00 00
	00		 jmp	 DWORD PTR __imp_??1?$CStringT@DV?$StrTraitMFC_DLL@DV?$ChTraitsCRT@D@ATL@@@@@ATL@@QAE@XZ
__unwindfunclet$?LoadSTListFromSTIndex@CSTLoadManager@@IAEXHH@Z$8:
  0008e	8d 8d 90 fb ff
	ff		 lea	 ecx, DWORD PTR $T5[ebp]
  00094	ff 25 00 00 00
	00		 jmp	 DWORD PTR __imp_??1?$CStringT@DV?$StrTraitMFC_DLL@DV?$ChTraitsCRT@D@ATL@@@@@ATL@@QAE@XZ
__unwindfunclet$?LoadSTListFromSTIndex@CSTLoadManager@@IAEXHH@Z$9:
  0009a	8d 8d a4 fb ff
	ff		 lea	 ecx, DWORD PTR _szSTFilePath$9[ebp]
  000a0	ff 25 00 00 00
	00		 jmp	 DWORD PTR __imp_??1?$CStringT@DV?$StrTraitMFC_DLL@DV?$ChTraitsCRT@D@ATL@@@@@ATL@@QAE@XZ
__unwindfunclet$?LoadSTListFromSTIndex@CSTLoadManager@@IAEXHH@Z$10:
  000a6	8d 8d 98 fb ff
	ff		 lea	 ecx, DWORD PTR _szKeyFileName1$6[ebp]
  000ac	ff 25 00 00 00
	00		 jmp	 DWORD PTR __imp_??1?$CStringT@DV?$StrTraitMFC_DLL@DV?$ChTraitsCRT@D@ATL@@@@@ATL@@QAE@XZ
__unwindfunclet$?LoadSTListFromSTIndex@CSTLoadManager@@IAEXHH@Z$11:
  000b2	8d 8d 9c fb ff
	ff		 lea	 ecx, DWORD PTR _szKeyFileName2$7[ebp]
  000b8	ff 25 00 00 00
	00		 jmp	 DWORD PTR __imp_??1?$CStringT@DV?$StrTraitMFC_DLL@DV?$ChTraitsCRT@D@ATL@@@@@ATL@@QAE@XZ
__unwindfunclet$?LoadSTListFromSTIndex@CSTLoadManager@@IAEXHH@Z$12:
  000be	8d 8d bc fb ff
	ff		 lea	 ecx, DWORD PTR _szTmp$15[ebp]
  000c4	ff 25 00 00 00
	00		 jmp	 DWORD PTR __imp_??1?$CStringT@DV?$StrTraitMFC_DLL@DV?$ChTraitsCRT@D@ATL@@@@@ATL@@QAE@XZ
__unwindfunclet$?LoadSTListFromSTIndex@CSTLoadManager@@IAEXHH@Z$13:
  000ca	8d 8d c0 fb ff
	ff		 lea	 ecx, DWORD PTR _szSection$16[ebp]
  000d0	ff 25 00 00 00
	00		 jmp	 DWORD PTR __imp_??1?$CStringT@DV?$StrTraitMFC_DLL@DV?$ChTraitsCRT@D@ATL@@@@@ATL@@QAE@XZ
__unwindfunclet$?LoadSTListFromSTIndex@CSTLoadManager@@IAEXHH@Z$14:
  000d6	8d 8d 8c fb ff
	ff		 lea	 ecx, DWORD PTR $T4[ebp]
  000dc	ff 25 00 00 00
	00		 jmp	 DWORD PTR __imp_??1?$CStringT@DV?$StrTraitMFC_DLL@DV?$ChTraitsCRT@D@ATL@@@@@ATL@@QAE@XZ
__unwindfunclet$?LoadSTListFromSTIndex@CSTLoadManager@@IAEXHH@Z$15:
  000e2	8d 8d 88 fb ff
	ff		 lea	 ecx, DWORD PTR $T3[ebp]
  000e8	ff 25 00 00 00
	00		 jmp	 DWORD PTR __imp_??1?$CStringT@DV?$StrTraitMFC_DLL@DV?$ChTraitsCRT@D@ATL@@@@@ATL@@QAE@XZ
__unwindfunclet$?LoadSTListFromSTIndex@CSTLoadManager@@IAEXHH@Z$16:
  000ee	8d 8d 84 fb ff
	ff		 lea	 ecx, DWORD PTR $T2[ebp]
  000f4	ff 25 00 00 00
	00		 jmp	 DWORD PTR __imp_??1?$CStringT@DV?$StrTraitMFC_DLL@DV?$ChTraitsCRT@D@ATL@@@@@ATL@@QAE@XZ
__unwindfunclet$?LoadSTListFromSTIndex@CSTLoadManager@@IAEXHH@Z$17:
  000fa	8d 8d a0 fb ff
	ff		 lea	 ecx, DWORD PTR _szSTFilePath$8[ebp]
  00100	ff 25 00 00 00
	00		 jmp	 DWORD PTR __imp_??1?$CStringT@DV?$StrTraitMFC_DLL@DV?$ChTraitsCRT@D@ATL@@@@@ATL@@QAE@XZ
__unwindfunclet$?LoadSTListFromSTIndex@CSTLoadManager@@IAEXHH@Z$18:
  00106	8d 8d 64 fb ff
	ff		 lea	 ecx, DWORD PTR _finder$[ebp]
  0010c	e9 00 00 00 00	 jmp	 ??1CFileFind@@UAE@XZ	; CFileFind::~CFileFind
__unwindfunclet$?LoadSTListFromSTIndex@CSTLoadManager@@IAEXHH@Z$19:
  00111	8d 8d d0 fb ff
	ff		 lea	 ecx, DWORD PTR _szSTDir$24[ebp]
  00117	ff 25 00 00 00
	00		 jmp	 DWORD PTR __imp_??1?$CStringT@DV?$StrTraitMFC_DLL@DV?$ChTraitsCRT@D@ATL@@@@@ATL@@QAE@XZ
__unwindfunclet$?LoadSTListFromSTIndex@CSTLoadManager@@IAEXHH@Z$28:
  0011d	8b 85 c8 fb ff
	ff		 mov	 eax, DWORD PTR $T18[ebp]
  00123	83 e0 04	 and	 eax, 4
  00126	0f 84 13 00 00
	00		 je	 $LN118@LoadSTList
  0012c	83 a5 c8 fb ff
	ff fb		 and	 DWORD PTR $T18[ebp], -5	; fffffffbH
  00133	8d 8d d4 fb ff
	ff		 lea	 ecx, DWORD PTR $T27[ebp]
  00139	ff 25 00 00 00
	00		 jmp	 DWORD PTR __imp_??1?$CStringT@DV?$StrTraitMFC_DLL@DV?$ChTraitsCRT@D@ATL@@@@@ATL@@QAE@XZ
$LN118@LoadSTList:
  0013f	c3		 ret	 0
__unwindfunclet$?LoadSTListFromSTIndex@CSTLoadManager@@IAEXHH@Z$29:
  00140	8b 85 c8 fb ff
	ff		 mov	 eax, DWORD PTR $T18[ebp]
  00146	83 e0 08	 and	 eax, 8
  00149	0f 84 13 00 00
	00		 je	 $LN131@LoadSTList
  0014f	83 a5 c8 fb ff
	ff f7		 and	 DWORD PTR $T18[ebp], -9	; fffffff7H
  00156	8d 8d cc fb ff
	ff		 lea	 ecx, DWORD PTR $T21[ebp]
  0015c	ff 25 00 00 00
	00		 jmp	 DWORD PTR __imp_??1?$CStringT@DV?$StrTraitMFC_DLL@DV?$ChTraitsCRT@D@ATL@@@@@ATL@@QAE@XZ
$LN131@LoadSTList:
  00162	c3		 ret	 0
__unwindfunclet$?LoadSTListFromSTIndex@CSTLoadManager@@IAEXHH@Z$30:
  00163	8b 85 c8 fb ff
	ff		 mov	 eax, DWORD PTR $T18[ebp]
  00169	83 e0 10	 and	 eax, 16			; 00000010H
  0016c	0f 84 13 00 00
	00		 je	 $LN146@LoadSTList
  00172	83 a5 c8 fb ff
	ff ef		 and	 DWORD PTR $T18[ebp], -17 ; ffffffefH
  00179	8d 8d d4 fb ff
	ff		 lea	 ecx, DWORD PTR $T26[ebp]
  0017f	ff 25 00 00 00
	00		 jmp	 DWORD PTR __imp_??1?$CStringT@DV?$StrTraitMFC_DLL@DV?$ChTraitsCRT@D@ATL@@@@@ATL@@QAE@XZ
$LN146@LoadSTList:
  00185	c3		 ret	 0
__unwindfunclet$?LoadSTListFromSTIndex@CSTLoadManager@@IAEXHH@Z$31:
  00186	8b 85 c8 fb ff
	ff		 mov	 eax, DWORD PTR $T18[ebp]
  0018c	83 e0 20	 and	 eax, 32			; 00000020H
  0018f	0f 84 13 00 00
	00		 je	 $LN159@LoadSTList
  00195	83 a5 c8 fb ff
	ff df		 and	 DWORD PTR $T18[ebp], -33 ; ffffffdfH
  0019c	8d 8d cc fb ff
	ff		 lea	 ecx, DWORD PTR $T20[ebp]
  001a2	ff 25 00 00 00
	00		 jmp	 DWORD PTR __imp_??1?$CStringT@DV?$StrTraitMFC_DLL@DV?$ChTraitsCRT@D@ATL@@@@@ATL@@QAE@XZ
$LN159@LoadSTList:
  001a8	c3		 ret	 0
__unwindfunclet$?LoadSTListFromSTIndex@CSTLoadManager@@IAEXHH@Z$32:
  001a9	8b 85 c8 fb ff
	ff		 mov	 eax, DWORD PTR $T18[ebp]
  001af	83 e0 40	 and	 eax, 64			; 00000040H
  001b2	0f 84 13 00 00
	00		 je	 $LN174@LoadSTList
  001b8	83 a5 c8 fb ff
	ff bf		 and	 DWORD PTR $T18[ebp], -65 ; ffffffbfH
  001bf	8d 8d d4 fb ff
	ff		 lea	 ecx, DWORD PTR $T25[ebp]
  001c5	ff 25 00 00 00
	00		 jmp	 DWORD PTR __imp_??1?$CStringT@DV?$StrTraitMFC_DLL@DV?$ChTraitsCRT@D@ATL@@@@@ATL@@QAE@XZ
$LN174@LoadSTList:
  001cb	c3		 ret	 0
__unwindfunclet$?LoadSTListFromSTIndex@CSTLoadManager@@IAEXHH@Z$33:
  001cc	8b 85 c8 fb ff
	ff		 mov	 eax, DWORD PTR $T18[ebp]
  001d2	25 80 00 00 00	 and	 eax, 128		; 00000080H
  001d7	0f 84 16 00 00
	00		 je	 $LN187@LoadSTList
  001dd	81 a5 c8 fb ff
	ff 7f ff ff ff	 and	 DWORD PTR $T18[ebp], -129 ; ffffff7fH
  001e7	8d 8d cc fb ff
	ff		 lea	 ecx, DWORD PTR $T19[ebp]
  001ed	ff 25 00 00 00
	00		 jmp	 DWORD PTR __imp_??1?$CStringT@DV?$StrTraitMFC_DLL@DV?$ChTraitsCRT@D@ATL@@@@@ATL@@QAE@XZ
$LN187@LoadSTList:
  001f3	c3		 ret	 0
  001f4	cc		 int	 3
  001f5	cc		 int	 3
  001f6	cc		 int	 3
  001f7	cc		 int	 3
  001f8	cc		 int	 3
__ehhandler$?LoadSTListFromSTIndex@CSTLoadManager@@IAEXHH@Z:
  001f9	90		 npad	 1
  001fa	90		 npad	 1
  001fb	8b 54 24 08	 mov	 edx, DWORD PTR [esp+8]
  001ff	8d 42 0c	 lea	 eax, DWORD PTR [edx+12]
  00202	8b 8a 60 fb ff
	ff		 mov	 ecx, DWORD PTR [edx-1184]
  00208	33 c8		 xor	 ecx, eax
  0020a	e8 00 00 00 00	 call	 @__security_check_cookie@4
  0020f	8b 4a fc	 mov	 ecx, DWORD PTR [edx-4]
  00212	33 c8		 xor	 ecx, eax
  00214	e8 00 00 00 00	 call	 @__security_check_cookie@4
  00219	b8 00 00 00 00	 mov	 eax, OFFSET __ehfuncinfo$?LoadSTListFromSTIndex@CSTLoadManager@@IAEXHH@Z
  0021e	e9 00 00 00 00	 jmp	 ___CxxFrameHandler3
text$x	ENDS
?LoadSTListFromSTIndex@CSTLoadManager@@IAEXHH@Z ENDP	; CSTLoadManager::LoadSTListFromSTIndex
; Function compile flags: /Ogtp
; File D:\git\src\IBK\IBK_DRFN\ProjSrc\SrcDrfn\Chart\Common_ST\_STLoadmanager.cpp
; File C:\Program Files (x86)\Microsoft Visual Studio\2019\Community\VC\Tools\MSVC\14.29.30133\atlmfc\include\afxcoll.inl
; File D:\git\src\IBK\IBK_DRFN\ProjSrc\SrcDrfn\Chart\Common_ST\_STLoadmanager.cpp
; File C:\Program Files (x86)\Microsoft Visual Studio\2019\Community\VC\Tools\MSVC\14.29.30133\atlmfc\include\afxcoll.inl
; File D:\git\src\IBK\IBK_DRFN\ProjSrc\SrcDrfn\Chart\Common_ST\_STLoadmanager.cpp
; File C:\Program Files (x86)\Microsoft Visual Studio\2019\Community\VC\Tools\MSVC\14.29.30133\atlmfc\include\afxcoll.inl
; File D:\git\src\IBK\IBK_DRFN\ProjSrc\SrcDrfn\Chart\Common_ST\_STLoadmanager.cpp
; File C:\Program Files (x86)\Microsoft Visual Studio\2019\Community\VC\Tools\MSVC\14.29.30133\atlmfc\include\afxcoll.inl
; File D:\git\src\IBK\IBK_DRFN\ProjSrc\SrcDrfn\Chart\Common_ST\_STLoadmanager.cpp
;	COMDAT ?LoadSTList@CSTLoadManager@@IAEXH@Z
_TEXT	SEGMENT
_finder$ = -40						; size = 28
__$EHRec$ = -12						; size = 12
_bOnlyUser$ = 8						; size = 4
?LoadSTList@CSTLoadManager@@IAEXH@Z PROC		; CSTLoadManager::LoadSTList, COMDAT
; _this$ = ecx

; 444  : {

  00000	55		 push	 ebp
  00001	8b ec		 mov	 ebp, esp
  00003	6a ff		 push	 -1
  00005	68 00 00 00 00	 push	 __ehhandler$?LoadSTList@CSTLoadManager@@IAEXH@Z
  0000a	64 a1 00 00 00
	00		 mov	 eax, DWORD PTR fs:0
  00010	50		 push	 eax
  00011	83 ec 1c	 sub	 esp, 28			; 0000001cH
  00014	56		 push	 esi
  00015	57		 push	 edi
  00016	a1 00 00 00 00	 mov	 eax, DWORD PTR ___security_cookie
  0001b	33 c5		 xor	 eax, ebp
  0001d	50		 push	 eax
  0001e	8d 45 f4	 lea	 eax, DWORD PTR __$EHRec$[ebp]
  00021	64 a3 00 00 00
	00		 mov	 DWORD PTR fs:0, eax
  00027	8b f1		 mov	 esi, ecx

; 445  : 	// Data STData
; 446  : 	CFileFind finder;

  00029	8d 4d d8	 lea	 ecx, DWORD PTR _finder$[ebp]
  0002c	e8 00 00 00 00	 call	 ??0CFileFind@@QAE@XZ	; CFileFind::CFileFind

; 447  : 	if(!bOnlyUser) {

  00031	83 7d 08 00	 cmp	 DWORD PTR _bOnlyUser$[ebp], 0
  00035	c7 45 fc 00 00
	00 00		 mov	 DWORD PTR __$EHRec$[ebp+8], 0
  0003c	75 4a		 jne	 SHORT $LN3@LoadSTList

; 448  : 		m_szCurrentSTPath = m_parSTPath->GetAt(STDATA_INDEX);

  0003e	8b 46 08	 mov	 eax, DWORD PTR [esi+8]
; File C:\Program Files (x86)\Microsoft Visual Studio\2019\Community\VC\Tools\MSVC\14.29.30133\atlmfc\include\afxcoll.inl

; 289  : 		if( nIndex < 0 || nIndex >= m_nSize )

  00041	83 78 08 00	 cmp	 DWORD PTR [eax+8], 0
  00045	0f 8e b7 00 00
	00		 jle	 $LN28@LoadSTList
; File D:\git\src\IBK\IBK_DRFN\ProjSrc\SrcDrfn\Chart\Common_ST\_STLoadmanager.cpp

; 448  : 		m_szCurrentSTPath = m_parSTPath->GetAt(STDATA_INDEX);

  0004b	ff 70 04	 push	 DWORD PTR [eax+4]
  0004e	8d 4e 0c	 lea	 ecx, DWORD PTR [esi+12]
  00051	ff 15 00 00 00
	00		 call	 DWORD PTR __imp_??4?$CStringT@DV?$StrTraitMFC_DLL@DV?$ChTraitsCRT@D@ATL@@@@@ATL@@QAEAAV01@ABV01@@Z

; 449  : 
; 450  : 		BOOL bExist = finder.FindFile(m_szCurrentSTPath);

  00057	6a 00		 push	 0
  00059	ff 76 0c	 push	 DWORD PTR [esi+12]
  0005c	8d 4d d8	 lea	 ecx, DWORD PTR _finder$[ebp]
  0005f	e8 00 00 00 00	 call	 ?FindFile@CFileFind@@UAEHPBDK@Z ; CFileFind::FindFile

; 451  : 		if(bExist)

  00064	85 c0		 test	 eax, eax
  00066	74 20		 je	 SHORT $LN3@LoadSTList

; 452  : 		{
; 453  : 			m_bSearching = TRUE;
; 454  : 			DirectorySearch(m_szCurrentSTPath, "*.*", m_bSubFolders);

  00068	ff 76 18	 push	 DWORD PTR [esi+24]
  0006b	8b ce		 mov	 ecx, esi
  0006d	c7 46 24 01 00
	00 00		 mov	 DWORD PTR [esi+36], 1
  00074	68 00 00 00 00	 push	 OFFSET ??_C@_03EMIMMIHL@?$CK?4?$CK@
  00079	ff 76 0c	 push	 DWORD PTR [esi+12]
  0007c	e8 00 00 00 00	 call	 ?DirectorySearch@CSTLoadManager@@IAEHPBD0H@Z ; CSTLoadManager::DirectorySearch

; 455  : 			m_bSearching = FALSE;

  00081	c7 46 24 00 00
	00 00		 mov	 DWORD PTR [esi+36], 0
$LN3@LoadSTList:

; 456  : 		}
; 457  : 	}
; 458  : 
; 459  : 	// User STData
; 460  : 
; 461  : 	if(m_parSTPath->GetSize()>1)//KHD:   :  ..

  00088	8b 46 08	 mov	 eax, DWORD PTR [esi+8]
  0008b	83 78 08 01	 cmp	 DWORD PTR [eax+8], 1
  0008f	7e 56		 jle	 SHORT $LN5@LoadSTList
; File C:\Program Files (x86)\Microsoft Visual Studio\2019\Community\VC\Tools\MSVC\14.29.30133\atlmfc\include\afxcoll.inl

; 291  : 		return m_pData[nIndex]; }

  00091	8b 40 04	 mov	 eax, DWORD PTR [eax+4]
; File D:\git\src\IBK\IBK_DRFN\ProjSrc\SrcDrfn\Chart\Common_ST\_STLoadmanager.cpp

; 463  : 		m_szCurrentSTPath = m_parSTPath->GetAt(STUSER_INDEX);

  00094	8d 4e 0c	 lea	 ecx, DWORD PTR [esi+12]
; File C:\Program Files (x86)\Microsoft Visual Studio\2019\Community\VC\Tools\MSVC\14.29.30133\atlmfc\include\afxcoll.inl

; 291  : 		return m_pData[nIndex]; }

  00097	83 c0 04	 add	 eax, 4
; File D:\git\src\IBK\IBK_DRFN\ProjSrc\SrcDrfn\Chart\Common_ST\_STLoadmanager.cpp

; 463  : 		m_szCurrentSTPath = m_parSTPath->GetAt(STUSER_INDEX);

  0009a	50		 push	 eax
  0009b	ff 15 00 00 00
	00		 call	 DWORD PTR __imp_??4?$CStringT@DV?$StrTraitMFC_DLL@DV?$ChTraitsCRT@D@ATL@@@@@ATL@@QAEAAV01@ABV01@@Z

; 464  : 		m_uSTUserCount = 0;
; 465  : 		BOOL bExist = finder.FindFile(m_szCurrentSTPath);

  000a1	6a 00		 push	 0
  000a3	ff 76 0c	 push	 DWORD PTR [esi+12]
  000a6	8d 4d d8	 lea	 ecx, DWORD PTR _finder$[ebp]
  000a9	c7 46 2c 00 00
	00 00		 mov	 DWORD PTR [esi+44], 0
  000b0	e8 00 00 00 00	 call	 ?FindFile@CFileFind@@UAEHPBDK@Z ; CFileFind::FindFile

; 466  : 		if(bExist)

  000b5	85 c0		 test	 eax, eax
  000b7	74 2e		 je	 SHORT $LN5@LoadSTList

; 467  : 		{
; 468  : 			m_bSearching = TRUE;
; 469  : 			m_bSTUserLoading = TRUE;
; 470  : 			DirectorySearch(m_szCurrentSTPath, "*.*", m_bSubFolders);

  000b9	ff 76 18	 push	 DWORD PTR [esi+24]
  000bc	8b ce		 mov	 ecx, esi
  000be	c7 46 24 01 00
	00 00		 mov	 DWORD PTR [esi+36], 1
  000c5	68 00 00 00 00	 push	 OFFSET ??_C@_03EMIMMIHL@?$CK?4?$CK@
  000ca	ff 76 0c	 push	 DWORD PTR [esi+12]
  000cd	c7 46 28 01 00
	00 00		 mov	 DWORD PTR [esi+40], 1
  000d4	e8 00 00 00 00	 call	 ?DirectorySearch@CSTLoadManager@@IAEHPBD0H@Z ; CSTLoadManager::DirectorySearch

; 471  : 			m_bSTUserLoading = FALSE;

  000d9	c7 46 28 00 00
	00 00		 mov	 DWORD PTR [esi+40], 0

; 472  : 			m_bSearching = FALSE;

  000e0	c7 46 24 00 00
	00 00		 mov	 DWORD PTR [esi+36], 0
$LN5@LoadSTList:

; 475  : }

  000e7	8d 4d d8	 lea	 ecx, DWORD PTR _finder$[ebp]
  000ea	e8 00 00 00 00	 call	 ??1CFileFind@@UAE@XZ	; CFileFind::~CFileFind
  000ef	8b 4d f4	 mov	 ecx, DWORD PTR __$EHRec$[ebp]
  000f2	64 89 0d 00 00
	00 00		 mov	 DWORD PTR fs:0, ecx
  000f9	59		 pop	 ecx
  000fa	5f		 pop	 edi
  000fb	5e		 pop	 esi
  000fc	8b e5		 mov	 esp, ebp
  000fe	5d		 pop	 ebp
  000ff	c2 04 00	 ret	 4
$LN28@LoadSTList:
; File C:\Program Files (x86)\Microsoft Visual Studio\2019\Community\VC\Tools\MSVC\14.29.30133\atlmfc\include\afxcoll.inl

; 290  : 			AfxThrowInvalidArgException();

  00102	e8 00 00 00 00	 call	 ?AfxThrowInvalidArgException@@YGXXZ ; AfxThrowInvalidArgException
$LN26@LoadSTList:
  00107	cc		 int	 3
_TEXT	ENDS
;	COMDAT text$x
text$x	SEGMENT
__unwindfunclet$?LoadSTList@CSTLoadManager@@IAEXH@Z$0:
  00000	8d 4d d8	 lea	 ecx, DWORD PTR _finder$[ebp]
  00003	e9 00 00 00 00	 jmp	 ??1CFileFind@@UAE@XZ	; CFileFind::~CFileFind
  00008	cc		 int	 3
  00009	cc		 int	 3
  0000a	cc		 int	 3
  0000b	cc		 int	 3
  0000c	cc		 int	 3
__ehhandler$?LoadSTList@CSTLoadManager@@IAEXH@Z:
  0000d	90		 npad	 1
  0000e	90		 npad	 1
  0000f	8b 54 24 08	 mov	 edx, DWORD PTR [esp+8]
  00013	8d 42 0c	 lea	 eax, DWORD PTR [edx+12]
  00016	8b 4a d8	 mov	 ecx, DWORD PTR [edx-40]
  00019	33 c8		 xor	 ecx, eax
  0001b	e8 00 00 00 00	 call	 @__security_check_cookie@4
  00020	b8 00 00 00 00	 mov	 eax, OFFSET __ehfuncinfo$?LoadSTList@CSTLoadManager@@IAEXH@Z
  00025	e9 00 00 00 00	 jmp	 ___CxxFrameHandler3
text$x	ENDS
?LoadSTList@CSTLoadManager@@IAEXH@Z ENDP		; CSTLoadManager::LoadSTList
; Function compile flags: /Ogtp
; File D:\git\src\IBK\IBK_DRFN\ProjSrc\SrcDrfn\Chart\Common_ST\_STLoadmanager.cpp
; File C:\Program Files (x86)\Microsoft Visual Studio\2019\Community\VC\Tools\MSVC\14.29.30133\atlmfc\include\afxcmn.inl
; File D:\git\src\IBK\IBK_DRFN\ProjSrc\SrcDrfn\Chart\Common_ST\_STLoadmanager.cpp
;	COMDAT ?GetRunSTItemInfo@CSTLoadManager@@QAEHV?$CStringT@DV?$StrTraitMFC_DLL@DV?$ChTraitsCRT@D@ATL@@@@@ATL@@AAUSTMNG_ITEMINFO@@@Z
_TEXT	SEGMENT
_nFolderCount$1$ = -48					; size = 4
$T2 = -44						; size = 4
_this$1$ = -40						; size = 4
_szFolderName$ = -36					; size = 4
_nItemIndx$1$ = -32					; size = 4
_nFolderIndx$1$ = -28					; size = 4
_bFound$1$ = -24					; size = 4
_szItemName$ = -20					; size = 4
_pSTListCtrl$1$ = -16					; size = 4
__$EHRec$ = -12						; size = 12
_szSTName$ = 8						; size = 4
_InData$ = 12						; size = 4
?GetRunSTItemInfo@CSTLoadManager@@QAEHV?$CStringT@DV?$StrTraitMFC_DLL@DV?$ChTraitsCRT@D@ATL@@@@@ATL@@AAUSTMNG_ITEMINFO@@@Z PROC ; CSTLoadManager::GetRunSTItemInfo, COMDAT
; _this$ = ecx

; 1018 : {

  00000	55		 push	 ebp
  00001	8b ec		 mov	 ebp, esp
  00003	6a ff		 push	 -1
  00005	68 00 00 00 00	 push	 __ehhandler$?GetRunSTItemInfo@CSTLoadManager@@QAEHV?$CStringT@DV?$StrTraitMFC_DLL@DV?$ChTraitsCRT@D@ATL@@@@@ATL@@AAUSTMNG_ITEMINFO@@@Z
  0000a	64 a1 00 00 00
	00		 mov	 eax, DWORD PTR fs:0
  00010	50		 push	 eax
  00011	83 ec 24	 sub	 esp, 36			; 00000024H
  00014	53		 push	 ebx
  00015	56		 push	 esi
  00016	57		 push	 edi
  00017	a1 00 00 00 00	 mov	 eax, DWORD PTR ___security_cookie
  0001c	33 c5		 xor	 eax, ebp
  0001e	50		 push	 eax
  0001f	8d 45 f4	 lea	 eax, DWORD PTR __$EHRec$[ebp]
  00022	64 a3 00 00 00
	00		 mov	 DWORD PTR fs:0, eax
  00028	8b d9		 mov	 ebx, ecx
  0002a	89 5d d8	 mov	 DWORD PTR _this$1$[ebp], ebx

; 1019 : 	szSTName.MakeUpper();

  0002d	8d 4d 08	 lea	 ecx, DWORD PTR _szSTName$[ebp]
  00030	c7 45 fc 00 00
	00 00		 mov	 DWORD PTR __$EHRec$[ebp+8], 0
  00037	ff 15 00 00 00
	00		 call	 DWORD PTR __imp_?MakeUpper@?$CStringT@DV?$StrTraitMFC_DLL@DV?$ChTraitsCRT@D@ATL@@@@@ATL@@QAEAAV12@XZ

; 1020 : 
; 1021 : 	CString szFolderName(InData.szSTRData);

  0003d	ff 75 0c	 push	 DWORD PTR _InData$[ebp]
  00040	8d 4d dc	 lea	 ecx, DWORD PTR _szFolderName$[ebp]
  00043	ff 15 00 00 00
	00		 call	 DWORD PTR __imp_??0?$CStringT@DV?$StrTraitMFC_DLL@DV?$ChTraitsCRT@D@ATL@@@@@ATL@@QAE@ABV01@@Z

; 1022 : 	CString szItemName;

  00049	8d 4d ec	 lea	 ecx, DWORD PTR _szItemName$[ebp]
  0004c	ff 15 00 00 00
	00		 call	 DWORD PTR __imp_??0?$CStringT@DV?$StrTraitMFC_DLL@DV?$ChTraitsCRT@D@ATL@@@@@ATL@@QAE@XZ

; 1023 : 	int nFolderIndx = 0;
; 1024 : 	int nItemIndx = 0;
; 1025 : 	if(m_pOutBarCtrl && m_pOutBarCtrl->GetSafeHwnd()) 

  00052	8b 4b 04	 mov	 ecx, DWORD PTR [ebx+4]
  00055	33 c0		 xor	 eax, eax
  00057	c6 45 fc 02	 mov	 BYTE PTR __$EHRec$[ebp+8], 2
  0005b	89 45 e4	 mov	 DWORD PTR _nFolderIndx$1$[ebp], eax
  0005e	89 45 e0	 mov	 DWORD PTR _nItemIndx$1$[ebp], eax
  00061	85 c9		 test	 ecx, ecx
  00063	0f 84 07 01 00
	00		 je	 $LN11@GetRunSTIt
  00069	39 41 20	 cmp	 DWORD PTR [ecx+32], eax
  0006c	0f 84 fe 00 00
	00		 je	 $LN11@GetRunSTIt

; 1026 : 	{
; 1027 : 		CSTListCtrl* pSTListCtrl = NULL;
; 1028 : 		BOOL bFound = FALSE;

  00072	33 ff		 xor	 edi, edi
  00074	33 f6		 xor	 esi, esi
  00076	89 7d e8	 mov	 DWORD PTR _bFound$1$[ebp], edi

; 1029 : 		int nFolderCount = m_pOutBarCtrl->GetFolderCount();

  00079	e8 00 00 00 00	 call	 ?GetFolderCount@CSTGfxOutBarCtrl@@QBEHXZ ; CSTGfxOutBarCtrl::GetFolderCount

; 1030 : 		for(int nIndx = 0; nIndx < nFolderCount && !bFound; ++nIndx)

  0007e	33 db		 xor	 ebx, ebx
  00080	89 45 d0	 mov	 DWORD PTR _nFolderCount$1$[ebp], eax
  00083	85 c0		 test	 eax, eax
  00085	0f 8e e5 00 00
	00		 jle	 $LN11@GetRunSTIt
  0008b	0f 1f 44 00 00	 npad	 5
$LL4@GetRunSTIt:
  00090	85 ff		 test	 edi, edi
  00092	0f 85 94 00 00
	00		 jne	 $LN3@GetRunSTIt

; 1031 : 		{
; 1032 : 			pSTListCtrl = (CSTListCtrl*)m_pOutBarCtrl->GetFolderChild(nIndx);

  00098	8b 45 d8	 mov	 eax, DWORD PTR _this$1$[ebp]
  0009b	53		 push	 ebx
  0009c	8b 48 04	 mov	 ecx, DWORD PTR [eax+4]
  0009f	e8 00 00 00 00	 call	 ?GetFolderChild@CSTGfxOutBarCtrl@@QAEPAVCWnd@@H@Z ; CSTGfxOutBarCtrl::GetFolderChild
  000a4	8b f0		 mov	 esi, eax

; 1033 : 			if(szFolderName.Compare(pSTListCtrl->m_szRealFolderName) == 0) 

  000a6	8d 4d dc	 lea	 ecx, DWORD PTR _szFolderName$[ebp]
  000a9	89 75 f0	 mov	 DWORD PTR _pSTListCtrl$1$[ebp], esi
  000ac	ff b6 e0 00 00
	00		 push	 DWORD PTR [esi+224]
  000b2	ff 15 00 00 00
	00		 call	 DWORD PTR __imp_?Compare@?$CStringT@DV?$StrTraitMFC_DLL@DV?$ChTraitsCRT@D@ATL@@@@@ATL@@QBEHPBD@Z
  000b8	85 c0		 test	 eax, eax
  000ba	75 66		 jne	 SHORT $LN2@GetRunSTIt
; File C:\Program Files (x86)\Microsoft Visual Studio\2019\Community\VC\Tools\MSVC\14.29.30133\atlmfc\include\afxcmn.inl

; 155  : 	{ ASSERT(::IsWindow(m_hWnd)); return (int) ::SendMessage(m_hWnd, LVM_GETITEMCOUNT, 0, 0L); }

  000bc	50		 push	 eax
  000bd	50		 push	 eax
  000be	68 04 10 00 00	 push	 4100			; 00001004H
  000c3	ff 76 20	 push	 DWORD PTR [esi+32]
  000c6	ff 15 00 00 00
	00		 call	 DWORD PTR __imp__SendMessageA@16
; File D:\git\src\IBK\IBK_DRFN\ProjSrc\SrcDrfn\Chart\Common_ST\_STLoadmanager.cpp

; 1035 : 				int nItemCount = pSTListCtrl->GetItemCount();

  000cc	8b f8		 mov	 edi, eax

; 1036 : 				for(int nSubIndx = 0; nSubIndx < nItemCount; ++nSubIndx)

  000ce	33 f6		 xor	 esi, esi
  000d0	85 ff		 test	 edi, edi
  000d2	7e 48		 jle	 SHORT $LN37@GetRunSTIt
$LL7@GetRunSTIt:

; 1037 : 				{
; 1038 : 					szItemName = pSTListCtrl->GetItemText(nSubIndx, 0);

  000d4	8b 4d f0	 mov	 ecx, DWORD PTR _pSTListCtrl$1$[ebp]
  000d7	8d 45 d4	 lea	 eax, DWORD PTR $T2[ebp]
  000da	6a 00		 push	 0
  000dc	56		 push	 esi
  000dd	50		 push	 eax
  000de	e8 00 00 00 00	 call	 ?GetItemText@CListCtrl@@QBE?AV?$CStringT@DV?$StrTraitMFC_DLL@DV?$ChTraitsCRT@D@ATL@@@@@ATL@@HH@Z ; CListCtrl::GetItemText
  000e3	50		 push	 eax
  000e4	8d 4d ec	 lea	 ecx, DWORD PTR _szItemName$[ebp]
  000e7	c6 45 fc 03	 mov	 BYTE PTR __$EHRec$[ebp+8], 3
  000eb	ff 15 00 00 00
	00		 call	 DWORD PTR __imp_??4?$CStringT@DV?$StrTraitMFC_DLL@DV?$ChTraitsCRT@D@ATL@@@@@ATL@@QAEAAV01@ABV01@@Z
  000f1	8d 4d d4	 lea	 ecx, DWORD PTR $T2[ebp]
  000f4	c6 45 fc 02	 mov	 BYTE PTR __$EHRec$[ebp+8], 2
  000f8	ff 15 00 00 00
	00		 call	 DWORD PTR __imp_??1?$CStringT@DV?$StrTraitMFC_DLL@DV?$ChTraitsCRT@D@ATL@@@@@ATL@@QAE@XZ

; 1039 : 					szItemName.MakeUpper();

  000fe	8d 4d ec	 lea	 ecx, DWORD PTR _szItemName$[ebp]
  00101	ff 15 00 00 00
	00		 call	 DWORD PTR __imp_?MakeUpper@?$CStringT@DV?$StrTraitMFC_DLL@DV?$ChTraitsCRT@D@ATL@@@@@ATL@@QAEAAV12@XZ

; 1040 : 
; 1041 : 					if(szItemName.Compare(szSTName) == 0) {

  00107	ff 75 08	 push	 DWORD PTR _szSTName$[ebp]
  0010a	8d 4d ec	 lea	 ecx, DWORD PTR _szItemName$[ebp]
  0010d	ff 15 00 00 00
	00		 call	 DWORD PTR __imp_?Compare@?$CStringT@DV?$StrTraitMFC_DLL@DV?$ChTraitsCRT@D@ATL@@@@@ATL@@QBEHPBD@Z
  00113	85 c0		 test	 eax, eax
  00115	74 49		 je	 SHORT $LN30@GetRunSTIt

; 1036 : 				for(int nSubIndx = 0; nSubIndx < nItemCount; ++nSubIndx)

  00117	46		 inc	 esi
  00118	3b f7		 cmp	 esi, edi
  0011a	7c b8		 jl	 SHORT $LL7@GetRunSTIt
$LN37@GetRunSTIt:

; 1030 : 		for(int nIndx = 0; nIndx < nFolderCount && !bFound; ++nIndx)

  0011c	8b 7d e8	 mov	 edi, DWORD PTR _bFound$1$[ebp]
$LN39@GetRunSTIt:
  0011f	8b 75 f0	 mov	 esi, DWORD PTR _pSTListCtrl$1$[ebp]
$LN2@GetRunSTIt:
  00122	43		 inc	 ebx
  00123	3b 5d d0	 cmp	 ebx, DWORD PTR _nFolderCount$1$[ebp]
  00126	0f 8c 64 ff ff
	ff		 jl	 $LL4@GetRunSTIt
$LN3@GetRunSTIt:

; 1045 : 						break;
; 1046 : 					}
; 1047 : 				}
; 1048 : 			}
; 1049 : 		}
; 1050 : 
; 1051 : 		if(pSTListCtrl && bFound)

  0012c	85 f6		 test	 esi, esi
  0012e	74 40		 je	 SHORT $LN11@GetRunSTIt
  00130	85 ff		 test	 edi, edi
  00132	74 3c		 je	 SHORT $LN11@GetRunSTIt

; 1052 : 		{
; 1053 : 			InData.nFolderIndx = nFolderIndx;

  00134	8b 4d 0c	 mov	 ecx, DWORD PTR _InData$[ebp]
  00137	8b 45 e4	 mov	 eax, DWORD PTR _nFolderIndx$1$[ebp]
  0013a	89 41 10	 mov	 DWORD PTR [ecx+16], eax

; 1054 : 			InData.nItemIndx = nItemIndx;

  0013d	8b 45 e0	 mov	 eax, DWORD PTR _nItemIndx$1$[ebp]
  00140	89 41 14	 mov	 DWORD PTR [ecx+20], eax

; 1055 : 			InData.nSTType = pSTListCtrl->m_nSTFolderType;

  00143	8b 86 88 00 00
	00		 mov	 eax, DWORD PTR [esi+136]
  00149	89 41 0c	 mov	 DWORD PTR [ecx+12], eax

; 1056 : //			InData.szSTPath = pSTListCtrl->m_szFullPath;
; 1057 : 			InData.szSTRData = pSTListCtrl->m_szFolderName;

  0014c	8d 86 80 00 00
	00		 lea	 eax, DWORD PTR [esi+128]
  00152	50		 push	 eax
  00153	ff 15 00 00 00
	00		 call	 DWORD PTR __imp_??4?$CStringT@DV?$StrTraitMFC_DLL@DV?$ChTraitsCRT@D@ATL@@@@@ATL@@QAEAAV01@ABV01@@Z
  00159	be 01 00 00 00	 mov	 esi, 1
  0015e	eb 12		 jmp	 SHORT $LN17@GetRunSTIt
$LN30@GetRunSTIt:

; 1042 : 						nFolderIndx = nIndx;
; 1043 : 						nItemIndx = nSubIndx;
; 1044 : 						bFound = TRUE;

  00160	bf 01 00 00 00	 mov	 edi, 1
  00165	89 5d e4	 mov	 DWORD PTR _nFolderIndx$1$[ebp], ebx
  00168	89 75 e0	 mov	 DWORD PTR _nItemIndx$1$[ebp], esi
  0016b	89 7d e8	 mov	 DWORD PTR _bFound$1$[ebp], edi
  0016e	eb af		 jmp	 SHORT $LN39@GetRunSTIt
$LN11@GetRunSTIt:

; 1058 : 
; 1059 : 			return TRUE;
; 1060 : 		}
; 1061 : 	}
; 1062 : 
; 1063 : 	return FALSE;

  00170	33 f6		 xor	 esi, esi
$LN17@GetRunSTIt:
  00172	8d 4d ec	 lea	 ecx, DWORD PTR _szItemName$[ebp]
  00175	ff 15 00 00 00
	00		 call	 DWORD PTR __imp_??1?$CStringT@DV?$StrTraitMFC_DLL@DV?$ChTraitsCRT@D@ATL@@@@@ATL@@QAE@XZ
  0017b	8d 4d dc	 lea	 ecx, DWORD PTR _szFolderName$[ebp]
  0017e	ff 15 00 00 00
	00		 call	 DWORD PTR __imp_??1?$CStringT@DV?$StrTraitMFC_DLL@DV?$ChTraitsCRT@D@ATL@@@@@ATL@@QAE@XZ
  00184	8d 4d 08	 lea	 ecx, DWORD PTR _szSTName$[ebp]
  00187	ff 15 00 00 00
	00		 call	 DWORD PTR __imp_??1?$CStringT@DV?$StrTraitMFC_DLL@DV?$ChTraitsCRT@D@ATL@@@@@ATL@@QAE@XZ
  0018d	8b c6		 mov	 eax, esi

; 1064 : }

  0018f	8b 4d f4	 mov	 ecx, DWORD PTR __$EHRec$[ebp]
  00192	64 89 0d 00 00
	00 00		 mov	 DWORD PTR fs:0, ecx
  00199	59		 pop	 ecx
  0019a	5f		 pop	 edi
  0019b	5e		 pop	 esi
  0019c	5b		 pop	 ebx
  0019d	8b e5		 mov	 esp, ebp
  0019f	5d		 pop	 ebp
  001a0	c2 08 00	 ret	 8
_TEXT	ENDS
;	COMDAT text$x
text$x	SEGMENT
__unwindfunclet$?GetRunSTItemInfo@CSTLoadManager@@QAEHV?$CStringT@DV?$StrTraitMFC_DLL@DV?$ChTraitsCRT@D@ATL@@@@@ATL@@AAUSTMNG_ITEMINFO@@@Z$0:
  00000	8d 4d 08	 lea	 ecx, DWORD PTR _szSTName$[ebp]
  00003	ff 25 00 00 00
	00		 jmp	 DWORD PTR __imp_??1?$CStringT@DV?$StrTraitMFC_DLL@DV?$ChTraitsCRT@D@ATL@@@@@ATL@@QAE@XZ
__unwindfunclet$?GetRunSTItemInfo@CSTLoadManager@@QAEHV?$CStringT@DV?$StrTraitMFC_DLL@DV?$ChTraitsCRT@D@ATL@@@@@ATL@@AAUSTMNG_ITEMINFO@@@Z$1:
  00009	8d 4d dc	 lea	 ecx, DWORD PTR _szFolderName$[ebp]
  0000c	ff 25 00 00 00
	00		 jmp	 DWORD PTR __imp_??1?$CStringT@DV?$StrTraitMFC_DLL@DV?$ChTraitsCRT@D@ATL@@@@@ATL@@QAE@XZ
__unwindfunclet$?GetRunSTItemInfo@CSTLoadManager@@QAEHV?$CStringT@DV?$StrTraitMFC_DLL@DV?$ChTraitsCRT@D@ATL@@@@@ATL@@AAUSTMNG_ITEMINFO@@@Z$2:
  00012	8d 4d ec	 lea	 ecx, DWORD PTR _szItemName$[ebp]
  00015	ff 25 00 00 00
	00		 jmp	 DWORD PTR __imp_??1?$CStringT@DV?$StrTraitMFC_DLL@DV?$ChTraitsCRT@D@ATL@@@@@ATL@@QAE@XZ
__unwindfunclet$?GetRunSTItemInfo@CSTLoadManager@@QAEHV?$CStringT@DV?$StrTraitMFC_DLL@DV?$ChTraitsCRT@D@ATL@@@@@ATL@@AAUSTMNG_ITEMINFO@@@Z$3:
  0001b	8d 4d d4	 lea	 ecx, DWORD PTR $T2[ebp]
  0001e	ff 25 00 00 00
	00		 jmp	 DWORD PTR __imp_??1?$CStringT@DV?$StrTraitMFC_DLL@DV?$ChTraitsCRT@D@ATL@@@@@ATL@@QAE@XZ
  00024	cc		 int	 3
  00025	cc		 int	 3
  00026	cc		 int	 3
  00027	cc		 int	 3
  00028	cc		 int	 3
__ehhandler$?GetRunSTItemInfo@CSTLoadManager@@QAEHV?$CStringT@DV?$StrTraitMFC_DLL@DV?$ChTraitsCRT@D@ATL@@@@@ATL@@AAUSTMNG_ITEMINFO@@@Z:
  00029	90		 npad	 1
  0002a	90		 npad	 1
  0002b	8b 54 24 08	 mov	 edx, DWORD PTR [esp+8]
  0002f	8d 42 0c	 lea	 eax, DWORD PTR [edx+12]
  00032	8b 4a cc	 mov	 ecx, DWORD PTR [edx-52]
  00035	33 c8		 xor	 ecx, eax
  00037	e8 00 00 00 00	 call	 @__security_check_cookie@4
  0003c	b8 00 00 00 00	 mov	 eax, OFFSET __ehfuncinfo$?GetRunSTItemInfo@CSTLoadManager@@QAEHV?$CStringT@DV?$StrTraitMFC_DLL@DV?$ChTraitsCRT@D@ATL@@@@@ATL@@AAUSTMNG_ITEMINFO@@@Z
  00041	e9 00 00 00 00	 jmp	 ___CxxFrameHandler3
text$x	ENDS
?GetRunSTItemInfo@CSTLoadManager@@QAEHV?$CStringT@DV?$StrTraitMFC_DLL@DV?$ChTraitsCRT@D@ATL@@@@@ATL@@AAUSTMNG_ITEMINFO@@@Z ENDP ; CSTLoadManager::GetRunSTItemInfo
; Function compile flags: /Ogtp
; File D:\git\src\IBK\IBK_DRFN\ProjSrc\SrcDrfn\Chart\Common_ST\_STLoadmanager.cpp
; File C:\Program Files (x86)\Microsoft Visual Studio\2019\Community\VC\Tools\MSVC\14.29.30133\atlmfc\include\afxcmn.inl
; File D:\git\src\IBK\IBK_DRFN\ProjSrc\SrcDrfn\Chart\Common_ST\_STLoadmanager.cpp
; File C:\Program Files (x86)\Microsoft Visual Studio\2019\Community\VC\Tools\MSVC\14.29.30133\atlmfc\include\afxcmn.inl
; File D:\git\src\IBK\IBK_DRFN\ProjSrc\SrcDrfn\Chart\Common_ST\_STLoadmanager.cpp
; File C:\Program Files (x86)\Microsoft Visual Studio\2019\Community\VC\Tools\MSVC\14.29.30133\atlmfc\include\afxcmn.inl
; File D:\git\src\IBK\IBK_DRFN\ProjSrc\SrcDrfn\Chart\Common_ST\_STLoadmanager.cpp
;	COMDAT ?DeleteSTFile@CSTLoadManager@@QAEXHV?$CStringT@DV?$StrTraitMFC_DLL@DV?$ChTraitsCRT@D@ATL@@@@@ATL@@@Z
_TEXT	SEGMENT
_szFindIndx$2 = -24					; size = 4
$T3 = -20						; size = 4
$T4 = -16						; size = 4
__$EHRec$ = -12						; size = 12
_szItemName$5 = 8					; size = 4
_nUserIndx$ = 8						; size = 4
_szSTFile$ = 12						; size = 4
?DeleteSTFile@CSTLoadManager@@QAEXHV?$CStringT@DV?$StrTraitMFC_DLL@DV?$ChTraitsCRT@D@ATL@@@@@ATL@@@Z PROC ; CSTLoadManager::DeleteSTFile, COMDAT
; _this$ = ecx

; 171  : {

  00000	55		 push	 ebp
  00001	8b ec		 mov	 ebp, esp
  00003	6a ff		 push	 -1
  00005	68 00 00 00 00	 push	 __ehhandler$?DeleteSTFile@CSTLoadManager@@QAEXHV?$CStringT@DV?$StrTraitMFC_DLL@DV?$ChTraitsCRT@D@ATL@@@@@ATL@@@Z
  0000a	64 a1 00 00 00
	00		 mov	 eax, DWORD PTR fs:0
  00010	50		 push	 eax
  00011	83 ec 0c	 sub	 esp, 12			; 0000000cH
  00014	53		 push	 ebx
  00015	56		 push	 esi
  00016	57		 push	 edi
  00017	a1 00 00 00 00	 mov	 eax, DWORD PTR ___security_cookie
  0001c	33 c5		 xor	 eax, ebp
  0001e	50		 push	 eax
  0001f	8d 45 f4	 lea	 eax, DWORD PTR __$EHRec$[ebp]
  00022	64 a3 00 00 00
	00		 mov	 DWORD PTR fs:0, eax

; 172  : 	CSTListCtrl* pSTListCtrl = NULL;
; 173  : 	if(pSTListCtrl = (CSTListCtrl*)m_pOutBarCtrl->GetFolderChild(nUserIndx))

  00028	ff 75 08	 push	 DWORD PTR _nUserIndx$[ebp]
  0002b	8b 49 04	 mov	 ecx, DWORD PTR [ecx+4]
  0002e	c7 45 fc 00 00
	00 00		 mov	 DWORD PTR __$EHRec$[ebp+8], 0
  00035	e8 00 00 00 00	 call	 ?GetFolderChild@CSTGfxOutBarCtrl@@QAEPAVCWnd@@H@Z ; CSTGfxOutBarCtrl::GetFolderChild
  0003a	8b d8		 mov	 ebx, eax
  0003c	85 db		 test	 ebx, ebx
  0003e	0f 84 d2 00 00
	00		 je	 $LN5@DeleteSTFi

; 174  : 	{
; 175  : 		CString szItemName;

  00044	8d 4d 08	 lea	 ecx, DWORD PTR _szItemName$5[ebp]
  00047	ff 15 00 00 00
	00		 call	 DWORD PTR __imp_??0?$CStringT@DV?$StrTraitMFC_DLL@DV?$ChTraitsCRT@D@ATL@@@@@ATL@@QAE@XZ

; 176  : 		CString szFindIndx;

  0004d	8d 4d e8	 lea	 ecx, DWORD PTR _szFindIndx$2[ebp]
  00050	ff 15 00 00 00
	00		 call	 DWORD PTR __imp_??0?$CStringT@DV?$StrTraitMFC_DLL@DV?$ChTraitsCRT@D@ATL@@@@@ATL@@QAE@XZ
; File C:\Program Files (x86)\Microsoft Visual Studio\2019\Community\VC\Tools\MSVC\14.29.30133\atlmfc\include\afxcmn.inl

; 155  : 	{ ASSERT(::IsWindow(m_hWnd)); return (int) ::SendMessage(m_hWnd, LVM_GETITEMCOUNT, 0, 0L); }

  00056	6a 00		 push	 0
  00058	6a 00		 push	 0
  0005a	68 04 10 00 00	 push	 4100			; 00001004H
  0005f	ff 73 20	 push	 DWORD PTR [ebx+32]
; File D:\git\src\IBK\IBK_DRFN\ProjSrc\SrcDrfn\Chart\Common_ST\_STLoadmanager.cpp

; 176  : 		CString szFindIndx;

  00062	c6 45 fc 02	 mov	 BYTE PTR __$EHRec$[ebp+8], 2
; File C:\Program Files (x86)\Microsoft Visual Studio\2019\Community\VC\Tools\MSVC\14.29.30133\atlmfc\include\afxcmn.inl

; 155  : 	{ ASSERT(::IsWindow(m_hWnd)); return (int) ::SendMessage(m_hWnd, LVM_GETITEMCOUNT, 0, 0L); }

  00066	ff 15 00 00 00
	00		 call	 DWORD PTR __imp__SendMessageA@16
; File D:\git\src\IBK\IBK_DRFN\ProjSrc\SrcDrfn\Chart\Common_ST\_STLoadmanager.cpp

; 178  : 		int nItemCount = pSTListCtrl->GetItemCount();

  0006c	8b f8		 mov	 edi, eax

; 179  : 		int nIndx = 0;
; 180  : 		for( nIndx = 0; nIndx < nItemCount; ++nIndx)

  0006e	33 f6		 xor	 esi, esi
  00070	85 ff		 test	 edi, edi
  00072	0f 8e 8c 00 00
	00		 jle	 $LN8@DeleteSTFi
$LL4@DeleteSTFi:

; 181  : 		{
; 182  : 			szItemName = pSTListCtrl->GetItemText(nIndx, 0);

  00078	6a 00		 push	 0
  0007a	56		 push	 esi
  0007b	8d 45 f0	 lea	 eax, DWORD PTR $T4[ebp]
  0007e	8b cb		 mov	 ecx, ebx
  00080	50		 push	 eax
  00081	e8 00 00 00 00	 call	 ?GetItemText@CListCtrl@@QBE?AV?$CStringT@DV?$StrTraitMFC_DLL@DV?$ChTraitsCRT@D@ATL@@@@@ATL@@HH@Z ; CListCtrl::GetItemText
  00086	50		 push	 eax
  00087	8d 4d 08	 lea	 ecx, DWORD PTR _szItemName$5[ebp]
  0008a	c6 45 fc 03	 mov	 BYTE PTR __$EHRec$[ebp+8], 3
  0008e	ff 15 00 00 00
	00		 call	 DWORD PTR __imp_??4?$CStringT@DV?$StrTraitMFC_DLL@DV?$ChTraitsCRT@D@ATL@@@@@ATL@@QAEAAV01@ABV01@@Z
  00094	8d 4d f0	 lea	 ecx, DWORD PTR $T4[ebp]
  00097	c6 45 fc 02	 mov	 BYTE PTR __$EHRec$[ebp+8], 2
  0009b	ff 15 00 00 00
	00		 call	 DWORD PTR __imp_??1?$CStringT@DV?$StrTraitMFC_DLL@DV?$ChTraitsCRT@D@ATL@@@@@ATL@@QAE@XZ

; 183  : 			int nSTType = -1;
; 184  : 			if((nSTType = szItemName.Find(gSTGubunKey)) != -1)

  000a1	6a 00		 push	 0
  000a3	6a 5e		 push	 94			; 0000005eH
  000a5	8d 4d 08	 lea	 ecx, DWORD PTR _szItemName$5[ebp]
  000a8	ff 15 00 00 00
	00		 call	 DWORD PTR __imp_?Find@?$CStringT@DV?$StrTraitMFC_DLL@DV?$ChTraitsCRT@D@ATL@@@@@ATL@@QBEHDH@Z
  000ae	83 f8 ff	 cmp	 eax, -1
  000b1	74 29		 je	 SHORT $LN6@DeleteSTFi

; 185  : 				szItemName = szItemName.Left(nSTType);

  000b3	50		 push	 eax
  000b4	8d 45 ec	 lea	 eax, DWORD PTR $T3[ebp]
  000b7	50		 push	 eax
  000b8	8d 4d 08	 lea	 ecx, DWORD PTR _szItemName$5[ebp]
  000bb	ff 15 00 00 00
	00		 call	 DWORD PTR __imp_?Left@?$CStringT@DV?$StrTraitMFC_DLL@DV?$ChTraitsCRT@D@ATL@@@@@ATL@@QBE?AV12@H@Z
  000c1	50		 push	 eax
  000c2	8d 4d 08	 lea	 ecx, DWORD PTR _szItemName$5[ebp]
  000c5	c6 45 fc 04	 mov	 BYTE PTR __$EHRec$[ebp+8], 4
  000c9	ff 15 00 00 00
	00		 call	 DWORD PTR __imp_??4?$CStringT@DV?$StrTraitMFC_DLL@DV?$ChTraitsCRT@D@ATL@@@@@ATL@@QAEAAV01@ABV01@@Z
  000cf	8d 4d ec	 lea	 ecx, DWORD PTR $T3[ebp]
  000d2	c6 45 fc 02	 mov	 BYTE PTR __$EHRec$[ebp+8], 2
  000d6	ff 15 00 00 00
	00		 call	 DWORD PTR __imp_??1?$CStringT@DV?$StrTraitMFC_DLL@DV?$ChTraitsCRT@D@ATL@@@@@ATL@@QAE@XZ
$LN6@DeleteSTFi:

; 186  : 
; 187  : 			if(szItemName.CompareNoCase(szSTFile) == 0)

  000dc	ff 75 0c	 push	 DWORD PTR _szSTFile$[ebp]
  000df	8d 4d 08	 lea	 ecx, DWORD PTR _szItemName$5[ebp]
  000e2	ff 15 00 00 00
	00		 call	 DWORD PTR __imp_?CompareNoCase@?$CStringT@DV?$StrTraitMFC_DLL@DV?$ChTraitsCRT@D@ATL@@@@@ATL@@QBEHPBD@Z
  000e8	85 c0		 test	 eax, eax
  000ea	74 07		 je	 SHORT $LN22@DeleteSTFi

; 179  : 		int nIndx = 0;
; 180  : 		for( nIndx = 0; nIndx < nItemCount; ++nIndx)

  000ec	46		 inc	 esi
  000ed	3b f7		 cmp	 esi, edi
  000ef	7c 87		 jl	 SHORT $LL4@DeleteSTFi

; 186  : 
; 187  : 			if(szItemName.CompareNoCase(szSTFile) == 0)

  000f1	eb 11		 jmp	 SHORT $LN8@DeleteSTFi
$LN22@DeleteSTFi:
; File C:\Program Files (x86)\Microsoft Visual Studio\2019\Community\VC\Tools\MSVC\14.29.30133\atlmfc\include\afxcmn.inl

; 169  : 	{ ASSERT(::IsWindow(m_hWnd)); return (BOOL) ::SendMessage(m_hWnd, LVM_DELETEITEM, nItem, 0L); }

  000f3	6a 00		 push	 0
  000f5	56		 push	 esi
  000f6	68 08 10 00 00	 push	 4104			; 00001008H
  000fb	ff 73 20	 push	 DWORD PTR [ebx+32]
  000fe	ff 15 00 00 00
	00		 call	 DWORD PTR __imp__SendMessageA@16
$LN8@DeleteSTFi:
; File D:\git\src\IBK\IBK_DRFN\ProjSrc\SrcDrfn\Chart\Common_ST\_STLoadmanager.cpp

; 196  : 	}

  00104	8d 4d e8	 lea	 ecx, DWORD PTR _szFindIndx$2[ebp]
  00107	ff 15 00 00 00
	00		 call	 DWORD PTR __imp_??1?$CStringT@DV?$StrTraitMFC_DLL@DV?$ChTraitsCRT@D@ATL@@@@@ATL@@QAE@XZ
  0010d	8d 4d 08	 lea	 ecx, DWORD PTR _szItemName$5[ebp]
  00110	ff 15 00 00 00
	00		 call	 DWORD PTR __imp_??1?$CStringT@DV?$StrTraitMFC_DLL@DV?$ChTraitsCRT@D@ATL@@@@@ATL@@QAE@XZ
$LN5@DeleteSTFi:

; 197  : }

  00116	8d 4d 0c	 lea	 ecx, DWORD PTR _szSTFile$[ebp]
  00119	ff 15 00 00 00
	00		 call	 DWORD PTR __imp_??1?$CStringT@DV?$StrTraitMFC_DLL@DV?$ChTraitsCRT@D@ATL@@@@@ATL@@QAE@XZ
  0011f	8b 4d f4	 mov	 ecx, DWORD PTR __$EHRec$[ebp]
  00122	64 89 0d 00 00
	00 00		 mov	 DWORD PTR fs:0, ecx
  00129	59		 pop	 ecx
  0012a	5f		 pop	 edi
  0012b	5e		 pop	 esi
  0012c	5b		 pop	 ebx
  0012d	8b e5		 mov	 esp, ebp
  0012f	5d		 pop	 ebp
  00130	c2 08 00	 ret	 8
_TEXT	ENDS
;	COMDAT text$x
text$x	SEGMENT
__unwindfunclet$?DeleteSTFile@CSTLoadManager@@QAEXHV?$CStringT@DV?$StrTraitMFC_DLL@DV?$ChTraitsCRT@D@ATL@@@@@ATL@@@Z$0:
  00000	8d 4d 0c	 lea	 ecx, DWORD PTR _szSTFile$[ebp]
  00003	ff 25 00 00 00
	00		 jmp	 DWORD PTR __imp_??1?$CStringT@DV?$StrTraitMFC_DLL@DV?$ChTraitsCRT@D@ATL@@@@@ATL@@QAE@XZ
__unwindfunclet$?DeleteSTFile@CSTLoadManager@@QAEXHV?$CStringT@DV?$StrTraitMFC_DLL@DV?$ChTraitsCRT@D@ATL@@@@@ATL@@@Z$1:
  00009	8d 4d 08	 lea	 ecx, DWORD PTR _szItemName$5[ebp]
  0000c	ff 25 00 00 00
	00		 jmp	 DWORD PTR __imp_??1?$CStringT@DV?$StrTraitMFC_DLL@DV?$ChTraitsCRT@D@ATL@@@@@ATL@@QAE@XZ
__unwindfunclet$?DeleteSTFile@CSTLoadManager@@QAEXHV?$CStringT@DV?$StrTraitMFC_DLL@DV?$ChTraitsCRT@D@ATL@@@@@ATL@@@Z$2:
  00012	8d 4d e8	 lea	 ecx, DWORD PTR _szFindIndx$2[ebp]
  00015	ff 25 00 00 00
	00		 jmp	 DWORD PTR __imp_??1?$CStringT@DV?$StrTraitMFC_DLL@DV?$ChTraitsCRT@D@ATL@@@@@ATL@@QAE@XZ
__unwindfunclet$?DeleteSTFile@CSTLoadManager@@QAEXHV?$CStringT@DV?$StrTraitMFC_DLL@DV?$ChTraitsCRT@D@ATL@@@@@ATL@@@Z$3:
  0001b	8d 4d f0	 lea	 ecx, DWORD PTR $T4[ebp]
  0001e	ff 25 00 00 00
	00		 jmp	 DWORD PTR __imp_??1?$CStringT@DV?$StrTraitMFC_DLL@DV?$ChTraitsCRT@D@ATL@@@@@ATL@@QAE@XZ
__unwindfunclet$?DeleteSTFile@CSTLoadManager@@QAEXHV?$CStringT@DV?$StrTraitMFC_DLL@DV?$ChTraitsCRT@D@ATL@@@@@ATL@@@Z$4:
  00024	8d 4d ec	 lea	 ecx, DWORD PTR $T3[ebp]
  00027	ff 25 00 00 00
	00		 jmp	 DWORD PTR __imp_??1?$CStringT@DV?$StrTraitMFC_DLL@DV?$ChTraitsCRT@D@ATL@@@@@ATL@@QAE@XZ
  0002d	cc		 int	 3
  0002e	cc		 int	 3
  0002f	cc		 int	 3
  00030	cc		 int	 3
  00031	cc		 int	 3
__ehhandler$?DeleteSTFile@CSTLoadManager@@QAEXHV?$CStringT@DV?$StrTraitMFC_DLL@DV?$ChTraitsCRT@D@ATL@@@@@ATL@@@Z:
  00032	90		 npad	 1
  00033	90		 npad	 1
  00034	8b 54 24 08	 mov	 edx, DWORD PTR [esp+8]
  00038	8d 42 0c	 lea	 eax, DWORD PTR [edx+12]
  0003b	8b 4a e4	 mov	 ecx, DWORD PTR [edx-28]
  0003e	33 c8		 xor	 ecx, eax
  00040	e8 00 00 00 00	 call	 @__security_check_cookie@4
  00045	b8 00 00 00 00	 mov	 eax, OFFSET __ehfuncinfo$?DeleteSTFile@CSTLoadManager@@QAEXHV?$CStringT@DV?$StrTraitMFC_DLL@DV?$ChTraitsCRT@D@ATL@@@@@ATL@@@Z
  0004a	e9 00 00 00 00	 jmp	 ___CxxFrameHandler3
text$x	ENDS
?DeleteSTFile@CSTLoadManager@@QAEXHV?$CStringT@DV?$StrTraitMFC_DLL@DV?$ChTraitsCRT@D@ATL@@@@@ATL@@@Z ENDP ; CSTLoadManager::DeleteSTFile
; Function compile flags: /Ogtp
; File D:\git\src\IBK\IBK_DRFN\ProjSrc\SrcDrfn\Chart\Common_ST\_STLoadmanager.cpp
; File C:\Program Files (x86)\Microsoft Visual Studio\2019\Community\VC\Tools\MSVC\14.29.30133\atlmfc\include\afxcmn.inl
; File D:\git\src\IBK\IBK_DRFN\ProjSrc\SrcDrfn\Chart\Common_ST\_STLoadmanager.cpp
; File C:\Program Files (x86)\Microsoft Visual Studio\2019\Community\VC\Tools\MSVC\14.29.30133\atlmfc\include\afxcmn.inl
; File D:\git\src\IBK\IBK_DRFN\ProjSrc\SrcDrfn\Chart\Common_ST\_STLoadmanager.cpp
; File C:\Program Files (x86)\Microsoft Visual Studio\2019\Community\VC\Tools\MSVC\14.29.30133\atlmfc\include\afxcmn.inl
; File D:\git\src\IBK\IBK_DRFN\ProjSrc\SrcDrfn\Chart\Common_ST\_STLoadmanager.cpp
;	COMDAT ?GetSelectedItem@CSTLoadManager@@QAEHAAUSTMNG_ITEMINFO@@@Z
_TEXT	SEGMENT
_nFolderIndx$1$ = -20					; size = 4
_szText$2 = -16						; size = 4
__$EHRec$ = -12						; size = 12
_InData$ = 8						; size = 4
?GetSelectedItem@CSTLoadManager@@QAEHAAUSTMNG_ITEMINFO@@@Z PROC ; CSTLoadManager::GetSelectedItem, COMDAT
; _this$ = ecx

; 353  : {

  00000	55		 push	 ebp
  00001	8b ec		 mov	 ebp, esp
  00003	6a ff		 push	 -1
  00005	68 00 00 00 00	 push	 __ehhandler$?GetSelectedItem@CSTLoadManager@@QAEHAAUSTMNG_ITEMINFO@@@Z
  0000a	64 a1 00 00 00
	00		 mov	 eax, DWORD PTR fs:0
  00010	50		 push	 eax
  00011	83 ec 08	 sub	 esp, 8
  00014	53		 push	 ebx
  00015	56		 push	 esi
  00016	57		 push	 edi
  00017	a1 00 00 00 00	 mov	 eax, DWORD PTR ___security_cookie
  0001c	33 c5		 xor	 eax, ebp
  0001e	50		 push	 eax
  0001f	8d 45 f4	 lea	 eax, DWORD PTR __$EHRec$[ebp]
  00022	64 a3 00 00 00
	00		 mov	 DWORD PTR fs:0, eax
  00028	8b f1		 mov	 esi, ecx

; 354  : 	if(m_pOutBarCtrl) {

  0002a	8b 4e 04	 mov	 ecx, DWORD PTR [esi+4]
  0002d	85 c9		 test	 ecx, ecx
  0002f	0f 84 e6 00 00
	00		 je	 $LN3@GetSelecte

; 355  : 		int nFolderIndx = m_pOutBarCtrl->GetSelFolder();

  00035	e8 00 00 00 00	 call	 ?GetSelFolder@CSTGfxOutBarCtrl@@QBEHXZ ; CSTGfxOutBarCtrl::GetSelFolder

; 357  : 		CSTListCtrl* pSTListCtrl = (CSTListCtrl*)m_pOutBarCtrl->GetFolderChild(nFolderIndx);

  0003a	8b 4e 04	 mov	 ecx, DWORD PTR [esi+4]
  0003d	50		 push	 eax
  0003e	89 45 ec	 mov	 DWORD PTR _nFolderIndx$1$[ebp], eax
  00041	e8 00 00 00 00	 call	 ?GetFolderChild@CSTGfxOutBarCtrl@@QAEPAVCWnd@@H@Z ; CSTGfxOutBarCtrl::GetFolderChild
; File C:\Program Files (x86)\Microsoft Visual Studio\2019\Community\VC\Tools\MSVC\14.29.30133\atlmfc\include\afxcmn.inl

; 177  : 	{ ASSERT(::IsWindow(m_hWnd)); return (int) ::SendMessage(m_hWnd, LVM_GETNEXTITEM, nItem, MAKELPARAM(nFlags, 0)); }

  00046	8b 1d 00 00 00
	00		 mov	 ebx, DWORD PTR __imp__SendMessageA@16
; File D:\git\src\IBK\IBK_DRFN\ProjSrc\SrcDrfn\Chart\Common_ST\_STLoadmanager.cpp

; 357  : 		CSTListCtrl* pSTListCtrl = (CSTListCtrl*)m_pOutBarCtrl->GetFolderChild(nFolderIndx);

  0004c	8b f0		 mov	 esi, eax
; File C:\Program Files (x86)\Microsoft Visual Studio\2019\Community\VC\Tools\MSVC\14.29.30133\atlmfc\include\afxcmn.inl

; 177  : 	{ ASSERT(::IsWindow(m_hWnd)); return (int) ::SendMessage(m_hWnd, LVM_GETNEXTITEM, nItem, MAKELPARAM(nFlags, 0)); }

  0004e	6a 02		 push	 2
  00050	6a ff		 push	 -1
  00052	68 0c 10 00 00	 push	 4108			; 0000100cH
  00057	ff 76 20	 push	 DWORD PTR [esi+32]
  0005a	ff d3		 call	 ebx

; 179  : 	{ ASSERT(::IsWindow(m_hWnd)); return (POSITION)(DWORD_PTR)(1+GetNextItem(-1, LVIS_SELECTED)); }

  0005c	83 c0 01	 add	 eax, 1
; File D:\git\src\IBK\IBK_DRFN\ProjSrc\SrcDrfn\Chart\Common_ST\_STLoadmanager.cpp

; 359  : 		while(pos) {

  0005f	0f 84 b6 00 00
	00		 je	 $LN3@GetSelecte
; File C:\Program Files (x86)\Microsoft Visual Studio\2019\Community\VC\Tools\MSVC\14.29.30133\atlmfc\include\afxcmn.inl

; 177  : 	{ ASSERT(::IsWindow(m_hWnd)); return (int) ::SendMessage(m_hWnd, LVM_GETNEXTITEM, nItem, MAKELPARAM(nFlags, 0)); }

  00065	6a 02		 push	 2

; 181  : 	{ ASSERT(::IsWindow(m_hWnd)); DWORD_PTR nOldPos = (DWORD_PTR)pos-1; pos = (POSITION)(DWORD_PTR)(1+GetNextItem((UINT)nOldPos, LVIS_SELECTED)); return (UINT)nOldPos; }

  00067	8d 78 ff	 lea	 edi, DWORD PTR [eax-1]

; 177  : 	{ ASSERT(::IsWindow(m_hWnd)); return (int) ::SendMessage(m_hWnd, LVM_GETNEXTITEM, nItem, MAKELPARAM(nFlags, 0)); }

  0006a	57		 push	 edi
  0006b	68 0c 10 00 00	 push	 4108			; 0000100cH
  00070	ff 76 20	 push	 DWORD PTR [esi+32]
  00073	ff d3		 call	 ebx
; File D:\git\src\IBK\IBK_DRFN\ProjSrc\SrcDrfn\Chart\Common_ST\_STLoadmanager.cpp

; 360  : 			if((nItemIndx = pSTListCtrl->GetNextSelectedItem(pos)) >= 0) {

  00075	85 ff		 test	 edi, edi
  00077	0f 88 9e 00 00
	00		 js	 $LN3@GetSelecte

; 361  : 				CString szText = pSTListCtrl->GetItemText(nItemIndx, 0);

  0007d	6a 00		 push	 0
  0007f	57		 push	 edi
  00080	8d 45 f0	 lea	 eax, DWORD PTR _szText$2[ebp]
  00083	8b ce		 mov	 ecx, esi
  00085	50		 push	 eax
  00086	e8 00 00 00 00	 call	 ?GetItemText@CListCtrl@@QBE?AV?$CStringT@DV?$StrTraitMFC_DLL@DV?$ChTraitsCRT@D@ATL@@@@@ATL@@HH@Z ; CListCtrl::GetItemText

; 362  : 				int nType = (int)pSTListCtrl->GetItemData(nItemIndx);

  0008b	57		 push	 edi
  0008c	8b ce		 mov	 ecx, esi
  0008e	c7 45 fc 00 00
	00 00		 mov	 DWORD PTR __$EHRec$[ebp+8], 0
  00095	e8 00 00 00 00	 call	 ?GetItemData@CListCtrl@@QBEKH@Z ; CListCtrl::GetItemData
  0009a	8b 5d 08	 mov	 ebx, DWORD PTR _InData$[ebp]
  0009d	8d 4b 04	 lea	 ecx, DWORD PTR [ebx+4]

; 363  : 				if(nType == 9999)

  000a0	3d 0f 27 00 00	 cmp	 eax, 9999		; 0000270fH
  000a5	75 0c		 jne	 SHORT $LN7@GetSelecte

; 364  : 					InData.szSTName = szText;

  000a7	8d 45 f0	 lea	 eax, DWORD PTR _szText$2[ebp]
  000aa	50		 push	 eax
  000ab	ff 15 00 00 00
	00		 call	 DWORD PTR __imp_??4?$CStringT@DV?$StrTraitMFC_DLL@DV?$ChTraitsCRT@D@ATL@@@@@ATL@@QAEAAV01@ABV01@@Z
  000b1	eb 15		 jmp	 SHORT $LN8@GetSelecte
$LN7@GetSelecte:

; 365  : 				else
; 366  : 					InData.szSTName.Format(_T("%s%c%d"), szText, gSTGubunKey, nType);

  000b3	50		 push	 eax
  000b4	6a 5e		 push	 94			; 0000005eH
  000b6	ff 75 f0	 push	 DWORD PTR _szText$2[ebp]
  000b9	68 00 00 00 00	 push	 OFFSET ??_C@_06GNAFJLOE@?$CFs?$CFc?$CFd@
  000be	51		 push	 ecx
  000bf	ff 15 00 00 00
	00		 call	 DWORD PTR __imp_?Format@?$CStringT@DV?$StrTraitMFC_DLL@DV?$ChTraitsCRT@D@ATL@@@@@ATL@@QAAXPBDZZ
  000c5	83 c4 14	 add	 esp, 20			; 00000014H
$LN8@GetSelecte:

; 367  : 
; 368  : 				InData.szSTPath = pSTListCtrl->m_szFullPath;

  000c8	8d 86 84 00 00
	00		 lea	 eax, DWORD PTR [esi+132]
  000ce	50		 push	 eax
  000cf	8d 4b 08	 lea	 ecx, DWORD PTR [ebx+8]
  000d2	ff 15 00 00 00
	00		 call	 DWORD PTR __imp_??4?$CStringT@DV?$StrTraitMFC_DLL@DV?$ChTraitsCRT@D@ATL@@@@@ATL@@QAEAAV01@ABV01@@Z

; 369  : 				InData.nSTType = pSTListCtrl->m_nSTFolderType;

  000d8	8b 86 88 00 00
	00		 mov	 eax, DWORD PTR [esi+136]

; 370  : 				InData.szSTRData = pSTListCtrl->m_szFolderName;

  000de	8b cb		 mov	 ecx, ebx
  000e0	89 43 0c	 mov	 DWORD PTR [ebx+12], eax
  000e3	8d 86 80 00 00
	00		 lea	 eax, DWORD PTR [esi+128]
  000e9	50		 push	 eax
  000ea	ff 15 00 00 00
	00		 call	 DWORD PTR __imp_??4?$CStringT@DV?$StrTraitMFC_DLL@DV?$ChTraitsCRT@D@ATL@@@@@ATL@@QAEAAV01@ABV01@@Z

; 371  : 				InData.nFolderIndx = nFolderIndx;

  000f0	8b 45 ec	 mov	 eax, DWORD PTR _nFolderIndx$1$[ebp]

; 372  : 				InData.nItemIndx = nItemIndx;
; 373  : 				return TRUE;

  000f3	8d 4d f0	 lea	 ecx, DWORD PTR _szText$2[ebp]
  000f6	89 43 10	 mov	 DWORD PTR [ebx+16], eax
  000f9	89 7b 14	 mov	 DWORD PTR [ebx+20], edi
  000fc	ff 15 00 00 00
	00		 call	 DWORD PTR __imp_??1?$CStringT@DV?$StrTraitMFC_DLL@DV?$ChTraitsCRT@D@ATL@@@@@ATL@@QAE@XZ
  00102	b8 01 00 00 00	 mov	 eax, 1

; 381  : }

  00107	8b 4d f4	 mov	 ecx, DWORD PTR __$EHRec$[ebp]
  0010a	64 89 0d 00 00
	00 00		 mov	 DWORD PTR fs:0, ecx
  00111	59		 pop	 ecx
  00112	5f		 pop	 edi
  00113	5e		 pop	 esi
  00114	5b		 pop	 ebx
  00115	8b e5		 mov	 esp, ebp
  00117	5d		 pop	 ebp
  00118	c2 04 00	 ret	 4
$LN3@GetSelecte:

; 374  : 			}
; 375  : 			else
; 376  : 				return FALSE;
; 377  : 		}
; 378  : 	}
; 379  : 
; 380  : 	return FALSE;

  0011b	33 c0		 xor	 eax, eax

; 381  : }

  0011d	8b 4d f4	 mov	 ecx, DWORD PTR __$EHRec$[ebp]
  00120	64 89 0d 00 00
	00 00		 mov	 DWORD PTR fs:0, ecx
  00127	59		 pop	 ecx
  00128	5f		 pop	 edi
  00129	5e		 pop	 esi
  0012a	5b		 pop	 ebx
  0012b	8b e5		 mov	 esp, ebp
  0012d	5d		 pop	 ebp
  0012e	c2 04 00	 ret	 4
_TEXT	ENDS
;	COMDAT text$x
text$x	SEGMENT
__unwindfunclet$?GetSelectedItem@CSTLoadManager@@QAEHAAUSTMNG_ITEMINFO@@@Z$0:
  00000	8d 4d f0	 lea	 ecx, DWORD PTR _szText$2[ebp]
  00003	ff 25 00 00 00
	00		 jmp	 DWORD PTR __imp_??1?$CStringT@DV?$StrTraitMFC_DLL@DV?$ChTraitsCRT@D@ATL@@@@@ATL@@QAE@XZ
  00009	cc		 int	 3
  0000a	cc		 int	 3
  0000b	cc		 int	 3
  0000c	cc		 int	 3
  0000d	cc		 int	 3
__ehhandler$?GetSelectedItem@CSTLoadManager@@QAEHAAUSTMNG_ITEMINFO@@@Z:
  0000e	90		 npad	 1
  0000f	90		 npad	 1
  00010	8b 54 24 08	 mov	 edx, DWORD PTR [esp+8]
  00014	8d 42 0c	 lea	 eax, DWORD PTR [edx+12]
  00017	8b 4a e8	 mov	 ecx, DWORD PTR [edx-24]
  0001a	33 c8		 xor	 ecx, eax
  0001c	e8 00 00 00 00	 call	 @__security_check_cookie@4
  00021	b8 00 00 00 00	 mov	 eax, OFFSET __ehfuncinfo$?GetSelectedItem@CSTLoadManager@@QAEHAAUSTMNG_ITEMINFO@@@Z
  00026	e9 00 00 00 00	 jmp	 ___CxxFrameHandler3
text$x	ENDS
?GetSelectedItem@CSTLoadManager@@QAEHAAUSTMNG_ITEMINFO@@@Z ENDP ; CSTLoadManager::GetSelectedItem
; Function compile flags: /Ogtp
; File D:\git\src\IBK\IBK_DRFN\ProjSrc\SrcDrfn\Chart\Common_ST\_STLoadmanager.cpp
;	COMDAT ??0CSTLoadManager@@QAE@XZ
_TEXT	SEGMENT
_this$ = -4						; size = 4
??0CSTLoadManager@@QAE@XZ PROC				; CSTLoadManager::CSTLoadManager, COMDAT
; _this$ = ecx

; 34   : {

  00000	55		 push	 ebp
  00001	8b ec		 mov	 ebp, esp
  00003	51		 push	 ecx
  00004	56		 push	 esi
  00005	8b f1		 mov	 esi, ecx
  00007	89 75 fc	 mov	 DWORD PTR _this$[ebp], esi
  0000a	8d 4e 0c	 lea	 ecx, DWORD PTR [esi+12]
  0000d	c7 06 00 00 00
	00		 mov	 DWORD PTR [esi], OFFSET ??_7CSTLoadManager@@6B@
  00013	ff 15 00 00 00
	00		 call	 DWORD PTR __imp_??0?$CStringT@DV?$StrTraitMFC_DLL@DV?$ChTraitsCRT@D@ATL@@@@@ATL@@QAE@XZ
  00019	8d 4e 14	 lea	 ecx, DWORD PTR [esi+20]
  0001c	ff 15 00 00 00
	00		 call	 DWORD PTR __imp_??0?$CStringT@DV?$StrTraitMFC_DLL@DV?$ChTraitsCRT@D@ATL@@@@@ATL@@QAE@XZ
  00022	8d 4e 20	 lea	 ecx, DWORD PTR [esi+32]
  00025	ff 15 00 00 00
	00		 call	 DWORD PTR __imp_??0?$CStringT@DV?$StrTraitMFC_DLL@DV?$ChTraitsCRT@D@ATL@@@@@ATL@@QAE@XZ

; 35   : 	m_pOutBarCtrl = NULL;

  0002b	c7 46 04 00 00
	00 00		 mov	 DWORD PTR [esi+4], 0

; 36   : 	m_bSubFolders = TRUE;
; 37   : 	m_pILSTIcon = NULL;
; 38   : 	m_dwSTTypeToLoad = NULL;
; 39   : 	m_uSTIndx = 0;
; 40   : 	m_bSTUserLoading = FALSE;
; 41   : 	m_uSTUserCount = 0;
; 42   : 
; 43   : 	m_parSTPath = NULL;
; 44   : 	m_bUseBoldFont = TRUE;
; 45   : }

  00032	8b c6		 mov	 eax, esi
  00034	c7 46 18 01 00
	00 00		 mov	 DWORD PTR [esi+24], 1
  0003b	c7 46 10 00 00
	00 00		 mov	 DWORD PTR [esi+16], 0
  00042	c7 46 30 00 00
	00 00		 mov	 DWORD PTR [esi+48], 0
  00049	c7 46 1c 00 00
	00 00		 mov	 DWORD PTR [esi+28], 0
  00050	c7 46 28 00 00
	00 00		 mov	 DWORD PTR [esi+40], 0
  00057	c7 46 2c 00 00
	00 00		 mov	 DWORD PTR [esi+44], 0
  0005e	c7 46 08 00 00
	00 00		 mov	 DWORD PTR [esi+8], 0
  00065	c7 46 34 01 00
	00 00		 mov	 DWORD PTR [esi+52], 1
  0006c	5e		 pop	 esi
  0006d	8b e5		 mov	 esp, ebp
  0006f	5d		 pop	 ebp
  00070	c3		 ret	 0
??0CSTLoadManager@@QAE@XZ ENDP				; CSTLoadManager::CSTLoadManager
_TEXT	ENDS
; Function compile flags: /Ogtp
; File D:\git\src\IBK\IBK_DRFN\ProjSrc\SrcDrfn\Chart\Common_ST\_STLoadmanager.cpp
; File C:\Program Files (x86)\Microsoft Visual Studio\2019\Community\VC\Tools\MSVC\14.29.30133\atlmfc\include\afxcmn.inl
; File D:\git\src\IBK\IBK_DRFN\ProjSrc\SrcDrfn\Chart\Common_ST\_STLoadmanager.cpp
;	COMDAT ?SetSelectedItem@CSTLoadManager@@UAGXPAUSTMNG_ITEMINFO@@@Z
_TEXT	SEGMENT
_nFolderCount$1$ = -20					; size = 4
$T1 = -16						; size = 4
_pSTListCtrl$1$ = -12					; size = 4
_szFolderName$ = -8					; size = 4
_nItemCount$1$ = -4					; size = 4
$T2 = -4						; size = 4
_szName$3 = 8						; size = 4
_this$ = 8						; size = 4
_szItemName$ = 12					; size = 4
_pInData$ = 12						; size = 4
?SetSelectedItem@CSTLoadManager@@UAGXPAUSTMNG_ITEMINFO@@@Z PROC ; CSTLoadManager::SetSelectedItem, COMDAT

; 398  : {

  00000	55		 push	 ebp
  00001	8b ec		 mov	 ebp, esp
  00003	83 ec 14	 sub	 esp, 20			; 00000014H
  00006	56		 push	 esi

; 399  : 	if(pInData == NULL)

  00007	8b 75 0c	 mov	 esi, DWORD PTR _pInData$[ebp]
  0000a	85 f6		 test	 esi, esi
  0000c	0f 84 25 01 00
	00		 je	 $LN1@SetSelecte

; 400  : 		return;
; 401  : 
; 402  : 	CString szFolderName = pInData->szSTRData;

  00012	56		 push	 esi
  00013	8d 4d f8	 lea	 ecx, DWORD PTR _szFolderName$[ebp]
  00016	ff 15 00 00 00
	00		 call	 DWORD PTR __imp_??0?$CStringT@DV?$StrTraitMFC_DLL@DV?$ChTraitsCRT@D@ATL@@@@@ATL@@QAE@ABV01@@Z

; 403  : 	CString szItemName = pInData->szSTName;

  0001c	8d 46 04	 lea	 eax, DWORD PTR [esi+4]
  0001f	50		 push	 eax
  00020	8d 4d 0c	 lea	 ecx, DWORD PTR _szItemName$[ebp]
  00023	ff 15 00 00 00
	00		 call	 DWORD PTR __imp_??0?$CStringT@DV?$StrTraitMFC_DLL@DV?$ChTraitsCRT@D@ATL@@@@@ATL@@QAE@ABV01@@Z

; 404  : 
; 405  : 	//szFolderName.Delete(0, szFolderName.ReverseFind('\\') + 1);
; 406  : 	int nSTType = -1;
; 407  : 	if((nSTType = szItemName.Find(gSTGubunKey)) != -1)

  00029	6a 00		 push	 0
  0002b	6a 5e		 push	 94			; 0000005eH
  0002d	8d 4d 0c	 lea	 ecx, DWORD PTR _szItemName$[ebp]
  00030	ff 15 00 00 00
	00		 call	 DWORD PTR __imp_?Find@?$CStringT@DV?$StrTraitMFC_DLL@DV?$ChTraitsCRT@D@ATL@@@@@ATL@@QBEHDH@Z
  00036	83 f8 ff	 cmp	 eax, -1
  00039	74 21		 je	 SHORT $LN9@SetSelecte

; 408  : 		szItemName = szItemName.Left(nSTType);

  0003b	50		 push	 eax
  0003c	8d 45 fc	 lea	 eax, DWORD PTR $T2[ebp]
  0003f	50		 push	 eax
  00040	8d 4d 0c	 lea	 ecx, DWORD PTR _szItemName$[ebp]
  00043	ff 15 00 00 00
	00		 call	 DWORD PTR __imp_?Left@?$CStringT@DV?$StrTraitMFC_DLL@DV?$ChTraitsCRT@D@ATL@@@@@ATL@@QBE?AV12@H@Z
  00049	50		 push	 eax
  0004a	8d 4d 0c	 lea	 ecx, DWORD PTR _szItemName$[ebp]
  0004d	ff 15 00 00 00
	00		 call	 DWORD PTR __imp_??4?$CStringT@DV?$StrTraitMFC_DLL@DV?$ChTraitsCRT@D@ATL@@@@@ATL@@QAEAAV01@ABV01@@Z
  00053	8d 4d fc	 lea	 ecx, DWORD PTR $T2[ebp]
  00056	ff 15 00 00 00
	00		 call	 DWORD PTR __imp_??1?$CStringT@DV?$StrTraitMFC_DLL@DV?$ChTraitsCRT@D@ATL@@@@@ATL@@QAE@XZ
$LN9@SetSelecte:

; 409  : 
; 410  : 	int nFolderIndx = -1;
; 411  : 	int nItemIndx = -1;
; 412  : 	if(m_pOutBarCtrl) 

  0005c	53		 push	 ebx
  0005d	8b 5d 08	 mov	 ebx, DWORD PTR _this$[ebp]
  00060	8b 4b 04	 mov	 ecx, DWORD PTR [ebx+4]
  00063	85 c9		 test	 ecx, ecx
  00065	0f 84 b9 00 00
	00		 je	 $LN3@SetSelecte

; 413  : 	{
; 414  : 		CSTListCtrl* pSTListCtrl = NULL;
; 415  : 		int nFolderCount = m_pOutBarCtrl->GetFolderCount();

  0006b	57		 push	 edi
  0006c	e8 00 00 00 00	 call	 ?GetFolderCount@CSTGfxOutBarCtrl@@QBEHXZ ; CSTGfxOutBarCtrl::GetFolderCount
  00071	33 ff		 xor	 edi, edi
  00073	89 45 ec	 mov	 DWORD PTR _nFolderCount$1$[ebp], eax

; 416  : 		int nItemCount = 0;
; 417  : 		for(int nFIndx = 0; nFIndx < nFolderCount; ++nFIndx)

  00076	85 c0		 test	 eax, eax
  00078	0f 8e a5 00 00
	00		 jle	 $LN30@SetSelecte
  0007e	66 90		 npad	 2
$LL4@SetSelecte:

; 418  : 		{
; 419  : 			if(pSTListCtrl = (CSTListCtrl*)m_pOutBarCtrl->GetFolderChild(nFIndx))

  00080	8b 4b 04	 mov	 ecx, DWORD PTR [ebx+4]
  00083	57		 push	 edi
  00084	e8 00 00 00 00	 call	 ?GetFolderChild@CSTGfxOutBarCtrl@@QAEPAVCWnd@@H@Z ; CSTGfxOutBarCtrl::GetFolderChild
  00089	8b f0		 mov	 esi, eax
  0008b	89 75 f4	 mov	 DWORD PTR _pSTListCtrl$1$[ebp], esi
  0008e	85 f6		 test	 esi, esi
  00090	0f 84 83 00 00
	00		 je	 $LN2@SetSelecte

; 420  : 			{
; 421  : 				if(szFolderName.Compare(pSTListCtrl->m_szFolderName) == 0)

  00096	ff b6 80 00 00
	00		 push	 DWORD PTR [esi+128]
  0009c	8d 4d f8	 lea	 ecx, DWORD PTR _szFolderName$[ebp]
  0009f	ff 15 00 00 00
	00		 call	 DWORD PTR __imp_?Compare@?$CStringT@DV?$StrTraitMFC_DLL@DV?$ChTraitsCRT@D@ATL@@@@@ATL@@QBEHPBD@Z
  000a5	85 c0		 test	 eax, eax
  000a7	75 70		 jne	 SHORT $LN2@SetSelecte
; File C:\Program Files (x86)\Microsoft Visual Studio\2019\Community\VC\Tools\MSVC\14.29.30133\atlmfc\include\afxcmn.inl

; 155  : 	{ ASSERT(::IsWindow(m_hWnd)); return (int) ::SendMessage(m_hWnd, LVM_GETITEMCOUNT, 0, 0L); }

  000a9	50		 push	 eax
  000aa	50		 push	 eax
  000ab	68 04 10 00 00	 push	 4100			; 00001004H
  000b0	ff 76 20	 push	 DWORD PTR [esi+32]
  000b3	ff 15 00 00 00
	00		 call	 DWORD PTR __imp__SendMessageA@16
; File D:\git\src\IBK\IBK_DRFN\ProjSrc\SrcDrfn\Chart\Common_ST\_STLoadmanager.cpp

; 424  : 					if(nItemCount = pSTListCtrl->GetItemCount())

  000b9	89 45 fc	 mov	 DWORD PTR _nItemCount$1$[ebp], eax
  000bc	85 c0		 test	 eax, eax
  000be	74 59		 je	 SHORT $LN2@SetSelecte

; 425  : 					{
; 426  : 						CString szName;

  000c0	8d 4d 08	 lea	 ecx, DWORD PTR _szName$3[ebp]
  000c3	ff 15 00 00 00
	00		 call	 DWORD PTR __imp_??0?$CStringT@DV?$StrTraitMFC_DLL@DV?$ChTraitsCRT@D@ATL@@@@@ATL@@QAE@XZ
  000c9	33 f6		 xor	 esi, esi

; 427  : 						for(int nIIndx = 0; nIIndx < nItemCount; ++nIIndx)

  000cb	39 75 fc	 cmp	 DWORD PTR _nItemCount$1$[ebp], esi
  000ce	7e 40		 jle	 SHORT $LN6@SetSelecte
$LL7@SetSelecte:

; 428  : 						{
; 429  : 							szName = pSTListCtrl->GetItemText(nIIndx, 0);

  000d0	8b 4d f4	 mov	 ecx, DWORD PTR _pSTListCtrl$1$[ebp]
  000d3	8d 45 f0	 lea	 eax, DWORD PTR $T1[ebp]
  000d6	6a 00		 push	 0
  000d8	56		 push	 esi
  000d9	50		 push	 eax
  000da	e8 00 00 00 00	 call	 ?GetItemText@CListCtrl@@QBE?AV?$CStringT@DV?$StrTraitMFC_DLL@DV?$ChTraitsCRT@D@ATL@@@@@ATL@@HH@Z ; CListCtrl::GetItemText
  000df	50		 push	 eax
  000e0	8d 4d 08	 lea	 ecx, DWORD PTR _szName$3[ebp]
  000e3	ff 15 00 00 00
	00		 call	 DWORD PTR __imp_??4?$CStringT@DV?$StrTraitMFC_DLL@DV?$ChTraitsCRT@D@ATL@@@@@ATL@@QAEAAV01@ABV01@@Z
  000e9	8d 4d f0	 lea	 ecx, DWORD PTR $T1[ebp]
  000ec	ff 15 00 00 00
	00		 call	 DWORD PTR __imp_??1?$CStringT@DV?$StrTraitMFC_DLL@DV?$ChTraitsCRT@D@ATL@@@@@ATL@@QAE@XZ

; 430  : 							if(szName.Compare(szItemName) == 0)

  000f2	ff 75 0c	 push	 DWORD PTR _szItemName$[ebp]
  000f5	8d 4d 08	 lea	 ecx, DWORD PTR _szName$3[ebp]
  000f8	ff 15 00 00 00
	00		 call	 DWORD PTR __imp_?Compare@?$CStringT@DV?$StrTraitMFC_DLL@DV?$ChTraitsCRT@D@ATL@@@@@ATL@@QBEHPBD@Z
  000fe	85 c0		 test	 eax, eax
  00100	75 08		 jne	 SHORT $LN5@SetSelecte

; 431  : 							{
; 432  : 								nItemIndx = nIIndx;
; 433  : 								SetSelectedItem(nFolderIndx, nItemIndx);

  00102	8b 03		 mov	 eax, DWORD PTR [ebx]
  00104	56		 push	 esi
  00105	57		 push	 edi
  00106	53		 push	 ebx
  00107	ff 50 1c	 call	 DWORD PTR [eax+28]
$LN5@SetSelecte:

; 427  : 						for(int nIIndx = 0; nIIndx < nItemCount; ++nIIndx)

  0010a	46		 inc	 esi
  0010b	3b 75 fc	 cmp	 esi, DWORD PTR _nItemCount$1$[ebp]
  0010e	7c c0		 jl	 SHORT $LL7@SetSelecte
$LN6@SetSelecte:

; 434  : 							}
; 435  : 						}
; 436  : 					}

  00110	8d 4d 08	 lea	 ecx, DWORD PTR _szName$3[ebp]
  00113	ff 15 00 00 00
	00		 call	 DWORD PTR __imp_??1?$CStringT@DV?$StrTraitMFC_DLL@DV?$ChTraitsCRT@D@ATL@@@@@ATL@@QAE@XZ
$LN2@SetSelecte:

; 416  : 		int nItemCount = 0;
; 417  : 		for(int nFIndx = 0; nFIndx < nFolderCount; ++nFIndx)

  00119	47		 inc	 edi
  0011a	3b 7d ec	 cmp	 edi, DWORD PTR _nFolderCount$1$[ebp]
  0011d	0f 8c 5d ff ff
	ff		 jl	 $LL4@SetSelecte
$LN30@SetSelecte:
  00123	5f		 pop	 edi
$LN3@SetSelecte:

; 437  : 				}
; 438  : 			}
; 439  : 		}
; 440  : 	}
; 441  : }

  00124	8d 4d 0c	 lea	 ecx, DWORD PTR _szItemName$[ebp]
  00127	ff 15 00 00 00
	00		 call	 DWORD PTR __imp_??1?$CStringT@DV?$StrTraitMFC_DLL@DV?$ChTraitsCRT@D@ATL@@@@@ATL@@QAE@XZ
  0012d	8d 4d f8	 lea	 ecx, DWORD PTR _szFolderName$[ebp]
  00130	ff 15 00 00 00
	00		 call	 DWORD PTR __imp_??1?$CStringT@DV?$StrTraitMFC_DLL@DV?$ChTraitsCRT@D@ATL@@@@@ATL@@QAE@XZ
  00136	5b		 pop	 ebx
$LN1@SetSelecte:
  00137	5e		 pop	 esi
  00138	8b e5		 mov	 esp, ebp
  0013a	5d		 pop	 ebp
  0013b	c2 08 00	 ret	 8
?SetSelectedItem@CSTLoadManager@@UAGXPAUSTMNG_ITEMINFO@@@Z ENDP ; CSTLoadManager::SetSelectedItem
_TEXT	ENDS
; Function compile flags: /Ogtp
; File D:\git\src\IBK\IBK_DRFN\ProjSrc\SrcDrfn\Chart\Common_ST\_STLoadmanager.cpp
;	COMDAT ?LoadST2@CSTLoadManager@@UAGXPAVCWnd@@PAVCStringArray@@KHH@Z
_TEXT	SEGMENT
_this$ = 8						; size = 4
_pOutBarCtrl$ = 12					; size = 4
_parSTPath$ = 16					; size = 4
_dwSTTypeToLoad$ = 20					; size = 4
_nDefaultSelFolder$ = 24				; size = 4
_p_LoadOption$ = 28					; size = 4
?LoadST2@CSTLoadManager@@UAGXPAVCWnd@@PAVCStringArray@@KHH@Z PROC ; CSTLoadManager::LoadST2, COMDAT

; 55   : {

  00000	55		 push	 ebp
  00001	8b ec		 mov	 ebp, esp

; 56   : 	if(p_LoadOption==0)

  00003	8b 55 1c	 mov	 edx, DWORD PTR _p_LoadOption$[ebp]
  00006	85 d2		 test	 edx, edx
  00008	75 19		 jne	 SHORT $LN2@LoadST2

; 57   : 	{
; 58   : 		LoadST(pOutBarCtrl, parSTPath, dwSTTypeToLoad, nDefaultSelFolder);

  0000a	ff 75 18	 push	 DWORD PTR _nDefaultSelFolder$[ebp]
  0000d	8b 45 08	 mov	 eax, DWORD PTR _this$[ebp]
  00010	ff 75 14	 push	 DWORD PTR _dwSTTypeToLoad$[ebp]
  00013	ff 75 10	 push	 DWORD PTR _parSTPath$[ebp]
  00016	8b 08		 mov	 ecx, DWORD PTR [eax]
  00018	ff 75 0c	 push	 DWORD PTR _pOutBarCtrl$[ebp]
  0001b	50		 push	 eax
  0001c	ff 51 04	 call	 DWORD PTR [ecx+4]

; 81   : 	}
; 82   : }

  0001f	5d		 pop	 ebp
  00020	c2 18 00	 ret	 24			; 00000018H
$LN2@LoadST2:

; 59   : 		return;
; 60   : 	}
; 61   : 
; 62   : 	//    
; 63   : 	if(pOutBarCtrl && pOutBarCtrl->GetSafeHwnd() && parSTPath && parSTPath->GetSize() > 0) {

  00023	8b 45 0c	 mov	 eax, DWORD PTR _pOutBarCtrl$[ebp]
  00026	85 c0		 test	 eax, eax
  00028	74 50		 je	 SHORT $LN6@LoadST2
  0002a	83 78 20 00	 cmp	 DWORD PTR [eax+32], 0
  0002e	74 4a		 je	 SHORT $LN6@LoadST2
  00030	8b 4d 10	 mov	 ecx, DWORD PTR _parSTPath$[ebp]
  00033	85 c9		 test	 ecx, ecx
  00035	74 43		 je	 SHORT $LN6@LoadST2
  00037	83 79 08 00	 cmp	 DWORD PTR [ecx+8], 0
  0003b	7e 3d		 jle	 SHORT $LN6@LoadST2

; 64   : 		m_pOutBarCtrl = (CSTGfxOutBarCtrl*)pOutBarCtrl;

  0003d	56		 push	 esi
  0003e	8b 75 08	 mov	 esi, DWORD PTR _this$[ebp]

; 65   : 		m_parSTPath = parSTPath;
; 66   : 		m_dwSTTypeToLoad = dwSTTypeToLoad;
; 67   : 
; 68   : 		// STIndex.dat 
; 69   : 		if(dwSTTypeToLoad == 0)

  00041	6a 00		 push	 0
  00043	89 46 04	 mov	 DWORD PTR [esi+4], eax
  00046	8b 45 14	 mov	 eax, DWORD PTR _dwSTTypeToLoad$[ebp]
  00049	89 4e 08	 mov	 DWORD PTR [esi+8], ecx
  0004c	8b ce		 mov	 ecx, esi
  0004e	89 46 30	 mov	 DWORD PTR [esi+48], eax
  00051	85 c0		 test	 eax, eax
  00053	75 08		 jne	 SHORT $LN4@LoadST2

; 70   : 		{
; 71   : 			LoadSTListFromSTIndex(p_LoadOption);

  00055	52		 push	 edx
  00056	e8 00 00 00 00	 call	 ?LoadSTListFromSTIndex@CSTLoadManager@@IAEXHH@Z ; CSTLoadManager::LoadSTListFromSTIndex

; 72   : 		}

  0005b	eb 05		 jmp	 SHORT $LN5@LoadST2
$LN4@LoadST2:

; 73   : 		//  
; 74   : 		else
; 75   : 		{
; 76   : 			LoadSTList();

  0005d	e8 00 00 00 00	 call	 ?LoadSTList@CSTLoadManager@@IAEXH@Z ; CSTLoadManager::LoadSTList
$LN5@LoadST2:

; 77   : 		}
; 78   : 
; 79   : 		if(m_pOutBarCtrl->GetFolderCount()>0) 

  00062	8b 4e 04	 mov	 ecx, DWORD PTR [esi+4]
  00065	e8 00 00 00 00	 call	 ?GetFolderCount@CSTGfxOutBarCtrl@@QBEHXZ ; CSTGfxOutBarCtrl::GetFolderCount
  0006a	85 c0		 test	 eax, eax
  0006c	7e 0b		 jle	 SHORT $LN12@LoadST2

; 80   : 			m_pOutBarCtrl->SetSelFolder(nDefaultSelFolder);

  0006e	ff 75 18	 push	 DWORD PTR _nDefaultSelFolder$[ebp]
  00071	8b 4e 04	 mov	 ecx, DWORD PTR [esi+4]
  00074	e8 00 00 00 00	 call	 ?SetSelFolder@CSTGfxOutBarCtrl@@QAEXH@Z ; CSTGfxOutBarCtrl::SetSelFolder
$LN12@LoadST2:
  00079	5e		 pop	 esi
$LN6@LoadST2:

; 81   : 	}
; 82   : }

  0007a	5d		 pop	 ebp
  0007b	c2 18 00	 ret	 24			; 00000018H
?LoadST2@CSTLoadManager@@UAGXPAVCWnd@@PAVCStringArray@@KHH@Z ENDP ; CSTLoadManager::LoadST2
_TEXT	ENDS
; Function compile flags: /Ogtp
; File D:\git\src\IBK\IBK_DRFN\ProjSrc\SrcDrfn\Chart\Common_ST\_STLoadManager.h
;	COMDAT ?SetUseBoldFont@CSTLoadManager@@UAGXH@Z
_TEXT	SEGMENT
_this$ = 8						; size = 4
_bUseBoldFont$ = 12					; size = 4
?SetUseBoldFont@CSTLoadManager@@UAGXH@Z PROC		; CSTLoadManager::SetUseBoldFont, COMDAT

; 39   : 	STDMETHOD_(void, SetUseBoldFont)(BOOL bUseBoldFont = TRUE) {m_bUseBoldFont = bUseBoldFont;}

  00000	55		 push	 ebp
  00001	8b ec		 mov	 ebp, esp
  00003	8b 4d 08	 mov	 ecx, DWORD PTR _this$[ebp]
  00006	8b 45 0c	 mov	 eax, DWORD PTR _bUseBoldFont$[ebp]
  00009	89 41 34	 mov	 DWORD PTR [ecx+52], eax
  0000c	5d		 pop	 ebp
  0000d	c2 08 00	 ret	 8
?SetUseBoldFont@CSTLoadManager@@UAGXH@Z ENDP		; CSTLoadManager::SetUseBoldFont
_TEXT	ENDS
; Function compile flags: /Ogtp
; File D:\git\src\IBK\IBK_DRFN\ProjSrc\SrcDrfn\Chart\Common_ST\_STLoadmanager.cpp
; File C:\Program Files (x86)\Microsoft Visual Studio\2019\Community\VC\Tools\MSVC\14.29.30133\atlmfc\include\afxcmn.inl
; File D:\git\src\IBK\IBK_DRFN\ProjSrc\SrcDrfn\Chart\Common_ST\_STLoadmanager.cpp
;	COMDAT ?SetSelectedItem@CSTLoadManager@@UAGXHH@Z
_TEXT	SEGMENT
_this$ = 8						; size = 4
_nFolderIndx$ = 12					; size = 4
_nItemIndx$ = 16					; size = 4
?SetSelectedItem@CSTLoadManager@@UAGXHH@Z PROC		; CSTLoadManager::SetSelectedItem, COMDAT

; 384  : {

  00000	55		 push	 ebp
  00001	8b ec		 mov	 ebp, esp
  00003	57		 push	 edi

; 385  : 	if(m_pOutBarCtrl) {

  00004	8b 7d 08	 mov	 edi, DWORD PTR _this$[ebp]
  00007	8b 4f 04	 mov	 ecx, DWORD PTR [edi+4]
  0000a	85 c9		 test	 ecx, ecx
  0000c	74 4d		 je	 SHORT $LN4@SetSelecte

; 386  : 		if(nFolderIndx >= 0 && nFolderIndx < m_pOutBarCtrl->GetFolderCount())

  0000e	56		 push	 esi
  0000f	8b 75 0c	 mov	 esi, DWORD PTR _nFolderIndx$[ebp]
  00012	85 f6		 test	 esi, esi
  00014	78 12		 js	 SHORT $LN3@SetSelecte
  00016	e8 00 00 00 00	 call	 ?GetFolderCount@CSTGfxOutBarCtrl@@QBEHXZ ; CSTGfxOutBarCtrl::GetFolderCount
  0001b	3b f0		 cmp	 esi, eax
  0001d	7d 09		 jge	 SHORT $LN3@SetSelecte

; 387  : 			m_pOutBarCtrl->SetSelFolder(nFolderIndx);

  0001f	8b 4f 04	 mov	 ecx, DWORD PTR [edi+4]
  00022	56		 push	 esi
  00023	e8 00 00 00 00	 call	 ?SetSelFolder@CSTGfxOutBarCtrl@@QAEXH@Z ; CSTGfxOutBarCtrl::SetSelFolder
$LN3@SetSelecte:

; 388  : 
; 389  : 		if(nItemIndx != -1) {

  00028	53		 push	 ebx
  00029	8b 5d 10	 mov	 ebx, DWORD PTR _nItemIndx$[ebp]
  0002c	83 fb ff	 cmp	 ebx, -1
  0002f	74 28		 je	 SHORT $LN9@SetSelecte

; 390  : 			CSTListCtrl* pSTListCtrl = (CSTListCtrl*)m_pOutBarCtrl->GetFolderChild(nFolderIndx);

  00031	8b 4f 04	 mov	 ecx, DWORD PTR [edi+4]
  00034	56		 push	 esi
  00035	e8 00 00 00 00	 call	 ?GetFolderChild@CSTGfxOutBarCtrl@@QAEPAVCWnd@@H@Z ; CSTGfxOutBarCtrl::GetFolderChild

; 391  : 			pSTListCtrl->SetItemState(nItemIndx, LVIS_SELECTED, LVIS_SELECTED | LVIS_FOCUSED);

  0003a	6a 03		 push	 3
  0003c	8b f0		 mov	 esi, eax
  0003e	6a 02		 push	 2
  00040	53		 push	 ebx
  00041	8b ce		 mov	 ecx, esi
  00043	e8 00 00 00 00	 call	 ?SetItemState@CListCtrl@@QAEHHII@Z ; CListCtrl::SetItemState
; File C:\Program Files (x86)\Microsoft Visual Studio\2019\Community\VC\Tools\MSVC\14.29.30133\atlmfc\include\afxcmn.inl

; 193  : 	{ ASSERT(::IsWindow(m_hWnd)); return (BOOL) ::SendMessage(m_hWnd, LVM_ENSUREVISIBLE, nItem, MAKELPARAM(bPartialOK, 0)); }

  00048	6a 00		 push	 0
  0004a	53		 push	 ebx
  0004b	68 13 10 00 00	 push	 4115			; 00001013H
  00050	ff 76 20	 push	 DWORD PTR [esi+32]
  00053	ff 15 00 00 00
	00		 call	 DWORD PTR __imp__SendMessageA@16
$LN9@SetSelecte:
  00059	5b		 pop	 ebx
  0005a	5e		 pop	 esi
$LN4@SetSelecte:
  0005b	5f		 pop	 edi
; File D:\git\src\IBK\IBK_DRFN\ProjSrc\SrcDrfn\Chart\Common_ST\_STLoadmanager.cpp

; 395  : }

  0005c	5d		 pop	 ebp
  0005d	c2 0c 00	 ret	 12			; 0000000cH
?SetSelectedItem@CSTLoadManager@@UAGXHH@Z ENDP		; CSTLoadManager::SetSelectedItem
_TEXT	ENDS
; Function compile flags: /Ogtp
; File D:\git\src\IBK\IBK_DRFN\ProjSrc\SrcDrfn\Chart\Common_ST\_STLoadmanager.cpp
; File C:\Program Files (x86)\Microsoft Visual Studio\2019\Community\VC\Tools\MSVC\14.29.30133\atlmfc\include\afxcmn.inl
; File D:\git\src\IBK\IBK_DRFN\ProjSrc\SrcDrfn\Chart\Common_ST\_STLoadmanager.cpp
; File C:\Program Files (x86)\Microsoft Visual Studio\2019\Community\VC\Tools\MSVC\14.29.30133\atlmfc\include\afxcmn.inl
; File D:\git\src\IBK\IBK_DRFN\ProjSrc\SrcDrfn\Chart\Common_ST\_STLoadmanager.cpp
; File C:\Program Files (x86)\Microsoft Visual Studio\2019\Community\VC\Tools\MSVC\14.29.30133\atlmfc\include\afxcmn.inl
; File D:\git\src\IBK\IBK_DRFN\ProjSrc\SrcDrfn\Chart\Common_ST\_STLoadmanager.cpp
;	COMDAT ?GetItemST@CSTLoadManager@@UAGHK@Z
_TEXT	SEGMENT
_nOldPos$1$ = -4					; size = 4
_szText$1 = 8						; size = 4
_this$ = 8						; size = 4
_dwInfo$ = 12						; size = 4
?GetItemST@CSTLoadManager@@UAGHK@Z PROC			; CSTLoadManager::GetItemST, COMDAT

; 318  : {

  00000	55		 push	 ebp
  00001	8b ec		 mov	 ebp, esp
  00003	51		 push	 ecx
  00004	53		 push	 ebx
  00005	56		 push	 esi

; 319  : 	CSTListCtrl* pSTListCtrl = (CSTListCtrl*)m_pOutBarCtrl->GetFolderChild(m_pOutBarCtrl->GetSelFolder());

  00006	8b 75 08	 mov	 esi, DWORD PTR _this$[ebp]
  00009	8b 4e 04	 mov	 ecx, DWORD PTR [esi+4]
  0000c	e8 00 00 00 00	 call	 ?GetSelFolder@CSTGfxOutBarCtrl@@QBEHXZ ; CSTGfxOutBarCtrl::GetSelFolder
  00011	8b 4e 04	 mov	 ecx, DWORD PTR [esi+4]
  00014	50		 push	 eax
  00015	e8 00 00 00 00	 call	 ?GetFolderChild@CSTGfxOutBarCtrl@@QAEPAVCWnd@@H@Z ; CSTGfxOutBarCtrl::GetFolderChild

; 322  : 	if(pInfo == NULL || (nItemCount = pSTListCtrl->GetItemCount()) <= 0)

  0001a	83 7d 0c 00	 cmp	 DWORD PTR _dwInfo$[ebp], 0
  0001e	8b d8		 mov	 ebx, eax
  00020	0f 84 1f 01 00
	00		 je	 $LN5@GetItemST
; File C:\Program Files (x86)\Microsoft Visual Studio\2019\Community\VC\Tools\MSVC\14.29.30133\atlmfc\include\afxcmn.inl

; 155  : 	{ ASSERT(::IsWindow(m_hWnd)); return (int) ::SendMessage(m_hWnd, LVM_GETITEMCOUNT, 0, 0L); }

  00026	8b 35 00 00 00
	00		 mov	 esi, DWORD PTR __imp__SendMessageA@16
  0002c	6a 00		 push	 0
  0002e	6a 00		 push	 0
  00030	68 04 10 00 00	 push	 4100			; 00001004H
  00035	ff 73 20	 push	 DWORD PTR [ebx+32]
  00038	ff d6		 call	 esi
; File D:\git\src\IBK\IBK_DRFN\ProjSrc\SrcDrfn\Chart\Common_ST\_STLoadmanager.cpp

; 322  : 	if(pInfo == NULL || (nItemCount = pSTListCtrl->GetItemCount()) <= 0)

  0003a	85 c0		 test	 eax, eax
  0003c	0f 8e 03 01 00
	00		 jle	 $LN5@GetItemST
; File C:\Program Files (x86)\Microsoft Visual Studio\2019\Community\VC\Tools\MSVC\14.29.30133\atlmfc\include\afxcmn.inl

; 177  : 	{ ASSERT(::IsWindow(m_hWnd)); return (int) ::SendMessage(m_hWnd, LVM_GETNEXTITEM, nItem, MAKELPARAM(nFlags, 0)); }

  00042	57		 push	 edi
  00043	6a 02		 push	 2
  00045	6a ff		 push	 -1
  00047	68 0c 10 00 00	 push	 4108			; 0000100cH
  0004c	ff 73 20	 push	 DWORD PTR [ebx+32]
  0004f	ff d6		 call	 esi
  00051	8b f8		 mov	 edi, eax

; 179  : 	{ ASSERT(::IsWindow(m_hWnd)); return (POSITION)(DWORD_PTR)(1+GetNextItem(-1, LVIS_SELECTED)); }

  00053	83 c7 01	 add	 edi, 1
; File D:\git\src\IBK\IBK_DRFN\ProjSrc\SrcDrfn\Chart\Common_ST\_STLoadmanager.cpp

; 328  : 	while(pos) {

  00056	0f 84 db 00 00
	00		 je	 $LN3@GetItemST
  0005c	0f 1f 40 00	 npad	 4
$LL2@GetItemST:
; File C:\Program Files (x86)\Microsoft Visual Studio\2019\Community\VC\Tools\MSVC\14.29.30133\atlmfc\include\afxcmn.inl

; 177  : 	{ ASSERT(::IsWindow(m_hWnd)); return (int) ::SendMessage(m_hWnd, LVM_GETNEXTITEM, nItem, MAKELPARAM(nFlags, 0)); }

  00060	6a 02		 push	 2

; 181  : 	{ ASSERT(::IsWindow(m_hWnd)); DWORD_PTR nOldPos = (DWORD_PTR)pos-1; pos = (POSITION)(DWORD_PTR)(1+GetNextItem((UINT)nOldPos, LVIS_SELECTED)); return (UINT)nOldPos; }

  00062	8d 77 ff	 lea	 esi, DWORD PTR [edi-1]

; 177  : 	{ ASSERT(::IsWindow(m_hWnd)); return (int) ::SendMessage(m_hWnd, LVM_GETNEXTITEM, nItem, MAKELPARAM(nFlags, 0)); }

  00065	56		 push	 esi
  00066	68 0c 10 00 00	 push	 4108			; 0000100cH
  0006b	ff 73 20	 push	 DWORD PTR [ebx+32]

; 181  : 	{ ASSERT(::IsWindow(m_hWnd)); DWORD_PTR nOldPos = (DWORD_PTR)pos-1; pos = (POSITION)(DWORD_PTR)(1+GetNextItem((UINT)nOldPos, LVIS_SELECTED)); return (UINT)nOldPos; }

  0006e	89 75 fc	 mov	 DWORD PTR _nOldPos$1$[ebp], esi

; 177  : 	{ ASSERT(::IsWindow(m_hWnd)); return (int) ::SendMessage(m_hWnd, LVM_GETNEXTITEM, nItem, MAKELPARAM(nFlags, 0)); }

  00071	ff 15 00 00 00
	00		 call	 DWORD PTR __imp__SendMessageA@16

; 181  : 	{ ASSERT(::IsWindow(m_hWnd)); DWORD_PTR nOldPos = (DWORD_PTR)pos-1; pos = (POSITION)(DWORD_PTR)(1+GetNextItem((UINT)nOldPos, LVIS_SELECTED)); return (UINT)nOldPos; }

  00077	8d 78 01	 lea	 edi, DWORD PTR [eax+1]
; File D:\git\src\IBK\IBK_DRFN\ProjSrc\SrcDrfn\Chart\Common_ST\_STLoadmanager.cpp

; 329  : 		if((nItemIndx = pSTListCtrl->GetNextSelectedItem(pos)) >= 0) {

  0007a	85 f6		 test	 esi, esi
  0007c	0f 88 ad 00 00
	00		 js	 $LN6@GetItemST

; 330  : 
; 331  : 			pItemInfo = new STMNG_ITEMINFO;

  00082	6a 18		 push	 24			; 00000018H
  00084	e8 00 00 00 00	 call	 ??2@YAPAXI@Z		; operator new
  00089	8b f0		 mov	 esi, eax
  0008b	83 c4 04	 add	 esp, 4
  0008e	85 f6		 test	 esi, esi
  00090	74 1c		 je	 SHORT $LN10@GetItemST
  00092	8b ce		 mov	 ecx, esi
  00094	ff 15 00 00 00
	00		 call	 DWORD PTR __imp_??0?$CStringT@DV?$StrTraitMFC_DLL@DV?$ChTraitsCRT@D@ATL@@@@@ATL@@QAE@XZ
  0009a	8d 4e 04	 lea	 ecx, DWORD PTR [esi+4]
  0009d	ff 15 00 00 00
	00		 call	 DWORD PTR __imp_??0?$CStringT@DV?$StrTraitMFC_DLL@DV?$ChTraitsCRT@D@ATL@@@@@ATL@@QAE@XZ
  000a3	8d 4e 08	 lea	 ecx, DWORD PTR [esi+8]
  000a6	ff 15 00 00 00
	00		 call	 DWORD PTR __imp_??0?$CStringT@DV?$StrTraitMFC_DLL@DV?$ChTraitsCRT@D@ATL@@@@@ATL@@QAE@XZ
  000ac	eb 02		 jmp	 SHORT $LN11@GetItemST
$LN10@GetItemST:
  000ae	33 f6		 xor	 esi, esi
$LN11@GetItemST:

; 332  : 			pItemInfo->szSTPath = pSTListCtrl->m_szFullPath;

  000b0	8d 83 84 00 00
	00		 lea	 eax, DWORD PTR [ebx+132]
  000b6	50		 push	 eax
  000b7	8d 4e 08	 lea	 ecx, DWORD PTR [esi+8]
  000ba	ff 15 00 00 00
	00		 call	 DWORD PTR __imp_??4?$CStringT@DV?$StrTraitMFC_DLL@DV?$ChTraitsCRT@D@ATL@@@@@ATL@@QAEAAV01@ABV01@@Z

; 333  : 
; 334  : 			CString szText = pSTListCtrl->GetItemText(nItemIndx, 0);

  000c0	6a 00		 push	 0
  000c2	ff 75 fc	 push	 DWORD PTR _nOldPos$1$[ebp]
  000c5	8d 45 08	 lea	 eax, DWORD PTR _szText$1[ebp]
  000c8	8b cb		 mov	 ecx, ebx
  000ca	50		 push	 eax
  000cb	e8 00 00 00 00	 call	 ?GetItemText@CListCtrl@@QBE?AV?$CStringT@DV?$StrTraitMFC_DLL@DV?$ChTraitsCRT@D@ATL@@@@@ATL@@HH@Z ; CListCtrl::GetItemText

; 335  : 			int nType = (int)pSTListCtrl->GetItemData(nItemIndx);

  000d0	ff 75 fc	 push	 DWORD PTR _nOldPos$1$[ebp]
  000d3	8b cb		 mov	 ecx, ebx
  000d5	e8 00 00 00 00	 call	 ?GetItemData@CListCtrl@@QBEKH@Z ; CListCtrl::GetItemData
  000da	8d 4e 04	 lea	 ecx, DWORD PTR [esi+4]

; 336  : 
; 337  : 			if(nType == 9999)

  000dd	3d 0f 27 00 00	 cmp	 eax, 9999		; 0000270fH
  000e2	75 0c		 jne	 SHORT $LN7@GetItemST

; 338  : 				pItemInfo->szSTName = szText;

  000e4	8d 45 08	 lea	 eax, DWORD PTR _szText$1[ebp]
  000e7	50		 push	 eax
  000e8	ff 15 00 00 00
	00		 call	 DWORD PTR __imp_??4?$CStringT@DV?$StrTraitMFC_DLL@DV?$ChTraitsCRT@D@ATL@@@@@ATL@@QAEAAV01@ABV01@@Z
  000ee	eb 15		 jmp	 SHORT $LN8@GetItemST
$LN7@GetItemST:

; 339  : 			else
; 340  : 				pItemInfo->szSTName.Format(_T("%s%c%d"), szText, gSTGubunKey, nType);

  000f0	50		 push	 eax
  000f1	6a 5e		 push	 94			; 0000005eH
  000f3	ff 75 08	 push	 DWORD PTR _szText$1[ebp]
  000f6	68 00 00 00 00	 push	 OFFSET ??_C@_06GNAFJLOE@?$CFs?$CFc?$CFd@
  000fb	51		 push	 ecx
  000fc	ff 15 00 00 00
	00		 call	 DWORD PTR __imp_?Format@?$CStringT@DV?$StrTraitMFC_DLL@DV?$ChTraitsCRT@D@ATL@@@@@ATL@@QAAXPBDZZ
  00102	83 c4 14	 add	 esp, 20			; 00000014H
$LN8@GetItemST:

; 341  : 
; 342  : 			pItemInfo->nSTType = pSTListCtrl->m_nSTFolderType;

  00105	8b 83 88 00 00
	00		 mov	 eax, DWORD PTR [ebx+136]

; 343  : 			pItemInfo->szSTRData = pSTListCtrl->m_szFolderName;

  0010b	8b ce		 mov	 ecx, esi
  0010d	89 46 0c	 mov	 DWORD PTR [esi+12], eax
  00110	8d 83 80 00 00
	00		 lea	 eax, DWORD PTR [ebx+128]
  00116	50		 push	 eax
  00117	ff 15 00 00 00
	00		 call	 DWORD PTR __imp_??4?$CStringT@DV?$StrTraitMFC_DLL@DV?$ChTraitsCRT@D@ATL@@@@@ATL@@QAEAAV01@ABV01@@Z

; 344  : 
; 345  : 			pInfo->AddTail(pItemInfo);

  0011d	8b 4d 0c	 mov	 ecx, DWORD PTR _dwInfo$[ebp]
  00120	56		 push	 esi
  00121	e8 00 00 00 00	 call	 ?AddTail@?$CList@PAUSTMNG_ITEMINFO@@PAU1@@@QAEPAU__POSITION@@PAUSTMNG_ITEMINFO@@@Z ; CList<STMNG_ITEMINFO *,STMNG_ITEMINFO *>::AddTail

; 346  : 		}

  00126	8d 4d 08	 lea	 ecx, DWORD PTR _szText$1[ebp]
  00129	ff 15 00 00 00
	00		 call	 DWORD PTR __imp_??1?$CStringT@DV?$StrTraitMFC_DLL@DV?$ChTraitsCRT@D@ATL@@@@@ATL@@QAE@XZ
$LN6@GetItemST:

; 328  : 	while(pos) {

  0012f	85 ff		 test	 edi, edi
  00131	0f 85 29 ff ff
	ff		 jne	 $LL2@GetItemST
$LN3@GetItemST:

; 347  : 	}
; 348  : 
; 349  : 	return 1;

  00137	5f		 pop	 edi
  00138	5e		 pop	 esi
  00139	b8 01 00 00 00	 mov	 eax, 1

; 350  : }

  0013e	5b		 pop	 ebx
  0013f	8b e5		 mov	 esp, ebp
  00141	5d		 pop	 ebp
  00142	c2 08 00	 ret	 8
$LN5@GetItemST:
  00145	5e		 pop	 esi

; 323  : 		return 0;

  00146	33 c0		 xor	 eax, eax

; 350  : }

  00148	5b		 pop	 ebx
  00149	8b e5		 mov	 esp, ebp
  0014b	5d		 pop	 ebp
  0014c	c2 08 00	 ret	 8
?GetItemST@CSTLoadManager@@UAGHK@Z ENDP			; CSTLoadManager::GetItemST
_TEXT	ENDS
; Function compile flags: /Ogtp
; File D:\git\src\IBK\IBK_DRFN\ProjSrc\SrcDrfn\Chart\Common_ST\_STLoadmanager.cpp
; File C:\Program Files (x86)\Microsoft Visual Studio\2019\Community\VC\Tools\MSVC\14.29.30133\atlmfc\include\afxcmn.inl
; File D:\git\src\IBK\IBK_DRFN\ProjSrc\SrcDrfn\Chart\Common_ST\_STLoadmanager.cpp
;	COMDAT ?GetFolderST@CSTLoadManager@@UAGHK@Z
_TEXT	SEGMENT
_nItemCount$1$ = -4					; size = 4
_szText$1 = 8						; size = 4
_this$ = 8						; size = 4
_dwInfo$ = 12						; size = 4
?GetFolderST@CSTLoadManager@@UAGHK@Z PROC		; CSTLoadManager::GetFolderST, COMDAT

; 288  : {

  00000	55		 push	 ebp
  00001	8b ec		 mov	 ebp, esp
  00003	51		 push	 ecx
  00004	53		 push	 ebx
  00005	56		 push	 esi

; 289  : 	CSTListCtrl* pSTListCtrl = (CSTListCtrl*)m_pOutBarCtrl->GetFolderChild(m_pOutBarCtrl->GetSelFolder());

  00006	8b 75 08	 mov	 esi, DWORD PTR _this$[ebp]
  00009	8b 4e 04	 mov	 ecx, DWORD PTR [esi+4]
  0000c	e8 00 00 00 00	 call	 ?GetSelFolder@CSTGfxOutBarCtrl@@QBEHXZ ; CSTGfxOutBarCtrl::GetSelFolder
  00011	8b 4e 04	 mov	 ecx, DWORD PTR [esi+4]
  00014	50		 push	 eax
  00015	e8 00 00 00 00	 call	 ?GetFolderChild@CSTGfxOutBarCtrl@@QAEPAVCWnd@@H@Z ; CSTGfxOutBarCtrl::GetFolderChild

; 292  : 	if(pInfo == NULL || (nItemCount = pSTListCtrl->GetItemCount()) <= 0)

  0001a	83 7d 0c 00	 cmp	 DWORD PTR _dwInfo$[ebp], 0
  0001e	8b d8		 mov	 ebx, eax
  00020	0f 84 de 00 00
	00		 je	 $LN6@GetFolderS
; File C:\Program Files (x86)\Microsoft Visual Studio\2019\Community\VC\Tools\MSVC\14.29.30133\atlmfc\include\afxcmn.inl

; 155  : 	{ ASSERT(::IsWindow(m_hWnd)); return (int) ::SendMessage(m_hWnd, LVM_GETITEMCOUNT, 0, 0L); }

  00026	6a 00		 push	 0
  00028	6a 00		 push	 0
  0002a	68 04 10 00 00	 push	 4100			; 00001004H
  0002f	ff 73 20	 push	 DWORD PTR [ebx+32]
  00032	ff 15 00 00 00
	00		 call	 DWORD PTR __imp__SendMessageA@16
; File D:\git\src\IBK\IBK_DRFN\ProjSrc\SrcDrfn\Chart\Common_ST\_STLoadmanager.cpp

; 292  : 	if(pInfo == NULL || (nItemCount = pSTListCtrl->GetItemCount()) <= 0)

  00038	89 45 fc	 mov	 DWORD PTR _nItemCount$1$[ebp], eax
  0003b	85 c0		 test	 eax, eax
  0003d	0f 8e c1 00 00
	00		 jle	 $LN6@GetFolderS

; 294  : 
; 295  : 	STMNG_ITEMINFO* pItemInfo = NULL;
; 296  : 	for(int nIndx = 0; nIndx < nItemCount; ++nIndx)

  00043	57		 push	 edi
  00044	33 ff		 xor	 edi, edi
$LL4@GetFolderS:

; 297  : 	{
; 298  : 		pItemInfo = new STMNG_ITEMINFO;

  00046	6a 18		 push	 24			; 00000018H
  00048	e8 00 00 00 00	 call	 ??2@YAPAXI@Z		; operator new
  0004d	8b f0		 mov	 esi, eax
  0004f	83 c4 04	 add	 esp, 4
  00052	85 f6		 test	 esi, esi
  00054	74 1c		 je	 SHORT $LN10@GetFolderS
  00056	8b ce		 mov	 ecx, esi
  00058	ff 15 00 00 00
	00		 call	 DWORD PTR __imp_??0?$CStringT@DV?$StrTraitMFC_DLL@DV?$ChTraitsCRT@D@ATL@@@@@ATL@@QAE@XZ
  0005e	8d 4e 04	 lea	 ecx, DWORD PTR [esi+4]
  00061	ff 15 00 00 00
	00		 call	 DWORD PTR __imp_??0?$CStringT@DV?$StrTraitMFC_DLL@DV?$ChTraitsCRT@D@ATL@@@@@ATL@@QAE@XZ
  00067	8d 4e 08	 lea	 ecx, DWORD PTR [esi+8]
  0006a	ff 15 00 00 00
	00		 call	 DWORD PTR __imp_??0?$CStringT@DV?$StrTraitMFC_DLL@DV?$ChTraitsCRT@D@ATL@@@@@ATL@@QAE@XZ
  00070	eb 02		 jmp	 SHORT $LN11@GetFolderS
$LN10@GetFolderS:
  00072	33 f6		 xor	 esi, esi
$LN11@GetFolderS:

; 299  : 		pItemInfo->szSTPath = pSTListCtrl->m_szFullPath;

  00074	8d 83 84 00 00
	00		 lea	 eax, DWORD PTR [ebx+132]
  0007a	50		 push	 eax
  0007b	8d 4e 08	 lea	 ecx, DWORD PTR [esi+8]
  0007e	ff 15 00 00 00
	00		 call	 DWORD PTR __imp_??4?$CStringT@DV?$StrTraitMFC_DLL@DV?$ChTraitsCRT@D@ATL@@@@@ATL@@QAEAAV01@ABV01@@Z

; 300  : 
; 301  : 		CString szText = pSTListCtrl->GetItemText(nIndx, 0);

  00084	6a 00		 push	 0
  00086	57		 push	 edi
  00087	8d 45 08	 lea	 eax, DWORD PTR _szText$1[ebp]
  0008a	8b cb		 mov	 ecx, ebx
  0008c	50		 push	 eax
  0008d	e8 00 00 00 00	 call	 ?GetItemText@CListCtrl@@QBE?AV?$CStringT@DV?$StrTraitMFC_DLL@DV?$ChTraitsCRT@D@ATL@@@@@ATL@@HH@Z ; CListCtrl::GetItemText

; 302  : 		int nType = (int)pSTListCtrl->GetItemData(nIndx);

  00092	57		 push	 edi
  00093	8b cb		 mov	 ecx, ebx
  00095	e8 00 00 00 00	 call	 ?GetItemData@CListCtrl@@QBEKH@Z ; CListCtrl::GetItemData
  0009a	8d 4e 04	 lea	 ecx, DWORD PTR [esi+4]

; 303  : 		if(nType == 9999)

  0009d	3d 0f 27 00 00	 cmp	 eax, 9999		; 0000270fH
  000a2	75 0c		 jne	 SHORT $LN7@GetFolderS

; 304  : 			pItemInfo->szSTName = szText;

  000a4	8d 45 08	 lea	 eax, DWORD PTR _szText$1[ebp]
  000a7	50		 push	 eax
  000a8	ff 15 00 00 00
	00		 call	 DWORD PTR __imp_??4?$CStringT@DV?$StrTraitMFC_DLL@DV?$ChTraitsCRT@D@ATL@@@@@ATL@@QAEAAV01@ABV01@@Z
  000ae	eb 15		 jmp	 SHORT $LN8@GetFolderS
$LN7@GetFolderS:

; 305  : 		else
; 306  : 			pItemInfo->szSTName.Format(_T("%s%c%d"), szText, gSTGubunKey, nType);

  000b0	50		 push	 eax
  000b1	6a 5e		 push	 94			; 0000005eH
  000b3	ff 75 08	 push	 DWORD PTR _szText$1[ebp]
  000b6	68 00 00 00 00	 push	 OFFSET ??_C@_06GNAFJLOE@?$CFs?$CFc?$CFd@
  000bb	51		 push	 ecx
  000bc	ff 15 00 00 00
	00		 call	 DWORD PTR __imp_?Format@?$CStringT@DV?$StrTraitMFC_DLL@DV?$ChTraitsCRT@D@ATL@@@@@ATL@@QAAXPBDZZ
  000c2	83 c4 14	 add	 esp, 20			; 00000014H
$LN8@GetFolderS:

; 307  : 
; 308  : 		pItemInfo->nSTType = pSTListCtrl->m_nSTFolderType;

  000c5	8b 83 88 00 00
	00		 mov	 eax, DWORD PTR [ebx+136]

; 309  : 		pItemInfo->szSTRData = pSTListCtrl->m_szFolderName;

  000cb	8b ce		 mov	 ecx, esi
  000cd	89 46 0c	 mov	 DWORD PTR [esi+12], eax
  000d0	8d 83 80 00 00
	00		 lea	 eax, DWORD PTR [ebx+128]
  000d6	50		 push	 eax
  000d7	ff 15 00 00 00
	00		 call	 DWORD PTR __imp_??4?$CStringT@DV?$StrTraitMFC_DLL@DV?$ChTraitsCRT@D@ATL@@@@@ATL@@QAEAAV01@ABV01@@Z

; 310  : 
; 311  : 		pInfo->AddTail(pItemInfo);

  000dd	8b 4d 0c	 mov	 ecx, DWORD PTR _dwInfo$[ebp]
  000e0	56		 push	 esi
  000e1	e8 00 00 00 00	 call	 ?AddTail@?$CList@PAUSTMNG_ITEMINFO@@PAU1@@@QAEPAU__POSITION@@PAUSTMNG_ITEMINFO@@@Z ; CList<STMNG_ITEMINFO *,STMNG_ITEMINFO *>::AddTail

; 312  : 	}

  000e6	8d 4d 08	 lea	 ecx, DWORD PTR _szText$1[ebp]
  000e9	ff 15 00 00 00
	00		 call	 DWORD PTR __imp_??1?$CStringT@DV?$StrTraitMFC_DLL@DV?$ChTraitsCRT@D@ATL@@@@@ATL@@QAE@XZ
  000ef	8b 45 fc	 mov	 eax, DWORD PTR _nItemCount$1$[ebp]
  000f2	47		 inc	 edi
  000f3	3b f8		 cmp	 edi, eax
  000f5	0f 8c 4b ff ff
	ff		 jl	 $LL4@GetFolderS

; 313  : 
; 314  : 	return nItemCount;

  000fb	5f		 pop	 edi
  000fc	5e		 pop	 esi

; 315  : }

  000fd	5b		 pop	 ebx
  000fe	8b e5		 mov	 esp, ebp
  00100	5d		 pop	 ebp
  00101	c2 08 00	 ret	 8
$LN6@GetFolderS:
  00104	5e		 pop	 esi

; 293  : 		return 0;

  00105	33 c0		 xor	 eax, eax

; 315  : }

  00107	5b		 pop	 ebx
  00108	8b e5		 mov	 esp, ebp
  0010a	5d		 pop	 ebp
  0010b	c2 08 00	 ret	 8
?GetFolderST@CSTLoadManager@@UAGHK@Z ENDP		; CSTLoadManager::GetFolderST
_TEXT	ENDS
; Function compile flags: /Ogtp
; File D:\git\src\IBK\IBK_DRFN\ProjSrc\SrcDrfn\Chart\Common_ST\_STLoadmanager.cpp
; File C:\Program Files (x86)\Microsoft Visual Studio\2019\Community\VC\Tools\MSVC\14.29.30133\atlmfc\include\afxcmn.inl
; File D:\git\src\IBK\IBK_DRFN\ProjSrc\SrcDrfn\Chart\Common_ST\_STLoadmanager.cpp
;	COMDAT ?UpdateST@CSTLoadManager@@UAGHHV?$CStringT@DV?$StrTraitMFC_DLL@DV?$ChTraitsCRT@D@ATL@@@@@ATL@@@Z
_TEXT	SEGMENT
_nFolderCount$1$ = -16					; size = 4
_szSTName$ = -12					; size = 4
$T1 = -8						; size = 4
_szSTType$2 = -8					; size = 4
_szSTFilePath$3 = -4					; size = 4
_szFolderName$4 = 8					; size = 4
_this$ = 8						; size = 4
_nState$ = 12						; size = 4
_szSTPath$ = 16						; size = 4
?UpdateST@CSTLoadManager@@UAGHHV?$CStringT@DV?$StrTraitMFC_DLL@DV?$ChTraitsCRT@D@ATL@@@@@ATL@@@Z PROC ; CSTLoadManager::UpdateST, COMDAT

; 200  : {

  00000	55		 push	 ebp
  00001	8b ec		 mov	 ebp, esp
  00003	83 ec 10	 sub	 esp, 16			; 00000010H

; 201  : 	int nSTIndx = 0;
; 202  : 	CString szSTName(szSTPath);

  00006	8d 45 10	 lea	 eax, DWORD PTR _szSTPath$[ebp]
  00009	8d 4d f4	 lea	 ecx, DWORD PTR _szSTName$[ebp]
  0000c	53		 push	 ebx
  0000d	56		 push	 esi
  0000e	57		 push	 edi
  0000f	50		 push	 eax
  00010	33 db		 xor	 ebx, ebx
  00012	ff 15 00 00 00
	00		 call	 DWORD PTR __imp_??0?$CStringT@DV?$StrTraitMFC_DLL@DV?$ChTraitsCRT@D@ATL@@@@@ATL@@QAE@ABV01@@Z

; 203  : 	if(m_pOutBarCtrl && m_pOutBarCtrl->GetSafeHwnd()) 

  00018	8b 7d 08	 mov	 edi, DWORD PTR _this$[ebp]
  0001b	8b 47 04	 mov	 eax, DWORD PTR [edi+4]
  0001e	8b c8		 mov	 ecx, eax
  00020	85 c0		 test	 eax, eax
  00022	0f 84 9e 01 00
	00		 je	 $LN4@UpdateST
  00028	39 58 20	 cmp	 DWORD PTR [eax+32], ebx
  0002b	0f 84 95 01 00
	00		 je	 $LN4@UpdateST

; 204  : 	{
; 205  : 		m_pOutBarCtrl->iLastFolderHighlighted = -1;

  00031	c7 80 14 01 00
	00 ff ff ff ff	 mov	 DWORD PTR [eax+276], -1

; 206  : 		m_pOutBarCtrl->iLastSelectedFolder = -1;
; 207  : 
; 208  : 		CString szFolderName;

  0003b	8d 4d 08	 lea	 ecx, DWORD PTR _szFolderName$4[ebp]
  0003e	8b 47 04	 mov	 eax, DWORD PTR [edi+4]
  00041	c7 80 18 01 00
	00 ff ff ff ff	 mov	 DWORD PTR [eax+280], -1
  0004b	ff 15 00 00 00
	00		 call	 DWORD PTR __imp_??0?$CStringT@DV?$StrTraitMFC_DLL@DV?$ChTraitsCRT@D@ATL@@@@@ATL@@QAE@XZ

; 209  : 		if(nState == Ext_STChange_SDDelete || nState == Ext_STChange_SDAdd)

  00051	8b 45 0c	 mov	 eax, DWORD PTR _nState$[ebp]
  00054	83 f8 20	 cmp	 eax, 32			; 00000020H
  00057	74 15		 je	 SHORT $LN7@UpdateST
  00059	83 f8 21	 cmp	 eax, 33			; 00000021H
  0005c	74 10		 je	 SHORT $LN7@UpdateST

; 226  : 		else
; 227  : 			szFolderName = "";

  0005e	68 00 00 00 00	 push	 OFFSET ??_C@_0P@BCEOGAFN@?$LL?g?$LP?k?$MA?Z?A?$LG?G?U?$MA?$PM?$LH?$KL@
  00063	8d 4d 08	 lea	 ecx, DWORD PTR _szFolderName$4[ebp]
  00066	ff 15 00 00 00
	00		 call	 DWORD PTR __imp_??4?$CStringT@DV?$StrTraitMFC_DLL@DV?$ChTraitsCRT@D@ATL@@@@@ATL@@QAEAAV01@PBD@Z
  0006c	eb 72		 jmp	 SHORT $LN6@UpdateST
$LN7@UpdateST:

; 210  : 		{
; 211  : 			CString szSTType;

  0006e	8d 4d f8	 lea	 ecx, DWORD PTR _szSTType$2[ebp]
  00071	ff 15 00 00 00
	00		 call	 DWORD PTR __imp_??0?$CStringT@DV?$StrTraitMFC_DLL@DV?$ChTraitsCRT@D@ATL@@@@@ATL@@QAE@XZ

; 212  : 			IsSTTypeToLoad(szSTPath, szSTType);

  00077	8d 45 f8	 lea	 eax, DWORD PTR _szSTType$2[ebp]
  0007a	8b cf		 mov	 ecx, edi
  0007c	50		 push	 eax
  0007d	8d 45 10	 lea	 eax, DWORD PTR _szSTPath$[ebp]
  00080	50		 push	 eax
  00081	e8 00 00 00 00	 call	 ?IsSTTypeToLoad@CSTLoadManager@@IAEHAAV?$CStringT@DV?$StrTraitMFC_DLL@DV?$ChTraitsCRT@D@ATL@@@@@ATL@@0@Z ; CSTLoadManager::IsSTTypeToLoad

; 213  : 			DWORD dwSTType = atol(szSTType);

  00086	ff 75 f8	 push	 DWORD PTR _szSTType$2[ebp]
  00089	ff 15 00 00 00
	00		 call	 DWORD PTR __imp__atol
  0008f	83 c4 04	 add	 esp, 4

; 214  : 
; 215  : 			if(dwSTType == NULL)

  00092	85 c0		 test	 eax, eax
  00094	75 19		 jne	 SHORT $LN8@UpdateST
$LN51@UpdateST:

; 231  : 			return FALSE;

  00096	8d 4d f8	 lea	 ecx, DWORD PTR _szSTType$2[ebp]
  00099	ff 15 00 00 00
	00		 call	 DWORD PTR __imp_??1?$CStringT@DV?$StrTraitMFC_DLL@DV?$ChTraitsCRT@D@ATL@@@@@ATL@@QAE@XZ
  0009f	8d 4d 08	 lea	 ecx, DWORD PTR _szFolderName$4[ebp]
  000a2	ff 15 00 00 00
	00		 call	 DWORD PTR __imp_??1?$CStringT@DV?$StrTraitMFC_DLL@DV?$ChTraitsCRT@D@ATL@@@@@ATL@@QAE@XZ
  000a8	33 f6		 xor	 esi, esi
  000aa	e9 57 01 00 00	 jmp	 $LN24@UpdateST
$LN8@UpdateST:

; 216  : 				return FALSE;
; 217  : 
; 218  : 			BOOL bAvailable = FALSE;
; 219  : 			if(dwSTType & STRATEGY_BULL)				// 

  000af	a8 04		 test	 al, 4
  000b1	74 07		 je	 SHORT $LN9@UpdateST

; 220  : 				szFolderName = "";

  000b3	68 00 00 00 00	 push	 OFFSET ??_C@_0P@EACIJNAL@?$LL?g?$LP?k?$MA?Z?$LA?$KN?$LM?$LM?$LO?$OA?$LM?$LM@
  000b8	eb 14		 jmp	 SHORT $LN54@UpdateST
$LN9@UpdateST:

; 221  : 			else if(dwSTType & STRATEGY_ORDER)			// 

  000ba	a8 02		 test	 al, 2
  000bc	74 07		 je	 SHORT $LN11@UpdateST

; 222  : 				szFolderName = "";

  000be	68 00 00 00 00	 push	 OFFSET ??_C@_0P@GKBMMIPA@?$LL?g?$LP?k?$MA?Z?$LE?$NM?$MA?$KH?$MA?$PM?$LH?$KL@
  000c3	eb 09		 jmp	 SHORT $LN54@UpdateST
$LN11@UpdateST:

; 223  : 			else if( dwSTType & STRATEGY_INDEX)				// 

  000c5	a8 01		 test	 al, 1
  000c7	74 0e		 je	 SHORT $LN13@UpdateST

; 224  : 				szFolderName = "";

  000c9	68 00 00 00 00	 push	 OFFSET ??_C@_0L@DLNLHHBM@?$LL?g?$LP?k?$MA?Z?A?v?G?$KF@
$LN54@UpdateST:

; 225  : 		}

  000ce	8d 4d 08	 lea	 ecx, DWORD PTR _szFolderName$4[ebp]
  000d1	ff 15 00 00 00
	00		 call	 DWORD PTR __imp_??4?$CStringT@DV?$StrTraitMFC_DLL@DV?$ChTraitsCRT@D@ATL@@@@@ATL@@QAEAAV01@PBD@Z
$LN13@UpdateST:
  000d7	8d 4d f8	 lea	 ecx, DWORD PTR _szSTType$2[ebp]
  000da	ff 15 00 00 00
	00		 call	 DWORD PTR __imp_??1?$CStringT@DV?$StrTraitMFC_DLL@DV?$ChTraitsCRT@D@ATL@@@@@ATL@@QAE@XZ
$LN6@UpdateST:

; 228  : 
; 229  : 		nSTIndx = GetFolderIndexFromFolderName(szFolderName);

  000e0	8d 45 08	 lea	 eax, DWORD PTR _szFolderName$4[ebp]
  000e3	50		 push	 eax
  000e4	8d 4d f8	 lea	 ecx, DWORD PTR $T1[ebp]
  000e7	ff 15 00 00 00
	00		 call	 DWORD PTR __imp_??0?$CStringT@DV?$StrTraitMFC_DLL@DV?$ChTraitsCRT@D@ATL@@@@@ATL@@QAE@ABV01@@Z

; 270  : 	int nFolderCount = m_pOutBarCtrl->GetFolderCount();

  000ed	8b 4f 04	 mov	 ecx, DWORD PTR [edi+4]
  000f0	83 cb ff	 or	 ebx, -1
  000f3	e8 00 00 00 00	 call	 ?GetFolderCount@CSTGfxOutBarCtrl@@QBEHXZ ; CSTGfxOutBarCtrl::GetFolderCount

; 271  : 
; 272  : 	for(int nFIndx = 0; nFIndx < nFolderCount; ++nFIndx)

  000f8	33 f6		 xor	 esi, esi
  000fa	89 45 f0	 mov	 DWORD PTR _nFolderCount$1$[ebp], eax
  000fd	85 c0		 test	 eax, eax
  000ff	7e 2e		 jle	 SHORT $LN33@UpdateST
  00101	8b d8		 mov	 ebx, eax
$LL34@UpdateST:

; 273  : 	{
; 274  : 		if(pSTListCtrl = (CSTListCtrl*)m_pOutBarCtrl->GetFolderChild(nFIndx))

  00103	8b 4f 04	 mov	 ecx, DWORD PTR [edi+4]
  00106	56		 push	 esi
  00107	e8 00 00 00 00	 call	 ?GetFolderChild@CSTGfxOutBarCtrl@@QAEPAVCWnd@@H@Z ; CSTGfxOutBarCtrl::GetFolderChild
  0010c	85 c0		 test	 eax, eax
  0010e	74 13		 je	 SHORT $LN32@UpdateST

; 275  : 		{
; 276  : 			if(szFolderName.Compare(pSTListCtrl->m_szFolderName) == 0)

  00110	ff b0 80 00 00
	00		 push	 DWORD PTR [eax+128]
  00116	8d 4d f8	 lea	 ecx, DWORD PTR $T1[ebp]
  00119	ff 15 00 00 00
	00		 call	 DWORD PTR __imp_?Compare@?$CStringT@DV?$StrTraitMFC_DLL@DV?$ChTraitsCRT@D@ATL@@@@@ATL@@QBEHPBD@Z
  0011f	85 c0		 test	 eax, eax
  00121	74 0a		 je	 SHORT $LN47@UpdateST
$LN32@UpdateST:

; 271  : 
; 272  : 	for(int nFIndx = 0; nFIndx < nFolderCount; ++nFIndx)

  00123	46		 inc	 esi
  00124	3b f3		 cmp	 esi, ebx
  00126	7c db		 jl	 SHORT $LL34@UpdateST
  00128	e9 69 ff ff ff	 jmp	 $LN51@UpdateST
$LN47@UpdateST:

; 277  : 			{
; 278  : 				nFolderIndx = nFIndx;

  0012d	8b de		 mov	 ebx, esi
$LN33@UpdateST:

; 279  : 				break;
; 280  : 			}
; 281  : 		}
; 282  : 	}
; 283  : 
; 284  : 	return nFolderIndx;

  0012f	8d 4d f8	 lea	 ecx, DWORD PTR $T1[ebp]
  00132	ff 15 00 00 00
	00		 call	 DWORD PTR __imp_??1?$CStringT@DV?$StrTraitMFC_DLL@DV?$ChTraitsCRT@D@ATL@@@@@ATL@@QAE@XZ

; 230  : 		if(nSTIndx < 0)

  00138	85 db		 test	 ebx, ebx
  0013a	79 10		 jns	 SHORT $LN14@UpdateST

; 231  : 			return FALSE;

  0013c	8d 4d 08	 lea	 ecx, DWORD PTR _szFolderName$4[ebp]
  0013f	ff 15 00 00 00
	00		 call	 DWORD PTR __imp_??1?$CStringT@DV?$StrTraitMFC_DLL@DV?$ChTraitsCRT@D@ATL@@@@@ATL@@QAE@XZ
  00145	33 f6		 xor	 esi, esi
  00147	e9 ba 00 00 00	 jmp	 $LN24@UpdateST
$LN14@UpdateST:

; 232  : 
; 233  : 		CString szSTFilePath;

  0014c	8d 4d fc	 lea	 ecx, DWORD PTR _szSTFilePath$3[ebp]
  0014f	ff 15 00 00 00
	00		 call	 DWORD PTR __imp_??0?$CStringT@DV?$StrTraitMFC_DLL@DV?$ChTraitsCRT@D@ATL@@@@@ATL@@QAE@XZ

; 234  : 		switch(nState)

  00155	8b 4d 0c	 mov	 ecx, DWORD PTR _nState$[ebp]
  00158	8d 41 e0	 lea	 eax, DWORD PTR [ecx-32]
  0015b	83 f8 21	 cmp	 eax, 33			; 00000021H
  0015e	77 51		 ja	 SHORT $LN2@UpdateST
  00160	0f b6 80 00 00
	00 00		 movzx	 eax, BYTE PTR $LN52@UpdateST[eax]
  00167	ff 24 85 00 00
	00 00		 jmp	 DWORD PTR $LN53@UpdateST[eax*4]
$LN17@UpdateST:

; 235  : 		{
; 236  : 		case Ext_STChange_SDDelete:
; 237  : 			DeleteSTFile(nSTIndx, szSTPath);	break;
; 238  : 		case Ext_STChange_SDAdd:
; 239  : 			//szSTFilePath.Format("%s\\%s\\%s%s", m_szCurrentSTPath, szFolderName, szSTPath, ".ST");
; 240  : 			szSTFilePath.Format("%s\\%s\\%s%s", m_szCurrentSTPath, szFolderName, szSTName, ".ST");
; 241  : 			AddSTFile(szSTFilePath);				break;
; 242  : 		case Ext_STChange_Delete:
; 243  : 			DeleteSTFile(nSTIndx, szSTPath);	break;
; 244  : 		case Ext_STChange_Add:
; 245  : 			//szSTFilePath.Format("%s\\%s\\%s%s", m_szCurrentSTPath, szFolderName, szSTPath, ".ST");
; 246  : 			szSTFilePath.Format("%s\\%s\\%s%s", m_szCurrentSTPath, szFolderName, szSTName, ".ST");
; 247  : 			AddSTFile(szSTFilePath);				break;
; 248  : 		}
; 249  : 	}

  0016e	51		 push	 ecx
  0016f	8d 45 10	 lea	 eax, DWORD PTR _szSTPath$[ebp]
  00172	8b cc		 mov	 ecx, esp
  00174	50		 push	 eax
  00175	ff 15 00 00 00
	00		 call	 DWORD PTR __imp_??0?$CStringT@DV?$StrTraitMFC_DLL@DV?$ChTraitsCRT@D@ATL@@@@@ATL@@QAE@ABV01@@Z
  0017b	53		 push	 ebx
  0017c	8b cf		 mov	 ecx, edi
  0017e	e8 00 00 00 00	 call	 ?DeleteSTFile@CSTLoadManager@@QAEXHV?$CStringT@DV?$StrTraitMFC_DLL@DV?$ChTraitsCRT@D@ATL@@@@@ATL@@@Z ; CSTLoadManager::DeleteSTFile
  00183	eb 2c		 jmp	 SHORT $LN2@UpdateST
$LN18@UpdateST:
  00185	68 00 00 00 00	 push	 OFFSET ??_C@_03COHLPAFH@?4ST@
  0018a	ff 75 f4	 push	 DWORD PTR _szSTName$[ebp]
  0018d	8d 45 fc	 lea	 eax, DWORD PTR _szSTFilePath$3[ebp]
  00190	ff 75 08	 push	 DWORD PTR _szFolderName$4[ebp]
  00193	ff 77 0c	 push	 DWORD PTR [edi+12]
  00196	68 00 00 00 00	 push	 OFFSET ??_C@_0L@LHMOIOEP@?$CFs?2?$CFs?2?$CFs?$CFs@
  0019b	50		 push	 eax
  0019c	ff 15 00 00 00
	00		 call	 DWORD PTR __imp_?Format@?$CStringT@DV?$StrTraitMFC_DLL@DV?$ChTraitsCRT@D@ATL@@@@@ATL@@QAAXPBDZZ
  001a2	83 c4 18	 add	 esp, 24			; 00000018H
  001a5	8b cf		 mov	 ecx, edi
  001a7	6a 00		 push	 0
  001a9	ff 75 fc	 push	 DWORD PTR _szSTFilePath$3[ebp]
  001ac	e8 00 00 00 00	 call	 ?AddSTFile@CSTLoadManager@@IAEXPBD0@Z ; CSTLoadManager::AddSTFile
$LN2@UpdateST:
  001b1	8d 4d fc	 lea	 ecx, DWORD PTR _szSTFilePath$3[ebp]
  001b4	ff 15 00 00 00
	00		 call	 DWORD PTR __imp_??1?$CStringT@DV?$StrTraitMFC_DLL@DV?$ChTraitsCRT@D@ATL@@@@@ATL@@QAE@XZ
  001ba	8d 4d 08	 lea	 ecx, DWORD PTR _szFolderName$4[ebp]
  001bd	ff 15 00 00 00
	00		 call	 DWORD PTR __imp_??1?$CStringT@DV?$StrTraitMFC_DLL@DV?$ChTraitsCRT@D@ATL@@@@@ATL@@QAE@XZ
  001c3	8b 4f 04	 mov	 ecx, DWORD PTR [edi+4]
$LN4@UpdateST:

; 250  : 
; 251  : 	//	// User   ListCtrl ID 
; 252  : 	m_pOutBarCtrl->SetSelFolder(nSTIndx);

  001c6	53		 push	 ebx
  001c7	e8 00 00 00 00	 call	 ?SetSelFolder@CSTGfxOutBarCtrl@@QAEXH@Z ; CSTGfxOutBarCtrl::SetSelFolder

; 253  : 	if(nState == Ext_STChange_SDAdd || nState == Ext_STChange_Add)

  001cc	8b 45 0c	 mov	 eax, DWORD PTR _nState$[ebp]
  001cf	83 f8 21	 cmp	 eax, 33			; 00000021H
  001d2	74 05		 je	 SHORT $LN20@UpdateST
  001d4	83 f8 41	 cmp	 eax, 65			; 00000041H
  001d7	75 28		 jne	 SHORT $LN21@UpdateST
$LN20@UpdateST:

; 254  : 	{
; 255  : 		CSTListCtrl* pSTListCtrl = NULL;
; 256  : 		if(pSTListCtrl = (CSTListCtrl*)m_pOutBarCtrl->GetFolderChild(nSTIndx))

  001d9	8b 4f 04	 mov	 ecx, DWORD PTR [edi+4]
  001dc	53		 push	 ebx
  001dd	e8 00 00 00 00	 call	 ?GetFolderChild@CSTGfxOutBarCtrl@@QAEPAVCWnd@@H@Z ; CSTGfxOutBarCtrl::GetFolderChild
  001e2	85 c0		 test	 eax, eax
  001e4	74 1b		 je	 SHORT $LN21@UpdateST
; File C:\Program Files (x86)\Microsoft Visual Studio\2019\Community\VC\Tools\MSVC\14.29.30133\atlmfc\include\afxcmn.inl

; 155  : 	{ ASSERT(::IsWindow(m_hWnd)); return (int) ::SendMessage(m_hWnd, LVM_GETITEMCOUNT, 0, 0L); }

  001e6	6a 00		 push	 0
  001e8	6a 00		 push	 0
  001ea	68 04 10 00 00	 push	 4100			; 00001004H
  001ef	ff 70 20	 push	 DWORD PTR [eax+32]
  001f2	ff 15 00 00 00
	00		 call	 DWORD PTR __imp__SendMessageA@16
; File D:\git\src\IBK\IBK_DRFN\ProjSrc\SrcDrfn\Chart\Common_ST\_STLoadmanager.cpp

; 259  : 			SetSelectedItem(nSTIndx, nSTItemIndx);

  001f8	8b 0f		 mov	 ecx, DWORD PTR [edi]
  001fa	48		 dec	 eax
  001fb	50		 push	 eax
  001fc	53		 push	 ebx
  001fd	57		 push	 edi
  001fe	ff 51 1c	 call	 DWORD PTR [ecx+28]
$LN21@UpdateST:

; 260  : 		}
; 261  : 	}
; 262  : 
; 263  : 	return TRUE;

  00201	be 01 00 00 00	 mov	 esi, 1
$LN24@UpdateST:
  00206	8d 4d f4	 lea	 ecx, DWORD PTR _szSTName$[ebp]
  00209	ff 15 00 00 00
	00		 call	 DWORD PTR __imp_??1?$CStringT@DV?$StrTraitMFC_DLL@DV?$ChTraitsCRT@D@ATL@@@@@ATL@@QAE@XZ
  0020f	8d 4d 10	 lea	 ecx, DWORD PTR _szSTPath$[ebp]
  00212	ff 15 00 00 00
	00		 call	 DWORD PTR __imp_??1?$CStringT@DV?$StrTraitMFC_DLL@DV?$ChTraitsCRT@D@ATL@@@@@ATL@@QAE@XZ

; 264  : }

  00218	5f		 pop	 edi
  00219	8b c6		 mov	 eax, esi
  0021b	5e		 pop	 esi
  0021c	5b		 pop	 ebx
  0021d	8b e5		 mov	 esp, ebp
  0021f	5d		 pop	 ebp
  00220	c2 0c 00	 ret	 12			; 0000000cH
  00223	90		 npad	 1
$LN53@UpdateST:
  00224	00 00 00 00	 DD	 $LN17@UpdateST
  00228	00 00 00 00	 DD	 $LN18@UpdateST
  0022c	00 00 00 00	 DD	 $LN2@UpdateST
$LN52@UpdateST:
  00230	00		 DB	 0
  00231	01		 DB	 1
  00232	02		 DB	 2
  00233	02		 DB	 2
  00234	02		 DB	 2
  00235	02		 DB	 2
  00236	02		 DB	 2
  00237	02		 DB	 2
  00238	02		 DB	 2
  00239	02		 DB	 2
  0023a	02		 DB	 2
  0023b	02		 DB	 2
  0023c	02		 DB	 2
  0023d	02		 DB	 2
  0023e	02		 DB	 2
  0023f	02		 DB	 2
  00240	02		 DB	 2
  00241	02		 DB	 2
  00242	02		 DB	 2
  00243	02		 DB	 2
  00244	02		 DB	 2
  00245	02		 DB	 2
  00246	02		 DB	 2
  00247	02		 DB	 2
  00248	02		 DB	 2
  00249	02		 DB	 2
  0024a	02		 DB	 2
  0024b	02		 DB	 2
  0024c	02		 DB	 2
  0024d	02		 DB	 2
  0024e	02		 DB	 2
  0024f	02		 DB	 2
  00250	00		 DB	 0
  00251	01		 DB	 1
?UpdateST@CSTLoadManager@@UAGHHV?$CStringT@DV?$StrTraitMFC_DLL@DV?$ChTraitsCRT@D@ATL@@@@@ATL@@@Z ENDP ; CSTLoadManager::UpdateST
_TEXT	ENDS
; Function compile flags: /Ogtp
; File D:\git\src\IBK\IBK_DRFN\ProjSrc\SrcDrfn\Chart\Common_ST\_STLoadmanager.cpp
; File C:\Program Files (x86)\Microsoft Visual Studio\2019\Community\VC\Tools\MSVC\14.29.30133\atlmfc\include\afxcoll.inl
; File D:\git\src\IBK\IBK_DRFN\ProjSrc\SrcDrfn\Chart\Common_ST\_STLoadmanager.cpp
; File C:\Program Files (x86)\Microsoft Visual Studio\2019\Community\VC\Tools\MSVC\14.29.30133\atlmfc\include\afxcoll.inl
; File D:\git\src\IBK\IBK_DRFN\ProjSrc\SrcDrfn\Chart\Common_ST\_STLoadmanager.cpp
; File C:\Program Files (x86)\Microsoft Visual Studio\2019\Community\VC\Tools\MSVC\14.29.30133\atlmfc\include\afxcmn.inl
; File D:\git\src\IBK\IBK_DRFN\ProjSrc\SrcDrfn\Chart\Common_ST\_STLoadmanager.cpp
; File C:\Program Files (x86)\Microsoft Visual Studio\2019\Community\VC\Tools\MSVC\14.29.30133\atlmfc\include\afxcoll.inl
; File D:\git\src\IBK\IBK_DRFN\ProjSrc\SrcDrfn\Chart\Common_ST\_STLoadmanager.cpp
;	COMDAT ?SearchST@CSTLoadManager@@UAGHV?$CStringT@DV?$StrTraitMFC_DLL@DV?$ChTraitsCRT@D@ATL@@@@@ATL@@AAVCStringArray@@@Z
_TEXT	SEGMENT
_nFolderCount$1$ = -20					; size = 4
_nItemCount$1$ = -16					; size = 4
$T1 = -12						; size = 4
_pSTListCtrl$1$ = -8					; size = 4
_szFindIndx$2 = -4					; size = 4
_this$ = 8						; size = 4
_szSTName$ = 12						; size = 4
_szItemName$3 = 16					; size = 4
_arFindIndx$ = 16					; size = 4
?SearchST@CSTLoadManager@@UAGHV?$CStringT@DV?$StrTraitMFC_DLL@DV?$ChTraitsCRT@D@ATL@@@@@ATL@@AAVCStringArray@@@Z PROC ; CSTLoadManager::SearchST, COMDAT

; 132  : {

  00000	55		 push	 ebp
  00001	8b ec		 mov	 ebp, esp
  00003	83 ec 14	 sub	 esp, 20			; 00000014H
  00006	53		 push	 ebx
; File C:\Program Files (x86)\Microsoft Visual Studio\2019\Community\VC\Tools\MSVC\14.29.30133\atlmfc\include\afxcoll.inl

; 286  : 	{ SetSize(0); }

  00007	8b 5d 10	 mov	 ebx, DWORD PTR _arFindIndx$[ebp]
  0000a	8b cb		 mov	 ecx, ebx
; File D:\git\src\IBK\IBK_DRFN\ProjSrc\SrcDrfn\Chart\Common_ST\_STLoadmanager.cpp

; 132  : {

  0000c	56		 push	 esi
; File C:\Program Files (x86)\Microsoft Visual Studio\2019\Community\VC\Tools\MSVC\14.29.30133\atlmfc\include\afxcoll.inl

; 286  : 	{ SetSize(0); }

  0000d	6a ff		 push	 -1
  0000f	6a 00		 push	 0
  00011	e8 00 00 00 00	 call	 ?SetSize@CStringArray@@QAEXHH@Z ; CStringArray::SetSize
; File D:\git\src\IBK\IBK_DRFN\ProjSrc\SrcDrfn\Chart\Common_ST\_STLoadmanager.cpp

; 135  : 	szSTName.MakeUpper();

  00016	8d 4d 0c	 lea	 ecx, DWORD PTR _szSTName$[ebp]
  00019	33 f6		 xor	 esi, esi
  0001b	ff 15 00 00 00
	00		 call	 DWORD PTR __imp_?MakeUpper@?$CStringT@DV?$StrTraitMFC_DLL@DV?$ChTraitsCRT@D@ATL@@@@@ATL@@QAEAAV12@XZ

; 136  : 	if(m_pOutBarCtrl && m_pOutBarCtrl->GetSafeHwnd()) {

  00021	8b 4d 08	 mov	 ecx, DWORD PTR _this$[ebp]
  00024	8b 49 04	 mov	 ecx, DWORD PTR [ecx+4]
  00027	85 c9		 test	 ecx, ecx
  00029	0f 84 ed 00 00
	00		 je	 $LN8@SearchST
  0002f	39 71 20	 cmp	 DWORD PTR [ecx+32], esi
  00032	0f 84 e4 00 00
	00		 je	 $LN8@SearchST

; 137  : 
; 138  : 		CSTListCtrl* pSTListCtrl = NULL;
; 139  : 		int nFolderCount = m_pOutBarCtrl->GetFolderCount();

  00038	57		 push	 edi
  00039	e8 00 00 00 00	 call	 ?GetFolderCount@CSTGfxOutBarCtrl@@QBEHXZ ; CSTGfxOutBarCtrl::GetFolderCount
  0003e	33 ff		 xor	 edi, edi
  00040	89 45 ec	 mov	 DWORD PTR _nFolderCount$1$[ebp], eax

; 140  : 		for(int nIndx = 0; nIndx < nFolderCount; ++nIndx)

  00043	85 c0		 test	 eax, eax
  00045	0f 8e cd 00 00
	00		 jle	 $LN3@SearchST
  0004b	0f 1f 44 00 00	 npad	 5
$LL4@SearchST:

; 141  : 		{
; 142  : 			if(pSTListCtrl = (CSTListCtrl*)m_pOutBarCtrl->GetFolderChild(nIndx)) {

  00050	8b 45 08	 mov	 eax, DWORD PTR _this$[ebp]
  00053	57		 push	 edi
  00054	8b 48 04	 mov	 ecx, DWORD PTR [eax+4]
  00057	e8 00 00 00 00	 call	 ?GetFolderChild@CSTGfxOutBarCtrl@@QAEPAVCWnd@@H@Z ; CSTGfxOutBarCtrl::GetFolderChild
  0005c	8b f0		 mov	 esi, eax
  0005e	89 75 f8	 mov	 DWORD PTR _pSTListCtrl$1$[ebp], esi
  00061	85 f6		 test	 esi, esi
  00063	0f 84 a5 00 00
	00		 je	 $LN2@SearchST

; 144  : 				CString szItemName;

  00069	8d 4d 10	 lea	 ecx, DWORD PTR _szItemName$3[ebp]
  0006c	ff 15 00 00 00
	00		 call	 DWORD PTR __imp_??0?$CStringT@DV?$StrTraitMFC_DLL@DV?$ChTraitsCRT@D@ATL@@@@@ATL@@QAE@XZ

; 145  : 				CString szFindIndx;

  00072	8d 4d fc	 lea	 ecx, DWORD PTR _szFindIndx$2[ebp]
  00075	ff 15 00 00 00
	00		 call	 DWORD PTR __imp_??0?$CStringT@DV?$StrTraitMFC_DLL@DV?$ChTraitsCRT@D@ATL@@@@@ATL@@QAE@XZ
; File C:\Program Files (x86)\Microsoft Visual Studio\2019\Community\VC\Tools\MSVC\14.29.30133\atlmfc\include\afxcmn.inl

; 155  : 	{ ASSERT(::IsWindow(m_hWnd)); return (int) ::SendMessage(m_hWnd, LVM_GETITEMCOUNT, 0, 0L); }

  0007b	6a 00		 push	 0
  0007d	6a 00		 push	 0
  0007f	68 04 10 00 00	 push	 4100			; 00001004H
  00084	ff 76 20	 push	 DWORD PTR [esi+32]
  00087	ff 15 00 00 00
	00		 call	 DWORD PTR __imp__SendMessageA@16
; File D:\git\src\IBK\IBK_DRFN\ProjSrc\SrcDrfn\Chart\Common_ST\_STLoadmanager.cpp

; 144  : 				CString szItemName;

  0008d	33 f6		 xor	 esi, esi

; 146  : 				int nFolderIndx = -1;
; 147  : 				int nItemIndx = -1;
; 148  : 				int nItemCount = pSTListCtrl->GetItemCount();

  0008f	89 45 f0	 mov	 DWORD PTR _nItemCount$1$[ebp], eax

; 149  : 				for(int nSubIndx = 0; nSubIndx < nItemCount; ++nSubIndx)

  00092	85 c0		 test	 eax, eax
  00094	7e 66		 jle	 SHORT $LN6@SearchST
$LL7@SearchST:

; 150  : 				{
; 151  : 					szItemName = pSTListCtrl->GetItemText(nSubIndx, 0);

  00096	8b 4d f8	 mov	 ecx, DWORD PTR _pSTListCtrl$1$[ebp]
  00099	8d 45 f4	 lea	 eax, DWORD PTR $T1[ebp]
  0009c	6a 00		 push	 0
  0009e	56		 push	 esi
  0009f	50		 push	 eax
  000a0	e8 00 00 00 00	 call	 ?GetItemText@CListCtrl@@QBE?AV?$CStringT@DV?$StrTraitMFC_DLL@DV?$ChTraitsCRT@D@ATL@@@@@ATL@@HH@Z ; CListCtrl::GetItemText
  000a5	50		 push	 eax
  000a6	8d 4d 10	 lea	 ecx, DWORD PTR _szItemName$3[ebp]
  000a9	ff 15 00 00 00
	00		 call	 DWORD PTR __imp_??4?$CStringT@DV?$StrTraitMFC_DLL@DV?$ChTraitsCRT@D@ATL@@@@@ATL@@QAEAAV01@ABV01@@Z
  000af	8d 4d f4	 lea	 ecx, DWORD PTR $T1[ebp]
  000b2	ff 15 00 00 00
	00		 call	 DWORD PTR __imp_??1?$CStringT@DV?$StrTraitMFC_DLL@DV?$ChTraitsCRT@D@ATL@@@@@ATL@@QAE@XZ

; 152  : 					szItemName.MakeUpper();

  000b8	8d 4d 10	 lea	 ecx, DWORD PTR _szItemName$3[ebp]
  000bb	ff 15 00 00 00
	00		 call	 DWORD PTR __imp_?MakeUpper@?$CStringT@DV?$StrTraitMFC_DLL@DV?$ChTraitsCRT@D@ATL@@@@@ATL@@QAEAAV12@XZ

; 153  : 
; 154  : 					if(szItemName.Find(szSTName) != -1) {

  000c1	6a 00		 push	 0
  000c3	ff 75 0c	 push	 DWORD PTR _szSTName$[ebp]
  000c6	8d 4d 10	 lea	 ecx, DWORD PTR _szItemName$3[ebp]
  000c9	ff 15 00 00 00
	00		 call	 DWORD PTR __imp_?Find@?$CStringT@DV?$StrTraitMFC_DLL@DV?$ChTraitsCRT@D@ATL@@@@@ATL@@QBEHPBDH@Z
  000cf	83 f8 ff	 cmp	 eax, -1
  000d2	74 22		 je	 SHORT $LN5@SearchST

; 155  : 						nFolderIndx = nIndx;
; 156  : 						nItemIndx = nSubIndx;
; 157  : 						szFindIndx.Format("%d:%d", nFolderIndx, nItemIndx);

  000d4	56		 push	 esi
  000d5	57		 push	 edi
  000d6	8d 45 fc	 lea	 eax, DWORD PTR _szFindIndx$2[ebp]
  000d9	68 00 00 00 00	 push	 OFFSET ??_C@_05NFGPCJDJ@?$CFd?3?$CFd@
  000de	50		 push	 eax
  000df	ff 15 00 00 00
	00		 call	 DWORD PTR __imp_?Format@?$CStringT@DV?$StrTraitMFC_DLL@DV?$ChTraitsCRT@D@ATL@@@@@ATL@@QAAXPBDZZ
  000e5	83 c4 10	 add	 esp, 16			; 00000010H
; File C:\Program Files (x86)\Microsoft Visual Studio\2019\Community\VC\Tools\MSVC\14.29.30133\atlmfc\include\afxcoll.inl

; 321  : 		SetAtGrow(nIndex, newElement);

  000e8	8d 45 fc	 lea	 eax, DWORD PTR _szFindIndx$2[ebp]
  000eb	8b cb		 mov	 ecx, ebx
  000ed	50		 push	 eax
  000ee	ff 73 08	 push	 DWORD PTR [ebx+8]
  000f1	e8 00 00 00 00	 call	 ?SetAtGrow@CStringArray@@QAEXHABV?$CStringT@DV?$StrTraitMFC_DLL@DV?$ChTraitsCRT@D@ATL@@@@@ATL@@@Z ; CStringArray::SetAtGrow
$LN5@SearchST:
; File D:\git\src\IBK\IBK_DRFN\ProjSrc\SrcDrfn\Chart\Common_ST\_STLoadmanager.cpp

; 149  : 				for(int nSubIndx = 0; nSubIndx < nItemCount; ++nSubIndx)

  000f6	46		 inc	 esi
  000f7	3b 75 f0	 cmp	 esi, DWORD PTR _nItemCount$1$[ebp]
  000fa	7c 9a		 jl	 SHORT $LL7@SearchST
$LN6@SearchST:

; 158  : 						arFindIndx.Add(szFindIndx);
; 159  : 					}
; 160  : 				}
; 161  : 			}

  000fc	8d 4d fc	 lea	 ecx, DWORD PTR _szFindIndx$2[ebp]
  000ff	ff 15 00 00 00
	00		 call	 DWORD PTR __imp_??1?$CStringT@DV?$StrTraitMFC_DLL@DV?$ChTraitsCRT@D@ATL@@@@@ATL@@QAE@XZ
  00105	8d 4d 10	 lea	 ecx, DWORD PTR _szItemName$3[ebp]
  00108	ff 15 00 00 00
	00		 call	 DWORD PTR __imp_??1?$CStringT@DV?$StrTraitMFC_DLL@DV?$ChTraitsCRT@D@ATL@@@@@ATL@@QAE@XZ
$LN2@SearchST:

; 140  : 		for(int nIndx = 0; nIndx < nFolderCount; ++nIndx)

  0010e	47		 inc	 edi
  0010f	3b 7d ec	 cmp	 edi, DWORD PTR _nFolderCount$1$[ebp]
  00112	0f 8c 38 ff ff
	ff		 jl	 $LL4@SearchST
$LN3@SearchST:

; 162  : 		}
; 163  : 
; 164  : 		nSTCount = arFindIndx.GetSize();

  00118	8b 73 08	 mov	 esi, DWORD PTR [ebx+8]
  0011b	5f		 pop	 edi
$LN8@SearchST:

; 165  : 	}
; 166  : 
; 167  : 	return nSTCount;

  0011c	8d 4d 0c	 lea	 ecx, DWORD PTR _szSTName$[ebp]
  0011f	ff 15 00 00 00
	00		 call	 DWORD PTR __imp_??1?$CStringT@DV?$StrTraitMFC_DLL@DV?$ChTraitsCRT@D@ATL@@@@@ATL@@QAE@XZ
  00125	8b c6		 mov	 eax, esi
  00127	5e		 pop	 esi
  00128	5b		 pop	 ebx

; 168  : }

  00129	8b e5		 mov	 esp, ebp
  0012b	5d		 pop	 ebp
  0012c	c2 0c 00	 ret	 12			; 0000000cH
?SearchST@CSTLoadManager@@UAGHV?$CStringT@DV?$StrTraitMFC_DLL@DV?$ChTraitsCRT@D@ATL@@@@@ATL@@AAVCStringArray@@@Z ENDP ; CSTLoadManager::SearchST
_TEXT	ENDS
; Function compile flags: /Ogtp
; File D:\git\src\IBK\IBK_DRFN\ProjSrc\SrcDrfn\Chart\Common_ST\_STLoadmanager.cpp
;	COMDAT ?UnloadST@CSTLoadManager@@UAGHXZ
_TEXT	SEGMENT
_this$ = 8						; size = 4
?UnloadST@CSTLoadManager@@UAGHXZ PROC			; CSTLoadManager::UnloadST, COMDAT

; 110  : {

  00000	55		 push	 ebp
  00001	8b ec		 mov	 ebp, esp
  00003	57		 push	 edi

; 111  : 	if(m_pOutBarCtrl && m_pOutBarCtrl->GetSafeHwnd()) {

  00004	8b 7d 08	 mov	 edi, DWORD PTR _this$[ebp]
  00007	8b 4f 04	 mov	 ecx, DWORD PTR [edi+4]
  0000a	85 c9		 test	 ecx, ecx
  0000c	74 3a		 je	 SHORT $LN18@UnloadST
  0000e	83 79 20 00	 cmp	 DWORD PTR [ecx+32], 0
  00012	74 34		 je	 SHORT $LN18@UnloadST

; 112  : 		int nFolderCount = m_pOutBarCtrl->GetFolderCount();

  00014	53		 push	 ebx
  00015	56		 push	 esi
  00016	e8 00 00 00 00	 call	 ?GetFolderCount@CSTGfxOutBarCtrl@@QBEHXZ ; CSTGfxOutBarCtrl::GetFolderCount
  0001b	8b d8		 mov	 ebx, eax
  0001d	33 f6		 xor	 esi, esi

; 113  : 
; 114  : 		//  ListCtrl 
; 115  : 		CSTListCtrl* pSTListCtrl = NULL;
; 116  : 		int nItemCount = 0;
; 117  : 		for(int nIndx = 0; nIndx < nFolderCount; ++nIndx)

  0001f	85 db		 test	 ebx, ebx
  00021	7e 1b		 jle	 SHORT $LN3@UnloadST
$LL4@UnloadST:

; 118  : 		{
; 119  : 			if(pSTListCtrl = (CSTListCtrl*)m_pOutBarCtrl->GetFolderChild(nIndx)) {

  00023	8b 4f 04	 mov	 ecx, DWORD PTR [edi+4]
  00026	56		 push	 esi
  00027	e8 00 00 00 00	 call	 ?GetFolderChild@CSTGfxOutBarCtrl@@QAEPAVCWnd@@H@Z ; CSTGfxOutBarCtrl::GetFolderChild
  0002c	85 c0		 test	 eax, eax
  0002e	74 09		 je	 SHORT $LN2@UnloadST

; 120  : 				delete pSTListCtrl;

  00030	8b 10		 mov	 edx, DWORD PTR [eax]
  00032	8b c8		 mov	 ecx, eax
  00034	6a 01		 push	 1
  00036	ff 52 04	 call	 DWORD PTR [edx+4]
$LN2@UnloadST:

; 113  : 
; 114  : 		//  ListCtrl 
; 115  : 		CSTListCtrl* pSTListCtrl = NULL;
; 116  : 		int nItemCount = 0;
; 117  : 		for(int nIndx = 0; nIndx < nFolderCount; ++nIndx)

  00039	46		 inc	 esi
  0003a	3b f3		 cmp	 esi, ebx
  0003c	7c e5		 jl	 SHORT $LL4@UnloadST
$LN3@UnloadST:

; 121  : 				pSTListCtrl = NULL;
; 122  : 			}
; 123  : 		}
; 124  : 
; 125  : 		//  
; 126  : 		m_pOutBarCtrl->DeleteAllFolder();

  0003e	8b 4f 04	 mov	 ecx, DWORD PTR [edi+4]
  00041	e8 00 00 00 00	 call	 ?DeleteAllFolder@CSTGfxOutBarCtrl@@QAEXXZ ; CSTGfxOutBarCtrl::DeleteAllFolder

; 127  : 	}
; 128  : 	return TRUE;

  00046	5e		 pop	 esi
  00047	5b		 pop	 ebx
$LN18@UnloadST:

; 129  : }

  00048	b8 01 00 00 00	 mov	 eax, 1
  0004d	5f		 pop	 edi
  0004e	5d		 pop	 ebp
  0004f	c2 04 00	 ret	 4
?UnloadST@CSTLoadManager@@UAGHXZ ENDP			; CSTLoadManager::UnloadST
_TEXT	ENDS
; Function compile flags: /Ogtp
; File D:\git\src\IBK\IBK_DRFN\ProjSrc\SrcDrfn\Chart\Common_ST\_STLoadmanager.cpp
;	COMDAT ?LoadST@CSTLoadManager@@UAGXPAVCWnd@@PAVCStringArray@@KH@Z
_TEXT	SEGMENT
_this$ = 8						; size = 4
_pOutBarCtrl$ = 12					; size = 4
_parSTPath$ = 16					; size = 4
_dwSTTypeToLoad$ = 20					; size = 4
_nDefaultSelFolder$ = 24				; size = 4
?LoadST@CSTLoadManager@@UAGXPAVCWnd@@PAVCStringArray@@KH@Z PROC ; CSTLoadManager::LoadST, COMDAT

; 85   : {

  00000	55		 push	 ebp
  00001	8b ec		 mov	 ebp, esp

; 86   : 	//    
; 87   : 	if(pOutBarCtrl && pOutBarCtrl->GetSafeHwnd() && parSTPath && parSTPath->GetSize() > 0) {

  00003	8b 45 0c	 mov	 eax, DWORD PTR _pOutBarCtrl$[ebp]
  00006	85 c0		 test	 eax, eax
  00008	74 50		 je	 SHORT $LN5@LoadST
  0000a	83 78 20 00	 cmp	 DWORD PTR [eax+32], 0
  0000e	74 4a		 je	 SHORT $LN5@LoadST
  00010	8b 4d 10	 mov	 ecx, DWORD PTR _parSTPath$[ebp]
  00013	85 c9		 test	 ecx, ecx
  00015	74 43		 je	 SHORT $LN5@LoadST
  00017	83 79 08 00	 cmp	 DWORD PTR [ecx+8], 0
  0001b	7e 3d		 jle	 SHORT $LN5@LoadST

; 88   : 		m_pOutBarCtrl = (CSTGfxOutBarCtrl*)pOutBarCtrl;

  0001d	56		 push	 esi
  0001e	8b 75 08	 mov	 esi, DWORD PTR _this$[ebp]

; 89   : 		m_parSTPath = parSTPath;
; 90   : 		m_dwSTTypeToLoad = dwSTTypeToLoad;
; 91   : 
; 92   : 		// STIndex.dat 
; 93   : 		if(dwSTTypeToLoad == 0)

  00021	6a 00		 push	 0
  00023	89 46 04	 mov	 DWORD PTR [esi+4], eax
  00026	8b 45 14	 mov	 eax, DWORD PTR _dwSTTypeToLoad$[ebp]
  00029	89 4e 08	 mov	 DWORD PTR [esi+8], ecx
  0002c	8b ce		 mov	 ecx, esi
  0002e	89 46 30	 mov	 DWORD PTR [esi+48], eax
  00031	85 c0		 test	 eax, eax
  00033	75 08		 jne	 SHORT $LN3@LoadST

; 94   : 		{
; 95   : 			int p_LoadOption = 0;
; 96   : 			LoadSTListFromSTIndex(p_LoadOption);

  00035	50		 push	 eax
  00036	e8 00 00 00 00	 call	 ?LoadSTListFromSTIndex@CSTLoadManager@@IAEXHH@Z ; CSTLoadManager::LoadSTListFromSTIndex

; 97   : 		}

  0003b	eb 05		 jmp	 SHORT $LN4@LoadST
$LN3@LoadST:

; 98   : 		//  
; 99   : 		else
; 100  : 		{
; 101  : 			LoadSTList();

  0003d	e8 00 00 00 00	 call	 ?LoadSTList@CSTLoadManager@@IAEXH@Z ; CSTLoadManager::LoadSTList
$LN4@LoadST:

; 102  : 		}
; 103  : 
; 104  : 		if(m_pOutBarCtrl->GetFolderCount()>0) 

  00042	8b 4e 04	 mov	 ecx, DWORD PTR [esi+4]
  00045	e8 00 00 00 00	 call	 ?GetFolderCount@CSTGfxOutBarCtrl@@QBEHXZ ; CSTGfxOutBarCtrl::GetFolderCount
  0004a	85 c0		 test	 eax, eax
  0004c	7e 0b		 jle	 SHORT $LN11@LoadST

; 105  : 			m_pOutBarCtrl->SetSelFolder(nDefaultSelFolder);

  0004e	ff 75 18	 push	 DWORD PTR _nDefaultSelFolder$[ebp]
  00051	8b 4e 04	 mov	 ecx, DWORD PTR [esi+4]
  00054	e8 00 00 00 00	 call	 ?SetSelFolder@CSTGfxOutBarCtrl@@QAEXH@Z ; CSTGfxOutBarCtrl::SetSelFolder
$LN11@LoadST:
  00059	5e		 pop	 esi
$LN5@LoadST:

; 106  : 	}
; 107  : }

  0005a	5d		 pop	 ebp
  0005b	c2 14 00	 ret	 20			; 00000014H
?LoadST@CSTLoadManager@@UAGXPAVCWnd@@PAVCStringArray@@KH@Z ENDP ; CSTLoadManager::LoadST
_TEXT	ENDS
; Function compile flags: /Ogtp
; File D:\git\src\IBK\IBK_DRFN\ProjSrc\SrcDrfn\Chart\Common_ST\_STLoadmanager.cpp
; File D:\git\src\IBK\IBK_DRFN\ProjSrc\SrcDrfn\Chart\Common_ST\_STLoadManager.h
; File D:\git\src\IBK\IBK_DRFN\ProjSrc\SrcDrfn\Chart\Common_ST\_STLoadmanager.cpp
;	COMDAT ?Init@CSTLoadManager@@UAGXHV?$CStringT@DV?$StrTraitMFC_DLL@DV?$ChTraitsCRT@D@ATL@@@@@ATL@@PAVCImageList@@@Z
_TEXT	SEGMENT
$T1 = 8							; size = 4
_this$ = 8						; size = 4
_bSubFolder$ = 12					; size = 4
_szExtName$ = 16					; size = 4
_pILSTIcon$ = 20					; size = 4
?Init@CSTLoadManager@@UAGXHV?$CStringT@DV?$StrTraitMFC_DLL@DV?$ChTraitsCRT@D@ATL@@@@@ATL@@PAVCImageList@@@Z PROC ; CSTLoadManager::Init, COMDAT

; 48   : {

  00000	55		 push	 ebp
  00001	8b ec		 mov	 ebp, esp

; 49   : 	m_bSubFolders = bSubFolder;

  00003	8b 45 0c	 mov	 eax, DWORD PTR _bSubFolder$[ebp]

; 50   : 	SetExtName(szExtName);

  00006	8d 4d 08	 lea	 ecx, DWORD PTR $T1[ebp]
  00009	56		 push	 esi
  0000a	8b 75 08	 mov	 esi, DWORD PTR _this$[ebp]
  0000d	89 46 18	 mov	 DWORD PTR [esi+24], eax
  00010	8d 45 10	 lea	 eax, DWORD PTR _szExtName$[ebp]
  00013	50		 push	 eax
  00014	ff 15 00 00 00
	00		 call	 DWORD PTR __imp_??0?$CStringT@DV?$StrTraitMFC_DLL@DV?$ChTraitsCRT@D@ATL@@@@@ATL@@QAE@ABV01@@Z
; File D:\git\src\IBK\IBK_DRFN\ProjSrc\SrcDrfn\Chart\Common_ST\_STLoadManager.h

; 102  : 	void SetExtName(CString szExtName)	{ m_szExtName = szExtName; }

  0001a	8d 45 08	 lea	 eax, DWORD PTR $T1[ebp]
  0001d	50		 push	 eax
  0001e	8d 4e 14	 lea	 ecx, DWORD PTR [esi+20]
  00021	ff 15 00 00 00
	00		 call	 DWORD PTR __imp_??4?$CStringT@DV?$StrTraitMFC_DLL@DV?$ChTraitsCRT@D@ATL@@@@@ATL@@QAEAAV01@ABV01@@Z
  00027	8d 4d 08	 lea	 ecx, DWORD PTR $T1[ebp]
  0002a	ff 15 00 00 00
	00		 call	 DWORD PTR __imp_??1?$CStringT@DV?$StrTraitMFC_DLL@DV?$ChTraitsCRT@D@ATL@@@@@ATL@@QAE@XZ
; File D:\git\src\IBK\IBK_DRFN\ProjSrc\SrcDrfn\Chart\Common_ST\_STLoadmanager.cpp

; 51   : 	m_pILSTIcon = pILSTIcon;

  00030	8b 45 14	 mov	 eax, DWORD PTR _pILSTIcon$[ebp]

; 52   : }

  00033	8d 4d 10	 lea	 ecx, DWORD PTR _szExtName$[ebp]
  00036	89 46 10	 mov	 DWORD PTR [esi+16], eax
  00039	ff 15 00 00 00
	00		 call	 DWORD PTR __imp_??1?$CStringT@DV?$StrTraitMFC_DLL@DV?$ChTraitsCRT@D@ATL@@@@@ATL@@QAE@XZ
  0003f	5e		 pop	 esi
  00040	5d		 pop	 ebp
  00041	c2 10 00	 ret	 16			; 00000010H
?Init@CSTLoadManager@@UAGXHV?$CStringT@DV?$StrTraitMFC_DLL@DV?$ChTraitsCRT@D@ATL@@@@@ATL@@PAVCImageList@@@Z ENDP ; CSTLoadManager::Init
_TEXT	ENDS
; Function compile flags: /Ogtp
; File D:\git\src\IBK\IBK_DRFN\ProjSrc\SrcDrfn\inc\IBaseDefine.h
;	COMDAT ?AfxGetPctrData@@YGJH@Z
_TEXT	SEGMENT
_hMainWnd$ = -36					; size = 4
_szClipFormat$2 = -32					; size = 4
_aBufWnd$3 = -28					; size = 9
__$ArrayPad$ = -16					; size = 4
__$EHRec$ = -12						; size = 12
_nID$ = 8						; size = 4
?AfxGetPctrData@@YGJH@Z PROC				; AfxGetPctrData, COMDAT

; 270  : {

  00000	55		 push	 ebp
  00001	8b ec		 mov	 ebp, esp
  00003	6a ff		 push	 -1
  00005	68 00 00 00 00	 push	 __ehhandler$?AfxGetPctrData@@YGJH@Z
  0000a	64 a1 00 00 00
	00		 mov	 eax, DWORD PTR fs:0
  00010	50		 push	 eax
  00011	83 ec 18	 sub	 esp, 24			; 00000018H
  00014	a1 00 00 00 00	 mov	 eax, DWORD PTR ___security_cookie
  00019	33 c5		 xor	 eax, ebp
  0001b	89 45 f0	 mov	 DWORD PTR __$ArrayPad$[ebp], eax
  0001e	50		 push	 eax
  0001f	8d 45 f4	 lea	 eax, DWORD PTR __$EHRec$[ebp]
  00022	64 a3 00 00 00
	00		 mov	 DWORD PTR fs:0, eax
  00028	0f 57 c0	 xorps	 xmm0, xmm0

; 271  : 	HWND hMainWnd;
; 272  : 	AfxGetHanaroMainWnd(hMainWnd);

  0002b	c7 45 dc 00 00
	00 00		 mov	 DWORD PTR _hMainWnd$[ebp], 0
  00032	8d 4d e0	 lea	 ecx, DWORD PTR _szClipFormat$2[ebp]
  00035	66 0f d6 45 e4	 movq	 QWORD PTR _aBufWnd$3[ebp], xmm0
  0003a	c6 45 ec 00	 mov	 BYTE PTR _aBufWnd$3[ebp+8], 0
  0003e	ff 15 00 00 00
	00		 call	 DWORD PTR __imp_??0?$CStringT@DV?$StrTraitMFC_DLL@DV?$ChTraitsCRT@D@ATL@@@@@ATL@@QAE@XZ
  00044	68 00 00 00 00	 push	 OFFSET ??_C@_0M@CBBNGGHM@PcTrMng?4dll@
  00049	c7 45 fc 00 00
	00 00		 mov	 DWORD PTR __$EHRec$[ebp+8], 0
  00050	ff 15 00 00 00
	00		 call	 DWORD PTR __imp__GetModuleHandleA@4
  00056	50		 push	 eax
  00057	68 00 00 00 00	 push	 OFFSET ??_C@_0P@IDMAJEGN@HANAROPCTRMAIN@
  0005c	8d 45 e0	 lea	 eax, DWORD PTR _szClipFormat$2[ebp]
  0005f	68 00 00 00 00	 push	 OFFSET ??_C@_06NDLAHCHE@?$CFs?$CF08X@
  00064	50		 push	 eax
  00065	ff 15 00 00 00
	00		 call	 DWORD PTR __imp_?Format@?$CStringT@DV?$StrTraitMFC_DLL@DV?$ChTraitsCRT@D@ATL@@@@@ATL@@QAAXPBDZZ
  0006b	83 c4 10	 add	 esp, 16			; 00000010H
  0006e	8d 45 e4	 lea	 eax, DWORD PTR _aBufWnd$3[ebp]
  00071	6a 09		 push	 9
  00073	50		 push	 eax
  00074	ff 75 e0	 push	 DWORD PTR _szClipFormat$2[ebp]
  00077	ff 15 00 00 00
	00		 call	 DWORD PTR __imp__GetEnvironmentVariableA@12
  0007d	8d 45 dc	 lea	 eax, DWORD PTR _hMainWnd$[ebp]
  00080	50		 push	 eax
  00081	8d 45 e4	 lea	 eax, DWORD PTR _aBufWnd$3[ebp]
  00084	68 00 00 00 00	 push	 OFFSET ??_C@_02EMFKHFLK@?$CFX@
  00089	50		 push	 eax
  0008a	e8 00 00 00 00	 call	 _sscanf
  0008f	83 c4 0c	 add	 esp, 12			; 0000000cH
  00092	8d 4d e0	 lea	 ecx, DWORD PTR _szClipFormat$2[ebp]
  00095	ff 15 00 00 00
	00		 call	 DWORD PTR __imp_??1?$CStringT@DV?$StrTraitMFC_DLL@DV?$ChTraitsCRT@D@ATL@@@@@ATL@@QAE@XZ

; 273  : 
; 274  : 	return ::SendMessage(hMainWnd, RMSG_GETPCTRDATA, (WPARAM)'A', (LPARAM)nID);

  0009b	ff 75 08	 push	 DWORD PTR _nID$[ebp]
  0009e	6a 41		 push	 65			; 00000041H
  000a0	ff 35 00 00 00
	00		 push	 DWORD PTR ?RMSG_GETPCTRDATA@@3IB
  000a6	ff 75 dc	 push	 DWORD PTR _hMainWnd$[ebp]
  000a9	ff 15 00 00 00
	00		 call	 DWORD PTR __imp__SendMessageA@16

; 275  : }

  000af	8b 4d f4	 mov	 ecx, DWORD PTR __$EHRec$[ebp]
  000b2	64 89 0d 00 00
	00 00		 mov	 DWORD PTR fs:0, ecx
  000b9	59		 pop	 ecx
  000ba	8b 4d f0	 mov	 ecx, DWORD PTR __$ArrayPad$[ebp]
  000bd	33 cd		 xor	 ecx, ebp
  000bf	e8 00 00 00 00	 call	 @__security_check_cookie@4
  000c4	8b e5		 mov	 esp, ebp
  000c6	5d		 pop	 ebp
  000c7	c2 04 00	 ret	 4
_TEXT	ENDS
;	COMDAT text$x
text$x	SEGMENT
__unwindfunclet$?AfxGetPctrData@@YGJH@Z$0:
  00000	8d 4d e0	 lea	 ecx, DWORD PTR _szClipFormat$2[ebp]
  00003	ff 25 00 00 00
	00		 jmp	 DWORD PTR __imp_??1?$CStringT@DV?$StrTraitMFC_DLL@DV?$ChTraitsCRT@D@ATL@@@@@ATL@@QAE@XZ
  00009	cc		 int	 3
  0000a	cc		 int	 3
  0000b	cc		 int	 3
  0000c	cc		 int	 3
  0000d	cc		 int	 3
__ehhandler$?AfxGetPctrData@@YGJH@Z:
  0000e	90		 npad	 1
  0000f	90		 npad	 1
  00010	8b 54 24 08	 mov	 edx, DWORD PTR [esp+8]
  00014	8d 42 0c	 lea	 eax, DWORD PTR [edx+12]
  00017	8b 4a e4	 mov	 ecx, DWORD PTR [edx-28]
  0001a	33 c8		 xor	 ecx, eax
  0001c	e8 00 00 00 00	 call	 @__security_check_cookie@4
  00021	8b 4a fc	 mov	 ecx, DWORD PTR [edx-4]
  00024	33 c8		 xor	 ecx, eax
  00026	e8 00 00 00 00	 call	 @__security_check_cookie@4
  0002b	b8 00 00 00 00	 mov	 eax, OFFSET __ehfuncinfo$?AfxGetPctrData@@YGJH@Z
  00030	e9 00 00 00 00	 jmp	 ___CxxFrameHandler3
text$x	ENDS
?AfxGetPctrData@@YGJH@Z ENDP				; AfxGetPctrData
; Function compile flags: /Ogtp
; File D:\git\src\IBK\IBK_DRFN\ProjSrc\SrcDrfn\inc\IBaseDefine.h
;	COMDAT ??__ERMSG_GETPCTRDATA@@YAXXZ
text$di	SEGMENT
??__ERMSG_GETPCTRDATA@@YAXXZ PROC			; `dynamic initializer for 'RMSG_GETPCTRDATA'', COMDAT

; 171  : const UINT RMSG_GETPCTRDATA = ::RegisterWindowMessage("RMSG_GETPCTRDATA");

  00000	68 00 00 00 00	 push	 OFFSET ??_C@_0BB@GOOPDKI@RMSG_GETPCTRDATA@
  00005	ff 15 00 00 00
	00		 call	 DWORD PTR __imp__RegisterWindowMessageA@4
  0000b	a3 00 00 00 00	 mov	 DWORD PTR ?RMSG_GETPCTRDATA@@3IB, eax
  00010	c3		 ret	 0
??__ERMSG_GETPCTRDATA@@YAXXZ ENDP			; `dynamic initializer for 'RMSG_GETPCTRDATA''
text$di	ENDS
; Function compile flags: /Ogtp
; File C:\Program Files (x86)\Microsoft Visual Studio\2019\Community\VC\Tools\MSVC\14.29.30133\atlmfc\include\afx.inl
;	COMDAT ?Dump@CObject@@UBEXAAVCDumpContext@@@Z
_TEXT	SEGMENT
___formal$ = 8						; size = 4
?Dump@CObject@@UBEXAAVCDumpContext@@@Z PROC		; CObject::Dump, COMDAT
; _this$ = ecx

; 122  : 	{ /* no dumping in release builds */ }

  00000	c2 04 00	 ret	 4
?Dump@CObject@@UBEXAAVCDumpContext@@@Z ENDP		; CObject::Dump
_TEXT	ENDS
; Function compile flags: /Ogtp
; File C:\Program Files (x86)\Microsoft Visual Studio\2019\Community\VC\Tools\MSVC\14.29.30133\atlmfc\include\afx.inl
;	COMDAT ?AssertValid@CObject@@UBEXXZ
_TEXT	SEGMENT
?AssertValid@CObject@@UBEXXZ PROC			; CObject::AssertValid, COMDAT
; _this$ = ecx

; 120  : 	{ /* no asserts in release builds */ }

  00000	c2 00 00	 ret	 0
?AssertValid@CObject@@UBEXXZ ENDP			; CObject::AssertValid
_TEXT	ENDS
; Function compile flags: /Ogtp
; File C:\Program Files (x86)\Microsoft Visual Studio\2019\Community\VC\Tools\MSVC\14.29.30133\atlmfc\include\afx.inl
;	COMDAT ?Serialize@CObject@@UAEXAAVCArchive@@@Z
_TEXT	SEGMENT
___formal$ = 8						; size = 4
?Serialize@CObject@@UAEXAAVCArchive@@@Z PROC		; CObject::Serialize, COMDAT
; _this$ = ecx

; 106  : 	{ /* CObject does not serialize anything by default */ }

  00000	c2 04 00	 ret	 4
?Serialize@CObject@@UAEXAAVCArchive@@@Z ENDP		; CObject::Serialize
_TEXT	ENDS
; Function compile flags: /Ogtp
; File C:\Program Files (x86)\Microsoft Visual Studio\2019\Community\VC\Tools\MSVC\14.29.30133\atlmfc\include\afx.inl
;	COMDAT ??3CObject@@SGXPAX@Z
_TEXT	SEGMENT
_p$ = 8							; size = 4
??3CObject@@SGXPAX@Z PROC				; CObject::operator delete, COMDAT

; 112  : 	{ ::operator delete(p); }

  00000	55		 push	 ebp
  00001	8b ec		 mov	 ebp, esp
  00003	ff 75 08	 push	 DWORD PTR _p$[ebp]
  00006	e8 00 00 00 00	 call	 ??3@YAXPAX@Z		; operator delete
  0000b	83 c4 04	 add	 esp, 4
  0000e	5d		 pop	 ebp
  0000f	c2 04 00	 ret	 4
??3CObject@@SGXPAX@Z ENDP				; CObject::operator delete
_TEXT	ENDS
; Function compile flags: /Ogtp
; File C:\Program Files (x86)\Microsoft Visual Studio\2019\Community\VC\Tools\MSVC\14.29.30133\atlmfc\include\afx.inl
;	COMDAT ??1CObject@@UAE@XZ
_TEXT	SEGMENT
??1CObject@@UAE@XZ PROC					; CObject::~CObject, COMDAT
; _this$ = ecx

; 104  : 	{ }

  00000	c2 00 00	 ret	 0
??1CObject@@UAE@XZ ENDP					; CObject::~CObject
_TEXT	ENDS
; Function compile flags: /Ogtp
; File C:\Program Files (x86)\Windows Kits\10\Include\10.0.22000.0\ucrt\stdio.h
;	COMDAT _sscanf
_TEXT	SEGMENT
__Buffer$ = 8						; size = 4
__Format$ = 12						; size = 4
_sscanf	PROC						; COMDAT

; 2247 :     {

  00000	55		 push	 ebp
  00001	8b ec		 mov	 ebp, esp

; 2153 :         return __stdio_common_vsscanf(

  00003	8d 45 10	 lea	 eax, DWORD PTR __Format$[ebp+4]
  00006	50		 push	 eax
  00007	6a 00		 push	 0
  00009	ff 75 0c	 push	 DWORD PTR __Format$[ebp]
  0000c	6a ff		 push	 -1
  0000e	ff 75 08	 push	 DWORD PTR __Buffer$[ebp]
  00011	e8 00 00 00 00	 call	 ___local_stdio_scanf_options
  00016	ff 70 04	 push	 DWORD PTR [eax+4]
  00019	ff 30		 push	 DWORD PTR [eax]
  0001b	ff 15 00 00 00
	00		 call	 DWORD PTR __imp____stdio_common_vsscanf
  00021	83 c4 1c	 add	 esp, 28			; 0000001cH

; 2248 :         int _Result;
; 2249 :         va_list _ArgList;
; 2250 :         __crt_va_start(_ArgList, _Format);
; 2251 :         _Result = _vsscanf_l(_Buffer, _Format, NULL, _ArgList);
; 2252 :         __crt_va_end(_ArgList);
; 2253 :         return _Result;
; 2254 :     }

  00024	5d		 pop	 ebp
  00025	c3		 ret	 0
_sscanf	ENDP
_TEXT	ENDS
; Function compile flags: /Ogtp
; File C:\Program Files (x86)\Windows Kits\10\Include\10.0.22000.0\ucrt\stdio.h
;	COMDAT _sprintf
_TEXT	SEGMENT
__Buffer$ = 8						; size = 4
__Format$ = 12						; size = 4
_sprintf PROC						; COMDAT

; 1771 :     {

  00000	55		 push	 ebp
  00001	8b ec		 mov	 ebp, esp

; 1392 :         int const _Result = __stdio_common_vsprintf(

  00003	8d 45 10	 lea	 eax, DWORD PTR __Format$[ebp+4]
  00006	50		 push	 eax
  00007	6a 00		 push	 0
  00009	ff 75 0c	 push	 DWORD PTR __Format$[ebp]
  0000c	6a ff		 push	 -1
  0000e	ff 75 08	 push	 DWORD PTR __Buffer$[ebp]
  00011	e8 00 00 00 00	 call	 ___local_stdio_printf_options
  00016	8b 08		 mov	 ecx, DWORD PTR [eax]
  00018	ff 70 04	 push	 DWORD PTR [eax+4]
  0001b	83 c9 01	 or	 ecx, 1
  0001e	51		 push	 ecx
  0001f	ff 15 00 00 00
	00		 call	 DWORD PTR __imp____stdio_common_vsprintf

; 1393 :             _CRT_INTERNAL_LOCAL_PRINTF_OPTIONS | _CRT_INTERNAL_PRINTF_LEGACY_VSPRINTF_NULL_TERMINATION,
; 1394 :             _Buffer, _BufferCount, _Format, _Locale, _ArgList);
; 1395 : 
; 1396 :         return _Result < 0 ? -1 : _Result;

  00025	83 c9 ff	 or	 ecx, -1
  00028	83 c4 1c	 add	 esp, 28			; 0000001cH
  0002b	85 c0		 test	 eax, eax
  0002d	0f 48 c1	 cmovs	 eax, ecx

; 1772 :         int _Result;
; 1773 :         va_list _ArgList;
; 1774 :         __crt_va_start(_ArgList, _Format);
; 1775 : 
; 1776 :         _Result = _vsprintf_l(_Buffer, _Format, NULL, _ArgList);
; 1777 : 
; 1778 :         __crt_va_end(_ArgList);
; 1779 :         return _Result;
; 1780 :     }

  00030	5d		 pop	 ebp
  00031	c3		 ret	 0
_sprintf ENDP
_TEXT	ENDS
; Function compile flags: /Ogtp
; File C:\Program Files (x86)\Windows Kits\10\Include\10.0.22000.0\ucrt\corecrt_stdio_config.h
;	COMDAT ___local_stdio_scanf_options
_TEXT	SEGMENT
___local_stdio_scanf_options PROC			; COMDAT

; 101  :         static unsigned __int64 _OptionsStorage;
; 102  :         return &_OptionsStorage;

  00000	b8 00 00 00 00	 mov	 eax, OFFSET ?_OptionsStorage@?1??__local_stdio_scanf_options@@9@4_KA ; `__local_stdio_scanf_options'::`2'::_OptionsStorage

; 103  :     }

  00005	c3		 ret	 0
___local_stdio_scanf_options ENDP
_TEXT	ENDS
; Function compile flags: /Ogtp
; File C:\Program Files (x86)\Windows Kits\10\Include\10.0.22000.0\ucrt\corecrt_stdio_config.h
;	COMDAT ___local_stdio_printf_options
_TEXT	SEGMENT
___local_stdio_printf_options PROC			; COMDAT

; 91   :         static unsigned __int64 _OptionsStorage;
; 92   :         return &_OptionsStorage;

  00000	b8 00 00 00 00	 mov	 eax, OFFSET ?_OptionsStorage@?1??__local_stdio_printf_options@@9@4_KA ; `__local_stdio_printf_options'::`2'::_OptionsStorage

; 93   :     }

  00005	c3		 ret	 0
___local_stdio_printf_options ENDP
_TEXT	ENDS
; Function compile flags: /Ogtp
; File D:\git\src\IBK\IBK_DRFN\ProjSrc\SrcDrfn\Chart\Common_ST\_STLoadmanager.cpp
;	COMDAT ?__empty_global_delete@@YAXPAXI@Z
_TEXT	SEGMENT
___formal$ = 8						; size = 4
___formal$ = 12						; size = 4
?__empty_global_delete@@YAXPAXI@Z PROC			; __empty_global_delete, COMDAT

  00000	c2 00 00	 ret	 0
?__empty_global_delete@@YAXPAXI@Z ENDP			; __empty_global_delete
_TEXT	ENDS
; Function compile flags: /Ogtp
; File D:\git\src\IBK\IBK_DRFN\ProjSrc\SrcDrfn\Chart\Common_ST\_STLoadmanager.cpp
;	COMDAT ?__empty_global_delete@@YAXPAX@Z
_TEXT	SEGMENT
___formal$ = 8						; size = 4
?__empty_global_delete@@YAXPAX@Z PROC			; __empty_global_delete, COMDAT

  00000	c2 00 00	 ret	 0
?__empty_global_delete@@YAXPAX@Z ENDP			; __empty_global_delete
_TEXT	ENDS
END
