; Listing generated by Microsoft (R) Optimizing Compiler Version 19.29.30145.0 

	TITLE	D:\git\src\IBK\IBK_DRFN\#DRfn-CS\_Obj\HWStrategyConfigureWizard\DlgStrategyConfigure.obj
	.686P
	.XMM
	include listing.inc
	.model	flat

INCLUDELIB MSVCRT
INCLUDELIB OLDNAMES

PUBLIC	??_C@_0BK@FBLMOCPF@RMSG_FORMINITIALCOMPLETED@	; `string'
PUBLIC	??_C@_0BF@JNMMFBNP@RMSG_EVENT_CODEINPUT@	; `string'
PUBLIC	??_C@_0BF@LEGBOMJF@RMSG_EVENT_ACCTINPUT@	; `string'
PUBLIC	??_C@_0BF@FABJBMLM@RMSG_EVENT_SPININPUT@	; `string'
PUBLIC	??_C@_0BC@PGMEIMOI@RMSG_EVENT_SIGNAL@		; `string'
PUBLIC	??_C@_0BF@FPLDPAEH@RMSG_FORMSTATECHANGE@	; `string'
PUBLIC	??_C@_0N@IMGBDGND@RMSG_TABSTOP@			; `string'
PUBLIC	??_C@_0BC@MMIGKJED@RMSG_LBTNDBLCLICK@		; `string'
PUBLIC	??_C@_0O@DGNCFOOP@RMSG_LBTNDOWN@		; `string'
PUBLIC	??_C@_0BC@EMMLKNDL@RMSG_ENDSCROLLPOS@		; `string'
PUBLIC	??_C@_0BE@IEJDDJPC@RMSG_LSHAREDCHANGED@		; `string'
PUBLIC	??_C@_0BA@DEABJHGB@RMSG_GETDLLSIZE@		; `string'
PUBLIC	??_C@_0BA@CKCOCACI@RMSG_SETDLLSIZE@		; `string'
PUBLIC	??_C@_0P@BKKCOCLK@RMSG_INTERFACE@		; `string'
;	COMDAT ??_C@_0P@BKKCOCLK@RMSG_INTERFACE@
CONST	SEGMENT
??_C@_0P@BKKCOCLK@RMSG_INTERFACE@ DB 'RMSG_INTERFACE', 00H ; `string'
CONST	ENDS
;	COMDAT ??_C@_0BA@CKCOCACI@RMSG_SETDLLSIZE@
CONST	SEGMENT
??_C@_0BA@CKCOCACI@RMSG_SETDLLSIZE@ DB 'RMSG_SETDLLSIZE', 00H ; `string'
CONST	ENDS
;	COMDAT ??_C@_0BA@DEABJHGB@RMSG_GETDLLSIZE@
CONST	SEGMENT
??_C@_0BA@DEABJHGB@RMSG_GETDLLSIZE@ DB 'RMSG_GETDLLSIZE', 00H ; `string'
CONST	ENDS
;	COMDAT ??_C@_0BE@IEJDDJPC@RMSG_LSHAREDCHANGED@
CONST	SEGMENT
??_C@_0BE@IEJDDJPC@RMSG_LSHAREDCHANGED@ DB 'RMSG_LSHAREDCHANGED', 00H ; `string'
CONST	ENDS
;	COMDAT ??_C@_0BC@EMMLKNDL@RMSG_ENDSCROLLPOS@
CONST	SEGMENT
??_C@_0BC@EMMLKNDL@RMSG_ENDSCROLLPOS@ DB 'RMSG_ENDSCROLLPOS', 00H ; `string'
CONST	ENDS
;	COMDAT ??_C@_0O@DGNCFOOP@RMSG_LBTNDOWN@
CONST	SEGMENT
??_C@_0O@DGNCFOOP@RMSG_LBTNDOWN@ DB 'RMSG_LBTNDOWN', 00H ; `string'
CONST	ENDS
;	COMDAT ??_C@_0BC@MMIGKJED@RMSG_LBTNDBLCLICK@
CONST	SEGMENT
??_C@_0BC@MMIGKJED@RMSG_LBTNDBLCLICK@ DB 'RMSG_LBTNDBLCLICK', 00H ; `string'
CONST	ENDS
;	COMDAT ??_C@_0N@IMGBDGND@RMSG_TABSTOP@
CONST	SEGMENT
??_C@_0N@IMGBDGND@RMSG_TABSTOP@ DB 'RMSG_TABSTOP', 00H	; `string'
CONST	ENDS
;	COMDAT ??_C@_0BF@FPLDPAEH@RMSG_FORMSTATECHANGE@
CONST	SEGMENT
??_C@_0BF@FPLDPAEH@RMSG_FORMSTATECHANGE@ DB 'RMSG_FORMSTATECHANGE', 00H ; `string'
CONST	ENDS
;	COMDAT ??_C@_0BC@PGMEIMOI@RMSG_EVENT_SIGNAL@
CONST	SEGMENT
??_C@_0BC@PGMEIMOI@RMSG_EVENT_SIGNAL@ DB 'RMSG_EVENT_SIGNAL', 00H ; `string'
CONST	ENDS
;	COMDAT ??_C@_0BF@FABJBMLM@RMSG_EVENT_SPININPUT@
CONST	SEGMENT
??_C@_0BF@FABJBMLM@RMSG_EVENT_SPININPUT@ DB 'RMSG_EVENT_SPININPUT', 00H ; `string'
CONST	ENDS
;	COMDAT ??_C@_0BF@LEGBOMJF@RMSG_EVENT_ACCTINPUT@
CONST	SEGMENT
??_C@_0BF@LEGBOMJF@RMSG_EVENT_ACCTINPUT@ DB 'RMSG_EVENT_ACCTINPUT', 00H ; `string'
CONST	ENDS
;	COMDAT ??_C@_0BF@JNMMFBNP@RMSG_EVENT_CODEINPUT@
CONST	SEGMENT
??_C@_0BF@JNMMFBNP@RMSG_EVENT_CODEINPUT@ DB 'RMSG_EVENT_CODEINPUT', 00H ; `string'
CONST	ENDS
;	COMDAT ??_C@_0BK@FBLMOCPF@RMSG_FORMINITIALCOMPLETED@
CONST	SEGMENT
??_C@_0BK@FBLMOCPF@RMSG_FORMINITIALCOMPLETED@ DB 'RMSG_FORMINITIALCOMPLET'
	DB	'ED', 00H					; `string'
CONST	ENDS
PUBLIC	??_H@YGXPAXIIP6EPAX0@Z@Z			; `vector constructor iterator'
PUBLIC	?__empty_global_delete@@YAXPAX@Z		; __empty_global_delete
PUBLIC	?__empty_global_delete@@YAXPAXI@Z		; __empty_global_delete
PUBLIC	___local_stdio_printf_options
PUBLIC	___local_stdio_scanf_options
PUBLIC	_sprintf
PUBLIC	_sscanf
PUBLIC	??1CObject@@UAE@XZ				; CObject::~CObject
PUBLIC	?Serialize@CObject@@UAEXAAVCArchive@@@Z		; CObject::Serialize
PUBLIC	?AssertValid@CObject@@UBEXXZ			; CObject::AssertValid
PUBLIC	?Dump@CObject@@UBEXAAVCDumpContext@@@Z		; CObject::Dump
PUBLIC	??1CGdiObject@@UAE@XZ				; CGdiObject::~CGdiObject
PUBLIC	??_GCGdiObject@@UAEPAXI@Z			; CGdiObject::`scalar deleting destructor'
PUBLIC	??1CBrush@@UAE@XZ				; CBrush::~CBrush
PUBLIC	??_GCBrush@@UAEPAXI@Z				; CBrush::`scalar deleting destructor'
PUBLIC	??1CFont@@UAE@XZ				; CFont::~CFont
PUBLIC	??_GCFont@@UAEPAXI@Z				; CFont::`scalar deleting destructor'
PUBLIC	?DoDataExchange@CWnd@@MAEXPAVCDataExchange@@@Z	; CWnd::DoDataExchange
PUBLIC	?BeginModalState@CWnd@@UAEXXZ			; CWnd::BeginModalState
PUBLIC	?EndModalState@CWnd@@UAEXXZ			; CWnd::EndModalState
PUBLIC	?Create@CDialog@@UAEHIPAVCWnd@@@Z		; CDialog::Create
PUBLIC	??1STMNG_ITEMINFO@@QAE@XZ			; STMNG_ITEMINFO::~STMNG_ITEMINFO
PUBLIC	??1STMNG_ITEMINFO_EX1@@QAE@XZ			; STMNG_ITEMINFO_EX1::~STMNG_ITEMINFO_EX1
PUBLIC	??1STLISTITEMDATA@@QAE@XZ			; STLISTITEMDATA::~STLISTITEMDATA
PUBLIC	??1CDlgStrategyList@@UAE@XZ			; CDlgStrategyList::~CDlgStrategyList
PUBLIC	??0CDlgStrategyConfigure@@QAE@PAVCWnd@@@Z	; CDlgStrategyConfigure::CDlgStrategyConfigure
PUBLIC	?UpdateSTList@CDlgStrategyConfigure@@QAEXHV?$CStringT@DV?$StrTraitMFC_DLL@DV?$ChTraitsCRT@D@ATL@@@@@ATL@@@Z ; CDlgStrategyConfigure::UpdateSTList
PUBLIC	?LoadEditor@CDlgStrategyConfigure@@QAEXV?$CStringT@DV?$StrTraitMFC_DLL@DV?$ChTraitsCRT@D@ATL@@@@@ATL@@@Z ; CDlgStrategyConfigure::LoadEditor
PUBLIC	?CopyBaseScriptFile@CDlgStrategyConfigure@@QAEFXZ ; CDlgStrategyConfigure::CopyBaseScriptFile
PUBLIC	?PreTranslateMessage@CDlgStrategyConfigure@@UAEHPAUtagMSG@@@Z ; CDlgStrategyConfigure::PreTranslateMessage
PUBLIC	?DoDataExchange@CDlgStrategyConfigure@@MAEXPAVCDataExchange@@@Z ; CDlgStrategyConfigure::DoDataExchange
PUBLIC	?FormLoad@CDlgStrategyConfigure@@QAEXXZ		; CDlgStrategyConfigure::FormLoad
PUBLIC	?RunST@CDlgStrategyConfigure@@QAEHHAAV?$CStringT@DV?$StrTraitMFC_DLL@DV?$ChTraitsCRT@D@ATL@@@@@ATL@@@Z ; CDlgStrategyConfigure::RunST
PUBLIC	?IsSTSelected@CDlgStrategyConfigure@@QAEHXZ	; CDlgStrategyConfigure::IsSTSelected
PUBLIC	?SelectSTItem@CDlgStrategyConfigure@@QAEXV?$CStringT@DV?$StrTraitMFC_DLL@DV?$ChTraitsCRT@D@ATL@@@@@ATL@@0@Z ; CDlgStrategyConfigure::SelectSTItem
PUBLIC	?GetOutBarColor@CDlgStrategyConfigure@@QAEJAAK0@Z ; CDlgStrategyConfigure::GetOutBarColor
PUBLIC	?Resize@CDlgStrategyConfigure@@IAEXHH@Z		; CDlgStrategyConfigure::Resize
PUBLIC	?GetRect@CDlgStrategyConfigure@@IAE?AVCRect@@H@Z ; CDlgStrategyConfigure::GetRect
PUBLIC	?OnInitDialog@CDlgStrategyConfigure@@MAEHXZ	; CDlgStrategyConfigure::OnInitDialog
PUBLIC	?OnSize@CDlgStrategyConfigure@@IAEXIHH@Z	; CDlgStrategyConfigure::OnSize
PUBLIC	?OnDestroy@CDlgStrategyConfigure@@IAEXXZ	; CDlgStrategyConfigure::OnDestroy
PUBLIC	?OnGetDllSize@CDlgStrategyConfigure@@IAEJIJ@Z	; CDlgStrategyConfigure::OnGetDllSize
PUBLIC	?InitLoad@CDlgStrategyConfigure@@IAEXXZ		; CDlgStrategyConfigure::InitLoad
PUBLIC	?DataMonitorCallbackProc@CDlgStrategyConfigure@@KGXPBDJJJJ@Z ; CDlgStrategyConfigure::DataMonitorCallbackProc
PUBLIC	?GetThisMessageMap@CDlgStrategyConfigure@@KGPBUAFX_MSGMAP@@XZ ; CDlgStrategyConfigure::GetThisMessageMap
PUBLIC	?GetMessageMap@CDlgStrategyConfigure@@MBEPBUAFX_MSGMAP@@XZ ; CDlgStrategyConfigure::GetMessageMap
PUBLIC	??_GCDlgStrategyConfigure@@UAEPAXI@Z		; CDlgStrategyConfigure::`scalar deleting destructor'
PUBLIC	?_OptionsStorage@?1??__local_stdio_printf_options@@9@4_KA ; `__local_stdio_printf_options'::`2'::_OptionsStorage
PUBLIC	?_OptionsStorage@?1??__local_stdio_scanf_options@@9@4_KA ; `__local_stdio_scanf_options'::`2'::_OptionsStorage
PUBLIC	??_R0PAVCException@@@8				; CException * `RTTI Type Descriptor'
PUBLIC	??_C@_02DPKJAMEF@?$CFd@				; `string'
PUBLIC	??_C@_00CNPNBAHC@@				; `string'
PUBLIC	??_7CGdiObject@@6B@				; CGdiObject::`vftable'
PUBLIC	??_7CBrush@@6B@					; CBrush::`vftable'
PUBLIC	??_7CFont@@6B@					; CFont::`vftable'
PUBLIC	??_C@_0HD@JJCHHHNK@C?3?2Program?5Files?5?$CIx86?$CJ?2Microsof@ ; `string'
PUBLIC	??_C@_0BP@OIEOKIDM@Exception?5thrown?5in?5destructor@ ; `string'
PUBLIC	??_C@_0BB@HBOOMJBF@?$CFTs?5?$CI?$CFTs?3?$CFd?$CJ?6?$CFTs@ ; `string'
PUBLIC	??_C@_0N@OMEMOKLE@?$CFTs?5?$CI?$CFTs?3?$CFd?$CJ@ ; `string'
PUBLIC	??_C@_0M@CBBNGGHM@PcTrMng?4dll@			; `string'
PUBLIC	??_C@_0P@IDMAJEGN@HANAROPCTRMAIN@		; `string'
PUBLIC	??_C@_06NDLAHCHE@?$CFs?$CF08X@			; `string'
PUBLIC	??_C@_02EMFKHFLK@?$CFX@				; `string'
PUBLIC	??_R0?AVCObject@@@8				; CObject `RTTI Type Descriptor'
PUBLIC	??_R3CObject@@8					; CObject::`RTTI Class Hierarchy Descriptor'
PUBLIC	??_R2CObject@@8					; CObject::`RTTI Base Class Array'
PUBLIC	??_R1A@?0A@EA@CObject@@8			; CObject::`RTTI Base Class Descriptor at (0,-1,0,64)'
PUBLIC	??_R4CGdiObject@@6B@				; CGdiObject::`RTTI Complete Object Locator'
PUBLIC	??_R0?AVCGdiObject@@@8				; CGdiObject `RTTI Type Descriptor'
PUBLIC	??_R3CGdiObject@@8				; CGdiObject::`RTTI Class Hierarchy Descriptor'
PUBLIC	??_R2CGdiObject@@8				; CGdiObject::`RTTI Base Class Array'
PUBLIC	??_R1A@?0A@EA@CGdiObject@@8			; CGdiObject::`RTTI Base Class Descriptor at (0,-1,0,64)'
PUBLIC	??_R4CBrush@@6B@				; CBrush::`RTTI Complete Object Locator'
PUBLIC	??_R0?AVCBrush@@@8				; CBrush `RTTI Type Descriptor'
PUBLIC	??_R3CBrush@@8					; CBrush::`RTTI Class Hierarchy Descriptor'
PUBLIC	??_R2CBrush@@8					; CBrush::`RTTI Base Class Array'
PUBLIC	??_R1A@?0A@EA@CBrush@@8				; CBrush::`RTTI Base Class Descriptor at (0,-1,0,64)'
PUBLIC	??_R4CFont@@6B@					; CFont::`RTTI Complete Object Locator'
PUBLIC	??_R0?AVCFont@@@8				; CFont `RTTI Type Descriptor'
PUBLIC	??_R3CFont@@8					; CFont::`RTTI Class Hierarchy Descriptor'
PUBLIC	??_R2CFont@@8					; CFont::`RTTI Base Class Array'
PUBLIC	??_R1A@?0A@EA@CFont@@8				; CFont::`RTTI Base Class Descriptor at (0,-1,0,64)'
PUBLIC	??_R1A@?0A@EA@CWnd@@8				; CWnd::`RTTI Base Class Descriptor at (0,-1,0,64)'
PUBLIC	??_R0?AVCWnd@@@8				; CWnd `RTTI Type Descriptor'
PUBLIC	??_R3CWnd@@8					; CWnd::`RTTI Class Hierarchy Descriptor'
PUBLIC	??_R2CWnd@@8					; CWnd::`RTTI Base Class Array'
PUBLIC	??_R1A@?0A@EA@CCmdTarget@@8			; CCmdTarget::`RTTI Base Class Descriptor at (0,-1,0,64)'
PUBLIC	??_R0?AVCCmdTarget@@@8				; CCmdTarget `RTTI Type Descriptor'
PUBLIC	??_R3CCmdTarget@@8				; CCmdTarget::`RTTI Class Hierarchy Descriptor'
PUBLIC	??_R2CCmdTarget@@8				; CCmdTarget::`RTTI Base Class Array'
PUBLIC	??_R1A@?0A@EA@CDialog@@8			; CDialog::`RTTI Base Class Descriptor at (0,-1,0,64)'
PUBLIC	??_R0?AVCDialog@@@8				; CDialog `RTTI Type Descriptor'
PUBLIC	??_R3CDialog@@8					; CDialog::`RTTI Class Hierarchy Descriptor'
PUBLIC	??_R2CDialog@@8					; CDialog::`RTTI Base Class Array'
PUBLIC	??_7CDlgStrategyConfigure@@6B@			; CDlgStrategyConfigure::`vftable'
PUBLIC	??_C@_0BA@PIGBAOMG@STLIST_MODIFIED@		; `string'
PUBLIC	??_C@_01KICIPPFI@?2@				; `string'
PUBLIC	??_C@_01JKBOJNNK@?$FO@				; `string'
PUBLIC	??_C@_0BH@FLLLIEBF@?2dev?2SystemTrading?4exe@	; `string'
PUBLIC	??_C@_0BG@MJHFLBP@Solomon?5SystemTrading@	; `string'
PUBLIC	??_C@_0M@LCNKCOIE@Icss?2STData@			; `string'
PUBLIC	??_C@_0BD@OKKEAALJ@?$CFs?2?$CFs?2STConfig?4cfg@	; `string'
PUBLIC	??_C@_06NKMNEDPB@?1U?$CC?$CFs?$CC@		; `string'
PUBLIC	??_C@_0O@IENINOAD@?1U?$CC?$CFs?$CC?5?1S?$CC?$CFs?$CC@ ; `string'
PUBLIC	??_C@_07CLDLHAAJ@?$CFs?$HM?$CF08X@		; `string'
PUBLIC	??_C@_04PMOCAHAA@open@				; `string'
PUBLIC	??_C@_07BMIBILFB@?2STData@			; `string'
PUBLIC	??_C@_0N@CBLONPMI@?2ScriptFiles@		; `string'
PUBLIC	??_C@_0BD@LCMNHFGN@STData?2ScriptFiles@		; `string'
PUBLIC	??_C@_04PCOPKCKE@LIST@				; `string'
PUBLIC	??_C@_06JJFGCKJB@CopyNo@			; `string'
PUBLIC	??_C@_05IJGIMMHE@Count@				; `string'
PUBLIC	??_C@_0BD@KNBAFGDF@?$CFs?2Icss?2?$CFs?2high?2?$CFs@ ; `string'
PUBLIC	??_C@_08EFGGCJLD@?$CFs?2?$CFs?2?$CFs@		; `string'
PUBLIC	??_R4CDlgStrategyConfigure@@6B@			; CDlgStrategyConfigure::`RTTI Complete Object Locator'
PUBLIC	??_R0?AVCDlgStrategyConfigure@@@8		; CDlgStrategyConfigure `RTTI Type Descriptor'
PUBLIC	??_R3CDlgStrategyConfigure@@8			; CDlgStrategyConfigure::`RTTI Class Hierarchy Descriptor'
PUBLIC	??_R2CDlgStrategyConfigure@@8			; CDlgStrategyConfigure::`RTTI Base Class Array'
PUBLIC	??_R1A@?0A@EA@CDlgStrategyConfigure@@8		; CDlgStrategyConfigure::`RTTI Base Class Descriptor at (0,-1,0,64)'
PUBLIC	__xmm@00000001000000000000000000000001
EXTRN	??3@YAXPAX@Z:PROC				; operator delete
EXTRN	?__global_delete@@YAXPAXI@Z:PROC		; __global_delete
EXTRN	__imp__GetEnvironmentVariableA@12:PROC
EXTRN	__imp__GetModuleHandleA@4:PROC
EXTRN	__imp__lstrlenA@4:PROC
EXTRN	__imp__GetPrivateProfileIntA@16:PROC
EXTRN	__imp__GetPrivateProfileStringA@24:PROC
EXTRN	__imp__CopyFileA@12:PROC
EXTRN	__imp__wsprintfA:PROC
EXTRN	__imp__RegisterWindowMessageA@4:PROC
EXTRN	__imp__SendMessageA@16:PROC
EXTRN	__imp__GetKeyState@4:PROC
EXTRN	__imp__EnableWindow@8:PROC
EXTRN	__imp__SetForegroundWindow@4:PROC
EXTRN	__imp__GetClientRect@8:PROC
EXTRN	__imp__GetParent@4:PROC
EXTRN	__imp__FindWindowA@8:PROC
EXTRN	__imp____stdio_common_vsprintf:PROC
EXTRN	__imp____stdio_common_vsscanf:PROC
EXTRN	__imp_?Concatenate@?$CSimpleStringT@D$00@ATL@@KAXAAV12@PBDH1H@Z:PROC
EXTRN	__imp_??0?$CStringT@DV?$StrTraitMFC_DLL@DV?$ChTraitsCRT@D@ATL@@@@@ATL@@QAE@XZ:PROC
EXTRN	__imp_??0?$CStringT@DV?$StrTraitMFC_DLL@DV?$ChTraitsCRT@D@ATL@@@@@ATL@@QAE@PAUIAtlStringMgr@1@@Z:PROC
EXTRN	__imp_??0?$CStringT@DV?$StrTraitMFC_DLL@DV?$ChTraitsCRT@D@ATL@@@@@ATL@@QAE@ABV01@@Z:PROC
EXTRN	__imp_??0?$CStringT@DV?$StrTraitMFC_DLL@DV?$ChTraitsCRT@D@ATL@@@@@ATL@@QAE@PBD@Z:PROC
EXTRN	__imp_??1?$CStringT@DV?$StrTraitMFC_DLL@DV?$ChTraitsCRT@D@ATL@@@@@ATL@@QAE@XZ:PROC
EXTRN	__imp_??4?$CStringT@DV?$StrTraitMFC_DLL@DV?$ChTraitsCRT@D@ATL@@@@@ATL@@QAEAAV01@ABV01@@Z:PROC
EXTRN	__imp_??Y?$CStringT@DV?$StrTraitMFC_DLL@DV?$ChTraitsCRT@D@ATL@@@@@ATL@@QAEAAV01@ABV?$CSimpleStringT@D$00@1@@Z:PROC
EXTRN	__imp_??Y?$CStringT@DV?$StrTraitMFC_DLL@DV?$ChTraitsCRT@D@ATL@@@@@ATL@@QAEAAV01@PBD@Z:PROC
EXTRN	__imp_?GetManager@?$CStringT@DV?$StrTraitMFC_DLL@DV?$ChTraitsCRT@D@ATL@@@@@ATL@@QBEPAUIAtlStringMgr@2@XZ:PROC
EXTRN	__imp_?Compare@?$CStringT@DV?$StrTraitMFC_DLL@DV?$ChTraitsCRT@D@ATL@@@@@ATL@@QBEHPBD@Z:PROC
EXTRN	__imp_?Find@?$CStringT@DV?$StrTraitMFC_DLL@DV?$ChTraitsCRT@D@ATL@@@@@ATL@@QBEHDH@Z:PROC
EXTRN	__imp_?Find@?$CStringT@DV?$StrTraitMFC_DLL@DV?$ChTraitsCRT@D@ATL@@@@@ATL@@QBEHPBDH@Z:PROC
EXTRN	__imp_?ReverseFind@?$CStringT@DV?$StrTraitMFC_DLL@DV?$ChTraitsCRT@D@ATL@@@@@ATL@@QBEHD@Z:PROC
EXTRN	__imp_?MakeUpper@?$CStringT@DV?$StrTraitMFC_DLL@DV?$ChTraitsCRT@D@ATL@@@@@ATL@@QAEAAV12@XZ:PROC
EXTRN	__imp_?TrimRight@?$CStringT@DV?$StrTraitMFC_DLL@DV?$ChTraitsCRT@D@ATL@@@@@ATL@@QAEAAV12@XZ:PROC
EXTRN	__imp_?Mid@?$CStringT@DV?$StrTraitMFC_DLL@DV?$ChTraitsCRT@D@ATL@@@@@ATL@@QBE?AV12@H@Z:PROC
EXTRN	__imp_?Mid@?$CStringT@DV?$StrTraitMFC_DLL@DV?$ChTraitsCRT@D@ATL@@@@@ATL@@QBE?AV12@HH@Z:PROC
EXTRN	__imp_?Left@?$CStringT@DV?$StrTraitMFC_DLL@DV?$ChTraitsCRT@D@ATL@@@@@ATL@@QBE?AV12@H@Z:PROC
EXTRN	__imp_?Format@?$CStringT@DV?$StrTraitMFC_DLL@DV?$ChTraitsCRT@D@ATL@@@@@ATL@@QAAXPBDZZ:PROC
EXTRN	__imp__ShellExecuteA@24:PROC
EXTRN	?GetRuntimeClass@CGdiObject@@UBEPAUCRuntimeClass@@XZ:PROC ; CGdiObject::GetRuntimeClass
EXTRN	?DeleteObject@CGdiObject@@QAEHXZ:PROC		; CGdiObject::DeleteObject
EXTRN	??_ECGdiObject@@UAEPAXI@Z:PROC			; CGdiObject::`vector deleting destructor'
EXTRN	?GetRuntimeClass@CBrush@@UBEPAUCRuntimeClass@@XZ:PROC ; CBrush::GetRuntimeClass
EXTRN	??_ECBrush@@UAEPAXI@Z:PROC			; CBrush::`vector deleting destructor'
EXTRN	?GetRuntimeClass@CFont@@UBEPAUCRuntimeClass@@XZ:PROC ; CFont::GetRuntimeClass
EXTRN	??_ECFont@@UAEPAXI@Z:PROC			; CFont::`vector deleting destructor'
EXTRN	?IsInvokeAllowed@CCmdTarget@@UAEHJ@Z:PROC	; CCmdTarget::IsInvokeAllowed
EXTRN	?GetDispatchIID@CCmdTarget@@UAEHPAU_GUID@@@Z:PROC ; CCmdTarget::GetDispatchIID
EXTRN	?GetTypeInfoCount@CCmdTarget@@UAEIXZ:PROC	; CCmdTarget::GetTypeInfoCount
EXTRN	?GetTypeLibCache@CCmdTarget@@UAEPAVCTypeLibCache@@XZ:PROC ; CCmdTarget::GetTypeLibCache
EXTRN	?GetTypeLib@CCmdTarget@@UAEJKPAPAUITypeLib@@@Z:PROC ; CCmdTarget::GetTypeLib
EXTRN	?GetCommandMap@CCmdTarget@@MBEPBUAFX_OLECMDMAP@@XZ:PROC ; CCmdTarget::GetCommandMap
EXTRN	?GetDispatchMap@CCmdTarget@@MBEPBUAFX_DISPMAP@@XZ:PROC ; CCmdTarget::GetDispatchMap
EXTRN	?GetConnectionMap@CCmdTarget@@MBEPBUAFX_CONNECTIONMAP@@XZ:PROC ; CCmdTarget::GetConnectionMap
EXTRN	?GetEventSinkMap@CCmdTarget@@MBEPBUAFX_EVENTSINKMAP@@XZ:PROC ; CCmdTarget::GetEventSinkMap
EXTRN	?OnCreateAggregates@CCmdTarget@@UAEHXZ:PROC	; CCmdTarget::OnCreateAggregates
EXTRN	?GetInterfaceHook@CCmdTarget@@UAEPAUIUnknown@@PBX@Z:PROC ; CCmdTarget::GetInterfaceHook
EXTRN	?GetExtraConnectionPoints@CCmdTarget@@MAEHPAVCPtrArray@@@Z:PROC ; CCmdTarget::GetExtraConnectionPoints
EXTRN	?GetConnectionHook@CCmdTarget@@MAEPAUIConnectionPoint@@ABU_GUID@@@Z:PROC ; CCmdTarget::GetConnectionHook
EXTRN	?FromHandle@CWnd@@SGPAV1@PAUHWND__@@@Z:PROC	; CWnd::FromHandle
EXTRN	?PreSubclassWindow@CWnd@@UAEXXZ:PROC		; CWnd::PreSubclassWindow
EXTRN	?Create@CWnd@@UAEHPBD0KABUtagRECT@@PAV1@IPAUCCreateContext@@@Z:PROC ; CWnd::Create
EXTRN	?CreateEx@CWnd@@UAEHKPBD0KHHHHPAUHWND__@@PAUHMENU__@@PAX@Z:PROC ; CWnd::CreateEx
EXTRN	?CreateEx@CWnd@@UAEHKPBD0KABUtagRECT@@PAV1@IPAX@Z:PROC ; CWnd::CreateEx
EXTRN	?DestroyWindow@CWnd@@UAEHXZ:PROC		; CWnd::DestroyWindow
EXTRN	?PreCreateWindow@CWnd@@UAEHAAUtagCREATESTRUCTA@@@Z:PROC ; CWnd::PreCreateWindow
EXTRN	?CalcWindowRect@CWnd@@UAEXPAUtagRECT@@I@Z:PROC	; CWnd::CalcWindowRect
EXTRN	?GetParentFrame@CWnd@@QBEPAVCFrameWnd@@XZ:PROC	; CWnd::GetParentFrame
EXTRN	?GetMenu@CWnd@@UBEPAVCMenu@@XZ:PROC		; CWnd::GetMenu
EXTRN	?SetMenu@CWnd@@UAEHPAVCMenu@@@Z:PROC		; CWnd::SetMenu
EXTRN	?MoveWindow@CWnd@@QAEXHHHHH@Z:PROC		; CWnd::MoveWindow
EXTRN	?ShowWindow@CWnd@@QAEHH@Z:PROC			; CWnd::ShowWindow
EXTRN	?OnToolHitTest@CWnd@@UBEHVCPoint@@PAUtagTOOLINFOA@@@Z:PROC ; CWnd::OnToolHitTest
EXTRN	?GetScrollBarCtrl@CWnd@@UBEPAVCScrollBar@@H@Z:PROC ; CWnd::GetScrollBarCtrl
EXTRN	?WinHelpA@CWnd@@UAEXKI@Z:PROC			; CWnd::WinHelpA
EXTRN	?HtmlHelpA@CWnd@@UAEXKI@Z:PROC			; CWnd::HtmlHelpA
EXTRN	?WinHelpInternal@CWnd@@UAEXKI@Z:PROC		; CWnd::WinHelpInternal
EXTRN	?ContinueModal@CWnd@@UAEHXZ:PROC		; CWnd::ContinueModal
EXTRN	?EndModalLoop@CWnd@@UAEXH@Z:PROC		; CWnd::EndModalLoop
EXTRN	?OnDrawIconicThumbnailOrLivePreview@CWnd@@UAEXAAVCDC@@VCRect@@VCSize@@HAAH@Z:PROC ; CWnd::OnDrawIconicThumbnailOrLivePreview
EXTRN	?GetInterfaceMap@CWnd@@MBEPBUAFX_INTERFACEMAP@@XZ:PROC ; CWnd::GetInterfaceMap
EXTRN	?EnsureStdObj@CWnd@@UAEJXZ:PROC			; CWnd::EnsureStdObj
EXTRN	?get_accParent@CWnd@@UAEJPAPAUIDispatch@@@Z:PROC ; CWnd::get_accParent
EXTRN	?get_accChildCount@CWnd@@UAEJPAJ@Z:PROC		; CWnd::get_accChildCount
EXTRN	?get_accChild@CWnd@@UAEJUtagVARIANT@@PAPAUIDispatch@@@Z:PROC ; CWnd::get_accChild
EXTRN	?get_accName@CWnd@@UAEJUtagVARIANT@@PAPA_W@Z:PROC ; CWnd::get_accName
EXTRN	?get_accValue@CWnd@@UAEJUtagVARIANT@@PAPA_W@Z:PROC ; CWnd::get_accValue
EXTRN	?get_accDescription@CWnd@@UAEJUtagVARIANT@@PAPA_W@Z:PROC ; CWnd::get_accDescription
EXTRN	?get_accRole@CWnd@@UAEJUtagVARIANT@@PAU2@@Z:PROC ; CWnd::get_accRole
EXTRN	?get_accState@CWnd@@UAEJUtagVARIANT@@PAU2@@Z:PROC ; CWnd::get_accState
EXTRN	?get_accHelp@CWnd@@UAEJUtagVARIANT@@PAPA_W@Z:PROC ; CWnd::get_accHelp
EXTRN	?get_accHelpTopic@CWnd@@UAEJPAPA_WUtagVARIANT@@PAJ@Z:PROC ; CWnd::get_accHelpTopic
EXTRN	?get_accKeyboardShortcut@CWnd@@UAEJUtagVARIANT@@PAPA_W@Z:PROC ; CWnd::get_accKeyboardShortcut
EXTRN	?get_accFocus@CWnd@@UAEJPAUtagVARIANT@@@Z:PROC	; CWnd::get_accFocus
EXTRN	?get_accSelection@CWnd@@UAEJPAUtagVARIANT@@@Z:PROC ; CWnd::get_accSelection
EXTRN	?get_accDefaultAction@CWnd@@UAEJUtagVARIANT@@PAPA_W@Z:PROC ; CWnd::get_accDefaultAction
EXTRN	?accSelect@CWnd@@UAEJJUtagVARIANT@@@Z:PROC	; CWnd::accSelect
EXTRN	?accLocation@CWnd@@UAEJPAJ000UtagVARIANT@@@Z:PROC ; CWnd::accLocation
EXTRN	?accNavigate@CWnd@@UAEJJUtagVARIANT@@PAU2@@Z:PROC ; CWnd::accNavigate
EXTRN	?accHitTest@CWnd@@UAEJJJPAUtagVARIANT@@@Z:PROC	; CWnd::accHitTest
EXTRN	?accDoDefaultAction@CWnd@@UAEJUtagVARIANT@@@Z:PROC ; CWnd::accDoDefaultAction
EXTRN	?put_accName@CWnd@@UAEJUtagVARIANT@@PA_W@Z:PROC	; CWnd::put_accName
EXTRN	?put_accValue@CWnd@@UAEJUtagVARIANT@@PA_W@Z:PROC ; CWnd::put_accValue
EXTRN	?SetProxy@CWnd@@UAEJPAUIAccessibleProxy@@@Z:PROC ; CWnd::SetProxy
EXTRN	?CreateAccessibleProxy@CWnd@@UAEJIJPAJ@Z:PROC	; CWnd::CreateAccessibleProxy
EXTRN	?OnCommand@CWnd@@MAEHIJ@Z:PROC			; CWnd::OnCommand
EXTRN	?OnNotify@CWnd@@MAEHIJPAJ@Z:PROC		; CWnd::OnNotify
EXTRN	?OnDestroy@CWnd@@IAEXXZ:PROC			; CWnd::OnDestroy
EXTRN	?GetSuperWndProcAddr@CWnd@@MAEPAP6GJPAUHWND__@@IIJ@ZXZ:PROC ; CWnd::GetSuperWndProcAddr
EXTRN	?OnAmbientProperty@CWnd@@UAEHPAVCOleControlSite@@JPAUtagVARIANT@@@Z:PROC ; CWnd::OnAmbientProperty
EXTRN	?WindowProc@CWnd@@MAEJIIJ@Z:PROC		; CWnd::WindowProc
EXTRN	?OnWndMsg@CWnd@@MAEHIIJPAJ@Z:PROC		; CWnd::OnWndMsg
EXTRN	?Default@CWnd@@IAEJXZ:PROC			; CWnd::Default
EXTRN	?DefWindowProcA@CWnd@@MAEJIIJ@Z:PROC		; CWnd::DefWindowProcA
EXTRN	?PostNcDestroy@CWnd@@MAEXXZ:PROC		; CWnd::PostNcDestroy
EXTRN	?OnChildNotify@CWnd@@MAEHIIJPAJ@Z:PROC		; CWnd::OnChildNotify
EXTRN	?OnTouchInputs@CWnd@@MAEHIPAUtagTOUCHINPUT@@@Z:PROC ; CWnd::OnTouchInputs
EXTRN	?OnTouchInput@CWnd@@MAEHVCPoint@@HHPAUtagTOUCHINPUT@@@Z:PROC ; CWnd::OnTouchInput
EXTRN	?GetGestureStatus@CWnd@@MAEKVCPoint@@@Z:PROC	; CWnd::GetGestureStatus
EXTRN	?OnGestureZoom@CWnd@@MAEHVCPoint@@J@Z:PROC	; CWnd::OnGestureZoom
EXTRN	?OnGesturePan@CWnd@@MAEHVCPoint@@0@Z:PROC	; CWnd::OnGesturePan
EXTRN	?OnGestureRotate@CWnd@@MAEHVCPoint@@N@Z:PROC	; CWnd::OnGestureRotate
EXTRN	?OnGestureTwoFingerTap@CWnd@@MAEHVCPoint@@@Z:PROC ; CWnd::OnGestureTwoFingerTap
EXTRN	?OnGesturePressAndTap@CWnd@@MAEHVCPoint@@J@Z:PROC ; CWnd::OnGesturePressAndTap
EXTRN	?ResizeDynamicLayout@CWnd@@MAEXXZ:PROC		; CWnd::ResizeDynamicLayout
EXTRN	?IsFrameWnd@CWnd@@UBEHXZ:PROC			; CWnd::IsFrameWnd
EXTRN	?OnFinalRelease@CWnd@@UAEXXZ:PROC		; CWnd::OnFinalRelease
EXTRN	?CreateControlContainer@CWnd@@MAEHPAPAVCOleControlContainer@@@Z:PROC ; CWnd::CreateControlContainer
EXTRN	?CreateControlSite@CWnd@@MAEHPAVCOleControlContainer@@PAPAVCOleControlSite@@IABU_GUID@@@Z:PROC ; CWnd::CreateControlSite
EXTRN	?GetRuntimeClass@CDialog@@UBEPAUCRuntimeClass@@XZ:PROC ; CDialog::GetRuntimeClass
EXTRN	?Create@CDialog@@UAEHPBDPAVCWnd@@@Z:PROC	; CDialog::Create
EXTRN	?CreateIndirect@CDialog@@UAEHPBUDLGTEMPLATE@@PAVCWnd@@PAX@Z:PROC ; CDialog::CreateIndirect
EXTRN	?CreateIndirect@CDialog@@UAEHPAXPAVCWnd@@@Z:PROC ; CDialog::CreateIndirect
EXTRN	??0CDialog@@QAE@IPAVCWnd@@@Z:PROC		; CDialog::CDialog
EXTRN	?DoModal@CDialog@@UAEHXZ:PROC			; CDialog::DoModal
EXTRN	?OnInitDialog@CDialog@@UAEHXZ:PROC		; CDialog::OnInitDialog
EXTRN	?OnSetFont@CDialog@@UAEXPAVCFont@@@Z:PROC	; CDialog::OnSetFont
EXTRN	?OnOK@CDialog@@MAEXXZ:PROC			; CDialog::OnOK
EXTRN	?OnCancel@CDialog@@MAEXXZ:PROC			; CDialog::OnCancel
EXTRN	??1CDialog@@UAE@XZ:PROC				; CDialog::~CDialog
EXTRN	?PreTranslateMessage@CDialog@@UAEHPAUtagMSG@@@Z:PROC ; CDialog::PreTranslateMessage
EXTRN	?OnCmdMsg@CDialog@@UAEHIHPAXPAUAFX_CMDHANDLERINFO@@@Z:PROC ; CDialog::OnCmdMsg
EXTRN	?CheckAutoCenter@CDialog@@UAEHXZ:PROC		; CDialog::CheckAutoCenter
EXTRN	?SetOccDialogInfo@CDialog@@MAEHPAU_AFX_OCC_DIALOG_INFO@@@Z:PROC ; CDialog::SetOccDialogInfo
EXTRN	?GetOccDialogInfo@CDialog@@MAEPAU_AFX_OCC_DIALOG_INFO@@XZ:PROC ; CDialog::GetOccDialogInfo
EXTRN	?PreInitDialog@CDialog@@MAEXXZ:PROC		; CDialog::PreInitDialog
EXTRN	?GetThisMessageMap@CDialog@@KGPBUAFX_MSGMAP@@XZ:PROC ; CDialog::GetThisMessageMap
EXTRN	??1CStatic@@UAE@XZ:PROC				; CStatic::~CStatic
EXTRN	?AfxMessageBox@@YGHPBDII@Z:PROC			; AfxMessageBox
EXTRN	?SetSelFolder@CSTGfxOutBarCtrl@@QAEXH@Z:PROC	; CSTGfxOutBarCtrl::SetSelFolder
EXTRN	?GetSelectedItem@CSTLoadManager@@QAEHAAUSTMNG_ITEMINFO@@@Z:PROC ; CSTLoadManager::GetSelectedItem
EXTRN	?GetRunSTItemInfo@CSTLoadManager@@QAEHV?$CStringT@DV?$StrTraitMFC_DLL@DV?$ChTraitsCRT@D@ATL@@@@@ATL@@AAUSTMNG_ITEMINFO@@@Z:PROC ; CSTLoadManager::GetRunSTItemInfo
EXTRN	??1CExDrawButton@@UAE@XZ:PROC			; CExDrawButton::~CExDrawButton
EXTRN	??1CExEdit@@UAE@XZ:PROC				; CExEdit::~CExEdit
EXTRN	??0COutLookBarDlg@@QAE@PAVCWnd@@@Z:PROC		; COutLookBarDlg::COutLookBarDlg
EXTRN	??1COutLookBarDlg@@UAE@XZ:PROC			; COutLookBarDlg::~COutLookBarDlg
EXTRN	?SetSTParent@COutLookBarDlg@@QAEXPAVCWnd@@@Z:PROC ; COutLookBarDlg::SetSTParent
EXTRN	?UpdateSTList@COutLookBarDlg@@QAEXHV?$CStringT@DV?$StrTraitMFC_DLL@DV?$ChTraitsCRT@D@ATL@@@@@ATL@@@Z:PROC ; COutLookBarDlg::UpdateSTList
EXTRN	?Resize@COutLookBarDlg@@QAEXXZ:PROC		; COutLookBarDlg::Resize
EXTRN	?SetSelectedRange@CGridCtrl@@QAEXHHHHHH@Z:PROC	; CGridCtrl::SetSelectedRange
EXTRN	??1CGridCtrl@@UAE@XZ:PROC			; CGridCtrl::~CGridCtrl
EXTRN	??1CLogicEditCtrl@@UAE@XZ:PROC			; CLogicEditCtrl::~CLogicEditCtrl
EXTRN	??1CXListCtrl@@UAE@XZ:PROC			; CXListCtrl::~CXListCtrl
EXTRN	??0CDlgStrategyList@@QAE@PAVCWnd@@@Z:PROC	; CDlgStrategyList::CDlgStrategyList
EXTRN	?ResizeAll@CDlgStrategyList@@QAEXXZ:PROC	; CDlgStrategyList::ResizeAll
EXTRN	?GetGridSTRowCount@CDlgStrategyList@@QAEHXZ:PROC ; CDlgStrategyList::GetGridSTRowCount
EXTRN	?OnClickGridSTList@CDlgStrategyList@@QAEXHH@Z:PROC ; CDlgStrategyList::OnClickGridSTList
EXTRN	??_ECDlgStrategyConfigure@@UAEPAXI@Z:PROC	; CDlgStrategyConfigure::`vector deleting destructor'
EXTRN	__imp___mkdir:PROC
EXTRN	__imp___access:PROC
EXTRN	@__security_check_cookie@4:PROC
EXTRN	___CxxFrameHandler3:PROC
EXTRN	_memset:PROC
EXTRN	??_7type_info@@6B@:QWORD			; type_info::`vftable'
EXTRN	___security_cookie:DWORD
;	COMDAT ?_OptionsStorage@?1??__local_stdio_printf_options@@9@4_KA
_BSS	SEGMENT
?_OptionsStorage@?1??__local_stdio_printf_options@@9@4_KA DQ 01H DUP (?) ; `__local_stdio_printf_options'::`2'::_OptionsStorage
_BSS	ENDS
;	COMDAT ?_OptionsStorage@?1??__local_stdio_scanf_options@@9@4_KA
_BSS	SEGMENT
?_OptionsStorage@?1??__local_stdio_scanf_options@@9@4_KA DQ 01H DUP (?) ; `__local_stdio_scanf_options'::`2'::_OptionsStorage
_BSS	ENDS
_BSS	SEGMENT
?RMSG_INTERFACE@@3IB DD 01H DUP (?)			; RMSG_INTERFACE
?RMSG_FORMINITIALCOMPLETED@@3IB DD 01H DUP (?)		; RMSG_FORMINITIALCOMPLETED
?RMSG_EVENT_CODEINPUT@@3IB DD 01H DUP (?)		; RMSG_EVENT_CODEINPUT
?RMSG_EVENT_ACCTINPUT@@3IB DD 01H DUP (?)		; RMSG_EVENT_ACCTINPUT
?RMSG_EVENT_SPININPUT@@3IB DD 01H DUP (?)		; RMSG_EVENT_SPININPUT
?RMSG_EVENT_SIGNAL@@3IB DD 01H DUP (?)			; RMSG_EVENT_SIGNAL
?RMSG_FORMSTATECHANGE@@3IB DD 01H DUP (?)		; RMSG_FORMSTATECHANGE
?RMSG_TABSTOP@@3IB DD 01H DUP (?)			; RMSG_TABSTOP
?RMSG_LBTNDBLCLICK@@3IB DD 01H DUP (?)			; RMSG_LBTNDBLCLICK
?RMSG_LBTNDOWN@@3IB DD 01H DUP (?)			; RMSG_LBTNDOWN
?RMSG_ENDSCROLLPOS@@3IB DD 01H DUP (?)			; RMSG_ENDSCROLLPOS
?RMSG_LSHAREDCHANGED@@3IB DD 01H DUP (?)		; RMSG_LSHAREDCHANGED
?RMSG_GETDLLSIZE@@3IB DD 01H DUP (?)			; RMSG_GETDLLSIZE
?RMSG_SETDLLSIZE@@3IB DD 01H DUP (?)			; RMSG_SETDLLSIZE
_BSS	ENDS
CRT$XCU	SEGMENT
?RMSG_INTERFACE$initializer$@@3P6AXXZA DD FLAT:??__ERMSG_INTERFACE@@YAXXZ ; RMSG_INTERFACE$initializer$
CRT$XCU	ENDS
;	COMDAT __xmm@00000001000000000000000000000001
CONST	SEGMENT
__xmm@00000001000000000000000000000001 DB 01H, 00H, 00H, 00H, 00H, 00H, 00H
	DB	00H, 00H, 00H, 00H, 00H, 01H, 00H, 00H, 00H
CONST	ENDS
;	COMDAT ??_R1A@?0A@EA@CDlgStrategyConfigure@@8
rdata$r	SEGMENT
??_R1A@?0A@EA@CDlgStrategyConfigure@@8 DD FLAT:??_R0?AVCDlgStrategyConfigure@@@8 ; CDlgStrategyConfigure::`RTTI Base Class Descriptor at (0,-1,0,64)'
	DD	04H
	DD	00H
	DD	0ffffffffH
	DD	00H
	DD	040H
	DD	FLAT:??_R3CDlgStrategyConfigure@@8
rdata$r	ENDS
;	COMDAT ??_R2CDlgStrategyConfigure@@8
rdata$r	SEGMENT
??_R2CDlgStrategyConfigure@@8 DD FLAT:??_R1A@?0A@EA@CDlgStrategyConfigure@@8 ; CDlgStrategyConfigure::`RTTI Base Class Array'
	DD	FLAT:??_R1A@?0A@EA@CDialog@@8
	DD	FLAT:??_R1A@?0A@EA@CWnd@@8
	DD	FLAT:??_R1A@?0A@EA@CCmdTarget@@8
	DD	FLAT:??_R1A@?0A@EA@CObject@@8
rdata$r	ENDS
;	COMDAT ??_R3CDlgStrategyConfigure@@8
rdata$r	SEGMENT
??_R3CDlgStrategyConfigure@@8 DD 00H			; CDlgStrategyConfigure::`RTTI Class Hierarchy Descriptor'
	DD	00H
	DD	05H
	DD	FLAT:??_R2CDlgStrategyConfigure@@8
rdata$r	ENDS
;	COMDAT ??_R0?AVCDlgStrategyConfigure@@@8
data$rs	SEGMENT
??_R0?AVCDlgStrategyConfigure@@@8 DD FLAT:??_7type_info@@6B@ ; CDlgStrategyConfigure `RTTI Type Descriptor'
	DD	00H
	DB	'.?AVCDlgStrategyConfigure@@', 00H
data$rs	ENDS
;	COMDAT ??_R4CDlgStrategyConfigure@@6B@
rdata$r	SEGMENT
??_R4CDlgStrategyConfigure@@6B@ DD 00H			; CDlgStrategyConfigure::`RTTI Complete Object Locator'
	DD	00H
	DD	00H
	DD	FLAT:??_R0?AVCDlgStrategyConfigure@@@8
	DD	FLAT:??_R3CDlgStrategyConfigure@@8
rdata$r	ENDS
;	COMDAT ??_C@_08EFGGCJLD@?$CFs?2?$CFs?2?$CFs@
CONST	SEGMENT
??_C@_08EFGGCJLD@?$CFs?2?$CFs?2?$CFs@ DB '%s\%s\%s', 00H ; `string'
CONST	ENDS
;	COMDAT ??_C@_0BD@KNBAFGDF@?$CFs?2Icss?2?$CFs?2high?2?$CFs@
CONST	SEGMENT
??_C@_0BD@KNBAFGDF@?$CFs?2Icss?2?$CFs?2high?2?$CFs@ DB '%s\Icss\%s\high\%'
	DB	's', 00H					; `string'
CONST	ENDS
;	COMDAT ??_C@_05IJGIMMHE@Count@
CONST	SEGMENT
??_C@_05IJGIMMHE@Count@ DB 'Count', 00H			; `string'
CONST	ENDS
;	COMDAT ??_C@_06JJFGCKJB@CopyNo@
CONST	SEGMENT
??_C@_06JJFGCKJB@CopyNo@ DB 'CopyNo', 00H		; `string'
CONST	ENDS
;	COMDAT ??_C@_04PCOPKCKE@LIST@
CONST	SEGMENT
??_C@_04PCOPKCKE@LIST@ DB 'LIST', 00H			; `string'
CONST	ENDS
;	COMDAT ??_C@_0BD@LCMNHFGN@STData?2ScriptFiles@
CONST	SEGMENT
??_C@_0BD@LCMNHFGN@STData?2ScriptFiles@ DB 'STData\ScriptFiles', 00H ; `string'
CONST	ENDS
;	COMDAT ??_C@_0N@CBLONPMI@?2ScriptFiles@
CONST	SEGMENT
??_C@_0N@CBLONPMI@?2ScriptFiles@ DB '\ScriptFiles', 00H	; `string'
CONST	ENDS
;	COMDAT ??_C@_07BMIBILFB@?2STData@
CONST	SEGMENT
??_C@_07BMIBILFB@?2STData@ DB '\STData', 00H		; `string'
CONST	ENDS
;	COMDAT ??_C@_04PMOCAHAA@open@
CONST	SEGMENT
??_C@_04PMOCAHAA@open@ DB 'open', 00H			; `string'
CONST	ENDS
;	COMDAT ??_C@_07CLDLHAAJ@?$CFs?$HM?$CF08X@
CONST	SEGMENT
??_C@_07CLDLHAAJ@?$CFs?$HM?$CF08X@ DB '%s|%08X', 00H	; `string'
CONST	ENDS
;	COMDAT ??_C@_0O@IENINOAD@?1U?$CC?$CFs?$CC?5?1S?$CC?$CFs?$CC@
CONST	SEGMENT
??_C@_0O@IENINOAD@?1U?$CC?$CFs?$CC?5?1S?$CC?$CFs?$CC@ DB '/U"%s" /S"%s"', 00H ; `string'
CONST	ENDS
;	COMDAT ??_C@_06NKMNEDPB@?1U?$CC?$CFs?$CC@
CONST	SEGMENT
??_C@_06NKMNEDPB@?1U?$CC?$CFs?$CC@ DB '/U"%s"', 00H	; `string'
CONST	ENDS
;	COMDAT ??_C@_0BD@OKKEAALJ@?$CFs?2?$CFs?2STConfig?4cfg@
CONST	SEGMENT
??_C@_0BD@OKKEAALJ@?$CFs?2?$CFs?2STConfig?4cfg@ DB '%s\%s\STConfig.cfg', 00H ; `string'
CONST	ENDS
;	COMDAT ??_C@_0M@LCNKCOIE@Icss?2STData@
CONST	SEGMENT
??_C@_0M@LCNKCOIE@Icss?2STData@ DB 'Icss\STData', 00H	; `string'
CONST	ENDS
;	COMDAT ??_C@_0BG@MJHFLBP@Solomon?5SystemTrading@
CONST	SEGMENT
??_C@_0BG@MJHFLBP@Solomon?5SystemTrading@ DB 'Solomon SystemTrading', 00H ; `string'
CONST	ENDS
;	COMDAT ??_C@_0BH@FLLLIEBF@?2dev?2SystemTrading?4exe@
CONST	SEGMENT
??_C@_0BH@FLLLIEBF@?2dev?2SystemTrading?4exe@ DB '\dev\SystemTrading.exe', 00H ; `string'
CONST	ENDS
;	COMDAT ??_C@_01JKBOJNNK@?$FO@
CONST	SEGMENT
??_C@_01JKBOJNNK@?$FO@ DB '^', 00H			; `string'
CONST	ENDS
;	COMDAT ??_C@_01KICIPPFI@?2@
CONST	SEGMENT
??_C@_01KICIPPFI@?2@ DB '\', 00H			; `string'
CONST	ENDS
;	COMDAT ??_C@_0BA@PIGBAOMG@STLIST_MODIFIED@
CONST	SEGMENT
??_C@_0BA@PIGBAOMG@STLIST_MODIFIED@ DB 'STLIST_MODIFIED', 00H ; `string'
CONST	ENDS
;	COMDAT ?messageMap@?1??GetThisMessageMap@CDlgStrategyConfigure@@KGPBUAFX_MSGMAP@@XZ@4U3@B
CONST	SEGMENT
?messageMap@?1??GetThisMessageMap@CDlgStrategyConfigure@@KGPBUAFX_MSGMAP@@XZ@4U3@B DD FLAT:?GetThisMessageMap@CDialog@@KGPBUAFX_MSGMAP@@XZ ; `CDlgStrategyConfigure::GetThisMessageMap'::`2'::messageMap
	DD	FLAT:?_messageEntries@?1??GetThisMessageMap@CDlgStrategyConfigure@@KGPBUAFX_MSGMAP@@XZ@4QBUAFX_MSGMAP_ENTRY@@B
CONST	ENDS
;	COMDAT ?_messageEntries@?1??GetThisMessageMap@CDlgStrategyConfigure@@KGPBUAFX_MSGMAP@@XZ@4QBUAFX_MSGMAP_ENTRY@@B
CONST	SEGMENT
?_messageEntries@?1??GetThisMessageMap@CDlgStrategyConfigure@@KGPBUAFX_MSGMAP@@XZ@4QBUAFX_MSGMAP_ENTRY@@B DD 05H ; `CDlgStrategyConfigure::GetThisMessageMap'::`2'::_messageEntries
	DD	00H
	DD	00H
	DD	00H
	DD	01aH
	DD	FLAT:?OnSize@CDlgStrategyConfigure@@IAEXIHH@Z
	DD	02H
	DD	00H
	DD	00H
	DD	00H
	DD	013H
	DD	FLAT:?OnDestroy@CDlgStrategyConfigure@@IAEXXZ
	DD	0c000H
	DD	00H
	DD	00H
	DD	00H
	DD	FLAT:?RMSG_GETDLLSIZE@@3IB
	DD	FLAT:?OnGetDllSize@CDlgStrategyConfigure@@IAEJIJ@Z
	DD	00H
	DD	00H
	DD	00H
	DD	00H
	DD	00H
	DD	00H
CONST	ENDS
;	COMDAT ??_7CDlgStrategyConfigure@@6B@
CONST	SEGMENT
??_7CDlgStrategyConfigure@@6B@ DD FLAT:??_R4CDlgStrategyConfigure@@6B@ ; CDlgStrategyConfigure::`vftable'
	DD	FLAT:?GetRuntimeClass@CDialog@@UBEPAUCRuntimeClass@@XZ
	DD	FLAT:??_ECDlgStrategyConfigure@@UAEPAXI@Z
	DD	FLAT:?Serialize@CObject@@UAEXAAVCArchive@@@Z
	DD	FLAT:?AssertValid@CObject@@UBEXXZ
	DD	FLAT:?Dump@CObject@@UBEXAAVCDumpContext@@@Z
	DD	FLAT:?OnCmdMsg@CDialog@@UAEHIHPAXPAUAFX_CMDHANDLERINFO@@@Z
	DD	FLAT:?OnFinalRelease@CWnd@@UAEXXZ
	DD	FLAT:?IsInvokeAllowed@CCmdTarget@@UAEHJ@Z
	DD	FLAT:?GetDispatchIID@CCmdTarget@@UAEHPAU_GUID@@@Z
	DD	FLAT:?GetTypeInfoCount@CCmdTarget@@UAEIXZ
	DD	FLAT:?GetTypeLibCache@CCmdTarget@@UAEPAVCTypeLibCache@@XZ
	DD	FLAT:?GetTypeLib@CCmdTarget@@UAEJKPAPAUITypeLib@@@Z
	DD	FLAT:?GetMessageMap@CDlgStrategyConfigure@@MBEPBUAFX_MSGMAP@@XZ
	DD	FLAT:?GetCommandMap@CCmdTarget@@MBEPBUAFX_OLECMDMAP@@XZ
	DD	FLAT:?GetDispatchMap@CCmdTarget@@MBEPBUAFX_DISPMAP@@XZ
	DD	FLAT:?GetConnectionMap@CCmdTarget@@MBEPBUAFX_CONNECTIONMAP@@XZ
	DD	FLAT:?GetInterfaceMap@CWnd@@MBEPBUAFX_INTERFACEMAP@@XZ
	DD	FLAT:?GetEventSinkMap@CCmdTarget@@MBEPBUAFX_EVENTSINKMAP@@XZ
	DD	FLAT:?OnCreateAggregates@CCmdTarget@@UAEHXZ
	DD	FLAT:?GetInterfaceHook@CCmdTarget@@UAEPAUIUnknown@@PBX@Z
	DD	FLAT:?GetExtraConnectionPoints@CCmdTarget@@MAEHPAVCPtrArray@@@Z
	DD	FLAT:?GetConnectionHook@CCmdTarget@@MAEPAUIConnectionPoint@@ABU_GUID@@@Z
	DD	FLAT:?PreSubclassWindow@CWnd@@UAEXXZ
	DD	FLAT:?Create@CWnd@@UAEHPBD0KABUtagRECT@@PAV1@IPAUCCreateContext@@@Z
	DD	FLAT:?CreateEx@CWnd@@UAEHKPBD0KABUtagRECT@@PAV1@IPAX@Z
	DD	FLAT:?CreateEx@CWnd@@UAEHKPBD0KHHHHPAUHWND__@@PAUHMENU__@@PAX@Z
	DD	FLAT:?DestroyWindow@CWnd@@UAEHXZ
	DD	FLAT:?PreCreateWindow@CWnd@@UAEHAAUtagCREATESTRUCTA@@@Z
	DD	FLAT:?CalcWindowRect@CWnd@@UAEXPAUtagRECT@@I@Z
	DD	FLAT:?GetMenu@CWnd@@UBEPAVCMenu@@XZ
	DD	FLAT:?SetMenu@CWnd@@UAEHPAVCMenu@@@Z
	DD	FLAT:?OnToolHitTest@CWnd@@UBEHVCPoint@@PAUtagTOOLINFOA@@@Z
	DD	FLAT:?GetScrollBarCtrl@CWnd@@UBEPAVCScrollBar@@H@Z
	DD	FLAT:?WinHelpA@CWnd@@UAEXKI@Z
	DD	FLAT:?HtmlHelpA@CWnd@@UAEXKI@Z
	DD	FLAT:?WinHelpInternal@CWnd@@UAEXKI@Z
	DD	FLAT:?ContinueModal@CWnd@@UAEHXZ
	DD	FLAT:?EndModalLoop@CWnd@@UAEXH@Z
	DD	FLAT:?OnDrawIconicThumbnailOrLivePreview@CWnd@@UAEXAAVCDC@@VCRect@@VCSize@@HAAH@Z
	DD	FLAT:?EnsureStdObj@CWnd@@UAEJXZ
	DD	FLAT:?get_accParent@CWnd@@UAEJPAPAUIDispatch@@@Z
	DD	FLAT:?get_accChildCount@CWnd@@UAEJPAJ@Z
	DD	FLAT:?get_accChild@CWnd@@UAEJUtagVARIANT@@PAPAUIDispatch@@@Z
	DD	FLAT:?get_accName@CWnd@@UAEJUtagVARIANT@@PAPA_W@Z
	DD	FLAT:?get_accValue@CWnd@@UAEJUtagVARIANT@@PAPA_W@Z
	DD	FLAT:?get_accDescription@CWnd@@UAEJUtagVARIANT@@PAPA_W@Z
	DD	FLAT:?get_accRole@CWnd@@UAEJUtagVARIANT@@PAU2@@Z
	DD	FLAT:?get_accState@CWnd@@UAEJUtagVARIANT@@PAU2@@Z
	DD	FLAT:?get_accHelp@CWnd@@UAEJUtagVARIANT@@PAPA_W@Z
	DD	FLAT:?get_accHelpTopic@CWnd@@UAEJPAPA_WUtagVARIANT@@PAJ@Z
	DD	FLAT:?get_accKeyboardShortcut@CWnd@@UAEJUtagVARIANT@@PAPA_W@Z
	DD	FLAT:?get_accFocus@CWnd@@UAEJPAUtagVARIANT@@@Z
	DD	FLAT:?get_accSelection@CWnd@@UAEJPAUtagVARIANT@@@Z
	DD	FLAT:?get_accDefaultAction@CWnd@@UAEJUtagVARIANT@@PAPA_W@Z
	DD	FLAT:?accSelect@CWnd@@UAEJJUtagVARIANT@@@Z
	DD	FLAT:?accLocation@CWnd@@UAEJPAJ000UtagVARIANT@@@Z
	DD	FLAT:?accNavigate@CWnd@@UAEJJUtagVARIANT@@PAU2@@Z
	DD	FLAT:?accHitTest@CWnd@@UAEJJJPAUtagVARIANT@@@Z
	DD	FLAT:?accDoDefaultAction@CWnd@@UAEJUtagVARIANT@@@Z
	DD	FLAT:?put_accName@CWnd@@UAEJUtagVARIANT@@PA_W@Z
	DD	FLAT:?put_accValue@CWnd@@UAEJUtagVARIANT@@PA_W@Z
	DD	FLAT:?SetProxy@CWnd@@UAEJPAUIAccessibleProxy@@@Z
	DD	FLAT:?CreateAccessibleProxy@CWnd@@UAEJIJPAJ@Z
	DD	FLAT:?OnCommand@CWnd@@MAEHIJ@Z
	DD	FLAT:?OnNotify@CWnd@@MAEHIJPAJ@Z
	DD	FLAT:?GetSuperWndProcAddr@CWnd@@MAEPAP6GJPAUHWND__@@IIJ@ZXZ
	DD	FLAT:?DoDataExchange@CDlgStrategyConfigure@@MAEXPAVCDataExchange@@@Z
	DD	FLAT:?BeginModalState@CWnd@@UAEXXZ
	DD	FLAT:?EndModalState@CWnd@@UAEXXZ
	DD	FLAT:?PreTranslateMessage@CDlgStrategyConfigure@@UAEHPAUtagMSG@@@Z
	DD	FLAT:?OnAmbientProperty@CWnd@@UAEHPAVCOleControlSite@@JPAUtagVARIANT@@@Z
	DD	FLAT:?WindowProc@CWnd@@MAEJIIJ@Z
	DD	FLAT:?OnWndMsg@CWnd@@MAEHIIJPAJ@Z
	DD	FLAT:?DefWindowProcA@CWnd@@MAEJIIJ@Z
	DD	FLAT:?PostNcDestroy@CWnd@@MAEXXZ
	DD	FLAT:?OnChildNotify@CWnd@@MAEHIIJPAJ@Z
	DD	FLAT:?OnTouchInputs@CWnd@@MAEHIPAUtagTOUCHINPUT@@@Z
	DD	FLAT:?OnTouchInput@CWnd@@MAEHVCPoint@@HHPAUtagTOUCHINPUT@@@Z
	DD	FLAT:?GetGestureStatus@CWnd@@MAEKVCPoint@@@Z
	DD	FLAT:?OnGestureZoom@CWnd@@MAEHVCPoint@@J@Z
	DD	FLAT:?OnGesturePan@CWnd@@MAEHVCPoint@@0@Z
	DD	FLAT:?OnGestureRotate@CWnd@@MAEHVCPoint@@N@Z
	DD	FLAT:?OnGestureTwoFingerTap@CWnd@@MAEHVCPoint@@@Z
	DD	FLAT:?OnGesturePressAndTap@CWnd@@MAEHVCPoint@@J@Z
	DD	FLAT:?ResizeDynamicLayout@CWnd@@MAEXXZ
	DD	FLAT:?CheckAutoCenter@CDialog@@UAEHXZ
	DD	FLAT:?IsFrameWnd@CWnd@@UBEHXZ
	DD	FLAT:?CreateControlContainer@CWnd@@MAEHPAPAVCOleControlContainer@@@Z
	DD	FLAT:?CreateControlSite@CWnd@@MAEHPAVCOleControlContainer@@PAPAVCOleControlSite@@IABU_GUID@@@Z
	DD	FLAT:?SetOccDialogInfo@CDialog@@MAEHPAU_AFX_OCC_DIALOG_INFO@@@Z
	DD	FLAT:?GetOccDialogInfo@CDialog@@MAEPAU_AFX_OCC_DIALOG_INFO@@XZ
	DD	FLAT:?Create@CDialog@@UAEHIPAVCWnd@@@Z
	DD	FLAT:?Create@CDialog@@UAEHPBDPAVCWnd@@@Z
	DD	FLAT:?CreateIndirect@CDialog@@UAEHPAXPAVCWnd@@@Z
	DD	FLAT:?CreateIndirect@CDialog@@UAEHPBUDLGTEMPLATE@@PAVCWnd@@PAX@Z
	DD	FLAT:?DoModal@CDialog@@UAEHXZ
	DD	FLAT:?OnInitDialog@CDlgStrategyConfigure@@MAEHXZ
	DD	FLAT:?OnSetFont@CDialog@@UAEXPAVCFont@@@Z
	DD	FLAT:?OnOK@CDialog@@MAEXXZ
	DD	FLAT:?OnCancel@CDialog@@MAEXXZ
	DD	FLAT:?PreInitDialog@CDialog@@MAEXXZ
CONST	ENDS
;	COMDAT ??_R2CDialog@@8
rdata$r	SEGMENT
??_R2CDialog@@8 DD FLAT:??_R1A@?0A@EA@CDialog@@8	; CDialog::`RTTI Base Class Array'
	DD	FLAT:??_R1A@?0A@EA@CWnd@@8
	DD	FLAT:??_R1A@?0A@EA@CCmdTarget@@8
	DD	FLAT:??_R1A@?0A@EA@CObject@@8
rdata$r	ENDS
;	COMDAT ??_R3CDialog@@8
rdata$r	SEGMENT
??_R3CDialog@@8 DD 00H					; CDialog::`RTTI Class Hierarchy Descriptor'
	DD	00H
	DD	04H
	DD	FLAT:??_R2CDialog@@8
rdata$r	ENDS
;	COMDAT ??_R0?AVCDialog@@@8
data$rs	SEGMENT
??_R0?AVCDialog@@@8 DD FLAT:??_7type_info@@6B@		; CDialog `RTTI Type Descriptor'
	DD	00H
	DB	'.?AVCDialog@@', 00H
data$rs	ENDS
;	COMDAT ??_R1A@?0A@EA@CDialog@@8
rdata$r	SEGMENT
??_R1A@?0A@EA@CDialog@@8 DD FLAT:??_R0?AVCDialog@@@8	; CDialog::`RTTI Base Class Descriptor at (0,-1,0,64)'
	DD	03H
	DD	00H
	DD	0ffffffffH
	DD	00H
	DD	040H
	DD	FLAT:??_R3CDialog@@8
rdata$r	ENDS
;	COMDAT ??_R2CCmdTarget@@8
rdata$r	SEGMENT
??_R2CCmdTarget@@8 DD FLAT:??_R1A@?0A@EA@CCmdTarget@@8	; CCmdTarget::`RTTI Base Class Array'
	DD	FLAT:??_R1A@?0A@EA@CObject@@8
rdata$r	ENDS
;	COMDAT ??_R3CCmdTarget@@8
rdata$r	SEGMENT
??_R3CCmdTarget@@8 DD 00H				; CCmdTarget::`RTTI Class Hierarchy Descriptor'
	DD	00H
	DD	02H
	DD	FLAT:??_R2CCmdTarget@@8
rdata$r	ENDS
;	COMDAT ??_R0?AVCCmdTarget@@@8
data$rs	SEGMENT
??_R0?AVCCmdTarget@@@8 DD FLAT:??_7type_info@@6B@	; CCmdTarget `RTTI Type Descriptor'
	DD	00H
	DB	'.?AVCCmdTarget@@', 00H
data$rs	ENDS
;	COMDAT ??_R1A@?0A@EA@CCmdTarget@@8
rdata$r	SEGMENT
??_R1A@?0A@EA@CCmdTarget@@8 DD FLAT:??_R0?AVCCmdTarget@@@8 ; CCmdTarget::`RTTI Base Class Descriptor at (0,-1,0,64)'
	DD	01H
	DD	00H
	DD	0ffffffffH
	DD	00H
	DD	040H
	DD	FLAT:??_R3CCmdTarget@@8
rdata$r	ENDS
;	COMDAT ??_R2CWnd@@8
rdata$r	SEGMENT
??_R2CWnd@@8 DD	FLAT:??_R1A@?0A@EA@CWnd@@8		; CWnd::`RTTI Base Class Array'
	DD	FLAT:??_R1A@?0A@EA@CCmdTarget@@8
	DD	FLAT:??_R1A@?0A@EA@CObject@@8
rdata$r	ENDS
;	COMDAT ??_R3CWnd@@8
rdata$r	SEGMENT
??_R3CWnd@@8 DD	00H					; CWnd::`RTTI Class Hierarchy Descriptor'
	DD	00H
	DD	03H
	DD	FLAT:??_R2CWnd@@8
rdata$r	ENDS
;	COMDAT ??_R0?AVCWnd@@@8
data$rs	SEGMENT
??_R0?AVCWnd@@@8 DD FLAT:??_7type_info@@6B@		; CWnd `RTTI Type Descriptor'
	DD	00H
	DB	'.?AVCWnd@@', 00H
data$rs	ENDS
;	COMDAT ??_R1A@?0A@EA@CWnd@@8
rdata$r	SEGMENT
??_R1A@?0A@EA@CWnd@@8 DD FLAT:??_R0?AVCWnd@@@8		; CWnd::`RTTI Base Class Descriptor at (0,-1,0,64)'
	DD	02H
	DD	00H
	DD	0ffffffffH
	DD	00H
	DD	040H
	DD	FLAT:??_R3CWnd@@8
rdata$r	ENDS
;	COMDAT ??_R1A@?0A@EA@CFont@@8
rdata$r	SEGMENT
??_R1A@?0A@EA@CFont@@8 DD FLAT:??_R0?AVCFont@@@8	; CFont::`RTTI Base Class Descriptor at (0,-1,0,64)'
	DD	02H
	DD	00H
	DD	0ffffffffH
	DD	00H
	DD	040H
	DD	FLAT:??_R3CFont@@8
rdata$r	ENDS
;	COMDAT ??_R2CFont@@8
rdata$r	SEGMENT
??_R2CFont@@8 DD FLAT:??_R1A@?0A@EA@CFont@@8		; CFont::`RTTI Base Class Array'
	DD	FLAT:??_R1A@?0A@EA@CGdiObject@@8
	DD	FLAT:??_R1A@?0A@EA@CObject@@8
rdata$r	ENDS
;	COMDAT ??_R3CFont@@8
rdata$r	SEGMENT
??_R3CFont@@8 DD 00H					; CFont::`RTTI Class Hierarchy Descriptor'
	DD	00H
	DD	03H
	DD	FLAT:??_R2CFont@@8
rdata$r	ENDS
;	COMDAT ??_R0?AVCFont@@@8
data$rs	SEGMENT
??_R0?AVCFont@@@8 DD FLAT:??_7type_info@@6B@		; CFont `RTTI Type Descriptor'
	DD	00H
	DB	'.?AVCFont@@', 00H
data$rs	ENDS
;	COMDAT ??_R4CFont@@6B@
rdata$r	SEGMENT
??_R4CFont@@6B@ DD 00H					; CFont::`RTTI Complete Object Locator'
	DD	00H
	DD	00H
	DD	FLAT:??_R0?AVCFont@@@8
	DD	FLAT:??_R3CFont@@8
rdata$r	ENDS
;	COMDAT ??_R1A@?0A@EA@CBrush@@8
rdata$r	SEGMENT
??_R1A@?0A@EA@CBrush@@8 DD FLAT:??_R0?AVCBrush@@@8	; CBrush::`RTTI Base Class Descriptor at (0,-1,0,64)'
	DD	02H
	DD	00H
	DD	0ffffffffH
	DD	00H
	DD	040H
	DD	FLAT:??_R3CBrush@@8
rdata$r	ENDS
;	COMDAT ??_R2CBrush@@8
rdata$r	SEGMENT
??_R2CBrush@@8 DD FLAT:??_R1A@?0A@EA@CBrush@@8		; CBrush::`RTTI Base Class Array'
	DD	FLAT:??_R1A@?0A@EA@CGdiObject@@8
	DD	FLAT:??_R1A@?0A@EA@CObject@@8
rdata$r	ENDS
;	COMDAT ??_R3CBrush@@8
rdata$r	SEGMENT
??_R3CBrush@@8 DD 00H					; CBrush::`RTTI Class Hierarchy Descriptor'
	DD	00H
	DD	03H
	DD	FLAT:??_R2CBrush@@8
rdata$r	ENDS
;	COMDAT ??_R0?AVCBrush@@@8
data$rs	SEGMENT
??_R0?AVCBrush@@@8 DD FLAT:??_7type_info@@6B@		; CBrush `RTTI Type Descriptor'
	DD	00H
	DB	'.?AVCBrush@@', 00H
data$rs	ENDS
;	COMDAT ??_R4CBrush@@6B@
rdata$r	SEGMENT
??_R4CBrush@@6B@ DD 00H					; CBrush::`RTTI Complete Object Locator'
	DD	00H
	DD	00H
	DD	FLAT:??_R0?AVCBrush@@@8
	DD	FLAT:??_R3CBrush@@8
rdata$r	ENDS
;	COMDAT ??_R1A@?0A@EA@CGdiObject@@8
rdata$r	SEGMENT
??_R1A@?0A@EA@CGdiObject@@8 DD FLAT:??_R0?AVCGdiObject@@@8 ; CGdiObject::`RTTI Base Class Descriptor at (0,-1,0,64)'
	DD	01H
	DD	00H
	DD	0ffffffffH
	DD	00H
	DD	040H
	DD	FLAT:??_R3CGdiObject@@8
rdata$r	ENDS
;	COMDAT ??_R2CGdiObject@@8
rdata$r	SEGMENT
??_R2CGdiObject@@8 DD FLAT:??_R1A@?0A@EA@CGdiObject@@8	; CGdiObject::`RTTI Base Class Array'
	DD	FLAT:??_R1A@?0A@EA@CObject@@8
rdata$r	ENDS
;	COMDAT ??_R3CGdiObject@@8
rdata$r	SEGMENT
??_R3CGdiObject@@8 DD 00H				; CGdiObject::`RTTI Class Hierarchy Descriptor'
	DD	00H
	DD	02H
	DD	FLAT:??_R2CGdiObject@@8
rdata$r	ENDS
;	COMDAT ??_R0?AVCGdiObject@@@8
data$rs	SEGMENT
??_R0?AVCGdiObject@@@8 DD FLAT:??_7type_info@@6B@	; CGdiObject `RTTI Type Descriptor'
	DD	00H
	DB	'.?AVCGdiObject@@', 00H
data$rs	ENDS
;	COMDAT ??_R4CGdiObject@@6B@
rdata$r	SEGMENT
??_R4CGdiObject@@6B@ DD 00H				; CGdiObject::`RTTI Complete Object Locator'
	DD	00H
	DD	00H
	DD	FLAT:??_R0?AVCGdiObject@@@8
	DD	FLAT:??_R3CGdiObject@@8
rdata$r	ENDS
;	COMDAT ??_R1A@?0A@EA@CObject@@8
rdata$r	SEGMENT
??_R1A@?0A@EA@CObject@@8 DD FLAT:??_R0?AVCObject@@@8	; CObject::`RTTI Base Class Descriptor at (0,-1,0,64)'
	DD	00H
	DD	00H
	DD	0ffffffffH
	DD	00H
	DD	040H
	DD	FLAT:??_R3CObject@@8
rdata$r	ENDS
;	COMDAT ??_R2CObject@@8
rdata$r	SEGMENT
??_R2CObject@@8 DD FLAT:??_R1A@?0A@EA@CObject@@8	; CObject::`RTTI Base Class Array'
rdata$r	ENDS
;	COMDAT ??_R3CObject@@8
rdata$r	SEGMENT
??_R3CObject@@8 DD 00H					; CObject::`RTTI Class Hierarchy Descriptor'
	DD	00H
	DD	01H
	DD	FLAT:??_R2CObject@@8
rdata$r	ENDS
;	COMDAT ??_R0?AVCObject@@@8
data$rs	SEGMENT
??_R0?AVCObject@@@8 DD FLAT:??_7type_info@@6B@		; CObject `RTTI Type Descriptor'
	DD	00H
	DB	'.?AVCObject@@', 00H
data$rs	ENDS
;	COMDAT ??_C@_02EMFKHFLK@?$CFX@
CONST	SEGMENT
??_C@_02EMFKHFLK@?$CFX@ DB '%X', 00H			; `string'
CONST	ENDS
;	COMDAT ??_C@_06NDLAHCHE@?$CFs?$CF08X@
CONST	SEGMENT
??_C@_06NDLAHCHE@?$CFs?$CF08X@ DB '%s%08X', 00H		; `string'
CONST	ENDS
;	COMDAT ??_C@_0P@IDMAJEGN@HANAROPCTRMAIN@
CONST	SEGMENT
??_C@_0P@IDMAJEGN@HANAROPCTRMAIN@ DB 'HANAROPCTRMAIN', 00H ; `string'
CONST	ENDS
;	COMDAT ??_C@_0M@CBBNGGHM@PcTrMng?4dll@
CONST	SEGMENT
??_C@_0M@CBBNGGHM@PcTrMng?4dll@ DB 'PcTrMng.dll', 00H	; `string'
CONST	ENDS
;	COMDAT ??_C@_0N@OMEMOKLE@?$CFTs?5?$CI?$CFTs?3?$CFd?$CJ@
CONST	SEGMENT
??_C@_0N@OMEMOKLE@?$CFTs?5?$CI?$CFTs?3?$CFd?$CJ@ DB '%Ts (%Ts:%d)', 00H ; `string'
CONST	ENDS
;	COMDAT ??_C@_0BB@HBOOMJBF@?$CFTs?5?$CI?$CFTs?3?$CFd?$CJ?6?$CFTs@
CONST	SEGMENT
??_C@_0BB@HBOOMJBF@?$CFTs?5?$CI?$CFTs?3?$CFd?$CJ?6?$CFTs@ DB '%Ts (%Ts:%d'
	DB	')', 0aH, '%Ts', 00H				; `string'
CONST	ENDS
;	COMDAT ??_C@_0BP@OIEOKIDM@Exception?5thrown?5in?5destructor@
CONST	SEGMENT
??_C@_0BP@OIEOKIDM@Exception?5thrown?5in?5destructor@ DB 'Exception throw'
	DB	'n in destructor', 00H			; `string'
CONST	ENDS
;	COMDAT ??_C@_0HD@JJCHHHNK@C?3?2Program?5Files?5?$CIx86?$CJ?2Microsof@
CONST	SEGMENT
??_C@_0HD@JJCHHHNK@C?3?2Program?5Files?5?$CIx86?$CJ?2Microsof@ DB 'C:\Pro'
	DB	'gram Files (x86)\Microsoft Visual Studio\2019\Community\VC\To'
	DB	'ols\MSVC\14.29.30133\atlmfc\include\afxwin1.inl', 00H ; `string'
CONST	ENDS
;	COMDAT ??_7CFont@@6B@
CONST	SEGMENT
??_7CFont@@6B@ DD FLAT:??_R4CFont@@6B@			; CFont::`vftable'
	DD	FLAT:?GetRuntimeClass@CFont@@UBEPAUCRuntimeClass@@XZ
	DD	FLAT:??_ECFont@@UAEPAXI@Z
	DD	FLAT:?Serialize@CObject@@UAEXAAVCArchive@@@Z
	DD	FLAT:?AssertValid@CObject@@UBEXXZ
	DD	FLAT:?Dump@CObject@@UBEXAAVCDumpContext@@@Z
CONST	ENDS
;	COMDAT ??_7CBrush@@6B@
CONST	SEGMENT
??_7CBrush@@6B@ DD FLAT:??_R4CBrush@@6B@		; CBrush::`vftable'
	DD	FLAT:?GetRuntimeClass@CBrush@@UBEPAUCRuntimeClass@@XZ
	DD	FLAT:??_ECBrush@@UAEPAXI@Z
	DD	FLAT:?Serialize@CObject@@UAEXAAVCArchive@@@Z
	DD	FLAT:?AssertValid@CObject@@UBEXXZ
	DD	FLAT:?Dump@CObject@@UBEXAAVCDumpContext@@@Z
CONST	ENDS
;	COMDAT ??_7CGdiObject@@6B@
CONST	SEGMENT
??_7CGdiObject@@6B@ DD FLAT:??_R4CGdiObject@@6B@	; CGdiObject::`vftable'
	DD	FLAT:?GetRuntimeClass@CGdiObject@@UBEPAUCRuntimeClass@@XZ
	DD	FLAT:??_ECGdiObject@@UAEPAXI@Z
	DD	FLAT:?Serialize@CObject@@UAEXAAVCArchive@@@Z
	DD	FLAT:?AssertValid@CObject@@UBEXXZ
	DD	FLAT:?Dump@CObject@@UBEXAAVCDumpContext@@@Z
CONST	ENDS
;	COMDAT ??_C@_00CNPNBAHC@@
CONST	SEGMENT
??_C@_00CNPNBAHC@@ DB 00H				; `string'
CONST	ENDS
;	COMDAT ??_C@_02DPKJAMEF@?$CFd@
CONST	SEGMENT
??_C@_02DPKJAMEF@?$CFd@ DB '%d', 00H			; `string'
CONST	ENDS
;	COMDAT ??_R0PAVCException@@@8
data$r	SEGMENT
??_R0PAVCException@@@8 DD FLAT:??_7type_info@@6B@	; CException * `RTTI Type Descriptor'
	DD	00H
	DB	'.PAVCException@@', 00H
data$r	ENDS
;	COMDAT xdata$x
xdata$x	SEGMENT
__unwindtable$?DataMonitorCallbackProc@CDlgStrategyConfigure@@KGXPBDJJJJ@Z DD 0ffffffffH
	DD	FLAT:__unwindfunclet$?DataMonitorCallbackProc@CDlgStrategyConfigure@@KGXPBDJJJJ@Z$0
	DD	00H
	DD	FLAT:__unwindfunclet$?DataMonitorCallbackProc@CDlgStrategyConfigure@@KGXPBDJJJJ@Z$2
__ehfuncinfo$?DataMonitorCallbackProc@CDlgStrategyConfigure@@KGXPBDJJJJ@Z DD 019930522H
	DD	02H
	DD	FLAT:__unwindtable$?DataMonitorCallbackProc@CDlgStrategyConfigure@@KGXPBDJJJJ@Z
	DD	2 DUP(00H)
	DD	2 DUP(00H)
	DD	00H
	DD	01H
xdata$x	ENDS
;	COMDAT xdata$x
xdata$x	SEGMENT
__unwindtable$?InitLoad@CDlgStrategyConfigure@@IAEXXZ DD 0ffffffffH
	DD	FLAT:__unwindfunclet$?InitLoad@CDlgStrategyConfigure@@IAEXXZ$1
	DD	0ffffffffH
	DD	FLAT:__unwindfunclet$?InitLoad@CDlgStrategyConfigure@@IAEXXZ$0
__ehfuncinfo$?InitLoad@CDlgStrategyConfigure@@IAEXXZ DD 019930522H
	DD	02H
	DD	FLAT:__unwindtable$?InitLoad@CDlgStrategyConfigure@@IAEXXZ
	DD	2 DUP(00H)
	DD	2 DUP(00H)
	DD	00H
	DD	01H
xdata$x	ENDS
;	COMDAT xdata$x
xdata$x	SEGMENT
__unwindtable$?OnInitDialog@CDlgStrategyConfigure@@MAEHXZ DD 0ffffffffH
	DD	FLAT:__unwindfunclet$?OnInitDialog@CDlgStrategyConfigure@@MAEHXZ$3
	DD	0ffffffffH
	DD	FLAT:__unwindfunclet$?OnInitDialog@CDlgStrategyConfigure@@MAEHXZ$2
	DD	0ffffffffH
	DD	FLAT:__unwindfunclet$?OnInitDialog@CDlgStrategyConfigure@@MAEHXZ$0
	DD	02H
	DD	FLAT:__unwindfunclet$?OnInitDialog@CDlgStrategyConfigure@@MAEHXZ$1
__ehfuncinfo$?OnInitDialog@CDlgStrategyConfigure@@MAEHXZ DD 019930522H
	DD	04H
	DD	FLAT:__unwindtable$?OnInitDialog@CDlgStrategyConfigure@@MAEHXZ
	DD	2 DUP(00H)
	DD	2 DUP(00H)
	DD	00H
	DD	01H
xdata$x	ENDS
;	COMDAT xdata$x
xdata$x	SEGMENT
__ehfuncinfo$?SelectSTItem@CDlgStrategyConfigure@@QAEXV?$CStringT@DV?$StrTraitMFC_DLL@DV?$ChTraitsCRT@D@ATL@@@@@ATL@@0@Z DD 019930522H
	DD	08H
	DD	FLAT:__unwindtable$?SelectSTItem@CDlgStrategyConfigure@@QAEXV?$CStringT@DV?$StrTraitMFC_DLL@DV?$ChTraitsCRT@D@ATL@@@@@ATL@@0@Z
	DD	2 DUP(00H)
	DD	2 DUP(00H)
	DD	00H
	DD	01H
__unwindtable$?SelectSTItem@CDlgStrategyConfigure@@QAEXV?$CStringT@DV?$StrTraitMFC_DLL@DV?$ChTraitsCRT@D@ATL@@@@@ATL@@0@Z DD 0ffffffffH
	DD	FLAT:__unwindfunclet$?SelectSTItem@CDlgStrategyConfigure@@QAEXV?$CStringT@DV?$StrTraitMFC_DLL@DV?$ChTraitsCRT@D@ATL@@@@@ATL@@0@Z$0
	DD	00H
	DD	FLAT:__unwindfunclet$?SelectSTItem@CDlgStrategyConfigure@@QAEXV?$CStringT@DV?$StrTraitMFC_DLL@DV?$ChTraitsCRT@D@ATL@@@@@ATL@@0@Z$1
	DD	01H
	DD	FLAT:__unwindfunclet$?SelectSTItem@CDlgStrategyConfigure@@QAEXV?$CStringT@DV?$StrTraitMFC_DLL@DV?$ChTraitsCRT@D@ATL@@@@@ATL@@0@Z$2
	DD	02H
	DD	FLAT:__unwindfunclet$?SelectSTItem@CDlgStrategyConfigure@@QAEXV?$CStringT@DV?$StrTraitMFC_DLL@DV?$ChTraitsCRT@D@ATL@@@@@ATL@@0@Z$3
	DD	02H
	DD	FLAT:__unwindfunclet$?SelectSTItem@CDlgStrategyConfigure@@QAEXV?$CStringT@DV?$StrTraitMFC_DLL@DV?$ChTraitsCRT@D@ATL@@@@@ATL@@0@Z$4
	DD	04H
	DD	FLAT:__unwindfunclet$?SelectSTItem@CDlgStrategyConfigure@@QAEXV?$CStringT@DV?$StrTraitMFC_DLL@DV?$ChTraitsCRT@D@ATL@@@@@ATL@@0@Z$5
	DD	05H
	DD	FLAT:__unwindfunclet$?SelectSTItem@CDlgStrategyConfigure@@QAEXV?$CStringT@DV?$StrTraitMFC_DLL@DV?$ChTraitsCRT@D@ATL@@@@@ATL@@0@Z$6
	DD	04H
	DD	FLAT:__unwindfunclet$?SelectSTItem@CDlgStrategyConfigure@@QAEXV?$CStringT@DV?$StrTraitMFC_DLL@DV?$ChTraitsCRT@D@ATL@@@@@ATL@@0@Z$7
xdata$x	ENDS
;	COMDAT xdata$x
xdata$x	SEGMENT
__ehfuncinfo$?RunST@CDlgStrategyConfigure@@QAEHHAAV?$CStringT@DV?$StrTraitMFC_DLL@DV?$ChTraitsCRT@D@ATL@@@@@ATL@@@Z DD 019930522H
	DD	09H
	DD	FLAT:__unwindtable$?RunST@CDlgStrategyConfigure@@QAEHHAAV?$CStringT@DV?$StrTraitMFC_DLL@DV?$ChTraitsCRT@D@ATL@@@@@ATL@@@Z
	DD	2 DUP(00H)
	DD	2 DUP(00H)
	DD	00H
	DD	01H
__unwindtable$?RunST@CDlgStrategyConfigure@@QAEHHAAV?$CStringT@DV?$StrTraitMFC_DLL@DV?$ChTraitsCRT@D@ATL@@@@@ATL@@@Z DD 0ffffffffH
	DD	FLAT:__unwindfunclet$?RunST@CDlgStrategyConfigure@@QAEHHAAV?$CStringT@DV?$StrTraitMFC_DLL@DV?$ChTraitsCRT@D@ATL@@@@@ATL@@@Z$0
	DD	00H
	DD	FLAT:__unwindfunclet$?RunST@CDlgStrategyConfigure@@QAEHHAAV?$CStringT@DV?$StrTraitMFC_DLL@DV?$ChTraitsCRT@D@ATL@@@@@ATL@@@Z$1
	DD	01H
	DD	FLAT:__unwindfunclet$?RunST@CDlgStrategyConfigure@@QAEHHAAV?$CStringT@DV?$StrTraitMFC_DLL@DV?$ChTraitsCRT@D@ATL@@@@@ATL@@@Z$2
	DD	01H
	DD	FLAT:__unwindfunclet$?RunST@CDlgStrategyConfigure@@QAEHHAAV?$CStringT@DV?$StrTraitMFC_DLL@DV?$ChTraitsCRT@D@ATL@@@@@ATL@@@Z$3
	DD	01H
	DD	FLAT:__unwindfunclet$?RunST@CDlgStrategyConfigure@@QAEHHAAV?$CStringT@DV?$StrTraitMFC_DLL@DV?$ChTraitsCRT@D@ATL@@@@@ATL@@@Z$4
	DD	04H
	DD	FLAT:__unwindfunclet$?RunST@CDlgStrategyConfigure@@QAEHHAAV?$CStringT@DV?$StrTraitMFC_DLL@DV?$ChTraitsCRT@D@ATL@@@@@ATL@@@Z$5
	DD	04H
	DD	FLAT:__unwindfunclet$?RunST@CDlgStrategyConfigure@@QAEHHAAV?$CStringT@DV?$StrTraitMFC_DLL@DV?$ChTraitsCRT@D@ATL@@@@@ATL@@@Z$6
	DD	06H
	DD	FLAT:__unwindfunclet$?RunST@CDlgStrategyConfigure@@QAEHHAAV?$CStringT@DV?$StrTraitMFC_DLL@DV?$ChTraitsCRT@D@ATL@@@@@ATL@@@Z$7
	DD	04H
	DD	FLAT:__unwindfunclet$?RunST@CDlgStrategyConfigure@@QAEHHAAV?$CStringT@DV?$StrTraitMFC_DLL@DV?$ChTraitsCRT@D@ATL@@@@@ATL@@@Z$8
xdata$x	ENDS
;	COMDAT xdata$x
xdata$x	SEGMENT
__unwindtable$?CopyBaseScriptFile@CDlgStrategyConfigure@@QAEFXZ DD 0ffffffffH
	DD	FLAT:__unwindfunclet$?CopyBaseScriptFile@CDlgStrategyConfigure@@QAEFXZ$0
__ehfuncinfo$?CopyBaseScriptFile@CDlgStrategyConfigure@@QAEFXZ DD 019930522H
	DD	01H
	DD	FLAT:__unwindtable$?CopyBaseScriptFile@CDlgStrategyConfigure@@QAEFXZ
	DD	2 DUP(00H)
	DD	2 DUP(00H)
	DD	00H
	DD	01H
xdata$x	ENDS
;	COMDAT xdata$x
xdata$x	SEGMENT
__ehfuncinfo$?LoadEditor@CDlgStrategyConfigure@@QAEXV?$CStringT@DV?$StrTraitMFC_DLL@DV?$ChTraitsCRT@D@ATL@@@@@ATL@@@Z DD 019930522H
	DD	06H
	DD	FLAT:__unwindtable$?LoadEditor@CDlgStrategyConfigure@@QAEXV?$CStringT@DV?$StrTraitMFC_DLL@DV?$ChTraitsCRT@D@ATL@@@@@ATL@@@Z
	DD	2 DUP(00H)
	DD	2 DUP(00H)
	DD	00H
	DD	01H
__unwindtable$?LoadEditor@CDlgStrategyConfigure@@QAEXV?$CStringT@DV?$StrTraitMFC_DLL@DV?$ChTraitsCRT@D@ATL@@@@@ATL@@@Z DD 0ffffffffH
	DD	FLAT:__unwindfunclet$?LoadEditor@CDlgStrategyConfigure@@QAEXV?$CStringT@DV?$StrTraitMFC_DLL@DV?$ChTraitsCRT@D@ATL@@@@@ATL@@@Z$0
	DD	00H
	DD	FLAT:__unwindfunclet$?LoadEditor@CDlgStrategyConfigure@@QAEXV?$CStringT@DV?$StrTraitMFC_DLL@DV?$ChTraitsCRT@D@ATL@@@@@ATL@@@Z$1
	DD	01H
	DD	FLAT:__unwindfunclet$?LoadEditor@CDlgStrategyConfigure@@QAEXV?$CStringT@DV?$StrTraitMFC_DLL@DV?$ChTraitsCRT@D@ATL@@@@@ATL@@@Z$5
	DD	01H
	DD	FLAT:__unwindfunclet$?LoadEditor@CDlgStrategyConfigure@@QAEXV?$CStringT@DV?$StrTraitMFC_DLL@DV?$ChTraitsCRT@D@ATL@@@@@ATL@@@Z$6
	DD	01H
	DD	FLAT:__unwindfunclet$?LoadEditor@CDlgStrategyConfigure@@QAEXV?$CStringT@DV?$StrTraitMFC_DLL@DV?$ChTraitsCRT@D@ATL@@@@@ATL@@@Z$3
	DD	04H
	DD	FLAT:__unwindfunclet$?LoadEditor@CDlgStrategyConfigure@@QAEXV?$CStringT@DV?$StrTraitMFC_DLL@DV?$ChTraitsCRT@D@ATL@@@@@ATL@@@Z$4
xdata$x	ENDS
;	COMDAT xdata$x
xdata$x	SEGMENT
__unwindtable$?UpdateSTList@CDlgStrategyConfigure@@QAEXHV?$CStringT@DV?$StrTraitMFC_DLL@DV?$ChTraitsCRT@D@ATL@@@@@ATL@@@Z DD 0ffffffffH
	DD	FLAT:__unwindfunclet$?UpdateSTList@CDlgStrategyConfigure@@QAEXHV?$CStringT@DV?$StrTraitMFC_DLL@DV?$ChTraitsCRT@D@ATL@@@@@ATL@@@Z$0
__ehfuncinfo$?UpdateSTList@CDlgStrategyConfigure@@QAEXHV?$CStringT@DV?$StrTraitMFC_DLL@DV?$ChTraitsCRT@D@ATL@@@@@ATL@@@Z DD 019930522H
	DD	01H
	DD	FLAT:__unwindtable$?UpdateSTList@CDlgStrategyConfigure@@QAEXHV?$CStringT@DV?$StrTraitMFC_DLL@DV?$ChTraitsCRT@D@ATL@@@@@ATL@@@Z
	DD	2 DUP(00H)
	DD	2 DUP(00H)
	DD	00H
	DD	01H
xdata$x	ENDS
;	COMDAT xdata$x
xdata$x	SEGMENT
__ehfuncinfo$??0CDlgStrategyConfigure@@QAE@PAVCWnd@@@Z DD 019930522H
	DD	07H
	DD	FLAT:__unwindtable$??0CDlgStrategyConfigure@@QAE@PAVCWnd@@@Z
	DD	2 DUP(00H)
	DD	2 DUP(00H)
	DD	00H
	DD	01H
__unwindtable$??0CDlgStrategyConfigure@@QAE@PAVCWnd@@@Z DD 0ffffffffH
	DD	FLAT:__unwindfunclet$??0CDlgStrategyConfigure@@QAE@PAVCWnd@@@Z$0
	DD	00H
	DD	FLAT:__unwindfunclet$??0CDlgStrategyConfigure@@QAE@PAVCWnd@@@Z$1
	DD	01H
	DD	FLAT:__unwindfunclet$??0CDlgStrategyConfigure@@QAE@PAVCWnd@@@Z$2
	DD	02H
	DD	FLAT:__unwindfunclet$??0CDlgStrategyConfigure@@QAE@PAVCWnd@@@Z$3
	DD	03H
	DD	FLAT:__unwindfunclet$??0CDlgStrategyConfigure@@QAE@PAVCWnd@@@Z$4
	DD	04H
	DD	FLAT:__unwindfunclet$??0CDlgStrategyConfigure@@QAE@PAVCWnd@@@Z$5
	DD	05H
	DD	FLAT:__unwindfunclet$??0CDlgStrategyConfigure@@QAE@PAVCWnd@@@Z$6
xdata$x	ENDS
;	COMDAT xdata$x
xdata$x	SEGMENT
__unwindtable$?AfxGetPctrInterface@@YGJH@Z DD 0ffffffffH
	DD	FLAT:__unwindfunclet$?AfxGetPctrInterface@@YGJH@Z$0
__ehfuncinfo$?AfxGetPctrInterface@@YGJH@Z DD 019930522H
	DD	01H
	DD	FLAT:__unwindtable$?AfxGetPctrInterface@@YGJH@Z
	DD	2 DUP(00H)
	DD	2 DUP(00H)
	DD	00H
	DD	01H
xdata$x	ENDS
;	COMDAT xdata$x
xdata$x	SEGMENT
__unwindtable$?AfxGetPctrMainHandle@@YGPAUHWND__@@XZ DD 0ffffffffH
	DD	FLAT:__unwindfunclet$?AfxGetPctrMainHandle@@YGPAUHWND__@@XZ$0
__ehfuncinfo$?AfxGetPctrMainHandle@@YGPAUHWND__@@XZ DD 019930522H
	DD	01H
	DD	FLAT:__unwindtable$?AfxGetPctrMainHandle@@YGPAUHWND__@@XZ
	DD	2 DUP(00H)
	DD	2 DUP(00H)
	DD	00H
	DD	01H
xdata$x	ENDS
;	COMDAT xdata$x
xdata$x	SEGMENT
__catchsym$??1CGdiObject@@UAE@XZ$3 DD 00H
	DD	FLAT:??_R0PAVCException@@@8
	DD	0fffffde4H
	DD	FLAT:__catch$??1CGdiObject@@UAE@XZ$0
__tryblocktable$??1CGdiObject@@UAE@XZ DD 00H
	DD	00H
	DD	02H
	DD	01H
	DD	FLAT:__catchsym$??1CGdiObject@@UAE@XZ$3
__unwindtable$??1CGdiObject@@UAE@XZ DD 0ffffffffH
	DD	00H
	DD	0ffffffffH
	DD	00H
	DD	01H
	DD	FLAT:__unwindfunclet$??1CGdiObject@@UAE@XZ$2
__ehfuncinfo$??1CGdiObject@@UAE@XZ DD 019930522H
	DD	03H
	DD	FLAT:__unwindtable$??1CGdiObject@@UAE@XZ
	DD	01H
	DD	FLAT:__tryblocktable$??1CGdiObject@@UAE@XZ
	DD	2 DUP(00H)
	DD	00H
	DD	05H
xdata$x	ENDS
;	COMDAT xdata$x
xdata$x	SEGMENT
__unwindtable$??HATL@@YA?AV?$CStringT@DV?$StrTraitMFC_DLL@DV?$ChTraitsCRT@D@ATL@@@@@0@ABV10@PBD@Z DD 0ffffffffH
	DD	FLAT:__unwindfunclet$??HATL@@YA?AV?$CStringT@DV?$StrTraitMFC_DLL@DV?$ChTraitsCRT@D@ATL@@@@@0@ABV10@PBD@Z$0
__ehfuncinfo$??HATL@@YA?AV?$CStringT@DV?$StrTraitMFC_DLL@DV?$ChTraitsCRT@D@ATL@@@@@0@ABV10@PBD@Z DD 019930522H
	DD	01H
	DD	FLAT:__unwindtable$??HATL@@YA?AV?$CStringT@DV?$StrTraitMFC_DLL@DV?$ChTraitsCRT@D@ATL@@@@@0@ABV10@PBD@Z
	DD	2 DUP(00H)
	DD	2 DUP(00H)
	DD	00H
	DD	01H
xdata$x	ENDS
CRT$XCU	SEGMENT
?RMSG_FORMINITIALCOMPLETED$initializer$@@3P6AXXZA DD FLAT:??__ERMSG_FORMINITIALCOMPLETED@@YAXXZ ; RMSG_FORMINITIALCOMPLETED$initializer$
CRT$XCU	ENDS
CRT$XCU	SEGMENT
?RMSG_EVENT_CODEINPUT$initializer$@@3P6AXXZA DD FLAT:??__ERMSG_EVENT_CODEINPUT@@YAXXZ ; RMSG_EVENT_CODEINPUT$initializer$
CRT$XCU	ENDS
CRT$XCU	SEGMENT
?RMSG_EVENT_ACCTINPUT$initializer$@@3P6AXXZA DD FLAT:??__ERMSG_EVENT_ACCTINPUT@@YAXXZ ; RMSG_EVENT_ACCTINPUT$initializer$
CRT$XCU	ENDS
CRT$XCU	SEGMENT
?RMSG_EVENT_SPININPUT$initializer$@@3P6AXXZA DD FLAT:??__ERMSG_EVENT_SPININPUT@@YAXXZ ; RMSG_EVENT_SPININPUT$initializer$
CRT$XCU	ENDS
CRT$XCU	SEGMENT
?RMSG_EVENT_SIGNAL$initializer$@@3P6AXXZA DD FLAT:??__ERMSG_EVENT_SIGNAL@@YAXXZ ; RMSG_EVENT_SIGNAL$initializer$
CRT$XCU	ENDS
CRT$XCU	SEGMENT
?RMSG_FORMSTATECHANGE$initializer$@@3P6AXXZA DD FLAT:??__ERMSG_FORMSTATECHANGE@@YAXXZ ; RMSG_FORMSTATECHANGE$initializer$
CRT$XCU	ENDS
CRT$XCU	SEGMENT
?RMSG_TABSTOP$initializer$@@3P6AXXZA DD FLAT:??__ERMSG_TABSTOP@@YAXXZ ; RMSG_TABSTOP$initializer$
CRT$XCU	ENDS
CRT$XCU	SEGMENT
?RMSG_LBTNDBLCLICK$initializer$@@3P6AXXZA DD FLAT:??__ERMSG_LBTNDBLCLICK@@YAXXZ ; RMSG_LBTNDBLCLICK$initializer$
CRT$XCU	ENDS
CRT$XCU	SEGMENT
?RMSG_LBTNDOWN$initializer$@@3P6AXXZA DD FLAT:??__ERMSG_LBTNDOWN@@YAXXZ ; RMSG_LBTNDOWN$initializer$
CRT$XCU	ENDS
CRT$XCU	SEGMENT
?RMSG_ENDSCROLLPOS$initializer$@@3P6AXXZA DD FLAT:??__ERMSG_ENDSCROLLPOS@@YAXXZ ; RMSG_ENDSCROLLPOS$initializer$
CRT$XCU	ENDS
CRT$XCU	SEGMENT
?RMSG_LSHAREDCHANGED$initializer$@@3P6AXXZA DD FLAT:??__ERMSG_LSHAREDCHANGED@@YAXXZ ; RMSG_LSHAREDCHANGED$initializer$
CRT$XCU	ENDS
CRT$XCU	SEGMENT
?RMSG_GETDLLSIZE$initializer$@@3P6AXXZA DD FLAT:??__ERMSG_GETDLLSIZE@@YAXXZ ; RMSG_GETDLLSIZE$initializer$
CRT$XCU	ENDS
CRT$XCU	SEGMENT
?RMSG_SETDLLSIZE$initializer$@@3P6AXXZA DD FLAT:??__ERMSG_SETDLLSIZE@@YAXXZ ; RMSG_SETDLLSIZE$initializer$
CRT$XCU	ENDS
; Function compile flags: /Ogtp
; File D:\git\src\IBK\IBK_DRFN\ProjSrc\SrcDrfn\Chart\HWSTRATEGYCONFIGUREWIZARD\DlgStrategyConfigure.cpp
;	COMDAT ??__ERMSG_SETDLLSIZE@@YAXXZ
text$di	SEGMENT
??__ERMSG_SETDLLSIZE@@YAXXZ PROC			; `dynamic initializer for 'RMSG_SETDLLSIZE'', COMDAT

; 25   : const UINT RMSG_SETDLLSIZE = ::RegisterWindowMessage("RMSG_SETDLLSIZE");

  00000	68 00 00 00 00	 push	 OFFSET ??_C@_0BA@CKCOCACI@RMSG_SETDLLSIZE@
  00005	ff 15 00 00 00
	00		 call	 DWORD PTR __imp__RegisterWindowMessageA@4
  0000b	a3 00 00 00 00	 mov	 DWORD PTR ?RMSG_SETDLLSIZE@@3IB, eax
  00010	c3		 ret	 0
??__ERMSG_SETDLLSIZE@@YAXXZ ENDP			; `dynamic initializer for 'RMSG_SETDLLSIZE''
text$di	ENDS
; Function compile flags: /Ogtp
; File D:\git\src\IBK\IBK_DRFN\ProjSrc\SrcDrfn\Chart\HWSTRATEGYCONFIGUREWIZARD\DlgStrategyConfigure.cpp
;	COMDAT ??__ERMSG_GETDLLSIZE@@YAXXZ
text$di	SEGMENT
??__ERMSG_GETDLLSIZE@@YAXXZ PROC			; `dynamic initializer for 'RMSG_GETDLLSIZE'', COMDAT

; 24   : const UINT RMSG_GETDLLSIZE = ::RegisterWindowMessage("RMSG_GETDLLSIZE");

  00000	68 00 00 00 00	 push	 OFFSET ??_C@_0BA@DEABJHGB@RMSG_GETDLLSIZE@
  00005	ff 15 00 00 00
	00		 call	 DWORD PTR __imp__RegisterWindowMessageA@4
  0000b	a3 00 00 00 00	 mov	 DWORD PTR ?RMSG_GETDLLSIZE@@3IB, eax
  00010	c3		 ret	 0
??__ERMSG_GETDLLSIZE@@YAXXZ ENDP			; `dynamic initializer for 'RMSG_GETDLLSIZE''
text$di	ENDS
; Function compile flags: /Ogtp
; File C:\Program Files (x86)\Microsoft Visual Studio\2019\Community\VC\Tools\MSVC\14.29.30133\atlmfc\include\afx.inl
;	COMDAT ??_GCDlgStrategyConfigure@@UAEPAXI@Z
_TEXT	SEGMENT
___flags$ = 8						; size = 4
??_GCDlgStrategyConfigure@@UAEPAXI@Z PROC		; CDlgStrategyConfigure::`scalar deleting destructor', COMDAT
; _this$ = ecx
  00000	55		 push	 ebp
  00001	8b ec		 mov	 ebp, esp
  00003	56		 push	 esi
  00004	8b f1		 mov	 esi, ecx
  00006	8d 8e 80 1b 00
	00		 lea	 ecx, DWORD PTR [esi+7040]
  0000c	ff 15 00 00 00
	00		 call	 DWORD PTR __imp_??1?$CStringT@DV?$StrTraitMFC_DLL@DV?$ChTraitsCRT@D@ATL@@@@@ATL@@QAE@XZ
  00012	8d 8e 70 04 00
	00		 lea	 ecx, DWORD PTR [esi+1136]
  00018	e8 00 00 00 00	 call	 ??1CDlgStrategyList@@UAE@XZ
  0001d	8d 8e c8 00 00
	00		 lea	 ecx, DWORD PTR [esi+200]
  00023	e8 00 00 00 00	 call	 ??1COutLookBarDlg@@UAE@XZ ; COutLookBarDlg::~COutLookBarDlg
  00028	8d 8e b8 00 00
	00		 lea	 ecx, DWORD PTR [esi+184]
  0002e	ff 15 00 00 00
	00		 call	 DWORD PTR __imp_??1?$CStringT@DV?$StrTraitMFC_DLL@DV?$ChTraitsCRT@D@ATL@@@@@ATL@@QAE@XZ
  00034	8d 8e b4 00 00
	00		 lea	 ecx, DWORD PTR [esi+180]
  0003a	ff 15 00 00 00
	00		 call	 DWORD PTR __imp_??1?$CStringT@DV?$StrTraitMFC_DLL@DV?$ChTraitsCRT@D@ATL@@@@@ATL@@QAE@XZ
  00040	8d 8e b0 00 00
	00		 lea	 ecx, DWORD PTR [esi+176]
  00046	ff 15 00 00 00
	00		 call	 DWORD PTR __imp_??1?$CStringT@DV?$StrTraitMFC_DLL@DV?$ChTraitsCRT@D@ATL@@@@@ATL@@QAE@XZ
  0004c	8d 8e ac 00 00
	00		 lea	 ecx, DWORD PTR [esi+172]
  00052	ff 15 00 00 00
	00		 call	 DWORD PTR __imp_??1?$CStringT@DV?$StrTraitMFC_DLL@DV?$ChTraitsCRT@D@ATL@@@@@ATL@@QAE@XZ
  00058	8d 8e a8 00 00
	00		 lea	 ecx, DWORD PTR [esi+168]
  0005e	ff 15 00 00 00
	00		 call	 DWORD PTR __imp_??1?$CStringT@DV?$StrTraitMFC_DLL@DV?$ChTraitsCRT@D@ATL@@@@@ATL@@QAE@XZ
  00064	8b ce		 mov	 ecx, esi
  00066	e8 00 00 00 00	 call	 ??1CDialog@@UAE@XZ	; CDialog::~CDialog
  0006b	8b 45 08	 mov	 eax, DWORD PTR ___flags$[ebp]
  0006e	a8 01		 test	 al, 1
  00070	74 22		 je	 SHORT $LN12@scalar
  00072	a8 04		 test	 al, 4
  00074	75 10		 jne	 SHORT $LN3@scalar

; 112  : 	{ ::operator delete(p); }

  00076	56		 push	 esi
  00077	e8 00 00 00 00	 call	 ??3@YAXPAX@Z		; operator delete
  0007c	83 c4 04	 add	 esp, 4
  0007f	8b c6		 mov	 eax, esi
  00081	5e		 pop	 esi
  00082	5d		 pop	 ebp
  00083	c2 04 00	 ret	 4
$LN3@scalar:
  00086	68 90 1b 00 00	 push	 7056			; 00001b90H
  0008b	56		 push	 esi
  0008c	e8 00 00 00 00	 call	 ?__global_delete@@YAXPAXI@Z ; __global_delete
  00091	83 c4 08	 add	 esp, 8
$LN12@scalar:
  00094	8b c6		 mov	 eax, esi
  00096	5e		 pop	 esi
  00097	5d		 pop	 ebp
  00098	c2 04 00	 ret	 4
??_GCDlgStrategyConfigure@@UAEPAXI@Z ENDP		; CDlgStrategyConfigure::`scalar deleting destructor'
_TEXT	ENDS
; Function compile flags: /Ogtp
; File D:\git\src\IBK\IBK_DRFN\ProjSrc\SrcDrfn\Chart\HWSTRATEGYCONFIGUREWIZARD\DlgStrategyConfigure.cpp
;	COMDAT ?GetMessageMap@CDlgStrategyConfigure@@MBEPBUAFX_MSGMAP@@XZ
_TEXT	SEGMENT
?GetMessageMap@CDlgStrategyConfigure@@MBEPBUAFX_MSGMAP@@XZ PROC ; CDlgStrategyConfigure::GetMessageMap, COMDAT
; _this$ = ecx

; 55   : BEGIN_MESSAGE_MAP(CDlgStrategyConfigure, CDialog)

  00000	b8 00 00 00 00	 mov	 eax, OFFSET ?messageMap@?1??GetThisMessageMap@CDlgStrategyConfigure@@KGPBUAFX_MSGMAP@@XZ@4U3@B
  00005	c3		 ret	 0
?GetMessageMap@CDlgStrategyConfigure@@MBEPBUAFX_MSGMAP@@XZ ENDP ; CDlgStrategyConfigure::GetMessageMap
_TEXT	ENDS
; Function compile flags: /Ogtp
; File D:\git\src\IBK\IBK_DRFN\ProjSrc\SrcDrfn\Chart\HWSTRATEGYCONFIGUREWIZARD\DlgStrategyConfigure.cpp
;	COMDAT ?GetThisMessageMap@CDlgStrategyConfigure@@KGPBUAFX_MSGMAP@@XZ
_TEXT	SEGMENT
?GetThisMessageMap@CDlgStrategyConfigure@@KGPBUAFX_MSGMAP@@XZ PROC ; CDlgStrategyConfigure::GetThisMessageMap, COMDAT

; 56   : 	//{{AFX_MSG_MAP(CDlgStrategyConfigure)
; 57   : 	ON_WM_SIZE()
; 58   : 	ON_WM_DESTROY()
; 59   : 	//}}AFX_MSG_MAP
; 60   : 	ON_REGISTERED_MESSAGE(RMSG_GETDLLSIZE, OnGetDllSize)
; 61   : END_MESSAGE_MAP()

  00000	b8 00 00 00 00	 mov	 eax, OFFSET ?messageMap@?1??GetThisMessageMap@CDlgStrategyConfigure@@KGPBUAFX_MSGMAP@@XZ@4U3@B
  00005	c3		 ret	 0
?GetThisMessageMap@CDlgStrategyConfigure@@KGPBUAFX_MSGMAP@@XZ ENDP ; CDlgStrategyConfigure::GetThisMessageMap
_TEXT	ENDS
; Function compile flags: /Ogtp
; File D:\git\src\IBK\IBK_DRFN\ProjSrc\SrcDrfn\Chart\HWSTRATEGYCONFIGUREWIZARD\DlgStrategyConfigure.cpp
; File C:\Program Files (x86)\Microsoft Visual Studio\2019\Community\VC\Tools\MSVC\14.29.30133\atlmfc\include\cstringt.h
; File D:\git\src\IBK\IBK_DRFN\ProjSrc\SrcDrfn\Chart\HWSTRATEGYCONFIGUREWIZARD\DlgStrategyConfigure.cpp
; File C:\Program Files (x86)\Microsoft Visual Studio\2019\Community\VC\Tools\MSVC\14.29.30133\atlmfc\include\cstringt.h
; File D:\git\src\IBK\IBK_DRFN\ProjSrc\SrcDrfn\Chart\HWSTRATEGYCONFIGUREWIZARD\DlgStrategyConfigure.cpp
;	COMDAT ?DataMonitorCallbackProc@CDlgStrategyConfigure@@KGXPBDJJJJ@Z
_TEXT	SEGMENT
_strKey$ = -16						; size = 4
__$EHRec$ = -12						; size = 12
$T2 = 8							; size = 4
_szKey$ = 8						; size = 4
_pThisPoint$ = 12					; size = 4
_dwKey$ = 16						; size = 4
_dwSubKey$ = 20						; size = 4
_dwNotifyData$ = 24					; size = 4
?DataMonitorCallbackProc@CDlgStrategyConfigure@@KGXPBDJJJJ@Z PROC ; CDlgStrategyConfigure::DataMonitorCallbackProc, COMDAT

; 74   : {

  00000	55		 push	 ebp
  00001	8b ec		 mov	 ebp, esp
  00003	6a ff		 push	 -1
  00005	68 00 00 00 00	 push	 __ehhandler$?DataMonitorCallbackProc@CDlgStrategyConfigure@@KGXPBDJJJJ@Z
  0000a	64 a1 00 00 00
	00		 mov	 eax, DWORD PTR fs:0
  00010	50		 push	 eax
  00011	51		 push	 ecx
  00012	a1 00 00 00 00	 mov	 eax, DWORD PTR ___security_cookie
  00017	33 c5		 xor	 eax, ebp
  00019	50		 push	 eax
  0001a	8d 45 f4	 lea	 eax, DWORD PTR __$EHRec$[ebp]
  0001d	64 a3 00 00 00
	00		 mov	 DWORD PTR fs:0, eax

; 76   : 	CString strKey = szKey;

  00023	ff 75 08	 push	 DWORD PTR _szKey$[ebp]
  00026	8d 4d f0	 lea	 ecx, DWORD PTR _strKey$[ebp]
  00029	ff 15 00 00 00
	00		 call	 DWORD PTR __imp_??0?$CStringT@DV?$StrTraitMFC_DLL@DV?$ChTraitsCRT@D@ATL@@@@@ATL@@QAE@PBD@Z
; File C:\Program Files (x86)\Microsoft Visual Studio\2019\Community\VC\Tools\MSVC\14.29.30133\atlmfc\include\cstringt.h

; 2486 : 		return(str1.Compare(psz2) == 0);

  0002f	68 00 00 00 00	 push	 OFFSET ??_C@_0BA@PIGBAOMG@STLIST_MODIFIED@
  00034	8d 4d f0	 lea	 ecx, DWORD PTR _strKey$[ebp]
; File D:\git\src\IBK\IBK_DRFN\ProjSrc\SrcDrfn\Chart\HWSTRATEGYCONFIGUREWIZARD\DlgStrategyConfigure.cpp

; 76   : 	CString strKey = szKey;

  00037	c7 45 fc 00 00
	00 00		 mov	 DWORD PTR __$EHRec$[ebp+8], 0
; File C:\Program Files (x86)\Microsoft Visual Studio\2019\Community\VC\Tools\MSVC\14.29.30133\atlmfc\include\cstringt.h

; 2486 : 		return(str1.Compare(psz2) == 0);

  0003e	ff 15 00 00 00
	00		 call	 DWORD PTR __imp_?Compare@?$CStringT@DV?$StrTraitMFC_DLL@DV?$ChTraitsCRT@D@ATL@@@@@ATL@@QBEHPBD@Z
  00044	85 c0		 test	 eax, eax
; File D:\git\src\IBK\IBK_DRFN\ProjSrc\SrcDrfn\Chart\HWSTRATEGYCONFIGUREWIZARD\DlgStrategyConfigure.cpp

; 78   : 	if(strKey == "STLIST_MODIFIED") 

  00046	75 37		 jne	 SHORT $LN2@DataMonito

; 79   : 	{
; 80   : 		LPCSTR szSTName = (LPCSTR)dwNotifyData;
; 81   : 		pThis->UpdateSTList(dwSubKey, szSTName);

  00048	ff 75 18	 push	 DWORD PTR _dwNotifyData$[ebp]
  0004b	8d 4d 08	 lea	 ecx, DWORD PTR $T2[ebp]
  0004e	ff 15 00 00 00
	00		 call	 DWORD PTR __imp_??0?$CStringT@DV?$StrTraitMFC_DLL@DV?$ChTraitsCRT@D@ATL@@@@@ATL@@QAE@PBD@Z

; 248  : 	m_dlgOutLookBar.UpdateSTList(nState, szSTPath);

  00054	51		 push	 ecx
  00055	8d 45 08	 lea	 eax, DWORD PTR $T2[ebp]
  00058	c6 45 fc 01	 mov	 BYTE PTR __$EHRec$[ebp+8], 1
  0005c	8b cc		 mov	 ecx, esp
  0005e	50		 push	 eax
  0005f	ff 15 00 00 00
	00		 call	 DWORD PTR __imp_??0?$CStringT@DV?$StrTraitMFC_DLL@DV?$ChTraitsCRT@D@ATL@@@@@ATL@@QAE@ABV01@@Z
  00065	8b 4d 0c	 mov	 ecx, DWORD PTR _pThisPoint$[ebp]
  00068	ff 75 14	 push	 DWORD PTR _dwSubKey$[ebp]
  0006b	8d 89 c8 00 00
	00		 lea	 ecx, DWORD PTR [ecx+200]
  00071	e8 00 00 00 00	 call	 ?UpdateSTList@COutLookBarDlg@@QAEXHV?$CStringT@DV?$StrTraitMFC_DLL@DV?$ChTraitsCRT@D@ATL@@@@@ATL@@@Z ; COutLookBarDlg::UpdateSTList

; 249  : }

  00076	8d 4d 08	 lea	 ecx, DWORD PTR $T2[ebp]
  00079	ff 15 00 00 00
	00		 call	 DWORD PTR __imp_??1?$CStringT@DV?$StrTraitMFC_DLL@DV?$ChTraitsCRT@D@ATL@@@@@ATL@@QAE@XZ
$LN2@DataMonito:

; 82   : 	}
; 83   : }

  0007f	8d 4d f0	 lea	 ecx, DWORD PTR _strKey$[ebp]
  00082	ff 15 00 00 00
	00		 call	 DWORD PTR __imp_??1?$CStringT@DV?$StrTraitMFC_DLL@DV?$ChTraitsCRT@D@ATL@@@@@ATL@@QAE@XZ
  00088	8b 4d f4	 mov	 ecx, DWORD PTR __$EHRec$[ebp]
  0008b	64 89 0d 00 00
	00 00		 mov	 DWORD PTR fs:0, ecx
  00092	59		 pop	 ecx
  00093	8b e5		 mov	 esp, ebp
  00095	5d		 pop	 ebp
  00096	c2 14 00	 ret	 20			; 00000014H
_TEXT	ENDS
;	COMDAT text$x
text$x	SEGMENT
__unwindfunclet$?DataMonitorCallbackProc@CDlgStrategyConfigure@@KGXPBDJJJJ@Z$0:
  00000	8d 4d f0	 lea	 ecx, DWORD PTR _strKey$[ebp]
  00003	ff 25 00 00 00
	00		 jmp	 DWORD PTR __imp_??1?$CStringT@DV?$StrTraitMFC_DLL@DV?$ChTraitsCRT@D@ATL@@@@@ATL@@QAE@XZ
__unwindfunclet$?DataMonitorCallbackProc@CDlgStrategyConfigure@@KGXPBDJJJJ@Z$2:
  00009	8d 4d 08	 lea	 ecx, DWORD PTR $T2[ebp]
  0000c	ff 25 00 00 00
	00		 jmp	 DWORD PTR __imp_??1?$CStringT@DV?$StrTraitMFC_DLL@DV?$ChTraitsCRT@D@ATL@@@@@ATL@@QAE@XZ
  00012	cc		 int	 3
  00013	cc		 int	 3
  00014	cc		 int	 3
  00015	cc		 int	 3
  00016	cc		 int	 3
__ehhandler$?DataMonitorCallbackProc@CDlgStrategyConfigure@@KGXPBDJJJJ@Z:
  00017	90		 npad	 1
  00018	90		 npad	 1
  00019	8b 54 24 08	 mov	 edx, DWORD PTR [esp+8]
  0001d	8d 42 0c	 lea	 eax, DWORD PTR [edx+12]
  00020	8b 4a f8	 mov	 ecx, DWORD PTR [edx-8]
  00023	33 c8		 xor	 ecx, eax
  00025	e8 00 00 00 00	 call	 @__security_check_cookie@4
  0002a	b8 00 00 00 00	 mov	 eax, OFFSET __ehfuncinfo$?DataMonitorCallbackProc@CDlgStrategyConfigure@@KGXPBDJJJJ@Z
  0002f	e9 00 00 00 00	 jmp	 ___CxxFrameHandler3
text$x	ENDS
?DataMonitorCallbackProc@CDlgStrategyConfigure@@KGXPBDJJJJ@Z ENDP ; CDlgStrategyConfigure::DataMonitorCallbackProc
; Function compile flags: /Ogtp
; File D:\git\src\IBK\IBK_DRFN\ProjSrc\SrcDrfn\Chart\HWSTRATEGYCONFIGUREWIZARD\DlgStrategyConfigure.cpp
; File D:\git\src\IBK\IBK_DRFN\ProjSrc\SrcDrfn\inc\IBaseDefine.h
; File D:\git\src\IBK\IBK_DRFN\ProjSrc\SrcDrfn\Chart\HWSTRATEGYCONFIGUREWIZARD\DlgStrategyConfigure.cpp
;	COMDAT ?InitLoad@CDlgStrategyConfigure@@IAEXXZ
_TEXT	SEGMENT
_szKey$ = -40						; size = 4
_hMainWnd$2 = -36					; size = 4
_szClipFormat$3 = -32					; size = 4
_aBufWnd$4 = -28					; size = 9
__$ArrayPad$ = -16					; size = 4
__$EHRec$ = -12						; size = 12
?InitLoad@CDlgStrategyConfigure@@IAEXXZ PROC		; CDlgStrategyConfigure::InitLoad, COMDAT
; _this$ = ecx

; 86   : {

  00000	55		 push	 ebp
  00001	8b ec		 mov	 ebp, esp
  00003	6a ff		 push	 -1
  00005	68 00 00 00 00	 push	 __ehhandler$?InitLoad@CDlgStrategyConfigure@@IAEXXZ
  0000a	64 a1 00 00 00
	00		 mov	 eax, DWORD PTR fs:0
  00010	50		 push	 eax
  00011	83 ec 1c	 sub	 esp, 28			; 0000001cH
  00014	a1 00 00 00 00	 mov	 eax, DWORD PTR ___security_cookie
  00019	33 c5		 xor	 eax, ebp
  0001b	89 45 f0	 mov	 DWORD PTR __$ArrayPad$[ebp], eax
  0001e	56		 push	 esi
  0001f	50		 push	 eax
  00020	8d 45 f4	 lea	 eax, DWORD PTR __$EHRec$[ebp]
  00023	64 a3 00 00 00
	00		 mov	 DWORD PTR fs:0, eax
  00029	8b f1		 mov	 esi, ecx
  0002b	0f 57 c0	 xorps	 xmm0, xmm0
; File D:\git\src\IBK\IBK_DRFN\ProjSrc\SrcDrfn\inc\IBaseDefine.h

; 262  : 	AfxGetHanaroMainWnd(hMainWnd);

  0002e	c7 45 dc 00 00
	00 00		 mov	 DWORD PTR _hMainWnd$2[ebp], 0
  00035	8d 4d e0	 lea	 ecx, DWORD PTR _szClipFormat$3[ebp]
  00038	66 0f d6 45 e4	 movq	 QWORD PTR _aBufWnd$4[ebp], xmm0
  0003d	c6 45 ec 00	 mov	 BYTE PTR _aBufWnd$4[ebp+8], 0
  00041	ff 15 00 00 00
	00		 call	 DWORD PTR __imp_??0?$CStringT@DV?$StrTraitMFC_DLL@DV?$ChTraitsCRT@D@ATL@@@@@ATL@@QAE@XZ
  00047	68 00 00 00 00	 push	 OFFSET ??_C@_0M@CBBNGGHM@PcTrMng?4dll@
  0004c	c7 45 fc 00 00
	00 00		 mov	 DWORD PTR __$EHRec$[ebp+8], 0
  00053	ff 15 00 00 00
	00		 call	 DWORD PTR __imp__GetModuleHandleA@4
  00059	50		 push	 eax
  0005a	68 00 00 00 00	 push	 OFFSET ??_C@_0P@IDMAJEGN@HANAROPCTRMAIN@
  0005f	8d 45 e0	 lea	 eax, DWORD PTR _szClipFormat$3[ebp]
  00062	68 00 00 00 00	 push	 OFFSET ??_C@_06NDLAHCHE@?$CFs?$CF08X@
  00067	50		 push	 eax
  00068	ff 15 00 00 00
	00		 call	 DWORD PTR __imp_?Format@?$CStringT@DV?$StrTraitMFC_DLL@DV?$ChTraitsCRT@D@ATL@@@@@ATL@@QAAXPBDZZ
  0006e	83 c4 10	 add	 esp, 16			; 00000010H
  00071	8d 45 e4	 lea	 eax, DWORD PTR _aBufWnd$4[ebp]
  00074	6a 09		 push	 9
  00076	50		 push	 eax
  00077	ff 75 e0	 push	 DWORD PTR _szClipFormat$3[ebp]
  0007a	ff 15 00 00 00
	00		 call	 DWORD PTR __imp__GetEnvironmentVariableA@12
  00080	8d 45 dc	 lea	 eax, DWORD PTR _hMainWnd$2[ebp]
  00083	50		 push	 eax
  00084	8d 45 e4	 lea	 eax, DWORD PTR _aBufWnd$4[ebp]
  00087	68 00 00 00 00	 push	 OFFSET ??_C@_02EMFKHFLK@?$CFX@
  0008c	50		 push	 eax
  0008d	e8 00 00 00 00	 call	 _sscanf
  00092	83 c4 0c	 add	 esp, 12			; 0000000cH
  00095	c7 45 fc ff ff
	ff ff		 mov	 DWORD PTR __$EHRec$[ebp+8], -1
  0009c	8d 4d e0	 lea	 ecx, DWORD PTR _szClipFormat$3[ebp]
  0009f	ff 15 00 00 00
	00		 call	 DWORD PTR __imp_??1?$CStringT@DV?$StrTraitMFC_DLL@DV?$ChTraitsCRT@D@ATL@@@@@ATL@@QAE@XZ

; 263  : 
; 264  : 	return ::SendMessage(hMainWnd, RMSG_INTERFACE, (WPARAM)nID, 0);

  000a5	6a 00		 push	 0
  000a7	6a 1c		 push	 28			; 0000001cH
  000a9	ff 35 00 00 00
	00		 push	 DWORD PTR ?RMSG_INTERFACE@@3IB
  000af	ff 75 dc	 push	 DWORD PTR _hMainWnd$2[ebp]
  000b2	ff 15 00 00 00
	00		 call	 DWORD PTR __imp__SendMessageA@16
; File D:\git\src\IBK\IBK_DRFN\ProjSrc\SrcDrfn\Chart\HWSTRATEGYCONFIGUREWIZARD\DlgStrategyConfigure.cpp

; 89   : 	CString szKey = "STLIST_MODIFIED"; 

  000b8	68 00 00 00 00	 push	 OFFSET ??_C@_0BA@PIGBAOMG@STLIST_MODIFIED@
  000bd	8d 4d d8	 lea	 ecx, DWORD PTR _szKey$[ebp]
  000c0	89 86 84 1b 00
	00		 mov	 DWORD PTR [esi+7044], eax
  000c6	ff 15 00 00 00
	00		 call	 DWORD PTR __imp_??0?$CStringT@DV?$StrTraitMFC_DLL@DV?$ChTraitsCRT@D@ATL@@@@@ATL@@QAE@PBD@Z

; 90   : 	m_dwIAUDataMonitorManager = m_pIAUDataMonitorManager->Advise(szKey, (long)this, (long)NULL, DataMonitorCallbackProc);

  000cc	8b 86 84 1b 00
	00		 mov	 eax, DWORD PTR [esi+7044]
  000d2	68 00 00 00 00	 push	 OFFSET ?DataMonitorCallbackProc@CDlgStrategyConfigure@@KGXPBDJJJJ@Z ; CDlgStrategyConfigure::DataMonitorCallbackProc
  000d7	6a 00		 push	 0
  000d9	56		 push	 esi
  000da	ff 75 d8	 push	 DWORD PTR _szKey$[ebp]
  000dd	8b 08		 mov	 ecx, DWORD PTR [eax]
  000df	50		 push	 eax
  000e0	c7 45 fc 01 00
	00 00		 mov	 DWORD PTR __$EHRec$[ebp+8], 1
  000e7	ff 11		 call	 DWORD PTR [ecx]

; 91   : }

  000e9	8d 4d d8	 lea	 ecx, DWORD PTR _szKey$[ebp]
  000ec	89 86 88 1b 00
	00		 mov	 DWORD PTR [esi+7048], eax
  000f2	ff 15 00 00 00
	00		 call	 DWORD PTR __imp_??1?$CStringT@DV?$StrTraitMFC_DLL@DV?$ChTraitsCRT@D@ATL@@@@@ATL@@QAE@XZ
  000f8	8b 4d f4	 mov	 ecx, DWORD PTR __$EHRec$[ebp]
  000fb	64 89 0d 00 00
	00 00		 mov	 DWORD PTR fs:0, ecx
  00102	59		 pop	 ecx
  00103	5e		 pop	 esi
  00104	8b 4d f0	 mov	 ecx, DWORD PTR __$ArrayPad$[ebp]
  00107	33 cd		 xor	 ecx, ebp
  00109	e8 00 00 00 00	 call	 @__security_check_cookie@4
  0010e	8b e5		 mov	 esp, ebp
  00110	5d		 pop	 ebp
  00111	c3		 ret	 0
_TEXT	ENDS
;	COMDAT text$x
text$x	SEGMENT
__unwindfunclet$?InitLoad@CDlgStrategyConfigure@@IAEXXZ$1:
  00000	8d 4d e0	 lea	 ecx, DWORD PTR _szClipFormat$3[ebp]
  00003	ff 25 00 00 00
	00		 jmp	 DWORD PTR __imp_??1?$CStringT@DV?$StrTraitMFC_DLL@DV?$ChTraitsCRT@D@ATL@@@@@ATL@@QAE@XZ
__unwindfunclet$?InitLoad@CDlgStrategyConfigure@@IAEXXZ$0:
  00009	8d 4d d8	 lea	 ecx, DWORD PTR _szKey$[ebp]
  0000c	ff 25 00 00 00
	00		 jmp	 DWORD PTR __imp_??1?$CStringT@DV?$StrTraitMFC_DLL@DV?$ChTraitsCRT@D@ATL@@@@@ATL@@QAE@XZ
  00012	cc		 int	 3
  00013	cc		 int	 3
  00014	cc		 int	 3
  00015	cc		 int	 3
  00016	cc		 int	 3
__ehhandler$?InitLoad@CDlgStrategyConfigure@@IAEXXZ:
  00017	90		 npad	 1
  00018	90		 npad	 1
  00019	8b 54 24 08	 mov	 edx, DWORD PTR [esp+8]
  0001d	8d 42 0c	 lea	 eax, DWORD PTR [edx+12]
  00020	8b 4a dc	 mov	 ecx, DWORD PTR [edx-36]
  00023	33 c8		 xor	 ecx, eax
  00025	e8 00 00 00 00	 call	 @__security_check_cookie@4
  0002a	8b 4a fc	 mov	 ecx, DWORD PTR [edx-4]
  0002d	33 c8		 xor	 ecx, eax
  0002f	e8 00 00 00 00	 call	 @__security_check_cookie@4
  00034	b8 00 00 00 00	 mov	 eax, OFFSET __ehfuncinfo$?InitLoad@CDlgStrategyConfigure@@IAEXXZ
  00039	e9 00 00 00 00	 jmp	 ___CxxFrameHandler3
text$x	ENDS
?InitLoad@CDlgStrategyConfigure@@IAEXXZ ENDP		; CDlgStrategyConfigure::InitLoad
; Function compile flags: /Ogtp
; File D:\git\src\IBK\IBK_DRFN\ProjSrc\SrcDrfn\Chart\HWSTRATEGYCONFIGUREWIZARD\DlgStrategyConfigure.cpp
;	COMDAT ?OnGetDllSize@CDlgStrategyConfigure@@IAEJIJ@Z
_TEXT	SEGMENT
_wParam$ = 8						; size = 4
_lParam$ = 12						; size = 4
?OnGetDllSize@CDlgStrategyConfigure@@IAEJIJ@Z PROC	; CDlgStrategyConfigure::OnGetDllSize, COMDAT
; _this$ = ecx

; 394  : {

  00000	55		 push	 ebp
  00001	8b ec		 mov	 ebp, esp

; 395  : 	CPoint* pSize = (CPoint*)wParam;
; 396  : 	pSize->x = 890;

  00003	8b 45 08	 mov	 eax, DWORD PTR _wParam$[ebp]
  00006	c7 00 7a 03 00
	00		 mov	 DWORD PTR [eax], 890	; 0000037aH

; 397  : 	pSize->y = 384;

  0000c	c7 40 04 80 01
	00 00		 mov	 DWORD PTR [eax+4], 384	; 00000180H

; 398  : 
; 399  : 	return 0L;

  00013	33 c0		 xor	 eax, eax

; 400  : }

  00015	5d		 pop	 ebp
  00016	c2 08 00	 ret	 8
?OnGetDllSize@CDlgStrategyConfigure@@IAEJIJ@Z ENDP	; CDlgStrategyConfigure::OnGetDllSize
_TEXT	ENDS
; Function compile flags: /Ogtp
; File D:\git\src\IBK\IBK_DRFN\ProjSrc\SrcDrfn\Chart\HWSTRATEGYCONFIGUREWIZARD\DlgStrategyConfigure.cpp
;	COMDAT ?OnDestroy@CDlgStrategyConfigure@@IAEXXZ
_TEXT	SEGMENT
?OnDestroy@CDlgStrategyConfigure@@IAEXXZ PROC		; CDlgStrategyConfigure::OnDestroy, COMDAT
; _this$ = ecx

; 236  : {

  00000	56		 push	 esi
  00001	8b f1		 mov	 esi, ecx

; 237  : 	CDialog::OnDestroy();

  00003	e8 00 00 00 00	 call	 ?OnDestroy@CWnd@@IAEXXZ	; CWnd::OnDestroy

; 238  : 	
; 239  : 	if(m_dwIAUDataMonitorManager)

  00008	8b 8e 88 1b 00
	00		 mov	 ecx, DWORD PTR [esi+7048]
  0000e	85 c9		 test	 ecx, ecx
  00010	74 0d		 je	 SHORT $LN2@OnDestroy

; 240  : 		m_pIAUDataMonitorManager->UnAdvise(m_dwIAUDataMonitorManager);

  00012	8b 86 84 1b 00
	00		 mov	 eax, DWORD PTR [esi+7044]
  00018	51		 push	 ecx
  00019	50		 push	 eax
  0001a	8b 10		 mov	 edx, DWORD PTR [eax]
  0001c	ff 52 04	 call	 DWORD PTR [edx+4]
$LN2@OnDestroy:

; 241  : 
; 242  : 	m_dlgOutLookBar.DestroyWindow();

  0001f	8b 86 c8 00 00
	00		 mov	 eax, DWORD PTR [esi+200]
  00025	8d 8e c8 00 00
	00		 lea	 ecx, DWORD PTR [esi+200]
  0002b	ff 50 68	 call	 DWORD PTR [eax+104]

; 243  : 	m_dlgStrategyList.DestroyWindow();

  0002e	8b 86 70 04 00
	00		 mov	 eax, DWORD PTR [esi+1136]
  00034	8d 8e 70 04 00
	00		 lea	 ecx, DWORD PTR [esi+1136]
  0003a	5e		 pop	 esi
  0003b	ff 60 68	 jmp	 DWORD PTR [eax+104]
?OnDestroy@CDlgStrategyConfigure@@IAEXXZ ENDP		; CDlgStrategyConfigure::OnDestroy
_TEXT	ENDS
; Function compile flags: /Ogtp
; File D:\git\src\IBK\IBK_DRFN\ProjSrc\SrcDrfn\Chart\HWSTRATEGYCONFIGUREWIZARD\DlgStrategyConfigure.cpp
; File C:\Program Files (x86)\Microsoft Visual Studio\2019\Community\VC\Tools\MSVC\14.29.30133\atlmfc\include\afxwin2.inl
; File D:\git\src\IBK\IBK_DRFN\ProjSrc\SrcDrfn\Chart\HWSTRATEGYCONFIGUREWIZARD\DlgStrategyConfigure.cpp
;	COMDAT ?OnSize@CDlgStrategyConfigure@@IAEXIHH@Z
_TEXT	SEGMENT
_nType$ = 8						; size = 4
_cx$ = 12						; size = 4
_cy$ = 16						; size = 4
?OnSize@CDlgStrategyConfigure@@IAEXIHH@Z PROC		; CDlgStrategyConfigure::OnSize, COMDAT
; _this$ = ecx

; 206  : {

  00000	55		 push	 ebp
  00001	8b ec		 mov	 ebp, esp
  00003	56		 push	 esi
  00004	8b f1		 mov	 esi, ecx
; File C:\Program Files (x86)\Microsoft Visual Studio\2019\Community\VC\Tools\MSVC\14.29.30133\atlmfc\include\afxwin2.inl

; 330  : 	{ Default(); }

  00006	e8 00 00 00 00	 call	 ?Default@CWnd@@IAEJXZ	; CWnd::Default
; File D:\git\src\IBK\IBK_DRFN\ProjSrc\SrcDrfn\Chart\HWSTRATEGYCONFIGUREWIZARD\DlgStrategyConfigure.cpp

; 208  : 	Resize(cx, cy);

  0000b	ff 75 10	 push	 DWORD PTR _cy$[ebp]
  0000e	8b ce		 mov	 ecx, esi
  00010	ff 75 0c	 push	 DWORD PTR _cx$[ebp]
  00013	e8 00 00 00 00	 call	 ?Resize@CDlgStrategyConfigure@@IAEXHH@Z ; CDlgStrategyConfigure::Resize
  00018	5e		 pop	 esi

; 209  : }

  00019	5d		 pop	 ebp
  0001a	c2 0c 00	 ret	 12			; 0000000cH
?OnSize@CDlgStrategyConfigure@@IAEXIHH@Z ENDP		; CDlgStrategyConfigure::OnSize
_TEXT	ENDS
; Function compile flags: /Ogtp
; File D:\git\src\IBK\IBK_DRFN\ProjSrc\SrcDrfn\Chart\HWSTRATEGYCONFIGUREWIZARD\DlgStrategyConfigure.cpp
; File D:\git\src\IBK\IBK_DRFN\ProjSrc\SrcDrfn\inc\IBaseDefine.h
; File D:\git\src\IBK\IBK_DRFN\ProjSrc\SrcDrfn\Chart\HWSTRATEGYCONFIGUREWIZARD\DlgStrategyConfigure.cpp
; File C:\Program Files (x86)\Microsoft Visual Studio\2019\Community\VC\Tools\MSVC\14.29.30133\atlmfc\include\afxwin2.inl
; File C:\Program Files (x86)\Microsoft Visual Studio\2019\Community\VC\Tools\MSVC\14.29.30133\atlmfc\include\atltypes.h
; File C:\Program Files (x86)\Microsoft Visual Studio\2019\Community\VC\Tools\MSVC\14.29.30133\atlmfc\include\afxwin2.inl
; File D:\git\src\IBK\IBK_DRFN\ProjSrc\SrcDrfn\Chart\HWSTRATEGYCONFIGUREWIZARD\DlgStrategyConfigure.cpp
; File C:\Program Files (x86)\Microsoft Visual Studio\2019\Community\VC\Tools\MSVC\14.29.30133\atlmfc\include\afxwin2.inl
; File D:\git\src\IBK\IBK_DRFN\ProjSrc\SrcDrfn\Chart\HWSTRATEGYCONFIGUREWIZARD\DlgStrategyConfigure.cpp
; File C:\Program Files (x86)\Microsoft Visual Studio\2019\Community\VC\Tools\MSVC\14.29.30133\atlmfc\include\afxwin2.inl
; File D:\git\src\IBK\IBK_DRFN\ProjSrc\SrcDrfn\Chart\HWSTRATEGYCONFIGUREWIZARD\DlgStrategyConfigure.cpp
; File C:\Program Files (x86)\Microsoft Visual Studio\2019\Community\VC\Tools\MSVC\14.29.30133\atlmfc\include\afxwin2.inl
; File D:\git\src\IBK\IBK_DRFN\ProjSrc\SrcDrfn\Chart\HWSTRATEGYCONFIGUREWIZARD\DlgStrategyConfigure.cpp
; File C:\Program Files (x86)\Microsoft Visual Studio\2019\Community\VC\Tools\MSVC\14.29.30133\atlmfc\include\afxwin2.inl
; File D:\git\src\IBK\IBK_DRFN\ProjSrc\SrcDrfn\Chart\HWSTRATEGYCONFIGUREWIZARD\DlgStrategyConfigure.cpp
;	COMDAT ?OnInitDialog@CDlgStrategyConfigure@@MAEHXZ
_TEXT	SEGMENT
_dataItem$2 = -56					; size = 8
_szKey$3 = -48						; size = 4
_hMainWnd$4 = -44					; size = 4
_szClipFormat$5 = -40					; size = 4
_szFolderPath$6 = -36					; size = 4
$T7 = -32						; size = 16
_aBufWnd$8 = -28					; size = 9
__$ArrayPad$ = -16					; size = 4
__$EHRec$ = -12						; size = 12
?OnInitDialog@CDlgStrategyConfigure@@MAEHXZ PROC	; CDlgStrategyConfigure::OnInitDialog, COMDAT
; _this$ = ecx

; 94   : {

  00000	55		 push	 ebp
  00001	8b ec		 mov	 ebp, esp
  00003	6a ff		 push	 -1
  00005	68 00 00 00 00	 push	 __ehhandler$?OnInitDialog@CDlgStrategyConfigure@@MAEHXZ
  0000a	64 a1 00 00 00
	00		 mov	 eax, DWORD PTR fs:0
  00010	50		 push	 eax
  00011	83 ec 2c	 sub	 esp, 44			; 0000002cH
  00014	a1 00 00 00 00	 mov	 eax, DWORD PTR ___security_cookie
  00019	33 c5		 xor	 eax, ebp
  0001b	89 45 f0	 mov	 DWORD PTR __$ArrayPad$[ebp], eax
  0001e	53		 push	 ebx
  0001f	56		 push	 esi
  00020	57		 push	 edi
  00021	50		 push	 eax
  00022	8d 45 f4	 lea	 eax, DWORD PTR __$EHRec$[ebp]
  00025	64 a3 00 00 00
	00		 mov	 DWORD PTR fs:0, eax
  0002b	8b f1		 mov	 esi, ecx

; 95   : 	CDialog::OnInitDialog();

  0002d	e8 00 00 00 00	 call	 ?OnInitDialog@CDialog@@UAEHXZ ; CDialog::OnInitDialog
  00032	0f 57 c0	 xorps	 xmm0, xmm0
; File D:\git\src\IBK\IBK_DRFN\ProjSrc\SrcDrfn\inc\IBaseDefine.h

; 262  : 	AfxGetHanaroMainWnd(hMainWnd);

  00035	c7 45 d4 00 00
	00 00		 mov	 DWORD PTR _hMainWnd$4[ebp], 0
  0003c	8d 4d d8	 lea	 ecx, DWORD PTR _szClipFormat$5[ebp]
  0003f	66 0f d6 45 e4	 movq	 QWORD PTR _aBufWnd$8[ebp], xmm0
  00044	c6 45 ec 00	 mov	 BYTE PTR _aBufWnd$8[ebp+8], 0
  00048	ff 15 00 00 00
	00		 call	 DWORD PTR __imp_??0?$CStringT@DV?$StrTraitMFC_DLL@DV?$ChTraitsCRT@D@ATL@@@@@ATL@@QAE@XZ
  0004e	68 00 00 00 00	 push	 OFFSET ??_C@_0M@CBBNGGHM@PcTrMng?4dll@
  00053	c7 45 fc 00 00
	00 00		 mov	 DWORD PTR __$EHRec$[ebp+8], 0
  0005a	ff 15 00 00 00
	00		 call	 DWORD PTR __imp__GetModuleHandleA@4
  00060	50		 push	 eax
  00061	68 00 00 00 00	 push	 OFFSET ??_C@_0P@IDMAJEGN@HANAROPCTRMAIN@
  00066	8d 45 d8	 lea	 eax, DWORD PTR _szClipFormat$5[ebp]
  00069	68 00 00 00 00	 push	 OFFSET ??_C@_06NDLAHCHE@?$CFs?$CF08X@
  0006e	50		 push	 eax
  0006f	ff 15 00 00 00
	00		 call	 DWORD PTR __imp_?Format@?$CStringT@DV?$StrTraitMFC_DLL@DV?$ChTraitsCRT@D@ATL@@@@@ATL@@QAAXPBDZZ
  00075	83 c4 10	 add	 esp, 16			; 00000010H
  00078	8d 45 e4	 lea	 eax, DWORD PTR _aBufWnd$8[ebp]
  0007b	6a 09		 push	 9
  0007d	50		 push	 eax
  0007e	ff 75 d8	 push	 DWORD PTR _szClipFormat$5[ebp]
  00081	ff 15 00 00 00
	00		 call	 DWORD PTR __imp__GetEnvironmentVariableA@12
  00087	8d 45 d4	 lea	 eax, DWORD PTR _hMainWnd$4[ebp]
  0008a	50		 push	 eax
  0008b	8d 45 e4	 lea	 eax, DWORD PTR _aBufWnd$8[ebp]
  0008e	68 00 00 00 00	 push	 OFFSET ??_C@_02EMFKHFLK@?$CFX@
  00093	50		 push	 eax
  00094	e8 00 00 00 00	 call	 _sscanf
  00099	83 c4 0c	 add	 esp, 12			; 0000000cH
  0009c	c7 45 fc ff ff
	ff ff		 mov	 DWORD PTR __$EHRec$[ebp+8], -1
  000a3	8d 4d d8	 lea	 ecx, DWORD PTR _szClipFormat$5[ebp]
  000a6	ff 15 00 00 00
	00		 call	 DWORD PTR __imp_??1?$CStringT@DV?$StrTraitMFC_DLL@DV?$ChTraitsCRT@D@ATL@@@@@ATL@@QAE@XZ

; 263  : 
; 264  : 	return ::SendMessage(hMainWnd, RMSG_INTERFACE, (WPARAM)nID, 0);

  000ac	6a 00		 push	 0
  000ae	6a 1c		 push	 28			; 0000001cH
  000b0	ff 35 00 00 00
	00		 push	 DWORD PTR ?RMSG_INTERFACE@@3IB
  000b6	ff 75 d4	 push	 DWORD PTR _hMainWnd$4[ebp]
  000b9	ff 15 00 00 00
	00		 call	 DWORD PTR __imp__SendMessageA@16
; File D:\git\src\IBK\IBK_DRFN\ProjSrc\SrcDrfn\Chart\HWSTRATEGYCONFIGUREWIZARD\DlgStrategyConfigure.cpp

; 89   : 	CString szKey = "STLIST_MODIFIED"; 

  000bf	68 00 00 00 00	 push	 OFFSET ??_C@_0BA@PIGBAOMG@STLIST_MODIFIED@
  000c4	8d 4d d0	 lea	 ecx, DWORD PTR _szKey$3[ebp]
  000c7	89 86 84 1b 00
	00		 mov	 DWORD PTR [esi+7044], eax
  000cd	ff 15 00 00 00
	00		 call	 DWORD PTR __imp_??0?$CStringT@DV?$StrTraitMFC_DLL@DV?$ChTraitsCRT@D@ATL@@@@@ATL@@QAE@PBD@Z

; 90   : 	m_dwIAUDataMonitorManager = m_pIAUDataMonitorManager->Advise(szKey, (long)this, (long)NULL, DataMonitorCallbackProc);

  000d3	8b 86 84 1b 00
	00		 mov	 eax, DWORD PTR [esi+7044]
  000d9	68 00 00 00 00	 push	 OFFSET ?DataMonitorCallbackProc@CDlgStrategyConfigure@@KGXPBDJJJJ@Z ; CDlgStrategyConfigure::DataMonitorCallbackProc
  000de	6a 00		 push	 0
  000e0	56		 push	 esi
  000e1	ff 75 d0	 push	 DWORD PTR _szKey$3[ebp]
  000e4	8b 08		 mov	 ecx, DWORD PTR [eax]
  000e6	50		 push	 eax
  000e7	c7 45 fc 01 00
	00 00		 mov	 DWORD PTR __$EHRec$[ebp+8], 1
  000ee	ff 11		 call	 DWORD PTR [ecx]

; 91   : }

  000f0	8d 4d d0	 lea	 ecx, DWORD PTR _szKey$3[ebp]
  000f3	89 86 88 1b 00
	00		 mov	 DWORD PTR [esi+7048], eax
  000f9	c7 45 fc ff ff
	ff ff		 mov	 DWORD PTR __$EHRec$[ebp+8], -1
  00100	ff 15 00 00 00
	00		 call	 DWORD PTR __imp_??1?$CStringT@DV?$StrTraitMFC_DLL@DV?$ChTraitsCRT@D@ATL@@@@@ATL@@QAE@XZ

; 172  : 	if(m_pSTRunMng)

  00106	8b 8e bc 00 00
	00		 mov	 ecx, DWORD PTR [esi+188]
  0010c	85 c9		 test	 ecx, ecx
  0010e	74 1d		 je	 SHORT $LN21@OnInitDial

; 173  : 	{
; 174  : 		STMNG_ITEMINFO* pItemInfo = (STMNG_ITEMINFO*)m_pSTRunMng->GetSelectedSTInfo();

  00110	8b 01		 mov	 eax, DWORD PTR [ecx]
  00112	51		 push	 ecx
  00113	ff 50 04	 call	 DWORD PTR [eax+4]

; 175  : 		if(pItemInfo)

  00116	85 c0		 test	 eax, eax
  00118	74 13		 je	 SHORT $LN21@OnInitDial

; 176  : 		{
; 177  : 			int nFolderIndx	= pItemInfo->nFolderIndx;
; 178  : 			int nItemIndx	= pItemInfo->nItemIndx;	
; 179  : 
; 180  : 			if(nFolderIndx>=0 && nItemIndx>=0)

  0011a	83 78 10 00	 cmp	 DWORD PTR [eax+16], 0
  0011e	7c 0d		 jl	 SHORT $LN21@OnInitDial
  00120	83 78 14 00	 cmp	 DWORD PTR [eax+20], 0
  00124	7c 07		 jl	 SHORT $LN21@OnInitDial

; 181  : 				return TRUE;

  00126	bf 01 00 00 00	 mov	 edi, 1
  0012b	eb 02		 jmp	 SHORT $LN18@OnInitDial
$LN21@OnInitDial:

; 182  : 		}
; 183  : 	}
; 184  : 	return FALSE;

  0012d	33 ff		 xor	 edi, edi
$LN18@OnInitDial:

; 96   : 	
; 97   : 	InitLoad();
; 98   : 	BOOL bSel = IsSTSelected();
; 99   : 	BOOL bRetValue = m_dlgStrategyList.Create(CDlgStrategyList::IDD,this);

  0012f	8b 86 70 04 00
	00		 mov	 eax, DWORD PTR [esi+1136]
  00135	8d 9e 70 04 00
	00		 lea	 ebx, DWORD PTR [esi+1136]
  0013b	56		 push	 esi
  0013c	68 79 69 00 00	 push	 27001			; 00006979H
  00141	8b cb		 mov	 ecx, ebx
  00143	ff 90 6c 01 00
	00		 call	 DWORD PTR [eax+364]
; File C:\Program Files (x86)\Microsoft Visual Studio\2019\Community\VC\Tools\MSVC\14.29.30133\atlmfc\include\afxwin2.inl

; 86   : 	{ ASSERT(::IsWindow(m_hWnd)); ::GetClientRect(m_hWnd, lpRect); }

  00149	8d 45 e0	 lea	 eax, DWORD PTR $T7[ebp]
  0014c	0f 57 c0	 xorps	 xmm0, xmm0
  0014f	50		 push	 eax
  00150	ff 76 20	 push	 DWORD PTR [esi+32]
; File C:\Program Files (x86)\Microsoft Visual Studio\2019\Community\VC\Tools\MSVC\14.29.30133\atlmfc\include\atltypes.h

; 528  : 	left = 0;

  00153	0f 11 45 e0	 movups	 XMMWORD PTR $T7[ebp], xmm0
; File C:\Program Files (x86)\Microsoft Visual Studio\2019\Community\VC\Tools\MSVC\14.29.30133\atlmfc\include\afxwin2.inl

; 86   : 	{ ASSERT(::IsWindow(m_hWnd)); ::GetClientRect(m_hWnd, lpRect); }

  00157	ff 15 00 00 00
	00		 call	 DWORD PTR __imp__GetClientRect@8

; 73   : 	{ MoveWindow(lpRect->left, lpRect->top, lpRect->right - lpRect->left,

  0015d	8b 4d e4	 mov	 ecx, DWORD PTR $T7[ebp+4]
  00160	8b 45 ec	 mov	 eax, DWORD PTR $T7[ebp+12]
; File D:\git\src\IBK\IBK_DRFN\ProjSrc\SrcDrfn\Chart\HWSTRATEGYCONFIGUREWIZARD\DlgStrategyConfigure.cpp

; 197  : 		rect.left = m_nWidthOfOutBar;

  00163	8b 96 c0 00 00
	00		 mov	 edx, DWORD PTR [esi+192]
; File C:\Program Files (x86)\Microsoft Visual Studio\2019\Community\VC\Tools\MSVC\14.29.30133\atlmfc\include\afxwin2.inl

; 73   : 	{ MoveWindow(lpRect->left, lpRect->top, lpRect->right - lpRect->left,

  00169	2b c1		 sub	 eax, ecx
  0016b	6a 01		 push	 1
  0016d	50		 push	 eax
  0016e	8b 45 e8	 mov	 eax, DWORD PTR $T7[ebp+8]
  00171	2b c2		 sub	 eax, edx
; File D:\git\src\IBK\IBK_DRFN\ProjSrc\SrcDrfn\Chart\HWSTRATEGYCONFIGUREWIZARD\DlgStrategyConfigure.cpp

; 197  : 		rect.left = m_nWidthOfOutBar;

  00173	89 55 e0	 mov	 DWORD PTR $T7[ebp], edx
; File C:\Program Files (x86)\Microsoft Visual Studio\2019\Community\VC\Tools\MSVC\14.29.30133\atlmfc\include\afxwin2.inl

; 73   : 	{ MoveWindow(lpRect->left, lpRect->top, lpRect->right - lpRect->left,

  00176	50		 push	 eax
  00177	51		 push	 ecx
  00178	52		 push	 edx
  00179	8b cb		 mov	 ecx, ebx
  0017b	e8 00 00 00 00	 call	 ?MoveWindow@CWnd@@QAEXHHHHH@Z ; CWnd::MoveWindow
; File D:\git\src\IBK\IBK_DRFN\ProjSrc\SrcDrfn\Chart\HWSTRATEGYCONFIGUREWIZARD\DlgStrategyConfigure.cpp

; 101  : 	m_dlgStrategyList.ShowWindow(SW_SHOW);

  00180	6a 05		 push	 5
  00182	8b cb		 mov	 ecx, ebx
  00184	e8 00 00 00 00	 call	 ?ShowWindow@CWnd@@QAEHH@Z ; CWnd::ShowWindow

; 102  : 	m_dlgOutLookBar.SetSTParent(this);

  00189	8d 8e c8 00 00
	00		 lea	 ecx, DWORD PTR [esi+200]
  0018f	56		 push	 esi
  00190	e8 00 00 00 00	 call	 ?SetSTParent@COutLookBarDlg@@QAEXPAVCWnd@@@Z ; COutLookBarDlg::SetSTParent

; 103  : 	m_dlgOutLookBar.Create(COutLookBarDlg::IDD, this);

  00195	8b 86 c8 00 00
	00		 mov	 eax, DWORD PTR [esi+200]
  0019b	8d 8e c8 00 00
	00		 lea	 ecx, DWORD PTR [esi+200]
  001a1	56		 push	 esi
  001a2	68 21 04 00 00	 push	 1057			; 00000421H
  001a7	ff 90 6c 01 00
	00		 call	 DWORD PTR [eax+364]

; 104  : 
; 105  : 	if(bSel) {

  001ad	85 ff		 test	 edi, edi
  001af	0f 84 d8 00 00
	00		 je	 $LN3@OnInitDial

; 106  : 		STMNG_ITEMINFO* pItemInfo = (STMNG_ITEMINFO*)m_pSTRunMng->GetSelectedSTInfo();

  001b5	8b 86 bc 00 00
	00		 mov	 eax, DWORD PTR [esi+188]
  001bb	50		 push	 eax
  001bc	8b 08		 mov	 ecx, DWORD PTR [eax]
  001be	ff 51 04	 call	 DWORD PTR [ecx+4]
  001c1	8b f8		 mov	 edi, eax

; 107  : 		if(pItemInfo) {

  001c3	85 ff		 test	 edi, edi
  001c5	0f 84 c2 00 00
	00		 je	 $LN3@OnInitDial

; 108  : 			//m_dlgOutLookBar.m_pSTLoadMnger->SetSelectedItem(pItemInfo->nFolderIndx, pItemInfo->nItemIndx);
; 109  : 			m_dlgOutLookBar.m_pSTLoadMnger->SetSelectedItem(pItemInfo);

  001cb	8b 8e 08 04 00
	00		 mov	 ecx, DWORD PTR [esi+1032]
  001d1	57		 push	 edi
  001d2	51		 push	 ecx
  001d3	8b 11		 mov	 edx, DWORD PTR [ecx]
  001d5	ff 52 28	 call	 DWORD PTR [edx+40]

; 110  : 
; 111  : 			CString szFolderPath;

  001d8	8d 4d dc	 lea	 ecx, DWORD PTR _szFolderPath$6[ebp]
  001db	ff 15 00 00 00
	00		 call	 DWORD PTR __imp_??0?$CStringT@DV?$StrTraitMFC_DLL@DV?$ChTraitsCRT@D@ATL@@@@@ATL@@QAE@XZ

; 112  : 			szFolderPath = pItemInfo->szSTPath;

  001e1	8d 47 08	 lea	 eax, DWORD PTR [edi+8]
  001e4	c7 45 fc 02 00
	00 00		 mov	 DWORD PTR __$EHRec$[ebp+8], 2
  001eb	50		 push	 eax
  001ec	8d 4d dc	 lea	 ecx, DWORD PTR _szFolderPath$6[ebp]
  001ef	ff 15 00 00 00
	00		 call	 DWORD PTR __imp_??4?$CStringT@DV?$StrTraitMFC_DLL@DV?$ChTraitsCRT@D@ATL@@@@@ATL@@QAEAAV01@ABV01@@Z

; 113  : 			szFolderPath += "\\";

  001f5	68 00 00 00 00	 push	 OFFSET ??_C@_01KICIPPFI@?2@
  001fa	8d 4d dc	 lea	 ecx, DWORD PTR _szFolderPath$6[ebp]
  001fd	ff 15 00 00 00
	00		 call	 DWORD PTR __imp_??Y?$CStringT@DV?$StrTraitMFC_DLL@DV?$ChTraitsCRT@D@ATL@@@@@ATL@@QAEAAV01@PBD@Z

; 114  : 			szFolderPath += pItemInfo->szSTName;

  00203	8d 47 04	 lea	 eax, DWORD PTR [edi+4]
  00206	50		 push	 eax
  00207	8d 4d dc	 lea	 ecx, DWORD PTR _szFolderPath$6[ebp]
  0020a	ff 15 00 00 00
	00		 call	 DWORD PTR __imp_??Y?$CStringT@DV?$StrTraitMFC_DLL@DV?$ChTraitsCRT@D@ATL@@@@@ATL@@QAEAAV01@ABV?$CSimpleStringT@D$00@1@@Z
  00210	8d 4d cc	 lea	 ecx, DWORD PTR _dataItem$2[ebp+4]
  00213	ff 15 00 00 00
	00		 call	 DWORD PTR __imp_??0?$CStringT@DV?$StrTraitMFC_DLL@DV?$ChTraitsCRT@D@ATL@@@@@ATL@@QAE@XZ

; 115  : 
; 116  : 			STLISTITEMDATA	dataItem;
; 117  : 			dataItem.szSTPath = szFolderPath;

  00219	8d 45 dc	 lea	 eax, DWORD PTR _szFolderPath$6[ebp]
  0021c	c6 45 fc 03	 mov	 BYTE PTR __$EHRec$[ebp+8], 3
  00220	50		 push	 eax
  00221	8d 4d cc	 lea	 ecx, DWORD PTR _dataItem$2[ebp+4]
  00224	ff 15 00 00 00
	00		 call	 DWORD PTR __imp_??4?$CStringT@DV?$StrTraitMFC_DLL@DV?$ChTraitsCRT@D@ATL@@@@@ATL@@QAEAAV01@ABV01@@Z

; 118  : 			dataItem.bUserFolder = pItemInfo->nSTType;

  0022a	8b 47 0c	 mov	 eax, DWORD PTR [edi+12]
; File C:\Program Files (x86)\Microsoft Visual Studio\2019\Community\VC\Tools\MSVC\14.29.30133\atlmfc\include\afxwin2.inl

; 32   : 	{ ASSERT(::IsWindow(m_hWnd)); return ::SendMessage(m_hWnd, message, wParam, lParam); }

  0022d	6a 00		 push	 0
; File D:\git\src\IBK\IBK_DRFN\ProjSrc\SrcDrfn\Chart\HWSTRATEGYCONFIGUREWIZARD\DlgStrategyConfigure.cpp

; 118  : 			dataItem.bUserFolder = pItemInfo->nSTType;

  0022f	89 45 c8	 mov	 DWORD PTR _dataItem$2[ebp], eax
; File C:\Program Files (x86)\Microsoft Visual Studio\2019\Community\VC\Tools\MSVC\14.29.30133\atlmfc\include\afxwin2.inl

; 32   : 	{ ASSERT(::IsWindow(m_hWnd)); return ::SendMessage(m_hWnd, message, wParam, lParam); }

  00232	8d 45 c8	 lea	 eax, DWORD PTR _dataItem$2[ebp]
  00235	50		 push	 eax
  00236	68 03 04 00 00	 push	 1027			; 00000403H
  0023b	ff b6 90 04 00
	00		 push	 DWORD PTR [esi+1168]
  00241	ff 15 00 00 00
	00		 call	 DWORD PTR __imp__SendMessageA@16
; File D:\git\src\IBK\IBK_DRFN\ProjSrc\SrcDrfn\Chart\HWSTRATEGYCONFIGUREWIZARD\DlgStrategyConfigure.cpp

; 121  : 			if(m_dlgStrategyList.GetGridSTRowCount() > 0) {

  00247	8b cb		 mov	 ecx, ebx
  00249	e8 00 00 00 00	 call	 ?GetGridSTRowCount@CDlgStrategyList@@QAEHXZ ; CDlgStrategyList::GetGridSTRowCount
  0024e	85 c0		 test	 eax, eax
  00250	7e 22		 jle	 SHORT $LN4@OnInitDial

; 122  : 				m_dlgStrategyList.OnClickGridSTList(1, 1);

  00252	6a 01		 push	 1
  00254	6a 01		 push	 1
  00256	8b cb		 mov	 ecx, ebx
  00258	e8 00 00 00 00	 call	 ?OnClickGridSTList@CDlgStrategyList@@QAEXHH@Z ; CDlgStrategyList::OnClickGridSTList

; 123  : 				m_dlgStrategyList.m_GridSTList.SetSelectedRange(1,0,1,4);

  0025d	6a 01		 push	 1
  0025f	6a 00		 push	 0
  00261	6a 04		 push	 4
  00263	6a 01		 push	 1
  00265	6a 00		 push	 0
  00267	6a 01		 push	 1
  00269	8d 8e 48 14 00
	00		 lea	 ecx, DWORD PTR [esi+5192]
  0026f	e8 00 00 00 00	 call	 ?SetSelectedRange@CGridCtrl@@QAEXHHHHHH@Z ; CGridCtrl::SetSelectedRange
$LN4@OnInitDial:

; 124  : 			}
; 125  : 		}

  00274	8d 4d cc	 lea	 ecx, DWORD PTR _dataItem$2[ebp+4]
  00277	ff 15 00 00 00
	00		 call	 DWORD PTR __imp_??1?$CStringT@DV?$StrTraitMFC_DLL@DV?$ChTraitsCRT@D@ATL@@@@@ATL@@QAE@XZ
  0027d	8d 4d dc	 lea	 ecx, DWORD PTR _szFolderPath$6[ebp]
  00280	c7 45 fc ff ff
	ff ff		 mov	 DWORD PTR __$EHRec$[ebp+8], -1
  00287	ff 15 00 00 00
	00		 call	 DWORD PTR __imp_??1?$CStringT@DV?$StrTraitMFC_DLL@DV?$ChTraitsCRT@D@ATL@@@@@ATL@@QAE@XZ
$LN3@OnInitDial:

; 126  : 	}
; 127  : 
; 128  : 	m_dlgOutLookBar.ShowWindow(SW_SHOW);

  0028d	6a 05		 push	 5
  0028f	8d 8e c8 00 00
	00		 lea	 ecx, DWORD PTR [esi+200]
  00295	e8 00 00 00 00	 call	 ?ShowWindow@CWnd@@QAEHH@Z ; CWnd::ShowWindow

; 129  :     
; 130  : 	return TRUE;  // return TRUE unless you set the focus to a control

  0029a	b8 01 00 00 00	 mov	 eax, 1

; 131  : 	              // EXCEPTION: OCX Property Pages should return FALSE
; 132  : }

  0029f	8b 4d f4	 mov	 ecx, DWORD PTR __$EHRec$[ebp]
  002a2	64 89 0d 00 00
	00 00		 mov	 DWORD PTR fs:0, ecx
  002a9	59		 pop	 ecx
  002aa	5f		 pop	 edi
  002ab	5e		 pop	 esi
  002ac	5b		 pop	 ebx
  002ad	8b 4d f0	 mov	 ecx, DWORD PTR __$ArrayPad$[ebp]
  002b0	33 cd		 xor	 ecx, ebp
  002b2	e8 00 00 00 00	 call	 @__security_check_cookie@4
  002b7	8b e5		 mov	 esp, ebp
  002b9	5d		 pop	 ebp
  002ba	c3		 ret	 0
_TEXT	ENDS
;	COMDAT text$x
text$x	SEGMENT
__unwindfunclet$?OnInitDialog@CDlgStrategyConfigure@@MAEHXZ$3:
  00000	8d 4d d8	 lea	 ecx, DWORD PTR _szClipFormat$5[ebp]
  00003	ff 25 00 00 00
	00		 jmp	 DWORD PTR __imp_??1?$CStringT@DV?$StrTraitMFC_DLL@DV?$ChTraitsCRT@D@ATL@@@@@ATL@@QAE@XZ
__unwindfunclet$?OnInitDialog@CDlgStrategyConfigure@@MAEHXZ$2:
  00009	8d 4d d0	 lea	 ecx, DWORD PTR _szKey$3[ebp]
  0000c	ff 25 00 00 00
	00		 jmp	 DWORD PTR __imp_??1?$CStringT@DV?$StrTraitMFC_DLL@DV?$ChTraitsCRT@D@ATL@@@@@ATL@@QAE@XZ
__unwindfunclet$?OnInitDialog@CDlgStrategyConfigure@@MAEHXZ$0:
  00012	8d 4d dc	 lea	 ecx, DWORD PTR _szFolderPath$6[ebp]
  00015	ff 25 00 00 00
	00		 jmp	 DWORD PTR __imp_??1?$CStringT@DV?$StrTraitMFC_DLL@DV?$ChTraitsCRT@D@ATL@@@@@ATL@@QAE@XZ
__unwindfunclet$?OnInitDialog@CDlgStrategyConfigure@@MAEHXZ$1:
  0001b	8d 4d c8	 lea	 ecx, DWORD PTR _dataItem$2[ebp]
  0001e	e9 00 00 00 00	 jmp	 ??1STLISTITEMDATA@@QAE@XZ
  00023	cc		 int	 3
  00024	cc		 int	 3
  00025	cc		 int	 3
  00026	cc		 int	 3
  00027	cc		 int	 3
__ehhandler$?OnInitDialog@CDlgStrategyConfigure@@MAEHXZ:
  00028	90		 npad	 1
  00029	90		 npad	 1
  0002a	8b 54 24 08	 mov	 edx, DWORD PTR [esp+8]
  0002e	8d 42 0c	 lea	 eax, DWORD PTR [edx+12]
  00031	8b 4a c4	 mov	 ecx, DWORD PTR [edx-60]
  00034	33 c8		 xor	 ecx, eax
  00036	e8 00 00 00 00	 call	 @__security_check_cookie@4
  0003b	8b 4a fc	 mov	 ecx, DWORD PTR [edx-4]
  0003e	33 c8		 xor	 ecx, eax
  00040	e8 00 00 00 00	 call	 @__security_check_cookie@4
  00045	b8 00 00 00 00	 mov	 eax, OFFSET __ehfuncinfo$?OnInitDialog@CDlgStrategyConfigure@@MAEHXZ
  0004a	e9 00 00 00 00	 jmp	 ___CxxFrameHandler3
text$x	ENDS
?OnInitDialog@CDlgStrategyConfigure@@MAEHXZ ENDP	; CDlgStrategyConfigure::OnInitDialog
; Function compile flags: /Ogtp
; File D:\git\src\IBK\IBK_DRFN\ProjSrc\SrcDrfn\Chart\HWSTRATEGYCONFIGUREWIZARD\DlgStrategyConfigure.cpp
; File C:\Program Files (x86)\Microsoft Visual Studio\2019\Community\VC\Tools\MSVC\14.29.30133\atlmfc\include\atltypes.h
; File D:\git\src\IBK\IBK_DRFN\ProjSrc\SrcDrfn\Chart\HWSTRATEGYCONFIGUREWIZARD\DlgStrategyConfigure.cpp
; File C:\Program Files (x86)\Microsoft Visual Studio\2019\Community\VC\Tools\MSVC\14.29.30133\atlmfc\include\afxwin2.inl
; File C:\Program Files (x86)\Microsoft Visual Studio\2019\Community\VC\Tools\MSVC\14.29.30133\atlmfc\include\atltypes.h
; File C:\Program Files (x86)\Microsoft Visual Studio\2019\Community\VC\Tools\MSVC\14.29.30133\atlmfc\include\afxwin2.inl
; File D:\git\src\IBK\IBK_DRFN\ProjSrc\SrcDrfn\Chart\HWSTRATEGYCONFIGUREWIZARD\DlgStrategyConfigure.cpp
;	COMDAT ?GetRect@CDlgStrategyConfigure@@IAE?AVCRect@@H@Z
_TEXT	SEGMENT
___$ReturnUdt$ = 8					; size = 4
_nId$ = 12						; size = 4
?GetRect@CDlgStrategyConfigure@@IAE?AVCRect@@H@Z PROC	; CDlgStrategyConfigure::GetRect, COMDAT
; _this$ = ecx

; 188  : {

  00000	55		 push	 ebp
  00001	8b ec		 mov	 ebp, esp
  00003	56		 push	 esi
; File C:\Program Files (x86)\Microsoft Visual Studio\2019\Community\VC\Tools\MSVC\14.29.30133\atlmfc\include\atltypes.h

; 528  : 	left = 0;

  00004	8b 75 08	 mov	 esi, DWORD PTR ___$ReturnUdt$[ebp]
; File D:\git\src\IBK\IBK_DRFN\ProjSrc\SrcDrfn\Chart\HWSTRATEGYCONFIGUREWIZARD\DlgStrategyConfigure.cpp

; 188  : {

  00007	57		 push	 edi
  00008	8b f9		 mov	 edi, ecx
; File C:\Program Files (x86)\Microsoft Visual Studio\2019\Community\VC\Tools\MSVC\14.29.30133\atlmfc\include\afxwin2.inl

; 86   : 	{ ASSERT(::IsWindow(m_hWnd)); ::GetClientRect(m_hWnd, lpRect); }

  0000a	56		 push	 esi
; File C:\Program Files (x86)\Microsoft Visual Studio\2019\Community\VC\Tools\MSVC\14.29.30133\atlmfc\include\atltypes.h

; 528  : 	left = 0;

  0000b	c7 06 00 00 00
	00		 mov	 DWORD PTR [esi], 0

; 529  : 	top = 0;

  00011	c7 46 04 00 00
	00 00		 mov	 DWORD PTR [esi+4], 0

; 530  : 	right = 0;

  00018	c7 46 08 00 00
	00 00		 mov	 DWORD PTR [esi+8], 0

; 531  : 	bottom = 0;

  0001f	c7 46 0c 00 00
	00 00		 mov	 DWORD PTR [esi+12], 0
; File C:\Program Files (x86)\Microsoft Visual Studio\2019\Community\VC\Tools\MSVC\14.29.30133\atlmfc\include\afxwin2.inl

; 86   : 	{ ASSERT(::IsWindow(m_hWnd)); ::GetClientRect(m_hWnd, lpRect); }

  00026	ff 77 20	 push	 DWORD PTR [edi+32]
  00029	ff 15 00 00 00
	00		 call	 DWORD PTR __imp__GetClientRect@8
; File D:\git\src\IBK\IBK_DRFN\ProjSrc\SrcDrfn\Chart\HWSTRATEGYCONFIGUREWIZARD\DlgStrategyConfigure.cpp

; 191  : 	switch(nId)

  0002f	8b 45 0c	 mov	 eax, DWORD PTR _nId$[ebp]
  00032	3d 21 04 00 00	 cmp	 eax, 1057		; 00000421H
  00037	74 17		 je	 SHORT $LN4@GetRect
  00039	3d 79 69 00 00	 cmp	 eax, 27001		; 00006979H
  0003e	8b c6		 mov	 eax, esi
  00040	75 19		 jne	 SHORT $LN6@GetRect

; 195  : 		break;
; 196  : 	case IDD_DLG_STLIST:
; 197  : 		rect.left = m_nWidthOfOutBar;

  00042	8b 8f c0 00 00
	00		 mov	 ecx, DWORD PTR [edi+192]
  00048	5f		 pop	 edi
  00049	89 0e		 mov	 DWORD PTR [esi], ecx

; 203  : }

  0004b	5e		 pop	 esi
  0004c	5d		 pop	 ebp
  0004d	c2 08 00	 ret	 8
$LN4@GetRect:

; 192  : 	{
; 193  : 	case IDD_OUTLOOKBARDLG:
; 194  : 		rect.right = m_nWidthOfOutBar;

  00050	8b 87 c0 00 00
	00		 mov	 eax, DWORD PTR [edi+192]
  00056	89 46 08	 mov	 DWORD PTR [esi+8], eax

; 198  : 		break;
; 199  : 	default:
; 200  : 		break;
; 201  : 	}
; 202  : 	return rect;

  00059	8b c6		 mov	 eax, esi
$LN6@GetRect:

; 203  : }

  0005b	5f		 pop	 edi
  0005c	5e		 pop	 esi
  0005d	5d		 pop	 ebp
  0005e	c2 08 00	 ret	 8
?GetRect@CDlgStrategyConfigure@@IAE?AVCRect@@H@Z ENDP	; CDlgStrategyConfigure::GetRect
_TEXT	ENDS
; Function compile flags: /Ogtp
; File D:\git\src\IBK\IBK_DRFN\ProjSrc\SrcDrfn\Chart\HWSTRATEGYCONFIGUREWIZARD\DlgStrategyConfigure.cpp
; File C:\Program Files (x86)\Microsoft Visual Studio\2019\Community\VC\Tools\MSVC\14.29.30133\atlmfc\include\afxwin2.inl
; File D:\git\src\IBK\IBK_DRFN\ProjSrc\SrcDrfn\Chart\HWSTRATEGYCONFIGUREWIZARD\DlgStrategyConfigure.cpp
; File C:\Program Files (x86)\Microsoft Visual Studio\2019\Community\VC\Tools\MSVC\14.29.30133\atlmfc\include\afxwin2.inl
; File D:\git\src\IBK\IBK_DRFN\ProjSrc\SrcDrfn\Chart\HWSTRATEGYCONFIGUREWIZARD\DlgStrategyConfigure.cpp
; File C:\Program Files (x86)\Microsoft Visual Studio\2019\Community\VC\Tools\MSVC\14.29.30133\atlmfc\include\afxwin2.inl
; File C:\Program Files (x86)\Microsoft Visual Studio\2019\Community\VC\Tools\MSVC\14.29.30133\atlmfc\include\atltypes.h
; File C:\Program Files (x86)\Microsoft Visual Studio\2019\Community\VC\Tools\MSVC\14.29.30133\atlmfc\include\afxwin2.inl
; File D:\git\src\IBK\IBK_DRFN\ProjSrc\SrcDrfn\Chart\HWSTRATEGYCONFIGUREWIZARD\DlgStrategyConfigure.cpp
; File C:\Program Files (x86)\Microsoft Visual Studio\2019\Community\VC\Tools\MSVC\14.29.30133\atlmfc\include\afxwin2.inl
; File D:\git\src\IBK\IBK_DRFN\ProjSrc\SrcDrfn\Chart\HWSTRATEGYCONFIGUREWIZARD\DlgStrategyConfigure.cpp
; File C:\Program Files (x86)\Microsoft Visual Studio\2019\Community\VC\Tools\MSVC\14.29.30133\atlmfc\include\afxwin2.inl
; File C:\Program Files (x86)\Microsoft Visual Studio\2019\Community\VC\Tools\MSVC\14.29.30133\atlmfc\include\atltypes.h
; File C:\Program Files (x86)\Microsoft Visual Studio\2019\Community\VC\Tools\MSVC\14.29.30133\atlmfc\include\afxwin2.inl
; File D:\git\src\IBK\IBK_DRFN\ProjSrc\SrcDrfn\Chart\HWSTRATEGYCONFIGUREWIZARD\DlgStrategyConfigure.cpp
; File C:\Program Files (x86)\Microsoft Visual Studio\2019\Community\VC\Tools\MSVC\14.29.30133\atlmfc\include\afxwin2.inl
; File D:\git\src\IBK\IBK_DRFN\ProjSrc\SrcDrfn\Chart\HWSTRATEGYCONFIGUREWIZARD\DlgStrategyConfigure.cpp
;	COMDAT ?Resize@CDlgStrategyConfigure@@IAEXHH@Z
_TEXT	SEGMENT
$T1 = -20						; size = 16
$T2 = -20						; size = 16
__$ArrayPad$ = -4					; size = 4
_cx$ = 8						; size = 4
_cy$ = 12						; size = 4
?Resize@CDlgStrategyConfigure@@IAEXHH@Z PROC		; CDlgStrategyConfigure::Resize, COMDAT
; _this$ = ecx

; 212  : {

  00000	55		 push	 ebp
  00001	8b ec		 mov	 ebp, esp
  00003	83 ec 14	 sub	 esp, 20			; 00000014H
  00006	a1 00 00 00 00	 mov	 eax, DWORD PTR ___security_cookie
  0000b	33 c5		 xor	 eax, ebp
  0000d	89 45 fc	 mov	 DWORD PTR __$ArrayPad$[ebp], eax

; 213  : 	if(cx==0 || cy==0) return;

  00010	83 7d 08 00	 cmp	 DWORD PTR _cx$[ebp], 0
  00014	56		 push	 esi
  00015	8b f1		 mov	 esi, ecx
  00017	0f 84 8d 00 00
	00		 je	 $LN3@Resize
  0001d	53		 push	 ebx
  0001e	8b 5d 0c	 mov	 ebx, DWORD PTR _cy$[ebp]
  00021	85 db		 test	 ebx, ebx
  00023	0f 84 80 00 00
	00		 je	 $LN45@Resize
; File C:\Program Files (x86)\Microsoft Visual Studio\2019\Community\VC\Tools\MSVC\14.29.30133\atlmfc\include\afxwin2.inl

; 25   : 	{ return this == NULL ? NULL : m_hWnd; }

  00029	a1 00 00 00 00	 mov	 eax, DWORD PTR __imp__GetClientRect@8
; File D:\git\src\IBK\IBK_DRFN\ProjSrc\SrcDrfn\Chart\HWSTRATEGYCONFIGUREWIZARD\DlgStrategyConfigure.cpp

; 219  : 	if(m_dlgOutLookBar.GetSafeHwnd())	

  0002e	57		 push	 edi
  0002f	8d be c8 00 00
	00		 lea	 edi, DWORD PTR [esi+200]
; File C:\Program Files (x86)\Microsoft Visual Studio\2019\Community\VC\Tools\MSVC\14.29.30133\atlmfc\include\afxwin2.inl

; 25   : 	{ return this == NULL ? NULL : m_hWnd; }

  00035	85 ff		 test	 edi, edi
  00037	74 35		 je	 SHORT $LN4@Resize
; File D:\git\src\IBK\IBK_DRFN\ProjSrc\SrcDrfn\Chart\HWSTRATEGYCONFIGUREWIZARD\DlgStrategyConfigure.cpp

; 219  : 	if(m_dlgOutLookBar.GetSafeHwnd())	

  00039	83 7f 20 00	 cmp	 DWORD PTR [edi+32], 0
  0003d	74 2f		 je	 SHORT $LN4@Resize
; File C:\Program Files (x86)\Microsoft Visual Studio\2019\Community\VC\Tools\MSVC\14.29.30133\atlmfc\include\afxwin2.inl

; 86   : 	{ ASSERT(::IsWindow(m_hWnd)); ::GetClientRect(m_hWnd, lpRect); }

  0003f	8d 4d ec	 lea	 ecx, DWORD PTR $T2[ebp]
  00042	0f 57 c0	 xorps	 xmm0, xmm0
  00045	51		 push	 ecx
  00046	ff 76 20	 push	 DWORD PTR [esi+32]
; File C:\Program Files (x86)\Microsoft Visual Studio\2019\Community\VC\Tools\MSVC\14.29.30133\atlmfc\include\atltypes.h

; 528  : 	left = 0;

  00049	0f 11 45 ec	 movups	 XMMWORD PTR $T2[ebp], xmm0
; File C:\Program Files (x86)\Microsoft Visual Studio\2019\Community\VC\Tools\MSVC\14.29.30133\atlmfc\include\afxwin2.inl

; 86   : 	{ ASSERT(::IsWindow(m_hWnd)); ::GetClientRect(m_hWnd, lpRect); }

  0004d	ff d0		 call	 eax

; 73   : 	{ MoveWindow(lpRect->left, lpRect->top, lpRect->right - lpRect->left,

  0004f	8b 86 c0 00 00
	00		 mov	 eax, DWORD PTR [esi+192]
  00055	8b cf		 mov	 ecx, edi
  00057	8b 55 ec	 mov	 edx, DWORD PTR $T2[ebp]
  0005a	2b c2		 sub	 eax, edx
  0005c	6a 01		 push	 1
  0005e	53		 push	 ebx
  0005f	50		 push	 eax
  00060	ff 75 f0	 push	 DWORD PTR $T2[ebp+4]
  00063	52		 push	 edx
  00064	e8 00 00 00 00	 call	 ?MoveWindow@CWnd@@QAEXHHHHH@Z ; CWnd::MoveWindow
  00069	a1 00 00 00 00	 mov	 eax, DWORD PTR __imp__GetClientRect@8
$LN4@Resize:
; File D:\git\src\IBK\IBK_DRFN\ProjSrc\SrcDrfn\Chart\HWSTRATEGYCONFIGUREWIZARD\DlgStrategyConfigure.cpp

; 226  : 	if(m_dlgStrategyList.GetSafeHwnd())

  0006e	8d be 70 04 00
	00		 lea	 edi, DWORD PTR [esi+1136]
; File C:\Program Files (x86)\Microsoft Visual Studio\2019\Community\VC\Tools\MSVC\14.29.30133\atlmfc\include\afxwin2.inl

; 25   : 	{ return this == NULL ? NULL : m_hWnd; }

  00074	85 ff		 test	 edi, edi
  00076	74 30		 je	 SHORT $LN46@Resize
; File D:\git\src\IBK\IBK_DRFN\ProjSrc\SrcDrfn\Chart\HWSTRATEGYCONFIGUREWIZARD\DlgStrategyConfigure.cpp

; 226  : 	if(m_dlgStrategyList.GetSafeHwnd())

  00078	83 7f 20 00	 cmp	 DWORD PTR [edi+32], 0
  0007c	74 2a		 je	 SHORT $LN46@Resize
; File C:\Program Files (x86)\Microsoft Visual Studio\2019\Community\VC\Tools\MSVC\14.29.30133\atlmfc\include\afxwin2.inl

; 86   : 	{ ASSERT(::IsWindow(m_hWnd)); ::GetClientRect(m_hWnd, lpRect); }

  0007e	8d 4d ec	 lea	 ecx, DWORD PTR $T1[ebp]
  00081	0f 57 c0	 xorps	 xmm0, xmm0
  00084	51		 push	 ecx
  00085	ff 76 20	 push	 DWORD PTR [esi+32]
; File C:\Program Files (x86)\Microsoft Visual Studio\2019\Community\VC\Tools\MSVC\14.29.30133\atlmfc\include\atltypes.h

; 528  : 	left = 0;

  00088	0f 11 45 ec	 movups	 XMMWORD PTR $T1[ebp], xmm0
; File C:\Program Files (x86)\Microsoft Visual Studio\2019\Community\VC\Tools\MSVC\14.29.30133\atlmfc\include\afxwin2.inl

; 86   : 	{ ASSERT(::IsWindow(m_hWnd)); ::GetClientRect(m_hWnd, lpRect); }

  0008c	ff d0		 call	 eax
; File D:\git\src\IBK\IBK_DRFN\ProjSrc\SrcDrfn\Chart\HWSTRATEGYCONFIGUREWIZARD\DlgStrategyConfigure.cpp

; 197  : 		rect.left = m_nWidthOfOutBar;

  0008e	8b 96 c0 00 00
	00		 mov	 edx, DWORD PTR [esi+192]
; File C:\Program Files (x86)\Microsoft Visual Studio\2019\Community\VC\Tools\MSVC\14.29.30133\atlmfc\include\afxwin2.inl

; 73   : 	{ MoveWindow(lpRect->left, lpRect->top, lpRect->right - lpRect->left,

  00094	8b cf		 mov	 ecx, edi
  00096	8b 45 f4	 mov	 eax, DWORD PTR $T1[ebp+8]
  00099	6a 01		 push	 1
  0009b	53		 push	 ebx
  0009c	2b c2		 sub	 eax, edx
  0009e	50		 push	 eax
  0009f	ff 75 f0	 push	 DWORD PTR $T1[ebp+4]
  000a2	52		 push	 edx
  000a3	e8 00 00 00 00	 call	 ?MoveWindow@CWnd@@QAEXHHHHH@Z ; CWnd::MoveWindow
$LN46@Resize:
  000a8	5f		 pop	 edi
$LN45@Resize:
  000a9	5b		 pop	 ebx
$LN3@Resize:
; File D:\git\src\IBK\IBK_DRFN\ProjSrc\SrcDrfn\Chart\HWSTRATEGYCONFIGUREWIZARD\DlgStrategyConfigure.cpp

; 233  : }

  000aa	8b 4d fc	 mov	 ecx, DWORD PTR __$ArrayPad$[ebp]
  000ad	33 cd		 xor	 ecx, ebp
  000af	5e		 pop	 esi
  000b0	e8 00 00 00 00	 call	 @__security_check_cookie@4
  000b5	8b e5		 mov	 esp, ebp
  000b7	5d		 pop	 ebp
  000b8	c2 08 00	 ret	 8
?Resize@CDlgStrategyConfigure@@IAEXHH@Z ENDP		; CDlgStrategyConfigure::Resize
_TEXT	ENDS
; Function compile flags: /Ogtp
; File D:\git\src\IBK\IBK_DRFN\ProjSrc\SrcDrfn\Chart\HWSTRATEGYCONFIGUREWIZARD\DlgStrategyConfigure.cpp
;	COMDAT ?GetOutBarColor@CDlgStrategyConfigure@@QAEJAAK0@Z
_TEXT	SEGMENT
_clrOLBkgrnd$ = 8					; size = 4
_clrOLOutLine$ = 12					; size = 4
?GetOutBarColor@CDlgStrategyConfigure@@QAEJAAK0@Z PROC	; CDlgStrategyConfigure::GetOutBarColor, COMDAT
; _this$ = ecx

; 441  : {

  00000	55		 push	 ebp
  00001	8b ec		 mov	 ebp, esp

; 442  : 	if(m_pSTRunMng)

  00003	8b 89 bc 00 00
	00		 mov	 ecx, DWORD PTR [ecx+188]
  00009	85 c9		 test	 ecx, ecx
  0000b	74 15		 je	 SHORT $LN2@GetOutBarC

; 443  : 	{
; 444  : 		m_pSTRunMng->GetOutBarColor(clrOLBkgrnd, clrOLOutLine);

  0000d	ff 75 0c	 push	 DWORD PTR _clrOLOutLine$[ebp]
  00010	8b 01		 mov	 eax, DWORD PTR [ecx]
  00012	ff 75 08	 push	 DWORD PTR _clrOLBkgrnd$[ebp]
  00015	51		 push	 ecx
  00016	ff 50 0c	 call	 DWORD PTR [eax+12]

; 445  : 		return 1L;

  00019	b8 01 00 00 00	 mov	 eax, 1

; 449  : }

  0001e	5d		 pop	 ebp
  0001f	c2 08 00	 ret	 8
$LN2@GetOutBarC:

; 446  : 	}
; 447  : 
; 448  : 	return 0L;

  00022	33 c0		 xor	 eax, eax

; 449  : }

  00024	5d		 pop	 ebp
  00025	c2 08 00	 ret	 8
?GetOutBarColor@CDlgStrategyConfigure@@QAEJAAK0@Z ENDP	; CDlgStrategyConfigure::GetOutBarColor
_TEXT	ENDS
; Function compile flags: /Ogtp
; File D:\git\src\IBK\IBK_DRFN\ProjSrc\SrcDrfn\Chart\HWSTRATEGYCONFIGUREWIZARD\DlgStrategyConfigure.cpp
; File C:\Program Files (x86)\Microsoft Visual Studio\2019\Community\VC\Tools\MSVC\14.29.30133\atlmfc\include\atlsimpstr.h
; File D:\git\src\IBK\IBK_DRFN\ProjSrc\SrcDrfn\Chart\HWSTRATEGYCONFIGUREWIZARD\DlgStrategyConfigure.cpp
;	COMDAT ?SelectSTItem@CDlgStrategyConfigure@@QAEXV?$CStringT@DV?$StrTraitMFC_DLL@DV?$ChTraitsCRT@D@ATL@@@@@ATL@@0@Z
_TEXT	SEGMENT
_InData$ = -52						; size = 24
$T2 = -28						; size = 4
_szSTRData$ = -24					; size = 4
__strRoot_$3 = -20					; size = 4
$T4 = -20						; size = 4
_szSTName$ = -16					; size = 4
__$EHRec$ = -12						; size = 12
_szItemName$ = 8					; size = 4
_szSelSTPath$ = 12					; size = 4
?SelectSTItem@CDlgStrategyConfigure@@QAEXV?$CStringT@DV?$StrTraitMFC_DLL@DV?$ChTraitsCRT@D@ATL@@@@@ATL@@0@Z PROC ; CDlgStrategyConfigure::SelectSTItem, COMDAT
; _this$ = ecx

; 135  : {

  00000	55		 push	 ebp
  00001	8b ec		 mov	 ebp, esp
  00003	6a ff		 push	 -1
  00005	68 00 00 00 00	 push	 __ehhandler$?SelectSTItem@CDlgStrategyConfigure@@QAEXV?$CStringT@DV?$StrTraitMFC_DLL@DV?$ChTraitsCRT@D@ATL@@@@@ATL@@0@Z
  0000a	64 a1 00 00 00
	00		 mov	 eax, DWORD PTR fs:0
  00010	50		 push	 eax
  00011	83 ec 28	 sub	 esp, 40			; 00000028H
  00014	56		 push	 esi
  00015	a1 00 00 00 00	 mov	 eax, DWORD PTR ___security_cookie
  0001a	33 c5		 xor	 eax, ebp
  0001c	50		 push	 eax
  0001d	8d 45 f4	 lea	 eax, DWORD PTR __$EHRec$[ebp]
  00020	64 a3 00 00 00
	00		 mov	 DWORD PTR fs:0, eax
  00026	8b f1		 mov	 esi, ecx

; 136  : 	CString szSTName = szItemName;

  00028	8d 45 08	 lea	 eax, DWORD PTR _szItemName$[ebp]
  0002b	c7 45 fc 01 00
	00 00		 mov	 DWORD PTR __$EHRec$[ebp+8], 1
  00032	50		 push	 eax
  00033	8d 4d f0	 lea	 ecx, DWORD PTR _szSTName$[ebp]
  00036	ff 15 00 00 00
	00		 call	 DWORD PTR __imp_??0?$CStringT@DV?$StrTraitMFC_DLL@DV?$ChTraitsCRT@D@ATL@@@@@ATL@@QAE@ABV01@@Z

; 137  : 	int nFind = szSTName.Find(gSTGubunKeys);

  0003c	6a 00		 push	 0
  0003e	68 00 00 00 00	 push	 OFFSET ??_C@_01JKBOJNNK@?$FO@
  00043	8d 4d f0	 lea	 ecx, DWORD PTR _szSTName$[ebp]
  00046	c6 45 fc 02	 mov	 BYTE PTR __$EHRec$[ebp+8], 2
  0004a	ff 15 00 00 00
	00		 call	 DWORD PTR __imp_?Find@?$CStringT@DV?$StrTraitMFC_DLL@DV?$ChTraitsCRT@D@ATL@@@@@ATL@@QBEHPBDH@Z

; 138  : 	if(nFind>0) szSTName = szSTName.Left(nFind);

  00050	85 c0		 test	 eax, eax
  00052	7e 29		 jle	 SHORT $LN2@SelectSTIt
  00054	50		 push	 eax
  00055	8d 45 ec	 lea	 eax, DWORD PTR $T4[ebp]
  00058	50		 push	 eax
  00059	8d 4d f0	 lea	 ecx, DWORD PTR _szSTName$[ebp]
  0005c	ff 15 00 00 00
	00		 call	 DWORD PTR __imp_?Left@?$CStringT@DV?$StrTraitMFC_DLL@DV?$ChTraitsCRT@D@ATL@@@@@ATL@@QBE?AV12@H@Z
  00062	50		 push	 eax
  00063	8d 4d f0	 lea	 ecx, DWORD PTR _szSTName$[ebp]
  00066	c6 45 fc 03	 mov	 BYTE PTR __$EHRec$[ebp+8], 3
  0006a	ff 15 00 00 00
	00		 call	 DWORD PTR __imp_??4?$CStringT@DV?$StrTraitMFC_DLL@DV?$ChTraitsCRT@D@ATL@@@@@ATL@@QAEAAV01@ABV01@@Z
  00070	8d 4d ec	 lea	 ecx, DWORD PTR $T4[ebp]
  00073	c6 45 fc 02	 mov	 BYTE PTR __$EHRec$[ebp+8], 2
  00077	ff 15 00 00 00
	00		 call	 DWORD PTR __imp_??1?$CStringT@DV?$StrTraitMFC_DLL@DV?$ChTraitsCRT@D@ATL@@@@@ATL@@QAE@XZ
$LN2@SelectSTIt:

; 139  : 
; 140  : 	szSTName.TrimRight();

  0007d	8d 4d f0	 lea	 ecx, DWORD PTR _szSTName$[ebp]
  00080	ff 15 00 00 00
	00		 call	 DWORD PTR __imp_?TrimRight@?$CStringT@DV?$StrTraitMFC_DLL@DV?$ChTraitsCRT@D@ATL@@@@@ATL@@QAEAAV12@XZ

; 141  : 	szSTName.MakeUpper();

  00086	8d 4d f0	 lea	 ecx, DWORD PTR _szSTName$[ebp]
  00089	ff 15 00 00 00
	00		 call	 DWORD PTR __imp_?MakeUpper@?$CStringT@DV?$StrTraitMFC_DLL@DV?$ChTraitsCRT@D@ATL@@@@@ATL@@QAEAAV12@XZ
; File C:\Program Files (x86)\Microsoft Visual Studio\2019\Community\VC\Tools\MSVC\14.29.30133\atlmfc\include\atlsimpstr.h

; 519  : 		return( GetData()->nDataLength );

  0008f	8b 45 f0	 mov	 eax, DWORD PTR _szSTName$[ebp]
; File D:\git\src\IBK\IBK_DRFN\ProjSrc\SrcDrfn\Chart\HWSTRATEGYCONFIGUREWIZARD\DlgStrategyConfigure.cpp

; 143  : 	if(szSTName.GetLength()==0) 	

  00092	83 78 f4 00	 cmp	 DWORD PTR [eax-12], 0
  00096	75 12		 jne	 SHORT $LN3@SelectSTIt

; 144  : 	{
; 145  : 		m_dlgOutLookBar.m_wndOutBar.SetSelFolder(0);

  00098	6a 00		 push	 0
  0009a	8d 8e 90 02 00
	00		 lea	 ecx, DWORD PTR [esi+656]
  000a0	e8 00 00 00 00	 call	 ?SetSelFolder@CSTGfxOutBarCtrl@@QAEXH@Z ; CSTGfxOutBarCtrl::SetSelFolder
  000a5	e9 be 00 00 00	 jmp	 $LN26@SelectSTIt
$LN3@SelectSTIt:

; 146  : 		return;
; 147  : 	}
; 148  : 
; 149  : 	CString szSTRData;

  000aa	8d 4d e8	 lea	 ecx, DWORD PTR _szSTRData$[ebp]
  000ad	ff 15 00 00 00
	00		 call	 DWORD PTR __imp_??0?$CStringT@DV?$StrTraitMFC_DLL@DV?$ChTraitsCRT@D@ATL@@@@@ATL@@QAE@XZ

; 150  : 	GET_LASTFOLDER_NAME(szSelSTPath, szSTRData);

  000b3	8d 45 0c	 lea	 eax, DWORD PTR _szSelSTPath$[ebp]
  000b6	c6 45 fc 04	 mov	 BYTE PTR __$EHRec$[ebp+8], 4
  000ba	50		 push	 eax
  000bb	8d 4d ec	 lea	 ecx, DWORD PTR __strRoot_$3[ebp]
  000be	ff 15 00 00 00
	00		 call	 DWORD PTR __imp_??0?$CStringT@DV?$StrTraitMFC_DLL@DV?$ChTraitsCRT@D@ATL@@@@@ATL@@QAE@ABV01@@Z
  000c4	6a 5c		 push	 92			; 0000005cH
  000c6	8d 4d ec	 lea	 ecx, DWORD PTR __strRoot_$3[ebp]
  000c9	c6 45 fc 05	 mov	 BYTE PTR __$EHRec$[ebp+8], 5
  000cd	ff 15 00 00 00
	00		 call	 DWORD PTR __imp_?ReverseFind@?$CStringT@DV?$StrTraitMFC_DLL@DV?$ChTraitsCRT@D@ATL@@@@@ATL@@QBEHD@Z
  000d3	85 c0		 test	 eax, eax
  000d5	7e 26		 jle	 SHORT $LN4@SelectSTIt
  000d7	40		 inc	 eax
  000d8	8d 4d ec	 lea	 ecx, DWORD PTR __strRoot_$3[ebp]
  000db	50		 push	 eax
  000dc	8d 45 e4	 lea	 eax, DWORD PTR $T2[ebp]
  000df	50		 push	 eax
  000e0	ff 15 00 00 00
	00		 call	 DWORD PTR __imp_?Mid@?$CStringT@DV?$StrTraitMFC_DLL@DV?$ChTraitsCRT@D@ATL@@@@@ATL@@QBE?AV12@H@Z
  000e6	50		 push	 eax
  000e7	8d 4d e8	 lea	 ecx, DWORD PTR _szSTRData$[ebp]
  000ea	c6 45 fc 06	 mov	 BYTE PTR __$EHRec$[ebp+8], 6
  000ee	ff 15 00 00 00
	00		 call	 DWORD PTR __imp_??4?$CStringT@DV?$StrTraitMFC_DLL@DV?$ChTraitsCRT@D@ATL@@@@@ATL@@QAEAAV01@ABV01@@Z
  000f4	8d 4d e4	 lea	 ecx, DWORD PTR $T2[ebp]
  000f7	ff 15 00 00 00
	00		 call	 DWORD PTR __imp_??1?$CStringT@DV?$StrTraitMFC_DLL@DV?$ChTraitsCRT@D@ATL@@@@@ATL@@QAE@XZ
$LN4@SelectSTIt:
  000fd	8d 4d ec	 lea	 ecx, DWORD PTR __strRoot_$3[ebp]
  00100	ff 15 00 00 00
	00		 call	 DWORD PTR __imp_??1?$CStringT@DV?$StrTraitMFC_DLL@DV?$ChTraitsCRT@D@ATL@@@@@ATL@@QAE@XZ
  00106	8d 4d cc	 lea	 ecx, DWORD PTR _InData$[ebp]
  00109	ff 15 00 00 00
	00		 call	 DWORD PTR __imp_??0?$CStringT@DV?$StrTraitMFC_DLL@DV?$ChTraitsCRT@D@ATL@@@@@ATL@@QAE@XZ
  0010f	8d 4d d0	 lea	 ecx, DWORD PTR _InData$[ebp+4]
  00112	ff 15 00 00 00
	00		 call	 DWORD PTR __imp_??0?$CStringT@DV?$StrTraitMFC_DLL@DV?$ChTraitsCRT@D@ATL@@@@@ATL@@QAE@XZ
  00118	8d 4d d4	 lea	 ecx, DWORD PTR _InData$[ebp+8]
  0011b	ff 15 00 00 00
	00		 call	 DWORD PTR __imp_??0?$CStringT@DV?$StrTraitMFC_DLL@DV?$ChTraitsCRT@D@ATL@@@@@ATL@@QAE@XZ

; 151  : 
; 152  : 	STMNG_ITEMINFO InData;
; 153  : 	m_dlgOutLookBar.m_pSTLoadMnger->GetSelectedItem(InData);

  00121	8b 8e 08 04 00
	00		 mov	 ecx, DWORD PTR [esi+1032]
  00127	8d 45 cc	 lea	 eax, DWORD PTR _InData$[ebp]
  0012a	50		 push	 eax
  0012b	c6 45 fc 07	 mov	 BYTE PTR __$EHRec$[ebp+8], 7
  0012f	e8 00 00 00 00	 call	 ?GetSelectedItem@CSTLoadManager@@QAEHAAUSTMNG_ITEMINFO@@@Z ; CSTLoadManager::GetSelectedItem

; 154  : 	//if(hItem)
; 155  : 	{
; 156  : 		//if(!szSTRData.Compare("") || !szSTRData.Compare(""))
; 157  : 		//	m_dlgOutLookBar.m_RunSTInfo.nSTType = 1;
; 158  : 		//else
; 159  : 		//	m_dlgOutLookBar.m_RunSTInfo.nSTType = 0;
; 160  : 		//m_dlgOutLookBar.m_RunSTInfo.szSTName = szItemName;
; 161  : 		//m_dlgOutLookBar.m_RunSTInfo.szSTPath = szSelSTPath;
; 162  : 		//m_dlgOutLookBar.m_RunSTInfo.szSTRData = szSTRData;
; 163  : 
; 164  : 		m_dlgOutLookBar.m_pSTLoadMnger->SetSelectedItem(&InData);

  00134	8b 86 08 04 00
	00		 mov	 eax, DWORD PTR [esi+1032]
  0013a	8d 55 cc	 lea	 edx, DWORD PTR _InData$[ebp]
  0013d	52		 push	 edx
  0013e	50		 push	 eax
  0013f	8b 08		 mov	 ecx, DWORD PTR [eax]
  00141	ff 51 28	 call	 DWORD PTR [ecx+40]
  00144	8d 4d d4	 lea	 ecx, DWORD PTR _InData$[ebp+8]
  00147	ff 15 00 00 00
	00		 call	 DWORD PTR __imp_??1?$CStringT@DV?$StrTraitMFC_DLL@DV?$ChTraitsCRT@D@ATL@@@@@ATL@@QAE@XZ
  0014d	8d 4d d0	 lea	 ecx, DWORD PTR _InData$[ebp+4]
  00150	ff 15 00 00 00
	00		 call	 DWORD PTR __imp_??1?$CStringT@DV?$StrTraitMFC_DLL@DV?$ChTraitsCRT@D@ATL@@@@@ATL@@QAE@XZ
  00156	8d 4d cc	 lea	 ecx, DWORD PTR _InData$[ebp]
  00159	ff 15 00 00 00
	00		 call	 DWORD PTR __imp_??1?$CStringT@DV?$StrTraitMFC_DLL@DV?$ChTraitsCRT@D@ATL@@@@@ATL@@QAE@XZ

; 165  : 	}
; 166  : }

  0015f	8d 4d e8	 lea	 ecx, DWORD PTR _szSTRData$[ebp]
  00162	ff 15 00 00 00
	00		 call	 DWORD PTR __imp_??1?$CStringT@DV?$StrTraitMFC_DLL@DV?$ChTraitsCRT@D@ATL@@@@@ATL@@QAE@XZ
$LN26@SelectSTIt:
  00168	8d 4d f0	 lea	 ecx, DWORD PTR _szSTName$[ebp]
  0016b	ff 15 00 00 00
	00		 call	 DWORD PTR __imp_??1?$CStringT@DV?$StrTraitMFC_DLL@DV?$ChTraitsCRT@D@ATL@@@@@ATL@@QAE@XZ
  00171	8d 4d 08	 lea	 ecx, DWORD PTR _szItemName$[ebp]
  00174	ff 15 00 00 00
	00		 call	 DWORD PTR __imp_??1?$CStringT@DV?$StrTraitMFC_DLL@DV?$ChTraitsCRT@D@ATL@@@@@ATL@@QAE@XZ
  0017a	8d 4d 0c	 lea	 ecx, DWORD PTR _szSelSTPath$[ebp]
  0017d	ff 15 00 00 00
	00		 call	 DWORD PTR __imp_??1?$CStringT@DV?$StrTraitMFC_DLL@DV?$ChTraitsCRT@D@ATL@@@@@ATL@@QAE@XZ
  00183	8b 4d f4	 mov	 ecx, DWORD PTR __$EHRec$[ebp]
  00186	64 89 0d 00 00
	00 00		 mov	 DWORD PTR fs:0, ecx
  0018d	59		 pop	 ecx
  0018e	5e		 pop	 esi
  0018f	8b e5		 mov	 esp, ebp
  00191	5d		 pop	 ebp
  00192	c2 08 00	 ret	 8
_TEXT	ENDS
;	COMDAT text$x
text$x	SEGMENT
__unwindfunclet$?SelectSTItem@CDlgStrategyConfigure@@QAEXV?$CStringT@DV?$StrTraitMFC_DLL@DV?$ChTraitsCRT@D@ATL@@@@@ATL@@0@Z$0:
  00000	8d 4d 0c	 lea	 ecx, DWORD PTR _szSelSTPath$[ebp]
  00003	ff 25 00 00 00
	00		 jmp	 DWORD PTR __imp_??1?$CStringT@DV?$StrTraitMFC_DLL@DV?$ChTraitsCRT@D@ATL@@@@@ATL@@QAE@XZ
__unwindfunclet$?SelectSTItem@CDlgStrategyConfigure@@QAEXV?$CStringT@DV?$StrTraitMFC_DLL@DV?$ChTraitsCRT@D@ATL@@@@@ATL@@0@Z$1:
  00009	8d 4d 08	 lea	 ecx, DWORD PTR _szItemName$[ebp]
  0000c	ff 25 00 00 00
	00		 jmp	 DWORD PTR __imp_??1?$CStringT@DV?$StrTraitMFC_DLL@DV?$ChTraitsCRT@D@ATL@@@@@ATL@@QAE@XZ
__unwindfunclet$?SelectSTItem@CDlgStrategyConfigure@@QAEXV?$CStringT@DV?$StrTraitMFC_DLL@DV?$ChTraitsCRT@D@ATL@@@@@ATL@@0@Z$2:
  00012	8d 4d f0	 lea	 ecx, DWORD PTR _szSTName$[ebp]
  00015	ff 25 00 00 00
	00		 jmp	 DWORD PTR __imp_??1?$CStringT@DV?$StrTraitMFC_DLL@DV?$ChTraitsCRT@D@ATL@@@@@ATL@@QAE@XZ
__unwindfunclet$?SelectSTItem@CDlgStrategyConfigure@@QAEXV?$CStringT@DV?$StrTraitMFC_DLL@DV?$ChTraitsCRT@D@ATL@@@@@ATL@@0@Z$3:
  0001b	8d 4d ec	 lea	 ecx, DWORD PTR $T4[ebp]
  0001e	ff 25 00 00 00
	00		 jmp	 DWORD PTR __imp_??1?$CStringT@DV?$StrTraitMFC_DLL@DV?$ChTraitsCRT@D@ATL@@@@@ATL@@QAE@XZ
__unwindfunclet$?SelectSTItem@CDlgStrategyConfigure@@QAEXV?$CStringT@DV?$StrTraitMFC_DLL@DV?$ChTraitsCRT@D@ATL@@@@@ATL@@0@Z$4:
  00024	8d 4d e8	 lea	 ecx, DWORD PTR _szSTRData$[ebp]
  00027	ff 25 00 00 00
	00		 jmp	 DWORD PTR __imp_??1?$CStringT@DV?$StrTraitMFC_DLL@DV?$ChTraitsCRT@D@ATL@@@@@ATL@@QAE@XZ
__unwindfunclet$?SelectSTItem@CDlgStrategyConfigure@@QAEXV?$CStringT@DV?$StrTraitMFC_DLL@DV?$ChTraitsCRT@D@ATL@@@@@ATL@@0@Z$5:
  0002d	8d 4d ec	 lea	 ecx, DWORD PTR __strRoot_$3[ebp]
  00030	ff 25 00 00 00
	00		 jmp	 DWORD PTR __imp_??1?$CStringT@DV?$StrTraitMFC_DLL@DV?$ChTraitsCRT@D@ATL@@@@@ATL@@QAE@XZ
__unwindfunclet$?SelectSTItem@CDlgStrategyConfigure@@QAEXV?$CStringT@DV?$StrTraitMFC_DLL@DV?$ChTraitsCRT@D@ATL@@@@@ATL@@0@Z$6:
  00036	8d 4d e4	 lea	 ecx, DWORD PTR $T2[ebp]
  00039	ff 25 00 00 00
	00		 jmp	 DWORD PTR __imp_??1?$CStringT@DV?$StrTraitMFC_DLL@DV?$ChTraitsCRT@D@ATL@@@@@ATL@@QAE@XZ
__unwindfunclet$?SelectSTItem@CDlgStrategyConfigure@@QAEXV?$CStringT@DV?$StrTraitMFC_DLL@DV?$ChTraitsCRT@D@ATL@@@@@ATL@@0@Z$7:
  0003f	8d 4d cc	 lea	 ecx, DWORD PTR _InData$[ebp]
  00042	e9 00 00 00 00	 jmp	 ??1STMNG_ITEMINFO@@QAE@XZ
  00047	cc		 int	 3
  00048	cc		 int	 3
  00049	cc		 int	 3
  0004a	cc		 int	 3
  0004b	cc		 int	 3
__ehhandler$?SelectSTItem@CDlgStrategyConfigure@@QAEXV?$CStringT@DV?$StrTraitMFC_DLL@DV?$ChTraitsCRT@D@ATL@@@@@ATL@@0@Z:
  0004c	90		 npad	 1
  0004d	90		 npad	 1
  0004e	8b 54 24 08	 mov	 edx, DWORD PTR [esp+8]
  00052	8d 42 0c	 lea	 eax, DWORD PTR [edx+12]
  00055	8b 4a d0	 mov	 ecx, DWORD PTR [edx-48]
  00058	33 c8		 xor	 ecx, eax
  0005a	e8 00 00 00 00	 call	 @__security_check_cookie@4
  0005f	b8 00 00 00 00	 mov	 eax, OFFSET __ehfuncinfo$?SelectSTItem@CDlgStrategyConfigure@@QAEXV?$CStringT@DV?$StrTraitMFC_DLL@DV?$ChTraitsCRT@D@ATL@@@@@ATL@@0@Z
  00064	e9 00 00 00 00	 jmp	 ___CxxFrameHandler3
text$x	ENDS
?SelectSTItem@CDlgStrategyConfigure@@QAEXV?$CStringT@DV?$StrTraitMFC_DLL@DV?$ChTraitsCRT@D@ATL@@@@@ATL@@0@Z ENDP ; CDlgStrategyConfigure::SelectSTItem
; Function compile flags: /Ogtp
; File D:\git\src\IBK\IBK_DRFN\ProjSrc\SrcDrfn\Chart\HWSTRATEGYCONFIGUREWIZARD\DlgStrategyConfigure.cpp
;	COMDAT ?IsSTSelected@CDlgStrategyConfigure@@QAEHXZ
_TEXT	SEGMENT
?IsSTSelected@CDlgStrategyConfigure@@QAEHXZ PROC	; CDlgStrategyConfigure::IsSTSelected, COMDAT
; _this$ = ecx

; 170  : 	//    .
; 171  : 	// -1    .
; 172  : 	if(m_pSTRunMng)

  00000	8b 89 bc 00 00
	00		 mov	 ecx, DWORD PTR [ecx+188]
  00006	85 c9		 test	 ecx, ecx
  00008	74 1c		 je	 SHORT $LN4@IsSTSelect

; 173  : 	{
; 174  : 		STMNG_ITEMINFO* pItemInfo = (STMNG_ITEMINFO*)m_pSTRunMng->GetSelectedSTInfo();

  0000a	8b 01		 mov	 eax, DWORD PTR [ecx]
  0000c	51		 push	 ecx
  0000d	ff 50 04	 call	 DWORD PTR [eax+4]

; 175  : 		if(pItemInfo)

  00010	85 c0		 test	 eax, eax
  00012	74 12		 je	 SHORT $LN4@IsSTSelect

; 176  : 		{
; 177  : 			int nFolderIndx	= pItemInfo->nFolderIndx;
; 178  : 			int nItemIndx	= pItemInfo->nItemIndx;	
; 179  : 
; 180  : 			if(nFolderIndx>=0 && nItemIndx>=0)

  00014	83 78 10 00	 cmp	 DWORD PTR [eax+16], 0
  00018	7c 0c		 jl	 SHORT $LN4@IsSTSelect
  0001a	83 78 14 00	 cmp	 DWORD PTR [eax+20], 0
  0001e	7c 06		 jl	 SHORT $LN4@IsSTSelect

; 181  : 				return TRUE;

  00020	b8 01 00 00 00	 mov	 eax, 1

; 185  : }

  00025	c3		 ret	 0
$LN4@IsSTSelect:

; 182  : 		}
; 183  : 	}
; 184  : 	return FALSE;

  00026	33 c0		 xor	 eax, eax

; 185  : }

  00028	c3		 ret	 0
?IsSTSelected@CDlgStrategyConfigure@@QAEHXZ ENDP	; CDlgStrategyConfigure::IsSTSelected
_TEXT	ENDS
; Function compile flags: /Ogtp
; File D:\git\src\IBK\IBK_DRFN\ProjSrc\SrcDrfn\Chart\HWSTRATEGYCONFIGUREWIZARD\DlgStrategyConfigure.cpp
;	COMDAT ?RunST@CDlgStrategyConfigure@@QAEHHAAV?$CStringT@DV?$StrTraitMFC_DLL@DV?$ChTraitsCRT@D@ATL@@@@@ATL@@@Z
_TEXT	SEGMENT
_InData$2 = -64						; size = 40
$T3 = -24						; size = 4
_szFolderName$4 = -20					; size = 4
_szSTName$5 = -16					; size = 4
__$EHRec$ = -12						; size = 12
_bImsiRun$ = 8						; size = 4
$T6 = 12						; size = 4
__strRoot_$7 = 12					; size = 4
$T8 = 12						; size = 4
$T9 = 12						; size = 4
$T10 = 12						; size = 4
_szRunFile$ = 12					; size = 4
?RunST@CDlgStrategyConfigure@@QAEHHAAV?$CStringT@DV?$StrTraitMFC_DLL@DV?$ChTraitsCRT@D@ATL@@@@@ATL@@@Z PROC ; CDlgStrategyConfigure::RunST, COMDAT
; _this$ = ecx

; 404  : {

  00000	55		 push	 ebp
  00001	8b ec		 mov	 ebp, esp
  00003	6a ff		 push	 -1
  00005	68 00 00 00 00	 push	 __ehhandler$?RunST@CDlgStrategyConfigure@@QAEHHAAV?$CStringT@DV?$StrTraitMFC_DLL@DV?$ChTraitsCRT@D@ATL@@@@@ATL@@@Z
  0000a	64 a1 00 00 00
	00		 mov	 eax, DWORD PTR fs:0
  00010	50		 push	 eax
  00011	83 ec 34	 sub	 esp, 52			; 00000034H
  00014	56		 push	 esi
  00015	57		 push	 edi
  00016	a1 00 00 00 00	 mov	 eax, DWORD PTR ___security_cookie
  0001b	33 c5		 xor	 eax, ebp
  0001d	50		 push	 eax
  0001e	8d 45 f4	 lea	 eax, DWORD PTR __$EHRec$[ebp]
  00021	64 a3 00 00 00
	00		 mov	 DWORD PTR fs:0, eax
  00027	8b f1		 mov	 esi, ecx

; 405  : 	//if(m_pSTRunMng)
; 406  : 	//{
; 407  : 	//	STMNG_ITEMINFO InData;
; 408  : 	//	if(m_dlgOutLookBar.m_pSTLoadMnger->GetSelectedItem(InData))
; 409  : 	//		return m_pSTRunMng->RunST(bImsiRun, szRunFile, (LONG)&InData);
; 410  : 	//}
; 411  : 	if(m_pSTRunMng)

  00029	83 be bc 00 00
	00 00		 cmp	 DWORD PTR [esi+188], 0
  00030	0f 84 39 02 00
	00		 je	 $LN33@RunST

; 412  : 	{
; 413  : 		STMNG_ITEMINFO_EX1 InData;

  00036	8d 4d c0	 lea	 ecx, DWORD PTR _InData$2[ebp]
  00039	ff 15 00 00 00
	00		 call	 DWORD PTR __imp_??0?$CStringT@DV?$StrTraitMFC_DLL@DV?$ChTraitsCRT@D@ATL@@@@@ATL@@QAE@XZ
  0003f	8d 4d c4	 lea	 ecx, DWORD PTR _InData$2[ebp+4]
  00042	ff 15 00 00 00
	00		 call	 DWORD PTR __imp_??0?$CStringT@DV?$StrTraitMFC_DLL@DV?$ChTraitsCRT@D@ATL@@@@@ATL@@QAE@XZ
  00048	8d 4d c8	 lea	 ecx, DWORD PTR _InData$2[ebp+8]
  0004b	ff 15 00 00 00
	00		 call	 DWORD PTR __imp_??0?$CStringT@DV?$StrTraitMFC_DLL@DV?$ChTraitsCRT@D@ATL@@@@@ATL@@QAE@XZ

; 414  : 		InData.nSTLevel = STLevel_Ext;		// src\Common_ST\LoadSTDir.h

  00051	0f 28 05 00 00
	00 00		 movaps	 xmm0, XMMWORD PTR __xmm@00000001000000000000000000000001

; 415  : 		InData.hTreeItem = NULL;			//  
; 416  : 		InData.hParentItem = NULL;			//  .
; 417  : 		InData.bIsItem = TRUE;				//  .
; 418  : 
; 419  : 		CString szSTName(szRunFile);

  00058	8d 4d f0	 lea	 ecx, DWORD PTR _szSTName$5[ebp]
  0005b	8b 7d 0c	 mov	 edi, DWORD PTR _szRunFile$[ebp]
  0005e	57		 push	 edi
  0005f	c7 45 fc 00 00
	00 00		 mov	 DWORD PTR __$EHRec$[ebp+8], 0
  00066	0f 11 45 d8	 movups	 XMMWORD PTR _InData$2[ebp+24], xmm0
  0006a	ff 15 00 00 00
	00		 call	 DWORD PTR __imp_??0?$CStringT@DV?$StrTraitMFC_DLL@DV?$ChTraitsCRT@D@ATL@@@@@ATL@@QAE@ABV01@@Z

; 420  : 		szSTName = szSTName.Mid(szSTName.ReverseFind('\\') + 1);

  00070	6a 5c		 push	 92			; 0000005cH
  00072	8d 4d f0	 lea	 ecx, DWORD PTR _szSTName$5[ebp]
  00075	c6 45 fc 01	 mov	 BYTE PTR __$EHRec$[ebp+8], 1
  00079	ff 15 00 00 00
	00		 call	 DWORD PTR __imp_?ReverseFind@?$CStringT@DV?$StrTraitMFC_DLL@DV?$ChTraitsCRT@D@ATL@@@@@ATL@@QBEHD@Z
  0007f	40		 inc	 eax
  00080	8d 4d f0	 lea	 ecx, DWORD PTR _szSTName$5[ebp]
  00083	50		 push	 eax
  00084	8d 45 0c	 lea	 eax, DWORD PTR $T10[ebp]
  00087	50		 push	 eax
  00088	ff 15 00 00 00
	00		 call	 DWORD PTR __imp_?Mid@?$CStringT@DV?$StrTraitMFC_DLL@DV?$ChTraitsCRT@D@ATL@@@@@ATL@@QBE?AV12@H@Z
  0008e	50		 push	 eax
  0008f	8d 4d f0	 lea	 ecx, DWORD PTR _szSTName$5[ebp]
  00092	c6 45 fc 02	 mov	 BYTE PTR __$EHRec$[ebp+8], 2
  00096	ff 15 00 00 00
	00		 call	 DWORD PTR __imp_??4?$CStringT@DV?$StrTraitMFC_DLL@DV?$ChTraitsCRT@D@ATL@@@@@ATL@@QAEAAV01@ABV01@@Z
  0009c	8d 4d 0c	 lea	 ecx, DWORD PTR $T10[ebp]
  0009f	c6 45 fc 01	 mov	 BYTE PTR __$EHRec$[ebp+8], 1
  000a3	ff 15 00 00 00
	00		 call	 DWORD PTR __imp_??1?$CStringT@DV?$StrTraitMFC_DLL@DV?$ChTraitsCRT@D@ATL@@@@@ATL@@QAE@XZ

; 421  : 		szSTName = szSTName.Mid(0, szSTName.ReverseFind('.'));

  000a9	6a 2e		 push	 46			; 0000002eH
  000ab	8d 4d f0	 lea	 ecx, DWORD PTR _szSTName$5[ebp]
  000ae	ff 15 00 00 00
	00		 call	 DWORD PTR __imp_?ReverseFind@?$CStringT@DV?$StrTraitMFC_DLL@DV?$ChTraitsCRT@D@ATL@@@@@ATL@@QBEHD@Z
  000b4	50		 push	 eax
  000b5	6a 00		 push	 0
  000b7	8d 45 0c	 lea	 eax, DWORD PTR $T9[ebp]
  000ba	50		 push	 eax
  000bb	8d 4d f0	 lea	 ecx, DWORD PTR _szSTName$5[ebp]
  000be	ff 15 00 00 00
	00		 call	 DWORD PTR __imp_?Mid@?$CStringT@DV?$StrTraitMFC_DLL@DV?$ChTraitsCRT@D@ATL@@@@@ATL@@QBE?AV12@HH@Z
  000c4	50		 push	 eax
  000c5	8d 4d f0	 lea	 ecx, DWORD PTR _szSTName$5[ebp]
  000c8	c6 45 fc 03	 mov	 BYTE PTR __$EHRec$[ebp+8], 3
  000cc	ff 15 00 00 00
	00		 call	 DWORD PTR __imp_??4?$CStringT@DV?$StrTraitMFC_DLL@DV?$ChTraitsCRT@D@ATL@@@@@ATL@@QAEAAV01@ABV01@@Z
  000d2	8d 4d 0c	 lea	 ecx, DWORD PTR $T9[ebp]
  000d5	c6 45 fc 01	 mov	 BYTE PTR __$EHRec$[ebp+8], 1
  000d9	ff 15 00 00 00
	00		 call	 DWORD PTR __imp_??1?$CStringT@DV?$StrTraitMFC_DLL@DV?$ChTraitsCRT@D@ATL@@@@@ATL@@QAE@XZ

; 422  : 		InData.szSTName = szSTName;

  000df	8d 45 f0	 lea	 eax, DWORD PTR _szSTName$5[ebp]
  000e2	50		 push	 eax
  000e3	8d 4d c4	 lea	 ecx, DWORD PTR _InData$2[ebp+4]
  000e6	ff 15 00 00 00
	00		 call	 DWORD PTR __imp_??4?$CStringT@DV?$StrTraitMFC_DLL@DV?$ChTraitsCRT@D@ATL@@@@@ATL@@QAEAAV01@ABV01@@Z

; 423  : 
; 424  : 		CString szFolderName(szRunFile);

  000ec	57		 push	 edi
  000ed	8d 4d ec	 lea	 ecx, DWORD PTR _szFolderName$4[ebp]
  000f0	ff 15 00 00 00
	00		 call	 DWORD PTR __imp_??0?$CStringT@DV?$StrTraitMFC_DLL@DV?$ChTraitsCRT@D@ATL@@@@@ATL@@QAE@ABV01@@Z

; 425  : 		szFolderName = szFolderName.Mid(0, szFolderName.ReverseFind('\\'));

  000f6	6a 5c		 push	 92			; 0000005cH
  000f8	8d 4d ec	 lea	 ecx, DWORD PTR _szFolderName$4[ebp]
  000fb	c6 45 fc 04	 mov	 BYTE PTR __$EHRec$[ebp+8], 4
  000ff	ff 15 00 00 00
	00		 call	 DWORD PTR __imp_?ReverseFind@?$CStringT@DV?$StrTraitMFC_DLL@DV?$ChTraitsCRT@D@ATL@@@@@ATL@@QBEHD@Z
  00105	50		 push	 eax
  00106	6a 00		 push	 0
  00108	8d 45 0c	 lea	 eax, DWORD PTR $T8[ebp]
  0010b	50		 push	 eax
  0010c	8d 4d ec	 lea	 ecx, DWORD PTR _szFolderName$4[ebp]
  0010f	ff 15 00 00 00
	00		 call	 DWORD PTR __imp_?Mid@?$CStringT@DV?$StrTraitMFC_DLL@DV?$ChTraitsCRT@D@ATL@@@@@ATL@@QBE?AV12@HH@Z
  00115	50		 push	 eax
  00116	8d 4d ec	 lea	 ecx, DWORD PTR _szFolderName$4[ebp]
  00119	c6 45 fc 05	 mov	 BYTE PTR __$EHRec$[ebp+8], 5
  0011d	ff 15 00 00 00
	00		 call	 DWORD PTR __imp_??4?$CStringT@DV?$StrTraitMFC_DLL@DV?$ChTraitsCRT@D@ATL@@@@@ATL@@QAEAAV01@ABV01@@Z
  00123	8d 4d 0c	 lea	 ecx, DWORD PTR $T8[ebp]
  00126	c6 45 fc 04	 mov	 BYTE PTR __$EHRec$[ebp+8], 4
  0012a	ff 15 00 00 00
	00		 call	 DWORD PTR __imp_??1?$CStringT@DV?$StrTraitMFC_DLL@DV?$ChTraitsCRT@D@ATL@@@@@ATL@@QAE@XZ

; 426  : 		InData.szSTPath = szFolderName;

  00130	8d 45 ec	 lea	 eax, DWORD PTR _szFolderName$4[ebp]
  00133	50		 push	 eax
  00134	8d 4d c8	 lea	 ecx, DWORD PTR _InData$2[ebp+8]
  00137	ff 15 00 00 00
	00		 call	 DWORD PTR __imp_??4?$CStringT@DV?$StrTraitMFC_DLL@DV?$ChTraitsCRT@D@ATL@@@@@ATL@@QAEAAV01@ABV01@@Z

; 427  : 		GET_LASTFOLDER_NAME(szFolderName, InData.szSTRData);

  0013d	8d 45 ec	 lea	 eax, DWORD PTR _szFolderName$4[ebp]
  00140	50		 push	 eax
  00141	8d 4d 0c	 lea	 ecx, DWORD PTR __strRoot_$7[ebp]
  00144	ff 15 00 00 00
	00		 call	 DWORD PTR __imp_??0?$CStringT@DV?$StrTraitMFC_DLL@DV?$ChTraitsCRT@D@ATL@@@@@ATL@@QAE@ABV01@@Z
  0014a	6a 5c		 push	 92			; 0000005cH
  0014c	8d 4d 0c	 lea	 ecx, DWORD PTR __strRoot_$7[ebp]
  0014f	c6 45 fc 06	 mov	 BYTE PTR __$EHRec$[ebp+8], 6
  00153	ff 15 00 00 00
	00		 call	 DWORD PTR __imp_?ReverseFind@?$CStringT@DV?$StrTraitMFC_DLL@DV?$ChTraitsCRT@D@ATL@@@@@ATL@@QBEHD@Z
  00159	85 c0		 test	 eax, eax
  0015b	7e 26		 jle	 SHORT $LN3@RunST
  0015d	40		 inc	 eax
  0015e	8d 4d 0c	 lea	 ecx, DWORD PTR __strRoot_$7[ebp]
  00161	50		 push	 eax
  00162	8d 45 e8	 lea	 eax, DWORD PTR $T3[ebp]
  00165	50		 push	 eax
  00166	ff 15 00 00 00
	00		 call	 DWORD PTR __imp_?Mid@?$CStringT@DV?$StrTraitMFC_DLL@DV?$ChTraitsCRT@D@ATL@@@@@ATL@@QBE?AV12@H@Z
  0016c	50		 push	 eax
  0016d	8d 4d c0	 lea	 ecx, DWORD PTR _InData$2[ebp]
  00170	c6 45 fc 07	 mov	 BYTE PTR __$EHRec$[ebp+8], 7
  00174	ff 15 00 00 00
	00		 call	 DWORD PTR __imp_??4?$CStringT@DV?$StrTraitMFC_DLL@DV?$ChTraitsCRT@D@ATL@@@@@ATL@@QAEAAV01@ABV01@@Z
  0017a	8d 4d e8	 lea	 ecx, DWORD PTR $T3[ebp]
  0017d	ff 15 00 00 00
	00		 call	 DWORD PTR __imp_??1?$CStringT@DV?$StrTraitMFC_DLL@DV?$ChTraitsCRT@D@ATL@@@@@ATL@@QAE@XZ
$LN3@RunST:
  00183	8d 4d 0c	 lea	 ecx, DWORD PTR __strRoot_$7[ebp]
  00186	c6 45 fc 04	 mov	 BYTE PTR __$EHRec$[ebp+8], 4
  0018a	ff 15 00 00 00
	00		 call	 DWORD PTR __imp_??1?$CStringT@DV?$StrTraitMFC_DLL@DV?$ChTraitsCRT@D@ATL@@@@@ATL@@QAE@XZ

; 428  : 
; 429  : 		int nSTType = -1;
; 430  : 		if((nSTType = szSTName.Find(gSTGubunKey)) != -1)

  00190	6a 00		 push	 0
  00192	6a 5e		 push	 94			; 0000005eH
  00194	8d 4d f0	 lea	 ecx, DWORD PTR _szSTName$5[ebp]
  00197	ff 15 00 00 00
	00		 call	 DWORD PTR __imp_?Find@?$CStringT@DV?$StrTraitMFC_DLL@DV?$ChTraitsCRT@D@ATL@@@@@ATL@@QBEHDH@Z
  0019d	83 f8 ff	 cmp	 eax, -1
  001a0	74 29		 je	 SHORT $LN4@RunST

; 431  : 			szSTName = szSTName.Left(nSTType);

  001a2	50		 push	 eax
  001a3	8d 45 0c	 lea	 eax, DWORD PTR $T6[ebp]
  001a6	50		 push	 eax
  001a7	8d 4d f0	 lea	 ecx, DWORD PTR _szSTName$5[ebp]
  001aa	ff 15 00 00 00
	00		 call	 DWORD PTR __imp_?Left@?$CStringT@DV?$StrTraitMFC_DLL@DV?$ChTraitsCRT@D@ATL@@@@@ATL@@QBE?AV12@H@Z
  001b0	50		 push	 eax
  001b1	8d 4d f0	 lea	 ecx, DWORD PTR _szSTName$5[ebp]
  001b4	c6 45 fc 08	 mov	 BYTE PTR __$EHRec$[ebp+8], 8
  001b8	ff 15 00 00 00
	00		 call	 DWORD PTR __imp_??4?$CStringT@DV?$StrTraitMFC_DLL@DV?$ChTraitsCRT@D@ATL@@@@@ATL@@QAEAAV01@ABV01@@Z
  001be	8d 4d 0c	 lea	 ecx, DWORD PTR $T6[ebp]
  001c1	c6 45 fc 04	 mov	 BYTE PTR __$EHRec$[ebp+8], 4
  001c5	ff 15 00 00 00
	00		 call	 DWORD PTR __imp_??1?$CStringT@DV?$StrTraitMFC_DLL@DV?$ChTraitsCRT@D@ATL@@@@@ATL@@QAE@XZ
$LN4@RunST:

; 432  : 
; 433  : 		//     
; 434  : 		if(m_dlgOutLookBar.m_pSTLoadMnger->GetRunSTItemInfo(szSTName, InData))

  001cb	8d 45 c0	 lea	 eax, DWORD PTR _InData$2[ebp]
  001ce	50		 push	 eax
  001cf	51		 push	 ecx
  001d0	8d 45 f0	 lea	 eax, DWORD PTR _szSTName$5[ebp]
  001d3	8b cc		 mov	 ecx, esp
  001d5	50		 push	 eax
  001d6	ff 15 00 00 00
	00		 call	 DWORD PTR __imp_??0?$CStringT@DV?$StrTraitMFC_DLL@DV?$ChTraitsCRT@D@ATL@@@@@ATL@@QAE@ABV01@@Z
  001dc	8b 8e 08 04 00
	00		 mov	 ecx, DWORD PTR [esi+1032]
  001e2	e8 00 00 00 00	 call	 ?GetRunSTItemInfo@CSTLoadManager@@QAEHV?$CStringT@DV?$StrTraitMFC_DLL@DV?$ChTraitsCRT@D@ATL@@@@@ATL@@AAUSTMNG_ITEMINFO@@@Z ; CSTLoadManager::GetRunSTItemInfo
  001e7	85 c0		 test	 eax, eax
  001e9	74 57		 je	 SHORT $LN5@RunST

; 435  : 			return m_pSTRunMng->RunST(bImsiRun, szRunFile, (LONG)&InData);

  001eb	8b 86 bc 00 00
	00		 mov	 eax, DWORD PTR [esi+188]
  001f1	8d 55 c0	 lea	 edx, DWORD PTR _InData$2[ebp]
  001f4	52		 push	 edx
  001f5	57		 push	 edi
  001f6	ff 75 08	 push	 DWORD PTR _bImsiRun$[ebp]
  001f9	8b 08		 mov	 ecx, DWORD PTR [eax]
  001fb	50		 push	 eax
  001fc	ff 11		 call	 DWORD PTR [ecx]
  001fe	8d 4d ec	 lea	 ecx, DWORD PTR _szFolderName$4[ebp]
  00201	8b f0		 mov	 esi, eax
  00203	ff 15 00 00 00
	00		 call	 DWORD PTR __imp_??1?$CStringT@DV?$StrTraitMFC_DLL@DV?$ChTraitsCRT@D@ATL@@@@@ATL@@QAE@XZ
  00209	8d 4d f0	 lea	 ecx, DWORD PTR _szSTName$5[ebp]
  0020c	ff 15 00 00 00
	00		 call	 DWORD PTR __imp_??1?$CStringT@DV?$StrTraitMFC_DLL@DV?$ChTraitsCRT@D@ATL@@@@@ATL@@QAE@XZ
  00212	8d 4d c8	 lea	 ecx, DWORD PTR _InData$2[ebp+8]
  00215	ff 15 00 00 00
	00		 call	 DWORD PTR __imp_??1?$CStringT@DV?$StrTraitMFC_DLL@DV?$ChTraitsCRT@D@ATL@@@@@ATL@@QAE@XZ
  0021b	8d 4d c4	 lea	 ecx, DWORD PTR _InData$2[ebp+4]
  0021e	ff 15 00 00 00
	00		 call	 DWORD PTR __imp_??1?$CStringT@DV?$StrTraitMFC_DLL@DV?$ChTraitsCRT@D@ATL@@@@@ATL@@QAE@XZ
  00224	8d 4d c0	 lea	 ecx, DWORD PTR _InData$2[ebp]
  00227	ff 15 00 00 00
	00		 call	 DWORD PTR __imp_??1?$CStringT@DV?$StrTraitMFC_DLL@DV?$ChTraitsCRT@D@ATL@@@@@ATL@@QAE@XZ
  0022d	8b c6		 mov	 eax, esi

; 438  : }

  0022f	8b 4d f4	 mov	 ecx, DWORD PTR __$EHRec$[ebp]
  00232	64 89 0d 00 00
	00 00		 mov	 DWORD PTR fs:0, ecx
  00239	59		 pop	 ecx
  0023a	5f		 pop	 edi
  0023b	5e		 pop	 esi
  0023c	8b e5		 mov	 esp, ebp
  0023e	5d		 pop	 ebp
  0023f	c2 08 00	 ret	 8
$LN5@RunST:

; 436  : 	}	

  00242	8d 4d ec	 lea	 ecx, DWORD PTR _szFolderName$4[ebp]
  00245	ff 15 00 00 00
	00		 call	 DWORD PTR __imp_??1?$CStringT@DV?$StrTraitMFC_DLL@DV?$ChTraitsCRT@D@ATL@@@@@ATL@@QAE@XZ
  0024b	8d 4d f0	 lea	 ecx, DWORD PTR _szSTName$5[ebp]
  0024e	ff 15 00 00 00
	00		 call	 DWORD PTR __imp_??1?$CStringT@DV?$StrTraitMFC_DLL@DV?$ChTraitsCRT@D@ATL@@@@@ATL@@QAE@XZ
  00254	8d 4d c8	 lea	 ecx, DWORD PTR _InData$2[ebp+8]
  00257	ff 15 00 00 00
	00		 call	 DWORD PTR __imp_??1?$CStringT@DV?$StrTraitMFC_DLL@DV?$ChTraitsCRT@D@ATL@@@@@ATL@@QAE@XZ
  0025d	8d 4d c4	 lea	 ecx, DWORD PTR _InData$2[ebp+4]
  00260	ff 15 00 00 00
	00		 call	 DWORD PTR __imp_??1?$CStringT@DV?$StrTraitMFC_DLL@DV?$ChTraitsCRT@D@ATL@@@@@ATL@@QAE@XZ
  00266	8d 4d c0	 lea	 ecx, DWORD PTR _InData$2[ebp]
  00269	ff 15 00 00 00
	00		 call	 DWORD PTR __imp_??1?$CStringT@DV?$StrTraitMFC_DLL@DV?$ChTraitsCRT@D@ATL@@@@@ATL@@QAE@XZ
$LN33@RunST:

; 437  : 	return -1;	// Interface  . CDlgStrategyConfigure   .

  0026f	83 c8 ff	 or	 eax, -1

; 438  : }

  00272	8b 4d f4	 mov	 ecx, DWORD PTR __$EHRec$[ebp]
  00275	64 89 0d 00 00
	00 00		 mov	 DWORD PTR fs:0, ecx
  0027c	59		 pop	 ecx
  0027d	5f		 pop	 edi
  0027e	5e		 pop	 esi
  0027f	8b e5		 mov	 esp, ebp
  00281	5d		 pop	 ebp
  00282	c2 08 00	 ret	 8
_TEXT	ENDS
;	COMDAT text$x
text$x	SEGMENT
__unwindfunclet$?RunST@CDlgStrategyConfigure@@QAEHHAAV?$CStringT@DV?$StrTraitMFC_DLL@DV?$ChTraitsCRT@D@ATL@@@@@ATL@@@Z$0:
  00000	8d 4d c0	 lea	 ecx, DWORD PTR _InData$2[ebp]
  00003	e9 00 00 00 00	 jmp	 ??1STMNG_ITEMINFO_EX1@@QAE@XZ
__unwindfunclet$?RunST@CDlgStrategyConfigure@@QAEHHAAV?$CStringT@DV?$StrTraitMFC_DLL@DV?$ChTraitsCRT@D@ATL@@@@@ATL@@@Z$1:
  00008	8d 4d f0	 lea	 ecx, DWORD PTR _szSTName$5[ebp]
  0000b	ff 25 00 00 00
	00		 jmp	 DWORD PTR __imp_??1?$CStringT@DV?$StrTraitMFC_DLL@DV?$ChTraitsCRT@D@ATL@@@@@ATL@@QAE@XZ
__unwindfunclet$?RunST@CDlgStrategyConfigure@@QAEHHAAV?$CStringT@DV?$StrTraitMFC_DLL@DV?$ChTraitsCRT@D@ATL@@@@@ATL@@@Z$2:
  00011	8d 4d 0c	 lea	 ecx, DWORD PTR $T10[ebp]
  00014	ff 25 00 00 00
	00		 jmp	 DWORD PTR __imp_??1?$CStringT@DV?$StrTraitMFC_DLL@DV?$ChTraitsCRT@D@ATL@@@@@ATL@@QAE@XZ
__unwindfunclet$?RunST@CDlgStrategyConfigure@@QAEHHAAV?$CStringT@DV?$StrTraitMFC_DLL@DV?$ChTraitsCRT@D@ATL@@@@@ATL@@@Z$3:
  0001a	8d 4d 0c	 lea	 ecx, DWORD PTR $T9[ebp]
  0001d	ff 25 00 00 00
	00		 jmp	 DWORD PTR __imp_??1?$CStringT@DV?$StrTraitMFC_DLL@DV?$ChTraitsCRT@D@ATL@@@@@ATL@@QAE@XZ
__unwindfunclet$?RunST@CDlgStrategyConfigure@@QAEHHAAV?$CStringT@DV?$StrTraitMFC_DLL@DV?$ChTraitsCRT@D@ATL@@@@@ATL@@@Z$4:
  00023	8d 4d ec	 lea	 ecx, DWORD PTR _szFolderName$4[ebp]
  00026	ff 25 00 00 00
	00		 jmp	 DWORD PTR __imp_??1?$CStringT@DV?$StrTraitMFC_DLL@DV?$ChTraitsCRT@D@ATL@@@@@ATL@@QAE@XZ
__unwindfunclet$?RunST@CDlgStrategyConfigure@@QAEHHAAV?$CStringT@DV?$StrTraitMFC_DLL@DV?$ChTraitsCRT@D@ATL@@@@@ATL@@@Z$5:
  0002c	8d 4d 0c	 lea	 ecx, DWORD PTR $T8[ebp]
  0002f	ff 25 00 00 00
	00		 jmp	 DWORD PTR __imp_??1?$CStringT@DV?$StrTraitMFC_DLL@DV?$ChTraitsCRT@D@ATL@@@@@ATL@@QAE@XZ
__unwindfunclet$?RunST@CDlgStrategyConfigure@@QAEHHAAV?$CStringT@DV?$StrTraitMFC_DLL@DV?$ChTraitsCRT@D@ATL@@@@@ATL@@@Z$6:
  00035	8d 4d 0c	 lea	 ecx, DWORD PTR __strRoot_$7[ebp]
  00038	ff 25 00 00 00
	00		 jmp	 DWORD PTR __imp_??1?$CStringT@DV?$StrTraitMFC_DLL@DV?$ChTraitsCRT@D@ATL@@@@@ATL@@QAE@XZ
__unwindfunclet$?RunST@CDlgStrategyConfigure@@QAEHHAAV?$CStringT@DV?$StrTraitMFC_DLL@DV?$ChTraitsCRT@D@ATL@@@@@ATL@@@Z$7:
  0003e	8d 4d e8	 lea	 ecx, DWORD PTR $T3[ebp]
  00041	ff 25 00 00 00
	00		 jmp	 DWORD PTR __imp_??1?$CStringT@DV?$StrTraitMFC_DLL@DV?$ChTraitsCRT@D@ATL@@@@@ATL@@QAE@XZ
__unwindfunclet$?RunST@CDlgStrategyConfigure@@QAEHHAAV?$CStringT@DV?$StrTraitMFC_DLL@DV?$ChTraitsCRT@D@ATL@@@@@ATL@@@Z$8:
  00047	8d 4d 0c	 lea	 ecx, DWORD PTR $T6[ebp]
  0004a	ff 25 00 00 00
	00		 jmp	 DWORD PTR __imp_??1?$CStringT@DV?$StrTraitMFC_DLL@DV?$ChTraitsCRT@D@ATL@@@@@ATL@@QAE@XZ
  00050	cc		 int	 3
  00051	cc		 int	 3
  00052	cc		 int	 3
  00053	cc		 int	 3
  00054	cc		 int	 3
__ehhandler$?RunST@CDlgStrategyConfigure@@QAEHHAAV?$CStringT@DV?$StrTraitMFC_DLL@DV?$ChTraitsCRT@D@ATL@@@@@ATL@@@Z:
  00055	90		 npad	 1
  00056	90		 npad	 1
  00057	8b 54 24 08	 mov	 edx, DWORD PTR [esp+8]
  0005b	8d 42 0c	 lea	 eax, DWORD PTR [edx+12]
  0005e	8b 4a c0	 mov	 ecx, DWORD PTR [edx-64]
  00061	33 c8		 xor	 ecx, eax
  00063	e8 00 00 00 00	 call	 @__security_check_cookie@4
  00068	b8 00 00 00 00	 mov	 eax, OFFSET __ehfuncinfo$?RunST@CDlgStrategyConfigure@@QAEHHAAV?$CStringT@DV?$StrTraitMFC_DLL@DV?$ChTraitsCRT@D@ATL@@@@@ATL@@@Z
  0006d	e9 00 00 00 00	 jmp	 ___CxxFrameHandler3
text$x	ENDS
?RunST@CDlgStrategyConfigure@@QAEHHAAV?$CStringT@DV?$StrTraitMFC_DLL@DV?$ChTraitsCRT@D@ATL@@@@@ATL@@@Z ENDP ; CDlgStrategyConfigure::RunST
; Function compile flags: /Ogtp
; File D:\git\src\IBK\IBK_DRFN\ProjSrc\SrcDrfn\Chart\HWSTRATEGYCONFIGUREWIZARD\DlgStrategyConfigure.cpp
;	COMDAT ?FormLoad@CDlgStrategyConfigure@@QAEXXZ
_TEXT	SEGMENT
?FormLoad@CDlgStrategyConfigure@@QAEXXZ PROC		; CDlgStrategyConfigure::FormLoad, COMDAT
; _this$ = ecx

; 66   : {

  00000	56		 push	 esi
  00001	8b f1		 mov	 esi, ecx

; 67   : 	Resize(0, 0);
; 68   : 	m_dlgStrategyList.ResizeAll();

  00003	8d 8e 70 04 00
	00		 lea	 ecx, DWORD PTR [esi+1136]
  00009	e8 00 00 00 00	 call	 ?ResizeAll@CDlgStrategyList@@QAEXXZ ; CDlgStrategyList::ResizeAll

; 69   : 	m_dlgOutLookBar.Resize();

  0000e	8d 8e c8 00 00
	00		 lea	 ecx, DWORD PTR [esi+200]
  00014	5e		 pop	 esi
  00015	e9 00 00 00 00	 jmp	 ?Resize@COutLookBarDlg@@QAEXXZ ; COutLookBarDlg::Resize
?FormLoad@CDlgStrategyConfigure@@QAEXXZ ENDP		; CDlgStrategyConfigure::FormLoad
_TEXT	ENDS
; Function compile flags: /Ogtp
; File D:\git\src\IBK\IBK_DRFN\ProjSrc\SrcDrfn\Chart\HWSTRATEGYCONFIGUREWIZARD\DlgStrategyConfigure.cpp
;	COMDAT ?DoDataExchange@CDlgStrategyConfigure@@MAEXPAVCDataExchange@@@Z
_TEXT	SEGMENT
_pDX$ = 8						; size = 4
?DoDataExchange@CDlgStrategyConfigure@@MAEXPAVCDataExchange@@@Z PROC ; CDlgStrategyConfigure::DoDataExchange, COMDAT
; _this$ = ecx

; 49   : 	CDialog::DoDataExchange(pDX);
; 50   : 	//{{AFX_DATA_MAP(CDlgStrategyConfigure)
; 51   : 	//}}AFX_DATA_MAP
; 52   : }

  00000	c2 04 00	 ret	 4
?DoDataExchange@CDlgStrategyConfigure@@MAEXPAVCDataExchange@@@Z ENDP ; CDlgStrategyConfigure::DoDataExchange
_TEXT	ENDS
; Function compile flags: /Ogtp
; File D:\git\src\IBK\IBK_DRFN\ProjSrc\SrcDrfn\Chart\HWSTRATEGYCONFIGUREWIZARD\DlgStrategyConfigure.cpp
; File C:\Program Files (x86)\Microsoft Visual Studio\2019\Community\VC\Tools\MSVC\14.29.30133\atlmfc\include\afxwin2.inl
; File D:\git\src\IBK\IBK_DRFN\ProjSrc\SrcDrfn\Chart\HWSTRATEGYCONFIGUREWIZARD\DlgStrategyConfigure.cpp
;	COMDAT ?PreTranslateMessage@CDlgStrategyConfigure@@UAEHPAUtagMSG@@@Z
_TEXT	SEGMENT
_pMsg$ = 8						; size = 4
?PreTranslateMessage@CDlgStrategyConfigure@@UAEHPAUtagMSG@@@Z PROC ; CDlgStrategyConfigure::PreTranslateMessage, COMDAT
; _this$ = ecx

; 369  : {

  00000	55		 push	 ebp
  00001	8b ec		 mov	 ebp, esp
  00003	56		 push	 esi

; 370  : 	//     		JSJ_Modify_040421
; 371  : 	if(pMsg->message == WM_KEYDOWN)   

  00004	8b 75 08	 mov	 esi, DWORD PTR _pMsg$[ebp]
  00007	57		 push	 edi
  00008	8b f9		 mov	 edi, ecx
  0000a	8b 46 04	 mov	 eax, DWORD PTR [esi+4]
  0000d	3d 00 01 00 00	 cmp	 eax, 256		; 00000100H
  00012	75 3c		 jne	 SHORT $LN2@PreTransla

; 372  : 	{
; 373  : 		if(pMsg->wParam == VK_F4 && (::GetKeyState(VK_CONTROL) & 0x8000))

  00014	83 7e 08 73	 cmp	 DWORD PTR [esi+8], 115	; 00000073H
  00018	75 4c		 jne	 SHORT $LN11@PreTransla
  0001a	6a 11		 push	 17			; 00000011H
  0001c	ff 15 00 00 00
	00		 call	 DWORD PTR __imp__GetKeyState@4
  00022	66 0f ba e0 0f	 bt	 ax, 15			; 0000000fH
  00027	73 3d		 jae	 SHORT $LN11@PreTransla

; 374  : 		{
; 375  : 			pMsg->wParam = VK_ESCAPE;

  00029	c7 46 08 1b 00
	00 00		 mov	 DWORD PTR [esi+8], 27	; 0000001bH
; File C:\Program Files (x86)\Microsoft Visual Studio\2019\Community\VC\Tools\MSVC\14.29.30133\atlmfc\include\afxwin2.inl

; 213  : 	{ ASSERT(::IsWindow(m_hWnd)); return CWnd::FromHandle(::GetParent(m_hWnd)); }

  00030	ff 77 20	 push	 DWORD PTR [edi+32]
  00033	ff 15 00 00 00
	00		 call	 DWORD PTR __imp__GetParent@4
  00039	50		 push	 eax
  0003a	e8 00 00 00 00	 call	 ?FromHandle@CWnd@@SGPAV1@PAUHWND__@@@Z ; CWnd::FromHandle
; File D:\git\src\IBK\IBK_DRFN\ProjSrc\SrcDrfn\Chart\HWSTRATEGYCONFIGUREWIZARD\DlgStrategyConfigure.cpp

; 376  : 			return GetParent()->PreTranslateMessage(pMsg);

  0003f	56		 push	 esi
  00040	8b c8		 mov	 ecx, eax
  00042	8b 10		 mov	 edx, DWORD PTR [eax]
  00044	ff 92 14 01 00
	00		 call	 DWORD PTR [edx+276]
  0004a	5f		 pop	 edi

; 388  : }

  0004b	5e		 pop	 esi
  0004c	5d		 pop	 ebp
  0004d	c2 04 00	 ret	 4
$LN2@PreTransla:

; 377  : 		}
; 378  : 		else
; 379  : 			return FALSE;
; 380  : 	}
; 381  : 	else if(pMsg->message == WM_SYSKEYDOWN)

  00050	3d 04 01 00 00	 cmp	 eax, 260		; 00000104H
  00055	75 17		 jne	 SHORT $LN7@PreTransla

; 382  : 	{
; 383  : 		if( ::GetKeyState(VK_MENU) & 0x8000)

  00057	6a 12		 push	 18			; 00000012H
  00059	ff 15 00 00 00
	00		 call	 DWORD PTR __imp__GetKeyState@4
  0005f	66 0f ba e0 0f	 bt	 ax, 15			; 0000000fH
  00064	73 08		 jae	 SHORT $LN7@PreTransla
$LN11@PreTransla:
  00066	5f		 pop	 edi

; 384  : 			return FALSE;

  00067	33 c0		 xor	 eax, eax

; 388  : }

  00069	5e		 pop	 esi
  0006a	5d		 pop	 ebp
  0006b	c2 04 00	 ret	 4
$LN7@PreTransla:

; 385  : 	}
; 386  : 	
; 387  : 	return CDialog::PreTranslateMessage(pMsg);

  0006e	56		 push	 esi
  0006f	8b cf		 mov	 ecx, edi
  00071	e8 00 00 00 00	 call	 ?PreTranslateMessage@CDialog@@UAEHPAUtagMSG@@@Z ; CDialog::PreTranslateMessage
  00076	5f		 pop	 edi

; 388  : }

  00077	5e		 pop	 esi
  00078	5d		 pop	 ebp
  00079	c2 04 00	 ret	 4
?PreTranslateMessage@CDlgStrategyConfigure@@UAEHPAUtagMSG@@@Z ENDP ; CDlgStrategyConfigure::PreTranslateMessage
_TEXT	ENDS
; Function compile flags: /Ogtp
; File D:\git\src\IBK\IBK_DRFN\ProjSrc\SrcDrfn\Chart\HWSTRATEGYCONFIGUREWIZARD\DlgStrategyConfigure.cpp
;	COMDAT ?CopyBaseScriptFile@CDlgStrategyConfigure@@QAEFXZ
_TEXT	SEGMENT
_szDir$2 = -1068					; size = 4
_aFileFrom$ = -1064					; size = 260
_aFileTo$ = -804					; size = 260
_aKeyFileName$ = -544					; size = 260
_szConfigFile$ = -284					; size = 260
_aKey$ = -24						; size = 5
__$ArrayPad$ = -16					; size = 4
__$EHRec$ = -12						; size = 12
?CopyBaseScriptFile@CDlgStrategyConfigure@@QAEFXZ PROC	; CDlgStrategyConfigure::CopyBaseScriptFile, COMDAT
; _this$ = ecx

; 323  : {

  00000	55		 push	 ebp
  00001	8b ec		 mov	 ebp, esp
  00003	6a ff		 push	 -1
  00005	68 00 00 00 00	 push	 __ehhandler$?CopyBaseScriptFile@CDlgStrategyConfigure@@QAEFXZ
  0000a	64 a1 00 00 00
	00		 mov	 eax, DWORD PTR fs:0
  00010	50		 push	 eax
  00011	81 ec 20 04 00
	00		 sub	 esp, 1056		; 00000420H
  00017	a1 00 00 00 00	 mov	 eax, DWORD PTR ___security_cookie
  0001c	33 c5		 xor	 eax, ebp
  0001e	89 45 f0	 mov	 DWORD PTR __$ArrayPad$[ebp], eax
  00021	53		 push	 ebx
  00022	56		 push	 esi
  00023	57		 push	 edi
  00024	50		 push	 eax
  00025	8d 45 f4	 lea	 eax, DWORD PTR __$EHRec$[ebp]
  00028	64 a3 00 00 00
	00		 mov	 DWORD PTR fs:0, eax
  0002e	8b d9		 mov	 ebx, ecx

; 324  : 	{	//Make Directory
; 325  : 		CString szDir(m_strUserDir);

  00030	8d 83 b8 00 00
	00		 lea	 eax, DWORD PTR [ebx+184]
  00036	50		 push	 eax
  00037	8d 8d d4 fb ff
	ff		 lea	 ecx, DWORD PTR _szDir$2[ebp]
  0003d	ff 15 00 00 00
	00		 call	 DWORD PTR __imp_??0?$CStringT@DV?$StrTraitMFC_DLL@DV?$ChTraitsCRT@D@ATL@@@@@ATL@@QAE@ABV01@@Z

; 326  : 		if (_access(szDir, 0) == -1) ::_mkdir(szDir);

  00043	8b 3d 00 00 00
	00		 mov	 edi, DWORD PTR __imp___access
  00049	6a 00		 push	 0
  0004b	ff b5 d4 fb ff
	ff		 push	 DWORD PTR _szDir$2[ebp]
  00051	c7 45 fc 00 00
	00 00		 mov	 DWORD PTR __$EHRec$[ebp+8], 0
  00058	ff d7		 call	 edi
  0005a	8b 35 00 00 00
	00		 mov	 esi, DWORD PTR __imp___mkdir
  00060	83 c4 08	 add	 esp, 8
  00063	83 f8 ff	 cmp	 eax, -1
  00066	75 0b		 jne	 SHORT $LN5@CopyBaseSc
  00068	ff b5 d4 fb ff
	ff		 push	 DWORD PTR _szDir$2[ebp]
  0006e	ff d6		 call	 esi
  00070	83 c4 04	 add	 esp, 4
$LN5@CopyBaseSc:

; 327  : 
; 328  : 		szDir += "\\STData";

  00073	68 00 00 00 00	 push	 OFFSET ??_C@_07BMIBILFB@?2STData@
  00078	8d 8d d4 fb ff
	ff		 lea	 ecx, DWORD PTR _szDir$2[ebp]
  0007e	ff 15 00 00 00
	00		 call	 DWORD PTR __imp_??Y?$CStringT@DV?$StrTraitMFC_DLL@DV?$ChTraitsCRT@D@ATL@@@@@ATL@@QAEAAV01@PBD@Z

; 329  : 		if (_access(szDir, 0) == -1) ::_mkdir(szDir);

  00084	6a 00		 push	 0
  00086	ff b5 d4 fb ff
	ff		 push	 DWORD PTR _szDir$2[ebp]
  0008c	ff d7		 call	 edi
  0008e	83 c4 08	 add	 esp, 8
  00091	83 f8 ff	 cmp	 eax, -1
  00094	75 0b		 jne	 SHORT $LN6@CopyBaseSc
  00096	ff b5 d4 fb ff
	ff		 push	 DWORD PTR _szDir$2[ebp]
  0009c	ff d6		 call	 esi
  0009e	83 c4 04	 add	 esp, 4
$LN6@CopyBaseSc:

; 330  : 
; 331  : 		szDir += "\\ScriptFiles";

  000a1	68 00 00 00 00	 push	 OFFSET ??_C@_0N@CBLONPMI@?2ScriptFiles@
  000a6	8d 8d d4 fb ff
	ff		 lea	 ecx, DWORD PTR _szDir$2[ebp]
  000ac	ff 15 00 00 00
	00		 call	 DWORD PTR __imp_??Y?$CStringT@DV?$StrTraitMFC_DLL@DV?$ChTraitsCRT@D@ATL@@@@@ATL@@QAEAAV01@PBD@Z

; 332  : 		if (_access(szDir, 0) == -1) ::_mkdir(szDir);

  000b2	6a 00		 push	 0
  000b4	ff b5 d4 fb ff
	ff		 push	 DWORD PTR _szDir$2[ebp]
  000ba	ff d7		 call	 edi
  000bc	83 c4 08	 add	 esp, 8
  000bf	83 f8 ff	 cmp	 eax, -1
  000c2	75 0b		 jne	 SHORT $LN7@CopyBaseSc
  000c4	ff b5 d4 fb ff
	ff		 push	 DWORD PTR _szDir$2[ebp]
  000ca	ff d6		 call	 esi
  000cc	83 c4 04	 add	 esp, 4
$LN7@CopyBaseSc:

; 333  : 	}

  000cf	8d 8d d4 fb ff
	ff		 lea	 ecx, DWORD PTR _szDir$2[ebp]
  000d5	ff 15 00 00 00
	00		 call	 DWORD PTR __imp_??1?$CStringT@DV?$StrTraitMFC_DLL@DV?$ChTraitsCRT@D@ATL@@@@@ATL@@QAE@XZ

; 334  : 	//@Solomon LPCSTR szBaseDir = "Data\\STData";
; 335  : 	LPCSTR szBaseDir = "Icss\\STData";
; 336  : 	LPCSTR szBaseDir2 = "STData\\ScriptFiles";
; 337  : 
; 338  : //	IMainInfoManager* pMng = (IMainInfoManager*)AfxGetPctrInterface(UUID_IMainInfoManager);
; 339  : //	m_strUserDir = pMng->GetEncUserDir();
; 340  : 
; 341  : 	char szConfigFile[MAX_PATH] = {NULL, };

  000db	68 04 01 00 00	 push	 260			; 00000104H
  000e0	8d 85 e4 fe ff
	ff		 lea	 eax, DWORD PTR _szConfigFile$[ebp]
  000e6	6a 00		 push	 0
  000e8	50		 push	 eax
  000e9	e8 00 00 00 00	 call	 _memset

; 342  : 	::wsprintf(szConfigFile, _T("%s\\%s\\STConfig.cfg"), m_strRootPath, szBaseDir);

  000ee	68 00 00 00 00	 push	 OFFSET ??_C@_0M@LCNKCOIE@Icss?2STData@
  000f3	ff b3 ac 00 00
	00		 push	 DWORD PTR [ebx+172]
  000f9	8d 85 e4 fe ff
	ff		 lea	 eax, DWORD PTR _szConfigFile$[ebp]
  000ff	68 00 00 00 00	 push	 OFFSET ??_C@_0BD@OKKEAALJ@?$CFs?2?$CFs?2STConfig?4cfg@
  00104	50		 push	 eax
  00105	ff 15 00 00 00
	00		 call	 DWORD PTR __imp__wsprintfA

; 343  : 
; 344  : 	LPCSTR szSecKey = "LIST";
; 345  : 
; 346  : 	int nCopyNO = ::GetPrivateProfileInt(szSecKey, "CopyNo", 0, szConfigFile);

  0010b	8b 35 00 00 00
	00		 mov	 esi, DWORD PTR __imp__GetPrivateProfileIntA@16
  00111	8d 85 e4 fe ff
	ff		 lea	 eax, DWORD PTR _szConfigFile$[ebp]
  00117	83 c4 1c	 add	 esp, 28			; 0000001cH
  0011a	50		 push	 eax
  0011b	6a 00		 push	 0
  0011d	68 00 00 00 00	 push	 OFFSET ??_C@_06JJFGCKJB@CopyNo@
  00122	68 00 00 00 00	 push	 OFFSET ??_C@_04PCOPKCKE@LIST@
  00127	ff d6		 call	 esi

; 347  : 	if(nCopyNO==100) return 0;

  00129	83 f8 64	 cmp	 eax, 100		; 00000064H
  0012c	75 07		 jne	 SHORT $LN8@CopyBaseSc
  0012e	33 c0		 xor	 eax, eax
  00130	e9 05 01 00 00	 jmp	 $LN1@CopyBaseSc
$LN8@CopyBaseSc:

; 348  : 
; 349  : 	int nCnt = ::GetPrivateProfileInt(szSecKey, "Count", 0, szConfigFile);

  00135	8d 85 e4 fe ff
	ff		 lea	 eax, DWORD PTR _szConfigFile$[ebp]
  0013b	50		 push	 eax
  0013c	6a 00		 push	 0
  0013e	68 00 00 00 00	 push	 OFFSET ??_C@_05IJGIMMHE@Count@
  00143	68 00 00 00 00	 push	 OFFSET ??_C@_04PCOPKCKE@LIST@
  00148	ff d6		 call	 esi

; 350  : 
; 351  : 	char aFileFrom[MAX_PATH]={0,},  aFileTo[MAX_PATH]={0,};

  0014a	68 04 01 00 00	 push	 260			; 00000104H
  0014f	8b f8		 mov	 edi, eax
  00151	8d 85 d8 fb ff
	ff		 lea	 eax, DWORD PTR _aFileFrom$[ebp]
  00157	6a 00		 push	 0
  00159	50		 push	 eax
  0015a	e8 00 00 00 00	 call	 _memset
  0015f	68 04 01 00 00	 push	 260			; 00000104H
  00164	8d 85 dc fc ff
	ff		 lea	 eax, DWORD PTR _aFileTo$[ebp]
  0016a	6a 00		 push	 0
  0016c	50		 push	 eax
  0016d	e8 00 00 00 00	 call	 _memset

; 352  : 	char aKeyFileName[MAX_PATH]={0,};

  00172	68 04 01 00 00	 push	 260			; 00000104H
  00177	8d 85 e0 fd ff
	ff		 lea	 eax, DWORD PTR _aKeyFileName$[ebp]
  0017d	6a 00		 push	 0
  0017f	50		 push	 eax
  00180	e8 00 00 00 00	 call	 _memset
  00185	83 c4 24	 add	 esp, 36			; 00000024H
  00188	33 f6		 xor	 esi, esi

; 353  : 	char aKey[5];
; 354  : 	for(int i=0; i<nCnt; i++)

  0018a	85 ff		 test	 edi, edi
  0018c	0f 8e a5 00 00
	00		 jle	 $LN3@CopyBaseSc
$LL4@CopyBaseSc:

; 355  : 	{
; 356  : 		sprintf(aKey, "%d", i+1);

  00192	46		 inc	 esi
  00193	8d 45 e8	 lea	 eax, DWORD PTR _aKey$[ebp]
  00196	56		 push	 esi
  00197	68 00 00 00 00	 push	 OFFSET ??_C@_02DPKJAMEF@?$CFd@
  0019c	50		 push	 eax
  0019d	e8 00 00 00 00	 call	 _sprintf
  001a2	83 c4 0c	 add	 esp, 12			; 0000000cH

; 357  : 		if(::GetPrivateProfileString(szSecKey, aKey, "", aKeyFileName, MAX_PATH, szConfigFile)>0)

  001a5	8d 85 e4 fe ff
	ff		 lea	 eax, DWORD PTR _szConfigFile$[ebp]
  001ab	50		 push	 eax
  001ac	68 04 01 00 00	 push	 260			; 00000104H
  001b1	8d 85 e0 fd ff
	ff		 lea	 eax, DWORD PTR _aKeyFileName$[ebp]
  001b7	50		 push	 eax
  001b8	68 00 00 00 00	 push	 OFFSET ??_C@_00CNPNBAHC@@
  001bd	8d 45 e8	 lea	 eax, DWORD PTR _aKey$[ebp]
  001c0	50		 push	 eax
  001c1	68 00 00 00 00	 push	 OFFSET ??_C@_04PCOPKCKE@LIST@
  001c6	ff 15 00 00 00
	00		 call	 DWORD PTR __imp__GetPrivateProfileStringA@24
  001cc	85 c0		 test	 eax, eax
  001ce	74 5f		 je	 SHORT $LN2@CopyBaseSc

; 358  : 		{
; 359  : 			//@Solomon sprintf(aFileFrom,	"%s\\Sys\\%s\\high\\%s", m_strRootPath, szBaseDir2, aKeyFileName);
; 360  : 			sprintf(aFileFrom,	"%s\\Icss\\%s\\high\\%s", m_strRootPath, szBaseDir2, aKeyFileName);

  001d0	8d 85 e0 fd ff
	ff		 lea	 eax, DWORD PTR _aKeyFileName$[ebp]
  001d6	50		 push	 eax
  001d7	68 00 00 00 00	 push	 OFFSET ??_C@_0BD@LCMNHFGN@STData?2ScriptFiles@
  001dc	ff b3 ac 00 00
	00		 push	 DWORD PTR [ebx+172]
  001e2	8d 85 d8 fb ff
	ff		 lea	 eax, DWORD PTR _aFileFrom$[ebp]
  001e8	68 00 00 00 00	 push	 OFFSET ??_C@_0BD@KNBAFGDF@?$CFs?2Icss?2?$CFs?2high?2?$CFs@
  001ed	50		 push	 eax
  001ee	e8 00 00 00 00	 call	 _sprintf

; 361  : 			sprintf(aFileTo,	"%s\\%s\\%s", m_strUserDir, szBaseDir2, aKeyFileName);

  001f3	8d 85 e0 fd ff
	ff		 lea	 eax, DWORD PTR _aKeyFileName$[ebp]
  001f9	50		 push	 eax
  001fa	68 00 00 00 00	 push	 OFFSET ??_C@_0BD@LCMNHFGN@STData?2ScriptFiles@
  001ff	ff b3 b8 00 00
	00		 push	 DWORD PTR [ebx+184]
  00205	8d 85 dc fc ff
	ff		 lea	 eax, DWORD PTR _aFileTo$[ebp]
  0020b	68 00 00 00 00	 push	 OFFSET ??_C@_08EFGGCJLD@?$CFs?2?$CFs?2?$CFs@
  00210	50		 push	 eax
  00211	e8 00 00 00 00	 call	 _sprintf
  00216	83 c4 28	 add	 esp, 40			; 00000028H

; 362  : 			CopyFile(aFileFrom, aFileTo, TRUE);

  00219	8d 85 dc fc ff
	ff		 lea	 eax, DWORD PTR _aFileTo$[ebp]
  0021f	6a 01		 push	 1
  00221	50		 push	 eax
  00222	8d 85 d8 fb ff
	ff		 lea	 eax, DWORD PTR _aFileFrom$[ebp]
  00228	50		 push	 eax
  00229	ff 15 00 00 00
	00		 call	 DWORD PTR __imp__CopyFileA@12
$LN2@CopyBaseSc:

; 353  : 	char aKey[5];
; 354  : 	for(int i=0; i<nCnt; i++)

  0022f	3b f7		 cmp	 esi, edi
  00231	0f 8c 5b ff ff
	ff		 jl	 $LL4@CopyBaseSc
$LN3@CopyBaseSc:

; 363  : 		}
; 364  : 	}
; 365  : 	return nCnt;

  00237	66 8b c7	 mov	 ax, di
$LN1@CopyBaseSc:

; 366  : }

  0023a	8b 4d f4	 mov	 ecx, DWORD PTR __$EHRec$[ebp]
  0023d	64 89 0d 00 00
	00 00		 mov	 DWORD PTR fs:0, ecx
  00244	59		 pop	 ecx
  00245	5f		 pop	 edi
  00246	5e		 pop	 esi
  00247	5b		 pop	 ebx
  00248	8b 4d f0	 mov	 ecx, DWORD PTR __$ArrayPad$[ebp]
  0024b	33 cd		 xor	 ecx, ebp
  0024d	e8 00 00 00 00	 call	 @__security_check_cookie@4
  00252	8b e5		 mov	 esp, ebp
  00254	5d		 pop	 ebp
  00255	c3		 ret	 0
_TEXT	ENDS
;	COMDAT text$x
text$x	SEGMENT
__unwindfunclet$?CopyBaseScriptFile@CDlgStrategyConfigure@@QAEFXZ$0:
  00000	8d 8d d4 fb ff
	ff		 lea	 ecx, DWORD PTR _szDir$2[ebp]
  00006	ff 25 00 00 00
	00		 jmp	 DWORD PTR __imp_??1?$CStringT@DV?$StrTraitMFC_DLL@DV?$ChTraitsCRT@D@ATL@@@@@ATL@@QAE@XZ
  0000c	cc		 int	 3
  0000d	cc		 int	 3
  0000e	cc		 int	 3
  0000f	cc		 int	 3
  00010	cc		 int	 3
__ehhandler$?CopyBaseScriptFile@CDlgStrategyConfigure@@QAEFXZ:
  00011	90		 npad	 1
  00012	90		 npad	 1
  00013	8b 54 24 08	 mov	 edx, DWORD PTR [esp+8]
  00017	8d 42 0c	 lea	 eax, DWORD PTR [edx+12]
  0001a	8b 8a d0 fb ff
	ff		 mov	 ecx, DWORD PTR [edx-1072]
  00020	33 c8		 xor	 ecx, eax
  00022	e8 00 00 00 00	 call	 @__security_check_cookie@4
  00027	8b 4a fc	 mov	 ecx, DWORD PTR [edx-4]
  0002a	33 c8		 xor	 ecx, eax
  0002c	e8 00 00 00 00	 call	 @__security_check_cookie@4
  00031	b8 00 00 00 00	 mov	 eax, OFFSET __ehfuncinfo$?CopyBaseScriptFile@CDlgStrategyConfigure@@QAEFXZ
  00036	e9 00 00 00 00	 jmp	 ___CxxFrameHandler3
text$x	ENDS
?CopyBaseScriptFile@CDlgStrategyConfigure@@QAEFXZ ENDP	; CDlgStrategyConfigure::CopyBaseScriptFile
; Function compile flags: /Ogtp
; File D:\git\src\IBK\IBK_DRFN\ProjSrc\SrcDrfn\Chart\HWSTRATEGYCONFIGUREWIZARD\DlgStrategyConfigure.cpp
; File C:\Program Files (x86)\Microsoft Visual Studio\2019\Community\VC\Tools\MSVC\14.29.30133\atlmfc\include\cstringt.h
; File D:\git\src\IBK\IBK_DRFN\ProjSrc\SrcDrfn\Chart\HWSTRATEGYCONFIGUREWIZARD\DlgStrategyConfigure.cpp
; File C:\Program Files (x86)\Microsoft Visual Studio\2019\Community\VC\Tools\MSVC\14.29.30133\atlmfc\include\cstringt.h
; File C:\Program Files (x86)\Microsoft Visual Studio\2019\Community\VC\Tools\MSVC\14.29.30133\atlmfc\include\atlsimpstr.h
; File C:\Program Files (x86)\Microsoft Visual Studio\2019\Community\VC\Tools\MSVC\14.29.30133\atlmfc\include\cstringt.h
; File D:\git\src\IBK\IBK_DRFN\ProjSrc\SrcDrfn\Chart\HWSTRATEGYCONFIGUREWIZARD\DlgStrategyConfigure.cpp
; File C:\Program Files (x86)\Microsoft Visual Studio\2019\Community\VC\Tools\MSVC\14.29.30133\atlmfc\include\afxwin2.inl
; File D:\git\src\IBK\IBK_DRFN\ProjSrc\SrcDrfn\Chart\HWSTRATEGYCONFIGUREWIZARD\DlgStrategyConfigure.cpp
; File C:\Program Files (x86)\Microsoft Visual Studio\2019\Community\VC\Tools\MSVC\14.29.30133\atlmfc\include\afxwin2.inl
; File D:\git\src\IBK\IBK_DRFN\ProjSrc\SrcDrfn\Chart\HWSTRATEGYCONFIGUREWIZARD\DlgStrategyConfigure.cpp
; File D:\git\src\IBK\IBK_DRFN\ProjSrc\SrcDrfn\inc\IBaseDefine.h
; File D:\git\src\IBK\IBK_DRFN\ProjSrc\SrcDrfn\Chart\HWSTRATEGYCONFIGUREWIZARD\DlgStrategyConfigure.cpp
; File C:\Program Files (x86)\Microsoft Visual Studio\2019\Community\VC\Tools\MSVC\14.29.30133\atlmfc\include\atlsimpstr.h
; File D:\git\src\IBK\IBK_DRFN\ProjSrc\SrcDrfn\Chart\HWSTRATEGYCONFIGUREWIZARD\DlgStrategyConfigure.cpp
; File C:\Program Files (x86)\Microsoft Visual Studio\2019\Community\VC\Tools\MSVC\14.29.30133\atlmfc\include\atlsimpstr.h
; File D:\git\src\IBK\IBK_DRFN\ProjSrc\SrcDrfn\Chart\HWSTRATEGYCONFIGUREWIZARD\DlgStrategyConfigure.cpp
;	COMDAT ?LoadEditor@CDlgStrategyConfigure@@QAEXV?$CStringT@DV?$StrTraitMFC_DLL@DV?$ChTraitsCRT@D@ATL@@@@@ATL@@@Z
_TEXT	SEGMENT
_copyData$ = -320					; size = 12
_szSystemTradingPath$ = -308				; size = 4
_szOption$2 = -304					; size = 4
_szClipFormat$3 = -300					; size = 4
_hMain$4 = -296						; size = 4
$T5 = -296						; size = 4
_szScriptPath$6 = -292					; size = 4
$T7 = -292						; size = 4
_szConfigFile$8 = -288					; size = 260
_aBufWnd$9 = -28					; size = 9
__$ArrayPad$ = -16					; size = 4
__$EHRec$ = -12						; size = 12
_szScriptName$ = 8					; size = 4
?LoadEditor@CDlgStrategyConfigure@@QAEXV?$CStringT@DV?$StrTraitMFC_DLL@DV?$ChTraitsCRT@D@ATL@@@@@ATL@@@Z PROC ; CDlgStrategyConfigure::LoadEditor, COMDAT
; _this$ = ecx

; 252  : {

  00000	55		 push	 ebp
  00001	8b ec		 mov	 ebp, esp
  00003	6a ff		 push	 -1
  00005	68 00 00 00 00	 push	 __ehhandler$?LoadEditor@CDlgStrategyConfigure@@QAEXV?$CStringT@DV?$StrTraitMFC_DLL@DV?$ChTraitsCRT@D@ATL@@@@@ATL@@@Z
  0000a	64 a1 00 00 00
	00		 mov	 eax, DWORD PTR fs:0
  00010	50		 push	 eax
  00011	81 ec 34 01 00
	00		 sub	 esp, 308		; 00000134H
  00017	a1 00 00 00 00	 mov	 eax, DWORD PTR ___security_cookie
  0001c	33 c5		 xor	 eax, ebp
  0001e	89 45 f0	 mov	 DWORD PTR __$ArrayPad$[ebp], eax
  00021	53		 push	 ebx
  00022	56		 push	 esi
  00023	57		 push	 edi
  00024	50		 push	 eax
  00025	8d 45 f4	 lea	 eax, DWORD PTR __$EHRec$[ebp]
  00028	64 a3 00 00 00
	00		 mov	 DWORD PTR fs:0, eax
  0002e	8b f9		 mov	 edi, ecx
  00030	c7 85 d8 fe ff
	ff 00 00 00 00	 mov	 DWORD PTR $T5[ebp], 0
  0003a	c7 45 fc 00 00
	00 00		 mov	 DWORD PTR __$EHRec$[ebp+8], 0

; 253  : 	CopyBaseScriptFile();

  00041	e8 00 00 00 00	 call	 ?CopyBaseScriptFile@CDlgStrategyConfigure@@QAEFXZ ; CDlgStrategyConfigure::CopyBaseScriptFile

; 254  : 
; 255  : 	CWnd *pFrameWnd = GetParentFrame();

  00046	8b cf		 mov	 ecx, edi
  00048	e8 00 00 00 00	 call	 ?GetParentFrame@CWnd@@QBEPAVCFrameWnd@@XZ ; CWnd::GetParentFrame

; 256  : 
; 257  : 	CString szSystemTradingPath;

  0004d	8d 8d cc fe ff
	ff		 lea	 ecx, DWORD PTR _szSystemTradingPath$[ebp]
  00053	ff 15 00 00 00
	00		 call	 DWORD PTR __imp_??0?$CStringT@DV?$StrTraitMFC_DLL@DV?$ChTraitsCRT@D@ATL@@@@@ATL@@QAE@XZ
; File C:\Program Files (x86)\Microsoft Visual Studio\2019\Community\VC\Tools\MSVC\14.29.30133\atlmfc\include\cstringt.h

; 2401 : 		CStringT strResult( str1.GetManager() );

  00059	8d 8f ac 00 00
	00		 lea	 ecx, DWORD PTR [edi+172]
; File D:\git\src\IBK\IBK_DRFN\ProjSrc\SrcDrfn\Chart\HWSTRATEGYCONFIGUREWIZARD\DlgStrategyConfigure.cpp

; 263  : 	szSystemTradingPath = m_strRootPath + "\\dev\\SystemTrading.exe";

  0005f	c6 45 fc 02	 mov	 BYTE PTR __$EHRec$[ebp+8], 2
; File C:\Program Files (x86)\Microsoft Visual Studio\2019\Community\VC\Tools\MSVC\14.29.30133\atlmfc\include\cstringt.h

; 2401 : 		CStringT strResult( str1.GetManager() );

  00063	ff 15 00 00 00
	00		 call	 DWORD PTR __imp_?GetManager@?$CStringT@DV?$StrTraitMFC_DLL@DV?$ChTraitsCRT@D@ATL@@@@@ATL@@QBEPAUIAtlStringMgr@2@XZ
  00069	50		 push	 eax
  0006a	8d 8d dc fe ff
	ff		 lea	 ecx, DWORD PTR $T7[ebp]
  00070	ff 15 00 00 00
	00		 call	 DWORD PTR __imp_??0?$CStringT@DV?$StrTraitMFC_DLL@DV?$ChTraitsCRT@D@ATL@@@@@ATL@@QAE@PAUIAtlStringMgr@1@@Z
; File C:\Program Files (x86)\Microsoft Visual Studio\2019\Community\VC\Tools\MSVC\14.29.30133\atlmfc\include\atlsimpstr.h

; 519  : 		return( GetData()->nDataLength );

  00076	8b 87 ac 00 00
	00		 mov	 eax, DWORD PTR [edi+172]
; File C:\Program Files (x86)\Microsoft Visual Studio\2019\Community\VC\Tools\MSVC\14.29.30133\atlmfc\include\cstringt.h

; 2403 : 		CThisSimpleString::Concatenate( strResult, str1, str1.GetLength(), psz2, CThisSimpleString::StringLength( psz2 ) );

  0007c	6a 16		 push	 22			; 00000016H
  0007e	68 00 00 00 00	 push	 OFFSET ??_C@_0BH@FLLLIEBF@?2dev?2SystemTrading?4exe@

; 2404 : 
; 2405 : 		return( strResult );

  00083	c7 85 d8 fe ff
	ff 01 00 00 00	 mov	 DWORD PTR $T5[ebp], 1
  0008d	ff 70 f4	 push	 DWORD PTR [eax-12]
  00090	50		 push	 eax
  00091	8d 85 dc fe ff
	ff		 lea	 eax, DWORD PTR $T7[ebp]
  00097	50		 push	 eax
  00098	ff 15 00 00 00
	00		 call	 DWORD PTR __imp_?Concatenate@?$CSimpleStringT@D$00@ATL@@KAXAAV12@PBDH1H@Z
  0009e	83 c4 14	 add	 esp, 20			; 00000014H
; File D:\git\src\IBK\IBK_DRFN\ProjSrc\SrcDrfn\Chart\HWSTRATEGYCONFIGUREWIZARD\DlgStrategyConfigure.cpp

; 263  : 	szSystemTradingPath = m_strRootPath + "\\dev\\SystemTrading.exe";

  000a1	8d 85 dc fe ff
	ff		 lea	 eax, DWORD PTR $T7[ebp]
  000a7	8d 8d cc fe ff
	ff		 lea	 ecx, DWORD PTR _szSystemTradingPath$[ebp]
  000ad	50		 push	 eax
  000ae	ff 15 00 00 00
	00		 call	 DWORD PTR __imp_??4?$CStringT@DV?$StrTraitMFC_DLL@DV?$ChTraitsCRT@D@ATL@@@@@ATL@@QAEAAV01@ABV01@@Z
  000b4	8d 8d dc fe ff
	ff		 lea	 ecx, DWORD PTR $T7[ebp]
  000ba	c6 45 fc 01	 mov	 BYTE PTR __$EHRec$[ebp+8], 1
  000be	ff 15 00 00 00
	00		 call	 DWORD PTR __imp_??1?$CStringT@DV?$StrTraitMFC_DLL@DV?$ChTraitsCRT@D@ATL@@@@@ATL@@QAE@XZ
; File C:\Program Files (x86)\Microsoft Visual Studio\2019\Community\VC\Tools\MSVC\14.29.30133\atlmfc\include\afxwin2.inl

; 198  : 	{ return CWnd::FromHandle(::FindWindow(lpszClassName, lpszWindowName)); }

  000c4	68 00 00 00 00	 push	 OFFSET ??_C@_0BG@MJHFLBP@Solomon?5SystemTrading@
  000c9	6a 00		 push	 0
  000cb	ff 15 00 00 00
	00		 call	 DWORD PTR __imp__FindWindowA@8
  000d1	50		 push	 eax
  000d2	e8 00 00 00 00	 call	 ?FromHandle@CWnd@@SGPAV1@PAUHWND__@@@Z ; CWnd::FromHandle
; File D:\git\src\IBK\IBK_DRFN\ProjSrc\SrcDrfn\Chart\HWSTRATEGYCONFIGUREWIZARD\DlgStrategyConfigure.cpp

; 266  : 	CWnd* pWndCompiler = FindWindow(NULL, _T("Solomon SystemTrading"));

  000d7	8b f0		 mov	 esi, eax

; 267  : 	COPYDATASTRUCT copyData;
; 268  : 	if(pWndCompiler)

  000d9	85 f6		 test	 esi, esi
  000db	74 47		 je	 SHORT $LN2@LoadEditor

; 269  : 	{
; 270  : 		
; 271  : 		copyData.dwData = 1000;
; 272  : 		copyData.cbData = ::lstrlen(szScriptName) + sizeof(DWORD);

  000dd	ff 75 08	 push	 DWORD PTR _szScriptName$[ebp]
  000e0	c7 85 c0 fe ff
	ff e8 03 00 00	 mov	 DWORD PTR _copyData$[ebp], 1000 ; 000003e8H
  000ea	ff 15 00 00 00
	00		 call	 DWORD PTR __imp__lstrlenA@4
  000f0	83 c0 04	 add	 eax, 4
  000f3	89 85 c4 fe ff
	ff		 mov	 DWORD PTR _copyData$[ebp+4], eax

; 273  : 		copyData.lpData = (void*)(LPCSTR)szScriptName;

  000f9	8b 45 08	 mov	 eax, DWORD PTR _szScriptName$[ebp]
  000fc	89 85 c8 fe ff
	ff		 mov	 DWORD PTR _copyData$[ebp+8], eax
; File C:\Program Files (x86)\Microsoft Visual Studio\2019\Community\VC\Tools\MSVC\14.29.30133\atlmfc\include\afxwin2.inl

; 32   : 	{ ASSERT(::IsWindow(m_hWnd)); return ::SendMessage(m_hWnd, message, wParam, lParam); }

  00102	8d 85 c0 fe ff
	ff		 lea	 eax, DWORD PTR _copyData$[ebp]
  00108	50		 push	 eax
  00109	6a 00		 push	 0
  0010b	6a 4a		 push	 74			; 0000004aH
  0010d	ff 76 20	 push	 DWORD PTR [esi+32]
  00110	ff 15 00 00 00
	00		 call	 DWORD PTR __imp__SendMessageA@16

; 253  : 	{ ASSERT(::IsWindow(m_hWnd)); return ::SetForegroundWindow(m_hWnd); }

  00116	ff 76 20	 push	 DWORD PTR [esi+32]
  00119	ff 15 00 00 00
	00		 call	 DWORD PTR __imp__SetForegroundWindow@4
; File D:\git\src\IBK\IBK_DRFN\ProjSrc\SrcDrfn\Chart\HWSTRATEGYCONFIGUREWIZARD\DlgStrategyConfigure.cpp

; 278  : 	}

  0011f	e9 63 01 00 00	 jmp	 $LN3@LoadEditor
$LN2@LoadEditor:
  00124	0f 57 c0	 xorps	 xmm0, xmm0
; File D:\git\src\IBK\IBK_DRFN\ProjSrc\SrcDrfn\inc\IBaseDefine.h

; 245  : 	AfxGetHanaroMainWnd(hMain);

  00127	c7 85 d8 fe ff
	ff 00 00 00 00	 mov	 DWORD PTR _hMain$4[ebp], 0
  00131	8d 8d d4 fe ff
	ff		 lea	 ecx, DWORD PTR _szClipFormat$3[ebp]
  00137	66 0f d6 45 e4	 movq	 QWORD PTR _aBufWnd$9[ebp], xmm0
  0013c	c6 45 ec 00	 mov	 BYTE PTR _aBufWnd$9[ebp+8], 0
  00140	ff 15 00 00 00
	00		 call	 DWORD PTR __imp_??0?$CStringT@DV?$StrTraitMFC_DLL@DV?$ChTraitsCRT@D@ATL@@@@@ATL@@QAE@XZ
  00146	68 00 00 00 00	 push	 OFFSET ??_C@_0M@CBBNGGHM@PcTrMng?4dll@
  0014b	c6 45 fc 03	 mov	 BYTE PTR __$EHRec$[ebp+8], 3
  0014f	ff 15 00 00 00
	00		 call	 DWORD PTR __imp__GetModuleHandleA@4
  00155	8b 35 00 00 00
	00		 mov	 esi, DWORD PTR __imp_?Format@?$CStringT@DV?$StrTraitMFC_DLL@DV?$ChTraitsCRT@D@ATL@@@@@ATL@@QAAXPBDZZ
  0015b	50		 push	 eax
  0015c	68 00 00 00 00	 push	 OFFSET ??_C@_0P@IDMAJEGN@HANAROPCTRMAIN@
  00161	8d 85 d4 fe ff
	ff		 lea	 eax, DWORD PTR _szClipFormat$3[ebp]
  00167	68 00 00 00 00	 push	 OFFSET ??_C@_06NDLAHCHE@?$CFs?$CF08X@
  0016c	50		 push	 eax
  0016d	ff d6		 call	 esi
  0016f	83 c4 10	 add	 esp, 16			; 00000010H
  00172	8d 45 e4	 lea	 eax, DWORD PTR _aBufWnd$9[ebp]
  00175	6a 09		 push	 9
  00177	50		 push	 eax
  00178	ff b5 d4 fe ff
	ff		 push	 DWORD PTR _szClipFormat$3[ebp]
  0017e	ff 15 00 00 00
	00		 call	 DWORD PTR __imp__GetEnvironmentVariableA@12
  00184	8d 85 d8 fe ff
	ff		 lea	 eax, DWORD PTR _hMain$4[ebp]
  0018a	50		 push	 eax
  0018b	8d 45 e4	 lea	 eax, DWORD PTR _aBufWnd$9[ebp]
  0018e	68 00 00 00 00	 push	 OFFSET ??_C@_02EMFKHFLK@?$CFX@
  00193	50		 push	 eax
  00194	e8 00 00 00 00	 call	 _sscanf
  00199	83 c4 0c	 add	 esp, 12			; 0000000cH
  0019c	8d 8d d4 fe ff
	ff		 lea	 ecx, DWORD PTR _szClipFormat$3[ebp]
  001a2	ff 15 00 00 00
	00		 call	 DWORD PTR __imp_??1?$CStringT@DV?$StrTraitMFC_DLL@DV?$ChTraitsCRT@D@ATL@@@@@ATL@@QAE@XZ
; File D:\git\src\IBK\IBK_DRFN\ProjSrc\SrcDrfn\Chart\HWSTRATEGYCONFIGUREWIZARD\DlgStrategyConfigure.cpp

; 286  : 		char szConfigFile[MAX_PATH] = {NULL, };

  001a8	68 04 01 00 00	 push	 260			; 00000104H
  001ad	8d 85 e0 fe ff
	ff		 lea	 eax, DWORD PTR _szConfigFile$8[ebp]
  001b3	6a 00		 push	 0
  001b5	50		 push	 eax
  001b6	e8 00 00 00 00	 call	 _memset

; 287  : 		char szIP[16] = {NULL, };
; 288  : 		::wsprintf(szConfigFile, _T("%s\\%s\\STConfig.cfg"), m_strRootPath, szBaseDir);

  001bb	68 00 00 00 00	 push	 OFFSET ??_C@_0M@LCNKCOIE@Icss?2STData@
  001c0	ff b7 ac 00 00
	00		 push	 DWORD PTR [edi+172]
  001c6	8d 85 e0 fe ff
	ff		 lea	 eax, DWORD PTR _szConfigFile$8[ebp]
  001cc	68 00 00 00 00	 push	 OFFSET ??_C@_0BD@OKKEAALJ@?$CFs?2?$CFs?2STConfig?4cfg@
  001d1	50		 push	 eax
  001d2	ff 15 00 00 00
	00		 call	 DWORD PTR __imp__wsprintfA
  001d8	83 c4 1c	 add	 esp, 28			; 0000001cH

; 290  : 		CString szScriptPath;

  001db	8d 8d dc fe ff
	ff		 lea	 ecx, DWORD PTR _szScriptPath$6[ebp]
  001e1	ff 15 00 00 00
	00		 call	 DWORD PTR __imp_??0?$CStringT@DV?$StrTraitMFC_DLL@DV?$ChTraitsCRT@D@ATL@@@@@ATL@@QAE@XZ
; File C:\Program Files (x86)\Microsoft Visual Studio\2019\Community\VC\Tools\MSVC\14.29.30133\atlmfc\include\atlsimpstr.h

; 519  : 		return( GetData()->nDataLength );

  001e7	8b 45 08	 mov	 eax, DWORD PTR _szScriptName$[ebp]
; File D:\git\src\IBK\IBK_DRFN\ProjSrc\SrcDrfn\Chart\HWSTRATEGYCONFIGUREWIZARD\DlgStrategyConfigure.cpp

; 290  : 		CString szScriptPath;

  001ea	c6 45 fc 04	 mov	 BYTE PTR __$EHRec$[ebp+8], 4
; File C:\Program Files (x86)\Microsoft Visual Studio\2019\Community\VC\Tools\MSVC\14.29.30133\atlmfc\include\atlsimpstr.h

; 533  : 		return( GetLength() == 0 );

  001ee	83 78 f4 00	 cmp	 DWORD PTR [eax-12], 0
; File D:\git\src\IBK\IBK_DRFN\ProjSrc\SrcDrfn\Chart\HWSTRATEGYCONFIGUREWIZARD\DlgStrategyConfigure.cpp

; 291  : 		if(szScriptName.IsEmpty())

  001f2	75 19		 jne	 SHORT $LN4@LoadEditor

; 292  : 			szScriptPath.Format(_T("/U\"%s\""), m_strUserDir);

  001f4	ff b7 b8 00 00
	00		 push	 DWORD PTR [edi+184]
  001fa	8d 85 dc fe ff
	ff		 lea	 eax, DWORD PTR _szScriptPath$6[ebp]
  00200	68 00 00 00 00	 push	 OFFSET ??_C@_06NKMNEDPB@?1U?$CC?$CFs?$CC@
  00205	50		 push	 eax
  00206	ff d6		 call	 esi
  00208	83 c4 0c	 add	 esp, 12			; 0000000cH
  0020b	eb 18		 jmp	 SHORT $LN5@LoadEditor
$LN4@LoadEditor:

; 293  : 		else
; 294  : 			szScriptPath.Format(_T("/U\"%s\" /S\"%s\""), m_strUserDir, szScriptName);

  0020d	50		 push	 eax
  0020e	ff b7 b8 00 00
	00		 push	 DWORD PTR [edi+184]
  00214	8d 85 dc fe ff
	ff		 lea	 eax, DWORD PTR _szScriptPath$6[ebp]
  0021a	68 00 00 00 00	 push	 OFFSET ??_C@_0O@IENINOAD@?1U?$CC?$CFs?$CC?5?1S?$CC?$CFs?$CC@
  0021f	50		 push	 eax
  00220	ff d6		 call	 esi
  00222	83 c4 10	 add	 esp, 16			; 00000010H
$LN5@LoadEditor:

; 295  : 
; 296  : 		CString szOption;

  00225	8d 8d d0 fe ff
	ff		 lea	 ecx, DWORD PTR _szOption$2[ebp]
  0022b	ff 15 00 00 00
	00		 call	 DWORD PTR __imp_??0?$CStringT@DV?$StrTraitMFC_DLL@DV?$ChTraitsCRT@D@ATL@@@@@ATL@@QAE@XZ

; 297  : 		szOption.Format("%s|%08X",szScriptPath,h_pctr);

  00231	ff b5 d8 fe ff
	ff		 push	 DWORD PTR _hMain$4[ebp]
  00237	8d 85 d0 fe ff
	ff		 lea	 eax, DWORD PTR _szOption$2[ebp]
  0023d	c6 45 fc 05	 mov	 BYTE PTR __$EHRec$[ebp+8], 5
  00241	ff b5 dc fe ff
	ff		 push	 DWORD PTR _szScriptPath$6[ebp]
  00247	68 00 00 00 00	 push	 OFFSET ??_C@_07CLDLHAAJ@?$CFs?$HM?$CF08X@
  0024c	50		 push	 eax
  0024d	ff d6		 call	 esi
  0024f	83 c4 10	 add	 esp, 16			; 00000010H

; 298  : 
; 299  : 		::ShellExecute(NULL, _T("open"), szSystemTradingPath, szOption, NULL, SW_SHOWMAXIMIZED);

  00252	6a 03		 push	 3
  00254	6a 00		 push	 0
  00256	ff b5 d0 fe ff
	ff		 push	 DWORD PTR _szOption$2[ebp]
  0025c	ff b5 cc fe ff
	ff		 push	 DWORD PTR _szSystemTradingPath$[ebp]
  00262	68 00 00 00 00	 push	 OFFSET ??_C@_04PMOCAHAA@open@
  00267	6a 00		 push	 0
  00269	ff 15 00 00 00
	00		 call	 DWORD PTR __imp__ShellExecuteA@24

; 300  : 
; 301  : //		AfxMessageBox(szSystemTradingPath);
; 302  : 
; 303  : //		IMainInfoManager* pMainMng = (IMainInfoManager*)AfxGetPctrInterface(UUID_IMainInfoManager);
; 304  : //
; 305  : //		//    ( 10 :  Client, 11 :  HTS)
; 306  : //		CString szConnClssCode = pMainMng->GetMainData("ISHTS", "");
; 307  : //		if(szConnClssCode.Compare("10") == 0)
; 308  : //		{
; 309  : //			::GetPrivateProfileString(_T("CONNECT"), _T("BPIP"), _T("10.204.10.101"), szIP, sizeof(szIP), szConfigFile);
; 310  : //		}
; 311  : //		else
; 312  : //		{
; 313  : //			::GetPrivateProfileString(_T("CONNECT"), _T("HTSIP"), _T("211.255.203.238"), szIP, sizeof(szIP), szConfigFile);
; 314  : //		}
; 315  : //		::WritePrivateProfileString(_T("CONNECT"), _T("IP"), szIP, szConfigFile);
; 316  : 		
; 317  : 	}

  0026f	8d 8d d0 fe ff
	ff		 lea	 ecx, DWORD PTR _szOption$2[ebp]
  00275	ff 15 00 00 00
	00		 call	 DWORD PTR __imp_??1?$CStringT@DV?$StrTraitMFC_DLL@DV?$ChTraitsCRT@D@ATL@@@@@ATL@@QAE@XZ
  0027b	8d 8d dc fe ff
	ff		 lea	 ecx, DWORD PTR _szScriptPath$6[ebp]
  00281	ff 15 00 00 00
	00		 call	 DWORD PTR __imp_??1?$CStringT@DV?$StrTraitMFC_DLL@DV?$ChTraitsCRT@D@ATL@@@@@ATL@@QAE@XZ
$LN3@LoadEditor:

; 318  : }

  00287	8d 8d cc fe ff
	ff		 lea	 ecx, DWORD PTR _szSystemTradingPath$[ebp]
  0028d	ff 15 00 00 00
	00		 call	 DWORD PTR __imp_??1?$CStringT@DV?$StrTraitMFC_DLL@DV?$ChTraitsCRT@D@ATL@@@@@ATL@@QAE@XZ
  00293	8d 4d 08	 lea	 ecx, DWORD PTR _szScriptName$[ebp]
  00296	ff 15 00 00 00
	00		 call	 DWORD PTR __imp_??1?$CStringT@DV?$StrTraitMFC_DLL@DV?$ChTraitsCRT@D@ATL@@@@@ATL@@QAE@XZ
  0029c	8b 4d f4	 mov	 ecx, DWORD PTR __$EHRec$[ebp]
  0029f	64 89 0d 00 00
	00 00		 mov	 DWORD PTR fs:0, ecx
  002a6	59		 pop	 ecx
  002a7	5f		 pop	 edi
  002a8	5e		 pop	 esi
  002a9	5b		 pop	 ebx
  002aa	8b 4d f0	 mov	 ecx, DWORD PTR __$ArrayPad$[ebp]
  002ad	33 cd		 xor	 ecx, ebp
  002af	e8 00 00 00 00	 call	 @__security_check_cookie@4
  002b4	8b e5		 mov	 esp, ebp
  002b6	5d		 pop	 ebp
  002b7	c2 04 00	 ret	 4
_TEXT	ENDS
;	COMDAT text$x
text$x	SEGMENT
__unwindfunclet$?LoadEditor@CDlgStrategyConfigure@@QAEXV?$CStringT@DV?$StrTraitMFC_DLL@DV?$ChTraitsCRT@D@ATL@@@@@ATL@@@Z$0:
  00000	8d 4d 08	 lea	 ecx, DWORD PTR _szScriptName$[ebp]
  00003	ff 25 00 00 00
	00		 jmp	 DWORD PTR __imp_??1?$CStringT@DV?$StrTraitMFC_DLL@DV?$ChTraitsCRT@D@ATL@@@@@ATL@@QAE@XZ
__unwindfunclet$?LoadEditor@CDlgStrategyConfigure@@QAEXV?$CStringT@DV?$StrTraitMFC_DLL@DV?$ChTraitsCRT@D@ATL@@@@@ATL@@@Z$1:
  00009	8d 8d cc fe ff
	ff		 lea	 ecx, DWORD PTR _szSystemTradingPath$[ebp]
  0000f	ff 25 00 00 00
	00		 jmp	 DWORD PTR __imp_??1?$CStringT@DV?$StrTraitMFC_DLL@DV?$ChTraitsCRT@D@ATL@@@@@ATL@@QAE@XZ
__unwindfunclet$?LoadEditor@CDlgStrategyConfigure@@QAEXV?$CStringT@DV?$StrTraitMFC_DLL@DV?$ChTraitsCRT@D@ATL@@@@@ATL@@@Z$5:
  00015	8b 85 d8 fe ff
	ff		 mov	 eax, DWORD PTR $T5[ebp]
  0001b	83 e0 01	 and	 eax, 1
  0001e	0f 84 13 00 00
	00		 je	 $LN15@LoadEditor
  00024	83 a5 d8 fe ff
	ff fe		 and	 DWORD PTR $T5[ebp], -2	; fffffffeH
  0002b	8d 8d dc fe ff
	ff		 lea	 ecx, DWORD PTR $T7[ebp]
  00031	ff 25 00 00 00
	00		 jmp	 DWORD PTR __imp_??1?$CStringT@DV?$StrTraitMFC_DLL@DV?$ChTraitsCRT@D@ATL@@@@@ATL@@QAE@XZ
$LN15@LoadEditor:
  00037	c3		 ret	 0
__unwindfunclet$?LoadEditor@CDlgStrategyConfigure@@QAEXV?$CStringT@DV?$StrTraitMFC_DLL@DV?$ChTraitsCRT@D@ATL@@@@@ATL@@@Z$6:
  00038	8d 8d d4 fe ff
	ff		 lea	 ecx, DWORD PTR _szClipFormat$3[ebp]
  0003e	ff 25 00 00 00
	00		 jmp	 DWORD PTR __imp_??1?$CStringT@DV?$StrTraitMFC_DLL@DV?$ChTraitsCRT@D@ATL@@@@@ATL@@QAE@XZ
__unwindfunclet$?LoadEditor@CDlgStrategyConfigure@@QAEXV?$CStringT@DV?$StrTraitMFC_DLL@DV?$ChTraitsCRT@D@ATL@@@@@ATL@@@Z$3:
  00044	8d 8d dc fe ff
	ff		 lea	 ecx, DWORD PTR _szScriptPath$6[ebp]
  0004a	ff 25 00 00 00
	00		 jmp	 DWORD PTR __imp_??1?$CStringT@DV?$StrTraitMFC_DLL@DV?$ChTraitsCRT@D@ATL@@@@@ATL@@QAE@XZ
__unwindfunclet$?LoadEditor@CDlgStrategyConfigure@@QAEXV?$CStringT@DV?$StrTraitMFC_DLL@DV?$ChTraitsCRT@D@ATL@@@@@ATL@@@Z$4:
  00050	8d 8d d0 fe ff
	ff		 lea	 ecx, DWORD PTR _szOption$2[ebp]
  00056	ff 25 00 00 00
	00		 jmp	 DWORD PTR __imp_??1?$CStringT@DV?$StrTraitMFC_DLL@DV?$ChTraitsCRT@D@ATL@@@@@ATL@@QAE@XZ
  0005c	cc		 int	 3
  0005d	cc		 int	 3
  0005e	cc		 int	 3
  0005f	cc		 int	 3
  00060	cc		 int	 3
__ehhandler$?LoadEditor@CDlgStrategyConfigure@@QAEXV?$CStringT@DV?$StrTraitMFC_DLL@DV?$ChTraitsCRT@D@ATL@@@@@ATL@@@Z:
  00061	90		 npad	 1
  00062	90		 npad	 1
  00063	8b 54 24 08	 mov	 edx, DWORD PTR [esp+8]
  00067	8d 42 0c	 lea	 eax, DWORD PTR [edx+12]
  0006a	8b 8a bc fe ff
	ff		 mov	 ecx, DWORD PTR [edx-324]
  00070	33 c8		 xor	 ecx, eax
  00072	e8 00 00 00 00	 call	 @__security_check_cookie@4
  00077	8b 4a fc	 mov	 ecx, DWORD PTR [edx-4]
  0007a	33 c8		 xor	 ecx, eax
  0007c	e8 00 00 00 00	 call	 @__security_check_cookie@4
  00081	b8 00 00 00 00	 mov	 eax, OFFSET __ehfuncinfo$?LoadEditor@CDlgStrategyConfigure@@QAEXV?$CStringT@DV?$StrTraitMFC_DLL@DV?$ChTraitsCRT@D@ATL@@@@@ATL@@@Z
  00086	e9 00 00 00 00	 jmp	 ___CxxFrameHandler3
text$x	ENDS
?LoadEditor@CDlgStrategyConfigure@@QAEXV?$CStringT@DV?$StrTraitMFC_DLL@DV?$ChTraitsCRT@D@ATL@@@@@ATL@@@Z ENDP ; CDlgStrategyConfigure::LoadEditor
; Function compile flags: /Ogtp
; File D:\git\src\IBK\IBK_DRFN\ProjSrc\SrcDrfn\Chart\HWSTRATEGYCONFIGUREWIZARD\DlgStrategyConfigure.cpp
;	COMDAT ?UpdateSTList@CDlgStrategyConfigure@@QAEXHV?$CStringT@DV?$StrTraitMFC_DLL@DV?$ChTraitsCRT@D@ATL@@@@@ATL@@@Z
_TEXT	SEGMENT
__$EHRec$ = -12						; size = 12
_nState$ = 8						; size = 4
_szSTPath$ = 12						; size = 4
?UpdateSTList@CDlgStrategyConfigure@@QAEXHV?$CStringT@DV?$StrTraitMFC_DLL@DV?$ChTraitsCRT@D@ATL@@@@@ATL@@@Z PROC ; CDlgStrategyConfigure::UpdateSTList, COMDAT
; _this$ = ecx

; 247  : {

  00000	55		 push	 ebp
  00001	8b ec		 mov	 ebp, esp
  00003	6a ff		 push	 -1
  00005	68 00 00 00 00	 push	 __ehhandler$?UpdateSTList@CDlgStrategyConfigure@@QAEXHV?$CStringT@DV?$StrTraitMFC_DLL@DV?$ChTraitsCRT@D@ATL@@@@@ATL@@@Z
  0000a	64 a1 00 00 00
	00		 mov	 eax, DWORD PTR fs:0
  00010	50		 push	 eax
  00011	51		 push	 ecx
  00012	56		 push	 esi
  00013	a1 00 00 00 00	 mov	 eax, DWORD PTR ___security_cookie
  00018	33 c5		 xor	 eax, ebp
  0001a	50		 push	 eax
  0001b	8d 45 f4	 lea	 eax, DWORD PTR __$EHRec$[ebp]
  0001e	64 a3 00 00 00
	00		 mov	 DWORD PTR fs:0, eax
  00024	8b f1		 mov	 esi, ecx

; 248  : 	m_dlgOutLookBar.UpdateSTList(nState, szSTPath);

  00026	51		 push	 ecx
  00027	8d 45 0c	 lea	 eax, DWORD PTR _szSTPath$[ebp]
  0002a	c7 45 fc 00 00
	00 00		 mov	 DWORD PTR __$EHRec$[ebp+8], 0
  00031	8b cc		 mov	 ecx, esp
  00033	50		 push	 eax
  00034	ff 15 00 00 00
	00		 call	 DWORD PTR __imp_??0?$CStringT@DV?$StrTraitMFC_DLL@DV?$ChTraitsCRT@D@ATL@@@@@ATL@@QAE@ABV01@@Z
  0003a	ff 75 08	 push	 DWORD PTR _nState$[ebp]
  0003d	8d 8e c8 00 00
	00		 lea	 ecx, DWORD PTR [esi+200]
  00043	e8 00 00 00 00	 call	 ?UpdateSTList@COutLookBarDlg@@QAEXHV?$CStringT@DV?$StrTraitMFC_DLL@DV?$ChTraitsCRT@D@ATL@@@@@ATL@@@Z ; COutLookBarDlg::UpdateSTList

; 249  : }

  00048	8d 4d 0c	 lea	 ecx, DWORD PTR _szSTPath$[ebp]
  0004b	ff 15 00 00 00
	00		 call	 DWORD PTR __imp_??1?$CStringT@DV?$StrTraitMFC_DLL@DV?$ChTraitsCRT@D@ATL@@@@@ATL@@QAE@XZ
  00051	8b 4d f4	 mov	 ecx, DWORD PTR __$EHRec$[ebp]
  00054	64 89 0d 00 00
	00 00		 mov	 DWORD PTR fs:0, ecx
  0005b	59		 pop	 ecx
  0005c	5e		 pop	 esi
  0005d	8b e5		 mov	 esp, ebp
  0005f	5d		 pop	 ebp
  00060	c2 08 00	 ret	 8
_TEXT	ENDS
;	COMDAT text$x
text$x	SEGMENT
__unwindfunclet$?UpdateSTList@CDlgStrategyConfigure@@QAEXHV?$CStringT@DV?$StrTraitMFC_DLL@DV?$ChTraitsCRT@D@ATL@@@@@ATL@@@Z$0:
  00000	8d 4d 0c	 lea	 ecx, DWORD PTR _szSTPath$[ebp]
  00003	ff 25 00 00 00
	00		 jmp	 DWORD PTR __imp_??1?$CStringT@DV?$StrTraitMFC_DLL@DV?$ChTraitsCRT@D@ATL@@@@@ATL@@QAE@XZ
  00009	cc		 int	 3
  0000a	cc		 int	 3
  0000b	cc		 int	 3
  0000c	cc		 int	 3
  0000d	cc		 int	 3
__ehhandler$?UpdateSTList@CDlgStrategyConfigure@@QAEXHV?$CStringT@DV?$StrTraitMFC_DLL@DV?$ChTraitsCRT@D@ATL@@@@@ATL@@@Z:
  0000e	90		 npad	 1
  0000f	90		 npad	 1
  00010	8b 54 24 08	 mov	 edx, DWORD PTR [esp+8]
  00014	8d 42 0c	 lea	 eax, DWORD PTR [edx+12]
  00017	8b 4a f4	 mov	 ecx, DWORD PTR [edx-12]
  0001a	33 c8		 xor	 ecx, eax
  0001c	e8 00 00 00 00	 call	 @__security_check_cookie@4
  00021	b8 00 00 00 00	 mov	 eax, OFFSET __ehfuncinfo$?UpdateSTList@CDlgStrategyConfigure@@QAEXHV?$CStringT@DV?$StrTraitMFC_DLL@DV?$ChTraitsCRT@D@ATL@@@@@ATL@@@Z
  00026	e9 00 00 00 00	 jmp	 ___CxxFrameHandler3
text$x	ENDS
?UpdateSTList@CDlgStrategyConfigure@@QAEXHV?$CStringT@DV?$StrTraitMFC_DLL@DV?$ChTraitsCRT@D@ATL@@@@@ATL@@@Z ENDP ; CDlgStrategyConfigure::UpdateSTList
; Function compile flags: /Ogtp
; File D:\git\src\IBK\IBK_DRFN\ProjSrc\SrcDrfn\Chart\HWSTRATEGYCONFIGUREWIZARD\DlgStrategyConfigure.cpp
;	COMDAT ??0CDlgStrategyConfigure@@QAE@PAVCWnd@@@Z
_TEXT	SEGMENT
_this$ = -16						; size = 4
__$EHRec$ = -12						; size = 12
_pParent$ = 8						; size = 4
??0CDlgStrategyConfigure@@QAE@PAVCWnd@@@Z PROC		; CDlgStrategyConfigure::CDlgStrategyConfigure, COMDAT
; _this$ = ecx

; 37   : {

  00000	55		 push	 ebp
  00001	8b ec		 mov	 ebp, esp
  00003	6a ff		 push	 -1
  00005	68 00 00 00 00	 push	 __ehhandler$??0CDlgStrategyConfigure@@QAE@PAVCWnd@@@Z
  0000a	64 a1 00 00 00
	00		 mov	 eax, DWORD PTR fs:0
  00010	50		 push	 eax
  00011	51		 push	 ecx
  00012	56		 push	 esi
  00013	a1 00 00 00 00	 mov	 eax, DWORD PTR ___security_cookie
  00018	33 c5		 xor	 eax, ebp
  0001a	50		 push	 eax
  0001b	8d 45 f4	 lea	 eax, DWORD PTR __$EHRec$[ebp]
  0001e	64 a3 00 00 00
	00		 mov	 DWORD PTR fs:0, eax
  00024	8b f1		 mov	 esi, ecx
  00026	89 75 f0	 mov	 DWORD PTR _this$[ebp], esi

; 36   : 	: CDialog(CDlgStrategyConfigure::IDD, pParent)

  00029	ff 75 08	 push	 DWORD PTR _pParent$[ebp]
  0002c	68 78 69 00 00	 push	 27000			; 00006978H
  00031	e8 00 00 00 00	 call	 ??0CDialog@@QAE@IPAVCWnd@@@Z ; CDialog::CDialog

; 37   : {

  00036	8d 8e a8 00 00
	00		 lea	 ecx, DWORD PTR [esi+168]
  0003c	c7 45 fc 00 00
	00 00		 mov	 DWORD PTR __$EHRec$[ebp+8], 0
  00043	c7 06 00 00 00
	00		 mov	 DWORD PTR [esi], OFFSET ??_7CDlgStrategyConfigure@@6B@
  00049	ff 15 00 00 00
	00		 call	 DWORD PTR __imp_??0?$CStringT@DV?$StrTraitMFC_DLL@DV?$ChTraitsCRT@D@ATL@@@@@ATL@@QAE@XZ
  0004f	8d 8e ac 00 00
	00		 lea	 ecx, DWORD PTR [esi+172]
  00055	ff 15 00 00 00
	00		 call	 DWORD PTR __imp_??0?$CStringT@DV?$StrTraitMFC_DLL@DV?$ChTraitsCRT@D@ATL@@@@@ATL@@QAE@XZ
  0005b	8d 8e b0 00 00
	00		 lea	 ecx, DWORD PTR [esi+176]
  00061	ff 15 00 00 00
	00		 call	 DWORD PTR __imp_??0?$CStringT@DV?$StrTraitMFC_DLL@DV?$ChTraitsCRT@D@ATL@@@@@ATL@@QAE@XZ
  00067	8d 8e b4 00 00
	00		 lea	 ecx, DWORD PTR [esi+180]
  0006d	ff 15 00 00 00
	00		 call	 DWORD PTR __imp_??0?$CStringT@DV?$StrTraitMFC_DLL@DV?$ChTraitsCRT@D@ATL@@@@@ATL@@QAE@XZ
  00073	8d 8e b8 00 00
	00		 lea	 ecx, DWORD PTR [esi+184]
  00079	ff 15 00 00 00
	00		 call	 DWORD PTR __imp_??0?$CStringT@DV?$StrTraitMFC_DLL@DV?$ChTraitsCRT@D@ATL@@@@@ATL@@QAE@XZ
  0007f	6a 00		 push	 0
  00081	8d 8e c8 00 00
	00		 lea	 ecx, DWORD PTR [esi+200]
  00087	c6 45 fc 05	 mov	 BYTE PTR __$EHRec$[ebp+8], 5
  0008b	e8 00 00 00 00	 call	 ??0COutLookBarDlg@@QAE@PAVCWnd@@@Z ; COutLookBarDlg::COutLookBarDlg
  00090	6a 00		 push	 0
  00092	8d 8e 70 04 00
	00		 lea	 ecx, DWORD PTR [esi+1136]
  00098	c6 45 fc 06	 mov	 BYTE PTR __$EHRec$[ebp+8], 6
  0009c	e8 00 00 00 00	 call	 ??0CDlgStrategyList@@QAE@PAVCWnd@@@Z ; CDlgStrategyList::CDlgStrategyList
  000a1	8d 8e 80 1b 00
	00		 lea	 ecx, DWORD PTR [esi+7040]
  000a7	ff 15 00 00 00
	00		 call	 DWORD PTR __imp_??0?$CStringT@DV?$StrTraitMFC_DLL@DV?$ChTraitsCRT@D@ATL@@@@@ATL@@QAE@XZ

; 38   : 	//{{AFX_DATA_INIT(CDlgStrategyConfigure)
; 39   : 		// NOTE: the ClassWizard will add member initialization here
; 40   : 	//}}AFX_DATA_INIT
; 41   : 	m_nWidthOfOutBar = 158;

  000ad	c7 86 c0 00 00
	00 9e 00 00 00	 mov	 DWORD PTR [esi+192], 158 ; 0000009eH

; 42   : 	m_pSTRunMng = NULL;
; 43   : 	m_pIAUDataMonitorManager = NULL;
; 44   : 	m_dwIAUDataMonitorManager = NULL;
; 45   : }

  000b7	8b c6		 mov	 eax, esi
  000b9	c7 86 bc 00 00
	00 00 00 00 00	 mov	 DWORD PTR [esi+188], 0
  000c3	c7 86 84 1b 00
	00 00 00 00 00	 mov	 DWORD PTR [esi+7044], 0
  000cd	c7 86 88 1b 00
	00 00 00 00 00	 mov	 DWORD PTR [esi+7048], 0
  000d7	8b 4d f4	 mov	 ecx, DWORD PTR __$EHRec$[ebp]
  000da	64 89 0d 00 00
	00 00		 mov	 DWORD PTR fs:0, ecx
  000e1	59		 pop	 ecx
  000e2	5e		 pop	 esi
  000e3	8b e5		 mov	 esp, ebp
  000e5	5d		 pop	 ebp
  000e6	c2 04 00	 ret	 4
_TEXT	ENDS
;	COMDAT text$x
text$x	SEGMENT
__unwindfunclet$??0CDlgStrategyConfigure@@QAE@PAVCWnd@@@Z$0:
  00000	8b 4d f0	 mov	 ecx, DWORD PTR _this$[ebp]
  00003	e9 00 00 00 00	 jmp	 ??1CDialog@@UAE@XZ	; CDialog::~CDialog
__unwindfunclet$??0CDlgStrategyConfigure@@QAE@PAVCWnd@@@Z$1:
  00008	8b 4d f0	 mov	 ecx, DWORD PTR _this$[ebp]
  0000b	81 c1 a8 00 00
	00		 add	 ecx, 168		; 000000a8H
  00011	ff 25 00 00 00
	00		 jmp	 DWORD PTR __imp_??1?$CStringT@DV?$StrTraitMFC_DLL@DV?$ChTraitsCRT@D@ATL@@@@@ATL@@QAE@XZ
__unwindfunclet$??0CDlgStrategyConfigure@@QAE@PAVCWnd@@@Z$2:
  00017	8b 4d f0	 mov	 ecx, DWORD PTR _this$[ebp]
  0001a	81 c1 ac 00 00
	00		 add	 ecx, 172		; 000000acH
  00020	ff 25 00 00 00
	00		 jmp	 DWORD PTR __imp_??1?$CStringT@DV?$StrTraitMFC_DLL@DV?$ChTraitsCRT@D@ATL@@@@@ATL@@QAE@XZ
__unwindfunclet$??0CDlgStrategyConfigure@@QAE@PAVCWnd@@@Z$3:
  00026	8b 4d f0	 mov	 ecx, DWORD PTR _this$[ebp]
  00029	81 c1 b0 00 00
	00		 add	 ecx, 176		; 000000b0H
  0002f	ff 25 00 00 00
	00		 jmp	 DWORD PTR __imp_??1?$CStringT@DV?$StrTraitMFC_DLL@DV?$ChTraitsCRT@D@ATL@@@@@ATL@@QAE@XZ
__unwindfunclet$??0CDlgStrategyConfigure@@QAE@PAVCWnd@@@Z$4:
  00035	8b 4d f0	 mov	 ecx, DWORD PTR _this$[ebp]
  00038	81 c1 b4 00 00
	00		 add	 ecx, 180		; 000000b4H
  0003e	ff 25 00 00 00
	00		 jmp	 DWORD PTR __imp_??1?$CStringT@DV?$StrTraitMFC_DLL@DV?$ChTraitsCRT@D@ATL@@@@@ATL@@QAE@XZ
__unwindfunclet$??0CDlgStrategyConfigure@@QAE@PAVCWnd@@@Z$5:
  00044	8b 4d f0	 mov	 ecx, DWORD PTR _this$[ebp]
  00047	81 c1 b8 00 00
	00		 add	 ecx, 184		; 000000b8H
  0004d	ff 25 00 00 00
	00		 jmp	 DWORD PTR __imp_??1?$CStringT@DV?$StrTraitMFC_DLL@DV?$ChTraitsCRT@D@ATL@@@@@ATL@@QAE@XZ
__unwindfunclet$??0CDlgStrategyConfigure@@QAE@PAVCWnd@@@Z$6:
  00053	8b 4d f0	 mov	 ecx, DWORD PTR _this$[ebp]
  00056	81 c1 c8 00 00
	00		 add	 ecx, 200		; 000000c8H
  0005c	e9 00 00 00 00	 jmp	 ??1COutLookBarDlg@@UAE@XZ ; COutLookBarDlg::~COutLookBarDlg
  00061	cc		 int	 3
  00062	cc		 int	 3
  00063	cc		 int	 3
  00064	cc		 int	 3
  00065	cc		 int	 3
__ehhandler$??0CDlgStrategyConfigure@@QAE@PAVCWnd@@@Z:
  00066	90		 npad	 1
  00067	90		 npad	 1
  00068	8b 54 24 08	 mov	 edx, DWORD PTR [esp+8]
  0006c	8d 42 0c	 lea	 eax, DWORD PTR [edx+12]
  0006f	8b 4a f4	 mov	 ecx, DWORD PTR [edx-12]
  00072	33 c8		 xor	 ecx, eax
  00074	e8 00 00 00 00	 call	 @__security_check_cookie@4
  00079	b8 00 00 00 00	 mov	 eax, OFFSET __ehfuncinfo$??0CDlgStrategyConfigure@@QAE@PAVCWnd@@@Z
  0007e	e9 00 00 00 00	 jmp	 ___CxxFrameHandler3
text$x	ENDS
??0CDlgStrategyConfigure@@QAE@PAVCWnd@@@Z ENDP		; CDlgStrategyConfigure::CDlgStrategyConfigure
; Function compile flags: /Ogtp
; File C:\Program Files (x86)\Microsoft Visual Studio\2019\Community\VC\Tools\MSVC\14.29.30133\atlmfc\include\afxwin1.inl
;	COMDAT ??1CDlgStrategyList@@UAE@XZ
_TEXT	SEGMENT
??1CDlgStrategyList@@UAE@XZ PROC			; CDlgStrategyList::~CDlgStrategyList, COMDAT
; _this$ = ecx

; 130  : 	{ }

  00000	56		 push	 esi
  00001	57		 push	 edi
  00002	8b f9		 mov	 edi, ecx
  00004	8d 8f 00 17 00
	00		 lea	 ecx, DWORD PTR [edi+5888]
  0000a	c7 01 00 00 00
	00		 mov	 DWORD PTR [ecx], OFFSET ??_7CBrush@@6B@
  00010	e8 00 00 00 00	 call	 ??1CGdiObject@@UAE@XZ	; CGdiObject::~CGdiObject
  00015	8d 8f ec 16 00
	00		 lea	 ecx, DWORD PTR [edi+5868]
  0001b	c7 01 00 00 00
	00		 mov	 DWORD PTR [ecx], OFFSET ??_7CBrush@@6B@
  00021	e8 00 00 00 00	 call	 ??1CGdiObject@@UAE@XZ	; CGdiObject::~CGdiObject
  00026	8d 8f 50 16 00
	00		 lea	 ecx, DWORD PTR [edi+5712]
  0002c	e8 00 00 00 00	 call	 ??1CExEdit@@UAE@XZ	; CExEdit::~CExEdit
  00031	8d 8f c0 15 00
	00		 lea	 ecx, DWORD PTR [edi+5568]
  00037	e8 00 00 00 00	 call	 ??1CExDrawButton@@UAE@XZ ; CExDrawButton::~CExDrawButton
  0003c	8d 8f 38 15 00
	00		 lea	 ecx, DWORD PTR [edi+5432]
  00042	e8 00 00 00 00	 call	 ??1CExEdit@@UAE@XZ	; CExEdit::~CExEdit
  00047	8d 8f 90 14 00
	00		 lea	 ecx, DWORD PTR [edi+5264]
  0004d	e8 00 00 00 00	 call	 ??1CDialog@@UAE@XZ	; CDialog::~CDialog
  00052	8d 8f 74 14 00
	00		 lea	 ecx, DWORD PTR [edi+5236]

; 155  : 	{ }

  00058	c7 01 00 00 00
	00		 mov	 DWORD PTR [ecx], OFFSET ??_7CFont@@6B@
  0005e	e8 00 00 00 00	 call	 ??1CGdiObject@@UAE@XZ	; CGdiObject::~CGdiObject
  00063	8d 8f 68 14 00
	00		 lea	 ecx, DWORD PTR [edi+5224]
  00069	ff 15 00 00 00
	00		 call	 DWORD PTR __imp_??1?$CStringT@DV?$StrTraitMFC_DLL@DV?$ChTraitsCRT@D@ATL@@@@@ATL@@QAE@XZ
  0006f	8d 8f d8 0f 00
	00		 lea	 ecx, DWORD PTR [edi+4056]
  00075	e8 00 00 00 00	 call	 ??1CGridCtrl@@UAE@XZ	; CGridCtrl::~CGridCtrl
  0007a	8d 8f d0 0f 00
	00		 lea	 ecx, DWORD PTR [edi+4048]
  00080	ff 15 00 00 00
	00		 call	 DWORD PTR __imp_??1?$CStringT@DV?$StrTraitMFC_DLL@DV?$ChTraitsCRT@D@ATL@@@@@ATL@@QAE@XZ
  00086	8d 8f cc 0f 00
	00		 lea	 ecx, DWORD PTR [edi+4044]
  0008c	ff 15 00 00 00
	00		 call	 DWORD PTR __imp_??1?$CStringT@DV?$StrTraitMFC_DLL@DV?$ChTraitsCRT@D@ATL@@@@@ATL@@QAE@XZ
  00092	8d 8f c8 0f 00
	00		 lea	 ecx, DWORD PTR [edi+4040]
  00098	ff 15 00 00 00
	00		 call	 DWORD PTR __imp_??1?$CStringT@DV?$StrTraitMFC_DLL@DV?$ChTraitsCRT@D@ATL@@@@@ATL@@QAE@XZ
  0009e	8d 8f c4 0f 00
	00		 lea	 ecx, DWORD PTR [edi+4036]
  000a4	ff 15 00 00 00
	00		 call	 DWORD PTR __imp_??1?$CStringT@DV?$StrTraitMFC_DLL@DV?$ChTraitsCRT@D@ATL@@@@@ATL@@QAE@XZ
  000aa	8d 8f c0 0f 00
	00		 lea	 ecx, DWORD PTR [edi+4032]
  000b0	ff 15 00 00 00
	00		 call	 DWORD PTR __imp_??1?$CStringT@DV?$StrTraitMFC_DLL@DV?$ChTraitsCRT@D@ATL@@@@@ATL@@QAE@XZ
  000b6	8d 8f 18 0e 00
	00		 lea	 ecx, DWORD PTR [edi+3608]
  000bc	e8 00 00 00 00	 call	 ??1CXListCtrl@@UAE@XZ	; CXListCtrl::~CXListCtrl
  000c1	8d 8f 88 0d 00
	00		 lea	 ecx, DWORD PTR [edi+3464]
  000c7	e8 00 00 00 00	 call	 ??1CExDrawButton@@UAE@XZ ; CExDrawButton::~CExDrawButton
  000cc	8d 8f f8 0c 00
	00		 lea	 ecx, DWORD PTR [edi+3320]
  000d2	e8 00 00 00 00	 call	 ??1CExDrawButton@@UAE@XZ ; CExDrawButton::~CExDrawButton
  000d7	8d 8f 68 0c 00
	00		 lea	 ecx, DWORD PTR [edi+3176]
  000dd	e8 00 00 00 00	 call	 ??1CExDrawButton@@UAE@XZ ; CExDrawButton::~CExDrawButton
  000e2	8d 8f d8 0b 00
	00		 lea	 ecx, DWORD PTR [edi+3032]
  000e8	e8 00 00 00 00	 call	 ??1CExDrawButton@@UAE@XZ ; CExDrawButton::~CExDrawButton
  000ed	8d 8f 48 0b 00
	00		 lea	 ecx, DWORD PTR [edi+2888]
  000f3	e8 00 00 00 00	 call	 ??1CExDrawButton@@UAE@XZ ; CExDrawButton::~CExDrawButton
  000f8	8d 8f b8 0a 00
	00		 lea	 ecx, DWORD PTR [edi+2744]
  000fe	e8 00 00 00 00	 call	 ??1CExDrawButton@@UAE@XZ ; CExDrawButton::~CExDrawButton
  00103	8d 8f 28 0a 00
	00		 lea	 ecx, DWORD PTR [edi+2600]
  00109	e8 00 00 00 00	 call	 ??1CExDrawButton@@UAE@XZ ; CExDrawButton::~CExDrawButton
  0010e	8d 8f 98 09 00
	00		 lea	 ecx, DWORD PTR [edi+2456]
  00114	e8 00 00 00 00	 call	 ??1CExDrawButton@@UAE@XZ ; CExDrawButton::~CExDrawButton
  00119	8d 8f 08 09 00
	00		 lea	 ecx, DWORD PTR [edi+2312]
  0011f	e8 00 00 00 00	 call	 ??1CExDrawButton@@UAE@XZ ; CExDrawButton::~CExDrawButton
  00124	8d 8f 78 08 00
	00		 lea	 ecx, DWORD PTR [edi+2168]
  0012a	e8 00 00 00 00	 call	 ??1CExDrawButton@@UAE@XZ ; CExDrawButton::~CExDrawButton
  0012f	8d 8f e8 07 00
	00		 lea	 ecx, DWORD PTR [edi+2024]
  00135	e8 00 00 00 00	 call	 ??1CExDrawButton@@UAE@XZ ; CExDrawButton::~CExDrawButton
  0013a	8d 8f 58 07 00
	00		 lea	 ecx, DWORD PTR [edi+1880]
  00140	e8 00 00 00 00	 call	 ??1CExDrawButton@@UAE@XZ ; CExDrawButton::~CExDrawButton
  00145	8d 8f c8 06 00
	00		 lea	 ecx, DWORD PTR [edi+1736]
  0014b	e8 00 00 00 00	 call	 ??1CExDrawButton@@UAE@XZ ; CExDrawButton::~CExDrawButton
  00150	8d 8f 38 06 00
	00		 lea	 ecx, DWORD PTR [edi+1592]
  00156	e8 00 00 00 00	 call	 ??1CExDrawButton@@UAE@XZ ; CExDrawButton::~CExDrawButton
  0015b	8d 8f a8 05 00
	00		 lea	 ecx, DWORD PTR [edi+1448]
  00161	e8 00 00 00 00	 call	 ??1CExDrawButton@@UAE@XZ ; CExDrawButton::~CExDrawButton
  00166	8d 8f 18 05 00
	00		 lea	 ecx, DWORD PTR [edi+1304]
  0016c	e8 00 00 00 00	 call	 ??1CExDrawButton@@UAE@XZ ; CExDrawButton::~CExDrawButton
  00171	8d 8f 88 04 00
	00		 lea	 ecx, DWORD PTR [edi+1160]
  00177	e8 00 00 00 00	 call	 ??1CExDrawButton@@UAE@XZ ; CExDrawButton::~CExDrawButton
  0017c	8d 8f f8 03 00
	00		 lea	 ecx, DWORD PTR [edi+1016]
  00182	e8 00 00 00 00	 call	 ??1CExDrawButton@@UAE@XZ ; CExDrawButton::~CExDrawButton
  00187	8d 8f 68 03 00
	00		 lea	 ecx, DWORD PTR [edi+872]
  0018d	e8 00 00 00 00	 call	 ??1CExDrawButton@@UAE@XZ ; CExDrawButton::~CExDrawButton
  00192	8d 8f d8 02 00
	00		 lea	 ecx, DWORD PTR [edi+728]
  00198	e8 00 00 00 00	 call	 ??1CExDrawButton@@UAE@XZ ; CExDrawButton::~CExDrawButton
  0019d	8d 8f 30 02 00
	00		 lea	 ecx, DWORD PTR [edi+560]
  001a3	e8 00 00 00 00	 call	 ??1CLogicEditCtrl@@UAE@XZ ; CLogicEditCtrl::~CLogicEditCtrl
  001a8	8d 8f b0 01 00
	00		 lea	 ecx, DWORD PTR [edi+432]
  001ae	e8 00 00 00 00	 call	 ??1CStatic@@UAE@XZ	; CStatic::~CStatic
  001b3	8d 8f 30 01 00
	00		 lea	 ecx, DWORD PTR [edi+304]
  001b9	e8 00 00 00 00	 call	 ??1CStatic@@UAE@XZ	; CStatic::~CStatic
  001be	8d 8f a8 00 00
	00		 lea	 ecx, DWORD PTR [edi+168]
  001c4	e8 00 00 00 00	 call	 ??1CExEdit@@UAE@XZ	; CExEdit::~CExEdit
  001c9	8b cf		 mov	 ecx, edi
  001cb	5f		 pop	 edi
  001cc	5e		 pop	 esi
  001cd	e9 00 00 00 00	 jmp	 ??1CDialog@@UAE@XZ	; CDialog::~CDialog
??1CDlgStrategyList@@UAE@XZ ENDP			; CDlgStrategyList::~CDlgStrategyList
_TEXT	ENDS
; Function compile flags: /Ogtp
; File D:\git\src\IBK\IBK_DRFN\ProjSrc\SrcDrfn\inc\ExCommonHeader.h
;	COMDAT ??__ERMSG_LSHAREDCHANGED@@YAXXZ
text$di	SEGMENT
??__ERMSG_LSHAREDCHANGED@@YAXXZ PROC			; `dynamic initializer for 'RMSG_LSHAREDCHANGED'', COMDAT

; 116  : const UINT RMSG_LSHAREDCHANGED = ::RegisterWindowMessage("RMSG_LSHAREDCHANGED");

  00000	68 00 00 00 00	 push	 OFFSET ??_C@_0BE@IEJDDJPC@RMSG_LSHAREDCHANGED@
  00005	ff 15 00 00 00
	00		 call	 DWORD PTR __imp__RegisterWindowMessageA@4
  0000b	a3 00 00 00 00	 mov	 DWORD PTR ?RMSG_LSHAREDCHANGED@@3IB, eax
  00010	c3		 ret	 0
??__ERMSG_LSHAREDCHANGED@@YAXXZ ENDP			; `dynamic initializer for 'RMSG_LSHAREDCHANGED''
text$di	ENDS
; Function compile flags: /Ogtp
; File D:\git\src\IBK\IBK_DRFN\ProjSrc\SrcDrfn\inc\ExCommonHeader.h
;	COMDAT ??__ERMSG_ENDSCROLLPOS@@YAXXZ
text$di	SEGMENT
??__ERMSG_ENDSCROLLPOS@@YAXXZ PROC			; `dynamic initializer for 'RMSG_ENDSCROLLPOS'', COMDAT

; 114  : const UINT RMSG_ENDSCROLLPOS = ::RegisterWindowMessage(_T("RMSG_ENDSCROLLPOS"));

  00000	68 00 00 00 00	 push	 OFFSET ??_C@_0BC@EMMLKNDL@RMSG_ENDSCROLLPOS@
  00005	ff 15 00 00 00
	00		 call	 DWORD PTR __imp__RegisterWindowMessageA@4
  0000b	a3 00 00 00 00	 mov	 DWORD PTR ?RMSG_ENDSCROLLPOS@@3IB, eax
  00010	c3		 ret	 0
??__ERMSG_ENDSCROLLPOS@@YAXXZ ENDP			; `dynamic initializer for 'RMSG_ENDSCROLLPOS''
text$di	ENDS
; Function compile flags: /Ogtp
; File D:\git\src\IBK\IBK_DRFN\ProjSrc\SrcDrfn\inc\ExCommonHeader.h
;	COMDAT ??__ERMSG_LBTNDOWN@@YAXXZ
text$di	SEGMENT
??__ERMSG_LBTNDOWN@@YAXXZ PROC				; `dynamic initializer for 'RMSG_LBTNDOWN'', COMDAT

; 111  : const UINT RMSG_LBTNDOWN = ::RegisterWindowMessage(_T("RMSG_LBTNDOWN"));

  00000	68 00 00 00 00	 push	 OFFSET ??_C@_0O@DGNCFOOP@RMSG_LBTNDOWN@
  00005	ff 15 00 00 00
	00		 call	 DWORD PTR __imp__RegisterWindowMessageA@4
  0000b	a3 00 00 00 00	 mov	 DWORD PTR ?RMSG_LBTNDOWN@@3IB, eax
  00010	c3		 ret	 0
??__ERMSG_LBTNDOWN@@YAXXZ ENDP				; `dynamic initializer for 'RMSG_LBTNDOWN''
text$di	ENDS
; Function compile flags: /Ogtp
; File D:\git\src\IBK\IBK_DRFN\ProjSrc\SrcDrfn\inc\ExCommonHeader.h
;	COMDAT ??__ERMSG_LBTNDBLCLICK@@YAXXZ
text$di	SEGMENT
??__ERMSG_LBTNDBLCLICK@@YAXXZ PROC			; `dynamic initializer for 'RMSG_LBTNDBLCLICK'', COMDAT

; 108  : const UINT RMSG_LBTNDBLCLICK = ::RegisterWindowMessage(_T("RMSG_LBTNDBLCLICK"));

  00000	68 00 00 00 00	 push	 OFFSET ??_C@_0BC@MMIGKJED@RMSG_LBTNDBLCLICK@
  00005	ff 15 00 00 00
	00		 call	 DWORD PTR __imp__RegisterWindowMessageA@4
  0000b	a3 00 00 00 00	 mov	 DWORD PTR ?RMSG_LBTNDBLCLICK@@3IB, eax
  00010	c3		 ret	 0
??__ERMSG_LBTNDBLCLICK@@YAXXZ ENDP			; `dynamic initializer for 'RMSG_LBTNDBLCLICK''
text$di	ENDS
; Function compile flags: /Ogtp
; File D:\git\src\IBK\IBK_DRFN\ProjSrc\SrcDrfn\inc\ExCommonHeader.h
;	COMDAT ??__ERMSG_TABSTOP@@YAXXZ
text$di	SEGMENT
??__ERMSG_TABSTOP@@YAXXZ PROC				; `dynamic initializer for 'RMSG_TABSTOP'', COMDAT

; 104  : const UINT RMSG_TABSTOP = ::RegisterWindowMessage(_T("RMSG_TABSTOP"));

  00000	68 00 00 00 00	 push	 OFFSET ??_C@_0N@IMGBDGND@RMSG_TABSTOP@
  00005	ff 15 00 00 00
	00		 call	 DWORD PTR __imp__RegisterWindowMessageA@4
  0000b	a3 00 00 00 00	 mov	 DWORD PTR ?RMSG_TABSTOP@@3IB, eax
  00010	c3		 ret	 0
??__ERMSG_TABSTOP@@YAXXZ ENDP				; `dynamic initializer for 'RMSG_TABSTOP''
text$di	ENDS
; Function compile flags: /Ogtp
; File D:\git\src\IBK\IBK_DRFN\ProjSrc\SrcDrfn\inc\ExCommonHeader.h
;	COMDAT ??__ERMSG_FORMSTATECHANGE@@YAXXZ
text$di	SEGMENT
??__ERMSG_FORMSTATECHANGE@@YAXXZ PROC			; `dynamic initializer for 'RMSG_FORMSTATECHANGE'', COMDAT

; 103  : const UINT RMSG_FORMSTATECHANGE = ::RegisterWindowMessage(_T("RMSG_FORMSTATECHANGE"));

  00000	68 00 00 00 00	 push	 OFFSET ??_C@_0BF@FPLDPAEH@RMSG_FORMSTATECHANGE@
  00005	ff 15 00 00 00
	00		 call	 DWORD PTR __imp__RegisterWindowMessageA@4
  0000b	a3 00 00 00 00	 mov	 DWORD PTR ?RMSG_FORMSTATECHANGE@@3IB, eax
  00010	c3		 ret	 0
??__ERMSG_FORMSTATECHANGE@@YAXXZ ENDP			; `dynamic initializer for 'RMSG_FORMSTATECHANGE''
text$di	ENDS
; Function compile flags: /Ogtp
; File D:\git\src\IBK\IBK_DRFN\ProjSrc\SrcDrfn\inc\ExCommonHeader.h
;	COMDAT ??__ERMSG_EVENT_SIGNAL@@YAXXZ
text$di	SEGMENT
??__ERMSG_EVENT_SIGNAL@@YAXXZ PROC			; `dynamic initializer for 'RMSG_EVENT_SIGNAL'', COMDAT

; 101  : const UINT RMSG_EVENT_SIGNAL = ::RegisterWindowMessage(_T("RMSG_EVENT_SIGNAL"));

  00000	68 00 00 00 00	 push	 OFFSET ??_C@_0BC@PGMEIMOI@RMSG_EVENT_SIGNAL@
  00005	ff 15 00 00 00
	00		 call	 DWORD PTR __imp__RegisterWindowMessageA@4
  0000b	a3 00 00 00 00	 mov	 DWORD PTR ?RMSG_EVENT_SIGNAL@@3IB, eax
  00010	c3		 ret	 0
??__ERMSG_EVENT_SIGNAL@@YAXXZ ENDP			; `dynamic initializer for 'RMSG_EVENT_SIGNAL''
text$di	ENDS
; Function compile flags: /Ogtp
; File D:\git\src\IBK\IBK_DRFN\ProjSrc\SrcDrfn\inc\ExCommonHeader.h
;	COMDAT ??__ERMSG_EVENT_SPININPUT@@YAXXZ
text$di	SEGMENT
??__ERMSG_EVENT_SPININPUT@@YAXXZ PROC			; `dynamic initializer for 'RMSG_EVENT_SPININPUT'', COMDAT

; 100  : const UINT RMSG_EVENT_SPININPUT = ::RegisterWindowMessage(_T("RMSG_EVENT_SPININPUT"));

  00000	68 00 00 00 00	 push	 OFFSET ??_C@_0BF@FABJBMLM@RMSG_EVENT_SPININPUT@
  00005	ff 15 00 00 00
	00		 call	 DWORD PTR __imp__RegisterWindowMessageA@4
  0000b	a3 00 00 00 00	 mov	 DWORD PTR ?RMSG_EVENT_SPININPUT@@3IB, eax
  00010	c3		 ret	 0
??__ERMSG_EVENT_SPININPUT@@YAXXZ ENDP			; `dynamic initializer for 'RMSG_EVENT_SPININPUT''
text$di	ENDS
; Function compile flags: /Ogtp
; File D:\git\src\IBK\IBK_DRFN\ProjSrc\SrcDrfn\inc\ExCommonHeader.h
;	COMDAT ??__ERMSG_EVENT_ACCTINPUT@@YAXXZ
text$di	SEGMENT
??__ERMSG_EVENT_ACCTINPUT@@YAXXZ PROC			; `dynamic initializer for 'RMSG_EVENT_ACCTINPUT'', COMDAT

; 99   : const UINT RMSG_EVENT_ACCTINPUT = ::RegisterWindowMessage(_T("RMSG_EVENT_ACCTINPUT"));

  00000	68 00 00 00 00	 push	 OFFSET ??_C@_0BF@LEGBOMJF@RMSG_EVENT_ACCTINPUT@
  00005	ff 15 00 00 00
	00		 call	 DWORD PTR __imp__RegisterWindowMessageA@4
  0000b	a3 00 00 00 00	 mov	 DWORD PTR ?RMSG_EVENT_ACCTINPUT@@3IB, eax
  00010	c3		 ret	 0
??__ERMSG_EVENT_ACCTINPUT@@YAXXZ ENDP			; `dynamic initializer for 'RMSG_EVENT_ACCTINPUT''
text$di	ENDS
; Function compile flags: /Ogtp
; File D:\git\src\IBK\IBK_DRFN\ProjSrc\SrcDrfn\inc\ExCommonHeader.h
;	COMDAT ??__ERMSG_EVENT_CODEINPUT@@YAXXZ
text$di	SEGMENT
??__ERMSG_EVENT_CODEINPUT@@YAXXZ PROC			; `dynamic initializer for 'RMSG_EVENT_CODEINPUT'', COMDAT

; 98   : const UINT RMSG_EVENT_CODEINPUT = ::RegisterWindowMessage(_T("RMSG_EVENT_CODEINPUT"));

  00000	68 00 00 00 00	 push	 OFFSET ??_C@_0BF@JNMMFBNP@RMSG_EVENT_CODEINPUT@
  00005	ff 15 00 00 00
	00		 call	 DWORD PTR __imp__RegisterWindowMessageA@4
  0000b	a3 00 00 00 00	 mov	 DWORD PTR ?RMSG_EVENT_CODEINPUT@@3IB, eax
  00010	c3		 ret	 0
??__ERMSG_EVENT_CODEINPUT@@YAXXZ ENDP			; `dynamic initializer for 'RMSG_EVENT_CODEINPUT''
text$di	ENDS
; Function compile flags: /Ogtp
; File D:\git\src\IBK\IBK_DRFN\ProjSrc\SrcDrfn\inc\ExCommonHeader.h
;	COMDAT ??__ERMSG_FORMINITIALCOMPLETED@@YAXXZ
text$di	SEGMENT
??__ERMSG_FORMINITIALCOMPLETED@@YAXXZ PROC		; `dynamic initializer for 'RMSG_FORMINITIALCOMPLETED'', COMDAT

; 73   : const UINT RMSG_FORMINITIALCOMPLETED = ::RegisterWindowMessage(_T("RMSG_FORMINITIALCOMPLETED"));

  00000	68 00 00 00 00	 push	 OFFSET ??_C@_0BK@FBLMOCPF@RMSG_FORMINITIALCOMPLETED@
  00005	ff 15 00 00 00
	00		 call	 DWORD PTR __imp__RegisterWindowMessageA@4
  0000b	a3 00 00 00 00	 mov	 DWORD PTR ?RMSG_FORMINITIALCOMPLETED@@3IB, eax
  00010	c3		 ret	 0
??__ERMSG_FORMINITIALCOMPLETED@@YAXXZ ENDP		; `dynamic initializer for 'RMSG_FORMINITIALCOMPLETED''
text$di	ENDS
; Function compile flags: /Ogtp
;	COMDAT ??1STLISTITEMDATA@@QAE@XZ
_TEXT	SEGMENT
??1STLISTITEMDATA@@QAE@XZ PROC				; STLISTITEMDATA::~STLISTITEMDATA, COMDAT
; _this$ = ecx
  00000	83 c1 04	 add	 ecx, 4
  00003	ff 25 00 00 00
	00		 jmp	 DWORD PTR __imp_??1?$CStringT@DV?$StrTraitMFC_DLL@DV?$ChTraitsCRT@D@ATL@@@@@ATL@@QAE@XZ
??1STLISTITEMDATA@@QAE@XZ ENDP				; STLISTITEMDATA::~STLISTITEMDATA
_TEXT	ENDS
; Function compile flags: /Ogtp
;	COMDAT ??1STMNG_ITEMINFO_EX1@@QAE@XZ
_TEXT	SEGMENT
??1STMNG_ITEMINFO_EX1@@QAE@XZ PROC			; STMNG_ITEMINFO_EX1::~STMNG_ITEMINFO_EX1, COMDAT
; _this$ = ecx
  00000	56		 push	 esi
  00001	8b f1		 mov	 esi, ecx
  00003	8d 4e 08	 lea	 ecx, DWORD PTR [esi+8]
  00006	ff 15 00 00 00
	00		 call	 DWORD PTR __imp_??1?$CStringT@DV?$StrTraitMFC_DLL@DV?$ChTraitsCRT@D@ATL@@@@@ATL@@QAE@XZ
  0000c	8d 4e 04	 lea	 ecx, DWORD PTR [esi+4]
  0000f	ff 15 00 00 00
	00		 call	 DWORD PTR __imp_??1?$CStringT@DV?$StrTraitMFC_DLL@DV?$ChTraitsCRT@D@ATL@@@@@ATL@@QAE@XZ
  00015	8b ce		 mov	 ecx, esi
  00017	5e		 pop	 esi
  00018	ff 25 00 00 00
	00		 jmp	 DWORD PTR __imp_??1?$CStringT@DV?$StrTraitMFC_DLL@DV?$ChTraitsCRT@D@ATL@@@@@ATL@@QAE@XZ
??1STMNG_ITEMINFO_EX1@@QAE@XZ ENDP			; STMNG_ITEMINFO_EX1::~STMNG_ITEMINFO_EX1
_TEXT	ENDS
; Function compile flags: /Ogtp
;	COMDAT ??1STMNG_ITEMINFO@@QAE@XZ
_TEXT	SEGMENT
??1STMNG_ITEMINFO@@QAE@XZ PROC				; STMNG_ITEMINFO::~STMNG_ITEMINFO, COMDAT
; _this$ = ecx
  00000	56		 push	 esi
  00001	8b f1		 mov	 esi, ecx
  00003	8d 4e 08	 lea	 ecx, DWORD PTR [esi+8]
  00006	ff 15 00 00 00
	00		 call	 DWORD PTR __imp_??1?$CStringT@DV?$StrTraitMFC_DLL@DV?$ChTraitsCRT@D@ATL@@@@@ATL@@QAE@XZ
  0000c	8d 4e 04	 lea	 ecx, DWORD PTR [esi+4]
  0000f	ff 15 00 00 00
	00		 call	 DWORD PTR __imp_??1?$CStringT@DV?$StrTraitMFC_DLL@DV?$ChTraitsCRT@D@ATL@@@@@ATL@@QAE@XZ
  00015	8b ce		 mov	 ecx, esi
  00017	5e		 pop	 esi
  00018	ff 25 00 00 00
	00		 jmp	 DWORD PTR __imp_??1?$CStringT@DV?$StrTraitMFC_DLL@DV?$ChTraitsCRT@D@ATL@@@@@ATL@@QAE@XZ
??1STMNG_ITEMINFO@@QAE@XZ ENDP				; STMNG_ITEMINFO::~STMNG_ITEMINFO
_TEXT	ENDS
; Function compile flags: /Ogtp
; File D:\git\src\IBK\IBK_DRFN\ProjSrc\SrcDrfn\inc\IBaseDefine.h
;	COMDAT ??__ERMSG_INTERFACE@@YAXXZ
text$di	SEGMENT
??__ERMSG_INTERFACE@@YAXXZ PROC				; `dynamic initializer for 'RMSG_INTERFACE'', COMDAT

; 170  : const UINT RMSG_INTERFACE = ::RegisterWindowMessage("RMSG_INTERFACE");

  00000	68 00 00 00 00	 push	 OFFSET ??_C@_0P@BKKCOCLK@RMSG_INTERFACE@
  00005	ff 15 00 00 00
	00		 call	 DWORD PTR __imp__RegisterWindowMessageA@4
  0000b	a3 00 00 00 00	 mov	 DWORD PTR ?RMSG_INTERFACE@@3IB, eax
  00010	c3		 ret	 0
??__ERMSG_INTERFACE@@YAXXZ ENDP				; `dynamic initializer for 'RMSG_INTERFACE''
text$di	ENDS
; Function compile flags: /Ogtp
; File C:\Program Files (x86)\Microsoft Visual Studio\2019\Community\VC\Tools\MSVC\14.29.30133\atlmfc\include\afxwin2.inl
;	COMDAT ?Create@CDialog@@UAEHIPAVCWnd@@@Z
_TEXT	SEGMENT
_nIDTemplate$ = 8					; size = 4
_pParentWnd$ = 12					; size = 4
?Create@CDialog@@UAEHIPAVCWnd@@@Z PROC			; CDialog::Create, COMDAT
; _this$ = ecx

; 585  : 	{ return CDialog::Create(ATL_MAKEINTRESOURCE(nIDTemplate), pParentWnd); }

  00000	55		 push	 ebp
  00001	8b ec		 mov	 ebp, esp
  00003	0f b7 45 08	 movzx	 eax, WORD PTR _nIDTemplate$[ebp]
  00007	89 45 08	 mov	 DWORD PTR _nIDTemplate$[ebp], eax
  0000a	5d		 pop	 ebp
  0000b	e9 00 00 00 00	 jmp	 ?Create@CDialog@@UAEHPBDPAVCWnd@@@Z ; CDialog::Create
?Create@CDialog@@UAEHIPAVCWnd@@@Z ENDP			; CDialog::Create
_TEXT	ENDS
; Function compile flags: /Ogtp
; File C:\Program Files (x86)\Microsoft Visual Studio\2019\Community\VC\Tools\MSVC\14.29.30133\atlmfc\include\afxwin2.inl
;	COMDAT ?EndModalState@CWnd@@UAEXXZ
_TEXT	SEGMENT
?EndModalState@CWnd@@UAEXXZ PROC			; CWnd::EndModalState, COMDAT
; _this$ = ecx

; 567  : 	{ ::EnableWindow(m_hWnd, TRUE); }

  00000	6a 01		 push	 1
  00002	ff 71 20	 push	 DWORD PTR [ecx+32]
  00005	ff 15 00 00 00
	00		 call	 DWORD PTR __imp__EnableWindow@8
  0000b	c3		 ret	 0
?EndModalState@CWnd@@UAEXXZ ENDP			; CWnd::EndModalState
_TEXT	ENDS
; Function compile flags: /Ogtp
; File C:\Program Files (x86)\Microsoft Visual Studio\2019\Community\VC\Tools\MSVC\14.29.30133\atlmfc\include\afxwin2.inl
;	COMDAT ?BeginModalState@CWnd@@UAEXXZ
_TEXT	SEGMENT
?BeginModalState@CWnd@@UAEXXZ PROC			; CWnd::BeginModalState, COMDAT
; _this$ = ecx

; 565  : 	{ ::EnableWindow(m_hWnd, FALSE); }

  00000	6a 00		 push	 0
  00002	ff 71 20	 push	 DWORD PTR [ecx+32]
  00005	ff 15 00 00 00
	00		 call	 DWORD PTR __imp__EnableWindow@8
  0000b	c3		 ret	 0
?BeginModalState@CWnd@@UAEXXZ ENDP			; CWnd::BeginModalState
_TEXT	ENDS
; Function compile flags: /Ogtp
; File C:\Program Files (x86)\Microsoft Visual Studio\2019\Community\VC\Tools\MSVC\14.29.30133\atlmfc\include\afxwin2.inl
;	COMDAT ?DoDataExchange@CWnd@@MAEXPAVCDataExchange@@@Z
_TEXT	SEGMENT
___formal$ = 8						; size = 4
?DoDataExchange@CWnd@@MAEXPAVCDataExchange@@@Z PROC	; CWnd::DoDataExchange, COMDAT
; _this$ = ecx

; 561  : 	{ } // default does nothing

  00000	c2 04 00	 ret	 4
?DoDataExchange@CWnd@@MAEXPAVCDataExchange@@@Z ENDP	; CWnd::DoDataExchange
_TEXT	ENDS
; Function compile flags: /Ogtp
; File C:\Program Files (x86)\Microsoft Visual Studio\2019\Community\VC\Tools\MSVC\14.29.30133\atlmfc\include\afxwin1.inl
; File C:\Program Files (x86)\Microsoft Visual Studio\2019\Community\VC\Tools\MSVC\14.29.30133\atlmfc\include\afx.inl
;	COMDAT ??_GCFont@@UAEPAXI@Z
_TEXT	SEGMENT
___flags$ = 8						; size = 4
??_GCFont@@UAEPAXI@Z PROC				; CFont::`scalar deleting destructor', COMDAT
; _this$ = ecx
  00000	55		 push	 ebp
  00001	8b ec		 mov	 ebp, esp
; File C:\Program Files (x86)\Microsoft Visual Studio\2019\Community\VC\Tools\MSVC\14.29.30133\atlmfc\include\afxwin1.inl

; 155  : 	{ }

  00003	56		 push	 esi
  00004	8b f1		 mov	 esi, ecx
  00006	c7 06 00 00 00
	00		 mov	 DWORD PTR [esi], OFFSET ??_7CFont@@6B@
  0000c	e8 00 00 00 00	 call	 ??1CGdiObject@@UAE@XZ	; CGdiObject::~CGdiObject
  00011	8b 45 08	 mov	 eax, DWORD PTR ___flags$[ebp]
  00014	a8 01		 test	 al, 1
  00016	74 1f		 je	 SHORT $LN12@scalar
  00018	a8 04		 test	 al, 4
  0001a	75 10		 jne	 SHORT $LN3@scalar
; File C:\Program Files (x86)\Microsoft Visual Studio\2019\Community\VC\Tools\MSVC\14.29.30133\atlmfc\include\afx.inl

; 112  : 	{ ::operator delete(p); }

  0001c	56		 push	 esi
  0001d	e8 00 00 00 00	 call	 ??3@YAXPAX@Z		; operator delete
  00022	83 c4 04	 add	 esp, 4
  00025	8b c6		 mov	 eax, esi
  00027	5e		 pop	 esi
  00028	5d		 pop	 ebp
  00029	c2 04 00	 ret	 4
$LN3@scalar:
  0002c	6a 08		 push	 8
  0002e	56		 push	 esi
  0002f	e8 00 00 00 00	 call	 ?__global_delete@@YAXPAXI@Z ; __global_delete
  00034	83 c4 08	 add	 esp, 8
$LN12@scalar:
  00037	8b c6		 mov	 eax, esi
  00039	5e		 pop	 esi
  0003a	5d		 pop	 ebp
  0003b	c2 04 00	 ret	 4
??_GCFont@@UAEPAXI@Z ENDP				; CFont::`scalar deleting destructor'
_TEXT	ENDS
; Function compile flags: /Ogtp
; File C:\Program Files (x86)\Microsoft Visual Studio\2019\Community\VC\Tools\MSVC\14.29.30133\atlmfc\include\afxwin1.inl
;	COMDAT ??1CFont@@UAE@XZ
_TEXT	SEGMENT
??1CFont@@UAE@XZ PROC					; CFont::~CFont, COMDAT
; _this$ = ecx

; 155  : 	{ }

  00000	c7 01 00 00 00
	00		 mov	 DWORD PTR [ecx], OFFSET ??_7CFont@@6B@
  00006	e9 00 00 00 00	 jmp	 ??1CGdiObject@@UAE@XZ	; CGdiObject::~CGdiObject
??1CFont@@UAE@XZ ENDP					; CFont::~CFont
_TEXT	ENDS
; Function compile flags: /Ogtp
; File C:\Program Files (x86)\Microsoft Visual Studio\2019\Community\VC\Tools\MSVC\14.29.30133\atlmfc\include\afxwin1.inl
; File C:\Program Files (x86)\Microsoft Visual Studio\2019\Community\VC\Tools\MSVC\14.29.30133\atlmfc\include\afx.inl
;	COMDAT ??_GCBrush@@UAEPAXI@Z
_TEXT	SEGMENT
___flags$ = 8						; size = 4
??_GCBrush@@UAEPAXI@Z PROC				; CBrush::`scalar deleting destructor', COMDAT
; _this$ = ecx
  00000	55		 push	 ebp
  00001	8b ec		 mov	 ebp, esp
; File C:\Program Files (x86)\Microsoft Visual Studio\2019\Community\VC\Tools\MSVC\14.29.30133\atlmfc\include\afxwin1.inl

; 130  : 	{ }

  00003	56		 push	 esi
  00004	8b f1		 mov	 esi, ecx
  00006	c7 06 00 00 00
	00		 mov	 DWORD PTR [esi], OFFSET ??_7CBrush@@6B@
  0000c	e8 00 00 00 00	 call	 ??1CGdiObject@@UAE@XZ	; CGdiObject::~CGdiObject
  00011	8b 45 08	 mov	 eax, DWORD PTR ___flags$[ebp]
  00014	a8 01		 test	 al, 1
  00016	74 1f		 je	 SHORT $LN12@scalar
  00018	a8 04		 test	 al, 4
  0001a	75 10		 jne	 SHORT $LN3@scalar
; File C:\Program Files (x86)\Microsoft Visual Studio\2019\Community\VC\Tools\MSVC\14.29.30133\atlmfc\include\afx.inl

; 112  : 	{ ::operator delete(p); }

  0001c	56		 push	 esi
  0001d	e8 00 00 00 00	 call	 ??3@YAXPAX@Z		; operator delete
  00022	83 c4 04	 add	 esp, 4
  00025	8b c6		 mov	 eax, esi
  00027	5e		 pop	 esi
  00028	5d		 pop	 ebp
  00029	c2 04 00	 ret	 4
$LN3@scalar:
  0002c	6a 08		 push	 8
  0002e	56		 push	 esi
  0002f	e8 00 00 00 00	 call	 ?__global_delete@@YAXPAXI@Z ; __global_delete
  00034	83 c4 08	 add	 esp, 8
$LN12@scalar:
  00037	8b c6		 mov	 eax, esi
  00039	5e		 pop	 esi
  0003a	5d		 pop	 ebp
  0003b	c2 04 00	 ret	 4
??_GCBrush@@UAEPAXI@Z ENDP				; CBrush::`scalar deleting destructor'
_TEXT	ENDS
; Function compile flags: /Ogtp
; File C:\Program Files (x86)\Microsoft Visual Studio\2019\Community\VC\Tools\MSVC\14.29.30133\atlmfc\include\afxwin1.inl
;	COMDAT ??1CBrush@@UAE@XZ
_TEXT	SEGMENT
??1CBrush@@UAE@XZ PROC					; CBrush::~CBrush, COMDAT
; _this$ = ecx

; 130  : 	{ }

  00000	c7 01 00 00 00
	00		 mov	 DWORD PTR [ecx], OFFSET ??_7CBrush@@6B@
  00006	e9 00 00 00 00	 jmp	 ??1CGdiObject@@UAE@XZ	; CGdiObject::~CGdiObject
??1CBrush@@UAE@XZ ENDP					; CBrush::~CBrush
_TEXT	ENDS
; Function compile flags: /Ogtp
; File C:\Program Files (x86)\Microsoft Visual Studio\2019\Community\VC\Tools\MSVC\14.29.30133\atlmfc\include\afx.inl
;	COMDAT ??_GCGdiObject@@UAEPAXI@Z
_TEXT	SEGMENT
___flags$ = 8						; size = 4
??_GCGdiObject@@UAEPAXI@Z PROC				; CGdiObject::`scalar deleting destructor', COMDAT
; _this$ = ecx
  00000	55		 push	 ebp
  00001	8b ec		 mov	 ebp, esp
  00003	56		 push	 esi
  00004	8b f1		 mov	 esi, ecx
  00006	e8 00 00 00 00	 call	 ??1CGdiObject@@UAE@XZ	; CGdiObject::~CGdiObject
  0000b	8b 45 08	 mov	 eax, DWORD PTR ___flags$[ebp]
  0000e	a8 01		 test	 al, 1
  00010	74 1f		 je	 SHORT $LN9@scalar
  00012	a8 04		 test	 al, 4
  00014	75 10		 jne	 SHORT $LN3@scalar

; 112  : 	{ ::operator delete(p); }

  00016	56		 push	 esi
  00017	e8 00 00 00 00	 call	 ??3@YAXPAX@Z		; operator delete
  0001c	83 c4 04	 add	 esp, 4
  0001f	8b c6		 mov	 eax, esi
  00021	5e		 pop	 esi
  00022	5d		 pop	 ebp
  00023	c2 04 00	 ret	 4
$LN3@scalar:
  00026	6a 08		 push	 8
  00028	56		 push	 esi
  00029	e8 00 00 00 00	 call	 ?__global_delete@@YAXPAXI@Z ; __global_delete
  0002e	83 c4 08	 add	 esp, 8
$LN9@scalar:
  00031	8b c6		 mov	 eax, esi
  00033	5e		 pop	 esi
  00034	5d		 pop	 ebp
  00035	c2 04 00	 ret	 4
??_GCGdiObject@@UAEPAXI@Z ENDP				; CGdiObject::`scalar deleting destructor'
_TEXT	ENDS
; Function compile flags: /Ogtp
; File C:\Program Files (x86)\Microsoft Visual Studio\2019\Community\VC\Tools\MSVC\14.29.30133\atlmfc\include\afxwin1.inl
;	COMDAT ??1CGdiObject@@UAE@XZ
_TEXT	SEGMENT
_pException$2 = -540					; size = 4
_strMsg$3 = -536					; size = 4
_szErrorMessage$4 = -532				; size = 512
__$ArrayPad$ = -20					; size = 4
__$EHRec$ = -16						; size = 16
??1CGdiObject@@UAE@XZ PROC				; CGdiObject::~CGdiObject, COMDAT
; _this$ = ecx

; 74   : {

  00000	55		 push	 ebp
  00001	8b ec		 mov	 ebp, esp
  00003	6a ff		 push	 -1
  00005	68 00 00 00 00	 push	 __ehhandler$??1CGdiObject@@UAE@XZ
  0000a	64 a1 00 00 00
	00		 mov	 eax, DWORD PTR fs:0
  00010	50		 push	 eax
  00011	81 ec 10 02 00
	00		 sub	 esp, 528		; 00000210H
  00017	a1 00 00 00 00	 mov	 eax, DWORD PTR ___security_cookie
  0001c	33 c5		 xor	 eax, ebp
  0001e	89 45 ec	 mov	 DWORD PTR __$ArrayPad$[ebp], eax
  00021	53		 push	 ebx
  00022	56		 push	 esi
  00023	57		 push	 edi
  00024	50		 push	 eax
  00025	8d 45 f4	 lea	 eax, DWORD PTR __$EHRec$[ebp+4]
  00028	64 a3 00 00 00
	00		 mov	 DWORD PTR fs:0, eax
  0002e	89 65 f0	 mov	 DWORD PTR __$EHRec$[ebp], esp
  00031	c7 01 00 00 00
	00		 mov	 DWORD PTR [ecx], OFFSET ??_7CGdiObject@@6B@

; 75   : 	AFX_BEGIN_DESTRUCTOR

  00037	c7 45 fc 00 00
	00 00		 mov	 DWORD PTR __$EHRec$[ebp+12], 0

; 76   : 	DeleteObject();

  0003e	e8 00 00 00 00	 call	 ?DeleteObject@CGdiObject@@QAEHXZ ; CGdiObject::DeleteObject
$LN18@CGdiObject:

; 78   : }

  00043	8b 4d f4	 mov	 ecx, DWORD PTR __$EHRec$[ebp+4]
  00046	64 89 0d 00 00
	00 00		 mov	 DWORD PTR fs:0, ecx
  0004d	59		 pop	 ecx
  0004e	5f		 pop	 edi
  0004f	5e		 pop	 esi
  00050	5b		 pop	 ebx
  00051	8b 4d ec	 mov	 ecx, DWORD PTR __$ArrayPad$[ebp]
  00054	33 cd		 xor	 ecx, ebp
  00056	e8 00 00 00 00	 call	 @__security_check_cookie@4
  0005b	8b e5		 mov	 esp, ebp
  0005d	5d		 pop	 ebp
  0005e	c3		 ret	 0
__catch$??1CGdiObject@@UAE@XZ$0:

; 77   : 	AFX_END_DESTRUCTOR

  0005f	8d 8d e8 fd ff
	ff		 lea	 ecx, DWORD PTR _strMsg$3[ebp]
  00065	ff 15 00 00 00
	00		 call	 DWORD PTR __imp_??0?$CStringT@DV?$StrTraitMFC_DLL@DV?$ChTraitsCRT@D@ATL@@@@@ATL@@QAE@XZ
  0006b	8b b5 e4 fd ff
	ff		 mov	 esi, DWORD PTR _pException$2[ebp]
  00071	8d 8d ec fd ff
	ff		 lea	 ecx, DWORD PTR _szErrorMessage$4[ebp]
  00077	6a 00		 push	 0
  00079	68 00 02 00 00	 push	 512			; 00000200H
  0007e	51		 push	 ecx
  0007f	8b 06		 mov	 eax, DWORD PTR [esi]
  00081	8b ce		 mov	 ecx, esi
  00083	c6 45 fc 02	 mov	 BYTE PTR __$EHRec$[ebp+12], 2
  00087	ff 50 14	 call	 DWORD PTR [eax+20]
  0008a	85 c0		 test	 eax, eax
  0008c	74 2a		 je	 SHORT $LN9@CGdiObject
  0008e	8d 85 ec fd ff
	ff		 lea	 eax, DWORD PTR _szErrorMessage$4[ebp]
  00094	50		 push	 eax
  00095	6a 4d		 push	 77			; 0000004dH
  00097	68 00 00 00 00	 push	 OFFSET ??_C@_0HD@JJCHHHNK@C?3?2Program?5Files?5?$CIx86?$CJ?2Microsof@
  0009c	68 00 00 00 00	 push	 OFFSET ??_C@_0BP@OIEOKIDM@Exception?5thrown?5in?5destructor@
  000a1	8d 85 e8 fd ff
	ff		 lea	 eax, DWORD PTR _strMsg$3[ebp]
  000a7	68 00 00 00 00	 push	 OFFSET ??_C@_0BB@HBOOMJBF@?$CFTs?5?$CI?$CFTs?3?$CFd?$CJ?6?$CFTs@
  000ac	50		 push	 eax
  000ad	ff 15 00 00 00
	00		 call	 DWORD PTR __imp_?Format@?$CStringT@DV?$StrTraitMFC_DLL@DV?$ChTraitsCRT@D@ATL@@@@@ATL@@QAAXPBDZZ
  000b3	83 c4 18	 add	 esp, 24			; 00000018H
  000b6	eb 21		 jmp	 SHORT $LN10@CGdiObject
$LN9@CGdiObject:
  000b8	6a 4d		 push	 77			; 0000004dH
  000ba	68 00 00 00 00	 push	 OFFSET ??_C@_0HD@JJCHHHNK@C?3?2Program?5Files?5?$CIx86?$CJ?2Microsof@
  000bf	68 00 00 00 00	 push	 OFFSET ??_C@_0BP@OIEOKIDM@Exception?5thrown?5in?5destructor@
  000c4	8d 85 e8 fd ff
	ff		 lea	 eax, DWORD PTR _strMsg$3[ebp]
  000ca	68 00 00 00 00	 push	 OFFSET ??_C@_0N@OMEMOKLE@?$CFTs?5?$CI?$CFTs?3?$CFd?$CJ@
  000cf	50		 push	 eax
  000d0	ff 15 00 00 00
	00		 call	 DWORD PTR __imp_?Format@?$CStringT@DV?$StrTraitMFC_DLL@DV?$ChTraitsCRT@D@ATL@@@@@ATL@@QAAXPBDZZ
  000d6	83 c4 14	 add	 esp, 20			; 00000014H
$LN10@CGdiObject:
  000d9	6a 00		 push	 0
  000db	6a 00		 push	 0
  000dd	ff b5 e8 fd ff
	ff		 push	 DWORD PTR _strMsg$3[ebp]
  000e3	e8 00 00 00 00	 call	 ?AfxMessageBox@@YGHPBDII@Z ; AfxMessageBox
  000e8	8d 8d e8 fd ff
	ff		 lea	 ecx, DWORD PTR _strMsg$3[ebp]
  000ee	ff 15 00 00 00
	00		 call	 DWORD PTR __imp_??1?$CStringT@DV?$StrTraitMFC_DLL@DV?$ChTraitsCRT@D@ATL@@@@@ATL@@QAE@XZ
  000f4	8b 06		 mov	 eax, DWORD PTR [esi]
  000f6	8b ce		 mov	 ecx, esi
  000f8	6a 01		 push	 1
  000fa	ff 50 04	 call	 DWORD PTR [eax+4]
  000fd	b8 00 00 00 00	 mov	 eax, $LN18@CGdiObject
  00102	c3		 ret	 0
_TEXT	ENDS
;	COMDAT text$x
text$x	SEGMENT
__unwindfunclet$??1CGdiObject@@UAE@XZ$2:
  00000	8d 8d e8 fd ff
	ff		 lea	 ecx, DWORD PTR _strMsg$3[ebp]
  00006	ff 25 00 00 00
	00		 jmp	 DWORD PTR __imp_??1?$CStringT@DV?$StrTraitMFC_DLL@DV?$ChTraitsCRT@D@ATL@@@@@ATL@@QAE@XZ
  0000c	cc		 int	 3
  0000d	cc		 int	 3
  0000e	cc		 int	 3
  0000f	cc		 int	 3
  00010	cc		 int	 3
__ehhandler$??1CGdiObject@@UAE@XZ:
  00011	90		 npad	 1
  00012	90		 npad	 1
  00013	8b 54 24 08	 mov	 edx, DWORD PTR [esp+8]
  00017	8d 42 0c	 lea	 eax, DWORD PTR [edx+12]
  0001a	8b 8a e0 fd ff
	ff		 mov	 ecx, DWORD PTR [edx-544]
  00020	33 c8		 xor	 ecx, eax
  00022	e8 00 00 00 00	 call	 @__security_check_cookie@4
  00027	8b 4a f8	 mov	 ecx, DWORD PTR [edx-8]
  0002a	33 c8		 xor	 ecx, eax
  0002c	e8 00 00 00 00	 call	 @__security_check_cookie@4
  00031	b8 00 00 00 00	 mov	 eax, OFFSET __ehfuncinfo$??1CGdiObject@@UAE@XZ
  00036	e9 00 00 00 00	 jmp	 ___CxxFrameHandler3
text$x	ENDS
??1CGdiObject@@UAE@XZ ENDP				; CGdiObject::~CGdiObject
; Function compile flags: /Ogtp
; File C:\Program Files (x86)\Microsoft Visual Studio\2019\Community\VC\Tools\MSVC\14.29.30133\atlmfc\include\afx.inl
;	COMDAT ?Dump@CObject@@UBEXAAVCDumpContext@@@Z
_TEXT	SEGMENT
___formal$ = 8						; size = 4
?Dump@CObject@@UBEXAAVCDumpContext@@@Z PROC		; CObject::Dump, COMDAT
; _this$ = ecx

; 122  : 	{ /* no dumping in release builds */ }

  00000	c2 04 00	 ret	 4
?Dump@CObject@@UBEXAAVCDumpContext@@@Z ENDP		; CObject::Dump
_TEXT	ENDS
; Function compile flags: /Ogtp
; File C:\Program Files (x86)\Microsoft Visual Studio\2019\Community\VC\Tools\MSVC\14.29.30133\atlmfc\include\afx.inl
;	COMDAT ?AssertValid@CObject@@UBEXXZ
_TEXT	SEGMENT
?AssertValid@CObject@@UBEXXZ PROC			; CObject::AssertValid, COMDAT
; _this$ = ecx

; 120  : 	{ /* no asserts in release builds */ }

  00000	c2 00 00	 ret	 0
?AssertValid@CObject@@UBEXXZ ENDP			; CObject::AssertValid
_TEXT	ENDS
; Function compile flags: /Ogtp
; File C:\Program Files (x86)\Microsoft Visual Studio\2019\Community\VC\Tools\MSVC\14.29.30133\atlmfc\include\afx.inl
;	COMDAT ?Serialize@CObject@@UAEXAAVCArchive@@@Z
_TEXT	SEGMENT
___formal$ = 8						; size = 4
?Serialize@CObject@@UAEXAAVCArchive@@@Z PROC		; CObject::Serialize, COMDAT
; _this$ = ecx

; 106  : 	{ /* CObject does not serialize anything by default */ }

  00000	c2 04 00	 ret	 4
?Serialize@CObject@@UAEXAAVCArchive@@@Z ENDP		; CObject::Serialize
_TEXT	ENDS
; Function compile flags: /Ogtp
; File C:\Program Files (x86)\Microsoft Visual Studio\2019\Community\VC\Tools\MSVC\14.29.30133\atlmfc\include\afx.inl
;	COMDAT ??1CObject@@UAE@XZ
_TEXT	SEGMENT
??1CObject@@UAE@XZ PROC					; CObject::~CObject, COMDAT
; _this$ = ecx

; 104  : 	{ }

  00000	c2 00 00	 ret	 0
??1CObject@@UAE@XZ ENDP					; CObject::~CObject
_TEXT	ENDS
; Function compile flags: /Ogtp
; File C:\Program Files (x86)\Windows Kits\10\Include\10.0.22000.0\ucrt\stdio.h
;	COMDAT _sscanf
_TEXT	SEGMENT
__Buffer$ = 8						; size = 4
__Format$ = 12						; size = 4
_sscanf	PROC						; COMDAT

; 2247 :     {

  00000	55		 push	 ebp
  00001	8b ec		 mov	 ebp, esp

; 2153 :         return __stdio_common_vsscanf(

  00003	8d 45 10	 lea	 eax, DWORD PTR __Format$[ebp+4]
  00006	50		 push	 eax
  00007	6a 00		 push	 0
  00009	ff 75 0c	 push	 DWORD PTR __Format$[ebp]
  0000c	6a ff		 push	 -1
  0000e	ff 75 08	 push	 DWORD PTR __Buffer$[ebp]
  00011	e8 00 00 00 00	 call	 ___local_stdio_scanf_options
  00016	ff 70 04	 push	 DWORD PTR [eax+4]
  00019	ff 30		 push	 DWORD PTR [eax]
  0001b	ff 15 00 00 00
	00		 call	 DWORD PTR __imp____stdio_common_vsscanf
  00021	83 c4 1c	 add	 esp, 28			; 0000001cH

; 2248 :         int _Result;
; 2249 :         va_list _ArgList;
; 2250 :         __crt_va_start(_ArgList, _Format);
; 2251 :         _Result = _vsscanf_l(_Buffer, _Format, NULL, _ArgList);
; 2252 :         __crt_va_end(_ArgList);
; 2253 :         return _Result;
; 2254 :     }

  00024	5d		 pop	 ebp
  00025	c3		 ret	 0
_sscanf	ENDP
_TEXT	ENDS
; Function compile flags: /Ogtp
; File C:\Program Files (x86)\Windows Kits\10\Include\10.0.22000.0\ucrt\stdio.h
;	COMDAT _sprintf
_TEXT	SEGMENT
__Buffer$ = 8						; size = 4
__Format$ = 12						; size = 4
_sprintf PROC						; COMDAT

; 1771 :     {

  00000	55		 push	 ebp
  00001	8b ec		 mov	 ebp, esp

; 1392 :         int const _Result = __stdio_common_vsprintf(

  00003	8d 45 10	 lea	 eax, DWORD PTR __Format$[ebp+4]
  00006	50		 push	 eax
  00007	6a 00		 push	 0
  00009	ff 75 0c	 push	 DWORD PTR __Format$[ebp]
  0000c	6a ff		 push	 -1
  0000e	ff 75 08	 push	 DWORD PTR __Buffer$[ebp]
  00011	e8 00 00 00 00	 call	 ___local_stdio_printf_options
  00016	8b 08		 mov	 ecx, DWORD PTR [eax]
  00018	ff 70 04	 push	 DWORD PTR [eax+4]
  0001b	83 c9 01	 or	 ecx, 1
  0001e	51		 push	 ecx
  0001f	ff 15 00 00 00
	00		 call	 DWORD PTR __imp____stdio_common_vsprintf

; 1393 :             _CRT_INTERNAL_LOCAL_PRINTF_OPTIONS | _CRT_INTERNAL_PRINTF_LEGACY_VSPRINTF_NULL_TERMINATION,
; 1394 :             _Buffer, _BufferCount, _Format, _Locale, _ArgList);
; 1395 : 
; 1396 :         return _Result < 0 ? -1 : _Result;

  00025	83 c9 ff	 or	 ecx, -1
  00028	83 c4 1c	 add	 esp, 28			; 0000001cH
  0002b	85 c0		 test	 eax, eax
  0002d	0f 48 c1	 cmovs	 eax, ecx

; 1772 :         int _Result;
; 1773 :         va_list _ArgList;
; 1774 :         __crt_va_start(_ArgList, _Format);
; 1775 : 
; 1776 :         _Result = _vsprintf_l(_Buffer, _Format, NULL, _ArgList);
; 1777 : 
; 1778 :         __crt_va_end(_ArgList);
; 1779 :         return _Result;
; 1780 :     }

  00030	5d		 pop	 ebp
  00031	c3		 ret	 0
_sprintf ENDP
_TEXT	ENDS
; Function compile flags: /Ogtp
; File C:\Program Files (x86)\Windows Kits\10\Include\10.0.22000.0\ucrt\corecrt_stdio_config.h
;	COMDAT ___local_stdio_scanf_options
_TEXT	SEGMENT
___local_stdio_scanf_options PROC			; COMDAT

; 101  :         static unsigned __int64 _OptionsStorage;
; 102  :         return &_OptionsStorage;

  00000	b8 00 00 00 00	 mov	 eax, OFFSET ?_OptionsStorage@?1??__local_stdio_scanf_options@@9@4_KA ; `__local_stdio_scanf_options'::`2'::_OptionsStorage

; 103  :     }

  00005	c3		 ret	 0
___local_stdio_scanf_options ENDP
_TEXT	ENDS
; Function compile flags: /Ogtp
; File C:\Program Files (x86)\Windows Kits\10\Include\10.0.22000.0\ucrt\corecrt_stdio_config.h
;	COMDAT ___local_stdio_printf_options
_TEXT	SEGMENT
___local_stdio_printf_options PROC			; COMDAT

; 91   :         static unsigned __int64 _OptionsStorage;
; 92   :         return &_OptionsStorage;

  00000	b8 00 00 00 00	 mov	 eax, OFFSET ?_OptionsStorage@?1??__local_stdio_printf_options@@9@4_KA ; `__local_stdio_printf_options'::`2'::_OptionsStorage

; 93   :     }

  00005	c3		 ret	 0
___local_stdio_printf_options ENDP
_TEXT	ENDS
; Function compile flags: /Ogtp
; File D:\git\src\IBK\IBK_DRFN\ProjSrc\SrcDrfn\Chart\HWSTRATEGYCONFIGUREWIZARD\DlgStrategyConfigure.cpp
;	COMDAT ?__empty_global_delete@@YAXPAXI@Z
_TEXT	SEGMENT
___formal$ = 8						; size = 4
___formal$ = 12						; size = 4
?__empty_global_delete@@YAXPAXI@Z PROC			; __empty_global_delete, COMDAT

  00000	c2 00 00	 ret	 0
?__empty_global_delete@@YAXPAXI@Z ENDP			; __empty_global_delete
_TEXT	ENDS
; Function compile flags: /Ogtp
; File D:\git\src\IBK\IBK_DRFN\ProjSrc\SrcDrfn\Chart\HWSTRATEGYCONFIGUREWIZARD\DlgStrategyConfigure.cpp
;	COMDAT ?__empty_global_delete@@YAXPAX@Z
_TEXT	SEGMENT
___formal$ = 8						; size = 4
?__empty_global_delete@@YAXPAX@Z PROC			; __empty_global_delete, COMDAT

  00000	c2 00 00	 ret	 0
?__empty_global_delete@@YAXPAX@Z ENDP			; __empty_global_delete
_TEXT	ENDS
; Function compile flags: /Ogtp
;	COMDAT ??_H@YGXPAXIIP6EPAX0@Z@Z
_TEXT	SEGMENT
___t$ = 8						; size = 4
___s$ = 12						; size = 4
___n$ = 16						; size = 4
___f$ = 20						; size = 4
??_H@YGXPAXIIP6EPAX0@Z@Z PROC				; `vector constructor iterator', COMDAT
  00000	55		 push	 ebp
  00001	8b ec		 mov	 ebp, esp
  00003	56		 push	 esi
  00004	8b 75 10	 mov	 esi, DWORD PTR ___n$[ebp]
  00007	85 f6		 test	 esi, esi
  00009	74 16		 je	 SHORT $LN6@vector
  0000b	53		 push	 ebx
  0000c	8b 5d 14	 mov	 ebx, DWORD PTR ___f$[ebp]
  0000f	57		 push	 edi
  00010	8b 7d 08	 mov	 edi, DWORD PTR ___t$[ebp]
$LL2@vector:
  00013	8b cf		 mov	 ecx, edi
  00015	ff d3		 call	 ebx
  00017	03 7d 0c	 add	 edi, DWORD PTR ___s$[ebp]
  0001a	83 ee 01	 sub	 esi, 1
  0001d	75 f4		 jne	 SHORT $LL2@vector
  0001f	5f		 pop	 edi
  00020	5b		 pop	 ebx
$LN6@vector:
  00021	5e		 pop	 esi
  00022	5d		 pop	 ebp
  00023	c2 10 00	 ret	 16			; 00000010H
??_H@YGXPAXIIP6EPAX0@Z@Z ENDP				; `vector constructor iterator'
_TEXT	ENDS
END
