; Listing generated by Microsoft (R) Optimizing Compiler Version 19.29.30145.0 

	TITLE	D:\git\src\IBK\IBK_DRFN\#DRfn-CS\_Obj\HWStrategyConfigureWizard\DlgSysVarOption.obj
	.686P
	.XMM
	include listing.inc
	.model	flat

INCLUDELIB MSVCRT
INCLUDELIB OLDNAMES

PUBLIC	?__empty_global_delete@@YAXPAX@Z		; __empty_global_delete
PUBLIC	?__empty_global_delete@@YAXPAXI@Z		; __empty_global_delete
PUBLIC	?Serialize@CObject@@UAEXAAVCArchive@@@Z		; CObject::Serialize
PUBLIC	?AssertValid@CObject@@UBEXXZ			; CObject::AssertValid
PUBLIC	?Dump@CObject@@UBEXAAVCDumpContext@@@Z		; CObject::Dump
PUBLIC	?DoDataExchange@CWnd@@MAEXPAVCDataExchange@@@Z	; CWnd::DoDataExchange
PUBLIC	?BeginModalState@CWnd@@UAEXXZ			; CWnd::BeginModalState
PUBLIC	?EndModalState@CWnd@@UAEXXZ			; CWnd::EndModalState
PUBLIC	?Create@CDialog@@UAEHIPAVCWnd@@@Z		; CDialog::Create
PUBLIC	??1CCommonDialog@@UAE@XZ			; CCommonDialog::~CCommonDialog
PUBLIC	??_GCCommonDialog@@UAEPAXI@Z			; CCommonDialog::`scalar deleting destructor'
PUBLIC	??1CColorDialog@@UAE@XZ				; CColorDialog::~CColorDialog
PUBLIC	??0CDlgSysVarOption@@QAE@PAVCWnd@@@Z		; CDlgSysVarOption::CDlgSysVarOption
PUBLIC	?InitColumn@CDlgSysVarOption@@QAEXXZ		; CDlgSysVarOption::InitColumn
PUBLIC	?SetParam@CDlgSysVarOption@@QAEXPAVCStringList@@J@Z ; CDlgSysVarOption::SetParam
PUBLIC	?DoApplyInputParam@CDlgSysVarOption@@QAEXXZ	; CDlgSysVarOption::DoApplyInputParam
PUBLIC	?DoLoadVarList@CDlgSysVarOption@@QAEXPBD@Z	; CDlgSysVarOption::DoLoadVarList
PUBLIC	?DoBtnClr@CDlgSysVarOption@@QAEXAAVCColorButton@@@Z ; CDlgSysVarOption::DoBtnClr
PUBLIC	?DoDataExchange@CDlgSysVarOption@@MAEXPAVCDataExchange@@@Z ; CDlgSysVarOption::DoDataExchange
PUBLIC	?OnInitDialog@CDlgSysVarOption@@MAEHXZ		; CDlgSysVarOption::OnInitDialog
PUBLIC	?OnBtClrBull@CDlgSysVarOption@@IAEXXZ		; CDlgSysVarOption::OnBtClrBull
PUBLIC	?OnBtClrBear@CDlgSysVarOption@@IAEXXZ		; CDlgSysVarOption::OnBtClrBear
PUBLIC	?GetThisMessageMap@CDlgSysVarOption@@KGPBUAFX_MSGMAP@@XZ ; CDlgSysVarOption::GetThisMessageMap
PUBLIC	?GetMessageMap@CDlgSysVarOption@@MBEPBUAFX_MSGMAP@@XZ ; CDlgSysVarOption::GetMessageMap
PUBLIC	?OnBnClickedOk@CDlgSysVarOption@@QAEXXZ		; CDlgSysVarOption::OnBnClickedOk
PUBLIC	??_GCDlgSysVarOption@@UAEPAXI@Z			; CDlgSysVarOption::`scalar deleting destructor'
PUBLIC	??_C@_00CNPNBAHC@@				; `string'
PUBLIC	??_7CCommonDialog@@6B@				; CCommonDialog::`vftable'
PUBLIC	??_R0?AVCObject@@@8				; CObject `RTTI Type Descriptor'
PUBLIC	??_R3CObject@@8					; CObject::`RTTI Class Hierarchy Descriptor'
PUBLIC	??_R2CObject@@8					; CObject::`RTTI Base Class Array'
PUBLIC	??_R1A@?0A@EA@CObject@@8			; CObject::`RTTI Base Class Descriptor at (0,-1,0,64)'
PUBLIC	??_R1A@?0A@EA@CWnd@@8				; CWnd::`RTTI Base Class Descriptor at (0,-1,0,64)'
PUBLIC	??_R0?AVCWnd@@@8				; CWnd `RTTI Type Descriptor'
PUBLIC	??_R3CWnd@@8					; CWnd::`RTTI Class Hierarchy Descriptor'
PUBLIC	??_R2CWnd@@8					; CWnd::`RTTI Base Class Array'
PUBLIC	??_R1A@?0A@EA@CCmdTarget@@8			; CCmdTarget::`RTTI Base Class Descriptor at (0,-1,0,64)'
PUBLIC	??_R0?AVCCmdTarget@@@8				; CCmdTarget `RTTI Type Descriptor'
PUBLIC	??_R3CCmdTarget@@8				; CCmdTarget::`RTTI Class Hierarchy Descriptor'
PUBLIC	??_R2CCmdTarget@@8				; CCmdTarget::`RTTI Base Class Array'
PUBLIC	??_R4CCommonDialog@@6B@				; CCommonDialog::`RTTI Complete Object Locator'
PUBLIC	??_R0?AVCCommonDialog@@@8			; CCommonDialog `RTTI Type Descriptor'
PUBLIC	??_R3CCommonDialog@@8				; CCommonDialog::`RTTI Class Hierarchy Descriptor'
PUBLIC	??_R2CCommonDialog@@8				; CCommonDialog::`RTTI Base Class Array'
PUBLIC	??_R1A@?0A@EA@CCommonDialog@@8			; CCommonDialog::`RTTI Base Class Descriptor at (0,-1,0,64)'
PUBLIC	??_R1A@?0A@EA@CDialog@@8			; CDialog::`RTTI Base Class Descriptor at (0,-1,0,64)'
PUBLIC	??_R0?AVCDialog@@@8				; CDialog `RTTI Type Descriptor'
PUBLIC	??_R3CDialog@@8					; CDialog::`RTTI Class Hierarchy Descriptor'
PUBLIC	??_R2CDialog@@8					; CDialog::`RTTI Base Class Array'
PUBLIC	??_7CDlgSysVarOption@@6B@			; CDlgSysVarOption::`vftable'
PUBLIC	??_C@_06FIHLBNDD@?$LK?$KP?$LM?v?$LI?m@		; `string'
PUBLIC	??_C@_06OJFAJFEJ@?$LK?$KP?$LM?v?$LA?$KK@	; `string'
PUBLIC	??_C@_06NGJGOFOJ@STNAME@			; `string'
PUBLIC	??_C@_02FBCBEJMG@P_@				; `string'
PUBLIC	??_C@_07DMFMBNNG@SFGPATH@			; `string'
PUBLIC	??_C@_04FIEANMAH@?4sfg@				; `string'
PUBLIC	??_C@_04HDOCAJNK@?$CFs?$CFs@			; `string'
PUBLIC	??_C@_06KPBPCKLI@STPATH@			; `string'
PUBLIC	??_C@_05FKHKFDID@index@				; `string'
PUBLIC	??_C@_08BENBMBBP@14476026@			; `string'
PUBLIC	??_C@_07DIBCEAPN@clrBull@			; `string'
PUBLIC	??_C@_08IFNLLDLJ@16248787@			; `string'
PUBLIC	??_C@_07LEJCLLOO@clrBear@			; `string'
PUBLIC	??_C@_09IJIPICN@Variables@			; `string'
PUBLIC	??_C@_08JFMIELNJ@InputCnt@			; `string'
PUBLIC	??_C@_0M@MKPENJBJ@InputName?$CFd@		; `string'
PUBLIC	??_C@_07JGNMLBPF@Input?$CFd@			; `string'
PUBLIC	??_C@_05DCDOHKAB@Input@				; `string'
PUBLIC	??_C@_04HGGBINEM@?$CFs?$CFd@			; `string'
PUBLIC	??_C@_03JALODAI@?$CFld@				; `string'
PUBLIC	??_R4CDlgSysVarOption@@6B@			; CDlgSysVarOption::`RTTI Complete Object Locator'
PUBLIC	??_R0?AVCDlgSysVarOption@@@8			; CDlgSysVarOption `RTTI Type Descriptor'
PUBLIC	??_R3CDlgSysVarOption@@8			; CDlgSysVarOption::`RTTI Class Hierarchy Descriptor'
PUBLIC	??_R2CDlgSysVarOption@@8			; CDlgSysVarOption::`RTTI Base Class Array'
PUBLIC	??_R1A@?0A@EA@CDlgSysVarOption@@8		; CDlgSysVarOption::`RTTI Base Class Descriptor at (0,-1,0,64)'
EXTRN	??3@YAXPAX@Z:PROC				; operator delete
EXTRN	?__global_delete@@YAXPAXI@Z:PROC		; __global_delete
EXTRN	__imp__GetPrivateProfileIntA@16:PROC
EXTRN	__imp__GetPrivateProfileStringA@24:PROC
EXTRN	__imp__WritePrivateProfileStringA@16:PROC
EXTRN	__imp__SendMessageA@16:PROC
EXTRN	__imp__EnableWindow@8:PROC
EXTRN	__imp__InvalidateRect@12:PROC
EXTRN	__imp__atol:PROC
EXTRN	?AfxThrowInvalidArgException@@YGXXZ:PROC	; AfxThrowInvalidArgException
EXTRN	__imp_??0?$CStringT@DV?$StrTraitMFC_DLL@DV?$ChTraitsCRT@D@ATL@@@@@ATL@@QAE@XZ:PROC
EXTRN	__imp_??1?$CStringT@DV?$StrTraitMFC_DLL@DV?$ChTraitsCRT@D@ATL@@@@@ATL@@QAE@XZ:PROC
EXTRN	__imp_??4?$CStringT@DV?$StrTraitMFC_DLL@DV?$ChTraitsCRT@D@ATL@@@@@ATL@@QAEAAV01@ABV01@@Z:PROC
EXTRN	__imp_?Compare@?$CStringT@DV?$StrTraitMFC_DLL@DV?$ChTraitsCRT@D@ATL@@@@@ATL@@QBEHPBD@Z:PROC
EXTRN	__imp_?CompareNoCase@?$CStringT@DV?$StrTraitMFC_DLL@DV?$ChTraitsCRT@D@ATL@@@@@ATL@@QBEHPBD@Z:PROC
EXTRN	__imp_?Find@?$CStringT@DV?$StrTraitMFC_DLL@DV?$ChTraitsCRT@D@ATL@@@@@ATL@@QBEHDH@Z:PROC
EXTRN	__imp_?Mid@?$CStringT@DV?$StrTraitMFC_DLL@DV?$ChTraitsCRT@D@ATL@@@@@ATL@@QBE?AV12@H@Z:PROC
EXTRN	__imp_?Left@?$CStringT@DV?$StrTraitMFC_DLL@DV?$ChTraitsCRT@D@ATL@@@@@ATL@@QBE?AV12@H@Z:PROC
EXTRN	__imp_?Format@?$CStringT@DV?$StrTraitMFC_DLL@DV?$ChTraitsCRT@D@ATL@@@@@ATL@@QAAXPBDZZ:PROC
EXTRN	??0CStringArray@@QAE@XZ:PROC			; CStringArray::CStringArray
EXTRN	??1CStringArray@@UAE@XZ:PROC			; CStringArray::~CStringArray
EXTRN	?DDX_Control@@YGXPAVCDataExchange@@HAAVCWnd@@@Z:PROC ; DDX_Control
EXTRN	?IsInvokeAllowed@CCmdTarget@@UAEHJ@Z:PROC	; CCmdTarget::IsInvokeAllowed
EXTRN	?GetDispatchIID@CCmdTarget@@UAEHPAU_GUID@@@Z:PROC ; CCmdTarget::GetDispatchIID
EXTRN	?GetTypeInfoCount@CCmdTarget@@UAEIXZ:PROC	; CCmdTarget::GetTypeInfoCount
EXTRN	?GetTypeLibCache@CCmdTarget@@UAEPAVCTypeLibCache@@XZ:PROC ; CCmdTarget::GetTypeLibCache
EXTRN	?GetTypeLib@CCmdTarget@@UAEJKPAPAUITypeLib@@@Z:PROC ; CCmdTarget::GetTypeLib
EXTRN	?GetCommandMap@CCmdTarget@@MBEPBUAFX_OLECMDMAP@@XZ:PROC ; CCmdTarget::GetCommandMap
EXTRN	?GetDispatchMap@CCmdTarget@@MBEPBUAFX_DISPMAP@@XZ:PROC ; CCmdTarget::GetDispatchMap
EXTRN	?GetConnectionMap@CCmdTarget@@MBEPBUAFX_CONNECTIONMAP@@XZ:PROC ; CCmdTarget::GetConnectionMap
EXTRN	?GetEventSinkMap@CCmdTarget@@MBEPBUAFX_EVENTSINKMAP@@XZ:PROC ; CCmdTarget::GetEventSinkMap
EXTRN	?OnCreateAggregates@CCmdTarget@@UAEHXZ:PROC	; CCmdTarget::OnCreateAggregates
EXTRN	?GetInterfaceHook@CCmdTarget@@UAEPAUIUnknown@@PBX@Z:PROC ; CCmdTarget::GetInterfaceHook
EXTRN	?GetExtraConnectionPoints@CCmdTarget@@MAEHPAVCPtrArray@@@Z:PROC ; CCmdTarget::GetExtraConnectionPoints
EXTRN	?GetConnectionHook@CCmdTarget@@MAEPAUIConnectionPoint@@ABU_GUID@@@Z:PROC ; CCmdTarget::GetConnectionHook
EXTRN	?PreSubclassWindow@CWnd@@UAEXXZ:PROC		; CWnd::PreSubclassWindow
EXTRN	?Create@CWnd@@UAEHPBD0KABUtagRECT@@PAV1@IPAUCCreateContext@@@Z:PROC ; CWnd::Create
EXTRN	?CreateEx@CWnd@@UAEHKPBD0KHHHHPAUHWND__@@PAUHMENU__@@PAX@Z:PROC ; CWnd::CreateEx
EXTRN	?CreateEx@CWnd@@UAEHKPBD0KABUtagRECT@@PAV1@IPAX@Z:PROC ; CWnd::CreateEx
EXTRN	?DestroyWindow@CWnd@@UAEHXZ:PROC		; CWnd::DestroyWindow
EXTRN	?PreCreateWindow@CWnd@@UAEHAAUtagCREATESTRUCTA@@@Z:PROC ; CWnd::PreCreateWindow
EXTRN	?CalcWindowRect@CWnd@@UAEXPAUtagRECT@@I@Z:PROC	; CWnd::CalcWindowRect
EXTRN	?GetMenu@CWnd@@UBEPAVCMenu@@XZ:PROC		; CWnd::GetMenu
EXTRN	?SetMenu@CWnd@@UAEHPAVCMenu@@@Z:PROC		; CWnd::SetMenu
EXTRN	?OnToolHitTest@CWnd@@UBEHVCPoint@@PAUtagTOOLINFOA@@@Z:PROC ; CWnd::OnToolHitTest
EXTRN	?SetDlgItemTextA@CWnd@@QAEXHPBD@Z:PROC		; CWnd::SetDlgItemTextA
EXTRN	?GetScrollBarCtrl@CWnd@@UBEPAVCScrollBar@@H@Z:PROC ; CWnd::GetScrollBarCtrl
EXTRN	?WinHelpA@CWnd@@UAEXKI@Z:PROC			; CWnd::WinHelpA
EXTRN	?HtmlHelpA@CWnd@@UAEXKI@Z:PROC			; CWnd::HtmlHelpA
EXTRN	?WinHelpInternal@CWnd@@UAEXKI@Z:PROC		; CWnd::WinHelpInternal
EXTRN	?ContinueModal@CWnd@@UAEHXZ:PROC		; CWnd::ContinueModal
EXTRN	?EndModalLoop@CWnd@@UAEXH@Z:PROC		; CWnd::EndModalLoop
EXTRN	?OnDrawIconicThumbnailOrLivePreview@CWnd@@UAEXAAVCDC@@VCRect@@VCSize@@HAAH@Z:PROC ; CWnd::OnDrawIconicThumbnailOrLivePreview
EXTRN	?GetInterfaceMap@CWnd@@MBEPBUAFX_INTERFACEMAP@@XZ:PROC ; CWnd::GetInterfaceMap
EXTRN	?EnsureStdObj@CWnd@@UAEJXZ:PROC			; CWnd::EnsureStdObj
EXTRN	?get_accParent@CWnd@@UAEJPAPAUIDispatch@@@Z:PROC ; CWnd::get_accParent
EXTRN	?get_accChildCount@CWnd@@UAEJPAJ@Z:PROC		; CWnd::get_accChildCount
EXTRN	?get_accChild@CWnd@@UAEJUtagVARIANT@@PAPAUIDispatch@@@Z:PROC ; CWnd::get_accChild
EXTRN	?get_accName@CWnd@@UAEJUtagVARIANT@@PAPA_W@Z:PROC ; CWnd::get_accName
EXTRN	?get_accValue@CWnd@@UAEJUtagVARIANT@@PAPA_W@Z:PROC ; CWnd::get_accValue
EXTRN	?get_accDescription@CWnd@@UAEJUtagVARIANT@@PAPA_W@Z:PROC ; CWnd::get_accDescription
EXTRN	?get_accRole@CWnd@@UAEJUtagVARIANT@@PAU2@@Z:PROC ; CWnd::get_accRole
EXTRN	?get_accState@CWnd@@UAEJUtagVARIANT@@PAU2@@Z:PROC ; CWnd::get_accState
EXTRN	?get_accHelp@CWnd@@UAEJUtagVARIANT@@PAPA_W@Z:PROC ; CWnd::get_accHelp
EXTRN	?get_accHelpTopic@CWnd@@UAEJPAPA_WUtagVARIANT@@PAJ@Z:PROC ; CWnd::get_accHelpTopic
EXTRN	?get_accKeyboardShortcut@CWnd@@UAEJUtagVARIANT@@PAPA_W@Z:PROC ; CWnd::get_accKeyboardShortcut
EXTRN	?get_accFocus@CWnd@@UAEJPAUtagVARIANT@@@Z:PROC	; CWnd::get_accFocus
EXTRN	?get_accSelection@CWnd@@UAEJPAUtagVARIANT@@@Z:PROC ; CWnd::get_accSelection
EXTRN	?get_accDefaultAction@CWnd@@UAEJUtagVARIANT@@PAPA_W@Z:PROC ; CWnd::get_accDefaultAction
EXTRN	?accSelect@CWnd@@UAEJJUtagVARIANT@@@Z:PROC	; CWnd::accSelect
EXTRN	?accLocation@CWnd@@UAEJPAJ000UtagVARIANT@@@Z:PROC ; CWnd::accLocation
EXTRN	?accNavigate@CWnd@@UAEJJUtagVARIANT@@PAU2@@Z:PROC ; CWnd::accNavigate
EXTRN	?accHitTest@CWnd@@UAEJJJPAUtagVARIANT@@@Z:PROC	; CWnd::accHitTest
EXTRN	?accDoDefaultAction@CWnd@@UAEJUtagVARIANT@@@Z:PROC ; CWnd::accDoDefaultAction
EXTRN	?put_accName@CWnd@@UAEJUtagVARIANT@@PA_W@Z:PROC	; CWnd::put_accName
EXTRN	?put_accValue@CWnd@@UAEJUtagVARIANT@@PA_W@Z:PROC ; CWnd::put_accValue
EXTRN	?SetProxy@CWnd@@UAEJPAUIAccessibleProxy@@@Z:PROC ; CWnd::SetProxy
EXTRN	?CreateAccessibleProxy@CWnd@@UAEJIJPAJ@Z:PROC	; CWnd::CreateAccessibleProxy
EXTRN	?OnCommand@CWnd@@MAEHIJ@Z:PROC			; CWnd::OnCommand
EXTRN	?OnNotify@CWnd@@MAEHIJPAJ@Z:PROC		; CWnd::OnNotify
EXTRN	?GetSuperWndProcAddr@CWnd@@MAEPAP6GJPAUHWND__@@IIJ@ZXZ:PROC ; CWnd::GetSuperWndProcAddr
EXTRN	?OnAmbientProperty@CWnd@@UAEHPAVCOleControlSite@@JPAUtagVARIANT@@@Z:PROC ; CWnd::OnAmbientProperty
EXTRN	?WindowProc@CWnd@@MAEJIIJ@Z:PROC		; CWnd::WindowProc
EXTRN	?OnWndMsg@CWnd@@MAEHIIJPAJ@Z:PROC		; CWnd::OnWndMsg
EXTRN	?DefWindowProcA@CWnd@@MAEJIIJ@Z:PROC		; CWnd::DefWindowProcA
EXTRN	?PostNcDestroy@CWnd@@MAEXXZ:PROC		; CWnd::PostNcDestroy
EXTRN	?OnChildNotify@CWnd@@MAEHIIJPAJ@Z:PROC		; CWnd::OnChildNotify
EXTRN	?OnTouchInputs@CWnd@@MAEHIPAUtagTOUCHINPUT@@@Z:PROC ; CWnd::OnTouchInputs
EXTRN	?OnTouchInput@CWnd@@MAEHVCPoint@@HHPAUtagTOUCHINPUT@@@Z:PROC ; CWnd::OnTouchInput
EXTRN	?GetGestureStatus@CWnd@@MAEKVCPoint@@@Z:PROC	; CWnd::GetGestureStatus
EXTRN	?OnGestureZoom@CWnd@@MAEHVCPoint@@J@Z:PROC	; CWnd::OnGestureZoom
EXTRN	?OnGesturePan@CWnd@@MAEHVCPoint@@0@Z:PROC	; CWnd::OnGesturePan
EXTRN	?OnGestureRotate@CWnd@@MAEHVCPoint@@N@Z:PROC	; CWnd::OnGestureRotate
EXTRN	?OnGestureTwoFingerTap@CWnd@@MAEHVCPoint@@@Z:PROC ; CWnd::OnGestureTwoFingerTap
EXTRN	?OnGesturePressAndTap@CWnd@@MAEHVCPoint@@J@Z:PROC ; CWnd::OnGesturePressAndTap
EXTRN	?ResizeDynamicLayout@CWnd@@MAEXXZ:PROC		; CWnd::ResizeDynamicLayout
EXTRN	?IsFrameWnd@CWnd@@UBEHXZ:PROC			; CWnd::IsFrameWnd
EXTRN	?OnFinalRelease@CWnd@@UAEXXZ:PROC		; CWnd::OnFinalRelease
EXTRN	?CreateControlContainer@CWnd@@MAEHPAPAVCOleControlContainer@@@Z:PROC ; CWnd::CreateControlContainer
EXTRN	?CreateControlSite@CWnd@@MAEHPAVCOleControlContainer@@PAPAVCOleControlSite@@IABU_GUID@@@Z:PROC ; CWnd::CreateControlSite
EXTRN	?GetRuntimeClass@CDialog@@UBEPAUCRuntimeClass@@XZ:PROC ; CDialog::GetRuntimeClass
EXTRN	?Create@CDialog@@UAEHPBDPAVCWnd@@@Z:PROC	; CDialog::Create
EXTRN	?CreateIndirect@CDialog@@UAEHPBUDLGTEMPLATE@@PAVCWnd@@PAX@Z:PROC ; CDialog::CreateIndirect
EXTRN	?CreateIndirect@CDialog@@UAEHPAXPAVCWnd@@@Z:PROC ; CDialog::CreateIndirect
EXTRN	??0CDialog@@QAE@IPAVCWnd@@@Z:PROC		; CDialog::CDialog
EXTRN	?DoModal@CDialog@@UAEHXZ:PROC			; CDialog::DoModal
EXTRN	?OnInitDialog@CDialog@@UAEHXZ:PROC		; CDialog::OnInitDialog
EXTRN	?OnSetFont@CDialog@@UAEXPAVCFont@@@Z:PROC	; CDialog::OnSetFont
EXTRN	?OnOK@CDialog@@MAEXXZ:PROC			; CDialog::OnOK
EXTRN	?OnCancel@CDialog@@MAEXXZ:PROC			; CDialog::OnCancel
EXTRN	??1CDialog@@UAE@XZ:PROC				; CDialog::~CDialog
EXTRN	?PreTranslateMessage@CDialog@@UAEHPAUtagMSG@@@Z:PROC ; CDialog::PreTranslateMessage
EXTRN	?OnCmdMsg@CDialog@@UAEHIHPAXPAUAFX_CMDHANDLERINFO@@@Z:PROC ; CDialog::OnCmdMsg
EXTRN	?CheckAutoCenter@CDialog@@UAEHXZ:PROC		; CDialog::CheckAutoCenter
EXTRN	?SetOccDialogInfo@CDialog@@MAEHPAU_AFX_OCC_DIALOG_INFO@@@Z:PROC ; CDialog::SetOccDialogInfo
EXTRN	?GetOccDialogInfo@CDialog@@MAEPAU_AFX_OCC_DIALOG_INFO@@XZ:PROC ; CDialog::GetOccDialogInfo
EXTRN	?PreInitDialog@CDialog@@MAEXXZ:PROC		; CDialog::PreInitDialog
EXTRN	?GetThisMessageMap@CDialog@@KGPBUAFX_MSGMAP@@XZ:PROC ; CDialog::GetThisMessageMap
EXTRN	?GetRuntimeClass@CCommonDialog@@UBEPAUCRuntimeClass@@XZ:PROC ; CCommonDialog::GetRuntimeClass
EXTRN	?OnOK@CCommonDialog@@MAEXXZ:PROC		; CCommonDialog::OnOK
EXTRN	?OnCancel@CCommonDialog@@MAEXXZ:PROC		; CCommonDialog::OnCancel
EXTRN	?GetMessageMap@CCommonDialog@@MBEPBUAFX_MSGMAP@@XZ:PROC ; CCommonDialog::GetMessageMap
EXTRN	??_ECCommonDialog@@UAEPAXI@Z:PROC		; CCommonDialog::`vector deleting destructor'
EXTRN	??0CColorDialog@@QAE@KKPAVCWnd@@@Z:PROC		; CColorDialog::CColorDialog
EXTRN	?DoModal@CColorDialog@@UAEHXZ:PROC		; CColorDialog::DoModal
EXTRN	?GetItemText@CListCtrl@@QBE?AV?$CStringT@DV?$StrTraitMFC_DLL@DV?$ChTraitsCRT@D@ATL@@@@@ATL@@HH@Z:PROC ; CListCtrl::GetItemText
EXTRN	??0CColorButton@@QAE@XZ:PROC			; CColorButton::CColorButton
EXTRN	??1CColorButton@@UAE@XZ:PROC			; CColorButton::~CColorButton
EXTRN	?SetColor@CColorButton@@QAEXABK@Z:PROC		; CColorButton::SetColor
EXTRN	??0CXListCtrl@@QAE@XZ:PROC			; CXListCtrl::CXListCtrl
EXTRN	??1CXListCtrl@@UAE@XZ:PROC			; CXListCtrl::~CXListCtrl
EXTRN	?InsertItem@CXListCtrl@@QAEHHPBD@Z:PROC		; CXListCtrl::InsertItem
EXTRN	?SetItemText@CXListCtrl@@QAEHHHPBD@Z:PROC	; CXListCtrl::SetItemText
EXTRN	?SetEditBox@CXListCtrl@@QAEHHHH@Z:PROC		; CXListCtrl::SetEditBox
EXTRN	??_ECDlgSysVarOption@@UAEPAXI@Z:PROC		; CDlgSysVarOption::`vector deleting destructor'
EXTRN	@__security_check_cookie@4:PROC
EXTRN	___CxxFrameHandler3:PROC
EXTRN	_memset:PROC
EXTRN	??_7type_info@@6B@:QWORD			; type_info::`vftable'
EXTRN	___security_cookie:DWORD
;	COMDAT ??_R1A@?0A@EA@CDlgSysVarOption@@8
rdata$r	SEGMENT
??_R1A@?0A@EA@CDlgSysVarOption@@8 DD FLAT:??_R0?AVCDlgSysVarOption@@@8 ; CDlgSysVarOption::`RTTI Base Class Descriptor at (0,-1,0,64)'
	DD	04H
	DD	00H
	DD	0ffffffffH
	DD	00H
	DD	040H
	DD	FLAT:??_R3CDlgSysVarOption@@8
rdata$r	ENDS
;	COMDAT ??_R2CDlgSysVarOption@@8
rdata$r	SEGMENT
??_R2CDlgSysVarOption@@8 DD FLAT:??_R1A@?0A@EA@CDlgSysVarOption@@8 ; CDlgSysVarOption::`RTTI Base Class Array'
	DD	FLAT:??_R1A@?0A@EA@CDialog@@8
	DD	FLAT:??_R1A@?0A@EA@CWnd@@8
	DD	FLAT:??_R1A@?0A@EA@CCmdTarget@@8
	DD	FLAT:??_R1A@?0A@EA@CObject@@8
rdata$r	ENDS
;	COMDAT ??_R3CDlgSysVarOption@@8
rdata$r	SEGMENT
??_R3CDlgSysVarOption@@8 DD 00H				; CDlgSysVarOption::`RTTI Class Hierarchy Descriptor'
	DD	00H
	DD	05H
	DD	FLAT:??_R2CDlgSysVarOption@@8
rdata$r	ENDS
;	COMDAT ??_R0?AVCDlgSysVarOption@@@8
data$rs	SEGMENT
??_R0?AVCDlgSysVarOption@@@8 DD FLAT:??_7type_info@@6B@	; CDlgSysVarOption `RTTI Type Descriptor'
	DD	00H
	DB	'.?AVCDlgSysVarOption@@', 00H
data$rs	ENDS
;	COMDAT ??_R4CDlgSysVarOption@@6B@
rdata$r	SEGMENT
??_R4CDlgSysVarOption@@6B@ DD 00H			; CDlgSysVarOption::`RTTI Complete Object Locator'
	DD	00H
	DD	00H
	DD	FLAT:??_R0?AVCDlgSysVarOption@@@8
	DD	FLAT:??_R3CDlgSysVarOption@@8
rdata$r	ENDS
;	COMDAT ??_C@_03JALODAI@?$CFld@
CONST	SEGMENT
??_C@_03JALODAI@?$CFld@ DB '%ld', 00H			; `string'
CONST	ENDS
;	COMDAT ??_C@_04HGGBINEM@?$CFs?$CFd@
CONST	SEGMENT
??_C@_04HGGBINEM@?$CFs?$CFd@ DB '%s%d', 00H		; `string'
CONST	ENDS
;	COMDAT ??_C@_05DCDOHKAB@Input@
CONST	SEGMENT
??_C@_05DCDOHKAB@Input@ DB 'Input', 00H			; `string'
CONST	ENDS
;	COMDAT ??_C@_07JGNMLBPF@Input?$CFd@
CONST	SEGMENT
??_C@_07JGNMLBPF@Input?$CFd@ DB 'Input%d', 00H		; `string'
CONST	ENDS
;	COMDAT ??_C@_0M@MKPENJBJ@InputName?$CFd@
CONST	SEGMENT
??_C@_0M@MKPENJBJ@InputName?$CFd@ DB 'InputName%d', 00H	; `string'
CONST	ENDS
;	COMDAT ??_C@_08JFMIELNJ@InputCnt@
CONST	SEGMENT
??_C@_08JFMIELNJ@InputCnt@ DB 'InputCnt', 00H		; `string'
CONST	ENDS
;	COMDAT ??_C@_09IJIPICN@Variables@
CONST	SEGMENT
??_C@_09IJIPICN@Variables@ DB 'Variables', 00H		; `string'
CONST	ENDS
;	COMDAT ??_C@_07LEJCLLOO@clrBear@
CONST	SEGMENT
??_C@_07LEJCLLOO@clrBear@ DB 'clrBear', 00H		; `string'
CONST	ENDS
;	COMDAT ??_C@_08IFNLLDLJ@16248787@
CONST	SEGMENT
??_C@_08IFNLLDLJ@16248787@ DB '16248787', 00H		; `string'
CONST	ENDS
;	COMDAT ??_C@_07DIBCEAPN@clrBull@
CONST	SEGMENT
??_C@_07DIBCEAPN@clrBull@ DB 'clrBull', 00H		; `string'
CONST	ENDS
;	COMDAT ??_C@_08BENBMBBP@14476026@
CONST	SEGMENT
??_C@_08BENBMBBP@14476026@ DB '14476026', 00H		; `string'
CONST	ENDS
;	COMDAT ??_C@_05FKHKFDID@index@
CONST	SEGMENT
??_C@_05FKHKFDID@index@ DB 'index', 00H			; `string'
CONST	ENDS
;	COMDAT ??_C@_06KPBPCKLI@STPATH@
CONST	SEGMENT
??_C@_06KPBPCKLI@STPATH@ DB 'STPATH', 00H		; `string'
CONST	ENDS
;	COMDAT ??_C@_04HDOCAJNK@?$CFs?$CFs@
CONST	SEGMENT
??_C@_04HDOCAJNK@?$CFs?$CFs@ DB '%s%s', 00H		; `string'
CONST	ENDS
;	COMDAT ??_C@_04FIEANMAH@?4sfg@
CONST	SEGMENT
??_C@_04FIEANMAH@?4sfg@ DB '.sfg', 00H			; `string'
CONST	ENDS
;	COMDAT ??_C@_07DMFMBNNG@SFGPATH@
CONST	SEGMENT
??_C@_07DMFMBNNG@SFGPATH@ DB 'SFGPATH', 00H		; `string'
CONST	ENDS
;	COMDAT ??_C@_02FBCBEJMG@P_@
CONST	SEGMENT
??_C@_02FBCBEJMG@P_@ DB 'P_', 00H			; `string'
CONST	ENDS
;	COMDAT ??_C@_06NGJGOFOJ@STNAME@
CONST	SEGMENT
??_C@_06NGJGOFOJ@STNAME@ DB 'STNAME', 00H		; `string'
CONST	ENDS
;	COMDAT ??_C@_06OJFAJFEJ@?$LK?$KP?$LM?v?$LA?$KK@
CONST	SEGMENT
??_C@_06OJFAJFEJ@?$LK?$KP?$LM?v?$LA?$KK@ DB 0baH, 0afH, 0bcH, 0f6H, 0b0H, 0aaH
	DB	00H						; `string'
CONST	ENDS
;	COMDAT ??_C@_06FIHLBNDD@?$LK?$KP?$LM?v?$LI?m@
CONST	SEGMENT
??_C@_06FIHLBNDD@?$LK?$KP?$LM?v?$LI?m@ DB 0baH, 0afH, 0bcH, 0f6H, 0b8H, 0edH
	DB	00H						; `string'
CONST	ENDS
;	COMDAT ?messageMap@?1??GetThisMessageMap@CDlgSysVarOption@@KGPBUAFX_MSGMAP@@XZ@4U3@B
CONST	SEGMENT
?messageMap@?1??GetThisMessageMap@CDlgSysVarOption@@KGPBUAFX_MSGMAP@@XZ@4U3@B DD FLAT:?GetThisMessageMap@CDialog@@KGPBUAFX_MSGMAP@@XZ ; `CDlgSysVarOption::GetThisMessageMap'::`2'::messageMap
	DD	FLAT:?_messageEntries@?1??GetThisMessageMap@CDlgSysVarOption@@KGPBUAFX_MSGMAP@@XZ@4QBUAFX_MSGMAP_ENTRY@@B
CONST	ENDS
;	COMDAT ?_messageEntries@?1??GetThisMessageMap@CDlgSysVarOption@@KGPBUAFX_MSGMAP@@XZ@4QBUAFX_MSGMAP_ENTRY@@B
CONST	SEGMENT
?_messageEntries@?1??GetThisMessageMap@CDlgSysVarOption@@KGPBUAFX_MSGMAP@@XZ@4QBUAFX_MSGMAP_ENTRY@@B DD 0111H ; `CDlgSysVarOption::GetThisMessageMap'::`2'::_messageEntries
	DD	00H
	DD	03fcH
	DD	03fcH
	DD	03aH
	DD	FLAT:?OnBtClrBull@CDlgSysVarOption@@IAEXXZ
	DD	0111H
	DD	00H
	DD	03fdH
	DD	03fdH
	DD	03aH
	DD	FLAT:?OnBtClrBear@CDlgSysVarOption@@IAEXXZ
	DD	0111H
	DD	00H
	DD	01H
	DD	01H
	DD	03aH
	DD	FLAT:?OnBnClickedOk@CDlgSysVarOption@@QAEXXZ
	DD	00H
	DD	00H
	DD	00H
	DD	00H
	DD	00H
	DD	00H
CONST	ENDS
;	COMDAT ??_7CDlgSysVarOption@@6B@
CONST	SEGMENT
??_7CDlgSysVarOption@@6B@ DD FLAT:??_R4CDlgSysVarOption@@6B@ ; CDlgSysVarOption::`vftable'
	DD	FLAT:?GetRuntimeClass@CDialog@@UBEPAUCRuntimeClass@@XZ
	DD	FLAT:??_ECDlgSysVarOption@@UAEPAXI@Z
	DD	FLAT:?Serialize@CObject@@UAEXAAVCArchive@@@Z
	DD	FLAT:?AssertValid@CObject@@UBEXXZ
	DD	FLAT:?Dump@CObject@@UBEXAAVCDumpContext@@@Z
	DD	FLAT:?OnCmdMsg@CDialog@@UAEHIHPAXPAUAFX_CMDHANDLERINFO@@@Z
	DD	FLAT:?OnFinalRelease@CWnd@@UAEXXZ
	DD	FLAT:?IsInvokeAllowed@CCmdTarget@@UAEHJ@Z
	DD	FLAT:?GetDispatchIID@CCmdTarget@@UAEHPAU_GUID@@@Z
	DD	FLAT:?GetTypeInfoCount@CCmdTarget@@UAEIXZ
	DD	FLAT:?GetTypeLibCache@CCmdTarget@@UAEPAVCTypeLibCache@@XZ
	DD	FLAT:?GetTypeLib@CCmdTarget@@UAEJKPAPAUITypeLib@@@Z
	DD	FLAT:?GetMessageMap@CDlgSysVarOption@@MBEPBUAFX_MSGMAP@@XZ
	DD	FLAT:?GetCommandMap@CCmdTarget@@MBEPBUAFX_OLECMDMAP@@XZ
	DD	FLAT:?GetDispatchMap@CCmdTarget@@MBEPBUAFX_DISPMAP@@XZ
	DD	FLAT:?GetConnectionMap@CCmdTarget@@MBEPBUAFX_CONNECTIONMAP@@XZ
	DD	FLAT:?GetInterfaceMap@CWnd@@MBEPBUAFX_INTERFACEMAP@@XZ
	DD	FLAT:?GetEventSinkMap@CCmdTarget@@MBEPBUAFX_EVENTSINKMAP@@XZ
	DD	FLAT:?OnCreateAggregates@CCmdTarget@@UAEHXZ
	DD	FLAT:?GetInterfaceHook@CCmdTarget@@UAEPAUIUnknown@@PBX@Z
	DD	FLAT:?GetExtraConnectionPoints@CCmdTarget@@MAEHPAVCPtrArray@@@Z
	DD	FLAT:?GetConnectionHook@CCmdTarget@@MAEPAUIConnectionPoint@@ABU_GUID@@@Z
	DD	FLAT:?PreSubclassWindow@CWnd@@UAEXXZ
	DD	FLAT:?Create@CWnd@@UAEHPBD0KABUtagRECT@@PAV1@IPAUCCreateContext@@@Z
	DD	FLAT:?CreateEx@CWnd@@UAEHKPBD0KABUtagRECT@@PAV1@IPAX@Z
	DD	FLAT:?CreateEx@CWnd@@UAEHKPBD0KHHHHPAUHWND__@@PAUHMENU__@@PAX@Z
	DD	FLAT:?DestroyWindow@CWnd@@UAEHXZ
	DD	FLAT:?PreCreateWindow@CWnd@@UAEHAAUtagCREATESTRUCTA@@@Z
	DD	FLAT:?CalcWindowRect@CWnd@@UAEXPAUtagRECT@@I@Z
	DD	FLAT:?GetMenu@CWnd@@UBEPAVCMenu@@XZ
	DD	FLAT:?SetMenu@CWnd@@UAEHPAVCMenu@@@Z
	DD	FLAT:?OnToolHitTest@CWnd@@UBEHVCPoint@@PAUtagTOOLINFOA@@@Z
	DD	FLAT:?GetScrollBarCtrl@CWnd@@UBEPAVCScrollBar@@H@Z
	DD	FLAT:?WinHelpA@CWnd@@UAEXKI@Z
	DD	FLAT:?HtmlHelpA@CWnd@@UAEXKI@Z
	DD	FLAT:?WinHelpInternal@CWnd@@UAEXKI@Z
	DD	FLAT:?ContinueModal@CWnd@@UAEHXZ
	DD	FLAT:?EndModalLoop@CWnd@@UAEXH@Z
	DD	FLAT:?OnDrawIconicThumbnailOrLivePreview@CWnd@@UAEXAAVCDC@@VCRect@@VCSize@@HAAH@Z
	DD	FLAT:?EnsureStdObj@CWnd@@UAEJXZ
	DD	FLAT:?get_accParent@CWnd@@UAEJPAPAUIDispatch@@@Z
	DD	FLAT:?get_accChildCount@CWnd@@UAEJPAJ@Z
	DD	FLAT:?get_accChild@CWnd@@UAEJUtagVARIANT@@PAPAUIDispatch@@@Z
	DD	FLAT:?get_accName@CWnd@@UAEJUtagVARIANT@@PAPA_W@Z
	DD	FLAT:?get_accValue@CWnd@@UAEJUtagVARIANT@@PAPA_W@Z
	DD	FLAT:?get_accDescription@CWnd@@UAEJUtagVARIANT@@PAPA_W@Z
	DD	FLAT:?get_accRole@CWnd@@UAEJUtagVARIANT@@PAU2@@Z
	DD	FLAT:?get_accState@CWnd@@UAEJUtagVARIANT@@PAU2@@Z
	DD	FLAT:?get_accHelp@CWnd@@UAEJUtagVARIANT@@PAPA_W@Z
	DD	FLAT:?get_accHelpTopic@CWnd@@UAEJPAPA_WUtagVARIANT@@PAJ@Z
	DD	FLAT:?get_accKeyboardShortcut@CWnd@@UAEJUtagVARIANT@@PAPA_W@Z
	DD	FLAT:?get_accFocus@CWnd@@UAEJPAUtagVARIANT@@@Z
	DD	FLAT:?get_accSelection@CWnd@@UAEJPAUtagVARIANT@@@Z
	DD	FLAT:?get_accDefaultAction@CWnd@@UAEJUtagVARIANT@@PAPA_W@Z
	DD	FLAT:?accSelect@CWnd@@UAEJJUtagVARIANT@@@Z
	DD	FLAT:?accLocation@CWnd@@UAEJPAJ000UtagVARIANT@@@Z
	DD	FLAT:?accNavigate@CWnd@@UAEJJUtagVARIANT@@PAU2@@Z
	DD	FLAT:?accHitTest@CWnd@@UAEJJJPAUtagVARIANT@@@Z
	DD	FLAT:?accDoDefaultAction@CWnd@@UAEJUtagVARIANT@@@Z
	DD	FLAT:?put_accName@CWnd@@UAEJUtagVARIANT@@PA_W@Z
	DD	FLAT:?put_accValue@CWnd@@UAEJUtagVARIANT@@PA_W@Z
	DD	FLAT:?SetProxy@CWnd@@UAEJPAUIAccessibleProxy@@@Z
	DD	FLAT:?CreateAccessibleProxy@CWnd@@UAEJIJPAJ@Z
	DD	FLAT:?OnCommand@CWnd@@MAEHIJ@Z
	DD	FLAT:?OnNotify@CWnd@@MAEHIJPAJ@Z
	DD	FLAT:?GetSuperWndProcAddr@CWnd@@MAEPAP6GJPAUHWND__@@IIJ@ZXZ
	DD	FLAT:?DoDataExchange@CDlgSysVarOption@@MAEXPAVCDataExchange@@@Z
	DD	FLAT:?BeginModalState@CWnd@@UAEXXZ
	DD	FLAT:?EndModalState@CWnd@@UAEXXZ
	DD	FLAT:?PreTranslateMessage@CDialog@@UAEHPAUtagMSG@@@Z
	DD	FLAT:?OnAmbientProperty@CWnd@@UAEHPAVCOleControlSite@@JPAUtagVARIANT@@@Z
	DD	FLAT:?WindowProc@CWnd@@MAEJIIJ@Z
	DD	FLAT:?OnWndMsg@CWnd@@MAEHIIJPAJ@Z
	DD	FLAT:?DefWindowProcA@CWnd@@MAEJIIJ@Z
	DD	FLAT:?PostNcDestroy@CWnd@@MAEXXZ
	DD	FLAT:?OnChildNotify@CWnd@@MAEHIIJPAJ@Z
	DD	FLAT:?OnTouchInputs@CWnd@@MAEHIPAUtagTOUCHINPUT@@@Z
	DD	FLAT:?OnTouchInput@CWnd@@MAEHVCPoint@@HHPAUtagTOUCHINPUT@@@Z
	DD	FLAT:?GetGestureStatus@CWnd@@MAEKVCPoint@@@Z
	DD	FLAT:?OnGestureZoom@CWnd@@MAEHVCPoint@@J@Z
	DD	FLAT:?OnGesturePan@CWnd@@MAEHVCPoint@@0@Z
	DD	FLAT:?OnGestureRotate@CWnd@@MAEHVCPoint@@N@Z
	DD	FLAT:?OnGestureTwoFingerTap@CWnd@@MAEHVCPoint@@@Z
	DD	FLAT:?OnGesturePressAndTap@CWnd@@MAEHVCPoint@@J@Z
	DD	FLAT:?ResizeDynamicLayout@CWnd@@MAEXXZ
	DD	FLAT:?CheckAutoCenter@CDialog@@UAEHXZ
	DD	FLAT:?IsFrameWnd@CWnd@@UBEHXZ
	DD	FLAT:?CreateControlContainer@CWnd@@MAEHPAPAVCOleControlContainer@@@Z
	DD	FLAT:?CreateControlSite@CWnd@@MAEHPAVCOleControlContainer@@PAPAVCOleControlSite@@IABU_GUID@@@Z
	DD	FLAT:?SetOccDialogInfo@CDialog@@MAEHPAU_AFX_OCC_DIALOG_INFO@@@Z
	DD	FLAT:?GetOccDialogInfo@CDialog@@MAEPAU_AFX_OCC_DIALOG_INFO@@XZ
	DD	FLAT:?Create@CDialog@@UAEHIPAVCWnd@@@Z
	DD	FLAT:?Create@CDialog@@UAEHPBDPAVCWnd@@@Z
	DD	FLAT:?CreateIndirect@CDialog@@UAEHPAXPAVCWnd@@@Z
	DD	FLAT:?CreateIndirect@CDialog@@UAEHPBUDLGTEMPLATE@@PAVCWnd@@PAX@Z
	DD	FLAT:?DoModal@CDialog@@UAEHXZ
	DD	FLAT:?OnInitDialog@CDlgSysVarOption@@MAEHXZ
	DD	FLAT:?OnSetFont@CDialog@@UAEXPAVCFont@@@Z
	DD	FLAT:?OnOK@CDialog@@MAEXXZ
	DD	FLAT:?OnCancel@CDialog@@MAEXXZ
	DD	FLAT:?PreInitDialog@CDialog@@MAEXXZ
CONST	ENDS
;	COMDAT ??_R2CDialog@@8
rdata$r	SEGMENT
??_R2CDialog@@8 DD FLAT:??_R1A@?0A@EA@CDialog@@8	; CDialog::`RTTI Base Class Array'
	DD	FLAT:??_R1A@?0A@EA@CWnd@@8
	DD	FLAT:??_R1A@?0A@EA@CCmdTarget@@8
	DD	FLAT:??_R1A@?0A@EA@CObject@@8
rdata$r	ENDS
;	COMDAT ??_R3CDialog@@8
rdata$r	SEGMENT
??_R3CDialog@@8 DD 00H					; CDialog::`RTTI Class Hierarchy Descriptor'
	DD	00H
	DD	04H
	DD	FLAT:??_R2CDialog@@8
rdata$r	ENDS
;	COMDAT ??_R0?AVCDialog@@@8
data$rs	SEGMENT
??_R0?AVCDialog@@@8 DD FLAT:??_7type_info@@6B@		; CDialog `RTTI Type Descriptor'
	DD	00H
	DB	'.?AVCDialog@@', 00H
data$rs	ENDS
;	COMDAT ??_R1A@?0A@EA@CDialog@@8
rdata$r	SEGMENT
??_R1A@?0A@EA@CDialog@@8 DD FLAT:??_R0?AVCDialog@@@8	; CDialog::`RTTI Base Class Descriptor at (0,-1,0,64)'
	DD	03H
	DD	00H
	DD	0ffffffffH
	DD	00H
	DD	040H
	DD	FLAT:??_R3CDialog@@8
rdata$r	ENDS
;	COMDAT ??_R1A@?0A@EA@CCommonDialog@@8
rdata$r	SEGMENT
??_R1A@?0A@EA@CCommonDialog@@8 DD FLAT:??_R0?AVCCommonDialog@@@8 ; CCommonDialog::`RTTI Base Class Descriptor at (0,-1,0,64)'
	DD	04H
	DD	00H
	DD	0ffffffffH
	DD	00H
	DD	040H
	DD	FLAT:??_R3CCommonDialog@@8
rdata$r	ENDS
;	COMDAT ??_R2CCommonDialog@@8
rdata$r	SEGMENT
??_R2CCommonDialog@@8 DD FLAT:??_R1A@?0A@EA@CCommonDialog@@8 ; CCommonDialog::`RTTI Base Class Array'
	DD	FLAT:??_R1A@?0A@EA@CDialog@@8
	DD	FLAT:??_R1A@?0A@EA@CWnd@@8
	DD	FLAT:??_R1A@?0A@EA@CCmdTarget@@8
	DD	FLAT:??_R1A@?0A@EA@CObject@@8
rdata$r	ENDS
;	COMDAT ??_R3CCommonDialog@@8
rdata$r	SEGMENT
??_R3CCommonDialog@@8 DD 00H				; CCommonDialog::`RTTI Class Hierarchy Descriptor'
	DD	00H
	DD	05H
	DD	FLAT:??_R2CCommonDialog@@8
rdata$r	ENDS
;	COMDAT ??_R0?AVCCommonDialog@@@8
data$rs	SEGMENT
??_R0?AVCCommonDialog@@@8 DD FLAT:??_7type_info@@6B@	; CCommonDialog `RTTI Type Descriptor'
	DD	00H
	DB	'.?AVCCommonDialog@@', 00H
data$rs	ENDS
;	COMDAT ??_R4CCommonDialog@@6B@
rdata$r	SEGMENT
??_R4CCommonDialog@@6B@ DD 00H				; CCommonDialog::`RTTI Complete Object Locator'
	DD	00H
	DD	00H
	DD	FLAT:??_R0?AVCCommonDialog@@@8
	DD	FLAT:??_R3CCommonDialog@@8
rdata$r	ENDS
;	COMDAT ??_R2CCmdTarget@@8
rdata$r	SEGMENT
??_R2CCmdTarget@@8 DD FLAT:??_R1A@?0A@EA@CCmdTarget@@8	; CCmdTarget::`RTTI Base Class Array'
	DD	FLAT:??_R1A@?0A@EA@CObject@@8
rdata$r	ENDS
;	COMDAT ??_R3CCmdTarget@@8
rdata$r	SEGMENT
??_R3CCmdTarget@@8 DD 00H				; CCmdTarget::`RTTI Class Hierarchy Descriptor'
	DD	00H
	DD	02H
	DD	FLAT:??_R2CCmdTarget@@8
rdata$r	ENDS
;	COMDAT ??_R0?AVCCmdTarget@@@8
data$rs	SEGMENT
??_R0?AVCCmdTarget@@@8 DD FLAT:??_7type_info@@6B@	; CCmdTarget `RTTI Type Descriptor'
	DD	00H
	DB	'.?AVCCmdTarget@@', 00H
data$rs	ENDS
;	COMDAT ??_R1A@?0A@EA@CCmdTarget@@8
rdata$r	SEGMENT
??_R1A@?0A@EA@CCmdTarget@@8 DD FLAT:??_R0?AVCCmdTarget@@@8 ; CCmdTarget::`RTTI Base Class Descriptor at (0,-1,0,64)'
	DD	01H
	DD	00H
	DD	0ffffffffH
	DD	00H
	DD	040H
	DD	FLAT:??_R3CCmdTarget@@8
rdata$r	ENDS
;	COMDAT ??_R2CWnd@@8
rdata$r	SEGMENT
??_R2CWnd@@8 DD	FLAT:??_R1A@?0A@EA@CWnd@@8		; CWnd::`RTTI Base Class Array'
	DD	FLAT:??_R1A@?0A@EA@CCmdTarget@@8
	DD	FLAT:??_R1A@?0A@EA@CObject@@8
rdata$r	ENDS
;	COMDAT ??_R3CWnd@@8
rdata$r	SEGMENT
??_R3CWnd@@8 DD	00H					; CWnd::`RTTI Class Hierarchy Descriptor'
	DD	00H
	DD	03H
	DD	FLAT:??_R2CWnd@@8
rdata$r	ENDS
;	COMDAT ??_R0?AVCWnd@@@8
data$rs	SEGMENT
??_R0?AVCWnd@@@8 DD FLAT:??_7type_info@@6B@		; CWnd `RTTI Type Descriptor'
	DD	00H
	DB	'.?AVCWnd@@', 00H
data$rs	ENDS
;	COMDAT ??_R1A@?0A@EA@CWnd@@8
rdata$r	SEGMENT
??_R1A@?0A@EA@CWnd@@8 DD FLAT:??_R0?AVCWnd@@@8		; CWnd::`RTTI Base Class Descriptor at (0,-1,0,64)'
	DD	02H
	DD	00H
	DD	0ffffffffH
	DD	00H
	DD	040H
	DD	FLAT:??_R3CWnd@@8
rdata$r	ENDS
;	COMDAT ??_R1A@?0A@EA@CObject@@8
rdata$r	SEGMENT
??_R1A@?0A@EA@CObject@@8 DD FLAT:??_R0?AVCObject@@@8	; CObject::`RTTI Base Class Descriptor at (0,-1,0,64)'
	DD	00H
	DD	00H
	DD	0ffffffffH
	DD	00H
	DD	040H
	DD	FLAT:??_R3CObject@@8
rdata$r	ENDS
;	COMDAT ??_R2CObject@@8
rdata$r	SEGMENT
??_R2CObject@@8 DD FLAT:??_R1A@?0A@EA@CObject@@8	; CObject::`RTTI Base Class Array'
rdata$r	ENDS
;	COMDAT ??_R3CObject@@8
rdata$r	SEGMENT
??_R3CObject@@8 DD 00H					; CObject::`RTTI Class Hierarchy Descriptor'
	DD	00H
	DD	01H
	DD	FLAT:??_R2CObject@@8
rdata$r	ENDS
;	COMDAT ??_R0?AVCObject@@@8
data$rs	SEGMENT
??_R0?AVCObject@@@8 DD FLAT:??_7type_info@@6B@		; CObject `RTTI Type Descriptor'
	DD	00H
	DB	'.?AVCObject@@', 00H
data$rs	ENDS
;	COMDAT ??_7CCommonDialog@@6B@
CONST	SEGMENT
??_7CCommonDialog@@6B@ DD FLAT:??_R4CCommonDialog@@6B@	; CCommonDialog::`vftable'
	DD	FLAT:?GetRuntimeClass@CCommonDialog@@UBEPAUCRuntimeClass@@XZ
	DD	FLAT:??_ECCommonDialog@@UAEPAXI@Z
	DD	FLAT:?Serialize@CObject@@UAEXAAVCArchive@@@Z
	DD	FLAT:?AssertValid@CObject@@UBEXXZ
	DD	FLAT:?Dump@CObject@@UBEXAAVCDumpContext@@@Z
	DD	FLAT:?OnCmdMsg@CDialog@@UAEHIHPAXPAUAFX_CMDHANDLERINFO@@@Z
	DD	FLAT:?OnFinalRelease@CWnd@@UAEXXZ
	DD	FLAT:?IsInvokeAllowed@CCmdTarget@@UAEHJ@Z
	DD	FLAT:?GetDispatchIID@CCmdTarget@@UAEHPAU_GUID@@@Z
	DD	FLAT:?GetTypeInfoCount@CCmdTarget@@UAEIXZ
	DD	FLAT:?GetTypeLibCache@CCmdTarget@@UAEPAVCTypeLibCache@@XZ
	DD	FLAT:?GetTypeLib@CCmdTarget@@UAEJKPAPAUITypeLib@@@Z
	DD	FLAT:?GetMessageMap@CCommonDialog@@MBEPBUAFX_MSGMAP@@XZ
	DD	FLAT:?GetCommandMap@CCmdTarget@@MBEPBUAFX_OLECMDMAP@@XZ
	DD	FLAT:?GetDispatchMap@CCmdTarget@@MBEPBUAFX_DISPMAP@@XZ
	DD	FLAT:?GetConnectionMap@CCmdTarget@@MBEPBUAFX_CONNECTIONMAP@@XZ
	DD	FLAT:?GetInterfaceMap@CWnd@@MBEPBUAFX_INTERFACEMAP@@XZ
	DD	FLAT:?GetEventSinkMap@CCmdTarget@@MBEPBUAFX_EVENTSINKMAP@@XZ
	DD	FLAT:?OnCreateAggregates@CCmdTarget@@UAEHXZ
	DD	FLAT:?GetInterfaceHook@CCmdTarget@@UAEPAUIUnknown@@PBX@Z
	DD	FLAT:?GetExtraConnectionPoints@CCmdTarget@@MAEHPAVCPtrArray@@@Z
	DD	FLAT:?GetConnectionHook@CCmdTarget@@MAEPAUIConnectionPoint@@ABU_GUID@@@Z
	DD	FLAT:?PreSubclassWindow@CWnd@@UAEXXZ
	DD	FLAT:?Create@CWnd@@UAEHPBD0KABUtagRECT@@PAV1@IPAUCCreateContext@@@Z
	DD	FLAT:?CreateEx@CWnd@@UAEHKPBD0KABUtagRECT@@PAV1@IPAX@Z
	DD	FLAT:?CreateEx@CWnd@@UAEHKPBD0KHHHHPAUHWND__@@PAUHMENU__@@PAX@Z
	DD	FLAT:?DestroyWindow@CWnd@@UAEHXZ
	DD	FLAT:?PreCreateWindow@CWnd@@UAEHAAUtagCREATESTRUCTA@@@Z
	DD	FLAT:?CalcWindowRect@CWnd@@UAEXPAUtagRECT@@I@Z
	DD	FLAT:?GetMenu@CWnd@@UBEPAVCMenu@@XZ
	DD	FLAT:?SetMenu@CWnd@@UAEHPAVCMenu@@@Z
	DD	FLAT:?OnToolHitTest@CWnd@@UBEHVCPoint@@PAUtagTOOLINFOA@@@Z
	DD	FLAT:?GetScrollBarCtrl@CWnd@@UBEPAVCScrollBar@@H@Z
	DD	FLAT:?WinHelpA@CWnd@@UAEXKI@Z
	DD	FLAT:?HtmlHelpA@CWnd@@UAEXKI@Z
	DD	FLAT:?WinHelpInternal@CWnd@@UAEXKI@Z
	DD	FLAT:?ContinueModal@CWnd@@UAEHXZ
	DD	FLAT:?EndModalLoop@CWnd@@UAEXH@Z
	DD	FLAT:?OnDrawIconicThumbnailOrLivePreview@CWnd@@UAEXAAVCDC@@VCRect@@VCSize@@HAAH@Z
	DD	FLAT:?EnsureStdObj@CWnd@@UAEJXZ
	DD	FLAT:?get_accParent@CWnd@@UAEJPAPAUIDispatch@@@Z
	DD	FLAT:?get_accChildCount@CWnd@@UAEJPAJ@Z
	DD	FLAT:?get_accChild@CWnd@@UAEJUtagVARIANT@@PAPAUIDispatch@@@Z
	DD	FLAT:?get_accName@CWnd@@UAEJUtagVARIANT@@PAPA_W@Z
	DD	FLAT:?get_accValue@CWnd@@UAEJUtagVARIANT@@PAPA_W@Z
	DD	FLAT:?get_accDescription@CWnd@@UAEJUtagVARIANT@@PAPA_W@Z
	DD	FLAT:?get_accRole@CWnd@@UAEJUtagVARIANT@@PAU2@@Z
	DD	FLAT:?get_accState@CWnd@@UAEJUtagVARIANT@@PAU2@@Z
	DD	FLAT:?get_accHelp@CWnd@@UAEJUtagVARIANT@@PAPA_W@Z
	DD	FLAT:?get_accHelpTopic@CWnd@@UAEJPAPA_WUtagVARIANT@@PAJ@Z
	DD	FLAT:?get_accKeyboardShortcut@CWnd@@UAEJUtagVARIANT@@PAPA_W@Z
	DD	FLAT:?get_accFocus@CWnd@@UAEJPAUtagVARIANT@@@Z
	DD	FLAT:?get_accSelection@CWnd@@UAEJPAUtagVARIANT@@@Z
	DD	FLAT:?get_accDefaultAction@CWnd@@UAEJUtagVARIANT@@PAPA_W@Z
	DD	FLAT:?accSelect@CWnd@@UAEJJUtagVARIANT@@@Z
	DD	FLAT:?accLocation@CWnd@@UAEJPAJ000UtagVARIANT@@@Z
	DD	FLAT:?accNavigate@CWnd@@UAEJJUtagVARIANT@@PAU2@@Z
	DD	FLAT:?accHitTest@CWnd@@UAEJJJPAUtagVARIANT@@@Z
	DD	FLAT:?accDoDefaultAction@CWnd@@UAEJUtagVARIANT@@@Z
	DD	FLAT:?put_accName@CWnd@@UAEJUtagVARIANT@@PA_W@Z
	DD	FLAT:?put_accValue@CWnd@@UAEJUtagVARIANT@@PA_W@Z
	DD	FLAT:?SetProxy@CWnd@@UAEJPAUIAccessibleProxy@@@Z
	DD	FLAT:?CreateAccessibleProxy@CWnd@@UAEJIJPAJ@Z
	DD	FLAT:?OnCommand@CWnd@@MAEHIJ@Z
	DD	FLAT:?OnNotify@CWnd@@MAEHIJPAJ@Z
	DD	FLAT:?GetSuperWndProcAddr@CWnd@@MAEPAP6GJPAUHWND__@@IIJ@ZXZ
	DD	FLAT:?DoDataExchange@CWnd@@MAEXPAVCDataExchange@@@Z
	DD	FLAT:?BeginModalState@CWnd@@UAEXXZ
	DD	FLAT:?EndModalState@CWnd@@UAEXXZ
	DD	FLAT:?PreTranslateMessage@CDialog@@UAEHPAUtagMSG@@@Z
	DD	FLAT:?OnAmbientProperty@CWnd@@UAEHPAVCOleControlSite@@JPAUtagVARIANT@@@Z
	DD	FLAT:?WindowProc@CWnd@@MAEJIIJ@Z
	DD	FLAT:?OnWndMsg@CWnd@@MAEHIIJPAJ@Z
	DD	FLAT:?DefWindowProcA@CWnd@@MAEJIIJ@Z
	DD	FLAT:?PostNcDestroy@CWnd@@MAEXXZ
	DD	FLAT:?OnChildNotify@CWnd@@MAEHIIJPAJ@Z
	DD	FLAT:?OnTouchInputs@CWnd@@MAEHIPAUtagTOUCHINPUT@@@Z
	DD	FLAT:?OnTouchInput@CWnd@@MAEHVCPoint@@HHPAUtagTOUCHINPUT@@@Z
	DD	FLAT:?GetGestureStatus@CWnd@@MAEKVCPoint@@@Z
	DD	FLAT:?OnGestureZoom@CWnd@@MAEHVCPoint@@J@Z
	DD	FLAT:?OnGesturePan@CWnd@@MAEHVCPoint@@0@Z
	DD	FLAT:?OnGestureRotate@CWnd@@MAEHVCPoint@@N@Z
	DD	FLAT:?OnGestureTwoFingerTap@CWnd@@MAEHVCPoint@@@Z
	DD	FLAT:?OnGesturePressAndTap@CWnd@@MAEHVCPoint@@J@Z
	DD	FLAT:?ResizeDynamicLayout@CWnd@@MAEXXZ
	DD	FLAT:?CheckAutoCenter@CDialog@@UAEHXZ
	DD	FLAT:?IsFrameWnd@CWnd@@UBEHXZ
	DD	FLAT:?CreateControlContainer@CWnd@@MAEHPAPAVCOleControlContainer@@@Z
	DD	FLAT:?CreateControlSite@CWnd@@MAEHPAVCOleControlContainer@@PAPAVCOleControlSite@@IABU_GUID@@@Z
	DD	FLAT:?SetOccDialogInfo@CDialog@@MAEHPAU_AFX_OCC_DIALOG_INFO@@@Z
	DD	FLAT:?GetOccDialogInfo@CDialog@@MAEPAU_AFX_OCC_DIALOG_INFO@@XZ
	DD	FLAT:?Create@CDialog@@UAEHIPAVCWnd@@@Z
	DD	FLAT:?Create@CDialog@@UAEHPBDPAVCWnd@@@Z
	DD	FLAT:?CreateIndirect@CDialog@@UAEHPAXPAVCWnd@@@Z
	DD	FLAT:?CreateIndirect@CDialog@@UAEHPBUDLGTEMPLATE@@PAVCWnd@@PAX@Z
	DD	FLAT:?DoModal@CDialog@@UAEHXZ
	DD	FLAT:?OnInitDialog@CDialog@@UAEHXZ
	DD	FLAT:?OnSetFont@CDialog@@UAEXPAVCFont@@@Z
	DD	FLAT:?OnOK@CCommonDialog@@MAEXXZ
	DD	FLAT:?OnCancel@CCommonDialog@@MAEXXZ
	DD	FLAT:?PreInitDialog@CDialog@@MAEXXZ
CONST	ENDS
;	COMDAT ??_C@_00CNPNBAHC@@
CONST	SEGMENT
??_C@_00CNPNBAHC@@ DB 00H				; `string'
CONST	ENDS
;	COMDAT xdata$x
xdata$x	SEGMENT
__unwindtable$?OnBnClickedOk@CDlgSysVarOption@@QAEXXZ DD 0ffffffffH
	DD	FLAT:__unwindfunclet$?OnBnClickedOk@CDlgSysVarOption@@QAEXXZ$0
	DD	00H
	DD	FLAT:__unwindfunclet$?OnBnClickedOk@CDlgSysVarOption@@QAEXXZ$1
	DD	01H
	DD	FLAT:__unwindfunclet$?OnBnClickedOk@CDlgSysVarOption@@QAEXXZ$2
__ehfuncinfo$?OnBnClickedOk@CDlgSysVarOption@@QAEXXZ DD 019930522H
	DD	03H
	DD	FLAT:__unwindtable$?OnBnClickedOk@CDlgSysVarOption@@QAEXXZ
	DD	2 DUP(00H)
	DD	2 DUP(00H)
	DD	00H
	DD	01H
xdata$x	ENDS
;	COMDAT xdata$x
xdata$x	SEGMENT
__unwindtable$?DoBtnClr@CDlgSysVarOption@@QAEXAAVCColorButton@@@Z DD 0ffffffffH
	DD	FLAT:__unwindfunclet$?DoBtnClr@CDlgSysVarOption@@QAEXAAVCColorButton@@@Z$0
__ehfuncinfo$?DoBtnClr@CDlgSysVarOption@@QAEXAAVCColorButton@@@Z DD 019930522H
	DD	01H
	DD	FLAT:__unwindtable$?DoBtnClr@CDlgSysVarOption@@QAEXAAVCColorButton@@@Z
	DD	2 DUP(00H)
	DD	2 DUP(00H)
	DD	00H
	DD	01H
xdata$x	ENDS
;	COMDAT xdata$x
xdata$x	SEGMENT
__unwindtable$?DoLoadVarList@CDlgSysVarOption@@QAEXPBD@Z DD 0ffffffffH
	DD	FLAT:__unwindfunclet$?DoLoadVarList@CDlgSysVarOption@@QAEXPBD@Z$0
	DD	00H
	DD	FLAT:__unwindfunclet$?DoLoadVarList@CDlgSysVarOption@@QAEXPBD@Z$1
__ehfuncinfo$?DoLoadVarList@CDlgSysVarOption@@QAEXPBD@Z DD 019930522H
	DD	02H
	DD	FLAT:__unwindtable$?DoLoadVarList@CDlgSysVarOption@@QAEXPBD@Z
	DD	2 DUP(00H)
	DD	2 DUP(00H)
	DD	00H
	DD	01H
xdata$x	ENDS
;	COMDAT xdata$x
xdata$x	SEGMENT
__ehfuncinfo$?DoApplyInputParam@CDlgSysVarOption@@QAEXXZ DD 019930522H
	DD	0bH
	DD	FLAT:__unwindtable$?DoApplyInputParam@CDlgSysVarOption@@QAEXXZ
	DD	2 DUP(00H)
	DD	2 DUP(00H)
	DD	00H
	DD	01H
__unwindtable$?DoApplyInputParam@CDlgSysVarOption@@QAEXXZ DD 0ffffffffH
	DD	FLAT:__unwindfunclet$?DoApplyInputParam@CDlgSysVarOption@@QAEXXZ$0
	DD	00H
	DD	FLAT:__unwindfunclet$?DoApplyInputParam@CDlgSysVarOption@@QAEXXZ$1
	DD	01H
	DD	FLAT:__unwindfunclet$?DoApplyInputParam@CDlgSysVarOption@@QAEXXZ$2
	DD	02H
	DD	FLAT:__unwindfunclet$?DoApplyInputParam@CDlgSysVarOption@@QAEXXZ$3
	DD	02H
	DD	FLAT:__unwindfunclet$?DoApplyInputParam@CDlgSysVarOption@@QAEXXZ$4
	DD	02H
	DD	FLAT:__unwindfunclet$?DoApplyInputParam@CDlgSysVarOption@@QAEXXZ$5
	DD	02H
	DD	FLAT:__unwindfunclet$?DoApplyInputParam@CDlgSysVarOption@@QAEXXZ$6
	DD	02H
	DD	FLAT:__unwindfunclet$?DoApplyInputParam@CDlgSysVarOption@@QAEXXZ$7
	DD	02H
	DD	FLAT:__unwindfunclet$?DoApplyInputParam@CDlgSysVarOption@@QAEXXZ$8
	DD	02H
	DD	FLAT:__unwindfunclet$?DoApplyInputParam@CDlgSysVarOption@@QAEXXZ$9
	DD	09H
	DD	FLAT:__unwindfunclet$?DoApplyInputParam@CDlgSysVarOption@@QAEXXZ$10
xdata$x	ENDS
;	COMDAT xdata$x
xdata$x	SEGMENT
__ehfuncinfo$??0CDlgSysVarOption@@QAE@PAVCWnd@@@Z DD 019930522H
	DD	05H
	DD	FLAT:__unwindtable$??0CDlgSysVarOption@@QAE@PAVCWnd@@@Z
	DD	2 DUP(00H)
	DD	2 DUP(00H)
	DD	00H
	DD	01H
__unwindtable$??0CDlgSysVarOption@@QAE@PAVCWnd@@@Z DD 0ffffffffH
	DD	FLAT:__unwindfunclet$??0CDlgSysVarOption@@QAE@PAVCWnd@@@Z$0
	DD	00H
	DD	FLAT:__unwindfunclet$??0CDlgSysVarOption@@QAE@PAVCWnd@@@Z$1
	DD	01H
	DD	FLAT:__unwindfunclet$??0CDlgSysVarOption@@QAE@PAVCWnd@@@Z$2
	DD	02H
	DD	FLAT:__unwindfunclet$??0CDlgSysVarOption@@QAE@PAVCWnd@@@Z$3
	DD	03H
	DD	FLAT:__unwindfunclet$??0CDlgSysVarOption@@QAE@PAVCWnd@@@Z$4
xdata$x	ENDS
; Function compile flags: /Ogtp
; File C:\Program Files (x86)\Microsoft Visual Studio\2019\Community\VC\Tools\MSVC\14.29.30133\atlmfc\include\afx.inl
;	COMDAT ??_GCDlgSysVarOption@@UAEPAXI@Z
_TEXT	SEGMENT
___flags$ = 8						; size = 4
??_GCDlgSysVarOption@@UAEPAXI@Z PROC			; CDlgSysVarOption::`scalar deleting destructor', COMDAT
; _this$ = ecx
  00000	55		 push	 ebp
  00001	8b ec		 mov	 ebp, esp
  00003	56		 push	 esi
  00004	8b f1		 mov	 esi, ecx
  00006	8d 8e d8 01 00
	00		 lea	 ecx, DWORD PTR [esi+472]
  0000c	e8 00 00 00 00	 call	 ??1CXListCtrl@@UAE@XZ	; CXListCtrl::~CXListCtrl
  00011	8d 8e 48 01 00
	00		 lea	 ecx, DWORD PTR [esi+328]
  00017	e8 00 00 00 00	 call	 ??1CColorButton@@UAE@XZ	; CColorButton::~CColorButton
  0001c	8d 8e b8 00 00
	00		 lea	 ecx, DWORD PTR [esi+184]
  00022	e8 00 00 00 00	 call	 ??1CColorButton@@UAE@XZ	; CColorButton::~CColorButton
  00027	8d 8e b0 00 00
	00		 lea	 ecx, DWORD PTR [esi+176]
  0002d	ff 15 00 00 00
	00		 call	 DWORD PTR __imp_??1?$CStringT@DV?$StrTraitMFC_DLL@DV?$ChTraitsCRT@D@ATL@@@@@ATL@@QAE@XZ
  00033	8d 8e ac 00 00
	00		 lea	 ecx, DWORD PTR [esi+172]
  00039	ff 15 00 00 00
	00		 call	 DWORD PTR __imp_??1?$CStringT@DV?$StrTraitMFC_DLL@DV?$ChTraitsCRT@D@ATL@@@@@ATL@@QAE@XZ
  0003f	8b ce		 mov	 ecx, esi
  00041	e8 00 00 00 00	 call	 ??1CDialog@@UAE@XZ	; CDialog::~CDialog
  00046	8b 45 08	 mov	 eax, DWORD PTR ___flags$[ebp]
  00049	a8 01		 test	 al, 1
  0004b	74 22		 je	 SHORT $LN12@scalar
  0004d	a8 04		 test	 al, 4
  0004f	75 10		 jne	 SHORT $LN3@scalar

; 112  : 	{ ::operator delete(p); }

  00051	56		 push	 esi
  00052	e8 00 00 00 00	 call	 ??3@YAXPAX@Z		; operator delete
  00057	83 c4 04	 add	 esp, 4
  0005a	8b c6		 mov	 eax, esi
  0005c	5e		 pop	 esi
  0005d	5d		 pop	 ebp
  0005e	c2 04 00	 ret	 4
$LN3@scalar:
  00061	68 80 03 00 00	 push	 896			; 00000380H
  00066	56		 push	 esi
  00067	e8 00 00 00 00	 call	 ?__global_delete@@YAXPAXI@Z ; __global_delete
  0006c	83 c4 08	 add	 esp, 8
$LN12@scalar:
  0006f	8b c6		 mov	 eax, esi
  00071	5e		 pop	 esi
  00072	5d		 pop	 ebp
  00073	c2 04 00	 ret	 4
??_GCDlgSysVarOption@@UAEPAXI@Z ENDP			; CDlgSysVarOption::`scalar deleting destructor'
_TEXT	ENDS
; Function compile flags: /Ogtp
; File D:\git\src\IBK\IBK_DRFN\ProjSrc\SrcDrfn\Chart\HWSTRATEGYCONFIGUREWIZARD\DlgSysVarOption.cpp
; File C:\Program Files (x86)\Microsoft Visual Studio\2019\Community\VC\Tools\MSVC\14.29.30133\atlmfc\include\afxcmn.inl
; File D:\git\src\IBK\IBK_DRFN\ProjSrc\SrcDrfn\Chart\HWSTRATEGYCONFIGUREWIZARD\DlgSysVarOption.cpp
;	COMDAT ?OnBnClickedOk@CDlgSysVarOption@@QAEXXZ
_TEXT	SEGMENT
$T2 = -24						; size = 4
_szKey$ = -20						; size = 4
_szValue$ = -16						; size = 4
__$EHRec$ = -12						; size = 12
?OnBnClickedOk@CDlgSysVarOption@@QAEXXZ PROC		; CDlgSysVarOption::OnBnClickedOk, COMDAT
; _this$ = ecx

; 209  : {

  00000	55		 push	 ebp
  00001	8b ec		 mov	 ebp, esp
  00003	6a ff		 push	 -1
  00005	68 00 00 00 00	 push	 __ehhandler$?OnBnClickedOk@CDlgSysVarOption@@QAEXXZ
  0000a	64 a1 00 00 00
	00		 mov	 eax, DWORD PTR fs:0
  00010	50		 push	 eax
  00011	83 ec 0c	 sub	 esp, 12			; 0000000cH
  00014	53		 push	 ebx
  00015	56		 push	 esi
  00016	57		 push	 edi
  00017	a1 00 00 00 00	 mov	 eax, DWORD PTR ___security_cookie
  0001c	33 c5		 xor	 eax, ebp
  0001e	50		 push	 eax
  0001f	8d 45 f4	 lea	 eax, DWORD PTR __$EHRec$[ebp]
  00022	64 a3 00 00 00
	00		 mov	 DWORD PTR fs:0, eax
  00028	8b f9		 mov	 edi, ecx
; File C:\Program Files (x86)\Microsoft Visual Studio\2019\Community\VC\Tools\MSVC\14.29.30133\atlmfc\include\afxcmn.inl

; 155  : 	{ ASSERT(::IsWindow(m_hWnd)); return (int) ::SendMessage(m_hWnd, LVM_GETITEMCOUNT, 0, 0L); }

  0002a	6a 00		 push	 0
  0002c	6a 00		 push	 0
  0002e	68 04 10 00 00	 push	 4100			; 00001004H
  00033	ff b7 f8 01 00
	00		 push	 DWORD PTR [edi+504]
  00039	ff 15 00 00 00
	00		 call	 DWORD PTR __imp__SendMessageA@16
; File D:\git\src\IBK\IBK_DRFN\ProjSrc\SrcDrfn\Chart\HWSTRATEGYCONFIGUREWIZARD\DlgSysVarOption.cpp

; 212  : 	CString szValue, szKey;

  0003f	8d 4d f0	 lea	 ecx, DWORD PTR _szValue$[ebp]
  00042	8b d8		 mov	 ebx, eax
  00044	ff 15 00 00 00
	00		 call	 DWORD PTR __imp_??0?$CStringT@DV?$StrTraitMFC_DLL@DV?$ChTraitsCRT@D@ATL@@@@@ATL@@QAE@XZ
  0004a	8d 4d ec	 lea	 ecx, DWORD PTR _szKey$[ebp]
  0004d	c7 45 fc 00 00
	00 00		 mov	 DWORD PTR __$EHRec$[ebp+8], 0
  00054	ff 15 00 00 00
	00		 call	 DWORD PTR __imp_??0?$CStringT@DV?$StrTraitMFC_DLL@DV?$ChTraitsCRT@D@ATL@@@@@ATL@@QAE@XZ

; 213  : 
; 214  : 	for(int i=0; i<nCnt; i++)

  0005a	33 f6		 xor	 esi, esi
  0005c	c6 45 fc 01	 mov	 BYTE PTR __$EHRec$[ebp+8], 1
  00060	85 db		 test	 ebx, ebx
  00062	7e 6f		 jle	 SHORT $LN3@OnBnClicke
  00064	8d 87 d8 01 00
	00		 lea	 eax, DWORD PTR [edi+472]
  0006a	66 0f 1f 44 00
	00		 npad	 6
$LL4@OnBnClicke:

; 215  : 	{
; 216  : 		szValue = m_InputList.GetItemText(i, 1);

  00070	6a 01		 push	 1
  00072	56		 push	 esi
  00073	8d 4d e8	 lea	 ecx, DWORD PTR $T2[ebp]
  00076	51		 push	 ecx
  00077	8b c8		 mov	 ecx, eax
  00079	e8 00 00 00 00	 call	 ?GetItemText@CListCtrl@@QBE?AV?$CStringT@DV?$StrTraitMFC_DLL@DV?$ChTraitsCRT@D@ATL@@@@@ATL@@HH@Z ; CListCtrl::GetItemText
  0007e	50		 push	 eax
  0007f	8d 4d f0	 lea	 ecx, DWORD PTR _szValue$[ebp]
  00082	c6 45 fc 02	 mov	 BYTE PTR __$EHRec$[ebp+8], 2
  00086	ff 15 00 00 00
	00		 call	 DWORD PTR __imp_??4?$CStringT@DV?$StrTraitMFC_DLL@DV?$ChTraitsCRT@D@ATL@@@@@ATL@@QAEAAV01@ABV01@@Z
  0008c	8d 4d e8	 lea	 ecx, DWORD PTR $T2[ebp]
  0008f	c6 45 fc 01	 mov	 BYTE PTR __$EHRec$[ebp+8], 1
  00093	ff 15 00 00 00
	00		 call	 DWORD PTR __imp_??1?$CStringT@DV?$StrTraitMFC_DLL@DV?$ChTraitsCRT@D@ATL@@@@@ATL@@QAE@XZ

; 217  : 		szKey.Format("%s%d", szPreKey, i);

  00099	56		 push	 esi
  0009a	68 00 00 00 00	 push	 OFFSET ??_C@_05DCDOHKAB@Input@
  0009f	8d 45 ec	 lea	 eax, DWORD PTR _szKey$[ebp]
  000a2	68 00 00 00 00	 push	 OFFSET ??_C@_04HGGBINEM@?$CFs?$CFd@
  000a7	50		 push	 eax
  000a8	ff 15 00 00 00
	00		 call	 DWORD PTR __imp_?Format@?$CStringT@DV?$StrTraitMFC_DLL@DV?$ChTraitsCRT@D@ATL@@@@@ATL@@QAAXPBDZZ
  000ae	83 c4 10	 add	 esp, 16			; 00000010H

; 218  : 		::WritePrivateProfileString(szSection, szKey, szValue, m_szSTPath);

  000b1	ff b7 ac 00 00
	00		 push	 DWORD PTR [edi+172]
  000b7	ff 75 f0	 push	 DWORD PTR _szValue$[ebp]
  000ba	ff 75 ec	 push	 DWORD PTR _szKey$[ebp]
  000bd	68 00 00 00 00	 push	 OFFSET ??_C@_09IJIPICN@Variables@
  000c2	ff 15 00 00 00
	00		 call	 DWORD PTR __imp__WritePrivateProfileStringA@16
  000c8	46		 inc	 esi
  000c9	8d 87 d8 01 00
	00		 lea	 eax, DWORD PTR [edi+472]
  000cf	3b f3		 cmp	 esi, ebx
  000d1	7c 9d		 jl	 SHORT $LL4@OnBnClicke
$LN3@OnBnClicke:

; 219  : 	}
; 220  : 
; 221  : 	szSection = "index";
; 222  : 	szValue.Format("%ld", m_btnClrBull.GetColor());

  000d3	ff b7 38 01 00
	00		 push	 DWORD PTR [edi+312]
  000d9	8d 45 f0	 lea	 eax, DWORD PTR _szValue$[ebp]
  000dc	68 00 00 00 00	 push	 OFFSET ??_C@_03JALODAI@?$CFld@
  000e1	50		 push	 eax
  000e2	ff 15 00 00 00
	00		 call	 DWORD PTR __imp_?Format@?$CStringT@DV?$StrTraitMFC_DLL@DV?$ChTraitsCRT@D@ATL@@@@@ATL@@QAAXPBDZZ

; 223  : 	::WritePrivateProfileString(szSection, "clrBull", szValue, m_szSFGPath);

  000e8	8b 1d 00 00 00
	00		 mov	 ebx, DWORD PTR __imp__WritePrivateProfileStringA@16
  000ee	83 c4 0c	 add	 esp, 12			; 0000000cH
  000f1	ff b7 b0 00 00
	00		 push	 DWORD PTR [edi+176]
  000f7	ff 75 f0	 push	 DWORD PTR _szValue$[ebp]
  000fa	68 00 00 00 00	 push	 OFFSET ??_C@_07DIBCEAPN@clrBull@
  000ff	68 00 00 00 00	 push	 OFFSET ??_C@_05FKHKFDID@index@
  00104	ff d3		 call	 ebx

; 224  : 
; 225  : 	szValue.Format("%ld", m_btnClrBear.GetColor());

  00106	ff b7 c8 01 00
	00		 push	 DWORD PTR [edi+456]
  0010c	8d 45 f0	 lea	 eax, DWORD PTR _szValue$[ebp]
  0010f	68 00 00 00 00	 push	 OFFSET ??_C@_03JALODAI@?$CFld@
  00114	50		 push	 eax
  00115	ff 15 00 00 00
	00		 call	 DWORD PTR __imp_?Format@?$CStringT@DV?$StrTraitMFC_DLL@DV?$ChTraitsCRT@D@ATL@@@@@ATL@@QAAXPBDZZ
  0011b	83 c4 0c	 add	 esp, 12			; 0000000cH

; 226  : 	::WritePrivateProfileString(szSection, "clrBear", szValue, m_szSFGPath);

  0011e	ff b7 b0 00 00
	00		 push	 DWORD PTR [edi+176]
  00124	ff 75 f0	 push	 DWORD PTR _szValue$[ebp]
  00127	68 00 00 00 00	 push	 OFFSET ??_C@_07LEJCLLOO@clrBear@
  0012c	68 00 00 00 00	 push	 OFFSET ??_C@_05FKHKFDID@index@
  00131	ff d3		 call	 ebx

; 227  : 
; 228  : 	OnOK();

  00133	8b 07		 mov	 eax, DWORD PTR [edi]
  00135	8b cf		 mov	 ecx, edi
  00137	ff 90 88 01 00
	00		 call	 DWORD PTR [eax+392]

; 229  : }

  0013d	8d 4d ec	 lea	 ecx, DWORD PTR _szKey$[ebp]
  00140	ff 15 00 00 00
	00		 call	 DWORD PTR __imp_??1?$CStringT@DV?$StrTraitMFC_DLL@DV?$ChTraitsCRT@D@ATL@@@@@ATL@@QAE@XZ
  00146	8d 4d f0	 lea	 ecx, DWORD PTR _szValue$[ebp]
  00149	ff 15 00 00 00
	00		 call	 DWORD PTR __imp_??1?$CStringT@DV?$StrTraitMFC_DLL@DV?$ChTraitsCRT@D@ATL@@@@@ATL@@QAE@XZ
  0014f	8b 4d f4	 mov	 ecx, DWORD PTR __$EHRec$[ebp]
  00152	64 89 0d 00 00
	00 00		 mov	 DWORD PTR fs:0, ecx
  00159	59		 pop	 ecx
  0015a	5f		 pop	 edi
  0015b	5e		 pop	 esi
  0015c	5b		 pop	 ebx
  0015d	8b e5		 mov	 esp, ebp
  0015f	5d		 pop	 ebp
  00160	c3		 ret	 0
_TEXT	ENDS
;	COMDAT text$x
text$x	SEGMENT
__unwindfunclet$?OnBnClickedOk@CDlgSysVarOption@@QAEXXZ$0:
  00000	8d 4d f0	 lea	 ecx, DWORD PTR _szValue$[ebp]
  00003	ff 25 00 00 00
	00		 jmp	 DWORD PTR __imp_??1?$CStringT@DV?$StrTraitMFC_DLL@DV?$ChTraitsCRT@D@ATL@@@@@ATL@@QAE@XZ
__unwindfunclet$?OnBnClickedOk@CDlgSysVarOption@@QAEXXZ$1:
  00009	8d 4d ec	 lea	 ecx, DWORD PTR _szKey$[ebp]
  0000c	ff 25 00 00 00
	00		 jmp	 DWORD PTR __imp_??1?$CStringT@DV?$StrTraitMFC_DLL@DV?$ChTraitsCRT@D@ATL@@@@@ATL@@QAE@XZ
__unwindfunclet$?OnBnClickedOk@CDlgSysVarOption@@QAEXXZ$2:
  00012	8d 4d e8	 lea	 ecx, DWORD PTR $T2[ebp]
  00015	ff 25 00 00 00
	00		 jmp	 DWORD PTR __imp_??1?$CStringT@DV?$StrTraitMFC_DLL@DV?$ChTraitsCRT@D@ATL@@@@@ATL@@QAE@XZ
  0001b	cc		 int	 3
  0001c	cc		 int	 3
  0001d	cc		 int	 3
  0001e	cc		 int	 3
  0001f	cc		 int	 3
__ehhandler$?OnBnClickedOk@CDlgSysVarOption@@QAEXXZ:
  00020	90		 npad	 1
  00021	90		 npad	 1
  00022	8b 54 24 08	 mov	 edx, DWORD PTR [esp+8]
  00026	8d 42 0c	 lea	 eax, DWORD PTR [edx+12]
  00029	8b 4a e4	 mov	 ecx, DWORD PTR [edx-28]
  0002c	33 c8		 xor	 ecx, eax
  0002e	e8 00 00 00 00	 call	 @__security_check_cookie@4
  00033	b8 00 00 00 00	 mov	 eax, OFFSET __ehfuncinfo$?OnBnClickedOk@CDlgSysVarOption@@QAEXXZ
  00038	e9 00 00 00 00	 jmp	 ___CxxFrameHandler3
text$x	ENDS
?OnBnClickedOk@CDlgSysVarOption@@QAEXXZ ENDP		; CDlgSysVarOption::OnBnClickedOk
; Function compile flags: /Ogtp
; File D:\git\src\IBK\IBK_DRFN\ProjSrc\SrcDrfn\Chart\HWSTRATEGYCONFIGUREWIZARD\DlgSysVarOption.cpp
;	COMDAT ?GetMessageMap@CDlgSysVarOption@@MBEPBUAFX_MSGMAP@@XZ
_TEXT	SEGMENT
?GetMessageMap@CDlgSysVarOption@@MBEPBUAFX_MSGMAP@@XZ PROC ; CDlgSysVarOption::GetMessageMap, COMDAT
; _this$ = ecx

; 40   : BEGIN_MESSAGE_MAP(CDlgSysVarOption, CDialog)

  00000	b8 00 00 00 00	 mov	 eax, OFFSET ?messageMap@?1??GetThisMessageMap@CDlgSysVarOption@@KGPBUAFX_MSGMAP@@XZ@4U3@B
  00005	c3		 ret	 0
?GetMessageMap@CDlgSysVarOption@@MBEPBUAFX_MSGMAP@@XZ ENDP ; CDlgSysVarOption::GetMessageMap
_TEXT	ENDS
; Function compile flags: /Ogtp
; File D:\git\src\IBK\IBK_DRFN\ProjSrc\SrcDrfn\Chart\HWSTRATEGYCONFIGUREWIZARD\DlgSysVarOption.cpp
;	COMDAT ?GetThisMessageMap@CDlgSysVarOption@@KGPBUAFX_MSGMAP@@XZ
_TEXT	SEGMENT
?GetThisMessageMap@CDlgSysVarOption@@KGPBUAFX_MSGMAP@@XZ PROC ; CDlgSysVarOption::GetThisMessageMap, COMDAT

; 41   : 	//{{AFX_MSG_MAP(CDlgSysVarOption)
; 42   : 	ON_BN_CLICKED(IDC_BT_CLR_BULL, OnBtClrBull)
; 43   : 	ON_BN_CLICKED(IDC_BT_CLR_BEAR, OnBtClrBear)
; 44   : 	//}}AFX_MSG_MAP
; 45   : 	ON_BN_CLICKED(IDOK, OnBnClickedOk)
; 46   : END_MESSAGE_MAP()

  00000	b8 00 00 00 00	 mov	 eax, OFFSET ?messageMap@?1??GetThisMessageMap@CDlgSysVarOption@@KGPBUAFX_MSGMAP@@XZ@4U3@B
  00005	c3		 ret	 0
?GetThisMessageMap@CDlgSysVarOption@@KGPBUAFX_MSGMAP@@XZ ENDP ; CDlgSysVarOption::GetThisMessageMap
_TEXT	ENDS
; Function compile flags: /Ogtp
; File D:\git\src\IBK\IBK_DRFN\ProjSrc\SrcDrfn\Chart\HWSTRATEGYCONFIGUREWIZARD\DlgSysVarOption.cpp
;	COMDAT ?OnBtClrBear@CDlgSysVarOption@@IAEXXZ
_TEXT	SEGMENT
?OnBtClrBear@CDlgSysVarOption@@IAEXXZ PROC		; CDlgSysVarOption::OnBtClrBear, COMDAT
; _this$ = ecx

; 126  : 	DoBtnClr(m_btnClrBear);

  00000	8d 81 48 01 00
	00		 lea	 eax, DWORD PTR [ecx+328]
  00006	50		 push	 eax
  00007	e8 00 00 00 00	 call	 ?DoBtnClr@CDlgSysVarOption@@QAEXAAVCColorButton@@@Z ; CDlgSysVarOption::DoBtnClr

; 127  : }

  0000c	c3		 ret	 0
?OnBtClrBear@CDlgSysVarOption@@IAEXXZ ENDP		; CDlgSysVarOption::OnBtClrBear
_TEXT	ENDS
; Function compile flags: /Ogtp
; File D:\git\src\IBK\IBK_DRFN\ProjSrc\SrcDrfn\Chart\HWSTRATEGYCONFIGUREWIZARD\DlgSysVarOption.cpp
;	COMDAT ?OnBtClrBull@CDlgSysVarOption@@IAEXXZ
_TEXT	SEGMENT
?OnBtClrBull@CDlgSysVarOption@@IAEXXZ PROC		; CDlgSysVarOption::OnBtClrBull, COMDAT
; _this$ = ecx

; 121  : 	DoBtnClr(m_btnClrBull);

  00000	8d 81 b8 00 00
	00		 lea	 eax, DWORD PTR [ecx+184]
  00006	50		 push	 eax
  00007	e8 00 00 00 00	 call	 ?DoBtnClr@CDlgSysVarOption@@QAEXAAVCColorButton@@@Z ; CDlgSysVarOption::DoBtnClr

; 122  : }

  0000c	c3		 ret	 0
?OnBtClrBull@CDlgSysVarOption@@IAEXXZ ENDP		; CDlgSysVarOption::OnBtClrBull
_TEXT	ENDS
; Function compile flags: /Ogtp
; File D:\git\src\IBK\IBK_DRFN\ProjSrc\SrcDrfn\Chart\HWSTRATEGYCONFIGUREWIZARD\DlgSysVarOption.cpp
; File C:\Program Files (x86)\Microsoft Visual Studio\2019\Community\VC\Tools\MSVC\14.29.30133\atlmfc\include\afxcmn2.inl
; File D:\git\src\IBK\IBK_DRFN\ProjSrc\SrcDrfn\Chart\HWSTRATEGYCONFIGUREWIZARD\DlgSysVarOption.cpp
; File C:\Program Files (x86)\Microsoft Visual Studio\2019\Community\VC\Tools\MSVC\14.29.30133\atlmfc\include\afxcmn2.inl
; File D:\git\src\IBK\IBK_DRFN\ProjSrc\SrcDrfn\Chart\HWSTRATEGYCONFIGUREWIZARD\DlgSysVarOption.cpp
; File C:\Program Files (x86)\Microsoft Visual Studio\2019\Community\VC\Tools\MSVC\14.29.30133\atlmfc\include\afxcmn.inl
; File D:\git\src\IBK\IBK_DRFN\ProjSrc\SrcDrfn\Chart\HWSTRATEGYCONFIGUREWIZARD\DlgSysVarOption.cpp
; File C:\Program Files (x86)\Microsoft Visual Studio\2019\Community\VC\Tools\MSVC\14.29.30133\atlmfc\include\afxcmn.inl
; File D:\git\src\IBK\IBK_DRFN\ProjSrc\SrcDrfn\Chart\HWSTRATEGYCONFIGUREWIZARD\DlgSysVarOption.cpp
; File C:\Program Files (x86)\Microsoft Visual Studio\2019\Community\VC\Tools\MSVC\14.29.30133\atlmfc\include\afxcmn.inl
; File D:\git\src\IBK\IBK_DRFN\ProjSrc\SrcDrfn\Chart\HWSTRATEGYCONFIGUREWIZARD\DlgSysVarOption.cpp
; File C:\Program Files (x86)\Microsoft Visual Studio\2019\Community\VC\Tools\MSVC\14.29.30133\atlmfc\include\afxcmn.inl
; File D:\git\src\IBK\IBK_DRFN\ProjSrc\SrcDrfn\Chart\HWSTRATEGYCONFIGUREWIZARD\DlgSysVarOption.cpp
; File C:\Program Files (x86)\Microsoft Visual Studio\2019\Community\VC\Tools\MSVC\14.29.30133\atlmfc\include\afxcmn.inl
; File D:\git\src\IBK\IBK_DRFN\ProjSrc\SrcDrfn\Chart\HWSTRATEGYCONFIGUREWIZARD\DlgSysVarOption.cpp
; File D:\git\src\IBK\IBK_DRFN\ProjSrc\SrcDrfn\Chart\STConfigureDlg\Control\XListCtrl.h
; File D:\git\src\IBK\IBK_DRFN\ProjSrc\SrcDrfn\Chart\HWSTRATEGYCONFIGUREWIZARD\DlgSysVarOption.cpp
;	COMDAT ?OnInitDialog@CDlgSysVarOption@@MAEHXZ
_TEXT	SEGMENT
_lvcolumn$1 = -84					; size = 44
_colwidthsType0$2 = -40					; size = 24
_lpszHeadersType0$3 = -16				; size = 12
__$ArrayPad$ = -4					; size = 4
?OnInitDialog@CDlgSysVarOption@@MAEHXZ PROC		; CDlgSysVarOption::OnInitDialog, COMDAT
; _this$ = ecx

; 51   : {

  00000	55		 push	 ebp
  00001	8b ec		 mov	 ebp, esp
  00003	83 ec 54	 sub	 esp, 84			; 00000054H
  00006	a1 00 00 00 00	 mov	 eax, DWORD PTR ___security_cookie
  0000b	33 c5		 xor	 eax, ebp
  0000d	89 45 fc	 mov	 DWORD PTR __$ArrayPad$[ebp], eax
  00010	53		 push	 ebx
  00011	56		 push	 esi
  00012	57		 push	 edi
  00013	8b f9		 mov	 edi, ecx

; 52   : 	CDialog::OnInitDialog();

  00015	e8 00 00 00 00	 call	 ?OnInitDialog@CDialog@@UAEHXZ ; CDialog::OnInitDialog
; File C:\Program Files (x86)\Microsoft Visual Studio\2019\Community\VC\Tools\MSVC\14.29.30133\atlmfc\include\afxcmn2.inl

; 117  : 	{ ASSERT(::IsWindow(m_hWnd)); return (DWORD) ::SendMessage(m_hWnd, LVM_SETEXTENDEDLISTVIEWSTYLE, 0, (LPARAM) dwNewStyle); }

  0001a	8b 1d 00 00 00
	00		 mov	 ebx, DWORD PTR __imp__SendMessageA@16
  00020	0f 57 c0	 xorps	 xmm0, xmm0
  00023	6a 20		 push	 32			; 00000020H
  00025	6a 00		 push	 0
  00027	68 36 10 00 00	 push	 4150			; 00001036H
  0002c	ff b7 f8 01 00
	00		 push	 DWORD PTR [edi+504]
; File D:\git\src\IBK\IBK_DRFN\ProjSrc\SrcDrfn\Chart\HWSTRATEGYCONFIGUREWIZARD\DlgSysVarOption.cpp

; 63   : 	int colwidthsType0[6] = { 90, 127};	// sixty-fourths

  00032	c7 45 d8 5a 00
	00 00		 mov	 DWORD PTR _colwidthsType0$2[ebp], 90 ; 0000005aH
  00039	c7 45 dc 7f 00
	00 00		 mov	 DWORD PTR _colwidthsType0$2[ebp+4], 127 ; 0000007fH
  00040	0f 11 45 e0	 movups	 XMMWORD PTR _colwidthsType0$2[ebp+8], xmm0

; 64   : 
; 65   : 	TCHAR *	lpszHeadersType0[] = {
; 66   : 		_T(""),

  00044	c7 45 f0 00 00
	00 00		 mov	 DWORD PTR _lpszHeadersType0$3[ebp], OFFSET ??_C@_06FIHLBNDD@?$LK?$KP?$LM?v?$LI?m@

; 67   : 			_T(""),

  0004b	c7 45 f4 00 00
	00 00		 mov	 DWORD PTR _lpszHeadersType0$3[ebp+4], OFFSET ??_C@_06OJFAJFEJ@?$LK?$KP?$LM?v?$LA?$KK@

; 68   : 			NULL };

  00052	c7 45 f8 00 00
	00 00		 mov	 DWORD PTR _lpszHeadersType0$3[ebp+8], 0
; File C:\Program Files (x86)\Microsoft Visual Studio\2019\Community\VC\Tools\MSVC\14.29.30133\atlmfc\include\afxcmn2.inl

; 117  : 	{ ASSERT(::IsWindow(m_hWnd)); return (DWORD) ::SendMessage(m_hWnd, LVM_SETEXTENDEDLISTVIEWSTYLE, 0, (LPARAM) dwNewStyle); }

  00059	ff d3		 call	 ebx
  0005b	0f 57 c0	 xorps	 xmm0, xmm0
; File D:\git\src\IBK\IBK_DRFN\ProjSrc\SrcDrfn\Chart\HWSTRATEGYCONFIGUREWIZARD\DlgSysVarOption.cpp

; 74   : 		memset(&lvcolumn, 0, sizeof(lvcolumn));

  0005e	c7 45 bc 00 00
	00 00		 mov	 DWORD PTR _lvcolumn$1[ebp+16], 0

; 76   : 		for (i = 0; ; i++)

  00065	33 f6		 xor	 esi, esi
  00067	66 0f 13 45 c4	 movlpd	 QWORD PTR _lvcolumn$1[ebp+24], xmm0
  0006c	66 0f 13 45 cc	 movlpd	 QWORD PTR _lvcolumn$1[ebp+32], xmm0
  00071	b8 00 00 00 00	 mov	 eax, OFFSET ??_C@_06FIHLBNDD@?$LK?$KP?$LM?v?$LI?m@

; 74   : 		memset(&lvcolumn, 0, sizeof(lvcolumn));

  00076	c7 45 d4 00 00
	00 00		 mov	 DWORD PTR _lvcolumn$1[ebp+40], 0
  0007d	33 c9		 xor	 ecx, ecx
  0007f	90		 npad	 1
$LL6@OnInitDial:

; 82   : 			lvcolumn.pszText = lpszHeadersType0[i];

  00080	89 45 b8	 mov	 DWORD PTR _lvcolumn$1[ebp+12], eax

; 84   : 			lvcolumn.cx = colwidthsType0[i];

  00083	8b 44 0d d8	 mov	 eax, DWORD PTR _colwidthsType0$2[ebp+ecx]
  00087	89 45 b4	 mov	 DWORD PTR _lvcolumn$1[ebp+8], eax
; File C:\Program Files (x86)\Microsoft Visual Studio\2019\Community\VC\Tools\MSVC\14.29.30133\atlmfc\include\afxcmn.inl

; 209  : 	{ ASSERT(::IsWindow(m_hWnd)); return (int) ::SendMessage(m_hWnd, LVM_INSERTCOLUMN, nCol, (LPARAM)pColumn); }

  0008a	8d 45 ac	 lea	 eax, DWORD PTR _lvcolumn$1[ebp]
  0008d	50		 push	 eax
  0008e	56		 push	 esi
  0008f	68 1b 10 00 00	 push	 4123			; 0000101bH
  00094	ff b7 f8 01 00
	00		 push	 DWORD PTR [edi+504]
; File D:\git\src\IBK\IBK_DRFN\ProjSrc\SrcDrfn\Chart\HWSTRATEGYCONFIGUREWIZARD\DlgSysVarOption.cpp

; 80   : 			lvcolumn.mask = LVCF_FMT | LVCF_SUBITEM | LVCF_TEXT | LVCF_WIDTH;

  0009a	c7 45 ac 0f 00
	00 00		 mov	 DWORD PTR _lvcolumn$1[ebp], 15 ; 0000000fH

; 81   : 			lvcolumn.fmt = LVCFMT_CENTER;

  000a1	c7 45 b0 02 00
	00 00		 mov	 DWORD PTR _lvcolumn$1[ebp+4], 2

; 83   : 			lvcolumn.iSubItem = i;

  000a8	89 75 c0	 mov	 DWORD PTR _lvcolumn$1[ebp+20], esi
; File C:\Program Files (x86)\Microsoft Visual Studio\2019\Community\VC\Tools\MSVC\14.29.30133\atlmfc\include\afxcmn.inl

; 209  : 	{ ASSERT(::IsWindow(m_hWnd)); return (int) ::SendMessage(m_hWnd, LVM_INSERTCOLUMN, nCol, (LPARAM)pColumn); }

  000ab	ff d3		 call	 ebx
; File D:\git\src\IBK\IBK_DRFN\ProjSrc\SrcDrfn\Chart\HWSTRATEGYCONFIGUREWIZARD\DlgSysVarOption.cpp

; 76   : 		for (i = 0; ; i++)

  000ad	46		 inc	 esi

; 77   : 		{
; 78   : 			if (lpszHeadersType0[i] == NULL)

  000ae	8d 0c b5 00 00
	00 00		 lea	 ecx, DWORD PTR [esi*4]
  000b5	8b 44 0d f0	 mov	 eax, DWORD PTR _lpszHeadersType0$3[ebp+ecx]
  000b9	85 c0		 test	 eax, eax
  000bb	75 c3		 jne	 SHORT $LL6@OnInitDial
  000bd	0f 57 c0	 xorps	 xmm0, xmm0

; 85   : 			total_cx += lvcolumn.cx;
; 86   : 			m_InputList.InsertColumn(i, &lvcolumn);
; 87   : 		}
; 88   : 		// iterate through header items and attach the image list
; 89   : 		memset(&lvcolumn, 0, sizeof(lvcolumn));

  000c0	89 45 bc	 mov	 DWORD PTR _lvcolumn$1[ebp+16], eax
  000c3	66 0f 13 45 b4	 movlpd	 QWORD PTR _lvcolumn$1[ebp+8], xmm0

; 91   : 		for (i = 0; ; i++)

  000c8	33 f6		 xor	 esi, esi
  000ca	66 0f 13 45 c4	 movlpd	 QWORD PTR _lvcolumn$1[ebp+24], xmm0
  000cf	66 0f 13 45 cc	 movlpd	 QWORD PTR _lvcolumn$1[ebp+32], xmm0
  000d4	89 45 d4	 mov	 DWORD PTR _lvcolumn$1[ebp+40], eax
  000d7	66 0f 1f 84 00
	00 00 00 00	 npad	 9
$LL9@OnInitDial:
; File C:\Program Files (x86)\Microsoft Visual Studio\2019\Community\VC\Tools\MSVC\14.29.30133\atlmfc\include\afxcmn.inl

; 207  : 	{ ASSERT(::IsWindow(m_hWnd)); return (BOOL) ::SendMessage(m_hWnd, LVM_SETCOLUMN, nCol, (LPARAM)pColumn); }

  000e0	8d 45 ac	 lea	 eax, DWORD PTR _lvcolumn$1[ebp]
; File D:\git\src\IBK\IBK_DRFN\ProjSrc\SrcDrfn\Chart\HWSTRATEGYCONFIGUREWIZARD\DlgSysVarOption.cpp

; 95   : 			lvcolumn.mask = LVCF_FMT | LVCF_SUBITEM;

  000e3	c7 45 ac 09 00
	00 00		 mov	 DWORD PTR _lvcolumn$1[ebp], 9
; File C:\Program Files (x86)\Microsoft Visual Studio\2019\Community\VC\Tools\MSVC\14.29.30133\atlmfc\include\afxcmn.inl

; 207  : 	{ ASSERT(::IsWindow(m_hWnd)); return (BOOL) ::SendMessage(m_hWnd, LVM_SETCOLUMN, nCol, (LPARAM)pColumn); }

  000ea	50		 push	 eax
  000eb	56		 push	 esi
  000ec	68 1a 10 00 00	 push	 4122			; 0000101aH
  000f1	ff b7 f8 01 00
	00		 push	 DWORD PTR [edi+504]
; File D:\git\src\IBK\IBK_DRFN\ProjSrc\SrcDrfn\Chart\HWSTRATEGYCONFIGUREWIZARD\DlgSysVarOption.cpp

; 96   : 			lvcolumn.fmt = LVCFMT_CENTER;

  000f7	c7 45 b0 02 00
	00 00		 mov	 DWORD PTR _lvcolumn$1[ebp+4], 2

; 97   : 			lvcolumn.iSubItem = i;

  000fe	89 75 c0	 mov	 DWORD PTR _lvcolumn$1[ebp+20], esi
; File C:\Program Files (x86)\Microsoft Visual Studio\2019\Community\VC\Tools\MSVC\14.29.30133\atlmfc\include\afxcmn.inl

; 207  : 	{ ASSERT(::IsWindow(m_hWnd)); return (BOOL) ::SendMessage(m_hWnd, LVM_SETCOLUMN, nCol, (LPARAM)pColumn); }

  00101	ff d3		 call	 ebx
; File D:\git\src\IBK\IBK_DRFN\ProjSrc\SrcDrfn\Chart\HWSTRATEGYCONFIGUREWIZARD\DlgSysVarOption.cpp

; 91   : 		for (i = 0; ; i++)

  00103	46		 inc	 esi

; 92   : 		{
; 93   : 			if (lpszHeadersType0[i] == NULL)

  00104	83 7c b5 f0 00	 cmp	 DWORD PTR _lpszHeadersType0$3[ebp+esi*4], 0
  00109	75 d5		 jne	 SHORT $LL9@OnInitDial

; 55   : 	DoApplyInputParam();

  0010b	8b cf		 mov	 ecx, edi
; File D:\git\src\IBK\IBK_DRFN\ProjSrc\SrcDrfn\Chart\STConfigureDlg\Control\XListCtrl.h

; 176  : 		m_crHighLightText = m_crUsrHighLightText = crText;

  0010d	c7 87 68 03 00
	00 00 00 00 00	 mov	 DWORD PTR [edi+872], 0
  00117	c7 87 58 03 00
	00 00 00 00 00	 mov	 DWORD PTR [edi+856], 0

; 177  : 		m_crHighLight = m_crUsrHighLight = crBackground;

  00121	c7 87 64 03 00
	00 d0 dd f0 00	 mov	 DWORD PTR [edi+868], 15785424 ; 00f0ddd0H
  0012b	c7 87 54 03 00
	00 d0 dd f0 00	 mov	 DWORD PTR [edi+852], 15785424 ; 00f0ddd0H
; File D:\git\src\IBK\IBK_DRFN\ProjSrc\SrcDrfn\Chart\HWSTRATEGYCONFIGUREWIZARD\DlgSysVarOption.cpp

; 55   : 	DoApplyInputParam();

  00135	e8 00 00 00 00	 call	 ?DoApplyInputParam@CDlgSysVarOption@@QAEXXZ ; CDlgSysVarOption::DoApplyInputParam

; 56   : 
; 57   : 	return TRUE;  // return TRUE unless you set the focus to a control
; 58   : 	// EXCEPTION: OCX Property Pages should return FALSE
; 59   : }

  0013a	8b 4d fc	 mov	 ecx, DWORD PTR __$ArrayPad$[ebp]
  0013d	b8 01 00 00 00	 mov	 eax, 1
  00142	5f		 pop	 edi
  00143	5e		 pop	 esi
  00144	33 cd		 xor	 ecx, ebp
  00146	5b		 pop	 ebx
  00147	e8 00 00 00 00	 call	 @__security_check_cookie@4
  0014c	8b e5		 mov	 esp, ebp
  0014e	5d		 pop	 ebp
  0014f	c3		 ret	 0
?OnInitDialog@CDlgSysVarOption@@MAEHXZ ENDP		; CDlgSysVarOption::OnInitDialog
_TEXT	ENDS
; Function compile flags: /Ogtp
; File D:\git\src\IBK\IBK_DRFN\ProjSrc\SrcDrfn\Chart\HWSTRATEGYCONFIGUREWIZARD\DlgSysVarOption.cpp
;	COMDAT ?DoDataExchange@CDlgSysVarOption@@MAEXPAVCDataExchange@@@Z
_TEXT	SEGMENT
_pDX$ = 8						; size = 4
?DoDataExchange@CDlgSysVarOption@@MAEXPAVCDataExchange@@@Z PROC ; CDlgSysVarOption::DoDataExchange, COMDAT
; _this$ = ecx

; 30   : {

  00000	55		 push	 ebp
  00001	8b ec		 mov	 ebp, esp
  00003	56		 push	 esi

; 31   : 	CDialog::DoDataExchange(pDX);
; 32   : 	//{{AFX_DATA_MAP(CDlgSysVarOption)
; 33   : 	DDX_Control(pDX, IDC_BT_CLR_BULL, m_btnClrBull);

  00004	8b 75 08	 mov	 esi, DWORD PTR _pDX$[ebp]
  00007	57		 push	 edi
  00008	8b f9		 mov	 edi, ecx
  0000a	8d 87 b8 00 00
	00		 lea	 eax, DWORD PTR [edi+184]
  00010	50		 push	 eax
  00011	68 fc 03 00 00	 push	 1020			; 000003fcH
  00016	56		 push	 esi
  00017	e8 00 00 00 00	 call	 ?DDX_Control@@YGXPAVCDataExchange@@HAAVCWnd@@@Z ; DDX_Control

; 34   : 	DDX_Control(pDX, IDC_BT_CLR_BEAR, m_btnClrBear);

  0001c	8d 87 48 01 00
	00		 lea	 eax, DWORD PTR [edi+328]
  00022	50		 push	 eax
  00023	68 fd 03 00 00	 push	 1021			; 000003fdH
  00028	56		 push	 esi
  00029	e8 00 00 00 00	 call	 ?DDX_Control@@YGXPAVCDataExchange@@HAAVCWnd@@@Z ; DDX_Control

; 35   : 	DDX_Control(pDX, IDC_LIST_STVARIABLES, m_InputList);

  0002e	8d 87 d8 01 00
	00		 lea	 eax, DWORD PTR [edi+472]
  00034	50		 push	 eax
  00035	68 4f 71 00 00	 push	 29007			; 0000714fH
  0003a	56		 push	 esi
  0003b	e8 00 00 00 00	 call	 ?DDX_Control@@YGXPAVCDataExchange@@HAAVCWnd@@@Z ; DDX_Control
  00040	5f		 pop	 edi
  00041	5e		 pop	 esi

; 36   : 	//}}AFX_DATA_MAP
; 37   : }

  00042	5d		 pop	 ebp
  00043	c2 04 00	 ret	 4
?DoDataExchange@CDlgSysVarOption@@MAEXPAVCDataExchange@@@Z ENDP ; CDlgSysVarOption::DoDataExchange
_TEXT	ENDS
; Function compile flags: /Ogtp
; File D:\git\src\IBK\IBK_DRFN\ProjSrc\SrcDrfn\Chart\HWSTRATEGYCONFIGUREWIZARD\DlgSysVarOption.cpp
; File C:\Program Files (x86)\Microsoft Visual Studio\2019\Community\VC\Tools\MSVC\14.29.30133\atlmfc\include\afxwin2.inl
; File C:\Program Files (x86)\Microsoft Visual Studio\2019\Community\VC\Tools\MSVC\14.29.30133\atlmfc\include\afxdlgs.h
; File D:\git\src\IBK\IBK_DRFN\ProjSrc\SrcDrfn\Chart\HWSTRATEGYCONFIGUREWIZARD\DlgSysVarOption.cpp
;	COMDAT ?DoBtnClr@CDlgSysVarOption@@QAEXAAVCColorButton@@@Z
_TEXT	SEGMENT
_color$ = -220						; size = 208
__$EHRec$ = -12						; size = 12
$T2 = 8							; size = 4
_rColorButton$ = 8					; size = 4
?DoBtnClr@CDlgSysVarOption@@QAEXAAVCColorButton@@@Z PROC ; CDlgSysVarOption::DoBtnClr, COMDAT
; _this$ = ecx

; 109  : {

  00000	55		 push	 ebp
  00001	8b ec		 mov	 ebp, esp
  00003	6a ff		 push	 -1
  00005	68 00 00 00 00	 push	 __ehhandler$?DoBtnClr@CDlgSysVarOption@@QAEXAAVCColorButton@@@Z
  0000a	64 a1 00 00 00
	00		 mov	 eax, DWORD PTR fs:0
  00010	50		 push	 eax
  00011	81 ec d0 00 00
	00		 sub	 esp, 208		; 000000d0H
  00017	56		 push	 esi
  00018	a1 00 00 00 00	 mov	 eax, DWORD PTR ___security_cookie
  0001d	33 c5		 xor	 eax, ebp
  0001f	50		 push	 eax
  00020	8d 45 f4	 lea	 eax, DWORD PTR __$EHRec$[ebp]
  00023	64 a3 00 00 00
	00		 mov	 DWORD PTR fs:0, eax

; 110  : 	COLORREF crColor = rColorButton.GetColor();

  00029	8b 75 08	 mov	 esi, DWORD PTR _rColorButton$[ebp]

; 111  : 	CColorDialog color(crColor, CC_FULLOPEN);

  0002c	8d 8d 24 ff ff
	ff		 lea	 ecx, DWORD PTR _color$[ebp]
  00032	6a 00		 push	 0
  00034	6a 02		 push	 2
  00036	ff b6 80 00 00
	00		 push	 DWORD PTR [esi+128]
  0003c	e8 00 00 00 00	 call	 ??0CColorDialog@@QAE@KKPAVCWnd@@@Z ; CColorDialog::CColorDialog

; 112  : 	if(color.DoModal() == IDOK) 

  00041	8d 8d 24 ff ff
	ff		 lea	 ecx, DWORD PTR _color$[ebp]
  00047	c7 45 fc 00 00
	00 00		 mov	 DWORD PTR __$EHRec$[ebp+8], 0
  0004e	e8 00 00 00 00	 call	 ?DoModal@CColorDialog@@UAEHXZ ; CColorDialog::DoModal
  00053	83 f8 01	 cmp	 eax, 1
  00056	75 1e		 jne	 SHORT $LN2@DoBtnClr

; 113  : 	{
; 114  : 		rColorButton.SetColor(color.GetColor());				

  00058	8b 45 d8	 mov	 eax, DWORD PTR _color$[ebp+180]
  0005b	8b ce		 mov	 ecx, esi
  0005d	89 45 08	 mov	 DWORD PTR $T2[ebp], eax
  00060	8d 45 08	 lea	 eax, DWORD PTR $T2[ebp]
  00063	50		 push	 eax
  00064	e8 00 00 00 00	 call	 ?SetColor@CColorButton@@QAEXABK@Z ; CColorButton::SetColor
; File C:\Program Files (x86)\Microsoft Visual Studio\2019\Community\VC\Tools\MSVC\14.29.30133\atlmfc\include\afxwin2.inl

; 114  : 	{ ASSERT(::IsWindow(m_hWnd)); ::InvalidateRect(m_hWnd, NULL, bErase); }

  00069	6a 01		 push	 1
  0006b	6a 00		 push	 0
  0006d	ff 76 20	 push	 DWORD PTR [esi+32]
  00070	ff 15 00 00 00
	00		 call	 DWORD PTR __imp__InvalidateRect@12
$LN2@DoBtnClr:
; File C:\Program Files (x86)\Microsoft Visual Studio\2019\Community\VC\Tools\MSVC\14.29.30133\atlmfc\include\afxdlgs.h

; 110  :     virtual ~CCommonDialog() {};

  00076	8d 8d 24 ff ff
	ff		 lea	 ecx, DWORD PTR _color$[ebp]
  0007c	c7 85 24 ff ff
	ff 00 00 00 00	 mov	 DWORD PTR _color$[ebp], OFFSET ??_7CCommonDialog@@6B@
  00086	e8 00 00 00 00	 call	 ??1CDialog@@UAE@XZ	; CDialog::~CDialog
; File D:\git\src\IBK\IBK_DRFN\ProjSrc\SrcDrfn\Chart\HWSTRATEGYCONFIGUREWIZARD\DlgSysVarOption.cpp

; 117  : }

  0008b	8b 4d f4	 mov	 ecx, DWORD PTR __$EHRec$[ebp]
  0008e	64 89 0d 00 00
	00 00		 mov	 DWORD PTR fs:0, ecx
  00095	59		 pop	 ecx
  00096	5e		 pop	 esi
  00097	8b e5		 mov	 esp, ebp
  00099	5d		 pop	 ebp
  0009a	c2 04 00	 ret	 4
_TEXT	ENDS
;	COMDAT text$x
text$x	SEGMENT
__unwindfunclet$?DoBtnClr@CDlgSysVarOption@@QAEXAAVCColorButton@@@Z$0:
  00000	8d 8d 24 ff ff
	ff		 lea	 ecx, DWORD PTR _color$[ebp]
  00006	e9 00 00 00 00	 jmp	 ??1CColorDialog@@UAE@XZ
  0000b	cc		 int	 3
  0000c	cc		 int	 3
  0000d	cc		 int	 3
  0000e	cc		 int	 3
  0000f	cc		 int	 3
__ehhandler$?DoBtnClr@CDlgSysVarOption@@QAEXAAVCColorButton@@@Z:
  00010	90		 npad	 1
  00011	90		 npad	 1
  00012	8b 54 24 08	 mov	 edx, DWORD PTR [esp+8]
  00016	8d 42 0c	 lea	 eax, DWORD PTR [edx+12]
  00019	8b 8a 28 ff ff
	ff		 mov	 ecx, DWORD PTR [edx-216]
  0001f	33 c8		 xor	 ecx, eax
  00021	e8 00 00 00 00	 call	 @__security_check_cookie@4
  00026	b8 00 00 00 00	 mov	 eax, OFFSET __ehfuncinfo$?DoBtnClr@CDlgSysVarOption@@QAEXAAVCColorButton@@@Z
  0002b	e9 00 00 00 00	 jmp	 ___CxxFrameHandler3
text$x	ENDS
?DoBtnClr@CDlgSysVarOption@@QAEXAAVCColorButton@@@Z ENDP ; CDlgSysVarOption::DoBtnClr
; Function compile flags: /Ogtp
; File D:\git\src\IBK\IBK_DRFN\ProjSrc\SrcDrfn\Chart\HWSTRATEGYCONFIGUREWIZARD\DlgSysVarOption.cpp
; File C:\Program Files (x86)\Microsoft Visual Studio\2019\Community\VC\Tools\MSVC\14.29.30133\atlmfc\include\afxcmn.inl
; File D:\git\src\IBK\IBK_DRFN\ProjSrc\SrcDrfn\Chart\HWSTRATEGYCONFIGUREWIZARD\DlgSysVarOption.cpp
;	COMDAT ?DoLoadVarList@CDlgSysVarOption@@QAEXPBD@Z
_TEXT	SEGMENT
_inArr$ = -312						; size = 20
_nCnt$1$ = -292						; size = 4
_this$GSCopy$1$ = -288					; size = 4
_szDataFile$GSCopy$1$ = -284				; size = 4
_szKey$ = -280						; size = 4
_aTmp$ = -276						; size = 260
__$ArrayPad$ = -16					; size = 4
__$EHRec$ = -12						; size = 12
_szDataFile$ = 8					; size = 4
?DoLoadVarList@CDlgSysVarOption@@QAEXPBD@Z PROC		; CDlgSysVarOption::DoLoadVarList, COMDAT
; _this$ = ecx

; 182  : {

  00000	55		 push	 ebp
  00001	8b ec		 mov	 ebp, esp
  00003	6a ff		 push	 -1
  00005	68 00 00 00 00	 push	 __ehhandler$?DoLoadVarList@CDlgSysVarOption@@QAEXPBD@Z
  0000a	64 a1 00 00 00
	00		 mov	 eax, DWORD PTR fs:0
  00010	50		 push	 eax
  00011	81 ec 2c 01 00
	00		 sub	 esp, 300		; 0000012cH
  00017	a1 00 00 00 00	 mov	 eax, DWORD PTR ___security_cookie
  0001c	33 c5		 xor	 eax, ebp
  0001e	89 45 f0	 mov	 DWORD PTR __$ArrayPad$[ebp], eax
  00021	53		 push	 ebx
  00022	56		 push	 esi
  00023	57		 push	 edi
  00024	50		 push	 eax
  00025	8d 45 f4	 lea	 eax, DWORD PTR __$EHRec$[ebp]
  00028	64 a3 00 00 00
	00		 mov	 DWORD PTR fs:0, eax
  0002e	8b d9		 mov	 ebx, ecx
  00030	89 9d e0 fe ff
	ff		 mov	 DWORD PTR _this$GSCopy$1$[ebp], ebx
  00036	8b 75 08	 mov	 esi, DWORD PTR _szDataFile$[ebp]

; 183  : 	LPCSTR szSection = "Variables";
; 184  : 	int nCnt = ::GetPrivateProfileInt(szSection, "InputCnt", 0, szDataFile);

  00039	56		 push	 esi
  0003a	6a 00		 push	 0
  0003c	68 00 00 00 00	 push	 OFFSET ??_C@_08JFMIELNJ@InputCnt@
  00041	68 00 00 00 00	 push	 OFFSET ??_C@_09IJIPICN@Variables@
  00046	89 b5 e4 fe ff
	ff		 mov	 DWORD PTR _szDataFile$GSCopy$1$[ebp], esi
  0004c	ff 15 00 00 00
	00		 call	 DWORD PTR __imp__GetPrivateProfileIntA@16
  00052	89 85 dc fe ff
	ff		 mov	 DWORD PTR _nCnt$1$[ebp], eax

; 185  : 	if(nCnt<=0) return;

  00058	85 c0		 test	 eax, eax
  0005a	0f 8e 39 01 00
	00		 jle	 $LN1@DoLoadVarL

; 186  : 
; 187  : 	CString szKey;

  00060	8d 8d e8 fe ff
	ff		 lea	 ecx, DWORD PTR _szKey$[ebp]
  00066	ff 15 00 00 00
	00		 call	 DWORD PTR __imp_??0?$CStringT@DV?$StrTraitMFC_DLL@DV?$ChTraitsCRT@D@ATL@@@@@ATL@@QAE@XZ

; 188  : 	char aTmp[MAX_PATH]={0,};

  0006c	68 04 01 00 00	 push	 260			; 00000104H
  00071	8d 85 ec fe ff
	ff		 lea	 eax, DWORD PTR _aTmp$[ebp]
  00077	c7 45 fc 00 00
	00 00		 mov	 DWORD PTR __$EHRec$[ebp+8], 0
  0007e	6a 00		 push	 0
  00080	50		 push	 eax
  00081	e8 00 00 00 00	 call	 _memset
  00086	83 c4 0c	 add	 esp, 12			; 0000000cH

; 189  : 	int nAddRow;
; 190  : 	CStringArray inArr;

  00089	8d 8d c8 fe ff
	ff		 lea	 ecx, DWORD PTR _inArr$[ebp]
  0008f	e8 00 00 00 00	 call	 ??0CStringArray@@QAE@XZ	; CStringArray::CStringArray
  00094	33 ff		 xor	 edi, edi
  00096	c6 45 fc 01	 mov	 BYTE PTR __$EHRec$[ebp+8], 1
  0009a	81 c3 d8 01 00
	00		 add	 ebx, 472		; 000001d8H
$LL4@DoLoadVarL:

; 191  : 
; 192  : 	for(int i=0; i<nCnt; i++)
; 193  : 	{
; 194  : 		szKey.Format("InputName%d", i);

  000a0	57		 push	 edi
  000a1	8d 85 e8 fe ff
	ff		 lea	 eax, DWORD PTR _szKey$[ebp]
  000a7	68 00 00 00 00	 push	 OFFSET ??_C@_0M@MKPENJBJ@InputName?$CFd@
  000ac	50		 push	 eax
  000ad	ff 15 00 00 00
	00		 call	 DWORD PTR __imp_?Format@?$CStringT@DV?$StrTraitMFC_DLL@DV?$ChTraitsCRT@D@ATL@@@@@ATL@@QAAXPBDZZ
  000b3	83 c4 0c	 add	 esp, 12			; 0000000cH

; 195  : 		::GetPrivateProfileString(szSection, szKey, "", aTmp, MAX_PATH, szDataFile);

  000b6	8d 85 ec fe ff
	ff		 lea	 eax, DWORD PTR _aTmp$[ebp]
  000bc	56		 push	 esi
  000bd	68 04 01 00 00	 push	 260			; 00000104H
  000c2	50		 push	 eax
  000c3	68 00 00 00 00	 push	 OFFSET ??_C@_00CNPNBAHC@@
  000c8	ff b5 e8 fe ff
	ff		 push	 DWORD PTR _szKey$[ebp]
  000ce	68 00 00 00 00	 push	 OFFSET ??_C@_09IJIPICN@Variables@
  000d3	ff 15 00 00 00
	00		 call	 DWORD PTR __imp__GetPrivateProfileStringA@24
; File C:\Program Files (x86)\Microsoft Visual Studio\2019\Community\VC\Tools\MSVC\14.29.30133\atlmfc\include\afxcmn.inl

; 155  : 	{ ASSERT(::IsWindow(m_hWnd)); return (int) ::SendMessage(m_hWnd, LVM_GETITEMCOUNT, 0, 0L); }

  000d9	8b 85 e0 fe ff
	ff		 mov	 eax, DWORD PTR _this$GSCopy$1$[ebp]
  000df	6a 00		 push	 0
  000e1	6a 00		 push	 0
  000e3	68 04 10 00 00	 push	 4100			; 00001004H
  000e8	ff b0 f8 01 00
	00		 push	 DWORD PTR [eax+504]
  000ee	ff 15 00 00 00
	00		 call	 DWORD PTR __imp__SendMessageA@16
; File D:\git\src\IBK\IBK_DRFN\ProjSrc\SrcDrfn\Chart\HWSTRATEGYCONFIGUREWIZARD\DlgSysVarOption.cpp

; 197  : 		nAddRow = m_InputList.InsertItem(m_InputList.GetItemCount(), "");

  000f4	68 00 00 00 00	 push	 OFFSET ??_C@_00CNPNBAHC@@
  000f9	50		 push	 eax
  000fa	8b cb		 mov	 ecx, ebx
  000fc	e8 00 00 00 00	 call	 ?InsertItem@CXListCtrl@@QAEHHPBD@Z ; CXListCtrl::InsertItem
  00101	8b f0		 mov	 esi, eax

; 198  : 		m_InputList.SetItemText(nAddRow, 0, aTmp);

  00103	8b cb		 mov	 ecx, ebx
  00105	8d 85 ec fe ff
	ff		 lea	 eax, DWORD PTR _aTmp$[ebp]
  0010b	50		 push	 eax
  0010c	6a 00		 push	 0
  0010e	56		 push	 esi
  0010f	e8 00 00 00 00	 call	 ?SetItemText@CXListCtrl@@QAEHHHPBD@Z ; CXListCtrl::SetItemText

; 199  : 
; 200  : 		szKey.Format("Input%d", i);

  00114	57		 push	 edi
  00115	8d 85 e8 fe ff
	ff		 lea	 eax, DWORD PTR _szKey$[ebp]
  0011b	68 00 00 00 00	 push	 OFFSET ??_C@_07JGNMLBPF@Input?$CFd@
  00120	50		 push	 eax
  00121	ff 15 00 00 00
	00		 call	 DWORD PTR __imp_?Format@?$CStringT@DV?$StrTraitMFC_DLL@DV?$ChTraitsCRT@D@ATL@@@@@ATL@@QAAXPBDZZ
  00127	83 c4 0c	 add	 esp, 12			; 0000000cH

; 201  : 		::GetPrivateProfileString(szSection, szKey, "", aTmp, MAX_PATH, szDataFile);

  0012a	8d 85 ec fe ff
	ff		 lea	 eax, DWORD PTR _aTmp$[ebp]
  00130	ff b5 e4 fe ff
	ff		 push	 DWORD PTR _szDataFile$GSCopy$1$[ebp]
  00136	68 04 01 00 00	 push	 260			; 00000104H
  0013b	50		 push	 eax
  0013c	68 00 00 00 00	 push	 OFFSET ??_C@_00CNPNBAHC@@
  00141	ff b5 e8 fe ff
	ff		 push	 DWORD PTR _szKey$[ebp]
  00147	68 00 00 00 00	 push	 OFFSET ??_C@_09IJIPICN@Variables@
  0014c	ff 15 00 00 00
	00		 call	 DWORD PTR __imp__GetPrivateProfileStringA@24

; 202  : 		m_InputList.SetItemText(nAddRow, 1, aTmp);

  00152	8d 85 ec fe ff
	ff		 lea	 eax, DWORD PTR _aTmp$[ebp]
  00158	8b cb		 mov	 ecx, ebx
  0015a	50		 push	 eax
  0015b	6a 01		 push	 1
  0015d	56		 push	 esi
  0015e	e8 00 00 00 00	 call	 ?SetItemText@CXListCtrl@@QAEHHHPBD@Z ; CXListCtrl::SetItemText

; 203  : 
; 204  : 		m_InputList.SetEditBox(nAddRow,1);

  00163	6a 01		 push	 1
  00165	6a 01		 push	 1
  00167	56		 push	 esi
  00168	8b cb		 mov	 ecx, ebx
  0016a	e8 00 00 00 00	 call	 ?SetEditBox@CXListCtrl@@QAEHHHH@Z ; CXListCtrl::SetEditBox
  0016f	8b b5 e4 fe ff
	ff		 mov	 esi, DWORD PTR _szDataFile$GSCopy$1$[ebp]
  00175	47		 inc	 edi
  00176	3b bd dc fe ff
	ff		 cmp	 edi, DWORD PTR _nCnt$1$[ebp]
  0017c	0f 8c 1e ff ff
	ff		 jl	 $LL4@DoLoadVarL

; 205  : 	}
; 206  : }

  00182	8d 8d c8 fe ff
	ff		 lea	 ecx, DWORD PTR _inArr$[ebp]
  00188	e8 00 00 00 00	 call	 ??1CStringArray@@UAE@XZ	; CStringArray::~CStringArray
  0018d	8d 8d e8 fe ff
	ff		 lea	 ecx, DWORD PTR _szKey$[ebp]
  00193	ff 15 00 00 00
	00		 call	 DWORD PTR __imp_??1?$CStringT@DV?$StrTraitMFC_DLL@DV?$ChTraitsCRT@D@ATL@@@@@ATL@@QAE@XZ
$LN1@DoLoadVarL:
  00199	8b 4d f4	 mov	 ecx, DWORD PTR __$EHRec$[ebp]
  0019c	64 89 0d 00 00
	00 00		 mov	 DWORD PTR fs:0, ecx
  001a3	59		 pop	 ecx
  001a4	5f		 pop	 edi
  001a5	5e		 pop	 esi
  001a6	5b		 pop	 ebx
  001a7	8b 4d f0	 mov	 ecx, DWORD PTR __$ArrayPad$[ebp]
  001aa	33 cd		 xor	 ecx, ebp
  001ac	e8 00 00 00 00	 call	 @__security_check_cookie@4
  001b1	8b e5		 mov	 esp, ebp
  001b3	5d		 pop	 ebp
  001b4	c2 04 00	 ret	 4
_TEXT	ENDS
;	COMDAT text$x
text$x	SEGMENT
__unwindfunclet$?DoLoadVarList@CDlgSysVarOption@@QAEXPBD@Z$0:
  00000	8d 8d e8 fe ff
	ff		 lea	 ecx, DWORD PTR _szKey$[ebp]
  00006	ff 25 00 00 00
	00		 jmp	 DWORD PTR __imp_??1?$CStringT@DV?$StrTraitMFC_DLL@DV?$ChTraitsCRT@D@ATL@@@@@ATL@@QAE@XZ
__unwindfunclet$?DoLoadVarList@CDlgSysVarOption@@QAEXPBD@Z$1:
  0000c	8d 8d c8 fe ff
	ff		 lea	 ecx, DWORD PTR _inArr$[ebp]
  00012	e9 00 00 00 00	 jmp	 ??1CStringArray@@UAE@XZ	; CStringArray::~CStringArray
  00017	cc		 int	 3
  00018	cc		 int	 3
  00019	cc		 int	 3
  0001a	cc		 int	 3
  0001b	cc		 int	 3
__ehhandler$?DoLoadVarList@CDlgSysVarOption@@QAEXPBD@Z:
  0001c	90		 npad	 1
  0001d	90		 npad	 1
  0001e	8b 54 24 08	 mov	 edx, DWORD PTR [esp+8]
  00022	8d 42 0c	 lea	 eax, DWORD PTR [edx+12]
  00025	8b 8a c4 fe ff
	ff		 mov	 ecx, DWORD PTR [edx-316]
  0002b	33 c8		 xor	 ecx, eax
  0002d	e8 00 00 00 00	 call	 @__security_check_cookie@4
  00032	8b 4a fc	 mov	 ecx, DWORD PTR [edx-4]
  00035	33 c8		 xor	 ecx, eax
  00037	e8 00 00 00 00	 call	 @__security_check_cookie@4
  0003c	b8 00 00 00 00	 mov	 eax, OFFSET __ehfuncinfo$?DoLoadVarList@CDlgSysVarOption@@QAEXPBD@Z
  00041	e9 00 00 00 00	 jmp	 ___CxxFrameHandler3
text$x	ENDS
?DoLoadVarList@CDlgSysVarOption@@QAEXPBD@Z ENDP		; CDlgSysVarOption::DoLoadVarList
; Function compile flags: /Ogtp
; File D:\git\src\IBK\IBK_DRFN\ProjSrc\SrcDrfn\Chart\HWSTRATEGYCONFIGUREWIZARD\DlgSysVarOption.cpp
; File C:\Program Files (x86)\Microsoft Visual Studio\2019\Community\VC\Tools\MSVC\14.29.30133\atlmfc\include\afxcoll.inl
; File D:\git\src\IBK\IBK_DRFN\ProjSrc\SrcDrfn\Chart\HWSTRATEGYCONFIGUREWIZARD\DlgSysVarOption.cpp
; File C:\Program Files (x86)\Microsoft Visual Studio\2019\Community\VC\Tools\MSVC\14.29.30133\atlmfc\include\cstringt.h
; File D:\git\src\IBK\IBK_DRFN\ProjSrc\SrcDrfn\Chart\HWSTRATEGYCONFIGUREWIZARD\DlgSysVarOption.cpp
; File C:\Program Files (x86)\Microsoft Visual Studio\2019\Community\VC\Tools\MSVC\14.29.30133\atlmfc\include\cstringt.h
; File D:\git\src\IBK\IBK_DRFN\ProjSrc\SrcDrfn\Chart\HWSTRATEGYCONFIGUREWIZARD\DlgSysVarOption.cpp
; File C:\Program Files (x86)\Microsoft Visual Studio\2019\Community\VC\Tools\MSVC\14.29.30133\atlmfc\include\cstringt.h
; File D:\git\src\IBK\IBK_DRFN\ProjSrc\SrcDrfn\Chart\HWSTRATEGYCONFIGUREWIZARD\DlgSysVarOption.cpp
; File C:\Program Files (x86)\Microsoft Visual Studio\2019\Community\VC\Tools\MSVC\14.29.30133\atlmfc\include\atlsimpstr.h
; File D:\git\src\IBK\IBK_DRFN\ProjSrc\SrcDrfn\Chart\HWSTRATEGYCONFIGUREWIZARD\DlgSysVarOption.cpp
; File C:\Program Files (x86)\Microsoft Visual Studio\2019\Community\VC\Tools\MSVC\14.29.30133\atlmfc\include\atlsimpstr.h
; File D:\git\src\IBK\IBK_DRFN\ProjSrc\SrcDrfn\Chart\HWSTRATEGYCONFIGUREWIZARD\DlgSysVarOption.cpp
; File C:\Program Files (x86)\Microsoft Visual Studio\2019\Community\VC\Tools\MSVC\14.29.30133\atlmfc\include\afxcmn.inl
; File D:\git\src\IBK\IBK_DRFN\ProjSrc\SrcDrfn\Chart\HWSTRATEGYCONFIGUREWIZARD\DlgSysVarOption.cpp
;	COMDAT ?DoApplyInputParam@CDlgSysVarOption@@QAEXXZ
_TEXT	SEGMENT
_inArr$2 = -380						; size = 20
$T3 = -360						; size = 4
$T4 = -356						; size = 4
$T5 = -352						; size = 4
$T6 = -348						; size = 4
$T7 = -344						; size = 4
$T8 = -340						; size = 4
$T9 = -336						; size = 4
_pos$1$ = -332						; size = 4
$T10 = -332						; size = 4
_nCnt$1$ = -328						; size = 4
$T11 = -328						; size = 4
_szTmp$12 = -324					; size = 4
_szKey$13 = -320					; size = 4
_szKey$14 = -316					; size = 4
_szValue$15 = -312					; size = 4
_aTmp$16 = -308						; size = 260
_aData$ = -48						; size = 30
__$ArrayPad$ = -16					; size = 4
__$EHRec$ = -12						; size = 12
?DoApplyInputParam@CDlgSysVarOption@@QAEXXZ PROC	; CDlgSysVarOption::DoApplyInputParam, COMDAT
; _this$ = ecx

; 131  : {

  00000	55		 push	 ebp
  00001	8b ec		 mov	 ebp, esp
  00003	6a ff		 push	 -1
  00005	68 00 00 00 00	 push	 __ehhandler$?DoApplyInputParam@CDlgSysVarOption@@QAEXXZ
  0000a	64 a1 00 00 00
	00		 mov	 eax, DWORD PTR fs:0
  00010	50		 push	 eax
  00011	81 ec 70 01 00
	00		 sub	 esp, 368		; 00000170H
  00017	a1 00 00 00 00	 mov	 eax, DWORD PTR ___security_cookie
  0001c	33 c5		 xor	 eax, ebp
  0001e	89 45 f0	 mov	 DWORD PTR __$ArrayPad$[ebp], eax
  00021	53		 push	 ebx
  00022	56		 push	 esi
  00023	57		 push	 edi
  00024	50		 push	 eax
  00025	8d 45 f4	 lea	 eax, DWORD PTR __$EHRec$[ebp]
  00028	64 a3 00 00 00
	00		 mov	 DWORD PTR fs:0, eax
  0002e	8b f9		 mov	 edi, ecx

; 132  : 	if(m_pInputList)

  00030	83 bf a8 00 00
	00 00		 cmp	 DWORD PTR [edi+168], 0
  00037	8b 1d 00 00 00
	00		 mov	 ebx, DWORD PTR __imp__GetPrivateProfileStringA@24
  0003d	0f 84 30 04 00
	00		 je	 $LN5@DoApplyInp

; 133  : 	{
; 134  : 		CString szTmp, szKey, szValue;

  00043	8d 8d bc fe ff
	ff		 lea	 ecx, DWORD PTR _szTmp$12[ebp]
  00049	ff 15 00 00 00
	00		 call	 DWORD PTR __imp_??0?$CStringT@DV?$StrTraitMFC_DLL@DV?$ChTraitsCRT@D@ATL@@@@@ATL@@QAE@XZ
  0004f	8d 8d c0 fe ff
	ff		 lea	 ecx, DWORD PTR _szKey$13[ebp]
  00055	c7 45 fc 00 00
	00 00		 mov	 DWORD PTR __$EHRec$[ebp+8], 0
  0005c	ff 15 00 00 00
	00		 call	 DWORD PTR __imp_??0?$CStringT@DV?$StrTraitMFC_DLL@DV?$ChTraitsCRT@D@ATL@@@@@ATL@@QAE@XZ
  00062	8d 8d c8 fe ff
	ff		 lea	 ecx, DWORD PTR _szValue$15[ebp]
  00068	ff 15 00 00 00
	00		 call	 DWORD PTR __imp_??0?$CStringT@DV?$StrTraitMFC_DLL@DV?$ChTraitsCRT@D@ATL@@@@@ATL@@QAE@XZ

; 135  : 		int nFind;
; 136  : 		for(POSITION pos=m_pInputList->GetHeadPosition(); pos;)

  0006e	8b 87 a8 00 00
	00		 mov	 eax, DWORD PTR [edi+168]
  00074	c6 45 fc 02	 mov	 BYTE PTR __$EHRec$[ebp+8], 2
  00078	8b 48 04	 mov	 ecx, DWORD PTR [eax+4]
  0007b	85 c9		 test	 ecx, ecx
  0007d	0f 84 c5 03 00
	00		 je	 $LN3@DoApplyInp
$LL2@DoApplyInp:
; File C:\Program Files (x86)\Microsoft Visual Studio\2019\Community\VC\Tools\MSVC\14.29.30133\atlmfc\include\afxcoll.inl

; 501  : 	{ CNode* pNode = (CNode*) rPosition;

  00083	8b c1		 mov	 eax, ecx

; 502  : 		ASSERT(AfxIsValidAddress(pNode, sizeof(CNode)));
; 503  : 		if( pNode == NULL )
; 504  : 			AfxThrowInvalidArgException();
; 505  : 		rPosition = (POSITION) pNode->pNext;

  00085	8b 09		 mov	 ecx, DWORD PTR [ecx]

; 506  : 		return pNode->data; }

  00087	83 c0 08	 add	 eax, 8
  0008a	89 8d b4 fe ff
	ff		 mov	 DWORD PTR _pos$1$[ebp], ecx
; File D:\git\src\IBK\IBK_DRFN\ProjSrc\SrcDrfn\Chart\HWSTRATEGYCONFIGUREWIZARD\DlgSysVarOption.cpp

; 138  : 			szTmp = m_pInputList->GetNext(pos);

  00090	50		 push	 eax
  00091	8d 8d bc fe ff
	ff		 lea	 ecx, DWORD PTR _szTmp$12[ebp]
  00097	ff 15 00 00 00
	00		 call	 DWORD PTR __imp_??4?$CStringT@DV?$StrTraitMFC_DLL@DV?$ChTraitsCRT@D@ATL@@@@@ATL@@QAEAAV01@ABV01@@Z

; 139  : 			nFind = szTmp.Find('=');

  0009d	6a 00		 push	 0
  0009f	6a 3d		 push	 61			; 0000003dH
  000a1	8d 8d bc fe ff
	ff		 lea	 ecx, DWORD PTR _szTmp$12[ebp]
  000a7	ff 15 00 00 00
	00		 call	 DWORD PTR __imp_?Find@?$CStringT@DV?$StrTraitMFC_DLL@DV?$ChTraitsCRT@D@ATL@@@@@ATL@@QBEHDH@Z
  000ad	8b f0		 mov	 esi, eax

; 140  : 			if(nFind<0) continue;

  000af	85 f6		 test	 esi, esi
  000b1	0f 88 7d 03 00
	00		 js	 $LN35@DoApplyInp

; 141  : 
; 142  : 			szKey = szTmp.Left(nFind);

  000b7	56		 push	 esi
  000b8	8d 85 ac fe ff
	ff		 lea	 eax, DWORD PTR $T8[ebp]
  000be	50		 push	 eax
  000bf	8d 8d bc fe ff
	ff		 lea	 ecx, DWORD PTR _szTmp$12[ebp]
  000c5	ff 15 00 00 00
	00		 call	 DWORD PTR __imp_?Left@?$CStringT@DV?$StrTraitMFC_DLL@DV?$ChTraitsCRT@D@ATL@@@@@ATL@@QBE?AV12@H@Z
  000cb	50		 push	 eax
  000cc	8d 8d c0 fe ff
	ff		 lea	 ecx, DWORD PTR _szKey$13[ebp]
  000d2	c6 45 fc 03	 mov	 BYTE PTR __$EHRec$[ebp+8], 3
  000d6	ff 15 00 00 00
	00		 call	 DWORD PTR __imp_??4?$CStringT@DV?$StrTraitMFC_DLL@DV?$ChTraitsCRT@D@ATL@@@@@ATL@@QAEAAV01@ABV01@@Z
  000dc	8d 8d ac fe ff
	ff		 lea	 ecx, DWORD PTR $T8[ebp]
  000e2	c6 45 fc 02	 mov	 BYTE PTR __$EHRec$[ebp+8], 2
  000e6	ff 15 00 00 00
	00		 call	 DWORD PTR __imp_??1?$CStringT@DV?$StrTraitMFC_DLL@DV?$ChTraitsCRT@D@ATL@@@@@ATL@@QAE@XZ

; 143  : 			szValue = szTmp.Mid(nFind+1);

  000ec	8d 46 01	 lea	 eax, DWORD PTR [esi+1]
  000ef	50		 push	 eax
  000f0	8d 85 a8 fe ff
	ff		 lea	 eax, DWORD PTR $T7[ebp]
  000f6	50		 push	 eax
  000f7	8d 8d bc fe ff
	ff		 lea	 ecx, DWORD PTR _szTmp$12[ebp]
  000fd	ff 15 00 00 00
	00		 call	 DWORD PTR __imp_?Mid@?$CStringT@DV?$StrTraitMFC_DLL@DV?$ChTraitsCRT@D@ATL@@@@@ATL@@QBE?AV12@H@Z
  00103	50		 push	 eax
  00104	8d 8d c8 fe ff
	ff		 lea	 ecx, DWORD PTR _szValue$15[ebp]
  0010a	c6 45 fc 04	 mov	 BYTE PTR __$EHRec$[ebp+8], 4
  0010e	ff 15 00 00 00
	00		 call	 DWORD PTR __imp_??4?$CStringT@DV?$StrTraitMFC_DLL@DV?$ChTraitsCRT@D@ATL@@@@@ATL@@QAEAAV01@ABV01@@Z
  00114	8d 8d a8 fe ff
	ff		 lea	 ecx, DWORD PTR $T7[ebp]
  0011a	c6 45 fc 02	 mov	 BYTE PTR __$EHRec$[ebp+8], 2
  0011e	ff 15 00 00 00
	00		 call	 DWORD PTR __imp_??1?$CStringT@DV?$StrTraitMFC_DLL@DV?$ChTraitsCRT@D@ATL@@@@@ATL@@QAE@XZ

; 144  : 			if(szKey.CompareNoCase("STNAME")==0)

  00124	68 00 00 00 00	 push	 OFFSET ??_C@_06NGJGOFOJ@STNAME@
  00129	8d 8d c0 fe ff
	ff		 lea	 ecx, DWORD PTR _szKey$13[ebp]
  0012f	ff 15 00 00 00
	00		 call	 DWORD PTR __imp_?CompareNoCase@?$CStringT@DV?$StrTraitMFC_DLL@DV?$ChTraitsCRT@D@ATL@@@@@ATL@@QBEHPBD@Z
  00135	85 c0		 test	 eax, eax
  00137	0f 85 d2 00 00
	00		 jne	 $LN7@DoApplyInp

; 146  : 				if(szValue.Left(2) == "P_")

  0013d	6a 02		 push	 2
  0013f	8d 85 a4 fe ff
	ff		 lea	 eax, DWORD PTR $T6[ebp]
  00145	50		 push	 eax
  00146	8d 8d c8 fe ff
	ff		 lea	 ecx, DWORD PTR _szValue$15[ebp]
  0014c	ff 15 00 00 00
	00		 call	 DWORD PTR __imp_?Left@?$CStringT@DV?$StrTraitMFC_DLL@DV?$ChTraitsCRT@D@ATL@@@@@ATL@@QBE?AV12@H@Z
; File C:\Program Files (x86)\Microsoft Visual Studio\2019\Community\VC\Tools\MSVC\14.29.30133\atlmfc\include\cstringt.h

; 2486 : 		return(str1.Compare(psz2) == 0);

  00152	68 00 00 00 00	 push	 OFFSET ??_C@_02FBCBEJMG@P_@
  00157	8b c8		 mov	 ecx, eax
; File D:\git\src\IBK\IBK_DRFN\ProjSrc\SrcDrfn\Chart\HWSTRATEGYCONFIGUREWIZARD\DlgSysVarOption.cpp

; 146  : 				if(szValue.Left(2) == "P_")

  00159	c6 45 fc 05	 mov	 BYTE PTR __$EHRec$[ebp+8], 5
; File C:\Program Files (x86)\Microsoft Visual Studio\2019\Community\VC\Tools\MSVC\14.29.30133\atlmfc\include\cstringt.h

; 2486 : 		return(str1.Compare(psz2) == 0);

  0015d	ff 15 00 00 00
	00		 call	 DWORD PTR __imp_?Compare@?$CStringT@DV?$StrTraitMFC_DLL@DV?$ChTraitsCRT@D@ATL@@@@@ATL@@QBEHPBD@Z
; File D:\git\src\IBK\IBK_DRFN\ProjSrc\SrcDrfn\Chart\HWSTRATEGYCONFIGUREWIZARD\DlgSysVarOption.cpp

; 146  : 				if(szValue.Left(2) == "P_")

  00163	8d 8d a4 fe ff
	ff		 lea	 ecx, DWORD PTR $T6[ebp]
  00169	c6 45 fc 02	 mov	 BYTE PTR __$EHRec$[ebp+8], 2
; File C:\Program Files (x86)\Microsoft Visual Studio\2019\Community\VC\Tools\MSVC\14.29.30133\atlmfc\include\cstringt.h

; 2486 : 		return(str1.Compare(psz2) == 0);

  0016d	8b f0		 mov	 esi, eax
; File D:\git\src\IBK\IBK_DRFN\ProjSrc\SrcDrfn\Chart\HWSTRATEGYCONFIGUREWIZARD\DlgSysVarOption.cpp

; 146  : 				if(szValue.Left(2) == "P_")

  0016f	ff 15 00 00 00
	00		 call	 DWORD PTR __imp_??1?$CStringT@DV?$StrTraitMFC_DLL@DV?$ChTraitsCRT@D@ATL@@@@@ATL@@QAE@XZ
  00175	85 f6		 test	 esi, esi
  00177	75 36		 jne	 SHORT $LN9@DoApplyInp

; 147  : 					szValue = szValue.Mid(2);

  00179	6a 02		 push	 2
  0017b	8d 85 a0 fe ff
	ff		 lea	 eax, DWORD PTR $T5[ebp]
  00181	50		 push	 eax
  00182	8d 8d c8 fe ff
	ff		 lea	 ecx, DWORD PTR _szValue$15[ebp]
  00188	ff 15 00 00 00
	00		 call	 DWORD PTR __imp_?Mid@?$CStringT@DV?$StrTraitMFC_DLL@DV?$ChTraitsCRT@D@ATL@@@@@ATL@@QBE?AV12@H@Z
  0018e	50		 push	 eax
  0018f	8d 8d c8 fe ff
	ff		 lea	 ecx, DWORD PTR _szValue$15[ebp]
  00195	c6 45 fc 06	 mov	 BYTE PTR __$EHRec$[ebp+8], 6
  00199	ff 15 00 00 00
	00		 call	 DWORD PTR __imp_??4?$CStringT@DV?$StrTraitMFC_DLL@DV?$ChTraitsCRT@D@ATL@@@@@ATL@@QAEAAV01@ABV01@@Z
  0019f	8d 8d a0 fe ff
	ff		 lea	 ecx, DWORD PTR $T5[ebp]
  001a5	c6 45 fc 02	 mov	 BYTE PTR __$EHRec$[ebp+8], 2
  001a9	ff 15 00 00 00
	00		 call	 DWORD PTR __imp_??1?$CStringT@DV?$StrTraitMFC_DLL@DV?$ChTraitsCRT@D@ATL@@@@@ATL@@QAE@XZ
$LN9@DoApplyInp:

; 148  : 				nFind = szValue.Find(gSTGubunKey);

  001af	6a 00		 push	 0
  001b1	6a 5e		 push	 94			; 0000005eH
  001b3	8d 8d c8 fe ff
	ff		 lea	 ecx, DWORD PTR _szValue$15[ebp]
  001b9	ff 15 00 00 00
	00		 call	 DWORD PTR __imp_?Find@?$CStringT@DV?$StrTraitMFC_DLL@DV?$ChTraitsCRT@D@ATL@@@@@ATL@@QBEHDH@Z

; 149  : 				if(nFind>0) szValue = szValue.Left(nFind);

  001bf	85 c0		 test	 eax, eax
  001c1	7e 35		 jle	 SHORT $LN10@DoApplyInp
  001c3	50		 push	 eax
  001c4	8d 85 9c fe ff
	ff		 lea	 eax, DWORD PTR $T4[ebp]
  001ca	50		 push	 eax
  001cb	8d 8d c8 fe ff
	ff		 lea	 ecx, DWORD PTR _szValue$15[ebp]
  001d1	ff 15 00 00 00
	00		 call	 DWORD PTR __imp_?Left@?$CStringT@DV?$StrTraitMFC_DLL@DV?$ChTraitsCRT@D@ATL@@@@@ATL@@QBE?AV12@H@Z
  001d7	50		 push	 eax
  001d8	8d 8d c8 fe ff
	ff		 lea	 ecx, DWORD PTR _szValue$15[ebp]
  001de	c6 45 fc 07	 mov	 BYTE PTR __$EHRec$[ebp+8], 7
  001e2	ff 15 00 00 00
	00		 call	 DWORD PTR __imp_??4?$CStringT@DV?$StrTraitMFC_DLL@DV?$ChTraitsCRT@D@ATL@@@@@ATL@@QAEAAV01@ABV01@@Z
  001e8	8d 8d 9c fe ff
	ff		 lea	 ecx, DWORD PTR $T4[ebp]
  001ee	c6 45 fc 02	 mov	 BYTE PTR __$EHRec$[ebp+8], 2
  001f2	ff 15 00 00 00
	00		 call	 DWORD PTR __imp_??1?$CStringT@DV?$StrTraitMFC_DLL@DV?$ChTraitsCRT@D@ATL@@@@@ATL@@QAE@XZ
$LN10@DoApplyInp:

; 150  : 				SetDlgItemText(IDC_STNAME, szValue);

  001f8	ff b5 c8 fe ff
	ff		 push	 DWORD PTR _szValue$15[ebp]
  001fe	8b cf		 mov	 ecx, edi
  00200	68 f7 03 00 00	 push	 1015			; 000003f7H
  00205	e8 00 00 00 00	 call	 ?SetDlgItemTextA@CWnd@@QAEXHPBD@Z ; CWnd::SetDlgItemTextA

; 151  : 			}

  0020a	e9 25 02 00 00	 jmp	 $LN35@DoApplyInp
$LN7@DoApplyInp:

; 152  : 			else if(szKey.CompareNoCase("SFGPATH")==0)

  0020f	68 00 00 00 00	 push	 OFFSET ??_C@_07DMFMBNNG@SFGPATH@
  00214	8d 8d c0 fe ff
	ff		 lea	 ecx, DWORD PTR _szKey$13[ebp]
  0021a	ff 15 00 00 00
	00		 call	 DWORD PTR __imp_?CompareNoCase@?$CStringT@DV?$StrTraitMFC_DLL@DV?$ChTraitsCRT@D@ATL@@@@@ATL@@QBEHPBD@Z
  00220	85 c0		 test	 eax, eax
  00222	75 6d		 jne	 SHORT $LN11@DoApplyInp

; 153  : 			{
; 154  : 				nFind = szValue.Find(gSTGubunKey);

  00224	50		 push	 eax
  00225	6a 5e		 push	 94			; 0000005eH
  00227	8d 8d c8 fe ff
	ff		 lea	 ecx, DWORD PTR _szValue$15[ebp]
  0022d	ff 15 00 00 00
	00		 call	 DWORD PTR __imp_?Find@?$CStringT@DV?$StrTraitMFC_DLL@DV?$ChTraitsCRT@D@ATL@@@@@ATL@@QBEHDH@Z

; 155  : 				if(nFind>0) szValue = szValue.Left(nFind);

  00233	85 c0		 test	 eax, eax
  00235	7e 35		 jle	 SHORT $LN13@DoApplyInp
  00237	50		 push	 eax
  00238	8d 85 98 fe ff
	ff		 lea	 eax, DWORD PTR $T3[ebp]
  0023e	50		 push	 eax
  0023f	8d 8d c8 fe ff
	ff		 lea	 ecx, DWORD PTR _szValue$15[ebp]
  00245	ff 15 00 00 00
	00		 call	 DWORD PTR __imp_?Left@?$CStringT@DV?$StrTraitMFC_DLL@DV?$ChTraitsCRT@D@ATL@@@@@ATL@@QBE?AV12@H@Z
  0024b	50		 push	 eax
  0024c	8d 8d c8 fe ff
	ff		 lea	 ecx, DWORD PTR _szValue$15[ebp]
  00252	c6 45 fc 08	 mov	 BYTE PTR __$EHRec$[ebp+8], 8
  00256	ff 15 00 00 00
	00		 call	 DWORD PTR __imp_??4?$CStringT@DV?$StrTraitMFC_DLL@DV?$ChTraitsCRT@D@ATL@@@@@ATL@@QAEAAV01@ABV01@@Z
  0025c	8d 8d 98 fe ff
	ff		 lea	 ecx, DWORD PTR $T3[ebp]
  00262	c6 45 fc 02	 mov	 BYTE PTR __$EHRec$[ebp+8], 2
  00266	ff 15 00 00 00
	00		 call	 DWORD PTR __imp_??1?$CStringT@DV?$StrTraitMFC_DLL@DV?$ChTraitsCRT@D@ATL@@@@@ATL@@QAE@XZ
$LN13@DoApplyInp:

; 156  : 				m_szSFGPath.Format("%s%s", szValue, ".sfg");

  0026c	68 00 00 00 00	 push	 OFFSET ??_C@_04FIEANMAH@?4sfg@
  00271	ff b5 c8 fe ff
	ff		 push	 DWORD PTR _szValue$15[ebp]
  00277	8d 87 b0 00 00
	00		 lea	 eax, DWORD PTR [edi+176]
  0027d	68 00 00 00 00	 push	 OFFSET ??_C@_04HDOCAJNK@?$CFs?$CFs@
  00282	50		 push	 eax
  00283	ff 15 00 00 00
	00		 call	 DWORD PTR __imp_?Format@?$CStringT@DV?$StrTraitMFC_DLL@DV?$ChTraitsCRT@D@ATL@@@@@ATL@@QAAXPBDZZ
  00289	83 c4 10	 add	 esp, 16			; 00000010H

; 157  : 				//	DoLoadVarList(m_szSFGPath);
; 158  : 			}

  0028c	e9 a3 01 00 00	 jmp	 $LN35@DoApplyInp
$LN11@DoApplyInp:

; 159  : 			else if(szKey.CompareNoCase("STPATH")==0)

  00291	68 00 00 00 00	 push	 OFFSET ??_C@_06KPBPCKLI@STPATH@
  00296	8d 8d c0 fe ff
	ff		 lea	 ecx, DWORD PTR _szKey$13[ebp]
  0029c	ff 15 00 00 00
	00		 call	 DWORD PTR __imp_?CompareNoCase@?$CStringT@DV?$StrTraitMFC_DLL@DV?$ChTraitsCRT@D@ATL@@@@@ATL@@QBEHPBD@Z
  002a2	85 c0		 test	 eax, eax
  002a4	0f 85 8a 01 00
	00		 jne	 $LN35@DoApplyInp

; 160  : 			{
; 161  : 				m_szSTPath = szValue;

  002aa	8d 85 c8 fe ff
	ff		 lea	 eax, DWORD PTR _szValue$15[ebp]
  002b0	50		 push	 eax
  002b1	8d 8f ac 00 00
	00		 lea	 ecx, DWORD PTR [edi+172]
  002b7	ff 15 00 00 00
	00		 call	 DWORD PTR __imp_??4?$CStringT@DV?$StrTraitMFC_DLL@DV?$ChTraitsCRT@D@ATL@@@@@ATL@@QAEAAV01@ABV01@@Z
; File C:\Program Files (x86)\Microsoft Visual Studio\2019\Community\VC\Tools\MSVC\14.29.30133\atlmfc\include\atlsimpstr.h

; 377  : 		return( m_pszData );

  002bd	8b 87 ac 00 00
	00		 mov	 eax, DWORD PTR [edi+172]
; File D:\git\src\IBK\IBK_DRFN\ProjSrc\SrcDrfn\Chart\HWSTRATEGYCONFIGUREWIZARD\DlgSysVarOption.cpp

; 184  : 	int nCnt = ::GetPrivateProfileInt(szSection, "InputCnt", 0, szDataFile);

  002c3	50		 push	 eax
  002c4	6a 00		 push	 0
  002c6	68 00 00 00 00	 push	 OFFSET ??_C@_08JFMIELNJ@InputCnt@
  002cb	68 00 00 00 00	 push	 OFFSET ??_C@_09IJIPICN@Variables@
; File C:\Program Files (x86)\Microsoft Visual Studio\2019\Community\VC\Tools\MSVC\14.29.30133\atlmfc\include\atlsimpstr.h

; 377  : 		return( m_pszData );

  002d0	89 85 b0 fe ff
	ff		 mov	 DWORD PTR $T9[ebp], eax
; File D:\git\src\IBK\IBK_DRFN\ProjSrc\SrcDrfn\Chart\HWSTRATEGYCONFIGUREWIZARD\DlgSysVarOption.cpp

; 184  : 	int nCnt = ::GetPrivateProfileInt(szSection, "InputCnt", 0, szDataFile);

  002d6	ff 15 00 00 00
	00		 call	 DWORD PTR __imp__GetPrivateProfileIntA@16
  002dc	89 85 b8 fe ff
	ff		 mov	 DWORD PTR _nCnt$1$[ebp], eax

; 185  : 	if(nCnt<=0) return;

  002e2	85 c0		 test	 eax, eax
  002e4	0f 8e 4a 01 00
	00		 jle	 $LN35@DoApplyInp

; 186  : 
; 187  : 	CString szKey;

  002ea	8d 8d c4 fe ff
	ff		 lea	 ecx, DWORD PTR _szKey$14[ebp]
  002f0	ff 15 00 00 00
	00		 call	 DWORD PTR __imp_??0?$CStringT@DV?$StrTraitMFC_DLL@DV?$ChTraitsCRT@D@ATL@@@@@ATL@@QAE@XZ

; 188  : 	char aTmp[MAX_PATH]={0,};

  002f6	68 04 01 00 00	 push	 260			; 00000104H
  002fb	8d 85 cc fe ff
	ff		 lea	 eax, DWORD PTR _aTmp$16[ebp]
  00301	c6 45 fc 09	 mov	 BYTE PTR __$EHRec$[ebp+8], 9
  00305	6a 00		 push	 0
  00307	50		 push	 eax
  00308	e8 00 00 00 00	 call	 _memset
  0030d	83 c4 0c	 add	 esp, 12			; 0000000cH

; 189  : 	int nAddRow;
; 190  : 	CStringArray inArr;

  00310	8d 8d 84 fe ff
	ff		 lea	 ecx, DWORD PTR _inArr$2[ebp]
  00316	e8 00 00 00 00	 call	 ??0CStringArray@@QAE@XZ	; CStringArray::CStringArray
  0031b	c6 45 fc 0a	 mov	 BYTE PTR __$EHRec$[ebp+8], 10 ; 0000000aH
  0031f	8d b7 d8 01 00
	00		 lea	 esi, DWORD PTR [edi+472]

; 186  : 
; 187  : 	CString szKey;

  00325	33 db		 xor	 ebx, ebx
  00327	66 0f 1f 84 00
	00 00 00 00	 npad	 9
$LL38@DoApplyInp:

; 191  : 
; 192  : 	for(int i=0; i<nCnt; i++)
; 193  : 	{
; 194  : 		szKey.Format("InputName%d", i);

  00330	53		 push	 ebx
  00331	8d 85 c4 fe ff
	ff		 lea	 eax, DWORD PTR _szKey$14[ebp]
  00337	68 00 00 00 00	 push	 OFFSET ??_C@_0M@MKPENJBJ@InputName?$CFd@
  0033c	50		 push	 eax
  0033d	ff 15 00 00 00
	00		 call	 DWORD PTR __imp_?Format@?$CStringT@DV?$StrTraitMFC_DLL@DV?$ChTraitsCRT@D@ATL@@@@@ATL@@QAAXPBDZZ
  00343	83 c4 0c	 add	 esp, 12			; 0000000cH

; 195  : 		::GetPrivateProfileString(szSection, szKey, "", aTmp, MAX_PATH, szDataFile);

  00346	8d 85 cc fe ff
	ff		 lea	 eax, DWORD PTR _aTmp$16[ebp]
  0034c	ff b5 b0 fe ff
	ff		 push	 DWORD PTR $T9[ebp]
  00352	68 04 01 00 00	 push	 260			; 00000104H
  00357	50		 push	 eax
  00358	68 00 00 00 00	 push	 OFFSET ??_C@_00CNPNBAHC@@
  0035d	ff b5 c4 fe ff
	ff		 push	 DWORD PTR _szKey$14[ebp]
  00363	68 00 00 00 00	 push	 OFFSET ??_C@_09IJIPICN@Variables@
  00368	ff 15 00 00 00
	00		 call	 DWORD PTR __imp__GetPrivateProfileStringA@24
; File C:\Program Files (x86)\Microsoft Visual Studio\2019\Community\VC\Tools\MSVC\14.29.30133\atlmfc\include\afxcmn.inl

; 155  : 	{ ASSERT(::IsWindow(m_hWnd)); return (int) ::SendMessage(m_hWnd, LVM_GETITEMCOUNT, 0, 0L); }

  0036e	6a 00		 push	 0
  00370	6a 00		 push	 0
  00372	68 04 10 00 00	 push	 4100			; 00001004H
  00377	ff b7 f8 01 00
	00		 push	 DWORD PTR [edi+504]
  0037d	ff 15 00 00 00
	00		 call	 DWORD PTR __imp__SendMessageA@16
; File D:\git\src\IBK\IBK_DRFN\ProjSrc\SrcDrfn\Chart\HWSTRATEGYCONFIGUREWIZARD\DlgSysVarOption.cpp

; 197  : 		nAddRow = m_InputList.InsertItem(m_InputList.GetItemCount(), "");

  00383	68 00 00 00 00	 push	 OFFSET ??_C@_00CNPNBAHC@@
  00388	50		 push	 eax
  00389	8b ce		 mov	 ecx, esi
  0038b	e8 00 00 00 00	 call	 ?InsertItem@CXListCtrl@@QAEHHPBD@Z ; CXListCtrl::InsertItem
  00390	8b f0		 mov	 esi, eax

; 198  : 		m_InputList.SetItemText(nAddRow, 0, aTmp);

  00392	8d 8f d8 01 00
	00		 lea	 ecx, DWORD PTR [edi+472]
  00398	8d 85 cc fe ff
	ff		 lea	 eax, DWORD PTR _aTmp$16[ebp]
  0039e	50		 push	 eax
  0039f	6a 00		 push	 0
  003a1	56		 push	 esi
  003a2	e8 00 00 00 00	 call	 ?SetItemText@CXListCtrl@@QAEHHHPBD@Z ; CXListCtrl::SetItemText

; 199  : 
; 200  : 		szKey.Format("Input%d", i);

  003a7	53		 push	 ebx
  003a8	8d 85 c4 fe ff
	ff		 lea	 eax, DWORD PTR _szKey$14[ebp]
  003ae	68 00 00 00 00	 push	 OFFSET ??_C@_07JGNMLBPF@Input?$CFd@
  003b3	50		 push	 eax
  003b4	ff 15 00 00 00
	00		 call	 DWORD PTR __imp_?Format@?$CStringT@DV?$StrTraitMFC_DLL@DV?$ChTraitsCRT@D@ATL@@@@@ATL@@QAAXPBDZZ
  003ba	83 c4 0c	 add	 esp, 12			; 0000000cH

; 201  : 		::GetPrivateProfileString(szSection, szKey, "", aTmp, MAX_PATH, szDataFile);

  003bd	8d 85 cc fe ff
	ff		 lea	 eax, DWORD PTR _aTmp$16[ebp]
  003c3	ff b5 b0 fe ff
	ff		 push	 DWORD PTR $T9[ebp]
  003c9	68 04 01 00 00	 push	 260			; 00000104H
  003ce	50		 push	 eax
  003cf	68 00 00 00 00	 push	 OFFSET ??_C@_00CNPNBAHC@@
  003d4	ff b5 c4 fe ff
	ff		 push	 DWORD PTR _szKey$14[ebp]
  003da	68 00 00 00 00	 push	 OFFSET ??_C@_09IJIPICN@Variables@
  003df	ff 15 00 00 00
	00		 call	 DWORD PTR __imp__GetPrivateProfileStringA@24

; 202  : 		m_InputList.SetItemText(nAddRow, 1, aTmp);

  003e5	8d 85 cc fe ff
	ff		 lea	 eax, DWORD PTR _aTmp$16[ebp]
  003eb	50		 push	 eax
  003ec	6a 01		 push	 1
  003ee	56		 push	 esi
  003ef	8d 8f d8 01 00
	00		 lea	 ecx, DWORD PTR [edi+472]
  003f5	e8 00 00 00 00	 call	 ?SetItemText@CXListCtrl@@QAEHHHPBD@Z ; CXListCtrl::SetItemText

; 203  : 
; 204  : 		m_InputList.SetEditBox(nAddRow,1);

  003fa	6a 01		 push	 1
  003fc	6a 01		 push	 1
  003fe	56		 push	 esi
  003ff	8d b7 d8 01 00
	00		 lea	 esi, DWORD PTR [edi+472]
  00405	8b ce		 mov	 ecx, esi
  00407	e8 00 00 00 00	 call	 ?SetEditBox@CXListCtrl@@QAEHHHH@Z ; CXListCtrl::SetEditBox
  0040c	43		 inc	 ebx
  0040d	3b 9d b8 fe ff
	ff		 cmp	 ebx, DWORD PTR _nCnt$1$[ebp]
  00413	0f 8c 17 ff ff
	ff		 jl	 $LL38@DoApplyInp

; 205  : 	}
; 206  : }

  00419	8d 8d 84 fe ff
	ff		 lea	 ecx, DWORD PTR _inArr$2[ebp]
  0041f	e8 00 00 00 00	 call	 ??1CStringArray@@UAE@XZ	; CStringArray::~CStringArray
  00424	8d 8d c4 fe ff
	ff		 lea	 ecx, DWORD PTR _szKey$14[ebp]
  0042a	c6 45 fc 02	 mov	 BYTE PTR __$EHRec$[ebp+8], 2
  0042e	ff 15 00 00 00
	00		 call	 DWORD PTR __imp_??1?$CStringT@DV?$StrTraitMFC_DLL@DV?$ChTraitsCRT@D@ATL@@@@@ATL@@QAE@XZ
$LN35@DoApplyInp:

; 135  : 		int nFind;
; 136  : 		for(POSITION pos=m_pInputList->GetHeadPosition(); pos;)

  00434	8b 8d b4 fe ff
	ff		 mov	 ecx, DWORD PTR _pos$1$[ebp]
  0043a	85 c9		 test	 ecx, ecx
  0043c	0f 85 41 fc ff
	ff		 jne	 $LL2@DoApplyInp
  00442	8b 1d 00 00 00
	00		 mov	 ebx, DWORD PTR __imp__GetPrivateProfileStringA@24
$LN3@DoApplyInp:

; 162  : 				DoLoadVarList(m_szSTPath);
; 163  : 			}
; 164  : 		}
; 165  : 	}

  00448	8d 8d c8 fe ff
	ff		 lea	 ecx, DWORD PTR _szValue$15[ebp]
  0044e	ff 15 00 00 00
	00		 call	 DWORD PTR __imp_??1?$CStringT@DV?$StrTraitMFC_DLL@DV?$ChTraitsCRT@D@ATL@@@@@ATL@@QAE@XZ
  00454	8d 8d c0 fe ff
	ff		 lea	 ecx, DWORD PTR _szKey$13[ebp]
  0045a	ff 15 00 00 00
	00		 call	 DWORD PTR __imp_??1?$CStringT@DV?$StrTraitMFC_DLL@DV?$ChTraitsCRT@D@ATL@@@@@ATL@@QAE@XZ
  00460	8d 8d bc fe ff
	ff		 lea	 ecx, DWORD PTR _szTmp$12[ebp]
  00466	c7 45 fc ff ff
	ff ff		 mov	 DWORD PTR __$EHRec$[ebp+8], -1
  0046d	ff 15 00 00 00
	00		 call	 DWORD PTR __imp_??1?$CStringT@DV?$StrTraitMFC_DLL@DV?$ChTraitsCRT@D@ATL@@@@@ATL@@QAE@XZ
$LN5@DoApplyInp:

; 166  : 
; 167  : 	char aData[30];
; 168  : 	LPCSTR szSection = "index";
; 169  : 
; 170  : 	//DWORD clrBull = RGB(255, 229, 219);	// 14411263
; 171  : 	//DWORD clrBear = RGB(230, 249, 255);	// 16775654
; 172  : 	//sprintf(aData, "%ld", clrBull);
; 173  : 	::GetPrivateProfileString(szSection, "clrBull", "14476026", aData, 30, m_szSFGPath);

  00473	ff b7 b0 00 00
	00		 push	 DWORD PTR [edi+176]
  00479	8d 45 d0	 lea	 eax, DWORD PTR _aData$[ebp]
  0047c	6a 1e		 push	 30			; 0000001eH
  0047e	50		 push	 eax
  0047f	68 00 00 00 00	 push	 OFFSET ??_C@_08BENBMBBP@14476026@
  00484	68 00 00 00 00	 push	 OFFSET ??_C@_07DIBCEAPN@clrBull@
  00489	68 00 00 00 00	 push	 OFFSET ??_C@_05FKHKFDID@index@
  0048e	ff d3		 call	 ebx

; 174  : 	m_btnClrBull.SetColor(atol(aData));

  00490	8b 35 00 00 00
	00		 mov	 esi, DWORD PTR __imp__atol
  00496	8d 45 d0	 lea	 eax, DWORD PTR _aData$[ebp]
  00499	50		 push	 eax
  0049a	ff d6		 call	 esi
  0049c	83 c4 04	 add	 esp, 4
  0049f	89 85 b4 fe ff
	ff		 mov	 DWORD PTR $T10[ebp], eax
  004a5	8d 85 b4 fe ff
	ff		 lea	 eax, DWORD PTR $T10[ebp]
  004ab	8d 8f b8 00 00
	00		 lea	 ecx, DWORD PTR [edi+184]
  004b1	50		 push	 eax
  004b2	e8 00 00 00 00	 call	 ?SetColor@CColorButton@@QAEXABK@Z ; CColorButton::SetColor

; 175  : 
; 176  : 	//sprintf(aData, "%ld", clrBear);
; 177  : 	::GetPrivateProfileString(szSection, "clrBear", "16248787", aData, 30, m_szSFGPath);

  004b7	ff b7 b0 00 00
	00		 push	 DWORD PTR [edi+176]
  004bd	8d 45 d0	 lea	 eax, DWORD PTR _aData$[ebp]
  004c0	6a 1e		 push	 30			; 0000001eH
  004c2	50		 push	 eax
  004c3	68 00 00 00 00	 push	 OFFSET ??_C@_08IFNLLDLJ@16248787@
  004c8	68 00 00 00 00	 push	 OFFSET ??_C@_07LEJCLLOO@clrBear@
  004cd	68 00 00 00 00	 push	 OFFSET ??_C@_05FKHKFDID@index@
  004d2	ff d3		 call	 ebx

; 178  : 	m_btnClrBear.SetColor(atol(aData));

  004d4	8d 45 d0	 lea	 eax, DWORD PTR _aData$[ebp]
  004d7	50		 push	 eax
  004d8	ff d6		 call	 esi
  004da	83 c4 04	 add	 esp, 4
  004dd	89 85 b8 fe ff
	ff		 mov	 DWORD PTR $T11[ebp], eax
  004e3	8d 85 b8 fe ff
	ff		 lea	 eax, DWORD PTR $T11[ebp]
  004e9	8d 8f 48 01 00
	00		 lea	 ecx, DWORD PTR [edi+328]
  004ef	50		 push	 eax
  004f0	e8 00 00 00 00	 call	 ?SetColor@CColorButton@@QAEXABK@Z ; CColorButton::SetColor

; 179  : }

  004f5	8b 4d f4	 mov	 ecx, DWORD PTR __$EHRec$[ebp]
  004f8	64 89 0d 00 00
	00 00		 mov	 DWORD PTR fs:0, ecx
  004ff	59		 pop	 ecx
  00500	5f		 pop	 edi
  00501	5e		 pop	 esi
  00502	5b		 pop	 ebx
  00503	8b 4d f0	 mov	 ecx, DWORD PTR __$ArrayPad$[ebp]
  00506	33 cd		 xor	 ecx, ebp
  00508	e8 00 00 00 00	 call	 @__security_check_cookie@4
  0050d	8b e5		 mov	 esp, ebp
  0050f	5d		 pop	 ebp
  00510	c3		 ret	 0
_TEXT	ENDS
;	COMDAT text$x
text$x	SEGMENT
__unwindfunclet$?DoApplyInputParam@CDlgSysVarOption@@QAEXXZ$0:
  00000	8d 8d bc fe ff
	ff		 lea	 ecx, DWORD PTR _szTmp$12[ebp]
  00006	ff 25 00 00 00
	00		 jmp	 DWORD PTR __imp_??1?$CStringT@DV?$StrTraitMFC_DLL@DV?$ChTraitsCRT@D@ATL@@@@@ATL@@QAE@XZ
__unwindfunclet$?DoApplyInputParam@CDlgSysVarOption@@QAEXXZ$1:
  0000c	8d 8d c0 fe ff
	ff		 lea	 ecx, DWORD PTR _szKey$13[ebp]
  00012	ff 25 00 00 00
	00		 jmp	 DWORD PTR __imp_??1?$CStringT@DV?$StrTraitMFC_DLL@DV?$ChTraitsCRT@D@ATL@@@@@ATL@@QAE@XZ
__unwindfunclet$?DoApplyInputParam@CDlgSysVarOption@@QAEXXZ$2:
  00018	8d 8d c8 fe ff
	ff		 lea	 ecx, DWORD PTR _szValue$15[ebp]
  0001e	ff 25 00 00 00
	00		 jmp	 DWORD PTR __imp_??1?$CStringT@DV?$StrTraitMFC_DLL@DV?$ChTraitsCRT@D@ATL@@@@@ATL@@QAE@XZ
__unwindfunclet$?DoApplyInputParam@CDlgSysVarOption@@QAEXXZ$3:
  00024	8d 8d ac fe ff
	ff		 lea	 ecx, DWORD PTR $T8[ebp]
  0002a	ff 25 00 00 00
	00		 jmp	 DWORD PTR __imp_??1?$CStringT@DV?$StrTraitMFC_DLL@DV?$ChTraitsCRT@D@ATL@@@@@ATL@@QAE@XZ
__unwindfunclet$?DoApplyInputParam@CDlgSysVarOption@@QAEXXZ$4:
  00030	8d 8d a8 fe ff
	ff		 lea	 ecx, DWORD PTR $T7[ebp]
  00036	ff 25 00 00 00
	00		 jmp	 DWORD PTR __imp_??1?$CStringT@DV?$StrTraitMFC_DLL@DV?$ChTraitsCRT@D@ATL@@@@@ATL@@QAE@XZ
__unwindfunclet$?DoApplyInputParam@CDlgSysVarOption@@QAEXXZ$5:
  0003c	8d 8d a4 fe ff
	ff		 lea	 ecx, DWORD PTR $T6[ebp]
  00042	ff 25 00 00 00
	00		 jmp	 DWORD PTR __imp_??1?$CStringT@DV?$StrTraitMFC_DLL@DV?$ChTraitsCRT@D@ATL@@@@@ATL@@QAE@XZ
__unwindfunclet$?DoApplyInputParam@CDlgSysVarOption@@QAEXXZ$6:
  00048	8d 8d a0 fe ff
	ff		 lea	 ecx, DWORD PTR $T5[ebp]
  0004e	ff 25 00 00 00
	00		 jmp	 DWORD PTR __imp_??1?$CStringT@DV?$StrTraitMFC_DLL@DV?$ChTraitsCRT@D@ATL@@@@@ATL@@QAE@XZ
__unwindfunclet$?DoApplyInputParam@CDlgSysVarOption@@QAEXXZ$7:
  00054	8d 8d 9c fe ff
	ff		 lea	 ecx, DWORD PTR $T4[ebp]
  0005a	ff 25 00 00 00
	00		 jmp	 DWORD PTR __imp_??1?$CStringT@DV?$StrTraitMFC_DLL@DV?$ChTraitsCRT@D@ATL@@@@@ATL@@QAE@XZ
__unwindfunclet$?DoApplyInputParam@CDlgSysVarOption@@QAEXXZ$8:
  00060	8d 8d 98 fe ff
	ff		 lea	 ecx, DWORD PTR $T3[ebp]
  00066	ff 25 00 00 00
	00		 jmp	 DWORD PTR __imp_??1?$CStringT@DV?$StrTraitMFC_DLL@DV?$ChTraitsCRT@D@ATL@@@@@ATL@@QAE@XZ
__unwindfunclet$?DoApplyInputParam@CDlgSysVarOption@@QAEXXZ$9:
  0006c	8d 8d c4 fe ff
	ff		 lea	 ecx, DWORD PTR _szKey$14[ebp]
  00072	ff 25 00 00 00
	00		 jmp	 DWORD PTR __imp_??1?$CStringT@DV?$StrTraitMFC_DLL@DV?$ChTraitsCRT@D@ATL@@@@@ATL@@QAE@XZ
__unwindfunclet$?DoApplyInputParam@CDlgSysVarOption@@QAEXXZ$10:
  00078	8d 8d 84 fe ff
	ff		 lea	 ecx, DWORD PTR _inArr$2[ebp]
  0007e	e9 00 00 00 00	 jmp	 ??1CStringArray@@UAE@XZ	; CStringArray::~CStringArray
  00083	cc		 int	 3
  00084	cc		 int	 3
  00085	cc		 int	 3
  00086	cc		 int	 3
  00087	cc		 int	 3
__ehhandler$?DoApplyInputParam@CDlgSysVarOption@@QAEXXZ:
  00088	90		 npad	 1
  00089	90		 npad	 1
  0008a	8b 54 24 08	 mov	 edx, DWORD PTR [esp+8]
  0008e	8d 42 0c	 lea	 eax, DWORD PTR [edx+12]
  00091	8b 8a 80 fe ff
	ff		 mov	 ecx, DWORD PTR [edx-384]
  00097	33 c8		 xor	 ecx, eax
  00099	e8 00 00 00 00	 call	 @__security_check_cookie@4
  0009e	8b 4a fc	 mov	 ecx, DWORD PTR [edx-4]
  000a1	33 c8		 xor	 ecx, eax
  000a3	e8 00 00 00 00	 call	 @__security_check_cookie@4
  000a8	b8 00 00 00 00	 mov	 eax, OFFSET __ehfuncinfo$?DoApplyInputParam@CDlgSysVarOption@@QAEXXZ
  000ad	e9 00 00 00 00	 jmp	 ___CxxFrameHandler3
text$x	ENDS
?DoApplyInputParam@CDlgSysVarOption@@QAEXXZ ENDP	; CDlgSysVarOption::DoApplyInputParam
; Function compile flags: /Ogtp
; File D:\git\src\IBK\IBK_DRFN\ProjSrc\SrcDrfn\Chart\HWSTRATEGYCONFIGUREWIZARD\DlgSysVarOption.cpp
;	COMDAT ?SetParam@CDlgSysVarOption@@QAEXPAVCStringList@@J@Z
_TEXT	SEGMENT
_p_dwInputt$ = 8					; size = 4
_dwOutput$ = 12						; size = 4
?SetParam@CDlgSysVarOption@@QAEXPAVCStringList@@J@Z PROC ; CDlgSysVarOption::SetParam, COMDAT
; _this$ = ecx

; 104  : {

  00000	55		 push	 ebp
  00001	8b ec		 mov	 ebp, esp

; 105  : 	m_pInputList = p_dwInputt;	

  00003	8b 45 08	 mov	 eax, DWORD PTR _p_dwInputt$[ebp]
  00006	89 81 a8 00 00
	00		 mov	 DWORD PTR [ecx+168], eax

; 106  : }

  0000c	5d		 pop	 ebp
  0000d	c2 08 00	 ret	 8
?SetParam@CDlgSysVarOption@@QAEXPAVCStringList@@J@Z ENDP ; CDlgSysVarOption::SetParam
_TEXT	ENDS
; Function compile flags: /Ogtp
; File D:\git\src\IBK\IBK_DRFN\ProjSrc\SrcDrfn\Chart\HWSTRATEGYCONFIGUREWIZARD\DlgSysVarOption.cpp
; File C:\Program Files (x86)\Microsoft Visual Studio\2019\Community\VC\Tools\MSVC\14.29.30133\atlmfc\include\afxcmn2.inl
; File D:\git\src\IBK\IBK_DRFN\ProjSrc\SrcDrfn\Chart\HWSTRATEGYCONFIGUREWIZARD\DlgSysVarOption.cpp
; File C:\Program Files (x86)\Microsoft Visual Studio\2019\Community\VC\Tools\MSVC\14.29.30133\atlmfc\include\afxcmn2.inl
; File D:\git\src\IBK\IBK_DRFN\ProjSrc\SrcDrfn\Chart\HWSTRATEGYCONFIGUREWIZARD\DlgSysVarOption.cpp
; File C:\Program Files (x86)\Microsoft Visual Studio\2019\Community\VC\Tools\MSVC\14.29.30133\atlmfc\include\afxcmn2.inl
; File D:\git\src\IBK\IBK_DRFN\ProjSrc\SrcDrfn\Chart\HWSTRATEGYCONFIGUREWIZARD\DlgSysVarOption.cpp
; File C:\Program Files (x86)\Microsoft Visual Studio\2019\Community\VC\Tools\MSVC\14.29.30133\atlmfc\include\afxcmn2.inl
; File D:\git\src\IBK\IBK_DRFN\ProjSrc\SrcDrfn\Chart\HWSTRATEGYCONFIGUREWIZARD\DlgSysVarOption.cpp
; File C:\Program Files (x86)\Microsoft Visual Studio\2019\Community\VC\Tools\MSVC\14.29.30133\atlmfc\include\afxcmn2.inl
; File D:\git\src\IBK\IBK_DRFN\ProjSrc\SrcDrfn\Chart\HWSTRATEGYCONFIGUREWIZARD\DlgSysVarOption.cpp
; File C:\Program Files (x86)\Microsoft Visual Studio\2019\Community\VC\Tools\MSVC\14.29.30133\atlmfc\include\afxcmn.inl
; File D:\git\src\IBK\IBK_DRFN\ProjSrc\SrcDrfn\Chart\HWSTRATEGYCONFIGUREWIZARD\DlgSysVarOption.cpp
; File C:\Program Files (x86)\Microsoft Visual Studio\2019\Community\VC\Tools\MSVC\14.29.30133\atlmfc\include\afxcmn.inl
; File D:\git\src\IBK\IBK_DRFN\ProjSrc\SrcDrfn\Chart\HWSTRATEGYCONFIGUREWIZARD\DlgSysVarOption.cpp
; File C:\Program Files (x86)\Microsoft Visual Studio\2019\Community\VC\Tools\MSVC\14.29.30133\atlmfc\include\afxcmn.inl
; File D:\git\src\IBK\IBK_DRFN\ProjSrc\SrcDrfn\Chart\HWSTRATEGYCONFIGUREWIZARD\DlgSysVarOption.cpp
; File C:\Program Files (x86)\Microsoft Visual Studio\2019\Community\VC\Tools\MSVC\14.29.30133\atlmfc\include\afxcmn.inl
; File D:\git\src\IBK\IBK_DRFN\ProjSrc\SrcDrfn\Chart\HWSTRATEGYCONFIGUREWIZARD\DlgSysVarOption.cpp
; File C:\Program Files (x86)\Microsoft Visual Studio\2019\Community\VC\Tools\MSVC\14.29.30133\atlmfc\include\afxcmn.inl
; File D:\git\src\IBK\IBK_DRFN\ProjSrc\SrcDrfn\Chart\HWSTRATEGYCONFIGUREWIZARD\DlgSysVarOption.cpp
; File D:\git\src\IBK\IBK_DRFN\ProjSrc\SrcDrfn\Chart\STConfigureDlg\Control\XListCtrl.h
; File D:\git\src\IBK\IBK_DRFN\ProjSrc\SrcDrfn\Chart\HWSTRATEGYCONFIGUREWIZARD\DlgSysVarOption.cpp
; File D:\git\src\IBK\IBK_DRFN\ProjSrc\SrcDrfn\Chart\STConfigureDlg\Control\XListCtrl.h
; File D:\git\src\IBK\IBK_DRFN\ProjSrc\SrcDrfn\Chart\HWSTRATEGYCONFIGUREWIZARD\DlgSysVarOption.cpp
;	COMDAT ?InitColumn@CDlgSysVarOption@@QAEXXZ
_TEXT	SEGMENT
_lvcolumn$ = -84					; size = 44
_colwidthsType0$ = -40					; size = 24
_lpszHeadersType0$ = -16				; size = 12
__$ArrayPad$ = -4					; size = 4
?InitColumn@CDlgSysVarOption@@QAEXXZ PROC		; CDlgSysVarOption::InitColumn, COMDAT
; _this$ = ecx

; 62   : {

  00000	55		 push	 ebp
  00001	8b ec		 mov	 ebp, esp
  00003	83 ec 54	 sub	 esp, 84			; 00000054H
  00006	a1 00 00 00 00	 mov	 eax, DWORD PTR ___security_cookie
  0000b	33 c5		 xor	 eax, ebp
  0000d	89 45 fc	 mov	 DWORD PTR __$ArrayPad$[ebp], eax
  00010	53		 push	 ebx
; File C:\Program Files (x86)\Microsoft Visual Studio\2019\Community\VC\Tools\MSVC\14.29.30133\atlmfc\include\afxcmn2.inl

; 117  : 	{ ASSERT(::IsWindow(m_hWnd)); return (DWORD) ::SendMessage(m_hWnd, LVM_SETEXTENDEDLISTVIEWSTYLE, 0, (LPARAM) dwNewStyle); }

  00011	8b 1d 00 00 00
	00		 mov	 ebx, DWORD PTR __imp__SendMessageA@16
  00017	0f 57 c0	 xorps	 xmm0, xmm0
; File D:\git\src\IBK\IBK_DRFN\ProjSrc\SrcDrfn\Chart\HWSTRATEGYCONFIGUREWIZARD\DlgSysVarOption.cpp

; 62   : {

  0001a	56		 push	 esi
  0001b	57		 push	 edi
; File C:\Program Files (x86)\Microsoft Visual Studio\2019\Community\VC\Tools\MSVC\14.29.30133\atlmfc\include\afxcmn2.inl

; 117  : 	{ ASSERT(::IsWindow(m_hWnd)); return (DWORD) ::SendMessage(m_hWnd, LVM_SETEXTENDEDLISTVIEWSTYLE, 0, (LPARAM) dwNewStyle); }

  0001c	6a 20		 push	 32			; 00000020H
; File D:\git\src\IBK\IBK_DRFN\ProjSrc\SrcDrfn\Chart\HWSTRATEGYCONFIGUREWIZARD\DlgSysVarOption.cpp

; 62   : {

  0001e	8b f9		 mov	 edi, ecx

; 63   : 	int colwidthsType0[6] = { 90, 127};	// sixty-fourths

  00020	c7 45 d8 5a 00
	00 00		 mov	 DWORD PTR _colwidthsType0$[ebp], 90 ; 0000005aH
; File C:\Program Files (x86)\Microsoft Visual Studio\2019\Community\VC\Tools\MSVC\14.29.30133\atlmfc\include\afxcmn2.inl

; 117  : 	{ ASSERT(::IsWindow(m_hWnd)); return (DWORD) ::SendMessage(m_hWnd, LVM_SETEXTENDEDLISTVIEWSTYLE, 0, (LPARAM) dwNewStyle); }

  00027	6a 00		 push	 0
  00029	68 36 10 00 00	 push	 4150			; 00001036H
; File D:\git\src\IBK\IBK_DRFN\ProjSrc\SrcDrfn\Chart\HWSTRATEGYCONFIGUREWIZARD\DlgSysVarOption.cpp

; 63   : 	int colwidthsType0[6] = { 90, 127};	// sixty-fourths

  0002e	c7 45 dc 7f 00
	00 00		 mov	 DWORD PTR _colwidthsType0$[ebp+4], 127 ; 0000007fH
; File C:\Program Files (x86)\Microsoft Visual Studio\2019\Community\VC\Tools\MSVC\14.29.30133\atlmfc\include\afxcmn2.inl

; 117  : 	{ ASSERT(::IsWindow(m_hWnd)); return (DWORD) ::SendMessage(m_hWnd, LVM_SETEXTENDEDLISTVIEWSTYLE, 0, (LPARAM) dwNewStyle); }

  00035	ff b7 f8 01 00
	00		 push	 DWORD PTR [edi+504]
; File D:\git\src\IBK\IBK_DRFN\ProjSrc\SrcDrfn\Chart\HWSTRATEGYCONFIGUREWIZARD\DlgSysVarOption.cpp

; 63   : 	int colwidthsType0[6] = { 90, 127};	// sixty-fourths

  0003b	0f 11 45 e0	 movups	 XMMWORD PTR _colwidthsType0$[ebp+8], xmm0

; 64   : 
; 65   : 	TCHAR *	lpszHeadersType0[] = {
; 66   : 		_T(""),

  0003f	c7 45 f0 00 00
	00 00		 mov	 DWORD PTR _lpszHeadersType0$[ebp], OFFSET ??_C@_06FIHLBNDD@?$LK?$KP?$LM?v?$LI?m@

; 67   : 			_T(""),

  00046	c7 45 f4 00 00
	00 00		 mov	 DWORD PTR _lpszHeadersType0$[ebp+4], OFFSET ??_C@_06OJFAJFEJ@?$LK?$KP?$LM?v?$LA?$KK@

; 68   : 			NULL };

  0004d	c7 45 f8 00 00
	00 00		 mov	 DWORD PTR _lpszHeadersType0$[ebp+8], 0
; File C:\Program Files (x86)\Microsoft Visual Studio\2019\Community\VC\Tools\MSVC\14.29.30133\atlmfc\include\afxcmn2.inl

; 117  : 	{ ASSERT(::IsWindow(m_hWnd)); return (DWORD) ::SendMessage(m_hWnd, LVM_SETEXTENDEDLISTVIEWSTYLE, 0, (LPARAM) dwNewStyle); }

  00054	ff d3		 call	 ebx
  00056	0f 57 c0	 xorps	 xmm0, xmm0
; File D:\git\src\IBK\IBK_DRFN\ProjSrc\SrcDrfn\Chart\HWSTRATEGYCONFIGUREWIZARD\DlgSysVarOption.cpp

; 74   : 		memset(&lvcolumn, 0, sizeof(lvcolumn));

  00059	c7 45 bc 00 00
	00 00		 mov	 DWORD PTR _lvcolumn$[ebp+16], 0

; 76   : 		for (i = 0; ; i++)

  00060	33 f6		 xor	 esi, esi
  00062	66 0f 13 45 c4	 movlpd	 QWORD PTR _lvcolumn$[ebp+24], xmm0
  00067	66 0f 13 45 cc	 movlpd	 QWORD PTR _lvcolumn$[ebp+32], xmm0
  0006c	b8 00 00 00 00	 mov	 eax, OFFSET ??_C@_06FIHLBNDD@?$LK?$KP?$LM?v?$LI?m@
  00071	c7 45 d4 00 00
	00 00		 mov	 DWORD PTR _lvcolumn$[ebp+40], 0
  00078	33 c9		 xor	 ecx, ecx
  0007a	66 0f 1f 44 00
	00		 npad	 6
$LL4@InitColumn:

; 82   : 			lvcolumn.pszText = lpszHeadersType0[i];

  00080	89 45 b8	 mov	 DWORD PTR _lvcolumn$[ebp+12], eax

; 84   : 			lvcolumn.cx = colwidthsType0[i];

  00083	8b 44 0d d8	 mov	 eax, DWORD PTR _colwidthsType0$[ebp+ecx]
  00087	89 45 b4	 mov	 DWORD PTR _lvcolumn$[ebp+8], eax
; File C:\Program Files (x86)\Microsoft Visual Studio\2019\Community\VC\Tools\MSVC\14.29.30133\atlmfc\include\afxcmn.inl

; 209  : 	{ ASSERT(::IsWindow(m_hWnd)); return (int) ::SendMessage(m_hWnd, LVM_INSERTCOLUMN, nCol, (LPARAM)pColumn); }

  0008a	8d 45 ac	 lea	 eax, DWORD PTR _lvcolumn$[ebp]
  0008d	50		 push	 eax
  0008e	56		 push	 esi
  0008f	68 1b 10 00 00	 push	 4123			; 0000101bH
  00094	ff b7 f8 01 00
	00		 push	 DWORD PTR [edi+504]
; File D:\git\src\IBK\IBK_DRFN\ProjSrc\SrcDrfn\Chart\HWSTRATEGYCONFIGUREWIZARD\DlgSysVarOption.cpp

; 80   : 			lvcolumn.mask = LVCF_FMT | LVCF_SUBITEM | LVCF_TEXT | LVCF_WIDTH;

  0009a	c7 45 ac 0f 00
	00 00		 mov	 DWORD PTR _lvcolumn$[ebp], 15 ; 0000000fH

; 81   : 			lvcolumn.fmt = LVCFMT_CENTER;

  000a1	c7 45 b0 02 00
	00 00		 mov	 DWORD PTR _lvcolumn$[ebp+4], 2

; 83   : 			lvcolumn.iSubItem = i;

  000a8	89 75 c0	 mov	 DWORD PTR _lvcolumn$[ebp+20], esi
; File C:\Program Files (x86)\Microsoft Visual Studio\2019\Community\VC\Tools\MSVC\14.29.30133\atlmfc\include\afxcmn.inl

; 209  : 	{ ASSERT(::IsWindow(m_hWnd)); return (int) ::SendMessage(m_hWnd, LVM_INSERTCOLUMN, nCol, (LPARAM)pColumn); }

  000ab	ff d3		 call	 ebx
; File D:\git\src\IBK\IBK_DRFN\ProjSrc\SrcDrfn\Chart\HWSTRATEGYCONFIGUREWIZARD\DlgSysVarOption.cpp

; 76   : 		for (i = 0; ; i++)

  000ad	46		 inc	 esi

; 77   : 		{
; 78   : 			if (lpszHeadersType0[i] == NULL)

  000ae	8d 0c b5 00 00
	00 00		 lea	 ecx, DWORD PTR [esi*4]
  000b5	8b 44 0d f0	 mov	 eax, DWORD PTR _lpszHeadersType0$[ebp+ecx]
  000b9	85 c0		 test	 eax, eax
  000bb	75 c3		 jne	 SHORT $LL4@InitColumn

; 85   : 			total_cx += lvcolumn.cx;
; 86   : 			m_InputList.InsertColumn(i, &lvcolumn);
; 87   : 		}
; 88   : 		// iterate through header items and attach the image list
; 89   : 		memset(&lvcolumn, 0, sizeof(lvcolumn));

  000bd	0f 57 c0	 xorps	 xmm0, xmm0
  000c0	89 45 bc	 mov	 DWORD PTR _lvcolumn$[ebp+16], eax
  000c3	66 0f 13 45 b4	 movlpd	 QWORD PTR _lvcolumn$[ebp+8], xmm0

; 91   : 		for (i = 0; ; i++)

  000c8	33 f6		 xor	 esi, esi
  000ca	66 0f 13 45 c4	 movlpd	 QWORD PTR _lvcolumn$[ebp+24], xmm0
  000cf	66 0f 13 45 cc	 movlpd	 QWORD PTR _lvcolumn$[ebp+32], xmm0
  000d4	89 45 d4	 mov	 DWORD PTR _lvcolumn$[ebp+40], eax
  000d7	66 0f 1f 84 00
	00 00 00 00	 npad	 9
$LL7@InitColumn:
; File C:\Program Files (x86)\Microsoft Visual Studio\2019\Community\VC\Tools\MSVC\14.29.30133\atlmfc\include\afxcmn.inl

; 207  : 	{ ASSERT(::IsWindow(m_hWnd)); return (BOOL) ::SendMessage(m_hWnd, LVM_SETCOLUMN, nCol, (LPARAM)pColumn); }

  000e0	8d 45 ac	 lea	 eax, DWORD PTR _lvcolumn$[ebp]
; File D:\git\src\IBK\IBK_DRFN\ProjSrc\SrcDrfn\Chart\HWSTRATEGYCONFIGUREWIZARD\DlgSysVarOption.cpp

; 95   : 			lvcolumn.mask = LVCF_FMT | LVCF_SUBITEM;

  000e3	c7 45 ac 09 00
	00 00		 mov	 DWORD PTR _lvcolumn$[ebp], 9
; File C:\Program Files (x86)\Microsoft Visual Studio\2019\Community\VC\Tools\MSVC\14.29.30133\atlmfc\include\afxcmn.inl

; 207  : 	{ ASSERT(::IsWindow(m_hWnd)); return (BOOL) ::SendMessage(m_hWnd, LVM_SETCOLUMN, nCol, (LPARAM)pColumn); }

  000ea	50		 push	 eax
  000eb	56		 push	 esi
  000ec	68 1a 10 00 00	 push	 4122			; 0000101aH
  000f1	ff b7 f8 01 00
	00		 push	 DWORD PTR [edi+504]
; File D:\git\src\IBK\IBK_DRFN\ProjSrc\SrcDrfn\Chart\HWSTRATEGYCONFIGUREWIZARD\DlgSysVarOption.cpp

; 96   : 			lvcolumn.fmt = LVCFMT_CENTER;

  000f7	c7 45 b0 02 00
	00 00		 mov	 DWORD PTR _lvcolumn$[ebp+4], 2

; 97   : 			lvcolumn.iSubItem = i;

  000fe	89 75 c0	 mov	 DWORD PTR _lvcolumn$[ebp+20], esi
; File C:\Program Files (x86)\Microsoft Visual Studio\2019\Community\VC\Tools\MSVC\14.29.30133\atlmfc\include\afxcmn.inl

; 207  : 	{ ASSERT(::IsWindow(m_hWnd)); return (BOOL) ::SendMessage(m_hWnd, LVM_SETCOLUMN, nCol, (LPARAM)pColumn); }

  00101	ff d3		 call	 ebx
; File D:\git\src\IBK\IBK_DRFN\ProjSrc\SrcDrfn\Chart\HWSTRATEGYCONFIGUREWIZARD\DlgSysVarOption.cpp

; 91   : 		for (i = 0; ; i++)

  00103	46		 inc	 esi

; 92   : 		{
; 93   : 			if (lpszHeadersType0[i] == NULL)

  00104	83 7c b5 f0 00	 cmp	 DWORD PTR _lpszHeadersType0$[ebp+esi*4], 0
  00109	75 d5		 jne	 SHORT $LL7@InitColumn

; 101  : }

  0010b	8b 4d fc	 mov	 ecx, DWORD PTR __$ArrayPad$[ebp]
; File D:\git\src\IBK\IBK_DRFN\ProjSrc\SrcDrfn\Chart\STConfigureDlg\Control\XListCtrl.h

; 176  : 		m_crHighLightText = m_crUsrHighLightText = crText;

  0010e	c7 87 68 03 00
	00 00 00 00 00	 mov	 DWORD PTR [edi+872], 0
; File D:\git\src\IBK\IBK_DRFN\ProjSrc\SrcDrfn\Chart\HWSTRATEGYCONFIGUREWIZARD\DlgSysVarOption.cpp

; 101  : }

  00118	33 cd		 xor	 ecx, ebp
; File D:\git\src\IBK\IBK_DRFN\ProjSrc\SrcDrfn\Chart\STConfigureDlg\Control\XListCtrl.h

; 176  : 		m_crHighLightText = m_crUsrHighLightText = crText;

  0011a	c7 87 58 03 00
	00 00 00 00 00	 mov	 DWORD PTR [edi+856], 0

; 177  : 		m_crHighLight = m_crUsrHighLight = crBackground;

  00124	c7 87 64 03 00
	00 d0 dd f0 00	 mov	 DWORD PTR [edi+868], 15785424 ; 00f0ddd0H
  0012e	c7 87 54 03 00
	00 d0 dd f0 00	 mov	 DWORD PTR [edi+852], 15785424 ; 00f0ddd0H
  00138	5f		 pop	 edi
  00139	5e		 pop	 esi
  0013a	5b		 pop	 ebx
; File D:\git\src\IBK\IBK_DRFN\ProjSrc\SrcDrfn\Chart\HWSTRATEGYCONFIGUREWIZARD\DlgSysVarOption.cpp

; 101  : }

  0013b	e8 00 00 00 00	 call	 @__security_check_cookie@4
  00140	8b e5		 mov	 esp, ebp
  00142	5d		 pop	 ebp
  00143	c3		 ret	 0
?InitColumn@CDlgSysVarOption@@QAEXXZ ENDP		; CDlgSysVarOption::InitColumn
_TEXT	ENDS
; Function compile flags: /Ogtp
; File D:\git\src\IBK\IBK_DRFN\ProjSrc\SrcDrfn\Chart\HWSTRATEGYCONFIGUREWIZARD\DlgSysVarOption.cpp
;	COMDAT ??0CDlgSysVarOption@@QAE@PAVCWnd@@@Z
_TEXT	SEGMENT
_this$ = -16						; size = 4
__$EHRec$ = -12						; size = 12
_pParent$ = 8						; size = 4
??0CDlgSysVarOption@@QAE@PAVCWnd@@@Z PROC		; CDlgSysVarOption::CDlgSysVarOption, COMDAT
; _this$ = ecx

; 20   : {

  00000	55		 push	 ebp
  00001	8b ec		 mov	 ebp, esp
  00003	6a ff		 push	 -1
  00005	68 00 00 00 00	 push	 __ehhandler$??0CDlgSysVarOption@@QAE@PAVCWnd@@@Z
  0000a	64 a1 00 00 00
	00		 mov	 eax, DWORD PTR fs:0
  00010	50		 push	 eax
  00011	51		 push	 ecx
  00012	56		 push	 esi
  00013	a1 00 00 00 00	 mov	 eax, DWORD PTR ___security_cookie
  00018	33 c5		 xor	 eax, ebp
  0001a	50		 push	 eax
  0001b	8d 45 f4	 lea	 eax, DWORD PTR __$EHRec$[ebp]
  0001e	64 a3 00 00 00
	00		 mov	 DWORD PTR fs:0, eax
  00024	8b f1		 mov	 esi, ecx
  00026	89 75 f0	 mov	 DWORD PTR _this$[ebp], esi

; 19   : 	: CDialog(CDlgSysVarOption::IDD, pParent)

  00029	ff 75 08	 push	 DWORD PTR _pParent$[ebp]
  0002c	68 27 04 00 00	 push	 1063			; 00000427H
  00031	e8 00 00 00 00	 call	 ??0CDialog@@QAE@IPAVCWnd@@@Z ; CDialog::CDialog

; 20   : {

  00036	8d 8e ac 00 00
	00		 lea	 ecx, DWORD PTR [esi+172]
  0003c	c7 45 fc 00 00
	00 00		 mov	 DWORD PTR __$EHRec$[ebp+8], 0
  00043	c7 06 00 00 00
	00		 mov	 DWORD PTR [esi], OFFSET ??_7CDlgSysVarOption@@6B@
  00049	ff 15 00 00 00
	00		 call	 DWORD PTR __imp_??0?$CStringT@DV?$StrTraitMFC_DLL@DV?$ChTraitsCRT@D@ATL@@@@@ATL@@QAE@XZ
  0004f	8d 8e b0 00 00
	00		 lea	 ecx, DWORD PTR [esi+176]
  00055	ff 15 00 00 00
	00		 call	 DWORD PTR __imp_??0?$CStringT@DV?$StrTraitMFC_DLL@DV?$ChTraitsCRT@D@ATL@@@@@ATL@@QAE@XZ
  0005b	8d 8e b8 00 00
	00		 lea	 ecx, DWORD PTR [esi+184]
  00061	c6 45 fc 02	 mov	 BYTE PTR __$EHRec$[ebp+8], 2
  00065	e8 00 00 00 00	 call	 ??0CColorButton@@QAE@XZ	; CColorButton::CColorButton
  0006a	8d 8e 48 01 00
	00		 lea	 ecx, DWORD PTR [esi+328]
  00070	c6 45 fc 03	 mov	 BYTE PTR __$EHRec$[ebp+8], 3
  00074	e8 00 00 00 00	 call	 ??0CColorButton@@QAE@XZ	; CColorButton::CColorButton
  00079	8d 8e d8 01 00
	00		 lea	 ecx, DWORD PTR [esi+472]
  0007f	c6 45 fc 04	 mov	 BYTE PTR __$EHRec$[ebp+8], 4
  00083	e8 00 00 00 00	 call	 ??0CXListCtrl@@QAE@XZ	; CXListCtrl::CXListCtrl

; 21   : 	//{{AFX_DATA_INIT(CDlgSysVarOption)
; 22   : 		// NOTE: the ClassWizard will add member initialization here
; 23   : 	//}}AFX_DATA_INIT
; 24   : 
; 25   : 	m_pInputList = NULL;

  00088	c7 86 a8 00 00
	00 00 00 00 00	 mov	 DWORD PTR [esi+168], 0

; 26   : }

  00092	8b c6		 mov	 eax, esi
  00094	8b 4d f4	 mov	 ecx, DWORD PTR __$EHRec$[ebp]
  00097	64 89 0d 00 00
	00 00		 mov	 DWORD PTR fs:0, ecx
  0009e	59		 pop	 ecx
  0009f	5e		 pop	 esi
  000a0	8b e5		 mov	 esp, ebp
  000a2	5d		 pop	 ebp
  000a3	c2 04 00	 ret	 4
_TEXT	ENDS
;	COMDAT text$x
text$x	SEGMENT
__unwindfunclet$??0CDlgSysVarOption@@QAE@PAVCWnd@@@Z$0:
  00000	8b 4d f0	 mov	 ecx, DWORD PTR _this$[ebp]
  00003	e9 00 00 00 00	 jmp	 ??1CDialog@@UAE@XZ	; CDialog::~CDialog
__unwindfunclet$??0CDlgSysVarOption@@QAE@PAVCWnd@@@Z$1:
  00008	8b 4d f0	 mov	 ecx, DWORD PTR _this$[ebp]
  0000b	81 c1 ac 00 00
	00		 add	 ecx, 172		; 000000acH
  00011	ff 25 00 00 00
	00		 jmp	 DWORD PTR __imp_??1?$CStringT@DV?$StrTraitMFC_DLL@DV?$ChTraitsCRT@D@ATL@@@@@ATL@@QAE@XZ
__unwindfunclet$??0CDlgSysVarOption@@QAE@PAVCWnd@@@Z$2:
  00017	8b 4d f0	 mov	 ecx, DWORD PTR _this$[ebp]
  0001a	81 c1 b0 00 00
	00		 add	 ecx, 176		; 000000b0H
  00020	ff 25 00 00 00
	00		 jmp	 DWORD PTR __imp_??1?$CStringT@DV?$StrTraitMFC_DLL@DV?$ChTraitsCRT@D@ATL@@@@@ATL@@QAE@XZ
__unwindfunclet$??0CDlgSysVarOption@@QAE@PAVCWnd@@@Z$3:
  00026	8b 4d f0	 mov	 ecx, DWORD PTR _this$[ebp]
  00029	81 c1 b8 00 00
	00		 add	 ecx, 184		; 000000b8H
  0002f	e9 00 00 00 00	 jmp	 ??1CColorButton@@UAE@XZ	; CColorButton::~CColorButton
__unwindfunclet$??0CDlgSysVarOption@@QAE@PAVCWnd@@@Z$4:
  00034	8b 4d f0	 mov	 ecx, DWORD PTR _this$[ebp]
  00037	81 c1 48 01 00
	00		 add	 ecx, 328		; 00000148H
  0003d	e9 00 00 00 00	 jmp	 ??1CColorButton@@UAE@XZ	; CColorButton::~CColorButton
  00042	cc		 int	 3
  00043	cc		 int	 3
  00044	cc		 int	 3
  00045	cc		 int	 3
  00046	cc		 int	 3
__ehhandler$??0CDlgSysVarOption@@QAE@PAVCWnd@@@Z:
  00047	90		 npad	 1
  00048	90		 npad	 1
  00049	8b 54 24 08	 mov	 edx, DWORD PTR [esp+8]
  0004d	8d 42 0c	 lea	 eax, DWORD PTR [edx+12]
  00050	8b 4a f4	 mov	 ecx, DWORD PTR [edx-12]
  00053	33 c8		 xor	 ecx, eax
  00055	e8 00 00 00 00	 call	 @__security_check_cookie@4
  0005a	b8 00 00 00 00	 mov	 eax, OFFSET __ehfuncinfo$??0CDlgSysVarOption@@QAE@PAVCWnd@@@Z
  0005f	e9 00 00 00 00	 jmp	 ___CxxFrameHandler3
text$x	ENDS
??0CDlgSysVarOption@@QAE@PAVCWnd@@@Z ENDP		; CDlgSysVarOption::CDlgSysVarOption
; Function compile flags: /Ogtp
; File C:\Program Files (x86)\Microsoft Visual Studio\2019\Community\VC\Tools\MSVC\14.29.30133\atlmfc\include\afxdlgs.h
;	COMDAT ??1CColorDialog@@UAE@XZ
_TEXT	SEGMENT
??1CColorDialog@@UAE@XZ PROC				; CColorDialog::~CColorDialog, COMDAT
; _this$ = ecx

; 110  :     virtual ~CCommonDialog() {};

  00000	c7 01 00 00 00
	00		 mov	 DWORD PTR [ecx], OFFSET ??_7CCommonDialog@@6B@
  00006	e9 00 00 00 00	 jmp	 ??1CDialog@@UAE@XZ	; CDialog::~CDialog
??1CColorDialog@@UAE@XZ ENDP				; CColorDialog::~CColorDialog
_TEXT	ENDS
; Function compile flags: /Ogtp
; File C:\Program Files (x86)\Microsoft Visual Studio\2019\Community\VC\Tools\MSVC\14.29.30133\atlmfc\include\afxdlgs.h
; File C:\Program Files (x86)\Microsoft Visual Studio\2019\Community\VC\Tools\MSVC\14.29.30133\atlmfc\include\afx.inl
;	COMDAT ??_GCCommonDialog@@UAEPAXI@Z
_TEXT	SEGMENT
___flags$ = 8						; size = 4
??_GCCommonDialog@@UAEPAXI@Z PROC			; CCommonDialog::`scalar deleting destructor', COMDAT
; _this$ = ecx
  00000	55		 push	 ebp
  00001	8b ec		 mov	 ebp, esp
; File C:\Program Files (x86)\Microsoft Visual Studio\2019\Community\VC\Tools\MSVC\14.29.30133\atlmfc\include\afxdlgs.h

; 110  :     virtual ~CCommonDialog() {};

  00003	56		 push	 esi
  00004	8b f1		 mov	 esi, ecx
  00006	c7 06 00 00 00
	00		 mov	 DWORD PTR [esi], OFFSET ??_7CCommonDialog@@6B@
  0000c	e8 00 00 00 00	 call	 ??1CDialog@@UAE@XZ	; CDialog::~CDialog
  00011	8b 45 08	 mov	 eax, DWORD PTR ___flags$[ebp]
  00014	a8 01		 test	 al, 1
  00016	74 22		 je	 SHORT $LN12@scalar
  00018	a8 04		 test	 al, 4
  0001a	75 10		 jne	 SHORT $LN3@scalar
; File C:\Program Files (x86)\Microsoft Visual Studio\2019\Community\VC\Tools\MSVC\14.29.30133\atlmfc\include\afx.inl

; 112  : 	{ ::operator delete(p); }

  0001c	56		 push	 esi
  0001d	e8 00 00 00 00	 call	 ??3@YAXPAX@Z		; operator delete
  00022	83 c4 04	 add	 esp, 4
  00025	8b c6		 mov	 eax, esi
  00027	5e		 pop	 esi
  00028	5d		 pop	 ebp
  00029	c2 04 00	 ret	 4
$LN3@scalar:
  0002c	68 a8 00 00 00	 push	 168			; 000000a8H
  00031	56		 push	 esi
  00032	e8 00 00 00 00	 call	 ?__global_delete@@YAXPAXI@Z ; __global_delete
  00037	83 c4 08	 add	 esp, 8
$LN12@scalar:
  0003a	8b c6		 mov	 eax, esi
  0003c	5e		 pop	 esi
  0003d	5d		 pop	 ebp
  0003e	c2 04 00	 ret	 4
??_GCCommonDialog@@UAEPAXI@Z ENDP			; CCommonDialog::`scalar deleting destructor'
_TEXT	ENDS
; Function compile flags: /Ogtp
; File C:\Program Files (x86)\Microsoft Visual Studio\2019\Community\VC\Tools\MSVC\14.29.30133\atlmfc\include\afxdlgs.h
;	COMDAT ??1CCommonDialog@@UAE@XZ
_TEXT	SEGMENT
??1CCommonDialog@@UAE@XZ PROC				; CCommonDialog::~CCommonDialog, COMDAT
; _this$ = ecx

; 110  :     virtual ~CCommonDialog() {};

  00000	c7 01 00 00 00
	00		 mov	 DWORD PTR [ecx], OFFSET ??_7CCommonDialog@@6B@
  00006	e9 00 00 00 00	 jmp	 ??1CDialog@@UAE@XZ	; CDialog::~CDialog
??1CCommonDialog@@UAE@XZ ENDP				; CCommonDialog::~CCommonDialog
_TEXT	ENDS
; Function compile flags: /Ogtp
; File C:\Program Files (x86)\Microsoft Visual Studio\2019\Community\VC\Tools\MSVC\14.29.30133\atlmfc\include\afxwin2.inl
;	COMDAT ?Create@CDialog@@UAEHIPAVCWnd@@@Z
_TEXT	SEGMENT
_nIDTemplate$ = 8					; size = 4
_pParentWnd$ = 12					; size = 4
?Create@CDialog@@UAEHIPAVCWnd@@@Z PROC			; CDialog::Create, COMDAT
; _this$ = ecx

; 585  : 	{ return CDialog::Create(ATL_MAKEINTRESOURCE(nIDTemplate), pParentWnd); }

  00000	55		 push	 ebp
  00001	8b ec		 mov	 ebp, esp
  00003	0f b7 45 08	 movzx	 eax, WORD PTR _nIDTemplate$[ebp]
  00007	89 45 08	 mov	 DWORD PTR _nIDTemplate$[ebp], eax
  0000a	5d		 pop	 ebp
  0000b	e9 00 00 00 00	 jmp	 ?Create@CDialog@@UAEHPBDPAVCWnd@@@Z ; CDialog::Create
?Create@CDialog@@UAEHIPAVCWnd@@@Z ENDP			; CDialog::Create
_TEXT	ENDS
; Function compile flags: /Ogtp
; File C:\Program Files (x86)\Microsoft Visual Studio\2019\Community\VC\Tools\MSVC\14.29.30133\atlmfc\include\afxwin2.inl
;	COMDAT ?EndModalState@CWnd@@UAEXXZ
_TEXT	SEGMENT
?EndModalState@CWnd@@UAEXXZ PROC			; CWnd::EndModalState, COMDAT
; _this$ = ecx

; 567  : 	{ ::EnableWindow(m_hWnd, TRUE); }

  00000	6a 01		 push	 1
  00002	ff 71 20	 push	 DWORD PTR [ecx+32]
  00005	ff 15 00 00 00
	00		 call	 DWORD PTR __imp__EnableWindow@8
  0000b	c3		 ret	 0
?EndModalState@CWnd@@UAEXXZ ENDP			; CWnd::EndModalState
_TEXT	ENDS
; Function compile flags: /Ogtp
; File C:\Program Files (x86)\Microsoft Visual Studio\2019\Community\VC\Tools\MSVC\14.29.30133\atlmfc\include\afxwin2.inl
;	COMDAT ?BeginModalState@CWnd@@UAEXXZ
_TEXT	SEGMENT
?BeginModalState@CWnd@@UAEXXZ PROC			; CWnd::BeginModalState, COMDAT
; _this$ = ecx

; 565  : 	{ ::EnableWindow(m_hWnd, FALSE); }

  00000	6a 00		 push	 0
  00002	ff 71 20	 push	 DWORD PTR [ecx+32]
  00005	ff 15 00 00 00
	00		 call	 DWORD PTR __imp__EnableWindow@8
  0000b	c3		 ret	 0
?BeginModalState@CWnd@@UAEXXZ ENDP			; CWnd::BeginModalState
_TEXT	ENDS
; Function compile flags: /Ogtp
; File C:\Program Files (x86)\Microsoft Visual Studio\2019\Community\VC\Tools\MSVC\14.29.30133\atlmfc\include\afxwin2.inl
;	COMDAT ?DoDataExchange@CWnd@@MAEXPAVCDataExchange@@@Z
_TEXT	SEGMENT
___formal$ = 8						; size = 4
?DoDataExchange@CWnd@@MAEXPAVCDataExchange@@@Z PROC	; CWnd::DoDataExchange, COMDAT
; _this$ = ecx

; 561  : 	{ } // default does nothing

  00000	c2 04 00	 ret	 4
?DoDataExchange@CWnd@@MAEXPAVCDataExchange@@@Z ENDP	; CWnd::DoDataExchange
_TEXT	ENDS
; Function compile flags: /Ogtp
; File C:\Program Files (x86)\Microsoft Visual Studio\2019\Community\VC\Tools\MSVC\14.29.30133\atlmfc\include\afx.inl
;	COMDAT ?Dump@CObject@@UBEXAAVCDumpContext@@@Z
_TEXT	SEGMENT
___formal$ = 8						; size = 4
?Dump@CObject@@UBEXAAVCDumpContext@@@Z PROC		; CObject::Dump, COMDAT
; _this$ = ecx

; 122  : 	{ /* no dumping in release builds */ }

  00000	c2 04 00	 ret	 4
?Dump@CObject@@UBEXAAVCDumpContext@@@Z ENDP		; CObject::Dump
_TEXT	ENDS
; Function compile flags: /Ogtp
; File C:\Program Files (x86)\Microsoft Visual Studio\2019\Community\VC\Tools\MSVC\14.29.30133\atlmfc\include\afx.inl
;	COMDAT ?AssertValid@CObject@@UBEXXZ
_TEXT	SEGMENT
?AssertValid@CObject@@UBEXXZ PROC			; CObject::AssertValid, COMDAT
; _this$ = ecx

; 120  : 	{ /* no asserts in release builds */ }

  00000	c2 00 00	 ret	 0
?AssertValid@CObject@@UBEXXZ ENDP			; CObject::AssertValid
_TEXT	ENDS
; Function compile flags: /Ogtp
; File C:\Program Files (x86)\Microsoft Visual Studio\2019\Community\VC\Tools\MSVC\14.29.30133\atlmfc\include\afx.inl
;	COMDAT ?Serialize@CObject@@UAEXAAVCArchive@@@Z
_TEXT	SEGMENT
___formal$ = 8						; size = 4
?Serialize@CObject@@UAEXAAVCArchive@@@Z PROC		; CObject::Serialize, COMDAT
; _this$ = ecx

; 106  : 	{ /* CObject does not serialize anything by default */ }

  00000	c2 04 00	 ret	 4
?Serialize@CObject@@UAEXAAVCArchive@@@Z ENDP		; CObject::Serialize
_TEXT	ENDS
; Function compile flags: /Ogtp
; File D:\git\src\IBK\IBK_DRFN\ProjSrc\SrcDrfn\Chart\HWSTRATEGYCONFIGUREWIZARD\DlgSysVarOption.cpp
;	COMDAT ?__empty_global_delete@@YAXPAXI@Z
_TEXT	SEGMENT
___formal$ = 8						; size = 4
___formal$ = 12						; size = 4
?__empty_global_delete@@YAXPAXI@Z PROC			; __empty_global_delete, COMDAT

  00000	c2 00 00	 ret	 0
?__empty_global_delete@@YAXPAXI@Z ENDP			; __empty_global_delete
_TEXT	ENDS
; Function compile flags: /Ogtp
; File D:\git\src\IBK\IBK_DRFN\ProjSrc\SrcDrfn\Chart\HWSTRATEGYCONFIGUREWIZARD\DlgSysVarOption.cpp
;	COMDAT ?__empty_global_delete@@YAXPAX@Z
_TEXT	SEGMENT
___formal$ = 8						; size = 4
?__empty_global_delete@@YAXPAX@Z PROC			; __empty_global_delete, COMDAT

  00000	c2 00 00	 ret	 0
?__empty_global_delete@@YAXPAX@Z ENDP			; __empty_global_delete
_TEXT	ENDS
END
