; Listing generated by Microsoft (R) Optimizing Compiler Version 19.29.30145.0 

	TITLE	D:\git\src\IBK\IBK_DRFN\#DRfn-CS\_Obj\HWStrategyConfigureWizard\DlgStrategyList.obj
	.686P
	.XMM
	include listing.inc
	.model	flat

INCLUDELIB MSVCRT
INCLUDELIB OLDNAMES

PUBLIC	??_C@_0BK@FBLMOCPF@RMSG_FORMINITIALCOMPLETED@	; `string'
PUBLIC	??_C@_0BF@JNMMFBNP@RMSG_EVENT_CODEINPUT@	; `string'
PUBLIC	??_C@_0BF@LEGBOMJF@RMSG_EVENT_ACCTINPUT@	; `string'
PUBLIC	??_C@_0BF@FABJBMLM@RMSG_EVENT_SPININPUT@	; `string'
PUBLIC	??_C@_0BC@PGMEIMOI@RMSG_EVENT_SIGNAL@		; `string'
PUBLIC	??_C@_0BF@FPLDPAEH@RMSG_FORMSTATECHANGE@	; `string'
PUBLIC	??_C@_0N@IMGBDGND@RMSG_TABSTOP@			; `string'
PUBLIC	??_C@_0BC@MMIGKJED@RMSG_LBTNDBLCLICK@		; `string'
PUBLIC	??_C@_0O@DGNCFOOP@RMSG_LBTNDOWN@		; `string'
PUBLIC	??_C@_0BC@EMMLKNDL@RMSG_ENDSCROLLPOS@		; `string'
PUBLIC	??_C@_0BE@IEJDDJPC@RMSG_LSHAREDCHANGED@		; `string'
PUBLIC	??_C@_0BF@PGCFFKKJ@RMSG_STCONFIGURENAME@	; `string'
PUBLIC	??_C@_0BK@NEGNKIAO@RMSG_STCONTROLLER_POINTER@	; `string'
PUBLIC	??_C@_0BE@ODKFPHJE@RMSG_STSAVETOUSERST@		; `string'
PUBLIC	??_C@_0P@BKKCOCLK@RMSG_INTERFACE@		; `string'
;	COMDAT ??_C@_0P@BKKCOCLK@RMSG_INTERFACE@
CONST	SEGMENT
??_C@_0P@BKKCOCLK@RMSG_INTERFACE@ DB 'RMSG_INTERFACE', 00H ; `string'
CONST	ENDS
;	COMDAT ??_C@_0BE@ODKFPHJE@RMSG_STSAVETOUSERST@
CONST	SEGMENT
??_C@_0BE@ODKFPHJE@RMSG_STSAVETOUSERST@ DB 'RMSG_STSAVETOUSERST', 00H ; `string'
CONST	ENDS
;	COMDAT ??_C@_0BK@NEGNKIAO@RMSG_STCONTROLLER_POINTER@
CONST	SEGMENT
??_C@_0BK@NEGNKIAO@RMSG_STCONTROLLER_POINTER@ DB 'RMSG_STCONTROLLER_POINT'
	DB	'ER', 00H					; `string'
CONST	ENDS
;	COMDAT ??_C@_0BF@PGCFFKKJ@RMSG_STCONFIGURENAME@
CONST	SEGMENT
??_C@_0BF@PGCFFKKJ@RMSG_STCONFIGURENAME@ DB 'RMSG_STCONFIGURENAME', 00H ; `string'
CONST	ENDS
;	COMDAT ??_C@_0BE@IEJDDJPC@RMSG_LSHAREDCHANGED@
CONST	SEGMENT
??_C@_0BE@IEJDDJPC@RMSG_LSHAREDCHANGED@ DB 'RMSG_LSHAREDCHANGED', 00H ; `string'
CONST	ENDS
;	COMDAT ??_C@_0BC@EMMLKNDL@RMSG_ENDSCROLLPOS@
CONST	SEGMENT
??_C@_0BC@EMMLKNDL@RMSG_ENDSCROLLPOS@ DB 'RMSG_ENDSCROLLPOS', 00H ; `string'
CONST	ENDS
;	COMDAT ??_C@_0O@DGNCFOOP@RMSG_LBTNDOWN@
CONST	SEGMENT
??_C@_0O@DGNCFOOP@RMSG_LBTNDOWN@ DB 'RMSG_LBTNDOWN', 00H ; `string'
CONST	ENDS
;	COMDAT ??_C@_0BC@MMIGKJED@RMSG_LBTNDBLCLICK@
CONST	SEGMENT
??_C@_0BC@MMIGKJED@RMSG_LBTNDBLCLICK@ DB 'RMSG_LBTNDBLCLICK', 00H ; `string'
CONST	ENDS
;	COMDAT ??_C@_0N@IMGBDGND@RMSG_TABSTOP@
CONST	SEGMENT
??_C@_0N@IMGBDGND@RMSG_TABSTOP@ DB 'RMSG_TABSTOP', 00H	; `string'
CONST	ENDS
;	COMDAT ??_C@_0BF@FPLDPAEH@RMSG_FORMSTATECHANGE@
CONST	SEGMENT
??_C@_0BF@FPLDPAEH@RMSG_FORMSTATECHANGE@ DB 'RMSG_FORMSTATECHANGE', 00H ; `string'
CONST	ENDS
;	COMDAT ??_C@_0BC@PGMEIMOI@RMSG_EVENT_SIGNAL@
CONST	SEGMENT
??_C@_0BC@PGMEIMOI@RMSG_EVENT_SIGNAL@ DB 'RMSG_EVENT_SIGNAL', 00H ; `string'
CONST	ENDS
;	COMDAT ??_C@_0BF@FABJBMLM@RMSG_EVENT_SPININPUT@
CONST	SEGMENT
??_C@_0BF@FABJBMLM@RMSG_EVENT_SPININPUT@ DB 'RMSG_EVENT_SPININPUT', 00H ; `string'
CONST	ENDS
;	COMDAT ??_C@_0BF@LEGBOMJF@RMSG_EVENT_ACCTINPUT@
CONST	SEGMENT
??_C@_0BF@LEGBOMJF@RMSG_EVENT_ACCTINPUT@ DB 'RMSG_EVENT_ACCTINPUT', 00H ; `string'
CONST	ENDS
;	COMDAT ??_C@_0BF@JNMMFBNP@RMSG_EVENT_CODEINPUT@
CONST	SEGMENT
??_C@_0BF@JNMMFBNP@RMSG_EVENT_CODEINPUT@ DB 'RMSG_EVENT_CODEINPUT', 00H ; `string'
CONST	ENDS
;	COMDAT ??_C@_0BK@FBLMOCPF@RMSG_FORMINITIALCOMPLETED@
CONST	SEGMENT
??_C@_0BK@FBLMOCPF@RMSG_FORMINITIALCOMPLETED@ DB 'RMSG_FORMINITIALCOMPLET'
	DB	'ED', 00H					; `string'
CONST	ENDS
PUBLIC	??_H@YGXPAXIIP6EPAX0@Z@Z			; `vector constructor iterator'
PUBLIC	?__empty_global_delete@@YAXPAX@Z		; __empty_global_delete
PUBLIC	?__empty_global_delete@@YAXPAXI@Z		; __empty_global_delete
PUBLIC	___local_stdio_scanf_options
PUBLIC	_sscanf
PUBLIC	??1CObject@@UAE@XZ				; CObject::~CObject
PUBLIC	?Serialize@CObject@@UAEXAAVCArchive@@@Z		; CObject::Serialize
PUBLIC	?AssertValid@CObject@@UBEXXZ			; CObject::AssertValid
PUBLIC	?Dump@CObject@@UBEXAAVCDumpContext@@@Z		; CObject::Dump
PUBLIC	??HATL@@YA?AV?$CStringT@DV?$StrTraitMFC_DLL@DV?$ChTraitsCRT@D@ATL@@@@@0@ABV10@PBD@Z ; ATL::operator+
PUBLIC	??1CGdiObject@@UAE@XZ				; CGdiObject::~CGdiObject
PUBLIC	??_GCGdiObject@@UAEPAXI@Z			; CGdiObject::`scalar deleting destructor'
PUBLIC	??1CBrush@@UAE@XZ				; CBrush::~CBrush
PUBLIC	??_GCBrush@@UAEPAXI@Z				; CBrush::`scalar deleting destructor'
PUBLIC	??1CFont@@UAE@XZ				; CFont::~CFont
PUBLIC	??_GCFont@@UAEPAXI@Z				; CFont::`scalar deleting destructor'
PUBLIC	?DoDataExchange@CWnd@@MAEXPAVCDataExchange@@@Z	; CWnd::DoDataExchange
PUBLIC	?BeginModalState@CWnd@@UAEXXZ			; CWnd::BeginModalState
PUBLIC	?EndModalState@CWnd@@UAEXXZ			; CWnd::EndModalState
PUBLIC	?Create@CDialog@@UAEHIPAVCWnd@@@Z		; CDialog::Create
PUBLIC	??_GCStatic@@UAEPAXI@Z				; CStatic::`scalar deleting destructor'
PUBLIC	??1_GV_ITEM@@QAE@XZ				; _GV_ITEM::~_GV_ITEM
PUBLIC	??0CDlgStrategyList@@QAE@PAVCWnd@@@Z		; CDlgStrategyList::CDlgStrategyList
PUBLIC	?ResizeAll@CDlgStrategyList@@QAEXXZ		; CDlgStrategyList::ResizeAll
PUBLIC	?PreTranslateMessage@CDlgStrategyList@@UAEHPAUtagMSG@@@Z ; CDlgStrategyList::PreTranslateMessage
PUBLIC	?DoDataExchange@CDlgStrategyList@@MAEXPAVCDataExchange@@@Z ; CDlgStrategyList::DoDataExchange
PUBLIC	?WindowProc@CDlgStrategyList@@MAEJIIJ@Z		; CDlgStrategyList::WindowProc
PUBLIC	?OnNotify@CDlgStrategyList@@MAEHIJPAJ@Z		; CDlgStrategyList::OnNotify
PUBLIC	?InitSTOption@CDlgStrategyList@@QAEXXZ		; CDlgStrategyList::InitSTOption
PUBLIC	?NotifySTChangeState@CDlgStrategyList@@QAEXHPBD@Z ; CDlgStrategyList::NotifySTChangeState
PUBLIC	?GetGridSTRowCount@CDlgStrategyList@@QAEHXZ	; CDlgStrategyList::GetGridSTRowCount
PUBLIC	?OnClickGridSTList@CDlgStrategyList@@QAEXHH@Z	; CDlgStrategyList::OnClickGridSTList
PUBLIC	?InitGrid@CDlgStrategyList@@IAEXXZ		; CDlgStrategyList::InitGrid
PUBLIC	?GetRect@CDlgStrategyList@@IAE?AVCRect@@H@Z	; CDlgStrategyList::GetRect
PUBLIC	?AddRowData@CDlgStrategyList@@IAEHV?$CStringT@DV?$StrTraitMFC_DLL@DV?$ChTraitsCRT@D@ATL@@@@@ATL@@PBDHH@Z ; CDlgStrategyList::AddRowData
PUBLIC	?LoadST@CDlgStrategyList@@IAEXJ@Z		; CDlgStrategyList::LoadST
PUBLIC	?GetNewSTPosNo@CDlgStrategyList@@IAEHXZ		; CDlgStrategyList::GetNewSTPosNo
PUBLIC	?DeleteAllItem@CDlgStrategyList@@IAEHXZ		; CDlgStrategyList::DeleteAllItem
PUBLIC	?SaveST@CDlgStrategyList@@IAEXPBDH@Z		; CDlgStrategyList::SaveST
PUBLIC	?CheckFileSave@CDlgStrategyList@@IAEHHAAV?$CStringT@DV?$StrTraitMFC_DLL@DV?$ChTraitsCRT@D@ATL@@@@@ATL@@@Z ; CDlgStrategyList::CheckFileSave
PUBLIC	?SaveVariable@CDlgStrategyList@@IAEXAAV?$CStringT@DV?$StrTraitMFC_DLL@DV?$ChTraitsCRT@D@ATL@@@@@ATL@@HPBD@Z ; CDlgStrategyList::SaveVariable
PUBLIC	?InputModify@CDlgStrategyList@@IAEXHAAV?$CStringT@DV?$StrTraitMFC_DLL@DV?$ChTraitsCRT@D@ATL@@@@@ATL@@@Z ; CDlgStrategyList::InputModify
PUBLIC	?SaveRunTempFile@CDlgStrategyList@@IAEHXZ	; CDlgStrategyList::SaveRunTempFile
PUBLIC	?InitColumn@CDlgStrategyList@@IAEXXZ		; CDlgStrategyList::InitColumn
PUBLIC	?OnInitDialog@CDlgStrategyList@@MAEHXZ		; CDlgStrategyList::OnInitDialog
PUBLIC	?OnTimer@CDlgStrategyList@@IAEXI@Z		; CDlgStrategyList::OnTimer
PUBLIC	?OnSize@CDlgStrategyList@@IAEXIHH@Z		; CDlgStrategyList::OnSize
PUBLIC	?OnDestroy@CDlgStrategyList@@IAEXXZ		; CDlgStrategyList::OnDestroy
PUBLIC	?OnBtnInit@CDlgStrategyList@@IAEXXZ		; CDlgStrategyList::OnBtnInit
PUBLIC	?OnBtnDown@CDlgStrategyList@@IAEXXZ		; CDlgStrategyList::OnBtnDown
PUBLIC	?OnBtnUp@CDlgStrategyList@@IAEXXZ		; CDlgStrategyList::OnBtnUp
PUBLIC	?OnBtnAnd@CDlgStrategyList@@IAEXXZ		; CDlgStrategyList::OnBtnAnd
PUBLIC	?OnBtnOr@CDlgStrategyList@@IAEXXZ		; CDlgStrategyList::OnBtnOr
PUBLIC	?OnBtnNext@CDlgStrategyList@@IAEXXZ		; CDlgStrategyList::OnBtnNext
PUBLIC	?OnBtnNot@CDlgStrategyList@@IAEXXZ		; CDlgStrategyList::OnBtnNot
PUBLIC	?OnBtnTrue@CDlgStrategyList@@IAEXXZ		; CDlgStrategyList::OnBtnTrue
PUBLIC	?OnBtnParenthesis@CDlgStrategyList@@IAEXXZ	; CDlgStrategyList::OnBtnParenthesis
PUBLIC	?OnBtnX@CDlgStrategyList@@IAEXXZ		; CDlgStrategyList::OnBtnX
PUBLIC	?OnBtSave@CDlgStrategyList@@IAEXXZ		; CDlgStrategyList::OnBtSave
PUBLIC	?OnBtnDelete@CDlgStrategyList@@IAEXXZ		; CDlgStrategyList::OnBtnDelete
PUBLIC	?OnBtnEdit@CDlgStrategyList@@IAEXXZ		; CDlgStrategyList::OnBtnEdit
PUBLIC	?OnCtlColor@CDlgStrategyList@@IAEPAUHBRUSH__@@PAVCDC@@PAVCWnd@@I@Z ; CDlgStrategyList::OnCtlColor
PUBLIC	?OnBtnSTDelete@CDlgStrategyList@@IAEXXZ		; CDlgStrategyList::OnBtnSTDelete
PUBLIC	?OnBnClickedSTConfigDlg@CDlgStrategyList@@IAEXXZ ; CDlgStrategyList::OnBnClickedSTConfigDlg
PUBLIC	?OnBnClickedSTClose@CDlgStrategyList@@IAEXXZ	; CDlgStrategyList::OnBnClickedSTClose
PUBLIC	?OnBnClickedSTRun@CDlgStrategyList@@IAEXXZ	; CDlgStrategyList::OnBnClickedSTRun
PUBLIC	?OnSTController@CDlgStrategyList@@IAEJIJ@Z	; CDlgStrategyList::OnSTController
PUBLIC	?OnUpdateSTSfg@CDlgStrategyList@@IAEJIJ@Z	; CDlgStrategyList::OnUpdateSTSfg
PUBLIC	?OnSaveToUserST@CDlgStrategyList@@IAEJIJ@Z	; CDlgStrategyList::OnSaveToUserST
PUBLIC	?GetThisMessageMap@CDlgStrategyList@@KGPBUAFX_MSGMAP@@XZ ; CDlgStrategyList::GetThisMessageMap
PUBLIC	?GetMessageMap@CDlgStrategyList@@MBEPBUAFX_MSGMAP@@XZ ; CDlgStrategyList::GetMessageMap
PUBLIC	?OnBnClickedBtnSystemtrading@CDlgStrategyList@@QAEXXZ ; CDlgStrategyList::OnBnClickedBtnSystemtrading
PUBLIC	?OnBnClickedButtonSaveconfig@CDlgStrategyList@@QAEXXZ ; CDlgStrategyList::OnBnClickedButtonSaveconfig
PUBLIC	??1CDlgStrategyList@@UAE@XZ			; CDlgStrategyList::~CDlgStrategyList
PUBLIC	??_GCDlgStrategyList@@UAEPAXI@Z			; CDlgStrategyList::`scalar deleting destructor'
PUBLIC	?_OptionsStorage@?1??__local_stdio_scanf_options@@9@4_KA ; `__local_stdio_scanf_options'::`2'::_OptionsStorage
PUBLIC	??_R0PAVCException@@@8				; CException * `RTTI Type Descriptor'
PUBLIC	??_C@_02DPKJAMEF@?$CFd@				; `string'
PUBLIC	??_C@_00CNPNBAHC@@				; `string'
PUBLIC	??_7CGdiObject@@6B@				; CGdiObject::`vftable'
PUBLIC	??_7CBrush@@6B@					; CBrush::`vftable'
PUBLIC	??_7CFont@@6B@					; CFont::`vftable'
PUBLIC	??_7CStatic@@6B@				; CStatic::`vftable'
PUBLIC	??_C@_0HD@JJCHHHNK@C?3?2Program?5Files?5?$CIx86?$CJ?2Microsof@ ; `string'
PUBLIC	??_C@_0BP@OIEOKIDM@Exception?5thrown?5in?5destructor@ ; `string'
PUBLIC	??_C@_0BB@HBOOMJBF@?$CFTs?5?$CI?$CFTs?3?$CFd?$CJ?6?$CFTs@ ; `string'
PUBLIC	??_C@_0N@OMEMOKLE@?$CFTs?5?$CI?$CFTs?3?$CFd?$CJ@ ; `string'
PUBLIC	??_C@_0M@CBBNGGHM@PcTrMng?4dll@			; `string'
PUBLIC	??_C@_0P@IDMAJEGN@HANAROPCTRMAIN@		; `string'
PUBLIC	??_C@_06NDLAHCHE@?$CFs?$CF08X@			; `string'
PUBLIC	??_C@_02EMFKHFLK@?$CFX@				; `string'
PUBLIC	??_R0?AVCObject@@@8				; CObject `RTTI Type Descriptor'
PUBLIC	??_R3CObject@@8					; CObject::`RTTI Class Hierarchy Descriptor'
PUBLIC	??_R2CObject@@8					; CObject::`RTTI Base Class Array'
PUBLIC	??_R1A@?0A@EA@CObject@@8			; CObject::`RTTI Base Class Descriptor at (0,-1,0,64)'
PUBLIC	??_R4CGdiObject@@6B@				; CGdiObject::`RTTI Complete Object Locator'
PUBLIC	??_R0?AVCGdiObject@@@8				; CGdiObject `RTTI Type Descriptor'
PUBLIC	??_R3CGdiObject@@8				; CGdiObject::`RTTI Class Hierarchy Descriptor'
PUBLIC	??_R2CGdiObject@@8				; CGdiObject::`RTTI Base Class Array'
PUBLIC	??_R1A@?0A@EA@CGdiObject@@8			; CGdiObject::`RTTI Base Class Descriptor at (0,-1,0,64)'
PUBLIC	??_R4CBrush@@6B@				; CBrush::`RTTI Complete Object Locator'
PUBLIC	??_R0?AVCBrush@@@8				; CBrush `RTTI Type Descriptor'
PUBLIC	??_R3CBrush@@8					; CBrush::`RTTI Class Hierarchy Descriptor'
PUBLIC	??_R2CBrush@@8					; CBrush::`RTTI Base Class Array'
PUBLIC	??_R1A@?0A@EA@CBrush@@8				; CBrush::`RTTI Base Class Descriptor at (0,-1,0,64)'
PUBLIC	??_R4CFont@@6B@					; CFont::`RTTI Complete Object Locator'
PUBLIC	??_R0?AVCFont@@@8				; CFont `RTTI Type Descriptor'
PUBLIC	??_R3CFont@@8					; CFont::`RTTI Class Hierarchy Descriptor'
PUBLIC	??_R2CFont@@8					; CFont::`RTTI Base Class Array'
PUBLIC	??_R1A@?0A@EA@CFont@@8				; CFont::`RTTI Base Class Descriptor at (0,-1,0,64)'
PUBLIC	??_R4CStatic@@6B@				; CStatic::`RTTI Complete Object Locator'
PUBLIC	??_R0?AVCStatic@@@8				; CStatic `RTTI Type Descriptor'
PUBLIC	??_R3CStatic@@8					; CStatic::`RTTI Class Hierarchy Descriptor'
PUBLIC	??_R2CStatic@@8					; CStatic::`RTTI Base Class Array'
PUBLIC	??_R1A@?0A@EA@CStatic@@8			; CStatic::`RTTI Base Class Descriptor at (0,-1,0,64)'
PUBLIC	??_R1A@?0A@EA@CWnd@@8				; CWnd::`RTTI Base Class Descriptor at (0,-1,0,64)'
PUBLIC	??_R0?AVCWnd@@@8				; CWnd `RTTI Type Descriptor'
PUBLIC	??_R3CWnd@@8					; CWnd::`RTTI Class Hierarchy Descriptor'
PUBLIC	??_R2CWnd@@8					; CWnd::`RTTI Base Class Array'
PUBLIC	??_R1A@?0A@EA@CCmdTarget@@8			; CCmdTarget::`RTTI Base Class Descriptor at (0,-1,0,64)'
PUBLIC	??_R0?AVCCmdTarget@@@8				; CCmdTarget `RTTI Type Descriptor'
PUBLIC	??_R3CCmdTarget@@8				; CCmdTarget::`RTTI Class Hierarchy Descriptor'
PUBLIC	??_R2CCmdTarget@@8				; CCmdTarget::`RTTI Base Class Array'
PUBLIC	??_R1A@?0A@EA@CDialog@@8			; CDialog::`RTTI Base Class Descriptor at (0,-1,0,64)'
PUBLIC	??_R0?AVCDialog@@@8				; CDialog `RTTI Type Descriptor'
PUBLIC	??_R3CDialog@@8					; CDialog::`RTTI Class Hierarchy Descriptor'
PUBLIC	??_R2CDialog@@8					; CDialog::`RTTI Base Class Array'
PUBLIC	??_C@_02DKCKIIND@?$CFs@				; `string'
PUBLIC	??_7CDlgStrategyList@@6B@			; CDlgStrategyList::`vftable'
PUBLIC	??_C@_01ODHLEDKK@?$CI@				; `string'
PUBLIC	??_C@_01IHBHIGKO@?0@				; `string'
PUBLIC	??_C@_01PKGAHCOL@?$CJ@				; `string'
PUBLIC	??_C@_06MFMMLLPC@?$LB?$LM?$LI?$LC?C?$LM@	; `string'
PUBLIC	??_C@_04MGFIDEAB@?$MA?L?$LI?$KH@		; `string'
PUBLIC	??_C@_04JEFEGHFG@?A?$LG?$LA?G@			; `string'
PUBLIC	??_C@_04PFAGJEJF@?$LN?C?$LA?$KD@		; `string'
PUBLIC	??_C@_04BFOBCBBG@?$LM?v?A?$KE@			; `string'
PUBLIC	??_C@_04CFDBLPCI@?$LL?h?A?$KG@			; `string'
PUBLIC	??_C@_03BOPJPIAM@and@				; `string'
PUBLIC	??_C@_02FODMLBIE@or@				; `string'
PUBLIC	??_C@_04CJGEDOF@next@				; `string'
PUBLIC	??_C@_04MNEJHGBL@?$CFd?$LK?P@			; `string'
PUBLIC	??_C@_04EAPBPCMF@?$CFd?F?$LN@			; `string'
PUBLIC	??_C@_02NNHDHLCM@?$MA?O@			; `string'
PUBLIC	??_C@_0L@FNFCAPPB@?2STDATA?2SD@			; `string'
PUBLIC	??_C@_02HAOIJKIC@?$CFc@				; `string'
PUBLIC	??_C@_04EKOCOPPL@?F?m?A?$PN@			; `string'
PUBLIC	??_C@_01MMEEDKFM@X@				; `string'
PUBLIC	??_C@_04FFLLBBHL@?4SFG@				; `string'
PUBLIC	??_C@_0FG@LKHGOMIG@?$LL?g?$LP?k?$MA?Z?$MA?$PM?$LH?$KL?$LI?$LI?$MA?L?5?$LM?$LD?A?$KE?$LK?$KP?$LA?f?$MA?L?5?$LA?$KB?$LE?I?G@ ; `string'
PUBLIC	??_C@_03COHLPAFH@?4ST@				; `string'
PUBLIC	??_C@_0BK@COPOICEF@?2STDATA?2ST?2?$LL?g?$LP?k?$MA?Z?A?$LG?G?U?$MA?$PM?$LH?$KL@ ; `string'
PUBLIC	??_C@_09CBEKMPDN@?$CFs?$CFs?2?$CFs?$CFs@	; `string'
PUBLIC	??_C@_02EJEPJIDE@?$LK?P@			; `string'
PUBLIC	??_C@_02MEPHBMOK@?F?$LN@			; `string'
PUBLIC	??_C@_04GJEMHMEM@?4sts@				; `string'
PUBLIC	??_C@_01KICIPPFI@?2@				; `string'
PUBLIC	??_C@_05IJGIMMHE@Count@				; `string'
PUBLIC	??_C@_0N@GKFNKJGL@StrategyList@			; `string'
PUBLIC	??_C@_03FCCPIJGJ@Pos@				; `string'
PUBLIC	??_C@_04HGGBINEM@?$CFs?$CFd@			; `string'
PUBLIC	??_C@_07DGPCBOM@PosName@			; `string'
PUBLIC	??_C@_07KIGMOBJM@PosType@			; `string'
PUBLIC	??_C@_07OMILIGCA@PosTime@			; `string'
PUBLIC	??_C@_07OPGJHLBD@PosText@			; `string'
PUBLIC	??_C@_09FALOBHDH@LogicData@			; `string'
PUBLIC	??_C@_0BN@HJIDJAEP@?C?V?$LE?k?5?$CFd?$LA?$LD?$LB?n?A?v?5?$LA?$KB?$LE?I?G?U?$LE?O?$LE?Y?4?$CI1?$CJ@ ; `string'
PUBLIC	??_C@_01GBGANLPD@0@				; `string'
PUBLIC	??_C@_0BN@HLMFCOBG@?C?V?$LE?k?5?$CFd?$LA?$LD?$LB?n?A?v?5?$LA?$KB?$LE?I?G?U?$LE?O?$LE?Y?4?$CI2?$CJ@ ; `string'
PUBLIC	??_C@_0CJ@BJKBFEL@?$LM?$LB?E?C?$LF?H?5?$MA?$PM?$LH?$KL?$MA?L?$LI?$KH?$MA?L?5?$LO?x?$LN?$MA?$LE?O?$LE?Y?4?5?H?$KO?$MA@ ; `string'
PUBLIC	??_C@_01JKBOJNNK@?$FO@				; `string'
PUBLIC	??_C@_01EOFPKCAF@?$EA@				; `string'
PUBLIC	??_C@_0CK@PLOMFNEF@?$MA?$PM?$LH?$KL?$LI?m?$LP?$KB?$LE?B?5?8?$EA?8?5?$LJ?$KO?$MA?Z?$LE?B?5?$LF?i?$LO?n?$LA?$KF?5?$LM?v@ ; `string'
PUBLIC	??_C@_04HDOCAJNK@?$CFs?$CFs@			; `string'
PUBLIC	??_C@_0BB@FBICNCLM@?2?$LL?g?$LP?k?$MA?Z?$LE?$NM?$MA?$KH?$MA?$PM?$LH?$KL?2@ ; `string'
PUBLIC	??_C@_0BB@PJJNFPEB@?2?$LL?g?$LP?k?$MA?Z?A?$LG?G?U?$MA?$PM?$LH?$KL?2@ ; `string'
PUBLIC	??_C@_0DC@JJJMJJPP@?F?D?$MA?O?$LI?m?$MA?G?5?$LB?f?$MA?L?$LA?$KB?5?$LD?J?$LJ?$KL?5?$LB?i?$LE?O?$LE?Y?4?5?$MA?$PM@ ; `string'
PUBLIC	??_C@_0DP@JJIEBPED@?$LA?$LA?$MA?$LK?5?$MA?$PM?$LH?$KL?$LI?m?$MA?L?5?$MA?L?$LJ?L?5?A?$LI?$MA?g?G?U?$LE?O?$LE?Y?4?5@ ; `string'
PUBLIC	??_C@_0BJ@GJNCLGJM@?$MA?$PM?$LH?$KL?$MA?$LL?5?$LL?h?A?$KG?G?O?$LN?C?$LA?Z?$LN?$MA?$LE?O?$LB?n?$DP@ ; `string'
PUBLIC	??_C@_0BI@GAHPEGNH@?2dev?2STConfigureDlg?4dll@	; `string'
PUBLIC	??_C@_0BM@DBODABJK@fnShowConfigureDlgRunMainEx@	; `string'
PUBLIC	??_C@_0BA@PIGBAOMG@STLIST_MODIFIED@		; `string'
PUBLIC	??_C@_0O@OIDGLFFC@?2STData?2Temp?2@		; `string'
PUBLIC	??_C@_08KJEDNCKC@?$CFs?$CFs?$CFs?$CFs@		; `string'
PUBLIC	??_C@_06CJEEKDIM@IMSIST@			; `string'
PUBLIC	??_C@_06CPODCDOI@Signal@			; `string'
PUBLIC	??_C@_08IFJCKPBE@RunJumun@			; `string'
PUBLIC	??_C@_08DIPLEMAP@RunSetup@			; `string'
PUBLIC	??_C@_08PHIBHFDB@RunClear@			; `string'
PUBLIC	??_C@_09IJIPICN@Variables@			; `string'
PUBLIC	??_C@_05DCDOHKAB@Input@				; `string'
PUBLIC	??_C@_08JFMIELNJ@InputCnt@			; `string'
PUBLIC	??_C@_07MHLIEPKG@?$CFs?2?$CFs?$CFs@		; `string'
PUBLIC	??_C@_0M@MKPENJBJ@InputName?$CFd@		; `string'
PUBLIC	??_C@_06FIHLBNDD@?$LK?$KP?$LM?v?$LI?m@		; `string'
PUBLIC	??_C@_06OJFAJFEJ@?$LK?$KP?$LM?v?$LA?$KK@	; `string'
PUBLIC	??_R4CDlgStrategyList@@6B@			; CDlgStrategyList::`RTTI Complete Object Locator'
PUBLIC	??_R0?AVCDlgStrategyList@@@8			; CDlgStrategyList `RTTI Type Descriptor'
PUBLIC	??_R3CDlgStrategyList@@8			; CDlgStrategyList::`RTTI Class Hierarchy Descriptor'
PUBLIC	??_R2CDlgStrategyList@@8			; CDlgStrategyList::`RTTI Base Class Array'
PUBLIC	??_R1A@?0A@EA@CDlgStrategyList@@8		; CDlgStrategyList::`RTTI Base Class Descriptor at (0,-1,0,64)'
PUBLIC	__xmm@0000000a00000000000000d700000005
PUBLIC	__xmm@000000f0000002440000001e00000000
PUBLIC	__xmm@00000190000000000000000000000000
EXTRN	??2@YAPAXI@Z:PROC				; operator new
EXTRN	??3@YAXPAX@Z:PROC				; operator delete
EXTRN	??3@YAXPAXI@Z:PROC				; operator delete
EXTRN	?__global_delete@@YAXPAXI@Z:PROC		; __global_delete
EXTRN	__imp__GetEnvironmentVariableA@12:PROC
EXTRN	__imp__DeleteFileA@4:PROC
EXTRN	__imp__FreeLibrary@4:PROC
EXTRN	__imp__GetModuleHandleA@4:PROC
EXTRN	__imp__GetProcAddress@8:PROC
EXTRN	__imp__LoadLibraryA@4:PROC
EXTRN	__imp__GetPrivateProfileStringA@24:PROC
EXTRN	__imp__WritePrivateProfileStringA@16:PROC
EXTRN	__imp__CopyFileA@12:PROC
EXTRN	__imp__CreateFontIndirectA@4:PROC
EXTRN	__imp__CreateSolidBrush@4:PROC
EXTRN	__imp__RegisterWindowMessageA@4:PROC
EXTRN	__imp__SendMessageA@16:PROC
EXTRN	__imp__GetKeyState@4:PROC
EXTRN	__imp__SetTimer@16:PROC
EXTRN	__imp__KillTimer@8:PROC
EXTRN	__imp__EnableWindow@8:PROC
EXTRN	__imp__InvalidateRect@12:PROC
EXTRN	__imp__GetClientRect@8:PROC
EXTRN	__imp__GetWindowRect@8:PROC
EXTRN	__imp__GetParent@4:PROC
EXTRN	__imp____stdio_common_vsscanf:PROC
EXTRN	__imp__atoi:PROC
EXTRN	__imp__atol:PROC
EXTRN	?AfxThrowInvalidArgException@@YGXXZ:PROC	; AfxThrowInvalidArgException
EXTRN	__imp_??A?$CSimpleStringT@D$00@ATL@@QBEDH@Z:PROC
EXTRN	__imp_?Empty@?$CSimpleStringT@D$00@ATL@@QAEXXZ:PROC
EXTRN	__imp_?Concatenate@?$CSimpleStringT@D$00@ATL@@KAXAAV12@PBDH1H@Z:PROC
EXTRN	__imp_??0?$CStringT@DV?$StrTraitMFC_DLL@DV?$ChTraitsCRT@D@ATL@@@@@ATL@@QAE@XZ:PROC
EXTRN	__imp_??0?$CStringT@DV?$StrTraitMFC_DLL@DV?$ChTraitsCRT@D@ATL@@@@@ATL@@QAE@PAUIAtlStringMgr@1@@Z:PROC
EXTRN	__imp_??0?$CStringT@DV?$StrTraitMFC_DLL@DV?$ChTraitsCRT@D@ATL@@@@@ATL@@QAE@ABV01@@Z:PROC
EXTRN	__imp_??0?$CStringT@DV?$StrTraitMFC_DLL@DV?$ChTraitsCRT@D@ATL@@@@@ATL@@QAE@PBD@Z:PROC
EXTRN	__imp_??1?$CStringT@DV?$StrTraitMFC_DLL@DV?$ChTraitsCRT@D@ATL@@@@@ATL@@QAE@XZ:PROC
EXTRN	__imp_??4?$CStringT@DV?$StrTraitMFC_DLL@DV?$ChTraitsCRT@D@ATL@@@@@ATL@@QAEAAV01@ABV01@@Z:PROC
EXTRN	__imp_??4?$CStringT@DV?$StrTraitMFC_DLL@DV?$ChTraitsCRT@D@ATL@@@@@ATL@@QAEAAV01@PBD@Z:PROC
EXTRN	__imp_??Y?$CStringT@DV?$StrTraitMFC_DLL@DV?$ChTraitsCRT@D@ATL@@@@@ATL@@QAEAAV01@ABV?$CSimpleStringT@D$00@1@@Z:PROC
EXTRN	__imp_??Y?$CStringT@DV?$StrTraitMFC_DLL@DV?$ChTraitsCRT@D@ATL@@@@@ATL@@QAEAAV01@PBD@Z:PROC
EXTRN	__imp_?GetManager@?$CStringT@DV?$StrTraitMFC_DLL@DV?$ChTraitsCRT@D@ATL@@@@@ATL@@QBEPAUIAtlStringMgr@2@XZ:PROC
EXTRN	__imp_?Compare@?$CStringT@DV?$StrTraitMFC_DLL@DV?$ChTraitsCRT@D@ATL@@@@@ATL@@QBEHPBD@Z:PROC
EXTRN	__imp_?Delete@?$CStringT@DV?$StrTraitMFC_DLL@DV?$ChTraitsCRT@D@ATL@@@@@ATL@@QAEHHH@Z:PROC
EXTRN	__imp_?Remove@?$CStringT@DV?$StrTraitMFC_DLL@DV?$ChTraitsCRT@D@ATL@@@@@ATL@@QAEHD@Z:PROC
EXTRN	__imp_?Find@?$CStringT@DV?$StrTraitMFC_DLL@DV?$ChTraitsCRT@D@ATL@@@@@ATL@@QBEHDH@Z:PROC
EXTRN	__imp_?Find@?$CStringT@DV?$StrTraitMFC_DLL@DV?$ChTraitsCRT@D@ATL@@@@@ATL@@QBEHPBDH@Z:PROC
EXTRN	__imp_?ReverseFind@?$CStringT@DV?$StrTraitMFC_DLL@DV?$ChTraitsCRT@D@ATL@@@@@ATL@@QBEHD@Z:PROC
EXTRN	__imp_?Mid@?$CStringT@DV?$StrTraitMFC_DLL@DV?$ChTraitsCRT@D@ATL@@@@@ATL@@QBE?AV12@H@Z:PROC
EXTRN	__imp_?Right@?$CStringT@DV?$StrTraitMFC_DLL@DV?$ChTraitsCRT@D@ATL@@@@@ATL@@QBE?AV12@H@Z:PROC
EXTRN	__imp_?Left@?$CStringT@DV?$StrTraitMFC_DLL@DV?$ChTraitsCRT@D@ATL@@@@@ATL@@QBE?AV12@H@Z:PROC
EXTRN	__imp_?Format@?$CStringT@DV?$StrTraitMFC_DLL@DV?$ChTraitsCRT@D@ATL@@@@@ATL@@QAAXPBDZZ:PROC
EXTRN	??0CFileFind@@QAE@XZ:PROC			; CFileFind::CFileFind
EXTRN	??1CFileFind@@UAE@XZ:PROC			; CFileFind::~CFileFind
EXTRN	?FindFile@CFileFind@@UAEHPBDK@Z:PROC		; CFileFind::FindFile
EXTRN	??0CStringArray@@QAE@XZ:PROC			; CStringArray::CStringArray
EXTRN	?SetAtGrow@CStringArray@@QAEXHABV?$CStringT@DV?$StrTraitMFC_DLL@DV?$ChTraitsCRT@D@ATL@@@@@ATL@@@Z:PROC ; CStringArray::SetAtGrow
EXTRN	??1CStringArray@@UAE@XZ:PROC			; CStringArray::~CStringArray
EXTRN	?GetRuntimeClass@CGdiObject@@UBEPAUCRuntimeClass@@XZ:PROC ; CGdiObject::GetRuntimeClass
EXTRN	?Attach@CGdiObject@@QAEHPAX@Z:PROC		; CGdiObject::Attach
EXTRN	?DeleteObject@CGdiObject@@QAEHXZ:PROC		; CGdiObject::DeleteObject
EXTRN	??_ECGdiObject@@UAEPAXI@Z:PROC			; CGdiObject::`vector deleting destructor'
EXTRN	?GetRuntimeClass@CBrush@@UBEPAUCRuntimeClass@@XZ:PROC ; CBrush::GetRuntimeClass
EXTRN	??_ECBrush@@UAEPAXI@Z:PROC			; CBrush::`vector deleting destructor'
EXTRN	?GetRuntimeClass@CFont@@UBEPAUCRuntimeClass@@XZ:PROC ; CFont::GetRuntimeClass
EXTRN	??_ECFont@@UAEPAXI@Z:PROC			; CFont::`vector deleting destructor'
EXTRN	?DDX_Control@@YGXPAVCDataExchange@@HAAVCWnd@@@Z:PROC ; DDX_Control
EXTRN	?OnCmdMsg@CCmdTarget@@UAEHIHPAXPAUAFX_CMDHANDLERINFO@@@Z:PROC ; CCmdTarget::OnCmdMsg
EXTRN	?IsInvokeAllowed@CCmdTarget@@UAEHJ@Z:PROC	; CCmdTarget::IsInvokeAllowed
EXTRN	?GetDispatchIID@CCmdTarget@@UAEHPAU_GUID@@@Z:PROC ; CCmdTarget::GetDispatchIID
EXTRN	?GetTypeInfoCount@CCmdTarget@@UAEIXZ:PROC	; CCmdTarget::GetTypeInfoCount
EXTRN	?GetTypeLibCache@CCmdTarget@@UAEPAVCTypeLibCache@@XZ:PROC ; CCmdTarget::GetTypeLibCache
EXTRN	?GetTypeLib@CCmdTarget@@UAEJKPAPAUITypeLib@@@Z:PROC ; CCmdTarget::GetTypeLib
EXTRN	?GetCommandMap@CCmdTarget@@MBEPBUAFX_OLECMDMAP@@XZ:PROC ; CCmdTarget::GetCommandMap
EXTRN	?GetDispatchMap@CCmdTarget@@MBEPBUAFX_DISPMAP@@XZ:PROC ; CCmdTarget::GetDispatchMap
EXTRN	?GetConnectionMap@CCmdTarget@@MBEPBUAFX_CONNECTIONMAP@@XZ:PROC ; CCmdTarget::GetConnectionMap
EXTRN	?GetEventSinkMap@CCmdTarget@@MBEPBUAFX_EVENTSINKMAP@@XZ:PROC ; CCmdTarget::GetEventSinkMap
EXTRN	?OnCreateAggregates@CCmdTarget@@UAEHXZ:PROC	; CCmdTarget::OnCreateAggregates
EXTRN	?GetInterfaceHook@CCmdTarget@@UAEPAUIUnknown@@PBX@Z:PROC ; CCmdTarget::GetInterfaceHook
EXTRN	?GetExtraConnectionPoints@CCmdTarget@@MAEHPAVCPtrArray@@@Z:PROC ; CCmdTarget::GetExtraConnectionPoints
EXTRN	?GetConnectionHook@CCmdTarget@@MAEPAUIConnectionPoint@@ABU_GUID@@@Z:PROC ; CCmdTarget::GetConnectionHook
EXTRN	??0CWnd@@QAE@XZ:PROC				; CWnd::CWnd
EXTRN	?FromHandle@CWnd@@SGPAV1@PAUHWND__@@@Z:PROC	; CWnd::FromHandle
EXTRN	?PreSubclassWindow@CWnd@@UAEXXZ:PROC		; CWnd::PreSubclassWindow
EXTRN	?Create@CWnd@@UAEHPBD0KABUtagRECT@@PAV1@IPAUCCreateContext@@@Z:PROC ; CWnd::Create
EXTRN	?CreateEx@CWnd@@UAEHKPBD0KHHHHPAUHWND__@@PAUHMENU__@@PAX@Z:PROC ; CWnd::CreateEx
EXTRN	?CreateEx@CWnd@@UAEHKPBD0KABUtagRECT@@PAV1@IPAX@Z:PROC ; CWnd::CreateEx
EXTRN	?DestroyWindow@CWnd@@UAEHXZ:PROC		; CWnd::DestroyWindow
EXTRN	?PreCreateWindow@CWnd@@UAEHAAUtagCREATESTRUCTA@@@Z:PROC ; CWnd::PreCreateWindow
EXTRN	?CalcWindowRect@CWnd@@UAEXPAUtagRECT@@I@Z:PROC	; CWnd::CalcWindowRect
EXTRN	?GetDlgItem@CWnd@@QBEPAV1@H@Z:PROC		; CWnd::GetDlgItem
EXTRN	?SetWindowTextA@CWnd@@QAEXPBD@Z:PROC		; CWnd::SetWindowTextA
EXTRN	?GetWindowTextA@CWnd@@QBEXAAV?$CStringT@DV?$StrTraitMFC_DLL@DV?$ChTraitsCRT@D@ATL@@@@@ATL@@@Z:PROC ; CWnd::GetWindowTextA
EXTRN	?GetMenu@CWnd@@UBEPAVCMenu@@XZ:PROC		; CWnd::GetMenu
EXTRN	?SetMenu@CWnd@@UAEHPAVCMenu@@@Z:PROC		; CWnd::SetMenu
EXTRN	?MoveWindow@CWnd@@QAEXHHHHH@Z:PROC		; CWnd::MoveWindow
EXTRN	?SetWindowPos@CWnd@@QAEHPBV1@HHHHI@Z:PROC	; CWnd::SetWindowPos
EXTRN	?ClientToScreen@CWnd@@QBEXPAUtagRECT@@@Z:PROC	; CWnd::ClientToScreen
EXTRN	?ScreenToClient@CWnd@@QBEXPAUtagRECT@@@Z:PROC	; CWnd::ScreenToClient
EXTRN	?OnToolHitTest@CWnd@@UBEHVCPoint@@PAUtagTOOLINFOA@@@Z:PROC ; CWnd::OnToolHitTest
EXTRN	?EnableWindow@CWnd@@QAEHH@Z:PROC		; CWnd::EnableWindow
EXTRN	?SetFocus@CWnd@@QAEPAV1@XZ:PROC			; CWnd::SetFocus
EXTRN	?GetDlgItemTextA@CWnd@@QBEHHAAV?$CStringT@DV?$StrTraitMFC_DLL@DV?$ChTraitsCRT@D@ATL@@@@@ATL@@@Z:PROC ; CWnd::GetDlgItemTextA
EXTRN	?SetDlgItemTextA@CWnd@@QAEXHPBD@Z:PROC		; CWnd::SetDlgItemTextA
EXTRN	?GetScrollBarCtrl@CWnd@@UBEPAVCScrollBar@@H@Z:PROC ; CWnd::GetScrollBarCtrl
EXTRN	?WinHelpA@CWnd@@UAEXKI@Z:PROC			; CWnd::WinHelpA
EXTRN	?HtmlHelpA@CWnd@@UAEXKI@Z:PROC			; CWnd::HtmlHelpA
EXTRN	?WinHelpInternal@CWnd@@UAEXKI@Z:PROC		; CWnd::WinHelpInternal
EXTRN	?ContinueModal@CWnd@@UAEHXZ:PROC		; CWnd::ContinueModal
EXTRN	?EndModalLoop@CWnd@@UAEXH@Z:PROC		; CWnd::EndModalLoop
EXTRN	?OnDrawIconicThumbnailOrLivePreview@CWnd@@UAEXAAVCDC@@VCRect@@VCSize@@HAAH@Z:PROC ; CWnd::OnDrawIconicThumbnailOrLivePreview
EXTRN	?GetInterfaceMap@CWnd@@MBEPBUAFX_INTERFACEMAP@@XZ:PROC ; CWnd::GetInterfaceMap
EXTRN	?EnsureStdObj@CWnd@@UAEJXZ:PROC			; CWnd::EnsureStdObj
EXTRN	?get_accParent@CWnd@@UAEJPAPAUIDispatch@@@Z:PROC ; CWnd::get_accParent
EXTRN	?get_accChildCount@CWnd@@UAEJPAJ@Z:PROC		; CWnd::get_accChildCount
EXTRN	?get_accChild@CWnd@@UAEJUtagVARIANT@@PAPAUIDispatch@@@Z:PROC ; CWnd::get_accChild
EXTRN	?get_accName@CWnd@@UAEJUtagVARIANT@@PAPA_W@Z:PROC ; CWnd::get_accName
EXTRN	?get_accValue@CWnd@@UAEJUtagVARIANT@@PAPA_W@Z:PROC ; CWnd::get_accValue
EXTRN	?get_accDescription@CWnd@@UAEJUtagVARIANT@@PAPA_W@Z:PROC ; CWnd::get_accDescription
EXTRN	?get_accRole@CWnd@@UAEJUtagVARIANT@@PAU2@@Z:PROC ; CWnd::get_accRole
EXTRN	?get_accState@CWnd@@UAEJUtagVARIANT@@PAU2@@Z:PROC ; CWnd::get_accState
EXTRN	?get_accHelp@CWnd@@UAEJUtagVARIANT@@PAPA_W@Z:PROC ; CWnd::get_accHelp
EXTRN	?get_accHelpTopic@CWnd@@UAEJPAPA_WUtagVARIANT@@PAJ@Z:PROC ; CWnd::get_accHelpTopic
EXTRN	?get_accKeyboardShortcut@CWnd@@UAEJUtagVARIANT@@PAPA_W@Z:PROC ; CWnd::get_accKeyboardShortcut
EXTRN	?get_accFocus@CWnd@@UAEJPAUtagVARIANT@@@Z:PROC	; CWnd::get_accFocus
EXTRN	?get_accSelection@CWnd@@UAEJPAUtagVARIANT@@@Z:PROC ; CWnd::get_accSelection
EXTRN	?get_accDefaultAction@CWnd@@UAEJUtagVARIANT@@PAPA_W@Z:PROC ; CWnd::get_accDefaultAction
EXTRN	?accSelect@CWnd@@UAEJJUtagVARIANT@@@Z:PROC	; CWnd::accSelect
EXTRN	?accLocation@CWnd@@UAEJPAJ000UtagVARIANT@@@Z:PROC ; CWnd::accLocation
EXTRN	?accNavigate@CWnd@@UAEJJUtagVARIANT@@PAU2@@Z:PROC ; CWnd::accNavigate
EXTRN	?accHitTest@CWnd@@UAEJJJPAUtagVARIANT@@@Z:PROC	; CWnd::accHitTest
EXTRN	?accDoDefaultAction@CWnd@@UAEJUtagVARIANT@@@Z:PROC ; CWnd::accDoDefaultAction
EXTRN	?put_accName@CWnd@@UAEJUtagVARIANT@@PA_W@Z:PROC	; CWnd::put_accName
EXTRN	?put_accValue@CWnd@@UAEJUtagVARIANT@@PA_W@Z:PROC ; CWnd::put_accValue
EXTRN	?SetProxy@CWnd@@UAEJPAUIAccessibleProxy@@@Z:PROC ; CWnd::SetProxy
EXTRN	?CreateAccessibleProxy@CWnd@@UAEJIJPAJ@Z:PROC	; CWnd::CreateAccessibleProxy
EXTRN	?OnCommand@CWnd@@MAEHIJ@Z:PROC			; CWnd::OnCommand
EXTRN	?OnNotify@CWnd@@MAEHIJPAJ@Z:PROC		; CWnd::OnNotify
EXTRN	?OnCtlColor@CWnd@@IAEPAUHBRUSH__@@PAVCDC@@PAV1@I@Z:PROC ; CWnd::OnCtlColor
EXTRN	?OnDestroy@CWnd@@IAEXXZ:PROC			; CWnd::OnDestroy
EXTRN	?GetSuperWndProcAddr@CWnd@@MAEPAP6GJPAUHWND__@@IIJ@ZXZ:PROC ; CWnd::GetSuperWndProcAddr
EXTRN	?PreTranslateMessage@CWnd@@UAEHPAUtagMSG@@@Z:PROC ; CWnd::PreTranslateMessage
EXTRN	?OnAmbientProperty@CWnd@@UAEHPAVCOleControlSite@@JPAUtagVARIANT@@@Z:PROC ; CWnd::OnAmbientProperty
EXTRN	?WindowProc@CWnd@@MAEJIIJ@Z:PROC		; CWnd::WindowProc
EXTRN	?OnWndMsg@CWnd@@MAEHIIJPAJ@Z:PROC		; CWnd::OnWndMsg
EXTRN	?Default@CWnd@@IAEJXZ:PROC			; CWnd::Default
EXTRN	?DefWindowProcA@CWnd@@MAEJIIJ@Z:PROC		; CWnd::DefWindowProcA
EXTRN	?PostNcDestroy@CWnd@@MAEXXZ:PROC		; CWnd::PostNcDestroy
EXTRN	?OnChildNotify@CWnd@@MAEHIIJPAJ@Z:PROC		; CWnd::OnChildNotify
EXTRN	?OnTouchInputs@CWnd@@MAEHIPAUtagTOUCHINPUT@@@Z:PROC ; CWnd::OnTouchInputs
EXTRN	?OnTouchInput@CWnd@@MAEHVCPoint@@HHPAUtagTOUCHINPUT@@@Z:PROC ; CWnd::OnTouchInput
EXTRN	?GetGestureStatus@CWnd@@MAEKVCPoint@@@Z:PROC	; CWnd::GetGestureStatus
EXTRN	?OnGestureZoom@CWnd@@MAEHVCPoint@@J@Z:PROC	; CWnd::OnGestureZoom
EXTRN	?OnGesturePan@CWnd@@MAEHVCPoint@@0@Z:PROC	; CWnd::OnGesturePan
EXTRN	?OnGestureRotate@CWnd@@MAEHVCPoint@@N@Z:PROC	; CWnd::OnGestureRotate
EXTRN	?OnGestureTwoFingerTap@CWnd@@MAEHVCPoint@@@Z:PROC ; CWnd::OnGestureTwoFingerTap
EXTRN	?OnGesturePressAndTap@CWnd@@MAEHVCPoint@@J@Z:PROC ; CWnd::OnGesturePressAndTap
EXTRN	?ResizeDynamicLayout@CWnd@@MAEXXZ:PROC		; CWnd::ResizeDynamicLayout
EXTRN	?CheckAutoCenter@CWnd@@UAEHXZ:PROC		; CWnd::CheckAutoCenter
EXTRN	?IsFrameWnd@CWnd@@UBEHXZ:PROC			; CWnd::IsFrameWnd
EXTRN	?OnFinalRelease@CWnd@@UAEXXZ:PROC		; CWnd::OnFinalRelease
EXTRN	?CreateControlContainer@CWnd@@MAEHPAPAVCOleControlContainer@@@Z:PROC ; CWnd::CreateControlContainer
EXTRN	?CreateControlSite@CWnd@@MAEHPAVCOleControlContainer@@PAPAVCOleControlSite@@IABU_GUID@@@Z:PROC ; CWnd::CreateControlSite
EXTRN	?SetOccDialogInfo@CWnd@@MAEHPAU_AFX_OCC_DIALOG_INFO@@@Z:PROC ; CWnd::SetOccDialogInfo
EXTRN	?GetOccDialogInfo@CWnd@@MAEPAU_AFX_OCC_DIALOG_INFO@@XZ:PROC ; CWnd::GetOccDialogInfo
EXTRN	?GetMessageMap@CWnd@@MBEPBUAFX_MSGMAP@@XZ:PROC	; CWnd::GetMessageMap
EXTRN	?GetRuntimeClass@CDialog@@UBEPAUCRuntimeClass@@XZ:PROC ; CDialog::GetRuntimeClass
EXTRN	?Create@CDialog@@UAEHPBDPAVCWnd@@@Z:PROC	; CDialog::Create
EXTRN	?CreateIndirect@CDialog@@UAEHPBUDLGTEMPLATE@@PAVCWnd@@PAX@Z:PROC ; CDialog::CreateIndirect
EXTRN	?CreateIndirect@CDialog@@UAEHPAXPAVCWnd@@@Z:PROC ; CDialog::CreateIndirect
EXTRN	??0CDialog@@QAE@IPAVCWnd@@@Z:PROC		; CDialog::CDialog
EXTRN	?DoModal@CDialog@@UAEHXZ:PROC			; CDialog::DoModal
EXTRN	?OnInitDialog@CDialog@@UAEHXZ:PROC		; CDialog::OnInitDialog
EXTRN	?OnSetFont@CDialog@@UAEXPAVCFont@@@Z:PROC	; CDialog::OnSetFont
EXTRN	?OnOK@CDialog@@MAEXXZ:PROC			; CDialog::OnOK
EXTRN	?OnCancel@CDialog@@MAEXXZ:PROC			; CDialog::OnCancel
EXTRN	??1CDialog@@UAE@XZ:PROC				; CDialog::~CDialog
EXTRN	?PreTranslateMessage@CDialog@@UAEHPAUtagMSG@@@Z:PROC ; CDialog::PreTranslateMessage
EXTRN	?OnCmdMsg@CDialog@@UAEHIHPAXPAUAFX_CMDHANDLERINFO@@@Z:PROC ; CDialog::OnCmdMsg
EXTRN	?CheckAutoCenter@CDialog@@UAEHXZ:PROC		; CDialog::CheckAutoCenter
EXTRN	?SetOccDialogInfo@CDialog@@MAEHPAU_AFX_OCC_DIALOG_INFO@@@Z:PROC ; CDialog::SetOccDialogInfo
EXTRN	?GetOccDialogInfo@CDialog@@MAEPAU_AFX_OCC_DIALOG_INFO@@XZ:PROC ; CDialog::GetOccDialogInfo
EXTRN	?PreInitDialog@CDialog@@MAEXXZ:PROC		; CDialog::PreInitDialog
EXTRN	?GetThisMessageMap@CDialog@@KGPBUAFX_MSGMAP@@XZ:PROC ; CDialog::GetThisMessageMap
EXTRN	?GetRuntimeClass@CStatic@@UBEPAUCRuntimeClass@@XZ:PROC ; CStatic::GetRuntimeClass
EXTRN	?Create@CStatic@@UAEHPBDKABUtagRECT@@PAVCWnd@@I@Z:PROC ; CStatic::Create
EXTRN	?DrawItem@CStatic@@UAEXPAUtagDRAWITEMSTRUCT@@@Z:PROC ; CStatic::DrawItem
EXTRN	??1CStatic@@UAE@XZ:PROC				; CStatic::~CStatic
EXTRN	?OnChildNotify@CStatic@@MAEHIIJPAJ@Z:PROC	; CStatic::OnChildNotify
EXTRN	??_ECStatic@@UAEPAXI@Z:PROC			; CStatic::`vector deleting destructor'
EXTRN	?AfxMessageBox@@YGHPBDII@Z:PROC			; AfxMessageBox
EXTRN	?GetItemText@CListCtrl@@QBE?AV?$CStringT@DV?$StrTraitMFC_DLL@DV?$ChTraitsCRT@D@ATL@@@@@ATL@@HH@Z:PROC ; CListCtrl::GetItemText
EXTRN	??0CGridCtrl@@QAE@HHHH@Z:PROC			; CGridCtrl::CGridCtrl
EXTRN	?Create@CGridCtrl@@QAEHABUtagRECT@@PAVCWnd@@IK@Z:PROC ; CGridCtrl::Create
EXTRN	?SetRowCount@CGridCtrl@@QAEHH@Z:PROC		; CGridCtrl::SetRowCount
EXTRN	?SetColumnCount@CGridCtrl@@QAEHH@Z:PROC		; CGridCtrl::SetColumnCount
EXTRN	?SetFixedRowCount@CGridCtrl@@QAEHH@Z:PROC	; CGridCtrl::SetFixedRowCount
EXTRN	?SetRowHeight@CGridCtrl@@QAEHHH@Z:PROC		; CGridCtrl::SetRowHeight
EXTRN	?SetColumnWidth@CGridCtrl@@QAEHHH@Z:PROC	; CGridCtrl::SetColumnWidth
EXTRN	?GetCellRect@CGridCtrl@@QAEHHHPAUtagRECT@@@Z:PROC ; CGridCtrl::GetCellRect
EXTRN	?SetListMode@CGridCtrl@@QAEXH@Z:PROC		; CGridCtrl::SetListMode
EXTRN	?SetItem@CGridCtrl@@QAEHPBU_GV_ITEM@@@Z:PROC	; CGridCtrl::SetItem
EXTRN	?SetItemText@CGridCtrl@@QAEHHHPBD@Z:PROC	; CGridCtrl::SetItemText
EXTRN	?GetItemText@CGridCtrl@@QBE?AV?$CStringT@DV?$StrTraitMFC_DLL@DV?$ChTraitsCRT@D@ATL@@@@@ATL@@HH@Z:PROC ; CGridCtrl::GetItemText
EXTRN	?SetItemData@CGridCtrl@@QAEHHHJ@Z:PROC		; CGridCtrl::SetItemData
EXTRN	?GetItemData@CGridCtrl@@QBEJHH@Z:PROC		; CGridCtrl::GetItemData
EXTRN	?SetItemFormat@CGridCtrl@@QAEHHHI@Z:PROC	; CGridCtrl::SetItemFormat
EXTRN	?GetItemFormat@CGridCtrl@@QBEIHH@Z:PROC		; CGridCtrl::GetItemFormat
EXTRN	?SetItemFgColour@CGridCtrl@@QAEHHHK@Z:PROC	; CGridCtrl::SetItemFgColour
EXTRN	?GetItemFgColour@CGridCtrl@@QBEKHH@Z:PROC	; CGridCtrl::GetItemFgColour
EXTRN	?InsertRow@CGridCtrl@@QAEHPBDH@Z:PROC		; CGridCtrl::InsertRow
EXTRN	?DeleteRow@CGridCtrl@@QAEHH@Z:PROC		; CGridCtrl::DeleteRow
EXTRN	?ExpandColumnsToFit@CGridCtrl@@QAEXH@Z:PROC	; CGridCtrl::ExpandColumnsToFit
EXTRN	?GetSelectedCellRange@CGridCtrl@@QBE?AVCCellRange@@XZ:PROC ; CGridCtrl::GetSelectedCellRange
EXTRN	?SetSelectedRange@CGridCtrl@@QAEXHHHHHH@Z:PROC	; CGridCtrl::SetSelectedRange
EXTRN	??1CGridCtrl@@UAE@XZ:PROC			; CGridCtrl::~CGridCtrl
EXTRN	??0CLogicEditCtrl@@QAE@XZ:PROC			; CLogicEditCtrl::CLogicEditCtrl
EXTRN	?AddElement@CLogicEditCtrl@@QAEXD@Z:PROC	; CLogicEditCtrl::AddElement
EXTRN	?SwapElement@CLogicEditCtrl@@QAEXDD@Z:PROC	; CLogicEditCtrl::SwapElement
EXTRN	?DeleteElement@CLogicEditCtrl@@QAEXD@Z:PROC	; CLogicEditCtrl::DeleteElement
EXTRN	?ChangeElement@CLogicEditCtrl@@QAEXH@Z:PROC	; CLogicEditCtrl::ChangeElement
EXTRN	?ChangeOperation@CLogicEditCtrl@@QAEXPBD@Z:PROC	; CLogicEditCtrl::ChangeOperation
EXTRN	?Parenthesize@CLogicEditCtrl@@QAEXXZ:PROC	; CLogicEditCtrl::Parenthesize
EXTRN	?Unparenthesize@CLogicEditCtrl@@QAEXXZ:PROC	; CLogicEditCtrl::Unparenthesize
EXTRN	?DeleteAllElement@CLogicEditCtrl@@QAEXXZ:PROC	; CLogicEditCtrl::DeleteAllElement
EXTRN	?GetLogic@CLogicEditCtrl@@QAE?AV?$CStringT@DV?$StrTraitMFC_DLL@DV?$ChTraitsCRT@D@ATL@@@@@ATL@@XZ:PROC ; CLogicEditCtrl::GetLogic
EXTRN	?SetLogic@CLogicEditCtrl@@QAEXPBD@Z:PROC	; CLogicEditCtrl::SetLogic
EXTRN	??1CLogicEditCtrl@@UAE@XZ:PROC			; CLogicEditCtrl::~CLogicEditCtrl
EXTRN	??0CSDItemInfo@@QAE@XZ:PROC			; CSDItemInfo::CSDItemInfo
EXTRN	?SetNewSDItemInfo@CSDItemInfo@@QAEHPAUHWND__@@0PAVCDrMLib_CDBMgr@@PBDH22H@Z:PROC ; CSDItemInfo::SetNewSDItemInfo
EXTRN	?UpdateData@CSDItemInfo@@QAEHXZ:PROC		; CSDItemInfo::UpdateData
EXTRN	??0CExDrawButton@@QAE@H@Z:PROC			; CExDrawButton::CExDrawButton
EXTRN	??1CExDrawButton@@UAE@XZ:PROC			; CExDrawButton::~CExDrawButton
EXTRN	??0CExEdit@@QAE@H@Z:PROC			; CExEdit::CExEdit
EXTRN	??1CExEdit@@UAE@XZ:PROC				; CExEdit::~CExEdit
EXTRN	??0CDlgTimeSelector@@QAE@PAVCWnd@@@Z:PROC	; CDlgTimeSelector::CDlgTimeSelector
EXTRN	?UpdateData@CDlgTimeSelector@@QAEHH@Z:PROC	; CDlgTimeSelector::UpdateData
EXTRN	??0CXListCtrl@@QAE@XZ:PROC			; CXListCtrl::CXListCtrl
EXTRN	??1CXListCtrl@@UAE@XZ:PROC			; CXListCtrl::~CXListCtrl
EXTRN	?DeleteAllItems@CXListCtrl@@QAEHXZ:PROC		; CXListCtrl::DeleteAllItems
EXTRN	?InsertItem@CXListCtrl@@QAEHHPBD@Z:PROC		; CXListCtrl::InsertItem
EXTRN	?SetItemText@CXListCtrl@@QAEHHHPBD@Z:PROC	; CXListCtrl::SetItemText
EXTRN	?SetEditBox@CXListCtrl@@QAEHHHH@Z:PROC		; CXListCtrl::SetEditBox
EXTRN	?UnpressEditBox@CXListCtrl@@QAEXXZ:PROC		; CXListCtrl::UnpressEditBox
EXTRN	??_ECDlgStrategyList@@UAEPAXI@Z:PROC		; CDlgStrategyList::`vector deleting destructor'
EXTRN	?LoadEditor@CDlgStrategyConfigure@@QAEXV?$CStringT@DV?$StrTraitMFC_DLL@DV?$ChTraitsCRT@D@ATL@@@@@ATL@@@Z:PROC ; CDlgStrategyConfigure::LoadEditor
EXTRN	?RunST@CDlgStrategyConfigure@@QAEHHAAV?$CStringT@DV?$StrTraitMFC_DLL@DV?$ChTraitsCRT@D@ATL@@@@@ATL@@@Z:PROC ; CDlgStrategyConfigure::RunST
EXTRN	__imp__chmod:PROC
EXTRN	@__security_check_cookie@4:PROC
EXTRN	___CxxFrameHandler3:PROC
EXTRN	_memset:PROC
EXTRN	??_7type_info@@6B@:QWORD			; type_info::`vftable'
EXTRN	___security_cookie:DWORD
;	COMDAT ?_OptionsStorage@?1??__local_stdio_scanf_options@@9@4_KA
_BSS	SEGMENT
?_OptionsStorage@?1??__local_stdio_scanf_options@@9@4_KA DQ 01H DUP (?) ; `__local_stdio_scanf_options'::`2'::_OptionsStorage
_BSS	ENDS
_BSS	SEGMENT
?RMSG_INTERFACE@@3IB DD 01H DUP (?)			; RMSG_INTERFACE
?RMSG_FORMINITIALCOMPLETED@@3IB DD 01H DUP (?)		; RMSG_FORMINITIALCOMPLETED
?RMSG_EVENT_CODEINPUT@@3IB DD 01H DUP (?)		; RMSG_EVENT_CODEINPUT
?RMSG_EVENT_ACCTINPUT@@3IB DD 01H DUP (?)		; RMSG_EVENT_ACCTINPUT
?RMSG_EVENT_SPININPUT@@3IB DD 01H DUP (?)		; RMSG_EVENT_SPININPUT
?RMSG_EVENT_SIGNAL@@3IB DD 01H DUP (?)			; RMSG_EVENT_SIGNAL
?RMSG_FORMSTATECHANGE@@3IB DD 01H DUP (?)		; RMSG_FORMSTATECHANGE
?RMSG_TABSTOP@@3IB DD 01H DUP (?)			; RMSG_TABSTOP
?RMSG_LBTNDBLCLICK@@3IB DD 01H DUP (?)			; RMSG_LBTNDBLCLICK
?RMSG_LBTNDOWN@@3IB DD 01H DUP (?)			; RMSG_LBTNDOWN
?RMSG_ENDSCROLLPOS@@3IB DD 01H DUP (?)			; RMSG_ENDSCROLLPOS
?RMSG_LSHAREDCHANGED@@3IB DD 01H DUP (?)		; RMSG_LSHAREDCHANGED
?RMSG_STCONFIGURENAME@@3IB DD 01H DUP (?)		; RMSG_STCONFIGURENAME
?RMSG_STCONTROLLER_POINTER@@3IB DD 01H DUP (?)		; RMSG_STCONTROLLER_POINTER
?RMSG_STSAVETOUSERST@@3IB DD 01H DUP (?)		; RMSG_STSAVETOUSERST
_BSS	ENDS
CRT$XCU	SEGMENT
?RMSG_INTERFACE$initializer$@@3P6AXXZA DD FLAT:??__ERMSG_INTERFACE@@YAXXZ ; RMSG_INTERFACE$initializer$
CRT$XCU	ENDS
;	COMDAT __xmm@00000190000000000000000000000000
CONST	SEGMENT
__xmm@00000190000000000000000000000000 DB 00H, 00H, 00H, 00H, 00H, 00H, 00H
	DB	00H, 00H, 00H, 00H, 00H, 090H, 01H, 00H, 00H
CONST	ENDS
;	COMDAT __xmm@000000f0000002440000001e00000000
CONST	SEGMENT
__xmm@000000f0000002440000001e00000000 DB 00H, 00H, 00H, 00H, 01eH, 00H, 00H
	DB	00H, 'D', 02H, 00H, 00H, 0f0H, 00H, 00H, 00H
CONST	ENDS
;	COMDAT __xmm@0000000a00000000000000d700000005
CONST	SEGMENT
__xmm@0000000a00000000000000d700000005 DB 05H, 00H, 00H, 00H, 0d7H, 00H, 00H
	DB	00H, 00H, 00H, 00H, 00H, 0aH, 00H, 00H, 00H
CONST	ENDS
;	COMDAT ??_R1A@?0A@EA@CDlgStrategyList@@8
rdata$r	SEGMENT
??_R1A@?0A@EA@CDlgStrategyList@@8 DD FLAT:??_R0?AVCDlgStrategyList@@@8 ; CDlgStrategyList::`RTTI Base Class Descriptor at (0,-1,0,64)'
	DD	04H
	DD	00H
	DD	0ffffffffH
	DD	00H
	DD	040H
	DD	FLAT:??_R3CDlgStrategyList@@8
rdata$r	ENDS
;	COMDAT ??_R2CDlgStrategyList@@8
rdata$r	SEGMENT
??_R2CDlgStrategyList@@8 DD FLAT:??_R1A@?0A@EA@CDlgStrategyList@@8 ; CDlgStrategyList::`RTTI Base Class Array'
	DD	FLAT:??_R1A@?0A@EA@CDialog@@8
	DD	FLAT:??_R1A@?0A@EA@CWnd@@8
	DD	FLAT:??_R1A@?0A@EA@CCmdTarget@@8
	DD	FLAT:??_R1A@?0A@EA@CObject@@8
rdata$r	ENDS
;	COMDAT ??_R3CDlgStrategyList@@8
rdata$r	SEGMENT
??_R3CDlgStrategyList@@8 DD 00H				; CDlgStrategyList::`RTTI Class Hierarchy Descriptor'
	DD	00H
	DD	05H
	DD	FLAT:??_R2CDlgStrategyList@@8
rdata$r	ENDS
;	COMDAT ??_R0?AVCDlgStrategyList@@@8
data$rs	SEGMENT
??_R0?AVCDlgStrategyList@@@8 DD FLAT:??_7type_info@@6B@	; CDlgStrategyList `RTTI Type Descriptor'
	DD	00H
	DB	'.?AVCDlgStrategyList@@', 00H
data$rs	ENDS
;	COMDAT ??_R4CDlgStrategyList@@6B@
rdata$r	SEGMENT
??_R4CDlgStrategyList@@6B@ DD 00H			; CDlgStrategyList::`RTTI Complete Object Locator'
	DD	00H
	DD	00H
	DD	FLAT:??_R0?AVCDlgStrategyList@@@8
	DD	FLAT:??_R3CDlgStrategyList@@8
rdata$r	ENDS
;	COMDAT ??_C@_06OJFAJFEJ@?$LK?$KP?$LM?v?$LA?$KK@
CONST	SEGMENT
??_C@_06OJFAJFEJ@?$LK?$KP?$LM?v?$LA?$KK@ DB 0baH, 0afH, 0bcH, 0f6H, 0b0H, 0aaH
	DB	00H						; `string'
CONST	ENDS
;	COMDAT ??_C@_06FIHLBNDD@?$LK?$KP?$LM?v?$LI?m@
CONST	SEGMENT
??_C@_06FIHLBNDD@?$LK?$KP?$LM?v?$LI?m@ DB 0baH, 0afH, 0bcH, 0f6H, 0b8H, 0edH
	DB	00H						; `string'
CONST	ENDS
;	COMDAT ??_C@_0M@MKPENJBJ@InputName?$CFd@
CONST	SEGMENT
??_C@_0M@MKPENJBJ@InputName?$CFd@ DB 'InputName%d', 00H	; `string'
CONST	ENDS
;	COMDAT ??_C@_07MHLIEPKG@?$CFs?2?$CFs?$CFs@
CONST	SEGMENT
??_C@_07MHLIEPKG@?$CFs?2?$CFs?$CFs@ DB '%s\%s%s', 00H	; `string'
CONST	ENDS
;	COMDAT ??_C@_08JFMIELNJ@InputCnt@
CONST	SEGMENT
??_C@_08JFMIELNJ@InputCnt@ DB 'InputCnt', 00H		; `string'
CONST	ENDS
;	COMDAT ??_C@_05DCDOHKAB@Input@
CONST	SEGMENT
??_C@_05DCDOHKAB@Input@ DB 'Input', 00H			; `string'
CONST	ENDS
;	COMDAT ??_C@_09IJIPICN@Variables@
CONST	SEGMENT
??_C@_09IJIPICN@Variables@ DB 'Variables', 00H		; `string'
CONST	ENDS
;	COMDAT ??_C@_08PHIBHFDB@RunClear@
CONST	SEGMENT
??_C@_08PHIBHFDB@RunClear@ DB 'RunClear', 00H		; `string'
CONST	ENDS
;	COMDAT ??_C@_08DIPLEMAP@RunSetup@
CONST	SEGMENT
??_C@_08DIPLEMAP@RunSetup@ DB 'RunSetup', 00H		; `string'
CONST	ENDS
;	COMDAT ??_C@_08IFJCKPBE@RunJumun@
CONST	SEGMENT
??_C@_08IFJCKPBE@RunJumun@ DB 'RunJumun', 00H		; `string'
CONST	ENDS
;	COMDAT ??_C@_06CPODCDOI@Signal@
CONST	SEGMENT
??_C@_06CPODCDOI@Signal@ DB 'Signal', 00H		; `string'
CONST	ENDS
;	COMDAT ??_C@_06CJEEKDIM@IMSIST@
CONST	SEGMENT
??_C@_06CJEEKDIM@IMSIST@ DB 'IMSIST', 00H		; `string'
CONST	ENDS
;	COMDAT ??_C@_08KJEDNCKC@?$CFs?$CFs?$CFs?$CFs@
CONST	SEGMENT
??_C@_08KJEDNCKC@?$CFs?$CFs?$CFs?$CFs@ DB '%s%s%s%s', 00H ; `string'
CONST	ENDS
;	COMDAT ??_C@_0O@OIDGLFFC@?2STData?2Temp?2@
CONST	SEGMENT
??_C@_0O@OIDGLFFC@?2STData?2Temp?2@ DB '\STData\Temp\', 00H ; `string'
CONST	ENDS
;	COMDAT ??_C@_0BA@PIGBAOMG@STLIST_MODIFIED@
CONST	SEGMENT
??_C@_0BA@PIGBAOMG@STLIST_MODIFIED@ DB 'STLIST_MODIFIED', 00H ; `string'
CONST	ENDS
;	COMDAT ??_C@_0BM@DBODABJK@fnShowConfigureDlgRunMainEx@
CONST	SEGMENT
??_C@_0BM@DBODABJK@fnShowConfigureDlgRunMainEx@ DB 'fnShowConfigureDlgRun'
	DB	'MainEx', 00H				; `string'
CONST	ENDS
;	COMDAT ??_C@_0BI@GAHPEGNH@?2dev?2STConfigureDlg?4dll@
CONST	SEGMENT
??_C@_0BI@GAHPEGNH@?2dev?2STConfigureDlg?4dll@ DB '\dev\STConfigureDlg.dl'
	DB	'l', 00H					; `string'
CONST	ENDS
;	COMDAT ??_C@_0BJ@GJNCLGJM@?$MA?$PM?$LH?$KL?$MA?$LL?5?$LL?h?A?$KG?G?O?$LN?C?$LA?Z?$LN?$MA?$LE?O?$LB?n?$DP@
CONST	SEGMENT
??_C@_0BJ@GJNCLGJM@?$MA?$PM?$LH?$KL?$MA?$LL?5?$LL?h?A?$KG?G?O?$LN?C?$LA?Z?$LN?$MA?$LE?O?$LB?n?$DP@ DB 0c0H
	DB	0fcH, 0b7H, 0abH, 0c0H, 0bbH, ' ', 0bbH, 0e8H, 0c1H, 0a6H, 0c7H
	DB	0cfH, 0bdH, 0c3H, 0b0H, 0daH, 0bdH, 0c0H, 0b4H, 0cfH, 0b1H, 0eeH
	DB	'?', 00H					; `string'
CONST	ENDS
;	COMDAT ??_C@_0DP@JJIEBPED@?$LA?$LA?$MA?$LK?5?$MA?$PM?$LH?$KL?$LI?m?$MA?L?5?$MA?L?$LJ?L?5?A?$LI?$MA?g?G?U?$LE?O?$LE?Y?4?5@
CONST	SEGMENT
??_C@_0DP@JJIEBPED@?$LA?$LA?$MA?$LK?5?$MA?$PM?$LH?$KL?$LI?m?$MA?L?5?$MA?L?$LJ?L?5?A?$LI?$MA?g?G?U?$LE?O?$LE?Y?4?5@ DB 0b0H
	DB	0b0H, 0c0H, 0baH, ' ', 0c0H, 0fcH, 0b7H, 0abH, 0b8H, 0edH, 0c0H
	DB	0ccH, ' ', 0c0H, 0ccH, 0b9H, 0ccH, ' ', 0c1H, 0b8H, 0c0H, 0e7H
	DB	0c7H, 0d5H, 0b4H, 0cfH, 0b4H, 0d9H, '. ', 0aH, ' ', 0b1H, 0e2H
	DB	0c1H, 0b8H, ' ', 0c6H, 0c4H, 0c0H, 0cfH, 0c0H, 0bbH, ' ', 0b5H
	DB	0a4H, 0beH, 0eeH, 0beH, 0b2H, 0bdH, 0c3H, 0b0H, 0daH, 0bdH, 0c0H
	DB	0b4H, 0cfH, 0b1H, 0eeH, '?', 00H		; `string'
CONST	ENDS
;	COMDAT ??_C@_0DC@JJJMJJPP@?F?D?$MA?O?$LI?m?$MA?G?5?$LB?f?$MA?L?$LA?$KB?5?$LD?J?$LJ?$KL?5?$LB?i?$LE?O?$LE?Y?4?5?$MA?$PM@
CONST	SEGMENT
??_C@_0DC@JJJMJJPP@?F?D?$MA?O?$LI?m?$MA?G?5?$LB?f?$MA?L?$LA?$KB?5?$LD?J?$LJ?$KL?5?$LB?i?$LE?O?$LE?Y?4?5?$MA?$PM@ DB 0c6H
	DB	0c4H, 0c0H, 0cfH, 0b8H, 0edH, 0c0H, 0c7H, ' ', 0b1H, 0e6H, 0c0H
	DB	0ccH, 0b0H, 0a1H, ' ', 0b3H, 0caH, 0b9H, 0abH, ' ', 0b1H, 0e9H
	DB	0b4H, 0cfH, 0b4H, 0d9H, '. ', 0c0H, 0fcH, 0b7H, 0abH, 0b8H, 0edH
	DB	0c0H, 0bbH, ' ', 0c1H, 0d9H, 0bfH, 0a9H, 0c1H, 0d6H, 0bcH, 0bcH
	DB	0bfH, 0e4H, '.', 00H				; `string'
CONST	ENDS
;	COMDAT ??_C@_0BB@PJJNFPEB@?2?$LL?g?$LP?k?$MA?Z?A?$LG?G?U?$MA?$PM?$LH?$KL?2@
CONST	SEGMENT
??_C@_0BB@PJJNFPEB@?2?$LL?g?$LP?k?$MA?Z?A?$LG?G?U?$MA?$PM?$LH?$KL?2@ DB '\'
	DB	0bbH, 0e7H, 0bfH, 0ebH, 0c0H, 0daH, 0c1H, 0b6H, 0c7H, 0d5H, 0c0H
	DB	0fcH, 0b7H, 0abH, '\', 00H			; `string'
CONST	ENDS
;	COMDAT ??_C@_0BB@FBICNCLM@?2?$LL?g?$LP?k?$MA?Z?$LE?$NM?$MA?$KH?$MA?$PM?$LH?$KL?2@
CONST	SEGMENT
??_C@_0BB@FBICNCLM@?2?$LL?g?$LP?k?$MA?Z?$LE?$NM?$MA?$KH?$MA?$PM?$LH?$KL?2@ DB '\'
	DB	0bbH, 0e7H, 0bfH, 0ebH, 0c0H, 0daH, 0b4H, 0dcH, 0c0H, 0a7H, 0c0H
	DB	0fcH, 0b7H, 0abH, '\', 00H			; `string'
CONST	ENDS
;	COMDAT ??_C@_04HDOCAJNK@?$CFs?$CFs@
CONST	SEGMENT
??_C@_04HDOCAJNK@?$CFs?$CFs@ DB '%s%s', 00H		; `string'
CONST	ENDS
;	COMDAT ??_C@_0CK@PLOMFNEF@?$MA?$PM?$LH?$KL?$LI?m?$LP?$KB?$LE?B?5?8?$EA?8?5?$LJ?$KO?$MA?Z?$LE?B?5?$LF?i?$LO?n?$LA?$KF?5?$LM?v@
CONST	SEGMENT
??_C@_0CK@PLOMFNEF@?$MA?$PM?$LH?$KL?$LI?m?$LP?$KB?$LE?B?5?8?$EA?8?5?$LJ?$KO?$MA?Z?$LE?B?5?$LF?i?$LO?n?$LA?$KF?5?$LM?v@ DB 0c0H
	DB	0fcH, 0b7H, 0abH, 0b8H, 0edH, 0bfH, 0a1H, 0b4H, 0c2H, ' ''@'' '
	DB	0b9H, 0aeH, 0c0H, 0daH, 0b4H, 0c2H, ' ', 0b5H, 0e9H, 0beH, 0eeH
	DB	0b0H, 0a5H, ' ', 0bcH, 0f6H, ' ', 0beH, 0f8H, 0bdH, 0c0H, 0b4H
	DB	0cfH, 0b4H, 0d9H, '.', 00H			; `string'
CONST	ENDS
;	COMDAT ??_C@_01EOFPKCAF@?$EA@
CONST	SEGMENT
??_C@_01EOFPKCAF@?$EA@ DB '@', 00H			; `string'
CONST	ENDS
;	COMDAT ??_C@_01JKBOJNNK@?$FO@
CONST	SEGMENT
??_C@_01JKBOJNNK@?$FO@ DB '^', 00H			; `string'
CONST	ENDS
;	COMDAT ??_C@_0CJ@BJKBFEL@?$LM?$LB?E?C?$LF?H?5?$MA?$PM?$LH?$KL?$MA?L?$LI?$KH?$MA?L?5?$LO?x?$LN?$MA?$LE?O?$LE?Y?4?5?H?$KO?$MA@
CONST	SEGMENT
??_C@_0CJ@BJKBFEL@?$LM?$LB?E?C?$LF?H?5?$MA?$PM?$LH?$KL?$MA?L?$LI?$KH?$MA?L?5?$LO?x?$LN?$MA?$LE?O?$LE?Y?4?5?H?$KO?$MA@ DB 0bcH
	DB	0b1H, 0c5H, 0c3H, 0b5H, 0c8H, ' ', 0c0H, 0fcH, 0b7H, 0abH, 0c0H
	DB	0ccH, 0b8H, 0a7H, 0c0H, 0ccH, ' ', 0beH, 0f8H, 0bdH, 0c0H, 0b4H
	DB	0cfH, 0b4H, 0d9H, '. ', 0c8H, 0aeH, 0c0H, 0ceH, 0b9H, 0d9H, 0b6H
	DB	0f8H, 0b4H, 0cfH, 0b4H, 0d9H, 00H		; `string'
CONST	ENDS
;	COMDAT ??_C@_0BN@HLMFCOBG@?C?V?$LE?k?5?$CFd?$LA?$LD?$LB?n?A?v?5?$LA?$KB?$LE?I?G?U?$LE?O?$LE?Y?4?$CI2?$CJ@
CONST	SEGMENT
??_C@_0BN@HLMFCOBG@?C?V?$LE?k?5?$CFd?$LA?$LD?$LB?n?A?v?5?$LA?$KB?$LE?I?G?U?$LE?O?$LE?Y?4?$CI2?$CJ@ DB 0c3H
	DB	0d6H, 0b4H, 0ebH, ' %d', 0b0H, 0b3H, 0b1H, 0eeH, 0c1H, 0f6H, ' '
	DB	0b0H, 0a1H, 0b4H, 0c9H, 0c7H, 0d5H, 0b4H, 0cfH, 0b4H, 0d9H, '.'
	DB	'(2)', 00H					; `string'
CONST	ENDS
;	COMDAT ??_C@_01GBGANLPD@0@
CONST	SEGMENT
??_C@_01GBGANLPD@0@ DB '0', 00H				; `string'
CONST	ENDS
;	COMDAT ??_C@_0BN@HJIDJAEP@?C?V?$LE?k?5?$CFd?$LA?$LD?$LB?n?A?v?5?$LA?$KB?$LE?I?G?U?$LE?O?$LE?Y?4?$CI1?$CJ@
CONST	SEGMENT
??_C@_0BN@HJIDJAEP@?C?V?$LE?k?5?$CFd?$LA?$LD?$LB?n?A?v?5?$LA?$KB?$LE?I?G?U?$LE?O?$LE?Y?4?$CI1?$CJ@ DB 0c3H
	DB	0d6H, 0b4H, 0ebH, ' %d', 0b0H, 0b3H, 0b1H, 0eeH, 0c1H, 0f6H, ' '
	DB	0b0H, 0a1H, 0b4H, 0c9H, 0c7H, 0d5H, 0b4H, 0cfH, 0b4H, 0d9H, '.'
	DB	'(1)', 00H					; `string'
CONST	ENDS
;	COMDAT ??_C@_09FALOBHDH@LogicData@
CONST	SEGMENT
??_C@_09FALOBHDH@LogicData@ DB 'LogicData', 00H		; `string'
CONST	ENDS
;	COMDAT ??_C@_07OPGJHLBD@PosText@
CONST	SEGMENT
??_C@_07OPGJHLBD@PosText@ DB 'PosText', 00H		; `string'
CONST	ENDS
;	COMDAT ??_C@_07OMILIGCA@PosTime@
CONST	SEGMENT
??_C@_07OMILIGCA@PosTime@ DB 'PosTime', 00H		; `string'
CONST	ENDS
;	COMDAT ??_C@_07KIGMOBJM@PosType@
CONST	SEGMENT
??_C@_07KIGMOBJM@PosType@ DB 'PosType', 00H		; `string'
CONST	ENDS
;	COMDAT ??_C@_07DGPCBOM@PosName@
CONST	SEGMENT
??_C@_07DGPCBOM@PosName@ DB 'PosName', 00H		; `string'
CONST	ENDS
;	COMDAT ??_C@_04HGGBINEM@?$CFs?$CFd@
CONST	SEGMENT
??_C@_04HGGBINEM@?$CFs?$CFd@ DB '%s%d', 00H		; `string'
CONST	ENDS
;	COMDAT ??_C@_03FCCPIJGJ@Pos@
CONST	SEGMENT
??_C@_03FCCPIJGJ@Pos@ DB 'Pos', 00H			; `string'
CONST	ENDS
;	COMDAT ??_C@_0N@GKFNKJGL@StrategyList@
CONST	SEGMENT
??_C@_0N@GKFNKJGL@StrategyList@ DB 'StrategyList', 00H	; `string'
CONST	ENDS
;	COMDAT ??_C@_05IJGIMMHE@Count@
CONST	SEGMENT
??_C@_05IJGIMMHE@Count@ DB 'Count', 00H			; `string'
CONST	ENDS
;	COMDAT ??_C@_01KICIPPFI@?2@
CONST	SEGMENT
??_C@_01KICIPPFI@?2@ DB '\', 00H			; `string'
CONST	ENDS
;	COMDAT ??_C@_04GJEMHMEM@?4sts@
CONST	SEGMENT
??_C@_04GJEMHMEM@?4sts@ DB '.sts', 00H			; `string'
CONST	ENDS
;	COMDAT ??_C@_02MEPHBMOK@?F?$LN@
CONST	SEGMENT
??_C@_02MEPHBMOK@?F?$LN@ DB 0c6H, 0bdH, 00H		; `string'
CONST	ENDS
;	COMDAT ??_C@_02EJEPJIDE@?$LK?P@
CONST	SEGMENT
??_C@_02EJEPJIDE@?$LK?P@ DB 0baH, 0d0H, 00H		; `string'
CONST	ENDS
;	COMDAT ??_C@_09CBEKMPDN@?$CFs?$CFs?2?$CFs?$CFs@
CONST	SEGMENT
??_C@_09CBEKMPDN@?$CFs?$CFs?2?$CFs?$CFs@ DB '%s%s\%s%s', 00H ; `string'
CONST	ENDS
;	COMDAT ??_C@_0BK@COPOICEF@?2STDATA?2ST?2?$LL?g?$LP?k?$MA?Z?A?$LG?G?U?$MA?$PM?$LH?$KL@
CONST	SEGMENT
??_C@_0BK@COPOICEF@?2STDATA?2ST?2?$LL?g?$LP?k?$MA?Z?A?$LG?G?U?$MA?$PM?$LH?$KL@ DB '\'
	DB	'STDATA\ST\', 0bbH, 0e7H, 0bfH, 0ebH, 0c0H, 0daH, 0c1H, 0b6H, 0c7H
	DB	0d5H, 0c0H, 0fcH, 0b7H, 0abH, 00H		; `string'
CONST	ENDS
;	COMDAT ??_C@_03COHLPAFH@?4ST@
CONST	SEGMENT
??_C@_03COHLPAFH@?4ST@ DB '.ST', 00H			; `string'
CONST	ENDS
;	COMDAT ??_C@_0FG@LKHGOMIG@?$LL?g?$LP?k?$MA?Z?$MA?$PM?$LH?$KL?$LI?$LI?$MA?L?5?$LM?$LD?A?$KE?$LK?$KP?$LA?f?$MA?L?5?$LA?$KB?$LE?I?G@
CONST	SEGMENT
??_C@_0FG@LKHGOMIG@?$LL?g?$LP?k?$MA?Z?$MA?$PM?$LH?$KL?$LI?$LI?$MA?L?5?$LM?$LD?A?$KE?$LK?$KP?$LA?f?$MA?L?5?$LA?$KB?$LE?I?G@ DB 0bbH
	DB	0e7H, 0bfH, 0ebH, 0c0H, 0daH, 0c0H, 0fcH, 0b7H, 0abH, 0b8H, 0b8H
	DB	0c0H, 0ccH, ' ', 0bcH, 0b3H, 0c1H, 0a4H, 0baH, 0afH, 0b0H, 0e6H
	DB	0c0H, 0ccH, ' ', 0b0H, 0a1H, 0b4H, 0c9H, 0c7H, 0d5H, 0b4H, 0cfH
	DB	0b4H, 0d9H, '.', 0aH, 0bcH, 0b1H, 0c5H, 0c3H, 0c7H, 0d1H, 0c0H
	DB	0fcH, 0b7H, 0abH, 0b5H, 0e9H, 0c0H, 0bbH, ' ', 0bbH, 0e7H, 0bfH
	DB	0ebH, 0c0H, 0daH, 0c0H, 0fcH, 0b7H, 0abH, 0c0H, 0b8H, 0b7H, 0ceH
	DB	' ', 0c0H, 0faH, 0c0H, 0e5H, 0c7H, 0cfH, 0bdH, 0c3H, 0b0H, 0daH
	DB	0bdH, 0c0H, 0b4H, 0cfH, 0b1H, 0eeH, '?', 00H	; `string'
CONST	ENDS
;	COMDAT ??_C@_04FFLLBBHL@?4SFG@
CONST	SEGMENT
??_C@_04FFLLBBHL@?4SFG@ DB '.SFG', 00H			; `string'
CONST	ENDS
;	COMDAT ??_C@_01MMEEDKFM@X@
CONST	SEGMENT
??_C@_01MMEEDKFM@X@ DB 'X', 00H				; `string'
CONST	ENDS
;	COMDAT ??_C@_04EKOCOPPL@?F?m?A?$PN@
CONST	SEGMENT
??_C@_04EKOCOPPL@?F?m?A?$PN@ DB 0c6H, 0edH, 0c1H, 0fdH, 00H ; `string'
CONST	ENDS
;	COMDAT ??_C@_02HAOIJKIC@?$CFc@
CONST	SEGMENT
??_C@_02HAOIJKIC@?$CFc@ DB '%c', 00H			; `string'
CONST	ENDS
;	COMDAT ??_C@_0L@FNFCAPPB@?2STDATA?2SD@
CONST	SEGMENT
??_C@_0L@FNFCAPPB@?2STDATA?2SD@ DB '\STDATA\SD', 00H	; `string'
CONST	ENDS
;	COMDAT ??_C@_02NNHDHLCM@?$MA?O@
CONST	SEGMENT
??_C@_02NNHDHLCM@?$MA?O@ DB 0c0H, 0cfH, 00H		; `string'
CONST	ENDS
;	COMDAT ??_C@_04EAPBPCMF@?$CFd?F?$LN@
CONST	SEGMENT
??_C@_04EAPBPCMF@?$CFd?F?$LN@ DB '%d', 0c6H, 0bdH, 00H	; `string'
CONST	ENDS
;	COMDAT ??_C@_04MNEJHGBL@?$CFd?$LK?P@
CONST	SEGMENT
??_C@_04MNEJHGBL@?$CFd?$LK?P@ DB '%d', 0baH, 0d0H, 00H	; `string'
CONST	ENDS
;	COMDAT ??_C@_04CJGEDOF@next@
CONST	SEGMENT
??_C@_04CJGEDOF@next@ DB 'next', 00H			; `string'
CONST	ENDS
;	COMDAT ??_C@_02FODMLBIE@or@
CONST	SEGMENT
??_C@_02FODMLBIE@or@ DB 'or', 00H			; `string'
CONST	ENDS
;	COMDAT ??_C@_03BOPJPIAM@and@
CONST	SEGMENT
??_C@_03BOPJPIAM@and@ DB 'and', 00H			; `string'
CONST	ENDS
;	COMDAT ??_C@_04CFDBLPCI@?$LL?h?A?$KG@
CONST	SEGMENT
??_C@_04CFDBLPCI@?$LL?h?A?$KG@ DB 0bbH, 0e8H, 0c1H, 0a6H, 00H ; `string'
CONST	ENDS
;	COMDAT ??_C@_04BFOBCBBG@?$LM?v?A?$KE@
CONST	SEGMENT
??_C@_04BFOBCBBG@?$LM?v?A?$KE@ DB 0bcH, 0f6H, 0c1H, 0a4H, 00H ; `string'
CONST	ENDS
;	COMDAT ??_C@_04PFAGJEJF@?$LN?C?$LA?$KD@
CONST	SEGMENT
??_C@_04PFAGJEJF@?$LN?C?$LA?$KD@ DB 0bdH, 0c3H, 0b0H, 0a3H, 00H ; `string'
CONST	ENDS
;	COMDAT ??_C@_04JEFEGHFG@?A?$LG?$LA?G@
CONST	SEGMENT
??_C@_04JEFEGHFG@?A?$LG?$LA?G@ DB 0c1H, 0b6H, 0b0H, 0c7H, 00H ; `string'
CONST	ENDS
;	COMDAT ??_C@_04MGFIDEAB@?$MA?L?$LI?$KH@
CONST	SEGMENT
??_C@_04MGFIDEAB@?$MA?L?$LI?$KH@ DB 0c0H, 0ccH, 0b8H, 0a7H, 00H ; `string'
CONST	ENDS
;	COMDAT ??_C@_06MFMMLLPC@?$LB?$LM?$LI?$LC?C?$LM@
CONST	SEGMENT
??_C@_06MFMMLLPC@?$LB?$LM?$LI?$LC?C?$LM@ DB 0b1H, 0bcH, 0b8H, 0b2H, 0c3H, 0bcH
	DB	00H						; `string'
CONST	ENDS
;	COMDAT ?messageMap@?1??GetThisMessageMap@CDlgStrategyList@@KGPBUAFX_MSGMAP@@XZ@4U3@B
CONST	SEGMENT
?messageMap@?1??GetThisMessageMap@CDlgStrategyList@@KGPBUAFX_MSGMAP@@XZ@4U3@B DD FLAT:?GetThisMessageMap@CDialog@@KGPBUAFX_MSGMAP@@XZ ; `CDlgStrategyList::GetThisMessageMap'::`2'::messageMap
	DD	FLAT:?_messageEntries@?1??GetThisMessageMap@CDlgStrategyList@@KGPBUAFX_MSGMAP@@XZ@4QBUAFX_MSGMAP_ENTRY@@B
CONST	ENDS
;	COMDAT ?_messageEntries@?1??GetThisMessageMap@CDlgStrategyList@@KGPBUAFX_MSGMAP@@XZ@4QBUAFX_MSGMAP_ENTRY@@B
CONST	SEGMENT
?_messageEntries@?1??GetThisMessageMap@CDlgStrategyList@@KGPBUAFX_MSGMAP@@XZ@4QBUAFX_MSGMAP_ENTRY@@B DD 0113H ; `CDlgStrategyList::GetThisMessageMap'::`2'::_messageEntries
	DD	00H
	DD	00H
	DD	00H
	DD	015H
	DD	FLAT:?OnTimer@CDlgStrategyList@@IAEXI@Z
	DD	05H
	DD	00H
	DD	00H
	DD	00H
	DD	01aH
	DD	FLAT:?OnSize@CDlgStrategyList@@IAEXIHH@Z
	DD	02H
	DD	00H
	DD	00H
	DD	00H
	DD	013H
	DD	FLAT:?OnDestroy@CDlgStrategyList@@IAEXXZ
	DD	0111H
	DD	00H
	DD	0697bH
	DD	0697bH
	DD	03aH
	DD	FLAT:?OnBtnInit@CDlgStrategyList@@IAEXXZ
	DD	0111H
	DD	00H
	DD	0697fH
	DD	0697fH
	DD	03aH
	DD	FLAT:?OnBtnDown@CDlgStrategyList@@IAEXXZ
	DD	0111H
	DD	00H
	DD	0697eH
	DD	0697eH
	DD	03aH
	DD	FLAT:?OnBtnUp@CDlgStrategyList@@IAEXXZ
	DD	0111H
	DD	00H
	DD	06981H
	DD	06981H
	DD	03aH
	DD	FLAT:?OnBtnAnd@CDlgStrategyList@@IAEXXZ
	DD	0111H
	DD	00H
	DD	06982H
	DD	06982H
	DD	03aH
	DD	FLAT:?OnBtnOr@CDlgStrategyList@@IAEXXZ
	DD	0111H
	DD	00H
	DD	06983H
	DD	06983H
	DD	03aH
	DD	FLAT:?OnBtnNext@CDlgStrategyList@@IAEXXZ
	DD	0111H
	DD	00H
	DD	069aaH
	DD	069aaH
	DD	03aH
	DD	FLAT:?OnBtnNot@CDlgStrategyList@@IAEXXZ
	DD	0111H
	DD	00H
	DD	069b6H
	DD	069b6H
	DD	03aH
	DD	FLAT:?OnBtnTrue@CDlgStrategyList@@IAEXXZ
	DD	0111H
	DD	00H
	DD	06984H
	DD	06984H
	DD	03aH
	DD	FLAT:?OnBtnParenthesis@CDlgStrategyList@@IAEXXZ
	DD	0111H
	DD	00H
	DD	06985H
	DD	06985H
	DD	03aH
	DD	FLAT:?OnBtnX@CDlgStrategyList@@IAEXXZ
	DD	0111H
	DD	00H
	DD	069b8H
	DD	069b8H
	DD	03aH
	DD	FLAT:?OnBtSave@CDlgStrategyList@@IAEXXZ
	DD	0111H
	DD	00H
	DD	069bbH
	DD	069bbH
	DD	03aH
	DD	FLAT:?OnBtnDelete@CDlgStrategyList@@IAEXXZ
	DD	0111H
	DD	00H
	DD	0698cH
	DD	0698cH
	DD	03aH
	DD	FLAT:?OnBtnEdit@CDlgStrategyList@@IAEXXZ
	DD	019H
	DD	00H
	DD	00H
	DD	00H
	DD	08H
	DD	FLAT:?OnCtlColor@CDlgStrategyList@@IAEPAUHBRUSH__@@PAVCDC@@PAVCWnd@@I@Z
	DD	0111H
	DD	00H
	DD	06986H
	DD	06986H
	DD	03aH
	DD	FLAT:?OnBtnSTDelete@CDlgStrategyList@@IAEXXZ
	DD	0111H
	DD	00H
	DD	03f5H
	DD	03f5H
	DD	03aH
	DD	FLAT:?OnBnClickedSTConfigDlg@CDlgStrategyList@@IAEXXZ
	DD	0111H
	DD	00H
	DD	03f9H
	DD	03f9H
	DD	03aH
	DD	FLAT:?OnBnClickedSTClose@CDlgStrategyList@@IAEXXZ
	DD	0111H
	DD	00H
	DD	03f6H
	DD	03f6H
	DD	03aH
	DD	FLAT:?OnBnClickedSTRun@CDlgStrategyList@@IAEXXZ
	DD	0c000H
	DD	00H
	DD	00H
	DD	00H
	DD	FLAT:?RMSG_STCONTROLLER_POINTER@@3IB
	DD	FLAT:?OnSTController@CDlgStrategyList@@IAEJIJ@Z
	DD	0c000H
	DD	00H
	DD	00H
	DD	00H
	DD	FLAT:?RMSG_STCONFIGURENAME@@3IB
	DD	FLAT:?OnUpdateSTSfg@CDlgStrategyList@@IAEJIJ@Z
	DD	0c000H
	DD	00H
	DD	00H
	DD	00H
	DD	FLAT:?RMSG_STSAVETOUSERST@@3IB
	DD	FLAT:?OnSaveToUserST@CDlgStrategyList@@IAEJIJ@Z
	DD	0111H
	DD	00H
	DD	03f3H
	DD	03f3H
	DD	03aH
	DD	FLAT:?OnBnClickedBtnSystemtrading@CDlgStrategyList@@QAEXXZ
	DD	0111H
	DD	00H
	DD	07150H
	DD	07150H
	DD	03aH
	DD	FLAT:?OnBnClickedButtonSaveconfig@CDlgStrategyList@@QAEXXZ
	DD	00H
	DD	00H
	DD	00H
	DD	00H
	DD	00H
	DD	00H
CONST	ENDS
;	COMDAT ??_C@_01PKGAHCOL@?$CJ@
CONST	SEGMENT
??_C@_01PKGAHCOL@?$CJ@ DB ')', 00H			; `string'
CONST	ENDS
;	COMDAT ??_C@_01IHBHIGKO@?0@
CONST	SEGMENT
??_C@_01IHBHIGKO@?0@ DB ',', 00H			; `string'
CONST	ENDS
;	COMDAT ??_C@_01ODHLEDKK@?$CI@
CONST	SEGMENT
??_C@_01ODHLEDKK@?$CI@ DB '(', 00H			; `string'
CONST	ENDS
;	COMDAT ??_7CDlgStrategyList@@6B@
CONST	SEGMENT
??_7CDlgStrategyList@@6B@ DD FLAT:??_R4CDlgStrategyList@@6B@ ; CDlgStrategyList::`vftable'
	DD	FLAT:?GetRuntimeClass@CDialog@@UBEPAUCRuntimeClass@@XZ
	DD	FLAT:??_ECDlgStrategyList@@UAEPAXI@Z
	DD	FLAT:?Serialize@CObject@@UAEXAAVCArchive@@@Z
	DD	FLAT:?AssertValid@CObject@@UBEXXZ
	DD	FLAT:?Dump@CObject@@UBEXAAVCDumpContext@@@Z
	DD	FLAT:?OnCmdMsg@CDialog@@UAEHIHPAXPAUAFX_CMDHANDLERINFO@@@Z
	DD	FLAT:?OnFinalRelease@CWnd@@UAEXXZ
	DD	FLAT:?IsInvokeAllowed@CCmdTarget@@UAEHJ@Z
	DD	FLAT:?GetDispatchIID@CCmdTarget@@UAEHPAU_GUID@@@Z
	DD	FLAT:?GetTypeInfoCount@CCmdTarget@@UAEIXZ
	DD	FLAT:?GetTypeLibCache@CCmdTarget@@UAEPAVCTypeLibCache@@XZ
	DD	FLAT:?GetTypeLib@CCmdTarget@@UAEJKPAPAUITypeLib@@@Z
	DD	FLAT:?GetMessageMap@CDlgStrategyList@@MBEPBUAFX_MSGMAP@@XZ
	DD	FLAT:?GetCommandMap@CCmdTarget@@MBEPBUAFX_OLECMDMAP@@XZ
	DD	FLAT:?GetDispatchMap@CCmdTarget@@MBEPBUAFX_DISPMAP@@XZ
	DD	FLAT:?GetConnectionMap@CCmdTarget@@MBEPBUAFX_CONNECTIONMAP@@XZ
	DD	FLAT:?GetInterfaceMap@CWnd@@MBEPBUAFX_INTERFACEMAP@@XZ
	DD	FLAT:?GetEventSinkMap@CCmdTarget@@MBEPBUAFX_EVENTSINKMAP@@XZ
	DD	FLAT:?OnCreateAggregates@CCmdTarget@@UAEHXZ
	DD	FLAT:?GetInterfaceHook@CCmdTarget@@UAEPAUIUnknown@@PBX@Z
	DD	FLAT:?GetExtraConnectionPoints@CCmdTarget@@MAEHPAVCPtrArray@@@Z
	DD	FLAT:?GetConnectionHook@CCmdTarget@@MAEPAUIConnectionPoint@@ABU_GUID@@@Z
	DD	FLAT:?PreSubclassWindow@CWnd@@UAEXXZ
	DD	FLAT:?Create@CWnd@@UAEHPBD0KABUtagRECT@@PAV1@IPAUCCreateContext@@@Z
	DD	FLAT:?CreateEx@CWnd@@UAEHKPBD0KABUtagRECT@@PAV1@IPAX@Z
	DD	FLAT:?CreateEx@CWnd@@UAEHKPBD0KHHHHPAUHWND__@@PAUHMENU__@@PAX@Z
	DD	FLAT:?DestroyWindow@CWnd@@UAEHXZ
	DD	FLAT:?PreCreateWindow@CWnd@@UAEHAAUtagCREATESTRUCTA@@@Z
	DD	FLAT:?CalcWindowRect@CWnd@@UAEXPAUtagRECT@@I@Z
	DD	FLAT:?GetMenu@CWnd@@UBEPAVCMenu@@XZ
	DD	FLAT:?SetMenu@CWnd@@UAEHPAVCMenu@@@Z
	DD	FLAT:?OnToolHitTest@CWnd@@UBEHVCPoint@@PAUtagTOOLINFOA@@@Z
	DD	FLAT:?GetScrollBarCtrl@CWnd@@UBEPAVCScrollBar@@H@Z
	DD	FLAT:?WinHelpA@CWnd@@UAEXKI@Z
	DD	FLAT:?HtmlHelpA@CWnd@@UAEXKI@Z
	DD	FLAT:?WinHelpInternal@CWnd@@UAEXKI@Z
	DD	FLAT:?ContinueModal@CWnd@@UAEHXZ
	DD	FLAT:?EndModalLoop@CWnd@@UAEXH@Z
	DD	FLAT:?OnDrawIconicThumbnailOrLivePreview@CWnd@@UAEXAAVCDC@@VCRect@@VCSize@@HAAH@Z
	DD	FLAT:?EnsureStdObj@CWnd@@UAEJXZ
	DD	FLAT:?get_accParent@CWnd@@UAEJPAPAUIDispatch@@@Z
	DD	FLAT:?get_accChildCount@CWnd@@UAEJPAJ@Z
	DD	FLAT:?get_accChild@CWnd@@UAEJUtagVARIANT@@PAPAUIDispatch@@@Z
	DD	FLAT:?get_accName@CWnd@@UAEJUtagVARIANT@@PAPA_W@Z
	DD	FLAT:?get_accValue@CWnd@@UAEJUtagVARIANT@@PAPA_W@Z
	DD	FLAT:?get_accDescription@CWnd@@UAEJUtagVARIANT@@PAPA_W@Z
	DD	FLAT:?get_accRole@CWnd@@UAEJUtagVARIANT@@PAU2@@Z
	DD	FLAT:?get_accState@CWnd@@UAEJUtagVARIANT@@PAU2@@Z
	DD	FLAT:?get_accHelp@CWnd@@UAEJUtagVARIANT@@PAPA_W@Z
	DD	FLAT:?get_accHelpTopic@CWnd@@UAEJPAPA_WUtagVARIANT@@PAJ@Z
	DD	FLAT:?get_accKeyboardShortcut@CWnd@@UAEJUtagVARIANT@@PAPA_W@Z
	DD	FLAT:?get_accFocus@CWnd@@UAEJPAUtagVARIANT@@@Z
	DD	FLAT:?get_accSelection@CWnd@@UAEJPAUtagVARIANT@@@Z
	DD	FLAT:?get_accDefaultAction@CWnd@@UAEJUtagVARIANT@@PAPA_W@Z
	DD	FLAT:?accSelect@CWnd@@UAEJJUtagVARIANT@@@Z
	DD	FLAT:?accLocation@CWnd@@UAEJPAJ000UtagVARIANT@@@Z
	DD	FLAT:?accNavigate@CWnd@@UAEJJUtagVARIANT@@PAU2@@Z
	DD	FLAT:?accHitTest@CWnd@@UAEJJJPAUtagVARIANT@@@Z
	DD	FLAT:?accDoDefaultAction@CWnd@@UAEJUtagVARIANT@@@Z
	DD	FLAT:?put_accName@CWnd@@UAEJUtagVARIANT@@PA_W@Z
	DD	FLAT:?put_accValue@CWnd@@UAEJUtagVARIANT@@PA_W@Z
	DD	FLAT:?SetProxy@CWnd@@UAEJPAUIAccessibleProxy@@@Z
	DD	FLAT:?CreateAccessibleProxy@CWnd@@UAEJIJPAJ@Z
	DD	FLAT:?OnCommand@CWnd@@MAEHIJ@Z
	DD	FLAT:?OnNotify@CDlgStrategyList@@MAEHIJPAJ@Z
	DD	FLAT:?GetSuperWndProcAddr@CWnd@@MAEPAP6GJPAUHWND__@@IIJ@ZXZ
	DD	FLAT:?DoDataExchange@CDlgStrategyList@@MAEXPAVCDataExchange@@@Z
	DD	FLAT:?BeginModalState@CWnd@@UAEXXZ
	DD	FLAT:?EndModalState@CWnd@@UAEXXZ
	DD	FLAT:?PreTranslateMessage@CDlgStrategyList@@UAEHPAUtagMSG@@@Z
	DD	FLAT:?OnAmbientProperty@CWnd@@UAEHPAVCOleControlSite@@JPAUtagVARIANT@@@Z
	DD	FLAT:?WindowProc@CDlgStrategyList@@MAEJIIJ@Z
	DD	FLAT:?OnWndMsg@CWnd@@MAEHIIJPAJ@Z
	DD	FLAT:?DefWindowProcA@CWnd@@MAEJIIJ@Z
	DD	FLAT:?PostNcDestroy@CWnd@@MAEXXZ
	DD	FLAT:?OnChildNotify@CWnd@@MAEHIIJPAJ@Z
	DD	FLAT:?OnTouchInputs@CWnd@@MAEHIPAUtagTOUCHINPUT@@@Z
	DD	FLAT:?OnTouchInput@CWnd@@MAEHVCPoint@@HHPAUtagTOUCHINPUT@@@Z
	DD	FLAT:?GetGestureStatus@CWnd@@MAEKVCPoint@@@Z
	DD	FLAT:?OnGestureZoom@CWnd@@MAEHVCPoint@@J@Z
	DD	FLAT:?OnGesturePan@CWnd@@MAEHVCPoint@@0@Z
	DD	FLAT:?OnGestureRotate@CWnd@@MAEHVCPoint@@N@Z
	DD	FLAT:?OnGestureTwoFingerTap@CWnd@@MAEHVCPoint@@@Z
	DD	FLAT:?OnGesturePressAndTap@CWnd@@MAEHVCPoint@@J@Z
	DD	FLAT:?ResizeDynamicLayout@CWnd@@MAEXXZ
	DD	FLAT:?CheckAutoCenter@CDialog@@UAEHXZ
	DD	FLAT:?IsFrameWnd@CWnd@@UBEHXZ
	DD	FLAT:?CreateControlContainer@CWnd@@MAEHPAPAVCOleControlContainer@@@Z
	DD	FLAT:?CreateControlSite@CWnd@@MAEHPAVCOleControlContainer@@PAPAVCOleControlSite@@IABU_GUID@@@Z
	DD	FLAT:?SetOccDialogInfo@CDialog@@MAEHPAU_AFX_OCC_DIALOG_INFO@@@Z
	DD	FLAT:?GetOccDialogInfo@CDialog@@MAEPAU_AFX_OCC_DIALOG_INFO@@XZ
	DD	FLAT:?Create@CDialog@@UAEHIPAVCWnd@@@Z
	DD	FLAT:?Create@CDialog@@UAEHPBDPAVCWnd@@@Z
	DD	FLAT:?CreateIndirect@CDialog@@UAEHPAXPAVCWnd@@@Z
	DD	FLAT:?CreateIndirect@CDialog@@UAEHPBUDLGTEMPLATE@@PAVCWnd@@PAX@Z
	DD	FLAT:?DoModal@CDialog@@UAEHXZ
	DD	FLAT:?OnInitDialog@CDlgStrategyList@@MAEHXZ
	DD	FLAT:?OnSetFont@CDialog@@UAEXPAVCFont@@@Z
	DD	FLAT:?OnOK@CDialog@@MAEXXZ
	DD	FLAT:?OnCancel@CDialog@@MAEXXZ
	DD	FLAT:?PreInitDialog@CDialog@@MAEXXZ
CONST	ENDS
;	COMDAT ??_C@_02DKCKIIND@?$CFs@
CONST	SEGMENT
??_C@_02DKCKIIND@?$CFs@ DB '%s', 00H			; `string'
CONST	ENDS
;	COMDAT ??_R2CDialog@@8
rdata$r	SEGMENT
??_R2CDialog@@8 DD FLAT:??_R1A@?0A@EA@CDialog@@8	; CDialog::`RTTI Base Class Array'
	DD	FLAT:??_R1A@?0A@EA@CWnd@@8
	DD	FLAT:??_R1A@?0A@EA@CCmdTarget@@8
	DD	FLAT:??_R1A@?0A@EA@CObject@@8
rdata$r	ENDS
;	COMDAT ??_R3CDialog@@8
rdata$r	SEGMENT
??_R3CDialog@@8 DD 00H					; CDialog::`RTTI Class Hierarchy Descriptor'
	DD	00H
	DD	04H
	DD	FLAT:??_R2CDialog@@8
rdata$r	ENDS
;	COMDAT ??_R0?AVCDialog@@@8
data$rs	SEGMENT
??_R0?AVCDialog@@@8 DD FLAT:??_7type_info@@6B@		; CDialog `RTTI Type Descriptor'
	DD	00H
	DB	'.?AVCDialog@@', 00H
data$rs	ENDS
;	COMDAT ??_R1A@?0A@EA@CDialog@@8
rdata$r	SEGMENT
??_R1A@?0A@EA@CDialog@@8 DD FLAT:??_R0?AVCDialog@@@8	; CDialog::`RTTI Base Class Descriptor at (0,-1,0,64)'
	DD	03H
	DD	00H
	DD	0ffffffffH
	DD	00H
	DD	040H
	DD	FLAT:??_R3CDialog@@8
rdata$r	ENDS
;	COMDAT ??_R2CCmdTarget@@8
rdata$r	SEGMENT
??_R2CCmdTarget@@8 DD FLAT:??_R1A@?0A@EA@CCmdTarget@@8	; CCmdTarget::`RTTI Base Class Array'
	DD	FLAT:??_R1A@?0A@EA@CObject@@8
rdata$r	ENDS
;	COMDAT ??_R3CCmdTarget@@8
rdata$r	SEGMENT
??_R3CCmdTarget@@8 DD 00H				; CCmdTarget::`RTTI Class Hierarchy Descriptor'
	DD	00H
	DD	02H
	DD	FLAT:??_R2CCmdTarget@@8
rdata$r	ENDS
;	COMDAT ??_R0?AVCCmdTarget@@@8
data$rs	SEGMENT
??_R0?AVCCmdTarget@@@8 DD FLAT:??_7type_info@@6B@	; CCmdTarget `RTTI Type Descriptor'
	DD	00H
	DB	'.?AVCCmdTarget@@', 00H
data$rs	ENDS
;	COMDAT ??_R1A@?0A@EA@CCmdTarget@@8
rdata$r	SEGMENT
??_R1A@?0A@EA@CCmdTarget@@8 DD FLAT:??_R0?AVCCmdTarget@@@8 ; CCmdTarget::`RTTI Base Class Descriptor at (0,-1,0,64)'
	DD	01H
	DD	00H
	DD	0ffffffffH
	DD	00H
	DD	040H
	DD	FLAT:??_R3CCmdTarget@@8
rdata$r	ENDS
;	COMDAT ??_R2CWnd@@8
rdata$r	SEGMENT
??_R2CWnd@@8 DD	FLAT:??_R1A@?0A@EA@CWnd@@8		; CWnd::`RTTI Base Class Array'
	DD	FLAT:??_R1A@?0A@EA@CCmdTarget@@8
	DD	FLAT:??_R1A@?0A@EA@CObject@@8
rdata$r	ENDS
;	COMDAT ??_R3CWnd@@8
rdata$r	SEGMENT
??_R3CWnd@@8 DD	00H					; CWnd::`RTTI Class Hierarchy Descriptor'
	DD	00H
	DD	03H
	DD	FLAT:??_R2CWnd@@8
rdata$r	ENDS
;	COMDAT ??_R0?AVCWnd@@@8
data$rs	SEGMENT
??_R0?AVCWnd@@@8 DD FLAT:??_7type_info@@6B@		; CWnd `RTTI Type Descriptor'
	DD	00H
	DB	'.?AVCWnd@@', 00H
data$rs	ENDS
;	COMDAT ??_R1A@?0A@EA@CWnd@@8
rdata$r	SEGMENT
??_R1A@?0A@EA@CWnd@@8 DD FLAT:??_R0?AVCWnd@@@8		; CWnd::`RTTI Base Class Descriptor at (0,-1,0,64)'
	DD	02H
	DD	00H
	DD	0ffffffffH
	DD	00H
	DD	040H
	DD	FLAT:??_R3CWnd@@8
rdata$r	ENDS
;	COMDAT ??_R1A@?0A@EA@CStatic@@8
rdata$r	SEGMENT
??_R1A@?0A@EA@CStatic@@8 DD FLAT:??_R0?AVCStatic@@@8	; CStatic::`RTTI Base Class Descriptor at (0,-1,0,64)'
	DD	03H
	DD	00H
	DD	0ffffffffH
	DD	00H
	DD	040H
	DD	FLAT:??_R3CStatic@@8
rdata$r	ENDS
;	COMDAT ??_R2CStatic@@8
rdata$r	SEGMENT
??_R2CStatic@@8 DD FLAT:??_R1A@?0A@EA@CStatic@@8	; CStatic::`RTTI Base Class Array'
	DD	FLAT:??_R1A@?0A@EA@CWnd@@8
	DD	FLAT:??_R1A@?0A@EA@CCmdTarget@@8
	DD	FLAT:??_R1A@?0A@EA@CObject@@8
rdata$r	ENDS
;	COMDAT ??_R3CStatic@@8
rdata$r	SEGMENT
??_R3CStatic@@8 DD 00H					; CStatic::`RTTI Class Hierarchy Descriptor'
	DD	00H
	DD	04H
	DD	FLAT:??_R2CStatic@@8
rdata$r	ENDS
;	COMDAT ??_R0?AVCStatic@@@8
data$rs	SEGMENT
??_R0?AVCStatic@@@8 DD FLAT:??_7type_info@@6B@		; CStatic `RTTI Type Descriptor'
	DD	00H
	DB	'.?AVCStatic@@', 00H
data$rs	ENDS
;	COMDAT ??_R4CStatic@@6B@
rdata$r	SEGMENT
??_R4CStatic@@6B@ DD 00H				; CStatic::`RTTI Complete Object Locator'
	DD	00H
	DD	00H
	DD	FLAT:??_R0?AVCStatic@@@8
	DD	FLAT:??_R3CStatic@@8
rdata$r	ENDS
;	COMDAT ??_R1A@?0A@EA@CFont@@8
rdata$r	SEGMENT
??_R1A@?0A@EA@CFont@@8 DD FLAT:??_R0?AVCFont@@@8	; CFont::`RTTI Base Class Descriptor at (0,-1,0,64)'
	DD	02H
	DD	00H
	DD	0ffffffffH
	DD	00H
	DD	040H
	DD	FLAT:??_R3CFont@@8
rdata$r	ENDS
;	COMDAT ??_R2CFont@@8
rdata$r	SEGMENT
??_R2CFont@@8 DD FLAT:??_R1A@?0A@EA@CFont@@8		; CFont::`RTTI Base Class Array'
	DD	FLAT:??_R1A@?0A@EA@CGdiObject@@8
	DD	FLAT:??_R1A@?0A@EA@CObject@@8
rdata$r	ENDS
;	COMDAT ??_R3CFont@@8
rdata$r	SEGMENT
??_R3CFont@@8 DD 00H					; CFont::`RTTI Class Hierarchy Descriptor'
	DD	00H
	DD	03H
	DD	FLAT:??_R2CFont@@8
rdata$r	ENDS
;	COMDAT ??_R0?AVCFont@@@8
data$rs	SEGMENT
??_R0?AVCFont@@@8 DD FLAT:??_7type_info@@6B@		; CFont `RTTI Type Descriptor'
	DD	00H
	DB	'.?AVCFont@@', 00H
data$rs	ENDS
;	COMDAT ??_R4CFont@@6B@
rdata$r	SEGMENT
??_R4CFont@@6B@ DD 00H					; CFont::`RTTI Complete Object Locator'
	DD	00H
	DD	00H
	DD	FLAT:??_R0?AVCFont@@@8
	DD	FLAT:??_R3CFont@@8
rdata$r	ENDS
;	COMDAT ??_R1A@?0A@EA@CBrush@@8
rdata$r	SEGMENT
??_R1A@?0A@EA@CBrush@@8 DD FLAT:??_R0?AVCBrush@@@8	; CBrush::`RTTI Base Class Descriptor at (0,-1,0,64)'
	DD	02H
	DD	00H
	DD	0ffffffffH
	DD	00H
	DD	040H
	DD	FLAT:??_R3CBrush@@8
rdata$r	ENDS
;	COMDAT ??_R2CBrush@@8
rdata$r	SEGMENT
??_R2CBrush@@8 DD FLAT:??_R1A@?0A@EA@CBrush@@8		; CBrush::`RTTI Base Class Array'
	DD	FLAT:??_R1A@?0A@EA@CGdiObject@@8
	DD	FLAT:??_R1A@?0A@EA@CObject@@8
rdata$r	ENDS
;	COMDAT ??_R3CBrush@@8
rdata$r	SEGMENT
??_R3CBrush@@8 DD 00H					; CBrush::`RTTI Class Hierarchy Descriptor'
	DD	00H
	DD	03H
	DD	FLAT:??_R2CBrush@@8
rdata$r	ENDS
;	COMDAT ??_R0?AVCBrush@@@8
data$rs	SEGMENT
??_R0?AVCBrush@@@8 DD FLAT:??_7type_info@@6B@		; CBrush `RTTI Type Descriptor'
	DD	00H
	DB	'.?AVCBrush@@', 00H
data$rs	ENDS
;	COMDAT ??_R4CBrush@@6B@
rdata$r	SEGMENT
??_R4CBrush@@6B@ DD 00H					; CBrush::`RTTI Complete Object Locator'
	DD	00H
	DD	00H
	DD	FLAT:??_R0?AVCBrush@@@8
	DD	FLAT:??_R3CBrush@@8
rdata$r	ENDS
;	COMDAT ??_R1A@?0A@EA@CGdiObject@@8
rdata$r	SEGMENT
??_R1A@?0A@EA@CGdiObject@@8 DD FLAT:??_R0?AVCGdiObject@@@8 ; CGdiObject::`RTTI Base Class Descriptor at (0,-1,0,64)'
	DD	01H
	DD	00H
	DD	0ffffffffH
	DD	00H
	DD	040H
	DD	FLAT:??_R3CGdiObject@@8
rdata$r	ENDS
;	COMDAT ??_R2CGdiObject@@8
rdata$r	SEGMENT
??_R2CGdiObject@@8 DD FLAT:??_R1A@?0A@EA@CGdiObject@@8	; CGdiObject::`RTTI Base Class Array'
	DD	FLAT:??_R1A@?0A@EA@CObject@@8
rdata$r	ENDS
;	COMDAT ??_R3CGdiObject@@8
rdata$r	SEGMENT
??_R3CGdiObject@@8 DD 00H				; CGdiObject::`RTTI Class Hierarchy Descriptor'
	DD	00H
	DD	02H
	DD	FLAT:??_R2CGdiObject@@8
rdata$r	ENDS
;	COMDAT ??_R0?AVCGdiObject@@@8
data$rs	SEGMENT
??_R0?AVCGdiObject@@@8 DD FLAT:??_7type_info@@6B@	; CGdiObject `RTTI Type Descriptor'
	DD	00H
	DB	'.?AVCGdiObject@@', 00H
data$rs	ENDS
;	COMDAT ??_R4CGdiObject@@6B@
rdata$r	SEGMENT
??_R4CGdiObject@@6B@ DD 00H				; CGdiObject::`RTTI Complete Object Locator'
	DD	00H
	DD	00H
	DD	FLAT:??_R0?AVCGdiObject@@@8
	DD	FLAT:??_R3CGdiObject@@8
rdata$r	ENDS
;	COMDAT ??_R1A@?0A@EA@CObject@@8
rdata$r	SEGMENT
??_R1A@?0A@EA@CObject@@8 DD FLAT:??_R0?AVCObject@@@8	; CObject::`RTTI Base Class Descriptor at (0,-1,0,64)'
	DD	00H
	DD	00H
	DD	0ffffffffH
	DD	00H
	DD	040H
	DD	FLAT:??_R3CObject@@8
rdata$r	ENDS
;	COMDAT ??_R2CObject@@8
rdata$r	SEGMENT
??_R2CObject@@8 DD FLAT:??_R1A@?0A@EA@CObject@@8	; CObject::`RTTI Base Class Array'
rdata$r	ENDS
;	COMDAT ??_R3CObject@@8
rdata$r	SEGMENT
??_R3CObject@@8 DD 00H					; CObject::`RTTI Class Hierarchy Descriptor'
	DD	00H
	DD	01H
	DD	FLAT:??_R2CObject@@8
rdata$r	ENDS
;	COMDAT ??_R0?AVCObject@@@8
data$rs	SEGMENT
??_R0?AVCObject@@@8 DD FLAT:??_7type_info@@6B@		; CObject `RTTI Type Descriptor'
	DD	00H
	DB	'.?AVCObject@@', 00H
data$rs	ENDS
;	COMDAT ??_C@_02EMFKHFLK@?$CFX@
CONST	SEGMENT
??_C@_02EMFKHFLK@?$CFX@ DB '%X', 00H			; `string'
CONST	ENDS
;	COMDAT ??_C@_06NDLAHCHE@?$CFs?$CF08X@
CONST	SEGMENT
??_C@_06NDLAHCHE@?$CFs?$CF08X@ DB '%s%08X', 00H		; `string'
CONST	ENDS
;	COMDAT ??_C@_0P@IDMAJEGN@HANAROPCTRMAIN@
CONST	SEGMENT
??_C@_0P@IDMAJEGN@HANAROPCTRMAIN@ DB 'HANAROPCTRMAIN', 00H ; `string'
CONST	ENDS
;	COMDAT ??_C@_0M@CBBNGGHM@PcTrMng?4dll@
CONST	SEGMENT
??_C@_0M@CBBNGGHM@PcTrMng?4dll@ DB 'PcTrMng.dll', 00H	; `string'
CONST	ENDS
;	COMDAT ??_C@_0N@OMEMOKLE@?$CFTs?5?$CI?$CFTs?3?$CFd?$CJ@
CONST	SEGMENT
??_C@_0N@OMEMOKLE@?$CFTs?5?$CI?$CFTs?3?$CFd?$CJ@ DB '%Ts (%Ts:%d)', 00H ; `string'
CONST	ENDS
;	COMDAT ??_C@_0BB@HBOOMJBF@?$CFTs?5?$CI?$CFTs?3?$CFd?$CJ?6?$CFTs@
CONST	SEGMENT
??_C@_0BB@HBOOMJBF@?$CFTs?5?$CI?$CFTs?3?$CFd?$CJ?6?$CFTs@ DB '%Ts (%Ts:%d'
	DB	')', 0aH, '%Ts', 00H				; `string'
CONST	ENDS
;	COMDAT ??_C@_0BP@OIEOKIDM@Exception?5thrown?5in?5destructor@
CONST	SEGMENT
??_C@_0BP@OIEOKIDM@Exception?5thrown?5in?5destructor@ DB 'Exception throw'
	DB	'n in destructor', 00H			; `string'
CONST	ENDS
;	COMDAT ??_C@_0HD@JJCHHHNK@C?3?2Program?5Files?5?$CIx86?$CJ?2Microsof@
CONST	SEGMENT
??_C@_0HD@JJCHHHNK@C?3?2Program?5Files?5?$CIx86?$CJ?2Microsof@ DB 'C:\Pro'
	DB	'gram Files (x86)\Microsoft Visual Studio\2019\Community\VC\To'
	DB	'ols\MSVC\14.29.30133\atlmfc\include\afxwin1.inl', 00H ; `string'
CONST	ENDS
;	COMDAT ??_7CStatic@@6B@
CONST	SEGMENT
??_7CStatic@@6B@ DD FLAT:??_R4CStatic@@6B@		; CStatic::`vftable'
	DD	FLAT:?GetRuntimeClass@CStatic@@UBEPAUCRuntimeClass@@XZ
	DD	FLAT:??_ECStatic@@UAEPAXI@Z
	DD	FLAT:?Serialize@CObject@@UAEXAAVCArchive@@@Z
	DD	FLAT:?AssertValid@CObject@@UBEXXZ
	DD	FLAT:?Dump@CObject@@UBEXAAVCDumpContext@@@Z
	DD	FLAT:?OnCmdMsg@CCmdTarget@@UAEHIHPAXPAUAFX_CMDHANDLERINFO@@@Z
	DD	FLAT:?OnFinalRelease@CWnd@@UAEXXZ
	DD	FLAT:?IsInvokeAllowed@CCmdTarget@@UAEHJ@Z
	DD	FLAT:?GetDispatchIID@CCmdTarget@@UAEHPAU_GUID@@@Z
	DD	FLAT:?GetTypeInfoCount@CCmdTarget@@UAEIXZ
	DD	FLAT:?GetTypeLibCache@CCmdTarget@@UAEPAVCTypeLibCache@@XZ
	DD	FLAT:?GetTypeLib@CCmdTarget@@UAEJKPAPAUITypeLib@@@Z
	DD	FLAT:?GetMessageMap@CWnd@@MBEPBUAFX_MSGMAP@@XZ
	DD	FLAT:?GetCommandMap@CCmdTarget@@MBEPBUAFX_OLECMDMAP@@XZ
	DD	FLAT:?GetDispatchMap@CCmdTarget@@MBEPBUAFX_DISPMAP@@XZ
	DD	FLAT:?GetConnectionMap@CCmdTarget@@MBEPBUAFX_CONNECTIONMAP@@XZ
	DD	FLAT:?GetInterfaceMap@CWnd@@MBEPBUAFX_INTERFACEMAP@@XZ
	DD	FLAT:?GetEventSinkMap@CCmdTarget@@MBEPBUAFX_EVENTSINKMAP@@XZ
	DD	FLAT:?OnCreateAggregates@CCmdTarget@@UAEHXZ
	DD	FLAT:?GetInterfaceHook@CCmdTarget@@UAEPAUIUnknown@@PBX@Z
	DD	FLAT:?GetExtraConnectionPoints@CCmdTarget@@MAEHPAVCPtrArray@@@Z
	DD	FLAT:?GetConnectionHook@CCmdTarget@@MAEPAUIConnectionPoint@@ABU_GUID@@@Z
	DD	FLAT:?PreSubclassWindow@CWnd@@UAEXXZ
	DD	FLAT:?Create@CWnd@@UAEHPBD0KABUtagRECT@@PAV1@IPAUCCreateContext@@@Z
	DD	FLAT:?CreateEx@CWnd@@UAEHKPBD0KABUtagRECT@@PAV1@IPAX@Z
	DD	FLAT:?CreateEx@CWnd@@UAEHKPBD0KHHHHPAUHWND__@@PAUHMENU__@@PAX@Z
	DD	FLAT:?DestroyWindow@CWnd@@UAEHXZ
	DD	FLAT:?PreCreateWindow@CWnd@@UAEHAAUtagCREATESTRUCTA@@@Z
	DD	FLAT:?CalcWindowRect@CWnd@@UAEXPAUtagRECT@@I@Z
	DD	FLAT:?GetMenu@CWnd@@UBEPAVCMenu@@XZ
	DD	FLAT:?SetMenu@CWnd@@UAEHPAVCMenu@@@Z
	DD	FLAT:?OnToolHitTest@CWnd@@UBEHVCPoint@@PAUtagTOOLINFOA@@@Z
	DD	FLAT:?GetScrollBarCtrl@CWnd@@UBEPAVCScrollBar@@H@Z
	DD	FLAT:?WinHelpA@CWnd@@UAEXKI@Z
	DD	FLAT:?HtmlHelpA@CWnd@@UAEXKI@Z
	DD	FLAT:?WinHelpInternal@CWnd@@UAEXKI@Z
	DD	FLAT:?ContinueModal@CWnd@@UAEHXZ
	DD	FLAT:?EndModalLoop@CWnd@@UAEXH@Z
	DD	FLAT:?OnDrawIconicThumbnailOrLivePreview@CWnd@@UAEXAAVCDC@@VCRect@@VCSize@@HAAH@Z
	DD	FLAT:?EnsureStdObj@CWnd@@UAEJXZ
	DD	FLAT:?get_accParent@CWnd@@UAEJPAPAUIDispatch@@@Z
	DD	FLAT:?get_accChildCount@CWnd@@UAEJPAJ@Z
	DD	FLAT:?get_accChild@CWnd@@UAEJUtagVARIANT@@PAPAUIDispatch@@@Z
	DD	FLAT:?get_accName@CWnd@@UAEJUtagVARIANT@@PAPA_W@Z
	DD	FLAT:?get_accValue@CWnd@@UAEJUtagVARIANT@@PAPA_W@Z
	DD	FLAT:?get_accDescription@CWnd@@UAEJUtagVARIANT@@PAPA_W@Z
	DD	FLAT:?get_accRole@CWnd@@UAEJUtagVARIANT@@PAU2@@Z
	DD	FLAT:?get_accState@CWnd@@UAEJUtagVARIANT@@PAU2@@Z
	DD	FLAT:?get_accHelp@CWnd@@UAEJUtagVARIANT@@PAPA_W@Z
	DD	FLAT:?get_accHelpTopic@CWnd@@UAEJPAPA_WUtagVARIANT@@PAJ@Z
	DD	FLAT:?get_accKeyboardShortcut@CWnd@@UAEJUtagVARIANT@@PAPA_W@Z
	DD	FLAT:?get_accFocus@CWnd@@UAEJPAUtagVARIANT@@@Z
	DD	FLAT:?get_accSelection@CWnd@@UAEJPAUtagVARIANT@@@Z
	DD	FLAT:?get_accDefaultAction@CWnd@@UAEJUtagVARIANT@@PAPA_W@Z
	DD	FLAT:?accSelect@CWnd@@UAEJJUtagVARIANT@@@Z
	DD	FLAT:?accLocation@CWnd@@UAEJPAJ000UtagVARIANT@@@Z
	DD	FLAT:?accNavigate@CWnd@@UAEJJUtagVARIANT@@PAU2@@Z
	DD	FLAT:?accHitTest@CWnd@@UAEJJJPAUtagVARIANT@@@Z
	DD	FLAT:?accDoDefaultAction@CWnd@@UAEJUtagVARIANT@@@Z
	DD	FLAT:?put_accName@CWnd@@UAEJUtagVARIANT@@PA_W@Z
	DD	FLAT:?put_accValue@CWnd@@UAEJUtagVARIANT@@PA_W@Z
	DD	FLAT:?SetProxy@CWnd@@UAEJPAUIAccessibleProxy@@@Z
	DD	FLAT:?CreateAccessibleProxy@CWnd@@UAEJIJPAJ@Z
	DD	FLAT:?OnCommand@CWnd@@MAEHIJ@Z
	DD	FLAT:?OnNotify@CWnd@@MAEHIJPAJ@Z
	DD	FLAT:?GetSuperWndProcAddr@CWnd@@MAEPAP6GJPAUHWND__@@IIJ@ZXZ
	DD	FLAT:?DoDataExchange@CWnd@@MAEXPAVCDataExchange@@@Z
	DD	FLAT:?BeginModalState@CWnd@@UAEXXZ
	DD	FLAT:?EndModalState@CWnd@@UAEXXZ
	DD	FLAT:?PreTranslateMessage@CWnd@@UAEHPAUtagMSG@@@Z
	DD	FLAT:?OnAmbientProperty@CWnd@@UAEHPAVCOleControlSite@@JPAUtagVARIANT@@@Z
	DD	FLAT:?WindowProc@CWnd@@MAEJIIJ@Z
	DD	FLAT:?OnWndMsg@CWnd@@MAEHIIJPAJ@Z
	DD	FLAT:?DefWindowProcA@CWnd@@MAEJIIJ@Z
	DD	FLAT:?PostNcDestroy@CWnd@@MAEXXZ
	DD	FLAT:?OnChildNotify@CStatic@@MAEHIIJPAJ@Z
	DD	FLAT:?OnTouchInputs@CWnd@@MAEHIPAUtagTOUCHINPUT@@@Z
	DD	FLAT:?OnTouchInput@CWnd@@MAEHVCPoint@@HHPAUtagTOUCHINPUT@@@Z
	DD	FLAT:?GetGestureStatus@CWnd@@MAEKVCPoint@@@Z
	DD	FLAT:?OnGestureZoom@CWnd@@MAEHVCPoint@@J@Z
	DD	FLAT:?OnGesturePan@CWnd@@MAEHVCPoint@@0@Z
	DD	FLAT:?OnGestureRotate@CWnd@@MAEHVCPoint@@N@Z
	DD	FLAT:?OnGestureTwoFingerTap@CWnd@@MAEHVCPoint@@@Z
	DD	FLAT:?OnGesturePressAndTap@CWnd@@MAEHVCPoint@@J@Z
	DD	FLAT:?ResizeDynamicLayout@CWnd@@MAEXXZ
	DD	FLAT:?CheckAutoCenter@CWnd@@UAEHXZ
	DD	FLAT:?IsFrameWnd@CWnd@@UBEHXZ
	DD	FLAT:?CreateControlContainer@CWnd@@MAEHPAPAVCOleControlContainer@@@Z
	DD	FLAT:?CreateControlSite@CWnd@@MAEHPAVCOleControlContainer@@PAPAVCOleControlSite@@IABU_GUID@@@Z
	DD	FLAT:?SetOccDialogInfo@CWnd@@MAEHPAU_AFX_OCC_DIALOG_INFO@@@Z
	DD	FLAT:?GetOccDialogInfo@CWnd@@MAEPAU_AFX_OCC_DIALOG_INFO@@XZ
	DD	FLAT:?Create@CStatic@@UAEHPBDKABUtagRECT@@PAVCWnd@@I@Z
	DD	FLAT:?DrawItem@CStatic@@UAEXPAUtagDRAWITEMSTRUCT@@@Z
CONST	ENDS
;	COMDAT ??_7CFont@@6B@
CONST	SEGMENT
??_7CFont@@6B@ DD FLAT:??_R4CFont@@6B@			; CFont::`vftable'
	DD	FLAT:?GetRuntimeClass@CFont@@UBEPAUCRuntimeClass@@XZ
	DD	FLAT:??_ECFont@@UAEPAXI@Z
	DD	FLAT:?Serialize@CObject@@UAEXAAVCArchive@@@Z
	DD	FLAT:?AssertValid@CObject@@UBEXXZ
	DD	FLAT:?Dump@CObject@@UBEXAAVCDumpContext@@@Z
CONST	ENDS
;	COMDAT ??_7CBrush@@6B@
CONST	SEGMENT
??_7CBrush@@6B@ DD FLAT:??_R4CBrush@@6B@		; CBrush::`vftable'
	DD	FLAT:?GetRuntimeClass@CBrush@@UBEPAUCRuntimeClass@@XZ
	DD	FLAT:??_ECBrush@@UAEPAXI@Z
	DD	FLAT:?Serialize@CObject@@UAEXAAVCArchive@@@Z
	DD	FLAT:?AssertValid@CObject@@UBEXXZ
	DD	FLAT:?Dump@CObject@@UBEXAAVCDumpContext@@@Z
CONST	ENDS
;	COMDAT ??_7CGdiObject@@6B@
CONST	SEGMENT
??_7CGdiObject@@6B@ DD FLAT:??_R4CGdiObject@@6B@	; CGdiObject::`vftable'
	DD	FLAT:?GetRuntimeClass@CGdiObject@@UBEPAUCRuntimeClass@@XZ
	DD	FLAT:??_ECGdiObject@@UAEPAXI@Z
	DD	FLAT:?Serialize@CObject@@UAEXAAVCArchive@@@Z
	DD	FLAT:?AssertValid@CObject@@UBEXXZ
	DD	FLAT:?Dump@CObject@@UBEXAAVCDumpContext@@@Z
CONST	ENDS
;	COMDAT ??_C@_00CNPNBAHC@@
CONST	SEGMENT
??_C@_00CNPNBAHC@@ DB 00H				; `string'
CONST	ENDS
;	COMDAT ??_C@_02DPKJAMEF@?$CFd@
CONST	SEGMENT
??_C@_02DPKJAMEF@?$CFd@ DB '%d', 00H			; `string'
CONST	ENDS
;	COMDAT ??_R0PAVCException@@@8
data$r	SEGMENT
??_R0PAVCException@@@8 DD FLAT:??_7type_info@@6B@	; CException * `RTTI Type Descriptor'
	DD	00H
	DB	'.PAVCException@@', 00H
data$r	ENDS
;	COMDAT xdata$x
xdata$x	SEGMENT
__unwindtable$?MakeTitle@CHelperSTTitle@@SA?AV?$CStringT@DV?$StrTraitMFC_DLL@DV?$ChTraitsCRT@D@ATL@@@@@ATL@@PBDAAVCStringArray@@@Z DD 0ffffffffH
	DD	FLAT:__unwindfunclet$?MakeTitle@CHelperSTTitle@@SA?AV?$CStringT@DV?$StrTraitMFC_DLL@DV?$ChTraitsCRT@D@ATL@@@@@ATL@@PBDAAVCStringArray@@@Z$0
	DD	00H
	DD	FLAT:__unwindfunclet$?MakeTitle@CHelperSTTitle@@SA?AV?$CStringT@DV?$StrTraitMFC_DLL@DV?$ChTraitsCRT@D@ATL@@@@@ATL@@PBDAAVCStringArray@@@Z$1
__ehfuncinfo$?MakeTitle@CHelperSTTitle@@SA?AV?$CStringT@DV?$StrTraitMFC_DLL@DV?$ChTraitsCRT@D@ATL@@@@@ATL@@PBDAAVCStringArray@@@Z DD 019930522H
	DD	02H
	DD	FLAT:__unwindtable$?MakeTitle@CHelperSTTitle@@SA?AV?$CStringT@DV?$StrTraitMFC_DLL@DV?$ChTraitsCRT@D@ATL@@@@@ATL@@PBDAAVCStringArray@@@Z
	DD	2 DUP(00H)
	DD	2 DUP(00H)
	DD	00H
	DD	01H
xdata$x	ENDS
;	COMDAT xdata$x
xdata$x	SEGMENT
__unwindtable$?GetInputData@CHelperSTTitle@@SAHV?$CStringT@DV?$StrTraitMFC_DLL@DV?$ChTraitsCRT@D@ATL@@@@@ATL@@AAVCStringArray@@@Z DD 0ffffffffH
	DD	FLAT:__unwindfunclet$?GetInputData@CHelperSTTitle@@SAHV?$CStringT@DV?$StrTraitMFC_DLL@DV?$ChTraitsCRT@D@ATL@@@@@ATL@@AAVCStringArray@@@Z$0
	DD	00H
	DD	FLAT:__unwindfunclet$?GetInputData@CHelperSTTitle@@SAHV?$CStringT@DV?$StrTraitMFC_DLL@DV?$ChTraitsCRT@D@ATL@@@@@ATL@@AAVCStringArray@@@Z$1
	DD	01H
	DD	FLAT:__unwindfunclet$?GetInputData@CHelperSTTitle@@SAHV?$CStringT@DV?$StrTraitMFC_DLL@DV?$ChTraitsCRT@D@ATL@@@@@ATL@@AAVCStringArray@@@Z$2
	DD	01H
	DD	FLAT:__unwindfunclet$?GetInputData@CHelperSTTitle@@SAHV?$CStringT@DV?$StrTraitMFC_DLL@DV?$ChTraitsCRT@D@ATL@@@@@ATL@@AAVCStringArray@@@Z$3
__ehfuncinfo$?GetInputData@CHelperSTTitle@@SAHV?$CStringT@DV?$StrTraitMFC_DLL@DV?$ChTraitsCRT@D@ATL@@@@@ATL@@AAVCStringArray@@@Z DD 019930522H
	DD	04H
	DD	FLAT:__unwindtable$?GetInputData@CHelperSTTitle@@SAHV?$CStringT@DV?$StrTraitMFC_DLL@DV?$ChTraitsCRT@D@ATL@@@@@ATL@@AAVCStringArray@@@Z
	DD	2 DUP(00H)
	DD	2 DUP(00H)
	DD	00H
	DD	01H
xdata$x	ENDS
;	COMDAT xdata$x
xdata$x	SEGMENT
__unwindtable$?GetSTName@CHelperSTTitle@@SAHAAV?$CStringT@DV?$StrTraitMFC_DLL@DV?$ChTraitsCRT@D@ATL@@@@@ATL@@0@Z DD 0ffffffffH
	DD	FLAT:__unwindfunclet$?GetSTName@CHelperSTTitle@@SAHAAV?$CStringT@DV?$StrTraitMFC_DLL@DV?$ChTraitsCRT@D@ATL@@@@@ATL@@0@Z$0
__ehfuncinfo$?GetSTName@CHelperSTTitle@@SAHAAV?$CStringT@DV?$StrTraitMFC_DLL@DV?$ChTraitsCRT@D@ATL@@@@@ATL@@0@Z DD 019930522H
	DD	01H
	DD	FLAT:__unwindtable$?GetSTName@CHelperSTTitle@@SAHAAV?$CStringT@DV?$StrTraitMFC_DLL@DV?$ChTraitsCRT@D@ATL@@@@@ATL@@0@Z
	DD	2 DUP(00H)
	DD	2 DUP(00H)
	DD	00H
	DD	01H
xdata$x	ENDS
;	COMDAT xdata$x
xdata$x	SEGMENT
__ehfuncinfo$?OnBnClickedButtonSaveconfig@CDlgStrategyList@@QAEXXZ DD 019930522H
	DD	06H
	DD	FLAT:__unwindtable$?OnBnClickedButtonSaveconfig@CDlgStrategyList@@QAEXXZ
	DD	2 DUP(00H)
	DD	2 DUP(00H)
	DD	00H
	DD	01H
__unwindtable$?OnBnClickedButtonSaveconfig@CDlgStrategyList@@QAEXXZ DD 0ffffffffH
	DD	FLAT:__unwindfunclet$?OnBnClickedButtonSaveconfig@CDlgStrategyList@@QAEXXZ$0
	DD	00H
	DD	FLAT:__unwindfunclet$?OnBnClickedButtonSaveconfig@CDlgStrategyList@@QAEXXZ$1
	DD	01H
	DD	FLAT:__unwindfunclet$?OnBnClickedButtonSaveconfig@CDlgStrategyList@@QAEXXZ$2
	DD	01H
	DD	FLAT:__unwindfunclet$?OnBnClickedButtonSaveconfig@CDlgStrategyList@@QAEXXZ$4
	DD	03H
	DD	FLAT:__unwindfunclet$?OnBnClickedButtonSaveconfig@CDlgStrategyList@@QAEXXZ$5
	DD	01H
	DD	FLAT:__unwindfunclet$?OnBnClickedButtonSaveconfig@CDlgStrategyList@@QAEXXZ$3
xdata$x	ENDS
;	COMDAT xdata$x
xdata$x	SEGMENT
__unwindtable$?OnBnClickedBtnSystemtrading@CDlgStrategyList@@QAEXXZ DD 0ffffffffH
	DD	FLAT:__unwindfunclet$?OnBnClickedBtnSystemtrading@CDlgStrategyList@@QAEXXZ$0
__ehfuncinfo$?OnBnClickedBtnSystemtrading@CDlgStrategyList@@QAEXXZ DD 019930522H
	DD	01H
	DD	FLAT:__unwindtable$?OnBnClickedBtnSystemtrading@CDlgStrategyList@@QAEXXZ
	DD	2 DUP(00H)
	DD	2 DUP(00H)
	DD	00H
	DD	01H
xdata$x	ENDS
;	COMDAT xdata$x
xdata$x	SEGMENT
__unwindtable$?OnSaveToUserST@CDlgStrategyList@@IAEJIJ@Z DD 0ffffffffH
	DD	FLAT:__unwindfunclet$?OnSaveToUserST@CDlgStrategyList@@IAEJIJ@Z$0
	DD	00H
	DD	FLAT:__unwindfunclet$?OnSaveToUserST@CDlgStrategyList@@IAEJIJ@Z$1
	DD	01H
	DD	FLAT:__unwindfunclet$?OnSaveToUserST@CDlgStrategyList@@IAEJIJ@Z$2
__ehfuncinfo$?OnSaveToUserST@CDlgStrategyList@@IAEJIJ@Z DD 019930522H
	DD	03H
	DD	FLAT:__unwindtable$?OnSaveToUserST@CDlgStrategyList@@IAEJIJ@Z
	DD	2 DUP(00H)
	DD	2 DUP(00H)
	DD	00H
	DD	01H
xdata$x	ENDS
;	COMDAT xdata$x
xdata$x	SEGMENT
__unwindtable$?OnUpdateSTSfg@CDlgStrategyList@@IAEJIJ@Z DD 0ffffffffH
	DD	FLAT:__unwindfunclet$?OnUpdateSTSfg@CDlgStrategyList@@IAEJIJ@Z$0
	DD	00H
	DD	FLAT:__unwindfunclet$?OnUpdateSTSfg@CDlgStrategyList@@IAEJIJ@Z$2
__ehfuncinfo$?OnUpdateSTSfg@CDlgStrategyList@@IAEJIJ@Z DD 019930522H
	DD	02H
	DD	FLAT:__unwindtable$?OnUpdateSTSfg@CDlgStrategyList@@IAEJIJ@Z
	DD	2 DUP(00H)
	DD	2 DUP(00H)
	DD	00H
	DD	01H
xdata$x	ENDS
;	COMDAT xdata$x
xdata$x	SEGMENT
__ehfuncinfo$?OnSTController@CDlgStrategyList@@IAEJIJ@Z DD 019930522H
	DD	06H
	DD	FLAT:__unwindtable$?OnSTController@CDlgStrategyList@@IAEJIJ@Z
	DD	2 DUP(00H)
	DD	2 DUP(00H)
	DD	00H
	DD	01H
__unwindtable$?OnSTController@CDlgStrategyList@@IAEJIJ@Z DD 0ffffffffH
	DD	FLAT:__unwindfunclet$?OnSTController@CDlgStrategyList@@IAEJIJ@Z$0
	DD	0ffffffffH
	DD	FLAT:__unwindfunclet$?OnSTController@CDlgStrategyList@@IAEJIJ@Z$1
	DD	01H
	DD	FLAT:__unwindfunclet$?OnSTController@CDlgStrategyList@@IAEJIJ@Z$2
	DD	02H
	DD	FLAT:__unwindfunclet$?OnSTController@CDlgStrategyList@@IAEJIJ@Z$3
	DD	02H
	DD	FLAT:__unwindfunclet$?OnSTController@CDlgStrategyList@@IAEJIJ@Z$4
	DD	02H
	DD	FLAT:__unwindfunclet$?OnSTController@CDlgStrategyList@@IAEJIJ@Z$6
xdata$x	ENDS
;	COMDAT xdata$x
xdata$x	SEGMENT
__unwindtable$?OnBnClickedSTRun@CDlgStrategyList@@IAEXXZ DD 0ffffffffH
	DD	FLAT:__unwindfunclet$?OnBnClickedSTRun@CDlgStrategyList@@IAEXXZ$0
	DD	00H
	DD	FLAT:__unwindfunclet$?OnBnClickedSTRun@CDlgStrategyList@@IAEXXZ$1
__ehfuncinfo$?OnBnClickedSTRun@CDlgStrategyList@@IAEXXZ DD 019930522H
	DD	02H
	DD	FLAT:__unwindtable$?OnBnClickedSTRun@CDlgStrategyList@@IAEXXZ
	DD	2 DUP(00H)
	DD	2 DUP(00H)
	DD	00H
	DD	01H
xdata$x	ENDS
;	COMDAT xdata$x
xdata$x	SEGMENT
__unwindtable$?OnBnClickedSTConfigDlg@CDlgStrategyList@@IAEXXZ DD 0ffffffffH
	DD	FLAT:__unwindfunclet$?OnBnClickedSTConfigDlg@CDlgStrategyList@@IAEXXZ$0
	DD	00H
	DD	FLAT:__unwindfunclet$?OnBnClickedSTConfigDlg@CDlgStrategyList@@IAEXXZ$1
	DD	01H
	DD	FLAT:__unwindfunclet$?OnBnClickedSTConfigDlg@CDlgStrategyList@@IAEXXZ$2
	DD	02H
	DD	FLAT:__unwindfunclet$?OnBnClickedSTConfigDlg@CDlgStrategyList@@IAEXXZ$3
__ehfuncinfo$?OnBnClickedSTConfigDlg@CDlgStrategyList@@IAEXXZ DD 019930522H
	DD	04H
	DD	FLAT:__unwindtable$?OnBnClickedSTConfigDlg@CDlgStrategyList@@IAEXXZ
	DD	2 DUP(00H)
	DD	2 DUP(00H)
	DD	00H
	DD	01H
xdata$x	ENDS
;	COMDAT xdata$x
xdata$x	SEGMENT
__unwindtable$?OnBtnSTDelete@CDlgStrategyList@@IAEXXZ DD 0ffffffffH
	DD	FLAT:__unwindfunclet$?OnBtnSTDelete@CDlgStrategyList@@IAEXXZ$0
	DD	00H
	DD	FLAT:__unwindfunclet$?OnBtnSTDelete@CDlgStrategyList@@IAEXXZ$1
	DD	01H
	DD	FLAT:__unwindfunclet$?OnBtnSTDelete@CDlgStrategyList@@IAEXXZ$2
	DD	01H
	DD	FLAT:__unwindfunclet$?OnBtnSTDelete@CDlgStrategyList@@IAEXXZ$3
__ehfuncinfo$?OnBtnSTDelete@CDlgStrategyList@@IAEXXZ DD 019930522H
	DD	04H
	DD	FLAT:__unwindtable$?OnBtnSTDelete@CDlgStrategyList@@IAEXXZ
	DD	2 DUP(00H)
	DD	2 DUP(00H)
	DD	00H
	DD	01H
xdata$x	ENDS
;	COMDAT xdata$x
xdata$x	SEGMENT
__ehfuncinfo$?OnBtSave@CDlgStrategyList@@IAEXXZ DD 019930522H
	DD	05H
	DD	FLAT:__unwindtable$?OnBtSave@CDlgStrategyList@@IAEXXZ
	DD	2 DUP(00H)
	DD	2 DUP(00H)
	DD	00H
	DD	01H
__unwindtable$?OnBtSave@CDlgStrategyList@@IAEXXZ DD 0ffffffffH
	DD	FLAT:__unwindfunclet$?OnBtSave@CDlgStrategyList@@IAEXXZ$0
	DD	00H
	DD	FLAT:__unwindfunclet$?OnBtSave@CDlgStrategyList@@IAEXXZ$1
	DD	01H
	DD	FLAT:__unwindfunclet$?OnBtSave@CDlgStrategyList@@IAEXXZ$2
	DD	02H
	DD	FLAT:__unwindfunclet$?OnBtSave@CDlgStrategyList@@IAEXXZ$3
	DD	03H
	DD	FLAT:__unwindfunclet$?OnBtSave@CDlgStrategyList@@IAEXXZ$4
xdata$x	ENDS
;	COMDAT xdata$x
xdata$x	SEGMENT
__unwindtable$?OnBtnUp@CDlgStrategyList@@IAEXXZ DD 0ffffffffH
	DD	FLAT:__unwindfunclet$?OnBtnUp@CDlgStrategyList@@IAEXXZ$0
	DD	00H
	DD	FLAT:__unwindfunclet$?OnBtnUp@CDlgStrategyList@@IAEXXZ$1
	DD	01H
	DD	FLAT:__unwindfunclet$?OnBtnUp@CDlgStrategyList@@IAEXXZ$2
	DD	01H
	DD	FLAT:__unwindfunclet$?OnBtnUp@CDlgStrategyList@@IAEXXZ$3
__ehfuncinfo$?OnBtnUp@CDlgStrategyList@@IAEXXZ DD 019930522H
	DD	04H
	DD	FLAT:__unwindtable$?OnBtnUp@CDlgStrategyList@@IAEXXZ
	DD	2 DUP(00H)
	DD	2 DUP(00H)
	DD	00H
	DD	01H
xdata$x	ENDS
;	COMDAT xdata$x
xdata$x	SEGMENT
__unwindtable$?OnBtnDown@CDlgStrategyList@@IAEXXZ DD 0ffffffffH
	DD	FLAT:__unwindfunclet$?OnBtnDown@CDlgStrategyList@@IAEXXZ$0
	DD	00H
	DD	FLAT:__unwindfunclet$?OnBtnDown@CDlgStrategyList@@IAEXXZ$1
	DD	01H
	DD	FLAT:__unwindfunclet$?OnBtnDown@CDlgStrategyList@@IAEXXZ$2
	DD	01H
	DD	FLAT:__unwindfunclet$?OnBtnDown@CDlgStrategyList@@IAEXXZ$3
__ehfuncinfo$?OnBtnDown@CDlgStrategyList@@IAEXXZ DD 019930522H
	DD	04H
	DD	FLAT:__unwindtable$?OnBtnDown@CDlgStrategyList@@IAEXXZ
	DD	2 DUP(00H)
	DD	2 DUP(00H)
	DD	00H
	DD	01H
xdata$x	ENDS
;	COMDAT xdata$x
xdata$x	SEGMENT
__unwindtable$?SaveRunTempFile@CDlgStrategyList@@IAEHXZ DD 0ffffffffH
	DD	FLAT:__unwindfunclet$?SaveRunTempFile@CDlgStrategyList@@IAEHXZ$0
	DD	00H
	DD	FLAT:__unwindfunclet$?SaveRunTempFile@CDlgStrategyList@@IAEHXZ$1
__ehfuncinfo$?SaveRunTempFile@CDlgStrategyList@@IAEHXZ DD 019930522H
	DD	02H
	DD	FLAT:__unwindtable$?SaveRunTempFile@CDlgStrategyList@@IAEHXZ
	DD	2 DUP(00H)
	DD	2 DUP(00H)
	DD	00H
	DD	01H
xdata$x	ENDS
;	COMDAT xdata$x
xdata$x	SEGMENT
__ehfuncinfo$?InputModify@CDlgStrategyList@@IAEXHAAV?$CStringT@DV?$StrTraitMFC_DLL@DV?$ChTraitsCRT@D@ATL@@@@@ATL@@@Z DD 019930522H
	DD	0dH
	DD	FLAT:__unwindtable$?InputModify@CDlgStrategyList@@IAEXHAAV?$CStringT@DV?$StrTraitMFC_DLL@DV?$ChTraitsCRT@D@ATL@@@@@ATL@@@Z
	DD	2 DUP(00H)
	DD	2 DUP(00H)
	DD	00H
	DD	01H
__unwindtable$?InputModify@CDlgStrategyList@@IAEXHAAV?$CStringT@DV?$StrTraitMFC_DLL@DV?$ChTraitsCRT@D@ATL@@@@@ATL@@@Z DD 0ffffffffH
	DD	FLAT:__unwindfunclet$?InputModify@CDlgStrategyList@@IAEXHAAV?$CStringT@DV?$StrTraitMFC_DLL@DV?$ChTraitsCRT@D@ATL@@@@@ATL@@@Z$0
	DD	00H
	DD	FLAT:__unwindfunclet$?InputModify@CDlgStrategyList@@IAEXHAAV?$CStringT@DV?$StrTraitMFC_DLL@DV?$ChTraitsCRT@D@ATL@@@@@ATL@@@Z$1
	DD	01H
	DD	FLAT:__unwindfunclet$?InputModify@CDlgStrategyList@@IAEXHAAV?$CStringT@DV?$StrTraitMFC_DLL@DV?$ChTraitsCRT@D@ATL@@@@@ATL@@@Z$9
	DD	01H
	DD	FLAT:__unwindfunclet$?InputModify@CDlgStrategyList@@IAEXHAAV?$CStringT@DV?$StrTraitMFC_DLL@DV?$ChTraitsCRT@D@ATL@@@@@ATL@@@Z$2
	DD	01H
	DD	FLAT:__unwindfunclet$?InputModify@CDlgStrategyList@@IAEXHAAV?$CStringT@DV?$StrTraitMFC_DLL@DV?$ChTraitsCRT@D@ATL@@@@@ATL@@@Z$10
	DD	04H
	DD	FLAT:__unwindfunclet$?InputModify@CDlgStrategyList@@IAEXHAAV?$CStringT@DV?$StrTraitMFC_DLL@DV?$ChTraitsCRT@D@ATL@@@@@ATL@@@Z$11
	DD	05H
	DD	FLAT:__unwindfunclet$?InputModify@CDlgStrategyList@@IAEXHAAV?$CStringT@DV?$StrTraitMFC_DLL@DV?$ChTraitsCRT@D@ATL@@@@@ATL@@@Z$12
	DD	05H
	DD	FLAT:__unwindfunclet$?InputModify@CDlgStrategyList@@IAEXHAAV?$CStringT@DV?$StrTraitMFC_DLL@DV?$ChTraitsCRT@D@ATL@@@@@ATL@@@Z$13
	DD	01H
	DD	FLAT:__unwindfunclet$?InputModify@CDlgStrategyList@@IAEXHAAV?$CStringT@DV?$StrTraitMFC_DLL@DV?$ChTraitsCRT@D@ATL@@@@@ATL@@@Z$4
	DD	08H
	DD	FLAT:__unwindfunclet$?InputModify@CDlgStrategyList@@IAEXHAAV?$CStringT@DV?$StrTraitMFC_DLL@DV?$ChTraitsCRT@D@ATL@@@@@ATL@@@Z$14
	DD	08H
	DD	FLAT:__unwindfunclet$?InputModify@CDlgStrategyList@@IAEXHAAV?$CStringT@DV?$StrTraitMFC_DLL@DV?$ChTraitsCRT@D@ATL@@@@@ATL@@@Z$15
	DD	08H
	DD	FLAT:__unwindfunclet$?InputModify@CDlgStrategyList@@IAEXHAAV?$CStringT@DV?$StrTraitMFC_DLL@DV?$ChTraitsCRT@D@ATL@@@@@ATL@@@Z$7
	DD	0bH
	DD	FLAT:__unwindfunclet$?InputModify@CDlgStrategyList@@IAEXHAAV?$CStringT@DV?$StrTraitMFC_DLL@DV?$ChTraitsCRT@D@ATL@@@@@ATL@@@Z$8
xdata$x	ENDS
;	COMDAT xdata$x
xdata$x	SEGMENT
__ehfuncinfo$?SaveVariable@CDlgStrategyList@@IAEXAAV?$CStringT@DV?$StrTraitMFC_DLL@DV?$ChTraitsCRT@D@ATL@@@@@ATL@@HPBD@Z DD 019930522H
	DD	08H
	DD	FLAT:__unwindtable$?SaveVariable@CDlgStrategyList@@IAEXAAV?$CStringT@DV?$StrTraitMFC_DLL@DV?$ChTraitsCRT@D@ATL@@@@@ATL@@HPBD@Z
	DD	2 DUP(00H)
	DD	2 DUP(00H)
	DD	00H
	DD	01H
__unwindtable$?SaveVariable@CDlgStrategyList@@IAEXAAV?$CStringT@DV?$StrTraitMFC_DLL@DV?$ChTraitsCRT@D@ATL@@@@@ATL@@HPBD@Z DD 0ffffffffH
	DD	FLAT:__unwindfunclet$?SaveVariable@CDlgStrategyList@@IAEXAAV?$CStringT@DV?$StrTraitMFC_DLL@DV?$ChTraitsCRT@D@ATL@@@@@ATL@@HPBD@Z$0
	DD	00H
	DD	FLAT:__unwindfunclet$?SaveVariable@CDlgStrategyList@@IAEXAAV?$CStringT@DV?$StrTraitMFC_DLL@DV?$ChTraitsCRT@D@ATL@@@@@ATL@@HPBD@Z$7
	DD	00H
	DD	FLAT:__unwindfunclet$?SaveVariable@CDlgStrategyList@@IAEXAAV?$CStringT@DV?$StrTraitMFC_DLL@DV?$ChTraitsCRT@D@ATL@@@@@ATL@@HPBD@Z$1
	DD	02H
	DD	FLAT:__unwindfunclet$?SaveVariable@CDlgStrategyList@@IAEXAAV?$CStringT@DV?$StrTraitMFC_DLL@DV?$ChTraitsCRT@D@ATL@@@@@ATL@@HPBD@Z$2
	DD	03H
	DD	FLAT:__unwindfunclet$?SaveVariable@CDlgStrategyList@@IAEXAAV?$CStringT@DV?$StrTraitMFC_DLL@DV?$ChTraitsCRT@D@ATL@@@@@ATL@@HPBD@Z$3
	DD	04H
	DD	FLAT:__unwindfunclet$?SaveVariable@CDlgStrategyList@@IAEXAAV?$CStringT@DV?$StrTraitMFC_DLL@DV?$ChTraitsCRT@D@ATL@@@@@ATL@@HPBD@Z$4
	DD	05H
	DD	FLAT:__unwindfunclet$?SaveVariable@CDlgStrategyList@@IAEXAAV?$CStringT@DV?$StrTraitMFC_DLL@DV?$ChTraitsCRT@D@ATL@@@@@ATL@@HPBD@Z$5
	DD	05H
	DD	FLAT:__unwindfunclet$?SaveVariable@CDlgStrategyList@@IAEXAAV?$CStringT@DV?$StrTraitMFC_DLL@DV?$ChTraitsCRT@D@ATL@@@@@ATL@@HPBD@Z$6
xdata$x	ENDS
;	COMDAT xdata$x
xdata$x	SEGMENT
__unwindtable$?CheckFileSave@CDlgStrategyList@@IAEHHAAV?$CStringT@DV?$StrTraitMFC_DLL@DV?$ChTraitsCRT@D@ATL@@@@@ATL@@@Z DD 0ffffffffH
	DD	FLAT:__unwindfunclet$?CheckFileSave@CDlgStrategyList@@IAEHHAAV?$CStringT@DV?$StrTraitMFC_DLL@DV?$ChTraitsCRT@D@ATL@@@@@ATL@@@Z$0
__ehfuncinfo$?CheckFileSave@CDlgStrategyList@@IAEHHAAV?$CStringT@DV?$StrTraitMFC_DLL@DV?$ChTraitsCRT@D@ATL@@@@@ATL@@@Z DD 019930522H
	DD	01H
	DD	FLAT:__unwindtable$?CheckFileSave@CDlgStrategyList@@IAEHHAAV?$CStringT@DV?$StrTraitMFC_DLL@DV?$ChTraitsCRT@D@ATL@@@@@ATL@@@Z
	DD	2 DUP(00H)
	DD	2 DUP(00H)
	DD	00H
	DD	01H
xdata$x	ENDS
;	COMDAT xdata$x
xdata$x	SEGMENT
__ehfuncinfo$?SaveST@CDlgStrategyList@@IAEXPBDH@Z DD 019930522H
	DD	0fH
	DD	FLAT:__unwindtable$?SaveST@CDlgStrategyList@@IAEXPBDH@Z
	DD	2 DUP(00H)
	DD	2 DUP(00H)
	DD	00H
	DD	01H
__unwindtable$?SaveST@CDlgStrategyList@@IAEXPBDH@Z DD 0ffffffffH
	DD	FLAT:__unwindfunclet$?SaveST@CDlgStrategyList@@IAEXPBDH@Z$0
	DD	00H
	DD	FLAT:__unwindfunclet$?SaveST@CDlgStrategyList@@IAEXPBDH@Z$1
	DD	01H
	DD	FLAT:__unwindfunclet$?SaveST@CDlgStrategyList@@IAEXPBDH@Z$2
	DD	02H
	DD	FLAT:__unwindfunclet$?SaveST@CDlgStrategyList@@IAEXPBDH@Z$16
	DD	03H
	DD	FLAT:__unwindfunclet$?SaveST@CDlgStrategyList@@IAEXPBDH@Z$17
	DD	04H
	DD	FLAT:__unwindfunclet$?SaveST@CDlgStrategyList@@IAEXPBDH@Z$18
	DD	05H
	DD	FLAT:__unwindfunclet$?SaveST@CDlgStrategyList@@IAEXPBDH@Z$19
	DD	02H
	DD	FLAT:__unwindfunclet$?SaveST@CDlgStrategyList@@IAEXPBDH@Z$7
	DD	07H
	DD	FLAT:__unwindfunclet$?SaveST@CDlgStrategyList@@IAEXPBDH@Z$8
	DD	08H
	DD	FLAT:__unwindfunclet$?SaveST@CDlgStrategyList@@IAEXPBDH@Z$9
	DD	09H
	DD	FLAT:__unwindfunclet$?SaveST@CDlgStrategyList@@IAEXPBDH@Z$10
	DD	0aH
	DD	FLAT:__unwindfunclet$?SaveST@CDlgStrategyList@@IAEXPBDH@Z$11
	DD	0bH
	DD	FLAT:__unwindfunclet$?SaveST@CDlgStrategyList@@IAEXPBDH@Z$12
	DD	0bH
	DD	FLAT:__unwindfunclet$?SaveST@CDlgStrategyList@@IAEXPBDH@Z$13
	DD	0bH
	DD	FLAT:__unwindfunclet$?SaveST@CDlgStrategyList@@IAEXPBDH@Z$14
xdata$x	ENDS
;	COMDAT xdata$x
xdata$x	SEGMENT
__ehfuncinfo$?LoadST@CDlgStrategyList@@IAEXJ@Z DD 019930522H
	DD	017H
	DD	FLAT:__unwindtable$?LoadST@CDlgStrategyList@@IAEXJ@Z
	DD	2 DUP(00H)
	DD	2 DUP(00H)
	DD	00H
	DD	01H
__unwindtable$?LoadST@CDlgStrategyList@@IAEXJ@Z DD 0ffffffffH
	DD	FLAT:__unwindfunclet$?LoadST@CDlgStrategyList@@IAEXJ@Z$0
	DD	0ffffffffH
	DD	FLAT:__unwindfunclet$?LoadST@CDlgStrategyList@@IAEXJ@Z$1
	DD	01H
	DD	FLAT:__unwindfunclet$?LoadST@CDlgStrategyList@@IAEXJ@Z$2
	DD	02H
	DD	FLAT:__unwindfunclet$?LoadST@CDlgStrategyList@@IAEXJ@Z$3
	DD	02H
	DD	FLAT:__unwindfunclet$?LoadST@CDlgStrategyList@@IAEXJ@Z$4
	DD	04H
	DD	FLAT:__unwindfunclet$?LoadST@CDlgStrategyList@@IAEXJ@Z$5
	DD	05H
	DD	FLAT:__unwindfunclet$?LoadST@CDlgStrategyList@@IAEXJ@Z$6
	DD	06H
	DD	FLAT:__unwindfunclet$?LoadST@CDlgStrategyList@@IAEXJ@Z$7
	DD	07H
	DD	FLAT:__unwindfunclet$?LoadST@CDlgStrategyList@@IAEXJ@Z$8
	DD	07H
	DD	FLAT:__unwindfunclet$?LoadST@CDlgStrategyList@@IAEXJ@Z$9
	DD	09H
	DD	FLAT:__unwindfunclet$?LoadST@CDlgStrategyList@@IAEXJ@Z$10
	DD	09H
	DD	FLAT:__unwindfunclet$?LoadST@CDlgStrategyList@@IAEXJ@Z$11
	DD	0bH
	DD	FLAT:__unwindfunclet$?LoadST@CDlgStrategyList@@IAEXJ@Z$13
	DD	0bH
	DD	00H
	DD	0bH
	DD	00H
	DD	0eH
	DD	00H
	DD	0fH
	DD	00H
	DD	010H
	DD	00H
	DD	0bH
	DD	00H
	DD	012H
	DD	00H
	DD	012H
	DD	00H
	DD	014H
	DD	00H
	DD	0bH
	DD	FLAT:__unwindfunclet$?LoadST@CDlgStrategyList@@IAEXJ@Z$23
xdata$x	ENDS
;	COMDAT xdata$x
xdata$x	SEGMENT
__ehfuncinfo$?AddRowData@CDlgStrategyList@@IAEHV?$CStringT@DV?$StrTraitMFC_DLL@DV?$ChTraitsCRT@D@ATL@@@@@ATL@@PBDHH@Z DD 019930522H
	DD	06H
	DD	FLAT:__unwindtable$?AddRowData@CDlgStrategyList@@IAEHV?$CStringT@DV?$StrTraitMFC_DLL@DV?$ChTraitsCRT@D@ATL@@@@@ATL@@PBDHH@Z
	DD	2 DUP(00H)
	DD	2 DUP(00H)
	DD	00H
	DD	01H
__unwindtable$?AddRowData@CDlgStrategyList@@IAEHV?$CStringT@DV?$StrTraitMFC_DLL@DV?$ChTraitsCRT@D@ATL@@@@@ATL@@PBDHH@Z DD 0ffffffffH
	DD	FLAT:__unwindfunclet$?AddRowData@CDlgStrategyList@@IAEHV?$CStringT@DV?$StrTraitMFC_DLL@DV?$ChTraitsCRT@D@ATL@@@@@ATL@@PBDHH@Z$0
	DD	00H
	DD	FLAT:__unwindfunclet$?AddRowData@CDlgStrategyList@@IAEHV?$CStringT@DV?$StrTraitMFC_DLL@DV?$ChTraitsCRT@D@ATL@@@@@ATL@@PBDHH@Z$1
	DD	01H
	DD	FLAT:__unwindfunclet$?AddRowData@CDlgStrategyList@@IAEHV?$CStringT@DV?$StrTraitMFC_DLL@DV?$ChTraitsCRT@D@ATL@@@@@ATL@@PBDHH@Z$2
	DD	02H
	DD	FLAT:__unwindfunclet$?AddRowData@CDlgStrategyList@@IAEHV?$CStringT@DV?$StrTraitMFC_DLL@DV?$ChTraitsCRT@D@ATL@@@@@ATL@@PBDHH@Z$6
	DD	02H
	DD	FLAT:__unwindfunclet$?AddRowData@CDlgStrategyList@@IAEHV?$CStringT@DV?$StrTraitMFC_DLL@DV?$ChTraitsCRT@D@ATL@@@@@ATL@@PBDHH@Z$7
	DD	02H
	DD	FLAT:__unwindfunclet$?AddRowData@CDlgStrategyList@@IAEHV?$CStringT@DV?$StrTraitMFC_DLL@DV?$ChTraitsCRT@D@ATL@@@@@ATL@@PBDHH@Z$5
xdata$x	ENDS
;	COMDAT xdata$x
xdata$x	SEGMENT
__unwindtable$?InitGrid@CDlgStrategyList@@IAEXXZ DD 0ffffffffH
	DD	FLAT:__unwindfunclet$?InitGrid@CDlgStrategyList@@IAEXXZ$0
__ehfuncinfo$?InitGrid@CDlgStrategyList@@IAEXXZ DD 019930522H
	DD	01H
	DD	FLAT:__unwindtable$?InitGrid@CDlgStrategyList@@IAEXXZ
	DD	2 DUP(00H)
	DD	2 DUP(00H)
	DD	00H
	DD	01H
xdata$x	ENDS
;	COMDAT xdata$x
xdata$x	SEGMENT
__ehfuncinfo$?OnClickGridSTList@CDlgStrategyList@@QAEXHH@Z DD 019930522H
	DD	0aH
	DD	FLAT:__unwindtable$?OnClickGridSTList@CDlgStrategyList@@QAEXHH@Z
	DD	2 DUP(00H)
	DD	2 DUP(00H)
	DD	00H
	DD	01H
__unwindtable$?OnClickGridSTList@CDlgStrategyList@@QAEXHH@Z DD 0ffffffffH
	DD	FLAT:__unwindfunclet$?OnClickGridSTList@CDlgStrategyList@@QAEXHH@Z$0
	DD	0ffffffffH
	DD	FLAT:__unwindfunclet$?OnClickGridSTList@CDlgStrategyList@@QAEXHH@Z$1
	DD	01H
	DD	FLAT:__unwindfunclet$?OnClickGridSTList@CDlgStrategyList@@QAEXHH@Z$2
	DD	02H
	DD	FLAT:__unwindfunclet$?OnClickGridSTList@CDlgStrategyList@@QAEXHH@Z$3
	DD	03H
	DD	FLAT:__unwindfunclet$?OnClickGridSTList@CDlgStrategyList@@QAEXHH@Z$4
	DD	0ffffffffH
	DD	FLAT:__unwindfunclet$?OnClickGridSTList@CDlgStrategyList@@QAEXHH@Z$5
	DD	05H
	DD	FLAT:__unwindfunclet$?OnClickGridSTList@CDlgStrategyList@@QAEXHH@Z$6
	DD	05H
	DD	FLAT:__unwindfunclet$?OnClickGridSTList@CDlgStrategyList@@QAEXHH@Z$7
	DD	07H
	DD	FLAT:__unwindfunclet$?OnClickGridSTList@CDlgStrategyList@@QAEXHH@Z$8
	DD	0ffffffffH
	DD	FLAT:__unwindfunclet$?OnClickGridSTList@CDlgStrategyList@@QAEXHH@Z$9
xdata$x	ENDS
;	COMDAT xdata$x
xdata$x	SEGMENT
__unwindtable$?NotifySTChangeState@CDlgStrategyList@@QAEXHPBD@Z DD 0ffffffffH
	DD	FLAT:__unwindfunclet$?NotifySTChangeState@CDlgStrategyList@@QAEXHPBD@Z$0
__ehfuncinfo$?NotifySTChangeState@CDlgStrategyList@@QAEXHPBD@Z DD 019930522H
	DD	01H
	DD	FLAT:__unwindtable$?NotifySTChangeState@CDlgStrategyList@@QAEXHPBD@Z
	DD	2 DUP(00H)
	DD	2 DUP(00H)
	DD	00H
	DD	01H
xdata$x	ENDS
;	COMDAT xdata$x
xdata$x	SEGMENT
__unwindtable$?WindowProc@CDlgStrategyList@@MAEJIIJ@Z DD 0ffffffffH
	DD	FLAT:__unwindfunclet$?WindowProc@CDlgStrategyList@@MAEJIIJ@Z$0
	DD	0ffffffffH
	DD	FLAT:__unwindfunclet$?WindowProc@CDlgStrategyList@@MAEJIIJ@Z$1
__ehfuncinfo$?WindowProc@CDlgStrategyList@@MAEJIIJ@Z DD 019930522H
	DD	02H
	DD	FLAT:__unwindtable$?WindowProc@CDlgStrategyList@@MAEJIIJ@Z
	DD	2 DUP(00H)
	DD	2 DUP(00H)
	DD	00H
	DD	01H
xdata$x	ENDS
;	COMDAT xdata$x
xdata$x	SEGMENT
__ehfuncinfo$??0CDlgStrategyList@@QAE@PAVCWnd@@@Z DD 019930522H
	DD	022H
	DD	FLAT:__unwindtable$??0CDlgStrategyList@@QAE@PAVCWnd@@@Z
	DD	2 DUP(00H)
	DD	2 DUP(00H)
	DD	00H
	DD	01H
__unwindtable$??0CDlgStrategyList@@QAE@PAVCWnd@@@Z DD 0ffffffffH
	DD	FLAT:__unwindfunclet$??0CDlgStrategyList@@QAE@PAVCWnd@@@Z$0
	DD	00H
	DD	FLAT:__unwindfunclet$??0CDlgStrategyList@@QAE@PAVCWnd@@@Z$1
	DD	01H
	DD	FLAT:__unwindfunclet$??0CDlgStrategyList@@QAE@PAVCWnd@@@Z$2
	DD	02H
	DD	FLAT:__unwindfunclet$??0CDlgStrategyList@@QAE@PAVCWnd@@@Z$3
	DD	03H
	DD	FLAT:__unwindfunclet$??0CDlgStrategyList@@QAE@PAVCWnd@@@Z$4
	DD	04H
	DD	FLAT:__unwindfunclet$??0CDlgStrategyList@@QAE@PAVCWnd@@@Z$5
	DD	05H
	DD	FLAT:__unwindfunclet$??0CDlgStrategyList@@QAE@PAVCWnd@@@Z$6
	DD	06H
	DD	FLAT:__unwindfunclet$??0CDlgStrategyList@@QAE@PAVCWnd@@@Z$7
	DD	07H
	DD	FLAT:__unwindfunclet$??0CDlgStrategyList@@QAE@PAVCWnd@@@Z$8
	DD	08H
	DD	FLAT:__unwindfunclet$??0CDlgStrategyList@@QAE@PAVCWnd@@@Z$9
	DD	09H
	DD	FLAT:__unwindfunclet$??0CDlgStrategyList@@QAE@PAVCWnd@@@Z$10
	DD	0aH
	DD	FLAT:__unwindfunclet$??0CDlgStrategyList@@QAE@PAVCWnd@@@Z$11
	DD	0bH
	DD	FLAT:__unwindfunclet$??0CDlgStrategyList@@QAE@PAVCWnd@@@Z$12
	DD	0cH
	DD	FLAT:__unwindfunclet$??0CDlgStrategyList@@QAE@PAVCWnd@@@Z$13
	DD	0dH
	DD	FLAT:__unwindfunclet$??0CDlgStrategyList@@QAE@PAVCWnd@@@Z$14
	DD	0eH
	DD	FLAT:__unwindfunclet$??0CDlgStrategyList@@QAE@PAVCWnd@@@Z$15
	DD	0fH
	DD	FLAT:__unwindfunclet$??0CDlgStrategyList@@QAE@PAVCWnd@@@Z$16
	DD	010H
	DD	FLAT:__unwindfunclet$??0CDlgStrategyList@@QAE@PAVCWnd@@@Z$17
	DD	011H
	DD	FLAT:__unwindfunclet$??0CDlgStrategyList@@QAE@PAVCWnd@@@Z$18
	DD	012H
	DD	FLAT:__unwindfunclet$??0CDlgStrategyList@@QAE@PAVCWnd@@@Z$19
	DD	013H
	DD	FLAT:__unwindfunclet$??0CDlgStrategyList@@QAE@PAVCWnd@@@Z$20
	DD	014H
	DD	FLAT:__unwindfunclet$??0CDlgStrategyList@@QAE@PAVCWnd@@@Z$21
	DD	015H
	DD	FLAT:__unwindfunclet$??0CDlgStrategyList@@QAE@PAVCWnd@@@Z$22
	DD	016H
	DD	FLAT:__unwindfunclet$??0CDlgStrategyList@@QAE@PAVCWnd@@@Z$23
	DD	017H
	DD	FLAT:__unwindfunclet$??0CDlgStrategyList@@QAE@PAVCWnd@@@Z$24
	DD	018H
	DD	FLAT:__unwindfunclet$??0CDlgStrategyList@@QAE@PAVCWnd@@@Z$25
	DD	019H
	DD	FLAT:__unwindfunclet$??0CDlgStrategyList@@QAE@PAVCWnd@@@Z$26
	DD	01aH
	DD	FLAT:__unwindfunclet$??0CDlgStrategyList@@QAE@PAVCWnd@@@Z$27
	DD	01bH
	DD	FLAT:__unwindfunclet$??0CDlgStrategyList@@QAE@PAVCWnd@@@Z$28
	DD	01cH
	DD	FLAT:__unwindfunclet$??0CDlgStrategyList@@QAE@PAVCWnd@@@Z$29
	DD	01dH
	DD	FLAT:__unwindfunclet$??0CDlgStrategyList@@QAE@PAVCWnd@@@Z$30
	DD	01eH
	DD	FLAT:__unwindfunclet$??0CDlgStrategyList@@QAE@PAVCWnd@@@Z$31
	DD	01fH
	DD	FLAT:__unwindfunclet$??0CDlgStrategyList@@QAE@PAVCWnd@@@Z$32
	DD	020H
	DD	FLAT:__unwindfunclet$??0CDlgStrategyList@@QAE@PAVCWnd@@@Z$33
xdata$x	ENDS
;	COMDAT xdata$x
xdata$x	SEGMENT
__unwindtable$?AfxGetPctrInterface@@YGJH@Z DD 0ffffffffH
	DD	FLAT:__unwindfunclet$?AfxGetPctrInterface@@YGJH@Z$0
__ehfuncinfo$?AfxGetPctrInterface@@YGJH@Z DD 019930522H
	DD	01H
	DD	FLAT:__unwindtable$?AfxGetPctrInterface@@YGJH@Z
	DD	2 DUP(00H)
	DD	2 DUP(00H)
	DD	00H
	DD	01H
xdata$x	ENDS
;	COMDAT xdata$x
xdata$x	SEGMENT
__catchsym$??1CGdiObject@@UAE@XZ$3 DD 00H
	DD	FLAT:??_R0PAVCException@@@8
	DD	0fffffde4H
	DD	FLAT:__catch$??1CGdiObject@@UAE@XZ$0
__tryblocktable$??1CGdiObject@@UAE@XZ DD 00H
	DD	00H
	DD	02H
	DD	01H
	DD	FLAT:__catchsym$??1CGdiObject@@UAE@XZ$3
__unwindtable$??1CGdiObject@@UAE@XZ DD 0ffffffffH
	DD	00H
	DD	0ffffffffH
	DD	00H
	DD	01H
	DD	FLAT:__unwindfunclet$??1CGdiObject@@UAE@XZ$2
__ehfuncinfo$??1CGdiObject@@UAE@XZ DD 019930522H
	DD	03H
	DD	FLAT:__unwindtable$??1CGdiObject@@UAE@XZ
	DD	01H
	DD	FLAT:__tryblocktable$??1CGdiObject@@UAE@XZ
	DD	2 DUP(00H)
	DD	00H
	DD	05H
xdata$x	ENDS
;	COMDAT xdata$x
xdata$x	SEGMENT
__unwindtable$??HATL@@YA?AV?$CStringT@DV?$StrTraitMFC_DLL@DV?$ChTraitsCRT@D@ATL@@@@@0@PBDABV10@@Z DD 0ffffffffH
	DD	FLAT:__unwindfunclet$??HATL@@YA?AV?$CStringT@DV?$StrTraitMFC_DLL@DV?$ChTraitsCRT@D@ATL@@@@@0@PBDABV10@@Z$0
__ehfuncinfo$??HATL@@YA?AV?$CStringT@DV?$StrTraitMFC_DLL@DV?$ChTraitsCRT@D@ATL@@@@@0@PBDABV10@@Z DD 019930522H
	DD	01H
	DD	FLAT:__unwindtable$??HATL@@YA?AV?$CStringT@DV?$StrTraitMFC_DLL@DV?$ChTraitsCRT@D@ATL@@@@@0@PBDABV10@@Z
	DD	2 DUP(00H)
	DD	2 DUP(00H)
	DD	00H
	DD	01H
xdata$x	ENDS
;	COMDAT xdata$x
xdata$x	SEGMENT
__unwindtable$??HATL@@YA?AV?$CStringT@DV?$StrTraitMFC_DLL@DV?$ChTraitsCRT@D@ATL@@@@@0@ABV10@PBD@Z DD 0ffffffffH
	DD	FLAT:__unwindfunclet$??HATL@@YA?AV?$CStringT@DV?$StrTraitMFC_DLL@DV?$ChTraitsCRT@D@ATL@@@@@0@ABV10@PBD@Z$0
__ehfuncinfo$??HATL@@YA?AV?$CStringT@DV?$StrTraitMFC_DLL@DV?$ChTraitsCRT@D@ATL@@@@@0@ABV10@PBD@Z DD 019930522H
	DD	01H
	DD	FLAT:__unwindtable$??HATL@@YA?AV?$CStringT@DV?$StrTraitMFC_DLL@DV?$ChTraitsCRT@D@ATL@@@@@0@ABV10@PBD@Z
	DD	2 DUP(00H)
	DD	2 DUP(00H)
	DD	00H
	DD	01H
xdata$x	ENDS
;	COMDAT xdata$x
xdata$x	SEGMENT
__unwindtable$??HATL@@YA?AV?$CStringT@DV?$StrTraitMFC_DLL@DV?$ChTraitsCRT@D@ATL@@@@@0@ABV10@0@Z DD 0ffffffffH
	DD	FLAT:__unwindfunclet$??HATL@@YA?AV?$CStringT@DV?$StrTraitMFC_DLL@DV?$ChTraitsCRT@D@ATL@@@@@0@ABV10@0@Z$0
__ehfuncinfo$??HATL@@YA?AV?$CStringT@DV?$StrTraitMFC_DLL@DV?$ChTraitsCRT@D@ATL@@@@@0@ABV10@0@Z DD 019930522H
	DD	01H
	DD	FLAT:__unwindtable$??HATL@@YA?AV?$CStringT@DV?$StrTraitMFC_DLL@DV?$ChTraitsCRT@D@ATL@@@@@0@ABV10@0@Z
	DD	2 DUP(00H)
	DD	2 DUP(00H)
	DD	00H
	DD	01H
xdata$x	ENDS
CRT$XCU	SEGMENT
?RMSG_FORMINITIALCOMPLETED$initializer$@@3P6AXXZA DD FLAT:??__ERMSG_FORMINITIALCOMPLETED@@YAXXZ ; RMSG_FORMINITIALCOMPLETED$initializer$
CRT$XCU	ENDS
CRT$XCU	SEGMENT
?RMSG_EVENT_CODEINPUT$initializer$@@3P6AXXZA DD FLAT:??__ERMSG_EVENT_CODEINPUT@@YAXXZ ; RMSG_EVENT_CODEINPUT$initializer$
CRT$XCU	ENDS
CRT$XCU	SEGMENT
?RMSG_EVENT_ACCTINPUT$initializer$@@3P6AXXZA DD FLAT:??__ERMSG_EVENT_ACCTINPUT@@YAXXZ ; RMSG_EVENT_ACCTINPUT$initializer$
CRT$XCU	ENDS
CRT$XCU	SEGMENT
?RMSG_EVENT_SPININPUT$initializer$@@3P6AXXZA DD FLAT:??__ERMSG_EVENT_SPININPUT@@YAXXZ ; RMSG_EVENT_SPININPUT$initializer$
CRT$XCU	ENDS
CRT$XCU	SEGMENT
?RMSG_EVENT_SIGNAL$initializer$@@3P6AXXZA DD FLAT:??__ERMSG_EVENT_SIGNAL@@YAXXZ ; RMSG_EVENT_SIGNAL$initializer$
CRT$XCU	ENDS
CRT$XCU	SEGMENT
?RMSG_FORMSTATECHANGE$initializer$@@3P6AXXZA DD FLAT:??__ERMSG_FORMSTATECHANGE@@YAXXZ ; RMSG_FORMSTATECHANGE$initializer$
CRT$XCU	ENDS
CRT$XCU	SEGMENT
?RMSG_TABSTOP$initializer$@@3P6AXXZA DD FLAT:??__ERMSG_TABSTOP@@YAXXZ ; RMSG_TABSTOP$initializer$
CRT$XCU	ENDS
CRT$XCU	SEGMENT
?RMSG_LBTNDBLCLICK$initializer$@@3P6AXXZA DD FLAT:??__ERMSG_LBTNDBLCLICK@@YAXXZ ; RMSG_LBTNDBLCLICK$initializer$
CRT$XCU	ENDS
CRT$XCU	SEGMENT
?RMSG_LBTNDOWN$initializer$@@3P6AXXZA DD FLAT:??__ERMSG_LBTNDOWN@@YAXXZ ; RMSG_LBTNDOWN$initializer$
CRT$XCU	ENDS
CRT$XCU	SEGMENT
?RMSG_ENDSCROLLPOS$initializer$@@3P6AXXZA DD FLAT:??__ERMSG_ENDSCROLLPOS@@YAXXZ ; RMSG_ENDSCROLLPOS$initializer$
CRT$XCU	ENDS
CRT$XCU	SEGMENT
?RMSG_LSHAREDCHANGED$initializer$@@3P6AXXZA DD FLAT:??__ERMSG_LSHAREDCHANGED@@YAXXZ ; RMSG_LSHAREDCHANGED$initializer$
CRT$XCU	ENDS
CRT$XCU	SEGMENT
?RMSG_STCONFIGURENAME$initializer$@@3P6AXXZA DD FLAT:??__ERMSG_STCONFIGURENAME@@YAXXZ ; RMSG_STCONFIGURENAME$initializer$
CRT$XCU	ENDS
CRT$XCU	SEGMENT
?RMSG_STCONTROLLER_POINTER$initializer$@@3P6AXXZA DD FLAT:??__ERMSG_STCONTROLLER_POINTER@@YAXXZ ; RMSG_STCONTROLLER_POINTER$initializer$
CRT$XCU	ENDS
CRT$XCU	SEGMENT
?RMSG_STSAVETOUSERST$initializer$@@3P6AXXZA DD FLAT:??__ERMSG_STSAVETOUSERST@@YAXXZ ; RMSG_STSAVETOUSERST$initializer$
CRT$XCU	ENDS
; Function compile flags: /Ogtp
; File D:\git\src\IBK\IBK_DRFN\ProjSrc\SrcDrfn\Chart\HWSTRATEGYCONFIGUREWIZARD\DlgStrategyList.cpp
;	COMDAT ??__ERMSG_STSAVETOUSERST@@YAXXZ
text$di	SEGMENT
??__ERMSG_STSAVETOUSERST@@YAXXZ PROC			; `dynamic initializer for 'RMSG_STSAVETOUSERST'', COMDAT

; 70   : const UINT RMSG_STSAVETOUSERST = ::RegisterWindowMessage("RMSG_STSAVETOUSERST");

  00000	68 00 00 00 00	 push	 OFFSET ??_C@_0BE@ODKFPHJE@RMSG_STSAVETOUSERST@
  00005	ff 15 00 00 00
	00		 call	 DWORD PTR __imp__RegisterWindowMessageA@4
  0000b	a3 00 00 00 00	 mov	 DWORD PTR ?RMSG_STSAVETOUSERST@@3IB, eax
  00010	c3		 ret	 0
??__ERMSG_STSAVETOUSERST@@YAXXZ ENDP			; `dynamic initializer for 'RMSG_STSAVETOUSERST''
text$di	ENDS
; Function compile flags: /Ogtp
; File D:\git\src\IBK\IBK_DRFN\ProjSrc\SrcDrfn\Chart\HWSTRATEGYCONFIGUREWIZARD\DlgStrategyList.cpp
;	COMDAT ??__ERMSG_STCONTROLLER_POINTER@@YAXXZ
text$di	SEGMENT
??__ERMSG_STCONTROLLER_POINTER@@YAXXZ PROC		; `dynamic initializer for 'RMSG_STCONTROLLER_POINTER'', COMDAT

; 69   : const UINT RMSG_STCONTROLLER_POINTER = ::RegisterWindowMessage("RMSG_STCONTROLLER_POINTER");

  00000	68 00 00 00 00	 push	 OFFSET ??_C@_0BK@NEGNKIAO@RMSG_STCONTROLLER_POINTER@
  00005	ff 15 00 00 00
	00		 call	 DWORD PTR __imp__RegisterWindowMessageA@4
  0000b	a3 00 00 00 00	 mov	 DWORD PTR ?RMSG_STCONTROLLER_POINTER@@3IB, eax
  00010	c3		 ret	 0
??__ERMSG_STCONTROLLER_POINTER@@YAXXZ ENDP		; `dynamic initializer for 'RMSG_STCONTROLLER_POINTER''
text$di	ENDS
; Function compile flags: /Ogtp
; File D:\git\src\IBK\IBK_DRFN\ProjSrc\SrcDrfn\Chart\HWSTRATEGYCONFIGUREWIZARD\DlgStrategyList.cpp
;	COMDAT ??__ERMSG_STCONFIGURENAME@@YAXXZ
text$di	SEGMENT
??__ERMSG_STCONFIGURENAME@@YAXXZ PROC			; `dynamic initializer for 'RMSG_STCONFIGURENAME'', COMDAT

; 68   : const UINT RMSG_STCONFIGURENAME = ::RegisterWindowMessage("RMSG_STCONFIGURENAME");

  00000	68 00 00 00 00	 push	 OFFSET ??_C@_0BF@PGCFFKKJ@RMSG_STCONFIGURENAME@
  00005	ff 15 00 00 00
	00		 call	 DWORD PTR __imp__RegisterWindowMessageA@4
  0000b	a3 00 00 00 00	 mov	 DWORD PTR ?RMSG_STCONFIGURENAME@@3IB, eax
  00010	c3		 ret	 0
??__ERMSG_STCONFIGURENAME@@YAXXZ ENDP			; `dynamic initializer for 'RMSG_STCONFIGURENAME''
text$di	ENDS
; Function compile flags: /Ogtp
; File C:\Program Files (x86)\Microsoft Visual Studio\2019\Community\VC\Tools\MSVC\14.29.30133\atlmfc\include\afx.inl
;	COMDAT ??_GCDlgStrategyList@@UAEPAXI@Z
_TEXT	SEGMENT
___flags$ = 8						; size = 4
??_GCDlgStrategyList@@UAEPAXI@Z PROC			; CDlgStrategyList::`scalar deleting destructor', COMDAT
; _this$ = ecx
  00000	55		 push	 ebp
  00001	8b ec		 mov	 ebp, esp
  00003	56		 push	 esi
  00004	8b f1		 mov	 esi, ecx
  00006	e8 00 00 00 00	 call	 ??1CDlgStrategyList@@UAE@XZ
  0000b	8b 45 08	 mov	 eax, DWORD PTR ___flags$[ebp]
  0000e	a8 01		 test	 al, 1
  00010	74 22		 je	 SHORT $LN9@scalar
  00012	a8 04		 test	 al, 4
  00014	75 10		 jne	 SHORT $LN3@scalar

; 112  : 	{ ::operator delete(p); }

  00016	56		 push	 esi
  00017	e8 00 00 00 00	 call	 ??3@YAXPAX@Z		; operator delete
  0001c	83 c4 04	 add	 esp, 4
  0001f	8b c6		 mov	 eax, esi
  00021	5e		 pop	 esi
  00022	5d		 pop	 ebp
  00023	c2 04 00	 ret	 4
$LN3@scalar:
  00026	68 10 17 00 00	 push	 5904			; 00001710H
  0002b	56		 push	 esi
  0002c	e8 00 00 00 00	 call	 ?__global_delete@@YAXPAXI@Z ; __global_delete
  00031	83 c4 08	 add	 esp, 8
$LN9@scalar:
  00034	8b c6		 mov	 eax, esi
  00036	5e		 pop	 esi
  00037	5d		 pop	 ebp
  00038	c2 04 00	 ret	 4
??_GCDlgStrategyList@@UAEPAXI@Z ENDP			; CDlgStrategyList::`scalar deleting destructor'
_TEXT	ENDS
; Function compile flags: /Ogtp
; File C:\Program Files (x86)\Microsoft Visual Studio\2019\Community\VC\Tools\MSVC\14.29.30133\atlmfc\include\afxwin1.inl
;	COMDAT ??1CDlgStrategyList@@UAE@XZ
_TEXT	SEGMENT
??1CDlgStrategyList@@UAE@XZ PROC			; CDlgStrategyList::~CDlgStrategyList, COMDAT
; _this$ = ecx

; 130  : 	{ }

  00000	56		 push	 esi
  00001	57		 push	 edi
  00002	8b f9		 mov	 edi, ecx
  00004	8d 8f 00 17 00
	00		 lea	 ecx, DWORD PTR [edi+5888]
  0000a	c7 01 00 00 00
	00		 mov	 DWORD PTR [ecx], OFFSET ??_7CBrush@@6B@
  00010	e8 00 00 00 00	 call	 ??1CGdiObject@@UAE@XZ	; CGdiObject::~CGdiObject
  00015	8d 8f ec 16 00
	00		 lea	 ecx, DWORD PTR [edi+5868]
  0001b	c7 01 00 00 00
	00		 mov	 DWORD PTR [ecx], OFFSET ??_7CBrush@@6B@
  00021	e8 00 00 00 00	 call	 ??1CGdiObject@@UAE@XZ	; CGdiObject::~CGdiObject
  00026	8d 8f 50 16 00
	00		 lea	 ecx, DWORD PTR [edi+5712]
  0002c	e8 00 00 00 00	 call	 ??1CExEdit@@UAE@XZ	; CExEdit::~CExEdit
  00031	8d 8f c0 15 00
	00		 lea	 ecx, DWORD PTR [edi+5568]
  00037	e8 00 00 00 00	 call	 ??1CExDrawButton@@UAE@XZ ; CExDrawButton::~CExDrawButton
  0003c	8d 8f 38 15 00
	00		 lea	 ecx, DWORD PTR [edi+5432]
  00042	e8 00 00 00 00	 call	 ??1CExEdit@@UAE@XZ	; CExEdit::~CExEdit
  00047	8d 8f 90 14 00
	00		 lea	 ecx, DWORD PTR [edi+5264]
  0004d	e8 00 00 00 00	 call	 ??1CDialog@@UAE@XZ	; CDialog::~CDialog
  00052	8d 8f 74 14 00
	00		 lea	 ecx, DWORD PTR [edi+5236]

; 155  : 	{ }

  00058	c7 01 00 00 00
	00		 mov	 DWORD PTR [ecx], OFFSET ??_7CFont@@6B@
  0005e	e8 00 00 00 00	 call	 ??1CGdiObject@@UAE@XZ	; CGdiObject::~CGdiObject
  00063	8d 8f 68 14 00
	00		 lea	 ecx, DWORD PTR [edi+5224]
  00069	ff 15 00 00 00
	00		 call	 DWORD PTR __imp_??1?$CStringT@DV?$StrTraitMFC_DLL@DV?$ChTraitsCRT@D@ATL@@@@@ATL@@QAE@XZ
  0006f	8d 8f d8 0f 00
	00		 lea	 ecx, DWORD PTR [edi+4056]
  00075	e8 00 00 00 00	 call	 ??1CGridCtrl@@UAE@XZ	; CGridCtrl::~CGridCtrl
  0007a	8d 8f d0 0f 00
	00		 lea	 ecx, DWORD PTR [edi+4048]
  00080	ff 15 00 00 00
	00		 call	 DWORD PTR __imp_??1?$CStringT@DV?$StrTraitMFC_DLL@DV?$ChTraitsCRT@D@ATL@@@@@ATL@@QAE@XZ
  00086	8d 8f cc 0f 00
	00		 lea	 ecx, DWORD PTR [edi+4044]
  0008c	ff 15 00 00 00
	00		 call	 DWORD PTR __imp_??1?$CStringT@DV?$StrTraitMFC_DLL@DV?$ChTraitsCRT@D@ATL@@@@@ATL@@QAE@XZ
  00092	8d 8f c8 0f 00
	00		 lea	 ecx, DWORD PTR [edi+4040]
  00098	ff 15 00 00 00
	00		 call	 DWORD PTR __imp_??1?$CStringT@DV?$StrTraitMFC_DLL@DV?$ChTraitsCRT@D@ATL@@@@@ATL@@QAE@XZ
  0009e	8d 8f c4 0f 00
	00		 lea	 ecx, DWORD PTR [edi+4036]
  000a4	ff 15 00 00 00
	00		 call	 DWORD PTR __imp_??1?$CStringT@DV?$StrTraitMFC_DLL@DV?$ChTraitsCRT@D@ATL@@@@@ATL@@QAE@XZ
  000aa	8d 8f c0 0f 00
	00		 lea	 ecx, DWORD PTR [edi+4032]
  000b0	ff 15 00 00 00
	00		 call	 DWORD PTR __imp_??1?$CStringT@DV?$StrTraitMFC_DLL@DV?$ChTraitsCRT@D@ATL@@@@@ATL@@QAE@XZ
  000b6	8d 8f 18 0e 00
	00		 lea	 ecx, DWORD PTR [edi+3608]
  000bc	e8 00 00 00 00	 call	 ??1CXListCtrl@@UAE@XZ	; CXListCtrl::~CXListCtrl
  000c1	8d 8f 88 0d 00
	00		 lea	 ecx, DWORD PTR [edi+3464]
  000c7	e8 00 00 00 00	 call	 ??1CExDrawButton@@UAE@XZ ; CExDrawButton::~CExDrawButton
  000cc	8d 8f f8 0c 00
	00		 lea	 ecx, DWORD PTR [edi+3320]
  000d2	e8 00 00 00 00	 call	 ??1CExDrawButton@@UAE@XZ ; CExDrawButton::~CExDrawButton
  000d7	8d 8f 68 0c 00
	00		 lea	 ecx, DWORD PTR [edi+3176]
  000dd	e8 00 00 00 00	 call	 ??1CExDrawButton@@UAE@XZ ; CExDrawButton::~CExDrawButton
  000e2	8d 8f d8 0b 00
	00		 lea	 ecx, DWORD PTR [edi+3032]
  000e8	e8 00 00 00 00	 call	 ??1CExDrawButton@@UAE@XZ ; CExDrawButton::~CExDrawButton
  000ed	8d 8f 48 0b 00
	00		 lea	 ecx, DWORD PTR [edi+2888]
  000f3	e8 00 00 00 00	 call	 ??1CExDrawButton@@UAE@XZ ; CExDrawButton::~CExDrawButton
  000f8	8d 8f b8 0a 00
	00		 lea	 ecx, DWORD PTR [edi+2744]
  000fe	e8 00 00 00 00	 call	 ??1CExDrawButton@@UAE@XZ ; CExDrawButton::~CExDrawButton
  00103	8d 8f 28 0a 00
	00		 lea	 ecx, DWORD PTR [edi+2600]
  00109	e8 00 00 00 00	 call	 ??1CExDrawButton@@UAE@XZ ; CExDrawButton::~CExDrawButton
  0010e	8d 8f 98 09 00
	00		 lea	 ecx, DWORD PTR [edi+2456]
  00114	e8 00 00 00 00	 call	 ??1CExDrawButton@@UAE@XZ ; CExDrawButton::~CExDrawButton
  00119	8d 8f 08 09 00
	00		 lea	 ecx, DWORD PTR [edi+2312]
  0011f	e8 00 00 00 00	 call	 ??1CExDrawButton@@UAE@XZ ; CExDrawButton::~CExDrawButton
  00124	8d 8f 78 08 00
	00		 lea	 ecx, DWORD PTR [edi+2168]
  0012a	e8 00 00 00 00	 call	 ??1CExDrawButton@@UAE@XZ ; CExDrawButton::~CExDrawButton
  0012f	8d 8f e8 07 00
	00		 lea	 ecx, DWORD PTR [edi+2024]
  00135	e8 00 00 00 00	 call	 ??1CExDrawButton@@UAE@XZ ; CExDrawButton::~CExDrawButton
  0013a	8d 8f 58 07 00
	00		 lea	 ecx, DWORD PTR [edi+1880]
  00140	e8 00 00 00 00	 call	 ??1CExDrawButton@@UAE@XZ ; CExDrawButton::~CExDrawButton
  00145	8d 8f c8 06 00
	00		 lea	 ecx, DWORD PTR [edi+1736]
  0014b	e8 00 00 00 00	 call	 ??1CExDrawButton@@UAE@XZ ; CExDrawButton::~CExDrawButton
  00150	8d 8f 38 06 00
	00		 lea	 ecx, DWORD PTR [edi+1592]
  00156	e8 00 00 00 00	 call	 ??1CExDrawButton@@UAE@XZ ; CExDrawButton::~CExDrawButton
  0015b	8d 8f a8 05 00
	00		 lea	 ecx, DWORD PTR [edi+1448]
  00161	e8 00 00 00 00	 call	 ??1CExDrawButton@@UAE@XZ ; CExDrawButton::~CExDrawButton
  00166	8d 8f 18 05 00
	00		 lea	 ecx, DWORD PTR [edi+1304]
  0016c	e8 00 00 00 00	 call	 ??1CExDrawButton@@UAE@XZ ; CExDrawButton::~CExDrawButton
  00171	8d 8f 88 04 00
	00		 lea	 ecx, DWORD PTR [edi+1160]
  00177	e8 00 00 00 00	 call	 ??1CExDrawButton@@UAE@XZ ; CExDrawButton::~CExDrawButton
  0017c	8d 8f f8 03 00
	00		 lea	 ecx, DWORD PTR [edi+1016]
  00182	e8 00 00 00 00	 call	 ??1CExDrawButton@@UAE@XZ ; CExDrawButton::~CExDrawButton
  00187	8d 8f 68 03 00
	00		 lea	 ecx, DWORD PTR [edi+872]
  0018d	e8 00 00 00 00	 call	 ??1CExDrawButton@@UAE@XZ ; CExDrawButton::~CExDrawButton
  00192	8d 8f d8 02 00
	00		 lea	 ecx, DWORD PTR [edi+728]
  00198	e8 00 00 00 00	 call	 ??1CExDrawButton@@UAE@XZ ; CExDrawButton::~CExDrawButton
  0019d	8d 8f 30 02 00
	00		 lea	 ecx, DWORD PTR [edi+560]
  001a3	e8 00 00 00 00	 call	 ??1CLogicEditCtrl@@UAE@XZ ; CLogicEditCtrl::~CLogicEditCtrl
  001a8	8d 8f b0 01 00
	00		 lea	 ecx, DWORD PTR [edi+432]
  001ae	e8 00 00 00 00	 call	 ??1CStatic@@UAE@XZ	; CStatic::~CStatic
  001b3	8d 8f 30 01 00
	00		 lea	 ecx, DWORD PTR [edi+304]
  001b9	e8 00 00 00 00	 call	 ??1CStatic@@UAE@XZ	; CStatic::~CStatic
  001be	8d 8f a8 00 00
	00		 lea	 ecx, DWORD PTR [edi+168]
  001c4	e8 00 00 00 00	 call	 ??1CExEdit@@UAE@XZ	; CExEdit::~CExEdit
  001c9	8b cf		 mov	 ecx, edi
  001cb	5f		 pop	 edi
  001cc	5e		 pop	 esi
  001cd	e9 00 00 00 00	 jmp	 ??1CDialog@@UAE@XZ	; CDialog::~CDialog
??1CDlgStrategyList@@UAE@XZ ENDP			; CDlgStrategyList::~CDlgStrategyList
_TEXT	ENDS
; Function compile flags: /Ogtp
; File D:\git\src\IBK\IBK_DRFN\ProjSrc\SrcDrfn\Chart\HWSTRATEGYCONFIGUREWIZARD\DlgStrategyList.cpp
; File C:\Program Files (x86)\Microsoft Visual Studio\2019\Community\VC\Tools\MSVC\14.29.30133\atlmfc\include\afxcmn.inl
; File D:\git\src\IBK\IBK_DRFN\ProjSrc\SrcDrfn\Chart\HWSTRATEGYCONFIGUREWIZARD\DlgStrategyList.cpp
; File C:\Program Files (x86)\Microsoft Visual Studio\2019\Community\VC\Tools\MSVC\14.29.30133\atlmfc\include\afxcmn.inl
; File D:\git\src\IBK\IBK_DRFN\ProjSrc\SrcDrfn\Chart\HWSTRATEGYCONFIGUREWIZARD\DlgStrategyList.cpp
; File C:\Program Files (x86)\Microsoft Visual Studio\2019\Community\VC\Tools\MSVC\14.29.30133\atlmfc\include\afxcoll.inl
; File D:\git\src\IBK\IBK_DRFN\ProjSrc\SrcDrfn\Chart\HWSTRATEGYCONFIGUREWIZARD\DlgStrategyList.cpp
; File C:\Program Files (x86)\Microsoft Visual Studio\2019\Community\VC\Tools\MSVC\14.29.30133\atlmfc\include\afxcoll.inl
; File D:\git\src\IBK\IBK_DRFN\ProjSrc\SrcDrfn\Chart\HWSTRATEGYCONFIGUREWIZARD\DlgStrategyList.cpp
; File C:\Program Files (x86)\Microsoft Visual Studio\2019\Community\VC\Tools\MSVC\14.29.30133\atlmfc\include\atlsimpstr.h
; File D:\git\src\IBK\IBK_DRFN\ProjSrc\SrcDrfn\Chart\HWSTRATEGYCONFIGUREWIZARD\DlgStrategyList.h
; File C:\Program Files (x86)\Microsoft Visual Studio\2019\Community\VC\Tools\MSVC\14.29.30133\atlmfc\include\afxcoll.inl
; File D:\git\src\IBK\IBK_DRFN\ProjSrc\SrcDrfn\Chart\HWSTRATEGYCONFIGUREWIZARD\DlgStrategyList.h
; File C:\Program Files (x86)\Microsoft Visual Studio\2019\Community\VC\Tools\MSVC\14.29.30133\atlmfc\include\afxcoll.inl
; File D:\git\src\IBK\IBK_DRFN\ProjSrc\SrcDrfn\Chart\HWSTRATEGYCONFIGUREWIZARD\DlgStrategyList.h
; File D:\git\src\IBK\IBK_DRFN\ProjSrc\SrcDrfn\Chart\HWSTRATEGYCONFIGUREWIZARD\DlgStrategyList.cpp
; File C:\Program Files (x86)\Microsoft Visual Studio\2019\Community\VC\Tools\MSVC\14.29.30133\atlmfc\include\afxcoll.inl
; File D:\git\src\IBK\IBK_DRFN\ProjSrc\SrcDrfn\Chart\HWSTRATEGYCONFIGUREWIZARD\DlgStrategyList.cpp
;	COMDAT ?OnBnClickedButtonSaveconfig@CDlgStrategyList@@QAEXXZ
_TEXT	SEGMENT
_inArr$ = -64						; size = 20
_cellRange$ = -44					; size = 16
_szTmp$2 = -28						; size = 4
$T3 = -28						; size = 4
_szSTName$ = -24					; size = 4
_szStr$ = -20						; size = 4
_this$1$ = -16						; size = 4
_szTitle$4 = -16					; size = 4
__$EHRec$ = -12						; size = 12
?OnBnClickedButtonSaveconfig@CDlgStrategyList@@QAEXXZ PROC ; CDlgStrategyList::OnBnClickedButtonSaveconfig, COMDAT
; _this$ = ecx

; 1742 : {

  00000	55		 push	 ebp
  00001	8b ec		 mov	 ebp, esp
  00003	6a ff		 push	 -1
  00005	68 00 00 00 00	 push	 __ehhandler$?OnBnClickedButtonSaveconfig@CDlgStrategyList@@QAEXXZ
  0000a	64 a1 00 00 00
	00		 mov	 eax, DWORD PTR fs:0
  00010	50		 push	 eax
  00011	83 ec 34	 sub	 esp, 52			; 00000034H
  00014	53		 push	 ebx
  00015	56		 push	 esi
  00016	57		 push	 edi
  00017	a1 00 00 00 00	 mov	 eax, DWORD PTR ___security_cookie
  0001c	33 c5		 xor	 eax, ebp
  0001e	50		 push	 eax
  0001f	8d 45 f4	 lea	 eax, DWORD PTR __$EHRec$[ebp]
  00022	64 a3 00 00 00
	00		 mov	 DWORD PTR fs:0, eax
  00028	8b d9		 mov	 ebx, ecx
  0002a	89 5d f0	 mov	 DWORD PTR _this$1$[ebp], ebx

; 1743 : 	CString szSTName;

  0002d	8d 4d e8	 lea	 ecx, DWORD PTR _szSTName$[ebp]
  00030	ff 15 00 00 00
	00		 call	 DWORD PTR __imp_??0?$CStringT@DV?$StrTraitMFC_DLL@DV?$ChTraitsCRT@D@ATL@@@@@ATL@@QAE@XZ

; 1744 : 	CStringArray inArr;

  00036	8d 4d c0	 lea	 ecx, DWORD PTR _inArr$[ebp]
  00039	c7 45 fc 00 00
	00 00		 mov	 DWORD PTR __$EHRec$[ebp+8], 0
  00040	e8 00 00 00 00	 call	 ??0CStringArray@@QAE@XZ	; CStringArray::CStringArray
; File C:\Program Files (x86)\Microsoft Visual Studio\2019\Community\VC\Tools\MSVC\14.29.30133\atlmfc\include\afxcmn.inl

; 155  : 	{ ASSERT(::IsWindow(m_hWnd)); return (int) ::SendMessage(m_hWnd, LVM_GETITEMCOUNT, 0, 0L); }

  00045	6a 00		 push	 0
  00047	6a 00		 push	 0
  00049	68 04 10 00 00	 push	 4100			; 00001004H
  0004e	ff b3 38 0e 00
	00		 push	 DWORD PTR [ebx+3640]
; File D:\git\src\IBK\IBK_DRFN\ProjSrc\SrcDrfn\Chart\HWSTRATEGYCONFIGUREWIZARD\DlgStrategyList.cpp

; 1744 : 	CStringArray inArr;

  00054	c6 45 fc 01	 mov	 BYTE PTR __$EHRec$[ebp+8], 1
; File C:\Program Files (x86)\Microsoft Visual Studio\2019\Community\VC\Tools\MSVC\14.29.30133\atlmfc\include\afxcmn.inl

; 155  : 	{ ASSERT(::IsWindow(m_hWnd)); return (int) ::SendMessage(m_hWnd, LVM_GETITEMCOUNT, 0, 0L); }

  00058	ff 15 00 00 00
	00		 call	 DWORD PTR __imp__SendMessageA@16
; File D:\git\src\IBK\IBK_DRFN\ProjSrc\SrcDrfn\Chart\HWSTRATEGYCONFIGUREWIZARD\DlgStrategyList.cpp

; 1745 : 	int nCount = m_InputList.GetItemCount();

  0005e	8b f8		 mov	 edi, eax

; 1746 : 
; 1747 : 	for(int i=0; i<nCount;i++)

  00060	33 f6		 xor	 esi, esi
  00062	85 ff		 test	 edi, edi
  00064	7e 37		 jle	 SHORT $LN42@OnBnClicke
$LL4@OnBnClicke:

; 1749 : 		inArr.Add(m_InputList.GetItemText(i, 1));

  00066	6a 01		 push	 1
  00068	56		 push	 esi
  00069	8d 45 e4	 lea	 eax, DWORD PTR $T3[ebp]
  0006c	50		 push	 eax
  0006d	8d 8b 18 0e 00
	00		 lea	 ecx, DWORD PTR [ebx+3608]
  00073	e8 00 00 00 00	 call	 ?GetItemText@CListCtrl@@QBE?AV?$CStringT@DV?$StrTraitMFC_DLL@DV?$ChTraitsCRT@D@ATL@@@@@ATL@@HH@Z ; CListCtrl::GetItemText
; File C:\Program Files (x86)\Microsoft Visual Studio\2019\Community\VC\Tools\MSVC\14.29.30133\atlmfc\include\afxcoll.inl

; 321  : 		SetAtGrow(nIndex, newElement);

  00078	50		 push	 eax
  00079	ff 75 c8	 push	 DWORD PTR _inArr$[ebp+8]
  0007c	8d 4d c0	 lea	 ecx, DWORD PTR _inArr$[ebp]
; File D:\git\src\IBK\IBK_DRFN\ProjSrc\SrcDrfn\Chart\HWSTRATEGYCONFIGUREWIZARD\DlgStrategyList.cpp

; 1749 : 		inArr.Add(m_InputList.GetItemText(i, 1));

  0007f	c6 45 fc 02	 mov	 BYTE PTR __$EHRec$[ebp+8], 2
; File C:\Program Files (x86)\Microsoft Visual Studio\2019\Community\VC\Tools\MSVC\14.29.30133\atlmfc\include\afxcoll.inl

; 321  : 		SetAtGrow(nIndex, newElement);

  00083	e8 00 00 00 00	 call	 ?SetAtGrow@CStringArray@@QAEXHABV?$CStringT@DV?$StrTraitMFC_DLL@DV?$ChTraitsCRT@D@ATL@@@@@ATL@@@Z ; CStringArray::SetAtGrow
; File D:\git\src\IBK\IBK_DRFN\ProjSrc\SrcDrfn\Chart\HWSTRATEGYCONFIGUREWIZARD\DlgStrategyList.cpp

; 1749 : 		inArr.Add(m_InputList.GetItemText(i, 1));

  00088	8d 4d e4	 lea	 ecx, DWORD PTR $T3[ebp]
  0008b	c6 45 fc 01	 mov	 BYTE PTR __$EHRec$[ebp+8], 1
  0008f	ff 15 00 00 00
	00		 call	 DWORD PTR __imp_??1?$CStringT@DV?$StrTraitMFC_DLL@DV?$ChTraitsCRT@D@ATL@@@@@ATL@@QAE@XZ
  00095	46		 inc	 esi
  00096	3b f7		 cmp	 esi, edi
  00098	7c cc		 jl	 SHORT $LL4@OnBnClicke
  0009a	8b 5d f0	 mov	 ebx, DWORD PTR _this$1$[ebp]
$LN42@OnBnClicke:

; 1750 : 	}
; 1751 : 
; 1752 : 	GetDlgItemText(IDC_EDIT_STNAME, szSTName);

  0009d	8d 45 e8	 lea	 eax, DWORD PTR _szSTName$[ebp]
  000a0	8b cb		 mov	 ecx, ebx
  000a2	50		 push	 eax
  000a3	68 0a 52 00 00	 push	 21002			; 0000520aH
  000a8	e8 00 00 00 00	 call	 ?GetDlgItemTextA@CWnd@@QBEHHAAV?$CStringT@DV?$StrTraitMFC_DLL@DV?$ChTraitsCRT@D@ATL@@@@@ATL@@@Z ; CWnd::GetDlgItemTextA
; File C:\Program Files (x86)\Microsoft Visual Studio\2019\Community\VC\Tools\MSVC\14.29.30133\atlmfc\include\atlsimpstr.h

; 377  : 		return( m_pszData );

  000ad	8b 75 e8	 mov	 esi, DWORD PTR _szSTName$[ebp]
; File D:\git\src\IBK\IBK_DRFN\ProjSrc\SrcDrfn\Chart\HWSTRATEGYCONFIGUREWIZARD\DlgStrategyList.h

; 207  : 		CString szTitle, szTmp;

  000b0	8d 4d f0	 lea	 ecx, DWORD PTR _szTitle$4[ebp]
  000b3	ff 15 00 00 00
	00		 call	 DWORD PTR __imp_??0?$CStringT@DV?$StrTraitMFC_DLL@DV?$ChTraitsCRT@D@ATL@@@@@ATL@@QAE@XZ
  000b9	8d 4d e4	 lea	 ecx, DWORD PTR _szTmp$2[ebp]
  000bc	ff 15 00 00 00
	00		 call	 DWORD PTR __imp_??0?$CStringT@DV?$StrTraitMFC_DLL@DV?$ChTraitsCRT@D@ATL@@@@@ATL@@QAE@XZ

; 208  : 		int nCount = inArr.GetSize();

  000c2	8b 7d c8	 mov	 edi, DWORD PTR _inArr$[ebp+8]

; 209  : 		szTitle = szSTName;

  000c5	8d 4d f0	 lea	 ecx, DWORD PTR _szTitle$4[ebp]
  000c8	56		 push	 esi
  000c9	c6 45 fc 04	 mov	 BYTE PTR __$EHRec$[ebp+8], 4
  000cd	ff 15 00 00 00
	00		 call	 DWORD PTR __imp_??4?$CStringT@DV?$StrTraitMFC_DLL@DV?$ChTraitsCRT@D@ATL@@@@@ATL@@QAEAAV01@PBD@Z

; 210  : 		if(nCount==0) return szTitle;

  000d3	85 ff		 test	 edi, edi
  000d5	74 5f		 je	 SHORT $LN47@OnBnClicke

; 211  : 
; 212  : 		szTitle+= "(";

  000d7	68 00 00 00 00	 push	 OFFSET ??_C@_01ODHLEDKK@?$CI@
  000dc	8d 4d f0	 lea	 ecx, DWORD PTR _szTitle$4[ebp]
  000df	ff 15 00 00 00
	00		 call	 DWORD PTR __imp_??Y?$CStringT@DV?$StrTraitMFC_DLL@DV?$ChTraitsCRT@D@ATL@@@@@ATL@@QAEAAV01@PBD@Z

; 213  : 		for(int i=0; i<nCount; i++)

  000e5	33 f6		 xor	 esi, esi
  000e7	85 ff		 test	 edi, edi
  000e9	7e 3d		 jle	 SHORT $LN18@OnBnClicke
  000eb	0f 1f 44 00 00	 npad	 5
$LL19@OnBnClicke:
; File C:\Program Files (x86)\Microsoft Visual Studio\2019\Community\VC\Tools\MSVC\14.29.30133\atlmfc\include\afxcoll.inl

; 289  : 		if( nIndex < 0 || nIndex >= m_nSize )

  000f0	85 f6		 test	 esi, esi
  000f2	0f 88 c1 00 00
	00		 js	 $LN37@OnBnClicke
  000f8	3b 75 c8	 cmp	 esi, DWORD PTR _inArr$[ebp+8]
  000fb	0f 8d b8 00 00
	00		 jge	 $LN37@OnBnClicke

; 291  : 		return m_pData[nIndex]; }

  00101	8b 45 c4	 mov	 eax, DWORD PTR _inArr$[ebp+4]
; File D:\git\src\IBK\IBK_DRFN\ProjSrc\SrcDrfn\Chart\HWSTRATEGYCONFIGUREWIZARD\DlgStrategyList.h

; 215  : 			szTitle += inArr.GetAt(i);

  00104	8d 4d f0	 lea	 ecx, DWORD PTR _szTitle$4[ebp]
; File C:\Program Files (x86)\Microsoft Visual Studio\2019\Community\VC\Tools\MSVC\14.29.30133\atlmfc\include\afxcoll.inl

; 291  : 		return m_pData[nIndex]; }

  00107	8d 04 b0	 lea	 eax, DWORD PTR [eax+esi*4]
; File D:\git\src\IBK\IBK_DRFN\ProjSrc\SrcDrfn\Chart\HWSTRATEGYCONFIGUREWIZARD\DlgStrategyList.h

; 215  : 			szTitle += inArr.GetAt(i);

  0010a	50		 push	 eax
  0010b	ff 15 00 00 00
	00		 call	 DWORD PTR __imp_??Y?$CStringT@DV?$StrTraitMFC_DLL@DV?$ChTraitsCRT@D@ATL@@@@@ATL@@QAEAAV01@ABV?$CSimpleStringT@D$00@1@@Z

; 216  : 			if(i+1<nCount) szTitle += ",";

  00111	46		 inc	 esi
  00112	3b f7		 cmp	 esi, edi
  00114	7d 12		 jge	 SHORT $LN18@OnBnClicke
  00116	68 00 00 00 00	 push	 OFFSET ??_C@_01IHBHIGKO@?0@
  0011b	8d 4d f0	 lea	 ecx, DWORD PTR _szTitle$4[ebp]
  0011e	ff 15 00 00 00
	00		 call	 DWORD PTR __imp_??Y?$CStringT@DV?$StrTraitMFC_DLL@DV?$ChTraitsCRT@D@ATL@@@@@ATL@@QAEAAV01@PBD@Z
  00124	3b f7		 cmp	 esi, edi
  00126	7c c8		 jl	 SHORT $LL19@OnBnClicke
$LN18@OnBnClicke:

; 217  : 		}
; 218  : 		szTitle += ")";

  00128	68 00 00 00 00	 push	 OFFSET ??_C@_01PKGAHCOL@?$CJ@
  0012d	8d 4d f0	 lea	 ecx, DWORD PTR _szTitle$4[ebp]
  00130	ff 15 00 00 00
	00		 call	 DWORD PTR __imp_??Y?$CStringT@DV?$StrTraitMFC_DLL@DV?$ChTraitsCRT@D@ATL@@@@@ATL@@QAEAAV01@PBD@Z
$LN47@OnBnClicke:
; File D:\git\src\IBK\IBK_DRFN\ProjSrc\SrcDrfn\Chart\HWSTRATEGYCONFIGUREWIZARD\DlgStrategyList.cpp

; 1753 : 	CString szStr = CHelperSTTitle::MakeTitle(szSTName, inArr);

  00136	8d 45 f0	 lea	 eax, DWORD PTR _szTitle$4[ebp]
  00139	50		 push	 eax
  0013a	8d 4d ec	 lea	 ecx, DWORD PTR _szStr$[ebp]
  0013d	ff 15 00 00 00
	00		 call	 DWORD PTR __imp_??0?$CStringT@DV?$StrTraitMFC_DLL@DV?$ChTraitsCRT@D@ATL@@@@@ATL@@QAE@ABV01@@Z
  00143	8d 4d e4	 lea	 ecx, DWORD PTR _szTmp$2[ebp]
  00146	ff 15 00 00 00
	00		 call	 DWORD PTR __imp_??1?$CStringT@DV?$StrTraitMFC_DLL@DV?$ChTraitsCRT@D@ATL@@@@@ATL@@QAE@XZ
  0014c	8d 4d f0	 lea	 ecx, DWORD PTR _szTitle$4[ebp]
  0014f	ff 15 00 00 00
	00		 call	 DWORD PTR __imp_??1?$CStringT@DV?$StrTraitMFC_DLL@DV?$ChTraitsCRT@D@ATL@@@@@ATL@@QAE@XZ

; 1754 : 
; 1755 : 	//   .
; 1756 : 	m_InputList.UnpressEditBox();

  00155	8d 8b 18 0e 00
	00		 lea	 ecx, DWORD PTR [ebx+3608]
  0015b	c6 45 fc 05	 mov	 BYTE PTR __$EHRec$[ebp+8], 5
  0015f	e8 00 00 00 00	 call	 ?UnpressEditBox@CXListCtrl@@QAEXXZ ; CXListCtrl::UnpressEditBox

; 1757 : 	CCellRange cellRange = m_GridSTList.GetSelectedCellRange();

  00164	8d 45 d4	 lea	 eax, DWORD PTR _cellRange$[ebp]
  00167	50		 push	 eax
  00168	8d 8b d8 0f 00
	00		 lea	 ecx, DWORD PTR [ebx+4056]
  0016e	e8 00 00 00 00	 call	 ?GetSelectedCellRange@CGridCtrl@@QBE?AVCCellRange@@XZ ; CGridCtrl::GetSelectedCellRange

; 1758 : 	int nModifyRow = cellRange.GetMaxRow();
; 1759 : 
; 1760 : 	m_GridSTList.SetItemText(nModifyRow,COL_TITLE, szStr);

  00173	ff 75 ec	 push	 DWORD PTR _szStr$[ebp]
  00176	8d 8b d8 0f 00
	00		 lea	 ecx, DWORD PTR [ebx+4056]
  0017c	6a 01		 push	 1
  0017e	ff 75 dc	 push	 DWORD PTR _cellRange$[ebp+8]
  00181	e8 00 00 00 00	 call	 ?SetItemText@CGridCtrl@@QAEHHHPBD@Z ; CGridCtrl::SetItemText

; 1761 : 	ResizeAll();	

  00186	8b cb		 mov	 ecx, ebx
  00188	e8 00 00 00 00	 call	 ?ResizeAll@CDlgStrategyList@@QAEXXZ ; CDlgStrategyList::ResizeAll

; 1762 : }

  0018d	8d 4d ec	 lea	 ecx, DWORD PTR _szStr$[ebp]
  00190	ff 15 00 00 00
	00		 call	 DWORD PTR __imp_??1?$CStringT@DV?$StrTraitMFC_DLL@DV?$ChTraitsCRT@D@ATL@@@@@ATL@@QAE@XZ
  00196	8d 4d c0	 lea	 ecx, DWORD PTR _inArr$[ebp]
  00199	e8 00 00 00 00	 call	 ??1CStringArray@@UAE@XZ	; CStringArray::~CStringArray
  0019e	8d 4d e8	 lea	 ecx, DWORD PTR _szSTName$[ebp]
  001a1	ff 15 00 00 00
	00		 call	 DWORD PTR __imp_??1?$CStringT@DV?$StrTraitMFC_DLL@DV?$ChTraitsCRT@D@ATL@@@@@ATL@@QAE@XZ
  001a7	8b 4d f4	 mov	 ecx, DWORD PTR __$EHRec$[ebp]
  001aa	64 89 0d 00 00
	00 00		 mov	 DWORD PTR fs:0, ecx
  001b1	59		 pop	 ecx
  001b2	5f		 pop	 edi
  001b3	5e		 pop	 esi
  001b4	5b		 pop	 ebx
  001b5	8b e5		 mov	 esp, ebp
  001b7	5d		 pop	 ebp
  001b8	c3		 ret	 0
$LN37@OnBnClicke:
; File C:\Program Files (x86)\Microsoft Visual Studio\2019\Community\VC\Tools\MSVC\14.29.30133\atlmfc\include\afxcoll.inl

; 290  : 			AfxThrowInvalidArgException();

  001b9	e8 00 00 00 00	 call	 ?AfxThrowInvalidArgException@@YGXXZ ; AfxThrowInvalidArgException
$LN46@OnBnClicke:
  001be	cc		 int	 3
_TEXT	ENDS
;	COMDAT text$x
text$x	SEGMENT
__unwindfunclet$?OnBnClickedButtonSaveconfig@CDlgStrategyList@@QAEXXZ$0:
  00000	8d 4d e8	 lea	 ecx, DWORD PTR _szSTName$[ebp]
  00003	ff 25 00 00 00
	00		 jmp	 DWORD PTR __imp_??1?$CStringT@DV?$StrTraitMFC_DLL@DV?$ChTraitsCRT@D@ATL@@@@@ATL@@QAE@XZ
__unwindfunclet$?OnBnClickedButtonSaveconfig@CDlgStrategyList@@QAEXXZ$1:
  00009	8d 4d c0	 lea	 ecx, DWORD PTR _inArr$[ebp]
  0000c	e9 00 00 00 00	 jmp	 ??1CStringArray@@UAE@XZ	; CStringArray::~CStringArray
__unwindfunclet$?OnBnClickedButtonSaveconfig@CDlgStrategyList@@QAEXXZ$2:
  00011	8d 4d e4	 lea	 ecx, DWORD PTR $T3[ebp]
  00014	ff 25 00 00 00
	00		 jmp	 DWORD PTR __imp_??1?$CStringT@DV?$StrTraitMFC_DLL@DV?$ChTraitsCRT@D@ATL@@@@@ATL@@QAE@XZ
__unwindfunclet$?OnBnClickedButtonSaveconfig@CDlgStrategyList@@QAEXXZ$4:
  0001a	8d 4d f0	 lea	 ecx, DWORD PTR _szTitle$4[ebp]
  0001d	ff 25 00 00 00
	00		 jmp	 DWORD PTR __imp_??1?$CStringT@DV?$StrTraitMFC_DLL@DV?$ChTraitsCRT@D@ATL@@@@@ATL@@QAE@XZ
__unwindfunclet$?OnBnClickedButtonSaveconfig@CDlgStrategyList@@QAEXXZ$5:
  00023	8d 4d e4	 lea	 ecx, DWORD PTR _szTmp$2[ebp]
  00026	ff 25 00 00 00
	00		 jmp	 DWORD PTR __imp_??1?$CStringT@DV?$StrTraitMFC_DLL@DV?$ChTraitsCRT@D@ATL@@@@@ATL@@QAE@XZ
__unwindfunclet$?OnBnClickedButtonSaveconfig@CDlgStrategyList@@QAEXXZ$3:
  0002c	8d 4d ec	 lea	 ecx, DWORD PTR _szStr$[ebp]
  0002f	ff 25 00 00 00
	00		 jmp	 DWORD PTR __imp_??1?$CStringT@DV?$StrTraitMFC_DLL@DV?$ChTraitsCRT@D@ATL@@@@@ATL@@QAE@XZ
  00035	cc		 int	 3
  00036	cc		 int	 3
  00037	cc		 int	 3
  00038	cc		 int	 3
  00039	cc		 int	 3
__ehhandler$?OnBnClickedButtonSaveconfig@CDlgStrategyList@@QAEXXZ:
  0003a	90		 npad	 1
  0003b	90		 npad	 1
  0003c	8b 54 24 08	 mov	 edx, DWORD PTR [esp+8]
  00040	8d 42 0c	 lea	 eax, DWORD PTR [edx+12]
  00043	8b 4a bc	 mov	 ecx, DWORD PTR [edx-68]
  00046	33 c8		 xor	 ecx, eax
  00048	e8 00 00 00 00	 call	 @__security_check_cookie@4
  0004d	b8 00 00 00 00	 mov	 eax, OFFSET __ehfuncinfo$?OnBnClickedButtonSaveconfig@CDlgStrategyList@@QAEXXZ
  00052	e9 00 00 00 00	 jmp	 ___CxxFrameHandler3
text$x	ENDS
?OnBnClickedButtonSaveconfig@CDlgStrategyList@@QAEXXZ ENDP ; CDlgStrategyList::OnBnClickedButtonSaveconfig
; Function compile flags: /Ogtp
; File D:\git\src\IBK\IBK_DRFN\ProjSrc\SrcDrfn\Chart\HWSTRATEGYCONFIGUREWIZARD\DlgStrategyList.cpp
; File C:\Program Files (x86)\Microsoft Visual Studio\2019\Community\VC\Tools\MSVC\14.29.30133\atlmfc\include\afxwin2.inl
; File D:\git\src\IBK\IBK_DRFN\ProjSrc\SrcDrfn\Chart\HWSTRATEGYCONFIGUREWIZARD\DlgStrategyList.cpp
; File C:\Program Files (x86)\Microsoft Visual Studio\2019\Community\VC\Tools\MSVC\14.29.30133\atlmfc\include\afxwin2.inl
; File D:\git\src\IBK\IBK_DRFN\ProjSrc\SrcDrfn\Chart\HWSTRATEGYCONFIGUREWIZARD\DlgStrategyList.cpp
;	COMDAT ?OnBnClickedBtnSystemtrading@CDlgStrategyList@@QAEXXZ
_TEXT	SEGMENT
$T2 = -16						; size = 4
__$EHRec$ = -12						; size = 12
?OnBnClickedBtnSystemtrading@CDlgStrategyList@@QAEXXZ PROC ; CDlgStrategyList::OnBnClickedBtnSystemtrading, COMDAT
; _this$ = ecx

; 1614 : {

  00000	55		 push	 ebp
  00001	8b ec		 mov	 ebp, esp
  00003	6a ff		 push	 -1
  00005	68 00 00 00 00	 push	 __ehhandler$?OnBnClickedBtnSystemtrading@CDlgStrategyList@@QAEXXZ
  0000a	64 a1 00 00 00
	00		 mov	 eax, DWORD PTR fs:0
  00010	50		 push	 eax
  00011	51		 push	 ecx
  00012	56		 push	 esi
  00013	a1 00 00 00 00	 mov	 eax, DWORD PTR ___security_cookie
  00018	33 c5		 xor	 eax, ebp
  0001a	50		 push	 eax
  0001b	8d 45 f4	 lea	 eax, DWORD PTR __$EHRec$[ebp]
  0001e	64 a3 00 00 00
	00		 mov	 DWORD PTR fs:0, eax
  00024	8b f1		 mov	 esi, ecx

; 1615 : 	((CDlgStrategyConfigure*)GetParent())->LoadEditor("");

  00026	51		 push	 ecx
  00027	8b cc		 mov	 ecx, esp
  00029	89 65 f0	 mov	 DWORD PTR $T2[ebp], esp
  0002c	68 00 00 00 00	 push	 OFFSET ??_C@_00CNPNBAHC@@
  00031	ff 15 00 00 00
	00		 call	 DWORD PTR __imp_??0?$CStringT@DV?$StrTraitMFC_DLL@DV?$ChTraitsCRT@D@ATL@@@@@ATL@@QAE@PBD@Z
; File C:\Program Files (x86)\Microsoft Visual Studio\2019\Community\VC\Tools\MSVC\14.29.30133\atlmfc\include\afxwin2.inl

; 213  : 	{ ASSERT(::IsWindow(m_hWnd)); return CWnd::FromHandle(::GetParent(m_hWnd)); }

  00037	ff 76 20	 push	 DWORD PTR [esi+32]
; File D:\git\src\IBK\IBK_DRFN\ProjSrc\SrcDrfn\Chart\HWSTRATEGYCONFIGUREWIZARD\DlgStrategyList.cpp

; 1615 : 	((CDlgStrategyConfigure*)GetParent())->LoadEditor("");

  0003a	c7 45 fc 00 00
	00 00		 mov	 DWORD PTR __$EHRec$[ebp+8], 0
; File C:\Program Files (x86)\Microsoft Visual Studio\2019\Community\VC\Tools\MSVC\14.29.30133\atlmfc\include\afxwin2.inl

; 213  : 	{ ASSERT(::IsWindow(m_hWnd)); return CWnd::FromHandle(::GetParent(m_hWnd)); }

  00041	ff 15 00 00 00
	00		 call	 DWORD PTR __imp__GetParent@4
  00047	50		 push	 eax
  00048	e8 00 00 00 00	 call	 ?FromHandle@CWnd@@SGPAV1@PAUHWND__@@@Z ; CWnd::FromHandle
; File D:\git\src\IBK\IBK_DRFN\ProjSrc\SrcDrfn\Chart\HWSTRATEGYCONFIGUREWIZARD\DlgStrategyList.cpp

; 1615 : 	((CDlgStrategyConfigure*)GetParent())->LoadEditor("");

  0004d	8b c8		 mov	 ecx, eax
  0004f	c7 45 fc ff ff
	ff ff		 mov	 DWORD PTR __$EHRec$[ebp+8], -1
  00056	e8 00 00 00 00	 call	 ?LoadEditor@CDlgStrategyConfigure@@QAEXV?$CStringT@DV?$StrTraitMFC_DLL@DV?$ChTraitsCRT@D@ATL@@@@@ATL@@@Z ; CDlgStrategyConfigure::LoadEditor

; 1616 : }

  0005b	8b 4d f4	 mov	 ecx, DWORD PTR __$EHRec$[ebp]
  0005e	64 89 0d 00 00
	00 00		 mov	 DWORD PTR fs:0, ecx
  00065	59		 pop	 ecx
  00066	5e		 pop	 esi
  00067	8b e5		 mov	 esp, ebp
  00069	5d		 pop	 ebp
  0006a	c3		 ret	 0
_TEXT	ENDS
;	COMDAT text$x
text$x	SEGMENT
__unwindfunclet$?OnBnClickedBtnSystemtrading@CDlgStrategyList@@QAEXXZ$0:
  00000	8b 4d f0	 mov	 ecx, DWORD PTR $T2[ebp]
  00003	ff 25 00 00 00
	00		 jmp	 DWORD PTR __imp_??1?$CStringT@DV?$StrTraitMFC_DLL@DV?$ChTraitsCRT@D@ATL@@@@@ATL@@QAE@XZ
  00009	cc		 int	 3
  0000a	cc		 int	 3
  0000b	cc		 int	 3
  0000c	cc		 int	 3
  0000d	cc		 int	 3
__ehhandler$?OnBnClickedBtnSystemtrading@CDlgStrategyList@@QAEXXZ:
  0000e	90		 npad	 1
  0000f	90		 npad	 1
  00010	8b 54 24 08	 mov	 edx, DWORD PTR [esp+8]
  00014	8d 42 0c	 lea	 eax, DWORD PTR [edx+12]
  00017	8b 4a f4	 mov	 ecx, DWORD PTR [edx-12]
  0001a	33 c8		 xor	 ecx, eax
  0001c	e8 00 00 00 00	 call	 @__security_check_cookie@4
  00021	b8 00 00 00 00	 mov	 eax, OFFSET __ehfuncinfo$?OnBnClickedBtnSystemtrading@CDlgStrategyList@@QAEXXZ
  00026	e9 00 00 00 00	 jmp	 ___CxxFrameHandler3
text$x	ENDS
?OnBnClickedBtnSystemtrading@CDlgStrategyList@@QAEXXZ ENDP ; CDlgStrategyList::OnBnClickedBtnSystemtrading
; Function compile flags: /Ogtp
; File D:\git\src\IBK\IBK_DRFN\ProjSrc\SrcDrfn\Chart\HWSTRATEGYCONFIGUREWIZARD\DlgStrategyList.cpp
;	COMDAT ?GetMessageMap@CDlgStrategyList@@MBEPBUAFX_MSGMAP@@XZ
_TEXT	SEGMENT
?GetMessageMap@CDlgStrategyList@@MBEPBUAFX_MSGMAP@@XZ PROC ; CDlgStrategyList::GetMessageMap, COMDAT
; _this$ = ecx

; 121  : BEGIN_MESSAGE_MAP(CDlgStrategyList, CDialog)

  00000	b8 00 00 00 00	 mov	 eax, OFFSET ?messageMap@?1??GetThisMessageMap@CDlgStrategyList@@KGPBUAFX_MSGMAP@@XZ@4U3@B
  00005	c3		 ret	 0
?GetMessageMap@CDlgStrategyList@@MBEPBUAFX_MSGMAP@@XZ ENDP ; CDlgStrategyList::GetMessageMap
_TEXT	ENDS
; Function compile flags: /Ogtp
; File D:\git\src\IBK\IBK_DRFN\ProjSrc\SrcDrfn\Chart\HWSTRATEGYCONFIGUREWIZARD\DlgStrategyList.cpp
;	COMDAT ?GetThisMessageMap@CDlgStrategyList@@KGPBUAFX_MSGMAP@@XZ
_TEXT	SEGMENT
?GetThisMessageMap@CDlgStrategyList@@KGPBUAFX_MSGMAP@@XZ PROC ; CDlgStrategyList::GetThisMessageMap, COMDAT

; 122  : 	//{{AFX_MSG_MAP(CDlgStrategyList)
; 123  : 	ON_WM_TIMER()
; 124  : 	ON_WM_SIZE()
; 125  : 	ON_WM_DESTROY()
; 126  : 	ON_BN_CLICKED(IDC_BTN_INIT, OnBtnInit)
; 127  : 	ON_BN_CLICKED(IDC_BTN_DOWN, OnBtnDown)
; 128  : 	ON_BN_CLICKED(IDC_BTN_UP, OnBtnUp)
; 129  : 	ON_BN_CLICKED(IDC_BTN_AND, OnBtnAnd)
; 130  : 	ON_BN_CLICKED(IDC_BTN_OR, OnBtnOr)
; 131  : 	ON_BN_CLICKED(IDC_BTN_NEXT, OnBtnNext)
; 132  : 	ON_BN_CLICKED(IDC_BTN_NOT, OnBtnNot)
; 133  : 	ON_BN_CLICKED(IDC_BTN_TRUE, OnBtnTrue)
; 134  : 	ON_BN_CLICKED(IDC_BTN_PARENTHESIS, OnBtnParenthesis)
; 135  : 	ON_BN_CLICKED(IDC_BTN_X, OnBtnX)
; 136  : 	ON_BN_CLICKED(IDC_BT_SAVE, OnBtSave)
; 137  : 	ON_BN_CLICKED(IDC_BTN_DELETE, OnBtnDelete)
; 138  : 	ON_BN_CLICKED(IDC_BTN_EDIT, OnBtnEdit)
; 139  : 	ON_WM_CTLCOLOR()
; 140  : 	ON_BN_CLICKED(IDC_BTN_STDELETE, OnBtnSTDelete)
; 141  : 	ON_BN_CLICKED(IDC_BTN_STCONFIGDLG, OnBnClickedSTConfigDlg)
; 142  : 	ON_BN_CLICKED(IDC_BTN_STCLOSE, OnBnClickedSTClose)
; 143  : 	ON_BN_CLICKED(IDC_BTN_STRUN, OnBnClickedSTRun)
; 144  : 	//}}AFX_MSG_MAP
; 145  : 	ON_REGISTERED_MESSAGE(RMSG_STCONTROLLER_POINTER, OnSTController)
; 146  : 	ON_REGISTERED_MESSAGE(RMSG_STCONFIGURENAME, OnUpdateSTSfg)
; 147  : 	ON_REGISTERED_MESSAGE(RMSG_STSAVETOUSERST, OnSaveToUserST)
; 148  : 	ON_BN_CLICKED(IDC_BTN_SYSTEMTRADING, OnBnClickedBtnSystemtrading)
; 149  : 	ON_BN_CLICKED(IDC_BUTTON_SAVECONFIG, OnBnClickedButtonSaveconfig)
; 150  : END_MESSAGE_MAP()

  00000	b8 00 00 00 00	 mov	 eax, OFFSET ?messageMap@?1??GetThisMessageMap@CDlgStrategyList@@KGPBUAFX_MSGMAP@@XZ@4U3@B
  00005	c3		 ret	 0
?GetThisMessageMap@CDlgStrategyList@@KGPBUAFX_MSGMAP@@XZ ENDP ; CDlgStrategyList::GetThisMessageMap
_TEXT	ENDS
; Function compile flags: /Ogtp
; File D:\git\src\IBK\IBK_DRFN\ProjSrc\SrcDrfn\Chart\HWSTRATEGYCONFIGUREWIZARD\DlgStrategyList.cpp
;	COMDAT ?OnSaveToUserST@CDlgStrategyList@@IAEJIJ@Z
_TEXT	SEGMENT
_fileFind$2 = -48					; size = 28
_strText$3 = -20					; size = 4
_szSTFilePath$4 = -16					; size = 4
__$EHRec$ = -12						; size = 12
_wParam$ = 8						; size = 4
_lParam$ = 12						; size = 4
?OnSaveToUserST@CDlgStrategyList@@IAEJIJ@Z PROC		; CDlgStrategyList::OnSaveToUserST, COMDAT
; _this$ = ecx

; 707  : {

  00000	55		 push	 ebp
  00001	8b ec		 mov	 ebp, esp
  00003	6a ff		 push	 -1
  00005	68 00 00 00 00	 push	 __ehhandler$?OnSaveToUserST@CDlgStrategyList@@IAEJIJ@Z
  0000a	64 a1 00 00 00
	00		 mov	 eax, DWORD PTR fs:0
  00010	50		 push	 eax
  00011	83 ec 24	 sub	 esp, 36			; 00000024H
  00014	56		 push	 esi
  00015	a1 00 00 00 00	 mov	 eax, DWORD PTR ___security_cookie
  0001a	33 c5		 xor	 eax, ebp
  0001c	50		 push	 eax
  0001d	8d 45 f4	 lea	 eax, DWORD PTR __$EHRec$[ebp]
  00020	64 a3 00 00 00
	00		 mov	 DWORD PTR fs:0, eax
  00026	8b f1		 mov	 esi, ecx

; 708  : 	//if(m_nFlagCnt != 1) {
; 709  : 		if(AfxMessageBox("  .\n  ?", MB_YESNO) == IDYES) {

  00028	6a 00		 push	 0
  0002a	6a 04		 push	 4
  0002c	68 00 00 00 00	 push	 OFFSET ??_C@_0FG@LKHGOMIG@?$LL?g?$LP?k?$MA?Z?$MA?$PM?$LH?$KL?$LI?$LI?$MA?L?5?$LM?$LD?A?$KE?$LK?$KP?$LA?f?$MA?L?5?$LA?$KB?$LE?I?G@
  00031	e8 00 00 00 00	 call	 ?AfxMessageBox@@YGHPBDII@Z ; AfxMessageBox
  00036	83 f8 06	 cmp	 eax, 6
  00039	0f 85 b9 00 00
	00		 jne	 $LN2@OnSaveToUs

; 710  : 			OnBtSave();

  0003f	8b ce		 mov	 ecx, esi
  00041	e8 00 00 00 00	 call	 ?OnBtSave@CDlgStrategyList@@IAEXXZ ; CDlgStrategyList::OnBtSave

; 711  : 
; 712  : 			CString strText;

  00046	8d 4d ec	 lea	 ecx, DWORD PTR _strText$3[ebp]
  00049	ff 15 00 00 00
	00		 call	 DWORD PTR __imp_??0?$CStringT@DV?$StrTraitMFC_DLL@DV?$ChTraitsCRT@D@ATL@@@@@ATL@@QAE@XZ

; 713  : 			m_editSTTitle.GetWindowText(strText);

  0004f	8d 45 ec	 lea	 eax, DWORD PTR _strText$3[ebp]
  00052	c7 45 fc 00 00
	00 00		 mov	 DWORD PTR __$EHRec$[ebp+8], 0
  00059	50		 push	 eax
  0005a	8d 8e a8 00 00
	00		 lea	 ecx, DWORD PTR [esi+168]
  00060	e8 00 00 00 00	 call	 ?GetWindowTextA@CWnd@@QBEXAAV?$CStringT@DV?$StrTraitMFC_DLL@DV?$ChTraitsCRT@D@ATL@@@@@ATL@@@Z ; CWnd::GetWindowTextA

; 714  : 
; 715  : 			CString szSTFilePath;

  00065	8d 4d f0	 lea	 ecx, DWORD PTR _szSTFilePath$4[ebp]
  00068	ff 15 00 00 00
	00		 call	 DWORD PTR __imp_??0?$CStringT@DV?$StrTraitMFC_DLL@DV?$ChTraitsCRT@D@ATL@@@@@ATL@@QAE@XZ

; 716  : 			szSTFilePath.Format("%s%s\\%s%s", m_szUserDir, STDATA_ST_USERCOMBINE, strText, ".ST");

  0006e	68 00 00 00 00	 push	 OFFSET ??_C@_03COHLPAFH@?4ST@
  00073	ff 75 ec	 push	 DWORD PTR _strText$3[ebp]
  00076	8d 45 f0	 lea	 eax, DWORD PTR _szSTFilePath$4[ebp]
  00079	c6 45 fc 01	 mov	 BYTE PTR __$EHRec$[ebp+8], 1
  0007d	68 00 00 00 00	 push	 OFFSET ??_C@_0BK@COPOICEF@?2STDATA?2ST?2?$LL?g?$LP?k?$MA?Z?A?$LG?G?U?$MA?$PM?$LH?$KL@
  00082	ff b6 c8 0f 00
	00		 push	 DWORD PTR [esi+4040]
  00088	68 00 00 00 00	 push	 OFFSET ??_C@_09CBEKMPDN@?$CFs?$CFs?2?$CFs?$CFs@
  0008d	50		 push	 eax
  0008e	ff 15 00 00 00
	00		 call	 DWORD PTR __imp_?Format@?$CStringT@DV?$StrTraitMFC_DLL@DV?$ChTraitsCRT@D@ATL@@@@@ATL@@QAAXPBDZZ
  00094	83 c4 18	 add	 esp, 24			; 00000018H

; 717  : 
; 718  : 			CFileFind fileFind;

  00097	8d 4d d0	 lea	 ecx, DWORD PTR _fileFind$2[ebp]
  0009a	e8 00 00 00 00	 call	 ??0CFileFind@@QAE@XZ	; CFileFind::CFileFind

; 719  : 			BOOL bFound = fileFind.FindFile(szSTFilePath);

  0009f	6a 00		 push	 0
  000a1	ff 75 f0	 push	 DWORD PTR _szSTFilePath$4[ebp]
  000a4	8d 4d d0	 lea	 ecx, DWORD PTR _fileFind$2[ebp]
  000a7	c6 45 fc 02	 mov	 BYTE PTR __$EHRec$[ebp+8], 2
  000ab	e8 00 00 00 00	 call	 ?FindFile@CFileFind@@UAEHPBDK@Z ; CFileFind::FindFile

; 720  : 
; 721  : 			if(bFound) {

  000b0	85 c0		 test	 eax, eax
  000b2	74 14		 je	 SHORT $LN3@OnSaveToUs

; 722  : 				CString* pszSTPath = (CString*)lParam;
; 723  : 				*pszSTPath = szSTFilePath;

  000b4	8b 4d 0c	 mov	 ecx, DWORD PTR _lParam$[ebp]
  000b7	8d 45 f0	 lea	 eax, DWORD PTR _szSTFilePath$4[ebp]
  000ba	50		 push	 eax
  000bb	ff 15 00 00 00
	00		 call	 DWORD PTR __imp_??4?$CStringT@DV?$StrTraitMFC_DLL@DV?$ChTraitsCRT@D@ATL@@@@@ATL@@QAEAAV01@ABV01@@Z
  000c1	be 01 00 00 00	 mov	 esi, 1
  000c6	eb 02		 jmp	 SHORT $LN9@OnSaveToUs
$LN3@OnSaveToUs:

; 724  : 
; 725  : 				return 1L;
; 726  : 			}
; 727  : 			else
; 728  : 				return 0L;

  000c8	33 f6		 xor	 esi, esi
$LN9@OnSaveToUs:
  000ca	8d 4d d0	 lea	 ecx, DWORD PTR _fileFind$2[ebp]
  000cd	e8 00 00 00 00	 call	 ??1CFileFind@@UAE@XZ	; CFileFind::~CFileFind
  000d2	8d 4d f0	 lea	 ecx, DWORD PTR _szSTFilePath$4[ebp]
  000d5	ff 15 00 00 00
	00		 call	 DWORD PTR __imp_??1?$CStringT@DV?$StrTraitMFC_DLL@DV?$ChTraitsCRT@D@ATL@@@@@ATL@@QAE@XZ
  000db	8d 4d ec	 lea	 ecx, DWORD PTR _strText$3[ebp]
  000de	ff 15 00 00 00
	00		 call	 DWORD PTR __imp_??1?$CStringT@DV?$StrTraitMFC_DLL@DV?$ChTraitsCRT@D@ATL@@@@@ATL@@QAE@XZ
  000e4	8b c6		 mov	 eax, esi

; 733  : }

  000e6	8b 4d f4	 mov	 ecx, DWORD PTR __$EHRec$[ebp]
  000e9	64 89 0d 00 00
	00 00		 mov	 DWORD PTR fs:0, ecx
  000f0	59		 pop	 ecx
  000f1	5e		 pop	 esi
  000f2	8b e5		 mov	 esp, ebp
  000f4	5d		 pop	 ebp
  000f5	c2 08 00	 ret	 8
$LN2@OnSaveToUs:

; 729  : 		}
; 730  : 	//}
; 731  : 
; 732  : 	return 0L;

  000f8	33 c0		 xor	 eax, eax

; 733  : }

  000fa	8b 4d f4	 mov	 ecx, DWORD PTR __$EHRec$[ebp]
  000fd	64 89 0d 00 00
	00 00		 mov	 DWORD PTR fs:0, ecx
  00104	59		 pop	 ecx
  00105	5e		 pop	 esi
  00106	8b e5		 mov	 esp, ebp
  00108	5d		 pop	 ebp
  00109	c2 08 00	 ret	 8
_TEXT	ENDS
;	COMDAT text$x
text$x	SEGMENT
__unwindfunclet$?OnSaveToUserST@CDlgStrategyList@@IAEJIJ@Z$0:
  00000	8d 4d ec	 lea	 ecx, DWORD PTR _strText$3[ebp]
  00003	ff 25 00 00 00
	00		 jmp	 DWORD PTR __imp_??1?$CStringT@DV?$StrTraitMFC_DLL@DV?$ChTraitsCRT@D@ATL@@@@@ATL@@QAE@XZ
__unwindfunclet$?OnSaveToUserST@CDlgStrategyList@@IAEJIJ@Z$1:
  00009	8d 4d f0	 lea	 ecx, DWORD PTR _szSTFilePath$4[ebp]
  0000c	ff 25 00 00 00
	00		 jmp	 DWORD PTR __imp_??1?$CStringT@DV?$StrTraitMFC_DLL@DV?$ChTraitsCRT@D@ATL@@@@@ATL@@QAE@XZ
__unwindfunclet$?OnSaveToUserST@CDlgStrategyList@@IAEJIJ@Z$2:
  00012	8d 4d d0	 lea	 ecx, DWORD PTR _fileFind$2[ebp]
  00015	e9 00 00 00 00	 jmp	 ??1CFileFind@@UAE@XZ	; CFileFind::~CFileFind
  0001a	cc		 int	 3
  0001b	cc		 int	 3
  0001c	cc		 int	 3
  0001d	cc		 int	 3
  0001e	cc		 int	 3
__ehhandler$?OnSaveToUserST@CDlgStrategyList@@IAEJIJ@Z:
  0001f	90		 npad	 1
  00020	90		 npad	 1
  00021	8b 54 24 08	 mov	 edx, DWORD PTR [esp+8]
  00025	8d 42 0c	 lea	 eax, DWORD PTR [edx+12]
  00028	8b 4a d4	 mov	 ecx, DWORD PTR [edx-44]
  0002b	33 c8		 xor	 ecx, eax
  0002d	e8 00 00 00 00	 call	 @__security_check_cookie@4
  00032	b8 00 00 00 00	 mov	 eax, OFFSET __ehfuncinfo$?OnSaveToUserST@CDlgStrategyList@@IAEJIJ@Z
  00037	e9 00 00 00 00	 jmp	 ___CxxFrameHandler3
text$x	ENDS
?OnSaveToUserST@CDlgStrategyList@@IAEJIJ@Z ENDP		; CDlgStrategyList::OnSaveToUserST
; Function compile flags: /Ogtp
; File D:\git\src\IBK\IBK_DRFN\ProjSrc\SrcDrfn\Chart\HWSTRATEGYCONFIGUREWIZARD\DlgStrategyList.cpp
; File C:\Program Files (x86)\Microsoft Visual Studio\2019\Community\VC\Tools\MSVC\14.29.30133\atlmfc\include\cstringt.h
; File D:\git\src\IBK\IBK_DRFN\ProjSrc\SrcDrfn\Chart\HWSTRATEGYCONFIGUREWIZARD\DlgStrategyList.cpp
; File C:\Program Files (x86)\Microsoft Visual Studio\2019\Community\VC\Tools\MSVC\14.29.30133\atlmfc\include\cstringt.h
; File C:\Program Files (x86)\Microsoft Visual Studio\2019\Community\VC\Tools\MSVC\14.29.30133\atlmfc\include\atlsimpstr.h
; File C:\Program Files (x86)\Microsoft Visual Studio\2019\Community\VC\Tools\MSVC\14.29.30133\atlmfc\include\cstringt.h
; File D:\git\src\IBK\IBK_DRFN\ProjSrc\SrcDrfn\Chart\HWSTRATEGYCONFIGUREWIZARD\DlgStrategyList.cpp
; File C:\Program Files (x86)\Microsoft Visual Studio\2019\Community\VC\Tools\MSVC\14.29.30133\atlmfc\include\cstringt.h
; File D:\git\src\IBK\IBK_DRFN\ProjSrc\SrcDrfn\Chart\HWSTRATEGYCONFIGUREWIZARD\DlgStrategyList.cpp
;	COMDAT ?OnUpdateSTSfg@CDlgStrategyList@@IAEJIJ@Z
_TEXT	SEGMENT
_cellRange$ = -40					; size = 16
$T2 = -24						; size = 4
_strSfgNameInList$ = -20				; size = 4
$T3 = -16						; size = 4
__$EHRec$ = -12						; size = 12
_wParam$ = 8						; size = 4
_lParam$ = 12						; size = 4
?OnUpdateSTSfg@CDlgStrategyList@@IAEJIJ@Z PROC		; CDlgStrategyList::OnUpdateSTSfg, COMDAT
; _this$ = ecx

; 682  : {

  00000	55		 push	 ebp
  00001	8b ec		 mov	 ebp, esp
  00003	6a ff		 push	 -1
  00005	68 00 00 00 00	 push	 __ehhandler$?OnUpdateSTSfg@CDlgStrategyList@@IAEJIJ@Z
  0000a	64 a1 00 00 00
	00		 mov	 eax, DWORD PTR fs:0
  00010	50		 push	 eax
  00011	83 ec 1c	 sub	 esp, 28			; 0000001cH
  00014	56		 push	 esi
  00015	57		 push	 edi
  00016	a1 00 00 00 00	 mov	 eax, DWORD PTR ___security_cookie
  0001b	33 c5		 xor	 eax, ebp
  0001d	50		 push	 eax
  0001e	8d 45 f4	 lea	 eax, DWORD PTR __$EHRec$[ebp]
  00021	64 a3 00 00 00
	00		 mov	 DWORD PTR fs:0, eax
  00027	8b f1		 mov	 esi, ecx

; 683  : 	// 
; 684  : 	LPCTSTR  lpSfgName = (LPCTSTR)wParam;
; 685  : 	CString strSfgNameInList;

  00029	8d 4d ec	 lea	 ecx, DWORD PTR _strSfgNameInList$[ebp]
  0002c	c7 45 e8 00 00
	00 00		 mov	 DWORD PTR $T2[ebp], 0
  00033	ff 15 00 00 00
	00		 call	 DWORD PTR __imp_??0?$CStringT@DV?$StrTraitMFC_DLL@DV?$ChTraitsCRT@D@ATL@@@@@ATL@@QAE@XZ

; 686  : 	CSDItemInfo * pSDItemInfo = NULL;
; 687  : 	int nRowCount = m_GridSTList.GetRowCount();	
; 688  : 	CCellRange cellRange = m_GridSTList.GetSelectedCellRange();

  00039	8d 45 d8	 lea	 eax, DWORD PTR _cellRange$[ebp]
  0003c	c7 45 fc 00 00
	00 00		 mov	 DWORD PTR __$EHRec$[ebp+8], 0
  00043	50		 push	 eax
  00044	8d 8e d8 0f 00
	00		 lea	 ecx, DWORD PTR [esi+4056]
  0004a	e8 00 00 00 00	 call	 ?GetSelectedCellRange@CGridCtrl@@QBE?AVCCellRange@@XZ ; CGridCtrl::GetSelectedCellRange

; 689  : 	m_lRowEditing = cellRange.GetMaxRow();

  0004f	8b 45 e0	 mov	 eax, DWORD PTR _cellRange$[ebp+8]
  00052	89 86 f8 16 00
	00		 mov	 DWORD PTR [esi+5880], eax

; 690  : 
; 691  : 	if(m_lRowEditing>=1)

  00058	83 f8 01	 cmp	 eax, 1
  0005b	7c 7e		 jl	 SHORT $LN4@OnUpdateST

; 692  : 	{
; 693  : 		pSDItemInfo = (CSDItemInfo *)m_GridSTList.GetItemData(m_lRowEditing,COL_INFOPOINTER);

  0005d	6a 01		 push	 1
  0005f	50		 push	 eax
  00060	8d 8e d8 0f 00
	00		 lea	 ecx, DWORD PTR [esi+4056]
  00066	e8 00 00 00 00	 call	 ?GetItemData@CGridCtrl@@QBEJHH@Z ; CGridCtrl::GetItemData
  0006b	8b f8		 mov	 edi, eax

; 694  : 		if(pSDItemInfo)

  0006d	85 ff		 test	 edi, edi
  0006f	74 6a		 je	 SHORT $LN4@OnUpdateST
; File C:\Program Files (x86)\Microsoft Visual Studio\2019\Community\VC\Tools\MSVC\14.29.30133\atlmfc\include\cstringt.h

; 2401 : 		CStringT strResult( str1.GetManager() );

  00071	8d 4f 08	 lea	 ecx, DWORD PTR [edi+8]
; File D:\git\src\IBK\IBK_DRFN\ProjSrc\SrcDrfn\Chart\HWSTRATEGYCONFIGUREWIZARD\DlgStrategyList.cpp

; 696  : 			strSfgNameInList = pSDItemInfo->m_strPath + ".SFG";

  00074	c6 45 fc 01	 mov	 BYTE PTR __$EHRec$[ebp+8], 1
; File C:\Program Files (x86)\Microsoft Visual Studio\2019\Community\VC\Tools\MSVC\14.29.30133\atlmfc\include\cstringt.h

; 2401 : 		CStringT strResult( str1.GetManager() );

  00078	ff 15 00 00 00
	00		 call	 DWORD PTR __imp_?GetManager@?$CStringT@DV?$StrTraitMFC_DLL@DV?$ChTraitsCRT@D@ATL@@@@@ATL@@QBEPAUIAtlStringMgr@2@XZ
  0007e	50		 push	 eax
  0007f	8d 4d f0	 lea	 ecx, DWORD PTR $T3[ebp]
  00082	ff 15 00 00 00
	00		 call	 DWORD PTR __imp_??0?$CStringT@DV?$StrTraitMFC_DLL@DV?$ChTraitsCRT@D@ATL@@@@@ATL@@QAE@PAUIAtlStringMgr@1@@Z
; File C:\Program Files (x86)\Microsoft Visual Studio\2019\Community\VC\Tools\MSVC\14.29.30133\atlmfc\include\atlsimpstr.h

; 519  : 		return( GetData()->nDataLength );

  00088	8b 47 08	 mov	 eax, DWORD PTR [edi+8]
; File C:\Program Files (x86)\Microsoft Visual Studio\2019\Community\VC\Tools\MSVC\14.29.30133\atlmfc\include\cstringt.h

; 2403 : 		CThisSimpleString::Concatenate( strResult, str1, str1.GetLength(), psz2, CThisSimpleString::StringLength( psz2 ) );

  0008b	6a 04		 push	 4
  0008d	68 00 00 00 00	 push	 OFFSET ??_C@_04FFLLBBHL@?4SFG@

; 2404 : 
; 2405 : 		return( strResult );

  00092	c7 45 e8 01 00
	00 00		 mov	 DWORD PTR $T2[ebp], 1
  00099	ff 70 f4	 push	 DWORD PTR [eax-12]
  0009c	50		 push	 eax
  0009d	8d 45 f0	 lea	 eax, DWORD PTR $T3[ebp]
  000a0	50		 push	 eax
  000a1	ff 15 00 00 00
	00		 call	 DWORD PTR __imp_?Concatenate@?$CSimpleStringT@D$00@ATL@@KAXAAV12@PBDH1H@Z
  000a7	83 c4 14	 add	 esp, 20			; 00000014H
; File D:\git\src\IBK\IBK_DRFN\ProjSrc\SrcDrfn\Chart\HWSTRATEGYCONFIGUREWIZARD\DlgStrategyList.cpp

; 696  : 			strSfgNameInList = pSDItemInfo->m_strPath + ".SFG";

  000aa	8d 45 f0	 lea	 eax, DWORD PTR $T3[ebp]
  000ad	8d 4d ec	 lea	 ecx, DWORD PTR _strSfgNameInList$[ebp]
  000b0	50		 push	 eax
  000b1	ff 15 00 00 00
	00		 call	 DWORD PTR __imp_??4?$CStringT@DV?$StrTraitMFC_DLL@DV?$ChTraitsCRT@D@ATL@@@@@ATL@@QAEAAV01@ABV01@@Z
  000b7	8d 4d f0	 lea	 ecx, DWORD PTR $T3[ebp]
  000ba	c6 45 fc 00	 mov	 BYTE PTR __$EHRec$[ebp+8], 0
  000be	ff 15 00 00 00
	00		 call	 DWORD PTR __imp_??1?$CStringT@DV?$StrTraitMFC_DLL@DV?$ChTraitsCRT@D@ATL@@@@@ATL@@QAE@XZ
; File C:\Program Files (x86)\Microsoft Visual Studio\2019\Community\VC\Tools\MSVC\14.29.30133\atlmfc\include\cstringt.h

; 2486 : 		return(str1.Compare(psz2) == 0);

  000c4	ff 75 08	 push	 DWORD PTR _wParam$[ebp]
  000c7	8d 4d ec	 lea	 ecx, DWORD PTR _strSfgNameInList$[ebp]
  000ca	ff 15 00 00 00
	00		 call	 DWORD PTR __imp_?Compare@?$CStringT@DV?$StrTraitMFC_DLL@DV?$ChTraitsCRT@D@ATL@@@@@ATL@@QBEHPBD@Z
  000d0	85 c0		 test	 eax, eax
; File D:\git\src\IBK\IBK_DRFN\ProjSrc\SrcDrfn\Chart\HWSTRATEGYCONFIGUREWIZARD\DlgStrategyList.cpp

; 697  : 			if(strSfgNameInList==lpSfgName)

  000d2	75 07		 jne	 SHORT $LN4@OnUpdateST

; 698  : 			{
; 699  : 				pSDItemInfo->UpdateData();	// OnSTController will be Called..

  000d4	8b cf		 mov	 ecx, edi
  000d6	e8 00 00 00 00	 call	 ?UpdateData@CSDItemInfo@@QAEHXZ ; CSDItemInfo::UpdateData
$LN4@OnUpdateST:

; 700  : 			}
; 701  : 		}
; 702  : 	}
; 703  : 	return 0;

  000db	8d 4d ec	 lea	 ecx, DWORD PTR _strSfgNameInList$[ebp]
  000de	ff 15 00 00 00
	00		 call	 DWORD PTR __imp_??1?$CStringT@DV?$StrTraitMFC_DLL@DV?$ChTraitsCRT@D@ATL@@@@@ATL@@QAE@XZ
  000e4	33 c0		 xor	 eax, eax

; 704  : }

  000e6	8b 4d f4	 mov	 ecx, DWORD PTR __$EHRec$[ebp]
  000e9	64 89 0d 00 00
	00 00		 mov	 DWORD PTR fs:0, ecx
  000f0	59		 pop	 ecx
  000f1	5f		 pop	 edi
  000f2	5e		 pop	 esi
  000f3	8b e5		 mov	 esp, ebp
  000f5	5d		 pop	 ebp
  000f6	c2 08 00	 ret	 8
_TEXT	ENDS
;	COMDAT text$x
text$x	SEGMENT
__unwindfunclet$?OnUpdateSTSfg@CDlgStrategyList@@IAEJIJ@Z$0:
  00000	8d 4d ec	 lea	 ecx, DWORD PTR _strSfgNameInList$[ebp]
  00003	ff 25 00 00 00
	00		 jmp	 DWORD PTR __imp_??1?$CStringT@DV?$StrTraitMFC_DLL@DV?$ChTraitsCRT@D@ATL@@@@@ATL@@QAE@XZ
__unwindfunclet$?OnUpdateSTSfg@CDlgStrategyList@@IAEJIJ@Z$2:
  00009	8b 45 e8	 mov	 eax, DWORD PTR $T2[ebp]
  0000c	83 e0 01	 and	 eax, 1
  0000f	0f 84 0d 00 00
	00		 je	 $LN11@OnUpdateST
  00015	83 65 e8 fe	 and	 DWORD PTR $T2[ebp], -2	; fffffffeH
  00019	8d 4d f0	 lea	 ecx, DWORD PTR $T3[ebp]
  0001c	ff 25 00 00 00
	00		 jmp	 DWORD PTR __imp_??1?$CStringT@DV?$StrTraitMFC_DLL@DV?$ChTraitsCRT@D@ATL@@@@@ATL@@QAE@XZ
$LN11@OnUpdateST:
  00022	c3		 ret	 0
  00023	cc		 int	 3
  00024	cc		 int	 3
  00025	cc		 int	 3
  00026	cc		 int	 3
  00027	cc		 int	 3
__ehhandler$?OnUpdateSTSfg@CDlgStrategyList@@IAEJIJ@Z:
  00028	90		 npad	 1
  00029	90		 npad	 1
  0002a	8b 54 24 08	 mov	 edx, DWORD PTR [esp+8]
  0002e	8d 42 0c	 lea	 eax, DWORD PTR [edx+12]
  00031	8b 4a d8	 mov	 ecx, DWORD PTR [edx-40]
  00034	33 c8		 xor	 ecx, eax
  00036	e8 00 00 00 00	 call	 @__security_check_cookie@4
  0003b	b8 00 00 00 00	 mov	 eax, OFFSET __ehfuncinfo$?OnUpdateSTSfg@CDlgStrategyList@@IAEJIJ@Z
  00040	e9 00 00 00 00	 jmp	 ___CxxFrameHandler3
text$x	ENDS
?OnUpdateSTSfg@CDlgStrategyList@@IAEJIJ@Z ENDP		; CDlgStrategyList::OnUpdateSTSfg
; Function compile flags: /Ogtp
; File D:\git\src\IBK\IBK_DRFN\ProjSrc\SrcDrfn\Chart\HWSTRATEGYCONFIGUREWIZARD\DlgStrategyList.cpp
; File C:\Program Files (x86)\Microsoft Visual Studio\2019\Community\VC\Tools\MSVC\14.29.30133\atlmfc\include\atlsimpstr.h
; File D:\git\src\IBK\IBK_DRFN\ProjSrc\SrcDrfn\Chart\HWSTRATEGYCONFIGUREWIZARD\DlgStrategyList.cpp
; File C:\Program Files (x86)\Microsoft Visual Studio\2019\Community\VC\Tools\MSVC\14.29.30133\atlmfc\include\atlsimpstr.h
; File D:\git\src\IBK\IBK_DRFN\ProjSrc\SrcDrfn\Chart\HWSTRATEGYCONFIGUREWIZARD\DlgStrategyList.cpp
; File C:\Program Files (x86)\Microsoft Visual Studio\2019\Community\VC\Tools\MSVC\14.29.30133\atlmfc\include\atlsimpstr.h
; File D:\git\src\IBK\IBK_DRFN\ProjSrc\SrcDrfn\Chart\HWSTRATEGYCONFIGUREWIZARD\DlgStrategyList.cpp
; File C:\Program Files (x86)\Microsoft Visual Studio\2019\Community\VC\Tools\MSVC\14.29.30133\atlmfc\include\cstringt.h
; File D:\git\src\IBK\IBK_DRFN\ProjSrc\SrcDrfn\Chart\HWSTRATEGYCONFIGUREWIZARD\DlgStrategyList.cpp
; File C:\Program Files (x86)\Microsoft Visual Studio\2019\Community\VC\Tools\MSVC\14.29.30133\atlmfc\include\cstringt.h
; File C:\Program Files (x86)\Microsoft Visual Studio\2019\Community\VC\Tools\MSVC\14.29.30133\atlmfc\include\atlsimpstr.h
; File C:\Program Files (x86)\Microsoft Visual Studio\2019\Community\VC\Tools\MSVC\14.29.30133\atlmfc\include\cstringt.h
; File D:\git\src\IBK\IBK_DRFN\ProjSrc\SrcDrfn\Chart\HWSTRATEGYCONFIGUREWIZARD\DlgStrategyList.cpp
; File C:\Program Files (x86)\Microsoft Visual Studio\2019\Community\VC\Tools\MSVC\14.29.30133\atlmfc\include\cstringt.h
; File D:\git\src\IBK\IBK_DRFN\ProjSrc\SrcDrfn\Chart\HWSTRATEGYCONFIGUREWIZARD\DlgStrategyList.cpp
;	COMDAT ?OnSTController@CDlgStrategyList@@IAEJIJ@Z
_TEXT	SEGMENT
tv494 = -32						; size = 4
_strInput$ = -28					; size = 4
$T2 = -24						; size = 4
$T3 = -24						; size = 4
_nPosOfpSDItemInfo$2$ = -20				; size = 4
$T4 = -16						; size = 4
$T5 = -16						; size = 4
_strIndex$6 = -16					; size = 4
__$EHRec$ = -12						; size = 12
_wParam$ = 8						; size = 4
_strPostTitle$ = 12					; size = 4
_lParam$ = 12						; size = 4
?OnSTController@CDlgStrategyList@@IAEJIJ@Z PROC		; CDlgStrategyList::OnSTController, COMDAT
; _this$ = ecx

; 605  : {

  00000	55		 push	 ebp
  00001	8b ec		 mov	 ebp, esp
  00003	6a ff		 push	 -1
  00005	68 00 00 00 00	 push	 __ehhandler$?OnSTController@CDlgStrategyList@@IAEJIJ@Z
  0000a	64 a1 00 00 00
	00		 mov	 eax, DWORD PTR fs:0
  00010	50		 push	 eax
  00011	83 ec 14	 sub	 esp, 20			; 00000014H
  00014	53		 push	 ebx
  00015	56		 push	 esi
  00016	57		 push	 edi
  00017	a1 00 00 00 00	 mov	 eax, DWORD PTR ___security_cookie
  0001c	33 c5		 xor	 eax, ebp
  0001e	50		 push	 eax
  0001f	8d 45 f4	 lea	 eax, DWORD PTR __$EHRec$[ebp]
  00022	64 a3 00 00 00
	00		 mov	 DWORD PTR fs:0, eax
  00028	8b d9		 mov	 ebx, ecx

; 606  : 	//  ..
; 607  : 	CSDItemInfo* pSDItemInfo = (CSDItemInfo*)wParam;
; 608  : 	pSDItemInfo->SetpISTControllerD(lParam);

  0002a	8b 4d 08	 mov	 ecx, DWORD PTR _wParam$[ebp]

; 609  : 
; 610  : 	// to update...
; 611  : 	CSDItemInfo* pSDItemInfoInRow = NULL;
; 612  : 	int nPosOfpSDItemInfo = -1;
; 613  : 	if(m_lRowEditing>=1)

  0002d	8d b3 d8 0f 00
	00		 lea	 esi, DWORD PTR [ebx+4056]
  00033	c7 45 f0 00 00
	00 00		 mov	 DWORD PTR $T4[ebp], 0
  0003a	83 cf ff	 or	 edi, -1
  0003d	8b 45 0c	 mov	 eax, DWORD PTR _lParam$[ebp]
  00040	89 7d ec	 mov	 DWORD PTR _nPosOfpSDItemInfo$2$[ebp], edi
  00043	89 41 50	 mov	 DWORD PTR [ecx+80], eax
  00046	8b 83 f8 16 00
	00		 mov	 eax, DWORD PTR [ebx+5880]
  0004c	89 75 e0	 mov	 DWORD PTR tv494[ebp], esi
  0004f	83 f8 01	 cmp	 eax, 1
  00052	7c 29		 jl	 SHORT $LN57@OnSTContro

; 614  : 	{
; 615  : 		pSDItemInfoInRow = (CSDItemInfo*)m_GridSTList.GetItemData(m_lRowEditing,COL_INFOPOINTER);

  00054	6a 01		 push	 1
  00056	50		 push	 eax
  00057	8b ce		 mov	 ecx, esi
  00059	e8 00 00 00 00	 call	 ?GetItemData@CGridCtrl@@QBEJHH@Z ; CGridCtrl::GetItemData

; 616  : 		if(pSDItemInfoInRow==pSDItemInfo)

  0005e	3b 45 08	 cmp	 eax, DWORD PTR _wParam$[ebp]
  00061	75 09		 jne	 SHORT $LN6@OnSTContro

; 617  : 		{
; 618  : 			nPosOfpSDItemInfo = m_lRowEditing;

  00063	8b bb f8 16 00
	00		 mov	 edi, DWORD PTR [ebx+5880]
  00069	89 7d ec	 mov	 DWORD PTR _nPosOfpSDItemInfo$2$[ebp], edi
$LN6@OnSTContro:

; 619  : 		}
; 620  : 		m_lRowEditing = -1;

  0006c	c7 83 f8 16 00
	00 ff ff ff ff	 mov	 DWORD PTR [ebx+5880], -1

; 621  : 	}
; 622  : 
; 623  : 	if(nPosOfpSDItemInfo==-1)

  00076	83 ff ff	 cmp	 edi, -1
  00079	75 7e		 jne	 SHORT $LN7@OnSTContro
  0007b	eb 03		 jmp	 SHORT $LN59@OnSTContro
$LN57@OnSTContro:

; 619  : 		}
; 620  : 		m_lRowEditing = -1;

  0007d	89 75 e0	 mov	 DWORD PTR tv494[ebp], esi
$LN59@OnSTContro:

; 624  : 	{
; 625  : 		nPosOfpSDItemInfo = m_GridSTList.GetRowCount();

  00080	8b bb f0 10 00
	00		 mov	 edi, DWORD PTR [ebx+4336]

; 626  : 		m_GridSTList.SetRowCount(nPosOfpSDItemInfo+1);

  00086	8b ce		 mov	 ecx, esi
  00088	89 7d ec	 mov	 DWORD PTR _nPosOfpSDItemInfo$2$[ebp], edi
  0008b	8d 47 01	 lea	 eax, DWORD PTR [edi+1]
  0008e	50		 push	 eax
  0008f	e8 00 00 00 00	 call	 ?SetRowCount@CGridCtrl@@QAEHH@Z ; CGridCtrl::SetRowCount

; 627  : 
; 628  : 		CString strIndex;

  00094	8d 4d f0	 lea	 ecx, DWORD PTR _strIndex$6[ebp]
  00097	ff 15 00 00 00
	00		 call	 DWORD PTR __imp_??0?$CStringT@DV?$StrTraitMFC_DLL@DV?$ChTraitsCRT@D@ATL@@@@@ATL@@QAE@XZ

; 629  : 		strIndex.Format("%c",m_chLastIndex);

  0009d	0f be 83 08 17
	00 00		 movsx	 eax, BYTE PTR [ebx+5896]
  000a4	50		 push	 eax
  000a5	8d 45 f0	 lea	 eax, DWORD PTR _strIndex$6[ebp]
  000a8	c7 45 fc 00 00
	00 00		 mov	 DWORD PTR __$EHRec$[ebp+8], 0
  000af	68 00 00 00 00	 push	 OFFSET ??_C@_02HAOIJKIC@?$CFc@
  000b4	50		 push	 eax
  000b5	ff 15 00 00 00
	00		 call	 DWORD PTR __imp_?Format@?$CStringT@DV?$StrTraitMFC_DLL@DV?$ChTraitsCRT@D@ATL@@@@@ATL@@QAAXPBDZZ
  000bb	83 c4 0c	 add	 esp, 12			; 0000000cH

; 630  : 		m_GridSTList.SetItemText(nPosOfpSDItemInfo,COL_NO,strIndex);

  000be	8b ce		 mov	 ecx, esi
  000c0	ff 75 f0	 push	 DWORD PTR _strIndex$6[ebp]
  000c3	6a 00		 push	 0
  000c5	57		 push	 edi
  000c6	e8 00 00 00 00	 call	 ?SetItemText@CGridCtrl@@QAEHHHPBD@Z ; CGridCtrl::SetItemText

; 631  : 		m_GridSTList.SetItemFormat(nPosOfpSDItemInfo,COL_NO,DT_CENTER);	

  000cb	6a 01		 push	 1
  000cd	6a 00		 push	 0
  000cf	57		 push	 edi
  000d0	8b ce		 mov	 ecx, esi
  000d2	e8 00 00 00 00	 call	 ?SetItemFormat@CGridCtrl@@QAEHHHI@Z ; CGridCtrl::SetItemFormat

; 632  : 		m_ctrlLogic.AddElement(m_chLastIndex);

  000d7	0f b6 83 08 17
	00 00		 movzx	 eax, BYTE PTR [ebx+5896]
  000de	8d 8b 30 02 00
	00		 lea	 ecx, DWORD PTR [ebx+560]
  000e4	50		 push	 eax
  000e5	e8 00 00 00 00	 call	 ?AddElement@CLogicEditCtrl@@QAEXD@Z ; CLogicEditCtrl::AddElement

; 633  : 		m_chLastIndex++;

  000ea	fe 83 08 17 00
	00		 inc	 BYTE PTR [ebx+5896]

; 634  : 	}

  000f0	8d 4d f0	 lea	 ecx, DWORD PTR _strIndex$6[ebp]
  000f3	ff 15 00 00 00
	00		 call	 DWORD PTR __imp_??1?$CStringT@DV?$StrTraitMFC_DLL@DV?$ChTraitsCRT@D@ATL@@@@@ATL@@QAE@XZ
$LN7@OnSTContro:

; 635  : 
; 636  : 	CISTControllerD *pISTControllerD = pSDItemInfo->GetpISTControllerD();

  000f9	8b 45 08	 mov	 eax, DWORD PTR _wParam$[ebp]

; 637  : 
; 638  : 	DWORD dSizeRead = 0;
; 639  : 
; 640  : 	CString strPostTitle;

  000fc	8d 4d 0c	 lea	 ecx, DWORD PTR _strPostTitle$[ebp]
  000ff	8b 78 50	 mov	 edi, DWORD PTR [eax+80]
  00102	ff 15 00 00 00
	00		 call	 DWORD PTR __imp_??0?$CStringT@DV?$StrTraitMFC_DLL@DV?$ChTraitsCRT@D@ATL@@@@@ATL@@QAE@XZ

; 641  : 	CString strInput;

  00108	8d 4d e4	 lea	 ecx, DWORD PTR _strInput$[ebp]
  0010b	c7 45 fc 01 00
	00 00		 mov	 DWORD PTR __$EHRec$[ebp+8], 1
  00112	ff 15 00 00 00
	00		 call	 DWORD PTR __imp_??0?$CStringT@DV?$StrTraitMFC_DLL@DV?$ChTraitsCRT@D@ATL@@@@@ATL@@QAE@XZ
  00118	c6 45 fc 02	 mov	 BYTE PTR __$EHRec$[ebp+8], 2

; 642  : 	for(int nPos=0;nPos<MAXCNTOFINPUTHOLDER;nPos++)

  0011c	33 f6		 xor	 esi, esi
  0011e	66 90		 npad	 2
$LL4@OnSTContro:

; 643  : 	{
; 644  : 		strInput = pISTControllerD->GetInputs(nPos);

  00120	8b 07		 mov	 eax, DWORD PTR [edi]
  00122	8d 4d e8	 lea	 ecx, DWORD PTR $T3[ebp]
  00125	56		 push	 esi
  00126	51		 push	 ecx
  00127	8b cf		 mov	 ecx, edi
  00129	ff 90 b0 00 00
	00		 call	 DWORD PTR [eax+176]
  0012f	50		 push	 eax
  00130	8d 4d e4	 lea	 ecx, DWORD PTR _strInput$[ebp]
  00133	c6 45 fc 03	 mov	 BYTE PTR __$EHRec$[ebp+8], 3
  00137	ff 15 00 00 00
	00		 call	 DWORD PTR __imp_??4?$CStringT@DV?$StrTraitMFC_DLL@DV?$ChTraitsCRT@D@ATL@@@@@ATL@@QAEAAV01@ABV01@@Z
  0013d	8d 4d e8	 lea	 ecx, DWORD PTR $T3[ebp]
  00140	c6 45 fc 02	 mov	 BYTE PTR __$EHRec$[ebp+8], 2
  00144	ff 15 00 00 00
	00		 call	 DWORD PTR __imp_??1?$CStringT@DV?$StrTraitMFC_DLL@DV?$ChTraitsCRT@D@ATL@@@@@ATL@@QAE@XZ
; File C:\Program Files (x86)\Microsoft Visual Studio\2019\Community\VC\Tools\MSVC\14.29.30133\atlmfc\include\atlsimpstr.h

; 519  : 		return( GetData()->nDataLength );

  0014a	8b 45 e4	 mov	 eax, DWORD PTR _strInput$[ebp]
; File D:\git\src\IBK\IBK_DRFN\ProjSrc\SrcDrfn\Chart\HWSTRATEGYCONFIGUREWIZARD\DlgStrategyList.cpp

; 645  : 		if(strInput.GetLength())

  0014d	83 78 f4 00	 cmp	 DWORD PTR [eax-12], 0
  00151	74 52		 je	 SHORT $LN8@OnSTContro
; File C:\Program Files (x86)\Microsoft Visual Studio\2019\Community\VC\Tools\MSVC\14.29.30133\atlmfc\include\atlsimpstr.h

; 519  : 		return( GetData()->nDataLength );

  00153	8b 45 0c	 mov	 eax, DWORD PTR _strPostTitle$[ebp]
; File D:\git\src\IBK\IBK_DRFN\ProjSrc\SrcDrfn\Chart\HWSTRATEGYCONFIGUREWIZARD\DlgStrategyList.cpp

; 647  : 			if(strPostTitle.GetLength())

  00156	8d 4d 0c	 lea	 ecx, DWORD PTR _strPostTitle$[ebp]
  00159	83 78 f4 00	 cmp	 DWORD PTR [eax-12], 0
  0015d	74 07		 je	 SHORT $LN10@OnSTContro

; 648  : 			{
; 649  : 				strPostTitle += ",";

  0015f	68 00 00 00 00	 push	 OFFSET ??_C@_01IHBHIGKO@?0@

; 650  : 			}

  00164	eb 05		 jmp	 SHORT $LN61@OnSTContro
$LN10@OnSTContro:

; 651  : 			else
; 652  : 			{
; 653  : 				strPostTitle += "(";

  00166	68 00 00 00 00	 push	 OFFSET ??_C@_01ODHLEDKK@?$CI@
$LN61@OnSTContro:

; 654  : 			}
; 655  : 			strPostTitle += pISTControllerD->GetInputs(nPos);

  0016b	ff 15 00 00 00
	00		 call	 DWORD PTR __imp_??Y?$CStringT@DV?$StrTraitMFC_DLL@DV?$ChTraitsCRT@D@ATL@@@@@ATL@@QAEAAV01@PBD@Z
  00171	8b 07		 mov	 eax, DWORD PTR [edi]
  00173	8d 4d f0	 lea	 ecx, DWORD PTR $T5[ebp]
  00176	56		 push	 esi
  00177	51		 push	 ecx
  00178	8b cf		 mov	 ecx, edi
  0017a	ff 90 b0 00 00
	00		 call	 DWORD PTR [eax+176]
  00180	50		 push	 eax
  00181	8d 4d 0c	 lea	 ecx, DWORD PTR _strPostTitle$[ebp]
  00184	c6 45 fc 04	 mov	 BYTE PTR __$EHRec$[ebp+8], 4
  00188	ff 15 00 00 00
	00		 call	 DWORD PTR __imp_??Y?$CStringT@DV?$StrTraitMFC_DLL@DV?$ChTraitsCRT@D@ATL@@@@@ATL@@QAEAAV01@ABV?$CSimpleStringT@D$00@1@@Z
  0018e	8d 4d f0	 lea	 ecx, DWORD PTR $T5[ebp]
  00191	c6 45 fc 02	 mov	 BYTE PTR __$EHRec$[ebp+8], 2
  00195	ff 15 00 00 00
	00		 call	 DWORD PTR __imp_??1?$CStringT@DV?$StrTraitMFC_DLL@DV?$ChTraitsCRT@D@ATL@@@@@ATL@@QAE@XZ
  0019b	46		 inc	 esi
  0019c	83 fe 46	 cmp	 esi, 70			; 00000046H
  0019f	0f 8c 7b ff ff
	ff		 jl	 $LL4@OnSTContro
$LN8@OnSTContro:
; File C:\Program Files (x86)\Microsoft Visual Studio\2019\Community\VC\Tools\MSVC\14.29.30133\atlmfc\include\atlsimpstr.h

; 519  : 		return( GetData()->nDataLength );

  001a5	8b 45 0c	 mov	 eax, DWORD PTR _strPostTitle$[ebp]
; File D:\git\src\IBK\IBK_DRFN\ProjSrc\SrcDrfn\Chart\HWSTRATEGYCONFIGUREWIZARD\DlgStrategyList.cpp

; 662  : 	if(strPostTitle.GetLength())

  001a8	83 78 f4 00	 cmp	 DWORD PTR [eax-12], 0
  001ac	74 0e		 je	 SHORT $LN12@OnSTContro

; 663  : 	{
; 664  : 		strPostTitle += ")";

  001ae	68 00 00 00 00	 push	 OFFSET ??_C@_01PKGAHCOL@?$CJ@
  001b3	8d 4d 0c	 lea	 ecx, DWORD PTR _strPostTitle$[ebp]
  001b6	ff 15 00 00 00
	00		 call	 DWORD PTR __imp_??Y?$CStringT@DV?$StrTraitMFC_DLL@DV?$ChTraitsCRT@D@ATL@@@@@ATL@@QAEAAV01@PBD@Z
$LN12@OnSTContro:

; 666  : 	m_GridSTList.SetItemText(nPosOfpSDItemInfo,COL_TITLE,pSDItemInfo->m_strTitle+strPostTitle);

  001bc	8b 75 08	 mov	 esi, DWORD PTR _wParam$[ebp]
; File C:\Program Files (x86)\Microsoft Visual Studio\2019\Community\VC\Tools\MSVC\14.29.30133\atlmfc\include\cstringt.h

; 2390 : 		CStringT strResult( str1.GetManager() );

  001bf	8d 4e 0c	 lea	 ecx, DWORD PTR [esi+12]
; File D:\git\src\IBK\IBK_DRFN\ProjSrc\SrcDrfn\Chart\HWSTRATEGYCONFIGUREWIZARD\DlgStrategyList.cpp

; 666  : 	m_GridSTList.SetItemText(nPosOfpSDItemInfo,COL_TITLE,pSDItemInfo->m_strTitle+strPostTitle);

  001c2	c6 45 fc 05	 mov	 BYTE PTR __$EHRec$[ebp+8], 5
; File C:\Program Files (x86)\Microsoft Visual Studio\2019\Community\VC\Tools\MSVC\14.29.30133\atlmfc\include\cstringt.h

; 2390 : 		CStringT strResult( str1.GetManager() );

  001c6	ff 15 00 00 00
	00		 call	 DWORD PTR __imp_?GetManager@?$CStringT@DV?$StrTraitMFC_DLL@DV?$ChTraitsCRT@D@ATL@@@@@ATL@@QBEPAUIAtlStringMgr@2@XZ
  001cc	50		 push	 eax
  001cd	8d 4d e8	 lea	 ecx, DWORD PTR $T2[ebp]
  001d0	ff 15 00 00 00
	00		 call	 DWORD PTR __imp_??0?$CStringT@DV?$StrTraitMFC_DLL@DV?$ChTraitsCRT@D@ATL@@@@@ATL@@QAE@PAUIAtlStringMgr@1@@Z
; File C:\Program Files (x86)\Microsoft Visual Studio\2019\Community\VC\Tools\MSVC\14.29.30133\atlmfc\include\atlsimpstr.h

; 519  : 		return( GetData()->nDataLength );

  001d6	8b 45 0c	 mov	 eax, DWORD PTR _strPostTitle$[ebp]
  001d9	8b 4e 0c	 mov	 ecx, DWORD PTR [esi+12]
; File C:\Program Files (x86)\Microsoft Visual Studio\2019\Community\VC\Tools\MSVC\14.29.30133\atlmfc\include\cstringt.h

; 2394 : 		return( strResult );

  001dc	c7 45 f0 01 00
	00 00		 mov	 DWORD PTR $T4[ebp], 1
  001e3	ff 70 f4	 push	 DWORD PTR [eax-12]
  001e6	50		 push	 eax
  001e7	ff 71 f4	 push	 DWORD PTR [ecx-12]
  001ea	8d 45 e8	 lea	 eax, DWORD PTR $T2[ebp]
  001ed	51		 push	 ecx
  001ee	50		 push	 eax
  001ef	ff 15 00 00 00
	00		 call	 DWORD PTR __imp_?Concatenate@?$CSimpleStringT@D$00@ATL@@KAXAAV12@PBDH1H@Z
; File D:\git\src\IBK\IBK_DRFN\ProjSrc\SrcDrfn\Chart\HWSTRATEGYCONFIGUREWIZARD\DlgStrategyList.cpp

; 666  : 	m_GridSTList.SetItemText(nPosOfpSDItemInfo,COL_TITLE,pSDItemInfo->m_strTitle+strPostTitle);

  001f5	8b 7d ec	 mov	 edi, DWORD PTR _nPosOfpSDItemInfo$2$[ebp]
; File C:\Program Files (x86)\Microsoft Visual Studio\2019\Community\VC\Tools\MSVC\14.29.30133\atlmfc\include\cstringt.h

; 2392 : 		CThisSimpleString::Concatenate( strResult, str1, str1.GetLength(), str2, str2.GetLength() );

  001f8	83 c4 14	 add	 esp, 20			; 00000014H
; File D:\git\src\IBK\IBK_DRFN\ProjSrc\SrcDrfn\Chart\HWSTRATEGYCONFIGUREWIZARD\DlgStrategyList.cpp

; 666  : 	m_GridSTList.SetItemText(nPosOfpSDItemInfo,COL_TITLE,pSDItemInfo->m_strTitle+strPostTitle);

  001fb	8b 75 e0	 mov	 esi, DWORD PTR tv494[ebp]
  001fe	8b ce		 mov	 ecx, esi
  00200	ff 75 e8	 push	 DWORD PTR $T2[ebp]
  00203	6a 01		 push	 1
  00205	57		 push	 edi
  00206	e8 00 00 00 00	 call	 ?SetItemText@CGridCtrl@@QAEHHHPBD@Z ; CGridCtrl::SetItemText
  0020b	8d 4d e8	 lea	 ecx, DWORD PTR $T2[ebp]
  0020e	c6 45 fc 02	 mov	 BYTE PTR __$EHRec$[ebp+8], 2
  00212	ff 15 00 00 00
	00		 call	 DWORD PTR __imp_??1?$CStringT@DV?$StrTraitMFC_DLL@DV?$ChTraitsCRT@D@ATL@@@@@ATL@@QAE@XZ

; 667  : 	m_GridSTList.SetItemText(nPosOfpSDItemInfo,COL_TIME,pSDItemInfo->m_strTimeInfo);

  00218	8b 45 08	 mov	 eax, DWORD PTR _wParam$[ebp]
  0021b	8b ce		 mov	 ecx, esi
  0021d	ff 70 14	 push	 DWORD PTR [eax+20]
  00220	6a 02		 push	 2
  00222	57		 push	 edi
  00223	e8 00 00 00 00	 call	 ?SetItemText@CGridCtrl@@QAEHHHPBD@Z ; CGridCtrl::SetItemText

; 668  : 	m_GridSTList.SetItemFormat(nPosOfpSDItemInfo,COL_TIME,DT_CENTER);	

  00228	6a 01		 push	 1
  0022a	6a 02		 push	 2
  0022c	57		 push	 edi
  0022d	8b ce		 mov	 ecx, esi
  0022f	e8 00 00 00 00	 call	 ?SetItemFormat@CGridCtrl@@QAEHHHI@Z ; CGridCtrl::SetItemFormat

; 669  : 	m_GridSTList.SetItemText(nPosOfpSDItemInfo,COL_EDIT,"");

  00234	68 00 00 00 00	 push	 OFFSET ??_C@_04EKOCOPPL@?F?m?A?$PN@
  00239	6a 03		 push	 3
  0023b	57		 push	 edi
  0023c	8b ce		 mov	 ecx, esi
  0023e	e8 00 00 00 00	 call	 ?SetItemText@CGridCtrl@@QAEHHHPBD@Z ; CGridCtrl::SetItemText

; 670  : 	m_GridSTList.SetItemFormat(nPosOfpSDItemInfo,COL_EDIT,DT_CENTER);

  00243	6a 01		 push	 1
  00245	6a 03		 push	 3
  00247	57		 push	 edi
  00248	8b ce		 mov	 ecx, esi
  0024a	e8 00 00 00 00	 call	 ?SetItemFormat@CGridCtrl@@QAEHHHI@Z ; CGridCtrl::SetItemFormat

; 671  : 	m_GridSTList.SetItemText(nPosOfpSDItemInfo,COL_DELETE,"X");

  0024f	68 00 00 00 00	 push	 OFFSET ??_C@_01MMEEDKFM@X@
  00254	6a 04		 push	 4
  00256	57		 push	 edi
  00257	8b ce		 mov	 ecx, esi
  00259	e8 00 00 00 00	 call	 ?SetItemText@CGridCtrl@@QAEHHHPBD@Z ; CGridCtrl::SetItemText

; 672  : 	m_GridSTList.SetItemFormat(nPosOfpSDItemInfo,COL_DELETE,DT_CENTER);

  0025e	6a 01		 push	 1
  00260	6a 04		 push	 4
  00262	57		 push	 edi
  00263	8b ce		 mov	 ecx, esi
  00265	e8 00 00 00 00	 call	 ?SetItemFormat@CGridCtrl@@QAEHHHI@Z ; CGridCtrl::SetItemFormat

; 673  : 	m_GridSTList.SetItemData(nPosOfpSDItemInfo,COL_INFOPOINTER,(long)pSDItemInfo);

  0026a	ff 75 08	 push	 DWORD PTR _wParam$[ebp]
  0026d	8b ce		 mov	 ecx, esi
  0026f	6a 01		 push	 1
  00271	57		 push	 edi
  00272	e8 00 00 00 00	 call	 ?SetItemData@CGridCtrl@@QAEHHHJ@Z ; CGridCtrl::SetItemData

; 674  : 
; 675  : 	ResizeAll();

  00277	8b cb		 mov	 ecx, ebx
  00279	e8 00 00 00 00	 call	 ?ResizeAll@CDlgStrategyList@@QAEXXZ ; CDlgStrategyList::ResizeAll

; 676  : 	return 0;

  0027e	8d 4d e4	 lea	 ecx, DWORD PTR _strInput$[ebp]
  00281	ff 15 00 00 00
	00		 call	 DWORD PTR __imp_??1?$CStringT@DV?$StrTraitMFC_DLL@DV?$ChTraitsCRT@D@ATL@@@@@ATL@@QAE@XZ
  00287	8d 4d 0c	 lea	 ecx, DWORD PTR _strPostTitle$[ebp]
  0028a	ff 15 00 00 00
	00		 call	 DWORD PTR __imp_??1?$CStringT@DV?$StrTraitMFC_DLL@DV?$ChTraitsCRT@D@ATL@@@@@ATL@@QAE@XZ
  00290	33 c0		 xor	 eax, eax

; 677  : }

  00292	8b 4d f4	 mov	 ecx, DWORD PTR __$EHRec$[ebp]
  00295	64 89 0d 00 00
	00 00		 mov	 DWORD PTR fs:0, ecx
  0029c	59		 pop	 ecx
  0029d	5f		 pop	 edi
  0029e	5e		 pop	 esi
  0029f	5b		 pop	 ebx
  002a0	8b e5		 mov	 esp, ebp
  002a2	5d		 pop	 ebp
  002a3	c2 08 00	 ret	 8
_TEXT	ENDS
;	COMDAT text$x
text$x	SEGMENT
__unwindfunclet$?OnSTController@CDlgStrategyList@@IAEJIJ@Z$0:
  00000	8d 4d f0	 lea	 ecx, DWORD PTR _strIndex$6[ebp]
  00003	ff 25 00 00 00
	00		 jmp	 DWORD PTR __imp_??1?$CStringT@DV?$StrTraitMFC_DLL@DV?$ChTraitsCRT@D@ATL@@@@@ATL@@QAE@XZ
__unwindfunclet$?OnSTController@CDlgStrategyList@@IAEJIJ@Z$1:
  00009	8d 4d 0c	 lea	 ecx, DWORD PTR _strPostTitle$[ebp]
  0000c	ff 25 00 00 00
	00		 jmp	 DWORD PTR __imp_??1?$CStringT@DV?$StrTraitMFC_DLL@DV?$ChTraitsCRT@D@ATL@@@@@ATL@@QAE@XZ
__unwindfunclet$?OnSTController@CDlgStrategyList@@IAEJIJ@Z$2:
  00012	8d 4d e4	 lea	 ecx, DWORD PTR _strInput$[ebp]
  00015	ff 25 00 00 00
	00		 jmp	 DWORD PTR __imp_??1?$CStringT@DV?$StrTraitMFC_DLL@DV?$ChTraitsCRT@D@ATL@@@@@ATL@@QAE@XZ
__unwindfunclet$?OnSTController@CDlgStrategyList@@IAEJIJ@Z$3:
  0001b	8d 4d e8	 lea	 ecx, DWORD PTR $T3[ebp]
  0001e	ff 25 00 00 00
	00		 jmp	 DWORD PTR __imp_??1?$CStringT@DV?$StrTraitMFC_DLL@DV?$ChTraitsCRT@D@ATL@@@@@ATL@@QAE@XZ
__unwindfunclet$?OnSTController@CDlgStrategyList@@IAEJIJ@Z$4:
  00024	8d 4d f0	 lea	 ecx, DWORD PTR $T5[ebp]
  00027	ff 25 00 00 00
	00		 jmp	 DWORD PTR __imp_??1?$CStringT@DV?$StrTraitMFC_DLL@DV?$ChTraitsCRT@D@ATL@@@@@ATL@@QAE@XZ
__unwindfunclet$?OnSTController@CDlgStrategyList@@IAEJIJ@Z$6:
  0002d	8b 45 f0	 mov	 eax, DWORD PTR $T4[ebp]
  00030	83 e0 01	 and	 eax, 1
  00033	0f 84 0d 00 00
	00		 je	 $LN37@OnSTContro
  00039	83 65 f0 fe	 and	 DWORD PTR $T4[ebp], -2	; fffffffeH
  0003d	8d 4d e8	 lea	 ecx, DWORD PTR $T2[ebp]
  00040	ff 25 00 00 00
	00		 jmp	 DWORD PTR __imp_??1?$CStringT@DV?$StrTraitMFC_DLL@DV?$ChTraitsCRT@D@ATL@@@@@ATL@@QAE@XZ
$LN37@OnSTContro:
  00046	c3		 ret	 0
  00047	cc		 int	 3
  00048	cc		 int	 3
  00049	cc		 int	 3
  0004a	cc		 int	 3
  0004b	cc		 int	 3
__ehhandler$?OnSTController@CDlgStrategyList@@IAEJIJ@Z:
  0004c	90		 npad	 1
  0004d	90		 npad	 1
  0004e	8b 54 24 08	 mov	 edx, DWORD PTR [esp+8]
  00052	8d 42 0c	 lea	 eax, DWORD PTR [edx+12]
  00055	8b 4a dc	 mov	 ecx, DWORD PTR [edx-36]
  00058	33 c8		 xor	 ecx, eax
  0005a	e8 00 00 00 00	 call	 @__security_check_cookie@4
  0005f	b8 00 00 00 00	 mov	 eax, OFFSET __ehfuncinfo$?OnSTController@CDlgStrategyList@@IAEJIJ@Z
  00064	e9 00 00 00 00	 jmp	 ___CxxFrameHandler3
text$x	ENDS
?OnSTController@CDlgStrategyList@@IAEJIJ@Z ENDP		; CDlgStrategyList::OnSTController
; Function compile flags: /Ogtp
; File D:\git\src\IBK\IBK_DRFN\ProjSrc\SrcDrfn\Chart\HWSTRATEGYCONFIGUREWIZARD\DlgStrategyList.cpp
; File C:\Program Files (x86)\Microsoft Visual Studio\2019\Community\VC\Tools\MSVC\14.29.30133\atlmfc\include\atlsimpstr.h
; File D:\git\src\IBK\IBK_DRFN\ProjSrc\SrcDrfn\Chart\HWSTRATEGYCONFIGUREWIZARD\DlgStrategyList.cpp
; File C:\Program Files (x86)\Microsoft Visual Studio\2019\Community\VC\Tools\MSVC\14.29.30133\atlmfc\include\atlsimpstr.h
; File D:\git\src\IBK\IBK_DRFN\ProjSrc\SrcDrfn\Chart\HWSTRATEGYCONFIGUREWIZARD\DlgStrategyList.cpp
; File C:\Program Files (x86)\Microsoft Visual Studio\2019\Community\VC\Tools\MSVC\14.29.30133\atlmfc\include\afxwin2.inl
; File D:\git\src\IBK\IBK_DRFN\ProjSrc\SrcDrfn\Chart\HWSTRATEGYCONFIGUREWIZARD\DlgStrategyList.cpp
; File C:\Program Files (x86)\Microsoft Visual Studio\2019\Community\VC\Tools\MSVC\14.29.30133\atlmfc\include\afxwin2.inl
; File D:\git\src\IBK\IBK_DRFN\ProjSrc\SrcDrfn\Chart\HWSTRATEGYCONFIGUREWIZARD\DlgStrategyList.cpp
;	COMDAT ?OnBnClickedSTRun@CDlgStrategyList@@IAEXXZ
_TEXT	SEGMENT
_strText$2 = -20					; size = 4
_szRunImsiFile$3 = -16					; size = 4
__$EHRec$ = -12						; size = 12
?OnBnClickedSTRun@CDlgStrategyList@@IAEXXZ PROC		; CDlgStrategyList::OnBnClickedSTRun, COMDAT
; _this$ = ecx

; 1572 : {

  00000	55		 push	 ebp
  00001	8b ec		 mov	 ebp, esp
  00003	6a ff		 push	 -1
  00005	68 00 00 00 00	 push	 __ehhandler$?OnBnClickedSTRun@CDlgStrategyList@@IAEXXZ
  0000a	64 a1 00 00 00
	00		 mov	 eax, DWORD PTR fs:0
  00010	50		 push	 eax
  00011	83 ec 08	 sub	 esp, 8
  00014	53		 push	 ebx
  00015	56		 push	 esi
  00016	57		 push	 edi
  00017	a1 00 00 00 00	 mov	 eax, DWORD PTR ___security_cookie
  0001c	33 c5		 xor	 eax, ebp
  0001e	50		 push	 eax
  0001f	8d 45 f4	 lea	 eax, DWORD PTR __$EHRec$[ebp]
  00022	64 a3 00 00 00
	00		 mov	 DWORD PTR fs:0, eax
  00028	8b f9		 mov	 edi, ecx

; 1622 : 	CString strText;

  0002a	8d 4d ec	 lea	 ecx, DWORD PTR _strText$2[ebp]
  0002d	ff 15 00 00 00
	00		 call	 DWORD PTR __imp_??0?$CStringT@DV?$StrTraitMFC_DLL@DV?$ChTraitsCRT@D@ATL@@@@@ATL@@QAE@XZ

; 1623 : 
; 1624 : 	m_editSTTitle.GetWindowText(strText);

  00033	8d 45 ec	 lea	 eax, DWORD PTR _strText$2[ebp]
  00036	c7 45 fc 00 00
	00 00		 mov	 DWORD PTR __$EHRec$[ebp+8], 0
  0003d	50		 push	 eax
  0003e	8d 8f a8 00 00
	00		 lea	 ecx, DWORD PTR [edi+168]
  00044	e8 00 00 00 00	 call	 ?GetWindowTextA@CWnd@@QBEXAAV?$CStringT@DV?$StrTraitMFC_DLL@DV?$ChTraitsCRT@D@ATL@@@@@ATL@@@Z ; CWnd::GetWindowTextA
; File C:\Program Files (x86)\Microsoft Visual Studio\2019\Community\VC\Tools\MSVC\14.29.30133\atlmfc\include\atlsimpstr.h

; 519  : 		return( GetData()->nDataLength );

  00049	8b 45 ec	 mov	 eax, DWORD PTR _strText$2[ebp]

; 533  : 		return( GetLength() == 0 );

  0004c	83 78 f4 00	 cmp	 DWORD PTR [eax-12], 0
; File D:\git\src\IBK\IBK_DRFN\ProjSrc\SrcDrfn\Chart\HWSTRATEGYCONFIGUREWIZARD\DlgStrategyList.cpp

; 1625 : 	if(strText.IsEmpty()) {

  00050	75 29		 jne	 SHORT $LN5@OnBnClicke

; 1626 : 		AfxMessageBox("  . ");

  00052	6a 00		 push	 0
  00054	6a 00		 push	 0
  00056	68 00 00 00 00	 push	 OFFSET ??_C@_0CJ@BJKBFEL@?$LM?$LB?E?C?$LF?H?5?$MA?$PM?$LH?$KL?$MA?L?$LI?$KH?$MA?L?5?$LO?x?$LN?$MA?$LE?O?$LE?Y?4?5?H?$KO?$MA@
  0005b	e8 00 00 00 00	 call	 ?AfxMessageBox@@YGHPBDII@Z ; AfxMessageBox

; 1627 : 		return FALSE;

  00060	8d 4d ec	 lea	 ecx, DWORD PTR _strText$2[ebp]
  00063	ff 15 00 00 00
	00		 call	 DWORD PTR __imp_??1?$CStringT@DV?$StrTraitMFC_DLL@DV?$ChTraitsCRT@D@ATL@@@@@ATL@@QAE@XZ

; 1591 : }

  00069	8b 4d f4	 mov	 ecx, DWORD PTR __$EHRec$[ebp]
  0006c	64 89 0d 00 00
	00 00		 mov	 DWORD PTR fs:0, ecx
  00073	59		 pop	 ecx
  00074	5f		 pop	 edi
  00075	5e		 pop	 esi
  00076	5b		 pop	 ebx
  00077	8b e5		 mov	 esp, ebp
  00079	5d		 pop	 ebp
  0007a	c3		 ret	 0
$LN5@OnBnClicke:

; 1630 : 	CString szRunImsiFile;

  0007b	8d 4d f0	 lea	 ecx, DWORD PTR _szRunImsiFile$3[ebp]
  0007e	ff 15 00 00 00
	00		 call	 DWORD PTR __imp_??0?$CStringT@DV?$StrTraitMFC_DLL@DV?$ChTraitsCRT@D@ATL@@@@@ATL@@QAE@XZ

; 1631 : 	szRunImsiFile.Format("%s%s%s%s", m_szUserDir, "\\STData\\Temp\\", strText, ".ST");

  00084	68 00 00 00 00	 push	 OFFSET ??_C@_03COHLPAFH@?4ST@
  00089	ff 75 ec	 push	 DWORD PTR _strText$2[ebp]
  0008c	8d 45 f0	 lea	 eax, DWORD PTR _szRunImsiFile$3[ebp]
  0008f	c6 45 fc 01	 mov	 BYTE PTR __$EHRec$[ebp+8], 1
  00093	68 00 00 00 00	 push	 OFFSET ??_C@_0O@OIDGLFFC@?2STData?2Temp?2@
  00098	ff b7 c8 0f 00
	00		 push	 DWORD PTR [edi+4040]
  0009e	68 00 00 00 00	 push	 OFFSET ??_C@_08KJEDNCKC@?$CFs?$CFs?$CFs?$CFs@
  000a3	50		 push	 eax
  000a4	ff 15 00 00 00
	00		 call	 DWORD PTR __imp_?Format@?$CStringT@DV?$StrTraitMFC_DLL@DV?$ChTraitsCRT@D@ATL@@@@@ATL@@QAAXPBDZZ

; 1632 : 	::WritePrivateProfileString(STRATEGYLIST, "IMSIST", szRunImsiFile, m_szSTFilePath);

  000aa	8b 35 00 00 00
	00		 mov	 esi, DWORD PTR __imp__WritePrivateProfileStringA@16
; File C:\Program Files (x86)\Microsoft Visual Studio\2019\Community\VC\Tools\MSVC\14.29.30133\atlmfc\include\atlsimpstr.h

; 377  : 		return( m_pszData );

  000b0	8d 9f cc 0f 00
	00		 lea	 ebx, DWORD PTR [edi+4044]
; File D:\git\src\IBK\IBK_DRFN\ProjSrc\SrcDrfn\Chart\HWSTRATEGYCONFIGUREWIZARD\DlgStrategyList.cpp

; 1631 : 	szRunImsiFile.Format("%s%s%s%s", m_szUserDir, "\\STData\\Temp\\", strText, ".ST");

  000b6	83 c4 18	 add	 esp, 24			; 00000018H

; 1632 : 	::WritePrivateProfileString(STRATEGYLIST, "IMSIST", szRunImsiFile, m_szSTFilePath);

  000b9	ff 33		 push	 DWORD PTR [ebx]
  000bb	ff 75 f0	 push	 DWORD PTR _szRunImsiFile$3[ebp]
  000be	68 00 00 00 00	 push	 OFFSET ??_C@_06CJEEKDIM@IMSIST@
  000c3	68 00 00 00 00	 push	 OFFSET ??_C@_0N@GKFNKJGL@StrategyList@
  000c8	ff d6		 call	 esi

; 1633 : 	::CopyFile(m_szSTFilePath, szRunImsiFile, FALSE);

  000ca	6a 00		 push	 0
  000cc	ff 75 f0	 push	 DWORD PTR _szRunImsiFile$3[ebp]
  000cf	ff 33		 push	 DWORD PTR [ebx]
  000d1	ff 15 00 00 00
	00		 call	 DWORD PTR __imp__CopyFileA@12

; 1634 : 
; 1635 : 	SaveST(strText, TRUE);

  000d7	6a 01		 push	 1
  000d9	ff 75 ec	 push	 DWORD PTR _strText$2[ebp]
  000dc	8b cf		 mov	 ecx, edi
  000de	e8 00 00 00 00	 call	 ?SaveST@CDlgStrategyList@@IAEXPBDH@Z ; CDlgStrategyList::SaveST

; 1636 : 
; 1637 : 	//   Temp ST    
; 1638 : 	if(m_szSTFilePath.Find("\\\\") < 0 && m_szSTFilePath.Find("\\\\") < 0)

  000e3	6a 00		 push	 0
  000e5	68 00 00 00 00	 push	 OFFSET ??_C@_0BB@FBICNCLM@?2?$LL?g?$LP?k?$MA?Z?$LE?$NM?$MA?$KH?$MA?$PM?$LH?$KL?2@
  000ea	8b cb		 mov	 ecx, ebx
  000ec	ff 15 00 00 00
	00		 call	 DWORD PTR __imp_?Find@?$CStringT@DV?$StrTraitMFC_DLL@DV?$ChTraitsCRT@D@ATL@@@@@ATL@@QBEHPBDH@Z
  000f2	85 c0		 test	 eax, eax
  000f4	79 4b		 jns	 SHORT $LN6@OnBnClicke
  000f6	6a 00		 push	 0
  000f8	68 00 00 00 00	 push	 OFFSET ??_C@_0BB@PJJNFPEB@?2?$LL?g?$LP?k?$MA?Z?A?$LG?G?U?$MA?$PM?$LH?$KL?2@
  000fd	8b cb		 mov	 ecx, ebx
  000ff	ff 15 00 00 00
	00		 call	 DWORD PTR __imp_?Find@?$CStringT@DV?$StrTraitMFC_DLL@DV?$ChTraitsCRT@D@ATL@@@@@ATL@@QBEHPBDH@Z
  00105	85 c0		 test	 eax, eax
  00107	79 38		 jns	 SHORT $LN6@OnBnClicke

; 1639 : 	{
; 1640 : 		::WritePrivateProfileString(STCONFIG_SIGNAL, NULL, NULL, szRunImsiFile);

  00109	ff 75 f0	 push	 DWORD PTR _szRunImsiFile$3[ebp]
  0010c	6a 00		 push	 0
  0010e	6a 00		 push	 0
  00110	68 00 00 00 00	 push	 OFFSET ??_C@_06CPODCDOI@Signal@
  00115	ff d6		 call	 esi

; 1641 : 		::WritePrivateProfileString(STCONFIG_ORDER, NULL, NULL, szRunImsiFile);

  00117	ff 75 f0	 push	 DWORD PTR _szRunImsiFile$3[ebp]
  0011a	6a 00		 push	 0
  0011c	6a 00		 push	 0
  0011e	68 00 00 00 00	 push	 OFFSET ??_C@_08IFJCKPBE@RunJumun@
  00123	ff d6		 call	 esi

; 1642 : 		::WritePrivateProfileString(STCONFIG_CLEAR, NULL, NULL, szRunImsiFile);

  00125	ff 75 f0	 push	 DWORD PTR _szRunImsiFile$3[ebp]
  00128	6a 00		 push	 0
  0012a	6a 00		 push	 0
  0012c	68 00 00 00 00	 push	 OFFSET ??_C@_08DIPLEMAP@RunSetup@
  00131	ff d6		 call	 esi

; 1643 : 		::WritePrivateProfileString(STCONFIG_SETUP, NULL, NULL, szRunImsiFile);

  00133	ff 75 f0	 push	 DWORD PTR _szRunImsiFile$3[ebp]
  00136	6a 00		 push	 0
  00138	6a 00		 push	 0
  0013a	68 00 00 00 00	 push	 OFFSET ??_C@_08PHIBHFDB@RunClear@
  0013f	ff d6		 call	 esi
$LN6@OnBnClicke:

; 1644 : 	}
; 1645 : 
; 1646 : 	return TRUE;

  00141	8d 4d f0	 lea	 ecx, DWORD PTR _szRunImsiFile$3[ebp]
  00144	ff 15 00 00 00
	00		 call	 DWORD PTR __imp_??1?$CStringT@DV?$StrTraitMFC_DLL@DV?$ChTraitsCRT@D@ATL@@@@@ATL@@QAE@XZ
  0014a	8d 4d ec	 lea	 ecx, DWORD PTR _strText$2[ebp]
  0014d	c7 45 fc ff ff
	ff ff		 mov	 DWORD PTR __$EHRec$[ebp+8], -1
  00154	ff 15 00 00 00
	00		 call	 DWORD PTR __imp_??1?$CStringT@DV?$StrTraitMFC_DLL@DV?$ChTraitsCRT@D@ATL@@@@@ATL@@QAE@XZ

; 1589 : 	((CDlgStrategyConfigure*)GetParent())->RunST(TRUE, m_szSTFilePath);

  0015a	53		 push	 ebx
  0015b	6a 01		 push	 1
; File C:\Program Files (x86)\Microsoft Visual Studio\2019\Community\VC\Tools\MSVC\14.29.30133\atlmfc\include\afxwin2.inl

; 213  : 	{ ASSERT(::IsWindow(m_hWnd)); return CWnd::FromHandle(::GetParent(m_hWnd)); }

  0015d	ff 77 20	 push	 DWORD PTR [edi+32]
  00160	ff 15 00 00 00
	00		 call	 DWORD PTR __imp__GetParent@4
  00166	50		 push	 eax
  00167	e8 00 00 00 00	 call	 ?FromHandle@CWnd@@SGPAV1@PAUHWND__@@@Z ; CWnd::FromHandle
; File D:\git\src\IBK\IBK_DRFN\ProjSrc\SrcDrfn\Chart\HWSTRATEGYCONFIGUREWIZARD\DlgStrategyList.cpp

; 1589 : 	((CDlgStrategyConfigure*)GetParent())->RunST(TRUE, m_szSTFilePath);

  0016c	8b c8		 mov	 ecx, eax
  0016e	e8 00 00 00 00	 call	 ?RunST@CDlgStrategyConfigure@@QAEHHAAV?$CStringT@DV?$StrTraitMFC_DLL@DV?$ChTraitsCRT@D@ATL@@@@@ATL@@@Z ; CDlgStrategyConfigure::RunST
; File C:\Program Files (x86)\Microsoft Visual Studio\2019\Community\VC\Tools\MSVC\14.29.30133\atlmfc\include\afxwin2.inl

; 152  : 	{ ASSERT(::IsWindow(m_hWnd)); return ::SetTimer(m_hWnd, nIDEvent, nElapse,

  00173	6a 00		 push	 0
  00175	68 2c 01 00 00	 push	 300			; 0000012cH
  0017a	6a 0a		 push	 10			; 0000000aH
  0017c	ff 77 20	 push	 DWORD PTR [edi+32]
  0017f	ff 15 00 00 00
	00		 call	 DWORD PTR __imp__SetTimer@16
; File D:\git\src\IBK\IBK_DRFN\ProjSrc\SrcDrfn\Chart\HWSTRATEGYCONFIGUREWIZARD\DlgStrategyList.cpp

; 1591 : }

  00185	8b 4d f4	 mov	 ecx, DWORD PTR __$EHRec$[ebp]
  00188	64 89 0d 00 00
	00 00		 mov	 DWORD PTR fs:0, ecx
  0018f	59		 pop	 ecx
  00190	5f		 pop	 edi
  00191	5e		 pop	 esi
  00192	5b		 pop	 ebx
  00193	8b e5		 mov	 esp, ebp
  00195	5d		 pop	 ebp
  00196	c3		 ret	 0
_TEXT	ENDS
;	COMDAT text$x
text$x	SEGMENT
__unwindfunclet$?OnBnClickedSTRun@CDlgStrategyList@@IAEXXZ$0:
  00000	8d 4d ec	 lea	 ecx, DWORD PTR _strText$2[ebp]
  00003	ff 25 00 00 00
	00		 jmp	 DWORD PTR __imp_??1?$CStringT@DV?$StrTraitMFC_DLL@DV?$ChTraitsCRT@D@ATL@@@@@ATL@@QAE@XZ
__unwindfunclet$?OnBnClickedSTRun@CDlgStrategyList@@IAEXXZ$1:
  00009	8d 4d f0	 lea	 ecx, DWORD PTR _szRunImsiFile$3[ebp]
  0000c	ff 25 00 00 00
	00		 jmp	 DWORD PTR __imp_??1?$CStringT@DV?$StrTraitMFC_DLL@DV?$ChTraitsCRT@D@ATL@@@@@ATL@@QAE@XZ
  00012	cc		 int	 3
  00013	cc		 int	 3
  00014	cc		 int	 3
  00015	cc		 int	 3
  00016	cc		 int	 3
__ehhandler$?OnBnClickedSTRun@CDlgStrategyList@@IAEXXZ:
  00017	90		 npad	 1
  00018	90		 npad	 1
  00019	8b 54 24 08	 mov	 edx, DWORD PTR [esp+8]
  0001d	8d 42 0c	 lea	 eax, DWORD PTR [edx+12]
  00020	8b 4a e8	 mov	 ecx, DWORD PTR [edx-24]
  00023	33 c8		 xor	 ecx, eax
  00025	e8 00 00 00 00	 call	 @__security_check_cookie@4
  0002a	b8 00 00 00 00	 mov	 eax, OFFSET __ehfuncinfo$?OnBnClickedSTRun@CDlgStrategyList@@IAEXXZ
  0002f	e9 00 00 00 00	 jmp	 ___CxxFrameHandler3
text$x	ENDS
?OnBnClickedSTRun@CDlgStrategyList@@IAEXXZ ENDP		; CDlgStrategyList::OnBnClickedSTRun
; Function compile flags: /Ogtp
; File D:\git\src\IBK\IBK_DRFN\ProjSrc\SrcDrfn\Chart\HWSTRATEGYCONFIGUREWIZARD\DlgStrategyList.cpp
; File C:\Program Files (x86)\Microsoft Visual Studio\2019\Community\VC\Tools\MSVC\14.29.30133\atlmfc\include\afxwin2.inl
; File D:\git\src\IBK\IBK_DRFN\ProjSrc\SrcDrfn\Chart\HWSTRATEGYCONFIGUREWIZARD\DlgStrategyList.cpp
;	COMDAT ?OnBnClickedSTClose@CDlgStrategyList@@IAEXXZ
_TEXT	SEGMENT
?OnBnClickedSTClose@CDlgStrategyList@@IAEXXZ PROC	; CDlgStrategyList::OnBnClickedSTClose, COMDAT
; _this$ = ecx
; File C:\Program Files (x86)\Microsoft Visual Studio\2019\Community\VC\Tools\MSVC\14.29.30133\atlmfc\include\afxwin2.inl

; 213  : 	{ ASSERT(::IsWindow(m_hWnd)); return CWnd::FromHandle(::GetParent(m_hWnd)); }

  00000	ff 71 20	 push	 DWORD PTR [ecx+32]
  00003	ff 15 00 00 00
	00		 call	 DWORD PTR __imp__GetParent@4
  00009	50		 push	 eax
  0000a	e8 00 00 00 00	 call	 ?FromHandle@CWnd@@SGPAV1@PAUHWND__@@@Z ; CWnd::FromHandle
  0000f	ff 70 20	 push	 DWORD PTR [eax+32]
  00012	ff 15 00 00 00
	00		 call	 DWORD PTR __imp__GetParent@4
  00018	50		 push	 eax
  00019	e8 00 00 00 00	 call	 ?FromHandle@CWnd@@SGPAV1@PAUHWND__@@@Z ; CWnd::FromHandle

; 32   : 	{ ASSERT(::IsWindow(m_hWnd)); return ::SendMessage(m_hWnd, message, wParam, lParam); }

  0001e	6a 00		 push	 0
  00020	6a 02		 push	 2
  00022	68 11 01 00 00	 push	 273			; 00000111H
  00027	ff 70 20	 push	 DWORD PTR [eax+32]
  0002a	ff 15 00 00 00
	00		 call	 DWORD PTR __imp__SendMessageA@16
; File D:\git\src\IBK\IBK_DRFN\ProjSrc\SrcDrfn\Chart\HWSTRATEGYCONFIGUREWIZARD\DlgStrategyList.cpp

; 1569 : }

  00030	c3		 ret	 0
?OnBnClickedSTClose@CDlgStrategyList@@IAEXXZ ENDP	; CDlgStrategyList::OnBnClickedSTClose
_TEXT	ENDS
; Function compile flags: /Ogtp
; File D:\git\src\IBK\IBK_DRFN\ProjSrc\SrcDrfn\Chart\HWSTRATEGYCONFIGUREWIZARD\DlgStrategyList.cpp
; File C:\Program Files (x86)\Microsoft Visual Studio\2019\Community\VC\Tools\MSVC\14.29.30133\atlmfc\include\afxwin2.inl
; File D:\git\src\IBK\IBK_DRFN\ProjSrc\SrcDrfn\Chart\HWSTRATEGYCONFIGUREWIZARD\DlgStrategyList.cpp
;	COMDAT ?OnBnClickedSTConfigDlg@CDlgStrategyList@@IAEXXZ
_TEXT	SEGMENT
_szUserPath$ = -28					; size = 4
_szSTName$ = -24					; size = 4
_szTitle$ = -20						; size = 4
_szDllName$ = -16					; size = 4
__$EHRec$ = -12						; size = 12
?OnBnClickedSTConfigDlg@CDlgStrategyList@@IAEXXZ PROC	; CDlgStrategyList::OnBnClickedSTConfigDlg, COMDAT
; _this$ = ecx

; 1536 : {

  00000	55		 push	 ebp
  00001	8b ec		 mov	 ebp, esp
  00003	6a ff		 push	 -1
  00005	68 00 00 00 00	 push	 __ehhandler$?OnBnClickedSTConfigDlg@CDlgStrategyList@@IAEXXZ
  0000a	64 a1 00 00 00
	00		 mov	 eax, DWORD PTR fs:0
  00010	50		 push	 eax
  00011	83 ec 10	 sub	 esp, 16			; 00000010H
  00014	53		 push	 ebx
  00015	56		 push	 esi
  00016	57		 push	 edi
  00017	a1 00 00 00 00	 mov	 eax, DWORD PTR ___security_cookie
  0001c	33 c5		 xor	 eax, ebp
  0001e	50		 push	 eax
  0001f	8d 45 f4	 lea	 eax, DWORD PTR __$EHRec$[ebp]
  00022	64 a3 00 00 00
	00		 mov	 DWORD PTR fs:0, eax
  00028	8b f9		 mov	 edi, ecx

; 1537 : 	CString szTitle;

  0002a	8d 4d ec	 lea	 ecx, DWORD PTR _szTitle$[ebp]
  0002d	ff 15 00 00 00
	00		 call	 DWORD PTR __imp_??0?$CStringT@DV?$StrTraitMFC_DLL@DV?$ChTraitsCRT@D@ATL@@@@@ATL@@QAE@XZ

; 1538 : 	m_editSTTitle.GetWindowText(szTitle);

  00033	8d 45 ec	 lea	 eax, DWORD PTR _szTitle$[ebp]
  00036	c7 45 fc 00 00
	00 00		 mov	 DWORD PTR __$EHRec$[ebp+8], 0
  0003d	50		 push	 eax
  0003e	8d 8f a8 00 00
	00		 lea	 ecx, DWORD PTR [edi+168]
  00044	e8 00 00 00 00	 call	 ?GetWindowTextA@CWnd@@QBEXAAV?$CStringT@DV?$StrTraitMFC_DLL@DV?$ChTraitsCRT@D@ATL@@@@@ATL@@@Z ; CWnd::GetWindowTextA
; File C:\Program Files (x86)\Microsoft Visual Studio\2019\Community\VC\Tools\MSVC\14.29.30133\atlmfc\include\afxwin2.inl

; 213  : 	{ ASSERT(::IsWindow(m_hWnd)); return CWnd::FromHandle(::GetParent(m_hWnd)); }

  00049	ff 77 20	 push	 DWORD PTR [edi+32]
  0004c	ff 15 00 00 00
	00		 call	 DWORD PTR __imp__GetParent@4
  00052	50		 push	 eax
  00053	e8 00 00 00 00	 call	 ?FromHandle@CWnd@@SGPAV1@PAUHWND__@@@Z ; CWnd::FromHandle
; File D:\git\src\IBK\IBK_DRFN\ProjSrc\SrcDrfn\Chart\HWSTRATEGYCONFIGUREWIZARD\DlgStrategyList.cpp

; 1540 : 	m_hViewHandle = (HWND)((CDlgStrategyConfigure*)GetParent())->m_pSTRunMng->GetViewHandle();

  00058	8b 88 bc 00 00
	00		 mov	 ecx, DWORD PTR [eax+188]
  0005e	51		 push	 ecx
  0005f	8b 01		 mov	 eax, DWORD PTR [ecx]
  00061	ff 50 08	 call	 DWORD PTR [eax+8]

; 1541 : 
; 1542 : //	typedef	int (FnShowConfigureDlgRunMain)(LPCSTR szSTFile, LPCSTR szSTName);
; 1543 : 	typedef	int (FnShowConfigureDlgRunMainEx)(HWND hViewHandle, LPCSTR szSTFile, LPCSTR szSTName);
; 1544 : 	CString szDllName;

  00064	8d 4d f0	 lea	 ecx, DWORD PTR _szDllName$[ebp]
  00067	89 87 70 14 00
	00		 mov	 DWORD PTR [edi+5232], eax
  0006d	ff 15 00 00 00
	00		 call	 DWORD PTR __imp_??0?$CStringT@DV?$StrTraitMFC_DLL@DV?$ChTraitsCRT@D@ATL@@@@@ATL@@QAE@XZ

; 1545 : 	//@Solomon szDllName.Format("%s%s", m_strRootPath, "\\Chart\\STConfigureDlg.dll");	// DLL .
; 1546 : 	szDllName.Format("%s%s", m_strRootPath, "\\dev\\STConfigureDlg.dll");	// DLL .

  00073	68 00 00 00 00	 push	 OFFSET ??_C@_0BI@GAHPEGNH@?2dev?2STConfigureDlg?4dll@
  00078	ff b7 c0 0f 00
	00		 push	 DWORD PTR [edi+4032]
  0007e	8d 45 f0	 lea	 eax, DWORD PTR _szDllName$[ebp]
  00081	c6 45 fc 01	 mov	 BYTE PTR __$EHRec$[ebp+8], 1
  00085	68 00 00 00 00	 push	 OFFSET ??_C@_04HDOCAJNK@?$CFs?$CFs@
  0008a	50		 push	 eax
  0008b	ff 15 00 00 00
	00		 call	 DWORD PTR __imp_?Format@?$CStringT@DV?$StrTraitMFC_DLL@DV?$ChTraitsCRT@D@ATL@@@@@ATL@@QAAXPBDZZ
  00091	83 c4 10	 add	 esp, 16			; 00000010H

; 1547 : 	HINSTANCE hTradeInst = LoadLibrary(szDllName);

  00094	ff 75 f0	 push	 DWORD PTR _szDllName$[ebp]
  00097	ff 15 00 00 00
	00		 call	 DWORD PTR __imp__LoadLibraryA@4
  0009d	8b d8		 mov	 ebx, eax

; 1548 : 	if(hTradeInst == NULL) return;

  0009f	85 db		 test	 ebx, ebx
  000a1	74 61		 je	 SHORT $LN10@OnBnClicke

; 1549 : 
; 1550 : //	FnShowConfigureDlgRunMain* pFunc = (FnShowConfigureDlgRunMain*)GetProcAddress(hTradeInst,_T("fnShowConfigureDlgRunMain"));
; 1551 : 	FnShowConfigureDlgRunMainEx* pFunc = (FnShowConfigureDlgRunMainEx*)GetProcAddress(hTradeInst,_T("fnShowConfigureDlgRunMainEx"));

  000a3	68 00 00 00 00	 push	 OFFSET ??_C@_0BM@DBODABJK@fnShowConfigureDlgRunMainEx@
  000a8	53		 push	 ebx
  000a9	ff 15 00 00 00
	00		 call	 DWORD PTR __imp__GetProcAddress@8
  000af	8b f0		 mov	 esi, eax

; 1552 : 	if(pFunc == NULL) return ;

  000b1	85 f6		 test	 esi, esi
  000b3	74 4f		 je	 SHORT $LN10@OnBnClicke

; 1553 : 
; 1554 : 	//CString szSTPath = m_szUserDir + STDATA_ST_USERCOMBINE + "\\" + szTitle + ".ST";
; 1555 : 	//m_szSTFilePath;
; 1556 : 
; 1557 : 	//CString szUserPath = szSTPath;//m_szSTFilePath;
; 1558 : 	CString szUserPath = m_szSTFilePath;

  000b5	8d 8f cc 0f 00
	00		 lea	 ecx, DWORD PTR [edi+4044]
  000bb	51		 push	 ecx
  000bc	8d 4d e4	 lea	 ecx, DWORD PTR _szUserPath$[ebp]
  000bf	ff 15 00 00 00
	00		 call	 DWORD PTR __imp_??0?$CStringT@DV?$StrTraitMFC_DLL@DV?$ChTraitsCRT@D@ATL@@@@@ATL@@QAE@ABV01@@Z

; 1559 : 	CString szSTName = szTitle;

  000c5	8d 45 ec	 lea	 eax, DWORD PTR _szTitle$[ebp]
  000c8	c6 45 fc 02	 mov	 BYTE PTR __$EHRec$[ebp+8], 2
  000cc	50		 push	 eax
  000cd	8d 4d e8	 lea	 ecx, DWORD PTR _szSTName$[ebp]
  000d0	ff 15 00 00 00
	00		 call	 DWORD PTR __imp_??0?$CStringT@DV?$StrTraitMFC_DLL@DV?$ChTraitsCRT@D@ATL@@@@@ATL@@QAE@ABV01@@Z

; 1560 : 	int nRet = pFunc(m_hViewHandle, szUserPath, szSTName);

  000d6	ff 75 e8	 push	 DWORD PTR _szSTName$[ebp]
  000d9	c6 45 fc 03	 mov	 BYTE PTR __$EHRec$[ebp+8], 3
  000dd	ff 75 e4	 push	 DWORD PTR _szUserPath$[ebp]
  000e0	ff b7 70 14 00
	00		 push	 DWORD PTR [edi+5232]
  000e6	ff d6		 call	 esi
  000e8	83 c4 0c	 add	 esp, 12			; 0000000cH

; 1561 : 	FreeLibrary(hTradeInst);

  000eb	53		 push	 ebx
  000ec	ff 15 00 00 00
	00		 call	 DWORD PTR __imp__FreeLibrary@4

; 1562 : }

  000f2	8d 4d e8	 lea	 ecx, DWORD PTR _szSTName$[ebp]
  000f5	ff 15 00 00 00
	00		 call	 DWORD PTR __imp_??1?$CStringT@DV?$StrTraitMFC_DLL@DV?$ChTraitsCRT@D@ATL@@@@@ATL@@QAE@XZ
  000fb	8d 4d e4	 lea	 ecx, DWORD PTR _szUserPath$[ebp]
  000fe	ff 15 00 00 00
	00		 call	 DWORD PTR __imp_??1?$CStringT@DV?$StrTraitMFC_DLL@DV?$ChTraitsCRT@D@ATL@@@@@ATL@@QAE@XZ
$LN10@OnBnClicke:
  00104	8d 4d f0	 lea	 ecx, DWORD PTR _szDllName$[ebp]
  00107	ff 15 00 00 00
	00		 call	 DWORD PTR __imp_??1?$CStringT@DV?$StrTraitMFC_DLL@DV?$ChTraitsCRT@D@ATL@@@@@ATL@@QAE@XZ
  0010d	8d 4d ec	 lea	 ecx, DWORD PTR _szTitle$[ebp]
  00110	ff 15 00 00 00
	00		 call	 DWORD PTR __imp_??1?$CStringT@DV?$StrTraitMFC_DLL@DV?$ChTraitsCRT@D@ATL@@@@@ATL@@QAE@XZ
  00116	8b 4d f4	 mov	 ecx, DWORD PTR __$EHRec$[ebp]
  00119	64 89 0d 00 00
	00 00		 mov	 DWORD PTR fs:0, ecx
  00120	59		 pop	 ecx
  00121	5f		 pop	 edi
  00122	5e		 pop	 esi
  00123	5b		 pop	 ebx
  00124	8b e5		 mov	 esp, ebp
  00126	5d		 pop	 ebp
  00127	c3		 ret	 0
_TEXT	ENDS
;	COMDAT text$x
text$x	SEGMENT
__unwindfunclet$?OnBnClickedSTConfigDlg@CDlgStrategyList@@IAEXXZ$0:
  00000	8d 4d ec	 lea	 ecx, DWORD PTR _szTitle$[ebp]
  00003	ff 25 00 00 00
	00		 jmp	 DWORD PTR __imp_??1?$CStringT@DV?$StrTraitMFC_DLL@DV?$ChTraitsCRT@D@ATL@@@@@ATL@@QAE@XZ
__unwindfunclet$?OnBnClickedSTConfigDlg@CDlgStrategyList@@IAEXXZ$1:
  00009	8d 4d f0	 lea	 ecx, DWORD PTR _szDllName$[ebp]
  0000c	ff 25 00 00 00
	00		 jmp	 DWORD PTR __imp_??1?$CStringT@DV?$StrTraitMFC_DLL@DV?$ChTraitsCRT@D@ATL@@@@@ATL@@QAE@XZ
__unwindfunclet$?OnBnClickedSTConfigDlg@CDlgStrategyList@@IAEXXZ$2:
  00012	8d 4d e4	 lea	 ecx, DWORD PTR _szUserPath$[ebp]
  00015	ff 25 00 00 00
	00		 jmp	 DWORD PTR __imp_??1?$CStringT@DV?$StrTraitMFC_DLL@DV?$ChTraitsCRT@D@ATL@@@@@ATL@@QAE@XZ
__unwindfunclet$?OnBnClickedSTConfigDlg@CDlgStrategyList@@IAEXXZ$3:
  0001b	8d 4d e8	 lea	 ecx, DWORD PTR _szSTName$[ebp]
  0001e	ff 25 00 00 00
	00		 jmp	 DWORD PTR __imp_??1?$CStringT@DV?$StrTraitMFC_DLL@DV?$ChTraitsCRT@D@ATL@@@@@ATL@@QAE@XZ
  00024	cc		 int	 3
  00025	cc		 int	 3
  00026	cc		 int	 3
  00027	cc		 int	 3
  00028	cc		 int	 3
__ehhandler$?OnBnClickedSTConfigDlg@CDlgStrategyList@@IAEXXZ:
  00029	90		 npad	 1
  0002a	90		 npad	 1
  0002b	8b 54 24 08	 mov	 edx, DWORD PTR [esp+8]
  0002f	8d 42 0c	 lea	 eax, DWORD PTR [edx+12]
  00032	8b 4a e0	 mov	 ecx, DWORD PTR [edx-32]
  00035	33 c8		 xor	 ecx, eax
  00037	e8 00 00 00 00	 call	 @__security_check_cookie@4
  0003c	b8 00 00 00 00	 mov	 eax, OFFSET __ehfuncinfo$?OnBnClickedSTConfigDlg@CDlgStrategyList@@IAEXXZ
  00041	e9 00 00 00 00	 jmp	 ___CxxFrameHandler3
text$x	ENDS
?OnBnClickedSTConfigDlg@CDlgStrategyList@@IAEXXZ ENDP	; CDlgStrategyList::OnBnClickedSTConfigDlg
; Function compile flags: /Ogtp
; File D:\git\src\IBK\IBK_DRFN\ProjSrc\SrcDrfn\Chart\HWSTRATEGYCONFIGUREWIZARD\DlgStrategyList.cpp
; File C:\Program Files (x86)\Microsoft Visual Studio\2019\Community\VC\Tools\MSVC\14.29.30133\atlmfc\include\atlsimpstr.h
; File D:\git\src\IBK\IBK_DRFN\ProjSrc\SrcDrfn\Chart\HWSTRATEGYCONFIGUREWIZARD\DlgStrategyList.cpp
;	COMDAT ?OnBtnSTDelete@CDlgStrategyList@@IAEXXZ
_TEXT	SEGMENT
tv247 = -28						; size = 4
tv248 = -24						; size = 4
$T2 = -24						; size = 4
$T3 = -24						; size = 4
_szTitle$ = -20						; size = 4
_szSTPath$ = -16					; size = 4
__$EHRec$ = -12						; size = 12
?OnBtnSTDelete@CDlgStrategyList@@IAEXXZ PROC		; CDlgStrategyList::OnBtnSTDelete, COMDAT
; _this$ = ecx

; 1497 : {

  00000	55		 push	 ebp
  00001	8b ec		 mov	 ebp, esp
  00003	6a ff		 push	 -1
  00005	68 00 00 00 00	 push	 __ehhandler$?OnBtnSTDelete@CDlgStrategyList@@IAEXXZ
  0000a	64 a1 00 00 00
	00		 mov	 eax, DWORD PTR fs:0
  00010	50		 push	 eax
  00011	83 ec 10	 sub	 esp, 16			; 00000010H
  00014	53		 push	 ebx
  00015	56		 push	 esi
  00016	57		 push	 edi
  00017	a1 00 00 00 00	 mov	 eax, DWORD PTR ___security_cookie
  0001c	33 c5		 xor	 eax, ebp
  0001e	50		 push	 eax
  0001f	8d 45 f4	 lea	 eax, DWORD PTR __$EHRec$[ebp]
  00022	64 a3 00 00 00
	00		 mov	 DWORD PTR fs:0, eax
  00028	8b d9		 mov	 ebx, ecx

; 1498 : 	BOOL bUnit = m_szSTFilePath.Find("\\\\") >= 0	? TRUE : FALSE;

  0002a	6a 00		 push	 0
  0002c	8d bb cc 0f 00
	00		 lea	 edi, DWORD PTR [ebx+4044]
  00032	68 00 00 00 00	 push	 OFFSET ??_C@_0BB@FBICNCLM@?2?$LL?g?$LP?k?$MA?Z?$LE?$NM?$MA?$KH?$MA?$PM?$LH?$KL?2@
  00037	8b cf		 mov	 ecx, edi
  00039	ff 15 00 00 00
	00		 call	 DWORD PTR __imp_?Find@?$CStringT@DV?$StrTraitMFC_DLL@DV?$ChTraitsCRT@D@ATL@@@@@ATL@@QBEHPBDH@Z
  0003f	8b f0		 mov	 esi, eax

; 1499 : 	BOOL bComb = m_szSTFilePath.Find("\\\\") >= 0 ? TRUE : FALSE;

  00041	8b cf		 mov	 ecx, edi
  00043	33 c0		 xor	 eax, eax
  00045	85 f6		 test	 esi, esi
  00047	6a 00		 push	 0
  00049	0f 99 c0	 setns	 al
  0004c	68 00 00 00 00	 push	 OFFSET ??_C@_0BB@PJJNFPEB@?2?$LL?g?$LP?k?$MA?Z?A?$LG?G?U?$MA?$PM?$LH?$KL?2@
  00051	89 45 e8	 mov	 DWORD PTR tv248[ebp], eax
  00054	ff 15 00 00 00
	00		 call	 DWORD PTR __imp_?Find@?$CStringT@DV?$StrTraitMFC_DLL@DV?$ChTraitsCRT@D@ATL@@@@@ATL@@QBEHPBDH@Z
  0005a	33 c9		 xor	 ecx, ecx
  0005c	85 c0		 test	 eax, eax
  0005e	0f 99 c1	 setns	 cl
  00061	89 4d e4	 mov	 DWORD PTR tv247[ebp], ecx

; 1500 : 	BOOL bDeletable = bUnit || bComb;

  00064	85 f6		 test	 esi, esi
  00066	79 08		 jns	 SHORT $LN8@OnBtnSTDel
  00068	85 c9		 test	 ecx, ecx
  0006a	75 04		 jne	 SHORT $LN8@OnBtnSTDel
  0006c	33 f6		 xor	 esi, esi
  0006e	eb 05		 jmp	 SHORT $LN9@OnBtnSTDel
$LN8@OnBtnSTDel:
  00070	be 01 00 00 00	 mov	 esi, 1
$LN9@OnBtnSTDel:

; 1501 : 
; 1502 : 	CString szTitle;

  00075	8d 4d ec	 lea	 ecx, DWORD PTR _szTitle$[ebp]
  00078	ff 15 00 00 00
	00		 call	 DWORD PTR __imp_??0?$CStringT@DV?$StrTraitMFC_DLL@DV?$ChTraitsCRT@D@ATL@@@@@ATL@@QAE@XZ

; 1503 : 	m_editSTTitle.GetWindowText(szTitle);

  0007e	8d 45 ec	 lea	 eax, DWORD PTR _szTitle$[ebp]
  00081	c7 45 fc 00 00
	00 00		 mov	 DWORD PTR __$EHRec$[ebp+8], 0
  00088	50		 push	 eax
  00089	8d 8b a8 00 00
	00		 lea	 ecx, DWORD PTR [ebx+168]
  0008f	e8 00 00 00 00	 call	 ?GetWindowTextA@CWnd@@QBEXAAV?$CStringT@DV?$StrTraitMFC_DLL@DV?$ChTraitsCRT@D@ATL@@@@@ATL@@@Z ; CWnd::GetWindowTextA

; 1504 : 
; 1505 : 	//  /  Path 
; 1506 : 	CString szSTPath(m_szSTFilePath);

  00094	57		 push	 edi
  00095	8d 4d f0	 lea	 ecx, DWORD PTR _szSTPath$[ebp]
  00098	ff 15 00 00 00
	00		 call	 DWORD PTR __imp_??0?$CStringT@DV?$StrTraitMFC_DLL@DV?$ChTraitsCRT@D@ATL@@@@@ATL@@QAE@ABV01@@Z
  0009e	c6 45 fc 01	 mov	 BYTE PTR __$EHRec$[ebp+8], 1

; 1507 : 	if(bDeletable && !szSTPath.IsEmpty()) 

  000a2	85 f6		 test	 esi, esi
  000a4	0f 84 db 00 00
	00		 je	 $LN6@OnBtnSTDel
; File C:\Program Files (x86)\Microsoft Visual Studio\2019\Community\VC\Tools\MSVC\14.29.30133\atlmfc\include\atlsimpstr.h

; 519  : 		return( GetData()->nDataLength );

  000aa	8b 45 f0	 mov	 eax, DWORD PTR _szSTPath$[ebp]

; 533  : 		return( GetLength() == 0 );

  000ad	83 78 f4 00	 cmp	 DWORD PTR [eax-12], 0
; File D:\git\src\IBK\IBK_DRFN\ProjSrc\SrcDrfn\Chart\HWSTRATEGYCONFIGUREWIZARD\DlgStrategyList.cpp

; 1507 : 	if(bDeletable && !szSTPath.IsEmpty()) 

  000b1	0f 84 ce 00 00
	00		 je	 $LN6@OnBtnSTDel

; 1508 : 	{
; 1509 : 		if(AfxMessageBox(" ?", MB_YESNO)==IDNO)

  000b7	6a 00		 push	 0
  000b9	6a 04		 push	 4
  000bb	68 00 00 00 00	 push	 OFFSET ??_C@_0BJ@GJNCLGJM@?$MA?$PM?$LH?$KL?$MA?$LL?5?$LL?h?A?$KG?G?O?$LN?C?$LA?Z?$LN?$MA?$LE?O?$LB?n?$DP@
  000c0	e8 00 00 00 00	 call	 ?AfxMessageBox@@YGHPBDII@Z ; AfxMessageBox
  000c5	83 f8 07	 cmp	 eax, 7
  000c8	0f 84 b7 00 00
	00		 je	 $LN6@OnBtnSTDel

; 1510 : 			return;
; 1511 : 
; 1512 : 		m_szSTFilePath.Empty();

  000ce	8b cf		 mov	 ecx, edi
  000d0	ff 15 00 00 00
	00		 call	 DWORD PTR __imp_?Empty@?$CSimpleStringT@D$00@ATL@@QAEXXZ

; 1513 : 		::DeleteFile(szSTPath);

  000d6	ff 75 f0	 push	 DWORD PTR _szSTPath$[ebp]
  000d9	ff 15 00 00 00
	00		 call	 DWORD PTR __imp__DeleteFileA@4

; 1514 : 		OnBtnInit();

  000df	8b cb		 mov	 ecx, ebx
  000e1	e8 00 00 00 00	 call	 ?OnBtnInit@CDlgStrategyList@@IAEXXZ ; CDlgStrategyList::OnBtnInit

; 1515 : 
; 1516 : 		if(bUnit)

  000e6	83 7d e8 00	 cmp	 DWORD PTR tv248[ebp], 0
  000ea	0f 84 83 00 00
	00		 je	 $LN4@OnBtnSTDel

; 1517 : 		{
; 1518 : 			szTitle = szSTPath;

  000f0	8d 45 f0	 lea	 eax, DWORD PTR _szSTPath$[ebp]
  000f3	50		 push	 eax
  000f4	8d 4d ec	 lea	 ecx, DWORD PTR _szTitle$[ebp]
  000f7	ff 15 00 00 00
	00		 call	 DWORD PTR __imp_??4?$CStringT@DV?$StrTraitMFC_DLL@DV?$ChTraitsCRT@D@ATL@@@@@ATL@@QAEAAV01@ABV01@@Z

; 1519 : 			int nPosExt = szSTPath.ReverseFind('.');

  000fd	6a 2e		 push	 46			; 0000002eH
  000ff	8d 4d f0	 lea	 ecx, DWORD PTR _szSTPath$[ebp]
  00102	ff 15 00 00 00
	00		 call	 DWORD PTR __imp_?ReverseFind@?$CStringT@DV?$StrTraitMFC_DLL@DV?$ChTraitsCRT@D@ATL@@@@@ATL@@QBEHD@Z

; 1520 : 			int nPosFileTitle = szSTPath.ReverseFind(('\\'));

  00108	6a 5c		 push	 92			; 0000005cH
  0010a	8d 4d f0	 lea	 ecx, DWORD PTR _szSTPath$[ebp]
  0010d	8b f0		 mov	 esi, eax
  0010f	ff 15 00 00 00
	00		 call	 DWORD PTR __imp_?ReverseFind@?$CStringT@DV?$StrTraitMFC_DLL@DV?$ChTraitsCRT@D@ATL@@@@@ATL@@QBEHD@Z
  00115	8b f8		 mov	 edi, eax

; 1521 : 			szSTPath = szSTPath.Left(nPosExt);

  00117	8d 4d f0	 lea	 ecx, DWORD PTR _szSTPath$[ebp]
  0011a	56		 push	 esi
  0011b	8d 45 e8	 lea	 eax, DWORD PTR $T3[ebp]
  0011e	50		 push	 eax
  0011f	ff 15 00 00 00
	00		 call	 DWORD PTR __imp_?Left@?$CStringT@DV?$StrTraitMFC_DLL@DV?$ChTraitsCRT@D@ATL@@@@@ATL@@QBE?AV12@H@Z
  00125	50		 push	 eax
  00126	8d 4d f0	 lea	 ecx, DWORD PTR _szSTPath$[ebp]
  00129	c6 45 fc 02	 mov	 BYTE PTR __$EHRec$[ebp+8], 2
  0012d	ff 15 00 00 00
	00		 call	 DWORD PTR __imp_??4?$CStringT@DV?$StrTraitMFC_DLL@DV?$ChTraitsCRT@D@ATL@@@@@ATL@@QAEAAV01@ABV01@@Z
  00133	8d 4d e8	 lea	 ecx, DWORD PTR $T3[ebp]
  00136	c6 45 fc 01	 mov	 BYTE PTR __$EHRec$[ebp+8], 1
  0013a	ff 15 00 00 00
	00		 call	 DWORD PTR __imp_??1?$CStringT@DV?$StrTraitMFC_DLL@DV?$ChTraitsCRT@D@ATL@@@@@ATL@@QAE@XZ

; 1522 : 			szTitle = szSTPath.Mid(nPosFileTitle+1);

  00140	8d 47 01	 lea	 eax, DWORD PTR [edi+1]
  00143	50		 push	 eax
  00144	8d 45 e8	 lea	 eax, DWORD PTR $T2[ebp]
  00147	50		 push	 eax
  00148	8d 4d f0	 lea	 ecx, DWORD PTR _szSTPath$[ebp]
  0014b	ff 15 00 00 00
	00		 call	 DWORD PTR __imp_?Mid@?$CStringT@DV?$StrTraitMFC_DLL@DV?$ChTraitsCRT@D@ATL@@@@@ATL@@QBE?AV12@H@Z
  00151	50		 push	 eax
  00152	8d 4d ec	 lea	 ecx, DWORD PTR _szTitle$[ebp]
  00155	c6 45 fc 03	 mov	 BYTE PTR __$EHRec$[ebp+8], 3
  00159	ff 15 00 00 00
	00		 call	 DWORD PTR __imp_??4?$CStringT@DV?$StrTraitMFC_DLL@DV?$ChTraitsCRT@D@ATL@@@@@ATL@@QAEAAV01@ABV01@@Z
  0015f	8d 4d e8	 lea	 ecx, DWORD PTR $T2[ebp]
  00162	c6 45 fc 01	 mov	 BYTE PTR __$EHRec$[ebp+8], 1
  00166	ff 15 00 00 00
	00		 call	 DWORD PTR __imp_??1?$CStringT@DV?$StrTraitMFC_DLL@DV?$ChTraitsCRT@D@ATL@@@@@ATL@@QAE@XZ

; 1523 : 			
; 1524 : 			//((CDlgStrategyConfigure*)GetParent())->UpdateSTList(Ext_STChange_SDDelete, szTitle);
; 1525 : 			NotifySTChangeState(Ext_STChange_SDDelete, szTitle);

  0016c	ff 75 ec	 push	 DWORD PTR _szTitle$[ebp]
  0016f	6a 20		 push	 32			; 00000020H

; 1526 : 		}

  00171	eb 0b		 jmp	 SHORT $LN28@OnBtnSTDel
$LN4@OnBtnSTDel:

; 1527 : 		else if(bComb)

  00173	83 7d e4 00	 cmp	 DWORD PTR tv247[ebp], 0
  00177	74 0c		 je	 SHORT $LN6@OnBtnSTDel

; 1528 : 		{
; 1529 : 			//((CDlgStrategyConfigure*)GetParent())->UpdateSTList(Ext_STChange_Delete, szTitle);
; 1530 : 			NotifySTChangeState(Ext_STChange_Delete, szTitle);

  00179	ff 75 ec	 push	 DWORD PTR _szTitle$[ebp]
  0017c	6a 40		 push	 64			; 00000040H
$LN28@OnBtnSTDel:

; 1531 : 		}
; 1532 : 	}
; 1533 : }

  0017e	8b cb		 mov	 ecx, ebx
  00180	e8 00 00 00 00	 call	 ?NotifySTChangeState@CDlgStrategyList@@QAEXHPBD@Z ; CDlgStrategyList::NotifySTChangeState
$LN6@OnBtnSTDel:
  00185	8d 4d f0	 lea	 ecx, DWORD PTR _szSTPath$[ebp]
  00188	ff 15 00 00 00
	00		 call	 DWORD PTR __imp_??1?$CStringT@DV?$StrTraitMFC_DLL@DV?$ChTraitsCRT@D@ATL@@@@@ATL@@QAE@XZ
  0018e	8d 4d ec	 lea	 ecx, DWORD PTR _szTitle$[ebp]
  00191	ff 15 00 00 00
	00		 call	 DWORD PTR __imp_??1?$CStringT@DV?$StrTraitMFC_DLL@DV?$ChTraitsCRT@D@ATL@@@@@ATL@@QAE@XZ
  00197	8b 4d f4	 mov	 ecx, DWORD PTR __$EHRec$[ebp]
  0019a	64 89 0d 00 00
	00 00		 mov	 DWORD PTR fs:0, ecx
  001a1	59		 pop	 ecx
  001a2	5f		 pop	 edi
  001a3	5e		 pop	 esi
  001a4	5b		 pop	 ebx
  001a5	8b e5		 mov	 esp, ebp
  001a7	5d		 pop	 ebp
  001a8	c3		 ret	 0
_TEXT	ENDS
;	COMDAT text$x
text$x	SEGMENT
__unwindfunclet$?OnBtnSTDelete@CDlgStrategyList@@IAEXXZ$0:
  00000	8d 4d ec	 lea	 ecx, DWORD PTR _szTitle$[ebp]
  00003	ff 25 00 00 00
	00		 jmp	 DWORD PTR __imp_??1?$CStringT@DV?$StrTraitMFC_DLL@DV?$ChTraitsCRT@D@ATL@@@@@ATL@@QAE@XZ
__unwindfunclet$?OnBtnSTDelete@CDlgStrategyList@@IAEXXZ$1:
  00009	8d 4d f0	 lea	 ecx, DWORD PTR _szSTPath$[ebp]
  0000c	ff 25 00 00 00
	00		 jmp	 DWORD PTR __imp_??1?$CStringT@DV?$StrTraitMFC_DLL@DV?$ChTraitsCRT@D@ATL@@@@@ATL@@QAE@XZ
__unwindfunclet$?OnBtnSTDelete@CDlgStrategyList@@IAEXXZ$2:
  00012	8d 4d e8	 lea	 ecx, DWORD PTR $T3[ebp]
  00015	ff 25 00 00 00
	00		 jmp	 DWORD PTR __imp_??1?$CStringT@DV?$StrTraitMFC_DLL@DV?$ChTraitsCRT@D@ATL@@@@@ATL@@QAE@XZ
__unwindfunclet$?OnBtnSTDelete@CDlgStrategyList@@IAEXXZ$3:
  0001b	8d 4d e8	 lea	 ecx, DWORD PTR $T2[ebp]
  0001e	ff 25 00 00 00
	00		 jmp	 DWORD PTR __imp_??1?$CStringT@DV?$StrTraitMFC_DLL@DV?$ChTraitsCRT@D@ATL@@@@@ATL@@QAE@XZ
  00024	cc		 int	 3
  00025	cc		 int	 3
  00026	cc		 int	 3
  00027	cc		 int	 3
  00028	cc		 int	 3
__ehhandler$?OnBtnSTDelete@CDlgStrategyList@@IAEXXZ:
  00029	90		 npad	 1
  0002a	90		 npad	 1
  0002b	8b 54 24 08	 mov	 edx, DWORD PTR [esp+8]
  0002f	8d 42 0c	 lea	 eax, DWORD PTR [edx+12]
  00032	8b 4a e0	 mov	 ecx, DWORD PTR [edx-32]
  00035	33 c8		 xor	 ecx, eax
  00037	e8 00 00 00 00	 call	 @__security_check_cookie@4
  0003c	b8 00 00 00 00	 mov	 eax, OFFSET __ehfuncinfo$?OnBtnSTDelete@CDlgStrategyList@@IAEXXZ
  00041	e9 00 00 00 00	 jmp	 ___CxxFrameHandler3
text$x	ENDS
?OnBtnSTDelete@CDlgStrategyList@@IAEXXZ ENDP		; CDlgStrategyList::OnBtnSTDelete
; Function compile flags: /Ogtp
; File D:\git\src\IBK\IBK_DRFN\ProjSrc\SrcDrfn\Chart\HWSTRATEGYCONFIGUREWIZARD\DlgStrategyList.cpp
; File C:\Program Files (x86)\Microsoft Visual Studio\2019\Community\VC\Tools\MSVC\14.29.30133\atlmfc\include\afxwin1.inl
; File D:\git\src\IBK\IBK_DRFN\ProjSrc\SrcDrfn\Chart\HWSTRATEGYCONFIGUREWIZARD\DlgStrategyList.cpp
; File C:\Program Files (x86)\Microsoft Visual Studio\2019\Community\VC\Tools\MSVC\14.29.30133\atlmfc\include\afxwin1.inl
; File D:\git\src\IBK\IBK_DRFN\ProjSrc\SrcDrfn\Chart\HWSTRATEGYCONFIGUREWIZARD\DlgStrategyList.cpp
;	COMDAT ?OnCtlColor@CDlgStrategyList@@IAEPAUHBRUSH__@@PAVCDC@@PAVCWnd@@I@Z
_TEXT	SEGMENT
_pDC$ = 8						; size = 4
_pWnd$ = 12						; size = 4
_nCtlColor$ = 16					; size = 4
?OnCtlColor@CDlgStrategyList@@IAEPAUHBRUSH__@@PAVCDC@@PAVCWnd@@I@Z PROC ; CDlgStrategyList::OnCtlColor, COMDAT
; _this$ = ecx

; 1446 : {

  00000	55		 push	 ebp
  00001	8b ec		 mov	 ebp, esp
  00003	53		 push	 ebx

; 1447 : 	HBRUSH hbr = CDialog::OnCtlColor(pDC, pWnd, nCtlColor);

  00004	8b 5d 08	 mov	 ebx, DWORD PTR _pDC$[ebp]
  00007	56		 push	 esi
  00008	8b 75 10	 mov	 esi, DWORD PTR _nCtlColor$[ebp]
  0000b	57		 push	 edi
  0000c	56		 push	 esi
  0000d	ff 75 0c	 push	 DWORD PTR _pWnd$[ebp]
  00010	8b f9		 mov	 edi, ecx
  00012	53		 push	 ebx
  00013	e8 00 00 00 00	 call	 ?OnCtlColor@CWnd@@IAEPAUHBRUSH__@@PAVCDC@@PAV1@I@Z ; CWnd::OnCtlColor

; 1448 : 	
; 1449 : 	switch(nCtlColor) 

  00018	83 ee 01	 sub	 esi, 1
  0001b	74 26		 je	 SHORT $LN1@OnCtlColor
  0001d	83 ee 01	 sub	 esi, 1
  00020	74 21		 je	 SHORT $LN1@OnCtlColor

; 1450 : 	{
; 1451 : 	case CTLCOLOR_EDIT:
; 1452 : 	case CTLCOLOR_LISTBOX:
; 1453 : 		return hbr;
; 1454 : 	default:
; 1455 : 		pDC->SetBkColor(m_crBk);

  00022	8b 03		 mov	 eax, DWORD PTR [ebx]
  00024	8b cb		 mov	 ecx, ebx
  00026	ff b7 fc 16 00
	00		 push	 DWORD PTR [edi+5884]
  0002c	ff 50 34	 call	 DWORD PTR [eax+52]

; 1456 : 		return m_brBkColor;		

  0002f	8d 87 00 17 00
	00		 lea	 eax, DWORD PTR [edi+5888]
; File C:\Program Files (x86)\Microsoft Visual Studio\2019\Community\VC\Tools\MSVC\14.29.30133\atlmfc\include\afxwin1.inl

; 124  : 	{ return (HBRUSH)(this == NULL ? NULL : m_hObject); }

  00035	85 c0		 test	 eax, eax
  00037	75 07		 jne	 SHORT $LN10@OnCtlColor
; File D:\git\src\IBK\IBK_DRFN\ProjSrc\SrcDrfn\Chart\HWSTRATEGYCONFIGUREWIZARD\DlgStrategyList.cpp

; 1460 : }

  00039	5f		 pop	 edi
  0003a	5e		 pop	 esi
  0003b	5b		 pop	 ebx
  0003c	5d		 pop	 ebp
  0003d	c2 0c 00	 ret	 12			; 0000000cH
$LN10@OnCtlColor:
; File C:\Program Files (x86)\Microsoft Visual Studio\2019\Community\VC\Tools\MSVC\14.29.30133\atlmfc\include\afxwin1.inl

; 124  : 	{ return (HBRUSH)(this == NULL ? NULL : m_hObject); }

  00040	8b 40 04	 mov	 eax, DWORD PTR [eax+4]
$LN1@OnCtlColor:
  00043	5f		 pop	 edi
; File D:\git\src\IBK\IBK_DRFN\ProjSrc\SrcDrfn\Chart\HWSTRATEGYCONFIGUREWIZARD\DlgStrategyList.cpp

; 1460 : }

  00044	5e		 pop	 esi
  00045	5b		 pop	 ebx
  00046	5d		 pop	 ebp
  00047	c2 0c 00	 ret	 12			; 0000000cH
?OnCtlColor@CDlgStrategyList@@IAEPAUHBRUSH__@@PAVCDC@@PAVCWnd@@I@Z ENDP ; CDlgStrategyList::OnCtlColor
_TEXT	ENDS
; Function compile flags: /Ogtp
; File D:\git\src\IBK\IBK_DRFN\ProjSrc\SrcDrfn\Chart\HWSTRATEGYCONFIGUREWIZARD\DlgStrategyList.cpp
;	COMDAT ?OnBtnEdit@CDlgStrategyList@@IAEXXZ
_TEXT	SEGMENT
_cellRange$ = -16					; size = 16
?OnBtnEdit@CDlgStrategyList@@IAEXXZ PROC		; CDlgStrategyList::OnBtnEdit, COMDAT
; _this$ = ecx

; 1440 : {

  00000	55		 push	 ebp
  00001	8b ec		 mov	 ebp, esp
  00003	83 ec 10	 sub	 esp, 16			; 00000010H
  00006	56		 push	 esi
  00007	8b f1		 mov	 esi, ecx

; 1441 : 	CCellRange cellRange = m_GridSTList.GetSelectedCellRange();

  00009	8d 45 f0	 lea	 eax, DWORD PTR _cellRange$[ebp]
  0000c	50		 push	 eax
  0000d	8d 8e d8 0f 00
	00		 lea	 ecx, DWORD PTR [esi+4056]
  00013	e8 00 00 00 00	 call	 ?GetSelectedCellRange@CGridCtrl@@QBE?AVCCellRange@@XZ ; CGridCtrl::GetSelectedCellRange

; 1442 : 	OnClickGridSTList(cellRange.GetMaxRow(),COL_EDIT);	

  00018	6a 03		 push	 3
  0001a	ff 75 f8	 push	 DWORD PTR _cellRange$[ebp+8]
  0001d	8b ce		 mov	 ecx, esi
  0001f	e8 00 00 00 00	 call	 ?OnClickGridSTList@CDlgStrategyList@@QAEXHH@Z ; CDlgStrategyList::OnClickGridSTList
  00024	5e		 pop	 esi

; 1443 : }

  00025	8b e5		 mov	 esp, ebp
  00027	5d		 pop	 ebp
  00028	c3		 ret	 0
?OnBtnEdit@CDlgStrategyList@@IAEXXZ ENDP		; CDlgStrategyList::OnBtnEdit
_TEXT	ENDS
; Function compile flags: /Ogtp
; File D:\git\src\IBK\IBK_DRFN\ProjSrc\SrcDrfn\Chart\HWSTRATEGYCONFIGUREWIZARD\DlgStrategyList.cpp
;	COMDAT ?OnBtnDelete@CDlgStrategyList@@IAEXXZ
_TEXT	SEGMENT
_cellRange$ = -16					; size = 16
?OnBtnDelete@CDlgStrategyList@@IAEXXZ PROC		; CDlgStrategyList::OnBtnDelete, COMDAT
; _this$ = ecx

; 1430 : {

  00000	55		 push	 ebp
  00001	8b ec		 mov	 ebp, esp
  00003	83 ec 10	 sub	 esp, 16			; 00000010H
  00006	56		 push	 esi
  00007	8b f1		 mov	 esi, ecx

; 1431 : 	m_nFlagCnt = 0;
; 1432 : 	CCellRange cellRange = m_GridSTList.GetSelectedCellRange();

  00009	8d 45 f0	 lea	 eax, DWORD PTR _cellRange$[ebp]
  0000c	50		 push	 eax
  0000d	8d 8e d8 0f 00
	00		 lea	 ecx, DWORD PTR [esi+4056]
  00013	c7 86 6c 14 00
	00 00 00 00 00	 mov	 DWORD PTR [esi+5228], 0
  0001d	e8 00 00 00 00	 call	 ?GetSelectedCellRange@CGridCtrl@@QBE?AVCCellRange@@XZ ; CGridCtrl::GetSelectedCellRange

; 1433 : 	OnClickGridSTList(cellRange.GetMaxRow(),COL_DELETE);

  00022	6a 04		 push	 4
  00024	ff 75 f8	 push	 DWORD PTR _cellRange$[ebp+8]
  00027	8b ce		 mov	 ecx, esi
  00029	e8 00 00 00 00	 call	 ?OnClickGridSTList@CDlgStrategyList@@QAEXHH@Z ; CDlgStrategyList::OnClickGridSTList

; 1434 : 
; 1435 : 	GetDlgItem(IDC_BTN_STCONFIGDLG)->EnableWindow(FALSE);

  0002e	6a 00		 push	 0
  00030	68 f5 03 00 00	 push	 1013			; 000003f5H
  00035	8b ce		 mov	 ecx, esi
  00037	e8 00 00 00 00	 call	 ?GetDlgItem@CWnd@@QBEPAV1@H@Z ; CWnd::GetDlgItem
  0003c	8b c8		 mov	 ecx, eax
  0003e	e8 00 00 00 00	 call	 ?EnableWindow@CWnd@@QAEHH@Z ; CWnd::EnableWindow

; 1436 : 	GetDlgItem(IDC_BTN_STRUN)->EnableWindow(FALSE);

  00043	6a 00		 push	 0
  00045	68 f6 03 00 00	 push	 1014			; 000003f6H
  0004a	8b ce		 mov	 ecx, esi
  0004c	e8 00 00 00 00	 call	 ?GetDlgItem@CWnd@@QBEPAV1@H@Z ; CWnd::GetDlgItem
  00051	8b c8		 mov	 ecx, eax
  00053	e8 00 00 00 00	 call	 ?EnableWindow@CWnd@@QAEHH@Z ; CWnd::EnableWindow
  00058	5e		 pop	 esi

; 1437 : }

  00059	8b e5		 mov	 esp, ebp
  0005b	5d		 pop	 ebp
  0005c	c3		 ret	 0
?OnBtnDelete@CDlgStrategyList@@IAEXXZ ENDP		; CDlgStrategyList::OnBtnDelete
_TEXT	ENDS
; Function compile flags: /Ogtp
; File D:\git\src\IBK\IBK_DRFN\ProjSrc\SrcDrfn\Chart\HWSTRATEGYCONFIGUREWIZARD\DlgStrategyList.cpp
; File C:\Program Files (x86)\Microsoft Visual Studio\2019\Community\VC\Tools\MSVC\14.29.30133\atlmfc\include\atlsimpstr.h
; File D:\git\src\IBK\IBK_DRFN\ProjSrc\SrcDrfn\Chart\HWSTRATEGYCONFIGUREWIZARD\DlgStrategyList.cpp
; File C:\Program Files (x86)\Microsoft Visual Studio\2019\Community\VC\Tools\MSVC\14.29.30133\atlmfc\include\atlsimpstr.h
; File D:\git\src\IBK\IBK_DRFN\ProjSrc\SrcDrfn\Chart\HWSTRATEGYCONFIGUREWIZARD\DlgStrategyList.cpp
; File C:\Program Files (x86)\Microsoft Visual Studio\2019\Community\VC\Tools\MSVC\14.29.30133\atlmfc\include\atlsimpstr.h
; File D:\git\src\IBK\IBK_DRFN\ProjSrc\SrcDrfn\Chart\HWSTRATEGYCONFIGUREWIZARD\DlgStrategyList.cpp
;	COMDAT ?OnBtSave@CDlgStrategyList@@IAEXXZ
_TEXT	SEGMENT
_fileFind$2 = -64					; size = 28
_szRunImsiFile$ = -36					; size = 4
tv353 = -32						; size = 4
_szSelSTPath$ = -28					; size = 4
_nRet$1$ = -24						; size = 4
_szSTFilePath$ = -20					; size = 4
_strText$ = -16						; size = 4
__$EHRec$ = -12						; size = 12
?OnBtSave@CDlgStrategyList@@IAEXXZ PROC			; CDlgStrategyList::OnBtSave, COMDAT
; _this$ = ecx

; 1317 : {

  00000	55		 push	 ebp
  00001	8b ec		 mov	 ebp, esp
  00003	6a ff		 push	 -1
  00005	68 00 00 00 00	 push	 __ehhandler$?OnBtSave@CDlgStrategyList@@IAEXXZ
  0000a	64 a1 00 00 00
	00		 mov	 eax, DWORD PTR fs:0
  00010	50		 push	 eax
  00011	83 ec 34	 sub	 esp, 52			; 00000034H
  00014	53		 push	 ebx
  00015	56		 push	 esi
  00016	57		 push	 edi
  00017	a1 00 00 00 00	 mov	 eax, DWORD PTR ___security_cookie
  0001c	33 c5		 xor	 eax, ebp
  0001e	50		 push	 eax
  0001f	8d 45 f4	 lea	 eax, DWORD PTR __$EHRec$[ebp]
  00022	64 a3 00 00 00
	00		 mov	 DWORD PTR fs:0, eax
  00028	8b d9		 mov	 ebx, ecx

; 1318 : 	CString strText;

  0002a	8d 4d f0	 lea	 ecx, DWORD PTR _strText$[ebp]
  0002d	ff 15 00 00 00
	00		 call	 DWORD PTR __imp_??0?$CStringT@DV?$StrTraitMFC_DLL@DV?$ChTraitsCRT@D@ATL@@@@@ATL@@QAE@XZ

; 1319 : 	CString szSTFilePath;

  00033	8d 4d ec	 lea	 ecx, DWORD PTR _szSTFilePath$[ebp]
  00036	c7 45 fc 00 00
	00 00		 mov	 DWORD PTR __$EHRec$[ebp+8], 0
  0003d	ff 15 00 00 00
	00		 call	 DWORD PTR __imp_??0?$CStringT@DV?$StrTraitMFC_DLL@DV?$ChTraitsCRT@D@ATL@@@@@ATL@@QAE@XZ

; 1320 : 	CString szSelSTPath;

  00043	8d 4d e4	 lea	 ecx, DWORD PTR _szSelSTPath$[ebp]
  00046	ff 15 00 00 00
	00		 call	 DWORD PTR __imp_??0?$CStringT@DV?$StrTraitMFC_DLL@DV?$ChTraitsCRT@D@ATL@@@@@ATL@@QAE@XZ

; 1321 : 	CString	szRunImsiFile;

  0004c	8d 4d dc	 lea	 ecx, DWORD PTR _szRunImsiFile$[ebp]
  0004f	ff 15 00 00 00
	00		 call	 DWORD PTR __imp_??0?$CStringT@DV?$StrTraitMFC_DLL@DV?$ChTraitsCRT@D@ATL@@@@@ATL@@QAE@XZ

; 1322 : 
; 1323 : 	m_editSTTitle.GetWindowText(strText);

  00055	8d 45 f0	 lea	 eax, DWORD PTR _strText$[ebp]
  00058	c6 45 fc 03	 mov	 BYTE PTR __$EHRec$[ebp+8], 3
  0005c	50		 push	 eax
  0005d	8d 8b a8 00 00
	00		 lea	 ecx, DWORD PTR [ebx+168]
  00063	e8 00 00 00 00	 call	 ?GetWindowTextA@CWnd@@QBEXAAV?$CStringT@DV?$StrTraitMFC_DLL@DV?$ChTraitsCRT@D@ATL@@@@@ATL@@@Z ; CWnd::GetWindowTextA
; File C:\Program Files (x86)\Microsoft Visual Studio\2019\Community\VC\Tools\MSVC\14.29.30133\atlmfc\include\atlsimpstr.h

; 519  : 		return( GetData()->nDataLength );

  00068	8b 45 f0	 mov	 eax, DWORD PTR _strText$[ebp]
; File D:\git\src\IBK\IBK_DRFN\ProjSrc\SrcDrfn\Chart\HWSTRATEGYCONFIGUREWIZARD\DlgStrategyList.cpp

; 1324 : 	if(strText.IsEmpty()) {

  0006b	6a 00		 push	 0
; File C:\Program Files (x86)\Microsoft Visual Studio\2019\Community\VC\Tools\MSVC\14.29.30133\atlmfc\include\atlsimpstr.h

; 533  : 		return( GetLength() == 0 );

  0006d	83 78 f4 00	 cmp	 DWORD PTR [eax-12], 0
; File D:\git\src\IBK\IBK_DRFN\ProjSrc\SrcDrfn\Chart\HWSTRATEGYCONFIGUREWIZARD\DlgStrategyList.cpp

; 1324 : 	if(strText.IsEmpty()) {

  00071	75 0c		 jne	 SHORT $LN2@OnBtSave

; 1325 : 		AfxMessageBox("  . ");

  00073	6a 00		 push	 0
  00075	68 00 00 00 00	 push	 OFFSET ??_C@_0CJ@BJKBFEL@?$LM?$LB?E?C?$LF?H?5?$MA?$PM?$LH?$KL?$MA?L?$LI?$KH?$MA?L?5?$LO?x?$LN?$MA?$LE?O?$LE?Y?4?5?H?$KO?$MA@
  0007a	e9 aa 01 00 00	 jmp	 $LN45@OnBtSave
$LN2@OnBtSave:

; 1326 : 		return;
; 1327 : 	}
; 1328 : 
; 1329 : 	//@Solomon	if(strText.Find("@")>=0)
; 1330 : 	if(strText.Find("^")>=0 || strText.Find("@")>=0)

  0007f	68 00 00 00 00	 push	 OFFSET ??_C@_01JKBOJNNK@?$FO@
  00084	8d 4d f0	 lea	 ecx, DWORD PTR _strText$[ebp]
  00087	ff 15 00 00 00
	00		 call	 DWORD PTR __imp_?Find@?$CStringT@DV?$StrTraitMFC_DLL@DV?$ChTraitsCRT@D@ATL@@@@@ATL@@QBEHPBDH@Z
  0008d	85 c0		 test	 eax, eax
  0008f	0f 89 8b 01 00
	00		 jns	 $LN4@OnBtSave
  00095	6a 00		 push	 0
  00097	68 00 00 00 00	 push	 OFFSET ??_C@_01EOFPKCAF@?$EA@
  0009c	8d 4d f0	 lea	 ecx, DWORD PTR _strText$[ebp]
  0009f	ff 15 00 00 00
	00		 call	 DWORD PTR __imp_?Find@?$CStringT@DV?$StrTraitMFC_DLL@DV?$ChTraitsCRT@D@ATL@@@@@ATL@@QBEHPBDH@Z
  000a5	85 c0		 test	 eax, eax
  000a7	0f 89 73 01 00
	00		 jns	 $LN4@OnBtSave

; 1334 : 		return;
; 1335 : 	}
; 1336 : 
; 1337 : 	szSelSTPath.Format("%s%s", m_szUserDir, STDATA_ST_USERCOMBINE);

  000ad	8b 35 00 00 00
	00		 mov	 esi, DWORD PTR __imp_?Format@?$CStringT@DV?$StrTraitMFC_DLL@DV?$ChTraitsCRT@D@ATL@@@@@ATL@@QAAXPBDZZ
  000b3	8d 45 e4	 lea	 eax, DWORD PTR _szSelSTPath$[ebp]
  000b6	68 00 00 00 00	 push	 OFFSET ??_C@_0BK@COPOICEF@?2STDATA?2ST?2?$LL?g?$LP?k?$MA?Z?A?$LG?G?U?$MA?$PM?$LH?$KL@
  000bb	ff b3 c8 0f 00
	00		 push	 DWORD PTR [ebx+4040]
  000c1	68 00 00 00 00	 push	 OFFSET ??_C@_04HDOCAJNK@?$CFs?$CFs@
  000c6	50		 push	 eax
  000c7	ff d6		 call	 esi

; 1338 : 	szSTFilePath.Format("%s%s\\%s%s", m_szUserDir, STDATA_ST_USERCOMBINE, strText, ".ST");

  000c9	68 00 00 00 00	 push	 OFFSET ??_C@_03COHLPAFH@?4ST@
  000ce	ff 75 f0	 push	 DWORD PTR _strText$[ebp]
  000d1	8d 45 ec	 lea	 eax, DWORD PTR _szSTFilePath$[ebp]
  000d4	68 00 00 00 00	 push	 OFFSET ??_C@_0BK@COPOICEF@?2STDATA?2ST?2?$LL?g?$LP?k?$MA?Z?A?$LG?G?U?$MA?$PM?$LH?$KL@
  000d9	ff b3 c8 0f 00
	00		 push	 DWORD PTR [ebx+4040]
  000df	68 00 00 00 00	 push	 OFFSET ??_C@_09CBEKMPDN@?$CFs?$CFs?2?$CFs?$CFs@
  000e4	50		 push	 eax
  000e5	ff d6		 call	 esi
; File C:\Program Files (x86)\Microsoft Visual Studio\2019\Community\VC\Tools\MSVC\14.29.30133\atlmfc\include\atlsimpstr.h

; 519  : 		return( GetData()->nDataLength );

  000e7	8b 45 ec	 mov	 eax, DWORD PTR _szSTFilePath$[ebp]
; File D:\git\src\IBK\IBK_DRFN\ProjSrc\SrcDrfn\Chart\HWSTRATEGYCONFIGUREWIZARD\DlgStrategyList.cpp

; 1338 : 	szSTFilePath.Format("%s%s\\%s%s", m_szUserDir, STDATA_ST_USERCOMBINE, strText, ".ST");

  000ea	83 c4 28	 add	 esp, 40			; 00000028H

; 1409 : 	if(szSTFilePath.GetLength()>MAX_PATH) 

  000ed	81 78 f4 04 01
	00 00		 cmp	 DWORD PTR [eax-12], 260	; 00000104H
  000f4	7e 0e		 jle	 SHORT $LN25@OnBtSave

; 1410 : 	{
; 1411 : 		AfxMessageBox("   .  .");

  000f6	6a 00		 push	 0
  000f8	6a 00		 push	 0
  000fa	68 00 00 00 00	 push	 OFFSET ??_C@_0DC@JJJMJJPP@?F?D?$MA?O?$LI?m?$MA?G?5?$LB?f?$MA?L?$LA?$KB?5?$LD?J?$LJ?$KL?5?$LB?i?$LE?O?$LE?Y?4?5?$MA?$PM@

; 1412 : 		return 0;

  000ff	e9 25 01 00 00	 jmp	 $LN45@OnBtSave
$LN25@OnBtSave:

; 1413 : 	}
; 1414 : 
; 1415 : 	if(!bCheck) return 1;
; 1416 : 
; 1417 : 	CFileFind fileFind;

  00104	8d 4d c0	 lea	 ecx, DWORD PTR _fileFind$2[ebp]
  00107	e8 00 00 00 00	 call	 ??0CFileFind@@QAE@XZ	; CFileFind::CFileFind

; 1418 : 	BOOL bFound = fileFind.FindFile(szSTFilePath);

  0010c	6a 00		 push	 0
  0010e	ff 75 ec	 push	 DWORD PTR _szSTFilePath$[ebp]
  00111	8d 4d c0	 lea	 ecx, DWORD PTR _fileFind$2[ebp]
  00114	c6 45 fc 04	 mov	 BYTE PTR __$EHRec$[ebp+8], 4
  00118	e8 00 00 00 00	 call	 ?FindFile@CFileFind@@UAEHPBDK@Z ; CFileFind::FindFile

; 1419 : 
; 1420 : 	if(!bFound) return 2;

  0011d	85 c0		 test	 eax, eax
  0011f	75 09		 jne	 SHORT $LN27@OnBtSave
  00121	c7 45 e8 02 00
	00 00		 mov	 DWORD PTR _nRet$1$[ebp], 2
  00128	eb 1e		 jmp	 SHORT $LN46@OnBtSave
$LN27@OnBtSave:

; 1421 : 
; 1422 : 	int nRet = AfxMessageBox("   . \n   ?", MB_YESNO);

  0012a	6a 00		 push	 0
  0012c	6a 04		 push	 4
  0012e	68 00 00 00 00	 push	 OFFSET ??_C@_0DP@JJIEBPED@?$LA?$LA?$MA?$LK?5?$MA?$PM?$LH?$KL?$LI?m?$MA?L?5?$MA?L?$LJ?L?5?A?$LI?$MA?g?G?U?$LE?O?$LE?Y?4?5@
  00133	e8 00 00 00 00	 call	 ?AfxMessageBox@@YGHPBDII@Z ; AfxMessageBox

; 1423 : 	if(IDYES==nRet)	return 3;

  00138	83 f8 06	 cmp	 eax, 6
  0013b	0f 85 d5 00 00
	00		 jne	 $LN28@OnBtSave
  00141	c7 45 e8 03 00
	00 00		 mov	 DWORD PTR _nRet$1$[ebp], 3
$LN46@OnBtSave:

; 1342 : 	{
; 1343 : 		m_szSTFilePath = szSTFilePath;

  00148	8d 4d c0	 lea	 ecx, DWORD PTR _fileFind$2[ebp]
  0014b	c6 45 fc 03	 mov	 BYTE PTR __$EHRec$[ebp+8], 3
  0014f	e8 00 00 00 00	 call	 ??1CFileFind@@UAE@XZ	; CFileFind::~CFileFind
  00154	8d 45 ec	 lea	 eax, DWORD PTR _szSTFilePath$[ebp]
  00157	50		 push	 eax
  00158	8d 8b cc 0f 00
	00		 lea	 ecx, DWORD PTR [ebx+4044]
  0015e	ff 15 00 00 00
	00		 call	 DWORD PTR __imp_??4?$CStringT@DV?$StrTraitMFC_DLL@DV?$ChTraitsCRT@D@ATL@@@@@ATL@@QAEAAV01@ABV01@@Z

; 1344 : 		SaveST(strText, FALSE);

  00164	6a 00		 push	 0
  00166	ff 75 f0	 push	 DWORD PTR _strText$[ebp]
  00169	8b cb		 mov	 ecx, ebx
  0016b	e8 00 00 00 00	 call	 ?SaveST@CDlgStrategyList@@IAEXPBDH@Z ; CDlgStrategyList::SaveST

; 1345 : 
; 1346 : 		BOOL bUnit = m_szSTFilePath.Find("\\\\") >= 0	? TRUE : FALSE;

  00170	6a 00		 push	 0
  00172	68 00 00 00 00	 push	 OFFSET ??_C@_0BB@FBICNCLM@?2?$LL?g?$LP?k?$MA?Z?$LE?$NM?$MA?$KH?$MA?$PM?$LH?$KL?2@
  00177	8d 8b cc 0f 00
	00		 lea	 ecx, DWORD PTR [ebx+4044]
  0017d	ff 15 00 00 00
	00		 call	 DWORD PTR __imp_?Find@?$CStringT@DV?$StrTraitMFC_DLL@DV?$ChTraitsCRT@D@ATL@@@@@ATL@@QBEHPBDH@Z

; 1347 : 		BOOL bComb = m_szSTFilePath.Find("\\\\") >= 0 ? TRUE : FALSE;

  00183	6a 00		 push	 0
  00185	68 00 00 00 00	 push	 OFFSET ??_C@_0BB@PJJNFPEB@?2?$LL?g?$LP?k?$MA?Z?A?$LG?G?U?$MA?$PM?$LH?$KL?2@
  0018a	8d 8b cc 0f 00
	00		 lea	 ecx, DWORD PTR [ebx+4044]
  00190	8b f8		 mov	 edi, eax
  00192	ff 15 00 00 00
	00		 call	 DWORD PTR __imp_?Find@?$CStringT@DV?$StrTraitMFC_DLL@DV?$ChTraitsCRT@D@ATL@@@@@ATL@@QBEHPBDH@Z
  00198	33 c9		 xor	 ecx, ecx
  0019a	85 c0		 test	 eax, eax

; 1348 : 
; 1349 : 		GetDlgItem(IDC_BTN_STCONFIGDLG)->EnableWindow(TRUE);

  0019c	6a 01		 push	 1
  0019e	0f 99 c1	 setns	 cl
  001a1	89 4d e0	 mov	 DWORD PTR tv353[ebp], ecx
  001a4	8b cb		 mov	 ecx, ebx
  001a6	68 f5 03 00 00	 push	 1013			; 000003f5H
  001ab	e8 00 00 00 00	 call	 ?GetDlgItem@CWnd@@QBEPAV1@H@Z ; CWnd::GetDlgItem
  001b0	8b c8		 mov	 ecx, eax
  001b2	e8 00 00 00 00	 call	 ?EnableWindow@CWnd@@QAEHH@Z ; CWnd::EnableWindow

; 1350 : 		GetDlgItem(IDC_BTN_STRUN)->EnableWindow(TRUE);

  001b7	6a 01		 push	 1
  001b9	68 f6 03 00 00	 push	 1014			; 000003f6H
  001be	8b cb		 mov	 ecx, ebx
  001c0	e8 00 00 00 00	 call	 ?GetDlgItem@CWnd@@QBEPAV1@H@Z ; CWnd::GetDlgItem
  001c5	8b c8		 mov	 ecx, eax
  001c7	e8 00 00 00 00	 call	 ?EnableWindow@CWnd@@QAEHH@Z ; CWnd::EnableWindow

; 1351 : 		GetDlgItem(IDC_BTN_STDELETE)->EnableWindow(TRUE);

  001cc	6a 01		 push	 1
  001ce	68 86 69 00 00	 push	 27014			; 00006986H
  001d3	8b cb		 mov	 ecx, ebx
  001d5	e8 00 00 00 00	 call	 ?GetDlgItem@CWnd@@QBEPAV1@H@Z ; CWnd::GetDlgItem
  001da	8b c8		 mov	 ecx, eax
  001dc	e8 00 00 00 00	 call	 ?EnableWindow@CWnd@@QAEHH@Z ; CWnd::EnableWindow

; 1352 : 
; 1353 : 		if(bUnit)

  001e1	85 ff		 test	 edi, edi
  001e3	78 0d		 js	 SHORT $LN6@OnBtSave

; 1354 : 		{
; 1355 : 			if(nRet != 3)

  001e5	83 7d e8 03	 cmp	 DWORD PTR _nRet$1$[ebp], 3
  001e9	74 1f		 je	 SHORT $LN10@OnBtSave

; 1356 : 			{
; 1357 : 				//((CDlgStrategyConfigure*)GetParent())->UpdateSTList(Ext_STChange_SDAdd, strText);
; 1358 : 				NotifySTChangeState(Ext_STChange_SDAdd, strText);

  001eb	ff 75 f0	 push	 DWORD PTR _strText$[ebp]
  001ee	6a 21		 push	 33			; 00000021H

; 1359 : 			}
; 1360 : 		}

  001f0	eb 11		 jmp	 SHORT $LN47@OnBtSave
$LN6@OnBtSave:

; 1361 : 		else if(bComb)

  001f2	83 7d e0 00	 cmp	 DWORD PTR tv353[ebp], 0
  001f6	74 12		 je	 SHORT $LN10@OnBtSave

; 1362 : 		{
; 1363 : 
; 1364 : 			if(nRet != 3)

  001f8	83 7d e8 03	 cmp	 DWORD PTR _nRet$1$[ebp], 3
  001fc	74 0c		 je	 SHORT $LN10@OnBtSave

; 1365 : 			{
; 1366 : 				//((CDlgStrategyConfigure*)GetParent())->UpdateSTList(Ext_STChange_Add, strText);
; 1367 : 				//((CDlgStrategyConfigure*)GetParent())->SelectSTItem(strText, szSelSTPath);
; 1368 : 				NotifySTChangeState(Ext_STChange_Add, strText);// .

  001fe	ff 75 f0	 push	 DWORD PTR _strText$[ebp]
  00201	6a 41		 push	 65			; 00000041H
$LN47@OnBtSave:

; 1369 : 			}
; 1370 : 		}
; 1371 : 
; 1372 : 		m_nFlagCnt = 1;

  00203	8b cb		 mov	 ecx, ebx
  00205	e8 00 00 00 00	 call	 ?NotifySTChangeState@CDlgStrategyList@@QAEXHPBD@Z ; CDlgStrategyList::NotifySTChangeState
$LN10@OnBtSave:
  0020a	c7 83 6c 14 00
	00 01 00 00 00	 mov	 DWORD PTR [ebx+5228], 1
  00214	eb 18		 jmp	 SHORT $LN16@OnBtSave
$LN28@OnBtSave:

; 1425 : 	return 0;

  00216	8d 4d c0	 lea	 ecx, DWORD PTR _fileFind$2[ebp]
  00219	e8 00 00 00 00	 call	 ??1CFileFind@@UAE@XZ	; CFileFind::~CFileFind

; 1339 : 
; 1340 : 	int nRet = 0;
; 1341 : 	if(nRet = CheckFileSave(TRUE, szSTFilePath))

  0021e	eb 0e		 jmp	 SHORT $LN16@OnBtSave
$LN4@OnBtSave:

; 1331 : 	{
; 1332 : 		//@Solomon AfxMessageBox(" ^\'@\'    .");
; 1333 : 		AfxMessageBox(" \'@\'    .");

  00220	6a 00		 push	 0
  00222	6a 00		 push	 0
  00224	68 00 00 00 00	 push	 OFFSET ??_C@_0CK@PLOMFNEF@?$MA?$PM?$LH?$KL?$LI?m?$LP?$KB?$LE?B?5?8?$EA?8?5?$LJ?$KO?$MA?Z?$LE?B?5?$LF?i?$LO?n?$LA?$KF?5?$LM?v@
$LN45@OnBtSave:

; 1373 : 	}
; 1374 : }

  00229	e8 00 00 00 00	 call	 ?AfxMessageBox@@YGHPBDII@Z ; AfxMessageBox
$LN16@OnBtSave:
  0022e	8d 4d dc	 lea	 ecx, DWORD PTR _szRunImsiFile$[ebp]
  00231	ff 15 00 00 00
	00		 call	 DWORD PTR __imp_??1?$CStringT@DV?$StrTraitMFC_DLL@DV?$ChTraitsCRT@D@ATL@@@@@ATL@@QAE@XZ
  00237	8d 4d e4	 lea	 ecx, DWORD PTR _szSelSTPath$[ebp]
  0023a	ff 15 00 00 00
	00		 call	 DWORD PTR __imp_??1?$CStringT@DV?$StrTraitMFC_DLL@DV?$ChTraitsCRT@D@ATL@@@@@ATL@@QAE@XZ
  00240	8d 4d ec	 lea	 ecx, DWORD PTR _szSTFilePath$[ebp]
  00243	ff 15 00 00 00
	00		 call	 DWORD PTR __imp_??1?$CStringT@DV?$StrTraitMFC_DLL@DV?$ChTraitsCRT@D@ATL@@@@@ATL@@QAE@XZ
  00249	8d 4d f0	 lea	 ecx, DWORD PTR _strText$[ebp]
  0024c	ff 15 00 00 00
	00		 call	 DWORD PTR __imp_??1?$CStringT@DV?$StrTraitMFC_DLL@DV?$ChTraitsCRT@D@ATL@@@@@ATL@@QAE@XZ
  00252	8b 4d f4	 mov	 ecx, DWORD PTR __$EHRec$[ebp]
  00255	64 89 0d 00 00
	00 00		 mov	 DWORD PTR fs:0, ecx
  0025c	59		 pop	 ecx
  0025d	5f		 pop	 edi
  0025e	5e		 pop	 esi
  0025f	5b		 pop	 ebx
  00260	8b e5		 mov	 esp, ebp
  00262	5d		 pop	 ebp
  00263	c3		 ret	 0
_TEXT	ENDS
;	COMDAT text$x
text$x	SEGMENT
__unwindfunclet$?OnBtSave@CDlgStrategyList@@IAEXXZ$0:
  00000	8d 4d f0	 lea	 ecx, DWORD PTR _strText$[ebp]
  00003	ff 25 00 00 00
	00		 jmp	 DWORD PTR __imp_??1?$CStringT@DV?$StrTraitMFC_DLL@DV?$ChTraitsCRT@D@ATL@@@@@ATL@@QAE@XZ
__unwindfunclet$?OnBtSave@CDlgStrategyList@@IAEXXZ$1:
  00009	8d 4d ec	 lea	 ecx, DWORD PTR _szSTFilePath$[ebp]
  0000c	ff 25 00 00 00
	00		 jmp	 DWORD PTR __imp_??1?$CStringT@DV?$StrTraitMFC_DLL@DV?$ChTraitsCRT@D@ATL@@@@@ATL@@QAE@XZ
__unwindfunclet$?OnBtSave@CDlgStrategyList@@IAEXXZ$2:
  00012	8d 4d e4	 lea	 ecx, DWORD PTR _szSelSTPath$[ebp]
  00015	ff 25 00 00 00
	00		 jmp	 DWORD PTR __imp_??1?$CStringT@DV?$StrTraitMFC_DLL@DV?$ChTraitsCRT@D@ATL@@@@@ATL@@QAE@XZ
__unwindfunclet$?OnBtSave@CDlgStrategyList@@IAEXXZ$3:
  0001b	8d 4d dc	 lea	 ecx, DWORD PTR _szRunImsiFile$[ebp]
  0001e	ff 25 00 00 00
	00		 jmp	 DWORD PTR __imp_??1?$CStringT@DV?$StrTraitMFC_DLL@DV?$ChTraitsCRT@D@ATL@@@@@ATL@@QAE@XZ
__unwindfunclet$?OnBtSave@CDlgStrategyList@@IAEXXZ$4:
  00024	8d 4d c0	 lea	 ecx, DWORD PTR _fileFind$2[ebp]
  00027	e9 00 00 00 00	 jmp	 ??1CFileFind@@UAE@XZ	; CFileFind::~CFileFind
  0002c	cc		 int	 3
  0002d	cc		 int	 3
  0002e	cc		 int	 3
  0002f	cc		 int	 3
  00030	cc		 int	 3
__ehhandler$?OnBtSave@CDlgStrategyList@@IAEXXZ:
  00031	90		 npad	 1
  00032	90		 npad	 1
  00033	8b 54 24 08	 mov	 edx, DWORD PTR [esp+8]
  00037	8d 42 0c	 lea	 eax, DWORD PTR [edx+12]
  0003a	8b 4a bc	 mov	 ecx, DWORD PTR [edx-68]
  0003d	33 c8		 xor	 ecx, eax
  0003f	e8 00 00 00 00	 call	 @__security_check_cookie@4
  00044	b8 00 00 00 00	 mov	 eax, OFFSET __ehfuncinfo$?OnBtSave@CDlgStrategyList@@IAEXXZ
  00049	e9 00 00 00 00	 jmp	 ___CxxFrameHandler3
text$x	ENDS
?OnBtSave@CDlgStrategyList@@IAEXXZ ENDP			; CDlgStrategyList::OnBtSave
; Function compile flags: /Ogtp
; File D:\git\src\IBK\IBK_DRFN\ProjSrc\SrcDrfn\Chart\HWSTRATEGYCONFIGUREWIZARD\DlgStrategyList.cpp
;	COMDAT ?OnBtnX@CDlgStrategyList@@IAEXXZ
_TEXT	SEGMENT
?OnBtnX@CDlgStrategyList@@IAEXXZ PROC			; CDlgStrategyList::OnBtnX, COMDAT
; _this$ = ecx

; 1010 : {

  00000	56		 push	 esi

; 1011 : 	m_ctrlLogic.Unparenthesize();	

  00001	8d b1 30 02 00
	00		 lea	 esi, DWORD PTR [ecx+560]
  00007	8b ce		 mov	 ecx, esi
  00009	e8 00 00 00 00	 call	 ?Unparenthesize@CLogicEditCtrl@@QAEXXZ ; CLogicEditCtrl::Unparenthesize

; 1012 : 	m_ctrlLogic.SetFocus();		

  0000e	8b ce		 mov	 ecx, esi
  00010	5e		 pop	 esi
  00011	e9 00 00 00 00	 jmp	 ?SetFocus@CWnd@@QAEPAV1@XZ ; CWnd::SetFocus
?OnBtnX@CDlgStrategyList@@IAEXXZ ENDP			; CDlgStrategyList::OnBtnX
_TEXT	ENDS
; Function compile flags: /Ogtp
; File D:\git\src\IBK\IBK_DRFN\ProjSrc\SrcDrfn\Chart\HWSTRATEGYCONFIGUREWIZARD\DlgStrategyList.cpp
;	COMDAT ?OnBtnParenthesis@CDlgStrategyList@@IAEXXZ
_TEXT	SEGMENT
?OnBtnParenthesis@CDlgStrategyList@@IAEXXZ PROC		; CDlgStrategyList::OnBtnParenthesis, COMDAT
; _this$ = ecx

; 1004 : {

  00000	56		 push	 esi

; 1005 : 	m_ctrlLogic.Parenthesize();	

  00001	8d b1 30 02 00
	00		 lea	 esi, DWORD PTR [ecx+560]
  00007	8b ce		 mov	 ecx, esi
  00009	e8 00 00 00 00	 call	 ?Parenthesize@CLogicEditCtrl@@QAEXXZ ; CLogicEditCtrl::Parenthesize

; 1006 : 	m_ctrlLogic.SetFocus();	

  0000e	8b ce		 mov	 ecx, esi
  00010	5e		 pop	 esi
  00011	e9 00 00 00 00	 jmp	 ?SetFocus@CWnd@@QAEPAV1@XZ ; CWnd::SetFocus
?OnBtnParenthesis@CDlgStrategyList@@IAEXXZ ENDP		; CDlgStrategyList::OnBtnParenthesis
_TEXT	ENDS
; Function compile flags: /Ogtp
; File D:\git\src\IBK\IBK_DRFN\ProjSrc\SrcDrfn\Chart\HWSTRATEGYCONFIGUREWIZARD\DlgStrategyList.cpp
;	COMDAT ?OnBtnTrue@CDlgStrategyList@@IAEXXZ
_TEXT	SEGMENT
?OnBtnTrue@CDlgStrategyList@@IAEXXZ PROC		; CDlgStrategyList::OnBtnTrue, COMDAT
; _this$ = ecx

; 998  : {

  00000	56		 push	 esi

; 999  : 	m_ctrlLogic.ChangeElement(TRUE);	

  00001	8d b1 30 02 00
	00		 lea	 esi, DWORD PTR [ecx+560]
  00007	6a 01		 push	 1
  00009	8b ce		 mov	 ecx, esi
  0000b	e8 00 00 00 00	 call	 ?ChangeElement@CLogicEditCtrl@@QAEXH@Z ; CLogicEditCtrl::ChangeElement

; 1000 : 	m_ctrlLogic.SetFocus();

  00010	8b ce		 mov	 ecx, esi
  00012	5e		 pop	 esi
  00013	e9 00 00 00 00	 jmp	 ?SetFocus@CWnd@@QAEPAV1@XZ ; CWnd::SetFocus
?OnBtnTrue@CDlgStrategyList@@IAEXXZ ENDP		; CDlgStrategyList::OnBtnTrue
_TEXT	ENDS
; Function compile flags: /Ogtp
; File D:\git\src\IBK\IBK_DRFN\ProjSrc\SrcDrfn\Chart\HWSTRATEGYCONFIGUREWIZARD\DlgStrategyList.cpp
;	COMDAT ?OnBtnNot@CDlgStrategyList@@IAEXXZ
_TEXT	SEGMENT
?OnBtnNot@CDlgStrategyList@@IAEXXZ PROC			; CDlgStrategyList::OnBtnNot, COMDAT
; _this$ = ecx

; 992  : {

  00000	56		 push	 esi

; 993  : 	m_ctrlLogic.ChangeElement(FALSE);	

  00001	8d b1 30 02 00
	00		 lea	 esi, DWORD PTR [ecx+560]
  00007	6a 00		 push	 0
  00009	8b ce		 mov	 ecx, esi
  0000b	e8 00 00 00 00	 call	 ?ChangeElement@CLogicEditCtrl@@QAEXH@Z ; CLogicEditCtrl::ChangeElement

; 994  : 	m_ctrlLogic.SetFocus();

  00010	8b ce		 mov	 ecx, esi
  00012	5e		 pop	 esi
  00013	e9 00 00 00 00	 jmp	 ?SetFocus@CWnd@@QAEPAV1@XZ ; CWnd::SetFocus
?OnBtnNot@CDlgStrategyList@@IAEXXZ ENDP			; CDlgStrategyList::OnBtnNot
_TEXT	ENDS
; Function compile flags: /Ogtp
; File D:\git\src\IBK\IBK_DRFN\ProjSrc\SrcDrfn\Chart\HWSTRATEGYCONFIGUREWIZARD\DlgStrategyList.cpp
;	COMDAT ?OnBtnNext@CDlgStrategyList@@IAEXXZ
_TEXT	SEGMENT
?OnBtnNext@CDlgStrategyList@@IAEXXZ PROC		; CDlgStrategyList::OnBtnNext, COMDAT
; _this$ = ecx

; 986  : {

  00000	56		 push	 esi

; 987  : 	m_ctrlLogic.ChangeOperation(STRNEXTINLOGIC);

  00001	8d b1 30 02 00
	00		 lea	 esi, DWORD PTR [ecx+560]
  00007	68 00 00 00 00	 push	 OFFSET ??_C@_04CJGEDOF@next@
  0000c	8b ce		 mov	 ecx, esi
  0000e	e8 00 00 00 00	 call	 ?ChangeOperation@CLogicEditCtrl@@QAEXPBD@Z ; CLogicEditCtrl::ChangeOperation

; 988  : 	m_ctrlLogic.SetFocus();

  00013	8b ce		 mov	 ecx, esi
  00015	5e		 pop	 esi
  00016	e9 00 00 00 00	 jmp	 ?SetFocus@CWnd@@QAEPAV1@XZ ; CWnd::SetFocus
?OnBtnNext@CDlgStrategyList@@IAEXXZ ENDP		; CDlgStrategyList::OnBtnNext
_TEXT	ENDS
; Function compile flags: /Ogtp
; File D:\git\src\IBK\IBK_DRFN\ProjSrc\SrcDrfn\Chart\HWSTRATEGYCONFIGUREWIZARD\DlgStrategyList.cpp
;	COMDAT ?OnBtnOr@CDlgStrategyList@@IAEXXZ
_TEXT	SEGMENT
?OnBtnOr@CDlgStrategyList@@IAEXXZ PROC			; CDlgStrategyList::OnBtnOr, COMDAT
; _this$ = ecx

; 980  : {

  00000	56		 push	 esi

; 981  : 	m_ctrlLogic.ChangeOperation(STRORINLOGIC);	

  00001	8d b1 30 02 00
	00		 lea	 esi, DWORD PTR [ecx+560]
  00007	68 00 00 00 00	 push	 OFFSET ??_C@_02FODMLBIE@or@
  0000c	8b ce		 mov	 ecx, esi
  0000e	e8 00 00 00 00	 call	 ?ChangeOperation@CLogicEditCtrl@@QAEXPBD@Z ; CLogicEditCtrl::ChangeOperation

; 982  : 	m_ctrlLogic.SetFocus();

  00013	8b ce		 mov	 ecx, esi
  00015	5e		 pop	 esi
  00016	e9 00 00 00 00	 jmp	 ?SetFocus@CWnd@@QAEPAV1@XZ ; CWnd::SetFocus
?OnBtnOr@CDlgStrategyList@@IAEXXZ ENDP			; CDlgStrategyList::OnBtnOr
_TEXT	ENDS
; Function compile flags: /Ogtp
; File D:\git\src\IBK\IBK_DRFN\ProjSrc\SrcDrfn\Chart\HWSTRATEGYCONFIGUREWIZARD\DlgStrategyList.cpp
;	COMDAT ?OnBtnAnd@CDlgStrategyList@@IAEXXZ
_TEXT	SEGMENT
?OnBtnAnd@CDlgStrategyList@@IAEXXZ PROC			; CDlgStrategyList::OnBtnAnd, COMDAT
; _this$ = ecx

; 974  : {

  00000	56		 push	 esi

; 975  : 	m_ctrlLogic.ChangeOperation(STRANDINLOGIC);

  00001	8d b1 30 02 00
	00		 lea	 esi, DWORD PTR [ecx+560]
  00007	68 00 00 00 00	 push	 OFFSET ??_C@_03BOPJPIAM@and@
  0000c	8b ce		 mov	 ecx, esi
  0000e	e8 00 00 00 00	 call	 ?ChangeOperation@CLogicEditCtrl@@QAEXPBD@Z ; CLogicEditCtrl::ChangeOperation

; 976  : 	m_ctrlLogic.SetFocus();

  00013	8b ce		 mov	 ecx, esi
  00015	5e		 pop	 esi
  00016	e9 00 00 00 00	 jmp	 ?SetFocus@CWnd@@QAEPAV1@XZ ; CWnd::SetFocus
?OnBtnAnd@CDlgStrategyList@@IAEXXZ ENDP			; CDlgStrategyList::OnBtnAnd
_TEXT	ENDS
; Function compile flags: /Ogtp
; File D:\git\src\IBK\IBK_DRFN\ProjSrc\SrcDrfn\Chart\HWSTRATEGYCONFIGUREWIZARD\DlgStrategyList.cpp
; File C:\Program Files (x86)\Microsoft Visual Studio\2019\Community\VC\Tools\MSVC\14.29.30133\atlmfc\include\afxwin2.inl
; File D:\git\src\IBK\IBK_DRFN\ProjSrc\SrcDrfn\Chart\HWSTRATEGYCONFIGUREWIZARD\DlgStrategyList.cpp
;	COMDAT ?OnBtnUp@CDlgStrategyList@@IAEXXZ
_TEXT	SEGMENT
_CellRangeOfSTList$ = -72				; size = 16
_nFormat$1$ = -56					; size = 4
_nFormatBackup$1$ = -52					; size = 4
_clrFgText$1$ = -48					; size = 4
_pSDItemInfoInRow$1$ = -44				; size = 4
$T2 = -40						; size = 4
$T3 = -36						; size = 4
_strText$4 = -32					; size = 4
_strTextBackup$5 = -28					; size = 4
_this$1$ = -24						; size = 4
tv319 = -20						; size = 4
_nRow$1$ = -16						; size = 4
__$EHRec$ = -12						; size = 12
?OnBtnUp@CDlgStrategyList@@IAEXXZ PROC			; CDlgStrategyList::OnBtnUp, COMDAT
; _this$ = ecx

; 932  : {

  00000	55		 push	 ebp
  00001	8b ec		 mov	 ebp, esp
  00003	6a ff		 push	 -1
  00005	68 00 00 00 00	 push	 __ehhandler$?OnBtnUp@CDlgStrategyList@@IAEXXZ
  0000a	64 a1 00 00 00
	00		 mov	 eax, DWORD PTR fs:0
  00010	50		 push	 eax
  00011	83 ec 3c	 sub	 esp, 60			; 0000003cH
  00014	53		 push	 ebx
  00015	56		 push	 esi
  00016	57		 push	 edi
  00017	a1 00 00 00 00	 mov	 eax, DWORD PTR ___security_cookie
  0001c	33 c5		 xor	 eax, ebp
  0001e	50		 push	 eax
  0001f	8d 45 f4	 lea	 eax, DWORD PTR __$EHRec$[ebp]
  00022	64 a3 00 00 00
	00		 mov	 DWORD PTR fs:0, eax
  00028	8b f1		 mov	 esi, ecx
  0002a	89 75 e8	 mov	 DWORD PTR _this$1$[ebp], esi

; 933  : 	CCellRange CellRangeOfSTList = m_GridSTList.GetSelectedCellRange();

  0002d	8d 45 b8	 lea	 eax, DWORD PTR _CellRangeOfSTList$[ebp]
  00030	8d 9e d8 0f 00
	00		 lea	 ebx, DWORD PTR [esi+4056]
  00036	50		 push	 eax
  00037	8b cb		 mov	 ecx, ebx
  00039	e8 00 00 00 00	 call	 ?GetSelectedCellRange@CGridCtrl@@QBE?AVCCellRange@@XZ ; CGridCtrl::GetSelectedCellRange

; 934  : 	int nRowCount = m_GridSTList.GetRowCount();
; 935  : 	int nRow = CellRangeOfSTList.GetMaxRow();

  0003e	8b 7d c0	 mov	 edi, DWORD PTR _CellRangeOfSTList$[ebp+8]
  00041	89 7d f0	 mov	 DWORD PTR _nRow$1$[ebp], edi
  00044	83 ff 01	 cmp	 edi, 1

; 936  : 	if(nRow>1&&nRowCount>2)

  00047	0f 8e df 01 00
	00		 jle	 $LN5@OnBtnUp
  0004d	83 be f0 10 00
	00 02		 cmp	 DWORD PTR [esi+4336], 2
  00054	0f 8e d2 01 00
	00		 jle	 $LN5@OnBtnUp

; 937  : 	{
; 938  : 		CSDItemInfo* pSDItemInfoInRow = NULL;
; 939  : 		CSDItemInfo* pSDItemInfoInRowBackup = NULL;
; 940  : 		CString strText;

  0005a	8d 4d e0	 lea	 ecx, DWORD PTR _strText$4[ebp]
  0005d	ff 15 00 00 00
	00		 call	 DWORD PTR __imp_??0?$CStringT@DV?$StrTraitMFC_DLL@DV?$ChTraitsCRT@D@ATL@@@@@ATL@@QAE@XZ

; 941  : 		CString strTextBackup;

  00063	8d 4d e4	 lea	 ecx, DWORD PTR _strTextBackup$5[ebp]
  00066	c7 45 fc 00 00
	00 00		 mov	 DWORD PTR __$EHRec$[ebp+8], 0
  0006d	ff 15 00 00 00
	00		 call	 DWORD PTR __imp_??0?$CStringT@DV?$StrTraitMFC_DLL@DV?$ChTraitsCRT@D@ATL@@@@@ATL@@QAE@XZ
  00073	8d 47 ff	 lea	 eax, DWORD PTR [edi-1]
  00076	c6 45 fc 01	 mov	 BYTE PTR __$EHRec$[ebp+8], 1

; 942  : 		COLORREF clrFgText;
; 943  : 		COLORREF clrFgTextBackup;
; 944  : 		UINT nFormat;
; 945  : 		UINT nFormatBackup;
; 946  : 		for(int nCol=0;nCol<MAX_COL;nCol++)

  0007a	33 f6		 xor	 esi, esi
  0007c	89 45 ec	 mov	 DWORD PTR tv319[ebp], eax
  0007f	eb 03		 jmp	 SHORT $LN4@OnBtnUp
$LL23@OnBtnUp:
  00081	8b 7d f0	 mov	 edi, DWORD PTR _nRow$1$[ebp]
$LN4@OnBtnUp:

; 947  : 		{
; 948  : 			strText = m_GridSTList.GetItemText(nRow,nCol);

  00084	56		 push	 esi
  00085	57		 push	 edi
  00086	8d 45 dc	 lea	 eax, DWORD PTR $T3[ebp]
  00089	8b cb		 mov	 ecx, ebx
  0008b	50		 push	 eax
  0008c	e8 00 00 00 00	 call	 ?GetItemText@CGridCtrl@@QBE?AV?$CStringT@DV?$StrTraitMFC_DLL@DV?$ChTraitsCRT@D@ATL@@@@@ATL@@HH@Z ; CGridCtrl::GetItemText
  00091	50		 push	 eax
  00092	8d 4d e0	 lea	 ecx, DWORD PTR _strText$4[ebp]
  00095	c6 45 fc 02	 mov	 BYTE PTR __$EHRec$[ebp+8], 2
  00099	ff 15 00 00 00
	00		 call	 DWORD PTR __imp_??4?$CStringT@DV?$StrTraitMFC_DLL@DV?$ChTraitsCRT@D@ATL@@@@@ATL@@QAEAAV01@ABV01@@Z
  0009f	8d 4d dc	 lea	 ecx, DWORD PTR $T3[ebp]
  000a2	c6 45 fc 01	 mov	 BYTE PTR __$EHRec$[ebp+8], 1
  000a6	ff 15 00 00 00
	00		 call	 DWORD PTR __imp_??1?$CStringT@DV?$StrTraitMFC_DLL@DV?$ChTraitsCRT@D@ATL@@@@@ATL@@QAE@XZ

; 949  : 			strTextBackup = m_GridSTList.GetItemText(nRow-1,nCol);

  000ac	56		 push	 esi
  000ad	8d 47 ff	 lea	 eax, DWORD PTR [edi-1]
  000b0	8b cb		 mov	 ecx, ebx
  000b2	50		 push	 eax
  000b3	8d 45 d8	 lea	 eax, DWORD PTR $T2[ebp]
  000b6	50		 push	 eax
  000b7	e8 00 00 00 00	 call	 ?GetItemText@CGridCtrl@@QBE?AV?$CStringT@DV?$StrTraitMFC_DLL@DV?$ChTraitsCRT@D@ATL@@@@@ATL@@HH@Z ; CGridCtrl::GetItemText
  000bc	50		 push	 eax
  000bd	8d 4d e4	 lea	 ecx, DWORD PTR _strTextBackup$5[ebp]
  000c0	c6 45 fc 03	 mov	 BYTE PTR __$EHRec$[ebp+8], 3
  000c4	ff 15 00 00 00
	00		 call	 DWORD PTR __imp_??4?$CStringT@DV?$StrTraitMFC_DLL@DV?$ChTraitsCRT@D@ATL@@@@@ATL@@QAEAAV01@ABV01@@Z
  000ca	8d 4d d8	 lea	 ecx, DWORD PTR $T2[ebp]
  000cd	c6 45 fc 01	 mov	 BYTE PTR __$EHRec$[ebp+8], 1
  000d1	ff 15 00 00 00
	00		 call	 DWORD PTR __imp_??1?$CStringT@DV?$StrTraitMFC_DLL@DV?$ChTraitsCRT@D@ATL@@@@@ATL@@QAE@XZ

; 950  : 			pSDItemInfoInRow = (CSDItemInfo*)m_GridSTList.GetItemData(nRow,nCol);

  000d7	56		 push	 esi
  000d8	57		 push	 edi
  000d9	8b cb		 mov	 ecx, ebx
  000db	e8 00 00 00 00	 call	 ?GetItemData@CGridCtrl@@QBEJHH@Z ; CGridCtrl::GetItemData
  000e0	89 45 d4	 mov	 DWORD PTR _pSDItemInfoInRow$1$[ebp], eax

; 951  : 			pSDItemInfoInRowBackup = (CSDItemInfo*)m_GridSTList.GetItemData(nRow-1,nCol);

  000e3	8b cb		 mov	 ecx, ebx
  000e5	56		 push	 esi
  000e6	8d 47 ff	 lea	 eax, DWORD PTR [edi-1]
  000e9	50		 push	 eax
  000ea	e8 00 00 00 00	 call	 ?GetItemData@CGridCtrl@@QBEJHH@Z ; CGridCtrl::GetItemData

; 952  : 			clrFgText = m_GridSTList.GetItemFgColour(nRow,nCol);

  000ef	56		 push	 esi
  000f0	ff 75 f0	 push	 DWORD PTR _nRow$1$[ebp]
  000f3	8b cb		 mov	 ecx, ebx
  000f5	8b f8		 mov	 edi, eax
  000f7	e8 00 00 00 00	 call	 ?GetItemFgColour@CGridCtrl@@QBEKHH@Z ; CGridCtrl::GetItemFgColour

; 953  : 			clrFgTextBackup = m_GridSTList.GetItemFgColour(nRow-1,nCol);

  000fc	56		 push	 esi
  000fd	ff 75 ec	 push	 DWORD PTR tv319[ebp]
  00100	8b cb		 mov	 ecx, ebx
  00102	89 45 d0	 mov	 DWORD PTR _clrFgText$1$[ebp], eax
  00105	e8 00 00 00 00	 call	 ?GetItemFgColour@CGridCtrl@@QBEKHH@Z ; CGridCtrl::GetItemFgColour

; 954  : 			nFormat = m_GridSTList.GetItemFormat(nRow,nCol);

  0010a	8b 4d e8	 mov	 ecx, DWORD PTR _this$1$[ebp]
  0010d	8b d8		 mov	 ebx, eax
  0010f	56		 push	 esi
  00110	ff 75 f0	 push	 DWORD PTR _nRow$1$[ebp]
  00113	8d 89 d8 0f 00
	00		 lea	 ecx, DWORD PTR [ecx+4056]
  00119	e8 00 00 00 00	 call	 ?GetItemFormat@CGridCtrl@@QBEIHH@Z ; CGridCtrl::GetItemFormat

; 955  : 			nFormatBackup = m_GridSTList.GetItemFormat(nRow-1,nCol);

  0011e	8b 4d e8	 mov	 ecx, DWORD PTR _this$1$[ebp]
  00121	56		 push	 esi
  00122	ff 75 ec	 push	 DWORD PTR tv319[ebp]
  00125	89 45 c8	 mov	 DWORD PTR _nFormat$1$[ebp], eax
  00128	8d 89 d8 0f 00
	00		 lea	 ecx, DWORD PTR [ecx+4056]
  0012e	e8 00 00 00 00	 call	 ?GetItemFormat@CGridCtrl@@QBEIHH@Z ; CGridCtrl::GetItemFormat

; 956  : 
; 957  : 			m_GridSTList.SetItemText(nRow,nCol,strTextBackup);

  00133	ff 75 e4	 push	 DWORD PTR _strTextBackup$5[ebp]
  00136	8b 4d e8	 mov	 ecx, DWORD PTR _this$1$[ebp]
  00139	56		 push	 esi
  0013a	ff 75 f0	 push	 DWORD PTR _nRow$1$[ebp]
  0013d	89 45 cc	 mov	 DWORD PTR _nFormatBackup$1$[ebp], eax
  00140	8d 89 d8 0f 00
	00		 lea	 ecx, DWORD PTR [ecx+4056]
  00146	e8 00 00 00 00	 call	 ?SetItemText@CGridCtrl@@QAEHHHPBD@Z ; CGridCtrl::SetItemText

; 958  : 			m_GridSTList.SetItemText(nRow-1,nCol,strText);

  0014b	ff 75 e0	 push	 DWORD PTR _strText$4[ebp]
  0014e	8b 4d e8	 mov	 ecx, DWORD PTR _this$1$[ebp]
  00151	56		 push	 esi
  00152	ff 75 ec	 push	 DWORD PTR tv319[ebp]
  00155	8d 89 d8 0f 00
	00		 lea	 ecx, DWORD PTR [ecx+4056]
  0015b	e8 00 00 00 00	 call	 ?SetItemText@CGridCtrl@@QAEHHHPBD@Z ; CGridCtrl::SetItemText

; 959  : 			m_GridSTList.SetItemData(nRow,nCol,(long)pSDItemInfoInRowBackup);

  00160	57		 push	 edi
  00161	8b 7d e8	 mov	 edi, DWORD PTR _this$1$[ebp]
  00164	56		 push	 esi
  00165	ff 75 f0	 push	 DWORD PTR _nRow$1$[ebp]
  00168	8d 8f d8 0f 00
	00		 lea	 ecx, DWORD PTR [edi+4056]
  0016e	e8 00 00 00 00	 call	 ?SetItemData@CGridCtrl@@QAEHHHJ@Z ; CGridCtrl::SetItemData

; 960  : 			m_GridSTList.SetItemData(nRow-1,nCol,(long)pSDItemInfoInRow);

  00173	ff 75 d4	 push	 DWORD PTR _pSDItemInfoInRow$1$[ebp]
  00176	56		 push	 esi
  00177	ff 75 ec	 push	 DWORD PTR tv319[ebp]
  0017a	8d 8f d8 0f 00
	00		 lea	 ecx, DWORD PTR [edi+4056]
  00180	e8 00 00 00 00	 call	 ?SetItemData@CGridCtrl@@QAEHHHJ@Z ; CGridCtrl::SetItemData

; 961  : 			m_GridSTList.SetItemFgColour(nRow,nCol,clrFgTextBackup);

  00185	53		 push	 ebx
  00186	56		 push	 esi
  00187	ff 75 f0	 push	 DWORD PTR _nRow$1$[ebp]
  0018a	8d 9f d8 0f 00
	00		 lea	 ebx, DWORD PTR [edi+4056]
  00190	8b cb		 mov	 ecx, ebx
  00192	e8 00 00 00 00	 call	 ?SetItemFgColour@CGridCtrl@@QAEHHHK@Z ; CGridCtrl::SetItemFgColour

; 962  : 			m_GridSTList.SetItemFgColour(nRow-1,nCol,clrFgText);

  00197	ff 75 d0	 push	 DWORD PTR _clrFgText$1$[ebp]
  0019a	8b cb		 mov	 ecx, ebx
  0019c	56		 push	 esi
  0019d	ff 75 ec	 push	 DWORD PTR tv319[ebp]
  001a0	e8 00 00 00 00	 call	 ?SetItemFgColour@CGridCtrl@@QAEHHHK@Z ; CGridCtrl::SetItemFgColour

; 963  : 			m_GridSTList.SetItemFormat(nRow,nCol,nFormatBackup);

  001a5	ff 75 cc	 push	 DWORD PTR _nFormatBackup$1$[ebp]
  001a8	8b cb		 mov	 ecx, ebx
  001aa	56		 push	 esi
  001ab	ff 75 f0	 push	 DWORD PTR _nRow$1$[ebp]
  001ae	e8 00 00 00 00	 call	 ?SetItemFormat@CGridCtrl@@QAEHHHI@Z ; CGridCtrl::SetItemFormat

; 964  : 			m_GridSTList.SetItemFormat(nRow-1,nCol,nFormat);

  001b3	ff 75 c8	 push	 DWORD PTR _nFormat$1$[ebp]
  001b6	8b cb		 mov	 ecx, ebx
  001b8	56		 push	 esi
  001b9	ff 75 ec	 push	 DWORD PTR tv319[ebp]
  001bc	e8 00 00 00 00	 call	 ?SetItemFormat@CGridCtrl@@QAEHHHI@Z ; CGridCtrl::SetItemFormat

; 965  : 			if(nCol==COL_NO)

  001c1	85 f6		 test	 esi, esi
  001c3	75 27		 jne	 SHORT $LN2@OnBtnUp

; 966  : 				m_ctrlLogic.SwapElement(strText[0],strTextBackup[0]);

  001c5	56		 push	 esi
  001c6	8d 4d e4	 lea	 ecx, DWORD PTR _strTextBackup$5[ebp]
  001c9	ff 15 00 00 00
	00		 call	 DWORD PTR __imp_??A?$CSimpleStringT@D$00@ATL@@QBEDH@Z
  001cf	0f b6 c0	 movzx	 eax, al
  001d2	8d 4d e0	 lea	 ecx, DWORD PTR _strText$4[ebp]
  001d5	50		 push	 eax
  001d6	56		 push	 esi
  001d7	ff 15 00 00 00
	00		 call	 DWORD PTR __imp_??A?$CSimpleStringT@D$00@ATL@@QBEDH@Z
  001dd	0f b6 c0	 movzx	 eax, al
  001e0	8d 8f 30 02 00
	00		 lea	 ecx, DWORD PTR [edi+560]
  001e6	50		 push	 eax
  001e7	e8 00 00 00 00	 call	 ?SwapElement@CLogicEditCtrl@@QAEXDD@Z ; CLogicEditCtrl::SwapElement
$LN2@OnBtnUp:

; 942  : 		COLORREF clrFgText;
; 943  : 		COLORREF clrFgTextBackup;
; 944  : 		UINT nFormat;
; 945  : 		UINT nFormatBackup;
; 946  : 		for(int nCol=0;nCol<MAX_COL;nCol++)

  001ec	46		 inc	 esi
  001ed	83 fe 05	 cmp	 esi, 5
  001f0	0f 8c 8b fe ff
	ff		 jl	 $LL23@OnBtnUp

; 967  : 		}
; 968  : 		m_GridSTList.SetSelectedRange(nRow-1,0,nRow-1,MAX_COL-1);

  001f6	8b 45 ec	 mov	 eax, DWORD PTR tv319[ebp]
  001f9	8b cb		 mov	 ecx, ebx
  001fb	6a 01		 push	 1
  001fd	6a 00		 push	 0
  001ff	6a 04		 push	 4
  00201	50		 push	 eax
  00202	6a 00		 push	 0
  00204	50		 push	 eax
  00205	e8 00 00 00 00	 call	 ?SetSelectedRange@CGridCtrl@@QAEXHHHHHH@Z ; CGridCtrl::SetSelectedRange
; File C:\Program Files (x86)\Microsoft Visual Studio\2019\Community\VC\Tools\MSVC\14.29.30133\atlmfc\include\afxwin2.inl

; 114  : 	{ ASSERT(::IsWindow(m_hWnd)); ::InvalidateRect(m_hWnd, NULL, bErase); }

  0020a	6a 01		 push	 1
  0020c	6a 00		 push	 0
  0020e	ff b7 f8 0f 00
	00		 push	 DWORD PTR [edi+4088]
  00214	ff 15 00 00 00
	00		 call	 DWORD PTR __imp__InvalidateRect@12
; File D:\git\src\IBK\IBK_DRFN\ProjSrc\SrcDrfn\Chart\HWSTRATEGYCONFIGUREWIZARD\DlgStrategyList.cpp

; 970  : 	}

  0021a	8d 4d e4	 lea	 ecx, DWORD PTR _strTextBackup$5[ebp]
  0021d	ff 15 00 00 00
	00		 call	 DWORD PTR __imp_??1?$CStringT@DV?$StrTraitMFC_DLL@DV?$ChTraitsCRT@D@ATL@@@@@ATL@@QAE@XZ
  00223	8d 4d e0	 lea	 ecx, DWORD PTR _strText$4[ebp]
  00226	ff 15 00 00 00
	00		 call	 DWORD PTR __imp_??1?$CStringT@DV?$StrTraitMFC_DLL@DV?$ChTraitsCRT@D@ATL@@@@@ATL@@QAE@XZ
$LN5@OnBtnUp:

; 971  : }

  0022c	8b 4d f4	 mov	 ecx, DWORD PTR __$EHRec$[ebp]
  0022f	64 89 0d 00 00
	00 00		 mov	 DWORD PTR fs:0, ecx
  00236	59		 pop	 ecx
  00237	5f		 pop	 edi
  00238	5e		 pop	 esi
  00239	5b		 pop	 ebx
  0023a	8b e5		 mov	 esp, ebp
  0023c	5d		 pop	 ebp
  0023d	c3		 ret	 0
_TEXT	ENDS
;	COMDAT text$x
text$x	SEGMENT
__unwindfunclet$?OnBtnUp@CDlgStrategyList@@IAEXXZ$0:
  00000	8d 4d e0	 lea	 ecx, DWORD PTR _strText$4[ebp]
  00003	ff 25 00 00 00
	00		 jmp	 DWORD PTR __imp_??1?$CStringT@DV?$StrTraitMFC_DLL@DV?$ChTraitsCRT@D@ATL@@@@@ATL@@QAE@XZ
__unwindfunclet$?OnBtnUp@CDlgStrategyList@@IAEXXZ$1:
  00009	8d 4d e4	 lea	 ecx, DWORD PTR _strTextBackup$5[ebp]
  0000c	ff 25 00 00 00
	00		 jmp	 DWORD PTR __imp_??1?$CStringT@DV?$StrTraitMFC_DLL@DV?$ChTraitsCRT@D@ATL@@@@@ATL@@QAE@XZ
__unwindfunclet$?OnBtnUp@CDlgStrategyList@@IAEXXZ$2:
  00012	8d 4d dc	 lea	 ecx, DWORD PTR $T3[ebp]
  00015	ff 25 00 00 00
	00		 jmp	 DWORD PTR __imp_??1?$CStringT@DV?$StrTraitMFC_DLL@DV?$ChTraitsCRT@D@ATL@@@@@ATL@@QAE@XZ
__unwindfunclet$?OnBtnUp@CDlgStrategyList@@IAEXXZ$3:
  0001b	8d 4d d8	 lea	 ecx, DWORD PTR $T2[ebp]
  0001e	ff 25 00 00 00
	00		 jmp	 DWORD PTR __imp_??1?$CStringT@DV?$StrTraitMFC_DLL@DV?$ChTraitsCRT@D@ATL@@@@@ATL@@QAE@XZ
  00024	cc		 int	 3
  00025	cc		 int	 3
  00026	cc		 int	 3
  00027	cc		 int	 3
  00028	cc		 int	 3
__ehhandler$?OnBtnUp@CDlgStrategyList@@IAEXXZ:
  00029	90		 npad	 1
  0002a	90		 npad	 1
  0002b	8b 54 24 08	 mov	 edx, DWORD PTR [esp+8]
  0002f	8d 42 0c	 lea	 eax, DWORD PTR [edx+12]
  00032	8b 4a b4	 mov	 ecx, DWORD PTR [edx-76]
  00035	33 c8		 xor	 ecx, eax
  00037	e8 00 00 00 00	 call	 @__security_check_cookie@4
  0003c	b8 00 00 00 00	 mov	 eax, OFFSET __ehfuncinfo$?OnBtnUp@CDlgStrategyList@@IAEXXZ
  00041	e9 00 00 00 00	 jmp	 ___CxxFrameHandler3
text$x	ENDS
?OnBtnUp@CDlgStrategyList@@IAEXXZ ENDP			; CDlgStrategyList::OnBtnUp
; Function compile flags: /Ogtp
; File D:\git\src\IBK\IBK_DRFN\ProjSrc\SrcDrfn\Chart\HWSTRATEGYCONFIGUREWIZARD\DlgStrategyList.cpp
; File C:\Program Files (x86)\Microsoft Visual Studio\2019\Community\VC\Tools\MSVC\14.29.30133\atlmfc\include\afxwin2.inl
; File D:\git\src\IBK\IBK_DRFN\ProjSrc\SrcDrfn\Chart\HWSTRATEGYCONFIGUREWIZARD\DlgStrategyList.cpp
;	COMDAT ?OnBtnDown@CDlgStrategyList@@IAEXXZ
_TEXT	SEGMENT
_CellRangeOfSTList$ = -72				; size = 16
_nFormat$1$ = -56					; size = 4
_nFormatBackup$1$ = -52					; size = 4
_clrFgText$1$ = -48					; size = 4
_pSDItemInfoInRow$1$ = -44				; size = 4
$T2 = -40						; size = 4
$T3 = -36						; size = 4
_strText$4 = -32					; size = 4
_strTextBackup$5 = -28					; size = 4
tv324 = -24						; size = 4
_nRow$1$ = -20						; size = 4
_this$1$ = -16						; size = 4
__$EHRec$ = -12						; size = 12
?OnBtnDown@CDlgStrategyList@@IAEXXZ PROC		; CDlgStrategyList::OnBtnDown, COMDAT
; _this$ = ecx

; 889  : {

  00000	55		 push	 ebp
  00001	8b ec		 mov	 ebp, esp
  00003	6a ff		 push	 -1
  00005	68 00 00 00 00	 push	 __ehhandler$?OnBtnDown@CDlgStrategyList@@IAEXXZ
  0000a	64 a1 00 00 00
	00		 mov	 eax, DWORD PTR fs:0
  00010	50		 push	 eax
  00011	83 ec 3c	 sub	 esp, 60			; 0000003cH
  00014	53		 push	 ebx
  00015	56		 push	 esi
  00016	57		 push	 edi
  00017	a1 00 00 00 00	 mov	 eax, DWORD PTR ___security_cookie
  0001c	33 c5		 xor	 eax, ebp
  0001e	50		 push	 eax
  0001f	8d 45 f4	 lea	 eax, DWORD PTR __$EHRec$[ebp]
  00022	64 a3 00 00 00
	00		 mov	 DWORD PTR fs:0, eax
  00028	8b f1		 mov	 esi, ecx
  0002a	89 75 f0	 mov	 DWORD PTR _this$1$[ebp], esi

; 890  : 	CCellRange CellRangeOfSTList = m_GridSTList.GetSelectedCellRange();

  0002d	8d 45 b8	 lea	 eax, DWORD PTR _CellRangeOfSTList$[ebp]
  00030	8d 9e d8 0f 00
	00		 lea	 ebx, DWORD PTR [esi+4056]
  00036	50		 push	 eax
  00037	8b cb		 mov	 ecx, ebx
  00039	e8 00 00 00 00	 call	 ?GetSelectedCellRange@CGridCtrl@@QBE?AVCCellRange@@XZ ; CGridCtrl::GetSelectedCellRange

; 891  : 	int nRowCount = m_GridSTList.GetRowCount();
; 892  : 	int nRow = CellRangeOfSTList.GetMaxRow();

  0003e	8b 7d c0	 mov	 edi, DWORD PTR _CellRangeOfSTList$[ebp+8]
  00041	8b 8e f0 10 00
	00		 mov	 ecx, DWORD PTR [esi+4336]
  00047	89 7d ec	 mov	 DWORD PTR _nRow$1$[ebp], edi
  0004a	85 ff		 test	 edi, edi

; 893  : 	if(nRow>0&&nRow<(nRowCount-1)&&nRowCount>2)

  0004c	0f 8e f0 01 00
	00		 jle	 $LN5@OnBtnDown
  00052	8d 41 ff	 lea	 eax, DWORD PTR [ecx-1]
  00055	3b f8		 cmp	 edi, eax
  00057	0f 8d e5 01 00
	00		 jge	 $LN5@OnBtnDown
  0005d	83 f9 02	 cmp	 ecx, 2
  00060	0f 8e dc 01 00
	00		 jle	 $LN5@OnBtnDown

; 894  : 	{
; 895  : 		CSDItemInfo* pSDItemInfoInRow = NULL;
; 896  : 		CSDItemInfo* pSDItemInfoInRowBackup = NULL;
; 897  : 		CString strText;

  00066	8d 4d e0	 lea	 ecx, DWORD PTR _strText$4[ebp]
  00069	ff 15 00 00 00
	00		 call	 DWORD PTR __imp_??0?$CStringT@DV?$StrTraitMFC_DLL@DV?$ChTraitsCRT@D@ATL@@@@@ATL@@QAE@XZ

; 898  : 		CString strTextBackup;

  0006f	8d 4d e4	 lea	 ecx, DWORD PTR _strTextBackup$5[ebp]
  00072	c7 45 fc 00 00
	00 00		 mov	 DWORD PTR __$EHRec$[ebp+8], 0
  00079	ff 15 00 00 00
	00		 call	 DWORD PTR __imp_??0?$CStringT@DV?$StrTraitMFC_DLL@DV?$ChTraitsCRT@D@ATL@@@@@ATL@@QAE@XZ
  0007f	8d 47 01	 lea	 eax, DWORD PTR [edi+1]
  00082	c6 45 fc 01	 mov	 BYTE PTR __$EHRec$[ebp+8], 1

; 899  : 		COLORREF clrFgText;
; 900  : 		COLORREF clrFgTextBackup;
; 901  : 		UINT nFormat;
; 902  : 		UINT nFormatBackup;
; 903  : 
; 904  : 		for(int nCol=0;nCol<MAX_COL;nCol++)

  00086	33 f6		 xor	 esi, esi
  00088	89 45 e8	 mov	 DWORD PTR tv324[ebp], eax
  0008b	0f 1f 44 00 00	 npad	 5
$LL4@OnBtnDown:

; 905  : 		{
; 906  : 			strText = m_GridSTList.GetItemText(nRow,nCol);

  00090	56		 push	 esi
  00091	57		 push	 edi
  00092	8d 45 dc	 lea	 eax, DWORD PTR $T3[ebp]
  00095	8b cb		 mov	 ecx, ebx
  00097	50		 push	 eax
  00098	e8 00 00 00 00	 call	 ?GetItemText@CGridCtrl@@QBE?AV?$CStringT@DV?$StrTraitMFC_DLL@DV?$ChTraitsCRT@D@ATL@@@@@ATL@@HH@Z ; CGridCtrl::GetItemText
  0009d	50		 push	 eax
  0009e	8d 4d e0	 lea	 ecx, DWORD PTR _strText$4[ebp]
  000a1	c6 45 fc 02	 mov	 BYTE PTR __$EHRec$[ebp+8], 2
  000a5	ff 15 00 00 00
	00		 call	 DWORD PTR __imp_??4?$CStringT@DV?$StrTraitMFC_DLL@DV?$ChTraitsCRT@D@ATL@@@@@ATL@@QAEAAV01@ABV01@@Z
  000ab	8d 4d dc	 lea	 ecx, DWORD PTR $T3[ebp]
  000ae	c6 45 fc 01	 mov	 BYTE PTR __$EHRec$[ebp+8], 1
  000b2	ff 15 00 00 00
	00		 call	 DWORD PTR __imp_??1?$CStringT@DV?$StrTraitMFC_DLL@DV?$ChTraitsCRT@D@ATL@@@@@ATL@@QAE@XZ

; 907  : 			strTextBackup = m_GridSTList.GetItemText(nRow+1,nCol);

  000b8	56		 push	 esi
  000b9	8d 47 01	 lea	 eax, DWORD PTR [edi+1]
  000bc	8b cb		 mov	 ecx, ebx
  000be	50		 push	 eax
  000bf	8d 45 d8	 lea	 eax, DWORD PTR $T2[ebp]
  000c2	50		 push	 eax
  000c3	e8 00 00 00 00	 call	 ?GetItemText@CGridCtrl@@QBE?AV?$CStringT@DV?$StrTraitMFC_DLL@DV?$ChTraitsCRT@D@ATL@@@@@ATL@@HH@Z ; CGridCtrl::GetItemText
  000c8	50		 push	 eax
  000c9	8d 4d e4	 lea	 ecx, DWORD PTR _strTextBackup$5[ebp]
  000cc	c6 45 fc 03	 mov	 BYTE PTR __$EHRec$[ebp+8], 3
  000d0	ff 15 00 00 00
	00		 call	 DWORD PTR __imp_??4?$CStringT@DV?$StrTraitMFC_DLL@DV?$ChTraitsCRT@D@ATL@@@@@ATL@@QAEAAV01@ABV01@@Z
  000d6	8d 4d d8	 lea	 ecx, DWORD PTR $T2[ebp]
  000d9	c6 45 fc 01	 mov	 BYTE PTR __$EHRec$[ebp+8], 1
  000dd	ff 15 00 00 00
	00		 call	 DWORD PTR __imp_??1?$CStringT@DV?$StrTraitMFC_DLL@DV?$ChTraitsCRT@D@ATL@@@@@ATL@@QAE@XZ

; 908  : 			pSDItemInfoInRow = (CSDItemInfo*)m_GridSTList.GetItemData(nRow,nCol);

  000e3	56		 push	 esi
  000e4	57		 push	 edi
  000e5	8b cb		 mov	 ecx, ebx
  000e7	e8 00 00 00 00	 call	 ?GetItemData@CGridCtrl@@QBEJHH@Z ; CGridCtrl::GetItemData
  000ec	89 45 d4	 mov	 DWORD PTR _pSDItemInfoInRow$1$[ebp], eax

; 909  : 			pSDItemInfoInRowBackup = (CSDItemInfo*)m_GridSTList.GetItemData(nRow+1,nCol);

  000ef	8b cb		 mov	 ecx, ebx
  000f1	56		 push	 esi
  000f2	8d 47 01	 lea	 eax, DWORD PTR [edi+1]
  000f5	50		 push	 eax
  000f6	e8 00 00 00 00	 call	 ?GetItemData@CGridCtrl@@QBEJHH@Z ; CGridCtrl::GetItemData

; 910  : 			clrFgText = m_GridSTList.GetItemFgColour(nRow,nCol);

  000fb	56		 push	 esi
  000fc	ff 75 ec	 push	 DWORD PTR _nRow$1$[ebp]
  000ff	8b cb		 mov	 ecx, ebx
  00101	8b f8		 mov	 edi, eax
  00103	e8 00 00 00 00	 call	 ?GetItemFgColour@CGridCtrl@@QBEKHH@Z ; CGridCtrl::GetItemFgColour

; 911  : 			clrFgTextBackup = m_GridSTList.GetItemFgColour(nRow+1,nCol);

  00108	56		 push	 esi
  00109	ff 75 e8	 push	 DWORD PTR tv324[ebp]
  0010c	8b cb		 mov	 ecx, ebx
  0010e	89 45 d0	 mov	 DWORD PTR _clrFgText$1$[ebp], eax
  00111	e8 00 00 00 00	 call	 ?GetItemFgColour@CGridCtrl@@QBEKHH@Z ; CGridCtrl::GetItemFgColour

; 912  : 			nFormat = m_GridSTList.GetItemFormat(nRow,nCol);

  00116	8b 4d f0	 mov	 ecx, DWORD PTR _this$1$[ebp]
  00119	8b d8		 mov	 ebx, eax
  0011b	56		 push	 esi
  0011c	ff 75 ec	 push	 DWORD PTR _nRow$1$[ebp]
  0011f	8d 89 d8 0f 00
	00		 lea	 ecx, DWORD PTR [ecx+4056]
  00125	e8 00 00 00 00	 call	 ?GetItemFormat@CGridCtrl@@QBEIHH@Z ; CGridCtrl::GetItemFormat

; 913  : 			nFormatBackup = m_GridSTList.GetItemFormat(nRow+1,nCol);			

  0012a	8b 4d f0	 mov	 ecx, DWORD PTR _this$1$[ebp]
  0012d	56		 push	 esi
  0012e	ff 75 e8	 push	 DWORD PTR tv324[ebp]
  00131	89 45 c8	 mov	 DWORD PTR _nFormat$1$[ebp], eax
  00134	8d 89 d8 0f 00
	00		 lea	 ecx, DWORD PTR [ecx+4056]
  0013a	e8 00 00 00 00	 call	 ?GetItemFormat@CGridCtrl@@QBEIHH@Z ; CGridCtrl::GetItemFormat

; 914  : 
; 915  : 			m_GridSTList.SetItemText(nRow,nCol,strTextBackup);

  0013f	ff 75 e4	 push	 DWORD PTR _strTextBackup$5[ebp]
  00142	8b 4d f0	 mov	 ecx, DWORD PTR _this$1$[ebp]
  00145	56		 push	 esi
  00146	ff 75 ec	 push	 DWORD PTR _nRow$1$[ebp]
  00149	89 45 cc	 mov	 DWORD PTR _nFormatBackup$1$[ebp], eax
  0014c	8d 89 d8 0f 00
	00		 lea	 ecx, DWORD PTR [ecx+4056]
  00152	e8 00 00 00 00	 call	 ?SetItemText@CGridCtrl@@QAEHHHPBD@Z ; CGridCtrl::SetItemText

; 916  : 			m_GridSTList.SetItemText(nRow+1,nCol,strText);

  00157	ff 75 e0	 push	 DWORD PTR _strText$4[ebp]
  0015a	8b 4d f0	 mov	 ecx, DWORD PTR _this$1$[ebp]
  0015d	56		 push	 esi
  0015e	ff 75 e8	 push	 DWORD PTR tv324[ebp]
  00161	8d 89 d8 0f 00
	00		 lea	 ecx, DWORD PTR [ecx+4056]
  00167	e8 00 00 00 00	 call	 ?SetItemText@CGridCtrl@@QAEHHHPBD@Z ; CGridCtrl::SetItemText

; 917  : 			m_GridSTList.SetItemData(nRow,nCol,(long)pSDItemInfoInRowBackup);

  0016c	57		 push	 edi
  0016d	8b 7d f0	 mov	 edi, DWORD PTR _this$1$[ebp]
  00170	56		 push	 esi
  00171	ff 75 ec	 push	 DWORD PTR _nRow$1$[ebp]
  00174	8d 8f d8 0f 00
	00		 lea	 ecx, DWORD PTR [edi+4056]
  0017a	e8 00 00 00 00	 call	 ?SetItemData@CGridCtrl@@QAEHHHJ@Z ; CGridCtrl::SetItemData

; 918  : 			m_GridSTList.SetItemData(nRow+1,nCol,(long)pSDItemInfoInRow);			

  0017f	ff 75 d4	 push	 DWORD PTR _pSDItemInfoInRow$1$[ebp]
  00182	56		 push	 esi
  00183	ff 75 e8	 push	 DWORD PTR tv324[ebp]
  00186	8d 8f d8 0f 00
	00		 lea	 ecx, DWORD PTR [edi+4056]
  0018c	e8 00 00 00 00	 call	 ?SetItemData@CGridCtrl@@QAEHHHJ@Z ; CGridCtrl::SetItemData

; 919  : 			m_GridSTList.SetItemFgColour(nRow,nCol,clrFgTextBackup);

  00191	8b 7d ec	 mov	 edi, DWORD PTR _nRow$1$[ebp]
  00194	53		 push	 ebx
  00195	8b 5d f0	 mov	 ebx, DWORD PTR _this$1$[ebp]
  00198	56		 push	 esi
  00199	81 c3 d8 0f 00
	00		 add	 ebx, 4056		; 00000fd8H
  0019f	57		 push	 edi
  001a0	8b cb		 mov	 ecx, ebx
  001a2	e8 00 00 00 00	 call	 ?SetItemFgColour@CGridCtrl@@QAEHHHK@Z ; CGridCtrl::SetItemFgColour

; 920  : 			m_GridSTList.SetItemFgColour(nRow+1,nCol,clrFgText);

  001a7	ff 75 d0	 push	 DWORD PTR _clrFgText$1$[ebp]
  001aa	8d 47 01	 lea	 eax, DWORD PTR [edi+1]
  001ad	8b cb		 mov	 ecx, ebx
  001af	56		 push	 esi
  001b0	50		 push	 eax
  001b1	e8 00 00 00 00	 call	 ?SetItemFgColour@CGridCtrl@@QAEHHHK@Z ; CGridCtrl::SetItemFgColour

; 921  : 			m_GridSTList.SetItemFormat(nRow,nCol,nFormatBackup);

  001b6	ff 75 cc	 push	 DWORD PTR _nFormatBackup$1$[ebp]
  001b9	8b cb		 mov	 ecx, ebx
  001bb	56		 push	 esi
  001bc	57		 push	 edi
  001bd	e8 00 00 00 00	 call	 ?SetItemFormat@CGridCtrl@@QAEHHHI@Z ; CGridCtrl::SetItemFormat

; 922  : 			m_GridSTList.SetItemFormat(nRow+1,nCol,nFormat);

  001c2	ff 75 c8	 push	 DWORD PTR _nFormat$1$[ebp]
  001c5	8d 47 01	 lea	 eax, DWORD PTR [edi+1]
  001c8	8b cb		 mov	 ecx, ebx
  001ca	56		 push	 esi
  001cb	50		 push	 eax
  001cc	e8 00 00 00 00	 call	 ?SetItemFormat@CGridCtrl@@QAEHHHI@Z ; CGridCtrl::SetItemFormat

; 923  : 			if(nCol==COL_NO)

  001d1	85 f6		 test	 esi, esi
  001d3	75 2a		 jne	 SHORT $LN2@OnBtnDown

; 924  : 				m_ctrlLogic.SwapElement(strText[0],strTextBackup[0]);

  001d5	56		 push	 esi
  001d6	8d 4d e4	 lea	 ecx, DWORD PTR _strTextBackup$5[ebp]
  001d9	ff 15 00 00 00
	00		 call	 DWORD PTR __imp_??A?$CSimpleStringT@D$00@ATL@@QBEDH@Z
  001df	0f b6 c0	 movzx	 eax, al
  001e2	8d 4d e0	 lea	 ecx, DWORD PTR _strText$4[ebp]
  001e5	50		 push	 eax
  001e6	56		 push	 esi
  001e7	ff 15 00 00 00
	00		 call	 DWORD PTR __imp_??A?$CSimpleStringT@D$00@ATL@@QBEDH@Z
  001ed	8b 4d f0	 mov	 ecx, DWORD PTR _this$1$[ebp]
  001f0	0f b6 c0	 movzx	 eax, al
  001f3	50		 push	 eax
  001f4	8d 89 30 02 00
	00		 lea	 ecx, DWORD PTR [ecx+560]
  001fa	e8 00 00 00 00	 call	 ?SwapElement@CLogicEditCtrl@@QAEXDD@Z ; CLogicEditCtrl::SwapElement
$LN2@OnBtnDown:

; 899  : 		COLORREF clrFgText;
; 900  : 		COLORREF clrFgTextBackup;
; 901  : 		UINT nFormat;
; 902  : 		UINT nFormatBackup;
; 903  : 
; 904  : 		for(int nCol=0;nCol<MAX_COL;nCol++)

  001ff	46		 inc	 esi
  00200	83 fe 05	 cmp	 esi, 5
  00203	0f 8c 87 fe ff
	ff		 jl	 $LL4@OnBtnDown

; 925  : 		}
; 926  : 		m_GridSTList.SetSelectedRange(nRow+1,0,nRow+1,MAX_COL-1);

  00209	8b 45 e8	 mov	 eax, DWORD PTR tv324[ebp]
  0020c	8b cb		 mov	 ecx, ebx
  0020e	6a 01		 push	 1
  00210	6a 00		 push	 0
  00212	6a 04		 push	 4
  00214	50		 push	 eax
  00215	6a 00		 push	 0
  00217	50		 push	 eax
  00218	e8 00 00 00 00	 call	 ?SetSelectedRange@CGridCtrl@@QAEXHHHHHH@Z ; CGridCtrl::SetSelectedRange
; File C:\Program Files (x86)\Microsoft Visual Studio\2019\Community\VC\Tools\MSVC\14.29.30133\atlmfc\include\afxwin2.inl

; 114  : 	{ ASSERT(::IsWindow(m_hWnd)); ::InvalidateRect(m_hWnd, NULL, bErase); }

  0021d	8b 45 f0	 mov	 eax, DWORD PTR _this$1$[ebp]
  00220	6a 01		 push	 1
  00222	6a 00		 push	 0
  00224	ff b0 f8 0f 00
	00		 push	 DWORD PTR [eax+4088]
  0022a	ff 15 00 00 00
	00		 call	 DWORD PTR __imp__InvalidateRect@12
; File D:\git\src\IBK\IBK_DRFN\ProjSrc\SrcDrfn\Chart\HWSTRATEGYCONFIGUREWIZARD\DlgStrategyList.cpp

; 928  : 	}

  00230	8d 4d e4	 lea	 ecx, DWORD PTR _strTextBackup$5[ebp]
  00233	ff 15 00 00 00
	00		 call	 DWORD PTR __imp_??1?$CStringT@DV?$StrTraitMFC_DLL@DV?$ChTraitsCRT@D@ATL@@@@@ATL@@QAE@XZ
  00239	8d 4d e0	 lea	 ecx, DWORD PTR _strText$4[ebp]
  0023c	ff 15 00 00 00
	00		 call	 DWORD PTR __imp_??1?$CStringT@DV?$StrTraitMFC_DLL@DV?$ChTraitsCRT@D@ATL@@@@@ATL@@QAE@XZ
$LN5@OnBtnDown:

; 929  : }

  00242	8b 4d f4	 mov	 ecx, DWORD PTR __$EHRec$[ebp]
  00245	64 89 0d 00 00
	00 00		 mov	 DWORD PTR fs:0, ecx
  0024c	59		 pop	 ecx
  0024d	5f		 pop	 edi
  0024e	5e		 pop	 esi
  0024f	5b		 pop	 ebx
  00250	8b e5		 mov	 esp, ebp
  00252	5d		 pop	 ebp
  00253	c3		 ret	 0
_TEXT	ENDS
;	COMDAT text$x
text$x	SEGMENT
__unwindfunclet$?OnBtnDown@CDlgStrategyList@@IAEXXZ$0:
  00000	8d 4d e0	 lea	 ecx, DWORD PTR _strText$4[ebp]
  00003	ff 25 00 00 00
	00		 jmp	 DWORD PTR __imp_??1?$CStringT@DV?$StrTraitMFC_DLL@DV?$ChTraitsCRT@D@ATL@@@@@ATL@@QAE@XZ
__unwindfunclet$?OnBtnDown@CDlgStrategyList@@IAEXXZ$1:
  00009	8d 4d e4	 lea	 ecx, DWORD PTR _strTextBackup$5[ebp]
  0000c	ff 25 00 00 00
	00		 jmp	 DWORD PTR __imp_??1?$CStringT@DV?$StrTraitMFC_DLL@DV?$ChTraitsCRT@D@ATL@@@@@ATL@@QAE@XZ
__unwindfunclet$?OnBtnDown@CDlgStrategyList@@IAEXXZ$2:
  00012	8d 4d dc	 lea	 ecx, DWORD PTR $T3[ebp]
  00015	ff 25 00 00 00
	00		 jmp	 DWORD PTR __imp_??1?$CStringT@DV?$StrTraitMFC_DLL@DV?$ChTraitsCRT@D@ATL@@@@@ATL@@QAE@XZ
__unwindfunclet$?OnBtnDown@CDlgStrategyList@@IAEXXZ$3:
  0001b	8d 4d d8	 lea	 ecx, DWORD PTR $T2[ebp]
  0001e	ff 25 00 00 00
	00		 jmp	 DWORD PTR __imp_??1?$CStringT@DV?$StrTraitMFC_DLL@DV?$ChTraitsCRT@D@ATL@@@@@ATL@@QAE@XZ
  00024	cc		 int	 3
  00025	cc		 int	 3
  00026	cc		 int	 3
  00027	cc		 int	 3
  00028	cc		 int	 3
__ehhandler$?OnBtnDown@CDlgStrategyList@@IAEXXZ:
  00029	90		 npad	 1
  0002a	90		 npad	 1
  0002b	8b 54 24 08	 mov	 edx, DWORD PTR [esp+8]
  0002f	8d 42 0c	 lea	 eax, DWORD PTR [edx+12]
  00032	8b 4a b4	 mov	 ecx, DWORD PTR [edx-76]
  00035	33 c8		 xor	 ecx, eax
  00037	e8 00 00 00 00	 call	 @__security_check_cookie@4
  0003c	b8 00 00 00 00	 mov	 eax, OFFSET __ehfuncinfo$?OnBtnDown@CDlgStrategyList@@IAEXXZ
  00041	e9 00 00 00 00	 jmp	 ___CxxFrameHandler3
text$x	ENDS
?OnBtnDown@CDlgStrategyList@@IAEXXZ ENDP		; CDlgStrategyList::OnBtnDown
; Function compile flags: /Ogtp
; File D:\git\src\IBK\IBK_DRFN\ProjSrc\SrcDrfn\Chart\HWSTRATEGYCONFIGUREWIZARD\DlgStrategyList.cpp
; File C:\Program Files (x86)\Microsoft Visual Studio\2019\Community\VC\Tools\MSVC\14.29.30133\atlmfc\include\afxwin2.inl
; File D:\git\src\IBK\IBK_DRFN\ProjSrc\SrcDrfn\Chart\HWSTRATEGYCONFIGUREWIZARD\DlgStrategyList.cpp
; File C:\Program Files (x86)\Microsoft Visual Studio\2019\Community\VC\Tools\MSVC\14.29.30133\atlmfc\include\afxwin2.inl
; File D:\git\src\IBK\IBK_DRFN\ProjSrc\SrcDrfn\Chart\HWSTRATEGYCONFIGUREWIZARD\DlgStrategyList.cpp
;	COMDAT ?OnBtnInit@CDlgStrategyList@@IAEXXZ
_TEXT	SEGMENT
?OnBtnInit@CDlgStrategyList@@IAEXXZ PROC		; CDlgStrategyList::OnBtnInit, COMDAT
; _this$ = ecx

; 871  : {

  00000	56		 push	 esi
  00001	57		 push	 edi
  00002	8b f9		 mov	 edi, ecx

; 872  : 	m_nFlagCnt = 0;
; 873  : 
; 874  : 	GetDlgItem(IDC_BTN_STCONFIGDLG)->EnableWindow(FALSE);

  00004	6a 00		 push	 0
  00006	68 f5 03 00 00	 push	 1013			; 000003f5H
  0000b	c7 87 6c 14 00
	00 00 00 00 00	 mov	 DWORD PTR [edi+5228], 0
  00015	e8 00 00 00 00	 call	 ?GetDlgItem@CWnd@@QBEPAV1@H@Z ; CWnd::GetDlgItem
  0001a	8b c8		 mov	 ecx, eax
  0001c	e8 00 00 00 00	 call	 ?EnableWindow@CWnd@@QAEHH@Z ; CWnd::EnableWindow

; 875  : 	GetDlgItem(IDC_BTN_STRUN)->EnableWindow(FALSE);

  00021	6a 00		 push	 0
  00023	68 f6 03 00 00	 push	 1014			; 000003f6H
  00028	8b cf		 mov	 ecx, edi
  0002a	e8 00 00 00 00	 call	 ?GetDlgItem@CWnd@@QBEPAV1@H@Z ; CWnd::GetDlgItem
  0002f	8b c8		 mov	 ecx, eax
  00031	e8 00 00 00 00	 call	 ?EnableWindow@CWnd@@QAEHH@Z ; CWnd::EnableWindow

; 876  : 	GetDlgItem(IDC_BTN_STDELETE)->EnableWindow(FALSE);

  00036	6a 00		 push	 0
  00038	68 86 69 00 00	 push	 27014			; 00006986H
  0003d	8b cf		 mov	 ecx, edi
  0003f	e8 00 00 00 00	 call	 ?GetDlgItem@CWnd@@QBEPAV1@H@Z ; CWnd::GetDlgItem
  00044	8b c8		 mov	 ecx, eax
  00046	e8 00 00 00 00	 call	 ?EnableWindow@CWnd@@QAEHH@Z ; CWnd::EnableWindow

; 831  : 	for(int nPos=nRowCount-1;nPos>0;nPos--)

  0004b	8b b7 f0 10 00
	00		 mov	 esi, DWORD PTR [edi+4336]
  00051	4e		 dec	 esi
  00052	85 f6		 test	 esi, esi
  00054	7e 1c		 jle	 SHORT $LN6@OnBtnInit
  00056	53		 push	 ebx
  00057	66 0f 1f 84 00
	00 00 00 00	 npad	 9
$LL7@OnBtnInit:

; 832  : 	{
; 833  : 		m_GridSTList.DeleteRow(nPos);

  00060	56		 push	 esi
  00061	8d 8f d8 0f 00
	00		 lea	 ecx, DWORD PTR [edi+4056]
  00067	e8 00 00 00 00	 call	 ?DeleteRow@CGridCtrl@@QAEHH@Z ; CGridCtrl::DeleteRow
  0006c	4e		 dec	 esi
  0006d	85 f6		 test	 esi, esi
  0006f	7f ef		 jg	 SHORT $LL7@OnBtnInit
  00071	5b		 pop	 ebx
$LN6@OnBtnInit:

; 834  : 	}
; 835  : 	m_ctrlLogic.DeleteAllElement();

  00072	8d 8f 30 02 00
	00		 lea	 ecx, DWORD PTR [edi+560]
  00078	e8 00 00 00 00	 call	 ?DeleteAllElement@CLogicEditCtrl@@QAEXXZ ; CLogicEditCtrl::DeleteAllElement

; 879  : 	if(m_GridSTList.GetSafeHwnd()) m_GridSTList.Invalidate();

  0007d	8d 87 d8 0f 00
	00		 lea	 eax, DWORD PTR [edi+4056]

; 836  : 	m_chLastIndex = 'A';

  00083	c6 87 08 17 00
	00 41		 mov	 BYTE PTR [edi+5896], 65	; 00000041H
; File C:\Program Files (x86)\Microsoft Visual Studio\2019\Community\VC\Tools\MSVC\14.29.30133\atlmfc\include\afxwin2.inl

; 25   : 	{ return this == NULL ? NULL : m_hWnd; }

  0008a	85 c0		 test	 eax, eax
  0008c	74 16		 je	 SHORT $LN2@OnBtnInit
; File D:\git\src\IBK\IBK_DRFN\ProjSrc\SrcDrfn\Chart\HWSTRATEGYCONFIGUREWIZARD\DlgStrategyList.cpp

; 879  : 	if(m_GridSTList.GetSafeHwnd()) m_GridSTList.Invalidate();

  0008e	83 78 20 00	 cmp	 DWORD PTR [eax+32], 0
  00092	74 10		 je	 SHORT $LN2@OnBtnInit
; File C:\Program Files (x86)\Microsoft Visual Studio\2019\Community\VC\Tools\MSVC\14.29.30133\atlmfc\include\afxwin2.inl

; 114  : 	{ ASSERT(::IsWindow(m_hWnd)); ::InvalidateRect(m_hWnd, NULL, bErase); }

  00094	6a 01		 push	 1
  00096	6a 00		 push	 0
  00098	ff b7 f8 0f 00
	00		 push	 DWORD PTR [edi+4088]
  0009e	ff 15 00 00 00
	00		 call	 DWORD PTR __imp__InvalidateRect@12
$LN2@OnBtnInit:
; File D:\git\src\IBK\IBK_DRFN\ProjSrc\SrcDrfn\Chart\HWSTRATEGYCONFIGUREWIZARD\DlgStrategyList.cpp

; 880  : 	m_editSTTitle.SetWindowText("");

  000a4	68 00 00 00 00	 push	 OFFSET ??_C@_00CNPNBAHC@@
  000a9	8d 8f a8 00 00
	00		 lea	 ecx, DWORD PTR [edi+168]
  000af	e8 00 00 00 00	 call	 ?SetWindowTextA@CWnd@@QAEXPBD@Z ; CWnd::SetWindowTextA

; 881  : 	m_szSTFilePath.Empty();

  000b4	8d 8f cc 0f 00
	00		 lea	 ecx, DWORD PTR [edi+4044]
  000ba	ff 15 00 00 00
	00		 call	 DWORD PTR __imp_?Empty@?$CSimpleStringT@D$00@ATL@@QAEXXZ

; 882  : 
; 883  : 	//   
; 884  : 	SetDlgItemText(IDC_EDIT_STNAME, "");

  000c0	68 00 00 00 00	 push	 OFFSET ??_C@_00CNPNBAHC@@
  000c5	68 0a 52 00 00	 push	 21002			; 0000520aH
  000ca	8b cf		 mov	 ecx, edi
  000cc	e8 00 00 00 00	 call	 ?SetDlgItemTextA@CWnd@@QAEXHPBD@Z ; CWnd::SetDlgItemTextA

; 885  : 	m_InputList.DeleteAllItems();

  000d1	8d 8f 18 0e 00
	00		 lea	 ecx, DWORD PTR [edi+3608]
  000d7	5f		 pop	 edi
  000d8	5e		 pop	 esi
  000d9	e9 00 00 00 00	 jmp	 ?DeleteAllItems@CXListCtrl@@QAEHXZ ; CXListCtrl::DeleteAllItems
?OnBtnInit@CDlgStrategyList@@IAEXXZ ENDP		; CDlgStrategyList::OnBtnInit
_TEXT	ENDS
; Function compile flags: /Ogtp
; File D:\git\src\IBK\IBK_DRFN\ProjSrc\SrcDrfn\Chart\HWSTRATEGYCONFIGUREWIZARD\DlgStrategyList.cpp
; File C:\Program Files (x86)\Microsoft Visual Studio\2019\Community\VC\Tools\MSVC\14.29.30133\atlmfc\include\afxwin1.inl
; File D:\git\src\IBK\IBK_DRFN\ProjSrc\SrcDrfn\Chart\HWSTRATEGYCONFIGUREWIZARD\DlgStrategyList.cpp
;	COMDAT ?OnDestroy@CDlgStrategyList@@IAEXXZ
_TEXT	SEGMENT
?OnDestroy@CDlgStrategyList@@IAEXXZ PROC		; CDlgStrategyList::OnDestroy, COMDAT
; _this$ = ecx

; 813  : {

  00000	56		 push	 esi
  00001	57		 push	 edi
  00002	8b f9		 mov	 edi, ecx

; 814  : 	CDialog::OnDestroy();

  00004	e8 00 00 00 00	 call	 ?OnDestroy@CWnd@@IAEXXZ	; CWnd::OnDestroy

; 819  : 	if(m_Font.GetSafeHandle())

  00009	8d 8f 74 14 00
	00		 lea	 ecx, DWORD PTR [edi+5236]
; File C:\Program Files (x86)\Microsoft Visual Studio\2019\Community\VC\Tools\MSVC\14.29.30133\atlmfc\include\afxwin1.inl

; 68   : 	{ return this == NULL ? NULL : m_hObject; }

  0000f	85 c9		 test	 ecx, ecx
  00011	74 0b		 je	 SHORT $LN2@OnDestroy
; File D:\git\src\IBK\IBK_DRFN\ProjSrc\SrcDrfn\Chart\HWSTRATEGYCONFIGUREWIZARD\DlgStrategyList.cpp

; 819  : 	if(m_Font.GetSafeHandle())

  00013	83 79 04 00	 cmp	 DWORD PTR [ecx+4], 0
  00017	74 05		 je	 SHORT $LN2@OnDestroy

; 820  : 		m_Font.DeleteObject();

  00019	e8 00 00 00 00	 call	 ?DeleteObject@CGdiObject@@QAEHXZ ; CGdiObject::DeleteObject
$LN2@OnDestroy:

; 821  : 	
; 822  : 	m_brBkColor.DeleteObject();

  0001e	8d 8f 00 17 00
	00		 lea	 ecx, DWORD PTR [edi+5888]
  00024	e8 00 00 00 00	 call	 ?DeleteObject@CGdiObject@@QAEHXZ ; CGdiObject::DeleteObject

; 823  : 	m_dlgTimeSelector.DestroyWindow();

  00029	8b 87 90 14 00
	00		 mov	 eax, DWORD PTR [edi+5264]
  0002f	8d 8f 90 14 00
	00		 lea	 ecx, DWORD PTR [edi+5264]
  00035	ff 50 68	 call	 DWORD PTR [eax+104]

; 831  : 	for(int nPos=nRowCount-1;nPos>0;nPos--)

  00038	8b b7 f0 10 00
	00		 mov	 esi, DWORD PTR [edi+4336]
  0003e	4e		 dec	 esi
  0003f	85 f6		 test	 esi, esi
  00041	7e 13		 jle	 SHORT $LN10@OnDestroy
  00043	53		 push	 ebx
$LL11@OnDestroy:

; 832  : 	{
; 833  : 		m_GridSTList.DeleteRow(nPos);

  00044	56		 push	 esi
  00045	8d 8f d8 0f 00
	00		 lea	 ecx, DWORD PTR [edi+4056]
  0004b	e8 00 00 00 00	 call	 ?DeleteRow@CGridCtrl@@QAEHH@Z ; CGridCtrl::DeleteRow
  00050	4e		 dec	 esi
  00051	85 f6		 test	 esi, esi
  00053	7f ef		 jg	 SHORT $LL11@OnDestroy
  00055	5b		 pop	 ebx
$LN10@OnDestroy:

; 834  : 	}
; 835  : 	m_ctrlLogic.DeleteAllElement();

  00056	8d 8f 30 02 00
	00		 lea	 ecx, DWORD PTR [edi+560]
  0005c	e8 00 00 00 00	 call	 ?DeleteAllElement@CLogicEditCtrl@@QAEXXZ ; CLogicEditCtrl::DeleteAllElement

; 836  : 	m_chLastIndex = 'A';

  00061	c6 87 08 17 00
	00 41		 mov	 BYTE PTR [edi+5896], 65	; 00000041H
  00068	5f		 pop	 edi
  00069	5e		 pop	 esi

; 824  : 	DeleteAllItem();
; 825  : }

  0006a	c3		 ret	 0
?OnDestroy@CDlgStrategyList@@IAEXXZ ENDP		; CDlgStrategyList::OnDestroy
_TEXT	ENDS
; Function compile flags: /Ogtp
; File D:\git\src\IBK\IBK_DRFN\ProjSrc\SrcDrfn\Chart\HWSTRATEGYCONFIGUREWIZARD\DlgStrategyList.cpp
; File C:\Program Files (x86)\Microsoft Visual Studio\2019\Community\VC\Tools\MSVC\14.29.30133\atlmfc\include\afxwin2.inl
; File D:\git\src\IBK\IBK_DRFN\ProjSrc\SrcDrfn\Chart\HWSTRATEGYCONFIGUREWIZARD\DlgStrategyList.cpp
;	COMDAT ?OnSize@CDlgStrategyList@@IAEXIHH@Z
_TEXT	SEGMENT
_nType$ = 8						; size = 4
_cx$ = 12						; size = 4
_cy$ = 16						; size = 4
?OnSize@CDlgStrategyList@@IAEXIHH@Z PROC		; CDlgStrategyList::OnSize, COMDAT
; _this$ = ecx
; File C:\Program Files (x86)\Microsoft Visual Studio\2019\Community\VC\Tools\MSVC\14.29.30133\atlmfc\include\afxwin2.inl

; 330  : 	{ Default(); }

  00000	e8 00 00 00 00	 call	 ?Default@CWnd@@IAEJXZ	; CWnd::Default
; File D:\git\src\IBK\IBK_DRFN\ProjSrc\SrcDrfn\Chart\HWSTRATEGYCONFIGUREWIZARD\DlgStrategyList.cpp

; 267  : }

  00005	c2 0c 00	 ret	 12			; 0000000cH
?OnSize@CDlgStrategyList@@IAEXIHH@Z ENDP		; CDlgStrategyList::OnSize
_TEXT	ENDS
; Function compile flags: /Ogtp
; File D:\git\src\IBK\IBK_DRFN\ProjSrc\SrcDrfn\Chart\HWSTRATEGYCONFIGUREWIZARD\DlgStrategyList.cpp
; File C:\Program Files (x86)\Microsoft Visual Studio\2019\Community\VC\Tools\MSVC\14.29.30133\atlmfc\include\afxwin2.inl
; File D:\git\src\IBK\IBK_DRFN\ProjSrc\SrcDrfn\Chart\HWSTRATEGYCONFIGUREWIZARD\DlgStrategyList.cpp
;	COMDAT ?OnTimer@CDlgStrategyList@@IAEXI@Z
_TEXT	SEGMENT
_nIDEvent$ = 8						; size = 4
?OnTimer@CDlgStrategyList@@IAEXI@Z PROC			; CDlgStrategyList::OnTimer, COMDAT
; _this$ = ecx

; 1603 : {

  00000	55		 push	 ebp
  00001	8b ec		 mov	 ebp, esp

; 1604 : 	if(nIDEvent==TID_KILL_DIALOG)

  00003	83 7d 08 0a	 cmp	 DWORD PTR _nIDEvent$[ebp], 10 ; 0000000aH
  00007	57		 push	 edi
  00008	8b f9		 mov	 edi, ecx
  0000a	75 3b		 jne	 SHORT $LN2@OnTimer
; File C:\Program Files (x86)\Microsoft Visual Studio\2019\Community\VC\Tools\MSVC\14.29.30133\atlmfc\include\afxwin2.inl

; 155  : 	{ ASSERT(::IsWindow(m_hWnd)); return ::KillTimer(m_hWnd, nIDEvent); }

  0000c	6a 0a		 push	 10			; 0000000aH
  0000e	ff 77 20	 push	 DWORD PTR [edi+32]
  00011	ff 15 00 00 00
	00		 call	 DWORD PTR __imp__KillTimer@8

; 213  : 	{ ASSERT(::IsWindow(m_hWnd)); return CWnd::FromHandle(::GetParent(m_hWnd)); }

  00017	ff 77 20	 push	 DWORD PTR [edi+32]
  0001a	ff 15 00 00 00
	00		 call	 DWORD PTR __imp__GetParent@4
  00020	50		 push	 eax
  00021	e8 00 00 00 00	 call	 ?FromHandle@CWnd@@SGPAV1@PAUHWND__@@@Z ; CWnd::FromHandle
  00026	ff 70 20	 push	 DWORD PTR [eax+32]
  00029	ff 15 00 00 00
	00		 call	 DWORD PTR __imp__GetParent@4
  0002f	50		 push	 eax
  00030	e8 00 00 00 00	 call	 ?FromHandle@CWnd@@SGPAV1@PAUHWND__@@@Z ; CWnd::FromHandle

; 32   : 	{ ASSERT(::IsWindow(m_hWnd)); return ::SendMessage(m_hWnd, message, wParam, lParam); }

  00035	6a 00		 push	 0
  00037	6a 02		 push	 2
  00039	68 11 01 00 00	 push	 273			; 00000111H
  0003e	ff 70 20	 push	 DWORD PTR [eax+32]
  00041	ff 15 00 00 00
	00		 call	 DWORD PTR __imp__SendMessageA@16
$LN2@OnTimer:

; 466  : 	{ Default(); }

  00047	8b cf		 mov	 ecx, edi
  00049	e8 00 00 00 00	 call	 ?Default@CWnd@@IAEJXZ	; CWnd::Default
  0004e	5f		 pop	 edi
; File D:\git\src\IBK\IBK_DRFN\ProjSrc\SrcDrfn\Chart\HWSTRATEGYCONFIGUREWIZARD\DlgStrategyList.cpp

; 1611 : }

  0004f	5d		 pop	 ebp
  00050	c2 04 00	 ret	 4
?OnTimer@CDlgStrategyList@@IAEXI@Z ENDP			; CDlgStrategyList::OnTimer
_TEXT	ENDS
; Function compile flags: /Ogtp
; File D:\git\src\IBK\IBK_DRFN\ProjSrc\SrcDrfn\Chart\HWSTRATEGYCONFIGUREWIZARD\DlgStrategyList.cpp
; File C:\Program Files (x86)\Microsoft Visual Studio\2019\Community\VC\Tools\MSVC\14.29.30133\atlmfc\include\afxcmn2.inl
; File D:\git\src\IBK\IBK_DRFN\ProjSrc\SrcDrfn\Chart\HWSTRATEGYCONFIGUREWIZARD\DlgStrategyList.cpp
; File C:\Program Files (x86)\Microsoft Visual Studio\2019\Community\VC\Tools\MSVC\14.29.30133\atlmfc\include\afxcmn2.inl
; File D:\git\src\IBK\IBK_DRFN\ProjSrc\SrcDrfn\Chart\HWSTRATEGYCONFIGUREWIZARD\DlgStrategyList.cpp
; File C:\Program Files (x86)\Microsoft Visual Studio\2019\Community\VC\Tools\MSVC\14.29.30133\atlmfc\include\afxcmn.inl
; File D:\git\src\IBK\IBK_DRFN\ProjSrc\SrcDrfn\Chart\HWSTRATEGYCONFIGUREWIZARD\DlgStrategyList.cpp
; File C:\Program Files (x86)\Microsoft Visual Studio\2019\Community\VC\Tools\MSVC\14.29.30133\atlmfc\include\afxcmn.inl
; File D:\git\src\IBK\IBK_DRFN\ProjSrc\SrcDrfn\Chart\HWSTRATEGYCONFIGUREWIZARD\DlgStrategyList.cpp
; File C:\Program Files (x86)\Microsoft Visual Studio\2019\Community\VC\Tools\MSVC\14.29.30133\atlmfc\include\afxcmn.inl
; File D:\git\src\IBK\IBK_DRFN\ProjSrc\SrcDrfn\Chart\HWSTRATEGYCONFIGUREWIZARD\DlgStrategyList.cpp
; File C:\Program Files (x86)\Microsoft Visual Studio\2019\Community\VC\Tools\MSVC\14.29.30133\atlmfc\include\afxcmn.inl
; File D:\git\src\IBK\IBK_DRFN\ProjSrc\SrcDrfn\Chart\HWSTRATEGYCONFIGUREWIZARD\DlgStrategyList.cpp
; File C:\Program Files (x86)\Microsoft Visual Studio\2019\Community\VC\Tools\MSVC\14.29.30133\atlmfc\include\afxcmn.inl
; File D:\git\src\IBK\IBK_DRFN\ProjSrc\SrcDrfn\Chart\HWSTRATEGYCONFIGUREWIZARD\DlgStrategyList.cpp
; File C:\Program Files (x86)\Microsoft Visual Studio\2019\Community\VC\Tools\MSVC\14.29.30133\atlmfc\include\afxwin2.inl
; File D:\git\src\IBK\IBK_DRFN\ProjSrc\SrcDrfn\Chart\STConfigureDlg\Control\XListCtrl.h
; File C:\Program Files (x86)\Microsoft Visual Studio\2019\Community\VC\Tools\MSVC\14.29.30133\atlmfc\include\afxwin2.inl
; File D:\git\src\IBK\IBK_DRFN\ProjSrc\SrcDrfn\Chart\HWSTRATEGYCONFIGUREWIZARD\DlgStrategyList.cpp
; File C:\Program Files (x86)\Microsoft Visual Studio\2019\Community\VC\Tools\MSVC\14.29.30133\atlmfc\include\afxwin2.inl
; File D:\git\src\IBK\IBK_DRFN\ProjSrc\SrcDrfn\Chart\HWSTRATEGYCONFIGUREWIZARD\DlgStrategyList.cpp
; File C:\Program Files (x86)\Microsoft Visual Studio\2019\Community\VC\Tools\MSVC\14.29.30133\atlmfc\include\afxwin2.inl
; File D:\git\src\IBK\IBK_DRFN\ProjSrc\SrcDrfn\Chart\HWSTRATEGYCONFIGUREWIZARD\DlgStrategyList.cpp
; File C:\Program Files (x86)\Microsoft Visual Studio\2019\Community\VC\Tools\MSVC\14.29.30133\atlmfc\include\afxwin2.inl
; File D:\git\src\IBK\IBK_DRFN\ProjSrc\SrcDrfn\Chart\HWSTRATEGYCONFIGUREWIZARD\DlgStrategyList.cpp
; File C:\Program Files (x86)\Microsoft Visual Studio\2019\Community\VC\Tools\MSVC\14.29.30133\atlmfc\include\afxwin1.inl
; File D:\git\src\IBK\IBK_DRFN\ProjSrc\SrcDrfn\Chart\HWSTRATEGYCONFIGUREWIZARD\DlgStrategyList.cpp
; File C:\Program Files (x86)\Microsoft Visual Studio\2019\Community\VC\Tools\MSVC\14.29.30133\atlmfc\include\afxwin1.inl
; File D:\git\src\IBK\IBK_DRFN\ProjSrc\SrcDrfn\Chart\HWSTRATEGYCONFIGUREWIZARD\DlgStrategyList.cpp
; File C:\Program Files (x86)\Microsoft Visual Studio\2019\Community\VC\Tools\MSVC\14.29.30133\atlmfc\include\afxwin1.inl
; File D:\git\src\IBK\IBK_DRFN\ProjSrc\SrcDrfn\Chart\HWSTRATEGYCONFIGUREWIZARD\DlgStrategyList.cpp
; File C:\Program Files (x86)\Microsoft Visual Studio\2019\Community\VC\Tools\MSVC\14.29.30133\atlmfc\include\afxwin2.inl
; File D:\git\src\IBK\IBK_DRFN\ProjSrc\SrcDrfn\Chart\HWSTRATEGYCONFIGUREWIZARD\DlgStrategyList.cpp
;	COMDAT ?OnInitDialog@CDlgStrategyList@@MAEHXZ
_TEXT	SEGMENT
_lvcolumn$1 = -84					; size = 44
_colwidthsType0$2 = -40					; size = 24
_lpszHeadersType0$3 = -16				; size = 12
__$ArrayPad$ = -4					; size = 4
?OnInitDialog@CDlgStrategyList@@MAEHXZ PROC		; CDlgStrategyList::OnInitDialog, COMDAT
; _this$ = ecx

; 228  : {

  00000	55		 push	 ebp
  00001	8b ec		 mov	 ebp, esp
  00003	83 ec 54	 sub	 esp, 84			; 00000054H
  00006	a1 00 00 00 00	 mov	 eax, DWORD PTR ___security_cookie
  0000b	33 c5		 xor	 eax, ebp
  0000d	89 45 fc	 mov	 DWORD PTR __$ArrayPad$[ebp], eax
  00010	53		 push	 ebx
  00011	56		 push	 esi
  00012	57		 push	 edi
  00013	8b f9		 mov	 edi, ecx

; 229  : 	CDialog::OnInitDialog();

  00015	e8 00 00 00 00	 call	 ?OnInitDialog@CDialog@@UAEHXZ ; CDialog::OnInitDialog
; File C:\Program Files (x86)\Microsoft Visual Studio\2019\Community\VC\Tools\MSVC\14.29.30133\atlmfc\include\afxcmn2.inl

; 117  : 	{ ASSERT(::IsWindow(m_hWnd)); return (DWORD) ::SendMessage(m_hWnd, LVM_SETEXTENDEDLISTVIEWSTYLE, 0, (LPARAM) dwNewStyle); }

  0001a	8b 1d 00 00 00
	00		 mov	 ebx, DWORD PTR __imp__SendMessageA@16
  00020	0f 57 c0	 xorps	 xmm0, xmm0
  00023	6a 20		 push	 32			; 00000020H
  00025	6a 00		 push	 0
  00027	68 36 10 00 00	 push	 4150			; 00001036H
  0002c	ff b7 38 0e 00
	00		 push	 DWORD PTR [edi+3640]
; File D:\git\src\IBK\IBK_DRFN\ProjSrc\SrcDrfn\Chart\HWSTRATEGYCONFIGUREWIZARD\DlgStrategyList.cpp

; 1766 : 	int colwidthsType0[6] = { 90, 127};	// sixty-fourths

  00032	c7 45 d8 5a 00
	00 00		 mov	 DWORD PTR _colwidthsType0$2[ebp], 90 ; 0000005aH
  00039	c7 45 dc 7f 00
	00 00		 mov	 DWORD PTR _colwidthsType0$2[ebp+4], 127 ; 0000007fH
  00040	0f 11 45 e0	 movups	 XMMWORD PTR _colwidthsType0$2[ebp+8], xmm0

; 1767 : 
; 1768 : 	TCHAR *	lpszHeadersType0[] = {
; 1769 : 		_T(""),

  00044	c7 45 f0 00 00
	00 00		 mov	 DWORD PTR _lpszHeadersType0$3[ebp], OFFSET ??_C@_06FIHLBNDD@?$LK?$KP?$LM?v?$LI?m@

; 1770 : 			_T(""),

  0004b	c7 45 f4 00 00
	00 00		 mov	 DWORD PTR _lpszHeadersType0$3[ebp+4], OFFSET ??_C@_06OJFAJFEJ@?$LK?$KP?$LM?v?$LA?$KK@

; 1771 : 			NULL };

  00052	c7 45 f8 00 00
	00 00		 mov	 DWORD PTR _lpszHeadersType0$3[ebp+8], 0
; File C:\Program Files (x86)\Microsoft Visual Studio\2019\Community\VC\Tools\MSVC\14.29.30133\atlmfc\include\afxcmn2.inl

; 117  : 	{ ASSERT(::IsWindow(m_hWnd)); return (DWORD) ::SendMessage(m_hWnd, LVM_SETEXTENDEDLISTVIEWSTYLE, 0, (LPARAM) dwNewStyle); }

  00059	ff d3		 call	 ebx
  0005b	0f 57 c0	 xorps	 xmm0, xmm0
; File D:\git\src\IBK\IBK_DRFN\ProjSrc\SrcDrfn\Chart\HWSTRATEGYCONFIGUREWIZARD\DlgStrategyList.cpp

; 1777 : 		memset(&lvcolumn, 0, sizeof(lvcolumn));

  0005e	c7 45 bc 00 00
	00 00		 mov	 DWORD PTR _lvcolumn$1[ebp+16], 0

; 1779 : 		for (i = 0; ; i++)

  00065	33 f6		 xor	 esi, esi
  00067	66 0f 13 45 c4	 movlpd	 QWORD PTR _lvcolumn$1[ebp+24], xmm0
  0006c	66 0f 13 45 cc	 movlpd	 QWORD PTR _lvcolumn$1[ebp+32], xmm0
  00071	b8 00 00 00 00	 mov	 eax, OFFSET ??_C@_06FIHLBNDD@?$LK?$KP?$LM?v?$LI?m@

; 1777 : 		memset(&lvcolumn, 0, sizeof(lvcolumn));

  00076	c7 45 d4 00 00
	00 00		 mov	 DWORD PTR _lvcolumn$1[ebp+40], 0
  0007d	33 c9		 xor	 ecx, ecx
  0007f	90		 npad	 1
$LL7@OnInitDial:

; 1785 : 			lvcolumn.pszText = lpszHeadersType0[i];

  00080	89 45 b8	 mov	 DWORD PTR _lvcolumn$1[ebp+12], eax

; 1787 : 			lvcolumn.cx = colwidthsType0[i];

  00083	8b 44 0d d8	 mov	 eax, DWORD PTR _colwidthsType0$2[ebp+ecx]
  00087	89 45 b4	 mov	 DWORD PTR _lvcolumn$1[ebp+8], eax
; File C:\Program Files (x86)\Microsoft Visual Studio\2019\Community\VC\Tools\MSVC\14.29.30133\atlmfc\include\afxcmn.inl

; 209  : 	{ ASSERT(::IsWindow(m_hWnd)); return (int) ::SendMessage(m_hWnd, LVM_INSERTCOLUMN, nCol, (LPARAM)pColumn); }

  0008a	8d 45 ac	 lea	 eax, DWORD PTR _lvcolumn$1[ebp]
  0008d	50		 push	 eax
  0008e	56		 push	 esi
  0008f	68 1b 10 00 00	 push	 4123			; 0000101bH
  00094	ff b7 38 0e 00
	00		 push	 DWORD PTR [edi+3640]
; File D:\git\src\IBK\IBK_DRFN\ProjSrc\SrcDrfn\Chart\HWSTRATEGYCONFIGUREWIZARD\DlgStrategyList.cpp

; 1783 : 			lvcolumn.mask = LVCF_FMT | LVCF_SUBITEM | LVCF_TEXT | LVCF_WIDTH;

  0009a	c7 45 ac 0f 00
	00 00		 mov	 DWORD PTR _lvcolumn$1[ebp], 15 ; 0000000fH

; 1784 : 			lvcolumn.fmt = LVCFMT_CENTER;

  000a1	c7 45 b0 02 00
	00 00		 mov	 DWORD PTR _lvcolumn$1[ebp+4], 2

; 1786 : 			lvcolumn.iSubItem = i;

  000a8	89 75 c0	 mov	 DWORD PTR _lvcolumn$1[ebp+20], esi
; File C:\Program Files (x86)\Microsoft Visual Studio\2019\Community\VC\Tools\MSVC\14.29.30133\atlmfc\include\afxcmn.inl

; 209  : 	{ ASSERT(::IsWindow(m_hWnd)); return (int) ::SendMessage(m_hWnd, LVM_INSERTCOLUMN, nCol, (LPARAM)pColumn); }

  000ab	ff d3		 call	 ebx
; File D:\git\src\IBK\IBK_DRFN\ProjSrc\SrcDrfn\Chart\HWSTRATEGYCONFIGUREWIZARD\DlgStrategyList.cpp

; 1779 : 		for (i = 0; ; i++)

  000ad	46		 inc	 esi

; 1780 : 		{
; 1781 : 			if (lpszHeadersType0[i] == NULL)

  000ae	8d 0c b5 00 00
	00 00		 lea	 ecx, DWORD PTR [esi*4]
  000b5	8b 44 0d f0	 mov	 eax, DWORD PTR _lpszHeadersType0$3[ebp+ecx]
  000b9	85 c0		 test	 eax, eax
  000bb	75 c3		 jne	 SHORT $LL7@OnInitDial
  000bd	0f 57 c0	 xorps	 xmm0, xmm0

; 1788 : 			total_cx += lvcolumn.cx;
; 1789 : 			m_InputList.InsertColumn(i, &lvcolumn);
; 1790 : 		}
; 1791 : 		// iterate through header items and attach the image list
; 1792 : 		memset(&lvcolumn, 0, sizeof(lvcolumn));

  000c0	89 45 bc	 mov	 DWORD PTR _lvcolumn$1[ebp+16], eax
  000c3	66 0f 13 45 b4	 movlpd	 QWORD PTR _lvcolumn$1[ebp+8], xmm0

; 1794 : 		for (i = 0; ; i++)

  000c8	33 f6		 xor	 esi, esi
  000ca	66 0f 13 45 c4	 movlpd	 QWORD PTR _lvcolumn$1[ebp+24], xmm0
  000cf	66 0f 13 45 cc	 movlpd	 QWORD PTR _lvcolumn$1[ebp+32], xmm0
  000d4	89 45 d4	 mov	 DWORD PTR _lvcolumn$1[ebp+40], eax
  000d7	66 0f 1f 84 00
	00 00 00 00	 npad	 9
$LL10@OnInitDial:
; File C:\Program Files (x86)\Microsoft Visual Studio\2019\Community\VC\Tools\MSVC\14.29.30133\atlmfc\include\afxcmn.inl

; 207  : 	{ ASSERT(::IsWindow(m_hWnd)); return (BOOL) ::SendMessage(m_hWnd, LVM_SETCOLUMN, nCol, (LPARAM)pColumn); }

  000e0	8d 45 ac	 lea	 eax, DWORD PTR _lvcolumn$1[ebp]
; File D:\git\src\IBK\IBK_DRFN\ProjSrc\SrcDrfn\Chart\HWSTRATEGYCONFIGUREWIZARD\DlgStrategyList.cpp

; 1798 : 			lvcolumn.mask = LVCF_FMT | LVCF_SUBITEM;

  000e3	c7 45 ac 09 00
	00 00		 mov	 DWORD PTR _lvcolumn$1[ebp], 9
; File C:\Program Files (x86)\Microsoft Visual Studio\2019\Community\VC\Tools\MSVC\14.29.30133\atlmfc\include\afxcmn.inl

; 207  : 	{ ASSERT(::IsWindow(m_hWnd)); return (BOOL) ::SendMessage(m_hWnd, LVM_SETCOLUMN, nCol, (LPARAM)pColumn); }

  000ea	50		 push	 eax
  000eb	56		 push	 esi
  000ec	68 1a 10 00 00	 push	 4122			; 0000101aH
  000f1	ff b7 38 0e 00
	00		 push	 DWORD PTR [edi+3640]
; File D:\git\src\IBK\IBK_DRFN\ProjSrc\SrcDrfn\Chart\HWSTRATEGYCONFIGUREWIZARD\DlgStrategyList.cpp

; 1799 : 			lvcolumn.fmt = LVCFMT_CENTER;

  000f7	c7 45 b0 02 00
	00 00		 mov	 DWORD PTR _lvcolumn$1[ebp+4], 2

; 1800 : 			lvcolumn.iSubItem = i;

  000fe	89 75 c0	 mov	 DWORD PTR _lvcolumn$1[ebp+20], esi
; File C:\Program Files (x86)\Microsoft Visual Studio\2019\Community\VC\Tools\MSVC\14.29.30133\atlmfc\include\afxcmn.inl

; 207  : 	{ ASSERT(::IsWindow(m_hWnd)); return (BOOL) ::SendMessage(m_hWnd, LVM_SETCOLUMN, nCol, (LPARAM)pColumn); }

  00101	ff d3		 call	 ebx
; File D:\git\src\IBK\IBK_DRFN\ProjSrc\SrcDrfn\Chart\HWSTRATEGYCONFIGUREWIZARD\DlgStrategyList.cpp

; 1794 : 		for (i = 0; ; i++)

  00103	46		 inc	 esi

; 1795 : 		{
; 1796 : 			if (lpszHeadersType0[i] == NULL)

  00104	83 7c b5 f0 00	 cmp	 DWORD PTR _lpszHeadersType0$3[ebp+esi*4], 0
  00109	75 d5		 jne	 SHORT $LL10@OnInitDial
; File C:\Program Files (x86)\Microsoft Visual Studio\2019\Community\VC\Tools\MSVC\14.29.30133\atlmfc\include\afxwin2.inl

; 213  : 	{ ASSERT(::IsWindow(m_hWnd)); return CWnd::FromHandle(::GetParent(m_hWnd)); }

  0010b	8b 35 00 00 00
	00		 mov	 esi, DWORD PTR __imp__GetParent@4
; File D:\git\src\IBK\IBK_DRFN\ProjSrc\SrcDrfn\Chart\STConfigureDlg\Control\XListCtrl.h

; 176  : 		m_crHighLightText = m_crUsrHighLightText = crText;

  00111	c7 87 a8 0f 00
	00 00 00 00 00	 mov	 DWORD PTR [edi+4008], 0
  0011b	c7 87 98 0f 00
	00 00 00 00 00	 mov	 DWORD PTR [edi+3992], 0

; 177  : 		m_crHighLight = m_crUsrHighLight = crBackground;

  00125	c7 87 a4 0f 00
	00 d0 dd f0 00	 mov	 DWORD PTR [edi+4004], 15785424 ; 00f0ddd0H
  0012f	c7 87 94 0f 00
	00 d0 dd f0 00	 mov	 DWORD PTR [edi+3988], 15785424 ; 00f0ddd0H
; File C:\Program Files (x86)\Microsoft Visual Studio\2019\Community\VC\Tools\MSVC\14.29.30133\atlmfc\include\afxwin2.inl

; 213  : 	{ ASSERT(::IsWindow(m_hWnd)); return CWnd::FromHandle(::GetParent(m_hWnd)); }

  00139	ff 77 20	 push	 DWORD PTR [edi+32]
  0013c	ff d6		 call	 esi
  0013e	50		 push	 eax
  0013f	e8 00 00 00 00	 call	 ?FromHandle@CWnd@@SGPAV1@PAUHWND__@@@Z ; CWnd::FromHandle
; File D:\git\src\IBK\IBK_DRFN\ProjSrc\SrcDrfn\Chart\HWSTRATEGYCONFIGUREWIZARD\DlgStrategyList.cpp

; 232  : 	m_strRootPath = ((CDlgStrategyConfigure*)GetParent())->m_strRootPath;

  00144	05 ac 00 00 00	 add	 eax, 172		; 000000acH
  00149	8d 8f c0 0f 00
	00		 lea	 ecx, DWORD PTR [edi+4032]
  0014f	50		 push	 eax
  00150	ff 15 00 00 00
	00		 call	 DWORD PTR __imp_??4?$CStringT@DV?$StrTraitMFC_DLL@DV?$ChTraitsCRT@D@ATL@@@@@ATL@@QAEAAV01@ABV01@@Z
; File C:\Program Files (x86)\Microsoft Visual Studio\2019\Community\VC\Tools\MSVC\14.29.30133\atlmfc\include\afxwin2.inl

; 213  : 	{ ASSERT(::IsWindow(m_hWnd)); return CWnd::FromHandle(::GetParent(m_hWnd)); }

  00156	ff 77 20	 push	 DWORD PTR [edi+32]
  00159	ff d6		 call	 esi
  0015b	50		 push	 eax
  0015c	e8 00 00 00 00	 call	 ?FromHandle@CWnd@@SGPAV1@PAUHWND__@@@Z ; CWnd::FromHandle
; File D:\git\src\IBK\IBK_DRFN\ProjSrc\SrcDrfn\Chart\HWSTRATEGYCONFIGUREWIZARD\DlgStrategyList.cpp

; 233  : 	m_szDataDir = ((CDlgStrategyConfigure*)GetParent())->m_strDataDir;

  00161	05 b0 00 00 00	 add	 eax, 176		; 000000b0H
  00166	8d 8f c4 0f 00
	00		 lea	 ecx, DWORD PTR [edi+4036]
  0016c	50		 push	 eax
  0016d	ff 15 00 00 00
	00		 call	 DWORD PTR __imp_??4?$CStringT@DV?$StrTraitMFC_DLL@DV?$ChTraitsCRT@D@ATL@@@@@ATL@@QAEAAV01@ABV01@@Z
; File C:\Program Files (x86)\Microsoft Visual Studio\2019\Community\VC\Tools\MSVC\14.29.30133\atlmfc\include\afxwin2.inl

; 213  : 	{ ASSERT(::IsWindow(m_hWnd)); return CWnd::FromHandle(::GetParent(m_hWnd)); }

  00173	ff 77 20	 push	 DWORD PTR [edi+32]
  00176	ff d6		 call	 esi
  00178	50		 push	 eax
  00179	e8 00 00 00 00	 call	 ?FromHandle@CWnd@@SGPAV1@PAUHWND__@@@Z ; CWnd::FromHandle
; File D:\git\src\IBK\IBK_DRFN\ProjSrc\SrcDrfn\Chart\HWSTRATEGYCONFIGUREWIZARD\DlgStrategyList.cpp

; 234  : 	m_szUserDir = ((CDlgStrategyConfigure*)GetParent())->m_strUserDir;

  0017e	05 b8 00 00 00	 add	 eax, 184		; 000000b8H
  00183	8d 8f c8 0f 00
	00		 lea	 ecx, DWORD PTR [edi+4040]
  00189	50		 push	 eax
  0018a	ff 15 00 00 00
	00		 call	 DWORD PTR __imp_??4?$CStringT@DV?$StrTraitMFC_DLL@DV?$ChTraitsCRT@D@ATL@@@@@ATL@@QAEAAV01@ABV01@@Z

; 236  : 	if(!m_dlgTimeSelector.GetSafeHwnd())

  00190	8d 8f 90 14 00
	00		 lea	 ecx, DWORD PTR [edi+5264]
; File C:\Program Files (x86)\Microsoft Visual Studio\2019\Community\VC\Tools\MSVC\14.29.30133\atlmfc\include\afxwin2.inl

; 25   : 	{ return this == NULL ? NULL : m_hWnd; }

  00196	85 c9		 test	 ecx, ecx
  00198	74 06		 je	 SHORT $LN49@OnInitDial
; File D:\git\src\IBK\IBK_DRFN\ProjSrc\SrcDrfn\Chart\HWSTRATEGYCONFIGUREWIZARD\DlgStrategyList.cpp

; 236  : 	if(!m_dlgTimeSelector.GetSafeHwnd())

  0019a	83 79 20 00	 cmp	 DWORD PTR [ecx+32], 0
  0019e	75 14		 jne	 SHORT $LN2@OnInitDial
$LN49@OnInitDial:

; 237  : 	{
; 238  : 		m_dlgTimeSelector.Create(CDlgTimeSelector::IDD,this);			

  001a0	8b 01		 mov	 eax, DWORD PTR [ecx]
  001a2	57		 push	 edi
  001a3	68 89 69 00 00	 push	 27017			; 00006989H
  001a8	ff 90 6c 01 00
	00		 call	 DWORD PTR [eax+364]

; 239  : 		m_dlgTimeSelector.SetDlgStrategyList(this);

  001ae	89 bf f4 16 00
	00		 mov	 DWORD PTR [edi+5876], edi
$LN2@OnInitDial:
; File C:\Program Files (x86)\Microsoft Visual Studio\2019\Community\VC\Tools\MSVC\14.29.30133\atlmfc\include\afxwin1.inl

; 132  : 	{ return Attach(::CreateSolidBrush(crColor)); }

  001b4	68 f7 f8 fc 00	 push	 16578807		; 00fcf8f7H
; File D:\git\src\IBK\IBK_DRFN\ProjSrc\SrcDrfn\Chart\HWSTRATEGYCONFIGUREWIZARD\DlgStrategyList.cpp

; 247  : 		m_crBk = DEFAULT_BKGRND_COLOR;

  001b9	c7 87 fc 16 00
	00 f7 f8 fc 00	 mov	 DWORD PTR [edi+5884], 16578807 ; 00fcf8f7H
; File C:\Program Files (x86)\Microsoft Visual Studio\2019\Community\VC\Tools\MSVC\14.29.30133\atlmfc\include\afxwin1.inl

; 132  : 	{ return Attach(::CreateSolidBrush(crColor)); }

  001c3	ff 15 00 00 00
	00		 call	 DWORD PTR __imp__CreateSolidBrush@4
  001c9	50		 push	 eax
; File D:\git\src\IBK\IBK_DRFN\ProjSrc\SrcDrfn\Chart\HWSTRATEGYCONFIGUREWIZARD\DlgStrategyList.cpp

; 249  : 		m_brBkColor.CreateSolidBrush(m_crBk);

  001ca	8d 8f 00 17 00
	00		 lea	 ecx, DWORD PTR [edi+5888]
; File C:\Program Files (x86)\Microsoft Visual Studio\2019\Community\VC\Tools\MSVC\14.29.30133\atlmfc\include\afxwin1.inl

; 132  : 	{ return Attach(::CreateSolidBrush(crColor)); }

  001d0	e8 00 00 00 00	 call	 ?Attach@CGdiObject@@QAEHPAX@Z ; CGdiObject::Attach
; File D:\git\src\IBK\IBK_DRFN\ProjSrc\SrcDrfn\Chart\HWSTRATEGYCONFIGUREWIZARD\DlgStrategyList.cpp

; 157  : 	GetDlgItem(IDC_LIST_STVARIABLES)->GetWindowRect(m_rcSTOption);

  001d5	68 4f 71 00 00	 push	 29007			; 0000714fH
  001da	8b cf		 mov	 ecx, edi
  001dc	e8 00 00 00 00	 call	 ?GetDlgItem@CWnd@@QBEPAV1@H@Z ; CWnd::GetDlgItem
  001e1	8d b7 7c 14 00
	00		 lea	 esi, DWORD PTR [edi+5244]
; File C:\Program Files (x86)\Microsoft Visual Studio\2019\Community\VC\Tools\MSVC\14.29.30133\atlmfc\include\afxwin2.inl

; 84   : 	{ ASSERT(::IsWindow(m_hWnd)); ::GetWindowRect(m_hWnd, lpRect); }

  001e7	56		 push	 esi
  001e8	ff 70 20	 push	 DWORD PTR [eax+32]
  001eb	ff 15 00 00 00
	00		 call	 DWORD PTR __imp__GetWindowRect@8
; File D:\git\src\IBK\IBK_DRFN\ProjSrc\SrcDrfn\Chart\HWSTRATEGYCONFIGUREWIZARD\DlgStrategyList.cpp

; 158  : 	m_rcSTOption.top -= 32;

  001f1	83 87 80 14 00
	00 e0		 add	 DWORD PTR [edi+5248], -32 ; ffffffe0H

; 159  : 	ScreenToClient(m_rcSTOption);

  001f8	8b cf		 mov	 ecx, edi
  001fa	56		 push	 esi
  001fb	e8 00 00 00 00	 call	 ?ScreenToClient@CWnd@@QBEXPAUtagRECT@@@Z ; CWnd::ScreenToClient

; 250  : 	InitSTOption();
; 251  : 	InitGrid();

  00200	8b cf		 mov	 ecx, edi
  00202	e8 00 00 00 00	 call	 ?InitGrid@CDlgStrategyList@@IAEXXZ ; CDlgStrategyList::InitGrid

; 252  : 
; 253  : 	m_btnAnd.EnableWindow(FALSE);

  00207	6a 00		 push	 0
  00209	8d 8f 18 05 00
	00		 lea	 ecx, DWORD PTR [edi+1304]
  0020f	e8 00 00 00 00	 call	 ?EnableWindow@CWnd@@QAEHH@Z ; CWnd::EnableWindow

; 254  : 	m_btnOr.EnableWindow(FALSE);

  00214	6a 00		 push	 0
  00216	8d 8f a8 05 00
	00		 lea	 ecx, DWORD PTR [edi+1448]
  0021c	e8 00 00 00 00	 call	 ?EnableWindow@CWnd@@QAEHH@Z ; CWnd::EnableWindow

; 255  : 	m_btnNext.EnableWindow(FALSE);

  00221	6a 00		 push	 0
  00223	8d 8f 58 07 00
	00		 lea	 ecx, DWORD PTR [edi+1880]
  00229	e8 00 00 00 00	 call	 ?EnableWindow@CWnd@@QAEHH@Z ; CWnd::EnableWindow

; 256  : 	m_btnNot.EnableWindow(FALSE);

  0022e	6a 00		 push	 0
  00230	8d 8f 38 06 00
	00		 lea	 ecx, DWORD PTR [edi+1592]
  00236	e8 00 00 00 00	 call	 ?EnableWindow@CWnd@@QAEHH@Z ; CWnd::EnableWindow

; 257  : 	m_btnTrue.EnableWindow(FALSE);

  0023b	6a 00		 push	 0
  0023d	8d 8f c8 06 00
	00		 lea	 ecx, DWORD PTR [edi+1736]
  00243	e8 00 00 00 00	 call	 ?EnableWindow@CWnd@@QAEHH@Z ; CWnd::EnableWindow

; 258  : 	m_btnParenthesis.EnableWindow(FALSE);

  00248	6a 00		 push	 0
  0024a	8d 8f e8 07 00
	00		 lea	 ecx, DWORD PTR [edi+2024]
  00250	e8 00 00 00 00	 call	 ?EnableWindow@CWnd@@QAEHH@Z ; CWnd::EnableWindow

; 259  : 	m_btnX.EnableWindow(FALSE);

  00255	6a 00		 push	 0
  00257	8d 8f 78 08 00
	00		 lea	 ecx, DWORD PTR [edi+2168]
  0025d	e8 00 00 00 00	 call	 ?EnableWindow@CWnd@@QAEHH@Z ; CWnd::EnableWindow

; 260  : 	return TRUE;  // return TRUE unless you set the focus to a control
; 261  : 	              // EXCEPTION: OCX Property Pages should return FALSE
; 262  : }

  00262	8b 4d fc	 mov	 ecx, DWORD PTR __$ArrayPad$[ebp]
  00265	b8 01 00 00 00	 mov	 eax, 1
  0026a	5f		 pop	 edi
  0026b	5e		 pop	 esi
  0026c	33 cd		 xor	 ecx, ebp
  0026e	5b		 pop	 ebx
  0026f	e8 00 00 00 00	 call	 @__security_check_cookie@4
  00274	8b e5		 mov	 esp, ebp
  00276	5d		 pop	 ebp
  00277	c3		 ret	 0
?OnInitDialog@CDlgStrategyList@@MAEHXZ ENDP		; CDlgStrategyList::OnInitDialog
_TEXT	ENDS
; Function compile flags: /Ogtp
; File D:\git\src\IBK\IBK_DRFN\ProjSrc\SrcDrfn\Chart\HWSTRATEGYCONFIGUREWIZARD\DlgStrategyList.cpp
; File C:\Program Files (x86)\Microsoft Visual Studio\2019\Community\VC\Tools\MSVC\14.29.30133\atlmfc\include\afxcmn2.inl
; File D:\git\src\IBK\IBK_DRFN\ProjSrc\SrcDrfn\Chart\HWSTRATEGYCONFIGUREWIZARD\DlgStrategyList.cpp
; File C:\Program Files (x86)\Microsoft Visual Studio\2019\Community\VC\Tools\MSVC\14.29.30133\atlmfc\include\afxcmn2.inl
; File D:\git\src\IBK\IBK_DRFN\ProjSrc\SrcDrfn\Chart\HWSTRATEGYCONFIGUREWIZARD\DlgStrategyList.cpp
; File C:\Program Files (x86)\Microsoft Visual Studio\2019\Community\VC\Tools\MSVC\14.29.30133\atlmfc\include\afxcmn2.inl
; File D:\git\src\IBK\IBK_DRFN\ProjSrc\SrcDrfn\Chart\HWSTRATEGYCONFIGUREWIZARD\DlgStrategyList.cpp
; File C:\Program Files (x86)\Microsoft Visual Studio\2019\Community\VC\Tools\MSVC\14.29.30133\atlmfc\include\afxcmn2.inl
; File D:\git\src\IBK\IBK_DRFN\ProjSrc\SrcDrfn\Chart\HWSTRATEGYCONFIGUREWIZARD\DlgStrategyList.cpp
; File C:\Program Files (x86)\Microsoft Visual Studio\2019\Community\VC\Tools\MSVC\14.29.30133\atlmfc\include\afxcmn2.inl
; File D:\git\src\IBK\IBK_DRFN\ProjSrc\SrcDrfn\Chart\HWSTRATEGYCONFIGUREWIZARD\DlgStrategyList.cpp
; File C:\Program Files (x86)\Microsoft Visual Studio\2019\Community\VC\Tools\MSVC\14.29.30133\atlmfc\include\afxcmn.inl
; File D:\git\src\IBK\IBK_DRFN\ProjSrc\SrcDrfn\Chart\HWSTRATEGYCONFIGUREWIZARD\DlgStrategyList.cpp
; File C:\Program Files (x86)\Microsoft Visual Studio\2019\Community\VC\Tools\MSVC\14.29.30133\atlmfc\include\afxcmn.inl
; File D:\git\src\IBK\IBK_DRFN\ProjSrc\SrcDrfn\Chart\HWSTRATEGYCONFIGUREWIZARD\DlgStrategyList.cpp
; File C:\Program Files (x86)\Microsoft Visual Studio\2019\Community\VC\Tools\MSVC\14.29.30133\atlmfc\include\afxcmn.inl
; File D:\git\src\IBK\IBK_DRFN\ProjSrc\SrcDrfn\Chart\HWSTRATEGYCONFIGUREWIZARD\DlgStrategyList.cpp
; File C:\Program Files (x86)\Microsoft Visual Studio\2019\Community\VC\Tools\MSVC\14.29.30133\atlmfc\include\afxcmn.inl
; File D:\git\src\IBK\IBK_DRFN\ProjSrc\SrcDrfn\Chart\HWSTRATEGYCONFIGUREWIZARD\DlgStrategyList.cpp
; File C:\Program Files (x86)\Microsoft Visual Studio\2019\Community\VC\Tools\MSVC\14.29.30133\atlmfc\include\afxcmn.inl
; File D:\git\src\IBK\IBK_DRFN\ProjSrc\SrcDrfn\Chart\HWSTRATEGYCONFIGUREWIZARD\DlgStrategyList.cpp
; File D:\git\src\IBK\IBK_DRFN\ProjSrc\SrcDrfn\Chart\STConfigureDlg\Control\XListCtrl.h
; File D:\git\src\IBK\IBK_DRFN\ProjSrc\SrcDrfn\Chart\HWSTRATEGYCONFIGUREWIZARD\DlgStrategyList.cpp
; File D:\git\src\IBK\IBK_DRFN\ProjSrc\SrcDrfn\Chart\STConfigureDlg\Control\XListCtrl.h
; File D:\git\src\IBK\IBK_DRFN\ProjSrc\SrcDrfn\Chart\HWSTRATEGYCONFIGUREWIZARD\DlgStrategyList.cpp
;	COMDAT ?InitColumn@CDlgStrategyList@@IAEXXZ
_TEXT	SEGMENT
_lvcolumn$ = -84					; size = 44
_colwidthsType0$ = -40					; size = 24
_lpszHeadersType0$ = -16				; size = 12
__$ArrayPad$ = -4					; size = 4
?InitColumn@CDlgStrategyList@@IAEXXZ PROC		; CDlgStrategyList::InitColumn, COMDAT
; _this$ = ecx

; 1765 : {

  00000	55		 push	 ebp
  00001	8b ec		 mov	 ebp, esp
  00003	83 ec 54	 sub	 esp, 84			; 00000054H
  00006	a1 00 00 00 00	 mov	 eax, DWORD PTR ___security_cookie
  0000b	33 c5		 xor	 eax, ebp
  0000d	89 45 fc	 mov	 DWORD PTR __$ArrayPad$[ebp], eax
  00010	53		 push	 ebx
; File C:\Program Files (x86)\Microsoft Visual Studio\2019\Community\VC\Tools\MSVC\14.29.30133\atlmfc\include\afxcmn2.inl

; 117  : 	{ ASSERT(::IsWindow(m_hWnd)); return (DWORD) ::SendMessage(m_hWnd, LVM_SETEXTENDEDLISTVIEWSTYLE, 0, (LPARAM) dwNewStyle); }

  00011	8b 1d 00 00 00
	00		 mov	 ebx, DWORD PTR __imp__SendMessageA@16
  00017	0f 57 c0	 xorps	 xmm0, xmm0
; File D:\git\src\IBK\IBK_DRFN\ProjSrc\SrcDrfn\Chart\HWSTRATEGYCONFIGUREWIZARD\DlgStrategyList.cpp

; 1765 : {

  0001a	56		 push	 esi
  0001b	57		 push	 edi
; File C:\Program Files (x86)\Microsoft Visual Studio\2019\Community\VC\Tools\MSVC\14.29.30133\atlmfc\include\afxcmn2.inl

; 117  : 	{ ASSERT(::IsWindow(m_hWnd)); return (DWORD) ::SendMessage(m_hWnd, LVM_SETEXTENDEDLISTVIEWSTYLE, 0, (LPARAM) dwNewStyle); }

  0001c	6a 20		 push	 32			; 00000020H
; File D:\git\src\IBK\IBK_DRFN\ProjSrc\SrcDrfn\Chart\HWSTRATEGYCONFIGUREWIZARD\DlgStrategyList.cpp

; 1765 : {

  0001e	8b f9		 mov	 edi, ecx

; 1766 : 	int colwidthsType0[6] = { 90, 127};	// sixty-fourths

  00020	c7 45 d8 5a 00
	00 00		 mov	 DWORD PTR _colwidthsType0$[ebp], 90 ; 0000005aH
; File C:\Program Files (x86)\Microsoft Visual Studio\2019\Community\VC\Tools\MSVC\14.29.30133\atlmfc\include\afxcmn2.inl

; 117  : 	{ ASSERT(::IsWindow(m_hWnd)); return (DWORD) ::SendMessage(m_hWnd, LVM_SETEXTENDEDLISTVIEWSTYLE, 0, (LPARAM) dwNewStyle); }

  00027	6a 00		 push	 0
  00029	68 36 10 00 00	 push	 4150			; 00001036H
; File D:\git\src\IBK\IBK_DRFN\ProjSrc\SrcDrfn\Chart\HWSTRATEGYCONFIGUREWIZARD\DlgStrategyList.cpp

; 1766 : 	int colwidthsType0[6] = { 90, 127};	// sixty-fourths

  0002e	c7 45 dc 7f 00
	00 00		 mov	 DWORD PTR _colwidthsType0$[ebp+4], 127 ; 0000007fH
; File C:\Program Files (x86)\Microsoft Visual Studio\2019\Community\VC\Tools\MSVC\14.29.30133\atlmfc\include\afxcmn2.inl

; 117  : 	{ ASSERT(::IsWindow(m_hWnd)); return (DWORD) ::SendMessage(m_hWnd, LVM_SETEXTENDEDLISTVIEWSTYLE, 0, (LPARAM) dwNewStyle); }

  00035	ff b7 38 0e 00
	00		 push	 DWORD PTR [edi+3640]
; File D:\git\src\IBK\IBK_DRFN\ProjSrc\SrcDrfn\Chart\HWSTRATEGYCONFIGUREWIZARD\DlgStrategyList.cpp

; 1766 : 	int colwidthsType0[6] = { 90, 127};	// sixty-fourths

  0003b	0f 11 45 e0	 movups	 XMMWORD PTR _colwidthsType0$[ebp+8], xmm0

; 1767 : 
; 1768 : 	TCHAR *	lpszHeadersType0[] = {
; 1769 : 		_T(""),

  0003f	c7 45 f0 00 00
	00 00		 mov	 DWORD PTR _lpszHeadersType0$[ebp], OFFSET ??_C@_06FIHLBNDD@?$LK?$KP?$LM?v?$LI?m@

; 1770 : 			_T(""),

  00046	c7 45 f4 00 00
	00 00		 mov	 DWORD PTR _lpszHeadersType0$[ebp+4], OFFSET ??_C@_06OJFAJFEJ@?$LK?$KP?$LM?v?$LA?$KK@

; 1771 : 			NULL };

  0004d	c7 45 f8 00 00
	00 00		 mov	 DWORD PTR _lpszHeadersType0$[ebp+8], 0
; File C:\Program Files (x86)\Microsoft Visual Studio\2019\Community\VC\Tools\MSVC\14.29.30133\atlmfc\include\afxcmn2.inl

; 117  : 	{ ASSERT(::IsWindow(m_hWnd)); return (DWORD) ::SendMessage(m_hWnd, LVM_SETEXTENDEDLISTVIEWSTYLE, 0, (LPARAM) dwNewStyle); }

  00054	ff d3		 call	 ebx
  00056	0f 57 c0	 xorps	 xmm0, xmm0
; File D:\git\src\IBK\IBK_DRFN\ProjSrc\SrcDrfn\Chart\HWSTRATEGYCONFIGUREWIZARD\DlgStrategyList.cpp

; 1777 : 		memset(&lvcolumn, 0, sizeof(lvcolumn));

  00059	c7 45 bc 00 00
	00 00		 mov	 DWORD PTR _lvcolumn$[ebp+16], 0

; 1779 : 		for (i = 0; ; i++)

  00060	33 f6		 xor	 esi, esi
  00062	66 0f 13 45 c4	 movlpd	 QWORD PTR _lvcolumn$[ebp+24], xmm0
  00067	66 0f 13 45 cc	 movlpd	 QWORD PTR _lvcolumn$[ebp+32], xmm0
  0006c	b8 00 00 00 00	 mov	 eax, OFFSET ??_C@_06FIHLBNDD@?$LK?$KP?$LM?v?$LI?m@
  00071	c7 45 d4 00 00
	00 00		 mov	 DWORD PTR _lvcolumn$[ebp+40], 0
  00078	33 c9		 xor	 ecx, ecx
  0007a	66 0f 1f 44 00
	00		 npad	 6
$LL4@InitColumn:

; 1785 : 			lvcolumn.pszText = lpszHeadersType0[i];

  00080	89 45 b8	 mov	 DWORD PTR _lvcolumn$[ebp+12], eax

; 1787 : 			lvcolumn.cx = colwidthsType0[i];

  00083	8b 44 0d d8	 mov	 eax, DWORD PTR _colwidthsType0$[ebp+ecx]
  00087	89 45 b4	 mov	 DWORD PTR _lvcolumn$[ebp+8], eax
; File C:\Program Files (x86)\Microsoft Visual Studio\2019\Community\VC\Tools\MSVC\14.29.30133\atlmfc\include\afxcmn.inl

; 209  : 	{ ASSERT(::IsWindow(m_hWnd)); return (int) ::SendMessage(m_hWnd, LVM_INSERTCOLUMN, nCol, (LPARAM)pColumn); }

  0008a	8d 45 ac	 lea	 eax, DWORD PTR _lvcolumn$[ebp]
  0008d	50		 push	 eax
  0008e	56		 push	 esi
  0008f	68 1b 10 00 00	 push	 4123			; 0000101bH
  00094	ff b7 38 0e 00
	00		 push	 DWORD PTR [edi+3640]
; File D:\git\src\IBK\IBK_DRFN\ProjSrc\SrcDrfn\Chart\HWSTRATEGYCONFIGUREWIZARD\DlgStrategyList.cpp

; 1783 : 			lvcolumn.mask = LVCF_FMT | LVCF_SUBITEM | LVCF_TEXT | LVCF_WIDTH;

  0009a	c7 45 ac 0f 00
	00 00		 mov	 DWORD PTR _lvcolumn$[ebp], 15 ; 0000000fH

; 1784 : 			lvcolumn.fmt = LVCFMT_CENTER;

  000a1	c7 45 b0 02 00
	00 00		 mov	 DWORD PTR _lvcolumn$[ebp+4], 2

; 1786 : 			lvcolumn.iSubItem = i;

  000a8	89 75 c0	 mov	 DWORD PTR _lvcolumn$[ebp+20], esi
; File C:\Program Files (x86)\Microsoft Visual Studio\2019\Community\VC\Tools\MSVC\14.29.30133\atlmfc\include\afxcmn.inl

; 209  : 	{ ASSERT(::IsWindow(m_hWnd)); return (int) ::SendMessage(m_hWnd, LVM_INSERTCOLUMN, nCol, (LPARAM)pColumn); }

  000ab	ff d3		 call	 ebx
; File D:\git\src\IBK\IBK_DRFN\ProjSrc\SrcDrfn\Chart\HWSTRATEGYCONFIGUREWIZARD\DlgStrategyList.cpp

; 1779 : 		for (i = 0; ; i++)

  000ad	46		 inc	 esi

; 1780 : 		{
; 1781 : 			if (lpszHeadersType0[i] == NULL)

  000ae	8d 0c b5 00 00
	00 00		 lea	 ecx, DWORD PTR [esi*4]
  000b5	8b 44 0d f0	 mov	 eax, DWORD PTR _lpszHeadersType0$[ebp+ecx]
  000b9	85 c0		 test	 eax, eax
  000bb	75 c3		 jne	 SHORT $LL4@InitColumn

; 1788 : 			total_cx += lvcolumn.cx;
; 1789 : 			m_InputList.InsertColumn(i, &lvcolumn);
; 1790 : 		}
; 1791 : 		// iterate through header items and attach the image list
; 1792 : 		memset(&lvcolumn, 0, sizeof(lvcolumn));

  000bd	0f 57 c0	 xorps	 xmm0, xmm0
  000c0	89 45 bc	 mov	 DWORD PTR _lvcolumn$[ebp+16], eax
  000c3	66 0f 13 45 b4	 movlpd	 QWORD PTR _lvcolumn$[ebp+8], xmm0

; 1794 : 		for (i = 0; ; i++)

  000c8	33 f6		 xor	 esi, esi
  000ca	66 0f 13 45 c4	 movlpd	 QWORD PTR _lvcolumn$[ebp+24], xmm0
  000cf	66 0f 13 45 cc	 movlpd	 QWORD PTR _lvcolumn$[ebp+32], xmm0
  000d4	89 45 d4	 mov	 DWORD PTR _lvcolumn$[ebp+40], eax
  000d7	66 0f 1f 84 00
	00 00 00 00	 npad	 9
$LL7@InitColumn:
; File C:\Program Files (x86)\Microsoft Visual Studio\2019\Community\VC\Tools\MSVC\14.29.30133\atlmfc\include\afxcmn.inl

; 207  : 	{ ASSERT(::IsWindow(m_hWnd)); return (BOOL) ::SendMessage(m_hWnd, LVM_SETCOLUMN, nCol, (LPARAM)pColumn); }

  000e0	8d 45 ac	 lea	 eax, DWORD PTR _lvcolumn$[ebp]
; File D:\git\src\IBK\IBK_DRFN\ProjSrc\SrcDrfn\Chart\HWSTRATEGYCONFIGUREWIZARD\DlgStrategyList.cpp

; 1798 : 			lvcolumn.mask = LVCF_FMT | LVCF_SUBITEM;

  000e3	c7 45 ac 09 00
	00 00		 mov	 DWORD PTR _lvcolumn$[ebp], 9
; File C:\Program Files (x86)\Microsoft Visual Studio\2019\Community\VC\Tools\MSVC\14.29.30133\atlmfc\include\afxcmn.inl

; 207  : 	{ ASSERT(::IsWindow(m_hWnd)); return (BOOL) ::SendMessage(m_hWnd, LVM_SETCOLUMN, nCol, (LPARAM)pColumn); }

  000ea	50		 push	 eax
  000eb	56		 push	 esi
  000ec	68 1a 10 00 00	 push	 4122			; 0000101aH
  000f1	ff b7 38 0e 00
	00		 push	 DWORD PTR [edi+3640]
; File D:\git\src\IBK\IBK_DRFN\ProjSrc\SrcDrfn\Chart\HWSTRATEGYCONFIGUREWIZARD\DlgStrategyList.cpp

; 1799 : 			lvcolumn.fmt = LVCFMT_CENTER;

  000f7	c7 45 b0 02 00
	00 00		 mov	 DWORD PTR _lvcolumn$[ebp+4], 2

; 1800 : 			lvcolumn.iSubItem = i;

  000fe	89 75 c0	 mov	 DWORD PTR _lvcolumn$[ebp+20], esi
; File C:\Program Files (x86)\Microsoft Visual Studio\2019\Community\VC\Tools\MSVC\14.29.30133\atlmfc\include\afxcmn.inl

; 207  : 	{ ASSERT(::IsWindow(m_hWnd)); return (BOOL) ::SendMessage(m_hWnd, LVM_SETCOLUMN, nCol, (LPARAM)pColumn); }

  00101	ff d3		 call	 ebx
; File D:\git\src\IBK\IBK_DRFN\ProjSrc\SrcDrfn\Chart\HWSTRATEGYCONFIGUREWIZARD\DlgStrategyList.cpp

; 1794 : 		for (i = 0; ; i++)

  00103	46		 inc	 esi

; 1795 : 		{
; 1796 : 			if (lpszHeadersType0[i] == NULL)

  00104	83 7c b5 f0 00	 cmp	 DWORD PTR _lpszHeadersType0$[ebp+esi*4], 0
  00109	75 d5		 jne	 SHORT $LL7@InitColumn

; 1804 : }

  0010b	8b 4d fc	 mov	 ecx, DWORD PTR __$ArrayPad$[ebp]
; File D:\git\src\IBK\IBK_DRFN\ProjSrc\SrcDrfn\Chart\STConfigureDlg\Control\XListCtrl.h

; 176  : 		m_crHighLightText = m_crUsrHighLightText = crText;

  0010e	c7 87 a8 0f 00
	00 00 00 00 00	 mov	 DWORD PTR [edi+4008], 0
; File D:\git\src\IBK\IBK_DRFN\ProjSrc\SrcDrfn\Chart\HWSTRATEGYCONFIGUREWIZARD\DlgStrategyList.cpp

; 1804 : }

  00118	33 cd		 xor	 ecx, ebp
; File D:\git\src\IBK\IBK_DRFN\ProjSrc\SrcDrfn\Chart\STConfigureDlg\Control\XListCtrl.h

; 176  : 		m_crHighLightText = m_crUsrHighLightText = crText;

  0011a	c7 87 98 0f 00
	00 00 00 00 00	 mov	 DWORD PTR [edi+3992], 0

; 177  : 		m_crHighLight = m_crUsrHighLight = crBackground;

  00124	c7 87 a4 0f 00
	00 d0 dd f0 00	 mov	 DWORD PTR [edi+4004], 15785424 ; 00f0ddd0H
  0012e	c7 87 94 0f 00
	00 d0 dd f0 00	 mov	 DWORD PTR [edi+3988], 15785424 ; 00f0ddd0H
  00138	5f		 pop	 edi
  00139	5e		 pop	 esi
  0013a	5b		 pop	 ebx
; File D:\git\src\IBK\IBK_DRFN\ProjSrc\SrcDrfn\Chart\HWSTRATEGYCONFIGUREWIZARD\DlgStrategyList.cpp

; 1804 : }

  0013b	e8 00 00 00 00	 call	 @__security_check_cookie@4
  00140	8b e5		 mov	 esp, ebp
  00142	5d		 pop	 ebp
  00143	c3		 ret	 0
?InitColumn@CDlgStrategyList@@IAEXXZ ENDP		; CDlgStrategyList::InitColumn
_TEXT	ENDS
; Function compile flags: /Ogtp
; File D:\git\src\IBK\IBK_DRFN\ProjSrc\SrcDrfn\Chart\HWSTRATEGYCONFIGUREWIZARD\DlgStrategyList.cpp
; File C:\Program Files (x86)\Microsoft Visual Studio\2019\Community\VC\Tools\MSVC\14.29.30133\atlmfc\include\atlsimpstr.h
; File D:\git\src\IBK\IBK_DRFN\ProjSrc\SrcDrfn\Chart\HWSTRATEGYCONFIGUREWIZARD\DlgStrategyList.cpp
;	COMDAT ?SaveRunTempFile@CDlgStrategyList@@IAEHXZ
_TEXT	SEGMENT
_strText$ = -20						; size = 4
_szRunImsiFile$ = -16					; size = 4
__$EHRec$ = -12						; size = 12
?SaveRunTempFile@CDlgStrategyList@@IAEHXZ PROC		; CDlgStrategyList::SaveRunTempFile, COMDAT
; _this$ = ecx

; 1621 : {

  00000	55		 push	 ebp
  00001	8b ec		 mov	 ebp, esp
  00003	6a ff		 push	 -1
  00005	68 00 00 00 00	 push	 __ehhandler$?SaveRunTempFile@CDlgStrategyList@@IAEHXZ
  0000a	64 a1 00 00 00
	00		 mov	 eax, DWORD PTR fs:0
  00010	50		 push	 eax
  00011	83 ec 08	 sub	 esp, 8
  00014	53		 push	 ebx
  00015	56		 push	 esi
  00016	57		 push	 edi
  00017	a1 00 00 00 00	 mov	 eax, DWORD PTR ___security_cookie
  0001c	33 c5		 xor	 eax, ebp
  0001e	50		 push	 eax
  0001f	8d 45 f4	 lea	 eax, DWORD PTR __$EHRec$[ebp]
  00022	64 a3 00 00 00
	00		 mov	 DWORD PTR fs:0, eax
  00028	8b f9		 mov	 edi, ecx

; 1622 : 	CString strText;

  0002a	8d 4d ec	 lea	 ecx, DWORD PTR _strText$[ebp]
  0002d	ff 15 00 00 00
	00		 call	 DWORD PTR __imp_??0?$CStringT@DV?$StrTraitMFC_DLL@DV?$ChTraitsCRT@D@ATL@@@@@ATL@@QAE@XZ

; 1623 : 
; 1624 : 	m_editSTTitle.GetWindowText(strText);

  00033	8d 45 ec	 lea	 eax, DWORD PTR _strText$[ebp]
  00036	c7 45 fc 00 00
	00 00		 mov	 DWORD PTR __$EHRec$[ebp+8], 0
  0003d	50		 push	 eax
  0003e	8d 8f a8 00 00
	00		 lea	 ecx, DWORD PTR [edi+168]
  00044	e8 00 00 00 00	 call	 ?GetWindowTextA@CWnd@@QBEXAAV?$CStringT@DV?$StrTraitMFC_DLL@DV?$ChTraitsCRT@D@ATL@@@@@ATL@@@Z ; CWnd::GetWindowTextA
; File C:\Program Files (x86)\Microsoft Visual Studio\2019\Community\VC\Tools\MSVC\14.29.30133\atlmfc\include\atlsimpstr.h

; 519  : 		return( GetData()->nDataLength );

  00049	8b 45 ec	 mov	 eax, DWORD PTR _strText$[ebp]

; 533  : 		return( GetLength() == 0 );

  0004c	83 78 f4 00	 cmp	 DWORD PTR [eax-12], 0
; File D:\git\src\IBK\IBK_DRFN\ProjSrc\SrcDrfn\Chart\HWSTRATEGYCONFIGUREWIZARD\DlgStrategyList.cpp

; 1625 : 	if(strText.IsEmpty()) {

  00050	75 15		 jne	 SHORT $LN2@SaveRunTem

; 1626 : 		AfxMessageBox("  . ");

  00052	6a 00		 push	 0
  00054	6a 00		 push	 0
  00056	68 00 00 00 00	 push	 OFFSET ??_C@_0CJ@BJKBFEL@?$LM?$LB?E?C?$LF?H?5?$MA?$PM?$LH?$KL?$MA?L?$LI?$KH?$MA?L?5?$LO?x?$LN?$MA?$LE?O?$LE?Y?4?5?H?$KO?$MA@
  0005b	e8 00 00 00 00	 call	 ?AfxMessageBox@@YGHPBDII@Z ; AfxMessageBox
  00060	33 f6		 xor	 esi, esi
  00062	e9 de 00 00 00	 jmp	 $LN7@SaveRunTem
$LN2@SaveRunTem:

; 1627 : 		return FALSE;
; 1628 : 	}
; 1629 : 
; 1630 : 	CString szRunImsiFile;

  00067	8d 4d f0	 lea	 ecx, DWORD PTR _szRunImsiFile$[ebp]
  0006a	ff 15 00 00 00
	00		 call	 DWORD PTR __imp_??0?$CStringT@DV?$StrTraitMFC_DLL@DV?$ChTraitsCRT@D@ATL@@@@@ATL@@QAE@XZ

; 1631 : 	szRunImsiFile.Format("%s%s%s%s", m_szUserDir, "\\STData\\Temp\\", strText, ".ST");

  00070	68 00 00 00 00	 push	 OFFSET ??_C@_03COHLPAFH@?4ST@
  00075	ff 75 ec	 push	 DWORD PTR _strText$[ebp]
  00078	8d 45 f0	 lea	 eax, DWORD PTR _szRunImsiFile$[ebp]
  0007b	c6 45 fc 01	 mov	 BYTE PTR __$EHRec$[ebp+8], 1
  0007f	68 00 00 00 00	 push	 OFFSET ??_C@_0O@OIDGLFFC@?2STData?2Temp?2@
  00084	ff b7 c8 0f 00
	00		 push	 DWORD PTR [edi+4040]
  0008a	68 00 00 00 00	 push	 OFFSET ??_C@_08KJEDNCKC@?$CFs?$CFs?$CFs?$CFs@
  0008f	50		 push	 eax
  00090	ff 15 00 00 00
	00		 call	 DWORD PTR __imp_?Format@?$CStringT@DV?$StrTraitMFC_DLL@DV?$ChTraitsCRT@D@ATL@@@@@ATL@@QAAXPBDZZ

; 1632 : 	::WritePrivateProfileString(STRATEGYLIST, "IMSIST", szRunImsiFile, m_szSTFilePath);

  00096	8b 35 00 00 00
	00		 mov	 esi, DWORD PTR __imp__WritePrivateProfileStringA@16
  0009c	83 c4 18	 add	 esp, 24			; 00000018H
  0009f	ff b7 cc 0f 00
	00		 push	 DWORD PTR [edi+4044]
  000a5	ff 75 f0	 push	 DWORD PTR _szRunImsiFile$[ebp]
  000a8	68 00 00 00 00	 push	 OFFSET ??_C@_06CJEEKDIM@IMSIST@
  000ad	68 00 00 00 00	 push	 OFFSET ??_C@_0N@GKFNKJGL@StrategyList@
  000b2	ff d6		 call	 esi

; 1633 : 	::CopyFile(m_szSTFilePath, szRunImsiFile, FALSE);

  000b4	6a 00		 push	 0
  000b6	ff 75 f0	 push	 DWORD PTR _szRunImsiFile$[ebp]
  000b9	ff b7 cc 0f 00
	00		 push	 DWORD PTR [edi+4044]
  000bf	ff 15 00 00 00
	00		 call	 DWORD PTR __imp__CopyFileA@12

; 1634 : 
; 1635 : 	SaveST(strText, TRUE);

  000c5	6a 01		 push	 1
  000c7	ff 75 ec	 push	 DWORD PTR _strText$[ebp]
  000ca	8b cf		 mov	 ecx, edi
  000cc	e8 00 00 00 00	 call	 ?SaveST@CDlgStrategyList@@IAEXPBDH@Z ; CDlgStrategyList::SaveST

; 1636 : 
; 1637 : 	//   Temp ST    
; 1638 : 	if(m_szSTFilePath.Find("\\\\") < 0 && m_szSTFilePath.Find("\\\\") < 0)

  000d1	6a 00		 push	 0
  000d3	68 00 00 00 00	 push	 OFFSET ??_C@_0BB@FBICNCLM@?2?$LL?g?$LP?k?$MA?Z?$LE?$NM?$MA?$KH?$MA?$PM?$LH?$KL?2@
  000d8	8d 8f cc 0f 00
	00		 lea	 ecx, DWORD PTR [edi+4044]
  000de	ff 15 00 00 00
	00		 call	 DWORD PTR __imp_?Find@?$CStringT@DV?$StrTraitMFC_DLL@DV?$ChTraitsCRT@D@ATL@@@@@ATL@@QBEHPBDH@Z
  000e4	85 c0		 test	 eax, eax
  000e6	79 4f		 jns	 SHORT $LN3@SaveRunTem
  000e8	6a 00		 push	 0
  000ea	68 00 00 00 00	 push	 OFFSET ??_C@_0BB@PJJNFPEB@?2?$LL?g?$LP?k?$MA?Z?A?$LG?G?U?$MA?$PM?$LH?$KL?2@
  000ef	8d 8f cc 0f 00
	00		 lea	 ecx, DWORD PTR [edi+4044]
  000f5	ff 15 00 00 00
	00		 call	 DWORD PTR __imp_?Find@?$CStringT@DV?$StrTraitMFC_DLL@DV?$ChTraitsCRT@D@ATL@@@@@ATL@@QBEHPBDH@Z
  000fb	85 c0		 test	 eax, eax
  000fd	79 38		 jns	 SHORT $LN3@SaveRunTem

; 1639 : 	{
; 1640 : 		::WritePrivateProfileString(STCONFIG_SIGNAL, NULL, NULL, szRunImsiFile);

  000ff	ff 75 f0	 push	 DWORD PTR _szRunImsiFile$[ebp]
  00102	6a 00		 push	 0
  00104	6a 00		 push	 0
  00106	68 00 00 00 00	 push	 OFFSET ??_C@_06CPODCDOI@Signal@
  0010b	ff d6		 call	 esi

; 1641 : 		::WritePrivateProfileString(STCONFIG_ORDER, NULL, NULL, szRunImsiFile);

  0010d	ff 75 f0	 push	 DWORD PTR _szRunImsiFile$[ebp]
  00110	6a 00		 push	 0
  00112	6a 00		 push	 0
  00114	68 00 00 00 00	 push	 OFFSET ??_C@_08IFJCKPBE@RunJumun@
  00119	ff d6		 call	 esi

; 1642 : 		::WritePrivateProfileString(STCONFIG_CLEAR, NULL, NULL, szRunImsiFile);

  0011b	ff 75 f0	 push	 DWORD PTR _szRunImsiFile$[ebp]
  0011e	6a 00		 push	 0
  00120	6a 00		 push	 0
  00122	68 00 00 00 00	 push	 OFFSET ??_C@_08DIPLEMAP@RunSetup@
  00127	ff d6		 call	 esi

; 1643 : 		::WritePrivateProfileString(STCONFIG_SETUP, NULL, NULL, szRunImsiFile);

  00129	ff 75 f0	 push	 DWORD PTR _szRunImsiFile$[ebp]
  0012c	6a 00		 push	 0
  0012e	6a 00		 push	 0
  00130	68 00 00 00 00	 push	 OFFSET ??_C@_08PHIBHFDB@RunClear@
  00135	ff d6		 call	 esi
$LN3@SaveRunTem:

; 1644 : 	}
; 1645 : 
; 1646 : 	return TRUE;

  00137	8d 4d f0	 lea	 ecx, DWORD PTR _szRunImsiFile$[ebp]
  0013a	be 01 00 00 00	 mov	 esi, 1
  0013f	ff 15 00 00 00
	00		 call	 DWORD PTR __imp_??1?$CStringT@DV?$StrTraitMFC_DLL@DV?$ChTraitsCRT@D@ATL@@@@@ATL@@QAE@XZ
$LN7@SaveRunTem:
  00145	8d 4d ec	 lea	 ecx, DWORD PTR _strText$[ebp]
  00148	ff 15 00 00 00
	00		 call	 DWORD PTR __imp_??1?$CStringT@DV?$StrTraitMFC_DLL@DV?$ChTraitsCRT@D@ATL@@@@@ATL@@QAE@XZ
  0014e	8b c6		 mov	 eax, esi

; 1647 : }

  00150	8b 4d f4	 mov	 ecx, DWORD PTR __$EHRec$[ebp]
  00153	64 89 0d 00 00
	00 00		 mov	 DWORD PTR fs:0, ecx
  0015a	59		 pop	 ecx
  0015b	5f		 pop	 edi
  0015c	5e		 pop	 esi
  0015d	5b		 pop	 ebx
  0015e	8b e5		 mov	 esp, ebp
  00160	5d		 pop	 ebp
  00161	c3		 ret	 0
_TEXT	ENDS
;	COMDAT text$x
text$x	SEGMENT
__unwindfunclet$?SaveRunTempFile@CDlgStrategyList@@IAEHXZ$0:
  00000	8d 4d ec	 lea	 ecx, DWORD PTR _strText$[ebp]
  00003	ff 25 00 00 00
	00		 jmp	 DWORD PTR __imp_??1?$CStringT@DV?$StrTraitMFC_DLL@DV?$ChTraitsCRT@D@ATL@@@@@ATL@@QAE@XZ
__unwindfunclet$?SaveRunTempFile@CDlgStrategyList@@IAEHXZ$1:
  00009	8d 4d f0	 lea	 ecx, DWORD PTR _szRunImsiFile$[ebp]
  0000c	ff 25 00 00 00
	00		 jmp	 DWORD PTR __imp_??1?$CStringT@DV?$StrTraitMFC_DLL@DV?$ChTraitsCRT@D@ATL@@@@@ATL@@QAE@XZ
  00012	cc		 int	 3
  00013	cc		 int	 3
  00014	cc		 int	 3
  00015	cc		 int	 3
  00016	cc		 int	 3
__ehhandler$?SaveRunTempFile@CDlgStrategyList@@IAEHXZ:
  00017	90		 npad	 1
  00018	90		 npad	 1
  00019	8b 54 24 08	 mov	 edx, DWORD PTR [esp+8]
  0001d	8d 42 0c	 lea	 eax, DWORD PTR [edx+12]
  00020	8b 4a e8	 mov	 ecx, DWORD PTR [edx-24]
  00023	33 c8		 xor	 ecx, eax
  00025	e8 00 00 00 00	 call	 @__security_check_cookie@4
  0002a	b8 00 00 00 00	 mov	 eax, OFFSET __ehfuncinfo$?SaveRunTempFile@CDlgStrategyList@@IAEHXZ
  0002f	e9 00 00 00 00	 jmp	 ___CxxFrameHandler3
text$x	ENDS
?SaveRunTempFile@CDlgStrategyList@@IAEHXZ ENDP		; CDlgStrategyList::SaveRunTempFile
; Function compile flags: /Ogtp
; File D:\git\src\IBK\IBK_DRFN\ProjSrc\SrcDrfn\Chart\HWSTRATEGYCONFIGUREWIZARD\DlgStrategyList.cpp
; File D:\git\src\IBK\IBK_DRFN\ProjSrc\SrcDrfn\Chart\HWSTRATEGYCONFIGUREWIZARD\DlgStrategyList.h
; File D:\git\src\IBK\IBK_DRFN\ProjSrc\SrcDrfn\Chart\HWSTRATEGYCONFIGUREWIZARD\DlgStrategyList.cpp
; File D:\git\src\IBK\IBK_DRFN\ProjSrc\SrcDrfn\Chart\HWSTRATEGYCONFIGUREWIZARD\DlgStrategyList.h
; File D:\git\src\IBK\IBK_DRFN\ProjSrc\SrcDrfn\Chart\HWSTRATEGYCONFIGUREWIZARD\DlgStrategyList.cpp
; File D:\git\src\IBK\IBK_DRFN\ProjSrc\SrcDrfn\Chart\HWSTRATEGYCONFIGUREWIZARD\DlgStrategyList.h
; File C:\Program Files (x86)\Microsoft Visual Studio\2019\Community\VC\Tools\MSVC\14.29.30133\atlmfc\include\afxcoll.inl
; File D:\git\src\IBK\IBK_DRFN\ProjSrc\SrcDrfn\Chart\HWSTRATEGYCONFIGUREWIZARD\DlgStrategyList.h
; File C:\Program Files (x86)\Microsoft Visual Studio\2019\Community\VC\Tools\MSVC\14.29.30133\atlmfc\include\afxcoll.inl
; File D:\git\src\IBK\IBK_DRFN\ProjSrc\SrcDrfn\Chart\HWSTRATEGYCONFIGUREWIZARD\DlgStrategyList.h
; File D:\git\src\IBK\IBK_DRFN\ProjSrc\SrcDrfn\Chart\HWSTRATEGYCONFIGUREWIZARD\DlgStrategyList.cpp
; File C:\Program Files (x86)\Microsoft Visual Studio\2019\Community\VC\Tools\MSVC\14.29.30133\atlmfc\include\cstringt.h
; File D:\git\src\IBK\IBK_DRFN\ProjSrc\SrcDrfn\Chart\HWSTRATEGYCONFIGUREWIZARD\DlgStrategyList.cpp
; File C:\Program Files (x86)\Microsoft Visual Studio\2019\Community\VC\Tools\MSVC\14.29.30133\atlmfc\include\cstringt.h
; File C:\Program Files (x86)\Microsoft Visual Studio\2019\Community\VC\Tools\MSVC\14.29.30133\atlmfc\include\atlsimpstr.h
; File C:\Program Files (x86)\Microsoft Visual Studio\2019\Community\VC\Tools\MSVC\14.29.30133\atlmfc\include\cstringt.h
; File D:\git\src\IBK\IBK_DRFN\ProjSrc\SrcDrfn\Chart\HWSTRATEGYCONFIGUREWIZARD\DlgStrategyList.cpp
; File C:\Program Files (x86)\Microsoft Visual Studio\2019\Community\VC\Tools\MSVC\14.29.30133\atlmfc\include\cstringt.h
; File D:\git\src\IBK\IBK_DRFN\ProjSrc\SrcDrfn\Chart\HWSTRATEGYCONFIGUREWIZARD\DlgStrategyList.cpp
; File C:\Program Files (x86)\Microsoft Visual Studio\2019\Community\VC\Tools\MSVC\14.29.30133\atlmfc\include\cstringt.h
; File C:\Program Files (x86)\Microsoft Visual Studio\2019\Community\VC\Tools\MSVC\14.29.30133\atlmfc\include\atlsimpstr.h
; File C:\Program Files (x86)\Microsoft Visual Studio\2019\Community\VC\Tools\MSVC\14.29.30133\atlmfc\include\cstringt.h
; File D:\git\src\IBK\IBK_DRFN\ProjSrc\SrcDrfn\Chart\HWSTRATEGYCONFIGUREWIZARD\DlgStrategyList.cpp
; File C:\Program Files (x86)\Microsoft Visual Studio\2019\Community\VC\Tools\MSVC\14.29.30133\atlmfc\include\afxcmn.inl
; File D:\git\src\IBK\IBK_DRFN\ProjSrc\SrcDrfn\Chart\HWSTRATEGYCONFIGUREWIZARD\DlgStrategyList.cpp
; File C:\Program Files (x86)\Microsoft Visual Studio\2019\Community\VC\Tools\MSVC\14.29.30133\atlmfc\include\afxcoll.inl
; File D:\git\src\IBK\IBK_DRFN\ProjSrc\SrcDrfn\Chart\HWSTRATEGYCONFIGUREWIZARD\DlgStrategyList.cpp
; File C:\Program Files (x86)\Microsoft Visual Studio\2019\Community\VC\Tools\MSVC\14.29.30133\atlmfc\include\afxcoll.inl
; File D:\git\src\IBK\IBK_DRFN\ProjSrc\SrcDrfn\Chart\HWSTRATEGYCONFIGUREWIZARD\DlgStrategyList.cpp
;	COMDAT ?InputModify@CDlgStrategyList@@IAEXHAAV?$CStringT@DV?$StrTraitMFC_DLL@DV?$ChTraitsCRT@D@ATL@@@@@ATL@@@Z
_TEXT	SEGMENT
_inArr$ = -336						; size = 20
_this$GSCopy$1$ = -316					; size = 4
$T2 = -312						; size = 4
$T3 = -308						; size = 4
_szSFG$ = -304						; size = 4
_szKey$ = -300						; size = 4
_szSTName$ = -296					; size = 4
_strPath$ = -292					; size = 4
$T4 = -288						; size = 4
$T5 = -288						; size = 4
$T6 = -288						; size = 4
$T7 = -284						; size = 4
$T8 = -284						; size = 4
_nFind$1$ = -280					; size = 4
_szTmp$9 = -280						; size = 4
$T10 = -280						; size = 4
$T11 = -280						; size = 4
_aTmp$ = -276						; size = 260
__$ArrayPad$ = -16					; size = 4
__$EHRec$ = -12						; size = 12
_nRow$ = 8						; size = 4
_szTitle$ = 12						; size = 4
?InputModify@CDlgStrategyList@@IAEXHAAV?$CStringT@DV?$StrTraitMFC_DLL@DV?$ChTraitsCRT@D@ATL@@@@@ATL@@@Z PROC ; CDlgStrategyList::InputModify, COMDAT
; _this$ = ecx

; 1688 : {

  00000	55		 push	 ebp
  00001	8b ec		 mov	 ebp, esp
  00003	6a ff		 push	 -1
  00005	68 00 00 00 00	 push	 __ehhandler$?InputModify@CDlgStrategyList@@IAEXHAAV?$CStringT@DV?$StrTraitMFC_DLL@DV?$ChTraitsCRT@D@ATL@@@@@ATL@@@Z
  0000a	64 a1 00 00 00
	00		 mov	 eax, DWORD PTR fs:0
  00010	50		 push	 eax
  00011	81 ec 44 01 00
	00		 sub	 esp, 324		; 00000144H
  00017	a1 00 00 00 00	 mov	 eax, DWORD PTR ___security_cookie
  0001c	33 c5		 xor	 eax, ebp
  0001e	89 45 f0	 mov	 DWORD PTR __$ArrayPad$[ebp], eax
  00021	53		 push	 ebx
  00022	56		 push	 esi
  00023	57		 push	 edi
  00024	50		 push	 eax
  00025	8d 45 f4	 lea	 eax, DWORD PTR __$EHRec$[ebp]
  00028	64 a3 00 00 00
	00		 mov	 DWORD PTR fs:0, eax
  0002e	8b d9		 mov	 ebx, ecx
  00030	89 9d c4 fe ff
	ff		 mov	 DWORD PTR _this$GSCopy$1$[ebp], ebx
  00036	8b 75 0c	 mov	 esi, DWORD PTR _szTitle$[ebp]

; 1689 : 	SetDlgItemText(IDC_EDIT_STNAME, "");

  00039	68 00 00 00 00	 push	 OFFSET ??_C@_00CNPNBAHC@@
  0003e	68 0a 52 00 00	 push	 21002			; 0000520aH
  00043	c7 85 e4 fe ff
	ff 00 00 00 00	 mov	 DWORD PTR $T7[ebp], 0
  0004d	e8 00 00 00 00	 call	 ?SetDlgItemTextA@CWnd@@QAEXHPBD@Z ; CWnd::SetDlgItemTextA

; 1690 : 	m_InputList.DeleteAllItems();

  00052	8d bb 18 0e 00
	00		 lea	 edi, DWORD PTR [ebx+3608]
  00058	8b cf		 mov	 ecx, edi
  0005a	e8 00 00 00 00	 call	 ?DeleteAllItems@CXListCtrl@@QAEHXZ ; CXListCtrl::DeleteAllItems

; 1691 : 
; 1692 : 	CString szSTName;

  0005f	8d 8d d8 fe ff
	ff		 lea	 ecx, DWORD PTR _szSTName$[ebp]
  00065	ff 15 00 00 00
	00		 call	 DWORD PTR __imp_??0?$CStringT@DV?$StrTraitMFC_DLL@DV?$ChTraitsCRT@D@ATL@@@@@ATL@@QAE@XZ

; 1693 : 	CStringArray inArr;

  0006b	8d 8d b0 fe ff
	ff		 lea	 ecx, DWORD PTR _inArr$[ebp]
  00071	c7 45 fc 00 00
	00 00		 mov	 DWORD PTR __$EHRec$[ebp+8], 0
  00078	e8 00 00 00 00	 call	 ??0CStringArray@@QAE@XZ	; CStringArray::CStringArray
; File D:\git\src\IBK\IBK_DRFN\ProjSrc\SrcDrfn\Chart\HWSTRATEGYCONFIGUREWIZARD\DlgStrategyList.h

; 178  : 		int nFind = szTitle.Find("(");

  0007d	6a 00		 push	 0
  0007f	68 00 00 00 00	 push	 OFFSET ??_C@_01ODHLEDKK@?$CI@
  00084	8b ce		 mov	 ecx, esi
; File D:\git\src\IBK\IBK_DRFN\ProjSrc\SrcDrfn\Chart\HWSTRATEGYCONFIGUREWIZARD\DlgStrategyList.cpp

; 1693 : 	CStringArray inArr;

  00086	c6 45 fc 01	 mov	 BYTE PTR __$EHRec$[ebp+8], 1
; File D:\git\src\IBK\IBK_DRFN\ProjSrc\SrcDrfn\Chart\HWSTRATEGYCONFIGUREWIZARD\DlgStrategyList.h

; 178  : 		int nFind = szTitle.Find("(");

  0008a	ff 15 00 00 00
	00		 call	 DWORD PTR __imp_?Find@?$CStringT@DV?$StrTraitMFC_DLL@DV?$ChTraitsCRT@D@ATL@@@@@ATL@@QBEHPBDH@Z
  00090	89 85 e8 fe ff
	ff		 mov	 DWORD PTR _nFind$1$[ebp], eax

; 179  : 		if(nFind<0) return nFind;

  00096	85 c0		 test	 eax, eax
  00098	0f 88 9f 03 00
	00		 js	 $LN19@InputModif

; 180  : 
; 181  : 		rString = szTitle.Left(nFind);

  0009e	50		 push	 eax
  0009f	8d 85 e0 fe ff
	ff		 lea	 eax, DWORD PTR $T5[ebp]
  000a5	8b ce		 mov	 ecx, esi
  000a7	50		 push	 eax
  000a8	ff 15 00 00 00
	00		 call	 DWORD PTR __imp_?Left@?$CStringT@DV?$StrTraitMFC_DLL@DV?$ChTraitsCRT@D@ATL@@@@@ATL@@QBE?AV12@H@Z
  000ae	50		 push	 eax
  000af	8d 8d d8 fe ff
	ff		 lea	 ecx, DWORD PTR _szSTName$[ebp]
  000b5	c6 45 fc 02	 mov	 BYTE PTR __$EHRec$[ebp+8], 2
  000b9	ff 15 00 00 00
	00		 call	 DWORD PTR __imp_??4?$CStringT@DV?$StrTraitMFC_DLL@DV?$ChTraitsCRT@D@ATL@@@@@ATL@@QAEAAV01@ABV01@@Z
  000bf	8d 8d e0 fe ff
	ff		 lea	 ecx, DWORD PTR $T5[ebp]
  000c5	c6 45 fc 01	 mov	 BYTE PTR __$EHRec$[ebp+8], 1
  000c9	ff 15 00 00 00
	00		 call	 DWORD PTR __imp_??1?$CStringT@DV?$StrTraitMFC_DLL@DV?$ChTraitsCRT@D@ATL@@@@@ATL@@QAE@XZ
; File D:\git\src\IBK\IBK_DRFN\ProjSrc\SrcDrfn\Chart\HWSTRATEGYCONFIGUREWIZARD\DlgStrategyList.cpp

; 1699 : 	szTitle = szTitle.Mid(nFind+1);

  000cf	8b 85 e8 fe ff
	ff		 mov	 eax, DWORD PTR _nFind$1$[ebp]
  000d5	8b ce		 mov	 ecx, esi
  000d7	40		 inc	 eax
  000d8	50		 push	 eax
  000d9	8d 85 e0 fe ff
	ff		 lea	 eax, DWORD PTR $T6[ebp]
  000df	50		 push	 eax
  000e0	ff 15 00 00 00
	00		 call	 DWORD PTR __imp_?Mid@?$CStringT@DV?$StrTraitMFC_DLL@DV?$ChTraitsCRT@D@ATL@@@@@ATL@@QBE?AV12@H@Z
  000e6	50		 push	 eax
  000e7	8b ce		 mov	 ecx, esi
  000e9	c6 45 fc 03	 mov	 BYTE PTR __$EHRec$[ebp+8], 3
  000ed	ff 15 00 00 00
	00		 call	 DWORD PTR __imp_??4?$CStringT@DV?$StrTraitMFC_DLL@DV?$ChTraitsCRT@D@ATL@@@@@ATL@@QAEAAV01@ABV01@@Z
  000f3	8d 8d e0 fe ff
	ff		 lea	 ecx, DWORD PTR $T6[ebp]
  000f9	c6 45 fc 01	 mov	 BYTE PTR __$EHRec$[ebp+8], 1
  000fd	ff 15 00 00 00
	00		 call	 DWORD PTR __imp_??1?$CStringT@DV?$StrTraitMFC_DLL@DV?$ChTraitsCRT@D@ATL@@@@@ATL@@QAE@XZ

; 1700 : 	szTitle.Remove(')');

  00103	6a 29		 push	 41			; 00000029H
  00105	8b ce		 mov	 ecx, esi
  00107	ff 15 00 00 00
	00		 call	 DWORD PTR __imp_?Remove@?$CStringT@DV?$StrTraitMFC_DLL@DV?$ChTraitsCRT@D@ATL@@@@@ATL@@QAEHD@Z

; 1701 : 
; 1702 : 	SetDlgItemText(IDC_EDIT_STNAME, szSTName);

  0010d	ff b5 d8 fe ff
	ff		 push	 DWORD PTR _szSTName$[ebp]
  00113	8b cb		 mov	 ecx, ebx
  00115	68 0a 52 00 00	 push	 21002			; 0000520aH
  0011a	e8 00 00 00 00	 call	 ?SetDlgItemTextA@CWnd@@QAEXHPBD@Z ; CWnd::SetDlgItemTextA

; 1703 : 	
; 1704 : 	int nCnt = CHelperSTTitle::GetInputData(szTitle, inArr);

  0011f	56		 push	 esi
  00120	8d 8d e4 fe ff
	ff		 lea	 ecx, DWORD PTR $T8[ebp]
  00126	ff 15 00 00 00
	00		 call	 DWORD PTR __imp_??0?$CStringT@DV?$StrTraitMFC_DLL@DV?$ChTraitsCRT@D@ATL@@@@@ATL@@QAE@ABV01@@Z
; File D:\git\src\IBK\IBK_DRFN\ProjSrc\SrcDrfn\Chart\HWSTRATEGYCONFIGUREWIZARD\DlgStrategyList.h

; 190  : 		int nFind = szInput.Find(',');

  0012c	6a 00		 push	 0
  0012e	6a 2c		 push	 44			; 0000002cH
  00130	8d 8d e4 fe ff
	ff		 lea	 ecx, DWORD PTR $T8[ebp]
  00136	ff 15 00 00 00
	00		 call	 DWORD PTR __imp_?Find@?$CStringT@DV?$StrTraitMFC_DLL@DV?$ChTraitsCRT@D@ATL@@@@@ATL@@QBEHDH@Z

; 191  : 		CString szTmp;

  0013c	8d 8d e8 fe ff
	ff		 lea	 ecx, DWORD PTR _szTmp$9[ebp]
  00142	8b f0		 mov	 esi, eax
  00144	ff 15 00 00 00
	00		 call	 DWORD PTR __imp_??0?$CStringT@DV?$StrTraitMFC_DLL@DV?$ChTraitsCRT@D@ATL@@@@@ATL@@QAE@XZ
  0014a	c6 45 fc 05	 mov	 BYTE PTR __$EHRec$[ebp+8], 5

; 192  : 		while(nFind>0)

  0014e	85 f6		 test	 esi, esi
  00150	0f 8e 9f 00 00
	00		 jle	 $LN28@InputModif
$LL27@InputModif:

; 193  : 		{
; 194  : 			szTmp = szInput.Left(nFind);

  00156	56		 push	 esi
  00157	8d 85 cc fe ff
	ff		 lea	 eax, DWORD PTR $T3[ebp]
  0015d	50		 push	 eax
  0015e	8d 8d e4 fe ff
	ff		 lea	 ecx, DWORD PTR $T8[ebp]
  00164	ff 15 00 00 00
	00		 call	 DWORD PTR __imp_?Left@?$CStringT@DV?$StrTraitMFC_DLL@DV?$ChTraitsCRT@D@ATL@@@@@ATL@@QBE?AV12@H@Z
  0016a	50		 push	 eax
  0016b	8d 8d e8 fe ff
	ff		 lea	 ecx, DWORD PTR _szTmp$9[ebp]
  00171	c6 45 fc 06	 mov	 BYTE PTR __$EHRec$[ebp+8], 6
  00175	ff 15 00 00 00
	00		 call	 DWORD PTR __imp_??4?$CStringT@DV?$StrTraitMFC_DLL@DV?$ChTraitsCRT@D@ATL@@@@@ATL@@QAEAAV01@ABV01@@Z
  0017b	8d 8d cc fe ff
	ff		 lea	 ecx, DWORD PTR $T3[ebp]
  00181	c6 45 fc 05	 mov	 BYTE PTR __$EHRec$[ebp+8], 5
  00185	ff 15 00 00 00
	00		 call	 DWORD PTR __imp_??1?$CStringT@DV?$StrTraitMFC_DLL@DV?$ChTraitsCRT@D@ATL@@@@@ATL@@QAE@XZ

; 195  : 			szInput = szInput.Mid(nFind+1);

  0018b	8d 46 01	 lea	 eax, DWORD PTR [esi+1]
  0018e	50		 push	 eax
  0018f	8d 85 c8 fe ff
	ff		 lea	 eax, DWORD PTR $T2[ebp]
  00195	50		 push	 eax
  00196	8d 8d e4 fe ff
	ff		 lea	 ecx, DWORD PTR $T8[ebp]
  0019c	ff 15 00 00 00
	00		 call	 DWORD PTR __imp_?Mid@?$CStringT@DV?$StrTraitMFC_DLL@DV?$ChTraitsCRT@D@ATL@@@@@ATL@@QBE?AV12@H@Z
  001a2	50		 push	 eax
  001a3	8d 8d e4 fe ff
	ff		 lea	 ecx, DWORD PTR $T8[ebp]
  001a9	c6 45 fc 07	 mov	 BYTE PTR __$EHRec$[ebp+8], 7
  001ad	ff 15 00 00 00
	00		 call	 DWORD PTR __imp_??4?$CStringT@DV?$StrTraitMFC_DLL@DV?$ChTraitsCRT@D@ATL@@@@@ATL@@QAEAAV01@ABV01@@Z
  001b3	8d 8d c8 fe ff
	ff		 lea	 ecx, DWORD PTR $T2[ebp]
  001b9	c6 45 fc 05	 mov	 BYTE PTR __$EHRec$[ebp+8], 5
  001bd	ff 15 00 00 00
	00		 call	 DWORD PTR __imp_??1?$CStringT@DV?$StrTraitMFC_DLL@DV?$ChTraitsCRT@D@ATL@@@@@ATL@@QAE@XZ
; File C:\Program Files (x86)\Microsoft Visual Studio\2019\Community\VC\Tools\MSVC\14.29.30133\atlmfc\include\afxcoll.inl

; 321  : 		SetAtGrow(nIndex, newElement);

  001c3	8d 85 e8 fe ff
	ff		 lea	 eax, DWORD PTR _szTmp$9[ebp]
  001c9	50		 push	 eax
  001ca	ff b5 b8 fe ff
	ff		 push	 DWORD PTR _inArr$[ebp+8]
  001d0	8d 8d b0 fe ff
	ff		 lea	 ecx, DWORD PTR _inArr$[ebp]
  001d6	e8 00 00 00 00	 call	 ?SetAtGrow@CStringArray@@QAEXHABV?$CStringT@DV?$StrTraitMFC_DLL@DV?$ChTraitsCRT@D@ATL@@@@@ATL@@@Z ; CStringArray::SetAtGrow
; File D:\git\src\IBK\IBK_DRFN\ProjSrc\SrcDrfn\Chart\HWSTRATEGYCONFIGUREWIZARD\DlgStrategyList.h

; 198  : 			nFind = szInput.Find(',');

  001db	6a 00		 push	 0
  001dd	6a 2c		 push	 44			; 0000002cH
  001df	8d 8d e4 fe ff
	ff		 lea	 ecx, DWORD PTR $T8[ebp]
  001e5	ff 15 00 00 00
	00		 call	 DWORD PTR __imp_?Find@?$CStringT@DV?$StrTraitMFC_DLL@DV?$ChTraitsCRT@D@ATL@@@@@ATL@@QBEHDH@Z
  001eb	8b f0		 mov	 esi, eax
  001ed	85 f6		 test	 esi, esi
  001ef	0f 8f 61 ff ff
	ff		 jg	 $LL27@InputModif
$LN28@InputModif:
; File C:\Program Files (x86)\Microsoft Visual Studio\2019\Community\VC\Tools\MSVC\14.29.30133\atlmfc\include\afxcoll.inl

; 321  : 		SetAtGrow(nIndex, newElement);

  001f5	8d 85 e4 fe ff
	ff		 lea	 eax, DWORD PTR $T8[ebp]
  001fb	50		 push	 eax
  001fc	ff b5 b8 fe ff
	ff		 push	 DWORD PTR _inArr$[ebp+8]
  00202	8d 8d b0 fe ff
	ff		 lea	 ecx, DWORD PTR _inArr$[ebp]
  00208	e8 00 00 00 00	 call	 ?SetAtGrow@CStringArray@@QAEXHABV?$CStringT@DV?$StrTraitMFC_DLL@DV?$ChTraitsCRT@D@ATL@@@@@ATL@@@Z ; CStringArray::SetAtGrow
; File D:\git\src\IBK\IBK_DRFN\ProjSrc\SrcDrfn\Chart\HWSTRATEGYCONFIGUREWIZARD\DlgStrategyList.h

; 202  : 		return inArr.GetSize();

  0020d	8b 85 b8 fe ff
	ff		 mov	 eax, DWORD PTR _inArr$[ebp+8]
  00213	8d 8d e8 fe ff
	ff		 lea	 ecx, DWORD PTR _szTmp$9[ebp]
  00219	89 85 e0 fe ff
	ff		 mov	 DWORD PTR $T4[ebp], eax
  0021f	ff 15 00 00 00
	00		 call	 DWORD PTR __imp_??1?$CStringT@DV?$StrTraitMFC_DLL@DV?$ChTraitsCRT@D@ATL@@@@@ATL@@QAE@XZ
  00225	8d 8d e4 fe ff
	ff		 lea	 ecx, DWORD PTR $T8[ebp]
  0022b	c6 45 fc 01	 mov	 BYTE PTR __$EHRec$[ebp+8], 1
  0022f	ff 15 00 00 00
	00		 call	 DWORD PTR __imp_??1?$CStringT@DV?$StrTraitMFC_DLL@DV?$ChTraitsCRT@D@ATL@@@@@ATL@@QAE@XZ
; File D:\git\src\IBK\IBK_DRFN\ProjSrc\SrcDrfn\Chart\HWSTRATEGYCONFIGUREWIZARD\DlgStrategyList.cpp

; 1707 : 	int nType = (int)m_GridSTList.GetItemData(nRow, COL_INFOPOINTER);

  00235	6a 01		 push	 1
  00237	ff 75 08	 push	 DWORD PTR _nRow$[ebp]
  0023a	8d 8b d8 0f 00
	00		 lea	 ecx, DWORD PTR [ebx+4056]
  00240	e8 00 00 00 00	 call	 ?GetItemData@CGridCtrl@@QBEJHH@Z ; CGridCtrl::GetItemData

; 1708 : 	CString strPath;

  00245	8d 8d dc fe ff
	ff		 lea	 ecx, DWORD PTR _strPath$[ebp]
  0024b	8b f0		 mov	 esi, eax
  0024d	ff 15 00 00 00
	00		 call	 DWORD PTR __imp_??0?$CStringT@DV?$StrTraitMFC_DLL@DV?$ChTraitsCRT@D@ATL@@@@@ATL@@QAE@XZ

; 1709 : 	if(nType==SYSTEM_ST)

  00253	85 f6		 test	 esi, esi
  00255	75 2f		 jne	 SHORT $LN6@InputModif
; File C:\Program Files (x86)\Microsoft Visual Studio\2019\Community\VC\Tools\MSVC\14.29.30133\atlmfc\include\cstringt.h

; 2401 : 		CStringT strResult( str1.GetManager() );

  00257	8d 8b c4 0f 00
	00		 lea	 ecx, DWORD PTR [ebx+4036]
; File D:\git\src\IBK\IBK_DRFN\ProjSrc\SrcDrfn\Chart\HWSTRATEGYCONFIGUREWIZARD\DlgStrategyList.cpp

; 1711 : 		strPath = m_szDataDir + STDATA_SD_RELEASE;

  0025d	c6 45 fc 09	 mov	 BYTE PTR __$EHRec$[ebp+8], 9
; File C:\Program Files (x86)\Microsoft Visual Studio\2019\Community\VC\Tools\MSVC\14.29.30133\atlmfc\include\cstringt.h

; 2401 : 		CStringT strResult( str1.GetManager() );

  00261	ff 15 00 00 00
	00		 call	 DWORD PTR __imp_?GetManager@?$CStringT@DV?$StrTraitMFC_DLL@DV?$ChTraitsCRT@D@ATL@@@@@ATL@@QBEPAUIAtlStringMgr@2@XZ
  00267	50		 push	 eax
  00268	8d 8d e8 fe ff
	ff		 lea	 ecx, DWORD PTR $T11[ebp]
  0026e	ff 15 00 00 00
	00		 call	 DWORD PTR __imp_??0?$CStringT@DV?$StrTraitMFC_DLL@DV?$ChTraitsCRT@D@ATL@@@@@ATL@@QAE@PAUIAtlStringMgr@1@@Z
; File C:\Program Files (x86)\Microsoft Visual Studio\2019\Community\VC\Tools\MSVC\14.29.30133\atlmfc\include\atlsimpstr.h

; 519  : 		return( GetData()->nDataLength );

  00274	8b 83 c4 0f 00
	00		 mov	 eax, DWORD PTR [ebx+4036]
; File C:\Program Files (x86)\Microsoft Visual Studio\2019\Community\VC\Tools\MSVC\14.29.30133\atlmfc\include\cstringt.h

; 2405 : 		return( strResult );

  0027a	c7 85 e4 fe ff
	ff 01 00 00 00	 mov	 DWORD PTR $T7[ebp], 1
; File D:\git\src\IBK\IBK_DRFN\ProjSrc\SrcDrfn\Chart\HWSTRATEGYCONFIGUREWIZARD\DlgStrategyList.cpp

; 1712 : 	}

  00284	eb 32		 jmp	 SHORT $LN88@InputModif
$LN6@InputModif:

; 1713 : 	else if(nType==USER_ST)

  00286	83 fe 01	 cmp	 esi, 1
  00289	75 67		 jne	 SHORT $LN8@InputModif
; File C:\Program Files (x86)\Microsoft Visual Studio\2019\Community\VC\Tools\MSVC\14.29.30133\atlmfc\include\cstringt.h

; 2401 : 		CStringT strResult( str1.GetManager() );

  0028b	8d 8b c8 0f 00
	00		 lea	 ecx, DWORD PTR [ebx+4040]
; File D:\git\src\IBK\IBK_DRFN\ProjSrc\SrcDrfn\Chart\HWSTRATEGYCONFIGUREWIZARD\DlgStrategyList.cpp

; 1715 : 		strPath = m_szUserDir + STDATA_SD_RELEASE;

  00291	c6 45 fc 0a	 mov	 BYTE PTR __$EHRec$[ebp+8], 10 ; 0000000aH
; File C:\Program Files (x86)\Microsoft Visual Studio\2019\Community\VC\Tools\MSVC\14.29.30133\atlmfc\include\cstringt.h

; 2401 : 		CStringT strResult( str1.GetManager() );

  00295	ff 15 00 00 00
	00		 call	 DWORD PTR __imp_?GetManager@?$CStringT@DV?$StrTraitMFC_DLL@DV?$ChTraitsCRT@D@ATL@@@@@ATL@@QBEPAUIAtlStringMgr@2@XZ
  0029b	50		 push	 eax
  0029c	8d 8d e8 fe ff
	ff		 lea	 ecx, DWORD PTR $T10[ebp]
  002a2	ff 15 00 00 00
	00		 call	 DWORD PTR __imp_??0?$CStringT@DV?$StrTraitMFC_DLL@DV?$ChTraitsCRT@D@ATL@@@@@ATL@@QAE@PAUIAtlStringMgr@1@@Z
; File C:\Program Files (x86)\Microsoft Visual Studio\2019\Community\VC\Tools\MSVC\14.29.30133\atlmfc\include\atlsimpstr.h

; 519  : 		return( GetData()->nDataLength );

  002a8	8b 83 c8 0f 00
	00		 mov	 eax, DWORD PTR [ebx+4040]
; File C:\Program Files (x86)\Microsoft Visual Studio\2019\Community\VC\Tools\MSVC\14.29.30133\atlmfc\include\cstringt.h

; 2405 : 		return( strResult );

  002ae	c7 85 e4 fe ff
	ff 02 00 00 00	 mov	 DWORD PTR $T7[ebp], 2
$LN88@InputModif:
; File D:\git\src\IBK\IBK_DRFN\ProjSrc\SrcDrfn\Chart\HWSTRATEGYCONFIGUREWIZARD\DlgStrategyList.cpp

; 1717 : 	CString szSFG;

  002b8	6a 0a		 push	 10			; 0000000aH
  002ba	68 00 00 00 00	 push	 OFFSET ??_C@_0L@FNFCAPPB@?2STDATA?2SD@
  002bf	ff 70 f4	 push	 DWORD PTR [eax-12]
  002c2	50		 push	 eax
  002c3	8d 85 e8 fe ff
	ff		 lea	 eax, DWORD PTR $T10[ebp]
  002c9	50		 push	 eax
  002ca	ff 15 00 00 00
	00		 call	 DWORD PTR __imp_?Concatenate@?$CSimpleStringT@D$00@ATL@@KAXAAV12@PBDH1H@Z
  002d0	83 c4 14	 add	 esp, 20			; 00000014H
  002d3	8d 85 e8 fe ff
	ff		 lea	 eax, DWORD PTR $T10[ebp]
  002d9	8d 8d dc fe ff
	ff		 lea	 ecx, DWORD PTR _strPath$[ebp]
  002df	50		 push	 eax
  002e0	ff 15 00 00 00
	00		 call	 DWORD PTR __imp_??4?$CStringT@DV?$StrTraitMFC_DLL@DV?$ChTraitsCRT@D@ATL@@@@@ATL@@QAEAAV01@ABV01@@Z
  002e6	8d 8d e8 fe ff
	ff		 lea	 ecx, DWORD PTR $T10[ebp]
  002ec	ff 15 00 00 00
	00		 call	 DWORD PTR __imp_??1?$CStringT@DV?$StrTraitMFC_DLL@DV?$ChTraitsCRT@D@ATL@@@@@ATL@@QAE@XZ
$LN8@InputModif:
  002f2	8d 8d d0 fe ff
	ff		 lea	 ecx, DWORD PTR _szSFG$[ebp]
  002f8	ff 15 00 00 00
	00		 call	 DWORD PTR __imp_??0?$CStringT@DV?$StrTraitMFC_DLL@DV?$ChTraitsCRT@D@ATL@@@@@ATL@@QAE@XZ

; 1718 : 	szSFG.Format("%s\\%s%s", strPath, szSTName, ".SFG");

  002fe	68 00 00 00 00	 push	 OFFSET ??_C@_04FFLLBBHL@?4SFG@
  00303	ff b5 d8 fe ff
	ff		 push	 DWORD PTR _szSTName$[ebp]
  00309	8d 85 d0 fe ff
	ff		 lea	 eax, DWORD PTR _szSFG$[ebp]
  0030f	c6 45 fc 0b	 mov	 BYTE PTR __$EHRec$[ebp+8], 11 ; 0000000bH
  00313	ff b5 dc fe ff
	ff		 push	 DWORD PTR _strPath$[ebp]
  00319	68 00 00 00 00	 push	 OFFSET ??_C@_07MHLIEPKG@?$CFs?2?$CFs?$CFs@
  0031e	50		 push	 eax
  0031f	ff 15 00 00 00
	00		 call	 DWORD PTR __imp_?Format@?$CStringT@DV?$StrTraitMFC_DLL@DV?$ChTraitsCRT@D@ATL@@@@@ATL@@QAAXPBDZZ
  00325	83 c4 14	 add	 esp, 20			; 00000014H

; 1719 : 
; 1720 : 	LPCSTR szSection = "Variables";
; 1721 : 	CString szKey;

  00328	8d 8d d4 fe ff
	ff		 lea	 ecx, DWORD PTR _szKey$[ebp]
  0032e	ff 15 00 00 00
	00		 call	 DWORD PTR __imp_??0?$CStringT@DV?$StrTraitMFC_DLL@DV?$ChTraitsCRT@D@ATL@@@@@ATL@@QAE@XZ

; 1722 : 	char aTmp[MAX_PATH]={0,};

  00334	68 04 01 00 00	 push	 260			; 00000104H
  00339	8d 85 ec fe ff
	ff		 lea	 eax, DWORD PTR _aTmp$[ebp]
  0033f	c6 45 fc 0c	 mov	 BYTE PTR __$EHRec$[ebp+8], 12 ; 0000000cH
  00343	6a 00		 push	 0
  00345	50		 push	 eax
  00346	e8 00 00 00 00	 call	 _memset

; 1723 : //	int nCnt = ::GetPrivateProfileInt(szSection, "InputCnt", 0, szSFG);
; 1724 : 	int nAddRow;
; 1725 : 	for(int i=0; i<nCnt; i++)

  0034b	33 f6		 xor	 esi, esi
  0034d	83 c4 0c	 add	 esp, 12			; 0000000cH
  00350	39 b5 e0 fe ff
	ff		 cmp	 DWORD PTR $T4[ebp], esi
  00356	0f 8e bd 00 00
	00		 jle	 $LN3@InputModif
  0035c	0f 1f 40 00	 npad	 4
$LL4@InputModif:

; 1726 : 	{
; 1727 : 		szKey.Format("InputName%d", i);

  00360	56		 push	 esi
  00361	8d 85 d4 fe ff
	ff		 lea	 eax, DWORD PTR _szKey$[ebp]
  00367	68 00 00 00 00	 push	 OFFSET ??_C@_0M@MKPENJBJ@InputName?$CFd@
  0036c	50		 push	 eax
  0036d	ff 15 00 00 00
	00		 call	 DWORD PTR __imp_?Format@?$CStringT@DV?$StrTraitMFC_DLL@DV?$ChTraitsCRT@D@ATL@@@@@ATL@@QAAXPBDZZ
  00373	83 c4 0c	 add	 esp, 12			; 0000000cH

; 1728 : 		::GetPrivateProfileString(szSection, szKey, "", aTmp, MAX_PATH, szSFG);

  00376	8d 85 ec fe ff
	ff		 lea	 eax, DWORD PTR _aTmp$[ebp]
  0037c	ff b5 d0 fe ff
	ff		 push	 DWORD PTR _szSFG$[ebp]
  00382	68 04 01 00 00	 push	 260			; 00000104H
  00387	50		 push	 eax
  00388	68 00 00 00 00	 push	 OFFSET ??_C@_00CNPNBAHC@@
  0038d	ff b5 d4 fe ff
	ff		 push	 DWORD PTR _szKey$[ebp]
  00393	68 00 00 00 00	 push	 OFFSET ??_C@_09IJIPICN@Variables@
  00398	ff 15 00 00 00
	00		 call	 DWORD PTR __imp__GetPrivateProfileStringA@24
; File C:\Program Files (x86)\Microsoft Visual Studio\2019\Community\VC\Tools\MSVC\14.29.30133\atlmfc\include\afxcmn.inl

; 155  : 	{ ASSERT(::IsWindow(m_hWnd)); return (int) ::SendMessage(m_hWnd, LVM_GETITEMCOUNT, 0, 0L); }

  0039e	6a 00		 push	 0
  003a0	6a 00		 push	 0
  003a2	68 04 10 00 00	 push	 4100			; 00001004H
  003a7	ff b3 38 0e 00
	00		 push	 DWORD PTR [ebx+3640]
  003ad	ff 15 00 00 00
	00		 call	 DWORD PTR __imp__SendMessageA@16
; File D:\git\src\IBK\IBK_DRFN\ProjSrc\SrcDrfn\Chart\HWSTRATEGYCONFIGUREWIZARD\DlgStrategyList.cpp

; 1731 : 		 nAddRow = m_InputList.InsertItem(m_InputList.GetItemCount(), "");

  003b3	68 00 00 00 00	 push	 OFFSET ??_C@_00CNPNBAHC@@
  003b8	50		 push	 eax
  003b9	8b cf		 mov	 ecx, edi
  003bb	e8 00 00 00 00	 call	 ?InsertItem@CXListCtrl@@QAEHHPBD@Z ; CXListCtrl::InsertItem
  003c0	8b d8		 mov	 ebx, eax

; 1732 : 		 m_InputList.SetItemText(nAddRow, 0, aTmp);

  003c2	8b cf		 mov	 ecx, edi
  003c4	8d 85 ec fe ff
	ff		 lea	 eax, DWORD PTR _aTmp$[ebp]
  003ca	50		 push	 eax
  003cb	6a 00		 push	 0
  003cd	53		 push	 ebx
  003ce	e8 00 00 00 00	 call	 ?SetItemText@CXListCtrl@@QAEHHHPBD@Z ; CXListCtrl::SetItemText
; File C:\Program Files (x86)\Microsoft Visual Studio\2019\Community\VC\Tools\MSVC\14.29.30133\atlmfc\include\afxcoll.inl

; 289  : 		if( nIndex < 0 || nIndex >= m_nSize )

  003d3	85 f6		 test	 esi, esi
  003d5	0f 88 97 00 00
	00		 js	 $LN79@InputModif
  003db	3b b5 b8 fe ff
	ff		 cmp	 esi, DWORD PTR _inArr$[ebp+8]
  003e1	0f 8d 8b 00 00
	00		 jge	 $LN79@InputModif
; File D:\git\src\IBK\IBK_DRFN\ProjSrc\SrcDrfn\Chart\HWSTRATEGYCONFIGUREWIZARD\DlgStrategyList.cpp

; 1733 : 		 m_InputList.SetItemText(nAddRow, 1, inArr.GetAt(i));

  003e7	8b 85 b4 fe ff
	ff		 mov	 eax, DWORD PTR _inArr$[ebp+4]
  003ed	8b cf		 mov	 ecx, edi
  003ef	ff 34 b0	 push	 DWORD PTR [eax+esi*4]
  003f2	6a 01		 push	 1
  003f4	53		 push	 ebx
  003f5	e8 00 00 00 00	 call	 ?SetItemText@CXListCtrl@@QAEHHHPBD@Z ; CXListCtrl::SetItemText

; 1734 : 
; 1735 : 		 m_InputList.SetEditBox(nAddRow,1);

  003fa	6a 01		 push	 1
  003fc	6a 01		 push	 1
  003fe	53		 push	 ebx
  003ff	8b cf		 mov	 ecx, edi
  00401	e8 00 00 00 00	 call	 ?SetEditBox@CXListCtrl@@QAEHHHH@Z ; CXListCtrl::SetEditBox
  00406	8b 9d c4 fe ff
	ff		 mov	 ebx, DWORD PTR _this$GSCopy$1$[ebp]
  0040c	46		 inc	 esi
  0040d	3b b5 e0 fe ff
	ff		 cmp	 esi, DWORD PTR $T4[ebp]
  00413	0f 8c 47 ff ff
	ff		 jl	 $LL4@InputModif
$LN3@InputModif:

; 1737 : }

  00419	8d 8d d4 fe ff
	ff		 lea	 ecx, DWORD PTR _szKey$[ebp]
  0041f	ff 15 00 00 00
	00		 call	 DWORD PTR __imp_??1?$CStringT@DV?$StrTraitMFC_DLL@DV?$ChTraitsCRT@D@ATL@@@@@ATL@@QAE@XZ
  00425	8d 8d d0 fe ff
	ff		 lea	 ecx, DWORD PTR _szSFG$[ebp]
  0042b	ff 15 00 00 00
	00		 call	 DWORD PTR __imp_??1?$CStringT@DV?$StrTraitMFC_DLL@DV?$ChTraitsCRT@D@ATL@@@@@ATL@@QAE@XZ
  00431	8d 8d dc fe ff
	ff		 lea	 ecx, DWORD PTR _strPath$[ebp]
  00437	ff 15 00 00 00
	00		 call	 DWORD PTR __imp_??1?$CStringT@DV?$StrTraitMFC_DLL@DV?$ChTraitsCRT@D@ATL@@@@@ATL@@QAE@XZ
$LN19@InputModif:
  0043d	8d 8d b0 fe ff
	ff		 lea	 ecx, DWORD PTR _inArr$[ebp]
  00443	e8 00 00 00 00	 call	 ??1CStringArray@@UAE@XZ	; CStringArray::~CStringArray
  00448	8d 8d d8 fe ff
	ff		 lea	 ecx, DWORD PTR _szSTName$[ebp]
  0044e	ff 15 00 00 00
	00		 call	 DWORD PTR __imp_??1?$CStringT@DV?$StrTraitMFC_DLL@DV?$ChTraitsCRT@D@ATL@@@@@ATL@@QAE@XZ
  00454	8b 4d f4	 mov	 ecx, DWORD PTR __$EHRec$[ebp]
  00457	64 89 0d 00 00
	00 00		 mov	 DWORD PTR fs:0, ecx
  0045e	59		 pop	 ecx
  0045f	5f		 pop	 edi
  00460	5e		 pop	 esi
  00461	5b		 pop	 ebx
  00462	8b 4d f0	 mov	 ecx, DWORD PTR __$ArrayPad$[ebp]
  00465	33 cd		 xor	 ecx, ebp
  00467	e8 00 00 00 00	 call	 @__security_check_cookie@4
  0046c	8b e5		 mov	 esp, ebp
  0046e	5d		 pop	 ebp
  0046f	c2 08 00	 ret	 8
$LN79@InputModif:
; File C:\Program Files (x86)\Microsoft Visual Studio\2019\Community\VC\Tools\MSVC\14.29.30133\atlmfc\include\afxcoll.inl

; 290  : 			AfxThrowInvalidArgException();

  00472	e8 00 00 00 00	 call	 ?AfxThrowInvalidArgException@@YGXXZ ; AfxThrowInvalidArgException
$LN87@InputModif:
  00477	cc		 int	 3
_TEXT	ENDS
;	COMDAT text$x
text$x	SEGMENT
__unwindfunclet$?InputModify@CDlgStrategyList@@IAEXHAAV?$CStringT@DV?$StrTraitMFC_DLL@DV?$ChTraitsCRT@D@ATL@@@@@ATL@@@Z$0:
  00000	8d 8d d8 fe ff
	ff		 lea	 ecx, DWORD PTR _szSTName$[ebp]
  00006	ff 25 00 00 00
	00		 jmp	 DWORD PTR __imp_??1?$CStringT@DV?$StrTraitMFC_DLL@DV?$ChTraitsCRT@D@ATL@@@@@ATL@@QAE@XZ
__unwindfunclet$?InputModify@CDlgStrategyList@@IAEXHAAV?$CStringT@DV?$StrTraitMFC_DLL@DV?$ChTraitsCRT@D@ATL@@@@@ATL@@@Z$1:
  0000c	8d 8d b0 fe ff
	ff		 lea	 ecx, DWORD PTR _inArr$[ebp]
  00012	e9 00 00 00 00	 jmp	 ??1CStringArray@@UAE@XZ	; CStringArray::~CStringArray
__unwindfunclet$?InputModify@CDlgStrategyList@@IAEXHAAV?$CStringT@DV?$StrTraitMFC_DLL@DV?$ChTraitsCRT@D@ATL@@@@@ATL@@@Z$9:
  00017	8d 8d e0 fe ff
	ff		 lea	 ecx, DWORD PTR $T5[ebp]
  0001d	ff 25 00 00 00
	00		 jmp	 DWORD PTR __imp_??1?$CStringT@DV?$StrTraitMFC_DLL@DV?$ChTraitsCRT@D@ATL@@@@@ATL@@QAE@XZ
__unwindfunclet$?InputModify@CDlgStrategyList@@IAEXHAAV?$CStringT@DV?$StrTraitMFC_DLL@DV?$ChTraitsCRT@D@ATL@@@@@ATL@@@Z$2:
  00023	8d 8d e0 fe ff
	ff		 lea	 ecx, DWORD PTR $T6[ebp]
  00029	ff 25 00 00 00
	00		 jmp	 DWORD PTR __imp_??1?$CStringT@DV?$StrTraitMFC_DLL@DV?$ChTraitsCRT@D@ATL@@@@@ATL@@QAE@XZ
__unwindfunclet$?InputModify@CDlgStrategyList@@IAEXHAAV?$CStringT@DV?$StrTraitMFC_DLL@DV?$ChTraitsCRT@D@ATL@@@@@ATL@@@Z$10:
  0002f	8d 8d e4 fe ff
	ff		 lea	 ecx, DWORD PTR $T8[ebp]
  00035	ff 25 00 00 00
	00		 jmp	 DWORD PTR __imp_??1?$CStringT@DV?$StrTraitMFC_DLL@DV?$ChTraitsCRT@D@ATL@@@@@ATL@@QAE@XZ
__unwindfunclet$?InputModify@CDlgStrategyList@@IAEXHAAV?$CStringT@DV?$StrTraitMFC_DLL@DV?$ChTraitsCRT@D@ATL@@@@@ATL@@@Z$11:
  0003b	8d 8d e8 fe ff
	ff		 lea	 ecx, DWORD PTR _szTmp$9[ebp]
  00041	ff 25 00 00 00
	00		 jmp	 DWORD PTR __imp_??1?$CStringT@DV?$StrTraitMFC_DLL@DV?$ChTraitsCRT@D@ATL@@@@@ATL@@QAE@XZ
__unwindfunclet$?InputModify@CDlgStrategyList@@IAEXHAAV?$CStringT@DV?$StrTraitMFC_DLL@DV?$ChTraitsCRT@D@ATL@@@@@ATL@@@Z$12:
  00047	8d 8d cc fe ff
	ff		 lea	 ecx, DWORD PTR $T3[ebp]
  0004d	ff 25 00 00 00
	00		 jmp	 DWORD PTR __imp_??1?$CStringT@DV?$StrTraitMFC_DLL@DV?$ChTraitsCRT@D@ATL@@@@@ATL@@QAE@XZ
__unwindfunclet$?InputModify@CDlgStrategyList@@IAEXHAAV?$CStringT@DV?$StrTraitMFC_DLL@DV?$ChTraitsCRT@D@ATL@@@@@ATL@@@Z$13:
  00053	8d 8d c8 fe ff
	ff		 lea	 ecx, DWORD PTR $T2[ebp]
  00059	ff 25 00 00 00
	00		 jmp	 DWORD PTR __imp_??1?$CStringT@DV?$StrTraitMFC_DLL@DV?$ChTraitsCRT@D@ATL@@@@@ATL@@QAE@XZ
__unwindfunclet$?InputModify@CDlgStrategyList@@IAEXHAAV?$CStringT@DV?$StrTraitMFC_DLL@DV?$ChTraitsCRT@D@ATL@@@@@ATL@@@Z$4:
  0005f	8d 8d dc fe ff
	ff		 lea	 ecx, DWORD PTR _strPath$[ebp]
  00065	ff 25 00 00 00
	00		 jmp	 DWORD PTR __imp_??1?$CStringT@DV?$StrTraitMFC_DLL@DV?$ChTraitsCRT@D@ATL@@@@@ATL@@QAE@XZ
__unwindfunclet$?InputModify@CDlgStrategyList@@IAEXHAAV?$CStringT@DV?$StrTraitMFC_DLL@DV?$ChTraitsCRT@D@ATL@@@@@ATL@@@Z$14:
  0006b	8b 85 e4 fe ff
	ff		 mov	 eax, DWORD PTR $T7[ebp]
  00071	83 e0 01	 and	 eax, 1
  00074	0f 84 13 00 00
	00		 je	 $LN41@InputModif
  0007a	83 a5 e4 fe ff
	ff fe		 and	 DWORD PTR $T7[ebp], -2	; fffffffeH
  00081	8d 8d e8 fe ff
	ff		 lea	 ecx, DWORD PTR $T11[ebp]
  00087	ff 25 00 00 00
	00		 jmp	 DWORD PTR __imp_??1?$CStringT@DV?$StrTraitMFC_DLL@DV?$ChTraitsCRT@D@ATL@@@@@ATL@@QAE@XZ
$LN41@InputModif:
  0008d	c3		 ret	 0
__unwindfunclet$?InputModify@CDlgStrategyList@@IAEXHAAV?$CStringT@DV?$StrTraitMFC_DLL@DV?$ChTraitsCRT@D@ATL@@@@@ATL@@@Z$15:
  0008e	8b 85 e4 fe ff
	ff		 mov	 eax, DWORD PTR $T7[ebp]
  00094	83 e0 02	 and	 eax, 2
  00097	0f 84 13 00 00
	00		 je	 $LN54@InputModif
  0009d	83 a5 e4 fe ff
	ff fd		 and	 DWORD PTR $T7[ebp], -3	; fffffffdH
  000a4	8d 8d e8 fe ff
	ff		 lea	 ecx, DWORD PTR $T10[ebp]
  000aa	ff 25 00 00 00
	00		 jmp	 DWORD PTR __imp_??1?$CStringT@DV?$StrTraitMFC_DLL@DV?$ChTraitsCRT@D@ATL@@@@@ATL@@QAE@XZ
$LN54@InputModif:
  000b0	c3		 ret	 0
__unwindfunclet$?InputModify@CDlgStrategyList@@IAEXHAAV?$CStringT@DV?$StrTraitMFC_DLL@DV?$ChTraitsCRT@D@ATL@@@@@ATL@@@Z$7:
  000b1	8d 8d d0 fe ff
	ff		 lea	 ecx, DWORD PTR _szSFG$[ebp]
  000b7	ff 25 00 00 00
	00		 jmp	 DWORD PTR __imp_??1?$CStringT@DV?$StrTraitMFC_DLL@DV?$ChTraitsCRT@D@ATL@@@@@ATL@@QAE@XZ
__unwindfunclet$?InputModify@CDlgStrategyList@@IAEXHAAV?$CStringT@DV?$StrTraitMFC_DLL@DV?$ChTraitsCRT@D@ATL@@@@@ATL@@@Z$8:
  000bd	8d 8d d4 fe ff
	ff		 lea	 ecx, DWORD PTR _szKey$[ebp]
  000c3	ff 25 00 00 00
	00		 jmp	 DWORD PTR __imp_??1?$CStringT@DV?$StrTraitMFC_DLL@DV?$ChTraitsCRT@D@ATL@@@@@ATL@@QAE@XZ
  000c9	cc		 int	 3
  000ca	cc		 int	 3
  000cb	cc		 int	 3
  000cc	cc		 int	 3
  000cd	cc		 int	 3
__ehhandler$?InputModify@CDlgStrategyList@@IAEXHAAV?$CStringT@DV?$StrTraitMFC_DLL@DV?$ChTraitsCRT@D@ATL@@@@@ATL@@@Z:
  000ce	90		 npad	 1
  000cf	90		 npad	 1
  000d0	8b 54 24 08	 mov	 edx, DWORD PTR [esp+8]
  000d4	8d 42 0c	 lea	 eax, DWORD PTR [edx+12]
  000d7	8b 8a ac fe ff
	ff		 mov	 ecx, DWORD PTR [edx-340]
  000dd	33 c8		 xor	 ecx, eax
  000df	e8 00 00 00 00	 call	 @__security_check_cookie@4
  000e4	8b 4a fc	 mov	 ecx, DWORD PTR [edx-4]
  000e7	33 c8		 xor	 ecx, eax
  000e9	e8 00 00 00 00	 call	 @__security_check_cookie@4
  000ee	b8 00 00 00 00	 mov	 eax, OFFSET __ehfuncinfo$?InputModify@CDlgStrategyList@@IAEXHAAV?$CStringT@DV?$StrTraitMFC_DLL@DV?$ChTraitsCRT@D@ATL@@@@@ATL@@@Z
  000f3	e9 00 00 00 00	 jmp	 ___CxxFrameHandler3
text$x	ENDS
?InputModify@CDlgStrategyList@@IAEXHAAV?$CStringT@DV?$StrTraitMFC_DLL@DV?$ChTraitsCRT@D@ATL@@@@@ATL@@@Z ENDP ; CDlgStrategyList::InputModify
; Function compile flags: /Ogtp
; File D:\git\src\IBK\IBK_DRFN\ProjSrc\SrcDrfn\Chart\HWSTRATEGYCONFIGUREWIZARD\DlgStrategyList.cpp
; File D:\git\src\IBK\IBK_DRFN\ProjSrc\SrcDrfn\Chart\HWSTRATEGYCONFIGUREWIZARD\DlgStrategyList.h
; File D:\git\src\IBK\IBK_DRFN\ProjSrc\SrcDrfn\Chart\HWSTRATEGYCONFIGUREWIZARD\DlgStrategyList.cpp
; File D:\git\src\IBK\IBK_DRFN\ProjSrc\SrcDrfn\Chart\HWSTRATEGYCONFIGUREWIZARD\DlgStrategyList.h
; File D:\git\src\IBK\IBK_DRFN\ProjSrc\SrcDrfn\Chart\HWSTRATEGYCONFIGUREWIZARD\DlgStrategyList.cpp
;	COMDAT ?SaveVariable@CDlgStrategyList@@IAEXAAV?$CStringT@DV?$StrTraitMFC_DLL@DV?$ChTraitsCRT@D@ATL@@@@@ATL@@HPBD@Z
_TEXT	SEGMENT
_szInput$ = -32						; size = 4
_szTmp$ = -28						; size = 4
_strKeyName$ = -24					; size = 4
_strSection$ = -20					; size = 4
_szInputStr$ = -16					; size = 4
__$EHRec$ = -12						; size = 12
$T2 = 8							; size = 4
$T3 = 8							; size = 4
_strGrid$ = 8						; size = 4
$T4 = 12						; size = 4
_nIndex$ = 12						; size = 4
_strSTPath$ = 16					; size = 4
?SaveVariable@CDlgStrategyList@@IAEXAAV?$CStringT@DV?$StrTraitMFC_DLL@DV?$ChTraitsCRT@D@ATL@@@@@ATL@@HPBD@Z PROC ; CDlgStrategyList::SaveVariable, COMDAT
; _this$ = ecx

; 1651 : {

  00000	55		 push	 ebp
  00001	8b ec		 mov	 ebp, esp
  00003	6a ff		 push	 -1
  00005	68 00 00 00 00	 push	 __ehhandler$?SaveVariable@CDlgStrategyList@@IAEXAAV?$CStringT@DV?$StrTraitMFC_DLL@DV?$ChTraitsCRT@D@ATL@@@@@ATL@@HPBD@Z
  0000a	64 a1 00 00 00
	00		 mov	 eax, DWORD PTR fs:0
  00010	50		 push	 eax
  00011	83 ec 14	 sub	 esp, 20			; 00000014H
  00014	53		 push	 ebx
  00015	56		 push	 esi
  00016	57		 push	 edi
  00017	a1 00 00 00 00	 mov	 eax, DWORD PTR ___security_cookie
  0001c	33 c5		 xor	 eax, ebp
  0001e	50		 push	 eax
  0001f	8d 45 f4	 lea	 eax, DWORD PTR __$EHRec$[ebp]
  00022	64 a3 00 00 00
	00		 mov	 DWORD PTR fs:0, eax

; 1652 : 	CString szTmp;

  00028	8d 4d e4	 lea	 ecx, DWORD PTR _szTmp$[ebp]
  0002b	ff 15 00 00 00
	00		 call	 DWORD PTR __imp_??0?$CStringT@DV?$StrTraitMFC_DLL@DV?$ChTraitsCRT@D@ATL@@@@@ATL@@QAE@XZ
; File D:\git\src\IBK\IBK_DRFN\ProjSrc\SrcDrfn\Chart\HWSTRATEGYCONFIGUREWIZARD\DlgStrategyList.h

; 178  : 		int nFind = szTitle.Find("(");

  00031	8b 75 08	 mov	 esi, DWORD PTR _strGrid$[ebp]
  00034	8b ce		 mov	 ecx, esi
  00036	6a 00		 push	 0
  00038	68 00 00 00 00	 push	 OFFSET ??_C@_01ODHLEDKK@?$CI@
; File D:\git\src\IBK\IBK_DRFN\ProjSrc\SrcDrfn\Chart\HWSTRATEGYCONFIGUREWIZARD\DlgStrategyList.cpp

; 1652 : 	CString szTmp;

  0003d	c7 45 fc 00 00
	00 00		 mov	 DWORD PTR __$EHRec$[ebp+8], 0
; File D:\git\src\IBK\IBK_DRFN\ProjSrc\SrcDrfn\Chart\HWSTRATEGYCONFIGUREWIZARD\DlgStrategyList.h

; 178  : 		int nFind = szTitle.Find("(");

  00044	ff 15 00 00 00
	00		 call	 DWORD PTR __imp_?Find@?$CStringT@DV?$StrTraitMFC_DLL@DV?$ChTraitsCRT@D@ATL@@@@@ATL@@QBEHPBDH@Z
  0004a	8b f8		 mov	 edi, eax

; 179  : 		if(nFind<0) return nFind;

  0004c	85 ff		 test	 edi, edi
  0004e	0f 88 9e 01 00
	00		 js	 $LN13@SaveVariab

; 180  : 
; 181  : 		rString = szTitle.Left(nFind);

  00054	57		 push	 edi
  00055	8d 45 08	 lea	 eax, DWORD PTR $T2[ebp]
  00058	8b ce		 mov	 ecx, esi
  0005a	50		 push	 eax
  0005b	ff 15 00 00 00
	00		 call	 DWORD PTR __imp_?Left@?$CStringT@DV?$StrTraitMFC_DLL@DV?$ChTraitsCRT@D@ATL@@@@@ATL@@QBE?AV12@H@Z
  00061	50		 push	 eax
  00062	8d 4d e4	 lea	 ecx, DWORD PTR _szTmp$[ebp]
  00065	c6 45 fc 01	 mov	 BYTE PTR __$EHRec$[ebp+8], 1
  00069	ff 15 00 00 00
	00		 call	 DWORD PTR __imp_??4?$CStringT@DV?$StrTraitMFC_DLL@DV?$ChTraitsCRT@D@ATL@@@@@ATL@@QAEAAV01@ABV01@@Z
  0006f	8d 4d 08	 lea	 ecx, DWORD PTR $T2[ebp]
  00072	c6 45 fc 00	 mov	 BYTE PTR __$EHRec$[ebp+8], 0
  00076	ff 15 00 00 00
	00		 call	 DWORD PTR __imp_??1?$CStringT@DV?$StrTraitMFC_DLL@DV?$ChTraitsCRT@D@ATL@@@@@ATL@@QAE@XZ
; File D:\git\src\IBK\IBK_DRFN\ProjSrc\SrcDrfn\Chart\HWSTRATEGYCONFIGUREWIZARD\DlgStrategyList.cpp

; 1656 : 	CString szInputStr = strGrid.Mid(nFind+1);

  0007c	8d 47 01	 lea	 eax, DWORD PTR [edi+1]
  0007f	8b ce		 mov	 ecx, esi
  00081	50		 push	 eax
  00082	8d 45 f0	 lea	 eax, DWORD PTR _szInputStr$[ebp]
  00085	50		 push	 eax
  00086	ff 15 00 00 00
	00		 call	 DWORD PTR __imp_?Mid@?$CStringT@DV?$StrTraitMFC_DLL@DV?$ChTraitsCRT@D@ATL@@@@@ATL@@QBE?AV12@H@Z

; 1657 : 	szInputStr.Remove(')');

  0008c	6a 29		 push	 41			; 00000029H
  0008e	8d 4d f0	 lea	 ecx, DWORD PTR _szInputStr$[ebp]
  00091	c6 45 fc 02	 mov	 BYTE PTR __$EHRec$[ebp+8], 2
  00095	ff 15 00 00 00
	00		 call	 DWORD PTR __imp_?Remove@?$CStringT@DV?$StrTraitMFC_DLL@DV?$ChTraitsCRT@D@ATL@@@@@ATL@@QAEHD@Z

; 1658 : 
; 1659 : 	CString szInput, strKeyName, strSection;

  0009b	8d 4d e0	 lea	 ecx, DWORD PTR _szInput$[ebp]
  0009e	ff 15 00 00 00
	00		 call	 DWORD PTR __imp_??0?$CStringT@DV?$StrTraitMFC_DLL@DV?$ChTraitsCRT@D@ATL@@@@@ATL@@QAE@XZ
  000a4	8d 4d e8	 lea	 ecx, DWORD PTR _strKeyName$[ebp]
  000a7	ff 15 00 00 00
	00		 call	 DWORD PTR __imp_??0?$CStringT@DV?$StrTraitMFC_DLL@DV?$ChTraitsCRT@D@ATL@@@@@ATL@@QAE@XZ
  000ad	8d 4d ec	 lea	 ecx, DWORD PTR _strSection$[ebp]
  000b0	ff 15 00 00 00
	00		 call	 DWORD PTR __imp_??0?$CStringT@DV?$StrTraitMFC_DLL@DV?$ChTraitsCRT@D@ATL@@@@@ATL@@QAE@XZ

; 1660 : 	strSection.Format("%s%d","Variables",nIndex);

  000b6	ff 75 0c	 push	 DWORD PTR _nIndex$[ebp]
  000b9	8b 1d 00 00 00
	00		 mov	 ebx, DWORD PTR __imp_?Format@?$CStringT@DV?$StrTraitMFC_DLL@DV?$ChTraitsCRT@D@ATL@@@@@ATL@@QAAXPBDZZ
  000bf	8d 45 ec	 lea	 eax, DWORD PTR _strSection$[ebp]
  000c2	68 00 00 00 00	 push	 OFFSET ??_C@_09IJIPICN@Variables@
  000c7	68 00 00 00 00	 push	 OFFSET ??_C@_04HGGBINEM@?$CFs?$CFd@
  000cc	50		 push	 eax
  000cd	c6 45 fc 05	 mov	 BYTE PTR __$EHRec$[ebp+8], 5
  000d1	ff d3		 call	 ebx
  000d3	83 c4 10	 add	 esp, 16			; 00000010H

; 1661 : 
; 1662 : 	int i=0;
; 1663 : 	nFind = szInputStr.Find(',');

  000d6	8d 4d f0	 lea	 ecx, DWORD PTR _szInputStr$[ebp]
  000d9	33 f6		 xor	 esi, esi
  000db	56		 push	 esi
  000dc	6a 2c		 push	 44			; 0000002cH
  000de	ff 15 00 00 00
	00		 call	 DWORD PTR __imp_?Find@?$CStringT@DV?$StrTraitMFC_DLL@DV?$ChTraitsCRT@D@ATL@@@@@ATL@@QBEHDH@Z
  000e4	8b f8		 mov	 edi, eax

; 1664 : 	while(nFind>0)

  000e6	85 ff		 test	 edi, edi
  000e8	0f 8e 95 00 00
	00		 jle	 $LN3@SaveVariab
  000ee	66 90		 npad	 2
$LL2@SaveVariab:

; 1665 : 	{
; 1666 : 		szInput = szInputStr.Left(nFind);

  000f0	57		 push	 edi
  000f1	8d 45 08	 lea	 eax, DWORD PTR $T3[ebp]
  000f4	50		 push	 eax
  000f5	8d 4d f0	 lea	 ecx, DWORD PTR _szInputStr$[ebp]
  000f8	ff 15 00 00 00
	00		 call	 DWORD PTR __imp_?Left@?$CStringT@DV?$StrTraitMFC_DLL@DV?$ChTraitsCRT@D@ATL@@@@@ATL@@QBE?AV12@H@Z
  000fe	50		 push	 eax
  000ff	8d 4d e0	 lea	 ecx, DWORD PTR _szInput$[ebp]
  00102	c6 45 fc 06	 mov	 BYTE PTR __$EHRec$[ebp+8], 6
  00106	ff 15 00 00 00
	00		 call	 DWORD PTR __imp_??4?$CStringT@DV?$StrTraitMFC_DLL@DV?$ChTraitsCRT@D@ATL@@@@@ATL@@QAEAAV01@ABV01@@Z
  0010c	8d 4d 08	 lea	 ecx, DWORD PTR $T3[ebp]
  0010f	c6 45 fc 05	 mov	 BYTE PTR __$EHRec$[ebp+8], 5
  00113	ff 15 00 00 00
	00		 call	 DWORD PTR __imp_??1?$CStringT@DV?$StrTraitMFC_DLL@DV?$ChTraitsCRT@D@ATL@@@@@ATL@@QAE@XZ

; 1667 : 		szInputStr = szInputStr.Mid(nFind+1);

  00119	8d 47 01	 lea	 eax, DWORD PTR [edi+1]
  0011c	50		 push	 eax
  0011d	8d 45 0c	 lea	 eax, DWORD PTR $T4[ebp]
  00120	50		 push	 eax
  00121	8d 4d f0	 lea	 ecx, DWORD PTR _szInputStr$[ebp]
  00124	ff 15 00 00 00
	00		 call	 DWORD PTR __imp_?Mid@?$CStringT@DV?$StrTraitMFC_DLL@DV?$ChTraitsCRT@D@ATL@@@@@ATL@@QBE?AV12@H@Z
  0012a	50		 push	 eax
  0012b	8d 4d f0	 lea	 ecx, DWORD PTR _szInputStr$[ebp]
  0012e	c6 45 fc 07	 mov	 BYTE PTR __$EHRec$[ebp+8], 7
  00132	ff 15 00 00 00
	00		 call	 DWORD PTR __imp_??4?$CStringT@DV?$StrTraitMFC_DLL@DV?$ChTraitsCRT@D@ATL@@@@@ATL@@QAEAAV01@ABV01@@Z
  00138	8d 4d 0c	 lea	 ecx, DWORD PTR $T4[ebp]
  0013b	c6 45 fc 05	 mov	 BYTE PTR __$EHRec$[ebp+8], 5
  0013f	ff 15 00 00 00
	00		 call	 DWORD PTR __imp_??1?$CStringT@DV?$StrTraitMFC_DLL@DV?$ChTraitsCRT@D@ATL@@@@@ATL@@QAE@XZ

; 1668 : 
; 1669 : 		strKeyName.Format("%s%d", "Input", i);

  00145	56		 push	 esi
  00146	68 00 00 00 00	 push	 OFFSET ??_C@_05DCDOHKAB@Input@
  0014b	8d 45 e8	 lea	 eax, DWORD PTR _strKeyName$[ebp]
  0014e	68 00 00 00 00	 push	 OFFSET ??_C@_04HGGBINEM@?$CFs?$CFd@
  00153	50		 push	 eax
  00154	ff d3		 call	 ebx
  00156	83 c4 10	 add	 esp, 16			; 00000010H

; 1670 : 		::WritePrivateProfileString(strSection,strKeyName,szInput,strSTPath);

  00159	ff 75 10	 push	 DWORD PTR _strSTPath$[ebp]
  0015c	ff 75 e0	 push	 DWORD PTR _szInput$[ebp]
  0015f	ff 75 e8	 push	 DWORD PTR _strKeyName$[ebp]
  00162	ff 75 ec	 push	 DWORD PTR _strSection$[ebp]
  00165	ff 15 00 00 00
	00		 call	 DWORD PTR __imp__WritePrivateProfileStringA@16

; 1671 : 		i++;
; 1672 : 
; 1673 : 		nFind = szInputStr.Find(',');

  0016b	6a 00		 push	 0
  0016d	6a 2c		 push	 44			; 0000002cH
  0016f	8d 4d f0	 lea	 ecx, DWORD PTR _szInputStr$[ebp]
  00172	46		 inc	 esi
  00173	ff 15 00 00 00
	00		 call	 DWORD PTR __imp_?Find@?$CStringT@DV?$StrTraitMFC_DLL@DV?$ChTraitsCRT@D@ATL@@@@@ATL@@QBEHDH@Z
  00179	8b f8		 mov	 edi, eax
  0017b	85 ff		 test	 edi, edi
  0017d	0f 8f 6d ff ff
	ff		 jg	 $LL2@SaveVariab
$LN3@SaveVariab:

; 1674 : 	}
; 1675 : 
; 1676 : 	strKeyName.Format("%s%d", "Input", i);

  00183	56		 push	 esi
  00184	68 00 00 00 00	 push	 OFFSET ??_C@_05DCDOHKAB@Input@
  00189	8d 45 e8	 lea	 eax, DWORD PTR _strKeyName$[ebp]
  0018c	68 00 00 00 00	 push	 OFFSET ??_C@_04HGGBINEM@?$CFs?$CFd@
  00191	50		 push	 eax
  00192	ff d3		 call	 ebx

; 1677 : 	::WritePrivateProfileString(strSection,strKeyName,szInputStr,strSTPath);

  00194	8b 7d 10	 mov	 edi, DWORD PTR _strSTPath$[ebp]
  00197	83 c4 10	 add	 esp, 16			; 00000010H
  0019a	57		 push	 edi
  0019b	ff 75 f0	 push	 DWORD PTR _szInputStr$[ebp]
  0019e	ff 75 e8	 push	 DWORD PTR _strKeyName$[ebp]
  001a1	ff 75 ec	 push	 DWORD PTR _strSection$[ebp]
  001a4	ff 15 00 00 00
	00		 call	 DWORD PTR __imp__WritePrivateProfileStringA@16

; 1678 : 
; 1679 : 	szTmp.Format("%d", i+1);

  001aa	8d 46 01	 lea	 eax, DWORD PTR [esi+1]
  001ad	50		 push	 eax
  001ae	8d 45 e4	 lea	 eax, DWORD PTR _szTmp$[ebp]
  001b1	68 00 00 00 00	 push	 OFFSET ??_C@_02DPKJAMEF@?$CFd@
  001b6	50		 push	 eax
  001b7	ff d3		 call	 ebx
  001b9	83 c4 0c	 add	 esp, 12			; 0000000cH

; 1680 : 	::WritePrivateProfileString(strSection,"InputCnt",szTmp,strSTPath);

  001bc	57		 push	 edi
  001bd	ff 75 e4	 push	 DWORD PTR _szTmp$[ebp]
  001c0	68 00 00 00 00	 push	 OFFSET ??_C@_08JFMIELNJ@InputCnt@
  001c5	ff 75 ec	 push	 DWORD PTR _strSection$[ebp]
  001c8	ff 15 00 00 00
	00		 call	 DWORD PTR __imp__WritePrivateProfileStringA@16

; 1681 : }

  001ce	8d 4d ec	 lea	 ecx, DWORD PTR _strSection$[ebp]
  001d1	ff 15 00 00 00
	00		 call	 DWORD PTR __imp_??1?$CStringT@DV?$StrTraitMFC_DLL@DV?$ChTraitsCRT@D@ATL@@@@@ATL@@QAE@XZ
  001d7	8d 4d e8	 lea	 ecx, DWORD PTR _strKeyName$[ebp]
  001da	ff 15 00 00 00
	00		 call	 DWORD PTR __imp_??1?$CStringT@DV?$StrTraitMFC_DLL@DV?$ChTraitsCRT@D@ATL@@@@@ATL@@QAE@XZ
  001e0	8d 4d e0	 lea	 ecx, DWORD PTR _szInput$[ebp]
  001e3	ff 15 00 00 00
	00		 call	 DWORD PTR __imp_??1?$CStringT@DV?$StrTraitMFC_DLL@DV?$ChTraitsCRT@D@ATL@@@@@ATL@@QAE@XZ
  001e9	8d 4d f0	 lea	 ecx, DWORD PTR _szInputStr$[ebp]
  001ec	ff 15 00 00 00
	00		 call	 DWORD PTR __imp_??1?$CStringT@DV?$StrTraitMFC_DLL@DV?$ChTraitsCRT@D@ATL@@@@@ATL@@QAE@XZ
$LN13@SaveVariab:
  001f2	8d 4d e4	 lea	 ecx, DWORD PTR _szTmp$[ebp]
  001f5	ff 15 00 00 00
	00		 call	 DWORD PTR __imp_??1?$CStringT@DV?$StrTraitMFC_DLL@DV?$ChTraitsCRT@D@ATL@@@@@ATL@@QAE@XZ
  001fb	8b 4d f4	 mov	 ecx, DWORD PTR __$EHRec$[ebp]
  001fe	64 89 0d 00 00
	00 00		 mov	 DWORD PTR fs:0, ecx
  00205	59		 pop	 ecx
  00206	5f		 pop	 edi
  00207	5e		 pop	 esi
  00208	5b		 pop	 ebx
  00209	8b e5		 mov	 esp, ebp
  0020b	5d		 pop	 ebp
  0020c	c2 0c 00	 ret	 12			; 0000000cH
_TEXT	ENDS
;	COMDAT text$x
text$x	SEGMENT
__unwindfunclet$?SaveVariable@CDlgStrategyList@@IAEXAAV?$CStringT@DV?$StrTraitMFC_DLL@DV?$ChTraitsCRT@D@ATL@@@@@ATL@@HPBD@Z$0:
  00000	8d 4d e4	 lea	 ecx, DWORD PTR _szTmp$[ebp]
  00003	ff 25 00 00 00
	00		 jmp	 DWORD PTR __imp_??1?$CStringT@DV?$StrTraitMFC_DLL@DV?$ChTraitsCRT@D@ATL@@@@@ATL@@QAE@XZ
__unwindfunclet$?SaveVariable@CDlgStrategyList@@IAEXAAV?$CStringT@DV?$StrTraitMFC_DLL@DV?$ChTraitsCRT@D@ATL@@@@@ATL@@HPBD@Z$7:
  00009	8d 4d 08	 lea	 ecx, DWORD PTR $T2[ebp]
  0000c	ff 25 00 00 00
	00		 jmp	 DWORD PTR __imp_??1?$CStringT@DV?$StrTraitMFC_DLL@DV?$ChTraitsCRT@D@ATL@@@@@ATL@@QAE@XZ
__unwindfunclet$?SaveVariable@CDlgStrategyList@@IAEXAAV?$CStringT@DV?$StrTraitMFC_DLL@DV?$ChTraitsCRT@D@ATL@@@@@ATL@@HPBD@Z$1:
  00012	8d 4d f0	 lea	 ecx, DWORD PTR _szInputStr$[ebp]
  00015	ff 25 00 00 00
	00		 jmp	 DWORD PTR __imp_??1?$CStringT@DV?$StrTraitMFC_DLL@DV?$ChTraitsCRT@D@ATL@@@@@ATL@@QAE@XZ
__unwindfunclet$?SaveVariable@CDlgStrategyList@@IAEXAAV?$CStringT@DV?$StrTraitMFC_DLL@DV?$ChTraitsCRT@D@ATL@@@@@ATL@@HPBD@Z$2:
  0001b	8d 4d e0	 lea	 ecx, DWORD PTR _szInput$[ebp]
  0001e	ff 25 00 00 00
	00		 jmp	 DWORD PTR __imp_??1?$CStringT@DV?$StrTraitMFC_DLL@DV?$ChTraitsCRT@D@ATL@@@@@ATL@@QAE@XZ
__unwindfunclet$?SaveVariable@CDlgStrategyList@@IAEXAAV?$CStringT@DV?$StrTraitMFC_DLL@DV?$ChTraitsCRT@D@ATL@@@@@ATL@@HPBD@Z$3:
  00024	8d 4d e8	 lea	 ecx, DWORD PTR _strKeyName$[ebp]
  00027	ff 25 00 00 00
	00		 jmp	 DWORD PTR __imp_??1?$CStringT@DV?$StrTraitMFC_DLL@DV?$ChTraitsCRT@D@ATL@@@@@ATL@@QAE@XZ
__unwindfunclet$?SaveVariable@CDlgStrategyList@@IAEXAAV?$CStringT@DV?$StrTraitMFC_DLL@DV?$ChTraitsCRT@D@ATL@@@@@ATL@@HPBD@Z$4:
  0002d	8d 4d ec	 lea	 ecx, DWORD PTR _strSection$[ebp]
  00030	ff 25 00 00 00
	00		 jmp	 DWORD PTR __imp_??1?$CStringT@DV?$StrTraitMFC_DLL@DV?$ChTraitsCRT@D@ATL@@@@@ATL@@QAE@XZ
__unwindfunclet$?SaveVariable@CDlgStrategyList@@IAEXAAV?$CStringT@DV?$StrTraitMFC_DLL@DV?$ChTraitsCRT@D@ATL@@@@@ATL@@HPBD@Z$5:
  00036	8d 4d 08	 lea	 ecx, DWORD PTR $T3[ebp]
  00039	ff 25 00 00 00
	00		 jmp	 DWORD PTR __imp_??1?$CStringT@DV?$StrTraitMFC_DLL@DV?$ChTraitsCRT@D@ATL@@@@@ATL@@QAE@XZ
__unwindfunclet$?SaveVariable@CDlgStrategyList@@IAEXAAV?$CStringT@DV?$StrTraitMFC_DLL@DV?$ChTraitsCRT@D@ATL@@@@@ATL@@HPBD@Z$6:
  0003f	8d 4d 0c	 lea	 ecx, DWORD PTR $T4[ebp]
  00042	ff 25 00 00 00
	00		 jmp	 DWORD PTR __imp_??1?$CStringT@DV?$StrTraitMFC_DLL@DV?$ChTraitsCRT@D@ATL@@@@@ATL@@QAE@XZ
  00048	cc		 int	 3
  00049	cc		 int	 3
  0004a	cc		 int	 3
  0004b	cc		 int	 3
  0004c	cc		 int	 3
__ehhandler$?SaveVariable@CDlgStrategyList@@IAEXAAV?$CStringT@DV?$StrTraitMFC_DLL@DV?$ChTraitsCRT@D@ATL@@@@@ATL@@HPBD@Z:
  0004d	90		 npad	 1
  0004e	90		 npad	 1
  0004f	8b 54 24 08	 mov	 edx, DWORD PTR [esp+8]
  00053	8d 42 0c	 lea	 eax, DWORD PTR [edx+12]
  00056	8b 4a dc	 mov	 ecx, DWORD PTR [edx-36]
  00059	33 c8		 xor	 ecx, eax
  0005b	e8 00 00 00 00	 call	 @__security_check_cookie@4
  00060	b8 00 00 00 00	 mov	 eax, OFFSET __ehfuncinfo$?SaveVariable@CDlgStrategyList@@IAEXAAV?$CStringT@DV?$StrTraitMFC_DLL@DV?$ChTraitsCRT@D@ATL@@@@@ATL@@HPBD@Z
  00065	e9 00 00 00 00	 jmp	 ___CxxFrameHandler3
text$x	ENDS
?SaveVariable@CDlgStrategyList@@IAEXAAV?$CStringT@DV?$StrTraitMFC_DLL@DV?$ChTraitsCRT@D@ATL@@@@@ATL@@HPBD@Z ENDP ; CDlgStrategyList::SaveVariable
; Function compile flags: /Ogtp
; File D:\git\src\IBK\IBK_DRFN\ProjSrc\SrcDrfn\Chart\HWSTRATEGYCONFIGUREWIZARD\DlgStrategyList.cpp
; File C:\Program Files (x86)\Microsoft Visual Studio\2019\Community\VC\Tools\MSVC\14.29.30133\atlmfc\include\atlsimpstr.h
; File D:\git\src\IBK\IBK_DRFN\ProjSrc\SrcDrfn\Chart\HWSTRATEGYCONFIGUREWIZARD\DlgStrategyList.cpp
;	COMDAT ?CheckFileSave@CDlgStrategyList@@IAEHHAAV?$CStringT@DV?$StrTraitMFC_DLL@DV?$ChTraitsCRT@D@ATL@@@@@ATL@@@Z
_TEXT	SEGMENT
_fileFind$ = -40					; size = 28
__$EHRec$ = -12						; size = 12
_bCheck$ = 8						; size = 4
_szSTFilePath$ = 12					; size = 4
?CheckFileSave@CDlgStrategyList@@IAEHHAAV?$CStringT@DV?$StrTraitMFC_DLL@DV?$ChTraitsCRT@D@ATL@@@@@ATL@@@Z PROC ; CDlgStrategyList::CheckFileSave, COMDAT
; _this$ = ecx

; 1408 : {

  00000	55		 push	 ebp
  00001	8b ec		 mov	 ebp, esp
  00003	6a ff		 push	 -1
  00005	68 00 00 00 00	 push	 __ehhandler$?CheckFileSave@CDlgStrategyList@@IAEHHAAV?$CStringT@DV?$StrTraitMFC_DLL@DV?$ChTraitsCRT@D@ATL@@@@@ATL@@@Z
  0000a	64 a1 00 00 00
	00		 mov	 eax, DWORD PTR fs:0
  00010	50		 push	 eax
  00011	83 ec 1c	 sub	 esp, 28			; 0000001cH
  00014	56		 push	 esi
  00015	a1 00 00 00 00	 mov	 eax, DWORD PTR ___security_cookie
  0001a	33 c5		 xor	 eax, ebp
  0001c	50		 push	 eax
  0001d	8d 45 f4	 lea	 eax, DWORD PTR __$EHRec$[ebp]
  00020	64 a3 00 00 00
	00		 mov	 DWORD PTR fs:0, eax
; File C:\Program Files (x86)\Microsoft Visual Studio\2019\Community\VC\Tools\MSVC\14.29.30133\atlmfc\include\atlsimpstr.h

; 519  : 		return( GetData()->nDataLength );

  00026	8b 75 0c	 mov	 esi, DWORD PTR _szSTFilePath$[ebp]
  00029	8b 06		 mov	 eax, DWORD PTR [esi]
; File D:\git\src\IBK\IBK_DRFN\ProjSrc\SrcDrfn\Chart\HWSTRATEGYCONFIGUREWIZARD\DlgStrategyList.cpp

; 1409 : 	if(szSTFilePath.GetLength()>MAX_PATH) 

  0002b	81 78 f4 04 01
	00 00		 cmp	 DWORD PTR [eax-12], 260	; 00000104H
  00032	7e 22		 jle	 SHORT $LN2@CheckFileS

; 1410 : 	{
; 1411 : 		AfxMessageBox("   .  .");

  00034	6a 00		 push	 0
  00036	6a 00		 push	 0
  00038	68 00 00 00 00	 push	 OFFSET ??_C@_0DC@JJJMJJPP@?F?D?$MA?O?$LI?m?$MA?G?5?$LB?f?$MA?L?$LA?$KB?5?$LD?J?$LJ?$KL?5?$LB?i?$LE?O?$LE?Y?4?5?$MA?$PM@
  0003d	e8 00 00 00 00	 call	 ?AfxMessageBox@@YGHPBDII@Z ; AfxMessageBox

; 1412 : 		return 0;

  00042	33 c0		 xor	 eax, eax

; 1426 : }

  00044	8b 4d f4	 mov	 ecx, DWORD PTR __$EHRec$[ebp]
  00047	64 89 0d 00 00
	00 00		 mov	 DWORD PTR fs:0, ecx
  0004e	59		 pop	 ecx
  0004f	5e		 pop	 esi
  00050	8b e5		 mov	 esp, ebp
  00052	5d		 pop	 ebp
  00053	c2 08 00	 ret	 8
$LN2@CheckFileS:

; 1413 : 	}
; 1414 : 
; 1415 : 	if(!bCheck) return 1;

  00056	83 7d 08 00	 cmp	 DWORD PTR _bCheck$[ebp], 0
  0005a	75 17		 jne	 SHORT $LN3@CheckFileS
  0005c	b8 01 00 00 00	 mov	 eax, 1

; 1426 : }

  00061	8b 4d f4	 mov	 ecx, DWORD PTR __$EHRec$[ebp]
  00064	64 89 0d 00 00
	00 00		 mov	 DWORD PTR fs:0, ecx
  0006b	59		 pop	 ecx
  0006c	5e		 pop	 esi
  0006d	8b e5		 mov	 esp, ebp
  0006f	5d		 pop	 ebp
  00070	c2 08 00	 ret	 8
$LN3@CheckFileS:

; 1416 : 
; 1417 : 	CFileFind fileFind;

  00073	8d 4d d8	 lea	 ecx, DWORD PTR _fileFind$[ebp]
  00076	e8 00 00 00 00	 call	 ??0CFileFind@@QAE@XZ	; CFileFind::CFileFind

; 1418 : 	BOOL bFound = fileFind.FindFile(szSTFilePath);

  0007b	6a 00		 push	 0
  0007d	ff 36		 push	 DWORD PTR [esi]
  0007f	8d 4d d8	 lea	 ecx, DWORD PTR _fileFind$[ebp]
  00082	c7 45 fc 00 00
	00 00		 mov	 DWORD PTR __$EHRec$[ebp+8], 0
  00089	e8 00 00 00 00	 call	 ?FindFile@CFileFind@@UAEHPBDK@Z ; CFileFind::FindFile

; 1419 : 
; 1420 : 	if(!bFound) return 2;

  0008e	85 c0		 test	 eax, eax
  00090	75 05		 jne	 SHORT $LN4@CheckFileS
  00092	8d 70 02	 lea	 esi, DWORD PTR [eax+2]
  00095	eb 1a		 jmp	 SHORT $LN9@CheckFileS
$LN4@CheckFileS:

; 1421 : 
; 1422 : 	int nRet = AfxMessageBox("   . \n   ?", MB_YESNO);

  00097	6a 00		 push	 0
  00099	6a 04		 push	 4
  0009b	68 00 00 00 00	 push	 OFFSET ??_C@_0DP@JJIEBPED@?$LA?$LA?$MA?$LK?5?$MA?$PM?$LH?$KL?$LI?m?$MA?L?5?$MA?L?$LJ?L?5?A?$LI?$MA?g?G?U?$LE?O?$LE?Y?4?5@
  000a0	e8 00 00 00 00	 call	 ?AfxMessageBox@@YGHPBDII@Z ; AfxMessageBox

; 1423 : 	if(IDYES==nRet)	return 3;

  000a5	83 f8 06	 cmp	 eax, 6
  000a8	75 05		 jne	 SHORT $LN5@CheckFileS
  000aa	8d 70 fd	 lea	 esi, DWORD PTR [eax-3]
  000ad	eb 02		 jmp	 SHORT $LN9@CheckFileS
$LN5@CheckFileS:

; 1424 : 
; 1425 : 	return 0;

  000af	33 f6		 xor	 esi, esi
$LN9@CheckFileS:
  000b1	8d 4d d8	 lea	 ecx, DWORD PTR _fileFind$[ebp]
  000b4	e8 00 00 00 00	 call	 ??1CFileFind@@UAE@XZ	; CFileFind::~CFileFind
  000b9	8b c6		 mov	 eax, esi

; 1426 : }

  000bb	8b 4d f4	 mov	 ecx, DWORD PTR __$EHRec$[ebp]
  000be	64 89 0d 00 00
	00 00		 mov	 DWORD PTR fs:0, ecx
  000c5	59		 pop	 ecx
  000c6	5e		 pop	 esi
  000c7	8b e5		 mov	 esp, ebp
  000c9	5d		 pop	 ebp
  000ca	c2 08 00	 ret	 8
_TEXT	ENDS
;	COMDAT text$x
text$x	SEGMENT
__unwindfunclet$?CheckFileSave@CDlgStrategyList@@IAEHHAAV?$CStringT@DV?$StrTraitMFC_DLL@DV?$ChTraitsCRT@D@ATL@@@@@ATL@@@Z$0:
  00000	8d 4d d8	 lea	 ecx, DWORD PTR _fileFind$[ebp]
  00003	e9 00 00 00 00	 jmp	 ??1CFileFind@@UAE@XZ	; CFileFind::~CFileFind
  00008	cc		 int	 3
  00009	cc		 int	 3
  0000a	cc		 int	 3
  0000b	cc		 int	 3
  0000c	cc		 int	 3
__ehhandler$?CheckFileSave@CDlgStrategyList@@IAEHHAAV?$CStringT@DV?$StrTraitMFC_DLL@DV?$ChTraitsCRT@D@ATL@@@@@ATL@@@Z:
  0000d	90		 npad	 1
  0000e	90		 npad	 1
  0000f	8b 54 24 08	 mov	 edx, DWORD PTR [esp+8]
  00013	8d 42 0c	 lea	 eax, DWORD PTR [edx+12]
  00016	8b 4a dc	 mov	 ecx, DWORD PTR [edx-36]
  00019	33 c8		 xor	 ecx, eax
  0001b	e8 00 00 00 00	 call	 @__security_check_cookie@4
  00020	b8 00 00 00 00	 mov	 eax, OFFSET __ehfuncinfo$?CheckFileSave@CDlgStrategyList@@IAEHHAAV?$CStringT@DV?$StrTraitMFC_DLL@DV?$ChTraitsCRT@D@ATL@@@@@ATL@@@Z
  00025	e9 00 00 00 00	 jmp	 ___CxxFrameHandler3
text$x	ENDS
?CheckFileSave@CDlgStrategyList@@IAEHHAAV?$CStringT@DV?$StrTraitMFC_DLL@DV?$ChTraitsCRT@D@ATL@@@@@ATL@@@Z ENDP ; CDlgStrategyList::CheckFileSave
; Function compile flags: /Ogtp
; File D:\git\src\IBK\IBK_DRFN\ProjSrc\SrcDrfn\Chart\HWSTRATEGYCONFIGUREWIZARD\DlgStrategyList.cpp
; File C:\Program Files (x86)\Microsoft Visual Studio\2019\Community\VC\Tools\MSVC\14.29.30133\atlmfc\include\cstringt.h
; File D:\git\src\IBK\IBK_DRFN\ProjSrc\SrcDrfn\Chart\HWSTRATEGYCONFIGUREWIZARD\DlgStrategyList.cpp
; File C:\Program Files (x86)\Microsoft Visual Studio\2019\Community\VC\Tools\MSVC\14.29.30133\atlmfc\include\cstringt.h
; File C:\Program Files (x86)\Microsoft Visual Studio\2019\Community\VC\Tools\MSVC\14.29.30133\atlmfc\include\atlsimpstr.h
; File C:\Program Files (x86)\Microsoft Visual Studio\2019\Community\VC\Tools\MSVC\14.29.30133\atlmfc\include\cstringt.h
; File D:\git\src\IBK\IBK_DRFN\ProjSrc\SrcDrfn\Chart\HWSTRATEGYCONFIGUREWIZARD\DlgStrategyList.cpp
; File C:\Program Files (x86)\Microsoft Visual Studio\2019\Community\VC\Tools\MSVC\14.29.30133\atlmfc\include\cstringt.h
; File C:\Program Files (x86)\Microsoft Visual Studio\2019\Community\VC\Tools\MSVC\14.29.30133\atlmfc\include\atlsimpstr.h
; File C:\Program Files (x86)\Microsoft Visual Studio\2019\Community\VC\Tools\MSVC\14.29.30133\atlmfc\include\cstringt.h
; File D:\git\src\IBK\IBK_DRFN\ProjSrc\SrcDrfn\Chart\HWSTRATEGYCONFIGUREWIZARD\DlgStrategyList.cpp
; File C:\Program Files (x86)\Microsoft Visual Studio\2019\Community\VC\Tools\MSVC\14.29.30133\atlmfc\include\cstringt.h
; File C:\Program Files (x86)\Microsoft Visual Studio\2019\Community\VC\Tools\MSVC\14.29.30133\atlmfc\include\atlsimpstr.h
; File C:\Program Files (x86)\Microsoft Visual Studio\2019\Community\VC\Tools\MSVC\14.29.30133\atlmfc\include\cstringt.h
; File D:\git\src\IBK\IBK_DRFN\ProjSrc\SrcDrfn\Chart\HWSTRATEGYCONFIGUREWIZARD\DlgStrategyList.cpp
; File C:\Program Files (x86)\Microsoft Visual Studio\2019\Community\VC\Tools\MSVC\14.29.30133\atlmfc\include\cstringt.h
; File C:\Program Files (x86)\Microsoft Visual Studio\2019\Community\VC\Tools\MSVC\14.29.30133\atlmfc\include\atlsimpstr.h
; File C:\Program Files (x86)\Microsoft Visual Studio\2019\Community\VC\Tools\MSVC\14.29.30133\atlmfc\include\cstringt.h
; File D:\git\src\IBK\IBK_DRFN\ProjSrc\SrcDrfn\Chart\HWSTRATEGYCONFIGUREWIZARD\DlgStrategyList.cpp
;	COMDAT ?SaveST@CDlgStrategyList@@IAEXPBDH@Z
_TEXT	SEGMENT
_strSTDir$ = -60					; size = 4
_strLogic$ = -56					; size = 4
_strSTName$ = -52					; size = 4
_szTime$ = -48						; size = 4
$T2 = -44						; size = 4
$T3 = -44						; size = 4
_szTitle$ = -40						; size = 4
_nRowCount$1$ = -36					; size = 4
$T4 = -36						; size = 4
$T5 = -32						; size = 4
_strGrid$ = -28						; size = 4
_strKeyName$ = -24					; size = 4
_strSTPath$ = -20					; size = 4
_strData$ = -16						; size = 4
__$EHRec$ = -12						; size = 12
$T6 = 8							; size = 4
$T7 = 8							; size = 4
_lpSTName$ = 8						; size = 4
$T8 = 12						; size = 4
$T9 = 12						; size = 4
_bSet$ = 12						; size = 4
?SaveST@CDlgStrategyList@@IAEXPBDH@Z PROC		; CDlgStrategyList::SaveST, COMDAT
; _this$ = ecx

; 1016 : {

  00000	55		 push	 ebp
  00001	8b ec		 mov	 ebp, esp
  00003	6a ff		 push	 -1
  00005	68 00 00 00 00	 push	 __ehhandler$?SaveST@CDlgStrategyList@@IAEXPBDH@Z
  0000a	64 a1 00 00 00
	00		 mov	 eax, DWORD PTR fs:0
  00010	50		 push	 eax
  00011	83 ec 30	 sub	 esp, 48			; 00000030H
  00014	53		 push	 ebx
  00015	56		 push	 esi
  00016	57		 push	 edi
  00017	a1 00 00 00 00	 mov	 eax, DWORD PTR ___security_cookie
  0001c	33 c5		 xor	 eax, ebp
  0001e	50		 push	 eax
  0001f	8d 45 f4	 lea	 eax, DWORD PTR __$EHRec$[ebp]
  00022	64 a3 00 00 00
	00		 mov	 DWORD PTR fs:0, eax
  00028	8b d9		 mov	 ebx, ecx

; 1017 : 	CString strSTName;

  0002a	8d 4d cc	 lea	 ecx, DWORD PTR _strSTName$[ebp]
  0002d	c7 45 e0 00 00
	00 00		 mov	 DWORD PTR $T5[ebp], 0
  00034	ff 15 00 00 00
	00		 call	 DWORD PTR __imp_??0?$CStringT@DV?$StrTraitMFC_DLL@DV?$ChTraitsCRT@D@ATL@@@@@ATL@@QAE@XZ

; 1018 : 	CString strSTPath;

  0003a	8d 4d ec	 lea	 ecx, DWORD PTR _strSTPath$[ebp]
  0003d	c7 45 fc 00 00
	00 00		 mov	 DWORD PTR __$EHRec$[ebp+8], 0
  00044	ff 15 00 00 00
	00		 call	 DWORD PTR __imp_??0?$CStringT@DV?$StrTraitMFC_DLL@DV?$ChTraitsCRT@D@ATL@@@@@ATL@@QAE@XZ

; 1019 : 	CString strSTDir;

  0004a	8d 4d c4	 lea	 ecx, DWORD PTR _strSTDir$[ebp]
  0004d	ff 15 00 00 00
	00		 call	 DWORD PTR __imp_??0?$CStringT@DV?$StrTraitMFC_DLL@DV?$ChTraitsCRT@D@ATL@@@@@ATL@@QAE@XZ

; 1020 : 	strSTName = lpSTName;

  00053	ff 75 08	 push	 DWORD PTR _lpSTName$[ebp]
  00056	8d 4d cc	 lea	 ecx, DWORD PTR _strSTName$[ebp]
  00059	c6 45 fc 02	 mov	 BYTE PTR __$EHRec$[ebp+8], 2
  0005d	ff 15 00 00 00
	00		 call	 DWORD PTR __imp_??4?$CStringT@DV?$StrTraitMFC_DLL@DV?$ChTraitsCRT@D@ATL@@@@@ATL@@QAEAAV01@PBD@Z

; 1021 : 
; 1022 : 	if(bSet)

  00063	83 7d 0c 00	 cmp	 DWORD PTR _bSet$[ebp], 0
  00067	74 15		 je	 SHORT $LN5@SaveST

; 1023 : 		strSTPath = m_szSTFilePath;

  00069	8d 83 cc 0f 00
	00		 lea	 eax, DWORD PTR [ebx+4044]
  0006f	50		 push	 eax
  00070	8d 4d ec	 lea	 ecx, DWORD PTR _strSTPath$[ebp]
  00073	ff 15 00 00 00
	00		 call	 DWORD PTR __imp_??4?$CStringT@DV?$StrTraitMFC_DLL@DV?$ChTraitsCRT@D@ATL@@@@@ATL@@QAEAAV01@ABV01@@Z
  00079	e9 1b 01 00 00	 jmp	 $LN6@SaveST
$LN5@SaveST:
; File C:\Program Files (x86)\Microsoft Visual Studio\2019\Community\VC\Tools\MSVC\14.29.30133\atlmfc\include\cstringt.h

; 2401 : 		CStringT strResult( str1.GetManager() );

  0007e	8d 8b c8 0f 00
	00		 lea	 ecx, DWORD PTR [ebx+4040]
; File D:\git\src\IBK\IBK_DRFN\ProjSrc\SrcDrfn\Chart\HWSTRATEGYCONFIGUREWIZARD\DlgStrategyList.cpp

; 1025 : 		strSTPath = m_szUserDir + STDATA_ST_USERCOMBINE + "\\" + strSTName + ".ST";//STUSER_FOLDER + "\\" + strSTName + ".ST";

  00084	c6 45 fc 03	 mov	 BYTE PTR __$EHRec$[ebp+8], 3
; File C:\Program Files (x86)\Microsoft Visual Studio\2019\Community\VC\Tools\MSVC\14.29.30133\atlmfc\include\cstringt.h

; 2401 : 		CStringT strResult( str1.GetManager() );

  00088	ff 15 00 00 00
	00		 call	 DWORD PTR __imp_?GetManager@?$CStringT@DV?$StrTraitMFC_DLL@DV?$ChTraitsCRT@D@ATL@@@@@ATL@@QBEPAUIAtlStringMgr@2@XZ
  0008e	50		 push	 eax
  0008f	8d 4d dc	 lea	 ecx, DWORD PTR $T4[ebp]
  00092	ff 15 00 00 00
	00		 call	 DWORD PTR __imp_??0?$CStringT@DV?$StrTraitMFC_DLL@DV?$ChTraitsCRT@D@ATL@@@@@ATL@@QAE@PAUIAtlStringMgr@1@@Z
; File C:\Program Files (x86)\Microsoft Visual Studio\2019\Community\VC\Tools\MSVC\14.29.30133\atlmfc\include\atlsimpstr.h

; 519  : 		return( GetData()->nDataLength );

  00098	8b 83 c8 0f 00
	00		 mov	 eax, DWORD PTR [ebx+4040]
; File C:\Program Files (x86)\Microsoft Visual Studio\2019\Community\VC\Tools\MSVC\14.29.30133\atlmfc\include\cstringt.h

; 2403 : 		CThisSimpleString::Concatenate( strResult, str1, str1.GetLength(), psz2, CThisSimpleString::StringLength( psz2 ) );

  0009e	6a 19		 push	 25			; 00000019H
  000a0	68 00 00 00 00	 push	 OFFSET ??_C@_0BK@COPOICEF@?2STDATA?2ST?2?$LL?g?$LP?k?$MA?Z?A?$LG?G?U?$MA?$PM?$LH?$KL@

; 2404 : 
; 2405 : 		return( strResult );

  000a5	c7 45 e0 01 00
	00 00		 mov	 DWORD PTR $T5[ebp], 1
  000ac	ff 70 f4	 push	 DWORD PTR [eax-12]
  000af	50		 push	 eax
  000b0	8d 45 dc	 lea	 eax, DWORD PTR $T4[ebp]
  000b3	50		 push	 eax
  000b4	ff 15 00 00 00
	00		 call	 DWORD PTR __imp_?Concatenate@?$CSimpleStringT@D$00@ATL@@KAXAAV12@PBDH1H@Z
  000ba	83 c4 14	 add	 esp, 20			; 00000014H

; 2401 : 		CStringT strResult( str1.GetManager() );

  000bd	8d 4d dc	 lea	 ecx, DWORD PTR $T4[ebp]
; File D:\git\src\IBK\IBK_DRFN\ProjSrc\SrcDrfn\Chart\HWSTRATEGYCONFIGUREWIZARD\DlgStrategyList.cpp

; 1025 : 		strSTPath = m_szUserDir + STDATA_ST_USERCOMBINE + "\\" + strSTName + ".ST";//STUSER_FOLDER + "\\" + strSTName + ".ST";

  000c0	c6 45 fc 04	 mov	 BYTE PTR __$EHRec$[ebp+8], 4
; File C:\Program Files (x86)\Microsoft Visual Studio\2019\Community\VC\Tools\MSVC\14.29.30133\atlmfc\include\cstringt.h

; 2401 : 		CStringT strResult( str1.GetManager() );

  000c4	ff 15 00 00 00
	00		 call	 DWORD PTR __imp_?GetManager@?$CStringT@DV?$StrTraitMFC_DLL@DV?$ChTraitsCRT@D@ATL@@@@@ATL@@QBEPAUIAtlStringMgr@2@XZ
  000ca	50		 push	 eax
  000cb	8d 4d 0c	 lea	 ecx, DWORD PTR $T9[ebp]
  000ce	ff 15 00 00 00
	00		 call	 DWORD PTR __imp_??0?$CStringT@DV?$StrTraitMFC_DLL@DV?$ChTraitsCRT@D@ATL@@@@@ATL@@QAE@PAUIAtlStringMgr@1@@Z
; File C:\Program Files (x86)\Microsoft Visual Studio\2019\Community\VC\Tools\MSVC\14.29.30133\atlmfc\include\atlsimpstr.h

; 519  : 		return( GetData()->nDataLength );

  000d4	8b 45 dc	 mov	 eax, DWORD PTR $T4[ebp]
; File C:\Program Files (x86)\Microsoft Visual Studio\2019\Community\VC\Tools\MSVC\14.29.30133\atlmfc\include\cstringt.h

; 2403 : 		CThisSimpleString::Concatenate( strResult, str1, str1.GetLength(), psz2, CThisSimpleString::StringLength( psz2 ) );

  000d7	6a 01		 push	 1
  000d9	68 00 00 00 00	 push	 OFFSET ??_C@_01KICIPPFI@?2@

; 2404 : 
; 2405 : 		return( strResult );

  000de	c7 45 e0 03 00
	00 00		 mov	 DWORD PTR $T5[ebp], 3
  000e5	ff 70 f4	 push	 DWORD PTR [eax-12]
  000e8	50		 push	 eax
  000e9	8d 45 0c	 lea	 eax, DWORD PTR $T9[ebp]
  000ec	50		 push	 eax
  000ed	ff 15 00 00 00
	00		 call	 DWORD PTR __imp_?Concatenate@?$CSimpleStringT@D$00@ATL@@KAXAAV12@PBDH1H@Z
  000f3	83 c4 14	 add	 esp, 20			; 00000014H

; 2390 : 		CStringT strResult( str1.GetManager() );

  000f6	8d 4d 0c	 lea	 ecx, DWORD PTR $T9[ebp]
; File D:\git\src\IBK\IBK_DRFN\ProjSrc\SrcDrfn\Chart\HWSTRATEGYCONFIGUREWIZARD\DlgStrategyList.cpp

; 1025 : 		strSTPath = m_szUserDir + STDATA_ST_USERCOMBINE + "\\" + strSTName + ".ST";//STUSER_FOLDER + "\\" + strSTName + ".ST";

  000f9	c6 45 fc 05	 mov	 BYTE PTR __$EHRec$[ebp+8], 5
; File C:\Program Files (x86)\Microsoft Visual Studio\2019\Community\VC\Tools\MSVC\14.29.30133\atlmfc\include\cstringt.h

; 2390 : 		CStringT strResult( str1.GetManager() );

  000fd	ff 15 00 00 00
	00		 call	 DWORD PTR __imp_?GetManager@?$CStringT@DV?$StrTraitMFC_DLL@DV?$ChTraitsCRT@D@ATL@@@@@ATL@@QBEPAUIAtlStringMgr@2@XZ
  00103	50		 push	 eax
  00104	8d 4d 08	 lea	 ecx, DWORD PTR $T7[ebp]
  00107	ff 15 00 00 00
	00		 call	 DWORD PTR __imp_??0?$CStringT@DV?$StrTraitMFC_DLL@DV?$ChTraitsCRT@D@ATL@@@@@ATL@@QAE@PAUIAtlStringMgr@1@@Z
; File C:\Program Files (x86)\Microsoft Visual Studio\2019\Community\VC\Tools\MSVC\14.29.30133\atlmfc\include\atlsimpstr.h

; 519  : 		return( GetData()->nDataLength );

  0010d	8b 45 cc	 mov	 eax, DWORD PTR _strSTName$[ebp]
  00110	8b 4d 0c	 mov	 ecx, DWORD PTR $T9[ebp]
; File C:\Program Files (x86)\Microsoft Visual Studio\2019\Community\VC\Tools\MSVC\14.29.30133\atlmfc\include\cstringt.h

; 2394 : 		return( strResult );

  00113	c7 45 e0 07 00
	00 00		 mov	 DWORD PTR $T5[ebp], 7
  0011a	ff 70 f4	 push	 DWORD PTR [eax-12]
  0011d	50		 push	 eax
  0011e	ff 71 f4	 push	 DWORD PTR [ecx-12]
  00121	8d 45 08	 lea	 eax, DWORD PTR $T7[ebp]
  00124	51		 push	 ecx
  00125	50		 push	 eax
  00126	ff 15 00 00 00
	00		 call	 DWORD PTR __imp_?Concatenate@?$CSimpleStringT@D$00@ATL@@KAXAAV12@PBDH1H@Z
  0012c	83 c4 14	 add	 esp, 20			; 00000014H

; 2401 : 		CStringT strResult( str1.GetManager() );

  0012f	8d 4d 08	 lea	 ecx, DWORD PTR $T7[ebp]
; File D:\git\src\IBK\IBK_DRFN\ProjSrc\SrcDrfn\Chart\HWSTRATEGYCONFIGUREWIZARD\DlgStrategyList.cpp

; 1025 : 		strSTPath = m_szUserDir + STDATA_ST_USERCOMBINE + "\\" + strSTName + ".ST";//STUSER_FOLDER + "\\" + strSTName + ".ST";

  00132	c6 45 fc 06	 mov	 BYTE PTR __$EHRec$[ebp+8], 6
; File C:\Program Files (x86)\Microsoft Visual Studio\2019\Community\VC\Tools\MSVC\14.29.30133\atlmfc\include\cstringt.h

; 2401 : 		CStringT strResult( str1.GetManager() );

  00136	ff 15 00 00 00
	00		 call	 DWORD PTR __imp_?GetManager@?$CStringT@DV?$StrTraitMFC_DLL@DV?$ChTraitsCRT@D@ATL@@@@@ATL@@QBEPAUIAtlStringMgr@2@XZ
  0013c	50		 push	 eax
  0013d	8d 4d d4	 lea	 ecx, DWORD PTR $T3[ebp]
  00140	ff 15 00 00 00
	00		 call	 DWORD PTR __imp_??0?$CStringT@DV?$StrTraitMFC_DLL@DV?$ChTraitsCRT@D@ATL@@@@@ATL@@QAE@PAUIAtlStringMgr@1@@Z
; File C:\Program Files (x86)\Microsoft Visual Studio\2019\Community\VC\Tools\MSVC\14.29.30133\atlmfc\include\atlsimpstr.h

; 519  : 		return( GetData()->nDataLength );

  00146	8b 45 08	 mov	 eax, DWORD PTR $T7[ebp]
; File C:\Program Files (x86)\Microsoft Visual Studio\2019\Community\VC\Tools\MSVC\14.29.30133\atlmfc\include\cstringt.h

; 2403 : 		CThisSimpleString::Concatenate( strResult, str1, str1.GetLength(), psz2, CThisSimpleString::StringLength( psz2 ) );

  00149	6a 03		 push	 3
  0014b	68 00 00 00 00	 push	 OFFSET ??_C@_03COHLPAFH@?4ST@

; 2404 : 
; 2405 : 		return( strResult );

  00150	c7 45 e0 0f 00
	00 00		 mov	 DWORD PTR $T5[ebp], 15	; 0000000fH
  00157	ff 70 f4	 push	 DWORD PTR [eax-12]
  0015a	50		 push	 eax
  0015b	8d 45 d4	 lea	 eax, DWORD PTR $T3[ebp]
  0015e	50		 push	 eax
  0015f	ff 15 00 00 00
	00		 call	 DWORD PTR __imp_?Concatenate@?$CSimpleStringT@D$00@ATL@@KAXAAV12@PBDH1H@Z
  00165	83 c4 14	 add	 esp, 20			; 00000014H
; File D:\git\src\IBK\IBK_DRFN\ProjSrc\SrcDrfn\Chart\HWSTRATEGYCONFIGUREWIZARD\DlgStrategyList.cpp

; 1025 : 		strSTPath = m_szUserDir + STDATA_ST_USERCOMBINE + "\\" + strSTName + ".ST";//STUSER_FOLDER + "\\" + strSTName + ".ST";

  00168	8d 45 d4	 lea	 eax, DWORD PTR $T3[ebp]
  0016b	8d 4d ec	 lea	 ecx, DWORD PTR _strSTPath$[ebp]
  0016e	50		 push	 eax
  0016f	ff 15 00 00 00
	00		 call	 DWORD PTR __imp_??4?$CStringT@DV?$StrTraitMFC_DLL@DV?$ChTraitsCRT@D@ATL@@@@@ATL@@QAEAAV01@ABV01@@Z
  00175	8d 4d d4	 lea	 ecx, DWORD PTR $T3[ebp]
  00178	ff 15 00 00 00
	00		 call	 DWORD PTR __imp_??1?$CStringT@DV?$StrTraitMFC_DLL@DV?$ChTraitsCRT@D@ATL@@@@@ATL@@QAE@XZ
  0017e	8d 4d 08	 lea	 ecx, DWORD PTR $T7[ebp]
  00181	ff 15 00 00 00
	00		 call	 DWORD PTR __imp_??1?$CStringT@DV?$StrTraitMFC_DLL@DV?$ChTraitsCRT@D@ATL@@@@@ATL@@QAE@XZ
  00187	8d 4d 0c	 lea	 ecx, DWORD PTR $T9[ebp]
  0018a	ff 15 00 00 00
	00		 call	 DWORD PTR __imp_??1?$CStringT@DV?$StrTraitMFC_DLL@DV?$ChTraitsCRT@D@ATL@@@@@ATL@@QAE@XZ
  00190	8d 4d dc	 lea	 ecx, DWORD PTR $T4[ebp]
  00193	ff 15 00 00 00
	00		 call	 DWORD PTR __imp_??1?$CStringT@DV?$StrTraitMFC_DLL@DV?$ChTraitsCRT@D@ATL@@@@@ATL@@QAE@XZ
$LN6@SaveST:

; 1026 : 
; 1027 : 	::chmod(strSTPath, _S_IWRITE);

  00199	68 80 00 00 00	 push	 128			; 00000080H
  0019e	ff 75 ec	 push	 DWORD PTR _strSTPath$[ebp]
  001a1	ff 15 00 00 00
	00		 call	 DWORD PTR __imp__chmod
  001a7	83 c4 08	 add	 esp, 8

; 1028 : 
; 1029 : 	CSDItemInfo* pSDItemInfoInRow = NULL;
; 1030 : 	CString strKeyName;

  001aa	8d 4d e8	 lea	 ecx, DWORD PTR _strKeyName$[ebp]
  001ad	ff 15 00 00 00
	00		 call	 DWORD PTR __imp_??0?$CStringT@DV?$StrTraitMFC_DLL@DV?$ChTraitsCRT@D@ATL@@@@@ATL@@QAE@XZ

; 1031 : 	CString strData;

  001b3	8d 4d f0	 lea	 ecx, DWORD PTR _strData$[ebp]
  001b6	ff 15 00 00 00
	00		 call	 DWORD PTR __imp_??0?$CStringT@DV?$StrTraitMFC_DLL@DV?$ChTraitsCRT@D@ATL@@@@@ATL@@QAE@XZ

; 1032 : 	int nRowCount = m_GridSTList.GetRowCount();

  001bc	8b b3 f0 10 00
	00		 mov	 esi, DWORD PTR [ebx+4336]
  001c2	c6 45 fc 08	 mov	 BYTE PTR __$EHRec$[ebp+8], 8
  001c6	89 75 dc	 mov	 DWORD PTR _nRowCount$1$[ebp], esi

; 1033 : 	strData.Format("%d",nRowCount-1);

  001c9	8d 46 ff	 lea	 eax, DWORD PTR [esi-1]
  001cc	50		 push	 eax
  001cd	8d 45 f0	 lea	 eax, DWORD PTR _strData$[ebp]
  001d0	68 00 00 00 00	 push	 OFFSET ??_C@_02DPKJAMEF@?$CFd@
  001d5	50		 push	 eax
  001d6	ff 15 00 00 00
	00		 call	 DWORD PTR __imp_?Format@?$CStringT@DV?$StrTraitMFC_DLL@DV?$ChTraitsCRT@D@ATL@@@@@ATL@@QAAXPBDZZ
  001dc	83 c4 0c	 add	 esp, 12			; 0000000cH

; 1034 : 	::WritePrivateProfileString(STRATEGYLIST,STRATEGYCNT,strData,strSTPath);

  001df	ff 75 ec	 push	 DWORD PTR _strSTPath$[ebp]
  001e2	ff 75 f0	 push	 DWORD PTR _strData$[ebp]
  001e5	68 00 00 00 00	 push	 OFFSET ??_C@_05IJGIMMHE@Count@
  001ea	68 00 00 00 00	 push	 OFFSET ??_C@_0N@GKFNKJGL@StrategyList@
  001ef	ff 15 00 00 00
	00		 call	 DWORD PTR __imp__WritePrivateProfileStringA@16

; 1035 : 	
; 1036 : 	int nIndex = 0;
; 1037 : 	CString strGrid;

  001f5	8d 4d e4	 lea	 ecx, DWORD PTR _strGrid$[ebp]
  001f8	ff 15 00 00 00
	00		 call	 DWORD PTR __imp_??0?$CStringT@DV?$StrTraitMFC_DLL@DV?$ChTraitsCRT@D@ATL@@@@@ATL@@QAE@XZ

; 1038 : 	CString szTitle;

  001fe	8d 4d d8	 lea	 ecx, DWORD PTR _szTitle$[ebp]
  00201	ff 15 00 00 00
	00		 call	 DWORD PTR __imp_??0?$CStringT@DV?$StrTraitMFC_DLL@DV?$ChTraitsCRT@D@ATL@@@@@ATL@@QAE@XZ

; 1039 : 	CString szTime;

  00207	8d 4d d0	 lea	 ecx, DWORD PTR _szTime$[ebp]
  0020a	ff 15 00 00 00
	00		 call	 DWORD PTR __imp_??0?$CStringT@DV?$StrTraitMFC_DLL@DV?$ChTraitsCRT@D@ATL@@@@@ATL@@QAE@XZ
  00210	c6 45 fc 0b	 mov	 BYTE PTR __$EHRec$[ebp+8], 11 ; 0000000bH

; 1040 : 	int nEndPos = 0;
; 1041 : 	int nType = 0;
; 1042 : 	for(int nRow=1;nRow<nRowCount;nRow++)

  00214	83 fe 01	 cmp	 esi, 1
  00217	0f 8e 06 02 00
	00		 jle	 $LN3@SaveST
  0021d	8d 83 d8 0f 00
	00		 lea	 eax, DWORD PTR [ebx+4056]
  00223	33 ff		 xor	 edi, edi
$LL4@SaveST:

; 1043 : 	{
; 1044 : 		nIndex = nRow - 1;
; 1045 : 		//pSDItemInfoInRow = (CSDItemInfo*)m_GridSTList.GetItemData(nRow,COL_INFOPOINTER);
; 1046 : 		strGrid = m_GridSTList.GetItemText(nRow,COL_INFOPOINTER);

  00225	6a 01		 push	 1
  00227	8d 77 01	 lea	 esi, DWORD PTR [edi+1]
  0022a	56		 push	 esi
  0022b	8d 4d 08	 lea	 ecx, DWORD PTR $T6[ebp]
  0022e	51		 push	 ecx
  0022f	8b c8		 mov	 ecx, eax
  00231	e8 00 00 00 00	 call	 ?GetItemText@CGridCtrl@@QBE?AV?$CStringT@DV?$StrTraitMFC_DLL@DV?$ChTraitsCRT@D@ATL@@@@@ATL@@HH@Z ; CGridCtrl::GetItemText
  00236	50		 push	 eax
  00237	8d 4d e4	 lea	 ecx, DWORD PTR _strGrid$[ebp]
  0023a	c6 45 fc 0c	 mov	 BYTE PTR __$EHRec$[ebp+8], 12 ; 0000000cH
  0023e	ff 15 00 00 00
	00		 call	 DWORD PTR __imp_??4?$CStringT@DV?$StrTraitMFC_DLL@DV?$ChTraitsCRT@D@ATL@@@@@ATL@@QAEAAV01@ABV01@@Z
  00244	8d 4d 08	 lea	 ecx, DWORD PTR $T6[ebp]
  00247	c6 45 fc 0b	 mov	 BYTE PTR __$EHRec$[ebp+8], 11 ; 0000000bH
  0024b	ff 15 00 00 00
	00		 call	 DWORD PTR __imp_??1?$CStringT@DV?$StrTraitMFC_DLL@DV?$ChTraitsCRT@D@ATL@@@@@ATL@@QAE@XZ

; 1047 : 		nEndPos = strGrid.Find('(');

  00251	6a 00		 push	 0
  00253	6a 28		 push	 40			; 00000028H
  00255	8d 4d e4	 lea	 ecx, DWORD PTR _strGrid$[ebp]
  00258	ff 15 00 00 00
	00		 call	 DWORD PTR __imp_?Find@?$CStringT@DV?$StrTraitMFC_DLL@DV?$ChTraitsCRT@D@ATL@@@@@ATL@@QBEHDH@Z

; 1048 : 		if(nEndPos<0) szTitle = strGrid;

  0025e	85 c0		 test	 eax, eax
  00260	79 0f		 jns	 SHORT $LN7@SaveST
  00262	8d 45 e4	 lea	 eax, DWORD PTR _strGrid$[ebp]
  00265	50		 push	 eax
  00266	8d 4d d8	 lea	 ecx, DWORD PTR _szTitle$[ebp]
  00269	ff 15 00 00 00
	00		 call	 DWORD PTR __imp_??4?$CStringT@DV?$StrTraitMFC_DLL@DV?$ChTraitsCRT@D@ATL@@@@@ATL@@QAEAAV01@ABV01@@Z
  0026f	eb 29		 jmp	 SHORT $LN8@SaveST
$LN7@SaveST:

; 1049 : 		else szTitle = strGrid.Left(nEndPos);

  00271	50		 push	 eax
  00272	8d 45 0c	 lea	 eax, DWORD PTR $T8[ebp]
  00275	50		 push	 eax
  00276	8d 4d e4	 lea	 ecx, DWORD PTR _strGrid$[ebp]
  00279	ff 15 00 00 00
	00		 call	 DWORD PTR __imp_?Left@?$CStringT@DV?$StrTraitMFC_DLL@DV?$ChTraitsCRT@D@ATL@@@@@ATL@@QBE?AV12@H@Z
  0027f	50		 push	 eax
  00280	8d 4d d8	 lea	 ecx, DWORD PTR _szTitle$[ebp]
  00283	c6 45 fc 0d	 mov	 BYTE PTR __$EHRec$[ebp+8], 13 ; 0000000dH
  00287	ff 15 00 00 00
	00		 call	 DWORD PTR __imp_??4?$CStringT@DV?$StrTraitMFC_DLL@DV?$ChTraitsCRT@D@ATL@@@@@ATL@@QAEAAV01@ABV01@@Z
  0028d	8d 4d 0c	 lea	 ecx, DWORD PTR $T8[ebp]
  00290	c6 45 fc 0b	 mov	 BYTE PTR __$EHRec$[ebp+8], 11 ; 0000000bH
  00294	ff 15 00 00 00
	00		 call	 DWORD PTR __imp_??1?$CStringT@DV?$StrTraitMFC_DLL@DV?$ChTraitsCRT@D@ATL@@@@@ATL@@QAE@XZ
$LN8@SaveST:

; 1050 : 		szTime = m_GridSTList.GetItemText(nRow,COL_TIME);

  0029a	6a 02		 push	 2
  0029c	56		 push	 esi
  0029d	8d 45 d4	 lea	 eax, DWORD PTR $T2[ebp]
  002a0	50		 push	 eax
  002a1	8d 8b d8 0f 00
	00		 lea	 ecx, DWORD PTR [ebx+4056]
  002a7	e8 00 00 00 00	 call	 ?GetItemText@CGridCtrl@@QBE?AV?$CStringT@DV?$StrTraitMFC_DLL@DV?$ChTraitsCRT@D@ATL@@@@@ATL@@HH@Z ; CGridCtrl::GetItemText
  002ac	50		 push	 eax
  002ad	8d 4d d0	 lea	 ecx, DWORD PTR _szTime$[ebp]
  002b0	c6 45 fc 0e	 mov	 BYTE PTR __$EHRec$[ebp+8], 14 ; 0000000eH
  002b4	ff 15 00 00 00
	00		 call	 DWORD PTR __imp_??4?$CStringT@DV?$StrTraitMFC_DLL@DV?$ChTraitsCRT@D@ATL@@@@@ATL@@QAEAAV01@ABV01@@Z
  002ba	8d 4d d4	 lea	 ecx, DWORD PTR $T2[ebp]
  002bd	c6 45 fc 0b	 mov	 BYTE PTR __$EHRec$[ebp+8], 11 ; 0000000bH
  002c1	ff 15 00 00 00
	00		 call	 DWORD PTR __imp_??1?$CStringT@DV?$StrTraitMFC_DLL@DV?$ChTraitsCRT@D@ATL@@@@@ATL@@QAE@XZ

; 1051 : 		//if(pSDItemInfoInRow)
; 1052 : 		//{
; 1053 : 			strKeyName.Format("%s%d",STRATEGYPOS,nIndex);

  002c7	57		 push	 edi
  002c8	68 00 00 00 00	 push	 OFFSET ??_C@_03FCCPIJGJ@Pos@
  002cd	8d 45 e8	 lea	 eax, DWORD PTR _strKeyName$[ebp]
  002d0	68 00 00 00 00	 push	 OFFSET ??_C@_04HGGBINEM@?$CFs?$CFd@
  002d5	50		 push	 eax
  002d6	ff 15 00 00 00
	00		 call	 DWORD PTR __imp_?Format@?$CStringT@DV?$StrTraitMFC_DLL@DV?$ChTraitsCRT@D@ATL@@@@@ATL@@QAAXPBDZZ

; 1054 : 			strData.Format("%d",nIndex);

  002dc	57		 push	 edi
  002dd	8d 45 f0	 lea	 eax, DWORD PTR _strData$[ebp]
  002e0	68 00 00 00 00	 push	 OFFSET ??_C@_02DPKJAMEF@?$CFd@
  002e5	50		 push	 eax
  002e6	ff 15 00 00 00
	00		 call	 DWORD PTR __imp_?Format@?$CStringT@DV?$StrTraitMFC_DLL@DV?$ChTraitsCRT@D@ATL@@@@@ATL@@QAAXPBDZZ
  002ec	83 c4 1c	 add	 esp, 28			; 0000001cH

; 1055 : 			::WritePrivateProfileString(STRATEGYLIST,strKeyName,strData,strSTPath);

  002ef	ff 75 ec	 push	 DWORD PTR _strSTPath$[ebp]
  002f2	ff 75 f0	 push	 DWORD PTR _strData$[ebp]
  002f5	ff 75 e8	 push	 DWORD PTR _strKeyName$[ebp]
  002f8	68 00 00 00 00	 push	 OFFSET ??_C@_0N@GKFNKJGL@StrategyList@
  002fd	ff 15 00 00 00
	00		 call	 DWORD PTR __imp__WritePrivateProfileStringA@16

; 1056 : 
; 1057 : 			strKeyName.Format("%s%d",STRATEGYPOSNAME,nIndex);

  00303	57		 push	 edi
  00304	68 00 00 00 00	 push	 OFFSET ??_C@_07DGPCBOM@PosName@
  00309	8d 45 e8	 lea	 eax, DWORD PTR _strKeyName$[ebp]
  0030c	68 00 00 00 00	 push	 OFFSET ??_C@_04HGGBINEM@?$CFs?$CFd@
  00311	50		 push	 eax
  00312	ff 15 00 00 00
	00		 call	 DWORD PTR __imp_?Format@?$CStringT@DV?$StrTraitMFC_DLL@DV?$ChTraitsCRT@D@ATL@@@@@ATL@@QAAXPBDZZ
  00318	83 c4 10	 add	 esp, 16			; 00000010H

; 1058 : 			strData= szTitle;

  0031b	8d 45 d8	 lea	 eax, DWORD PTR _szTitle$[ebp]
  0031e	8d 4d f0	 lea	 ecx, DWORD PTR _strData$[ebp]
  00321	50		 push	 eax
  00322	ff 15 00 00 00
	00		 call	 DWORD PTR __imp_??4?$CStringT@DV?$StrTraitMFC_DLL@DV?$ChTraitsCRT@D@ATL@@@@@ATL@@QAEAAV01@ABV01@@Z

; 1059 : 			::WritePrivateProfileString(STRATEGYLIST,strKeyName,strData,strSTPath);

  00328	ff 75 ec	 push	 DWORD PTR _strSTPath$[ebp]
  0032b	ff 75 f0	 push	 DWORD PTR _strData$[ebp]
  0032e	ff 75 e8	 push	 DWORD PTR _strKeyName$[ebp]
  00331	68 00 00 00 00	 push	 OFFSET ??_C@_0N@GKFNKJGL@StrategyList@
  00336	ff 15 00 00 00
	00		 call	 DWORD PTR __imp__WritePrivateProfileStringA@16

; 1060 : 
; 1061 : 			strKeyName.Format("%s%d",STRATEGYPOSTYPE,nIndex);

  0033c	57		 push	 edi
  0033d	68 00 00 00 00	 push	 OFFSET ??_C@_07KIGMOBJM@PosType@
  00342	8d 45 e8	 lea	 eax, DWORD PTR _strKeyName$[ebp]
  00345	68 00 00 00 00	 push	 OFFSET ??_C@_04HGGBINEM@?$CFs?$CFd@
  0034a	50		 push	 eax
  0034b	ff 15 00 00 00
	00		 call	 DWORD PTR __imp_?Format@?$CStringT@DV?$StrTraitMFC_DLL@DV?$ChTraitsCRT@D@ATL@@@@@ATL@@QAAXPBDZZ
  00351	83 c4 10	 add	 esp, 16			; 00000010H

; 1062 : 			nType = (int)m_GridSTList.GetItemData(nRow, COL_INFOPOINTER);

  00354	8d 8b d8 0f 00
	00		 lea	 ecx, DWORD PTR [ebx+4056]
  0035a	6a 01		 push	 1
  0035c	56		 push	 esi
  0035d	e8 00 00 00 00	 call	 ?GetItemData@CGridCtrl@@QBEJHH@Z ; CGridCtrl::GetItemData

; 1063 : 			strData.Format("%d",nType);

  00362	50		 push	 eax
  00363	8d 45 f0	 lea	 eax, DWORD PTR _strData$[ebp]
  00366	68 00 00 00 00	 push	 OFFSET ??_C@_02DPKJAMEF@?$CFd@
  0036b	50		 push	 eax
  0036c	ff 15 00 00 00
	00		 call	 DWORD PTR __imp_?Format@?$CStringT@DV?$StrTraitMFC_DLL@DV?$ChTraitsCRT@D@ATL@@@@@ATL@@QAAXPBDZZ
  00372	83 c4 0c	 add	 esp, 12			; 0000000cH

; 1064 : 			::WritePrivateProfileString(STRATEGYLIST,strKeyName,strData,strSTPath);

  00375	ff 75 ec	 push	 DWORD PTR _strSTPath$[ebp]
  00378	ff 75 f0	 push	 DWORD PTR _strData$[ebp]
  0037b	ff 75 e8	 push	 DWORD PTR _strKeyName$[ebp]
  0037e	68 00 00 00 00	 push	 OFFSET ??_C@_0N@GKFNKJGL@StrategyList@
  00383	ff 15 00 00 00
	00		 call	 DWORD PTR __imp__WritePrivateProfileStringA@16

; 1065 : 
; 1066 : 			strKeyName.Format("%s%d",STRATEGYPOSTIME,nIndex);

  00389	57		 push	 edi
  0038a	68 00 00 00 00	 push	 OFFSET ??_C@_07OMILIGCA@PosTime@
  0038f	8d 45 e8	 lea	 eax, DWORD PTR _strKeyName$[ebp]
  00392	68 00 00 00 00	 push	 OFFSET ??_C@_04HGGBINEM@?$CFs?$CFd@
  00397	50		 push	 eax
  00398	ff 15 00 00 00
	00		 call	 DWORD PTR __imp_?Format@?$CStringT@DV?$StrTraitMFC_DLL@DV?$ChTraitsCRT@D@ATL@@@@@ATL@@QAAXPBDZZ

; 1067 : 			strData.Format("%s",szTime);

  0039e	ff 75 d0	 push	 DWORD PTR _szTime$[ebp]
  003a1	8d 45 f0	 lea	 eax, DWORD PTR _strData$[ebp]
  003a4	68 00 00 00 00	 push	 OFFSET ??_C@_02DKCKIIND@?$CFs@
  003a9	50		 push	 eax
  003aa	ff 15 00 00 00
	00		 call	 DWORD PTR __imp_?Format@?$CStringT@DV?$StrTraitMFC_DLL@DV?$ChTraitsCRT@D@ATL@@@@@ATL@@QAAXPBDZZ
  003b0	83 c4 1c	 add	 esp, 28			; 0000001cH

; 1068 : 			::WritePrivateProfileString(STRATEGYLIST,strKeyName,strData,strSTPath);

  003b3	ff 75 ec	 push	 DWORD PTR _strSTPath$[ebp]
  003b6	ff 75 f0	 push	 DWORD PTR _strData$[ebp]
  003b9	ff 75 e8	 push	 DWORD PTR _strKeyName$[ebp]
  003bc	68 00 00 00 00	 push	 OFFSET ??_C@_0N@GKFNKJGL@StrategyList@
  003c1	ff 15 00 00 00
	00		 call	 DWORD PTR __imp__WritePrivateProfileStringA@16

; 1069 : 
; 1070 : 			strKeyName.Format("%s%d",STRATEGYPOSTEXT,nIndex);

  003c7	57		 push	 edi
  003c8	68 00 00 00 00	 push	 OFFSET ??_C@_07OPGJHLBD@PosText@
  003cd	8d 45 e8	 lea	 eax, DWORD PTR _strKeyName$[ebp]
  003d0	68 00 00 00 00	 push	 OFFSET ??_C@_04HGGBINEM@?$CFs?$CFd@
  003d5	50		 push	 eax
  003d6	ff 15 00 00 00
	00		 call	 DWORD PTR __imp_?Format@?$CStringT@DV?$StrTraitMFC_DLL@DV?$ChTraitsCRT@D@ATL@@@@@ATL@@QAAXPBDZZ
  003dc	83 c4 10	 add	 esp, 16			; 00000010H

; 1071 : 			strData = strGrid;

  003df	8d 45 e4	 lea	 eax, DWORD PTR _strGrid$[ebp]
  003e2	8d 4d f0	 lea	 ecx, DWORD PTR _strData$[ebp]
  003e5	50		 push	 eax
  003e6	ff 15 00 00 00
	00		 call	 DWORD PTR __imp_??4?$CStringT@DV?$StrTraitMFC_DLL@DV?$ChTraitsCRT@D@ATL@@@@@ATL@@QAEAAV01@ABV01@@Z

; 1072 : 			::WritePrivateProfileString(STRATEGYLIST,strKeyName,strData,strSTPath);

  003ec	ff 75 ec	 push	 DWORD PTR _strSTPath$[ebp]
  003ef	ff 75 f0	 push	 DWORD PTR _strData$[ebp]
  003f2	ff 75 e8	 push	 DWORD PTR _strKeyName$[ebp]
  003f5	68 00 00 00 00	 push	 OFFSET ??_C@_0N@GKFNKJGL@StrategyList@
  003fa	ff 15 00 00 00
	00		 call	 DWORD PTR __imp__WritePrivateProfileStringA@16

; 1073 : 
; 1074 : 			SaveVariable(strGrid, nIndex, strSTPath);

  00400	ff 75 ec	 push	 DWORD PTR _strSTPath$[ebp]
  00403	8d 45 e4	 lea	 eax, DWORD PTR _strGrid$[ebp]
  00406	8b cb		 mov	 ecx, ebx
  00408	57		 push	 edi
  00409	50		 push	 eax
  0040a	e8 00 00 00 00	 call	 ?SaveVariable@CDlgStrategyList@@IAEXAAV?$CStringT@DV?$StrTraitMFC_DLL@DV?$ChTraitsCRT@D@ATL@@@@@ATL@@HPBD@Z ; CDlgStrategyList::SaveVariable
  0040f	8b fe		 mov	 edi, esi
  00411	8d 47 01	 lea	 eax, DWORD PTR [edi+1]
  00414	3b 45 dc	 cmp	 eax, DWORD PTR _nRowCount$1$[ebp]
  00417	8d 83 d8 0f 00
	00		 lea	 eax, DWORD PTR [ebx+4056]
  0041d	0f 8c 02 fe ff
	ff		 jl	 $LL4@SaveST
$LN3@SaveST:

; 1075 : 		//}
; 1076 : 	}
; 1077 : 
; 1078 : 	CString strLogic = m_ctrlLogic.GetLogic();

  00423	8d 45 c8	 lea	 eax, DWORD PTR _strLogic$[ebp]
  00426	50		 push	 eax
  00427	8d 8b 30 02 00
	00		 lea	 ecx, DWORD PTR [ebx+560]
  0042d	e8 00 00 00 00	 call	 ?GetLogic@CLogicEditCtrl@@QAE?AV?$CStringT@DV?$StrTraitMFC_DLL@DV?$ChTraitsCRT@D@ATL@@@@@ATL@@XZ ; CLogicEditCtrl::GetLogic

; 1079 : 	::WritePrivateProfileString(STRATEGYLIST,STRATEGYLOGIC,strLogic,strSTPath);

  00432	ff 75 ec	 push	 DWORD PTR _strSTPath$[ebp]
  00435	ff 75 c8	 push	 DWORD PTR _strLogic$[ebp]
  00438	68 00 00 00 00	 push	 OFFSET ??_C@_09FALOBHDH@LogicData@
  0043d	68 00 00 00 00	 push	 OFFSET ??_C@_0N@GKFNKJGL@StrategyList@
  00442	ff 15 00 00 00
	00		 call	 DWORD PTR __imp__WritePrivateProfileStringA@16

; 1080 : }

  00448	8d 4d c8	 lea	 ecx, DWORD PTR _strLogic$[ebp]
  0044b	ff 15 00 00 00
	00		 call	 DWORD PTR __imp_??1?$CStringT@DV?$StrTraitMFC_DLL@DV?$ChTraitsCRT@D@ATL@@@@@ATL@@QAE@XZ
  00451	8d 4d d0	 lea	 ecx, DWORD PTR _szTime$[ebp]
  00454	ff 15 00 00 00
	00		 call	 DWORD PTR __imp_??1?$CStringT@DV?$StrTraitMFC_DLL@DV?$ChTraitsCRT@D@ATL@@@@@ATL@@QAE@XZ
  0045a	8d 4d d8	 lea	 ecx, DWORD PTR _szTitle$[ebp]
  0045d	ff 15 00 00 00
	00		 call	 DWORD PTR __imp_??1?$CStringT@DV?$StrTraitMFC_DLL@DV?$ChTraitsCRT@D@ATL@@@@@ATL@@QAE@XZ
  00463	8d 4d e4	 lea	 ecx, DWORD PTR _strGrid$[ebp]
  00466	ff 15 00 00 00
	00		 call	 DWORD PTR __imp_??1?$CStringT@DV?$StrTraitMFC_DLL@DV?$ChTraitsCRT@D@ATL@@@@@ATL@@QAE@XZ
  0046c	8d 4d f0	 lea	 ecx, DWORD PTR _strData$[ebp]
  0046f	ff 15 00 00 00
	00		 call	 DWORD PTR __imp_??1?$CStringT@DV?$StrTraitMFC_DLL@DV?$ChTraitsCRT@D@ATL@@@@@ATL@@QAE@XZ
  00475	8d 4d e8	 lea	 ecx, DWORD PTR _strKeyName$[ebp]
  00478	ff 15 00 00 00
	00		 call	 DWORD PTR __imp_??1?$CStringT@DV?$StrTraitMFC_DLL@DV?$ChTraitsCRT@D@ATL@@@@@ATL@@QAE@XZ
  0047e	8d 4d c4	 lea	 ecx, DWORD PTR _strSTDir$[ebp]
  00481	ff 15 00 00 00
	00		 call	 DWORD PTR __imp_??1?$CStringT@DV?$StrTraitMFC_DLL@DV?$ChTraitsCRT@D@ATL@@@@@ATL@@QAE@XZ
  00487	8d 4d ec	 lea	 ecx, DWORD PTR _strSTPath$[ebp]
  0048a	ff 15 00 00 00
	00		 call	 DWORD PTR __imp_??1?$CStringT@DV?$StrTraitMFC_DLL@DV?$ChTraitsCRT@D@ATL@@@@@ATL@@QAE@XZ
  00490	8d 4d cc	 lea	 ecx, DWORD PTR _strSTName$[ebp]
  00493	ff 15 00 00 00
	00		 call	 DWORD PTR __imp_??1?$CStringT@DV?$StrTraitMFC_DLL@DV?$ChTraitsCRT@D@ATL@@@@@ATL@@QAE@XZ
  00499	8b 4d f4	 mov	 ecx, DWORD PTR __$EHRec$[ebp]
  0049c	64 89 0d 00 00
	00 00		 mov	 DWORD PTR fs:0, ecx
  004a3	59		 pop	 ecx
  004a4	5f		 pop	 edi
  004a5	5e		 pop	 esi
  004a6	5b		 pop	 ebx
  004a7	8b e5		 mov	 esp, ebp
  004a9	5d		 pop	 ebp
  004aa	c2 08 00	 ret	 8
_TEXT	ENDS
;	COMDAT text$x
text$x	SEGMENT
__unwindfunclet$?SaveST@CDlgStrategyList@@IAEXPBDH@Z$0:
  00000	8d 4d cc	 lea	 ecx, DWORD PTR _strSTName$[ebp]
  00003	ff 25 00 00 00
	00		 jmp	 DWORD PTR __imp_??1?$CStringT@DV?$StrTraitMFC_DLL@DV?$ChTraitsCRT@D@ATL@@@@@ATL@@QAE@XZ
__unwindfunclet$?SaveST@CDlgStrategyList@@IAEXPBDH@Z$1:
  00009	8d 4d ec	 lea	 ecx, DWORD PTR _strSTPath$[ebp]
  0000c	ff 25 00 00 00
	00		 jmp	 DWORD PTR __imp_??1?$CStringT@DV?$StrTraitMFC_DLL@DV?$ChTraitsCRT@D@ATL@@@@@ATL@@QAE@XZ
__unwindfunclet$?SaveST@CDlgStrategyList@@IAEXPBDH@Z$2:
  00012	8d 4d c4	 lea	 ecx, DWORD PTR _strSTDir$[ebp]
  00015	ff 25 00 00 00
	00		 jmp	 DWORD PTR __imp_??1?$CStringT@DV?$StrTraitMFC_DLL@DV?$ChTraitsCRT@D@ATL@@@@@ATL@@QAE@XZ
__unwindfunclet$?SaveST@CDlgStrategyList@@IAEXPBDH@Z$16:
  0001b	8b 45 e0	 mov	 eax, DWORD PTR $T5[ebp]
  0001e	83 e0 01	 and	 eax, 1
  00021	0f 84 0d 00 00
	00		 je	 $LN29@SaveST
  00027	83 65 e0 fe	 and	 DWORD PTR $T5[ebp], -2	; fffffffeH
  0002b	8d 4d dc	 lea	 ecx, DWORD PTR $T4[ebp]
  0002e	ff 25 00 00 00
	00		 jmp	 DWORD PTR __imp_??1?$CStringT@DV?$StrTraitMFC_DLL@DV?$ChTraitsCRT@D@ATL@@@@@ATL@@QAE@XZ
$LN29@SaveST:
  00034	c3		 ret	 0
__unwindfunclet$?SaveST@CDlgStrategyList@@IAEXPBDH@Z$17:
  00035	8b 45 e0	 mov	 eax, DWORD PTR $T5[ebp]
  00038	83 e0 02	 and	 eax, 2
  0003b	0f 84 0d 00 00
	00		 je	 $LN42@SaveST
  00041	83 65 e0 fd	 and	 DWORD PTR $T5[ebp], -3	; fffffffdH
  00045	8d 4d 0c	 lea	 ecx, DWORD PTR $T9[ebp]
  00048	ff 25 00 00 00
	00		 jmp	 DWORD PTR __imp_??1?$CStringT@DV?$StrTraitMFC_DLL@DV?$ChTraitsCRT@D@ATL@@@@@ATL@@QAE@XZ
$LN42@SaveST:
  0004e	c3		 ret	 0
__unwindfunclet$?SaveST@CDlgStrategyList@@IAEXPBDH@Z$18:
  0004f	8b 45 e0	 mov	 eax, DWORD PTR $T5[ebp]
  00052	83 e0 04	 and	 eax, 4
  00055	0f 84 0d 00 00
	00		 je	 $LN55@SaveST
  0005b	83 65 e0 fb	 and	 DWORD PTR $T5[ebp], -5	; fffffffbH
  0005f	8d 4d 08	 lea	 ecx, DWORD PTR $T7[ebp]
  00062	ff 25 00 00 00
	00		 jmp	 DWORD PTR __imp_??1?$CStringT@DV?$StrTraitMFC_DLL@DV?$ChTraitsCRT@D@ATL@@@@@ATL@@QAE@XZ
$LN55@SaveST:
  00068	c3		 ret	 0
__unwindfunclet$?SaveST@CDlgStrategyList@@IAEXPBDH@Z$19:
  00069	8b 45 e0	 mov	 eax, DWORD PTR $T5[ebp]
  0006c	83 e0 08	 and	 eax, 8
  0006f	0f 84 0d 00 00
	00		 je	 $LN71@SaveST
  00075	83 65 e0 f7	 and	 DWORD PTR $T5[ebp], -9	; fffffff7H
  00079	8d 4d d4	 lea	 ecx, DWORD PTR $T3[ebp]
  0007c	ff 25 00 00 00
	00		 jmp	 DWORD PTR __imp_??1?$CStringT@DV?$StrTraitMFC_DLL@DV?$ChTraitsCRT@D@ATL@@@@@ATL@@QAE@XZ
$LN71@SaveST:
  00082	c3		 ret	 0
__unwindfunclet$?SaveST@CDlgStrategyList@@IAEXPBDH@Z$7:
  00083	8d 4d e8	 lea	 ecx, DWORD PTR _strKeyName$[ebp]
  00086	ff 25 00 00 00
	00		 jmp	 DWORD PTR __imp_??1?$CStringT@DV?$StrTraitMFC_DLL@DV?$ChTraitsCRT@D@ATL@@@@@ATL@@QAE@XZ
__unwindfunclet$?SaveST@CDlgStrategyList@@IAEXPBDH@Z$8:
  0008c	8d 4d f0	 lea	 ecx, DWORD PTR _strData$[ebp]
  0008f	ff 25 00 00 00
	00		 jmp	 DWORD PTR __imp_??1?$CStringT@DV?$StrTraitMFC_DLL@DV?$ChTraitsCRT@D@ATL@@@@@ATL@@QAE@XZ
__unwindfunclet$?SaveST@CDlgStrategyList@@IAEXPBDH@Z$9:
  00095	8d 4d e4	 lea	 ecx, DWORD PTR _strGrid$[ebp]
  00098	ff 25 00 00 00
	00		 jmp	 DWORD PTR __imp_??1?$CStringT@DV?$StrTraitMFC_DLL@DV?$ChTraitsCRT@D@ATL@@@@@ATL@@QAE@XZ
__unwindfunclet$?SaveST@CDlgStrategyList@@IAEXPBDH@Z$10:
  0009e	8d 4d d8	 lea	 ecx, DWORD PTR _szTitle$[ebp]
  000a1	ff 25 00 00 00
	00		 jmp	 DWORD PTR __imp_??1?$CStringT@DV?$StrTraitMFC_DLL@DV?$ChTraitsCRT@D@ATL@@@@@ATL@@QAE@XZ
__unwindfunclet$?SaveST@CDlgStrategyList@@IAEXPBDH@Z$11:
  000a7	8d 4d d0	 lea	 ecx, DWORD PTR _szTime$[ebp]
  000aa	ff 25 00 00 00
	00		 jmp	 DWORD PTR __imp_??1?$CStringT@DV?$StrTraitMFC_DLL@DV?$ChTraitsCRT@D@ATL@@@@@ATL@@QAE@XZ
__unwindfunclet$?SaveST@CDlgStrategyList@@IAEXPBDH@Z$12:
  000b0	8d 4d 08	 lea	 ecx, DWORD PTR $T6[ebp]
  000b3	ff 25 00 00 00
	00		 jmp	 DWORD PTR __imp_??1?$CStringT@DV?$StrTraitMFC_DLL@DV?$ChTraitsCRT@D@ATL@@@@@ATL@@QAE@XZ
__unwindfunclet$?SaveST@CDlgStrategyList@@IAEXPBDH@Z$13:
  000b9	8d 4d 0c	 lea	 ecx, DWORD PTR $T8[ebp]
  000bc	ff 25 00 00 00
	00		 jmp	 DWORD PTR __imp_??1?$CStringT@DV?$StrTraitMFC_DLL@DV?$ChTraitsCRT@D@ATL@@@@@ATL@@QAE@XZ
__unwindfunclet$?SaveST@CDlgStrategyList@@IAEXPBDH@Z$14:
  000c2	8d 4d d4	 lea	 ecx, DWORD PTR $T2[ebp]
  000c5	ff 25 00 00 00
	00		 jmp	 DWORD PTR __imp_??1?$CStringT@DV?$StrTraitMFC_DLL@DV?$ChTraitsCRT@D@ATL@@@@@ATL@@QAE@XZ
  000cb	cc		 int	 3
  000cc	cc		 int	 3
  000cd	cc		 int	 3
  000ce	cc		 int	 3
  000cf	cc		 int	 3
__ehhandler$?SaveST@CDlgStrategyList@@IAEXPBDH@Z:
  000d0	90		 npad	 1
  000d1	90		 npad	 1
  000d2	8b 54 24 08	 mov	 edx, DWORD PTR [esp+8]
  000d6	8d 42 0c	 lea	 eax, DWORD PTR [edx+12]
  000d9	8b 4a c0	 mov	 ecx, DWORD PTR [edx-64]
  000dc	33 c8		 xor	 ecx, eax
  000de	e8 00 00 00 00	 call	 @__security_check_cookie@4
  000e3	b8 00 00 00 00	 mov	 eax, OFFSET __ehfuncinfo$?SaveST@CDlgStrategyList@@IAEXPBDH@Z
  000e8	e9 00 00 00 00	 jmp	 ___CxxFrameHandler3
text$x	ENDS
?SaveST@CDlgStrategyList@@IAEXPBDH@Z ENDP		; CDlgStrategyList::SaveST
; Function compile flags: /Ogtp
; File D:\git\src\IBK\IBK_DRFN\ProjSrc\SrcDrfn\Chart\HWSTRATEGYCONFIGUREWIZARD\DlgStrategyList.cpp
;	COMDAT ?DeleteAllItem@CDlgStrategyList@@IAEHXZ
_TEXT	SEGMENT
?DeleteAllItem@CDlgStrategyList@@IAEHXZ PROC		; CDlgStrategyList::DeleteAllItem, COMDAT
; _this$ = ecx

; 828  : {

  00000	53		 push	 ebx
  00001	8b d9		 mov	 ebx, ecx
  00003	56		 push	 esi

; 829  : 	CSDItemInfo * pSDItemInfo = NULL;
; 830  : 	int nRowCount = m_GridSTList.GetRowCount();
; 831  : 	for(int nPos=nRowCount-1;nPos>0;nPos--)

  00004	8b b3 f0 10 00
	00		 mov	 esi, DWORD PTR [ebx+4336]
  0000a	4e		 dec	 esi
  0000b	85 f6		 test	 esi, esi
  0000d	7e 13		 jle	 SHORT $LN3@DeleteAllI
  0000f	57		 push	 edi
$LL4@DeleteAllI:

; 832  : 	{
; 833  : 		m_GridSTList.DeleteRow(nPos);

  00010	56		 push	 esi
  00011	8d 8b d8 0f 00
	00		 lea	 ecx, DWORD PTR [ebx+4056]
  00017	e8 00 00 00 00	 call	 ?DeleteRow@CGridCtrl@@QAEHH@Z ; CGridCtrl::DeleteRow
  0001c	4e		 dec	 esi
  0001d	85 f6		 test	 esi, esi
  0001f	7f ef		 jg	 SHORT $LL4@DeleteAllI
  00021	5f		 pop	 edi
$LN3@DeleteAllI:

; 834  : 	}
; 835  : 	m_ctrlLogic.DeleteAllElement();

  00022	8d 8b 30 02 00
	00		 lea	 ecx, DWORD PTR [ebx+560]
  00028	e8 00 00 00 00	 call	 ?DeleteAllElement@CLogicEditCtrl@@QAEXXZ ; CLogicEditCtrl::DeleteAllElement

; 836  : 	m_chLastIndex = 'A';
; 837  : 	return TRUE;

  0002d	5e		 pop	 esi
  0002e	c6 83 08 17 00
	00 41		 mov	 BYTE PTR [ebx+5896], 65	; 00000041H
  00035	b8 01 00 00 00	 mov	 eax, 1
  0003a	5b		 pop	 ebx

; 838  : }

  0003b	c3		 ret	 0
?DeleteAllItem@CDlgStrategyList@@IAEHXZ ENDP		; CDlgStrategyList::DeleteAllItem
_TEXT	ENDS
; Function compile flags: /Ogtp
; File D:\git\src\IBK\IBK_DRFN\ProjSrc\SrcDrfn\Chart\HWSTRATEGYCONFIGUREWIZARD\DlgStrategyList.cpp
;	COMDAT ?GetNewSTPosNo@CDlgStrategyList@@IAEHXZ
_TEXT	SEGMENT
_this$1$ = -8						; size = 4
tv160 = -4						; size = 4
?GetNewSTPosNo@CDlgStrategyList@@IAEHXZ PROC		; CDlgStrategyList::GetNewSTPosNo, COMDAT
; _this$ = ecx

; 841  : {

  00000	55		 push	 ebp
  00001	8b ec		 mov	 ebp, esp
  00003	83 ec 08	 sub	 esp, 8
  00006	8b c1		 mov	 eax, ecx
  00008	53		 push	 ebx
  00009	89 45 f8	 mov	 DWORD PTR _this$1$[ebp], eax

; 842  : 	int nRowCount = m_GridSTList.GetRowCount();

  0000c	8b 98 f0 10 00
	00		 mov	 ebx, DWORD PTR [eax+4336]

; 843  : 
; 844  : 	if(nRowCount<=1)

  00012	83 fb 01	 cmp	 ebx, 1
  00015	7f 07		 jg	 SHORT $LN8@GetNewSTPo

; 845  : 		return 0;

  00017	33 c0		 xor	 eax, eax
  00019	5b		 pop	 ebx

; 868  : }

  0001a	8b e5		 mov	 esp, ebp
  0001c	5d		 pop	 ebp
  0001d	c3		 ret	 0
$LN8@GetNewSTPo:
  0001e	56		 push	 esi
  0001f	57		 push	 edi

; 846  : 
; 847  : 	CSDItemInfo* pSDItemInfoInRow = NULL;
; 848  : 	BOOL bExistIndex = FALSE;
; 849  : 	int nIndexFinder = 0;
; 850  : 	for(nIndexFinder = 0;nIndexFinder<256;nIndexFinder++)

  00020	33 ff		 xor	 edi, edi
$LL4@GetNewSTPo:

; 851  : 	{
; 852  : 		bExistIndex = FALSE;
; 853  : 		for(int nRow=1;nRow<nRowCount;nRow++)

  00022	05 d8 0f 00 00	 add	 eax, 4056		; 00000fd8H
  00027	be 01 00 00 00	 mov	 esi, 1
  0002c	89 45 fc	 mov	 DWORD PTR tv160[ebp], eax
  0002f	90		 npad	 1
$LL7@GetNewSTPo:

; 854  : 		{
; 855  : 			pSDItemInfoInRow = (CSDItemInfo*)m_GridSTList.GetItemData(nRow,COL_INFOPOINTER);

  00030	6a 01		 push	 1
  00032	56		 push	 esi
  00033	8b c8		 mov	 ecx, eax
  00035	e8 00 00 00 00	 call	 ?GetItemData@CGridCtrl@@QBEJHH@Z ; CGridCtrl::GetItemData

; 856  : 			if(pSDItemInfoInRow->m_nIndexInST==nIndexFinder) 

  0003a	39 78 18	 cmp	 DWORD PTR [eax+24], edi
  0003d	74 0a		 je	 SHORT $LN15@GetNewSTPo

; 851  : 	{
; 852  : 		bExistIndex = FALSE;
; 853  : 		for(int nRow=1;nRow<nRowCount;nRow++)

  0003f	46		 inc	 esi
  00040	3b f3		 cmp	 esi, ebx
  00042	7d 11		 jge	 SHORT $LN23@GetNewSTPo
  00044	8b 45 fc	 mov	 eax, DWORD PTR tv160[ebp]
  00047	eb e7		 jmp	 SHORT $LL7@GetNewSTPo
$LN15@GetNewSTPo:

; 846  : 
; 847  : 	CSDItemInfo* pSDItemInfoInRow = NULL;
; 848  : 	BOOL bExistIndex = FALSE;
; 849  : 	int nIndexFinder = 0;
; 850  : 	for(nIndexFinder = 0;nIndexFinder<256;nIndexFinder++)

  00049	8b 45 f8	 mov	 eax, DWORD PTR _this$1$[ebp]
  0004c	47		 inc	 edi
  0004d	81 ff 00 01 00
	00		 cmp	 edi, 256		; 00000100H
  00053	7c cd		 jl	 SHORT $LL4@GetNewSTPo
$LN23@GetNewSTPo:

; 857  : 			{
; 858  : 				bExistIndex = TRUE;
; 859  : 				break;
; 860  : 			}
; 861  : 		}
; 862  : 		if(bExistIndex)
; 863  : 			continue;
; 864  : 		else
; 865  : 			break;
; 866  : 	}
; 867  : 	return nIndexFinder;

  00055	8b c7		 mov	 eax, edi
  00057	5f		 pop	 edi
  00058	5e		 pop	 esi
  00059	5b		 pop	 ebx

; 868  : }

  0005a	8b e5		 mov	 esp, ebp
  0005c	5d		 pop	 ebp
  0005d	c3		 ret	 0
?GetNewSTPosNo@CDlgStrategyList@@IAEHXZ ENDP		; CDlgStrategyList::GetNewSTPosNo
_TEXT	ENDS
; Function compile flags: /Ogtp
; File D:\git\src\IBK\IBK_DRFN\ProjSrc\SrcDrfn\Chart\HWSTRATEGYCONFIGUREWIZARD\DlgStrategyList.cpp
; File C:\Program Files (x86)\Microsoft Visual Studio\2019\Community\VC\Tools\MSVC\14.29.30133\atlmfc\include\atlsimpstr.h
; File D:\git\src\IBK\IBK_DRFN\ProjSrc\SrcDrfn\Chart\HWSTRATEGYCONFIGUREWIZARD\DlgStrategyList.cpp
; File C:\Program Files (x86)\Microsoft Visual Studio\2019\Community\VC\Tools\MSVC\14.29.30133\atlmfc\include\cstringt.h
; File D:\git\src\IBK\IBK_DRFN\ProjSrc\SrcDrfn\Chart\HWSTRATEGYCONFIGUREWIZARD\DlgStrategyList.cpp
; File C:\Program Files (x86)\Microsoft Visual Studio\2019\Community\VC\Tools\MSVC\14.29.30133\atlmfc\include\cstringt.h
; File C:\Program Files (x86)\Microsoft Visual Studio\2019\Community\VC\Tools\MSVC\14.29.30133\atlmfc\include\atlsimpstr.h
; File C:\Program Files (x86)\Microsoft Visual Studio\2019\Community\VC\Tools\MSVC\14.29.30133\atlmfc\include\cstringt.h
; File D:\git\src\IBK\IBK_DRFN\ProjSrc\SrcDrfn\Chart\HWSTRATEGYCONFIGUREWIZARD\DlgStrategyList.cpp
;	COMDAT ?LoadST@CDlgStrategyList@@IAEXJ@Z
_TEXT	SEGMENT
_nCurSTListCount$1$ = -324				; size = 4
_nGridRow$ = -320					; size = 4
_strMessage$ = -320					; size = 4
_strSfgName$ = -316					; size = 4
_lpData$GSCopy$1$ = -312				; size = 4
$T2 = -312						; size = 4
_strKeyData$ = -308					; size = 4
_strGrid$ = -304					; size = 4
_szText$ = -300						; size = 4
_nIndexCount$1$ = -296					; size = 4
_szTitle$3 = -296					; size = 4
$T4 = -296						; size = 4
$T5 = -292						; size = 4
_strIndex$6 = -292					; size = 4
_szTitle$ = -288					; size = 4
_strSTPath$ = -284					; size = 4
_strKeyName$ = -280					; size = 4
_nIndex$1$ = -276					; size = 4
_szMsg$7 = -276						; size = 4
_szMsg$8 = -276						; size = 4
_szBuffer$ = -272					; size = 256
__$ArrayPad$ = -16					; size = 4
__$EHRec$ = -12						; size = 12
_lpData$ = 8						; size = 4
?LoadST@CDlgStrategyList@@IAEXJ@Z PROC			; CDlgStrategyList::LoadST, COMDAT
; _this$ = ecx

; 1083 : {

  00000	55		 push	 ebp
  00001	8b ec		 mov	 ebp, esp
  00003	6a ff		 push	 -1
  00005	68 00 00 00 00	 push	 __ehhandler$?LoadST@CDlgStrategyList@@IAEXJ@Z
  0000a	64 a1 00 00 00
	00		 mov	 eax, DWORD PTR fs:0
  00010	50		 push	 eax
  00011	81 ec 38 01 00
	00		 sub	 esp, 312		; 00000138H
  00017	a1 00 00 00 00	 mov	 eax, DWORD PTR ___security_cookie
  0001c	33 c5		 xor	 eax, ebp
  0001e	89 45 f0	 mov	 DWORD PTR __$ArrayPad$[ebp], eax
  00021	53		 push	 ebx
  00022	56		 push	 esi
  00023	57		 push	 edi
  00024	50		 push	 eax
  00025	8d 45 f4	 lea	 eax, DWORD PTR __$EHRec$[ebp]
  00028	64 a3 00 00 00
	00		 mov	 DWORD PTR fs:0, eax
  0002e	8b f1		 mov	 esi, ecx
  00030	8b 5d 08	 mov	 ebx, DWORD PTR _lpData$[ebp]
  00033	c7 85 d8 fe ff
	ff 00 00 00 00	 mov	 DWORD PTR $T4[ebp], 0

; 1084 : 	m_nFlagCnt++;

  0003d	ff 86 6c 14 00
	00		 inc	 DWORD PTR [esi+5228]

; 1085 : 	if(m_nFlagCnt==1) {

  00043	83 be 6c 14 00
	00 01		 cmp	 DWORD PTR [esi+5228], 1
  0004a	89 9d c8 fe ff
	ff		 mov	 DWORD PTR _lpData$GSCopy$1$[ebp], ebx
  00050	75 07		 jne	 SHORT $LN5@LoadST

; 1086 : 		GetDlgItem(IDC_BTN_STCONFIGDLG)->EnableWindow(TRUE);
; 1087 : 		GetDlgItem(IDC_BTN_STRUN)->EnableWindow(TRUE);

  00052	bf 01 00 00 00	 mov	 edi, 1

; 1088 : 	}

  00057	eb 02		 jmp	 SHORT $LN6@LoadST
$LN5@LoadST:

; 1089 : 	else {
; 1090 : 		GetDlgItem(IDC_BTN_STCONFIGDLG)->EnableWindow(FALSE);
; 1091 : 		GetDlgItem(IDC_BTN_STRUN)->EnableWindow(FALSE);

  00059	33 ff		 xor	 edi, edi
$LN6@LoadST:

; 1092 : 	}
; 1093 : 
; 1094 : 	STLISTITEMDATA* pDataItem = (STLISTITEMDATA*)lpData;

  0005b	68 f5 03 00 00	 push	 1013			; 000003f5H
  00060	e8 00 00 00 00	 call	 ?GetDlgItem@CWnd@@QBEPAV1@H@Z ; CWnd::GetDlgItem
  00065	57		 push	 edi
  00066	8b c8		 mov	 ecx, eax
  00068	e8 00 00 00 00	 call	 ?EnableWindow@CWnd@@QAEHH@Z ; CWnd::EnableWindow
  0006d	68 f6 03 00 00	 push	 1014			; 000003f6H
  00072	8b ce		 mov	 ecx, esi
  00074	e8 00 00 00 00	 call	 ?GetDlgItem@CWnd@@QBEPAV1@H@Z ; CWnd::GetDlgItem
  00079	57		 push	 edi
  0007a	8b c8		 mov	 ecx, eax
  0007c	e8 00 00 00 00	 call	 ?EnableWindow@CWnd@@QAEHH@Z ; CWnd::EnableWindow

; 1095 : 
; 1096 : 	//    ( or )
; 1097 : 	int nCurSTListCount = m_GridSTList.GetRowCount() - 1;

  00081	8b 86 f0 10 00
	00		 mov	 eax, DWORD PTR [esi+4336]
  00087	8d 78 ff	 lea	 edi, DWORD PTR [eax-1]
  0008a	89 bd bc fe ff
	ff		 mov	 DWORD PTR _nCurSTListCount$1$[ebp], edi

; 1098 : 	if(nCurSTListCount+1>ST_MAX_ROW)

  00090	83 f8 0a	 cmp	 eax, 10			; 0000000aH
  00093	7e 44		 jle	 SHORT $LN7@LoadST

; 1099 : 	{
; 1100 : 		CString szMsg;

  00095	8d 8d ec fe ff
	ff		 lea	 ecx, DWORD PTR _szMsg$8[ebp]
  0009b	ff 15 00 00 00
	00		 call	 DWORD PTR __imp_??0?$CStringT@DV?$StrTraitMFC_DLL@DV?$ChTraitsCRT@D@ATL@@@@@ATL@@QAE@XZ

; 1101 : 		szMsg.Format(" %d .(1)", ST_MAX_ROW);

  000a1	6a 0a		 push	 10			; 0000000aH
  000a3	8d 85 ec fe ff
	ff		 lea	 eax, DWORD PTR _szMsg$8[ebp]
  000a9	c7 45 fc 00 00
	00 00		 mov	 DWORD PTR __$EHRec$[ebp+8], 0
  000b0	68 00 00 00 00	 push	 OFFSET ??_C@_0BN@HJIDJAEP@?C?V?$LE?k?5?$CFd?$LA?$LD?$LB?n?A?v?5?$LA?$KB?$LE?I?G?U?$LE?O?$LE?Y?4?$CI1?$CJ@
  000b5	50		 push	 eax
  000b6	ff 15 00 00 00
	00		 call	 DWORD PTR __imp_?Format@?$CStringT@DV?$StrTraitMFC_DLL@DV?$ChTraitsCRT@D@ATL@@@@@ATL@@QAAXPBDZZ
  000bc	83 c4 0c	 add	 esp, 12			; 0000000cH

; 1102 : 		AfxMessageBox(szMsg);

  000bf	6a 00		 push	 0
  000c1	6a 00		 push	 0
  000c3	ff b5 ec fe ff
	ff		 push	 DWORD PTR _szMsg$8[ebp]
  000c9	e8 00 00 00 00	 call	 ?AfxMessageBox@@YGHPBDII@Z ; AfxMessageBox

; 1103 : 		return;

  000ce	8d 8d ec fe ff
	ff		 lea	 ecx, DWORD PTR _szMsg$8[ebp]
  000d4	e9 81 06 00 00	 jmp	 $LN150@LoadST
$LN7@LoadST:

; 1104 : 	}
; 1105 : 
; 1106 : 	// ST  
; 1107 : 	CString strMessage;

  000d9	8d 8d c0 fe ff
	ff		 lea	 ecx, DWORD PTR _strMessage$[ebp]
  000df	ff 15 00 00 00
	00		 call	 DWORD PTR __imp_??0?$CStringT@DV?$StrTraitMFC_DLL@DV?$ChTraitsCRT@D@ATL@@@@@ATL@@QAE@XZ

; 1108 : 	CString strSTPath = pDataItem->szSTPath;

  000e5	8d 43 04	 lea	 eax, DWORD PTR [ebx+4]
  000e8	c7 45 fc 01 00
	00 00		 mov	 DWORD PTR __$EHRec$[ebp+8], 1
  000ef	50		 push	 eax
  000f0	8d 8d e4 fe ff
	ff		 lea	 ecx, DWORD PTR _strSTPath$[ebp]
  000f6	ff 15 00 00 00
	00		 call	 DWORD PTR __imp_??0?$CStringT@DV?$StrTraitMFC_DLL@DV?$ChTraitsCRT@D@ATL@@@@@ATL@@QAE@ABV01@@Z

; 1109 : 	strSTPath += ".ST";

  000fc	68 00 00 00 00	 push	 OFFSET ??_C@_03COHLPAFH@?4ST@
  00101	8d 8d e4 fe ff
	ff		 lea	 ecx, DWORD PTR _strSTPath$[ebp]
  00107	c6 45 fc 02	 mov	 BYTE PTR __$EHRec$[ebp+8], 2
  0010b	ff 15 00 00 00
	00		 call	 DWORD PTR __imp_??Y?$CStringT@DV?$StrTraitMFC_DLL@DV?$ChTraitsCRT@D@ATL@@@@@ATL@@QAEAAV01@PBD@Z

; 1110 : 
; 1111 : 	// ST Read
; 1112 : 	char szBuffer[256];
; 1113 : 	::GetPrivateProfileString(STRATEGYLIST, STRATEGYCNT, "0", szBuffer, sizeof(szBuffer), strSTPath);

  00111	ff b5 e4 fe ff
	ff		 push	 DWORD PTR _strSTPath$[ebp]
  00117	8b 1d 00 00 00
	00		 mov	 ebx, DWORD PTR __imp__GetPrivateProfileStringA@24
  0011d	8d 85 f0 fe ff
	ff		 lea	 eax, DWORD PTR _szBuffer$[ebp]
  00123	68 00 01 00 00	 push	 256			; 00000100H
  00128	50		 push	 eax
  00129	68 00 00 00 00	 push	 OFFSET ??_C@_01GBGANLPD@0@
  0012e	68 00 00 00 00	 push	 OFFSET ??_C@_05IJGIMMHE@Count@
  00133	68 00 00 00 00	 push	 OFFSET ??_C@_0N@GKFNKJGL@StrategyList@
  00138	ff d3		 call	 ebx

; 1114 : 	int nIndexCount = atol(szBuffer);

  0013a	8d 85 f0 fe ff
	ff		 lea	 eax, DWORD PTR _szBuffer$[ebp]
  00140	50		 push	 eax
  00141	ff 15 00 00 00
	00		 call	 DWORD PTR __imp__atol
  00147	83 c4 04	 add	 esp, 4
  0014a	89 85 d8 fe ff
	ff		 mov	 DWORD PTR _nIndexCount$1$[ebp], eax

; 1115 : 
; 1116 : 	if(nCurSTListCount+nIndexCount>ST_MAX_ROW)

  00150	8d 0c 38	 lea	 ecx, DWORD PTR [eax+edi]
  00153	83 f9 0a	 cmp	 ecx, 10			; 0000000aH
  00156	7e 41		 jle	 SHORT $LN8@LoadST

; 1117 : 	{
; 1118 : 		CString szMsg;

  00158	8d 8d ec fe ff
	ff		 lea	 ecx, DWORD PTR _szMsg$7[ebp]
  0015e	ff 15 00 00 00
	00		 call	 DWORD PTR __imp_??0?$CStringT@DV?$StrTraitMFC_DLL@DV?$ChTraitsCRT@D@ATL@@@@@ATL@@QAE@XZ

; 1119 : 		szMsg.Format(" %d .(2)", ST_MAX_ROW);

  00164	6a 0a		 push	 10			; 0000000aH
  00166	8d 85 ec fe ff
	ff		 lea	 eax, DWORD PTR _szMsg$7[ebp]
  0016c	c6 45 fc 03	 mov	 BYTE PTR __$EHRec$[ebp+8], 3
  00170	68 00 00 00 00	 push	 OFFSET ??_C@_0BN@HLMFCOBG@?C?V?$LE?k?5?$CFd?$LA?$LD?$LB?n?A?v?5?$LA?$KB?$LE?I?G?U?$LE?O?$LE?Y?4?$CI2?$CJ@
  00175	50		 push	 eax
  00176	ff 15 00 00 00
	00		 call	 DWORD PTR __imp_?Format@?$CStringT@DV?$StrTraitMFC_DLL@DV?$ChTraitsCRT@D@ATL@@@@@ATL@@QAAXPBDZZ
  0017c	83 c4 0c	 add	 esp, 12			; 0000000cH

; 1120 : 		AfxMessageBox(szMsg);

  0017f	6a 00		 push	 0
  00181	6a 00		 push	 0
  00183	ff b5 ec fe ff
	ff		 push	 DWORD PTR _szMsg$7[ebp]
  00189	e8 00 00 00 00	 call	 ?AfxMessageBox@@YGHPBDII@Z ; AfxMessageBox

; 1121 : 		return;

  0018e	8d 8d ec fe ff
	ff		 lea	 ecx, DWORD PTR _szMsg$7[ebp]
  00194	e9 a9 05 00 00	 jmp	 $LN151@LoadST
$LN8@LoadST:

; 1122 : 	}
; 1123 : 
; 1124 : 	CString strKeyName;

  00199	8d 8d e8 fe ff
	ff		 lea	 ecx, DWORD PTR _strKeyName$[ebp]
  0019f	ff 15 00 00 00
	00		 call	 DWORD PTR __imp_??0?$CStringT@DV?$StrTraitMFC_DLL@DV?$ChTraitsCRT@D@ATL@@@@@ATL@@QAE@XZ

; 1125 : 	CString strKeyData;

  001a5	8d 8d cc fe ff
	ff		 lea	 ecx, DWORD PTR _strKeyData$[ebp]
  001ab	ff 15 00 00 00
	00		 call	 DWORD PTR __imp_??0?$CStringT@DV?$StrTraitMFC_DLL@DV?$ChTraitsCRT@D@ATL@@@@@ATL@@QAE@XZ

; 1126 : 	int nSTPos = 0;
; 1127 : 	int nType = 0;
; 1128 : 	CString strGrid;	// ()   

  001b1	8d 8d d0 fe ff
	ff		 lea	 ecx, DWORD PTR _strGrid$[ebp]
  001b7	ff 15 00 00 00
	00		 call	 DWORD PTR __imp_??0?$CStringT@DV?$StrTraitMFC_DLL@DV?$ChTraitsCRT@D@ATL@@@@@ATL@@QAE@XZ

; 1129 : 	CString strSfgName;

  001bd	8d 8d c4 fe ff
	ff		 lea	 ecx, DWORD PTR _strSfgName$[ebp]
  001c3	ff 15 00 00 00
	00		 call	 DWORD PTR __imp_??0?$CStringT@DV?$StrTraitMFC_DLL@DV?$ChTraitsCRT@D@ATL@@@@@ATL@@QAE@XZ

; 1130 : 	CSDItemInfo * pSDItemInfo = NULL;
; 1131 : 	int nGridRow;
; 1132 : 	BOOL bResultOfAddRowData = FALSE;
; 1133 : 	for(int nIndex=0;nIndex<nIndexCount;nIndex++)

  001c9	33 ff		 xor	 edi, edi
  001cb	c6 45 fc 07	 mov	 BYTE PTR __$EHRec$[ebp+8], 7
  001cf	89 bd ec fe ff
	ff		 mov	 DWORD PTR _nIndex$1$[ebp], edi
  001d5	39 bd d8 fe ff
	ff		 cmp	 DWORD PTR _nIndexCount$1$[ebp], edi
  001db	0f 8f 15 01 00
	00		 jg	 $LN4@LoadST
  001e1	8b 9d c0 fe ff
	ff		 mov	 ebx, DWORD PTR _nGridRow$[ebp]
$LN144@LoadST:

; 1176 : 
; 1177 : 	::GetPrivateProfileString(STRATEGYLIST,STRATEGYLOGIC,"",szBuffer,sizeof(szBuffer), strSTPath);

  001e7	ff b5 e4 fe ff
	ff		 push	 DWORD PTR _strSTPath$[ebp]
  001ed	8d 85 f0 fe ff
	ff		 lea	 eax, DWORD PTR _szBuffer$[ebp]
  001f3	68 00 01 00 00	 push	 256			; 00000100H
  001f8	50		 push	 eax
  001f9	68 00 00 00 00	 push	 OFFSET ??_C@_00CNPNBAHC@@
  001fe	68 00 00 00 00	 push	 OFFSET ??_C@_09FALOBHDH@LogicData@
  00203	68 00 00 00 00	 push	 OFFSET ??_C@_0N@GKFNKJGL@StrategyList@
  00208	ff 15 00 00 00
	00		 call	 DWORD PTR __imp__GetPrivateProfileStringA@24

; 1178 : 	m_ctrlLogic.SetLogic(szBuffer);

  0020e	8d 85 f0 fe ff
	ff		 lea	 eax, DWORD PTR _szBuffer$[ebp]
  00214	50		 push	 eax
  00215	8d 8e 30 02 00
	00		 lea	 ecx, DWORD PTR [esi+560]
  0021b	e8 00 00 00 00	 call	 ?SetLogic@CLogicEditCtrl@@QAEXPBD@Z ; CLogicEditCtrl::SetLogic

; 1179 : 
; 1180 : 	CString szTitle = pDataItem->szSTPath;

  00220	8b 85 c8 fe ff
	ff		 mov	 eax, DWORD PTR _lpData$GSCopy$1$[ebp]
  00226	8d 8d e0 fe ff
	ff		 lea	 ecx, DWORD PTR _szTitle$[ebp]
  0022c	83 c0 04	 add	 eax, 4
  0022f	50		 push	 eax
  00230	ff 15 00 00 00
	00		 call	 DWORD PTR __imp_??0?$CStringT@DV?$StrTraitMFC_DLL@DV?$ChTraitsCRT@D@ATL@@@@@ATL@@QAE@ABV01@@Z

; 1181 : 	szTitle.Delete(0, szTitle.ReverseFind('\\') + 1);

  00236	6a 5c		 push	 92			; 0000005cH
  00238	8d 8d e0 fe ff
	ff		 lea	 ecx, DWORD PTR _szTitle$[ebp]
  0023e	c6 45 fc 09	 mov	 BYTE PTR __$EHRec$[ebp+8], 9
  00242	ff 15 00 00 00
	00		 call	 DWORD PTR __imp_?ReverseFind@?$CStringT@DV?$StrTraitMFC_DLL@DV?$ChTraitsCRT@D@ATL@@@@@ATL@@QBEHD@Z
  00248	40		 inc	 eax
  00249	8d 8d e0 fe ff
	ff		 lea	 ecx, DWORD PTR _szTitle$[ebp]
  0024f	50		 push	 eax
  00250	6a 00		 push	 0
  00252	ff 15 00 00 00
	00		 call	 DWORD PTR __imp_?Delete@?$CStringT@DV?$StrTraitMFC_DLL@DV?$ChTraitsCRT@D@ATL@@@@@ATL@@QAEHHH@Z

; 1182 : 	int nSTType = -1;
; 1183 : 	//@Solomon @->^ 
; 1184 : 	if((nSTType = szTitle.Find(gSTGubunKey)) != -1)

  00258	6a 00		 push	 0
  0025a	6a 5e		 push	 94			; 0000005eH
  0025c	8d 8d e0 fe ff
	ff		 lea	 ecx, DWORD PTR _szTitle$[ebp]
  00262	ff 15 00 00 00
	00		 call	 DWORD PTR __imp_?Find@?$CStringT@DV?$StrTraitMFC_DLL@DV?$ChTraitsCRT@D@ATL@@@@@ATL@@QBEHDH@Z
  00268	83 f8 ff	 cmp	 eax, -1
  0026b	74 31		 je	 SHORT $LN9@LoadST

; 1185 : 		szTitle = szTitle.Left(nSTType);

  0026d	50		 push	 eax
  0026e	8d 85 c8 fe ff
	ff		 lea	 eax, DWORD PTR $T2[ebp]
  00274	50		 push	 eax
  00275	8d 8d e0 fe ff
	ff		 lea	 ecx, DWORD PTR _szTitle$[ebp]
  0027b	ff 15 00 00 00
	00		 call	 DWORD PTR __imp_?Left@?$CStringT@DV?$StrTraitMFC_DLL@DV?$ChTraitsCRT@D@ATL@@@@@ATL@@QBE?AV12@H@Z
  00281	50		 push	 eax
  00282	8d 8d e0 fe ff
	ff		 lea	 ecx, DWORD PTR _szTitle$[ebp]
  00288	c6 45 fc 0a	 mov	 BYTE PTR __$EHRec$[ebp+8], 10 ; 0000000aH
  0028c	ff 15 00 00 00
	00		 call	 DWORD PTR __imp_??4?$CStringT@DV?$StrTraitMFC_DLL@DV?$ChTraitsCRT@D@ATL@@@@@ATL@@QAEAAV01@ABV01@@Z
  00292	8d 8d c8 fe ff
	ff		 lea	 ecx, DWORD PTR $T2[ebp]
  00298	ff 15 00 00 00
	00		 call	 DWORD PTR __imp_??1?$CStringT@DV?$StrTraitMFC_DLL@DV?$ChTraitsCRT@D@ATL@@@@@ATL@@QAE@XZ
$LN9@LoadST:

; 1186 : 
; 1187 : 	//      .
; 1188 : 	CString szText;

  0029e	8d 8d d4 fe ff
	ff		 lea	 ecx, DWORD PTR _szText$[ebp]
  002a4	ff 15 00 00 00
	00		 call	 DWORD PTR __imp_??0?$CStringT@DV?$StrTraitMFC_DLL@DV?$ChTraitsCRT@D@ATL@@@@@ATL@@QAE@XZ

; 1189 : 	m_editSTTitle.GetWindowText(szText);

  002aa	8d 85 d4 fe ff
	ff		 lea	 eax, DWORD PTR _szText$[ebp]
  002b0	c6 45 fc 0b	 mov	 BYTE PTR __$EHRec$[ebp+8], 11 ; 0000000bH
  002b4	50		 push	 eax
  002b5	8d 8e a8 00 00
	00		 lea	 ecx, DWORD PTR [esi+168]
  002bb	e8 00 00 00 00	 call	 ?GetWindowTextA@CWnd@@QBEXAAV?$CStringT@DV?$StrTraitMFC_DLL@DV?$ChTraitsCRT@D@ATL@@@@@ATL@@@Z ; CWnd::GetWindowTextA
; File C:\Program Files (x86)\Microsoft Visual Studio\2019\Community\VC\Tools\MSVC\14.29.30133\atlmfc\include\atlsimpstr.h

; 519  : 		return( GetData()->nDataLength );

  002c0	8b 85 d4 fe ff
	ff		 mov	 eax, DWORD PTR _szText$[ebp]

; 533  : 		return( GetLength() == 0 );

  002c6	83 78 f4 00	 cmp	 DWORD PTR [eax-12], 0
; File D:\git\src\IBK\IBK_DRFN\ProjSrc\SrcDrfn\Chart\HWSTRATEGYCONFIGUREWIZARD\DlgStrategyList.cpp

; 1190 : 	if(szText.IsEmpty())	szText = szTitle;

  002ca	0f 85 f9 02 00
	00		 jne	 $LN10@LoadST
  002d0	8d 85 e0 fe ff
	ff		 lea	 eax, DWORD PTR _szTitle$[ebp]
  002d6	50		 push	 eax
  002d7	8d 8d d4 fe ff
	ff		 lea	 ecx, DWORD PTR _szText$[ebp]
  002dd	ff 15 00 00 00
	00		 call	 DWORD PTR __imp_??4?$CStringT@DV?$StrTraitMFC_DLL@DV?$ChTraitsCRT@D@ATL@@@@@ATL@@QAEAAV01@ABV01@@Z
  002e3	e9 4c 03 00 00	 jmp	 $LN11@LoadST
  002e8	0f 1f 84 00 00
	00 00 00	 npad	 8
$LL148@LoadST:

; 1130 : 	CSDItemInfo * pSDItemInfo = NULL;
; 1131 : 	int nGridRow;
; 1132 : 	BOOL bResultOfAddRowData = FALSE;
; 1133 : 	for(int nIndex=0;nIndex<nIndexCount;nIndex++)

  002f0	8b 1d 00 00 00
	00		 mov	 ebx, DWORD PTR __imp__GetPrivateProfileStringA@24
$LN4@LoadST:

; 1134 : 	{
; 1135 : 		strKeyName.Format("%s%d",STRATEGYPOS,nIndex);

  002f6	57		 push	 edi
  002f7	68 00 00 00 00	 push	 OFFSET ??_C@_03FCCPIJGJ@Pos@
  002fc	8d 85 e8 fe ff
	ff		 lea	 eax, DWORD PTR _strKeyName$[ebp]
  00302	68 00 00 00 00	 push	 OFFSET ??_C@_04HGGBINEM@?$CFs?$CFd@
  00307	50		 push	 eax
  00308	ff 15 00 00 00
	00		 call	 DWORD PTR __imp_?Format@?$CStringT@DV?$StrTraitMFC_DLL@DV?$ChTraitsCRT@D@ATL@@@@@ATL@@QAAXPBDZZ
  0030e	83 c4 10	 add	 esp, 16			; 00000010H

; 1136 : 		::GetPrivateProfileString(STRATEGYLIST,strKeyName,"",szBuffer,sizeof(szBuffer),strSTPath);

  00311	8d 85 f0 fe ff
	ff		 lea	 eax, DWORD PTR _szBuffer$[ebp]
  00317	ff b5 e4 fe ff
	ff		 push	 DWORD PTR _strSTPath$[ebp]
  0031d	68 00 01 00 00	 push	 256			; 00000100H
  00322	50		 push	 eax
  00323	68 00 00 00 00	 push	 OFFSET ??_C@_00CNPNBAHC@@
  00328	ff b5 e8 fe ff
	ff		 push	 DWORD PTR _strKeyName$[ebp]
  0032e	68 00 00 00 00	 push	 OFFSET ??_C@_0N@GKFNKJGL@StrategyList@
  00333	ff d3		 call	 ebx

; 1137 : 		nSTPos = atol(szBuffer) + nCurSTListCount;

  00335	8d 85 f0 fe ff
	ff		 lea	 eax, DWORD PTR _szBuffer$[ebp]
  0033b	50		 push	 eax
  0033c	ff 15 00 00 00
	00		 call	 DWORD PTR __imp__atol

; 1138 : 
; 1139 : 		strKeyName.Format("%s%d",STRATEGYPOSNAME,nIndex);

  00342	57		 push	 edi
  00343	68 00 00 00 00	 push	 OFFSET ??_C@_07DGPCBOM@PosName@
  00348	8d 85 e8 fe ff
	ff		 lea	 eax, DWORD PTR _strKeyName$[ebp]
  0034e	68 00 00 00 00	 push	 OFFSET ??_C@_04HGGBINEM@?$CFs?$CFd@
  00353	50		 push	 eax
  00354	ff 15 00 00 00
	00		 call	 DWORD PTR __imp_?Format@?$CStringT@DV?$StrTraitMFC_DLL@DV?$ChTraitsCRT@D@ATL@@@@@ATL@@QAAXPBDZZ
  0035a	83 c4 14	 add	 esp, 20			; 00000014H

; 1140 : 		::GetPrivateProfileString(STRATEGYLIST,strKeyName,"",szBuffer,sizeof(szBuffer),strSTPath);

  0035d	8d 85 f0 fe ff
	ff		 lea	 eax, DWORD PTR _szBuffer$[ebp]
  00363	ff b5 e4 fe ff
	ff		 push	 DWORD PTR _strSTPath$[ebp]
  00369	68 00 01 00 00	 push	 256			; 00000100H
  0036e	50		 push	 eax
  0036f	68 00 00 00 00	 push	 OFFSET ??_C@_00CNPNBAHC@@
  00374	ff b5 e8 fe ff
	ff		 push	 DWORD PTR _strKeyName$[ebp]
  0037a	68 00 00 00 00	 push	 OFFSET ??_C@_0N@GKFNKJGL@StrategyList@
  0037f	ff d3		 call	 ebx

; 1141 : 		strSfgName = szBuffer;

  00381	8d 85 f0 fe ff
	ff		 lea	 eax, DWORD PTR _szBuffer$[ebp]
  00387	50		 push	 eax
  00388	8d 8d c4 fe ff
	ff		 lea	 ecx, DWORD PTR _strSfgName$[ebp]
  0038e	ff 15 00 00 00
	00		 call	 DWORD PTR __imp_??4?$CStringT@DV?$StrTraitMFC_DLL@DV?$ChTraitsCRT@D@ATL@@@@@ATL@@QAEAAV01@PBD@Z

; 1142 : 
; 1143 : 		strKeyName.Format("%s%d",STRATEGYPOSTYPE,nIndex);

  00394	57		 push	 edi
  00395	68 00 00 00 00	 push	 OFFSET ??_C@_07KIGMOBJM@PosType@
  0039a	8d 85 e8 fe ff
	ff		 lea	 eax, DWORD PTR _strKeyName$[ebp]
  003a0	68 00 00 00 00	 push	 OFFSET ??_C@_04HGGBINEM@?$CFs?$CFd@
  003a5	50		 push	 eax
  003a6	ff 15 00 00 00
	00		 call	 DWORD PTR __imp_?Format@?$CStringT@DV?$StrTraitMFC_DLL@DV?$ChTraitsCRT@D@ATL@@@@@ATL@@QAAXPBDZZ
  003ac	83 c4 10	 add	 esp, 16			; 00000010H

; 1144 : 		::GetPrivateProfileString(STRATEGYLIST,strKeyName,"",szBuffer,sizeof(szBuffer),strSTPath);

  003af	8d 85 f0 fe ff
	ff		 lea	 eax, DWORD PTR _szBuffer$[ebp]
  003b5	ff b5 e4 fe ff
	ff		 push	 DWORD PTR _strSTPath$[ebp]
  003bb	68 00 01 00 00	 push	 256			; 00000100H
  003c0	50		 push	 eax
  003c1	68 00 00 00 00	 push	 OFFSET ??_C@_00CNPNBAHC@@
  003c6	ff b5 e8 fe ff
	ff		 push	 DWORD PTR _strKeyName$[ebp]
  003cc	68 00 00 00 00	 push	 OFFSET ??_C@_0N@GKFNKJGL@StrategyList@
  003d1	ff d3		 call	 ebx

; 1145 : 		nType = atol(szBuffer);

  003d3	8d 85 f0 fe ff
	ff		 lea	 eax, DWORD PTR _szBuffer$[ebp]
  003d9	50		 push	 eax
  003da	ff 15 00 00 00
	00		 call	 DWORD PTR __imp__atol

; 1146 : 
; 1147 : 		strKeyName.Format("%s%d",STRATEGYPOSTEXT,nIndex);

  003e0	ff b5 ec fe ff
	ff		 push	 DWORD PTR _nIndex$1$[ebp]
  003e6	8b f8		 mov	 edi, eax
  003e8	8d 85 e8 fe ff
	ff		 lea	 eax, DWORD PTR _strKeyName$[ebp]
  003ee	68 00 00 00 00	 push	 OFFSET ??_C@_07OPGJHLBD@PosText@
  003f3	68 00 00 00 00	 push	 OFFSET ??_C@_04HGGBINEM@?$CFs?$CFd@
  003f8	50		 push	 eax
  003f9	ff 15 00 00 00
	00		 call	 DWORD PTR __imp_?Format@?$CStringT@DV?$StrTraitMFC_DLL@DV?$ChTraitsCRT@D@ATL@@@@@ATL@@QAAXPBDZZ
  003ff	83 c4 14	 add	 esp, 20			; 00000014H

; 1148 : 		::GetPrivateProfileString(STRATEGYLIST,strKeyName,"",szBuffer,sizeof(szBuffer),strSTPath);

  00402	8d 85 f0 fe ff
	ff		 lea	 eax, DWORD PTR _szBuffer$[ebp]
  00408	ff b5 e4 fe ff
	ff		 push	 DWORD PTR _strSTPath$[ebp]
  0040e	68 00 01 00 00	 push	 256			; 00000100H
  00413	50		 push	 eax
  00414	68 00 00 00 00	 push	 OFFSET ??_C@_00CNPNBAHC@@
  00419	ff b5 e8 fe ff
	ff		 push	 DWORD PTR _strKeyName$[ebp]
  0041f	68 00 00 00 00	 push	 OFFSET ??_C@_0N@GKFNKJGL@StrategyList@
  00424	ff d3		 call	 ebx

; 1149 : 		strGrid = szBuffer;

  00426	8d 85 f0 fe ff
	ff		 lea	 eax, DWORD PTR _szBuffer$[ebp]
  0042c	50		 push	 eax
  0042d	8d 8d d0 fe ff
	ff		 lea	 ecx, DWORD PTR _strGrid$[ebp]
  00433	ff 15 00 00 00
	00		 call	 DWORD PTR __imp_??4?$CStringT@DV?$StrTraitMFC_DLL@DV?$ChTraitsCRT@D@ATL@@@@@ATL@@QAEAAV01@PBD@Z

; 1150 : 
; 1151 : 		strKeyName.Format("%s%d",STRATEGYPOSTIME,nIndex);

  00439	ff b5 ec fe ff
	ff		 push	 DWORD PTR _nIndex$1$[ebp]
  0043f	8d 85 e8 fe ff
	ff		 lea	 eax, DWORD PTR _strKeyName$[ebp]
  00445	68 00 00 00 00	 push	 OFFSET ??_C@_07OMILIGCA@PosTime@
  0044a	68 00 00 00 00	 push	 OFFSET ??_C@_04HGGBINEM@?$CFs?$CFd@
  0044f	50		 push	 eax
  00450	ff 15 00 00 00
	00		 call	 DWORD PTR __imp_?Format@?$CStringT@DV?$StrTraitMFC_DLL@DV?$ChTraitsCRT@D@ATL@@@@@ATL@@QAAXPBDZZ
  00456	83 c4 10	 add	 esp, 16			; 00000010H

; 1152 : 		::GetPrivateProfileString(STRATEGYLIST,strKeyName,"",szBuffer,sizeof(szBuffer),strSTPath);

  00459	8d 85 f0 fe ff
	ff		 lea	 eax, DWORD PTR _szBuffer$[ebp]
  0045f	ff b5 e4 fe ff
	ff		 push	 DWORD PTR _strSTPath$[ebp]
  00465	68 00 01 00 00	 push	 256			; 00000100H
  0046a	50		 push	 eax
  0046b	68 00 00 00 00	 push	 OFFSET ??_C@_00CNPNBAHC@@
  00470	ff b5 e8 fe ff
	ff		 push	 DWORD PTR _strKeyName$[ebp]
  00476	68 00 00 00 00	 push	 OFFSET ??_C@_0N@GKFNKJGL@StrategyList@
  0047b	ff d3		 call	 ebx

; 1153 : 		strKeyData = szBuffer;

  0047d	8d 85 f0 fe ff
	ff		 lea	 eax, DWORD PTR _szBuffer$[ebp]
  00483	50		 push	 eax
  00484	8d 8d cc fe ff
	ff		 lea	 ecx, DWORD PTR _strKeyData$[ebp]
  0048a	ff 15 00 00 00
	00		 call	 DWORD PTR __imp_??4?$CStringT@DV?$StrTraitMFC_DLL@DV?$ChTraitsCRT@D@ATL@@@@@ATL@@QAEAAV01@PBD@Z

; 1154 : 		nGridRow = m_GridSTList.InsertRow("", -1);

  00490	6a ff		 push	 -1
  00492	68 00 00 00 00	 push	 OFFSET ??_C@_00CNPNBAHC@@
  00497	8d 8e d8 0f 00
	00		 lea	 ecx, DWORD PTR [esi+4056]
  0049d	e8 00 00 00 00	 call	 ?InsertRow@CGridCtrl@@QAEHPBDH@Z ; CGridCtrl::InsertRow

; 1155 : 
; 1156 : 		CString strIndex;

  004a2	8d 8d dc fe ff
	ff		 lea	 ecx, DWORD PTR _strIndex$6[ebp]
  004a8	8b d8		 mov	 ebx, eax
  004aa	ff 15 00 00 00
	00		 call	 DWORD PTR __imp_??0?$CStringT@DV?$StrTraitMFC_DLL@DV?$ChTraitsCRT@D@ATL@@@@@ATL@@QAE@XZ

; 1157 : 		strIndex.Format("%c",m_chLastIndex);

  004b0	0f be 8e 08 17
	00 00		 movsx	 ecx, BYTE PTR [esi+5896]
  004b7	8d 85 dc fe ff
	ff		 lea	 eax, DWORD PTR _strIndex$6[ebp]
  004bd	51		 push	 ecx
  004be	68 00 00 00 00	 push	 OFFSET ??_C@_02HAOIJKIC@?$CFc@
  004c3	50		 push	 eax
  004c4	c6 45 fc 08	 mov	 BYTE PTR __$EHRec$[ebp+8], 8
  004c8	ff 15 00 00 00
	00		 call	 DWORD PTR __imp_?Format@?$CStringT@DV?$StrTraitMFC_DLL@DV?$ChTraitsCRT@D@ATL@@@@@ATL@@QAAXPBDZZ
  004ce	83 c4 0c	 add	 esp, 12			; 0000000cH

; 1158 : 		m_GridSTList.SetItemText(nGridRow,COL_NO,strIndex);

  004d1	8d 8e d8 0f 00
	00		 lea	 ecx, DWORD PTR [esi+4056]
  004d7	ff b5 dc fe ff
	ff		 push	 DWORD PTR _strIndex$6[ebp]
  004dd	6a 00		 push	 0
  004df	53		 push	 ebx
  004e0	e8 00 00 00 00	 call	 ?SetItemText@CGridCtrl@@QAEHHHPBD@Z ; CGridCtrl::SetItemText

; 1159 : 		m_GridSTList.SetItemFormat(nGridRow,COL_NO,DT_CENTER);	

  004e5	6a 01		 push	 1
  004e7	6a 00		 push	 0
  004e9	53		 push	 ebx
  004ea	8d 8e d8 0f 00
	00		 lea	 ecx, DWORD PTR [esi+4056]
  004f0	e8 00 00 00 00	 call	 ?SetItemFormat@CGridCtrl@@QAEHHHI@Z ; CGridCtrl::SetItemFormat

; 1160 : 		m_ctrlLogic.AddElement(m_chLastIndex);

  004f5	0f b6 86 08 17
	00 00		 movzx	 eax, BYTE PTR [esi+5896]
  004fc	8d 8e 30 02 00
	00		 lea	 ecx, DWORD PTR [esi+560]
  00502	50		 push	 eax
  00503	e8 00 00 00 00	 call	 ?AddElement@CLogicEditCtrl@@QAEXD@Z ; CLogicEditCtrl::AddElement

; 1161 : 		m_chLastIndex++;
; 1162 : 
; 1163 : 		m_GridSTList.SetItemText(nGridRow,COL_TITLE, strGrid);

  00508	ff b5 d0 fe ff
	ff		 push	 DWORD PTR _strGrid$[ebp]
  0050e	fe 86 08 17 00
	00		 inc	 BYTE PTR [esi+5896]
  00514	8d 8e d8 0f 00
	00		 lea	 ecx, DWORD PTR [esi+4056]
  0051a	6a 01		 push	 1
  0051c	53		 push	 ebx
  0051d	e8 00 00 00 00	 call	 ?SetItemText@CGridCtrl@@QAEHHHPBD@Z ; CGridCtrl::SetItemText

; 1164 : 	
; 1165 : 		m_GridSTList.SetItemText(nGridRow,COL_TIME,	strKeyData);

  00522	ff b5 cc fe ff
	ff		 push	 DWORD PTR _strKeyData$[ebp]
  00528	8d 8e d8 0f 00
	00		 lea	 ecx, DWORD PTR [esi+4056]
  0052e	6a 02		 push	 2
  00530	53		 push	 ebx
  00531	e8 00 00 00 00	 call	 ?SetItemText@CGridCtrl@@QAEHHHPBD@Z ; CGridCtrl::SetItemText

; 1166 : 		m_GridSTList.SetItemFormat(nGridRow,COL_TIME,DT_CENTER);

  00536	6a 01		 push	 1
  00538	6a 02		 push	 2
  0053a	53		 push	 ebx
  0053b	8d 8e d8 0f 00
	00		 lea	 ecx, DWORD PTR [esi+4056]
  00541	e8 00 00 00 00	 call	 ?SetItemFormat@CGridCtrl@@QAEHHHI@Z ; CGridCtrl::SetItemFormat

; 1167 : 
; 1168 : 		m_GridSTList.SetItemText(nGridRow,COL_EDIT,"");

  00546	68 00 00 00 00	 push	 OFFSET ??_C@_04EKOCOPPL@?F?m?A?$PN@
  0054b	6a 03		 push	 3
  0054d	53		 push	 ebx
  0054e	8d 8e d8 0f 00
	00		 lea	 ecx, DWORD PTR [esi+4056]
  00554	e8 00 00 00 00	 call	 ?SetItemText@CGridCtrl@@QAEHHHPBD@Z ; CGridCtrl::SetItemText

; 1169 : 		m_GridSTList.SetItemFormat(nGridRow,COL_EDIT,DT_CENTER);

  00559	6a 01		 push	 1
  0055b	6a 03		 push	 3
  0055d	53		 push	 ebx
  0055e	8d 8e d8 0f 00
	00		 lea	 ecx, DWORD PTR [esi+4056]
  00564	e8 00 00 00 00	 call	 ?SetItemFormat@CGridCtrl@@QAEHHHI@Z ; CGridCtrl::SetItemFormat

; 1170 : 
; 1171 : 		m_GridSTList.SetItemText(nGridRow,COL_DELETE,"X");

  00569	68 00 00 00 00	 push	 OFFSET ??_C@_01MMEEDKFM@X@
  0056e	6a 04		 push	 4
  00570	53		 push	 ebx
  00571	8d 8e d8 0f 00
	00		 lea	 ecx, DWORD PTR [esi+4056]
  00577	e8 00 00 00 00	 call	 ?SetItemText@CGridCtrl@@QAEHHHPBD@Z ; CGridCtrl::SetItemText

; 1172 : 		m_GridSTList.SetItemFormat(nGridRow,COL_DELETE,DT_CENTER);

  0057c	6a 01		 push	 1
  0057e	6a 04		 push	 4
  00580	53		 push	 ebx
  00581	8d 8e d8 0f 00
	00		 lea	 ecx, DWORD PTR [esi+4056]
  00587	e8 00 00 00 00	 call	 ?SetItemFormat@CGridCtrl@@QAEHHHI@Z ; CGridCtrl::SetItemFormat

; 1173 : 
; 1174 : 		m_GridSTList.SetItemData(nGridRow,COL_INFOPOINTER,(long)nType);

  0058c	57		 push	 edi
  0058d	6a 01		 push	 1
  0058f	53		 push	 ebx
  00590	8d 8e d8 0f 00
	00		 lea	 ecx, DWORD PTR [esi+4056]
  00596	e8 00 00 00 00	 call	 ?SetItemData@CGridCtrl@@QAEHHHJ@Z ; CGridCtrl::SetItemData

; 1175 : 	}

  0059b	8d 8d dc fe ff
	ff		 lea	 ecx, DWORD PTR _strIndex$6[ebp]
  005a1	c6 45 fc 07	 mov	 BYTE PTR __$EHRec$[ebp+8], 7
  005a5	ff 15 00 00 00
	00		 call	 DWORD PTR __imp_??1?$CStringT@DV?$StrTraitMFC_DLL@DV?$ChTraitsCRT@D@ATL@@@@@ATL@@QAE@XZ
  005ab	8b bd ec fe ff
	ff		 mov	 edi, DWORD PTR _nIndex$1$[ebp]
  005b1	47		 inc	 edi
  005b2	89 bd ec fe ff
	ff		 mov	 DWORD PTR _nIndex$1$[ebp], edi
  005b8	3b bd d8 fe ff
	ff		 cmp	 edi, DWORD PTR _nIndexCount$1$[ebp]
  005be	0f 8c 2c fd ff
	ff		 jl	 $LL148@LoadST

; 1130 : 	CSDItemInfo * pSDItemInfo = NULL;
; 1131 : 	int nGridRow;
; 1132 : 	BOOL bResultOfAddRowData = FALSE;
; 1133 : 	for(int nIndex=0;nIndex<nIndexCount;nIndex++)

  005c4	e9 1e fc ff ff	 jmp	 $LN144@LoadST
$LN10@LoadST:
; File C:\Program Files (x86)\Microsoft Visual Studio\2019\Community\VC\Tools\MSVC\14.29.30133\atlmfc\include\cstringt.h

; 2412 : 		CStringT strResult( str2.GetManager() );

  005c9	8d 8d e0 fe ff
	ff		 lea	 ecx, DWORD PTR _szTitle$[ebp]
; File D:\git\src\IBK\IBK_DRFN\ProjSrc\SrcDrfn\Chart\HWSTRATEGYCONFIGUREWIZARD\DlgStrategyList.cpp

; 1191 : 	else							szText += "," + szTitle;

  005cf	c6 45 fc 0c	 mov	 BYTE PTR __$EHRec$[ebp+8], 12 ; 0000000cH
; File C:\Program Files (x86)\Microsoft Visual Studio\2019\Community\VC\Tools\MSVC\14.29.30133\atlmfc\include\cstringt.h

; 2412 : 		CStringT strResult( str2.GetManager() );

  005d3	ff 15 00 00 00
	00		 call	 DWORD PTR __imp_?GetManager@?$CStringT@DV?$StrTraitMFC_DLL@DV?$ChTraitsCRT@D@ATL@@@@@ATL@@QBEPAUIAtlStringMgr@2@XZ
  005d9	50		 push	 eax
  005da	8d 8d dc fe ff
	ff		 lea	 ecx, DWORD PTR $T5[ebp]
  005e0	ff 15 00 00 00
	00		 call	 DWORD PTR __imp_??0?$CStringT@DV?$StrTraitMFC_DLL@DV?$ChTraitsCRT@D@ATL@@@@@ATL@@QAE@PAUIAtlStringMgr@1@@Z
; File C:\Program Files (x86)\Microsoft Visual Studio\2019\Community\VC\Tools\MSVC\14.29.30133\atlmfc\include\atlsimpstr.h

; 519  : 		return( GetData()->nDataLength );

  005e6	8b 85 e0 fe ff
	ff		 mov	 eax, DWORD PTR _szTitle$[ebp]
; File C:\Program Files (x86)\Microsoft Visual Studio\2019\Community\VC\Tools\MSVC\14.29.30133\atlmfc\include\cstringt.h

; 2416 : 		return( strResult );

  005ec	c7 85 d8 fe ff
	ff 01 00 00 00	 mov	 DWORD PTR $T4[ebp], 1
  005f6	ff 70 f4	 push	 DWORD PTR [eax-12]
  005f9	50		 push	 eax
  005fa	6a 01		 push	 1
  005fc	8d 85 dc fe ff
	ff		 lea	 eax, DWORD PTR $T5[ebp]
  00602	68 00 00 00 00	 push	 OFFSET ??_C@_01IHBHIGKO@?0@
  00607	50		 push	 eax
  00608	ff 15 00 00 00
	00		 call	 DWORD PTR __imp_?Concatenate@?$CSimpleStringT@D$00@ATL@@KAXAAV12@PBDH1H@Z
  0060e	83 c4 14	 add	 esp, 20			; 00000014H
; File D:\git\src\IBK\IBK_DRFN\ProjSrc\SrcDrfn\Chart\HWSTRATEGYCONFIGUREWIZARD\DlgStrategyList.cpp

; 1191 : 	else							szText += "," + szTitle;

  00611	8d 85 dc fe ff
	ff		 lea	 eax, DWORD PTR $T5[ebp]
  00617	8d 8d d4 fe ff
	ff		 lea	 ecx, DWORD PTR _szText$[ebp]
  0061d	50		 push	 eax
  0061e	ff 15 00 00 00
	00		 call	 DWORD PTR __imp_??Y?$CStringT@DV?$StrTraitMFC_DLL@DV?$ChTraitsCRT@D@ATL@@@@@ATL@@QAEAAV01@ABV?$CSimpleStringT@D$00@1@@Z
  00624	8d 8d dc fe ff
	ff		 lea	 ecx, DWORD PTR $T5[ebp]
  0062a	c6 45 fc 0b	 mov	 BYTE PTR __$EHRec$[ebp+8], 11 ; 0000000bH
  0062e	ff 15 00 00 00
	00		 call	 DWORD PTR __imp_??1?$CStringT@DV?$StrTraitMFC_DLL@DV?$ChTraitsCRT@D@ATL@@@@@ATL@@QAE@XZ
$LN11@LoadST:

; 1192 : 
; 1193 : 	m_editSTTitle.SetWindowText(szText);

  00634	ff b5 d4 fe ff
	ff		 push	 DWORD PTR _szText$[ebp]
  0063a	8d 8e a8 00 00
	00		 lea	 ecx, DWORD PTR [esi+168]
  00640	e8 00 00 00 00	 call	 ?SetWindowTextA@CWnd@@QAEXPBD@Z ; CWnd::SetWindowTextA

; 1194 : 	if(nCurSTListCount==0)

  00645	8b bd bc fe ff
	ff		 mov	 edi, DWORD PTR _nCurSTListCount$1$[ebp]
  0064b	85 ff		 test	 edi, edi
  0064d	75 3d		 jne	 SHORT $LN12@LoadST

; 1195 : 	{
; 1196 : 		m_szSTFilePath = strSTPath;		//      

  0064f	8d 85 e4 fe ff
	ff		 lea	 eax, DWORD PTR _strSTPath$[ebp]
  00655	50		 push	 eax
  00656	8d 8e cc 0f 00
	00		 lea	 ecx, DWORD PTR [esi+4044]
  0065c	ff 15 00 00 00
	00		 call	 DWORD PTR __imp_??4?$CStringT@DV?$StrTraitMFC_DLL@DV?$ChTraitsCRT@D@ATL@@@@@ATL@@QAEAAV01@ABV01@@Z

; 1197 : 		GetDlgItem(IDC_BTN_STRUN)->EnableWindow(TRUE);

  00662	6a 01		 push	 1
  00664	68 f6 03 00 00	 push	 1014			; 000003f6H
  00669	8b ce		 mov	 ecx, esi
  0066b	e8 00 00 00 00	 call	 ?GetDlgItem@CWnd@@QBEPAV1@H@Z ; CWnd::GetDlgItem
  00670	8b c8		 mov	 ecx, eax
  00672	e8 00 00 00 00	 call	 ?EnableWindow@CWnd@@QAEHH@Z ; CWnd::EnableWindow

; 1198 : 		GetDlgItem(IDC_BTN_STDELETE)->EnableWindow(TRUE);

  00677	6a 01		 push	 1
  00679	68 86 69 00 00	 push	 27014			; 00006986H
  0067e	8b ce		 mov	 ecx, esi
  00680	e8 00 00 00 00	 call	 ?GetDlgItem@CWnd@@QBEPAV1@H@Z ; CWnd::GetDlgItem
  00685	8b c8		 mov	 ecx, eax
  00687	e8 00 00 00 00	 call	 ?EnableWindow@CWnd@@QAEHH@Z ; CWnd::EnableWindow
$LN12@LoadST:

; 1199 : 	}
; 1200 : 	GetDlgItem(IDC_BTN_STDELETE)->EnableWindow(nCurSTListCount!=1);

  0068c	33 c0		 xor	 eax, eax
  0068e	8b ce		 mov	 ecx, esi
  00690	83 ff 01	 cmp	 edi, 1
  00693	0f 95 c0	 setne	 al
  00696	50		 push	 eax
  00697	68 86 69 00 00	 push	 27014			; 00006986H
  0069c	e8 00 00 00 00	 call	 ?GetDlgItem@CWnd@@QBEPAV1@H@Z ; CWnd::GetDlgItem
  006a1	8b c8		 mov	 ecx, eax
  006a3	e8 00 00 00 00	 call	 ?EnableWindow@CWnd@@QAEHH@Z ; CWnd::EnableWindow

; 737  : 	if(nRow<=0) return;

  006a8	85 db		 test	 ebx, ebx
  006aa	7e 38		 jle	 SHORT $LN145@LoadST

; 738  : 	if(nCol==COL_DELETE)
; 739  : 	{
; 740  : 		m_GridSTList.SetSelectedRange(nRow,0,nRow,MAX_COL-1);
; 741  : 		//CSDItemInfo * pSDItemInfo = (CSDItemInfo *)m_GridSTList.GetItemData(nRow,COL_INFOPOINTER);
; 742  : 		//if(!pSDItemInfo) return;
; 743  : 		//
; 744  : 		//pSDItemInfo->GetpISTControllerD()->DeleteConfig();
; 745  : 		//delete pSDItemInfo;
; 746  : 
; 747  : 		CString strIndex = m_GridSTList.GetItemText(nRow,COL_NO);
; 748  : 		m_GridSTList.DeleteRow(nRow);
; 749  : 
; 750  : 		m_ctrlLogic.DeleteElement(strIndex[0]);
; 751  : 
; 752  : 		//   
; 753  : 		SetDlgItemText(IDC_EDIT_STNAME, "");
; 754  : 		m_InputList.DeleteAllItems();
; 755  : 
; 756  : 		ResizeAll();
; 757  : 	}
; 758  : 	else if(nCol==COL_TIME)
; 759  : 	{
; 760  : 		CSDItemInfo * pSDItemInfo = (CSDItemInfo *)m_GridSTList.GetItemData(nRow,COL_INFOPOINTER);
; 761  : 		CString strTimeFromGrid = m_GridSTList.GetItemText(nRow,COL_TIME);
; 762  : 		CString strTimeType = strTimeFromGrid.Right(2);
; 763  : 		CString strTimeNum;
; 764  : 		int nLength = strTimeFromGrid.GetLength();
; 765  : 		if(nLength>2)
; 766  : 			strTimeNum = strTimeFromGrid.Left(nLength-2);
; 767  : 
; 768  : 		m_dlgTimeSelector.m_lRow = nRow;
; 769  : 		if(strTimeType=="")
; 770  : 			m_dlgTimeSelector.m_nOption = 0;
; 771  : 		else if(strTimeType=="")
; 772  : 		{
; 773  : 			m_dlgTimeSelector.m_nOption = 1;
; 774  : 			m_dlgTimeSelector.m_nMinute = atoi(strTimeNum);
; 775  : 		}
; 776  : 		else if(strTimeType=="")
; 777  : 		{
; 778  : 			m_dlgTimeSelector.m_nOption = 2;
; 779  : 			m_dlgTimeSelector.m_nTick = atoi(strTimeNum);
; 780  : 		}
; 781  : 
; 782  : 		CRect rect;
; 783  : 		m_GridSTList.GetCellRect(nRow,nCol,rect);
; 784  : 		ClientToScreen(rect);
; 785  : 		m_dlgTimeSelector.UpdateData(FALSE);
; 786  : 		m_dlgTimeSelector.SetWindowPos(NULL,rect.right,rect.bottom + rect.Height()*2,0,0,SWP_NOSIZE|SWP_SHOWWINDOW);
; 787  : 	}
; 788  : 	else if(nCol==COL_EDIT)
; 789  : 	{
; 790  : 		//CSDItemInfo * pSDItemInfo = (CSDItemInfo *)m_GridSTList.GetItemData(nRow,COL_INFOPOINTER);
; 791  : 		//CString szScriptName = pSDItemInfo->m_strName + ".sts";
; 792  : 	
; 793  : 		CString szTitle = m_GridSTList.GetItemText(nRow,COL_TITLE);
; 794  : 		int nEndPos = szTitle.Find('(');
; 795  : 		szTitle = szTitle.Left(nEndPos);
; 796  : 		CString szScriptName = szTitle + ".sts";
; 797  : 		((CDlgStrategyConfigure*)GetParent())->LoadEditor(szScriptName);
; 798  : 	}
; 799  : 	else
; 800  : 	{
; 801  : 		// CSDItemInfo * pSDItemInfo = (CSDItemInfo *)m_GridSTList.GetItemData(nRow,COL_INFOPOINTER);
; 802  : 		// after Changing Happened In SetConfig , called OnUpdateSTSfg..
; 803  : 		// m_lRowEditing = nRow;
; 804  : 		// pSDItemInfo->GetpISTControllerD()->SetConfigOnWizard(&m_rcSTOption);
; 805  : 		//    .
; 806  : 		// @2006.10.10
; 807  : 		CString szTitle = m_GridSTList.GetItemText(nRow,COL_TITLE);

  006ac	6a 01		 push	 1
  006ae	53		 push	 ebx
  006af	8d 85 d8 fe ff
	ff		 lea	 eax, DWORD PTR _szTitle$3[ebp]
  006b5	50		 push	 eax
  006b6	8d 8e d8 0f 00
	00		 lea	 ecx, DWORD PTR [esi+4056]
  006bc	e8 00 00 00 00	 call	 ?GetItemText@CGridCtrl@@QBE?AV?$CStringT@DV?$StrTraitMFC_DLL@DV?$ChTraitsCRT@D@ATL@@@@@ATL@@HH@Z ; CGridCtrl::GetItemText

; 808  : 		InputModify(nRow, szTitle);

  006c1	8d 85 d8 fe ff
	ff		 lea	 eax, DWORD PTR _szTitle$3[ebp]
  006c7	c6 45 fc 16	 mov	 BYTE PTR __$EHRec$[ebp+8], 22 ; 00000016H
  006cb	50		 push	 eax
  006cc	53		 push	 ebx
  006cd	8b ce		 mov	 ecx, esi
  006cf	e8 00 00 00 00	 call	 ?InputModify@CDlgStrategyList@@IAEXHAAV?$CStringT@DV?$StrTraitMFC_DLL@DV?$ChTraitsCRT@D@ATL@@@@@ATL@@@Z ; CDlgStrategyList::InputModify

; 809  : 	}

  006d4	8d 8d d8 fe ff
	ff		 lea	 ecx, DWORD PTR _szTitle$3[ebp]
  006da	c6 45 fc 0b	 mov	 BYTE PTR __$EHRec$[ebp+8], 11 ; 0000000bH
  006de	ff 15 00 00 00
	00		 call	 DWORD PTR __imp_??1?$CStringT@DV?$StrTraitMFC_DLL@DV?$ChTraitsCRT@D@ATL@@@@@ATL@@QAE@XZ
$LN145@LoadST:

; 1201 : 
; 1202 : 	//   Selecting
; 1203 : 	OnClickGridSTList(nGridRow, 1);
; 1204 : 	m_GridSTList.SetSelectedRange(nGridRow,0,nGridRow,4);

  006e4	6a 01		 push	 1
  006e6	6a 00		 push	 0
  006e8	6a 04		 push	 4
  006ea	53		 push	 ebx
  006eb	6a 00		 push	 0
  006ed	53		 push	 ebx
  006ee	8d 8e d8 0f 00
	00		 lea	 ecx, DWORD PTR [esi+4056]
  006f4	e8 00 00 00 00	 call	 ?SetSelectedRange@CGridCtrl@@QAEXHHHHHH@Z ; CGridCtrl::SetSelectedRange

; 1205 : 
; 1206 : 
; 1207 : 	ResizeAll();

  006f9	8b ce		 mov	 ecx, esi
  006fb	e8 00 00 00 00	 call	 ?ResizeAll@CDlgStrategyList@@QAEXXZ ; CDlgStrategyList::ResizeAll

; 1208 : }

  00700	8d 8d d4 fe ff
	ff		 lea	 ecx, DWORD PTR _szText$[ebp]
  00706	ff 15 00 00 00
	00		 call	 DWORD PTR __imp_??1?$CStringT@DV?$StrTraitMFC_DLL@DV?$ChTraitsCRT@D@ATL@@@@@ATL@@QAE@XZ
  0070c	8d 8d e0 fe ff
	ff		 lea	 ecx, DWORD PTR _szTitle$[ebp]
  00712	ff 15 00 00 00
	00		 call	 DWORD PTR __imp_??1?$CStringT@DV?$StrTraitMFC_DLL@DV?$ChTraitsCRT@D@ATL@@@@@ATL@@QAE@XZ
  00718	8d 8d c4 fe ff
	ff		 lea	 ecx, DWORD PTR _strSfgName$[ebp]
  0071e	ff 15 00 00 00
	00		 call	 DWORD PTR __imp_??1?$CStringT@DV?$StrTraitMFC_DLL@DV?$ChTraitsCRT@D@ATL@@@@@ATL@@QAE@XZ
  00724	8d 8d d0 fe ff
	ff		 lea	 ecx, DWORD PTR _strGrid$[ebp]
  0072a	ff 15 00 00 00
	00		 call	 DWORD PTR __imp_??1?$CStringT@DV?$StrTraitMFC_DLL@DV?$ChTraitsCRT@D@ATL@@@@@ATL@@QAE@XZ
  00730	8d 8d cc fe ff
	ff		 lea	 ecx, DWORD PTR _strKeyData$[ebp]
  00736	ff 15 00 00 00
	00		 call	 DWORD PTR __imp_??1?$CStringT@DV?$StrTraitMFC_DLL@DV?$ChTraitsCRT@D@ATL@@@@@ATL@@QAE@XZ
  0073c	8d 8d e8 fe ff
	ff		 lea	 ecx, DWORD PTR _strKeyName$[ebp]
$LN151@LoadST:
  00742	ff 15 00 00 00
	00		 call	 DWORD PTR __imp_??1?$CStringT@DV?$StrTraitMFC_DLL@DV?$ChTraitsCRT@D@ATL@@@@@ATL@@QAE@XZ
  00748	8d 8d e4 fe ff
	ff		 lea	 ecx, DWORD PTR _strSTPath$[ebp]
  0074e	ff 15 00 00 00
	00		 call	 DWORD PTR __imp_??1?$CStringT@DV?$StrTraitMFC_DLL@DV?$ChTraitsCRT@D@ATL@@@@@ATL@@QAE@XZ
  00754	8d 8d c0 fe ff
	ff		 lea	 ecx, DWORD PTR _strMessage$[ebp]
$LN150@LoadST:
  0075a	ff 15 00 00 00
	00		 call	 DWORD PTR __imp_??1?$CStringT@DV?$StrTraitMFC_DLL@DV?$ChTraitsCRT@D@ATL@@@@@ATL@@QAE@XZ
  00760	8b 4d f4	 mov	 ecx, DWORD PTR __$EHRec$[ebp]
  00763	64 89 0d 00 00
	00 00		 mov	 DWORD PTR fs:0, ecx
  0076a	59		 pop	 ecx
  0076b	5f		 pop	 edi
  0076c	5e		 pop	 esi
  0076d	5b		 pop	 ebx
  0076e	8b 4d f0	 mov	 ecx, DWORD PTR __$ArrayPad$[ebp]
  00771	33 cd		 xor	 ecx, ebp
  00773	e8 00 00 00 00	 call	 @__security_check_cookie@4
  00778	8b e5		 mov	 esp, ebp
  0077a	5d		 pop	 ebp
  0077b	c2 04 00	 ret	 4
_TEXT	ENDS
;	COMDAT text$x
text$x	SEGMENT
__unwindfunclet$?LoadST@CDlgStrategyList@@IAEXJ@Z$0:
  00000	8d 8d ec fe ff
	ff		 lea	 ecx, DWORD PTR _szMsg$8[ebp]
  00006	ff 25 00 00 00
	00		 jmp	 DWORD PTR __imp_??1?$CStringT@DV?$StrTraitMFC_DLL@DV?$ChTraitsCRT@D@ATL@@@@@ATL@@QAE@XZ
__unwindfunclet$?LoadST@CDlgStrategyList@@IAEXJ@Z$1:
  0000c	8d 8d c0 fe ff
	ff		 lea	 ecx, DWORD PTR _strMessage$[ebp]
  00012	ff 25 00 00 00
	00		 jmp	 DWORD PTR __imp_??1?$CStringT@DV?$StrTraitMFC_DLL@DV?$ChTraitsCRT@D@ATL@@@@@ATL@@QAE@XZ
__unwindfunclet$?LoadST@CDlgStrategyList@@IAEXJ@Z$2:
  00018	8d 8d e4 fe ff
	ff		 lea	 ecx, DWORD PTR _strSTPath$[ebp]
  0001e	ff 25 00 00 00
	00		 jmp	 DWORD PTR __imp_??1?$CStringT@DV?$StrTraitMFC_DLL@DV?$ChTraitsCRT@D@ATL@@@@@ATL@@QAE@XZ
__unwindfunclet$?LoadST@CDlgStrategyList@@IAEXJ@Z$3:
  00024	8d 8d ec fe ff
	ff		 lea	 ecx, DWORD PTR _szMsg$7[ebp]
  0002a	ff 25 00 00 00
	00		 jmp	 DWORD PTR __imp_??1?$CStringT@DV?$StrTraitMFC_DLL@DV?$ChTraitsCRT@D@ATL@@@@@ATL@@QAE@XZ
__unwindfunclet$?LoadST@CDlgStrategyList@@IAEXJ@Z$4:
  00030	8d 8d e8 fe ff
	ff		 lea	 ecx, DWORD PTR _strKeyName$[ebp]
  00036	ff 25 00 00 00
	00		 jmp	 DWORD PTR __imp_??1?$CStringT@DV?$StrTraitMFC_DLL@DV?$ChTraitsCRT@D@ATL@@@@@ATL@@QAE@XZ
__unwindfunclet$?LoadST@CDlgStrategyList@@IAEXJ@Z$5:
  0003c	8d 8d cc fe ff
	ff		 lea	 ecx, DWORD PTR _strKeyData$[ebp]
  00042	ff 25 00 00 00
	00		 jmp	 DWORD PTR __imp_??1?$CStringT@DV?$StrTraitMFC_DLL@DV?$ChTraitsCRT@D@ATL@@@@@ATL@@QAE@XZ
__unwindfunclet$?LoadST@CDlgStrategyList@@IAEXJ@Z$6:
  00048	8d 8d d0 fe ff
	ff		 lea	 ecx, DWORD PTR _strGrid$[ebp]
  0004e	ff 25 00 00 00
	00		 jmp	 DWORD PTR __imp_??1?$CStringT@DV?$StrTraitMFC_DLL@DV?$ChTraitsCRT@D@ATL@@@@@ATL@@QAE@XZ
__unwindfunclet$?LoadST@CDlgStrategyList@@IAEXJ@Z$7:
  00054	8d 8d c4 fe ff
	ff		 lea	 ecx, DWORD PTR _strSfgName$[ebp]
  0005a	ff 25 00 00 00
	00		 jmp	 DWORD PTR __imp_??1?$CStringT@DV?$StrTraitMFC_DLL@DV?$ChTraitsCRT@D@ATL@@@@@ATL@@QAE@XZ
__unwindfunclet$?LoadST@CDlgStrategyList@@IAEXJ@Z$9:
  00060	8d 8d e0 fe ff
	ff		 lea	 ecx, DWORD PTR _szTitle$[ebp]
  00066	ff 25 00 00 00
	00		 jmp	 DWORD PTR __imp_??1?$CStringT@DV?$StrTraitMFC_DLL@DV?$ChTraitsCRT@D@ATL@@@@@ATL@@QAE@XZ
__unwindfunclet$?LoadST@CDlgStrategyList@@IAEXJ@Z$10:
  0006c	8d 8d c8 fe ff
	ff		 lea	 ecx, DWORD PTR $T2[ebp]
  00072	ff 25 00 00 00
	00		 jmp	 DWORD PTR __imp_??1?$CStringT@DV?$StrTraitMFC_DLL@DV?$ChTraitsCRT@D@ATL@@@@@ATL@@QAE@XZ
__unwindfunclet$?LoadST@CDlgStrategyList@@IAEXJ@Z$11:
  00078	8d 8d d4 fe ff
	ff		 lea	 ecx, DWORD PTR _szText$[ebp]
  0007e	ff 25 00 00 00
	00		 jmp	 DWORD PTR __imp_??1?$CStringT@DV?$StrTraitMFC_DLL@DV?$ChTraitsCRT@D@ATL@@@@@ATL@@QAE@XZ
__unwindfunclet$?LoadST@CDlgStrategyList@@IAEXJ@Z$8:
  00084	8d 8d dc fe ff
	ff		 lea	 ecx, DWORD PTR _strIndex$6[ebp]
  0008a	ff 25 00 00 00
	00		 jmp	 DWORD PTR __imp_??1?$CStringT@DV?$StrTraitMFC_DLL@DV?$ChTraitsCRT@D@ATL@@@@@ATL@@QAE@XZ
__unwindfunclet$?LoadST@CDlgStrategyList@@IAEXJ@Z$13:
  00090	8b 85 d8 fe ff
	ff		 mov	 eax, DWORD PTR $T4[ebp]
  00096	83 e0 01	 and	 eax, 1
  00099	0f 84 13 00 00
	00		 je	 $LN71@LoadST
  0009f	83 a5 d8 fe ff
	ff fe		 and	 DWORD PTR $T4[ebp], -2	; fffffffeH
  000a6	8d 8d dc fe ff
	ff		 lea	 ecx, DWORD PTR $T5[ebp]
  000ac	ff 25 00 00 00
	00		 jmp	 DWORD PTR __imp_??1?$CStringT@DV?$StrTraitMFC_DLL@DV?$ChTraitsCRT@D@ATL@@@@@ATL@@QAE@XZ
$LN71@LoadST:
  000b2	c3		 ret	 0
__unwindfunclet$?LoadST@CDlgStrategyList@@IAEXJ@Z$23:
  000b3	8d 8d d8 fe ff
	ff		 lea	 ecx, DWORD PTR _szTitle$3[ebp]
  000b9	ff 25 00 00 00
	00		 jmp	 DWORD PTR __imp_??1?$CStringT@DV?$StrTraitMFC_DLL@DV?$ChTraitsCRT@D@ATL@@@@@ATL@@QAE@XZ
  000bf	cc		 int	 3
  000c0	cc		 int	 3
  000c1	cc		 int	 3
  000c2	cc		 int	 3
  000c3	cc		 int	 3
__ehhandler$?LoadST@CDlgStrategyList@@IAEXJ@Z:
  000c4	90		 npad	 1
  000c5	90		 npad	 1
  000c6	8b 54 24 08	 mov	 edx, DWORD PTR [esp+8]
  000ca	8d 42 0c	 lea	 eax, DWORD PTR [edx+12]
  000cd	8b 8a b8 fe ff
	ff		 mov	 ecx, DWORD PTR [edx-328]
  000d3	33 c8		 xor	 ecx, eax
  000d5	e8 00 00 00 00	 call	 @__security_check_cookie@4
  000da	8b 4a fc	 mov	 ecx, DWORD PTR [edx-4]
  000dd	33 c8		 xor	 ecx, eax
  000df	e8 00 00 00 00	 call	 @__security_check_cookie@4
  000e4	b8 00 00 00 00	 mov	 eax, OFFSET __ehfuncinfo$?LoadST@CDlgStrategyList@@IAEXJ@Z
  000e9	e9 00 00 00 00	 jmp	 ___CxxFrameHandler3
text$x	ENDS
?LoadST@CDlgStrategyList@@IAEXJ@Z ENDP			; CDlgStrategyList::LoadST
; Function compile flags: /Ogtp
; File D:\git\src\IBK\IBK_DRFN\ProjSrc\SrcDrfn\Chart\HWSTRATEGYCONFIGUREWIZARD\DlgStrategyList.cpp
; File C:\Program Files (x86)\Microsoft Visual Studio\2019\Community\VC\Tools\MSVC\14.29.30133\atlmfc\include\cstringt.h
; File D:\git\src\IBK\IBK_DRFN\ProjSrc\SrcDrfn\Chart\HWSTRATEGYCONFIGUREWIZARD\DlgStrategyList.cpp
; File C:\Program Files (x86)\Microsoft Visual Studio\2019\Community\VC\Tools\MSVC\14.29.30133\atlmfc\include\cstringt.h
; File C:\Program Files (x86)\Microsoft Visual Studio\2019\Community\VC\Tools\MSVC\14.29.30133\atlmfc\include\atlsimpstr.h
; File C:\Program Files (x86)\Microsoft Visual Studio\2019\Community\VC\Tools\MSVC\14.29.30133\atlmfc\include\cstringt.h
; File D:\git\src\IBK\IBK_DRFN\ProjSrc\SrcDrfn\Chart\HWSTRATEGYCONFIGUREWIZARD\DlgStrategyList.cpp
; File C:\Program Files (x86)\Microsoft Visual Studio\2019\Community\VC\Tools\MSVC\14.29.30133\atlmfc\include\cstringt.h
; File D:\git\src\IBK\IBK_DRFN\ProjSrc\SrcDrfn\Chart\HWSTRATEGYCONFIGUREWIZARD\DlgStrategyList.cpp
; File C:\Program Files (x86)\Microsoft Visual Studio\2019\Community\VC\Tools\MSVC\14.29.30133\atlmfc\include\cstringt.h
; File C:\Program Files (x86)\Microsoft Visual Studio\2019\Community\VC\Tools\MSVC\14.29.30133\atlmfc\include\atlsimpstr.h
; File C:\Program Files (x86)\Microsoft Visual Studio\2019\Community\VC\Tools\MSVC\14.29.30133\atlmfc\include\cstringt.h
; File D:\git\src\IBK\IBK_DRFN\ProjSrc\SrcDrfn\Chart\HWSTRATEGYCONFIGUREWIZARD\DlgStrategyList.cpp
; File C:\Program Files (x86)\Microsoft Visual Studio\2019\Community\VC\Tools\MSVC\14.29.30133\atlmfc\include\afxwin2.inl
; File D:\git\src\IBK\IBK_DRFN\ProjSrc\SrcDrfn\Chart\HWSTRATEGYCONFIGUREWIZARD\DlgStrategyList.cpp
;	COMDAT ?AddRowData@CDlgStrategyList@@IAEHV?$CStringT@DV?$StrTraitMFC_DLL@DV?$ChTraitsCRT@D@ATL@@@@@ATL@@PBDHH@Z
_TEXT	SEGMENT
_strMessage$ = -32					; size = 4
$T2 = -28						; size = 4
_this$1$ = -24						; size = 4
$T3 = -20						; size = 4
$T4 = -20						; size = 4
_strPath$ = -16						; size = 4
__$EHRec$ = -12						; size = 12
_szFullSTPath$ = 8					; size = 4
_lpSfgName$ = 12					; size = 4
_nType$ = 16						; size = 4
tv419 = 20						; size = 4
$T5 = 20						; size = 4
_nSTPos$ = 20						; size = 4
?AddRowData@CDlgStrategyList@@IAEHV?$CStringT@DV?$StrTraitMFC_DLL@DV?$ChTraitsCRT@D@ATL@@@@@ATL@@PBDHH@Z PROC ; CDlgStrategyList::AddRowData, COMDAT
; _this$ = ecx

; 562  : {

  00000	55		 push	 ebp
  00001	8b ec		 mov	 ebp, esp
  00003	6a ff		 push	 -1
  00005	68 00 00 00 00	 push	 __ehhandler$?AddRowData@CDlgStrategyList@@IAEHV?$CStringT@DV?$StrTraitMFC_DLL@DV?$ChTraitsCRT@D@ATL@@@@@ATL@@PBDHH@Z
  0000a	64 a1 00 00 00
	00		 mov	 eax, DWORD PTR fs:0
  00010	50		 push	 eax
  00011	83 ec 14	 sub	 esp, 20			; 00000014H
  00014	53		 push	 ebx
  00015	56		 push	 esi
  00016	57		 push	 edi
  00017	a1 00 00 00 00	 mov	 eax, DWORD PTR ___security_cookie
  0001c	33 c5		 xor	 eax, ebp
  0001e	50		 push	 eax
  0001f	8d 45 f4	 lea	 eax, DWORD PTR __$EHRec$[ebp]
  00022	64 a3 00 00 00
	00		 mov	 DWORD PTR fs:0, eax
  00028	8b d9		 mov	 ebx, ecx
  0002a	89 5d e8	 mov	 DWORD PTR _this$1$[ebp], ebx
  0002d	c7 45 e4 00 00
	00 00		 mov	 DWORD PTR $T2[ebp], 0

; 563  : 	CSDItemInfo *pSDItemInfo = NULL;
; 564  : 	CString strPath;

  00034	8d 4d f0	 lea	 ecx, DWORD PTR _strPath$[ebp]
  00037	c7 45 fc 00 00
	00 00		 mov	 DWORD PTR __$EHRec$[ebp+8], 0
  0003e	ff 15 00 00 00
	00		 call	 DWORD PTR __imp_??0?$CStringT@DV?$StrTraitMFC_DLL@DV?$ChTraitsCRT@D@ATL@@@@@ATL@@QAE@XZ

; 565  : 	CString strMessage;

  00044	8d 4d e0	 lea	 ecx, DWORD PTR _strMessage$[ebp]
  00047	ff 15 00 00 00
	00		 call	 DWORD PTR __imp_??0?$CStringT@DV?$StrTraitMFC_DLL@DV?$ChTraitsCRT@D@ATL@@@@@ATL@@QAE@XZ

; 566  : //	CString strSTFullPath;
; 567  : 
; 568  : 	if(nType==SYSTEM_ST)

  0004d	8b 45 10	 mov	 eax, DWORD PTR _nType$[ebp]
  00050	c6 45 fc 02	 mov	 BYTE PTR __$EHRec$[ebp+8], 2
  00054	85 c0		 test	 eax, eax
  00056	75 29		 jne	 SHORT $LN2@AddRowData
; File C:\Program Files (x86)\Microsoft Visual Studio\2019\Community\VC\Tools\MSVC\14.29.30133\atlmfc\include\cstringt.h

; 2401 : 		CStringT strResult( str1.GetManager() );

  00058	8d 8b c4 0f 00
	00		 lea	 ecx, DWORD PTR [ebx+4036]
; File D:\git\src\IBK\IBK_DRFN\ProjSrc\SrcDrfn\Chart\HWSTRATEGYCONFIGUREWIZARD\DlgStrategyList.cpp

; 570  : 		strPath = m_szDataDir + STDATA_SD_RELEASE;

  0005e	c6 45 fc 03	 mov	 BYTE PTR __$EHRec$[ebp+8], 3
; File C:\Program Files (x86)\Microsoft Visual Studio\2019\Community\VC\Tools\MSVC\14.29.30133\atlmfc\include\cstringt.h

; 2401 : 		CStringT strResult( str1.GetManager() );

  00062	ff 15 00 00 00
	00		 call	 DWORD PTR __imp_?GetManager@?$CStringT@DV?$StrTraitMFC_DLL@DV?$ChTraitsCRT@D@ATL@@@@@ATL@@QBEPAUIAtlStringMgr@2@XZ
  00068	50		 push	 eax
  00069	8d 4d ec	 lea	 ecx, DWORD PTR $T4[ebp]
  0006c	ff 15 00 00 00
	00		 call	 DWORD PTR __imp_??0?$CStringT@DV?$StrTraitMFC_DLL@DV?$ChTraitsCRT@D@ATL@@@@@ATL@@QAE@PAUIAtlStringMgr@1@@Z
; File C:\Program Files (x86)\Microsoft Visual Studio\2019\Community\VC\Tools\MSVC\14.29.30133\atlmfc\include\atlsimpstr.h

; 519  : 		return( GetData()->nDataLength );

  00072	8b 83 c4 0f 00
	00		 mov	 eax, DWORD PTR [ebx+4036]
; File C:\Program Files (x86)\Microsoft Visual Studio\2019\Community\VC\Tools\MSVC\14.29.30133\atlmfc\include\cstringt.h

; 2405 : 		return( strResult );

  00078	c7 45 e4 01 00
	00 00		 mov	 DWORD PTR $T2[ebp], 1
; File D:\git\src\IBK\IBK_DRFN\ProjSrc\SrcDrfn\Chart\HWSTRATEGYCONFIGUREWIZARD\DlgStrategyList.cpp

; 571  : 	}

  0007f	eb 2c		 jmp	 SHORT $LN77@AddRowData
$LN2@AddRowData:

; 572  : 	else if(nType==USER_ST)

  00081	83 f8 01	 cmp	 eax, 1
  00084	75 59		 jne	 SHORT $LN4@AddRowData
; File C:\Program Files (x86)\Microsoft Visual Studio\2019\Community\VC\Tools\MSVC\14.29.30133\atlmfc\include\cstringt.h

; 2401 : 		CStringT strResult( str1.GetManager() );

  00086	8d 8b c8 0f 00
	00		 lea	 ecx, DWORD PTR [ebx+4040]
; File D:\git\src\IBK\IBK_DRFN\ProjSrc\SrcDrfn\Chart\HWSTRATEGYCONFIGUREWIZARD\DlgStrategyList.cpp

; 574  : 		strPath = m_szUserDir + STDATA_SD_RELEASE;

  0008c	c6 45 fc 04	 mov	 BYTE PTR __$EHRec$[ebp+8], 4
; File C:\Program Files (x86)\Microsoft Visual Studio\2019\Community\VC\Tools\MSVC\14.29.30133\atlmfc\include\cstringt.h

; 2401 : 		CStringT strResult( str1.GetManager() );

  00090	ff 15 00 00 00
	00		 call	 DWORD PTR __imp_?GetManager@?$CStringT@DV?$StrTraitMFC_DLL@DV?$ChTraitsCRT@D@ATL@@@@@ATL@@QBEPAUIAtlStringMgr@2@XZ
  00096	50		 push	 eax
  00097	8d 4d ec	 lea	 ecx, DWORD PTR $T3[ebp]
  0009a	ff 15 00 00 00
	00		 call	 DWORD PTR __imp_??0?$CStringT@DV?$StrTraitMFC_DLL@DV?$ChTraitsCRT@D@ATL@@@@@ATL@@QAE@PAUIAtlStringMgr@1@@Z
; File C:\Program Files (x86)\Microsoft Visual Studio\2019\Community\VC\Tools\MSVC\14.29.30133\atlmfc\include\atlsimpstr.h

; 519  : 		return( GetData()->nDataLength );

  000a0	8b 83 c8 0f 00
	00		 mov	 eax, DWORD PTR [ebx+4040]
; File C:\Program Files (x86)\Microsoft Visual Studio\2019\Community\VC\Tools\MSVC\14.29.30133\atlmfc\include\cstringt.h

; 2405 : 		return( strResult );

  000a6	c7 45 e4 02 00
	00 00		 mov	 DWORD PTR $T2[ebp], 2
$LN77@AddRowData:
; File D:\git\src\IBK\IBK_DRFN\ProjSrc\SrcDrfn\Chart\HWSTRATEGYCONFIGUREWIZARD\DlgStrategyList.cpp

; 580  : 	if(nSTPos==-1)

  000ad	6a 0a		 push	 10			; 0000000aH
  000af	68 00 00 00 00	 push	 OFFSET ??_C@_0L@FNFCAPPB@?2STDATA?2SD@
  000b4	ff 70 f4	 push	 DWORD PTR [eax-12]
  000b7	50		 push	 eax
  000b8	8d 45 ec	 lea	 eax, DWORD PTR $T3[ebp]
  000bb	50		 push	 eax
  000bc	ff 15 00 00 00
	00		 call	 DWORD PTR __imp_?Concatenate@?$CSimpleStringT@D$00@ATL@@KAXAAV12@PBDH1H@Z
  000c2	83 c4 14	 add	 esp, 20			; 00000014H
  000c5	8d 45 ec	 lea	 eax, DWORD PTR $T3[ebp]
  000c8	8d 4d f0	 lea	 ecx, DWORD PTR _strPath$[ebp]
  000cb	50		 push	 eax
  000cc	ff 15 00 00 00
	00		 call	 DWORD PTR __imp_??4?$CStringT@DV?$StrTraitMFC_DLL@DV?$ChTraitsCRT@D@ATL@@@@@ATL@@QAEAAV01@ABV01@@Z
  000d2	8d 4d ec	 lea	 ecx, DWORD PTR $T3[ebp]
  000d5	c6 45 fc 02	 mov	 BYTE PTR __$EHRec$[ebp+8], 2
  000d9	ff 15 00 00 00
	00		 call	 DWORD PTR __imp_??1?$CStringT@DV?$StrTraitMFC_DLL@DV?$ChTraitsCRT@D@ATL@@@@@ATL@@QAE@XZ
$LN4@AddRowData:
  000df	8b 7d 14	 mov	 edi, DWORD PTR _nSTPos$[ebp]
  000e2	83 ff ff	 cmp	 edi, -1
  000e5	75 4e		 jne	 SHORT $LN45@AddRowData

; 842  : 	int nRowCount = m_GridSTList.GetRowCount();

  000e7	8b 9b f0 10 00
	00		 mov	 ebx, DWORD PTR [ebx+4336]

; 843  : 
; 844  : 	if(nRowCount<=1)

  000ed	33 ff		 xor	 edi, edi
  000ef	83 fb 01	 cmp	 ebx, 1
  000f2	7e 3e		 jle	 SHORT $LN75@AddRowData
  000f4	0f 1f 40 00 0f
	1f 84 00 00 00
	00 00		 npad	 12
$LL48@AddRowData:
  00100	8b 45 e8	 mov	 eax, DWORD PTR _this$1$[ebp]

; 851  : 	{
; 852  : 		bExistIndex = FALSE;
; 853  : 		for(int nRow=1;nRow<nRowCount;nRow++)

  00103	be 01 00 00 00	 mov	 esi, 1
  00108	05 d8 0f 00 00	 add	 eax, 4056		; 00000fd8H
  0010d	89 45 14	 mov	 DWORD PTR tv419[ebp], eax
$LL51@AddRowData:

; 854  : 		{
; 855  : 			pSDItemInfoInRow = (CSDItemInfo*)m_GridSTList.GetItemData(nRow,COL_INFOPOINTER);

  00110	6a 01		 push	 1
  00112	56		 push	 esi
  00113	8b c8		 mov	 ecx, eax
  00115	e8 00 00 00 00	 call	 ?GetItemData@CGridCtrl@@QBEJHH@Z ; CGridCtrl::GetItemData

; 856  : 			if(pSDItemInfoInRow->m_nIndexInST==nIndexFinder) 

  0011a	39 78 18	 cmp	 DWORD PTR [eax+24], edi
  0011d	74 0a		 je	 SHORT $LN67@AddRowData

; 851  : 	{
; 852  : 		bExistIndex = FALSE;
; 853  : 		for(int nRow=1;nRow<nRowCount;nRow++)

  0011f	46		 inc	 esi
  00120	3b f3		 cmp	 esi, ebx
  00122	7d 0e		 jge	 SHORT $LN75@AddRowData
  00124	8b 45 14	 mov	 eax, DWORD PTR tv419[ebp]
  00127	eb e7		 jmp	 SHORT $LL51@AddRowData
$LN67@AddRowData:

; 845  : 		return 0;
; 846  : 
; 847  : 	CSDItemInfo* pSDItemInfoInRow = NULL;
; 848  : 	BOOL bExistIndex = FALSE;
; 849  : 	int nIndexFinder = 0;
; 850  : 	for(nIndexFinder = 0;nIndexFinder<256;nIndexFinder++)

  00129	47		 inc	 edi
  0012a	81 ff 00 01 00
	00		 cmp	 edi, 256		; 00000100H
  00130	7c ce		 jl	 SHORT $LL48@AddRowData
$LN75@AddRowData:

; 581  : 		nSTPos = GetNewSTPosNo();
; 582  : 
; 583  : 	pSDItemInfo = new CSDItemInfo;

  00132	8b 5d e8	 mov	 ebx, DWORD PTR _this$1$[ebp]
$LN45@AddRowData:
  00135	6a 54		 push	 84			; 00000054H
  00137	e8 00 00 00 00	 call	 ??2@YAPAXI@Z		; operator new
  0013c	83 c4 04	 add	 esp, 4
  0013f	89 45 14	 mov	 DWORD PTR $T5[ebp], eax
  00142	c6 45 fc 05	 mov	 BYTE PTR __$EHRec$[ebp+8], 5
  00146	85 c0		 test	 eax, eax
  00148	74 0b		 je	 SHORT $LN8@AddRowData
  0014a	8b c8		 mov	 ecx, eax
  0014c	e8 00 00 00 00	 call	 ??0CSDItemInfo@@QAE@XZ	; CSDItemInfo::CSDItemInfo
  00151	8b f0		 mov	 esi, eax
  00153	eb 02		 jmp	 SHORT $LN9@AddRowData
$LN8@AddRowData:
  00155	33 f6		 xor	 esi, esi
$LN9@AddRowData:
  00157	c6 45 fc 02	 mov	 BYTE PTR __$EHRec$[ebp+8], 2
; File C:\Program Files (x86)\Microsoft Visual Studio\2019\Community\VC\Tools\MSVC\14.29.30133\atlmfc\include\afxwin2.inl

; 25   : 	{ return this == NULL ? NULL : m_hWnd; }

  0015b	85 db		 test	 ebx, ebx
  0015d	75 04		 jne	 SHORT $LN63@AddRowData
  0015f	33 c0		 xor	 eax, eax
  00161	eb 03		 jmp	 SHORT $LN64@AddRowData
$LN63@AddRowData:
  00163	8b 43 20	 mov	 eax, DWORD PTR [ebx+32]
$LN64@AddRowData:
; File D:\git\src\IBK\IBK_DRFN\ProjSrc\SrcDrfn\Chart\HWSTRATEGYCONFIGUREWIZARD\DlgStrategyList.cpp

; 588  : 	BOOL bRetValue = pSDItemInfo->SetNewSDItemInfo(GetSafeHwnd()

  00166	57		 push	 edi
  00167	ff 75 08	 push	 DWORD PTR _szFullSTPath$[ebp]
  0016a	8b ce		 mov	 ecx, esi
  0016c	ff 75 f0	 push	 DWORD PTR _strPath$[ebp]
  0016f	ff 75 10	 push	 DWORD PTR _nType$[ebp]
  00172	ff 75 0c	 push	 DWORD PTR _lpSfgName$[ebp]
  00175	6a 00		 push	 0
  00177	6a 00		 push	 0
  00179	50		 push	 eax
  0017a	e8 00 00 00 00	 call	 ?SetNewSDItemInfo@CSDItemInfo@@QAEHPAUHWND__@@0PAVCDrMLib_CDBMgr@@PBDH22H@Z ; CSDItemInfo::SetNewSDItemInfo

; 589  : 		,NULL
; 590  : 		,NULL
; 591  : 		,lpSfgName, nType,strPath, szFullSTPath, nSTPos);
; 592  : 
; 593  : 	if(!bRetValue)

  0017f	85 c0		 test	 eax, eax
  00181	75 10		 jne	 SHORT $LN6@AddRowData

; 594  : 	{
; 595  : 		delete pSDItemInfo;

  00183	85 f6		 test	 esi, esi
  00185	74 08		 je	 SHORT $LN10@AddRowData
  00187	8b 06		 mov	 eax, DWORD PTR [esi]
  00189	8b ce		 mov	 ecx, esi
  0018b	6a 01		 push	 1
  0018d	ff 10		 call	 DWORD PTR [eax]
$LN10@AddRowData:
  0018f	33 f6		 xor	 esi, esi
  00191	eb 05		 jmp	 SHORT $LN18@AddRowData
$LN6@AddRowData:

; 596  : 		pSDItemInfo = NULL;
; 597  : 		return FALSE;
; 598  : 	}
; 599  : 	return TRUE;

  00193	be 01 00 00 00	 mov	 esi, 1
$LN18@AddRowData:
  00198	8d 4d e0	 lea	 ecx, DWORD PTR _strMessage$[ebp]
  0019b	ff 15 00 00 00
	00		 call	 DWORD PTR __imp_??1?$CStringT@DV?$StrTraitMFC_DLL@DV?$ChTraitsCRT@D@ATL@@@@@ATL@@QAE@XZ
  001a1	8d 4d f0	 lea	 ecx, DWORD PTR _strPath$[ebp]
  001a4	ff 15 00 00 00
	00		 call	 DWORD PTR __imp_??1?$CStringT@DV?$StrTraitMFC_DLL@DV?$ChTraitsCRT@D@ATL@@@@@ATL@@QAE@XZ
  001aa	8d 4d 08	 lea	 ecx, DWORD PTR _szFullSTPath$[ebp]
  001ad	ff 15 00 00 00
	00		 call	 DWORD PTR __imp_??1?$CStringT@DV?$StrTraitMFC_DLL@DV?$ChTraitsCRT@D@ATL@@@@@ATL@@QAE@XZ
  001b3	8b c6		 mov	 eax, esi

; 600  : }

  001b5	8b 4d f4	 mov	 ecx, DWORD PTR __$EHRec$[ebp]
  001b8	64 89 0d 00 00
	00 00		 mov	 DWORD PTR fs:0, ecx
  001bf	59		 pop	 ecx
  001c0	5f		 pop	 edi
  001c1	5e		 pop	 esi
  001c2	5b		 pop	 ebx
  001c3	8b e5		 mov	 esp, ebp
  001c5	5d		 pop	 ebp
  001c6	c2 10 00	 ret	 16			; 00000010H
_TEXT	ENDS
;	COMDAT text$x
text$x	SEGMENT
__unwindfunclet$?AddRowData@CDlgStrategyList@@IAEHV?$CStringT@DV?$StrTraitMFC_DLL@DV?$ChTraitsCRT@D@ATL@@@@@ATL@@PBDHH@Z$0:
  00000	8d 4d 08	 lea	 ecx, DWORD PTR _szFullSTPath$[ebp]
  00003	ff 25 00 00 00
	00		 jmp	 DWORD PTR __imp_??1?$CStringT@DV?$StrTraitMFC_DLL@DV?$ChTraitsCRT@D@ATL@@@@@ATL@@QAE@XZ
__unwindfunclet$?AddRowData@CDlgStrategyList@@IAEHV?$CStringT@DV?$StrTraitMFC_DLL@DV?$ChTraitsCRT@D@ATL@@@@@ATL@@PBDHH@Z$1:
  00009	8d 4d f0	 lea	 ecx, DWORD PTR _strPath$[ebp]
  0000c	ff 25 00 00 00
	00		 jmp	 DWORD PTR __imp_??1?$CStringT@DV?$StrTraitMFC_DLL@DV?$ChTraitsCRT@D@ATL@@@@@ATL@@QAE@XZ
__unwindfunclet$?AddRowData@CDlgStrategyList@@IAEHV?$CStringT@DV?$StrTraitMFC_DLL@DV?$ChTraitsCRT@D@ATL@@@@@ATL@@PBDHH@Z$2:
  00012	8d 4d e0	 lea	 ecx, DWORD PTR _strMessage$[ebp]
  00015	ff 25 00 00 00
	00		 jmp	 DWORD PTR __imp_??1?$CStringT@DV?$StrTraitMFC_DLL@DV?$ChTraitsCRT@D@ATL@@@@@ATL@@QAE@XZ
__unwindfunclet$?AddRowData@CDlgStrategyList@@IAEHV?$CStringT@DV?$StrTraitMFC_DLL@DV?$ChTraitsCRT@D@ATL@@@@@ATL@@PBDHH@Z$6:
  0001b	8b 45 e4	 mov	 eax, DWORD PTR $T2[ebp]
  0001e	83 e0 01	 and	 eax, 1
  00021	0f 84 0d 00 00
	00		 je	 $LN22@AddRowData
  00027	83 65 e4 fe	 and	 DWORD PTR $T2[ebp], -2	; fffffffeH
  0002b	8d 4d ec	 lea	 ecx, DWORD PTR $T4[ebp]
  0002e	ff 25 00 00 00
	00		 jmp	 DWORD PTR __imp_??1?$CStringT@DV?$StrTraitMFC_DLL@DV?$ChTraitsCRT@D@ATL@@@@@ATL@@QAE@XZ
$LN22@AddRowData:
  00034	c3		 ret	 0
__unwindfunclet$?AddRowData@CDlgStrategyList@@IAEHV?$CStringT@DV?$StrTraitMFC_DLL@DV?$ChTraitsCRT@D@ATL@@@@@ATL@@PBDHH@Z$7:
  00035	8b 45 e4	 mov	 eax, DWORD PTR $T2[ebp]
  00038	83 e0 02	 and	 eax, 2
  0003b	0f 84 0d 00 00
	00		 je	 $LN35@AddRowData
  00041	83 65 e4 fd	 and	 DWORD PTR $T2[ebp], -3	; fffffffdH
  00045	8d 4d ec	 lea	 ecx, DWORD PTR $T3[ebp]
  00048	ff 25 00 00 00
	00		 jmp	 DWORD PTR __imp_??1?$CStringT@DV?$StrTraitMFC_DLL@DV?$ChTraitsCRT@D@ATL@@@@@ATL@@QAE@XZ
$LN35@AddRowData:
  0004e	c3		 ret	 0
__unwindfunclet$?AddRowData@CDlgStrategyList@@IAEHV?$CStringT@DV?$StrTraitMFC_DLL@DV?$ChTraitsCRT@D@ATL@@@@@ATL@@PBDHH@Z$5:
  0004f	6a 54		 push	 84			; 00000054H
  00051	8b 45 14	 mov	 eax, DWORD PTR $T5[ebp]
  00054	50		 push	 eax
  00055	e8 00 00 00 00	 call	 ??3@YAXPAXI@Z		; operator delete
  0005a	83 c4 08	 add	 esp, 8
  0005d	c3		 ret	 0
  0005e	cc		 int	 3
  0005f	cc		 int	 3
  00060	cc		 int	 3
  00061	cc		 int	 3
  00062	cc		 int	 3
__ehhandler$?AddRowData@CDlgStrategyList@@IAEHV?$CStringT@DV?$StrTraitMFC_DLL@DV?$ChTraitsCRT@D@ATL@@@@@ATL@@PBDHH@Z:
  00063	90		 npad	 1
  00064	90		 npad	 1
  00065	8b 54 24 08	 mov	 edx, DWORD PTR [esp+8]
  00069	8d 42 0c	 lea	 eax, DWORD PTR [edx+12]
  0006c	8b 4a dc	 mov	 ecx, DWORD PTR [edx-36]
  0006f	33 c8		 xor	 ecx, eax
  00071	e8 00 00 00 00	 call	 @__security_check_cookie@4
  00076	b8 00 00 00 00	 mov	 eax, OFFSET __ehfuncinfo$?AddRowData@CDlgStrategyList@@IAEHV?$CStringT@DV?$StrTraitMFC_DLL@DV?$ChTraitsCRT@D@ATL@@@@@ATL@@PBDHH@Z
  0007b	e9 00 00 00 00	 jmp	 ___CxxFrameHandler3
text$x	ENDS
?AddRowData@CDlgStrategyList@@IAEHV?$CStringT@DV?$StrTraitMFC_DLL@DV?$ChTraitsCRT@D@ATL@@@@@ATL@@PBDHH@Z ENDP ; CDlgStrategyList::AddRowData
; Function compile flags: /Ogtp
; File D:\git\src\IBK\IBK_DRFN\ProjSrc\SrcDrfn\Chart\HWSTRATEGYCONFIGUREWIZARD\DlgStrategyList.cpp
; File C:\Program Files (x86)\Microsoft Visual Studio\2019\Community\VC\Tools\MSVC\14.29.30133\atlmfc\include\atltypes.h
; File D:\git\src\IBK\IBK_DRFN\ProjSrc\SrcDrfn\Chart\HWSTRATEGYCONFIGUREWIZARD\DlgStrategyList.cpp
; File C:\Program Files (x86)\Microsoft Visual Studio\2019\Community\VC\Tools\MSVC\14.29.30133\atlmfc\include\atltypes.h
; File D:\git\src\IBK\IBK_DRFN\ProjSrc\SrcDrfn\Chart\HWSTRATEGYCONFIGUREWIZARD\DlgStrategyList.cpp
; File C:\Program Files (x86)\Microsoft Visual Studio\2019\Community\VC\Tools\MSVC\14.29.30133\atlmfc\include\afxwin2.inl
; File D:\git\src\IBK\IBK_DRFN\ProjSrc\SrcDrfn\Chart\HWSTRATEGYCONFIGUREWIZARD\DlgStrategyList.cpp
; File C:\Program Files (x86)\Microsoft Visual Studio\2019\Community\VC\Tools\MSVC\14.29.30133\atlmfc\include\atltypes.h
; File D:\git\src\IBK\IBK_DRFN\ProjSrc\SrcDrfn\Chart\HWSTRATEGYCONFIGUREWIZARD\DlgStrategyList.cpp
; File C:\Program Files (x86)\Microsoft Visual Studio\2019\Community\VC\Tools\MSVC\14.29.30133\atlmfc\include\afxwin2.inl
; File D:\git\src\IBK\IBK_DRFN\ProjSrc\SrcDrfn\Chart\HWSTRATEGYCONFIGUREWIZARD\DlgStrategyList.cpp
; File C:\Program Files (x86)\Microsoft Visual Studio\2019\Community\VC\Tools\MSVC\14.29.30133\atlmfc\include\afxwin2.inl
; File D:\git\src\IBK\IBK_DRFN\ProjSrc\SrcDrfn\Chart\HWSTRATEGYCONFIGUREWIZARD\DlgStrategyList.cpp
; File C:\Program Files (x86)\Microsoft Visual Studio\2019\Community\VC\Tools\MSVC\14.29.30133\atlmfc\include\afxwin2.inl
; File D:\git\src\IBK\IBK_DRFN\ProjSrc\SrcDrfn\Chart\HWSTRATEGYCONFIGUREWIZARD\DlgStrategyList.cpp
; File C:\Program Files (x86)\Microsoft Visual Studio\2019\Community\VC\Tools\MSVC\14.29.30133\atlmfc\include\afxwin2.inl
; File D:\git\src\IBK\IBK_DRFN\ProjSrc\SrcDrfn\Chart\HWSTRATEGYCONFIGUREWIZARD\DlgStrategyList.cpp
; File C:\Program Files (x86)\Microsoft Visual Studio\2019\Community\VC\Tools\MSVC\14.29.30133\atlmfc\include\afxwin2.inl
; File D:\git\src\IBK\IBK_DRFN\ProjSrc\SrcDrfn\Chart\HWSTRATEGYCONFIGUREWIZARD\DlgStrategyList.cpp
; File C:\Program Files (x86)\Microsoft Visual Studio\2019\Community\VC\Tools\MSVC\14.29.30133\atlmfc\include\afxwin2.inl
; File D:\git\src\IBK\IBK_DRFN\ProjSrc\SrcDrfn\Chart\HWSTRATEGYCONFIGUREWIZARD\DlgStrategyList.cpp
; File C:\Program Files (x86)\Microsoft Visual Studio\2019\Community\VC\Tools\MSVC\14.29.30133\atlmfc\include\afxwin2.inl
; File D:\git\src\IBK\IBK_DRFN\ProjSrc\SrcDrfn\Chart\HWSTRATEGYCONFIGUREWIZARD\DlgStrategyList.cpp
; File C:\Program Files (x86)\Microsoft Visual Studio\2019\Community\VC\Tools\MSVC\14.29.30133\atlmfc\include\afxwin2.inl
; File D:\git\src\IBK\IBK_DRFN\ProjSrc\SrcDrfn\Chart\HWSTRATEGYCONFIGUREWIZARD\DlgStrategyList.cpp
; File C:\Program Files (x86)\Microsoft Visual Studio\2019\Community\VC\Tools\MSVC\14.29.30133\atlmfc\include\afxwin2.inl
; File D:\git\src\IBK\IBK_DRFN\ProjSrc\SrcDrfn\Chart\HWSTRATEGYCONFIGUREWIZARD\DlgStrategyList.cpp
; File C:\Program Files (x86)\Microsoft Visual Studio\2019\Community\VC\Tools\MSVC\14.29.30133\atlmfc\include\afxwin2.inl
; File D:\git\src\IBK\IBK_DRFN\ProjSrc\SrcDrfn\Chart\HWSTRATEGYCONFIGUREWIZARD\DlgStrategyList.cpp
; File C:\Program Files (x86)\Microsoft Visual Studio\2019\Community\VC\Tools\MSVC\14.29.30133\atlmfc\include\afxwin2.inl
; File D:\git\src\IBK\IBK_DRFN\ProjSrc\SrcDrfn\Chart\HWSTRATEGYCONFIGUREWIZARD\DlgStrategyList.cpp
; File C:\Program Files (x86)\Microsoft Visual Studio\2019\Community\VC\Tools\MSVC\14.29.30133\atlmfc\include\afxwin2.inl
; File D:\git\src\IBK\IBK_DRFN\ProjSrc\SrcDrfn\Chart\HWSTRATEGYCONFIGUREWIZARD\DlgStrategyList.cpp
; File C:\Program Files (x86)\Microsoft Visual Studio\2019\Community\VC\Tools\MSVC\14.29.30133\atlmfc\include\afxwin2.inl
; File D:\git\src\IBK\IBK_DRFN\ProjSrc\SrcDrfn\Chart\HWSTRATEGYCONFIGUREWIZARD\DlgStrategyList.cpp
;	COMDAT ?GetRect@CDlgStrategyList@@IAE?AVCRect@@H@Z
_TEXT	SEGMENT
___$ReturnUdt$ = 8					; size = 4
_nId$ = 12						; size = 4
?GetRect@CDlgStrategyList@@IAE?AVCRect@@H@Z PROC	; CDlgStrategyList::GetRect, COMDAT
; _this$ = ecx

; 270  : {

  00000	55		 push	 ebp
  00001	8b ec		 mov	 ebp, esp

; 272  : 	switch(nId) {

  00003	8b 45 0c	 mov	 eax, DWORD PTR _nId$[ebp]
  00006	56		 push	 esi
; File C:\Program Files (x86)\Microsoft Visual Studio\2019\Community\VC\Tools\MSVC\14.29.30133\atlmfc\include\atltypes.h

; 528  : 	left = 0;

  00007	8b 75 08	 mov	 esi, DWORD PTR ___$ReturnUdt$[ebp]
; File D:\git\src\IBK\IBK_DRFN\ProjSrc\SrcDrfn\Chart\HWSTRATEGYCONFIGUREWIZARD\DlgStrategyList.cpp

; 272  : 	switch(nId) {

  0000a	05 82 96 ff ff	 add	 eax, -27006		; ffff9682H
  0000f	57		 push	 edi
  00010	8b f9		 mov	 edi, ecx
; File C:\Program Files (x86)\Microsoft Visual Studio\2019\Community\VC\Tools\MSVC\14.29.30133\atlmfc\include\atltypes.h

; 528  : 	left = 0;

  00012	c7 06 00 00 00
	00		 mov	 DWORD PTR [esi], 0

; 529  : 	top = 0;

  00018	c7 46 04 00 00
	00 00		 mov	 DWORD PTR [esi+4], 0

; 530  : 	right = 0;

  0001f	c7 46 08 00 00
	00 00		 mov	 DWORD PTR [esi+8], 0

; 531  : 	bottom = 0;

  00026	c7 46 0c 00 00
	00 00		 mov	 DWORD PTR [esi+12], 0
; File D:\git\src\IBK\IBK_DRFN\ProjSrc\SrcDrfn\Chart\HWSTRATEGYCONFIGUREWIZARD\DlgStrategyList.cpp

; 272  : 	switch(nId) {

  0002d	83 f8 3d	 cmp	 eax, 61			; 0000003dH
  00030	0f 87 96 02 00
	00		 ja	 $LN18@GetRect
  00036	0f b6 80 00 00
	00 00		 movzx	 eax, BYTE PTR $LN52@GetRect[eax]
  0003d	ff 24 85 00 00
	00 00		 jmp	 DWORD PTR $LN53@GetRect[eax*4]
$LN4@GetRect:
; File C:\Program Files (x86)\Microsoft Visual Studio\2019\Community\VC\Tools\MSVC\14.29.30133\atlmfc\include\afxwin2.inl

; 86   : 	{ ASSERT(::IsWindow(m_hWnd)); ::GetClientRect(m_hWnd, lpRect); }

  00044	56		 push	 esi
  00045	ff 77 20	 push	 DWORD PTR [edi+32]
  00048	ff 15 00 00 00
	00		 call	 DWORD PTR __imp__GetClientRect@8
; File D:\git\src\IBK\IBK_DRFN\ProjSrc\SrcDrfn\Chart\HWSTRATEGYCONFIGUREWIZARD\DlgStrategyList.cpp

; 276  : 			rect.left = 11;

  0004e	c7 06 0b 00 00
	00		 mov	 DWORD PTR [esi], 11	; 0000000bH

; 277  : 			rect.top = rect.top + m_rcSTOption.top;

  00054	8b 87 80 14 00
	00		 mov	 eax, DWORD PTR [edi+5248]
  0005a	01 46 04	 add	 DWORD PTR [esi+4], eax

; 278  : 			//rect.right = rect.right - 252;
; 279  : 			rect.right = rect.right - 242;

  0005d	81 46 08 0e ff
	ff ff		 add	 DWORD PTR [esi+8], -242	; ffffff0eH
; File C:\Program Files (x86)\Microsoft Visual Studio\2019\Community\VC\Tools\MSVC\14.29.30133\atlmfc\include\atltypes.h

; 581  : 	return bottom - top;

  00064	8b 87 88 14 00
	00		 mov	 eax, DWORD PTR [edi+5256]
  0006a	2b 87 80 14 00
	00		 sub	 eax, DWORD PTR [edi+5248]
; File D:\git\src\IBK\IBK_DRFN\ProjSrc\SrcDrfn\Chart\HWSTRATEGYCONFIGUREWIZARD\DlgStrategyList.cpp

; 280  : 			rect.bottom = rect.top + m_rcSTOption.Height();

  00070	03 46 04	 add	 eax, DWORD PTR [esi+4]
  00073	89 46 0c	 mov	 DWORD PTR [esi+12], eax

; 399  : 		}
; 400  : 		break;
; 401  : 	default:
; 402  : 		break;
; 403  : 	}
; 404  : 	return rect;

  00076	8b c6		 mov	 eax, esi
  00078	5f		 pop	 edi
  00079	5e		 pop	 esi

; 405  : }

  0007a	5d		 pop	 ebp
  0007b	c2 08 00	 ret	 8
$LN5@GetRect:
; File C:\Program Files (x86)\Microsoft Visual Studio\2019\Community\VC\Tools\MSVC\14.29.30133\atlmfc\include\afxwin2.inl

; 86   : 	{ ASSERT(::IsWindow(m_hWnd)); ::GetClientRect(m_hWnd, lpRect); }

  0007e	56		 push	 esi
  0007f	ff 77 20	 push	 DWORD PTR [edi+32]
  00082	ff 15 00 00 00
	00		 call	 DWORD PTR __imp__GetClientRect@8
; File D:\git\src\IBK\IBK_DRFN\ProjSrc\SrcDrfn\Chart\HWSTRATEGYCONFIGUREWIZARD\DlgStrategyList.cpp

; 288  : 			rect.top = rect.bottom - HEIGHT_CONTROLAREA + HEIGHT_GAP + 5;

  00088	8b 46 0c	 mov	 eax, DWORD PTR [esi+12]
  0008b	83 c0 ce	 add	 eax, -50		; ffffffceH
  0008e	c7 06 0a 00 00
	00		 mov	 DWORD PTR [esi], 10	; 0000000aH
  00094	89 46 04	 mov	 DWORD PTR [esi+4], eax

; 289  : 			rect.bottom = rect.top + HEIGHT_BUTTON;

  00097	83 c0 13	 add	 eax, 19			; 00000013H
  0009a	89 46 0c	 mov	 DWORD PTR [esi+12], eax

; 399  : 		}
; 400  : 		break;
; 401  : 	default:
; 402  : 		break;
; 403  : 	}
; 404  : 	return rect;

  0009d	8b c6		 mov	 eax, esi
  0009f	5f		 pop	 edi
  000a0	c7 46 08 46 00
	00 00		 mov	 DWORD PTR [esi+8], 70	; 00000046H
  000a7	5e		 pop	 esi

; 405  : }

  000a8	5d		 pop	 ebp
  000a9	c2 08 00	 ret	 8
$LN6@GetRect:
; File C:\Program Files (x86)\Microsoft Visual Studio\2019\Community\VC\Tools\MSVC\14.29.30133\atlmfc\include\afxwin2.inl

; 86   : 	{ ASSERT(::IsWindow(m_hWnd)); ::GetClientRect(m_hWnd, lpRect); }

  000ac	56		 push	 esi
  000ad	ff 77 20	 push	 DWORD PTR [edi+32]
  000b0	ff 15 00 00 00
	00		 call	 DWORD PTR __imp__GetClientRect@8
; File D:\git\src\IBK\IBK_DRFN\ProjSrc\SrcDrfn\Chart\HWSTRATEGYCONFIGUREWIZARD\DlgStrategyList.cpp

; 298  : 			rect.top = rect.bottom - HEIGHT_CONTROLAREA + HEIGHT_GAP;

  000b6	8b 46 0c	 mov	 eax, DWORD PTR [esi+12]
  000b9	83 c0 c9	 add	 eax, -55		; ffffffc9H
  000bc	c7 06 47 00 00
	00		 mov	 DWORD PTR [esi], 71	; 00000047H
  000c2	89 46 04	 mov	 DWORD PTR [esi+4], eax

; 299  : 			rect.bottom = rect.top + HEIGHT_BUTTON;

  000c5	83 c0 13	 add	 eax, 19			; 00000013H
  000c8	89 46 0c	 mov	 DWORD PTR [esi+12], eax

; 399  : 		}
; 400  : 		break;
; 401  : 	default:
; 402  : 		break;
; 403  : 	}
; 404  : 	return rect;

  000cb	8b c6		 mov	 eax, esi
  000cd	5f		 pop	 edi
  000ce	c7 46 08 af 01
	00 00		 mov	 DWORD PTR [esi+8], 431	; 000001afH
  000d5	5e		 pop	 esi

; 405  : }

  000d6	5d		 pop	 ebp
  000d7	c2 08 00	 ret	 8
$LN7@GetRect:
; File C:\Program Files (x86)\Microsoft Visual Studio\2019\Community\VC\Tools\MSVC\14.29.30133\atlmfc\include\afxwin2.inl

; 86   : 	{ ASSERT(::IsWindow(m_hWnd)); ::GetClientRect(m_hWnd, lpRect); }

  000da	56		 push	 esi
  000db	ff 77 20	 push	 DWORD PTR [edi+32]
  000de	ff 15 00 00 00
	00		 call	 DWORD PTR __imp__GetClientRect@8
; File D:\git\src\IBK\IBK_DRFN\ProjSrc\SrcDrfn\Chart\HWSTRATEGYCONFIGUREWIZARD\DlgStrategyList.cpp

; 307  : 			rect.top = rect.bottom - HEIGHT_CONTROLAREA + HEIGHT_GAP + HEIGHT_BUTTON + HEIGHT_INTERGAP;

  000e4	8b 46 0c	 mov	 eax, DWORD PTR [esi+12]
  000e7	83 c0 e6	 add	 eax, -26		; ffffffe6H
  000ea	c7 06 0a 00 00
	00		 mov	 DWORD PTR [esi], 10	; 0000000aH
  000f0	89 46 04	 mov	 DWORD PTR [esi+4], eax

; 308  : 			rect.bottom = rect.top + HEIGHT_BUTTON;

  000f3	83 c0 13	 add	 eax, 19			; 00000013H
  000f6	89 46 0c	 mov	 DWORD PTR [esi+12], eax

; 399  : 		}
; 400  : 		break;
; 401  : 	default:
; 402  : 		break;
; 403  : 	}
; 404  : 	return rect;

  000f9	8b c6		 mov	 eax, esi
  000fb	5f		 pop	 edi
  000fc	c7 46 08 38 00
	00 00		 mov	 DWORD PTR [esi+8], 56	; 00000038H
  00103	5e		 pop	 esi

; 405  : }

  00104	5d		 pop	 ebp
  00105	c2 08 00	 ret	 8
$LN8@GetRect:
; File C:\Program Files (x86)\Microsoft Visual Studio\2019\Community\VC\Tools\MSVC\14.29.30133\atlmfc\include\afxwin2.inl

; 86   : 	{ ASSERT(::IsWindow(m_hWnd)); ::GetClientRect(m_hWnd, lpRect); }

  00108	56		 push	 esi
  00109	ff 77 20	 push	 DWORD PTR [edi+32]
  0010c	ff 15 00 00 00
	00		 call	 DWORD PTR __imp__GetClientRect@8
; File D:\git\src\IBK\IBK_DRFN\ProjSrc\SrcDrfn\Chart\HWSTRATEGYCONFIGUREWIZARD\DlgStrategyList.cpp

; 316  : 			rect.top = rect.bottom - HEIGHT_CONTROLAREA + HEIGHT_GAP + HEIGHT_BUTTON + HEIGHT_INTERGAP;

  00112	8b 46 0c	 mov	 eax, DWORD PTR [esi+12]
  00115	83 c0 e6	 add	 eax, -26		; ffffffe6H
  00118	c7 06 39 00 00
	00		 mov	 DWORD PTR [esi], 57	; 00000039H
  0011e	89 46 04	 mov	 DWORD PTR [esi+4], eax

; 317  : 			rect.bottom = rect.top + HEIGHT_BUTTON;

  00121	83 c0 13	 add	 eax, 19			; 00000013H
  00124	89 46 0c	 mov	 DWORD PTR [esi+12], eax

; 399  : 		}
; 400  : 		break;
; 401  : 	default:
; 402  : 		break;
; 403  : 	}
; 404  : 	return rect;

  00127	8b c6		 mov	 eax, esi
  00129	5f		 pop	 edi
  0012a	c7 46 08 67 00
	00 00		 mov	 DWORD PTR [esi+8], 103	; 00000067H
  00131	5e		 pop	 esi

; 405  : }

  00132	5d		 pop	 ebp
  00133	c2 08 00	 ret	 8
$LN9@GetRect:
; File C:\Program Files (x86)\Microsoft Visual Studio\2019\Community\VC\Tools\MSVC\14.29.30133\atlmfc\include\afxwin2.inl

; 86   : 	{ ASSERT(::IsWindow(m_hWnd)); ::GetClientRect(m_hWnd, lpRect); }

  00136	56		 push	 esi
  00137	ff 77 20	 push	 DWORD PTR [edi+32]
  0013a	ff 15 00 00 00
	00		 call	 DWORD PTR __imp__GetClientRect@8
; File D:\git\src\IBK\IBK_DRFN\ProjSrc\SrcDrfn\Chart\HWSTRATEGYCONFIGUREWIZARD\DlgStrategyList.cpp

; 325  : 			rect.top = rect.bottom - HEIGHT_CONTROLAREA + HEIGHT_GAP + HEIGHT_BUTTON + HEIGHT_INTERGAP;

  00140	8b 46 0c	 mov	 eax, DWORD PTR [esi+12]
  00143	83 c0 e6	 add	 eax, -26		; ffffffe6H
  00146	c7 06 68 00 00
	00		 mov	 DWORD PTR [esi], 104	; 00000068H
  0014c	89 46 04	 mov	 DWORD PTR [esi+4], eax

; 326  : 			rect.bottom = rect.top + HEIGHT_BUTTON;

  0014f	83 c0 13	 add	 eax, 19			; 00000013H
  00152	89 46 0c	 mov	 DWORD PTR [esi+12], eax

; 399  : 		}
; 400  : 		break;
; 401  : 	default:
; 402  : 		break;
; 403  : 	}
; 404  : 	return rect;

  00155	8b c6		 mov	 eax, esi
  00157	5f		 pop	 edi
  00158	c7 46 08 a2 00
	00 00		 mov	 DWORD PTR [esi+8], 162	; 000000a2H
  0015f	5e		 pop	 esi

; 405  : }

  00160	5d		 pop	 ebp
  00161	c2 08 00	 ret	 8
$LN10@GetRect:
; File C:\Program Files (x86)\Microsoft Visual Studio\2019\Community\VC\Tools\MSVC\14.29.30133\atlmfc\include\afxwin2.inl

; 86   : 	{ ASSERT(::IsWindow(m_hWnd)); ::GetClientRect(m_hWnd, lpRect); }

  00164	56		 push	 esi
  00165	ff 77 20	 push	 DWORD PTR [edi+32]
  00168	ff 15 00 00 00
	00		 call	 DWORD PTR __imp__GetClientRect@8
; File D:\git\src\IBK\IBK_DRFN\ProjSrc\SrcDrfn\Chart\HWSTRATEGYCONFIGUREWIZARD\DlgStrategyList.cpp

; 334  : 			rect.top = rect.bottom - HEIGHT_CONTROLAREA + HEIGHT_GAP + HEIGHT_BUTTON + HEIGHT_INTERGAP;

  0016e	8b 46 0c	 mov	 eax, DWORD PTR [esi+12]
  00171	83 c0 e6	 add	 eax, -26		; ffffffe6H
  00174	c7 06 a3 00 00
	00		 mov	 DWORD PTR [esi], 163	; 000000a3H
  0017a	89 46 04	 mov	 DWORD PTR [esi+4], eax

; 335  : 			rect.bottom = rect.top + HEIGHT_BUTTON;

  0017d	83 c0 13	 add	 eax, 19			; 00000013H
  00180	89 46 0c	 mov	 DWORD PTR [esi+12], eax

; 399  : 		}
; 400  : 		break;
; 401  : 	default:
; 402  : 		break;
; 403  : 	}
; 404  : 	return rect;

  00183	8b c6		 mov	 eax, esi
  00185	5f		 pop	 edi
  00186	c7 46 08 dd 00
	00 00		 mov	 DWORD PTR [esi+8], 221	; 000000ddH
  0018d	5e		 pop	 esi

; 405  : }

  0018e	5d		 pop	 ebp
  0018f	c2 08 00	 ret	 8
$LN11@GetRect:
; File C:\Program Files (x86)\Microsoft Visual Studio\2019\Community\VC\Tools\MSVC\14.29.30133\atlmfc\include\afxwin2.inl

; 86   : 	{ ASSERT(::IsWindow(m_hWnd)); ::GetClientRect(m_hWnd, lpRect); }

  00192	56		 push	 esi
  00193	ff 77 20	 push	 DWORD PTR [edi+32]
  00196	ff 15 00 00 00
	00		 call	 DWORD PTR __imp__GetClientRect@8
; File D:\git\src\IBK\IBK_DRFN\ProjSrc\SrcDrfn\Chart\HWSTRATEGYCONFIGUREWIZARD\DlgStrategyList.cpp

; 343  : 			rect.top = rect.bottom - HEIGHT_CONTROLAREA + HEIGHT_GAP + HEIGHT_BUTTON + HEIGHT_INTERGAP;

  0019c	8b 46 0c	 mov	 eax, DWORD PTR [esi+12]
  0019f	83 c0 e6	 add	 eax, -26		; ffffffe6H
  001a2	c7 06 f2 00 00
	00		 mov	 DWORD PTR [esi], 242	; 000000f2H
  001a8	89 46 04	 mov	 DWORD PTR [esi+4], eax

; 344  : 			rect.bottom = rect.top + HEIGHT_BUTTON;

  001ab	83 c0 13	 add	 eax, 19			; 00000013H
  001ae	89 46 0c	 mov	 DWORD PTR [esi+12], eax

; 399  : 		}
; 400  : 		break;
; 401  : 	default:
; 402  : 		break;
; 403  : 	}
; 404  : 	return rect;

  001b1	8b c6		 mov	 eax, esi
  001b3	5f		 pop	 edi
  001b4	c7 46 08 14 01
	00 00		 mov	 DWORD PTR [esi+8], 276	; 00000114H
  001bb	5e		 pop	 esi

; 405  : }

  001bc	5d		 pop	 ebp
  001bd	c2 08 00	 ret	 8
$LN12@GetRect:
; File C:\Program Files (x86)\Microsoft Visual Studio\2019\Community\VC\Tools\MSVC\14.29.30133\atlmfc\include\afxwin2.inl

; 86   : 	{ ASSERT(::IsWindow(m_hWnd)); ::GetClientRect(m_hWnd, lpRect); }

  001c0	56		 push	 esi
  001c1	ff 77 20	 push	 DWORD PTR [edi+32]
  001c4	ff 15 00 00 00
	00		 call	 DWORD PTR __imp__GetClientRect@8
; File D:\git\src\IBK\IBK_DRFN\ProjSrc\SrcDrfn\Chart\HWSTRATEGYCONFIGUREWIZARD\DlgStrategyList.cpp

; 352  : 			rect.top = rect.bottom - HEIGHT_CONTROLAREA + HEIGHT_GAP + HEIGHT_BUTTON + HEIGHT_INTERGAP;

  001ca	8b 46 0c	 mov	 eax, DWORD PTR [esi+12]
  001cd	83 c0 e6	 add	 eax, -26		; ffffffe6H
  001d0	c7 06 15 01 00
	00		 mov	 DWORD PTR [esi], 277	; 00000115H
  001d6	89 46 04	 mov	 DWORD PTR [esi+4], eax

; 353  : 			rect.bottom = rect.top + HEIGHT_BUTTON;

  001d9	83 c0 13	 add	 eax, 19			; 00000013H
  001dc	89 46 0c	 mov	 DWORD PTR [esi+12], eax

; 399  : 		}
; 400  : 		break;
; 401  : 	default:
; 402  : 		break;
; 403  : 	}
; 404  : 	return rect;

  001df	8b c6		 mov	 eax, esi
  001e1	5f		 pop	 edi
  001e2	c7 46 08 37 01
	00 00		 mov	 DWORD PTR [esi+8], 311	; 00000137H
  001e9	5e		 pop	 esi

; 405  : }

  001ea	5d		 pop	 ebp
  001eb	c2 08 00	 ret	 8
$LN13@GetRect:
; File C:\Program Files (x86)\Microsoft Visual Studio\2019\Community\VC\Tools\MSVC\14.29.30133\atlmfc\include\afxwin2.inl

; 86   : 	{ ASSERT(::IsWindow(m_hWnd)); ::GetClientRect(m_hWnd, lpRect); }

  001ee	56		 push	 esi
  001ef	ff 77 20	 push	 DWORD PTR [edi+32]
  001f2	ff 15 00 00 00
	00		 call	 DWORD PTR __imp__GetClientRect@8
; File D:\git\src\IBK\IBK_DRFN\ProjSrc\SrcDrfn\Chart\HWSTRATEGYCONFIGUREWIZARD\DlgStrategyList.cpp

; 361  : 			rect.top = rect.bottom - HEIGHT_CONTROLAREA + HEIGHT_GAP + HEIGHT_BUTTON + HEIGHT_INTERGAP;

  001f8	8b 46 0c	 mov	 eax, DWORD PTR [esi+12]
  001fb	83 c0 e6	 add	 eax, -26		; ffffffe6H
  001fe	c7 06 38 01 00
	00		 mov	 DWORD PTR [esi], 312	; 00000138H
  00204	89 46 04	 mov	 DWORD PTR [esi+4], eax

; 362  : 			rect.bottom = rect.top + HEIGHT_BUTTON;

  00207	83 c0 13	 add	 eax, 19			; 00000013H
  0020a	89 46 0c	 mov	 DWORD PTR [esi+12], eax

; 399  : 		}
; 400  : 		break;
; 401  : 	default:
; 402  : 		break;
; 403  : 	}
; 404  : 	return rect;

  0020d	8b c6		 mov	 eax, esi
  0020f	5f		 pop	 edi
  00210	c7 46 08 5a 01
	00 00		 mov	 DWORD PTR [esi+8], 346	; 0000015aH
  00217	5e		 pop	 esi

; 405  : }

  00218	5d		 pop	 ebp
  00219	c2 08 00	 ret	 8
$LN14@GetRect:
; File C:\Program Files (x86)\Microsoft Visual Studio\2019\Community\VC\Tools\MSVC\14.29.30133\atlmfc\include\afxwin2.inl

; 86   : 	{ ASSERT(::IsWindow(m_hWnd)); ::GetClientRect(m_hWnd, lpRect); }

  0021c	56		 push	 esi
  0021d	ff 77 20	 push	 DWORD PTR [edi+32]
  00220	ff 15 00 00 00
	00		 call	 DWORD PTR __imp__GetClientRect@8
; File D:\git\src\IBK\IBK_DRFN\ProjSrc\SrcDrfn\Chart\HWSTRATEGYCONFIGUREWIZARD\DlgStrategyList.cpp

; 370  : 			rect.top = rect.bottom - HEIGHT_CONTROLAREA + HEIGHT_GAP + HEIGHT_BUTTON + HEIGHT_INTERGAP;

  00226	8b 46 0c	 mov	 eax, DWORD PTR [esi+12]
  00229	83 c0 e6	 add	 eax, -26		; ffffffe6H
  0022c	c7 06 5b 01 00
	00		 mov	 DWORD PTR [esi], 347	; 0000015bH
  00232	89 46 04	 mov	 DWORD PTR [esi+4], eax

; 371  : 			rect.bottom = rect.top + HEIGHT_BUTTON;

  00235	83 c0 13	 add	 eax, 19			; 00000013H
  00238	89 46 0c	 mov	 DWORD PTR [esi+12], eax

; 399  : 		}
; 400  : 		break;
; 401  : 	default:
; 402  : 		break;
; 403  : 	}
; 404  : 	return rect;

  0023b	8b c6		 mov	 eax, esi
  0023d	5f		 pop	 edi
  0023e	c7 46 08 7d 01
	00 00		 mov	 DWORD PTR [esi+8], 381	; 0000017dH
  00245	5e		 pop	 esi

; 405  : }

  00246	5d		 pop	 ebp
  00247	c2 08 00	 ret	 8
$LN15@GetRect:
; File C:\Program Files (x86)\Microsoft Visual Studio\2019\Community\VC\Tools\MSVC\14.29.30133\atlmfc\include\afxwin2.inl

; 86   : 	{ ASSERT(::IsWindow(m_hWnd)); ::GetClientRect(m_hWnd, lpRect); }

  0024a	56		 push	 esi
  0024b	ff 77 20	 push	 DWORD PTR [edi+32]
  0024e	ff 15 00 00 00
	00		 call	 DWORD PTR __imp__GetClientRect@8
; File D:\git\src\IBK\IBK_DRFN\ProjSrc\SrcDrfn\Chart\HWSTRATEGYCONFIGUREWIZARD\DlgStrategyList.cpp

; 379  : 			rect.top = rect.bottom - HEIGHT_CONTROLAREA + HEIGHT_GAP + HEIGHT_BUTTON + HEIGHT_INTERGAP;

  00254	8b 46 0c	 mov	 eax, DWORD PTR [esi+12]
  00257	83 c0 e6	 add	 eax, -26		; ffffffe6H
  0025a	c7 06 7e 01 00
	00		 mov	 DWORD PTR [esi], 382	; 0000017eH
  00260	89 46 04	 mov	 DWORD PTR [esi+4], eax

; 380  : 			rect.bottom = rect.top + HEIGHT_BUTTON;

  00263	83 c0 13	 add	 eax, 19			; 00000013H
  00266	89 46 0c	 mov	 DWORD PTR [esi+12], eax

; 399  : 		}
; 400  : 		break;
; 401  : 	default:
; 402  : 		break;
; 403  : 	}
; 404  : 	return rect;

  00269	8b c6		 mov	 eax, esi
  0026b	5f		 pop	 edi
  0026c	c7 46 08 a0 01
	00 00		 mov	 DWORD PTR [esi+8], 416	; 000001a0H
  00273	5e		 pop	 esi

; 405  : }

  00274	5d		 pop	 ebp
  00275	c2 08 00	 ret	 8
$LN16@GetRect:
; File C:\Program Files (x86)\Microsoft Visual Studio\2019\Community\VC\Tools\MSVC\14.29.30133\atlmfc\include\afxwin2.inl

; 86   : 	{ ASSERT(::IsWindow(m_hWnd)); ::GetClientRect(m_hWnd, lpRect); }

  00278	56		 push	 esi
  00279	ff 77 20	 push	 DWORD PTR [edi+32]
  0027c	ff 15 00 00 00
	00		 call	 DWORD PTR __imp__GetClientRect@8
; File D:\git\src\IBK\IBK_DRFN\ProjSrc\SrcDrfn\Chart\HWSTRATEGYCONFIGUREWIZARD\DlgStrategyList.cpp

; 388  : 			rect.top = rect.bottom - HEIGHT_CONTROLAREA + HEIGHT_GAP + HEIGHT_BUTTON + HEIGHT_INTERGAP;

  00282	8b 46 0c	 mov	 eax, DWORD PTR [esi+12]
  00285	83 c0 e6	 add	 eax, -26		; ffffffe6H
  00288	c7 06 a1 01 00
	00		 mov	 DWORD PTR [esi], 417	; 000001a1H
  0028e	89 46 04	 mov	 DWORD PTR [esi+4], eax

; 389  : 			rect.bottom = rect.top + HEIGHT_BUTTON;

  00291	83 c0 13	 add	 eax, 19			; 00000013H
  00294	89 46 0c	 mov	 DWORD PTR [esi+12], eax

; 399  : 		}
; 400  : 		break;
; 401  : 	default:
; 402  : 		break;
; 403  : 	}
; 404  : 	return rect;

  00297	8b c6		 mov	 eax, esi
  00299	5f		 pop	 edi
  0029a	c7 46 08 c3 01
	00 00		 mov	 DWORD PTR [esi+8], 451	; 000001c3H
  002a1	5e		 pop	 esi

; 405  : }

  002a2	5d		 pop	 ebp
  002a3	c2 08 00	 ret	 8
$LN17@GetRect:
; File C:\Program Files (x86)\Microsoft Visual Studio\2019\Community\VC\Tools\MSVC\14.29.30133\atlmfc\include\afxwin2.inl

; 86   : 	{ ASSERT(::IsWindow(m_hWnd)); ::GetClientRect(m_hWnd, lpRect); }

  002a6	56		 push	 esi
  002a7	ff 77 20	 push	 DWORD PTR [edi+32]
  002aa	ff 15 00 00 00
	00		 call	 DWORD PTR __imp__GetClientRect@8
; File D:\git\src\IBK\IBK_DRFN\ProjSrc\SrcDrfn\Chart\HWSTRATEGYCONFIGUREWIZARD\DlgStrategyList.cpp

; 397  : 			rect.top = rect.bottom - HEIGHT_CONTROLAREA + HEIGHT_GAP + HEIGHT_BUTTON + HEIGHT_INTERGAP;

  002b0	8b 4e 0c	 mov	 ecx, DWORD PTR [esi+12]
  002b3	83 c1 e6	 add	 ecx, -26		; ffffffe6H
  002b6	c7 06 c4 01 00
	00		 mov	 DWORD PTR [esi], 452	; 000001c4H
  002bc	89 4e 04	 mov	 DWORD PTR [esi+4], ecx

; 398  : 			rect.bottom = rect.top + HEIGHT_BUTTON;

  002bf	83 c1 13	 add	 ecx, 19			; 00000013H
  002c2	c7 46 08 e6 01
	00 00		 mov	 DWORD PTR [esi+8], 486	; 000001e6H
  002c9	89 4e 0c	 mov	 DWORD PTR [esi+12], ecx
$LN18@GetRect:

; 399  : 		}
; 400  : 		break;
; 401  : 	default:
; 402  : 		break;
; 403  : 	}
; 404  : 	return rect;

  002cc	5f		 pop	 edi
  002cd	8b c6		 mov	 eax, esi
  002cf	5e		 pop	 esi

; 405  : }

  002d0	5d		 pop	 ebp
  002d1	c2 08 00	 ret	 8
$LN53@GetRect:
  002d4	00 00 00 00	 DD	 $LN7@GetRect
  002d8	00 00 00 00	 DD	 $LN8@GetRect
  002dc	00 00 00 00	 DD	 $LN11@GetRect
  002e0	00 00 00 00	 DD	 $LN12@GetRect
  002e4	00 00 00 00	 DD	 $LN13@GetRect
  002e8	00 00 00 00	 DD	 $LN16@GetRect
  002ec	00 00 00 00	 DD	 $LN17@GetRect
  002f0	00 00 00 00	 DD	 $LN4@GetRect
  002f4	00 00 00 00	 DD	 $LN9@GetRect
  002f8	00 00 00 00	 DD	 $LN5@GetRect
  002fc	00 00 00 00	 DD	 $LN14@GetRect
  00300	00 00 00 00	 DD	 $LN6@GetRect
  00304	00 00 00 00	 DD	 $LN15@GetRect
  00308	00 00 00 00	 DD	 $LN10@GetRect
  0030c	00 00 00 00	 DD	 $LN18@GetRect
$LN52@GetRect:
  00310	00		 DB	 0
  00311	01		 DB	 1
  00312	0e		 DB	 14			; 0000000eH
  00313	02		 DB	 2
  00314	03		 DB	 3
  00315	04		 DB	 4
  00316	05		 DB	 5
  00317	06		 DB	 6
  00318	0e		 DB	 14			; 0000000eH
  00319	0e		 DB	 14			; 0000000eH
  0031a	07		 DB	 7
  0031b	0e		 DB	 14			; 0000000eH
  0031c	0e		 DB	 14			; 0000000eH
  0031d	0e		 DB	 14			; 0000000eH
  0031e	08		 DB	 8
  0031f	0e		 DB	 14			; 0000000eH
  00320	0e		 DB	 14			; 0000000eH
  00321	0e		 DB	 14			; 0000000eH
  00322	0e		 DB	 14			; 0000000eH
  00323	0e		 DB	 14			; 0000000eH
  00324	0e		 DB	 14			; 0000000eH
  00325	0e		 DB	 14			; 0000000eH
  00326	0e		 DB	 14			; 0000000eH
  00327	0e		 DB	 14			; 0000000eH
  00328	0e		 DB	 14			; 0000000eH
  00329	0e		 DB	 14			; 0000000eH
  0032a	0e		 DB	 14			; 0000000eH
  0032b	0e		 DB	 14			; 0000000eH
  0032c	0e		 DB	 14			; 0000000eH
  0032d	0e		 DB	 14			; 0000000eH
  0032e	0e		 DB	 14			; 0000000eH
  0032f	0e		 DB	 14			; 0000000eH
  00330	0e		 DB	 14			; 0000000eH
  00331	0e		 DB	 14			; 0000000eH
  00332	0e		 DB	 14			; 0000000eH
  00333	0e		 DB	 14			; 0000000eH
  00334	0e		 DB	 14			; 0000000eH
  00335	0e		 DB	 14			; 0000000eH
  00336	0e		 DB	 14			; 0000000eH
  00337	0e		 DB	 14			; 0000000eH
  00338	0e		 DB	 14			; 0000000eH
  00339	0e		 DB	 14			; 0000000eH
  0033a	0e		 DB	 14			; 0000000eH
  0033b	09		 DB	 9
  0033c	0a		 DB	 10			; 0000000aH
  0033d	0e		 DB	 14			; 0000000eH
  0033e	0e		 DB	 14			; 0000000eH
  0033f	0e		 DB	 14			; 0000000eH
  00340	0e		 DB	 14			; 0000000eH
  00341	0e		 DB	 14			; 0000000eH
  00342	0e		 DB	 14			; 0000000eH
  00343	0e		 DB	 14			; 0000000eH
  00344	0e		 DB	 14			; 0000000eH
  00345	0e		 DB	 14			; 0000000eH
  00346	0e		 DB	 14			; 0000000eH
  00347	0b		 DB	 11			; 0000000bH
  00348	0c		 DB	 12			; 0000000cH
  00349	0e		 DB	 14			; 0000000eH
  0034a	0e		 DB	 14			; 0000000eH
  0034b	0e		 DB	 14			; 0000000eH
  0034c	0e		 DB	 14			; 0000000eH
  0034d	0d		 DB	 13			; 0000000dH
?GetRect@CDlgStrategyList@@IAE?AVCRect@@H@Z ENDP	; CDlgStrategyList::GetRect
_TEXT	ENDS
; Function compile flags: /Ogtp
; File D:\git\src\IBK\IBK_DRFN\ProjSrc\SrcDrfn\Chart\HWSTRATEGYCONFIGUREWIZARD\DlgStrategyList.cpp
; File C:\Program Files (x86)\Microsoft Visual Studio\2019\Community\VC\Tools\MSVC\14.29.30133\atlmfc\include\afxwin2.inl
; File D:\git\src\IBK\IBK_DRFN\ProjSrc\SrcDrfn\Chart\HWSTRATEGYCONFIGUREWIZARD\DlgStrategyList.cpp
; File C:\Program Files (x86)\Microsoft Visual Studio\2019\Community\VC\Tools\MSVC\14.29.30133\atlmfc\include\atltypes.h
; File D:\git\src\IBK\IBK_DRFN\ProjSrc\SrcDrfn\Chart\HWSTRATEGYCONFIGUREWIZARD\DlgStrategyList.cpp
; File C:\Program Files (x86)\Microsoft Visual Studio\2019\Community\VC\Tools\MSVC\14.29.30133\atlmfc\include\atltypes.h
; File D:\git\src\IBK\IBK_DRFN\ProjSrc\SrcDrfn\Chart\HWSTRATEGYCONFIGUREWIZARD\DlgStrategyList.cpp
; File C:\Program Files (x86)\Microsoft Visual Studio\2019\Community\VC\Tools\MSVC\14.29.30133\atlmfc\include\afxwin1.inl
; File D:\git\src\IBK\IBK_DRFN\ProjSrc\SrcDrfn\Chart\HWSTRATEGYCONFIGUREWIZARD\DlgStrategyList.cpp
; File C:\Program Files (x86)\Microsoft Visual Studio\2019\Community\VC\Tools\MSVC\14.29.30133\atlmfc\include\afxwin1.inl
; File D:\git\src\IBK\IBK_DRFN\ProjSrc\SrcDrfn\Chart\HWSTRATEGYCONFIGUREWIZARD\DlgStrategyList.cpp
; File C:\Program Files (x86)\Microsoft Visual Studio\2019\Community\VC\Tools\MSVC\14.29.30133\atlmfc\include\afxwin1.inl
; File D:\git\src\IBK\IBK_DRFN\ProjSrc\SrcDrfn\Chart\HWSTRATEGYCONFIGUREWIZARD\DlgStrategyList.cpp
; File D:\git\src\IBK\IBK_DRFN\ProjSrc\SrcDrfn\Chart\HWSTRATEGYCONFIGUREWIZARD\GridCtrl_src\GridCtrl.h
; File D:\git\src\IBK\IBK_DRFN\ProjSrc\SrcDrfn\Chart\HWSTRATEGYCONFIGUREWIZARD\DlgStrategyList.cpp
; File C:\Program Files (x86)\Microsoft Visual Studio\2019\Community\VC\Tools\MSVC\14.29.30133\atlmfc\include\afxwin1.inl
; File C:\Program Files (x86)\Microsoft Visual Studio\2019\Community\VC\Tools\MSVC\14.29.30133\atlmfc\include\afxwin2.inl
; File D:\git\src\IBK\IBK_DRFN\ProjSrc\SrcDrfn\Chart\HWSTRATEGYCONFIGUREWIZARD\DlgStrategyList.cpp
;	COMDAT ?InitGrid@CDlgStrategyList@@IAEXXZ
_TEXT	SEGMENT
_Item$2 = -200						; size = 104
_lf$3 = -96						; size = 60
_psztitle$4 = -36					; size = 20
$T5 = -32						; size = 16
__$ArrayPad$ = -16					; size = 4
__$EHRec$ = -12						; size = 12
?InitGrid@CDlgStrategyList@@IAEXXZ PROC			; CDlgStrategyList::InitGrid, COMDAT
; _this$ = ecx

; 163  : {

  00000	55		 push	 ebp
  00001	8b ec		 mov	 ebp, esp
  00003	6a ff		 push	 -1
  00005	68 00 00 00 00	 push	 __ehhandler$?InitGrid@CDlgStrategyList@@IAEXXZ
  0000a	64 a1 00 00 00
	00		 mov	 eax, DWORD PTR fs:0
  00010	50		 push	 eax
  00011	81 ec bc 00 00
	00		 sub	 esp, 188		; 000000bcH
  00017	a1 00 00 00 00	 mov	 eax, DWORD PTR ___security_cookie
  0001c	33 c5		 xor	 eax, ebp
  0001e	89 45 f0	 mov	 DWORD PTR __$ArrayPad$[ebp], eax
  00021	53		 push	 ebx
  00022	56		 push	 esi
  00023	57		 push	 edi
  00024	50		 push	 eax
  00025	8d 45 f4	 lea	 eax, DWORD PTR __$EHRec$[ebp]
  00028	64 a3 00 00 00
	00		 mov	 DWORD PTR fs:0, eax
  0002e	8b f9		 mov	 edi, ecx

; 164  : 	if(!m_GridSTList.GetSafeHwnd())

  00030	8d 9f d8 0f 00
	00		 lea	 ebx, DWORD PTR [edi+4056]
; File C:\Program Files (x86)\Microsoft Visual Studio\2019\Community\VC\Tools\MSVC\14.29.30133\atlmfc\include\afxwin2.inl

; 25   : 	{ return this == NULL ? NULL : m_hWnd; }

  00036	85 db		 test	 ebx, ebx
  00038	74 0a		 je	 SHORT $LN39@InitGrid
; File D:\git\src\IBK\IBK_DRFN\ProjSrc\SrcDrfn\Chart\HWSTRATEGYCONFIGUREWIZARD\DlgStrategyList.cpp

; 164  : 	if(!m_GridSTList.GetSafeHwnd())

  0003a	83 7b 20 00	 cmp	 DWORD PTR [ebx+32], 0
  0003e	0f 85 14 02 00
	00		 jne	 $LN33@InitGrid
$LN39@InitGrid:
; File C:\Program Files (x86)\Microsoft Visual Studio\2019\Community\VC\Tools\MSVC\14.29.30133\atlmfc\include\atltypes.h

; 540  : 	left = l;

  00044	0f 28 05 00 00
	00 00		 movaps	 xmm0, XMMWORD PTR __xmm@000000f0000002440000001e00000000
; File D:\git\src\IBK\IBK_DRFN\ProjSrc\SrcDrfn\Chart\HWSTRATEGYCONFIGUREWIZARD\DlgStrategyList.cpp

; 166  : 		if(!m_GridSTList.Create(CRect(0,30,580,240),this,IDC_GRID,WS_CHILD | WS_TABSTOP | WS_VISIBLE))

  0004b	8d 45 e0	 lea	 eax, DWORD PTR $T5[ebp]
  0004e	68 00 00 01 50	 push	 1342242816		; 50010000H
  00053	68 88 69 00 00	 push	 27016			; 00006988H
  00058	57		 push	 edi
  00059	50		 push	 eax
  0005a	8b cb		 mov	 ecx, ebx
; File C:\Program Files (x86)\Microsoft Visual Studio\2019\Community\VC\Tools\MSVC\14.29.30133\atlmfc\include\atltypes.h

; 540  : 	left = l;

  0005c	0f 11 45 e0	 movups	 XMMWORD PTR $T5[ebp], xmm0
; File D:\git\src\IBK\IBK_DRFN\ProjSrc\SrcDrfn\Chart\HWSTRATEGYCONFIGUREWIZARD\DlgStrategyList.cpp

; 166  : 		if(!m_GridSTList.Create(CRect(0,30,580,240),this,IDC_GRID,WS_CHILD | WS_TABSTOP | WS_VISIBLE))

  00060	e8 00 00 00 00	 call	 ?Create@CGridCtrl@@QAEHABUtagRECT@@PAVCWnd@@IK@Z ; CGridCtrl::Create
  00065	85 c0		 test	 eax, eax
  00067	0f 84 eb 01 00
	00		 je	 $LN33@InitGrid

; 180  : 		lf.lfClipPrecision = CLIP_DEFAULT_PRECIS; 
; 181  : 		lf.lfQuality = DEFAULT_QUALITY;
; 182  : 		lf.lfPitchAndFamily = FF_ROMAN; 
; 183  : 		strcpy(lf.lfFaceName, "");

  0006d	a1 00 00 00 00	 mov	 eax, DWORD PTR ??_C@_06MFMMLLPC@?$LB?$LM?$LI?$LC?C?$LM@

; 185  : 		if(!m_Font.CreateFontIndirect(&lf))

  00072	8d b7 74 14 00
	00		 lea	 esi, DWORD PTR [edi+5236]
  00078	89 45 bc	 mov	 DWORD PTR _lf$3[ebp+28], eax
  0007b	0f 57 c0	 xorps	 xmm0, xmm0
  0007e	66 a1 04 00 00
	00		 mov	 ax, WORD PTR ??_C@_06MFMMLLPC@?$LB?$LM?$LI?$LC?C?$LM@+4
  00084	66 89 45 c0	 mov	 WORD PTR _lf$3[ebp+32], ax
  00088	a0 06 00 00 00	 mov	 al, BYTE PTR ??_C@_06MFMMLLPC@?$LB?$LM?$LI?$LC?C?$LM@+6
  0008d	88 45 c2	 mov	 BYTE PTR _lf$3[ebp+34], al
; File C:\Program Files (x86)\Microsoft Visual Studio\2019\Community\VC\Tools\MSVC\14.29.30133\atlmfc\include\afxwin1.inl

; 157  : 	{ return Attach(::CreateFontIndirect(lpLogFont)); }

  00090	8d 45 a0	 lea	 eax, DWORD PTR _lf$3[ebp]
; File D:\git\src\IBK\IBK_DRFN\ProjSrc\SrcDrfn\Chart\HWSTRATEGYCONFIGUREWIZARD\DlgStrategyList.cpp

; 170  : 		::memset(&lf, 0x00, sizeof(LOGFONT));

  00093	66 0f 13 45 c3	 movlpd	 QWORD PTR _lf$3[ebp+35], xmm0
  00098	66 0f 13 45 cb	 movlpd	 QWORD PTR _lf$3[ebp+43], xmm0
  0009d	66 0f 13 45 d3	 movlpd	 QWORD PTR _lf$3[ebp+51], xmm0

; 171  : 		lf.lfWidth = 0; 

  000a2	0f 28 05 00 00
	00 00		 movaps	 xmm0, XMMWORD PTR __xmm@00000190000000000000000000000000
; File C:\Program Files (x86)\Microsoft Visual Studio\2019\Community\VC\Tools\MSVC\14.29.30133\atlmfc\include\afxwin1.inl

; 157  : 	{ return Attach(::CreateFontIndirect(lpLogFont)); }

  000a9	50		 push	 eax
; File D:\git\src\IBK\IBK_DRFN\ProjSrc\SrcDrfn\Chart\HWSTRATEGYCONFIGUREWIZARD\DlgStrategyList.cpp

; 170  : 		::memset(&lf, 0x00, sizeof(LOGFONT));

  000aa	c6 45 db 00	 mov	 BYTE PTR _lf$3[ebp+59], 0

; 171  : 		lf.lfWidth = 0; 

  000ae	0f 11 45 a4	 movups	 XMMWORD PTR _lf$3[ebp+4], xmm0

; 172  : 		lf.lfEscapement = 0; 
; 173  : 		lf.lfOrientation = 0; 
; 174  : 		lf.lfWeight = FW_NORMAL; 
; 175  : 		lf.lfItalic = 0; 

  000b2	c7 45 b4 00 00
	00 01		 mov	 DWORD PTR _lf$3[ebp+20], 16777216 ; 01000000H

; 176  : 		lf.lfUnderline = 0; 
; 177  : 		lf.lfStrikeOut = 0; 
; 178  : 		lf.lfCharSet = DEFAULT_CHARSET; 
; 179  : 		lf.lfOutPrecision = OUT_DEFAULT_PRECIS; 

  000b9	c7 45 b8 00 00
	00 10		 mov	 DWORD PTR _lf$3[ebp+24], 268435456 ; 10000000H

; 184  : 		lf.lfHeight = -12;

  000c0	c7 45 a0 f4 ff
	ff ff		 mov	 DWORD PTR _lf$3[ebp], -12 ; fffffff4H
; File C:\Program Files (x86)\Microsoft Visual Studio\2019\Community\VC\Tools\MSVC\14.29.30133\atlmfc\include\afxwin1.inl

; 157  : 	{ return Attach(::CreateFontIndirect(lpLogFont)); }

  000c7	ff 15 00 00 00
	00		 call	 DWORD PTR __imp__CreateFontIndirectA@4
  000cd	50		 push	 eax
  000ce	8b ce		 mov	 ecx, esi
  000d0	e8 00 00 00 00	 call	 ?Attach@CGdiObject@@QAEHPAX@Z ; CGdiObject::Attach
; File D:\git\src\IBK\IBK_DRFN\ProjSrc\SrcDrfn\Chart\HWSTRATEGYCONFIGUREWIZARD\DlgStrategyList.cpp

; 185  : 		if(!m_Font.CreateFontIndirect(&lf))

  000d5	85 c0		 test	 eax, eax
  000d7	0f 84 7b 01 00
	00		 je	 $LN33@InitGrid

; 188  : 		m_GridSTList.GetDefaultCell(FALSE, FALSE)->SetBackClr(RGB(0xff, 0xff, 0xff));

  000dd	8b 83 5c 01 00
	00		 mov	 eax, DWORD PTR [ebx+348]
; File D:\git\src\IBK\IBK_DRFN\ProjSrc\SrcDrfn\Chart\HWSTRATEGYCONFIGUREWIZARD\GridCtrl_src\GridCtrl.h

; 794  :     return (CGridCellBase*) &m_cellDefault;

  000e3	8d 8b 5c 01 00
	00		 lea	 ecx, DWORD PTR [ebx+348]
; File D:\git\src\IBK\IBK_DRFN\ProjSrc\SrcDrfn\Chart\HWSTRATEGYCONFIGUREWIZARD\DlgStrategyList.cpp

; 188  : 		m_GridSTList.GetDefaultCell(FALSE, FALSE)->SetBackClr(RGB(0xff, 0xff, 0xff));

  000e9	68 ff ff ff 00	 push	 16777215		; 00ffffffH
  000ee	ff 50 2c	 call	 DWORD PTR [eax+44]

; 189  : 		m_GridSTList.SetColumnCount(MAX_COL);

  000f1	6a 05		 push	 5
  000f3	8b cb		 mov	 ecx, ebx
  000f5	e8 00 00 00 00	 call	 ?SetColumnCount@CGridCtrl@@QAEHH@Z ; CGridCtrl::SetColumnCount

; 190  : 		m_GridSTList.SetFixedRowCount(1);

  000fa	6a 01		 push	 1
  000fc	8b cb		 mov	 ecx, ebx
  000fe	e8 00 00 00 00	 call	 ?SetFixedRowCount@CGridCtrl@@QAEHH@Z ; CGridCtrl::SetFixedRowCount

; 191  : 		m_GridSTList.SetColumnResize(FALSE);
; 192  : 		m_GridSTList.SetRowCount(1);

  00103	6a 01		 push	 1
  00105	8b cb		 mov	 ecx, ebx
  00107	c7 87 d0 12 00
	00 00 00 00 00	 mov	 DWORD PTR [edi+4816], 0
  00111	e8 00 00 00 00	 call	 ?SetRowCount@CGridCtrl@@QAEHH@Z ; CGridCtrl::SetRowCount

; 193  : 		m_GridSTList.SetListMode();

  00116	6a 01		 push	 1
  00118	8b cb		 mov	 ecx, ebx
  0011a	e8 00 00 00 00	 call	 ?SetListMode@CGridCtrl@@QAEXH@Z ; CGridCtrl::SetListMode

; 194  : 		m_GridSTList.SetRowHeight(0,20);

  0011f	6a 14		 push	 20			; 00000014H
  00121	6a 00		 push	 0
  00123	8b cb		 mov	 ecx, ebx
  00125	e8 00 00 00 00	 call	 ?SetRowHeight@CGridCtrl@@QAEHHH@Z ; CGridCtrl::SetRowHeight

; 195  : 		m_GridSTList.SetEditable(FALSE);

  0012a	c7 87 90 10 00
	00 00 00 00 00	 mov	 DWORD PTR [edi+4240], 0

; 196  : 		m_GridSTList.EnableTitleTips(FALSE);

  00134	c7 87 c4 10 00
	00 00 00 00 00	 mov	 DWORD PTR [edi+4292], 0

; 197  : 		m_GridSTList.SetTrackFocusCell(FALSE);

  0013e	c7 87 e4 10 00
	00 00 00 00 00	 mov	 DWORD PTR [edi+4324], 0

; 198  : 		m_GridSTList.SetSingleColSelection(FALSE);

  00148	c7 87 a4 10 00
	00 00 00 00 00	 mov	 DWORD PTR [edi+4260], 0

; 199  : 		m_GridSTList.SetSingleRowSelection();

  00152	c7 87 a0 10 00
	00 01 00 00 00	 mov	 DWORD PTR [edi+4256], 1

; 200  : 		m_GridSTList.SetFixedRowSelection(FALSE);

  0015c	c7 87 b0 10 00
	00 00 00 00 00	 mov	 DWORD PTR [edi+4272], 0

; 201  : 		m_GridSTList.SetFixedColumnSelection(FALSE);

  00166	c7 87 b4 10 00
	00 00 00 00 00	 mov	 DWORD PTR [edi+4276], 0

; 202  : 		m_GridSTList.SetBkColor(RGB(255,255,255));		

  00170	c7 87 60 10 00
	00 ff ff ff 00	 mov	 DWORD PTR [edi+4192], 16777215 ; 00ffffffH

; 203  : 		m_GridSTList.SetGridLineColor(RGB(204,210,224));

  0017a	c7 87 64 10 00
	00 cc d2 e0 00	 mov	 DWORD PTR [edi+4196], 14734028 ; 00e0d2ccH
; File C:\Program Files (x86)\Microsoft Visual Studio\2019\Community\VC\Tools\MSVC\14.29.30133\atlmfc\include\afxwin1.inl

; 68   : 	{ return this == NULL ? NULL : m_hObject; }

  00184	85 f6		 test	 esi, esi
  00186	75 04		 jne	 SHORT $LN27@InitGrid
  00188	33 c0		 xor	 eax, eax
  0018a	eb 03		 jmp	 SHORT $LN28@InitGrid
$LN27@InitGrid:
  0018c	8b 46 04	 mov	 eax, DWORD PTR [esi+4]
$LN28@InitGrid:
; File C:\Program Files (x86)\Microsoft Visual Studio\2019\Community\VC\Tools\MSVC\14.29.30133\atlmfc\include\afxwin2.inl

; 43   : 	{ ASSERT(::IsWindow(m_hWnd)); ::SendMessage(m_hWnd, WM_SETFONT, (WPARAM)pFont->GetSafeHandle(), bRedraw); }

  0018f	6a 01		 push	 1
  00191	50		 push	 eax
  00192	6a 30		 push	 48			; 00000030H
  00194	ff b7 f8 0f 00
	00		 push	 DWORD PTR [edi+4088]
  0019a	ff 15 00 00 00
	00		 call	 DWORD PTR __imp__SendMessageA@16
  001a0	8d 4d 9c	 lea	 ecx, DWORD PTR _Item$2[ebp+100]
; File D:\git\src\IBK\IBK_DRFN\ProjSrc\SrcDrfn\Chart\HWSTRATEGYCONFIGUREWIZARD\DlgStrategyList.cpp

; 206  : 		char *psztitle[MAX_COL] = {"", "", "", "", ""};

  001a3	c7 45 dc 00 00
	00 00		 mov	 DWORD PTR _psztitle$4[ebp], OFFSET ??_C@_04MGFIDEAB@?$MA?L?$LI?$KH@
  001aa	c7 45 e0 00 00
	00 00		 mov	 DWORD PTR _psztitle$4[ebp+4], OFFSET ??_C@_04JEFEGHFG@?A?$LG?$LA?G@
  001b1	c7 45 e4 00 00
	00 00		 mov	 DWORD PTR _psztitle$4[ebp+8], OFFSET ??_C@_04PFAGJEJF@?$LN?C?$LA?$KD@
  001b8	c7 45 e8 00 00
	00 00		 mov	 DWORD PTR _psztitle$4[ebp+12], OFFSET ??_C@_04BFOBCBBG@?$LM?v?A?$KE@
  001bf	c7 45 ec 00 00
	00 00		 mov	 DWORD PTR _psztitle$4[ebp+16], OFFSET ??_C@_04CFDBLPCI@?$LL?h?A?$KG@
  001c6	ff 15 00 00 00
	00		 call	 DWORD PTR __imp_??0?$CStringT@DV?$StrTraitMFC_DLL@DV?$ChTraitsCRT@D@ATL@@@@@ATL@@QAE@XZ

; 207  : 		GV_ITEM Item;
; 208  : 		for (int col = 0; col < m_GridSTList.GetColumnCount(); col++)

  001cc	33 f6		 xor	 esi, esi
  001ce	c7 45 fc 00 00
	00 00		 mov	 DWORD PTR __$EHRec$[ebp+8], 0
  001d5	39 b7 f8 10 00
	00		 cmp	 DWORD PTR [edi+4344], esi
  001db	7e 69		 jle	 SHORT $LN3@InitGrid
  001dd	0f 1f 00	 npad	 3
$LL4@InitGrid:

; 209  : 		{
; 210  : 			Item.row = 0;
; 211  : 			Item.col = col;
; 212  : 			Item.strText = psztitle[col];

  001e0	ff 74 b5 dc	 push	 DWORD PTR _psztitle$4[ebp+esi*4]
  001e4	8d 4d 9c	 lea	 ecx, DWORD PTR _Item$2[ebp+100]
  001e7	c7 85 38 ff ff
	ff 00 00 00 00	 mov	 DWORD PTR _Item$2[ebp], 0
  001f1	89 b5 3c ff ff
	ff		 mov	 DWORD PTR _Item$2[ebp+4], esi
  001f7	ff 15 00 00 00
	00		 call	 DWORD PTR __imp_??4?$CStringT@DV?$StrTraitMFC_DLL@DV?$ChTraitsCRT@D@ATL@@@@@ATL@@QAEAAV01@PBD@Z

; 213  :         
; 214  : 			Item.crBkClr = RGB(242,248,254);	// or - m_GridSTList.SetItemBkColour(row, col, clr);
; 215  : 			Item.crFgClr = RGB(0,0,0);			// or - m_GridSTList.SetItemFgColour(row, col, RGB(255,0,0));				    
; 216  : 			Item.nFormat = DT_CENTER;
; 217  : 			Item.nState =  GVIS_STATIC;
; 218  : 			Item.mask = GVIF_TEXT|GVIF_FORMAT|GVIF_FGCLR|GVIF_BKCLR|GVIF_STATE;
; 219  : 			
; 220  : 			m_GridSTList.SetItem(&Item);

  001fd	8d 85 38 ff ff
	ff		 lea	 eax, DWORD PTR _Item$2[ebp]
  00203	c7 85 50 ff ff
	ff f2 f8 fe 00	 mov	 DWORD PTR _Item$2[ebp+24], 16709874 ; 00fef8f2H
  0020d	50		 push	 eax
  0020e	8b cb		 mov	 ecx, ebx
  00210	c7 85 54 ff ff
	ff 00 00 00 00	 mov	 DWORD PTR _Item$2[ebp+28], 0
  0021a	c7 85 48 ff ff
	ff 01 00 00 00	 mov	 DWORD PTR _Item$2[ebp+16], 1
  00224	c7 85 44 ff ff
	ff 00 01 00 00	 mov	 DWORD PTR _Item$2[ebp+12], 256 ; 00000100H
  0022e	c7 85 40 ff ff
	ff 79 00 00 00	 mov	 DWORD PTR _Item$2[ebp+8], 121 ; 00000079H
  00238	e8 00 00 00 00	 call	 ?SetItem@CGridCtrl@@QAEHPBU_GV_ITEM@@@Z ; CGridCtrl::SetItem
  0023d	46		 inc	 esi
  0023e	3b b7 f8 10 00
	00		 cmp	 esi, DWORD PTR [edi+4344]
  00244	7c 9a		 jl	 SHORT $LL4@InitGrid
$LN3@InitGrid:

; 221  : 		}
; 222  : 		
; 223  :   		m_GridSTList.ExpandColumnsToFit();

  00246	6a 01		 push	 1
  00248	8b cb		 mov	 ecx, ebx
  0024a	e8 00 00 00 00	 call	 ?ExpandColumnsToFit@CGridCtrl@@QAEXH@Z ; CGridCtrl::ExpandColumnsToFit
  0024f	8d 4d 9c	 lea	 ecx, DWORD PTR _Item$2[ebp+100]
  00252	ff 15 00 00 00
	00		 call	 DWORD PTR __imp_??1?$CStringT@DV?$StrTraitMFC_DLL@DV?$ChTraitsCRT@D@ATL@@@@@ATL@@QAE@XZ
$LN33@InitGrid:

; 224  : 	}	
; 225  : }

  00258	8b 4d f4	 mov	 ecx, DWORD PTR __$EHRec$[ebp]
  0025b	64 89 0d 00 00
	00 00		 mov	 DWORD PTR fs:0, ecx
  00262	59		 pop	 ecx
  00263	5f		 pop	 edi
  00264	5e		 pop	 esi
  00265	5b		 pop	 ebx
  00266	8b 4d f0	 mov	 ecx, DWORD PTR __$ArrayPad$[ebp]
  00269	33 cd		 xor	 ecx, ebp
  0026b	e8 00 00 00 00	 call	 @__security_check_cookie@4
  00270	8b e5		 mov	 esp, ebp
  00272	5d		 pop	 ebp
  00273	c3		 ret	 0
_TEXT	ENDS
;	COMDAT text$x
text$x	SEGMENT
__unwindfunclet$?InitGrid@CDlgStrategyList@@IAEXXZ$0:
  00000	8d 8d 38 ff ff
	ff		 lea	 ecx, DWORD PTR _Item$2[ebp]
  00006	e9 00 00 00 00	 jmp	 ??1_GV_ITEM@@QAE@XZ
  0000b	cc		 int	 3
  0000c	cc		 int	 3
  0000d	cc		 int	 3
  0000e	cc		 int	 3
  0000f	cc		 int	 3
__ehhandler$?InitGrid@CDlgStrategyList@@IAEXXZ:
  00010	90		 npad	 1
  00011	90		 npad	 1
  00012	8b 54 24 08	 mov	 edx, DWORD PTR [esp+8]
  00016	8d 42 0c	 lea	 eax, DWORD PTR [edx+12]
  00019	8b 8a 34 ff ff
	ff		 mov	 ecx, DWORD PTR [edx-204]
  0001f	33 c8		 xor	 ecx, eax
  00021	e8 00 00 00 00	 call	 @__security_check_cookie@4
  00026	8b 4a fc	 mov	 ecx, DWORD PTR [edx-4]
  00029	33 c8		 xor	 ecx, eax
  0002b	e8 00 00 00 00	 call	 @__security_check_cookie@4
  00030	b8 00 00 00 00	 mov	 eax, OFFSET __ehfuncinfo$?InitGrid@CDlgStrategyList@@IAEXXZ
  00035	e9 00 00 00 00	 jmp	 ___CxxFrameHandler3
text$x	ENDS
?InitGrid@CDlgStrategyList@@IAEXXZ ENDP			; CDlgStrategyList::InitGrid
; Function compile flags: /Ogtp
; File D:\git\src\IBK\IBK_DRFN\ProjSrc\SrcDrfn\Chart\HWSTRATEGYCONFIGUREWIZARD\DlgStrategyList.cpp
; File C:\Program Files (x86)\Microsoft Visual Studio\2019\Community\VC\Tools\MSVC\14.29.30133\atlmfc\include\atlsimpstr.h
; File D:\git\src\IBK\IBK_DRFN\ProjSrc\SrcDrfn\Chart\HWSTRATEGYCONFIGUREWIZARD\DlgStrategyList.cpp
; File C:\Program Files (x86)\Microsoft Visual Studio\2019\Community\VC\Tools\MSVC\14.29.30133\atlmfc\include\atlsimpstr.h
; File D:\git\src\IBK\IBK_DRFN\ProjSrc\SrcDrfn\Chart\HWSTRATEGYCONFIGUREWIZARD\DlgStrategyList.cpp
; File C:\Program Files (x86)\Microsoft Visual Studio\2019\Community\VC\Tools\MSVC\14.29.30133\atlmfc\include\cstringt.h
; File D:\git\src\IBK\IBK_DRFN\ProjSrc\SrcDrfn\Chart\HWSTRATEGYCONFIGUREWIZARD\DlgStrategyList.cpp
; File C:\Program Files (x86)\Microsoft Visual Studio\2019\Community\VC\Tools\MSVC\14.29.30133\atlmfc\include\cstringt.h
; File D:\git\src\IBK\IBK_DRFN\ProjSrc\SrcDrfn\Chart\HWSTRATEGYCONFIGUREWIZARD\DlgStrategyList.cpp
; File C:\Program Files (x86)\Microsoft Visual Studio\2019\Community\VC\Tools\MSVC\14.29.30133\atlmfc\include\cstringt.h
; File D:\git\src\IBK\IBK_DRFN\ProjSrc\SrcDrfn\Chart\HWSTRATEGYCONFIGUREWIZARD\DlgStrategyList.cpp
; File C:\Program Files (x86)\Microsoft Visual Studio\2019\Community\VC\Tools\MSVC\14.29.30133\atlmfc\include\cstringt.h
; File D:\git\src\IBK\IBK_DRFN\ProjSrc\SrcDrfn\Chart\HWSTRATEGYCONFIGUREWIZARD\DlgStrategyList.cpp
; File C:\Program Files (x86)\Microsoft Visual Studio\2019\Community\VC\Tools\MSVC\14.29.30133\atlmfc\include\atltypes.h
; File D:\git\src\IBK\IBK_DRFN\ProjSrc\SrcDrfn\Chart\HWSTRATEGYCONFIGUREWIZARD\DlgStrategyList.cpp
; File C:\Program Files (x86)\Microsoft Visual Studio\2019\Community\VC\Tools\MSVC\14.29.30133\atlmfc\include\atltypes.h
; File D:\git\src\IBK\IBK_DRFN\ProjSrc\SrcDrfn\Chart\HWSTRATEGYCONFIGUREWIZARD\DlgStrategyList.cpp
; File C:\Program Files (x86)\Microsoft Visual Studio\2019\Community\VC\Tools\MSVC\14.29.30133\atlmfc\include\afxwin2.inl
; File D:\git\src\IBK\IBK_DRFN\ProjSrc\SrcDrfn\Chart\HWSTRATEGYCONFIGUREWIZARD\DlgStrategyList.cpp
; File C:\Program Files (x86)\Microsoft Visual Studio\2019\Community\VC\Tools\MSVC\14.29.30133\atlmfc\include\afxwin2.inl
; File D:\git\src\IBK\IBK_DRFN\ProjSrc\SrcDrfn\Chart\HWSTRATEGYCONFIGUREWIZARD\DlgStrategyList.cpp
;	COMDAT ?OnClickGridSTList@CDlgStrategyList@@QAEXHH@Z
_TEXT	SEGMENT
_strTimeType$2 = -48					; size = 4
_szTitle$3 = -44					; size = 4
$T4 = -44						; size = 4
$T5 = -44						; size = 4
$T6 = -44						; size = 4
_szScriptName$7 = -40					; size = 4
_strTimeFromGrid$8 = -40				; size = 4
_strIndex$9 = -40					; size = 4
_szTitle$10 = -36					; size = 4
_strTimeNum$11 = -36					; size = 4
_rect$12 = -32						; size = 16
__$ArrayPad$ = -16					; size = 4
__$EHRec$ = -12						; size = 12
_nRow$ = 8						; size = 4
_nCol$ = 12						; size = 4
?OnClickGridSTList@CDlgStrategyList@@QAEXHH@Z PROC	; CDlgStrategyList::OnClickGridSTList, COMDAT
; _this$ = ecx

; 736  : {

  00000	55		 push	 ebp
  00001	8b ec		 mov	 ebp, esp
  00003	6a ff		 push	 -1
  00005	68 00 00 00 00	 push	 __ehhandler$?OnClickGridSTList@CDlgStrategyList@@QAEXHH@Z
  0000a	64 a1 00 00 00
	00		 mov	 eax, DWORD PTR fs:0
  00010	50		 push	 eax
  00011	83 ec 24	 sub	 esp, 36			; 00000024H
  00014	a1 00 00 00 00	 mov	 eax, DWORD PTR ___security_cookie
  00019	33 c5		 xor	 eax, ebp
  0001b	89 45 f0	 mov	 DWORD PTR __$ArrayPad$[ebp], eax
  0001e	53		 push	 ebx
  0001f	56		 push	 esi
  00020	57		 push	 edi
  00021	50		 push	 eax
  00022	8d 45 f4	 lea	 eax, DWORD PTR __$EHRec$[ebp]
  00025	64 a3 00 00 00
	00		 mov	 DWORD PTR fs:0, eax
  0002b	8b f1		 mov	 esi, ecx
  0002d	8b 7d 08	 mov	 edi, DWORD PTR _nRow$[ebp]

; 737  : 	if(nRow<=0) return;

  00030	85 ff		 test	 edi, edi
  00032	0f 8e a6 02 00
	00		 jle	 $LN14@OnClickGri

; 738  : 	if(nCol==COL_DELETE)

  00038	8b 45 0c	 mov	 eax, DWORD PTR _nCol$[ebp]
  0003b	8d 9e d8 0f 00
	00		 lea	 ebx, DWORD PTR [esi+4056]
  00041	8b cb		 mov	 ecx, ebx
  00043	6a 01		 push	 1
  00045	83 f8 04	 cmp	 eax, 4
  00048	75 6e		 jne	 SHORT $LN3@OnClickGri

; 739  : 	{
; 740  : 		m_GridSTList.SetSelectedRange(nRow,0,nRow,MAX_COL-1);

  0004a	6a 00		 push	 0
  0004c	50		 push	 eax
  0004d	57		 push	 edi
  0004e	6a 00		 push	 0
  00050	57		 push	 edi
  00051	e8 00 00 00 00	 call	 ?SetSelectedRange@CGridCtrl@@QAEXHHHHHH@Z ; CGridCtrl::SetSelectedRange

; 741  : 		//CSDItemInfo * pSDItemInfo = (CSDItemInfo *)m_GridSTList.GetItemData(nRow,COL_INFOPOINTER);
; 742  : 		//if(!pSDItemInfo) return;
; 743  : 		//
; 744  : 		//pSDItemInfo->GetpISTControllerD()->DeleteConfig();
; 745  : 		//delete pSDItemInfo;
; 746  : 
; 747  : 		CString strIndex = m_GridSTList.GetItemText(nRow,COL_NO);

  00056	6a 00		 push	 0
  00058	57		 push	 edi
  00059	8d 45 d8	 lea	 eax, DWORD PTR _strIndex$9[ebp]
  0005c	8b cb		 mov	 ecx, ebx
  0005e	50		 push	 eax
  0005f	e8 00 00 00 00	 call	 ?GetItemText@CGridCtrl@@QBE?AV?$CStringT@DV?$StrTraitMFC_DLL@DV?$ChTraitsCRT@D@ATL@@@@@ATL@@HH@Z ; CGridCtrl::GetItemText

; 748  : 		m_GridSTList.DeleteRow(nRow);

  00064	57		 push	 edi
  00065	8b cb		 mov	 ecx, ebx
  00067	c7 45 fc 00 00
	00 00		 mov	 DWORD PTR __$EHRec$[ebp+8], 0
  0006e	e8 00 00 00 00	 call	 ?DeleteRow@CGridCtrl@@QAEHH@Z ; CGridCtrl::DeleteRow

; 749  : 
; 750  : 		m_ctrlLogic.DeleteElement(strIndex[0]);

  00073	6a 00		 push	 0
  00075	8d 4d d8	 lea	 ecx, DWORD PTR _strIndex$9[ebp]
  00078	ff 15 00 00 00
	00		 call	 DWORD PTR __imp_??A?$CSimpleStringT@D$00@ATL@@QBEDH@Z
  0007e	0f b6 c0	 movzx	 eax, al
  00081	8d 8e 30 02 00
	00		 lea	 ecx, DWORD PTR [esi+560]
  00087	50		 push	 eax
  00088	e8 00 00 00 00	 call	 ?DeleteElement@CLogicEditCtrl@@QAEXD@Z ; CLogicEditCtrl::DeleteElement

; 751  : 
; 752  : 		//   
; 753  : 		SetDlgItemText(IDC_EDIT_STNAME, "");

  0008d	68 00 00 00 00	 push	 OFFSET ??_C@_00CNPNBAHC@@
  00092	68 0a 52 00 00	 push	 21002			; 0000520aH
  00097	8b ce		 mov	 ecx, esi
  00099	e8 00 00 00 00	 call	 ?SetDlgItemTextA@CWnd@@QAEXHPBD@Z ; CWnd::SetDlgItemTextA

; 754  : 		m_InputList.DeleteAllItems();

  0009e	8d 8e 18 0e 00
	00		 lea	 ecx, DWORD PTR [esi+3608]
  000a4	e8 00 00 00 00	 call	 ?DeleteAllItems@CXListCtrl@@QAEHXZ ; CXListCtrl::DeleteAllItems

; 755  : 
; 756  : 		ResizeAll();

  000a9	8b ce		 mov	 ecx, esi
  000ab	e8 00 00 00 00	 call	 ?ResizeAll@CDlgStrategyList@@QAEXXZ ; CDlgStrategyList::ResizeAll

; 757  : 	}

  000b0	8d 4d d8	 lea	 ecx, DWORD PTR _strIndex$9[ebp]
  000b3	e9 20 02 00 00	 jmp	 $LN60@OnClickGri
$LN3@OnClickGri:

; 758  : 	else if(nCol==COL_TIME)

  000b8	57		 push	 edi
  000b9	83 f8 02	 cmp	 eax, 2
  000bc	0f 85 54 01 00
	00		 jne	 $LN5@OnClickGri

; 759  : 	{
; 760  : 		CSDItemInfo * pSDItemInfo = (CSDItemInfo *)m_GridSTList.GetItemData(nRow,COL_INFOPOINTER);

  000c2	e8 00 00 00 00	 call	 ?GetItemData@CGridCtrl@@QBEJHH@Z ; CGridCtrl::GetItemData

; 761  : 		CString strTimeFromGrid = m_GridSTList.GetItemText(nRow,COL_TIME);

  000c7	6a 02		 push	 2
  000c9	57		 push	 edi
  000ca	8d 45 d8	 lea	 eax, DWORD PTR _strTimeFromGrid$8[ebp]
  000cd	8b cb		 mov	 ecx, ebx
  000cf	50		 push	 eax
  000d0	e8 00 00 00 00	 call	 ?GetItemText@CGridCtrl@@QBE?AV?$CStringT@DV?$StrTraitMFC_DLL@DV?$ChTraitsCRT@D@ATL@@@@@ATL@@HH@Z ; CGridCtrl::GetItemText

; 762  : 		CString strTimeType = strTimeFromGrid.Right(2);

  000d5	6a 02		 push	 2
  000d7	8d 45 d0	 lea	 eax, DWORD PTR _strTimeType$2[ebp]
  000da	c7 45 fc 01 00
	00 00		 mov	 DWORD PTR __$EHRec$[ebp+8], 1
  000e1	50		 push	 eax
  000e2	8d 4d d8	 lea	 ecx, DWORD PTR _strTimeFromGrid$8[ebp]
  000e5	ff 15 00 00 00
	00		 call	 DWORD PTR __imp_?Right@?$CStringT@DV?$StrTraitMFC_DLL@DV?$ChTraitsCRT@D@ATL@@@@@ATL@@QBE?AV12@H@Z

; 763  : 		CString strTimeNum;

  000eb	8d 4d dc	 lea	 ecx, DWORD PTR _strTimeNum$11[ebp]
  000ee	ff 15 00 00 00
	00		 call	 DWORD PTR __imp_??0?$CStringT@DV?$StrTraitMFC_DLL@DV?$ChTraitsCRT@D@ATL@@@@@ATL@@QAE@XZ
; File C:\Program Files (x86)\Microsoft Visual Studio\2019\Community\VC\Tools\MSVC\14.29.30133\atlmfc\include\atlsimpstr.h

; 519  : 		return( GetData()->nDataLength );

  000f4	8b 45 d8	 mov	 eax, DWORD PTR _strTimeFromGrid$8[ebp]
; File D:\git\src\IBK\IBK_DRFN\ProjSrc\SrcDrfn\Chart\HWSTRATEGYCONFIGUREWIZARD\DlgStrategyList.cpp

; 763  : 		CString strTimeNum;

  000f7	c6 45 fc 03	 mov	 BYTE PTR __$EHRec$[ebp+8], 3
; File C:\Program Files (x86)\Microsoft Visual Studio\2019\Community\VC\Tools\MSVC\14.29.30133\atlmfc\include\atlsimpstr.h

; 519  : 		return( GetData()->nDataLength );

  000fb	8b 40 f4	 mov	 eax, DWORD PTR [eax-12]
; File D:\git\src\IBK\IBK_DRFN\ProjSrc\SrcDrfn\Chart\HWSTRATEGYCONFIGUREWIZARD\DlgStrategyList.cpp

; 765  : 		if(nLength>2)

  000fe	83 f8 02	 cmp	 eax, 2
  00101	7e 2c		 jle	 SHORT $LN7@OnClickGri

; 766  : 			strTimeNum = strTimeFromGrid.Left(nLength-2);

  00103	83 c0 fe	 add	 eax, -2			; fffffffeH
  00106	8d 4d d8	 lea	 ecx, DWORD PTR _strTimeFromGrid$8[ebp]
  00109	50		 push	 eax
  0010a	8d 45 d4	 lea	 eax, DWORD PTR $T6[ebp]
  0010d	50		 push	 eax
  0010e	ff 15 00 00 00
	00		 call	 DWORD PTR __imp_?Left@?$CStringT@DV?$StrTraitMFC_DLL@DV?$ChTraitsCRT@D@ATL@@@@@ATL@@QBE?AV12@H@Z
  00114	50		 push	 eax
  00115	8d 4d dc	 lea	 ecx, DWORD PTR _strTimeNum$11[ebp]
  00118	c6 45 fc 04	 mov	 BYTE PTR __$EHRec$[ebp+8], 4
  0011c	ff 15 00 00 00
	00		 call	 DWORD PTR __imp_??4?$CStringT@DV?$StrTraitMFC_DLL@DV?$ChTraitsCRT@D@ATL@@@@@ATL@@QAEAAV01@ABV01@@Z
  00122	8d 4d d4	 lea	 ecx, DWORD PTR $T6[ebp]
  00125	c6 45 fc 03	 mov	 BYTE PTR __$EHRec$[ebp+8], 3
  00129	ff 15 00 00 00
	00		 call	 DWORD PTR __imp_??1?$CStringT@DV?$StrTraitMFC_DLL@DV?$ChTraitsCRT@D@ATL@@@@@ATL@@QAE@XZ
$LN7@OnClickGri:
; File C:\Program Files (x86)\Microsoft Visual Studio\2019\Community\VC\Tools\MSVC\14.29.30133\atlmfc\include\cstringt.h

; 2486 : 		return(str1.Compare(psz2) == 0);

  0012f	68 00 00 00 00	 push	 OFFSET ??_C@_02NNHDHLCM@?$MA?O@
  00134	8d 4d d0	 lea	 ecx, DWORD PTR _strTimeType$2[ebp]
; File D:\git\src\IBK\IBK_DRFN\ProjSrc\SrcDrfn\Chart\HWSTRATEGYCONFIGUREWIZARD\DlgStrategyList.cpp

; 768  : 		m_dlgTimeSelector.m_lRow = nRow;

  00137	89 be e4 16 00
	00		 mov	 DWORD PTR [esi+5860], edi
; File C:\Program Files (x86)\Microsoft Visual Studio\2019\Community\VC\Tools\MSVC\14.29.30133\atlmfc\include\cstringt.h

; 2486 : 		return(str1.Compare(psz2) == 0);

  0013d	ff 15 00 00 00
	00		 call	 DWORD PTR __imp_?Compare@?$CStringT@DV?$StrTraitMFC_DLL@DV?$ChTraitsCRT@D@ATL@@@@@ATL@@QBEHPBD@Z
  00143	85 c0		 test	 eax, eax
; File D:\git\src\IBK\IBK_DRFN\ProjSrc\SrcDrfn\Chart\HWSTRATEGYCONFIGUREWIZARD\DlgStrategyList.cpp

; 769  : 		if(strTimeType=="")

  00145	75 08		 jne	 SHORT $LN8@OnClickGri

; 770  : 			m_dlgTimeSelector.m_nOption = 0;

  00147	89 86 d8 16 00
	00		 mov	 DWORD PTR [esi+5848], eax
  0014d	eb 5b		 jmp	 SHORT $LN12@OnClickGri
$LN8@OnClickGri:
; File C:\Program Files (x86)\Microsoft Visual Studio\2019\Community\VC\Tools\MSVC\14.29.30133\atlmfc\include\cstringt.h

; 2486 : 		return(str1.Compare(psz2) == 0);

  0014f	68 00 00 00 00	 push	 OFFSET ??_C@_02EJEPJIDE@?$LK?P@
  00154	8d 4d d0	 lea	 ecx, DWORD PTR _strTimeType$2[ebp]
  00157	ff 15 00 00 00
	00		 call	 DWORD PTR __imp_?Compare@?$CStringT@DV?$StrTraitMFC_DLL@DV?$ChTraitsCRT@D@ATL@@@@@ATL@@QBEHPBD@Z
  0015d	85 c0		 test	 eax, eax
; File D:\git\src\IBK\IBK_DRFN\ProjSrc\SrcDrfn\Chart\HWSTRATEGYCONFIGUREWIZARD\DlgStrategyList.cpp

; 771  : 		else if(strTimeType=="")

  0015f	75 1b		 jne	 SHORT $LN10@OnClickGri

; 772  : 		{
; 773  : 			m_dlgTimeSelector.m_nOption = 1;
; 774  : 			m_dlgTimeSelector.m_nMinute = atoi(strTimeNum);

  00161	ff 75 dc	 push	 DWORD PTR _strTimeNum$11[ebp]
  00164	c7 86 d8 16 00
	00 01 00 00 00	 mov	 DWORD PTR [esi+5848], 1
  0016e	ff 15 00 00 00
	00		 call	 DWORD PTR __imp__atoi
  00174	89 86 dc 16 00
	00		 mov	 DWORD PTR [esi+5852], eax

; 775  : 		}

  0017a	eb 2b		 jmp	 SHORT $LN61@OnClickGri
$LN10@OnClickGri:
; File C:\Program Files (x86)\Microsoft Visual Studio\2019\Community\VC\Tools\MSVC\14.29.30133\atlmfc\include\cstringt.h

; 2486 : 		return(str1.Compare(psz2) == 0);

  0017c	68 00 00 00 00	 push	 OFFSET ??_C@_02MEPHBMOK@?F?$LN@
  00181	8d 4d d0	 lea	 ecx, DWORD PTR _strTimeType$2[ebp]
  00184	ff 15 00 00 00
	00		 call	 DWORD PTR __imp_?Compare@?$CStringT@DV?$StrTraitMFC_DLL@DV?$ChTraitsCRT@D@ATL@@@@@ATL@@QBEHPBD@Z
  0018a	85 c0		 test	 eax, eax
; File D:\git\src\IBK\IBK_DRFN\ProjSrc\SrcDrfn\Chart\HWSTRATEGYCONFIGUREWIZARD\DlgStrategyList.cpp

; 776  : 		else if(strTimeType=="")

  0018c	75 1c		 jne	 SHORT $LN12@OnClickGri

; 777  : 		{
; 778  : 			m_dlgTimeSelector.m_nOption = 2;
; 779  : 			m_dlgTimeSelector.m_nTick = atoi(strTimeNum);

  0018e	ff 75 dc	 push	 DWORD PTR _strTimeNum$11[ebp]
  00191	c7 86 d8 16 00
	00 02 00 00 00	 mov	 DWORD PTR [esi+5848], 2
  0019b	ff 15 00 00 00
	00		 call	 DWORD PTR __imp__atoi
  001a1	89 86 e0 16 00
	00		 mov	 DWORD PTR [esi+5856], eax
$LN61@OnClickGri:
; File C:\Program Files (x86)\Microsoft Visual Studio\2019\Community\VC\Tools\MSVC\14.29.30133\atlmfc\include\atltypes.h

; 528  : 	left = 0;

  001a7	83 c4 04	 add	 esp, 4
$LN12@OnClickGri:
; File D:\git\src\IBK\IBK_DRFN\ProjSrc\SrcDrfn\Chart\HWSTRATEGYCONFIGUREWIZARD\DlgStrategyList.cpp

; 783  : 		m_GridSTList.GetCellRect(nRow,nCol,rect);

  001aa	8d 45 e0	 lea	 eax, DWORD PTR _rect$12[ebp]
  001ad	0f 57 c0	 xorps	 xmm0, xmm0
  001b0	50		 push	 eax
  001b1	6a 02		 push	 2
  001b3	57		 push	 edi
  001b4	8b cb		 mov	 ecx, ebx
; File C:\Program Files (x86)\Microsoft Visual Studio\2019\Community\VC\Tools\MSVC\14.29.30133\atlmfc\include\atltypes.h

; 528  : 	left = 0;

  001b6	0f 11 45 e0	 movups	 XMMWORD PTR _rect$12[ebp], xmm0
; File D:\git\src\IBK\IBK_DRFN\ProjSrc\SrcDrfn\Chart\HWSTRATEGYCONFIGUREWIZARD\DlgStrategyList.cpp

; 783  : 		m_GridSTList.GetCellRect(nRow,nCol,rect);

  001ba	e8 00 00 00 00	 call	 ?GetCellRect@CGridCtrl@@QAEHHHPAUtagRECT@@@Z ; CGridCtrl::GetCellRect

; 784  : 		ClientToScreen(rect);

  001bf	8d 45 e0	 lea	 eax, DWORD PTR _rect$12[ebp]
  001c2	8b ce		 mov	 ecx, esi
  001c4	50		 push	 eax
  001c5	e8 00 00 00 00	 call	 ?ClientToScreen@CWnd@@QBEXPAUtagRECT@@@Z ; CWnd::ClientToScreen

; 785  : 		m_dlgTimeSelector.UpdateData(FALSE);

  001ca	6a 00		 push	 0
  001cc	8d 8e 90 14 00
	00		 lea	 ecx, DWORD PTR [esi+5264]
  001d2	e8 00 00 00 00	 call	 ?UpdateData@CDlgTimeSelector@@QAEHH@Z ; CDlgTimeSelector::UpdateData

; 786  : 		m_dlgTimeSelector.SetWindowPos(NULL,rect.right,rect.bottom + rect.Height()*2,0,0,SWP_NOSIZE|SWP_SHOWWINDOW);

  001d7	8b 45 e4	 mov	 eax, DWORD PTR _rect$12[ebp+4]
  001da	8d 8e 90 14 00
	00		 lea	 ecx, DWORD PTR [esi+5264]
  001e0	6a 41		 push	 65			; 00000041H
  001e2	6a 00		 push	 0
  001e4	6a 00		 push	 0
  001e6	8d 14 00	 lea	 edx, DWORD PTR [eax+eax]
  001e9	8b 45 ec	 mov	 eax, DWORD PTR _rect$12[ebp+12]
  001ec	8d 04 40	 lea	 eax, DWORD PTR [eax+eax*2]
  001ef	2b c2		 sub	 eax, edx
  001f1	50		 push	 eax
  001f2	ff 75 e8	 push	 DWORD PTR _rect$12[ebp+8]
  001f5	6a 00		 push	 0
  001f7	e8 00 00 00 00	 call	 ?SetWindowPos@CWnd@@QAEHPBV1@HHHHI@Z ; CWnd::SetWindowPos

; 787  : 	}

  001fc	8d 4d dc	 lea	 ecx, DWORD PTR _strTimeNum$11[ebp]
  001ff	ff 15 00 00 00
	00		 call	 DWORD PTR __imp_??1?$CStringT@DV?$StrTraitMFC_DLL@DV?$ChTraitsCRT@D@ATL@@@@@ATL@@QAE@XZ
  00205	8d 4d d0	 lea	 ecx, DWORD PTR _strTimeType$2[ebp]
  00208	ff 15 00 00 00
	00		 call	 DWORD PTR __imp_??1?$CStringT@DV?$StrTraitMFC_DLL@DV?$ChTraitsCRT@D@ATL@@@@@ATL@@QAE@XZ
  0020e	8d 4d d8	 lea	 ecx, DWORD PTR _strTimeFromGrid$8[ebp]
  00211	e9 c2 00 00 00	 jmp	 $LN60@OnClickGri
$LN5@OnClickGri:

; 788  : 	else if(nCol==COL_EDIT)

  00216	83 f8 03	 cmp	 eax, 3
  00219	0f 85 9a 00 00
	00		 jne	 $LN13@OnClickGri

; 789  : 	{
; 790  : 		//CSDItemInfo * pSDItemInfo = (CSDItemInfo *)m_GridSTList.GetItemData(nRow,COL_INFOPOINTER);
; 791  : 		//CString szScriptName = pSDItemInfo->m_strName + ".sts";
; 792  : 	
; 793  : 		CString szTitle = m_GridSTList.GetItemText(nRow,COL_TITLE);

  0021f	8d 45 dc	 lea	 eax, DWORD PTR _szTitle$10[ebp]
  00222	50		 push	 eax
  00223	e8 00 00 00 00	 call	 ?GetItemText@CGridCtrl@@QBE?AV?$CStringT@DV?$StrTraitMFC_DLL@DV?$ChTraitsCRT@D@ATL@@@@@ATL@@HH@Z ; CGridCtrl::GetItemText

; 794  : 		int nEndPos = szTitle.Find('(');

  00228	6a 00		 push	 0
  0022a	6a 28		 push	 40			; 00000028H
  0022c	8d 4d dc	 lea	 ecx, DWORD PTR _szTitle$10[ebp]
  0022f	c7 45 fc 05 00
	00 00		 mov	 DWORD PTR __$EHRec$[ebp+8], 5
  00236	ff 15 00 00 00
	00		 call	 DWORD PTR __imp_?Find@?$CStringT@DV?$StrTraitMFC_DLL@DV?$ChTraitsCRT@D@ATL@@@@@ATL@@QBEHDH@Z

; 795  : 		szTitle = szTitle.Left(nEndPos);

  0023c	50		 push	 eax
  0023d	8d 45 d4	 lea	 eax, DWORD PTR $T5[ebp]
  00240	50		 push	 eax
  00241	8d 4d dc	 lea	 ecx, DWORD PTR _szTitle$10[ebp]
  00244	ff 15 00 00 00
	00		 call	 DWORD PTR __imp_?Left@?$CStringT@DV?$StrTraitMFC_DLL@DV?$ChTraitsCRT@D@ATL@@@@@ATL@@QBE?AV12@H@Z
  0024a	50		 push	 eax
  0024b	8d 4d dc	 lea	 ecx, DWORD PTR _szTitle$10[ebp]
  0024e	c6 45 fc 06	 mov	 BYTE PTR __$EHRec$[ebp+8], 6
  00252	ff 15 00 00 00
	00		 call	 DWORD PTR __imp_??4?$CStringT@DV?$StrTraitMFC_DLL@DV?$ChTraitsCRT@D@ATL@@@@@ATL@@QAEAAV01@ABV01@@Z
  00258	8d 4d d4	 lea	 ecx, DWORD PTR $T5[ebp]
  0025b	c6 45 fc 05	 mov	 BYTE PTR __$EHRec$[ebp+8], 5
  0025f	ff 15 00 00 00
	00		 call	 DWORD PTR __imp_??1?$CStringT@DV?$StrTraitMFC_DLL@DV?$ChTraitsCRT@D@ATL@@@@@ATL@@QAE@XZ

; 796  : 		CString szScriptName = szTitle + ".sts";

  00265	68 00 00 00 00	 push	 OFFSET ??_C@_04GJEMHMEM@?4sts@
  0026a	8d 45 dc	 lea	 eax, DWORD PTR _szTitle$10[ebp]
  0026d	50		 push	 eax
  0026e	8d 45 d8	 lea	 eax, DWORD PTR _szScriptName$7[ebp]
  00271	50		 push	 eax
  00272	e8 00 00 00 00	 call	 ??HATL@@YA?AV?$CStringT@DV?$StrTraitMFC_DLL@DV?$ChTraitsCRT@D@ATL@@@@@0@ABV10@PBD@Z ; ATL::operator+

; 797  : 		((CDlgStrategyConfigure*)GetParent())->LoadEditor(szScriptName);

  00277	83 c4 08	 add	 esp, 8
  0027a	c6 45 fc 07	 mov	 BYTE PTR __$EHRec$[ebp+8], 7
  0027e	8d 45 d8	 lea	 eax, DWORD PTR _szScriptName$7[ebp]
  00281	89 65 d4	 mov	 DWORD PTR $T4[ebp], esp
  00284	8b cc		 mov	 ecx, esp
  00286	50		 push	 eax
  00287	ff 15 00 00 00
	00		 call	 DWORD PTR __imp_??0?$CStringT@DV?$StrTraitMFC_DLL@DV?$ChTraitsCRT@D@ATL@@@@@ATL@@QAE@ABV01@@Z
; File C:\Program Files (x86)\Microsoft Visual Studio\2019\Community\VC\Tools\MSVC\14.29.30133\atlmfc\include\afxwin2.inl

; 213  : 	{ ASSERT(::IsWindow(m_hWnd)); return CWnd::FromHandle(::GetParent(m_hWnd)); }

  0028d	ff 76 20	 push	 DWORD PTR [esi+32]
; File D:\git\src\IBK\IBK_DRFN\ProjSrc\SrcDrfn\Chart\HWSTRATEGYCONFIGUREWIZARD\DlgStrategyList.cpp

; 797  : 		((CDlgStrategyConfigure*)GetParent())->LoadEditor(szScriptName);

  00290	c6 45 fc 08	 mov	 BYTE PTR __$EHRec$[ebp+8], 8
; File C:\Program Files (x86)\Microsoft Visual Studio\2019\Community\VC\Tools\MSVC\14.29.30133\atlmfc\include\afxwin2.inl

; 213  : 	{ ASSERT(::IsWindow(m_hWnd)); return CWnd::FromHandle(::GetParent(m_hWnd)); }

  00294	ff 15 00 00 00
	00		 call	 DWORD PTR __imp__GetParent@4
  0029a	50		 push	 eax
  0029b	e8 00 00 00 00	 call	 ?FromHandle@CWnd@@SGPAV1@PAUHWND__@@@Z ; CWnd::FromHandle
; File D:\git\src\IBK\IBK_DRFN\ProjSrc\SrcDrfn\Chart\HWSTRATEGYCONFIGUREWIZARD\DlgStrategyList.cpp

; 797  : 		((CDlgStrategyConfigure*)GetParent())->LoadEditor(szScriptName);

  002a0	8b c8		 mov	 ecx, eax
  002a2	c6 45 fc 07	 mov	 BYTE PTR __$EHRec$[ebp+8], 7
  002a6	e8 00 00 00 00	 call	 ?LoadEditor@CDlgStrategyConfigure@@QAEXV?$CStringT@DV?$StrTraitMFC_DLL@DV?$ChTraitsCRT@D@ATL@@@@@ATL@@@Z ; CDlgStrategyConfigure::LoadEditor

; 798  : 	}

  002ab	8d 4d d8	 lea	 ecx, DWORD PTR _szScriptName$7[ebp]
  002ae	ff 15 00 00 00
	00		 call	 DWORD PTR __imp_??1?$CStringT@DV?$StrTraitMFC_DLL@DV?$ChTraitsCRT@D@ATL@@@@@ATL@@QAE@XZ
  002b4	8d 4d dc	 lea	 ecx, DWORD PTR _szTitle$10[ebp]
  002b7	eb 1f		 jmp	 SHORT $LN60@OnClickGri
$LN13@OnClickGri:

; 799  : 	else
; 800  : 	{
; 801  : 		// CSDItemInfo * pSDItemInfo = (CSDItemInfo *)m_GridSTList.GetItemData(nRow,COL_INFOPOINTER);
; 802  : 		// after Changing Happened In SetConfig , called OnUpdateSTSfg..
; 803  : 		// m_lRowEditing = nRow;
; 804  : 		// pSDItemInfo->GetpISTControllerD()->SetConfigOnWizard(&m_rcSTOption);
; 805  : 		//    .
; 806  : 		// @2006.10.10
; 807  : 		CString szTitle = m_GridSTList.GetItemText(nRow,COL_TITLE);

  002b9	8d 45 d4	 lea	 eax, DWORD PTR _szTitle$3[ebp]
  002bc	50		 push	 eax
  002bd	e8 00 00 00 00	 call	 ?GetItemText@CGridCtrl@@QBE?AV?$CStringT@DV?$StrTraitMFC_DLL@DV?$ChTraitsCRT@D@ATL@@@@@ATL@@HH@Z ; CGridCtrl::GetItemText

; 808  : 		InputModify(nRow, szTitle);

  002c2	8d 45 d4	 lea	 eax, DWORD PTR _szTitle$3[ebp]
  002c5	c7 45 fc 09 00
	00 00		 mov	 DWORD PTR __$EHRec$[ebp+8], 9
  002cc	50		 push	 eax
  002cd	57		 push	 edi
  002ce	8b ce		 mov	 ecx, esi
  002d0	e8 00 00 00 00	 call	 ?InputModify@CDlgStrategyList@@IAEXHAAV?$CStringT@DV?$StrTraitMFC_DLL@DV?$ChTraitsCRT@D@ATL@@@@@ATL@@@Z ; CDlgStrategyList::InputModify

; 809  : 	}

  002d5	8d 4d d4	 lea	 ecx, DWORD PTR _szTitle$3[ebp]
$LN60@OnClickGri:

; 810  : }

  002d8	ff 15 00 00 00
	00		 call	 DWORD PTR __imp_??1?$CStringT@DV?$StrTraitMFC_DLL@DV?$ChTraitsCRT@D@ATL@@@@@ATL@@QAE@XZ
$LN14@OnClickGri:
  002de	8b 4d f4	 mov	 ecx, DWORD PTR __$EHRec$[ebp]
  002e1	64 89 0d 00 00
	00 00		 mov	 DWORD PTR fs:0, ecx
  002e8	59		 pop	 ecx
  002e9	5f		 pop	 edi
  002ea	5e		 pop	 esi
  002eb	5b		 pop	 ebx
  002ec	8b 4d f0	 mov	 ecx, DWORD PTR __$ArrayPad$[ebp]
  002ef	33 cd		 xor	 ecx, ebp
  002f1	e8 00 00 00 00	 call	 @__security_check_cookie@4
  002f6	8b e5		 mov	 esp, ebp
  002f8	5d		 pop	 ebp
  002f9	c2 08 00	 ret	 8
_TEXT	ENDS
;	COMDAT text$x
text$x	SEGMENT
__unwindfunclet$?OnClickGridSTList@CDlgStrategyList@@QAEXHH@Z$0:
  00000	8d 4d d8	 lea	 ecx, DWORD PTR _strIndex$9[ebp]
  00003	ff 25 00 00 00
	00		 jmp	 DWORD PTR __imp_??1?$CStringT@DV?$StrTraitMFC_DLL@DV?$ChTraitsCRT@D@ATL@@@@@ATL@@QAE@XZ
__unwindfunclet$?OnClickGridSTList@CDlgStrategyList@@QAEXHH@Z$1:
  00009	8d 4d d8	 lea	 ecx, DWORD PTR _strTimeFromGrid$8[ebp]
  0000c	ff 25 00 00 00
	00		 jmp	 DWORD PTR __imp_??1?$CStringT@DV?$StrTraitMFC_DLL@DV?$ChTraitsCRT@D@ATL@@@@@ATL@@QAE@XZ
__unwindfunclet$?OnClickGridSTList@CDlgStrategyList@@QAEXHH@Z$2:
  00012	8d 4d d0	 lea	 ecx, DWORD PTR _strTimeType$2[ebp]
  00015	ff 25 00 00 00
	00		 jmp	 DWORD PTR __imp_??1?$CStringT@DV?$StrTraitMFC_DLL@DV?$ChTraitsCRT@D@ATL@@@@@ATL@@QAE@XZ
__unwindfunclet$?OnClickGridSTList@CDlgStrategyList@@QAEXHH@Z$3:
  0001b	8d 4d dc	 lea	 ecx, DWORD PTR _strTimeNum$11[ebp]
  0001e	ff 25 00 00 00
	00		 jmp	 DWORD PTR __imp_??1?$CStringT@DV?$StrTraitMFC_DLL@DV?$ChTraitsCRT@D@ATL@@@@@ATL@@QAE@XZ
__unwindfunclet$?OnClickGridSTList@CDlgStrategyList@@QAEXHH@Z$4:
  00024	8d 4d d4	 lea	 ecx, DWORD PTR $T6[ebp]
  00027	ff 25 00 00 00
	00		 jmp	 DWORD PTR __imp_??1?$CStringT@DV?$StrTraitMFC_DLL@DV?$ChTraitsCRT@D@ATL@@@@@ATL@@QAE@XZ
__unwindfunclet$?OnClickGridSTList@CDlgStrategyList@@QAEXHH@Z$5:
  0002d	8d 4d dc	 lea	 ecx, DWORD PTR _szTitle$10[ebp]
  00030	ff 25 00 00 00
	00		 jmp	 DWORD PTR __imp_??1?$CStringT@DV?$StrTraitMFC_DLL@DV?$ChTraitsCRT@D@ATL@@@@@ATL@@QAE@XZ
__unwindfunclet$?OnClickGridSTList@CDlgStrategyList@@QAEXHH@Z$6:
  00036	8d 4d d4	 lea	 ecx, DWORD PTR $T5[ebp]
  00039	ff 25 00 00 00
	00		 jmp	 DWORD PTR __imp_??1?$CStringT@DV?$StrTraitMFC_DLL@DV?$ChTraitsCRT@D@ATL@@@@@ATL@@QAE@XZ
__unwindfunclet$?OnClickGridSTList@CDlgStrategyList@@QAEXHH@Z$7:
  0003f	8d 4d d8	 lea	 ecx, DWORD PTR _szScriptName$7[ebp]
  00042	ff 25 00 00 00
	00		 jmp	 DWORD PTR __imp_??1?$CStringT@DV?$StrTraitMFC_DLL@DV?$ChTraitsCRT@D@ATL@@@@@ATL@@QAE@XZ
__unwindfunclet$?OnClickGridSTList@CDlgStrategyList@@QAEXHH@Z$8:
  00048	8b 4d d4	 mov	 ecx, DWORD PTR $T4[ebp]
  0004b	ff 25 00 00 00
	00		 jmp	 DWORD PTR __imp_??1?$CStringT@DV?$StrTraitMFC_DLL@DV?$ChTraitsCRT@D@ATL@@@@@ATL@@QAE@XZ
__unwindfunclet$?OnClickGridSTList@CDlgStrategyList@@QAEXHH@Z$9:
  00051	8d 4d d4	 lea	 ecx, DWORD PTR _szTitle$3[ebp]
  00054	ff 25 00 00 00
	00		 jmp	 DWORD PTR __imp_??1?$CStringT@DV?$StrTraitMFC_DLL@DV?$ChTraitsCRT@D@ATL@@@@@ATL@@QAE@XZ
  0005a	cc		 int	 3
  0005b	cc		 int	 3
  0005c	cc		 int	 3
  0005d	cc		 int	 3
  0005e	cc		 int	 3
__ehhandler$?OnClickGridSTList@CDlgStrategyList@@QAEXHH@Z:
  0005f	90		 npad	 1
  00060	90		 npad	 1
  00061	8b 54 24 08	 mov	 edx, DWORD PTR [esp+8]
  00065	8d 42 0c	 lea	 eax, DWORD PTR [edx+12]
  00068	8b 4a cc	 mov	 ecx, DWORD PTR [edx-52]
  0006b	33 c8		 xor	 ecx, eax
  0006d	e8 00 00 00 00	 call	 @__security_check_cookie@4
  00072	8b 4a fc	 mov	 ecx, DWORD PTR [edx-4]
  00075	33 c8		 xor	 ecx, eax
  00077	e8 00 00 00 00	 call	 @__security_check_cookie@4
  0007c	b8 00 00 00 00	 mov	 eax, OFFSET __ehfuncinfo$?OnClickGridSTList@CDlgStrategyList@@QAEXHH@Z
  00081	e9 00 00 00 00	 jmp	 ___CxxFrameHandler3
text$x	ENDS
?OnClickGridSTList@CDlgStrategyList@@QAEXHH@Z ENDP	; CDlgStrategyList::OnClickGridSTList
; Function compile flags: /Ogtp
; File D:\git\src\IBK\IBK_DRFN\ProjSrc\SrcDrfn\Chart\HWSTRATEGYCONFIGUREWIZARD\DlgStrategyList.cpp
; File C:\Program Files (x86)\Microsoft Visual Studio\2019\Community\VC\Tools\MSVC\14.29.30133\atlmfc\include\afxwin2.inl
; File D:\git\src\IBK\IBK_DRFN\ProjSrc\SrcDrfn\Chart\HWSTRATEGYCONFIGUREWIZARD\DlgStrategyList.cpp
;	COMDAT ?GetGridSTRowCount@CDlgStrategyList@@QAEHXZ
_TEXT	SEGMENT
?GetGridSTRowCount@CDlgStrategyList@@QAEHXZ PROC	; CDlgStrategyList::GetGridSTRowCount, COMDAT
; _this$ = ecx

; 1464 : 	if(m_GridSTList.GetSafeHwnd())

  00000	8d 81 d8 0f 00
	00		 lea	 eax, DWORD PTR [ecx+4056]
; File C:\Program Files (x86)\Microsoft Visual Studio\2019\Community\VC\Tools\MSVC\14.29.30133\atlmfc\include\afxwin2.inl

; 25   : 	{ return this == NULL ? NULL : m_hWnd; }

  00006	85 c0		 test	 eax, eax
  00008	74 0d		 je	 SHORT $LN2@GetGridSTR
; File D:\git\src\IBK\IBK_DRFN\ProjSrc\SrcDrfn\Chart\HWSTRATEGYCONFIGUREWIZARD\DlgStrategyList.cpp

; 1464 : 	if(m_GridSTList.GetSafeHwnd())

  0000a	83 78 20 00	 cmp	 DWORD PTR [eax+32], 0
  0000e	74 07		 je	 SHORT $LN2@GetGridSTR

; 1465 : 		return m_GridSTList.GetRowCount();

  00010	8b 81 f0 10 00
	00		 mov	 eax, DWORD PTR [ecx+4336]

; 1468 : }

  00016	c3		 ret	 0
$LN2@GetGridSTR:

; 1466 : 
; 1467 : 	return 0;

  00017	33 c0		 xor	 eax, eax

; 1468 : }

  00019	c3		 ret	 0
?GetGridSTRowCount@CDlgStrategyList@@QAEHXZ ENDP	; CDlgStrategyList::GetGridSTRowCount
_TEXT	ENDS
; Function compile flags: /Ogtp
; File D:\git\src\IBK\IBK_DRFN\ProjSrc\SrcDrfn\Chart\HWSTRATEGYCONFIGUREWIZARD\DlgStrategyList.cpp
; File D:\git\src\IBK\IBK_DRFN\ProjSrc\SrcDrfn\inc\IBaseDefine.h
; File D:\git\src\IBK\IBK_DRFN\ProjSrc\SrcDrfn\Chart\HWSTRATEGYCONFIGUREWIZARD\DlgStrategyList.cpp
;	COMDAT ?NotifySTChangeState@CDlgStrategyList@@QAEXHPBD@Z
_TEXT	SEGMENT
_hMainWnd$2 = -36					; size = 4
_szClipFormat$3 = -32					; size = 4
_aBufWnd$4 = -28					; size = 9
__$ArrayPad$ = -16					; size = 4
__$EHRec$ = -12						; size = 12
_nState$ = 8						; size = 4
_szSTName$ = 12						; size = 4
?NotifySTChangeState@CDlgStrategyList@@QAEXHPBD@Z PROC	; CDlgStrategyList::NotifySTChangeState, COMDAT
; _this$ = ecx

; 1594 : {

  00000	55		 push	 ebp
  00001	8b ec		 mov	 ebp, esp
  00003	6a ff		 push	 -1
  00005	68 00 00 00 00	 push	 __ehhandler$?NotifySTChangeState@CDlgStrategyList@@QAEXHPBD@Z
  0000a	64 a1 00 00 00
	00		 mov	 eax, DWORD PTR fs:0
  00010	50		 push	 eax
  00011	83 ec 18	 sub	 esp, 24			; 00000018H
  00014	a1 00 00 00 00	 mov	 eax, DWORD PTR ___security_cookie
  00019	33 c5		 xor	 eax, ebp
  0001b	89 45 f0	 mov	 DWORD PTR __$ArrayPad$[ebp], eax
  0001e	56		 push	 esi
  0001f	50		 push	 eax
  00020	8d 45 f4	 lea	 eax, DWORD PTR __$EHRec$[ebp]
  00023	64 a3 00 00 00
	00		 mov	 DWORD PTR fs:0, eax
  00029	8b 75 0c	 mov	 esi, DWORD PTR _szSTName$[ebp]
; File D:\git\src\IBK\IBK_DRFN\ProjSrc\SrcDrfn\inc\IBaseDefine.h

; 262  : 	AfxGetHanaroMainWnd(hMainWnd);

  0002c	8d 4d e0	 lea	 ecx, DWORD PTR _szClipFormat$3[ebp]
  0002f	0f 57 c0	 xorps	 xmm0, xmm0
  00032	c7 45 dc 00 00
	00 00		 mov	 DWORD PTR _hMainWnd$2[ebp], 0
  00039	66 0f d6 45 e4	 movq	 QWORD PTR _aBufWnd$4[ebp], xmm0
  0003e	c6 45 ec 00	 mov	 BYTE PTR _aBufWnd$4[ebp+8], 0
  00042	ff 15 00 00 00
	00		 call	 DWORD PTR __imp_??0?$CStringT@DV?$StrTraitMFC_DLL@DV?$ChTraitsCRT@D@ATL@@@@@ATL@@QAE@XZ
  00048	68 00 00 00 00	 push	 OFFSET ??_C@_0M@CBBNGGHM@PcTrMng?4dll@
  0004d	c7 45 fc 00 00
	00 00		 mov	 DWORD PTR __$EHRec$[ebp+8], 0
  00054	ff 15 00 00 00
	00		 call	 DWORD PTR __imp__GetModuleHandleA@4
  0005a	50		 push	 eax
  0005b	68 00 00 00 00	 push	 OFFSET ??_C@_0P@IDMAJEGN@HANAROPCTRMAIN@
  00060	8d 45 e0	 lea	 eax, DWORD PTR _szClipFormat$3[ebp]
  00063	68 00 00 00 00	 push	 OFFSET ??_C@_06NDLAHCHE@?$CFs?$CF08X@
  00068	50		 push	 eax
  00069	ff 15 00 00 00
	00		 call	 DWORD PTR __imp_?Format@?$CStringT@DV?$StrTraitMFC_DLL@DV?$ChTraitsCRT@D@ATL@@@@@ATL@@QAAXPBDZZ
  0006f	83 c4 10	 add	 esp, 16			; 00000010H
  00072	8d 45 e4	 lea	 eax, DWORD PTR _aBufWnd$4[ebp]
  00075	6a 09		 push	 9
  00077	50		 push	 eax
  00078	ff 75 e0	 push	 DWORD PTR _szClipFormat$3[ebp]
  0007b	ff 15 00 00 00
	00		 call	 DWORD PTR __imp__GetEnvironmentVariableA@12
  00081	8d 45 dc	 lea	 eax, DWORD PTR _hMainWnd$2[ebp]
  00084	50		 push	 eax
  00085	8d 45 e4	 lea	 eax, DWORD PTR _aBufWnd$4[ebp]
  00088	68 00 00 00 00	 push	 OFFSET ??_C@_02EMFKHFLK@?$CFX@
  0008d	50		 push	 eax
  0008e	e8 00 00 00 00	 call	 _sscanf
  00093	83 c4 0c	 add	 esp, 12			; 0000000cH
  00096	c7 45 fc ff ff
	ff ff		 mov	 DWORD PTR __$EHRec$[ebp+8], -1
  0009d	8d 4d e0	 lea	 ecx, DWORD PTR _szClipFormat$3[ebp]
  000a0	ff 15 00 00 00
	00		 call	 DWORD PTR __imp_??1?$CStringT@DV?$StrTraitMFC_DLL@DV?$ChTraitsCRT@D@ATL@@@@@ATL@@QAE@XZ

; 263  : 
; 264  : 	return ::SendMessage(hMainWnd, RMSG_INTERFACE, (WPARAM)nID, 0);

  000a6	6a 00		 push	 0
  000a8	6a 1c		 push	 28			; 0000001cH
  000aa	ff 35 00 00 00
	00		 push	 DWORD PTR ?RMSG_INTERFACE@@3IB
  000b0	ff 75 dc	 push	 DWORD PTR _hMainWnd$2[ebp]
  000b3	ff 15 00 00 00
	00		 call	 DWORD PTR __imp__SendMessageA@16
; File D:\git\src\IBK\IBK_DRFN\ProjSrc\SrcDrfn\Chart\HWSTRATEGYCONFIGUREWIZARD\DlgStrategyList.cpp

; 1599 : 	pMng->NotifyData("STLIST_MODIFIED", nState, (long)szSTName);

  000b9	56		 push	 esi
  000ba	ff 75 08	 push	 DWORD PTR _nState$[ebp]
  000bd	8b 08		 mov	 ecx, DWORD PTR [eax]
  000bf	68 00 00 00 00	 push	 OFFSET ??_C@_0BA@PIGBAOMG@STLIST_MODIFIED@
  000c4	50		 push	 eax
  000c5	ff 51 08	 call	 DWORD PTR [ecx+8]

; 1600 : }

  000c8	8b 4d f4	 mov	 ecx, DWORD PTR __$EHRec$[ebp]
  000cb	64 89 0d 00 00
	00 00		 mov	 DWORD PTR fs:0, ecx
  000d2	59		 pop	 ecx
  000d3	5e		 pop	 esi
  000d4	8b 4d f0	 mov	 ecx, DWORD PTR __$ArrayPad$[ebp]
  000d7	33 cd		 xor	 ecx, ebp
  000d9	e8 00 00 00 00	 call	 @__security_check_cookie@4
  000de	8b e5		 mov	 esp, ebp
  000e0	5d		 pop	 ebp
  000e1	c2 08 00	 ret	 8
_TEXT	ENDS
;	COMDAT text$x
text$x	SEGMENT
__unwindfunclet$?NotifySTChangeState@CDlgStrategyList@@QAEXHPBD@Z$0:
  00000	8d 4d e0	 lea	 ecx, DWORD PTR _szClipFormat$3[ebp]
  00003	ff 25 00 00 00
	00		 jmp	 DWORD PTR __imp_??1?$CStringT@DV?$StrTraitMFC_DLL@DV?$ChTraitsCRT@D@ATL@@@@@ATL@@QAE@XZ
  00009	cc		 int	 3
  0000a	cc		 int	 3
  0000b	cc		 int	 3
  0000c	cc		 int	 3
  0000d	cc		 int	 3
__ehhandler$?NotifySTChangeState@CDlgStrategyList@@QAEXHPBD@Z:
  0000e	90		 npad	 1
  0000f	90		 npad	 1
  00010	8b 54 24 08	 mov	 edx, DWORD PTR [esp+8]
  00014	8d 42 0c	 lea	 eax, DWORD PTR [edx+12]
  00017	8b 4a e0	 mov	 ecx, DWORD PTR [edx-32]
  0001a	33 c8		 xor	 ecx, eax
  0001c	e8 00 00 00 00	 call	 @__security_check_cookie@4
  00021	8b 4a fc	 mov	 ecx, DWORD PTR [edx-4]
  00024	33 c8		 xor	 ecx, eax
  00026	e8 00 00 00 00	 call	 @__security_check_cookie@4
  0002b	b8 00 00 00 00	 mov	 eax, OFFSET __ehfuncinfo$?NotifySTChangeState@CDlgStrategyList@@QAEXHPBD@Z
  00030	e9 00 00 00 00	 jmp	 ___CxxFrameHandler3
text$x	ENDS
?NotifySTChangeState@CDlgStrategyList@@QAEXHPBD@Z ENDP	; CDlgStrategyList::NotifySTChangeState
; Function compile flags: /Ogtp
; File D:\git\src\IBK\IBK_DRFN\ProjSrc\SrcDrfn\Chart\HWSTRATEGYCONFIGUREWIZARD\DlgStrategyList.cpp
; File C:\Program Files (x86)\Microsoft Visual Studio\2019\Community\VC\Tools\MSVC\14.29.30133\atlmfc\include\afxwin2.inl
; File D:\git\src\IBK\IBK_DRFN\ProjSrc\SrcDrfn\Chart\HWSTRATEGYCONFIGUREWIZARD\DlgStrategyList.cpp
;	COMDAT ?InitSTOption@CDlgStrategyList@@QAEXXZ
_TEXT	SEGMENT
?InitSTOption@CDlgStrategyList@@QAEXXZ PROC		; CDlgStrategyList::InitSTOption, COMDAT
; _this$ = ecx

; 155  : {

  00000	56		 push	 esi
  00001	57		 push	 edi

; 156  : 	//GetDlgItem(IDC_STCONFIGURE)->GetWindowRect(m_rcSTOption);
; 157  : 	GetDlgItem(IDC_LIST_STVARIABLES)->GetWindowRect(m_rcSTOption);

  00002	68 4f 71 00 00	 push	 29007			; 0000714fH
  00007	8b f9		 mov	 edi, ecx
  00009	e8 00 00 00 00	 call	 ?GetDlgItem@CWnd@@QBEPAV1@H@Z ; CWnd::GetDlgItem
  0000e	8d b7 7c 14 00
	00		 lea	 esi, DWORD PTR [edi+5244]
; File C:\Program Files (x86)\Microsoft Visual Studio\2019\Community\VC\Tools\MSVC\14.29.30133\atlmfc\include\afxwin2.inl

; 84   : 	{ ASSERT(::IsWindow(m_hWnd)); ::GetWindowRect(m_hWnd, lpRect); }

  00014	56		 push	 esi
  00015	ff 70 20	 push	 DWORD PTR [eax+32]
  00018	ff 15 00 00 00
	00		 call	 DWORD PTR __imp__GetWindowRect@8
; File D:\git\src\IBK\IBK_DRFN\ProjSrc\SrcDrfn\Chart\HWSTRATEGYCONFIGUREWIZARD\DlgStrategyList.cpp

; 158  : 	m_rcSTOption.top -= 32;

  0001e	83 87 80 14 00
	00 e0		 add	 DWORD PTR [edi+5248], -32 ; ffffffe0H

; 159  : 	ScreenToClient(m_rcSTOption);

  00025	8b cf		 mov	 ecx, edi
  00027	56		 push	 esi
  00028	e8 00 00 00 00	 call	 ?ScreenToClient@CWnd@@QBEXPAUtagRECT@@@Z ; CWnd::ScreenToClient
  0002d	5f		 pop	 edi
  0002e	5e		 pop	 esi

; 160  : }

  0002f	c3		 ret	 0
?InitSTOption@CDlgStrategyList@@QAEXXZ ENDP		; CDlgStrategyList::InitSTOption
_TEXT	ENDS
; Function compile flags: /Ogtp
; File D:\git\src\IBK\IBK_DRFN\ProjSrc\SrcDrfn\Chart\HWSTRATEGYCONFIGUREWIZARD\DlgStrategyList.cpp
;	COMDAT ?OnNotify@CDlgStrategyList@@MAEHIJPAJ@Z
_TEXT	SEGMENT
_wParam$ = 8						; size = 4
_lParam$ = 12						; size = 4
_pResult$ = 16						; size = 4
?OnNotify@CDlgStrategyList@@MAEHIJPAJ@Z PROC		; CDlgStrategyList::OnNotify, COMDAT
; _this$ = ecx

; 552  : {

  00000	55		 push	 ebp
  00001	8b ec		 mov	 ebp, esp

; 553  : 	NM_GRIDVIEW *pNmgv = (NM_GRIDVIEW *)lParam;
; 554  : 	if(wParam==IDC_GRID)

  00003	81 7d 08 88 69
	00 00		 cmp	 DWORD PTR _wParam$[ebp], 27016 ; 00006988H
  0000a	53		 push	 ebx
  0000b	56		 push	 esi
  0000c	8b 75 0c	 mov	 esi, DWORD PTR _lParam$[ebp]
  0000f	8b d9		 mov	 ebx, ecx
  00011	75 11		 jne	 SHORT $LN3@OnNotify

; 555  : 		if(pNmgv->hdr.code==NM_CLICK)

  00013	83 7e 08 fe	 cmp	 DWORD PTR [esi+8], -2	; fffffffeH
  00017	75 0b		 jne	 SHORT $LN3@OnNotify

; 556  : 			OnClickGridSTList(pNmgv->iRow,pNmgv->iColumn);

  00019	ff 76 10	 push	 DWORD PTR [esi+16]
  0001c	ff 76 0c	 push	 DWORD PTR [esi+12]
  0001f	e8 00 00 00 00	 call	 ?OnClickGridSTList@CDlgStrategyList@@QAEXHH@Z ; CDlgStrategyList::OnClickGridSTList
$LN3@OnNotify:

; 557  : 
; 558  : 	return CDialog::OnNotify(wParam, lParam, pResult);

  00024	ff 75 10	 push	 DWORD PTR _pResult$[ebp]
  00027	8b cb		 mov	 ecx, ebx
  00029	56		 push	 esi
  0002a	ff 75 08	 push	 DWORD PTR _wParam$[ebp]
  0002d	e8 00 00 00 00	 call	 ?OnNotify@CWnd@@MAEHIJPAJ@Z ; CWnd::OnNotify
  00032	5e		 pop	 esi
  00033	5b		 pop	 ebx

; 559  : }

  00034	5d		 pop	 ebp
  00035	c2 0c 00	 ret	 12			; 0000000cH
?OnNotify@CDlgStrategyList@@MAEHIJPAJ@Z ENDP		; CDlgStrategyList::OnNotify
_TEXT	ENDS
; Function compile flags: /Ogtp
; File D:\git\src\IBK\IBK_DRFN\ProjSrc\SrcDrfn\Chart\HWSTRATEGYCONFIGUREWIZARD\DlgStrategyList.cpp
; File C:\Program Files (x86)\Microsoft Visual Studio\2019\Community\VC\Tools\MSVC\14.29.30133\atlmfc\include\afxwin2.inl
; File D:\git\src\IBK\IBK_DRFN\ProjSrc\SrcDrfn\Chart\HWSTRATEGYCONFIGUREWIZARD\DlgStrategyList.cpp
; File C:\Program Files (x86)\Microsoft Visual Studio\2019\Community\VC\Tools\MSVC\14.29.30133\atlmfc\include\cstringt.h
; File D:\git\src\IBK\IBK_DRFN\ProjSrc\SrcDrfn\Chart\HWSTRATEGYCONFIGUREWIZARD\DlgStrategyList.cpp
; File C:\Program Files (x86)\Microsoft Visual Studio\2019\Community\VC\Tools\MSVC\14.29.30133\atlmfc\include\cstringt.h
; File D:\git\src\IBK\IBK_DRFN\ProjSrc\SrcDrfn\Chart\HWSTRATEGYCONFIGUREWIZARD\DlgStrategyList.cpp
; File C:\Program Files (x86)\Microsoft Visual Studio\2019\Community\VC\Tools\MSVC\14.29.30133\atlmfc\include\cstringt.h
; File D:\git\src\IBK\IBK_DRFN\ProjSrc\SrcDrfn\Chart\HWSTRATEGYCONFIGUREWIZARD\DlgStrategyList.cpp
; File C:\Program Files (x86)\Microsoft Visual Studio\2019\Community\VC\Tools\MSVC\14.29.30133\atlmfc\include\atlsimpstr.h
; File D:\git\src\IBK\IBK_DRFN\ProjSrc\SrcDrfn\Chart\HWSTRATEGYCONFIGUREWIZARD\DlgStrategyList.cpp
;	COMDAT ?WindowProc@CDlgStrategyList@@MAEJIIJ@Z
_TEXT	SEGMENT
__$EHRec$ = -12						; size = 12
_message$ = 8						; size = 4
_strTimeFromGrid$2 = 12					; size = 4
_wParam$ = 12						; size = 4
_strSetSel$3 = 16					; size = 4
_lParam$ = 16						; size = 4
?WindowProc@CDlgStrategyList@@MAEJIIJ@Z PROC		; CDlgStrategyList::WindowProc, COMDAT
; _this$ = ecx

; 429  : {

  00000	55		 push	 ebp
  00001	8b ec		 mov	 ebp, esp
  00003	6a ff		 push	 -1
  00005	68 00 00 00 00	 push	 __ehhandler$?WindowProc@CDlgStrategyList@@MAEJIIJ@Z
  0000a	64 a1 00 00 00
	00		 mov	 eax, DWORD PTR fs:0
  00010	50		 push	 eax
  00011	53		 push	 ebx
  00012	56		 push	 esi
  00013	57		 push	 edi
  00014	a1 00 00 00 00	 mov	 eax, DWORD PTR ___security_cookie
  00019	33 c5		 xor	 eax, ebp
  0001b	50		 push	 eax
  0001c	8d 45 f4	 lea	 eax, DWORD PTR __$EHRec$[ebp]
  0001f	64 a3 00 00 00
	00		 mov	 DWORD PTR fs:0, eax
  00025	8b f1		 mov	 esi, ecx

; 430  : 	switch(message)

  00027	8b 45 08	 mov	 eax, DWORD PTR _message$[ebp]
  0002a	8b 5d 10	 mov	 ebx, DWORD PTR _lParam$[ebp]
  0002d	8b 7d 0c	 mov	 edi, DWORD PTR _wParam$[ebp]
  00030	2d 02 04 00 00	 sub	 eax, 1026		; 00000402H
  00035	0f 84 dd 00 00
	00		 je	 $LN9@WindowProc
  0003b	83 e8 01	 sub	 eax, 1
  0003e	0f 84 a3 00 00
	00		 je	 $LN7@WindowProc
  00044	83 e8 02	 sub	 eax, 2
  00047	0f 85 b5 02 00
	00		 jne	 $LN35@WindowProc

; 517  : 		break;
; 518  : 	case UWM_SETTIME:
; 519  : 		{
; 520  : 			CString strTimeFromGrid;

  0004d	8d 4d 0c	 lea	 ecx, DWORD PTR _strTimeFromGrid$2[ebp]
  00050	ff 15 00 00 00
	00		 call	 DWORD PTR __imp_??0?$CStringT@DV?$StrTraitMFC_DLL@DV?$ChTraitsCRT@D@ATL@@@@@ATL@@QAE@XZ

; 521  : 			long lRowCount = m_GridSTList.GetRowCount();

  00056	8b 86 f0 10 00
	00		 mov	 eax, DWORD PTR [esi+4336]
  0005c	c7 45 fc 01 00
	00 00		 mov	 DWORD PTR __$EHRec$[ebp+8], 1

; 522  : 			if(lRowCount>m_dlgTimeSelector.m_lRow)

  00063	3b 86 e4 16 00
	00		 cmp	 eax, DWORD PTR [esi+5860]
  00069	7e 74		 jle	 SHORT $LN30@WindowProc

; 523  : 			{
; 524  : 				switch(m_dlgTimeSelector.m_nOption)

  0006b	8b 86 d8 16 00
	00		 mov	 eax, DWORD PTR [esi+5848]
  00071	83 e8 00	 sub	 eax, 0
  00074	74 3e		 je	 SHORT $LN33@WindowProc
  00076	83 e8 01	 sub	 eax, 1
  00079	74 1f		 je	 SHORT $LN31@WindowProc
  0007b	83 e8 01	 sub	 eax, 1
  0007e	75 34		 jne	 SHORT $LN33@WindowProc

; 529  : 				case 2:
; 530  : 					strTimeFromGrid.Format("%d",m_dlgTimeSelector.m_nTick);

  00080	ff b6 e0 16 00
	00		 push	 DWORD PTR [esi+5856]
  00086	8d 45 0c	 lea	 eax, DWORD PTR _strTimeFromGrid$2[ebp]
  00089	68 00 00 00 00	 push	 OFFSET ??_C@_04EAPBPCMF@?$CFd?F?$LN@
  0008e	50		 push	 eax
  0008f	ff 15 00 00 00
	00		 call	 DWORD PTR __imp_?Format@?$CStringT@DV?$StrTraitMFC_DLL@DV?$ChTraitsCRT@D@ATL@@@@@ATL@@QAAXPBDZZ
  00095	83 c4 0c	 add	 esp, 12			; 0000000cH

; 531  : 					break;				

  00098	eb 28		 jmp	 SHORT $LN4@WindowProc
$LN31@WindowProc:

; 525  : 				{
; 526  : 				case 1:
; 527  : 					strTimeFromGrid.Format("%d",m_dlgTimeSelector.m_nMinute);

  0009a	ff b6 dc 16 00
	00		 push	 DWORD PTR [esi+5852]
  000a0	8d 45 0c	 lea	 eax, DWORD PTR _strTimeFromGrid$2[ebp]
  000a3	68 00 00 00 00	 push	 OFFSET ??_C@_04MNEJHGBL@?$CFd?$LK?P@
  000a8	50		 push	 eax
  000a9	ff 15 00 00 00
	00		 call	 DWORD PTR __imp_?Format@?$CStringT@DV?$StrTraitMFC_DLL@DV?$ChTraitsCRT@D@ATL@@@@@ATL@@QAAXPBDZZ
  000af	83 c4 0c	 add	 esp, 12			; 0000000cH

; 528  : 					break;

  000b2	eb 0e		 jmp	 SHORT $LN4@WindowProc
$LN33@WindowProc:

; 532  : 				case 0:
; 533  : 				default:
; 534  : 					strTimeFromGrid = "";

  000b4	68 00 00 00 00	 push	 OFFSET ??_C@_02NNHDHLCM@?$MA?O@
  000b9	8d 4d 0c	 lea	 ecx, DWORD PTR _strTimeFromGrid$2[ebp]
  000bc	ff 15 00 00 00
	00		 call	 DWORD PTR __imp_??4?$CStringT@DV?$StrTraitMFC_DLL@DV?$ChTraitsCRT@D@ATL@@@@@ATL@@QAEAAV01@PBD@Z
$LN4@WindowProc:

; 535  : 					break;
; 536  : 				}
; 537  : 				//CSDItemInfo * pSDItemInfo = (CSDItemInfo *)m_GridSTList.GetItemData(m_dlgTimeSelector.m_lRow,COL_INFOPOINTER);
; 538  : 				//pSDItemInfo->m_strTimeInfo = strTimeFromGrid;
; 539  : 				//m_GridSTList.SetItemText(m_dlgTimeSelector.m_lRow,COL_TIME,pSDItemInfo->m_strTimeInfo);
; 540  : 				m_GridSTList.SetItemText(m_dlgTimeSelector.m_lRow,COL_TIME,strTimeFromGrid);

  000c2	ff 75 0c	 push	 DWORD PTR _strTimeFromGrid$2[ebp]
  000c5	8d 8e d8 0f 00
	00		 lea	 ecx, DWORD PTR [esi+4056]
  000cb	6a 02		 push	 2
  000cd	ff b6 e4 16 00
	00		 push	 DWORD PTR [esi+5860]
  000d3	e8 00 00 00 00	 call	 ?SetItemText@CGridCtrl@@QAEHHHPBD@Z ; CGridCtrl::SetItemText

; 541  : 				ResizeAll();

  000d8	8b ce		 mov	 ecx, esi
  000da	e8 00 00 00 00	 call	 ?ResizeAll@CDlgStrategyList@@QAEXXZ ; CDlgStrategyList::ResizeAll
$LN30@WindowProc:

; 542  : 			}			
; 543  : 		}

  000df	8d 4d 0c	 lea	 ecx, DWORD PTR _strTimeFromGrid$2[ebp]

; 544  : 		break;

  000e2	e9 0e 02 00 00	 jmp	 $LN61@WindowProc
$LN7@WindowProc:

; 436  : 		if(!m_GridSTList.GetSafeHwnd()) return 0L;

  000e7	8d 86 d8 0f 00
	00		 lea	 eax, DWORD PTR [esi+4056]
; File C:\Program Files (x86)\Microsoft Visual Studio\2019\Community\VC\Tools\MSVC\14.29.30133\atlmfc\include\afxwin2.inl

; 25   : 	{ return this == NULL ? NULL : m_hWnd; }

  000ed	85 c0		 test	 eax, eax
  000ef	74 11		 je	 SHORT $LN59@WindowProc
; File D:\git\src\IBK\IBK_DRFN\ProjSrc\SrcDrfn\Chart\HWSTRATEGYCONFIGUREWIZARD\DlgStrategyList.cpp

; 436  : 		if(!m_GridSTList.GetSafeHwnd()) return 0L;

  000f1	83 78 20 00	 cmp	 DWORD PTR [eax+32], 0
  000f5	74 0b		 je	 SHORT $LN59@WindowProc

; 437  : 		LoadST((LONG)wParam);

  000f7	57		 push	 edi
  000f8	e8 00 00 00 00	 call	 ?LoadST@CDlgStrategyList@@IAEXJ@Z ; CDlgStrategyList::LoadST

; 438  : 		break;

  000fd	e9 00 02 00 00	 jmp	 $LN35@WindowProc
$LN59@WindowProc:

; 436  : 		if(!m_GridSTList.GetSafeHwnd()) return 0L;

  00102	33 c0		 xor	 eax, eax

; 549  : }

  00104	8b 4d f4	 mov	 ecx, DWORD PTR __$EHRec$[ebp]
  00107	64 89 0d 00 00
	00 00		 mov	 DWORD PTR fs:0, ecx
  0010e	59		 pop	 ecx
  0010f	5f		 pop	 edi
  00110	5e		 pop	 esi
  00111	5b		 pop	 ebx
  00112	8b e5		 mov	 esp, ebp
  00114	5d		 pop	 ebp
  00115	c2 0c 00	 ret	 12			; 0000000cH
$LN9@WindowProc:

; 439  : 	case UWM_SETSEL:
; 440  : 		{
; 441  : 			CString strSetSel = (LPCTSTR)wParam;

  00118	57		 push	 edi
  00119	8d 4d 10	 lea	 ecx, DWORD PTR _strSetSel$3[ebp]
  0011c	ff 15 00 00 00
	00		 call	 DWORD PTR __imp_??0?$CStringT@DV?$StrTraitMFC_DLL@DV?$ChTraitsCRT@D@ATL@@@@@ATL@@QAE@PBD@Z
  00122	c7 45 fc 00 00
	00 00		 mov	 DWORD PTR __$EHRec$[ebp+8], 0

; 442  : 			long lType = lParam;
; 443  : 			// Single word Selected..
; 444  : 			if(lType&MULTISELECTED)

  00129	f6 c3 01	 test	 bl, 1
  0012c	74 5b		 je	 SHORT $LN10@WindowProc

; 445  : 			{
; 446  : 				m_btnAnd.EnableWindow(FALSE);

  0012e	6a 00		 push	 0
  00130	8d 8e 18 05 00
	00		 lea	 ecx, DWORD PTR [esi+1304]
  00136	e8 00 00 00 00	 call	 ?EnableWindow@CWnd@@QAEHH@Z ; CWnd::EnableWindow

; 447  : 				m_btnOr.EnableWindow(FALSE);

  0013b	6a 00		 push	 0
  0013d	8d 8e a8 05 00
	00		 lea	 ecx, DWORD PTR [esi+1448]
  00143	e8 00 00 00 00	 call	 ?EnableWindow@CWnd@@QAEHH@Z ; CWnd::EnableWindow

; 448  : 				m_btnNext.EnableWindow(FALSE);

  00148	6a 00		 push	 0
  0014a	8d 8e 58 07 00
	00		 lea	 ecx, DWORD PTR [esi+1880]
  00150	e8 00 00 00 00	 call	 ?EnableWindow@CWnd@@QAEHH@Z ; CWnd::EnableWindow

; 449  : 				m_btnNot.EnableWindow(FALSE);

  00155	6a 00		 push	 0
  00157	8d 8e 38 06 00
	00		 lea	 ecx, DWORD PTR [esi+1592]
  0015d	e8 00 00 00 00	 call	 ?EnableWindow@CWnd@@QAEHH@Z ; CWnd::EnableWindow

; 450  : 				m_btnTrue.EnableWindow(FALSE);

  00162	6a 00		 push	 0
  00164	8d 8e c8 06 00
	00		 lea	 ecx, DWORD PTR [esi+1736]
  0016a	e8 00 00 00 00	 call	 ?EnableWindow@CWnd@@QAEHH@Z ; CWnd::EnableWindow

; 451  : 				m_btnParenthesis.EnableWindow();

  0016f	6a 01		 push	 1
  00171	8d 8e e8 07 00
	00		 lea	 ecx, DWORD PTR [esi+2024]
  00177	e8 00 00 00 00	 call	 ?EnableWindow@CWnd@@QAEHH@Z ; CWnd::EnableWindow

; 452  : 				if(lType&INCLUDEPARENTHESIS)

  0017c	8b c3		 mov	 eax, ebx
  0017e	d1 e8		 shr	 eax, 1
  00180	83 e0 01	 and	 eax, 1

; 453  : 					m_btnX.EnableWindow();
; 454  : 				else
; 455  : 					m_btnX.EnableWindow(FALSE);
; 456  : 			}

  00183	50		 push	 eax
  00184	e9 5e 01 00 00	 jmp	 $LN62@WindowProc
$LN10@WindowProc:
; File C:\Program Files (x86)\Microsoft Visual Studio\2019\Community\VC\Tools\MSVC\14.29.30133\atlmfc\include\cstringt.h

; 2486 : 		return(str1.Compare(psz2) == 0);

  00189	68 00 00 00 00	 push	 OFFSET ??_C@_03BOPJPIAM@and@
  0018e	8d 4d 10	 lea	 ecx, DWORD PTR _strSetSel$3[ebp]
  00191	ff 15 00 00 00
	00		 call	 DWORD PTR __imp_?Compare@?$CStringT@DV?$StrTraitMFC_DLL@DV?$ChTraitsCRT@D@ATL@@@@@ATL@@QBEHPBD@Z
  00197	85 c0		 test	 eax, eax
; File D:\git\src\IBK\IBK_DRFN\ProjSrc\SrcDrfn\Chart\HWSTRATEGYCONFIGUREWIZARD\DlgStrategyList.cpp

; 459  : 				if(strSetSel==STRANDINLOGIC)

  00199	75 47		 jne	 SHORT $LN14@WindowProc

; 460  : 				{
; 461  : 					m_btnAnd.EnableWindow(FALSE);

  0019b	50		 push	 eax
  0019c	8d 8e 18 05 00
	00		 lea	 ecx, DWORD PTR [esi+1304]
  001a2	e8 00 00 00 00	 call	 ?EnableWindow@CWnd@@QAEHH@Z ; CWnd::EnableWindow

; 462  : 					m_btnOr.EnableWindow();					

  001a7	6a 01		 push	 1
$LN66@WindowProc:

; 509  : 					m_btnNext.EnableWindow(FALSE);
; 510  : 					m_btnNot.EnableWindow(FALSE);
; 511  : 					m_btnTrue.EnableWindow(FALSE);
; 512  : 				}
; 513  : 				m_btnParenthesis.EnableWindow(FALSE);

  001a9	8d 8e a8 05 00
	00		 lea	 ecx, DWORD PTR [esi+1448]
  001af	e8 00 00 00 00	 call	 ?EnableWindow@CWnd@@QAEHH@Z ; CWnd::EnableWindow
  001b4	6a 00		 push	 0
  001b6	8d 8e 38 06 00
	00		 lea	 ecx, DWORD PTR [esi+1592]
  001bc	e8 00 00 00 00	 call	 ?EnableWindow@CWnd@@QAEHH@Z ; CWnd::EnableWindow
  001c1	6a 00		 push	 0
  001c3	8d 8e c8 06 00
	00		 lea	 ecx, DWORD PTR [esi+1736]
  001c9	e8 00 00 00 00	 call	 ?EnableWindow@CWnd@@QAEHH@Z ; CWnd::EnableWindow
  001ce	8b c3		 mov	 eax, ebx
  001d0	8d 8e 58 07 00
	00		 lea	 ecx, DWORD PTR [esi+1880]
  001d6	c1 e8 02	 shr	 eax, 2
  001d9	83 e0 01	 and	 eax, 1
  001dc	50		 push	 eax
  001dd	e9 f1 00 00 00	 jmp	 $LN63@WindowProc
$LN14@WindowProc:
; File C:\Program Files (x86)\Microsoft Visual Studio\2019\Community\VC\Tools\MSVC\14.29.30133\atlmfc\include\cstringt.h

; 2486 : 		return(str1.Compare(psz2) == 0);

  001e2	68 00 00 00 00	 push	 OFFSET ??_C@_02FODMLBIE@or@
  001e7	8d 4d 10	 lea	 ecx, DWORD PTR _strSetSel$3[ebp]
  001ea	ff 15 00 00 00
	00		 call	 DWORD PTR __imp_?Compare@?$CStringT@DV?$StrTraitMFC_DLL@DV?$ChTraitsCRT@D@ATL@@@@@ATL@@QBEHPBD@Z
  001f0	85 c0		 test	 eax, eax
; File D:\git\src\IBK\IBK_DRFN\ProjSrc\SrcDrfn\Chart\HWSTRATEGYCONFIGUREWIZARD\DlgStrategyList.cpp

; 470  : 				else if(strSetSel==STRORINLOGIC)

  001f2	75 11		 jne	 SHORT $LN18@WindowProc

; 471  : 				{
; 472  : 					m_btnAnd.EnableWindow();

  001f4	6a 01		 push	 1
  001f6	8d 8e 18 05 00
	00		 lea	 ecx, DWORD PTR [esi+1304]
  001fc	e8 00 00 00 00	 call	 ?EnableWindow@CWnd@@QAEHH@Z ; CWnd::EnableWindow

; 473  : 					m_btnOr.EnableWindow(FALSE);

  00201	6a 00		 push	 0

; 474  : 					m_btnNot.EnableWindow(FALSE);
; 475  : 					m_btnTrue.EnableWindow(FALSE);
; 476  : 					if(lType&NEXTISPOSSIBLE)
; 477  : 						m_btnNext.EnableWindow();
; 478  : 					else
; 479  : 						m_btnNext.EnableWindow(FALSE);
; 480  : 				}

  00203	eb a4		 jmp	 SHORT $LN66@WindowProc
$LN18@WindowProc:
; File C:\Program Files (x86)\Microsoft Visual Studio\2019\Community\VC\Tools\MSVC\14.29.30133\atlmfc\include\cstringt.h

; 2486 : 		return(str1.Compare(psz2) == 0);

  00205	68 00 00 00 00	 push	 OFFSET ??_C@_04CJGEDOF@next@
  0020a	8d 4d 10	 lea	 ecx, DWORD PTR _strSetSel$3[ebp]
  0020d	ff 15 00 00 00
	00		 call	 DWORD PTR __imp_?Compare@?$CStringT@DV?$StrTraitMFC_DLL@DV?$ChTraitsCRT@D@ATL@@@@@ATL@@QBEHPBD@Z
  00213	85 c0		 test	 eax, eax
; File D:\git\src\IBK\IBK_DRFN\ProjSrc\SrcDrfn\Chart\HWSTRATEGYCONFIGUREWIZARD\DlgStrategyList.cpp

; 481  : 				else if(strSetSel==STRNEXTINLOGIC)

  00215	75 11		 jne	 SHORT $LN22@WindowProc

; 482  : 				{
; 483  : 					m_btnAnd.EnableWindow();

  00217	6a 01		 push	 1
  00219	8d 8e 18 05 00
	00		 lea	 ecx, DWORD PTR [esi+1304]
  0021f	e8 00 00 00 00	 call	 ?EnableWindow@CWnd@@QAEHH@Z ; CWnd::EnableWindow

; 484  : 					m_btnOr.EnableWindow();

  00224	6a 01		 push	 1

; 485  : 					m_btnNext.EnableWindow(FALSE);
; 486  : 					m_btnNot.EnableWindow(FALSE);
; 487  : 					m_btnTrue.EnableWindow(FALSE);
; 488  : 				}

  00226	eb 7e		 jmp	 SHORT $LN64@WindowProc
$LN22@WindowProc:
; File C:\Program Files (x86)\Microsoft Visual Studio\2019\Community\VC\Tools\MSVC\14.29.30133\atlmfc\include\atlsimpstr.h

; 519  : 		return( GetData()->nDataLength );

  00228	8b 45 10	 mov	 eax, DWORD PTR _strSetSel$3[ebp]
  0022b	8b 40 f4	 mov	 eax, DWORD PTR [eax-12]
; File D:\git\src\IBK\IBK_DRFN\ProjSrc\SrcDrfn\Chart\HWSTRATEGYCONFIGUREWIZARD\DlgStrategyList.cpp

; 489  : 				else if(strSetSel.GetLength()>0)	// element

  0022e	85 c0		 test	 eax, eax
  00230	7e 63		 jle	 SHORT $LN65@WindowProc

; 490  : 				{
; 491  : 					m_btnAnd.EnableWindow(FALSE);

  00232	6a 00		 push	 0
  00234	8d 8e 18 05 00
	00		 lea	 ecx, DWORD PTR [esi+1304]
  0023a	e8 00 00 00 00	 call	 ?EnableWindow@CWnd@@QAEHH@Z ; CWnd::EnableWindow

; 492  : 					m_btnOr.EnableWindow(FALSE);

  0023f	6a 00		 push	 0
  00241	8d 8e a8 05 00
	00		 lea	 ecx, DWORD PTR [esi+1448]
  00247	e8 00 00 00 00	 call	 ?EnableWindow@CWnd@@QAEHH@Z ; CWnd::EnableWindow

; 493  : 					m_btnNext.EnableWindow(FALSE);

  0024c	6a 00		 push	 0
  0024e	8d 8e 58 07 00
	00		 lea	 ecx, DWORD PTR [esi+1880]
  00254	e8 00 00 00 00	 call	 ?EnableWindow@CWnd@@QAEHH@Z ; CWnd::EnableWindow

; 494  : 					if(strSetSel[0]=='!')

  00259	6a 00		 push	 0
  0025b	8d 4d 10	 lea	 ecx, DWORD PTR _strSetSel$3[ebp]
  0025e	ff 15 00 00 00
	00		 call	 DWORD PTR __imp_??A?$CSimpleStringT@D$00@ATL@@QBEDH@Z
  00264	3c 21		 cmp	 al, 33			; 00000021H
  00266	75 09		 jne	 SHORT $LN26@WindowProc

; 495  : 					{
; 496  : 						m_btnNot.EnableWindow(FALSE);
; 497  : 						m_btnTrue.EnableWindow();

  00268	bf 01 00 00 00	 mov	 edi, 1
  0026d	33 c0		 xor	 eax, eax

; 498  : 					}

  0026f	eb 07		 jmp	 SHORT $LN27@WindowProc
$LN26@WindowProc:

; 499  : 					else
; 500  : 					{
; 501  : 						m_btnNot.EnableWindow();
; 502  : 						m_btnTrue.EnableWindow(FALSE);

  00271	33 ff		 xor	 edi, edi
  00273	b8 01 00 00 00	 mov	 eax, 1
$LN27@WindowProc:

; 503  : 					}
; 504  : 				}

  00278	50		 push	 eax
  00279	8d 8e 38 06 00
	00		 lea	 ecx, DWORD PTR [esi+1592]
  0027f	e8 00 00 00 00	 call	 ?EnableWindow@CWnd@@QAEHH@Z ; CWnd::EnableWindow
  00284	57		 push	 edi
  00285	8d 8e c8 06 00
	00		 lea	 ecx, DWORD PTR [esi+1736]
  0028b	e8 00 00 00 00	 call	 ?EnableWindow@CWnd@@QAEHH@Z ; CWnd::EnableWindow
  00290	8b 7d 0c	 mov	 edi, DWORD PTR _wParam$[ebp]
  00293	eb 43		 jmp	 SHORT $LN28@WindowProc
$LN65@WindowProc:

; 505  : 				else if(strSetSel.GetLength()==0)	// nothing selected..

  00295	75 41		 jne	 SHORT $LN28@WindowProc

; 506  : 				{
; 507  : 					m_btnAnd.EnableWindow(FALSE);

  00297	6a 00		 push	 0
  00299	8d 8e 18 05 00
	00		 lea	 ecx, DWORD PTR [esi+1304]
  0029f	e8 00 00 00 00	 call	 ?EnableWindow@CWnd@@QAEHH@Z ; CWnd::EnableWindow

; 508  : 					m_btnOr.EnableWindow(FALSE);

  002a4	6a 00		 push	 0
$LN64@WindowProc:

; 509  : 					m_btnNext.EnableWindow(FALSE);
; 510  : 					m_btnNot.EnableWindow(FALSE);
; 511  : 					m_btnTrue.EnableWindow(FALSE);
; 512  : 				}
; 513  : 				m_btnParenthesis.EnableWindow(FALSE);

  002a6	8d 8e a8 05 00
	00		 lea	 ecx, DWORD PTR [esi+1448]
  002ac	e8 00 00 00 00	 call	 ?EnableWindow@CWnd@@QAEHH@Z ; CWnd::EnableWindow
  002b1	6a 00		 push	 0
  002b3	8d 8e 58 07 00
	00		 lea	 ecx, DWORD PTR [esi+1880]
  002b9	e8 00 00 00 00	 call	 ?EnableWindow@CWnd@@QAEHH@Z ; CWnd::EnableWindow
  002be	6a 00		 push	 0
  002c0	8d 8e 38 06 00
	00		 lea	 ecx, DWORD PTR [esi+1592]
  002c6	e8 00 00 00 00	 call	 ?EnableWindow@CWnd@@QAEHH@Z ; CWnd::EnableWindow
  002cb	8d 8e c8 06 00
	00		 lea	 ecx, DWORD PTR [esi+1736]
  002d1	6a 00		 push	 0
$LN63@WindowProc:
  002d3	e8 00 00 00 00	 call	 ?EnableWindow@CWnd@@QAEHH@Z ; CWnd::EnableWindow
$LN28@WindowProc:
  002d8	6a 00		 push	 0
  002da	8d 8e e8 07 00
	00		 lea	 ecx, DWORD PTR [esi+2024]
  002e0	e8 00 00 00 00	 call	 ?EnableWindow@CWnd@@QAEHH@Z ; CWnd::EnableWindow

; 514  : 				m_btnX.EnableWindow(FALSE);

  002e5	6a 00		 push	 0
$LN62@WindowProc:

; 515  : 			}
; 516  : 		}

  002e7	8d 8e 78 08 00
	00		 lea	 ecx, DWORD PTR [esi+2168]
  002ed	e8 00 00 00 00	 call	 ?EnableWindow@CWnd@@QAEHH@Z ; CWnd::EnableWindow
  002f2	8d 4d 10	 lea	 ecx, DWORD PTR _strSetSel$3[ebp]
$LN61@WindowProc:

; 545  : 	default:
; 546  : 		break;
; 547  : 	}
; 548  : 	return CDialog::WindowProc(message, wParam, lParam);

  002f5	c7 45 fc ff ff
	ff ff		 mov	 DWORD PTR __$EHRec$[ebp+8], -1
  002fc	ff 15 00 00 00
	00		 call	 DWORD PTR __imp_??1?$CStringT@DV?$StrTraitMFC_DLL@DV?$ChTraitsCRT@D@ATL@@@@@ATL@@QAE@XZ
$LN35@WindowProc:
  00302	53		 push	 ebx
  00303	57		 push	 edi
  00304	ff 75 08	 push	 DWORD PTR _message$[ebp]
  00307	8b ce		 mov	 ecx, esi
  00309	e8 00 00 00 00	 call	 ?WindowProc@CWnd@@MAEJIIJ@Z ; CWnd::WindowProc

; 549  : }

  0030e	8b 4d f4	 mov	 ecx, DWORD PTR __$EHRec$[ebp]
  00311	64 89 0d 00 00
	00 00		 mov	 DWORD PTR fs:0, ecx
  00318	59		 pop	 ecx
  00319	5f		 pop	 edi
  0031a	5e		 pop	 esi
  0031b	5b		 pop	 ebx
  0031c	8b e5		 mov	 esp, ebp
  0031e	5d		 pop	 ebp
  0031f	c2 0c 00	 ret	 12			; 0000000cH
_TEXT	ENDS
;	COMDAT text$x
text$x	SEGMENT
__unwindfunclet$?WindowProc@CDlgStrategyList@@MAEJIIJ@Z$1:
  00000	8d 4d 0c	 lea	 ecx, DWORD PTR _strTimeFromGrid$2[ebp]
  00003	ff 25 00 00 00
	00		 jmp	 DWORD PTR __imp_??1?$CStringT@DV?$StrTraitMFC_DLL@DV?$ChTraitsCRT@D@ATL@@@@@ATL@@QAE@XZ
__unwindfunclet$?WindowProc@CDlgStrategyList@@MAEJIIJ@Z$0:
  00009	8d 4d 10	 lea	 ecx, DWORD PTR _strSetSel$3[ebp]
  0000c	ff 25 00 00 00
	00		 jmp	 DWORD PTR __imp_??1?$CStringT@DV?$StrTraitMFC_DLL@DV?$ChTraitsCRT@D@ATL@@@@@ATL@@QAE@XZ
  00012	cc		 int	 3
  00013	cc		 int	 3
  00014	cc		 int	 3
  00015	cc		 int	 3
  00016	cc		 int	 3
__ehhandler$?WindowProc@CDlgStrategyList@@MAEJIIJ@Z:
  00017	90		 npad	 1
  00018	90		 npad	 1
  00019	8b 54 24 08	 mov	 edx, DWORD PTR [esp+8]
  0001d	8d 42 0c	 lea	 eax, DWORD PTR [edx+12]
  00020	8b 4a f0	 mov	 ecx, DWORD PTR [edx-16]
  00023	33 c8		 xor	 ecx, eax
  00025	e8 00 00 00 00	 call	 @__security_check_cookie@4
  0002a	b8 00 00 00 00	 mov	 eax, OFFSET __ehfuncinfo$?WindowProc@CDlgStrategyList@@MAEJIIJ@Z
  0002f	e9 00 00 00 00	 jmp	 ___CxxFrameHandler3
text$x	ENDS
?WindowProc@CDlgStrategyList@@MAEJIIJ@Z ENDP		; CDlgStrategyList::WindowProc
; Function compile flags: /Ogtp
; File D:\git\src\IBK\IBK_DRFN\ProjSrc\SrcDrfn\Chart\HWSTRATEGYCONFIGUREWIZARD\DlgStrategyList.cpp
;	COMDAT ?DoDataExchange@CDlgStrategyList@@MAEXPAVCDataExchange@@@Z
_TEXT	SEGMENT
_pDX$ = 8						; size = 4
?DoDataExchange@CDlgStrategyList@@MAEXPAVCDataExchange@@@Z PROC ; CDlgStrategyList::DoDataExchange, COMDAT
; _this$ = ecx

; 92   : {

  00000	55		 push	 ebp
  00001	8b ec		 mov	 ebp, esp
  00003	56		 push	 esi

; 93   : 	CDialog::DoDataExchange(pDX);
; 94   : 	//{{AFX_DATA_MAP(CDlgStrategyList)
; 95   : 	DDX_Control(pDX, IDC_BTN_STDELETE, m_btnSTDel);

  00004	8b 75 08	 mov	 esi, DWORD PTR _pDX$[ebp]
  00007	57		 push	 edi
  00008	8b f9		 mov	 edi, ecx
  0000a	8d 87 28 0a 00
	00		 lea	 eax, DWORD PTR [edi+2600]
  00010	50		 push	 eax
  00011	68 86 69 00 00	 push	 27014			; 00006986H
  00016	56		 push	 esi
  00017	e8 00 00 00 00	 call	 ?DDX_Control@@YGXPAVCDataExchange@@HAAVCWnd@@@Z ; DDX_Control

; 96   : 	DDX_Control(pDX, IDC_BT_SAVE, m_btnSave);

  0001c	8d 87 b8 0a 00
	00		 lea	 eax, DWORD PTR [edi+2744]
  00022	50		 push	 eax
  00023	68 b8 69 00 00	 push	 27064			; 000069b8H
  00028	56		 push	 esi
  00029	e8 00 00 00 00	 call	 ?DDX_Control@@YGXPAVCDataExchange@@HAAVCWnd@@@Z ; DDX_Control

; 97   : 	DDX_Control(pDX, IDC_EDIT_ST_TITLE, m_editSTTitle);

  0002e	8d 87 a8 00 00
	00		 lea	 eax, DWORD PTR [edi+168]
  00034	50		 push	 eax
  00035	68 b7 69 00 00	 push	 27063			; 000069b7H
  0003a	56		 push	 esi
  0003b	e8 00 00 00 00	 call	 ?DDX_Control@@YGXPAVCDataExchange@@HAAVCWnd@@@Z ; DDX_Control

; 98   : 	DDX_Control(pDX, IDC_CTRLLOGIC, m_ctrlLogic);

  00040	8d 87 30 02 00
	00		 lea	 eax, DWORD PTR [edi+560]
  00046	50		 push	 eax
  00047	68 b5 69 00 00	 push	 27061			; 000069b5H
  0004c	56		 push	 esi
  0004d	e8 00 00 00 00	 call	 ?DDX_Control@@YGXPAVCDataExchange@@HAAVCWnd@@@Z ; DDX_Control

; 99   : 	DDX_Control(pDX, IDC_BTN_UP, m_btnUp);

  00052	8d 87 d8 02 00
	00		 lea	 eax, DWORD PTR [edi+728]
  00058	50		 push	 eax
  00059	68 7e 69 00 00	 push	 27006			; 0000697eH
  0005e	56		 push	 esi
  0005f	e8 00 00 00 00	 call	 ?DDX_Control@@YGXPAVCDataExchange@@HAAVCWnd@@@Z ; DDX_Control

; 100  : 	DDX_Control(pDX, IDC_BTN_DOWN, m_btnDown);

  00064	8d 87 68 03 00
	00		 lea	 eax, DWORD PTR [edi+872]
  0006a	50		 push	 eax
  0006b	68 7f 69 00 00	 push	 27007			; 0000697fH
  00070	56		 push	 esi
  00071	e8 00 00 00 00	 call	 ?DDX_Control@@YGXPAVCDataExchange@@HAAVCWnd@@@Z ; DDX_Control

; 101  : 	DDX_Control(pDX, IDC_BTN_DELETE, m_btnDelete);

  00076	8d 87 f8 03 00
	00		 lea	 eax, DWORD PTR [edi+1016]
  0007c	50		 push	 eax
  0007d	68 bb 69 00 00	 push	 27067			; 000069bbH
  00082	56		 push	 esi
  00083	e8 00 00 00 00	 call	 ?DDX_Control@@YGXPAVCDataExchange@@HAAVCWnd@@@Z ; DDX_Control

; 102  : 	DDX_Control(pDX, IDC_BTN_EDIT, m_btnEdit);

  00088	8d 87 88 04 00
	00		 lea	 eax, DWORD PTR [edi+1160]
  0008e	50		 push	 eax
  0008f	68 8c 69 00 00	 push	 27020			; 0000698cH
  00094	56		 push	 esi
  00095	e8 00 00 00 00	 call	 ?DDX_Control@@YGXPAVCDataExchange@@HAAVCWnd@@@Z ; DDX_Control

; 103  : 	DDX_Control(pDX, IDC_BTN_AND, m_btnAnd);

  0009a	8d 87 18 05 00
	00		 lea	 eax, DWORD PTR [edi+1304]
  000a0	50		 push	 eax
  000a1	68 81 69 00 00	 push	 27009			; 00006981H
  000a6	56		 push	 esi
  000a7	e8 00 00 00 00	 call	 ?DDX_Control@@YGXPAVCDataExchange@@HAAVCWnd@@@Z ; DDX_Control

; 104  : 	DDX_Control(pDX, IDC_BTN_OR, m_btnOr);

  000ac	8d 87 a8 05 00
	00		 lea	 eax, DWORD PTR [edi+1448]
  000b2	50		 push	 eax
  000b3	68 82 69 00 00	 push	 27010			; 00006982H
  000b8	56		 push	 esi
  000b9	e8 00 00 00 00	 call	 ?DDX_Control@@YGXPAVCDataExchange@@HAAVCWnd@@@Z ; DDX_Control

; 105  : 	DDX_Control(pDX, IDC_BTN_NOT, m_btnNot);

  000be	8d 87 38 06 00
	00		 lea	 eax, DWORD PTR [edi+1592]
  000c4	50		 push	 eax
  000c5	68 aa 69 00 00	 push	 27050			; 000069aaH
  000ca	56		 push	 esi
  000cb	e8 00 00 00 00	 call	 ?DDX_Control@@YGXPAVCDataExchange@@HAAVCWnd@@@Z ; DDX_Control

; 106  : 	DDX_Control(pDX, IDC_BTN_TRUE, m_btnTrue);

  000d0	8d 87 c8 06 00
	00		 lea	 eax, DWORD PTR [edi+1736]
  000d6	50		 push	 eax
  000d7	68 b6 69 00 00	 push	 27062			; 000069b6H
  000dc	56		 push	 esi
  000dd	e8 00 00 00 00	 call	 ?DDX_Control@@YGXPAVCDataExchange@@HAAVCWnd@@@Z ; DDX_Control

; 107  : 	DDX_Control(pDX, IDC_BTN_NEXT, m_btnNext);

  000e2	8d 87 58 07 00
	00		 lea	 eax, DWORD PTR [edi+1880]
  000e8	50		 push	 eax
  000e9	68 83 69 00 00	 push	 27011			; 00006983H
  000ee	56		 push	 esi
  000ef	e8 00 00 00 00	 call	 ?DDX_Control@@YGXPAVCDataExchange@@HAAVCWnd@@@Z ; DDX_Control

; 108  : 	DDX_Control(pDX, IDC_BTN_PARENTHESIS, m_btnParenthesis);

  000f4	8d 87 e8 07 00
	00		 lea	 eax, DWORD PTR [edi+2024]
  000fa	50		 push	 eax
  000fb	68 84 69 00 00	 push	 27012			; 00006984H
  00100	56		 push	 esi
  00101	e8 00 00 00 00	 call	 ?DDX_Control@@YGXPAVCDataExchange@@HAAVCWnd@@@Z ; DDX_Control

; 109  : 	DDX_Control(pDX, IDC_BTN_X, m_btnX);

  00106	8d 87 78 08 00
	00		 lea	 eax, DWORD PTR [edi+2168]
  0010c	50		 push	 eax
  0010d	68 85 69 00 00	 push	 27013			; 00006985H
  00112	56		 push	 esi
  00113	e8 00 00 00 00	 call	 ?DDX_Control@@YGXPAVCDataExchange@@HAAVCWnd@@@Z ; DDX_Control

; 110  : 	DDX_Control(pDX, IDC_BTN_INIT, m_btnInit);

  00118	8d 87 08 09 00
	00		 lea	 eax, DWORD PTR [edi+2312]
  0011e	50		 push	 eax
  0011f	68 7b 69 00 00	 push	 27003			; 0000697bH
  00124	56		 push	 esi
  00125	e8 00 00 00 00	 call	 ?DDX_Control@@YGXPAVCDataExchange@@HAAVCWnd@@@Z ; DDX_Control

; 111  : 	DDX_Control(pDX, IDC_BTN_STCLOSE, m_btnSTClose);

  0012a	8d 87 48 0b 00
	00		 lea	 eax, DWORD PTR [edi+2888]
  00130	50		 push	 eax
  00131	68 f9 03 00 00	 push	 1017			; 000003f9H
  00136	56		 push	 esi
  00137	e8 00 00 00 00	 call	 ?DDX_Control@@YGXPAVCDataExchange@@HAAVCWnd@@@Z ; DDX_Control

; 112  : 	DDX_Control(pDX, IDC_BTN_STCONFIGDLG, m_btnSTConfigDlg);

  0013c	8d 87 d8 0b 00
	00		 lea	 eax, DWORD PTR [edi+3032]
  00142	50		 push	 eax
  00143	68 f5 03 00 00	 push	 1013			; 000003f5H
  00148	56		 push	 esi
  00149	e8 00 00 00 00	 call	 ?DDX_Control@@YGXPAVCDataExchange@@HAAVCWnd@@@Z ; DDX_Control

; 113  : 	DDX_Control(pDX, IDC_BTN_STRUN, m_btnSTRun);

  0014e	8d 87 68 0c 00
	00		 lea	 eax, DWORD PTR [edi+3176]
  00154	50		 push	 eax
  00155	68 f6 03 00 00	 push	 1014			; 000003f6H
  0015a	56		 push	 esi
  0015b	e8 00 00 00 00	 call	 ?DDX_Control@@YGXPAVCDataExchange@@HAAVCWnd@@@Z ; DDX_Control

; 114  : 	DDX_Control(pDX, IDC_BTN_SYSTEMTRADING, m_btnSystemTrading);

  00160	8d 87 f8 0c 00
	00		 lea	 eax, DWORD PTR [edi+3320]
  00166	50		 push	 eax
  00167	68 f3 03 00 00	 push	 1011			; 000003f3H
  0016c	56		 push	 esi
  0016d	e8 00 00 00 00	 call	 ?DDX_Control@@YGXPAVCDataExchange@@HAAVCWnd@@@Z ; DDX_Control

; 115  : 	DDX_Control(pDX, IDC_BUTTON_SAVECONFIG, m_btnSaveConfig);

  00172	8d 87 88 0d 00
	00		 lea	 eax, DWORD PTR [edi+3464]
  00178	50		 push	 eax
  00179	68 50 71 00 00	 push	 29008			; 00007150H
  0017e	56		 push	 esi
  0017f	e8 00 00 00 00	 call	 ?DDX_Control@@YGXPAVCDataExchange@@HAAVCWnd@@@Z ; DDX_Control

; 116  : 	//}}AFX_DATA_MAP
; 117  : 	DDX_Control(pDX, IDC_LIST_STVARIABLES, m_InputList);

  00184	8d 87 18 0e 00
	00		 lea	 eax, DWORD PTR [edi+3608]
  0018a	50		 push	 eax
  0018b	68 4f 71 00 00	 push	 29007			; 0000714fH
  00190	56		 push	 esi
  00191	e8 00 00 00 00	 call	 ?DDX_Control@@YGXPAVCDataExchange@@HAAVCWnd@@@Z ; DDX_Control
  00196	5f		 pop	 edi
  00197	5e		 pop	 esi

; 118  : }

  00198	5d		 pop	 ebp
  00199	c2 04 00	 ret	 4
?DoDataExchange@CDlgStrategyList@@MAEXPAVCDataExchange@@@Z ENDP ; CDlgStrategyList::DoDataExchange
_TEXT	ENDS
; Function compile flags: /Ogtp
; File D:\git\src\IBK\IBK_DRFN\ProjSrc\SrcDrfn\Chart\HWSTRATEGYCONFIGUREWIZARD\DlgStrategyList.cpp
; File C:\Program Files (x86)\Microsoft Visual Studio\2019\Community\VC\Tools\MSVC\14.29.30133\atlmfc\include\afxwin2.inl
; File D:\git\src\IBK\IBK_DRFN\ProjSrc\SrcDrfn\Chart\HWSTRATEGYCONFIGUREWIZARD\DlgStrategyList.cpp
;	COMDAT ?PreTranslateMessage@CDlgStrategyList@@UAEHPAUtagMSG@@@Z
_TEXT	SEGMENT
_pMsg$ = 8						; size = 4
?PreTranslateMessage@CDlgStrategyList@@UAEHPAUtagMSG@@@Z PROC ; CDlgStrategyList::PreTranslateMessage, COMDAT
; _this$ = ecx

; 1471 : {

  00000	55		 push	 ebp
  00001	8b ec		 mov	 ebp, esp
  00003	56		 push	 esi

; 1472 : 	//     		JSJ_Modify_040421
; 1473 : 	if(pMsg->message == WM_KEYDOWN)   

  00004	8b 75 08	 mov	 esi, DWORD PTR _pMsg$[ebp]
  00007	57		 push	 edi
  00008	8b f9		 mov	 edi, ecx
  0000a	8b 46 04	 mov	 eax, DWORD PTR [esi+4]
  0000d	3d 00 01 00 00	 cmp	 eax, 256		; 00000100H
  00012	75 55		 jne	 SHORT $LN2@PreTransla

; 1474 : 	{
; 1475 : 		if(pMsg->wParam == VK_F4 && (::GetKeyState(VK_CONTROL) & 0x8000))

  00014	83 7e 08 73	 cmp	 DWORD PTR [esi+8], 115	; 00000073H
  00018	75 36		 jne	 SHORT $LN4@PreTransla
  0001a	6a 11		 push	 17			; 00000011H
  0001c	ff 15 00 00 00
	00		 call	 DWORD PTR __imp__GetKeyState@4
  00022	66 0f ba e0 0f	 bt	 ax, 15			; 0000000fH
  00027	73 27		 jae	 SHORT $LN4@PreTransla

; 1476 : 		{
; 1477 : 			pMsg->wParam = VK_ESCAPE;

  00029	c7 46 08 1b 00
	00 00		 mov	 DWORD PTR [esi+8], 27	; 0000001bH
; File C:\Program Files (x86)\Microsoft Visual Studio\2019\Community\VC\Tools\MSVC\14.29.30133\atlmfc\include\afxwin2.inl

; 213  : 	{ ASSERT(::IsWindow(m_hWnd)); return CWnd::FromHandle(::GetParent(m_hWnd)); }

  00030	ff 77 20	 push	 DWORD PTR [edi+32]
  00033	ff 15 00 00 00
	00		 call	 DWORD PTR __imp__GetParent@4
  00039	50		 push	 eax
  0003a	e8 00 00 00 00	 call	 ?FromHandle@CWnd@@SGPAV1@PAUHWND__@@@Z ; CWnd::FromHandle
; File D:\git\src\IBK\IBK_DRFN\ProjSrc\SrcDrfn\Chart\HWSTRATEGYCONFIGUREWIZARD\DlgStrategyList.cpp

; 1478 : 			return GetParent()->PreTranslateMessage(pMsg);

  0003f	56		 push	 esi
  00040	8b c8		 mov	 ecx, eax
  00042	8b 10		 mov	 edx, DWORD PTR [eax]
  00044	ff 92 14 01 00
	00		 call	 DWORD PTR [edx+276]
  0004a	5f		 pop	 edi

; 1494 : }

  0004b	5e		 pop	 esi
  0004c	5d		 pop	 ebp
  0004d	c2 04 00	 ret	 4
$LN4@PreTransla:

; 1479 : 		}
; 1480 : 		else
; 1481 : 			return m_InputList.PreTranslateMessage(pMsg);

  00050	8b 87 18 0e 00
	00		 mov	 eax, DWORD PTR [edi+3608]
  00056	8d 8f 18 0e 00
	00		 lea	 ecx, DWORD PTR [edi+3608]
  0005c	56		 push	 esi
  0005d	ff 90 14 01 00
	00		 call	 DWORD PTR [eax+276]
  00063	5f		 pop	 edi

; 1494 : }

  00064	5e		 pop	 esi
  00065	5d		 pop	 ebp
  00066	c2 04 00	 ret	 4
$LN2@PreTransla:

; 1482 : 	}
; 1483 : 	else if(pMsg->message == WM_SYSKEYDOWN)

  00069	3d 04 01 00 00	 cmp	 eax, 260		; 00000104H
  0006e	75 17		 jne	 SHORT $LN6@PreTransla

; 1484 : 	{
; 1485 : 		if( ::GetKeyState(VK_MENU) & 0x8000)

  00070	6a 12		 push	 18			; 00000012H
  00072	ff 15 00 00 00
	00		 call	 DWORD PTR __imp__GetKeyState@4
  00078	66 0f ba e0 0f	 bt	 ax, 15			; 0000000fH
  0007d	73 19		 jae	 SHORT $LN9@PreTransla

; 1486 : 			return FALSE;

  0007f	5f		 pop	 edi
  00080	33 c0		 xor	 eax, eax

; 1494 : }

  00082	5e		 pop	 esi
  00083	5d		 pop	 ebp
  00084	c2 04 00	 ret	 4
$LN6@PreTransla:

; 1487 : 	}
; 1488 : 	else if(pMsg->wParam == VK_RETURN)

  00087	83 7e 08 0d	 cmp	 DWORD PTR [esi+8], 13	; 0000000dH
  0008b	75 0b		 jne	 SHORT $LN9@PreTransla

; 1489 : 	{
; 1490 : 		return TRUE;

  0008d	5f		 pop	 edi
  0008e	b8 01 00 00 00	 mov	 eax, 1

; 1494 : }

  00093	5e		 pop	 esi
  00094	5d		 pop	 ebp
  00095	c2 04 00	 ret	 4
$LN9@PreTransla:

; 1491 : 	}
; 1492 : 	
; 1493 : 	return CDialog::PreTranslateMessage(pMsg);

  00098	56		 push	 esi
  00099	8b cf		 mov	 ecx, edi
  0009b	e8 00 00 00 00	 call	 ?PreTranslateMessage@CDialog@@UAEHPAUtagMSG@@@Z ; CDialog::PreTranslateMessage
  000a0	5f		 pop	 edi

; 1494 : }

  000a1	5e		 pop	 esi
  000a2	5d		 pop	 ebp
  000a3	c2 04 00	 ret	 4
?PreTranslateMessage@CDlgStrategyList@@UAEHPAUtagMSG@@@Z ENDP ; CDlgStrategyList::PreTranslateMessage
_TEXT	ENDS
; Function compile flags: /Ogtp
; File D:\git\src\IBK\IBK_DRFN\ProjSrc\SrcDrfn\Chart\HWSTRATEGYCONFIGUREWIZARD\DlgStrategyList.cpp
; File C:\Program Files (x86)\Microsoft Visual Studio\2019\Community\VC\Tools\MSVC\14.29.30133\atlmfc\include\afxwin2.inl
; File D:\git\src\IBK\IBK_DRFN\ProjSrc\SrcDrfn\Chart\HWSTRATEGYCONFIGUREWIZARD\DlgStrategyList.cpp
; File C:\Program Files (x86)\Microsoft Visual Studio\2019\Community\VC\Tools\MSVC\14.29.30133\atlmfc\include\afxwin2.inl
; File D:\git\src\IBK\IBK_DRFN\ProjSrc\SrcDrfn\Chart\HWSTRATEGYCONFIGUREWIZARD\DlgStrategyList.cpp
; File C:\Program Files (x86)\Microsoft Visual Studio\2019\Community\VC\Tools\MSVC\14.29.30133\atlmfc\include\afxwin2.inl
; File C:\Program Files (x86)\Microsoft Visual Studio\2019\Community\VC\Tools\MSVC\14.29.30133\atlmfc\include\atltypes.h
; File C:\Program Files (x86)\Microsoft Visual Studio\2019\Community\VC\Tools\MSVC\14.29.30133\atlmfc\include\afxwin2.inl
; File D:\git\src\IBK\IBK_DRFN\ProjSrc\SrcDrfn\Chart\HWSTRATEGYCONFIGUREWIZARD\DlgStrategyList.cpp
; File C:\Program Files (x86)\Microsoft Visual Studio\2019\Community\VC\Tools\MSVC\14.29.30133\atlmfc\include\atltypes.h
; File D:\git\src\IBK\IBK_DRFN\ProjSrc\SrcDrfn\Chart\HWSTRATEGYCONFIGUREWIZARD\DlgStrategyList.cpp
; File C:\Program Files (x86)\Microsoft Visual Studio\2019\Community\VC\Tools\MSVC\14.29.30133\atlmfc\include\atltypes.h
; File D:\git\src\IBK\IBK_DRFN\ProjSrc\SrcDrfn\Chart\HWSTRATEGYCONFIGUREWIZARD\DlgStrategyList.cpp
; File C:\Program Files (x86)\Microsoft Visual Studio\2019\Community\VC\Tools\MSVC\14.29.30133\atlmfc\include\afxwin2.inl
; File D:\git\src\IBK\IBK_DRFN\ProjSrc\SrcDrfn\Chart\HWSTRATEGYCONFIGUREWIZARD\DlgStrategyList.cpp
; File C:\Program Files (x86)\Microsoft Visual Studio\2019\Community\VC\Tools\MSVC\14.29.30133\atlmfc\include\afxwin2.inl
; File D:\git\src\IBK\IBK_DRFN\ProjSrc\SrcDrfn\Chart\HWSTRATEGYCONFIGUREWIZARD\DlgStrategyList.cpp
; File C:\Program Files (x86)\Microsoft Visual Studio\2019\Community\VC\Tools\MSVC\14.29.30133\atlmfc\include\afxwin2.inl
; File C:\Program Files (x86)\Microsoft Visual Studio\2019\Community\VC\Tools\MSVC\14.29.30133\atlmfc\include\atltypes.h
; File C:\Program Files (x86)\Microsoft Visual Studio\2019\Community\VC\Tools\MSVC\14.29.30133\atlmfc\include\afxwin2.inl
; File D:\git\src\IBK\IBK_DRFN\ProjSrc\SrcDrfn\Chart\HWSTRATEGYCONFIGUREWIZARD\DlgStrategyList.cpp
; File C:\Program Files (x86)\Microsoft Visual Studio\2019\Community\VC\Tools\MSVC\14.29.30133\atlmfc\include\afxwin2.inl
; File D:\git\src\IBK\IBK_DRFN\ProjSrc\SrcDrfn\Chart\HWSTRATEGYCONFIGUREWIZARD\DlgStrategyList.cpp
;	COMDAT ?ResizeAll@CDlgStrategyList@@QAEXXZ
_TEXT	SEGMENT
_rect$ = -40						; size = 16
_lWidth$ = -24						; size = 20
$T1 = -20						; size = 16
__$ArrayPad$ = -4					; size = 4
?ResizeAll@CDlgStrategyList@@QAEXXZ PROC		; CDlgStrategyList::ResizeAll, COMDAT
; _this$ = ecx

; 408  : {

  00000	55		 push	 ebp
  00001	8b ec		 mov	 ebp, esp
  00003	83 ec 28	 sub	 esp, 40			; 00000028H
  00006	a1 00 00 00 00	 mov	 eax, DWORD PTR ___security_cookie
  0000b	33 c5		 xor	 eax, ebp
  0000d	89 45 fc	 mov	 DWORD PTR __$ArrayPad$[ebp], eax
; File C:\Program Files (x86)\Microsoft Visual Studio\2019\Community\VC\Tools\MSVC\14.29.30133\atlmfc\include\afxwin2.inl

; 25   : 	{ return this == NULL ? NULL : m_hWnd; }

  00010	a1 00 00 00 00	 mov	 eax, DWORD PTR __imp__GetClientRect@8
; File D:\git\src\IBK\IBK_DRFN\ProjSrc\SrcDrfn\Chart\HWSTRATEGYCONFIGUREWIZARD\DlgStrategyList.cpp

; 408  : {

  00015	53		 push	 ebx
  00016	8b d9		 mov	 ebx, ecx
  00018	56		 push	 esi
  00019	57		 push	 edi

; 409  : 	if(m_GridSTList.GetSafeHwnd()) m_GridSTList.MoveWindow(GetRect(IDC_GRID));

  0001a	8d bb d8 0f 00
	00		 lea	 edi, DWORD PTR [ebx+4056]
; File C:\Program Files (x86)\Microsoft Visual Studio\2019\Community\VC\Tools\MSVC\14.29.30133\atlmfc\include\afxwin2.inl

; 25   : 	{ return this == NULL ? NULL : m_hWnd; }

  00020	85 ff		 test	 edi, edi
  00022	74 5c		 je	 SHORT $LN5@ResizeAll
; File D:\git\src\IBK\IBK_DRFN\ProjSrc\SrcDrfn\Chart\HWSTRATEGYCONFIGUREWIZARD\DlgStrategyList.cpp

; 409  : 	if(m_GridSTList.GetSafeHwnd()) m_GridSTList.MoveWindow(GetRect(IDC_GRID));

  00024	83 7f 20 00	 cmp	 DWORD PTR [edi+32], 0
  00028	74 56		 je	 SHORT $LN5@ResizeAll
; File C:\Program Files (x86)\Microsoft Visual Studio\2019\Community\VC\Tools\MSVC\14.29.30133\atlmfc\include\afxwin2.inl

; 86   : 	{ ASSERT(::IsWindow(m_hWnd)); ::GetClientRect(m_hWnd, lpRect); }

  0002a	8d 4d ec	 lea	 ecx, DWORD PTR $T1[ebp]
  0002d	0f 57 c0	 xorps	 xmm0, xmm0
  00030	51		 push	 ecx
  00031	ff 73 20	 push	 DWORD PTR [ebx+32]
; File C:\Program Files (x86)\Microsoft Visual Studio\2019\Community\VC\Tools\MSVC\14.29.30133\atlmfc\include\atltypes.h

; 528  : 	left = 0;

  00034	0f 11 45 ec	 movups	 XMMWORD PTR $T1[ebp], xmm0
; File C:\Program Files (x86)\Microsoft Visual Studio\2019\Community\VC\Tools\MSVC\14.29.30133\atlmfc\include\afxwin2.inl

; 86   : 	{ ASSERT(::IsWindow(m_hWnd)); ::GetClientRect(m_hWnd, lpRect); }

  00038	ff d0		 call	 eax
; File D:\git\src\IBK\IBK_DRFN\ProjSrc\SrcDrfn\Chart\HWSTRATEGYCONFIGUREWIZARD\DlgStrategyList.cpp

; 277  : 			rect.top = rect.top + m_rcSTOption.top;

  0003a	8b 8b 80 14 00
	00		 mov	 ecx, DWORD PTR [ebx+5248]
  00040	8b 75 f0	 mov	 esi, DWORD PTR $T1[ebp+4]
; File C:\Program Files (x86)\Microsoft Visual Studio\2019\Community\VC\Tools\MSVC\14.29.30133\atlmfc\include\atltypes.h

; 581  : 	return bottom - top;

  00043	8b 83 88 14 00
	00		 mov	 eax, DWORD PTR [ebx+5256]
; File D:\git\src\IBK\IBK_DRFN\ProjSrc\SrcDrfn\Chart\HWSTRATEGYCONFIGUREWIZARD\DlgStrategyList.cpp

; 277  : 			rect.top = rect.top + m_rcSTOption.top;

  00049	03 f1		 add	 esi, ecx

; 279  : 			rect.right = rect.right - 242;

  0004b	8b 55 f4	 mov	 edx, DWORD PTR $T1[ebp+8]
; File C:\Program Files (x86)\Microsoft Visual Studio\2019\Community\VC\Tools\MSVC\14.29.30133\atlmfc\include\atltypes.h

; 581  : 	return bottom - top;

  0004e	2b c1		 sub	 eax, ecx
  00050	03 c6		 add	 eax, esi
; File D:\git\src\IBK\IBK_DRFN\ProjSrc\SrcDrfn\Chart\HWSTRATEGYCONFIGUREWIZARD\DlgStrategyList.cpp

; 276  : 			rect.left = 11;

  00052	c7 45 ec 0b 00
	00 00		 mov	 DWORD PTR $T1[ebp], 11	; 0000000bH

; 279  : 			rect.right = rect.right - 242;

  00059	81 ea f2 00 00
	00		 sub	 edx, 242		; 000000f2H

; 280  : 			rect.bottom = rect.top + m_rcSTOption.Height();

  0005f	89 45 f8	 mov	 DWORD PTR $T1[ebp+12], eax
; File C:\Program Files (x86)\Microsoft Visual Studio\2019\Community\VC\Tools\MSVC\14.29.30133\atlmfc\include\afxwin2.inl

; 73   : 	{ MoveWindow(lpRect->left, lpRect->top, lpRect->right - lpRect->left,

  00062	6a 01		 push	 1
  00064	2b c6		 sub	 eax, esi
; File D:\git\src\IBK\IBK_DRFN\ProjSrc\SrcDrfn\Chart\HWSTRATEGYCONFIGUREWIZARD\DlgStrategyList.cpp

; 277  : 			rect.top = rect.top + m_rcSTOption.top;

  00066	89 75 f0	 mov	 DWORD PTR $T1[ebp+4], esi
; File C:\Program Files (x86)\Microsoft Visual Studio\2019\Community\VC\Tools\MSVC\14.29.30133\atlmfc\include\afxwin2.inl

; 73   : 	{ MoveWindow(lpRect->left, lpRect->top, lpRect->right - lpRect->left,

  00069	50		 push	 eax
  0006a	8d 42 f5	 lea	 eax, DWORD PTR [edx-11]
; File D:\git\src\IBK\IBK_DRFN\ProjSrc\SrcDrfn\Chart\HWSTRATEGYCONFIGUREWIZARD\DlgStrategyList.cpp

; 279  : 			rect.right = rect.right - 242;

  0006d	89 55 f4	 mov	 DWORD PTR $T1[ebp+8], edx
; File C:\Program Files (x86)\Microsoft Visual Studio\2019\Community\VC\Tools\MSVC\14.29.30133\atlmfc\include\afxwin2.inl

; 73   : 	{ MoveWindow(lpRect->left, lpRect->top, lpRect->right - lpRect->left,

  00070	50		 push	 eax
  00071	56		 push	 esi
  00072	6a 0b		 push	 11			; 0000000bH
  00074	8b cf		 mov	 ecx, edi
  00076	e8 00 00 00 00	 call	 ?MoveWindow@CWnd@@QAEXHHHHH@Z ; CWnd::MoveWindow
  0007b	a1 00 00 00 00	 mov	 eax, DWORD PTR __imp__GetClientRect@8
$LN5@ResizeAll:

; 86   : 	{ ASSERT(::IsWindow(m_hWnd)); ::GetClientRect(m_hWnd, lpRect); }

  00080	8d 4d d8	 lea	 ecx, DWORD PTR _rect$[ebp]
  00083	0f 57 c0	 xorps	 xmm0, xmm0
  00086	51		 push	 ecx
  00087	ff 73 20	 push	 DWORD PTR [ebx+32]
; File C:\Program Files (x86)\Microsoft Visual Studio\2019\Community\VC\Tools\MSVC\14.29.30133\atlmfc\include\atltypes.h

; 528  : 	left = 0;

  0008a	0f 11 45 d8	 movups	 XMMWORD PTR _rect$[ebp], xmm0
; File C:\Program Files (x86)\Microsoft Visual Studio\2019\Community\VC\Tools\MSVC\14.29.30133\atlmfc\include\afxwin2.inl

; 86   : 	{ ASSERT(::IsWindow(m_hWnd)); ::GetClientRect(m_hWnd, lpRect); }

  0008e	ff d0		 call	 eax
; File D:\git\src\IBK\IBK_DRFN\ProjSrc\SrcDrfn\Chart\HWSTRATEGYCONFIGUREWIZARD\DlgStrategyList.cpp

; 413  : 	long lWidth[MAX_COL] = {5, 215, 0, 10, 10};

  00090	0f 28 05 00 00
	00 00		 movaps	 xmm0, XMMWORD PTR __xmm@0000000a00000000000000d700000005
  00097	c7 45 f8 0a 00
	00 00		 mov	 DWORD PTR _lWidth$[ebp+16], 10 ; 0000000aH
  0009e	0f 11 45 e8	 movups	 XMMWORD PTR _lWidth$[ebp], xmm0
; File C:\Program Files (x86)\Microsoft Visual Studio\2019\Community\VC\Tools\MSVC\14.29.30133\atlmfc\include\afxwin2.inl

; 25   : 	{ return this == NULL ? NULL : m_hWnd; }

  000a2	85 ff		 test	 edi, edi
  000a4	74 2e		 je	 SHORT $LN6@ResizeAll
; File D:\git\src\IBK\IBK_DRFN\ProjSrc\SrcDrfn\Chart\HWSTRATEGYCONFIGUREWIZARD\DlgStrategyList.cpp

; 415  : 	if(m_GridSTList.GetSafeHwnd())

  000a6	83 7f 20 00	 cmp	 DWORD PTR [edi+32], 0
  000aa	74 28		 je	 SHORT $LN6@ResizeAll

; 416  : 	{
; 417  : 		for (int col = 0; col < m_GridSTList.GetColumnCount(); col++)

  000ac	33 f6		 xor	 esi, esi
  000ae	39 b3 f8 10 00
	00		 cmp	 DWORD PTR [ebx+4344], esi
  000b4	7e 15		 jle	 SHORT $LN3@ResizeAll
$LL4@ResizeAll:
  000b6	ff 74 b5 e8	 push	 DWORD PTR _lWidth$[ebp+esi*4]
  000ba	8b cf		 mov	 ecx, edi
  000bc	56		 push	 esi
  000bd	e8 00 00 00 00	 call	 ?SetColumnWidth@CGridCtrl@@QAEHHH@Z ; CGridCtrl::SetColumnWidth
  000c2	46		 inc	 esi
  000c3	3b b3 f8 10 00
	00		 cmp	 esi, DWORD PTR [ebx+4344]
  000c9	7c eb		 jl	 SHORT $LL4@ResizeAll
$LN3@ResizeAll:

; 418  : 		{
; 419  : 			if(col==1)
; 420  : 				m_GridSTList.SetColumnWidth(col,lWidth[col]);
; 421  : 			else
; 422  : 				m_GridSTList.SetColumnWidth(col,lWidth[col]);
; 423  : 		}
; 424  : 		m_GridSTList.ExpandColumnsToFit();

  000cb	6a 01		 push	 1
  000cd	8b cf		 mov	 ecx, edi
  000cf	e8 00 00 00 00	 call	 ?ExpandColumnsToFit@CGridCtrl@@QAEXH@Z ; CGridCtrl::ExpandColumnsToFit
$LN6@ResizeAll:

; 425  : 	}
; 426  : }

  000d4	8b 4d fc	 mov	 ecx, DWORD PTR __$ArrayPad$[ebp]
  000d7	5f		 pop	 edi
  000d8	5e		 pop	 esi
  000d9	33 cd		 xor	 ecx, ebp
  000db	5b		 pop	 ebx
  000dc	e8 00 00 00 00	 call	 @__security_check_cookie@4
  000e1	8b e5		 mov	 esp, ebp
  000e3	5d		 pop	 ebp
  000e4	c3		 ret	 0
?ResizeAll@CDlgStrategyList@@QAEXXZ ENDP		; CDlgStrategyList::ResizeAll
_TEXT	ENDS
; Function compile flags: /Ogtp
; File D:\git\src\IBK\IBK_DRFN\ProjSrc\SrcDrfn\Chart\HWSTRATEGYCONFIGUREWIZARD\DlgStrategyList.cpp
; File C:\Program Files (x86)\Microsoft Visual Studio\2019\Community\VC\Tools\MSVC\14.29.30133\atlmfc\include\afxwin2.inl
; File D:\git\src\IBK\IBK_DRFN\ProjSrc\SrcDrfn\Chart\HWSTRATEGYCONFIGUREWIZARD\DlgStrategyList.cpp
; File C:\Program Files (x86)\Microsoft Visual Studio\2019\Community\VC\Tools\MSVC\14.29.30133\atlmfc\include\afxwin2.inl
; File D:\git\src\IBK\IBK_DRFN\ProjSrc\SrcDrfn\Chart\HWSTRATEGYCONFIGUREWIZARD\DlgStrategyList.cpp
; File C:\Program Files (x86)\Microsoft Visual Studio\2019\Community\VC\Tools\MSVC\14.29.30133\atlmfc\include\afxwin2.inl
; File D:\git\src\IBK\IBK_DRFN\ProjSrc\SrcDrfn\Chart\HWSTRATEGYCONFIGUREWIZARD\DlgStrategyList.cpp
; File C:\Program Files (x86)\Microsoft Visual Studio\2019\Community\VC\Tools\MSVC\14.29.30133\atlmfc\include\afxwin2.inl
; File D:\git\src\IBK\IBK_DRFN\ProjSrc\SrcDrfn\Chart\HWSTRATEGYCONFIGUREWIZARD\DlgStrategyList.cpp
; File C:\Program Files (x86)\Microsoft Visual Studio\2019\Community\VC\Tools\MSVC\14.29.30133\atlmfc\include\afxwin1.inl
; File D:\git\src\IBK\IBK_DRFN\ProjSrc\SrcDrfn\Chart\HWSTRATEGYCONFIGUREWIZARD\DlgStrategyList.cpp
; File C:\Program Files (x86)\Microsoft Visual Studio\2019\Community\VC\Tools\MSVC\14.29.30133\atlmfc\include\atltypes.h
; File D:\git\src\IBK\IBK_DRFN\ProjSrc\SrcDrfn\Chart\HWSTRATEGYCONFIGUREWIZARD\DlgStrategyList.cpp
; File C:\Program Files (x86)\Microsoft Visual Studio\2019\Community\VC\Tools\MSVC\14.29.30133\atlmfc\include\afxwin1.inl
; File D:\git\src\IBK\IBK_DRFN\ProjSrc\SrcDrfn\Chart\HWSTRATEGYCONFIGUREWIZARD\DlgStrategyList.cpp
; File C:\Program Files (x86)\Microsoft Visual Studio\2019\Community\VC\Tools\MSVC\14.29.30133\atlmfc\include\afxwin1.inl
; File D:\git\src\IBK\IBK_DRFN\ProjSrc\SrcDrfn\Chart\HWSTRATEGYCONFIGUREWIZARD\DlgStrategyList.cpp
;	COMDAT ??0CDlgStrategyList@@QAE@PAVCWnd@@@Z
_TEXT	SEGMENT
_this$ = -16						; size = 4
__$EHRec$ = -12						; size = 12
_this$ = 8						; size = 4
_this$ = 8						; size = 4
_pParent$ = 8						; size = 4
??0CDlgStrategyList@@QAE@PAVCWnd@@@Z PROC		; CDlgStrategyList::CDlgStrategyList, COMDAT
; _this$ = ecx

; 77   : {

  00000	55		 push	 ebp
  00001	8b ec		 mov	 ebp, esp
  00003	6a ff		 push	 -1
  00005	68 00 00 00 00	 push	 __ehhandler$??0CDlgStrategyList@@QAE@PAVCWnd@@@Z
  0000a	64 a1 00 00 00
	00		 mov	 eax, DWORD PTR fs:0
  00010	50		 push	 eax
  00011	51		 push	 ecx
  00012	56		 push	 esi
  00013	57		 push	 edi
  00014	a1 00 00 00 00	 mov	 eax, DWORD PTR ___security_cookie
  00019	33 c5		 xor	 eax, ebp
  0001b	50		 push	 eax
  0001c	8d 45 f4	 lea	 eax, DWORD PTR __$EHRec$[ebp]
  0001f	64 a3 00 00 00
	00		 mov	 DWORD PTR fs:0, eax
  00025	8b f9		 mov	 edi, ecx
  00027	89 7d f0	 mov	 DWORD PTR _this$[ebp], edi

; 76   : 	: CDialog(CDlgStrategyList::IDD, pParent)

  0002a	ff 75 08	 push	 DWORD PTR _pParent$[ebp]
  0002d	68 79 69 00 00	 push	 27001			; 00006979H
  00032	e8 00 00 00 00	 call	 ??0CDialog@@QAE@IPAVCWnd@@@Z ; CDialog::CDialog

; 77   : {

  00037	6a 00		 push	 0
  00039	8d 8f a8 00 00
	00		 lea	 ecx, DWORD PTR [edi+168]
  0003f	c7 45 fc 00 00
	00 00		 mov	 DWORD PTR __$EHRec$[ebp+8], 0
  00046	c7 07 00 00 00
	00		 mov	 DWORD PTR [edi], OFFSET ??_7CDlgStrategyList@@6B@
  0004c	e8 00 00 00 00	 call	 ??0CExEdit@@QAE@H@Z	; CExEdit::CExEdit
  00051	8d b7 30 01 00
	00		 lea	 esi, DWORD PTR [edi+304]
  00057	c6 45 fc 01	 mov	 BYTE PTR __$EHRec$[ebp+8], 1
; File C:\Program Files (x86)\Microsoft Visual Studio\2019\Community\VC\Tools\MSVC\14.29.30133\atlmfc\include\afxwin2.inl

; 603  : 	{ }

  0005b	8b ce		 mov	 ecx, esi
; File D:\git\src\IBK\IBK_DRFN\ProjSrc\SrcDrfn\Chart\HWSTRATEGYCONFIGUREWIZARD\DlgStrategyList.cpp

; 77   : {

  0005d	89 75 08	 mov	 DWORD PTR _this$[ebp], esi
; File C:\Program Files (x86)\Microsoft Visual Studio\2019\Community\VC\Tools\MSVC\14.29.30133\atlmfc\include\afxwin2.inl

; 603  : 	{ }

  00060	e8 00 00 00 00	 call	 ??0CWnd@@QAE@XZ		; CWnd::CWnd
  00065	c7 06 00 00 00
	00		 mov	 DWORD PTR [esi], OFFSET ??_7CStatic@@6B@
; File D:\git\src\IBK\IBK_DRFN\ProjSrc\SrcDrfn\Chart\HWSTRATEGYCONFIGUREWIZARD\DlgStrategyList.cpp

; 77   : {

  0006b	8d b7 b0 01 00
	00		 lea	 esi, DWORD PTR [edi+432]
  00071	c6 45 fc 02	 mov	 BYTE PTR __$EHRec$[ebp+8], 2
; File C:\Program Files (x86)\Microsoft Visual Studio\2019\Community\VC\Tools\MSVC\14.29.30133\atlmfc\include\afxwin2.inl

; 603  : 	{ }

  00075	8b ce		 mov	 ecx, esi
; File D:\git\src\IBK\IBK_DRFN\ProjSrc\SrcDrfn\Chart\HWSTRATEGYCONFIGUREWIZARD\DlgStrategyList.cpp

; 77   : {

  00077	89 75 08	 mov	 DWORD PTR _this$[ebp], esi
; File C:\Program Files (x86)\Microsoft Visual Studio\2019\Community\VC\Tools\MSVC\14.29.30133\atlmfc\include\afxwin2.inl

; 603  : 	{ }

  0007a	e8 00 00 00 00	 call	 ??0CWnd@@QAE@XZ		; CWnd::CWnd
  0007f	c7 06 00 00 00
	00		 mov	 DWORD PTR [esi], OFFSET ??_7CStatic@@6B@
; File D:\git\src\IBK\IBK_DRFN\ProjSrc\SrcDrfn\Chart\HWSTRATEGYCONFIGUREWIZARD\DlgStrategyList.cpp

; 77   : {

  00085	8d 8f 30 02 00
	00		 lea	 ecx, DWORD PTR [edi+560]
  0008b	c6 45 fc 03	 mov	 BYTE PTR __$EHRec$[ebp+8], 3
  0008f	e8 00 00 00 00	 call	 ??0CLogicEditCtrl@@QAE@XZ ; CLogicEditCtrl::CLogicEditCtrl
  00094	6a 00		 push	 0
  00096	8d 8f d8 02 00
	00		 lea	 ecx, DWORD PTR [edi+728]
  0009c	c6 45 fc 04	 mov	 BYTE PTR __$EHRec$[ebp+8], 4
  000a0	e8 00 00 00 00	 call	 ??0CExDrawButton@@QAE@H@Z ; CExDrawButton::CExDrawButton
  000a5	6a 00		 push	 0
  000a7	8d 8f 68 03 00
	00		 lea	 ecx, DWORD PTR [edi+872]
  000ad	c6 45 fc 05	 mov	 BYTE PTR __$EHRec$[ebp+8], 5
  000b1	e8 00 00 00 00	 call	 ??0CExDrawButton@@QAE@H@Z ; CExDrawButton::CExDrawButton
  000b6	6a 00		 push	 0
  000b8	8d 8f f8 03 00
	00		 lea	 ecx, DWORD PTR [edi+1016]
  000be	c6 45 fc 06	 mov	 BYTE PTR __$EHRec$[ebp+8], 6
  000c2	e8 00 00 00 00	 call	 ??0CExDrawButton@@QAE@H@Z ; CExDrawButton::CExDrawButton
  000c7	6a 00		 push	 0
  000c9	8d 8f 88 04 00
	00		 lea	 ecx, DWORD PTR [edi+1160]
  000cf	c6 45 fc 07	 mov	 BYTE PTR __$EHRec$[ebp+8], 7
  000d3	e8 00 00 00 00	 call	 ??0CExDrawButton@@QAE@H@Z ; CExDrawButton::CExDrawButton
  000d8	6a 00		 push	 0
  000da	8d 8f 18 05 00
	00		 lea	 ecx, DWORD PTR [edi+1304]
  000e0	c6 45 fc 08	 mov	 BYTE PTR __$EHRec$[ebp+8], 8
  000e4	e8 00 00 00 00	 call	 ??0CExDrawButton@@QAE@H@Z ; CExDrawButton::CExDrawButton
  000e9	6a 00		 push	 0
  000eb	8d 8f a8 05 00
	00		 lea	 ecx, DWORD PTR [edi+1448]
  000f1	c6 45 fc 09	 mov	 BYTE PTR __$EHRec$[ebp+8], 9
  000f5	e8 00 00 00 00	 call	 ??0CExDrawButton@@QAE@H@Z ; CExDrawButton::CExDrawButton
  000fa	6a 00		 push	 0
  000fc	8d 8f 38 06 00
	00		 lea	 ecx, DWORD PTR [edi+1592]
  00102	c6 45 fc 0a	 mov	 BYTE PTR __$EHRec$[ebp+8], 10 ; 0000000aH
  00106	e8 00 00 00 00	 call	 ??0CExDrawButton@@QAE@H@Z ; CExDrawButton::CExDrawButton
  0010b	6a 00		 push	 0
  0010d	8d 8f c8 06 00
	00		 lea	 ecx, DWORD PTR [edi+1736]
  00113	c6 45 fc 0b	 mov	 BYTE PTR __$EHRec$[ebp+8], 11 ; 0000000bH
  00117	e8 00 00 00 00	 call	 ??0CExDrawButton@@QAE@H@Z ; CExDrawButton::CExDrawButton
  0011c	6a 00		 push	 0
  0011e	8d 8f 58 07 00
	00		 lea	 ecx, DWORD PTR [edi+1880]
  00124	c6 45 fc 0c	 mov	 BYTE PTR __$EHRec$[ebp+8], 12 ; 0000000cH
  00128	e8 00 00 00 00	 call	 ??0CExDrawButton@@QAE@H@Z ; CExDrawButton::CExDrawButton
  0012d	6a 00		 push	 0
  0012f	8d 8f e8 07 00
	00		 lea	 ecx, DWORD PTR [edi+2024]
  00135	c6 45 fc 0d	 mov	 BYTE PTR __$EHRec$[ebp+8], 13 ; 0000000dH
  00139	e8 00 00 00 00	 call	 ??0CExDrawButton@@QAE@H@Z ; CExDrawButton::CExDrawButton
  0013e	c6 45 fc 0e	 mov	 BYTE PTR __$EHRec$[ebp+8], 14 ; 0000000eH
  00142	8d 8f 78 08 00
	00		 lea	 ecx, DWORD PTR [edi+2168]
  00148	6a 00		 push	 0
  0014a	e8 00 00 00 00	 call	 ??0CExDrawButton@@QAE@H@Z ; CExDrawButton::CExDrawButton
  0014f	6a 00		 push	 0
  00151	8d 8f 08 09 00
	00		 lea	 ecx, DWORD PTR [edi+2312]
  00157	c6 45 fc 0f	 mov	 BYTE PTR __$EHRec$[ebp+8], 15 ; 0000000fH
  0015b	e8 00 00 00 00	 call	 ??0CExDrawButton@@QAE@H@Z ; CExDrawButton::CExDrawButton
  00160	6a 00		 push	 0
  00162	8d 8f 98 09 00
	00		 lea	 ecx, DWORD PTR [edi+2456]
  00168	c6 45 fc 10	 mov	 BYTE PTR __$EHRec$[ebp+8], 16 ; 00000010H
  0016c	e8 00 00 00 00	 call	 ??0CExDrawButton@@QAE@H@Z ; CExDrawButton::CExDrawButton
  00171	6a 00		 push	 0
  00173	8d 8f 28 0a 00
	00		 lea	 ecx, DWORD PTR [edi+2600]
  00179	c6 45 fc 11	 mov	 BYTE PTR __$EHRec$[ebp+8], 17 ; 00000011H
  0017d	e8 00 00 00 00	 call	 ??0CExDrawButton@@QAE@H@Z ; CExDrawButton::CExDrawButton
  00182	6a 00		 push	 0
  00184	8d 8f b8 0a 00
	00		 lea	 ecx, DWORD PTR [edi+2744]
  0018a	c6 45 fc 12	 mov	 BYTE PTR __$EHRec$[ebp+8], 18 ; 00000012H
  0018e	e8 00 00 00 00	 call	 ??0CExDrawButton@@QAE@H@Z ; CExDrawButton::CExDrawButton
  00193	6a 00		 push	 0
  00195	8d 8f 48 0b 00
	00		 lea	 ecx, DWORD PTR [edi+2888]
  0019b	c6 45 fc 13	 mov	 BYTE PTR __$EHRec$[ebp+8], 19 ; 00000013H
  0019f	e8 00 00 00 00	 call	 ??0CExDrawButton@@QAE@H@Z ; CExDrawButton::CExDrawButton
  001a4	6a 00		 push	 0
  001a6	8d 8f d8 0b 00
	00		 lea	 ecx, DWORD PTR [edi+3032]
  001ac	c6 45 fc 14	 mov	 BYTE PTR __$EHRec$[ebp+8], 20 ; 00000014H
  001b0	e8 00 00 00 00	 call	 ??0CExDrawButton@@QAE@H@Z ; CExDrawButton::CExDrawButton
  001b5	6a 00		 push	 0
  001b7	8d 8f 68 0c 00
	00		 lea	 ecx, DWORD PTR [edi+3176]
  001bd	c6 45 fc 15	 mov	 BYTE PTR __$EHRec$[ebp+8], 21 ; 00000015H
  001c1	e8 00 00 00 00	 call	 ??0CExDrawButton@@QAE@H@Z ; CExDrawButton::CExDrawButton
  001c6	6a 00		 push	 0
  001c8	8d 8f f8 0c 00
	00		 lea	 ecx, DWORD PTR [edi+3320]
  001ce	c6 45 fc 16	 mov	 BYTE PTR __$EHRec$[ebp+8], 22 ; 00000016H
  001d2	e8 00 00 00 00	 call	 ??0CExDrawButton@@QAE@H@Z ; CExDrawButton::CExDrawButton
  001d7	6a 00		 push	 0
  001d9	8d 8f 88 0d 00
	00		 lea	 ecx, DWORD PTR [edi+3464]
  001df	c6 45 fc 17	 mov	 BYTE PTR __$EHRec$[ebp+8], 23 ; 00000017H
  001e3	e8 00 00 00 00	 call	 ??0CExDrawButton@@QAE@H@Z ; CExDrawButton::CExDrawButton
  001e8	8d 8f 18 0e 00
	00		 lea	 ecx, DWORD PTR [edi+3608]
  001ee	c6 45 fc 18	 mov	 BYTE PTR __$EHRec$[ebp+8], 24 ; 00000018H
  001f2	e8 00 00 00 00	 call	 ??0CXListCtrl@@QAE@XZ	; CXListCtrl::CXListCtrl
  001f7	8d 8f c0 0f 00
	00		 lea	 ecx, DWORD PTR [edi+4032]
  001fd	ff 15 00 00 00
	00		 call	 DWORD PTR __imp_??0?$CStringT@DV?$StrTraitMFC_DLL@DV?$ChTraitsCRT@D@ATL@@@@@ATL@@QAE@XZ
  00203	8d 8f c4 0f 00
	00		 lea	 ecx, DWORD PTR [edi+4036]
  00209	ff 15 00 00 00
	00		 call	 DWORD PTR __imp_??0?$CStringT@DV?$StrTraitMFC_DLL@DV?$ChTraitsCRT@D@ATL@@@@@ATL@@QAE@XZ
  0020f	8d 8f c8 0f 00
	00		 lea	 ecx, DWORD PTR [edi+4040]
  00215	ff 15 00 00 00
	00		 call	 DWORD PTR __imp_??0?$CStringT@DV?$StrTraitMFC_DLL@DV?$ChTraitsCRT@D@ATL@@@@@ATL@@QAE@XZ
  0021b	8d 8f cc 0f 00
	00		 lea	 ecx, DWORD PTR [edi+4044]
  00221	ff 15 00 00 00
	00		 call	 DWORD PTR __imp_??0?$CStringT@DV?$StrTraitMFC_DLL@DV?$ChTraitsCRT@D@ATL@@@@@ATL@@QAE@XZ
  00227	8d 8f d0 0f 00
	00		 lea	 ecx, DWORD PTR [edi+4048]
  0022d	ff 15 00 00 00
	00		 call	 DWORD PTR __imp_??0?$CStringT@DV?$StrTraitMFC_DLL@DV?$ChTraitsCRT@D@ATL@@@@@ATL@@QAE@XZ
  00233	6a 00		 push	 0
  00235	6a 00		 push	 0
  00237	6a 00		 push	 0
  00239	6a 00		 push	 0
  0023b	8d 8f d8 0f 00
	00		 lea	 ecx, DWORD PTR [edi+4056]
  00241	c6 45 fc 1e	 mov	 BYTE PTR __$EHRec$[ebp+8], 30 ; 0000001eH
  00245	e8 00 00 00 00	 call	 ??0CGridCtrl@@QAE@HHHH@Z ; CGridCtrl::CGridCtrl
  0024a	8d 8f 68 14 00
	00		 lea	 ecx, DWORD PTR [edi+5224]
  00250	ff 15 00 00 00
	00		 call	 DWORD PTR __imp_??0?$CStringT@DV?$StrTraitMFC_DLL@DV?$ChTraitsCRT@D@ATL@@@@@ATL@@QAE@XZ
; File C:\Program Files (x86)\Microsoft Visual Studio\2019\Community\VC\Tools\MSVC\14.29.30133\atlmfc\include\afxwin1.inl

; 70   : 	{ m_hObject = NULL; }

  00256	c7 87 78 14 00
	00 00 00 00 00	 mov	 DWORD PTR [edi+5240], 0

; 153  : 	{ }

  00260	c7 87 74 14 00
	00 00 00 00 00	 mov	 DWORD PTR [edi+5236], OFFSET ??_7CFont@@6B@
; File D:\git\src\IBK\IBK_DRFN\ProjSrc\SrcDrfn\Chart\HWSTRATEGYCONFIGUREWIZARD\DlgStrategyList.cpp

; 77   : {

  0026a	c6 45 fc 21	 mov	 BYTE PTR __$EHRec$[ebp+8], 33 ; 00000021H
  0026e	6a 00		 push	 0
  00270	8d 8f 90 14 00
	00		 lea	 ecx, DWORD PTR [edi+5264]
; File C:\Program Files (x86)\Microsoft Visual Studio\2019\Community\VC\Tools\MSVC\14.29.30133\atlmfc\include\atltypes.h

; 528  : 	left = 0;

  00276	c7 87 7c 14 00
	00 00 00 00 00	 mov	 DWORD PTR [edi+5244], 0

; 529  : 	top = 0;

  00280	c7 87 80 14 00
	00 00 00 00 00	 mov	 DWORD PTR [edi+5248], 0

; 530  : 	right = 0;

  0028a	c7 87 84 14 00
	00 00 00 00 00	 mov	 DWORD PTR [edi+5252], 0

; 531  : 	bottom = 0;

  00294	c7 87 88 14 00
	00 00 00 00 00	 mov	 DWORD PTR [edi+5256], 0
; File D:\git\src\IBK\IBK_DRFN\ProjSrc\SrcDrfn\Chart\HWSTRATEGYCONFIGUREWIZARD\DlgStrategyList.cpp

; 77   : {

  0029e	e8 00 00 00 00	 call	 ??0CDlgTimeSelector@@QAE@PAVCWnd@@@Z ; CDlgTimeSelector::CDlgTimeSelector
; File C:\Program Files (x86)\Microsoft Visual Studio\2019\Community\VC\Tools\MSVC\14.29.30133\atlmfc\include\afxwin1.inl

; 70   : 	{ m_hObject = NULL; }

  002a3	c7 87 04 17 00
	00 00 00 00 00	 mov	 DWORD PTR [edi+5892], 0
; File D:\git\src\IBK\IBK_DRFN\ProjSrc\SrcDrfn\Chart\HWSTRATEGYCONFIGUREWIZARD\DlgStrategyList.cpp

; 88   : }

  002ad	8b c7		 mov	 eax, edi
; File C:\Program Files (x86)\Microsoft Visual Studio\2019\Community\VC\Tools\MSVC\14.29.30133\atlmfc\include\afxwin1.inl

; 128  : 	{ }

  002af	c7 87 00 17 00
	00 00 00 00 00	 mov	 DWORD PTR [edi+5888], OFFSET ??_7CBrush@@6B@
; File D:\git\src\IBK\IBK_DRFN\ProjSrc\SrcDrfn\Chart\HWSTRATEGYCONFIGUREWIZARD\DlgStrategyList.cpp

; 80   : 	m_lRowEditing = -1;

  002b9	c7 87 f8 16 00
	00 ff ff ff ff	 mov	 DWORD PTR [edi+5880], -1

; 81   : 	m_lPosOfGirdBottom = 0;

  002c3	c7 87 8c 14 00
	00 00 00 00 00	 mov	 DWORD PTR [edi+5260], 0

; 82   : 	m_chLastIndex = 'A';

  002cd	c6 87 08 17 00
	00 41		 mov	 BYTE PTR [edi+5896], 65	; 00000041H

; 83   : 	m_crBk = CRBACKGROUND;

  002d4	c7 87 fc 16 00
	00 b1 c7 ea 00	 mov	 DWORD PTR [edi+5884], 15386545 ; 00eac7b1H

; 84   : 	m_nFlagCnt = 0;

  002de	c7 87 6c 14 00
	00 00 00 00 00	 mov	 DWORD PTR [edi+5228], 0

; 85   : 	m_hViewHandle = NULL;

  002e8	c7 87 70 14 00
	00 00 00 00 00	 mov	 DWORD PTR [edi+5232], 0

; 88   : }

  002f2	8b 4d f4	 mov	 ecx, DWORD PTR __$EHRec$[ebp]
  002f5	64 89 0d 00 00
	00 00		 mov	 DWORD PTR fs:0, ecx
  002fc	59		 pop	 ecx
  002fd	5f		 pop	 edi
  002fe	5e		 pop	 esi
  002ff	8b e5		 mov	 esp, ebp
  00301	5d		 pop	 ebp
  00302	c2 04 00	 ret	 4
_TEXT	ENDS
;	COMDAT text$x
text$x	SEGMENT
__unwindfunclet$??0CDlgStrategyList@@QAE@PAVCWnd@@@Z$0:
  00000	8b 4d f0	 mov	 ecx, DWORD PTR _this$[ebp]
  00003	e9 00 00 00 00	 jmp	 ??1CDialog@@UAE@XZ	; CDialog::~CDialog
__unwindfunclet$??0CDlgStrategyList@@QAE@PAVCWnd@@@Z$1:
  00008	8b 4d f0	 mov	 ecx, DWORD PTR _this$[ebp]
  0000b	81 c1 a8 00 00
	00		 add	 ecx, 168		; 000000a8H
  00011	e9 00 00 00 00	 jmp	 ??1CExEdit@@UAE@XZ	; CExEdit::~CExEdit
__unwindfunclet$??0CDlgStrategyList@@QAE@PAVCWnd@@@Z$2:
  00016	8b 4d f0	 mov	 ecx, DWORD PTR _this$[ebp]
  00019	81 c1 30 01 00
	00		 add	 ecx, 304		; 00000130H
  0001f	e9 00 00 00 00	 jmp	 ??1CStatic@@UAE@XZ	; CStatic::~CStatic
__unwindfunclet$??0CDlgStrategyList@@QAE@PAVCWnd@@@Z$3:
  00024	8b 4d f0	 mov	 ecx, DWORD PTR _this$[ebp]
  00027	81 c1 b0 01 00
	00		 add	 ecx, 432		; 000001b0H
  0002d	e9 00 00 00 00	 jmp	 ??1CStatic@@UAE@XZ	; CStatic::~CStatic
__unwindfunclet$??0CDlgStrategyList@@QAE@PAVCWnd@@@Z$4:
  00032	8b 4d f0	 mov	 ecx, DWORD PTR _this$[ebp]
  00035	81 c1 30 02 00
	00		 add	 ecx, 560		; 00000230H
  0003b	e9 00 00 00 00	 jmp	 ??1CLogicEditCtrl@@UAE@XZ ; CLogicEditCtrl::~CLogicEditCtrl
__unwindfunclet$??0CDlgStrategyList@@QAE@PAVCWnd@@@Z$5:
  00040	8b 4d f0	 mov	 ecx, DWORD PTR _this$[ebp]
  00043	81 c1 d8 02 00
	00		 add	 ecx, 728		; 000002d8H
  00049	e9 00 00 00 00	 jmp	 ??1CExDrawButton@@UAE@XZ ; CExDrawButton::~CExDrawButton
__unwindfunclet$??0CDlgStrategyList@@QAE@PAVCWnd@@@Z$6:
  0004e	8b 4d f0	 mov	 ecx, DWORD PTR _this$[ebp]
  00051	81 c1 68 03 00
	00		 add	 ecx, 872		; 00000368H
  00057	e9 00 00 00 00	 jmp	 ??1CExDrawButton@@UAE@XZ ; CExDrawButton::~CExDrawButton
__unwindfunclet$??0CDlgStrategyList@@QAE@PAVCWnd@@@Z$7:
  0005c	8b 4d f0	 mov	 ecx, DWORD PTR _this$[ebp]
  0005f	81 c1 f8 03 00
	00		 add	 ecx, 1016		; 000003f8H
  00065	e9 00 00 00 00	 jmp	 ??1CExDrawButton@@UAE@XZ ; CExDrawButton::~CExDrawButton
__unwindfunclet$??0CDlgStrategyList@@QAE@PAVCWnd@@@Z$8:
  0006a	8b 4d f0	 mov	 ecx, DWORD PTR _this$[ebp]
  0006d	81 c1 88 04 00
	00		 add	 ecx, 1160		; 00000488H
  00073	e9 00 00 00 00	 jmp	 ??1CExDrawButton@@UAE@XZ ; CExDrawButton::~CExDrawButton
__unwindfunclet$??0CDlgStrategyList@@QAE@PAVCWnd@@@Z$9:
  00078	8b 4d f0	 mov	 ecx, DWORD PTR _this$[ebp]
  0007b	81 c1 18 05 00
	00		 add	 ecx, 1304		; 00000518H
  00081	e9 00 00 00 00	 jmp	 ??1CExDrawButton@@UAE@XZ ; CExDrawButton::~CExDrawButton
__unwindfunclet$??0CDlgStrategyList@@QAE@PAVCWnd@@@Z$10:
  00086	8b 4d f0	 mov	 ecx, DWORD PTR _this$[ebp]
  00089	81 c1 a8 05 00
	00		 add	 ecx, 1448		; 000005a8H
  0008f	e9 00 00 00 00	 jmp	 ??1CExDrawButton@@UAE@XZ ; CExDrawButton::~CExDrawButton
__unwindfunclet$??0CDlgStrategyList@@QAE@PAVCWnd@@@Z$11:
  00094	8b 4d f0	 mov	 ecx, DWORD PTR _this$[ebp]
  00097	81 c1 38 06 00
	00		 add	 ecx, 1592		; 00000638H
  0009d	e9 00 00 00 00	 jmp	 ??1CExDrawButton@@UAE@XZ ; CExDrawButton::~CExDrawButton
__unwindfunclet$??0CDlgStrategyList@@QAE@PAVCWnd@@@Z$12:
  000a2	8b 4d f0	 mov	 ecx, DWORD PTR _this$[ebp]
  000a5	81 c1 c8 06 00
	00		 add	 ecx, 1736		; 000006c8H
  000ab	e9 00 00 00 00	 jmp	 ??1CExDrawButton@@UAE@XZ ; CExDrawButton::~CExDrawButton
__unwindfunclet$??0CDlgStrategyList@@QAE@PAVCWnd@@@Z$13:
  000b0	8b 4d f0	 mov	 ecx, DWORD PTR _this$[ebp]
  000b3	81 c1 58 07 00
	00		 add	 ecx, 1880		; 00000758H
  000b9	e9 00 00 00 00	 jmp	 ??1CExDrawButton@@UAE@XZ ; CExDrawButton::~CExDrawButton
__unwindfunclet$??0CDlgStrategyList@@QAE@PAVCWnd@@@Z$14:
  000be	8b 4d f0	 mov	 ecx, DWORD PTR _this$[ebp]
  000c1	81 c1 e8 07 00
	00		 add	 ecx, 2024		; 000007e8H
  000c7	e9 00 00 00 00	 jmp	 ??1CExDrawButton@@UAE@XZ ; CExDrawButton::~CExDrawButton
__unwindfunclet$??0CDlgStrategyList@@QAE@PAVCWnd@@@Z$15:
  000cc	8b 4d f0	 mov	 ecx, DWORD PTR _this$[ebp]
  000cf	81 c1 78 08 00
	00		 add	 ecx, 2168		; 00000878H
  000d5	e9 00 00 00 00	 jmp	 ??1CExDrawButton@@UAE@XZ ; CExDrawButton::~CExDrawButton
__unwindfunclet$??0CDlgStrategyList@@QAE@PAVCWnd@@@Z$16:
  000da	8b 4d f0	 mov	 ecx, DWORD PTR _this$[ebp]
  000dd	81 c1 08 09 00
	00		 add	 ecx, 2312		; 00000908H
  000e3	e9 00 00 00 00	 jmp	 ??1CExDrawButton@@UAE@XZ ; CExDrawButton::~CExDrawButton
__unwindfunclet$??0CDlgStrategyList@@QAE@PAVCWnd@@@Z$17:
  000e8	8b 4d f0	 mov	 ecx, DWORD PTR _this$[ebp]
  000eb	81 c1 98 09 00
	00		 add	 ecx, 2456		; 00000998H
  000f1	e9 00 00 00 00	 jmp	 ??1CExDrawButton@@UAE@XZ ; CExDrawButton::~CExDrawButton
__unwindfunclet$??0CDlgStrategyList@@QAE@PAVCWnd@@@Z$18:
  000f6	8b 4d f0	 mov	 ecx, DWORD PTR _this$[ebp]
  000f9	81 c1 28 0a 00
	00		 add	 ecx, 2600		; 00000a28H
  000ff	e9 00 00 00 00	 jmp	 ??1CExDrawButton@@UAE@XZ ; CExDrawButton::~CExDrawButton
__unwindfunclet$??0CDlgStrategyList@@QAE@PAVCWnd@@@Z$19:
  00104	8b 4d f0	 mov	 ecx, DWORD PTR _this$[ebp]
  00107	81 c1 b8 0a 00
	00		 add	 ecx, 2744		; 00000ab8H
  0010d	e9 00 00 00 00	 jmp	 ??1CExDrawButton@@UAE@XZ ; CExDrawButton::~CExDrawButton
__unwindfunclet$??0CDlgStrategyList@@QAE@PAVCWnd@@@Z$20:
  00112	8b 4d f0	 mov	 ecx, DWORD PTR _this$[ebp]
  00115	81 c1 48 0b 00
	00		 add	 ecx, 2888		; 00000b48H
  0011b	e9 00 00 00 00	 jmp	 ??1CExDrawButton@@UAE@XZ ; CExDrawButton::~CExDrawButton
__unwindfunclet$??0CDlgStrategyList@@QAE@PAVCWnd@@@Z$21:
  00120	8b 4d f0	 mov	 ecx, DWORD PTR _this$[ebp]
  00123	81 c1 d8 0b 00
	00		 add	 ecx, 3032		; 00000bd8H
  00129	e9 00 00 00 00	 jmp	 ??1CExDrawButton@@UAE@XZ ; CExDrawButton::~CExDrawButton
__unwindfunclet$??0CDlgStrategyList@@QAE@PAVCWnd@@@Z$22:
  0012e	8b 4d f0	 mov	 ecx, DWORD PTR _this$[ebp]
  00131	81 c1 68 0c 00
	00		 add	 ecx, 3176		; 00000c68H
  00137	e9 00 00 00 00	 jmp	 ??1CExDrawButton@@UAE@XZ ; CExDrawButton::~CExDrawButton
__unwindfunclet$??0CDlgStrategyList@@QAE@PAVCWnd@@@Z$23:
  0013c	8b 4d f0	 mov	 ecx, DWORD PTR _this$[ebp]
  0013f	81 c1 f8 0c 00
	00		 add	 ecx, 3320		; 00000cf8H
  00145	e9 00 00 00 00	 jmp	 ??1CExDrawButton@@UAE@XZ ; CExDrawButton::~CExDrawButton
__unwindfunclet$??0CDlgStrategyList@@QAE@PAVCWnd@@@Z$24:
  0014a	8b 4d f0	 mov	 ecx, DWORD PTR _this$[ebp]
  0014d	81 c1 88 0d 00
	00		 add	 ecx, 3464		; 00000d88H
  00153	e9 00 00 00 00	 jmp	 ??1CExDrawButton@@UAE@XZ ; CExDrawButton::~CExDrawButton
__unwindfunclet$??0CDlgStrategyList@@QAE@PAVCWnd@@@Z$25:
  00158	8b 4d f0	 mov	 ecx, DWORD PTR _this$[ebp]
  0015b	81 c1 18 0e 00
	00		 add	 ecx, 3608		; 00000e18H
  00161	e9 00 00 00 00	 jmp	 ??1CXListCtrl@@UAE@XZ	; CXListCtrl::~CXListCtrl
__unwindfunclet$??0CDlgStrategyList@@QAE@PAVCWnd@@@Z$26:
  00166	8b 4d f0	 mov	 ecx, DWORD PTR _this$[ebp]
  00169	81 c1 c0 0f 00
	00		 add	 ecx, 4032		; 00000fc0H
  0016f	ff 25 00 00 00
	00		 jmp	 DWORD PTR __imp_??1?$CStringT@DV?$StrTraitMFC_DLL@DV?$ChTraitsCRT@D@ATL@@@@@ATL@@QAE@XZ
__unwindfunclet$??0CDlgStrategyList@@QAE@PAVCWnd@@@Z$27:
  00175	8b 4d f0	 mov	 ecx, DWORD PTR _this$[ebp]
  00178	81 c1 c4 0f 00
	00		 add	 ecx, 4036		; 00000fc4H
  0017e	ff 25 00 00 00
	00		 jmp	 DWORD PTR __imp_??1?$CStringT@DV?$StrTraitMFC_DLL@DV?$ChTraitsCRT@D@ATL@@@@@ATL@@QAE@XZ
__unwindfunclet$??0CDlgStrategyList@@QAE@PAVCWnd@@@Z$28:
  00184	8b 4d f0	 mov	 ecx, DWORD PTR _this$[ebp]
  00187	81 c1 c8 0f 00
	00		 add	 ecx, 4040		; 00000fc8H
  0018d	ff 25 00 00 00
	00		 jmp	 DWORD PTR __imp_??1?$CStringT@DV?$StrTraitMFC_DLL@DV?$ChTraitsCRT@D@ATL@@@@@ATL@@QAE@XZ
__unwindfunclet$??0CDlgStrategyList@@QAE@PAVCWnd@@@Z$29:
  00193	8b 4d f0	 mov	 ecx, DWORD PTR _this$[ebp]
  00196	81 c1 cc 0f 00
	00		 add	 ecx, 4044		; 00000fccH
  0019c	ff 25 00 00 00
	00		 jmp	 DWORD PTR __imp_??1?$CStringT@DV?$StrTraitMFC_DLL@DV?$ChTraitsCRT@D@ATL@@@@@ATL@@QAE@XZ
__unwindfunclet$??0CDlgStrategyList@@QAE@PAVCWnd@@@Z$30:
  001a2	8b 4d f0	 mov	 ecx, DWORD PTR _this$[ebp]
  001a5	81 c1 d0 0f 00
	00		 add	 ecx, 4048		; 00000fd0H
  001ab	ff 25 00 00 00
	00		 jmp	 DWORD PTR __imp_??1?$CStringT@DV?$StrTraitMFC_DLL@DV?$ChTraitsCRT@D@ATL@@@@@ATL@@QAE@XZ
__unwindfunclet$??0CDlgStrategyList@@QAE@PAVCWnd@@@Z$31:
  001b1	8b 4d f0	 mov	 ecx, DWORD PTR _this$[ebp]
  001b4	81 c1 d8 0f 00
	00		 add	 ecx, 4056		; 00000fd8H
  001ba	e9 00 00 00 00	 jmp	 ??1CGridCtrl@@UAE@XZ	; CGridCtrl::~CGridCtrl
__unwindfunclet$??0CDlgStrategyList@@QAE@PAVCWnd@@@Z$32:
  001bf	8b 4d f0	 mov	 ecx, DWORD PTR _this$[ebp]
  001c2	81 c1 68 14 00
	00		 add	 ecx, 5224		; 00001468H
  001c8	ff 25 00 00 00
	00		 jmp	 DWORD PTR __imp_??1?$CStringT@DV?$StrTraitMFC_DLL@DV?$ChTraitsCRT@D@ATL@@@@@ATL@@QAE@XZ
__unwindfunclet$??0CDlgStrategyList@@QAE@PAVCWnd@@@Z$33:
  001ce	8b 4d f0	 mov	 ecx, DWORD PTR _this$[ebp]
  001d1	81 c1 74 14 00
	00		 add	 ecx, 5236		; 00001474H
  001d7	e9 00 00 00 00	 jmp	 ??1CFont@@UAE@XZ	; CFont::~CFont
  001dc	cc		 int	 3
  001dd	cc		 int	 3
  001de	cc		 int	 3
  001df	cc		 int	 3
  001e0	cc		 int	 3
__ehhandler$??0CDlgStrategyList@@QAE@PAVCWnd@@@Z:
  001e1	90		 npad	 1
  001e2	90		 npad	 1
  001e3	8b 54 24 08	 mov	 edx, DWORD PTR [esp+8]
  001e7	8d 42 0c	 lea	 eax, DWORD PTR [edx+12]
  001ea	8b 4a f0	 mov	 ecx, DWORD PTR [edx-16]
  001ed	33 c8		 xor	 ecx, eax
  001ef	e8 00 00 00 00	 call	 @__security_check_cookie@4
  001f4	b8 00 00 00 00	 mov	 eax, OFFSET __ehfuncinfo$??0CDlgStrategyList@@QAE@PAVCWnd@@@Z
  001f9	e9 00 00 00 00	 jmp	 ___CxxFrameHandler3
text$x	ENDS
??0CDlgStrategyList@@QAE@PAVCWnd@@@Z ENDP		; CDlgStrategyList::CDlgStrategyList
; Function compile flags: /Ogtp
; File D:\git\src\IBK\IBK_DRFN\ProjSrc\SrcDrfn\inc\ExCommonHeader.h
;	COMDAT ??__ERMSG_LSHAREDCHANGED@@YAXXZ
text$di	SEGMENT
??__ERMSG_LSHAREDCHANGED@@YAXXZ PROC			; `dynamic initializer for 'RMSG_LSHAREDCHANGED'', COMDAT

; 116  : const UINT RMSG_LSHAREDCHANGED = ::RegisterWindowMessage("RMSG_LSHAREDCHANGED");

  00000	68 00 00 00 00	 push	 OFFSET ??_C@_0BE@IEJDDJPC@RMSG_LSHAREDCHANGED@
  00005	ff 15 00 00 00
	00		 call	 DWORD PTR __imp__RegisterWindowMessageA@4
  0000b	a3 00 00 00 00	 mov	 DWORD PTR ?RMSG_LSHAREDCHANGED@@3IB, eax
  00010	c3		 ret	 0
??__ERMSG_LSHAREDCHANGED@@YAXXZ ENDP			; `dynamic initializer for 'RMSG_LSHAREDCHANGED''
text$di	ENDS
; Function compile flags: /Ogtp
; File D:\git\src\IBK\IBK_DRFN\ProjSrc\SrcDrfn\inc\ExCommonHeader.h
;	COMDAT ??__ERMSG_ENDSCROLLPOS@@YAXXZ
text$di	SEGMENT
??__ERMSG_ENDSCROLLPOS@@YAXXZ PROC			; `dynamic initializer for 'RMSG_ENDSCROLLPOS'', COMDAT

; 114  : const UINT RMSG_ENDSCROLLPOS = ::RegisterWindowMessage(_T("RMSG_ENDSCROLLPOS"));

  00000	68 00 00 00 00	 push	 OFFSET ??_C@_0BC@EMMLKNDL@RMSG_ENDSCROLLPOS@
  00005	ff 15 00 00 00
	00		 call	 DWORD PTR __imp__RegisterWindowMessageA@4
  0000b	a3 00 00 00 00	 mov	 DWORD PTR ?RMSG_ENDSCROLLPOS@@3IB, eax
  00010	c3		 ret	 0
??__ERMSG_ENDSCROLLPOS@@YAXXZ ENDP			; `dynamic initializer for 'RMSG_ENDSCROLLPOS''
text$di	ENDS
; Function compile flags: /Ogtp
; File D:\git\src\IBK\IBK_DRFN\ProjSrc\SrcDrfn\inc\ExCommonHeader.h
;	COMDAT ??__ERMSG_LBTNDOWN@@YAXXZ
text$di	SEGMENT
??__ERMSG_LBTNDOWN@@YAXXZ PROC				; `dynamic initializer for 'RMSG_LBTNDOWN'', COMDAT

; 111  : const UINT RMSG_LBTNDOWN = ::RegisterWindowMessage(_T("RMSG_LBTNDOWN"));

  00000	68 00 00 00 00	 push	 OFFSET ??_C@_0O@DGNCFOOP@RMSG_LBTNDOWN@
  00005	ff 15 00 00 00
	00		 call	 DWORD PTR __imp__RegisterWindowMessageA@4
  0000b	a3 00 00 00 00	 mov	 DWORD PTR ?RMSG_LBTNDOWN@@3IB, eax
  00010	c3		 ret	 0
??__ERMSG_LBTNDOWN@@YAXXZ ENDP				; `dynamic initializer for 'RMSG_LBTNDOWN''
text$di	ENDS
; Function compile flags: /Ogtp
; File D:\git\src\IBK\IBK_DRFN\ProjSrc\SrcDrfn\inc\ExCommonHeader.h
;	COMDAT ??__ERMSG_LBTNDBLCLICK@@YAXXZ
text$di	SEGMENT
??__ERMSG_LBTNDBLCLICK@@YAXXZ PROC			; `dynamic initializer for 'RMSG_LBTNDBLCLICK'', COMDAT

; 108  : const UINT RMSG_LBTNDBLCLICK = ::RegisterWindowMessage(_T("RMSG_LBTNDBLCLICK"));

  00000	68 00 00 00 00	 push	 OFFSET ??_C@_0BC@MMIGKJED@RMSG_LBTNDBLCLICK@
  00005	ff 15 00 00 00
	00		 call	 DWORD PTR __imp__RegisterWindowMessageA@4
  0000b	a3 00 00 00 00	 mov	 DWORD PTR ?RMSG_LBTNDBLCLICK@@3IB, eax
  00010	c3		 ret	 0
??__ERMSG_LBTNDBLCLICK@@YAXXZ ENDP			; `dynamic initializer for 'RMSG_LBTNDBLCLICK''
text$di	ENDS
; Function compile flags: /Ogtp
; File D:\git\src\IBK\IBK_DRFN\ProjSrc\SrcDrfn\inc\ExCommonHeader.h
;	COMDAT ??__ERMSG_TABSTOP@@YAXXZ
text$di	SEGMENT
??__ERMSG_TABSTOP@@YAXXZ PROC				; `dynamic initializer for 'RMSG_TABSTOP'', COMDAT

; 104  : const UINT RMSG_TABSTOP = ::RegisterWindowMessage(_T("RMSG_TABSTOP"));

  00000	68 00 00 00 00	 push	 OFFSET ??_C@_0N@IMGBDGND@RMSG_TABSTOP@
  00005	ff 15 00 00 00
	00		 call	 DWORD PTR __imp__RegisterWindowMessageA@4
  0000b	a3 00 00 00 00	 mov	 DWORD PTR ?RMSG_TABSTOP@@3IB, eax
  00010	c3		 ret	 0
??__ERMSG_TABSTOP@@YAXXZ ENDP				; `dynamic initializer for 'RMSG_TABSTOP''
text$di	ENDS
; Function compile flags: /Ogtp
; File D:\git\src\IBK\IBK_DRFN\ProjSrc\SrcDrfn\inc\ExCommonHeader.h
;	COMDAT ??__ERMSG_FORMSTATECHANGE@@YAXXZ
text$di	SEGMENT
??__ERMSG_FORMSTATECHANGE@@YAXXZ PROC			; `dynamic initializer for 'RMSG_FORMSTATECHANGE'', COMDAT

; 103  : const UINT RMSG_FORMSTATECHANGE = ::RegisterWindowMessage(_T("RMSG_FORMSTATECHANGE"));

  00000	68 00 00 00 00	 push	 OFFSET ??_C@_0BF@FPLDPAEH@RMSG_FORMSTATECHANGE@
  00005	ff 15 00 00 00
	00		 call	 DWORD PTR __imp__RegisterWindowMessageA@4
  0000b	a3 00 00 00 00	 mov	 DWORD PTR ?RMSG_FORMSTATECHANGE@@3IB, eax
  00010	c3		 ret	 0
??__ERMSG_FORMSTATECHANGE@@YAXXZ ENDP			; `dynamic initializer for 'RMSG_FORMSTATECHANGE''
text$di	ENDS
; Function compile flags: /Ogtp
; File D:\git\src\IBK\IBK_DRFN\ProjSrc\SrcDrfn\inc\ExCommonHeader.h
;	COMDAT ??__ERMSG_EVENT_SIGNAL@@YAXXZ
text$di	SEGMENT
??__ERMSG_EVENT_SIGNAL@@YAXXZ PROC			; `dynamic initializer for 'RMSG_EVENT_SIGNAL'', COMDAT

; 101  : const UINT RMSG_EVENT_SIGNAL = ::RegisterWindowMessage(_T("RMSG_EVENT_SIGNAL"));

  00000	68 00 00 00 00	 push	 OFFSET ??_C@_0BC@PGMEIMOI@RMSG_EVENT_SIGNAL@
  00005	ff 15 00 00 00
	00		 call	 DWORD PTR __imp__RegisterWindowMessageA@4
  0000b	a3 00 00 00 00	 mov	 DWORD PTR ?RMSG_EVENT_SIGNAL@@3IB, eax
  00010	c3		 ret	 0
??__ERMSG_EVENT_SIGNAL@@YAXXZ ENDP			; `dynamic initializer for 'RMSG_EVENT_SIGNAL''
text$di	ENDS
; Function compile flags: /Ogtp
; File D:\git\src\IBK\IBK_DRFN\ProjSrc\SrcDrfn\inc\ExCommonHeader.h
;	COMDAT ??__ERMSG_EVENT_SPININPUT@@YAXXZ
text$di	SEGMENT
??__ERMSG_EVENT_SPININPUT@@YAXXZ PROC			; `dynamic initializer for 'RMSG_EVENT_SPININPUT'', COMDAT

; 100  : const UINT RMSG_EVENT_SPININPUT = ::RegisterWindowMessage(_T("RMSG_EVENT_SPININPUT"));

  00000	68 00 00 00 00	 push	 OFFSET ??_C@_0BF@FABJBMLM@RMSG_EVENT_SPININPUT@
  00005	ff 15 00 00 00
	00		 call	 DWORD PTR __imp__RegisterWindowMessageA@4
  0000b	a3 00 00 00 00	 mov	 DWORD PTR ?RMSG_EVENT_SPININPUT@@3IB, eax
  00010	c3		 ret	 0
??__ERMSG_EVENT_SPININPUT@@YAXXZ ENDP			; `dynamic initializer for 'RMSG_EVENT_SPININPUT''
text$di	ENDS
; Function compile flags: /Ogtp
; File D:\git\src\IBK\IBK_DRFN\ProjSrc\SrcDrfn\inc\ExCommonHeader.h
;	COMDAT ??__ERMSG_EVENT_ACCTINPUT@@YAXXZ
text$di	SEGMENT
??__ERMSG_EVENT_ACCTINPUT@@YAXXZ PROC			; `dynamic initializer for 'RMSG_EVENT_ACCTINPUT'', COMDAT

; 99   : const UINT RMSG_EVENT_ACCTINPUT = ::RegisterWindowMessage(_T("RMSG_EVENT_ACCTINPUT"));

  00000	68 00 00 00 00	 push	 OFFSET ??_C@_0BF@LEGBOMJF@RMSG_EVENT_ACCTINPUT@
  00005	ff 15 00 00 00
	00		 call	 DWORD PTR __imp__RegisterWindowMessageA@4
  0000b	a3 00 00 00 00	 mov	 DWORD PTR ?RMSG_EVENT_ACCTINPUT@@3IB, eax
  00010	c3		 ret	 0
??__ERMSG_EVENT_ACCTINPUT@@YAXXZ ENDP			; `dynamic initializer for 'RMSG_EVENT_ACCTINPUT''
text$di	ENDS
; Function compile flags: /Ogtp
; File D:\git\src\IBK\IBK_DRFN\ProjSrc\SrcDrfn\inc\ExCommonHeader.h
;	COMDAT ??__ERMSG_EVENT_CODEINPUT@@YAXXZ
text$di	SEGMENT
??__ERMSG_EVENT_CODEINPUT@@YAXXZ PROC			; `dynamic initializer for 'RMSG_EVENT_CODEINPUT'', COMDAT

; 98   : const UINT RMSG_EVENT_CODEINPUT = ::RegisterWindowMessage(_T("RMSG_EVENT_CODEINPUT"));

  00000	68 00 00 00 00	 push	 OFFSET ??_C@_0BF@JNMMFBNP@RMSG_EVENT_CODEINPUT@
  00005	ff 15 00 00 00
	00		 call	 DWORD PTR __imp__RegisterWindowMessageA@4
  0000b	a3 00 00 00 00	 mov	 DWORD PTR ?RMSG_EVENT_CODEINPUT@@3IB, eax
  00010	c3		 ret	 0
??__ERMSG_EVENT_CODEINPUT@@YAXXZ ENDP			; `dynamic initializer for 'RMSG_EVENT_CODEINPUT''
text$di	ENDS
; Function compile flags: /Ogtp
; File D:\git\src\IBK\IBK_DRFN\ProjSrc\SrcDrfn\inc\ExCommonHeader.h
;	COMDAT ??__ERMSG_FORMINITIALCOMPLETED@@YAXXZ
text$di	SEGMENT
??__ERMSG_FORMINITIALCOMPLETED@@YAXXZ PROC		; `dynamic initializer for 'RMSG_FORMINITIALCOMPLETED'', COMDAT

; 73   : const UINT RMSG_FORMINITIALCOMPLETED = ::RegisterWindowMessage(_T("RMSG_FORMINITIALCOMPLETED"));

  00000	68 00 00 00 00	 push	 OFFSET ??_C@_0BK@FBLMOCPF@RMSG_FORMINITIALCOMPLETED@
  00005	ff 15 00 00 00
	00		 call	 DWORD PTR __imp__RegisterWindowMessageA@4
  0000b	a3 00 00 00 00	 mov	 DWORD PTR ?RMSG_FORMINITIALCOMPLETED@@3IB, eax
  00010	c3		 ret	 0
??__ERMSG_FORMINITIALCOMPLETED@@YAXXZ ENDP		; `dynamic initializer for 'RMSG_FORMINITIALCOMPLETED''
text$di	ENDS
; Function compile flags: /Ogtp
;	COMDAT ??1_GV_ITEM@@QAE@XZ
_TEXT	SEGMENT
??1_GV_ITEM@@QAE@XZ PROC				; _GV_ITEM::~_GV_ITEM, COMDAT
; _this$ = ecx
  00000	83 c1 64	 add	 ecx, 100		; 00000064H
  00003	ff 25 00 00 00
	00		 jmp	 DWORD PTR __imp_??1?$CStringT@DV?$StrTraitMFC_DLL@DV?$ChTraitsCRT@D@ATL@@@@@ATL@@QAE@XZ
??1_GV_ITEM@@QAE@XZ ENDP				; _GV_ITEM::~_GV_ITEM
_TEXT	ENDS
; Function compile flags: /Ogtp
; File D:\git\src\IBK\IBK_DRFN\ProjSrc\SrcDrfn\inc\IBaseDefine.h
;	COMDAT ??__ERMSG_INTERFACE@@YAXXZ
text$di	SEGMENT
??__ERMSG_INTERFACE@@YAXXZ PROC				; `dynamic initializer for 'RMSG_INTERFACE'', COMDAT

; 170  : const UINT RMSG_INTERFACE = ::RegisterWindowMessage("RMSG_INTERFACE");

  00000	68 00 00 00 00	 push	 OFFSET ??_C@_0P@BKKCOCLK@RMSG_INTERFACE@
  00005	ff 15 00 00 00
	00		 call	 DWORD PTR __imp__RegisterWindowMessageA@4
  0000b	a3 00 00 00 00	 mov	 DWORD PTR ?RMSG_INTERFACE@@3IB, eax
  00010	c3		 ret	 0
??__ERMSG_INTERFACE@@YAXXZ ENDP				; `dynamic initializer for 'RMSG_INTERFACE''
text$di	ENDS
; Function compile flags: /Ogtp
; File C:\Program Files (x86)\Microsoft Visual Studio\2019\Community\VC\Tools\MSVC\14.29.30133\atlmfc\include\afx.inl
;	COMDAT ??_GCStatic@@UAEPAXI@Z
_TEXT	SEGMENT
___flags$ = 8						; size = 4
??_GCStatic@@UAEPAXI@Z PROC				; CStatic::`scalar deleting destructor', COMDAT
; _this$ = ecx
  00000	55		 push	 ebp
  00001	8b ec		 mov	 ebp, esp
  00003	56		 push	 esi
  00004	8b f1		 mov	 esi, ecx
  00006	e8 00 00 00 00	 call	 ??1CStatic@@UAE@XZ	; CStatic::~CStatic
  0000b	8b 45 08	 mov	 eax, DWORD PTR ___flags$[ebp]
  0000e	a8 01		 test	 al, 1
  00010	74 22		 je	 SHORT $LN9@scalar
  00012	a8 04		 test	 al, 4
  00014	75 10		 jne	 SHORT $LN3@scalar

; 112  : 	{ ::operator delete(p); }

  00016	56		 push	 esi
  00017	e8 00 00 00 00	 call	 ??3@YAXPAX@Z		; operator delete
  0001c	83 c4 04	 add	 esp, 4
  0001f	8b c6		 mov	 eax, esi
  00021	5e		 pop	 esi
  00022	5d		 pop	 ebp
  00023	c2 04 00	 ret	 4
$LN3@scalar:
  00026	68 80 00 00 00	 push	 128			; 00000080H
  0002b	56		 push	 esi
  0002c	e8 00 00 00 00	 call	 ?__global_delete@@YAXPAXI@Z ; __global_delete
  00031	83 c4 08	 add	 esp, 8
$LN9@scalar:
  00034	8b c6		 mov	 eax, esi
  00036	5e		 pop	 esi
  00037	5d		 pop	 ebp
  00038	c2 04 00	 ret	 4
??_GCStatic@@UAEPAXI@Z ENDP				; CStatic::`scalar deleting destructor'
_TEXT	ENDS
; Function compile flags: /Ogtp
; File C:\Program Files (x86)\Microsoft Visual Studio\2019\Community\VC\Tools\MSVC\14.29.30133\atlmfc\include\afxwin2.inl
;	COMDAT ?Create@CDialog@@UAEHIPAVCWnd@@@Z
_TEXT	SEGMENT
_nIDTemplate$ = 8					; size = 4
_pParentWnd$ = 12					; size = 4
?Create@CDialog@@UAEHIPAVCWnd@@@Z PROC			; CDialog::Create, COMDAT
; _this$ = ecx

; 585  : 	{ return CDialog::Create(ATL_MAKEINTRESOURCE(nIDTemplate), pParentWnd); }

  00000	55		 push	 ebp
  00001	8b ec		 mov	 ebp, esp
  00003	0f b7 45 08	 movzx	 eax, WORD PTR _nIDTemplate$[ebp]
  00007	89 45 08	 mov	 DWORD PTR _nIDTemplate$[ebp], eax
  0000a	5d		 pop	 ebp
  0000b	e9 00 00 00 00	 jmp	 ?Create@CDialog@@UAEHPBDPAVCWnd@@@Z ; CDialog::Create
?Create@CDialog@@UAEHIPAVCWnd@@@Z ENDP			; CDialog::Create
_TEXT	ENDS
; Function compile flags: /Ogtp
; File C:\Program Files (x86)\Microsoft Visual Studio\2019\Community\VC\Tools\MSVC\14.29.30133\atlmfc\include\afxwin2.inl
;	COMDAT ?EndModalState@CWnd@@UAEXXZ
_TEXT	SEGMENT
?EndModalState@CWnd@@UAEXXZ PROC			; CWnd::EndModalState, COMDAT
; _this$ = ecx

; 567  : 	{ ::EnableWindow(m_hWnd, TRUE); }

  00000	6a 01		 push	 1
  00002	ff 71 20	 push	 DWORD PTR [ecx+32]
  00005	ff 15 00 00 00
	00		 call	 DWORD PTR __imp__EnableWindow@8
  0000b	c3		 ret	 0
?EndModalState@CWnd@@UAEXXZ ENDP			; CWnd::EndModalState
_TEXT	ENDS
; Function compile flags: /Ogtp
; File C:\Program Files (x86)\Microsoft Visual Studio\2019\Community\VC\Tools\MSVC\14.29.30133\atlmfc\include\afxwin2.inl
;	COMDAT ?BeginModalState@CWnd@@UAEXXZ
_TEXT	SEGMENT
?BeginModalState@CWnd@@UAEXXZ PROC			; CWnd::BeginModalState, COMDAT
; _this$ = ecx

; 565  : 	{ ::EnableWindow(m_hWnd, FALSE); }

  00000	6a 00		 push	 0
  00002	ff 71 20	 push	 DWORD PTR [ecx+32]
  00005	ff 15 00 00 00
	00		 call	 DWORD PTR __imp__EnableWindow@8
  0000b	c3		 ret	 0
?BeginModalState@CWnd@@UAEXXZ ENDP			; CWnd::BeginModalState
_TEXT	ENDS
; Function compile flags: /Ogtp
; File C:\Program Files (x86)\Microsoft Visual Studio\2019\Community\VC\Tools\MSVC\14.29.30133\atlmfc\include\afxwin2.inl
;	COMDAT ?DoDataExchange@CWnd@@MAEXPAVCDataExchange@@@Z
_TEXT	SEGMENT
___formal$ = 8						; size = 4
?DoDataExchange@CWnd@@MAEXPAVCDataExchange@@@Z PROC	; CWnd::DoDataExchange, COMDAT
; _this$ = ecx

; 561  : 	{ } // default does nothing

  00000	c2 04 00	 ret	 4
?DoDataExchange@CWnd@@MAEXPAVCDataExchange@@@Z ENDP	; CWnd::DoDataExchange
_TEXT	ENDS
; Function compile flags: /Ogtp
; File C:\Program Files (x86)\Microsoft Visual Studio\2019\Community\VC\Tools\MSVC\14.29.30133\atlmfc\include\afxwin1.inl
; File C:\Program Files (x86)\Microsoft Visual Studio\2019\Community\VC\Tools\MSVC\14.29.30133\atlmfc\include\afx.inl
;	COMDAT ??_GCFont@@UAEPAXI@Z
_TEXT	SEGMENT
___flags$ = 8						; size = 4
??_GCFont@@UAEPAXI@Z PROC				; CFont::`scalar deleting destructor', COMDAT
; _this$ = ecx
  00000	55		 push	 ebp
  00001	8b ec		 mov	 ebp, esp
; File C:\Program Files (x86)\Microsoft Visual Studio\2019\Community\VC\Tools\MSVC\14.29.30133\atlmfc\include\afxwin1.inl

; 155  : 	{ }

  00003	56		 push	 esi
  00004	8b f1		 mov	 esi, ecx
  00006	c7 06 00 00 00
	00		 mov	 DWORD PTR [esi], OFFSET ??_7CFont@@6B@
  0000c	e8 00 00 00 00	 call	 ??1CGdiObject@@UAE@XZ	; CGdiObject::~CGdiObject
  00011	8b 45 08	 mov	 eax, DWORD PTR ___flags$[ebp]
  00014	a8 01		 test	 al, 1
  00016	74 1f		 je	 SHORT $LN12@scalar
  00018	a8 04		 test	 al, 4
  0001a	75 10		 jne	 SHORT $LN3@scalar
; File C:\Program Files (x86)\Microsoft Visual Studio\2019\Community\VC\Tools\MSVC\14.29.30133\atlmfc\include\afx.inl

; 112  : 	{ ::operator delete(p); }

  0001c	56		 push	 esi
  0001d	e8 00 00 00 00	 call	 ??3@YAXPAX@Z		; operator delete
  00022	83 c4 04	 add	 esp, 4
  00025	8b c6		 mov	 eax, esi
  00027	5e		 pop	 esi
  00028	5d		 pop	 ebp
  00029	c2 04 00	 ret	 4
$LN3@scalar:
  0002c	6a 08		 push	 8
  0002e	56		 push	 esi
  0002f	e8 00 00 00 00	 call	 ?__global_delete@@YAXPAXI@Z ; __global_delete
  00034	83 c4 08	 add	 esp, 8
$LN12@scalar:
  00037	8b c6		 mov	 eax, esi
  00039	5e		 pop	 esi
  0003a	5d		 pop	 ebp
  0003b	c2 04 00	 ret	 4
??_GCFont@@UAEPAXI@Z ENDP				; CFont::`scalar deleting destructor'
_TEXT	ENDS
; Function compile flags: /Ogtp
; File C:\Program Files (x86)\Microsoft Visual Studio\2019\Community\VC\Tools\MSVC\14.29.30133\atlmfc\include\afxwin1.inl
;	COMDAT ??1CFont@@UAE@XZ
_TEXT	SEGMENT
??1CFont@@UAE@XZ PROC					; CFont::~CFont, COMDAT
; _this$ = ecx

; 155  : 	{ }

  00000	c7 01 00 00 00
	00		 mov	 DWORD PTR [ecx], OFFSET ??_7CFont@@6B@
  00006	e9 00 00 00 00	 jmp	 ??1CGdiObject@@UAE@XZ	; CGdiObject::~CGdiObject
??1CFont@@UAE@XZ ENDP					; CFont::~CFont
_TEXT	ENDS
; Function compile flags: /Ogtp
; File C:\Program Files (x86)\Microsoft Visual Studio\2019\Community\VC\Tools\MSVC\14.29.30133\atlmfc\include\afxwin1.inl
; File C:\Program Files (x86)\Microsoft Visual Studio\2019\Community\VC\Tools\MSVC\14.29.30133\atlmfc\include\afx.inl
;	COMDAT ??_GCBrush@@UAEPAXI@Z
_TEXT	SEGMENT
___flags$ = 8						; size = 4
??_GCBrush@@UAEPAXI@Z PROC				; CBrush::`scalar deleting destructor', COMDAT
; _this$ = ecx
  00000	55		 push	 ebp
  00001	8b ec		 mov	 ebp, esp
; File C:\Program Files (x86)\Microsoft Visual Studio\2019\Community\VC\Tools\MSVC\14.29.30133\atlmfc\include\afxwin1.inl

; 130  : 	{ }

  00003	56		 push	 esi
  00004	8b f1		 mov	 esi, ecx
  00006	c7 06 00 00 00
	00		 mov	 DWORD PTR [esi], OFFSET ??_7CBrush@@6B@
  0000c	e8 00 00 00 00	 call	 ??1CGdiObject@@UAE@XZ	; CGdiObject::~CGdiObject
  00011	8b 45 08	 mov	 eax, DWORD PTR ___flags$[ebp]
  00014	a8 01		 test	 al, 1
  00016	74 1f		 je	 SHORT $LN12@scalar
  00018	a8 04		 test	 al, 4
  0001a	75 10		 jne	 SHORT $LN3@scalar
; File C:\Program Files (x86)\Microsoft Visual Studio\2019\Community\VC\Tools\MSVC\14.29.30133\atlmfc\include\afx.inl

; 112  : 	{ ::operator delete(p); }

  0001c	56		 push	 esi
  0001d	e8 00 00 00 00	 call	 ??3@YAXPAX@Z		; operator delete
  00022	83 c4 04	 add	 esp, 4
  00025	8b c6		 mov	 eax, esi
  00027	5e		 pop	 esi
  00028	5d		 pop	 ebp
  00029	c2 04 00	 ret	 4
$LN3@scalar:
  0002c	6a 08		 push	 8
  0002e	56		 push	 esi
  0002f	e8 00 00 00 00	 call	 ?__global_delete@@YAXPAXI@Z ; __global_delete
  00034	83 c4 08	 add	 esp, 8
$LN12@scalar:
  00037	8b c6		 mov	 eax, esi
  00039	5e		 pop	 esi
  0003a	5d		 pop	 ebp
  0003b	c2 04 00	 ret	 4
??_GCBrush@@UAEPAXI@Z ENDP				; CBrush::`scalar deleting destructor'
_TEXT	ENDS
; Function compile flags: /Ogtp
; File C:\Program Files (x86)\Microsoft Visual Studio\2019\Community\VC\Tools\MSVC\14.29.30133\atlmfc\include\afxwin1.inl
;	COMDAT ??1CBrush@@UAE@XZ
_TEXT	SEGMENT
??1CBrush@@UAE@XZ PROC					; CBrush::~CBrush, COMDAT
; _this$ = ecx

; 130  : 	{ }

  00000	c7 01 00 00 00
	00		 mov	 DWORD PTR [ecx], OFFSET ??_7CBrush@@6B@
  00006	e9 00 00 00 00	 jmp	 ??1CGdiObject@@UAE@XZ	; CGdiObject::~CGdiObject
??1CBrush@@UAE@XZ ENDP					; CBrush::~CBrush
_TEXT	ENDS
; Function compile flags: /Ogtp
; File C:\Program Files (x86)\Microsoft Visual Studio\2019\Community\VC\Tools\MSVC\14.29.30133\atlmfc\include\afx.inl
;	COMDAT ??_GCGdiObject@@UAEPAXI@Z
_TEXT	SEGMENT
___flags$ = 8						; size = 4
??_GCGdiObject@@UAEPAXI@Z PROC				; CGdiObject::`scalar deleting destructor', COMDAT
; _this$ = ecx
  00000	55		 push	 ebp
  00001	8b ec		 mov	 ebp, esp
  00003	56		 push	 esi
  00004	8b f1		 mov	 esi, ecx
  00006	e8 00 00 00 00	 call	 ??1CGdiObject@@UAE@XZ	; CGdiObject::~CGdiObject
  0000b	8b 45 08	 mov	 eax, DWORD PTR ___flags$[ebp]
  0000e	a8 01		 test	 al, 1
  00010	74 1f		 je	 SHORT $LN9@scalar
  00012	a8 04		 test	 al, 4
  00014	75 10		 jne	 SHORT $LN3@scalar

; 112  : 	{ ::operator delete(p); }

  00016	56		 push	 esi
  00017	e8 00 00 00 00	 call	 ??3@YAXPAX@Z		; operator delete
  0001c	83 c4 04	 add	 esp, 4
  0001f	8b c6		 mov	 eax, esi
  00021	5e		 pop	 esi
  00022	5d		 pop	 ebp
  00023	c2 04 00	 ret	 4
$LN3@scalar:
  00026	6a 08		 push	 8
  00028	56		 push	 esi
  00029	e8 00 00 00 00	 call	 ?__global_delete@@YAXPAXI@Z ; __global_delete
  0002e	83 c4 08	 add	 esp, 8
$LN9@scalar:
  00031	8b c6		 mov	 eax, esi
  00033	5e		 pop	 esi
  00034	5d		 pop	 ebp
  00035	c2 04 00	 ret	 4
??_GCGdiObject@@UAEPAXI@Z ENDP				; CGdiObject::`scalar deleting destructor'
_TEXT	ENDS
; Function compile flags: /Ogtp
; File C:\Program Files (x86)\Microsoft Visual Studio\2019\Community\VC\Tools\MSVC\14.29.30133\atlmfc\include\afxwin1.inl
;	COMDAT ??1CGdiObject@@UAE@XZ
_TEXT	SEGMENT
_pException$2 = -540					; size = 4
_strMsg$3 = -536					; size = 4
_szErrorMessage$4 = -532				; size = 512
__$ArrayPad$ = -20					; size = 4
__$EHRec$ = -16						; size = 16
??1CGdiObject@@UAE@XZ PROC				; CGdiObject::~CGdiObject, COMDAT
; _this$ = ecx

; 74   : {

  00000	55		 push	 ebp
  00001	8b ec		 mov	 ebp, esp
  00003	6a ff		 push	 -1
  00005	68 00 00 00 00	 push	 __ehhandler$??1CGdiObject@@UAE@XZ
  0000a	64 a1 00 00 00
	00		 mov	 eax, DWORD PTR fs:0
  00010	50		 push	 eax
  00011	81 ec 10 02 00
	00		 sub	 esp, 528		; 00000210H
  00017	a1 00 00 00 00	 mov	 eax, DWORD PTR ___security_cookie
  0001c	33 c5		 xor	 eax, ebp
  0001e	89 45 ec	 mov	 DWORD PTR __$ArrayPad$[ebp], eax
  00021	53		 push	 ebx
  00022	56		 push	 esi
  00023	57		 push	 edi
  00024	50		 push	 eax
  00025	8d 45 f4	 lea	 eax, DWORD PTR __$EHRec$[ebp+4]
  00028	64 a3 00 00 00
	00		 mov	 DWORD PTR fs:0, eax
  0002e	89 65 f0	 mov	 DWORD PTR __$EHRec$[ebp], esp
  00031	c7 01 00 00 00
	00		 mov	 DWORD PTR [ecx], OFFSET ??_7CGdiObject@@6B@

; 75   : 	AFX_BEGIN_DESTRUCTOR

  00037	c7 45 fc 00 00
	00 00		 mov	 DWORD PTR __$EHRec$[ebp+12], 0

; 76   : 	DeleteObject();

  0003e	e8 00 00 00 00	 call	 ?DeleteObject@CGdiObject@@QAEHXZ ; CGdiObject::DeleteObject
$LN18@CGdiObject:

; 78   : }

  00043	8b 4d f4	 mov	 ecx, DWORD PTR __$EHRec$[ebp+4]
  00046	64 89 0d 00 00
	00 00		 mov	 DWORD PTR fs:0, ecx
  0004d	59		 pop	 ecx
  0004e	5f		 pop	 edi
  0004f	5e		 pop	 esi
  00050	5b		 pop	 ebx
  00051	8b 4d ec	 mov	 ecx, DWORD PTR __$ArrayPad$[ebp]
  00054	33 cd		 xor	 ecx, ebp
  00056	e8 00 00 00 00	 call	 @__security_check_cookie@4
  0005b	8b e5		 mov	 esp, ebp
  0005d	5d		 pop	 ebp
  0005e	c3		 ret	 0
__catch$??1CGdiObject@@UAE@XZ$0:

; 77   : 	AFX_END_DESTRUCTOR

  0005f	8d 8d e8 fd ff
	ff		 lea	 ecx, DWORD PTR _strMsg$3[ebp]
  00065	ff 15 00 00 00
	00		 call	 DWORD PTR __imp_??0?$CStringT@DV?$StrTraitMFC_DLL@DV?$ChTraitsCRT@D@ATL@@@@@ATL@@QAE@XZ
  0006b	8b b5 e4 fd ff
	ff		 mov	 esi, DWORD PTR _pException$2[ebp]
  00071	8d 8d ec fd ff
	ff		 lea	 ecx, DWORD PTR _szErrorMessage$4[ebp]
  00077	6a 00		 push	 0
  00079	68 00 02 00 00	 push	 512			; 00000200H
  0007e	51		 push	 ecx
  0007f	8b 06		 mov	 eax, DWORD PTR [esi]
  00081	8b ce		 mov	 ecx, esi
  00083	c6 45 fc 02	 mov	 BYTE PTR __$EHRec$[ebp+12], 2
  00087	ff 50 14	 call	 DWORD PTR [eax+20]
  0008a	85 c0		 test	 eax, eax
  0008c	74 2a		 je	 SHORT $LN9@CGdiObject
  0008e	8d 85 ec fd ff
	ff		 lea	 eax, DWORD PTR _szErrorMessage$4[ebp]
  00094	50		 push	 eax
  00095	6a 4d		 push	 77			; 0000004dH
  00097	68 00 00 00 00	 push	 OFFSET ??_C@_0HD@JJCHHHNK@C?3?2Program?5Files?5?$CIx86?$CJ?2Microsof@
  0009c	68 00 00 00 00	 push	 OFFSET ??_C@_0BP@OIEOKIDM@Exception?5thrown?5in?5destructor@
  000a1	8d 85 e8 fd ff
	ff		 lea	 eax, DWORD PTR _strMsg$3[ebp]
  000a7	68 00 00 00 00	 push	 OFFSET ??_C@_0BB@HBOOMJBF@?$CFTs?5?$CI?$CFTs?3?$CFd?$CJ?6?$CFTs@
  000ac	50		 push	 eax
  000ad	ff 15 00 00 00
	00		 call	 DWORD PTR __imp_?Format@?$CStringT@DV?$StrTraitMFC_DLL@DV?$ChTraitsCRT@D@ATL@@@@@ATL@@QAAXPBDZZ
  000b3	83 c4 18	 add	 esp, 24			; 00000018H
  000b6	eb 21		 jmp	 SHORT $LN10@CGdiObject
$LN9@CGdiObject:
  000b8	6a 4d		 push	 77			; 0000004dH
  000ba	68 00 00 00 00	 push	 OFFSET ??_C@_0HD@JJCHHHNK@C?3?2Program?5Files?5?$CIx86?$CJ?2Microsof@
  000bf	68 00 00 00 00	 push	 OFFSET ??_C@_0BP@OIEOKIDM@Exception?5thrown?5in?5destructor@
  000c4	8d 85 e8 fd ff
	ff		 lea	 eax, DWORD PTR _strMsg$3[ebp]
  000ca	68 00 00 00 00	 push	 OFFSET ??_C@_0N@OMEMOKLE@?$CFTs?5?$CI?$CFTs?3?$CFd?$CJ@
  000cf	50		 push	 eax
  000d0	ff 15 00 00 00
	00		 call	 DWORD PTR __imp_?Format@?$CStringT@DV?$StrTraitMFC_DLL@DV?$ChTraitsCRT@D@ATL@@@@@ATL@@QAAXPBDZZ
  000d6	83 c4 14	 add	 esp, 20			; 00000014H
$LN10@CGdiObject:
  000d9	6a 00		 push	 0
  000db	6a 00		 push	 0
  000dd	ff b5 e8 fd ff
	ff		 push	 DWORD PTR _strMsg$3[ebp]
  000e3	e8 00 00 00 00	 call	 ?AfxMessageBox@@YGHPBDII@Z ; AfxMessageBox
  000e8	8d 8d e8 fd ff
	ff		 lea	 ecx, DWORD PTR _strMsg$3[ebp]
  000ee	ff 15 00 00 00
	00		 call	 DWORD PTR __imp_??1?$CStringT@DV?$StrTraitMFC_DLL@DV?$ChTraitsCRT@D@ATL@@@@@ATL@@QAE@XZ
  000f4	8b 06		 mov	 eax, DWORD PTR [esi]
  000f6	8b ce		 mov	 ecx, esi
  000f8	6a 01		 push	 1
  000fa	ff 50 04	 call	 DWORD PTR [eax+4]
  000fd	b8 00 00 00 00	 mov	 eax, $LN18@CGdiObject
  00102	c3		 ret	 0
_TEXT	ENDS
;	COMDAT text$x
text$x	SEGMENT
__unwindfunclet$??1CGdiObject@@UAE@XZ$2:
  00000	8d 8d e8 fd ff
	ff		 lea	 ecx, DWORD PTR _strMsg$3[ebp]
  00006	ff 25 00 00 00
	00		 jmp	 DWORD PTR __imp_??1?$CStringT@DV?$StrTraitMFC_DLL@DV?$ChTraitsCRT@D@ATL@@@@@ATL@@QAE@XZ
  0000c	cc		 int	 3
  0000d	cc		 int	 3
  0000e	cc		 int	 3
  0000f	cc		 int	 3
  00010	cc		 int	 3
__ehhandler$??1CGdiObject@@UAE@XZ:
  00011	90		 npad	 1
  00012	90		 npad	 1
  00013	8b 54 24 08	 mov	 edx, DWORD PTR [esp+8]
  00017	8d 42 0c	 lea	 eax, DWORD PTR [edx+12]
  0001a	8b 8a e0 fd ff
	ff		 mov	 ecx, DWORD PTR [edx-544]
  00020	33 c8		 xor	 ecx, eax
  00022	e8 00 00 00 00	 call	 @__security_check_cookie@4
  00027	8b 4a f8	 mov	 ecx, DWORD PTR [edx-8]
  0002a	33 c8		 xor	 ecx, eax
  0002c	e8 00 00 00 00	 call	 @__security_check_cookie@4
  00031	b8 00 00 00 00	 mov	 eax, OFFSET __ehfuncinfo$??1CGdiObject@@UAE@XZ
  00036	e9 00 00 00 00	 jmp	 ___CxxFrameHandler3
text$x	ENDS
??1CGdiObject@@UAE@XZ ENDP				; CGdiObject::~CGdiObject
; Function compile flags: /Ogtp
; File C:\Program Files (x86)\Microsoft Visual Studio\2019\Community\VC\Tools\MSVC\14.29.30133\atlmfc\include\cstringt.h
; File C:\Program Files (x86)\Microsoft Visual Studio\2019\Community\VC\Tools\MSVC\14.29.30133\atlmfc\include\atlsimpstr.h
; File C:\Program Files (x86)\Microsoft Visual Studio\2019\Community\VC\Tools\MSVC\14.29.30133\atlmfc\include\cstringt.h
; File C:\Program Files (x86)\Microsoft Visual Studio\2019\Community\VC\Tools\MSVC\14.29.30133\atlmfc\include\atlsimpstr.h
; File C:\Program Files (x86)\Microsoft Visual Studio\2019\Community\VC\Tools\MSVC\14.29.30133\atlmfc\include\cstringt.h
;	COMDAT ??HATL@@YA?AV?$CStringT@DV?$StrTraitMFC_DLL@DV?$ChTraitsCRT@D@ATL@@@@@0@ABV10@PBD@Z
_TEXT	SEGMENT
$T2 = -16						; size = 4
__$EHRec$ = -12						; size = 12
___$ReturnUdt$ = 8					; size = 4
_str1$ = 12						; size = 4
_psz2$ = 16						; size = 4
??HATL@@YA?AV?$CStringT@DV?$StrTraitMFC_DLL@DV?$ChTraitsCRT@D@ATL@@@@@0@ABV10@PBD@Z PROC ; ATL::operator+, COMDAT

; 2400 : 	{

  00000	55		 push	 ebp
  00001	8b ec		 mov	 ebp, esp
  00003	6a ff		 push	 -1
  00005	68 00 00 00 00	 push	 __ehhandler$??HATL@@YA?AV?$CStringT@DV?$StrTraitMFC_DLL@DV?$ChTraitsCRT@D@ATL@@@@@0@ABV10@PBD@Z
  0000a	64 a1 00 00 00
	00		 mov	 eax, DWORD PTR fs:0
  00010	50		 push	 eax
  00011	51		 push	 ecx
  00012	53		 push	 ebx
  00013	56		 push	 esi
  00014	57		 push	 edi
  00015	a1 00 00 00 00	 mov	 eax, DWORD PTR ___security_cookie
  0001a	33 c5		 xor	 eax, ebp
  0001c	50		 push	 eax
  0001d	8d 45 f4	 lea	 eax, DWORD PTR __$EHRec$[ebp]
  00020	64 a3 00 00 00
	00		 mov	 DWORD PTR fs:0, eax

; 2401 : 		CStringT strResult( str1.GetManager() );

  00026	8b 5d 0c	 mov	 ebx, DWORD PTR _str1$[ebp]
  00029	8b cb		 mov	 ecx, ebx
  0002b	c7 45 f0 00 00
	00 00		 mov	 DWORD PTR $T2[ebp], 0
  00032	ff 15 00 00 00
	00		 call	 DWORD PTR __imp_?GetManager@?$CStringT@DV?$StrTraitMFC_DLL@DV?$ChTraitsCRT@D@ATL@@@@@ATL@@QBEPAUIAtlStringMgr@2@XZ
  00038	8b 7d 08	 mov	 edi, DWORD PTR ___$ReturnUdt$[ebp]
  0003b	8b cf		 mov	 ecx, edi
  0003d	50		 push	 eax
  0003e	ff 15 00 00 00
	00		 call	 DWORD PTR __imp_??0?$CStringT@DV?$StrTraitMFC_DLL@DV?$ChTraitsCRT@D@ATL@@@@@ATL@@QAE@PAUIAtlStringMgr@1@@Z
; File C:\Program Files (x86)\Microsoft Visual Studio\2019\Community\VC\Tools\MSVC\14.29.30133\atlmfc\include\atlsimpstr.h

; 722  : 		if( psz == NULL )

  00044	8b 75 10	 mov	 esi, DWORD PTR _psz2$[ebp]
; File C:\Program Files (x86)\Microsoft Visual Studio\2019\Community\VC\Tools\MSVC\14.29.30133\atlmfc\include\cstringt.h

; 2405 : 		return( strResult );

  00047	c7 45 fc 00 00
	00 00		 mov	 DWORD PTR __$EHRec$[ebp+8], 0
  0004e	c7 45 f0 01 00
	00 00		 mov	 DWORD PTR $T2[ebp], 1
; File C:\Program Files (x86)\Microsoft Visual Studio\2019\Community\VC\Tools\MSVC\14.29.30133\atlmfc\include\atlsimpstr.h

; 722  : 		if( psz == NULL )

  00055	85 f6		 test	 esi, esi
  00057	75 04		 jne	 SHORT $LN6@operator

; 723  : 		{
; 724  : 			return( 0 );

  00059	33 d2		 xor	 edx, edx
  0005b	eb 0e		 jmp	 SHORT $LN5@operator
$LN6@operator:

; 725  : 		}
; 726  : 		return( int( strlen( psz ) ) );

  0005d	8b d6		 mov	 edx, esi
  0005f	8d 4a 01	 lea	 ecx, DWORD PTR [edx+1]
$LL14@operator:
  00062	8a 02		 mov	 al, BYTE PTR [edx]
  00064	42		 inc	 edx
  00065	84 c0		 test	 al, al
  00067	75 f9		 jne	 SHORT $LL14@operator
  00069	2b d1		 sub	 edx, ecx
$LN5@operator:

; 519  : 		return( GetData()->nDataLength );

  0006b	8b 0b		 mov	 ecx, DWORD PTR [ebx]
; File C:\Program Files (x86)\Microsoft Visual Studio\2019\Community\VC\Tools\MSVC\14.29.30133\atlmfc\include\cstringt.h

; 2403 : 		CThisSimpleString::Concatenate( strResult, str1, str1.GetLength(), psz2, CThisSimpleString::StringLength( psz2 ) );

  0006d	52		 push	 edx
  0006e	56		 push	 esi
  0006f	ff 71 f4	 push	 DWORD PTR [ecx-12]
  00072	51		 push	 ecx
  00073	57		 push	 edi
  00074	ff 15 00 00 00
	00		 call	 DWORD PTR __imp_?Concatenate@?$CSimpleStringT@D$00@ATL@@KAXAAV12@PBDH1H@Z
  0007a	83 c4 14	 add	 esp, 20			; 00000014H

; 2405 : 		return( strResult );

  0007d	8b c7		 mov	 eax, edi

; 2406 : 	}

  0007f	8b 4d f4	 mov	 ecx, DWORD PTR __$EHRec$[ebp]
  00082	64 89 0d 00 00
	00 00		 mov	 DWORD PTR fs:0, ecx
  00089	59		 pop	 ecx
  0008a	5f		 pop	 edi
  0008b	5e		 pop	 esi
  0008c	5b		 pop	 ebx
  0008d	8b e5		 mov	 esp, ebp
  0008f	5d		 pop	 ebp
  00090	c3		 ret	 0
_TEXT	ENDS
;	COMDAT text$x
text$x	SEGMENT
__unwindfunclet$??HATL@@YA?AV?$CStringT@DV?$StrTraitMFC_DLL@DV?$ChTraitsCRT@D@ATL@@@@@0@ABV10@PBD@Z$0:
  00000	8b 45 f0	 mov	 eax, DWORD PTR $T2[ebp]
  00003	83 e0 01	 and	 eax, 1
  00006	0f 84 0d 00 00
	00		 je	 $LN4@operator
  0000c	83 65 f0 fe	 and	 DWORD PTR $T2[ebp], -2	; fffffffeH
  00010	8b 4d 08	 mov	 ecx, DWORD PTR ___$ReturnUdt$[ebp]
  00013	ff 25 00 00 00
	00		 jmp	 DWORD PTR __imp_??1?$CStringT@DV?$StrTraitMFC_DLL@DV?$ChTraitsCRT@D@ATL@@@@@ATL@@QAE@XZ
$LN4@operator:
  00019	c3		 ret	 0
  0001a	cc		 int	 3
  0001b	cc		 int	 3
  0001c	cc		 int	 3
  0001d	cc		 int	 3
  0001e	cc		 int	 3
__ehhandler$??HATL@@YA?AV?$CStringT@DV?$StrTraitMFC_DLL@DV?$ChTraitsCRT@D@ATL@@@@@0@ABV10@PBD@Z:
  0001f	90		 npad	 1
  00020	90		 npad	 1
  00021	8b 54 24 08	 mov	 edx, DWORD PTR [esp+8]
  00025	8d 42 0c	 lea	 eax, DWORD PTR [edx+12]
  00028	8b 4a ec	 mov	 ecx, DWORD PTR [edx-20]
  0002b	33 c8		 xor	 ecx, eax
  0002d	e8 00 00 00 00	 call	 @__security_check_cookie@4
  00032	b8 00 00 00 00	 mov	 eax, OFFSET __ehfuncinfo$??HATL@@YA?AV?$CStringT@DV?$StrTraitMFC_DLL@DV?$ChTraitsCRT@D@ATL@@@@@0@ABV10@PBD@Z
  00037	e9 00 00 00 00	 jmp	 ___CxxFrameHandler3
text$x	ENDS
??HATL@@YA?AV?$CStringT@DV?$StrTraitMFC_DLL@DV?$ChTraitsCRT@D@ATL@@@@@0@ABV10@PBD@Z ENDP ; ATL::operator+
; Function compile flags: /Ogtp
; File C:\Program Files (x86)\Microsoft Visual Studio\2019\Community\VC\Tools\MSVC\14.29.30133\atlmfc\include\afx.inl
;	COMDAT ?Dump@CObject@@UBEXAAVCDumpContext@@@Z
_TEXT	SEGMENT
___formal$ = 8						; size = 4
?Dump@CObject@@UBEXAAVCDumpContext@@@Z PROC		; CObject::Dump, COMDAT
; _this$ = ecx

; 122  : 	{ /* no dumping in release builds */ }

  00000	c2 04 00	 ret	 4
?Dump@CObject@@UBEXAAVCDumpContext@@@Z ENDP		; CObject::Dump
_TEXT	ENDS
; Function compile flags: /Ogtp
; File C:\Program Files (x86)\Microsoft Visual Studio\2019\Community\VC\Tools\MSVC\14.29.30133\atlmfc\include\afx.inl
;	COMDAT ?AssertValid@CObject@@UBEXXZ
_TEXT	SEGMENT
?AssertValid@CObject@@UBEXXZ PROC			; CObject::AssertValid, COMDAT
; _this$ = ecx

; 120  : 	{ /* no asserts in release builds */ }

  00000	c2 00 00	 ret	 0
?AssertValid@CObject@@UBEXXZ ENDP			; CObject::AssertValid
_TEXT	ENDS
; Function compile flags: /Ogtp
; File C:\Program Files (x86)\Microsoft Visual Studio\2019\Community\VC\Tools\MSVC\14.29.30133\atlmfc\include\afx.inl
;	COMDAT ?Serialize@CObject@@UAEXAAVCArchive@@@Z
_TEXT	SEGMENT
___formal$ = 8						; size = 4
?Serialize@CObject@@UAEXAAVCArchive@@@Z PROC		; CObject::Serialize, COMDAT
; _this$ = ecx

; 106  : 	{ /* CObject does not serialize anything by default */ }

  00000	c2 04 00	 ret	 4
?Serialize@CObject@@UAEXAAVCArchive@@@Z ENDP		; CObject::Serialize
_TEXT	ENDS
; Function compile flags: /Ogtp
; File C:\Program Files (x86)\Microsoft Visual Studio\2019\Community\VC\Tools\MSVC\14.29.30133\atlmfc\include\afx.inl
;	COMDAT ??1CObject@@UAE@XZ
_TEXT	SEGMENT
??1CObject@@UAE@XZ PROC					; CObject::~CObject, COMDAT
; _this$ = ecx

; 104  : 	{ }

  00000	c2 00 00	 ret	 0
??1CObject@@UAE@XZ ENDP					; CObject::~CObject
_TEXT	ENDS
; Function compile flags: /Ogtp
; File C:\Program Files (x86)\Windows Kits\10\Include\10.0.22000.0\ucrt\stdio.h
;	COMDAT _sscanf
_TEXT	SEGMENT
__Buffer$ = 8						; size = 4
__Format$ = 12						; size = 4
_sscanf	PROC						; COMDAT

; 2247 :     {

  00000	55		 push	 ebp
  00001	8b ec		 mov	 ebp, esp

; 2153 :         return __stdio_common_vsscanf(

  00003	8d 45 10	 lea	 eax, DWORD PTR __Format$[ebp+4]
  00006	50		 push	 eax
  00007	6a 00		 push	 0
  00009	ff 75 0c	 push	 DWORD PTR __Format$[ebp]
  0000c	6a ff		 push	 -1
  0000e	ff 75 08	 push	 DWORD PTR __Buffer$[ebp]
  00011	e8 00 00 00 00	 call	 ___local_stdio_scanf_options
  00016	ff 70 04	 push	 DWORD PTR [eax+4]
  00019	ff 30		 push	 DWORD PTR [eax]
  0001b	ff 15 00 00 00
	00		 call	 DWORD PTR __imp____stdio_common_vsscanf
  00021	83 c4 1c	 add	 esp, 28			; 0000001cH

; 2248 :         int _Result;
; 2249 :         va_list _ArgList;
; 2250 :         __crt_va_start(_ArgList, _Format);
; 2251 :         _Result = _vsscanf_l(_Buffer, _Format, NULL, _ArgList);
; 2252 :         __crt_va_end(_ArgList);
; 2253 :         return _Result;
; 2254 :     }

  00024	5d		 pop	 ebp
  00025	c3		 ret	 0
_sscanf	ENDP
_TEXT	ENDS
; Function compile flags: /Ogtp
; File C:\Program Files (x86)\Windows Kits\10\Include\10.0.22000.0\ucrt\corecrt_stdio_config.h
;	COMDAT ___local_stdio_scanf_options
_TEXT	SEGMENT
___local_stdio_scanf_options PROC			; COMDAT

; 101  :         static unsigned __int64 _OptionsStorage;
; 102  :         return &_OptionsStorage;

  00000	b8 00 00 00 00	 mov	 eax, OFFSET ?_OptionsStorage@?1??__local_stdio_scanf_options@@9@4_KA ; `__local_stdio_scanf_options'::`2'::_OptionsStorage

; 103  :     }

  00005	c3		 ret	 0
___local_stdio_scanf_options ENDP
_TEXT	ENDS
; Function compile flags: /Ogtp
; File D:\git\src\IBK\IBK_DRFN\ProjSrc\SrcDrfn\Chart\HWSTRATEGYCONFIGUREWIZARD\DlgStrategyList.cpp
;	COMDAT ?__empty_global_delete@@YAXPAXI@Z
_TEXT	SEGMENT
___formal$ = 8						; size = 4
___formal$ = 12						; size = 4
?__empty_global_delete@@YAXPAXI@Z PROC			; __empty_global_delete, COMDAT

  00000	c2 00 00	 ret	 0
?__empty_global_delete@@YAXPAXI@Z ENDP			; __empty_global_delete
_TEXT	ENDS
; Function compile flags: /Ogtp
; File D:\git\src\IBK\IBK_DRFN\ProjSrc\SrcDrfn\Chart\HWSTRATEGYCONFIGUREWIZARD\DlgStrategyList.cpp
;	COMDAT ?__empty_global_delete@@YAXPAX@Z
_TEXT	SEGMENT
___formal$ = 8						; size = 4
?__empty_global_delete@@YAXPAX@Z PROC			; __empty_global_delete, COMDAT

  00000	c2 00 00	 ret	 0
?__empty_global_delete@@YAXPAX@Z ENDP			; __empty_global_delete
_TEXT	ENDS
; Function compile flags: /Ogtp
;	COMDAT ??_H@YGXPAXIIP6EPAX0@Z@Z
_TEXT	SEGMENT
___t$ = 8						; size = 4
___s$ = 12						; size = 4
___n$ = 16						; size = 4
___f$ = 20						; size = 4
??_H@YGXPAXIIP6EPAX0@Z@Z PROC				; `vector constructor iterator', COMDAT
  00000	55		 push	 ebp
  00001	8b ec		 mov	 ebp, esp
  00003	56		 push	 esi
  00004	8b 75 10	 mov	 esi, DWORD PTR ___n$[ebp]
  00007	85 f6		 test	 esi, esi
  00009	74 16		 je	 SHORT $LN6@vector
  0000b	53		 push	 ebx
  0000c	8b 5d 14	 mov	 ebx, DWORD PTR ___f$[ebp]
  0000f	57		 push	 edi
  00010	8b 7d 08	 mov	 edi, DWORD PTR ___t$[ebp]
$LL2@vector:
  00013	8b cf		 mov	 ecx, edi
  00015	ff d3		 call	 ebx
  00017	03 7d 0c	 add	 edi, DWORD PTR ___s$[ebp]
  0001a	83 ee 01	 sub	 esi, 1
  0001d	75 f4		 jne	 SHORT $LL2@vector
  0001f	5f		 pop	 edi
  00020	5b		 pop	 ebx
$LN6@vector:
  00021	5e		 pop	 esi
  00022	5d		 pop	 ebp
  00023	c2 10 00	 ret	 16			; 00000010H
??_H@YGXPAXIIP6EPAX0@Z@Z ENDP				; `vector constructor iterator'
_TEXT	ENDS
END
