; Listing generated by Microsoft (R) Optimizing Compiler Version 19.29.30145.0 

	TITLE	D:\git\src\IBK\IBK_DRFN\#DRfn-CS\_Obj\HWStrategyConfigureWizard\InPlaceEdit.obj
	.686P
	.XMM
	include listing.inc
	.model	flat

INCLUDELIB MSVCRT
INCLUDELIB OLDNAMES

PUBLIC	??_H@YGXPAXIIP6EPAX0@Z@Z			; `vector constructor iterator'
PUBLIC	?__empty_global_delete@@YAXPAX@Z		; __empty_global_delete
PUBLIC	?__empty_global_delete@@YAXPAXI@Z		; __empty_global_delete
PUBLIC	?Serialize@CObject@@UAEXAAVCArchive@@@Z		; CObject::Serialize
PUBLIC	?AssertValid@CObject@@UBEXXZ			; CObject::AssertValid
PUBLIC	?Dump@CObject@@UBEXAAVCDumpContext@@@Z		; CObject::Dump
PUBLIC	?OnCreate@CWnd@@IAEHPAUtagCREATESTRUCTA@@@Z	; CWnd::OnCreate
PUBLIC	?DoDataExchange@CWnd@@MAEXPAVCDataExchange@@@Z	; CWnd::DoDataExchange
PUBLIC	?BeginModalState@CWnd@@UAEXXZ			; CWnd::BeginModalState
PUBLIC	?EndModalState@CWnd@@UAEXXZ			; CWnd::EndModalState
PUBLIC	??_GCEdit@@UAEPAXI@Z				; CEdit::`scalar deleting destructor'
PUBLIC	??0CInPlaceEdit@@QAE@PAVCWnd@@AAVCRect@@KIHHV?$CStringT@DV?$StrTraitMFC_DLL@DV?$ChTraitsCRT@D@ATL@@@@@ATL@@I@Z ; CInPlaceEdit::CInPlaceEdit
PUBLIC	?EndEdit@CInPlaceEdit@@QAEXXZ			; CInPlaceEdit::EndEdit
PUBLIC	?PreTranslateMessage@CInPlaceEdit@@UAEHPAUtagMSG@@@Z ; CInPlaceEdit::PreTranslateMessage
PUBLIC	?PostNcDestroy@CInPlaceEdit@@MAEXXZ		; CInPlaceEdit::PostNcDestroy
PUBLIC	??1CInPlaceEdit@@UAE@XZ				; CInPlaceEdit::~CInPlaceEdit
PUBLIC	?OnKillFocus@CInPlaceEdit@@IAEXPAVCWnd@@@Z	; CInPlaceEdit::OnKillFocus
PUBLIC	?OnChar@CInPlaceEdit@@IAEXIII@Z			; CInPlaceEdit::OnChar
PUBLIC	?OnKeyDown@CInPlaceEdit@@IAEXIII@Z		; CInPlaceEdit::OnKeyDown
PUBLIC	?OnGetDlgCode@CInPlaceEdit@@IAEIXZ		; CInPlaceEdit::OnGetDlgCode
PUBLIC	?GetThisMessageMap@CInPlaceEdit@@KGPBUAFX_MSGMAP@@XZ ; CInPlaceEdit::GetThisMessageMap
PUBLIC	?GetMessageMap@CInPlaceEdit@@MBEPBUAFX_MSGMAP@@XZ ; CInPlaceEdit::GetMessageMap
PUBLIC	??_GCInPlaceEdit@@UAEPAXI@Z			; CInPlaceEdit::`scalar deleting destructor'
PUBLIC	??1tagGV_DISPINFO@@QAE@XZ			; tagGV_DISPINFO::~tagGV_DISPINFO
PUBLIC	??_7CEdit@@6B@					; CEdit::`vftable'
PUBLIC	??_R0?AVCObject@@@8				; CObject `RTTI Type Descriptor'
PUBLIC	??_R3CObject@@8					; CObject::`RTTI Class Hierarchy Descriptor'
PUBLIC	??_R2CObject@@8					; CObject::`RTTI Base Class Array'
PUBLIC	??_R1A@?0A@EA@CObject@@8			; CObject::`RTTI Base Class Descriptor at (0,-1,0,64)'
PUBLIC	??_R1A@?0A@EA@CWnd@@8				; CWnd::`RTTI Base Class Descriptor at (0,-1,0,64)'
PUBLIC	??_R0?AVCWnd@@@8				; CWnd `RTTI Type Descriptor'
PUBLIC	??_R3CWnd@@8					; CWnd::`RTTI Class Hierarchy Descriptor'
PUBLIC	??_R2CWnd@@8					; CWnd::`RTTI Base Class Array'
PUBLIC	??_R1A@?0A@EA@CCmdTarget@@8			; CCmdTarget::`RTTI Base Class Descriptor at (0,-1,0,64)'
PUBLIC	??_R0?AVCCmdTarget@@@8				; CCmdTarget `RTTI Type Descriptor'
PUBLIC	??_R3CCmdTarget@@8				; CCmdTarget::`RTTI Class Hierarchy Descriptor'
PUBLIC	??_R2CCmdTarget@@8				; CCmdTarget::`RTTI Base Class Array'
PUBLIC	??_R4CEdit@@6B@					; CEdit::`RTTI Complete Object Locator'
PUBLIC	??_R0?AVCEdit@@@8				; CEdit `RTTI Type Descriptor'
PUBLIC	??_R3CEdit@@8					; CEdit::`RTTI Class Hierarchy Descriptor'
PUBLIC	??_R2CEdit@@8					; CEdit::`RTTI Base Class Array'
PUBLIC	??_R1A@?0A@EA@CEdit@@8				; CEdit::`RTTI Base Class Descriptor at (0,-1,0,64)'
PUBLIC	??_7CInPlaceEdit@@6B@				; CInPlaceEdit::`vftable'
PUBLIC	??_C@_02KNHHEEKP@?5?5@				; `string'
PUBLIC	??_R4CInPlaceEdit@@6B@				; CInPlaceEdit::`RTTI Complete Object Locator'
PUBLIC	??_R0?AVCInPlaceEdit@@@8			; CInPlaceEdit `RTTI Type Descriptor'
PUBLIC	??_R3CInPlaceEdit@@8				; CInPlaceEdit::`RTTI Class Hierarchy Descriptor'
PUBLIC	??_R2CInPlaceEdit@@8				; CInPlaceEdit::`RTTI Base Class Array'
PUBLIC	??_R1A@?0A@EA@CInPlaceEdit@@8			; CInPlaceEdit::`RTTI Base Class Descriptor at (0,-1,0,64)'
EXTRN	??3@YAXPAX@Z:PROC				; operator delete
EXTRN	?__global_delete@@YAXPAXI@Z:PROC		; __global_delete
EXTRN	__imp__GetTextExtentPoint32A@16:PROC
EXTRN	__imp__SendMessageA@16:PROC
EXTRN	__imp__PostMessageA@16:PROC
EXTRN	__imp__IsWindow@4:PROC
EXTRN	__imp__GetKeyState@4:PROC
EXTRN	__imp__EnableWindow@8:PROC
EXTRN	__imp__GetClientRect@8:PROC
EXTRN	__imp__GetParent@4:PROC
EXTRN	__imp_??0?$CStringT@DV?$StrTraitMFC_DLL@DV?$ChTraitsCRT@D@ATL@@@@@ATL@@QAE@XZ:PROC
EXTRN	__imp_??1?$CStringT@DV?$StrTraitMFC_DLL@DV?$ChTraitsCRT@D@ATL@@@@@ATL@@QAE@XZ:PROC
EXTRN	__imp_??4?$CStringT@DV?$StrTraitMFC_DLL@DV?$ChTraitsCRT@D@ATL@@@@@ATL@@QAEAAV01@ABV01@@Z:PROC
EXTRN	__imp_??Y?$CStringT@DV?$StrTraitMFC_DLL@DV?$ChTraitsCRT@D@ATL@@@@@ATL@@QAEAAV01@PBD@Z:PROC
EXTRN	?FromHandle@CGdiObject@@SGPAV1@PAX@Z:PROC	; CGdiObject::FromHandle
EXTRN	?SelectObject@CDC@@UAEPAVCFont@@PAV2@@Z:PROC	; CDC::SelectObject
EXTRN	??0CWindowDC@@QAE@PAVCWnd@@@Z:PROC		; CWindowDC::CWindowDC
EXTRN	??1CWindowDC@@UAE@XZ:PROC			; CWindowDC::~CWindowDC
EXTRN	?OnCmdMsg@CCmdTarget@@UAEHIHPAXPAUAFX_CMDHANDLERINFO@@@Z:PROC ; CCmdTarget::OnCmdMsg
EXTRN	?IsInvokeAllowed@CCmdTarget@@UAEHJ@Z:PROC	; CCmdTarget::IsInvokeAllowed
EXTRN	?GetDispatchIID@CCmdTarget@@UAEHPAU_GUID@@@Z:PROC ; CCmdTarget::GetDispatchIID
EXTRN	?GetTypeInfoCount@CCmdTarget@@UAEIXZ:PROC	; CCmdTarget::GetTypeInfoCount
EXTRN	?GetTypeLibCache@CCmdTarget@@UAEPAVCTypeLibCache@@XZ:PROC ; CCmdTarget::GetTypeLibCache
EXTRN	?GetTypeLib@CCmdTarget@@UAEJKPAPAUITypeLib@@@Z:PROC ; CCmdTarget::GetTypeLib
EXTRN	?GetCommandMap@CCmdTarget@@MBEPBUAFX_OLECMDMAP@@XZ:PROC ; CCmdTarget::GetCommandMap
EXTRN	?GetDispatchMap@CCmdTarget@@MBEPBUAFX_DISPMAP@@XZ:PROC ; CCmdTarget::GetDispatchMap
EXTRN	?GetConnectionMap@CCmdTarget@@MBEPBUAFX_CONNECTIONMAP@@XZ:PROC ; CCmdTarget::GetConnectionMap
EXTRN	?GetEventSinkMap@CCmdTarget@@MBEPBUAFX_EVENTSINKMAP@@XZ:PROC ; CCmdTarget::GetEventSinkMap
EXTRN	?OnCreateAggregates@CCmdTarget@@UAEHXZ:PROC	; CCmdTarget::OnCreateAggregates
EXTRN	?GetInterfaceHook@CCmdTarget@@UAEPAUIUnknown@@PBX@Z:PROC ; CCmdTarget::GetInterfaceHook
EXTRN	?GetExtraConnectionPoints@CCmdTarget@@MAEHPAVCPtrArray@@@Z:PROC ; CCmdTarget::GetExtraConnectionPoints
EXTRN	?GetConnectionHook@CCmdTarget@@MAEPAUIConnectionPoint@@ABU_GUID@@@Z:PROC ; CCmdTarget::GetConnectionHook
EXTRN	??0CWnd@@QAE@XZ:PROC				; CWnd::CWnd
EXTRN	?FromHandle@CWnd@@SGPAV1@PAUHWND__@@@Z:PROC	; CWnd::FromHandle
EXTRN	?PreSubclassWindow@CWnd@@UAEXXZ:PROC		; CWnd::PreSubclassWindow
EXTRN	?Create@CWnd@@UAEHPBD0KABUtagRECT@@PAV1@IPAUCCreateContext@@@Z:PROC ; CWnd::Create
EXTRN	?CreateEx@CWnd@@UAEHKPBD0KHHHHPAUHWND__@@PAUHMENU__@@PAX@Z:PROC ; CWnd::CreateEx
EXTRN	?CreateEx@CWnd@@UAEHKPBD0KABUtagRECT@@PAV1@IPAX@Z:PROC ; CWnd::CreateEx
EXTRN	?DestroyWindow@CWnd@@UAEHXZ:PROC		; CWnd::DestroyWindow
EXTRN	?PreCreateWindow@CWnd@@UAEHAAUtagCREATESTRUCTA@@@Z:PROC ; CWnd::PreCreateWindow
EXTRN	?CalcWindowRect@CWnd@@UAEXPAUtagRECT@@I@Z:PROC	; CWnd::CalcWindowRect
EXTRN	?GetDlgCtrlID@CWnd@@QBEHXZ:PROC			; CWnd::GetDlgCtrlID
EXTRN	?SetWindowTextA@CWnd@@QAEXPBD@Z:PROC		; CWnd::SetWindowTextA
EXTRN	?GetWindowTextA@CWnd@@QBEXAAV?$CStringT@DV?$StrTraitMFC_DLL@DV?$ChTraitsCRT@D@ATL@@@@@ATL@@@Z:PROC ; CWnd::GetWindowTextA
EXTRN	?GetMenu@CWnd@@UBEPAVCMenu@@XZ:PROC		; CWnd::GetMenu
EXTRN	?SetMenu@CWnd@@UAEHPAVCMenu@@@Z:PROC		; CWnd::SetMenu
EXTRN	?MoveWindow@CWnd@@QAEXHHHHH@Z:PROC		; CWnd::MoveWindow
EXTRN	?OnToolHitTest@CWnd@@UBEHVCPoint@@PAUtagTOOLINFOA@@@Z:PROC ; CWnd::OnToolHitTest
EXTRN	?SetFocus@CWnd@@QAEPAV1@XZ:PROC			; CWnd::SetFocus
EXTRN	?GetScrollBarCtrl@CWnd@@UBEPAVCScrollBar@@H@Z:PROC ; CWnd::GetScrollBarCtrl
EXTRN	?WinHelpA@CWnd@@UAEXKI@Z:PROC			; CWnd::WinHelpA
EXTRN	?HtmlHelpA@CWnd@@UAEXKI@Z:PROC			; CWnd::HtmlHelpA
EXTRN	?WinHelpInternal@CWnd@@UAEXKI@Z:PROC		; CWnd::WinHelpInternal
EXTRN	?ContinueModal@CWnd@@UAEHXZ:PROC		; CWnd::ContinueModal
EXTRN	?EndModalLoop@CWnd@@UAEXH@Z:PROC		; CWnd::EndModalLoop
EXTRN	?OnDrawIconicThumbnailOrLivePreview@CWnd@@UAEXAAVCDC@@VCRect@@VCSize@@HAAH@Z:PROC ; CWnd::OnDrawIconicThumbnailOrLivePreview
EXTRN	?GetInterfaceMap@CWnd@@MBEPBUAFX_INTERFACEMAP@@XZ:PROC ; CWnd::GetInterfaceMap
EXTRN	?EnsureStdObj@CWnd@@UAEJXZ:PROC			; CWnd::EnsureStdObj
EXTRN	?get_accParent@CWnd@@UAEJPAPAUIDispatch@@@Z:PROC ; CWnd::get_accParent
EXTRN	?get_accChildCount@CWnd@@UAEJPAJ@Z:PROC		; CWnd::get_accChildCount
EXTRN	?get_accChild@CWnd@@UAEJUtagVARIANT@@PAPAUIDispatch@@@Z:PROC ; CWnd::get_accChild
EXTRN	?get_accName@CWnd@@UAEJUtagVARIANT@@PAPA_W@Z:PROC ; CWnd::get_accName
EXTRN	?get_accValue@CWnd@@UAEJUtagVARIANT@@PAPA_W@Z:PROC ; CWnd::get_accValue
EXTRN	?get_accDescription@CWnd@@UAEJUtagVARIANT@@PAPA_W@Z:PROC ; CWnd::get_accDescription
EXTRN	?get_accRole@CWnd@@UAEJUtagVARIANT@@PAU2@@Z:PROC ; CWnd::get_accRole
EXTRN	?get_accState@CWnd@@UAEJUtagVARIANT@@PAU2@@Z:PROC ; CWnd::get_accState
EXTRN	?get_accHelp@CWnd@@UAEJUtagVARIANT@@PAPA_W@Z:PROC ; CWnd::get_accHelp
EXTRN	?get_accHelpTopic@CWnd@@UAEJPAPA_WUtagVARIANT@@PAJ@Z:PROC ; CWnd::get_accHelpTopic
EXTRN	?get_accKeyboardShortcut@CWnd@@UAEJUtagVARIANT@@PAPA_W@Z:PROC ; CWnd::get_accKeyboardShortcut
EXTRN	?get_accFocus@CWnd@@UAEJPAUtagVARIANT@@@Z:PROC	; CWnd::get_accFocus
EXTRN	?get_accSelection@CWnd@@UAEJPAUtagVARIANT@@@Z:PROC ; CWnd::get_accSelection
EXTRN	?get_accDefaultAction@CWnd@@UAEJUtagVARIANT@@PAPA_W@Z:PROC ; CWnd::get_accDefaultAction
EXTRN	?accSelect@CWnd@@UAEJJUtagVARIANT@@@Z:PROC	; CWnd::accSelect
EXTRN	?accLocation@CWnd@@UAEJPAJ000UtagVARIANT@@@Z:PROC ; CWnd::accLocation
EXTRN	?accNavigate@CWnd@@UAEJJUtagVARIANT@@PAU2@@Z:PROC ; CWnd::accNavigate
EXTRN	?accHitTest@CWnd@@UAEJJJPAUtagVARIANT@@@Z:PROC	; CWnd::accHitTest
EXTRN	?accDoDefaultAction@CWnd@@UAEJUtagVARIANT@@@Z:PROC ; CWnd::accDoDefaultAction
EXTRN	?put_accName@CWnd@@UAEJUtagVARIANT@@PA_W@Z:PROC	; CWnd::put_accName
EXTRN	?put_accValue@CWnd@@UAEJUtagVARIANT@@PA_W@Z:PROC ; CWnd::put_accValue
EXTRN	?SetProxy@CWnd@@UAEJPAUIAccessibleProxy@@@Z:PROC ; CWnd::SetProxy
EXTRN	?CreateAccessibleProxy@CWnd@@UAEJIJPAJ@Z:PROC	; CWnd::CreateAccessibleProxy
EXTRN	?OnCommand@CWnd@@MAEHIJ@Z:PROC			; CWnd::OnCommand
EXTRN	?OnNotify@CWnd@@MAEHIJPAJ@Z:PROC		; CWnd::OnNotify
EXTRN	?GetSuperWndProcAddr@CWnd@@MAEPAP6GJPAUHWND__@@IIJ@ZXZ:PROC ; CWnd::GetSuperWndProcAddr
EXTRN	?PreTranslateMessage@CWnd@@UAEHPAUtagMSG@@@Z:PROC ; CWnd::PreTranslateMessage
EXTRN	?OnAmbientProperty@CWnd@@UAEHPAVCOleControlSite@@JPAUtagVARIANT@@@Z:PROC ; CWnd::OnAmbientProperty
EXTRN	?WindowProc@CWnd@@MAEJIIJ@Z:PROC		; CWnd::WindowProc
EXTRN	?OnWndMsg@CWnd@@MAEHIIJPAJ@Z:PROC		; CWnd::OnWndMsg
EXTRN	?Default@CWnd@@IAEJXZ:PROC			; CWnd::Default
EXTRN	?DefWindowProcA@CWnd@@MAEJIIJ@Z:PROC		; CWnd::DefWindowProcA
EXTRN	?PostNcDestroy@CWnd@@MAEXXZ:PROC		; CWnd::PostNcDestroy
EXTRN	?OnChildNotify@CWnd@@MAEHIIJPAJ@Z:PROC		; CWnd::OnChildNotify
EXTRN	?OnTouchInputs@CWnd@@MAEHIPAUtagTOUCHINPUT@@@Z:PROC ; CWnd::OnTouchInputs
EXTRN	?OnTouchInput@CWnd@@MAEHVCPoint@@HHPAUtagTOUCHINPUT@@@Z:PROC ; CWnd::OnTouchInput
EXTRN	?GetGestureStatus@CWnd@@MAEKVCPoint@@@Z:PROC	; CWnd::GetGestureStatus
EXTRN	?OnGestureZoom@CWnd@@MAEHVCPoint@@J@Z:PROC	; CWnd::OnGestureZoom
EXTRN	?OnGesturePan@CWnd@@MAEHVCPoint@@0@Z:PROC	; CWnd::OnGesturePan
EXTRN	?OnGestureRotate@CWnd@@MAEHVCPoint@@N@Z:PROC	; CWnd::OnGestureRotate
EXTRN	?OnGestureTwoFingerTap@CWnd@@MAEHVCPoint@@@Z:PROC ; CWnd::OnGestureTwoFingerTap
EXTRN	?OnGesturePressAndTap@CWnd@@MAEHVCPoint@@J@Z:PROC ; CWnd::OnGesturePressAndTap
EXTRN	?ResizeDynamicLayout@CWnd@@MAEXXZ:PROC		; CWnd::ResizeDynamicLayout
EXTRN	?CheckAutoCenter@CWnd@@UAEHXZ:PROC		; CWnd::CheckAutoCenter
EXTRN	?IsFrameWnd@CWnd@@UBEHXZ:PROC			; CWnd::IsFrameWnd
EXTRN	?OnFinalRelease@CWnd@@UAEXXZ:PROC		; CWnd::OnFinalRelease
EXTRN	?CreateControlContainer@CWnd@@MAEHPAPAVCOleControlContainer@@@Z:PROC ; CWnd::CreateControlContainer
EXTRN	?CreateControlSite@CWnd@@MAEHPAVCOleControlContainer@@PAPAVCOleControlSite@@IABU_GUID@@@Z:PROC ; CWnd::CreateControlSite
EXTRN	?SetOccDialogInfo@CWnd@@MAEHPAU_AFX_OCC_DIALOG_INFO@@@Z:PROC ; CWnd::SetOccDialogInfo
EXTRN	?GetOccDialogInfo@CWnd@@MAEPAU_AFX_OCC_DIALOG_INFO@@XZ:PROC ; CWnd::GetOccDialogInfo
EXTRN	?GetThisMessageMap@CWnd@@KGPBUAFX_MSGMAP@@XZ:PROC ; CWnd::GetThisMessageMap
EXTRN	?GetMessageMap@CWnd@@MBEPBUAFX_MSGMAP@@XZ:PROC	; CWnd::GetMessageMap
EXTRN	?GetRuntimeClass@CEdit@@UBEPAUCRuntimeClass@@XZ:PROC ; CEdit::GetRuntimeClass
EXTRN	?Create@CEdit@@QAEHKABUtagRECT@@PAVCWnd@@I@Z:PROC ; CEdit::Create
EXTRN	??1CEdit@@UAE@XZ:PROC				; CEdit::~CEdit
EXTRN	??_ECEdit@@UAEPAXI@Z:PROC			; CEdit::`vector deleting destructor'
EXTRN	??_ECInPlaceEdit@@UAEPAXI@Z:PROC		; CInPlaceEdit::`vector deleting destructor'
EXTRN	@__security_check_cookie@4:PROC
EXTRN	___CxxFrameHandler3:PROC
EXTRN	??_7type_info@@6B@:QWORD			; type_info::`vftable'
EXTRN	___security_cookie:DWORD
;	COMDAT ?bAlreadyEnding@?1??EndEdit@CInPlaceEdit@@QAEXXZ@4HA
_BSS	SEGMENT
?bAlreadyEnding@?1??EndEdit@CInPlaceEdit@@QAEXXZ@4HA DD 01H DUP (?) ; `CInPlaceEdit::EndEdit'::`2'::bAlreadyEnding
_BSS	ENDS
;	COMDAT ??_R1A@?0A@EA@CInPlaceEdit@@8
rdata$r	SEGMENT
??_R1A@?0A@EA@CInPlaceEdit@@8 DD FLAT:??_R0?AVCInPlaceEdit@@@8 ; CInPlaceEdit::`RTTI Base Class Descriptor at (0,-1,0,64)'
	DD	04H
	DD	00H
	DD	0ffffffffH
	DD	00H
	DD	040H
	DD	FLAT:??_R3CInPlaceEdit@@8
rdata$r	ENDS
;	COMDAT ??_R2CInPlaceEdit@@8
rdata$r	SEGMENT
??_R2CInPlaceEdit@@8 DD FLAT:??_R1A@?0A@EA@CInPlaceEdit@@8 ; CInPlaceEdit::`RTTI Base Class Array'
	DD	FLAT:??_R1A@?0A@EA@CEdit@@8
	DD	FLAT:??_R1A@?0A@EA@CWnd@@8
	DD	FLAT:??_R1A@?0A@EA@CCmdTarget@@8
	DD	FLAT:??_R1A@?0A@EA@CObject@@8
rdata$r	ENDS
;	COMDAT ??_R3CInPlaceEdit@@8
rdata$r	SEGMENT
??_R3CInPlaceEdit@@8 DD 00H				; CInPlaceEdit::`RTTI Class Hierarchy Descriptor'
	DD	00H
	DD	05H
	DD	FLAT:??_R2CInPlaceEdit@@8
rdata$r	ENDS
;	COMDAT ??_R0?AVCInPlaceEdit@@@8
data$rs	SEGMENT
??_R0?AVCInPlaceEdit@@@8 DD FLAT:??_7type_info@@6B@	; CInPlaceEdit `RTTI Type Descriptor'
	DD	00H
	DB	'.?AVCInPlaceEdit@@', 00H
data$rs	ENDS
;	COMDAT ??_R4CInPlaceEdit@@6B@
rdata$r	SEGMENT
??_R4CInPlaceEdit@@6B@ DD 00H				; CInPlaceEdit::`RTTI Complete Object Locator'
	DD	00H
	DD	00H
	DD	FLAT:??_R0?AVCInPlaceEdit@@@8
	DD	FLAT:??_R3CInPlaceEdit@@8
rdata$r	ENDS
;	COMDAT ??_C@_02KNHHEEKP@?5?5@
CONST	SEGMENT
??_C@_02KNHHEEKP@?5?5@ DB '  ', 00H			; `string'
CONST	ENDS
;	COMDAT ?messageMap@?1??GetThisMessageMap@CInPlaceEdit@@KGPBUAFX_MSGMAP@@XZ@4U3@B
CONST	SEGMENT
?messageMap@?1??GetThisMessageMap@CInPlaceEdit@@KGPBUAFX_MSGMAP@@XZ@4U3@B DD FLAT:?GetThisMessageMap@CWnd@@KGPBUAFX_MSGMAP@@XZ ; `CInPlaceEdit::GetThisMessageMap'::`2'::messageMap
	DD	FLAT:?_messageEntries@?1??GetThisMessageMap@CInPlaceEdit@@KGPBUAFX_MSGMAP@@XZ@4QBUAFX_MSGMAP_ENTRY@@B
CONST	ENDS
;	COMDAT ?_messageEntries@?1??GetThisMessageMap@CInPlaceEdit@@KGPBUAFX_MSGMAP@@XZ@4QBUAFX_MSGMAP_ENTRY@@B
CONST	SEGMENT
?_messageEntries@?1??GetThisMessageMap@CInPlaceEdit@@KGPBUAFX_MSGMAP@@XZ@4QBUAFX_MSGMAP_ENTRY@@B DD 08H ; `CInPlaceEdit::GetThisMessageMap'::`2'::_messageEntries
	DD	00H
	DD	00H
	DD	00H
	DD	024H
	DD	FLAT:?OnKillFocus@CInPlaceEdit@@IAEXPAVCWnd@@@Z
	DD	0102H
	DD	00H
	DD	00H
	DD	00H
	DD	019H
	DD	FLAT:?OnChar@CInPlaceEdit@@IAEXIII@Z
	DD	0100H
	DD	00H
	DD	00H
	DD	00H
	DD	019H
	DD	FLAT:?OnKeyDown@CInPlaceEdit@@IAEXIII@Z
	DD	087H
	DD	00H
	DD	00H
	DD	00H
	DD	032H
	DD	FLAT:?OnGetDlgCode@CInPlaceEdit@@IAEIXZ
	DD	01H
	DD	00H
	DD	00H
	DD	00H
	DD	0dH
	DD	FLAT:?OnCreate@CWnd@@IAEHPAUtagCREATESTRUCTA@@@Z
	DD	00H
	DD	00H
	DD	00H
	DD	00H
	DD	00H
	DD	00H
CONST	ENDS
;	COMDAT ??_7CInPlaceEdit@@6B@
CONST	SEGMENT
??_7CInPlaceEdit@@6B@ DD FLAT:??_R4CInPlaceEdit@@6B@	; CInPlaceEdit::`vftable'
	DD	FLAT:?GetRuntimeClass@CEdit@@UBEPAUCRuntimeClass@@XZ
	DD	FLAT:??_ECInPlaceEdit@@UAEPAXI@Z
	DD	FLAT:?Serialize@CObject@@UAEXAAVCArchive@@@Z
	DD	FLAT:?AssertValid@CObject@@UBEXXZ
	DD	FLAT:?Dump@CObject@@UBEXAAVCDumpContext@@@Z
	DD	FLAT:?OnCmdMsg@CCmdTarget@@UAEHIHPAXPAUAFX_CMDHANDLERINFO@@@Z
	DD	FLAT:?OnFinalRelease@CWnd@@UAEXXZ
	DD	FLAT:?IsInvokeAllowed@CCmdTarget@@UAEHJ@Z
	DD	FLAT:?GetDispatchIID@CCmdTarget@@UAEHPAU_GUID@@@Z
	DD	FLAT:?GetTypeInfoCount@CCmdTarget@@UAEIXZ
	DD	FLAT:?GetTypeLibCache@CCmdTarget@@UAEPAVCTypeLibCache@@XZ
	DD	FLAT:?GetTypeLib@CCmdTarget@@UAEJKPAPAUITypeLib@@@Z
	DD	FLAT:?GetMessageMap@CInPlaceEdit@@MBEPBUAFX_MSGMAP@@XZ
	DD	FLAT:?GetCommandMap@CCmdTarget@@MBEPBUAFX_OLECMDMAP@@XZ
	DD	FLAT:?GetDispatchMap@CCmdTarget@@MBEPBUAFX_DISPMAP@@XZ
	DD	FLAT:?GetConnectionMap@CCmdTarget@@MBEPBUAFX_CONNECTIONMAP@@XZ
	DD	FLAT:?GetInterfaceMap@CWnd@@MBEPBUAFX_INTERFACEMAP@@XZ
	DD	FLAT:?GetEventSinkMap@CCmdTarget@@MBEPBUAFX_EVENTSINKMAP@@XZ
	DD	FLAT:?OnCreateAggregates@CCmdTarget@@UAEHXZ
	DD	FLAT:?GetInterfaceHook@CCmdTarget@@UAEPAUIUnknown@@PBX@Z
	DD	FLAT:?GetExtraConnectionPoints@CCmdTarget@@MAEHPAVCPtrArray@@@Z
	DD	FLAT:?GetConnectionHook@CCmdTarget@@MAEPAUIConnectionPoint@@ABU_GUID@@@Z
	DD	FLAT:?PreSubclassWindow@CWnd@@UAEXXZ
	DD	FLAT:?Create@CWnd@@UAEHPBD0KABUtagRECT@@PAV1@IPAUCCreateContext@@@Z
	DD	FLAT:?CreateEx@CWnd@@UAEHKPBD0KABUtagRECT@@PAV1@IPAX@Z
	DD	FLAT:?CreateEx@CWnd@@UAEHKPBD0KHHHHPAUHWND__@@PAUHMENU__@@PAX@Z
	DD	FLAT:?DestroyWindow@CWnd@@UAEHXZ
	DD	FLAT:?PreCreateWindow@CWnd@@UAEHAAUtagCREATESTRUCTA@@@Z
	DD	FLAT:?CalcWindowRect@CWnd@@UAEXPAUtagRECT@@I@Z
	DD	FLAT:?GetMenu@CWnd@@UBEPAVCMenu@@XZ
	DD	FLAT:?SetMenu@CWnd@@UAEHPAVCMenu@@@Z
	DD	FLAT:?OnToolHitTest@CWnd@@UBEHVCPoint@@PAUtagTOOLINFOA@@@Z
	DD	FLAT:?GetScrollBarCtrl@CWnd@@UBEPAVCScrollBar@@H@Z
	DD	FLAT:?WinHelpA@CWnd@@UAEXKI@Z
	DD	FLAT:?HtmlHelpA@CWnd@@UAEXKI@Z
	DD	FLAT:?WinHelpInternal@CWnd@@UAEXKI@Z
	DD	FLAT:?ContinueModal@CWnd@@UAEHXZ
	DD	FLAT:?EndModalLoop@CWnd@@UAEXH@Z
	DD	FLAT:?OnDrawIconicThumbnailOrLivePreview@CWnd@@UAEXAAVCDC@@VCRect@@VCSize@@HAAH@Z
	DD	FLAT:?EnsureStdObj@CWnd@@UAEJXZ
	DD	FLAT:?get_accParent@CWnd@@UAEJPAPAUIDispatch@@@Z
	DD	FLAT:?get_accChildCount@CWnd@@UAEJPAJ@Z
	DD	FLAT:?get_accChild@CWnd@@UAEJUtagVARIANT@@PAPAUIDispatch@@@Z
	DD	FLAT:?get_accName@CWnd@@UAEJUtagVARIANT@@PAPA_W@Z
	DD	FLAT:?get_accValue@CWnd@@UAEJUtagVARIANT@@PAPA_W@Z
	DD	FLAT:?get_accDescription@CWnd@@UAEJUtagVARIANT@@PAPA_W@Z
	DD	FLAT:?get_accRole@CWnd@@UAEJUtagVARIANT@@PAU2@@Z
	DD	FLAT:?get_accState@CWnd@@UAEJUtagVARIANT@@PAU2@@Z
	DD	FLAT:?get_accHelp@CWnd@@UAEJUtagVARIANT@@PAPA_W@Z
	DD	FLAT:?get_accHelpTopic@CWnd@@UAEJPAPA_WUtagVARIANT@@PAJ@Z
	DD	FLAT:?get_accKeyboardShortcut@CWnd@@UAEJUtagVARIANT@@PAPA_W@Z
	DD	FLAT:?get_accFocus@CWnd@@UAEJPAUtagVARIANT@@@Z
	DD	FLAT:?get_accSelection@CWnd@@UAEJPAUtagVARIANT@@@Z
	DD	FLAT:?get_accDefaultAction@CWnd@@UAEJUtagVARIANT@@PAPA_W@Z
	DD	FLAT:?accSelect@CWnd@@UAEJJUtagVARIANT@@@Z
	DD	FLAT:?accLocation@CWnd@@UAEJPAJ000UtagVARIANT@@@Z
	DD	FLAT:?accNavigate@CWnd@@UAEJJUtagVARIANT@@PAU2@@Z
	DD	FLAT:?accHitTest@CWnd@@UAEJJJPAUtagVARIANT@@@Z
	DD	FLAT:?accDoDefaultAction@CWnd@@UAEJUtagVARIANT@@@Z
	DD	FLAT:?put_accName@CWnd@@UAEJUtagVARIANT@@PA_W@Z
	DD	FLAT:?put_accValue@CWnd@@UAEJUtagVARIANT@@PA_W@Z
	DD	FLAT:?SetProxy@CWnd@@UAEJPAUIAccessibleProxy@@@Z
	DD	FLAT:?CreateAccessibleProxy@CWnd@@UAEJIJPAJ@Z
	DD	FLAT:?OnCommand@CWnd@@MAEHIJ@Z
	DD	FLAT:?OnNotify@CWnd@@MAEHIJPAJ@Z
	DD	FLAT:?GetSuperWndProcAddr@CWnd@@MAEPAP6GJPAUHWND__@@IIJ@ZXZ
	DD	FLAT:?DoDataExchange@CWnd@@MAEXPAVCDataExchange@@@Z
	DD	FLAT:?BeginModalState@CWnd@@UAEXXZ
	DD	FLAT:?EndModalState@CWnd@@UAEXXZ
	DD	FLAT:?PreTranslateMessage@CInPlaceEdit@@UAEHPAUtagMSG@@@Z
	DD	FLAT:?OnAmbientProperty@CWnd@@UAEHPAVCOleControlSite@@JPAUtagVARIANT@@@Z
	DD	FLAT:?WindowProc@CWnd@@MAEJIIJ@Z
	DD	FLAT:?OnWndMsg@CWnd@@MAEHIIJPAJ@Z
	DD	FLAT:?DefWindowProcA@CWnd@@MAEJIIJ@Z
	DD	FLAT:?PostNcDestroy@CInPlaceEdit@@MAEXXZ
	DD	FLAT:?OnChildNotify@CWnd@@MAEHIIJPAJ@Z
	DD	FLAT:?OnTouchInputs@CWnd@@MAEHIPAUtagTOUCHINPUT@@@Z
	DD	FLAT:?OnTouchInput@CWnd@@MAEHVCPoint@@HHPAUtagTOUCHINPUT@@@Z
	DD	FLAT:?GetGestureStatus@CWnd@@MAEKVCPoint@@@Z
	DD	FLAT:?OnGestureZoom@CWnd@@MAEHVCPoint@@J@Z
	DD	FLAT:?OnGesturePan@CWnd@@MAEHVCPoint@@0@Z
	DD	FLAT:?OnGestureRotate@CWnd@@MAEHVCPoint@@N@Z
	DD	FLAT:?OnGestureTwoFingerTap@CWnd@@MAEHVCPoint@@@Z
	DD	FLAT:?OnGesturePressAndTap@CWnd@@MAEHVCPoint@@J@Z
	DD	FLAT:?ResizeDynamicLayout@CWnd@@MAEXXZ
	DD	FLAT:?CheckAutoCenter@CWnd@@UAEHXZ
	DD	FLAT:?IsFrameWnd@CWnd@@UBEHXZ
	DD	FLAT:?CreateControlContainer@CWnd@@MAEHPAPAVCOleControlContainer@@@Z
	DD	FLAT:?CreateControlSite@CWnd@@MAEHPAVCOleControlContainer@@PAPAVCOleControlSite@@IABU_GUID@@@Z
	DD	FLAT:?SetOccDialogInfo@CWnd@@MAEHPAU_AFX_OCC_DIALOG_INFO@@@Z
	DD	FLAT:?GetOccDialogInfo@CWnd@@MAEPAU_AFX_OCC_DIALOG_INFO@@XZ
CONST	ENDS
;	COMDAT ??_R1A@?0A@EA@CEdit@@8
rdata$r	SEGMENT
??_R1A@?0A@EA@CEdit@@8 DD FLAT:??_R0?AVCEdit@@@8	; CEdit::`RTTI Base Class Descriptor at (0,-1,0,64)'
	DD	03H
	DD	00H
	DD	0ffffffffH
	DD	00H
	DD	040H
	DD	FLAT:??_R3CEdit@@8
rdata$r	ENDS
;	COMDAT ??_R2CEdit@@8
rdata$r	SEGMENT
??_R2CEdit@@8 DD FLAT:??_R1A@?0A@EA@CEdit@@8		; CEdit::`RTTI Base Class Array'
	DD	FLAT:??_R1A@?0A@EA@CWnd@@8
	DD	FLAT:??_R1A@?0A@EA@CCmdTarget@@8
	DD	FLAT:??_R1A@?0A@EA@CObject@@8
rdata$r	ENDS
;	COMDAT ??_R3CEdit@@8
rdata$r	SEGMENT
??_R3CEdit@@8 DD 00H					; CEdit::`RTTI Class Hierarchy Descriptor'
	DD	00H
	DD	04H
	DD	FLAT:??_R2CEdit@@8
rdata$r	ENDS
;	COMDAT ??_R0?AVCEdit@@@8
data$rs	SEGMENT
??_R0?AVCEdit@@@8 DD FLAT:??_7type_info@@6B@		; CEdit `RTTI Type Descriptor'
	DD	00H
	DB	'.?AVCEdit@@', 00H
data$rs	ENDS
;	COMDAT ??_R4CEdit@@6B@
rdata$r	SEGMENT
??_R4CEdit@@6B@ DD 00H					; CEdit::`RTTI Complete Object Locator'
	DD	00H
	DD	00H
	DD	FLAT:??_R0?AVCEdit@@@8
	DD	FLAT:??_R3CEdit@@8
rdata$r	ENDS
;	COMDAT ??_R2CCmdTarget@@8
rdata$r	SEGMENT
??_R2CCmdTarget@@8 DD FLAT:??_R1A@?0A@EA@CCmdTarget@@8	; CCmdTarget::`RTTI Base Class Array'
	DD	FLAT:??_R1A@?0A@EA@CObject@@8
rdata$r	ENDS
;	COMDAT ??_R3CCmdTarget@@8
rdata$r	SEGMENT
??_R3CCmdTarget@@8 DD 00H				; CCmdTarget::`RTTI Class Hierarchy Descriptor'
	DD	00H
	DD	02H
	DD	FLAT:??_R2CCmdTarget@@8
rdata$r	ENDS
;	COMDAT ??_R0?AVCCmdTarget@@@8
data$rs	SEGMENT
??_R0?AVCCmdTarget@@@8 DD FLAT:??_7type_info@@6B@	; CCmdTarget `RTTI Type Descriptor'
	DD	00H
	DB	'.?AVCCmdTarget@@', 00H
data$rs	ENDS
;	COMDAT ??_R1A@?0A@EA@CCmdTarget@@8
rdata$r	SEGMENT
??_R1A@?0A@EA@CCmdTarget@@8 DD FLAT:??_R0?AVCCmdTarget@@@8 ; CCmdTarget::`RTTI Base Class Descriptor at (0,-1,0,64)'
	DD	01H
	DD	00H
	DD	0ffffffffH
	DD	00H
	DD	040H
	DD	FLAT:??_R3CCmdTarget@@8
rdata$r	ENDS
;	COMDAT ??_R2CWnd@@8
rdata$r	SEGMENT
??_R2CWnd@@8 DD	FLAT:??_R1A@?0A@EA@CWnd@@8		; CWnd::`RTTI Base Class Array'
	DD	FLAT:??_R1A@?0A@EA@CCmdTarget@@8
	DD	FLAT:??_R1A@?0A@EA@CObject@@8
rdata$r	ENDS
;	COMDAT ??_R3CWnd@@8
rdata$r	SEGMENT
??_R3CWnd@@8 DD	00H					; CWnd::`RTTI Class Hierarchy Descriptor'
	DD	00H
	DD	03H
	DD	FLAT:??_R2CWnd@@8
rdata$r	ENDS
;	COMDAT ??_R0?AVCWnd@@@8
data$rs	SEGMENT
??_R0?AVCWnd@@@8 DD FLAT:??_7type_info@@6B@		; CWnd `RTTI Type Descriptor'
	DD	00H
	DB	'.?AVCWnd@@', 00H
data$rs	ENDS
;	COMDAT ??_R1A@?0A@EA@CWnd@@8
rdata$r	SEGMENT
??_R1A@?0A@EA@CWnd@@8 DD FLAT:??_R0?AVCWnd@@@8		; CWnd::`RTTI Base Class Descriptor at (0,-1,0,64)'
	DD	02H
	DD	00H
	DD	0ffffffffH
	DD	00H
	DD	040H
	DD	FLAT:??_R3CWnd@@8
rdata$r	ENDS
;	COMDAT ??_R1A@?0A@EA@CObject@@8
rdata$r	SEGMENT
??_R1A@?0A@EA@CObject@@8 DD FLAT:??_R0?AVCObject@@@8	; CObject::`RTTI Base Class Descriptor at (0,-1,0,64)'
	DD	00H
	DD	00H
	DD	0ffffffffH
	DD	00H
	DD	040H
	DD	FLAT:??_R3CObject@@8
rdata$r	ENDS
;	COMDAT ??_R2CObject@@8
rdata$r	SEGMENT
??_R2CObject@@8 DD FLAT:??_R1A@?0A@EA@CObject@@8	; CObject::`RTTI Base Class Array'
rdata$r	ENDS
;	COMDAT ??_R3CObject@@8
rdata$r	SEGMENT
??_R3CObject@@8 DD 00H					; CObject::`RTTI Class Hierarchy Descriptor'
	DD	00H
	DD	01H
	DD	FLAT:??_R2CObject@@8
rdata$r	ENDS
;	COMDAT ??_R0?AVCObject@@@8
data$rs	SEGMENT
??_R0?AVCObject@@@8 DD FLAT:??_7type_info@@6B@		; CObject `RTTI Type Descriptor'
	DD	00H
	DB	'.?AVCObject@@', 00H
data$rs	ENDS
;	COMDAT ??_7CEdit@@6B@
CONST	SEGMENT
??_7CEdit@@6B@ DD FLAT:??_R4CEdit@@6B@			; CEdit::`vftable'
	DD	FLAT:?GetRuntimeClass@CEdit@@UBEPAUCRuntimeClass@@XZ
	DD	FLAT:??_ECEdit@@UAEPAXI@Z
	DD	FLAT:?Serialize@CObject@@UAEXAAVCArchive@@@Z
	DD	FLAT:?AssertValid@CObject@@UBEXXZ
	DD	FLAT:?Dump@CObject@@UBEXAAVCDumpContext@@@Z
	DD	FLAT:?OnCmdMsg@CCmdTarget@@UAEHIHPAXPAUAFX_CMDHANDLERINFO@@@Z
	DD	FLAT:?OnFinalRelease@CWnd@@UAEXXZ
	DD	FLAT:?IsInvokeAllowed@CCmdTarget@@UAEHJ@Z
	DD	FLAT:?GetDispatchIID@CCmdTarget@@UAEHPAU_GUID@@@Z
	DD	FLAT:?GetTypeInfoCount@CCmdTarget@@UAEIXZ
	DD	FLAT:?GetTypeLibCache@CCmdTarget@@UAEPAVCTypeLibCache@@XZ
	DD	FLAT:?GetTypeLib@CCmdTarget@@UAEJKPAPAUITypeLib@@@Z
	DD	FLAT:?GetMessageMap@CWnd@@MBEPBUAFX_MSGMAP@@XZ
	DD	FLAT:?GetCommandMap@CCmdTarget@@MBEPBUAFX_OLECMDMAP@@XZ
	DD	FLAT:?GetDispatchMap@CCmdTarget@@MBEPBUAFX_DISPMAP@@XZ
	DD	FLAT:?GetConnectionMap@CCmdTarget@@MBEPBUAFX_CONNECTIONMAP@@XZ
	DD	FLAT:?GetInterfaceMap@CWnd@@MBEPBUAFX_INTERFACEMAP@@XZ
	DD	FLAT:?GetEventSinkMap@CCmdTarget@@MBEPBUAFX_EVENTSINKMAP@@XZ
	DD	FLAT:?OnCreateAggregates@CCmdTarget@@UAEHXZ
	DD	FLAT:?GetInterfaceHook@CCmdTarget@@UAEPAUIUnknown@@PBX@Z
	DD	FLAT:?GetExtraConnectionPoints@CCmdTarget@@MAEHPAVCPtrArray@@@Z
	DD	FLAT:?GetConnectionHook@CCmdTarget@@MAEPAUIConnectionPoint@@ABU_GUID@@@Z
	DD	FLAT:?PreSubclassWindow@CWnd@@UAEXXZ
	DD	FLAT:?Create@CWnd@@UAEHPBD0KABUtagRECT@@PAV1@IPAUCCreateContext@@@Z
	DD	FLAT:?CreateEx@CWnd@@UAEHKPBD0KABUtagRECT@@PAV1@IPAX@Z
	DD	FLAT:?CreateEx@CWnd@@UAEHKPBD0KHHHHPAUHWND__@@PAUHMENU__@@PAX@Z
	DD	FLAT:?DestroyWindow@CWnd@@UAEHXZ
	DD	FLAT:?PreCreateWindow@CWnd@@UAEHAAUtagCREATESTRUCTA@@@Z
	DD	FLAT:?CalcWindowRect@CWnd@@UAEXPAUtagRECT@@I@Z
	DD	FLAT:?GetMenu@CWnd@@UBEPAVCMenu@@XZ
	DD	FLAT:?SetMenu@CWnd@@UAEHPAVCMenu@@@Z
	DD	FLAT:?OnToolHitTest@CWnd@@UBEHVCPoint@@PAUtagTOOLINFOA@@@Z
	DD	FLAT:?GetScrollBarCtrl@CWnd@@UBEPAVCScrollBar@@H@Z
	DD	FLAT:?WinHelpA@CWnd@@UAEXKI@Z
	DD	FLAT:?HtmlHelpA@CWnd@@UAEXKI@Z
	DD	FLAT:?WinHelpInternal@CWnd@@UAEXKI@Z
	DD	FLAT:?ContinueModal@CWnd@@UAEHXZ
	DD	FLAT:?EndModalLoop@CWnd@@UAEXH@Z
	DD	FLAT:?OnDrawIconicThumbnailOrLivePreview@CWnd@@UAEXAAVCDC@@VCRect@@VCSize@@HAAH@Z
	DD	FLAT:?EnsureStdObj@CWnd@@UAEJXZ
	DD	FLAT:?get_accParent@CWnd@@UAEJPAPAUIDispatch@@@Z
	DD	FLAT:?get_accChildCount@CWnd@@UAEJPAJ@Z
	DD	FLAT:?get_accChild@CWnd@@UAEJUtagVARIANT@@PAPAUIDispatch@@@Z
	DD	FLAT:?get_accName@CWnd@@UAEJUtagVARIANT@@PAPA_W@Z
	DD	FLAT:?get_accValue@CWnd@@UAEJUtagVARIANT@@PAPA_W@Z
	DD	FLAT:?get_accDescription@CWnd@@UAEJUtagVARIANT@@PAPA_W@Z
	DD	FLAT:?get_accRole@CWnd@@UAEJUtagVARIANT@@PAU2@@Z
	DD	FLAT:?get_accState@CWnd@@UAEJUtagVARIANT@@PAU2@@Z
	DD	FLAT:?get_accHelp@CWnd@@UAEJUtagVARIANT@@PAPA_W@Z
	DD	FLAT:?get_accHelpTopic@CWnd@@UAEJPAPA_WUtagVARIANT@@PAJ@Z
	DD	FLAT:?get_accKeyboardShortcut@CWnd@@UAEJUtagVARIANT@@PAPA_W@Z
	DD	FLAT:?get_accFocus@CWnd@@UAEJPAUtagVARIANT@@@Z
	DD	FLAT:?get_accSelection@CWnd@@UAEJPAUtagVARIANT@@@Z
	DD	FLAT:?get_accDefaultAction@CWnd@@UAEJUtagVARIANT@@PAPA_W@Z
	DD	FLAT:?accSelect@CWnd@@UAEJJUtagVARIANT@@@Z
	DD	FLAT:?accLocation@CWnd@@UAEJPAJ000UtagVARIANT@@@Z
	DD	FLAT:?accNavigate@CWnd@@UAEJJUtagVARIANT@@PAU2@@Z
	DD	FLAT:?accHitTest@CWnd@@UAEJJJPAUtagVARIANT@@@Z
	DD	FLAT:?accDoDefaultAction@CWnd@@UAEJUtagVARIANT@@@Z
	DD	FLAT:?put_accName@CWnd@@UAEJUtagVARIANT@@PA_W@Z
	DD	FLAT:?put_accValue@CWnd@@UAEJUtagVARIANT@@PA_W@Z
	DD	FLAT:?SetProxy@CWnd@@UAEJPAUIAccessibleProxy@@@Z
	DD	FLAT:?CreateAccessibleProxy@CWnd@@UAEJIJPAJ@Z
	DD	FLAT:?OnCommand@CWnd@@MAEHIJ@Z
	DD	FLAT:?OnNotify@CWnd@@MAEHIJPAJ@Z
	DD	FLAT:?GetSuperWndProcAddr@CWnd@@MAEPAP6GJPAUHWND__@@IIJ@ZXZ
	DD	FLAT:?DoDataExchange@CWnd@@MAEXPAVCDataExchange@@@Z
	DD	FLAT:?BeginModalState@CWnd@@UAEXXZ
	DD	FLAT:?EndModalState@CWnd@@UAEXXZ
	DD	FLAT:?PreTranslateMessage@CWnd@@UAEHPAUtagMSG@@@Z
	DD	FLAT:?OnAmbientProperty@CWnd@@UAEHPAVCOleControlSite@@JPAUtagVARIANT@@@Z
	DD	FLAT:?WindowProc@CWnd@@MAEJIIJ@Z
	DD	FLAT:?OnWndMsg@CWnd@@MAEHIIJPAJ@Z
	DD	FLAT:?DefWindowProcA@CWnd@@MAEJIIJ@Z
	DD	FLAT:?PostNcDestroy@CWnd@@MAEXXZ
	DD	FLAT:?OnChildNotify@CWnd@@MAEHIIJPAJ@Z
	DD	FLAT:?OnTouchInputs@CWnd@@MAEHIPAUtagTOUCHINPUT@@@Z
	DD	FLAT:?OnTouchInput@CWnd@@MAEHVCPoint@@HHPAUtagTOUCHINPUT@@@Z
	DD	FLAT:?GetGestureStatus@CWnd@@MAEKVCPoint@@@Z
	DD	FLAT:?OnGestureZoom@CWnd@@MAEHVCPoint@@J@Z
	DD	FLAT:?OnGesturePan@CWnd@@MAEHVCPoint@@0@Z
	DD	FLAT:?OnGestureRotate@CWnd@@MAEHVCPoint@@N@Z
	DD	FLAT:?OnGestureTwoFingerTap@CWnd@@MAEHVCPoint@@@Z
	DD	FLAT:?OnGesturePressAndTap@CWnd@@MAEHVCPoint@@J@Z
	DD	FLAT:?ResizeDynamicLayout@CWnd@@MAEXXZ
	DD	FLAT:?CheckAutoCenter@CWnd@@UAEHXZ
	DD	FLAT:?IsFrameWnd@CWnd@@UBEHXZ
	DD	FLAT:?CreateControlContainer@CWnd@@MAEHPAPAVCOleControlContainer@@@Z
	DD	FLAT:?CreateControlSite@CWnd@@MAEHPAVCOleControlContainer@@PAPAVCOleControlSite@@IABU_GUID@@@Z
	DD	FLAT:?SetOccDialogInfo@CWnd@@MAEHPAU_AFX_OCC_DIALOG_INFO@@@Z
	DD	FLAT:?GetOccDialogInfo@CWnd@@MAEPAU_AFX_OCC_DIALOG_INFO@@XZ
CONST	ENDS
;	COMDAT xdata$x
xdata$x	SEGMENT
__unwindtable$?OnChar@CInPlaceEdit@@IAEXIII@Z DD 0ffffffffH
	DD	FLAT:__unwindfunclet$?OnChar@CInPlaceEdit@@IAEXIII@Z$0
	DD	00H
	DD	FLAT:__unwindfunclet$?OnChar@CInPlaceEdit@@IAEXIII@Z$1
__ehfuncinfo$?OnChar@CInPlaceEdit@@IAEXIII@Z DD 019930522H
	DD	02H
	DD	FLAT:__unwindtable$?OnChar@CInPlaceEdit@@IAEXIII@Z
	DD	2 DUP(00H)
	DD	2 DUP(00H)
	DD	00H
	DD	01H
xdata$x	ENDS
;	COMDAT xdata$x
xdata$x	SEGMENT
__unwindtable$?OnKillFocus@CInPlaceEdit@@IAEXPAVCWnd@@@Z DD 0ffffffffH
	DD	FLAT:__unwindfunclet$?OnKillFocus@CInPlaceEdit@@IAEXPAVCWnd@@@Z$0
	DD	00H
	DD	FLAT:__unwindfunclet$?OnKillFocus@CInPlaceEdit@@IAEXPAVCWnd@@@Z$1
__ehfuncinfo$?OnKillFocus@CInPlaceEdit@@IAEXPAVCWnd@@@Z DD 019930522H
	DD	02H
	DD	FLAT:__unwindtable$?OnKillFocus@CInPlaceEdit@@IAEXPAVCWnd@@@Z
	DD	2 DUP(00H)
	DD	2 DUP(00H)
	DD	00H
	DD	01H
xdata$x	ENDS
;	COMDAT xdata$x
xdata$x	SEGMENT
__unwindtable$?EndEdit@CInPlaceEdit@@QAEXXZ DD 0ffffffffH
	DD	FLAT:__unwindfunclet$?EndEdit@CInPlaceEdit@@QAEXXZ$0
	DD	00H
	DD	FLAT:__unwindfunclet$?EndEdit@CInPlaceEdit@@QAEXXZ$1
__ehfuncinfo$?EndEdit@CInPlaceEdit@@QAEXXZ DD 019930522H
	DD	02H
	DD	FLAT:__unwindtable$?EndEdit@CInPlaceEdit@@QAEXXZ
	DD	2 DUP(00H)
	DD	2 DUP(00H)
	DD	00H
	DD	01H
xdata$x	ENDS
;	COMDAT xdata$x
xdata$x	SEGMENT
__unwindtable$??0CInPlaceEdit@@QAE@PAVCWnd@@AAVCRect@@KIHHV?$CStringT@DV?$StrTraitMFC_DLL@DV?$ChTraitsCRT@D@ATL@@@@@ATL@@I@Z DD 0ffffffffH
	DD	FLAT:__unwindfunclet$??0CInPlaceEdit@@QAE@PAVCWnd@@AAVCRect@@KIHHV?$CStringT@DV?$StrTraitMFC_DLL@DV?$ChTraitsCRT@D@ATL@@@@@ATL@@I@Z$0
	DD	00H
	DD	FLAT:__unwindfunclet$??0CInPlaceEdit@@QAE@PAVCWnd@@AAVCRect@@KIHHV?$CStringT@DV?$StrTraitMFC_DLL@DV?$ChTraitsCRT@D@ATL@@@@@ATL@@I@Z$1
	DD	01H
	DD	FLAT:__unwindfunclet$??0CInPlaceEdit@@QAE@PAVCWnd@@AAVCRect@@KIHHV?$CStringT@DV?$StrTraitMFC_DLL@DV?$ChTraitsCRT@D@ATL@@@@@ATL@@I@Z$2
__ehfuncinfo$??0CInPlaceEdit@@QAE@PAVCWnd@@AAVCRect@@KIHHV?$CStringT@DV?$StrTraitMFC_DLL@DV?$ChTraitsCRT@D@ATL@@@@@ATL@@I@Z DD 019930522H
	DD	03H
	DD	FLAT:__unwindtable$??0CInPlaceEdit@@QAE@PAVCWnd@@AAVCRect@@KIHHV?$CStringT@DV?$StrTraitMFC_DLL@DV?$ChTraitsCRT@D@ATL@@@@@ATL@@I@Z
	DD	2 DUP(00H)
	DD	2 DUP(00H)
	DD	00H
	DD	01H
xdata$x	ENDS
; Function compile flags: /Ogtp
;	COMDAT ??1tagGV_DISPINFO@@QAE@XZ
_TEXT	SEGMENT
??1tagGV_DISPINFO@@QAE@XZ PROC				; tagGV_DISPINFO::~tagGV_DISPINFO, COMDAT
; _this$ = ecx
  00000	83 c1 70	 add	 ecx, 112		; 00000070H
  00003	ff 25 00 00 00
	00		 jmp	 DWORD PTR __imp_??1?$CStringT@DV?$StrTraitMFC_DLL@DV?$ChTraitsCRT@D@ATL@@@@@ATL@@QAE@XZ
??1tagGV_DISPINFO@@QAE@XZ ENDP				; tagGV_DISPINFO::~tagGV_DISPINFO
_TEXT	ENDS
; Function compile flags: /Ogtp
; File D:\git\src\IBK\IBK_DRFN\ProjSrc\SrcDrfn\Chart\HWSTRATEGYCONFIGUREWIZARD\GridCtrl_src\InPlaceEdit.cpp
; File C:\Program Files (x86)\Microsoft Visual Studio\2019\Community\VC\Tools\MSVC\14.29.30133\atlmfc\include\afx.inl
;	COMDAT ??_GCInPlaceEdit@@UAEPAXI@Z
_TEXT	SEGMENT
___flags$ = 8						; size = 4
??_GCInPlaceEdit@@UAEPAXI@Z PROC			; CInPlaceEdit::`scalar deleting destructor', COMDAT
; _this$ = ecx
  00000	55		 push	 ebp
  00001	8b ec		 mov	 ebp, esp
; File D:\git\src\IBK\IBK_DRFN\ProjSrc\SrcDrfn\Chart\HWSTRATEGYCONFIGUREWIZARD\GridCtrl_src\InPlaceEdit.cpp

; 109  : {

  00003	56		 push	 esi
  00004	8b f1		 mov	 esi, ecx

; 110  : }

  00006	8d 8e 88 00 00
	00		 lea	 ecx, DWORD PTR [esi+136]
  0000c	c7 06 00 00 00
	00		 mov	 DWORD PTR [esi], OFFSET ??_7CInPlaceEdit@@6B@
  00012	ff 15 00 00 00
	00		 call	 DWORD PTR __imp_??1?$CStringT@DV?$StrTraitMFC_DLL@DV?$ChTraitsCRT@D@ATL@@@@@ATL@@QAE@XZ
  00018	8b ce		 mov	 ecx, esi
  0001a	e8 00 00 00 00	 call	 ??1CEdit@@UAE@XZ	; CEdit::~CEdit
  0001f	8b 45 08	 mov	 eax, DWORD PTR ___flags$[ebp]
  00022	a8 01		 test	 al, 1
  00024	74 22		 je	 SHORT $LN12@scalar
  00026	a8 04		 test	 al, 4
  00028	75 10		 jne	 SHORT $LN3@scalar
; File C:\Program Files (x86)\Microsoft Visual Studio\2019\Community\VC\Tools\MSVC\14.29.30133\atlmfc\include\afx.inl

; 112  : 	{ ::operator delete(p); }

  0002a	56		 push	 esi
  0002b	e8 00 00 00 00	 call	 ??3@YAXPAX@Z		; operator delete
  00030	83 c4 04	 add	 esp, 4
  00033	8b c6		 mov	 eax, esi
  00035	5e		 pop	 esi
  00036	5d		 pop	 ebp
  00037	c2 04 00	 ret	 4
$LN3@scalar:
  0003a	68 a8 00 00 00	 push	 168			; 000000a8H
  0003f	56		 push	 esi
  00040	e8 00 00 00 00	 call	 ?__global_delete@@YAXPAXI@Z ; __global_delete
  00045	83 c4 08	 add	 esp, 8
$LN12@scalar:
  00048	8b c6		 mov	 eax, esi
  0004a	5e		 pop	 esi
  0004b	5d		 pop	 ebp
  0004c	c2 04 00	 ret	 4
??_GCInPlaceEdit@@UAEPAXI@Z ENDP			; CInPlaceEdit::`scalar deleting destructor'
_TEXT	ENDS
; Function compile flags: /Ogtp
; File D:\git\src\IBK\IBK_DRFN\ProjSrc\SrcDrfn\Chart\HWSTRATEGYCONFIGUREWIZARD\GridCtrl_src\InPlaceEdit.cpp
;	COMDAT ?GetMessageMap@CInPlaceEdit@@MBEPBUAFX_MSGMAP@@XZ
_TEXT	SEGMENT
?GetMessageMap@CInPlaceEdit@@MBEPBUAFX_MSGMAP@@XZ PROC	; CInPlaceEdit::GetMessageMap, COMDAT
; _this$ = ecx

; 112  : BEGIN_MESSAGE_MAP(CInPlaceEdit, CEdit)

  00000	b8 00 00 00 00	 mov	 eax, OFFSET ?messageMap@?1??GetThisMessageMap@CInPlaceEdit@@KGPBUAFX_MSGMAP@@XZ@4U3@B
  00005	c3		 ret	 0
?GetMessageMap@CInPlaceEdit@@MBEPBUAFX_MSGMAP@@XZ ENDP	; CInPlaceEdit::GetMessageMap
_TEXT	ENDS
; Function compile flags: /Ogtp
; File D:\git\src\IBK\IBK_DRFN\ProjSrc\SrcDrfn\Chart\HWSTRATEGYCONFIGUREWIZARD\GridCtrl_src\InPlaceEdit.cpp
;	COMDAT ?GetThisMessageMap@CInPlaceEdit@@KGPBUAFX_MSGMAP@@XZ
_TEXT	SEGMENT
?GetThisMessageMap@CInPlaceEdit@@KGPBUAFX_MSGMAP@@XZ PROC ; CInPlaceEdit::GetThisMessageMap, COMDAT

; 113  :     //{{AFX_MSG_MAP(CInPlaceEdit)
; 114  :     ON_WM_KILLFOCUS()
; 115  :     ON_WM_CHAR()
; 116  :     ON_WM_KEYDOWN()
; 117  :     ON_WM_GETDLGCODE()
; 118  :     ON_WM_CREATE()
; 119  :     //}}AFX_MSG_MAP
; 120  : END_MESSAGE_MAP()

  00000	b8 00 00 00 00	 mov	 eax, OFFSET ?messageMap@?1??GetThisMessageMap@CInPlaceEdit@@KGPBUAFX_MSGMAP@@XZ@4U3@B
  00005	c3		 ret	 0
?GetThisMessageMap@CInPlaceEdit@@KGPBUAFX_MSGMAP@@XZ ENDP ; CInPlaceEdit::GetThisMessageMap
_TEXT	ENDS
; Function compile flags: /Ogtp
; File D:\git\src\IBK\IBK_DRFN\ProjSrc\SrcDrfn\Chart\HWSTRATEGYCONFIGUREWIZARD\GridCtrl_src\InPlaceEdit.cpp
;	COMDAT ?OnGetDlgCode@CInPlaceEdit@@IAEIXZ
_TEXT	SEGMENT
?OnGetDlgCode@CInPlaceEdit@@IAEIXZ PROC			; CInPlaceEdit::OnGetDlgCode, COMDAT
; _this$ = ecx

; 200  :     return DLGC_WANTALLKEYS;

  00000	b8 04 00 00 00	 mov	 eax, 4

; 201  : }

  00005	c3		 ret	 0
?OnGetDlgCode@CInPlaceEdit@@IAEIXZ ENDP			; CInPlaceEdit::OnGetDlgCode
_TEXT	ENDS
; Function compile flags: /Ogtp
; File D:\git\src\IBK\IBK_DRFN\ProjSrc\SrcDrfn\Chart\HWSTRATEGYCONFIGUREWIZARD\GridCtrl_src\InPlaceEdit.cpp
; File C:\Program Files (x86)\Microsoft Visual Studio\2019\Community\VC\Tools\MSVC\14.29.30133\atlmfc\include\afxwin2.inl
; File D:\git\src\IBK\IBK_DRFN\ProjSrc\SrcDrfn\Chart\HWSTRATEGYCONFIGUREWIZARD\GridCtrl_src\InPlaceEdit.cpp
; File C:\Program Files (x86)\Microsoft Visual Studio\2019\Community\VC\Tools\MSVC\14.29.30133\atlmfc\include\afxwin2.inl
; File D:\git\src\IBK\IBK_DRFN\ProjSrc\SrcDrfn\Chart\HWSTRATEGYCONFIGUREWIZARD\GridCtrl_src\InPlaceEdit.cpp
; File C:\Program Files (x86)\Microsoft Visual Studio\2019\Community\VC\Tools\MSVC\14.29.30133\atlmfc\include\afxwin2.inl
; File D:\git\src\IBK\IBK_DRFN\ProjSrc\SrcDrfn\Chart\HWSTRATEGYCONFIGUREWIZARD\GridCtrl_src\InPlaceEdit.cpp
;	COMDAT ?OnKeyDown@CInPlaceEdit@@IAEXIII@Z
_TEXT	SEGMENT
_nChar$ = 8						; size = 4
_nRepCnt$ = 12						; size = 4
_nFlags$ = 16						; size = 4
?OnKeyDown@CInPlaceEdit@@IAEXIII@Z PROC			; CInPlaceEdit::OnKeyDown, COMDAT
; _this$ = ecx

; 129  : {

  00000	55		 push	 ebp
  00001	8b ec		 mov	 ebp, esp
  00003	56		 push	 esi

; 130  :     if ((nChar == VK_PRIOR || nChar == VK_NEXT ||
; 131  :         nChar == VK_DOWN  || nChar == VK_UP   ||
; 132  :         nChar == VK_RIGHT || nChar == VK_LEFT) &&

  00004	8b 75 08	 mov	 esi, DWORD PTR _nChar$[ebp]
  00007	57		 push	 edi
  00008	8b f9		 mov	 edi, ecx
  0000a	83 fe 21	 cmp	 esi, 33			; 00000021H
  0000d	74 19		 je	 SHORT $LN3@OnKeyDown
  0000f	83 fe 22	 cmp	 esi, 34			; 00000022H
  00012	74 14		 je	 SHORT $LN3@OnKeyDown
  00014	83 fe 28	 cmp	 esi, 40			; 00000028H
  00017	74 0f		 je	 SHORT $LN3@OnKeyDown
  00019	83 fe 26	 cmp	 esi, 38			; 00000026H
  0001c	74 0a		 je	 SHORT $LN3@OnKeyDown
  0001e	83 fe 27	 cmp	 esi, 39			; 00000027H
  00021	74 05		 je	 SHORT $LN3@OnKeyDown
  00023	83 fe 25	 cmp	 esi, 37			; 00000025H
  00026	75 16		 jne	 SHORT $LN2@OnKeyDown
$LN3@OnKeyDown:
  00028	83 bf 90 00 00
	00 00		 cmp	 DWORD PTR [edi+144], 0
  0002f	75 1a		 jne	 SHORT $LN4@OnKeyDown
  00031	6a 11		 push	 17			; 00000011H
  00033	ff 15 00 00 00
	00		 call	 DWORD PTR __imp__GetKeyState@4
  00039	66 85 c0	 test	 ax, ax
  0003c	78 0d		 js	 SHORT $LN4@OnKeyDown
$LN2@OnKeyDown:
; File C:\Program Files (x86)\Microsoft Visual Studio\2019\Community\VC\Tools\MSVC\14.29.30133\atlmfc\include\afxwin2.inl

; 424  : 	{ Default(); }

  0003e	8b cf		 mov	 ecx, edi
  00040	e8 00 00 00 00	 call	 ?Default@CWnd@@IAEJXZ	; CWnd::Default
  00045	5f		 pop	 edi
; File D:\git\src\IBK\IBK_DRFN\ProjSrc\SrcDrfn\Chart\HWSTRATEGYCONFIGUREWIZARD\GridCtrl_src\InPlaceEdit.cpp

; 141  : }

  00046	5e		 pop	 esi
  00047	5d		 pop	 ebp
  00048	c2 0c 00	 ret	 12			; 0000000cH
$LN4@OnKeyDown:
; File C:\Program Files (x86)\Microsoft Visual Studio\2019\Community\VC\Tools\MSVC\14.29.30133\atlmfc\include\afxwin2.inl

; 213  : 	{ ASSERT(::IsWindow(m_hWnd)); return CWnd::FromHandle(::GetParent(m_hWnd)); }

  0004b	ff 77 20	 push	 DWORD PTR [edi+32]
; File D:\git\src\IBK\IBK_DRFN\ProjSrc\SrcDrfn\Chart\HWSTRATEGYCONFIGUREWIZARD\GridCtrl_src\InPlaceEdit.cpp

; 135  :         m_nLastChar = nChar;

  0004e	89 b7 8c 00 00
	00		 mov	 DWORD PTR [edi+140], esi
; File C:\Program Files (x86)\Microsoft Visual Studio\2019\Community\VC\Tools\MSVC\14.29.30133\atlmfc\include\afxwin2.inl

; 213  : 	{ ASSERT(::IsWindow(m_hWnd)); return CWnd::FromHandle(::GetParent(m_hWnd)); }

  00054	ff 15 00 00 00
	00		 call	 DWORD PTR __imp__GetParent@4
  0005a	50		 push	 eax
  0005b	e8 00 00 00 00	 call	 ?FromHandle@CWnd@@SGPAV1@PAUHWND__@@@Z ; CWnd::FromHandle
; File D:\git\src\IBK\IBK_DRFN\ProjSrc\SrcDrfn\Chart\HWSTRATEGYCONFIGUREWIZARD\GridCtrl_src\InPlaceEdit.cpp

; 136  :         GetParent()->SetFocus();

  00060	8b c8		 mov	 ecx, eax
  00062	e8 00 00 00 00	 call	 ?SetFocus@CWnd@@QAEPAV1@XZ ; CWnd::SetFocus
  00067	5f		 pop	 edi

; 141  : }

  00068	5e		 pop	 esi
  00069	5d		 pop	 ebp
  0006a	c2 0c 00	 ret	 12			; 0000000cH
?OnKeyDown@CInPlaceEdit@@IAEXIII@Z ENDP			; CInPlaceEdit::OnKeyDown
_TEXT	ENDS
; Function compile flags: /Ogtp
; File D:\git\src\IBK\IBK_DRFN\ProjSrc\SrcDrfn\Chart\HWSTRATEGYCONFIGUREWIZARD\GridCtrl_src\InPlaceEdit.cpp
; File C:\Program Files (x86)\Microsoft Visual Studio\2019\Community\VC\Tools\MSVC\14.29.30133\atlmfc\include\afxwin2.inl
; File D:\git\src\IBK\IBK_DRFN\ProjSrc\SrcDrfn\Chart\HWSTRATEGYCONFIGUREWIZARD\GridCtrl_src\InPlaceEdit.cpp
; File C:\Program Files (x86)\Microsoft Visual Studio\2019\Community\VC\Tools\MSVC\14.29.30133\atlmfc\include\afxwin2.inl
; File D:\git\src\IBK\IBK_DRFN\ProjSrc\SrcDrfn\Chart\HWSTRATEGYCONFIGUREWIZARD\GridCtrl_src\InPlaceEdit.cpp
; File C:\Program Files (x86)\Microsoft Visual Studio\2019\Community\VC\Tools\MSVC\14.29.30133\atlmfc\include\afxwin2.inl
; File C:\Program Files (x86)\Microsoft Visual Studio\2019\Community\VC\Tools\MSVC\14.29.30133\atlmfc\include\afxwin1.inl
; File D:\git\src\IBK\IBK_DRFN\ProjSrc\SrcDrfn\Chart\HWSTRATEGYCONFIGUREWIZARD\GridCtrl_src\InPlaceEdit.cpp
; File C:\Program Files (x86)\Microsoft Visual Studio\2019\Community\VC\Tools\MSVC\14.29.30133\atlmfc\include\afxwin1.inl
; File D:\git\src\IBK\IBK_DRFN\ProjSrc\SrcDrfn\Chart\HWSTRATEGYCONFIGUREWIZARD\GridCtrl_src\InPlaceEdit.cpp
; File C:\Program Files (x86)\Microsoft Visual Studio\2019\Community\VC\Tools\MSVC\14.29.30133\atlmfc\include\afxwin1.inl
; File D:\git\src\IBK\IBK_DRFN\ProjSrc\SrcDrfn\Chart\HWSTRATEGYCONFIGUREWIZARD\GridCtrl_src\InPlaceEdit.cpp
; File C:\Program Files (x86)\Microsoft Visual Studio\2019\Community\VC\Tools\MSVC\14.29.30133\atlmfc\include\afxwin2.inl
; File C:\Program Files (x86)\Microsoft Visual Studio\2019\Community\VC\Tools\MSVC\14.29.30133\atlmfc\include\atltypes.h
; File C:\Program Files (x86)\Microsoft Visual Studio\2019\Community\VC\Tools\MSVC\14.29.30133\atlmfc\include\afxwin2.inl
; File C:\Program Files (x86)\Microsoft Visual Studio\2019\Community\VC\Tools\MSVC\14.29.30133\atlmfc\include\atltypes.h
; File D:\git\src\IBK\IBK_DRFN\ProjSrc\SrcDrfn\Chart\HWSTRATEGYCONFIGUREWIZARD\GridCtrl_src\InPlaceEdit.cpp
; File C:\Program Files (x86)\Microsoft Visual Studio\2019\Community\VC\Tools\MSVC\14.29.30133\atlmfc\include\afxwin2.inl
; File D:\git\src\IBK\IBK_DRFN\ProjSrc\SrcDrfn\Chart\HWSTRATEGYCONFIGUREWIZARD\GridCtrl_src\InPlaceEdit.cpp
;	COMDAT ?OnChar@CInPlaceEdit@@IAEXIII@Z
_TEXT	SEGMENT
_dc$ = -64						; size = 20
_size$2 = -44						; size = 8
_str$ = -36						; size = 4
_ParentRect$ = -32					; size = 16
__$ArrayPad$ = -16					; size = 4
__$EHRec$ = -12						; size = 12
_nChar$ = 8						; size = 4
_nRepCnt$ = 12						; size = 4
_nFlags$ = 16						; size = 4
?OnChar@CInPlaceEdit@@IAEXIII@Z PROC			; CInPlaceEdit::OnChar, COMDAT
; _this$ = ecx

; 151  : {

  00000	55		 push	 ebp
  00001	8b ec		 mov	 ebp, esp
  00003	6a ff		 push	 -1
  00005	68 00 00 00 00	 push	 __ehhandler$?OnChar@CInPlaceEdit@@IAEXIII@Z
  0000a	64 a1 00 00 00
	00		 mov	 eax, DWORD PTR fs:0
  00010	50		 push	 eax
  00011	83 ec 34	 sub	 esp, 52			; 00000034H
  00014	a1 00 00 00 00	 mov	 eax, DWORD PTR ___security_cookie
  00019	33 c5		 xor	 eax, ebp
  0001b	89 45 f0	 mov	 DWORD PTR __$ArrayPad$[ebp], eax
  0001e	56		 push	 esi
  0001f	57		 push	 edi
  00020	50		 push	 eax
  00021	8d 45 f4	 lea	 eax, DWORD PTR __$EHRec$[ebp]
  00024	64 a3 00 00 00
	00		 mov	 DWORD PTR fs:0, eax
  0002a	8b f9		 mov	 edi, ecx

; 152  :     if (nChar == VK_TAB || nChar == VK_RETURN)

  0002c	8b 45 08	 mov	 eax, DWORD PTR _nChar$[ebp]
  0002f	83 f8 09	 cmp	 eax, 9
  00032	0f 84 21 01 00
	00		 je	 $LN3@OnChar
  00038	83 f8 0d	 cmp	 eax, 13			; 0000000dH
  0003b	0f 84 18 01 00
	00		 je	 $LN3@OnChar

; 155  :         GetParent()->SetFocus();    // This will destroy this window
; 156  :         return;
; 157  :     }
; 158  :     if (nChar == VK_ESCAPE) 

  00041	83 f8 1b	 cmp	 eax, 27			; 0000001bH
  00044	75 1a		 jne	 SHORT $LN4@OnChar

; 159  :     {
; 160  :         SetWindowText(m_sInitText);    // restore previous text

  00046	ff b7 88 00 00
	00		 push	 DWORD PTR [edi+136]
  0004c	e8 00 00 00 00	 call	 ?SetWindowTextA@CWnd@@QAEXPBD@Z ; CWnd::SetWindowTextA

; 161  :         m_nLastChar = nChar;

  00051	c7 87 8c 00 00
	00 1b 00 00 00	 mov	 DWORD PTR [edi+140], 27	; 0000001bH

; 162  :         GetParent()->SetFocus();
; 163  :         return;

  0005b	e9 ff 00 00 00	 jmp	 $LN44@OnChar
$LN4@OnChar:
; File C:\Program Files (x86)\Microsoft Visual Studio\2019\Community\VC\Tools\MSVC\14.29.30133\atlmfc\include\afxwin2.inl

; 418  : 	{ Default(); }

  00060	e8 00 00 00 00	 call	 ?Default@CWnd@@IAEJXZ	; CWnd::Default
; File D:\git\src\IBK\IBK_DRFN\ProjSrc\SrcDrfn\Chart\HWSTRATEGYCONFIGUREWIZARD\GridCtrl_src\InPlaceEdit.cpp

; 171  :     CString str;

  00065	8d 4d dc	 lea	 ecx, DWORD PTR _str$[ebp]
  00068	ff 15 00 00 00
	00		 call	 DWORD PTR __imp_??0?$CStringT@DV?$StrTraitMFC_DLL@DV?$ChTraitsCRT@D@ATL@@@@@ATL@@QAE@XZ

; 172  :     GetWindowText( str );

  0006e	8d 45 dc	 lea	 eax, DWORD PTR _str$[ebp]
  00071	c7 45 fc 00 00
	00 00		 mov	 DWORD PTR __$EHRec$[ebp+8], 0
  00078	50		 push	 eax
  00079	8b cf		 mov	 ecx, edi
  0007b	e8 00 00 00 00	 call	 ?GetWindowTextA@CWnd@@QBEXAAV?$CStringT@DV?$StrTraitMFC_DLL@DV?$ChTraitsCRT@D@ATL@@@@@ATL@@@Z ; CWnd::GetWindowTextA

; 173  : 
; 174  :     // add some extra buffer
; 175  :     str += _T("  ");

  00080	68 00 00 00 00	 push	 OFFSET ??_C@_02KNHHEEKP@?5?5@
  00085	8d 4d dc	 lea	 ecx, DWORD PTR _str$[ebp]
  00088	ff 15 00 00 00
	00		 call	 DWORD PTR __imp_??Y?$CStringT@DV?$StrTraitMFC_DLL@DV?$ChTraitsCRT@D@ATL@@@@@ATL@@QAEAAV01@PBD@Z

; 177  :     CWindowDC dc(this);

  0008e	57		 push	 edi
  0008f	8d 4d c0	 lea	 ecx, DWORD PTR _dc$[ebp]
  00092	e8 00 00 00 00	 call	 ??0CWindowDC@@QAE@PAVCWnd@@@Z ; CWindowDC::CWindowDC
; File C:\Program Files (x86)\Microsoft Visual Studio\2019\Community\VC\Tools\MSVC\14.29.30133\atlmfc\include\afxwin2.inl

; 45   : 	{ ASSERT(::IsWindow(m_hWnd)); return CFont::FromHandle(

  00097	6a 00		 push	 0
  00099	6a 00		 push	 0
  0009b	6a 31		 push	 49			; 00000031H
  0009d	ff 77 20	 push	 DWORD PTR [edi+32]
; File D:\git\src\IBK\IBK_DRFN\ProjSrc\SrcDrfn\Chart\HWSTRATEGYCONFIGUREWIZARD\GridCtrl_src\InPlaceEdit.cpp

; 177  :     CWindowDC dc(this);

  000a0	c6 45 fc 01	 mov	 BYTE PTR __$EHRec$[ebp+8], 1
; File C:\Program Files (x86)\Microsoft Visual Studio\2019\Community\VC\Tools\MSVC\14.29.30133\atlmfc\include\afxwin2.inl

; 45   : 	{ ASSERT(::IsWindow(m_hWnd)); return CFont::FromHandle(

  000a4	ff 15 00 00 00
	00		 call	 DWORD PTR __imp__SendMessageA@16
; File C:\Program Files (x86)\Microsoft Visual Studio\2019\Community\VC\Tools\MSVC\14.29.30133\atlmfc\include\afxwin1.inl

; 151  : 	{ return (CFont*) CGdiObject::FromHandle(hFont); }

  000aa	50		 push	 eax
  000ab	e8 00 00 00 00	 call	 ?FromHandle@CGdiObject@@SGPAV1@PAX@Z ; CGdiObject::FromHandle
; File D:\git\src\IBK\IBK_DRFN\ProjSrc\SrcDrfn\Chart\HWSTRATEGYCONFIGUREWIZARD\GridCtrl_src\InPlaceEdit.cpp

; 178  :     CFont *pFontDC = dc.SelectObject(GetFont());

  000b0	50		 push	 eax
  000b1	8d 4d c0	 lea	 ecx, DWORD PTR _dc$[ebp]
  000b4	e8 00 00 00 00	 call	 ?SelectObject@CDC@@UAEPAVCFont@@PAV2@@Z ; CDC::SelectObject
; File C:\Program Files (x86)\Microsoft Visual Studio\2019\Community\VC\Tools\MSVC\14.29.30133\atlmfc\include\afxwin1.inl

; 639  : 		VERIFY(::GetTextExtentPoint32(m_hAttribDC, str, (int)str.GetLength(), &size));

  000b9	8b 4d dc	 mov	 ecx, DWORD PTR _str$[ebp]
; File D:\git\src\IBK\IBK_DRFN\ProjSrc\SrcDrfn\Chart\HWSTRATEGYCONFIGUREWIZARD\GridCtrl_src\InPlaceEdit.cpp

; 178  :     CFont *pFontDC = dc.SelectObject(GetFont());

  000bc	8b f0		 mov	 esi, eax
; File C:\Program Files (x86)\Microsoft Visual Studio\2019\Community\VC\Tools\MSVC\14.29.30133\atlmfc\include\afxwin1.inl

; 639  : 		VERIFY(::GetTextExtentPoint32(m_hAttribDC, str, (int)str.GetLength(), &size));

  000be	8d 45 d4	 lea	 eax, DWORD PTR _size$2[ebp]
  000c1	50		 push	 eax
  000c2	ff 71 f4	 push	 DWORD PTR [ecx-12]
  000c5	51		 push	 ecx
  000c6	ff 75 c8	 push	 DWORD PTR _dc$[ebp+8]
  000c9	ff 15 00 00 00
	00		 call	 DWORD PTR __imp__GetTextExtentPoint32A@16
; File D:\git\src\IBK\IBK_DRFN\ProjSrc\SrcDrfn\Chart\HWSTRATEGYCONFIGUREWIZARD\GridCtrl_src\InPlaceEdit.cpp

; 180  :     dc.SelectObject( pFontDC );

  000cf	56		 push	 esi
  000d0	8d 4d c0	 lea	 ecx, DWORD PTR _dc$[ebp]
  000d3	e8 00 00 00 00	 call	 ?SelectObject@CDC@@UAEPAVCFont@@PAV2@@Z ; CDC::SelectObject
; File C:\Program Files (x86)\Microsoft Visual Studio\2019\Community\VC\Tools\MSVC\14.29.30133\atlmfc\include\afxwin2.inl

; 213  : 	{ ASSERT(::IsWindow(m_hWnd)); return CWnd::FromHandle(::GetParent(m_hWnd)); }

  000d8	ff 77 20	 push	 DWORD PTR [edi+32]
  000db	0f 57 c0	 xorps	 xmm0, xmm0
; File C:\Program Files (x86)\Microsoft Visual Studio\2019\Community\VC\Tools\MSVC\14.29.30133\atlmfc\include\atltypes.h

; 528  : 	left = 0;

  000de	0f 11 45 e0	 movups	 XMMWORD PTR _ParentRect$[ebp], xmm0
; File C:\Program Files (x86)\Microsoft Visual Studio\2019\Community\VC\Tools\MSVC\14.29.30133\atlmfc\include\afxwin2.inl

; 213  : 	{ ASSERT(::IsWindow(m_hWnd)); return CWnd::FromHandle(::GetParent(m_hWnd)); }

  000e2	ff 15 00 00 00
	00		 call	 DWORD PTR __imp__GetParent@4
  000e8	50		 push	 eax
  000e9	e8 00 00 00 00	 call	 ?FromHandle@CWnd@@SGPAV1@PAUHWND__@@@Z ; CWnd::FromHandle

; 86   : 	{ ASSERT(::IsWindow(m_hWnd)); ::GetClientRect(m_hWnd, lpRect); }

  000ee	8d 4d e0	 lea	 ecx, DWORD PTR _ParentRect$[ebp]
  000f1	51		 push	 ecx
  000f2	ff 70 20	 push	 DWORD PTR [eax+32]
  000f5	ff 15 00 00 00
	00		 call	 DWORD PTR __imp__GetClientRect@8
; File C:\Program Files (x86)\Microsoft Visual Studio\2019\Community\VC\Tools\MSVC\14.29.30133\atlmfc\include\atltypes.h

; 576  : 	return right - left;

  000fb	8b 87 9c 00 00
	00		 mov	 eax, DWORD PTR [edi+156]
  00101	8b b7 94 00 00
	00		 mov	 esi, DWORD PTR [edi+148]
  00107	2b c6		 sub	 eax, esi
; File D:\git\src\IBK\IBK_DRFN\ProjSrc\SrcDrfn\Chart\HWSTRATEGYCONFIGUREWIZARD\GridCtrl_src\InPlaceEdit.cpp

; 188  :     if (size.cx > m_Rect.Width())

  00109	8b 4d d4	 mov	 ecx, DWORD PTR _size$2[ebp]
  0010c	3b c8		 cmp	 ecx, eax
  0010e	7e 36		 jle	 SHORT $LN5@OnChar

; 189  :     {
; 190  :         if( size.cx + m_Rect.left < ParentRect.right )

  00110	8b 45 e8	 mov	 eax, DWORD PTR _ParentRect$[ebp+8]
  00113	03 ce		 add	 ecx, esi
  00115	3b c8		 cmp	 ecx, eax
  00117	7d 08		 jge	 SHORT $LN6@OnChar

; 191  :             m_Rect.right = m_Rect.left + size.cx;

  00119	89 8f 9c 00 00
	00		 mov	 DWORD PTR [edi+156], ecx
  0011f	eb 08		 jmp	 SHORT $LN7@OnChar
$LN6@OnChar:

; 192  :         else
; 193  :             m_Rect.right = ParentRect.right;

  00121	89 87 9c 00 00
	00		 mov	 DWORD PTR [edi+156], eax
  00127	8b c8		 mov	 ecx, eax
$LN7@OnChar:
; File C:\Program Files (x86)\Microsoft Visual Studio\2019\Community\VC\Tools\MSVC\14.29.30133\atlmfc\include\afxwin2.inl

; 73   : 	{ MoveWindow(lpRect->left, lpRect->top, lpRect->right - lpRect->left,

  00129	8b 97 98 00 00
	00		 mov	 edx, DWORD PTR [edi+152]
  0012f	2b ce		 sub	 ecx, esi
  00131	8b 87 a0 00 00
	00		 mov	 eax, DWORD PTR [edi+160]
  00137	6a 01		 push	 1
  00139	2b c2		 sub	 eax, edx
  0013b	50		 push	 eax
  0013c	51		 push	 ecx
  0013d	52		 push	 edx
  0013e	56		 push	 esi
  0013f	8b cf		 mov	 ecx, edi
  00141	e8 00 00 00 00	 call	 ?MoveWindow@CWnd@@QAEXHHHHH@Z ; CWnd::MoveWindow
$LN5@OnChar:
; File D:\git\src\IBK\IBK_DRFN\ProjSrc\SrcDrfn\Chart\HWSTRATEGYCONFIGUREWIZARD\GridCtrl_src\InPlaceEdit.cpp

; 196  : }

  00146	8d 4d c0	 lea	 ecx, DWORD PTR _dc$[ebp]
  00149	e8 00 00 00 00	 call	 ??1CWindowDC@@UAE@XZ	; CWindowDC::~CWindowDC
  0014e	8d 4d dc	 lea	 ecx, DWORD PTR _str$[ebp]
  00151	ff 15 00 00 00
	00		 call	 DWORD PTR __imp_??1?$CStringT@DV?$StrTraitMFC_DLL@DV?$ChTraitsCRT@D@ATL@@@@@ATL@@QAE@XZ
  00157	eb 1c		 jmp	 SHORT $LN1@OnChar
$LN3@OnChar:

; 153  :     {
; 154  :         m_nLastChar = nChar;

  00159	89 87 8c 00 00
	00		 mov	 DWORD PTR [edi+140], eax
$LN44@OnChar:

; 196  : }

  0015f	ff 77 20	 push	 DWORD PTR [edi+32]
  00162	ff 15 00 00 00
	00		 call	 DWORD PTR __imp__GetParent@4
  00168	50		 push	 eax
  00169	e8 00 00 00 00	 call	 ?FromHandle@CWnd@@SGPAV1@PAUHWND__@@@Z ; CWnd::FromHandle
  0016e	8b c8		 mov	 ecx, eax
  00170	e8 00 00 00 00	 call	 ?SetFocus@CWnd@@QAEPAV1@XZ ; CWnd::SetFocus
$LN1@OnChar:
  00175	8b 4d f4	 mov	 ecx, DWORD PTR __$EHRec$[ebp]
  00178	64 89 0d 00 00
	00 00		 mov	 DWORD PTR fs:0, ecx
  0017f	59		 pop	 ecx
  00180	5f		 pop	 edi
  00181	5e		 pop	 esi
  00182	8b 4d f0	 mov	 ecx, DWORD PTR __$ArrayPad$[ebp]
  00185	33 cd		 xor	 ecx, ebp
  00187	e8 00 00 00 00	 call	 @__security_check_cookie@4
  0018c	8b e5		 mov	 esp, ebp
  0018e	5d		 pop	 ebp
  0018f	c2 0c 00	 ret	 12			; 0000000cH
_TEXT	ENDS
;	COMDAT text$x
text$x	SEGMENT
__unwindfunclet$?OnChar@CInPlaceEdit@@IAEXIII@Z$0:
  00000	8d 4d dc	 lea	 ecx, DWORD PTR _str$[ebp]
  00003	ff 25 00 00 00
	00		 jmp	 DWORD PTR __imp_??1?$CStringT@DV?$StrTraitMFC_DLL@DV?$ChTraitsCRT@D@ATL@@@@@ATL@@QAE@XZ
__unwindfunclet$?OnChar@CInPlaceEdit@@IAEXIII@Z$1:
  00009	8d 4d c0	 lea	 ecx, DWORD PTR _dc$[ebp]
  0000c	e9 00 00 00 00	 jmp	 ??1CWindowDC@@UAE@XZ	; CWindowDC::~CWindowDC
  00011	cc		 int	 3
  00012	cc		 int	 3
  00013	cc		 int	 3
  00014	cc		 int	 3
  00015	cc		 int	 3
__ehhandler$?OnChar@CInPlaceEdit@@IAEXIII@Z:
  00016	90		 npad	 1
  00017	90		 npad	 1
  00018	8b 54 24 08	 mov	 edx, DWORD PTR [esp+8]
  0001c	8d 42 0c	 lea	 eax, DWORD PTR [edx+12]
  0001f	8b 4a c0	 mov	 ecx, DWORD PTR [edx-64]
  00022	33 c8		 xor	 ecx, eax
  00024	e8 00 00 00 00	 call	 @__security_check_cookie@4
  00029	8b 4a fc	 mov	 ecx, DWORD PTR [edx-4]
  0002c	33 c8		 xor	 ecx, eax
  0002e	e8 00 00 00 00	 call	 @__security_check_cookie@4
  00033	b8 00 00 00 00	 mov	 eax, OFFSET __ehfuncinfo$?OnChar@CInPlaceEdit@@IAEXIII@Z
  00038	e9 00 00 00 00	 jmp	 ___CxxFrameHandler3
text$x	ENDS
?OnChar@CInPlaceEdit@@IAEXIII@Z ENDP			; CInPlaceEdit::OnChar
; Function compile flags: /Ogtp
; File D:\git\src\IBK\IBK_DRFN\ProjSrc\SrcDrfn\Chart\HWSTRATEGYCONFIGUREWIZARD\GridCtrl_src\InPlaceEdit.cpp
; File C:\Program Files (x86)\Microsoft Visual Studio\2019\Community\VC\Tools\MSVC\14.29.30133\atlmfc\include\afxwin2.inl
; File D:\git\src\IBK\IBK_DRFN\ProjSrc\SrcDrfn\Chart\HWSTRATEGYCONFIGUREWIZARD\GridCtrl_src\InPlaceEdit.cpp
; File C:\Program Files (x86)\Microsoft Visual Studio\2019\Community\VC\Tools\MSVC\14.29.30133\atlmfc\include\afxwin2.inl
; File D:\git\src\IBK\IBK_DRFN\ProjSrc\SrcDrfn\Chart\HWSTRATEGYCONFIGUREWIZARD\GridCtrl_src\InPlaceEdit.cpp
; File C:\Program Files (x86)\Microsoft Visual Studio\2019\Community\VC\Tools\MSVC\14.29.30133\atlmfc\include\afxwin2.inl
; File D:\git\src\IBK\IBK_DRFN\ProjSrc\SrcDrfn\Chart\HWSTRATEGYCONFIGUREWIZARD\GridCtrl_src\InPlaceEdit.cpp
; File C:\Program Files (x86)\Microsoft Visual Studio\2019\Community\VC\Tools\MSVC\14.29.30133\atlmfc\include\afxwin2.inl
; File D:\git\src\IBK\IBK_DRFN\ProjSrc\SrcDrfn\Chart\HWSTRATEGYCONFIGUREWIZARD\GridCtrl_src\InPlaceEdit.cpp
; File C:\Program Files (x86)\Microsoft Visual Studio\2019\Community\VC\Tools\MSVC\14.29.30133\atlmfc\include\afxwin2.inl
; File D:\git\src\IBK\IBK_DRFN\ProjSrc\SrcDrfn\Chart\HWSTRATEGYCONFIGUREWIZARD\GridCtrl_src\InPlaceEdit.cpp
;	COMDAT ?OnKillFocus@CInPlaceEdit@@IAEXPAVCWnd@@@Z
_TEXT	SEGMENT
_str$2 = -136						; size = 4
_dispinfo$3 = -132					; size = 116
__$ArrayPad$ = -16					; size = 4
__$EHRec$ = -12						; size = 12
_pNewWnd$ = 8						; size = 4
?OnKillFocus@CInPlaceEdit@@IAEXPAVCWnd@@@Z PROC		; CInPlaceEdit::OnKillFocus, COMDAT
; _this$ = ecx

; 145  : {

  00000	55		 push	 ebp
  00001	8b ec		 mov	 ebp, esp
  00003	6a ff		 push	 -1
  00005	68 00 00 00 00	 push	 __ehhandler$?OnKillFocus@CInPlaceEdit@@IAEXPAVCWnd@@@Z
  0000a	64 a1 00 00 00
	00		 mov	 eax, DWORD PTR fs:0
  00010	50		 push	 eax
  00011	83 ec 7c	 sub	 esp, 124		; 0000007cH
  00014	a1 00 00 00 00	 mov	 eax, DWORD PTR ___security_cookie
  00019	33 c5		 xor	 eax, ebp
  0001b	89 45 f0	 mov	 DWORD PTR __$ArrayPad$[ebp], eax
  0001e	53		 push	 ebx
  0001f	56		 push	 esi
  00020	50		 push	 eax
  00021	8d 45 f4	 lea	 eax, DWORD PTR __$EHRec$[ebp]
  00024	64 a3 00 00 00
	00		 mov	 DWORD PTR fs:0, eax
  0002a	8b f1		 mov	 esi, ecx
; File C:\Program Files (x86)\Microsoft Visual Studio\2019\Community\VC\Tools\MSVC\14.29.30133\atlmfc\include\afxwin2.inl

; 308  : 	{ Default(); }

  0002c	e8 00 00 00 00	 call	 ?Default@CWnd@@IAEJXZ	; CWnd::Default
; File D:\git\src\IBK\IBK_DRFN\ProjSrc\SrcDrfn\Chart\HWSTRATEGYCONFIGUREWIZARD\GridCtrl_src\InPlaceEdit.cpp

; 229  :     CString str;

  00031	8d 8d 78 ff ff
	ff		 lea	 ecx, DWORD PTR _str$2[ebp]
  00037	ff 15 00 00 00
	00		 call	 DWORD PTR __imp_??0?$CStringT@DV?$StrTraitMFC_DLL@DV?$ChTraitsCRT@D@ATL@@@@@ATL@@QAE@XZ

; 230  : 
; 231  :     // EFW - BUG FIX - Clicking on a grid scroll bar in a derived class
; 232  :     // that validates input can cause this to get called multiple times
; 233  :     // causing assertions because the edit control goes away the first time.
; 234  :     static BOOL bAlreadyEnding = FALSE;
; 235  : 
; 236  :     if(bAlreadyEnding)

  0003d	83 3d 00 00 00
	00 00		 cmp	 DWORD PTR ?bAlreadyEnding@?1??EndEdit@CInPlaceEdit@@QAEXXZ@4HA, 0
  00044	c7 45 fc 00 00
	00 00		 mov	 DWORD PTR __$EHRec$[ebp+8], 0
  0004b	0f 85 e2 00 00
	00		 jne	 $LN43@OnKillFocu

; 237  :         return;
; 238  : 
; 239  :     bAlreadyEnding = TRUE;
; 240  :     GetWindowText(str);

  00051	8d 85 78 ff ff
	ff		 lea	 eax, DWORD PTR _str$2[ebp]
  00057	c7 05 00 00 00
	00 01 00 00 00	 mov	 DWORD PTR ?bAlreadyEnding@?1??EndEdit@CInPlaceEdit@@QAEXXZ@4HA, 1
  00061	50		 push	 eax
  00062	8b ce		 mov	 ecx, esi
  00064	e8 00 00 00 00	 call	 ?GetWindowTextA@CWnd@@QBEXAAV?$CStringT@DV?$StrTraitMFC_DLL@DV?$ChTraitsCRT@D@ATL@@@@@ATL@@@Z ; CWnd::GetWindowTextA
  00069	8d 4d ec	 lea	 ecx, DWORD PTR _dispinfo$3[ebp+112]
  0006c	ff 15 00 00 00
	00		 call	 DWORD PTR __imp_??0?$CStringT@DV?$StrTraitMFC_DLL@DV?$ChTraitsCRT@D@ATL@@@@@ATL@@QAE@XZ

; 241  : 
; 242  :     // Send Notification to parent
; 243  :     GV_DISPINFO dispinfo;

  00072	c6 45 fc 01	 mov	 BYTE PTR __$EHRec$[ebp+8], 1
; File C:\Program Files (x86)\Microsoft Visual Studio\2019\Community\VC\Tools\MSVC\14.29.30133\atlmfc\include\afxwin2.inl

; 25   : 	{ return this == NULL ? NULL : m_hWnd; }

  00076	85 f6		 test	 esi, esi
  00078	75 08		 jne	 SHORT $LN20@OnKillFocu
  0007a	89 b5 7c ff ff
	ff		 mov	 DWORD PTR _dispinfo$3[ebp], esi
  00080	eb 09		 jmp	 SHORT $LN21@OnKillFocu
$LN20@OnKillFocu:
  00082	8b 46 20	 mov	 eax, DWORD PTR [esi+32]
  00085	89 85 7c ff ff
	ff		 mov	 DWORD PTR _dispinfo$3[ebp], eax
$LN21@OnKillFocu:
; File D:\git\src\IBK\IBK_DRFN\ProjSrc\SrcDrfn\Chart\HWSTRATEGYCONFIGUREWIZARD\GridCtrl_src\InPlaceEdit.cpp

; 246  :     dispinfo.hdr.idFrom   = GetDlgCtrlID();

  0008b	8b ce		 mov	 ecx, esi
  0008d	e8 00 00 00 00	 call	 ?GetDlgCtrlID@CWnd@@QBEHXZ ; CWnd::GetDlgCtrlID
  00092	89 45 80	 mov	 DWORD PTR _dispinfo$3[ebp+4], eax

; 247  :     dispinfo.hdr.code     = GVN_ENDLABELEDIT;
; 248  : 
; 249  :     dispinfo.item.mask    = LVIF_TEXT|LVIF_PARAM;
; 250  :     dispinfo.item.row     = m_nRow;
; 251  :     dispinfo.item.col     = m_nColumn;
; 252  :     dispinfo.item.strText  = str;

  00095	8d 4d ec	 lea	 ecx, DWORD PTR _dispinfo$3[ebp+112]
  00098	8b 86 80 00 00
	00		 mov	 eax, DWORD PTR [esi+128]
  0009e	89 45 88	 mov	 DWORD PTR _dispinfo$3[ebp+12], eax
  000a1	8b 86 84 00 00
	00		 mov	 eax, DWORD PTR [esi+132]
  000a7	89 45 8c	 mov	 DWORD PTR _dispinfo$3[ebp+16], eax
  000aa	8d 85 78 ff ff
	ff		 lea	 eax, DWORD PTR _str$2[ebp]
  000b0	50		 push	 eax
  000b1	c7 45 84 96 ff
	ff ff		 mov	 DWORD PTR _dispinfo$3[ebp+8], -106 ; ffffff96H
  000b8	c7 45 90 05 00
	00 00		 mov	 DWORD PTR _dispinfo$3[ebp+20], 5
  000bf	ff 15 00 00 00
	00		 call	 DWORD PTR __imp_??4?$CStringT@DV?$StrTraitMFC_DLL@DV?$ChTraitsCRT@D@ATL@@@@@ATL@@QAEAAV01@ABV01@@Z

; 253  :     dispinfo.item.lParam  = (LPARAM) m_nLastChar;

  000c5	8b 86 8c 00 00
	00		 mov	 eax, DWORD PTR [esi+140]
  000cb	89 45 a8	 mov	 DWORD PTR _dispinfo$3[ebp+44], eax
; File C:\Program Files (x86)\Microsoft Visual Studio\2019\Community\VC\Tools\MSVC\14.29.30133\atlmfc\include\afxwin2.inl

; 27   : 	{ return m_hWndOwner != NULL ? CWnd::FromHandle(m_hWndOwner) : GetParent(); }

  000ce	8b 46 5c	 mov	 eax, DWORD PTR [esi+92]
  000d1	85 c0		 test	 eax, eax
  000d3	75 09		 jne	 SHORT $LN25@OnKillFocu

; 213  : 	{ ASSERT(::IsWindow(m_hWnd)); return CWnd::FromHandle(::GetParent(m_hWnd)); }

  000d5	ff 76 20	 push	 DWORD PTR [esi+32]
  000d8	ff 15 00 00 00
	00		 call	 DWORD PTR __imp__GetParent@4
$LN25@OnKillFocu:
; File D:\git\src\IBK\IBK_DRFN\ProjSrc\SrcDrfn\Chart\HWSTRATEGYCONFIGUREWIZARD\GridCtrl_src\InPlaceEdit.cpp

; 256  :     if (pOwner)

  000de	50		 push	 eax
  000df	e8 00 00 00 00	 call	 ?FromHandle@CWnd@@SGPAV1@PAUHWND__@@@Z ; CWnd::FromHandle
  000e4	8b d8		 mov	 ebx, eax
  000e6	85 db		 test	 ebx, ebx
  000e8	74 1a		 je	 SHORT $LN7@OnKillFocu

; 257  :         pOwner->SendMessage(WM_NOTIFY, GetDlgCtrlID(), (LPARAM)&dispinfo );

  000ea	8b ce		 mov	 ecx, esi
  000ec	e8 00 00 00 00	 call	 ?GetDlgCtrlID@CWnd@@QBEHXZ ; CWnd::GetDlgCtrlID
; File C:\Program Files (x86)\Microsoft Visual Studio\2019\Community\VC\Tools\MSVC\14.29.30133\atlmfc\include\afxwin2.inl

; 32   : 	{ ASSERT(::IsWindow(m_hWnd)); return ::SendMessage(m_hWnd, message, wParam, lParam); }

  000f1	8d 8d 7c ff ff
	ff		 lea	 ecx, DWORD PTR _dispinfo$3[ebp]
  000f7	51		 push	 ecx
  000f8	50		 push	 eax
  000f9	6a 4e		 push	 78			; 0000004eH
  000fb	ff 73 20	 push	 DWORD PTR [ebx+32]
  000fe	ff 15 00 00 00
	00		 call	 DWORD PTR __imp__SendMessageA@16
$LN7@OnKillFocu:
; File D:\git\src\IBK\IBK_DRFN\ProjSrc\SrcDrfn\Chart\HWSTRATEGYCONFIGUREWIZARD\GridCtrl_src\InPlaceEdit.cpp

; 260  :     if (IsWindow(GetSafeHwnd()))

  00104	ff 76 20	 push	 DWORD PTR [esi+32]
  00107	ff 15 00 00 00
	00		 call	 DWORD PTR __imp__IsWindow@4
  0010d	85 c0		 test	 eax, eax
  0010f	74 0f		 je	 SHORT $LN8@OnKillFocu
; File C:\Program Files (x86)\Microsoft Visual Studio\2019\Community\VC\Tools\MSVC\14.29.30133\atlmfc\include\afxwin2.inl

; 32   : 	{ ASSERT(::IsWindow(m_hWnd)); return ::SendMessage(m_hWnd, message, wParam, lParam); }

  00111	6a 00		 push	 0
  00113	6a 00		 push	 0
  00115	6a 10		 push	 16			; 00000010H
  00117	ff 76 20	 push	 DWORD PTR [esi+32]
  0011a	ff 15 00 00 00
	00		 call	 DWORD PTR __imp__SendMessageA@16
$LN8@OnKillFocu:
  00120	8d 4d ec	 lea	 ecx, DWORD PTR _dispinfo$3[ebp+112]
; File D:\git\src\IBK\IBK_DRFN\ProjSrc\SrcDrfn\Chart\HWSTRATEGYCONFIGUREWIZARD\GridCtrl_src\InPlaceEdit.cpp

; 262  :     bAlreadyEnding = FALSE;

  00123	c7 05 00 00 00
	00 00 00 00 00	 mov	 DWORD PTR ?bAlreadyEnding@?1??EndEdit@CInPlaceEdit@@QAEXXZ@4HA, 0
  0012d	ff 15 00 00 00
	00		 call	 DWORD PTR __imp_??1?$CStringT@DV?$StrTraitMFC_DLL@DV?$ChTraitsCRT@D@ATL@@@@@ATL@@QAE@XZ
$LN43@OnKillFocu:

; 146  :     CEdit::OnKillFocus(pNewWnd);
; 147  :     EndEdit();
; 148  : }

  00133	8d 8d 78 ff ff
	ff		 lea	 ecx, DWORD PTR _str$2[ebp]
  00139	ff 15 00 00 00
	00		 call	 DWORD PTR __imp_??1?$CStringT@DV?$StrTraitMFC_DLL@DV?$ChTraitsCRT@D@ATL@@@@@ATL@@QAE@XZ
  0013f	8b 4d f4	 mov	 ecx, DWORD PTR __$EHRec$[ebp]
  00142	64 89 0d 00 00
	00 00		 mov	 DWORD PTR fs:0, ecx
  00149	59		 pop	 ecx
  0014a	5e		 pop	 esi
  0014b	5b		 pop	 ebx
  0014c	8b 4d f0	 mov	 ecx, DWORD PTR __$ArrayPad$[ebp]
  0014f	33 cd		 xor	 ecx, ebp
  00151	e8 00 00 00 00	 call	 @__security_check_cookie@4
  00156	8b e5		 mov	 esp, ebp
  00158	5d		 pop	 ebp
  00159	c2 04 00	 ret	 4
_TEXT	ENDS
;	COMDAT text$x
text$x	SEGMENT
__unwindfunclet$?OnKillFocus@CInPlaceEdit@@IAEXPAVCWnd@@@Z$0:
  00000	8d 8d 78 ff ff
	ff		 lea	 ecx, DWORD PTR _str$2[ebp]
  00006	ff 25 00 00 00
	00		 jmp	 DWORD PTR __imp_??1?$CStringT@DV?$StrTraitMFC_DLL@DV?$ChTraitsCRT@D@ATL@@@@@ATL@@QAE@XZ
__unwindfunclet$?OnKillFocus@CInPlaceEdit@@IAEXPAVCWnd@@@Z$1:
  0000c	8d 8d 7c ff ff
	ff		 lea	 ecx, DWORD PTR _dispinfo$3[ebp]
  00012	e9 00 00 00 00	 jmp	 ??1tagGV_DISPINFO@@QAE@XZ
  00017	cc		 int	 3
  00018	cc		 int	 3
  00019	cc		 int	 3
  0001a	cc		 int	 3
  0001b	cc		 int	 3
__ehhandler$?OnKillFocus@CInPlaceEdit@@IAEXPAVCWnd@@@Z:
  0001c	90		 npad	 1
  0001d	90		 npad	 1
  0001e	8b 54 24 08	 mov	 edx, DWORD PTR [esp+8]
  00022	8d 42 0c	 lea	 eax, DWORD PTR [edx+12]
  00025	8b 8a 78 ff ff
	ff		 mov	 ecx, DWORD PTR [edx-136]
  0002b	33 c8		 xor	 ecx, eax
  0002d	e8 00 00 00 00	 call	 @__security_check_cookie@4
  00032	8b 4a fc	 mov	 ecx, DWORD PTR [edx-4]
  00035	33 c8		 xor	 ecx, eax
  00037	e8 00 00 00 00	 call	 @__security_check_cookie@4
  0003c	b8 00 00 00 00	 mov	 eax, OFFSET __ehfuncinfo$?OnKillFocus@CInPlaceEdit@@IAEXPAVCWnd@@@Z
  00041	e9 00 00 00 00	 jmp	 ___CxxFrameHandler3
text$x	ENDS
?OnKillFocus@CInPlaceEdit@@IAEXPAVCWnd@@@Z ENDP		; CInPlaceEdit::OnKillFocus
; Function compile flags: /Ogtp
; File D:\git\src\IBK\IBK_DRFN\ProjSrc\SrcDrfn\Chart\HWSTRATEGYCONFIGUREWIZARD\GridCtrl_src\InPlaceEdit.cpp
;	COMDAT ??1CInPlaceEdit@@UAE@XZ
_TEXT	SEGMENT
??1CInPlaceEdit@@UAE@XZ PROC				; CInPlaceEdit::~CInPlaceEdit, COMDAT
; _this$ = ecx

; 109  : {

  00000	56		 push	 esi
  00001	8b f1		 mov	 esi, ecx

; 110  : }

  00003	8d 8e 88 00 00
	00		 lea	 ecx, DWORD PTR [esi+136]
  00009	c7 06 00 00 00
	00		 mov	 DWORD PTR [esi], OFFSET ??_7CInPlaceEdit@@6B@
  0000f	ff 15 00 00 00
	00		 call	 DWORD PTR __imp_??1?$CStringT@DV?$StrTraitMFC_DLL@DV?$ChTraitsCRT@D@ATL@@@@@ATL@@QAE@XZ
  00015	8b ce		 mov	 ecx, esi
  00017	5e		 pop	 esi
  00018	e9 00 00 00 00	 jmp	 ??1CEdit@@UAE@XZ	; CEdit::~CEdit
??1CInPlaceEdit@@UAE@XZ ENDP				; CInPlaceEdit::~CInPlaceEdit
_TEXT	ENDS
; Function compile flags: /Ogtp
; File D:\git\src\IBK\IBK_DRFN\ProjSrc\SrcDrfn\Chart\HWSTRATEGYCONFIGUREWIZARD\GridCtrl_src\InPlaceEdit.cpp
;	COMDAT ?PostNcDestroy@CInPlaceEdit@@MAEXXZ
_TEXT	SEGMENT
?PostNcDestroy@CInPlaceEdit@@MAEXXZ PROC		; CInPlaceEdit::PostNcDestroy, COMDAT
; _this$ = ecx

; 218  : {

  00000	56		 push	 esi
  00001	8b f1		 mov	 esi, ecx

; 219  :     CEdit::PostNcDestroy();

  00003	e8 00 00 00 00	 call	 ?PostNcDestroy@CWnd@@MAEXXZ ; CWnd::PostNcDestroy

; 220  :     
; 221  :     delete this;	

  00008	85 f6		 test	 esi, esi
  0000a	74 09		 je	 SHORT $LN3@PostNcDest
  0000c	8b 06		 mov	 eax, DWORD PTR [esi]
  0000e	8b ce		 mov	 ecx, esi
  00010	6a 01		 push	 1
  00012	ff 50 04	 call	 DWORD PTR [eax+4]
$LN3@PostNcDest:

; 222  : }

  00015	5e		 pop	 esi
  00016	c3		 ret	 0
?PostNcDestroy@CInPlaceEdit@@MAEXXZ ENDP		; CInPlaceEdit::PostNcDestroy
_TEXT	ENDS
; Function compile flags: /Ogtp
; File D:\git\src\IBK\IBK_DRFN\ProjSrc\SrcDrfn\Chart\HWSTRATEGYCONFIGUREWIZARD\GridCtrl_src\InPlaceEdit.cpp
;	COMDAT ?PreTranslateMessage@CInPlaceEdit@@UAEHPAUtagMSG@@@Z
_TEXT	SEGMENT
_pMsg$ = 8						; size = 4
?PreTranslateMessage@CInPlaceEdit@@UAEHPAUtagMSG@@@Z PROC ; CInPlaceEdit::PreTranslateMessage, COMDAT
; _this$ = ecx

; 208  : {

  00000	55		 push	 ebp
  00001	8b ec		 mov	 ebp, esp

; 209  :     // Catch the Alt key so we don't choke if focus is going to an owner drawn button
; 210  :     if (pMsg->message == WM_SYSCHAR)

  00003	8b 45 08	 mov	 eax, DWORD PTR _pMsg$[ebp]
  00006	81 78 04 06 01
	00 00		 cmp	 DWORD PTR [eax+4], 262	; 00000106H
  0000d	75 09		 jne	 SHORT $LN2@PreTransla

; 211  :         return TRUE;

  0000f	b8 01 00 00 00	 mov	 eax, 1

; 214  : }

  00014	5d		 pop	 ebp
  00015	c2 04 00	 ret	 4
$LN2@PreTransla:

; 212  :     
; 213  :     return CWnd::PreTranslateMessage(pMsg);

  00018	89 45 08	 mov	 DWORD PTR _pMsg$[ebp], eax

; 214  : }

  0001b	5d		 pop	 ebp

; 212  :     
; 213  :     return CWnd::PreTranslateMessage(pMsg);

  0001c	e9 00 00 00 00	 jmp	 ?PreTranslateMessage@CWnd@@UAEHPAUtagMSG@@@Z ; CWnd::PreTranslateMessage
?PreTranslateMessage@CInPlaceEdit@@UAEHPAUtagMSG@@@Z ENDP ; CInPlaceEdit::PreTranslateMessage
_TEXT	ENDS
; Function compile flags: /Ogtp
; File D:\git\src\IBK\IBK_DRFN\ProjSrc\SrcDrfn\Chart\HWSTRATEGYCONFIGUREWIZARD\GridCtrl_src\InPlaceEdit.cpp
; File C:\Program Files (x86)\Microsoft Visual Studio\2019\Community\VC\Tools\MSVC\14.29.30133\atlmfc\include\afxwin2.inl
; File D:\git\src\IBK\IBK_DRFN\ProjSrc\SrcDrfn\Chart\HWSTRATEGYCONFIGUREWIZARD\GridCtrl_src\InPlaceEdit.cpp
; File C:\Program Files (x86)\Microsoft Visual Studio\2019\Community\VC\Tools\MSVC\14.29.30133\atlmfc\include\afxwin2.inl
; File D:\git\src\IBK\IBK_DRFN\ProjSrc\SrcDrfn\Chart\HWSTRATEGYCONFIGUREWIZARD\GridCtrl_src\InPlaceEdit.cpp
; File C:\Program Files (x86)\Microsoft Visual Studio\2019\Community\VC\Tools\MSVC\14.29.30133\atlmfc\include\afxwin2.inl
; File D:\git\src\IBK\IBK_DRFN\ProjSrc\SrcDrfn\Chart\HWSTRATEGYCONFIGUREWIZARD\GridCtrl_src\InPlaceEdit.cpp
; File C:\Program Files (x86)\Microsoft Visual Studio\2019\Community\VC\Tools\MSVC\14.29.30133\atlmfc\include\afxwin2.inl
; File D:\git\src\IBK\IBK_DRFN\ProjSrc\SrcDrfn\Chart\HWSTRATEGYCONFIGUREWIZARD\GridCtrl_src\InPlaceEdit.cpp
;	COMDAT ?EndEdit@CInPlaceEdit@@QAEXXZ
_TEXT	SEGMENT
_str$ = -136						; size = 4
_dispinfo$ = -132					; size = 116
__$ArrayPad$ = -16					; size = 4
__$EHRec$ = -12						; size = 12
?EndEdit@CInPlaceEdit@@QAEXXZ PROC			; CInPlaceEdit::EndEdit, COMDAT
; _this$ = ecx

; 228  : {

  00000	55		 push	 ebp
  00001	8b ec		 mov	 ebp, esp
  00003	6a ff		 push	 -1
  00005	68 00 00 00 00	 push	 __ehhandler$?EndEdit@CInPlaceEdit@@QAEXXZ
  0000a	64 a1 00 00 00
	00		 mov	 eax, DWORD PTR fs:0
  00010	50		 push	 eax
  00011	83 ec 7c	 sub	 esp, 124		; 0000007cH
  00014	a1 00 00 00 00	 mov	 eax, DWORD PTR ___security_cookie
  00019	33 c5		 xor	 eax, ebp
  0001b	89 45 f0	 mov	 DWORD PTR __$ArrayPad$[ebp], eax
  0001e	53		 push	 ebx
  0001f	56		 push	 esi
  00020	50		 push	 eax
  00021	8d 45 f4	 lea	 eax, DWORD PTR __$EHRec$[ebp]
  00024	64 a3 00 00 00
	00		 mov	 DWORD PTR fs:0, eax
  0002a	8b f1		 mov	 esi, ecx

; 229  :     CString str;

  0002c	8d 8d 78 ff ff
	ff		 lea	 ecx, DWORD PTR _str$[ebp]
  00032	ff 15 00 00 00
	00		 call	 DWORD PTR __imp_??0?$CStringT@DV?$StrTraitMFC_DLL@DV?$ChTraitsCRT@D@ATL@@@@@ATL@@QAE@XZ

; 230  : 
; 231  :     // EFW - BUG FIX - Clicking on a grid scroll bar in a derived class
; 232  :     // that validates input can cause this to get called multiple times
; 233  :     // causing assertions because the edit control goes away the first time.
; 234  :     static BOOL bAlreadyEnding = FALSE;
; 235  : 
; 236  :     if(bAlreadyEnding)

  00038	83 3d 00 00 00
	00 00		 cmp	 DWORD PTR ?bAlreadyEnding@?1??EndEdit@CInPlaceEdit@@QAEXXZ@4HA, 0
  0003f	c7 45 fc 00 00
	00 00		 mov	 DWORD PTR __$EHRec$[ebp+8], 0
  00046	0f 85 e2 00 00
	00		 jne	 $LN37@EndEdit

; 237  :         return;
; 238  : 
; 239  :     bAlreadyEnding = TRUE;
; 240  :     GetWindowText(str);

  0004c	8d 85 78 ff ff
	ff		 lea	 eax, DWORD PTR _str$[ebp]
  00052	c7 05 00 00 00
	00 01 00 00 00	 mov	 DWORD PTR ?bAlreadyEnding@?1??EndEdit@CInPlaceEdit@@QAEXXZ@4HA, 1
  0005c	50		 push	 eax
  0005d	8b ce		 mov	 ecx, esi
  0005f	e8 00 00 00 00	 call	 ?GetWindowTextA@CWnd@@QBEXAAV?$CStringT@DV?$StrTraitMFC_DLL@DV?$ChTraitsCRT@D@ATL@@@@@ATL@@@Z ; CWnd::GetWindowTextA
  00064	8d 4d ec	 lea	 ecx, DWORD PTR _dispinfo$[ebp+112]
  00067	ff 15 00 00 00
	00		 call	 DWORD PTR __imp_??0?$CStringT@DV?$StrTraitMFC_DLL@DV?$ChTraitsCRT@D@ATL@@@@@ATL@@QAE@XZ

; 241  : 
; 242  :     // Send Notification to parent
; 243  :     GV_DISPINFO dispinfo;

  0006d	c6 45 fc 01	 mov	 BYTE PTR __$EHRec$[ebp+8], 1
; File C:\Program Files (x86)\Microsoft Visual Studio\2019\Community\VC\Tools\MSVC\14.29.30133\atlmfc\include\afxwin2.inl

; 25   : 	{ return this == NULL ? NULL : m_hWnd; }

  00071	85 f6		 test	 esi, esi
  00073	75 08		 jne	 SHORT $LN17@EndEdit
  00075	89 b5 7c ff ff
	ff		 mov	 DWORD PTR _dispinfo$[ebp], esi
  0007b	eb 09		 jmp	 SHORT $LN18@EndEdit
$LN17@EndEdit:
  0007d	8b 46 20	 mov	 eax, DWORD PTR [esi+32]
  00080	89 85 7c ff ff
	ff		 mov	 DWORD PTR _dispinfo$[ebp], eax
$LN18@EndEdit:
; File D:\git\src\IBK\IBK_DRFN\ProjSrc\SrcDrfn\Chart\HWSTRATEGYCONFIGUREWIZARD\GridCtrl_src\InPlaceEdit.cpp

; 246  :     dispinfo.hdr.idFrom   = GetDlgCtrlID();

  00086	8b ce		 mov	 ecx, esi
  00088	e8 00 00 00 00	 call	 ?GetDlgCtrlID@CWnd@@QBEHXZ ; CWnd::GetDlgCtrlID
  0008d	89 45 80	 mov	 DWORD PTR _dispinfo$[ebp+4], eax

; 247  :     dispinfo.hdr.code     = GVN_ENDLABELEDIT;
; 248  : 
; 249  :     dispinfo.item.mask    = LVIF_TEXT|LVIF_PARAM;
; 250  :     dispinfo.item.row     = m_nRow;
; 251  :     dispinfo.item.col     = m_nColumn;
; 252  :     dispinfo.item.strText  = str;

  00090	8d 4d ec	 lea	 ecx, DWORD PTR _dispinfo$[ebp+112]
  00093	8b 86 80 00 00
	00		 mov	 eax, DWORD PTR [esi+128]
  00099	89 45 88	 mov	 DWORD PTR _dispinfo$[ebp+12], eax
  0009c	8b 86 84 00 00
	00		 mov	 eax, DWORD PTR [esi+132]
  000a2	89 45 8c	 mov	 DWORD PTR _dispinfo$[ebp+16], eax
  000a5	8d 85 78 ff ff
	ff		 lea	 eax, DWORD PTR _str$[ebp]
  000ab	50		 push	 eax
  000ac	c7 45 84 96 ff
	ff ff		 mov	 DWORD PTR _dispinfo$[ebp+8], -106 ; ffffff96H
  000b3	c7 45 90 05 00
	00 00		 mov	 DWORD PTR _dispinfo$[ebp+20], 5
  000ba	ff 15 00 00 00
	00		 call	 DWORD PTR __imp_??4?$CStringT@DV?$StrTraitMFC_DLL@DV?$ChTraitsCRT@D@ATL@@@@@ATL@@QAEAAV01@ABV01@@Z

; 253  :     dispinfo.item.lParam  = (LPARAM) m_nLastChar;

  000c0	8b 86 8c 00 00
	00		 mov	 eax, DWORD PTR [esi+140]
  000c6	89 45 a8	 mov	 DWORD PTR _dispinfo$[ebp+44], eax
; File C:\Program Files (x86)\Microsoft Visual Studio\2019\Community\VC\Tools\MSVC\14.29.30133\atlmfc\include\afxwin2.inl

; 27   : 	{ return m_hWndOwner != NULL ? CWnd::FromHandle(m_hWndOwner) : GetParent(); }

  000c9	8b 46 5c	 mov	 eax, DWORD PTR [esi+92]
  000cc	85 c0		 test	 eax, eax
  000ce	75 09		 jne	 SHORT $LN22@EndEdit

; 213  : 	{ ASSERT(::IsWindow(m_hWnd)); return CWnd::FromHandle(::GetParent(m_hWnd)); }

  000d0	ff 76 20	 push	 DWORD PTR [esi+32]
  000d3	ff 15 00 00 00
	00		 call	 DWORD PTR __imp__GetParent@4
$LN22@EndEdit:
; File D:\git\src\IBK\IBK_DRFN\ProjSrc\SrcDrfn\Chart\HWSTRATEGYCONFIGUREWIZARD\GridCtrl_src\InPlaceEdit.cpp

; 256  :     if (pOwner)

  000d9	50		 push	 eax
  000da	e8 00 00 00 00	 call	 ?FromHandle@CWnd@@SGPAV1@PAUHWND__@@@Z ; CWnd::FromHandle
  000df	8b d8		 mov	 ebx, eax
  000e1	85 db		 test	 ebx, ebx
  000e3	74 1a		 je	 SHORT $LN3@EndEdit

; 257  :         pOwner->SendMessage(WM_NOTIFY, GetDlgCtrlID(), (LPARAM)&dispinfo );

  000e5	8b ce		 mov	 ecx, esi
  000e7	e8 00 00 00 00	 call	 ?GetDlgCtrlID@CWnd@@QBEHXZ ; CWnd::GetDlgCtrlID
; File C:\Program Files (x86)\Microsoft Visual Studio\2019\Community\VC\Tools\MSVC\14.29.30133\atlmfc\include\afxwin2.inl

; 32   : 	{ ASSERT(::IsWindow(m_hWnd)); return ::SendMessage(m_hWnd, message, wParam, lParam); }

  000ec	8d 8d 7c ff ff
	ff		 lea	 ecx, DWORD PTR _dispinfo$[ebp]
  000f2	51		 push	 ecx
  000f3	50		 push	 eax
  000f4	6a 4e		 push	 78			; 0000004eH
  000f6	ff 73 20	 push	 DWORD PTR [ebx+32]
  000f9	ff 15 00 00 00
	00		 call	 DWORD PTR __imp__SendMessageA@16
$LN3@EndEdit:
; File D:\git\src\IBK\IBK_DRFN\ProjSrc\SrcDrfn\Chart\HWSTRATEGYCONFIGUREWIZARD\GridCtrl_src\InPlaceEdit.cpp

; 260  :     if (IsWindow(GetSafeHwnd()))

  000ff	ff 76 20	 push	 DWORD PTR [esi+32]
  00102	ff 15 00 00 00
	00		 call	 DWORD PTR __imp__IsWindow@4
  00108	85 c0		 test	 eax, eax
  0010a	74 0f		 je	 SHORT $LN4@EndEdit
; File C:\Program Files (x86)\Microsoft Visual Studio\2019\Community\VC\Tools\MSVC\14.29.30133\atlmfc\include\afxwin2.inl

; 32   : 	{ ASSERT(::IsWindow(m_hWnd)); return ::SendMessage(m_hWnd, message, wParam, lParam); }

  0010c	6a 00		 push	 0
  0010e	6a 00		 push	 0
  00110	6a 10		 push	 16			; 00000010H
  00112	ff 76 20	 push	 DWORD PTR [esi+32]
  00115	ff 15 00 00 00
	00		 call	 DWORD PTR __imp__SendMessageA@16
$LN4@EndEdit:
  0011b	8d 4d ec	 lea	 ecx, DWORD PTR _dispinfo$[ebp+112]
; File D:\git\src\IBK\IBK_DRFN\ProjSrc\SrcDrfn\Chart\HWSTRATEGYCONFIGUREWIZARD\GridCtrl_src\InPlaceEdit.cpp

; 262  :     bAlreadyEnding = FALSE;

  0011e	c7 05 00 00 00
	00 00 00 00 00	 mov	 DWORD PTR ?bAlreadyEnding@?1??EndEdit@CInPlaceEdit@@QAEXXZ@4HA, 0
  00128	ff 15 00 00 00
	00		 call	 DWORD PTR __imp_??1?$CStringT@DV?$StrTraitMFC_DLL@DV?$ChTraitsCRT@D@ATL@@@@@ATL@@QAE@XZ
$LN37@EndEdit:

; 263  : }

  0012e	8d 8d 78 ff ff
	ff		 lea	 ecx, DWORD PTR _str$[ebp]
  00134	ff 15 00 00 00
	00		 call	 DWORD PTR __imp_??1?$CStringT@DV?$StrTraitMFC_DLL@DV?$ChTraitsCRT@D@ATL@@@@@ATL@@QAE@XZ
  0013a	8b 4d f4	 mov	 ecx, DWORD PTR __$EHRec$[ebp]
  0013d	64 89 0d 00 00
	00 00		 mov	 DWORD PTR fs:0, ecx
  00144	59		 pop	 ecx
  00145	5e		 pop	 esi
  00146	5b		 pop	 ebx
  00147	8b 4d f0	 mov	 ecx, DWORD PTR __$ArrayPad$[ebp]
  0014a	33 cd		 xor	 ecx, ebp
  0014c	e8 00 00 00 00	 call	 @__security_check_cookie@4
  00151	8b e5		 mov	 esp, ebp
  00153	5d		 pop	 ebp
  00154	c3		 ret	 0
_TEXT	ENDS
;	COMDAT text$x
text$x	SEGMENT
__unwindfunclet$?EndEdit@CInPlaceEdit@@QAEXXZ$0:
  00000	8d 8d 78 ff ff
	ff		 lea	 ecx, DWORD PTR _str$[ebp]
  00006	ff 25 00 00 00
	00		 jmp	 DWORD PTR __imp_??1?$CStringT@DV?$StrTraitMFC_DLL@DV?$ChTraitsCRT@D@ATL@@@@@ATL@@QAE@XZ
__unwindfunclet$?EndEdit@CInPlaceEdit@@QAEXXZ$1:
  0000c	8d 8d 7c ff ff
	ff		 lea	 ecx, DWORD PTR _dispinfo$[ebp]
  00012	e9 00 00 00 00	 jmp	 ??1tagGV_DISPINFO@@QAE@XZ
  00017	cc		 int	 3
  00018	cc		 int	 3
  00019	cc		 int	 3
  0001a	cc		 int	 3
  0001b	cc		 int	 3
__ehhandler$?EndEdit@CInPlaceEdit@@QAEXXZ:
  0001c	90		 npad	 1
  0001d	90		 npad	 1
  0001e	8b 54 24 08	 mov	 edx, DWORD PTR [esp+8]
  00022	8d 42 0c	 lea	 eax, DWORD PTR [edx+12]
  00025	8b 8a 78 ff ff
	ff		 mov	 ecx, DWORD PTR [edx-136]
  0002b	33 c8		 xor	 ecx, eax
  0002d	e8 00 00 00 00	 call	 @__security_check_cookie@4
  00032	8b 4a fc	 mov	 ecx, DWORD PTR [edx-4]
  00035	33 c8		 xor	 ecx, eax
  00037	e8 00 00 00 00	 call	 @__security_check_cookie@4
  0003c	b8 00 00 00 00	 mov	 eax, OFFSET __ehfuncinfo$?EndEdit@CInPlaceEdit@@QAEXXZ
  00041	e9 00 00 00 00	 jmp	 ___CxxFrameHandler3
text$x	ENDS
?EndEdit@CInPlaceEdit@@QAEXXZ ENDP			; CInPlaceEdit::EndEdit
; Function compile flags: /Ogtp
; File D:\git\src\IBK\IBK_DRFN\ProjSrc\SrcDrfn\Chart\HWSTRATEGYCONFIGUREWIZARD\GridCtrl_src\InPlaceEdit.cpp
; File C:\Program Files (x86)\Microsoft Visual Studio\2019\Community\VC\Tools\MSVC\14.29.30133\atlmfc\include\afxwin2.inl
; File D:\git\src\IBK\IBK_DRFN\ProjSrc\SrcDrfn\Chart\HWSTRATEGYCONFIGUREWIZARD\GridCtrl_src\InPlaceEdit.cpp
; File C:\Program Files (x86)\Microsoft Visual Studio\2019\Community\VC\Tools\MSVC\14.29.30133\atlmfc\include\atltypes.h
; File D:\git\src\IBK\IBK_DRFN\ProjSrc\SrcDrfn\Chart\HWSTRATEGYCONFIGUREWIZARD\GridCtrl_src\InPlaceEdit.cpp
; File C:\Program Files (x86)\Microsoft Visual Studio\2019\Community\VC\Tools\MSVC\14.29.30133\atlmfc\include\afxwin2.inl
; File C:\Program Files (x86)\Microsoft Visual Studio\2019\Community\VC\Tools\MSVC\14.29.30133\atlmfc\include\afxwin1.inl
; File C:\Program Files (x86)\Microsoft Visual Studio\2019\Community\VC\Tools\MSVC\14.29.30133\atlmfc\include\afxwin2.inl
; File D:\git\src\IBK\IBK_DRFN\ProjSrc\SrcDrfn\Chart\HWSTRATEGYCONFIGUREWIZARD\GridCtrl_src\InPlaceEdit.cpp
; File C:\Program Files (x86)\Microsoft Visual Studio\2019\Community\VC\Tools\MSVC\14.29.30133\atlmfc\include\afxwin2.inl
; File D:\git\src\IBK\IBK_DRFN\ProjSrc\SrcDrfn\Chart\HWSTRATEGYCONFIGUREWIZARD\GridCtrl_src\InPlaceEdit.cpp
; File C:\Program Files (x86)\Microsoft Visual Studio\2019\Community\VC\Tools\MSVC\14.29.30133\atlmfc\include\afxwin2.inl
; File D:\git\src\IBK\IBK_DRFN\ProjSrc\SrcDrfn\Chart\HWSTRATEGYCONFIGUREWIZARD\GridCtrl_src\InPlaceEdit.cpp
; File C:\Program Files (x86)\Microsoft Visual Studio\2019\Community\VC\Tools\MSVC\14.29.30133\atlmfc\include\afxwin2.inl
; File D:\git\src\IBK\IBK_DRFN\ProjSrc\SrcDrfn\Chart\HWSTRATEGYCONFIGUREWIZARD\GridCtrl_src\InPlaceEdit.cpp
; File C:\Program Files (x86)\Microsoft Visual Studio\2019\Community\VC\Tools\MSVC\14.29.30133\atlmfc\include\afxwin2.inl
; File D:\git\src\IBK\IBK_DRFN\ProjSrc\SrcDrfn\Chart\HWSTRATEGYCONFIGUREWIZARD\GridCtrl_src\InPlaceEdit.cpp
; File C:\Program Files (x86)\Microsoft Visual Studio\2019\Community\VC\Tools\MSVC\14.29.30133\atlmfc\include\afxwin2.inl
; File D:\git\src\IBK\IBK_DRFN\ProjSrc\SrcDrfn\Chart\HWSTRATEGYCONFIGUREWIZARD\GridCtrl_src\InPlaceEdit.cpp
; File C:\Program Files (x86)\Microsoft Visual Studio\2019\Community\VC\Tools\MSVC\14.29.30133\atlmfc\include\afxwin2.inl
; File D:\git\src\IBK\IBK_DRFN\ProjSrc\SrcDrfn\Chart\HWSTRATEGYCONFIGUREWIZARD\GridCtrl_src\InPlaceEdit.cpp
; File C:\Program Files (x86)\Microsoft Visual Studio\2019\Community\VC\Tools\MSVC\14.29.30133\atlmfc\include\afxwin2.inl
; File D:\git\src\IBK\IBK_DRFN\ProjSrc\SrcDrfn\Chart\HWSTRATEGYCONFIGUREWIZARD\GridCtrl_src\InPlaceEdit.cpp
; File C:\Program Files (x86)\Microsoft Visual Studio\2019\Community\VC\Tools\MSVC\14.29.30133\atlmfc\include\afxwin2.inl
; File D:\git\src\IBK\IBK_DRFN\ProjSrc\SrcDrfn\Chart\HWSTRATEGYCONFIGUREWIZARD\GridCtrl_src\InPlaceEdit.cpp
;	COMDAT ??0CInPlaceEdit@@QAE@PAVCWnd@@AAVCRect@@KIHHV?$CStringT@DV?$StrTraitMFC_DLL@DV?$ChTraitsCRT@D@ATL@@@@@ATL@@I@Z
_TEXT	SEGMENT
_this$ = -16						; size = 4
__$EHRec$ = -12						; size = 12
_pParent$ = 8						; size = 4
_rect$ = 12						; size = 4
_dwStyle$ = 16						; size = 4
_nID$ = 20						; size = 4
_nRow$ = 24						; size = 4
_nColumn$ = 28						; size = 4
_sInitText$ = 32					; size = 4
_nFirstChar$ = 36					; size = 4
??0CInPlaceEdit@@QAE@PAVCWnd@@AAVCRect@@KIHHV?$CStringT@DV?$StrTraitMFC_DLL@DV?$ChTraitsCRT@D@ATL@@@@@ATL@@I@Z PROC ; CInPlaceEdit::CInPlaceEdit, COMDAT
; _this$ = ecx

; 64   : {

  00000	55		 push	 ebp
  00001	8b ec		 mov	 ebp, esp
  00003	6a ff		 push	 -1
  00005	68 00 00 00 00	 push	 __ehhandler$??0CInPlaceEdit@@QAE@PAVCWnd@@AAVCRect@@KIHHV?$CStringT@DV?$StrTraitMFC_DLL@DV?$ChTraitsCRT@D@ATL@@@@@ATL@@I@Z
  0000a	64 a1 00 00 00
	00		 mov	 eax, DWORD PTR fs:0
  00010	50		 push	 eax
  00011	51		 push	 ecx
  00012	56		 push	 esi
  00013	57		 push	 edi
  00014	a1 00 00 00 00	 mov	 eax, DWORD PTR ___security_cookie
  00019	33 c5		 xor	 eax, ebp
  0001b	50		 push	 eax
  0001c	8d 45 f4	 lea	 eax, DWORD PTR __$EHRec$[ebp]
  0001f	64 a3 00 00 00
	00		 mov	 DWORD PTR fs:0, eax
  00025	8b f1		 mov	 esi, ecx
  00027	89 75 f0	 mov	 DWORD PTR _this$[ebp], esi
  0002a	c7 45 fc 00 00
	00 00		 mov	 DWORD PTR __$EHRec$[ebp+8], 0
; File C:\Program Files (x86)\Microsoft Visual Studio\2019\Community\VC\Tools\MSVC\14.29.30133\atlmfc\include\afxwin2.inl

; 851  : 	{ }

  00031	e8 00 00 00 00	 call	 ??0CWnd@@QAE@XZ		; CWnd::CWnd
; File D:\git\src\IBK\IBK_DRFN\ProjSrc\SrcDrfn\Chart\HWSTRATEGYCONFIGUREWIZARD\GridCtrl_src\InPlaceEdit.cpp

; 64   : {

  00036	8d 8e 88 00 00
	00		 lea	 ecx, DWORD PTR [esi+136]
  0003c	c7 06 00 00 00
	00		 mov	 DWORD PTR [esi], OFFSET ??_7CInPlaceEdit@@6B@
  00042	ff 15 00 00 00
	00		 call	 DWORD PTR __imp_??0?$CStringT@DV?$StrTraitMFC_DLL@DV?$ChTraitsCRT@D@ATL@@@@@ATL@@QAE@XZ

; 65   :     m_sInitText     = sInitText;

  00048	8d 45 20	 lea	 eax, DWORD PTR _sInitText$[ebp]
  0004b	c6 45 fc 02	 mov	 BYTE PTR __$EHRec$[ebp+8], 2
  0004f	50		 push	 eax
  00050	8d 8e 88 00 00
	00		 lea	 ecx, DWORD PTR [esi+136]
; File C:\Program Files (x86)\Microsoft Visual Studio\2019\Community\VC\Tools\MSVC\14.29.30133\atlmfc\include\atltypes.h

; 528  : 	left = 0;

  00056	c7 86 94 00 00
	00 00 00 00 00	 mov	 DWORD PTR [esi+148], 0

; 529  : 	top = 0;

  00060	c7 86 98 00 00
	00 00 00 00 00	 mov	 DWORD PTR [esi+152], 0

; 530  : 	right = 0;

  0006a	c7 86 9c 00 00
	00 00 00 00 00	 mov	 DWORD PTR [esi+156], 0

; 531  : 	bottom = 0;

  00074	c7 86 a0 00 00
	00 00 00 00 00	 mov	 DWORD PTR [esi+160], 0
; File D:\git\src\IBK\IBK_DRFN\ProjSrc\SrcDrfn\Chart\HWSTRATEGYCONFIGUREWIZARD\GridCtrl_src\InPlaceEdit.cpp

; 65   :     m_sInitText     = sInitText;

  0007e	ff 15 00 00 00
	00		 call	 DWORD PTR __imp_??4?$CStringT@DV?$StrTraitMFC_DLL@DV?$ChTraitsCRT@D@ATL@@@@@ATL@@QAEAAV01@ABV01@@Z

; 66   :     m_nRow          = nRow;

  00084	8b 45 18	 mov	 eax, DWORD PTR _nRow$[ebp]

; 67   :     m_nColumn       = nColumn;
; 68   :     m_nLastChar     = 0; 
; 69   :     m_bExitOnArrows = (nFirstChar != VK_LBUTTON);    // If mouse click brought us here,
; 70   :                                                      // then no exit on arrows
; 71   : 
; 72   :     m_Rect = rect;  // For bizarre CE bug.
; 73   :     
; 74   :     DWORD dwEditStyle = WS_BORDER|WS_CHILD|WS_VISIBLE| ES_AUTOHSCROLL //|ES_MULTILINE
; 75   :         | dwStyle;
; 76   :     if (!Create(dwEditStyle, rect, pParent, nID)) return;

  00087	8b ce		 mov	 ecx, esi
  00089	ff 75 14	 push	 DWORD PTR _nID$[ebp]
  0008c	8b 7d 08	 mov	 edi, DWORD PTR _pParent$[ebp]
  0008f	89 86 80 00 00
	00		 mov	 DWORD PTR [esi+128], eax
  00095	8b 45 1c	 mov	 eax, DWORD PTR _nColumn$[ebp]
  00098	89 86 84 00 00
	00		 mov	 DWORD PTR [esi+132], eax
  0009e	33 c0		 xor	 eax, eax
  000a0	83 7d 24 01	 cmp	 DWORD PTR _nFirstChar$[ebp], 1
  000a4	57		 push	 edi
  000a5	0f 95 c0	 setne	 al
  000a8	c7 86 8c 00 00
	00 00 00 00 00	 mov	 DWORD PTR [esi+140], 0
  000b2	89 86 90 00 00
	00		 mov	 DWORD PTR [esi+144], eax
  000b8	8b 45 0c	 mov	 eax, DWORD PTR _rect$[ebp]
  000bb	50		 push	 eax
  000bc	0f 10 00	 movups	 xmm0, XMMWORD PTR [eax]
  000bf	8b 45 10	 mov	 eax, DWORD PTR _dwStyle$[ebp]
  000c2	0d 80 00 80 50	 or	 eax, 1350566016		; 50800080H
  000c7	50		 push	 eax
  000c8	0f 11 86 94 00
	00 00		 movups	 XMMWORD PTR [esi+148], xmm0
  000cf	e8 00 00 00 00	 call	 ?Create@CEdit@@QAEHKABUtagRECT@@PAVCWnd@@I@Z ; CEdit::Create
  000d4	85 c0		 test	 eax, eax
  000d6	0f 84 13 01 00
	00		 je	 $LN20@CInPlaceEd
; File C:\Program Files (x86)\Microsoft Visual Studio\2019\Community\VC\Tools\MSVC\14.29.30133\atlmfc\include\afxwin2.inl

; 45   : 	{ ASSERT(::IsWindow(m_hWnd)); return CFont::FromHandle(

  000dc	6a 00		 push	 0
  000de	6a 00		 push	 0
  000e0	6a 31		 push	 49			; 00000031H
  000e2	ff 77 20	 push	 DWORD PTR [edi+32]
  000e5	8b 3d 00 00 00
	00		 mov	 edi, DWORD PTR __imp__SendMessageA@16
  000eb	ff d7		 call	 edi
; File C:\Program Files (x86)\Microsoft Visual Studio\2019\Community\VC\Tools\MSVC\14.29.30133\atlmfc\include\afxwin1.inl

; 151  : 	{ return (CFont*) CGdiObject::FromHandle(hFont); }

  000ed	50		 push	 eax
  000ee	e8 00 00 00 00	 call	 ?FromHandle@CGdiObject@@SGPAV1@PAX@Z ; CGdiObject::FromHandle

; 68   : 	{ return this == NULL ? NULL : m_hObject; }

  000f3	85 c0		 test	 eax, eax
  000f5	74 03		 je	 SHORT $LN39@CInPlaceEd
$LN38@CInPlaceEd:
  000f7	8b 40 04	 mov	 eax, DWORD PTR [eax+4]
$LN39@CInPlaceEd:
; File C:\Program Files (x86)\Microsoft Visual Studio\2019\Community\VC\Tools\MSVC\14.29.30133\atlmfc\include\afxwin2.inl

; 43   : 	{ ASSERT(::IsWindow(m_hWnd)); ::SendMessage(m_hWnd, WM_SETFONT, (WPARAM)pFont->GetSafeHandle(), bRedraw); }

  000fa	6a 01		 push	 1
  000fc	50		 push	 eax
  000fd	6a 30		 push	 48			; 00000030H
  000ff	ff 76 20	 push	 DWORD PTR [esi+32]
  00102	ff d7		 call	 edi
; File D:\git\src\IBK\IBK_DRFN\ProjSrc\SrcDrfn\Chart\HWSTRATEGYCONFIGUREWIZARD\GridCtrl_src\InPlaceEdit.cpp

; 80   :     SetWindowText(sInitText);

  00104	ff 75 20	 push	 DWORD PTR _sInitText$[ebp]
  00107	8b ce		 mov	 ecx, esi
  00109	e8 00 00 00 00	 call	 ?SetWindowTextA@CWnd@@QAEXPBD@Z ; CWnd::SetWindowTextA

; 81   :     SetFocus();

  0010e	8b ce		 mov	 ecx, esi
  00110	e8 00 00 00 00	 call	 ?SetFocus@CWnd@@QAEPAV1@XZ ; CWnd::SetFocus

; 82   :     
; 83   :     switch (nFirstChar){

  00115	8b 45 24	 mov	 eax, DWORD PTR _nFirstChar$[ebp]
  00118	48		 dec	 eax
  00119	83 f8 27	 cmp	 eax, 39			; 00000027H
  0011c	0f 87 8a 00 00
	00		 ja	 $LN18@CInPlaceEd
  00122	0f b6 80 00 00
	00 00		 movzx	 eax, BYTE PTR $LN63@CInPlaceEd[eax]
  00129	ff 24 85 00 00
	00 00		 jmp	 DWORD PTR $LN64@CInPlaceEd[eax*4]
$LN5@CInPlaceEd:

; 84   :         case VK_LBUTTON: 
; 85   :         case VK_RETURN:   SetSel((int)_tcslen(m_sInitText), -1); return;

  00130	8b 8e 88 00 00
	00		 mov	 ecx, DWORD PTR [esi+136]
  00136	8d 51 01	 lea	 edx, DWORD PTR [ecx+1]
  00139	0f 1f 80 00 00
	00 00		 npad	 7
$LL65@CInPlaceEd:
  00140	8a 01		 mov	 al, BYTE PTR [ecx]
  00142	41		 inc	 ecx
  00143	84 c0		 test	 al, al
  00145	75 f9		 jne	 SHORT $LL65@CInPlaceEd
  00147	2b ca		 sub	 ecx, edx
; File C:\Program Files (x86)\Microsoft Visual Studio\2019\Community\VC\Tools\MSVC\14.29.30133\atlmfc\include\afxwin2.inl

; 909  : 	{ ASSERT(::IsWindow(m_hWnd)); ::SendMessage(m_hWnd, EM_SETSEL, nStartChar, nEndChar);

  00149	6a ff		 push	 -1
  0014b	51		 push	 ecx
$LN69@CInPlaceEd:
; File D:\git\src\IBK\IBK_DRFN\ProjSrc\SrcDrfn\Chart\HWSTRATEGYCONFIGUREWIZARD\GridCtrl_src\InPlaceEdit.cpp

; 106  : }

  0014c	68 b1 00 00 00	 push	 177			; 000000b1H
  00151	ff 76 20	 push	 DWORD PTR [esi+32]
  00154	ff d7		 call	 edi
  00156	6a 00		 push	 0
  00158	6a 00		 push	 0
  0015a	68 b7 00 00 00	 push	 183			; 000000b7H
  0015f	ff 76 20	 push	 DWORD PTR [esi+32]
  00162	ff d7		 call	 edi
  00164	e9 86 00 00 00	 jmp	 $LN20@CInPlaceEd
$LN7@CInPlaceEd:

; 86   :         case VK_BACK:     SetSel((int)_tcslen(m_sInitText), -1); break;

  00169	8b 8e 88 00 00
	00		 mov	 ecx, DWORD PTR [esi+136]
  0016f	8d 51 01	 lea	 edx, DWORD PTR [ecx+1]
$LL66@CInPlaceEd:
  00172	8a 01		 mov	 al, BYTE PTR [ecx]
  00174	41		 inc	 ecx
  00175	84 c0		 test	 al, al
  00177	75 f9		 jne	 SHORT $LL66@CInPlaceEd
; File C:\Program Files (x86)\Microsoft Visual Studio\2019\Community\VC\Tools\MSVC\14.29.30133\atlmfc\include\afxwin2.inl

; 909  : 	{ ASSERT(::IsWindow(m_hWnd)); ::SendMessage(m_hWnd, EM_SETSEL, nStartChar, nEndChar);

  00179	6a ff		 push	 -1
; File D:\git\src\IBK\IBK_DRFN\ProjSrc\SrcDrfn\Chart\HWSTRATEGYCONFIGUREWIZARD\GridCtrl_src\InPlaceEdit.cpp

; 86   :         case VK_BACK:     SetSel((int)_tcslen(m_sInitText), -1); break;

  0017b	2b ca		 sub	 ecx, edx
; File C:\Program Files (x86)\Microsoft Visual Studio\2019\Community\VC\Tools\MSVC\14.29.30133\atlmfc\include\afxwin2.inl

; 909  : 	{ ASSERT(::IsWindow(m_hWnd)); ::SendMessage(m_hWnd, EM_SETSEL, nStartChar, nEndChar);

  0017d	51		 push	 ecx
  0017e	68 b1 00 00 00	 push	 177			; 000000b1H
  00183	ff 76 20	 push	 DWORD PTR [esi+32]
  00186	ff d7		 call	 edi

; 911  : 		::SendMessage(m_hWnd, EM_SCROLLCARET, 0, 0); }

  00188	6a 00		 push	 0
  0018a	6a 00		 push	 0
  0018c	68 b7 00 00 00	 push	 183			; 000000b7H
  00191	ff 76 20	 push	 DWORD PTR [esi+32]
  00194	ff d7		 call	 edi
; File D:\git\src\IBK\IBK_DRFN\ProjSrc\SrcDrfn\Chart\HWSTRATEGYCONFIGUREWIZARD\GridCtrl_src\InPlaceEdit.cpp

; 86   :         case VK_BACK:     SetSel((int)_tcslen(m_sInitText), -1); break;

  00196	8b 4d 24	 mov	 ecx, DWORD PTR _nFirstChar$[ebp]
; File C:\Program Files (x86)\Microsoft Visual Studio\2019\Community\VC\Tools\MSVC\14.29.30133\atlmfc\include\afxwin2.inl

; 911  : 		::SendMessage(m_hWnd, EM_SCROLLCARET, 0, 0); }

  00199	8b 46 20	 mov	 eax, DWORD PTR [esi+32]

; 39   : 	{ ASSERT(::IsWindow(m_hWnd)); return ::PostMessage(m_hWnd, message, wParam, lParam); }

  0019c	6a 00		 push	 0
  0019e	51		 push	 ecx
  0019f	68 02 01 00 00	 push	 258			; 00000102H
; File D:\git\src\IBK\IBK_DRFN\ProjSrc\SrcDrfn\Chart\HWSTRATEGYCONFIGUREWIZARD\GridCtrl_src\InPlaceEdit.cpp

; 103  :         PostMessage(WM_CHAR, nFirstChar);   

  001a4	eb 42		 jmp	 SHORT $LN68@CInPlaceEd
$LN8@CInPlaceEd:
; File C:\Program Files (x86)\Microsoft Visual Studio\2019\Community\VC\Tools\MSVC\14.29.30133\atlmfc\include\afxwin2.inl

; 909  : 	{ ASSERT(::IsWindow(m_hWnd)); ::SendMessage(m_hWnd, EM_SETSEL, nStartChar, nEndChar);

  001a6	6a ff		 push	 -1
  001a8	6a 00		 push	 0
; File D:\git\src\IBK\IBK_DRFN\ProjSrc\SrcDrfn\Chart\HWSTRATEGYCONFIGUREWIZARD\GridCtrl_src\InPlaceEdit.cpp

; 96   :         case VK_END:      SetSel(0,-1); return;

  001aa	eb a0		 jmp	 SHORT $LN69@CInPlaceEd
$LN18@CInPlaceEd:
; File C:\Program Files (x86)\Microsoft Visual Studio\2019\Community\VC\Tools\MSVC\14.29.30133\atlmfc\include\afxwin2.inl

; 909  : 	{ ASSERT(::IsWindow(m_hWnd)); ::SendMessage(m_hWnd, EM_SETSEL, nStartChar, nEndChar);

  001ac	6a ff		 push	 -1
  001ae	6a 00		 push	 0
  001b0	68 b1 00 00 00	 push	 177			; 000000b1H
  001b5	ff 76 20	 push	 DWORD PTR [esi+32]
  001b8	ff d7		 call	 edi

; 911  : 		::SendMessage(m_hWnd, EM_SCROLLCARET, 0, 0); }

  001ba	6a 00		 push	 0
  001bc	6a 00		 push	 0
  001be	68 b7 00 00 00	 push	 183			; 000000b7H
  001c3	ff 76 20	 push	 DWORD PTR [esi+32]
  001c6	ff d7		 call	 edi
; File D:\git\src\IBK\IBK_DRFN\ProjSrc\SrcDrfn\Chart\HWSTRATEGYCONFIGUREWIZARD\GridCtrl_src\InPlaceEdit.cpp

; 102  :     if( nFirstChar < 0x80)

  001c8	8b 4d 24	 mov	 ecx, DWORD PTR _nFirstChar$[ebp]
  001cb	8b 46 20	 mov	 eax, DWORD PTR [esi+32]
  001ce	81 f9 80 00 00
	00		 cmp	 ecx, 128		; 00000080H
  001d4	73 0a		 jae	 SHORT $LN19@CInPlaceEd
; File C:\Program Files (x86)\Microsoft Visual Studio\2019\Community\VC\Tools\MSVC\14.29.30133\atlmfc\include\afxwin2.inl

; 39   : 	{ ASSERT(::IsWindow(m_hWnd)); return ::PostMessage(m_hWnd, message, wParam, lParam); }

  001d6	6a 00		 push	 0
  001d8	51		 push	 ecx
  001d9	68 02 01 00 00	 push	 258			; 00000102H
; File D:\git\src\IBK\IBK_DRFN\ProjSrc\SrcDrfn\Chart\HWSTRATEGYCONFIGUREWIZARD\GridCtrl_src\InPlaceEdit.cpp

; 103  :         PostMessage(WM_CHAR, nFirstChar);   

  001de	eb 08		 jmp	 SHORT $LN68@CInPlaceEd
$LN19@CInPlaceEd:
; File C:\Program Files (x86)\Microsoft Visual Studio\2019\Community\VC\Tools\MSVC\14.29.30133\atlmfc\include\afxwin2.inl

; 39   : 	{ ASSERT(::IsWindow(m_hWnd)); return ::PostMessage(m_hWnd, message, wParam, lParam); }

  001e0	6a 00		 push	 0
  001e2	51		 push	 ecx
  001e3	68 86 02 00 00	 push	 646			; 00000286H
$LN68@CInPlaceEd:
; File D:\git\src\IBK\IBK_DRFN\ProjSrc\SrcDrfn\Chart\HWSTRATEGYCONFIGUREWIZARD\GridCtrl_src\InPlaceEdit.cpp

; 106  : }

  001e8	50		 push	 eax
  001e9	ff 15 00 00 00
	00		 call	 DWORD PTR __imp__PostMessageA@16
$LN20@CInPlaceEd:
  001ef	8d 4d 20	 lea	 ecx, DWORD PTR _sInitText$[ebp]
  001f2	ff 15 00 00 00
	00		 call	 DWORD PTR __imp_??1?$CStringT@DV?$StrTraitMFC_DLL@DV?$ChTraitsCRT@D@ATL@@@@@ATL@@QAE@XZ
  001f8	8b c6		 mov	 eax, esi
  001fa	8b 4d f4	 mov	 ecx, DWORD PTR __$EHRec$[ebp]
  001fd	64 89 0d 00 00
	00 00		 mov	 DWORD PTR fs:0, ecx
  00204	59		 pop	 ecx
  00205	5f		 pop	 edi
  00206	5e		 pop	 esi
  00207	8b e5		 mov	 esp, ebp
  00209	5d		 pop	 ebp
  0020a	c2 20 00	 ret	 32			; 00000020H
  0020d	0f 1f 00	 npad	 3
$LN64@CInPlaceEd:
  00210	00 00 00 00	 DD	 $LN5@CInPlaceEd
  00214	00 00 00 00	 DD	 $LN7@CInPlaceEd
  00218	00 00 00 00	 DD	 $LN8@CInPlaceEd
  0021c	00 00 00 00	 DD	 $LN18@CInPlaceEd
$LN63@CInPlaceEd:
  00220	00		 DB	 0
  00221	03		 DB	 3
  00222	03		 DB	 3
  00223	03		 DB	 3
  00224	03		 DB	 3
  00225	03		 DB	 3
  00226	03		 DB	 3
  00227	01		 DB	 1
  00228	02		 DB	 2
  00229	03		 DB	 3
  0022a	03		 DB	 3
  0022b	03		 DB	 3
  0022c	00		 DB	 0
  0022d	03		 DB	 3
  0022e	03		 DB	 3
  0022f	03		 DB	 3
  00230	03		 DB	 3
  00231	03		 DB	 3
  00232	03		 DB	 3
  00233	03		 DB	 3
  00234	03		 DB	 3
  00235	03		 DB	 3
  00236	03		 DB	 3
  00237	03		 DB	 3
  00238	03		 DB	 3
  00239	03		 DB	 3
  0023a	03		 DB	 3
  0023b	03		 DB	 3
  0023c	03		 DB	 3
  0023d	03		 DB	 3
  0023e	03		 DB	 3
  0023f	02		 DB	 2
  00240	02		 DB	 2
  00241	02		 DB	 2
  00242	02		 DB	 2
  00243	02		 DB	 2
  00244	02		 DB	 2
  00245	02		 DB	 2
  00246	02		 DB	 2
  00247	02		 DB	 2
_TEXT	ENDS
;	COMDAT text$x
text$x	SEGMENT
__unwindfunclet$??0CInPlaceEdit@@QAE@PAVCWnd@@AAVCRect@@KIHHV?$CStringT@DV?$StrTraitMFC_DLL@DV?$ChTraitsCRT@D@ATL@@@@@ATL@@I@Z$0:
  00000	8d 4d 20	 lea	 ecx, DWORD PTR _sInitText$[ebp]
  00003	ff 25 00 00 00
	00		 jmp	 DWORD PTR __imp_??1?$CStringT@DV?$StrTraitMFC_DLL@DV?$ChTraitsCRT@D@ATL@@@@@ATL@@QAE@XZ
__unwindfunclet$??0CInPlaceEdit@@QAE@PAVCWnd@@AAVCRect@@KIHHV?$CStringT@DV?$StrTraitMFC_DLL@DV?$ChTraitsCRT@D@ATL@@@@@ATL@@I@Z$1:
  00009	8b 4d f0	 mov	 ecx, DWORD PTR _this$[ebp]
  0000c	e9 00 00 00 00	 jmp	 ??1CEdit@@UAE@XZ	; CEdit::~CEdit
__unwindfunclet$??0CInPlaceEdit@@QAE@PAVCWnd@@AAVCRect@@KIHHV?$CStringT@DV?$StrTraitMFC_DLL@DV?$ChTraitsCRT@D@ATL@@@@@ATL@@I@Z$2:
  00011	8b 4d f0	 mov	 ecx, DWORD PTR _this$[ebp]
  00014	81 c1 88 00 00
	00		 add	 ecx, 136		; 00000088H
  0001a	ff 25 00 00 00
	00		 jmp	 DWORD PTR __imp_??1?$CStringT@DV?$StrTraitMFC_DLL@DV?$ChTraitsCRT@D@ATL@@@@@ATL@@QAE@XZ
  00020	cc		 int	 3
  00021	cc		 int	 3
  00022	cc		 int	 3
  00023	cc		 int	 3
  00024	cc		 int	 3
__ehhandler$??0CInPlaceEdit@@QAE@PAVCWnd@@AAVCRect@@KIHHV?$CStringT@DV?$StrTraitMFC_DLL@DV?$ChTraitsCRT@D@ATL@@@@@ATL@@I@Z:
  00025	90		 npad	 1
  00026	90		 npad	 1
  00027	8b 54 24 08	 mov	 edx, DWORD PTR [esp+8]
  0002b	8d 42 0c	 lea	 eax, DWORD PTR [edx+12]
  0002e	8b 4a f0	 mov	 ecx, DWORD PTR [edx-16]
  00031	33 c8		 xor	 ecx, eax
  00033	e8 00 00 00 00	 call	 @__security_check_cookie@4
  00038	b8 00 00 00 00	 mov	 eax, OFFSET __ehfuncinfo$??0CInPlaceEdit@@QAE@PAVCWnd@@AAVCRect@@KIHHV?$CStringT@DV?$StrTraitMFC_DLL@DV?$ChTraitsCRT@D@ATL@@@@@ATL@@I@Z
  0003d	e9 00 00 00 00	 jmp	 ___CxxFrameHandler3
text$x	ENDS
??0CInPlaceEdit@@QAE@PAVCWnd@@AAVCRect@@KIHHV?$CStringT@DV?$StrTraitMFC_DLL@DV?$ChTraitsCRT@D@ATL@@@@@ATL@@I@Z ENDP ; CInPlaceEdit::CInPlaceEdit
; Function compile flags: /Ogtp
; File C:\Program Files (x86)\Microsoft Visual Studio\2019\Community\VC\Tools\MSVC\14.29.30133\atlmfc\include\afx.inl
;	COMDAT ??_GCEdit@@UAEPAXI@Z
_TEXT	SEGMENT
___flags$ = 8						; size = 4
??_GCEdit@@UAEPAXI@Z PROC				; CEdit::`scalar deleting destructor', COMDAT
; _this$ = ecx
  00000	55		 push	 ebp
  00001	8b ec		 mov	 ebp, esp
  00003	56		 push	 esi
  00004	8b f1		 mov	 esi, ecx
  00006	e8 00 00 00 00	 call	 ??1CEdit@@UAE@XZ	; CEdit::~CEdit
  0000b	8b 45 08	 mov	 eax, DWORD PTR ___flags$[ebp]
  0000e	a8 01		 test	 al, 1
  00010	74 22		 je	 SHORT $LN9@scalar
  00012	a8 04		 test	 al, 4
  00014	75 10		 jne	 SHORT $LN3@scalar

; 112  : 	{ ::operator delete(p); }

  00016	56		 push	 esi
  00017	e8 00 00 00 00	 call	 ??3@YAXPAX@Z		; operator delete
  0001c	83 c4 04	 add	 esp, 4
  0001f	8b c6		 mov	 eax, esi
  00021	5e		 pop	 esi
  00022	5d		 pop	 ebp
  00023	c2 04 00	 ret	 4
$LN3@scalar:
  00026	68 80 00 00 00	 push	 128			; 00000080H
  0002b	56		 push	 esi
  0002c	e8 00 00 00 00	 call	 ?__global_delete@@YAXPAXI@Z ; __global_delete
  00031	83 c4 08	 add	 esp, 8
$LN9@scalar:
  00034	8b c6		 mov	 eax, esi
  00036	5e		 pop	 esi
  00037	5d		 pop	 ebp
  00038	c2 04 00	 ret	 4
??_GCEdit@@UAEPAXI@Z ENDP				; CEdit::`scalar deleting destructor'
_TEXT	ENDS
; Function compile flags: /Ogtp
; File C:\Program Files (x86)\Microsoft Visual Studio\2019\Community\VC\Tools\MSVC\14.29.30133\atlmfc\include\afxwin2.inl
;	COMDAT ?EndModalState@CWnd@@UAEXXZ
_TEXT	SEGMENT
?EndModalState@CWnd@@UAEXXZ PROC			; CWnd::EndModalState, COMDAT
; _this$ = ecx

; 567  : 	{ ::EnableWindow(m_hWnd, TRUE); }

  00000	6a 01		 push	 1
  00002	ff 71 20	 push	 DWORD PTR [ecx+32]
  00005	ff 15 00 00 00
	00		 call	 DWORD PTR __imp__EnableWindow@8
  0000b	c3		 ret	 0
?EndModalState@CWnd@@UAEXXZ ENDP			; CWnd::EndModalState
_TEXT	ENDS
; Function compile flags: /Ogtp
; File C:\Program Files (x86)\Microsoft Visual Studio\2019\Community\VC\Tools\MSVC\14.29.30133\atlmfc\include\afxwin2.inl
;	COMDAT ?BeginModalState@CWnd@@UAEXXZ
_TEXT	SEGMENT
?BeginModalState@CWnd@@UAEXXZ PROC			; CWnd::BeginModalState, COMDAT
; _this$ = ecx

; 565  : 	{ ::EnableWindow(m_hWnd, FALSE); }

  00000	6a 00		 push	 0
  00002	ff 71 20	 push	 DWORD PTR [ecx+32]
  00005	ff 15 00 00 00
	00		 call	 DWORD PTR __imp__EnableWindow@8
  0000b	c3		 ret	 0
?BeginModalState@CWnd@@UAEXXZ ENDP			; CWnd::BeginModalState
_TEXT	ENDS
; Function compile flags: /Ogtp
; File C:\Program Files (x86)\Microsoft Visual Studio\2019\Community\VC\Tools\MSVC\14.29.30133\atlmfc\include\afxwin2.inl
;	COMDAT ?DoDataExchange@CWnd@@MAEXPAVCDataExchange@@@Z
_TEXT	SEGMENT
___formal$ = 8						; size = 4
?DoDataExchange@CWnd@@MAEXPAVCDataExchange@@@Z PROC	; CWnd::DoDataExchange, COMDAT
; _this$ = ecx

; 561  : 	{ } // default does nothing

  00000	c2 04 00	 ret	 4
?DoDataExchange@CWnd@@MAEXPAVCDataExchange@@@Z ENDP	; CWnd::DoDataExchange
_TEXT	ENDS
; Function compile flags: /Ogtp
; File C:\Program Files (x86)\Microsoft Visual Studio\2019\Community\VC\Tools\MSVC\14.29.30133\atlmfc\include\afxwin2.inl
;	COMDAT ?OnCreate@CWnd@@IAEHPAUtagCREATESTRUCTA@@@Z
_TEXT	SEGMENT
___formal$ = 8						; size = 4
?OnCreate@CWnd@@IAEHPAUtagCREATESTRUCTA@@@Z PROC	; CWnd::OnCreate, COMDAT
; _this$ = ecx

; 296  : 	{ return (int)Default(); }

  00000	e8 00 00 00 00	 call	 ?Default@CWnd@@IAEJXZ	; CWnd::Default
  00005	c2 04 00	 ret	 4
?OnCreate@CWnd@@IAEHPAUtagCREATESTRUCTA@@@Z ENDP	; CWnd::OnCreate
_TEXT	ENDS
; Function compile flags: /Ogtp
; File C:\Program Files (x86)\Microsoft Visual Studio\2019\Community\VC\Tools\MSVC\14.29.30133\atlmfc\include\afx.inl
;	COMDAT ?Dump@CObject@@UBEXAAVCDumpContext@@@Z
_TEXT	SEGMENT
___formal$ = 8						; size = 4
?Dump@CObject@@UBEXAAVCDumpContext@@@Z PROC		; CObject::Dump, COMDAT
; _this$ = ecx

; 122  : 	{ /* no dumping in release builds */ }

  00000	c2 04 00	 ret	 4
?Dump@CObject@@UBEXAAVCDumpContext@@@Z ENDP		; CObject::Dump
_TEXT	ENDS
; Function compile flags: /Ogtp
; File C:\Program Files (x86)\Microsoft Visual Studio\2019\Community\VC\Tools\MSVC\14.29.30133\atlmfc\include\afx.inl
;	COMDAT ?AssertValid@CObject@@UBEXXZ
_TEXT	SEGMENT
?AssertValid@CObject@@UBEXXZ PROC			; CObject::AssertValid, COMDAT
; _this$ = ecx

; 120  : 	{ /* no asserts in release builds */ }

  00000	c2 00 00	 ret	 0
?AssertValid@CObject@@UBEXXZ ENDP			; CObject::AssertValid
_TEXT	ENDS
; Function compile flags: /Ogtp
; File C:\Program Files (x86)\Microsoft Visual Studio\2019\Community\VC\Tools\MSVC\14.29.30133\atlmfc\include\afx.inl
;	COMDAT ?Serialize@CObject@@UAEXAAVCArchive@@@Z
_TEXT	SEGMENT
___formal$ = 8						; size = 4
?Serialize@CObject@@UAEXAAVCArchive@@@Z PROC		; CObject::Serialize, COMDAT
; _this$ = ecx

; 106  : 	{ /* CObject does not serialize anything by default */ }

  00000	c2 04 00	 ret	 4
?Serialize@CObject@@UAEXAAVCArchive@@@Z ENDP		; CObject::Serialize
_TEXT	ENDS
; Function compile flags: /Ogtp
; File D:\git\src\IBK\IBK_DRFN\ProjSrc\SrcDrfn\Chart\HWSTRATEGYCONFIGUREWIZARD\GridCtrl_src\InPlaceEdit.cpp
;	COMDAT ?__empty_global_delete@@YAXPAXI@Z
_TEXT	SEGMENT
___formal$ = 8						; size = 4
___formal$ = 12						; size = 4
?__empty_global_delete@@YAXPAXI@Z PROC			; __empty_global_delete, COMDAT

  00000	c2 00 00	 ret	 0
?__empty_global_delete@@YAXPAXI@Z ENDP			; __empty_global_delete
_TEXT	ENDS
; Function compile flags: /Ogtp
; File D:\git\src\IBK\IBK_DRFN\ProjSrc\SrcDrfn\Chart\HWSTRATEGYCONFIGUREWIZARD\GridCtrl_src\InPlaceEdit.cpp
;	COMDAT ?__empty_global_delete@@YAXPAX@Z
_TEXT	SEGMENT
___formal$ = 8						; size = 4
?__empty_global_delete@@YAXPAX@Z PROC			; __empty_global_delete, COMDAT

  00000	c2 00 00	 ret	 0
?__empty_global_delete@@YAXPAX@Z ENDP			; __empty_global_delete
_TEXT	ENDS
; Function compile flags: /Ogtp
;	COMDAT ??_H@YGXPAXIIP6EPAX0@Z@Z
_TEXT	SEGMENT
___t$ = 8						; size = 4
___s$ = 12						; size = 4
___n$ = 16						; size = 4
___f$ = 20						; size = 4
??_H@YGXPAXIIP6EPAX0@Z@Z PROC				; `vector constructor iterator', COMDAT
  00000	55		 push	 ebp
  00001	8b ec		 mov	 ebp, esp
  00003	56		 push	 esi
  00004	8b 75 10	 mov	 esi, DWORD PTR ___n$[ebp]
  00007	85 f6		 test	 esi, esi
  00009	74 16		 je	 SHORT $LN6@vector
  0000b	53		 push	 ebx
  0000c	8b 5d 14	 mov	 ebx, DWORD PTR ___f$[ebp]
  0000f	57		 push	 edi
  00010	8b 7d 08	 mov	 edi, DWORD PTR ___t$[ebp]
$LL2@vector:
  00013	8b cf		 mov	 ecx, edi
  00015	ff d3		 call	 ebx
  00017	03 7d 0c	 add	 edi, DWORD PTR ___s$[ebp]
  0001a	83 ee 01	 sub	 esi, 1
  0001d	75 f4		 jne	 SHORT $LL2@vector
  0001f	5f		 pop	 edi
  00020	5b		 pop	 ebx
$LN6@vector:
  00021	5e		 pop	 esi
  00022	5d		 pop	 ebp
  00023	c2 10 00	 ret	 16			; 00000010H
??_H@YGXPAXIIP6EPAX0@Z@Z ENDP				; `vector constructor iterator'
_TEXT	ENDS
END
