; Listing generated by Microsoft (R) Optimizing Compiler Version 19.29.30145.0 

	TITLE	D:\git\src\IBK\IBK_DRFN\#DRfn-CS\_Obj\HWStrategyConfigureWizard\LogicEditCtrl.obj
	.686P
	.XMM
	include listing.inc
	.model	flat

INCLUDELIB MSVCRT
INCLUDELIB OLDNAMES

PUBLIC	?__empty_global_delete@@YAXPAX@Z		; __empty_global_delete
PUBLIC	?__empty_global_delete@@YAXPAXI@Z		; __empty_global_delete
PUBLIC	?AfxCrtErrorCheck@@YAHH@Z			; AfxCrtErrorCheck
PUBLIC	??1CObject@@UAE@XZ				; CObject::~CObject
PUBLIC	?Serialize@CObject@@UAEXAAVCArchive@@@Z		; CObject::Serialize
PUBLIC	?AssertValid@CObject@@UBEXXZ			; CObject::AssertValid
PUBLIC	?Dump@CObject@@UBEXAAVCDumpContext@@@Z		; CObject::Dump
PUBLIC	??1CGdiObject@@UAE@XZ				; CGdiObject::~CGdiObject
PUBLIC	??_GCGdiObject@@UAEPAXI@Z			; CGdiObject::`scalar deleting destructor'
PUBLIC	??1CFont@@UAE@XZ				; CFont::~CFont
PUBLIC	??_GCFont@@UAEPAXI@Z				; CFont::`scalar deleting destructor'
PUBLIC	?DoDataExchange@CWnd@@MAEXPAVCDataExchange@@@Z	; CWnd::DoDataExchange
PUBLIC	?BeginModalState@CWnd@@UAEXXZ			; CWnd::BeginModalState
PUBLIC	?EndModalState@CWnd@@UAEXXZ			; CWnd::EndModalState
PUBLIC	??_GCRichEditCtrl@@UAEPAXI@Z			; CRichEditCtrl::`scalar deleting destructor'
PUBLIC	??1CElementInLogic@@QAE@XZ			; CElementInLogic::~CElementInLogic
PUBLIC	??0CLogicEditCtrl@@QAE@XZ			; CLogicEditCtrl::CLogicEditCtrl
PUBLIC	?AddElement@CLogicEditCtrl@@QAEXD@Z		; CLogicEditCtrl::AddElement
PUBLIC	?SwapElement@CLogicEditCtrl@@QAEXDD@Z		; CLogicEditCtrl::SwapElement
PUBLIC	?DeleteElement@CLogicEditCtrl@@QAEXD@Z		; CLogicEditCtrl::DeleteElement
PUBLIC	?ChangeElement@CLogicEditCtrl@@QAEXH@Z		; CLogicEditCtrl::ChangeElement
PUBLIC	?ChangeOperation@CLogicEditCtrl@@QAEXPBD@Z	; CLogicEditCtrl::ChangeOperation
PUBLIC	?Parenthesize@CLogicEditCtrl@@QAEXXZ		; CLogicEditCtrl::Parenthesize
PUBLIC	?Unparenthesize@CLogicEditCtrl@@QAEXXZ		; CLogicEditCtrl::Unparenthesize
PUBLIC	?DeleteAllElement@CLogicEditCtrl@@QAEXXZ	; CLogicEditCtrl::DeleteAllElement
PUBLIC	?GetLogic@CLogicEditCtrl@@QAE?AV?$CStringT@DV?$StrTraitMFC_DLL@DV?$ChTraitsCRT@D@ATL@@@@@ATL@@XZ ; CLogicEditCtrl::GetLogic
PUBLIC	?SetLogic@CLogicEditCtrl@@QAEXPBD@Z		; CLogicEditCtrl::SetLogic
PUBLIC	?UpdateLogic@CLogicEditCtrl@@AAEXXZ		; CLogicEditCtrl::UpdateLogic
PUBLIC	??0?$CArray@VCElementInLogic@@AAV1@@@QAE@XZ	; CArray<CElementInLogic,CElementInLogic &>::CArray<CElementInLogic,CElementInLogic &>
PUBLIC	?SetSize@?$CArray@VCElementInLogic@@AAV1@@@QAEXHH@Z ; CArray<CElementInLogic,CElementInLogic &>::SetSize
PUBLIC	?SetAtGrow@?$CArray@VCElementInLogic@@AAV1@@@QAEXHAAVCElementInLogic@@@Z ; CArray<CElementInLogic,CElementInLogic &>::SetAtGrow
PUBLIC	?InsertAt@?$CArray@VCElementInLogic@@AAV1@@@QAEXHAAVCElementInLogic@@H@Z ; CArray<CElementInLogic,CElementInLogic &>::InsertAt
PUBLIC	?RemoveAt@?$CArray@VCElementInLogic@@AAV1@@@QAEXHH@Z ; CArray<CElementInLogic,CElementInLogic &>::RemoveAt
PUBLIC	??1?$CArray@VCElementInLogic@@AAV1@@@UAE@XZ	; CArray<CElementInLogic,CElementInLogic &>::~CArray<CElementInLogic,CElementInLogic &>
PUBLIC	?Serialize@?$CArray@VCElementInLogic@@AAV1@@@UAEXAAVCArchive@@@Z ; CArray<CElementInLogic,CElementInLogic &>::Serialize
PUBLIC	??_G?$CArray@VCElementInLogic@@AAV1@@@UAEPAXI@Z	; CArray<CElementInLogic,CElementInLogic &>::`scalar deleting destructor'
PUBLIC	?PreTranslateMessage@CLogicEditCtrl@@UAEHPAUtagMSG@@@Z ; CLogicEditCtrl::PreTranslateMessage
PUBLIC	??1CLogicEditCtrl@@UAE@XZ			; CLogicEditCtrl::~CLogicEditCtrl
PUBLIC	?OnLButtonUp@CLogicEditCtrl@@IAEXIVCPoint@@@Z	; CLogicEditCtrl::OnLButtonUp
PUBLIC	?OnLButtonDown@CLogicEditCtrl@@IAEXIVCPoint@@@Z	; CLogicEditCtrl::OnLButtonDown
PUBLIC	?GetThisMessageMap@CLogicEditCtrl@@KGPBUAFX_MSGMAP@@XZ ; CLogicEditCtrl::GetThisMessageMap
PUBLIC	?GetMessageMap@CLogicEditCtrl@@MBEPBUAFX_MSGMAP@@XZ ; CLogicEditCtrl::GetMessageMap
PUBLIC	??_GCLogicEditCtrl@@UAEPAXI@Z			; CLogicEditCtrl::`scalar deleting destructor'
PUBLIC	??$SerializeElements@VCElementInLogic@@@@YGXAAVCArchive@@PAVCElementInLogic@@H@Z ; SerializeElements<CElementInLogic>
PUBLIC	??_R0PAVCException@@@8				; CException * `RTTI Type Descriptor'
PUBLIC	??_C@_00CNPNBAHC@@				; `string'
PUBLIC	??_7CGdiObject@@6B@				; CGdiObject::`vftable'
PUBLIC	??_7CFont@@6B@					; CFont::`vftable'
PUBLIC	??_C@_0HD@JJCHHHNK@C?3?2Program?5Files?5?$CIx86?$CJ?2Microsof@ ; `string'
PUBLIC	??_C@_0BP@OIEOKIDM@Exception?5thrown?5in?5destructor@ ; `string'
PUBLIC	??_C@_0BB@HBOOMJBF@?$CFTs?5?$CI?$CFTs?3?$CFd?$CJ?6?$CFTs@ ; `string'
PUBLIC	??_C@_0N@OMEMOKLE@?$CFTs?5?$CI?$CFTs?3?$CFd?$CJ@ ; `string'
PUBLIC	??_7CRichEditCtrl@@6B@				; CRichEditCtrl::`vftable'
PUBLIC	??_R0?AVCObject@@@8				; CObject `RTTI Type Descriptor'
PUBLIC	??_R3CObject@@8					; CObject::`RTTI Class Hierarchy Descriptor'
PUBLIC	??_R2CObject@@8					; CObject::`RTTI Base Class Array'
PUBLIC	??_R1A@?0A@EA@CObject@@8			; CObject::`RTTI Base Class Descriptor at (0,-1,0,64)'
PUBLIC	??_R4CGdiObject@@6B@				; CGdiObject::`RTTI Complete Object Locator'
PUBLIC	??_R0?AVCGdiObject@@@8				; CGdiObject `RTTI Type Descriptor'
PUBLIC	??_R3CGdiObject@@8				; CGdiObject::`RTTI Class Hierarchy Descriptor'
PUBLIC	??_R2CGdiObject@@8				; CGdiObject::`RTTI Base Class Array'
PUBLIC	??_R1A@?0A@EA@CGdiObject@@8			; CGdiObject::`RTTI Base Class Descriptor at (0,-1,0,64)'
PUBLIC	??_R4CFont@@6B@					; CFont::`RTTI Complete Object Locator'
PUBLIC	??_R0?AVCFont@@@8				; CFont `RTTI Type Descriptor'
PUBLIC	??_R3CFont@@8					; CFont::`RTTI Class Hierarchy Descriptor'
PUBLIC	??_R2CFont@@8					; CFont::`RTTI Base Class Array'
PUBLIC	??_R1A@?0A@EA@CFont@@8				; CFont::`RTTI Base Class Descriptor at (0,-1,0,64)'
PUBLIC	??_R1A@?0A@EA@CWnd@@8				; CWnd::`RTTI Base Class Descriptor at (0,-1,0,64)'
PUBLIC	??_R0?AVCWnd@@@8				; CWnd `RTTI Type Descriptor'
PUBLIC	??_R3CWnd@@8					; CWnd::`RTTI Class Hierarchy Descriptor'
PUBLIC	??_R2CWnd@@8					; CWnd::`RTTI Base Class Array'
PUBLIC	??_R1A@?0A@EA@CCmdTarget@@8			; CCmdTarget::`RTTI Base Class Descriptor at (0,-1,0,64)'
PUBLIC	??_R0?AVCCmdTarget@@@8				; CCmdTarget `RTTI Type Descriptor'
PUBLIC	??_R3CCmdTarget@@8				; CCmdTarget::`RTTI Class Hierarchy Descriptor'
PUBLIC	??_R2CCmdTarget@@8				; CCmdTarget::`RTTI Base Class Array'
PUBLIC	??_R4CRichEditCtrl@@6B@				; CRichEditCtrl::`RTTI Complete Object Locator'
PUBLIC	??_R0?AVCRichEditCtrl@@@8			; CRichEditCtrl `RTTI Type Descriptor'
PUBLIC	??_R3CRichEditCtrl@@8				; CRichEditCtrl::`RTTI Class Hierarchy Descriptor'
PUBLIC	??_R2CRichEditCtrl@@8				; CRichEditCtrl::`RTTI Base Class Array'
PUBLIC	??_R1A@?0A@EA@CRichEditCtrl@@8			; CRichEditCtrl::`RTTI Base Class Descriptor at (0,-1,0,64)'
PUBLIC	??_7?$CArray@VCElementInLogic@@AAV1@@@6B@	; CArray<CElementInLogic,CElementInLogic &>::`vftable'
PUBLIC	??_7CLogicEditCtrl@@6B@				; CLogicEditCtrl::`vftable'
PUBLIC	??_C@_06MFMMLLPC@?$LB?$LM?$LI?$LC?C?$LM@	; `string'
PUBLIC	??_C@_03BOPJPIAM@and@				; `string'
PUBLIC	??_C@_01ODHLEDKK@?$CI@				; `string'
PUBLIC	??_C@_01PKGAHCOL@?$CJ@				; `string'
PUBLIC	??_C@_01DCLJPIOD@?$CB@				; `string'
PUBLIC	??_C@_01CLKCMJKC@?5@				; `string'
PUBLIC	??_C@_04CJGEDOF@next@				; `string'
PUBLIC	??_C@_0CA@BKADIGHL@?$CI?5?$CJ?$LO?H?$LP?$KB?5?$CFs?$MA?$LL?5?$LL?g?$LP?k?G?R?$LM?v?5?$LO?x?$LN?$MA?$LE?O?$LE?Y?4@ ; `string'
PUBLIC	??_C@_02FODMLBIE@or@				; `string'
PUBLIC	??_C@_04LLKPOCGK@?$CFd?$CFd@			; `string'
PUBLIC	??_R4CLogicEditCtrl@@6B@			; CLogicEditCtrl::`RTTI Complete Object Locator'
PUBLIC	??_R0?AVCLogicEditCtrl@@@8			; CLogicEditCtrl `RTTI Type Descriptor'
PUBLIC	??_R3CLogicEditCtrl@@8				; CLogicEditCtrl::`RTTI Class Hierarchy Descriptor'
PUBLIC	??_R2CLogicEditCtrl@@8				; CLogicEditCtrl::`RTTI Base Class Array'
PUBLIC	??_R1A@?0A@EA@CLogicEditCtrl@@8			; CLogicEditCtrl::`RTTI Base Class Descriptor at (0,-1,0,64)'
PUBLIC	??_R4?$CArray@VCElementInLogic@@AAV1@@@6B@	; CArray<CElementInLogic,CElementInLogic &>::`RTTI Complete Object Locator'
PUBLIC	??_R0?AV?$CArray@VCElementInLogic@@AAV1@@@@8	; CArray<CElementInLogic,CElementInLogic &> `RTTI Type Descriptor'
PUBLIC	??_R3?$CArray@VCElementInLogic@@AAV1@@@8	; CArray<CElementInLogic,CElementInLogic &>::`RTTI Class Hierarchy Descriptor'
PUBLIC	??_R2?$CArray@VCElementInLogic@@AAV1@@@8	; CArray<CElementInLogic,CElementInLogic &>::`RTTI Base Class Array'
PUBLIC	??_R1A@?0A@EA@?$CArray@VCElementInLogic@@AAV1@@@8 ; CArray<CElementInLogic,CElementInLogic &>::`RTTI Base Class Descriptor at (0,-1,0,64)'
PUBLIC	__xmm@0000000000000000000000000000000c
EXTRN	??3@YAXPAX@Z:PROC				; operator delete
EXTRN	??3@YAXPAXI@Z:PROC				; operator delete
EXTRN	?__global_delete@@YAXPAXI@Z:PROC		; __global_delete
EXTRN	??_U@YAPAXI@Z:PROC				; operator new[]
EXTRN	??_V@YAXPAX@Z:PROC				; operator delete[]
EXTRN	___std_terminate:PROC
EXTRN	__imp___invalid_parameter_noinfo:PROC
EXTRN	__imp___errno:PROC
EXTRN	__imp__CreateFontIndirectA@4:PROC
EXTRN	__imp__SendMessageA@16:PROC
EXTRN	__imp__EnableWindow@8:PROC
EXTRN	__imp__HideCaret@4:PROC
EXTRN	__imp__GetParent@4:PROC
EXTRN	__imp__atol:PROC
EXTRN	?AfxThrowMemoryException@@YGXXZ:PROC		; AfxThrowMemoryException
EXTRN	?AfxThrowInvalidArgException@@YGXXZ:PROC	; AfxThrowInvalidArgException
EXTRN	?AfxThrowArchiveException@@YGXHPBD@Z:PROC	; AfxThrowArchiveException
EXTRN	?GetRuntimeClass@CObject@@UBEPAUCRuntimeClass@@XZ:PROC ; CObject::GetRuntimeClass
EXTRN	__imp_??A?$CSimpleStringT@D$00@ATL@@QBEDH@Z:PROC
EXTRN	__imp_?Concatenate@?$CSimpleStringT@D$00@ATL@@KAXAAV12@PBDH1H@Z:PROC
EXTRN	__imp_??0?$CStringT@DV?$StrTraitMFC_DLL@DV?$ChTraitsCRT@D@ATL@@@@@ATL@@QAE@XZ:PROC
EXTRN	__imp_??0?$CStringT@DV?$StrTraitMFC_DLL@DV?$ChTraitsCRT@D@ATL@@@@@ATL@@QAE@PAUIAtlStringMgr@1@@Z:PROC
EXTRN	__imp_??0?$CStringT@DV?$StrTraitMFC_DLL@DV?$ChTraitsCRT@D@ATL@@@@@ATL@@QAE@PBD@Z:PROC
EXTRN	__imp_??1?$CStringT@DV?$StrTraitMFC_DLL@DV?$ChTraitsCRT@D@ATL@@@@@ATL@@QAE@XZ:PROC
EXTRN	__imp_??4?$CStringT@DV?$StrTraitMFC_DLL@DV?$ChTraitsCRT@D@ATL@@@@@ATL@@QAEAAV01@ABV01@@Z:PROC
EXTRN	__imp_??4?$CStringT@DV?$StrTraitMFC_DLL@DV?$ChTraitsCRT@D@ATL@@@@@ATL@@QAEAAV01@PBD@Z:PROC
EXTRN	__imp_??4?$CStringT@DV?$StrTraitMFC_DLL@DV?$ChTraitsCRT@D@ATL@@@@@ATL@@QAEAAV01@D@Z:PROC
EXTRN	__imp_??Y?$CStringT@DV?$StrTraitMFC_DLL@DV?$ChTraitsCRT@D@ATL@@@@@ATL@@QAEAAV01@ABV?$CSimpleStringT@D$00@1@@Z:PROC
EXTRN	__imp_??Y?$CStringT@DV?$StrTraitMFC_DLL@DV?$ChTraitsCRT@D@ATL@@@@@ATL@@QAEAAV01@PBD@Z:PROC
EXTRN	__imp_?GetManager@?$CStringT@DV?$StrTraitMFC_DLL@DV?$ChTraitsCRT@D@ATL@@@@@ATL@@QBEPAUIAtlStringMgr@2@XZ:PROC
EXTRN	__imp_?Compare@?$CStringT@DV?$StrTraitMFC_DLL@DV?$ChTraitsCRT@D@ATL@@@@@ATL@@QBEHPBD@Z:PROC
EXTRN	__imp_?Format@?$CStringT@DV?$StrTraitMFC_DLL@DV?$ChTraitsCRT@D@ATL@@@@@ATL@@QAAXPBDZZ:PROC
EXTRN	?Read@CArchive@@QAEIPAXI@Z:PROC			; CArchive::Read
EXTRN	?Write@CArchive@@QAEXPBXI@Z:PROC		; CArchive::Write
EXTRN	?ReadCount@CArchive@@QAEKXZ:PROC		; CArchive::ReadCount
EXTRN	?WriteCount@CArchive@@QAEXK@Z:PROC		; CArchive::WriteCount
EXTRN	??0CUIntArray@@QAE@XZ:PROC			; CUIntArray::CUIntArray
EXTRN	?SetAtGrow@CUIntArray@@QAEXHI@Z:PROC		; CUIntArray::SetAtGrow
EXTRN	?RemoveAt@CUIntArray@@QAEXHH@Z:PROC		; CUIntArray::RemoveAt
EXTRN	??1CUIntArray@@UAE@XZ:PROC			; CUIntArray::~CUIntArray
EXTRN	?GetRuntimeClass@CGdiObject@@UBEPAUCRuntimeClass@@XZ:PROC ; CGdiObject::GetRuntimeClass
EXTRN	?Attach@CGdiObject@@QAEHPAX@Z:PROC		; CGdiObject::Attach
EXTRN	?DeleteObject@CGdiObject@@QAEHXZ:PROC		; CGdiObject::DeleteObject
EXTRN	??_ECGdiObject@@UAEPAXI@Z:PROC			; CGdiObject::`vector deleting destructor'
EXTRN	?GetRuntimeClass@CFont@@UBEPAUCRuntimeClass@@XZ:PROC ; CFont::GetRuntimeClass
EXTRN	??_ECFont@@UAEPAXI@Z:PROC			; CFont::`vector deleting destructor'
EXTRN	?OnCmdMsg@CCmdTarget@@UAEHIHPAXPAUAFX_CMDHANDLERINFO@@@Z:PROC ; CCmdTarget::OnCmdMsg
EXTRN	?IsInvokeAllowed@CCmdTarget@@UAEHJ@Z:PROC	; CCmdTarget::IsInvokeAllowed
EXTRN	?GetDispatchIID@CCmdTarget@@UAEHPAU_GUID@@@Z:PROC ; CCmdTarget::GetDispatchIID
EXTRN	?GetTypeInfoCount@CCmdTarget@@UAEIXZ:PROC	; CCmdTarget::GetTypeInfoCount
EXTRN	?GetTypeLibCache@CCmdTarget@@UAEPAVCTypeLibCache@@XZ:PROC ; CCmdTarget::GetTypeLibCache
EXTRN	?GetTypeLib@CCmdTarget@@UAEJKPAPAUITypeLib@@@Z:PROC ; CCmdTarget::GetTypeLib
EXTRN	?GetCommandMap@CCmdTarget@@MBEPBUAFX_OLECMDMAP@@XZ:PROC ; CCmdTarget::GetCommandMap
EXTRN	?GetDispatchMap@CCmdTarget@@MBEPBUAFX_DISPMAP@@XZ:PROC ; CCmdTarget::GetDispatchMap
EXTRN	?GetConnectionMap@CCmdTarget@@MBEPBUAFX_CONNECTIONMAP@@XZ:PROC ; CCmdTarget::GetConnectionMap
EXTRN	?GetEventSinkMap@CCmdTarget@@MBEPBUAFX_EVENTSINKMAP@@XZ:PROC ; CCmdTarget::GetEventSinkMap
EXTRN	?OnCreateAggregates@CCmdTarget@@UAEHXZ:PROC	; CCmdTarget::OnCreateAggregates
EXTRN	?GetInterfaceHook@CCmdTarget@@UAEPAUIUnknown@@PBX@Z:PROC ; CCmdTarget::GetInterfaceHook
EXTRN	?GetExtraConnectionPoints@CCmdTarget@@MAEHPAVCPtrArray@@@Z:PROC ; CCmdTarget::GetExtraConnectionPoints
EXTRN	?GetConnectionHook@CCmdTarget@@MAEPAUIConnectionPoint@@ABU_GUID@@@Z:PROC ; CCmdTarget::GetConnectionHook
EXTRN	??0CWnd@@QAE@XZ:PROC				; CWnd::CWnd
EXTRN	?FromHandle@CWnd@@SGPAV1@PAUHWND__@@@Z:PROC	; CWnd::FromHandle
EXTRN	?PreSubclassWindow@CWnd@@UAEXXZ:PROC		; CWnd::PreSubclassWindow
EXTRN	?Create@CWnd@@UAEHPBD0KABUtagRECT@@PAV1@IPAUCCreateContext@@@Z:PROC ; CWnd::Create
EXTRN	?CreateEx@CWnd@@UAEHKPBD0KHHHHPAUHWND__@@PAUHMENU__@@PAX@Z:PROC ; CWnd::CreateEx
EXTRN	?CreateEx@CWnd@@UAEHKPBD0KABUtagRECT@@PAV1@IPAX@Z:PROC ; CWnd::CreateEx
EXTRN	?DestroyWindow@CWnd@@UAEHXZ:PROC		; CWnd::DestroyWindow
EXTRN	?PreCreateWindow@CWnd@@UAEHAAUtagCREATESTRUCTA@@@Z:PROC ; CWnd::PreCreateWindow
EXTRN	?CalcWindowRect@CWnd@@UAEXPAUtagRECT@@I@Z:PROC	; CWnd::CalcWindowRect
EXTRN	?SetWindowTextA@CWnd@@QAEXPBD@Z:PROC		; CWnd::SetWindowTextA
EXTRN	?GetMenu@CWnd@@UBEPAVCMenu@@XZ:PROC		; CWnd::GetMenu
EXTRN	?SetMenu@CWnd@@UAEHPAVCMenu@@@Z:PROC		; CWnd::SetMenu
EXTRN	?OnToolHitTest@CWnd@@UBEHVCPoint@@PAUtagTOOLINFOA@@@Z:PROC ; CWnd::OnToolHitTest
EXTRN	?GetScrollBarCtrl@CWnd@@UBEPAVCScrollBar@@H@Z:PROC ; CWnd::GetScrollBarCtrl
EXTRN	?MessageBoxA@CWnd@@QAEHPBD0I@Z:PROC		; CWnd::MessageBoxA
EXTRN	?WinHelpA@CWnd@@UAEXKI@Z:PROC			; CWnd::WinHelpA
EXTRN	?HtmlHelpA@CWnd@@UAEXKI@Z:PROC			; CWnd::HtmlHelpA
EXTRN	?WinHelpInternal@CWnd@@UAEXKI@Z:PROC		; CWnd::WinHelpInternal
EXTRN	?ContinueModal@CWnd@@UAEHXZ:PROC		; CWnd::ContinueModal
EXTRN	?EndModalLoop@CWnd@@UAEXH@Z:PROC		; CWnd::EndModalLoop
EXTRN	?OnDrawIconicThumbnailOrLivePreview@CWnd@@UAEXAAVCDC@@VCRect@@VCSize@@HAAH@Z:PROC ; CWnd::OnDrawIconicThumbnailOrLivePreview
EXTRN	?GetInterfaceMap@CWnd@@MBEPBUAFX_INTERFACEMAP@@XZ:PROC ; CWnd::GetInterfaceMap
EXTRN	?EnsureStdObj@CWnd@@UAEJXZ:PROC			; CWnd::EnsureStdObj
EXTRN	?get_accParent@CWnd@@UAEJPAPAUIDispatch@@@Z:PROC ; CWnd::get_accParent
EXTRN	?get_accChildCount@CWnd@@UAEJPAJ@Z:PROC		; CWnd::get_accChildCount
EXTRN	?get_accChild@CWnd@@UAEJUtagVARIANT@@PAPAUIDispatch@@@Z:PROC ; CWnd::get_accChild
EXTRN	?get_accName@CWnd@@UAEJUtagVARIANT@@PAPA_W@Z:PROC ; CWnd::get_accName
EXTRN	?get_accValue@CWnd@@UAEJUtagVARIANT@@PAPA_W@Z:PROC ; CWnd::get_accValue
EXTRN	?get_accDescription@CWnd@@UAEJUtagVARIANT@@PAPA_W@Z:PROC ; CWnd::get_accDescription
EXTRN	?get_accRole@CWnd@@UAEJUtagVARIANT@@PAU2@@Z:PROC ; CWnd::get_accRole
EXTRN	?get_accState@CWnd@@UAEJUtagVARIANT@@PAU2@@Z:PROC ; CWnd::get_accState
EXTRN	?get_accHelp@CWnd@@UAEJUtagVARIANT@@PAPA_W@Z:PROC ; CWnd::get_accHelp
EXTRN	?get_accHelpTopic@CWnd@@UAEJPAPA_WUtagVARIANT@@PAJ@Z:PROC ; CWnd::get_accHelpTopic
EXTRN	?get_accKeyboardShortcut@CWnd@@UAEJUtagVARIANT@@PAPA_W@Z:PROC ; CWnd::get_accKeyboardShortcut
EXTRN	?get_accFocus@CWnd@@UAEJPAUtagVARIANT@@@Z:PROC	; CWnd::get_accFocus
EXTRN	?get_accSelection@CWnd@@UAEJPAUtagVARIANT@@@Z:PROC ; CWnd::get_accSelection
EXTRN	?get_accDefaultAction@CWnd@@UAEJUtagVARIANT@@PAPA_W@Z:PROC ; CWnd::get_accDefaultAction
EXTRN	?accSelect@CWnd@@UAEJJUtagVARIANT@@@Z:PROC	; CWnd::accSelect
EXTRN	?accLocation@CWnd@@UAEJPAJ000UtagVARIANT@@@Z:PROC ; CWnd::accLocation
EXTRN	?accNavigate@CWnd@@UAEJJUtagVARIANT@@PAU2@@Z:PROC ; CWnd::accNavigate
EXTRN	?accHitTest@CWnd@@UAEJJJPAUtagVARIANT@@@Z:PROC	; CWnd::accHitTest
EXTRN	?accDoDefaultAction@CWnd@@UAEJUtagVARIANT@@@Z:PROC ; CWnd::accDoDefaultAction
EXTRN	?put_accName@CWnd@@UAEJUtagVARIANT@@PA_W@Z:PROC	; CWnd::put_accName
EXTRN	?put_accValue@CWnd@@UAEJUtagVARIANT@@PA_W@Z:PROC ; CWnd::put_accValue
EXTRN	?SetProxy@CWnd@@UAEJPAUIAccessibleProxy@@@Z:PROC ; CWnd::SetProxy
EXTRN	?CreateAccessibleProxy@CWnd@@UAEJIJPAJ@Z:PROC	; CWnd::CreateAccessibleProxy
EXTRN	?OnCommand@CWnd@@MAEHIJ@Z:PROC			; CWnd::OnCommand
EXTRN	?OnNotify@CWnd@@MAEHIJPAJ@Z:PROC		; CWnd::OnNotify
EXTRN	?GetSuperWndProcAddr@CWnd@@MAEPAP6GJPAUHWND__@@IIJ@ZXZ:PROC ; CWnd::GetSuperWndProcAddr
EXTRN	?PreTranslateMessage@CWnd@@UAEHPAUtagMSG@@@Z:PROC ; CWnd::PreTranslateMessage
EXTRN	?OnAmbientProperty@CWnd@@UAEHPAVCOleControlSite@@JPAUtagVARIANT@@@Z:PROC ; CWnd::OnAmbientProperty
EXTRN	?WindowProc@CWnd@@MAEJIIJ@Z:PROC		; CWnd::WindowProc
EXTRN	?OnWndMsg@CWnd@@MAEHIIJPAJ@Z:PROC		; CWnd::OnWndMsg
EXTRN	?Default@CWnd@@IAEJXZ:PROC			; CWnd::Default
EXTRN	?DefWindowProcA@CWnd@@MAEJIIJ@Z:PROC		; CWnd::DefWindowProcA
EXTRN	?PostNcDestroy@CWnd@@MAEXXZ:PROC		; CWnd::PostNcDestroy
EXTRN	?OnChildNotify@CWnd@@MAEHIIJPAJ@Z:PROC		; CWnd::OnChildNotify
EXTRN	?OnTouchInputs@CWnd@@MAEHIPAUtagTOUCHINPUT@@@Z:PROC ; CWnd::OnTouchInputs
EXTRN	?OnTouchInput@CWnd@@MAEHVCPoint@@HHPAUtagTOUCHINPUT@@@Z:PROC ; CWnd::OnTouchInput
EXTRN	?GetGestureStatus@CWnd@@MAEKVCPoint@@@Z:PROC	; CWnd::GetGestureStatus
EXTRN	?OnGestureZoom@CWnd@@MAEHVCPoint@@J@Z:PROC	; CWnd::OnGestureZoom
EXTRN	?OnGesturePan@CWnd@@MAEHVCPoint@@0@Z:PROC	; CWnd::OnGesturePan
EXTRN	?OnGestureRotate@CWnd@@MAEHVCPoint@@N@Z:PROC	; CWnd::OnGestureRotate
EXTRN	?OnGestureTwoFingerTap@CWnd@@MAEHVCPoint@@@Z:PROC ; CWnd::OnGestureTwoFingerTap
EXTRN	?OnGesturePressAndTap@CWnd@@MAEHVCPoint@@J@Z:PROC ; CWnd::OnGesturePressAndTap
EXTRN	?ResizeDynamicLayout@CWnd@@MAEXXZ:PROC		; CWnd::ResizeDynamicLayout
EXTRN	?CheckAutoCenter@CWnd@@UAEHXZ:PROC		; CWnd::CheckAutoCenter
EXTRN	?IsFrameWnd@CWnd@@UBEHXZ:PROC			; CWnd::IsFrameWnd
EXTRN	?OnFinalRelease@CWnd@@UAEXXZ:PROC		; CWnd::OnFinalRelease
EXTRN	?CreateControlContainer@CWnd@@MAEHPAPAVCOleControlContainer@@@Z:PROC ; CWnd::CreateControlContainer
EXTRN	?CreateControlSite@CWnd@@MAEHPAVCOleControlContainer@@PAPAVCOleControlSite@@IABU_GUID@@@Z:PROC ; CWnd::CreateControlSite
EXTRN	?SetOccDialogInfo@CWnd@@MAEHPAU_AFX_OCC_DIALOG_INFO@@@Z:PROC ; CWnd::SetOccDialogInfo
EXTRN	?GetOccDialogInfo@CWnd@@MAEPAU_AFX_OCC_DIALOG_INFO@@XZ:PROC ; CWnd::GetOccDialogInfo
EXTRN	?GetThisMessageMap@CWnd@@KGPBUAFX_MSGMAP@@XZ:PROC ; CWnd::GetThisMessageMap
EXTRN	?GetMessageMap@CWnd@@MBEPBUAFX_MSGMAP@@XZ:PROC	; CWnd::GetMessageMap
EXTRN	?AfxMessageBox@@YGHPBDII@Z:PROC			; AfxMessageBox
EXTRN	?GetRuntimeClass@CRichEditCtrl@@UBEPAUCRuntimeClass@@XZ:PROC ; CRichEditCtrl::GetRuntimeClass
EXTRN	?GetSel@CRichEditCtrl@@QBEXAAJ0@Z:PROC		; CRichEditCtrl::GetSel
EXTRN	?SetSel@CRichEditCtrl@@QAEXJJ@Z:PROC		; CRichEditCtrl::SetSel
EXTRN	?SetSelectionCharFormat@CRichEditCtrl@@QAEHAAU_charformat@@@Z:PROC ; CRichEditCtrl::SetSelectionCharFormat
EXTRN	??1CRichEditCtrl@@UAE@XZ:PROC			; CRichEditCtrl::~CRichEditCtrl
EXTRN	??_ECRichEditCtrl@@UAEPAXI@Z:PROC		; CRichEditCtrl::`vector deleting destructor'
EXTRN	??_E?$CArray@VCElementInLogic@@AAV1@@@UAEPAXI@Z:PROC ; CArray<CElementInLogic,CElementInLogic &>::`vector deleting destructor'
EXTRN	??_ECLogicEditCtrl@@UAEPAXI@Z:PROC		; CLogicEditCtrl::`vector deleting destructor'
EXTRN	@__security_check_cookie@4:PROC
EXTRN	___CxxFrameHandler3:PROC
EXTRN	_memcpy:PROC
EXTRN	_memmove:PROC
EXTRN	_memset:PROC
EXTRN	??_7type_info@@6B@:QWORD			; type_info::`vftable'
EXTRN	___security_cookie:DWORD
;	COMDAT __xmm@0000000000000000000000000000000c
CONST	SEGMENT
__xmm@0000000000000000000000000000000c DB 0cH, 00H, 00H, 00H, 00H, 00H, 00H
	DB	00H, 00H, 00H, 00H, 00H, 00H, 00H, 00H, 00H
CONST	ENDS
;	COMDAT ??_R1A@?0A@EA@?$CArray@VCElementInLogic@@AAV1@@@8
rdata$r	SEGMENT
??_R1A@?0A@EA@?$CArray@VCElementInLogic@@AAV1@@@8 DD FLAT:??_R0?AV?$CArray@VCElementInLogic@@AAV1@@@@8 ; CArray<CElementInLogic,CElementInLogic &>::`RTTI Base Class Descriptor at (0,-1,0,64)'
	DD	01H
	DD	00H
	DD	0ffffffffH
	DD	00H
	DD	040H
	DD	FLAT:??_R3?$CArray@VCElementInLogic@@AAV1@@@8
rdata$r	ENDS
;	COMDAT ??_R2?$CArray@VCElementInLogic@@AAV1@@@8
rdata$r	SEGMENT
??_R2?$CArray@VCElementInLogic@@AAV1@@@8 DD FLAT:??_R1A@?0A@EA@?$CArray@VCElementInLogic@@AAV1@@@8 ; CArray<CElementInLogic,CElementInLogic &>::`RTTI Base Class Array'
	DD	FLAT:??_R1A@?0A@EA@CObject@@8
rdata$r	ENDS
;	COMDAT ??_R3?$CArray@VCElementInLogic@@AAV1@@@8
rdata$r	SEGMENT
??_R3?$CArray@VCElementInLogic@@AAV1@@@8 DD 00H		; CArray<CElementInLogic,CElementInLogic &>::`RTTI Class Hierarchy Descriptor'
	DD	00H
	DD	02H
	DD	FLAT:??_R2?$CArray@VCElementInLogic@@AAV1@@@8
rdata$r	ENDS
;	COMDAT ??_R0?AV?$CArray@VCElementInLogic@@AAV1@@@@8
data$rs	SEGMENT
??_R0?AV?$CArray@VCElementInLogic@@AAV1@@@@8 DD FLAT:??_7type_info@@6B@ ; CArray<CElementInLogic,CElementInLogic &> `RTTI Type Descriptor'
	DD	00H
	DB	'.?AV?$CArray@VCElementInLogic@@AAV1@@@', 00H
data$rs	ENDS
;	COMDAT ??_R4?$CArray@VCElementInLogic@@AAV1@@@6B@
rdata$r	SEGMENT
??_R4?$CArray@VCElementInLogic@@AAV1@@@6B@ DD 00H	; CArray<CElementInLogic,CElementInLogic &>::`RTTI Complete Object Locator'
	DD	00H
	DD	00H
	DD	FLAT:??_R0?AV?$CArray@VCElementInLogic@@AAV1@@@@8
	DD	FLAT:??_R3?$CArray@VCElementInLogic@@AAV1@@@8
rdata$r	ENDS
;	COMDAT ??_R1A@?0A@EA@CLogicEditCtrl@@8
rdata$r	SEGMENT
??_R1A@?0A@EA@CLogicEditCtrl@@8 DD FLAT:??_R0?AVCLogicEditCtrl@@@8 ; CLogicEditCtrl::`RTTI Base Class Descriptor at (0,-1,0,64)'
	DD	04H
	DD	00H
	DD	0ffffffffH
	DD	00H
	DD	040H
	DD	FLAT:??_R3CLogicEditCtrl@@8
rdata$r	ENDS
;	COMDAT ??_R2CLogicEditCtrl@@8
rdata$r	SEGMENT
??_R2CLogicEditCtrl@@8 DD FLAT:??_R1A@?0A@EA@CLogicEditCtrl@@8 ; CLogicEditCtrl::`RTTI Base Class Array'
	DD	FLAT:??_R1A@?0A@EA@CRichEditCtrl@@8
	DD	FLAT:??_R1A@?0A@EA@CWnd@@8
	DD	FLAT:??_R1A@?0A@EA@CCmdTarget@@8
	DD	FLAT:??_R1A@?0A@EA@CObject@@8
rdata$r	ENDS
;	COMDAT ??_R3CLogicEditCtrl@@8
rdata$r	SEGMENT
??_R3CLogicEditCtrl@@8 DD 00H				; CLogicEditCtrl::`RTTI Class Hierarchy Descriptor'
	DD	00H
	DD	05H
	DD	FLAT:??_R2CLogicEditCtrl@@8
rdata$r	ENDS
;	COMDAT ??_R0?AVCLogicEditCtrl@@@8
data$rs	SEGMENT
??_R0?AVCLogicEditCtrl@@@8 DD FLAT:??_7type_info@@6B@	; CLogicEditCtrl `RTTI Type Descriptor'
	DD	00H
	DB	'.?AVCLogicEditCtrl@@', 00H
data$rs	ENDS
;	COMDAT ??_R4CLogicEditCtrl@@6B@
rdata$r	SEGMENT
??_R4CLogicEditCtrl@@6B@ DD 00H				; CLogicEditCtrl::`RTTI Complete Object Locator'
	DD	00H
	DD	00H
	DD	FLAT:??_R0?AVCLogicEditCtrl@@@8
	DD	FLAT:??_R3CLogicEditCtrl@@8
rdata$r	ENDS
;	COMDAT ??_C@_04LLKPOCGK@?$CFd?$CFd@
CONST	SEGMENT
??_C@_04LLKPOCGK@?$CFd?$CFd@ DB '%d%d', 00H		; `string'
CONST	ENDS
;	COMDAT ??_C@_02FODMLBIE@or@
CONST	SEGMENT
??_C@_02FODMLBIE@or@ DB 'or', 00H			; `string'
CONST	ENDS
;	COMDAT ??_C@_0CA@BKADIGHL@?$CI?5?$CJ?$LO?H?$LP?$KB?5?$CFs?$MA?$LL?5?$LL?g?$LP?k?G?R?$LM?v?5?$LO?x?$LN?$MA?$LE?O?$LE?Y?4@
CONST	SEGMENT
??_C@_0CA@BKADIGHL@?$CI?5?$CJ?$LO?H?$LP?$KB?5?$CFs?$MA?$LL?5?$LL?g?$LP?k?G?R?$LM?v?5?$LO?x?$LN?$MA?$LE?O?$LE?Y?4@ DB '('
	DB	' )', 0beH, 0c8H, 0bfH, 0a1H, ' %s', 0c0H, 0bbH, ' ', 0bbH, 0e7H
	DB	0bfH, 0ebH, 0c7H, 0d2H, 0bcH, 0f6H, ' ', 0beH, 0f8H, 0bdH, 0c0H
	DB	0b4H, 0cfH, 0b4H, 0d9H, '.', 00H		; `string'
CONST	ENDS
;	COMDAT ??_C@_04CJGEDOF@next@
CONST	SEGMENT
??_C@_04CJGEDOF@next@ DB 'next', 00H			; `string'
CONST	ENDS
;	COMDAT ??_C@_01CLKCMJKC@?5@
CONST	SEGMENT
??_C@_01CLKCMJKC@?5@ DB ' ', 00H			; `string'
CONST	ENDS
;	COMDAT ??_C@_01DCLJPIOD@?$CB@
CONST	SEGMENT
??_C@_01DCLJPIOD@?$CB@ DB '!', 00H			; `string'
CONST	ENDS
;	COMDAT ??_C@_01PKGAHCOL@?$CJ@
CONST	SEGMENT
??_C@_01PKGAHCOL@?$CJ@ DB ')', 00H			; `string'
CONST	ENDS
;	COMDAT ??_C@_01ODHLEDKK@?$CI@
CONST	SEGMENT
??_C@_01ODHLEDKK@?$CI@ DB '(', 00H			; `string'
CONST	ENDS
;	COMDAT ??_C@_03BOPJPIAM@and@
CONST	SEGMENT
??_C@_03BOPJPIAM@and@ DB 'and', 00H			; `string'
CONST	ENDS
;	COMDAT ?messageMap@?1??GetThisMessageMap@CLogicEditCtrl@@KGPBUAFX_MSGMAP@@XZ@4U3@B
CONST	SEGMENT
?messageMap@?1??GetThisMessageMap@CLogicEditCtrl@@KGPBUAFX_MSGMAP@@XZ@4U3@B DD FLAT:?GetThisMessageMap@CWnd@@KGPBUAFX_MSGMAP@@XZ ; `CLogicEditCtrl::GetThisMessageMap'::`2'::messageMap
	DD	FLAT:?_messageEntries@?1??GetThisMessageMap@CLogicEditCtrl@@KGPBUAFX_MSGMAP@@XZ@4QBUAFX_MSGMAP_ENTRY@@B
CONST	ENDS
;	COMDAT ?_messageEntries@?1??GetThisMessageMap@CLogicEditCtrl@@KGPBUAFX_MSGMAP@@XZ@4QBUAFX_MSGMAP_ENTRY@@B
CONST	SEGMENT
?_messageEntries@?1??GetThisMessageMap@CLogicEditCtrl@@KGPBUAFX_MSGMAP@@XZ@4QBUAFX_MSGMAP_ENTRY@@B DD 0202H ; `CLogicEditCtrl::GetThisMessageMap'::`2'::_messageEntries
	DD	00H
	DD	00H
	DD	00H
	DD	036H
	DD	FLAT:?OnLButtonUp@CLogicEditCtrl@@IAEXIVCPoint@@@Z
	DD	0201H
	DD	00H
	DD	00H
	DD	00H
	DD	036H
	DD	FLAT:?OnLButtonDown@CLogicEditCtrl@@IAEXIVCPoint@@@Z
	DD	00H
	DD	00H
	DD	00H
	DD	00H
	DD	00H
	DD	00H
CONST	ENDS
;	COMDAT ??_C@_06MFMMLLPC@?$LB?$LM?$LI?$LC?C?$LM@
CONST	SEGMENT
??_C@_06MFMMLLPC@?$LB?$LM?$LI?$LC?C?$LM@ DB 0b1H, 0bcH, 0b8H, 0b2H, 0c3H, 0bcH
	DB	00H						; `string'
CONST	ENDS
;	COMDAT ??_7CLogicEditCtrl@@6B@
CONST	SEGMENT
??_7CLogicEditCtrl@@6B@ DD FLAT:??_R4CLogicEditCtrl@@6B@ ; CLogicEditCtrl::`vftable'
	DD	FLAT:?GetRuntimeClass@CRichEditCtrl@@UBEPAUCRuntimeClass@@XZ
	DD	FLAT:??_ECLogicEditCtrl@@UAEPAXI@Z
	DD	FLAT:?Serialize@CObject@@UAEXAAVCArchive@@@Z
	DD	FLAT:?AssertValid@CObject@@UBEXXZ
	DD	FLAT:?Dump@CObject@@UBEXAAVCDumpContext@@@Z
	DD	FLAT:?OnCmdMsg@CCmdTarget@@UAEHIHPAXPAUAFX_CMDHANDLERINFO@@@Z
	DD	FLAT:?OnFinalRelease@CWnd@@UAEXXZ
	DD	FLAT:?IsInvokeAllowed@CCmdTarget@@UAEHJ@Z
	DD	FLAT:?GetDispatchIID@CCmdTarget@@UAEHPAU_GUID@@@Z
	DD	FLAT:?GetTypeInfoCount@CCmdTarget@@UAEIXZ
	DD	FLAT:?GetTypeLibCache@CCmdTarget@@UAEPAVCTypeLibCache@@XZ
	DD	FLAT:?GetTypeLib@CCmdTarget@@UAEJKPAPAUITypeLib@@@Z
	DD	FLAT:?GetMessageMap@CLogicEditCtrl@@MBEPBUAFX_MSGMAP@@XZ
	DD	FLAT:?GetCommandMap@CCmdTarget@@MBEPBUAFX_OLECMDMAP@@XZ
	DD	FLAT:?GetDispatchMap@CCmdTarget@@MBEPBUAFX_DISPMAP@@XZ
	DD	FLAT:?GetConnectionMap@CCmdTarget@@MBEPBUAFX_CONNECTIONMAP@@XZ
	DD	FLAT:?GetInterfaceMap@CWnd@@MBEPBUAFX_INTERFACEMAP@@XZ
	DD	FLAT:?GetEventSinkMap@CCmdTarget@@MBEPBUAFX_EVENTSINKMAP@@XZ
	DD	FLAT:?OnCreateAggregates@CCmdTarget@@UAEHXZ
	DD	FLAT:?GetInterfaceHook@CCmdTarget@@UAEPAUIUnknown@@PBX@Z
	DD	FLAT:?GetExtraConnectionPoints@CCmdTarget@@MAEHPAVCPtrArray@@@Z
	DD	FLAT:?GetConnectionHook@CCmdTarget@@MAEPAUIConnectionPoint@@ABU_GUID@@@Z
	DD	FLAT:?PreSubclassWindow@CWnd@@UAEXXZ
	DD	FLAT:?Create@CWnd@@UAEHPBD0KABUtagRECT@@PAV1@IPAUCCreateContext@@@Z
	DD	FLAT:?CreateEx@CWnd@@UAEHKPBD0KABUtagRECT@@PAV1@IPAX@Z
	DD	FLAT:?CreateEx@CWnd@@UAEHKPBD0KHHHHPAUHWND__@@PAUHMENU__@@PAX@Z
	DD	FLAT:?DestroyWindow@CWnd@@UAEHXZ
	DD	FLAT:?PreCreateWindow@CWnd@@UAEHAAUtagCREATESTRUCTA@@@Z
	DD	FLAT:?CalcWindowRect@CWnd@@UAEXPAUtagRECT@@I@Z
	DD	FLAT:?GetMenu@CWnd@@UBEPAVCMenu@@XZ
	DD	FLAT:?SetMenu@CWnd@@UAEHPAVCMenu@@@Z
	DD	FLAT:?OnToolHitTest@CWnd@@UBEHVCPoint@@PAUtagTOOLINFOA@@@Z
	DD	FLAT:?GetScrollBarCtrl@CWnd@@UBEPAVCScrollBar@@H@Z
	DD	FLAT:?WinHelpA@CWnd@@UAEXKI@Z
	DD	FLAT:?HtmlHelpA@CWnd@@UAEXKI@Z
	DD	FLAT:?WinHelpInternal@CWnd@@UAEXKI@Z
	DD	FLAT:?ContinueModal@CWnd@@UAEHXZ
	DD	FLAT:?EndModalLoop@CWnd@@UAEXH@Z
	DD	FLAT:?OnDrawIconicThumbnailOrLivePreview@CWnd@@UAEXAAVCDC@@VCRect@@VCSize@@HAAH@Z
	DD	FLAT:?EnsureStdObj@CWnd@@UAEJXZ
	DD	FLAT:?get_accParent@CWnd@@UAEJPAPAUIDispatch@@@Z
	DD	FLAT:?get_accChildCount@CWnd@@UAEJPAJ@Z
	DD	FLAT:?get_accChild@CWnd@@UAEJUtagVARIANT@@PAPAUIDispatch@@@Z
	DD	FLAT:?get_accName@CWnd@@UAEJUtagVARIANT@@PAPA_W@Z
	DD	FLAT:?get_accValue@CWnd@@UAEJUtagVARIANT@@PAPA_W@Z
	DD	FLAT:?get_accDescription@CWnd@@UAEJUtagVARIANT@@PAPA_W@Z
	DD	FLAT:?get_accRole@CWnd@@UAEJUtagVARIANT@@PAU2@@Z
	DD	FLAT:?get_accState@CWnd@@UAEJUtagVARIANT@@PAU2@@Z
	DD	FLAT:?get_accHelp@CWnd@@UAEJUtagVARIANT@@PAPA_W@Z
	DD	FLAT:?get_accHelpTopic@CWnd@@UAEJPAPA_WUtagVARIANT@@PAJ@Z
	DD	FLAT:?get_accKeyboardShortcut@CWnd@@UAEJUtagVARIANT@@PAPA_W@Z
	DD	FLAT:?get_accFocus@CWnd@@UAEJPAUtagVARIANT@@@Z
	DD	FLAT:?get_accSelection@CWnd@@UAEJPAUtagVARIANT@@@Z
	DD	FLAT:?get_accDefaultAction@CWnd@@UAEJUtagVARIANT@@PAPA_W@Z
	DD	FLAT:?accSelect@CWnd@@UAEJJUtagVARIANT@@@Z
	DD	FLAT:?accLocation@CWnd@@UAEJPAJ000UtagVARIANT@@@Z
	DD	FLAT:?accNavigate@CWnd@@UAEJJUtagVARIANT@@PAU2@@Z
	DD	FLAT:?accHitTest@CWnd@@UAEJJJPAUtagVARIANT@@@Z
	DD	FLAT:?accDoDefaultAction@CWnd@@UAEJUtagVARIANT@@@Z
	DD	FLAT:?put_accName@CWnd@@UAEJUtagVARIANT@@PA_W@Z
	DD	FLAT:?put_accValue@CWnd@@UAEJUtagVARIANT@@PA_W@Z
	DD	FLAT:?SetProxy@CWnd@@UAEJPAUIAccessibleProxy@@@Z
	DD	FLAT:?CreateAccessibleProxy@CWnd@@UAEJIJPAJ@Z
	DD	FLAT:?OnCommand@CWnd@@MAEHIJ@Z
	DD	FLAT:?OnNotify@CWnd@@MAEHIJPAJ@Z
	DD	FLAT:?GetSuperWndProcAddr@CWnd@@MAEPAP6GJPAUHWND__@@IIJ@ZXZ
	DD	FLAT:?DoDataExchange@CWnd@@MAEXPAVCDataExchange@@@Z
	DD	FLAT:?BeginModalState@CWnd@@UAEXXZ
	DD	FLAT:?EndModalState@CWnd@@UAEXXZ
	DD	FLAT:?PreTranslateMessage@CLogicEditCtrl@@UAEHPAUtagMSG@@@Z
	DD	FLAT:?OnAmbientProperty@CWnd@@UAEHPAVCOleControlSite@@JPAUtagVARIANT@@@Z
	DD	FLAT:?WindowProc@CWnd@@MAEJIIJ@Z
	DD	FLAT:?OnWndMsg@CWnd@@MAEHIIJPAJ@Z
	DD	FLAT:?DefWindowProcA@CWnd@@MAEJIIJ@Z
	DD	FLAT:?PostNcDestroy@CWnd@@MAEXXZ
	DD	FLAT:?OnChildNotify@CWnd@@MAEHIIJPAJ@Z
	DD	FLAT:?OnTouchInputs@CWnd@@MAEHIPAUtagTOUCHINPUT@@@Z
	DD	FLAT:?OnTouchInput@CWnd@@MAEHVCPoint@@HHPAUtagTOUCHINPUT@@@Z
	DD	FLAT:?GetGestureStatus@CWnd@@MAEKVCPoint@@@Z
	DD	FLAT:?OnGestureZoom@CWnd@@MAEHVCPoint@@J@Z
	DD	FLAT:?OnGesturePan@CWnd@@MAEHVCPoint@@0@Z
	DD	FLAT:?OnGestureRotate@CWnd@@MAEHVCPoint@@N@Z
	DD	FLAT:?OnGestureTwoFingerTap@CWnd@@MAEHVCPoint@@@Z
	DD	FLAT:?OnGesturePressAndTap@CWnd@@MAEHVCPoint@@J@Z
	DD	FLAT:?ResizeDynamicLayout@CWnd@@MAEXXZ
	DD	FLAT:?CheckAutoCenter@CWnd@@UAEHXZ
	DD	FLAT:?IsFrameWnd@CWnd@@UBEHXZ
	DD	FLAT:?CreateControlContainer@CWnd@@MAEHPAPAVCOleControlContainer@@@Z
	DD	FLAT:?CreateControlSite@CWnd@@MAEHPAVCOleControlContainer@@PAPAVCOleControlSite@@IABU_GUID@@@Z
	DD	FLAT:?SetOccDialogInfo@CWnd@@MAEHPAU_AFX_OCC_DIALOG_INFO@@@Z
	DD	FLAT:?GetOccDialogInfo@CWnd@@MAEPAU_AFX_OCC_DIALOG_INFO@@XZ
CONST	ENDS
;	COMDAT ??_7?$CArray@VCElementInLogic@@AAV1@@@6B@
CONST	SEGMENT
??_7?$CArray@VCElementInLogic@@AAV1@@@6B@ DD FLAT:??_R4?$CArray@VCElementInLogic@@AAV1@@@6B@ ; CArray<CElementInLogic,CElementInLogic &>::`vftable'
	DD	FLAT:?GetRuntimeClass@CObject@@UBEPAUCRuntimeClass@@XZ
	DD	FLAT:??_E?$CArray@VCElementInLogic@@AAV1@@@UAEPAXI@Z
	DD	FLAT:?Serialize@?$CArray@VCElementInLogic@@AAV1@@@UAEXAAVCArchive@@@Z
	DD	FLAT:?AssertValid@CObject@@UBEXXZ
	DD	FLAT:?Dump@CObject@@UBEXAAVCDumpContext@@@Z
CONST	ENDS
;	COMDAT ??_R1A@?0A@EA@CRichEditCtrl@@8
rdata$r	SEGMENT
??_R1A@?0A@EA@CRichEditCtrl@@8 DD FLAT:??_R0?AVCRichEditCtrl@@@8 ; CRichEditCtrl::`RTTI Base Class Descriptor at (0,-1,0,64)'
	DD	03H
	DD	00H
	DD	0ffffffffH
	DD	00H
	DD	040H
	DD	FLAT:??_R3CRichEditCtrl@@8
rdata$r	ENDS
;	COMDAT ??_R2CRichEditCtrl@@8
rdata$r	SEGMENT
??_R2CRichEditCtrl@@8 DD FLAT:??_R1A@?0A@EA@CRichEditCtrl@@8 ; CRichEditCtrl::`RTTI Base Class Array'
	DD	FLAT:??_R1A@?0A@EA@CWnd@@8
	DD	FLAT:??_R1A@?0A@EA@CCmdTarget@@8
	DD	FLAT:??_R1A@?0A@EA@CObject@@8
rdata$r	ENDS
;	COMDAT ??_R3CRichEditCtrl@@8
rdata$r	SEGMENT
??_R3CRichEditCtrl@@8 DD 00H				; CRichEditCtrl::`RTTI Class Hierarchy Descriptor'
	DD	00H
	DD	04H
	DD	FLAT:??_R2CRichEditCtrl@@8
rdata$r	ENDS
;	COMDAT ??_R0?AVCRichEditCtrl@@@8
data$rs	SEGMENT
??_R0?AVCRichEditCtrl@@@8 DD FLAT:??_7type_info@@6B@	; CRichEditCtrl `RTTI Type Descriptor'
	DD	00H
	DB	'.?AVCRichEditCtrl@@', 00H
data$rs	ENDS
;	COMDAT ??_R4CRichEditCtrl@@6B@
rdata$r	SEGMENT
??_R4CRichEditCtrl@@6B@ DD 00H				; CRichEditCtrl::`RTTI Complete Object Locator'
	DD	00H
	DD	00H
	DD	FLAT:??_R0?AVCRichEditCtrl@@@8
	DD	FLAT:??_R3CRichEditCtrl@@8
rdata$r	ENDS
;	COMDAT ??_R2CCmdTarget@@8
rdata$r	SEGMENT
??_R2CCmdTarget@@8 DD FLAT:??_R1A@?0A@EA@CCmdTarget@@8	; CCmdTarget::`RTTI Base Class Array'
	DD	FLAT:??_R1A@?0A@EA@CObject@@8
rdata$r	ENDS
;	COMDAT ??_R3CCmdTarget@@8
rdata$r	SEGMENT
??_R3CCmdTarget@@8 DD 00H				; CCmdTarget::`RTTI Class Hierarchy Descriptor'
	DD	00H
	DD	02H
	DD	FLAT:??_R2CCmdTarget@@8
rdata$r	ENDS
;	COMDAT ??_R0?AVCCmdTarget@@@8
data$rs	SEGMENT
??_R0?AVCCmdTarget@@@8 DD FLAT:??_7type_info@@6B@	; CCmdTarget `RTTI Type Descriptor'
	DD	00H
	DB	'.?AVCCmdTarget@@', 00H
data$rs	ENDS
;	COMDAT ??_R1A@?0A@EA@CCmdTarget@@8
rdata$r	SEGMENT
??_R1A@?0A@EA@CCmdTarget@@8 DD FLAT:??_R0?AVCCmdTarget@@@8 ; CCmdTarget::`RTTI Base Class Descriptor at (0,-1,0,64)'
	DD	01H
	DD	00H
	DD	0ffffffffH
	DD	00H
	DD	040H
	DD	FLAT:??_R3CCmdTarget@@8
rdata$r	ENDS
;	COMDAT ??_R2CWnd@@8
rdata$r	SEGMENT
??_R2CWnd@@8 DD	FLAT:??_R1A@?0A@EA@CWnd@@8		; CWnd::`RTTI Base Class Array'
	DD	FLAT:??_R1A@?0A@EA@CCmdTarget@@8
	DD	FLAT:??_R1A@?0A@EA@CObject@@8
rdata$r	ENDS
;	COMDAT ??_R3CWnd@@8
rdata$r	SEGMENT
??_R3CWnd@@8 DD	00H					; CWnd::`RTTI Class Hierarchy Descriptor'
	DD	00H
	DD	03H
	DD	FLAT:??_R2CWnd@@8
rdata$r	ENDS
;	COMDAT ??_R0?AVCWnd@@@8
data$rs	SEGMENT
??_R0?AVCWnd@@@8 DD FLAT:??_7type_info@@6B@		; CWnd `RTTI Type Descriptor'
	DD	00H
	DB	'.?AVCWnd@@', 00H
data$rs	ENDS
;	COMDAT ??_R1A@?0A@EA@CWnd@@8
rdata$r	SEGMENT
??_R1A@?0A@EA@CWnd@@8 DD FLAT:??_R0?AVCWnd@@@8		; CWnd::`RTTI Base Class Descriptor at (0,-1,0,64)'
	DD	02H
	DD	00H
	DD	0ffffffffH
	DD	00H
	DD	040H
	DD	FLAT:??_R3CWnd@@8
rdata$r	ENDS
;	COMDAT ??_R1A@?0A@EA@CFont@@8
rdata$r	SEGMENT
??_R1A@?0A@EA@CFont@@8 DD FLAT:??_R0?AVCFont@@@8	; CFont::`RTTI Base Class Descriptor at (0,-1,0,64)'
	DD	02H
	DD	00H
	DD	0ffffffffH
	DD	00H
	DD	040H
	DD	FLAT:??_R3CFont@@8
rdata$r	ENDS
;	COMDAT ??_R2CFont@@8
rdata$r	SEGMENT
??_R2CFont@@8 DD FLAT:??_R1A@?0A@EA@CFont@@8		; CFont::`RTTI Base Class Array'
	DD	FLAT:??_R1A@?0A@EA@CGdiObject@@8
	DD	FLAT:??_R1A@?0A@EA@CObject@@8
rdata$r	ENDS
;	COMDAT ??_R3CFont@@8
rdata$r	SEGMENT
??_R3CFont@@8 DD 00H					; CFont::`RTTI Class Hierarchy Descriptor'
	DD	00H
	DD	03H
	DD	FLAT:??_R2CFont@@8
rdata$r	ENDS
;	COMDAT ??_R0?AVCFont@@@8
data$rs	SEGMENT
??_R0?AVCFont@@@8 DD FLAT:??_7type_info@@6B@		; CFont `RTTI Type Descriptor'
	DD	00H
	DB	'.?AVCFont@@', 00H
data$rs	ENDS
;	COMDAT ??_R4CFont@@6B@
rdata$r	SEGMENT
??_R4CFont@@6B@ DD 00H					; CFont::`RTTI Complete Object Locator'
	DD	00H
	DD	00H
	DD	FLAT:??_R0?AVCFont@@@8
	DD	FLAT:??_R3CFont@@8
rdata$r	ENDS
;	COMDAT ??_R1A@?0A@EA@CGdiObject@@8
rdata$r	SEGMENT
??_R1A@?0A@EA@CGdiObject@@8 DD FLAT:??_R0?AVCGdiObject@@@8 ; CGdiObject::`RTTI Base Class Descriptor at (0,-1,0,64)'
	DD	01H
	DD	00H
	DD	0ffffffffH
	DD	00H
	DD	040H
	DD	FLAT:??_R3CGdiObject@@8
rdata$r	ENDS
;	COMDAT ??_R2CGdiObject@@8
rdata$r	SEGMENT
??_R2CGdiObject@@8 DD FLAT:??_R1A@?0A@EA@CGdiObject@@8	; CGdiObject::`RTTI Base Class Array'
	DD	FLAT:??_R1A@?0A@EA@CObject@@8
rdata$r	ENDS
;	COMDAT ??_R3CGdiObject@@8
rdata$r	SEGMENT
??_R3CGdiObject@@8 DD 00H				; CGdiObject::`RTTI Class Hierarchy Descriptor'
	DD	00H
	DD	02H
	DD	FLAT:??_R2CGdiObject@@8
rdata$r	ENDS
;	COMDAT ??_R0?AVCGdiObject@@@8
data$rs	SEGMENT
??_R0?AVCGdiObject@@@8 DD FLAT:??_7type_info@@6B@	; CGdiObject `RTTI Type Descriptor'
	DD	00H
	DB	'.?AVCGdiObject@@', 00H
data$rs	ENDS
;	COMDAT ??_R4CGdiObject@@6B@
rdata$r	SEGMENT
??_R4CGdiObject@@6B@ DD 00H				; CGdiObject::`RTTI Complete Object Locator'
	DD	00H
	DD	00H
	DD	FLAT:??_R0?AVCGdiObject@@@8
	DD	FLAT:??_R3CGdiObject@@8
rdata$r	ENDS
;	COMDAT ??_R1A@?0A@EA@CObject@@8
rdata$r	SEGMENT
??_R1A@?0A@EA@CObject@@8 DD FLAT:??_R0?AVCObject@@@8	; CObject::`RTTI Base Class Descriptor at (0,-1,0,64)'
	DD	00H
	DD	00H
	DD	0ffffffffH
	DD	00H
	DD	040H
	DD	FLAT:??_R3CObject@@8
rdata$r	ENDS
;	COMDAT ??_R2CObject@@8
rdata$r	SEGMENT
??_R2CObject@@8 DD FLAT:??_R1A@?0A@EA@CObject@@8	; CObject::`RTTI Base Class Array'
rdata$r	ENDS
;	COMDAT ??_R3CObject@@8
rdata$r	SEGMENT
??_R3CObject@@8 DD 00H					; CObject::`RTTI Class Hierarchy Descriptor'
	DD	00H
	DD	01H
	DD	FLAT:??_R2CObject@@8
rdata$r	ENDS
;	COMDAT ??_R0?AVCObject@@@8
data$rs	SEGMENT
??_R0?AVCObject@@@8 DD FLAT:??_7type_info@@6B@		; CObject `RTTI Type Descriptor'
	DD	00H
	DB	'.?AVCObject@@', 00H
data$rs	ENDS
;	COMDAT ??_7CRichEditCtrl@@6B@
CONST	SEGMENT
??_7CRichEditCtrl@@6B@ DD FLAT:??_R4CRichEditCtrl@@6B@	; CRichEditCtrl::`vftable'
	DD	FLAT:?GetRuntimeClass@CRichEditCtrl@@UBEPAUCRuntimeClass@@XZ
	DD	FLAT:??_ECRichEditCtrl@@UAEPAXI@Z
	DD	FLAT:?Serialize@CObject@@UAEXAAVCArchive@@@Z
	DD	FLAT:?AssertValid@CObject@@UBEXXZ
	DD	FLAT:?Dump@CObject@@UBEXAAVCDumpContext@@@Z
	DD	FLAT:?OnCmdMsg@CCmdTarget@@UAEHIHPAXPAUAFX_CMDHANDLERINFO@@@Z
	DD	FLAT:?OnFinalRelease@CWnd@@UAEXXZ
	DD	FLAT:?IsInvokeAllowed@CCmdTarget@@UAEHJ@Z
	DD	FLAT:?GetDispatchIID@CCmdTarget@@UAEHPAU_GUID@@@Z
	DD	FLAT:?GetTypeInfoCount@CCmdTarget@@UAEIXZ
	DD	FLAT:?GetTypeLibCache@CCmdTarget@@UAEPAVCTypeLibCache@@XZ
	DD	FLAT:?GetTypeLib@CCmdTarget@@UAEJKPAPAUITypeLib@@@Z
	DD	FLAT:?GetMessageMap@CWnd@@MBEPBUAFX_MSGMAP@@XZ
	DD	FLAT:?GetCommandMap@CCmdTarget@@MBEPBUAFX_OLECMDMAP@@XZ
	DD	FLAT:?GetDispatchMap@CCmdTarget@@MBEPBUAFX_DISPMAP@@XZ
	DD	FLAT:?GetConnectionMap@CCmdTarget@@MBEPBUAFX_CONNECTIONMAP@@XZ
	DD	FLAT:?GetInterfaceMap@CWnd@@MBEPBUAFX_INTERFACEMAP@@XZ
	DD	FLAT:?GetEventSinkMap@CCmdTarget@@MBEPBUAFX_EVENTSINKMAP@@XZ
	DD	FLAT:?OnCreateAggregates@CCmdTarget@@UAEHXZ
	DD	FLAT:?GetInterfaceHook@CCmdTarget@@UAEPAUIUnknown@@PBX@Z
	DD	FLAT:?GetExtraConnectionPoints@CCmdTarget@@MAEHPAVCPtrArray@@@Z
	DD	FLAT:?GetConnectionHook@CCmdTarget@@MAEPAUIConnectionPoint@@ABU_GUID@@@Z
	DD	FLAT:?PreSubclassWindow@CWnd@@UAEXXZ
	DD	FLAT:?Create@CWnd@@UAEHPBD0KABUtagRECT@@PAV1@IPAUCCreateContext@@@Z
	DD	FLAT:?CreateEx@CWnd@@UAEHKPBD0KABUtagRECT@@PAV1@IPAX@Z
	DD	FLAT:?CreateEx@CWnd@@UAEHKPBD0KHHHHPAUHWND__@@PAUHMENU__@@PAX@Z
	DD	FLAT:?DestroyWindow@CWnd@@UAEHXZ
	DD	FLAT:?PreCreateWindow@CWnd@@UAEHAAUtagCREATESTRUCTA@@@Z
	DD	FLAT:?CalcWindowRect@CWnd@@UAEXPAUtagRECT@@I@Z
	DD	FLAT:?GetMenu@CWnd@@UBEPAVCMenu@@XZ
	DD	FLAT:?SetMenu@CWnd@@UAEHPAVCMenu@@@Z
	DD	FLAT:?OnToolHitTest@CWnd@@UBEHVCPoint@@PAUtagTOOLINFOA@@@Z
	DD	FLAT:?GetScrollBarCtrl@CWnd@@UBEPAVCScrollBar@@H@Z
	DD	FLAT:?WinHelpA@CWnd@@UAEXKI@Z
	DD	FLAT:?HtmlHelpA@CWnd@@UAEXKI@Z
	DD	FLAT:?WinHelpInternal@CWnd@@UAEXKI@Z
	DD	FLAT:?ContinueModal@CWnd@@UAEHXZ
	DD	FLAT:?EndModalLoop@CWnd@@UAEXH@Z
	DD	FLAT:?OnDrawIconicThumbnailOrLivePreview@CWnd@@UAEXAAVCDC@@VCRect@@VCSize@@HAAH@Z
	DD	FLAT:?EnsureStdObj@CWnd@@UAEJXZ
	DD	FLAT:?get_accParent@CWnd@@UAEJPAPAUIDispatch@@@Z
	DD	FLAT:?get_accChildCount@CWnd@@UAEJPAJ@Z
	DD	FLAT:?get_accChild@CWnd@@UAEJUtagVARIANT@@PAPAUIDispatch@@@Z
	DD	FLAT:?get_accName@CWnd@@UAEJUtagVARIANT@@PAPA_W@Z
	DD	FLAT:?get_accValue@CWnd@@UAEJUtagVARIANT@@PAPA_W@Z
	DD	FLAT:?get_accDescription@CWnd@@UAEJUtagVARIANT@@PAPA_W@Z
	DD	FLAT:?get_accRole@CWnd@@UAEJUtagVARIANT@@PAU2@@Z
	DD	FLAT:?get_accState@CWnd@@UAEJUtagVARIANT@@PAU2@@Z
	DD	FLAT:?get_accHelp@CWnd@@UAEJUtagVARIANT@@PAPA_W@Z
	DD	FLAT:?get_accHelpTopic@CWnd@@UAEJPAPA_WUtagVARIANT@@PAJ@Z
	DD	FLAT:?get_accKeyboardShortcut@CWnd@@UAEJUtagVARIANT@@PAPA_W@Z
	DD	FLAT:?get_accFocus@CWnd@@UAEJPAUtagVARIANT@@@Z
	DD	FLAT:?get_accSelection@CWnd@@UAEJPAUtagVARIANT@@@Z
	DD	FLAT:?get_accDefaultAction@CWnd@@UAEJUtagVARIANT@@PAPA_W@Z
	DD	FLAT:?accSelect@CWnd@@UAEJJUtagVARIANT@@@Z
	DD	FLAT:?accLocation@CWnd@@UAEJPAJ000UtagVARIANT@@@Z
	DD	FLAT:?accNavigate@CWnd@@UAEJJUtagVARIANT@@PAU2@@Z
	DD	FLAT:?accHitTest@CWnd@@UAEJJJPAUtagVARIANT@@@Z
	DD	FLAT:?accDoDefaultAction@CWnd@@UAEJUtagVARIANT@@@Z
	DD	FLAT:?put_accName@CWnd@@UAEJUtagVARIANT@@PA_W@Z
	DD	FLAT:?put_accValue@CWnd@@UAEJUtagVARIANT@@PA_W@Z
	DD	FLAT:?SetProxy@CWnd@@UAEJPAUIAccessibleProxy@@@Z
	DD	FLAT:?CreateAccessibleProxy@CWnd@@UAEJIJPAJ@Z
	DD	FLAT:?OnCommand@CWnd@@MAEHIJ@Z
	DD	FLAT:?OnNotify@CWnd@@MAEHIJPAJ@Z
	DD	FLAT:?GetSuperWndProcAddr@CWnd@@MAEPAP6GJPAUHWND__@@IIJ@ZXZ
	DD	FLAT:?DoDataExchange@CWnd@@MAEXPAVCDataExchange@@@Z
	DD	FLAT:?BeginModalState@CWnd@@UAEXXZ
	DD	FLAT:?EndModalState@CWnd@@UAEXXZ
	DD	FLAT:?PreTranslateMessage@CWnd@@UAEHPAUtagMSG@@@Z
	DD	FLAT:?OnAmbientProperty@CWnd@@UAEHPAVCOleControlSite@@JPAUtagVARIANT@@@Z
	DD	FLAT:?WindowProc@CWnd@@MAEJIIJ@Z
	DD	FLAT:?OnWndMsg@CWnd@@MAEHIIJPAJ@Z
	DD	FLAT:?DefWindowProcA@CWnd@@MAEJIIJ@Z
	DD	FLAT:?PostNcDestroy@CWnd@@MAEXXZ
	DD	FLAT:?OnChildNotify@CWnd@@MAEHIIJPAJ@Z
	DD	FLAT:?OnTouchInputs@CWnd@@MAEHIPAUtagTOUCHINPUT@@@Z
	DD	FLAT:?OnTouchInput@CWnd@@MAEHVCPoint@@HHPAUtagTOUCHINPUT@@@Z
	DD	FLAT:?GetGestureStatus@CWnd@@MAEKVCPoint@@@Z
	DD	FLAT:?OnGestureZoom@CWnd@@MAEHVCPoint@@J@Z
	DD	FLAT:?OnGesturePan@CWnd@@MAEHVCPoint@@0@Z
	DD	FLAT:?OnGestureRotate@CWnd@@MAEHVCPoint@@N@Z
	DD	FLAT:?OnGestureTwoFingerTap@CWnd@@MAEHVCPoint@@@Z
	DD	FLAT:?OnGesturePressAndTap@CWnd@@MAEHVCPoint@@J@Z
	DD	FLAT:?ResizeDynamicLayout@CWnd@@MAEXXZ
	DD	FLAT:?CheckAutoCenter@CWnd@@UAEHXZ
	DD	FLAT:?IsFrameWnd@CWnd@@UBEHXZ
	DD	FLAT:?CreateControlContainer@CWnd@@MAEHPAPAVCOleControlContainer@@@Z
	DD	FLAT:?CreateControlSite@CWnd@@MAEHPAVCOleControlContainer@@PAPAVCOleControlSite@@IABU_GUID@@@Z
	DD	FLAT:?SetOccDialogInfo@CWnd@@MAEHPAU_AFX_OCC_DIALOG_INFO@@@Z
	DD	FLAT:?GetOccDialogInfo@CWnd@@MAEPAU_AFX_OCC_DIALOG_INFO@@XZ
CONST	ENDS
;	COMDAT ??_C@_0N@OMEMOKLE@?$CFTs?5?$CI?$CFTs?3?$CFd?$CJ@
CONST	SEGMENT
??_C@_0N@OMEMOKLE@?$CFTs?5?$CI?$CFTs?3?$CFd?$CJ@ DB '%Ts (%Ts:%d)', 00H ; `string'
CONST	ENDS
;	COMDAT ??_C@_0BB@HBOOMJBF@?$CFTs?5?$CI?$CFTs?3?$CFd?$CJ?6?$CFTs@
CONST	SEGMENT
??_C@_0BB@HBOOMJBF@?$CFTs?5?$CI?$CFTs?3?$CFd?$CJ?6?$CFTs@ DB '%Ts (%Ts:%d'
	DB	')', 0aH, '%Ts', 00H				; `string'
CONST	ENDS
;	COMDAT ??_C@_0BP@OIEOKIDM@Exception?5thrown?5in?5destructor@
CONST	SEGMENT
??_C@_0BP@OIEOKIDM@Exception?5thrown?5in?5destructor@ DB 'Exception throw'
	DB	'n in destructor', 00H			; `string'
CONST	ENDS
;	COMDAT ??_C@_0HD@JJCHHHNK@C?3?2Program?5Files?5?$CIx86?$CJ?2Microsof@
CONST	SEGMENT
??_C@_0HD@JJCHHHNK@C?3?2Program?5Files?5?$CIx86?$CJ?2Microsof@ DB 'C:\Pro'
	DB	'gram Files (x86)\Microsoft Visual Studio\2019\Community\VC\To'
	DB	'ols\MSVC\14.29.30133\atlmfc\include\afxwin1.inl', 00H ; `string'
CONST	ENDS
;	COMDAT ??_7CFont@@6B@
CONST	SEGMENT
??_7CFont@@6B@ DD FLAT:??_R4CFont@@6B@			; CFont::`vftable'
	DD	FLAT:?GetRuntimeClass@CFont@@UBEPAUCRuntimeClass@@XZ
	DD	FLAT:??_ECFont@@UAEPAXI@Z
	DD	FLAT:?Serialize@CObject@@UAEXAAVCArchive@@@Z
	DD	FLAT:?AssertValid@CObject@@UBEXXZ
	DD	FLAT:?Dump@CObject@@UBEXAAVCDumpContext@@@Z
CONST	ENDS
;	COMDAT ??_7CGdiObject@@6B@
CONST	SEGMENT
??_7CGdiObject@@6B@ DD FLAT:??_R4CGdiObject@@6B@	; CGdiObject::`vftable'
	DD	FLAT:?GetRuntimeClass@CGdiObject@@UBEPAUCRuntimeClass@@XZ
	DD	FLAT:??_ECGdiObject@@UAEPAXI@Z
	DD	FLAT:?Serialize@CObject@@UAEXAAVCArchive@@@Z
	DD	FLAT:?AssertValid@CObject@@UBEXXZ
	DD	FLAT:?Dump@CObject@@UBEXAAVCDumpContext@@@Z
CONST	ENDS
;	COMDAT ??_C@_00CNPNBAHC@@
CONST	SEGMENT
??_C@_00CNPNBAHC@@ DB 00H				; `string'
CONST	ENDS
;	COMDAT ??_R0PAVCException@@@8
data$r	SEGMENT
??_R0PAVCException@@@8 DD FLAT:??_7type_info@@6B@	; CException * `RTTI Type Descriptor'
	DD	00H
	DB	'.PAVCException@@', 00H
data$r	ENDS
;	COMDAT xdata$x
xdata$x	SEGMENT
__unwindtable$??_GCLogicEditCtrl@@UAEPAXI@Z DD 0ffffffffH
	DD	FLAT:___std_terminate
__ehfuncinfo$??_GCLogicEditCtrl@@UAEPAXI@Z DD 019930522H
	DD	01H
	DD	FLAT:__unwindtable$??_GCLogicEditCtrl@@UAEPAXI@Z
	DD	2 DUP(00H)
	DD	2 DUP(00H)
	DD	00H
	DD	05H
xdata$x	ENDS
;	COMDAT xdata$x
xdata$x	SEGMENT
__ehfuncinfo$?OnLButtonUp@CLogicEditCtrl@@IAEXIVCPoint@@@Z DD 019930522H
	DD	0cH
	DD	FLAT:__unwindtable$?OnLButtonUp@CLogicEditCtrl@@IAEXIVCPoint@@@Z
	DD	2 DUP(00H)
	DD	2 DUP(00H)
	DD	00H
	DD	01H
__unwindtable$?OnLButtonUp@CLogicEditCtrl@@IAEXIVCPoint@@@Z DD 0ffffffffH
	DD	FLAT:__unwindfunclet$?OnLButtonUp@CLogicEditCtrl@@IAEXIVCPoint@@@Z$0
	DD	00H
	DD	FLAT:__unwindfunclet$?OnLButtonUp@CLogicEditCtrl@@IAEXIVCPoint@@@Z$7
	DD	00H
	DD	FLAT:__unwindfunclet$?OnLButtonUp@CLogicEditCtrl@@IAEXIVCPoint@@@Z$1
	DD	02H
	DD	FLAT:__unwindfunclet$?OnLButtonUp@CLogicEditCtrl@@IAEXIVCPoint@@@Z$8
	DD	02H
	DD	FLAT:__unwindfunclet$?OnLButtonUp@CLogicEditCtrl@@IAEXIVCPoint@@@Z$2
	DD	04H
	DD	FLAT:__unwindfunclet$?OnLButtonUp@CLogicEditCtrl@@IAEXIVCPoint@@@Z$9
	DD	04H
	DD	FLAT:__unwindfunclet$?OnLButtonUp@CLogicEditCtrl@@IAEXIVCPoint@@@Z$3
	DD	06H
	DD	FLAT:__unwindfunclet$?OnLButtonUp@CLogicEditCtrl@@IAEXIVCPoint@@@Z$10
	DD	06H
	DD	FLAT:__unwindfunclet$?OnLButtonUp@CLogicEditCtrl@@IAEXIVCPoint@@@Z$4
	DD	08H
	DD	FLAT:__unwindfunclet$?OnLButtonUp@CLogicEditCtrl@@IAEXIVCPoint@@@Z$11
	DD	08H
	DD	FLAT:__unwindfunclet$?OnLButtonUp@CLogicEditCtrl@@IAEXIVCPoint@@@Z$5
	DD	0aH
	DD	FLAT:__unwindfunclet$?OnLButtonUp@CLogicEditCtrl@@IAEXIVCPoint@@@Z$6
xdata$x	ENDS
;	COMDAT xdata$x
xdata$x	SEGMENT
__ehfuncinfo$??1CLogicEditCtrl@@UAE@XZ DD 019930522H
	DD	00H
	DD	00H
	DD	2 DUP(00H)
	DD	2 DUP(00H)
	DD	00H
	DD	05H
xdata$x	ENDS
;	COMDAT xdata$x
xdata$x	SEGMENT
__unwindtable$?InsertAt@?$CArray@VCElementInLogic@@AAV1@@@QAEXHAAVCElementInLogic@@H@Z DD 0ffffffffH
	DD	FLAT:__unwindfunclet$?InsertAt@?$CArray@VCElementInLogic@@AAV1@@@QAEXHAAVCElementInLogic@@H@Z$1
__ehfuncinfo$?InsertAt@?$CArray@VCElementInLogic@@AAV1@@@QAEXHAAVCElementInLogic@@H@Z DD 019930522H
	DD	01H
	DD	FLAT:__unwindtable$?InsertAt@?$CArray@VCElementInLogic@@AAV1@@@QAEXHAAVCElementInLogic@@H@Z
	DD	2 DUP(00H)
	DD	2 DUP(00H)
	DD	00H
	DD	01H
xdata$x	ENDS
;	COMDAT xdata$x
xdata$x	SEGMENT
__unwindtable$?RemoveAll@?$CArray@VCElementInLogic@@AAV1@@@QAEXXZ DD 0ffffffffH
	DD	00H
	DD	0ffffffffH
	DD	00H
	DD	0ffffffffH
	DD	00H
__ehfuncinfo$?RemoveAll@?$CArray@VCElementInLogic@@AAV1@@@QAEXXZ DD 019930522H
	DD	03H
	DD	FLAT:__unwindtable$?RemoveAll@?$CArray@VCElementInLogic@@AAV1@@@QAEXXZ
	DD	2 DUP(00H)
	DD	2 DUP(00H)
	DD	00H
	DD	01H
xdata$x	ENDS
;	COMDAT xdata$x
xdata$x	SEGMENT
__unwindtable$?SetSize@?$CArray@VCElementInLogic@@AAV1@@@QAEXHH@Z DD 0ffffffffH
	DD	FLAT:__unwindfunclet$?SetSize@?$CArray@VCElementInLogic@@AAV1@@@QAEXHH@Z$1
	DD	0ffffffffH
	DD	FLAT:__unwindfunclet$?SetSize@?$CArray@VCElementInLogic@@AAV1@@@QAEXHH@Z$2
	DD	0ffffffffH
	DD	FLAT:__unwindfunclet$?SetSize@?$CArray@VCElementInLogic@@AAV1@@@QAEXHH@Z$4
__ehfuncinfo$?SetSize@?$CArray@VCElementInLogic@@AAV1@@@QAEXHH@Z DD 019930522H
	DD	03H
	DD	FLAT:__unwindtable$?SetSize@?$CArray@VCElementInLogic@@AAV1@@@QAEXHH@Z
	DD	2 DUP(00H)
	DD	2 DUP(00H)
	DD	00H
	DD	01H
xdata$x	ENDS
;	COMDAT xdata$x
xdata$x	SEGMENT
__ehfuncinfo$?UpdateLogic@CLogicEditCtrl@@AAEXXZ DD 019930522H
	DD	0aH
	DD	FLAT:__unwindtable$?UpdateLogic@CLogicEditCtrl@@AAEXXZ
	DD	2 DUP(00H)
	DD	2 DUP(00H)
	DD	00H
	DD	01H
__unwindtable$?UpdateLogic@CLogicEditCtrl@@AAEXXZ DD 0ffffffffH
	DD	FLAT:__unwindfunclet$?UpdateLogic@CLogicEditCtrl@@AAEXXZ$0
	DD	00H
	DD	FLAT:__unwindfunclet$?UpdateLogic@CLogicEditCtrl@@AAEXXZ$1
	DD	01H
	DD	FLAT:__unwindfunclet$?UpdateLogic@CLogicEditCtrl@@AAEXXZ$7
	DD	01H
	DD	FLAT:__unwindfunclet$?UpdateLogic@CLogicEditCtrl@@AAEXXZ$2
	DD	03H
	DD	FLAT:__unwindfunclet$?UpdateLogic@CLogicEditCtrl@@AAEXXZ$8
	DD	03H
	DD	FLAT:__unwindfunclet$?UpdateLogic@CLogicEditCtrl@@AAEXXZ$9
	DD	03H
	DD	FLAT:__unwindfunclet$?UpdateLogic@CLogicEditCtrl@@AAEXXZ$10
	DD	03H
	DD	FLAT:__unwindfunclet$?UpdateLogic@CLogicEditCtrl@@AAEXXZ$5
	DD	07H
	DD	FLAT:__unwindfunclet$?UpdateLogic@CLogicEditCtrl@@AAEXXZ$11
	DD	07H
	DD	FLAT:__unwindfunclet$?UpdateLogic@CLogicEditCtrl@@AAEXXZ$6
xdata$x	ENDS
;	COMDAT xdata$x
xdata$x	SEGMENT
__unwindtable$?SetLogic@CLogicEditCtrl@@QAEXPBD@Z DD 0ffffffffH
	DD	FLAT:__unwindfunclet$?SetLogic@CLogicEditCtrl@@QAEXPBD@Z$0
	DD	00H
	DD	FLAT:__unwindfunclet$?SetLogic@CLogicEditCtrl@@QAEXPBD@Z$2
	DD	00H
	DD	FLAT:__unwindfunclet$?SetLogic@CLogicEditCtrl@@QAEXPBD@Z$1
__ehfuncinfo$?SetLogic@CLogicEditCtrl@@QAEXPBD@Z DD 019930522H
	DD	03H
	DD	FLAT:__unwindtable$?SetLogic@CLogicEditCtrl@@QAEXPBD@Z
	DD	2 DUP(00H)
	DD	2 DUP(00H)
	DD	00H
	DD	01H
xdata$x	ENDS
;	COMDAT xdata$x
xdata$x	SEGMENT
__unwindtable$?GetLogic@CLogicEditCtrl@@QAE?AV?$CStringT@DV?$StrTraitMFC_DLL@DV?$ChTraitsCRT@D@ATL@@@@@ATL@@XZ DD 0ffffffffH
	DD	FLAT:__unwindfunclet$?GetLogic@CLogicEditCtrl@@QAE?AV?$CStringT@DV?$StrTraitMFC_DLL@DV?$ChTraitsCRT@D@ATL@@@@@ATL@@XZ$1
	DD	00H
	DD	FLAT:__unwindfunclet$?GetLogic@CLogicEditCtrl@@QAE?AV?$CStringT@DV?$StrTraitMFC_DLL@DV?$ChTraitsCRT@D@ATL@@@@@ATL@@XZ$0
	DD	01H
	DD	FLAT:__unwindfunclet$?GetLogic@CLogicEditCtrl@@QAE?AV?$CStringT@DV?$StrTraitMFC_DLL@DV?$ChTraitsCRT@D@ATL@@@@@ATL@@XZ$3
	DD	01H
	DD	FLAT:__unwindfunclet$?GetLogic@CLogicEditCtrl@@QAE?AV?$CStringT@DV?$StrTraitMFC_DLL@DV?$ChTraitsCRT@D@ATL@@@@@ATL@@XZ$2
__ehfuncinfo$?GetLogic@CLogicEditCtrl@@QAE?AV?$CStringT@DV?$StrTraitMFC_DLL@DV?$ChTraitsCRT@D@ATL@@@@@ATL@@XZ DD 019930522H
	DD	04H
	DD	FLAT:__unwindtable$?GetLogic@CLogicEditCtrl@@QAE?AV?$CStringT@DV?$StrTraitMFC_DLL@DV?$ChTraitsCRT@D@ATL@@@@@ATL@@XZ
	DD	2 DUP(00H)
	DD	2 DUP(00H)
	DD	00H
	DD	01H
xdata$x	ENDS
;	COMDAT xdata$x
xdata$x	SEGMENT
__unwindtable$?DeleteAllElement@CLogicEditCtrl@@QAEXXZ DD 0ffffffffH
	DD	00H
	DD	0ffffffffH
	DD	00H
	DD	0ffffffffH
	DD	00H
__ehfuncinfo$?DeleteAllElement@CLogicEditCtrl@@QAEXXZ DD 019930522H
	DD	03H
	DD	FLAT:__unwindtable$?DeleteAllElement@CLogicEditCtrl@@QAEXXZ
	DD	2 DUP(00H)
	DD	2 DUP(00H)
	DD	00H
	DD	01H
xdata$x	ENDS
;	COMDAT xdata$x
xdata$x	SEGMENT
__unwindtable$?Unparenthesize@CLogicEditCtrl@@QAEXXZ DD 0ffffffffH
	DD	FLAT:__unwindfunclet$?Unparenthesize@CLogicEditCtrl@@QAEXXZ$1
	DD	0ffffffffH
	DD	FLAT:__unwindfunclet$?Unparenthesize@CLogicEditCtrl@@QAEXXZ$0
__ehfuncinfo$?Unparenthesize@CLogicEditCtrl@@QAEXXZ DD 019930522H
	DD	02H
	DD	FLAT:__unwindtable$?Unparenthesize@CLogicEditCtrl@@QAEXXZ
	DD	2 DUP(00H)
	DD	2 DUP(00H)
	DD	00H
	DD	01H
xdata$x	ENDS
;	COMDAT xdata$x
xdata$x	SEGMENT
__unwindtable$?Parenthesize@CLogicEditCtrl@@QAEXXZ DD 0ffffffffH
	DD	FLAT:__unwindfunclet$?Parenthesize@CLogicEditCtrl@@QAEXXZ$2
	DD	0ffffffffH
	DD	FLAT:__unwindfunclet$?Parenthesize@CLogicEditCtrl@@QAEXXZ$0
	DD	01H
	DD	FLAT:__unwindfunclet$?Parenthesize@CLogicEditCtrl@@QAEXXZ$4
	DD	01H
	DD	FLAT:__unwindfunclet$?Parenthesize@CLogicEditCtrl@@QAEXXZ$1
__ehfuncinfo$?Parenthesize@CLogicEditCtrl@@QAEXXZ DD 019930522H
	DD	04H
	DD	FLAT:__unwindtable$?Parenthesize@CLogicEditCtrl@@QAEXXZ
	DD	2 DUP(00H)
	DD	2 DUP(00H)
	DD	00H
	DD	01H
xdata$x	ENDS
;	COMDAT xdata$x
xdata$x	SEGMENT
__unwindtable$?ChangeOperation@CLogicEditCtrl@@QAEXPBD@Z DD 0ffffffffH
	DD	FLAT:__unwindfunclet$?ChangeOperation@CLogicEditCtrl@@QAEXPBD@Z$1
	DD	0ffffffffH
	DD	FLAT:__unwindfunclet$?ChangeOperation@CLogicEditCtrl@@QAEXPBD@Z$0
__ehfuncinfo$?ChangeOperation@CLogicEditCtrl@@QAEXPBD@Z DD 019930522H
	DD	02H
	DD	FLAT:__unwindtable$?ChangeOperation@CLogicEditCtrl@@QAEXPBD@Z
	DD	2 DUP(00H)
	DD	2 DUP(00H)
	DD	00H
	DD	01H
xdata$x	ENDS
;	COMDAT xdata$x
xdata$x	SEGMENT
__unwindtable$?ChangeElement@CLogicEditCtrl@@QAEXH@Z DD 0ffffffffH
	DD	FLAT:__unwindfunclet$?ChangeElement@CLogicEditCtrl@@QAEXH@Z$1
	DD	0ffffffffH
	DD	FLAT:__unwindfunclet$?ChangeElement@CLogicEditCtrl@@QAEXH@Z$0
__ehfuncinfo$?ChangeElement@CLogicEditCtrl@@QAEXH@Z DD 019930522H
	DD	02H
	DD	FLAT:__unwindtable$?ChangeElement@CLogicEditCtrl@@QAEXH@Z
	DD	2 DUP(00H)
	DD	2 DUP(00H)
	DD	00H
	DD	01H
xdata$x	ENDS
;	COMDAT xdata$x
xdata$x	SEGMENT
__unwindtable$?DeleteElement@CLogicEditCtrl@@QAEXD@Z DD 0ffffffffH
	DD	FLAT:__unwindfunclet$?DeleteElement@CLogicEditCtrl@@QAEXD@Z$0
	DD	00H
	DD	FLAT:__unwindfunclet$?DeleteElement@CLogicEditCtrl@@QAEXD@Z$2
	DD	00H
	DD	FLAT:__unwindfunclet$?DeleteElement@CLogicEditCtrl@@QAEXD@Z$1
__ehfuncinfo$?DeleteElement@CLogicEditCtrl@@QAEXD@Z DD 019930522H
	DD	03H
	DD	FLAT:__unwindtable$?DeleteElement@CLogicEditCtrl@@QAEXD@Z
	DD	2 DUP(00H)
	DD	2 DUP(00H)
	DD	00H
	DD	01H
xdata$x	ENDS
;	COMDAT xdata$x
xdata$x	SEGMENT
__ehfuncinfo$?SwapElement@CLogicEditCtrl@@QAEXDD@Z DD 019930522H
	DD	06H
	DD	FLAT:__unwindtable$?SwapElement@CLogicEditCtrl@@QAEXDD@Z
	DD	2 DUP(00H)
	DD	2 DUP(00H)
	DD	00H
	DD	01H
__unwindtable$?SwapElement@CLogicEditCtrl@@QAEXDD@Z DD 0ffffffffH
	DD	FLAT:__unwindfunclet$?SwapElement@CLogicEditCtrl@@QAEXDD@Z$3
	DD	0ffffffffH
	DD	FLAT:__unwindfunclet$?SwapElement@CLogicEditCtrl@@QAEXDD@Z$0
	DD	01H
	DD	FLAT:__unwindfunclet$?SwapElement@CLogicEditCtrl@@QAEXDD@Z$4
	DD	01H
	DD	FLAT:__unwindfunclet$?SwapElement@CLogicEditCtrl@@QAEXDD@Z$1
	DD	03H
	DD	FLAT:__unwindfunclet$?SwapElement@CLogicEditCtrl@@QAEXDD@Z$5
	DD	03H
	DD	FLAT:__unwindfunclet$?SwapElement@CLogicEditCtrl@@QAEXDD@Z$2
xdata$x	ENDS
;	COMDAT xdata$x
xdata$x	SEGMENT
__unwindtable$?AddElement@CLogicEditCtrl@@QAEXD@Z DD 0ffffffffH
	DD	FLAT:__unwindfunclet$?AddElement@CLogicEditCtrl@@QAEXD@Z$2
	DD	0ffffffffH
	DD	FLAT:__unwindfunclet$?AddElement@CLogicEditCtrl@@QAEXD@Z$0
	DD	0ffffffffH
	DD	FLAT:__unwindfunclet$?AddElement@CLogicEditCtrl@@QAEXD@Z$4
	DD	0ffffffffH
	DD	FLAT:__unwindfunclet$?AddElement@CLogicEditCtrl@@QAEXD@Z$1
__ehfuncinfo$?AddElement@CLogicEditCtrl@@QAEXD@Z DD 019930522H
	DD	04H
	DD	FLAT:__unwindtable$?AddElement@CLogicEditCtrl@@QAEXD@Z
	DD	2 DUP(00H)
	DD	2 DUP(00H)
	DD	00H
	DD	01H
xdata$x	ENDS
;	COMDAT xdata$x
xdata$x	SEGMENT
__unwindtable$??0CLogicEditCtrl@@QAE@XZ DD 0ffffffffH
	DD	FLAT:__unwindfunclet$??0CLogicEditCtrl@@QAE@XZ$0
	DD	00H
	DD	FLAT:__unwindfunclet$??0CLogicEditCtrl@@QAE@XZ$1
	DD	01H
	DD	FLAT:__unwindfunclet$??0CLogicEditCtrl@@QAE@XZ$2
__ehfuncinfo$??0CLogicEditCtrl@@QAE@XZ DD 019930522H
	DD	03H
	DD	FLAT:__unwindtable$??0CLogicEditCtrl@@QAE@XZ
	DD	2 DUP(00H)
	DD	2 DUP(00H)
	DD	00H
	DD	01H
xdata$x	ENDS
;	COMDAT xdata$x
xdata$x	SEGMENT
__unwindtable$??0CElementInLogic@@QAE@XZ DD 0ffffffffH
	DD	FLAT:__unwindfunclet$??0CElementInLogic@@QAE@XZ$0
__ehfuncinfo$??0CElementInLogic@@QAE@XZ DD 019930522H
	DD	01H
	DD	FLAT:__unwindtable$??0CElementInLogic@@QAE@XZ
	DD	2 DUP(00H)
	DD	2 DUP(00H)
	DD	00H
	DD	01H
xdata$x	ENDS
;	COMDAT xdata$x
xdata$x	SEGMENT
__catchsym$??1CGdiObject@@UAE@XZ$3 DD 00H
	DD	FLAT:??_R0PAVCException@@@8
	DD	0fffffde4H
	DD	FLAT:__catch$??1CGdiObject@@UAE@XZ$0
__tryblocktable$??1CGdiObject@@UAE@XZ DD 00H
	DD	00H
	DD	02H
	DD	01H
	DD	FLAT:__catchsym$??1CGdiObject@@UAE@XZ$3
__unwindtable$??1CGdiObject@@UAE@XZ DD 0ffffffffH
	DD	00H
	DD	0ffffffffH
	DD	00H
	DD	01H
	DD	FLAT:__unwindfunclet$??1CGdiObject@@UAE@XZ$2
__ehfuncinfo$??1CGdiObject@@UAE@XZ DD 019930522H
	DD	03H
	DD	FLAT:__unwindtable$??1CGdiObject@@UAE@XZ
	DD	01H
	DD	FLAT:__tryblocktable$??1CGdiObject@@UAE@XZ
	DD	2 DUP(00H)
	DD	00H
	DD	05H
xdata$x	ENDS
;	COMDAT xdata$x
xdata$x	SEGMENT
__unwindtable$??HATL@@YA?AV?$CStringT@DV?$StrTraitMFC_DLL@DV?$ChTraitsCRT@D@ATL@@@@@0@PBDABV10@@Z DD 0ffffffffH
	DD	FLAT:__unwindfunclet$??HATL@@YA?AV?$CStringT@DV?$StrTraitMFC_DLL@DV?$ChTraitsCRT@D@ATL@@@@@0@PBDABV10@@Z$0
__ehfuncinfo$??HATL@@YA?AV?$CStringT@DV?$StrTraitMFC_DLL@DV?$ChTraitsCRT@D@ATL@@@@@0@PBDABV10@@Z DD 019930522H
	DD	01H
	DD	FLAT:__unwindtable$??HATL@@YA?AV?$CStringT@DV?$StrTraitMFC_DLL@DV?$ChTraitsCRT@D@ATL@@@@@0@PBDABV10@@Z
	DD	2 DUP(00H)
	DD	2 DUP(00H)
	DD	00H
	DD	01H
xdata$x	ENDS
; Function compile flags: /Ogtp
; File C:\Program Files (x86)\Microsoft Visual Studio\2019\Community\VC\Tools\MSVC\14.29.30133\atlmfc\include\afxtempl.h
; File C:\Program Files (x86)\Microsoft Visual Studio\2019\Community\VC\Tools\MSVC\14.29.30133\atlmfc\include\afx.inl
; File C:\Program Files (x86)\Microsoft Visual Studio\2019\Community\VC\Tools\MSVC\14.29.30133\atlmfc\include\afxtempl.h
; File C:\Program Files (x86)\Microsoft Visual Studio\2019\Community\VC\Tools\MSVC\14.29.30133\atlmfc\include\afx.inl
; File C:\Program Files (x86)\Microsoft Visual Studio\2019\Community\VC\Tools\MSVC\14.29.30133\atlmfc\include\afxtempl.h
; File C:\Program Files (x86)\Microsoft Visual Studio\2019\Community\VC\Tools\MSVC\14.29.30133\atlmfc\include\afx.inl
; File C:\Program Files (x86)\Microsoft Visual Studio\2019\Community\VC\Tools\MSVC\14.29.30133\atlmfc\include\afxtempl.h
;	COMDAT ??$SerializeElements@VCElementInLogic@@@@YGXAAVCArchive@@PAVCElementInLogic@@H@Z
_TEXT	SEGMENT
_ar$ = 8						; size = 4
_pElements$ = 12					; size = 4
_nCount$ = 16						; size = 4
??$SerializeElements@VCElementInLogic@@@@YGXAAVCArchive@@PAVCElementInLogic@@H@Z PROC ; SerializeElements<CElementInLogic>, COMDAT

; 67   : {

  00000	55		 push	 ebp
  00001	8b ec		 mov	 ebp, esp

; 68   : 	ENSURE(nCount == 0 || pElements != NULL);

  00003	8b 4d 0c	 mov	 ecx, DWORD PTR _pElements$[ebp]
  00006	53		 push	 ebx
  00007	56		 push	 esi
  00008	8b 75 10	 mov	 esi, DWORD PTR _nCount$[ebp]
  0000b	57		 push	 edi
  0000c	85 f6		 test	 esi, esi
  0000e	74 08		 je	 SHORT $LN2@SerializeE
  00010	85 c9		 test	 ecx, ecx
  00012	0f 84 87 00 00
	00		 je	 $LN34@SerializeE
$LN2@SerializeE:
; File C:\Program Files (x86)\Microsoft Visual Studio\2019\Community\VC\Tools\MSVC\14.29.30133\atlmfc\include\afx.inl

; 212  : 	{ return (m_nMode & CArchive::load) == 0; }

  00018	8b 55 08	 mov	 edx, DWORD PTR _ar$[ebp]
  0001b	8b 42 18	 mov	 eax, DWORD PTR [edx+24]
  0001e	f7 d0		 not	 eax
  00020	a8 01		 test	 al, 1
; File C:\Program Files (x86)\Microsoft Visual Studio\2019\Community\VC\Tools\MSVC\14.29.30133\atlmfc\include\afxtempl.h

; 73   : 	if (ar.IsStoring())

  00022	74 3b		 je	 SHORT $LN10@SerializeE

; 74   : 	{
; 75   : 		TYPE* pData;
; 76   : 		UINT_PTR nElementsLeft;
; 77   : 
; 78   : 		nElementsLeft = nCount;
; 79   : 		pData = pElements;
; 80   : 		while( nElementsLeft > 0 )

  00024	85 f6		 test	 esi, esi
  00026	74 30		 je	 SHORT $LN8@SerializeE
  00028	0f 1f 84 00 00
	00 00 00	 npad	 8
$LL5@SerializeE:

; 81   : 		{
; 82   : 			UINT nElementsToWrite;
; 83   : 
; 84   : 			nElementsToWrite = UINT(__min(nElementsLeft, INT_MAX/sizeof(TYPE)));

  00030	bb 66 66 66 06	 mov	 ebx, 107374182		; 06666666H
  00035	3b f3		 cmp	 esi, ebx
  00037	0f 42 de	 cmovb	 ebx, esi

; 85   : 			ar.Write(pData, nElementsToWrite*sizeof(TYPE));

  0003a	8d 3c 9b	 lea	 edi, DWORD PTR [ebx+ebx*4]
  0003d	c1 e7 02	 shl	 edi, 2
  00040	57		 push	 edi
  00041	51		 push	 ecx
  00042	8b ca		 mov	 ecx, edx
  00044	e8 00 00 00 00	 call	 ?Write@CArchive@@QAEXPBXI@Z ; CArchive::Write

; 86   : 			nElementsLeft -= nElementsToWrite;
; 87   : 			pData += nElementsToWrite;

  00049	8b 4d 0c	 mov	 ecx, DWORD PTR _pElements$[ebp]
  0004c	8b 55 08	 mov	 edx, DWORD PTR _ar$[ebp]
  0004f	03 cf		 add	 ecx, edi
  00051	89 4d 0c	 mov	 DWORD PTR _pElements$[ebp], ecx
  00054	2b f3		 sub	 esi, ebx
  00056	75 d8		 jne	 SHORT $LL5@SerializeE
$LN8@SerializeE:
  00058	5f		 pop	 edi

; 105  : 		}
; 106  : 	}
; 107  : }

  00059	5e		 pop	 esi
  0005a	5b		 pop	 ebx
  0005b	5d		 pop	 ebp
  0005c	c2 0c 00	 ret	 12			; 0000000cH
$LN10@SerializeE:

; 97   : 		while( nElementsLeft > 0 )

  0005f	85 f6		 test	 esi, esi
  00061	74 f5		 je	 SHORT $LN8@SerializeE
$LL7@SerializeE:

; 98   : 		{
; 99   : 			UINT nElementsToRead;
; 100  : 
; 101  : 			nElementsToRead = UINT(__min(nElementsLeft, INT_MAX/sizeof(TYPE)));

  00063	bf 66 66 66 06	 mov	 edi, 107374182		; 06666666H
  00068	3b f7		 cmp	 esi, edi
  0006a	0f 42 fe	 cmovb	 edi, esi

; 102  : 			ar.EnsureRead(pData, nElementsToRead*sizeof(TYPE));

  0006d	8d 1c bf	 lea	 ebx, DWORD PTR [edi+edi*4]
  00070	c1 e3 02	 shl	 ebx, 2
; File C:\Program Files (x86)\Microsoft Visual Studio\2019\Community\VC\Tools\MSVC\14.29.30133\atlmfc\include\afx.inl

; 399  : 	UINT nRead=Read(lpBuf, nCount);

  00073	53		 push	 ebx
  00074	51		 push	 ecx
  00075	8b ca		 mov	 ecx, edx
  00077	e8 00 00 00 00	 call	 ?Read@CArchive@@QAEIPAXI@Z ; CArchive::Read

; 400  : 	if(nRead!=nCount)

  0007c	3b c3		 cmp	 eax, ebx
  0007e	75 16		 jne	 SHORT $LN23@SerializeE
; File C:\Program Files (x86)\Microsoft Visual Studio\2019\Community\VC\Tools\MSVC\14.29.30133\atlmfc\include\afxtempl.h

; 97   : 		while( nElementsLeft > 0 )

  00080	8b 4d 0c	 mov	 ecx, DWORD PTR _pElements$[ebp]
  00083	8b 55 08	 mov	 edx, DWORD PTR _ar$[ebp]

; 103  : 			nElementsLeft -= nElementsToRead;
; 104  : 			pData += nElementsToRead;

  00086	03 cb		 add	 ecx, ebx
  00088	89 4d 0c	 mov	 DWORD PTR _pElements$[ebp], ecx
  0008b	2b f7		 sub	 esi, edi
  0008d	75 d4		 jne	 SHORT $LL7@SerializeE

; 105  : 		}
; 106  : 	}
; 107  : }

  0008f	5f		 pop	 edi
  00090	5e		 pop	 esi
  00091	5b		 pop	 ebx
  00092	5d		 pop	 ebp
  00093	c2 0c 00	 ret	 12			; 0000000cH
$LN23@SerializeE:
; File C:\Program Files (x86)\Microsoft Visual Studio\2019\Community\VC\Tools\MSVC\14.29.30133\atlmfc\include\afx.inl

; 402  : 		AfxThrowArchiveException(CArchiveException::endOfFile);

  00096	6a 00		 push	 0
  00098	6a 03		 push	 3
  0009a	e8 00 00 00 00	 call	 ?AfxThrowArchiveException@@YGXHPBD@Z ; AfxThrowArchiveException
$LN34@SerializeE:
; File C:\Program Files (x86)\Microsoft Visual Studio\2019\Community\VC\Tools\MSVC\14.29.30133\atlmfc\include\afxtempl.h

; 68   : 	ENSURE(nCount == 0 || pElements != NULL);

  0009f	e8 00 00 00 00	 call	 ?AfxThrowInvalidArgException@@YGXXZ ; AfxThrowInvalidArgException
$LN32@SerializeE:
  000a4	cc		 int	 3
??$SerializeElements@VCElementInLogic@@@@YGXAAVCArchive@@PAVCElementInLogic@@H@Z ENDP ; SerializeElements<CElementInLogic>
_TEXT	ENDS
; Function compile flags: /Ogtp
; File D:\git\src\IBK\IBK_DRFN\ProjSrc\SrcDrfn\Chart\HWSTRATEGYCONFIGUREWIZARD\Control\LogicEditCtrl.cpp
; File C:\Program Files (x86)\Microsoft Visual Studio\2019\Community\VC\Tools\MSVC\14.29.30133\atlmfc\include\afxwin1.inl
; File D:\git\src\IBK\IBK_DRFN\ProjSrc\SrcDrfn\Chart\HWSTRATEGYCONFIGUREWIZARD\Control\LogicEditCtrl.cpp
; File C:\Program Files (x86)\Microsoft Visual Studio\2019\Community\VC\Tools\MSVC\14.29.30133\atlmfc\include\afx.inl
;	COMDAT ??_GCLogicEditCtrl@@UAEPAXI@Z
_TEXT	SEGMENT
__$EHRec$ = -12						; size = 12
___flags$ = 8						; size = 4
??_GCLogicEditCtrl@@UAEPAXI@Z PROC			; CLogicEditCtrl::`scalar deleting destructor', COMDAT
; _this$ = ecx
  00000	55		 push	 ebp
  00001	8b ec		 mov	 ebp, esp
  00003	6a ff		 push	 -1
  00005	68 00 00 00 00	 push	 __ehhandler$??_GCLogicEditCtrl@@UAEPAXI@Z
  0000a	64 a1 00 00 00
	00		 mov	 eax, DWORD PTR fs:0
  00010	50		 push	 eax
  00011	56		 push	 esi
  00012	57		 push	 edi
  00013	a1 00 00 00 00	 mov	 eax, DWORD PTR ___security_cookie
  00018	33 c5		 xor	 eax, ebp
  0001a	50		 push	 eax
  0001b	8d 45 f4	 lea	 eax, DWORD PTR __$EHRec$[ebp]
  0001e	64 a3 00 00 00
	00		 mov	 DWORD PTR fs:0, eax
  00024	8b f9		 mov	 edi, ecx
; File D:\git\src\IBK\IBK_DRFN\ProjSrc\SrcDrfn\Chart\HWSTRATEGYCONFIGUREWIZARD\Control\LogicEditCtrl.cpp

; 44   : 	m_fontDefault.DeleteObject();

  00026	8d 8f 94 00 00
	00		 lea	 ecx, DWORD PTR [edi+148]
  0002c	c7 45 fc 00 00
	00 00		 mov	 DWORD PTR __$EHRec$[ebp+8], 0
  00033	c7 07 00 00 00
	00		 mov	 DWORD PTR [edi], OFFSET ??_7CLogicEditCtrl@@6B@
  00039	e8 00 00 00 00	 call	 ?DeleteObject@CGdiObject@@QAEHXZ ; CGdiObject::DeleteObject
; File C:\Program Files (x86)\Microsoft Visual Studio\2019\Community\VC\Tools\MSVC\14.29.30133\atlmfc\include\afxwin1.inl

; 155  : 	{ }

  0003e	8d 8f 94 00 00
	00		 lea	 ecx, DWORD PTR [edi+148]
  00044	c7 87 94 00 00
	00 00 00 00 00	 mov	 DWORD PTR [edi+148], OFFSET ??_7CFont@@6B@
  0004e	e8 00 00 00 00	 call	 ??1CGdiObject@@UAE@XZ	; CGdiObject::~CGdiObject
; File D:\git\src\IBK\IBK_DRFN\ProjSrc\SrcDrfn\Chart\HWSTRATEGYCONFIGUREWIZARD\Control\LogicEditCtrl.cpp

; 45   : }

  00053	8d 8f 80 00 00
	00		 lea	 ecx, DWORD PTR [edi+128]
  00059	e8 00 00 00 00	 call	 ??1?$CArray@VCElementInLogic@@AAV1@@@UAE@XZ ; CArray<CElementInLogic,CElementInLogic &>::~CArray<CElementInLogic,CElementInLogic &>
  0005e	8b cf		 mov	 ecx, edi
  00060	e8 00 00 00 00	 call	 ??1CRichEditCtrl@@UAE@XZ ; CRichEditCtrl::~CRichEditCtrl
  00065	8b 45 08	 mov	 eax, DWORD PTR ___flags$[ebp]
  00068	a8 01		 test	 al, 1
  0006a	74 1d		 je	 SHORT $LN15@scalar
  0006c	a8 04		 test	 al, 4
  0006e	75 0b		 jne	 SHORT $LN3@scalar
; File C:\Program Files (x86)\Microsoft Visual Studio\2019\Community\VC\Tools\MSVC\14.29.30133\atlmfc\include\afx.inl

; 112  : 	{ ::operator delete(p); }

  00070	57		 push	 edi
  00071	e8 00 00 00 00	 call	 ??3@YAXPAX@Z		; operator delete
  00076	83 c4 04	 add	 esp, 4
  00079	eb 0e		 jmp	 SHORT $LN15@scalar
$LN3@scalar:
  0007b	68 a8 00 00 00	 push	 168			; 000000a8H
  00080	57		 push	 edi
  00081	e8 00 00 00 00	 call	 ?__global_delete@@YAXPAXI@Z ; __global_delete
  00086	83 c4 08	 add	 esp, 8
$LN15@scalar:
  00089	8b c7		 mov	 eax, edi
  0008b	8b 4d f4	 mov	 ecx, DWORD PTR __$EHRec$[ebp]
  0008e	64 89 0d 00 00
	00 00		 mov	 DWORD PTR fs:0, ecx
  00095	59		 pop	 ecx
  00096	5f		 pop	 edi
  00097	5e		 pop	 esi
  00098	8b e5		 mov	 esp, ebp
  0009a	5d		 pop	 ebp
  0009b	c2 04 00	 ret	 4
  0009e	cc		 int	 3
  0009f	cc		 int	 3
  000a0	cc		 int	 3
  000a1	cc		 int	 3
  000a2	cc		 int	 3
_TEXT	ENDS
;	COMDAT text$x
text$x	SEGMENT
__ehhandler$??_GCLogicEditCtrl@@UAEPAXI@Z:
  00000	90		 npad	 1
  00001	90		 npad	 1
  00002	8b 54 24 08	 mov	 edx, DWORD PTR [esp+8]
  00006	8d 42 0c	 lea	 eax, DWORD PTR [edx+12]
  00009	8b 4a f4	 mov	 ecx, DWORD PTR [edx-12]
  0000c	33 c8		 xor	 ecx, eax
  0000e	e8 00 00 00 00	 call	 @__security_check_cookie@4
  00013	b8 00 00 00 00	 mov	 eax, OFFSET __ehfuncinfo$??_GCLogicEditCtrl@@UAEPAXI@Z
  00018	e9 00 00 00 00	 jmp	 ___CxxFrameHandler3
text$x	ENDS
??_GCLogicEditCtrl@@UAEPAXI@Z ENDP			; CLogicEditCtrl::`scalar deleting destructor'
; Function compile flags: /Ogtp
; File D:\git\src\IBK\IBK_DRFN\ProjSrc\SrcDrfn\Chart\HWSTRATEGYCONFIGUREWIZARD\Control\LogicEditCtrl.cpp
;	COMDAT ?GetMessageMap@CLogicEditCtrl@@MBEPBUAFX_MSGMAP@@XZ
_TEXT	SEGMENT
?GetMessageMap@CLogicEditCtrl@@MBEPBUAFX_MSGMAP@@XZ PROC ; CLogicEditCtrl::GetMessageMap, COMDAT
; _this$ = ecx

; 48   : BEGIN_MESSAGE_MAP(CLogicEditCtrl, CRichEditCtrl)

  00000	b8 00 00 00 00	 mov	 eax, OFFSET ?messageMap@?1??GetThisMessageMap@CLogicEditCtrl@@KGPBUAFX_MSGMAP@@XZ@4U3@B
  00005	c3		 ret	 0
?GetMessageMap@CLogicEditCtrl@@MBEPBUAFX_MSGMAP@@XZ ENDP ; CLogicEditCtrl::GetMessageMap
_TEXT	ENDS
; Function compile flags: /Ogtp
; File D:\git\src\IBK\IBK_DRFN\ProjSrc\SrcDrfn\Chart\HWSTRATEGYCONFIGUREWIZARD\Control\LogicEditCtrl.cpp
;	COMDAT ?GetThisMessageMap@CLogicEditCtrl@@KGPBUAFX_MSGMAP@@XZ
_TEXT	SEGMENT
?GetThisMessageMap@CLogicEditCtrl@@KGPBUAFX_MSGMAP@@XZ PROC ; CLogicEditCtrl::GetThisMessageMap, COMDAT

; 49   : 	//{{AFX_MSG_MAP(CLogicEditCtrl)
; 50   : 	ON_WM_LBUTTONUP()
; 51   : 	ON_WM_LBUTTONDOWN()
; 52   : 	//}}AFX_MSG_MAP
; 53   : END_MESSAGE_MAP()

  00000	b8 00 00 00 00	 mov	 eax, OFFSET ?messageMap@?1??GetThisMessageMap@CLogicEditCtrl@@KGPBUAFX_MSGMAP@@XZ@4U3@B
  00005	c3		 ret	 0
?GetThisMessageMap@CLogicEditCtrl@@KGPBUAFX_MSGMAP@@XZ ENDP ; CLogicEditCtrl::GetThisMessageMap
_TEXT	ENDS
; Function compile flags: /Ogtp
; File D:\git\src\IBK\IBK_DRFN\ProjSrc\SrcDrfn\Chart\HWSTRATEGYCONFIGUREWIZARD\Control\LogicEditCtrl.cpp
; File C:\Program Files (x86)\Microsoft Visual Studio\2019\Community\VC\Tools\MSVC\14.29.30133\atlmfc\include\afxwin2.inl
; File D:\git\src\IBK\IBK_DRFN\ProjSrc\SrcDrfn\Chart\HWSTRATEGYCONFIGUREWIZARD\Control\LogicEditCtrl.cpp
;	COMDAT ?OnLButtonDown@CLogicEditCtrl@@IAEXIVCPoint@@@Z
_TEXT	SEGMENT
_nEndCharSelected$ = -8					; size = 4
_nStartCharSelected$ = -4				; size = 4
_nFlags$ = 8						; size = 4
_point$ = 12						; size = 8
?OnLButtonDown@CLogicEditCtrl@@IAEXIVCPoint@@@Z PROC	; CLogicEditCtrl::OnLButtonDown, COMDAT
; _this$ = ecx

; 566  : {

  00000	55		 push	 ebp
  00001	8b ec		 mov	 ebp, esp
  00003	83 ec 08	 sub	 esp, 8
  00006	56		 push	 esi

; 567  : 	// TODO: Add your message handler code here and/or call default
; 568  : 	long nStartCharSelected = 0;
; 569  : 	long nEndCharSelected = 0;
; 570  : 	GetSel(nStartCharSelected,nEndCharSelected);

  00007	8d 45 f8	 lea	 eax, DWORD PTR _nEndCharSelected$[ebp]
  0000a	c7 45 fc 00 00
	00 00		 mov	 DWORD PTR _nStartCharSelected$[ebp], 0
  00011	50		 push	 eax
  00012	8d 45 fc	 lea	 eax, DWORD PTR _nStartCharSelected$[ebp]
  00015	c7 45 f8 00 00
	00 00		 mov	 DWORD PTR _nEndCharSelected$[ebp], 0
  0001c	50		 push	 eax
  0001d	8b f1		 mov	 esi, ecx
  0001f	e8 00 00 00 00	 call	 ?GetSel@CRichEditCtrl@@QBEXAAJ0@Z ; CRichEditCtrl::GetSel

; 571  : 	SetSel(nStartCharSelected,nStartCharSelected);

  00024	8b 45 fc	 mov	 eax, DWORD PTR _nStartCharSelected$[ebp]
  00027	8b ce		 mov	 ecx, esi
  00029	50		 push	 eax
  0002a	50		 push	 eax
  0002b	e8 00 00 00 00	 call	 ?SetSel@CRichEditCtrl@@QAEXJJ@Z ; CRichEditCtrl::SetSel
; File C:\Program Files (x86)\Microsoft Visual Studio\2019\Community\VC\Tools\MSVC\14.29.30133\atlmfc\include\afxwin2.inl

; 432  : 	{ Default(); }

  00030	8b ce		 mov	 ecx, esi
  00032	e8 00 00 00 00	 call	 ?Default@CWnd@@IAEJXZ	; CWnd::Default
  00037	5e		 pop	 esi
; File D:\git\src\IBK\IBK_DRFN\ProjSrc\SrcDrfn\Chart\HWSTRATEGYCONFIGUREWIZARD\Control\LogicEditCtrl.cpp

; 573  : }

  00038	8b e5		 mov	 esp, ebp
  0003a	5d		 pop	 ebp
  0003b	c2 0c 00	 ret	 12			; 0000000cH
?OnLButtonDown@CLogicEditCtrl@@IAEXIVCPoint@@@Z ENDP	; CLogicEditCtrl::OnLButtonDown
_TEXT	ENDS
; Function compile flags: /Ogtp
; File D:\git\src\IBK\IBK_DRFN\ProjSrc\SrcDrfn\Chart\HWSTRATEGYCONFIGUREWIZARD\Control\LogicEditCtrl.cpp
; File D:\git\src\IBK\IBK_DRFN\ProjSrc\SrcDrfn\Chart\HWSTRATEGYCONFIGUREWIZARD\Control\LogicEditCtrl.h
; File D:\git\src\IBK\IBK_DRFN\ProjSrc\SrcDrfn\Chart\HWSTRATEGYCONFIGUREWIZARD\Control\LogicEditCtrl.cpp
; File C:\Program Files (x86)\Microsoft Visual Studio\2019\Community\VC\Tools\MSVC\14.29.30133\atlmfc\include\afxtempl.h
; File D:\git\src\IBK\IBK_DRFN\ProjSrc\SrcDrfn\Chart\HWSTRATEGYCONFIGUREWIZARD\Control\LogicEditCtrl.cpp
; File C:\Program Files (x86)\Microsoft Visual Studio\2019\Community\VC\Tools\MSVC\14.29.30133\atlmfc\include\cstringt.h
; File D:\git\src\IBK\IBK_DRFN\ProjSrc\SrcDrfn\Chart\HWSTRATEGYCONFIGUREWIZARD\Control\LogicEditCtrl.cpp
; File C:\Program Files (x86)\Microsoft Visual Studio\2019\Community\VC\Tools\MSVC\14.29.30133\atlmfc\include\cstringt.h
; File D:\git\src\IBK\IBK_DRFN\ProjSrc\SrcDrfn\Chart\HWSTRATEGYCONFIGUREWIZARD\Control\LogicEditCtrl.cpp
; File C:\Program Files (x86)\Microsoft Visual Studio\2019\Community\VC\Tools\MSVC\14.29.30133\atlmfc\include\cstringt.h
; File D:\git\src\IBK\IBK_DRFN\ProjSrc\SrcDrfn\Chart\HWSTRATEGYCONFIGUREWIZARD\Control\LogicEditCtrl.cpp
; File C:\Program Files (x86)\Microsoft Visual Studio\2019\Community\VC\Tools\MSVC\14.29.30133\atlmfc\include\cstringt.h
; File D:\git\src\IBK\IBK_DRFN\ProjSrc\SrcDrfn\Chart\HWSTRATEGYCONFIGUREWIZARD\Control\LogicEditCtrl.cpp
; File C:\Program Files (x86)\Microsoft Visual Studio\2019\Community\VC\Tools\MSVC\14.29.30133\atlmfc\include\afxtempl.h
; File D:\git\src\IBK\IBK_DRFN\ProjSrc\SrcDrfn\Chart\HWSTRATEGYCONFIGUREWIZARD\Control\LogicEditCtrl.cpp
;	COMDAT ?OnLButtonUp@CLogicEditCtrl@@IAEXIVCPoint@@@Z
_TEXT	SEGMENT
_ElementSt$ = -144					; size = 20
_ElementEn$ = -124					; size = 20
_ElementStBefore$ = -104				; size = 20
_ElementEnAfter$ = -84					; size = 20
_strText$ = -64						; size = 4
_nSize$1$ = -60						; size = 4
_nEndSelected$1$ = -56					; size = 4
_Element$ = -52						; size = 20
_nEndChar$ = -32					; size = 4
_nStartChar$ = -28					; size = 4
_this$1$ = -24						; size = 4
$T2 = -20						; size = 4
_nCntNextInSelection$1$ = -16				; size = 4
_strMessage$3 = -16					; size = 4
__$EHRec$ = -12						; size = 12
_nFlags$ = 8						; size = 4
_point$ = 12						; size = 8
?OnLButtonUp@CLogicEditCtrl@@IAEXIVCPoint@@@Z PROC	; CLogicEditCtrl::OnLButtonUp, COMDAT
; _this$ = ecx

; 483  : {

  00000	55		 push	 ebp
  00001	8b ec		 mov	 ebp, esp
  00003	6a ff		 push	 -1
  00005	68 00 00 00 00	 push	 __ehhandler$?OnLButtonUp@CLogicEditCtrl@@IAEXIVCPoint@@@Z
  0000a	64 a1 00 00 00
	00		 mov	 eax, DWORD PTR fs:0
  00010	50		 push	 eax
  00011	81 ec 84 00 00
	00		 sub	 esp, 132		; 00000084H
  00017	53		 push	 ebx
  00018	56		 push	 esi
  00019	57		 push	 edi
  0001a	a1 00 00 00 00	 mov	 eax, DWORD PTR ___security_cookie
  0001f	33 c5		 xor	 eax, ebp
  00021	50		 push	 eax
  00022	8d 45 f4	 lea	 eax, DWORD PTR __$EHRec$[ebp]
  00025	64 a3 00 00 00
	00		 mov	 DWORD PTR fs:0, eax
  0002b	8b f1		 mov	 esi, ecx
  0002d	89 75 e8	 mov	 DWORD PTR _this$1$[ebp], esi

; 484  : 	// TODO: Add your message handler code here and/or call default
; 485  : 
; 486  : 	CString strText;

  00030	8d 4d c0	 lea	 ecx, DWORD PTR _strText$[ebp]
  00033	ff 15 00 00 00
	00		 call	 DWORD PTR __imp_??0?$CStringT@DV?$StrTraitMFC_DLL@DV?$ChTraitsCRT@D@ATL@@@@@ATL@@QAE@XZ

; 487  : 	long nCntStackedOfParenthesisInSelection = 0;
; 488  : 	long nCntNextInSelection = 0;
; 489  : 	long nStartChar = 0;
; 490  : 	long nEndChar = 0;
; 491  : 	int nBeginSelected = -1;
; 492  : 	int nEndSelected = -1;
; 493  : 	int nTypeSelection = 0; // 1: element, 2:parenthesis
; 494  : 	GetSel(nStartChar,nEndChar);

  00039	8d 45 e0	 lea	 eax, DWORD PTR _nEndChar$[ebp]
  0003c	c7 45 fc 00 00
	00 00		 mov	 DWORD PTR __$EHRec$[ebp+8], 0
  00043	50		 push	 eax
  00044	33 db		 xor	 ebx, ebx
  00046	8d 45 e4	 lea	 eax, DWORD PTR _nStartChar$[ebp]
  00049	83 cf ff	 or	 edi, -1
  0004c	89 5d f0	 mov	 DWORD PTR _nCntNextInSelection$1$[ebp], ebx
  0004f	50		 push	 eax
  00050	8b ce		 mov	 ecx, esi
  00052	89 5d e4	 mov	 DWORD PTR _nStartChar$[ebp], ebx
  00055	89 5d e0	 mov	 DWORD PTR _nEndChar$[ebp], ebx
  00058	89 7d ec	 mov	 DWORD PTR $T2[ebp], edi
  0005b	89 7d c8	 mov	 DWORD PTR _nEndSelected$1$[ebp], edi
  0005e	e8 00 00 00 00	 call	 ?GetSel@CRichEditCtrl@@QBEXAAJ0@Z ; CRichEditCtrl::GetSel
; File D:\git\src\IBK\IBK_DRFN\ProjSrc\SrcDrfn\Chart\HWSTRATEGYCONFIGUREWIZARD\Control\LogicEditCtrl.h

; 17   : 	CElementInLogic() 

  00063	8d 4d d0	 lea	 ecx, DWORD PTR _Element$[ebp+4]
  00066	ff 15 00 00 00
	00		 call	 DWORD PTR __imp_??0?$CStringT@DV?$StrTraitMFC_DLL@DV?$ChTraitsCRT@D@ATL@@@@@ATL@@QAE@XZ

; 27   : 		m_strValue = "";

  0006c	68 00 00 00 00	 push	 OFFSET ??_C@_00CNPNBAHC@@
  00071	8d 4d d0	 lea	 ecx, DWORD PTR _Element$[ebp+4]

; 17   : 	CElementInLogic() 

  00074	c6 45 fc 01	 mov	 BYTE PTR __$EHRec$[ebp+8], 1

; 23   : 		m_nType = 0;

  00078	89 5d cc	 mov	 DWORD PTR _Element$[ebp], ebx

; 24   : 		m_bTRUE = TRUE;

  0007b	c7 45 d4 01 00
	00 00		 mov	 DWORD PTR _Element$[ebp+8], 1

; 25   : 		m_nStartChar = 0;

  00082	89 5d d8	 mov	 DWORD PTR _Element$[ebp+12], ebx

; 26   : 		m_nEndChar = 0;

  00085	89 5d dc	 mov	 DWORD PTR _Element$[ebp+16], ebx

; 27   : 		m_strValue = "";

  00088	ff 15 00 00 00
	00		 call	 DWORD PTR __imp_??4?$CStringT@DV?$StrTraitMFC_DLL@DV?$ChTraitsCRT@D@ATL@@@@@ATL@@QAEAAV01@PBD@Z

; 17   : 	CElementInLogic() 

  0008e	8d 8d 74 ff ff
	ff		 lea	 ecx, DWORD PTR _ElementSt$[ebp+4]
  00094	ff 15 00 00 00
	00		 call	 DWORD PTR __imp_??0?$CStringT@DV?$StrTraitMFC_DLL@DV?$ChTraitsCRT@D@ATL@@@@@ATL@@QAE@XZ

; 27   : 		m_strValue = "";

  0009a	68 00 00 00 00	 push	 OFFSET ??_C@_00CNPNBAHC@@
  0009f	8d 8d 74 ff ff
	ff		 lea	 ecx, DWORD PTR _ElementSt$[ebp+4]

; 17   : 	CElementInLogic() 

  000a5	c6 45 fc 03	 mov	 BYTE PTR __$EHRec$[ebp+8], 3

; 23   : 		m_nType = 0;

  000a9	89 9d 70 ff ff
	ff		 mov	 DWORD PTR _ElementSt$[ebp], ebx

; 24   : 		m_bTRUE = TRUE;

  000af	c7 85 78 ff ff
	ff 01 00 00 00	 mov	 DWORD PTR _ElementSt$[ebp+8], 1

; 25   : 		m_nStartChar = 0;

  000b9	89 9d 7c ff ff
	ff		 mov	 DWORD PTR _ElementSt$[ebp+12], ebx

; 26   : 		m_nEndChar = 0;

  000bf	89 5d 80	 mov	 DWORD PTR _ElementSt$[ebp+16], ebx

; 27   : 		m_strValue = "";

  000c2	ff 15 00 00 00
	00		 call	 DWORD PTR __imp_??4?$CStringT@DV?$StrTraitMFC_DLL@DV?$ChTraitsCRT@D@ATL@@@@@ATL@@QAEAAV01@PBD@Z

; 17   : 	CElementInLogic() 

  000c8	8d 4d 88	 lea	 ecx, DWORD PTR _ElementEn$[ebp+4]
  000cb	ff 15 00 00 00
	00		 call	 DWORD PTR __imp_??0?$CStringT@DV?$StrTraitMFC_DLL@DV?$ChTraitsCRT@D@ATL@@@@@ATL@@QAE@XZ

; 27   : 		m_strValue = "";

  000d1	68 00 00 00 00	 push	 OFFSET ??_C@_00CNPNBAHC@@
  000d6	8d 4d 88	 lea	 ecx, DWORD PTR _ElementEn$[ebp+4]

; 17   : 	CElementInLogic() 

  000d9	c6 45 fc 05	 mov	 BYTE PTR __$EHRec$[ebp+8], 5

; 23   : 		m_nType = 0;

  000dd	89 5d 84	 mov	 DWORD PTR _ElementEn$[ebp], ebx

; 24   : 		m_bTRUE = TRUE;

  000e0	c7 45 8c 01 00
	00 00		 mov	 DWORD PTR _ElementEn$[ebp+8], 1

; 25   : 		m_nStartChar = 0;

  000e7	89 5d 90	 mov	 DWORD PTR _ElementEn$[ebp+12], ebx

; 26   : 		m_nEndChar = 0;

  000ea	89 5d 94	 mov	 DWORD PTR _ElementEn$[ebp+16], ebx

; 27   : 		m_strValue = "";

  000ed	ff 15 00 00 00
	00		 call	 DWORD PTR __imp_??4?$CStringT@DV?$StrTraitMFC_DLL@DV?$ChTraitsCRT@D@ATL@@@@@ATL@@QAEAAV01@PBD@Z

; 17   : 	CElementInLogic() 

  000f3	8d 4d 9c	 lea	 ecx, DWORD PTR _ElementStBefore$[ebp+4]
  000f6	ff 15 00 00 00
	00		 call	 DWORD PTR __imp_??0?$CStringT@DV?$StrTraitMFC_DLL@DV?$ChTraitsCRT@D@ATL@@@@@ATL@@QAE@XZ

; 27   : 		m_strValue = "";

  000fc	68 00 00 00 00	 push	 OFFSET ??_C@_00CNPNBAHC@@
  00101	8d 4d 9c	 lea	 ecx, DWORD PTR _ElementStBefore$[ebp+4]

; 17   : 	CElementInLogic() 

  00104	c6 45 fc 07	 mov	 BYTE PTR __$EHRec$[ebp+8], 7

; 23   : 		m_nType = 0;

  00108	89 5d 98	 mov	 DWORD PTR _ElementStBefore$[ebp], ebx

; 24   : 		m_bTRUE = TRUE;

  0010b	c7 45 a0 01 00
	00 00		 mov	 DWORD PTR _ElementStBefore$[ebp+8], 1

; 25   : 		m_nStartChar = 0;

  00112	89 5d a4	 mov	 DWORD PTR _ElementStBefore$[ebp+12], ebx

; 26   : 		m_nEndChar = 0;

  00115	89 5d a8	 mov	 DWORD PTR _ElementStBefore$[ebp+16], ebx

; 27   : 		m_strValue = "";

  00118	ff 15 00 00 00
	00		 call	 DWORD PTR __imp_??4?$CStringT@DV?$StrTraitMFC_DLL@DV?$ChTraitsCRT@D@ATL@@@@@ATL@@QAEAAV01@PBD@Z

; 17   : 	CElementInLogic() 

  0011e	8d 4d b0	 lea	 ecx, DWORD PTR _ElementEnAfter$[ebp+4]
  00121	ff 15 00 00 00
	00		 call	 DWORD PTR __imp_??0?$CStringT@DV?$StrTraitMFC_DLL@DV?$ChTraitsCRT@D@ATL@@@@@ATL@@QAE@XZ

; 27   : 		m_strValue = "";

  00127	68 00 00 00 00	 push	 OFFSET ??_C@_00CNPNBAHC@@
  0012c	8d 4d b0	 lea	 ecx, DWORD PTR _ElementEnAfter$[ebp+4]

; 17   : 	CElementInLogic() 

  0012f	c6 45 fc 09	 mov	 BYTE PTR __$EHRec$[ebp+8], 9

; 23   : 		m_nType = 0;

  00133	89 5d ac	 mov	 DWORD PTR _ElementEnAfter$[ebp], ebx

; 24   : 		m_bTRUE = TRUE;

  00136	c7 45 b4 01 00
	00 00		 mov	 DWORD PTR _ElementEnAfter$[ebp+8], 1

; 25   : 		m_nStartChar = 0;

  0013d	89 5d b8	 mov	 DWORD PTR _ElementEnAfter$[ebp+12], ebx

; 26   : 		m_nEndChar = 0;

  00140	89 5d bc	 mov	 DWORD PTR _ElementEnAfter$[ebp+16], ebx

; 27   : 		m_strValue = "";

  00143	ff 15 00 00 00
	00		 call	 DWORD PTR __imp_??4?$CStringT@DV?$StrTraitMFC_DLL@DV?$ChTraitsCRT@D@ATL@@@@@ATL@@QAEAAV01@PBD@Z
; File D:\git\src\IBK\IBK_DRFN\ProjSrc\SrcDrfn\Chart\HWSTRATEGYCONFIGUREWIZARD\Control\LogicEditCtrl.cpp

; 500  : 	int nSize = m_arrayElement.GetSize();

  00149	8b d6		 mov	 edx, esi
  0014b	c6 45 fc 0a	 mov	 BYTE PTR __$EHRec$[ebp+8], 10 ; 0000000aH
  0014f	8b 82 88 00 00
	00		 mov	 eax, DWORD PTR [edx+136]
  00155	89 45 c4	 mov	 DWORD PTR _nSize$1$[ebp], eax

; 501  : 	for(int nPos=0;nPos<nSize;nPos++)

  00158	33 f6		 xor	 esi, esi
  0015a	85 c0		 test	 eax, eax
  0015c	0f 8e 0f 01 00
	00		 jle	 $LN3@OnLButtonU
$LL4@OnLButtonU:
; File C:\Program Files (x86)\Microsoft Visual Studio\2019\Community\VC\Tools\MSVC\14.29.30133\atlmfc\include\afxtempl.h

; 288  : 	if(nIndex >= 0 && nIndex < m_nSize)

  00162	85 f6		 test	 esi, esi
  00164	0f 88 be 01 00
	00		 js	 $LN54@OnLButtonU
  0016a	3b b2 88 00 00
	00		 cmp	 esi, DWORD PTR [edx+136]
  00170	0f 8d b2 01 00
	00		 jge	 $LN54@OnLButtonU

; 289  : 		return m_pData[nIndex];

  00176	8b 82 84 00 00
	00		 mov	 eax, DWORD PTR [edx+132]
  0017c	8d 0c b6	 lea	 ecx, DWORD PTR [esi+esi*4]
  0017f	8d 3c 88	 lea	 edi, DWORD PTR [eax+ecx*4]
  00182	8b 07		 mov	 eax, DWORD PTR [edi]
  00184	8d 4d d0	 lea	 ecx, DWORD PTR _Element$[ebp+4]
  00187	89 45 cc	 mov	 DWORD PTR _Element$[ebp], eax
  0018a	8d 47 04	 lea	 eax, DWORD PTR [edi+4]
  0018d	50		 push	 eax
  0018e	ff 15 00 00 00
	00		 call	 DWORD PTR __imp_??4?$CStringT@DV?$StrTraitMFC_DLL@DV?$ChTraitsCRT@D@ATL@@@@@ATL@@QAEAAV01@ABV01@@Z
  00194	8b 47 08	 mov	 eax, DWORD PTR [edi+8]
  00197	89 45 d4	 mov	 DWORD PTR _Element$[ebp+8], eax
  0019a	8b 47 0c	 mov	 eax, DWORD PTR [edi+12]
  0019d	89 45 d8	 mov	 DWORD PTR _Element$[ebp+12], eax
  001a0	8b 4f 10	 mov	 ecx, DWORD PTR [edi+16]
  001a3	89 4d dc	 mov	 DWORD PTR _Element$[ebp+16], ecx
  001a6	3b 45 e4	 cmp	 eax, DWORD PTR _nStartChar$[ebp]
; File D:\git\src\IBK\IBK_DRFN\ProjSrc\SrcDrfn\Chart\HWSTRATEGYCONFIGUREWIZARD\Control\LogicEditCtrl.cpp

; 505  : 		if(Element.m_nStartChar>=nStartChar&&Element.m_nEndChar<=nEndChar)

  001a9	7c 18		 jl	 SHORT $LN101@OnLButtonU
  001ab	3b 4d e0	 cmp	 ecx, DWORD PTR _nEndChar$[ebp]
  001ae	7f 13		 jg	 SHORT $LN101@OnLButtonU
; File C:\Program Files (x86)\Microsoft Visual Studio\2019\Community\VC\Tools\MSVC\14.29.30133\atlmfc\include\cstringt.h

; 2486 : 		return(str1.Compare(psz2) == 0);

  001b0	68 00 00 00 00	 push	 OFFSET ??_C@_01ODHLEDKK@?$CI@
  001b5	8d 4d d0	 lea	 ecx, DWORD PTR _Element$[ebp+4]
  001b8	ff 15 00 00 00
	00		 call	 DWORD PTR __imp_?Compare@?$CStringT@DV?$StrTraitMFC_DLL@DV?$ChTraitsCRT@D@ATL@@@@@ATL@@QBEHPBD@Z
  001be	85 c0		 test	 eax, eax
; File D:\git\src\IBK\IBK_DRFN\ProjSrc\SrcDrfn\Chart\HWSTRATEGYCONFIGUREWIZARD\Control\LogicEditCtrl.cpp

; 507  : 			if(Element.m_strValue==STROPENPARENTHESISINLOGIC)

  001c0	75 30		 jne	 SHORT $LN6@OnLButtonU

; 508  : 			{
; 509  : 				nCntStackedOfParenthesisInSelection++;

  001c2	43		 inc	 ebx
$LN101@OnLButtonU:

; 522  : 			}
; 523  : 		}
; 524  : 
; 525  : 		// one Element & operation
; 526  : 		if(nStartChar==nEndChar&&Element.m_nStartChar<=nStartChar&&Element.m_nEndChar>=nEndChar&&Element.m_nType!=PARENTHESISINLOGIC)

  001c3	8b 55 f0	 mov	 edx, DWORD PTR _nCntNextInSelection$1$[ebp]
$LN90@OnLButtonU:
  001c6	8b 45 e4	 mov	 eax, DWORD PTR _nStartChar$[ebp]
  001c9	8b 4d e0	 mov	 ecx, DWORD PTR _nEndChar$[ebp]
  001cc	3b c1		 cmp	 eax, ecx
  001ce	75 5e		 jne	 SHORT $LN87@OnLButtonU
  001d0	39 45 d8	 cmp	 DWORD PTR _Element$[ebp+12], eax
  001d3	0f 8f 88 00 00
	00		 jg	 $LN98@OnLButtonU
  001d9	39 4d dc	 cmp	 DWORD PTR _Element$[ebp+16], ecx
  001dc	0f 8c 7f 00 00
	00		 jl	 $LN98@OnLButtonU
  001e2	83 7d cc 03	 cmp	 DWORD PTR _Element$[ebp], 3
  001e6	74 79		 je	 SHORT $LN98@OnLButtonU

; 527  : 		{
; 528  : 			nBeginSelected = nPos;

  001e8	8b fe		 mov	 edi, esi

; 529  : 			nEndSelected = nPos;

  001ea	89 75 c8	 mov	 DWORD PTR _nEndSelected$1$[ebp], esi
  001ed	89 7d ec	 mov	 DWORD PTR $T2[ebp], edi

; 530  : 		}

  001f0	eb 72		 jmp	 SHORT $LN2@OnLButtonU
$LN6@OnLButtonU:
; File C:\Program Files (x86)\Microsoft Visual Studio\2019\Community\VC\Tools\MSVC\14.29.30133\atlmfc\include\cstringt.h

; 2486 : 		return(str1.Compare(psz2) == 0);

  001f2	68 00 00 00 00	 push	 OFFSET ??_C@_01PKGAHCOL@?$CJ@
  001f7	8d 4d d0	 lea	 ecx, DWORD PTR _Element$[ebp+4]
  001fa	ff 15 00 00 00
	00		 call	 DWORD PTR __imp_?Compare@?$CStringT@DV?$StrTraitMFC_DLL@DV?$ChTraitsCRT@D@ATL@@@@@ATL@@QBEHPBD@Z
  00200	85 c0		 test	 eax, eax
; File D:\git\src\IBK\IBK_DRFN\ProjSrc\SrcDrfn\Chart\HWSTRATEGYCONFIGUREWIZARD\Control\LogicEditCtrl.cpp

; 511  : 			else if(Element.m_strValue==STRCLOSEPARENTHESISINLOGIC)

  00202	75 0f		 jne	 SHORT $LN8@OnLButtonU

; 512  : 			{
; 513  : 				nCntStackedOfParenthesisInSelection--;

  00204	83 eb 01	 sub	 ebx, 1

; 514  : 				if(nCntStackedOfParenthesisInSelection<0)

  00207	8b 55 f0	 mov	 edx, DWORD PTR _nCntNextInSelection$1$[ebp]
  0020a	79 ba		 jns	 SHORT $LN90@OnLButtonU

; 515  : 				{
; 516  : 					nCntStackedOfParenthesisInSelection = 1000;

  0020c	bb e8 03 00 00	 mov	 ebx, 1000		; 000003e8H

; 517  : 				}
; 518  : 			}

  00211	eb b3		 jmp	 SHORT $LN90@OnLButtonU
$LN8@OnLButtonU:
; File C:\Program Files (x86)\Microsoft Visual Studio\2019\Community\VC\Tools\MSVC\14.29.30133\atlmfc\include\cstringt.h

; 2486 : 		return(str1.Compare(psz2) == 0);

  00213	68 00 00 00 00	 push	 OFFSET ??_C@_04CJGEDOF@next@
  00218	8d 4d d0	 lea	 ecx, DWORD PTR _Element$[ebp+4]
  0021b	ff 15 00 00 00
	00		 call	 DWORD PTR __imp_?Compare@?$CStringT@DV?$StrTraitMFC_DLL@DV?$ChTraitsCRT@D@ATL@@@@@ATL@@QBEHPBD@Z
; File D:\git\src\IBK\IBK_DRFN\ProjSrc\SrcDrfn\Chart\HWSTRATEGYCONFIGUREWIZARD\Control\LogicEditCtrl.cpp

; 519  : 			else if(Element.m_strValue==STRNEXTINLOGIC)

  00221	8b 55 f0	 mov	 edx, DWORD PTR _nCntNextInSelection$1$[ebp]
; File C:\Program Files (x86)\Microsoft Visual Studio\2019\Community\VC\Tools\MSVC\14.29.30133\atlmfc\include\cstringt.h

; 2486 : 		return(str1.Compare(psz2) == 0);

  00224	85 c0		 test	 eax, eax
; File D:\git\src\IBK\IBK_DRFN\ProjSrc\SrcDrfn\Chart\HWSTRATEGYCONFIGUREWIZARD\Control\LogicEditCtrl.cpp

; 519  : 			else if(Element.m_strValue==STRNEXTINLOGIC)

  00226	75 9e		 jne	 SHORT $LN90@OnLButtonU

; 520  : 			{
; 521  : 				nCntNextInSelection++;

  00228	42		 inc	 edx
  00229	89 55 f0	 mov	 DWORD PTR _nCntNextInSelection$1$[ebp], edx
  0022c	eb 98		 jmp	 SHORT $LN90@OnLButtonU
$LN87@OnLButtonU:

; 531  : 		// one or more elements or parenthesis
; 532  : 		else if(nStartChar!=nEndChar&&Element.m_nStartChar>=nStartChar&&Element.m_nEndChar<=nEndChar&&Element.m_nType!=OPERATIONINLOGIC)

  0022e	8b 45 d8	 mov	 eax, DWORD PTR _Element$[ebp+12]
  00231	3b 45 e4	 cmp	 eax, DWORD PTR _nStartChar$[ebp]
  00234	7c 2b		 jl	 SHORT $LN98@OnLButtonU
  00236	8b 45 dc	 mov	 eax, DWORD PTR _Element$[ebp+16]
  00239	3b 45 e0	 cmp	 eax, DWORD PTR _nEndChar$[ebp]
  0023c	7f 23		 jg	 SHORT $LN98@OnLButtonU
  0023e	83 7d cc 02	 cmp	 DWORD PTR _Element$[ebp], 2
  00242	74 1d		 je	 SHORT $LN98@OnLButtonU

; 533  : 		{
; 534  : 			if(nCntNextInSelection>0)

  00244	85 d2		 test	 edx, edx
  00246	7f 38		 jg	 SHORT $LN83@OnLButtonU

; 541  : 			}
; 542  : 			if(nBeginSelected==-1)
; 543  : 			{
; 544  : 				nTypeSelection = Element.m_nType;
; 545  : 				nBeginSelected = nPos;
; 546  : 			}
; 547  : 			if(!nCntStackedOfParenthesisInSelection)

  00248	83 7d ec ff	 cmp	 DWORD PTR $T2[ebp], -1
  0024c	8b fe		 mov	 edi, esi
  0024e	0f 45 7d ec	 cmovne	 edi, DWORD PTR $T2[ebp]
  00252	89 7d ec	 mov	 DWORD PTR $T2[ebp], edi
  00255	85 db		 test	 ebx, ebx
  00257	75 0b		 jne	 SHORT $LN2@OnLButtonU

; 548  : 			{
; 549  : 				nEndSelected = nPos;

  00259	89 75 c8	 mov	 DWORD PTR _nEndSelected$1$[ebp], esi
  0025c	89 7d ec	 mov	 DWORD PTR $T2[ebp], edi
  0025f	eb 03		 jmp	 SHORT $LN2@OnLButtonU
$LN98@OnLButtonU:

; 501  : 	for(int nPos=0;nPos<nSize;nPos++)

  00261	8b 7d ec	 mov	 edi, DWORD PTR $T2[ebp]
$LN2@OnLButtonU:
  00264	8b 55 e8	 mov	 edx, DWORD PTR _this$1$[ebp]
  00267	46		 inc	 esi
  00268	3b 75 c4	 cmp	 esi, DWORD PTR _nSize$1$[ebp]
  0026b	0f 8c f1 fe ff
	ff		 jl	 $LL4@OnLButtonU
$LN3@OnLButtonU:

; 550  : 			}
; 551  : 		}
; 552  : 	}
; 553  : 	if(nEndSelected==-1)

  00271	8b 45 c8	 mov	 eax, DWORD PTR _nEndSelected$1$[ebp]
  00274	83 f8 ff	 cmp	 eax, -1
  00277	75 4f		 jne	 SHORT $LN18@OnLButtonU

; 554  : 	{
; 555  : 		m_nBeginSelected = -1;
; 556  : 	}

  00279	8b 55 e8	 mov	 edx, DWORD PTR _this$1$[ebp]
  0027c	0b f8		 or	 edi, eax
  0027e	eb 4e		 jmp	 SHORT $LN19@OnLButtonU
$LN83@OnLButtonU:

; 535  : 			{
; 536  : 				nEndSelected = -1;
; 537  : 				CString strMessage;

  00280	8d 4d f0	 lea	 ecx, DWORD PTR _strMessage$3[ebp]
  00283	ff 15 00 00 00
	00		 call	 DWORD PTR __imp_??0?$CStringT@DV?$StrTraitMFC_DLL@DV?$ChTraitsCRT@D@ATL@@@@@ATL@@QAE@XZ

; 538  : 				strMessage.Format("( ) %s  .",STRNEXTINLOGIC);

  00289	68 00 00 00 00	 push	 OFFSET ??_C@_04CJGEDOF@next@
  0028e	8d 45 f0	 lea	 eax, DWORD PTR _strMessage$3[ebp]
  00291	c6 45 fc 0b	 mov	 BYTE PTR __$EHRec$[ebp+8], 11 ; 0000000bH
  00295	68 00 00 00 00	 push	 OFFSET ??_C@_0CA@BKADIGHL@?$CI?5?$CJ?$LO?H?$LP?$KB?5?$CFs?$MA?$LL?5?$LL?g?$LP?k?G?R?$LM?v?5?$LO?x?$LN?$MA?$LE?O?$LE?Y?4@
  0029a	50		 push	 eax
  0029b	ff 15 00 00 00
	00		 call	 DWORD PTR __imp_?Format@?$CStringT@DV?$StrTraitMFC_DLL@DV?$ChTraitsCRT@D@ATL@@@@@ATL@@QAAXPBDZZ

; 539  : 				MessageBox(strMessage);

  002a1	8b 4d e8	 mov	 ecx, DWORD PTR _this$1$[ebp]
  002a4	83 c4 0c	 add	 esp, 12			; 0000000cH
  002a7	6a 00		 push	 0
  002a9	6a 00		 push	 0
  002ab	ff 75 f0	 push	 DWORD PTR _strMessage$3[ebp]
  002ae	e8 00 00 00 00	 call	 ?MessageBoxA@CWnd@@QAEHPBD0I@Z ; CWnd::MessageBoxA

; 540  : 				break;

  002b3	8d 4d f0	 lea	 ecx, DWORD PTR _strMessage$3[ebp]
  002b6	c6 45 fc 0a	 mov	 BYTE PTR __$EHRec$[ebp+8], 10 ; 0000000aH
  002ba	ff 15 00 00 00
	00		 call	 DWORD PTR __imp_??1?$CStringT@DV?$StrTraitMFC_DLL@DV?$ChTraitsCRT@D@ATL@@@@@ATL@@QAE@XZ

; 554  : 	{
; 555  : 		m_nBeginSelected = -1;
; 556  : 	}

  002c0	8b 55 e8	 mov	 edx, DWORD PTR _this$1$[ebp]
  002c3	83 cf ff	 or	 edi, -1
  002c6	eb 06		 jmp	 SHORT $LN19@OnLButtonU
$LN18@OnLButtonU:

; 557  : 	else
; 558  : 	{
; 559  : 		m_nBeginSelected = nBeginSelected;
; 560  : 		m_nEndSelected = nEndSelected;	

  002c8	89 82 a4 00 00
	00		 mov	 DWORD PTR [edx+164], eax
$LN19@OnLButtonU:

; 561  : 	}		
; 562  : 	UpdateLogic();

  002ce	8b ca		 mov	 ecx, edx
  002d0	89 ba a0 00 00
	00		 mov	 DWORD PTR [edx+160], edi
  002d6	e8 00 00 00 00	 call	 ?UpdateLogic@CLogicEditCtrl@@AAEXXZ ; CLogicEditCtrl::UpdateLogic
  002db	8d 4d b0	 lea	 ecx, DWORD PTR _ElementEnAfter$[ebp+4]
  002de	ff 15 00 00 00
	00		 call	 DWORD PTR __imp_??1?$CStringT@DV?$StrTraitMFC_DLL@DV?$ChTraitsCRT@D@ATL@@@@@ATL@@QAE@XZ
  002e4	8d 4d 9c	 lea	 ecx, DWORD PTR _ElementStBefore$[ebp+4]
  002e7	ff 15 00 00 00
	00		 call	 DWORD PTR __imp_??1?$CStringT@DV?$StrTraitMFC_DLL@DV?$ChTraitsCRT@D@ATL@@@@@ATL@@QAE@XZ
  002ed	8d 4d 88	 lea	 ecx, DWORD PTR _ElementEn$[ebp+4]
  002f0	ff 15 00 00 00
	00		 call	 DWORD PTR __imp_??1?$CStringT@DV?$StrTraitMFC_DLL@DV?$ChTraitsCRT@D@ATL@@@@@ATL@@QAE@XZ
  002f6	8d 8d 74 ff ff
	ff		 lea	 ecx, DWORD PTR _ElementSt$[ebp+4]
  002fc	ff 15 00 00 00
	00		 call	 DWORD PTR __imp_??1?$CStringT@DV?$StrTraitMFC_DLL@DV?$ChTraitsCRT@D@ATL@@@@@ATL@@QAE@XZ
  00302	8d 4d d0	 lea	 ecx, DWORD PTR _Element$[ebp+4]
  00305	ff 15 00 00 00
	00		 call	 DWORD PTR __imp_??1?$CStringT@DV?$StrTraitMFC_DLL@DV?$ChTraitsCRT@D@ATL@@@@@ATL@@QAE@XZ

; 563  : }

  0030b	8d 4d c0	 lea	 ecx, DWORD PTR _strText$[ebp]
  0030e	ff 15 00 00 00
	00		 call	 DWORD PTR __imp_??1?$CStringT@DV?$StrTraitMFC_DLL@DV?$ChTraitsCRT@D@ATL@@@@@ATL@@QAE@XZ
  00314	8b 4d f4	 mov	 ecx, DWORD PTR __$EHRec$[ebp]
  00317	64 89 0d 00 00
	00 00		 mov	 DWORD PTR fs:0, ecx
  0031e	59		 pop	 ecx
  0031f	5f		 pop	 edi
  00320	5e		 pop	 esi
  00321	5b		 pop	 ebx
  00322	8b e5		 mov	 esp, ebp
  00324	5d		 pop	 ebp
  00325	c2 0c 00	 ret	 12			; 0000000cH
$LN54@OnLButtonU:
; File C:\Program Files (x86)\Microsoft Visual Studio\2019\Community\VC\Tools\MSVC\14.29.30133\atlmfc\include\afxtempl.h

; 290  : 	AfxThrowInvalidArgException();

  00328	e8 00 00 00 00	 call	 ?AfxThrowInvalidArgException@@YGXXZ ; AfxThrowInvalidArgException
$LN104@OnLButtonU:
  0032d	cc		 int	 3
_TEXT	ENDS
;	COMDAT text$x
text$x	SEGMENT
__unwindfunclet$?OnLButtonUp@CLogicEditCtrl@@IAEXIVCPoint@@@Z$0:
  00000	8d 4d c0	 lea	 ecx, DWORD PTR _strText$[ebp]
  00003	ff 25 00 00 00
	00		 jmp	 DWORD PTR __imp_??1?$CStringT@DV?$StrTraitMFC_DLL@DV?$ChTraitsCRT@D@ATL@@@@@ATL@@QAE@XZ
__unwindfunclet$?OnLButtonUp@CLogicEditCtrl@@IAEXIVCPoint@@@Z$7:
  00009	8d 4d d0	 lea	 ecx, DWORD PTR _Element$[ebp+4]
  0000c	ff 25 00 00 00
	00		 jmp	 DWORD PTR __imp_??1?$CStringT@DV?$StrTraitMFC_DLL@DV?$ChTraitsCRT@D@ATL@@@@@ATL@@QAE@XZ
__unwindfunclet$?OnLButtonUp@CLogicEditCtrl@@IAEXIVCPoint@@@Z$1:
  00012	8d 4d cc	 lea	 ecx, DWORD PTR _Element$[ebp]
  00015	e9 00 00 00 00	 jmp	 ??1CElementInLogic@@QAE@XZ
__unwindfunclet$?OnLButtonUp@CLogicEditCtrl@@IAEXIVCPoint@@@Z$8:
  0001a	8d 8d 74 ff ff
	ff		 lea	 ecx, DWORD PTR _ElementSt$[ebp+4]
  00020	ff 25 00 00 00
	00		 jmp	 DWORD PTR __imp_??1?$CStringT@DV?$StrTraitMFC_DLL@DV?$ChTraitsCRT@D@ATL@@@@@ATL@@QAE@XZ
__unwindfunclet$?OnLButtonUp@CLogicEditCtrl@@IAEXIVCPoint@@@Z$2:
  00026	8d 8d 70 ff ff
	ff		 lea	 ecx, DWORD PTR _ElementSt$[ebp]
  0002c	e9 00 00 00 00	 jmp	 ??1CElementInLogic@@QAE@XZ
__unwindfunclet$?OnLButtonUp@CLogicEditCtrl@@IAEXIVCPoint@@@Z$9:
  00031	8d 4d 88	 lea	 ecx, DWORD PTR _ElementEn$[ebp+4]
  00034	ff 25 00 00 00
	00		 jmp	 DWORD PTR __imp_??1?$CStringT@DV?$StrTraitMFC_DLL@DV?$ChTraitsCRT@D@ATL@@@@@ATL@@QAE@XZ
__unwindfunclet$?OnLButtonUp@CLogicEditCtrl@@IAEXIVCPoint@@@Z$3:
  0003a	8d 4d 84	 lea	 ecx, DWORD PTR _ElementEn$[ebp]
  0003d	e9 00 00 00 00	 jmp	 ??1CElementInLogic@@QAE@XZ
__unwindfunclet$?OnLButtonUp@CLogicEditCtrl@@IAEXIVCPoint@@@Z$10:
  00042	8d 4d 9c	 lea	 ecx, DWORD PTR _ElementStBefore$[ebp+4]
  00045	ff 25 00 00 00
	00		 jmp	 DWORD PTR __imp_??1?$CStringT@DV?$StrTraitMFC_DLL@DV?$ChTraitsCRT@D@ATL@@@@@ATL@@QAE@XZ
__unwindfunclet$?OnLButtonUp@CLogicEditCtrl@@IAEXIVCPoint@@@Z$4:
  0004b	8d 4d 98	 lea	 ecx, DWORD PTR _ElementStBefore$[ebp]
  0004e	e9 00 00 00 00	 jmp	 ??1CElementInLogic@@QAE@XZ
__unwindfunclet$?OnLButtonUp@CLogicEditCtrl@@IAEXIVCPoint@@@Z$11:
  00053	8d 4d b0	 lea	 ecx, DWORD PTR _ElementEnAfter$[ebp+4]
  00056	ff 25 00 00 00
	00		 jmp	 DWORD PTR __imp_??1?$CStringT@DV?$StrTraitMFC_DLL@DV?$ChTraitsCRT@D@ATL@@@@@ATL@@QAE@XZ
__unwindfunclet$?OnLButtonUp@CLogicEditCtrl@@IAEXIVCPoint@@@Z$5:
  0005c	8d 4d ac	 lea	 ecx, DWORD PTR _ElementEnAfter$[ebp]
  0005f	e9 00 00 00 00	 jmp	 ??1CElementInLogic@@QAE@XZ
__unwindfunclet$?OnLButtonUp@CLogicEditCtrl@@IAEXIVCPoint@@@Z$6:
  00064	8d 4d f0	 lea	 ecx, DWORD PTR _strMessage$3[ebp]
  00067	ff 25 00 00 00
	00		 jmp	 DWORD PTR __imp_??1?$CStringT@DV?$StrTraitMFC_DLL@DV?$ChTraitsCRT@D@ATL@@@@@ATL@@QAE@XZ
  0006d	cc		 int	 3
  0006e	cc		 int	 3
  0006f	cc		 int	 3
  00070	cc		 int	 3
  00071	cc		 int	 3
__ehhandler$?OnLButtonUp@CLogicEditCtrl@@IAEXIVCPoint@@@Z:
  00072	90		 npad	 1
  00073	90		 npad	 1
  00074	8b 54 24 08	 mov	 edx, DWORD PTR [esp+8]
  00078	8d 42 0c	 lea	 eax, DWORD PTR [edx+12]
  0007b	8b 8a 6c ff ff
	ff		 mov	 ecx, DWORD PTR [edx-148]
  00081	33 c8		 xor	 ecx, eax
  00083	e8 00 00 00 00	 call	 @__security_check_cookie@4
  00088	b8 00 00 00 00	 mov	 eax, OFFSET __ehfuncinfo$?OnLButtonUp@CLogicEditCtrl@@IAEXIVCPoint@@@Z
  0008d	e9 00 00 00 00	 jmp	 ___CxxFrameHandler3
text$x	ENDS
?OnLButtonUp@CLogicEditCtrl@@IAEXIVCPoint@@@Z ENDP	; CLogicEditCtrl::OnLButtonUp
; Function compile flags: /Ogtp
; File D:\git\src\IBK\IBK_DRFN\ProjSrc\SrcDrfn\Chart\HWSTRATEGYCONFIGUREWIZARD\Control\LogicEditCtrl.cpp
; File C:\Program Files (x86)\Microsoft Visual Studio\2019\Community\VC\Tools\MSVC\14.29.30133\atlmfc\include\afxwin1.inl
; File D:\git\src\IBK\IBK_DRFN\ProjSrc\SrcDrfn\Chart\HWSTRATEGYCONFIGUREWIZARD\Control\LogicEditCtrl.cpp
;	COMDAT ??1CLogicEditCtrl@@UAE@XZ
_TEXT	SEGMENT
__$EHRec$ = -12						; size = 12
??1CLogicEditCtrl@@UAE@XZ PROC				; CLogicEditCtrl::~CLogicEditCtrl, COMDAT
; _this$ = ecx

; 43   : {

  00000	55		 push	 ebp
  00001	8b ec		 mov	 ebp, esp
  00003	6a ff		 push	 -1
  00005	68 00 00 00 00	 push	 __ehhandler$??1CLogicEditCtrl@@UAE@XZ
  0000a	64 a1 00 00 00
	00		 mov	 eax, DWORD PTR fs:0
  00010	50		 push	 eax
  00011	56		 push	 esi
  00012	57		 push	 edi
  00013	a1 00 00 00 00	 mov	 eax, DWORD PTR ___security_cookie
  00018	33 c5		 xor	 eax, ebp
  0001a	50		 push	 eax
  0001b	8d 45 f4	 lea	 eax, DWORD PTR __$EHRec$[ebp]
  0001e	64 a3 00 00 00
	00		 mov	 DWORD PTR fs:0, eax
  00024	8b f9		 mov	 edi, ecx

; 44   : 	m_fontDefault.DeleteObject();

  00026	8d 8f 94 00 00
	00		 lea	 ecx, DWORD PTR [edi+148]
  0002c	c7 07 00 00 00
	00		 mov	 DWORD PTR [edi], OFFSET ??_7CLogicEditCtrl@@6B@
  00032	e8 00 00 00 00	 call	 ?DeleteObject@CGdiObject@@QAEHXZ ; CGdiObject::DeleteObject
; File C:\Program Files (x86)\Microsoft Visual Studio\2019\Community\VC\Tools\MSVC\14.29.30133\atlmfc\include\afxwin1.inl

; 155  : 	{ }

  00037	8d 8f 94 00 00
	00		 lea	 ecx, DWORD PTR [edi+148]
  0003d	c7 87 94 00 00
	00 00 00 00 00	 mov	 DWORD PTR [edi+148], OFFSET ??_7CFont@@6B@
  00047	e8 00 00 00 00	 call	 ??1CGdiObject@@UAE@XZ	; CGdiObject::~CGdiObject
; File D:\git\src\IBK\IBK_DRFN\ProjSrc\SrcDrfn\Chart\HWSTRATEGYCONFIGUREWIZARD\Control\LogicEditCtrl.cpp

; 45   : }

  0004c	8d 8f 80 00 00
	00		 lea	 ecx, DWORD PTR [edi+128]
  00052	e8 00 00 00 00	 call	 ??1?$CArray@VCElementInLogic@@AAV1@@@UAE@XZ ; CArray<CElementInLogic,CElementInLogic &>::~CArray<CElementInLogic,CElementInLogic &>
  00057	8b cf		 mov	 ecx, edi
  00059	e8 00 00 00 00	 call	 ??1CRichEditCtrl@@UAE@XZ ; CRichEditCtrl::~CRichEditCtrl
  0005e	8b 4d f4	 mov	 ecx, DWORD PTR __$EHRec$[ebp]
  00061	64 89 0d 00 00
	00 00		 mov	 DWORD PTR fs:0, ecx
  00068	59		 pop	 ecx
  00069	5f		 pop	 edi
  0006a	5e		 pop	 esi
  0006b	8b e5		 mov	 esp, ebp
  0006d	5d		 pop	 ebp
  0006e	c3		 ret	 0
  0006f	cc		 int	 3
  00070	cc		 int	 3
  00071	cc		 int	 3
  00072	cc		 int	 3
  00073	cc		 int	 3
_TEXT	ENDS
;	COMDAT text$x
text$x	SEGMENT
__ehhandler$??1CLogicEditCtrl@@UAE@XZ:
  00000	90		 npad	 1
  00001	90		 npad	 1
  00002	8b 54 24 08	 mov	 edx, DWORD PTR [esp+8]
  00006	8d 42 0c	 lea	 eax, DWORD PTR [edx+12]
  00009	8b 4a f4	 mov	 ecx, DWORD PTR [edx-12]
  0000c	33 c8		 xor	 ecx, eax
  0000e	e8 00 00 00 00	 call	 @__security_check_cookie@4
  00013	b8 00 00 00 00	 mov	 eax, OFFSET __ehfuncinfo$??1CLogicEditCtrl@@UAE@XZ
  00018	e9 00 00 00 00	 jmp	 ___CxxFrameHandler3
text$x	ENDS
??1CLogicEditCtrl@@UAE@XZ ENDP				; CLogicEditCtrl::~CLogicEditCtrl
; Function compile flags: /Ogtp
; File D:\git\src\IBK\IBK_DRFN\ProjSrc\SrcDrfn\Chart\HWSTRATEGYCONFIGUREWIZARD\Control\LogicEditCtrl.cpp
; File C:\Program Files (x86)\Microsoft Visual Studio\2019\Community\VC\Tools\MSVC\14.29.30133\atlmfc\include\afxwin2.inl
; File D:\git\src\IBK\IBK_DRFN\ProjSrc\SrcDrfn\Chart\HWSTRATEGYCONFIGUREWIZARD\Control\LogicEditCtrl.cpp
;	COMDAT ?PreTranslateMessage@CLogicEditCtrl@@UAEHPAUtagMSG@@@Z
_TEXT	SEGMENT
_pMsg$ = 8						; size = 4
?PreTranslateMessage@CLogicEditCtrl@@UAEHPAUtagMSG@@@Z PROC ; CLogicEditCtrl::PreTranslateMessage, COMDAT
; _this$ = ecx

; 434  : {

  00000	55		 push	 ebp
  00001	8b ec		 mov	 ebp, esp
  00003	56		 push	 esi
  00004	8b f1		 mov	 esi, ecx
; File C:\Program Files (x86)\Microsoft Visual Studio\2019\Community\VC\Tools\MSVC\14.29.30133\atlmfc\include\afxwin2.inl

; 249  : 	{ ASSERT(::IsWindow(m_hWnd)); ::HideCaret(m_hWnd); }

  00006	ff 76 20	 push	 DWORD PTR [esi+32]
  00009	ff 15 00 00 00
	00		 call	 DWORD PTR __imp__HideCaret@4
; File D:\git\src\IBK\IBK_DRFN\ProjSrc\SrcDrfn\Chart\HWSTRATEGYCONFIGUREWIZARD\Control\LogicEditCtrl.cpp

; 437  : 	return CRichEditCtrl::PreTranslateMessage(pMsg);

  0000f	ff 75 08	 push	 DWORD PTR _pMsg$[ebp]
  00012	8b ce		 mov	 ecx, esi
  00014	e8 00 00 00 00	 call	 ?PreTranslateMessage@CWnd@@UAEHPAUtagMSG@@@Z ; CWnd::PreTranslateMessage
  00019	5e		 pop	 esi

; 438  : }

  0001a	5d		 pop	 ebp
  0001b	c2 04 00	 ret	 4
?PreTranslateMessage@CLogicEditCtrl@@UAEHPAUtagMSG@@@Z ENDP ; CLogicEditCtrl::PreTranslateMessage
_TEXT	ENDS
; Function compile flags: /Ogtp
; File C:\Program Files (x86)\Microsoft Visual Studio\2019\Community\VC\Tools\MSVC\14.29.30133\atlmfc\include\afx.inl
;	COMDAT ??_G?$CArray@VCElementInLogic@@AAV1@@@UAEPAXI@Z
_TEXT	SEGMENT
___flags$ = 8						; size = 4
??_G?$CArray@VCElementInLogic@@AAV1@@@UAEPAXI@Z PROC	; CArray<CElementInLogic,CElementInLogic &>::`scalar deleting destructor', COMDAT
; _this$ = ecx
  00000	55		 push	 ebp
  00001	8b ec		 mov	 ebp, esp
  00003	56		 push	 esi
  00004	8b f1		 mov	 esi, ecx
  00006	e8 00 00 00 00	 call	 ??1?$CArray@VCElementInLogic@@AAV1@@@UAE@XZ ; CArray<CElementInLogic,CElementInLogic &>::~CArray<CElementInLogic,CElementInLogic &>
  0000b	8b 45 08	 mov	 eax, DWORD PTR ___flags$[ebp]
  0000e	a8 01		 test	 al, 1
  00010	74 1f		 je	 SHORT $LN9@scalar
  00012	a8 04		 test	 al, 4
  00014	75 10		 jne	 SHORT $LN3@scalar

; 112  : 	{ ::operator delete(p); }

  00016	56		 push	 esi
  00017	e8 00 00 00 00	 call	 ??3@YAXPAX@Z		; operator delete
  0001c	83 c4 04	 add	 esp, 4
  0001f	8b c6		 mov	 eax, esi
  00021	5e		 pop	 esi
  00022	5d		 pop	 ebp
  00023	c2 04 00	 ret	 4
$LN3@scalar:
  00026	6a 14		 push	 20			; 00000014H
  00028	56		 push	 esi
  00029	e8 00 00 00 00	 call	 ?__global_delete@@YAXPAXI@Z ; __global_delete
  0002e	83 c4 08	 add	 esp, 8
$LN9@scalar:
  00031	8b c6		 mov	 eax, esi
  00033	5e		 pop	 esi
  00034	5d		 pop	 ebp
  00035	c2 04 00	 ret	 4
??_G?$CArray@VCElementInLogic@@AAV1@@@UAEPAXI@Z ENDP	; CArray<CElementInLogic,CElementInLogic &>::`scalar deleting destructor'
_TEXT	ENDS
; Function compile flags: /Ogtp
; File C:\Program Files (x86)\Microsoft Visual Studio\2019\Community\VC\Tools\MSVC\14.29.30133\atlmfc\include\afxtempl.h
; File C:\Program Files (x86)\Microsoft Visual Studio\2019\Community\VC\Tools\MSVC\14.29.30133\atlmfc\include\afx.inl
; File C:\Program Files (x86)\Microsoft Visual Studio\2019\Community\VC\Tools\MSVC\14.29.30133\atlmfc\include\afxtempl.h
; File C:\Program Files (x86)\Microsoft Visual Studio\2019\Community\VC\Tools\MSVC\14.29.30133\atlmfc\include\afx.inl
; File C:\Program Files (x86)\Microsoft Visual Studio\2019\Community\VC\Tools\MSVC\14.29.30133\atlmfc\include\afxtempl.h
; File C:\Program Files (x86)\Microsoft Visual Studio\2019\Community\VC\Tools\MSVC\14.29.30133\atlmfc\include\afx.inl
; File C:\Program Files (x86)\Microsoft Visual Studio\2019\Community\VC\Tools\MSVC\14.29.30133\atlmfc\include\afxtempl.h
; File C:\Program Files (x86)\Microsoft Visual Studio\2019\Community\VC\Tools\MSVC\14.29.30133\atlmfc\include\afx.inl
; File C:\Program Files (x86)\Microsoft Visual Studio\2019\Community\VC\Tools\MSVC\14.29.30133\atlmfc\include\afxtempl.h
;	COMDAT ?Serialize@?$CArray@VCElementInLogic@@AAV1@@@UAEXAAVCArchive@@@Z
_TEXT	SEGMENT
_pData$1$ = -4						; size = 4
_ar$ = 8						; size = 4
?Serialize@?$CArray@VCElementInLogic@@AAV1@@@UAEXAAVCArchive@@@Z PROC ; CArray<CElementInLogic,CElementInLogic &>::Serialize, COMDAT
; _this$ = ecx

; 633  : {

  00000	55		 push	 ebp
  00001	8b ec		 mov	 ebp, esp
  00003	51		 push	 ecx
  00004	53		 push	 ebx
  00005	56		 push	 esi
  00006	57		 push	 edi
  00007	8b f9		 mov	 edi, ecx
; File C:\Program Files (x86)\Microsoft Visual Studio\2019\Community\VC\Tools\MSVC\14.29.30133\atlmfc\include\afx.inl

; 212  : 	{ return (m_nMode & CArchive::load) == 0; }

  00009	8b 4d 08	 mov	 ecx, DWORD PTR _ar$[ebp]
  0000c	8b 41 18	 mov	 eax, DWORD PTR [ecx+24]
  0000f	f7 d0		 not	 eax
  00011	a8 01		 test	 al, 1
; File C:\Program Files (x86)\Microsoft Visual Studio\2019\Community\VC\Tools\MSVC\14.29.30133\atlmfc\include\afxtempl.h

; 637  : 	if (ar.IsStoring())

  00013	74 0a		 je	 SHORT $LN2@Serialize

; 638  : 	{
; 639  : 		ar.WriteCount(m_nSize);

  00015	ff 77 08	 push	 DWORD PTR [edi+8]
  00018	e8 00 00 00 00	 call	 ?WriteCount@CArchive@@QAEXK@Z ; CArchive::WriteCount

; 640  : 	}

  0001d	eb 0f		 jmp	 SHORT $LN3@Serialize
$LN2@Serialize:

; 641  : 	else
; 642  : 	{
; 643  : 		DWORD_PTR nOldSize = ar.ReadCount();

  0001f	e8 00 00 00 00	 call	 ?ReadCount@CArchive@@QAEKXZ ; CArchive::ReadCount

; 644  : 		SetSize(nOldSize, -1);

  00024	6a ff		 push	 -1
  00026	50		 push	 eax
  00027	8b cf		 mov	 ecx, edi
  00029	e8 00 00 00 00	 call	 ?SetSize@?$CArray@VCElementInLogic@@AAV1@@@QAEXHH@Z ; CArray<CElementInLogic,CElementInLogic &>::SetSize
$LN3@Serialize:

; 645  : 	}
; 646  : 	SerializeElements<TYPE>(ar, m_pData, m_nSize);

  0002e	8b 77 08	 mov	 esi, DWORD PTR [edi+8]
  00031	8b 4f 04	 mov	 ecx, DWORD PTR [edi+4]
  00034	89 4d fc	 mov	 DWORD PTR _pData$1$[ebp], ecx

; 68   : 	ENSURE(nCount == 0 || pElements != NULL);

  00037	85 f6		 test	 esi, esi
  00039	74 08		 je	 SHORT $LN8@Serialize
  0003b	85 c9		 test	 ecx, ecx
  0003d	0f 84 8b 00 00
	00		 je	 $LN40@Serialize
$LN8@Serialize:
; File C:\Program Files (x86)\Microsoft Visual Studio\2019\Community\VC\Tools\MSVC\14.29.30133\atlmfc\include\afx.inl

; 212  : 	{ return (m_nMode & CArchive::load) == 0; }

  00043	8b 55 08	 mov	 edx, DWORD PTR _ar$[ebp]
  00046	8b 42 18	 mov	 eax, DWORD PTR [edx+24]
  00049	f7 d0		 not	 eax
  0004b	a8 01		 test	 al, 1
; File C:\Program Files (x86)\Microsoft Visual Studio\2019\Community\VC\Tools\MSVC\14.29.30133\atlmfc\include\afxtempl.h

; 73   : 	if (ar.IsStoring())

  0004d	74 35		 je	 SHORT $LN16@Serialize

; 74   : 	{
; 75   : 		TYPE* pData;
; 76   : 		UINT_PTR nElementsLeft;
; 77   : 
; 78   : 		nElementsLeft = nCount;
; 79   : 		pData = pElements;
; 80   : 		while( nElementsLeft > 0 )

  0004f	85 f6		 test	 esi, esi
  00051	74 28		 je	 SHORT $LN14@Serialize
$LL11@Serialize:

; 81   : 		{
; 82   : 			UINT nElementsToWrite;
; 83   : 
; 84   : 			nElementsToWrite = UINT(__min(nElementsLeft, INT_MAX/sizeof(TYPE)));

  00053	bb 66 66 66 06	 mov	 ebx, 107374182		; 06666666H
  00058	3b f3		 cmp	 esi, ebx
  0005a	0f 42 de	 cmovb	 ebx, esi

; 85   : 			ar.Write(pData, nElementsToWrite*sizeof(TYPE));

  0005d	8d 3c 9b	 lea	 edi, DWORD PTR [ebx+ebx*4]
  00060	c1 e7 02	 shl	 edi, 2
  00063	57		 push	 edi
  00064	51		 push	 ecx
  00065	8b ca		 mov	 ecx, edx
  00067	e8 00 00 00 00	 call	 ?Write@CArchive@@QAEXPBXI@Z ; CArchive::Write

; 86   : 			nElementsLeft -= nElementsToWrite;
; 87   : 			pData += nElementsToWrite;

  0006c	8b 4d fc	 mov	 ecx, DWORD PTR _pData$1$[ebp]
  0006f	8b 55 08	 mov	 edx, DWORD PTR _ar$[ebp]
  00072	03 cf		 add	 ecx, edi
  00074	89 4d fc	 mov	 DWORD PTR _pData$1$[ebp], ecx
  00077	2b f3		 sub	 esi, ebx
  00079	75 d8		 jne	 SHORT $LL11@Serialize
$LN14@Serialize:
  0007b	5f		 pop	 edi

; 647  : }

  0007c	5e		 pop	 esi
  0007d	5b		 pop	 ebx
  0007e	8b e5		 mov	 esp, ebp
  00080	5d		 pop	 ebp
  00081	c2 04 00	 ret	 4
$LN16@Serialize:

; 97   : 		while( nElementsLeft > 0 )

  00084	85 f6		 test	 esi, esi
  00086	74 f3		 je	 SHORT $LN14@Serialize
  00088	0f 1f 84 00 00
	00 00 00	 npad	 8
$LL13@Serialize:

; 98   : 		{
; 99   : 			UINT nElementsToRead;
; 100  : 
; 101  : 			nElementsToRead = UINT(__min(nElementsLeft, INT_MAX/sizeof(TYPE)));

  00090	bf 66 66 66 06	 mov	 edi, 107374182		; 06666666H
  00095	3b f7		 cmp	 esi, edi
  00097	0f 42 fe	 cmovb	 edi, esi

; 102  : 			ar.EnsureRead(pData, nElementsToRead*sizeof(TYPE));

  0009a	8d 1c bf	 lea	 ebx, DWORD PTR [edi+edi*4]
  0009d	c1 e3 02	 shl	 ebx, 2
; File C:\Program Files (x86)\Microsoft Visual Studio\2019\Community\VC\Tools\MSVC\14.29.30133\atlmfc\include\afx.inl

; 399  : 	UINT nRead=Read(lpBuf, nCount);

  000a0	53		 push	 ebx
  000a1	51		 push	 ecx
  000a2	8b ca		 mov	 ecx, edx
  000a4	e8 00 00 00 00	 call	 ?Read@CArchive@@QAEIPAXI@Z ; CArchive::Read

; 400  : 	if(nRead!=nCount)

  000a9	3b c3		 cmp	 eax, ebx
  000ab	75 18		 jne	 SHORT $LN30@Serialize
; File C:\Program Files (x86)\Microsoft Visual Studio\2019\Community\VC\Tools\MSVC\14.29.30133\atlmfc\include\afxtempl.h

; 97   : 		while( nElementsLeft > 0 )

  000ad	8b 4d fc	 mov	 ecx, DWORD PTR _pData$1$[ebp]
  000b0	8b 55 08	 mov	 edx, DWORD PTR _ar$[ebp]

; 103  : 			nElementsLeft -= nElementsToRead;
; 104  : 			pData += nElementsToRead;

  000b3	03 cb		 add	 ecx, ebx
  000b5	89 4d fc	 mov	 DWORD PTR _pData$1$[ebp], ecx
  000b8	2b f7		 sub	 esi, edi
  000ba	75 d4		 jne	 SHORT $LL13@Serialize

; 647  : }

  000bc	5f		 pop	 edi
  000bd	5e		 pop	 esi
  000be	5b		 pop	 ebx
  000bf	8b e5		 mov	 esp, ebp
  000c1	5d		 pop	 ebp
  000c2	c2 04 00	 ret	 4
$LN30@Serialize:
; File C:\Program Files (x86)\Microsoft Visual Studio\2019\Community\VC\Tools\MSVC\14.29.30133\atlmfc\include\afx.inl

; 402  : 		AfxThrowArchiveException(CArchiveException::endOfFile);

  000c5	6a 00		 push	 0
  000c7	6a 03		 push	 3
  000c9	e8 00 00 00 00	 call	 ?AfxThrowArchiveException@@YGXHPBD@Z ; AfxThrowArchiveException
$LN40@Serialize:
; File C:\Program Files (x86)\Microsoft Visual Studio\2019\Community\VC\Tools\MSVC\14.29.30133\atlmfc\include\afxtempl.h

; 68   : 	ENSURE(nCount == 0 || pElements != NULL);

  000ce	e8 00 00 00 00	 call	 ?AfxThrowInvalidArgException@@YGXXZ ; AfxThrowInvalidArgException
$LN38@Serialize:
  000d3	cc		 int	 3
?Serialize@?$CArray@VCElementInLogic@@AAV1@@@UAEXAAVCArchive@@@Z ENDP ; CArray<CElementInLogic,CElementInLogic &>::Serialize
_TEXT	ENDS
; Function compile flags: /Ogtp
; File C:\Program Files (x86)\Microsoft Visual Studio\2019\Community\VC\Tools\MSVC\14.29.30133\atlmfc\include\afxtempl.h
;	COMDAT ??1?$CArray@VCElementInLogic@@AAV1@@@UAE@XZ
_TEXT	SEGMENT
??1?$CArray@VCElementInLogic@@AAV1@@@UAE@XZ PROC	; CArray<CElementInLogic,CElementInLogic &>::~CArray<CElementInLogic,CElementInLogic &>, COMDAT
; _this$ = ecx

; 355  : {

  00000	56		 push	 esi
  00001	8b f1		 mov	 esi, ecx

; 356  : 	ASSERT_VALID(this);
; 357  : 
; 358  : 	if (m_pData != NULL)

  00003	8b 46 04	 mov	 eax, DWORD PTR [esi+4]
  00006	c7 06 00 00 00
	00		 mov	 DWORD PTR [esi], OFFSET ??_7?$CArray@VCElementInLogic@@AAV1@@@6B@
  0000c	85 c0		 test	 eax, eax
  0000e	74 35		 je	 SHORT $LN5@CArray

; 359  : 	{
; 360  : 		for( int i = 0; i < m_nSize; i++ )

  00010	53		 push	 ebx
  00011	33 db		 xor	 ebx, ebx
  00013	39 5e 08	 cmp	 DWORD PTR [esi+8], ebx
  00016	7e 23		 jle	 SHORT $LN3@CArray
  00018	57		 push	 edi
  00019	33 ff		 xor	 edi, edi
  0001b	0f 1f 44 00 00	 npad	 5
$LL4@CArray:

; 361  : 			(m_pData + i)->~TYPE();

  00020	8b 4e 04	 mov	 ecx, DWORD PTR [esi+4]
  00023	83 c1 04	 add	 ecx, 4
  00026	03 cf		 add	 ecx, edi
  00028	ff 15 00 00 00
	00		 call	 DWORD PTR __imp_??1?$CStringT@DV?$StrTraitMFC_DLL@DV?$ChTraitsCRT@D@ATL@@@@@ATL@@QAE@XZ
  0002e	43		 inc	 ebx
  0002f	83 c7 14	 add	 edi, 20			; 00000014H
  00032	3b 5e 08	 cmp	 ebx, DWORD PTR [esi+8]
  00035	7c e9		 jl	 SHORT $LL4@CArray
  00037	8b 46 04	 mov	 eax, DWORD PTR [esi+4]
  0003a	5f		 pop	 edi
$LN3@CArray:

; 362  : 		delete[] (BYTE*)m_pData;

  0003b	50		 push	 eax
  0003c	e8 00 00 00 00	 call	 ??_V@YAXPAX@Z		; operator delete[]
  00041	83 c4 04	 add	 esp, 4
  00044	5b		 pop	 ebx
$LN5@CArray:

; 363  : 	}
; 364  : }

  00045	5e		 pop	 esi
  00046	c3		 ret	 0
??1?$CArray@VCElementInLogic@@AAV1@@@UAE@XZ ENDP	; CArray<CElementInLogic,CElementInLogic &>::~CArray<CElementInLogic,CElementInLogic &>
_TEXT	ENDS
; Function compile flags: /Ogtp
; File C:\Program Files (x86)\Microsoft Visual Studio\2019\Community\VC\Tools\MSVC\14.29.30133\atlmfc\include\afxtempl.h
; File C:\Program Files (x86)\Windows Kits\10\Include\10.0.22000.0\ucrt\corecrt_memcpy_s.h
; File C:\Program Files (x86)\Microsoft Visual Studio\2019\Community\VC\Tools\MSVC\14.29.30133\atlmfc\include\atlchecked.h
; File C:\Program Files (x86)\Windows Kits\10\Include\10.0.22000.0\ucrt\corecrt_memcpy_s.h
; File C:\Program Files (x86)\Microsoft Visual Studio\2019\Community\VC\Tools\MSVC\14.29.30133\atlmfc\include\atlchecked.h
; File C:\Program Files (x86)\Microsoft Visual Studio\2019\Community\VC\Tools\MSVC\14.29.30133\atlmfc\include\afxtempl.h
;	COMDAT ?RemoveAt@?$CArray@VCElementInLogic@@AAV1@@@QAEXHH@Z
_TEXT	SEGMENT
_nMoveCount$1$ = -12					; size = 4
_nUpperBound$1$ = -8					; size = 4
tv263 = -4						; size = 4
_nIndex$ = 8						; size = 4
__N$1$ = 12						; size = 4
_nCount$ = 12						; size = 4
?RemoveAt@?$CArray@VCElementInLogic@@AAV1@@@QAEXHH@Z PROC ; CArray<CElementInLogic,CElementInLogic &>::RemoveAt, COMDAT
; _this$ = ecx

; 590  : {

  00000	55		 push	 ebp
  00001	8b ec		 mov	 ebp, esp
  00003	83 ec 0c	 sub	 esp, 12			; 0000000cH

; 591  : 	ASSERT_VALID(this);
; 592  : 	ASSERT(nIndex >= 0);
; 593  : 	ASSERT(nCount >= 0);
; 594  : 	INT_PTR nUpperBound = nIndex + nCount;

  00006	8b 55 08	 mov	 edx, DWORD PTR _nIndex$[ebp]
  00009	53		 push	 ebx
  0000a	8b 5d 0c	 mov	 ebx, DWORD PTR _nCount$[ebp]
  0000d	56		 push	 esi
  0000e	57		 push	 edi
  0000f	8b f9		 mov	 edi, ecx
  00011	8d 04 1a	 lea	 eax, DWORD PTR [edx+ebx]
  00014	89 45 f8	 mov	 DWORD PTR _nUpperBound$1$[ebp], eax

; 595  : 	ASSERT(nUpperBound <= m_nSize && nUpperBound >= nIndex && nUpperBound >= nCount);
; 596  : 
; 597  : 	if(nIndex < 0 || nCount < 0 || (nUpperBound > m_nSize) || (nUpperBound < nIndex) || (nUpperBound < nCount))

  00017	85 d2		 test	 edx, edx
  00019	0f 88 ba 00 00
	00		 js	 $LN6@RemoveAt
  0001f	85 db		 test	 ebx, ebx
  00021	0f 88 b2 00 00
	00		 js	 $LN6@RemoveAt
  00027	8b 4f 08	 mov	 ecx, DWORD PTR [edi+8]
  0002a	3b c1		 cmp	 eax, ecx
  0002c	0f 8f a7 00 00
	00		 jg	 $LN6@RemoveAt
  00032	3b c2		 cmp	 eax, edx
  00034	0f 8c 9f 00 00
	00		 jl	 $LN6@RemoveAt
  0003a	3b c3		 cmp	 eax, ebx
  0003c	0f 8c 97 00 00
	00		 jl	 $LN6@RemoveAt

; 599  : 
; 600  : 	// just remove a range
; 601  : 	INT_PTR nMoveCount = m_nSize - (nUpperBound);

  00042	2b c8		 sub	 ecx, eax
  00044	89 4d f4	 mov	 DWORD PTR _nMoveCount$1$[ebp], ecx

; 602  : 	for( int i = 0; i < nCount; i++ )

  00047	85 db		 test	 ebx, ebx
  00049	7e 28		 jle	 SHORT $LN3@RemoveAt

; 599  : 
; 600  : 	// just remove a range
; 601  : 	INT_PTR nMoveCount = m_nSize - (nUpperBound);

  0004b	8d 34 92	 lea	 esi, DWORD PTR [edx+edx*4]
  0004e	c1 e6 02	 shl	 esi, 2
$LL4@RemoveAt:

; 603  : 		(m_pData + nIndex + i)->~TYPE();

  00051	8b 4f 04	 mov	 ecx, DWORD PTR [edi+4]
  00054	83 c1 04	 add	 ecx, 4
  00057	03 ce		 add	 ecx, esi
  00059	ff 15 00 00 00
	00		 call	 DWORD PTR __imp_??1?$CStringT@DV?$StrTraitMFC_DLL@DV?$ChTraitsCRT@D@ATL@@@@@ATL@@QAE@XZ
  0005f	83 c6 14	 add	 esi, 20			; 00000014H
  00062	83 eb 01	 sub	 ebx, 1
  00065	75 ea		 jne	 SHORT $LL4@RemoveAt
  00067	8b 5d 0c	 mov	 ebx, DWORD PTR _nCount$[ebp]
  0006a	8b 55 08	 mov	 edx, DWORD PTR _nIndex$[ebp]
  0006d	8b 45 f8	 mov	 eax, DWORD PTR _nUpperBound$1$[ebp]
  00070	8b 4d f4	 mov	 ecx, DWORD PTR _nMoveCount$1$[ebp]
$LN3@RemoveAt:

; 604  : 	if (nMoveCount)

  00073	85 c9		 test	 ecx, ecx
  00075	74 56		 je	 SHORT $LN7@RemoveAt

; 605  : 	{
; 606  : 		::ATL::Checked::memmove_s(m_pData + nIndex, (size_t)nMoveCount * sizeof(TYPE),

  00077	8d 0c 89	 lea	 ecx, DWORD PTR [ecx+ecx*4]
  0007a	c1 e1 02	 shl	 ecx, 2
  0007d	8d 04 80	 lea	 eax, DWORD PTR [eax+eax*4]
  00080	89 4d 0c	 mov	 DWORD PTR __N$1$[ebp], ecx
  00083	8b 4f 04	 mov	 ecx, DWORD PTR [edi+4]
  00086	8d 34 81	 lea	 esi, DWORD PTR [ecx+eax*4]
  00089	8d 04 92	 lea	 eax, DWORD PTR [edx+edx*4]
  0008c	8d 04 81	 lea	 eax, DWORD PTR [ecx+eax*4]
; File C:\Program Files (x86)\Windows Kits\10\Include\10.0.22000.0\ucrt\corecrt_memcpy_s.h

; 74   :         if (_SourceSize == 0)

  0008f	8b 4d 0c	 mov	 ecx, DWORD PTR __N$1$[ebp]
  00092	85 c9		 test	 ecx, ecx
  00094	74 2c		 je	 SHORT $LN28@RemoveAt

; 75   :         {
; 76   :             return 0;
; 77   :         }
; 78   : 
; 79   :         _CRT_MEMCPY_S_VALIDATE_RETURN_ERRCODE(_Destination != NULL,            EINVAL);

  00096	85 c0		 test	 eax, eax
  00098	75 19		 jne	 SHORT $LN19@RemoveAt
$LN29@RemoveAt:
; File C:\Program Files (x86)\Microsoft Visual Studio\2019\Community\VC\Tools\MSVC\14.29.30133\atlmfc\include\atlchecked.h

; 87   : 	ATLMFC_CRT_ERRORCHECK(::memmove_s(_S1, _S1max, _S2, _N));

  0009a	ff 15 00 00 00
	00		 call	 DWORD PTR __imp___errno
  000a0	c7 00 16 00 00
	00		 mov	 DWORD PTR [eax], 22	; 00000016H
  000a6	ff 15 00 00 00
	00		 call	 DWORD PTR __imp___invalid_parameter_noinfo
  000ac	b8 16 00 00 00	 mov	 eax, 22			; 00000016H
  000b1	eb 11		 jmp	 SHORT $LN17@RemoveAt
$LN19@RemoveAt:
; File C:\Program Files (x86)\Windows Kits\10\Include\10.0.22000.0\ucrt\corecrt_memcpy_s.h

; 80   :         _CRT_MEMCPY_S_VALIDATE_RETURN_ERRCODE(_Source != NULL,                 EINVAL);

  000b3	85 f6		 test	 esi, esi
  000b5	74 e3		 je	 SHORT $LN29@RemoveAt

; 81   :         _CRT_MEMCPY_S_VALIDATE_RETURN_ERRCODE(_DestinationSize >= _SourceSize, ERANGE);
; 82   : 
; 83   :         memmove(_Destination, _Source, _SourceSize);

  000b7	51		 push	 ecx
  000b8	56		 push	 esi
  000b9	50		 push	 eax
  000ba	e8 00 00 00 00	 call	 _memmove
  000bf	83 c4 0c	 add	 esp, 12			; 0000000cH
$LN28@RemoveAt:
; File C:\Program Files (x86)\Microsoft Visual Studio\2019\Community\VC\Tools\MSVC\14.29.30133\atlmfc\include\atlchecked.h

; 87   : 	ATLMFC_CRT_ERRORCHECK(::memmove_s(_S1, _S1max, _S2, _N));

  000c2	33 c0		 xor	 eax, eax
$LN17@RemoveAt:
  000c4	50		 push	 eax
  000c5	e8 00 00 00 00	 call	 ?AfxCrtErrorCheck@@YAHH@Z ; AfxCrtErrorCheck
  000ca	83 c4 04	 add	 esp, 4
$LN7@RemoveAt:
; File C:\Program Files (x86)\Microsoft Visual Studio\2019\Community\VC\Tools\MSVC\14.29.30133\atlmfc\include\afxtempl.h

; 609  : 	m_nSize -= nCount;

  000cd	29 5f 08	 sub	 DWORD PTR [edi+8], ebx
  000d0	5f		 pop	 edi
  000d1	5e		 pop	 esi
  000d2	5b		 pop	 ebx

; 610  : }

  000d3	8b e5		 mov	 esp, ebp
  000d5	5d		 pop	 ebp
  000d6	c2 08 00	 ret	 8
$LN6@RemoveAt:

; 598  : 		AfxThrowInvalidArgException();

  000d9	e8 00 00 00 00	 call	 ?AfxThrowInvalidArgException@@YGXXZ ; AfxThrowInvalidArgException
$LN27@RemoveAt:
  000de	cc		 int	 3
?RemoveAt@?$CArray@VCElementInLogic@@AAV1@@@QAEXHH@Z ENDP ; CArray<CElementInLogic,CElementInLogic &>::RemoveAt
_TEXT	ENDS
; Function compile flags: /Ogtp
; File C:\Program Files (x86)\Microsoft Visual Studio\2019\Community\VC\Tools\MSVC\14.29.30133\atlmfc\include\afxtempl.h
; File C:\Program Files (x86)\Windows Kits\10\Include\10.0.22000.0\ucrt\corecrt_memcpy_s.h
; File C:\Program Files (x86)\Microsoft Visual Studio\2019\Community\VC\Tools\MSVC\14.29.30133\atlmfc\include\atlchecked.h
; File C:\Program Files (x86)\Windows Kits\10\Include\10.0.22000.0\ucrt\corecrt_memcpy_s.h
; File C:\Program Files (x86)\Microsoft Visual Studio\2019\Community\VC\Tools\MSVC\14.29.30133\atlmfc\include\atlchecked.h
; File C:\Program Files (x86)\Microsoft Visual Studio\2019\Community\VC\Tools\MSVC\14.29.30133\atlmfc\include\afxtempl.h
; File C:\Program Files (x86)\Microsoft Visual Studio\2019\Community\VC\Tools\MSVC\14.29.30133\atlmfc\include\atlchecked.h
; File C:\Program Files (x86)\Microsoft Visual Studio\2019\Community\VC\Tools\MSVC\14.29.30133\atlmfc\include\afxtempl.h
; File D:\git\src\IBK\IBK_DRFN\ProjSrc\SrcDrfn\Chart\HWSTRATEGYCONFIGUREWIZARD\Control\LogicEditCtrl.h
; File C:\Program Files (x86)\Microsoft Visual Studio\2019\Community\VC\Tools\MSVC\14.29.30133\atlmfc\include\afxtempl.h
; File D:\git\src\IBK\IBK_DRFN\ProjSrc\SrcDrfn\Chart\HWSTRATEGYCONFIGUREWIZARD\Control\LogicEditCtrl.h
; File C:\Program Files (x86)\Microsoft Visual Studio\2019\Community\VC\Tools\MSVC\14.29.30133\atlmfc\include\afxtempl.h
;	COMDAT ?InsertAt@?$CArray@VCElementInLogic@@AAV1@@@QAEXHAAVCElementInLogic@@H@Z
_TEXT	SEGMENT
$T2 = -24						; size = 4
tv432 = -20						; size = 4
tv413 = -20						; size = 4
__N$1$ = -20						; size = 4
tv414 = -16						; size = 4
_nOldSize$1$ = -16					; size = 4
__$EHRec$ = -12						; size = 12
_nIndex$ = 8						; size = 4
_newElement$ = 12					; size = 4
tv410 = 16						; size = 4
_nCount$ = 16						; size = 4
?InsertAt@?$CArray@VCElementInLogic@@AAV1@@@QAEXHAAVCElementInLogic@@H@Z PROC ; CArray<CElementInLogic,CElementInLogic &>::InsertAt, COMDAT
; _this$ = ecx

; 548  : {

  00000	55		 push	 ebp
  00001	8b ec		 mov	 ebp, esp
  00003	6a ff		 push	 -1
  00005	68 00 00 00 00	 push	 __ehhandler$?InsertAt@?$CArray@VCElementInLogic@@AAV1@@@QAEXHAAVCElementInLogic@@H@Z
  0000a	64 a1 00 00 00
	00		 mov	 eax, DWORD PTR fs:0
  00010	50		 push	 eax
  00011	83 ec 0c	 sub	 esp, 12			; 0000000cH
  00014	53		 push	 ebx
  00015	56		 push	 esi
  00016	57		 push	 edi
  00017	a1 00 00 00 00	 mov	 eax, DWORD PTR ___security_cookie
  0001c	33 c5		 xor	 eax, ebp
  0001e	50		 push	 eax
  0001f	8d 45 f4	 lea	 eax, DWORD PTR __$EHRec$[ebp]
  00022	64 a3 00 00 00
	00		 mov	 DWORD PTR fs:0, eax
  00028	8b d9		 mov	 ebx, ecx

; 549  : 	ASSERT_VALID(this);
; 550  : 	ASSERT(nIndex >= 0);    // will expand to meet need
; 551  : 	ASSERT(nCount > 0);     // zero or negative size not allowed
; 552  : 
; 553  : 	if(nIndex < 0 || nCount <= 0)

  0002a	8b 75 08	 mov	 esi, DWORD PTR _nIndex$[ebp]
  0002d	85 f6		 test	 esi, esi
  0002f	0f 88 88 01 00
	00		 js	 $LN11@InsertAt
  00035	8b 7d 10	 mov	 edi, DWORD PTR _nCount$[ebp]
  00038	85 ff		 test	 edi, edi
  0003a	0f 8e 7d 01 00
	00		 jle	 $LN11@InsertAt

; 555  : 
; 556  : 	if (nIndex >= m_nSize)

  00040	8b 43 08	 mov	 eax, DWORD PTR [ebx+8]
  00043	89 45 f0	 mov	 DWORD PTR _nOldSize$1$[ebp], eax
  00046	6a ff		 push	 -1
  00048	3b f0		 cmp	 esi, eax
  0004a	7c 0e		 jl	 SHORT $LN12@InsertAt

; 557  : 	{
; 558  : 		// adding after the end of the array
; 559  : 		SetSize(nIndex + nCount, -1);   // grow so nIndex is valid

  0004c	8d 04 3e	 lea	 eax, DWORD PTR [esi+edi]
  0004f	50		 push	 eax
  00050	e8 00 00 00 00	 call	 ?SetSize@?$CArray@VCElementInLogic@@AAV1@@@QAEXHH@Z ; CArray<CElementInLogic,CElementInLogic &>::SetSize

; 560  : 	}

  00055	e9 09 01 00 00	 jmp	 $LN49@InsertAt
$LN12@InsertAt:

; 561  : 	else
; 562  : 	{
; 563  : 		// inserting in the middle of the array
; 564  : 		INT_PTR nOldSize = m_nSize;
; 565  : 		SetSize(m_nSize + nCount, -1);  // grow it to new size

  0005a	03 c7		 add	 eax, edi
  0005c	50		 push	 eax
  0005d	e8 00 00 00 00	 call	 ?SetSize@?$CArray@VCElementInLogic@@AAV1@@@QAEXHH@Z ; CArray<CElementInLogic,CElementInLogic &>::SetSize
  00062	8b 45 f0	 mov	 eax, DWORD PTR _nOldSize$1$[ebp]
  00065	8d 34 80	 lea	 esi, DWORD PTR [eax+eax*4]
  00068	c1 e6 02	 shl	 esi, 2
  0006b	0f 1f 44 00 00	 npad	 5
$LL4@InsertAt:

; 566  : 		// destroy intial data before copying over it
; 567  : 		for( int i = 0; i < nCount; i++ )
; 568  : 			(m_pData + nOldSize + i)->~TYPE();

  00070	8b 4b 04	 mov	 ecx, DWORD PTR [ebx+4]
  00073	83 c1 04	 add	 ecx, 4
  00076	03 ce		 add	 ecx, esi
  00078	ff 15 00 00 00
	00		 call	 DWORD PTR __imp_??1?$CStringT@DV?$StrTraitMFC_DLL@DV?$ChTraitsCRT@D@ATL@@@@@ATL@@QAE@XZ
  0007e	83 c6 14	 add	 esi, 20			; 00000014H
  00081	83 ef 01	 sub	 edi, 1
  00084	75 ea		 jne	 SHORT $LL4@InsertAt

; 569  : 		// shift old data up to fill gap
; 570  : 		::ATL::Checked::memmove_s(m_pData + nIndex + nCount, (nOldSize-nIndex) * sizeof(TYPE),

  00086	8b 45 08	 mov	 eax, DWORD PTR _nIndex$[ebp]
  00089	8b 4d f0	 mov	 ecx, DWORD PTR _nOldSize$1$[ebp]
  0008c	8b 7d 10	 mov	 edi, DWORD PTR _nCount$[ebp]
  0008f	2b c8		 sub	 ecx, eax
  00091	8d 34 80	 lea	 esi, DWORD PTR [eax+eax*4]
  00094	03 c7		 add	 eax, edi
  00096	c1 e6 02	 shl	 esi, 2
  00099	8d 0c 89	 lea	 ecx, DWORD PTR [ecx+ecx*4]
  0009c	89 75 f0	 mov	 DWORD PTR tv414[ebp], esi
  0009f	c1 e1 02	 shl	 ecx, 2
  000a2	89 4d ec	 mov	 DWORD PTR __N$1$[ebp], ecx
  000a5	8d 04 80	 lea	 eax, DWORD PTR [eax+eax*4]
  000a8	8b 4b 04	 mov	 ecx, DWORD PTR [ebx+4]
  000ab	8d 14 31	 lea	 edx, DWORD PTR [ecx+esi]
  000ae	8d 04 81	 lea	 eax, DWORD PTR [ecx+eax*4]
; File C:\Program Files (x86)\Windows Kits\10\Include\10.0.22000.0\ucrt\corecrt_memcpy_s.h

; 74   :         if (_SourceSize == 0)

  000b1	8b 4d ec	 mov	 ecx, DWORD PTR __N$1$[ebp]
  000b4	85 c9		 test	 ecx, ecx
  000b6	74 2c		 je	 SHORT $LN52@InsertAt

; 75   :         {
; 76   :             return 0;
; 77   :         }
; 78   : 
; 79   :         _CRT_MEMCPY_S_VALIDATE_RETURN_ERRCODE(_Destination != NULL,            EINVAL);

  000b8	85 c0		 test	 eax, eax
  000ba	75 19		 jne	 SHORT $LN25@InsertAt
$LN53@InsertAt:
; File C:\Program Files (x86)\Microsoft Visual Studio\2019\Community\VC\Tools\MSVC\14.29.30133\atlmfc\include\atlchecked.h

; 87   : 	ATLMFC_CRT_ERRORCHECK(::memmove_s(_S1, _S1max, _S2, _N));

  000bc	ff 15 00 00 00
	00		 call	 DWORD PTR __imp___errno
  000c2	c7 00 16 00 00
	00		 mov	 DWORD PTR [eax], 22	; 00000016H
  000c8	ff 15 00 00 00
	00		 call	 DWORD PTR __imp___invalid_parameter_noinfo
  000ce	b8 16 00 00 00	 mov	 eax, 22			; 00000016H
  000d3	eb 11		 jmp	 SHORT $LN23@InsertAt
$LN25@InsertAt:
; File C:\Program Files (x86)\Windows Kits\10\Include\10.0.22000.0\ucrt\corecrt_memcpy_s.h

; 80   :         _CRT_MEMCPY_S_VALIDATE_RETURN_ERRCODE(_Source != NULL,                 EINVAL);

  000d5	85 d2		 test	 edx, edx
  000d7	74 e3		 je	 SHORT $LN53@InsertAt

; 81   :         _CRT_MEMCPY_S_VALIDATE_RETURN_ERRCODE(_DestinationSize >= _SourceSize, ERANGE);
; 82   : 
; 83   :         memmove(_Destination, _Source, _SourceSize);

  000d9	51		 push	 ecx
  000da	52		 push	 edx
  000db	50		 push	 eax
  000dc	e8 00 00 00 00	 call	 _memmove
  000e1	83 c4 0c	 add	 esp, 12			; 0000000cH
$LN52@InsertAt:
; File C:\Program Files (x86)\Microsoft Visual Studio\2019\Community\VC\Tools\MSVC\14.29.30133\atlmfc\include\atlchecked.h

; 87   : 	ATLMFC_CRT_ERRORCHECK(::memmove_s(_S1, _S1max, _S2, _N));

  000e4	33 c0		 xor	 eax, eax
$LN23@InsertAt:
  000e6	50		 push	 eax
  000e7	e8 00 00 00 00	 call	 ?AfxCrtErrorCheck@@YAHH@Z ; AfxCrtErrorCheck
; File C:\Program Files (x86)\Microsoft Visual Studio\2019\Community\VC\Tools\MSVC\14.29.30133\atlmfc\include\afxtempl.h

; 574  : 		memset((void*)(m_pData + nIndex), 0, (size_t)nCount * sizeof(TYPE));

  000ec	8d 04 bf	 lea	 eax, DWORD PTR [edi+edi*4]
  000ef	c1 e0 02	 shl	 eax, 2
  000f2	50		 push	 eax
  000f3	8b 43 04	 mov	 eax, DWORD PTR [ebx+4]
  000f6	03 c6		 add	 eax, esi
  000f8	6a 00		 push	 0
  000fa	50		 push	 eax
  000fb	e8 00 00 00 00	 call	 _memset
  00100	83 c4 10	 add	 esp, 16			; 00000010H
; File C:\Program Files (x86)\Microsoft Visual Studio\2019\Community\VC\Tools\MSVC\14.29.30133\atlmfc\include\atlchecked.h

; 87   : 	ATLMFC_CRT_ERRORCHECK(::memmove_s(_S1, _S1max, _S2, _N));

  00103	89 7d ec	 mov	 DWORD PTR tv413[ebp], edi
$LL7@InsertAt:
; File C:\Program Files (x86)\Microsoft Visual Studio\2019\Community\VC\Tools\MSVC\14.29.30133\atlmfc\include\afxtempl.h

; 578  : 			::new( (void*)( m_pData + nIndex + i ) ) TYPE;

  00106	8b 7b 04	 mov	 edi, DWORD PTR [ebx+4]
  00109	03 fe		 add	 edi, esi
  0010b	89 7d e8	 mov	 DWORD PTR $T2[ebp], edi
; File D:\git\src\IBK\IBK_DRFN\ProjSrc\SrcDrfn\Chart\HWSTRATEGYCONFIGUREWIZARD\Control\LogicEditCtrl.h

; 17   : 	CElementInLogic() 

  0010e	8d 4f 04	 lea	 ecx, DWORD PTR [edi+4]
  00111	ff 15 00 00 00
	00		 call	 DWORD PTR __imp_??0?$CStringT@DV?$StrTraitMFC_DLL@DV?$ChTraitsCRT@D@ATL@@@@@ATL@@QAE@XZ

; 27   : 		m_strValue = "";

  00117	68 00 00 00 00	 push	 OFFSET ??_C@_00CNPNBAHC@@
  0011c	8d 4f 04	 lea	 ecx, DWORD PTR [edi+4]

; 17   : 	CElementInLogic() 

  0011f	c7 45 fc 00 00
	00 00		 mov	 DWORD PTR __$EHRec$[ebp+8], 0

; 23   : 		m_nType = 0;

  00126	c7 07 00 00 00
	00		 mov	 DWORD PTR [edi], 0

; 24   : 		m_bTRUE = TRUE;

  0012c	c7 47 08 01 00
	00 00		 mov	 DWORD PTR [edi+8], 1

; 25   : 		m_nStartChar = 0;

  00133	c7 47 0c 00 00
	00 00		 mov	 DWORD PTR [edi+12], 0

; 26   : 		m_nEndChar = 0;

  0013a	c7 47 10 00 00
	00 00		 mov	 DWORD PTR [edi+16], 0

; 27   : 		m_strValue = "";

  00141	ff 15 00 00 00
	00		 call	 DWORD PTR __imp_??4?$CStringT@DV?$StrTraitMFC_DLL@DV?$ChTraitsCRT@D@ATL@@@@@ATL@@QAEAAV01@PBD@Z
; File C:\Program Files (x86)\Microsoft Visual Studio\2019\Community\VC\Tools\MSVC\14.29.30133\atlmfc\include\afxtempl.h

; 575  : 		for( int i = 0; i < nCount; i++ )

  00147	8b 75 f0	 mov	 esi, DWORD PTR tv414[ebp]
  0014a	83 c6 14	 add	 esi, 20			; 00000014H
; File D:\git\src\IBK\IBK_DRFN\ProjSrc\SrcDrfn\Chart\HWSTRATEGYCONFIGUREWIZARD\Control\LogicEditCtrl.h

; 20   : 	}

  0014d	c7 45 fc ff ff
	ff ff		 mov	 DWORD PTR __$EHRec$[ebp+8], -1
; File C:\Program Files (x86)\Microsoft Visual Studio\2019\Community\VC\Tools\MSVC\14.29.30133\atlmfc\include\afxtempl.h

; 575  : 		for( int i = 0; i < nCount; i++ )

  00154	83 6d ec 01	 sub	 DWORD PTR tv413[ebp], 1
  00158	89 75 f0	 mov	 DWORD PTR tv414[ebp], esi
  0015b	75 a9		 jne	 SHORT $LL7@InsertAt
  0015d	8b 7d 10	 mov	 edi, DWORD PTR _nCount$[ebp]
  00160	8b 75 08	 mov	 esi, DWORD PTR _nIndex$[ebp]
$LN49@InsertAt:
  00163	8b 4d 0c	 mov	 ecx, DWORD PTR _newElement$[ebp]
  00166	8d 04 b6	 lea	 eax, DWORD PTR [esi+esi*4]
  00169	c1 e0 02	 shl	 eax, 2
  0016c	8d 51 04	 lea	 edx, DWORD PTR [ecx+4]
  0016f	90		 npad	 1
$LL8@InsertAt:

; 579  : #pragma pop_macro("new")
; 580  : 	}
; 581  : 
; 582  : 	// insert new value in the gap
; 583  : 	ASSERT(nIndex + nCount <= m_nSize);
; 584  : 	while (nCount--)
; 585  : 		m_pData[nIndex++] = newElement;

  00170	8b 73 04	 mov	 esi, DWORD PTR [ebx+4]
  00173	03 f0		 add	 esi, eax
  00175	83 c0 14	 add	 eax, 20			; 00000014H
  00178	89 45 10	 mov	 DWORD PTR tv410[ebp], eax
  0017b	8b 01		 mov	 eax, DWORD PTR [ecx]
  0017d	52		 push	 edx
  0017e	8d 4e 04	 lea	 ecx, DWORD PTR [esi+4]
  00181	89 06		 mov	 DWORD PTR [esi], eax
  00183	ff 15 00 00 00
	00		 call	 DWORD PTR __imp_??4?$CStringT@DV?$StrTraitMFC_DLL@DV?$ChTraitsCRT@D@ATL@@@@@ATL@@QAEAAV01@ABV01@@Z
  00189	8b 4d 0c	 mov	 ecx, DWORD PTR _newElement$[ebp]
  0018c	8b 41 08	 mov	 eax, DWORD PTR [ecx+8]
  0018f	8d 51 04	 lea	 edx, DWORD PTR [ecx+4]
  00192	89 46 08	 mov	 DWORD PTR [esi+8], eax
  00195	8b 41 0c	 mov	 eax, DWORD PTR [ecx+12]
  00198	89 46 0c	 mov	 DWORD PTR [esi+12], eax
  0019b	8b 41 10	 mov	 eax, DWORD PTR [ecx+16]
  0019e	89 46 10	 mov	 DWORD PTR [esi+16], eax
  001a1	8b 45 10	 mov	 eax, DWORD PTR tv410[ebp]
  001a4	83 ef 01	 sub	 edi, 1
  001a7	75 c7		 jne	 SHORT $LL8@InsertAt

; 586  : }

  001a9	8b 4d f4	 mov	 ecx, DWORD PTR __$EHRec$[ebp]
  001ac	64 89 0d 00 00
	00 00		 mov	 DWORD PTR fs:0, ecx
  001b3	59		 pop	 ecx
  001b4	5f		 pop	 edi
  001b5	5e		 pop	 esi
  001b6	5b		 pop	 ebx
  001b7	8b e5		 mov	 esp, ebp
  001b9	5d		 pop	 ebp
  001ba	c2 0c 00	 ret	 12			; 0000000cH
$LN11@InsertAt:

; 554  : 		AfxThrowInvalidArgException();

  001bd	e8 00 00 00 00	 call	 ?AfxThrowInvalidArgException@@YGXXZ ; AfxThrowInvalidArgException
$LN51@InsertAt:
  001c2	cc		 int	 3
_TEXT	ENDS
;	COMDAT text$x
text$x	SEGMENT
__unwindfunclet$?InsertAt@?$CArray@VCElementInLogic@@AAV1@@@QAEXHAAVCElementInLogic@@H@Z$1:
  00000	8b 4d e8	 mov	 ecx, DWORD PTR $T2[ebp]
  00003	83 c1 04	 add	 ecx, 4
  00006	ff 25 00 00 00
	00		 jmp	 DWORD PTR __imp_??1?$CStringT@DV?$StrTraitMFC_DLL@DV?$ChTraitsCRT@D@ATL@@@@@ATL@@QAE@XZ
  0000c	cc		 int	 3
  0000d	cc		 int	 3
  0000e	cc		 int	 3
  0000f	cc		 int	 3
  00010	cc		 int	 3
__ehhandler$?InsertAt@?$CArray@VCElementInLogic@@AAV1@@@QAEXHAAVCElementInLogic@@H@Z:
  00011	90		 npad	 1
  00012	90		 npad	 1
  00013	8b 54 24 08	 mov	 edx, DWORD PTR [esp+8]
  00017	8d 42 0c	 lea	 eax, DWORD PTR [edx+12]
  0001a	8b 4a e4	 mov	 ecx, DWORD PTR [edx-28]
  0001d	33 c8		 xor	 ecx, eax
  0001f	e8 00 00 00 00	 call	 @__security_check_cookie@4
  00024	b8 00 00 00 00	 mov	 eax, OFFSET __ehfuncinfo$?InsertAt@?$CArray@VCElementInLogic@@AAV1@@@QAEXHAAVCElementInLogic@@H@Z
  00029	e9 00 00 00 00	 jmp	 ___CxxFrameHandler3
text$x	ENDS
?InsertAt@?$CArray@VCElementInLogic@@AAV1@@@QAEXHAAVCElementInLogic@@H@Z ENDP ; CArray<CElementInLogic,CElementInLogic &>::InsertAt
; Function compile flags: /Ogtp
; File C:\Program Files (x86)\Microsoft Visual Studio\2019\Community\VC\Tools\MSVC\14.29.30133\atlmfc\include\afxtempl.h
;	COMDAT ?SetAtGrow@?$CArray@VCElementInLogic@@AAV1@@@QAEXHAAVCElementInLogic@@@Z
_TEXT	SEGMENT
_nIndex$ = 8						; size = 4
_newElement$ = 12					; size = 4
?SetAtGrow@?$CArray@VCElementInLogic@@AAV1@@@QAEXHAAVCElementInLogic@@@Z PROC ; CArray<CElementInLogic,CElementInLogic &>::SetAtGrow, COMDAT
; _this$ = ecx

; 534  : {

  00000	55		 push	 ebp
  00001	8b ec		 mov	 ebp, esp
  00003	56		 push	 esi

; 535  : 	ASSERT_VALID(this);
; 536  : 	ASSERT(nIndex >= 0);
; 537  : 
; 538  : 	if(nIndex < 0)

  00004	8b 75 08	 mov	 esi, DWORD PTR _nIndex$[ebp]
  00007	57		 push	 edi
  00008	8b f9		 mov	 edi, ecx
  0000a	85 f6		 test	 esi, esi
  0000c	78 45		 js	 SHORT $LN9@SetAtGrow

; 540  : 
; 541  : 	if (nIndex >= m_nSize)

  0000e	3b 77 08	 cmp	 esi, DWORD PTR [edi+8]
  00011	7c 0b		 jl	 SHORT $LN3@SetAtGrow

; 542  : 		SetSize(nIndex+1, -1);

  00013	6a ff		 push	 -1
  00015	8d 46 01	 lea	 eax, DWORD PTR [esi+1]
  00018	50		 push	 eax
  00019	e8 00 00 00 00	 call	 ?SetSize@?$CArray@VCElementInLogic@@AAV1@@@QAEXHH@Z ; CArray<CElementInLogic,CElementInLogic &>::SetSize
$LN3@SetAtGrow:

; 543  : 	m_pData[nIndex] = newElement;

  0001e	8b 47 04	 mov	 eax, DWORD PTR [edi+4]
  00021	8d 0c b6	 lea	 ecx, DWORD PTR [esi+esi*4]
  00024	8b 75 0c	 mov	 esi, DWORD PTR _newElement$[ebp]
  00027	8d 3c 88	 lea	 edi, DWORD PTR [eax+ecx*4]
  0002a	8b 06		 mov	 eax, DWORD PTR [esi]
  0002c	8d 4f 04	 lea	 ecx, DWORD PTR [edi+4]
  0002f	89 07		 mov	 DWORD PTR [edi], eax
  00031	8d 46 04	 lea	 eax, DWORD PTR [esi+4]
  00034	50		 push	 eax
  00035	ff 15 00 00 00
	00		 call	 DWORD PTR __imp_??4?$CStringT@DV?$StrTraitMFC_DLL@DV?$ChTraitsCRT@D@ATL@@@@@ATL@@QAEAAV01@ABV01@@Z
  0003b	8b 46 08	 mov	 eax, DWORD PTR [esi+8]
  0003e	89 47 08	 mov	 DWORD PTR [edi+8], eax
  00041	8b 46 0c	 mov	 eax, DWORD PTR [esi+12]
  00044	89 47 0c	 mov	 DWORD PTR [edi+12], eax
  00047	8b 46 10	 mov	 eax, DWORD PTR [esi+16]
  0004a	89 47 10	 mov	 DWORD PTR [edi+16], eax
  0004d	5f		 pop	 edi
  0004e	5e		 pop	 esi

; 544  : }

  0004f	5d		 pop	 ebp
  00050	c2 08 00	 ret	 8
$LN9@SetAtGrow:

; 539  : 		AfxThrowInvalidArgException();

  00053	e8 00 00 00 00	 call	 ?AfxThrowInvalidArgException@@YGXXZ ; AfxThrowInvalidArgException
$LN7@SetAtGrow:
  00058	cc		 int	 3
?SetAtGrow@?$CArray@VCElementInLogic@@AAV1@@@QAEXHAAVCElementInLogic@@@Z ENDP ; CArray<CElementInLogic,CElementInLogic &>::SetAtGrow
_TEXT	ENDS
; Function compile flags: /Ogtp
; File C:\Program Files (x86)\Microsoft Visual Studio\2019\Community\VC\Tools\MSVC\14.29.30133\atlmfc\include\afxtempl.h
; File D:\git\src\IBK\IBK_DRFN\ProjSrc\SrcDrfn\Chart\HWSTRATEGYCONFIGUREWIZARD\Control\LogicEditCtrl.h
; File C:\Program Files (x86)\Microsoft Visual Studio\2019\Community\VC\Tools\MSVC\14.29.30133\atlmfc\include\afxtempl.h
; File D:\git\src\IBK\IBK_DRFN\ProjSrc\SrcDrfn\Chart\HWSTRATEGYCONFIGUREWIZARD\Control\LogicEditCtrl.h
; File C:\Program Files (x86)\Microsoft Visual Studio\2019\Community\VC\Tools\MSVC\14.29.30133\atlmfc\include\afxtempl.h
; File D:\git\src\IBK\IBK_DRFN\ProjSrc\SrcDrfn\Chart\HWSTRATEGYCONFIGUREWIZARD\Control\LogicEditCtrl.h
; File C:\Program Files (x86)\Microsoft Visual Studio\2019\Community\VC\Tools\MSVC\14.29.30133\atlmfc\include\afxtempl.h
; File D:\git\src\IBK\IBK_DRFN\ProjSrc\SrcDrfn\Chart\HWSTRATEGYCONFIGUREWIZARD\Control\LogicEditCtrl.h
; File C:\Program Files (x86)\Microsoft Visual Studio\2019\Community\VC\Tools\MSVC\14.29.30133\atlmfc\include\afxtempl.h
; File D:\git\src\IBK\IBK_DRFN\ProjSrc\SrcDrfn\Chart\HWSTRATEGYCONFIGUREWIZARD\Control\LogicEditCtrl.h
; File C:\Program Files (x86)\Microsoft Visual Studio\2019\Community\VC\Tools\MSVC\14.29.30133\atlmfc\include\afxtempl.h
; File C:\Program Files (x86)\Windows Kits\10\Include\10.0.22000.0\ucrt\corecrt_memcpy_s.h
; File C:\Program Files (x86)\Microsoft Visual Studio\2019\Community\VC\Tools\MSVC\14.29.30133\atlmfc\include\atlchecked.h
; File C:\Program Files (x86)\Microsoft Visual Studio\2019\Community\VC\Tools\MSVC\14.29.30133\atlmfc\include\afxtempl.h
; File D:\git\src\IBK\IBK_DRFN\ProjSrc\SrcDrfn\Chart\HWSTRATEGYCONFIGUREWIZARD\Control\LogicEditCtrl.h
; File C:\Program Files (x86)\Microsoft Visual Studio\2019\Community\VC\Tools\MSVC\14.29.30133\atlmfc\include\afxtempl.h
; File D:\git\src\IBK\IBK_DRFN\ProjSrc\SrcDrfn\Chart\HWSTRATEGYCONFIGUREWIZARD\Control\LogicEditCtrl.h
; File C:\Program Files (x86)\Microsoft Visual Studio\2019\Community\VC\Tools\MSVC\14.29.30133\atlmfc\include\afxtempl.h
; File D:\git\src\IBK\IBK_DRFN\ProjSrc\SrcDrfn\Chart\HWSTRATEGYCONFIGUREWIZARD\Control\LogicEditCtrl.h
; File C:\Program Files (x86)\Microsoft Visual Studio\2019\Community\VC\Tools\MSVC\14.29.30133\atlmfc\include\afxtempl.h
; File C:\Program Files (x86)\Windows Kits\10\Include\10.0.22000.0\ucrt\corecrt_memcpy_s.h
; File C:\Program Files (x86)\Microsoft Visual Studio\2019\Community\VC\Tools\MSVC\14.29.30133\atlmfc\include\afxtempl.h
;	COMDAT ?SetSize@?$CArray@VCElementInLogic@@AAV1@@@QAEXHH@Z
_TEXT	SEGMENT
__N$1$ = -28						; size = 4
$T2 = -28						; size = 4
$T3 = -28						; size = 4
$T4 = -28						; size = 4
__S2$1$ = -24						; size = 4
_nNewMax$1$ = -20					; size = 4
_nAllocSize$1$ = -20					; size = 4
_pNewData$1$ = -16					; size = 4
tv658 = -16						; size = 4
__$EHRec$ = -12						; size = 12
_i$1$ = 8						; size = 4
_nNewSize$ = 8						; size = 4
__S1max$1$ = 12						; size = 4
_i$1$ = 12						; size = 4
_i$1$ = 12						; size = 4
tv634 = 12						; size = 4
_nGrowBy$ = 12						; size = 4
?SetSize@?$CArray@VCElementInLogic@@AAV1@@@QAEXHH@Z PROC ; CArray<CElementInLogic,CElementInLogic &>::SetSize, COMDAT
; _this$ = ecx

; 368  : {

  00000	55		 push	 ebp
  00001	8b ec		 mov	 ebp, esp
  00003	6a ff		 push	 -1
  00005	68 00 00 00 00	 push	 __ehhandler$?SetSize@?$CArray@VCElementInLogic@@AAV1@@@QAEXHH@Z
  0000a	64 a1 00 00 00
	00		 mov	 eax, DWORD PTR fs:0
  00010	50		 push	 eax
  00011	83 ec 10	 sub	 esp, 16			; 00000010H
  00014	53		 push	 ebx
  00015	56		 push	 esi
  00016	57		 push	 edi
  00017	a1 00 00 00 00	 mov	 eax, DWORD PTR ___security_cookie
  0001c	33 c5		 xor	 eax, ebp
  0001e	50		 push	 eax
  0001f	8d 45 f4	 lea	 eax, DWORD PTR __$EHRec$[ebp]
  00022	64 a3 00 00 00
	00		 mov	 DWORD PTR fs:0, eax
  00028	8b f1		 mov	 esi, ecx

; 369  : 	ASSERT_VALID(this);
; 370  : 	ASSERT(nNewSize >= 0);
; 371  : 
; 372  : 	if(nNewSize < 0 )

  0002a	8b 5d 08	 mov	 ebx, DWORD PTR _nNewSize$[ebp]
  0002d	85 db		 test	 ebx, ebx
  0002f	0f 88 9d 03 00
	00		 js	 $LN97@SetSize

; 373  : 		AfxThrowInvalidArgException();
; 374  : 
; 375  : 	if (nGrowBy >= 0)

  00035	8b 45 0c	 mov	 eax, DWORD PTR _nGrowBy$[ebp]
  00038	85 c0		 test	 eax, eax
  0003a	78 03		 js	 SHORT $LN96@SetSize

; 376  : 		m_nGrowBy = nGrowBy;  // set new size

  0003c	89 46 10	 mov	 DWORD PTR [esi+16], eax
$LN96@SetSize:

; 377  : 
; 378  : 	if (nNewSize == 0)

  0003f	8b 56 04	 mov	 edx, DWORD PTR [esi+4]
  00042	85 db		 test	 ebx, ebx
  00044	75 57		 jne	 SHORT $LN19@SetSize

; 379  : 	{
; 380  : 		// shrink to nothing
; 381  : 		if (m_pData != NULL)

  00046	85 d2		 test	 edx, edx
  00048	74 31		 je	 SHORT $LN21@SetSize

; 382  : 		{
; 383  : 			for( int i = 0; i < m_nSize; i++ )

  0004a	39 5e 08	 cmp	 DWORD PTR [esi+8], ebx
  0004d	7e 1c		 jle	 SHORT $LN3@SetSize
  0004f	33 ff		 xor	 edi, edi
$LL4@SetSize:

; 384  : 				(m_pData + i)->~TYPE();

  00051	8b 4e 04	 mov	 ecx, DWORD PTR [esi+4]
  00054	83 c1 04	 add	 ecx, 4
  00057	03 cf		 add	 ecx, edi
  00059	ff 15 00 00 00
	00		 call	 DWORD PTR __imp_??1?$CStringT@DV?$StrTraitMFC_DLL@DV?$ChTraitsCRT@D@ATL@@@@@ATL@@QAE@XZ
  0005f	43		 inc	 ebx
  00060	83 c7 14	 add	 edi, 20			; 00000014H
  00063	3b 5e 08	 cmp	 ebx, DWORD PTR [esi+8]
  00066	7c e9		 jl	 SHORT $LL4@SetSize
  00068	8b 56 04	 mov	 edx, DWORD PTR [esi+4]
$LN3@SetSize:

; 385  : 			delete[] (BYTE*)m_pData;

  0006b	52		 push	 edx
  0006c	e8 00 00 00 00	 call	 ??_V@YAXPAX@Z		; operator delete[]
  00071	83 c4 04	 add	 esp, 4

; 386  : 			m_pData = NULL;

  00074	c7 46 04 00 00
	00 00		 mov	 DWORD PTR [esi+4], 0
$LN21@SetSize:

; 387  : 		}
; 388  : 		m_nSize = m_nMaxSize = 0;

  0007b	c7 46 0c 00 00
	00 00		 mov	 DWORD PTR [esi+12], 0
  00082	c7 46 08 00 00
	00 00		 mov	 DWORD PTR [esi+8], 0

; 474  : 	}
; 475  : }

  00089	8b 4d f4	 mov	 ecx, DWORD PTR __$EHRec$[ebp]
  0008c	64 89 0d 00 00
	00 00		 mov	 DWORD PTR fs:0, ecx
  00093	59		 pop	 ecx
  00094	5f		 pop	 edi
  00095	5e		 pop	 esi
  00096	5b		 pop	 ebx
  00097	8b e5		 mov	 esp, ebp
  00099	5d		 pop	 ebp
  0009a	c2 08 00	 ret	 8
$LN19@SetSize:

; 389  : 	}
; 390  : 	else if (m_pData == NULL)

  0009d	85 d2		 test	 edx, edx
  0009f	0f 85 a9 00 00
	00		 jne	 $LN22@SetSize

; 391  : 	{
; 392  : 		// create buffer big enough to hold number of requested elements or
; 393  : 		// m_nGrowBy elements, whichever is larger.
; 394  : #ifdef SIZE_T_MAX
; 395  : 		ASSERT(nNewSize <= SIZE_T_MAX/sizeof(TYPE));    // no overflow
; 396  : #endif
; 397  : 		size_t nAllocSize = __max(nNewSize, m_nGrowBy);

  000a5	8b 46 10	 mov	 eax, DWORD PTR [esi+16]
  000a8	3b d8		 cmp	 ebx, eax
  000aa	0f 4f c3	 cmovg	 eax, ebx
  000ad	89 45 ec	 mov	 DWORD PTR _nAllocSize$1$[ebp], eax

; 398  : 		m_pData = (TYPE*) new BYTE[(size_t)nAllocSize * sizeof(TYPE)];

  000b0	8d 3c 80	 lea	 edi, DWORD PTR [eax+eax*4]
  000b3	c1 e7 02	 shl	 edi, 2
  000b6	57		 push	 edi
  000b7	e8 00 00 00 00	 call	 ??_U@YAPAXI@Z		; operator new[]

; 399  : 		memset((void*)m_pData, 0, (size_t)nAllocSize * sizeof(TYPE));

  000bc	57		 push	 edi
  000bd	6a 00		 push	 0
  000bf	50		 push	 eax
  000c0	89 46 04	 mov	 DWORD PTR [esi+4], eax
  000c3	e8 00 00 00 00	 call	 _memset
  000c8	83 c4 10	 add	 esp, 16			; 00000010H

; 400  : 		for( int i = 0; i < nNewSize; i++ )

  000cb	85 db		 test	 ebx, ebx
  000cd	7e 62		 jle	 SHORT $LN6@SetSize

; 398  : 		m_pData = (TYPE*) new BYTE[(size_t)nAllocSize * sizeof(TYPE)];

  000cf	33 c0		 xor	 eax, eax
  000d1	89 5d f0	 mov	 DWORD PTR tv658[ebp], ebx
  000d4	89 45 0c	 mov	 DWORD PTR tv634[ebp], eax
$LL7@SetSize:

; 401  : #pragma push_macro("new")
; 402  : #undef new
; 403  : 			::new( (void*)( m_pData + i ) ) TYPE;

  000d7	8b 5e 04	 mov	 ebx, DWORD PTR [esi+4]
  000da	03 d8		 add	 ebx, eax
  000dc	89 5d e4	 mov	 DWORD PTR $T4[ebp], ebx
; File D:\git\src\IBK\IBK_DRFN\ProjSrc\SrcDrfn\Chart\HWSTRATEGYCONFIGUREWIZARD\Control\LogicEditCtrl.h

; 17   : 	CElementInLogic() 

  000df	8d 4b 04	 lea	 ecx, DWORD PTR [ebx+4]
  000e2	ff 15 00 00 00
	00		 call	 DWORD PTR __imp_??0?$CStringT@DV?$StrTraitMFC_DLL@DV?$ChTraitsCRT@D@ATL@@@@@ATL@@QAE@XZ

; 27   : 		m_strValue = "";

  000e8	68 00 00 00 00	 push	 OFFSET ??_C@_00CNPNBAHC@@
  000ed	8d 4b 04	 lea	 ecx, DWORD PTR [ebx+4]

; 17   : 	CElementInLogic() 

  000f0	c7 45 fc 00 00
	00 00		 mov	 DWORD PTR __$EHRec$[ebp+8], 0

; 23   : 		m_nType = 0;

  000f7	c7 03 00 00 00
	00		 mov	 DWORD PTR [ebx], 0

; 24   : 		m_bTRUE = TRUE;

  000fd	c7 43 08 01 00
	00 00		 mov	 DWORD PTR [ebx+8], 1

; 25   : 		m_nStartChar = 0;

  00104	c7 43 0c 00 00
	00 00		 mov	 DWORD PTR [ebx+12], 0

; 26   : 		m_nEndChar = 0;

  0010b	c7 43 10 00 00
	00 00		 mov	 DWORD PTR [ebx+16], 0

; 27   : 		m_strValue = "";

  00112	ff 15 00 00 00
	00		 call	 DWORD PTR __imp_??4?$CStringT@DV?$StrTraitMFC_DLL@DV?$ChTraitsCRT@D@ATL@@@@@ATL@@QAEAAV01@PBD@Z
; File C:\Program Files (x86)\Microsoft Visual Studio\2019\Community\VC\Tools\MSVC\14.29.30133\atlmfc\include\afxtempl.h

; 400  : 		for( int i = 0; i < nNewSize; i++ )

  00118	8b 45 0c	 mov	 eax, DWORD PTR tv634[ebp]
  0011b	83 c0 14	 add	 eax, 20			; 00000014H
; File D:\git\src\IBK\IBK_DRFN\ProjSrc\SrcDrfn\Chart\HWSTRATEGYCONFIGUREWIZARD\Control\LogicEditCtrl.h

; 20   : 	}

  0011e	c7 45 fc ff ff
	ff ff		 mov	 DWORD PTR __$EHRec$[ebp+8], -1
; File C:\Program Files (x86)\Microsoft Visual Studio\2019\Community\VC\Tools\MSVC\14.29.30133\atlmfc\include\afxtempl.h

; 400  : 		for( int i = 0; i < nNewSize; i++ )

  00125	83 6d f0 01	 sub	 DWORD PTR tv658[ebp], 1
  00129	89 45 0c	 mov	 DWORD PTR tv634[ebp], eax
  0012c	75 a9		 jne	 SHORT $LL7@SetSize
  0012e	8b 5d 08	 mov	 ebx, DWORD PTR _nNewSize$[ebp]
$LN6@SetSize:

; 474  : 	}
; 475  : }

  00131	8b 45 ec	 mov	 eax, DWORD PTR _nNewMax$1$[ebp]
  00134	89 46 0c	 mov	 DWORD PTR [esi+12], eax
$LN12@SetSize:
  00137	89 5e 08	 mov	 DWORD PTR [esi+8], ebx
  0013a	8b 4d f4	 mov	 ecx, DWORD PTR __$EHRec$[ebp]
  0013d	64 89 0d 00 00
	00 00		 mov	 DWORD PTR fs:0, ecx
  00144	59		 pop	 ecx
  00145	5f		 pop	 edi
  00146	5e		 pop	 esi
  00147	5b		 pop	 ebx
  00148	8b e5		 mov	 esp, ebp
  0014a	5d		 pop	 ebp
  0014b	c2 08 00	 ret	 8
$LN22@SetSize:

; 404  : #pragma pop_macro("new")
; 405  : 		m_nSize = nNewSize;
; 406  : 		m_nMaxSize = nAllocSize;
; 407  : 	}
; 408  : 	else if (nNewSize <= m_nMaxSize)

  0014e	8b 4e 0c	 mov	 ecx, DWORD PTR [esi+12]
  00151	3b d9		 cmp	 ebx, ecx
  00153	0f 8f e3 00 00
	00		 jg	 $LN24@SetSize

; 409  : 	{
; 410  : 		// it fits
; 411  : 		if (nNewSize > m_nSize)

  00159	8b 4e 08	 mov	 ecx, DWORD PTR [esi+8]
  0015c	3b d9		 cmp	 ebx, ecx
  0015e	0f 8e 95 00 00
	00		 jle	 $LN26@SetSize

; 412  : 		{
; 413  : 			// initialize the new elements
; 414  : 			memset((void*)(m_pData + m_nSize), 0, (size_t)(nNewSize-m_nSize) * sizeof(TYPE));

  00164	8b c3		 mov	 eax, ebx
  00166	2b c1		 sub	 eax, ecx
  00168	8d 04 80	 lea	 eax, DWORD PTR [eax+eax*4]
  0016b	c1 e0 02	 shl	 eax, 2
  0016e	50		 push	 eax
  0016f	8d 04 89	 lea	 eax, DWORD PTR [ecx+ecx*4]
  00172	8d 04 82	 lea	 eax, DWORD PTR [edx+eax*4]
  00175	6a 00		 push	 0
  00177	50		 push	 eax
  00178	e8 00 00 00 00	 call	 _memset

; 415  : 			for( int i = 0; i < nNewSize-m_nSize; i++ )

  0017d	8b c3		 mov	 eax, ebx
  0017f	33 c9		 xor	 ecx, ecx
  00181	2b 46 08	 sub	 eax, DWORD PTR [esi+8]
  00184	83 c4 0c	 add	 esp, 12			; 0000000cH
  00187	89 4d 0c	 mov	 DWORD PTR _i$1$[ebp], ecx
  0018a	85 c0		 test	 eax, eax
  0018c	7e a9		 jle	 SHORT $LN12@SetSize
  0018e	66 90		 npad	 2
$LL10@SetSize:

; 418  : 				::new( (void*)( m_pData + m_nSize + i ) ) TYPE;

  00190	8b 46 08	 mov	 eax, DWORD PTR [esi+8]
  00193	03 c1		 add	 eax, ecx
  00195	8d 0c 80	 lea	 ecx, DWORD PTR [eax+eax*4]
  00198	8b 46 04	 mov	 eax, DWORD PTR [esi+4]
  0019b	8d 1c 88	 lea	 ebx, DWORD PTR [eax+ecx*4]
; File D:\git\src\IBK\IBK_DRFN\ProjSrc\SrcDrfn\Chart\HWSTRATEGYCONFIGUREWIZARD\Control\LogicEditCtrl.h

; 17   : 	CElementInLogic() 

  0019e	8d 4b 04	 lea	 ecx, DWORD PTR [ebx+4]
; File C:\Program Files (x86)\Microsoft Visual Studio\2019\Community\VC\Tools\MSVC\14.29.30133\atlmfc\include\afxtempl.h

; 418  : 				::new( (void*)( m_pData + m_nSize + i ) ) TYPE;

  001a1	89 5d e4	 mov	 DWORD PTR $T3[ebp], ebx
; File D:\git\src\IBK\IBK_DRFN\ProjSrc\SrcDrfn\Chart\HWSTRATEGYCONFIGUREWIZARD\Control\LogicEditCtrl.h

; 17   : 	CElementInLogic() 

  001a4	ff 15 00 00 00
	00		 call	 DWORD PTR __imp_??0?$CStringT@DV?$StrTraitMFC_DLL@DV?$ChTraitsCRT@D@ATL@@@@@ATL@@QAE@XZ

; 27   : 		m_strValue = "";

  001aa	68 00 00 00 00	 push	 OFFSET ??_C@_00CNPNBAHC@@
  001af	8d 4b 04	 lea	 ecx, DWORD PTR [ebx+4]

; 17   : 	CElementInLogic() 

  001b2	c7 45 fc 01 00
	00 00		 mov	 DWORD PTR __$EHRec$[ebp+8], 1

; 23   : 		m_nType = 0;

  001b9	c7 03 00 00 00
	00		 mov	 DWORD PTR [ebx], 0

; 24   : 		m_bTRUE = TRUE;

  001bf	c7 43 08 01 00
	00 00		 mov	 DWORD PTR [ebx+8], 1

; 25   : 		m_nStartChar = 0;

  001c6	c7 43 0c 00 00
	00 00		 mov	 DWORD PTR [ebx+12], 0

; 26   : 		m_nEndChar = 0;

  001cd	c7 43 10 00 00
	00 00		 mov	 DWORD PTR [ebx+16], 0

; 27   : 		m_strValue = "";

  001d4	ff 15 00 00 00
	00		 call	 DWORD PTR __imp_??4?$CStringT@DV?$StrTraitMFC_DLL@DV?$ChTraitsCRT@D@ATL@@@@@ATL@@QAEAAV01@PBD@Z
; File C:\Program Files (x86)\Microsoft Visual Studio\2019\Community\VC\Tools\MSVC\14.29.30133\atlmfc\include\afxtempl.h

; 415  : 			for( int i = 0; i < nNewSize-m_nSize; i++ )

  001da	8b 4d 0c	 mov	 ecx, DWORD PTR _i$1$[ebp]
  001dd	8b 5d 08	 mov	 ebx, DWORD PTR _nNewSize$[ebp]
  001e0	41		 inc	 ecx
  001e1	8b c3		 mov	 eax, ebx
; File D:\git\src\IBK\IBK_DRFN\ProjSrc\SrcDrfn\Chart\HWSTRATEGYCONFIGUREWIZARD\Control\LogicEditCtrl.h

; 20   : 	}

  001e3	c7 45 fc ff ff
	ff ff		 mov	 DWORD PTR __$EHRec$[ebp+8], -1
; File C:\Program Files (x86)\Microsoft Visual Studio\2019\Community\VC\Tools\MSVC\14.29.30133\atlmfc\include\afxtempl.h

; 415  : 			for( int i = 0; i < nNewSize-m_nSize; i++ )

  001ea	2b 46 08	 sub	 eax, DWORD PTR [esi+8]
  001ed	89 4d 0c	 mov	 DWORD PTR _i$1$[ebp], ecx
  001f0	3b c8		 cmp	 ecx, eax
  001f2	7c 9c		 jl	 SHORT $LL10@SetSize

; 419  : #pragma pop_macro("new")
; 420  : 		}

  001f4	e9 3e ff ff ff	 jmp	 $LN12@SetSize
$LN26@SetSize:

; 421  : 		else if (m_nSize > nNewSize)

  001f9	0f 8d 38 ff ff
	ff		 jge	 $LN12@SetSize

; 422  : 		{
; 423  : 			// destroy the old elements
; 424  : 			for( int i = 0; i < m_nSize-nNewSize; i++ )

  001ff	2b cb		 sub	 ecx, ebx
  00201	c7 45 08 00 00
	00 00		 mov	 DWORD PTR _i$1$[ebp], 0
  00208	85 c9		 test	 ecx, ecx
  0020a	0f 8e 27 ff ff
	ff		 jle	 $LN12@SetSize
  00210	8d 3c 9b	 lea	 edi, DWORD PTR [ebx+ebx*4]
  00213	c1 e7 02	 shl	 edi, 2
$LL13@SetSize:

; 425  : 				(m_pData + nNewSize + i)->~TYPE();

  00216	8b 4e 04	 mov	 ecx, DWORD PTR [esi+4]
  00219	83 c1 04	 add	 ecx, 4
  0021c	03 cf		 add	 ecx, edi
  0021e	ff 15 00 00 00
	00		 call	 DWORD PTR __imp_??1?$CStringT@DV?$StrTraitMFC_DLL@DV?$ChTraitsCRT@D@ATL@@@@@ATL@@QAE@XZ
  00224	8b 4d 08	 mov	 ecx, DWORD PTR _i$1$[ebp]
  00227	83 c7 14	 add	 edi, 20			; 00000014H
  0022a	8b 46 08	 mov	 eax, DWORD PTR [esi+8]
  0022d	41		 inc	 ecx
  0022e	2b c3		 sub	 eax, ebx
  00230	89 4d 08	 mov	 DWORD PTR _i$1$[ebp], ecx
  00233	3b c8		 cmp	 ecx, eax
  00235	7c df		 jl	 SHORT $LL13@SetSize

; 426  : 		}
; 427  : 		m_nSize = nNewSize;
; 428  : 	}

  00237	e9 fb fe ff ff	 jmp	 $LN12@SetSize
$LN24@SetSize:

; 429  : 	else
; 430  : 	{
; 431  : 		// otherwise, grow array
; 432  : 		nGrowBy = m_nGrowBy;

  0023c	8b 46 10	 mov	 eax, DWORD PTR [esi+16]

; 433  : 		if (nGrowBy == 0)

  0023f	85 c0		 test	 eax, eax
  00241	75 22		 jne	 SHORT $LN37@SetSize

; 434  : 		{
; 435  : 			// heuristically determine growth when nGrowBy == 0
; 436  : 			//  (this avoids heap fragmentation in many situations)
; 437  : 			nGrowBy = m_nSize / 8;

  00243	8b 46 08	 mov	 eax, DWORD PTR [esi+8]
  00246	99		 cdq
  00247	83 e2 07	 and	 edx, 7
  0024a	03 c2		 add	 eax, edx
  0024c	c1 f8 03	 sar	 eax, 3

; 438  : 			nGrowBy = (nGrowBy < 4) ? 4 : ((nGrowBy > 1024) ? 1024 : nGrowBy);

  0024f	83 f8 04	 cmp	 eax, 4
  00252	7d 07		 jge	 SHORT $LN36@SetSize
  00254	b8 04 00 00 00	 mov	 eax, 4
  00259	eb 0a		 jmp	 SHORT $LN37@SetSize
$LN36@SetSize:
  0025b	ba 00 04 00 00	 mov	 edx, 1024		; 00000400H
  00260	3b c2		 cmp	 eax, edx
  00262	0f 4f c2	 cmovg	 eax, edx
$LN37@SetSize:

; 439  : 		}
; 440  : 		INT_PTR nNewMax;
; 441  : 		if (nNewSize < m_nMaxSize + nGrowBy)

  00265	03 c1		 add	 eax, ecx
  00267	89 45 ec	 mov	 DWORD PTR _nNewMax$1$[ebp], eax
  0026a	3b d8		 cmp	 ebx, eax
  0026c	7d 0a		 jge	 SHORT $LN30@SetSize

; 445  : 
; 446  : 		ASSERT(nNewMax >= m_nMaxSize);  // no wrap around
; 447  : 
; 448  : 		if(nNewMax  < m_nMaxSize)

  0026e	3b c1		 cmp	 eax, ecx
  00270	0f 8c 5c 01 00
	00		 jl	 $LN97@SetSize
  00276	eb 05		 jmp	 SHORT $LN32@SetSize
$LN30@SetSize:

; 442  : 			nNewMax = m_nMaxSize + nGrowBy;  // granularity
; 443  : 		else
; 444  : 			nNewMax = nNewSize;  // no slush

  00278	8b c3		 mov	 eax, ebx
  0027a	89 5d ec	 mov	 DWORD PTR _nNewMax$1$[ebp], ebx
$LN32@SetSize:

; 450  : 
; 451  : #ifdef SIZE_T_MAX
; 452  : 		ASSERT(nNewMax <= SIZE_T_MAX/sizeof(TYPE)); // no overflow
; 453  : #endif
; 454  : 		TYPE* pNewData = (TYPE*) new BYTE[(size_t)nNewMax * sizeof(TYPE)];

  0027d	8d 04 80	 lea	 eax, DWORD PTR [eax+eax*4]
  00280	c1 e0 02	 shl	 eax, 2
  00283	50		 push	 eax
  00284	89 45 0c	 mov	 DWORD PTR __S1max$1$[ebp], eax
  00287	e8 00 00 00 00	 call	 ??_U@YAPAXI@Z		; operator new[]

; 455  : 
; 456  : 		// copy new data from old
; 457  : 		::ATL::Checked::memcpy_s(pNewData, (size_t)nNewMax * sizeof(TYPE),

  0028c	8b 4e 08	 mov	 ecx, DWORD PTR [esi+8]
  0028f	83 c4 04	 add	 esp, 4
  00292	8b 56 04	 mov	 edx, DWORD PTR [esi+4]
  00295	8b f8		 mov	 edi, eax
  00297	89 7d f0	 mov	 DWORD PTR _pNewData$1$[ebp], edi
  0029a	89 55 e8	 mov	 DWORD PTR __S2$1$[ebp], edx
  0029d	8d 0c 89	 lea	 ecx, DWORD PTR [ecx+ecx*4]
  002a0	c1 e1 02	 shl	 ecx, 2
  002a3	89 4d e4	 mov	 DWORD PTR __N$1$[ebp], ecx
; File C:\Program Files (x86)\Windows Kits\10\Include\10.0.22000.0\ucrt\corecrt_memcpy_s.h

; 46   :         if (_SourceSize == 0)

  002a6	85 c9		 test	 ecx, ecx
  002a8	75 04		 jne	 SHORT $LN63@SetSize

; 47   :         {
; 48   :             return 0;

  002aa	33 c0		 xor	 eax, eax
  002ac	eb 1f		 jmp	 SHORT $LN62@SetSize
$LN63@SetSize:

; 49   :         }
; 50   : 
; 51   :         _CRT_MEMCPY_S_VALIDATE_RETURN_ERRCODE(_Destination != NULL, EINVAL);

  002ae	85 ff		 test	 edi, edi
  002b0	0f 85 c1 00 00
	00		 jne	 $LN64@SetSize
$LN101@SetSize:
; File C:\Program Files (x86)\Microsoft Visual Studio\2019\Community\VC\Tools\MSVC\14.29.30133\atlmfc\include\atlchecked.h

; 69   : 	ATLMFC_CRT_ERRORCHECK(::memcpy_s(_S1, _S1max, _S2, _N));

  002b6	ff 15 00 00 00
	00		 call	 DWORD PTR __imp___errno
  002bc	c7 00 16 00 00
	00		 mov	 DWORD PTR [eax], 22	; 00000016H
  002c2	ff 15 00 00 00
	00		 call	 DWORD PTR __imp___invalid_parameter_noinfo
$LN68@SetSize:
  002c8	b8 16 00 00 00	 mov	 eax, 22			; 00000016H
$LN62@SetSize:
  002cd	50		 push	 eax
  002ce	e8 00 00 00 00	 call	 ?AfxCrtErrorCheck@@YAHH@Z ; AfxCrtErrorCheck
; File C:\Program Files (x86)\Microsoft Visual Studio\2019\Community\VC\Tools\MSVC\14.29.30133\atlmfc\include\afxtempl.h

; 462  : 		memset((void*)(pNewData + m_nSize), 0, (size_t)(nNewSize-m_nSize) * sizeof(TYPE));

  002d3	8b 4e 08	 mov	 ecx, DWORD PTR [esi+8]
  002d6	8b c3		 mov	 eax, ebx
  002d8	2b c1		 sub	 eax, ecx
  002da	8d 04 80	 lea	 eax, DWORD PTR [eax+eax*4]
  002dd	c1 e0 02	 shl	 eax, 2
  002e0	50		 push	 eax
  002e1	8d 04 89	 lea	 eax, DWORD PTR [ecx+ecx*4]
  002e4	8d 04 87	 lea	 eax, DWORD PTR [edi+eax*4]
  002e7	6a 00		 push	 0
  002e9	50		 push	 eax
  002ea	e8 00 00 00 00	 call	 _memset

; 463  : 		for( int i = 0; i < nNewSize-m_nSize; i++ )

  002ef	8b c3		 mov	 eax, ebx
  002f1	33 c9		 xor	 ecx, ecx
  002f3	2b 46 08	 sub	 eax, DWORD PTR [esi+8]
  002f6	83 c4 10	 add	 esp, 16			; 00000010H
  002f9	89 4d 0c	 mov	 DWORD PTR _i$1$[ebp], ecx
  002fc	85 c0		 test	 eax, eax
  002fe	7e 64		 jle	 SHORT $LN15@SetSize
$LL16@SetSize:

; 466  : 			::new( (void*)( pNewData + m_nSize + i ) ) TYPE;

  00300	8b 46 08	 mov	 eax, DWORD PTR [esi+8]
  00303	03 c1		 add	 eax, ecx
  00305	8d 04 80	 lea	 eax, DWORD PTR [eax+eax*4]
  00308	8d 1c 87	 lea	 ebx, DWORD PTR [edi+eax*4]
; File D:\git\src\IBK\IBK_DRFN\ProjSrc\SrcDrfn\Chart\HWSTRATEGYCONFIGUREWIZARD\Control\LogicEditCtrl.h

; 17   : 	CElementInLogic() 

  0030b	8d 4b 04	 lea	 ecx, DWORD PTR [ebx+4]
; File C:\Program Files (x86)\Microsoft Visual Studio\2019\Community\VC\Tools\MSVC\14.29.30133\atlmfc\include\afxtempl.h

; 466  : 			::new( (void*)( pNewData + m_nSize + i ) ) TYPE;

  0030e	89 5d e4	 mov	 DWORD PTR $T2[ebp], ebx
; File D:\git\src\IBK\IBK_DRFN\ProjSrc\SrcDrfn\Chart\HWSTRATEGYCONFIGUREWIZARD\Control\LogicEditCtrl.h

; 17   : 	CElementInLogic() 

  00311	ff 15 00 00 00
	00		 call	 DWORD PTR __imp_??0?$CStringT@DV?$StrTraitMFC_DLL@DV?$ChTraitsCRT@D@ATL@@@@@ATL@@QAE@XZ

; 27   : 		m_strValue = "";

  00317	68 00 00 00 00	 push	 OFFSET ??_C@_00CNPNBAHC@@
  0031c	8d 4b 04	 lea	 ecx, DWORD PTR [ebx+4]

; 17   : 	CElementInLogic() 

  0031f	c7 45 fc 02 00
	00 00		 mov	 DWORD PTR __$EHRec$[ebp+8], 2

; 23   : 		m_nType = 0;

  00326	c7 03 00 00 00
	00		 mov	 DWORD PTR [ebx], 0

; 24   : 		m_bTRUE = TRUE;

  0032c	c7 43 08 01 00
	00 00		 mov	 DWORD PTR [ebx+8], 1

; 25   : 		m_nStartChar = 0;

  00333	c7 43 0c 00 00
	00 00		 mov	 DWORD PTR [ebx+12], 0

; 26   : 		m_nEndChar = 0;

  0033a	c7 43 10 00 00
	00 00		 mov	 DWORD PTR [ebx+16], 0

; 27   : 		m_strValue = "";

  00341	ff 15 00 00 00
	00		 call	 DWORD PTR __imp_??4?$CStringT@DV?$StrTraitMFC_DLL@DV?$ChTraitsCRT@D@ATL@@@@@ATL@@QAEAAV01@PBD@Z
; File C:\Program Files (x86)\Microsoft Visual Studio\2019\Community\VC\Tools\MSVC\14.29.30133\atlmfc\include\afxtempl.h

; 463  : 		for( int i = 0; i < nNewSize-m_nSize; i++ )

  00347	8b 4d 0c	 mov	 ecx, DWORD PTR _i$1$[ebp]
  0034a	8b 5d 08	 mov	 ebx, DWORD PTR _nNewSize$[ebp]
  0034d	41		 inc	 ecx
  0034e	8b 7d f0	 mov	 edi, DWORD PTR _pNewData$1$[ebp]
  00351	8b c3		 mov	 eax, ebx
  00353	2b 46 08	 sub	 eax, DWORD PTR [esi+8]
; File D:\git\src\IBK\IBK_DRFN\ProjSrc\SrcDrfn\Chart\HWSTRATEGYCONFIGUREWIZARD\Control\LogicEditCtrl.h

; 20   : 	}

  00356	c7 45 fc ff ff
	ff ff		 mov	 DWORD PTR __$EHRec$[ebp+8], -1
; File C:\Program Files (x86)\Microsoft Visual Studio\2019\Community\VC\Tools\MSVC\14.29.30133\atlmfc\include\afxtempl.h

; 463  : 		for( int i = 0; i < nNewSize-m_nSize; i++ )

  0035d	89 4d 0c	 mov	 DWORD PTR _i$1$[ebp], ecx
  00360	3b c8		 cmp	 ecx, eax
  00362	7c 9c		 jl	 SHORT $LL16@SetSize
$LN15@SetSize:

; 467  : #pragma pop_macro("new")
; 468  : 
; 469  : 		// get rid of old stuff (note: no destructors called)
; 470  : 		delete[] (BYTE*)m_pData;

  00364	ff 76 04	 push	 DWORD PTR [esi+4]
  00367	e8 00 00 00 00	 call	 ??_V@YAXPAX@Z		; operator delete[]
  0036c	83 c4 04	 add	 esp, 4

; 471  : 		m_pData = pNewData;

  0036f	89 7e 04	 mov	 DWORD PTR [esi+4], edi

; 472  : 		m_nSize = nNewSize;
; 473  : 		m_nMaxSize = nNewMax;

  00372	e9 ba fd ff ff	 jmp	 $LN6@SetSize
$LN64@SetSize:
; File C:\Program Files (x86)\Windows Kits\10\Include\10.0.22000.0\ucrt\corecrt_memcpy_s.h

; 52   :         if (_Source == NULL || _DestinationSize < _SourceSize)

  00377	8b 45 0c	 mov	 eax, DWORD PTR __S1max$1$[ebp]
  0037a	85 d2		 test	 edx, edx
  0037c	74 16		 je	 SHORT $LN66@SetSize
  0037e	3b c1		 cmp	 eax, ecx
  00380	72 12		 jb	 SHORT $LN66@SetSize

; 58   : 
; 59   :             // Unreachable, but required to suppress /analyze warnings:
; 60   :             return EINVAL;
; 61   :         }
; 62   :         memcpy(_Destination, _Source, _SourceSize);

  00382	51		 push	 ecx
  00383	52		 push	 edx
  00384	57		 push	 edi
  00385	e8 00 00 00 00	 call	 _memcpy
  0038a	83 c4 0c	 add	 esp, 12			; 0000000cH

; 63   :         return 0;

  0038d	33 c0		 xor	 eax, eax
  0038f	e9 39 ff ff ff	 jmp	 $LN62@SetSize
$LN66@SetSize:

; 53   :         {
; 54   :             memset(_Destination, 0, _DestinationSize);

  00394	50		 push	 eax
  00395	6a 00		 push	 0
  00397	57		 push	 edi
  00398	e8 00 00 00 00	 call	 _memset
  0039d	83 c4 0c	 add	 esp, 12			; 0000000cH

; 55   : 
; 56   :             _CRT_MEMCPY_S_VALIDATE_RETURN_ERRCODE(_Source != NULL,                 EINVAL);

  003a0	83 7d e8 00	 cmp	 DWORD PTR __S2$1$[ebp], 0
  003a4	0f 84 0c ff ff
	ff		 je	 $LN101@SetSize

; 57   :             _CRT_MEMCPY_S_VALIDATE_RETURN_ERRCODE(_DestinationSize >= _SourceSize, ERANGE);

  003aa	8b 45 e4	 mov	 eax, DWORD PTR __N$1$[ebp]
  003ad	39 45 0c	 cmp	 DWORD PTR __S1max$1$[ebp], eax
  003b0	0f 83 12 ff ff
	ff		 jae	 $LN68@SetSize
  003b6	ff 15 00 00 00
	00		 call	 DWORD PTR __imp___errno
  003bc	c7 00 22 00 00
	00		 mov	 DWORD PTR [eax], 34	; 00000022H
  003c2	ff 15 00 00 00
	00		 call	 DWORD PTR __imp___invalid_parameter_noinfo
  003c8	b8 22 00 00 00	 mov	 eax, 34			; 00000022H
  003cd	e9 fb fe ff ff	 jmp	 $LN62@SetSize
$LN97@SetSize:
; File C:\Program Files (x86)\Microsoft Visual Studio\2019\Community\VC\Tools\MSVC\14.29.30133\atlmfc\include\afxtempl.h

; 449  : 			AfxThrowInvalidArgException();

  003d2	e8 00 00 00 00	 call	 ?AfxThrowInvalidArgException@@YGXXZ ; AfxThrowInvalidArgException
$LN100@SetSize:
  003d7	cc		 int	 3
_TEXT	ENDS
;	COMDAT text$x
text$x	SEGMENT
__unwindfunclet$?SetSize@?$CArray@VCElementInLogic@@AAV1@@@QAEXHH@Z$1:
  00000	8b 4d e4	 mov	 ecx, DWORD PTR $T4[ebp]
  00003	83 c1 04	 add	 ecx, 4
  00006	ff 25 00 00 00
	00		 jmp	 DWORD PTR __imp_??1?$CStringT@DV?$StrTraitMFC_DLL@DV?$ChTraitsCRT@D@ATL@@@@@ATL@@QAE@XZ
__unwindfunclet$?SetSize@?$CArray@VCElementInLogic@@AAV1@@@QAEXHH@Z$2:
  0000c	8b 4d e4	 mov	 ecx, DWORD PTR $T3[ebp]
  0000f	83 c1 04	 add	 ecx, 4
  00012	ff 25 00 00 00
	00		 jmp	 DWORD PTR __imp_??1?$CStringT@DV?$StrTraitMFC_DLL@DV?$ChTraitsCRT@D@ATL@@@@@ATL@@QAE@XZ
__unwindfunclet$?SetSize@?$CArray@VCElementInLogic@@AAV1@@@QAEXHH@Z$4:
  00018	8b 4d e4	 mov	 ecx, DWORD PTR $T2[ebp]
  0001b	83 c1 04	 add	 ecx, 4
  0001e	ff 25 00 00 00
	00		 jmp	 DWORD PTR __imp_??1?$CStringT@DV?$StrTraitMFC_DLL@DV?$ChTraitsCRT@D@ATL@@@@@ATL@@QAE@XZ
  00024	cc		 int	 3
  00025	cc		 int	 3
  00026	cc		 int	 3
  00027	cc		 int	 3
  00028	cc		 int	 3
__ehhandler$?SetSize@?$CArray@VCElementInLogic@@AAV1@@@QAEXHH@Z:
  00029	90		 npad	 1
  0002a	90		 npad	 1
  0002b	8b 54 24 08	 mov	 edx, DWORD PTR [esp+8]
  0002f	8d 42 0c	 lea	 eax, DWORD PTR [edx+12]
  00032	8b 4a e0	 mov	 ecx, DWORD PTR [edx-32]
  00035	33 c8		 xor	 ecx, eax
  00037	e8 00 00 00 00	 call	 @__security_check_cookie@4
  0003c	b8 00 00 00 00	 mov	 eax, OFFSET __ehfuncinfo$?SetSize@?$CArray@VCElementInLogic@@AAV1@@@QAEXHH@Z
  00041	e9 00 00 00 00	 jmp	 ___CxxFrameHandler3
text$x	ENDS
?SetSize@?$CArray@VCElementInLogic@@AAV1@@@QAEXHH@Z ENDP ; CArray<CElementInLogic,CElementInLogic &>::SetSize
; Function compile flags: /Ogtp
; File C:\Program Files (x86)\Microsoft Visual Studio\2019\Community\VC\Tools\MSVC\14.29.30133\atlmfc\include\afxtempl.h
;	COMDAT ??0?$CArray@VCElementInLogic@@AAV1@@@QAE@XZ
_TEXT	SEGMENT
??0?$CArray@VCElementInLogic@@AAV1@@@QAE@XZ PROC	; CArray<CElementInLogic,CElementInLogic &>::CArray<CElementInLogic,CElementInLogic &>, COMDAT
; _this$ = ecx

; 348  : {

  00000	c7 01 00 00 00
	00		 mov	 DWORD PTR [ecx], OFFSET ??_7?$CArray@VCElementInLogic@@AAV1@@@6B@

; 349  : 	m_pData = NULL;
; 350  : 	m_nSize = m_nMaxSize = m_nGrowBy = 0;
; 351  : }

  00006	8b c1		 mov	 eax, ecx
  00008	c7 41 04 00 00
	00 00		 mov	 DWORD PTR [ecx+4], 0
  0000f	c7 41 10 00 00
	00 00		 mov	 DWORD PTR [ecx+16], 0
  00016	c7 41 0c 00 00
	00 00		 mov	 DWORD PTR [ecx+12], 0
  0001d	c7 41 08 00 00
	00 00		 mov	 DWORD PTR [ecx+8], 0
  00024	c3		 ret	 0
??0?$CArray@VCElementInLogic@@AAV1@@@QAE@XZ ENDP	; CArray<CElementInLogic,CElementInLogic &>::CArray<CElementInLogic,CElementInLogic &>
_TEXT	ENDS
; Function compile flags: /Ogtp
; File D:\git\src\IBK\IBK_DRFN\ProjSrc\SrcDrfn\Chart\HWSTRATEGYCONFIGUREWIZARD\Control\LogicEditCtrl.cpp
; File C:\Program Files (x86)\Microsoft Visual Studio\2019\Community\VC\Tools\MSVC\14.29.30133\atlmfc\include\afxwin2.inl
; File D:\git\src\IBK\IBK_DRFN\ProjSrc\SrcDrfn\Chart\HWSTRATEGYCONFIGUREWIZARD\Control\LogicEditCtrl.cpp
; File C:\Program Files (x86)\Microsoft Visual Studio\2019\Community\VC\Tools\MSVC\14.29.30133\atlmfc\include\afxwin1.inl
; File C:\Program Files (x86)\Microsoft Visual Studio\2019\Community\VC\Tools\MSVC\14.29.30133\atlmfc\include\afxwin2.inl
; File D:\git\src\IBK\IBK_DRFN\ProjSrc\SrcDrfn\Chart\HWSTRATEGYCONFIGUREWIZARD\Control\LogicEditCtrl.cpp
; File D:\git\src\IBK\IBK_DRFN\ProjSrc\SrcDrfn\Chart\HWSTRATEGYCONFIGUREWIZARD\Control\LogicEditCtrl.h
; File D:\git\src\IBK\IBK_DRFN\ProjSrc\SrcDrfn\Chart\HWSTRATEGYCONFIGUREWIZARD\Control\LogicEditCtrl.cpp
; File C:\Program Files (x86)\Microsoft Visual Studio\2019\Community\VC\Tools\MSVC\14.29.30133\atlmfc\include\afxwin2.inl
; File C:\Program Files (x86)\Microsoft Visual Studio\2019\Community\VC\Tools\MSVC\14.29.30133\atlmfc\include\afxtempl.h
; File D:\git\src\IBK\IBK_DRFN\ProjSrc\SrcDrfn\Chart\HWSTRATEGYCONFIGUREWIZARD\Control\LogicEditCtrl.cpp
; File C:\Program Files (x86)\Microsoft Visual Studio\2019\Community\VC\Tools\MSVC\14.29.30133\atlmfc\include\cstringt.h
; File D:\git\src\IBK\IBK_DRFN\ProjSrc\SrcDrfn\Chart\HWSTRATEGYCONFIGUREWIZARD\Control\LogicEditCtrl.cpp
; File C:\Program Files (x86)\Microsoft Visual Studio\2019\Community\VC\Tools\MSVC\14.29.30133\atlmfc\include\cstringt.h
; File C:\Program Files (x86)\Microsoft Visual Studio\2019\Community\VC\Tools\MSVC\14.29.30133\atlmfc\include\atlsimpstr.h
; File C:\Program Files (x86)\Microsoft Visual Studio\2019\Community\VC\Tools\MSVC\14.29.30133\atlmfc\include\cstringt.h
; File D:\git\src\IBK\IBK_DRFN\ProjSrc\SrcDrfn\Chart\HWSTRATEGYCONFIGUREWIZARD\Control\LogicEditCtrl.cpp
; File C:\Program Files (x86)\Microsoft Visual Studio\2019\Community\VC\Tools\MSVC\14.29.30133\atlmfc\include\atlsimpstr.h
; File D:\git\src\IBK\IBK_DRFN\ProjSrc\SrcDrfn\Chart\HWSTRATEGYCONFIGUREWIZARD\Control\LogicEditCtrl.cpp
; File C:\Program Files (x86)\Microsoft Visual Studio\2019\Community\VC\Tools\MSVC\14.29.30133\atlmfc\include\atlsimpstr.h
; File D:\git\src\IBK\IBK_DRFN\ProjSrc\SrcDrfn\Chart\HWSTRATEGYCONFIGUREWIZARD\Control\LogicEditCtrl.cpp
; File C:\Program Files (x86)\Microsoft Visual Studio\2019\Community\VC\Tools\MSVC\14.29.30133\atlmfc\include\afxtempl.h
; File D:\git\src\IBK\IBK_DRFN\ProjSrc\SrcDrfn\Chart\HWSTRATEGYCONFIGUREWIZARD\Control\LogicEditCtrl.cpp
; File C:\Program Files (x86)\Microsoft Visual Studio\2019\Community\VC\Tools\MSVC\14.29.30133\atlmfc\include\afxtempl.h
; File C:\Program Files (x86)\Microsoft Visual Studio\2019\Community\VC\Tools\MSVC\14.29.30133\atlmfc\include\cstringt.h
; File D:\git\src\IBK\IBK_DRFN\ProjSrc\SrcDrfn\Chart\HWSTRATEGYCONFIGUREWIZARD\Control\LogicEditCtrl.cpp
; File C:\Program Files (x86)\Microsoft Visual Studio\2019\Community\VC\Tools\MSVC\14.29.30133\atlmfc\include\cstringt.h
; File D:\git\src\IBK\IBK_DRFN\ProjSrc\SrcDrfn\Chart\HWSTRATEGYCONFIGUREWIZARD\Control\LogicEditCtrl.cpp
; File C:\Program Files (x86)\Microsoft Visual Studio\2019\Community\VC\Tools\MSVC\14.29.30133\atlmfc\include\cstringt.h
; File D:\git\src\IBK\IBK_DRFN\ProjSrc\SrcDrfn\Chart\HWSTRATEGYCONFIGUREWIZARD\Control\LogicEditCtrl.cpp
; File C:\Program Files (x86)\Microsoft Visual Studio\2019\Community\VC\Tools\MSVC\14.29.30133\atlmfc\include\afxtempl.h
; File D:\git\src\IBK\IBK_DRFN\ProjSrc\SrcDrfn\Chart\HWSTRATEGYCONFIGUREWIZARD\Control\LogicEditCtrl.cpp
; File C:\Program Files (x86)\Microsoft Visual Studio\2019\Community\VC\Tools\MSVC\14.29.30133\atlmfc\include\cstringt.h
; File D:\git\src\IBK\IBK_DRFN\ProjSrc\SrcDrfn\Chart\HWSTRATEGYCONFIGUREWIZARD\Control\LogicEditCtrl.cpp
; File C:\Program Files (x86)\Microsoft Visual Studio\2019\Community\VC\Tools\MSVC\14.29.30133\atlmfc\include\cstringt.h
; File C:\Program Files (x86)\Microsoft Visual Studio\2019\Community\VC\Tools\MSVC\14.29.30133\atlmfc\include\atlsimpstr.h
; File C:\Program Files (x86)\Microsoft Visual Studio\2019\Community\VC\Tools\MSVC\14.29.30133\atlmfc\include\cstringt.h
; File D:\git\src\IBK\IBK_DRFN\ProjSrc\SrcDrfn\Chart\HWSTRATEGYCONFIGUREWIZARD\Control\LogicEditCtrl.cpp
; File C:\Program Files (x86)\Microsoft Visual Studio\2019\Community\VC\Tools\MSVC\14.29.30133\atlmfc\include\afxwin2.inl
; File C:\Program Files (x86)\Microsoft Visual Studio\2019\Community\VC\Tools\MSVC\14.29.30133\atlmfc\include\atlsimpstr.h
; File C:\Program Files (x86)\Microsoft Visual Studio\2019\Community\VC\Tools\MSVC\14.29.30133\atlmfc\include\afxwin2.inl
; File D:\git\src\IBK\IBK_DRFN\ProjSrc\SrcDrfn\Chart\HWSTRATEGYCONFIGUREWIZARD\Control\LogicEditCtrl.cpp
; File C:\Program Files (x86)\Microsoft Visual Studio\2019\Community\VC\Tools\MSVC\14.29.30133\atlmfc\include\afxwin2.inl
; File D:\git\src\IBK\IBK_DRFN\ProjSrc\SrcDrfn\Chart\HWSTRATEGYCONFIGUREWIZARD\Control\LogicEditCtrl.cpp
; File D:\git\src\IBK\IBK_DRFN\ProjSrc\SrcDrfn\Chart\HWSTRATEGYCONFIGUREWIZARD\Control\LogicEditCtrl.h
; File D:\git\src\IBK\IBK_DRFN\ProjSrc\SrcDrfn\Chart\HWSTRATEGYCONFIGUREWIZARD\Control\LogicEditCtrl.cpp
; File C:\Program Files (x86)\Microsoft Visual Studio\2019\Community\VC\Tools\MSVC\14.29.30133\atlmfc\include\afxtempl.h
; File D:\git\src\IBK\IBK_DRFN\ProjSrc\SrcDrfn\Chart\HWSTRATEGYCONFIGUREWIZARD\Control\LogicEditCtrl.cpp
; File C:\Program Files (x86)\Microsoft Visual Studio\2019\Community\VC\Tools\MSVC\14.29.30133\atlmfc\include\cstringt.h
; File D:\git\src\IBK\IBK_DRFN\ProjSrc\SrcDrfn\Chart\HWSTRATEGYCONFIGUREWIZARD\Control\LogicEditCtrl.cpp
; File C:\Program Files (x86)\Microsoft Visual Studio\2019\Community\VC\Tools\MSVC\14.29.30133\atlmfc\include\cstringt.h
; File D:\git\src\IBK\IBK_DRFN\ProjSrc\SrcDrfn\Chart\HWSTRATEGYCONFIGUREWIZARD\Control\LogicEditCtrl.cpp
; File C:\Program Files (x86)\Microsoft Visual Studio\2019\Community\VC\Tools\MSVC\14.29.30133\atlmfc\include\afxwin2.inl
; File D:\git\src\IBK\IBK_DRFN\ProjSrc\SrcDrfn\Chart\HWSTRATEGYCONFIGUREWIZARD\Control\LogicEditCtrl.cpp
; File C:\Program Files (x86)\Microsoft Visual Studio\2019\Community\VC\Tools\MSVC\14.29.30133\atlmfc\include\afxwin2.inl
; File D:\git\src\IBK\IBK_DRFN\ProjSrc\SrcDrfn\Chart\HWSTRATEGYCONFIGUREWIZARD\Control\LogicEditCtrl.cpp
;	COMDAT ?UpdateLogic@CLogicEditCtrl@@AAEXXZ
_TEXT	SEGMENT
tv936 = -196						; size = 4
tv938 = -192						; size = 4
tv934 = -188						; size = 4
tv932 = -184						; size = 4
_ElementSt$2 = -180					; size = 20
_ElementEn$3 = -160					; size = 20
_nEndChar$1$ = -140					; size = 4
_nCntStackedOfParenthesisAtSelectionStart$1$ = -136	; size = 4
$T4 = -132						; size = 4
_strElement$ = -128					; size = 4
_nCntStackedOfParenthesis$1$ = -124			; size = 4
tv921 = -120						; size = 4
_lLength$1$ = -120					; size = 4
$T5 = -120						; size = 4
_nSize$1$ = -116					; size = 4
$T6 = -116						; size = 4
tv922 = -112						; size = 4
_nPosStart$1$ = -112					; size = 4
_nPosEnd$1$ = -108					; size = 4
_nPos$1$ = -108						; size = 4
_strText$ = -104					; size = 4
_Element$ = -100					; size = 20
_nStartChar$1$ = -80					; size = 4
$T7 = -80						; size = 4
_cf$ = -76						; size = 60
__$ArrayPad$ = -16					; size = 4
__$EHRec$ = -12						; size = 12
?UpdateLogic@CLogicEditCtrl@@AAEXXZ PROC		; CLogicEditCtrl::UpdateLogic, COMDAT
; _this$ = ecx

; 156  : {

  00000	55		 push	 ebp
  00001	8b ec		 mov	 ebp, esp
  00003	6a ff		 push	 -1
  00005	68 00 00 00 00	 push	 __ehhandler$?UpdateLogic@CLogicEditCtrl@@AAEXXZ
  0000a	64 a1 00 00 00
	00		 mov	 eax, DWORD PTR fs:0
  00010	50		 push	 eax
  00011	81 ec b8 00 00
	00		 sub	 esp, 184		; 000000b8H
  00017	a1 00 00 00 00	 mov	 eax, DWORD PTR ___security_cookie
  0001c	33 c5		 xor	 eax, ebp
  0001e	89 45 f0	 mov	 DWORD PTR __$ArrayPad$[ebp], eax
  00021	53		 push	 ebx
  00022	56		 push	 esi
  00023	57		 push	 edi
  00024	50		 push	 eax
  00025	8d 45 f4	 lea	 eax, DWORD PTR __$EHRec$[ebp]
  00028	64 a3 00 00 00
	00		 mov	 DWORD PTR fs:0, eax
  0002e	8b f9		 mov	 edi, ecx
  00030	33 c0		 xor	 eax, eax
  00032	89 85 7c ff ff
	ff		 mov	 DWORD PTR $T4[ebp], eax
  00038	89 45 88	 mov	 DWORD PTR $T5[ebp], eax
; File C:\Program Files (x86)\Microsoft Visual Studio\2019\Community\VC\Tools\MSVC\14.29.30133\atlmfc\include\afxwin2.inl

; 25   : 	{ return this == NULL ? NULL : m_hWnd; }

  0003b	85 ff		 test	 edi, edi
  0003d	0f 84 66 06 00
	00		 je	 $LN1@UpdateLogi
  00043	8b 4f 20	 mov	 ecx, DWORD PTR [edi+32]
; File D:\git\src\IBK\IBK_DRFN\ProjSrc\SrcDrfn\Chart\HWSTRATEGYCONFIGUREWIZARD\Control\LogicEditCtrl.cpp

; 157  : 	if(!GetSafeHwnd())	return;

  00046	85 c9		 test	 ecx, ecx
  00048	0f 84 5b 06 00
	00		 je	 $LN1@UpdateLogi

; 158  : 	// reorder element
; 159  : 	SetFont(&m_fontDefault);

  0004e	8d 87 94 00 00
	00		 lea	 eax, DWORD PTR [edi+148]
; File C:\Program Files (x86)\Microsoft Visual Studio\2019\Community\VC\Tools\MSVC\14.29.30133\atlmfc\include\afxwin1.inl

; 68   : 	{ return this == NULL ? NULL : m_hObject; }

  00054	85 c0		 test	 eax, eax
  00056	74 03		 je	 SHORT $LN44@UpdateLogi
$LN43@UpdateLogi:
  00058	8b 40 04	 mov	 eax, DWORD PTR [eax+4]
$LN44@UpdateLogi:
; File C:\Program Files (x86)\Microsoft Visual Studio\2019\Community\VC\Tools\MSVC\14.29.30133\atlmfc\include\afxwin2.inl

; 43   : 	{ ASSERT(::IsWindow(m_hWnd)); ::SendMessage(m_hWnd, WM_SETFONT, (WPARAM)pFont->GetSafeHandle(), bRedraw); }

  0005b	6a 01		 push	 1
  0005d	50		 push	 eax
  0005e	6a 30		 push	 48			; 00000030H
  00060	51		 push	 ecx
  00061	ff 15 00 00 00
	00		 call	 DWORD PTR __imp__SendMessageA@16
; File D:\git\src\IBK\IBK_DRFN\ProjSrc\SrcDrfn\Chart\HWSTRATEGYCONFIGUREWIZARD\Control\LogicEditCtrl.cpp

; 162  : 	int nSize = m_arrayElement.GetSize();

  00067	8b b7 88 00 00
	00		 mov	 esi, DWORD PTR [edi+136]

; 163  : 	long lOffset = 0;
; 164  : 	long lLength = 0;
; 165  : 	CString strElement;

  0006d	8d 4d 80	 lea	 ecx, DWORD PTR _strElement$[ebp]
  00070	c7 45 84 00 00
	00 00		 mov	 DWORD PTR _nCntStackedOfParenthesis$1$[ebp], 0
  00077	33 db		 xor	 ebx, ebx
  00079	c7 85 78 ff ff
	ff ff ff ff ff	 mov	 DWORD PTR _nCntStackedOfParenthesisAtSelectionStart$1$[ebp], -1
  00083	89 75 8c	 mov	 DWORD PTR _nSize$1$[ebp], esi
  00086	ff 15 00 00 00
	00		 call	 DWORD PTR __imp_??0?$CStringT@DV?$StrTraitMFC_DLL@DV?$ChTraitsCRT@D@ATL@@@@@ATL@@QAE@XZ

; 166  : 	CString strText;

  0008c	8d 4d 98	 lea	 ecx, DWORD PTR _strText$[ebp]
  0008f	89 5d fc	 mov	 DWORD PTR __$EHRec$[ebp+8], ebx
  00092	ff 15 00 00 00
	00		 call	 DWORD PTR __imp_??0?$CStringT@DV?$StrTraitMFC_DLL@DV?$ChTraitsCRT@D@ATL@@@@@ATL@@QAE@XZ
; File D:\git\src\IBK\IBK_DRFN\ProjSrc\SrcDrfn\Chart\HWSTRATEGYCONFIGUREWIZARD\Control\LogicEditCtrl.h

; 17   : 	CElementInLogic() 

  00098	8d 4d a0	 lea	 ecx, DWORD PTR _Element$[ebp+4]
  0009b	ff 15 00 00 00
	00		 call	 DWORD PTR __imp_??0?$CStringT@DV?$StrTraitMFC_DLL@DV?$ChTraitsCRT@D@ATL@@@@@ATL@@QAE@XZ

; 27   : 		m_strValue = "";

  000a1	68 00 00 00 00	 push	 OFFSET ??_C@_00CNPNBAHC@@
  000a6	8d 4d a0	 lea	 ecx, DWORD PTR _Element$[ebp+4]

; 17   : 	CElementInLogic() 

  000a9	c6 45 fc 02	 mov	 BYTE PTR __$EHRec$[ebp+8], 2

; 23   : 		m_nType = 0;

  000ad	89 5d 9c	 mov	 DWORD PTR _Element$[ebp], ebx

; 24   : 		m_bTRUE = TRUE;

  000b0	c7 45 a4 01 00
	00 00		 mov	 DWORD PTR _Element$[ebp+8], 1

; 25   : 		m_nStartChar = 0;

  000b7	89 5d a8	 mov	 DWORD PTR _Element$[ebp+12], ebx

; 26   : 		m_nEndChar = 0;

  000ba	89 5d ac	 mov	 DWORD PTR _Element$[ebp+16], ebx

; 27   : 		m_strValue = "";

  000bd	ff 15 00 00 00
	00		 call	 DWORD PTR __imp_??4?$CStringT@DV?$StrTraitMFC_DLL@DV?$ChTraitsCRT@D@ATL@@@@@ATL@@QAEAAV01@PBD@Z
; File D:\git\src\IBK\IBK_DRFN\ProjSrc\SrcDrfn\Chart\HWSTRATEGYCONFIGUREWIZARD\Control\LogicEditCtrl.cpp

; 170  : 	for( nPos=0;nPos<nSize;nPos++)

  000c3	33 c0		 xor	 eax, eax
  000c5	c6 45 fc 03	 mov	 BYTE PTR __$EHRec$[ebp+8], 3
  000c9	89 45 94	 mov	 DWORD PTR _nPos$1$[ebp], eax
  000cc	85 f6		 test	 esi, esi
  000ce	0f 8e 49 01 00
	00		 jle	 $LN3@UpdateLogi
; File C:\Program Files (x86)\Microsoft Visual Studio\2019\Community\VC\Tools\MSVC\14.29.30133\atlmfc\include\afxwin2.inl

; 43   : 	{ ASSERT(::IsWindow(m_hWnd)); ::SendMessage(m_hWnd, WM_SETFONT, (WPARAM)pFont->GetSafeHandle(), bRedraw); }

  000d4	33 c9		 xor	 ecx, ecx
  000d6	89 4d 90	 mov	 DWORD PTR tv922[ebp], ecx
  000d9	0f 1f 80 00 00
	00 00		 npad	 7
$LL4@UpdateLogi:
; File C:\Program Files (x86)\Microsoft Visual Studio\2019\Community\VC\Tools\MSVC\14.29.30133\atlmfc\include\afxtempl.h

; 288  : 	if(nIndex >= 0 && nIndex < m_nSize)

  000e0	85 c9		 test	 ecx, ecx
  000e2	0f 88 dd 05 00
	00		 js	 $LN91@UpdateLogi
  000e8	3b 87 88 00 00
	00		 cmp	 eax, DWORD PTR [edi+136]
  000ee	0f 8d d1 05 00
	00		 jge	 $LN91@UpdateLogi

; 289  : 		return m_pData[nIndex];

  000f4	8b b7 84 00 00
	00		 mov	 esi, DWORD PTR [edi+132]
  000fa	03 f1		 add	 esi, ecx
  000fc	8d 4d a0	 lea	 ecx, DWORD PTR _Element$[ebp+4]
  000ff	8b 06		 mov	 eax, DWORD PTR [esi]
  00101	89 45 9c	 mov	 DWORD PTR _Element$[ebp], eax
  00104	8d 46 04	 lea	 eax, DWORD PTR [esi+4]
  00107	50		 push	 eax
  00108	ff 15 00 00 00
	00		 call	 DWORD PTR __imp_??4?$CStringT@DV?$StrTraitMFC_DLL@DV?$ChTraitsCRT@D@ATL@@@@@ATL@@QAEAAV01@ABV01@@Z
  0010e	8b 4e 08	 mov	 ecx, DWORD PTR [esi+8]
  00111	89 4d a4	 mov	 DWORD PTR _Element$[ebp+8], ecx
  00114	8b 46 0c	 mov	 eax, DWORD PTR [esi+12]
  00117	89 45 a8	 mov	 DWORD PTR _Element$[ebp+12], eax
  0011a	8b 46 10	 mov	 eax, DWORD PTR [esi+16]
  0011d	89 45 ac	 mov	 DWORD PTR _Element$[ebp+16], eax
  00120	85 c9		 test	 ecx, ecx
; File D:\git\src\IBK\IBK_DRFN\ProjSrc\SrcDrfn\Chart\HWSTRATEGYCONFIGUREWIZARD\Control\LogicEditCtrl.cpp

; 174  : 		if(!Element.m_bTRUE)

  00122	75 63		 jne	 SHORT $LN9@UpdateLogi
; File C:\Program Files (x86)\Microsoft Visual Studio\2019\Community\VC\Tools\MSVC\14.29.30133\atlmfc\include\cstringt.h

; 2412 : 		CStringT strResult( str2.GetManager() );

  00124	8d 4d a0	 lea	 ecx, DWORD PTR _Element$[ebp+4]
; File D:\git\src\IBK\IBK_DRFN\ProjSrc\SrcDrfn\Chart\HWSTRATEGYCONFIGUREWIZARD\Control\LogicEditCtrl.cpp

; 176  : 			strElement = STRNOTINLOGIC + Element.m_strValue;

  00127	c6 45 fc 04	 mov	 BYTE PTR __$EHRec$[ebp+8], 4
; File C:\Program Files (x86)\Microsoft Visual Studio\2019\Community\VC\Tools\MSVC\14.29.30133\atlmfc\include\cstringt.h

; 2412 : 		CStringT strResult( str2.GetManager() );

  0012b	ff 15 00 00 00
	00		 call	 DWORD PTR __imp_?GetManager@?$CStringT@DV?$StrTraitMFC_DLL@DV?$ChTraitsCRT@D@ATL@@@@@ATL@@QBEPAUIAtlStringMgr@2@XZ
  00131	50		 push	 eax
  00132	8d 4d b0	 lea	 ecx, DWORD PTR $T7[ebp]
  00135	ff 15 00 00 00
	00		 call	 DWORD PTR __imp_??0?$CStringT@DV?$StrTraitMFC_DLL@DV?$ChTraitsCRT@D@ATL@@@@@ATL@@QAE@PAUIAtlStringMgr@1@@Z
; File C:\Program Files (x86)\Microsoft Visual Studio\2019\Community\VC\Tools\MSVC\14.29.30133\atlmfc\include\atlsimpstr.h

; 519  : 		return( GetData()->nDataLength );

  0013b	8b 45 a0	 mov	 eax, DWORD PTR _Element$[ebp+4]
; File C:\Program Files (x86)\Microsoft Visual Studio\2019\Community\VC\Tools\MSVC\14.29.30133\atlmfc\include\cstringt.h

; 2416 : 		return( strResult );

  0013e	8b b5 7c ff ff
	ff		 mov	 esi, DWORD PTR $T4[ebp]
  00144	83 ce 01	 or	 esi, 1
  00147	89 75 88	 mov	 DWORD PTR $T5[ebp], esi
  0014a	ff 70 f4	 push	 DWORD PTR [eax-12]
  0014d	50		 push	 eax
  0014e	6a 01		 push	 1
  00150	8d 45 b0	 lea	 eax, DWORD PTR $T7[ebp]
  00153	68 00 00 00 00	 push	 OFFSET ??_C@_01DCLJPIOD@?$CB@
  00158	50		 push	 eax
  00159	ff 15 00 00 00
	00		 call	 DWORD PTR __imp_?Concatenate@?$CSimpleStringT@D$00@ATL@@KAXAAV12@PBDH1H@Z
  0015f	83 c4 14	 add	 esp, 20			; 00000014H
; File D:\git\src\IBK\IBK_DRFN\ProjSrc\SrcDrfn\Chart\HWSTRATEGYCONFIGUREWIZARD\Control\LogicEditCtrl.cpp

; 176  : 			strElement = STRNOTINLOGIC + Element.m_strValue;

  00162	8d 45 b0	 lea	 eax, DWORD PTR $T7[ebp]
  00165	8d 4d 80	 lea	 ecx, DWORD PTR _strElement$[ebp]
  00168	50		 push	 eax
  00169	ff 15 00 00 00
	00		 call	 DWORD PTR __imp_??4?$CStringT@DV?$StrTraitMFC_DLL@DV?$ChTraitsCRT@D@ATL@@@@@ATL@@QAEAAV01@ABV01@@Z
  0016f	83 e6 fe	 and	 esi, -2			; fffffffeH
  00172	c6 45 fc 03	 mov	 BYTE PTR __$EHRec$[ebp+8], 3
  00176	8d 4d b0	 lea	 ecx, DWORD PTR $T7[ebp]
  00179	89 b5 7c ff ff
	ff		 mov	 DWORD PTR $T4[ebp], esi
  0017f	ff 15 00 00 00
	00		 call	 DWORD PTR __imp_??1?$CStringT@DV?$StrTraitMFC_DLL@DV?$ChTraitsCRT@D@ATL@@@@@ATL@@QAE@XZ

; 177  : 		}

  00185	eb 0d		 jmp	 SHORT $LN10@UpdateLogi
$LN9@UpdateLogi:

; 178  : 		else
; 179  : 		{
; 180  : 			strElement = Element.m_strValue;

  00187	8d 45 a0	 lea	 eax, DWORD PTR _Element$[ebp+4]
  0018a	50		 push	 eax
  0018b	8d 4d 80	 lea	 ecx, DWORD PTR _strElement$[ebp]
  0018e	ff 15 00 00 00
	00		 call	 DWORD PTR __imp_??4?$CStringT@DV?$StrTraitMFC_DLL@DV?$ChTraitsCRT@D@ATL@@@@@ATL@@QAEAAV01@ABV01@@Z
$LN10@UpdateLogi:
; File C:\Program Files (x86)\Microsoft Visual Studio\2019\Community\VC\Tools\MSVC\14.29.30133\atlmfc\include\atlsimpstr.h

; 519  : 		return( GetData()->nDataLength );

  00194	8b 45 80	 mov	 eax, DWORD PTR _strElement$[ebp]
; File D:\git\src\IBK\IBK_DRFN\ProjSrc\SrcDrfn\Chart\HWSTRATEGYCONFIGUREWIZARD\Control\LogicEditCtrl.cpp

; 185  : 		if(nPos)	

  00197	8b 75 94	 mov	 esi, DWORD PTR _nPos$1$[ebp]
; File C:\Program Files (x86)\Microsoft Visual Studio\2019\Community\VC\Tools\MSVC\14.29.30133\atlmfc\include\atlsimpstr.h

; 519  : 		return( GetData()->nDataLength );

  0019a	8b 40 f4	 mov	 eax, DWORD PTR [eax-12]
  0019d	89 45 88	 mov	 DWORD PTR _lLength$1$[ebp], eax
; File D:\git\src\IBK\IBK_DRFN\ProjSrc\SrcDrfn\Chart\HWSTRATEGYCONFIGUREWIZARD\Control\LogicEditCtrl.cpp

; 185  : 		if(nPos)	

  001a0	85 f6		 test	 esi, esi
  001a2	74 12		 je	 SHORT $LN11@UpdateLogi

; 186  : 		{
; 187  : 			strText += " ";

  001a4	68 00 00 00 00	 push	 OFFSET ??_C@_01CLKCMJKC@?5@
  001a9	8d 4d 98	 lea	 ecx, DWORD PTR _strText$[ebp]
  001ac	ff 15 00 00 00
	00		 call	 DWORD PTR __imp_??Y?$CStringT@DV?$StrTraitMFC_DLL@DV?$ChTraitsCRT@D@ATL@@@@@ATL@@QAEAAV01@PBD@Z
  001b2	8b 45 88	 mov	 eax, DWORD PTR _lLength$1$[ebp]

; 188  : 			lOffset += 1;

  001b5	43		 inc	 ebx
$LN11@UpdateLogi:

; 189  : 		}
; 190  : 
; 191  : 		Element.m_nStartChar = lOffset;

  001b6	89 5d a8	 mov	 DWORD PTR _Element$[ebp+12], ebx

; 192  : 		Element.m_nEndChar = lOffset + lLength;

  001b9	03 d8		 add	 ebx, eax
  001bb	89 5d ac	 mov	 DWORD PTR _Element$[ebp+16], ebx
; File C:\Program Files (x86)\Microsoft Visual Studio\2019\Community\VC\Tools\MSVC\14.29.30133\atlmfc\include\afxtempl.h

; 304  : 	if(nIndex >= 0 && nIndex < m_nSize)

  001be	3b b7 88 00 00
	00		 cmp	 esi, DWORD PTR [edi+136]
  001c4	0f 8d fb 04 00
	00		 jge	 $LN91@UpdateLogi

; 305  : 		m_pData[nIndex] = newElement;

  001ca	8b b7 84 00 00
	00		 mov	 esi, DWORD PTR [edi+132]
  001d0	03 75 90	 add	 esi, DWORD PTR tv922[ebp]
  001d3	8b 45 9c	 mov	 eax, DWORD PTR _Element$[ebp]
  001d6	89 06		 mov	 DWORD PTR [esi], eax
  001d8	8d 4e 04	 lea	 ecx, DWORD PTR [esi+4]
  001db	8d 45 a0	 lea	 eax, DWORD PTR _Element$[ebp+4]
  001de	50		 push	 eax
  001df	ff 15 00 00 00
	00		 call	 DWORD PTR __imp_??4?$CStringT@DV?$StrTraitMFC_DLL@DV?$ChTraitsCRT@D@ATL@@@@@ATL@@QAEAAV01@ABV01@@Z
  001e5	8b 45 a4	 mov	 eax, DWORD PTR _Element$[ebp+8]
; File D:\git\src\IBK\IBK_DRFN\ProjSrc\SrcDrfn\Chart\HWSTRATEGYCONFIGUREWIZARD\Control\LogicEditCtrl.cpp

; 195  : 		strText += strElement;

  001e8	8d 4d 98	 lea	 ecx, DWORD PTR _strText$[ebp]
  001eb	89 46 08	 mov	 DWORD PTR [esi+8], eax
  001ee	8b 45 a8	 mov	 eax, DWORD PTR _Element$[ebp+12]
  001f1	89 46 0c	 mov	 DWORD PTR [esi+12], eax
  001f4	8b 45 ac	 mov	 eax, DWORD PTR _Element$[ebp+16]
  001f7	89 46 10	 mov	 DWORD PTR [esi+16], eax
  001fa	8d 45 80	 lea	 eax, DWORD PTR _strElement$[ebp]
  001fd	50		 push	 eax
  001fe	ff 15 00 00 00
	00		 call	 DWORD PTR __imp_??Y?$CStringT@DV?$StrTraitMFC_DLL@DV?$ChTraitsCRT@D@ATL@@@@@ATL@@QAEAAV01@ABV?$CSimpleStringT@D$00@1@@Z
  00204	8b 45 94	 mov	 eax, DWORD PTR _nPos$1$[ebp]
  00207	8b 4d 90	 mov	 ecx, DWORD PTR tv922[ebp]
  0020a	40		 inc	 eax
  0020b	83 c1 14	 add	 ecx, 20			; 00000014H
  0020e	89 45 94	 mov	 DWORD PTR _nPos$1$[ebp], eax
  00211	89 4d 90	 mov	 DWORD PTR tv922[ebp], ecx
  00214	3b 45 8c	 cmp	 eax, DWORD PTR _nSize$1$[ebp]
  00217	0f 8c c3 fe ff
	ff		 jl	 $LL4@UpdateLogi
$LN3@UpdateLogi:

; 196  : 		lOffset += lLength;		
; 197  : 	}
; 198  : 	SetWindowText(strText);

  0021d	ff 75 98	 push	 DWORD PTR _strText$[ebp]
  00220	8b cf		 mov	 ecx, edi
  00222	e8 00 00 00 00	 call	 ?SetWindowTextA@CWnd@@QAEXPBD@Z ; CWnd::SetWindowTextA

; 199  : 
; 200  : 
; 201  : 	// Set Color under sentence.. and Make Selection info
; 202  : 	long nPosStart = -1;
; 203  : 	long nPosEnd = -1;
; 204  : 	long nStartChar = -1;
; 205  : 	long nEndChar = -1;
; 206  : 	CHARFORMAT cf;
; 207  : 	memset(&cf,0x00,sizeof(cf));

  00227	6a 3c		 push	 60			; 0000003cH
  00229	83 ce ff	 or	 esi, -1
  0022c	8d 45 b4	 lea	 eax, DWORD PTR _cf$[ebp]
  0022f	6a 00		 push	 0
  00231	50		 push	 eax
  00232	89 75 90	 mov	 DWORD PTR _nPosStart$1$[ebp], esi
  00235	89 75 94	 mov	 DWORD PTR _nPosEnd$1$[ebp], esi
  00238	89 75 b0	 mov	 DWORD PTR _nStartChar$1$[ebp], esi
  0023b	89 b5 74 ff ff
	ff		 mov	 DWORD PTR _nEndChar$1$[ebp], esi
  00241	e8 00 00 00 00	 call	 _memset

; 208  : 	for(nPos=0;nPos<nSize;nPos++)

  00246	33 db		 xor	 ebx, ebx
  00248	83 c4 0c	 add	 esp, 12			; 0000000cH
  0024b	39 5d 8c	 cmp	 DWORD PTR _nSize$1$[ebp], ebx
  0024e	0f 8e 31 01 00
	00		 jle	 $LN164@UpdateLogi

; 196  : 		lOffset += lLength;		
; 197  : 	}
; 198  : 	SetWindowText(strText);

  00254	33 c9		 xor	 ecx, ecx
  00256	0b c6		 or	 eax, esi
  00258	89 4d 88	 mov	 DWORD PTR tv921[ebp], ecx
  0025b	0f 1f 44 00 00	 npad	 5
$LL7@UpdateLogi:
; File C:\Program Files (x86)\Microsoft Visual Studio\2019\Community\VC\Tools\MSVC\14.29.30133\atlmfc\include\afxtempl.h

; 288  : 	if(nIndex >= 0 && nIndex < m_nSize)

  00260	8b 95 78 ff ff
	ff		 mov	 edx, DWORD PTR _nCntStackedOfParenthesisAtSelectionStart$1$[ebp]
  00266	89 b5 3c ff ff
	ff		 mov	 DWORD PTR tv936[ebp], esi
  0026c	89 85 40 ff ff
	ff		 mov	 DWORD PTR tv938[ebp], eax
  00272	89 95 44 ff ff
	ff		 mov	 DWORD PTR tv934[ebp], edx
  00278	89 85 48 ff ff
	ff		 mov	 DWORD PTR tv932[ebp], eax
  0027e	85 c9		 test	 ecx, ecx
  00280	0f 88 3f 04 00
	00		 js	 $LN91@UpdateLogi
  00286	3b 9f 88 00 00
	00		 cmp	 ebx, DWORD PTR [edi+136]
  0028c	0f 8d 33 04 00
	00		 jge	 $LN91@UpdateLogi

; 289  : 		return m_pData[nIndex];

  00292	8b b7 84 00 00
	00		 mov	 esi, DWORD PTR [edi+132]
  00298	03 f1		 add	 esi, ecx
  0029a	8d 4d a0	 lea	 ecx, DWORD PTR _Element$[ebp+4]
  0029d	8b 06		 mov	 eax, DWORD PTR [esi]
  0029f	89 45 9c	 mov	 DWORD PTR _Element$[ebp], eax
  002a2	8d 46 04	 lea	 eax, DWORD PTR [esi+4]
  002a5	50		 push	 eax
  002a6	ff 15 00 00 00
	00		 call	 DWORD PTR __imp_??4?$CStringT@DV?$StrTraitMFC_DLL@DV?$ChTraitsCRT@D@ATL@@@@@ATL@@QAEAAV01@ABV01@@Z
  002ac	8b 46 08	 mov	 eax, DWORD PTR [esi+8]
; File C:\Program Files (x86)\Microsoft Visual Studio\2019\Community\VC\Tools\MSVC\14.29.30133\atlmfc\include\cstringt.h

; 2486 : 		return(str1.Compare(psz2) == 0);

  002af	8d 4d a0	 lea	 ecx, DWORD PTR _Element$[ebp+4]
  002b2	89 45 a4	 mov	 DWORD PTR _Element$[ebp+8], eax
  002b5	8b 46 0c	 mov	 eax, DWORD PTR [esi+12]
  002b8	89 45 a8	 mov	 DWORD PTR _Element$[ebp+12], eax
  002bb	8b 46 10	 mov	 eax, DWORD PTR [esi+16]
  002be	68 00 00 00 00	 push	 OFFSET ??_C@_01ODHLEDKK@?$CI@
  002c3	89 45 ac	 mov	 DWORD PTR _Element$[ebp+16], eax
  002c6	ff 15 00 00 00
	00		 call	 DWORD PTR __imp_?Compare@?$CStringT@DV?$StrTraitMFC_DLL@DV?$ChTraitsCRT@D@ATL@@@@@ATL@@QBEHPBD@Z
  002cc	85 c0		 test	 eax, eax
; File D:\git\src\IBK\IBK_DRFN\ProjSrc\SrcDrfn\Chart\HWSTRATEGYCONFIGUREWIZARD\Control\LogicEditCtrl.cpp

; 212  : 		if(Element.m_strValue==STROPENPARENTHESISINLOGIC)

  002ce	75 06		 jne	 SHORT $LN12@UpdateLogi

; 213  : 		{
; 214  : 			nCntStackedOfParenthesis++;

  002d0	8b 75 84	 mov	 esi, DWORD PTR _nCntStackedOfParenthesis$1$[ebp]
  002d3	46		 inc	 esi

; 215  : 		}

  002d4	eb 16		 jmp	 SHORT $LN171@UpdateLogi
$LN12@UpdateLogi:
; File C:\Program Files (x86)\Microsoft Visual Studio\2019\Community\VC\Tools\MSVC\14.29.30133\atlmfc\include\cstringt.h

; 2486 : 		return(str1.Compare(psz2) == 0);

  002d6	68 00 00 00 00	 push	 OFFSET ??_C@_01PKGAHCOL@?$CJ@
  002db	8d 4d a0	 lea	 ecx, DWORD PTR _Element$[ebp+4]
  002de	ff 15 00 00 00
	00		 call	 DWORD PTR __imp_?Compare@?$CStringT@DV?$StrTraitMFC_DLL@DV?$ChTraitsCRT@D@ATL@@@@@ATL@@QBEHPBD@Z
; File D:\git\src\IBK\IBK_DRFN\ProjSrc\SrcDrfn\Chart\HWSTRATEGYCONFIGUREWIZARD\Control\LogicEditCtrl.cpp

; 216  : 		else if(Element.m_strValue==STRCLOSEPARENTHESISINLOGIC)

  002e4	8b 75 84	 mov	 esi, DWORD PTR _nCntStackedOfParenthesis$1$[ebp]
; File C:\Program Files (x86)\Microsoft Visual Studio\2019\Community\VC\Tools\MSVC\14.29.30133\atlmfc\include\cstringt.h

; 2486 : 		return(str1.Compare(psz2) == 0);

  002e7	85 c0		 test	 eax, eax
; File D:\git\src\IBK\IBK_DRFN\ProjSrc\SrcDrfn\Chart\HWSTRATEGYCONFIGUREWIZARD\Control\LogicEditCtrl.cpp

; 216  : 		else if(Element.m_strValue==STRCLOSEPARENTHESISINLOGIC)

  002e9	75 04		 jne	 SHORT $LN14@UpdateLogi

; 217  : 		{
; 218  : 			nCntStackedOfParenthesis--;

  002eb	4e		 dec	 esi
$LN171@UpdateLogi:

; 219  : 		}
; 220  : 		
; 221  : 		if(Element.m_nType==ELEMENTINLOGIC)

  002ec	89 75 84	 mov	 DWORD PTR _nCntStackedOfParenthesis$1$[ebp], esi
$LN14@UpdateLogi:
  002ef	83 7d 9c 01	 cmp	 DWORD PTR _Element$[ebp], 1
  002f3	75 26		 jne	 SHORT $LN15@UpdateLogi

; 222  : 		{
; 223  : 			SetSel(Element.m_nStartChar,Element.m_nEndChar);

  002f5	ff 75 ac	 push	 DWORD PTR _Element$[ebp+16]
  002f8	8b cf		 mov	 ecx, edi
  002fa	ff 75 a8	 push	 DWORD PTR _Element$[ebp+12]
  002fd	e8 00 00 00 00	 call	 ?SetSel@CRichEditCtrl@@QAEXJJ@Z ; CRichEditCtrl::SetSel

; 224  : 			cf.dwMask = CFM_COLOR;
; 225  : 			cf.crTextColor = RGB(0,0,255);
; 226  : 			SetSelectionCharFormat(cf);

  00302	8d 45 b4	 lea	 eax, DWORD PTR _cf$[ebp]
  00305	c7 45 b8 00 00
	00 40		 mov	 DWORD PTR _cf$[ebp+4], 1073741824 ; 40000000H
  0030c	50		 push	 eax
  0030d	8b cf		 mov	 ecx, edi
  0030f	c7 45 c8 00 00
	ff 00		 mov	 DWORD PTR _cf$[ebp+20], 16711680 ; 00ff0000H
  00316	e8 00 00 00 00	 call	 ?SetSelectionCharFormat@CRichEditCtrl@@QAEHAAU_charformat@@@Z ; CRichEditCtrl::SetSelectionCharFormat
$LN15@UpdateLogi:

; 227  : 		}
; 228  : 		if(m_nBeginSelected<=nPos&&m_nEndSelected>=nPos)

  0031b	8b 45 b0	 mov	 eax, DWORD PTR _nStartChar$1$[ebp]
  0031e	39 9f a0 00 00
	00		 cmp	 DWORD PTR [edi+160], ebx
  00324	7f 49		 jg	 SHORT $LN166@UpdateLogi
  00326	39 9f a4 00 00
	00		 cmp	 DWORD PTR [edi+164], ebx
  0032c	7c 41		 jl	 SHORT $LN166@UpdateLogi

; 229  : 		{
; 230  : 			if(nStartChar==-1)
; 231  : 			{
; 232  : 				nStartChar = Element.m_nStartChar;
; 233  : 				nPosStart = nPos;
; 234  : 				nCntStackedOfParenthesisAtSelectionStart = nCntStackedOfParenthesis;
; 235  : 			}			
; 236  : 			nEndChar = Element.m_nEndChar;

  0032e	8b 4d ac	 mov	 ecx, DWORD PTR _Element$[ebp+16]
  00331	83 f8 ff	 cmp	 eax, -1
  00334	89 8d 74 ff ff
	ff		 mov	 DWORD PTR _nEndChar$1$[ebp], ecx
  0033a	8b ce		 mov	 ecx, esi
  0033c	0f 44 45 a8	 cmove	 eax, DWORD PTR _Element$[ebp+12]
  00340	8b f3		 mov	 esi, ebx
  00342	83 bd 48 ff ff
	ff ff		 cmp	 DWORD PTR tv932[ebp], -1
  00349	89 45 b0	 mov	 DWORD PTR _nStartChar$1$[ebp], eax
  0034c	0f 45 8d 44 ff
	ff ff		 cmovne	 ecx, DWORD PTR tv934[ebp]
  00353	83 bd 40 ff ff
	ff ff		 cmp	 DWORD PTR tv938[ebp], -1

; 237  : 			nPosEnd = nPos;

  0035a	89 5d 94	 mov	 DWORD PTR _nPosEnd$1$[ebp], ebx
  0035d	0f 45 b5 3c ff
	ff ff		 cmovne	 esi, DWORD PTR tv936[ebp]
  00364	89 8d 78 ff ff
	ff		 mov	 DWORD PTR _nCntStackedOfParenthesisAtSelectionStart$1$[ebp], ecx
  0036a	89 75 90	 mov	 DWORD PTR _nPosStart$1$[ebp], esi
  0036d	eb 03		 jmp	 SHORT $LN5@UpdateLogi
$LN166@UpdateLogi:

; 208  : 	for(nPos=0;nPos<nSize;nPos++)

  0036f	8b 75 90	 mov	 esi, DWORD PTR _nPosStart$1$[ebp]
$LN5@UpdateLogi:
  00372	8b 4d 88	 mov	 ecx, DWORD PTR tv921[ebp]
  00375	43		 inc	 ebx
  00376	83 c1 14	 add	 ecx, 20			; 00000014H
  00379	89 4d 88	 mov	 DWORD PTR tv921[ebp], ecx
  0037c	3b 5d 8c	 cmp	 ebx, DWORD PTR _nSize$1$[ebp]
  0037f	0f 8c db fe ff
	ff		 jl	 $LL7@UpdateLogi
$LN164@UpdateLogi:

; 238  : 		}
; 239  : 	}
; 240  : 
; 241  : 
; 242  : 	// check selection and send message
; 243  : 	if(m_nBeginSelected == -1||m_nEndSelected == -1)

  00385	83 bf a0 00 00
	00 ff		 cmp	 DWORD PTR [edi+160], -1
  0038c	0f 84 f1 02 00
	00		 je	 $LN20@UpdateLogi
  00392	83 bf a4 00 00
	00 ff		 cmp	 DWORD PTR [edi+164], -1
  00399	0f 84 e4 02 00
	00		 je	 $LN20@UpdateLogi

; 246  : 	}
; 247  : 	else
; 248  : 	{
; 249  : 		SetSel(nStartChar,nEndChar);

  0039f	ff b5 74 ff ff
	ff		 push	 DWORD PTR _nEndChar$1$[ebp]
  003a5	8b 5d b0	 mov	 ebx, DWORD PTR _nStartChar$1$[ebp]
  003a8	8b cf		 mov	 ecx, edi
  003aa	53		 push	 ebx
  003ab	e8 00 00 00 00	 call	 ?SetSel@CRichEditCtrl@@QAEXJJ@Z ; CRichEditCtrl::SetSel

; 250  : 		if(nPosStart==nPosEnd)		// one element..

  003b0	3b 75 94	 cmp	 esi, DWORD PTR _nPosEnd$1$[ebp]
  003b3	0f 85 e7 00 00
	00		 jne	 $LN21@UpdateLogi
; File C:\Program Files (x86)\Microsoft Visual Studio\2019\Community\VC\Tools\MSVC\14.29.30133\atlmfc\include\afxtempl.h

; 288  : 	if(nIndex >= 0 && nIndex < m_nSize)

  003b9	85 f6		 test	 esi, esi
  003bb	0f 88 04 03 00
	00		 js	 $LN91@UpdateLogi
  003c1	3b b7 88 00 00
	00		 cmp	 esi, DWORD PTR [edi+136]
  003c7	0f 8d f8 02 00
	00		 jge	 $LN91@UpdateLogi

; 289  : 		return m_pData[nIndex];

  003cd	8b 87 84 00 00
	00		 mov	 eax, DWORD PTR [edi+132]
  003d3	8d 0c b6	 lea	 ecx, DWORD PTR [esi+esi*4]
  003d6	8d 34 88	 lea	 esi, DWORD PTR [eax+ecx*4]
  003d9	8b 06		 mov	 eax, DWORD PTR [esi]
  003db	8d 4d a0	 lea	 ecx, DWORD PTR _Element$[ebp+4]
  003de	89 45 9c	 mov	 DWORD PTR _Element$[ebp], eax
  003e1	8d 46 04	 lea	 eax, DWORD PTR [esi+4]
  003e4	50		 push	 eax
  003e5	ff 15 00 00 00
	00		 call	 DWORD PTR __imp_??4?$CStringT@DV?$StrTraitMFC_DLL@DV?$ChTraitsCRT@D@ATL@@@@@ATL@@QAEAAV01@ABV01@@Z
  003eb	8b 4e 08	 mov	 ecx, DWORD PTR [esi+8]
  003ee	89 4d a4	 mov	 DWORD PTR _Element$[ebp+8], ecx
  003f1	8b 46 0c	 mov	 eax, DWORD PTR [esi+12]
  003f4	89 45 a8	 mov	 DWORD PTR _Element$[ebp+12], eax
  003f7	8b 46 10	 mov	 eax, DWORD PTR [esi+16]
  003fa	89 45 ac	 mov	 DWORD PTR _Element$[ebp+16], eax
  003fd	85 c9		 test	 ecx, ecx
; File D:\git\src\IBK\IBK_DRFN\ProjSrc\SrcDrfn\Chart\HWSTRATEGYCONFIGUREWIZARD\Control\LogicEditCtrl.cpp

; 253  : 			if(!Element.m_bTRUE)

  003ff	75 5a		 jne	 SHORT $LN23@UpdateLogi
; File C:\Program Files (x86)\Microsoft Visual Studio\2019\Community\VC\Tools\MSVC\14.29.30133\atlmfc\include\cstringt.h

; 2412 : 		CStringT strResult( str2.GetManager() );

  00401	8d 4d a0	 lea	 ecx, DWORD PTR _Element$[ebp+4]
; File D:\git\src\IBK\IBK_DRFN\ProjSrc\SrcDrfn\Chart\HWSTRATEGYCONFIGUREWIZARD\Control\LogicEditCtrl.cpp

; 255  : 				strText = STRNOTINLOGIC + Element.m_strValue;

  00404	c6 45 fc 05	 mov	 BYTE PTR __$EHRec$[ebp+8], 5
; File C:\Program Files (x86)\Microsoft Visual Studio\2019\Community\VC\Tools\MSVC\14.29.30133\atlmfc\include\cstringt.h

; 2412 : 		CStringT strResult( str2.GetManager() );

  00408	ff 15 00 00 00
	00		 call	 DWORD PTR __imp_?GetManager@?$CStringT@DV?$StrTraitMFC_DLL@DV?$ChTraitsCRT@D@ATL@@@@@ATL@@QBEPAUIAtlStringMgr@2@XZ
  0040e	50		 push	 eax
  0040f	8d 4d 8c	 lea	 ecx, DWORD PTR $T6[ebp]
  00412	ff 15 00 00 00
	00		 call	 DWORD PTR __imp_??0?$CStringT@DV?$StrTraitMFC_DLL@DV?$ChTraitsCRT@D@ATL@@@@@ATL@@QAE@PAUIAtlStringMgr@1@@Z

; 2416 : 		return( strResult );

  00418	8b 85 7c ff ff
	ff		 mov	 eax, DWORD PTR $T4[ebp]
  0041e	83 c8 02	 or	 eax, 2
  00421	89 45 88	 mov	 DWORD PTR $T5[ebp], eax
; File C:\Program Files (x86)\Microsoft Visual Studio\2019\Community\VC\Tools\MSVC\14.29.30133\atlmfc\include\atlsimpstr.h

; 519  : 		return( GetData()->nDataLength );

  00424	8b 45 a0	 mov	 eax, DWORD PTR _Element$[ebp+4]
; File C:\Program Files (x86)\Microsoft Visual Studio\2019\Community\VC\Tools\MSVC\14.29.30133\atlmfc\include\cstringt.h

; 2414 : 		CThisSimpleString::Concatenate( strResult, psz1, CThisSimpleString::StringLength( psz1 ), str2, str2.GetLength() );

  00427	ff 70 f4	 push	 DWORD PTR [eax-12]
  0042a	50		 push	 eax
  0042b	6a 01		 push	 1
  0042d	8d 45 8c	 lea	 eax, DWORD PTR $T6[ebp]
  00430	68 00 00 00 00	 push	 OFFSET ??_C@_01DCLJPIOD@?$CB@
  00435	50		 push	 eax
  00436	ff 15 00 00 00
	00		 call	 DWORD PTR __imp_?Concatenate@?$CSimpleStringT@D$00@ATL@@KAXAAV12@PBDH1H@Z
  0043c	83 c4 14	 add	 esp, 20			; 00000014H
; File D:\git\src\IBK\IBK_DRFN\ProjSrc\SrcDrfn\Chart\HWSTRATEGYCONFIGUREWIZARD\Control\LogicEditCtrl.cpp

; 255  : 				strText = STRNOTINLOGIC + Element.m_strValue;

  0043f	8d 45 8c	 lea	 eax, DWORD PTR $T6[ebp]
  00442	8d 4d 98	 lea	 ecx, DWORD PTR _strText$[ebp]
  00445	50		 push	 eax
  00446	ff 15 00 00 00
	00		 call	 DWORD PTR __imp_??4?$CStringT@DV?$StrTraitMFC_DLL@DV?$ChTraitsCRT@D@ATL@@@@@ATL@@QAEAAV01@ABV01@@Z
  0044c	8d 4d 8c	 lea	 ecx, DWORD PTR $T6[ebp]
  0044f	c6 45 fc 03	 mov	 BYTE PTR __$EHRec$[ebp+8], 3
  00453	ff 15 00 00 00
	00		 call	 DWORD PTR __imp_??1?$CStringT@DV?$StrTraitMFC_DLL@DV?$ChTraitsCRT@D@ATL@@@@@ATL@@QAE@XZ

; 256  : 			}

  00459	eb 0d		 jmp	 SHORT $LN24@UpdateLogi
$LN23@UpdateLogi:

; 257  : 			else
; 258  : 			{
; 259  : 				strText = Element.m_strValue;

  0045b	8d 45 a0	 lea	 eax, DWORD PTR _Element$[ebp+4]
  0045e	50		 push	 eax
  0045f	8d 4d 98	 lea	 ecx, DWORD PTR _strText$[ebp]
  00462	ff 15 00 00 00
	00		 call	 DWORD PTR __imp_??4?$CStringT@DV?$StrTraitMFC_DLL@DV?$ChTraitsCRT@D@ATL@@@@@ATL@@QAEAAV01@ABV01@@Z
$LN24@UpdateLogi:
; File C:\Program Files (x86)\Microsoft Visual Studio\2019\Community\VC\Tools\MSVC\14.29.30133\atlmfc\include\afxwin2.inl

; 213  : 	{ ASSERT(::IsWindow(m_hWnd)); return CWnd::FromHandle(::GetParent(m_hWnd)); }

  00468	ff 77 20	 push	 DWORD PTR [edi+32]
; File C:\Program Files (x86)\Microsoft Visual Studio\2019\Community\VC\Tools\MSVC\14.29.30133\atlmfc\include\atlsimpstr.h

; 377  : 		return( m_pszData );

  0046b	8b 75 98	 mov	 esi, DWORD PTR _strText$[ebp]
; File C:\Program Files (x86)\Microsoft Visual Studio\2019\Community\VC\Tools\MSVC\14.29.30133\atlmfc\include\afxwin2.inl

; 213  : 	{ ASSERT(::IsWindow(m_hWnd)); return CWnd::FromHandle(::GetParent(m_hWnd)); }

  0046e	ff 15 00 00 00
	00		 call	 DWORD PTR __imp__GetParent@4
  00474	50		 push	 eax
  00475	e8 00 00 00 00	 call	 ?FromHandle@CWnd@@SGPAV1@PAUHWND__@@@Z ; CWnd::FromHandle
; File D:\git\src\IBK\IBK_DRFN\ProjSrc\SrcDrfn\Chart\HWSTRATEGYCONFIGUREWIZARD\Control\LogicEditCtrl.cpp

; 261  : 			GetParent()->SendMessage(UWM_SETSEL,(WPARAM)(LPCTSTR)strText,nCntStackedOfParenthesisAtSelectionStart>0?0:NEXTISPOSSIBLE);

  0047a	33 d2		 xor	 edx, edx
  0047c	b9 04 00 00 00	 mov	 ecx, 4
  00481	39 95 78 ff ff
	ff		 cmp	 DWORD PTR _nCntStackedOfParenthesisAtSelectionStart$1$[ebp], edx
  00487	0f 4f ca	 cmovg	 ecx, edx
; File C:\Program Files (x86)\Microsoft Visual Studio\2019\Community\VC\Tools\MSVC\14.29.30133\atlmfc\include\afxwin2.inl

; 32   : 	{ ASSERT(::IsWindow(m_hWnd)); return ::SendMessage(m_hWnd, message, wParam, lParam); }

  0048a	51		 push	 ecx
  0048b	56		 push	 esi
  0048c	68 02 04 00 00	 push	 1026			; 00000402H
  00491	ff 70 20	 push	 DWORD PTR [eax+32]
  00494	a1 00 00 00 00	 mov	 eax, DWORD PTR __imp__SendMessageA@16
  00499	ff d0		 call	 eax
; File D:\git\src\IBK\IBK_DRFN\ProjSrc\SrcDrfn\Chart\HWSTRATEGYCONFIGUREWIZARD\Control\LogicEditCtrl.cpp

; 262  : 		}

  0049b	e9 ee 01 00 00	 jmp	 $LN150@UpdateLogi
$LN21@UpdateLogi:
; File D:\git\src\IBK\IBK_DRFN\ProjSrc\SrcDrfn\Chart\HWSTRATEGYCONFIGUREWIZARD\Control\LogicEditCtrl.h

; 17   : 	CElementInLogic() 

  004a0	8d 8d 50 ff ff
	ff		 lea	 ecx, DWORD PTR _ElementSt$2[ebp+4]
  004a6	ff 15 00 00 00
	00		 call	 DWORD PTR __imp_??0?$CStringT@DV?$StrTraitMFC_DLL@DV?$ChTraitsCRT@D@ATL@@@@@ATL@@QAE@XZ

; 27   : 		m_strValue = "";

  004ac	68 00 00 00 00	 push	 OFFSET ??_C@_00CNPNBAHC@@
  004b1	8d 8d 50 ff ff
	ff		 lea	 ecx, DWORD PTR _ElementSt$2[ebp+4]

; 17   : 	CElementInLogic() 

  004b7	c6 45 fc 06	 mov	 BYTE PTR __$EHRec$[ebp+8], 6

; 23   : 		m_nType = 0;

  004bb	c7 85 4c ff ff
	ff 00 00 00 00	 mov	 DWORD PTR _ElementSt$2[ebp], 0

; 24   : 		m_bTRUE = TRUE;

  004c5	c7 85 54 ff ff
	ff 01 00 00 00	 mov	 DWORD PTR _ElementSt$2[ebp+8], 1

; 25   : 		m_nStartChar = 0;

  004cf	c7 85 58 ff ff
	ff 00 00 00 00	 mov	 DWORD PTR _ElementSt$2[ebp+12], 0

; 26   : 		m_nEndChar = 0;

  004d9	c7 85 5c ff ff
	ff 00 00 00 00	 mov	 DWORD PTR _ElementSt$2[ebp+16], 0

; 27   : 		m_strValue = "";

  004e3	ff 15 00 00 00
	00		 call	 DWORD PTR __imp_??4?$CStringT@DV?$StrTraitMFC_DLL@DV?$ChTraitsCRT@D@ATL@@@@@ATL@@QAEAAV01@PBD@Z

; 17   : 	CElementInLogic() 

  004e9	8d 8d 64 ff ff
	ff		 lea	 ecx, DWORD PTR _ElementEn$3[ebp+4]
  004ef	ff 15 00 00 00
	00		 call	 DWORD PTR __imp_??0?$CStringT@DV?$StrTraitMFC_DLL@DV?$ChTraitsCRT@D@ATL@@@@@ATL@@QAE@XZ

; 27   : 		m_strValue = "";

  004f5	68 00 00 00 00	 push	 OFFSET ??_C@_00CNPNBAHC@@
  004fa	8d 8d 64 ff ff
	ff		 lea	 ecx, DWORD PTR _ElementEn$3[ebp+4]

; 17   : 	CElementInLogic() 

  00500	c6 45 fc 08	 mov	 BYTE PTR __$EHRec$[ebp+8], 8

; 23   : 		m_nType = 0;

  00504	c7 85 60 ff ff
	ff 00 00 00 00	 mov	 DWORD PTR _ElementEn$3[ebp], 0

; 24   : 		m_bTRUE = TRUE;

  0050e	c7 85 68 ff ff
	ff 01 00 00 00	 mov	 DWORD PTR _ElementEn$3[ebp+8], 1

; 25   : 		m_nStartChar = 0;

  00518	c7 85 6c ff ff
	ff 00 00 00 00	 mov	 DWORD PTR _ElementEn$3[ebp+12], 0

; 26   : 		m_nEndChar = 0;

  00522	c7 85 70 ff ff
	ff 00 00 00 00	 mov	 DWORD PTR _ElementEn$3[ebp+16], 0

; 27   : 		m_strValue = "";

  0052c	ff 15 00 00 00
	00		 call	 DWORD PTR __imp_??4?$CStringT@DV?$StrTraitMFC_DLL@DV?$ChTraitsCRT@D@ATL@@@@@ATL@@QAEAAV01@PBD@Z
; File D:\git\src\IBK\IBK_DRFN\ProjSrc\SrcDrfn\Chart\HWSTRATEGYCONFIGUREWIZARD\Control\LogicEditCtrl.cpp

; 266  : 			CElementInLogic ElementEn;

  00532	c6 45 fc 09	 mov	 BYTE PTR __$EHRec$[ebp+8], 9
; File C:\Program Files (x86)\Microsoft Visual Studio\2019\Community\VC\Tools\MSVC\14.29.30133\atlmfc\include\afxtempl.h

; 288  : 	if(nIndex >= 0 && nIndex < m_nSize)

  00536	85 f6		 test	 esi, esi
  00538	0f 88 87 01 00
	00		 js	 $LN91@UpdateLogi
  0053e	3b b7 88 00 00
	00		 cmp	 esi, DWORD PTR [edi+136]
  00544	0f 8d 7b 01 00
	00		 jge	 $LN91@UpdateLogi

; 289  : 		return m_pData[nIndex];

  0054a	8b 87 84 00 00
	00		 mov	 eax, DWORD PTR [edi+132]
  00550	8d 0c b6	 lea	 ecx, DWORD PTR [esi+esi*4]
  00553	8d 34 88	 lea	 esi, DWORD PTR [eax+ecx*4]
  00556	8b 06		 mov	 eax, DWORD PTR [esi]
  00558	8d 8d 50 ff ff
	ff		 lea	 ecx, DWORD PTR _ElementSt$2[ebp+4]
  0055e	89 85 4c ff ff
	ff		 mov	 DWORD PTR _ElementSt$2[ebp], eax
  00564	8d 46 04	 lea	 eax, DWORD PTR [esi+4]
  00567	50		 push	 eax
  00568	ff 15 00 00 00
	00		 call	 DWORD PTR __imp_??4?$CStringT@DV?$StrTraitMFC_DLL@DV?$ChTraitsCRT@D@ATL@@@@@ATL@@QAEAAV01@ABV01@@Z
  0056e	8b 46 08	 mov	 eax, DWORD PTR [esi+8]
  00571	89 85 54 ff ff
	ff		 mov	 DWORD PTR _ElementSt$2[ebp+8], eax
  00577	8b 46 0c	 mov	 eax, DWORD PTR [esi+12]
  0057a	89 85 58 ff ff
	ff		 mov	 DWORD PTR _ElementSt$2[ebp+12], eax
  00580	8b 46 10	 mov	 eax, DWORD PTR [esi+16]
  00583	89 85 5c ff ff
	ff		 mov	 DWORD PTR _ElementSt$2[ebp+16], eax

; 288  : 	if(nIndex >= 0 && nIndex < m_nSize)

  00589	8b 45 94	 mov	 eax, DWORD PTR _nPosEnd$1$[ebp]
  0058c	85 c0		 test	 eax, eax
  0058e	0f 88 31 01 00
	00		 js	 $LN91@UpdateLogi
  00594	3b 87 88 00 00
	00		 cmp	 eax, DWORD PTR [edi+136]
  0059a	0f 8d 25 01 00
	00		 jge	 $LN91@UpdateLogi

; 289  : 		return m_pData[nIndex];

  005a0	8d 0c 80	 lea	 ecx, DWORD PTR [eax+eax*4]
  005a3	8b 87 84 00 00
	00		 mov	 eax, DWORD PTR [edi+132]
  005a9	8d 34 88	 lea	 esi, DWORD PTR [eax+ecx*4]
  005ac	8b 06		 mov	 eax, DWORD PTR [esi]
  005ae	8d 8d 64 ff ff
	ff		 lea	 ecx, DWORD PTR _ElementEn$3[ebp+4]
  005b4	89 85 60 ff ff
	ff		 mov	 DWORD PTR _ElementEn$3[ebp], eax
  005ba	8d 46 04	 lea	 eax, DWORD PTR [esi+4]
  005bd	50		 push	 eax
  005be	ff 15 00 00 00
	00		 call	 DWORD PTR __imp_??4?$CStringT@DV?$StrTraitMFC_DLL@DV?$ChTraitsCRT@D@ATL@@@@@ATL@@QAEAAV01@ABV01@@Z
; File D:\git\src\IBK\IBK_DRFN\ProjSrc\SrcDrfn\Chart\HWSTRATEGYCONFIGUREWIZARD\Control\LogicEditCtrl.cpp

; 272  : 				&&ElementSt.m_nStartChar>=nStartChar&&ElementEn.m_nEndChar<=nEndChar)

  005c4	83 bd 4c ff ff
	ff 03		 cmp	 DWORD PTR _ElementSt$2[ebp], 3
  005cb	8b 46 08	 mov	 eax, DWORD PTR [esi+8]
  005ce	89 85 68 ff ff
	ff		 mov	 DWORD PTR _ElementEn$3[ebp+8], eax
  005d4	8b 46 0c	 mov	 eax, DWORD PTR [esi+12]
  005d7	89 85 6c ff ff
	ff		 mov	 DWORD PTR _ElementEn$3[ebp+12], eax
  005dd	8b 46 10	 mov	 eax, DWORD PTR [esi+16]
  005e0	89 85 70 ff ff
	ff		 mov	 DWORD PTR _ElementEn$3[ebp+16], eax
  005e6	75 5c		 jne	 SHORT $LN25@UpdateLogi
; File C:\Program Files (x86)\Microsoft Visual Studio\2019\Community\VC\Tools\MSVC\14.29.30133\atlmfc\include\cstringt.h

; 2486 : 		return(str1.Compare(psz2) == 0);

  005e8	68 00 00 00 00	 push	 OFFSET ??_C@_01ODHLEDKK@?$CI@
  005ed	8d 8d 50 ff ff
	ff		 lea	 ecx, DWORD PTR _ElementSt$2[ebp+4]
  005f3	ff 15 00 00 00
	00		 call	 DWORD PTR __imp_?Compare@?$CStringT@DV?$StrTraitMFC_DLL@DV?$ChTraitsCRT@D@ATL@@@@@ATL@@QBEHPBD@Z
  005f9	85 c0		 test	 eax, eax
; File D:\git\src\IBK\IBK_DRFN\ProjSrc\SrcDrfn\Chart\HWSTRATEGYCONFIGUREWIZARD\Control\LogicEditCtrl.cpp

; 272  : 				&&ElementSt.m_nStartChar>=nStartChar&&ElementEn.m_nEndChar<=nEndChar)

  005fb	75 47		 jne	 SHORT $LN25@UpdateLogi
  005fd	83 bd 60 ff ff
	ff 03		 cmp	 DWORD PTR _ElementEn$3[ebp], 3
  00604	75 3e		 jne	 SHORT $LN25@UpdateLogi
; File C:\Program Files (x86)\Microsoft Visual Studio\2019\Community\VC\Tools\MSVC\14.29.30133\atlmfc\include\cstringt.h

; 2486 : 		return(str1.Compare(psz2) == 0);

  00606	68 00 00 00 00	 push	 OFFSET ??_C@_01PKGAHCOL@?$CJ@
  0060b	8d 8d 64 ff ff
	ff		 lea	 ecx, DWORD PTR _ElementEn$3[ebp+4]
  00611	ff 15 00 00 00
	00		 call	 DWORD PTR __imp_?Compare@?$CStringT@DV?$StrTraitMFC_DLL@DV?$ChTraitsCRT@D@ATL@@@@@ATL@@QBEHPBD@Z
  00617	85 c0		 test	 eax, eax
; File D:\git\src\IBK\IBK_DRFN\ProjSrc\SrcDrfn\Chart\HWSTRATEGYCONFIGUREWIZARD\Control\LogicEditCtrl.cpp

; 272  : 				&&ElementSt.m_nStartChar>=nStartChar&&ElementEn.m_nEndChar<=nEndChar)

  00619	75 29		 jne	 SHORT $LN25@UpdateLogi
  0061b	39 9d 58 ff ff
	ff		 cmp	 DWORD PTR _ElementSt$2[ebp+12], ebx
  00621	7c 21		 jl	 SHORT $LN25@UpdateLogi
  00623	8b 85 74 ff ff
	ff		 mov	 eax, DWORD PTR _nEndChar$1$[ebp]
  00629	39 85 70 ff ff
	ff		 cmp	 DWORD PTR _ElementEn$3[ebp+16], eax
  0062f	7f 13		 jg	 SHORT $LN25@UpdateLogi
; File C:\Program Files (x86)\Microsoft Visual Studio\2019\Community\VC\Tools\MSVC\14.29.30133\atlmfc\include\afxwin2.inl

; 213  : 	{ ASSERT(::IsWindow(m_hWnd)); return CWnd::FromHandle(::GetParent(m_hWnd)); }

  00631	ff 77 20	 push	 DWORD PTR [edi+32]
  00634	ff 15 00 00 00
	00		 call	 DWORD PTR __imp__GetParent@4
  0063a	50		 push	 eax
  0063b	e8 00 00 00 00	 call	 ?FromHandle@CWnd@@SGPAV1@PAUHWND__@@@Z ; CWnd::FromHandle

; 32   : 	{ ASSERT(::IsWindow(m_hWnd)); return ::SendMessage(m_hWnd, message, wParam, lParam); }

  00640	6a 03		 push	 3
; File D:\git\src\IBK\IBK_DRFN\ProjSrc\SrcDrfn\Chart\HWSTRATEGYCONFIGUREWIZARD\Control\LogicEditCtrl.cpp

; 275  : 			}

  00642	eb 11		 jmp	 SHORT $LN170@UpdateLogi
$LN25@UpdateLogi:
; File C:\Program Files (x86)\Microsoft Visual Studio\2019\Community\VC\Tools\MSVC\14.29.30133\atlmfc\include\afxwin2.inl

; 213  : 	{ ASSERT(::IsWindow(m_hWnd)); return CWnd::FromHandle(::GetParent(m_hWnd)); }

  00644	ff 77 20	 push	 DWORD PTR [edi+32]
  00647	ff 15 00 00 00
	00		 call	 DWORD PTR __imp__GetParent@4
  0064d	50		 push	 eax
  0064e	e8 00 00 00 00	 call	 ?FromHandle@CWnd@@SGPAV1@PAUHWND__@@@Z ; CWnd::FromHandle

; 32   : 	{ ASSERT(::IsWindow(m_hWnd)); return ::SendMessage(m_hWnd, message, wParam, lParam); }

  00653	6a 01		 push	 1
$LN170@UpdateLogi:
  00655	68 00 00 00 00	 push	 OFFSET ??_C@_00CNPNBAHC@@
  0065a	68 02 04 00 00	 push	 1026			; 00000402H
  0065f	ff 70 20	 push	 DWORD PTR [eax+32]
  00662	a1 00 00 00 00	 mov	 eax, DWORD PTR __imp__SendMessageA@16
  00667	ff d0		 call	 eax
  00669	8d 8d 64 ff ff
	ff		 lea	 ecx, DWORD PTR _ElementEn$3[ebp+4]
  0066f	ff 15 00 00 00
	00		 call	 DWORD PTR __imp_??1?$CStringT@DV?$StrTraitMFC_DLL@DV?$ChTraitsCRT@D@ATL@@@@@ATL@@QAE@XZ
  00675	8d 8d 50 ff ff
	ff		 lea	 ecx, DWORD PTR _ElementSt$2[ebp+4]
  0067b	ff 15 00 00 00
	00		 call	 DWORD PTR __imp_??1?$CStringT@DV?$StrTraitMFC_DLL@DV?$ChTraitsCRT@D@ATL@@@@@ATL@@QAE@XZ
  00681	eb 0b		 jmp	 SHORT $LN150@UpdateLogi
$LN20@UpdateLogi:
; File D:\git\src\IBK\IBK_DRFN\ProjSrc\SrcDrfn\Chart\HWSTRATEGYCONFIGUREWIZARD\Control\LogicEditCtrl.cpp

; 245  : 		SetSel(0,0);

  00683	6a 00		 push	 0
  00685	6a 00		 push	 0
  00687	8b cf		 mov	 ecx, edi
  00689	e8 00 00 00 00	 call	 ?SetSel@CRichEditCtrl@@QAEXJJ@Z ; CRichEditCtrl::SetSel
$LN150@UpdateLogi:

; 276  : 			else
; 277  : 			{
; 278  : 				GetParent()->SendMessage(UWM_SETSEL,(WPARAM)(LPCTSTR)"",MULTISELECTED);// With no including parenthesis
; 279  : 			}
; 280  : 		}
; 281  : 		
; 282  : 	}
; 283  : 	
; 284  : }

  0068e	8d 4d a0	 lea	 ecx, DWORD PTR _Element$[ebp+4]
  00691	ff 15 00 00 00
	00		 call	 DWORD PTR __imp_??1?$CStringT@DV?$StrTraitMFC_DLL@DV?$ChTraitsCRT@D@ATL@@@@@ATL@@QAE@XZ
  00697	8d 4d 98	 lea	 ecx, DWORD PTR _strText$[ebp]
  0069a	ff 15 00 00 00
	00		 call	 DWORD PTR __imp_??1?$CStringT@DV?$StrTraitMFC_DLL@DV?$ChTraitsCRT@D@ATL@@@@@ATL@@QAE@XZ
  006a0	8d 4d 80	 lea	 ecx, DWORD PTR _strElement$[ebp]
  006a3	ff 15 00 00 00
	00		 call	 DWORD PTR __imp_??1?$CStringT@DV?$StrTraitMFC_DLL@DV?$ChTraitsCRT@D@ATL@@@@@ATL@@QAE@XZ
$LN1@UpdateLogi:
  006a9	8b 4d f4	 mov	 ecx, DWORD PTR __$EHRec$[ebp]
  006ac	64 89 0d 00 00
	00 00		 mov	 DWORD PTR fs:0, ecx
  006b3	59		 pop	 ecx
  006b4	5f		 pop	 edi
  006b5	5e		 pop	 esi
  006b6	5b		 pop	 ebx
  006b7	8b 4d f0	 mov	 ecx, DWORD PTR __$ArrayPad$[ebp]
  006ba	33 cd		 xor	 ecx, ebp
  006bc	e8 00 00 00 00	 call	 @__security_check_cookie@4
  006c1	8b e5		 mov	 esp, ebp
  006c3	5d		 pop	 ebp
  006c4	c3		 ret	 0
$LN91@UpdateLogi:
  006c5	e8 00 00 00 00	 call	 ?AfxThrowInvalidArgException@@YGXXZ ; AfxThrowInvalidArgException
$LN169@UpdateLogi:
  006ca	cc		 int	 3
_TEXT	ENDS
;	COMDAT text$x
text$x	SEGMENT
__unwindfunclet$?UpdateLogic@CLogicEditCtrl@@AAEXXZ$0:
  00000	8d 4d 80	 lea	 ecx, DWORD PTR _strElement$[ebp]
  00003	ff 25 00 00 00
	00		 jmp	 DWORD PTR __imp_??1?$CStringT@DV?$StrTraitMFC_DLL@DV?$ChTraitsCRT@D@ATL@@@@@ATL@@QAE@XZ
__unwindfunclet$?UpdateLogic@CLogicEditCtrl@@AAEXXZ$1:
  00009	8d 4d 98	 lea	 ecx, DWORD PTR _strText$[ebp]
  0000c	ff 25 00 00 00
	00		 jmp	 DWORD PTR __imp_??1?$CStringT@DV?$StrTraitMFC_DLL@DV?$ChTraitsCRT@D@ATL@@@@@ATL@@QAE@XZ
__unwindfunclet$?UpdateLogic@CLogicEditCtrl@@AAEXXZ$7:
  00012	8d 4d a0	 lea	 ecx, DWORD PTR _Element$[ebp+4]
  00015	ff 25 00 00 00
	00		 jmp	 DWORD PTR __imp_??1?$CStringT@DV?$StrTraitMFC_DLL@DV?$ChTraitsCRT@D@ATL@@@@@ATL@@QAE@XZ
__unwindfunclet$?UpdateLogic@CLogicEditCtrl@@AAEXXZ$2:
  0001b	8d 4d 9c	 lea	 ecx, DWORD PTR _Element$[ebp]
  0001e	e9 00 00 00 00	 jmp	 ??1CElementInLogic@@QAE@XZ
__unwindfunclet$?UpdateLogic@CLogicEditCtrl@@AAEXXZ$8:
  00023	8b 45 88	 mov	 eax, DWORD PTR $T5[ebp]
  00026	83 e0 01	 and	 eax, 1
  00029	0f 84 0d 00 00
	00		 je	 $LN59@UpdateLogi
  0002f	83 65 88 fe	 and	 DWORD PTR $T5[ebp], -2	; fffffffeH
  00033	8d 4d b0	 lea	 ecx, DWORD PTR $T7[ebp]
  00036	ff 25 00 00 00
	00		 jmp	 DWORD PTR __imp_??1?$CStringT@DV?$StrTraitMFC_DLL@DV?$ChTraitsCRT@D@ATL@@@@@ATL@@QAE@XZ
$LN59@UpdateLogi:
  0003c	c3		 ret	 0
__unwindfunclet$?UpdateLogic@CLogicEditCtrl@@AAEXXZ$9:
  0003d	8b 45 88	 mov	 eax, DWORD PTR $T5[ebp]
  00040	83 e0 02	 and	 eax, 2
  00043	0f 84 0d 00 00
	00		 je	 $LN98@UpdateLogi
  00049	83 65 88 fd	 and	 DWORD PTR $T5[ebp], -3	; fffffffdH
  0004d	8d 4d 8c	 lea	 ecx, DWORD PTR $T6[ebp]
  00050	ff 25 00 00 00
	00		 jmp	 DWORD PTR __imp_??1?$CStringT@DV?$StrTraitMFC_DLL@DV?$ChTraitsCRT@D@ATL@@@@@ATL@@QAE@XZ
$LN98@UpdateLogi:
  00056	c3		 ret	 0
__unwindfunclet$?UpdateLogic@CLogicEditCtrl@@AAEXXZ$10:
  00057	8d 8d 50 ff ff
	ff		 lea	 ecx, DWORD PTR _ElementSt$2[ebp+4]
  0005d	ff 25 00 00 00
	00		 jmp	 DWORD PTR __imp_??1?$CStringT@DV?$StrTraitMFC_DLL@DV?$ChTraitsCRT@D@ATL@@@@@ATL@@QAE@XZ
__unwindfunclet$?UpdateLogic@CLogicEditCtrl@@AAEXXZ$5:
  00063	8d 8d 4c ff ff
	ff		 lea	 ecx, DWORD PTR _ElementSt$2[ebp]
  00069	e9 00 00 00 00	 jmp	 ??1CElementInLogic@@QAE@XZ
__unwindfunclet$?UpdateLogic@CLogicEditCtrl@@AAEXXZ$11:
  0006e	8d 8d 64 ff ff
	ff		 lea	 ecx, DWORD PTR _ElementEn$3[ebp+4]
  00074	ff 25 00 00 00
	00		 jmp	 DWORD PTR __imp_??1?$CStringT@DV?$StrTraitMFC_DLL@DV?$ChTraitsCRT@D@ATL@@@@@ATL@@QAE@XZ
__unwindfunclet$?UpdateLogic@CLogicEditCtrl@@AAEXXZ$6:
  0007a	8d 8d 60 ff ff
	ff		 lea	 ecx, DWORD PTR _ElementEn$3[ebp]
  00080	e9 00 00 00 00	 jmp	 ??1CElementInLogic@@QAE@XZ
  00085	cc		 int	 3
  00086	cc		 int	 3
  00087	cc		 int	 3
  00088	cc		 int	 3
  00089	cc		 int	 3
__ehhandler$?UpdateLogic@CLogicEditCtrl@@AAEXXZ:
  0008a	90		 npad	 1
  0008b	90		 npad	 1
  0008c	8b 54 24 08	 mov	 edx, DWORD PTR [esp+8]
  00090	8d 42 0c	 lea	 eax, DWORD PTR [edx+12]
  00093	8b 8a 38 ff ff
	ff		 mov	 ecx, DWORD PTR [edx-200]
  00099	33 c8		 xor	 ecx, eax
  0009b	e8 00 00 00 00	 call	 @__security_check_cookie@4
  000a0	8b 4a fc	 mov	 ecx, DWORD PTR [edx-4]
  000a3	33 c8		 xor	 ecx, eax
  000a5	e8 00 00 00 00	 call	 @__security_check_cookie@4
  000aa	b8 00 00 00 00	 mov	 eax, OFFSET __ehfuncinfo$?UpdateLogic@CLogicEditCtrl@@AAEXXZ
  000af	e9 00 00 00 00	 jmp	 ___CxxFrameHandler3
text$x	ENDS
?UpdateLogic@CLogicEditCtrl@@AAEXXZ ENDP		; CLogicEditCtrl::UpdateLogic
; Function compile flags: /Ogtp
; File D:\git\src\IBK\IBK_DRFN\ProjSrc\SrcDrfn\Chart\HWSTRATEGYCONFIGUREWIZARD\Control\LogicEditCtrl.cpp
; File C:\Program Files (x86)\Microsoft Visual Studio\2019\Community\VC\Tools\MSVC\14.29.30133\atlmfc\include\atlsimpstr.h
; File D:\git\src\IBK\IBK_DRFN\ProjSrc\SrcDrfn\Chart\HWSTRATEGYCONFIGUREWIZARD\Control\LogicEditCtrl.h
; File D:\git\src\IBK\IBK_DRFN\ProjSrc\SrcDrfn\Chart\HWSTRATEGYCONFIGUREWIZARD\Control\LogicEditCtrl.cpp
; File C:\Program Files (x86)\Microsoft Visual Studio\2019\Community\VC\Tools\MSVC\14.29.30133\atlmfc\include\atlsimpstr.h
; File D:\git\src\IBK\IBK_DRFN\ProjSrc\SrcDrfn\Chart\HWSTRATEGYCONFIGUREWIZARD\Control\LogicEditCtrl.h
; File D:\git\src\IBK\IBK_DRFN\ProjSrc\SrcDrfn\Chart\HWSTRATEGYCONFIGUREWIZARD\Control\LogicEditCtrl.cpp
; File C:\Program Files (x86)\Microsoft Visual Studio\2019\Community\VC\Tools\MSVC\14.29.30133\atlmfc\include\afxtempl.h
; File D:\git\src\IBK\IBK_DRFN\ProjSrc\SrcDrfn\Chart\HWSTRATEGYCONFIGUREWIZARD\Control\LogicEditCtrl.cpp
; File C:\Program Files (x86)\Microsoft Visual Studio\2019\Community\VC\Tools\MSVC\14.29.30133\atlmfc\include\afxtempl.h
; File D:\git\src\IBK\IBK_DRFN\ProjSrc\SrcDrfn\Chart\HWSTRATEGYCONFIGUREWIZARD\Control\LogicEditCtrl.cpp
; File D:\git\src\IBK\IBK_DRFN\ProjSrc\SrcDrfn\Chart\HWSTRATEGYCONFIGUREWIZARD\Control\LogicEditCtrl.h
; File D:\git\src\IBK\IBK_DRFN\ProjSrc\SrcDrfn\Chart\HWSTRATEGYCONFIGUREWIZARD\Control\LogicEditCtrl.cpp
; File C:\Program Files (x86)\Microsoft Visual Studio\2019\Community\VC\Tools\MSVC\14.29.30133\atlmfc\include\afxtempl.h
; File D:\git\src\IBK\IBK_DRFN\ProjSrc\SrcDrfn\Chart\HWSTRATEGYCONFIGUREWIZARD\Control\LogicEditCtrl.cpp
; File C:\Program Files (x86)\Microsoft Visual Studio\2019\Community\VC\Tools\MSVC\14.29.30133\atlmfc\include\afxtempl.h
; File D:\git\src\IBK\IBK_DRFN\ProjSrc\SrcDrfn\Chart\HWSTRATEGYCONFIGUREWIZARD\Control\LogicEditCtrl.cpp
; File C:\Program Files (x86)\Microsoft Visual Studio\2019\Community\VC\Tools\MSVC\14.29.30133\atlmfc\include\afxtempl.h
; File D:\git\src\IBK\IBK_DRFN\ProjSrc\SrcDrfn\Chart\HWSTRATEGYCONFIGUREWIZARD\Control\LogicEditCtrl.cpp
;	COMDAT ?SetLogic@CLogicEditCtrl@@QAEXPBD@Z
_TEXT	SEGMENT
_Element$ = -60						; size = 20
_nType$1$ = -40						; size = 4
_nLengthOfAlllogic$1$ = -36				; size = 4
_nValue$1$ = -32					; size = 4
_strAllLogic$ = -28					; size = 4
_nOffsetOfAllLogic$1$ = -24				; size = 4
_this$1$ = -20						; size = 4
_szValue$ = -16						; size = 2
__$EHRec$ = -12						; size = 12
_szType$ = 8						; size = 2
_lpAllLogic$ = 8					; size = 4
?SetLogic@CLogicEditCtrl@@QAEXPBD@Z PROC		; CLogicEditCtrl::SetLogic, COMDAT
; _this$ = ecx

; 624  : {

  00000	55		 push	 ebp
  00001	8b ec		 mov	 ebp, esp
  00003	6a ff		 push	 -1
  00005	68 00 00 00 00	 push	 __ehhandler$?SetLogic@CLogicEditCtrl@@QAEXPBD@Z
  0000a	64 a1 00 00 00
	00		 mov	 eax, DWORD PTR fs:0
  00010	50		 push	 eax
  00011	83 ec 30	 sub	 esp, 48			; 00000030H
  00014	53		 push	 ebx
  00015	56		 push	 esi
  00016	57		 push	 edi
  00017	a1 00 00 00 00	 mov	 eax, DWORD PTR ___security_cookie
  0001c	33 c5		 xor	 eax, ebp
  0001e	50		 push	 eax
  0001f	8d 45 f4	 lea	 eax, DWORD PTR __$EHRec$[ebp]
  00022	64 a3 00 00 00
	00		 mov	 DWORD PTR fs:0, eax
  00028	8b f1		 mov	 esi, ecx
  0002a	89 75 ec	 mov	 DWORD PTR _this$1$[ebp], esi

; 625  : 	CString strAllLogic = lpAllLogic;

  0002d	ff 75 08	 push	 DWORD PTR _lpAllLogic$[ebp]
  00030	8d 4d e4	 lea	 ecx, DWORD PTR _strAllLogic$[ebp]
  00033	ff 15 00 00 00
	00		 call	 DWORD PTR __imp_??0?$CStringT@DV?$StrTraitMFC_DLL@DV?$ChTraitsCRT@D@ATL@@@@@ATL@@QAE@PBD@Z
; File C:\Program Files (x86)\Microsoft Visual Studio\2019\Community\VC\Tools\MSVC\14.29.30133\atlmfc\include\atlsimpstr.h

; 519  : 		return( GetData()->nDataLength );

  00039	8b 45 e4	 mov	 eax, DWORD PTR _strAllLogic$[ebp]
; File D:\git\src\IBK\IBK_DRFN\ProjSrc\SrcDrfn\Chart\HWSTRATEGYCONFIGUREWIZARD\Control\LogicEditCtrl.h

; 17   : 	CElementInLogic() 

  0003c	8d 4d c8	 lea	 ecx, DWORD PTR _Element$[ebp+4]
; File D:\git\src\IBK\IBK_DRFN\ProjSrc\SrcDrfn\Chart\HWSTRATEGYCONFIGUREWIZARD\Control\LogicEditCtrl.cpp

; 625  : 	CString strAllLogic = lpAllLogic;

  0003f	c7 45 fc 00 00
	00 00		 mov	 DWORD PTR __$EHRec$[ebp+8], 0

; 626  : 	char szType[2];
; 627  : 	char szValue[2];
; 628  : 	int nType = 0;
; 629  : 	int nValue = 0;
; 630  : 	int nOffsetOfAllLogic = 0;
; 631  : 	int nLengthOfAlllogic = strAllLogic.GetLength();	
; 632  : 	int nPosInArray = 0;

  00046	33 ff		 xor	 edi, edi
  00048	c7 45 e8 00 00
	00 00		 mov	 DWORD PTR _nOffsetOfAllLogic$1$[ebp], 0
; File C:\Program Files (x86)\Microsoft Visual Studio\2019\Community\VC\Tools\MSVC\14.29.30133\atlmfc\include\atlsimpstr.h

; 519  : 		return( GetData()->nDataLength );

  0004f	8b 58 f4	 mov	 ebx, DWORD PTR [eax-12]
  00052	89 5d dc	 mov	 DWORD PTR _nLengthOfAlllogic$1$[ebp], ebx
; File D:\git\src\IBK\IBK_DRFN\ProjSrc\SrcDrfn\Chart\HWSTRATEGYCONFIGUREWIZARD\Control\LogicEditCtrl.h

; 17   : 	CElementInLogic() 

  00055	ff 15 00 00 00
	00		 call	 DWORD PTR __imp_??0?$CStringT@DV?$StrTraitMFC_DLL@DV?$ChTraitsCRT@D@ATL@@@@@ATL@@QAE@XZ

; 27   : 		m_strValue = "";

  0005b	68 00 00 00 00	 push	 OFFSET ??_C@_00CNPNBAHC@@
  00060	8d 4d c8	 lea	 ecx, DWORD PTR _Element$[ebp+4]

; 17   : 	CElementInLogic() 

  00063	c6 45 fc 01	 mov	 BYTE PTR __$EHRec$[ebp+8], 1

; 23   : 		m_nType = 0;

  00067	89 7d c4	 mov	 DWORD PTR _Element$[ebp], edi

; 24   : 		m_bTRUE = TRUE;

  0006a	c7 45 cc 01 00
	00 00		 mov	 DWORD PTR _Element$[ebp+8], 1

; 25   : 		m_nStartChar = 0;

  00071	89 7d d0	 mov	 DWORD PTR _Element$[ebp+12], edi

; 26   : 		m_nEndChar = 0;

  00074	89 7d d4	 mov	 DWORD PTR _Element$[ebp+16], edi

; 27   : 		m_strValue = "";

  00077	ff 15 00 00 00
	00		 call	 DWORD PTR __imp_??4?$CStringT@DV?$StrTraitMFC_DLL@DV?$ChTraitsCRT@D@ATL@@@@@ATL@@QAEAAV01@PBD@Z
; File D:\git\src\IBK\IBK_DRFN\ProjSrc\SrcDrfn\Chart\HWSTRATEGYCONFIGUREWIZARD\Control\LogicEditCtrl.cpp

; 635  : 	memset(szType,0x00,sizeof(szType));

  0007d	33 c0		 xor	 eax, eax
  0007f	c6 45 fc 02	 mov	 BYTE PTR __$EHRec$[ebp+8], 2
  00083	66 89 45 08	 mov	 WORD PTR _szType$[ebp], ax

; 636  : 	memset(szValue,0x00,sizeof(szValue));

  00087	66 89 45 f0	 mov	 WORD PTR _szValue$[ebp], ax

; 639  : 		if(nOffsetOfAllLogic>=nLengthOfAlllogic)	break;

  0008b	85 db		 test	 ebx, ebx
  0008d	0f 8e ff 00 00
	00		 jle	 $LN61@SetLogic

; 625  : 	CString strAllLogic = lpAllLogic;

  00093	33 db		 xor	 ebx, ebx
$LL2@SetLogic:

; 640  : 		szType[0] = strAllLogic[nOffsetOfAllLogic];

  00095	50		 push	 eax
  00096	8d 4d e4	 lea	 ecx, DWORD PTR _strAllLogic$[ebp]
  00099	ff 15 00 00 00
	00		 call	 DWORD PTR __imp_??A?$CSimpleStringT@D$00@ATL@@QBEDH@Z
  0009f	88 45 08	 mov	 BYTE PTR _szType$[ebp], al

; 641  : 		nType = atol(szType);

  000a2	8d 45 08	 lea	 eax, DWORD PTR _szType$[ebp]
  000a5	50		 push	 eax
  000a6	ff 15 00 00 00
	00		 call	 DWORD PTR __imp__atol
  000ac	89 45 d8	 mov	 DWORD PTR _nType$1$[ebp], eax
  000af	83 c4 04	 add	 esp, 4

; 642  : 		nOffsetOfAllLogic++;

  000b2	8b 45 e8	 mov	 eax, DWORD PTR _nOffsetOfAllLogic$1$[ebp]
  000b5	40		 inc	 eax
  000b6	89 45 e8	 mov	 DWORD PTR _nOffsetOfAllLogic$1$[ebp], eax

; 643  : 
; 644  : 		if(nOffsetOfAllLogic>=nLengthOfAlllogic)	break;

  000b9	3b 45 dc	 cmp	 eax, DWORD PTR _nLengthOfAlllogic$1$[ebp]
  000bc	0f 8d d0 00 00
	00		 jge	 $LN61@SetLogic

; 645  : 		szValue[0] = strAllLogic[nOffsetOfAllLogic];

  000c2	50		 push	 eax
  000c3	8d 4d e4	 lea	 ecx, DWORD PTR _strAllLogic$[ebp]
  000c6	ff 15 00 00 00
	00		 call	 DWORD PTR __imp_??A?$CSimpleStringT@D$00@ATL@@QBEDH@Z
  000cc	88 45 f0	 mov	 BYTE PTR _szValue$[ebp], al

; 646  : 		nValue = atol(szValue);

  000cf	8d 45 f0	 lea	 eax, DWORD PTR _szValue$[ebp]
  000d2	50		 push	 eax
  000d3	ff 15 00 00 00
	00		 call	 DWORD PTR __imp__atol

; 647  : 		nOffsetOfAllLogic++;

  000d9	ff 45 e8	 inc	 DWORD PTR _nOffsetOfAllLogic$1$[ebp]
  000dc	83 c4 04	 add	 esp, 4
  000df	89 45 e0	 mov	 DWORD PTR _nValue$1$[ebp], eax

; 648  : 
; 649  : 		switch(nType)

  000e2	8b 45 d8	 mov	 eax, DWORD PTR _nType$1$[ebp]
  000e5	83 e8 02	 sub	 eax, 2
  000e8	0f 84 38 01 00
	00		 je	 $LN10@SetLogic
  000ee	83 e8 01	 sub	 eax, 1
  000f1	0f 84 c8 00 00
	00		 je	 $LN15@SetLogic
; File C:\Program Files (x86)\Microsoft Visual Studio\2019\Community\VC\Tools\MSVC\14.29.30133\atlmfc\include\afxtempl.h

; 288  : 	if(nIndex >= 0 && nIndex < m_nSize)

  000f7	85 db		 test	 ebx, ebx
  000f9	0f 88 b3 01 00
	00		 js	 $LN33@SetLogic
  000ff	3b be 88 00 00
	00		 cmp	 edi, DWORD PTR [esi+136]
  00105	0f 8d a7 01 00
	00		 jge	 $LN33@SetLogic

; 289  : 		return m_pData[nIndex];

  0010b	8b b6 84 00 00
	00		 mov	 esi, DWORD PTR [esi+132]
  00111	8d 4d c8	 lea	 ecx, DWORD PTR _Element$[ebp+4]
  00114	03 f3		 add	 esi, ebx
  00116	8b 06		 mov	 eax, DWORD PTR [esi]
  00118	89 45 c4	 mov	 DWORD PTR _Element$[ebp], eax
  0011b	8d 46 04	 lea	 eax, DWORD PTR [esi+4]
  0011e	50		 push	 eax
  0011f	ff 15 00 00 00
	00		 call	 DWORD PTR __imp_??4?$CStringT@DV?$StrTraitMFC_DLL@DV?$ChTraitsCRT@D@ATL@@@@@ATL@@QAEAAV01@ABV01@@Z
; File D:\git\src\IBK\IBK_DRFN\ProjSrc\SrcDrfn\Chart\HWSTRATEGYCONFIGUREWIZARD\Control\LogicEditCtrl.cpp

; 685  : 			if(Element.m_nType!=ELEMENTINLOGIC)	break;

  00125	83 7d c4 01	 cmp	 DWORD PTR _Element$[ebp], 1
  00129	8b 46 08	 mov	 eax, DWORD PTR [esi+8]
  0012c	89 45 cc	 mov	 DWORD PTR _Element$[ebp+8], eax
  0012f	8b 46 0c	 mov	 eax, DWORD PTR [esi+12]
  00132	89 45 d0	 mov	 DWORD PTR _Element$[ebp+12], eax
  00135	8b 46 10	 mov	 eax, DWORD PTR [esi+16]
  00138	8b 75 ec	 mov	 esi, DWORD PTR _this$1$[ebp]
  0013b	89 45 d4	 mov	 DWORD PTR _Element$[ebp+16], eax
  0013e	75 46		 jne	 SHORT $LN4@SetLogic

; 686  : 			Element.m_bTRUE = nValue;			

  00140	8b 45 e0	 mov	 eax, DWORD PTR _nValue$1$[ebp]
  00143	89 45 cc	 mov	 DWORD PTR _Element$[ebp+8], eax
; File C:\Program Files (x86)\Microsoft Visual Studio\2019\Community\VC\Tools\MSVC\14.29.30133\atlmfc\include\afxtempl.h

; 304  : 	if(nIndex >= 0 && nIndex < m_nSize)

  00146	3b be 88 00 00
	00		 cmp	 edi, DWORD PTR [esi+136]
  0014c	0f 8d 60 01 00
	00		 jge	 $LN33@SetLogic

; 305  : 		m_pData[nIndex] = newElement;

  00152	8b b6 84 00 00
	00		 mov	 esi, DWORD PTR [esi+132]
  00158	03 f3		 add	 esi, ebx
  0015a	c7 06 01 00 00
	00		 mov	 DWORD PTR [esi], 1
$LN71@SetLogic:
; File D:\git\src\IBK\IBK_DRFN\ProjSrc\SrcDrfn\Chart\HWSTRATEGYCONFIGUREWIZARD\Control\LogicEditCtrl.cpp

; 639  : 		if(nOffsetOfAllLogic>=nLengthOfAlllogic)	break;

  00160	8d 45 c8	 lea	 eax, DWORD PTR _Element$[ebp+4]
  00163	50		 push	 eax
  00164	8d 4e 04	 lea	 ecx, DWORD PTR [esi+4]
  00167	ff 15 00 00 00
	00		 call	 DWORD PTR __imp_??4?$CStringT@DV?$StrTraitMFC_DLL@DV?$ChTraitsCRT@D@ATL@@@@@ATL@@QAEAAV01@ABV01@@Z
  0016d	8b 45 cc	 mov	 eax, DWORD PTR _Element$[ebp+8]
  00170	47		 inc	 edi
  00171	89 46 08	 mov	 DWORD PTR [esi+8], eax
  00174	83 c3 14	 add	 ebx, 20			; 00000014H
  00177	8b 45 d0	 mov	 eax, DWORD PTR _Element$[ebp+12]
  0017a	89 46 0c	 mov	 DWORD PTR [esi+12], eax
  0017d	8b 45 d4	 mov	 eax, DWORD PTR _Element$[ebp+16]
  00180	89 46 10	 mov	 DWORD PTR [esi+16], eax
$LN65@SetLogic:
  00183	8b 75 ec	 mov	 esi, DWORD PTR _this$1$[ebp]
$LN4@SetLogic:
  00186	8b 45 e8	 mov	 eax, DWORD PTR _nOffsetOfAllLogic$1$[ebp]
  00189	3b 45 dc	 cmp	 eax, DWORD PTR _nLengthOfAlllogic$1$[ebp]
  0018c	0f 8c 03 ff ff
	ff		 jl	 $LL2@SetLogic
$LN61@SetLogic:

; 687  : 			m_arrayElement.SetAt(nPosInArray,Element);	
; 688  : 			nPosInArray++;
; 689  : 			break;
; 690  : 		}		
; 691  : 	}	
; 692  : 	UpdateLogic();

  00192	8b ce		 mov	 ecx, esi
  00194	e8 00 00 00 00	 call	 ?UpdateLogic@CLogicEditCtrl@@AAEXXZ ; CLogicEditCtrl::UpdateLogic
  00199	8d 4d c8	 lea	 ecx, DWORD PTR _Element$[ebp+4]
  0019c	ff 15 00 00 00
	00		 call	 DWORD PTR __imp_??1?$CStringT@DV?$StrTraitMFC_DLL@DV?$ChTraitsCRT@D@ATL@@@@@ATL@@QAE@XZ

; 693  : }

  001a2	8d 4d e4	 lea	 ecx, DWORD PTR _strAllLogic$[ebp]
  001a5	ff 15 00 00 00
	00		 call	 DWORD PTR __imp_??1?$CStringT@DV?$StrTraitMFC_DLL@DV?$ChTraitsCRT@D@ATL@@@@@ATL@@QAE@XZ
  001ab	8b 4d f4	 mov	 ecx, DWORD PTR __$EHRec$[ebp]
  001ae	64 89 0d 00 00
	00 00		 mov	 DWORD PTR fs:0, ecx
  001b5	59		 pop	 ecx
  001b6	5f		 pop	 edi
  001b7	5e		 pop	 esi
  001b8	5b		 pop	 ebx
  001b9	8b e5		 mov	 esp, ebp
  001bb	5d		 pop	 ebp
  001bc	c2 04 00	 ret	 4
$LN15@SetLogic:
; File D:\git\src\IBK\IBK_DRFN\ProjSrc\SrcDrfn\Chart\HWSTRATEGYCONFIGUREWIZARD\Control\LogicEditCtrl.h

; 27   : 		m_strValue = "";

  001bf	68 00 00 00 00	 push	 OFFSET ??_C@_00CNPNBAHC@@
  001c4	8d 4d c8	 lea	 ecx, DWORD PTR _Element$[ebp+4]
  001c7	c7 45 c4 00 00
	00 00		 mov	 DWORD PTR _Element$[ebp], 0
  001ce	c7 45 cc 01 00
	00 00		 mov	 DWORD PTR _Element$[ebp+8], 1
  001d5	c7 45 d0 00 00
	00 00		 mov	 DWORD PTR _Element$[ebp+12], 0
  001dc	c7 45 d4 00 00
	00 00		 mov	 DWORD PTR _Element$[ebp+16], 0
  001e3	ff 15 00 00 00
	00		 call	 DWORD PTR __imp_??4?$CStringT@DV?$StrTraitMFC_DLL@DV?$ChTraitsCRT@D@ATL@@@@@ATL@@QAEAAV01@PBD@Z
; File D:\git\src\IBK\IBK_DRFN\ProjSrc\SrcDrfn\Chart\HWSTRATEGYCONFIGUREWIZARD\Control\LogicEditCtrl.cpp

; 672  : 			if(nValue==OPENPARENTHESISINLOGIC)

  001e9	83 7d e0 00	 cmp	 DWORD PTR _nValue$1$[ebp], 0
  001ed	8d 4d c8	 lea	 ecx, DWORD PTR _Element$[ebp+4]
  001f0	c7 45 c4 03 00
	00 00		 mov	 DWORD PTR _Element$[ebp], 3
  001f7	75 07		 jne	 SHORT $LN16@SetLogic

; 673  : 			{
; 674  : 				Element.m_strValue=STROPENPARENTHESISINLOGIC;

  001f9	68 00 00 00 00	 push	 OFFSET ??_C@_01ODHLEDKK@?$CI@

; 675  : 			}

  001fe	eb 05		 jmp	 SHORT $LN69@SetLogic
$LN16@SetLogic:

; 676  : 			else
; 677  : 			{
; 678  : 				Element.m_strValue=STRCLOSEPARENTHESISINLOGIC;

  00200	68 00 00 00 00	 push	 OFFSET ??_C@_01PKGAHCOL@?$CJ@
$LN69@SetLogic:

; 679  : 			}
; 680  : 			m_arrayElement.InsertAt(nPosInArray,Element);

  00205	ff 15 00 00 00
	00		 call	 DWORD PTR __imp_??4?$CStringT@DV?$StrTraitMFC_DLL@DV?$ChTraitsCRT@D@ATL@@@@@ATL@@QAEAAV01@PBD@Z
  0020b	6a 01		 push	 1
  0020d	8d 45 c4	 lea	 eax, DWORD PTR _Element$[ebp]
  00210	50		 push	 eax
  00211	57		 push	 edi
  00212	8d 8e 80 00 00
	00		 lea	 ecx, DWORD PTR [esi+128]
  00218	e8 00 00 00 00	 call	 ?InsertAt@?$CArray@VCElementInLogic@@AAV1@@@QAEXHAAVCElementInLogic@@H@Z ; CArray<CElementInLogic,CElementInLogic &>::InsertAt

; 681  : 			nPosInArray++;

  0021d	47		 inc	 edi
  0021e	83 c3 14	 add	 ebx, 20			; 00000014H

; 682  : 			break;

  00221	e9 60 ff ff ff	 jmp	 $LN4@SetLogic
$LN10@SetLogic:
; File C:\Program Files (x86)\Microsoft Visual Studio\2019\Community\VC\Tools\MSVC\14.29.30133\atlmfc\include\afxtempl.h

; 288  : 	if(nIndex >= 0 && nIndex < m_nSize)

  00226	85 db		 test	 ebx, ebx
  00228	0f 88 84 00 00
	00		 js	 $LN33@SetLogic
  0022e	3b be 88 00 00
	00		 cmp	 edi, DWORD PTR [esi+136]
  00234	7d 7c		 jge	 SHORT $LN33@SetLogic

; 289  : 		return m_pData[nIndex];

  00236	8b b6 84 00 00
	00		 mov	 esi, DWORD PTR [esi+132]
  0023c	8d 4d c8	 lea	 ecx, DWORD PTR _Element$[ebp+4]
  0023f	03 f3		 add	 esi, ebx
  00241	8b 06		 mov	 eax, DWORD PTR [esi]
  00243	89 45 c4	 mov	 DWORD PTR _Element$[ebp], eax
  00246	8d 46 04	 lea	 eax, DWORD PTR [esi+4]
  00249	50		 push	 eax
  0024a	ff 15 00 00 00
	00		 call	 DWORD PTR __imp_??4?$CStringT@DV?$StrTraitMFC_DLL@DV?$ChTraitsCRT@D@ATL@@@@@ATL@@QAEAAV01@ABV01@@Z
; File D:\git\src\IBK\IBK_DRFN\ProjSrc\SrcDrfn\Chart\HWSTRATEGYCONFIGUREWIZARD\Control\LogicEditCtrl.cpp

; 653  : 			if(Element.m_nType!=OPERATIONINLOGIC)	break;

  00250	83 7d c4 02	 cmp	 DWORD PTR _Element$[ebp], 2
  00254	8b 46 08	 mov	 eax, DWORD PTR [esi+8]
  00257	89 45 cc	 mov	 DWORD PTR _Element$[ebp+8], eax
  0025a	8b 46 0c	 mov	 eax, DWORD PTR [esi+12]
  0025d	89 45 d0	 mov	 DWORD PTR _Element$[ebp+12], eax
  00260	8b 46 10	 mov	 eax, DWORD PTR [esi+16]
  00263	89 45 d4	 mov	 DWORD PTR _Element$[ebp+16], eax
  00266	0f 85 17 ff ff
	ff		 jne	 $LN65@SetLogic

; 654  : 			switch(nValue)

  0026c	8b 45 e0	 mov	 eax, DWORD PTR _nValue$1$[ebp]
  0026f	8d 4d c8	 lea	 ecx, DWORD PTR _Element$[ebp+4]
  00272	83 e8 01	 sub	 eax, 1
  00275	74 13		 je	 SHORT $LN12@SetLogic
  00277	83 e8 01	 sub	 eax, 1
  0027a	74 07		 je	 SHORT $LN13@SetLogic

; 662  : 			default:	// ANDINLOGIC
; 663  : 				Element.m_strValue = STRANDINLOGIC;

  0027c	68 00 00 00 00	 push	 OFFSET ??_C@_03BOPJPIAM@and@
  00281	eb 0c		 jmp	 SHORT $LN70@SetLogic
$LN13@SetLogic:

; 658  : 				break;
; 659  : 			case NEXTINLOGIC:
; 660  : 				Element.m_strValue = STRNEXTINLOGIC;

  00283	68 00 00 00 00	 push	 OFFSET ??_C@_04CJGEDOF@next@

; 661  : 				break;

  00288	eb 05		 jmp	 SHORT $LN70@SetLogic
$LN12@SetLogic:

; 655  : 			{
; 656  : 			case ORINLOGIC:
; 657  : 				Element.m_strValue = STRORINLOGIC;

  0028a	68 00 00 00 00	 push	 OFFSET ??_C@_02FODMLBIE@or@
$LN70@SetLogic:
; File C:\Program Files (x86)\Microsoft Visual Studio\2019\Community\VC\Tools\MSVC\14.29.30133\atlmfc\include\afxtempl.h

; 304  : 	if(nIndex >= 0 && nIndex < m_nSize)

  0028f	ff 15 00 00 00
	00		 call	 DWORD PTR __imp_??4?$CStringT@DV?$StrTraitMFC_DLL@DV?$ChTraitsCRT@D@ATL@@@@@ATL@@QAEAAV01@PBD@Z
  00295	8b 75 ec	 mov	 esi, DWORD PTR _this$1$[ebp]
  00298	3b be 88 00 00
	00		 cmp	 edi, DWORD PTR [esi+136]
  0029e	7d 12		 jge	 SHORT $LN33@SetLogic

; 305  : 		m_pData[nIndex] = newElement;

  002a0	8b b6 84 00 00
	00		 mov	 esi, DWORD PTR [esi+132]
  002a6	8b 45 c4	 mov	 eax, DWORD PTR _Element$[ebp]
  002a9	03 f3		 add	 esi, ebx
  002ab	89 06		 mov	 DWORD PTR [esi], eax
; File D:\git\src\IBK\IBK_DRFN\ProjSrc\SrcDrfn\Chart\HWSTRATEGYCONFIGUREWIZARD\Control\LogicEditCtrl.cpp

; 653  : 			if(Element.m_nType!=OPERATIONINLOGIC)	break;

  002ad	e9 ae fe ff ff	 jmp	 $LN71@SetLogic
$LN33@SetLogic:
; File C:\Program Files (x86)\Microsoft Visual Studio\2019\Community\VC\Tools\MSVC\14.29.30133\atlmfc\include\afxtempl.h

; 290  : 	AfxThrowInvalidArgException();

  002b2	e8 00 00 00 00	 call	 ?AfxThrowInvalidArgException@@YGXXZ ; AfxThrowInvalidArgException
$LN68@SetLogic:
  002b7	cc		 int	 3
_TEXT	ENDS
;	COMDAT text$x
text$x	SEGMENT
__unwindfunclet$?SetLogic@CLogicEditCtrl@@QAEXPBD@Z$0:
  00000	8d 4d e4	 lea	 ecx, DWORD PTR _strAllLogic$[ebp]
  00003	ff 25 00 00 00
	00		 jmp	 DWORD PTR __imp_??1?$CStringT@DV?$StrTraitMFC_DLL@DV?$ChTraitsCRT@D@ATL@@@@@ATL@@QAE@XZ
__unwindfunclet$?SetLogic@CLogicEditCtrl@@QAEXPBD@Z$2:
  00009	8d 4d c8	 lea	 ecx, DWORD PTR _Element$[ebp+4]
  0000c	ff 25 00 00 00
	00		 jmp	 DWORD PTR __imp_??1?$CStringT@DV?$StrTraitMFC_DLL@DV?$ChTraitsCRT@D@ATL@@@@@ATL@@QAE@XZ
__unwindfunclet$?SetLogic@CLogicEditCtrl@@QAEXPBD@Z$1:
  00012	8d 4d c4	 lea	 ecx, DWORD PTR _Element$[ebp]
  00015	e9 00 00 00 00	 jmp	 ??1CElementInLogic@@QAE@XZ
  0001a	cc		 int	 3
  0001b	cc		 int	 3
  0001c	cc		 int	 3
  0001d	cc		 int	 3
  0001e	cc		 int	 3
__ehhandler$?SetLogic@CLogicEditCtrl@@QAEXPBD@Z:
  0001f	90		 npad	 1
  00020	90		 npad	 1
  00021	8b 54 24 08	 mov	 edx, DWORD PTR [esp+8]
  00025	8d 42 0c	 lea	 eax, DWORD PTR [edx+12]
  00028	8b 4a c0	 mov	 ecx, DWORD PTR [edx-64]
  0002b	33 c8		 xor	 ecx, eax
  0002d	e8 00 00 00 00	 call	 @__security_check_cookie@4
  00032	b8 00 00 00 00	 mov	 eax, OFFSET __ehfuncinfo$?SetLogic@CLogicEditCtrl@@QAEXPBD@Z
  00037	e9 00 00 00 00	 jmp	 ___CxxFrameHandler3
text$x	ENDS
?SetLogic@CLogicEditCtrl@@QAEXPBD@Z ENDP		; CLogicEditCtrl::SetLogic
; Function compile flags: /Ogtp
; File D:\git\src\IBK\IBK_DRFN\ProjSrc\SrcDrfn\Chart\HWSTRATEGYCONFIGUREWIZARD\Control\LogicEditCtrl.cpp
; File D:\git\src\IBK\IBK_DRFN\ProjSrc\SrcDrfn\Chart\HWSTRATEGYCONFIGUREWIZARD\Control\LogicEditCtrl.h
; File D:\git\src\IBK\IBK_DRFN\ProjSrc\SrcDrfn\Chart\HWSTRATEGYCONFIGUREWIZARD\Control\LogicEditCtrl.cpp
; File D:\git\src\IBK\IBK_DRFN\ProjSrc\SrcDrfn\Chart\HWSTRATEGYCONFIGUREWIZARD\Control\LogicEditCtrl.h
; File D:\git\src\IBK\IBK_DRFN\ProjSrc\SrcDrfn\Chart\HWSTRATEGYCONFIGUREWIZARD\Control\LogicEditCtrl.cpp
; File C:\Program Files (x86)\Microsoft Visual Studio\2019\Community\VC\Tools\MSVC\14.29.30133\atlmfc\include\afxtempl.h
; File D:\git\src\IBK\IBK_DRFN\ProjSrc\SrcDrfn\Chart\HWSTRATEGYCONFIGUREWIZARD\Control\LogicEditCtrl.cpp
; File C:\Program Files (x86)\Microsoft Visual Studio\2019\Community\VC\Tools\MSVC\14.29.30133\atlmfc\include\cstringt.h
; File D:\git\src\IBK\IBK_DRFN\ProjSrc\SrcDrfn\Chart\HWSTRATEGYCONFIGUREWIZARD\Control\LogicEditCtrl.cpp
; File C:\Program Files (x86)\Microsoft Visual Studio\2019\Community\VC\Tools\MSVC\14.29.30133\atlmfc\include\cstringt.h
; File D:\git\src\IBK\IBK_DRFN\ProjSrc\SrcDrfn\Chart\HWSTRATEGYCONFIGUREWIZARD\Control\LogicEditCtrl.cpp
; File C:\Program Files (x86)\Microsoft Visual Studio\2019\Community\VC\Tools\MSVC\14.29.30133\atlmfc\include\cstringt.h
; File D:\git\src\IBK\IBK_DRFN\ProjSrc\SrcDrfn\Chart\HWSTRATEGYCONFIGUREWIZARD\Control\LogicEditCtrl.cpp
; File C:\Program Files (x86)\Microsoft Visual Studio\2019\Community\VC\Tools\MSVC\14.29.30133\atlmfc\include\afxtempl.h
; File D:\git\src\IBK\IBK_DRFN\ProjSrc\SrcDrfn\Chart\HWSTRATEGYCONFIGUREWIZARD\Control\LogicEditCtrl.cpp
;	COMDAT ?GetLogic@CLogicEditCtrl@@QAE?AV?$CStringT@DV?$StrTraitMFC_DLL@DV?$ChTraitsCRT@D@ATL@@@@@ATL@@XZ
_TEXT	SEGMENT
_Element$ = -48						; size = 20
_this$1$ = -28						; size = 4
_nSize$1$ = -24						; size = 4
$T2 = -20						; size = 4
_strLogic$ = -16					; size = 4
__$EHRec$ = -12						; size = 12
___$ReturnUdt$ = 8					; size = 4
?GetLogic@CLogicEditCtrl@@QAE?AV?$CStringT@DV?$StrTraitMFC_DLL@DV?$ChTraitsCRT@D@ATL@@@@@ATL@@XZ PROC ; CLogicEditCtrl::GetLogic, COMDAT
; _this$ = ecx

; 576  : {

  00000	55		 push	 ebp
  00001	8b ec		 mov	 ebp, esp
  00003	6a ff		 push	 -1
  00005	68 00 00 00 00	 push	 __ehhandler$?GetLogic@CLogicEditCtrl@@QAE?AV?$CStringT@DV?$StrTraitMFC_DLL@DV?$ChTraitsCRT@D@ATL@@@@@ATL@@XZ
  0000a	64 a1 00 00 00
	00		 mov	 eax, DWORD PTR fs:0
  00010	50		 push	 eax
  00011	83 ec 24	 sub	 esp, 36			; 00000024H
  00014	53		 push	 ebx
  00015	56		 push	 esi
  00016	57		 push	 edi
  00017	a1 00 00 00 00	 mov	 eax, DWORD PTR ___security_cookie
  0001c	33 c5		 xor	 eax, ebp
  0001e	50		 push	 eax
  0001f	8d 45 f4	 lea	 eax, DWORD PTR __$EHRec$[ebp]
  00022	64 a3 00 00 00
	00		 mov	 DWORD PTR fs:0, eax
  00028	8b f1		 mov	 esi, ecx
  0002a	89 75 e4	 mov	 DWORD PTR _this$1$[ebp], esi

; 577  : 	CString strLogic;

  0002d	8d 4d f0	 lea	 ecx, DWORD PTR _strLogic$[ebp]
  00030	c7 45 ec 00 00
	00 00		 mov	 DWORD PTR $T2[ebp], 0
  00037	ff 15 00 00 00
	00		 call	 DWORD PTR __imp_??0?$CStringT@DV?$StrTraitMFC_DLL@DV?$ChTraitsCRT@D@ATL@@@@@ATL@@QAE@XZ

; 578  : 	CString strAllLogic;

  0003d	8b 4d 08	 mov	 ecx, DWORD PTR ___$ReturnUdt$[ebp]
  00040	c7 45 fc 01 00
	00 00		 mov	 DWORD PTR __$EHRec$[ebp+8], 1
  00047	ff 15 00 00 00
	00		 call	 DWORD PTR __imp_??0?$CStringT@DV?$StrTraitMFC_DLL@DV?$ChTraitsCRT@D@ATL@@@@@ATL@@QAE@XZ
; File D:\git\src\IBK\IBK_DRFN\ProjSrc\SrcDrfn\Chart\HWSTRATEGYCONFIGUREWIZARD\Control\LogicEditCtrl.h

; 17   : 	CElementInLogic() 

  0004d	8d 4d d4	 lea	 ecx, DWORD PTR _Element$[ebp+4]
; File D:\git\src\IBK\IBK_DRFN\ProjSrc\SrcDrfn\Chart\HWSTRATEGYCONFIGUREWIZARD\Control\LogicEditCtrl.cpp

; 620  : 	return strAllLogic;

  00050	c7 45 ec 01 00
	00 00		 mov	 DWORD PTR $T2[ebp], 1
; File D:\git\src\IBK\IBK_DRFN\ProjSrc\SrcDrfn\Chart\HWSTRATEGYCONFIGUREWIZARD\Control\LogicEditCtrl.h

; 17   : 	CElementInLogic() 

  00057	ff 15 00 00 00
	00		 call	 DWORD PTR __imp_??0?$CStringT@DV?$StrTraitMFC_DLL@DV?$ChTraitsCRT@D@ATL@@@@@ATL@@QAE@XZ

; 27   : 		m_strValue = "";

  0005d	68 00 00 00 00	 push	 OFFSET ??_C@_00CNPNBAHC@@
  00062	8d 4d d4	 lea	 ecx, DWORD PTR _Element$[ebp+4]

; 17   : 	CElementInLogic() 

  00065	c6 45 fc 02	 mov	 BYTE PTR __$EHRec$[ebp+8], 2

; 23   : 		m_nType = 0;

  00069	c7 45 d0 00 00
	00 00		 mov	 DWORD PTR _Element$[ebp], 0

; 24   : 		m_bTRUE = TRUE;

  00070	c7 45 d8 01 00
	00 00		 mov	 DWORD PTR _Element$[ebp+8], 1

; 25   : 		m_nStartChar = 0;

  00077	c7 45 dc 00 00
	00 00		 mov	 DWORD PTR _Element$[ebp+12], 0

; 26   : 		m_nEndChar = 0;

  0007e	c7 45 e0 00 00
	00 00		 mov	 DWORD PTR _Element$[ebp+16], 0

; 27   : 		m_strValue = "";

  00085	ff 15 00 00 00
	00		 call	 DWORD PTR __imp_??4?$CStringT@DV?$StrTraitMFC_DLL@DV?$ChTraitsCRT@D@ATL@@@@@ATL@@QAEAAV01@PBD@Z
; File D:\git\src\IBK\IBK_DRFN\ProjSrc\SrcDrfn\Chart\HWSTRATEGYCONFIGUREWIZARD\Control\LogicEditCtrl.cpp

; 581  : 	int nSize = m_arrayElement.GetSize();

  0008b	8b 86 88 00 00
	00		 mov	 eax, DWORD PTR [esi+136]

; 582  : 	for(int nPos=0;nPos<nSize;nPos++)

  00091	33 ff		 xor	 edi, edi
  00093	c6 45 fc 03	 mov	 BYTE PTR __$EHRec$[ebp+8], 3
  00097	89 45 e8	 mov	 DWORD PTR _nSize$1$[ebp], eax
  0009a	85 c0		 test	 eax, eax
  0009c	0f 8e c9 00 00
	00		 jle	 $LN3@GetLogic

; 577  : 	CString strLogic;

  000a2	33 db		 xor	 ebx, ebx
$LL4@GetLogic:
; File C:\Program Files (x86)\Microsoft Visual Studio\2019\Community\VC\Tools\MSVC\14.29.30133\atlmfc\include\afxtempl.h

; 288  : 	if(nIndex >= 0 && nIndex < m_nSize)

  000a4	85 db		 test	 ebx, ebx
  000a6	0f 88 e8 00 00
	00		 js	 $LN27@GetLogic
  000ac	3b be 88 00 00
	00		 cmp	 edi, DWORD PTR [esi+136]
  000b2	0f 8d dc 00 00
	00		 jge	 $LN27@GetLogic

; 289  : 		return m_pData[nIndex];

  000b8	8b b6 84 00 00
	00		 mov	 esi, DWORD PTR [esi+132]
  000be	8d 4d d4	 lea	 ecx, DWORD PTR _Element$[ebp+4]
  000c1	03 f3		 add	 esi, ebx
  000c3	8b 06		 mov	 eax, DWORD PTR [esi]
  000c5	89 45 d0	 mov	 DWORD PTR _Element$[ebp], eax
  000c8	8d 46 04	 lea	 eax, DWORD PTR [esi+4]
  000cb	50		 push	 eax
  000cc	ff 15 00 00 00
	00		 call	 DWORD PTR __imp_??4?$CStringT@DV?$StrTraitMFC_DLL@DV?$ChTraitsCRT@D@ATL@@@@@ATL@@QAEAAV01@ABV01@@Z
  000d2	8b 46 08	 mov	 eax, DWORD PTR [esi+8]
  000d5	89 45 d8	 mov	 DWORD PTR _Element$[ebp+8], eax
  000d8	8b 4e 0c	 mov	 ecx, DWORD PTR [esi+12]
  000db	89 4d dc	 mov	 DWORD PTR _Element$[ebp+12], ecx
  000de	8b 4e 10	 mov	 ecx, DWORD PTR [esi+16]
  000e1	89 4d e0	 mov	 DWORD PTR _Element$[ebp+16], ecx
; File D:\git\src\IBK\IBK_DRFN\ProjSrc\SrcDrfn\Chart\HWSTRATEGYCONFIGUREWIZARD\Control\LogicEditCtrl.cpp

; 586  : 		switch(Element.m_nType)

  000e4	8b 4d d0	 mov	 ecx, DWORD PTR _Element$[ebp]
  000e7	83 e9 02	 sub	 ecx, 2
  000ea	74 1b		 je	 SHORT $LN7@GetLogic
  000ec	83 e9 01	 sub	 ecx, 1
  000ef	75 47		 jne	 SHORT $LN10@GetLogic
; File C:\Program Files (x86)\Microsoft Visual Studio\2019\Community\VC\Tools\MSVC\14.29.30133\atlmfc\include\cstringt.h

; 2486 : 		return(str1.Compare(psz2) == 0);

  000f1	68 00 00 00 00	 push	 OFFSET ??_C@_01ODHLEDKK@?$CI@
  000f6	8d 4d d4	 lea	 ecx, DWORD PTR _Element$[ebp+4]
  000f9	ff 15 00 00 00
	00		 call	 DWORD PTR __imp_?Compare@?$CStringT@DV?$StrTraitMFC_DLL@DV?$ChTraitsCRT@D@ATL@@@@@ATL@@QBEHPBD@Z
; File D:\git\src\IBK\IBK_DRFN\ProjSrc\SrcDrfn\Chart\HWSTRATEGYCONFIGUREWIZARD\Control\LogicEditCtrl.cpp

; 603  : 			if(Element.m_strValue==STROPENPARENTHESISINLOGIC)

  000ff	f7 d8		 neg	 eax
  00101	1b c0		 sbb	 eax, eax
  00103	f7 d8		 neg	 eax

; 604  : 			{
; 605  : 				nValue = OPENPARENTHESISINLOGIC;
; 606  : 			}
; 607  : 			else	// STRCLOSEPARENTHESISINLOGIC
; 608  : 			{
; 609  : 				nValue = CLOSEPARENTHESISINLOGIC;
; 610  : 			}
; 611  : 			break;

  00105	eb 31		 jmp	 SHORT $LN10@GetLogic
$LN7@GetLogic:
; File C:\Program Files (x86)\Microsoft Visual Studio\2019\Community\VC\Tools\MSVC\14.29.30133\atlmfc\include\cstringt.h

; 2486 : 		return(str1.Compare(psz2) == 0);

  00107	68 00 00 00 00	 push	 OFFSET ??_C@_02FODMLBIE@or@
  0010c	8d 4d d4	 lea	 ecx, DWORD PTR _Element$[ebp+4]
  0010f	ff 15 00 00 00
	00		 call	 DWORD PTR __imp_?Compare@?$CStringT@DV?$StrTraitMFC_DLL@DV?$ChTraitsCRT@D@ATL@@@@@ATL@@QBEHPBD@Z
  00115	85 c0		 test	 eax, eax
; File D:\git\src\IBK\IBK_DRFN\ProjSrc\SrcDrfn\Chart\HWSTRATEGYCONFIGUREWIZARD\Control\LogicEditCtrl.cpp

; 589  : 			if(Element.m_strValue==STRORINLOGIC)

  00117	75 07		 jne	 SHORT $LN8@GetLogic

; 590  : 			{
; 591  : 				nValue = ORINLOGIC;

  00119	b8 01 00 00 00	 mov	 eax, 1

; 592  : 			}

  0011e	eb 18		 jmp	 SHORT $LN10@GetLogic
$LN8@GetLogic:
; File C:\Program Files (x86)\Microsoft Visual Studio\2019\Community\VC\Tools\MSVC\14.29.30133\atlmfc\include\cstringt.h

; 2486 : 		return(str1.Compare(psz2) == 0);

  00120	68 00 00 00 00	 push	 OFFSET ??_C@_04CJGEDOF@next@
  00125	8d 4d d4	 lea	 ecx, DWORD PTR _Element$[ebp+4]
  00128	ff 15 00 00 00
	00		 call	 DWORD PTR __imp_?Compare@?$CStringT@DV?$StrTraitMFC_DLL@DV?$ChTraitsCRT@D@ATL@@@@@ATL@@QBEHPBD@Z
; File D:\git\src\IBK\IBK_DRFN\ProjSrc\SrcDrfn\Chart\HWSTRATEGYCONFIGUREWIZARD\Control\LogicEditCtrl.cpp

; 593  : 			else if(Element.m_strValue==STRNEXTINLOGIC)

  0012e	f7 d8		 neg	 eax
  00130	1b c0		 sbb	 eax, eax
  00132	83 e0 fe	 and	 eax, -2			; fffffffeH
  00135	83 c0 02	 add	 eax, 2
$LN10@GetLogic:

; 612  : 		default: //ELEMENTINLOGIC
; 613  : 			nValue = Element.m_bTRUE;
; 614  : 			break;
; 615  : 		}
; 616  : 		strLogic.Format("%d%d",Element.m_nType,nValue);		

  00138	50		 push	 eax
  00139	ff 75 d0	 push	 DWORD PTR _Element$[ebp]
  0013c	8d 45 f0	 lea	 eax, DWORD PTR _strLogic$[ebp]
  0013f	68 00 00 00 00	 push	 OFFSET ??_C@_04LLKPOCGK@?$CFd?$CFd@
  00144	50		 push	 eax
  00145	ff 15 00 00 00
	00		 call	 DWORD PTR __imp_?Format@?$CStringT@DV?$StrTraitMFC_DLL@DV?$ChTraitsCRT@D@ATL@@@@@ATL@@QAAXPBDZZ

; 617  : 
; 618  : 		strAllLogic += strLogic;

  0014b	8b 4d 08	 mov	 ecx, DWORD PTR ___$ReturnUdt$[ebp]
  0014e	8d 45 f0	 lea	 eax, DWORD PTR _strLogic$[ebp]
  00151	83 c4 10	 add	 esp, 16			; 00000010H
  00154	50		 push	 eax
  00155	ff 15 00 00 00
	00		 call	 DWORD PTR __imp_??Y?$CStringT@DV?$StrTraitMFC_DLL@DV?$ChTraitsCRT@D@ATL@@@@@ATL@@QAEAAV01@ABV?$CSimpleStringT@D$00@1@@Z
  0015b	8b 75 e4	 mov	 esi, DWORD PTR _this$1$[ebp]
  0015e	47		 inc	 edi
  0015f	83 c3 14	 add	 ebx, 20			; 00000014H
  00162	3b 7d e8	 cmp	 edi, DWORD PTR _nSize$1$[ebp]
  00165	0f 8c 39 ff ff
	ff		 jl	 $LL4@GetLogic
$LN3@GetLogic:
  0016b	8d 4d d4	 lea	 ecx, DWORD PTR _Element$[ebp+4]
  0016e	ff 15 00 00 00
	00		 call	 DWORD PTR __imp_??1?$CStringT@DV?$StrTraitMFC_DLL@DV?$ChTraitsCRT@D@ATL@@@@@ATL@@QAE@XZ

; 620  : 	return strAllLogic;

  00174	8d 4d f0	 lea	 ecx, DWORD PTR _strLogic$[ebp]
  00177	ff 15 00 00 00
	00		 call	 DWORD PTR __imp_??1?$CStringT@DV?$StrTraitMFC_DLL@DV?$ChTraitsCRT@D@ATL@@@@@ATL@@QAE@XZ
  0017d	8b 45 08	 mov	 eax, DWORD PTR ___$ReturnUdt$[ebp]

; 621  : }

  00180	8b 4d f4	 mov	 ecx, DWORD PTR __$EHRec$[ebp]
  00183	64 89 0d 00 00
	00 00		 mov	 DWORD PTR fs:0, ecx
  0018a	59		 pop	 ecx
  0018b	5f		 pop	 edi
  0018c	5e		 pop	 esi
  0018d	5b		 pop	 ebx
  0018e	8b e5		 mov	 esp, ebp
  00190	5d		 pop	 ebp
  00191	c2 04 00	 ret	 4
$LN27@GetLogic:
; File C:\Program Files (x86)\Microsoft Visual Studio\2019\Community\VC\Tools\MSVC\14.29.30133\atlmfc\include\afxtempl.h

; 290  : 	AfxThrowInvalidArgException();

  00194	e8 00 00 00 00	 call	 ?AfxThrowInvalidArgException@@YGXXZ ; AfxThrowInvalidArgException
$LN46@GetLogic:
  00199	cc		 int	 3
_TEXT	ENDS
;	COMDAT text$x
text$x	SEGMENT
__unwindfunclet$?GetLogic@CLogicEditCtrl@@QAE?AV?$CStringT@DV?$StrTraitMFC_DLL@DV?$ChTraitsCRT@D@ATL@@@@@ATL@@XZ$0:
  00000	8d 4d f0	 lea	 ecx, DWORD PTR _strLogic$[ebp]
  00003	ff 25 00 00 00
	00		 jmp	 DWORD PTR __imp_??1?$CStringT@DV?$StrTraitMFC_DLL@DV?$ChTraitsCRT@D@ATL@@@@@ATL@@QAE@XZ
__unwindfunclet$?GetLogic@CLogicEditCtrl@@QAE?AV?$CStringT@DV?$StrTraitMFC_DLL@DV?$ChTraitsCRT@D@ATL@@@@@ATL@@XZ$1:
  00009	8b 45 ec	 mov	 eax, DWORD PTR $T2[ebp]
  0000c	83 e0 01	 and	 eax, 1
  0000f	0f 84 0d 00 00
	00		 je	 $LN19@GetLogic
  00015	83 65 ec fe	 and	 DWORD PTR $T2[ebp], -2	; fffffffeH
  00019	8b 4d 08	 mov	 ecx, DWORD PTR ___$ReturnUdt$[ebp]
  0001c	ff 25 00 00 00
	00		 jmp	 DWORD PTR __imp_??1?$CStringT@DV?$StrTraitMFC_DLL@DV?$ChTraitsCRT@D@ATL@@@@@ATL@@QAE@XZ
$LN19@GetLogic:
  00022	c3		 ret	 0
__unwindfunclet$?GetLogic@CLogicEditCtrl@@QAE?AV?$CStringT@DV?$StrTraitMFC_DLL@DV?$ChTraitsCRT@D@ATL@@@@@ATL@@XZ$3:
  00023	8d 4d d4	 lea	 ecx, DWORD PTR _Element$[ebp+4]
  00026	ff 25 00 00 00
	00		 jmp	 DWORD PTR __imp_??1?$CStringT@DV?$StrTraitMFC_DLL@DV?$ChTraitsCRT@D@ATL@@@@@ATL@@QAE@XZ
__unwindfunclet$?GetLogic@CLogicEditCtrl@@QAE?AV?$CStringT@DV?$StrTraitMFC_DLL@DV?$ChTraitsCRT@D@ATL@@@@@ATL@@XZ$2:
  0002c	8d 4d d0	 lea	 ecx, DWORD PTR _Element$[ebp]
  0002f	e9 00 00 00 00	 jmp	 ??1CElementInLogic@@QAE@XZ
  00034	cc		 int	 3
  00035	cc		 int	 3
  00036	cc		 int	 3
  00037	cc		 int	 3
  00038	cc		 int	 3
__ehhandler$?GetLogic@CLogicEditCtrl@@QAE?AV?$CStringT@DV?$StrTraitMFC_DLL@DV?$ChTraitsCRT@D@ATL@@@@@ATL@@XZ:
  00039	90		 npad	 1
  0003a	90		 npad	 1
  0003b	8b 54 24 08	 mov	 edx, DWORD PTR [esp+8]
  0003f	8d 42 0c	 lea	 eax, DWORD PTR [edx+12]
  00042	8b 4a cc	 mov	 ecx, DWORD PTR [edx-52]
  00045	33 c8		 xor	 ecx, eax
  00047	e8 00 00 00 00	 call	 @__security_check_cookie@4
  0004c	b8 00 00 00 00	 mov	 eax, OFFSET __ehfuncinfo$?GetLogic@CLogicEditCtrl@@QAE?AV?$CStringT@DV?$StrTraitMFC_DLL@DV?$ChTraitsCRT@D@ATL@@@@@ATL@@XZ
  00051	e9 00 00 00 00	 jmp	 ___CxxFrameHandler3
text$x	ENDS
?GetLogic@CLogicEditCtrl@@QAE?AV?$CStringT@DV?$StrTraitMFC_DLL@DV?$ChTraitsCRT@D@ATL@@@@@ATL@@XZ ENDP ; CLogicEditCtrl::GetLogic
; Function compile flags: /Ogtp
; File D:\git\src\IBK\IBK_DRFN\ProjSrc\SrcDrfn\Chart\HWSTRATEGYCONFIGUREWIZARD\Control\LogicEditCtrl.cpp
; File C:\Program Files (x86)\Microsoft Visual Studio\2019\Community\VC\Tools\MSVC\14.29.30133\atlmfc\include\afxtempl.h
; File D:\git\src\IBK\IBK_DRFN\ProjSrc\SrcDrfn\Chart\HWSTRATEGYCONFIGUREWIZARD\Control\LogicEditCtrl.cpp
; File C:\Program Files (x86)\Microsoft Visual Studio\2019\Community\VC\Tools\MSVC\14.29.30133\atlmfc\include\afxtempl.h
; File D:\git\src\IBK\IBK_DRFN\ProjSrc\SrcDrfn\Chart\HWSTRATEGYCONFIGUREWIZARD\Control\LogicEditCtrl.cpp
;	COMDAT ?DeleteAllElement@CLogicEditCtrl@@QAEXXZ
_TEXT	SEGMENT
__$EHRec$ = -12						; size = 12
?DeleteAllElement@CLogicEditCtrl@@QAEXXZ PROC		; CLogicEditCtrl::DeleteAllElement, COMDAT
; _this$ = ecx

; 441  : {

  00000	55		 push	 ebp
  00001	8b ec		 mov	 ebp, esp
  00003	6a ff		 push	 -1
  00005	68 00 00 00 00	 push	 __ehhandler$?DeleteAllElement@CLogicEditCtrl@@QAEXXZ
  0000a	64 a1 00 00 00
	00		 mov	 eax, DWORD PTR fs:0
  00010	50		 push	 eax
  00011	53		 push	 ebx
  00012	56		 push	 esi
  00013	57		 push	 edi
  00014	a1 00 00 00 00	 mov	 eax, DWORD PTR ___security_cookie
  00019	33 c5		 xor	 eax, ebp
  0001b	50		 push	 eax
  0001c	8d 45 f4	 lea	 eax, DWORD PTR __$EHRec$[ebp]
  0001f	64 a3 00 00 00
	00		 mov	 DWORD PTR fs:0, eax
  00025	8b f1		 mov	 esi, ecx

; 442  : 	m_chLastElement = NULL;

  00027	c6 86 9c 00 00
	00 00		 mov	 BYTE PTR [esi+156], 0
; File C:\Program Files (x86)\Microsoft Visual Studio\2019\Community\VC\Tools\MSVC\14.29.30133\atlmfc\include\afxtempl.h

; 381  : 		if (m_pData != NULL)

  0002e	8b 86 84 00 00
	00		 mov	 eax, DWORD PTR [esi+132]
  00034	85 c0		 test	 eax, eax
  00036	74 42		 je	 SHORT $LN25@DeleteAllE

; 382  : 		{
; 383  : 			for( int i = 0; i < m_nSize; i++ )

  00038	33 db		 xor	 ebx, ebx
  0003a	39 9e 88 00 00
	00		 cmp	 DWORD PTR [esi+136], ebx
  00040	7e 25		 jle	 SHORT $LN7@DeleteAllE
  00042	33 ff		 xor	 edi, edi
$LL8@DeleteAllE:

; 384  : 				(m_pData + i)->~TYPE();

  00044	8b 8e 84 00 00
	00		 mov	 ecx, DWORD PTR [esi+132]
  0004a	83 c1 04	 add	 ecx, 4
  0004d	03 cf		 add	 ecx, edi
  0004f	ff 15 00 00 00
	00		 call	 DWORD PTR __imp_??1?$CStringT@DV?$StrTraitMFC_DLL@DV?$ChTraitsCRT@D@ATL@@@@@ATL@@QAE@XZ

; 382  : 		{
; 383  : 			for( int i = 0; i < m_nSize; i++ )

  00055	43		 inc	 ebx
  00056	83 c7 14	 add	 edi, 20			; 00000014H
  00059	3b 9e 88 00 00
	00		 cmp	 ebx, DWORD PTR [esi+136]
  0005f	7c e3		 jl	 SHORT $LL8@DeleteAllE
  00061	8b 86 84 00 00
	00		 mov	 eax, DWORD PTR [esi+132]
$LN7@DeleteAllE:

; 385  : 			delete[] (BYTE*)m_pData;

  00067	50		 push	 eax
  00068	e8 00 00 00 00	 call	 ??_V@YAXPAX@Z		; operator delete[]
  0006d	83 c4 04	 add	 esp, 4

; 386  : 			m_pData = NULL;

  00070	c7 86 84 00 00
	00 00 00 00 00	 mov	 DWORD PTR [esi+132], 0
$LN25@DeleteAllE:

; 388  : 		m_nSize = m_nMaxSize = 0;

  0007a	c7 86 8c 00 00
	00 00 00 00 00	 mov	 DWORD PTR [esi+140], 0
; File D:\git\src\IBK\IBK_DRFN\ProjSrc\SrcDrfn\Chart\HWSTRATEGYCONFIGUREWIZARD\Control\LogicEditCtrl.cpp

; 446  : 	UpdateLogic();

  00084	8b ce		 mov	 ecx, esi
; File C:\Program Files (x86)\Microsoft Visual Studio\2019\Community\VC\Tools\MSVC\14.29.30133\atlmfc\include\afxtempl.h

; 388  : 		m_nSize = m_nMaxSize = 0;

  00086	c7 86 88 00 00
	00 00 00 00 00	 mov	 DWORD PTR [esi+136], 0
; File D:\git\src\IBK\IBK_DRFN\ProjSrc\SrcDrfn\Chart\HWSTRATEGYCONFIGUREWIZARD\Control\LogicEditCtrl.cpp

; 444  : 	m_nBeginSelected = -1;

  00090	c7 86 a0 00 00
	00 ff ff ff ff	 mov	 DWORD PTR [esi+160], -1

; 445  : 	m_nEndSelected = -1;

  0009a	c7 86 a4 00 00
	00 ff ff ff ff	 mov	 DWORD PTR [esi+164], -1

; 446  : 	UpdateLogic();

  000a4	e8 00 00 00 00	 call	 ?UpdateLogic@CLogicEditCtrl@@AAEXXZ ; CLogicEditCtrl::UpdateLogic

; 447  : }

  000a9	8b 4d f4	 mov	 ecx, DWORD PTR __$EHRec$[ebp]
  000ac	64 89 0d 00 00
	00 00		 mov	 DWORD PTR fs:0, ecx
  000b3	59		 pop	 ecx
  000b4	5f		 pop	 edi
  000b5	5e		 pop	 esi
  000b6	5b		 pop	 ebx
  000b7	8b e5		 mov	 esp, ebp
  000b9	5d		 pop	 ebp
  000ba	c3		 ret	 0
  000bb	cc		 int	 3
  000bc	cc		 int	 3
  000bd	cc		 int	 3
  000be	cc		 int	 3
  000bf	cc		 int	 3
_TEXT	ENDS
;	COMDAT text$x
text$x	SEGMENT
__ehhandler$?DeleteAllElement@CLogicEditCtrl@@QAEXXZ:
  00000	90		 npad	 1
  00001	90		 npad	 1
  00002	8b 54 24 08	 mov	 edx, DWORD PTR [esp+8]
  00006	8d 42 0c	 lea	 eax, DWORD PTR [edx+12]
  00009	8b 4a f0	 mov	 ecx, DWORD PTR [edx-16]
  0000c	33 c8		 xor	 ecx, eax
  0000e	e8 00 00 00 00	 call	 @__security_check_cookie@4
  00013	b8 00 00 00 00	 mov	 eax, OFFSET __ehfuncinfo$?DeleteAllElement@CLogicEditCtrl@@QAEXXZ
  00018	e9 00 00 00 00	 jmp	 ___CxxFrameHandler3
text$x	ENDS
?DeleteAllElement@CLogicEditCtrl@@QAEXXZ ENDP		; CLogicEditCtrl::DeleteAllElement
; Function compile flags: /Ogtp
; File D:\git\src\IBK\IBK_DRFN\ProjSrc\SrcDrfn\Chart\HWSTRATEGYCONFIGUREWIZARD\Control\LogicEditCtrl.cpp
; File D:\git\src\IBK\IBK_DRFN\ProjSrc\SrcDrfn\Chart\HWSTRATEGYCONFIGUREWIZARD\Control\LogicEditCtrl.h
; File D:\git\src\IBK\IBK_DRFN\ProjSrc\SrcDrfn\Chart\HWSTRATEGYCONFIGUREWIZARD\Control\LogicEditCtrl.cpp
; File C:\Program Files (x86)\Microsoft Visual Studio\2019\Community\VC\Tools\MSVC\14.29.30133\atlmfc\include\afxtempl.h
; File D:\git\src\IBK\IBK_DRFN\ProjSrc\SrcDrfn\Chart\HWSTRATEGYCONFIGUREWIZARD\Control\LogicEditCtrl.cpp
; File C:\Program Files (x86)\Microsoft Visual Studio\2019\Community\VC\Tools\MSVC\14.29.30133\atlmfc\include\cstringt.h
; File D:\git\src\IBK\IBK_DRFN\ProjSrc\SrcDrfn\Chart\HWSTRATEGYCONFIGUREWIZARD\Control\LogicEditCtrl.cpp
; File C:\Program Files (x86)\Microsoft Visual Studio\2019\Community\VC\Tools\MSVC\14.29.30133\atlmfc\include\cstringt.h
; File D:\git\src\IBK\IBK_DRFN\ProjSrc\SrcDrfn\Chart\HWSTRATEGYCONFIGUREWIZARD\Control\LogicEditCtrl.cpp
; File C:\Program Files (x86)\Microsoft Visual Studio\2019\Community\VC\Tools\MSVC\14.29.30133\atlmfc\include\cstringt.h
; File D:\git\src\IBK\IBK_DRFN\ProjSrc\SrcDrfn\Chart\HWSTRATEGYCONFIGUREWIZARD\Control\LogicEditCtrl.cpp
; File C:\Program Files (x86)\Microsoft Visual Studio\2019\Community\VC\Tools\MSVC\14.29.30133\atlmfc\include\cstringt.h
; File D:\git\src\IBK\IBK_DRFN\ProjSrc\SrcDrfn\Chart\HWSTRATEGYCONFIGUREWIZARD\Control\LogicEditCtrl.cpp
; File C:\Program Files (x86)\Microsoft Visual Studio\2019\Community\VC\Tools\MSVC\14.29.30133\atlmfc\include\afxtempl.h
; File D:\git\src\IBK\IBK_DRFN\ProjSrc\SrcDrfn\Chart\HWSTRATEGYCONFIGUREWIZARD\Control\LogicEditCtrl.cpp
;	COMDAT ?Unparenthesize@CLogicEditCtrl@@QAEXXZ
_TEXT	SEGMENT
_Element$ = -60						; size = 20
_nSize$1$ = -40						; size = 4
_this$1$ = -36						; size = 4
tv326 = -32						; size = 4
_nEndChar$ = -28					; size = 4
_nStartChar$ = -24					; size = 4
_nEndPosParenthesize$1$ = -20				; size = 4
_nBeginPosParenthesize$1$ = -16				; size = 4
__$EHRec$ = -12						; size = 12
?Unparenthesize@CLogicEditCtrl@@QAEXXZ PROC		; CLogicEditCtrl::Unparenthesize, COMDAT
; _this$ = ecx

; 328  : {

  00000	55		 push	 ebp
  00001	8b ec		 mov	 ebp, esp
  00003	6a ff		 push	 -1
  00005	68 00 00 00 00	 push	 __ehhandler$?Unparenthesize@CLogicEditCtrl@@QAEXXZ
  0000a	64 a1 00 00 00
	00		 mov	 eax, DWORD PTR fs:0
  00010	50		 push	 eax
  00011	83 ec 30	 sub	 esp, 48			; 00000030H
  00014	53		 push	 ebx
  00015	56		 push	 esi
  00016	57		 push	 edi
  00017	a1 00 00 00 00	 mov	 eax, DWORD PTR ___security_cookie
  0001c	33 c5		 xor	 eax, ebp
  0001e	50		 push	 eax
  0001f	8d 45 f4	 lea	 eax, DWORD PTR __$EHRec$[ebp]
  00022	64 a3 00 00 00
	00		 mov	 DWORD PTR fs:0, eax
  00028	8b f1		 mov	 esi, ecx
  0002a	89 75 dc	 mov	 DWORD PTR _this$1$[ebp], esi

; 331  : 	GetSel(nStartChar,nEndChar);

  0002d	8d 45 e4	 lea	 eax, DWORD PTR _nEndChar$[ebp]
  00030	c7 45 e8 00 00
	00 00		 mov	 DWORD PTR _nStartChar$[ebp], 0
  00037	50		 push	 eax
  00038	8d 45 e8	 lea	 eax, DWORD PTR _nStartChar$[ebp]
  0003b	c7 45 e4 00 00
	00 00		 mov	 DWORD PTR _nEndChar$[ebp], 0
  00042	50		 push	 eax
  00043	e8 00 00 00 00	 call	 ?GetSel@CRichEditCtrl@@QBEXAAJ0@Z ; CRichEditCtrl::GetSel
; File D:\git\src\IBK\IBK_DRFN\ProjSrc\SrcDrfn\Chart\HWSTRATEGYCONFIGUREWIZARD\Control\LogicEditCtrl.h

; 17   : 	CElementInLogic() 

  00048	8d 4d c8	 lea	 ecx, DWORD PTR _Element$[ebp+4]
  0004b	ff 15 00 00 00
	00		 call	 DWORD PTR __imp_??0?$CStringT@DV?$StrTraitMFC_DLL@DV?$ChTraitsCRT@D@ATL@@@@@ATL@@QAE@XZ

; 27   : 		m_strValue = "";

  00051	68 00 00 00 00	 push	 OFFSET ??_C@_00CNPNBAHC@@
  00056	8d 4d c8	 lea	 ecx, DWORD PTR _Element$[ebp+4]

; 17   : 	CElementInLogic() 

  00059	c7 45 fc 00 00
	00 00		 mov	 DWORD PTR __$EHRec$[ebp+8], 0

; 23   : 		m_nType = 0;

  00060	c7 45 c4 00 00
	00 00		 mov	 DWORD PTR _Element$[ebp], 0

; 24   : 		m_bTRUE = TRUE;

  00067	c7 45 cc 01 00
	00 00		 mov	 DWORD PTR _Element$[ebp+8], 1

; 25   : 		m_nStartChar = 0;

  0006e	c7 45 d0 00 00
	00 00		 mov	 DWORD PTR _Element$[ebp+12], 0

; 26   : 		m_nEndChar = 0;

  00075	c7 45 d4 00 00
	00 00		 mov	 DWORD PTR _Element$[ebp+16], 0

; 27   : 		m_strValue = "";

  0007c	ff 15 00 00 00
	00		 call	 DWORD PTR __imp_??4?$CStringT@DV?$StrTraitMFC_DLL@DV?$ChTraitsCRT@D@ATL@@@@@ATL@@QAEAAV01@PBD@Z
; File D:\git\src\IBK\IBK_DRFN\ProjSrc\SrcDrfn\Chart\HWSTRATEGYCONFIGUREWIZARD\Control\LogicEditCtrl.cpp

; 333  : 	int nSize = m_arrayElement.GetSize();

  00082	8b 8e 88 00 00
	00		 mov	 ecx, DWORD PTR [esi+136]

; 334  : 	int nBeginPosParenthesize = -1;

  00088	83 cb ff	 or	 ebx, -1

; 335  : 	int nEndPosParenthesize = -1;

  0008b	0b c3		 or	 eax, ebx
  0008d	89 5d f0	 mov	 DWORD PTR _nBeginPosParenthesize$1$[ebp], ebx

; 336  : 	int nCntStackedOfParenthesis = 0;

  00090	33 ff		 xor	 edi, edi
  00092	c7 45 fc 01 00
	00 00		 mov	 DWORD PTR __$EHRec$[ebp+8], 1

; 337  : 	for(int nPos=0;nPos<nSize;nPos++)

  00099	33 db		 xor	 ebx, ebx
  0009b	89 4d d8	 mov	 DWORD PTR _nSize$1$[ebp], ecx
  0009e	89 45 ec	 mov	 DWORD PTR _nEndPosParenthesize$1$[ebp], eax
  000a1	85 c9		 test	 ecx, ecx
  000a3	0f 8e f2 00 00
	00		 jle	 $LN14@Unparenthe

; 329  : 	long nStartChar = 0;
; 330  : 	long nEndChar = 0;

  000a9	33 c9		 xor	 ecx, ecx
  000ab	89 4d e0	 mov	 DWORD PTR tv326[ebp], ecx
  000ae	66 90		 npad	 2
$LL4@Unparenthe:
; File C:\Program Files (x86)\Microsoft Visual Studio\2019\Community\VC\Tools\MSVC\14.29.30133\atlmfc\include\afxtempl.h

; 288  : 	if(nIndex >= 0 && nIndex < m_nSize)

  000b0	85 c9		 test	 ecx, ecx
  000b2	0f 88 40 01 00
	00		 js	 $LN23@Unparenthe
  000b8	3b 9e 88 00 00
	00		 cmp	 ebx, DWORD PTR [esi+136]
  000be	0f 8d 34 01 00
	00		 jge	 $LN23@Unparenthe

; 289  : 		return m_pData[nIndex];

  000c4	8b b6 84 00 00
	00		 mov	 esi, DWORD PTR [esi+132]
  000ca	03 f1		 add	 esi, ecx
  000cc	8d 4d c8	 lea	 ecx, DWORD PTR _Element$[ebp+4]
  000cf	8b 06		 mov	 eax, DWORD PTR [esi]
  000d1	89 45 c4	 mov	 DWORD PTR _Element$[ebp], eax
  000d4	8d 46 04	 lea	 eax, DWORD PTR [esi+4]
  000d7	50		 push	 eax
  000d8	ff 15 00 00 00
	00		 call	 DWORD PTR __imp_??4?$CStringT@DV?$StrTraitMFC_DLL@DV?$ChTraitsCRT@D@ATL@@@@@ATL@@QAEAAV01@ABV01@@Z
; File D:\git\src\IBK\IBK_DRFN\ProjSrc\SrcDrfn\Chart\HWSTRATEGYCONFIGUREWIZARD\Control\LogicEditCtrl.cpp

; 340  : 		if(nBeginPosParenthesize==-1&&Element.m_nStartChar>=nStartChar&&Element.m_nType==PARENTHESISINLOGIC)

  000de	83 7d f0 ff	 cmp	 DWORD PTR _nBeginPosParenthesize$1$[ebp], -1
  000e2	8b 46 08	 mov	 eax, DWORD PTR [esi+8]
  000e5	89 45 cc	 mov	 DWORD PTR _Element$[ebp+8], eax
  000e8	8b 46 0c	 mov	 eax, DWORD PTR [esi+12]
  000eb	89 45 d0	 mov	 DWORD PTR _Element$[ebp+12], eax
  000ee	8b 4e 10	 mov	 ecx, DWORD PTR [esi+16]
  000f1	89 4d d4	 mov	 DWORD PTR _Element$[ebp+16], ecx
  000f4	75 27		 jne	 SHORT $LN43@Unparenthe
  000f6	3b 45 e8	 cmp	 eax, DWORD PTR _nStartChar$[ebp]
  000f9	7c 40		 jl	 SHORT $LN49@Unparenthe
  000fb	83 7d c4 03	 cmp	 DWORD PTR _Element$[ebp], 3
  000ff	75 3a		 jne	 SHORT $LN49@Unparenthe
; File C:\Program Files (x86)\Microsoft Visual Studio\2019\Community\VC\Tools\MSVC\14.29.30133\atlmfc\include\cstringt.h

; 2486 : 		return(str1.Compare(psz2) == 0);

  00101	68 00 00 00 00	 push	 OFFSET ??_C@_01ODHLEDKK@?$CI@
  00106	8d 4d c8	 lea	 ecx, DWORD PTR _Element$[ebp+4]
  00109	ff 15 00 00 00
	00		 call	 DWORD PTR __imp_?Compare@?$CStringT@DV?$StrTraitMFC_DLL@DV?$ChTraitsCRT@D@ATL@@@@@ATL@@QBEHPBD@Z
  0010f	85 c0		 test	 eax, eax
; File D:\git\src\IBK\IBK_DRFN\ProjSrc\SrcDrfn\Chart\HWSTRATEGYCONFIGUREWIZARD\Control\LogicEditCtrl.cpp

; 342  : 			if(Element.m_strValue==STROPENPARENTHESISINLOGIC)

  00111	8b 45 ec	 mov	 eax, DWORD PTR _nEndPosParenthesize$1$[ebp]
  00114	75 28		 jne	 SHORT $LN52@Unparenthe

; 343  : 			{
; 344  : 				nBeginPosParenthesize = nPos;

  00116	8b d3		 mov	 edx, ebx
  00118	89 55 f0	 mov	 DWORD PTR _nBeginPosParenthesize$1$[ebp], edx

; 345  : 			}			
; 346  : 		}

  0011b	eb 24		 jmp	 SHORT $LN2@Unparenthe
$LN43@Unparenthe:

; 347  : 		else if(nBeginPosParenthesize!=-1&&Element.m_nEndChar<=nEndChar&&Element.m_nType==PARENTHESISINLOGIC)

  0011d	3b 4d e4	 cmp	 ecx, DWORD PTR _nEndChar$[ebp]
  00120	7f 19		 jg	 SHORT $LN49@Unparenthe
  00122	83 7d c4 03	 cmp	 DWORD PTR _Element$[ebp], 3
  00126	75 13		 jne	 SHORT $LN49@Unparenthe
; File C:\Program Files (x86)\Microsoft Visual Studio\2019\Community\VC\Tools\MSVC\14.29.30133\atlmfc\include\cstringt.h

; 2486 : 		return(str1.Compare(psz2) == 0);

  00128	68 00 00 00 00	 push	 OFFSET ??_C@_01ODHLEDKK@?$CI@
  0012d	8d 4d c8	 lea	 ecx, DWORD PTR _Element$[ebp+4]
  00130	ff 15 00 00 00
	00		 call	 DWORD PTR __imp_?Compare@?$CStringT@DV?$StrTraitMFC_DLL@DV?$ChTraitsCRT@D@ATL@@@@@ATL@@QBEHPBD@Z
  00136	85 c0		 test	 eax, eax
; File D:\git\src\IBK\IBK_DRFN\ProjSrc\SrcDrfn\Chart\HWSTRATEGYCONFIGUREWIZARD\Control\LogicEditCtrl.cpp

; 349  : 			if(Element.m_strValue==STROPENPARENTHESISINLOGIC)

  00138	75 7c		 jne	 SHORT $LN9@Unparenthe

; 350  : 			{
; 351  : 				nCntStackedOfParenthesis++;

  0013a	47		 inc	 edi
$LN49@Unparenthe:

; 337  : 	for(int nPos=0;nPos<nSize;nPos++)

  0013b	8b 45 ec	 mov	 eax, DWORD PTR _nEndPosParenthesize$1$[ebp]
$LN52@Unparenthe:
  0013e	8b 55 f0	 mov	 edx, DWORD PTR _nBeginPosParenthesize$1$[ebp]
$LN2@Unparenthe:
  00141	8b 4d e0	 mov	 ecx, DWORD PTR tv326[ebp]
  00144	43		 inc	 ebx
  00145	8b 75 dc	 mov	 esi, DWORD PTR _this$1$[ebp]
  00148	83 c1 14	 add	 ecx, 20			; 00000014H
  0014b	89 4d e0	 mov	 DWORD PTR tv326[ebp], ecx
  0014e	3b 5d d8	 cmp	 ebx, DWORD PTR _nSize$1$[ebp]
  00151	0f 8c 59 ff ff
	ff		 jl	 $LL4@Unparenthe

; 358  : 			{
; 359  : 				nEndPosParenthesize = nPos;
; 360  : 			}
; 361  : 		}
; 362  : 	}
; 363  : 	if(nBeginPosParenthesize!=-1&&nEndPosParenthesize!=-1)

  00157	83 fa ff	 cmp	 edx, -1
  0015a	74 3f		 je	 SHORT $LN14@Unparenthe
  0015c	83 f8 ff	 cmp	 eax, -1
  0015f	74 3a		 je	 SHORT $LN14@Unparenthe

; 364  : 	{
; 365  : 		m_arrayElement.RemoveAt(nEndPosParenthesize);

  00161	8b fe		 mov	 edi, esi
  00163	6a 01		 push	 1
  00165	50		 push	 eax
  00166	8d 8f 80 00 00
	00		 lea	 ecx, DWORD PTR [edi+128]
  0016c	e8 00 00 00 00	 call	 ?RemoveAt@?$CArray@VCElementInLogic@@AAV1@@@QAEXHH@Z ; CArray<CElementInLogic,CElementInLogic &>::RemoveAt

; 366  : 		m_arrayElement.RemoveAt(nBeginPosParenthesize);

  00171	8b 5d f0	 mov	 ebx, DWORD PTR _nBeginPosParenthesize$1$[ebp]
  00174	8d 8f 80 00 00
	00		 lea	 ecx, DWORD PTR [edi+128]
  0017a	6a 01		 push	 1
  0017c	53		 push	 ebx
  0017d	e8 00 00 00 00	 call	 ?RemoveAt@?$CArray@VCElementInLogic@@AAV1@@@QAEXHH@Z ; CArray<CElementInLogic,CElementInLogic &>::RemoveAt

; 367  : 
; 368  : 		m_nBeginSelected = nBeginPosParenthesize;
; 369  : 		m_nEndSelected = nEndPosParenthesize - 2;

  00182	8b 45 ec	 mov	 eax, DWORD PTR _nEndPosParenthesize$1$[ebp]

; 370  : 
; 371  : 		UpdateLogic();

  00185	8b cf		 mov	 ecx, edi
  00187	83 c0 fe	 add	 eax, -2			; fffffffeH
  0018a	89 9f a0 00 00
	00		 mov	 DWORD PTR [edi+160], ebx
  00190	89 87 a4 00 00
	00		 mov	 DWORD PTR [edi+164], eax
  00196	e8 00 00 00 00	 call	 ?UpdateLogic@CLogicEditCtrl@@AAEXXZ ; CLogicEditCtrl::UpdateLogic
$LN14@Unparenthe:
  0019b	8d 4d c8	 lea	 ecx, DWORD PTR _Element$[ebp+4]
  0019e	ff 15 00 00 00
	00		 call	 DWORD PTR __imp_??1?$CStringT@DV?$StrTraitMFC_DLL@DV?$ChTraitsCRT@D@ATL@@@@@ATL@@QAE@XZ

; 373  : }

  001a4	8b 4d f4	 mov	 ecx, DWORD PTR __$EHRec$[ebp]
  001a7	64 89 0d 00 00
	00 00		 mov	 DWORD PTR fs:0, ecx
  001ae	59		 pop	 ecx
  001af	5f		 pop	 edi
  001b0	5e		 pop	 esi
  001b1	5b		 pop	 ebx
  001b2	8b e5		 mov	 esp, ebp
  001b4	5d		 pop	 ebp
  001b5	c3		 ret	 0
$LN9@Unparenthe:
; File C:\Program Files (x86)\Microsoft Visual Studio\2019\Community\VC\Tools\MSVC\14.29.30133\atlmfc\include\cstringt.h

; 2486 : 		return(str1.Compare(psz2) == 0);

  001b6	68 00 00 00 00	 push	 OFFSET ??_C@_01PKGAHCOL@?$CJ@
  001bb	8d 4d c8	 lea	 ecx, DWORD PTR _Element$[ebp+4]
  001be	ff 15 00 00 00
	00		 call	 DWORD PTR __imp_?Compare@?$CStringT@DV?$StrTraitMFC_DLL@DV?$ChTraitsCRT@D@ATL@@@@@ATL@@QBEHPBD@Z
  001c4	85 c0		 test	 eax, eax
; File D:\git\src\IBK\IBK_DRFN\ProjSrc\SrcDrfn\Chart\HWSTRATEGYCONFIGUREWIZARD\Control\LogicEditCtrl.cpp

; 353  : 			else if(Element.m_strValue==STRCLOSEPARENTHESISINLOGIC&&nCntStackedOfParenthesis)

  001c6	75 0a		 jne	 SHORT $LN11@Unparenthe
  001c8	85 ff		 test	 edi, edi
  001ca	74 06		 je	 SHORT $LN11@Unparenthe

; 354  : 			{
; 355  : 				nCntStackedOfParenthesis--;

  001cc	4f		 dec	 edi

; 356  : 			}

  001cd	e9 69 ff ff ff	 jmp	 $LN49@Unparenthe
$LN11@Unparenthe:
; File C:\Program Files (x86)\Microsoft Visual Studio\2019\Community\VC\Tools\MSVC\14.29.30133\atlmfc\include\cstringt.h

; 2486 : 		return(str1.Compare(psz2) == 0);

  001d2	68 00 00 00 00	 push	 OFFSET ??_C@_01PKGAHCOL@?$CJ@
  001d7	8d 4d c8	 lea	 ecx, DWORD PTR _Element$[ebp+4]
  001da	ff 15 00 00 00
	00		 call	 DWORD PTR __imp_?Compare@?$CStringT@DV?$StrTraitMFC_DLL@DV?$ChTraitsCRT@D@ATL@@@@@ATL@@QBEHPBD@Z
  001e0	85 c0		 test	 eax, eax
; File D:\git\src\IBK\IBK_DRFN\ProjSrc\SrcDrfn\Chart\HWSTRATEGYCONFIGUREWIZARD\Control\LogicEditCtrl.cpp

; 357  : 			else if(Element.m_strValue==STRCLOSEPARENTHESISINLOGIC&&!nCntStackedOfParenthesis)

  001e2	0f 85 53 ff ff
	ff		 jne	 $LN49@Unparenthe
  001e8	8b 45 ec	 mov	 eax, DWORD PTR _nEndPosParenthesize$1$[ebp]
  001eb	85 ff		 test	 edi, edi
  001ed	0f 44 c3	 cmove	 eax, ebx
  001f0	89 45 ec	 mov	 DWORD PTR _nEndPosParenthesize$1$[ebp], eax
  001f3	e9 46 ff ff ff	 jmp	 $LN52@Unparenthe
$LN23@Unparenthe:
; File C:\Program Files (x86)\Microsoft Visual Studio\2019\Community\VC\Tools\MSVC\14.29.30133\atlmfc\include\afxtempl.h

; 290  : 	AfxThrowInvalidArgException();

  001f8	e8 00 00 00 00	 call	 ?AfxThrowInvalidArgException@@YGXXZ ; AfxThrowInvalidArgException
$LN51@Unparenthe:
  001fd	cc		 int	 3
_TEXT	ENDS
;	COMDAT text$x
text$x	SEGMENT
__unwindfunclet$?Unparenthesize@CLogicEditCtrl@@QAEXXZ$1:
  00000	8d 4d c8	 lea	 ecx, DWORD PTR _Element$[ebp+4]
  00003	ff 25 00 00 00
	00		 jmp	 DWORD PTR __imp_??1?$CStringT@DV?$StrTraitMFC_DLL@DV?$ChTraitsCRT@D@ATL@@@@@ATL@@QAE@XZ
__unwindfunclet$?Unparenthesize@CLogicEditCtrl@@QAEXXZ$0:
  00009	8d 4d c4	 lea	 ecx, DWORD PTR _Element$[ebp]
  0000c	e9 00 00 00 00	 jmp	 ??1CElementInLogic@@QAE@XZ
  00011	cc		 int	 3
  00012	cc		 int	 3
  00013	cc		 int	 3
  00014	cc		 int	 3
  00015	cc		 int	 3
__ehhandler$?Unparenthesize@CLogicEditCtrl@@QAEXXZ:
  00016	90		 npad	 1
  00017	90		 npad	 1
  00018	8b 54 24 08	 mov	 edx, DWORD PTR [esp+8]
  0001c	8d 42 0c	 lea	 eax, DWORD PTR [edx+12]
  0001f	8b 4a c0	 mov	 ecx, DWORD PTR [edx-64]
  00022	33 c8		 xor	 ecx, eax
  00024	e8 00 00 00 00	 call	 @__security_check_cookie@4
  00029	b8 00 00 00 00	 mov	 eax, OFFSET __ehfuncinfo$?Unparenthesize@CLogicEditCtrl@@QAEXXZ
  0002e	e9 00 00 00 00	 jmp	 ___CxxFrameHandler3
text$x	ENDS
?Unparenthesize@CLogicEditCtrl@@QAEXXZ ENDP		; CLogicEditCtrl::Unparenthesize
; Function compile flags: /Ogtp
; File D:\git\src\IBK\IBK_DRFN\ProjSrc\SrcDrfn\Chart\HWSTRATEGYCONFIGUREWIZARD\Control\LogicEditCtrl.cpp
; File D:\git\src\IBK\IBK_DRFN\ProjSrc\SrcDrfn\Chart\HWSTRATEGYCONFIGUREWIZARD\Control\LogicEditCtrl.h
; File D:\git\src\IBK\IBK_DRFN\ProjSrc\SrcDrfn\Chart\HWSTRATEGYCONFIGUREWIZARD\Control\LogicEditCtrl.cpp
; File C:\Program Files (x86)\Microsoft Visual Studio\2019\Community\VC\Tools\MSVC\14.29.30133\atlmfc\include\afxtempl.h
; File D:\git\src\IBK\IBK_DRFN\ProjSrc\SrcDrfn\Chart\HWSTRATEGYCONFIGUREWIZARD\Control\LogicEditCtrl.cpp
; File C:\Program Files (x86)\Microsoft Visual Studio\2019\Community\VC\Tools\MSVC\14.29.30133\atlmfc\include\cstringt.h
; File D:\git\src\IBK\IBK_DRFN\ProjSrc\SrcDrfn\Chart\HWSTRATEGYCONFIGUREWIZARD\Control\LogicEditCtrl.cpp
; File C:\Program Files (x86)\Microsoft Visual Studio\2019\Community\VC\Tools\MSVC\14.29.30133\atlmfc\include\cstringt.h
; File D:\git\src\IBK\IBK_DRFN\ProjSrc\SrcDrfn\Chart\HWSTRATEGYCONFIGUREWIZARD\Control\LogicEditCtrl.cpp
; File D:\git\src\IBK\IBK_DRFN\ProjSrc\SrcDrfn\Chart\HWSTRATEGYCONFIGUREWIZARD\Control\LogicEditCtrl.h
; File D:\git\src\IBK\IBK_DRFN\ProjSrc\SrcDrfn\Chart\HWSTRATEGYCONFIGUREWIZARD\Control\LogicEditCtrl.cpp
; File C:\Program Files (x86)\Microsoft Visual Studio\2019\Community\VC\Tools\MSVC\14.29.30133\atlmfc\include\afxtempl.h
; File D:\git\src\IBK\IBK_DRFN\ProjSrc\SrcDrfn\Chart\HWSTRATEGYCONFIGUREWIZARD\Control\LogicEditCtrl.cpp
;	COMDAT ?Parenthesize@CLogicEditCtrl@@QAEXXZ
_TEXT	SEGMENT
_ElementParenthsis$2 = -80				; size = 20
_Element$ = -60						; size = 20
_nSize$1$ = -40						; size = 4
tv374 = -36						; size = 4
_this$1$ = -32						; size = 4
_nBeginPosParenthesize$1$ = -28				; size = 4
_nEndCharSelected$ = -24				; size = 4
_nStartCharSelected$ = -20				; size = 4
_nEndPosParenthesize$1$ = -16				; size = 4
__$EHRec$ = -12						; size = 12
?Parenthesize@CLogicEditCtrl@@QAEXXZ PROC		; CLogicEditCtrl::Parenthesize, COMDAT
; _this$ = ecx

; 376  : {

  00000	55		 push	 ebp
  00001	8b ec		 mov	 ebp, esp
  00003	6a ff		 push	 -1
  00005	68 00 00 00 00	 push	 __ehhandler$?Parenthesize@CLogicEditCtrl@@QAEXXZ
  0000a	64 a1 00 00 00
	00		 mov	 eax, DWORD PTR fs:0
  00010	50		 push	 eax
  00011	83 ec 44	 sub	 esp, 68			; 00000044H
  00014	53		 push	 ebx
  00015	56		 push	 esi
  00016	57		 push	 edi
  00017	a1 00 00 00 00	 mov	 eax, DWORD PTR ___security_cookie
  0001c	33 c5		 xor	 eax, ebp
  0001e	50		 push	 eax
  0001f	8d 45 f4	 lea	 eax, DWORD PTR __$EHRec$[ebp]
  00022	64 a3 00 00 00
	00		 mov	 DWORD PTR fs:0, eax
  00028	8b f9		 mov	 edi, ecx
  0002a	89 7d e0	 mov	 DWORD PTR _this$1$[ebp], edi

; 379  : 	GetSel(nStartCharSelected,nEndCharSelected);

  0002d	8d 45 e8	 lea	 eax, DWORD PTR _nEndCharSelected$[ebp]
  00030	c7 45 ec 00 00
	00 00		 mov	 DWORD PTR _nStartCharSelected$[ebp], 0
  00037	50		 push	 eax
  00038	8d 45 ec	 lea	 eax, DWORD PTR _nStartCharSelected$[ebp]
  0003b	c7 45 e8 00 00
	00 00		 mov	 DWORD PTR _nEndCharSelected$[ebp], 0
  00042	50		 push	 eax
  00043	e8 00 00 00 00	 call	 ?GetSel@CRichEditCtrl@@QBEXAAJ0@Z ; CRichEditCtrl::GetSel
; File D:\git\src\IBK\IBK_DRFN\ProjSrc\SrcDrfn\Chart\HWSTRATEGYCONFIGUREWIZARD\Control\LogicEditCtrl.h

; 17   : 	CElementInLogic() 

  00048	8d 4d c8	 lea	 ecx, DWORD PTR _Element$[ebp+4]
  0004b	ff 15 00 00 00
	00		 call	 DWORD PTR __imp_??0?$CStringT@DV?$StrTraitMFC_DLL@DV?$ChTraitsCRT@D@ATL@@@@@ATL@@QAE@XZ

; 27   : 		m_strValue = "";

  00051	68 00 00 00 00	 push	 OFFSET ??_C@_00CNPNBAHC@@
  00056	8d 4d c8	 lea	 ecx, DWORD PTR _Element$[ebp+4]

; 17   : 	CElementInLogic() 

  00059	c7 45 fc 00 00
	00 00		 mov	 DWORD PTR __$EHRec$[ebp+8], 0

; 23   : 		m_nType = 0;

  00060	c7 45 c4 00 00
	00 00		 mov	 DWORD PTR _Element$[ebp], 0

; 24   : 		m_bTRUE = TRUE;

  00067	c7 45 cc 01 00
	00 00		 mov	 DWORD PTR _Element$[ebp+8], 1

; 25   : 		m_nStartChar = 0;

  0006e	c7 45 d0 00 00
	00 00		 mov	 DWORD PTR _Element$[ebp+12], 0

; 26   : 		m_nEndChar = 0;

  00075	c7 45 d4 00 00
	00 00		 mov	 DWORD PTR _Element$[ebp+16], 0

; 27   : 		m_strValue = "";

  0007c	ff 15 00 00 00
	00		 call	 DWORD PTR __imp_??4?$CStringT@DV?$StrTraitMFC_DLL@DV?$ChTraitsCRT@D@ATL@@@@@ATL@@QAEAAV01@PBD@Z
; File D:\git\src\IBK\IBK_DRFN\ProjSrc\SrcDrfn\Chart\HWSTRATEGYCONFIGUREWIZARD\Control\LogicEditCtrl.cpp

; 381  : 	int nSize = m_arrayElement.GetSize();

  00082	8b 87 88 00 00
	00		 mov	 eax, DWORD PTR [edi+136]

; 382  : 	int nBeginPosParenthesize = -1;
; 383  : 	int nEndPosParenthesize = -1;

  00088	83 cb ff	 or	 ebx, -1
  0008b	89 5d f0	 mov	 DWORD PTR _nEndPosParenthesize$1$[ebp], ebx

; 384  : 	long lCntOfStackInParenthsis = 0;
; 385  : 	for(int nPos=0;nPos<nSize;nPos++)

  0008e	33 f6		 xor	 esi, esi
  00090	33 db		 xor	 ebx, ebx
  00092	c7 45 fc 01 00
	00 00		 mov	 DWORD PTR __$EHRec$[ebp+8], 1
  00099	89 45 d8	 mov	 DWORD PTR _nSize$1$[ebp], eax
  0009c	c7 45 e4 ff ff
	ff ff		 mov	 DWORD PTR _nBeginPosParenthesize$1$[ebp], -1
  000a3	85 c0		 test	 eax, eax
  000a5	0f 8e aa 01 00
	00		 jle	 $LN45@Parenthesi

; 377  : 	long nStartCharSelected = 0;
; 378  : 	long nEndCharSelected = 0;

  000ab	33 c0		 xor	 eax, eax
  000ad	89 45 dc	 mov	 DWORD PTR tv374[ebp], eax

; 384  : 	long lCntOfStackInParenthsis = 0;
; 385  : 	for(int nPos=0;nPos<nSize;nPos++)

  000b0	eb 03		 jmp	 SHORT $LN4@Parenthesi
$LL59@Parenthesi:
  000b2	8b 7d e0	 mov	 edi, DWORD PTR _this$1$[ebp]
$LN4@Parenthesi:
; File C:\Program Files (x86)\Microsoft Visual Studio\2019\Community\VC\Tools\MSVC\14.29.30133\atlmfc\include\afxtempl.h

; 288  : 	if(nIndex >= 0 && nIndex < m_nSize)

  000b5	85 c0		 test	 eax, eax
  000b7	0f 88 b3 01 00
	00		 js	 $LN27@Parenthesi
  000bd	3b b7 88 00 00
	00		 cmp	 esi, DWORD PTR [edi+136]
  000c3	0f 8d a7 01 00
	00		 jge	 $LN27@Parenthesi

; 289  : 		return m_pData[nIndex];

  000c9	8b bf 84 00 00
	00		 mov	 edi, DWORD PTR [edi+132]
  000cf	8d 4d c8	 lea	 ecx, DWORD PTR _Element$[ebp+4]
  000d2	03 f8		 add	 edi, eax
  000d4	8b 07		 mov	 eax, DWORD PTR [edi]
  000d6	89 45 c4	 mov	 DWORD PTR _Element$[ebp], eax
  000d9	8d 47 04	 lea	 eax, DWORD PTR [edi+4]
  000dc	50		 push	 eax
  000dd	ff 15 00 00 00
	00		 call	 DWORD PTR __imp_??4?$CStringT@DV?$StrTraitMFC_DLL@DV?$ChTraitsCRT@D@ATL@@@@@ATL@@QAEAAV01@ABV01@@Z
  000e3	8b 47 08	 mov	 eax, DWORD PTR [edi+8]
  000e6	89 45 cc	 mov	 DWORD PTR _Element$[ebp+8], eax
  000e9	8b 57 0c	 mov	 edx, DWORD PTR [edi+12]
; File D:\git\src\IBK\IBK_DRFN\ProjSrc\SrcDrfn\Chart\HWSTRATEGYCONFIGUREWIZARD\Control\LogicEditCtrl.cpp

; 388  : 		if(nBeginPosParenthesize==-1&&Element.m_nStartChar>=nStartCharSelected&&Element.m_nType==ELEMENTINLOGIC)

  000ec	8b 45 c4	 mov	 eax, DWORD PTR _Element$[ebp]
  000ef	89 55 d0	 mov	 DWORD PTR _Element$[ebp+12], edx
  000f2	8b 4f 10	 mov	 ecx, DWORD PTR [edi+16]
  000f5	8b 7d e4	 mov	 edi, DWORD PTR _nBeginPosParenthesize$1$[ebp]
  000f8	89 4d d4	 mov	 DWORD PTR _Element$[ebp+16], ecx
  000fb	83 ff ff	 cmp	 edi, -1
  000fe	75 11		 jne	 SHORT $LN55@Parenthesi
  00100	3b 55 ec	 cmp	 edx, DWORD PTR _nStartCharSelected$[ebp]
  00103	7c 7b		 jl	 SHORT $LN58@Parenthesi
  00105	83 f8 01	 cmp	 eax, 1
  00108	75 18		 jne	 SHORT $LN7@Parenthesi

; 389  : 		{
; 390  : 			nBeginPosParenthesize = nPos;

  0010a	8b fe		 mov	 edi, esi
  0010c	89 7d e4	 mov	 DWORD PTR _nBeginPosParenthesize$1$[ebp], edi

; 391  : 		}

  0010f	eb 6f		 jmp	 SHORT $LN58@Parenthesi
$LN55@Parenthesi:

; 392  : 		else if(nBeginPosParenthesize!=-1&&Element.m_nEndChar<=nEndCharSelected&&Element.m_nType==ELEMENTINLOGIC)

  00111	3b 4d e8	 cmp	 ecx, DWORD PTR _nEndCharSelected$[ebp]
  00114	7f 0c		 jg	 SHORT $LN7@Parenthesi
  00116	83 f8 01	 cmp	 eax, 1
  00119	75 07		 jne	 SHORT $LN7@Parenthesi

; 393  : 		{
; 394  : 			nEndPosParenthesize = nPos;

  0011b	8b ce		 mov	 ecx, esi
  0011d	89 4d f0	 mov	 DWORD PTR _nEndPosParenthesize$1$[ebp], ecx

; 395  : 		}

  00120	eb 61		 jmp	 SHORT $LN2@Parenthesi
$LN7@Parenthesi:

; 396  : 		else if(Element.m_nStartChar>=nStartCharSelected&&Element.m_nEndChar<=nEndCharSelected&&Element.m_nType==PARENTHESISINLOGIC)

  00122	3b 55 ec	 cmp	 edx, DWORD PTR _nStartCharSelected$[ebp]
  00125	7c 59		 jl	 SHORT $LN58@Parenthesi
  00127	3b 4d e8	 cmp	 ecx, DWORD PTR _nEndCharSelected$[ebp]
  0012a	7f 54		 jg	 SHORT $LN58@Parenthesi
  0012c	83 f8 03	 cmp	 eax, 3
  0012f	75 4f		 jne	 SHORT $LN58@Parenthesi
; File C:\Program Files (x86)\Microsoft Visual Studio\2019\Community\VC\Tools\MSVC\14.29.30133\atlmfc\include\cstringt.h

; 2486 : 		return(str1.Compare(psz2) == 0);

  00131	68 00 00 00 00	 push	 OFFSET ??_C@_01ODHLEDKK@?$CI@
  00136	8d 4d c8	 lea	 ecx, DWORD PTR _Element$[ebp+4]
  00139	ff 15 00 00 00
	00		 call	 DWORD PTR __imp_?Compare@?$CStringT@DV?$StrTraitMFC_DLL@DV?$ChTraitsCRT@D@ATL@@@@@ATL@@QBEHPBD@Z
  0013f	85 c0		 test	 eax, eax
; File D:\git\src\IBK\IBK_DRFN\ProjSrc\SrcDrfn\Chart\HWSTRATEGYCONFIGUREWIZARD\Control\LogicEditCtrl.cpp

; 398  : 			if(Element.m_strValue==STROPENPARENTHESISINLOGIC)

  00141	75 12		 jne	 SHORT $LN10@Parenthesi

; 399  : 			{
; 400  : 				lCntOfStackInParenthsis += 1;

  00143	43		 inc	 ebx

; 401  : 				if(nBeginPosParenthesize==-1&&lCntOfStackInParenthsis==1)

  00144	83 ff ff	 cmp	 edi, -1
  00147	75 2f		 jne	 SHORT $LN14@Parenthesi
  00149	83 fb 01	 cmp	 ebx, 1
  0014c	75 2a		 jne	 SHORT $LN14@Parenthesi

; 402  : 				{
; 403  : 					nBeginPosParenthesize = nPos;

  0014e	8b fe		 mov	 edi, esi
  00150	89 7d e4	 mov	 DWORD PTR _nBeginPosParenthesize$1$[ebp], edi

; 404  : 				}
; 405  : 			}

  00153	eb 2b		 jmp	 SHORT $LN58@Parenthesi
$LN10@Parenthesi:
; File C:\Program Files (x86)\Microsoft Visual Studio\2019\Community\VC\Tools\MSVC\14.29.30133\atlmfc\include\cstringt.h

; 2486 : 		return(str1.Compare(psz2) == 0);

  00155	68 00 00 00 00	 push	 OFFSET ??_C@_01PKGAHCOL@?$CJ@
  0015a	8d 4d c8	 lea	 ecx, DWORD PTR _Element$[ebp+4]
  0015d	ff 15 00 00 00
	00		 call	 DWORD PTR __imp_?Compare@?$CStringT@DV?$StrTraitMFC_DLL@DV?$ChTraitsCRT@D@ATL@@@@@ATL@@QBEHPBD@Z
  00163	85 c0		 test	 eax, eax
; File D:\git\src\IBK\IBK_DRFN\ProjSrc\SrcDrfn\Chart\HWSTRATEGYCONFIGUREWIZARD\Control\LogicEditCtrl.cpp

; 406  : 			else if(Element.m_strValue==STRCLOSEPARENTHESISINLOGIC)

  00165	75 11		 jne	 SHORT $LN14@Parenthesi

; 407  : 			{
; 408  : 				lCntOfStackInParenthsis -= 1;

  00167	4b		 dec	 ebx

; 409  : 				if(nBeginPosParenthesize!=-1&&lCntOfStackInParenthsis==0)

  00168	83 ff ff	 cmp	 edi, -1
  0016b	74 0b		 je	 SHORT $LN14@Parenthesi
  0016d	85 db		 test	 ebx, ebx
  0016f	75 09		 jne	 SHORT $LN63@Parenthesi

; 410  : 				{
; 411  : 					nEndPosParenthesize = nPos;

  00171	8b ce		 mov	 ecx, esi
  00173	89 4d f0	 mov	 DWORD PTR _nEndPosParenthesize$1$[ebp], ecx

; 412  : 				}
; 413  : 			}
; 414  : 			if(lCntOfStackInParenthsis<0) return;

  00176	eb 0b		 jmp	 SHORT $LN2@Parenthesi
$LN14@Parenthesi:
  00178	85 db		 test	 ebx, ebx
$LN63@Parenthesi:
  0017a	0f 88 d5 00 00
	00		 js	 $LN45@Parenthesi
$LN58@Parenthesi:

; 384  : 	long lCntOfStackInParenthsis = 0;
; 385  : 	for(int nPos=0;nPos<nSize;nPos++)

  00180	8b 4d f0	 mov	 ecx, DWORD PTR _nEndPosParenthesize$1$[ebp]
$LN2@Parenthesi:
  00183	8b 45 dc	 mov	 eax, DWORD PTR tv374[ebp]
  00186	46		 inc	 esi
  00187	83 c0 14	 add	 eax, 20			; 00000014H
  0018a	89 45 dc	 mov	 DWORD PTR tv374[ebp], eax
  0018d	3b 75 d8	 cmp	 esi, DWORD PTR _nSize$1$[ebp]
  00190	0f 8c 1c ff ff
	ff		 jl	 $LL59@Parenthesi

; 415  : 		}
; 416  : 	}
; 417  : 	if(nBeginPosParenthesize!=-1&&nEndPosParenthesize!=-1&&lCntOfStackInParenthsis==0)

  00196	83 ff ff	 cmp	 edi, -1
  00199	0f 84 b6 00 00
	00		 je	 $LN45@Parenthesi
  0019f	83 f9 ff	 cmp	 ecx, -1
  001a2	0f 84 ad 00 00
	00		 je	 $LN45@Parenthesi
  001a8	85 db		 test	 ebx, ebx
  001aa	0f 85 a5 00 00
	00		 jne	 $LN45@Parenthesi
; File D:\git\src\IBK\IBK_DRFN\ProjSrc\SrcDrfn\Chart\HWSTRATEGYCONFIGUREWIZARD\Control\LogicEditCtrl.h

; 17   : 	CElementInLogic() 

  001b0	8d 4d b4	 lea	 ecx, DWORD PTR _ElementParenthsis$2[ebp+4]
  001b3	ff 15 00 00 00
	00		 call	 DWORD PTR __imp_??0?$CStringT@DV?$StrTraitMFC_DLL@DV?$ChTraitsCRT@D@ATL@@@@@ATL@@QAE@XZ

; 27   : 		m_strValue = "";

  001b9	68 00 00 00 00	 push	 OFFSET ??_C@_00CNPNBAHC@@
  001be	8d 4d b4	 lea	 ecx, DWORD PTR _ElementParenthsis$2[ebp+4]

; 17   : 	CElementInLogic() 

  001c1	c6 45 fc 02	 mov	 BYTE PTR __$EHRec$[ebp+8], 2

; 23   : 		m_nType = 0;

  001c5	89 5d b0	 mov	 DWORD PTR _ElementParenthsis$2[ebp], ebx

; 24   : 		m_bTRUE = TRUE;

  001c8	c7 45 b8 01 00
	00 00		 mov	 DWORD PTR _ElementParenthsis$2[ebp+8], 1

; 25   : 		m_nStartChar = 0;

  001cf	89 5d bc	 mov	 DWORD PTR _ElementParenthsis$2[ebp+12], ebx

; 26   : 		m_nEndChar = 0;

  001d2	89 5d c0	 mov	 DWORD PTR _ElementParenthsis$2[ebp+16], ebx

; 27   : 		m_strValue = "";

  001d5	ff 15 00 00 00
	00		 call	 DWORD PTR __imp_??4?$CStringT@DV?$StrTraitMFC_DLL@DV?$ChTraitsCRT@D@ATL@@@@@ATL@@QAEAAV01@PBD@Z
; File D:\git\src\IBK\IBK_DRFN\ProjSrc\SrcDrfn\Chart\HWSTRATEGYCONFIGUREWIZARD\Control\LogicEditCtrl.cpp

; 421  : 		ElementParenthsis.m_strValue = STRCLOSEPARENTHESISINLOGIC;

  001db	68 00 00 00 00	 push	 OFFSET ??_C@_01PKGAHCOL@?$CJ@
  001e0	8d 4d b4	 lea	 ecx, DWORD PTR _ElementParenthsis$2[ebp+4]
  001e3	c6 45 fc 03	 mov	 BYTE PTR __$EHRec$[ebp+8], 3
  001e7	c7 45 b0 03 00
	00 00		 mov	 DWORD PTR _ElementParenthsis$2[ebp], 3
  001ee	ff 15 00 00 00
	00		 call	 DWORD PTR __imp_??4?$CStringT@DV?$StrTraitMFC_DLL@DV?$ChTraitsCRT@D@ATL@@@@@ATL@@QAEAAV01@PBD@Z

; 422  : 		m_arrayElement.InsertAt(nEndPosParenthesize+1,ElementParenthsis);

  001f4	8b 5d f0	 mov	 ebx, DWORD PTR _nEndPosParenthesize$1$[ebp]
  001f7	8d 45 b0	 lea	 eax, DWORD PTR _ElementParenthsis$2[ebp]
  001fa	8b 75 e0	 mov	 esi, DWORD PTR _this$1$[ebp]
  001fd	6a 01		 push	 1
  001ff	50		 push	 eax
  00200	8d 43 01	 lea	 eax, DWORD PTR [ebx+1]
  00203	50		 push	 eax
  00204	8d 8e 80 00 00
	00		 lea	 ecx, DWORD PTR [esi+128]
  0020a	e8 00 00 00 00	 call	 ?InsertAt@?$CArray@VCElementInLogic@@AAV1@@@QAEXHAAVCElementInLogic@@H@Z ; CArray<CElementInLogic,CElementInLogic &>::InsertAt

; 423  : 		ElementParenthsis.m_nType = PARENTHESISINLOGIC;
; 424  : 		ElementParenthsis.m_strValue = STROPENPARENTHESISINLOGIC;

  0020f	68 00 00 00 00	 push	 OFFSET ??_C@_01ODHLEDKK@?$CI@
  00214	8d 4d b4	 lea	 ecx, DWORD PTR _ElementParenthsis$2[ebp+4]
  00217	c7 45 b0 03 00
	00 00		 mov	 DWORD PTR _ElementParenthsis$2[ebp], 3
  0021e	ff 15 00 00 00
	00		 call	 DWORD PTR __imp_??4?$CStringT@DV?$StrTraitMFC_DLL@DV?$ChTraitsCRT@D@ATL@@@@@ATL@@QAEAAV01@PBD@Z

; 425  : 		m_arrayElement.InsertAt(nBeginPosParenthesize,ElementParenthsis);

  00224	6a 01		 push	 1
  00226	8d 45 b0	 lea	 eax, DWORD PTR _ElementParenthsis$2[ebp]
  00229	50		 push	 eax
  0022a	57		 push	 edi
  0022b	8d 8e 80 00 00
	00		 lea	 ecx, DWORD PTR [esi+128]
  00231	e8 00 00 00 00	 call	 ?InsertAt@?$CArray@VCElementInLogic@@AAV1@@@QAEXHAAVCElementInLogic@@H@Z ; CArray<CElementInLogic,CElementInLogic &>::InsertAt

; 426  : 
; 427  : 		m_nBeginSelected = nBeginPosParenthesize;

  00236	8b ce		 mov	 ecx, esi

; 428  : 		m_nEndSelected = nEndPosParenthesize + 2;

  00238	8d 43 02	 lea	 eax, DWORD PTR [ebx+2]
  0023b	89 b9 a0 00 00
	00		 mov	 DWORD PTR [ecx+160], edi
  00241	89 81 a4 00 00
	00		 mov	 DWORD PTR [ecx+164], eax

; 429  : 		UpdateLogic();

  00247	e8 00 00 00 00	 call	 ?UpdateLogic@CLogicEditCtrl@@AAEXXZ ; CLogicEditCtrl::UpdateLogic
  0024c	8d 4d b4	 lea	 ecx, DWORD PTR _ElementParenthsis$2[ebp+4]
  0024f	ff 15 00 00 00
	00		 call	 DWORD PTR __imp_??1?$CStringT@DV?$StrTraitMFC_DLL@DV?$ChTraitsCRT@D@ATL@@@@@ATL@@QAE@XZ
$LN45@Parenthesi:
  00255	8d 4d c8	 lea	 ecx, DWORD PTR _Element$[ebp+4]
  00258	ff 15 00 00 00
	00		 call	 DWORD PTR __imp_??1?$CStringT@DV?$StrTraitMFC_DLL@DV?$ChTraitsCRT@D@ATL@@@@@ATL@@QAE@XZ

; 431  : }

  0025e	8b 4d f4	 mov	 ecx, DWORD PTR __$EHRec$[ebp]
  00261	64 89 0d 00 00
	00 00		 mov	 DWORD PTR fs:0, ecx
  00268	59		 pop	 ecx
  00269	5f		 pop	 edi
  0026a	5e		 pop	 esi
  0026b	5b		 pop	 ebx
  0026c	8b e5		 mov	 esp, ebp
  0026e	5d		 pop	 ebp
  0026f	c3		 ret	 0
$LN27@Parenthesi:
; File C:\Program Files (x86)\Microsoft Visual Studio\2019\Community\VC\Tools\MSVC\14.29.30133\atlmfc\include\afxtempl.h

; 290  : 	AfxThrowInvalidArgException();

  00270	e8 00 00 00 00	 call	 ?AfxThrowInvalidArgException@@YGXXZ ; AfxThrowInvalidArgException
$LN61@Parenthesi:
  00275	cc		 int	 3
_TEXT	ENDS
;	COMDAT text$x
text$x	SEGMENT
__unwindfunclet$?Parenthesize@CLogicEditCtrl@@QAEXXZ$2:
  00000	8d 4d c8	 lea	 ecx, DWORD PTR _Element$[ebp+4]
  00003	ff 25 00 00 00
	00		 jmp	 DWORD PTR __imp_??1?$CStringT@DV?$StrTraitMFC_DLL@DV?$ChTraitsCRT@D@ATL@@@@@ATL@@QAE@XZ
__unwindfunclet$?Parenthesize@CLogicEditCtrl@@QAEXXZ$0:
  00009	8d 4d c4	 lea	 ecx, DWORD PTR _Element$[ebp]
  0000c	e9 00 00 00 00	 jmp	 ??1CElementInLogic@@QAE@XZ
__unwindfunclet$?Parenthesize@CLogicEditCtrl@@QAEXXZ$4:
  00011	8d 4d b4	 lea	 ecx, DWORD PTR _ElementParenthsis$2[ebp+4]
  00014	ff 25 00 00 00
	00		 jmp	 DWORD PTR __imp_??1?$CStringT@DV?$StrTraitMFC_DLL@DV?$ChTraitsCRT@D@ATL@@@@@ATL@@QAE@XZ
__unwindfunclet$?Parenthesize@CLogicEditCtrl@@QAEXXZ$1:
  0001a	8d 4d b0	 lea	 ecx, DWORD PTR _ElementParenthsis$2[ebp]
  0001d	e9 00 00 00 00	 jmp	 ??1CElementInLogic@@QAE@XZ
  00022	cc		 int	 3
  00023	cc		 int	 3
  00024	cc		 int	 3
  00025	cc		 int	 3
  00026	cc		 int	 3
__ehhandler$?Parenthesize@CLogicEditCtrl@@QAEXXZ:
  00027	90		 npad	 1
  00028	90		 npad	 1
  00029	8b 54 24 08	 mov	 edx, DWORD PTR [esp+8]
  0002d	8d 42 0c	 lea	 eax, DWORD PTR [edx+12]
  00030	8b 4a ac	 mov	 ecx, DWORD PTR [edx-84]
  00033	33 c8		 xor	 ecx, eax
  00035	e8 00 00 00 00	 call	 @__security_check_cookie@4
  0003a	b8 00 00 00 00	 mov	 eax, OFFSET __ehfuncinfo$?Parenthesize@CLogicEditCtrl@@QAEXXZ
  0003f	e9 00 00 00 00	 jmp	 ___CxxFrameHandler3
text$x	ENDS
?Parenthesize@CLogicEditCtrl@@QAEXXZ ENDP		; CLogicEditCtrl::Parenthesize
; Function compile flags: /Ogtp
; File D:\git\src\IBK\IBK_DRFN\ProjSrc\SrcDrfn\Chart\HWSTRATEGYCONFIGUREWIZARD\Control\LogicEditCtrl.cpp
; File D:\git\src\IBK\IBK_DRFN\ProjSrc\SrcDrfn\Chart\HWSTRATEGYCONFIGUREWIZARD\Control\LogicEditCtrl.h
; File D:\git\src\IBK\IBK_DRFN\ProjSrc\SrcDrfn\Chart\HWSTRATEGYCONFIGUREWIZARD\Control\LogicEditCtrl.cpp
; File C:\Program Files (x86)\Microsoft Visual Studio\2019\Community\VC\Tools\MSVC\14.29.30133\atlmfc\include\afxtempl.h
; File D:\git\src\IBK\IBK_DRFN\ProjSrc\SrcDrfn\Chart\HWSTRATEGYCONFIGUREWIZARD\Control\LogicEditCtrl.cpp
; File C:\Program Files (x86)\Microsoft Visual Studio\2019\Community\VC\Tools\MSVC\14.29.30133\atlmfc\include\afxtempl.h
; File D:\git\src\IBK\IBK_DRFN\ProjSrc\SrcDrfn\Chart\HWSTRATEGYCONFIGUREWIZARD\Control\LogicEditCtrl.cpp
; File C:\Program Files (x86)\Microsoft Visual Studio\2019\Community\VC\Tools\MSVC\14.29.30133\atlmfc\include\afxtempl.h
; File D:\git\src\IBK\IBK_DRFN\ProjSrc\SrcDrfn\Chart\HWSTRATEGYCONFIGUREWIZARD\Control\LogicEditCtrl.cpp
;	COMDAT ?ChangeOperation@CLogicEditCtrl@@QAEXPBD@Z
_TEXT	SEGMENT
_Element$ = -48						; size = 20
_nSize$1$ = -28						; size = 4
_this$1$ = -24						; size = 4
_nEndChar$ = -20					; size = 4
_nStartChar$ = -16					; size = 4
__$EHRec$ = -12						; size = 12
_lpOperation$ = 8					; size = 4
?ChangeOperation@CLogicEditCtrl@@QAEXPBD@Z PROC		; CLogicEditCtrl::ChangeOperation, COMDAT
; _this$ = ecx

; 287  : {

  00000	55		 push	 ebp
  00001	8b ec		 mov	 ebp, esp
  00003	6a ff		 push	 -1
  00005	68 00 00 00 00	 push	 __ehhandler$?ChangeOperation@CLogicEditCtrl@@QAEXPBD@Z
  0000a	64 a1 00 00 00
	00		 mov	 eax, DWORD PTR fs:0
  00010	50		 push	 eax
  00011	83 ec 24	 sub	 esp, 36			; 00000024H
  00014	53		 push	 ebx
  00015	56		 push	 esi
  00016	57		 push	 edi
  00017	a1 00 00 00 00	 mov	 eax, DWORD PTR ___security_cookie
  0001c	33 c5		 xor	 eax, ebp
  0001e	50		 push	 eax
  0001f	8d 45 f4	 lea	 eax, DWORD PTR __$EHRec$[ebp]
  00022	64 a3 00 00 00
	00		 mov	 DWORD PTR fs:0, eax
  00028	8b f9		 mov	 edi, ecx
  0002a	89 7d e8	 mov	 DWORD PTR _this$1$[ebp], edi

; 290  : 	GetSel(nStartChar,nEndChar);

  0002d	8d 45 ec	 lea	 eax, DWORD PTR _nEndChar$[ebp]
  00030	c7 45 f0 00 00
	00 00		 mov	 DWORD PTR _nStartChar$[ebp], 0
  00037	50		 push	 eax
  00038	8d 45 f0	 lea	 eax, DWORD PTR _nStartChar$[ebp]
  0003b	c7 45 ec 00 00
	00 00		 mov	 DWORD PTR _nEndChar$[ebp], 0
  00042	50		 push	 eax
  00043	e8 00 00 00 00	 call	 ?GetSel@CRichEditCtrl@@QBEXAAJ0@Z ; CRichEditCtrl::GetSel
; File D:\git\src\IBK\IBK_DRFN\ProjSrc\SrcDrfn\Chart\HWSTRATEGYCONFIGUREWIZARD\Control\LogicEditCtrl.h

; 17   : 	CElementInLogic() 

  00048	8d 4d d4	 lea	 ecx, DWORD PTR _Element$[ebp+4]
  0004b	ff 15 00 00 00
	00		 call	 DWORD PTR __imp_??0?$CStringT@DV?$StrTraitMFC_DLL@DV?$ChTraitsCRT@D@ATL@@@@@ATL@@QAE@XZ

; 27   : 		m_strValue = "";

  00051	68 00 00 00 00	 push	 OFFSET ??_C@_00CNPNBAHC@@
  00056	8d 4d d4	 lea	 ecx, DWORD PTR _Element$[ebp+4]

; 17   : 	CElementInLogic() 

  00059	c7 45 fc 00 00
	00 00		 mov	 DWORD PTR __$EHRec$[ebp+8], 0

; 23   : 		m_nType = 0;

  00060	c7 45 d0 00 00
	00 00		 mov	 DWORD PTR _Element$[ebp], 0

; 24   : 		m_bTRUE = TRUE;

  00067	c7 45 d8 01 00
	00 00		 mov	 DWORD PTR _Element$[ebp+8], 1

; 25   : 		m_nStartChar = 0;

  0006e	c7 45 dc 00 00
	00 00		 mov	 DWORD PTR _Element$[ebp+12], 0

; 26   : 		m_nEndChar = 0;

  00075	c7 45 e0 00 00
	00 00		 mov	 DWORD PTR _Element$[ebp+16], 0

; 27   : 		m_strValue = "";

  0007c	ff 15 00 00 00
	00		 call	 DWORD PTR __imp_??4?$CStringT@DV?$StrTraitMFC_DLL@DV?$ChTraitsCRT@D@ATL@@@@@ATL@@QAEAAV01@PBD@Z
; File D:\git\src\IBK\IBK_DRFN\ProjSrc\SrcDrfn\Chart\HWSTRATEGYCONFIGUREWIZARD\Control\LogicEditCtrl.cpp

; 292  : 	int nSize = m_arrayElement.GetSize();

  00082	8b 87 88 00 00
	00		 mov	 eax, DWORD PTR [edi+136]

; 293  : 	for(int nPos=0;nPos<nSize;nPos++)

  00088	33 f6		 xor	 esi, esi
  0008a	c7 45 fc 01 00
	00 00		 mov	 DWORD PTR __$EHRec$[ebp+8], 1
  00091	89 45 e4	 mov	 DWORD PTR _nSize$1$[ebp], eax
  00094	85 c0		 test	 eax, eax
  00096	0f 8e b0 00 00
	00		 jle	 $LN3@ChangeOper

; 288  : 	long nStartChar = 0;
; 289  : 	long nEndChar = 0;

  0009c	33 db		 xor	 ebx, ebx
  0009e	66 90		 npad	 2
$LL4@ChangeOper:
; File C:\Program Files (x86)\Microsoft Visual Studio\2019\Community\VC\Tools\MSVC\14.29.30133\atlmfc\include\afxtempl.h

; 288  : 	if(nIndex >= 0 && nIndex < m_nSize)

  000a0	85 db		 test	 ebx, ebx
  000a2	0f 88 c1 00 00
	00		 js	 $LN14@ChangeOper
  000a8	3b b7 88 00 00
	00		 cmp	 esi, DWORD PTR [edi+136]
  000ae	0f 8d b5 00 00
	00		 jge	 $LN14@ChangeOper

; 289  : 		return m_pData[nIndex];

  000b4	8b bf 84 00 00
	00		 mov	 edi, DWORD PTR [edi+132]
  000ba	8d 4d d4	 lea	 ecx, DWORD PTR _Element$[ebp+4]
  000bd	03 fb		 add	 edi, ebx
  000bf	8b 07		 mov	 eax, DWORD PTR [edi]
  000c1	89 45 d0	 mov	 DWORD PTR _Element$[ebp], eax
  000c4	8d 47 04	 lea	 eax, DWORD PTR [edi+4]
  000c7	50		 push	 eax
  000c8	ff 15 00 00 00
	00		 call	 DWORD PTR __imp_??4?$CStringT@DV?$StrTraitMFC_DLL@DV?$ChTraitsCRT@D@ATL@@@@@ATL@@QAEAAV01@ABV01@@Z
  000ce	8b 47 08	 mov	 eax, DWORD PTR [edi+8]
  000d1	89 45 d8	 mov	 DWORD PTR _Element$[ebp+8], eax
  000d4	8b 47 0c	 mov	 eax, DWORD PTR [edi+12]
  000d7	89 45 dc	 mov	 DWORD PTR _Element$[ebp+12], eax
  000da	8b 4f 10	 mov	 ecx, DWORD PTR [edi+16]
  000dd	89 4d e0	 mov	 DWORD PTR _Element$[ebp+16], ecx
  000e0	3b 45 f0	 cmp	 eax, DWORD PTR _nStartChar$[ebp]
; File D:\git\src\IBK\IBK_DRFN\ProjSrc\SrcDrfn\Chart\HWSTRATEGYCONFIGUREWIZARD\Control\LogicEditCtrl.cpp

; 296  : 		if(Element.m_nStartChar==nStartChar&&Element.m_nEndChar==nEndChar&&Element.m_nType==OPERATIONINLOGIC)

  000e3	75 0b		 jne	 SHORT $LN2@ChangeOper
  000e5	3b 4d ec	 cmp	 ecx, DWORD PTR _nEndChar$[ebp]
  000e8	75 06		 jne	 SHORT $LN2@ChangeOper
  000ea	83 7d d0 02	 cmp	 DWORD PTR _Element$[ebp], 2
  000ee	74 0e		 je	 SHORT $LN29@ChangeOper
$LN2@ChangeOper:

; 293  : 	for(int nPos=0;nPos<nSize;nPos++)

  000f0	46		 inc	 esi
  000f1	83 c3 14	 add	 ebx, 20			; 00000014H
  000f4	3b 75 e4	 cmp	 esi, DWORD PTR _nSize$1$[ebp]
  000f7	7d 53		 jge	 SHORT $LN3@ChangeOper
  000f9	8b 7d e8	 mov	 edi, DWORD PTR _this$1$[ebp]
  000fc	eb a2		 jmp	 SHORT $LL4@ChangeOper
$LN29@ChangeOper:

; 297  : 		{
; 298  : 			Element.m_strValue = lpOperation;

  000fe	ff 75 08	 push	 DWORD PTR _lpOperation$[ebp]
  00101	8d 4d d4	 lea	 ecx, DWORD PTR _Element$[ebp+4]
  00104	ff 15 00 00 00
	00		 call	 DWORD PTR __imp_??4?$CStringT@DV?$StrTraitMFC_DLL@DV?$ChTraitsCRT@D@ATL@@@@@ATL@@QAEAAV01@PBD@Z
; File C:\Program Files (x86)\Microsoft Visual Studio\2019\Community\VC\Tools\MSVC\14.29.30133\atlmfc\include\afxtempl.h

; 304  : 	if(nIndex >= 0 && nIndex < m_nSize)

  0010a	8b 7d e8	 mov	 edi, DWORD PTR _this$1$[ebp]
  0010d	3b b7 88 00 00
	00		 cmp	 esi, DWORD PTR [edi+136]
  00113	7d 54		 jge	 SHORT $LN14@ChangeOper

; 305  : 		m_pData[nIndex] = newElement;

  00115	8b 87 84 00 00
	00		 mov	 eax, DWORD PTR [edi+132]
  0011b	8d 0c b6	 lea	 ecx, DWORD PTR [esi+esi*4]
  0011e	8d 34 88	 lea	 esi, DWORD PTR [eax+ecx*4]
  00121	8b 45 d0	 mov	 eax, DWORD PTR _Element$[ebp]
  00124	89 06		 mov	 DWORD PTR [esi], eax
  00126	8d 4e 04	 lea	 ecx, DWORD PTR [esi+4]
  00129	8d 45 d4	 lea	 eax, DWORD PTR _Element$[ebp+4]
  0012c	50		 push	 eax
  0012d	ff 15 00 00 00
	00		 call	 DWORD PTR __imp_??4?$CStringT@DV?$StrTraitMFC_DLL@DV?$ChTraitsCRT@D@ATL@@@@@ATL@@QAEAAV01@ABV01@@Z
  00133	8b 45 d8	 mov	 eax, DWORD PTR _Element$[ebp+8]
; File D:\git\src\IBK\IBK_DRFN\ProjSrc\SrcDrfn\Chart\HWSTRATEGYCONFIGUREWIZARD\Control\LogicEditCtrl.cpp

; 300  : 			UpdateLogic();

  00136	8b cf		 mov	 ecx, edi
  00138	89 46 08	 mov	 DWORD PTR [esi+8], eax
  0013b	8b 45 dc	 mov	 eax, DWORD PTR _Element$[ebp+12]
  0013e	89 46 0c	 mov	 DWORD PTR [esi+12], eax
  00141	8b 45 e0	 mov	 eax, DWORD PTR _Element$[ebp+16]
  00144	89 46 10	 mov	 DWORD PTR [esi+16], eax
  00147	e8 00 00 00 00	 call	 ?UpdateLogic@CLogicEditCtrl@@AAEXXZ ; CLogicEditCtrl::UpdateLogic
$LN3@ChangeOper:
  0014c	8d 4d d4	 lea	 ecx, DWORD PTR _Element$[ebp+4]
  0014f	ff 15 00 00 00
	00		 call	 DWORD PTR __imp_??1?$CStringT@DV?$StrTraitMFC_DLL@DV?$ChTraitsCRT@D@ATL@@@@@ATL@@QAE@XZ

; 304  : }

  00155	8b 4d f4	 mov	 ecx, DWORD PTR __$EHRec$[ebp]
  00158	64 89 0d 00 00
	00 00		 mov	 DWORD PTR fs:0, ecx
  0015f	59		 pop	 ecx
  00160	5f		 pop	 edi
  00161	5e		 pop	 esi
  00162	5b		 pop	 ebx
  00163	8b e5		 mov	 esp, ebp
  00165	5d		 pop	 ebp
  00166	c2 04 00	 ret	 4
$LN14@ChangeOper:
; File C:\Program Files (x86)\Microsoft Visual Studio\2019\Community\VC\Tools\MSVC\14.29.30133\atlmfc\include\afxtempl.h

; 290  : 	AfxThrowInvalidArgException();

  00169	e8 00 00 00 00	 call	 ?AfxThrowInvalidArgException@@YGXXZ ; AfxThrowInvalidArgException
$LN35@ChangeOper:
  0016e	cc		 int	 3
_TEXT	ENDS
;	COMDAT text$x
text$x	SEGMENT
__unwindfunclet$?ChangeOperation@CLogicEditCtrl@@QAEXPBD@Z$1:
  00000	8d 4d d4	 lea	 ecx, DWORD PTR _Element$[ebp+4]
  00003	ff 25 00 00 00
	00		 jmp	 DWORD PTR __imp_??1?$CStringT@DV?$StrTraitMFC_DLL@DV?$ChTraitsCRT@D@ATL@@@@@ATL@@QAE@XZ
__unwindfunclet$?ChangeOperation@CLogicEditCtrl@@QAEXPBD@Z$0:
  00009	8d 4d d0	 lea	 ecx, DWORD PTR _Element$[ebp]
  0000c	e9 00 00 00 00	 jmp	 ??1CElementInLogic@@QAE@XZ
  00011	cc		 int	 3
  00012	cc		 int	 3
  00013	cc		 int	 3
  00014	cc		 int	 3
  00015	cc		 int	 3
__ehhandler$?ChangeOperation@CLogicEditCtrl@@QAEXPBD@Z:
  00016	90		 npad	 1
  00017	90		 npad	 1
  00018	8b 54 24 08	 mov	 edx, DWORD PTR [esp+8]
  0001c	8d 42 0c	 lea	 eax, DWORD PTR [edx+12]
  0001f	8b 4a cc	 mov	 ecx, DWORD PTR [edx-52]
  00022	33 c8		 xor	 ecx, eax
  00024	e8 00 00 00 00	 call	 @__security_check_cookie@4
  00029	b8 00 00 00 00	 mov	 eax, OFFSET __ehfuncinfo$?ChangeOperation@CLogicEditCtrl@@QAEXPBD@Z
  0002e	e9 00 00 00 00	 jmp	 ___CxxFrameHandler3
text$x	ENDS
?ChangeOperation@CLogicEditCtrl@@QAEXPBD@Z ENDP		; CLogicEditCtrl::ChangeOperation
; Function compile flags: /Ogtp
; File D:\git\src\IBK\IBK_DRFN\ProjSrc\SrcDrfn\Chart\HWSTRATEGYCONFIGUREWIZARD\Control\LogicEditCtrl.cpp
; File D:\git\src\IBK\IBK_DRFN\ProjSrc\SrcDrfn\Chart\HWSTRATEGYCONFIGUREWIZARD\Control\LogicEditCtrl.h
; File D:\git\src\IBK\IBK_DRFN\ProjSrc\SrcDrfn\Chart\HWSTRATEGYCONFIGUREWIZARD\Control\LogicEditCtrl.cpp
; File C:\Program Files (x86)\Microsoft Visual Studio\2019\Community\VC\Tools\MSVC\14.29.30133\atlmfc\include\afxtempl.h
; File D:\git\src\IBK\IBK_DRFN\ProjSrc\SrcDrfn\Chart\HWSTRATEGYCONFIGUREWIZARD\Control\LogicEditCtrl.cpp
; File C:\Program Files (x86)\Microsoft Visual Studio\2019\Community\VC\Tools\MSVC\14.29.30133\atlmfc\include\afxtempl.h
; File D:\git\src\IBK\IBK_DRFN\ProjSrc\SrcDrfn\Chart\HWSTRATEGYCONFIGUREWIZARD\Control\LogicEditCtrl.cpp
; File C:\Program Files (x86)\Microsoft Visual Studio\2019\Community\VC\Tools\MSVC\14.29.30133\atlmfc\include\afxtempl.h
; File D:\git\src\IBK\IBK_DRFN\ProjSrc\SrcDrfn\Chart\HWSTRATEGYCONFIGUREWIZARD\Control\LogicEditCtrl.cpp
; File C:\Program Files (x86)\Microsoft Visual Studio\2019\Community\VC\Tools\MSVC\14.29.30133\atlmfc\include\afxtempl.h
; File D:\git\src\IBK\IBK_DRFN\ProjSrc\SrcDrfn\Chart\HWSTRATEGYCONFIGUREWIZARD\Control\LogicEditCtrl.cpp
;	COMDAT ?ChangeElement@CLogicEditCtrl@@QAEXH@Z
_TEXT	SEGMENT
_Element$ = -48						; size = 20
_nSize$1$ = -28						; size = 4
_this$1$ = -24						; size = 4
_nEndChar$ = -20					; size = 4
_nStartChar$ = -16					; size = 4
__$EHRec$ = -12						; size = 12
_bTRUE$ = 8						; size = 4
?ChangeElement@CLogicEditCtrl@@QAEXH@Z PROC		; CLogicEditCtrl::ChangeElement, COMDAT
; _this$ = ecx

; 307  : {

  00000	55		 push	 ebp
  00001	8b ec		 mov	 ebp, esp
  00003	6a ff		 push	 -1
  00005	68 00 00 00 00	 push	 __ehhandler$?ChangeElement@CLogicEditCtrl@@QAEXH@Z
  0000a	64 a1 00 00 00
	00		 mov	 eax, DWORD PTR fs:0
  00010	50		 push	 eax
  00011	83 ec 24	 sub	 esp, 36			; 00000024H
  00014	53		 push	 ebx
  00015	56		 push	 esi
  00016	57		 push	 edi
  00017	a1 00 00 00 00	 mov	 eax, DWORD PTR ___security_cookie
  0001c	33 c5		 xor	 eax, ebp
  0001e	50		 push	 eax
  0001f	8d 45 f4	 lea	 eax, DWORD PTR __$EHRec$[ebp]
  00022	64 a3 00 00 00
	00		 mov	 DWORD PTR fs:0, eax
  00028	8b f1		 mov	 esi, ecx
  0002a	89 75 e8	 mov	 DWORD PTR _this$1$[ebp], esi

; 310  : 	GetSel(nStartChar,nEndChar);

  0002d	8d 45 ec	 lea	 eax, DWORD PTR _nEndChar$[ebp]
  00030	c7 45 f0 00 00
	00 00		 mov	 DWORD PTR _nStartChar$[ebp], 0
  00037	50		 push	 eax
  00038	8d 45 f0	 lea	 eax, DWORD PTR _nStartChar$[ebp]
  0003b	c7 45 ec 00 00
	00 00		 mov	 DWORD PTR _nEndChar$[ebp], 0
  00042	50		 push	 eax
  00043	e8 00 00 00 00	 call	 ?GetSel@CRichEditCtrl@@QBEXAAJ0@Z ; CRichEditCtrl::GetSel
; File D:\git\src\IBK\IBK_DRFN\ProjSrc\SrcDrfn\Chart\HWSTRATEGYCONFIGUREWIZARD\Control\LogicEditCtrl.h

; 17   : 	CElementInLogic() 

  00048	8d 4d d4	 lea	 ecx, DWORD PTR _Element$[ebp+4]
  0004b	ff 15 00 00 00
	00		 call	 DWORD PTR __imp_??0?$CStringT@DV?$StrTraitMFC_DLL@DV?$ChTraitsCRT@D@ATL@@@@@ATL@@QAE@XZ

; 27   : 		m_strValue = "";

  00051	68 00 00 00 00	 push	 OFFSET ??_C@_00CNPNBAHC@@
  00056	8d 4d d4	 lea	 ecx, DWORD PTR _Element$[ebp+4]

; 17   : 	CElementInLogic() 

  00059	c7 45 fc 00 00
	00 00		 mov	 DWORD PTR __$EHRec$[ebp+8], 0

; 23   : 		m_nType = 0;

  00060	c7 45 d0 00 00
	00 00		 mov	 DWORD PTR _Element$[ebp], 0

; 24   : 		m_bTRUE = TRUE;

  00067	c7 45 d8 01 00
	00 00		 mov	 DWORD PTR _Element$[ebp+8], 1

; 25   : 		m_nStartChar = 0;

  0006e	c7 45 dc 00 00
	00 00		 mov	 DWORD PTR _Element$[ebp+12], 0

; 26   : 		m_nEndChar = 0;

  00075	c7 45 e0 00 00
	00 00		 mov	 DWORD PTR _Element$[ebp+16], 0

; 27   : 		m_strValue = "";

  0007c	ff 15 00 00 00
	00		 call	 DWORD PTR __imp_??4?$CStringT@DV?$StrTraitMFC_DLL@DV?$ChTraitsCRT@D@ATL@@@@@ATL@@QAEAAV01@PBD@Z
; File D:\git\src\IBK\IBK_DRFN\ProjSrc\SrcDrfn\Chart\HWSTRATEGYCONFIGUREWIZARD\Control\LogicEditCtrl.cpp

; 312  : 	int nSize = m_arrayElement.GetSize();

  00082	8b 86 88 00 00
	00		 mov	 eax, DWORD PTR [esi+136]

; 313  : 	for(int nPos=0;nPos<nSize;nPos++)

  00088	33 ff		 xor	 edi, edi
  0008a	c7 45 fc 01 00
	00 00		 mov	 DWORD PTR __$EHRec$[ebp+8], 1
  00091	89 45 e4	 mov	 DWORD PTR _nSize$1$[ebp], eax
  00094	85 c0		 test	 eax, eax
  00096	0f 8e ac 00 00
	00		 jle	 $LN3@ChangeElem

; 308  : 	long nStartChar = 0;
; 309  : 	long nEndChar = 0;

  0009c	33 db		 xor	 ebx, ebx
  0009e	66 90		 npad	 2
$LL4@ChangeElem:
; File C:\Program Files (x86)\Microsoft Visual Studio\2019\Community\VC\Tools\MSVC\14.29.30133\atlmfc\include\afxtempl.h

; 288  : 	if(nIndex >= 0 && nIndex < m_nSize)

  000a0	85 db		 test	 ebx, ebx
  000a2	0f 88 bd 00 00
	00		 js	 $LN14@ChangeElem
  000a8	3b be 88 00 00
	00		 cmp	 edi, DWORD PTR [esi+136]
  000ae	0f 8d b1 00 00
	00		 jge	 $LN14@ChangeElem

; 289  : 		return m_pData[nIndex];

  000b4	8b b6 84 00 00
	00		 mov	 esi, DWORD PTR [esi+132]
  000ba	8d 4d d4	 lea	 ecx, DWORD PTR _Element$[ebp+4]
  000bd	03 f3		 add	 esi, ebx
  000bf	8b 06		 mov	 eax, DWORD PTR [esi]
  000c1	89 45 d0	 mov	 DWORD PTR _Element$[ebp], eax
  000c4	8d 46 04	 lea	 eax, DWORD PTR [esi+4]
  000c7	50		 push	 eax
  000c8	ff 15 00 00 00
	00		 call	 DWORD PTR __imp_??4?$CStringT@DV?$StrTraitMFC_DLL@DV?$ChTraitsCRT@D@ATL@@@@@ATL@@QAEAAV01@ABV01@@Z
  000ce	8b 46 08	 mov	 eax, DWORD PTR [esi+8]
  000d1	89 45 d8	 mov	 DWORD PTR _Element$[ebp+8], eax
  000d4	8b 46 0c	 mov	 eax, DWORD PTR [esi+12]
  000d7	89 45 dc	 mov	 DWORD PTR _Element$[ebp+12], eax
  000da	8b 4e 10	 mov	 ecx, DWORD PTR [esi+16]
  000dd	89 4d e0	 mov	 DWORD PTR _Element$[ebp+16], ecx
  000e0	3b 45 f0	 cmp	 eax, DWORD PTR _nStartChar$[ebp]
; File D:\git\src\IBK\IBK_DRFN\ProjSrc\SrcDrfn\Chart\HWSTRATEGYCONFIGUREWIZARD\Control\LogicEditCtrl.cpp

; 316  : 		if(Element.m_nStartChar==nStartChar&&Element.m_nEndChar==nEndChar&&Element.m_nType==ELEMENTINLOGIC)

  000e3	75 0b		 jne	 SHORT $LN2@ChangeElem
  000e5	3b 4d ec	 cmp	 ecx, DWORD PTR _nEndChar$[ebp]
  000e8	75 06		 jne	 SHORT $LN2@ChangeElem
  000ea	83 7d d0 01	 cmp	 DWORD PTR _Element$[ebp], 1
  000ee	74 0e		 je	 SHORT $LN29@ChangeElem
$LN2@ChangeElem:

; 313  : 	for(int nPos=0;nPos<nSize;nPos++)

  000f0	47		 inc	 edi
  000f1	83 c3 14	 add	 ebx, 20			; 00000014H
  000f4	3b 7d e4	 cmp	 edi, DWORD PTR _nSize$1$[ebp]
  000f7	7d 4f		 jge	 SHORT $LN3@ChangeElem
  000f9	8b 75 e8	 mov	 esi, DWORD PTR _this$1$[ebp]
  000fc	eb a2		 jmp	 SHORT $LL4@ChangeElem
$LN29@ChangeElem:
; File C:\Program Files (x86)\Microsoft Visual Studio\2019\Community\VC\Tools\MSVC\14.29.30133\atlmfc\include\afxtempl.h

; 304  : 	if(nIndex >= 0 && nIndex < m_nSize)

  000fe	8b 5d e8	 mov	 ebx, DWORD PTR _this$1$[ebp]
; File D:\git\src\IBK\IBK_DRFN\ProjSrc\SrcDrfn\Chart\HWSTRATEGYCONFIGUREWIZARD\Control\LogicEditCtrl.cpp

; 318  : 			Element.m_bTRUE = bTRUE;

  00101	8b 45 08	 mov	 eax, DWORD PTR _bTRUE$[ebp]
  00104	89 45 d8	 mov	 DWORD PTR _Element$[ebp+8], eax
; File C:\Program Files (x86)\Microsoft Visual Studio\2019\Community\VC\Tools\MSVC\14.29.30133\atlmfc\include\afxtempl.h

; 304  : 	if(nIndex >= 0 && nIndex < m_nSize)

  00107	3b bb 88 00 00
	00		 cmp	 edi, DWORD PTR [ebx+136]
  0010d	7d 56		 jge	 SHORT $LN14@ChangeElem

; 305  : 		m_pData[nIndex] = newElement;

  0010f	8b 83 84 00 00
	00		 mov	 eax, DWORD PTR [ebx+132]
  00115	8d 0c bf	 lea	 ecx, DWORD PTR [edi+edi*4]
  00118	c7 04 88 01 00
	00 00		 mov	 DWORD PTR [eax+ecx*4], 1
  0011f	8d 34 88	 lea	 esi, DWORD PTR [eax+ecx*4]
  00122	8d 45 d4	 lea	 eax, DWORD PTR _Element$[ebp+4]
  00125	50		 push	 eax
  00126	8d 4e 04	 lea	 ecx, DWORD PTR [esi+4]
  00129	ff 15 00 00 00
	00		 call	 DWORD PTR __imp_??4?$CStringT@DV?$StrTraitMFC_DLL@DV?$ChTraitsCRT@D@ATL@@@@@ATL@@QAEAAV01@ABV01@@Z
  0012f	8b 45 d8	 mov	 eax, DWORD PTR _Element$[ebp+8]
; File D:\git\src\IBK\IBK_DRFN\ProjSrc\SrcDrfn\Chart\HWSTRATEGYCONFIGUREWIZARD\Control\LogicEditCtrl.cpp

; 320  : 			UpdateLogic();

  00132	8b cb		 mov	 ecx, ebx
  00134	89 46 08	 mov	 DWORD PTR [esi+8], eax
  00137	8b 45 dc	 mov	 eax, DWORD PTR _Element$[ebp+12]
  0013a	89 46 0c	 mov	 DWORD PTR [esi+12], eax
  0013d	8b 45 e0	 mov	 eax, DWORD PTR _Element$[ebp+16]
  00140	89 46 10	 mov	 DWORD PTR [esi+16], eax
  00143	e8 00 00 00 00	 call	 ?UpdateLogic@CLogicEditCtrl@@AAEXXZ ; CLogicEditCtrl::UpdateLogic
$LN3@ChangeElem:
  00148	8d 4d d4	 lea	 ecx, DWORD PTR _Element$[ebp+4]
  0014b	ff 15 00 00 00
	00		 call	 DWORD PTR __imp_??1?$CStringT@DV?$StrTraitMFC_DLL@DV?$ChTraitsCRT@D@ATL@@@@@ATL@@QAE@XZ

; 325  : }

  00151	8b 4d f4	 mov	 ecx, DWORD PTR __$EHRec$[ebp]
  00154	64 89 0d 00 00
	00 00		 mov	 DWORD PTR fs:0, ecx
  0015b	59		 pop	 ecx
  0015c	5f		 pop	 edi
  0015d	5e		 pop	 esi
  0015e	5b		 pop	 ebx
  0015f	8b e5		 mov	 esp, ebp
  00161	5d		 pop	 ebp
  00162	c2 04 00	 ret	 4
$LN14@ChangeElem:
; File C:\Program Files (x86)\Microsoft Visual Studio\2019\Community\VC\Tools\MSVC\14.29.30133\atlmfc\include\afxtempl.h

; 290  : 	AfxThrowInvalidArgException();

  00165	e8 00 00 00 00	 call	 ?AfxThrowInvalidArgException@@YGXXZ ; AfxThrowInvalidArgException
$LN35@ChangeElem:
  0016a	cc		 int	 3
_TEXT	ENDS
;	COMDAT text$x
text$x	SEGMENT
__unwindfunclet$?ChangeElement@CLogicEditCtrl@@QAEXH@Z$1:
  00000	8d 4d d4	 lea	 ecx, DWORD PTR _Element$[ebp+4]
  00003	ff 25 00 00 00
	00		 jmp	 DWORD PTR __imp_??1?$CStringT@DV?$StrTraitMFC_DLL@DV?$ChTraitsCRT@D@ATL@@@@@ATL@@QAE@XZ
__unwindfunclet$?ChangeElement@CLogicEditCtrl@@QAEXH@Z$0:
  00009	8d 4d d0	 lea	 ecx, DWORD PTR _Element$[ebp]
  0000c	e9 00 00 00 00	 jmp	 ??1CElementInLogic@@QAE@XZ
  00011	cc		 int	 3
  00012	cc		 int	 3
  00013	cc		 int	 3
  00014	cc		 int	 3
  00015	cc		 int	 3
__ehhandler$?ChangeElement@CLogicEditCtrl@@QAEXH@Z:
  00016	90		 npad	 1
  00017	90		 npad	 1
  00018	8b 54 24 08	 mov	 edx, DWORD PTR [esp+8]
  0001c	8d 42 0c	 lea	 eax, DWORD PTR [edx+12]
  0001f	8b 4a cc	 mov	 ecx, DWORD PTR [edx-52]
  00022	33 c8		 xor	 ecx, eax
  00024	e8 00 00 00 00	 call	 @__security_check_cookie@4
  00029	b8 00 00 00 00	 mov	 eax, OFFSET __ehfuncinfo$?ChangeElement@CLogicEditCtrl@@QAEXH@Z
  0002e	e9 00 00 00 00	 jmp	 ___CxxFrameHandler3
text$x	ENDS
?ChangeElement@CLogicEditCtrl@@QAEXH@Z ENDP		; CLogicEditCtrl::ChangeElement
; Function compile flags: /Ogtp
; File D:\git\src\IBK\IBK_DRFN\ProjSrc\SrcDrfn\Chart\HWSTRATEGYCONFIGUREWIZARD\Control\LogicEditCtrl.cpp
; File D:\git\src\IBK\IBK_DRFN\ProjSrc\SrcDrfn\Chart\HWSTRATEGYCONFIGUREWIZARD\Control\LogicEditCtrl.h
; File D:\git\src\IBK\IBK_DRFN\ProjSrc\SrcDrfn\Chart\HWSTRATEGYCONFIGUREWIZARD\Control\LogicEditCtrl.cpp
; File D:\git\src\IBK\IBK_DRFN\ProjSrc\SrcDrfn\Chart\HWSTRATEGYCONFIGUREWIZARD\Control\LogicEditCtrl.h
; File D:\git\src\IBK\IBK_DRFN\ProjSrc\SrcDrfn\Chart\HWSTRATEGYCONFIGUREWIZARD\Control\LogicEditCtrl.cpp
; File C:\Program Files (x86)\Microsoft Visual Studio\2019\Community\VC\Tools\MSVC\14.29.30133\atlmfc\include\afxtempl.h
; File D:\git\src\IBK\IBK_DRFN\ProjSrc\SrcDrfn\Chart\HWSTRATEGYCONFIGUREWIZARD\Control\LogicEditCtrl.cpp
; File C:\Program Files (x86)\Microsoft Visual Studio\2019\Community\VC\Tools\MSVC\14.29.30133\atlmfc\include\cstringt.h
; File D:\git\src\IBK\IBK_DRFN\ProjSrc\SrcDrfn\Chart\HWSTRATEGYCONFIGUREWIZARD\Control\LogicEditCtrl.cpp
; File C:\Program Files (x86)\Microsoft Visual Studio\2019\Community\VC\Tools\MSVC\14.29.30133\atlmfc\include\cstringt.h
; File D:\git\src\IBK\IBK_DRFN\ProjSrc\SrcDrfn\Chart\HWSTRATEGYCONFIGUREWIZARD\Control\LogicEditCtrl.cpp
; File C:\Program Files (x86)\Microsoft Visual Studio\2019\Community\VC\Tools\MSVC\14.29.30133\atlmfc\include\cstringt.h
; File D:\git\src\IBK\IBK_DRFN\ProjSrc\SrcDrfn\Chart\HWSTRATEGYCONFIGUREWIZARD\Control\LogicEditCtrl.cpp
; File C:\Program Files (x86)\Microsoft Visual Studio\2019\Community\VC\Tools\MSVC\14.29.30133\atlmfc\include\cstringt.h
; File D:\git\src\IBK\IBK_DRFN\ProjSrc\SrcDrfn\Chart\HWSTRATEGYCONFIGUREWIZARD\Control\LogicEditCtrl.cpp
; File C:\Program Files (x86)\Microsoft Visual Studio\2019\Community\VC\Tools\MSVC\14.29.30133\atlmfc\include\afxcoll.inl
; File D:\git\src\IBK\IBK_DRFN\ProjSrc\SrcDrfn\Chart\HWSTRATEGYCONFIGUREWIZARD\Control\LogicEditCtrl.cpp
; File C:\Program Files (x86)\Microsoft Visual Studio\2019\Community\VC\Tools\MSVC\14.29.30133\atlmfc\include\cstringt.h
; File D:\git\src\IBK\IBK_DRFN\ProjSrc\SrcDrfn\Chart\HWSTRATEGYCONFIGUREWIZARD\Control\LogicEditCtrl.cpp
; File C:\Program Files (x86)\Microsoft Visual Studio\2019\Community\VC\Tools\MSVC\14.29.30133\atlmfc\include\afxcoll.inl
; File D:\git\src\IBK\IBK_DRFN\ProjSrc\SrcDrfn\Chart\HWSTRATEGYCONFIGUREWIZARD\Control\LogicEditCtrl.cpp
; File C:\Program Files (x86)\Microsoft Visual Studio\2019\Community\VC\Tools\MSVC\14.29.30133\atlmfc\include\afxcoll.inl
; File D:\git\src\IBK\IBK_DRFN\ProjSrc\SrcDrfn\Chart\HWSTRATEGYCONFIGUREWIZARD\Control\LogicEditCtrl.cpp
; File C:\Program Files (x86)\Microsoft Visual Studio\2019\Community\VC\Tools\MSVC\14.29.30133\atlmfc\include\afxtempl.h
; File D:\git\src\IBK\IBK_DRFN\ProjSrc\SrcDrfn\Chart\HWSTRATEGYCONFIGUREWIZARD\Control\LogicEditCtrl.cpp
; File C:\Program Files (x86)\Microsoft Visual Studio\2019\Community\VC\Tools\MSVC\14.29.30133\atlmfc\include\cstringt.h
; File D:\git\src\IBK\IBK_DRFN\ProjSrc\SrcDrfn\Chart\HWSTRATEGYCONFIGUREWIZARD\Control\LogicEditCtrl.cpp
; File C:\Program Files (x86)\Microsoft Visual Studio\2019\Community\VC\Tools\MSVC\14.29.30133\atlmfc\include\afxtempl.h
; File D:\git\src\IBK\IBK_DRFN\ProjSrc\SrcDrfn\Chart\HWSTRATEGYCONFIGUREWIZARD\Control\LogicEditCtrl.cpp
;	COMDAT ?DeleteElement@CLogicEditCtrl@@QAEXD@Z
_TEXT	SEGMENT
_arrayStackParenthsis$ = -68				; size = 20
_Element$ = -48						; size = 20
$T2 = -28						; size = 4
tv478 = -28						; size = 4
_bAppendMode$1$ = -24					; size = 4
_nSize$1$ = -20						; size = 4
_this$1$ = -16						; size = 4
__$EHRec$ = -12						; size = 12
_chElement$ = 8						; size = 1
?DeleteElement@CLogicEditCtrl@@QAEXD@Z PROC		; CLogicEditCtrl::DeleteElement, COMDAT
; _this$ = ecx

; 82   : {

  00000	55		 push	 ebp
  00001	8b ec		 mov	 ebp, esp
  00003	6a ff		 push	 -1
  00005	68 00 00 00 00	 push	 __ehhandler$?DeleteElement@CLogicEditCtrl@@QAEXD@Z
  0000a	64 a1 00 00 00
	00		 mov	 eax, DWORD PTR fs:0
  00010	50		 push	 eax
  00011	83 ec 38	 sub	 esp, 56			; 00000038H
  00014	53		 push	 ebx
  00015	56		 push	 esi
  00016	57		 push	 edi
  00017	a1 00 00 00 00	 mov	 eax, DWORD PTR ___security_cookie
  0001c	33 c5		 xor	 eax, ebp
  0001e	50		 push	 eax
  0001f	8d 45 f4	 lea	 eax, DWORD PTR __$EHRec$[ebp]
  00022	64 a3 00 00 00
	00		 mov	 DWORD PTR fs:0, eax
  00028	89 4d f0	 mov	 DWORD PTR _this$1$[ebp], ecx

; 85   : 	CUIntArray	arrayStackParenthsis;

  0002b	8d 4d bc	 lea	 ecx, DWORD PTR _arrayStackParenthsis$[ebp]
  0002e	e8 00 00 00 00	 call	 ??0CUIntArray@@QAE@XZ	; CUIntArray::CUIntArray
; File D:\git\src\IBK\IBK_DRFN\ProjSrc\SrcDrfn\Chart\HWSTRATEGYCONFIGUREWIZARD\Control\LogicEditCtrl.h

; 17   : 	CElementInLogic() 

  00033	8d 4d d4	 lea	 ecx, DWORD PTR _Element$[ebp+4]
; File D:\git\src\IBK\IBK_DRFN\ProjSrc\SrcDrfn\Chart\HWSTRATEGYCONFIGUREWIZARD\Control\LogicEditCtrl.cpp

; 85   : 	CUIntArray	arrayStackParenthsis;

  00036	c7 45 fc 00 00
	00 00		 mov	 DWORD PTR __$EHRec$[ebp+8], 0

; 86   : 	BOOL	bAppendMode = FALSE;

  0003d	c7 45 e8 00 00
	00 00		 mov	 DWORD PTR _bAppendMode$1$[ebp], 0

; 87   : 	UINT	nCntRemainedToAppendParenthsis = 0;

  00044	33 db		 xor	 ebx, ebx
; File D:\git\src\IBK\IBK_DRFN\ProjSrc\SrcDrfn\Chart\HWSTRATEGYCONFIGUREWIZARD\Control\LogicEditCtrl.h

; 17   : 	CElementInLogic() 

  00046	ff 15 00 00 00
	00		 call	 DWORD PTR __imp_??0?$CStringT@DV?$StrTraitMFC_DLL@DV?$ChTraitsCRT@D@ATL@@@@@ATL@@QAE@XZ

; 27   : 		m_strValue = "";

  0004c	68 00 00 00 00	 push	 OFFSET ??_C@_00CNPNBAHC@@
  00051	8d 4d d4	 lea	 ecx, DWORD PTR _Element$[ebp+4]

; 17   : 	CElementInLogic() 

  00054	c6 45 fc 01	 mov	 BYTE PTR __$EHRec$[ebp+8], 1

; 23   : 		m_nType = 0;

  00058	89 5d d0	 mov	 DWORD PTR _Element$[ebp], ebx

; 24   : 		m_bTRUE = TRUE;

  0005b	c7 45 d8 01 00
	00 00		 mov	 DWORD PTR _Element$[ebp+8], 1

; 25   : 		m_nStartChar = 0;

  00062	89 5d dc	 mov	 DWORD PTR _Element$[ebp+12], ebx

; 26   : 		m_nEndChar = 0;

  00065	89 5d e0	 mov	 DWORD PTR _Element$[ebp+16], ebx

; 27   : 		m_strValue = "";

  00068	ff 15 00 00 00
	00		 call	 DWORD PTR __imp_??4?$CStringT@DV?$StrTraitMFC_DLL@DV?$ChTraitsCRT@D@ATL@@@@@ATL@@QAEAAV01@PBD@Z
; File D:\git\src\IBK\IBK_DRFN\ProjSrc\SrcDrfn\Chart\HWSTRATEGYCONFIGUREWIZARD\Control\LogicEditCtrl.cpp

; 89   : 	int nSize = m_arrayElement.GetSize();

  0006e	8b 4d f0	 mov	 ecx, DWORD PTR _this$1$[ebp]

; 90   : 	int nPos = 0;
; 91   : 	for( nPos=0;nPos<nSize;nPos++)

  00071	33 ff		 xor	 edi, edi
  00073	c6 45 fc 02	 mov	 BYTE PTR __$EHRec$[ebp+8], 2
  00077	8b 81 88 00 00
	00		 mov	 eax, DWORD PTR [ecx+136]
  0007d	89 45 ec	 mov	 DWORD PTR _nSize$1$[ebp], eax
  00080	85 c0		 test	 eax, eax
  00082	0f 8e f1 00 00
	00		 jle	 $LN94@DeleteElem

; 85   : 	CUIntArray	arrayStackParenthsis;

  00088	33 c0		 xor	 eax, eax
  0008a	89 45 e4	 mov	 DWORD PTR tv478[ebp], eax
  0008d	0f 1f 00	 npad	 3
$LL4@DeleteElem:
; File C:\Program Files (x86)\Microsoft Visual Studio\2019\Community\VC\Tools\MSVC\14.29.30133\atlmfc\include\afxtempl.h

; 288  : 	if(nIndex >= 0 && nIndex < m_nSize)

  00090	85 c0		 test	 eax, eax
  00092	0f 88 eb 01 00
	00		 js	 $LN59@DeleteElem
  00098	3b b9 88 00 00
	00		 cmp	 edi, DWORD PTR [ecx+136]
  0009e	0f 8d df 01 00
	00		 jge	 $LN59@DeleteElem

; 289  : 		return m_pData[nIndex];

  000a4	8b b1 84 00 00
	00		 mov	 esi, DWORD PTR [ecx+132]
  000aa	8d 4d d4	 lea	 ecx, DWORD PTR _Element$[ebp+4]
  000ad	03 f0		 add	 esi, eax
  000af	8b 06		 mov	 eax, DWORD PTR [esi]
  000b1	89 45 d0	 mov	 DWORD PTR _Element$[ebp], eax
  000b4	8d 46 04	 lea	 eax, DWORD PTR [esi+4]
  000b7	50		 push	 eax
  000b8	ff 15 00 00 00
	00		 call	 DWORD PTR __imp_??4?$CStringT@DV?$StrTraitMFC_DLL@DV?$ChTraitsCRT@D@ATL@@@@@ATL@@QAEAAV01@ABV01@@Z
  000be	8b 46 08	 mov	 eax, DWORD PTR [esi+8]
; File D:\git\src\IBK\IBK_DRFN\ProjSrc\SrcDrfn\Chart\HWSTRATEGYCONFIGUREWIZARD\Control\LogicEditCtrl.cpp

; 94   : 		if(Element.m_nType==ELEMENTINLOGIC&&Element.m_strValue==chElement)

  000c1	8b 4d d0	 mov	 ecx, DWORD PTR _Element$[ebp]
  000c4	89 45 d8	 mov	 DWORD PTR _Element$[ebp+8], eax
  000c7	8b 46 0c	 mov	 eax, DWORD PTR [esi+12]
  000ca	89 45 dc	 mov	 DWORD PTR _Element$[ebp+12], eax
  000cd	8b 46 10	 mov	 eax, DWORD PTR [esi+16]
  000d0	89 45 e0	 mov	 DWORD PTR _Element$[ebp+16], eax
  000d3	83 f9 01	 cmp	 ecx, 1
  000d6	75 27		 jne	 SHORT $LN11@DeleteElem
; File C:\Program Files (x86)\Microsoft Visual Studio\2019\Community\VC\Tools\MSVC\14.29.30133\atlmfc\include\cstringt.h

; 2510 : 		return((str1.GetLength() == 1) && (str1[0] == ch2));

  000d8	8b 45 d4	 mov	 eax, DWORD PTR _Element$[ebp+4]
  000db	39 48 f4	 cmp	 DWORD PTR [eax-12], ecx
  000de	75 1f		 jne	 SHORT $LN11@DeleteElem
  000e0	6a 00		 push	 0
  000e2	8d 4d d4	 lea	 ecx, DWORD PTR _Element$[ebp+4]
  000e5	ff 15 00 00 00
	00		 call	 DWORD PTR __imp_??A?$CSimpleStringT@D$00@ATL@@QBEDH@Z
  000eb	3a 45 08	 cmp	 al, BYTE PTR _chElement$[ebp]
  000ee	75 0c		 jne	 SHORT $LN92@DeleteElem
; File D:\git\src\IBK\IBK_DRFN\ProjSrc\SrcDrfn\Chart\HWSTRATEGYCONFIGUREWIZARD\Control\LogicEditCtrl.cpp

; 96   : 			bAppendMode = TRUE;

  000f0	8b 5d c4	 mov	 ebx, DWORD PTR _arrayStackParenthsis$[ebp+8]
  000f3	c7 45 e8 01 00
	00 00		 mov	 DWORD PTR _bAppendMode$1$[ebp], 1

; 97   : 			nCntRemainedToAppendParenthsis = arrayStackParenthsis.GetSize();
; 98   : 		}

  000fa	eb 67		 jmp	 SHORT $LN2@DeleteElem
$LN92@DeleteElem:
; File C:\Program Files (x86)\Microsoft Visual Studio\2019\Community\VC\Tools\MSVC\14.29.30133\atlmfc\include\cstringt.h

; 2510 : 		return((str1.GetLength() == 1) && (str1[0] == ch2));

  000fc	8b 4d d0	 mov	 ecx, DWORD PTR _Element$[ebp]
$LN11@DeleteElem:
; File D:\git\src\IBK\IBK_DRFN\ProjSrc\SrcDrfn\Chart\HWSTRATEGYCONFIGUREWIZARD\Control\LogicEditCtrl.cpp

; 99   : 		else if(Element.m_nType==PARENTHESISINLOGIC)

  000ff	83 f9 03	 cmp	 ecx, 3
  00102	75 5f		 jne	 SHORT $LN2@DeleteElem
; File C:\Program Files (x86)\Microsoft Visual Studio\2019\Community\VC\Tools\MSVC\14.29.30133\atlmfc\include\cstringt.h

; 2486 : 		return(str1.Compare(psz2) == 0);

  00104	68 00 00 00 00	 push	 OFFSET ??_C@_01ODHLEDKK@?$CI@
  00109	8d 4d d4	 lea	 ecx, DWORD PTR _Element$[ebp+4]
  0010c	ff 15 00 00 00
	00		 call	 DWORD PTR __imp_?Compare@?$CStringT@DV?$StrTraitMFC_DLL@DV?$ChTraitsCRT@D@ATL@@@@@ATL@@QBEHPBD@Z
; File D:\git\src\IBK\IBK_DRFN\ProjSrc\SrcDrfn\Chart\HWSTRATEGYCONFIGUREWIZARD\Control\LogicEditCtrl.cpp

; 101  : 			if(Element.m_strValue==STROPENPARENTHESISINLOGIC&&!bAppendMode)

  00112	8b 75 e8	 mov	 esi, DWORD PTR _bAppendMode$1$[ebp]
; File C:\Program Files (x86)\Microsoft Visual Studio\2019\Community\VC\Tools\MSVC\14.29.30133\atlmfc\include\cstringt.h

; 2486 : 		return(str1.Compare(psz2) == 0);

  00115	85 c0		 test	 eax, eax
; File D:\git\src\IBK\IBK_DRFN\ProjSrc\SrcDrfn\Chart\HWSTRATEGYCONFIGUREWIZARD\Control\LogicEditCtrl.cpp

; 101  : 			if(Element.m_strValue==STROPENPARENTHESISINLOGIC&&!bAppendMode)

  00117	75 12		 jne	 SHORT $LN14@DeleteElem
  00119	85 f6		 test	 esi, esi
  0011b	75 0e		 jne	 SHORT $LN14@DeleteElem
; File C:\Program Files (x86)\Microsoft Visual Studio\2019\Community\VC\Tools\MSVC\14.29.30133\atlmfc\include\afxcoll.inl

; 180  : 		SetAtGrow(nIndex, newElement);

  0011d	57		 push	 edi
  0011e	ff 75 c4	 push	 DWORD PTR _arrayStackParenthsis$[ebp+8]
  00121	8d 4d bc	 lea	 ecx, DWORD PTR _arrayStackParenthsis$[ebp]
  00124	e8 00 00 00 00	 call	 ?SetAtGrow@CUIntArray@@QAEXHI@Z ; CUIntArray::SetAtGrow
; File D:\git\src\IBK\IBK_DRFN\ProjSrc\SrcDrfn\Chart\HWSTRATEGYCONFIGUREWIZARD\Control\LogicEditCtrl.cpp

; 104  : 			}

  00129	eb 38		 jmp	 SHORT $LN2@DeleteElem
$LN14@DeleteElem:
; File C:\Program Files (x86)\Microsoft Visual Studio\2019\Community\VC\Tools\MSVC\14.29.30133\atlmfc\include\cstringt.h

; 2486 : 		return(str1.Compare(psz2) == 0);

  0012b	68 00 00 00 00	 push	 OFFSET ??_C@_01PKGAHCOL@?$CJ@
  00130	8d 4d d4	 lea	 ecx, DWORD PTR _Element$[ebp+4]
  00133	ff 15 00 00 00
	00		 call	 DWORD PTR __imp_?Compare@?$CStringT@DV?$StrTraitMFC_DLL@DV?$ChTraitsCRT@D@ATL@@@@@ATL@@QBEHPBD@Z
  00139	85 c0		 test	 eax, eax
; File D:\git\src\IBK\IBK_DRFN\ProjSrc\SrcDrfn\Chart\HWSTRATEGYCONFIGUREWIZARD\Control\LogicEditCtrl.cpp

; 105  : 			else if(Element.m_strValue==STRCLOSEPARENTHESISINLOGIC)

  0013b	75 26		 jne	 SHORT $LN2@DeleteElem

; 106  : 			{	
; 107  : 				if(!bAppendMode)

  0013d	85 f6		 test	 esi, esi
  0013f	75 11		 jne	 SHORT $LN17@DeleteElem

; 108  : 				{
; 109  : 					arrayStackParenthsis.RemoveAt(arrayStackParenthsis.GetSize()-1);

  00141	8b 45 c4	 mov	 eax, DWORD PTR _arrayStackParenthsis$[ebp+8]
  00144	8d 4d bc	 lea	 ecx, DWORD PTR _arrayStackParenthsis$[ebp]
  00147	6a 01		 push	 1
  00149	48		 dec	 eax
  0014a	50		 push	 eax
  0014b	e8 00 00 00 00	 call	 ?RemoveAt@CUIntArray@@QAEXHH@Z ; CUIntArray::RemoveAt

; 110  : 				}

  00150	eb 11		 jmp	 SHORT $LN2@DeleteElem
$LN17@DeleteElem:

; 111  : 				else
; 112  : 				{
; 113  : 					if(nCntRemainedToAppendParenthsis)

  00152	85 db		 test	 ebx, ebx
  00154	74 0d		 je	 SHORT $LN2@DeleteElem
; File C:\Program Files (x86)\Microsoft Visual Studio\2019\Community\VC\Tools\MSVC\14.29.30133\atlmfc\include\afxcoll.inl

; 180  : 		SetAtGrow(nIndex, newElement);

  00156	57		 push	 edi
  00157	ff 75 c4	 push	 DWORD PTR _arrayStackParenthsis$[ebp+8]
  0015a	8d 4d bc	 lea	 ecx, DWORD PTR _arrayStackParenthsis$[ebp]
  0015d	e8 00 00 00 00	 call	 ?SetAtGrow@CUIntArray@@QAEXHI@Z ; CUIntArray::SetAtGrow
; File D:\git\src\IBK\IBK_DRFN\ProjSrc\SrcDrfn\Chart\HWSTRATEGYCONFIGUREWIZARD\Control\LogicEditCtrl.cpp

; 116  : 						nCntRemainedToAppendParenthsis--;

  00162	4b		 dec	 ebx
$LN2@DeleteElem:

; 90   : 	int nPos = 0;
; 91   : 	for( nPos=0;nPos<nSize;nPos++)

  00163	8b 45 e4	 mov	 eax, DWORD PTR tv478[ebp]
  00166	47		 inc	 edi
  00167	8b 4d f0	 mov	 ecx, DWORD PTR _this$1$[ebp]
  0016a	83 c0 14	 add	 eax, 20			; 00000014H
  0016d	89 45 e4	 mov	 DWORD PTR tv478[ebp], eax
  00170	3b 7d ec	 cmp	 edi, DWORD PTR _nSize$1$[ebp]
  00173	0f 8c 17 ff ff
	ff		 jl	 $LL4@DeleteElem
$LN94@DeleteElem:

; 117  : 					}					
; 118  : 				}				
; 119  : 			}
; 120  : 		}
; 121  : 	}
; 122  : 
; 123  : 	// find Parenthsis fined..
; 124  : 	int nSizeOfStackParenthsis = arrayStackParenthsis.GetSize();
; 125  : 	for(nPos=nSizeOfStackParenthsis-1;nPos>=0;nPos--)

  00179	8b 75 c4	 mov	 esi, DWORD PTR _arrayStackParenthsis$[ebp+8]
  0017c	83 ee 01	 sub	 esi, 1
  0017f	78 2b		 js	 SHORT $LN91@DeleteElem
$LL7@DeleteElem:
; File C:\Program Files (x86)\Microsoft Visual Studio\2019\Community\VC\Tools\MSVC\14.29.30133\atlmfc\include\afxcoll.inl

; 160  : 		if( nIndex < 0 || nIndex >= m_nSize )

  00181	3b 75 c4	 cmp	 esi, DWORD PTR _arrayStackParenthsis$[ebp+8]
  00184	0f 8d f9 00 00
	00		 jge	 $LN59@DeleteElem
; File D:\git\src\IBK\IBK_DRFN\ProjSrc\SrcDrfn\Chart\HWSTRATEGYCONFIGUREWIZARD\Control\LogicEditCtrl.cpp

; 127  : 		m_arrayElement.RemoveAt(arrayStackParenthsis.GetAt(nPos));

  0018a	8b 45 c0	 mov	 eax, DWORD PTR _arrayStackParenthsis$[ebp+4]
  0018d	8d 99 80 00 00
	00		 lea	 ebx, DWORD PTR [ecx+128]
  00193	6a 01		 push	 1
  00195	8b cb		 mov	 ecx, ebx
  00197	89 5d e4	 mov	 DWORD PTR $T2[ebp], ebx
  0019a	ff 34 b0	 push	 DWORD PTR [eax+esi*4]
  0019d	e8 00 00 00 00	 call	 ?RemoveAt@?$CArray@VCElementInLogic@@AAV1@@@QAEXHH@Z ; CArray<CElementInLogic,CElementInLogic &>::RemoveAt
  001a2	83 ee 01	 sub	 esi, 1
  001a5	8b 4d f0	 mov	 ecx, DWORD PTR _this$1$[ebp]
  001a8	79 d7		 jns	 SHORT $LL7@DeleteElem

; 135  : 		if(Element.m_nType==ELEMENTINLOGIC&&Element.m_strValue==chElement)

  001aa	eb 09		 jmp	 SHORT $LN6@DeleteElem
$LN91@DeleteElem:
  001ac	8d 81 80 00 00
	00		 lea	 eax, DWORD PTR [ecx+128]
  001b2	89 45 e4	 mov	 DWORD PTR $T2[ebp], eax
$LN6@DeleteElem:

; 132  : 	for(nPos=0;nPos<nSize;nPos++)

  001b5	33 ff		 xor	 edi, edi
  001b7	39 7d ec	 cmp	 DWORD PTR _nSize$1$[ebp], edi
  001ba	0f 8e 9e 00 00
	00		 jle	 $LN9@DeleteElem
  001c0	33 db		 xor	 ebx, ebx
$LL10@DeleteElem:
; File C:\Program Files (x86)\Microsoft Visual Studio\2019\Community\VC\Tools\MSVC\14.29.30133\atlmfc\include\afxtempl.h

; 288  : 	if(nIndex >= 0 && nIndex < m_nSize)

  001c2	85 db		 test	 ebx, ebx
  001c4	0f 88 b9 00 00
	00		 js	 $LN59@DeleteElem
  001ca	3b b9 88 00 00
	00		 cmp	 edi, DWORD PTR [ecx+136]
  001d0	0f 8d ad 00 00
	00		 jge	 $LN59@DeleteElem

; 289  : 		return m_pData[nIndex];

  001d6	8b b1 84 00 00
	00		 mov	 esi, DWORD PTR [ecx+132]
  001dc	8d 4d d4	 lea	 ecx, DWORD PTR _Element$[ebp+4]
  001df	03 f3		 add	 esi, ebx
  001e1	8b 06		 mov	 eax, DWORD PTR [esi]
  001e3	89 45 d0	 mov	 DWORD PTR _Element$[ebp], eax
  001e6	8d 46 04	 lea	 eax, DWORD PTR [esi+4]
  001e9	50		 push	 eax
  001ea	ff 15 00 00 00
	00		 call	 DWORD PTR __imp_??4?$CStringT@DV?$StrTraitMFC_DLL@DV?$ChTraitsCRT@D@ATL@@@@@ATL@@QAEAAV01@ABV01@@Z
; File D:\git\src\IBK\IBK_DRFN\ProjSrc\SrcDrfn\Chart\HWSTRATEGYCONFIGUREWIZARD\Control\LogicEditCtrl.cpp

; 135  : 		if(Element.m_nType==ELEMENTINLOGIC&&Element.m_strValue==chElement)

  001f0	83 7d d0 01	 cmp	 DWORD PTR _Element$[ebp], 1
  001f4	8b 46 08	 mov	 eax, DWORD PTR [esi+8]
  001f7	89 45 d8	 mov	 DWORD PTR _Element$[ebp+8], eax
  001fa	8b 46 0c	 mov	 eax, DWORD PTR [esi+12]
  001fd	89 45 dc	 mov	 DWORD PTR _Element$[ebp+12], eax
  00200	8b 46 10	 mov	 eax, DWORD PTR [esi+16]
  00203	89 45 e0	 mov	 DWORD PTR _Element$[ebp+16], eax
  00206	75 19		 jne	 SHORT $LN8@DeleteElem
; File C:\Program Files (x86)\Microsoft Visual Studio\2019\Community\VC\Tools\MSVC\14.29.30133\atlmfc\include\cstringt.h

; 2510 : 		return((str1.GetLength() == 1) && (str1[0] == ch2));

  00208	8b 45 d4	 mov	 eax, DWORD PTR _Element$[ebp+4]
  0020b	83 78 f4 01	 cmp	 DWORD PTR [eax-12], 1
  0020f	75 10		 jne	 SHORT $LN8@DeleteElem
  00211	6a 00		 push	 0
  00213	8d 4d d4	 lea	 ecx, DWORD PTR _Element$[ebp+4]
  00216	ff 15 00 00 00
	00		 call	 DWORD PTR __imp_??A?$CSimpleStringT@D$00@ATL@@QBEDH@Z
  0021c	3a 45 08	 cmp	 al, BYTE PTR _chElement$[ebp]
  0021f	74 0e		 je	 SHORT $LN78@DeleteElem
$LN8@DeleteElem:
; File D:\git\src\IBK\IBK_DRFN\ProjSrc\SrcDrfn\Chart\HWSTRATEGYCONFIGUREWIZARD\Control\LogicEditCtrl.cpp

; 132  : 	for(nPos=0;nPos<nSize;nPos++)

  00221	47		 inc	 edi
  00222	83 c3 14	 add	 ebx, 20			; 00000014H
  00225	3b 7d ec	 cmp	 edi, DWORD PTR _nSize$1$[ebp]
  00228	7d 34		 jge	 SHORT $LN9@DeleteElem
  0022a	8b 4d f0	 mov	 ecx, DWORD PTR _this$1$[ebp]
  0022d	eb 93		 jmp	 SHORT $LL10@DeleteElem
$LN78@DeleteElem:

; 136  : 		{
; 137  : 			m_arrayElement.RemoveAt(nPos);

  0022f	8b 5d e4	 mov	 ebx, DWORD PTR $T2[ebp]
  00232	8b cb		 mov	 ecx, ebx
  00234	6a 01		 push	 1
  00236	57		 push	 edi
  00237	e8 00 00 00 00	 call	 ?RemoveAt@?$CArray@VCElementInLogic@@AAV1@@@QAEXHH@Z ; CArray<CElementInLogic,CElementInLogic &>::RemoveAt

; 138  : 			if(nSize!=1)

  0023c	83 7d ec 01	 cmp	 DWORD PTR _nSize$1$[ebp], 1
  00240	74 14		 je	 SHORT $LN23@DeleteElem

; 139  : 			{
; 140  : 				if(nPos==0)

  00242	8b cb		 mov	 ecx, ebx
  00244	6a 01		 push	 1
  00246	85 ff		 test	 edi, edi
  00248	75 03		 jne	 SHORT $LN22@DeleteElem

; 141  : 				{
; 142  : 					m_arrayElement.RemoveAt(nPos);

  0024a	57		 push	 edi

; 143  : 				}

  0024b	eb 04		 jmp	 SHORT $LN103@DeleteElem
$LN22@DeleteElem:

; 144  : 				else
; 145  : 				{
; 146  : 					m_arrayElement.RemoveAt(nPos-1);

  0024d	8d 47 ff	 lea	 eax, DWORD PTR [edi-1]
  00250	50		 push	 eax
$LN103@DeleteElem:

; 147  : 				}				
; 148  : 			}
; 149  : 			UpdateLogic();

  00251	e8 00 00 00 00	 call	 ?RemoveAt@?$CArray@VCElementInLogic@@AAV1@@@QAEXHH@Z ; CArray<CElementInLogic,CElementInLogic &>::RemoveAt
$LN23@DeleteElem:
  00256	8b 4d f0	 mov	 ecx, DWORD PTR _this$1$[ebp]
  00259	e8 00 00 00 00	 call	 ?UpdateLogic@CLogicEditCtrl@@AAEXXZ ; CLogicEditCtrl::UpdateLogic
$LN9@DeleteElem:

; 153  : }

  0025e	8d 4d d4	 lea	 ecx, DWORD PTR _Element$[ebp+4]
  00261	ff 15 00 00 00
	00		 call	 DWORD PTR __imp_??1?$CStringT@DV?$StrTraitMFC_DLL@DV?$ChTraitsCRT@D@ATL@@@@@ATL@@QAE@XZ
  00267	8d 4d bc	 lea	 ecx, DWORD PTR _arrayStackParenthsis$[ebp]
  0026a	e8 00 00 00 00	 call	 ??1CUIntArray@@UAE@XZ	; CUIntArray::~CUIntArray
  0026f	8b 4d f4	 mov	 ecx, DWORD PTR __$EHRec$[ebp]
  00272	64 89 0d 00 00
	00 00		 mov	 DWORD PTR fs:0, ecx
  00279	59		 pop	 ecx
  0027a	5f		 pop	 edi
  0027b	5e		 pop	 esi
  0027c	5b		 pop	 ebx
  0027d	8b e5		 mov	 esp, ebp
  0027f	5d		 pop	 ebp
  00280	c2 04 00	 ret	 4
$LN59@DeleteElem:
; File C:\Program Files (x86)\Microsoft Visual Studio\2019\Community\VC\Tools\MSVC\14.29.30133\atlmfc\include\afxtempl.h

; 290  : 	AfxThrowInvalidArgException();

  00283	e8 00 00 00 00	 call	 ?AfxThrowInvalidArgException@@YGXXZ ; AfxThrowInvalidArgException
$LN102@DeleteElem:
  00288	cc		 int	 3
_TEXT	ENDS
;	COMDAT text$x
text$x	SEGMENT
__unwindfunclet$?DeleteElement@CLogicEditCtrl@@QAEXD@Z$0:
  00000	8d 4d bc	 lea	 ecx, DWORD PTR _arrayStackParenthsis$[ebp]
  00003	e9 00 00 00 00	 jmp	 ??1CUIntArray@@UAE@XZ	; CUIntArray::~CUIntArray
__unwindfunclet$?DeleteElement@CLogicEditCtrl@@QAEXD@Z$2:
  00008	8d 4d d4	 lea	 ecx, DWORD PTR _Element$[ebp+4]
  0000b	ff 25 00 00 00
	00		 jmp	 DWORD PTR __imp_??1?$CStringT@DV?$StrTraitMFC_DLL@DV?$ChTraitsCRT@D@ATL@@@@@ATL@@QAE@XZ
__unwindfunclet$?DeleteElement@CLogicEditCtrl@@QAEXD@Z$1:
  00011	8d 4d d0	 lea	 ecx, DWORD PTR _Element$[ebp]
  00014	e9 00 00 00 00	 jmp	 ??1CElementInLogic@@QAE@XZ
  00019	cc		 int	 3
  0001a	cc		 int	 3
  0001b	cc		 int	 3
  0001c	cc		 int	 3
  0001d	cc		 int	 3
__ehhandler$?DeleteElement@CLogicEditCtrl@@QAEXD@Z:
  0001e	90		 npad	 1
  0001f	90		 npad	 1
  00020	8b 54 24 08	 mov	 edx, DWORD PTR [esp+8]
  00024	8d 42 0c	 lea	 eax, DWORD PTR [edx+12]
  00027	8b 4a b8	 mov	 ecx, DWORD PTR [edx-72]
  0002a	33 c8		 xor	 ecx, eax
  0002c	e8 00 00 00 00	 call	 @__security_check_cookie@4
  00031	b8 00 00 00 00	 mov	 eax, OFFSET __ehfuncinfo$?DeleteElement@CLogicEditCtrl@@QAEXD@Z
  00036	e9 00 00 00 00	 jmp	 ___CxxFrameHandler3
text$x	ENDS
?DeleteElement@CLogicEditCtrl@@QAEXD@Z ENDP		; CLogicEditCtrl::DeleteElement
; Function compile flags: /Ogtp
; File D:\git\src\IBK\IBK_DRFN\ProjSrc\SrcDrfn\Chart\HWSTRATEGYCONFIGUREWIZARD\Control\LogicEditCtrl.cpp
; File D:\git\src\IBK\IBK_DRFN\ProjSrc\SrcDrfn\Chart\HWSTRATEGYCONFIGUREWIZARD\Control\LogicEditCtrl.h
; File D:\git\src\IBK\IBK_DRFN\ProjSrc\SrcDrfn\Chart\HWSTRATEGYCONFIGUREWIZARD\Control\LogicEditCtrl.cpp
; File D:\git\src\IBK\IBK_DRFN\ProjSrc\SrcDrfn\Chart\HWSTRATEGYCONFIGUREWIZARD\Control\LogicEditCtrl.h
; File D:\git\src\IBK\IBK_DRFN\ProjSrc\SrcDrfn\Chart\HWSTRATEGYCONFIGUREWIZARD\Control\LogicEditCtrl.cpp
; File D:\git\src\IBK\IBK_DRFN\ProjSrc\SrcDrfn\Chart\HWSTRATEGYCONFIGUREWIZARD\Control\LogicEditCtrl.h
; File C:\Program Files (x86)\Microsoft Visual Studio\2019\Community\VC\Tools\MSVC\14.29.30133\atlmfc\include\afxtempl.h
; File D:\git\src\IBK\IBK_DRFN\ProjSrc\SrcDrfn\Chart\HWSTRATEGYCONFIGUREWIZARD\Control\LogicEditCtrl.cpp
; File C:\Program Files (x86)\Microsoft Visual Studio\2019\Community\VC\Tools\MSVC\14.29.30133\atlmfc\include\cstringt.h
; File D:\git\src\IBK\IBK_DRFN\ProjSrc\SrcDrfn\Chart\HWSTRATEGYCONFIGUREWIZARD\Control\LogicEditCtrl.cpp
; File C:\Program Files (x86)\Microsoft Visual Studio\2019\Community\VC\Tools\MSVC\14.29.30133\atlmfc\include\cstringt.h
; File D:\git\src\IBK\IBK_DRFN\ProjSrc\SrcDrfn\Chart\HWSTRATEGYCONFIGUREWIZARD\Control\LogicEditCtrl.cpp
; File C:\Program Files (x86)\Microsoft Visual Studio\2019\Community\VC\Tools\MSVC\14.29.30133\atlmfc\include\cstringt.h
; File D:\git\src\IBK\IBK_DRFN\ProjSrc\SrcDrfn\Chart\HWSTRATEGYCONFIGUREWIZARD\Control\LogicEditCtrl.cpp
; File C:\Program Files (x86)\Microsoft Visual Studio\2019\Community\VC\Tools\MSVC\14.29.30133\atlmfc\include\afxtempl.h
; File D:\git\src\IBK\IBK_DRFN\ProjSrc\SrcDrfn\Chart\HWSTRATEGYCONFIGUREWIZARD\Control\LogicEditCtrl.cpp
; File C:\Program Files (x86)\Microsoft Visual Studio\2019\Community\VC\Tools\MSVC\14.29.30133\atlmfc\include\afxtempl.h
; File D:\git\src\IBK\IBK_DRFN\ProjSrc\SrcDrfn\Chart\HWSTRATEGYCONFIGUREWIZARD\Control\LogicEditCtrl.cpp
;	COMDAT ?SwapElement@CLogicEditCtrl@@QAEXDD@Z
_TEXT	SEGMENT
_Element1$ = -88					; size = 20
_Element2$ = -68					; size = 20
_ElementTemp$ = -48					; size = 20
_nSize$1$ = -28						; size = 4
_this$1$ = -24						; size = 4
_nPos2$1$ = -20						; size = 4
_nPos1$1$ = -16						; size = 4
__$EHRec$ = -12						; size = 12
_chElement1$ = 8					; size = 1
_chElement2$ = 12					; size = 1
?SwapElement@CLogicEditCtrl@@QAEXDD@Z PROC		; CLogicEditCtrl::SwapElement, COMDAT
; _this$ = ecx

; 450  : {

  00000	55		 push	 ebp
  00001	8b ec		 mov	 ebp, esp
  00003	6a ff		 push	 -1
  00005	68 00 00 00 00	 push	 __ehhandler$?SwapElement@CLogicEditCtrl@@QAEXDD@Z
  0000a	64 a1 00 00 00
	00		 mov	 eax, DWORD PTR fs:0
  00010	50		 push	 eax
  00011	83 ec 4c	 sub	 esp, 76			; 0000004cH
  00014	53		 push	 ebx
  00015	56		 push	 esi
  00016	57		 push	 edi
  00017	a1 00 00 00 00	 mov	 eax, DWORD PTR ___security_cookie
  0001c	33 c5		 xor	 eax, ebp
  0001e	50		 push	 eax
  0001f	8d 45 f4	 lea	 eax, DWORD PTR __$EHRec$[ebp]
  00022	64 a3 00 00 00
	00		 mov	 DWORD PTR fs:0, eax
  00028	8b f1		 mov	 esi, ecx
  0002a	89 75 e8	 mov	 DWORD PTR _this$1$[ebp], esi
; File D:\git\src\IBK\IBK_DRFN\ProjSrc\SrcDrfn\Chart\HWSTRATEGYCONFIGUREWIZARD\Control\LogicEditCtrl.h

; 17   : 	CElementInLogic() 

  0002d	8d 4d ac	 lea	 ecx, DWORD PTR _Element1$[ebp+4]
  00030	ff 15 00 00 00
	00		 call	 DWORD PTR __imp_??0?$CStringT@DV?$StrTraitMFC_DLL@DV?$ChTraitsCRT@D@ATL@@@@@ATL@@QAE@XZ

; 27   : 		m_strValue = "";

  00036	68 00 00 00 00	 push	 OFFSET ??_C@_00CNPNBAHC@@
  0003b	8d 4d ac	 lea	 ecx, DWORD PTR _Element1$[ebp+4]

; 17   : 	CElementInLogic() 

  0003e	c7 45 fc 00 00
	00 00		 mov	 DWORD PTR __$EHRec$[ebp+8], 0

; 23   : 		m_nType = 0;

  00045	c7 45 a8 00 00
	00 00		 mov	 DWORD PTR _Element1$[ebp], 0

; 24   : 		m_bTRUE = TRUE;

  0004c	c7 45 b0 01 00
	00 00		 mov	 DWORD PTR _Element1$[ebp+8], 1

; 25   : 		m_nStartChar = 0;

  00053	c7 45 b4 00 00
	00 00		 mov	 DWORD PTR _Element1$[ebp+12], 0

; 26   : 		m_nEndChar = 0;

  0005a	c7 45 b8 00 00
	00 00		 mov	 DWORD PTR _Element1$[ebp+16], 0

; 27   : 		m_strValue = "";

  00061	ff 15 00 00 00
	00		 call	 DWORD PTR __imp_??4?$CStringT@DV?$StrTraitMFC_DLL@DV?$ChTraitsCRT@D@ATL@@@@@ATL@@QAEAAV01@PBD@Z

; 17   : 	CElementInLogic() 

  00067	8d 4d c0	 lea	 ecx, DWORD PTR _Element2$[ebp+4]
; File D:\git\src\IBK\IBK_DRFN\ProjSrc\SrcDrfn\Chart\HWSTRATEGYCONFIGUREWIZARD\Control\LogicEditCtrl.cpp

; 451  : 	CElementInLogic Element1;

  0006a	c7 45 fc 01 00
	00 00		 mov	 DWORD PTR __$EHRec$[ebp+8], 1
; File D:\git\src\IBK\IBK_DRFN\ProjSrc\SrcDrfn\Chart\HWSTRATEGYCONFIGUREWIZARD\Control\LogicEditCtrl.h

; 17   : 	CElementInLogic() 

  00071	ff 15 00 00 00
	00		 call	 DWORD PTR __imp_??0?$CStringT@DV?$StrTraitMFC_DLL@DV?$ChTraitsCRT@D@ATL@@@@@ATL@@QAE@XZ

; 27   : 		m_strValue = "";

  00077	68 00 00 00 00	 push	 OFFSET ??_C@_00CNPNBAHC@@
  0007c	8d 4d c0	 lea	 ecx, DWORD PTR _Element2$[ebp+4]

; 17   : 	CElementInLogic() 

  0007f	c6 45 fc 02	 mov	 BYTE PTR __$EHRec$[ebp+8], 2

; 23   : 		m_nType = 0;

  00083	c7 45 bc 00 00
	00 00		 mov	 DWORD PTR _Element2$[ebp], 0

; 24   : 		m_bTRUE = TRUE;

  0008a	c7 45 c4 01 00
	00 00		 mov	 DWORD PTR _Element2$[ebp+8], 1

; 25   : 		m_nStartChar = 0;

  00091	c7 45 c8 00 00
	00 00		 mov	 DWORD PTR _Element2$[ebp+12], 0

; 26   : 		m_nEndChar = 0;

  00098	c7 45 cc 00 00
	00 00		 mov	 DWORD PTR _Element2$[ebp+16], 0

; 27   : 		m_strValue = "";

  0009f	ff 15 00 00 00
	00		 call	 DWORD PTR __imp_??4?$CStringT@DV?$StrTraitMFC_DLL@DV?$ChTraitsCRT@D@ATL@@@@@ATL@@QAEAAV01@PBD@Z

; 17   : 	CElementInLogic() 

  000a5	8d 4d d4	 lea	 ecx, DWORD PTR _ElementTemp$[ebp+4]
  000a8	ff 15 00 00 00
	00		 call	 DWORD PTR __imp_??0?$CStringT@DV?$StrTraitMFC_DLL@DV?$ChTraitsCRT@D@ATL@@@@@ATL@@QAE@XZ

; 27   : 		m_strValue = "";

  000ae	68 00 00 00 00	 push	 OFFSET ??_C@_00CNPNBAHC@@
  000b3	8d 4d d4	 lea	 ecx, DWORD PTR _ElementTemp$[ebp+4]

; 17   : 	CElementInLogic() 

  000b6	c6 45 fc 04	 mov	 BYTE PTR __$EHRec$[ebp+8], 4

; 23   : 		m_nType = 0;

  000ba	c7 45 d0 00 00
	00 00		 mov	 DWORD PTR _ElementTemp$[ebp], 0

; 24   : 		m_bTRUE = TRUE;

  000c1	c7 45 d8 01 00
	00 00		 mov	 DWORD PTR _ElementTemp$[ebp+8], 1

; 25   : 		m_nStartChar = 0;

  000c8	c7 45 dc 00 00
	00 00		 mov	 DWORD PTR _ElementTemp$[ebp+12], 0

; 26   : 		m_nEndChar = 0;

  000cf	c7 45 e0 00 00
	00 00		 mov	 DWORD PTR _ElementTemp$[ebp+16], 0

; 27   : 		m_strValue = "";

  000d6	ff 15 00 00 00
	00		 call	 DWORD PTR __imp_??4?$CStringT@DV?$StrTraitMFC_DLL@DV?$ChTraitsCRT@D@ATL@@@@@ATL@@QAEAAV01@PBD@Z
; File D:\git\src\IBK\IBK_DRFN\ProjSrc\SrcDrfn\Chart\HWSTRATEGYCONFIGUREWIZARD\Control\LogicEditCtrl.cpp

; 454  : 	int nPos1 = -1;

  000dc	83 c8 ff	 or	 eax, -1
  000df	c6 45 fc 05	 mov	 BYTE PTR __$EHRec$[ebp+8], 5
  000e3	89 45 f0	 mov	 DWORD PTR _nPos1$1$[ebp], eax

; 457  : 	for(int nPos=0;nPos<nSize;nPos++)

  000e6	33 ff		 xor	 edi, edi
  000e8	89 45 ec	 mov	 DWORD PTR _nPos2$1$[ebp], eax
  000eb	8b 86 88 00 00
	00		 mov	 eax, DWORD PTR [esi+136]
  000f1	89 45 e4	 mov	 DWORD PTR _nSize$1$[ebp], eax
  000f4	85 c0		 test	 eax, eax
  000f6	0f 8e 9b 01 00
	00		 jle	 $LN9@SwapElemen
; File D:\git\src\IBK\IBK_DRFN\ProjSrc\SrcDrfn\Chart\HWSTRATEGYCONFIGUREWIZARD\Control\LogicEditCtrl.h

; 17   : 	CElementInLogic() 

  000fc	33 db		 xor	 ebx, ebx
  000fe	66 90		 npad	 2
$LL4@SwapElemen:
; File C:\Program Files (x86)\Microsoft Visual Studio\2019\Community\VC\Tools\MSVC\14.29.30133\atlmfc\include\afxtempl.h

; 288  : 	if(nIndex >= 0 && nIndex < m_nSize)

  00100	85 db		 test	 ebx, ebx
  00102	0f 88 be 01 00
	00		 js	 $LN56@SwapElemen
  00108	3b be 88 00 00
	00		 cmp	 edi, DWORD PTR [esi+136]
  0010e	0f 8d b2 01 00
	00		 jge	 $LN56@SwapElemen

; 289  : 		return m_pData[nIndex];

  00114	8b b6 84 00 00
	00		 mov	 esi, DWORD PTR [esi+132]
  0011a	8d 4d d4	 lea	 ecx, DWORD PTR _ElementTemp$[ebp+4]
  0011d	03 f3		 add	 esi, ebx
  0011f	8b 06		 mov	 eax, DWORD PTR [esi]
  00121	89 45 d0	 mov	 DWORD PTR _ElementTemp$[ebp], eax
  00124	8d 46 04	 lea	 eax, DWORD PTR [esi+4]
  00127	50		 push	 eax
  00128	ff 15 00 00 00
	00		 call	 DWORD PTR __imp_??4?$CStringT@DV?$StrTraitMFC_DLL@DV?$ChTraitsCRT@D@ATL@@@@@ATL@@QAEAAV01@ABV01@@Z
; File D:\git\src\IBK\IBK_DRFN\ProjSrc\SrcDrfn\Chart\HWSTRATEGYCONFIGUREWIZARD\Control\LogicEditCtrl.cpp

; 460  : 		if(ElementTemp.m_nType==ELEMENTINLOGIC)

  0012e	83 7d d0 01	 cmp	 DWORD PTR _ElementTemp$[ebp], 1
  00132	8b 46 08	 mov	 eax, DWORD PTR [esi+8]
  00135	89 45 d8	 mov	 DWORD PTR _ElementTemp$[ebp+8], eax
  00138	8b 46 0c	 mov	 eax, DWORD PTR [esi+12]
  0013b	89 45 dc	 mov	 DWORD PTR _ElementTemp$[ebp+12], eax
  0013e	8b 46 10	 mov	 eax, DWORD PTR [esi+16]
  00141	89 45 e0	 mov	 DWORD PTR _ElementTemp$[ebp+16], eax
  00144	0f 85 99 00 00
	00		 jne	 $LN85@SwapElemen
; File C:\Program Files (x86)\Microsoft Visual Studio\2019\Community\VC\Tools\MSVC\14.29.30133\atlmfc\include\cstringt.h

; 2510 : 		return((str1.GetLength() == 1) && (str1[0] == ch2));

  0014a	8b 45 d4	 mov	 eax, DWORD PTR _ElementTemp$[ebp+4]
  0014d	83 78 f4 01	 cmp	 DWORD PTR [eax-12], 1
  00151	0f 85 84 00 00
	00		 jne	 $LN84@SwapElemen
  00157	6a 00		 push	 0
  00159	8d 4d d4	 lea	 ecx, DWORD PTR _ElementTemp$[ebp+4]
  0015c	ff 15 00 00 00
	00		 call	 DWORD PTR __imp_??A?$CSimpleStringT@D$00@ATL@@QBEDH@Z
  00162	3a 45 08	 cmp	 al, BYTE PTR _chElement1$[ebp]
  00165	75 2c		 jne	 SHORT $LN82@SwapElemen
; File D:\git\src\IBK\IBK_DRFN\ProjSrc\SrcDrfn\Chart\HWSTRATEGYCONFIGUREWIZARD\Control\LogicEditCtrl.cpp

; 465  : 				nPos1 = nPos;

  00167	8b 45 d0	 mov	 eax, DWORD PTR _ElementTemp$[ebp]
  0016a	8d 4d ac	 lea	 ecx, DWORD PTR _Element1$[ebp+4]
  0016d	89 45 a8	 mov	 DWORD PTR _Element1$[ebp], eax
  00170	8d 45 d4	 lea	 eax, DWORD PTR _ElementTemp$[ebp+4]
  00173	50		 push	 eax
  00174	ff 15 00 00 00
	00		 call	 DWORD PTR __imp_??4?$CStringT@DV?$StrTraitMFC_DLL@DV?$ChTraitsCRT@D@ATL@@@@@ATL@@QAEAAV01@ABV01@@Z
  0017a	8b 45 d8	 mov	 eax, DWORD PTR _ElementTemp$[ebp+8]
  0017d	8b cf		 mov	 ecx, edi
  0017f	89 45 b0	 mov	 DWORD PTR _Element1$[ebp+8], eax
  00182	8b 45 dc	 mov	 eax, DWORD PTR _ElementTemp$[ebp+12]
  00185	89 45 b4	 mov	 DWORD PTR _Element1$[ebp+12], eax
  00188	8b 45 e0	 mov	 eax, DWORD PTR _ElementTemp$[ebp+16]
  0018b	89 45 b8	 mov	 DWORD PTR _Element1$[ebp+16], eax
  0018e	89 4d f0	 mov	 DWORD PTR _nPos1$1$[ebp], ecx

; 466  : 			}

  00191	eb 53		 jmp	 SHORT $LN89@SwapElemen
$LN82@SwapElemen:
; File C:\Program Files (x86)\Microsoft Visual Studio\2019\Community\VC\Tools\MSVC\14.29.30133\atlmfc\include\cstringt.h

; 2510 : 		return((str1.GetLength() == 1) && (str1[0] == ch2));

  00193	8b 45 d4	 mov	 eax, DWORD PTR _ElementTemp$[ebp+4]
  00196	83 78 f4 01	 cmp	 DWORD PTR [eax-12], 1
  0019a	75 3f		 jne	 SHORT $LN84@SwapElemen
  0019c	6a 00		 push	 0
  0019e	8d 4d d4	 lea	 ecx, DWORD PTR _ElementTemp$[ebp+4]
  001a1	ff 15 00 00 00
	00		 call	 DWORD PTR __imp_??A?$CSimpleStringT@D$00@ATL@@QBEDH@Z
  001a7	3a 45 0c	 cmp	 al, BYTE PTR _chElement2$[ebp]
  001aa	75 37		 jne	 SHORT $LN85@SwapElemen
; File D:\git\src\IBK\IBK_DRFN\ProjSrc\SrcDrfn\Chart\HWSTRATEGYCONFIGUREWIZARD\Control\LogicEditCtrl.cpp

; 457  : 	for(int nPos=0;nPos<nSize;nPos++)

  001ac	8b 45 d0	 mov	 eax, DWORD PTR _ElementTemp$[ebp]
  001af	8d 4d c0	 lea	 ecx, DWORD PTR _Element2$[ebp+4]
  001b2	89 45 bc	 mov	 DWORD PTR _Element2$[ebp], eax
  001b5	8d 45 d4	 lea	 eax, DWORD PTR _ElementTemp$[ebp+4]
  001b8	50		 push	 eax
  001b9	ff 15 00 00 00
	00		 call	 DWORD PTR __imp_??4?$CStringT@DV?$StrTraitMFC_DLL@DV?$ChTraitsCRT@D@ATL@@@@@ATL@@QAEAAV01@ABV01@@Z
  001bf	8b 45 d8	 mov	 eax, DWORD PTR _ElementTemp$[ebp+8]
  001c2	8b 4d f0	 mov	 ecx, DWORD PTR _nPos1$1$[ebp]
  001c5	89 45 c4	 mov	 DWORD PTR _Element2$[ebp+8], eax
  001c8	8b 45 dc	 mov	 eax, DWORD PTR _ElementTemp$[ebp+12]
  001cb	89 45 c8	 mov	 DWORD PTR _Element2$[ebp+12], eax
  001ce	8b 45 e0	 mov	 eax, DWORD PTR _ElementTemp$[ebp+16]
  001d1	89 45 cc	 mov	 DWORD PTR _Element2$[ebp+16], eax

; 467  : 			else if(ElementTemp.m_strValue==chElement2)
; 468  : 			{
; 469  : 				Element2 = ElementTemp;
; 470  : 				nPos2 = nPos;

  001d4	8b c7		 mov	 eax, edi
  001d6	89 45 ec	 mov	 DWORD PTR _nPos2$1$[ebp], eax
  001d9	eb 0e		 jmp	 SHORT $LN2@SwapElemen
$LN84@SwapElemen:
; File C:\Program Files (x86)\Microsoft Visual Studio\2019\Community\VC\Tools\MSVC\14.29.30133\atlmfc\include\cstringt.h

; 2510 : 		return((str1.GetLength() == 1) && (str1[0] == ch2));

  001db	8b 45 ec	 mov	 eax, DWORD PTR _nPos2$1$[ebp]
; File D:\git\src\IBK\IBK_DRFN\ProjSrc\SrcDrfn\Chart\HWSTRATEGYCONFIGUREWIZARD\Control\LogicEditCtrl.cpp

; 457  : 	for(int nPos=0;nPos<nSize;nPos++)

  001de	8b 4d f0	 mov	 ecx, DWORD PTR _nPos1$1$[ebp]
  001e1	eb 06		 jmp	 SHORT $LN2@SwapElemen
$LN85@SwapElemen:
  001e3	8b 4d f0	 mov	 ecx, DWORD PTR _nPos1$1$[ebp]
$LN89@SwapElemen:
  001e6	8b 45 ec	 mov	 eax, DWORD PTR _nPos2$1$[ebp]
$LN2@SwapElemen:
  001e9	8b 75 e8	 mov	 esi, DWORD PTR _this$1$[ebp]
  001ec	47		 inc	 edi
  001ed	83 c3 14	 add	 ebx, 20			; 00000014H
  001f0	3b 7d e4	 cmp	 edi, DWORD PTR _nSize$1$[ebp]
  001f3	0f 8c 07 ff ff
	ff		 jl	 $LL4@SwapElemen

; 471  : 			}
; 472  : 		}
; 473  : 	}
; 474  : 	if(nPos1!=-1&&nPos2!=-1)

  001f9	83 f9 ff	 cmp	 ecx, -1
  001fc	0f 84 95 00 00
	00		 je	 $LN9@SwapElemen
  00202	83 f8 ff	 cmp	 eax, -1
  00205	0f 84 8c 00 00
	00		 je	 $LN9@SwapElemen
; File C:\Program Files (x86)\Microsoft Visual Studio\2019\Community\VC\Tools\MSVC\14.29.30133\atlmfc\include\afxtempl.h

; 304  : 	if(nIndex >= 0 && nIndex < m_nSize)

  0020b	85 c0		 test	 eax, eax
  0020d	0f 88 b3 00 00
	00		 js	 $LN56@SwapElemen
  00213	8b fe		 mov	 edi, esi
  00215	3b 87 88 00 00
	00		 cmp	 eax, DWORD PTR [edi+136]
  0021b	0f 8d a5 00 00
	00		 jge	 $LN56@SwapElemen

; 305  : 		m_pData[nIndex] = newElement;

  00221	8d 0c 80	 lea	 ecx, DWORD PTR [eax+eax*4]
  00224	8b 87 84 00 00
	00		 mov	 eax, DWORD PTR [edi+132]
  0022a	8d 34 88	 lea	 esi, DWORD PTR [eax+ecx*4]
  0022d	8b 45 a8	 mov	 eax, DWORD PTR _Element1$[ebp]
  00230	89 06		 mov	 DWORD PTR [esi], eax
  00232	8d 4e 04	 lea	 ecx, DWORD PTR [esi+4]
  00235	8d 45 ac	 lea	 eax, DWORD PTR _Element1$[ebp+4]
  00238	50		 push	 eax
  00239	ff 15 00 00 00
	00		 call	 DWORD PTR __imp_??4?$CStringT@DV?$StrTraitMFC_DLL@DV?$ChTraitsCRT@D@ATL@@@@@ATL@@QAEAAV01@ABV01@@Z
  0023f	8b 45 b0	 mov	 eax, DWORD PTR _Element1$[ebp+8]
  00242	89 46 08	 mov	 DWORD PTR [esi+8], eax
  00245	8b 45 b4	 mov	 eax, DWORD PTR _Element1$[ebp+12]
  00248	89 46 0c	 mov	 DWORD PTR [esi+12], eax
  0024b	8b 45 b8	 mov	 eax, DWORD PTR _Element1$[ebp+16]
  0024e	89 46 10	 mov	 DWORD PTR [esi+16], eax

; 304  : 	if(nIndex >= 0 && nIndex < m_nSize)

  00251	8b 45 f0	 mov	 eax, DWORD PTR _nPos1$1$[ebp]
  00254	85 c0		 test	 eax, eax
  00256	78 6e		 js	 SHORT $LN56@SwapElemen
  00258	3b 87 88 00 00
	00		 cmp	 eax, DWORD PTR [edi+136]
  0025e	7d 66		 jge	 SHORT $LN56@SwapElemen

; 305  : 		m_pData[nIndex] = newElement;

  00260	8d 0c 80	 lea	 ecx, DWORD PTR [eax+eax*4]
  00263	8b 87 84 00 00
	00		 mov	 eax, DWORD PTR [edi+132]
  00269	8d 34 88	 lea	 esi, DWORD PTR [eax+ecx*4]
  0026c	8b 45 bc	 mov	 eax, DWORD PTR _Element2$[ebp]
  0026f	89 06		 mov	 DWORD PTR [esi], eax
  00271	8d 4e 04	 lea	 ecx, DWORD PTR [esi+4]
  00274	8d 45 c0	 lea	 eax, DWORD PTR _Element2$[ebp+4]
  00277	50		 push	 eax
  00278	ff 15 00 00 00
	00		 call	 DWORD PTR __imp_??4?$CStringT@DV?$StrTraitMFC_DLL@DV?$ChTraitsCRT@D@ATL@@@@@ATL@@QAEAAV01@ABV01@@Z
  0027e	8b 45 c4	 mov	 eax, DWORD PTR _Element2$[ebp+8]
; File D:\git\src\IBK\IBK_DRFN\ProjSrc\SrcDrfn\Chart\HWSTRATEGYCONFIGUREWIZARD\Control\LogicEditCtrl.cpp

; 478  : 		UpdateLogic();

  00281	8b cf		 mov	 ecx, edi
  00283	89 46 08	 mov	 DWORD PTR [esi+8], eax
  00286	8b 45 c8	 mov	 eax, DWORD PTR _Element2$[ebp+12]
  00289	89 46 0c	 mov	 DWORD PTR [esi+12], eax
  0028c	8b 45 cc	 mov	 eax, DWORD PTR _Element2$[ebp+16]
  0028f	89 46 10	 mov	 DWORD PTR [esi+16], eax
  00292	e8 00 00 00 00	 call	 ?UpdateLogic@CLogicEditCtrl@@AAEXXZ ; CLogicEditCtrl::UpdateLogic
$LN9@SwapElemen:
  00297	8d 4d d4	 lea	 ecx, DWORD PTR _ElementTemp$[ebp+4]
  0029a	ff 15 00 00 00
	00		 call	 DWORD PTR __imp_??1?$CStringT@DV?$StrTraitMFC_DLL@DV?$ChTraitsCRT@D@ATL@@@@@ATL@@QAE@XZ
  002a0	8d 4d c0	 lea	 ecx, DWORD PTR _Element2$[ebp+4]
  002a3	ff 15 00 00 00
	00		 call	 DWORD PTR __imp_??1?$CStringT@DV?$StrTraitMFC_DLL@DV?$ChTraitsCRT@D@ATL@@@@@ATL@@QAE@XZ
  002a9	8d 4d ac	 lea	 ecx, DWORD PTR _Element1$[ebp+4]
  002ac	ff 15 00 00 00
	00		 call	 DWORD PTR __imp_??1?$CStringT@DV?$StrTraitMFC_DLL@DV?$ChTraitsCRT@D@ATL@@@@@ATL@@QAE@XZ

; 480  : }

  002b2	8b 4d f4	 mov	 ecx, DWORD PTR __$EHRec$[ebp]
  002b5	64 89 0d 00 00
	00 00		 mov	 DWORD PTR fs:0, ecx
  002bc	59		 pop	 ecx
  002bd	5f		 pop	 edi
  002be	5e		 pop	 esi
  002bf	5b		 pop	 ebx
  002c0	8b e5		 mov	 esp, ebp
  002c2	5d		 pop	 ebp
  002c3	c2 08 00	 ret	 8
$LN56@SwapElemen:
; File C:\Program Files (x86)\Microsoft Visual Studio\2019\Community\VC\Tools\MSVC\14.29.30133\atlmfc\include\afxtempl.h

; 307  : 		AfxThrowInvalidArgException();

  002c6	e8 00 00 00 00	 call	 ?AfxThrowInvalidArgException@@YGXXZ ; AfxThrowInvalidArgException
$LN87@SwapElemen:
  002cb	cc		 int	 3
_TEXT	ENDS
;	COMDAT text$x
text$x	SEGMENT
__unwindfunclet$?SwapElement@CLogicEditCtrl@@QAEXDD@Z$3:
  00000	8d 4d ac	 lea	 ecx, DWORD PTR _Element1$[ebp+4]
  00003	ff 25 00 00 00
	00		 jmp	 DWORD PTR __imp_??1?$CStringT@DV?$StrTraitMFC_DLL@DV?$ChTraitsCRT@D@ATL@@@@@ATL@@QAE@XZ
__unwindfunclet$?SwapElement@CLogicEditCtrl@@QAEXDD@Z$0:
  00009	8d 4d a8	 lea	 ecx, DWORD PTR _Element1$[ebp]
  0000c	e9 00 00 00 00	 jmp	 ??1CElementInLogic@@QAE@XZ
__unwindfunclet$?SwapElement@CLogicEditCtrl@@QAEXDD@Z$4:
  00011	8d 4d c0	 lea	 ecx, DWORD PTR _Element2$[ebp+4]
  00014	ff 25 00 00 00
	00		 jmp	 DWORD PTR __imp_??1?$CStringT@DV?$StrTraitMFC_DLL@DV?$ChTraitsCRT@D@ATL@@@@@ATL@@QAE@XZ
__unwindfunclet$?SwapElement@CLogicEditCtrl@@QAEXDD@Z$1:
  0001a	8d 4d bc	 lea	 ecx, DWORD PTR _Element2$[ebp]
  0001d	e9 00 00 00 00	 jmp	 ??1CElementInLogic@@QAE@XZ
__unwindfunclet$?SwapElement@CLogicEditCtrl@@QAEXDD@Z$5:
  00022	8d 4d d4	 lea	 ecx, DWORD PTR _ElementTemp$[ebp+4]
  00025	ff 25 00 00 00
	00		 jmp	 DWORD PTR __imp_??1?$CStringT@DV?$StrTraitMFC_DLL@DV?$ChTraitsCRT@D@ATL@@@@@ATL@@QAE@XZ
__unwindfunclet$?SwapElement@CLogicEditCtrl@@QAEXDD@Z$2:
  0002b	8d 4d d0	 lea	 ecx, DWORD PTR _ElementTemp$[ebp]
  0002e	e9 00 00 00 00	 jmp	 ??1CElementInLogic@@QAE@XZ
  00033	cc		 int	 3
  00034	cc		 int	 3
  00035	cc		 int	 3
  00036	cc		 int	 3
  00037	cc		 int	 3
__ehhandler$?SwapElement@CLogicEditCtrl@@QAEXDD@Z:
  00038	90		 npad	 1
  00039	90		 npad	 1
  0003a	8b 54 24 08	 mov	 edx, DWORD PTR [esp+8]
  0003e	8d 42 0c	 lea	 eax, DWORD PTR [edx+12]
  00041	8b 4a a4	 mov	 ecx, DWORD PTR [edx-92]
  00044	33 c8		 xor	 ecx, eax
  00046	e8 00 00 00 00	 call	 @__security_check_cookie@4
  0004b	b8 00 00 00 00	 mov	 eax, OFFSET __ehfuncinfo$?SwapElement@CLogicEditCtrl@@QAEXDD@Z
  00050	e9 00 00 00 00	 jmp	 ___CxxFrameHandler3
text$x	ENDS
?SwapElement@CLogicEditCtrl@@QAEXDD@Z ENDP		; CLogicEditCtrl::SwapElement
; Function compile flags: /Ogtp
; File D:\git\src\IBK\IBK_DRFN\ProjSrc\SrcDrfn\Chart\HWSTRATEGYCONFIGUREWIZARD\Control\LogicEditCtrl.cpp
; File D:\git\src\IBK\IBK_DRFN\ProjSrc\SrcDrfn\Chart\HWSTRATEGYCONFIGUREWIZARD\Control\LogicEditCtrl.h
; File D:\git\src\IBK\IBK_DRFN\ProjSrc\SrcDrfn\Chart\HWSTRATEGYCONFIGUREWIZARD\Control\LogicEditCtrl.cpp
; File D:\git\src\IBK\IBK_DRFN\ProjSrc\SrcDrfn\Chart\HWSTRATEGYCONFIGUREWIZARD\Control\LogicEditCtrl.h
; File D:\git\src\IBK\IBK_DRFN\ProjSrc\SrcDrfn\Chart\HWSTRATEGYCONFIGUREWIZARD\Control\LogicEditCtrl.cpp
;	COMDAT ?AddElement@CLogicEditCtrl@@QAEXD@Z
_TEXT	SEGMENT
_Element$ = -52						; size = 20
_Operation$2 = -32					; size = 20
__$EHRec$ = -12						; size = 12
_chElement$ = 8						; size = 1
?AddElement@CLogicEditCtrl@@QAEXD@Z PROC		; CLogicEditCtrl::AddElement, COMDAT
; _this$ = ecx

; 59   : {

  00000	55		 push	 ebp
  00001	8b ec		 mov	 ebp, esp
  00003	6a ff		 push	 -1
  00005	68 00 00 00 00	 push	 __ehhandler$?AddElement@CLogicEditCtrl@@QAEXD@Z
  0000a	64 a1 00 00 00
	00		 mov	 eax, DWORD PTR fs:0
  00010	50		 push	 eax
  00011	83 ec 28	 sub	 esp, 40			; 00000028H
  00014	53		 push	 ebx
  00015	56		 push	 esi
  00016	57		 push	 edi
  00017	a1 00 00 00 00	 mov	 eax, DWORD PTR ___security_cookie
  0001c	33 c5		 xor	 eax, ebp
  0001e	50		 push	 eax
  0001f	8d 45 f4	 lea	 eax, DWORD PTR __$EHRec$[ebp]
  00022	64 a3 00 00 00
	00		 mov	 DWORD PTR fs:0, eax
  00028	8b f1		 mov	 esi, ecx

; 60   : 	if(chElement<=m_chLastElement)

  0002a	8b 5d 08	 mov	 ebx, DWORD PTR _chElement$[ebp]
  0002d	3a 9e 9c 00 00
	00		 cmp	 bl, BYTE PTR [esi+156]
  00033	0f 8e f2 00 00
	00		 jle	 $LN21@AddElement

; 61   : 	{
; 62   : 		return;
; 63   : 	}
; 64   : 	m_chLastElement = chElement;
; 65   : 	int nSize = m_arrayElement.GetSize();

  00039	8b be 88 00 00
	00		 mov	 edi, DWORD PTR [esi+136]
  0003f	88 9e 9c 00 00
	00		 mov	 BYTE PTR [esi+156], bl

; 66   : 	if(nSize)

  00045	85 ff		 test	 edi, edi
  00047	74 70		 je	 SHORT $LN23@AddElement
; File D:\git\src\IBK\IBK_DRFN\ProjSrc\SrcDrfn\Chart\HWSTRATEGYCONFIGUREWIZARD\Control\LogicEditCtrl.h

; 17   : 	CElementInLogic() 

  00049	8d 4d e4	 lea	 ecx, DWORD PTR _Operation$2[ebp+4]
  0004c	ff 15 00 00 00
	00		 call	 DWORD PTR __imp_??0?$CStringT@DV?$StrTraitMFC_DLL@DV?$ChTraitsCRT@D@ATL@@@@@ATL@@QAE@XZ

; 27   : 		m_strValue = "";

  00052	68 00 00 00 00	 push	 OFFSET ??_C@_00CNPNBAHC@@
  00057	8d 4d e4	 lea	 ecx, DWORD PTR _Operation$2[ebp+4]

; 17   : 	CElementInLogic() 

  0005a	c7 45 fc 00 00
	00 00		 mov	 DWORD PTR __$EHRec$[ebp+8], 0

; 23   : 		m_nType = 0;

  00061	c7 45 e0 00 00
	00 00		 mov	 DWORD PTR _Operation$2[ebp], 0

; 24   : 		m_bTRUE = TRUE;

  00068	c7 45 e8 01 00
	00 00		 mov	 DWORD PTR _Operation$2[ebp+8], 1

; 25   : 		m_nStartChar = 0;

  0006f	c7 45 ec 00 00
	00 00		 mov	 DWORD PTR _Operation$2[ebp+12], 0

; 26   : 		m_nEndChar = 0;

  00076	c7 45 f0 00 00
	00 00		 mov	 DWORD PTR _Operation$2[ebp+16], 0

; 27   : 		m_strValue = "";

  0007d	ff 15 00 00 00
	00		 call	 DWORD PTR __imp_??4?$CStringT@DV?$StrTraitMFC_DLL@DV?$ChTraitsCRT@D@ATL@@@@@ATL@@QAEAAV01@PBD@Z
; File D:\git\src\IBK\IBK_DRFN\ProjSrc\SrcDrfn\Chart\HWSTRATEGYCONFIGUREWIZARD\Control\LogicEditCtrl.cpp

; 70   : 		Operation.m_strValue = STRANDINLOGIC;

  00083	68 00 00 00 00	 push	 OFFSET ??_C@_03BOPJPIAM@and@
  00088	8d 4d e4	 lea	 ecx, DWORD PTR _Operation$2[ebp+4]
  0008b	c7 45 fc 01 00
	00 00		 mov	 DWORD PTR __$EHRec$[ebp+8], 1
  00092	c7 45 e0 02 00
	00 00		 mov	 DWORD PTR _Operation$2[ebp], 2
  00099	ff 15 00 00 00
	00		 call	 DWORD PTR __imp_??4?$CStringT@DV?$StrTraitMFC_DLL@DV?$ChTraitsCRT@D@ATL@@@@@ATL@@QAEAAV01@PBD@Z

; 71   : 		m_arrayElement.SetAtGrow(nSize,Operation);

  0009f	8d 45 e0	 lea	 eax, DWORD PTR _Operation$2[ebp]
  000a2	50		 push	 eax
  000a3	57		 push	 edi
  000a4	8d 8e 80 00 00
	00		 lea	 ecx, DWORD PTR [esi+128]
  000aa	e8 00 00 00 00	 call	 ?SetAtGrow@?$CArray@VCElementInLogic@@AAV1@@@QAEXHAAVCElementInLogic@@@Z ; CArray<CElementInLogic,CElementInLogic &>::SetAtGrow
  000af	8d 4d e4	 lea	 ecx, DWORD PTR _Operation$2[ebp+4]

; 72   : 		nSize++;

  000b2	47		 inc	 edi
  000b3	ff 15 00 00 00
	00		 call	 DWORD PTR __imp_??1?$CStringT@DV?$StrTraitMFC_DLL@DV?$ChTraitsCRT@D@ATL@@@@@ATL@@QAE@XZ
$LN23@AddElement:
; File D:\git\src\IBK\IBK_DRFN\ProjSrc\SrcDrfn\Chart\HWSTRATEGYCONFIGUREWIZARD\Control\LogicEditCtrl.h

; 17   : 	CElementInLogic() 

  000b9	8d 4d d0	 lea	 ecx, DWORD PTR _Element$[ebp+4]
  000bc	ff 15 00 00 00
	00		 call	 DWORD PTR __imp_??0?$CStringT@DV?$StrTraitMFC_DLL@DV?$ChTraitsCRT@D@ATL@@@@@ATL@@QAE@XZ

; 27   : 		m_strValue = "";

  000c2	68 00 00 00 00	 push	 OFFSET ??_C@_00CNPNBAHC@@
  000c7	8d 4d d0	 lea	 ecx, DWORD PTR _Element$[ebp+4]

; 17   : 	CElementInLogic() 

  000ca	c7 45 fc 02 00
	00 00		 mov	 DWORD PTR __$EHRec$[ebp+8], 2

; 23   : 		m_nType = 0;

  000d1	c7 45 cc 00 00
	00 00		 mov	 DWORD PTR _Element$[ebp], 0

; 24   : 		m_bTRUE = TRUE;

  000d8	c7 45 d4 01 00
	00 00		 mov	 DWORD PTR _Element$[ebp+8], 1

; 25   : 		m_nStartChar = 0;

  000df	c7 45 d8 00 00
	00 00		 mov	 DWORD PTR _Element$[ebp+12], 0

; 26   : 		m_nEndChar = 0;

  000e6	c7 45 dc 00 00
	00 00		 mov	 DWORD PTR _Element$[ebp+16], 0

; 27   : 		m_strValue = "";

  000ed	ff 15 00 00 00
	00		 call	 DWORD PTR __imp_??4?$CStringT@DV?$StrTraitMFC_DLL@DV?$ChTraitsCRT@D@ATL@@@@@ATL@@QAEAAV01@PBD@Z
; File D:\git\src\IBK\IBK_DRFN\ProjSrc\SrcDrfn\Chart\HWSTRATEGYCONFIGUREWIZARD\Control\LogicEditCtrl.cpp

; 76   : 	Element.m_strValue = chElement;

  000f3	53		 push	 ebx
  000f4	8d 4d d0	 lea	 ecx, DWORD PTR _Element$[ebp+4]
  000f7	c7 45 fc 03 00
	00 00		 mov	 DWORD PTR __$EHRec$[ebp+8], 3
  000fe	c7 45 cc 01 00
	00 00		 mov	 DWORD PTR _Element$[ebp], 1
  00105	ff 15 00 00 00
	00		 call	 DWORD PTR __imp_??4?$CStringT@DV?$StrTraitMFC_DLL@DV?$ChTraitsCRT@D@ATL@@@@@ATL@@QAEAAV01@D@Z

; 77   : 	m_arrayElement.SetAtGrow(nSize,Element);

  0010b	8d 45 cc	 lea	 eax, DWORD PTR _Element$[ebp]
  0010e	50		 push	 eax
  0010f	57		 push	 edi
  00110	8d 8e 80 00 00
	00		 lea	 ecx, DWORD PTR [esi+128]
  00116	e8 00 00 00 00	 call	 ?SetAtGrow@?$CArray@VCElementInLogic@@AAV1@@@QAEXHAAVCElementInLogic@@@Z ; CArray<CElementInLogic,CElementInLogic &>::SetAtGrow

; 78   : 	UpdateLogic();

  0011b	8b ce		 mov	 ecx, esi
  0011d	e8 00 00 00 00	 call	 ?UpdateLogic@CLogicEditCtrl@@AAEXXZ ; CLogicEditCtrl::UpdateLogic
  00122	8d 4d d0	 lea	 ecx, DWORD PTR _Element$[ebp+4]
  00125	ff 15 00 00 00
	00		 call	 DWORD PTR __imp_??1?$CStringT@DV?$StrTraitMFC_DLL@DV?$ChTraitsCRT@D@ATL@@@@@ATL@@QAE@XZ
$LN21@AddElement:

; 79   : }

  0012b	8b 4d f4	 mov	 ecx, DWORD PTR __$EHRec$[ebp]
  0012e	64 89 0d 00 00
	00 00		 mov	 DWORD PTR fs:0, ecx
  00135	59		 pop	 ecx
  00136	5f		 pop	 edi
  00137	5e		 pop	 esi
  00138	5b		 pop	 ebx
  00139	8b e5		 mov	 esp, ebp
  0013b	5d		 pop	 ebp
  0013c	c2 04 00	 ret	 4
_TEXT	ENDS
;	COMDAT text$x
text$x	SEGMENT
__unwindfunclet$?AddElement@CLogicEditCtrl@@QAEXD@Z$2:
  00000	8d 4d e4	 lea	 ecx, DWORD PTR _Operation$2[ebp+4]
  00003	ff 25 00 00 00
	00		 jmp	 DWORD PTR __imp_??1?$CStringT@DV?$StrTraitMFC_DLL@DV?$ChTraitsCRT@D@ATL@@@@@ATL@@QAE@XZ
__unwindfunclet$?AddElement@CLogicEditCtrl@@QAEXD@Z$0:
  00009	8d 4d e0	 lea	 ecx, DWORD PTR _Operation$2[ebp]
  0000c	e9 00 00 00 00	 jmp	 ??1CElementInLogic@@QAE@XZ
__unwindfunclet$?AddElement@CLogicEditCtrl@@QAEXD@Z$4:
  00011	8d 4d d0	 lea	 ecx, DWORD PTR _Element$[ebp+4]
  00014	ff 25 00 00 00
	00		 jmp	 DWORD PTR __imp_??1?$CStringT@DV?$StrTraitMFC_DLL@DV?$ChTraitsCRT@D@ATL@@@@@ATL@@QAE@XZ
__unwindfunclet$?AddElement@CLogicEditCtrl@@QAEXD@Z$1:
  0001a	8d 4d cc	 lea	 ecx, DWORD PTR _Element$[ebp]
  0001d	e9 00 00 00 00	 jmp	 ??1CElementInLogic@@QAE@XZ
  00022	cc		 int	 3
  00023	cc		 int	 3
  00024	cc		 int	 3
  00025	cc		 int	 3
  00026	cc		 int	 3
__ehhandler$?AddElement@CLogicEditCtrl@@QAEXD@Z:
  00027	90		 npad	 1
  00028	90		 npad	 1
  00029	8b 54 24 08	 mov	 edx, DWORD PTR [esp+8]
  0002d	8d 42 0c	 lea	 eax, DWORD PTR [edx+12]
  00030	8b 4a c8	 mov	 ecx, DWORD PTR [edx-56]
  00033	33 c8		 xor	 ecx, eax
  00035	e8 00 00 00 00	 call	 @__security_check_cookie@4
  0003a	b8 00 00 00 00	 mov	 eax, OFFSET __ehfuncinfo$?AddElement@CLogicEditCtrl@@QAEXD@Z
  0003f	e9 00 00 00 00	 jmp	 ___CxxFrameHandler3
text$x	ENDS
?AddElement@CLogicEditCtrl@@QAEXD@Z ENDP		; CLogicEditCtrl::AddElement
; Function compile flags: /Ogtp
; File D:\git\src\IBK\IBK_DRFN\ProjSrc\SrcDrfn\Chart\HWSTRATEGYCONFIGUREWIZARD\Control\LogicEditCtrl.cpp
; File C:\Program Files (x86)\Microsoft Visual Studio\2019\Community\VC\Tools\MSVC\14.29.30133\atlmfc\include\afxcmn.inl
; File D:\git\src\IBK\IBK_DRFN\ProjSrc\SrcDrfn\Chart\HWSTRATEGYCONFIGUREWIZARD\Control\LogicEditCtrl.cpp
; File C:\Program Files (x86)\Microsoft Visual Studio\2019\Community\VC\Tools\MSVC\14.29.30133\atlmfc\include\afxtempl.h
; File C:\Program Files (x86)\Microsoft Visual Studio\2019\Community\VC\Tools\MSVC\14.29.30133\atlmfc\include\afxwin1.inl
; File D:\git\src\IBK\IBK_DRFN\ProjSrc\SrcDrfn\Chart\HWSTRATEGYCONFIGUREWIZARD\Control\LogicEditCtrl.cpp
; File C:\Program Files (x86)\Microsoft Visual Studio\2019\Community\VC\Tools\MSVC\14.29.30133\atlmfc\include\afxwin1.inl
; File D:\git\src\IBK\IBK_DRFN\ProjSrc\SrcDrfn\Chart\HWSTRATEGYCONFIGUREWIZARD\Control\LogicEditCtrl.cpp
; File C:\Program Files (x86)\Microsoft Visual Studio\2019\Community\VC\Tools\MSVC\14.29.30133\atlmfc\include\afxwin1.inl
; File D:\git\src\IBK\IBK_DRFN\ProjSrc\SrcDrfn\Chart\HWSTRATEGYCONFIGUREWIZARD\Control\LogicEditCtrl.cpp
; File C:\Program Files (x86)\Microsoft Visual Studio\2019\Community\VC\Tools\MSVC\14.29.30133\atlmfc\include\afxwin1.inl
; File D:\git\src\IBK\IBK_DRFN\ProjSrc\SrcDrfn\Chart\HWSTRATEGYCONFIGUREWIZARD\Control\LogicEditCtrl.cpp
;	COMDAT ??0CLogicEditCtrl@@QAE@XZ
_TEXT	SEGMENT
_this$GSCopy$ = -84					; size = 4
_this$ = -80						; size = 4
_LogFont$ = -76						; size = 60
__$ArrayPad$ = -16					; size = 4
__$EHRec$ = -12						; size = 12
??0CLogicEditCtrl@@QAE@XZ PROC				; CLogicEditCtrl::CLogicEditCtrl, COMDAT
; _this$ = ecx

; 19   : {

  00000	55		 push	 ebp
  00001	8b ec		 mov	 ebp, esp
  00003	6a ff		 push	 -1
  00005	68 00 00 00 00	 push	 __ehhandler$??0CLogicEditCtrl@@QAE@XZ
  0000a	64 a1 00 00 00
	00		 mov	 eax, DWORD PTR fs:0
  00010	50		 push	 eax
  00011	83 ec 48	 sub	 esp, 72			; 00000048H
  00014	a1 00 00 00 00	 mov	 eax, DWORD PTR ___security_cookie
  00019	33 c5		 xor	 eax, ebp
  0001b	89 45 f0	 mov	 DWORD PTR __$ArrayPad$[ebp], eax
  0001e	56		 push	 esi
  0001f	57		 push	 edi
  00020	50		 push	 eax
  00021	8d 45 f4	 lea	 eax, DWORD PTR __$EHRec$[ebp]
  00024	64 a3 00 00 00
	00		 mov	 DWORD PTR fs:0, eax
  0002a	8b f9		 mov	 edi, ecx
  0002c	89 7d b0	 mov	 DWORD PTR _this$[ebp], edi
  0002f	89 7d ac	 mov	 DWORD PTR _this$GSCopy$[ebp], edi
; File C:\Program Files (x86)\Microsoft Visual Studio\2019\Community\VC\Tools\MSVC\14.29.30133\atlmfc\include\afxcmn.inl

; 644  : 	{ }

  00032	e8 00 00 00 00	 call	 ??0CWnd@@QAE@XZ		; CWnd::CWnd
; File D:\git\src\IBK\IBK_DRFN\ProjSrc\SrcDrfn\Chart\HWSTRATEGYCONFIGUREWIZARD\Control\LogicEditCtrl.cpp

; 19   : {

  00037	c7 07 00 00 00
	00		 mov	 DWORD PTR [edi], OFFSET ??_7CLogicEditCtrl@@6B@
  0003d	c7 45 fc 00 00
	00 00		 mov	 DWORD PTR __$EHRec$[ebp+8], 0
; File C:\Program Files (x86)\Microsoft Visual Studio\2019\Community\VC\Tools\MSVC\14.29.30133\atlmfc\include\afxtempl.h

; 348  : {

  00044	c7 87 80 00 00
	00 00 00 00 00	 mov	 DWORD PTR [edi+128], OFFSET ??_7?$CArray@VCElementInLogic@@AAV1@@@6B@

; 349  : 	m_pData = NULL;

  0004e	c7 87 84 00 00
	00 00 00 00 00	 mov	 DWORD PTR [edi+132], 0

; 350  : 	m_nSize = m_nMaxSize = m_nGrowBy = 0;

  00058	c7 87 90 00 00
	00 00 00 00 00	 mov	 DWORD PTR [edi+144], 0
  00062	c7 87 8c 00 00
	00 00 00 00 00	 mov	 DWORD PTR [edi+140], 0
  0006c	c7 87 88 00 00
	00 00 00 00 00	 mov	 DWORD PTR [edi+136], 0
; File C:\Program Files (x86)\Microsoft Visual Studio\2019\Community\VC\Tools\MSVC\14.29.30133\atlmfc\include\afxwin1.inl

; 70   : 	{ m_hObject = NULL; }

  00076	c7 87 98 00 00
	00 00 00 00 00	 mov	 DWORD PTR [edi+152], 0

; 153  : 	{ }

  00080	c7 87 94 00 00
	00 00 00 00 00	 mov	 DWORD PTR [edi+148], OFFSET ??_7CFont@@6B@
; File D:\git\src\IBK\IBK_DRFN\ProjSrc\SrcDrfn\Chart\HWSTRATEGYCONFIGUREWIZARD\Control\LogicEditCtrl.cpp

; 25   : 	LogFont.lfHeight	=	12;    

  0008a	0f 28 05 00 00
	00 00		 movaps	 xmm0, XMMWORD PTR __xmm@0000000000000000000000000000000c
  00091	c6 87 9c 00 00
	00 00		 mov	 BYTE PTR [edi+156], 0
  00098	c7 87 a0 00 00
	00 ff ff ff ff	 mov	 DWORD PTR [edi+160], -1
  000a2	c7 87 a4 00 00
	00 ff ff ff ff	 mov	 DWORD PTR [edi+164], -1

; 38   : 	strcpy( LogFont.lfFaceName, (const char*)_T("") );

  000ac	a1 00 00 00 00	 mov	 eax, DWORD PTR ??_C@_06MFMMLLPC@?$LB?$LM?$LI?$LC?C?$LM@
  000b1	66 8b 15 04 00
	00 00		 mov	 dx, WORD PTR ??_C@_06MFMMLLPC@?$LB?$LM?$LI?$LC?C?$LM@+4
  000b8	89 45 d0	 mov	 DWORD PTR _LogFont$[ebp+28], eax
; File C:\Program Files (x86)\Microsoft Visual Studio\2019\Community\VC\Tools\MSVC\14.29.30133\atlmfc\include\afxwin1.inl

; 157  : 	{ return Attach(::CreateFontIndirect(lpLogFont)); }

  000bb	8d 45 b4	 lea	 eax, DWORD PTR _LogFont$[ebp]
; File D:\git\src\IBK\IBK_DRFN\ProjSrc\SrcDrfn\Chart\HWSTRATEGYCONFIGUREWIZARD\Control\LogicEditCtrl.cpp

; 38   : 	strcpy( LogFont.lfFaceName, (const char*)_T("") );

  000be	66 89 55 d4	 mov	 WORD PTR _LogFont$[ebp+32], dx
  000c2	8a 15 06 00 00
	00		 mov	 dl, BYTE PTR ??_C@_06MFMMLLPC@?$LB?$LM?$LI?$LC?C?$LM@+6
; File C:\Program Files (x86)\Microsoft Visual Studio\2019\Community\VC\Tools\MSVC\14.29.30133\atlmfc\include\afxwin1.inl

; 157  : 	{ return Attach(::CreateFontIndirect(lpLogFont)); }

  000c8	50		 push	 eax
; File D:\git\src\IBK\IBK_DRFN\ProjSrc\SrcDrfn\Chart\HWSTRATEGYCONFIGUREWIZARD\Control\LogicEditCtrl.cpp

; 19   : {

  000c9	c6 45 fc 02	 mov	 BYTE PTR __$EHRec$[ebp+8], 2

; 25   : 	LogFont.lfHeight	=	12;    

  000cd	0f 11 45 b4	 movups	 XMMWORD PTR _LogFont$[ebp], xmm0

; 26   : 	LogFont.lfWidth	=	0;    
; 27   : 	LogFont.lfEscapement=	0;    
; 28   : 	LogFont.lfOrientation=	0; 
; 29   : 	LogFont.lfWeight	=	400;

  000d1	c7 45 c4 90 01
	00 00		 mov	 DWORD PTR _LogFont$[ebp+16], 400 ; 00000190H

; 30   : 	LogFont.lfItalic	=	0;    

  000d8	c7 45 c8 00 00
	00 81		 mov	 DWORD PTR _LogFont$[ebp+20], -2130706432 ; 81000000H

; 31   : 	LogFont.lfUnderline	=	0;        
; 32   : 	LogFont.lfStrikeOut	=	0;     
; 33   : 	LogFont.lfCharSet	=	129;        
; 34   : 	LogFont.lfOutPrecision	=	3;        

  000df	c7 45 cc 03 02
	01 31		 mov	 DWORD PTR _LogFont$[ebp+24], 822149635 ; 31010203H

; 38   : 	strcpy( LogFont.lfFaceName, (const char*)_T("") );

  000e6	88 55 d6	 mov	 BYTE PTR _LogFont$[ebp+34], dl
; File C:\Program Files (x86)\Microsoft Visual Studio\2019\Community\VC\Tools\MSVC\14.29.30133\atlmfc\include\afxwin1.inl

; 157  : 	{ return Attach(::CreateFontIndirect(lpLogFont)); }

  000e9	ff 15 00 00 00
	00		 call	 DWORD PTR __imp__CreateFontIndirectA@4
  000ef	50		 push	 eax
  000f0	8d 8f 94 00 00
	00		 lea	 ecx, DWORD PTR [edi+148]
  000f6	e8 00 00 00 00	 call	 ?Attach@CGdiObject@@QAEHPAX@Z ; CGdiObject::Attach
; File D:\git\src\IBK\IBK_DRFN\ProjSrc\SrcDrfn\Chart\HWSTRATEGYCONFIGUREWIZARD\Control\LogicEditCtrl.cpp

; 40   : }

  000fb	8b c7		 mov	 eax, edi
  000fd	8b 4d f4	 mov	 ecx, DWORD PTR __$EHRec$[ebp]
  00100	64 89 0d 00 00
	00 00		 mov	 DWORD PTR fs:0, ecx
  00107	59		 pop	 ecx
  00108	5f		 pop	 edi
  00109	5e		 pop	 esi
  0010a	8b 4d f0	 mov	 ecx, DWORD PTR __$ArrayPad$[ebp]
  0010d	33 cd		 xor	 ecx, ebp
  0010f	e8 00 00 00 00	 call	 @__security_check_cookie@4
  00114	8b e5		 mov	 esp, ebp
  00116	5d		 pop	 ebp
  00117	c3		 ret	 0
_TEXT	ENDS
;	COMDAT text$x
text$x	SEGMENT
__unwindfunclet$??0CLogicEditCtrl@@QAE@XZ$0:
  00000	8b 4d ac	 mov	 ecx, DWORD PTR _this$GSCopy$[ebp]
  00003	e9 00 00 00 00	 jmp	 ??1CRichEditCtrl@@UAE@XZ ; CRichEditCtrl::~CRichEditCtrl
__unwindfunclet$??0CLogicEditCtrl@@QAE@XZ$1:
  00008	8b 4d ac	 mov	 ecx, DWORD PTR _this$GSCopy$[ebp]
  0000b	81 c1 80 00 00
	00		 add	 ecx, 128		; 00000080H
  00011	e9 00 00 00 00	 jmp	 ??1?$CArray@VCElementInLogic@@AAV1@@@UAE@XZ ; CArray<CElementInLogic,CElementInLogic &>::~CArray<CElementInLogic,CElementInLogic &>
__unwindfunclet$??0CLogicEditCtrl@@QAE@XZ$2:
  00016	8b 4d ac	 mov	 ecx, DWORD PTR _this$GSCopy$[ebp]
  00019	81 c1 94 00 00
	00		 add	 ecx, 148		; 00000094H
  0001f	e9 00 00 00 00	 jmp	 ??1CFont@@UAE@XZ	; CFont::~CFont
  00024	cc		 int	 3
  00025	cc		 int	 3
  00026	cc		 int	 3
  00027	cc		 int	 3
  00028	cc		 int	 3
__ehhandler$??0CLogicEditCtrl@@QAE@XZ:
  00029	90		 npad	 1
  0002a	90		 npad	 1
  0002b	8b 54 24 08	 mov	 edx, DWORD PTR [esp+8]
  0002f	8d 42 0c	 lea	 eax, DWORD PTR [edx+12]
  00032	8b 4a ac	 mov	 ecx, DWORD PTR [edx-84]
  00035	33 c8		 xor	 ecx, eax
  00037	e8 00 00 00 00	 call	 @__security_check_cookie@4
  0003c	8b 4a fc	 mov	 ecx, DWORD PTR [edx-4]
  0003f	33 c8		 xor	 ecx, eax
  00041	e8 00 00 00 00	 call	 @__security_check_cookie@4
  00046	b8 00 00 00 00	 mov	 eax, OFFSET __ehfuncinfo$??0CLogicEditCtrl@@QAE@XZ
  0004b	e9 00 00 00 00	 jmp	 ___CxxFrameHandler3
text$x	ENDS
??0CLogicEditCtrl@@QAE@XZ ENDP				; CLogicEditCtrl::CLogicEditCtrl
; Function compile flags: /Ogtp
;	COMDAT ??1CElementInLogic@@QAE@XZ
_TEXT	SEGMENT
??1CElementInLogic@@QAE@XZ PROC				; CElementInLogic::~CElementInLogic, COMDAT
; _this$ = ecx
  00000	83 c1 04	 add	 ecx, 4
  00003	ff 25 00 00 00
	00		 jmp	 DWORD PTR __imp_??1?$CStringT@DV?$StrTraitMFC_DLL@DV?$ChTraitsCRT@D@ATL@@@@@ATL@@QAE@XZ
??1CElementInLogic@@QAE@XZ ENDP				; CElementInLogic::~CElementInLogic
_TEXT	ENDS
; Function compile flags: /Ogtp
; File C:\Program Files (x86)\Microsoft Visual Studio\2019\Community\VC\Tools\MSVC\14.29.30133\atlmfc\include\afx.inl
;	COMDAT ??_GCRichEditCtrl@@UAEPAXI@Z
_TEXT	SEGMENT
___flags$ = 8						; size = 4
??_GCRichEditCtrl@@UAEPAXI@Z PROC			; CRichEditCtrl::`scalar deleting destructor', COMDAT
; _this$ = ecx
  00000	55		 push	 ebp
  00001	8b ec		 mov	 ebp, esp
  00003	56		 push	 esi
  00004	8b f1		 mov	 esi, ecx
  00006	e8 00 00 00 00	 call	 ??1CRichEditCtrl@@UAE@XZ ; CRichEditCtrl::~CRichEditCtrl
  0000b	8b 45 08	 mov	 eax, DWORD PTR ___flags$[ebp]
  0000e	a8 01		 test	 al, 1
  00010	74 22		 je	 SHORT $LN9@scalar
  00012	a8 04		 test	 al, 4
  00014	75 10		 jne	 SHORT $LN3@scalar

; 112  : 	{ ::operator delete(p); }

  00016	56		 push	 esi
  00017	e8 00 00 00 00	 call	 ??3@YAXPAX@Z		; operator delete
  0001c	83 c4 04	 add	 esp, 4
  0001f	8b c6		 mov	 eax, esi
  00021	5e		 pop	 esi
  00022	5d		 pop	 ebp
  00023	c2 04 00	 ret	 4
$LN3@scalar:
  00026	68 80 00 00 00	 push	 128			; 00000080H
  0002b	56		 push	 esi
  0002c	e8 00 00 00 00	 call	 ?__global_delete@@YAXPAXI@Z ; __global_delete
  00031	83 c4 08	 add	 esp, 8
$LN9@scalar:
  00034	8b c6		 mov	 eax, esi
  00036	5e		 pop	 esi
  00037	5d		 pop	 ebp
  00038	c2 04 00	 ret	 4
??_GCRichEditCtrl@@UAEPAXI@Z ENDP			; CRichEditCtrl::`scalar deleting destructor'
_TEXT	ENDS
; Function compile flags: /Ogtp
; File C:\Program Files (x86)\Microsoft Visual Studio\2019\Community\VC\Tools\MSVC\14.29.30133\atlmfc\include\afxwin2.inl
;	COMDAT ?EndModalState@CWnd@@UAEXXZ
_TEXT	SEGMENT
?EndModalState@CWnd@@UAEXXZ PROC			; CWnd::EndModalState, COMDAT
; _this$ = ecx

; 567  : 	{ ::EnableWindow(m_hWnd, TRUE); }

  00000	6a 01		 push	 1
  00002	ff 71 20	 push	 DWORD PTR [ecx+32]
  00005	ff 15 00 00 00
	00		 call	 DWORD PTR __imp__EnableWindow@8
  0000b	c3		 ret	 0
?EndModalState@CWnd@@UAEXXZ ENDP			; CWnd::EndModalState
_TEXT	ENDS
; Function compile flags: /Ogtp
; File C:\Program Files (x86)\Microsoft Visual Studio\2019\Community\VC\Tools\MSVC\14.29.30133\atlmfc\include\afxwin2.inl
;	COMDAT ?BeginModalState@CWnd@@UAEXXZ
_TEXT	SEGMENT
?BeginModalState@CWnd@@UAEXXZ PROC			; CWnd::BeginModalState, COMDAT
; _this$ = ecx

; 565  : 	{ ::EnableWindow(m_hWnd, FALSE); }

  00000	6a 00		 push	 0
  00002	ff 71 20	 push	 DWORD PTR [ecx+32]
  00005	ff 15 00 00 00
	00		 call	 DWORD PTR __imp__EnableWindow@8
  0000b	c3		 ret	 0
?BeginModalState@CWnd@@UAEXXZ ENDP			; CWnd::BeginModalState
_TEXT	ENDS
; Function compile flags: /Ogtp
; File C:\Program Files (x86)\Microsoft Visual Studio\2019\Community\VC\Tools\MSVC\14.29.30133\atlmfc\include\afxwin2.inl
;	COMDAT ?DoDataExchange@CWnd@@MAEXPAVCDataExchange@@@Z
_TEXT	SEGMENT
___formal$ = 8						; size = 4
?DoDataExchange@CWnd@@MAEXPAVCDataExchange@@@Z PROC	; CWnd::DoDataExchange, COMDAT
; _this$ = ecx

; 561  : 	{ } // default does nothing

  00000	c2 04 00	 ret	 4
?DoDataExchange@CWnd@@MAEXPAVCDataExchange@@@Z ENDP	; CWnd::DoDataExchange
_TEXT	ENDS
; Function compile flags: /Ogtp
; File C:\Program Files (x86)\Microsoft Visual Studio\2019\Community\VC\Tools\MSVC\14.29.30133\atlmfc\include\afxwin1.inl
; File C:\Program Files (x86)\Microsoft Visual Studio\2019\Community\VC\Tools\MSVC\14.29.30133\atlmfc\include\afx.inl
;	COMDAT ??_GCFont@@UAEPAXI@Z
_TEXT	SEGMENT
___flags$ = 8						; size = 4
??_GCFont@@UAEPAXI@Z PROC				; CFont::`scalar deleting destructor', COMDAT
; _this$ = ecx
  00000	55		 push	 ebp
  00001	8b ec		 mov	 ebp, esp
; File C:\Program Files (x86)\Microsoft Visual Studio\2019\Community\VC\Tools\MSVC\14.29.30133\atlmfc\include\afxwin1.inl

; 155  : 	{ }

  00003	56		 push	 esi
  00004	8b f1		 mov	 esi, ecx
  00006	c7 06 00 00 00
	00		 mov	 DWORD PTR [esi], OFFSET ??_7CFont@@6B@
  0000c	e8 00 00 00 00	 call	 ??1CGdiObject@@UAE@XZ	; CGdiObject::~CGdiObject
  00011	8b 45 08	 mov	 eax, DWORD PTR ___flags$[ebp]
  00014	a8 01		 test	 al, 1
  00016	74 1f		 je	 SHORT $LN12@scalar
  00018	a8 04		 test	 al, 4
  0001a	75 10		 jne	 SHORT $LN3@scalar
; File C:\Program Files (x86)\Microsoft Visual Studio\2019\Community\VC\Tools\MSVC\14.29.30133\atlmfc\include\afx.inl

; 112  : 	{ ::operator delete(p); }

  0001c	56		 push	 esi
  0001d	e8 00 00 00 00	 call	 ??3@YAXPAX@Z		; operator delete
  00022	83 c4 04	 add	 esp, 4
  00025	8b c6		 mov	 eax, esi
  00027	5e		 pop	 esi
  00028	5d		 pop	 ebp
  00029	c2 04 00	 ret	 4
$LN3@scalar:
  0002c	6a 08		 push	 8
  0002e	56		 push	 esi
  0002f	e8 00 00 00 00	 call	 ?__global_delete@@YAXPAXI@Z ; __global_delete
  00034	83 c4 08	 add	 esp, 8
$LN12@scalar:
  00037	8b c6		 mov	 eax, esi
  00039	5e		 pop	 esi
  0003a	5d		 pop	 ebp
  0003b	c2 04 00	 ret	 4
??_GCFont@@UAEPAXI@Z ENDP				; CFont::`scalar deleting destructor'
_TEXT	ENDS
; Function compile flags: /Ogtp
; File C:\Program Files (x86)\Microsoft Visual Studio\2019\Community\VC\Tools\MSVC\14.29.30133\atlmfc\include\afxwin1.inl
;	COMDAT ??1CFont@@UAE@XZ
_TEXT	SEGMENT
??1CFont@@UAE@XZ PROC					; CFont::~CFont, COMDAT
; _this$ = ecx

; 155  : 	{ }

  00000	c7 01 00 00 00
	00		 mov	 DWORD PTR [ecx], OFFSET ??_7CFont@@6B@
  00006	e9 00 00 00 00	 jmp	 ??1CGdiObject@@UAE@XZ	; CGdiObject::~CGdiObject
??1CFont@@UAE@XZ ENDP					; CFont::~CFont
_TEXT	ENDS
; Function compile flags: /Ogtp
; File C:\Program Files (x86)\Microsoft Visual Studio\2019\Community\VC\Tools\MSVC\14.29.30133\atlmfc\include\afx.inl
;	COMDAT ??_GCGdiObject@@UAEPAXI@Z
_TEXT	SEGMENT
___flags$ = 8						; size = 4
??_GCGdiObject@@UAEPAXI@Z PROC				; CGdiObject::`scalar deleting destructor', COMDAT
; _this$ = ecx
  00000	55		 push	 ebp
  00001	8b ec		 mov	 ebp, esp
  00003	56		 push	 esi
  00004	8b f1		 mov	 esi, ecx
  00006	e8 00 00 00 00	 call	 ??1CGdiObject@@UAE@XZ	; CGdiObject::~CGdiObject
  0000b	8b 45 08	 mov	 eax, DWORD PTR ___flags$[ebp]
  0000e	a8 01		 test	 al, 1
  00010	74 1f		 je	 SHORT $LN9@scalar
  00012	a8 04		 test	 al, 4
  00014	75 10		 jne	 SHORT $LN3@scalar

; 112  : 	{ ::operator delete(p); }

  00016	56		 push	 esi
  00017	e8 00 00 00 00	 call	 ??3@YAXPAX@Z		; operator delete
  0001c	83 c4 04	 add	 esp, 4
  0001f	8b c6		 mov	 eax, esi
  00021	5e		 pop	 esi
  00022	5d		 pop	 ebp
  00023	c2 04 00	 ret	 4
$LN3@scalar:
  00026	6a 08		 push	 8
  00028	56		 push	 esi
  00029	e8 00 00 00 00	 call	 ?__global_delete@@YAXPAXI@Z ; __global_delete
  0002e	83 c4 08	 add	 esp, 8
$LN9@scalar:
  00031	8b c6		 mov	 eax, esi
  00033	5e		 pop	 esi
  00034	5d		 pop	 ebp
  00035	c2 04 00	 ret	 4
??_GCGdiObject@@UAEPAXI@Z ENDP				; CGdiObject::`scalar deleting destructor'
_TEXT	ENDS
; Function compile flags: /Ogtp
; File C:\Program Files (x86)\Microsoft Visual Studio\2019\Community\VC\Tools\MSVC\14.29.30133\atlmfc\include\afxwin1.inl
;	COMDAT ??1CGdiObject@@UAE@XZ
_TEXT	SEGMENT
_pException$2 = -540					; size = 4
_strMsg$3 = -536					; size = 4
_szErrorMessage$4 = -532				; size = 512
__$ArrayPad$ = -20					; size = 4
__$EHRec$ = -16						; size = 16
??1CGdiObject@@UAE@XZ PROC				; CGdiObject::~CGdiObject, COMDAT
; _this$ = ecx

; 74   : {

  00000	55		 push	 ebp
  00001	8b ec		 mov	 ebp, esp
  00003	6a ff		 push	 -1
  00005	68 00 00 00 00	 push	 __ehhandler$??1CGdiObject@@UAE@XZ
  0000a	64 a1 00 00 00
	00		 mov	 eax, DWORD PTR fs:0
  00010	50		 push	 eax
  00011	81 ec 10 02 00
	00		 sub	 esp, 528		; 00000210H
  00017	a1 00 00 00 00	 mov	 eax, DWORD PTR ___security_cookie
  0001c	33 c5		 xor	 eax, ebp
  0001e	89 45 ec	 mov	 DWORD PTR __$ArrayPad$[ebp], eax
  00021	53		 push	 ebx
  00022	56		 push	 esi
  00023	57		 push	 edi
  00024	50		 push	 eax
  00025	8d 45 f4	 lea	 eax, DWORD PTR __$EHRec$[ebp+4]
  00028	64 a3 00 00 00
	00		 mov	 DWORD PTR fs:0, eax
  0002e	89 65 f0	 mov	 DWORD PTR __$EHRec$[ebp], esp
  00031	c7 01 00 00 00
	00		 mov	 DWORD PTR [ecx], OFFSET ??_7CGdiObject@@6B@

; 75   : 	AFX_BEGIN_DESTRUCTOR

  00037	c7 45 fc 00 00
	00 00		 mov	 DWORD PTR __$EHRec$[ebp+12], 0

; 76   : 	DeleteObject();

  0003e	e8 00 00 00 00	 call	 ?DeleteObject@CGdiObject@@QAEHXZ ; CGdiObject::DeleteObject
$LN18@CGdiObject:

; 78   : }

  00043	8b 4d f4	 mov	 ecx, DWORD PTR __$EHRec$[ebp+4]
  00046	64 89 0d 00 00
	00 00		 mov	 DWORD PTR fs:0, ecx
  0004d	59		 pop	 ecx
  0004e	5f		 pop	 edi
  0004f	5e		 pop	 esi
  00050	5b		 pop	 ebx
  00051	8b 4d ec	 mov	 ecx, DWORD PTR __$ArrayPad$[ebp]
  00054	33 cd		 xor	 ecx, ebp
  00056	e8 00 00 00 00	 call	 @__security_check_cookie@4
  0005b	8b e5		 mov	 esp, ebp
  0005d	5d		 pop	 ebp
  0005e	c3		 ret	 0
__catch$??1CGdiObject@@UAE@XZ$0:

; 77   : 	AFX_END_DESTRUCTOR

  0005f	8d 8d e8 fd ff
	ff		 lea	 ecx, DWORD PTR _strMsg$3[ebp]
  00065	ff 15 00 00 00
	00		 call	 DWORD PTR __imp_??0?$CStringT@DV?$StrTraitMFC_DLL@DV?$ChTraitsCRT@D@ATL@@@@@ATL@@QAE@XZ
  0006b	8b b5 e4 fd ff
	ff		 mov	 esi, DWORD PTR _pException$2[ebp]
  00071	8d 8d ec fd ff
	ff		 lea	 ecx, DWORD PTR _szErrorMessage$4[ebp]
  00077	6a 00		 push	 0
  00079	68 00 02 00 00	 push	 512			; 00000200H
  0007e	51		 push	 ecx
  0007f	8b 06		 mov	 eax, DWORD PTR [esi]
  00081	8b ce		 mov	 ecx, esi
  00083	c6 45 fc 02	 mov	 BYTE PTR __$EHRec$[ebp+12], 2
  00087	ff 50 14	 call	 DWORD PTR [eax+20]
  0008a	85 c0		 test	 eax, eax
  0008c	74 2a		 je	 SHORT $LN9@CGdiObject
  0008e	8d 85 ec fd ff
	ff		 lea	 eax, DWORD PTR _szErrorMessage$4[ebp]
  00094	50		 push	 eax
  00095	6a 4d		 push	 77			; 0000004dH
  00097	68 00 00 00 00	 push	 OFFSET ??_C@_0HD@JJCHHHNK@C?3?2Program?5Files?5?$CIx86?$CJ?2Microsof@
  0009c	68 00 00 00 00	 push	 OFFSET ??_C@_0BP@OIEOKIDM@Exception?5thrown?5in?5destructor@
  000a1	8d 85 e8 fd ff
	ff		 lea	 eax, DWORD PTR _strMsg$3[ebp]
  000a7	68 00 00 00 00	 push	 OFFSET ??_C@_0BB@HBOOMJBF@?$CFTs?5?$CI?$CFTs?3?$CFd?$CJ?6?$CFTs@
  000ac	50		 push	 eax
  000ad	ff 15 00 00 00
	00		 call	 DWORD PTR __imp_?Format@?$CStringT@DV?$StrTraitMFC_DLL@DV?$ChTraitsCRT@D@ATL@@@@@ATL@@QAAXPBDZZ
  000b3	83 c4 18	 add	 esp, 24			; 00000018H
  000b6	eb 21		 jmp	 SHORT $LN10@CGdiObject
$LN9@CGdiObject:
  000b8	6a 4d		 push	 77			; 0000004dH
  000ba	68 00 00 00 00	 push	 OFFSET ??_C@_0HD@JJCHHHNK@C?3?2Program?5Files?5?$CIx86?$CJ?2Microsof@
  000bf	68 00 00 00 00	 push	 OFFSET ??_C@_0BP@OIEOKIDM@Exception?5thrown?5in?5destructor@
  000c4	8d 85 e8 fd ff
	ff		 lea	 eax, DWORD PTR _strMsg$3[ebp]
  000ca	68 00 00 00 00	 push	 OFFSET ??_C@_0N@OMEMOKLE@?$CFTs?5?$CI?$CFTs?3?$CFd?$CJ@
  000cf	50		 push	 eax
  000d0	ff 15 00 00 00
	00		 call	 DWORD PTR __imp_?Format@?$CStringT@DV?$StrTraitMFC_DLL@DV?$ChTraitsCRT@D@ATL@@@@@ATL@@QAAXPBDZZ
  000d6	83 c4 14	 add	 esp, 20			; 00000014H
$LN10@CGdiObject:
  000d9	6a 00		 push	 0
  000db	6a 00		 push	 0
  000dd	ff b5 e8 fd ff
	ff		 push	 DWORD PTR _strMsg$3[ebp]
  000e3	e8 00 00 00 00	 call	 ?AfxMessageBox@@YGHPBDII@Z ; AfxMessageBox
  000e8	8d 8d e8 fd ff
	ff		 lea	 ecx, DWORD PTR _strMsg$3[ebp]
  000ee	ff 15 00 00 00
	00		 call	 DWORD PTR __imp_??1?$CStringT@DV?$StrTraitMFC_DLL@DV?$ChTraitsCRT@D@ATL@@@@@ATL@@QAE@XZ
  000f4	8b 06		 mov	 eax, DWORD PTR [esi]
  000f6	8b ce		 mov	 ecx, esi
  000f8	6a 01		 push	 1
  000fa	ff 50 04	 call	 DWORD PTR [eax+4]
  000fd	b8 00 00 00 00	 mov	 eax, $LN18@CGdiObject
  00102	c3		 ret	 0
_TEXT	ENDS
;	COMDAT text$x
text$x	SEGMENT
__unwindfunclet$??1CGdiObject@@UAE@XZ$2:
  00000	8d 8d e8 fd ff
	ff		 lea	 ecx, DWORD PTR _strMsg$3[ebp]
  00006	ff 25 00 00 00
	00		 jmp	 DWORD PTR __imp_??1?$CStringT@DV?$StrTraitMFC_DLL@DV?$ChTraitsCRT@D@ATL@@@@@ATL@@QAE@XZ
  0000c	cc		 int	 3
  0000d	cc		 int	 3
  0000e	cc		 int	 3
  0000f	cc		 int	 3
  00010	cc		 int	 3
__ehhandler$??1CGdiObject@@UAE@XZ:
  00011	90		 npad	 1
  00012	90		 npad	 1
  00013	8b 54 24 08	 mov	 edx, DWORD PTR [esp+8]
  00017	8d 42 0c	 lea	 eax, DWORD PTR [edx+12]
  0001a	8b 8a e0 fd ff
	ff		 mov	 ecx, DWORD PTR [edx-544]
  00020	33 c8		 xor	 ecx, eax
  00022	e8 00 00 00 00	 call	 @__security_check_cookie@4
  00027	8b 4a f8	 mov	 ecx, DWORD PTR [edx-8]
  0002a	33 c8		 xor	 ecx, eax
  0002c	e8 00 00 00 00	 call	 @__security_check_cookie@4
  00031	b8 00 00 00 00	 mov	 eax, OFFSET __ehfuncinfo$??1CGdiObject@@UAE@XZ
  00036	e9 00 00 00 00	 jmp	 ___CxxFrameHandler3
text$x	ENDS
??1CGdiObject@@UAE@XZ ENDP				; CGdiObject::~CGdiObject
; Function compile flags: /Ogtp
; File C:\Program Files (x86)\Microsoft Visual Studio\2019\Community\VC\Tools\MSVC\14.29.30133\atlmfc\include\afx.inl
;	COMDAT ?Dump@CObject@@UBEXAAVCDumpContext@@@Z
_TEXT	SEGMENT
___formal$ = 8						; size = 4
?Dump@CObject@@UBEXAAVCDumpContext@@@Z PROC		; CObject::Dump, COMDAT
; _this$ = ecx

; 122  : 	{ /* no dumping in release builds */ }

  00000	c2 04 00	 ret	 4
?Dump@CObject@@UBEXAAVCDumpContext@@@Z ENDP		; CObject::Dump
_TEXT	ENDS
; Function compile flags: /Ogtp
; File C:\Program Files (x86)\Microsoft Visual Studio\2019\Community\VC\Tools\MSVC\14.29.30133\atlmfc\include\afx.inl
;	COMDAT ?AssertValid@CObject@@UBEXXZ
_TEXT	SEGMENT
?AssertValid@CObject@@UBEXXZ PROC			; CObject::AssertValid, COMDAT
; _this$ = ecx

; 120  : 	{ /* no asserts in release builds */ }

  00000	c2 00 00	 ret	 0
?AssertValid@CObject@@UBEXXZ ENDP			; CObject::AssertValid
_TEXT	ENDS
; Function compile flags: /Ogtp
; File C:\Program Files (x86)\Microsoft Visual Studio\2019\Community\VC\Tools\MSVC\14.29.30133\atlmfc\include\afx.inl
;	COMDAT ?Serialize@CObject@@UAEXAAVCArchive@@@Z
_TEXT	SEGMENT
___formal$ = 8						; size = 4
?Serialize@CObject@@UAEXAAVCArchive@@@Z PROC		; CObject::Serialize, COMDAT
; _this$ = ecx

; 106  : 	{ /* CObject does not serialize anything by default */ }

  00000	c2 04 00	 ret	 4
?Serialize@CObject@@UAEXAAVCArchive@@@Z ENDP		; CObject::Serialize
_TEXT	ENDS
; Function compile flags: /Ogtp
; File C:\Program Files (x86)\Microsoft Visual Studio\2019\Community\VC\Tools\MSVC\14.29.30133\atlmfc\include\afx.inl
;	COMDAT ??1CObject@@UAE@XZ
_TEXT	SEGMENT
??1CObject@@UAE@XZ PROC					; CObject::~CObject, COMDAT
; _this$ = ecx

; 104  : 	{ }

  00000	c2 00 00	 ret	 0
??1CObject@@UAE@XZ ENDP					; CObject::~CObject
_TEXT	ENDS
; Function compile flags: /Ogtp
; File C:\Program Files (x86)\Microsoft Visual Studio\2019\Community\VC\Tools\MSVC\14.29.30133\atlmfc\include\afx.h
;	COMDAT ?AfxCrtErrorCheck@@YAHH@Z
_TEXT	SEGMENT
_error$ = 8						; size = 4
?AfxCrtErrorCheck@@YAHH@Z PROC				; AfxCrtErrorCheck, COMDAT

; 503  : {

  00000	55		 push	 ebp
  00001	8b ec		 mov	 ebp, esp

; 504  : 	switch(error)

  00003	8b 4d 08	 mov	 ecx, DWORD PTR _error$[ebp]
  00006	83 f9 50	 cmp	 ecx, 80			; 00000050H
  00009	77 17		 ja	 SHORT $LN9@AfxCrtErro
  0000b	0f b6 81 00 00
	00 00		 movzx	 eax, BYTE PTR $LN11@AfxCrtErro[ecx]
  00012	ff 24 85 00 00
	00 00		 jmp	 DWORD PTR $LN12@AfxCrtErro[eax*4]
$LN4@AfxCrtErro:

; 505  : 	{
; 506  : 	case ENOMEM:
; 507  : 		AfxThrowMemoryException();

  00019	e9 00 00 00 00	 jmp	 ?AfxThrowMemoryException@@YGXXZ ; AfxThrowMemoryException
$LN7@AfxCrtErro:

; 518  : 		break;
; 519  : 	}
; 520  : 	return error;

  0001e	8b c1		 mov	 eax, ecx

; 521  : }

  00020	5d		 pop	 ebp
  00021	c3		 ret	 0
$LN9@AfxCrtErro:

; 508  : 		break;
; 509  : 	case EINVAL:
; 510  : 	case ERANGE:
; 511  : 		AfxThrowInvalidArgException();
; 512  : 		break;
; 513  : 	case STRUNCATE:
; 514  : 	case 0:
; 515  : 		break;
; 516  : 	default:
; 517  : 		AfxThrowInvalidArgException();

  00022	e9 00 00 00 00	 jmp	 ?AfxThrowInvalidArgException@@YGXXZ ; AfxThrowInvalidArgException
  00027	90		 npad	 1
$LN12@AfxCrtErro:

; 521  : }

  00028	00 00 00 00	 DD	 $LN7@AfxCrtErro
  0002c	00 00 00 00	 DD	 $LN4@AfxCrtErro
  00030	00 00 00 00	 DD	 $LN9@AfxCrtErro
  00034	00 00 00 00	 DD	 $LN9@AfxCrtErro
$LN11@AfxCrtErro:
  00038	00		 DB	 0
  00039	03		 DB	 3
  0003a	03		 DB	 3
  0003b	03		 DB	 3
  0003c	03		 DB	 3
  0003d	03		 DB	 3
  0003e	03		 DB	 3
  0003f	03		 DB	 3
  00040	03		 DB	 3
  00041	03		 DB	 3
  00042	03		 DB	 3
  00043	03		 DB	 3
  00044	01		 DB	 1
  00045	03		 DB	 3
  00046	03		 DB	 3
  00047	03		 DB	 3
  00048	03		 DB	 3
  00049	03		 DB	 3
  0004a	03		 DB	 3
  0004b	03		 DB	 3
  0004c	03		 DB	 3
  0004d	03		 DB	 3
  0004e	02		 DB	 2
  0004f	03		 DB	 3
  00050	03		 DB	 3
  00051	03		 DB	 3
  00052	03		 DB	 3
  00053	03		 DB	 3
  00054	03		 DB	 3
  00055	03		 DB	 3
  00056	03		 DB	 3
  00057	03		 DB	 3
  00058	03		 DB	 3
  00059	03		 DB	 3
  0005a	02		 DB	 2
  0005b	03		 DB	 3
  0005c	03		 DB	 3
  0005d	03		 DB	 3
  0005e	03		 DB	 3
  0005f	03		 DB	 3
  00060	03		 DB	 3
  00061	03		 DB	 3
  00062	03		 DB	 3
  00063	03		 DB	 3
  00064	03		 DB	 3
  00065	03		 DB	 3
  00066	03		 DB	 3
  00067	03		 DB	 3
  00068	03		 DB	 3
  00069	03		 DB	 3
  0006a	03		 DB	 3
  0006b	03		 DB	 3
  0006c	03		 DB	 3
  0006d	03		 DB	 3
  0006e	03		 DB	 3
  0006f	03		 DB	 3
  00070	03		 DB	 3
  00071	03		 DB	 3
  00072	03		 DB	 3
  00073	03		 DB	 3
  00074	03		 DB	 3
  00075	03		 DB	 3
  00076	03		 DB	 3
  00077	03		 DB	 3
  00078	03		 DB	 3
  00079	03		 DB	 3
  0007a	03		 DB	 3
  0007b	03		 DB	 3
  0007c	03		 DB	 3
  0007d	03		 DB	 3
  0007e	03		 DB	 3
  0007f	03		 DB	 3
  00080	03		 DB	 3
  00081	03		 DB	 3
  00082	03		 DB	 3
  00083	03		 DB	 3
  00084	03		 DB	 3
  00085	03		 DB	 3
  00086	03		 DB	 3
  00087	03		 DB	 3
  00088	00		 DB	 0
?AfxCrtErrorCheck@@YAHH@Z ENDP				; AfxCrtErrorCheck
_TEXT	ENDS
; Function compile flags: /Ogtp
; File D:\git\src\IBK\IBK_DRFN\ProjSrc\SrcDrfn\Chart\HWSTRATEGYCONFIGUREWIZARD\Control\LogicEditCtrl.cpp
;	COMDAT ?__empty_global_delete@@YAXPAXI@Z
_TEXT	SEGMENT
___formal$ = 8						; size = 4
___formal$ = 12						; size = 4
?__empty_global_delete@@YAXPAXI@Z PROC			; __empty_global_delete, COMDAT

  00000	c2 00 00	 ret	 0
?__empty_global_delete@@YAXPAXI@Z ENDP			; __empty_global_delete
_TEXT	ENDS
; Function compile flags: /Ogtp
; File D:\git\src\IBK\IBK_DRFN\ProjSrc\SrcDrfn\Chart\HWSTRATEGYCONFIGUREWIZARD\Control\LogicEditCtrl.cpp
;	COMDAT ?__empty_global_delete@@YAXPAX@Z
_TEXT	SEGMENT
___formal$ = 8						; size = 4
?__empty_global_delete@@YAXPAX@Z PROC			; __empty_global_delete, COMDAT

  00000	c2 00 00	 ret	 0
?__empty_global_delete@@YAXPAX@Z ENDP			; __empty_global_delete
_TEXT	ENDS
END
