; Listing generated by Microsoft (R) Optimizing Compiler Version 19.29.30145.0 

	TITLE	D:\git\src\IBK\IBK_DRFN\#DRfn-CS\_Obj\HWStrategyConfigureWizard\OutLookBarDlg.obj
	.686P
	.XMM
	include listing.inc
	.model	flat

INCLUDELIB MSVCRT
INCLUDELIB OLDNAMES

PUBLIC	??_C@_0BK@FBLMOCPF@RMSG_FORMINITIALCOMPLETED@	; `string'
PUBLIC	??_C@_0BF@JNMMFBNP@RMSG_EVENT_CODEINPUT@	; `string'
PUBLIC	??_C@_0BF@LEGBOMJF@RMSG_EVENT_ACCTINPUT@	; `string'
PUBLIC	??_C@_0BF@FABJBMLM@RMSG_EVENT_SPININPUT@	; `string'
PUBLIC	??_C@_0BC@PGMEIMOI@RMSG_EVENT_SIGNAL@		; `string'
PUBLIC	??_C@_0BF@FPLDPAEH@RMSG_FORMSTATECHANGE@	; `string'
PUBLIC	??_C@_0N@IMGBDGND@RMSG_TABSTOP@			; `string'
PUBLIC	??_C@_0BC@MMIGKJED@RMSG_LBTNDBLCLICK@		; `string'
PUBLIC	??_C@_0O@DGNCFOOP@RMSG_LBTNDOWN@		; `string'
PUBLIC	??_C@_0BC@EMMLKNDL@RMSG_ENDSCROLLPOS@		; `string'
PUBLIC	??_C@_0BE@IEJDDJPC@RMSG_LSHAREDCHANGED@		; `string'
PUBLIC	??_C@_0BC@LAMDBJGM@RMSG_OB_ITEMCLICK@		; `string'
PUBLIC	??_C@_0BD@GFDLLOKP@RMSG_OB_ITEMDBLCLK@		; `string'
;	COMDAT ??_C@_0BD@GFDLLOKP@RMSG_OB_ITEMDBLCLK@
CONST	SEGMENT
??_C@_0BD@GFDLLOKP@RMSG_OB_ITEMDBLCLK@ DB 'RMSG_OB_ITEMDBLCLK', 00H ; `string'
CONST	ENDS
;	COMDAT ??_C@_0BC@LAMDBJGM@RMSG_OB_ITEMCLICK@
CONST	SEGMENT
??_C@_0BC@LAMDBJGM@RMSG_OB_ITEMCLICK@ DB 'RMSG_OB_ITEMCLICK', 00H ; `string'
CONST	ENDS
;	COMDAT ??_C@_0BE@IEJDDJPC@RMSG_LSHAREDCHANGED@
CONST	SEGMENT
??_C@_0BE@IEJDDJPC@RMSG_LSHAREDCHANGED@ DB 'RMSG_LSHAREDCHANGED', 00H ; `string'
CONST	ENDS
;	COMDAT ??_C@_0BC@EMMLKNDL@RMSG_ENDSCROLLPOS@
CONST	SEGMENT
??_C@_0BC@EMMLKNDL@RMSG_ENDSCROLLPOS@ DB 'RMSG_ENDSCROLLPOS', 00H ; `string'
CONST	ENDS
;	COMDAT ??_C@_0O@DGNCFOOP@RMSG_LBTNDOWN@
CONST	SEGMENT
??_C@_0O@DGNCFOOP@RMSG_LBTNDOWN@ DB 'RMSG_LBTNDOWN', 00H ; `string'
CONST	ENDS
;	COMDAT ??_C@_0BC@MMIGKJED@RMSG_LBTNDBLCLICK@
CONST	SEGMENT
??_C@_0BC@MMIGKJED@RMSG_LBTNDBLCLICK@ DB 'RMSG_LBTNDBLCLICK', 00H ; `string'
CONST	ENDS
;	COMDAT ??_C@_0N@IMGBDGND@RMSG_TABSTOP@
CONST	SEGMENT
??_C@_0N@IMGBDGND@RMSG_TABSTOP@ DB 'RMSG_TABSTOP', 00H	; `string'
CONST	ENDS
;	COMDAT ??_C@_0BF@FPLDPAEH@RMSG_FORMSTATECHANGE@
CONST	SEGMENT
??_C@_0BF@FPLDPAEH@RMSG_FORMSTATECHANGE@ DB 'RMSG_FORMSTATECHANGE', 00H ; `string'
CONST	ENDS
;	COMDAT ??_C@_0BC@PGMEIMOI@RMSG_EVENT_SIGNAL@
CONST	SEGMENT
??_C@_0BC@PGMEIMOI@RMSG_EVENT_SIGNAL@ DB 'RMSG_EVENT_SIGNAL', 00H ; `string'
CONST	ENDS
;	COMDAT ??_C@_0BF@FABJBMLM@RMSG_EVENT_SPININPUT@
CONST	SEGMENT
??_C@_0BF@FABJBMLM@RMSG_EVENT_SPININPUT@ DB 'RMSG_EVENT_SPININPUT', 00H ; `string'
CONST	ENDS
;	COMDAT ??_C@_0BF@LEGBOMJF@RMSG_EVENT_ACCTINPUT@
CONST	SEGMENT
??_C@_0BF@LEGBOMJF@RMSG_EVENT_ACCTINPUT@ DB 'RMSG_EVENT_ACCTINPUT', 00H ; `string'
CONST	ENDS
;	COMDAT ??_C@_0BF@JNMMFBNP@RMSG_EVENT_CODEINPUT@
CONST	SEGMENT
??_C@_0BF@JNMMFBNP@RMSG_EVENT_CODEINPUT@ DB 'RMSG_EVENT_CODEINPUT', 00H ; `string'
CONST	ENDS
;	COMDAT ??_C@_0BK@FBLMOCPF@RMSG_FORMINITIALCOMPLETED@
CONST	SEGMENT
??_C@_0BK@FBLMOCPF@RMSG_FORMINITIALCOMPLETED@ DB 'RMSG_FORMINITIALCOMPLET'
	DB	'ED', 00H					; `string'
CONST	ENDS
PUBLIC	??_H@YGXPAXIIP6EPAX0@Z@Z			; `vector constructor iterator'
PUBLIC	?__empty_global_delete@@YAXPAX@Z		; __empty_global_delete
PUBLIC	?__empty_global_delete@@YAXPAXI@Z		; __empty_global_delete
PUBLIC	___local_stdio_scanf_options
PUBLIC	_sscanf
PUBLIC	??1CObject@@UAE@XZ				; CObject::~CObject
PUBLIC	?Serialize@CObject@@UAEXAAVCArchive@@@Z		; CObject::Serialize
PUBLIC	?AssertValid@CObject@@UBEXXZ			; CObject::AssertValid
PUBLIC	?Dump@CObject@@UBEXAAVCDumpContext@@@Z		; CObject::Dump
PUBLIC	??HATL@@YA?AV?$CStringT@DV?$StrTraitMFC_DLL@DV?$ChTraitsCRT@D@ATL@@@@@0@ABV10@PBD@Z ; ATL::operator+
PUBLIC	??1CGdiObject@@UAE@XZ				; CGdiObject::~CGdiObject
PUBLIC	??_GCGdiObject@@UAEPAXI@Z			; CGdiObject::`scalar deleting destructor'
PUBLIC	??1CBrush@@UAE@XZ				; CBrush::~CBrush
PUBLIC	??_GCBrush@@UAEPAXI@Z				; CBrush::`scalar deleting destructor'
PUBLIC	??1CBitmap@@UAE@XZ				; CBitmap::~CBitmap
PUBLIC	??_GCBitmap@@UAEPAXI@Z				; CBitmap::`scalar deleting destructor'
PUBLIC	?DoDataExchange@CWnd@@MAEXPAVCDataExchange@@@Z	; CWnd::DoDataExchange
PUBLIC	?BeginModalState@CWnd@@UAEXXZ			; CWnd::BeginModalState
PUBLIC	?EndModalState@CWnd@@UAEXXZ			; CWnd::EndModalState
PUBLIC	?Create@CDialog@@UAEHIPAVCWnd@@@Z		; CDialog::Create
PUBLIC	??1STMNG_ITEMINFO@@QAE@XZ			; STMNG_ITEMINFO::~STMNG_ITEMINFO
PUBLIC	??1STLISTITEMDATA@@QAE@XZ			; STLISTITEMDATA::~STLISTITEMDATA
PUBLIC	?_GetBaseClass@COutLookBarDlg@@KGPAUCRuntimeClass@@XZ ; COutLookBarDlg::_GetBaseClass
PUBLIC	?GetThisClass@COutLookBarDlg@@SGPAUCRuntimeClass@@XZ ; COutLookBarDlg::GetThisClass
PUBLIC	?GetRuntimeClass@COutLookBarDlg@@UBEPAUCRuntimeClass@@XZ ; COutLookBarDlg::GetRuntimeClass
PUBLIC	??0COutLookBarDlg@@QAE@PAVCWnd@@@Z		; COutLookBarDlg::COutLookBarDlg
PUBLIC	??1COutLookBarDlg@@UAE@XZ			; COutLookBarDlg::~COutLookBarDlg
PUBLIC	?DoDataExchange@COutLookBarDlg@@MAEXPAVCDataExchange@@@Z ; COutLookBarDlg::DoDataExchange
PUBLIC	?SetSTParent@COutLookBarDlg@@QAEXPAVCWnd@@@Z	; COutLookBarDlg::SetSTParent
PUBLIC	?LoadSTList@COutLookBarDlg@@QAEXXZ		; COutLookBarDlg::LoadSTList
PUBLIC	?UpdateSTList@COutLookBarDlg@@QAEXHV?$CStringT@DV?$StrTraitMFC_DLL@DV?$ChTraitsCRT@D@ATL@@@@@ATL@@@Z ; COutLookBarDlg::UpdateSTList
PUBLIC	?GetSTPathSelected@COutLookBarDlg@@QAE?AV?$CStringT@DV?$StrTraitMFC_DLL@DV?$ChTraitsCRT@D@ATL@@@@@ATL@@AAV23@@Z ; COutLookBarDlg::GetSTPathSelected
PUBLIC	?Resize@COutLookBarDlg@@QAEXXZ			; COutLookBarDlg::Resize
PUBLIC	?GetRect@COutLookBarDlg@@QAE?AVCRect@@H@Z	; COutLookBarDlg::GetRect
PUBLIC	?IsUserFolder@COutLookBarDlg@@QAEHH@Z		; COutLookBarDlg::IsUserFolder
PUBLIC	?GetThisMessageMap@COutLookBarDlg@@KGPBUAFX_MSGMAP@@XZ ; COutLookBarDlg::GetThisMessageMap
PUBLIC	?GetMessageMap@COutLookBarDlg@@MBEPBUAFX_MSGMAP@@XZ ; COutLookBarDlg::GetMessageMap
PUBLIC	?OnInitDialog@COutLookBarDlg@@MAEHXZ		; COutLookBarDlg::OnInitDialog
PUBLIC	?OnSize@COutLookBarDlg@@IAEXIHH@Z		; COutLookBarDlg::OnSize
PUBLIC	?OnDestroy@COutLookBarDlg@@IAEXXZ		; COutLookBarDlg::OnDestroy
PUBLIC	?OnCtlColor@COutLookBarDlg@@IAEPAUHBRUSH__@@PAVCDC@@PAVCWnd@@I@Z ; COutLookBarDlg::OnCtlColor
PUBLIC	?WindowProc@COutLookBarDlg@@MAEJIIJ@Z		; COutLookBarDlg::WindowProc
PUBLIC	?PreTranslateMessage@COutLookBarDlg@@MAEHPAUtagMSG@@@Z ; COutLookBarDlg::PreTranslateMessage
PUBLIC	?OnBnClickedBtnFindst@COutLookBarDlg@@QAEXXZ	; COutLookBarDlg::OnBnClickedBtnFindst
PUBLIC	?OnBnClickedBtnNextst@COutLookBarDlg@@QAEXXZ	; COutLookBarDlg::OnBnClickedBtnNextst
PUBLIC	??_GCOutLookBarDlg@@UAEPAXI@Z			; COutLookBarDlg::`scalar deleting destructor'
PUBLIC	?_OptionsStorage@?1??__local_stdio_scanf_options@@9@4_KA ; `__local_stdio_scanf_options'::`2'::_OptionsStorage
PUBLIC	??_R0PAVCException@@@8				; CException * `RTTI Type Descriptor'
PUBLIC	??_C@_00CNPNBAHC@@				; `string'
PUBLIC	??_7CGdiObject@@6B@				; CGdiObject::`vftable'
PUBLIC	??_7CBrush@@6B@					; CBrush::`vftable'
PUBLIC	??_7CBitmap@@6B@				; CBitmap::`vftable'
PUBLIC	??_C@_0HD@JJCHHHNK@C?3?2Program?5Files?5?$CIx86?$CJ?2Microsof@ ; `string'
PUBLIC	??_C@_0BP@OIEOKIDM@Exception?5thrown?5in?5destructor@ ; `string'
PUBLIC	??_C@_0BB@HBOOMJBF@?$CFTs?5?$CI?$CFTs?3?$CFd?$CJ?6?$CFTs@ ; `string'
PUBLIC	??_C@_0N@OMEMOKLE@?$CFTs?5?$CI?$CFTs?3?$CFd?$CJ@ ; `string'
PUBLIC	??_R0?AVCObject@@@8				; CObject `RTTI Type Descriptor'
PUBLIC	??_R3CObject@@8					; CObject::`RTTI Class Hierarchy Descriptor'
PUBLIC	??_R2CObject@@8					; CObject::`RTTI Base Class Array'
PUBLIC	??_R1A@?0A@EA@CObject@@8			; CObject::`RTTI Base Class Descriptor at (0,-1,0,64)'
PUBLIC	??_R4CGdiObject@@6B@				; CGdiObject::`RTTI Complete Object Locator'
PUBLIC	??_R0?AVCGdiObject@@@8				; CGdiObject `RTTI Type Descriptor'
PUBLIC	??_R3CGdiObject@@8				; CGdiObject::`RTTI Class Hierarchy Descriptor'
PUBLIC	??_R2CGdiObject@@8				; CGdiObject::`RTTI Base Class Array'
PUBLIC	??_R1A@?0A@EA@CGdiObject@@8			; CGdiObject::`RTTI Base Class Descriptor at (0,-1,0,64)'
PUBLIC	??_R4CBrush@@6B@				; CBrush::`RTTI Complete Object Locator'
PUBLIC	??_R0?AVCBrush@@@8				; CBrush `RTTI Type Descriptor'
PUBLIC	??_R3CBrush@@8					; CBrush::`RTTI Class Hierarchy Descriptor'
PUBLIC	??_R2CBrush@@8					; CBrush::`RTTI Base Class Array'
PUBLIC	??_R1A@?0A@EA@CBrush@@8				; CBrush::`RTTI Base Class Descriptor at (0,-1,0,64)'
PUBLIC	??_R4CBitmap@@6B@				; CBitmap::`RTTI Complete Object Locator'
PUBLIC	??_R0?AVCBitmap@@@8				; CBitmap `RTTI Type Descriptor'
PUBLIC	??_R3CBitmap@@8					; CBitmap::`RTTI Class Hierarchy Descriptor'
PUBLIC	??_R2CBitmap@@8					; CBitmap::`RTTI Base Class Array'
PUBLIC	??_R1A@?0A@EA@CBitmap@@8			; CBitmap::`RTTI Base Class Descriptor at (0,-1,0,64)'
PUBLIC	??_R1A@?0A@EA@CWnd@@8				; CWnd::`RTTI Base Class Descriptor at (0,-1,0,64)'
PUBLIC	??_R0?AVCWnd@@@8				; CWnd `RTTI Type Descriptor'
PUBLIC	??_R3CWnd@@8					; CWnd::`RTTI Class Hierarchy Descriptor'
PUBLIC	??_R2CWnd@@8					; CWnd::`RTTI Base Class Array'
PUBLIC	??_R1A@?0A@EA@CCmdTarget@@8			; CCmdTarget::`RTTI Base Class Descriptor at (0,-1,0,64)'
PUBLIC	??_R0?AVCCmdTarget@@@8				; CCmdTarget `RTTI Type Descriptor'
PUBLIC	??_R3CCmdTarget@@8				; CCmdTarget::`RTTI Class Hierarchy Descriptor'
PUBLIC	??_R2CCmdTarget@@8				; CCmdTarget::`RTTI Base Class Array'
PUBLIC	??_R1A@?0A@EA@CDialog@@8			; CDialog::`RTTI Base Class Descriptor at (0,-1,0,64)'
PUBLIC	??_R0?AVCDialog@@@8				; CDialog `RTTI Type Descriptor'
PUBLIC	??_R3CDialog@@8					; CDialog::`RTTI Class Hierarchy Descriptor'
PUBLIC	??_R2CDialog@@8					; CDialog::`RTTI Base Class Array'
PUBLIC	?classCOutLookBarDlg@COutLookBarDlg@@2UCRuntimeClass@@B ; COutLookBarDlg::classCOutLookBarDlg
PUBLIC	??_7COutLookBarDlg@@6B@				; COutLookBarDlg::`vftable'
PUBLIC	??_C@_0P@HKNMPGAE@COutLookBarDlg@		; `string'
PUBLIC	??_C@_0L@BHJABNKA@?2STDATA?2ST@			; `string'
PUBLIC	??_C@_0P@LLAIGDEE@?2Image?2drchart@		; `string'
PUBLIC	??_C@_0O@DADNAINN@?$CFs?2folder?4bmp@		; `string'
PUBLIC	??_C@_0BD@OCOIJGGE@?$CFs?2outbar_icon?4bmp@	; `string'
PUBLIC	??_C@_04ECGMOPPD@?$CK?4ST@			; `string'
PUBLIC	??_C@_01KICIPPFI@?2@				; `string'
PUBLIC	??_C@_0BH@PGFEHFKK@?$LA?K?$LL?v?$LI?m?$MA?$LL?5?$MA?T?$LH?B?G?O?$LN?J?$LN?C?$LP?d?4@ ; `string'
PUBLIC	??_C@_05NFGPCJDJ@?$CFd?3?$CFd@			; `string'
PUBLIC	??_C@_0CC@EHJDCDHD@?$FL?$CFs?$FN?5?$LP?$KB?5?$LE?k?G?Q?5?$LA?K?$LL?v?$LA?a?$LA?z?$LA?$KB?5?$LO?x?$LN?$MA?$LE?O?$LE@ ; `string'
PUBLIC	??_C@_0BI@GFKEBOCG@?$LA?K?$LL?v?G?Q?5?$LA?a?$LA?z?$LA?$KB?5?$LO?x?$LN?$MA?$LE?O?$LE?Y?4@ ; `string'
PUBLIC	??_C@_0CB@BDFGCOEN@?$LA?K?$LL?v?G?Q?5?$LA?a?$LA?z?$LI?$KG?5?$LI?p?$LF?N?5?H?$KO?$MA?N?G?$NP?$LN?$MA?$LE?O?$LE?Y@ ; `string'
PUBLIC	??_R4COutLookBarDlg@@6B@			; COutLookBarDlg::`RTTI Complete Object Locator'
PUBLIC	??_R0?AVCOutLookBarDlg@@@8			; COutLookBarDlg `RTTI Type Descriptor'
PUBLIC	??_R3COutLookBarDlg@@8				; COutLookBarDlg::`RTTI Class Hierarchy Descriptor'
PUBLIC	??_R2COutLookBarDlg@@8				; COutLookBarDlg::`RTTI Base Class Array'
PUBLIC	??_R1A@?0A@EA@COutLookBarDlg@@8			; COutLookBarDlg::`RTTI Base Class Descriptor at (0,-1,0,64)'
PUBLIC	__xmm@00000064000000640000000000000000
EXTRN	??3@YAXPAX@Z:PROC				; operator delete
EXTRN	?__global_delete@@YAXPAXI@Z:PROC		; __global_delete
EXTRN	__imp__CreateSolidBrush@4:PROC
EXTRN	__imp__RegisterWindowMessageA@4:PROC
EXTRN	__imp__SendMessageA@16:PROC
EXTRN	__imp__GetKeyState@4:PROC
EXTRN	__imp__EnableWindow@8:PROC
EXTRN	__imp__GetClientRect@8:PROC
EXTRN	__imp__GetParent@4:PROC
EXTRN	__imp__LoadImageA@24:PROC
EXTRN	__imp__ImageList_AddMasked@12:PROC
EXTRN	__imp____stdio_common_vsscanf:PROC
EXTRN	?AfxThrowInvalidArgException@@YGXXZ:PROC	; AfxThrowInvalidArgException
EXTRN	__imp_?Concatenate@?$CSimpleStringT@D$00@ATL@@KAXAAV12@PBDH1H@Z:PROC
EXTRN	__imp_??0?$CStringT@DV?$StrTraitMFC_DLL@DV?$ChTraitsCRT@D@ATL@@@@@ATL@@QAE@XZ:PROC
EXTRN	__imp_??0?$CStringT@DV?$StrTraitMFC_DLL@DV?$ChTraitsCRT@D@ATL@@@@@ATL@@QAE@PAUIAtlStringMgr@1@@Z:PROC
EXTRN	__imp_??0?$CStringT@DV?$StrTraitMFC_DLL@DV?$ChTraitsCRT@D@ATL@@@@@ATL@@QAE@ABV01@@Z:PROC
EXTRN	__imp_??0?$CStringT@DV?$StrTraitMFC_DLL@DV?$ChTraitsCRT@D@ATL@@@@@ATL@@QAE@PBD@Z:PROC
EXTRN	__imp_??1?$CStringT@DV?$StrTraitMFC_DLL@DV?$ChTraitsCRT@D@ATL@@@@@ATL@@QAE@XZ:PROC
EXTRN	__imp_??4?$CStringT@DV?$StrTraitMFC_DLL@DV?$ChTraitsCRT@D@ATL@@@@@ATL@@QAEAAV01@ABV01@@Z:PROC
EXTRN	__imp_??4?$CStringT@DV?$StrTraitMFC_DLL@DV?$ChTraitsCRT@D@ATL@@@@@ATL@@QAEAAV01@PBD@Z:PROC
EXTRN	__imp_??Y?$CStringT@DV?$StrTraitMFC_DLL@DV?$ChTraitsCRT@D@ATL@@@@@ATL@@QAEAAV01@ABV?$CSimpleStringT@D$00@1@@Z:PROC
EXTRN	__imp_??Y?$CStringT@DV?$StrTraitMFC_DLL@DV?$ChTraitsCRT@D@ATL@@@@@ATL@@QAEAAV01@PBD@Z:PROC
EXTRN	__imp_?GetManager@?$CStringT@DV?$StrTraitMFC_DLL@DV?$ChTraitsCRT@D@ATL@@@@@ATL@@QBEPAUIAtlStringMgr@2@XZ:PROC
EXTRN	__imp_?Format@?$CStringT@DV?$StrTraitMFC_DLL@DV?$ChTraitsCRT@D@ATL@@@@@ATL@@QAAXPBDZZ:PROC
EXTRN	??0CStringArray@@QAE@XZ:PROC			; CStringArray::CStringArray
EXTRN	?SetSize@CStringArray@@QAEXHH@Z:PROC		; CStringArray::SetSize
EXTRN	?SetAtGrow@CStringArray@@QAEXHABV?$CStringT@DV?$StrTraitMFC_DLL@DV?$ChTraitsCRT@D@ATL@@@@@ATL@@@Z:PROC ; CStringArray::SetAtGrow
EXTRN	??1CStringArray@@UAE@XZ:PROC			; CStringArray::~CStringArray
EXTRN	?GetRuntimeClass@CGdiObject@@UBEPAUCRuntimeClass@@XZ:PROC ; CGdiObject::GetRuntimeClass
EXTRN	?Attach@CGdiObject@@QAEHPAX@Z:PROC		; CGdiObject::Attach
EXTRN	?DeleteObject@CGdiObject@@QAEHXZ:PROC		; CGdiObject::DeleteObject
EXTRN	??_ECGdiObject@@UAEPAXI@Z:PROC			; CGdiObject::`vector deleting destructor'
EXTRN	?GetRuntimeClass@CBrush@@UBEPAUCRuntimeClass@@XZ:PROC ; CBrush::GetRuntimeClass
EXTRN	??_ECBrush@@UAEPAXI@Z:PROC			; CBrush::`vector deleting destructor'
EXTRN	?GetRuntimeClass@CBitmap@@UBEPAUCRuntimeClass@@XZ:PROC ; CBitmap::GetRuntimeClass
EXTRN	??_ECBitmap@@UAEPAXI@Z:PROC			; CBitmap::`vector deleting destructor'
EXTRN	??0CImageList@@QAE@XZ:PROC			; CImageList::CImageList
EXTRN	?Create@CImageList@@QAEHHHIHH@Z:PROC		; CImageList::Create
EXTRN	?DeleteImageList@CImageList@@QAEHXZ:PROC	; CImageList::DeleteImageList
EXTRN	??1CImageList@@UAE@XZ:PROC			; CImageList::~CImageList
EXTRN	?DDX_Control@@YGXPAVCDataExchange@@HAAVCWnd@@@Z:PROC ; DDX_Control
EXTRN	?IsInvokeAllowed@CCmdTarget@@UAEHJ@Z:PROC	; CCmdTarget::IsInvokeAllowed
EXTRN	?GetDispatchIID@CCmdTarget@@UAEHPAU_GUID@@@Z:PROC ; CCmdTarget::GetDispatchIID
EXTRN	?GetTypeInfoCount@CCmdTarget@@UAEIXZ:PROC	; CCmdTarget::GetTypeInfoCount
EXTRN	?GetTypeLibCache@CCmdTarget@@UAEPAVCTypeLibCache@@XZ:PROC ; CCmdTarget::GetTypeLibCache
EXTRN	?GetTypeLib@CCmdTarget@@UAEJKPAPAUITypeLib@@@Z:PROC ; CCmdTarget::GetTypeLib
EXTRN	?GetCommandMap@CCmdTarget@@MBEPBUAFX_OLECMDMAP@@XZ:PROC ; CCmdTarget::GetCommandMap
EXTRN	?GetDispatchMap@CCmdTarget@@MBEPBUAFX_DISPMAP@@XZ:PROC ; CCmdTarget::GetDispatchMap
EXTRN	?GetConnectionMap@CCmdTarget@@MBEPBUAFX_CONNECTIONMAP@@XZ:PROC ; CCmdTarget::GetConnectionMap
EXTRN	?GetEventSinkMap@CCmdTarget@@MBEPBUAFX_EVENTSINKMAP@@XZ:PROC ; CCmdTarget::GetEventSinkMap
EXTRN	?OnCreateAggregates@CCmdTarget@@UAEHXZ:PROC	; CCmdTarget::OnCreateAggregates
EXTRN	?GetInterfaceHook@CCmdTarget@@UAEPAUIUnknown@@PBX@Z:PROC ; CCmdTarget::GetInterfaceHook
EXTRN	?GetExtraConnectionPoints@CCmdTarget@@MAEHPAVCPtrArray@@@Z:PROC ; CCmdTarget::GetExtraConnectionPoints
EXTRN	?GetConnectionHook@CCmdTarget@@MAEPAUIConnectionPoint@@ABU_GUID@@@Z:PROC ; CCmdTarget::GetConnectionHook
EXTRN	?FromHandle@CWnd@@SGPAV1@PAUHWND__@@@Z:PROC	; CWnd::FromHandle
EXTRN	?PreSubclassWindow@CWnd@@UAEXXZ:PROC		; CWnd::PreSubclassWindow
EXTRN	?Create@CWnd@@UAEHPBD0KABUtagRECT@@PAV1@IPAUCCreateContext@@@Z:PROC ; CWnd::Create
EXTRN	?CreateEx@CWnd@@UAEHKPBD0KHHHHPAUHWND__@@PAUHMENU__@@PAX@Z:PROC ; CWnd::CreateEx
EXTRN	?CreateEx@CWnd@@UAEHKPBD0KABUtagRECT@@PAV1@IPAX@Z:PROC ; CWnd::CreateEx
EXTRN	?DestroyWindow@CWnd@@UAEHXZ:PROC		; CWnd::DestroyWindow
EXTRN	?PreCreateWindow@CWnd@@UAEHAAUtagCREATESTRUCTA@@@Z:PROC ; CWnd::PreCreateWindow
EXTRN	?CalcWindowRect@CWnd@@UAEXPAUtagRECT@@I@Z:PROC	; CWnd::CalcWindowRect
EXTRN	?GetMenu@CWnd@@UBEPAVCMenu@@XZ:PROC		; CWnd::GetMenu
EXTRN	?SetMenu@CWnd@@UAEHPAVCMenu@@@Z:PROC		; CWnd::SetMenu
EXTRN	?MoveWindow@CWnd@@QAEXHHHHH@Z:PROC		; CWnd::MoveWindow
EXTRN	?OnToolHitTest@CWnd@@UBEHVCPoint@@PAUtagTOOLINFOA@@@Z:PROC ; CWnd::OnToolHitTest
EXTRN	?GetDlgItemTextA@CWnd@@QBEHHAAV?$CStringT@DV?$StrTraitMFC_DLL@DV?$ChTraitsCRT@D@ATL@@@@@ATL@@@Z:PROC ; CWnd::GetDlgItemTextA
EXTRN	?GetScrollBarCtrl@CWnd@@UBEPAVCScrollBar@@H@Z:PROC ; CWnd::GetScrollBarCtrl
EXTRN	?WinHelpA@CWnd@@UAEXKI@Z:PROC			; CWnd::WinHelpA
EXTRN	?HtmlHelpA@CWnd@@UAEXKI@Z:PROC			; CWnd::HtmlHelpA
EXTRN	?WinHelpInternal@CWnd@@UAEXKI@Z:PROC		; CWnd::WinHelpInternal
EXTRN	?ContinueModal@CWnd@@UAEHXZ:PROC		; CWnd::ContinueModal
EXTRN	?EndModalLoop@CWnd@@UAEXH@Z:PROC		; CWnd::EndModalLoop
EXTRN	?OnDrawIconicThumbnailOrLivePreview@CWnd@@UAEXAAVCDC@@VCRect@@VCSize@@HAAH@Z:PROC ; CWnd::OnDrawIconicThumbnailOrLivePreview
EXTRN	?GetInterfaceMap@CWnd@@MBEPBUAFX_INTERFACEMAP@@XZ:PROC ; CWnd::GetInterfaceMap
EXTRN	?EnsureStdObj@CWnd@@UAEJXZ:PROC			; CWnd::EnsureStdObj
EXTRN	?get_accParent@CWnd@@UAEJPAPAUIDispatch@@@Z:PROC ; CWnd::get_accParent
EXTRN	?get_accChildCount@CWnd@@UAEJPAJ@Z:PROC		; CWnd::get_accChildCount
EXTRN	?get_accChild@CWnd@@UAEJUtagVARIANT@@PAPAUIDispatch@@@Z:PROC ; CWnd::get_accChild
EXTRN	?get_accName@CWnd@@UAEJUtagVARIANT@@PAPA_W@Z:PROC ; CWnd::get_accName
EXTRN	?get_accValue@CWnd@@UAEJUtagVARIANT@@PAPA_W@Z:PROC ; CWnd::get_accValue
EXTRN	?get_accDescription@CWnd@@UAEJUtagVARIANT@@PAPA_W@Z:PROC ; CWnd::get_accDescription
EXTRN	?get_accRole@CWnd@@UAEJUtagVARIANT@@PAU2@@Z:PROC ; CWnd::get_accRole
EXTRN	?get_accState@CWnd@@UAEJUtagVARIANT@@PAU2@@Z:PROC ; CWnd::get_accState
EXTRN	?get_accHelp@CWnd@@UAEJUtagVARIANT@@PAPA_W@Z:PROC ; CWnd::get_accHelp
EXTRN	?get_accHelpTopic@CWnd@@UAEJPAPA_WUtagVARIANT@@PAJ@Z:PROC ; CWnd::get_accHelpTopic
EXTRN	?get_accKeyboardShortcut@CWnd@@UAEJUtagVARIANT@@PAPA_W@Z:PROC ; CWnd::get_accKeyboardShortcut
EXTRN	?get_accFocus@CWnd@@UAEJPAUtagVARIANT@@@Z:PROC	; CWnd::get_accFocus
EXTRN	?get_accSelection@CWnd@@UAEJPAUtagVARIANT@@@Z:PROC ; CWnd::get_accSelection
EXTRN	?get_accDefaultAction@CWnd@@UAEJUtagVARIANT@@PAPA_W@Z:PROC ; CWnd::get_accDefaultAction
EXTRN	?accSelect@CWnd@@UAEJJUtagVARIANT@@@Z:PROC	; CWnd::accSelect
EXTRN	?accLocation@CWnd@@UAEJPAJ000UtagVARIANT@@@Z:PROC ; CWnd::accLocation
EXTRN	?accNavigate@CWnd@@UAEJJUtagVARIANT@@PAU2@@Z:PROC ; CWnd::accNavigate
EXTRN	?accHitTest@CWnd@@UAEJJJPAUtagVARIANT@@@Z:PROC	; CWnd::accHitTest
EXTRN	?accDoDefaultAction@CWnd@@UAEJUtagVARIANT@@@Z:PROC ; CWnd::accDoDefaultAction
EXTRN	?put_accName@CWnd@@UAEJUtagVARIANT@@PA_W@Z:PROC	; CWnd::put_accName
EXTRN	?put_accValue@CWnd@@UAEJUtagVARIANT@@PA_W@Z:PROC ; CWnd::put_accValue
EXTRN	?SetProxy@CWnd@@UAEJPAUIAccessibleProxy@@@Z:PROC ; CWnd::SetProxy
EXTRN	?CreateAccessibleProxy@CWnd@@UAEJIJPAJ@Z:PROC	; CWnd::CreateAccessibleProxy
EXTRN	?OnCommand@CWnd@@MAEHIJ@Z:PROC			; CWnd::OnCommand
EXTRN	?OnNotify@CWnd@@MAEHIJPAJ@Z:PROC		; CWnd::OnNotify
EXTRN	?OnCtlColor@CWnd@@IAEPAUHBRUSH__@@PAVCDC@@PAV1@I@Z:PROC ; CWnd::OnCtlColor
EXTRN	?OnDestroy@CWnd@@IAEXXZ:PROC			; CWnd::OnDestroy
EXTRN	?GetSuperWndProcAddr@CWnd@@MAEPAP6GJPAUHWND__@@IIJ@ZXZ:PROC ; CWnd::GetSuperWndProcAddr
EXTRN	?OnAmbientProperty@CWnd@@UAEHPAVCOleControlSite@@JPAUtagVARIANT@@@Z:PROC ; CWnd::OnAmbientProperty
EXTRN	?WindowProc@CWnd@@MAEJIIJ@Z:PROC		; CWnd::WindowProc
EXTRN	?OnWndMsg@CWnd@@MAEHIIJPAJ@Z:PROC		; CWnd::OnWndMsg
EXTRN	?Default@CWnd@@IAEJXZ:PROC			; CWnd::Default
EXTRN	?DefWindowProcA@CWnd@@MAEJIIJ@Z:PROC		; CWnd::DefWindowProcA
EXTRN	?PostNcDestroy@CWnd@@MAEXXZ:PROC		; CWnd::PostNcDestroy
EXTRN	?OnChildNotify@CWnd@@MAEHIIJPAJ@Z:PROC		; CWnd::OnChildNotify
EXTRN	?OnTouchInputs@CWnd@@MAEHIPAUtagTOUCHINPUT@@@Z:PROC ; CWnd::OnTouchInputs
EXTRN	?OnTouchInput@CWnd@@MAEHVCPoint@@HHPAUtagTOUCHINPUT@@@Z:PROC ; CWnd::OnTouchInput
EXTRN	?GetGestureStatus@CWnd@@MAEKVCPoint@@@Z:PROC	; CWnd::GetGestureStatus
EXTRN	?OnGestureZoom@CWnd@@MAEHVCPoint@@J@Z:PROC	; CWnd::OnGestureZoom
EXTRN	?OnGesturePan@CWnd@@MAEHVCPoint@@0@Z:PROC	; CWnd::OnGesturePan
EXTRN	?OnGestureRotate@CWnd@@MAEHVCPoint@@N@Z:PROC	; CWnd::OnGestureRotate
EXTRN	?OnGestureTwoFingerTap@CWnd@@MAEHVCPoint@@@Z:PROC ; CWnd::OnGestureTwoFingerTap
EXTRN	?OnGesturePressAndTap@CWnd@@MAEHVCPoint@@J@Z:PROC ; CWnd::OnGesturePressAndTap
EXTRN	?ResizeDynamicLayout@CWnd@@MAEXXZ:PROC		; CWnd::ResizeDynamicLayout
EXTRN	?IsFrameWnd@CWnd@@UBEHXZ:PROC			; CWnd::IsFrameWnd
EXTRN	?OnFinalRelease@CWnd@@UAEXXZ:PROC		; CWnd::OnFinalRelease
EXTRN	?CreateControlContainer@CWnd@@MAEHPAPAVCOleControlContainer@@@Z:PROC ; CWnd::CreateControlContainer
EXTRN	?CreateControlSite@CWnd@@MAEHPAVCOleControlContainer@@PAPAVCOleControlSite@@IABU_GUID@@@Z:PROC ; CWnd::CreateControlSite
EXTRN	?GetThisClass@CDialog@@SGPAUCRuntimeClass@@XZ:PROC ; CDialog::GetThisClass
EXTRN	?Create@CDialog@@UAEHPBDPAVCWnd@@@Z:PROC	; CDialog::Create
EXTRN	?CreateIndirect@CDialog@@UAEHPBUDLGTEMPLATE@@PAVCWnd@@PAX@Z:PROC ; CDialog::CreateIndirect
EXTRN	?CreateIndirect@CDialog@@UAEHPAXPAVCWnd@@@Z:PROC ; CDialog::CreateIndirect
EXTRN	??0CDialog@@QAE@IPAVCWnd@@@Z:PROC		; CDialog::CDialog
EXTRN	?DoModal@CDialog@@UAEHXZ:PROC			; CDialog::DoModal
EXTRN	?OnInitDialog@CDialog@@UAEHXZ:PROC		; CDialog::OnInitDialog
EXTRN	?OnSetFont@CDialog@@UAEXPAVCFont@@@Z:PROC	; CDialog::OnSetFont
EXTRN	?OnOK@CDialog@@MAEXXZ:PROC			; CDialog::OnOK
EXTRN	?OnCancel@CDialog@@MAEXXZ:PROC			; CDialog::OnCancel
EXTRN	??1CDialog@@UAE@XZ:PROC				; CDialog::~CDialog
EXTRN	?PreTranslateMessage@CDialog@@UAEHPAUtagMSG@@@Z:PROC ; CDialog::PreTranslateMessage
EXTRN	?OnCmdMsg@CDialog@@UAEHIHPAXPAUAFX_CMDHANDLERINFO@@@Z:PROC ; CDialog::OnCmdMsg
EXTRN	?CheckAutoCenter@CDialog@@UAEHXZ:PROC		; CDialog::CheckAutoCenter
EXTRN	?SetOccDialogInfo@CDialog@@MAEHPAU_AFX_OCC_DIALOG_INFO@@@Z:PROC ; CDialog::SetOccDialogInfo
EXTRN	?GetOccDialogInfo@CDialog@@MAEPAU_AFX_OCC_DIALOG_INFO@@XZ:PROC ; CDialog::GetOccDialogInfo
EXTRN	?PreInitDialog@CDialog@@MAEXXZ:PROC		; CDialog::PreInitDialog
EXTRN	?GetThisMessageMap@CDialog@@KGPBUAFX_MSGMAP@@XZ:PROC ; CDialog::GetThisMessageMap
EXTRN	?AfxMessageBox@@YGHPBDII@Z:PROC			; AfxMessageBox
EXTRN	??0CSTGfxOutBarCtrl@@QAE@XZ:PROC		; CSTGfxOutBarCtrl::CSTGfxOutBarCtrl
EXTRN	?SetImageList@CSTGfxOutBarCtrl@@QAEPAVCImageList@@PAV2@H@Z:PROC ; CSTGfxOutBarCtrl::SetImageList
EXTRN	?GetFolderCount@CSTGfxOutBarCtrl@@QBEHXZ:PROC	; CSTGfxOutBarCtrl::GetFolderCount
EXTRN	?Create@CSTGfxOutBarCtrl@@QAEHKABUtagRECT@@PAVCWnd@@IK@Z:PROC ; CSTGfxOutBarCtrl::Create
EXTRN	??1CSTGfxOutBarCtrl@@UAE@XZ:PROC		; CSTGfxOutBarCtrl::~CSTGfxOutBarCtrl
EXTRN	?SetFolderImageList@CSTGfxOutBarCtrl@@QAEXPAVCImageList@@HHH@Z:PROC ; CSTGfxOutBarCtrl::SetFolderImageList
EXTRN	??0CExDrawButton@@QAE@H@Z:PROC			; CExDrawButton::CExDrawButton
EXTRN	??1CExDrawButton@@UAE@XZ:PROC			; CExDrawButton::~CExDrawButton
EXTRN	??_ECOutLookBarDlg@@UAEPAXI@Z:PROC		; COutLookBarDlg::`vector deleting destructor'
EXTRN	?GetOutBarColor@CDlgStrategyConfigure@@QAEJAAK0@Z:PROC ; CDlgStrategyConfigure::GetOutBarColor
EXTRN	_SCW_GetInterfaceOfStrategy:PROC
EXTRN	_SCW_DeleteInterfaceOfStrategy:PROC
EXTRN	@__security_check_cookie@4:PROC
EXTRN	___CxxFrameHandler3:PROC
EXTRN	??_7type_info@@6B@:QWORD			; type_info::`vftable'
EXTRN	___security_cookie:DWORD
;	COMDAT ?_OptionsStorage@?1??__local_stdio_scanf_options@@9@4_KA
_BSS	SEGMENT
?_OptionsStorage@?1??__local_stdio_scanf_options@@9@4_KA DQ 01H DUP (?) ; `__local_stdio_scanf_options'::`2'::_OptionsStorage
_BSS	ENDS
_BSS	SEGMENT
?RMSG_FORMINITIALCOMPLETED@@3IB DD 01H DUP (?)		; RMSG_FORMINITIALCOMPLETED
?RMSG_EVENT_CODEINPUT@@3IB DD 01H DUP (?)		; RMSG_EVENT_CODEINPUT
?RMSG_EVENT_ACCTINPUT@@3IB DD 01H DUP (?)		; RMSG_EVENT_ACCTINPUT
?RMSG_EVENT_SPININPUT@@3IB DD 01H DUP (?)		; RMSG_EVENT_SPININPUT
?RMSG_EVENT_SIGNAL@@3IB DD 01H DUP (?)			; RMSG_EVENT_SIGNAL
?RMSG_FORMSTATECHANGE@@3IB DD 01H DUP (?)		; RMSG_FORMSTATECHANGE
?RMSG_TABSTOP@@3IB DD 01H DUP (?)			; RMSG_TABSTOP
?RMSG_LBTNDBLCLICK@@3IB DD 01H DUP (?)			; RMSG_LBTNDBLCLICK
?RMSG_LBTNDOWN@@3IB DD 01H DUP (?)			; RMSG_LBTNDOWN
?RMSG_ENDSCROLLPOS@@3IB DD 01H DUP (?)			; RMSG_ENDSCROLLPOS
?RMSG_LSHAREDCHANGED@@3IB DD 01H DUP (?)		; RMSG_LSHAREDCHANGED
?RMSG_OB_ITEMCLICK@@3IB DD 01H DUP (?)			; RMSG_OB_ITEMCLICK
?RMSG_OB_ITEMDBLCLK@@3IB DD 01H DUP (?)			; RMSG_OB_ITEMDBLCLK
_BSS	ENDS
CRT$XCU	SEGMENT
?RMSG_FORMINITIALCOMPLETED$initializer$@@3P6AXXZA DD FLAT:??__ERMSG_FORMINITIALCOMPLETED@@YAXXZ ; RMSG_FORMINITIALCOMPLETED$initializer$
CRT$XCU	ENDS
;	COMDAT __xmm@00000064000000640000000000000000
CONST	SEGMENT
__xmm@00000064000000640000000000000000 DB 00H, 00H, 00H, 00H, 00H, 00H, 00H
	DB	00H, 'd', 00H, 00H, 00H, 'd', 00H, 00H, 00H
CONST	ENDS
;	COMDAT ??_R1A@?0A@EA@COutLookBarDlg@@8
rdata$r	SEGMENT
??_R1A@?0A@EA@COutLookBarDlg@@8 DD FLAT:??_R0?AVCOutLookBarDlg@@@8 ; COutLookBarDlg::`RTTI Base Class Descriptor at (0,-1,0,64)'
	DD	04H
	DD	00H
	DD	0ffffffffH
	DD	00H
	DD	040H
	DD	FLAT:??_R3COutLookBarDlg@@8
rdata$r	ENDS
;	COMDAT ??_R2COutLookBarDlg@@8
rdata$r	SEGMENT
??_R2COutLookBarDlg@@8 DD FLAT:??_R1A@?0A@EA@COutLookBarDlg@@8 ; COutLookBarDlg::`RTTI Base Class Array'
	DD	FLAT:??_R1A@?0A@EA@CDialog@@8
	DD	FLAT:??_R1A@?0A@EA@CWnd@@8
	DD	FLAT:??_R1A@?0A@EA@CCmdTarget@@8
	DD	FLAT:??_R1A@?0A@EA@CObject@@8
rdata$r	ENDS
;	COMDAT ??_R3COutLookBarDlg@@8
rdata$r	SEGMENT
??_R3COutLookBarDlg@@8 DD 00H				; COutLookBarDlg::`RTTI Class Hierarchy Descriptor'
	DD	00H
	DD	05H
	DD	FLAT:??_R2COutLookBarDlg@@8
rdata$r	ENDS
;	COMDAT ??_R0?AVCOutLookBarDlg@@@8
data$rs	SEGMENT
??_R0?AVCOutLookBarDlg@@@8 DD FLAT:??_7type_info@@6B@	; COutLookBarDlg `RTTI Type Descriptor'
	DD	00H
	DB	'.?AVCOutLookBarDlg@@', 00H
data$rs	ENDS
;	COMDAT ??_R4COutLookBarDlg@@6B@
rdata$r	SEGMENT
??_R4COutLookBarDlg@@6B@ DD 00H				; COutLookBarDlg::`RTTI Complete Object Locator'
	DD	00H
	DD	00H
	DD	FLAT:??_R0?AVCOutLookBarDlg@@@8
	DD	FLAT:??_R3COutLookBarDlg@@8
rdata$r	ENDS
;	COMDAT ??_C@_0CB@BDFGCOEN@?$LA?K?$LL?v?G?Q?5?$LA?a?$LA?z?$LI?$KG?5?$LI?p?$LF?N?5?H?$KO?$MA?N?G?$NP?$LN?$MA?$LE?O?$LE?Y@
CONST	SEGMENT
??_C@_0CB@BDFGCOEN@?$LA?K?$LL?v?G?Q?5?$LA?a?$LA?z?$LI?$KG?5?$LI?p?$LF?N?5?H?$KO?$MA?N?G?$NP?$LN?$MA?$LE?O?$LE?Y@ DB 0b0H
	DB	0cbH, 0bbH, 0f6H, 0c7H, 0d1H, ' ', 0b0H, 0e1H, 0b0H, 0faH, 0b8H
	DB	0a6H, ' ', 0b8H, 0f0H, 0b5H, 0ceH, ' ', 0c8H, 0aeH, 0c0H, 0ceH
	DB	0c7H, 0dfH, 0bdH, 0c0H, 0b4H, 0cfH, 0b4H, 0d9H, '.', 00H ; `string'
CONST	ENDS
;	COMDAT ??_C@_0BI@GFKEBOCG@?$LA?K?$LL?v?G?Q?5?$LA?a?$LA?z?$LA?$KB?5?$LO?x?$LN?$MA?$LE?O?$LE?Y?4@
CONST	SEGMENT
??_C@_0BI@GFKEBOCG@?$LA?K?$LL?v?G?Q?5?$LA?a?$LA?z?$LA?$KB?5?$LO?x?$LN?$MA?$LE?O?$LE?Y?4@ DB 0b0H
	DB	0cbH, 0bbH, 0f6H, 0c7H, 0d1H, ' ', 0b0H, 0e1H, 0b0H, 0faH, 0b0H
	DB	0a1H, ' ', 0beH, 0f8H, 0bdH, 0c0H, 0b4H, 0cfH, 0b4H, 0d9H, '.', 00H ; `string'
CONST	ENDS
;	COMDAT ??_C@_0CC@EHJDCDHD@?$FL?$CFs?$FN?5?$LP?$KB?5?$LE?k?G?Q?5?$LA?K?$LL?v?$LA?a?$LA?z?$LA?$KB?5?$LO?x?$LN?$MA?$LE?O?$LE@
CONST	SEGMENT
??_C@_0CC@EHJDCDHD@?$FL?$CFs?$FN?5?$LP?$KB?5?$LE?k?G?Q?5?$LA?K?$LL?v?$LA?a?$LA?z?$LA?$KB?5?$LO?x?$LN?$MA?$LE?O?$LE@ DB '['
	DB	'%s] ', 0bfH, 0a1H, ' ', 0b4H, 0ebH, 0c7H, 0d1H, ' ', 0b0H, 0cbH
	DB	0bbH, 0f6H, 0b0H, 0e1H, 0b0H, 0faH, 0b0H, 0a1H, ' ', 0beH, 0f8H
	DB	0bdH, 0c0H, 0b4H, 0cfH, 0b4H, 0d9H, '.', 00H	; `string'
CONST	ENDS
;	COMDAT ??_C@_05NFGPCJDJ@?$CFd?3?$CFd@
CONST	SEGMENT
??_C@_05NFGPCJDJ@?$CFd?3?$CFd@ DB '%d:%d', 00H		; `string'
CONST	ENDS
;	COMDAT ??_C@_0BH@PGFEHFKK@?$LA?K?$LL?v?$LI?m?$MA?$LL?5?$MA?T?$LH?B?G?O?$LN?J?$LN?C?$LP?d?4@
CONST	SEGMENT
??_C@_0BH@PGFEHFKK@?$LA?K?$LL?v?$LI?m?$MA?$LL?5?$MA?T?$LH?B?G?O?$LN?J?$LN?C?$LP?d?4@ DB 0b0H
	DB	0cbH, 0bbH, 0f6H, 0b8H, 0edH, 0c0H, 0bbH, ' ', 0c0H, 0d4H, 0b7H
	DB	0c2H, 0c7H, 0cfH, 0bdH, 0caH, 0bdH, 0c3H, 0bfH, 0e4H, '.', 00H ; `string'
CONST	ENDS
;	COMDAT ??_C@_01KICIPPFI@?2@
CONST	SEGMENT
??_C@_01KICIPPFI@?2@ DB '\', 00H			; `string'
CONST	ENDS
;	COMDAT ??_C@_04ECGMOPPD@?$CK?4ST@
CONST	SEGMENT
??_C@_04ECGMOPPD@?$CK?4ST@ DB '*.ST', 00H		; `string'
CONST	ENDS
;	COMDAT ??_C@_0BD@OCOIJGGE@?$CFs?2outbar_icon?4bmp@
CONST	SEGMENT
??_C@_0BD@OCOIJGGE@?$CFs?2outbar_icon?4bmp@ DB '%s\outbar_icon.bmp', 00H ; `string'
CONST	ENDS
;	COMDAT ??_C@_0O@DADNAINN@?$CFs?2folder?4bmp@
CONST	SEGMENT
??_C@_0O@DADNAINN@?$CFs?2folder?4bmp@ DB '%s\folder.bmp', 00H ; `string'
CONST	ENDS
;	COMDAT ??_C@_0P@LLAIGDEE@?2Image?2drchart@
CONST	SEGMENT
??_C@_0P@LLAIGDEE@?2Image?2drchart@ DB '\Image\drchart', 00H ; `string'
CONST	ENDS
;	COMDAT ??_C@_0L@BHJABNKA@?2STDATA?2ST@
CONST	SEGMENT
??_C@_0L@BHJABNKA@?2STDATA?2ST@ DB '\STDATA\ST', 00H	; `string'
CONST	ENDS
;	COMDAT ?messageMap@?1??GetThisMessageMap@COutLookBarDlg@@KGPBUAFX_MSGMAP@@XZ@4U3@B
CONST	SEGMENT
?messageMap@?1??GetThisMessageMap@COutLookBarDlg@@KGPBUAFX_MSGMAP@@XZ@4U3@B DD FLAT:?GetThisMessageMap@CDialog@@KGPBUAFX_MSGMAP@@XZ ; `COutLookBarDlg::GetThisMessageMap'::`2'::messageMap
	DD	FLAT:?_messageEntries@?1??GetThisMessageMap@COutLookBarDlg@@KGPBUAFX_MSGMAP@@XZ@4QBUAFX_MSGMAP_ENTRY@@B
CONST	ENDS
;	COMDAT ?_messageEntries@?1??GetThisMessageMap@COutLookBarDlg@@KGPBUAFX_MSGMAP@@XZ@4QBUAFX_MSGMAP_ENTRY@@B
CONST	SEGMENT
?_messageEntries@?1??GetThisMessageMap@COutLookBarDlg@@KGPBUAFX_MSGMAP@@XZ@4QBUAFX_MSGMAP_ENTRY@@B DD 05H ; `COutLookBarDlg::GetThisMessageMap'::`2'::_messageEntries
	DD	00H
	DD	00H
	DD	00H
	DD	01aH
	DD	FLAT:?OnSize@COutLookBarDlg@@IAEXIHH@Z
	DD	02H
	DD	00H
	DD	00H
	DD	00H
	DD	013H
	DD	FLAT:?OnDestroy@COutLookBarDlg@@IAEXXZ
	DD	019H
	DD	00H
	DD	00H
	DD	00H
	DD	08H
	DD	FLAT:?OnCtlColor@COutLookBarDlg@@IAEPAUHBRUSH__@@PAVCDC@@PAVCWnd@@I@Z
	DD	0111H
	DD	00H
	DD	03f3H
	DD	03f3H
	DD	03aH
	DD	FLAT:?OnBnClickedBtnFindst@COutLookBarDlg@@QAEXXZ
	DD	0111H
	DD	00H
	DD	03f8H
	DD	03f8H
	DD	03aH
	DD	FLAT:?OnBnClickedBtnNextst@COutLookBarDlg@@QAEXXZ
	DD	00H
	DD	00H
	DD	00H
	DD	00H
	DD	00H
	DD	00H
CONST	ENDS
;	COMDAT ??_C@_0P@HKNMPGAE@COutLookBarDlg@
CONST	SEGMENT
??_C@_0P@HKNMPGAE@COutLookBarDlg@ DB 'COutLookBarDlg', 00H ; `string'
CONST	ENDS
;	COMDAT ??_7COutLookBarDlg@@6B@
CONST	SEGMENT
??_7COutLookBarDlg@@6B@ DD FLAT:??_R4COutLookBarDlg@@6B@ ; COutLookBarDlg::`vftable'
	DD	FLAT:?GetRuntimeClass@COutLookBarDlg@@UBEPAUCRuntimeClass@@XZ
	DD	FLAT:??_ECOutLookBarDlg@@UAEPAXI@Z
	DD	FLAT:?Serialize@CObject@@UAEXAAVCArchive@@@Z
	DD	FLAT:?AssertValid@CObject@@UBEXXZ
	DD	FLAT:?Dump@CObject@@UBEXAAVCDumpContext@@@Z
	DD	FLAT:?OnCmdMsg@CDialog@@UAEHIHPAXPAUAFX_CMDHANDLERINFO@@@Z
	DD	FLAT:?OnFinalRelease@CWnd@@UAEXXZ
	DD	FLAT:?IsInvokeAllowed@CCmdTarget@@UAEHJ@Z
	DD	FLAT:?GetDispatchIID@CCmdTarget@@UAEHPAU_GUID@@@Z
	DD	FLAT:?GetTypeInfoCount@CCmdTarget@@UAEIXZ
	DD	FLAT:?GetTypeLibCache@CCmdTarget@@UAEPAVCTypeLibCache@@XZ
	DD	FLAT:?GetTypeLib@CCmdTarget@@UAEJKPAPAUITypeLib@@@Z
	DD	FLAT:?GetMessageMap@COutLookBarDlg@@MBEPBUAFX_MSGMAP@@XZ
	DD	FLAT:?GetCommandMap@CCmdTarget@@MBEPBUAFX_OLECMDMAP@@XZ
	DD	FLAT:?GetDispatchMap@CCmdTarget@@MBEPBUAFX_DISPMAP@@XZ
	DD	FLAT:?GetConnectionMap@CCmdTarget@@MBEPBUAFX_CONNECTIONMAP@@XZ
	DD	FLAT:?GetInterfaceMap@CWnd@@MBEPBUAFX_INTERFACEMAP@@XZ
	DD	FLAT:?GetEventSinkMap@CCmdTarget@@MBEPBUAFX_EVENTSINKMAP@@XZ
	DD	FLAT:?OnCreateAggregates@CCmdTarget@@UAEHXZ
	DD	FLAT:?GetInterfaceHook@CCmdTarget@@UAEPAUIUnknown@@PBX@Z
	DD	FLAT:?GetExtraConnectionPoints@CCmdTarget@@MAEHPAVCPtrArray@@@Z
	DD	FLAT:?GetConnectionHook@CCmdTarget@@MAEPAUIConnectionPoint@@ABU_GUID@@@Z
	DD	FLAT:?PreSubclassWindow@CWnd@@UAEXXZ
	DD	FLAT:?Create@CWnd@@UAEHPBD0KABUtagRECT@@PAV1@IPAUCCreateContext@@@Z
	DD	FLAT:?CreateEx@CWnd@@UAEHKPBD0KABUtagRECT@@PAV1@IPAX@Z
	DD	FLAT:?CreateEx@CWnd@@UAEHKPBD0KHHHHPAUHWND__@@PAUHMENU__@@PAX@Z
	DD	FLAT:?DestroyWindow@CWnd@@UAEHXZ
	DD	FLAT:?PreCreateWindow@CWnd@@UAEHAAUtagCREATESTRUCTA@@@Z
	DD	FLAT:?CalcWindowRect@CWnd@@UAEXPAUtagRECT@@I@Z
	DD	FLAT:?GetMenu@CWnd@@UBEPAVCMenu@@XZ
	DD	FLAT:?SetMenu@CWnd@@UAEHPAVCMenu@@@Z
	DD	FLAT:?OnToolHitTest@CWnd@@UBEHVCPoint@@PAUtagTOOLINFOA@@@Z
	DD	FLAT:?GetScrollBarCtrl@CWnd@@UBEPAVCScrollBar@@H@Z
	DD	FLAT:?WinHelpA@CWnd@@UAEXKI@Z
	DD	FLAT:?HtmlHelpA@CWnd@@UAEXKI@Z
	DD	FLAT:?WinHelpInternal@CWnd@@UAEXKI@Z
	DD	FLAT:?ContinueModal@CWnd@@UAEHXZ
	DD	FLAT:?EndModalLoop@CWnd@@UAEXH@Z
	DD	FLAT:?OnDrawIconicThumbnailOrLivePreview@CWnd@@UAEXAAVCDC@@VCRect@@VCSize@@HAAH@Z
	DD	FLAT:?EnsureStdObj@CWnd@@UAEJXZ
	DD	FLAT:?get_accParent@CWnd@@UAEJPAPAUIDispatch@@@Z
	DD	FLAT:?get_accChildCount@CWnd@@UAEJPAJ@Z
	DD	FLAT:?get_accChild@CWnd@@UAEJUtagVARIANT@@PAPAUIDispatch@@@Z
	DD	FLAT:?get_accName@CWnd@@UAEJUtagVARIANT@@PAPA_W@Z
	DD	FLAT:?get_accValue@CWnd@@UAEJUtagVARIANT@@PAPA_W@Z
	DD	FLAT:?get_accDescription@CWnd@@UAEJUtagVARIANT@@PAPA_W@Z
	DD	FLAT:?get_accRole@CWnd@@UAEJUtagVARIANT@@PAU2@@Z
	DD	FLAT:?get_accState@CWnd@@UAEJUtagVARIANT@@PAU2@@Z
	DD	FLAT:?get_accHelp@CWnd@@UAEJUtagVARIANT@@PAPA_W@Z
	DD	FLAT:?get_accHelpTopic@CWnd@@UAEJPAPA_WUtagVARIANT@@PAJ@Z
	DD	FLAT:?get_accKeyboardShortcut@CWnd@@UAEJUtagVARIANT@@PAPA_W@Z
	DD	FLAT:?get_accFocus@CWnd@@UAEJPAUtagVARIANT@@@Z
	DD	FLAT:?get_accSelection@CWnd@@UAEJPAUtagVARIANT@@@Z
	DD	FLAT:?get_accDefaultAction@CWnd@@UAEJUtagVARIANT@@PAPA_W@Z
	DD	FLAT:?accSelect@CWnd@@UAEJJUtagVARIANT@@@Z
	DD	FLAT:?accLocation@CWnd@@UAEJPAJ000UtagVARIANT@@@Z
	DD	FLAT:?accNavigate@CWnd@@UAEJJUtagVARIANT@@PAU2@@Z
	DD	FLAT:?accHitTest@CWnd@@UAEJJJPAUtagVARIANT@@@Z
	DD	FLAT:?accDoDefaultAction@CWnd@@UAEJUtagVARIANT@@@Z
	DD	FLAT:?put_accName@CWnd@@UAEJUtagVARIANT@@PA_W@Z
	DD	FLAT:?put_accValue@CWnd@@UAEJUtagVARIANT@@PA_W@Z
	DD	FLAT:?SetProxy@CWnd@@UAEJPAUIAccessibleProxy@@@Z
	DD	FLAT:?CreateAccessibleProxy@CWnd@@UAEJIJPAJ@Z
	DD	FLAT:?OnCommand@CWnd@@MAEHIJ@Z
	DD	FLAT:?OnNotify@CWnd@@MAEHIJPAJ@Z
	DD	FLAT:?GetSuperWndProcAddr@CWnd@@MAEPAP6GJPAUHWND__@@IIJ@ZXZ
	DD	FLAT:?DoDataExchange@COutLookBarDlg@@MAEXPAVCDataExchange@@@Z
	DD	FLAT:?BeginModalState@CWnd@@UAEXXZ
	DD	FLAT:?EndModalState@CWnd@@UAEXXZ
	DD	FLAT:?PreTranslateMessage@COutLookBarDlg@@MAEHPAUtagMSG@@@Z
	DD	FLAT:?OnAmbientProperty@CWnd@@UAEHPAVCOleControlSite@@JPAUtagVARIANT@@@Z
	DD	FLAT:?WindowProc@COutLookBarDlg@@MAEJIIJ@Z
	DD	FLAT:?OnWndMsg@CWnd@@MAEHIIJPAJ@Z
	DD	FLAT:?DefWindowProcA@CWnd@@MAEJIIJ@Z
	DD	FLAT:?PostNcDestroy@CWnd@@MAEXXZ
	DD	FLAT:?OnChildNotify@CWnd@@MAEHIIJPAJ@Z
	DD	FLAT:?OnTouchInputs@CWnd@@MAEHIPAUtagTOUCHINPUT@@@Z
	DD	FLAT:?OnTouchInput@CWnd@@MAEHVCPoint@@HHPAUtagTOUCHINPUT@@@Z
	DD	FLAT:?GetGestureStatus@CWnd@@MAEKVCPoint@@@Z
	DD	FLAT:?OnGestureZoom@CWnd@@MAEHVCPoint@@J@Z
	DD	FLAT:?OnGesturePan@CWnd@@MAEHVCPoint@@0@Z
	DD	FLAT:?OnGestureRotate@CWnd@@MAEHVCPoint@@N@Z
	DD	FLAT:?OnGestureTwoFingerTap@CWnd@@MAEHVCPoint@@@Z
	DD	FLAT:?OnGesturePressAndTap@CWnd@@MAEHVCPoint@@J@Z
	DD	FLAT:?ResizeDynamicLayout@CWnd@@MAEXXZ
	DD	FLAT:?CheckAutoCenter@CDialog@@UAEHXZ
	DD	FLAT:?IsFrameWnd@CWnd@@UBEHXZ
	DD	FLAT:?CreateControlContainer@CWnd@@MAEHPAPAVCOleControlContainer@@@Z
	DD	FLAT:?CreateControlSite@CWnd@@MAEHPAVCOleControlContainer@@PAPAVCOleControlSite@@IABU_GUID@@@Z
	DD	FLAT:?SetOccDialogInfo@CDialog@@MAEHPAU_AFX_OCC_DIALOG_INFO@@@Z
	DD	FLAT:?GetOccDialogInfo@CDialog@@MAEPAU_AFX_OCC_DIALOG_INFO@@XZ
	DD	FLAT:?Create@CDialog@@UAEHIPAVCWnd@@@Z
	DD	FLAT:?Create@CDialog@@UAEHPBDPAVCWnd@@@Z
	DD	FLAT:?CreateIndirect@CDialog@@UAEHPAXPAVCWnd@@@Z
	DD	FLAT:?CreateIndirect@CDialog@@UAEHPBUDLGTEMPLATE@@PAVCWnd@@PAX@Z
	DD	FLAT:?DoModal@CDialog@@UAEHXZ
	DD	FLAT:?OnInitDialog@COutLookBarDlg@@MAEHXZ
	DD	FLAT:?OnSetFont@CDialog@@UAEXPAVCFont@@@Z
	DD	FLAT:?OnOK@CDialog@@MAEXXZ
	DD	FLAT:?OnCancel@CDialog@@MAEXXZ
	DD	FLAT:?PreInitDialog@CDialog@@MAEXXZ
CONST	ENDS
;	COMDAT ?classCOutLookBarDlg@COutLookBarDlg@@2UCRuntimeClass@@B
CONST	SEGMENT
?classCOutLookBarDlg@COutLookBarDlg@@2UCRuntimeClass@@B DD FLAT:??_C@_0P@HKNMPGAE@COutLookBarDlg@ ; COutLookBarDlg::classCOutLookBarDlg
	DD	03a8H
	DD	0ffffH
	DD	00H
	DD	FLAT:?_GetBaseClass@COutLookBarDlg@@KGPAUCRuntimeClass@@XZ
	DD	00H
	DD	00H
CONST	ENDS
;	COMDAT ??_R2CDialog@@8
rdata$r	SEGMENT
??_R2CDialog@@8 DD FLAT:??_R1A@?0A@EA@CDialog@@8	; CDialog::`RTTI Base Class Array'
	DD	FLAT:??_R1A@?0A@EA@CWnd@@8
	DD	FLAT:??_R1A@?0A@EA@CCmdTarget@@8
	DD	FLAT:??_R1A@?0A@EA@CObject@@8
rdata$r	ENDS
;	COMDAT ??_R3CDialog@@8
rdata$r	SEGMENT
??_R3CDialog@@8 DD 00H					; CDialog::`RTTI Class Hierarchy Descriptor'
	DD	00H
	DD	04H
	DD	FLAT:??_R2CDialog@@8
rdata$r	ENDS
;	COMDAT ??_R0?AVCDialog@@@8
data$rs	SEGMENT
??_R0?AVCDialog@@@8 DD FLAT:??_7type_info@@6B@		; CDialog `RTTI Type Descriptor'
	DD	00H
	DB	'.?AVCDialog@@', 00H
data$rs	ENDS
;	COMDAT ??_R1A@?0A@EA@CDialog@@8
rdata$r	SEGMENT
??_R1A@?0A@EA@CDialog@@8 DD FLAT:??_R0?AVCDialog@@@8	; CDialog::`RTTI Base Class Descriptor at (0,-1,0,64)'
	DD	03H
	DD	00H
	DD	0ffffffffH
	DD	00H
	DD	040H
	DD	FLAT:??_R3CDialog@@8
rdata$r	ENDS
;	COMDAT ??_R2CCmdTarget@@8
rdata$r	SEGMENT
??_R2CCmdTarget@@8 DD FLAT:??_R1A@?0A@EA@CCmdTarget@@8	; CCmdTarget::`RTTI Base Class Array'
	DD	FLAT:??_R1A@?0A@EA@CObject@@8
rdata$r	ENDS
;	COMDAT ??_R3CCmdTarget@@8
rdata$r	SEGMENT
??_R3CCmdTarget@@8 DD 00H				; CCmdTarget::`RTTI Class Hierarchy Descriptor'
	DD	00H
	DD	02H
	DD	FLAT:??_R2CCmdTarget@@8
rdata$r	ENDS
;	COMDAT ??_R0?AVCCmdTarget@@@8
data$rs	SEGMENT
??_R0?AVCCmdTarget@@@8 DD FLAT:??_7type_info@@6B@	; CCmdTarget `RTTI Type Descriptor'
	DD	00H
	DB	'.?AVCCmdTarget@@', 00H
data$rs	ENDS
;	COMDAT ??_R1A@?0A@EA@CCmdTarget@@8
rdata$r	SEGMENT
??_R1A@?0A@EA@CCmdTarget@@8 DD FLAT:??_R0?AVCCmdTarget@@@8 ; CCmdTarget::`RTTI Base Class Descriptor at (0,-1,0,64)'
	DD	01H
	DD	00H
	DD	0ffffffffH
	DD	00H
	DD	040H
	DD	FLAT:??_R3CCmdTarget@@8
rdata$r	ENDS
;	COMDAT ??_R2CWnd@@8
rdata$r	SEGMENT
??_R2CWnd@@8 DD	FLAT:??_R1A@?0A@EA@CWnd@@8		; CWnd::`RTTI Base Class Array'
	DD	FLAT:??_R1A@?0A@EA@CCmdTarget@@8
	DD	FLAT:??_R1A@?0A@EA@CObject@@8
rdata$r	ENDS
;	COMDAT ??_R3CWnd@@8
rdata$r	SEGMENT
??_R3CWnd@@8 DD	00H					; CWnd::`RTTI Class Hierarchy Descriptor'
	DD	00H
	DD	03H
	DD	FLAT:??_R2CWnd@@8
rdata$r	ENDS
;	COMDAT ??_R0?AVCWnd@@@8
data$rs	SEGMENT
??_R0?AVCWnd@@@8 DD FLAT:??_7type_info@@6B@		; CWnd `RTTI Type Descriptor'
	DD	00H
	DB	'.?AVCWnd@@', 00H
data$rs	ENDS
;	COMDAT ??_R1A@?0A@EA@CWnd@@8
rdata$r	SEGMENT
??_R1A@?0A@EA@CWnd@@8 DD FLAT:??_R0?AVCWnd@@@8		; CWnd::`RTTI Base Class Descriptor at (0,-1,0,64)'
	DD	02H
	DD	00H
	DD	0ffffffffH
	DD	00H
	DD	040H
	DD	FLAT:??_R3CWnd@@8
rdata$r	ENDS
;	COMDAT ??_R1A@?0A@EA@CBitmap@@8
rdata$r	SEGMENT
??_R1A@?0A@EA@CBitmap@@8 DD FLAT:??_R0?AVCBitmap@@@8	; CBitmap::`RTTI Base Class Descriptor at (0,-1,0,64)'
	DD	02H
	DD	00H
	DD	0ffffffffH
	DD	00H
	DD	040H
	DD	FLAT:??_R3CBitmap@@8
rdata$r	ENDS
;	COMDAT ??_R2CBitmap@@8
rdata$r	SEGMENT
??_R2CBitmap@@8 DD FLAT:??_R1A@?0A@EA@CBitmap@@8	; CBitmap::`RTTI Base Class Array'
	DD	FLAT:??_R1A@?0A@EA@CGdiObject@@8
	DD	FLAT:??_R1A@?0A@EA@CObject@@8
rdata$r	ENDS
;	COMDAT ??_R3CBitmap@@8
rdata$r	SEGMENT
??_R3CBitmap@@8 DD 00H					; CBitmap::`RTTI Class Hierarchy Descriptor'
	DD	00H
	DD	03H
	DD	FLAT:??_R2CBitmap@@8
rdata$r	ENDS
;	COMDAT ??_R0?AVCBitmap@@@8
data$rs	SEGMENT
??_R0?AVCBitmap@@@8 DD FLAT:??_7type_info@@6B@		; CBitmap `RTTI Type Descriptor'
	DD	00H
	DB	'.?AVCBitmap@@', 00H
data$rs	ENDS
;	COMDAT ??_R4CBitmap@@6B@
rdata$r	SEGMENT
??_R4CBitmap@@6B@ DD 00H				; CBitmap::`RTTI Complete Object Locator'
	DD	00H
	DD	00H
	DD	FLAT:??_R0?AVCBitmap@@@8
	DD	FLAT:??_R3CBitmap@@8
rdata$r	ENDS
;	COMDAT ??_R1A@?0A@EA@CBrush@@8
rdata$r	SEGMENT
??_R1A@?0A@EA@CBrush@@8 DD FLAT:??_R0?AVCBrush@@@8	; CBrush::`RTTI Base Class Descriptor at (0,-1,0,64)'
	DD	02H
	DD	00H
	DD	0ffffffffH
	DD	00H
	DD	040H
	DD	FLAT:??_R3CBrush@@8
rdata$r	ENDS
;	COMDAT ??_R2CBrush@@8
rdata$r	SEGMENT
??_R2CBrush@@8 DD FLAT:??_R1A@?0A@EA@CBrush@@8		; CBrush::`RTTI Base Class Array'
	DD	FLAT:??_R1A@?0A@EA@CGdiObject@@8
	DD	FLAT:??_R1A@?0A@EA@CObject@@8
rdata$r	ENDS
;	COMDAT ??_R3CBrush@@8
rdata$r	SEGMENT
??_R3CBrush@@8 DD 00H					; CBrush::`RTTI Class Hierarchy Descriptor'
	DD	00H
	DD	03H
	DD	FLAT:??_R2CBrush@@8
rdata$r	ENDS
;	COMDAT ??_R0?AVCBrush@@@8
data$rs	SEGMENT
??_R0?AVCBrush@@@8 DD FLAT:??_7type_info@@6B@		; CBrush `RTTI Type Descriptor'
	DD	00H
	DB	'.?AVCBrush@@', 00H
data$rs	ENDS
;	COMDAT ??_R4CBrush@@6B@
rdata$r	SEGMENT
??_R4CBrush@@6B@ DD 00H					; CBrush::`RTTI Complete Object Locator'
	DD	00H
	DD	00H
	DD	FLAT:??_R0?AVCBrush@@@8
	DD	FLAT:??_R3CBrush@@8
rdata$r	ENDS
;	COMDAT ??_R1A@?0A@EA@CGdiObject@@8
rdata$r	SEGMENT
??_R1A@?0A@EA@CGdiObject@@8 DD FLAT:??_R0?AVCGdiObject@@@8 ; CGdiObject::`RTTI Base Class Descriptor at (0,-1,0,64)'
	DD	01H
	DD	00H
	DD	0ffffffffH
	DD	00H
	DD	040H
	DD	FLAT:??_R3CGdiObject@@8
rdata$r	ENDS
;	COMDAT ??_R2CGdiObject@@8
rdata$r	SEGMENT
??_R2CGdiObject@@8 DD FLAT:??_R1A@?0A@EA@CGdiObject@@8	; CGdiObject::`RTTI Base Class Array'
	DD	FLAT:??_R1A@?0A@EA@CObject@@8
rdata$r	ENDS
;	COMDAT ??_R3CGdiObject@@8
rdata$r	SEGMENT
??_R3CGdiObject@@8 DD 00H				; CGdiObject::`RTTI Class Hierarchy Descriptor'
	DD	00H
	DD	02H
	DD	FLAT:??_R2CGdiObject@@8
rdata$r	ENDS
;	COMDAT ??_R0?AVCGdiObject@@@8
data$rs	SEGMENT
??_R0?AVCGdiObject@@@8 DD FLAT:??_7type_info@@6B@	; CGdiObject `RTTI Type Descriptor'
	DD	00H
	DB	'.?AVCGdiObject@@', 00H
data$rs	ENDS
;	COMDAT ??_R4CGdiObject@@6B@
rdata$r	SEGMENT
??_R4CGdiObject@@6B@ DD 00H				; CGdiObject::`RTTI Complete Object Locator'
	DD	00H
	DD	00H
	DD	FLAT:??_R0?AVCGdiObject@@@8
	DD	FLAT:??_R3CGdiObject@@8
rdata$r	ENDS
;	COMDAT ??_R1A@?0A@EA@CObject@@8
rdata$r	SEGMENT
??_R1A@?0A@EA@CObject@@8 DD FLAT:??_R0?AVCObject@@@8	; CObject::`RTTI Base Class Descriptor at (0,-1,0,64)'
	DD	00H
	DD	00H
	DD	0ffffffffH
	DD	00H
	DD	040H
	DD	FLAT:??_R3CObject@@8
rdata$r	ENDS
;	COMDAT ??_R2CObject@@8
rdata$r	SEGMENT
??_R2CObject@@8 DD FLAT:??_R1A@?0A@EA@CObject@@8	; CObject::`RTTI Base Class Array'
rdata$r	ENDS
;	COMDAT ??_R3CObject@@8
rdata$r	SEGMENT
??_R3CObject@@8 DD 00H					; CObject::`RTTI Class Hierarchy Descriptor'
	DD	00H
	DD	01H
	DD	FLAT:??_R2CObject@@8
rdata$r	ENDS
;	COMDAT ??_R0?AVCObject@@@8
data$rs	SEGMENT
??_R0?AVCObject@@@8 DD FLAT:??_7type_info@@6B@		; CObject `RTTI Type Descriptor'
	DD	00H
	DB	'.?AVCObject@@', 00H
data$rs	ENDS
;	COMDAT ??_C@_0N@OMEMOKLE@?$CFTs?5?$CI?$CFTs?3?$CFd?$CJ@
CONST	SEGMENT
??_C@_0N@OMEMOKLE@?$CFTs?5?$CI?$CFTs?3?$CFd?$CJ@ DB '%Ts (%Ts:%d)', 00H ; `string'
CONST	ENDS
;	COMDAT ??_C@_0BB@HBOOMJBF@?$CFTs?5?$CI?$CFTs?3?$CFd?$CJ?6?$CFTs@
CONST	SEGMENT
??_C@_0BB@HBOOMJBF@?$CFTs?5?$CI?$CFTs?3?$CFd?$CJ?6?$CFTs@ DB '%Ts (%Ts:%d'
	DB	')', 0aH, '%Ts', 00H				; `string'
CONST	ENDS
;	COMDAT ??_C@_0BP@OIEOKIDM@Exception?5thrown?5in?5destructor@
CONST	SEGMENT
??_C@_0BP@OIEOKIDM@Exception?5thrown?5in?5destructor@ DB 'Exception throw'
	DB	'n in destructor', 00H			; `string'
CONST	ENDS
;	COMDAT ??_C@_0HD@JJCHHHNK@C?3?2Program?5Files?5?$CIx86?$CJ?2Microsof@
CONST	SEGMENT
??_C@_0HD@JJCHHHNK@C?3?2Program?5Files?5?$CIx86?$CJ?2Microsof@ DB 'C:\Pro'
	DB	'gram Files (x86)\Microsoft Visual Studio\2019\Community\VC\To'
	DB	'ols\MSVC\14.29.30133\atlmfc\include\afxwin1.inl', 00H ; `string'
CONST	ENDS
;	COMDAT ??_7CBitmap@@6B@
CONST	SEGMENT
??_7CBitmap@@6B@ DD FLAT:??_R4CBitmap@@6B@		; CBitmap::`vftable'
	DD	FLAT:?GetRuntimeClass@CBitmap@@UBEPAUCRuntimeClass@@XZ
	DD	FLAT:??_ECBitmap@@UAEPAXI@Z
	DD	FLAT:?Serialize@CObject@@UAEXAAVCArchive@@@Z
	DD	FLAT:?AssertValid@CObject@@UBEXXZ
	DD	FLAT:?Dump@CObject@@UBEXAAVCDumpContext@@@Z
CONST	ENDS
;	COMDAT ??_7CBrush@@6B@
CONST	SEGMENT
??_7CBrush@@6B@ DD FLAT:??_R4CBrush@@6B@		; CBrush::`vftable'
	DD	FLAT:?GetRuntimeClass@CBrush@@UBEPAUCRuntimeClass@@XZ
	DD	FLAT:??_ECBrush@@UAEPAXI@Z
	DD	FLAT:?Serialize@CObject@@UAEXAAVCArchive@@@Z
	DD	FLAT:?AssertValid@CObject@@UBEXXZ
	DD	FLAT:?Dump@CObject@@UBEXAAVCDumpContext@@@Z
CONST	ENDS
;	COMDAT ??_7CGdiObject@@6B@
CONST	SEGMENT
??_7CGdiObject@@6B@ DD FLAT:??_R4CGdiObject@@6B@	; CGdiObject::`vftable'
	DD	FLAT:?GetRuntimeClass@CGdiObject@@UBEPAUCRuntimeClass@@XZ
	DD	FLAT:??_ECGdiObject@@UAEPAXI@Z
	DD	FLAT:?Serialize@CObject@@UAEXAAVCArchive@@@Z
	DD	FLAT:?AssertValid@CObject@@UBEXXZ
	DD	FLAT:?Dump@CObject@@UBEXAAVCDumpContext@@@Z
CONST	ENDS
;	COMDAT ??_C@_00CNPNBAHC@@
CONST	SEGMENT
??_C@_00CNPNBAHC@@ DB 00H				; `string'
CONST	ENDS
;	COMDAT ??_R0PAVCException@@@8
data$r	SEGMENT
??_R0PAVCException@@@8 DD FLAT:??_7type_info@@6B@	; CException * `RTTI Type Descriptor'
	DD	00H
	DB	'.PAVCException@@', 00H
data$r	ENDS
;	COMDAT xdata$x
xdata$x	SEGMENT
__unwindtable$?OnBnClickedBtnNextst@COutLookBarDlg@@QAEXXZ DD 0ffffffffH
	DD	FLAT:__unwindfunclet$?OnBnClickedBtnNextst@COutLookBarDlg@@QAEXXZ$0
__ehfuncinfo$?OnBnClickedBtnNextst@COutLookBarDlg@@QAEXXZ DD 019930522H
	DD	01H
	DD	FLAT:__unwindtable$?OnBnClickedBtnNextst@COutLookBarDlg@@QAEXXZ
	DD	2 DUP(00H)
	DD	2 DUP(00H)
	DD	00H
	DD	01H
xdata$x	ENDS
;	COMDAT xdata$x
xdata$x	SEGMENT
__unwindtable$?OnBnClickedBtnFindst@COutLookBarDlg@@QAEXXZ DD 0ffffffffH
	DD	FLAT:__unwindfunclet$?OnBnClickedBtnFindst@COutLookBarDlg@@QAEXXZ$0
	DD	00H
	DD	FLAT:__unwindfunclet$?OnBnClickedBtnFindst@COutLookBarDlg@@QAEXXZ$2
	DD	00H
	DD	FLAT:__unwindfunclet$?OnBnClickedBtnFindst@COutLookBarDlg@@QAEXXZ$3
__ehfuncinfo$?OnBnClickedBtnFindst@COutLookBarDlg@@QAEXXZ DD 019930522H
	DD	03H
	DD	FLAT:__unwindtable$?OnBnClickedBtnFindst@COutLookBarDlg@@QAEXXZ
	DD	2 DUP(00H)
	DD	2 DUP(00H)
	DD	00H
	DD	01H
xdata$x	ENDS
;	COMDAT xdata$x
xdata$x	SEGMENT
__unwindtable$?WindowProc@COutLookBarDlg@@MAEJIIJ@Z DD 0ffffffffH
	DD	FLAT:__unwindfunclet$?WindowProc@COutLookBarDlg@@MAEJIIJ@Z$0
	DD	00H
	DD	FLAT:__unwindfunclet$?WindowProc@COutLookBarDlg@@MAEJIIJ@Z$1
__ehfuncinfo$?WindowProc@COutLookBarDlg@@MAEJIIJ@Z DD 019930522H
	DD	02H
	DD	FLAT:__unwindtable$?WindowProc@COutLookBarDlg@@MAEJIIJ@Z
	DD	2 DUP(00H)
	DD	2 DUP(00H)
	DD	00H
	DD	01H
xdata$x	ENDS
;	COMDAT xdata$x
xdata$x	SEGMENT
__ehfuncinfo$?OnInitDialog@COutLookBarDlg@@MAEHXZ DD 019930522H
	DD	05H
	DD	FLAT:__unwindtable$?OnInitDialog@COutLookBarDlg@@MAEHXZ
	DD	2 DUP(00H)
	DD	2 DUP(00H)
	DD	00H
	DD	01H
__unwindtable$?OnInitDialog@COutLookBarDlg@@MAEHXZ DD 0ffffffffH
	DD	FLAT:__unwindfunclet$?OnInitDialog@COutLookBarDlg@@MAEHXZ$0
	DD	00H
	DD	FLAT:__unwindfunclet$?OnInitDialog@COutLookBarDlg@@MAEHXZ$1
	DD	01H
	DD	FLAT:__unwindfunclet$?OnInitDialog@COutLookBarDlg@@MAEHXZ$2
	DD	02H
	DD	FLAT:__unwindfunclet$?OnInitDialog@COutLookBarDlg@@MAEHXZ$3
	DD	03H
	DD	FLAT:__unwindfunclet$?OnInitDialog@COutLookBarDlg@@MAEHXZ$4
xdata$x	ENDS
;	COMDAT xdata$x
xdata$x	SEGMENT
__unwindtable$?UpdateSTList@COutLookBarDlg@@QAEXHV?$CStringT@DV?$StrTraitMFC_DLL@DV?$ChTraitsCRT@D@ATL@@@@@ATL@@@Z DD 0ffffffffH
	DD	FLAT:__unwindfunclet$?UpdateSTList@COutLookBarDlg@@QAEXHV?$CStringT@DV?$StrTraitMFC_DLL@DV?$ChTraitsCRT@D@ATL@@@@@ATL@@@Z$0
__ehfuncinfo$?UpdateSTList@COutLookBarDlg@@QAEXHV?$CStringT@DV?$StrTraitMFC_DLL@DV?$ChTraitsCRT@D@ATL@@@@@ATL@@@Z DD 019930522H
	DD	01H
	DD	FLAT:__unwindtable$?UpdateSTList@COutLookBarDlg@@QAEXHV?$CStringT@DV?$StrTraitMFC_DLL@DV?$ChTraitsCRT@D@ATL@@@@@ATL@@@Z
	DD	2 DUP(00H)
	DD	2 DUP(00H)
	DD	00H
	DD	01H
xdata$x	ENDS
;	COMDAT xdata$x
xdata$x	SEGMENT
__ehfuncinfo$??0COutLookBarDlg@@QAE@PAVCWnd@@@Z DD 019930522H
	DD	0eH
	DD	FLAT:__unwindtable$??0COutLookBarDlg@@QAE@PAVCWnd@@@Z
	DD	2 DUP(00H)
	DD	2 DUP(00H)
	DD	00H
	DD	01H
__unwindtable$??0COutLookBarDlg@@QAE@PAVCWnd@@@Z DD 0ffffffffH
	DD	FLAT:__unwindfunclet$??0COutLookBarDlg@@QAE@PAVCWnd@@@Z$0
	DD	00H
	DD	FLAT:__unwindfunclet$??0COutLookBarDlg@@QAE@PAVCWnd@@@Z$1
	DD	01H
	DD	FLAT:__unwindfunclet$??0COutLookBarDlg@@QAE@PAVCWnd@@@Z$2
	DD	02H
	DD	FLAT:__unwindfunclet$??0COutLookBarDlg@@QAE@PAVCWnd@@@Z$3
	DD	03H
	DD	FLAT:__unwindfunclet$??0COutLookBarDlg@@QAE@PAVCWnd@@@Z$4
	DD	04H
	DD	FLAT:__unwindfunclet$??0COutLookBarDlg@@QAE@PAVCWnd@@@Z$5
	DD	05H
	DD	FLAT:__unwindfunclet$??0COutLookBarDlg@@QAE@PAVCWnd@@@Z$6
	DD	06H
	DD	FLAT:__unwindfunclet$??0COutLookBarDlg@@QAE@PAVCWnd@@@Z$7
	DD	07H
	DD	FLAT:__unwindfunclet$??0COutLookBarDlg@@QAE@PAVCWnd@@@Z$8
	DD	08H
	DD	FLAT:__unwindfunclet$??0COutLookBarDlg@@QAE@PAVCWnd@@@Z$9
	DD	09H
	DD	FLAT:__unwindfunclet$??0COutLookBarDlg@@QAE@PAVCWnd@@@Z$10
	DD	0aH
	DD	FLAT:__unwindfunclet$??0COutLookBarDlg@@QAE@PAVCWnd@@@Z$11
	DD	0bH
	DD	FLAT:__unwindfunclet$??0COutLookBarDlg@@QAE@PAVCWnd@@@Z$12
	DD	0cH
	DD	FLAT:__unwindfunclet$??0COutLookBarDlg@@QAE@PAVCWnd@@@Z$13
xdata$x	ENDS
;	COMDAT xdata$x
xdata$x	SEGMENT
__catchsym$??1CGdiObject@@UAE@XZ$3 DD 00H
	DD	FLAT:??_R0PAVCException@@@8
	DD	0fffffde4H
	DD	FLAT:__catch$??1CGdiObject@@UAE@XZ$0
__tryblocktable$??1CGdiObject@@UAE@XZ DD 00H
	DD	00H
	DD	02H
	DD	01H
	DD	FLAT:__catchsym$??1CGdiObject@@UAE@XZ$3
__unwindtable$??1CGdiObject@@UAE@XZ DD 0ffffffffH
	DD	00H
	DD	0ffffffffH
	DD	00H
	DD	01H
	DD	FLAT:__unwindfunclet$??1CGdiObject@@UAE@XZ$2
__ehfuncinfo$??1CGdiObject@@UAE@XZ DD 019930522H
	DD	03H
	DD	FLAT:__unwindtable$??1CGdiObject@@UAE@XZ
	DD	01H
	DD	FLAT:__tryblocktable$??1CGdiObject@@UAE@XZ
	DD	2 DUP(00H)
	DD	00H
	DD	05H
xdata$x	ENDS
;	COMDAT xdata$x
xdata$x	SEGMENT
__unwindtable$??HATL@@YA?AV?$CStringT@DV?$StrTraitMFC_DLL@DV?$ChTraitsCRT@D@ATL@@@@@0@ABV10@PBD@Z DD 0ffffffffH
	DD	FLAT:__unwindfunclet$??HATL@@YA?AV?$CStringT@DV?$StrTraitMFC_DLL@DV?$ChTraitsCRT@D@ATL@@@@@0@ABV10@PBD@Z$0
__ehfuncinfo$??HATL@@YA?AV?$CStringT@DV?$StrTraitMFC_DLL@DV?$ChTraitsCRT@D@ATL@@@@@0@ABV10@PBD@Z DD 019930522H
	DD	01H
	DD	FLAT:__unwindtable$??HATL@@YA?AV?$CStringT@DV?$StrTraitMFC_DLL@DV?$ChTraitsCRT@D@ATL@@@@@0@ABV10@PBD@Z
	DD	2 DUP(00H)
	DD	2 DUP(00H)
	DD	00H
	DD	01H
xdata$x	ENDS
CRT$XCU	SEGMENT
?RMSG_EVENT_CODEINPUT$initializer$@@3P6AXXZA DD FLAT:??__ERMSG_EVENT_CODEINPUT@@YAXXZ ; RMSG_EVENT_CODEINPUT$initializer$
CRT$XCU	ENDS
CRT$XCU	SEGMENT
?RMSG_EVENT_ACCTINPUT$initializer$@@3P6AXXZA DD FLAT:??__ERMSG_EVENT_ACCTINPUT@@YAXXZ ; RMSG_EVENT_ACCTINPUT$initializer$
CRT$XCU	ENDS
CRT$XCU	SEGMENT
?RMSG_EVENT_SPININPUT$initializer$@@3P6AXXZA DD FLAT:??__ERMSG_EVENT_SPININPUT@@YAXXZ ; RMSG_EVENT_SPININPUT$initializer$
CRT$XCU	ENDS
CRT$XCU	SEGMENT
?RMSG_EVENT_SIGNAL$initializer$@@3P6AXXZA DD FLAT:??__ERMSG_EVENT_SIGNAL@@YAXXZ ; RMSG_EVENT_SIGNAL$initializer$
CRT$XCU	ENDS
CRT$XCU	SEGMENT
?RMSG_FORMSTATECHANGE$initializer$@@3P6AXXZA DD FLAT:??__ERMSG_FORMSTATECHANGE@@YAXXZ ; RMSG_FORMSTATECHANGE$initializer$
CRT$XCU	ENDS
CRT$XCU	SEGMENT
?RMSG_TABSTOP$initializer$@@3P6AXXZA DD FLAT:??__ERMSG_TABSTOP@@YAXXZ ; RMSG_TABSTOP$initializer$
CRT$XCU	ENDS
CRT$XCU	SEGMENT
?RMSG_LBTNDBLCLICK$initializer$@@3P6AXXZA DD FLAT:??__ERMSG_LBTNDBLCLICK@@YAXXZ ; RMSG_LBTNDBLCLICK$initializer$
CRT$XCU	ENDS
CRT$XCU	SEGMENT
?RMSG_LBTNDOWN$initializer$@@3P6AXXZA DD FLAT:??__ERMSG_LBTNDOWN@@YAXXZ ; RMSG_LBTNDOWN$initializer$
CRT$XCU	ENDS
CRT$XCU	SEGMENT
?RMSG_ENDSCROLLPOS$initializer$@@3P6AXXZA DD FLAT:??__ERMSG_ENDSCROLLPOS@@YAXXZ ; RMSG_ENDSCROLLPOS$initializer$
CRT$XCU	ENDS
CRT$XCU	SEGMENT
?RMSG_LSHAREDCHANGED$initializer$@@3P6AXXZA DD FLAT:??__ERMSG_LSHAREDCHANGED@@YAXXZ ; RMSG_LSHAREDCHANGED$initializer$
CRT$XCU	ENDS
CRT$XCU	SEGMENT
?RMSG_OB_ITEMCLICK$initializer$@@3P6AXXZA DD FLAT:??__ERMSG_OB_ITEMCLICK@@YAXXZ ; RMSG_OB_ITEMCLICK$initializer$
CRT$XCU	ENDS
CRT$XCU	SEGMENT
?RMSG_OB_ITEMDBLCLK$initializer$@@3P6AXXZA DD FLAT:??__ERMSG_OB_ITEMDBLCLK@@YAXXZ ; RMSG_OB_ITEMDBLCLK$initializer$
CRT$XCU	ENDS
; Function compile flags: /Ogtp
; File D:\git\src\IBK\IBK_DRFN\ProjSrc\SrcDrfn\Chart\HWSTRATEGYCONFIGUREWIZARD\OutLookBarDlg.cpp
;	COMDAT ??__ERMSG_OB_ITEMDBLCLK@@YAXXZ
text$di	SEGMENT
??__ERMSG_OB_ITEMDBLCLK@@YAXXZ PROC			; `dynamic initializer for 'RMSG_OB_ITEMDBLCLK'', COMDAT

; 18   : const UINT RMSG_OB_ITEMDBLCLK = ::RegisterWindowMessage("RMSG_OB_ITEMDBLCLK");

  00000	68 00 00 00 00	 push	 OFFSET ??_C@_0BD@GFDLLOKP@RMSG_OB_ITEMDBLCLK@
  00005	ff 15 00 00 00
	00		 call	 DWORD PTR __imp__RegisterWindowMessageA@4
  0000b	a3 00 00 00 00	 mov	 DWORD PTR ?RMSG_OB_ITEMDBLCLK@@3IB, eax
  00010	c3		 ret	 0
??__ERMSG_OB_ITEMDBLCLK@@YAXXZ ENDP			; `dynamic initializer for 'RMSG_OB_ITEMDBLCLK''
text$di	ENDS
; Function compile flags: /Ogtp
; File D:\git\src\IBK\IBK_DRFN\ProjSrc\SrcDrfn\Chart\HWSTRATEGYCONFIGUREWIZARD\OutLookBarDlg.cpp
;	COMDAT ??__ERMSG_OB_ITEMCLICK@@YAXXZ
text$di	SEGMENT
??__ERMSG_OB_ITEMCLICK@@YAXXZ PROC			; `dynamic initializer for 'RMSG_OB_ITEMCLICK'', COMDAT

; 17   : const UINT RMSG_OB_ITEMCLICK = ::RegisterWindowMessage("RMSG_OB_ITEMCLICK");

  00000	68 00 00 00 00	 push	 OFFSET ??_C@_0BC@LAMDBJGM@RMSG_OB_ITEMCLICK@
  00005	ff 15 00 00 00
	00		 call	 DWORD PTR __imp__RegisterWindowMessageA@4
  0000b	a3 00 00 00 00	 mov	 DWORD PTR ?RMSG_OB_ITEMCLICK@@3IB, eax
  00010	c3		 ret	 0
??__ERMSG_OB_ITEMCLICK@@YAXXZ ENDP			; `dynamic initializer for 'RMSG_OB_ITEMCLICK''
text$di	ENDS
; Function compile flags: /Ogtp
; File D:\git\src\IBK\IBK_DRFN\ProjSrc\SrcDrfn\Chart\HWSTRATEGYCONFIGUREWIZARD\OutLookBarDlg.cpp
; File C:\Program Files (x86)\Microsoft Visual Studio\2019\Community\VC\Tools\MSVC\14.29.30133\atlmfc\include\afxwin1.inl
; File D:\git\src\IBK\IBK_DRFN\ProjSrc\SrcDrfn\Chart\HWSTRATEGYCONFIGUREWIZARD\OutLookBarDlg.cpp
; File C:\Program Files (x86)\Microsoft Visual Studio\2019\Community\VC\Tools\MSVC\14.29.30133\atlmfc\include\afx.inl
;	COMDAT ??_GCOutLookBarDlg@@UAEPAXI@Z
_TEXT	SEGMENT
___flags$ = 8						; size = 4
??_GCOutLookBarDlg@@UAEPAXI@Z PROC			; COutLookBarDlg::`scalar deleting destructor', COMDAT
; _this$ = ecx
  00000	55		 push	 ebp
  00001	8b ec		 mov	 ebp, esp
; File D:\git\src\IBK\IBK_DRFN\ProjSrc\SrcDrfn\Chart\HWSTRATEGYCONFIGUREWIZARD\OutLookBarDlg.cpp

; 35   : {

  00003	56		 push	 esi
  00004	57		 push	 edi
  00005	8b f9		 mov	 edi, ecx
  00007	8d 8f 94 03 00
	00		 lea	 ecx, DWORD PTR [edi+916]
  0000d	c7 07 00 00 00
	00		 mov	 DWORD PTR [edi], OFFSET ??_7COutLookBarDlg@@6B@
  00013	ff 15 00 00 00
	00		 call	 DWORD PTR __imp_??1?$CStringT@DV?$StrTraitMFC_DLL@DV?$ChTraitsCRT@D@ATL@@@@@ATL@@QAE@XZ
  00019	8d 8f 90 03 00
	00		 lea	 ecx, DWORD PTR [edi+912]
  0001f	ff 15 00 00 00
	00		 call	 DWORD PTR __imp_??1?$CStringT@DV?$StrTraitMFC_DLL@DV?$ChTraitsCRT@D@ATL@@@@@ATL@@QAE@XZ
  00025	8d 8f 8c 03 00
	00		 lea	 ecx, DWORD PTR [edi+908]
  0002b	ff 15 00 00 00
	00		 call	 DWORD PTR __imp_??1?$CStringT@DV?$StrTraitMFC_DLL@DV?$ChTraitsCRT@D@ATL@@@@@ATL@@QAE@XZ

; 36   : }

  00031	8d 8f 74 03 00
	00		 lea	 ecx, DWORD PTR [edi+884]
  00037	e8 00 00 00 00	 call	 ??1CStringArray@@UAE@XZ	; CStringArray::~CStringArray
  0003c	8d 8f 70 03 00
	00		 lea	 ecx, DWORD PTR [edi+880]
  00042	ff 15 00 00 00
	00		 call	 DWORD PTR __imp_??1?$CStringT@DV?$StrTraitMFC_DLL@DV?$ChTraitsCRT@D@ATL@@@@@ATL@@QAE@XZ
  00048	8d 8f 6c 03 00
	00		 lea	 ecx, DWORD PTR [edi+876]
  0004e	ff 15 00 00 00
	00		 call	 DWORD PTR __imp_??1?$CStringT@DV?$StrTraitMFC_DLL@DV?$ChTraitsCRT@D@ATL@@@@@ATL@@QAE@XZ
  00054	8d 8f 68 03 00
	00		 lea	 ecx, DWORD PTR [edi+872]
  0005a	ff 15 00 00 00
	00		 call	 DWORD PTR __imp_??1?$CStringT@DV?$StrTraitMFC_DLL@DV?$ChTraitsCRT@D@ATL@@@@@ATL@@QAE@XZ
  00060	8d 8f 64 03 00
	00		 lea	 ecx, DWORD PTR [edi+868]
  00066	ff 15 00 00 00
	00		 call	 DWORD PTR __imp_??1?$CStringT@DV?$StrTraitMFC_DLL@DV?$ChTraitsCRT@D@ATL@@@@@ATL@@QAE@XZ
  0006c	8d 8f 50 03 00
	00		 lea	 ecx, DWORD PTR [edi+848]
  00072	e8 00 00 00 00	 call	 ??1CStringArray@@UAE@XZ	; CStringArray::~CStringArray
  00077	8d 8f 48 03 00
	00		 lea	 ecx, DWORD PTR [edi+840]
; File C:\Program Files (x86)\Microsoft Visual Studio\2019\Community\VC\Tools\MSVC\14.29.30133\atlmfc\include\afxwin1.inl

; 130  : 	{ }

  0007d	c7 01 00 00 00
	00		 mov	 DWORD PTR [ecx], OFFSET ??_7CBrush@@6B@
  00083	e8 00 00 00 00	 call	 ??1CGdiObject@@UAE@XZ	; CGdiObject::~CGdiObject
; File D:\git\src\IBK\IBK_DRFN\ProjSrc\SrcDrfn\Chart\HWSTRATEGYCONFIGUREWIZARD\OutLookBarDlg.cpp

; 36   : }

  00088	8d 8f 38 03 00
	00		 lea	 ecx, DWORD PTR [edi+824]
  0008e	e8 00 00 00 00	 call	 ??1CImageList@@UAE@XZ	; CImageList::~CImageList
  00093	8d 8f 30 03 00
	00		 lea	 ecx, DWORD PTR [edi+816]
  00099	e8 00 00 00 00	 call	 ??1CImageList@@UAE@XZ	; CImageList::~CImageList
  0009e	8d 8f c8 01 00
	00		 lea	 ecx, DWORD PTR [edi+456]
  000a4	e8 00 00 00 00	 call	 ??1CSTGfxOutBarCtrl@@UAE@XZ ; CSTGfxOutBarCtrl::~CSTGfxOutBarCtrl
  000a9	8d 8f 38 01 00
	00		 lea	 ecx, DWORD PTR [edi+312]
  000af	e8 00 00 00 00	 call	 ??1CExDrawButton@@UAE@XZ ; CExDrawButton::~CExDrawButton
  000b4	8d 8f a8 00 00
	00		 lea	 ecx, DWORD PTR [edi+168]
  000ba	e8 00 00 00 00	 call	 ??1CExDrawButton@@UAE@XZ ; CExDrawButton::~CExDrawButton
  000bf	8b cf		 mov	 ecx, edi
  000c1	e8 00 00 00 00	 call	 ??1CDialog@@UAE@XZ	; CDialog::~CDialog
  000c6	8b 45 08	 mov	 eax, DWORD PTR ___flags$[ebp]
  000c9	a8 01		 test	 al, 1
  000cb	74 23		 je	 SHORT $LN18@scalar
  000cd	a8 04		 test	 al, 4
  000cf	75 11		 jne	 SHORT $LN3@scalar
; File C:\Program Files (x86)\Microsoft Visual Studio\2019\Community\VC\Tools\MSVC\14.29.30133\atlmfc\include\afx.inl

; 112  : 	{ ::operator delete(p); }

  000d1	57		 push	 edi
  000d2	e8 00 00 00 00	 call	 ??3@YAXPAX@Z		; operator delete
  000d7	83 c4 04	 add	 esp, 4
  000da	8b c7		 mov	 eax, edi
  000dc	5f		 pop	 edi
  000dd	5e		 pop	 esi
  000de	5d		 pop	 ebp
  000df	c2 04 00	 ret	 4
$LN3@scalar:
  000e2	68 a8 03 00 00	 push	 936			; 000003a8H
  000e7	57		 push	 edi
  000e8	e8 00 00 00 00	 call	 ?__global_delete@@YAXPAXI@Z ; __global_delete
  000ed	83 c4 08	 add	 esp, 8
$LN18@scalar:
  000f0	8b c7		 mov	 eax, edi
  000f2	5f		 pop	 edi
  000f3	5e		 pop	 esi
  000f4	5d		 pop	 ebp
  000f5	c2 04 00	 ret	 4
??_GCOutLookBarDlg@@UAEPAXI@Z ENDP			; COutLookBarDlg::`scalar deleting destructor'
_TEXT	ENDS
; Function compile flags: /Ogtp
; File D:\git\src\IBK\IBK_DRFN\ProjSrc\SrcDrfn\Chart\HWSTRATEGYCONFIGUREWIZARD\OutLookBarDlg.cpp
; File C:\Program Files (x86)\Microsoft Visual Studio\2019\Community\VC\Tools\MSVC\14.29.30133\atlmfc\include\afxcoll.inl
; File D:\git\src\IBK\IBK_DRFN\ProjSrc\SrcDrfn\Chart\HWSTRATEGYCONFIGUREWIZARD\OutLookBarDlg.cpp
; File C:\Program Files (x86)\Microsoft Visual Studio\2019\Community\VC\Tools\MSVC\14.29.30133\atlmfc\include\afxcoll.inl
; File D:\git\src\IBK\IBK_DRFN\ProjSrc\SrcDrfn\Chart\HWSTRATEGYCONFIGUREWIZARD\OutLookBarDlg.cpp
;	COMDAT ?OnBnClickedBtnNextst@COutLookBarDlg@@QAEXXZ
_TEXT	SEGMENT
_szSearchST$2 = -24					; size = 4
_nFolderIndx$3 = -20					; size = 4
_nItemIndx$4 = -16					; size = 4
__$EHRec$ = -12						; size = 12
?OnBnClickedBtnNextst@COutLookBarDlg@@QAEXXZ PROC	; COutLookBarDlg::OnBnClickedBtnNextst, COMDAT
; _this$ = ecx

; 348  : {

  00000	55		 push	 ebp
  00001	8b ec		 mov	 ebp, esp
  00003	6a ff		 push	 -1
  00005	68 00 00 00 00	 push	 __ehhandler$?OnBnClickedBtnNextst@COutLookBarDlg@@QAEXXZ
  0000a	64 a1 00 00 00
	00		 mov	 eax, DWORD PTR fs:0
  00010	50		 push	 eax
  00011	83 ec 0c	 sub	 esp, 12			; 0000000cH
  00014	56		 push	 esi
  00015	a1 00 00 00 00	 mov	 eax, DWORD PTR ___security_cookie
  0001a	33 c5		 xor	 eax, ebp
  0001c	50		 push	 eax
  0001d	8d 45 f4	 lea	 eax, DWORD PTR __$EHRec$[ebp]
  00020	64 a3 00 00 00
	00		 mov	 DWORD PTR fs:0, eax
  00026	8b f1		 mov	 esi, ecx

; 349  : 	int nSTCount = m_arFindIndx.GetSize();

  00028	8b 96 7c 03 00
	00		 mov	 edx, DWORD PTR [esi+892]

; 350  : 	if(nSTCount == 0) {

  0002e	85 d2		 test	 edx, edx
  00030	75 0c		 jne	 SHORT $LN2@OnBnClicke

; 351  : 		AfxMessageBox(_T("  ."));

  00032	52		 push	 edx
  00033	52		 push	 edx
  00034	68 00 00 00 00	 push	 OFFSET ??_C@_0BI@GFKEBOCG@?$LA?K?$LL?v?G?Q?5?$LA?a?$LA?z?$LA?$KB?5?$LO?x?$LN?$MA?$LE?O?$LE?Y?4@

; 352  : 		return;

  00039	e9 97 00 00 00	 jmp	 $LN16@OnBnClicke
$LN2@OnBnClicke:

; 353  : 	}
; 354  : 
; 355  : 	if(++m_nFindIndx < nSTCount) {

  0003e	8b 8e 88 03 00
	00		 mov	 ecx, DWORD PTR [esi+904]
  00044	41		 inc	 ecx
  00045	89 8e 88 03 00
	00		 mov	 DWORD PTR [esi+904], ecx
  0004b	3b ca		 cmp	 ecx, edx
  0004d	7d 73		 jge	 SHORT $LN3@OnBnClicke

; 356  : 		int nFolderIndx = -1;

  0004f	c7 45 ec ff ff
	ff ff		 mov	 DWORD PTR _nFolderIndx$3[ebp], -1

; 357  : 		int nItemIndx = -1;

  00056	c7 45 f0 ff ff
	ff ff		 mov	 DWORD PTR _nItemIndx$4[ebp], -1
; File C:\Program Files (x86)\Microsoft Visual Studio\2019\Community\VC\Tools\MSVC\14.29.30133\atlmfc\include\afxcoll.inl

; 289  : 		if( nIndex < 0 || nIndex >= m_nSize )

  0005d	85 c9		 test	 ecx, ecx
  0005f	0f 88 85 00 00
	00		 js	 $LN9@OnBnClicke

; 291  : 		return m_pData[nIndex]; }

  00065	8b 86 78 03 00
	00		 mov	 eax, DWORD PTR [esi+888]
  0006b	8d 04 88	 lea	 eax, DWORD PTR [eax+ecx*4]
; File D:\git\src\IBK\IBK_DRFN\ProjSrc\SrcDrfn\Chart\HWSTRATEGYCONFIGUREWIZARD\OutLookBarDlg.cpp

; 358  : 		CString szSearchST = m_arFindIndx.GetAt(m_nFindIndx);

  0006e	50		 push	 eax
  0006f	8d 4d e8	 lea	 ecx, DWORD PTR _szSearchST$2[ebp]
  00072	ff 15 00 00 00
	00		 call	 DWORD PTR __imp_??0?$CStringT@DV?$StrTraitMFC_DLL@DV?$ChTraitsCRT@D@ATL@@@@@ATL@@QAE@ABV01@@Z

; 359  : 		::sscanf(szSearchST, "%d:%d", &nFolderIndx, &nItemIndx);

  00078	8d 45 f0	 lea	 eax, DWORD PTR _nItemIndx$4[ebp]
  0007b	c7 45 fc 00 00
	00 00		 mov	 DWORD PTR __$EHRec$[ebp+8], 0
  00082	50		 push	 eax
  00083	8d 45 ec	 lea	 eax, DWORD PTR _nFolderIndx$3[ebp]
  00086	50		 push	 eax
  00087	68 00 00 00 00	 push	 OFFSET ??_C@_05NFGPCJDJ@?$CFd?3?$CFd@
  0008c	ff 75 e8	 push	 DWORD PTR _szSearchST$2[ebp]
  0008f	e8 00 00 00 00	 call	 _sscanf

; 360  : 
; 361  : 		m_pSTLoadMnger->SetSelectedItem(nFolderIndx, nItemIndx);

  00094	8b 86 40 03 00
	00		 mov	 eax, DWORD PTR [esi+832]
  0009a	83 c4 10	 add	 esp, 16			; 00000010H
  0009d	ff 75 f0	 push	 DWORD PTR _nItemIndx$4[ebp]
  000a0	8b 08		 mov	 ecx, DWORD PTR [eax]
  000a2	ff 75 ec	 push	 DWORD PTR _nFolderIndx$3[ebp]
  000a5	50		 push	 eax
  000a6	ff 51 1c	 call	 DWORD PTR [ecx+28]

; 362  : 	}

  000a9	8d 4d e8	 lea	 ecx, DWORD PTR _szSearchST$2[ebp]
  000ac	ff 15 00 00 00
	00		 call	 DWORD PTR __imp_??1?$CStringT@DV?$StrTraitMFC_DLL@DV?$ChTraitsCRT@D@ATL@@@@@ATL@@QAE@XZ

; 367  : }

  000b2	8b 4d f4	 mov	 ecx, DWORD PTR __$EHRec$[ebp]
  000b5	64 89 0d 00 00
	00 00		 mov	 DWORD PTR fs:0, ecx
  000bc	59		 pop	 ecx
  000bd	5e		 pop	 esi
  000be	8b e5		 mov	 esp, ebp
  000c0	5d		 pop	 ebp
  000c1	c3		 ret	 0
$LN3@OnBnClicke:

; 363  : 	else {
; 364  : 		m_nFindIndx = 0;
; 365  : 		AfxMessageBox(_T("   ."));

  000c2	6a 00		 push	 0
  000c4	6a 00		 push	 0
  000c6	c7 86 88 03 00
	00 00 00 00 00	 mov	 DWORD PTR [esi+904], 0
  000d0	68 00 00 00 00	 push	 OFFSET ??_C@_0CB@BDFGCOEN@?$LA?K?$LL?v?G?Q?5?$LA?a?$LA?z?$LI?$KG?5?$LI?p?$LF?N?5?H?$KO?$MA?N?G?$NP?$LN?$MA?$LE?O?$LE?Y@
$LN16@OnBnClicke:

; 367  : }

  000d5	e8 00 00 00 00	 call	 ?AfxMessageBox@@YGHPBDII@Z ; AfxMessageBox
  000da	8b 4d f4	 mov	 ecx, DWORD PTR __$EHRec$[ebp]
  000dd	64 89 0d 00 00
	00 00		 mov	 DWORD PTR fs:0, ecx
  000e4	59		 pop	 ecx
  000e5	5e		 pop	 esi
  000e6	8b e5		 mov	 esp, ebp
  000e8	5d		 pop	 ebp
  000e9	c3		 ret	 0
$LN9@OnBnClicke:
; File C:\Program Files (x86)\Microsoft Visual Studio\2019\Community\VC\Tools\MSVC\14.29.30133\atlmfc\include\afxcoll.inl

; 290  : 			AfxThrowInvalidArgException();

  000ea	e8 00 00 00 00	 call	 ?AfxThrowInvalidArgException@@YGXXZ ; AfxThrowInvalidArgException
$LN15@OnBnClicke:
  000ef	cc		 int	 3
_TEXT	ENDS
;	COMDAT text$x
text$x	SEGMENT
__unwindfunclet$?OnBnClickedBtnNextst@COutLookBarDlg@@QAEXXZ$0:
  00000	8d 4d e8	 lea	 ecx, DWORD PTR _szSearchST$2[ebp]
  00003	ff 25 00 00 00
	00		 jmp	 DWORD PTR __imp_??1?$CStringT@DV?$StrTraitMFC_DLL@DV?$ChTraitsCRT@D@ATL@@@@@ATL@@QAE@XZ
  00009	cc		 int	 3
  0000a	cc		 int	 3
  0000b	cc		 int	 3
  0000c	cc		 int	 3
  0000d	cc		 int	 3
__ehhandler$?OnBnClickedBtnNextst@COutLookBarDlg@@QAEXXZ:
  0000e	90		 npad	 1
  0000f	90		 npad	 1
  00010	8b 54 24 08	 mov	 edx, DWORD PTR [esp+8]
  00014	8d 42 0c	 lea	 eax, DWORD PTR [edx+12]
  00017	8b 4a ec	 mov	 ecx, DWORD PTR [edx-20]
  0001a	33 c8		 xor	 ecx, eax
  0001c	e8 00 00 00 00	 call	 @__security_check_cookie@4
  00021	b8 00 00 00 00	 mov	 eax, OFFSET __ehfuncinfo$?OnBnClickedBtnNextst@COutLookBarDlg@@QAEXXZ
  00026	e9 00 00 00 00	 jmp	 ___CxxFrameHandler3
text$x	ENDS
?OnBnClickedBtnNextst@COutLookBarDlg@@QAEXXZ ENDP	; COutLookBarDlg::OnBnClickedBtnNextst
; Function compile flags: /Ogtp
; File D:\git\src\IBK\IBK_DRFN\ProjSrc\SrcDrfn\Chart\HWSTRATEGYCONFIGUREWIZARD\OutLookBarDlg.cpp
; File C:\Program Files (x86)\Microsoft Visual Studio\2019\Community\VC\Tools\MSVC\14.29.30133\atlmfc\include\atlsimpstr.h
; File D:\git\src\IBK\IBK_DRFN\ProjSrc\SrcDrfn\Chart\HWSTRATEGYCONFIGUREWIZARD\OutLookBarDlg.cpp
; File C:\Program Files (x86)\Microsoft Visual Studio\2019\Community\VC\Tools\MSVC\14.29.30133\atlmfc\include\afxcoll.inl
; File D:\git\src\IBK\IBK_DRFN\ProjSrc\SrcDrfn\Chart\HWSTRATEGYCONFIGUREWIZARD\OutLookBarDlg.cpp
; File C:\Program Files (x86)\Microsoft Visual Studio\2019\Community\VC\Tools\MSVC\14.29.30133\atlmfc\include\afxcoll.inl
; File D:\git\src\IBK\IBK_DRFN\ProjSrc\SrcDrfn\Chart\HWSTRATEGYCONFIGUREWIZARD\OutLookBarDlg.cpp
; File C:\Program Files (x86)\Microsoft Visual Studio\2019\Community\VC\Tools\MSVC\14.29.30133\atlmfc\include\afxcoll.inl
; File D:\git\src\IBK\IBK_DRFN\ProjSrc\SrcDrfn\Chart\HWSTRATEGYCONFIGUREWIZARD\OutLookBarDlg.cpp
; File C:\Program Files (x86)\Microsoft Visual Studio\2019\Community\VC\Tools\MSVC\14.29.30133\atlmfc\include\afxcoll.inl
; File D:\git\src\IBK\IBK_DRFN\ProjSrc\SrcDrfn\Chart\HWSTRATEGYCONFIGUREWIZARD\OutLookBarDlg.cpp
;	COMDAT ?OnBnClickedBtnFindst@COutLookBarDlg@@QAEXXZ
_TEXT	SEGMENT
_szSearchST$2 = -28					; size = 4
_nFolderIndx$3 = -24					; size = 4
_szMsg$4 = -20						; size = 4
_nItemIndx$5 = -20					; size = 4
_szSTName$ = -16					; size = 4
__$EHRec$ = -12						; size = 12
?OnBnClickedBtnFindst@COutLookBarDlg@@QAEXXZ PROC	; COutLookBarDlg::OnBnClickedBtnFindst, COMDAT
; _this$ = ecx

; 320  : {

  00000	55		 push	 ebp
  00001	8b ec		 mov	 ebp, esp
  00003	6a ff		 push	 -1
  00005	68 00 00 00 00	 push	 __ehhandler$?OnBnClickedBtnFindst@COutLookBarDlg@@QAEXXZ
  0000a	64 a1 00 00 00
	00		 mov	 eax, DWORD PTR fs:0
  00010	50		 push	 eax
  00011	83 ec 10	 sub	 esp, 16			; 00000010H
  00014	56		 push	 esi
  00015	57		 push	 edi
  00016	a1 00 00 00 00	 mov	 eax, DWORD PTR ___security_cookie
  0001b	33 c5		 xor	 eax, ebp
  0001d	50		 push	 eax
  0001e	8d 45 f4	 lea	 eax, DWORD PTR __$EHRec$[ebp]
  00021	64 a3 00 00 00
	00		 mov	 DWORD PTR fs:0, eax
  00027	8b f9		 mov	 edi, ecx

; 321  : 	CString szSTName;

  00029	8d 4d f0	 lea	 ecx, DWORD PTR _szSTName$[ebp]
  0002c	ff 15 00 00 00
	00		 call	 DWORD PTR __imp_??0?$CStringT@DV?$StrTraitMFC_DLL@DV?$ChTraitsCRT@D@ATL@@@@@ATL@@QAE@XZ

; 322  : 	GetDlgItemText(IDC_EDIT_FINDST , szSTName);

  00032	8d 45 f0	 lea	 eax, DWORD PTR _szSTName$[ebp]
  00035	c7 45 fc 00 00
	00 00		 mov	 DWORD PTR __$EHRec$[ebp+8], 0
  0003c	50		 push	 eax
  0003d	68 f7 03 00 00	 push	 1015			; 000003f7H
  00042	8b cf		 mov	 ecx, edi
  00044	e8 00 00 00 00	 call	 ?GetDlgItemTextA@CWnd@@QBEHHAAV?$CStringT@DV?$StrTraitMFC_DLL@DV?$ChTraitsCRT@D@ATL@@@@@ATL@@@Z ; CWnd::GetDlgItemTextA
; File C:\Program Files (x86)\Microsoft Visual Studio\2019\Community\VC\Tools\MSVC\14.29.30133\atlmfc\include\atlsimpstr.h

; 519  : 		return( GetData()->nDataLength );

  00049	8b 45 f0	 mov	 eax, DWORD PTR _szSTName$[ebp]

; 533  : 		return( GetLength() == 0 );

  0004c	83 78 f4 00	 cmp	 DWORD PTR [eax-12], 0
; File D:\git\src\IBK\IBK_DRFN\ProjSrc\SrcDrfn\Chart\HWSTRATEGYCONFIGUREWIZARD\OutLookBarDlg.cpp

; 323  : 	if(szSTName.IsEmpty()) {

  00050	75 13		 jne	 SHORT $LN2@OnBnClicke

; 324  : 		AfxMessageBox(" .");

  00052	6a 00		 push	 0
  00054	6a 00		 push	 0
  00056	68 00 00 00 00	 push	 OFFSET ??_C@_0BH@PGFEHFKK@?$LA?K?$LL?v?$LI?m?$MA?$LL?5?$MA?T?$LH?B?G?O?$LN?J?$LN?C?$LP?d?4@
  0005b	e8 00 00 00 00	 call	 ?AfxMessageBox@@YGHPBDII@Z ; AfxMessageBox
  00060	e9 de 00 00 00	 jmp	 $LN4@OnBnClicke
$LN2@OnBnClicke:
; File C:\Program Files (x86)\Microsoft Visual Studio\2019\Community\VC\Tools\MSVC\14.29.30133\atlmfc\include\afxcoll.inl

; 286  : 	{ SetSize(0); }

  00065	6a ff		 push	 -1
; File D:\git\src\IBK\IBK_DRFN\ProjSrc\SrcDrfn\Chart\HWSTRATEGYCONFIGUREWIZARD\OutLookBarDlg.cpp

; 329  : 	m_arFindIndx.RemoveAll();

  00067	8d b7 74 03 00
	00		 lea	 esi, DWORD PTR [edi+884]
  0006d	c7 87 88 03 00
	00 00 00 00 00	 mov	 DWORD PTR [edi+904], 0
; File C:\Program Files (x86)\Microsoft Visual Studio\2019\Community\VC\Tools\MSVC\14.29.30133\atlmfc\include\afxcoll.inl

; 286  : 	{ SetSize(0); }

  00077	6a 00		 push	 0
  00079	8b ce		 mov	 ecx, esi
  0007b	e8 00 00 00 00	 call	 ?SetSize@CStringArray@@QAEXHH@Z ; CStringArray::SetSize
; File D:\git\src\IBK\IBK_DRFN\ProjSrc\SrcDrfn\Chart\HWSTRATEGYCONFIGUREWIZARD\OutLookBarDlg.cpp

; 330  : 	int nSTCount = m_pSTLoadMnger->SearchST(szSTName, m_arFindIndx);

  00080	56		 push	 esi
  00081	51		 push	 ecx
  00082	8d 45 f0	 lea	 eax, DWORD PTR _szSTName$[ebp]
  00085	8b cc		 mov	 ecx, esp
  00087	50		 push	 eax
  00088	ff 15 00 00 00
	00		 call	 DWORD PTR __imp_??0?$CStringT@DV?$StrTraitMFC_DLL@DV?$ChTraitsCRT@D@ATL@@@@@ATL@@QAE@ABV01@@Z
  0008e	8b 87 40 03 00
	00		 mov	 eax, DWORD PTR [edi+832]
  00094	50		 push	 eax
  00095	8b 08		 mov	 ecx, DWORD PTR [eax]
  00097	ff 51 0c	 call	 DWORD PTR [ecx+12]

; 331  : 
; 332  : 	if(nSTCount > 0) {

  0009a	85 c0		 test	 eax, eax
  0009c	7e 6e		 jle	 SHORT $LN3@OnBnClicke

; 335  : 		CString szSearchST = m_arFindIndx.GetAt(m_nFindIndx);

  0009e	8b 8f 88 03 00
	00		 mov	 ecx, DWORD PTR [edi+904]
  000a4	c7 45 e8 ff ff
	ff ff		 mov	 DWORD PTR _nFolderIndx$3[ebp], -1
  000ab	c7 45 ec ff ff
	ff ff		 mov	 DWORD PTR _nItemIndx$5[ebp], -1
; File C:\Program Files (x86)\Microsoft Visual Studio\2019\Community\VC\Tools\MSVC\14.29.30133\atlmfc\include\afxcoll.inl

; 289  : 		if( nIndex < 0 || nIndex >= m_nSize )

  000b2	85 c9		 test	 ecx, ecx
  000b4	0f 88 a3 00 00
	00		 js	 $LN21@OnBnClicke
  000ba	3b 8f 7c 03 00
	00		 cmp	 ecx, DWORD PTR [edi+892]
  000c0	0f 8d 97 00 00
	00		 jge	 $LN21@OnBnClicke

; 291  : 		return m_pData[nIndex]; }

  000c6	8b 87 78 03 00
	00		 mov	 eax, DWORD PTR [edi+888]
  000cc	8d 04 88	 lea	 eax, DWORD PTR [eax+ecx*4]
; File D:\git\src\IBK\IBK_DRFN\ProjSrc\SrcDrfn\Chart\HWSTRATEGYCONFIGUREWIZARD\OutLookBarDlg.cpp

; 335  : 		CString szSearchST = m_arFindIndx.GetAt(m_nFindIndx);

  000cf	50		 push	 eax
  000d0	8d 4d e4	 lea	 ecx, DWORD PTR _szSearchST$2[ebp]
  000d3	ff 15 00 00 00
	00		 call	 DWORD PTR __imp_??0?$CStringT@DV?$StrTraitMFC_DLL@DV?$ChTraitsCRT@D@ATL@@@@@ATL@@QAE@ABV01@@Z

; 336  : 		::sscanf(szSearchST, "%d:%d", &nFolderIndx, &nItemIndx);

  000d9	8d 45 ec	 lea	 eax, DWORD PTR _nItemIndx$5[ebp]
  000dc	c6 45 fc 01	 mov	 BYTE PTR __$EHRec$[ebp+8], 1
  000e0	50		 push	 eax
  000e1	8d 45 e8	 lea	 eax, DWORD PTR _nFolderIndx$3[ebp]
  000e4	50		 push	 eax
  000e5	68 00 00 00 00	 push	 OFFSET ??_C@_05NFGPCJDJ@?$CFd?3?$CFd@
  000ea	ff 75 e4	 push	 DWORD PTR _szSearchST$2[ebp]
  000ed	e8 00 00 00 00	 call	 _sscanf

; 337  : 
; 338  : 		m_pSTLoadMnger->SetSelectedItem(nFolderIndx, nItemIndx);

  000f2	8b 87 40 03 00
	00		 mov	 eax, DWORD PTR [edi+832]
  000f8	83 c4 10	 add	 esp, 16			; 00000010H
  000fb	ff 75 ec	 push	 DWORD PTR _nItemIndx$5[ebp]
  000fe	8b 08		 mov	 ecx, DWORD PTR [eax]
  00100	ff 75 e8	 push	 DWORD PTR _nFolderIndx$3[ebp]
  00103	50		 push	 eax
  00104	ff 51 1c	 call	 DWORD PTR [ecx+28]

; 339  : 	}

  00107	8d 4d e4	 lea	 ecx, DWORD PTR _szSearchST$2[ebp]
  0010a	eb 31		 jmp	 SHORT $LN30@OnBnClicke
$LN3@OnBnClicke:

; 340  : 	else {
; 341  : 		CString szMsg;

  0010c	8d 4d ec	 lea	 ecx, DWORD PTR _szMsg$4[ebp]
  0010f	ff 15 00 00 00
	00		 call	 DWORD PTR __imp_??0?$CStringT@DV?$StrTraitMFC_DLL@DV?$ChTraitsCRT@D@ATL@@@@@ATL@@QAE@XZ

; 342  : 		szMsg.Format("[%s]    .", szSTName);

  00115	ff 75 f0	 push	 DWORD PTR _szSTName$[ebp]
  00118	8d 45 ec	 lea	 eax, DWORD PTR _szMsg$4[ebp]
  0011b	c6 45 fc 02	 mov	 BYTE PTR __$EHRec$[ebp+8], 2
  0011f	68 00 00 00 00	 push	 OFFSET ??_C@_0CC@EHJDCDHD@?$FL?$CFs?$FN?5?$LP?$KB?5?$LE?k?G?Q?5?$LA?K?$LL?v?$LA?a?$LA?z?$LA?$KB?5?$LO?x?$LN?$MA?$LE?O?$LE@
  00124	50		 push	 eax
  00125	ff 15 00 00 00
	00		 call	 DWORD PTR __imp_?Format@?$CStringT@DV?$StrTraitMFC_DLL@DV?$ChTraitsCRT@D@ATL@@@@@ATL@@QAAXPBDZZ
  0012b	83 c4 0c	 add	 esp, 12			; 0000000cH

; 343  : 		AfxMessageBox(szMsg);

  0012e	6a 00		 push	 0
  00130	6a 00		 push	 0
  00132	ff 75 ec	 push	 DWORD PTR _szMsg$4[ebp]
  00135	e8 00 00 00 00	 call	 ?AfxMessageBox@@YGHPBDII@Z ; AfxMessageBox

; 344  : 	}

  0013a	8d 4d ec	 lea	 ecx, DWORD PTR _szMsg$4[ebp]
$LN30@OnBnClicke:

; 345  : }

  0013d	ff 15 00 00 00
	00		 call	 DWORD PTR __imp_??1?$CStringT@DV?$StrTraitMFC_DLL@DV?$ChTraitsCRT@D@ATL@@@@@ATL@@QAE@XZ
$LN4@OnBnClicke:
  00143	8d 4d f0	 lea	 ecx, DWORD PTR _szSTName$[ebp]
  00146	ff 15 00 00 00
	00		 call	 DWORD PTR __imp_??1?$CStringT@DV?$StrTraitMFC_DLL@DV?$ChTraitsCRT@D@ATL@@@@@ATL@@QAE@XZ
  0014c	8b 4d f4	 mov	 ecx, DWORD PTR __$EHRec$[ebp]
  0014f	64 89 0d 00 00
	00 00		 mov	 DWORD PTR fs:0, ecx
  00156	59		 pop	 ecx
  00157	5f		 pop	 edi
  00158	5e		 pop	 esi
  00159	8b e5		 mov	 esp, ebp
  0015b	5d		 pop	 ebp
  0015c	c3		 ret	 0
$LN21@OnBnClicke:
; File C:\Program Files (x86)\Microsoft Visual Studio\2019\Community\VC\Tools\MSVC\14.29.30133\atlmfc\include\afxcoll.inl

; 290  : 			AfxThrowInvalidArgException();

  0015d	e8 00 00 00 00	 call	 ?AfxThrowInvalidArgException@@YGXXZ ; AfxThrowInvalidArgException
$LN29@OnBnClicke:
  00162	cc		 int	 3
_TEXT	ENDS
;	COMDAT text$x
text$x	SEGMENT
__unwindfunclet$?OnBnClickedBtnFindst@COutLookBarDlg@@QAEXXZ$0:
  00000	8d 4d f0	 lea	 ecx, DWORD PTR _szSTName$[ebp]
  00003	ff 25 00 00 00
	00		 jmp	 DWORD PTR __imp_??1?$CStringT@DV?$StrTraitMFC_DLL@DV?$ChTraitsCRT@D@ATL@@@@@ATL@@QAE@XZ
__unwindfunclet$?OnBnClickedBtnFindst@COutLookBarDlg@@QAEXXZ$2:
  00009	8d 4d e4	 lea	 ecx, DWORD PTR _szSearchST$2[ebp]
  0000c	ff 25 00 00 00
	00		 jmp	 DWORD PTR __imp_??1?$CStringT@DV?$StrTraitMFC_DLL@DV?$ChTraitsCRT@D@ATL@@@@@ATL@@QAE@XZ
__unwindfunclet$?OnBnClickedBtnFindst@COutLookBarDlg@@QAEXXZ$3:
  00012	8d 4d ec	 lea	 ecx, DWORD PTR _szMsg$4[ebp]
  00015	ff 25 00 00 00
	00		 jmp	 DWORD PTR __imp_??1?$CStringT@DV?$StrTraitMFC_DLL@DV?$ChTraitsCRT@D@ATL@@@@@ATL@@QAE@XZ
  0001b	cc		 int	 3
  0001c	cc		 int	 3
  0001d	cc		 int	 3
  0001e	cc		 int	 3
  0001f	cc		 int	 3
__ehhandler$?OnBnClickedBtnFindst@COutLookBarDlg@@QAEXXZ:
  00020	90		 npad	 1
  00021	90		 npad	 1
  00022	8b 54 24 08	 mov	 edx, DWORD PTR [esp+8]
  00026	8d 42 0c	 lea	 eax, DWORD PTR [edx+12]
  00029	8b 4a e4	 mov	 ecx, DWORD PTR [edx-28]
  0002c	33 c8		 xor	 ecx, eax
  0002e	e8 00 00 00 00	 call	 @__security_check_cookie@4
  00033	b8 00 00 00 00	 mov	 eax, OFFSET __ehfuncinfo$?OnBnClickedBtnFindst@COutLookBarDlg@@QAEXXZ
  00038	e9 00 00 00 00	 jmp	 ___CxxFrameHandler3
text$x	ENDS
?OnBnClickedBtnFindst@COutLookBarDlg@@QAEXXZ ENDP	; COutLookBarDlg::OnBnClickedBtnFindst
; Function compile flags: /Ogtp
; File D:\git\src\IBK\IBK_DRFN\ProjSrc\SrcDrfn\Chart\HWSTRATEGYCONFIGUREWIZARD\OutLookBarDlg.cpp
; File C:\Program Files (x86)\Microsoft Visual Studio\2019\Community\VC\Tools\MSVC\14.29.30133\atlmfc\include\afxwin2.inl
; File D:\git\src\IBK\IBK_DRFN\ProjSrc\SrcDrfn\Chart\HWSTRATEGYCONFIGUREWIZARD\OutLookBarDlg.cpp
;	COMDAT ?PreTranslateMessage@COutLookBarDlg@@MAEHPAUtagMSG@@@Z
_TEXT	SEGMENT
_pMsg$ = 8						; size = 4
?PreTranslateMessage@COutLookBarDlg@@MAEHPAUtagMSG@@@Z PROC ; COutLookBarDlg::PreTranslateMessage, COMDAT
; _this$ = ecx

; 292  : {

  00000	55		 push	 ebp
  00001	8b ec		 mov	 ebp, esp
  00003	56		 push	 esi

; 293  : 	//     
; 294  : 	if(pMsg->message == WM_KEYDOWN)   

  00004	8b 75 08	 mov	 esi, DWORD PTR _pMsg$[ebp]
  00007	57		 push	 edi
  00008	8b f9		 mov	 edi, ecx
  0000a	8b 46 04	 mov	 eax, DWORD PTR [esi+4]
  0000d	3d 00 01 00 00	 cmp	 eax, 256		; 00000100H
  00012	75 57		 jne	 SHORT $LN2@PreTransla

; 295  : 	{
; 296  : 		if(pMsg->wParam == VK_F4 && (::GetKeyState(VK_CONTROL) & 0x8000))

  00014	83 7e 08 73	 cmp	 DWORD PTR [esi+8], 115	; 00000073H
  00018	75 36		 jne	 SHORT $LN14@PreTransla
  0001a	6a 11		 push	 17			; 00000011H
  0001c	ff 15 00 00 00
	00		 call	 DWORD PTR __imp__GetKeyState@4
  00022	66 0f ba e0 0f	 bt	 ax, 15			; 0000000fH
  00027	73 27		 jae	 SHORT $LN14@PreTransla

; 297  : 		{
; 298  : 			pMsg->wParam = VK_ESCAPE;

  00029	c7 46 08 1b 00
	00 00		 mov	 DWORD PTR [esi+8], 27	; 0000001bH
; File C:\Program Files (x86)\Microsoft Visual Studio\2019\Community\VC\Tools\MSVC\14.29.30133\atlmfc\include\afxwin2.inl

; 213  : 	{ ASSERT(::IsWindow(m_hWnd)); return CWnd::FromHandle(::GetParent(m_hWnd)); }

  00030	ff 77 20	 push	 DWORD PTR [edi+32]
  00033	ff 15 00 00 00
	00		 call	 DWORD PTR __imp__GetParent@4
  00039	50		 push	 eax
  0003a	e8 00 00 00 00	 call	 ?FromHandle@CWnd@@SGPAV1@PAUHWND__@@@Z ; CWnd::FromHandle
; File D:\git\src\IBK\IBK_DRFN\ProjSrc\SrcDrfn\Chart\HWSTRATEGYCONFIGUREWIZARD\OutLookBarDlg.cpp

; 299  : 			return GetParent()->PreTranslateMessage(pMsg);

  0003f	56		 push	 esi
  00040	8b c8		 mov	 ecx, eax
  00042	8b 10		 mov	 edx, DWORD PTR [eax]
  00044	ff 92 14 01 00
	00		 call	 DWORD PTR [edx+276]
  0004a	5f		 pop	 edi

; 313  : 	}
; 314  : 
; 315  : 	return CDialog::PreTranslateMessage(pMsg);
; 316  : }

  0004b	5e		 pop	 esi
  0004c	5d		 pop	 ebp
  0004d	c2 04 00	 ret	 4
$LN14@PreTransla:

; 300  : 		}
; 301  : 		else if(pMsg->wParam == VK_RETURN)

  00050	83 7e 08 0d	 cmp	 DWORD PTR [esi+8], 13	; 0000000dH
  00054	75 2b		 jne	 SHORT $LN15@PreTransla

; 302  : 		{
; 303  : 			 OnBnClickedBtnFindst();

  00056	8b cf		 mov	 ecx, edi
  00058	e8 00 00 00 00	 call	 ?OnBnClickedBtnFindst@COutLookBarDlg@@QAEXXZ ; COutLookBarDlg::OnBnClickedBtnFindst
$LN9@PreTransla:

; 313  : 	}
; 314  : 
; 315  : 	return CDialog::PreTranslateMessage(pMsg);
; 316  : }

  0005d	56		 push	 esi
  0005e	8b cf		 mov	 ecx, edi
  00060	e8 00 00 00 00	 call	 ?PreTranslateMessage@CDialog@@UAEHPAUtagMSG@@@Z ; CDialog::PreTranslateMessage
  00065	5f		 pop	 edi
  00066	5e		 pop	 esi
  00067	5d		 pop	 ebp
  00068	c2 04 00	 ret	 4
$LN2@PreTransla:

; 304  : 			return CDialog::PreTranslateMessage(pMsg);
; 305  : 		}
; 306  : 		else
; 307  : 			return FALSE;
; 308  : 	}
; 309  : 	else if(pMsg->message == WM_SYSKEYDOWN)

  0006b	3d 04 01 00 00	 cmp	 eax, 260		; 00000104H
  00070	75 eb		 jne	 SHORT $LN9@PreTransla

; 310  : 	{
; 311  : 		if( ::GetKeyState(VK_MENU) & 0x8000)

  00072	6a 12		 push	 18			; 00000012H
  00074	ff 15 00 00 00
	00		 call	 DWORD PTR __imp__GetKeyState@4
  0007a	66 0f ba e0 0f	 bt	 ax, 15			; 0000000fH
  0007f	73 dc		 jae	 SHORT $LN9@PreTransla
$LN15@PreTransla:
  00081	5f		 pop	 edi

; 312  : 			return FALSE;

  00082	33 c0		 xor	 eax, eax

; 313  : 	}
; 314  : 
; 315  : 	return CDialog::PreTranslateMessage(pMsg);
; 316  : }

  00084	5e		 pop	 esi
  00085	5d		 pop	 ebp
  00086	c2 04 00	 ret	 4
?PreTranslateMessage@COutLookBarDlg@@MAEHPAUtagMSG@@@Z ENDP ; COutLookBarDlg::PreTranslateMessage
_TEXT	ENDS
; Function compile flags: /Ogtp
; File D:\git\src\IBK\IBK_DRFN\ProjSrc\SrcDrfn\Chart\HWSTRATEGYCONFIGUREWIZARD\OutLookBarDlg.cpp
; File C:\Program Files (x86)\Microsoft Visual Studio\2019\Community\VC\Tools\MSVC\14.29.30133\atlmfc\include\afxwin2.inl
; File D:\git\src\IBK\IBK_DRFN\ProjSrc\SrcDrfn\Chart\HWSTRATEGYCONFIGUREWIZARD\OutLookBarDlg.cpp
; File C:\Program Files (x86)\Microsoft Visual Studio\2019\Community\VC\Tools\MSVC\14.29.30133\atlmfc\include\afxwin2.inl
; File D:\git\src\IBK\IBK_DRFN\ProjSrc\SrcDrfn\Chart\HWSTRATEGYCONFIGUREWIZARD\OutLookBarDlg.cpp
;	COMDAT ?WindowProc@COutLookBarDlg@@MAEJIIJ@Z
_TEXT	SEGMENT
_dataItem$2 = -24					; size = 8
_szFolderPath$3 = -16					; size = 4
__$EHRec$ = -12						; size = 12
_message$ = 8						; size = 4
_wParam$ = 12						; size = 4
_lParam$ = 16						; size = 4
?WindowProc@COutLookBarDlg@@MAEJIIJ@Z PROC		; COutLookBarDlg::WindowProc, COMDAT
; _this$ = ecx

; 253  : {

  00000	55		 push	 ebp
  00001	8b ec		 mov	 ebp, esp
  00003	6a ff		 push	 -1
  00005	68 00 00 00 00	 push	 __ehhandler$?WindowProc@COutLookBarDlg@@MAEJIIJ@Z
  0000a	64 a1 00 00 00
	00		 mov	 eax, DWORD PTR fs:0
  00010	50		 push	 eax
  00011	83 ec 0c	 sub	 esp, 12			; 0000000cH
  00014	53		 push	 ebx
  00015	56		 push	 esi
  00016	57		 push	 edi
  00017	a1 00 00 00 00	 mov	 eax, DWORD PTR ___security_cookie
  0001c	33 c5		 xor	 eax, ebp
  0001e	50		 push	 eax
  0001f	8d 45 f4	 lea	 eax, DWORD PTR __$EHRec$[ebp]
  00022	64 a3 00 00 00
	00		 mov	 DWORD PTR fs:0, eax
  00028	8b d9		 mov	 ebx, ecx

; 254  : 	if(message == RMSG_OB_ITEMDBLCLK) 

  0002a	8b 45 08	 mov	 eax, DWORD PTR _message$[ebp]
  0002d	3b 05 00 00 00
	00		 cmp	 eax, DWORD PTR ?RMSG_OB_ITEMDBLCLK@@3IB
  00033	0f 85 e8 00 00
	00		 jne	 $LN2@WindowProc

; 255  : 	{
; 256  : 		STMNG_ITEMINFO* pArg = (STMNG_ITEMINFO*)lParam;
; 257  : 
; 258  : 		m_RunSTInfo.nSTType = pArg->nSTType;

  00039	8b 75 10	 mov	 esi, DWORD PTR _lParam$[ebp]

; 259  : 		m_RunSTInfo.szSTName = pArg->szSTName;

  0003c	8d 8b 90 03 00
	00		 lea	 ecx, DWORD PTR [ebx+912]
  00042	8b 46 0c	 mov	 eax, DWORD PTR [esi+12]
  00045	8d 7e 04	 lea	 edi, DWORD PTR [esi+4]
  00048	57		 push	 edi
  00049	89 83 98 03 00
	00		 mov	 DWORD PTR [ebx+920], eax
  0004f	ff 15 00 00 00
	00		 call	 DWORD PTR __imp_??4?$CStringT@DV?$StrTraitMFC_DLL@DV?$ChTraitsCRT@D@ATL@@@@@ATL@@QAEAAV01@ABV01@@Z

; 260  : 		m_RunSTInfo.szSTPath = pArg->szSTPath;

  00055	83 c6 08	 add	 esi, 8
  00058	8d 8b 94 03 00
	00		 lea	 ecx, DWORD PTR [ebx+916]
  0005e	56		 push	 esi
  0005f	ff 15 00 00 00
	00		 call	 DWORD PTR __imp_??4?$CStringT@DV?$StrTraitMFC_DLL@DV?$ChTraitsCRT@D@ATL@@@@@ATL@@QAEAAV01@ABV01@@Z

; 261  : 		m_RunSTInfo.szSTRData = pArg->szSTRData;

  00065	8b 4d 10	 mov	 ecx, DWORD PTR _lParam$[ebp]
  00068	51		 push	 ecx
  00069	8d 8b 8c 03 00
	00		 lea	 ecx, DWORD PTR [ebx+908]
  0006f	ff 15 00 00 00
	00		 call	 DWORD PTR __imp_??4?$CStringT@DV?$StrTraitMFC_DLL@DV?$ChTraitsCRT@D@ATL@@@@@ATL@@QAEAAV01@ABV01@@Z

; 262  : 		m_RunSTInfo.nFolderIndx = pArg->nFolderIndx;

  00075	8b 4d 10	 mov	 ecx, DWORD PTR _lParam$[ebp]
  00078	8b 41 10	 mov	 eax, DWORD PTR [ecx+16]
  0007b	89 83 9c 03 00
	00		 mov	 DWORD PTR [ebx+924], eax

; 263  : 		m_RunSTInfo.nItemIndx = pArg->nItemIndx;

  00081	8b 41 14	 mov	 eax, DWORD PTR [ecx+20]

; 264  : 
; 265  : 		//   (  & STType )
; 266  : 		CString szFolderPath;

  00084	8d 4d f0	 lea	 ecx, DWORD PTR _szFolderPath$3[ebp]
  00087	89 83 a0 03 00
	00		 mov	 DWORD PTR [ebx+928], eax
  0008d	ff 15 00 00 00
	00		 call	 DWORD PTR __imp_??0?$CStringT@DV?$StrTraitMFC_DLL@DV?$ChTraitsCRT@D@ATL@@@@@ATL@@QAE@XZ

; 267  : 		szFolderPath = pArg->szSTPath;

  00093	56		 push	 esi
  00094	8d 4d f0	 lea	 ecx, DWORD PTR _szFolderPath$3[ebp]
  00097	c7 45 fc 00 00
	00 00		 mov	 DWORD PTR __$EHRec$[ebp+8], 0
  0009e	ff 15 00 00 00
	00		 call	 DWORD PTR __imp_??4?$CStringT@DV?$StrTraitMFC_DLL@DV?$ChTraitsCRT@D@ATL@@@@@ATL@@QAEAAV01@ABV01@@Z

; 268  : 		szFolderPath += "\\";

  000a4	68 00 00 00 00	 push	 OFFSET ??_C@_01KICIPPFI@?2@
  000a9	8d 4d f0	 lea	 ecx, DWORD PTR _szFolderPath$3[ebp]
  000ac	ff 15 00 00 00
	00		 call	 DWORD PTR __imp_??Y?$CStringT@DV?$StrTraitMFC_DLL@DV?$ChTraitsCRT@D@ATL@@@@@ATL@@QAEAAV01@PBD@Z

; 269  : 		szFolderPath += pArg->szSTName;

  000b2	57		 push	 edi
  000b3	8d 4d f0	 lea	 ecx, DWORD PTR _szFolderPath$3[ebp]
  000b6	ff 15 00 00 00
	00		 call	 DWORD PTR __imp_??Y?$CStringT@DV?$StrTraitMFC_DLL@DV?$ChTraitsCRT@D@ATL@@@@@ATL@@QAEAAV01@ABV?$CSimpleStringT@D$00@1@@Z
  000bc	8d 4d ec	 lea	 ecx, DWORD PTR _dataItem$2[ebp+4]
  000bf	ff 15 00 00 00
	00		 call	 DWORD PTR __imp_??0?$CStringT@DV?$StrTraitMFC_DLL@DV?$ChTraitsCRT@D@ATL@@@@@ATL@@QAE@XZ

; 270  : 
; 271  : 		//    (".ST" )
; 272  : 		STLISTITEMDATA	dataItem;
; 273  : 		dataItem.szSTPath = szFolderPath;

  000c5	8d 45 f0	 lea	 eax, DWORD PTR _szFolderPath$3[ebp]
  000c8	c6 45 fc 01	 mov	 BYTE PTR __$EHRec$[ebp+8], 1
  000cc	50		 push	 eax
  000cd	8d 4d ec	 lea	 ecx, DWORD PTR _dataItem$2[ebp+4]
  000d0	ff 15 00 00 00
	00		 call	 DWORD PTR __imp_??4?$CStringT@DV?$StrTraitMFC_DLL@DV?$ChTraitsCRT@D@ATL@@@@@ATL@@QAEAAV01@ABV01@@Z

; 274  : 		dataItem.bUserFolder = pArg->nSTType;

  000d6	8b 4d 10	 mov	 ecx, DWORD PTR _lParam$[ebp]
; File C:\Program Files (x86)\Microsoft Visual Studio\2019\Community\VC\Tools\MSVC\14.29.30133\atlmfc\include\afxwin2.inl

; 213  : 	{ ASSERT(::IsWindow(m_hWnd)); return CWnd::FromHandle(::GetParent(m_hWnd)); }

  000d9	ff 73 20	 push	 DWORD PTR [ebx+32]
; File D:\git\src\IBK\IBK_DRFN\ProjSrc\SrcDrfn\Chart\HWSTRATEGYCONFIGUREWIZARD\OutLookBarDlg.cpp

; 274  : 		dataItem.bUserFolder = pArg->nSTType;

  000dc	8b 41 0c	 mov	 eax, DWORD PTR [ecx+12]
  000df	89 45 e8	 mov	 DWORD PTR _dataItem$2[ebp], eax
; File C:\Program Files (x86)\Microsoft Visual Studio\2019\Community\VC\Tools\MSVC\14.29.30133\atlmfc\include\afxwin2.inl

; 213  : 	{ ASSERT(::IsWindow(m_hWnd)); return CWnd::FromHandle(::GetParent(m_hWnd)); }

  000e2	ff 15 00 00 00
	00		 call	 DWORD PTR __imp__GetParent@4
  000e8	50		 push	 eax
  000e9	e8 00 00 00 00	 call	 ?FromHandle@CWnd@@SGPAV1@PAUHWND__@@@Z ; CWnd::FromHandle

; 32   : 	{ ASSERT(::IsWindow(m_hWnd)); return ::SendMessage(m_hWnd, message, wParam, lParam); }

  000ee	6a 00		 push	 0
  000f0	8d 4d e8	 lea	 ecx, DWORD PTR _dataItem$2[ebp]
  000f3	51		 push	 ecx
  000f4	68 03 04 00 00	 push	 1027			; 00000403H
  000f9	ff b0 90 04 00
	00		 push	 DWORD PTR [eax+1168]
  000ff	ff 15 00 00 00
	00		 call	 DWORD PTR __imp__SendMessageA@16
  00105	8d 4d ec	 lea	 ecx, DWORD PTR _dataItem$2[ebp+4]
  00108	ff 15 00 00 00
	00		 call	 DWORD PTR __imp_??1?$CStringT@DV?$StrTraitMFC_DLL@DV?$ChTraitsCRT@D@ATL@@@@@ATL@@QAE@XZ
; File D:\git\src\IBK\IBK_DRFN\ProjSrc\SrcDrfn\Chart\HWSTRATEGYCONFIGUREWIZARD\OutLookBarDlg.cpp

; 278  : 	}

  0010e	8d 4d f0	 lea	 ecx, DWORD PTR _szFolderPath$3[ebp]
  00111	c7 45 fc ff ff
	ff ff		 mov	 DWORD PTR __$EHRec$[ebp+8], -1
  00118	ff 15 00 00 00
	00		 call	 DWORD PTR __imp_??1?$CStringT@DV?$StrTraitMFC_DLL@DV?$ChTraitsCRT@D@ATL@@@@@ATL@@QAE@XZ
  0011e	8b 45 08	 mov	 eax, DWORD PTR _message$[ebp]
$LN2@WindowProc:

; 279  : 
; 280  : 	return CDialog::WindowProc(message, wParam, lParam);

  00121	ff 75 10	 push	 DWORD PTR _lParam$[ebp]
  00124	8b cb		 mov	 ecx, ebx
  00126	ff 75 0c	 push	 DWORD PTR _wParam$[ebp]
  00129	50		 push	 eax
  0012a	e8 00 00 00 00	 call	 ?WindowProc@CWnd@@MAEJIIJ@Z ; CWnd::WindowProc

; 281  : }

  0012f	8b 4d f4	 mov	 ecx, DWORD PTR __$EHRec$[ebp]
  00132	64 89 0d 00 00
	00 00		 mov	 DWORD PTR fs:0, ecx
  00139	59		 pop	 ecx
  0013a	5f		 pop	 edi
  0013b	5e		 pop	 esi
  0013c	5b		 pop	 ebx
  0013d	8b e5		 mov	 esp, ebp
  0013f	5d		 pop	 ebp
  00140	c2 0c 00	 ret	 12			; 0000000cH
_TEXT	ENDS
;	COMDAT text$x
text$x	SEGMENT
__unwindfunclet$?WindowProc@COutLookBarDlg@@MAEJIIJ@Z$0:
  00000	8d 4d f0	 lea	 ecx, DWORD PTR _szFolderPath$3[ebp]
  00003	ff 25 00 00 00
	00		 jmp	 DWORD PTR __imp_??1?$CStringT@DV?$StrTraitMFC_DLL@DV?$ChTraitsCRT@D@ATL@@@@@ATL@@QAE@XZ
__unwindfunclet$?WindowProc@COutLookBarDlg@@MAEJIIJ@Z$1:
  00009	8d 4d e8	 lea	 ecx, DWORD PTR _dataItem$2[ebp]
  0000c	e9 00 00 00 00	 jmp	 ??1STLISTITEMDATA@@QAE@XZ
  00011	cc		 int	 3
  00012	cc		 int	 3
  00013	cc		 int	 3
  00014	cc		 int	 3
  00015	cc		 int	 3
__ehhandler$?WindowProc@COutLookBarDlg@@MAEJIIJ@Z:
  00016	90		 npad	 1
  00017	90		 npad	 1
  00018	8b 54 24 08	 mov	 edx, DWORD PTR [esp+8]
  0001c	8d 42 0c	 lea	 eax, DWORD PTR [edx+12]
  0001f	8b 4a e4	 mov	 ecx, DWORD PTR [edx-28]
  00022	33 c8		 xor	 ecx, eax
  00024	e8 00 00 00 00	 call	 @__security_check_cookie@4
  00029	b8 00 00 00 00	 mov	 eax, OFFSET __ehfuncinfo$?WindowProc@COutLookBarDlg@@MAEJIIJ@Z
  0002e	e9 00 00 00 00	 jmp	 ___CxxFrameHandler3
text$x	ENDS
?WindowProc@COutLookBarDlg@@MAEJIIJ@Z ENDP		; COutLookBarDlg::WindowProc
; Function compile flags: /Ogtp
; File D:\git\src\IBK\IBK_DRFN\ProjSrc\SrcDrfn\Chart\HWSTRATEGYCONFIGUREWIZARD\OutLookBarDlg.cpp
; File C:\Program Files (x86)\Microsoft Visual Studio\2019\Community\VC\Tools\MSVC\14.29.30133\atlmfc\include\afxwin1.inl
; File D:\git\src\IBK\IBK_DRFN\ProjSrc\SrcDrfn\Chart\HWSTRATEGYCONFIGUREWIZARD\OutLookBarDlg.cpp
; File C:\Program Files (x86)\Microsoft Visual Studio\2019\Community\VC\Tools\MSVC\14.29.30133\atlmfc\include\afxwin1.inl
; File D:\git\src\IBK\IBK_DRFN\ProjSrc\SrcDrfn\Chart\HWSTRATEGYCONFIGUREWIZARD\OutLookBarDlg.cpp
;	COMDAT ?OnCtlColor@COutLookBarDlg@@IAEPAUHBRUSH__@@PAVCDC@@PAVCWnd@@I@Z
_TEXT	SEGMENT
_pDC$ = 8						; size = 4
_pWnd$ = 12						; size = 4
_nCtlColor$ = 16					; size = 4
?OnCtlColor@COutLookBarDlg@@IAEPAUHBRUSH__@@PAVCDC@@PAVCWnd@@I@Z PROC ; COutLookBarDlg::OnCtlColor, COMDAT
; _this$ = ecx

; 235  : {

  00000	55		 push	 ebp
  00001	8b ec		 mov	 ebp, esp
  00003	53		 push	 ebx

; 236  : 	HBRUSH hbr = CDialog::OnCtlColor(pDC, pWnd, nCtlColor);

  00004	8b 5d 08	 mov	 ebx, DWORD PTR _pDC$[ebp]
  00007	56		 push	 esi
  00008	8b 75 10	 mov	 esi, DWORD PTR _nCtlColor$[ebp]
  0000b	57		 push	 edi
  0000c	56		 push	 esi
  0000d	ff 75 0c	 push	 DWORD PTR _pWnd$[ebp]
  00010	8b f9		 mov	 edi, ecx
  00012	53		 push	 ebx
  00013	e8 00 00 00 00	 call	 ?OnCtlColor@CWnd@@IAEPAUHBRUSH__@@PAVCDC@@PAV1@I@Z ; CWnd::OnCtlColor

; 237  : 
; 238  : 	switch(nCtlColor) 

  00018	83 ee 01	 sub	 esi, 1
  0001b	74 26		 je	 SHORT $LN2@OnCtlColor
  0001d	83 ee 01	 sub	 esi, 1
  00020	74 21		 je	 SHORT $LN2@OnCtlColor

; 239  : 	{
; 240  : //	case CTLCOLOR_DLG:
; 241  : 	case CTLCOLOR_LISTBOX:
; 242  : 	case CTLCOLOR_EDIT:
; 243  : 		return hbr;
; 244  : 		break;
; 245  : 	default:
; 246  : 		pDC->SetBkColor(m_crBk);

  00022	8b 03		 mov	 eax, DWORD PTR [ebx]
  00024	8b cb		 mov	 ecx, ebx
  00026	ff b7 44 03 00
	00		 push	 DWORD PTR [edi+836]
  0002c	ff 50 34	 call	 DWORD PTR [eax+52]

; 247  : 		return m_brBkColor;		

  0002f	8d 87 48 03 00
	00		 lea	 eax, DWORD PTR [edi+840]
; File C:\Program Files (x86)\Microsoft Visual Studio\2019\Community\VC\Tools\MSVC\14.29.30133\atlmfc\include\afxwin1.inl

; 124  : 	{ return (HBRUSH)(this == NULL ? NULL : m_hObject); }

  00035	85 c0		 test	 eax, eax
  00037	75 07		 jne	 SHORT $LN10@OnCtlColor
; File D:\git\src\IBK\IBK_DRFN\ProjSrc\SrcDrfn\Chart\HWSTRATEGYCONFIGUREWIZARD\OutLookBarDlg.cpp

; 250  : }

  00039	5f		 pop	 edi
  0003a	5e		 pop	 esi
  0003b	5b		 pop	 ebx
  0003c	5d		 pop	 ebp
  0003d	c2 0c 00	 ret	 12			; 0000000cH
$LN10@OnCtlColor:
; File C:\Program Files (x86)\Microsoft Visual Studio\2019\Community\VC\Tools\MSVC\14.29.30133\atlmfc\include\afxwin1.inl

; 124  : 	{ return (HBRUSH)(this == NULL ? NULL : m_hObject); }

  00040	8b 40 04	 mov	 eax, DWORD PTR [eax+4]
$LN2@OnCtlColor:
  00043	5f		 pop	 edi
; File D:\git\src\IBK\IBK_DRFN\ProjSrc\SrcDrfn\Chart\HWSTRATEGYCONFIGUREWIZARD\OutLookBarDlg.cpp

; 250  : }

  00044	5e		 pop	 esi
  00045	5b		 pop	 ebx
  00046	5d		 pop	 ebp
  00047	c2 0c 00	 ret	 12			; 0000000cH
?OnCtlColor@COutLookBarDlg@@IAEPAUHBRUSH__@@PAVCDC@@PAVCWnd@@I@Z ENDP ; COutLookBarDlg::OnCtlColor
_TEXT	ENDS
; Function compile flags: /Ogtp
; File D:\git\src\IBK\IBK_DRFN\ProjSrc\SrcDrfn\Chart\HWSTRATEGYCONFIGUREWIZARD\OutLookBarDlg.cpp
;	COMDAT ?OnDestroy@COutLookBarDlg@@IAEXXZ
_TEXT	SEGMENT
?OnDestroy@COutLookBarDlg@@IAEXXZ PROC			; COutLookBarDlg::OnDestroy, COMDAT
; _this$ = ecx

; 198  : {

  00000	56		 push	 esi
  00001	8b f1		 mov	 esi, ecx

; 199  : 	CDialog::OnDestroy();

  00003	e8 00 00 00 00	 call	 ?OnDestroy@CWnd@@IAEXXZ	; CWnd::OnDestroy

; 200  : 	m_brBkColor.DeleteObject();

  00008	8d 8e 48 03 00
	00		 lea	 ecx, DWORD PTR [esi+840]
  0000e	e8 00 00 00 00	 call	 ?DeleteObject@CGdiObject@@QAEHXZ ; CGdiObject::DeleteObject

; 201  : //	m_ilSTIcon.DeleteImageList();
; 202  : //	m_ilW151H21.DeleteImageList();
; 203  : 	m_ImageListIcon.DeleteImageList();

  00013	8d 8e 30 03 00
	00		 lea	 ecx, DWORD PTR [esi+816]
  00019	e8 00 00 00 00	 call	 ?DeleteImageList@CImageList@@QAEHXZ ; CImageList::DeleteImageList

; 204  : 	m_ImageOutbarIcon.DeleteImageList();

  0001e	8d 8e 38 03 00
	00		 lea	 ecx, DWORD PTR [esi+824]
  00024	e8 00 00 00 00	 call	 ?DeleteImageList@CImageList@@QAEHXZ ; CImageList::DeleteImageList

; 205  : 
; 206  : 	m_pSTLoadMnger->UnloadST();

  00029	8b 86 40 03 00
	00		 mov	 eax, DWORD PTR [esi+832]
  0002f	50		 push	 eax
  00030	8b 08		 mov	 ecx, DWORD PTR [eax]
  00032	ff 51 08	 call	 DWORD PTR [ecx+8]

; 207  : 	if(m_pSTLoadMnger) ::SCW_DeleteInterfaceOfStrategy((LONG)m_pSTLoadMnger, 0);

  00035	8b 86 40 03 00
	00		 mov	 eax, DWORD PTR [esi+832]
  0003b	5e		 pop	 esi
  0003c	85 c0		 test	 eax, eax
  0003e	74 0b		 je	 SHORT $LN2@OnDestroy
  00040	6a 00		 push	 0
  00042	50		 push	 eax
  00043	e8 00 00 00 00	 call	 _SCW_DeleteInterfaceOfStrategy
  00048	83 c4 08	 add	 esp, 8
$LN2@OnDestroy:

; 208  : }

  0004b	c3		 ret	 0
?OnDestroy@COutLookBarDlg@@IAEXXZ ENDP			; COutLookBarDlg::OnDestroy
_TEXT	ENDS
; Function compile flags: /Ogtp
; File D:\git\src\IBK\IBK_DRFN\ProjSrc\SrcDrfn\Chart\HWSTRATEGYCONFIGUREWIZARD\OutLookBarDlg.cpp
; File C:\Program Files (x86)\Microsoft Visual Studio\2019\Community\VC\Tools\MSVC\14.29.30133\atlmfc\include\afxwin2.inl
; File D:\git\src\IBK\IBK_DRFN\ProjSrc\SrcDrfn\Chart\HWSTRATEGYCONFIGUREWIZARD\OutLookBarDlg.cpp
; File C:\Program Files (x86)\Microsoft Visual Studio\2019\Community\VC\Tools\MSVC\14.29.30133\atlmfc\include\afxwin2.inl
; File D:\git\src\IBK\IBK_DRFN\ProjSrc\SrcDrfn\Chart\HWSTRATEGYCONFIGUREWIZARD\OutLookBarDlg.cpp
; File C:\Program Files (x86)\Microsoft Visual Studio\2019\Community\VC\Tools\MSVC\14.29.30133\atlmfc\include\afxwin2.inl
; File C:\Program Files (x86)\Microsoft Visual Studio\2019\Community\VC\Tools\MSVC\14.29.30133\atlmfc\include\atltypes.h
; File C:\Program Files (x86)\Microsoft Visual Studio\2019\Community\VC\Tools\MSVC\14.29.30133\atlmfc\include\afxwin2.inl
; File D:\git\src\IBK\IBK_DRFN\ProjSrc\SrcDrfn\Chart\HWSTRATEGYCONFIGUREWIZARD\OutLookBarDlg.cpp
; File C:\Program Files (x86)\Microsoft Visual Studio\2019\Community\VC\Tools\MSVC\14.29.30133\atlmfc\include\afxwin2.inl
; File D:\git\src\IBK\IBK_DRFN\ProjSrc\SrcDrfn\Chart\HWSTRATEGYCONFIGUREWIZARD\OutLookBarDlg.cpp
; File C:\Program Files (x86)\Microsoft Visual Studio\2019\Community\VC\Tools\MSVC\14.29.30133\atlmfc\include\afxwin2.inl
; File D:\git\src\IBK\IBK_DRFN\ProjSrc\SrcDrfn\Chart\HWSTRATEGYCONFIGUREWIZARD\OutLookBarDlg.cpp
; File C:\Program Files (x86)\Microsoft Visual Studio\2019\Community\VC\Tools\MSVC\14.29.30133\atlmfc\include\afxwin2.inl
; File D:\git\src\IBK\IBK_DRFN\ProjSrc\SrcDrfn\Chart\HWSTRATEGYCONFIGUREWIZARD\OutLookBarDlg.cpp
; File C:\Program Files (x86)\Microsoft Visual Studio\2019\Community\VC\Tools\MSVC\14.29.30133\atlmfc\include\afxwin2.inl
; File D:\git\src\IBK\IBK_DRFN\ProjSrc\SrcDrfn\Chart\HWSTRATEGYCONFIGUREWIZARD\OutLookBarDlg.cpp
;	COMDAT ?OnSize@COutLookBarDlg@@IAEXIHH@Z
_TEXT	SEGMENT
$T1 = -20						; size = 16
__$ArrayPad$ = -4					; size = 4
_nType$ = 8						; size = 4
_cx$ = 12						; size = 4
_cy$ = 16						; size = 4
?OnSize@COutLookBarDlg@@IAEXIHH@Z PROC			; COutLookBarDlg::OnSize, COMDAT
; _this$ = ecx

; 184  : {

  00000	55		 push	 ebp
  00001	8b ec		 mov	 ebp, esp
  00003	83 ec 14	 sub	 esp, 20			; 00000014H
  00006	a1 00 00 00 00	 mov	 eax, DWORD PTR ___security_cookie
  0000b	33 c5		 xor	 eax, ebp
  0000d	89 45 fc	 mov	 DWORD PTR __$ArrayPad$[ebp], eax
  00010	56		 push	 esi
  00011	57		 push	 edi
  00012	8b f1		 mov	 esi, ecx
; File C:\Program Files (x86)\Microsoft Visual Studio\2019\Community\VC\Tools\MSVC\14.29.30133\atlmfc\include\afxwin2.inl

; 330  : 	{ Default(); }

  00014	e8 00 00 00 00	 call	 ?Default@CWnd@@IAEJXZ	; CWnd::Default
; File D:\git\src\IBK\IBK_DRFN\ProjSrc\SrcDrfn\Chart\HWSTRATEGYCONFIGUREWIZARD\OutLookBarDlg.cpp

; 192  : 	if(m_wndOutBar.GetSafeHwnd()) 

  00019	8d be c8 01 00
	00		 lea	 edi, DWORD PTR [esi+456]
; File C:\Program Files (x86)\Microsoft Visual Studio\2019\Community\VC\Tools\MSVC\14.29.30133\atlmfc\include\afxwin2.inl

; 25   : 	{ return this == NULL ? NULL : m_hWnd; }

  0001f	85 ff		 test	 edi, edi
  00021	74 49		 je	 SHORT $LN6@OnSize
; File D:\git\src\IBK\IBK_DRFN\ProjSrc\SrcDrfn\Chart\HWSTRATEGYCONFIGUREWIZARD\OutLookBarDlg.cpp

; 192  : 	if(m_wndOutBar.GetSafeHwnd()) 

  00023	83 7f 20 00	 cmp	 DWORD PTR [edi+32], 0
  00027	74 43		 je	 SHORT $LN6@OnSize
; File C:\Program Files (x86)\Microsoft Visual Studio\2019\Community\VC\Tools\MSVC\14.29.30133\atlmfc\include\afxwin2.inl

; 86   : 	{ ASSERT(::IsWindow(m_hWnd)); ::GetClientRect(m_hWnd, lpRect); }

  00029	8d 45 ec	 lea	 eax, DWORD PTR $T1[ebp]
  0002c	0f 57 c0	 xorps	 xmm0, xmm0
  0002f	50		 push	 eax
  00030	ff 76 20	 push	 DWORD PTR [esi+32]
; File C:\Program Files (x86)\Microsoft Visual Studio\2019\Community\VC\Tools\MSVC\14.29.30133\atlmfc\include\atltypes.h

; 528  : 	left = 0;

  00033	0f 11 45 ec	 movups	 XMMWORD PTR $T1[ebp], xmm0
; File C:\Program Files (x86)\Microsoft Visual Studio\2019\Community\VC\Tools\MSVC\14.29.30133\atlmfc\include\afxwin2.inl

; 86   : 	{ ASSERT(::IsWindow(m_hWnd)); ::GetClientRect(m_hWnd, lpRect); }

  00037	ff 15 00 00 00
	00		 call	 DWORD PTR __imp__GetClientRect@8
; File D:\git\src\IBK\IBK_DRFN\ProjSrc\SrcDrfn\Chart\HWSTRATEGYCONFIGUREWIZARD\OutLookBarDlg.cpp

; 225  : 			rect.bottom -= 6;

  0003d	8b 45 f8	 mov	 eax, DWORD PTR $T1[ebp+12]
; File C:\Program Files (x86)\Microsoft Visual Studio\2019\Community\VC\Tools\MSVC\14.29.30133\atlmfc\include\afxwin2.inl

; 73   : 	{ MoveWindow(lpRect->left, lpRect->top, lpRect->right - lpRect->left,

  00040	8b cf		 mov	 ecx, edi
; File D:\git\src\IBK\IBK_DRFN\ProjSrc\SrcDrfn\Chart\HWSTRATEGYCONFIGUREWIZARD\OutLookBarDlg.cpp

; 224  : 			rect.top += 32;

  00042	8b 55 f0	 mov	 edx, DWORD PTR $T1[ebp+4]

; 225  : 			rect.bottom -= 6;

  00045	83 e8 06	 sub	 eax, 6
  00048	8b 75 ec	 mov	 esi, DWORD PTR $T1[ebp]
  0004b	83 c2 20	 add	 edx, 32			; 00000020H
  0004e	89 45 f8	 mov	 DWORD PTR $T1[ebp+12], eax
  00051	83 c6 05	 add	 esi, 5
; File C:\Program Files (x86)\Microsoft Visual Studio\2019\Community\VC\Tools\MSVC\14.29.30133\atlmfc\include\afxwin2.inl

; 73   : 	{ MoveWindow(lpRect->left, lpRect->top, lpRect->right - lpRect->left,

  00054	6a 01		 push	 1
  00056	2b c2		 sub	 eax, edx
; File D:\git\src\IBK\IBK_DRFN\ProjSrc\SrcDrfn\Chart\HWSTRATEGYCONFIGUREWIZARD\OutLookBarDlg.cpp

; 223  : 			rect.left += 5;

  00058	89 75 ec	 mov	 DWORD PTR $T1[ebp], esi
; File C:\Program Files (x86)\Microsoft Visual Studio\2019\Community\VC\Tools\MSVC\14.29.30133\atlmfc\include\afxwin2.inl

; 73   : 	{ MoveWindow(lpRect->left, lpRect->top, lpRect->right - lpRect->left,

  0005b	50		 push	 eax
  0005c	8b 45 f4	 mov	 eax, DWORD PTR $T1[ebp+8]
  0005f	2b c6		 sub	 eax, esi
; File D:\git\src\IBK\IBK_DRFN\ProjSrc\SrcDrfn\Chart\HWSTRATEGYCONFIGUREWIZARD\OutLookBarDlg.cpp

; 224  : 			rect.top += 32;

  00061	89 55 f0	 mov	 DWORD PTR $T1[ebp+4], edx
; File C:\Program Files (x86)\Microsoft Visual Studio\2019\Community\VC\Tools\MSVC\14.29.30133\atlmfc\include\afxwin2.inl

; 73   : 	{ MoveWindow(lpRect->left, lpRect->top, lpRect->right - lpRect->left,

  00064	50		 push	 eax
  00065	52		 push	 edx
  00066	56		 push	 esi
  00067	e8 00 00 00 00	 call	 ?MoveWindow@CWnd@@QAEXHHHHH@Z ; CWnd::MoveWindow
$LN6@OnSize:
; File D:\git\src\IBK\IBK_DRFN\ProjSrc\SrcDrfn\Chart\HWSTRATEGYCONFIGUREWIZARD\OutLookBarDlg.cpp

; 188  : }

  0006c	8b 4d fc	 mov	 ecx, DWORD PTR __$ArrayPad$[ebp]
  0006f	5f		 pop	 edi
  00070	33 cd		 xor	 ecx, ebp
  00072	5e		 pop	 esi
  00073	e8 00 00 00 00	 call	 @__security_check_cookie@4
  00078	8b e5		 mov	 esp, ebp
  0007a	5d		 pop	 ebp
  0007b	c2 0c 00	 ret	 12			; 0000000cH
?OnSize@COutLookBarDlg@@IAEXIHH@Z ENDP			; COutLookBarDlg::OnSize
_TEXT	ENDS
; Function compile flags: /Ogtp
; File D:\git\src\IBK\IBK_DRFN\ProjSrc\SrcDrfn\Chart\HWSTRATEGYCONFIGUREWIZARD\OutLookBarDlg.cpp
; File C:\Program Files (x86)\Microsoft Visual Studio\2019\Community\VC\Tools\MSVC\14.29.30133\atlmfc\include\afxcoll.inl
; File D:\git\src\IBK\IBK_DRFN\ProjSrc\SrcDrfn\Chart\HWSTRATEGYCONFIGUREWIZARD\OutLookBarDlg.cpp
; File C:\Program Files (x86)\Microsoft Visual Studio\2019\Community\VC\Tools\MSVC\14.29.30133\atlmfc\include\afxcoll.inl
; File C:\Program Files (x86)\Microsoft Visual Studio\2019\Community\VC\Tools\MSVC\14.29.30133\atlmfc\include\afxwin1.inl
; File D:\git\src\IBK\IBK_DRFN\ProjSrc\SrcDrfn\Chart\HWSTRATEGYCONFIGUREWIZARD\OutLookBarDlg.cpp
; File C:\Program Files (x86)\Microsoft Visual Studio\2019\Community\VC\Tools\MSVC\14.29.30133\atlmfc\include\afxwin1.inl
; File D:\git\src\IBK\IBK_DRFN\ProjSrc\SrcDrfn\Chart\HWSTRATEGYCONFIGUREWIZARD\OutLookBarDlg.cpp
; File C:\Program Files (x86)\Microsoft Visual Studio\2019\Community\VC\Tools\MSVC\14.29.30133\atlmfc\include\afxwin1.inl
; File D:\git\src\IBK\IBK_DRFN\ProjSrc\SrcDrfn\Chart\HWSTRATEGYCONFIGUREWIZARD\OutLookBarDlg.cpp
; File C:\Program Files (x86)\Microsoft Visual Studio\2019\Community\VC\Tools\MSVC\14.29.30133\atlmfc\include\afxwin1.inl
; File D:\git\src\IBK\IBK_DRFN\ProjSrc\SrcDrfn\Chart\HWSTRATEGYCONFIGUREWIZARD\OutLookBarDlg.cpp
; File C:\Program Files (x86)\Microsoft Visual Studio\2019\Community\VC\Tools\MSVC\14.29.30133\atlmfc\include\afxwin1.inl
; File D:\git\src\IBK\IBK_DRFN\ProjSrc\SrcDrfn\Chart\HWSTRATEGYCONFIGUREWIZARD\OutLookBarDlg.cpp
; File C:\Program Files (x86)\Microsoft Visual Studio\2019\Community\VC\Tools\MSVC\14.29.30133\atlmfc\include\afxwin1.inl
; File C:\Program Files (x86)\Microsoft Visual Studio\2019\Community\VC\Tools\MSVC\14.29.30133\atlmfc\include\atltypes.h
; File D:\git\src\IBK\IBK_DRFN\ProjSrc\SrcDrfn\Chart\HWSTRATEGYCONFIGUREWIZARD\OutLookBarDlg.cpp
; File C:\Program Files (x86)\Microsoft Visual Studio\2019\Community\VC\Tools\MSVC\14.29.30133\atlmfc\include\atltypes.h
; File D:\git\src\IBK\IBK_DRFN\ProjSrc\SrcDrfn\Chart\HWSTRATEGYCONFIGUREWIZARD\OutLookBarDlg.cpp
; File C:\Program Files (x86)\Microsoft Visual Studio\2019\Community\VC\Tools\MSVC\14.29.30133\atlmfc\include\afxwin2.inl
; File D:\git\src\IBK\IBK_DRFN\ProjSrc\SrcDrfn\Chart\HWSTRATEGYCONFIGUREWIZARD\OutLookBarDlg.cpp
; File C:\Program Files (x86)\Microsoft Visual Studio\2019\Community\VC\Tools\MSVC\14.29.30133\atlmfc\include\afxwin2.inl
; File D:\git\src\IBK\IBK_DRFN\ProjSrc\SrcDrfn\Chart\HWSTRATEGYCONFIGUREWIZARD\OutLookBarDlg.cpp
; File C:\Program Files (x86)\Microsoft Visual Studio\2019\Community\VC\Tools\MSVC\14.29.30133\atlmfc\include\afxwin2.inl
; File D:\git\src\IBK\IBK_DRFN\ProjSrc\SrcDrfn\Chart\HWSTRATEGYCONFIGUREWIZARD\OutLookBarDlg.cpp
; File C:\Program Files (x86)\Microsoft Visual Studio\2019\Community\VC\Tools\MSVC\14.29.30133\atlmfc\include\afxwin2.inl
; File C:\Program Files (x86)\Microsoft Visual Studio\2019\Community\VC\Tools\MSVC\14.29.30133\atlmfc\include\atltypes.h
; File C:\Program Files (x86)\Microsoft Visual Studio\2019\Community\VC\Tools\MSVC\14.29.30133\atlmfc\include\afxwin2.inl
; File D:\git\src\IBK\IBK_DRFN\ProjSrc\SrcDrfn\Chart\HWSTRATEGYCONFIGUREWIZARD\OutLookBarDlg.cpp
; File C:\Program Files (x86)\Microsoft Visual Studio\2019\Community\VC\Tools\MSVC\14.29.30133\atlmfc\include\afxwin2.inl
; File D:\git\src\IBK\IBK_DRFN\ProjSrc\SrcDrfn\Chart\HWSTRATEGYCONFIGUREWIZARD\OutLookBarDlg.cpp
; File C:\Program Files (x86)\Microsoft Visual Studio\2019\Community\VC\Tools\MSVC\14.29.30133\atlmfc\include\afxwin2.inl
; File D:\git\src\IBK\IBK_DRFN\ProjSrc\SrcDrfn\Chart\HWSTRATEGYCONFIGUREWIZARD\OutLookBarDlg.cpp
; File C:\Program Files (x86)\Microsoft Visual Studio\2019\Community\VC\Tools\MSVC\14.29.30133\atlmfc\include\afxwin2.inl
; File D:\git\src\IBK\IBK_DRFN\ProjSrc\SrcDrfn\Chart\HWSTRATEGYCONFIGUREWIZARD\OutLookBarDlg.cpp
; File C:\Program Files (x86)\Microsoft Visual Studio\2019\Community\VC\Tools\MSVC\14.29.30133\atlmfc\include\afxwin2.inl
; File D:\git\src\IBK\IBK_DRFN\ProjSrc\SrcDrfn\Chart\HWSTRATEGYCONFIGUREWIZARD\OutLookBarDlg.cpp
; File C:\Program Files (x86)\Microsoft Visual Studio\2019\Community\VC\Tools\MSVC\14.29.30133\atlmfc\include\afxwin1.inl
; File D:\git\src\IBK\IBK_DRFN\ProjSrc\SrcDrfn\Chart\HWSTRATEGYCONFIGUREWIZARD\OutLookBarDlg.cpp
;	COMDAT ?OnInitDialog@COutLookBarDlg@@MAEHXZ
_TEXT	SEGMENT
_clrOLBkgrnd$ = -68					; size = 4
_clrOLOutLine$ = -64					; size = 4
_this$GSCopy$1$ = -60					; size = 4
_szSTData_STPath$ = -56					; size = 4
_szSTUser_STPath$ = -52					; size = 4
_szImageChartDir$ = -48					; size = 4
_bitmap$ = -44						; size = 8
_strImageDir$ = -36					; size = 4
$T2 = -32						; size = 16
$T3 = -32						; size = 16
__$ArrayPad$ = -16					; size = 4
__$EHRec$ = -12						; size = 12
?OnInitDialog@COutLookBarDlg@@MAEHXZ PROC		; COutLookBarDlg::OnInitDialog, COMDAT
; _this$ = ecx

; 62   : {

  00000	55		 push	 ebp
  00001	8b ec		 mov	 ebp, esp
  00003	6a ff		 push	 -1
  00005	68 00 00 00 00	 push	 __ehhandler$?OnInitDialog@COutLookBarDlg@@MAEHXZ
  0000a	64 a1 00 00 00
	00		 mov	 eax, DWORD PTR fs:0
  00010	50		 push	 eax
  00011	83 ec 38	 sub	 esp, 56			; 00000038H
  00014	a1 00 00 00 00	 mov	 eax, DWORD PTR ___security_cookie
  00019	33 c5		 xor	 eax, ebp
  0001b	89 45 f0	 mov	 DWORD PTR __$ArrayPad$[ebp], eax
  0001e	53		 push	 ebx
  0001f	56		 push	 esi
  00020	57		 push	 edi
  00021	50		 push	 eax
  00022	8d 45 f4	 lea	 eax, DWORD PTR __$EHRec$[ebp]
  00025	64 a3 00 00 00
	00		 mov	 DWORD PTR fs:0, eax
  0002b	8b f1		 mov	 esi, ecx
  0002d	89 75 c4	 mov	 DWORD PTR _this$GSCopy$1$[ebp], esi

; 63   : 	CDialog::OnInitDialog();

  00030	e8 00 00 00 00	 call	 ?OnInitDialog@CDialog@@UAEHXZ ; CDialog::OnInitDialog

; 64   : 
; 65   : 	m_pSTLoadMnger = (CSTLoadManager*)::SCW_GetInterfaceOfStrategy(0);

  00035	6a 00		 push	 0
  00037	e8 00 00 00 00	 call	 _SCW_GetInterfaceOfStrategy
  0003c	89 86 40 03 00
	00		 mov	 DWORD PTR [esi+832], eax

; 66   : 	CString szSTData_STPath = ((CDlgStrategyConfigure*)m_pParentWnd)->m_strDataDir + "\\STDATA\\ST";

  00042	8b 86 94 00 00
	00		 mov	 eax, DWORD PTR [esi+148]
  00048	05 b0 00 00 00	 add	 eax, 176		; 000000b0H
  0004d	68 00 00 00 00	 push	 OFFSET ??_C@_0L@BHJABNKA@?2STDATA?2ST@
  00052	50		 push	 eax
  00053	8d 45 c8	 lea	 eax, DWORD PTR _szSTData_STPath$[ebp]
  00056	50		 push	 eax
  00057	e8 00 00 00 00	 call	 ??HATL@@YA?AV?$CStringT@DV?$StrTraitMFC_DLL@DV?$ChTraitsCRT@D@ATL@@@@@0@ABV10@PBD@Z ; ATL::operator+

; 67   : 	CString szSTUser_STPath = ((CDlgStrategyConfigure*)m_pParentWnd)->m_strUserDir + "\\STDATA\\ST";

  0005c	8b 86 94 00 00
	00		 mov	 eax, DWORD PTR [esi+148]
  00062	05 b8 00 00 00	 add	 eax, 184		; 000000b8H
  00067	c7 45 fc 00 00
	00 00		 mov	 DWORD PTR __$EHRec$[ebp+8], 0
  0006e	68 00 00 00 00	 push	 OFFSET ??_C@_0L@BHJABNKA@?2STDATA?2ST@
  00073	50		 push	 eax
  00074	8d 45 cc	 lea	 eax, DWORD PTR _szSTUser_STPath$[ebp]
  00077	50		 push	 eax
  00078	e8 00 00 00 00	 call	 ??HATL@@YA?AV?$CStringT@DV?$StrTraitMFC_DLL@DV?$ChTraitsCRT@D@ATL@@@@@0@ABV10@PBD@Z ; ATL::operator+

; 70   : 	CString szImageChartDir = ((CDlgStrategyConfigure*)m_pParentWnd)->m_strDataDir + "\\Image\\drchart";

  0007d	8b 86 94 00 00
	00		 mov	 eax, DWORD PTR [esi+148]
  00083	05 b0 00 00 00	 add	 eax, 176		; 000000b0H
  00088	c6 45 fc 01	 mov	 BYTE PTR __$EHRec$[ebp+8], 1
  0008c	68 00 00 00 00	 push	 OFFSET ??_C@_0P@LLAIGDEE@?2Image?2drchart@
  00091	50		 push	 eax
  00092	8d 45 d0	 lea	 eax, DWORD PTR _szImageChartDir$[ebp]
  00095	50		 push	 eax
  00096	e8 00 00 00 00	 call	 ??HATL@@YA?AV?$CStringT@DV?$StrTraitMFC_DLL@DV?$ChTraitsCRT@D@ATL@@@@@0@ABV10@PBD@Z ; ATL::operator+
  0009b	83 c4 28	 add	 esp, 40			; 00000028H
; File C:\Program Files (x86)\Microsoft Visual Studio\2019\Community\VC\Tools\MSVC\14.29.30133\atlmfc\include\afxcoll.inl

; 321  : 		SetAtGrow(nIndex, newElement);

  0009e	8d 45 c8	 lea	 eax, DWORD PTR _szSTData_STPath$[ebp]
; File D:\git\src\IBK\IBK_DRFN\ProjSrc\SrcDrfn\Chart\HWSTRATEGYCONFIGUREWIZARD\OutLookBarDlg.cpp

; 70   : 	CString szImageChartDir = ((CDlgStrategyConfigure*)m_pParentWnd)->m_strDataDir + "\\Image\\drchart";

  000a1	c6 45 fc 02	 mov	 BYTE PTR __$EHRec$[ebp+8], 2
; File C:\Program Files (x86)\Microsoft Visual Studio\2019\Community\VC\Tools\MSVC\14.29.30133\atlmfc\include\afxcoll.inl

; 321  : 		SetAtGrow(nIndex, newElement);

  000a5	50		 push	 eax
  000a6	ff b6 58 03 00
	00		 push	 DWORD PTR [esi+856]
  000ac	8d 8e 50 03 00
	00		 lea	 ecx, DWORD PTR [esi+848]
  000b2	e8 00 00 00 00	 call	 ?SetAtGrow@CStringArray@@QAEXHABV?$CStringT@DV?$StrTraitMFC_DLL@DV?$ChTraitsCRT@D@ATL@@@@@ATL@@@Z ; CStringArray::SetAtGrow
  000b7	8d 45 cc	 lea	 eax, DWORD PTR _szSTUser_STPath$[ebp]
  000ba	50		 push	 eax
  000bb	ff b6 58 03 00
	00		 push	 DWORD PTR [esi+856]
  000c1	8d 8e 50 03 00
	00		 lea	 ecx, DWORD PTR [esi+848]
  000c7	e8 00 00 00 00	 call	 ?SetAtGrow@CStringArray@@QAEXHABV?$CStringT@DV?$StrTraitMFC_DLL@DV?$ChTraitsCRT@D@ATL@@@@@ATL@@@Z ; CStringArray::SetAtGrow
; File C:\Program Files (x86)\Microsoft Visual Studio\2019\Community\VC\Tools\MSVC\14.29.30133\atlmfc\include\afxwin1.inl

; 70   : 	{ m_hObject = NULL; }

  000cc	c7 45 d8 00 00
	00 00		 mov	 DWORD PTR _bitmap$[ebp+4], 0

; 177  : 	{ }

  000d3	c7 45 d4 00 00
	00 00		 mov	 DWORD PTR _bitmap$[ebp], OFFSET ??_7CBitmap@@6B@
; File D:\git\src\IBK\IBK_DRFN\ProjSrc\SrcDrfn\Chart\HWSTRATEGYCONFIGUREWIZARD\OutLookBarDlg.cpp

; 102  : 	CString strImageDir;

  000da	8d 4d dc	 lea	 ecx, DWORD PTR _strImageDir$[ebp]
  000dd	ff 15 00 00 00
	00		 call	 DWORD PTR __imp_??0?$CStringT@DV?$StrTraitMFC_DLL@DV?$ChTraitsCRT@D@ATL@@@@@ATL@@QAE@XZ

; 103  : 	strImageDir.Format("%s\\folder.bmp", szImageChartDir);

  000e3	ff 75 d0	 push	 DWORD PTR _szImageChartDir$[ebp]
  000e6	8b 1d 00 00 00
	00		 mov	 ebx, DWORD PTR __imp_?Format@?$CStringT@DV?$StrTraitMFC_DLL@DV?$ChTraitsCRT@D@ATL@@@@@ATL@@QAAXPBDZZ
  000ec	8d 45 dc	 lea	 eax, DWORD PTR _strImageDir$[ebp]
  000ef	68 00 00 00 00	 push	 OFFSET ??_C@_0O@DADNAINN@?$CFs?2folder?4bmp@
  000f4	50		 push	 eax
  000f5	c6 45 fc 04	 mov	 BYTE PTR __$EHRec$[ebp+8], 4
  000f9	ff d3		 call	 ebx

; 104  : 	bitmap.Attach((HBITMAP)LoadImage(NULL, (LPSTR)(LPCTSTR)strImageDir, IMAGE_BITMAP, 0, 0, LR_LOADFROMFILE|LR_CREATEDIBSECTION|LR_DEFAULTSIZE));

  000fb	8b 3d 00 00 00
	00		 mov	 edi, DWORD PTR __imp__LoadImageA@24
  00101	83 c4 0c	 add	 esp, 12			; 0000000cH
  00104	68 50 20 00 00	 push	 8272			; 00002050H
  00109	6a 00		 push	 0
  0010b	6a 00		 push	 0
  0010d	6a 00		 push	 0
  0010f	ff 75 dc	 push	 DWORD PTR _strImageDir$[ebp]
  00112	6a 00		 push	 0
  00114	ff d7		 call	 edi
  00116	50		 push	 eax
  00117	8d 4d d4	 lea	 ecx, DWORD PTR _bitmap$[ebp]
  0011a	e8 00 00 00 00	 call	 ?Attach@CGdiObject@@QAEHPAX@Z ; CGdiObject::Attach

; 105  : 	m_ImageListIcon.Create(18, 18, ILC_MASK | ILC_COLORDDB, 1, 1);

  0011f	6a 01		 push	 1
  00121	6a 01		 push	 1
  00123	68 ff 00 00 00	 push	 255			; 000000ffH
  00128	6a 12		 push	 18			; 00000012H
  0012a	8d 8e 30 03 00
	00		 lea	 ecx, DWORD PTR [esi+816]
  00130	6a 12		 push	 18			; 00000012H
  00132	e8 00 00 00 00	 call	 ?Create@CImageList@@QAEHHHIHH@Z ; CImageList::Create
; File C:\Program Files (x86)\Microsoft Visual Studio\2019\Community\VC\Tools\MSVC\14.29.30133\atlmfc\include\afxwin1.inl

; 859  : 	{ ASSERT(m_hImageList != NULL); return ImageList_AddMasked(m_hImageList, (HBITMAP)pbmImage->GetSafeHandle(), crMask); }

  00137	68 ff 00 ff 00	 push	 16711935		; 00ff00ffH
  0013c	ff 75 d8	 push	 DWORD PTR _bitmap$[ebp+4]
  0013f	ff b6 34 03 00
	00		 push	 DWORD PTR [esi+820]
  00145	8b 35 00 00 00
	00		 mov	 esi, DWORD PTR __imp__ImageList_AddMasked@12
  0014b	ff d6		 call	 esi
; File D:\git\src\IBK\IBK_DRFN\ProjSrc\SrcDrfn\Chart\HWSTRATEGYCONFIGUREWIZARD\OutLookBarDlg.cpp

; 107  : 	bitmap.DeleteObject();

  0014d	8d 4d d4	 lea	 ecx, DWORD PTR _bitmap$[ebp]
  00150	e8 00 00 00 00	 call	 ?DeleteObject@CGdiObject@@QAEHXZ ; CGdiObject::DeleteObject

; 108  : 
; 109  : 	//20061213   
; 110  : 	//LeftBar   
; 111  : //@ 
; 112  : 	strImageDir = "";

  00155	68 00 00 00 00	 push	 OFFSET ??_C@_00CNPNBAHC@@
  0015a	8d 4d dc	 lea	 ecx, DWORD PTR _strImageDir$[ebp]
  0015d	ff 15 00 00 00
	00		 call	 DWORD PTR __imp_??4?$CStringT@DV?$StrTraitMFC_DLL@DV?$ChTraitsCRT@D@ATL@@@@@ATL@@QAEAAV01@PBD@Z

; 113  : 	strImageDir.Format("%s\\outbar_icon.bmp", szImageChartDir);

  00163	ff 75 d0	 push	 DWORD PTR _szImageChartDir$[ebp]
  00166	8d 45 dc	 lea	 eax, DWORD PTR _strImageDir$[ebp]
  00169	68 00 00 00 00	 push	 OFFSET ??_C@_0BD@OCOIJGGE@?$CFs?2outbar_icon?4bmp@
  0016e	50		 push	 eax
  0016f	ff d3		 call	 ebx
  00171	83 c4 0c	 add	 esp, 12			; 0000000cH

; 114  : 	bitmap.Attach((HBITMAP)LoadImage(NULL, (LPSTR)(LPCTSTR)strImageDir, IMAGE_BITMAP, 0, 0, LR_LOADFROMFILE|LR_CREATEDIBSECTION|LR_DEFAULTSIZE));

  00174	68 50 20 00 00	 push	 8272			; 00002050H
  00179	6a 00		 push	 0
  0017b	6a 00		 push	 0
  0017d	6a 00		 push	 0
  0017f	ff 75 dc	 push	 DWORD PTR _strImageDir$[ebp]
  00182	6a 00		 push	 0
  00184	ff d7		 call	 edi
  00186	50		 push	 eax
  00187	8d 4d d4	 lea	 ecx, DWORD PTR _bitmap$[ebp]
  0018a	e8 00 00 00 00	 call	 ?Attach@CGdiObject@@QAEHPAX@Z ; CGdiObject::Attach

; 115  : 	m_ImageOutbarIcon.Create(20, 20, ILC_MASK | ILC_COLORDDB, 1, 1);

  0018f	8b 5d c4	 mov	 ebx, DWORD PTR _this$GSCopy$1$[ebp]
  00192	6a 01		 push	 1
  00194	6a 01		 push	 1
  00196	68 ff 00 00 00	 push	 255			; 000000ffH
  0019b	6a 14		 push	 20			; 00000014H
  0019d	8d bb 38 03 00
	00		 lea	 edi, DWORD PTR [ebx+824]
  001a3	6a 14		 push	 20			; 00000014H
  001a5	8b cf		 mov	 ecx, edi
  001a7	e8 00 00 00 00	 call	 ?Create@CImageList@@QAEHHHIHH@Z ; CImageList::Create
; File C:\Program Files (x86)\Microsoft Visual Studio\2019\Community\VC\Tools\MSVC\14.29.30133\atlmfc\include\afxwin1.inl

; 859  : 	{ ASSERT(m_hImageList != NULL); return ImageList_AddMasked(m_hImageList, (HBITMAP)pbmImage->GetSafeHandle(), crMask); }

  001ac	68 ff 00 ff 00	 push	 16711935		; 00ff00ffH
  001b1	ff 75 d8	 push	 DWORD PTR _bitmap$[ebp+4]
  001b4	ff b3 3c 03 00
	00		 push	 DWORD PTR [ebx+828]
  001ba	ff d6		 call	 esi
; File D:\git\src\IBK\IBK_DRFN\ProjSrc\SrcDrfn\Chart\HWSTRATEGYCONFIGUREWIZARD\OutLookBarDlg.cpp

; 117  : 	bitmap.DeleteObject();

  001bc	8d 4d d4	 lea	 ecx, DWORD PTR _bitmap$[ebp]
  001bf	e8 00 00 00 00	 call	 ?DeleteObject@CGdiObject@@QAEHXZ ; CGdiObject::DeleteObject
; File C:\Program Files (x86)\Microsoft Visual Studio\2019\Community\VC\Tools\MSVC\14.29.30133\atlmfc\include\afxwin1.inl

; 132  : 	{ return Attach(::CreateSolidBrush(crColor)); }

  001c4	68 f7 f8 fc 00	 push	 16578807		; 00fcf8f7H
; File D:\git\src\IBK\IBK_DRFN\ProjSrc\SrcDrfn\Chart\HWSTRATEGYCONFIGUREWIZARD\OutLookBarDlg.cpp

; 124  : 		m_crBk = DEFAULT_BKGRND_COLOR;

  001c9	c7 83 44 03 00
	00 f7 f8 fc 00	 mov	 DWORD PTR [ebx+836], 16578807 ; 00fcf8f7H
; File C:\Program Files (x86)\Microsoft Visual Studio\2019\Community\VC\Tools\MSVC\14.29.30133\atlmfc\include\afxwin1.inl

; 132  : 	{ return Attach(::CreateSolidBrush(crColor)); }

  001d3	ff 15 00 00 00
	00		 call	 DWORD PTR __imp__CreateSolidBrush@4
  001d9	50		 push	 eax
; File D:\git\src\IBK\IBK_DRFN\ProjSrc\SrcDrfn\Chart\HWSTRATEGYCONFIGUREWIZARD\OutLookBarDlg.cpp

; 126  : 	m_brBkColor.CreateSolidBrush(m_crBk);

  001da	8d 8b 48 03 00
	00		 lea	 ecx, DWORD PTR [ebx+840]
; File C:\Program Files (x86)\Microsoft Visual Studio\2019\Community\VC\Tools\MSVC\14.29.30133\atlmfc\include\afxwin1.inl

; 132  : 	{ return Attach(::CreateSolidBrush(crColor)); }

  001e0	e8 00 00 00 00	 call	 ?Attach@CGdiObject@@QAEHPAX@Z ; CGdiObject::Attach
; File C:\Program Files (x86)\Microsoft Visual Studio\2019\Community\VC\Tools\MSVC\14.29.30133\atlmfc\include\atltypes.h

; 540  : 	left = l;

  001e5	0f 28 05 00 00
	00 00		 movaps	 xmm0, XMMWORD PTR __xmm@00000064000000640000000000000000
; File D:\git\src\IBK\IBK_DRFN\ProjSrc\SrcDrfn\Chart\HWSTRATEGYCONFIGUREWIZARD\OutLookBarDlg.cpp

; 132  : 	m_wndOutBar.Create(WS_CHILD|WS_VISIBLE, CRect(0,0,100,100), this, IDC_OUTLOOKBAR, dwf);

  001ec	8d 45 e0	 lea	 eax, DWORD PTR $T3[ebp]
  001ef	68 fc 01 00 00	 push	 508			; 000001fcH
  001f4	68 e8 03 00 00	 push	 1000			; 000003e8H
  001f9	53		 push	 ebx
  001fa	50		 push	 eax
  001fb	8d b3 c8 01 00
	00		 lea	 esi, DWORD PTR [ebx+456]
  00201	68 00 00 00 50	 push	 1342177280		; 50000000H
  00206	8b ce		 mov	 ecx, esi
; File C:\Program Files (x86)\Microsoft Visual Studio\2019\Community\VC\Tools\MSVC\14.29.30133\atlmfc\include\atltypes.h

; 540  : 	left = l;

  00208	0f 11 45 e0	 movups	 XMMWORD PTR $T3[ebp], xmm0
; File D:\git\src\IBK\IBK_DRFN\ProjSrc\SrcDrfn\Chart\HWSTRATEGYCONFIGUREWIZARD\OutLookBarDlg.cpp

; 132  : 	m_wndOutBar.Create(WS_CHILD|WS_VISIBLE, CRect(0,0,100,100), this, IDC_OUTLOOKBAR, dwf);

  0020c	e8 00 00 00 00	 call	 ?Create@CSTGfxOutBarCtrl@@QAEHKABUtagRECT@@PAVCWnd@@IK@Z ; CSTGfxOutBarCtrl::Create
; File C:\Program Files (x86)\Microsoft Visual Studio\2019\Community\VC\Tools\MSVC\14.29.30133\atlmfc\include\afxwin2.inl

; 29   : 	{ m_hWndOwner = pOwnerWnd != NULL ? pOwnerWnd->m_hWnd : NULL; }

  00211	8b 43 20	 mov	 eax, DWORD PTR [ebx+32]
; File D:\git\src\IBK\IBK_DRFN\ProjSrc\SrcDrfn\Chart\HWSTRATEGYCONFIGUREWIZARD\OutLookBarDlg.cpp

; 137  : 	m_wndOutBar.SetImageList(&m_ImageListIcon, fSmallIcon);

  00214	8b ce		 mov	 ecx, esi
; File C:\Program Files (x86)\Microsoft Visual Studio\2019\Community\VC\Tools\MSVC\14.29.30133\atlmfc\include\afxwin2.inl

; 29   : 	{ m_hWndOwner = pOwnerWnd != NULL ? pOwnerWnd->m_hWnd : NULL; }

  00216	89 83 24 02 00
	00		 mov	 DWORD PTR [ebx+548], eax
; File D:\git\src\IBK\IBK_DRFN\ProjSrc\SrcDrfn\Chart\HWSTRATEGYCONFIGUREWIZARD\OutLookBarDlg.cpp

; 137  : 	m_wndOutBar.SetImageList(&m_ImageListIcon, fSmallIcon);

  0021c	8d 83 30 03 00
	00		 lea	 eax, DWORD PTR [ebx+816]
  00222	6a 01		 push	 1
  00224	50		 push	 eax
  00225	c7 83 b4 02 00
	00 14 00 00 00	 mov	 DWORD PTR [ebx+692], 20	; 00000014H
  0022f	e8 00 00 00 00	 call	 ?SetImageList@CSTGfxOutBarCtrl@@QAEPAVCImageList@@PAV2@H@Z ; CSTGfxOutBarCtrl::SetImageList

; 138  : 	m_wndOutBar.SetFolderImageList(&m_ImageOutbarIcon, 0, 2, 3);

  00234	6a 03		 push	 3
  00236	6a 02		 push	 2
  00238	6a 00		 push	 0
  0023a	57		 push	 edi
  0023b	8b ce		 mov	 ecx, esi
  0023d	e8 00 00 00 00	 call	 ?SetFolderImageList@CSTGfxOutBarCtrl@@QAEXPAVCImageList@@HHH@Z ; CSTGfxOutBarCtrl::SetFolderImageList
; File C:\Program Files (x86)\Microsoft Visual Studio\2019\Community\VC\Tools\MSVC\14.29.30133\atlmfc\include\afxwin2.inl

; 213  : 	{ ASSERT(::IsWindow(m_hWnd)); return CWnd::FromHandle(::GetParent(m_hWnd)); }

  00242	ff 73 20	 push	 DWORD PTR [ebx+32]
  00245	ff 15 00 00 00
	00		 call	 DWORD PTR __imp__GetParent@4
  0024b	50		 push	 eax
  0024c	e8 00 00 00 00	 call	 ?FromHandle@CWnd@@SGPAV1@PAUHWND__@@@Z ; CWnd::FromHandle
; File D:\git\src\IBK\IBK_DRFN\ProjSrc\SrcDrfn\Chart\HWSTRATEGYCONFIGUREWIZARD\OutLookBarDlg.cpp

; 142  : 	if(((CDlgStrategyConfigure*)GetParent())->GetOutBarColor(clrOLBkgrnd, clrOLOutLine))

  00251	8d 4d c0	 lea	 ecx, DWORD PTR _clrOLOutLine$[ebp]
  00254	51		 push	 ecx
  00255	8d 4d bc	 lea	 ecx, DWORD PTR _clrOLBkgrnd$[ebp]
  00258	51		 push	 ecx
  00259	8b c8		 mov	 ecx, eax
  0025b	e8 00 00 00 00	 call	 ?GetOutBarColor@CDlgStrategyConfigure@@QAEJAAK0@Z ; CDlgStrategyConfigure::GetOutBarColor
  00260	85 c0		 test	 eax, eax
  00262	74 18		 je	 SHORT $LN2@OnInitDial

; 143  : 	{
; 144  : 		m_wndOutBar.cr3dFace = clrOLOutLine;

  00264	8b 45 c0	 mov	 eax, DWORD PTR _clrOLOutLine$[ebp]
  00267	89 83 54 02 00
	00		 mov	 DWORD PTR [ebx+596], eax

; 145  : 		m_wndOutBar.cr3dUnFace = clrOLOutLine;

  0026d	89 83 58 02 00
	00		 mov	 DWORD PTR [ebx+600], eax

; 146  : 		m_wndOutBar.crBackGroundColor1 = clrOLBkgrnd;

  00273	8b 45 bc	 mov	 eax, DWORD PTR _clrOLBkgrnd$[ebp]
  00276	89 83 4c 02 00
	00		 mov	 DWORD PTR [ebx+588], eax
$LN2@OnInitDial:

; 159  : 	m_pSTLoadMnger->Init(TRUE, "*.ST", &m_ImageListIcon);

  0027c	8d 83 30 03 00
	00		 lea	 eax, DWORD PTR [ebx+816]
  00282	50		 push	 eax
  00283	51		 push	 ecx
  00284	8b cc		 mov	 ecx, esp
  00286	68 00 00 00 00	 push	 OFFSET ??_C@_04ECGMOPPD@?$CK?4ST@
  0028b	ff 15 00 00 00
	00		 call	 DWORD PTR __imp_??0?$CStringT@DV?$StrTraitMFC_DLL@DV?$ChTraitsCRT@D@ATL@@@@@ATL@@QAE@PBD@Z
  00291	8b 83 40 03 00
	00		 mov	 eax, DWORD PTR [ebx+832]
  00297	6a 01		 push	 1
  00299	50		 push	 eax
  0029a	8b 08		 mov	 ecx, DWORD PTR [eax]
  0029c	ff 11		 call	 DWORD PTR [ecx]

; 160  : 	m_pSTLoadMnger->SetUseBoldFont(FALSE);

  0029e	8b 83 40 03 00
	00		 mov	 eax, DWORD PTR [ebx+832]
  002a4	6a 00		 push	 0
  002a6	50		 push	 eax
  002a7	8b 08		 mov	 ecx, DWORD PTR [eax]
  002a9	ff 51 20	 call	 DWORD PTR [ecx+32]

; 161  : 	m_pSTLoadMnger->UnloadST();

  002ac	8b 83 40 03 00
	00		 mov	 eax, DWORD PTR [ebx+832]
  002b2	50		 push	 eax
  002b3	8b 08		 mov	 ecx, DWORD PTR [eax]
  002b5	ff 51 08	 call	 DWORD PTR [ecx+8]

; 162  : 
; 163  : 	int p_LoadOption = 1;
; 164  : 	m_pSTLoadMnger->LoadST2(&m_wndOutBar, &m_arSTPath, 0, 0, p_LoadOption);

  002b8	8b 83 40 03 00
	00		 mov	 eax, DWORD PTR [ebx+832]
  002be	8d 93 50 03 00
	00		 lea	 edx, DWORD PTR [ebx+848]
  002c4	6a 01		 push	 1
  002c6	6a 00		 push	 0
  002c8	6a 00		 push	 0
  002ca	8b 08		 mov	 ecx, DWORD PTR [eax]
  002cc	52		 push	 edx
  002cd	56		 push	 esi
  002ce	50		 push	 eax
  002cf	ff 51 24	 call	 DWORD PTR [ecx+36]
; File C:\Program Files (x86)\Microsoft Visual Studio\2019\Community\VC\Tools\MSVC\14.29.30133\atlmfc\include\afxwin2.inl

; 86   : 	{ ASSERT(::IsWindow(m_hWnd)); ::GetClientRect(m_hWnd, lpRect); }

  002d2	8d 45 e0	 lea	 eax, DWORD PTR $T2[ebp]
  002d5	0f 57 c0	 xorps	 xmm0, xmm0
  002d8	50		 push	 eax
  002d9	ff 73 20	 push	 DWORD PTR [ebx+32]
; File C:\Program Files (x86)\Microsoft Visual Studio\2019\Community\VC\Tools\MSVC\14.29.30133\atlmfc\include\atltypes.h

; 528  : 	left = 0;

  002dc	0f 11 45 e0	 movups	 XMMWORD PTR $T2[ebp], xmm0
; File C:\Program Files (x86)\Microsoft Visual Studio\2019\Community\VC\Tools\MSVC\14.29.30133\atlmfc\include\afxwin2.inl

; 86   : 	{ ASSERT(::IsWindow(m_hWnd)); ::GetClientRect(m_hWnd, lpRect); }

  002e0	ff 15 00 00 00
	00		 call	 DWORD PTR __imp__GetClientRect@8
; File D:\git\src\IBK\IBK_DRFN\ProjSrc\SrcDrfn\Chart\HWSTRATEGYCONFIGUREWIZARD\OutLookBarDlg.cpp

; 225  : 			rect.bottom -= 6;

  002e6	8b 45 ec	 mov	 eax, DWORD PTR $T2[ebp+12]
; File C:\Program Files (x86)\Microsoft Visual Studio\2019\Community\VC\Tools\MSVC\14.29.30133\atlmfc\include\afxwin2.inl

; 73   : 	{ MoveWindow(lpRect->left, lpRect->top, lpRect->right - lpRect->left,

  002e9	8d 8b c8 01 00
	00		 lea	 ecx, DWORD PTR [ebx+456]
; File D:\git\src\IBK\IBK_DRFN\ProjSrc\SrcDrfn\Chart\HWSTRATEGYCONFIGUREWIZARD\OutLookBarDlg.cpp

; 224  : 			rect.top += 32;

  002ef	8b 55 e4	 mov	 edx, DWORD PTR $T2[ebp+4]

; 225  : 			rect.bottom -= 6;

  002f2	83 e8 06	 sub	 eax, 6
  002f5	8b 75 e0	 mov	 esi, DWORD PTR $T2[ebp]
  002f8	83 c2 20	 add	 edx, 32			; 00000020H
  002fb	89 45 ec	 mov	 DWORD PTR $T2[ebp+12], eax
  002fe	83 c6 05	 add	 esi, 5
; File C:\Program Files (x86)\Microsoft Visual Studio\2019\Community\VC\Tools\MSVC\14.29.30133\atlmfc\include\afxwin2.inl

; 73   : 	{ MoveWindow(lpRect->left, lpRect->top, lpRect->right - lpRect->left,

  00301	6a 01		 push	 1
  00303	2b c2		 sub	 eax, edx
; File D:\git\src\IBK\IBK_DRFN\ProjSrc\SrcDrfn\Chart\HWSTRATEGYCONFIGUREWIZARD\OutLookBarDlg.cpp

; 223  : 			rect.left += 5;

  00305	89 75 e0	 mov	 DWORD PTR $T2[ebp], esi
; File C:\Program Files (x86)\Microsoft Visual Studio\2019\Community\VC\Tools\MSVC\14.29.30133\atlmfc\include\afxwin2.inl

; 73   : 	{ MoveWindow(lpRect->left, lpRect->top, lpRect->right - lpRect->left,

  00308	50		 push	 eax
  00309	8b 45 e8	 mov	 eax, DWORD PTR $T2[ebp+8]
  0030c	2b c6		 sub	 eax, esi
; File D:\git\src\IBK\IBK_DRFN\ProjSrc\SrcDrfn\Chart\HWSTRATEGYCONFIGUREWIZARD\OutLookBarDlg.cpp

; 224  : 			rect.top += 32;

  0030e	89 55 e4	 mov	 DWORD PTR $T2[ebp+4], edx
; File C:\Program Files (x86)\Microsoft Visual Studio\2019\Community\VC\Tools\MSVC\14.29.30133\atlmfc\include\afxwin2.inl

; 73   : 	{ MoveWindow(lpRect->left, lpRect->top, lpRect->right - lpRect->left,

  00311	50		 push	 eax
  00312	52		 push	 edx
  00313	56		 push	 esi
  00314	e8 00 00 00 00	 call	 ?MoveWindow@CWnd@@QAEXHHHHH@Z ; CWnd::MoveWindow
; File D:\git\src\IBK\IBK_DRFN\ProjSrc\SrcDrfn\Chart\HWSTRATEGYCONFIGUREWIZARD\OutLookBarDlg.cpp

; 152  : 	return TRUE;  // return TRUE unless you set the focus to a control

  00319	8d 4d dc	 lea	 ecx, DWORD PTR _strImageDir$[ebp]
  0031c	ff 15 00 00 00
	00		 call	 DWORD PTR __imp_??1?$CStringT@DV?$StrTraitMFC_DLL@DV?$ChTraitsCRT@D@ATL@@@@@ATL@@QAE@XZ
; File C:\Program Files (x86)\Microsoft Visual Studio\2019\Community\VC\Tools\MSVC\14.29.30133\atlmfc\include\afxwin1.inl

; 179  : 	{ }

  00322	8d 4d d4	 lea	 ecx, DWORD PTR _bitmap$[ebp]
  00325	c7 45 d4 00 00
	00 00		 mov	 DWORD PTR _bitmap$[ebp], OFFSET ??_7CBitmap@@6B@
  0032c	e8 00 00 00 00	 call	 ??1CGdiObject@@UAE@XZ	; CGdiObject::~CGdiObject
; File D:\git\src\IBK\IBK_DRFN\ProjSrc\SrcDrfn\Chart\HWSTRATEGYCONFIGUREWIZARD\OutLookBarDlg.cpp

; 152  : 	return TRUE;  // return TRUE unless you set the focus to a control

  00331	8d 4d d0	 lea	 ecx, DWORD PTR _szImageChartDir$[ebp]
  00334	ff 15 00 00 00
	00		 call	 DWORD PTR __imp_??1?$CStringT@DV?$StrTraitMFC_DLL@DV?$ChTraitsCRT@D@ATL@@@@@ATL@@QAE@XZ
  0033a	8d 4d cc	 lea	 ecx, DWORD PTR _szSTUser_STPath$[ebp]
  0033d	ff 15 00 00 00
	00		 call	 DWORD PTR __imp_??1?$CStringT@DV?$StrTraitMFC_DLL@DV?$ChTraitsCRT@D@ATL@@@@@ATL@@QAE@XZ
  00343	8d 4d c8	 lea	 ecx, DWORD PTR _szSTData_STPath$[ebp]
  00346	ff 15 00 00 00
	00		 call	 DWORD PTR __imp_??1?$CStringT@DV?$StrTraitMFC_DLL@DV?$ChTraitsCRT@D@ATL@@@@@ATL@@QAE@XZ
  0034c	b8 01 00 00 00	 mov	 eax, 1

; 153  : 	// : OCX   FALSE  .
; 154  : }

  00351	8b 4d f4	 mov	 ecx, DWORD PTR __$EHRec$[ebp]
  00354	64 89 0d 00 00
	00 00		 mov	 DWORD PTR fs:0, ecx
  0035b	59		 pop	 ecx
  0035c	5f		 pop	 edi
  0035d	5e		 pop	 esi
  0035e	5b		 pop	 ebx
  0035f	8b 4d f0	 mov	 ecx, DWORD PTR __$ArrayPad$[ebp]
  00362	33 cd		 xor	 ecx, ebp
  00364	e8 00 00 00 00	 call	 @__security_check_cookie@4
  00369	8b e5		 mov	 esp, ebp
  0036b	5d		 pop	 ebp
  0036c	c3		 ret	 0
_TEXT	ENDS
;	COMDAT text$x
text$x	SEGMENT
__unwindfunclet$?OnInitDialog@COutLookBarDlg@@MAEHXZ$0:
  00000	8d 4d c8	 lea	 ecx, DWORD PTR _szSTData_STPath$[ebp]
  00003	ff 25 00 00 00
	00		 jmp	 DWORD PTR __imp_??1?$CStringT@DV?$StrTraitMFC_DLL@DV?$ChTraitsCRT@D@ATL@@@@@ATL@@QAE@XZ
__unwindfunclet$?OnInitDialog@COutLookBarDlg@@MAEHXZ$1:
  00009	8d 4d cc	 lea	 ecx, DWORD PTR _szSTUser_STPath$[ebp]
  0000c	ff 25 00 00 00
	00		 jmp	 DWORD PTR __imp_??1?$CStringT@DV?$StrTraitMFC_DLL@DV?$ChTraitsCRT@D@ATL@@@@@ATL@@QAE@XZ
__unwindfunclet$?OnInitDialog@COutLookBarDlg@@MAEHXZ$2:
  00012	8d 4d d0	 lea	 ecx, DWORD PTR _szImageChartDir$[ebp]
  00015	ff 25 00 00 00
	00		 jmp	 DWORD PTR __imp_??1?$CStringT@DV?$StrTraitMFC_DLL@DV?$ChTraitsCRT@D@ATL@@@@@ATL@@QAE@XZ
__unwindfunclet$?OnInitDialog@COutLookBarDlg@@MAEHXZ$3:
  0001b	8d 4d d4	 lea	 ecx, DWORD PTR _bitmap$[ebp]
  0001e	e9 00 00 00 00	 jmp	 ??1CBitmap@@UAE@XZ	; CBitmap::~CBitmap
__unwindfunclet$?OnInitDialog@COutLookBarDlg@@MAEHXZ$4:
  00023	8d 4d dc	 lea	 ecx, DWORD PTR _strImageDir$[ebp]
  00026	ff 25 00 00 00
	00		 jmp	 DWORD PTR __imp_??1?$CStringT@DV?$StrTraitMFC_DLL@DV?$ChTraitsCRT@D@ATL@@@@@ATL@@QAE@XZ
  0002c	cc		 int	 3
  0002d	cc		 int	 3
  0002e	cc		 int	 3
  0002f	cc		 int	 3
  00030	cc		 int	 3
__ehhandler$?OnInitDialog@COutLookBarDlg@@MAEHXZ:
  00031	90		 npad	 1
  00032	90		 npad	 1
  00033	8b 54 24 08	 mov	 edx, DWORD PTR [esp+8]
  00037	8d 42 0c	 lea	 eax, DWORD PTR [edx+12]
  0003a	8b 4a b8	 mov	 ecx, DWORD PTR [edx-72]
  0003d	33 c8		 xor	 ecx, eax
  0003f	e8 00 00 00 00	 call	 @__security_check_cookie@4
  00044	8b 4a fc	 mov	 ecx, DWORD PTR [edx-4]
  00047	33 c8		 xor	 ecx, eax
  00049	e8 00 00 00 00	 call	 @__security_check_cookie@4
  0004e	b8 00 00 00 00	 mov	 eax, OFFSET __ehfuncinfo$?OnInitDialog@COutLookBarDlg@@MAEHXZ
  00053	e9 00 00 00 00	 jmp	 ___CxxFrameHandler3
text$x	ENDS
?OnInitDialog@COutLookBarDlg@@MAEHXZ ENDP		; COutLookBarDlg::OnInitDialog
; Function compile flags: /Ogtp
; File D:\git\src\IBK\IBK_DRFN\ProjSrc\SrcDrfn\Chart\HWSTRATEGYCONFIGUREWIZARD\OutLookBarDlg.cpp
;	COMDAT ?GetMessageMap@COutLookBarDlg@@MBEPBUAFX_MSGMAP@@XZ
_TEXT	SEGMENT
?GetMessageMap@COutLookBarDlg@@MBEPBUAFX_MSGMAP@@XZ PROC ; COutLookBarDlg::GetMessageMap, COMDAT
; _this$ = ecx

; 48   : BEGIN_MESSAGE_MAP(COutLookBarDlg, CDialog)

  00000	b8 00 00 00 00	 mov	 eax, OFFSET ?messageMap@?1??GetThisMessageMap@COutLookBarDlg@@KGPBUAFX_MSGMAP@@XZ@4U3@B
  00005	c3		 ret	 0
?GetMessageMap@COutLookBarDlg@@MBEPBUAFX_MSGMAP@@XZ ENDP ; COutLookBarDlg::GetMessageMap
_TEXT	ENDS
; Function compile flags: /Ogtp
; File D:\git\src\IBK\IBK_DRFN\ProjSrc\SrcDrfn\Chart\HWSTRATEGYCONFIGUREWIZARD\OutLookBarDlg.cpp
;	COMDAT ?GetThisMessageMap@COutLookBarDlg@@KGPBUAFX_MSGMAP@@XZ
_TEXT	SEGMENT
?GetThisMessageMap@COutLookBarDlg@@KGPBUAFX_MSGMAP@@XZ PROC ; COutLookBarDlg::GetThisMessageMap, COMDAT

; 49   : 	ON_WM_SIZE()
; 50   : 	ON_WM_DESTROY()
; 51   : 	ON_WM_CTLCOLOR()
; 52   : 	ON_BN_CLICKED(IDC_BTN_FINDST, OnBnClickedBtnFindst)
; 53   : 	ON_BN_CLICKED(IDC_BTN_NEXTST, OnBnClickedBtnNextst)
; 54   : END_MESSAGE_MAP()

  00000	b8 00 00 00 00	 mov	 eax, OFFSET ?messageMap@?1??GetThisMessageMap@COutLookBarDlg@@KGPBUAFX_MSGMAP@@XZ@4U3@B
  00005	c3		 ret	 0
?GetThisMessageMap@COutLookBarDlg@@KGPBUAFX_MSGMAP@@XZ ENDP ; COutLookBarDlg::GetThisMessageMap
_TEXT	ENDS
; Function compile flags: /Ogtp
; File D:\git\src\IBK\IBK_DRFN\ProjSrc\SrcDrfn\Chart\HWSTRATEGYCONFIGUREWIZARD\OutLookBarDlg.cpp
;	COMDAT ?IsUserFolder@COutLookBarDlg@@QAEHH@Z
_TEXT	SEGMENT
_nFolder$ = 8						; size = 4
?IsUserFolder@COutLookBarDlg@@QAEHH@Z PROC		; COutLookBarDlg::IsUserFolder, COMDAT
; _this$ = ecx

; 284  : {

  00000	55		 push	 ebp
  00001	8b ec		 mov	 ebp, esp

; 285  : 	int nTotalFolder = m_wndOutBar.GetFolderCount();

  00003	81 c1 c8 01 00
	00		 add	 ecx, 456		; 000001c8H
  00009	e8 00 00 00 00	 call	 ?GetFolderCount@CSTGfxOutBarCtrl@@QBEHXZ ; CSTGfxOutBarCtrl::GetFolderCount

; 286  : 	if(nFolder>=nTotalFolder-2)  return TRUE;

  0000e	83 e8 02	 sub	 eax, 2
  00011	33 c9		 xor	 ecx, ecx
  00013	39 45 08	 cmp	 DWORD PTR _nFolder$[ebp], eax
  00016	0f 9d c1	 setge	 cl
  00019	8b c1		 mov	 eax, ecx

; 287  : 
; 288  : 	return FALSE;
; 289  : }

  0001b	5d		 pop	 ebp
  0001c	c2 04 00	 ret	 4
?IsUserFolder@COutLookBarDlg@@QAEHH@Z ENDP		; COutLookBarDlg::IsUserFolder
_TEXT	ENDS
; Function compile flags: /Ogtp
; File D:\git\src\IBK\IBK_DRFN\ProjSrc\SrcDrfn\Chart\HWSTRATEGYCONFIGUREWIZARD\OutLookBarDlg.cpp
; File C:\Program Files (x86)\Microsoft Visual Studio\2019\Community\VC\Tools\MSVC\14.29.30133\atlmfc\include\atltypes.h
; File D:\git\src\IBK\IBK_DRFN\ProjSrc\SrcDrfn\Chart\HWSTRATEGYCONFIGUREWIZARD\OutLookBarDlg.cpp
; File C:\Program Files (x86)\Microsoft Visual Studio\2019\Community\VC\Tools\MSVC\14.29.30133\atlmfc\include\afxwin2.inl
; File D:\git\src\IBK\IBK_DRFN\ProjSrc\SrcDrfn\Chart\HWSTRATEGYCONFIGUREWIZARD\OutLookBarDlg.cpp
;	COMDAT ?GetRect@COutLookBarDlg@@QAE?AVCRect@@H@Z
_TEXT	SEGMENT
___$ReturnUdt$ = 8					; size = 4
_nID$ = 12						; size = 4
?GetRect@COutLookBarDlg@@QAE?AVCRect@@H@Z PROC		; COutLookBarDlg::GetRect, COMDAT
; _this$ = ecx

; 216  : {

  00000	55		 push	 ebp
  00001	8b ec		 mov	 ebp, esp

; 218  : 	switch(nID)

  00003	81 7d 0c e8 03
	00 00		 cmp	 DWORD PTR _nID$[ebp], 1000 ; 000003e8H
  0000a	56		 push	 esi
; File C:\Program Files (x86)\Microsoft Visual Studio\2019\Community\VC\Tools\MSVC\14.29.30133\atlmfc\include\atltypes.h

; 528  : 	left = 0;

  0000b	8b 75 08	 mov	 esi, DWORD PTR ___$ReturnUdt$[ebp]
  0000e	c7 06 00 00 00
	00		 mov	 DWORD PTR [esi], 0

; 529  : 	top = 0;

  00014	c7 46 04 00 00
	00 00		 mov	 DWORD PTR [esi+4], 0

; 530  : 	right = 0;

  0001b	c7 46 08 00 00
	00 00		 mov	 DWORD PTR [esi+8], 0

; 531  : 	bottom = 0;

  00022	c7 46 0c 00 00
	00 00		 mov	 DWORD PTR [esi+12], 0
; File D:\git\src\IBK\IBK_DRFN\ProjSrc\SrcDrfn\Chart\HWSTRATEGYCONFIGUREWIZARD\OutLookBarDlg.cpp

; 218  : 	switch(nID)

  00029	75 15		 jne	 SHORT $LN11@GetRect
; File C:\Program Files (x86)\Microsoft Visual Studio\2019\Community\VC\Tools\MSVC\14.29.30133\atlmfc\include\afxwin2.inl

; 86   : 	{ ASSERT(::IsWindow(m_hWnd)); ::GetClientRect(m_hWnd, lpRect); }

  0002b	56		 push	 esi
  0002c	ff 71 20	 push	 DWORD PTR [ecx+32]
  0002f	ff 15 00 00 00
	00		 call	 DWORD PTR __imp__GetClientRect@8
; File D:\git\src\IBK\IBK_DRFN\ProjSrc\SrcDrfn\Chart\HWSTRATEGYCONFIGUREWIZARD\OutLookBarDlg.cpp

; 223  : 			rect.left += 5;

  00035	83 06 05	 add	 DWORD PTR [esi], 5

; 224  : 			rect.top += 32;

  00038	83 46 04 20	 add	 DWORD PTR [esi+4], 32	; 00000020H

; 225  : 			rect.bottom -= 6;

  0003c	83 46 0c fa	 add	 DWORD PTR [esi+12], -6	; fffffffaH
$LN11@GetRect:

; 226  : 		}
; 227  : 		break;
; 228  : 	default:
; 229  : 		break;
; 230  : 	}
; 231  : 	return rect;
; 232  : }

  00040	8b c6		 mov	 eax, esi
  00042	5e		 pop	 esi
  00043	5d		 pop	 ebp
  00044	c2 08 00	 ret	 8
?GetRect@COutLookBarDlg@@QAE?AVCRect@@H@Z ENDP		; COutLookBarDlg::GetRect
_TEXT	ENDS
; Function compile flags: /Ogtp
; File D:\git\src\IBK\IBK_DRFN\ProjSrc\SrcDrfn\Chart\HWSTRATEGYCONFIGUREWIZARD\OutLookBarDlg.cpp
; File C:\Program Files (x86)\Microsoft Visual Studio\2019\Community\VC\Tools\MSVC\14.29.30133\atlmfc\include\afxwin2.inl
; File D:\git\src\IBK\IBK_DRFN\ProjSrc\SrcDrfn\Chart\HWSTRATEGYCONFIGUREWIZARD\OutLookBarDlg.cpp
; File C:\Program Files (x86)\Microsoft Visual Studio\2019\Community\VC\Tools\MSVC\14.29.30133\atlmfc\include\atltypes.h
; File C:\Program Files (x86)\Microsoft Visual Studio\2019\Community\VC\Tools\MSVC\14.29.30133\atlmfc\include\afxwin2.inl
; File C:\Program Files (x86)\Microsoft Visual Studio\2019\Community\VC\Tools\MSVC\14.29.30133\atlmfc\include\atltypes.h
; File C:\Program Files (x86)\Microsoft Visual Studio\2019\Community\VC\Tools\MSVC\14.29.30133\atlmfc\include\afxwin2.inl
; File D:\git\src\IBK\IBK_DRFN\ProjSrc\SrcDrfn\Chart\HWSTRATEGYCONFIGUREWIZARD\OutLookBarDlg.cpp
; File C:\Program Files (x86)\Microsoft Visual Studio\2019\Community\VC\Tools\MSVC\14.29.30133\atlmfc\include\afxwin2.inl
; File D:\git\src\IBK\IBK_DRFN\ProjSrc\SrcDrfn\Chart\HWSTRATEGYCONFIGUREWIZARD\OutLookBarDlg.cpp
; File C:\Program Files (x86)\Microsoft Visual Studio\2019\Community\VC\Tools\MSVC\14.29.30133\atlmfc\include\afxwin2.inl
; File D:\git\src\IBK\IBK_DRFN\ProjSrc\SrcDrfn\Chart\HWSTRATEGYCONFIGUREWIZARD\OutLookBarDlg.cpp
; File C:\Program Files (x86)\Microsoft Visual Studio\2019\Community\VC\Tools\MSVC\14.29.30133\atlmfc\include\afxwin2.inl
; File D:\git\src\IBK\IBK_DRFN\ProjSrc\SrcDrfn\Chart\HWSTRATEGYCONFIGUREWIZARD\OutLookBarDlg.cpp
; File C:\Program Files (x86)\Microsoft Visual Studio\2019\Community\VC\Tools\MSVC\14.29.30133\atlmfc\include\afxwin2.inl
; File D:\git\src\IBK\IBK_DRFN\ProjSrc\SrcDrfn\Chart\HWSTRATEGYCONFIGUREWIZARD\OutLookBarDlg.cpp
;	COMDAT ?Resize@COutLookBarDlg@@QAEXXZ
_TEXT	SEGMENT
$T1 = -20						; size = 16
__$ArrayPad$ = -4					; size = 4
?Resize@COutLookBarDlg@@QAEXXZ PROC			; COutLookBarDlg::Resize, COMDAT
; _this$ = ecx

; 191  : {

  00000	55		 push	 ebp
  00001	8b ec		 mov	 ebp, esp
  00003	83 ec 14	 sub	 esp, 20			; 00000014H
  00006	a1 00 00 00 00	 mov	 eax, DWORD PTR ___security_cookie
  0000b	33 c5		 xor	 eax, ebp
  0000d	89 45 fc	 mov	 DWORD PTR __$ArrayPad$[ebp], eax
  00010	57		 push	 edi

; 192  : 	if(m_wndOutBar.GetSafeHwnd()) 

  00011	8d b9 c8 01 00
	00		 lea	 edi, DWORD PTR [ecx+456]
; File C:\Program Files (x86)\Microsoft Visual Studio\2019\Community\VC\Tools\MSVC\14.29.30133\atlmfc\include\afxwin2.inl

; 25   : 	{ return this == NULL ? NULL : m_hWnd; }

  00017	85 ff		 test	 edi, edi
  00019	74 4b		 je	 SHORT $LN2@Resize
; File D:\git\src\IBK\IBK_DRFN\ProjSrc\SrcDrfn\Chart\HWSTRATEGYCONFIGUREWIZARD\OutLookBarDlg.cpp

; 192  : 	if(m_wndOutBar.GetSafeHwnd()) 

  0001b	83 7f 20 00	 cmp	 DWORD PTR [edi+32], 0
  0001f	74 45		 je	 SHORT $LN2@Resize
; File C:\Program Files (x86)\Microsoft Visual Studio\2019\Community\VC\Tools\MSVC\14.29.30133\atlmfc\include\atltypes.h

; 528  : 	left = 0;

  00021	56		 push	 esi
; File C:\Program Files (x86)\Microsoft Visual Studio\2019\Community\VC\Tools\MSVC\14.29.30133\atlmfc\include\afxwin2.inl

; 86   : 	{ ASSERT(::IsWindow(m_hWnd)); ::GetClientRect(m_hWnd, lpRect); }

  00022	8d 45 ec	 lea	 eax, DWORD PTR $T1[ebp]
  00025	0f 57 c0	 xorps	 xmm0, xmm0
  00028	50		 push	 eax
  00029	ff 71 20	 push	 DWORD PTR [ecx+32]
; File C:\Program Files (x86)\Microsoft Visual Studio\2019\Community\VC\Tools\MSVC\14.29.30133\atlmfc\include\atltypes.h

; 528  : 	left = 0;

  0002c	0f 11 45 ec	 movups	 XMMWORD PTR $T1[ebp], xmm0
; File C:\Program Files (x86)\Microsoft Visual Studio\2019\Community\VC\Tools\MSVC\14.29.30133\atlmfc\include\afxwin2.inl

; 86   : 	{ ASSERT(::IsWindow(m_hWnd)); ::GetClientRect(m_hWnd, lpRect); }

  00030	ff 15 00 00 00
	00		 call	 DWORD PTR __imp__GetClientRect@8
; File D:\git\src\IBK\IBK_DRFN\ProjSrc\SrcDrfn\Chart\HWSTRATEGYCONFIGUREWIZARD\OutLookBarDlg.cpp

; 225  : 			rect.bottom -= 6;

  00036	8b 45 f8	 mov	 eax, DWORD PTR $T1[ebp+12]
; File C:\Program Files (x86)\Microsoft Visual Studio\2019\Community\VC\Tools\MSVC\14.29.30133\atlmfc\include\afxwin2.inl

; 73   : 	{ MoveWindow(lpRect->left, lpRect->top, lpRect->right - lpRect->left,

  00039	8b cf		 mov	 ecx, edi
; File D:\git\src\IBK\IBK_DRFN\ProjSrc\SrcDrfn\Chart\HWSTRATEGYCONFIGUREWIZARD\OutLookBarDlg.cpp

; 224  : 			rect.top += 32;

  0003b	8b 55 f0	 mov	 edx, DWORD PTR $T1[ebp+4]

; 225  : 			rect.bottom -= 6;

  0003e	83 e8 06	 sub	 eax, 6
  00041	8b 75 ec	 mov	 esi, DWORD PTR $T1[ebp]
  00044	83 c2 20	 add	 edx, 32			; 00000020H
  00047	89 45 f8	 mov	 DWORD PTR $T1[ebp+12], eax
  0004a	83 c6 05	 add	 esi, 5
; File C:\Program Files (x86)\Microsoft Visual Studio\2019\Community\VC\Tools\MSVC\14.29.30133\atlmfc\include\afxwin2.inl

; 73   : 	{ MoveWindow(lpRect->left, lpRect->top, lpRect->right - lpRect->left,

  0004d	6a 01		 push	 1
  0004f	2b c2		 sub	 eax, edx
; File D:\git\src\IBK\IBK_DRFN\ProjSrc\SrcDrfn\Chart\HWSTRATEGYCONFIGUREWIZARD\OutLookBarDlg.cpp

; 223  : 			rect.left += 5;

  00051	89 75 ec	 mov	 DWORD PTR $T1[ebp], esi
; File C:\Program Files (x86)\Microsoft Visual Studio\2019\Community\VC\Tools\MSVC\14.29.30133\atlmfc\include\afxwin2.inl

; 73   : 	{ MoveWindow(lpRect->left, lpRect->top, lpRect->right - lpRect->left,

  00054	50		 push	 eax
  00055	8b 45 f4	 mov	 eax, DWORD PTR $T1[ebp+8]
  00058	2b c6		 sub	 eax, esi
; File D:\git\src\IBK\IBK_DRFN\ProjSrc\SrcDrfn\Chart\HWSTRATEGYCONFIGUREWIZARD\OutLookBarDlg.cpp

; 224  : 			rect.top += 32;

  0005a	89 55 f0	 mov	 DWORD PTR $T1[ebp+4], edx
; File C:\Program Files (x86)\Microsoft Visual Studio\2019\Community\VC\Tools\MSVC\14.29.30133\atlmfc\include\afxwin2.inl

; 73   : 	{ MoveWindow(lpRect->left, lpRect->top, lpRect->right - lpRect->left,

  0005d	50		 push	 eax
  0005e	52		 push	 edx
  0005f	56		 push	 esi
  00060	e8 00 00 00 00	 call	 ?MoveWindow@CWnd@@QAEXHHHHH@Z ; CWnd::MoveWindow
  00065	5e		 pop	 esi
$LN2@Resize:
; File D:\git\src\IBK\IBK_DRFN\ProjSrc\SrcDrfn\Chart\HWSTRATEGYCONFIGUREWIZARD\OutLookBarDlg.cpp

; 194  : }

  00066	8b 4d fc	 mov	 ecx, DWORD PTR __$ArrayPad$[ebp]
  00069	33 cd		 xor	 ecx, ebp
  0006b	5f		 pop	 edi
  0006c	e8 00 00 00 00	 call	 @__security_check_cookie@4
  00071	8b e5		 mov	 esp, ebp
  00073	5d		 pop	 ebp
  00074	c3		 ret	 0
?Resize@COutLookBarDlg@@QAEXXZ ENDP			; COutLookBarDlg::Resize
_TEXT	ENDS
; Function compile flags: /Ogtp
; File D:\git\src\IBK\IBK_DRFN\ProjSrc\SrcDrfn\Chart\HWSTRATEGYCONFIGUREWIZARD\OutLookBarDlg.cpp
; File C:\Program Files (x86)\Microsoft Visual Studio\2019\Community\VC\Tools\MSVC\14.29.30133\atlmfc\include\atlsimpstr.h
; File D:\git\src\IBK\IBK_DRFN\ProjSrc\SrcDrfn\Chart\HWSTRATEGYCONFIGUREWIZARD\OutLookBarDlg.cpp
;	COMDAT ?GetSTPathSelected@COutLookBarDlg@@QAE?AV?$CStringT@DV?$StrTraitMFC_DLL@DV?$ChTraitsCRT@D@ATL@@@@@ATL@@AAV23@@Z
_TEXT	SEGMENT
___$ReturnUdt$ = 8					; size = 4
_szSTType$ = 12						; size = 4
?GetSTPathSelected@COutLookBarDlg@@QAE?AV?$CStringT@DV?$StrTraitMFC_DLL@DV?$ChTraitsCRT@D@ATL@@@@@ATL@@AAV23@@Z PROC ; COutLookBarDlg::GetSTPathSelected, COMDAT
; _this$ = ecx

; 176  : {

  00000	55		 push	 ebp
  00001	8b ec		 mov	 ebp, esp
  00003	56		 push	 esi
  00004	8b f1		 mov	 esi, ecx
; File C:\Program Files (x86)\Microsoft Visual Studio\2019\Community\VC\Tools\MSVC\14.29.30133\atlmfc\include\atlsimpstr.h

; 533  : 		return( GetLength() == 0 );

  00006	8b 86 70 03 00
	00		 mov	 eax, DWORD PTR [esi+880]

; 800  : 		return( reinterpret_cast< CStringData* >( m_pszData )-1 );

  0000c	8d 96 70 03 00
	00		 lea	 edx, DWORD PTR [esi+880]

; 533  : 		return( GetLength() == 0 );

  00012	83 78 f4 00	 cmp	 DWORD PTR [eax-12], 0
; File D:\git\src\IBK\IBK_DRFN\ProjSrc\SrcDrfn\Chart\HWSTRATEGYCONFIGUREWIZARD\OutLookBarDlg.cpp

; 177  : 	if(!m_szCurSTType.IsEmpty())

  00016	74 0a		 je	 SHORT $LN2@GetSTPathS

; 178  : 		szSTType = m_szCurSTType;

  00018	8b 4d 0c	 mov	 ecx, DWORD PTR _szSTType$[ebp]
  0001b	52		 push	 edx
  0001c	ff 15 00 00 00
	00		 call	 DWORD PTR __imp_??4?$CStringT@DV?$StrTraitMFC_DLL@DV?$ChTraitsCRT@D@ATL@@@@@ATL@@QAEAAV01@ABV01@@Z
$LN2@GetSTPathS:

; 179  : 
; 180  : 	return m_szCurFolder;

  00022	8b 4d 08	 mov	 ecx, DWORD PTR ___$ReturnUdt$[ebp]
  00025	8d 86 6c 03 00
	00		 lea	 eax, DWORD PTR [esi+876]
  0002b	50		 push	 eax
  0002c	ff 15 00 00 00
	00		 call	 DWORD PTR __imp_??0?$CStringT@DV?$StrTraitMFC_DLL@DV?$ChTraitsCRT@D@ATL@@@@@ATL@@QAE@ABV01@@Z
  00032	8b 45 08	 mov	 eax, DWORD PTR ___$ReturnUdt$[ebp]
  00035	5e		 pop	 esi

; 181  : }

  00036	5d		 pop	 ebp
  00037	c2 08 00	 ret	 8
?GetSTPathSelected@COutLookBarDlg@@QAE?AV?$CStringT@DV?$StrTraitMFC_DLL@DV?$ChTraitsCRT@D@ATL@@@@@ATL@@AAV23@@Z ENDP ; COutLookBarDlg::GetSTPathSelected
_TEXT	ENDS
; Function compile flags: /Ogtp
; File D:\git\src\IBK\IBK_DRFN\ProjSrc\SrcDrfn\Chart\HWSTRATEGYCONFIGUREWIZARD\OutLookBarDlg.cpp
; File C:\Program Files (x86)\Microsoft Visual Studio\2019\Community\VC\Tools\MSVC\14.29.30133\atlmfc\include\afxwin2.inl
; File C:\Program Files (x86)\Microsoft Visual Studio\2019\Community\VC\Tools\MSVC\14.29.30133\atlmfc\include\atltypes.h
; File C:\Program Files (x86)\Microsoft Visual Studio\2019\Community\VC\Tools\MSVC\14.29.30133\atlmfc\include\afxwin2.inl
; File D:\git\src\IBK\IBK_DRFN\ProjSrc\SrcDrfn\Chart\HWSTRATEGYCONFIGUREWIZARD\OutLookBarDlg.cpp
; File C:\Program Files (x86)\Microsoft Visual Studio\2019\Community\VC\Tools\MSVC\14.29.30133\atlmfc\include\afxwin2.inl
; File D:\git\src\IBK\IBK_DRFN\ProjSrc\SrcDrfn\Chart\HWSTRATEGYCONFIGUREWIZARD\OutLookBarDlg.cpp
; File C:\Program Files (x86)\Microsoft Visual Studio\2019\Community\VC\Tools\MSVC\14.29.30133\atlmfc\include\afxwin2.inl
; File D:\git\src\IBK\IBK_DRFN\ProjSrc\SrcDrfn\Chart\HWSTRATEGYCONFIGUREWIZARD\OutLookBarDlg.cpp
; File C:\Program Files (x86)\Microsoft Visual Studio\2019\Community\VC\Tools\MSVC\14.29.30133\atlmfc\include\afxwin2.inl
; File D:\git\src\IBK\IBK_DRFN\ProjSrc\SrcDrfn\Chart\HWSTRATEGYCONFIGUREWIZARD\OutLookBarDlg.cpp
; File C:\Program Files (x86)\Microsoft Visual Studio\2019\Community\VC\Tools\MSVC\14.29.30133\atlmfc\include\afxwin2.inl
; File D:\git\src\IBK\IBK_DRFN\ProjSrc\SrcDrfn\Chart\HWSTRATEGYCONFIGUREWIZARD\OutLookBarDlg.cpp
;	COMDAT ?UpdateSTList@COutLookBarDlg@@QAEXHV?$CStringT@DV?$StrTraitMFC_DLL@DV?$ChTraitsCRT@D@ATL@@@@@ATL@@@Z
_TEXT	SEGMENT
$T2 = -32						; size = 16
__$ArrayPad$ = -16					; size = 4
__$EHRec$ = -12						; size = 12
_nState$ = 8						; size = 4
_szSTPath$ = 12						; size = 4
?UpdateSTList@COutLookBarDlg@@QAEXHV?$CStringT@DV?$StrTraitMFC_DLL@DV?$ChTraitsCRT@D@ATL@@@@@ATL@@@Z PROC ; COutLookBarDlg::UpdateSTList, COMDAT
; _this$ = ecx

; 170  : {

  00000	55		 push	 ebp
  00001	8b ec		 mov	 ebp, esp
  00003	6a ff		 push	 -1
  00005	68 00 00 00 00	 push	 __ehhandler$?UpdateSTList@COutLookBarDlg@@QAEXHV?$CStringT@DV?$StrTraitMFC_DLL@DV?$ChTraitsCRT@D@ATL@@@@@ATL@@@Z
  0000a	64 a1 00 00 00
	00		 mov	 eax, DWORD PTR fs:0
  00010	50		 push	 eax
  00011	83 ec 18	 sub	 esp, 24			; 00000018H
  00014	a1 00 00 00 00	 mov	 eax, DWORD PTR ___security_cookie
  00019	33 c5		 xor	 eax, ebp
  0001b	89 45 f0	 mov	 DWORD PTR __$ArrayPad$[ebp], eax
  0001e	56		 push	 esi
  0001f	50		 push	 eax
  00020	8d 45 f4	 lea	 eax, DWORD PTR __$EHRec$[ebp]
  00023	64 a3 00 00 00
	00		 mov	 DWORD PTR fs:0, eax
  00029	8b f1		 mov	 esi, ecx

; 171  : 	m_pSTLoadMnger->UpdateST(nState, szSTPath);

  0002b	51		 push	 ecx
  0002c	8d 45 0c	 lea	 eax, DWORD PTR _szSTPath$[ebp]
  0002f	c7 45 fc 00 00
	00 00		 mov	 DWORD PTR __$EHRec$[ebp+8], 0
  00036	8b cc		 mov	 ecx, esp
  00038	50		 push	 eax
  00039	ff 15 00 00 00
	00		 call	 DWORD PTR __imp_??0?$CStringT@DV?$StrTraitMFC_DLL@DV?$ChTraitsCRT@D@ATL@@@@@ATL@@QAE@ABV01@@Z
  0003f	8b 86 40 03 00
	00		 mov	 eax, DWORD PTR [esi+832]
  00045	ff 75 08	 push	 DWORD PTR _nState$[ebp]
  00048	50		 push	 eax
  00049	8b 08		 mov	 ecx, DWORD PTR [eax]
  0004b	ff 51 10	 call	 DWORD PTR [ecx+16]
; File C:\Program Files (x86)\Microsoft Visual Studio\2019\Community\VC\Tools\MSVC\14.29.30133\atlmfc\include\afxwin2.inl

; 86   : 	{ ASSERT(::IsWindow(m_hWnd)); ::GetClientRect(m_hWnd, lpRect); }

  0004e	8d 45 e0	 lea	 eax, DWORD PTR $T2[ebp]
  00051	0f 57 c0	 xorps	 xmm0, xmm0
  00054	50		 push	 eax
  00055	ff 76 20	 push	 DWORD PTR [esi+32]
; File C:\Program Files (x86)\Microsoft Visual Studio\2019\Community\VC\Tools\MSVC\14.29.30133\atlmfc\include\atltypes.h

; 528  : 	left = 0;

  00058	0f 11 45 e0	 movups	 XMMWORD PTR $T2[ebp], xmm0
; File C:\Program Files (x86)\Microsoft Visual Studio\2019\Community\VC\Tools\MSVC\14.29.30133\atlmfc\include\afxwin2.inl

; 86   : 	{ ASSERT(::IsWindow(m_hWnd)); ::GetClientRect(m_hWnd, lpRect); }

  0005c	ff 15 00 00 00
	00		 call	 DWORD PTR __imp__GetClientRect@8
; File D:\git\src\IBK\IBK_DRFN\ProjSrc\SrcDrfn\Chart\HWSTRATEGYCONFIGUREWIZARD\OutLookBarDlg.cpp

; 225  : 			rect.bottom -= 6;

  00062	8b 45 ec	 mov	 eax, DWORD PTR $T2[ebp+12]
  00065	8b 4d e4	 mov	 ecx, DWORD PTR $T2[ebp+4]
  00068	83 e8 06	 sub	 eax, 6
  0006b	8b 55 e0	 mov	 edx, DWORD PTR $T2[ebp]
  0006e	83 c1 20	 add	 ecx, 32			; 00000020H
  00071	89 45 ec	 mov	 DWORD PTR $T2[ebp+12], eax
  00074	83 c2 05	 add	 edx, 5
; File C:\Program Files (x86)\Microsoft Visual Studio\2019\Community\VC\Tools\MSVC\14.29.30133\atlmfc\include\afxwin2.inl

; 73   : 	{ MoveWindow(lpRect->left, lpRect->top, lpRect->right - lpRect->left,

  00077	6a 01		 push	 1
  00079	2b c1		 sub	 eax, ecx
; File D:\git\src\IBK\IBK_DRFN\ProjSrc\SrcDrfn\Chart\HWSTRATEGYCONFIGUREWIZARD\OutLookBarDlg.cpp

; 224  : 			rect.top += 32;

  0007b	89 4d e4	 mov	 DWORD PTR $T2[ebp+4], ecx
; File C:\Program Files (x86)\Microsoft Visual Studio\2019\Community\VC\Tools\MSVC\14.29.30133\atlmfc\include\afxwin2.inl

; 73   : 	{ MoveWindow(lpRect->left, lpRect->top, lpRect->right - lpRect->left,

  0007e	50		 push	 eax
  0007f	8b 45 e8	 mov	 eax, DWORD PTR $T2[ebp+8]
  00082	2b c2		 sub	 eax, edx
; File D:\git\src\IBK\IBK_DRFN\ProjSrc\SrcDrfn\Chart\HWSTRATEGYCONFIGUREWIZARD\OutLookBarDlg.cpp

; 223  : 			rect.left += 5;

  00084	89 55 e0	 mov	 DWORD PTR $T2[ebp], edx
; File C:\Program Files (x86)\Microsoft Visual Studio\2019\Community\VC\Tools\MSVC\14.29.30133\atlmfc\include\afxwin2.inl

; 73   : 	{ MoveWindow(lpRect->left, lpRect->top, lpRect->right - lpRect->left,

  00087	50		 push	 eax
  00088	51		 push	 ecx
  00089	52		 push	 edx
; File D:\git\src\IBK\IBK_DRFN\ProjSrc\SrcDrfn\Chart\HWSTRATEGYCONFIGUREWIZARD\OutLookBarDlg.cpp

; 172  : 	m_wndOutBar.MoveWindow(GetRect(IDC_OUTLOOKBAR));

  0008a	8d 8e c8 01 00
	00		 lea	 ecx, DWORD PTR [esi+456]
; File C:\Program Files (x86)\Microsoft Visual Studio\2019\Community\VC\Tools\MSVC\14.29.30133\atlmfc\include\afxwin2.inl

; 73   : 	{ MoveWindow(lpRect->left, lpRect->top, lpRect->right - lpRect->left,

  00090	e8 00 00 00 00	 call	 ?MoveWindow@CWnd@@QAEXHHHHH@Z ; CWnd::MoveWindow
; File D:\git\src\IBK\IBK_DRFN\ProjSrc\SrcDrfn\Chart\HWSTRATEGYCONFIGUREWIZARD\OutLookBarDlg.cpp

; 173  : }

  00095	8d 4d 0c	 lea	 ecx, DWORD PTR _szSTPath$[ebp]
  00098	ff 15 00 00 00
	00		 call	 DWORD PTR __imp_??1?$CStringT@DV?$StrTraitMFC_DLL@DV?$ChTraitsCRT@D@ATL@@@@@ATL@@QAE@XZ
  0009e	8b 4d f4	 mov	 ecx, DWORD PTR __$EHRec$[ebp]
  000a1	64 89 0d 00 00
	00 00		 mov	 DWORD PTR fs:0, ecx
  000a8	59		 pop	 ecx
  000a9	5e		 pop	 esi
  000aa	8b 4d f0	 mov	 ecx, DWORD PTR __$ArrayPad$[ebp]
  000ad	33 cd		 xor	 ecx, ebp
  000af	e8 00 00 00 00	 call	 @__security_check_cookie@4
  000b4	8b e5		 mov	 esp, ebp
  000b6	5d		 pop	 ebp
  000b7	c2 08 00	 ret	 8
_TEXT	ENDS
;	COMDAT text$x
text$x	SEGMENT
__unwindfunclet$?UpdateSTList@COutLookBarDlg@@QAEXHV?$CStringT@DV?$StrTraitMFC_DLL@DV?$ChTraitsCRT@D@ATL@@@@@ATL@@@Z$0:
  00000	8d 4d 0c	 lea	 ecx, DWORD PTR _szSTPath$[ebp]
  00003	ff 25 00 00 00
	00		 jmp	 DWORD PTR __imp_??1?$CStringT@DV?$StrTraitMFC_DLL@DV?$ChTraitsCRT@D@ATL@@@@@ATL@@QAE@XZ
  00009	cc		 int	 3
  0000a	cc		 int	 3
  0000b	cc		 int	 3
  0000c	cc		 int	 3
  0000d	cc		 int	 3
__ehhandler$?UpdateSTList@COutLookBarDlg@@QAEXHV?$CStringT@DV?$StrTraitMFC_DLL@DV?$ChTraitsCRT@D@ATL@@@@@ATL@@@Z:
  0000e	90		 npad	 1
  0000f	90		 npad	 1
  00010	8b 54 24 08	 mov	 edx, DWORD PTR [esp+8]
  00014	8d 42 0c	 lea	 eax, DWORD PTR [edx+12]
  00017	8b 4a e0	 mov	 ecx, DWORD PTR [edx-32]
  0001a	33 c8		 xor	 ecx, eax
  0001c	e8 00 00 00 00	 call	 @__security_check_cookie@4
  00021	8b 4a fc	 mov	 ecx, DWORD PTR [edx-4]
  00024	33 c8		 xor	 ecx, eax
  00026	e8 00 00 00 00	 call	 @__security_check_cookie@4
  0002b	b8 00 00 00 00	 mov	 eax, OFFSET __ehfuncinfo$?UpdateSTList@COutLookBarDlg@@QAEXHV?$CStringT@DV?$StrTraitMFC_DLL@DV?$ChTraitsCRT@D@ATL@@@@@ATL@@@Z
  00030	e9 00 00 00 00	 jmp	 ___CxxFrameHandler3
text$x	ENDS
?UpdateSTList@COutLookBarDlg@@QAEXHV?$CStringT@DV?$StrTraitMFC_DLL@DV?$ChTraitsCRT@D@ATL@@@@@ATL@@@Z ENDP ; COutLookBarDlg::UpdateSTList
; Function compile flags: /Ogtp
; File D:\git\src\IBK\IBK_DRFN\ProjSrc\SrcDrfn\Chart\HWSTRATEGYCONFIGUREWIZARD\OutLookBarDlg.cpp
; File C:\Program Files (x86)\Microsoft Visual Studio\2019\Community\VC\Tools\MSVC\14.29.30133\atlmfc\include\afxwin2.inl
; File C:\Program Files (x86)\Microsoft Visual Studio\2019\Community\VC\Tools\MSVC\14.29.30133\atlmfc\include\atltypes.h
; File C:\Program Files (x86)\Microsoft Visual Studio\2019\Community\VC\Tools\MSVC\14.29.30133\atlmfc\include\afxwin2.inl
; File D:\git\src\IBK\IBK_DRFN\ProjSrc\SrcDrfn\Chart\HWSTRATEGYCONFIGUREWIZARD\OutLookBarDlg.cpp
; File C:\Program Files (x86)\Microsoft Visual Studio\2019\Community\VC\Tools\MSVC\14.29.30133\atlmfc\include\afxwin2.inl
; File D:\git\src\IBK\IBK_DRFN\ProjSrc\SrcDrfn\Chart\HWSTRATEGYCONFIGUREWIZARD\OutLookBarDlg.cpp
; File C:\Program Files (x86)\Microsoft Visual Studio\2019\Community\VC\Tools\MSVC\14.29.30133\atlmfc\include\afxwin2.inl
; File D:\git\src\IBK\IBK_DRFN\ProjSrc\SrcDrfn\Chart\HWSTRATEGYCONFIGUREWIZARD\OutLookBarDlg.cpp
; File C:\Program Files (x86)\Microsoft Visual Studio\2019\Community\VC\Tools\MSVC\14.29.30133\atlmfc\include\afxwin2.inl
; File D:\git\src\IBK\IBK_DRFN\ProjSrc\SrcDrfn\Chart\HWSTRATEGYCONFIGUREWIZARD\OutLookBarDlg.cpp
; File C:\Program Files (x86)\Microsoft Visual Studio\2019\Community\VC\Tools\MSVC\14.29.30133\atlmfc\include\afxwin2.inl
; File D:\git\src\IBK\IBK_DRFN\ProjSrc\SrcDrfn\Chart\HWSTRATEGYCONFIGUREWIZARD\OutLookBarDlg.cpp
;	COMDAT ?LoadSTList@COutLookBarDlg@@QAEXXZ
_TEXT	SEGMENT
$T1 = -20						; size = 16
__$ArrayPad$ = -4					; size = 4
?LoadSTList@COutLookBarDlg@@QAEXXZ PROC			; COutLookBarDlg::LoadSTList, COMDAT
; _this$ = ecx

; 157  : {

  00000	55		 push	 ebp
  00001	8b ec		 mov	 ebp, esp
  00003	83 ec 18	 sub	 esp, 24			; 00000018H
  00006	a1 00 00 00 00	 mov	 eax, DWORD PTR ___security_cookie
  0000b	33 c5		 xor	 eax, ebp
  0000d	89 45 fc	 mov	 DWORD PTR __$ArrayPad$[ebp], eax
  00010	56		 push	 esi
  00011	8b f1		 mov	 esi, ecx
  00013	57		 push	 edi

; 158  : //	m_pSTLoadMnger->Init(TRUE, "*.ST", &m_ilSTIcon);
; 159  : 	m_pSTLoadMnger->Init(TRUE, "*.ST", &m_ImageListIcon);

  00014	8d 86 30 03 00
	00		 lea	 eax, DWORD PTR [esi+816]
  0001a	50		 push	 eax
  0001b	51		 push	 ecx
  0001c	8b cc		 mov	 ecx, esp
  0001e	68 00 00 00 00	 push	 OFFSET ??_C@_04ECGMOPPD@?$CK?4ST@
  00023	ff 15 00 00 00
	00		 call	 DWORD PTR __imp_??0?$CStringT@DV?$StrTraitMFC_DLL@DV?$ChTraitsCRT@D@ATL@@@@@ATL@@QAE@PBD@Z
  00029	8b 86 40 03 00
	00		 mov	 eax, DWORD PTR [esi+832]
  0002f	6a 01		 push	 1
  00031	50		 push	 eax
  00032	8b 08		 mov	 ecx, DWORD PTR [eax]
  00034	ff 11		 call	 DWORD PTR [ecx]

; 160  : 	m_pSTLoadMnger->SetUseBoldFont(FALSE);

  00036	8b 86 40 03 00
	00		 mov	 eax, DWORD PTR [esi+832]
  0003c	6a 00		 push	 0
  0003e	50		 push	 eax
  0003f	8b 08		 mov	 ecx, DWORD PTR [eax]
  00041	ff 51 20	 call	 DWORD PTR [ecx+32]

; 161  : 	m_pSTLoadMnger->UnloadST();

  00044	8b 86 40 03 00
	00		 mov	 eax, DWORD PTR [esi+832]
  0004a	50		 push	 eax
  0004b	8b 08		 mov	 ecx, DWORD PTR [eax]
  0004d	ff 51 08	 call	 DWORD PTR [ecx+8]

; 162  : 
; 163  : 	int p_LoadOption = 1;
; 164  : 	m_pSTLoadMnger->LoadST2(&m_wndOutBar, &m_arSTPath, 0, 0, p_LoadOption);

  00050	8b 96 40 03 00
	00		 mov	 edx, DWORD PTR [esi+832]
  00056	8d 86 50 03 00
	00		 lea	 eax, DWORD PTR [esi+848]
  0005c	6a 01		 push	 1
  0005e	6a 00		 push	 0
  00060	6a 00		 push	 0
  00062	8b 0a		 mov	 ecx, DWORD PTR [edx]
  00064	8d be c8 01 00
	00		 lea	 edi, DWORD PTR [esi+456]
  0006a	50		 push	 eax
  0006b	57		 push	 edi
  0006c	52		 push	 edx
  0006d	ff 51 24	 call	 DWORD PTR [ecx+36]
; File C:\Program Files (x86)\Microsoft Visual Studio\2019\Community\VC\Tools\MSVC\14.29.30133\atlmfc\include\afxwin2.inl

; 86   : 	{ ASSERT(::IsWindow(m_hWnd)); ::GetClientRect(m_hWnd, lpRect); }

  00070	8d 45 ec	 lea	 eax, DWORD PTR $T1[ebp]
  00073	0f 57 c0	 xorps	 xmm0, xmm0
  00076	50		 push	 eax
  00077	ff 76 20	 push	 DWORD PTR [esi+32]
; File C:\Program Files (x86)\Microsoft Visual Studio\2019\Community\VC\Tools\MSVC\14.29.30133\atlmfc\include\atltypes.h

; 528  : 	left = 0;

  0007a	0f 11 45 ec	 movups	 XMMWORD PTR $T1[ebp], xmm0
; File C:\Program Files (x86)\Microsoft Visual Studio\2019\Community\VC\Tools\MSVC\14.29.30133\atlmfc\include\afxwin2.inl

; 86   : 	{ ASSERT(::IsWindow(m_hWnd)); ::GetClientRect(m_hWnd, lpRect); }

  0007e	ff 15 00 00 00
	00		 call	 DWORD PTR __imp__GetClientRect@8
; File D:\git\src\IBK\IBK_DRFN\ProjSrc\SrcDrfn\Chart\HWSTRATEGYCONFIGUREWIZARD\OutLookBarDlg.cpp

; 225  : 			rect.bottom -= 6;

  00084	8b 45 f8	 mov	 eax, DWORD PTR $T1[ebp+12]
; File C:\Program Files (x86)\Microsoft Visual Studio\2019\Community\VC\Tools\MSVC\14.29.30133\atlmfc\include\afxwin2.inl

; 73   : 	{ MoveWindow(lpRect->left, lpRect->top, lpRect->right - lpRect->left,

  00087	8b cf		 mov	 ecx, edi
; File D:\git\src\IBK\IBK_DRFN\ProjSrc\SrcDrfn\Chart\HWSTRATEGYCONFIGUREWIZARD\OutLookBarDlg.cpp

; 224  : 			rect.top += 32;

  00089	8b 55 f0	 mov	 edx, DWORD PTR $T1[ebp+4]

; 225  : 			rect.bottom -= 6;

  0008c	83 e8 06	 sub	 eax, 6
  0008f	8b 75 ec	 mov	 esi, DWORD PTR $T1[ebp]
  00092	83 c2 20	 add	 edx, 32			; 00000020H
  00095	89 45 f8	 mov	 DWORD PTR $T1[ebp+12], eax
  00098	83 c6 05	 add	 esi, 5
; File C:\Program Files (x86)\Microsoft Visual Studio\2019\Community\VC\Tools\MSVC\14.29.30133\atlmfc\include\afxwin2.inl

; 73   : 	{ MoveWindow(lpRect->left, lpRect->top, lpRect->right - lpRect->left,

  0009b	6a 01		 push	 1
  0009d	2b c2		 sub	 eax, edx
; File D:\git\src\IBK\IBK_DRFN\ProjSrc\SrcDrfn\Chart\HWSTRATEGYCONFIGUREWIZARD\OutLookBarDlg.cpp

; 223  : 			rect.left += 5;

  0009f	89 75 ec	 mov	 DWORD PTR $T1[ebp], esi
; File C:\Program Files (x86)\Microsoft Visual Studio\2019\Community\VC\Tools\MSVC\14.29.30133\atlmfc\include\afxwin2.inl

; 73   : 	{ MoveWindow(lpRect->left, lpRect->top, lpRect->right - lpRect->left,

  000a2	50		 push	 eax
  000a3	8b 45 f4	 mov	 eax, DWORD PTR $T1[ebp+8]
  000a6	2b c6		 sub	 eax, esi
; File D:\git\src\IBK\IBK_DRFN\ProjSrc\SrcDrfn\Chart\HWSTRATEGYCONFIGUREWIZARD\OutLookBarDlg.cpp

; 224  : 			rect.top += 32;

  000a8	89 55 f0	 mov	 DWORD PTR $T1[ebp+4], edx
; File C:\Program Files (x86)\Microsoft Visual Studio\2019\Community\VC\Tools\MSVC\14.29.30133\atlmfc\include\afxwin2.inl

; 73   : 	{ MoveWindow(lpRect->left, lpRect->top, lpRect->right - lpRect->left,

  000ab	50		 push	 eax
  000ac	52		 push	 edx
  000ad	56		 push	 esi
  000ae	e8 00 00 00 00	 call	 ?MoveWindow@CWnd@@QAEXHHHHH@Z ; CWnd::MoveWindow
; File D:\git\src\IBK\IBK_DRFN\ProjSrc\SrcDrfn\Chart\HWSTRATEGYCONFIGUREWIZARD\OutLookBarDlg.cpp

; 167  : }

  000b3	8b 4d fc	 mov	 ecx, DWORD PTR __$ArrayPad$[ebp]
  000b6	5f		 pop	 edi
  000b7	33 cd		 xor	 ecx, ebp
  000b9	5e		 pop	 esi
  000ba	e8 00 00 00 00	 call	 @__security_check_cookie@4
  000bf	8b e5		 mov	 esp, ebp
  000c1	5d		 pop	 ebp
  000c2	c3		 ret	 0
?LoadSTList@COutLookBarDlg@@QAEXXZ ENDP			; COutLookBarDlg::LoadSTList
_TEXT	ENDS
; Function compile flags: /Ogtp
; File D:\git\src\IBK\IBK_DRFN\ProjSrc\SrcDrfn\Chart\HWSTRATEGYCONFIGUREWIZARD\OutLookBarDlg.cpp
;	COMDAT ?SetSTParent@COutLookBarDlg@@QAEXPAVCWnd@@@Z
_TEXT	SEGMENT
_pParent$ = 8						; size = 4
?SetSTParent@COutLookBarDlg@@QAEXPAVCWnd@@@Z PROC	; COutLookBarDlg::SetSTParent, COMDAT
; _this$ = ecx

; 211  : {

  00000	55		 push	 ebp
  00001	8b ec		 mov	 ebp, esp

; 212  : 	m_pParentWnd = pParent;

  00003	8b 45 08	 mov	 eax, DWORD PTR _pParent$[ebp]
  00006	89 81 94 00 00
	00		 mov	 DWORD PTR [ecx+148], eax

; 213  : }

  0000c	5d		 pop	 ebp
  0000d	c2 04 00	 ret	 4
?SetSTParent@COutLookBarDlg@@QAEXPAVCWnd@@@Z ENDP	; COutLookBarDlg::SetSTParent
_TEXT	ENDS
; Function compile flags: /Ogtp
; File D:\git\src\IBK\IBK_DRFN\ProjSrc\SrcDrfn\Chart\HWSTRATEGYCONFIGUREWIZARD\OutLookBarDlg.cpp
;	COMDAT ?DoDataExchange@COutLookBarDlg@@MAEXPAVCDataExchange@@@Z
_TEXT	SEGMENT
_pDX$ = 8						; size = 4
?DoDataExchange@COutLookBarDlg@@MAEXPAVCDataExchange@@@Z PROC ; COutLookBarDlg::DoDataExchange, COMDAT
; _this$ = ecx

; 39   : {

  00000	55		 push	 ebp
  00001	8b ec		 mov	 ebp, esp
  00003	57		 push	 edi
  00004	8b f9		 mov	 edi, ecx

; 40   : 	CDialog::DoDataExchange(pDX);
; 41   : 	//{{AFX_DATA_MAP(CDlgStrategyList)
; 42   : 	DDX_Control(pDX, IDC_BTN_FINDST, m_btnFindST);

  00006	8d 87 a8 00 00
	00		 lea	 eax, DWORD PTR [edi+168]
  0000c	50		 push	 eax
  0000d	68 f3 03 00 00	 push	 1011			; 000003f3H
  00012	ff 75 08	 push	 DWORD PTR _pDX$[ebp]
  00015	e8 00 00 00 00	 call	 ?DDX_Control@@YGXPAVCDataExchange@@HAAVCWnd@@@Z ; DDX_Control

; 43   : 	DDX_Control(pDX, IDC_BTN_NEXTST, m_btnNextST);

  0001a	8d 87 38 01 00
	00		 lea	 eax, DWORD PTR [edi+312]
  00020	50		 push	 eax
  00021	68 f8 03 00 00	 push	 1016			; 000003f8H
  00026	ff 75 08	 push	 DWORD PTR _pDX$[ebp]
  00029	e8 00 00 00 00	 call	 ?DDX_Control@@YGXPAVCDataExchange@@HAAVCWnd@@@Z ; DDX_Control
  0002e	5f		 pop	 edi

; 44   : 	//}}AFX_DATA_MAP
; 45   : }

  0002f	5d		 pop	 ebp
  00030	c2 04 00	 ret	 4
?DoDataExchange@COutLookBarDlg@@MAEXPAVCDataExchange@@@Z ENDP ; COutLookBarDlg::DoDataExchange
_TEXT	ENDS
; Function compile flags: /Ogtp
; File D:\git\src\IBK\IBK_DRFN\ProjSrc\SrcDrfn\Chart\HWSTRATEGYCONFIGUREWIZARD\OutLookBarDlg.cpp
; File C:\Program Files (x86)\Microsoft Visual Studio\2019\Community\VC\Tools\MSVC\14.29.30133\atlmfc\include\afxwin1.inl
; File D:\git\src\IBK\IBK_DRFN\ProjSrc\SrcDrfn\Chart\HWSTRATEGYCONFIGUREWIZARD\OutLookBarDlg.cpp
;	COMDAT ??1COutLookBarDlg@@UAE@XZ
_TEXT	SEGMENT
??1COutLookBarDlg@@UAE@XZ PROC				; COutLookBarDlg::~COutLookBarDlg, COMDAT
; _this$ = ecx

; 35   : {

  00000	56		 push	 esi
  00001	57		 push	 edi
  00002	8b f9		 mov	 edi, ecx
  00004	8d 8f 94 03 00
	00		 lea	 ecx, DWORD PTR [edi+916]
  0000a	c7 07 00 00 00
	00		 mov	 DWORD PTR [edi], OFFSET ??_7COutLookBarDlg@@6B@
  00010	ff 15 00 00 00
	00		 call	 DWORD PTR __imp_??1?$CStringT@DV?$StrTraitMFC_DLL@DV?$ChTraitsCRT@D@ATL@@@@@ATL@@QAE@XZ
  00016	8d 8f 90 03 00
	00		 lea	 ecx, DWORD PTR [edi+912]
  0001c	ff 15 00 00 00
	00		 call	 DWORD PTR __imp_??1?$CStringT@DV?$StrTraitMFC_DLL@DV?$ChTraitsCRT@D@ATL@@@@@ATL@@QAE@XZ
  00022	8d 8f 8c 03 00
	00		 lea	 ecx, DWORD PTR [edi+908]
  00028	ff 15 00 00 00
	00		 call	 DWORD PTR __imp_??1?$CStringT@DV?$StrTraitMFC_DLL@DV?$ChTraitsCRT@D@ATL@@@@@ATL@@QAE@XZ

; 36   : }

  0002e	8d 8f 74 03 00
	00		 lea	 ecx, DWORD PTR [edi+884]
  00034	e8 00 00 00 00	 call	 ??1CStringArray@@UAE@XZ	; CStringArray::~CStringArray
  00039	8d 8f 70 03 00
	00		 lea	 ecx, DWORD PTR [edi+880]
  0003f	ff 15 00 00 00
	00		 call	 DWORD PTR __imp_??1?$CStringT@DV?$StrTraitMFC_DLL@DV?$ChTraitsCRT@D@ATL@@@@@ATL@@QAE@XZ
  00045	8d 8f 6c 03 00
	00		 lea	 ecx, DWORD PTR [edi+876]
  0004b	ff 15 00 00 00
	00		 call	 DWORD PTR __imp_??1?$CStringT@DV?$StrTraitMFC_DLL@DV?$ChTraitsCRT@D@ATL@@@@@ATL@@QAE@XZ
  00051	8d 8f 68 03 00
	00		 lea	 ecx, DWORD PTR [edi+872]
  00057	ff 15 00 00 00
	00		 call	 DWORD PTR __imp_??1?$CStringT@DV?$StrTraitMFC_DLL@DV?$ChTraitsCRT@D@ATL@@@@@ATL@@QAE@XZ
  0005d	8d 8f 64 03 00
	00		 lea	 ecx, DWORD PTR [edi+868]
  00063	ff 15 00 00 00
	00		 call	 DWORD PTR __imp_??1?$CStringT@DV?$StrTraitMFC_DLL@DV?$ChTraitsCRT@D@ATL@@@@@ATL@@QAE@XZ
  00069	8d 8f 50 03 00
	00		 lea	 ecx, DWORD PTR [edi+848]
  0006f	e8 00 00 00 00	 call	 ??1CStringArray@@UAE@XZ	; CStringArray::~CStringArray
  00074	8d 8f 48 03 00
	00		 lea	 ecx, DWORD PTR [edi+840]
; File C:\Program Files (x86)\Microsoft Visual Studio\2019\Community\VC\Tools\MSVC\14.29.30133\atlmfc\include\afxwin1.inl

; 130  : 	{ }

  0007a	c7 01 00 00 00
	00		 mov	 DWORD PTR [ecx], OFFSET ??_7CBrush@@6B@
  00080	e8 00 00 00 00	 call	 ??1CGdiObject@@UAE@XZ	; CGdiObject::~CGdiObject
; File D:\git\src\IBK\IBK_DRFN\ProjSrc\SrcDrfn\Chart\HWSTRATEGYCONFIGUREWIZARD\OutLookBarDlg.cpp

; 36   : }

  00085	8d 8f 38 03 00
	00		 lea	 ecx, DWORD PTR [edi+824]
  0008b	e8 00 00 00 00	 call	 ??1CImageList@@UAE@XZ	; CImageList::~CImageList
  00090	8d 8f 30 03 00
	00		 lea	 ecx, DWORD PTR [edi+816]
  00096	e8 00 00 00 00	 call	 ??1CImageList@@UAE@XZ	; CImageList::~CImageList
  0009b	8d 8f c8 01 00
	00		 lea	 ecx, DWORD PTR [edi+456]
  000a1	e8 00 00 00 00	 call	 ??1CSTGfxOutBarCtrl@@UAE@XZ ; CSTGfxOutBarCtrl::~CSTGfxOutBarCtrl
  000a6	8d 8f 38 01 00
	00		 lea	 ecx, DWORD PTR [edi+312]
  000ac	e8 00 00 00 00	 call	 ??1CExDrawButton@@UAE@XZ ; CExDrawButton::~CExDrawButton
  000b1	8d 8f a8 00 00
	00		 lea	 ecx, DWORD PTR [edi+168]
  000b7	e8 00 00 00 00	 call	 ??1CExDrawButton@@UAE@XZ ; CExDrawButton::~CExDrawButton
  000bc	8b cf		 mov	 ecx, edi
  000be	5f		 pop	 edi
  000bf	5e		 pop	 esi
  000c0	e9 00 00 00 00	 jmp	 ??1CDialog@@UAE@XZ	; CDialog::~CDialog
??1COutLookBarDlg@@UAE@XZ ENDP				; COutLookBarDlg::~COutLookBarDlg
_TEXT	ENDS
; Function compile flags: /Ogtp
; File D:\git\src\IBK\IBK_DRFN\ProjSrc\SrcDrfn\Chart\HWSTRATEGYCONFIGUREWIZARD\OutLookBarDlg.cpp
; File C:\Program Files (x86)\Microsoft Visual Studio\2019\Community\VC\Tools\MSVC\14.29.30133\atlmfc\include\afxwin1.inl
; File D:\git\src\IBK\IBK_DRFN\ProjSrc\SrcDrfn\Chart\HWSTRATEGYCONFIGUREWIZARD\OutLookBarDlg.cpp
; File C:\Program Files (x86)\Microsoft Visual Studio\2019\Community\VC\Tools\MSVC\14.29.30133\atlmfc\include\afxcoll.inl
; File D:\git\src\IBK\IBK_DRFN\ProjSrc\SrcDrfn\Chart\HWSTRATEGYCONFIGUREWIZARD\OutLookBarDlg.cpp
; File C:\Program Files (x86)\Microsoft Visual Studio\2019\Community\VC\Tools\MSVC\14.29.30133\atlmfc\include\afxcoll.inl
; File D:\git\src\IBK\IBK_DRFN\ProjSrc\SrcDrfn\Chart\HWSTRATEGYCONFIGUREWIZARD\OutLookBarDlg.cpp
;	COMDAT ??0COutLookBarDlg@@QAE@PAVCWnd@@@Z
_TEXT	SEGMENT
_this$ = -16						; size = 4
__$EHRec$ = -12						; size = 12
_pParent$ = 8						; size = 4
??0COutLookBarDlg@@QAE@PAVCWnd@@@Z PROC			; COutLookBarDlg::COutLookBarDlg, COMDAT
; _this$ = ecx

; 28   : {

  00000	55		 push	 ebp
  00001	8b ec		 mov	 ebp, esp
  00003	6a ff		 push	 -1
  00005	68 00 00 00 00	 push	 __ehhandler$??0COutLookBarDlg@@QAE@PAVCWnd@@@Z
  0000a	64 a1 00 00 00
	00		 mov	 eax, DWORD PTR fs:0
  00010	50		 push	 eax
  00011	51		 push	 ecx
  00012	53		 push	 ebx
  00013	56		 push	 esi
  00014	57		 push	 edi
  00015	a1 00 00 00 00	 mov	 eax, DWORD PTR ___security_cookie
  0001a	33 c5		 xor	 eax, ebp
  0001c	50		 push	 eax
  0001d	8d 45 f4	 lea	 eax, DWORD PTR __$EHRec$[ebp]
  00020	64 a3 00 00 00
	00		 mov	 DWORD PTR fs:0, eax
  00026	8b f1		 mov	 esi, ecx
  00028	89 75 f0	 mov	 DWORD PTR _this$[ebp], esi

; 27   : 	: CDialog(COutLookBarDlg::IDD, pParent)

  0002b	8b 5d 08	 mov	 ebx, DWORD PTR _pParent$[ebp]
  0002e	53		 push	 ebx
  0002f	68 21 04 00 00	 push	 1057			; 00000421H
  00034	e8 00 00 00 00	 call	 ??0CDialog@@QAE@IPAVCWnd@@@Z ; CDialog::CDialog

; 28   : {

  00039	6a 00		 push	 0
  0003b	8d 8e a8 00 00
	00		 lea	 ecx, DWORD PTR [esi+168]
  00041	c7 45 fc 00 00
	00 00		 mov	 DWORD PTR __$EHRec$[ebp+8], 0
  00048	c7 06 00 00 00
	00		 mov	 DWORD PTR [esi], OFFSET ??_7COutLookBarDlg@@6B@
  0004e	e8 00 00 00 00	 call	 ??0CExDrawButton@@QAE@H@Z ; CExDrawButton::CExDrawButton
  00053	6a 00		 push	 0
  00055	8d 8e 38 01 00
	00		 lea	 ecx, DWORD PTR [esi+312]
  0005b	c6 45 fc 01	 mov	 BYTE PTR __$EHRec$[ebp+8], 1
  0005f	e8 00 00 00 00	 call	 ??0CExDrawButton@@QAE@H@Z ; CExDrawButton::CExDrawButton
  00064	8d 8e c8 01 00
	00		 lea	 ecx, DWORD PTR [esi+456]
  0006a	c6 45 fc 02	 mov	 BYTE PTR __$EHRec$[ebp+8], 2
  0006e	e8 00 00 00 00	 call	 ??0CSTGfxOutBarCtrl@@QAE@XZ ; CSTGfxOutBarCtrl::CSTGfxOutBarCtrl
  00073	8d 8e 30 03 00
	00		 lea	 ecx, DWORD PTR [esi+816]
  00079	c6 45 fc 03	 mov	 BYTE PTR __$EHRec$[ebp+8], 3
  0007d	e8 00 00 00 00	 call	 ??0CImageList@@QAE@XZ	; CImageList::CImageList
  00082	8d 8e 38 03 00
	00		 lea	 ecx, DWORD PTR [esi+824]
  00088	c6 45 fc 04	 mov	 BYTE PTR __$EHRec$[ebp+8], 4
  0008c	e8 00 00 00 00	 call	 ??0CImageList@@QAE@XZ	; CImageList::CImageList
; File C:\Program Files (x86)\Microsoft Visual Studio\2019\Community\VC\Tools\MSVC\14.29.30133\atlmfc\include\afxwin1.inl

; 70   : 	{ m_hObject = NULL; }

  00091	c7 86 4c 03 00
	00 00 00 00 00	 mov	 DWORD PTR [esi+844], 0

; 128  : 	{ }

  0009b	c7 86 48 03 00
	00 00 00 00 00	 mov	 DWORD PTR [esi+840], OFFSET ??_7CBrush@@6B@
; File D:\git\src\IBK\IBK_DRFN\ProjSrc\SrcDrfn\Chart\HWSTRATEGYCONFIGUREWIZARD\OutLookBarDlg.cpp

; 28   : {

  000a5	8d be 50 03 00
	00		 lea	 edi, DWORD PTR [esi+848]
  000ab	c6 45 fc 06	 mov	 BYTE PTR __$EHRec$[ebp+8], 6
  000af	8b cf		 mov	 ecx, edi
  000b1	e8 00 00 00 00	 call	 ??0CStringArray@@QAE@XZ	; CStringArray::CStringArray
  000b6	8d 8e 64 03 00
	00		 lea	 ecx, DWORD PTR [esi+868]
  000bc	ff 15 00 00 00
	00		 call	 DWORD PTR __imp_??0?$CStringT@DV?$StrTraitMFC_DLL@DV?$ChTraitsCRT@D@ATL@@@@@ATL@@QAE@XZ
  000c2	8d 8e 68 03 00
	00		 lea	 ecx, DWORD PTR [esi+872]
  000c8	ff 15 00 00 00
	00		 call	 DWORD PTR __imp_??0?$CStringT@DV?$StrTraitMFC_DLL@DV?$ChTraitsCRT@D@ATL@@@@@ATL@@QAE@XZ
  000ce	8d 8e 6c 03 00
	00		 lea	 ecx, DWORD PTR [esi+876]
  000d4	ff 15 00 00 00
	00		 call	 DWORD PTR __imp_??0?$CStringT@DV?$StrTraitMFC_DLL@DV?$ChTraitsCRT@D@ATL@@@@@ATL@@QAE@XZ
  000da	8d 8e 70 03 00
	00		 lea	 ecx, DWORD PTR [esi+880]
  000e0	ff 15 00 00 00
	00		 call	 DWORD PTR __imp_??0?$CStringT@DV?$StrTraitMFC_DLL@DV?$ChTraitsCRT@D@ATL@@@@@ATL@@QAE@XZ
  000e6	8d 8e 74 03 00
	00		 lea	 ecx, DWORD PTR [esi+884]
  000ec	c6 45 fc 0b	 mov	 BYTE PTR __$EHRec$[ebp+8], 11 ; 0000000bH
  000f0	e8 00 00 00 00	 call	 ??0CStringArray@@QAE@XZ	; CStringArray::CStringArray
  000f5	8d 8e 8c 03 00
	00		 lea	 ecx, DWORD PTR [esi+908]
  000fb	ff 15 00 00 00
	00		 call	 DWORD PTR __imp_??0?$CStringT@DV?$StrTraitMFC_DLL@DV?$ChTraitsCRT@D@ATL@@@@@ATL@@QAE@XZ
  00101	8d 8e 90 03 00
	00		 lea	 ecx, DWORD PTR [esi+912]
  00107	ff 15 00 00 00
	00		 call	 DWORD PTR __imp_??0?$CStringT@DV?$StrTraitMFC_DLL@DV?$ChTraitsCRT@D@ATL@@@@@ATL@@QAE@XZ
  0010d	8d 8e 94 03 00
	00		 lea	 ecx, DWORD PTR [esi+916]
  00113	ff 15 00 00 00
	00		 call	 DWORD PTR __imp_??0?$CStringT@DV?$StrTraitMFC_DLL@DV?$ChTraitsCRT@D@ATL@@@@@ATL@@QAE@XZ
; File C:\Program Files (x86)\Microsoft Visual Studio\2019\Community\VC\Tools\MSVC\14.29.30133\atlmfc\include\afxcoll.inl

; 286  : 	{ SetSize(0); }

  00119	6a ff		 push	 -1
  0011b	6a 00		 push	 0
  0011d	8b cf		 mov	 ecx, edi
; File D:\git\src\IBK\IBK_DRFN\ProjSrc\SrcDrfn\Chart\HWSTRATEGYCONFIGUREWIZARD\OutLookBarDlg.cpp

; 28   : {

  0011f	c6 45 fc 0d	 mov	 BYTE PTR __$EHRec$[ebp+8], 13 ; 0000000dH

; 29   : 	m_pParentWnd = pParent;

  00123	89 9e 94 00 00
	00		 mov	 DWORD PTR [esi+148], ebx

; 30   : 	m_crBk = CRBACKGROUND;

  00129	c7 86 44 03 00
	00 b1 c7 ea 00	 mov	 DWORD PTR [esi+836], 15386545 ; 00eac7b1H
; File C:\Program Files (x86)\Microsoft Visual Studio\2019\Community\VC\Tools\MSVC\14.29.30133\atlmfc\include\afxcoll.inl

; 286  : 	{ SetSize(0); }

  00133	e8 00 00 00 00	 call	 ?SetSize@CStringArray@@QAEXHH@Z ; CStringArray::SetSize
; File D:\git\src\IBK\IBK_DRFN\ProjSrc\SrcDrfn\Chart\HWSTRATEGYCONFIGUREWIZARD\OutLookBarDlg.cpp

; 32   : }

  00138	8b c6		 mov	 eax, esi
  0013a	8b 4d f4	 mov	 ecx, DWORD PTR __$EHRec$[ebp]
  0013d	64 89 0d 00 00
	00 00		 mov	 DWORD PTR fs:0, ecx
  00144	59		 pop	 ecx
  00145	5f		 pop	 edi
  00146	5e		 pop	 esi
  00147	5b		 pop	 ebx
  00148	8b e5		 mov	 esp, ebp
  0014a	5d		 pop	 ebp
  0014b	c2 04 00	 ret	 4
_TEXT	ENDS
;	COMDAT text$x
text$x	SEGMENT
__unwindfunclet$??0COutLookBarDlg@@QAE@PAVCWnd@@@Z$0:
  00000	8b 4d f0	 mov	 ecx, DWORD PTR _this$[ebp]
  00003	e9 00 00 00 00	 jmp	 ??1CDialog@@UAE@XZ	; CDialog::~CDialog
__unwindfunclet$??0COutLookBarDlg@@QAE@PAVCWnd@@@Z$1:
  00008	8b 4d f0	 mov	 ecx, DWORD PTR _this$[ebp]
  0000b	81 c1 a8 00 00
	00		 add	 ecx, 168		; 000000a8H
  00011	e9 00 00 00 00	 jmp	 ??1CExDrawButton@@UAE@XZ ; CExDrawButton::~CExDrawButton
__unwindfunclet$??0COutLookBarDlg@@QAE@PAVCWnd@@@Z$2:
  00016	8b 4d f0	 mov	 ecx, DWORD PTR _this$[ebp]
  00019	81 c1 38 01 00
	00		 add	 ecx, 312		; 00000138H
  0001f	e9 00 00 00 00	 jmp	 ??1CExDrawButton@@UAE@XZ ; CExDrawButton::~CExDrawButton
__unwindfunclet$??0COutLookBarDlg@@QAE@PAVCWnd@@@Z$3:
  00024	8b 4d f0	 mov	 ecx, DWORD PTR _this$[ebp]
  00027	81 c1 c8 01 00
	00		 add	 ecx, 456		; 000001c8H
  0002d	e9 00 00 00 00	 jmp	 ??1CSTGfxOutBarCtrl@@UAE@XZ ; CSTGfxOutBarCtrl::~CSTGfxOutBarCtrl
__unwindfunclet$??0COutLookBarDlg@@QAE@PAVCWnd@@@Z$4:
  00032	8b 4d f0	 mov	 ecx, DWORD PTR _this$[ebp]
  00035	81 c1 30 03 00
	00		 add	 ecx, 816		; 00000330H
  0003b	e9 00 00 00 00	 jmp	 ??1CImageList@@UAE@XZ	; CImageList::~CImageList
__unwindfunclet$??0COutLookBarDlg@@QAE@PAVCWnd@@@Z$5:
  00040	8b 4d f0	 mov	 ecx, DWORD PTR _this$[ebp]
  00043	81 c1 38 03 00
	00		 add	 ecx, 824		; 00000338H
  00049	e9 00 00 00 00	 jmp	 ??1CImageList@@UAE@XZ	; CImageList::~CImageList
__unwindfunclet$??0COutLookBarDlg@@QAE@PAVCWnd@@@Z$6:
  0004e	8b 4d f0	 mov	 ecx, DWORD PTR _this$[ebp]
  00051	81 c1 48 03 00
	00		 add	 ecx, 840		; 00000348H
  00057	e9 00 00 00 00	 jmp	 ??1CBrush@@UAE@XZ	; CBrush::~CBrush
__unwindfunclet$??0COutLookBarDlg@@QAE@PAVCWnd@@@Z$7:
  0005c	8b 4d f0	 mov	 ecx, DWORD PTR _this$[ebp]
  0005f	81 c1 50 03 00
	00		 add	 ecx, 848		; 00000350H
  00065	e9 00 00 00 00	 jmp	 ??1CStringArray@@UAE@XZ	; CStringArray::~CStringArray
__unwindfunclet$??0COutLookBarDlg@@QAE@PAVCWnd@@@Z$8:
  0006a	8b 4d f0	 mov	 ecx, DWORD PTR _this$[ebp]
  0006d	81 c1 64 03 00
	00		 add	 ecx, 868		; 00000364H
  00073	ff 25 00 00 00
	00		 jmp	 DWORD PTR __imp_??1?$CStringT@DV?$StrTraitMFC_DLL@DV?$ChTraitsCRT@D@ATL@@@@@ATL@@QAE@XZ
__unwindfunclet$??0COutLookBarDlg@@QAE@PAVCWnd@@@Z$9:
  00079	8b 4d f0	 mov	 ecx, DWORD PTR _this$[ebp]
  0007c	81 c1 68 03 00
	00		 add	 ecx, 872		; 00000368H
  00082	ff 25 00 00 00
	00		 jmp	 DWORD PTR __imp_??1?$CStringT@DV?$StrTraitMFC_DLL@DV?$ChTraitsCRT@D@ATL@@@@@ATL@@QAE@XZ
__unwindfunclet$??0COutLookBarDlg@@QAE@PAVCWnd@@@Z$10:
  00088	8b 4d f0	 mov	 ecx, DWORD PTR _this$[ebp]
  0008b	81 c1 6c 03 00
	00		 add	 ecx, 876		; 0000036cH
  00091	ff 25 00 00 00
	00		 jmp	 DWORD PTR __imp_??1?$CStringT@DV?$StrTraitMFC_DLL@DV?$ChTraitsCRT@D@ATL@@@@@ATL@@QAE@XZ
__unwindfunclet$??0COutLookBarDlg@@QAE@PAVCWnd@@@Z$11:
  00097	8b 4d f0	 mov	 ecx, DWORD PTR _this$[ebp]
  0009a	81 c1 70 03 00
	00		 add	 ecx, 880		; 00000370H
  000a0	ff 25 00 00 00
	00		 jmp	 DWORD PTR __imp_??1?$CStringT@DV?$StrTraitMFC_DLL@DV?$ChTraitsCRT@D@ATL@@@@@ATL@@QAE@XZ
__unwindfunclet$??0COutLookBarDlg@@QAE@PAVCWnd@@@Z$12:
  000a6	8b 4d f0	 mov	 ecx, DWORD PTR _this$[ebp]
  000a9	81 c1 74 03 00
	00		 add	 ecx, 884		; 00000374H
  000af	e9 00 00 00 00	 jmp	 ??1CStringArray@@UAE@XZ	; CStringArray::~CStringArray
__unwindfunclet$??0COutLookBarDlg@@QAE@PAVCWnd@@@Z$13:
  000b4	8b 4d f0	 mov	 ecx, DWORD PTR _this$[ebp]
  000b7	81 c1 8c 03 00
	00		 add	 ecx, 908		; 0000038cH
  000bd	e9 00 00 00 00	 jmp	 ??1STMNG_ITEMINFO@@QAE@XZ
  000c2	cc		 int	 3
  000c3	cc		 int	 3
  000c4	cc		 int	 3
  000c5	cc		 int	 3
  000c6	cc		 int	 3
__ehhandler$??0COutLookBarDlg@@QAE@PAVCWnd@@@Z:
  000c7	90		 npad	 1
  000c8	90		 npad	 1
  000c9	8b 54 24 08	 mov	 edx, DWORD PTR [esp+8]
  000cd	8d 42 0c	 lea	 eax, DWORD PTR [edx+12]
  000d0	8b 4a ec	 mov	 ecx, DWORD PTR [edx-20]
  000d3	33 c8		 xor	 ecx, eax
  000d5	e8 00 00 00 00	 call	 @__security_check_cookie@4
  000da	b8 00 00 00 00	 mov	 eax, OFFSET __ehfuncinfo$??0COutLookBarDlg@@QAE@PAVCWnd@@@Z
  000df	e9 00 00 00 00	 jmp	 ___CxxFrameHandler3
text$x	ENDS
??0COutLookBarDlg@@QAE@PAVCWnd@@@Z ENDP			; COutLookBarDlg::COutLookBarDlg
; Function compile flags: /Ogtp
; File D:\git\src\IBK\IBK_DRFN\ProjSrc\SrcDrfn\Chart\HWSTRATEGYCONFIGUREWIZARD\OutLookBarDlg.cpp
;	COMDAT ?GetRuntimeClass@COutLookBarDlg@@UBEPAUCRuntimeClass@@XZ
_TEXT	SEGMENT
?GetRuntimeClass@COutLookBarDlg@@UBEPAUCRuntimeClass@@XZ PROC ; COutLookBarDlg::GetRuntimeClass, COMDAT
; _this$ = ecx

; 25   : IMPLEMENT_DYNAMIC(COutLookBarDlg, CDialog)

  00000	b8 00 00 00 00	 mov	 eax, OFFSET ?classCOutLookBarDlg@COutLookBarDlg@@2UCRuntimeClass@@B ; COutLookBarDlg::classCOutLookBarDlg
  00005	c3		 ret	 0
?GetRuntimeClass@COutLookBarDlg@@UBEPAUCRuntimeClass@@XZ ENDP ; COutLookBarDlg::GetRuntimeClass
_TEXT	ENDS
; Function compile flags: /Ogtp
; File D:\git\src\IBK\IBK_DRFN\ProjSrc\SrcDrfn\Chart\HWSTRATEGYCONFIGUREWIZARD\OutLookBarDlg.cpp
;	COMDAT ?GetThisClass@COutLookBarDlg@@SGPAUCRuntimeClass@@XZ
_TEXT	SEGMENT
?GetThisClass@COutLookBarDlg@@SGPAUCRuntimeClass@@XZ PROC ; COutLookBarDlg::GetThisClass, COMDAT

; 25   : IMPLEMENT_DYNAMIC(COutLookBarDlg, CDialog)

  00000	b8 00 00 00 00	 mov	 eax, OFFSET ?classCOutLookBarDlg@COutLookBarDlg@@2UCRuntimeClass@@B ; COutLookBarDlg::classCOutLookBarDlg
  00005	c3		 ret	 0
?GetThisClass@COutLookBarDlg@@SGPAUCRuntimeClass@@XZ ENDP ; COutLookBarDlg::GetThisClass
_TEXT	ENDS
; Function compile flags: /Ogtp
; File D:\git\src\IBK\IBK_DRFN\ProjSrc\SrcDrfn\Chart\HWSTRATEGYCONFIGUREWIZARD\OutLookBarDlg.cpp
;	COMDAT ?_GetBaseClass@COutLookBarDlg@@KGPAUCRuntimeClass@@XZ
_TEXT	SEGMENT
?_GetBaseClass@COutLookBarDlg@@KGPAUCRuntimeClass@@XZ PROC ; COutLookBarDlg::_GetBaseClass, COMDAT

; 25   : IMPLEMENT_DYNAMIC(COutLookBarDlg, CDialog)

  00000	e9 00 00 00 00	 jmp	 ?GetThisClass@CDialog@@SGPAUCRuntimeClass@@XZ ; CDialog::GetThisClass
?_GetBaseClass@COutLookBarDlg@@KGPAUCRuntimeClass@@XZ ENDP ; COutLookBarDlg::_GetBaseClass
_TEXT	ENDS
; Function compile flags: /Ogtp
; File D:\git\src\IBK\IBK_DRFN\ProjSrc\SrcDrfn\inc\ExCommonHeader.h
;	COMDAT ??__ERMSG_LSHAREDCHANGED@@YAXXZ
text$di	SEGMENT
??__ERMSG_LSHAREDCHANGED@@YAXXZ PROC			; `dynamic initializer for 'RMSG_LSHAREDCHANGED'', COMDAT

; 116  : const UINT RMSG_LSHAREDCHANGED = ::RegisterWindowMessage("RMSG_LSHAREDCHANGED");

  00000	68 00 00 00 00	 push	 OFFSET ??_C@_0BE@IEJDDJPC@RMSG_LSHAREDCHANGED@
  00005	ff 15 00 00 00
	00		 call	 DWORD PTR __imp__RegisterWindowMessageA@4
  0000b	a3 00 00 00 00	 mov	 DWORD PTR ?RMSG_LSHAREDCHANGED@@3IB, eax
  00010	c3		 ret	 0
??__ERMSG_LSHAREDCHANGED@@YAXXZ ENDP			; `dynamic initializer for 'RMSG_LSHAREDCHANGED''
text$di	ENDS
; Function compile flags: /Ogtp
; File D:\git\src\IBK\IBK_DRFN\ProjSrc\SrcDrfn\inc\ExCommonHeader.h
;	COMDAT ??__ERMSG_ENDSCROLLPOS@@YAXXZ
text$di	SEGMENT
??__ERMSG_ENDSCROLLPOS@@YAXXZ PROC			; `dynamic initializer for 'RMSG_ENDSCROLLPOS'', COMDAT

; 114  : const UINT RMSG_ENDSCROLLPOS = ::RegisterWindowMessage(_T("RMSG_ENDSCROLLPOS"));

  00000	68 00 00 00 00	 push	 OFFSET ??_C@_0BC@EMMLKNDL@RMSG_ENDSCROLLPOS@
  00005	ff 15 00 00 00
	00		 call	 DWORD PTR __imp__RegisterWindowMessageA@4
  0000b	a3 00 00 00 00	 mov	 DWORD PTR ?RMSG_ENDSCROLLPOS@@3IB, eax
  00010	c3		 ret	 0
??__ERMSG_ENDSCROLLPOS@@YAXXZ ENDP			; `dynamic initializer for 'RMSG_ENDSCROLLPOS''
text$di	ENDS
; Function compile flags: /Ogtp
; File D:\git\src\IBK\IBK_DRFN\ProjSrc\SrcDrfn\inc\ExCommonHeader.h
;	COMDAT ??__ERMSG_LBTNDOWN@@YAXXZ
text$di	SEGMENT
??__ERMSG_LBTNDOWN@@YAXXZ PROC				; `dynamic initializer for 'RMSG_LBTNDOWN'', COMDAT

; 111  : const UINT RMSG_LBTNDOWN = ::RegisterWindowMessage(_T("RMSG_LBTNDOWN"));

  00000	68 00 00 00 00	 push	 OFFSET ??_C@_0O@DGNCFOOP@RMSG_LBTNDOWN@
  00005	ff 15 00 00 00
	00		 call	 DWORD PTR __imp__RegisterWindowMessageA@4
  0000b	a3 00 00 00 00	 mov	 DWORD PTR ?RMSG_LBTNDOWN@@3IB, eax
  00010	c3		 ret	 0
??__ERMSG_LBTNDOWN@@YAXXZ ENDP				; `dynamic initializer for 'RMSG_LBTNDOWN''
text$di	ENDS
; Function compile flags: /Ogtp
; File D:\git\src\IBK\IBK_DRFN\ProjSrc\SrcDrfn\inc\ExCommonHeader.h
;	COMDAT ??__ERMSG_LBTNDBLCLICK@@YAXXZ
text$di	SEGMENT
??__ERMSG_LBTNDBLCLICK@@YAXXZ PROC			; `dynamic initializer for 'RMSG_LBTNDBLCLICK'', COMDAT

; 108  : const UINT RMSG_LBTNDBLCLICK = ::RegisterWindowMessage(_T("RMSG_LBTNDBLCLICK"));

  00000	68 00 00 00 00	 push	 OFFSET ??_C@_0BC@MMIGKJED@RMSG_LBTNDBLCLICK@
  00005	ff 15 00 00 00
	00		 call	 DWORD PTR __imp__RegisterWindowMessageA@4
  0000b	a3 00 00 00 00	 mov	 DWORD PTR ?RMSG_LBTNDBLCLICK@@3IB, eax
  00010	c3		 ret	 0
??__ERMSG_LBTNDBLCLICK@@YAXXZ ENDP			; `dynamic initializer for 'RMSG_LBTNDBLCLICK''
text$di	ENDS
; Function compile flags: /Ogtp
; File D:\git\src\IBK\IBK_DRFN\ProjSrc\SrcDrfn\inc\ExCommonHeader.h
;	COMDAT ??__ERMSG_TABSTOP@@YAXXZ
text$di	SEGMENT
??__ERMSG_TABSTOP@@YAXXZ PROC				; `dynamic initializer for 'RMSG_TABSTOP'', COMDAT

; 104  : const UINT RMSG_TABSTOP = ::RegisterWindowMessage(_T("RMSG_TABSTOP"));

  00000	68 00 00 00 00	 push	 OFFSET ??_C@_0N@IMGBDGND@RMSG_TABSTOP@
  00005	ff 15 00 00 00
	00		 call	 DWORD PTR __imp__RegisterWindowMessageA@4
  0000b	a3 00 00 00 00	 mov	 DWORD PTR ?RMSG_TABSTOP@@3IB, eax
  00010	c3		 ret	 0
??__ERMSG_TABSTOP@@YAXXZ ENDP				; `dynamic initializer for 'RMSG_TABSTOP''
text$di	ENDS
; Function compile flags: /Ogtp
; File D:\git\src\IBK\IBK_DRFN\ProjSrc\SrcDrfn\inc\ExCommonHeader.h
;	COMDAT ??__ERMSG_FORMSTATECHANGE@@YAXXZ
text$di	SEGMENT
??__ERMSG_FORMSTATECHANGE@@YAXXZ PROC			; `dynamic initializer for 'RMSG_FORMSTATECHANGE'', COMDAT

; 103  : const UINT RMSG_FORMSTATECHANGE = ::RegisterWindowMessage(_T("RMSG_FORMSTATECHANGE"));

  00000	68 00 00 00 00	 push	 OFFSET ??_C@_0BF@FPLDPAEH@RMSG_FORMSTATECHANGE@
  00005	ff 15 00 00 00
	00		 call	 DWORD PTR __imp__RegisterWindowMessageA@4
  0000b	a3 00 00 00 00	 mov	 DWORD PTR ?RMSG_FORMSTATECHANGE@@3IB, eax
  00010	c3		 ret	 0
??__ERMSG_FORMSTATECHANGE@@YAXXZ ENDP			; `dynamic initializer for 'RMSG_FORMSTATECHANGE''
text$di	ENDS
; Function compile flags: /Ogtp
; File D:\git\src\IBK\IBK_DRFN\ProjSrc\SrcDrfn\inc\ExCommonHeader.h
;	COMDAT ??__ERMSG_EVENT_SIGNAL@@YAXXZ
text$di	SEGMENT
??__ERMSG_EVENT_SIGNAL@@YAXXZ PROC			; `dynamic initializer for 'RMSG_EVENT_SIGNAL'', COMDAT

; 101  : const UINT RMSG_EVENT_SIGNAL = ::RegisterWindowMessage(_T("RMSG_EVENT_SIGNAL"));

  00000	68 00 00 00 00	 push	 OFFSET ??_C@_0BC@PGMEIMOI@RMSG_EVENT_SIGNAL@
  00005	ff 15 00 00 00
	00		 call	 DWORD PTR __imp__RegisterWindowMessageA@4
  0000b	a3 00 00 00 00	 mov	 DWORD PTR ?RMSG_EVENT_SIGNAL@@3IB, eax
  00010	c3		 ret	 0
??__ERMSG_EVENT_SIGNAL@@YAXXZ ENDP			; `dynamic initializer for 'RMSG_EVENT_SIGNAL''
text$di	ENDS
; Function compile flags: /Ogtp
; File D:\git\src\IBK\IBK_DRFN\ProjSrc\SrcDrfn\inc\ExCommonHeader.h
;	COMDAT ??__ERMSG_EVENT_SPININPUT@@YAXXZ
text$di	SEGMENT
??__ERMSG_EVENT_SPININPUT@@YAXXZ PROC			; `dynamic initializer for 'RMSG_EVENT_SPININPUT'', COMDAT

; 100  : const UINT RMSG_EVENT_SPININPUT = ::RegisterWindowMessage(_T("RMSG_EVENT_SPININPUT"));

  00000	68 00 00 00 00	 push	 OFFSET ??_C@_0BF@FABJBMLM@RMSG_EVENT_SPININPUT@
  00005	ff 15 00 00 00
	00		 call	 DWORD PTR __imp__RegisterWindowMessageA@4
  0000b	a3 00 00 00 00	 mov	 DWORD PTR ?RMSG_EVENT_SPININPUT@@3IB, eax
  00010	c3		 ret	 0
??__ERMSG_EVENT_SPININPUT@@YAXXZ ENDP			; `dynamic initializer for 'RMSG_EVENT_SPININPUT''
text$di	ENDS
; Function compile flags: /Ogtp
; File D:\git\src\IBK\IBK_DRFN\ProjSrc\SrcDrfn\inc\ExCommonHeader.h
;	COMDAT ??__ERMSG_EVENT_ACCTINPUT@@YAXXZ
text$di	SEGMENT
??__ERMSG_EVENT_ACCTINPUT@@YAXXZ PROC			; `dynamic initializer for 'RMSG_EVENT_ACCTINPUT'', COMDAT

; 99   : const UINT RMSG_EVENT_ACCTINPUT = ::RegisterWindowMessage(_T("RMSG_EVENT_ACCTINPUT"));

  00000	68 00 00 00 00	 push	 OFFSET ??_C@_0BF@LEGBOMJF@RMSG_EVENT_ACCTINPUT@
  00005	ff 15 00 00 00
	00		 call	 DWORD PTR __imp__RegisterWindowMessageA@4
  0000b	a3 00 00 00 00	 mov	 DWORD PTR ?RMSG_EVENT_ACCTINPUT@@3IB, eax
  00010	c3		 ret	 0
??__ERMSG_EVENT_ACCTINPUT@@YAXXZ ENDP			; `dynamic initializer for 'RMSG_EVENT_ACCTINPUT''
text$di	ENDS
; Function compile flags: /Ogtp
; File D:\git\src\IBK\IBK_DRFN\ProjSrc\SrcDrfn\inc\ExCommonHeader.h
;	COMDAT ??__ERMSG_EVENT_CODEINPUT@@YAXXZ
text$di	SEGMENT
??__ERMSG_EVENT_CODEINPUT@@YAXXZ PROC			; `dynamic initializer for 'RMSG_EVENT_CODEINPUT'', COMDAT

; 98   : const UINT RMSG_EVENT_CODEINPUT = ::RegisterWindowMessage(_T("RMSG_EVENT_CODEINPUT"));

  00000	68 00 00 00 00	 push	 OFFSET ??_C@_0BF@JNMMFBNP@RMSG_EVENT_CODEINPUT@
  00005	ff 15 00 00 00
	00		 call	 DWORD PTR __imp__RegisterWindowMessageA@4
  0000b	a3 00 00 00 00	 mov	 DWORD PTR ?RMSG_EVENT_CODEINPUT@@3IB, eax
  00010	c3		 ret	 0
??__ERMSG_EVENT_CODEINPUT@@YAXXZ ENDP			; `dynamic initializer for 'RMSG_EVENT_CODEINPUT''
text$di	ENDS
; Function compile flags: /Ogtp
; File D:\git\src\IBK\IBK_DRFN\ProjSrc\SrcDrfn\inc\ExCommonHeader.h
;	COMDAT ??__ERMSG_FORMINITIALCOMPLETED@@YAXXZ
text$di	SEGMENT
??__ERMSG_FORMINITIALCOMPLETED@@YAXXZ PROC		; `dynamic initializer for 'RMSG_FORMINITIALCOMPLETED'', COMDAT

; 73   : const UINT RMSG_FORMINITIALCOMPLETED = ::RegisterWindowMessage(_T("RMSG_FORMINITIALCOMPLETED"));

  00000	68 00 00 00 00	 push	 OFFSET ??_C@_0BK@FBLMOCPF@RMSG_FORMINITIALCOMPLETED@
  00005	ff 15 00 00 00
	00		 call	 DWORD PTR __imp__RegisterWindowMessageA@4
  0000b	a3 00 00 00 00	 mov	 DWORD PTR ?RMSG_FORMINITIALCOMPLETED@@3IB, eax
  00010	c3		 ret	 0
??__ERMSG_FORMINITIALCOMPLETED@@YAXXZ ENDP		; `dynamic initializer for 'RMSG_FORMINITIALCOMPLETED''
text$di	ENDS
; Function compile flags: /Ogtp
;	COMDAT ??1STLISTITEMDATA@@QAE@XZ
_TEXT	SEGMENT
??1STLISTITEMDATA@@QAE@XZ PROC				; STLISTITEMDATA::~STLISTITEMDATA, COMDAT
; _this$ = ecx
  00000	83 c1 04	 add	 ecx, 4
  00003	ff 25 00 00 00
	00		 jmp	 DWORD PTR __imp_??1?$CStringT@DV?$StrTraitMFC_DLL@DV?$ChTraitsCRT@D@ATL@@@@@ATL@@QAE@XZ
??1STLISTITEMDATA@@QAE@XZ ENDP				; STLISTITEMDATA::~STLISTITEMDATA
_TEXT	ENDS
; Function compile flags: /Ogtp
;	COMDAT ??1STMNG_ITEMINFO@@QAE@XZ
_TEXT	SEGMENT
??1STMNG_ITEMINFO@@QAE@XZ PROC				; STMNG_ITEMINFO::~STMNG_ITEMINFO, COMDAT
; _this$ = ecx
  00000	56		 push	 esi
  00001	8b f1		 mov	 esi, ecx
  00003	8d 4e 08	 lea	 ecx, DWORD PTR [esi+8]
  00006	ff 15 00 00 00
	00		 call	 DWORD PTR __imp_??1?$CStringT@DV?$StrTraitMFC_DLL@DV?$ChTraitsCRT@D@ATL@@@@@ATL@@QAE@XZ
  0000c	8d 4e 04	 lea	 ecx, DWORD PTR [esi+4]
  0000f	ff 15 00 00 00
	00		 call	 DWORD PTR __imp_??1?$CStringT@DV?$StrTraitMFC_DLL@DV?$ChTraitsCRT@D@ATL@@@@@ATL@@QAE@XZ
  00015	8b ce		 mov	 ecx, esi
  00017	5e		 pop	 esi
  00018	ff 25 00 00 00
	00		 jmp	 DWORD PTR __imp_??1?$CStringT@DV?$StrTraitMFC_DLL@DV?$ChTraitsCRT@D@ATL@@@@@ATL@@QAE@XZ
??1STMNG_ITEMINFO@@QAE@XZ ENDP				; STMNG_ITEMINFO::~STMNG_ITEMINFO
_TEXT	ENDS
; Function compile flags: /Ogtp
; File C:\Program Files (x86)\Microsoft Visual Studio\2019\Community\VC\Tools\MSVC\14.29.30133\atlmfc\include\afxwin2.inl
;	COMDAT ?Create@CDialog@@UAEHIPAVCWnd@@@Z
_TEXT	SEGMENT
_nIDTemplate$ = 8					; size = 4
_pParentWnd$ = 12					; size = 4
?Create@CDialog@@UAEHIPAVCWnd@@@Z PROC			; CDialog::Create, COMDAT
; _this$ = ecx

; 585  : 	{ return CDialog::Create(ATL_MAKEINTRESOURCE(nIDTemplate), pParentWnd); }

  00000	55		 push	 ebp
  00001	8b ec		 mov	 ebp, esp
  00003	0f b7 45 08	 movzx	 eax, WORD PTR _nIDTemplate$[ebp]
  00007	89 45 08	 mov	 DWORD PTR _nIDTemplate$[ebp], eax
  0000a	5d		 pop	 ebp
  0000b	e9 00 00 00 00	 jmp	 ?Create@CDialog@@UAEHPBDPAVCWnd@@@Z ; CDialog::Create
?Create@CDialog@@UAEHIPAVCWnd@@@Z ENDP			; CDialog::Create
_TEXT	ENDS
; Function compile flags: /Ogtp
; File C:\Program Files (x86)\Microsoft Visual Studio\2019\Community\VC\Tools\MSVC\14.29.30133\atlmfc\include\afxwin2.inl
;	COMDAT ?EndModalState@CWnd@@UAEXXZ
_TEXT	SEGMENT
?EndModalState@CWnd@@UAEXXZ PROC			; CWnd::EndModalState, COMDAT
; _this$ = ecx

; 567  : 	{ ::EnableWindow(m_hWnd, TRUE); }

  00000	6a 01		 push	 1
  00002	ff 71 20	 push	 DWORD PTR [ecx+32]
  00005	ff 15 00 00 00
	00		 call	 DWORD PTR __imp__EnableWindow@8
  0000b	c3		 ret	 0
?EndModalState@CWnd@@UAEXXZ ENDP			; CWnd::EndModalState
_TEXT	ENDS
; Function compile flags: /Ogtp
; File C:\Program Files (x86)\Microsoft Visual Studio\2019\Community\VC\Tools\MSVC\14.29.30133\atlmfc\include\afxwin2.inl
;	COMDAT ?BeginModalState@CWnd@@UAEXXZ
_TEXT	SEGMENT
?BeginModalState@CWnd@@UAEXXZ PROC			; CWnd::BeginModalState, COMDAT
; _this$ = ecx

; 565  : 	{ ::EnableWindow(m_hWnd, FALSE); }

  00000	6a 00		 push	 0
  00002	ff 71 20	 push	 DWORD PTR [ecx+32]
  00005	ff 15 00 00 00
	00		 call	 DWORD PTR __imp__EnableWindow@8
  0000b	c3		 ret	 0
?BeginModalState@CWnd@@UAEXXZ ENDP			; CWnd::BeginModalState
_TEXT	ENDS
; Function compile flags: /Ogtp
; File C:\Program Files (x86)\Microsoft Visual Studio\2019\Community\VC\Tools\MSVC\14.29.30133\atlmfc\include\afxwin2.inl
;	COMDAT ?DoDataExchange@CWnd@@MAEXPAVCDataExchange@@@Z
_TEXT	SEGMENT
___formal$ = 8						; size = 4
?DoDataExchange@CWnd@@MAEXPAVCDataExchange@@@Z PROC	; CWnd::DoDataExchange, COMDAT
; _this$ = ecx

; 561  : 	{ } // default does nothing

  00000	c2 04 00	 ret	 4
?DoDataExchange@CWnd@@MAEXPAVCDataExchange@@@Z ENDP	; CWnd::DoDataExchange
_TEXT	ENDS
; Function compile flags: /Ogtp
; File C:\Program Files (x86)\Microsoft Visual Studio\2019\Community\VC\Tools\MSVC\14.29.30133\atlmfc\include\afxwin1.inl
; File C:\Program Files (x86)\Microsoft Visual Studio\2019\Community\VC\Tools\MSVC\14.29.30133\atlmfc\include\afx.inl
;	COMDAT ??_GCBitmap@@UAEPAXI@Z
_TEXT	SEGMENT
___flags$ = 8						; size = 4
??_GCBitmap@@UAEPAXI@Z PROC				; CBitmap::`scalar deleting destructor', COMDAT
; _this$ = ecx
  00000	55		 push	 ebp
  00001	8b ec		 mov	 ebp, esp
; File C:\Program Files (x86)\Microsoft Visual Studio\2019\Community\VC\Tools\MSVC\14.29.30133\atlmfc\include\afxwin1.inl

; 179  : 	{ }

  00003	56		 push	 esi
  00004	8b f1		 mov	 esi, ecx
  00006	c7 06 00 00 00
	00		 mov	 DWORD PTR [esi], OFFSET ??_7CBitmap@@6B@
  0000c	e8 00 00 00 00	 call	 ??1CGdiObject@@UAE@XZ	; CGdiObject::~CGdiObject
  00011	8b 45 08	 mov	 eax, DWORD PTR ___flags$[ebp]
  00014	a8 01		 test	 al, 1
  00016	74 1f		 je	 SHORT $LN12@scalar
  00018	a8 04		 test	 al, 4
  0001a	75 10		 jne	 SHORT $LN3@scalar
; File C:\Program Files (x86)\Microsoft Visual Studio\2019\Community\VC\Tools\MSVC\14.29.30133\atlmfc\include\afx.inl

; 112  : 	{ ::operator delete(p); }

  0001c	56		 push	 esi
  0001d	e8 00 00 00 00	 call	 ??3@YAXPAX@Z		; operator delete
  00022	83 c4 04	 add	 esp, 4
  00025	8b c6		 mov	 eax, esi
  00027	5e		 pop	 esi
  00028	5d		 pop	 ebp
  00029	c2 04 00	 ret	 4
$LN3@scalar:
  0002c	6a 08		 push	 8
  0002e	56		 push	 esi
  0002f	e8 00 00 00 00	 call	 ?__global_delete@@YAXPAXI@Z ; __global_delete
  00034	83 c4 08	 add	 esp, 8
$LN12@scalar:
  00037	8b c6		 mov	 eax, esi
  00039	5e		 pop	 esi
  0003a	5d		 pop	 ebp
  0003b	c2 04 00	 ret	 4
??_GCBitmap@@UAEPAXI@Z ENDP				; CBitmap::`scalar deleting destructor'
_TEXT	ENDS
; Function compile flags: /Ogtp
; File C:\Program Files (x86)\Microsoft Visual Studio\2019\Community\VC\Tools\MSVC\14.29.30133\atlmfc\include\afxwin1.inl
;	COMDAT ??1CBitmap@@UAE@XZ
_TEXT	SEGMENT
??1CBitmap@@UAE@XZ PROC					; CBitmap::~CBitmap, COMDAT
; _this$ = ecx

; 179  : 	{ }

  00000	c7 01 00 00 00
	00		 mov	 DWORD PTR [ecx], OFFSET ??_7CBitmap@@6B@
  00006	e9 00 00 00 00	 jmp	 ??1CGdiObject@@UAE@XZ	; CGdiObject::~CGdiObject
??1CBitmap@@UAE@XZ ENDP					; CBitmap::~CBitmap
_TEXT	ENDS
; Function compile flags: /Ogtp
; File C:\Program Files (x86)\Microsoft Visual Studio\2019\Community\VC\Tools\MSVC\14.29.30133\atlmfc\include\afxwin1.inl
; File C:\Program Files (x86)\Microsoft Visual Studio\2019\Community\VC\Tools\MSVC\14.29.30133\atlmfc\include\afx.inl
;	COMDAT ??_GCBrush@@UAEPAXI@Z
_TEXT	SEGMENT
___flags$ = 8						; size = 4
??_GCBrush@@UAEPAXI@Z PROC				; CBrush::`scalar deleting destructor', COMDAT
; _this$ = ecx
  00000	55		 push	 ebp
  00001	8b ec		 mov	 ebp, esp
; File C:\Program Files (x86)\Microsoft Visual Studio\2019\Community\VC\Tools\MSVC\14.29.30133\atlmfc\include\afxwin1.inl

; 130  : 	{ }

  00003	56		 push	 esi
  00004	8b f1		 mov	 esi, ecx
  00006	c7 06 00 00 00
	00		 mov	 DWORD PTR [esi], OFFSET ??_7CBrush@@6B@
  0000c	e8 00 00 00 00	 call	 ??1CGdiObject@@UAE@XZ	; CGdiObject::~CGdiObject
  00011	8b 45 08	 mov	 eax, DWORD PTR ___flags$[ebp]
  00014	a8 01		 test	 al, 1
  00016	74 1f		 je	 SHORT $LN12@scalar
  00018	a8 04		 test	 al, 4
  0001a	75 10		 jne	 SHORT $LN3@scalar
; File C:\Program Files (x86)\Microsoft Visual Studio\2019\Community\VC\Tools\MSVC\14.29.30133\atlmfc\include\afx.inl

; 112  : 	{ ::operator delete(p); }

  0001c	56		 push	 esi
  0001d	e8 00 00 00 00	 call	 ??3@YAXPAX@Z		; operator delete
  00022	83 c4 04	 add	 esp, 4
  00025	8b c6		 mov	 eax, esi
  00027	5e		 pop	 esi
  00028	5d		 pop	 ebp
  00029	c2 04 00	 ret	 4
$LN3@scalar:
  0002c	6a 08		 push	 8
  0002e	56		 push	 esi
  0002f	e8 00 00 00 00	 call	 ?__global_delete@@YAXPAXI@Z ; __global_delete
  00034	83 c4 08	 add	 esp, 8
$LN12@scalar:
  00037	8b c6		 mov	 eax, esi
  00039	5e		 pop	 esi
  0003a	5d		 pop	 ebp
  0003b	c2 04 00	 ret	 4
??_GCBrush@@UAEPAXI@Z ENDP				; CBrush::`scalar deleting destructor'
_TEXT	ENDS
; Function compile flags: /Ogtp
; File C:\Program Files (x86)\Microsoft Visual Studio\2019\Community\VC\Tools\MSVC\14.29.30133\atlmfc\include\afxwin1.inl
;	COMDAT ??1CBrush@@UAE@XZ
_TEXT	SEGMENT
??1CBrush@@UAE@XZ PROC					; CBrush::~CBrush, COMDAT
; _this$ = ecx

; 130  : 	{ }

  00000	c7 01 00 00 00
	00		 mov	 DWORD PTR [ecx], OFFSET ??_7CBrush@@6B@
  00006	e9 00 00 00 00	 jmp	 ??1CGdiObject@@UAE@XZ	; CGdiObject::~CGdiObject
??1CBrush@@UAE@XZ ENDP					; CBrush::~CBrush
_TEXT	ENDS
; Function compile flags: /Ogtp
; File C:\Program Files (x86)\Microsoft Visual Studio\2019\Community\VC\Tools\MSVC\14.29.30133\atlmfc\include\afx.inl
;	COMDAT ??_GCGdiObject@@UAEPAXI@Z
_TEXT	SEGMENT
___flags$ = 8						; size = 4
??_GCGdiObject@@UAEPAXI@Z PROC				; CGdiObject::`scalar deleting destructor', COMDAT
; _this$ = ecx
  00000	55		 push	 ebp
  00001	8b ec		 mov	 ebp, esp
  00003	56		 push	 esi
  00004	8b f1		 mov	 esi, ecx
  00006	e8 00 00 00 00	 call	 ??1CGdiObject@@UAE@XZ	; CGdiObject::~CGdiObject
  0000b	8b 45 08	 mov	 eax, DWORD PTR ___flags$[ebp]
  0000e	a8 01		 test	 al, 1
  00010	74 1f		 je	 SHORT $LN9@scalar
  00012	a8 04		 test	 al, 4
  00014	75 10		 jne	 SHORT $LN3@scalar

; 112  : 	{ ::operator delete(p); }

  00016	56		 push	 esi
  00017	e8 00 00 00 00	 call	 ??3@YAXPAX@Z		; operator delete
  0001c	83 c4 04	 add	 esp, 4
  0001f	8b c6		 mov	 eax, esi
  00021	5e		 pop	 esi
  00022	5d		 pop	 ebp
  00023	c2 04 00	 ret	 4
$LN3@scalar:
  00026	6a 08		 push	 8
  00028	56		 push	 esi
  00029	e8 00 00 00 00	 call	 ?__global_delete@@YAXPAXI@Z ; __global_delete
  0002e	83 c4 08	 add	 esp, 8
$LN9@scalar:
  00031	8b c6		 mov	 eax, esi
  00033	5e		 pop	 esi
  00034	5d		 pop	 ebp
  00035	c2 04 00	 ret	 4
??_GCGdiObject@@UAEPAXI@Z ENDP				; CGdiObject::`scalar deleting destructor'
_TEXT	ENDS
; Function compile flags: /Ogtp
; File C:\Program Files (x86)\Microsoft Visual Studio\2019\Community\VC\Tools\MSVC\14.29.30133\atlmfc\include\afxwin1.inl
;	COMDAT ??1CGdiObject@@UAE@XZ
_TEXT	SEGMENT
_pException$2 = -540					; size = 4
_strMsg$3 = -536					; size = 4
_szErrorMessage$4 = -532				; size = 512
__$ArrayPad$ = -20					; size = 4
__$EHRec$ = -16						; size = 16
??1CGdiObject@@UAE@XZ PROC				; CGdiObject::~CGdiObject, COMDAT
; _this$ = ecx

; 74   : {

  00000	55		 push	 ebp
  00001	8b ec		 mov	 ebp, esp
  00003	6a ff		 push	 -1
  00005	68 00 00 00 00	 push	 __ehhandler$??1CGdiObject@@UAE@XZ
  0000a	64 a1 00 00 00
	00		 mov	 eax, DWORD PTR fs:0
  00010	50		 push	 eax
  00011	81 ec 10 02 00
	00		 sub	 esp, 528		; 00000210H
  00017	a1 00 00 00 00	 mov	 eax, DWORD PTR ___security_cookie
  0001c	33 c5		 xor	 eax, ebp
  0001e	89 45 ec	 mov	 DWORD PTR __$ArrayPad$[ebp], eax
  00021	53		 push	 ebx
  00022	56		 push	 esi
  00023	57		 push	 edi
  00024	50		 push	 eax
  00025	8d 45 f4	 lea	 eax, DWORD PTR __$EHRec$[ebp+4]
  00028	64 a3 00 00 00
	00		 mov	 DWORD PTR fs:0, eax
  0002e	89 65 f0	 mov	 DWORD PTR __$EHRec$[ebp], esp
  00031	c7 01 00 00 00
	00		 mov	 DWORD PTR [ecx], OFFSET ??_7CGdiObject@@6B@

; 75   : 	AFX_BEGIN_DESTRUCTOR

  00037	c7 45 fc 00 00
	00 00		 mov	 DWORD PTR __$EHRec$[ebp+12], 0

; 76   : 	DeleteObject();

  0003e	e8 00 00 00 00	 call	 ?DeleteObject@CGdiObject@@QAEHXZ ; CGdiObject::DeleteObject
$LN18@CGdiObject:

; 78   : }

  00043	8b 4d f4	 mov	 ecx, DWORD PTR __$EHRec$[ebp+4]
  00046	64 89 0d 00 00
	00 00		 mov	 DWORD PTR fs:0, ecx
  0004d	59		 pop	 ecx
  0004e	5f		 pop	 edi
  0004f	5e		 pop	 esi
  00050	5b		 pop	 ebx
  00051	8b 4d ec	 mov	 ecx, DWORD PTR __$ArrayPad$[ebp]
  00054	33 cd		 xor	 ecx, ebp
  00056	e8 00 00 00 00	 call	 @__security_check_cookie@4
  0005b	8b e5		 mov	 esp, ebp
  0005d	5d		 pop	 ebp
  0005e	c3		 ret	 0
__catch$??1CGdiObject@@UAE@XZ$0:

; 77   : 	AFX_END_DESTRUCTOR

  0005f	8d 8d e8 fd ff
	ff		 lea	 ecx, DWORD PTR _strMsg$3[ebp]
  00065	ff 15 00 00 00
	00		 call	 DWORD PTR __imp_??0?$CStringT@DV?$StrTraitMFC_DLL@DV?$ChTraitsCRT@D@ATL@@@@@ATL@@QAE@XZ
  0006b	8b b5 e4 fd ff
	ff		 mov	 esi, DWORD PTR _pException$2[ebp]
  00071	8d 8d ec fd ff
	ff		 lea	 ecx, DWORD PTR _szErrorMessage$4[ebp]
  00077	6a 00		 push	 0
  00079	68 00 02 00 00	 push	 512			; 00000200H
  0007e	51		 push	 ecx
  0007f	8b 06		 mov	 eax, DWORD PTR [esi]
  00081	8b ce		 mov	 ecx, esi
  00083	c6 45 fc 02	 mov	 BYTE PTR __$EHRec$[ebp+12], 2
  00087	ff 50 14	 call	 DWORD PTR [eax+20]
  0008a	85 c0		 test	 eax, eax
  0008c	74 2a		 je	 SHORT $LN9@CGdiObject
  0008e	8d 85 ec fd ff
	ff		 lea	 eax, DWORD PTR _szErrorMessage$4[ebp]
  00094	50		 push	 eax
  00095	6a 4d		 push	 77			; 0000004dH
  00097	68 00 00 00 00	 push	 OFFSET ??_C@_0HD@JJCHHHNK@C?3?2Program?5Files?5?$CIx86?$CJ?2Microsof@
  0009c	68 00 00 00 00	 push	 OFFSET ??_C@_0BP@OIEOKIDM@Exception?5thrown?5in?5destructor@
  000a1	8d 85 e8 fd ff
	ff		 lea	 eax, DWORD PTR _strMsg$3[ebp]
  000a7	68 00 00 00 00	 push	 OFFSET ??_C@_0BB@HBOOMJBF@?$CFTs?5?$CI?$CFTs?3?$CFd?$CJ?6?$CFTs@
  000ac	50		 push	 eax
  000ad	ff 15 00 00 00
	00		 call	 DWORD PTR __imp_?Format@?$CStringT@DV?$StrTraitMFC_DLL@DV?$ChTraitsCRT@D@ATL@@@@@ATL@@QAAXPBDZZ
  000b3	83 c4 18	 add	 esp, 24			; 00000018H
  000b6	eb 21		 jmp	 SHORT $LN10@CGdiObject
$LN9@CGdiObject:
  000b8	6a 4d		 push	 77			; 0000004dH
  000ba	68 00 00 00 00	 push	 OFFSET ??_C@_0HD@JJCHHHNK@C?3?2Program?5Files?5?$CIx86?$CJ?2Microsof@
  000bf	68 00 00 00 00	 push	 OFFSET ??_C@_0BP@OIEOKIDM@Exception?5thrown?5in?5destructor@
  000c4	8d 85 e8 fd ff
	ff		 lea	 eax, DWORD PTR _strMsg$3[ebp]
  000ca	68 00 00 00 00	 push	 OFFSET ??_C@_0N@OMEMOKLE@?$CFTs?5?$CI?$CFTs?3?$CFd?$CJ@
  000cf	50		 push	 eax
  000d0	ff 15 00 00 00
	00		 call	 DWORD PTR __imp_?Format@?$CStringT@DV?$StrTraitMFC_DLL@DV?$ChTraitsCRT@D@ATL@@@@@ATL@@QAAXPBDZZ
  000d6	83 c4 14	 add	 esp, 20			; 00000014H
$LN10@CGdiObject:
  000d9	6a 00		 push	 0
  000db	6a 00		 push	 0
  000dd	ff b5 e8 fd ff
	ff		 push	 DWORD PTR _strMsg$3[ebp]
  000e3	e8 00 00 00 00	 call	 ?AfxMessageBox@@YGHPBDII@Z ; AfxMessageBox
  000e8	8d 8d e8 fd ff
	ff		 lea	 ecx, DWORD PTR _strMsg$3[ebp]
  000ee	ff 15 00 00 00
	00		 call	 DWORD PTR __imp_??1?$CStringT@DV?$StrTraitMFC_DLL@DV?$ChTraitsCRT@D@ATL@@@@@ATL@@QAE@XZ
  000f4	8b 06		 mov	 eax, DWORD PTR [esi]
  000f6	8b ce		 mov	 ecx, esi
  000f8	6a 01		 push	 1
  000fa	ff 50 04	 call	 DWORD PTR [eax+4]
  000fd	b8 00 00 00 00	 mov	 eax, $LN18@CGdiObject
  00102	c3		 ret	 0
_TEXT	ENDS
;	COMDAT text$x
text$x	SEGMENT
__unwindfunclet$??1CGdiObject@@UAE@XZ$2:
  00000	8d 8d e8 fd ff
	ff		 lea	 ecx, DWORD PTR _strMsg$3[ebp]
  00006	ff 25 00 00 00
	00		 jmp	 DWORD PTR __imp_??1?$CStringT@DV?$StrTraitMFC_DLL@DV?$ChTraitsCRT@D@ATL@@@@@ATL@@QAE@XZ
  0000c	cc		 int	 3
  0000d	cc		 int	 3
  0000e	cc		 int	 3
  0000f	cc		 int	 3
  00010	cc		 int	 3
__ehhandler$??1CGdiObject@@UAE@XZ:
  00011	90		 npad	 1
  00012	90		 npad	 1
  00013	8b 54 24 08	 mov	 edx, DWORD PTR [esp+8]
  00017	8d 42 0c	 lea	 eax, DWORD PTR [edx+12]
  0001a	8b 8a e0 fd ff
	ff		 mov	 ecx, DWORD PTR [edx-544]
  00020	33 c8		 xor	 ecx, eax
  00022	e8 00 00 00 00	 call	 @__security_check_cookie@4
  00027	8b 4a f8	 mov	 ecx, DWORD PTR [edx-8]
  0002a	33 c8		 xor	 ecx, eax
  0002c	e8 00 00 00 00	 call	 @__security_check_cookie@4
  00031	b8 00 00 00 00	 mov	 eax, OFFSET __ehfuncinfo$??1CGdiObject@@UAE@XZ
  00036	e9 00 00 00 00	 jmp	 ___CxxFrameHandler3
text$x	ENDS
??1CGdiObject@@UAE@XZ ENDP				; CGdiObject::~CGdiObject
; Function compile flags: /Ogtp
; File C:\Program Files (x86)\Microsoft Visual Studio\2019\Community\VC\Tools\MSVC\14.29.30133\atlmfc\include\cstringt.h
; File C:\Program Files (x86)\Microsoft Visual Studio\2019\Community\VC\Tools\MSVC\14.29.30133\atlmfc\include\atlsimpstr.h
; File C:\Program Files (x86)\Microsoft Visual Studio\2019\Community\VC\Tools\MSVC\14.29.30133\atlmfc\include\cstringt.h
; File C:\Program Files (x86)\Microsoft Visual Studio\2019\Community\VC\Tools\MSVC\14.29.30133\atlmfc\include\atlsimpstr.h
; File C:\Program Files (x86)\Microsoft Visual Studio\2019\Community\VC\Tools\MSVC\14.29.30133\atlmfc\include\cstringt.h
;	COMDAT ??HATL@@YA?AV?$CStringT@DV?$StrTraitMFC_DLL@DV?$ChTraitsCRT@D@ATL@@@@@0@ABV10@PBD@Z
_TEXT	SEGMENT
$T2 = -16						; size = 4
__$EHRec$ = -12						; size = 12
___$ReturnUdt$ = 8					; size = 4
_str1$ = 12						; size = 4
_psz2$ = 16						; size = 4
??HATL@@YA?AV?$CStringT@DV?$StrTraitMFC_DLL@DV?$ChTraitsCRT@D@ATL@@@@@0@ABV10@PBD@Z PROC ; ATL::operator+, COMDAT

; 2400 : 	{

  00000	55		 push	 ebp
  00001	8b ec		 mov	 ebp, esp
  00003	6a ff		 push	 -1
  00005	68 00 00 00 00	 push	 __ehhandler$??HATL@@YA?AV?$CStringT@DV?$StrTraitMFC_DLL@DV?$ChTraitsCRT@D@ATL@@@@@0@ABV10@PBD@Z
  0000a	64 a1 00 00 00
	00		 mov	 eax, DWORD PTR fs:0
  00010	50		 push	 eax
  00011	51		 push	 ecx
  00012	53		 push	 ebx
  00013	56		 push	 esi
  00014	57		 push	 edi
  00015	a1 00 00 00 00	 mov	 eax, DWORD PTR ___security_cookie
  0001a	33 c5		 xor	 eax, ebp
  0001c	50		 push	 eax
  0001d	8d 45 f4	 lea	 eax, DWORD PTR __$EHRec$[ebp]
  00020	64 a3 00 00 00
	00		 mov	 DWORD PTR fs:0, eax

; 2401 : 		CStringT strResult( str1.GetManager() );

  00026	8b 5d 0c	 mov	 ebx, DWORD PTR _str1$[ebp]
  00029	8b cb		 mov	 ecx, ebx
  0002b	c7 45 f0 00 00
	00 00		 mov	 DWORD PTR $T2[ebp], 0
  00032	ff 15 00 00 00
	00		 call	 DWORD PTR __imp_?GetManager@?$CStringT@DV?$StrTraitMFC_DLL@DV?$ChTraitsCRT@D@ATL@@@@@ATL@@QBEPAUIAtlStringMgr@2@XZ
  00038	8b 7d 08	 mov	 edi, DWORD PTR ___$ReturnUdt$[ebp]
  0003b	8b cf		 mov	 ecx, edi
  0003d	50		 push	 eax
  0003e	ff 15 00 00 00
	00		 call	 DWORD PTR __imp_??0?$CStringT@DV?$StrTraitMFC_DLL@DV?$ChTraitsCRT@D@ATL@@@@@ATL@@QAE@PAUIAtlStringMgr@1@@Z
; File C:\Program Files (x86)\Microsoft Visual Studio\2019\Community\VC\Tools\MSVC\14.29.30133\atlmfc\include\atlsimpstr.h

; 722  : 		if( psz == NULL )

  00044	8b 75 10	 mov	 esi, DWORD PTR _psz2$[ebp]
; File C:\Program Files (x86)\Microsoft Visual Studio\2019\Community\VC\Tools\MSVC\14.29.30133\atlmfc\include\cstringt.h

; 2405 : 		return( strResult );

  00047	c7 45 fc 00 00
	00 00		 mov	 DWORD PTR __$EHRec$[ebp+8], 0
  0004e	c7 45 f0 01 00
	00 00		 mov	 DWORD PTR $T2[ebp], 1
; File C:\Program Files (x86)\Microsoft Visual Studio\2019\Community\VC\Tools\MSVC\14.29.30133\atlmfc\include\atlsimpstr.h

; 722  : 		if( psz == NULL )

  00055	85 f6		 test	 esi, esi
  00057	75 04		 jne	 SHORT $LN6@operator

; 723  : 		{
; 724  : 			return( 0 );

  00059	33 d2		 xor	 edx, edx
  0005b	eb 0e		 jmp	 SHORT $LN5@operator
$LN6@operator:

; 725  : 		}
; 726  : 		return( int( strlen( psz ) ) );

  0005d	8b d6		 mov	 edx, esi
  0005f	8d 4a 01	 lea	 ecx, DWORD PTR [edx+1]
$LL14@operator:
  00062	8a 02		 mov	 al, BYTE PTR [edx]
  00064	42		 inc	 edx
  00065	84 c0		 test	 al, al
  00067	75 f9		 jne	 SHORT $LL14@operator
  00069	2b d1		 sub	 edx, ecx
$LN5@operator:

; 519  : 		return( GetData()->nDataLength );

  0006b	8b 0b		 mov	 ecx, DWORD PTR [ebx]
; File C:\Program Files (x86)\Microsoft Visual Studio\2019\Community\VC\Tools\MSVC\14.29.30133\atlmfc\include\cstringt.h

; 2403 : 		CThisSimpleString::Concatenate( strResult, str1, str1.GetLength(), psz2, CThisSimpleString::StringLength( psz2 ) );

  0006d	52		 push	 edx
  0006e	56		 push	 esi
  0006f	ff 71 f4	 push	 DWORD PTR [ecx-12]
  00072	51		 push	 ecx
  00073	57		 push	 edi
  00074	ff 15 00 00 00
	00		 call	 DWORD PTR __imp_?Concatenate@?$CSimpleStringT@D$00@ATL@@KAXAAV12@PBDH1H@Z
  0007a	83 c4 14	 add	 esp, 20			; 00000014H

; 2405 : 		return( strResult );

  0007d	8b c7		 mov	 eax, edi

; 2406 : 	}

  0007f	8b 4d f4	 mov	 ecx, DWORD PTR __$EHRec$[ebp]
  00082	64 89 0d 00 00
	00 00		 mov	 DWORD PTR fs:0, ecx
  00089	59		 pop	 ecx
  0008a	5f		 pop	 edi
  0008b	5e		 pop	 esi
  0008c	5b		 pop	 ebx
  0008d	8b e5		 mov	 esp, ebp
  0008f	5d		 pop	 ebp
  00090	c3		 ret	 0
_TEXT	ENDS
;	COMDAT text$x
text$x	SEGMENT
__unwindfunclet$??HATL@@YA?AV?$CStringT@DV?$StrTraitMFC_DLL@DV?$ChTraitsCRT@D@ATL@@@@@0@ABV10@PBD@Z$0:
  00000	8b 45 f0	 mov	 eax, DWORD PTR $T2[ebp]
  00003	83 e0 01	 and	 eax, 1
  00006	0f 84 0d 00 00
	00		 je	 $LN4@operator
  0000c	83 65 f0 fe	 and	 DWORD PTR $T2[ebp], -2	; fffffffeH
  00010	8b 4d 08	 mov	 ecx, DWORD PTR ___$ReturnUdt$[ebp]
  00013	ff 25 00 00 00
	00		 jmp	 DWORD PTR __imp_??1?$CStringT@DV?$StrTraitMFC_DLL@DV?$ChTraitsCRT@D@ATL@@@@@ATL@@QAE@XZ
$LN4@operator:
  00019	c3		 ret	 0
  0001a	cc		 int	 3
  0001b	cc		 int	 3
  0001c	cc		 int	 3
  0001d	cc		 int	 3
  0001e	cc		 int	 3
__ehhandler$??HATL@@YA?AV?$CStringT@DV?$StrTraitMFC_DLL@DV?$ChTraitsCRT@D@ATL@@@@@0@ABV10@PBD@Z:
  0001f	90		 npad	 1
  00020	90		 npad	 1
  00021	8b 54 24 08	 mov	 edx, DWORD PTR [esp+8]
  00025	8d 42 0c	 lea	 eax, DWORD PTR [edx+12]
  00028	8b 4a ec	 mov	 ecx, DWORD PTR [edx-20]
  0002b	33 c8		 xor	 ecx, eax
  0002d	e8 00 00 00 00	 call	 @__security_check_cookie@4
  00032	b8 00 00 00 00	 mov	 eax, OFFSET __ehfuncinfo$??HATL@@YA?AV?$CStringT@DV?$StrTraitMFC_DLL@DV?$ChTraitsCRT@D@ATL@@@@@0@ABV10@PBD@Z
  00037	e9 00 00 00 00	 jmp	 ___CxxFrameHandler3
text$x	ENDS
??HATL@@YA?AV?$CStringT@DV?$StrTraitMFC_DLL@DV?$ChTraitsCRT@D@ATL@@@@@0@ABV10@PBD@Z ENDP ; ATL::operator+
; Function compile flags: /Ogtp
; File C:\Program Files (x86)\Microsoft Visual Studio\2019\Community\VC\Tools\MSVC\14.29.30133\atlmfc\include\afx.inl
;	COMDAT ?Dump@CObject@@UBEXAAVCDumpContext@@@Z
_TEXT	SEGMENT
___formal$ = 8						; size = 4
?Dump@CObject@@UBEXAAVCDumpContext@@@Z PROC		; CObject::Dump, COMDAT
; _this$ = ecx

; 122  : 	{ /* no dumping in release builds */ }

  00000	c2 04 00	 ret	 4
?Dump@CObject@@UBEXAAVCDumpContext@@@Z ENDP		; CObject::Dump
_TEXT	ENDS
; Function compile flags: /Ogtp
; File C:\Program Files (x86)\Microsoft Visual Studio\2019\Community\VC\Tools\MSVC\14.29.30133\atlmfc\include\afx.inl
;	COMDAT ?AssertValid@CObject@@UBEXXZ
_TEXT	SEGMENT
?AssertValid@CObject@@UBEXXZ PROC			; CObject::AssertValid, COMDAT
; _this$ = ecx

; 120  : 	{ /* no asserts in release builds */ }

  00000	c2 00 00	 ret	 0
?AssertValid@CObject@@UBEXXZ ENDP			; CObject::AssertValid
_TEXT	ENDS
; Function compile flags: /Ogtp
; File C:\Program Files (x86)\Microsoft Visual Studio\2019\Community\VC\Tools\MSVC\14.29.30133\atlmfc\include\afx.inl
;	COMDAT ?Serialize@CObject@@UAEXAAVCArchive@@@Z
_TEXT	SEGMENT
___formal$ = 8						; size = 4
?Serialize@CObject@@UAEXAAVCArchive@@@Z PROC		; CObject::Serialize, COMDAT
; _this$ = ecx

; 106  : 	{ /* CObject does not serialize anything by default */ }

  00000	c2 04 00	 ret	 4
?Serialize@CObject@@UAEXAAVCArchive@@@Z ENDP		; CObject::Serialize
_TEXT	ENDS
; Function compile flags: /Ogtp
; File C:\Program Files (x86)\Microsoft Visual Studio\2019\Community\VC\Tools\MSVC\14.29.30133\atlmfc\include\afx.inl
;	COMDAT ??1CObject@@UAE@XZ
_TEXT	SEGMENT
??1CObject@@UAE@XZ PROC					; CObject::~CObject, COMDAT
; _this$ = ecx

; 104  : 	{ }

  00000	c2 00 00	 ret	 0
??1CObject@@UAE@XZ ENDP					; CObject::~CObject
_TEXT	ENDS
; Function compile flags: /Ogtp
; File C:\Program Files (x86)\Windows Kits\10\Include\10.0.22000.0\ucrt\stdio.h
;	COMDAT _sscanf
_TEXT	SEGMENT
__Buffer$ = 8						; size = 4
__Format$ = 12						; size = 4
_sscanf	PROC						; COMDAT

; 2247 :     {

  00000	55		 push	 ebp
  00001	8b ec		 mov	 ebp, esp

; 2153 :         return __stdio_common_vsscanf(

  00003	8d 45 10	 lea	 eax, DWORD PTR __Format$[ebp+4]
  00006	50		 push	 eax
  00007	6a 00		 push	 0
  00009	ff 75 0c	 push	 DWORD PTR __Format$[ebp]
  0000c	6a ff		 push	 -1
  0000e	ff 75 08	 push	 DWORD PTR __Buffer$[ebp]
  00011	e8 00 00 00 00	 call	 ___local_stdio_scanf_options
  00016	ff 70 04	 push	 DWORD PTR [eax+4]
  00019	ff 30		 push	 DWORD PTR [eax]
  0001b	ff 15 00 00 00
	00		 call	 DWORD PTR __imp____stdio_common_vsscanf
  00021	83 c4 1c	 add	 esp, 28			; 0000001cH

; 2248 :         int _Result;
; 2249 :         va_list _ArgList;
; 2250 :         __crt_va_start(_ArgList, _Format);
; 2251 :         _Result = _vsscanf_l(_Buffer, _Format, NULL, _ArgList);
; 2252 :         __crt_va_end(_ArgList);
; 2253 :         return _Result;
; 2254 :     }

  00024	5d		 pop	 ebp
  00025	c3		 ret	 0
_sscanf	ENDP
_TEXT	ENDS
; Function compile flags: /Ogtp
; File C:\Program Files (x86)\Windows Kits\10\Include\10.0.22000.0\ucrt\corecrt_stdio_config.h
;	COMDAT ___local_stdio_scanf_options
_TEXT	SEGMENT
___local_stdio_scanf_options PROC			; COMDAT

; 101  :         static unsigned __int64 _OptionsStorage;
; 102  :         return &_OptionsStorage;

  00000	b8 00 00 00 00	 mov	 eax, OFFSET ?_OptionsStorage@?1??__local_stdio_scanf_options@@9@4_KA ; `__local_stdio_scanf_options'::`2'::_OptionsStorage

; 103  :     }

  00005	c3		 ret	 0
___local_stdio_scanf_options ENDP
_TEXT	ENDS
; Function compile flags: /Ogtp
; File D:\git\src\IBK\IBK_DRFN\ProjSrc\SrcDrfn\Chart\HWSTRATEGYCONFIGUREWIZARD\OutLookBarDlg.cpp
;	COMDAT ?__empty_global_delete@@YAXPAXI@Z
_TEXT	SEGMENT
___formal$ = 8						; size = 4
___formal$ = 12						; size = 4
?__empty_global_delete@@YAXPAXI@Z PROC			; __empty_global_delete, COMDAT

  00000	c2 00 00	 ret	 0
?__empty_global_delete@@YAXPAXI@Z ENDP			; __empty_global_delete
_TEXT	ENDS
; Function compile flags: /Ogtp
; File D:\git\src\IBK\IBK_DRFN\ProjSrc\SrcDrfn\Chart\HWSTRATEGYCONFIGUREWIZARD\OutLookBarDlg.cpp
;	COMDAT ?__empty_global_delete@@YAXPAX@Z
_TEXT	SEGMENT
___formal$ = 8						; size = 4
?__empty_global_delete@@YAXPAX@Z PROC			; __empty_global_delete, COMDAT

  00000	c2 00 00	 ret	 0
?__empty_global_delete@@YAXPAX@Z ENDP			; __empty_global_delete
_TEXT	ENDS
; Function compile flags: /Ogtp
;	COMDAT ??_H@YGXPAXIIP6EPAX0@Z@Z
_TEXT	SEGMENT
___t$ = 8						; size = 4
___s$ = 12						; size = 4
___n$ = 16						; size = 4
___f$ = 20						; size = 4
??_H@YGXPAXIIP6EPAX0@Z@Z PROC				; `vector constructor iterator', COMDAT
  00000	55		 push	 ebp
  00001	8b ec		 mov	 ebp, esp
  00003	56		 push	 esi
  00004	8b 75 10	 mov	 esi, DWORD PTR ___n$[ebp]
  00007	85 f6		 test	 esi, esi
  00009	74 16		 je	 SHORT $LN6@vector
  0000b	53		 push	 ebx
  0000c	8b 5d 14	 mov	 ebx, DWORD PTR ___f$[ebp]
  0000f	57		 push	 edi
  00010	8b 7d 08	 mov	 edi, DWORD PTR ___t$[ebp]
$LL2@vector:
  00013	8b cf		 mov	 ecx, edi
  00015	ff d3		 call	 ebx
  00017	03 7d 0c	 add	 edi, DWORD PTR ___s$[ebp]
  0001a	83 ee 01	 sub	 esi, 1
  0001d	75 f4		 jne	 SHORT $LL2@vector
  0001f	5f		 pop	 edi
  00020	5b		 pop	 ebx
$LN6@vector:
  00021	5e		 pop	 esi
  00022	5d		 pop	 ebp
  00023	c2 10 00	 ret	 16			; 00000010H
??_H@YGXPAXIIP6EPAX0@Z@Z ENDP				; `vector constructor iterator'
_TEXT	ENDS
END
