; Listing generated by Microsoft (R) Optimizing Compiler Version 19.29.30145.0 

	TITLE	D:\git\src\IBK\IBK_DRFN\#DRfn-CS\_Obj\HWStrategyConfigureWizard\STListCtrl.obj
	.686P
	.XMM
	include listing.inc
	.model	flat

INCLUDELIB MSVCRT
INCLUDELIB OLDNAMES

PUBLIC	??_C@_0BC@LAMDBJGM@RMSG_OB_ITEMCLICK@		; `string'
PUBLIC	??_C@_0BD@GFDLLOKP@RMSG_OB_ITEMDBLCLK@		; `string'
PUBLIC	??_C@_0BC@HAIAMDMN@RMSG_ISSTRUNSTATE@		; `string'
PUBLIC	??_C@_0P@BKKCOCLK@RMSG_INTERFACE@		; `string'
;	COMDAT ??_C@_0P@BKKCOCLK@RMSG_INTERFACE@
CONST	SEGMENT
??_C@_0P@BKKCOCLK@RMSG_INTERFACE@ DB 'RMSG_INTERFACE', 00H ; `string'
CONST	ENDS
;	COMDAT ??_C@_0BC@HAIAMDMN@RMSG_ISSTRUNSTATE@
CONST	SEGMENT
??_C@_0BC@HAIAMDMN@RMSG_ISSTRUNSTATE@ DB 'RMSG_ISSTRUNSTATE', 00H ; `string'
CONST	ENDS
;	COMDAT ??_C@_0BD@GFDLLOKP@RMSG_OB_ITEMDBLCLK@
CONST	SEGMENT
??_C@_0BD@GFDLLOKP@RMSG_OB_ITEMDBLCLK@ DB 'RMSG_OB_ITEMDBLCLK', 00H ; `string'
CONST	ENDS
;	COMDAT ??_C@_0BC@LAMDBJGM@RMSG_OB_ITEMCLICK@
CONST	SEGMENT
??_C@_0BC@LAMDBJGM@RMSG_OB_ITEMCLICK@ DB 'RMSG_OB_ITEMCLICK', 00H ; `string'
CONST	ENDS
PUBLIC	?__empty_global_delete@@YAXPAX@Z		; __empty_global_delete
PUBLIC	?__empty_global_delete@@YAXPAXI@Z		; __empty_global_delete
PUBLIC	___local_stdio_scanf_options
PUBLIC	_sscanf
PUBLIC	??1CObject@@UAE@XZ				; CObject::~CObject
PUBLIC	?Serialize@CObject@@UAEXAAVCArchive@@@Z		; CObject::Serialize
PUBLIC	?AssertValid@CObject@@UBEXXZ			; CObject::AssertValid
PUBLIC	?Dump@CObject@@UBEXAAVCDumpContext@@@Z		; CObject::Dump
PUBLIC	??1CGdiObject@@UAE@XZ				; CGdiObject::~CGdiObject
PUBLIC	??_GCGdiObject@@UAEPAXI@Z			; CGdiObject::`scalar deleting destructor'
PUBLIC	??1CFont@@UAE@XZ				; CFont::~CFont
PUBLIC	??_GCFont@@UAEPAXI@Z				; CFont::`scalar deleting destructor'
PUBLIC	??1CMenu@@UAE@XZ				; CMenu::~CMenu
PUBLIC	??_GCMenu@@UAEPAXI@Z				; CMenu::`scalar deleting destructor'
PUBLIC	?GetOwner@CWnd@@QBEPAV1@XZ			; CWnd::GetOwner
PUBLIC	?DoDataExchange@CWnd@@MAEXPAVCDataExchange@@@Z	; CWnd::DoDataExchange
PUBLIC	?BeginModalState@CWnd@@UAEXXZ			; CWnd::BeginModalState
PUBLIC	?EndModalState@CWnd@@UAEXXZ			; CWnd::EndModalState
PUBLIC	??_GCListCtrl@@UAEPAXI@Z			; CListCtrl::`scalar deleting destructor'
PUBLIC	?_GetBaseClass@CSTListCtrl@@KGPAUCRuntimeClass@@XZ ; CSTListCtrl::_GetBaseClass
PUBLIC	?GetThisClass@CSTListCtrl@@SGPAUCRuntimeClass@@XZ ; CSTListCtrl::GetThisClass
PUBLIC	?GetRuntimeClass@CSTListCtrl@@UBEPAUCRuntimeClass@@XZ ; CSTListCtrl::GetRuntimeClass
PUBLIC	??0CSTListCtrl@@QAE@XZ				; CSTListCtrl::CSTListCtrl
PUBLIC	??1CSTListCtrl@@UAE@XZ				; CSTListCtrl::~CSTListCtrl
PUBLIC	?InitFont@CSTListCtrl@@QAEXH@Z			; CSTListCtrl::InitFont
PUBLIC	?SetUserSetting@CSTListCtrl@@QAEXHHH@Z		; CSTListCtrl::SetUserSetting
PUBLIC	?GetUserSetting@CSTListCtrl@@QAEHHH@Z		; CSTListCtrl::GetUserSetting
PUBLIC	?GetThisMessageMap@CSTListCtrl@@KGPBUAFX_MSGMAP@@XZ ; CSTListCtrl::GetThisMessageMap
PUBLIC	?GetMessageMap@CSTListCtrl@@MBEPBUAFX_MSGMAP@@XZ ; CSTListCtrl::GetMessageMap
PUBLIC	?OnNMDblclk@CSTListCtrl@@QAEXPAUtagNMHDR@@PAJ@Z	; CSTListCtrl::OnNMDblclk
PUBLIC	?OnNMClk@CSTListCtrl@@QAEXPAUtagNMHDR@@PAJ@Z	; CSTListCtrl::OnNMClk
PUBLIC	?OnCustomDraw@CSTListCtrl@@QAEXPAUtagNMHDR@@PAJ@Z ; CSTListCtrl::OnCustomDraw
PUBLIC	?OnNMRclick@CSTListCtrl@@QAEXPAUtagNMHDR@@PAJ@Z	; CSTListCtrl::OnNMRclick
PUBLIC	??_GCSTListCtrl@@UAEPAXI@Z			; CSTListCtrl::`scalar deleting destructor'
PUBLIC	??1STMNG_ITEMINFO@@QAE@XZ			; STMNG_ITEMINFO::~STMNG_ITEMINFO
PUBLIC	?_OptionsStorage@?1??__local_stdio_scanf_options@@9@4_KA ; `__local_stdio_scanf_options'::`2'::_OptionsStorage
PUBLIC	??_R0PAVCException@@@8				; CException * `RTTI Type Descriptor'
PUBLIC	??_7CGdiObject@@6B@				; CGdiObject::`vftable'
PUBLIC	??_7CFont@@6B@					; CFont::`vftable'
PUBLIC	??_7CMenu@@6B@					; CMenu::`vftable'
PUBLIC	??_C@_0HD@JJCHHHNK@C?3?2Program?5Files?5?$CIx86?$CJ?2Microsof@ ; `string'
PUBLIC	??_C@_0BP@OIEOKIDM@Exception?5thrown?5in?5destructor@ ; `string'
PUBLIC	??_C@_0BB@HBOOMJBF@?$CFTs?5?$CI?$CFTs?3?$CFd?$CJ?6?$CFTs@ ; `string'
PUBLIC	??_C@_0N@OMEMOKLE@?$CFTs?5?$CI?$CFTs?3?$CFd?$CJ@ ; `string'
PUBLIC	??_7CListCtrl@@6B@				; CListCtrl::`vftable'
PUBLIC	??_C@_0M@CBBNGGHM@PcTrMng?4dll@			; `string'
PUBLIC	??_C@_0P@IDMAJEGN@HANAROPCTRMAIN@		; `string'
PUBLIC	??_C@_06NDLAHCHE@?$CFs?$CF08X@			; `string'
PUBLIC	??_C@_02EMFKHFLK@?$CFX@				; `string'
PUBLIC	??_R0?AVCObject@@@8				; CObject `RTTI Type Descriptor'
PUBLIC	??_R3CObject@@8					; CObject::`RTTI Class Hierarchy Descriptor'
PUBLIC	??_R2CObject@@8					; CObject::`RTTI Base Class Array'
PUBLIC	??_R1A@?0A@EA@CObject@@8			; CObject::`RTTI Base Class Descriptor at (0,-1,0,64)'
PUBLIC	??_R4CGdiObject@@6B@				; CGdiObject::`RTTI Complete Object Locator'
PUBLIC	??_R0?AVCGdiObject@@@8				; CGdiObject `RTTI Type Descriptor'
PUBLIC	??_R3CGdiObject@@8				; CGdiObject::`RTTI Class Hierarchy Descriptor'
PUBLIC	??_R2CGdiObject@@8				; CGdiObject::`RTTI Base Class Array'
PUBLIC	??_R1A@?0A@EA@CGdiObject@@8			; CGdiObject::`RTTI Base Class Descriptor at (0,-1,0,64)'
PUBLIC	??_R4CFont@@6B@					; CFont::`RTTI Complete Object Locator'
PUBLIC	??_R0?AVCFont@@@8				; CFont `RTTI Type Descriptor'
PUBLIC	??_R3CFont@@8					; CFont::`RTTI Class Hierarchy Descriptor'
PUBLIC	??_R2CFont@@8					; CFont::`RTTI Base Class Array'
PUBLIC	??_R1A@?0A@EA@CFont@@8				; CFont::`RTTI Base Class Descriptor at (0,-1,0,64)'
PUBLIC	??_R4CMenu@@6B@					; CMenu::`RTTI Complete Object Locator'
PUBLIC	??_R0?AVCMenu@@@8				; CMenu `RTTI Type Descriptor'
PUBLIC	??_R3CMenu@@8					; CMenu::`RTTI Class Hierarchy Descriptor'
PUBLIC	??_R2CMenu@@8					; CMenu::`RTTI Base Class Array'
PUBLIC	??_R1A@?0A@EA@CMenu@@8				; CMenu::`RTTI Base Class Descriptor at (0,-1,0,64)'
PUBLIC	??_R1A@?0A@EA@CWnd@@8				; CWnd::`RTTI Base Class Descriptor at (0,-1,0,64)'
PUBLIC	??_R0?AVCWnd@@@8				; CWnd `RTTI Type Descriptor'
PUBLIC	??_R3CWnd@@8					; CWnd::`RTTI Class Hierarchy Descriptor'
PUBLIC	??_R2CWnd@@8					; CWnd::`RTTI Base Class Array'
PUBLIC	??_R1A@?0A@EA@CCmdTarget@@8			; CCmdTarget::`RTTI Base Class Descriptor at (0,-1,0,64)'
PUBLIC	??_R0?AVCCmdTarget@@@8				; CCmdTarget `RTTI Type Descriptor'
PUBLIC	??_R3CCmdTarget@@8				; CCmdTarget::`RTTI Class Hierarchy Descriptor'
PUBLIC	??_R2CCmdTarget@@8				; CCmdTarget::`RTTI Base Class Array'
PUBLIC	??_R4CListCtrl@@6B@				; CListCtrl::`RTTI Complete Object Locator'
PUBLIC	??_R0?AVCListCtrl@@@8				; CListCtrl `RTTI Type Descriptor'
PUBLIC	??_R3CListCtrl@@8				; CListCtrl::`RTTI Class Hierarchy Descriptor'
PUBLIC	??_R2CListCtrl@@8				; CListCtrl::`RTTI Base Class Array'
PUBLIC	??_R1A@?0A@EA@CListCtrl@@8			; CListCtrl::`RTTI Base Class Descriptor at (0,-1,0,64)'
PUBLIC	?classCSTListCtrl@CSTListCtrl@@2UCRuntimeClass@@B ; CSTListCtrl::classCSTListCtrl
PUBLIC	??_7CSTListCtrl@@6B@				; CSTListCtrl::`vftable'
PUBLIC	??_C@_0M@ENHGICKC@CSTListCtrl@			; `string'
PUBLIC	??_C@_08OIDEPACI@P_?$CFs?$CFc?$CFd@		; `string'
PUBLIC	??_C@_06GNAFJLOE@?$CFs?$CFc?$CFd@		; `string'
PUBLIC	??_C@_06MFMMLLPC@?$LB?$LM?$LI?$LC?C?$LM@	; `string'
PUBLIC	??_C@_04CFDBLPCI@?$LL?h?A?$KG@			; `string'
PUBLIC	??_C@_0CC@DGBJBMGM@?A?$KG?$LA?x?$LF?H?5?$MA?$PM?$LH?$KL?$MA?$LK?5?$LL?h?A?$KG?G?R?5?$LM?v?5?$LO?x?$LN?$MA?$LE?O?$LE@ ; `string'
PUBLIC	??_C@_0P@GKBMMIPA@?$LL?g?$LP?k?$MA?Z?$LE?$NM?$MA?$KH?$MA?$PM?$LH?$KL@ ; `string'
PUBLIC	??_C@_0L@DLNLHHBM@?$LL?g?$LP?k?$MA?Z?A?v?G?$KF@	; `string'
PUBLIC	??_C@_0P@EACIJNAL@?$LL?g?$LP?k?$MA?Z?$LA?$KN?$LM?$LM?$LO?$OA?$LM?$LM@ ; `string'
PUBLIC	??_C@_0P@BCEOGAFN@?$LL?g?$LP?k?$MA?Z?A?$LG?G?U?$MA?$PM?$LH?$KL@ ; `string'
PUBLIC	??_C@_0BJ@GJNCLGJM@?$MA?$PM?$LH?$KL?$MA?$LL?5?$LL?h?A?$KG?G?O?$LN?C?$LA?Z?$LN?$MA?$LE?O?$LB?n?$DP@ ; `string'
PUBLIC	??_C@_08OOJOHCD@?$CFs?2?$CFs?4ST@		; `string'
PUBLIC	??_C@_0DI@HOHDCNPO@?B?w?F?$KO?$LL?s?$LP?$KB?5?$MA?$PM?$LH?$KL?$MA?L?5?$MA?$PL?$LP?k?$MA?L?5?$LF?G?$LO?n?5?$MA?V?$LE@ ; `string'
PUBLIC	??_C@_0BA@PIGBAOMG@STLIST_MODIFIED@		; `string'
PUBLIC	??_R4CSTListCtrl@@6B@				; CSTListCtrl::`RTTI Complete Object Locator'
PUBLIC	??_R0?AVCSTListCtrl@@@8				; CSTListCtrl `RTTI Type Descriptor'
PUBLIC	??_R3CSTListCtrl@@8				; CSTListCtrl::`RTTI Class Hierarchy Descriptor'
PUBLIC	??_R2CSTListCtrl@@8				; CSTListCtrl::`RTTI Base Class Array'
PUBLIC	??_R1A@?0A@EA@CSTListCtrl@@8			; CSTListCtrl::`RTTI Base Class Descriptor at (0,-1,0,64)'
EXTRN	??3@YAXPAX@Z:PROC				; operator delete
EXTRN	?__global_delete@@YAXPAXI@Z:PROC		; __global_delete
EXTRN	___std_terminate:PROC
EXTRN	__imp__GetEnvironmentVariableA@12:PROC
EXTRN	__imp__DeleteFileA@4:PROC
EXTRN	__imp__GetModuleHandleA@4:PROC
EXTRN	__imp__CreateFontIndirectA@4:PROC
EXTRN	__imp__RegisterWindowMessageA@4:PROC
EXTRN	__imp__SendMessageA@16:PROC
EXTRN	__imp__EnableWindow@8:PROC
EXTRN	__imp__CreatePopupMenu@0:PROC
EXTRN	__imp__AppendMenuA@16:PROC
EXTRN	__imp__InvalidateRect@12:PROC
EXTRN	__imp__GetCursorPos@4:PROC
EXTRN	__imp__GetParent@4:PROC
EXTRN	__imp____stdio_common_vsscanf:PROC
EXTRN	?AfxThrowInvalidArgException@@YGXXZ:PROC	; AfxThrowInvalidArgException
EXTRN	__imp_??0?$CStringT@DV?$StrTraitMFC_DLL@DV?$ChTraitsCRT@D@ATL@@@@@ATL@@QAE@XZ:PROC
EXTRN	__imp_??0?$CStringT@DV?$StrTraitMFC_DLL@DV?$ChTraitsCRT@D@ATL@@@@@ATL@@QAE@ABV01@@Z:PROC
EXTRN	__imp_??1?$CStringT@DV?$StrTraitMFC_DLL@DV?$ChTraitsCRT@D@ATL@@@@@ATL@@QAE@XZ:PROC
EXTRN	__imp_??4?$CStringT@DV?$StrTraitMFC_DLL@DV?$ChTraitsCRT@D@ATL@@@@@ATL@@QAEAAV01@ABV01@@Z:PROC
EXTRN	__imp_?Compare@?$CStringT@DV?$StrTraitMFC_DLL@DV?$ChTraitsCRT@D@ATL@@@@@ATL@@QBEHPBD@Z:PROC
EXTRN	__imp_?Format@?$CStringT@DV?$StrTraitMFC_DLL@DV?$ChTraitsCRT@D@ATL@@@@@ATL@@QAAXPBDZZ:PROC
EXTRN	??0CDWordArray@@QAE@XZ:PROC			; CDWordArray::CDWordArray
EXTRN	?SetSize@CDWordArray@@QAEXHH@Z:PROC		; CDWordArray::SetSize
EXTRN	??1CDWordArray@@UAE@XZ:PROC			; CDWordArray::~CDWordArray
EXTRN	?GetRuntimeClass@CGdiObject@@UBEPAUCRuntimeClass@@XZ:PROC ; CGdiObject::GetRuntimeClass
EXTRN	?Attach@CGdiObject@@QAEHPAX@Z:PROC		; CGdiObject::Attach
EXTRN	?DeleteObject@CGdiObject@@QAEHXZ:PROC		; CGdiObject::DeleteObject
EXTRN	??_ECGdiObject@@UAEPAXI@Z:PROC			; CGdiObject::`vector deleting destructor'
EXTRN	?GetRuntimeClass@CFont@@UBEPAUCRuntimeClass@@XZ:PROC ; CFont::GetRuntimeClass
EXTRN	??_ECFont@@UAEPAXI@Z:PROC			; CFont::`vector deleting destructor'
EXTRN	??0CClientDC@@QAE@PAVCWnd@@@Z:PROC		; CClientDC::CClientDC
EXTRN	??1CClientDC@@UAE@XZ:PROC			; CClientDC::~CClientDC
EXTRN	?GetRuntimeClass@CMenu@@UBEPAUCRuntimeClass@@XZ:PROC ; CMenu::GetRuntimeClass
EXTRN	?DestroyMenu@CMenu@@QAEHXZ:PROC			; CMenu::DestroyMenu
EXTRN	?Attach@CMenu@@QAEHPAUHMENU__@@@Z:PROC		; CMenu::Attach
EXTRN	?TrackPopupMenu@CMenu@@QAEHIHHPAVCWnd@@PBUtagRECT@@@Z:PROC ; CMenu::TrackPopupMenu
EXTRN	?DrawItem@CMenu@@UAEXPAUtagDRAWITEMSTRUCT@@@Z:PROC ; CMenu::DrawItem
EXTRN	?MeasureItem@CMenu@@UAEXPAUtagMEASUREITEMSTRUCT@@@Z:PROC ; CMenu::MeasureItem
EXTRN	??_ECMenu@@UAEPAXI@Z:PROC			; CMenu::`vector deleting destructor'
EXTRN	?OnCmdMsg@CCmdTarget@@UAEHIHPAXPAUAFX_CMDHANDLERINFO@@@Z:PROC ; CCmdTarget::OnCmdMsg
EXTRN	?IsInvokeAllowed@CCmdTarget@@UAEHJ@Z:PROC	; CCmdTarget::IsInvokeAllowed
EXTRN	?GetDispatchIID@CCmdTarget@@UAEHPAU_GUID@@@Z:PROC ; CCmdTarget::GetDispatchIID
EXTRN	?GetTypeInfoCount@CCmdTarget@@UAEIXZ:PROC	; CCmdTarget::GetTypeInfoCount
EXTRN	?GetTypeLibCache@CCmdTarget@@UAEPAVCTypeLibCache@@XZ:PROC ; CCmdTarget::GetTypeLibCache
EXTRN	?GetTypeLib@CCmdTarget@@UAEJKPAPAUITypeLib@@@Z:PROC ; CCmdTarget::GetTypeLib
EXTRN	?GetCommandMap@CCmdTarget@@MBEPBUAFX_OLECMDMAP@@XZ:PROC ; CCmdTarget::GetCommandMap
EXTRN	?GetDispatchMap@CCmdTarget@@MBEPBUAFX_DISPMAP@@XZ:PROC ; CCmdTarget::GetDispatchMap
EXTRN	?GetConnectionMap@CCmdTarget@@MBEPBUAFX_CONNECTIONMAP@@XZ:PROC ; CCmdTarget::GetConnectionMap
EXTRN	?GetEventSinkMap@CCmdTarget@@MBEPBUAFX_EVENTSINKMAP@@XZ:PROC ; CCmdTarget::GetEventSinkMap
EXTRN	?OnCreateAggregates@CCmdTarget@@UAEHXZ:PROC	; CCmdTarget::OnCreateAggregates
EXTRN	?GetInterfaceHook@CCmdTarget@@UAEPAUIUnknown@@PBX@Z:PROC ; CCmdTarget::GetInterfaceHook
EXTRN	?GetExtraConnectionPoints@CCmdTarget@@MAEHPAVCPtrArray@@@Z:PROC ; CCmdTarget::GetExtraConnectionPoints
EXTRN	?GetConnectionHook@CCmdTarget@@MAEPAUIConnectionPoint@@ABU_GUID@@@Z:PROC ; CCmdTarget::GetConnectionHook
EXTRN	??0CWnd@@QAE@XZ:PROC				; CWnd::CWnd
EXTRN	?FromHandle@CWnd@@SGPAV1@PAUHWND__@@@Z:PROC	; CWnd::FromHandle
EXTRN	?PreSubclassWindow@CWnd@@UAEXXZ:PROC		; CWnd::PreSubclassWindow
EXTRN	?Create@CWnd@@UAEHPBD0KABUtagRECT@@PAV1@IPAUCCreateContext@@@Z:PROC ; CWnd::Create
EXTRN	?CreateEx@CWnd@@UAEHKPBD0KHHHHPAUHWND__@@PAUHMENU__@@PAX@Z:PROC ; CWnd::CreateEx
EXTRN	?CreateEx@CWnd@@UAEHKPBD0KABUtagRECT@@PAV1@IPAX@Z:PROC ; CWnd::CreateEx
EXTRN	?DestroyWindow@CWnd@@UAEHXZ:PROC		; CWnd::DestroyWindow
EXTRN	?PreCreateWindow@CWnd@@UAEHAAUtagCREATESTRUCTA@@@Z:PROC ; CWnd::PreCreateWindow
EXTRN	?CalcWindowRect@CWnd@@UAEXPAUtagRECT@@I@Z:PROC	; CWnd::CalcWindowRect
EXTRN	?GetMenu@CWnd@@UBEPAVCMenu@@XZ:PROC		; CWnd::GetMenu
EXTRN	?SetMenu@CWnd@@UAEHPAVCMenu@@@Z:PROC		; CWnd::SetMenu
EXTRN	?OnToolHitTest@CWnd@@UBEHVCPoint@@PAUtagTOOLINFOA@@@Z:PROC ; CWnd::OnToolHitTest
EXTRN	?GetScrollBarCtrl@CWnd@@UBEPAVCScrollBar@@H@Z:PROC ; CWnd::GetScrollBarCtrl
EXTRN	?WinHelpA@CWnd@@UAEXKI@Z:PROC			; CWnd::WinHelpA
EXTRN	?HtmlHelpA@CWnd@@UAEXKI@Z:PROC			; CWnd::HtmlHelpA
EXTRN	?WinHelpInternal@CWnd@@UAEXKI@Z:PROC		; CWnd::WinHelpInternal
EXTRN	?ContinueModal@CWnd@@UAEHXZ:PROC		; CWnd::ContinueModal
EXTRN	?EndModalLoop@CWnd@@UAEXH@Z:PROC		; CWnd::EndModalLoop
EXTRN	?OnDrawIconicThumbnailOrLivePreview@CWnd@@UAEXAAVCDC@@VCRect@@VCSize@@HAAH@Z:PROC ; CWnd::OnDrawIconicThumbnailOrLivePreview
EXTRN	?GetInterfaceMap@CWnd@@MBEPBUAFX_INTERFACEMAP@@XZ:PROC ; CWnd::GetInterfaceMap
EXTRN	?EnsureStdObj@CWnd@@UAEJXZ:PROC			; CWnd::EnsureStdObj
EXTRN	?get_accParent@CWnd@@UAEJPAPAUIDispatch@@@Z:PROC ; CWnd::get_accParent
EXTRN	?get_accChildCount@CWnd@@UAEJPAJ@Z:PROC		; CWnd::get_accChildCount
EXTRN	?get_accChild@CWnd@@UAEJUtagVARIANT@@PAPAUIDispatch@@@Z:PROC ; CWnd::get_accChild
EXTRN	?get_accName@CWnd@@UAEJUtagVARIANT@@PAPA_W@Z:PROC ; CWnd::get_accName
EXTRN	?get_accValue@CWnd@@UAEJUtagVARIANT@@PAPA_W@Z:PROC ; CWnd::get_accValue
EXTRN	?get_accDescription@CWnd@@UAEJUtagVARIANT@@PAPA_W@Z:PROC ; CWnd::get_accDescription
EXTRN	?get_accRole@CWnd@@UAEJUtagVARIANT@@PAU2@@Z:PROC ; CWnd::get_accRole
EXTRN	?get_accState@CWnd@@UAEJUtagVARIANT@@PAU2@@Z:PROC ; CWnd::get_accState
EXTRN	?get_accHelp@CWnd@@UAEJUtagVARIANT@@PAPA_W@Z:PROC ; CWnd::get_accHelp
EXTRN	?get_accHelpTopic@CWnd@@UAEJPAPA_WUtagVARIANT@@PAJ@Z:PROC ; CWnd::get_accHelpTopic
EXTRN	?get_accKeyboardShortcut@CWnd@@UAEJUtagVARIANT@@PAPA_W@Z:PROC ; CWnd::get_accKeyboardShortcut
EXTRN	?get_accFocus@CWnd@@UAEJPAUtagVARIANT@@@Z:PROC	; CWnd::get_accFocus
EXTRN	?get_accSelection@CWnd@@UAEJPAUtagVARIANT@@@Z:PROC ; CWnd::get_accSelection
EXTRN	?get_accDefaultAction@CWnd@@UAEJUtagVARIANT@@PAPA_W@Z:PROC ; CWnd::get_accDefaultAction
EXTRN	?accSelect@CWnd@@UAEJJUtagVARIANT@@@Z:PROC	; CWnd::accSelect
EXTRN	?accLocation@CWnd@@UAEJPAJ000UtagVARIANT@@@Z:PROC ; CWnd::accLocation
EXTRN	?accNavigate@CWnd@@UAEJJUtagVARIANT@@PAU2@@Z:PROC ; CWnd::accNavigate
EXTRN	?accHitTest@CWnd@@UAEJJJPAUtagVARIANT@@@Z:PROC	; CWnd::accHitTest
EXTRN	?accDoDefaultAction@CWnd@@UAEJUtagVARIANT@@@Z:PROC ; CWnd::accDoDefaultAction
EXTRN	?put_accName@CWnd@@UAEJUtagVARIANT@@PA_W@Z:PROC	; CWnd::put_accName
EXTRN	?put_accValue@CWnd@@UAEJUtagVARIANT@@PA_W@Z:PROC ; CWnd::put_accValue
EXTRN	?SetProxy@CWnd@@UAEJPAUIAccessibleProxy@@@Z:PROC ; CWnd::SetProxy
EXTRN	?CreateAccessibleProxy@CWnd@@UAEJIJPAJ@Z:PROC	; CWnd::CreateAccessibleProxy
EXTRN	?OnCommand@CWnd@@MAEHIJ@Z:PROC			; CWnd::OnCommand
EXTRN	?OnNotify@CWnd@@MAEHIJPAJ@Z:PROC		; CWnd::OnNotify
EXTRN	?GetSuperWndProcAddr@CWnd@@MAEPAP6GJPAUHWND__@@IIJ@ZXZ:PROC ; CWnd::GetSuperWndProcAddr
EXTRN	?PreTranslateMessage@CWnd@@UAEHPAUtagMSG@@@Z:PROC ; CWnd::PreTranslateMessage
EXTRN	?OnAmbientProperty@CWnd@@UAEHPAVCOleControlSite@@JPAUtagVARIANT@@@Z:PROC ; CWnd::OnAmbientProperty
EXTRN	?WindowProc@CWnd@@MAEJIIJ@Z:PROC		; CWnd::WindowProc
EXTRN	?OnWndMsg@CWnd@@MAEHIIJPAJ@Z:PROC		; CWnd::OnWndMsg
EXTRN	?DefWindowProcA@CWnd@@MAEJIIJ@Z:PROC		; CWnd::DefWindowProcA
EXTRN	?PostNcDestroy@CWnd@@MAEXXZ:PROC		; CWnd::PostNcDestroy
EXTRN	?OnTouchInputs@CWnd@@MAEHIPAUtagTOUCHINPUT@@@Z:PROC ; CWnd::OnTouchInputs
EXTRN	?OnTouchInput@CWnd@@MAEHVCPoint@@HHPAUtagTOUCHINPUT@@@Z:PROC ; CWnd::OnTouchInput
EXTRN	?GetGestureStatus@CWnd@@MAEKVCPoint@@@Z:PROC	; CWnd::GetGestureStatus
EXTRN	?OnGestureZoom@CWnd@@MAEHVCPoint@@J@Z:PROC	; CWnd::OnGestureZoom
EXTRN	?OnGesturePan@CWnd@@MAEHVCPoint@@0@Z:PROC	; CWnd::OnGesturePan
EXTRN	?OnGestureRotate@CWnd@@MAEHVCPoint@@N@Z:PROC	; CWnd::OnGestureRotate
EXTRN	?OnGestureTwoFingerTap@CWnd@@MAEHVCPoint@@@Z:PROC ; CWnd::OnGestureTwoFingerTap
EXTRN	?OnGesturePressAndTap@CWnd@@MAEHVCPoint@@J@Z:PROC ; CWnd::OnGesturePressAndTap
EXTRN	?ResizeDynamicLayout@CWnd@@MAEXXZ:PROC		; CWnd::ResizeDynamicLayout
EXTRN	?CheckAutoCenter@CWnd@@UAEHXZ:PROC		; CWnd::CheckAutoCenter
EXTRN	?IsFrameWnd@CWnd@@UBEHXZ:PROC			; CWnd::IsFrameWnd
EXTRN	?OnFinalRelease@CWnd@@UAEXXZ:PROC		; CWnd::OnFinalRelease
EXTRN	?CreateControlContainer@CWnd@@MAEHPAPAVCOleControlContainer@@@Z:PROC ; CWnd::CreateControlContainer
EXTRN	?CreateControlSite@CWnd@@MAEHPAVCOleControlContainer@@PAPAVCOleControlSite@@IABU_GUID@@@Z:PROC ; CWnd::CreateControlSite
EXTRN	?SetOccDialogInfo@CWnd@@MAEHPAU_AFX_OCC_DIALOG_INFO@@@Z:PROC ; CWnd::SetOccDialogInfo
EXTRN	?GetOccDialogInfo@CWnd@@MAEPAU_AFX_OCC_DIALOG_INFO@@XZ:PROC ; CWnd::GetOccDialogInfo
EXTRN	?AfxMessageBox@@YGHPBDII@Z:PROC			; AfxMessageBox
EXTRN	?GetThisClass@CListCtrl@@SGPAUCRuntimeClass@@XZ:PROC ; CListCtrl::GetThisClass
EXTRN	?GetRuntimeClass@CListCtrl@@UBEPAUCRuntimeClass@@XZ:PROC ; CListCtrl::GetRuntimeClass
EXTRN	?GetItemText@CListCtrl@@QBE?AV?$CStringT@DV?$StrTraitMFC_DLL@DV?$ChTraitsCRT@D@ATL@@@@@ATL@@HH@Z:PROC ; CListCtrl::GetItemText
EXTRN	?GetItemData@CListCtrl@@QBEKH@Z:PROC		; CListCtrl::GetItemData
EXTRN	?DrawItem@CListCtrl@@UAEXPAUtagDRAWITEMSTRUCT@@@Z:PROC ; CListCtrl::DrawItem
EXTRN	??1CListCtrl@@UAE@XZ:PROC			; CListCtrl::~CListCtrl
EXTRN	?OnChildNotify@CListCtrl@@MAEHIIJPAJ@Z:PROC	; CListCtrl::OnChildNotify
EXTRN	?GetThisMessageMap@CListCtrl@@KGPBUAFX_MSGMAP@@XZ:PROC ; CListCtrl::GetThisMessageMap
EXTRN	?GetMessageMap@CListCtrl@@MBEPBUAFX_MSGMAP@@XZ:PROC ; CListCtrl::GetMessageMap
EXTRN	??_ECListCtrl@@UAEPAXI@Z:PROC			; CListCtrl::`vector deleting destructor'
EXTRN	??_ECSTListCtrl@@UAEPAXI@Z:PROC			; CSTListCtrl::`vector deleting destructor'
EXTRN	@__security_check_cookie@4:PROC
EXTRN	___CxxFrameHandler3:PROC
EXTRN	??_7type_info@@6B@:QWORD			; type_info::`vftable'
EXTRN	___security_cookie:DWORD
;	COMDAT ?_OptionsStorage@?1??__local_stdio_scanf_options@@9@4_KA
_BSS	SEGMENT
?_OptionsStorage@?1??__local_stdio_scanf_options@@9@4_KA DQ 01H DUP (?) ; `__local_stdio_scanf_options'::`2'::_OptionsStorage
_BSS	ENDS
_BSS	SEGMENT
?RMSG_INTERFACE@@3IB DD 01H DUP (?)			; RMSG_INTERFACE
?RMSG_OB_ITEMCLICK@@3IB DD 01H DUP (?)			; RMSG_OB_ITEMCLICK
?RMSG_OB_ITEMDBLCLK@@3IB DD 01H DUP (?)			; RMSG_OB_ITEMDBLCLK
?RMSG_ISSTRUNSTATE@@3IB DD 01H DUP (?)			; RMSG_ISSTRUNSTATE
_BSS	ENDS
CRT$XCU	SEGMENT
?RMSG_INTERFACE$initializer$@@3P6AXXZA DD FLAT:??__ERMSG_INTERFACE@@YAXXZ ; RMSG_INTERFACE$initializer$
CRT$XCU	ENDS
;	COMDAT ??_R1A@?0A@EA@CSTListCtrl@@8
rdata$r	SEGMENT
??_R1A@?0A@EA@CSTListCtrl@@8 DD FLAT:??_R0?AVCSTListCtrl@@@8 ; CSTListCtrl::`RTTI Base Class Descriptor at (0,-1,0,64)'
	DD	04H
	DD	00H
	DD	0ffffffffH
	DD	00H
	DD	040H
	DD	FLAT:??_R3CSTListCtrl@@8
rdata$r	ENDS
;	COMDAT ??_R2CSTListCtrl@@8
rdata$r	SEGMENT
??_R2CSTListCtrl@@8 DD FLAT:??_R1A@?0A@EA@CSTListCtrl@@8 ; CSTListCtrl::`RTTI Base Class Array'
	DD	FLAT:??_R1A@?0A@EA@CListCtrl@@8
	DD	FLAT:??_R1A@?0A@EA@CWnd@@8
	DD	FLAT:??_R1A@?0A@EA@CCmdTarget@@8
	DD	FLAT:??_R1A@?0A@EA@CObject@@8
rdata$r	ENDS
;	COMDAT ??_R3CSTListCtrl@@8
rdata$r	SEGMENT
??_R3CSTListCtrl@@8 DD 00H				; CSTListCtrl::`RTTI Class Hierarchy Descriptor'
	DD	00H
	DD	05H
	DD	FLAT:??_R2CSTListCtrl@@8
rdata$r	ENDS
;	COMDAT ??_R0?AVCSTListCtrl@@@8
data$rs	SEGMENT
??_R0?AVCSTListCtrl@@@8 DD FLAT:??_7type_info@@6B@	; CSTListCtrl `RTTI Type Descriptor'
	DD	00H
	DB	'.?AVCSTListCtrl@@', 00H
data$rs	ENDS
;	COMDAT ??_R4CSTListCtrl@@6B@
rdata$r	SEGMENT
??_R4CSTListCtrl@@6B@ DD 00H				; CSTListCtrl::`RTTI Complete Object Locator'
	DD	00H
	DD	00H
	DD	FLAT:??_R0?AVCSTListCtrl@@@8
	DD	FLAT:??_R3CSTListCtrl@@8
rdata$r	ENDS
;	COMDAT ??_C@_0BA@PIGBAOMG@STLIST_MODIFIED@
CONST	SEGMENT
??_C@_0BA@PIGBAOMG@STLIST_MODIFIED@ DB 'STLIST_MODIFIED', 00H ; `string'
CONST	ENDS
;	COMDAT ??_C@_0DI@HOHDCNPO@?B?w?F?$KO?$LL?s?$LP?$KB?5?$MA?$PM?$LH?$KL?$MA?L?5?$MA?$PL?$LP?k?$MA?L?5?$LF?G?$LO?n?5?$MA?V?$LE@
CONST	SEGMENT
??_C@_0DI@HOHDCNPO@?B?w?F?$KO?$LL?s?$LP?$KB?5?$MA?$PM?$LH?$KL?$MA?L?5?$MA?$PL?$LP?k?$MA?L?5?$LF?G?$LO?n?5?$MA?V?$LE@ DB 0c2H
	DB	0f7H, 0c6H, 0aeH, 0bbH, 0f3H, 0bfH, 0a1H, ' ', 0c0H, 0fcH, 0b7H
	DB	0abH, 0c0H, 0ccH, ' ', 0c0H, 0fbH, 0bfH, 0ebH, 0c0H, 0ccH, ' ', 0b5H
	DB	0c7H, 0beH, 0eeH, ' ', 0c0H, 0d6H, 0b4H, 0c2H, 0c1H, 0f6H, ' ', 0c8H
	DB	0aeH, 0c0H, 0ceH, 0c7H, 0cfH, 0bdH, 0c3H, 0b1H, 0e2H, ' ', 0b9H
	DB	0d9H, 0b6H, 0f8H, 0b4H, 0cfH, 0b4H, 0d9H, '.', 00H ; `string'
CONST	ENDS
;	COMDAT ??_C@_08OOJOHCD@?$CFs?2?$CFs?4ST@
CONST	SEGMENT
??_C@_08OOJOHCD@?$CFs?2?$CFs?4ST@ DB '%s\%s.ST', 00H	; `string'
CONST	ENDS
;	COMDAT ??_C@_0BJ@GJNCLGJM@?$MA?$PM?$LH?$KL?$MA?$LL?5?$LL?h?A?$KG?G?O?$LN?C?$LA?Z?$LN?$MA?$LE?O?$LB?n?$DP@
CONST	SEGMENT
??_C@_0BJ@GJNCLGJM@?$MA?$PM?$LH?$KL?$MA?$LL?5?$LL?h?A?$KG?G?O?$LN?C?$LA?Z?$LN?$MA?$LE?O?$LB?n?$DP@ DB 0c0H
	DB	0fcH, 0b7H, 0abH, 0c0H, 0bbH, ' ', 0bbH, 0e8H, 0c1H, 0a6H, 0c7H
	DB	0cfH, 0bdH, 0c3H, 0b0H, 0daH, 0bdH, 0c0H, 0b4H, 0cfH, 0b1H, 0eeH
	DB	'?', 00H					; `string'
CONST	ENDS
;	COMDAT ??_C@_0P@BCEOGAFN@?$LL?g?$LP?k?$MA?Z?A?$LG?G?U?$MA?$PM?$LH?$KL@
CONST	SEGMENT
??_C@_0P@BCEOGAFN@?$LL?g?$LP?k?$MA?Z?A?$LG?G?U?$MA?$PM?$LH?$KL@ DB 0bbH, 0e7H
	DB	0bfH, 0ebH, 0c0H, 0daH, 0c1H, 0b6H, 0c7H, 0d5H, 0c0H, 0fcH, 0b7H
	DB	0abH, 00H					; `string'
CONST	ENDS
;	COMDAT ??_C@_0P@EACIJNAL@?$LL?g?$LP?k?$MA?Z?$LA?$KN?$LM?$LM?$LO?$OA?$LM?$LM@
CONST	SEGMENT
??_C@_0P@EACIJNAL@?$LL?g?$LP?k?$MA?Z?$LA?$KN?$LM?$LM?$LO?$OA?$LM?$LM@ DB 0bbH
	DB	0e7H, 0bfH, 0ebH, 0c0H, 0daH, 0b0H, 0adH, 0bcH, 0bcH, 0beH, 0e0H
	DB	0bcH, 0bcH, 00H				; `string'
CONST	ENDS
;	COMDAT ??_C@_0L@DLNLHHBM@?$LL?g?$LP?k?$MA?Z?A?v?G?$KF@
CONST	SEGMENT
??_C@_0L@DLNLHHBM@?$LL?g?$LP?k?$MA?Z?A?v?G?$KF@ DB 0bbH, 0e7H, 0bfH, 0ebH
	DB	0c0H, 0daH, 0c1H, 0f6H, 0c7H, 0a5H, 00H	; `string'
CONST	ENDS
;	COMDAT ??_C@_0P@GKBMMIPA@?$LL?g?$LP?k?$MA?Z?$LE?$NM?$MA?$KH?$MA?$PM?$LH?$KL@
CONST	SEGMENT
??_C@_0P@GKBMMIPA@?$LL?g?$LP?k?$MA?Z?$LE?$NM?$MA?$KH?$MA?$PM?$LH?$KL@ DB 0bbH
	DB	0e7H, 0bfH, 0ebH, 0c0H, 0daH, 0b4H, 0dcH, 0c0H, 0a7H, 0c0H, 0fcH
	DB	0b7H, 0abH, 00H				; `string'
CONST	ENDS
;	COMDAT ??_C@_0CC@DGBJBMGM@?A?$KG?$LA?x?$LF?H?5?$MA?$PM?$LH?$KL?$MA?$LK?5?$LL?h?A?$KG?G?R?5?$LM?v?5?$LO?x?$LN?$MA?$LE?O?$LE@
CONST	SEGMENT
??_C@_0CC@DGBJBMGM@?A?$KG?$LA?x?$LF?H?5?$MA?$PM?$LH?$KL?$MA?$LK?5?$LL?h?A?$KG?G?R?5?$LM?v?5?$LO?x?$LN?$MA?$LE?O?$LE@ DB 0c1H
	DB	0a6H, 0b0H, 0f8H, 0b5H, 0c8H, ' ', 0c0H, 0fcH, 0b7H, 0abH, 0c0H
	DB	0baH, ' ', 0bbH, 0e8H, 0c1H, 0a6H, 0c7H, 0d2H, ' ', 0bcH, 0f6H
	DB	' ', 0beH, 0f8H, 0bdH, 0c0H, 0b4H, 0cfH, 0b4H, 0d9H, '.', 00H ; `string'
CONST	ENDS
;	COMDAT ??_C@_04CFDBLPCI@?$LL?h?A?$KG@
CONST	SEGMENT
??_C@_04CFDBLPCI@?$LL?h?A?$KG@ DB 0bbH, 0e8H, 0c1H, 0a6H, 00H ; `string'
CONST	ENDS
;	COMDAT ??_C@_06MFMMLLPC@?$LB?$LM?$LI?$LC?C?$LM@
CONST	SEGMENT
??_C@_06MFMMLLPC@?$LB?$LM?$LI?$LC?C?$LM@ DB 0b1H, 0bcH, 0b8H, 0b2H, 0c3H, 0bcH
	DB	00H						; `string'
CONST	ENDS
;	COMDAT ??_C@_06GNAFJLOE@?$CFs?$CFc?$CFd@
CONST	SEGMENT
??_C@_06GNAFJLOE@?$CFs?$CFc?$CFd@ DB '%s%c%d', 00H	; `string'
CONST	ENDS
;	COMDAT ??_C@_08OIDEPACI@P_?$CFs?$CFc?$CFd@
CONST	SEGMENT
??_C@_08OIDEPACI@P_?$CFs?$CFc?$CFd@ DB 'P_%s%c%d', 00H	; `string'
CONST	ENDS
;	COMDAT ?messageMap@?1??GetThisMessageMap@CSTListCtrl@@KGPBUAFX_MSGMAP@@XZ@4U3@B
CONST	SEGMENT
?messageMap@?1??GetThisMessageMap@CSTListCtrl@@KGPBUAFX_MSGMAP@@XZ@4U3@B DD FLAT:?GetThisMessageMap@CListCtrl@@KGPBUAFX_MSGMAP@@XZ ; `CSTListCtrl::GetThisMessageMap'::`2'::messageMap
	DD	FLAT:?_messageEntries@?1??GetThisMessageMap@CSTListCtrl@@KGPBUAFX_MSGMAP@@XZ@4QBUAFX_MSGMAP_ENTRY@@B
CONST	ENDS
;	COMDAT ?_messageEntries@?1??GetThisMessageMap@CSTListCtrl@@KGPBUAFX_MSGMAP@@XZ@4QBUAFX_MSGMAP_ENTRY@@B
CONST	SEGMENT
?_messageEntries@?1??GetThisMessageMap@CSTListCtrl@@KGPBUAFX_MSGMAP@@XZ@4QBUAFX_MSGMAP_ENTRY@@B DD 0bc4eH ; `CSTListCtrl::GetThisMessageMap'::`2'::_messageEntries
	DD	0fffdH
	DD	00H
	DD	00H
	DD	03eH
	DD	FLAT:?OnNMDblclk@CSTListCtrl@@QAEXPAUtagNMHDR@@PAJ@Z
	DD	0bc4eH
	DD	0fffeH
	DD	00H
	DD	00H
	DD	03eH
	DD	FLAT:?OnNMClk@CSTListCtrl@@QAEXPAUtagNMHDR@@PAJ@Z
	DD	0bc4eH
	DD	0fff4H
	DD	00H
	DD	00H
	DD	03eH
	DD	FLAT:?OnCustomDraw@CSTListCtrl@@QAEXPAUtagNMHDR@@PAJ@Z
	DD	0bc4eH
	DD	0fffbH
	DD	00H
	DD	00H
	DD	03eH
	DD	FLAT:?OnNMRclick@CSTListCtrl@@QAEXPAUtagNMHDR@@PAJ@Z
	DD	00H
	DD	00H
	DD	00H
	DD	00H
	DD	00H
	DD	00H
CONST	ENDS
;	COMDAT ??_C@_0M@ENHGICKC@CSTListCtrl@
CONST	SEGMENT
??_C@_0M@ENHGICKC@CSTListCtrl@ DB 'CSTListCtrl', 00H	; `string'
CONST	ENDS
;	COMDAT ??_7CSTListCtrl@@6B@
CONST	SEGMENT
??_7CSTListCtrl@@6B@ DD FLAT:??_R4CSTListCtrl@@6B@	; CSTListCtrl::`vftable'
	DD	FLAT:?GetRuntimeClass@CSTListCtrl@@UBEPAUCRuntimeClass@@XZ
	DD	FLAT:??_ECSTListCtrl@@UAEPAXI@Z
	DD	FLAT:?Serialize@CObject@@UAEXAAVCArchive@@@Z
	DD	FLAT:?AssertValid@CObject@@UBEXXZ
	DD	FLAT:?Dump@CObject@@UBEXAAVCDumpContext@@@Z
	DD	FLAT:?OnCmdMsg@CCmdTarget@@UAEHIHPAXPAUAFX_CMDHANDLERINFO@@@Z
	DD	FLAT:?OnFinalRelease@CWnd@@UAEXXZ
	DD	FLAT:?IsInvokeAllowed@CCmdTarget@@UAEHJ@Z
	DD	FLAT:?GetDispatchIID@CCmdTarget@@UAEHPAU_GUID@@@Z
	DD	FLAT:?GetTypeInfoCount@CCmdTarget@@UAEIXZ
	DD	FLAT:?GetTypeLibCache@CCmdTarget@@UAEPAVCTypeLibCache@@XZ
	DD	FLAT:?GetTypeLib@CCmdTarget@@UAEJKPAPAUITypeLib@@@Z
	DD	FLAT:?GetMessageMap@CSTListCtrl@@MBEPBUAFX_MSGMAP@@XZ
	DD	FLAT:?GetCommandMap@CCmdTarget@@MBEPBUAFX_OLECMDMAP@@XZ
	DD	FLAT:?GetDispatchMap@CCmdTarget@@MBEPBUAFX_DISPMAP@@XZ
	DD	FLAT:?GetConnectionMap@CCmdTarget@@MBEPBUAFX_CONNECTIONMAP@@XZ
	DD	FLAT:?GetInterfaceMap@CWnd@@MBEPBUAFX_INTERFACEMAP@@XZ
	DD	FLAT:?GetEventSinkMap@CCmdTarget@@MBEPBUAFX_EVENTSINKMAP@@XZ
	DD	FLAT:?OnCreateAggregates@CCmdTarget@@UAEHXZ
	DD	FLAT:?GetInterfaceHook@CCmdTarget@@UAEPAUIUnknown@@PBX@Z
	DD	FLAT:?GetExtraConnectionPoints@CCmdTarget@@MAEHPAVCPtrArray@@@Z
	DD	FLAT:?GetConnectionHook@CCmdTarget@@MAEPAUIConnectionPoint@@ABU_GUID@@@Z
	DD	FLAT:?PreSubclassWindow@CWnd@@UAEXXZ
	DD	FLAT:?Create@CWnd@@UAEHPBD0KABUtagRECT@@PAV1@IPAUCCreateContext@@@Z
	DD	FLAT:?CreateEx@CWnd@@UAEHKPBD0KABUtagRECT@@PAV1@IPAX@Z
	DD	FLAT:?CreateEx@CWnd@@UAEHKPBD0KHHHHPAUHWND__@@PAUHMENU__@@PAX@Z
	DD	FLAT:?DestroyWindow@CWnd@@UAEHXZ
	DD	FLAT:?PreCreateWindow@CWnd@@UAEHAAUtagCREATESTRUCTA@@@Z
	DD	FLAT:?CalcWindowRect@CWnd@@UAEXPAUtagRECT@@I@Z
	DD	FLAT:?GetMenu@CWnd@@UBEPAVCMenu@@XZ
	DD	FLAT:?SetMenu@CWnd@@UAEHPAVCMenu@@@Z
	DD	FLAT:?OnToolHitTest@CWnd@@UBEHVCPoint@@PAUtagTOOLINFOA@@@Z
	DD	FLAT:?GetScrollBarCtrl@CWnd@@UBEPAVCScrollBar@@H@Z
	DD	FLAT:?WinHelpA@CWnd@@UAEXKI@Z
	DD	FLAT:?HtmlHelpA@CWnd@@UAEXKI@Z
	DD	FLAT:?WinHelpInternal@CWnd@@UAEXKI@Z
	DD	FLAT:?ContinueModal@CWnd@@UAEHXZ
	DD	FLAT:?EndModalLoop@CWnd@@UAEXH@Z
	DD	FLAT:?OnDrawIconicThumbnailOrLivePreview@CWnd@@UAEXAAVCDC@@VCRect@@VCSize@@HAAH@Z
	DD	FLAT:?EnsureStdObj@CWnd@@UAEJXZ
	DD	FLAT:?get_accParent@CWnd@@UAEJPAPAUIDispatch@@@Z
	DD	FLAT:?get_accChildCount@CWnd@@UAEJPAJ@Z
	DD	FLAT:?get_accChild@CWnd@@UAEJUtagVARIANT@@PAPAUIDispatch@@@Z
	DD	FLAT:?get_accName@CWnd@@UAEJUtagVARIANT@@PAPA_W@Z
	DD	FLAT:?get_accValue@CWnd@@UAEJUtagVARIANT@@PAPA_W@Z
	DD	FLAT:?get_accDescription@CWnd@@UAEJUtagVARIANT@@PAPA_W@Z
	DD	FLAT:?get_accRole@CWnd@@UAEJUtagVARIANT@@PAU2@@Z
	DD	FLAT:?get_accState@CWnd@@UAEJUtagVARIANT@@PAU2@@Z
	DD	FLAT:?get_accHelp@CWnd@@UAEJUtagVARIANT@@PAPA_W@Z
	DD	FLAT:?get_accHelpTopic@CWnd@@UAEJPAPA_WUtagVARIANT@@PAJ@Z
	DD	FLAT:?get_accKeyboardShortcut@CWnd@@UAEJUtagVARIANT@@PAPA_W@Z
	DD	FLAT:?get_accFocus@CWnd@@UAEJPAUtagVARIANT@@@Z
	DD	FLAT:?get_accSelection@CWnd@@UAEJPAUtagVARIANT@@@Z
	DD	FLAT:?get_accDefaultAction@CWnd@@UAEJUtagVARIANT@@PAPA_W@Z
	DD	FLAT:?accSelect@CWnd@@UAEJJUtagVARIANT@@@Z
	DD	FLAT:?accLocation@CWnd@@UAEJPAJ000UtagVARIANT@@@Z
	DD	FLAT:?accNavigate@CWnd@@UAEJJUtagVARIANT@@PAU2@@Z
	DD	FLAT:?accHitTest@CWnd@@UAEJJJPAUtagVARIANT@@@Z
	DD	FLAT:?accDoDefaultAction@CWnd@@UAEJUtagVARIANT@@@Z
	DD	FLAT:?put_accName@CWnd@@UAEJUtagVARIANT@@PA_W@Z
	DD	FLAT:?put_accValue@CWnd@@UAEJUtagVARIANT@@PA_W@Z
	DD	FLAT:?SetProxy@CWnd@@UAEJPAUIAccessibleProxy@@@Z
	DD	FLAT:?CreateAccessibleProxy@CWnd@@UAEJIJPAJ@Z
	DD	FLAT:?OnCommand@CWnd@@MAEHIJ@Z
	DD	FLAT:?OnNotify@CWnd@@MAEHIJPAJ@Z
	DD	FLAT:?GetSuperWndProcAddr@CWnd@@MAEPAP6GJPAUHWND__@@IIJ@ZXZ
	DD	FLAT:?DoDataExchange@CWnd@@MAEXPAVCDataExchange@@@Z
	DD	FLAT:?BeginModalState@CWnd@@UAEXXZ
	DD	FLAT:?EndModalState@CWnd@@UAEXXZ
	DD	FLAT:?PreTranslateMessage@CWnd@@UAEHPAUtagMSG@@@Z
	DD	FLAT:?OnAmbientProperty@CWnd@@UAEHPAVCOleControlSite@@JPAUtagVARIANT@@@Z
	DD	FLAT:?WindowProc@CWnd@@MAEJIIJ@Z
	DD	FLAT:?OnWndMsg@CWnd@@MAEHIIJPAJ@Z
	DD	FLAT:?DefWindowProcA@CWnd@@MAEJIIJ@Z
	DD	FLAT:?PostNcDestroy@CWnd@@MAEXXZ
	DD	FLAT:?OnChildNotify@CListCtrl@@MAEHIIJPAJ@Z
	DD	FLAT:?OnTouchInputs@CWnd@@MAEHIPAUtagTOUCHINPUT@@@Z
	DD	FLAT:?OnTouchInput@CWnd@@MAEHVCPoint@@HHPAUtagTOUCHINPUT@@@Z
	DD	FLAT:?GetGestureStatus@CWnd@@MAEKVCPoint@@@Z
	DD	FLAT:?OnGestureZoom@CWnd@@MAEHVCPoint@@J@Z
	DD	FLAT:?OnGesturePan@CWnd@@MAEHVCPoint@@0@Z
	DD	FLAT:?OnGestureRotate@CWnd@@MAEHVCPoint@@N@Z
	DD	FLAT:?OnGestureTwoFingerTap@CWnd@@MAEHVCPoint@@@Z
	DD	FLAT:?OnGesturePressAndTap@CWnd@@MAEHVCPoint@@J@Z
	DD	FLAT:?ResizeDynamicLayout@CWnd@@MAEXXZ
	DD	FLAT:?CheckAutoCenter@CWnd@@UAEHXZ
	DD	FLAT:?IsFrameWnd@CWnd@@UBEHXZ
	DD	FLAT:?CreateControlContainer@CWnd@@MAEHPAPAVCOleControlContainer@@@Z
	DD	FLAT:?CreateControlSite@CWnd@@MAEHPAVCOleControlContainer@@PAPAVCOleControlSite@@IABU_GUID@@@Z
	DD	FLAT:?SetOccDialogInfo@CWnd@@MAEHPAU_AFX_OCC_DIALOG_INFO@@@Z
	DD	FLAT:?GetOccDialogInfo@CWnd@@MAEPAU_AFX_OCC_DIALOG_INFO@@XZ
	DD	FLAT:?DrawItem@CListCtrl@@UAEXPAUtagDRAWITEMSTRUCT@@@Z
CONST	ENDS
;	COMDAT ?classCSTListCtrl@CSTListCtrl@@2UCRuntimeClass@@B
CONST	SEGMENT
?classCSTListCtrl@CSTListCtrl@@2UCRuntimeClass@@B DD FLAT:??_C@_0M@ENHGICKC@CSTListCtrl@ ; CSTListCtrl::classCSTListCtrl
	DD	0f8H
	DD	0ffffH
	DD	00H
	DD	FLAT:?_GetBaseClass@CSTListCtrl@@KGPAUCRuntimeClass@@XZ
	DD	00H
	DD	00H
CONST	ENDS
;	COMDAT ??_R1A@?0A@EA@CListCtrl@@8
rdata$r	SEGMENT
??_R1A@?0A@EA@CListCtrl@@8 DD FLAT:??_R0?AVCListCtrl@@@8 ; CListCtrl::`RTTI Base Class Descriptor at (0,-1,0,64)'
	DD	03H
	DD	00H
	DD	0ffffffffH
	DD	00H
	DD	040H
	DD	FLAT:??_R3CListCtrl@@8
rdata$r	ENDS
;	COMDAT ??_R2CListCtrl@@8
rdata$r	SEGMENT
??_R2CListCtrl@@8 DD FLAT:??_R1A@?0A@EA@CListCtrl@@8	; CListCtrl::`RTTI Base Class Array'
	DD	FLAT:??_R1A@?0A@EA@CWnd@@8
	DD	FLAT:??_R1A@?0A@EA@CCmdTarget@@8
	DD	FLAT:??_R1A@?0A@EA@CObject@@8
rdata$r	ENDS
;	COMDAT ??_R3CListCtrl@@8
rdata$r	SEGMENT
??_R3CListCtrl@@8 DD 00H				; CListCtrl::`RTTI Class Hierarchy Descriptor'
	DD	00H
	DD	04H
	DD	FLAT:??_R2CListCtrl@@8
rdata$r	ENDS
;	COMDAT ??_R0?AVCListCtrl@@@8
data$rs	SEGMENT
??_R0?AVCListCtrl@@@8 DD FLAT:??_7type_info@@6B@	; CListCtrl `RTTI Type Descriptor'
	DD	00H
	DB	'.?AVCListCtrl@@', 00H
data$rs	ENDS
;	COMDAT ??_R4CListCtrl@@6B@
rdata$r	SEGMENT
??_R4CListCtrl@@6B@ DD 00H				; CListCtrl::`RTTI Complete Object Locator'
	DD	00H
	DD	00H
	DD	FLAT:??_R0?AVCListCtrl@@@8
	DD	FLAT:??_R3CListCtrl@@8
rdata$r	ENDS
;	COMDAT ??_R2CCmdTarget@@8
rdata$r	SEGMENT
??_R2CCmdTarget@@8 DD FLAT:??_R1A@?0A@EA@CCmdTarget@@8	; CCmdTarget::`RTTI Base Class Array'
	DD	FLAT:??_R1A@?0A@EA@CObject@@8
rdata$r	ENDS
;	COMDAT ??_R3CCmdTarget@@8
rdata$r	SEGMENT
??_R3CCmdTarget@@8 DD 00H				; CCmdTarget::`RTTI Class Hierarchy Descriptor'
	DD	00H
	DD	02H
	DD	FLAT:??_R2CCmdTarget@@8
rdata$r	ENDS
;	COMDAT ??_R0?AVCCmdTarget@@@8
data$rs	SEGMENT
??_R0?AVCCmdTarget@@@8 DD FLAT:??_7type_info@@6B@	; CCmdTarget `RTTI Type Descriptor'
	DD	00H
	DB	'.?AVCCmdTarget@@', 00H
data$rs	ENDS
;	COMDAT ??_R1A@?0A@EA@CCmdTarget@@8
rdata$r	SEGMENT
??_R1A@?0A@EA@CCmdTarget@@8 DD FLAT:??_R0?AVCCmdTarget@@@8 ; CCmdTarget::`RTTI Base Class Descriptor at (0,-1,0,64)'
	DD	01H
	DD	00H
	DD	0ffffffffH
	DD	00H
	DD	040H
	DD	FLAT:??_R3CCmdTarget@@8
rdata$r	ENDS
;	COMDAT ??_R2CWnd@@8
rdata$r	SEGMENT
??_R2CWnd@@8 DD	FLAT:??_R1A@?0A@EA@CWnd@@8		; CWnd::`RTTI Base Class Array'
	DD	FLAT:??_R1A@?0A@EA@CCmdTarget@@8
	DD	FLAT:??_R1A@?0A@EA@CObject@@8
rdata$r	ENDS
;	COMDAT ??_R3CWnd@@8
rdata$r	SEGMENT
??_R3CWnd@@8 DD	00H					; CWnd::`RTTI Class Hierarchy Descriptor'
	DD	00H
	DD	03H
	DD	FLAT:??_R2CWnd@@8
rdata$r	ENDS
;	COMDAT ??_R0?AVCWnd@@@8
data$rs	SEGMENT
??_R0?AVCWnd@@@8 DD FLAT:??_7type_info@@6B@		; CWnd `RTTI Type Descriptor'
	DD	00H
	DB	'.?AVCWnd@@', 00H
data$rs	ENDS
;	COMDAT ??_R1A@?0A@EA@CWnd@@8
rdata$r	SEGMENT
??_R1A@?0A@EA@CWnd@@8 DD FLAT:??_R0?AVCWnd@@@8		; CWnd::`RTTI Base Class Descriptor at (0,-1,0,64)'
	DD	02H
	DD	00H
	DD	0ffffffffH
	DD	00H
	DD	040H
	DD	FLAT:??_R3CWnd@@8
rdata$r	ENDS
;	COMDAT ??_R1A@?0A@EA@CMenu@@8
rdata$r	SEGMENT
??_R1A@?0A@EA@CMenu@@8 DD FLAT:??_R0?AVCMenu@@@8	; CMenu::`RTTI Base Class Descriptor at (0,-1,0,64)'
	DD	01H
	DD	00H
	DD	0ffffffffH
	DD	00H
	DD	040H
	DD	FLAT:??_R3CMenu@@8
rdata$r	ENDS
;	COMDAT ??_R2CMenu@@8
rdata$r	SEGMENT
??_R2CMenu@@8 DD FLAT:??_R1A@?0A@EA@CMenu@@8		; CMenu::`RTTI Base Class Array'
	DD	FLAT:??_R1A@?0A@EA@CObject@@8
rdata$r	ENDS
;	COMDAT ??_R3CMenu@@8
rdata$r	SEGMENT
??_R3CMenu@@8 DD 00H					; CMenu::`RTTI Class Hierarchy Descriptor'
	DD	00H
	DD	02H
	DD	FLAT:??_R2CMenu@@8
rdata$r	ENDS
;	COMDAT ??_R0?AVCMenu@@@8
data$rs	SEGMENT
??_R0?AVCMenu@@@8 DD FLAT:??_7type_info@@6B@		; CMenu `RTTI Type Descriptor'
	DD	00H
	DB	'.?AVCMenu@@', 00H
data$rs	ENDS
;	COMDAT ??_R4CMenu@@6B@
rdata$r	SEGMENT
??_R4CMenu@@6B@ DD 00H					; CMenu::`RTTI Complete Object Locator'
	DD	00H
	DD	00H
	DD	FLAT:??_R0?AVCMenu@@@8
	DD	FLAT:??_R3CMenu@@8
rdata$r	ENDS
;	COMDAT ??_R1A@?0A@EA@CFont@@8
rdata$r	SEGMENT
??_R1A@?0A@EA@CFont@@8 DD FLAT:??_R0?AVCFont@@@8	; CFont::`RTTI Base Class Descriptor at (0,-1,0,64)'
	DD	02H
	DD	00H
	DD	0ffffffffH
	DD	00H
	DD	040H
	DD	FLAT:??_R3CFont@@8
rdata$r	ENDS
;	COMDAT ??_R2CFont@@8
rdata$r	SEGMENT
??_R2CFont@@8 DD FLAT:??_R1A@?0A@EA@CFont@@8		; CFont::`RTTI Base Class Array'
	DD	FLAT:??_R1A@?0A@EA@CGdiObject@@8
	DD	FLAT:??_R1A@?0A@EA@CObject@@8
rdata$r	ENDS
;	COMDAT ??_R3CFont@@8
rdata$r	SEGMENT
??_R3CFont@@8 DD 00H					; CFont::`RTTI Class Hierarchy Descriptor'
	DD	00H
	DD	03H
	DD	FLAT:??_R2CFont@@8
rdata$r	ENDS
;	COMDAT ??_R0?AVCFont@@@8
data$rs	SEGMENT
??_R0?AVCFont@@@8 DD FLAT:??_7type_info@@6B@		; CFont `RTTI Type Descriptor'
	DD	00H
	DB	'.?AVCFont@@', 00H
data$rs	ENDS
;	COMDAT ??_R4CFont@@6B@
rdata$r	SEGMENT
??_R4CFont@@6B@ DD 00H					; CFont::`RTTI Complete Object Locator'
	DD	00H
	DD	00H
	DD	FLAT:??_R0?AVCFont@@@8
	DD	FLAT:??_R3CFont@@8
rdata$r	ENDS
;	COMDAT ??_R1A@?0A@EA@CGdiObject@@8
rdata$r	SEGMENT
??_R1A@?0A@EA@CGdiObject@@8 DD FLAT:??_R0?AVCGdiObject@@@8 ; CGdiObject::`RTTI Base Class Descriptor at (0,-1,0,64)'
	DD	01H
	DD	00H
	DD	0ffffffffH
	DD	00H
	DD	040H
	DD	FLAT:??_R3CGdiObject@@8
rdata$r	ENDS
;	COMDAT ??_R2CGdiObject@@8
rdata$r	SEGMENT
??_R2CGdiObject@@8 DD FLAT:??_R1A@?0A@EA@CGdiObject@@8	; CGdiObject::`RTTI Base Class Array'
	DD	FLAT:??_R1A@?0A@EA@CObject@@8
rdata$r	ENDS
;	COMDAT ??_R3CGdiObject@@8
rdata$r	SEGMENT
??_R3CGdiObject@@8 DD 00H				; CGdiObject::`RTTI Class Hierarchy Descriptor'
	DD	00H
	DD	02H
	DD	FLAT:??_R2CGdiObject@@8
rdata$r	ENDS
;	COMDAT ??_R0?AVCGdiObject@@@8
data$rs	SEGMENT
??_R0?AVCGdiObject@@@8 DD FLAT:??_7type_info@@6B@	; CGdiObject `RTTI Type Descriptor'
	DD	00H
	DB	'.?AVCGdiObject@@', 00H
data$rs	ENDS
;	COMDAT ??_R4CGdiObject@@6B@
rdata$r	SEGMENT
??_R4CGdiObject@@6B@ DD 00H				; CGdiObject::`RTTI Complete Object Locator'
	DD	00H
	DD	00H
	DD	FLAT:??_R0?AVCGdiObject@@@8
	DD	FLAT:??_R3CGdiObject@@8
rdata$r	ENDS
;	COMDAT ??_R1A@?0A@EA@CObject@@8
rdata$r	SEGMENT
??_R1A@?0A@EA@CObject@@8 DD FLAT:??_R0?AVCObject@@@8	; CObject::`RTTI Base Class Descriptor at (0,-1,0,64)'
	DD	00H
	DD	00H
	DD	0ffffffffH
	DD	00H
	DD	040H
	DD	FLAT:??_R3CObject@@8
rdata$r	ENDS
;	COMDAT ??_R2CObject@@8
rdata$r	SEGMENT
??_R2CObject@@8 DD FLAT:??_R1A@?0A@EA@CObject@@8	; CObject::`RTTI Base Class Array'
rdata$r	ENDS
;	COMDAT ??_R3CObject@@8
rdata$r	SEGMENT
??_R3CObject@@8 DD 00H					; CObject::`RTTI Class Hierarchy Descriptor'
	DD	00H
	DD	01H
	DD	FLAT:??_R2CObject@@8
rdata$r	ENDS
;	COMDAT ??_R0?AVCObject@@@8
data$rs	SEGMENT
??_R0?AVCObject@@@8 DD FLAT:??_7type_info@@6B@		; CObject `RTTI Type Descriptor'
	DD	00H
	DB	'.?AVCObject@@', 00H
data$rs	ENDS
;	COMDAT ??_C@_02EMFKHFLK@?$CFX@
CONST	SEGMENT
??_C@_02EMFKHFLK@?$CFX@ DB '%X', 00H			; `string'
CONST	ENDS
;	COMDAT ??_C@_06NDLAHCHE@?$CFs?$CF08X@
CONST	SEGMENT
??_C@_06NDLAHCHE@?$CFs?$CF08X@ DB '%s%08X', 00H		; `string'
CONST	ENDS
;	COMDAT ??_C@_0P@IDMAJEGN@HANAROPCTRMAIN@
CONST	SEGMENT
??_C@_0P@IDMAJEGN@HANAROPCTRMAIN@ DB 'HANAROPCTRMAIN', 00H ; `string'
CONST	ENDS
;	COMDAT ??_C@_0M@CBBNGGHM@PcTrMng?4dll@
CONST	SEGMENT
??_C@_0M@CBBNGGHM@PcTrMng?4dll@ DB 'PcTrMng.dll', 00H	; `string'
CONST	ENDS
;	COMDAT ??_7CListCtrl@@6B@
CONST	SEGMENT
??_7CListCtrl@@6B@ DD FLAT:??_R4CListCtrl@@6B@		; CListCtrl::`vftable'
	DD	FLAT:?GetRuntimeClass@CListCtrl@@UBEPAUCRuntimeClass@@XZ
	DD	FLAT:??_ECListCtrl@@UAEPAXI@Z
	DD	FLAT:?Serialize@CObject@@UAEXAAVCArchive@@@Z
	DD	FLAT:?AssertValid@CObject@@UBEXXZ
	DD	FLAT:?Dump@CObject@@UBEXAAVCDumpContext@@@Z
	DD	FLAT:?OnCmdMsg@CCmdTarget@@UAEHIHPAXPAUAFX_CMDHANDLERINFO@@@Z
	DD	FLAT:?OnFinalRelease@CWnd@@UAEXXZ
	DD	FLAT:?IsInvokeAllowed@CCmdTarget@@UAEHJ@Z
	DD	FLAT:?GetDispatchIID@CCmdTarget@@UAEHPAU_GUID@@@Z
	DD	FLAT:?GetTypeInfoCount@CCmdTarget@@UAEIXZ
	DD	FLAT:?GetTypeLibCache@CCmdTarget@@UAEPAVCTypeLibCache@@XZ
	DD	FLAT:?GetTypeLib@CCmdTarget@@UAEJKPAPAUITypeLib@@@Z
	DD	FLAT:?GetMessageMap@CListCtrl@@MBEPBUAFX_MSGMAP@@XZ
	DD	FLAT:?GetCommandMap@CCmdTarget@@MBEPBUAFX_OLECMDMAP@@XZ
	DD	FLAT:?GetDispatchMap@CCmdTarget@@MBEPBUAFX_DISPMAP@@XZ
	DD	FLAT:?GetConnectionMap@CCmdTarget@@MBEPBUAFX_CONNECTIONMAP@@XZ
	DD	FLAT:?GetInterfaceMap@CWnd@@MBEPBUAFX_INTERFACEMAP@@XZ
	DD	FLAT:?GetEventSinkMap@CCmdTarget@@MBEPBUAFX_EVENTSINKMAP@@XZ
	DD	FLAT:?OnCreateAggregates@CCmdTarget@@UAEHXZ
	DD	FLAT:?GetInterfaceHook@CCmdTarget@@UAEPAUIUnknown@@PBX@Z
	DD	FLAT:?GetExtraConnectionPoints@CCmdTarget@@MAEHPAVCPtrArray@@@Z
	DD	FLAT:?GetConnectionHook@CCmdTarget@@MAEPAUIConnectionPoint@@ABU_GUID@@@Z
	DD	FLAT:?PreSubclassWindow@CWnd@@UAEXXZ
	DD	FLAT:?Create@CWnd@@UAEHPBD0KABUtagRECT@@PAV1@IPAUCCreateContext@@@Z
	DD	FLAT:?CreateEx@CWnd@@UAEHKPBD0KABUtagRECT@@PAV1@IPAX@Z
	DD	FLAT:?CreateEx@CWnd@@UAEHKPBD0KHHHHPAUHWND__@@PAUHMENU__@@PAX@Z
	DD	FLAT:?DestroyWindow@CWnd@@UAEHXZ
	DD	FLAT:?PreCreateWindow@CWnd@@UAEHAAUtagCREATESTRUCTA@@@Z
	DD	FLAT:?CalcWindowRect@CWnd@@UAEXPAUtagRECT@@I@Z
	DD	FLAT:?GetMenu@CWnd@@UBEPAVCMenu@@XZ
	DD	FLAT:?SetMenu@CWnd@@UAEHPAVCMenu@@@Z
	DD	FLAT:?OnToolHitTest@CWnd@@UBEHVCPoint@@PAUtagTOOLINFOA@@@Z
	DD	FLAT:?GetScrollBarCtrl@CWnd@@UBEPAVCScrollBar@@H@Z
	DD	FLAT:?WinHelpA@CWnd@@UAEXKI@Z
	DD	FLAT:?HtmlHelpA@CWnd@@UAEXKI@Z
	DD	FLAT:?WinHelpInternal@CWnd@@UAEXKI@Z
	DD	FLAT:?ContinueModal@CWnd@@UAEHXZ
	DD	FLAT:?EndModalLoop@CWnd@@UAEXH@Z
	DD	FLAT:?OnDrawIconicThumbnailOrLivePreview@CWnd@@UAEXAAVCDC@@VCRect@@VCSize@@HAAH@Z
	DD	FLAT:?EnsureStdObj@CWnd@@UAEJXZ
	DD	FLAT:?get_accParent@CWnd@@UAEJPAPAUIDispatch@@@Z
	DD	FLAT:?get_accChildCount@CWnd@@UAEJPAJ@Z
	DD	FLAT:?get_accChild@CWnd@@UAEJUtagVARIANT@@PAPAUIDispatch@@@Z
	DD	FLAT:?get_accName@CWnd@@UAEJUtagVARIANT@@PAPA_W@Z
	DD	FLAT:?get_accValue@CWnd@@UAEJUtagVARIANT@@PAPA_W@Z
	DD	FLAT:?get_accDescription@CWnd@@UAEJUtagVARIANT@@PAPA_W@Z
	DD	FLAT:?get_accRole@CWnd@@UAEJUtagVARIANT@@PAU2@@Z
	DD	FLAT:?get_accState@CWnd@@UAEJUtagVARIANT@@PAU2@@Z
	DD	FLAT:?get_accHelp@CWnd@@UAEJUtagVARIANT@@PAPA_W@Z
	DD	FLAT:?get_accHelpTopic@CWnd@@UAEJPAPA_WUtagVARIANT@@PAJ@Z
	DD	FLAT:?get_accKeyboardShortcut@CWnd@@UAEJUtagVARIANT@@PAPA_W@Z
	DD	FLAT:?get_accFocus@CWnd@@UAEJPAUtagVARIANT@@@Z
	DD	FLAT:?get_accSelection@CWnd@@UAEJPAUtagVARIANT@@@Z
	DD	FLAT:?get_accDefaultAction@CWnd@@UAEJUtagVARIANT@@PAPA_W@Z
	DD	FLAT:?accSelect@CWnd@@UAEJJUtagVARIANT@@@Z
	DD	FLAT:?accLocation@CWnd@@UAEJPAJ000UtagVARIANT@@@Z
	DD	FLAT:?accNavigate@CWnd@@UAEJJUtagVARIANT@@PAU2@@Z
	DD	FLAT:?accHitTest@CWnd@@UAEJJJPAUtagVARIANT@@@Z
	DD	FLAT:?accDoDefaultAction@CWnd@@UAEJUtagVARIANT@@@Z
	DD	FLAT:?put_accName@CWnd@@UAEJUtagVARIANT@@PA_W@Z
	DD	FLAT:?put_accValue@CWnd@@UAEJUtagVARIANT@@PA_W@Z
	DD	FLAT:?SetProxy@CWnd@@UAEJPAUIAccessibleProxy@@@Z
	DD	FLAT:?CreateAccessibleProxy@CWnd@@UAEJIJPAJ@Z
	DD	FLAT:?OnCommand@CWnd@@MAEHIJ@Z
	DD	FLAT:?OnNotify@CWnd@@MAEHIJPAJ@Z
	DD	FLAT:?GetSuperWndProcAddr@CWnd@@MAEPAP6GJPAUHWND__@@IIJ@ZXZ
	DD	FLAT:?DoDataExchange@CWnd@@MAEXPAVCDataExchange@@@Z
	DD	FLAT:?BeginModalState@CWnd@@UAEXXZ
	DD	FLAT:?EndModalState@CWnd@@UAEXXZ
	DD	FLAT:?PreTranslateMessage@CWnd@@UAEHPAUtagMSG@@@Z
	DD	FLAT:?OnAmbientProperty@CWnd@@UAEHPAVCOleControlSite@@JPAUtagVARIANT@@@Z
	DD	FLAT:?WindowProc@CWnd@@MAEJIIJ@Z
	DD	FLAT:?OnWndMsg@CWnd@@MAEHIIJPAJ@Z
	DD	FLAT:?DefWindowProcA@CWnd@@MAEJIIJ@Z
	DD	FLAT:?PostNcDestroy@CWnd@@MAEXXZ
	DD	FLAT:?OnChildNotify@CListCtrl@@MAEHIIJPAJ@Z
	DD	FLAT:?OnTouchInputs@CWnd@@MAEHIPAUtagTOUCHINPUT@@@Z
	DD	FLAT:?OnTouchInput@CWnd@@MAEHVCPoint@@HHPAUtagTOUCHINPUT@@@Z
	DD	FLAT:?GetGestureStatus@CWnd@@MAEKVCPoint@@@Z
	DD	FLAT:?OnGestureZoom@CWnd@@MAEHVCPoint@@J@Z
	DD	FLAT:?OnGesturePan@CWnd@@MAEHVCPoint@@0@Z
	DD	FLAT:?OnGestureRotate@CWnd@@MAEHVCPoint@@N@Z
	DD	FLAT:?OnGestureTwoFingerTap@CWnd@@MAEHVCPoint@@@Z
	DD	FLAT:?OnGesturePressAndTap@CWnd@@MAEHVCPoint@@J@Z
	DD	FLAT:?ResizeDynamicLayout@CWnd@@MAEXXZ
	DD	FLAT:?CheckAutoCenter@CWnd@@UAEHXZ
	DD	FLAT:?IsFrameWnd@CWnd@@UBEHXZ
	DD	FLAT:?CreateControlContainer@CWnd@@MAEHPAPAVCOleControlContainer@@@Z
	DD	FLAT:?CreateControlSite@CWnd@@MAEHPAVCOleControlContainer@@PAPAVCOleControlSite@@IABU_GUID@@@Z
	DD	FLAT:?SetOccDialogInfo@CWnd@@MAEHPAU_AFX_OCC_DIALOG_INFO@@@Z
	DD	FLAT:?GetOccDialogInfo@CWnd@@MAEPAU_AFX_OCC_DIALOG_INFO@@XZ
	DD	FLAT:?DrawItem@CListCtrl@@UAEXPAUtagDRAWITEMSTRUCT@@@Z
CONST	ENDS
;	COMDAT ??_C@_0N@OMEMOKLE@?$CFTs?5?$CI?$CFTs?3?$CFd?$CJ@
CONST	SEGMENT
??_C@_0N@OMEMOKLE@?$CFTs?5?$CI?$CFTs?3?$CFd?$CJ@ DB '%Ts (%Ts:%d)', 00H ; `string'
CONST	ENDS
;	COMDAT ??_C@_0BB@HBOOMJBF@?$CFTs?5?$CI?$CFTs?3?$CFd?$CJ?6?$CFTs@
CONST	SEGMENT
??_C@_0BB@HBOOMJBF@?$CFTs?5?$CI?$CFTs?3?$CFd?$CJ?6?$CFTs@ DB '%Ts (%Ts:%d'
	DB	')', 0aH, '%Ts', 00H				; `string'
CONST	ENDS
;	COMDAT ??_C@_0BP@OIEOKIDM@Exception?5thrown?5in?5destructor@
CONST	SEGMENT
??_C@_0BP@OIEOKIDM@Exception?5thrown?5in?5destructor@ DB 'Exception throw'
	DB	'n in destructor', 00H			; `string'
CONST	ENDS
;	COMDAT ??_C@_0HD@JJCHHHNK@C?3?2Program?5Files?5?$CIx86?$CJ?2Microsof@
CONST	SEGMENT
??_C@_0HD@JJCHHHNK@C?3?2Program?5Files?5?$CIx86?$CJ?2Microsof@ DB 'C:\Pro'
	DB	'gram Files (x86)\Microsoft Visual Studio\2019\Community\VC\To'
	DB	'ols\MSVC\14.29.30133\atlmfc\include\afxwin1.inl', 00H ; `string'
CONST	ENDS
;	COMDAT ??_7CMenu@@6B@
CONST	SEGMENT
??_7CMenu@@6B@ DD FLAT:??_R4CMenu@@6B@			; CMenu::`vftable'
	DD	FLAT:?GetRuntimeClass@CMenu@@UBEPAUCRuntimeClass@@XZ
	DD	FLAT:??_ECMenu@@UAEPAXI@Z
	DD	FLAT:?Serialize@CObject@@UAEXAAVCArchive@@@Z
	DD	FLAT:?AssertValid@CObject@@UBEXXZ
	DD	FLAT:?Dump@CObject@@UBEXAAVCDumpContext@@@Z
	DD	FLAT:?DrawItem@CMenu@@UAEXPAUtagDRAWITEMSTRUCT@@@Z
	DD	FLAT:?MeasureItem@CMenu@@UAEXPAUtagMEASUREITEMSTRUCT@@@Z
CONST	ENDS
;	COMDAT ??_7CFont@@6B@
CONST	SEGMENT
??_7CFont@@6B@ DD FLAT:??_R4CFont@@6B@			; CFont::`vftable'
	DD	FLAT:?GetRuntimeClass@CFont@@UBEPAUCRuntimeClass@@XZ
	DD	FLAT:??_ECFont@@UAEPAXI@Z
	DD	FLAT:?Serialize@CObject@@UAEXAAVCArchive@@@Z
	DD	FLAT:?AssertValid@CObject@@UBEXXZ
	DD	FLAT:?Dump@CObject@@UBEXAAVCDumpContext@@@Z
CONST	ENDS
;	COMDAT ??_7CGdiObject@@6B@
CONST	SEGMENT
??_7CGdiObject@@6B@ DD FLAT:??_R4CGdiObject@@6B@	; CGdiObject::`vftable'
	DD	FLAT:?GetRuntimeClass@CGdiObject@@UBEPAUCRuntimeClass@@XZ
	DD	FLAT:??_ECGdiObject@@UAEPAXI@Z
	DD	FLAT:?Serialize@CObject@@UAEXAAVCArchive@@@Z
	DD	FLAT:?AssertValid@CObject@@UBEXXZ
	DD	FLAT:?Dump@CObject@@UBEXAAVCDumpContext@@@Z
CONST	ENDS
;	COMDAT ??_R0PAVCException@@@8
data$r	SEGMENT
??_R0PAVCException@@@8 DD FLAT:??_7type_info@@6B@	; CException * `RTTI Type Descriptor'
	DD	00H
	DB	'.PAVCException@@', 00H
data$r	ENDS
;	COMDAT xdata$x
xdata$x	SEGMENT
__unwindtable$??_GCSTListCtrl@@UAEPAXI@Z DD 0ffffffffH
	DD	FLAT:___std_terminate
__ehfuncinfo$??_GCSTListCtrl@@UAEPAXI@Z DD 019930522H
	DD	01H
	DD	FLAT:__unwindtable$??_GCSTListCtrl@@UAEPAXI@Z
	DD	2 DUP(00H)
	DD	2 DUP(00H)
	DD	00H
	DD	05H
xdata$x	ENDS
;	COMDAT xdata$x
xdata$x	SEGMENT
__ehfuncinfo$?OnNMRclick@CSTListCtrl@@QAEXPAUtagNMHDR@@PAJ@Z DD 019930522H
	DD	07H
	DD	FLAT:__unwindtable$?OnNMRclick@CSTListCtrl@@QAEXPAUtagNMHDR@@PAJ@Z
	DD	2 DUP(00H)
	DD	2 DUP(00H)
	DD	00H
	DD	01H
__unwindtable$?OnNMRclick@CSTListCtrl@@QAEXPAUtagNMHDR@@PAJ@Z DD 0ffffffffH
	DD	FLAT:__unwindfunclet$?OnNMRclick@CSTListCtrl@@QAEXPAUtagNMHDR@@PAJ@Z$0
	DD	00H
	DD	FLAT:__unwindfunclet$?OnNMRclick@CSTListCtrl@@QAEXPAUtagNMHDR@@PAJ@Z$1
	DD	01H
	DD	FLAT:__unwindfunclet$?OnNMRclick@CSTListCtrl@@QAEXPAUtagNMHDR@@PAJ@Z$2
	DD	02H
	DD	FLAT:__unwindfunclet$?OnNMRclick@CSTListCtrl@@QAEXPAUtagNMHDR@@PAJ@Z$6
	DD	02H
	DD	FLAT:__unwindfunclet$?OnNMRclick@CSTListCtrl@@QAEXPAUtagNMHDR@@PAJ@Z$3
	DD	04H
	DD	FLAT:__unwindfunclet$?OnNMRclick@CSTListCtrl@@QAEXPAUtagNMHDR@@PAJ@Z$4
	DD	0ffffffffH
	DD	FLAT:___std_terminate
xdata$x	ENDS
;	COMDAT xdata$x
xdata$x	SEGMENT
__unwindtable$?OnNMClk@CSTListCtrl@@QAEXPAUtagNMHDR@@PAJ@Z DD 0ffffffffH
	DD	FLAT:__unwindfunclet$?OnNMClk@CSTListCtrl@@QAEXPAUtagNMHDR@@PAJ@Z$0
	DD	00H
	DD	FLAT:__unwindfunclet$?OnNMClk@CSTListCtrl@@QAEXPAUtagNMHDR@@PAJ@Z$1
__ehfuncinfo$?OnNMClk@CSTListCtrl@@QAEXPAUtagNMHDR@@PAJ@Z DD 019930522H
	DD	02H
	DD	FLAT:__unwindtable$?OnNMClk@CSTListCtrl@@QAEXPAUtagNMHDR@@PAJ@Z
	DD	2 DUP(00H)
	DD	2 DUP(00H)
	DD	00H
	DD	01H
xdata$x	ENDS
;	COMDAT xdata$x
xdata$x	SEGMENT
__unwindtable$?OnNMDblclk@CSTListCtrl@@QAEXPAUtagNMHDR@@PAJ@Z DD 0ffffffffH
	DD	FLAT:__unwindfunclet$?OnNMDblclk@CSTListCtrl@@QAEXPAUtagNMHDR@@PAJ@Z$0
	DD	00H
	DD	FLAT:__unwindfunclet$?OnNMDblclk@CSTListCtrl@@QAEXPAUtagNMHDR@@PAJ@Z$1
__ehfuncinfo$?OnNMDblclk@CSTListCtrl@@QAEXPAUtagNMHDR@@PAJ@Z DD 019930522H
	DD	02H
	DD	FLAT:__unwindtable$?OnNMDblclk@CSTListCtrl@@QAEXPAUtagNMHDR@@PAJ@Z
	DD	2 DUP(00H)
	DD	2 DUP(00H)
	DD	00H
	DD	01H
xdata$x	ENDS
;	COMDAT xdata$x
xdata$x	SEGMENT
__unwindtable$?InitFont@CSTListCtrl@@QAEXH@Z DD 0ffffffffH
	DD	FLAT:__unwindfunclet$?InitFont@CSTListCtrl@@QAEXH@Z$0
__ehfuncinfo$?InitFont@CSTListCtrl@@QAEXH@Z DD 019930522H
	DD	01H
	DD	FLAT:__unwindtable$?InitFont@CSTListCtrl@@QAEXH@Z
	DD	2 DUP(00H)
	DD	2 DUP(00H)
	DD	00H
	DD	01H
xdata$x	ENDS
;	COMDAT xdata$x
xdata$x	SEGMENT
__ehfuncinfo$??1CSTListCtrl@@UAE@XZ DD 019930522H
	DD	00H
	DD	00H
	DD	2 DUP(00H)
	DD	2 DUP(00H)
	DD	00H
	DD	05H
xdata$x	ENDS
;	COMDAT xdata$x
xdata$x	SEGMENT
__ehfuncinfo$??0CSTListCtrl@@QAE@XZ DD 019930522H
	DD	05H
	DD	FLAT:__unwindtable$??0CSTListCtrl@@QAE@XZ
	DD	2 DUP(00H)
	DD	2 DUP(00H)
	DD	00H
	DD	01H
__unwindtable$??0CSTListCtrl@@QAE@XZ DD 0ffffffffH
	DD	FLAT:__unwindfunclet$??0CSTListCtrl@@QAE@XZ$0
	DD	00H
	DD	FLAT:__unwindfunclet$??0CSTListCtrl@@QAE@XZ$1
	DD	01H
	DD	FLAT:__unwindfunclet$??0CSTListCtrl@@QAE@XZ$2
	DD	02H
	DD	FLAT:__unwindfunclet$??0CSTListCtrl@@QAE@XZ$3
	DD	03H
	DD	FLAT:__unwindfunclet$??0CSTListCtrl@@QAE@XZ$4
xdata$x	ENDS
;	COMDAT xdata$x
xdata$x	SEGMENT
__unwindtable$?AfxGetPctrInterface@@YGJH@Z DD 0ffffffffH
	DD	FLAT:__unwindfunclet$?AfxGetPctrInterface@@YGJH@Z$0
__ehfuncinfo$?AfxGetPctrInterface@@YGJH@Z DD 019930522H
	DD	01H
	DD	FLAT:__unwindtable$?AfxGetPctrInterface@@YGJH@Z
	DD	2 DUP(00H)
	DD	2 DUP(00H)
	DD	00H
	DD	01H
xdata$x	ENDS
;	COMDAT xdata$x
xdata$x	SEGMENT
__unwindtable$??_GCMenu@@UAEPAXI@Z DD 0ffffffffH
	DD	FLAT:___std_terminate
__ehfuncinfo$??_GCMenu@@UAEPAXI@Z DD 019930522H
	DD	01H
	DD	FLAT:__unwindtable$??_GCMenu@@UAEPAXI@Z
	DD	2 DUP(00H)
	DD	2 DUP(00H)
	DD	00H
	DD	05H
xdata$x	ENDS
;	COMDAT xdata$x
xdata$x	SEGMENT
__ehfuncinfo$??1CMenu@@UAE@XZ DD 019930522H
	DD	00H
	DD	00H
	DD	2 DUP(00H)
	DD	2 DUP(00H)
	DD	00H
	DD	05H
xdata$x	ENDS
;	COMDAT xdata$x
xdata$x	SEGMENT
__catchsym$??1CGdiObject@@UAE@XZ$3 DD 00H
	DD	FLAT:??_R0PAVCException@@@8
	DD	0fffffde4H
	DD	FLAT:__catch$??1CGdiObject@@UAE@XZ$0
__tryblocktable$??1CGdiObject@@UAE@XZ DD 00H
	DD	00H
	DD	02H
	DD	01H
	DD	FLAT:__catchsym$??1CGdiObject@@UAE@XZ$3
__unwindtable$??1CGdiObject@@UAE@XZ DD 0ffffffffH
	DD	00H
	DD	0ffffffffH
	DD	00H
	DD	01H
	DD	FLAT:__unwindfunclet$??1CGdiObject@@UAE@XZ$2
__ehfuncinfo$??1CGdiObject@@UAE@XZ DD 019930522H
	DD	03H
	DD	FLAT:__unwindtable$??1CGdiObject@@UAE@XZ
	DD	01H
	DD	FLAT:__tryblocktable$??1CGdiObject@@UAE@XZ
	DD	2 DUP(00H)
	DD	00H
	DD	05H
xdata$x	ENDS
CRT$XCU	SEGMENT
?RMSG_OB_ITEMCLICK$initializer$@@3P6AXXZA DD FLAT:??__ERMSG_OB_ITEMCLICK@@YAXXZ ; RMSG_OB_ITEMCLICK$initializer$
CRT$XCU	ENDS
CRT$XCU	SEGMENT
?RMSG_OB_ITEMDBLCLK$initializer$@@3P6AXXZA DD FLAT:??__ERMSG_OB_ITEMDBLCLK@@YAXXZ ; RMSG_OB_ITEMDBLCLK$initializer$
CRT$XCU	ENDS
CRT$XCU	SEGMENT
?RMSG_ISSTRUNSTATE$initializer$@@3P6AXXZA DD FLAT:??__ERMSG_ISSTRUNSTATE@@YAXXZ ; RMSG_ISSTRUNSTATE$initializer$
CRT$XCU	ENDS
; Function compile flags: /Ogtp
; File D:\git\src\IBK\IBK_DRFN\ProjSrc\SrcDrfn\Chart\Common_ST\STListCtrl.cpp
;	COMDAT ??__ERMSG_ISSTRUNSTATE@@YAXXZ
text$di	SEGMENT
??__ERMSG_ISSTRUNSTATE@@YAXXZ PROC			; `dynamic initializer for 'RMSG_ISSTRUNSTATE'', COMDAT

; 12   : const UINT RMSG_ISSTRUNSTATE = ::RegisterWindowMessage(_T("RMSG_ISSTRUNSTATE"));

  00000	68 00 00 00 00	 push	 OFFSET ??_C@_0BC@HAIAMDMN@RMSG_ISSTRUNSTATE@
  00005	ff 15 00 00 00
	00		 call	 DWORD PTR __imp__RegisterWindowMessageA@4
  0000b	a3 00 00 00 00	 mov	 DWORD PTR ?RMSG_ISSTRUNSTATE@@3IB, eax
  00010	c3		 ret	 0
??__ERMSG_ISSTRUNSTATE@@YAXXZ ENDP			; `dynamic initializer for 'RMSG_ISSTRUNSTATE''
text$di	ENDS
; Function compile flags: /Ogtp
; File D:\git\src\IBK\IBK_DRFN\ProjSrc\SrcDrfn\Chart\Common_ST\STListCtrl.cpp
;	COMDAT ??__ERMSG_OB_ITEMDBLCLK@@YAXXZ
text$di	SEGMENT
??__ERMSG_OB_ITEMDBLCLK@@YAXXZ PROC			; `dynamic initializer for 'RMSG_OB_ITEMDBLCLK'', COMDAT

; 11   : const UINT RMSG_OB_ITEMDBLCLK = ::RegisterWindowMessage("RMSG_OB_ITEMDBLCLK");

  00000	68 00 00 00 00	 push	 OFFSET ??_C@_0BD@GFDLLOKP@RMSG_OB_ITEMDBLCLK@
  00005	ff 15 00 00 00
	00		 call	 DWORD PTR __imp__RegisterWindowMessageA@4
  0000b	a3 00 00 00 00	 mov	 DWORD PTR ?RMSG_OB_ITEMDBLCLK@@3IB, eax
  00010	c3		 ret	 0
??__ERMSG_OB_ITEMDBLCLK@@YAXXZ ENDP			; `dynamic initializer for 'RMSG_OB_ITEMDBLCLK''
text$di	ENDS
; Function compile flags: /Ogtp
; File D:\git\src\IBK\IBK_DRFN\ProjSrc\SrcDrfn\Chart\Common_ST\STListCtrl.cpp
;	COMDAT ??__ERMSG_OB_ITEMCLICK@@YAXXZ
text$di	SEGMENT
??__ERMSG_OB_ITEMCLICK@@YAXXZ PROC			; `dynamic initializer for 'RMSG_OB_ITEMCLICK'', COMDAT

; 10   : const UINT RMSG_OB_ITEMCLICK = ::RegisterWindowMessage("RMSG_OB_ITEMCLICK");

  00000	68 00 00 00 00	 push	 OFFSET ??_C@_0BC@LAMDBJGM@RMSG_OB_ITEMCLICK@
  00005	ff 15 00 00 00
	00		 call	 DWORD PTR __imp__RegisterWindowMessageA@4
  0000b	a3 00 00 00 00	 mov	 DWORD PTR ?RMSG_OB_ITEMCLICK@@3IB, eax
  00010	c3		 ret	 0
??__ERMSG_OB_ITEMCLICK@@YAXXZ ENDP			; `dynamic initializer for 'RMSG_OB_ITEMCLICK''
text$di	ENDS
; Function compile flags: /Ogtp
;	COMDAT ??1STMNG_ITEMINFO@@QAE@XZ
_TEXT	SEGMENT
??1STMNG_ITEMINFO@@QAE@XZ PROC				; STMNG_ITEMINFO::~STMNG_ITEMINFO, COMDAT
; _this$ = ecx
  00000	56		 push	 esi
  00001	8b f1		 mov	 esi, ecx
  00003	8d 4e 08	 lea	 ecx, DWORD PTR [esi+8]
  00006	ff 15 00 00 00
	00		 call	 DWORD PTR __imp_??1?$CStringT@DV?$StrTraitMFC_DLL@DV?$ChTraitsCRT@D@ATL@@@@@ATL@@QAE@XZ
  0000c	8d 4e 04	 lea	 ecx, DWORD PTR [esi+4]
  0000f	ff 15 00 00 00
	00		 call	 DWORD PTR __imp_??1?$CStringT@DV?$StrTraitMFC_DLL@DV?$ChTraitsCRT@D@ATL@@@@@ATL@@QAE@XZ
  00015	8b ce		 mov	 ecx, esi
  00017	5e		 pop	 esi
  00018	ff 25 00 00 00
	00		 jmp	 DWORD PTR __imp_??1?$CStringT@DV?$StrTraitMFC_DLL@DV?$ChTraitsCRT@D@ATL@@@@@ATL@@QAE@XZ
??1STMNG_ITEMINFO@@QAE@XZ ENDP				; STMNG_ITEMINFO::~STMNG_ITEMINFO
_TEXT	ENDS
; Function compile flags: /Ogtp
; File D:\git\src\IBK\IBK_DRFN\ProjSrc\SrcDrfn\Chart\Common_ST\STListCtrl.cpp
; File C:\Program Files (x86)\Microsoft Visual Studio\2019\Community\VC\Tools\MSVC\14.29.30133\atlmfc\include\afxwin1.inl
; File D:\git\src\IBK\IBK_DRFN\ProjSrc\SrcDrfn\Chart\Common_ST\STListCtrl.cpp
; File C:\Program Files (x86)\Microsoft Visual Studio\2019\Community\VC\Tools\MSVC\14.29.30133\atlmfc\include\afxwin1.inl
; File D:\git\src\IBK\IBK_DRFN\ProjSrc\SrcDrfn\Chart\Common_ST\STListCtrl.cpp
; File C:\Program Files (x86)\Microsoft Visual Studio\2019\Community\VC\Tools\MSVC\14.29.30133\atlmfc\include\afx.inl
;	COMDAT ??_GCSTListCtrl@@UAEPAXI@Z
_TEXT	SEGMENT
__$EHRec$ = -12						; size = 12
___flags$ = 8						; size = 4
??_GCSTListCtrl@@UAEPAXI@Z PROC				; CSTListCtrl::`scalar deleting destructor', COMDAT
; _this$ = ecx
  00000	55		 push	 ebp
  00001	8b ec		 mov	 ebp, esp
  00003	6a ff		 push	 -1
  00005	68 00 00 00 00	 push	 __ehhandler$??_GCSTListCtrl@@UAEPAXI@Z
  0000a	64 a1 00 00 00
	00		 mov	 eax, DWORD PTR fs:0
  00010	50		 push	 eax
  00011	56		 push	 esi
  00012	57		 push	 edi
  00013	a1 00 00 00 00	 mov	 eax, DWORD PTR ___security_cookie
  00018	33 c5		 xor	 eax, ebp
  0001a	50		 push	 eax
  0001b	8d 45 f4	 lea	 eax, DWORD PTR __$EHRec$[ebp]
  0001e	64 a3 00 00 00
	00		 mov	 DWORD PTR fs:0, eax
  00024	8b f1		 mov	 esi, ecx
; File D:\git\src\IBK\IBK_DRFN\ProjSrc\SrcDrfn\Chart\Common_ST\STListCtrl.cpp

; 23   : 	if (m_fontBold.GetSafeHandle())

  00026	8d be cc 00 00
	00		 lea	 edi, DWORD PTR [esi+204]
  0002c	c7 45 fc 00 00
	00 00		 mov	 DWORD PTR __$EHRec$[ebp+8], 0
  00033	c7 06 00 00 00
	00		 mov	 DWORD PTR [esi], OFFSET ??_7CSTListCtrl@@6B@
; File C:\Program Files (x86)\Microsoft Visual Studio\2019\Community\VC\Tools\MSVC\14.29.30133\atlmfc\include\afxwin1.inl

; 68   : 	{ return this == NULL ? NULL : m_hObject; }

  00039	85 ff		 test	 edi, edi
  0003b	74 0d		 je	 SHORT $LN8@scalar
; File D:\git\src\IBK\IBK_DRFN\ProjSrc\SrcDrfn\Chart\Common_ST\STListCtrl.cpp

; 23   : 	if (m_fontBold.GetSafeHandle())

  0003d	83 7f 04 00	 cmp	 DWORD PTR [edi+4], 0
  00041	74 07		 je	 SHORT $LN8@scalar

; 24   : 		m_fontBold.DeleteObject();

  00043	8b cf		 mov	 ecx, edi
  00045	e8 00 00 00 00	 call	 ?DeleteObject@CGdiObject@@QAEHXZ ; CGdiObject::DeleteObject
$LN8@scalar:

; 25   : }

  0004a	8d 8e e4 00 00
	00		 lea	 ecx, DWORD PTR [esi+228]
  00050	e8 00 00 00 00	 call	 ??1CDWordArray@@UAE@XZ	; CDWordArray::~CDWordArray
  00055	8d 8e e0 00 00
	00		 lea	 ecx, DWORD PTR [esi+224]
  0005b	ff 15 00 00 00
	00		 call	 DWORD PTR __imp_??1?$CStringT@DV?$StrTraitMFC_DLL@DV?$ChTraitsCRT@D@ATL@@@@@ATL@@QAE@XZ
; File C:\Program Files (x86)\Microsoft Visual Studio\2019\Community\VC\Tools\MSVC\14.29.30133\atlmfc\include\afxwin1.inl

; 155  : 	{ }

  00061	8b cf		 mov	 ecx, edi
  00063	c7 07 00 00 00
	00		 mov	 DWORD PTR [edi], OFFSET ??_7CFont@@6B@
  00069	e8 00 00 00 00	 call	 ??1CGdiObject@@UAE@XZ	; CGdiObject::~CGdiObject
; File D:\git\src\IBK\IBK_DRFN\ProjSrc\SrcDrfn\Chart\Common_ST\STListCtrl.cpp

; 25   : }

  0006e	8d 8e 84 00 00
	00		 lea	 ecx, DWORD PTR [esi+132]
  00074	ff 15 00 00 00
	00		 call	 DWORD PTR __imp_??1?$CStringT@DV?$StrTraitMFC_DLL@DV?$ChTraitsCRT@D@ATL@@@@@ATL@@QAE@XZ
  0007a	8d 8e 80 00 00
	00		 lea	 ecx, DWORD PTR [esi+128]
  00080	ff 15 00 00 00
	00		 call	 DWORD PTR __imp_??1?$CStringT@DV?$StrTraitMFC_DLL@DV?$ChTraitsCRT@D@ATL@@@@@ATL@@QAE@XZ
  00086	8b ce		 mov	 ecx, esi
  00088	e8 00 00 00 00	 call	 ??1CListCtrl@@UAE@XZ	; CListCtrl::~CListCtrl
  0008d	8b 45 08	 mov	 eax, DWORD PTR ___flags$[ebp]
  00090	a8 01		 test	 al, 1
  00092	74 1d		 je	 SHORT $LN20@scalar
  00094	a8 04		 test	 al, 4
  00096	75 0b		 jne	 SHORT $LN3@scalar
; File C:\Program Files (x86)\Microsoft Visual Studio\2019\Community\VC\Tools\MSVC\14.29.30133\atlmfc\include\afx.inl

; 112  : 	{ ::operator delete(p); }

  00098	56		 push	 esi
  00099	e8 00 00 00 00	 call	 ??3@YAXPAX@Z		; operator delete
  0009e	83 c4 04	 add	 esp, 4
  000a1	eb 0e		 jmp	 SHORT $LN20@scalar
$LN3@scalar:
  000a3	68 f8 00 00 00	 push	 248			; 000000f8H
  000a8	56		 push	 esi
  000a9	e8 00 00 00 00	 call	 ?__global_delete@@YAXPAXI@Z ; __global_delete
  000ae	83 c4 08	 add	 esp, 8
$LN20@scalar:
  000b1	8b c6		 mov	 eax, esi
  000b3	8b 4d f4	 mov	 ecx, DWORD PTR __$EHRec$[ebp]
  000b6	64 89 0d 00 00
	00 00		 mov	 DWORD PTR fs:0, ecx
  000bd	59		 pop	 ecx
  000be	5f		 pop	 edi
  000bf	5e		 pop	 esi
  000c0	8b e5		 mov	 esp, ebp
  000c2	5d		 pop	 ebp
  000c3	c2 04 00	 ret	 4
  000c6	cc		 int	 3
  000c7	cc		 int	 3
  000c8	cc		 int	 3
  000c9	cc		 int	 3
  000ca	cc		 int	 3
_TEXT	ENDS
;	COMDAT text$x
text$x	SEGMENT
__ehhandler$??_GCSTListCtrl@@UAEPAXI@Z:
  00000	90		 npad	 1
  00001	90		 npad	 1
  00002	8b 54 24 08	 mov	 edx, DWORD PTR [esp+8]
  00006	8d 42 0c	 lea	 eax, DWORD PTR [edx+12]
  00009	8b 4a f4	 mov	 ecx, DWORD PTR [edx-12]
  0000c	33 c8		 xor	 ecx, eax
  0000e	e8 00 00 00 00	 call	 @__security_check_cookie@4
  00013	b8 00 00 00 00	 mov	 eax, OFFSET __ehfuncinfo$??_GCSTListCtrl@@UAEPAXI@Z
  00018	e9 00 00 00 00	 jmp	 ___CxxFrameHandler3
text$x	ENDS
??_GCSTListCtrl@@UAEPAXI@Z ENDP				; CSTListCtrl::`scalar deleting destructor'
; Function compile flags: /Ogtp
; File D:\git\src\IBK\IBK_DRFN\ProjSrc\SrcDrfn\Chart\Common_ST\STListCtrl.cpp
; File C:\Program Files (x86)\Microsoft Visual Studio\2019\Community\VC\Tools\MSVC\14.29.30133\atlmfc\include\afxwin1.inl
; File D:\git\src\IBK\IBK_DRFN\ProjSrc\SrcDrfn\Chart\Common_ST\STListCtrl.cpp
; File C:\Program Files (x86)\Microsoft Visual Studio\2019\Community\VC\Tools\MSVC\14.29.30133\atlmfc\include\afxwin1.inl
; File D:\git\src\IBK\IBK_DRFN\ProjSrc\SrcDrfn\Chart\Common_ST\STListCtrl.cpp
; File C:\Program Files (x86)\Microsoft Visual Studio\2019\Community\VC\Tools\MSVC\14.29.30133\atlmfc\include\atltypes.h
; File D:\git\src\IBK\IBK_DRFN\ProjSrc\SrcDrfn\Chart\Common_ST\STListCtrl.cpp
; File C:\Program Files (x86)\Microsoft Visual Studio\2019\Community\VC\Tools\MSVC\14.29.30133\atlmfc\include\atltypes.h
; File D:\git\src\IBK\IBK_DRFN\ProjSrc\SrcDrfn\Chart\Common_ST\STListCtrl.cpp
; File C:\Program Files (x86)\Microsoft Visual Studio\2019\Community\VC\Tools\MSVC\14.29.30133\atlmfc\include\atlsimpstr.h
; File D:\git\src\IBK\IBK_DRFN\ProjSrc\SrcDrfn\Chart\Common_ST\STListCtrl.cpp
; File C:\Program Files (x86)\Microsoft Visual Studio\2019\Community\VC\Tools\MSVC\14.29.30133\atlmfc\include\atlsimpstr.h
; File D:\git\src\IBK\IBK_DRFN\ProjSrc\SrcDrfn\Chart\Common_ST\STListCtrl.cpp
; File D:\git\src\IBK\IBK_DRFN\ProjSrc\SrcDrfn\inc\IBaseDefine.h
; File D:\git\src\IBK\IBK_DRFN\ProjSrc\SrcDrfn\Chart\Common_ST\STListCtrl.cpp
; File D:\git\src\IBK\IBK_DRFN\ProjSrc\SrcDrfn\inc\IBaseDefine.h
; File D:\git\src\IBK\IBK_DRFN\ProjSrc\SrcDrfn\Chart\Common_ST\STListCtrl.cpp
; File C:\Program Files (x86)\Microsoft Visual Studio\2019\Community\VC\Tools\MSVC\14.29.30133\atlmfc\include\afxwin2.inl
; File C:\Program Files (x86)\Microsoft Visual Studio\2019\Community\VC\Tools\MSVC\14.29.30133\atlmfc\include\atlsimpstr.h
; File D:\git\src\IBK\IBK_DRFN\ProjSrc\SrcDrfn\Chart\Common_ST\STListCtrl.cpp
; File C:\Program Files (x86)\Microsoft Visual Studio\2019\Community\VC\Tools\MSVC\14.29.30133\atlmfc\include\afxwin2.inl
; File D:\git\src\IBK\IBK_DRFN\ProjSrc\SrcDrfn\Chart\Common_ST\STListCtrl.cpp
; File C:\Program Files (x86)\Microsoft Visual Studio\2019\Community\VC\Tools\MSVC\14.29.30133\atlmfc\include\afxwin2.inl
; File D:\git\src\IBK\IBK_DRFN\ProjSrc\SrcDrfn\Chart\Common_ST\STListCtrl.cpp
; File C:\Program Files (x86)\Microsoft Visual Studio\2019\Community\VC\Tools\MSVC\14.29.30133\atlmfc\include\afxwin1.inl
; File D:\git\src\IBK\IBK_DRFN\ProjSrc\SrcDrfn\Chart\Common_ST\STListCtrl.cpp
;	COMDAT ?OnNMRclick@CSTListCtrl@@QAEXPAUtagNMHDR@@PAJ@Z
_TEXT	SEGMENT
_pResult$GSCopy$1$ = -100				; size = 4
_pMng$1$ = -96						; size = 4
_pt$ = -92						; size = 8
_Info$2 = -84						; size = 24
_menu$ = -60						; size = 8
_szClipFormat$3 = -52					; size = 4
_nType$1$ = -48						; size = 4
_hMainWnd$4 = -48					; size = 4
_szText$5 = -44						; size = 4
_strSTPath$6 = -40					; size = 4
_nState$1$ = -36					; size = 4
_nReturn$1$ = -32					; size = 4
_strSTName$7 = -32					; size = 4
_aBufWnd$8 = -28					; size = 9
__$ArrayPad$ = -16					; size = 4
__$EHRec$ = -12						; size = 12
_pNMHDR$ = 8						; size = 4
_pResult$ = 12						; size = 4
?OnNMRclick@CSTListCtrl@@QAEXPAUtagNMHDR@@PAJ@Z PROC	; CSTListCtrl::OnNMRclick, COMDAT
; _this$ = ecx

; 197  : {

  00000	55		 push	 ebp
  00001	8b ec		 mov	 ebp, esp
  00003	6a ff		 push	 -1
  00005	68 00 00 00 00	 push	 __ehhandler$?OnNMRclick@CSTListCtrl@@QAEXPAUtagNMHDR@@PAJ@Z
  0000a	64 a1 00 00 00
	00		 mov	 eax, DWORD PTR fs:0
  00010	50		 push	 eax
  00011	83 ec 58	 sub	 esp, 88			; 00000058H
  00014	a1 00 00 00 00	 mov	 eax, DWORD PTR ___security_cookie
  00019	33 c5		 xor	 eax, ebp
  0001b	89 45 f0	 mov	 DWORD PTR __$ArrayPad$[ebp], eax
  0001e	53		 push	 ebx
  0001f	56		 push	 esi
  00020	57		 push	 edi
  00021	50		 push	 eax
  00022	8d 45 f4	 lea	 eax, DWORD PTR __$EHRec$[ebp]
  00025	64 a3 00 00 00
	00		 mov	 DWORD PTR fs:0, eax
  0002b	8b f1		 mov	 esi, ecx
  0002d	8b 7d 08	 mov	 edi, DWORD PTR _pNMHDR$[ebp]
  00030	8b 5d 0c	 mov	 ebx, DWORD PTR _pResult$[ebp]
  00033	89 5d 9c	 mov	 DWORD PTR _pResult$GSCopy$1$[ebp], ebx

; 198  : 	NM_LISTVIEW* pNMListView = (NM_LISTVIEW*)pNMHDR;
; 199  : 	if(pNMListView->iItem<0) return;

  00036	83 7f 0c 00	 cmp	 DWORD PTR [edi+12], 0
  0003a	0f 8c 74 03 00
	00		 jl	 $LN63@OnNMRclick

; 200  : 
; 201  : 	if(m_nSTFolderType == 0)

  00040	83 be 88 00 00
	00 00		 cmp	 DWORD PTR [esi+136], 0
  00047	75 0b		 jne	 SHORT $LN3@OnNMRclick

; 202  : 	{
; 203  : 		// AfxMessageBox("    .");
; 204  : 		*pResult = 0;

  00049	c7 03 00 00 00
	00		 mov	 DWORD PTR [ebx], 0

; 205  : 		return;

  0004f	e9 60 03 00 00	 jmp	 $LN63@OnNMRclick
$LN3@OnNMRclick:
; File C:\Program Files (x86)\Microsoft Visual Studio\2019\Community\VC\Tools\MSVC\14.29.30133\atlmfc\include\afxwin1.inl

; 903  : 	{ m_hMenu = NULL; }

  00054	c7 45 c4 00 00
	00 00		 mov	 DWORD PTR _menu$[ebp], OFFSET ??_7CMenu@@6B@
  0005b	c7 45 c8 00 00
	00 00		 mov	 DWORD PTR _menu$[ebp+4], 0
; File D:\git\src\IBK\IBK_DRFN\ProjSrc\SrcDrfn\Chart\Common_ST\STListCtrl.cpp

; 208  : 	CMenu menu;

  00062	c7 45 fc 00 00
	00 00		 mov	 DWORD PTR __$EHRec$[ebp+8], 0
; File C:\Program Files (x86)\Microsoft Visual Studio\2019\Community\VC\Tools\MSVC\14.29.30133\atlmfc\include\afxwin1.inl

; 909  : 	{ return Attach(::CreatePopupMenu()); }

  00069	ff 15 00 00 00
	00		 call	 DWORD PTR __imp__CreatePopupMenu@0
  0006f	50		 push	 eax
  00070	8d 4d c4	 lea	 ecx, DWORD PTR _menu$[ebp]
  00073	e8 00 00 00 00	 call	 ?Attach@CMenu@@QAEHPAUHMENU__@@@Z ; CMenu::Attach

; 924  : 	{ ASSERT(::IsMenu(m_hMenu)); return ::AppendMenu(m_hMenu, nFlags, nIDNewItem, lpszNewItem); }

  00078	68 00 00 00 00	 push	 OFFSET ??_C@_04CFDBLPCI@?$LL?h?A?$KG@
  0007d	68 51 c3 00 00	 push	 50001			; 0000c351H
  00082	6a 00		 push	 0
  00084	ff 75 c8	 push	 DWORD PTR _menu$[ebp+4]
  00087	ff 15 00 00 00
	00		 call	 DWORD PTR __imp__AppendMenuA@16
; File D:\git\src\IBK\IBK_DRFN\ProjSrc\SrcDrfn\Chart\Common_ST\STListCtrl.cpp

; 213  : 	::GetCursorPos(&pt);

  0008d	8d 45 a4	 lea	 eax, DWORD PTR _pt$[ebp]
; File C:\Program Files (x86)\Microsoft Visual Studio\2019\Community\VC\Tools\MSVC\14.29.30133\atlmfc\include\atltypes.h

; 400  : 	x = 0;

  00090	c7 45 a4 00 00
	00 00		 mov	 DWORD PTR _pt$[ebp], 0
; File D:\git\src\IBK\IBK_DRFN\ProjSrc\SrcDrfn\Chart\Common_ST\STListCtrl.cpp

; 213  : 	::GetCursorPos(&pt);

  00097	50		 push	 eax
; File C:\Program Files (x86)\Microsoft Visual Studio\2019\Community\VC\Tools\MSVC\14.29.30133\atlmfc\include\atltypes.h

; 401  : 	y = 0;

  00098	c7 45 a8 00 00
	00 00		 mov	 DWORD PTR _pt$[ebp+4], 0
; File D:\git\src\IBK\IBK_DRFN\ProjSrc\SrcDrfn\Chart\Common_ST\STListCtrl.cpp

; 213  : 	::GetCursorPos(&pt);

  0009f	ff 15 00 00 00
	00		 call	 DWORD PTR __imp__GetCursorPos@4

; 214  : 
; 215  : 	UINT nFlagsForMenu = TPM_LEFTALIGN | TPM_RIGHTBUTTON | TPM_NONOTIFY | TPM_RETURNCMD;
; 216  : 	int nReturn = menu.TrackPopupMenu(nFlagsForMenu, pt.x, pt.y, this);

  000a5	6a 00		 push	 0
  000a7	56		 push	 esi
  000a8	ff 75 a8	 push	 DWORD PTR _pt$[ebp+4]
  000ab	8d 4d c4	 lea	 ecx, DWORD PTR _menu$[ebp]
  000ae	ff 75 a4	 push	 DWORD PTR _pt$[ebp]
  000b1	68 82 01 00 00	 push	 386			; 00000182H
  000b6	e8 00 00 00 00	 call	 ?TrackPopupMenu@CMenu@@QAEHIHHPAVCWnd@@PBUtagRECT@@@Z ; CMenu::TrackPopupMenu

; 217  : 	menu.DestroyMenu();

  000bb	8d 4d c4	 lea	 ecx, DWORD PTR _menu$[ebp]
  000be	89 45 e0	 mov	 DWORD PTR _nReturn$1$[ebp], eax
  000c1	e8 00 00 00 00	 call	 ?DestroyMenu@CMenu@@QAEHXZ ; CMenu::DestroyMenu

; 218  : 
; 219  : 	if(nReturn >0 && m_nSTFolderType == 0)

  000c6	8b 45 e0	 mov	 eax, DWORD PTR _nReturn$1$[ebp]
  000c9	85 c0		 test	 eax, eax
  000cb	7e 20		 jle	 SHORT $LN4@OnNMRclick
  000cd	83 be 88 00 00
	00 00		 cmp	 DWORD PTR [esi+136], 0
  000d4	75 17		 jne	 SHORT $LN4@OnNMRclick

; 220  : 	{
; 221  : 		AfxMessageBox("    .");

  000d6	6a 00		 push	 0
  000d8	6a 00		 push	 0
  000da	68 00 00 00 00	 push	 OFFSET ??_C@_0CC@DGBJBMGM@?A?$KG?$LA?x?$LF?H?5?$MA?$PM?$LH?$KL?$MA?$LK?5?$LL?h?A?$KG?G?R?5?$LM?v?5?$LO?x?$LN?$MA?$LE?O?$LE@
  000df	e8 00 00 00 00	 call	 ?AfxMessageBox@@YGHPBDII@Z ; AfxMessageBox
  000e4	8b 45 e0	 mov	 eax, DWORD PTR _nReturn$1$[ebp]

; 222  : 		*pResult = 0;

  000e7	c7 03 00 00 00
	00		 mov	 DWORD PTR [ebx], 0
$LN4@OnNMRclick:

; 223  : 	}
; 224  : 
; 225  : 	if(nReturn == 50001)

  000ed	3d 51 c3 00 00	 cmp	 eax, 50001		; 0000c351H
  000f2	0f 85 a0 02 00
	00		 jne	 $LN5@OnNMRclick

; 226  : 	{
; 227  : 		CString szText = GetItemText(pNMListView->iItem, pNMListView->iSubItem);

  000f8	ff 77 10	 push	 DWORD PTR [edi+16]
  000fb	8d 45 d4	 lea	 eax, DWORD PTR _szText$5[ebp]
  000fe	8b ce		 mov	 ecx, esi
  00100	ff 77 0c	 push	 DWORD PTR [edi+12]
  00103	50		 push	 eax
  00104	e8 00 00 00 00	 call	 ?GetItemText@CListCtrl@@QBE?AV?$CStringT@DV?$StrTraitMFC_DLL@DV?$ChTraitsCRT@D@ATL@@@@@ATL@@HH@Z ; CListCtrl::GetItemText

; 228  : 		int nType = (int)GetItemData(pNMListView->iItem);

  00109	ff 77 0c	 push	 DWORD PTR [edi+12]
  0010c	8b ce		 mov	 ecx, esi
  0010e	c6 45 fc 01	 mov	 BYTE PTR __$EHRec$[ebp+8], 1
  00112	e8 00 00 00 00	 call	 ?GetItemData@CListCtrl@@QBEKH@Z ; CListCtrl::GetItemData
; File C:\Program Files (x86)\Microsoft Visual Studio\2019\Community\VC\Tools\MSVC\14.29.30133\atlmfc\include\atlsimpstr.h

; 519  : 		return( GetData()->nDataLength );

  00117	8b 4d d4	 mov	 ecx, DWORD PTR _szText$5[ebp]
; File D:\git\src\IBK\IBK_DRFN\ProjSrc\SrcDrfn\Chart\Common_ST\STListCtrl.cpp

; 228  : 		int nType = (int)GetItemData(pNMListView->iItem);

  0011a	89 45 d0	 mov	 DWORD PTR _nType$1$[ebp], eax
; File C:\Program Files (x86)\Microsoft Visual Studio\2019\Community\VC\Tools\MSVC\14.29.30133\atlmfc\include\atlsimpstr.h

; 533  : 		return( GetLength() == 0 );

  0011d	83 79 f4 00	 cmp	 DWORD PTR [ecx-12], 0
; File D:\git\src\IBK\IBK_DRFN\ProjSrc\SrcDrfn\Chart\Common_ST\STListCtrl.cpp

; 229  : 		if(!szText.IsEmpty()) {

  00121	0f 84 68 02 00
	00		 je	 $LN60@OnNMRclick

; 230  : 			STMNG_ITEMINFO Info;

  00127	8d 4d ac	 lea	 ecx, DWORD PTR _Info$2[ebp]
  0012a	ff 15 00 00 00
	00		 call	 DWORD PTR __imp_??0?$CStringT@DV?$StrTraitMFC_DLL@DV?$ChTraitsCRT@D@ATL@@@@@ATL@@QAE@XZ
  00130	8d 4d b0	 lea	 ecx, DWORD PTR _Info$2[ebp+4]
  00133	ff 15 00 00 00
	00		 call	 DWORD PTR __imp_??0?$CStringT@DV?$StrTraitMFC_DLL@DV?$ChTraitsCRT@D@ATL@@@@@ATL@@QAE@XZ
  00139	8d 4d b4	 lea	 ecx, DWORD PTR _Info$2[ebp+8]
  0013c	ff 15 00 00 00
	00		 call	 DWORD PTR __imp_??0?$CStringT@DV?$StrTraitMFC_DLL@DV?$ChTraitsCRT@D@ATL@@@@@ATL@@QAE@XZ

; 231  : 			Info.szSTPath = m_szFullPath;

  00142	8d 86 84 00 00
	00		 lea	 eax, DWORD PTR [esi+132]
  00148	c6 45 fc 02	 mov	 BYTE PTR __$EHRec$[ebp+8], 2
  0014c	50		 push	 eax
  0014d	8d 4d b4	 lea	 ecx, DWORD PTR _Info$2[ebp+8]
  00150	ff 15 00 00 00
	00		 call	 DWORD PTR __imp_??4?$CStringT@DV?$StrTraitMFC_DLL@DV?$ChTraitsCRT@D@ATL@@@@@ATL@@QAEAAV01@ABV01@@Z

; 232  : 			if(nType == 9999)

  00156	8b 45 d0	 mov	 eax, DWORD PTR _nType$1$[ebp]
  00159	3d 0f 27 00 00	 cmp	 eax, 9999		; 0000270fH
  0015e	75 0f		 jne	 SHORT $LN7@OnNMRclick

; 233  : 				Info.szSTName = szText;

  00160	8d 45 d4	 lea	 eax, DWORD PTR _szText$5[ebp]
  00163	50		 push	 eax
  00164	8d 4d b0	 lea	 ecx, DWORD PTR _Info$2[ebp+4]
  00167	ff 15 00 00 00
	00		 call	 DWORD PTR __imp_??4?$CStringT@DV?$StrTraitMFC_DLL@DV?$ChTraitsCRT@D@ATL@@@@@ATL@@QAEAAV01@ABV01@@Z
  0016d	eb 18		 jmp	 SHORT $LN8@OnNMRclick
$LN7@OnNMRclick:

; 234  : 			else
; 235  : 				Info.szSTName.Format(_T("%s%c%d"), szText, gSTGubunKey, nType);

  0016f	50		 push	 eax
  00170	6a 5e		 push	 94			; 0000005eH
  00172	ff 75 d4	 push	 DWORD PTR _szText$5[ebp]
  00175	8d 45 b0	 lea	 eax, DWORD PTR _Info$2[ebp+4]
  00178	68 00 00 00 00	 push	 OFFSET ??_C@_06GNAFJLOE@?$CFs?$CFc?$CFd@
  0017d	50		 push	 eax
  0017e	ff 15 00 00 00
	00		 call	 DWORD PTR __imp_?Format@?$CStringT@DV?$StrTraitMFC_DLL@DV?$ChTraitsCRT@D@ATL@@@@@ATL@@QAAXPBDZZ
  00184	83 c4 14	 add	 esp, 20			; 00000014H
$LN8@OnNMRclick:

; 236  : 
; 237  : 			Info.nSTType = m_nSTFolderType;

  00187	8b 86 88 00 00
	00		 mov	 eax, DWORD PTR [esi+136]

; 238  : 			Info.szSTRData = m_szFolderName;

  0018d	8d 4d ac	 lea	 ecx, DWORD PTR _Info$2[ebp]
  00190	89 45 b8	 mov	 DWORD PTR _Info$2[ebp+12], eax
  00193	8d 86 80 00 00
	00		 lea	 eax, DWORD PTR [esi+128]
  00199	50		 push	 eax
  0019a	ff 15 00 00 00
	00		 call	 DWORD PTR __imp_??4?$CStringT@DV?$StrTraitMFC_DLL@DV?$ChTraitsCRT@D@ATL@@@@@ATL@@QAEAAV01@ABV01@@Z

; 239  : 			Info.nFolderIndx = m_nFolderIndx;

  001a0	8b 86 8c 00 00
	00		 mov	 eax, DWORD PTR [esi+140]
; File D:\git\src\IBK\IBK_DRFN\ProjSrc\SrcDrfn\inc\IBaseDefine.h

; 262  : 	AfxGetHanaroMainWnd(hMainWnd);

  001a6	8d 4d cc	 lea	 ecx, DWORD PTR _szClipFormat$3[ebp]
; File D:\git\src\IBK\IBK_DRFN\ProjSrc\SrcDrfn\Chart\Common_ST\STListCtrl.cpp

; 239  : 			Info.nFolderIndx = m_nFolderIndx;

  001a9	89 45 bc	 mov	 DWORD PTR _Info$2[ebp+16], eax
  001ac	0f 57 c0	 xorps	 xmm0, xmm0

; 240  : 			Info.nItemIndx = pNMListView->iItem;

  001af	8b 47 0c	 mov	 eax, DWORD PTR [edi+12]
  001b2	89 45 c0	 mov	 DWORD PTR _Info$2[ebp+20], eax
; File D:\git\src\IBK\IBK_DRFN\ProjSrc\SrcDrfn\inc\IBaseDefine.h

; 262  : 	AfxGetHanaroMainWnd(hMainWnd);

  001b5	c7 45 d0 00 00
	00 00		 mov	 DWORD PTR _hMainWnd$4[ebp], 0
  001bc	66 0f d6 45 e4	 movq	 QWORD PTR _aBufWnd$8[ebp], xmm0
  001c1	c6 45 ec 00	 mov	 BYTE PTR _aBufWnd$8[ebp+8], 0
  001c5	ff 15 00 00 00
	00		 call	 DWORD PTR __imp_??0?$CStringT@DV?$StrTraitMFC_DLL@DV?$ChTraitsCRT@D@ATL@@@@@ATL@@QAE@XZ
  001cb	68 00 00 00 00	 push	 OFFSET ??_C@_0M@CBBNGGHM@PcTrMng?4dll@
  001d0	c6 45 fc 03	 mov	 BYTE PTR __$EHRec$[ebp+8], 3
  001d4	ff 15 00 00 00
	00		 call	 DWORD PTR __imp__GetModuleHandleA@4
  001da	50		 push	 eax
  001db	68 00 00 00 00	 push	 OFFSET ??_C@_0P@IDMAJEGN@HANAROPCTRMAIN@
  001e0	8d 45 cc	 lea	 eax, DWORD PTR _szClipFormat$3[ebp]
  001e3	68 00 00 00 00	 push	 OFFSET ??_C@_06NDLAHCHE@?$CFs?$CF08X@
  001e8	50		 push	 eax
  001e9	ff 15 00 00 00
	00		 call	 DWORD PTR __imp_?Format@?$CStringT@DV?$StrTraitMFC_DLL@DV?$ChTraitsCRT@D@ATL@@@@@ATL@@QAAXPBDZZ
  001ef	83 c4 10	 add	 esp, 16			; 00000010H
  001f2	8d 45 e4	 lea	 eax, DWORD PTR _aBufWnd$8[ebp]
  001f5	6a 09		 push	 9
  001f7	50		 push	 eax
  001f8	ff 75 cc	 push	 DWORD PTR _szClipFormat$3[ebp]
  001fb	ff 15 00 00 00
	00		 call	 DWORD PTR __imp__GetEnvironmentVariableA@12
  00201	8d 45 d0	 lea	 eax, DWORD PTR _hMainWnd$4[ebp]
  00204	50		 push	 eax
  00205	8d 45 e4	 lea	 eax, DWORD PTR _aBufWnd$8[ebp]
  00208	68 00 00 00 00	 push	 OFFSET ??_C@_02EMFKHFLK@?$CFX@
  0020d	50		 push	 eax
  0020e	e8 00 00 00 00	 call	 _sscanf
  00213	83 c4 0c	 add	 esp, 12			; 0000000cH
  00216	c6 45 fc 02	 mov	 BYTE PTR __$EHRec$[ebp+8], 2
  0021a	8d 4d cc	 lea	 ecx, DWORD PTR _szClipFormat$3[ebp]
  0021d	ff 15 00 00 00
	00		 call	 DWORD PTR __imp_??1?$CStringT@DV?$StrTraitMFC_DLL@DV?$ChTraitsCRT@D@ATL@@@@@ATL@@QAE@XZ

; 263  : 
; 264  : 	return ::SendMessage(hMainWnd, RMSG_INTERFACE, (WPARAM)nID, 0);

  00223	6a 00		 push	 0
  00225	6a 1c		 push	 28			; 0000001cH
  00227	ff 35 00 00 00
	00		 push	 DWORD PTR ?RMSG_INTERFACE@@3IB
  0022d	ff 75 d0	 push	 DWORD PTR _hMainWnd$4[ebp]
  00230	ff 15 00 00 00
	00		 call	 DWORD PTR __imp__SendMessageA@16
; File D:\git\src\IBK\IBK_DRFN\ProjSrc\SrcDrfn\Chart\Common_ST\STListCtrl.cpp

; 251  : 			if(m_szFolderName.Compare("")==0)

  00236	68 00 00 00 00	 push	 OFFSET ??_C@_0P@GKBMMIPA@?$LL?g?$LP?k?$MA?Z?$LE?$NM?$MA?$KH?$MA?$PM?$LH?$KL@
  0023b	8d 8e 80 00 00
	00		 lea	 ecx, DWORD PTR [esi+128]
  00241	89 45 a0	 mov	 DWORD PTR _pMng$1$[ebp], eax
  00244	ff 15 00 00 00
	00		 call	 DWORD PTR __imp_?Compare@?$CStringT@DV?$StrTraitMFC_DLL@DV?$ChTraitsCRT@D@ATL@@@@@ATL@@QBEHPBD@Z
  0024a	85 c0		 test	 eax, eax
  0024c	75 09		 jne	 SHORT $LN9@OnNMRclick

; 252  : 				nState = 0x20;

  0024e	c7 45 dc 20 00
	00 00		 mov	 DWORD PTR _nState$1$[ebp], 32 ; 00000020H
  00255	eb 5c		 jmp	 SHORT $LN65@OnNMRclick
$LN9@OnNMRclick:

; 253  : 			else if(m_szFolderName.Compare("")==0)

  00257	68 00 00 00 00	 push	 OFFSET ??_C@_0L@DLNLHHBM@?$LL?g?$LP?k?$MA?Z?A?v?G?$KF@
  0025c	8d 8e 80 00 00
	00		 lea	 ecx, DWORD PTR [esi+128]
  00262	ff 15 00 00 00
	00		 call	 DWORD PTR __imp_?Compare@?$CStringT@DV?$StrTraitMFC_DLL@DV?$ChTraitsCRT@D@ATL@@@@@ATL@@QBEHPBD@Z
  00268	85 c0		 test	 eax, eax
  0026a	75 09		 jne	 SHORT $LN11@OnNMRclick

; 254  : 				nState = 0x20;

  0026c	c7 45 dc 20 00
	00 00		 mov	 DWORD PTR _nState$1$[ebp], 32 ; 00000020H
  00273	eb 3e		 jmp	 SHORT $LN65@OnNMRclick
$LN11@OnNMRclick:

; 255  : 			else if(m_szFolderName.Compare("")==0)

  00275	68 00 00 00 00	 push	 OFFSET ??_C@_0P@EACIJNAL@?$LL?g?$LP?k?$MA?Z?$LA?$KN?$LM?$LM?$LO?$OA?$LM?$LM@
  0027a	8d 8e 80 00 00
	00		 lea	 ecx, DWORD PTR [esi+128]
  00280	ff 15 00 00 00
	00		 call	 DWORD PTR __imp_?Compare@?$CStringT@DV?$StrTraitMFC_DLL@DV?$ChTraitsCRT@D@ATL@@@@@ATL@@QBEHPBD@Z
  00286	85 c0		 test	 eax, eax
  00288	75 09		 jne	 SHORT $LN13@OnNMRclick

; 256  : 				nState = 0x20;

  0028a	c7 45 dc 20 00
	00 00		 mov	 DWORD PTR _nState$1$[ebp], 32 ; 00000020H
  00291	eb 20		 jmp	 SHORT $LN65@OnNMRclick
$LN13@OnNMRclick:

; 257  : 			else if(m_szFolderName.Compare("")==0)

  00293	68 00 00 00 00	 push	 OFFSET ??_C@_0P@BCEOGAFN@?$LL?g?$LP?k?$MA?Z?A?$LG?G?U?$MA?$PM?$LH?$KL@
  00298	8d 8e 80 00 00
	00		 lea	 ecx, DWORD PTR [esi+128]
  0029e	ff 15 00 00 00
	00		 call	 DWORD PTR __imp_?Compare@?$CStringT@DV?$StrTraitMFC_DLL@DV?$ChTraitsCRT@D@ATL@@@@@ATL@@QBEHPBD@Z
  002a4	85 c0		 test	 eax, eax
  002a6	0f 85 c8 00 00
	00		 jne	 $LN16@OnNMRclick

; 258  : 				nState = 0x40;

  002ac	c7 45 dc 40 00
	00 00		 mov	 DWORD PTR _nState$1$[ebp], 64 ; 00000040H
$LN65@OnNMRclick:

; 259  : 
; 260  : 			if(nState > 0 && AfxMessageBox(" ?", MB_YESNO)==IDYES)

  002b3	6a 00		 push	 0
  002b5	6a 04		 push	 4
  002b7	68 00 00 00 00	 push	 OFFSET ??_C@_0BJ@GJNCLGJM@?$MA?$PM?$LH?$KL?$MA?$LL?5?$LL?h?A?$KG?G?O?$LN?C?$LA?Z?$LN?$MA?$LE?O?$LB?n?$DP@
  002bc	e8 00 00 00 00	 call	 ?AfxMessageBox@@YGHPBDII@Z ; AfxMessageBox
  002c1	83 f8 06	 cmp	 eax, 6
  002c4	0f 85 aa 00 00
	00		 jne	 $LN16@OnNMRclick

; 261  : 			{
; 262  : 				CString strSTPath;

  002ca	8d 4d d8	 lea	 ecx, DWORD PTR _strSTPath$6[ebp]
  002cd	ff 15 00 00 00
	00		 call	 DWORD PTR __imp_??0?$CStringT@DV?$StrTraitMFC_DLL@DV?$ChTraitsCRT@D@ATL@@@@@ATL@@QAE@XZ

; 263  : 				strSTPath.Format("%s\\%s.ST", Info.szSTPath, Info.szSTName);

  002d3	ff 75 b0	 push	 DWORD PTR _Info$2[ebp+4]
  002d6	8d 45 d8	 lea	 eax, DWORD PTR _strSTPath$6[ebp]
  002d9	c6 45 fc 04	 mov	 BYTE PTR __$EHRec$[ebp+8], 4
  002dd	ff 75 b4	 push	 DWORD PTR _Info$2[ebp+8]
  002e0	68 00 00 00 00	 push	 OFFSET ??_C@_08OOJOHCD@?$CFs?2?$CFs?4ST@
  002e5	50		 push	 eax
  002e6	ff 15 00 00 00
	00		 call	 DWORD PTR __imp_?Format@?$CStringT@DV?$StrTraitMFC_DLL@DV?$ChTraitsCRT@D@ATL@@@@@ATL@@QAAXPBDZZ
  002ec	83 c4 10	 add	 esp, 16			; 00000010H

; 264  : 				CString strSTName(Info.szSTName);

  002ef	8d 45 b0	 lea	 eax, DWORD PTR _Info$2[ebp+4]
  002f2	8d 4d e0	 lea	 ecx, DWORD PTR _strSTName$7[ebp]
  002f5	50		 push	 eax
  002f6	ff 15 00 00 00
	00		 call	 DWORD PTR __imp_??0?$CStringT@DV?$StrTraitMFC_DLL@DV?$ChTraitsCRT@D@ATL@@@@@ATL@@QAE@ABV01@@Z
; File C:\Program Files (x86)\Microsoft Visual Studio\2019\Community\VC\Tools\MSVC\14.29.30133\atlmfc\include\afxwin2.inl

; 213  : 	{ ASSERT(::IsWindow(m_hWnd)); return CWnd::FromHandle(::GetParent(m_hWnd)); }

  002fc	ff 76 20	 push	 DWORD PTR [esi+32]
; File C:\Program Files (x86)\Microsoft Visual Studio\2019\Community\VC\Tools\MSVC\14.29.30133\atlmfc\include\atlsimpstr.h

; 377  : 		return( m_pszData );

  002ff	8b 7d e0	 mov	 edi, DWORD PTR _strSTName$7[ebp]
  00302	8b 5d d8	 mov	 ebx, DWORD PTR _strSTPath$6[ebp]
; File D:\git\src\IBK\IBK_DRFN\ProjSrc\SrcDrfn\Chart\Common_ST\STListCtrl.cpp

; 264  : 				CString strSTName(Info.szSTName);

  00305	c6 45 fc 05	 mov	 BYTE PTR __$EHRec$[ebp+8], 5
; File C:\Program Files (x86)\Microsoft Visual Studio\2019\Community\VC\Tools\MSVC\14.29.30133\atlmfc\include\afxwin2.inl

; 213  : 	{ ASSERT(::IsWindow(m_hWnd)); return CWnd::FromHandle(::GetParent(m_hWnd)); }

  00309	ff 15 00 00 00
	00		 call	 DWORD PTR __imp__GetParent@4
  0030f	50		 push	 eax
  00310	e8 00 00 00 00	 call	 ?FromHandle@CWnd@@SGPAV1@PAUHWND__@@@Z ; CWnd::FromHandle
; File D:\git\src\IBK\IBK_DRFN\ProjSrc\SrcDrfn\Chart\Common_ST\STListCtrl.cpp

; 265  : 				BOOL bRunState = GetParent()->GetOwner()->SendMessage(RMSG_ISSTRUNSTATE, (WPARAM)(LPCTSTR)strSTPath, (LPARAM)(LPCTSTR)strSTName);

  00315	8b 35 00 00 00
	00		 mov	 esi, DWORD PTR ?RMSG_ISSTRUNSTATE@@3IB
  0031b	8b c8		 mov	 ecx, eax
  0031d	e8 00 00 00 00	 call	 ?GetOwner@CWnd@@QBEPAV1@XZ ; CWnd::GetOwner
; File C:\Program Files (x86)\Microsoft Visual Studio\2019\Community\VC\Tools\MSVC\14.29.30133\atlmfc\include\afxwin2.inl

; 32   : 	{ ASSERT(::IsWindow(m_hWnd)); return ::SendMessage(m_hWnd, message, wParam, lParam); }

  00322	57		 push	 edi
  00323	53		 push	 ebx
  00324	56		 push	 esi
  00325	ff 70 20	 push	 DWORD PTR [eax+32]
  00328	ff 15 00 00 00
	00		 call	 DWORD PTR __imp__SendMessageA@16
; File D:\git\src\IBK\IBK_DRFN\ProjSrc\SrcDrfn\Chart\Common_ST\STListCtrl.cpp

; 266  : 				if(bRunState)

  0032e	85 c0		 test	 eax, eax
  00330	74 10		 je	 SHORT $LN17@OnNMRclick

; 267  : 				{
; 268  : 					AfxMessageBox("      .");

  00332	6a 00		 push	 0
  00334	6a 00		 push	 0
  00336	68 00 00 00 00	 push	 OFFSET ??_C@_0DI@HOHDCNPO@?B?w?F?$KO?$LL?s?$LP?$KB?5?$MA?$PM?$LH?$KL?$MA?L?5?$MA?$PL?$LP?k?$MA?L?5?$LF?G?$LO?n?5?$MA?V?$LE@
  0033b	e8 00 00 00 00	 call	 ?AfxMessageBox@@YGHPBDII@Z ; AfxMessageBox

; 269  : 				}

  00340	eb 1d		 jmp	 SHORT $LN18@OnNMRclick
$LN17@OnNMRclick:

; 270  : 				else
; 271  : 				{
; 272  : 					::DeleteFile(strSTPath);

  00342	ff 75 d8	 push	 DWORD PTR _strSTPath$6[ebp]
  00345	ff 15 00 00 00
	00		 call	 DWORD PTR __imp__DeleteFileA@4

; 273  : 					pMng->NotifyData("STLIST_MODIFIED", nState, (LONG)(LPCSTR)strSTName);

  0034b	ff 75 e0	 push	 DWORD PTR _strSTName$7[ebp]
  0034e	8b 4d a0	 mov	 ecx, DWORD PTR _pMng$1$[ebp]
  00351	ff 75 dc	 push	 DWORD PTR _nState$1$[ebp]
  00354	68 00 00 00 00	 push	 OFFSET ??_C@_0BA@PIGBAOMG@STLIST_MODIFIED@
  00359	8b 01		 mov	 eax, DWORD PTR [ecx]
  0035b	51		 push	 ecx
  0035c	ff 50 08	 call	 DWORD PTR [eax+8]
$LN18@OnNMRclick:

; 274  : 				}
; 275  : 			}

  0035f	8d 4d e0	 lea	 ecx, DWORD PTR _strSTName$7[ebp]
  00362	ff 15 00 00 00
	00		 call	 DWORD PTR __imp_??1?$CStringT@DV?$StrTraitMFC_DLL@DV?$ChTraitsCRT@D@ATL@@@@@ATL@@QAE@XZ
  00368	8d 4d d8	 lea	 ecx, DWORD PTR _strSTPath$6[ebp]
  0036b	ff 15 00 00 00
	00		 call	 DWORD PTR __imp_??1?$CStringT@DV?$StrTraitMFC_DLL@DV?$ChTraitsCRT@D@ATL@@@@@ATL@@QAE@XZ
  00371	8b 5d 9c	 mov	 ebx, DWORD PTR _pResult$GSCopy$1$[ebp]
$LN16@OnNMRclick:
  00374	8d 4d b4	 lea	 ecx, DWORD PTR _Info$2[ebp+8]
  00377	ff 15 00 00 00
	00		 call	 DWORD PTR __imp_??1?$CStringT@DV?$StrTraitMFC_DLL@DV?$ChTraitsCRT@D@ATL@@@@@ATL@@QAE@XZ
  0037d	8d 4d b0	 lea	 ecx, DWORD PTR _Info$2[ebp+4]
  00380	ff 15 00 00 00
	00		 call	 DWORD PTR __imp_??1?$CStringT@DV?$StrTraitMFC_DLL@DV?$ChTraitsCRT@D@ATL@@@@@ATL@@QAE@XZ
  00386	8d 4d ac	 lea	 ecx, DWORD PTR _Info$2[ebp]
  00389	ff 15 00 00 00
	00		 call	 DWORD PTR __imp_??1?$CStringT@DV?$StrTraitMFC_DLL@DV?$ChTraitsCRT@D@ATL@@@@@ATL@@QAE@XZ
$LN60@OnNMRclick:

; 276  : 		}
; 277  : 	}

  0038f	8d 4d d4	 lea	 ecx, DWORD PTR _szText$5[ebp]
  00392	ff 15 00 00 00
	00		 call	 DWORD PTR __imp_??1?$CStringT@DV?$StrTraitMFC_DLL@DV?$ChTraitsCRT@D@ATL@@@@@ATL@@QAE@XZ
$LN5@OnNMRclick:

; 278  : 
; 279  : 	*pResult = 0;

  00398	c7 03 00 00 00
	00		 mov	 DWORD PTR [ebx], 0
; File C:\Program Files (x86)\Microsoft Visual Studio\2019\Community\VC\Tools\MSVC\14.29.30133\atlmfc\include\afxwin1.inl

; 905  : 	{ DestroyMenu(); }

  0039e	8d 4d c4	 lea	 ecx, DWORD PTR _menu$[ebp]
  003a1	c7 45 fc 06 00
	00 00		 mov	 DWORD PTR __$EHRec$[ebp+8], 6
  003a8	c7 45 c4 00 00
	00 00		 mov	 DWORD PTR _menu$[ebp], OFFSET ??_7CMenu@@6B@
  003af	e8 00 00 00 00	 call	 ?DestroyMenu@CMenu@@QAEHXZ ; CMenu::DestroyMenu
$LN63@OnNMRclick:
; File D:\git\src\IBK\IBK_DRFN\ProjSrc\SrcDrfn\Chart\Common_ST\STListCtrl.cpp

; 280  : }

  003b4	8b 4d f4	 mov	 ecx, DWORD PTR __$EHRec$[ebp]
  003b7	64 89 0d 00 00
	00 00		 mov	 DWORD PTR fs:0, ecx
  003be	59		 pop	 ecx
  003bf	5f		 pop	 edi
  003c0	5e		 pop	 esi
  003c1	5b		 pop	 ebx
  003c2	8b 4d f0	 mov	 ecx, DWORD PTR __$ArrayPad$[ebp]
  003c5	33 cd		 xor	 ecx, ebp
  003c7	e8 00 00 00 00	 call	 @__security_check_cookie@4
  003cc	8b e5		 mov	 esp, ebp
  003ce	5d		 pop	 ebp
  003cf	c2 08 00	 ret	 8
_TEXT	ENDS
;	COMDAT text$x
text$x	SEGMENT
__unwindfunclet$?OnNMRclick@CSTListCtrl@@QAEXPAUtagNMHDR@@PAJ@Z$0:
  00000	8d 4d c4	 lea	 ecx, DWORD PTR _menu$[ebp]
  00003	e9 00 00 00 00	 jmp	 ??1CMenu@@UAE@XZ	; CMenu::~CMenu
__unwindfunclet$?OnNMRclick@CSTListCtrl@@QAEXPAUtagNMHDR@@PAJ@Z$1:
  00008	8d 4d d4	 lea	 ecx, DWORD PTR _szText$5[ebp]
  0000b	ff 25 00 00 00
	00		 jmp	 DWORD PTR __imp_??1?$CStringT@DV?$StrTraitMFC_DLL@DV?$ChTraitsCRT@D@ATL@@@@@ATL@@QAE@XZ
__unwindfunclet$?OnNMRclick@CSTListCtrl@@QAEXPAUtagNMHDR@@PAJ@Z$2:
  00011	8d 4d ac	 lea	 ecx, DWORD PTR _Info$2[ebp]
  00014	e9 00 00 00 00	 jmp	 ??1STMNG_ITEMINFO@@QAE@XZ
__unwindfunclet$?OnNMRclick@CSTListCtrl@@QAEXPAUtagNMHDR@@PAJ@Z$6:
  00019	8d 4d cc	 lea	 ecx, DWORD PTR _szClipFormat$3[ebp]
  0001c	ff 25 00 00 00
	00		 jmp	 DWORD PTR __imp_??1?$CStringT@DV?$StrTraitMFC_DLL@DV?$ChTraitsCRT@D@ATL@@@@@ATL@@QAE@XZ
__unwindfunclet$?OnNMRclick@CSTListCtrl@@QAEXPAUtagNMHDR@@PAJ@Z$3:
  00022	8d 4d d8	 lea	 ecx, DWORD PTR _strSTPath$6[ebp]
  00025	ff 25 00 00 00
	00		 jmp	 DWORD PTR __imp_??1?$CStringT@DV?$StrTraitMFC_DLL@DV?$ChTraitsCRT@D@ATL@@@@@ATL@@QAE@XZ
__unwindfunclet$?OnNMRclick@CSTListCtrl@@QAEXPAUtagNMHDR@@PAJ@Z$4:
  0002b	8d 4d e0	 lea	 ecx, DWORD PTR _strSTName$7[ebp]
  0002e	ff 25 00 00 00
	00		 jmp	 DWORD PTR __imp_??1?$CStringT@DV?$StrTraitMFC_DLL@DV?$ChTraitsCRT@D@ATL@@@@@ATL@@QAE@XZ
  00034	cc		 int	 3
  00035	cc		 int	 3
  00036	cc		 int	 3
  00037	cc		 int	 3
  00038	cc		 int	 3
__ehhandler$?OnNMRclick@CSTListCtrl@@QAEXPAUtagNMHDR@@PAJ@Z:
  00039	90		 npad	 1
  0003a	90		 npad	 1
  0003b	8b 54 24 08	 mov	 edx, DWORD PTR [esp+8]
  0003f	8d 42 0c	 lea	 eax, DWORD PTR [edx+12]
  00042	8b 4a 98	 mov	 ecx, DWORD PTR [edx-104]
  00045	33 c8		 xor	 ecx, eax
  00047	e8 00 00 00 00	 call	 @__security_check_cookie@4
  0004c	8b 4a fc	 mov	 ecx, DWORD PTR [edx-4]
  0004f	33 c8		 xor	 ecx, eax
  00051	e8 00 00 00 00	 call	 @__security_check_cookie@4
  00056	b8 00 00 00 00	 mov	 eax, OFFSET __ehfuncinfo$?OnNMRclick@CSTListCtrl@@QAEXPAUtagNMHDR@@PAJ@Z
  0005b	e9 00 00 00 00	 jmp	 ___CxxFrameHandler3
text$x	ENDS
?OnNMRclick@CSTListCtrl@@QAEXPAUtagNMHDR@@PAJ@Z ENDP	; CSTListCtrl::OnNMRclick
; Function compile flags: /Ogtp
; File D:\git\src\IBK\IBK_DRFN\ProjSrc\SrcDrfn\Chart\Common_ST\STListCtrl.cpp
;	COMDAT ?OnCustomDraw@CSTListCtrl@@QAEXPAUtagNMHDR@@PAJ@Z
_TEXT	SEGMENT
_pNMHDR$ = 8						; size = 4
_pResult$ = 12						; size = 4
?OnCustomDraw@CSTListCtrl@@QAEXPAUtagNMHDR@@PAJ@Z PROC	; CSTListCtrl::OnCustomDraw, COMDAT
; _this$ = ecx

; 110  : {

  00000	55		 push	 ebp
  00001	8b ec		 mov	 ebp, esp

; 111  : 	LPNMLVCUSTOMDRAW  lplvcd = (LPNMLVCUSTOMDRAW)pNMHDR;
; 112  : 
; 113  : 	switch(lplvcd->nmcd.dwDrawStage)

  00003	8b 45 08	 mov	 eax, DWORD PTR _pNMHDR$[ebp]
  00006	8b 40 0c	 mov	 eax, DWORD PTR [eax+12]
  00009	83 e8 01	 sub	 eax, 1
  0000c	74 1e		 je	 SHORT $LN4@OnCustomDr
  0000e	2d 00 00 01 00	 sub	 eax, 65536		; 00010000H
  00013	8b 45 0c	 mov	 eax, DWORD PTR _pResult$[ebp]
  00016	74 0a		 je	 SHORT $LN5@OnCustomDr

; 136  : 		break;
; 137  : 
; 138  : 	default:
; 139  : 		*pResult = CDRF_DODEFAULT;

  00018	c7 00 00 00 00
	00		 mov	 DWORD PTR [eax], 0

; 140  : 	}
; 141  : }

  0001e	5d		 pop	 ebp
  0001f	c2 08 00	 ret	 8
$LN5@OnCustomDr:

; 117  : 		break;
; 118  : 
; 119  : 	case CDDS_ITEMPREPAINT:
; 120  : 		*pResult = CDRF_DODEFAULT;
; 121  : 
; 122  : //		m_pDC = CDC::FromHandle(lplvcd->nmcd.hdc);
; 123  : //		if(GetUserSetting(0, lplvcd->nmcd.dwItemSpec)==TRUE)
; 124  : //		{
; 125  : //			m_pOldFont = m_pDC->SelectObject(&m_fontBold);
; 126  : //		}
; 127  : //		else {
; 128  : //			if(m_pOldFont)
; 129  : //			{
; 130  : //				m_pDC->SelectObject(m_pOldFont);
; 131  : //				m_pOldFont = NULL;
; 132  : //			}
; 133  : //		}
; 134  : 
; 135  : 		*pResult = CDRF_NEWFONT;

  00022	c7 00 02 00 00
	00		 mov	 DWORD PTR [eax], 2

; 140  : 	}
; 141  : }

  00028	5d		 pop	 ebp
  00029	c2 08 00	 ret	 8
$LN4@OnCustomDr:

; 114  : 	{
; 115  : 	case CDDS_PREPAINT:
; 116  : 		*pResult = CDRF_NOTIFYITEMDRAW;          // ask for item notifications.

  0002c	8b 45 0c	 mov	 eax, DWORD PTR _pResult$[ebp]
  0002f	c7 00 20 00 00
	00		 mov	 DWORD PTR [eax], 32	; 00000020H

; 140  : 	}
; 141  : }

  00035	5d		 pop	 ebp
  00036	c2 08 00	 ret	 8
?OnCustomDraw@CSTListCtrl@@QAEXPAUtagNMHDR@@PAJ@Z ENDP	; CSTListCtrl::OnCustomDraw
_TEXT	ENDS
; Function compile flags: /Ogtp
; File D:\git\src\IBK\IBK_DRFN\ProjSrc\SrcDrfn\Chart\Common_ST\STListCtrl.cpp
; File C:\Program Files (x86)\Microsoft Visual Studio\2019\Community\VC\Tools\MSVC\14.29.30133\atlmfc\include\atlsimpstr.h
; File D:\git\src\IBK\IBK_DRFN\ProjSrc\SrcDrfn\Chart\Common_ST\STListCtrl.cpp
; File C:\Program Files (x86)\Microsoft Visual Studio\2019\Community\VC\Tools\MSVC\14.29.30133\atlmfc\include\atlsimpstr.h
; File D:\git\src\IBK\IBK_DRFN\ProjSrc\SrcDrfn\Chart\Common_ST\STListCtrl.cpp
; File C:\Program Files (x86)\Microsoft Visual Studio\2019\Community\VC\Tools\MSVC\14.29.30133\atlmfc\include\afxwin2.inl
; File D:\git\src\IBK\IBK_DRFN\ProjSrc\SrcDrfn\Chart\Common_ST\STListCtrl.cpp
; File C:\Program Files (x86)\Microsoft Visual Studio\2019\Community\VC\Tools\MSVC\14.29.30133\atlmfc\include\afxwin2.inl
; File D:\git\src\IBK\IBK_DRFN\ProjSrc\SrcDrfn\Chart\Common_ST\STListCtrl.cpp
;	COMDAT ?OnNMClk@CSTListCtrl@@QAEXPAUtagNMHDR@@PAJ@Z
_TEXT	SEGMENT
_Info$2 = -36						; size = 24
__$EHRec$ = -12						; size = 12
_szText$ = 8						; size = 4
_pNMHDR$ = 8						; size = 4
_pResult$ = 12						; size = 4
?OnNMClk@CSTListCtrl@@QAEXPAUtagNMHDR@@PAJ@Z PROC	; CSTListCtrl::OnNMClk, COMDAT
; _this$ = ecx

; 84   : {

  00000	55		 push	 ebp
  00001	8b ec		 mov	 ebp, esp
  00003	6a ff		 push	 -1
  00005	68 00 00 00 00	 push	 __ehhandler$?OnNMClk@CSTListCtrl@@QAEXPAUtagNMHDR@@PAJ@Z
  0000a	64 a1 00 00 00
	00		 mov	 eax, DWORD PTR fs:0
  00010	50		 push	 eax
  00011	83 ec 18	 sub	 esp, 24			; 00000018H
  00014	53		 push	 ebx
  00015	56		 push	 esi
  00016	57		 push	 edi
  00017	a1 00 00 00 00	 mov	 eax, DWORD PTR ___security_cookie
  0001c	33 c5		 xor	 eax, ebp
  0001e	50		 push	 eax
  0001f	8d 45 f4	 lea	 eax, DWORD PTR __$EHRec$[ebp]
  00022	64 a3 00 00 00
	00		 mov	 DWORD PTR fs:0, eax
  00028	8b f1		 mov	 esi, ecx

; 85   : 	NM_LISTVIEW* pNMListView = (NM_LISTVIEW*)pNMHDR;
; 86   : 	if(pNMListView->iItem<0) return;

  0002a	8b 7d 08	 mov	 edi, DWORD PTR _pNMHDR$[ebp]
  0002d	8b 47 0c	 mov	 eax, DWORD PTR [edi+12]
  00030	85 c0		 test	 eax, eax
  00032	0f 88 1a 01 00
	00		 js	 $LN1@OnNMClk

; 87   : 
; 88   : 	CString szText = GetItemText(pNMListView->iItem, pNMListView->iSubItem);

  00038	ff 77 10	 push	 DWORD PTR [edi+16]
  0003b	50		 push	 eax
  0003c	8d 45 08	 lea	 eax, DWORD PTR _szText$[ebp]
  0003f	50		 push	 eax
  00040	e8 00 00 00 00	 call	 ?GetItemText@CListCtrl@@QBE?AV?$CStringT@DV?$StrTraitMFC_DLL@DV?$ChTraitsCRT@D@ATL@@@@@ATL@@HH@Z ; CListCtrl::GetItemText

; 89   : 	int nType = (int)GetItemData(pNMListView->iItem);

  00045	ff 77 0c	 push	 DWORD PTR [edi+12]
  00048	8b ce		 mov	 ecx, esi
  0004a	c7 45 fc 00 00
	00 00		 mov	 DWORD PTR __$EHRec$[ebp+8], 0
  00051	e8 00 00 00 00	 call	 ?GetItemData@CListCtrl@@QBEKH@Z ; CListCtrl::GetItemData
; File C:\Program Files (x86)\Microsoft Visual Studio\2019\Community\VC\Tools\MSVC\14.29.30133\atlmfc\include\atlsimpstr.h

; 519  : 		return( GetData()->nDataLength );

  00056	8b 4d 08	 mov	 ecx, DWORD PTR _szText$[ebp]
; File D:\git\src\IBK\IBK_DRFN\ProjSrc\SrcDrfn\Chart\Common_ST\STListCtrl.cpp

; 89   : 	int nType = (int)GetItemData(pNMListView->iItem);

  00059	8b d8		 mov	 ebx, eax
; File C:\Program Files (x86)\Microsoft Visual Studio\2019\Community\VC\Tools\MSVC\14.29.30133\atlmfc\include\atlsimpstr.h

; 533  : 		return( GetLength() == 0 );

  0005b	83 79 f4 00	 cmp	 DWORD PTR [ecx-12], 0
; File D:\git\src\IBK\IBK_DRFN\ProjSrc\SrcDrfn\Chart\Common_ST\STListCtrl.cpp

; 91   : 	if(!szText.IsEmpty()) {

  0005f	0f 84 db 00 00
	00		 je	 $LN29@OnNMClk

; 92   : 		STMNG_ITEMINFO Info;

  00065	8d 4d dc	 lea	 ecx, DWORD PTR _Info$2[ebp]
  00068	ff 15 00 00 00
	00		 call	 DWORD PTR __imp_??0?$CStringT@DV?$StrTraitMFC_DLL@DV?$ChTraitsCRT@D@ATL@@@@@ATL@@QAE@XZ
  0006e	8d 4d e0	 lea	 ecx, DWORD PTR _Info$2[ebp+4]
  00071	ff 15 00 00 00
	00		 call	 DWORD PTR __imp_??0?$CStringT@DV?$StrTraitMFC_DLL@DV?$ChTraitsCRT@D@ATL@@@@@ATL@@QAE@XZ
  00077	8d 4d e4	 lea	 ecx, DWORD PTR _Info$2[ebp+8]
  0007a	ff 15 00 00 00
	00		 call	 DWORD PTR __imp_??0?$CStringT@DV?$StrTraitMFC_DLL@DV?$ChTraitsCRT@D@ATL@@@@@ATL@@QAE@XZ

; 93   : 		Info.szSTPath = m_szFullPath;

  00080	8d 86 84 00 00
	00		 lea	 eax, DWORD PTR [esi+132]
  00086	c6 45 fc 01	 mov	 BYTE PTR __$EHRec$[ebp+8], 1
  0008a	50		 push	 eax
  0008b	8d 4d e4	 lea	 ecx, DWORD PTR _Info$2[ebp+8]
  0008e	ff 15 00 00 00
	00		 call	 DWORD PTR __imp_??4?$CStringT@DV?$StrTraitMFC_DLL@DV?$ChTraitsCRT@D@ATL@@@@@ATL@@QAEAAV01@ABV01@@Z

; 94   : 		if(nType == 9999)

  00094	81 fb 0f 27 00
	00		 cmp	 ebx, 9999		; 0000270fH
  0009a	75 0f		 jne	 SHORT $LN4@OnNMClk

; 95   : 			Info.szSTName = szText;

  0009c	8d 45 08	 lea	 eax, DWORD PTR _szText$[ebp]
  0009f	50		 push	 eax
  000a0	8d 4d e0	 lea	 ecx, DWORD PTR _Info$2[ebp+4]
  000a3	ff 15 00 00 00
	00		 call	 DWORD PTR __imp_??4?$CStringT@DV?$StrTraitMFC_DLL@DV?$ChTraitsCRT@D@ATL@@@@@ATL@@QAEAAV01@ABV01@@Z
  000a9	eb 18		 jmp	 SHORT $LN5@OnNMClk
$LN4@OnNMClk:

; 96   : 		else
; 97   : 			Info.szSTName.Format(_T("%s%c%d"), szText, gSTGubunKey, nType);

  000ab	53		 push	 ebx
  000ac	6a 5e		 push	 94			; 0000005eH
  000ae	ff 75 08	 push	 DWORD PTR _szText$[ebp]
  000b1	8d 45 e0	 lea	 eax, DWORD PTR _Info$2[ebp+4]
  000b4	68 00 00 00 00	 push	 OFFSET ??_C@_06GNAFJLOE@?$CFs?$CFc?$CFd@
  000b9	50		 push	 eax
  000ba	ff 15 00 00 00
	00		 call	 DWORD PTR __imp_?Format@?$CStringT@DV?$StrTraitMFC_DLL@DV?$ChTraitsCRT@D@ATL@@@@@ATL@@QAAXPBDZZ
  000c0	83 c4 14	 add	 esp, 20			; 00000014H
$LN5@OnNMClk:

; 98   : 
; 99   : 		Info.nSTType = m_nSTFolderType;

  000c3	8b 86 88 00 00
	00		 mov	 eax, DWORD PTR [esi+136]

; 100  : 		Info.szSTRData = m_szFolderName;

  000c9	8d 4d dc	 lea	 ecx, DWORD PTR _Info$2[ebp]
  000cc	89 45 e8	 mov	 DWORD PTR _Info$2[ebp+12], eax
  000cf	8d 86 80 00 00
	00		 lea	 eax, DWORD PTR [esi+128]
  000d5	50		 push	 eax
  000d6	ff 15 00 00 00
	00		 call	 DWORD PTR __imp_??4?$CStringT@DV?$StrTraitMFC_DLL@DV?$ChTraitsCRT@D@ATL@@@@@ATL@@QAEAAV01@ABV01@@Z

; 101  : 		Info.nFolderIndx = m_nFolderIndx;

  000dc	8b 86 8c 00 00
	00		 mov	 eax, DWORD PTR [esi+140]
; File C:\Program Files (x86)\Microsoft Visual Studio\2019\Community\VC\Tools\MSVC\14.29.30133\atlmfc\include\afxwin2.inl

; 213  : 	{ ASSERT(::IsWindow(m_hWnd)); return CWnd::FromHandle(::GetParent(m_hWnd)); }

  000e2	ff 76 20	 push	 DWORD PTR [esi+32]
  000e5	8b 35 00 00 00
	00		 mov	 esi, DWORD PTR __imp__GetParent@4
; File D:\git\src\IBK\IBK_DRFN\ProjSrc\SrcDrfn\Chart\Common_ST\STListCtrl.cpp

; 101  : 		Info.nFolderIndx = m_nFolderIndx;

  000eb	89 45 ec	 mov	 DWORD PTR _Info$2[ebp+16], eax

; 102  : 		Info.nItemIndx = pNMListView->iItem;

  000ee	8b 47 0c	 mov	 eax, DWORD PTR [edi+12]
  000f1	89 45 f0	 mov	 DWORD PTR _Info$2[ebp+20], eax
; File C:\Program Files (x86)\Microsoft Visual Studio\2019\Community\VC\Tools\MSVC\14.29.30133\atlmfc\include\afxwin2.inl

; 213  : 	{ ASSERT(::IsWindow(m_hWnd)); return CWnd::FromHandle(::GetParent(m_hWnd)); }

  000f4	ff d6		 call	 esi
  000f6	50		 push	 eax
  000f7	e8 00 00 00 00	 call	 ?FromHandle@CWnd@@SGPAV1@PAUHWND__@@@Z ; CWnd::FromHandle
  000fc	8b c8		 mov	 ecx, eax

; 27   : 	{ return m_hWndOwner != NULL ? CWnd::FromHandle(m_hWndOwner) : GetParent(); }

  000fe	8b 41 5c	 mov	 eax, DWORD PTR [ecx+92]
  00101	85 c0		 test	 eax, eax
  00103	75 05		 jne	 SHORT $LN23@OnNMClk

; 213  : 	{ ASSERT(::IsWindow(m_hWnd)); return CWnd::FromHandle(::GetParent(m_hWnd)); }

  00105	ff 71 20	 push	 DWORD PTR [ecx+32]
  00108	ff d6		 call	 esi
$LN23@OnNMClk:

; 32   : 	{ ASSERT(::IsWindow(m_hWnd)); return ::SendMessage(m_hWnd, message, wParam, lParam); }

  0010a	50		 push	 eax
  0010b	e8 00 00 00 00	 call	 ?FromHandle@CWnd@@SGPAV1@PAUHWND__@@@Z ; CWnd::FromHandle
  00110	8d 4d dc	 lea	 ecx, DWORD PTR _Info$2[ebp]
  00113	51		 push	 ecx
  00114	6a 00		 push	 0
  00116	ff 35 00 00 00
	00		 push	 DWORD PTR ?RMSG_OB_ITEMCLICK@@3IB
  0011c	ff 70 20	 push	 DWORD PTR [eax+32]
  0011f	ff 15 00 00 00
	00		 call	 DWORD PTR __imp__SendMessageA@16
  00125	8d 4d e4	 lea	 ecx, DWORD PTR _Info$2[ebp+8]
  00128	ff 15 00 00 00
	00		 call	 DWORD PTR __imp_??1?$CStringT@DV?$StrTraitMFC_DLL@DV?$ChTraitsCRT@D@ATL@@@@@ATL@@QAE@XZ
  0012e	8d 4d e0	 lea	 ecx, DWORD PTR _Info$2[ebp+4]
  00131	ff 15 00 00 00
	00		 call	 DWORD PTR __imp_??1?$CStringT@DV?$StrTraitMFC_DLL@DV?$ChTraitsCRT@D@ATL@@@@@ATL@@QAE@XZ
  00137	8d 4d dc	 lea	 ecx, DWORD PTR _Info$2[ebp]
  0013a	ff 15 00 00 00
	00		 call	 DWORD PTR __imp_??1?$CStringT@DV?$StrTraitMFC_DLL@DV?$ChTraitsCRT@D@ATL@@@@@ATL@@QAE@XZ
$LN29@OnNMClk:
; File D:\git\src\IBK\IBK_DRFN\ProjSrc\SrcDrfn\Chart\Common_ST\STListCtrl.cpp

; 106  : 	*pResult = 0;

  00140	8b 45 0c	 mov	 eax, DWORD PTR _pResult$[ebp]

; 107  : }

  00143	8d 4d 08	 lea	 ecx, DWORD PTR _szText$[ebp]
  00146	c7 00 00 00 00
	00		 mov	 DWORD PTR [eax], 0
  0014c	ff 15 00 00 00
	00		 call	 DWORD PTR __imp_??1?$CStringT@DV?$StrTraitMFC_DLL@DV?$ChTraitsCRT@D@ATL@@@@@ATL@@QAE@XZ
$LN1@OnNMClk:
  00152	8b 4d f4	 mov	 ecx, DWORD PTR __$EHRec$[ebp]
  00155	64 89 0d 00 00
	00 00		 mov	 DWORD PTR fs:0, ecx
  0015c	59		 pop	 ecx
  0015d	5f		 pop	 edi
  0015e	5e		 pop	 esi
  0015f	5b		 pop	 ebx
  00160	8b e5		 mov	 esp, ebp
  00162	5d		 pop	 ebp
  00163	c2 08 00	 ret	 8
_TEXT	ENDS
;	COMDAT text$x
text$x	SEGMENT
__unwindfunclet$?OnNMClk@CSTListCtrl@@QAEXPAUtagNMHDR@@PAJ@Z$0:
  00000	8d 4d 08	 lea	 ecx, DWORD PTR _szText$[ebp]
  00003	ff 25 00 00 00
	00		 jmp	 DWORD PTR __imp_??1?$CStringT@DV?$StrTraitMFC_DLL@DV?$ChTraitsCRT@D@ATL@@@@@ATL@@QAE@XZ
__unwindfunclet$?OnNMClk@CSTListCtrl@@QAEXPAUtagNMHDR@@PAJ@Z$1:
  00009	8d 4d dc	 lea	 ecx, DWORD PTR _Info$2[ebp]
  0000c	e9 00 00 00 00	 jmp	 ??1STMNG_ITEMINFO@@QAE@XZ
  00011	cc		 int	 3
  00012	cc		 int	 3
  00013	cc		 int	 3
  00014	cc		 int	 3
  00015	cc		 int	 3
__ehhandler$?OnNMClk@CSTListCtrl@@QAEXPAUtagNMHDR@@PAJ@Z:
  00016	90		 npad	 1
  00017	90		 npad	 1
  00018	8b 54 24 08	 mov	 edx, DWORD PTR [esp+8]
  0001c	8d 42 0c	 lea	 eax, DWORD PTR [edx+12]
  0001f	8b 4a d8	 mov	 ecx, DWORD PTR [edx-40]
  00022	33 c8		 xor	 ecx, eax
  00024	e8 00 00 00 00	 call	 @__security_check_cookie@4
  00029	b8 00 00 00 00	 mov	 eax, OFFSET __ehfuncinfo$?OnNMClk@CSTListCtrl@@QAEXPAUtagNMHDR@@PAJ@Z
  0002e	e9 00 00 00 00	 jmp	 ___CxxFrameHandler3
text$x	ENDS
?OnNMClk@CSTListCtrl@@QAEXPAUtagNMHDR@@PAJ@Z ENDP	; CSTListCtrl::OnNMClk
; Function compile flags: /Ogtp
; File D:\git\src\IBK\IBK_DRFN\ProjSrc\SrcDrfn\Chart\Common_ST\STListCtrl.cpp
; File C:\Program Files (x86)\Microsoft Visual Studio\2019\Community\VC\Tools\MSVC\14.29.30133\atlmfc\include\atlsimpstr.h
; File D:\git\src\IBK\IBK_DRFN\ProjSrc\SrcDrfn\Chart\Common_ST\STListCtrl.cpp
; File C:\Program Files (x86)\Microsoft Visual Studio\2019\Community\VC\Tools\MSVC\14.29.30133\atlmfc\include\atlsimpstr.h
; File D:\git\src\IBK\IBK_DRFN\ProjSrc\SrcDrfn\Chart\Common_ST\STListCtrl.cpp
; File C:\Program Files (x86)\Microsoft Visual Studio\2019\Community\VC\Tools\MSVC\14.29.30133\atlmfc\include\afxcmn.inl
; File D:\git\src\IBK\IBK_DRFN\ProjSrc\SrcDrfn\Chart\Common_ST\STListCtrl.cpp
; File C:\Program Files (x86)\Microsoft Visual Studio\2019\Community\VC\Tools\MSVC\14.29.30133\atlmfc\include\afxcoll.inl
; File D:\git\src\IBK\IBK_DRFN\ProjSrc\SrcDrfn\Chart\Common_ST\STListCtrl.cpp
; File C:\Program Files (x86)\Microsoft Visual Studio\2019\Community\VC\Tools\MSVC\14.29.30133\atlmfc\include\afxcoll.inl
; File D:\git\src\IBK\IBK_DRFN\ProjSrc\SrcDrfn\Chart\Common_ST\STListCtrl.cpp
; File C:\Program Files (x86)\Microsoft Visual Studio\2019\Community\VC\Tools\MSVC\14.29.30133\atlmfc\include\afxwin2.inl
; File D:\git\src\IBK\IBK_DRFN\ProjSrc\SrcDrfn\Chart\Common_ST\STListCtrl.cpp
; File C:\Program Files (x86)\Microsoft Visual Studio\2019\Community\VC\Tools\MSVC\14.29.30133\atlmfc\include\afxwin2.inl
; File C:\Program Files (x86)\Microsoft Visual Studio\2019\Community\VC\Tools\MSVC\14.29.30133\atlmfc\include\afxcmn.inl
; File D:\git\src\IBK\IBK_DRFN\ProjSrc\SrcDrfn\Chart\Common_ST\STListCtrl.cpp
; File C:\Program Files (x86)\Microsoft Visual Studio\2019\Community\VC\Tools\MSVC\14.29.30133\atlmfc\include\afxwin2.inl
; File D:\git\src\IBK\IBK_DRFN\ProjSrc\SrcDrfn\Chart\Common_ST\STListCtrl.cpp
; File C:\Program Files (x86)\Microsoft Visual Studio\2019\Community\VC\Tools\MSVC\14.29.30133\atlmfc\include\afxcoll.inl
; File D:\git\src\IBK\IBK_DRFN\ProjSrc\SrcDrfn\Chart\Common_ST\STListCtrl.cpp
;	COMDAT ?OnNMDblclk@CSTListCtrl@@QAEXPAUtagNMHDR@@PAJ@Z
_TEXT	SEGMENT
_Info$2 = -36						; size = 24
__$EHRec$ = -12						; size = 12
_szText$ = 8						; size = 4
_pNMHDR$ = 8						; size = 4
_pResult$ = 12						; size = 4
?OnNMDblclk@CSTListCtrl@@QAEXPAUtagNMHDR@@PAJ@Z PROC	; CSTListCtrl::OnNMDblclk, COMDAT
; _this$ = ecx

; 37   : {

  00000	55		 push	 ebp
  00001	8b ec		 mov	 ebp, esp
  00003	6a ff		 push	 -1
  00005	68 00 00 00 00	 push	 __ehhandler$?OnNMDblclk@CSTListCtrl@@QAEXPAUtagNMHDR@@PAJ@Z
  0000a	64 a1 00 00 00
	00		 mov	 eax, DWORD PTR fs:0
  00010	50		 push	 eax
  00011	83 ec 18	 sub	 esp, 24			; 00000018H
  00014	53		 push	 ebx
  00015	56		 push	 esi
  00016	57		 push	 edi
  00017	a1 00 00 00 00	 mov	 eax, DWORD PTR ___security_cookie
  0001c	33 c5		 xor	 eax, ebp
  0001e	50		 push	 eax
  0001f	8d 45 f4	 lea	 eax, DWORD PTR __$EHRec$[ebp]
  00022	64 a3 00 00 00
	00		 mov	 DWORD PTR fs:0, eax
  00028	8b f1		 mov	 esi, ecx

; 38   : 	NM_LISTVIEW* pNMListView = (NM_LISTVIEW*)pNMHDR;
; 39   : 	if(pNMListView->iItem<0) return;

  0002a	8b 5d 08	 mov	 ebx, DWORD PTR _pNMHDR$[ebp]
  0002d	8b 43 0c	 mov	 eax, DWORD PTR [ebx+12]
  00030	85 c0		 test	 eax, eax
  00032	0f 88 a5 01 00
	00		 js	 $LN1@OnNMDblclk

; 40   : 
; 41   : 	CString szText = GetItemText(pNMListView->iItem, pNMListView->iSubItem);

  00038	ff 73 10	 push	 DWORD PTR [ebx+16]
  0003b	50		 push	 eax
  0003c	8d 45 08	 lea	 eax, DWORD PTR _szText$[ebp]
  0003f	50		 push	 eax
  00040	e8 00 00 00 00	 call	 ?GetItemText@CListCtrl@@QBE?AV?$CStringT@DV?$StrTraitMFC_DLL@DV?$ChTraitsCRT@D@ATL@@@@@ATL@@HH@Z ; CListCtrl::GetItemText

; 42   : 	int nType = (int)GetItemData(pNMListView->iItem);

  00045	ff 73 0c	 push	 DWORD PTR [ebx+12]
  00048	8b ce		 mov	 ecx, esi
  0004a	c7 45 fc 00 00
	00 00		 mov	 DWORD PTR __$EHRec$[ebp+8], 0
  00051	e8 00 00 00 00	 call	 ?GetItemData@CListCtrl@@QBEKH@Z ; CListCtrl::GetItemData
; File C:\Program Files (x86)\Microsoft Visual Studio\2019\Community\VC\Tools\MSVC\14.29.30133\atlmfc\include\atlsimpstr.h

; 519  : 		return( GetData()->nDataLength );

  00056	8b 4d 08	 mov	 ecx, DWORD PTR _szText$[ebp]
; File D:\git\src\IBK\IBK_DRFN\ProjSrc\SrcDrfn\Chart\Common_ST\STListCtrl.cpp

; 42   : 	int nType = (int)GetItemData(pNMListView->iItem);

  00059	8b f8		 mov	 edi, eax
; File C:\Program Files (x86)\Microsoft Visual Studio\2019\Community\VC\Tools\MSVC\14.29.30133\atlmfc\include\atlsimpstr.h

; 533  : 		return( GetLength() == 0 );

  0005b	83 79 f4 00	 cmp	 DWORD PTR [ecx-12], 0
; File D:\git\src\IBK\IBK_DRFN\ProjSrc\SrcDrfn\Chart\Common_ST\STListCtrl.cpp

; 44   : 	if(!szText.IsEmpty()) {

  0005f	0f 84 66 01 00
	00		 je	 $LN56@OnNMDblclk

; 45   : 		STMNG_ITEMINFO Info;

  00065	8d 4d dc	 lea	 ecx, DWORD PTR _Info$2[ebp]
  00068	ff 15 00 00 00
	00		 call	 DWORD PTR __imp_??0?$CStringT@DV?$StrTraitMFC_DLL@DV?$ChTraitsCRT@D@ATL@@@@@ATL@@QAE@XZ
  0006e	8d 4d e0	 lea	 ecx, DWORD PTR _Info$2[ebp+4]
  00071	ff 15 00 00 00
	00		 call	 DWORD PTR __imp_??0?$CStringT@DV?$StrTraitMFC_DLL@DV?$ChTraitsCRT@D@ATL@@@@@ATL@@QAE@XZ
  00077	8d 4d e4	 lea	 ecx, DWORD PTR _Info$2[ebp+8]
  0007a	ff 15 00 00 00
	00		 call	 DWORD PTR __imp_??0?$CStringT@DV?$StrTraitMFC_DLL@DV?$ChTraitsCRT@D@ATL@@@@@ATL@@QAE@XZ

; 46   : 		Info.szSTPath = m_szFullPath;

  00080	8d 86 84 00 00
	00		 lea	 eax, DWORD PTR [esi+132]
  00086	c6 45 fc 01	 mov	 BYTE PTR __$EHRec$[ebp+8], 1
  0008a	50		 push	 eax
  0008b	8d 4d e4	 lea	 ecx, DWORD PTR _Info$2[ebp+8]
  0008e	ff 15 00 00 00
	00		 call	 DWORD PTR __imp_??4?$CStringT@DV?$StrTraitMFC_DLL@DV?$ChTraitsCRT@D@ATL@@@@@ATL@@QAEAAV01@ABV01@@Z

; 47   : 		switch(nType)

  00094	8b c7		 mov	 eax, edi
  00096	83 e8 04	 sub	 eax, 4
  00099	74 1b		 je	 SHORT $LN6@OnNMDblclk
  0009b	83 e8 01	 sub	 eax, 1
  0009e	74 16		 je	 SHORT $LN6@OnNMDblclk
  000a0	2d 0a 27 00 00	 sub	 eax, 9994		; 0000270aH
  000a5	75 25		 jne	 SHORT $LN8@OnNMDblclk

; 57   : 				else
; 58   : 					Info.szSTName.Format(_T("%s%c%d"), szText, gSTGubunKey, nType);	// 
; 59   : 				break;
; 60   : 			case 9999:
; 61   : 				Info.szSTName = szText;

  000a7	8d 45 08	 lea	 eax, DWORD PTR _szText$[ebp]
  000aa	50		 push	 eax
  000ab	8d 4d e0	 lea	 ecx, DWORD PTR _Info$2[ebp+4]
  000ae	ff 15 00 00 00
	00		 call	 DWORD PTR __imp_??4?$CStringT@DV?$StrTraitMFC_DLL@DV?$ChTraitsCRT@D@ATL@@@@@ATL@@QAEAAV01@ABV01@@Z

; 62   : 				break;

  000b4	eb 2e		 jmp	 SHORT $LN9@OnNMDblclk
$LN6@OnNMDblclk:

; 48   : 		{
; 49   : //			case 1:
; 50   : //				Info.szSTName.Format(_T("P_%s%c%d"), szText, gSTGubunKey, nType);
; 51   : //				break;
; 52   : 			case 4:
; 53   : 			case 5:
; 54   : //				Info.szSTName.Format(_T("P_%s%c%d"), szText, gSTGubunKey, nType);
; 55   : 				if(m_nFolderIndx == 3)

  000b6	83 be 8c 00 00
	00 03		 cmp	 DWORD PTR [esi+140], 3
  000bd	75 0d		 jne	 SHORT $LN8@OnNMDblclk

; 56   : 					Info.szSTName.Format(_T("P_%s%c%d"), szText, gSTGubunKey, nType);	// 

  000bf	57		 push	 edi
  000c0	6a 5e		 push	 94			; 0000005eH
  000c2	ff 75 08	 push	 DWORD PTR _szText$[ebp]
  000c5	68 00 00 00 00	 push	 OFFSET ??_C@_08OIDEPACI@P_?$CFs?$CFc?$CFd@
  000ca	eb 0b		 jmp	 SHORT $LN60@OnNMDblclk
$LN8@OnNMDblclk:

; 63   : 			default:
; 64   : 				Info.szSTName.Format(_T("%s%c%d"), szText, gSTGubunKey, nType);
; 65   : 				break;
; 66   : 		}
; 67   : 
; 68   : 		SetUserSetting(0, pNMListView->iItem, m_bUseBoldFont);

  000cc	57		 push	 edi
  000cd	6a 5e		 push	 94			; 0000005eH
  000cf	ff 75 08	 push	 DWORD PTR _szText$[ebp]
  000d2	68 00 00 00 00	 push	 OFFSET ??_C@_06GNAFJLOE@?$CFs?$CFc?$CFd@
$LN60@OnNMDblclk:
  000d7	8d 45 e0	 lea	 eax, DWORD PTR _Info$2[ebp+4]
  000da	50		 push	 eax
  000db	ff 15 00 00 00
	00		 call	 DWORD PTR __imp_?Format@?$CStringT@DV?$StrTraitMFC_DLL@DV?$ChTraitsCRT@D@ATL@@@@@ATL@@QAAXPBDZZ
  000e1	83 c4 14	 add	 esp, 20			; 00000014H
$LN9@OnNMDblclk:

; 176  : 	if(bValue)

  000e4	83 be dc 00 00
	00 00		 cmp	 DWORD PTR [esi+220], 0

; 63   : 			default:
; 64   : 				Info.szSTName.Format(_T("%s%c%d"), szText, gSTGubunKey, nType);
; 65   : 				break;
; 66   : 		}
; 67   : 
; 68   : 		SetUserSetting(0, pNMListView->iItem, m_bUseBoldFont);

  000eb	8b 7b 0c	 mov	 edi, DWORD PTR [ebx+12]

; 176  : 	if(bValue)

  000ee	74 3c		 je	 SHORT $LN39@OnNMDblclk
; File C:\Program Files (x86)\Microsoft Visual Studio\2019\Community\VC\Tools\MSVC\14.29.30133\atlmfc\include\afxcmn.inl

; 155  : 	{ ASSERT(::IsWindow(m_hWnd)); return (int) ::SendMessage(m_hWnd, LVM_GETITEMCOUNT, 0, 0L); }

  000f0	6a 00		 push	 0
  000f2	6a 00		 push	 0
  000f4	68 04 10 00 00	 push	 4100			; 00001004H
  000f9	ff 76 20	 push	 DWORD PTR [esi+32]
  000fc	ff 15 00 00 00
	00		 call	 DWORD PTR __imp__SendMessageA@16
; File D:\git\src\IBK\IBK_DRFN\ProjSrc\SrcDrfn\Chart\Common_ST\STListCtrl.cpp

; 179  : 		if(nCount<=nIndex) return;

  00102	3b c7		 cmp	 eax, edi
  00104	7e 26		 jle	 SHORT $LN39@OnNMDblclk
; File C:\Program Files (x86)\Microsoft Visual Studio\2019\Community\VC\Tools\MSVC\14.29.30133\atlmfc\include\afxcoll.inl

; 117  : 		if( nIndex < 0 || nIndex >= m_nSize )

  00106	85 ff		 test	 edi, edi
  00108	0f 88 e3 00 00
	00		 js	 $LN33@OnNMDblclk
  0010e	3b be ec 00 00
	00		 cmp	 edi, DWORD PTR [esi+236]
  00114	0f 8d d7 00 00
	00		 jge	 $LN33@OnNMDblclk

; 119  : 		return m_pData[nIndex]; }

  0011a	8b 86 e8 00 00
	00		 mov	 eax, DWORD PTR [esi+232]
  00120	8d 0c b8	 lea	 ecx, DWORD PTR [eax+edi*4]
; File D:\git\src\IBK\IBK_DRFN\ProjSrc\SrcDrfn\Chart\Common_ST\STListCtrl.cpp

; 181  : 		m_UserSelState.SetAt(nIndex, (DWORD)m_UserSelState.GetAt(nIndex) ? FALSE : TRUE);

  00123	33 c0		 xor	 eax, eax
  00125	39 01		 cmp	 DWORD PTR [ecx], eax
  00127	0f 94 c0	 sete	 al
; File C:\Program Files (x86)\Microsoft Visual Studio\2019\Community\VC\Tools\MSVC\14.29.30133\atlmfc\include\afxcoll.inl

; 124  : 		m_pData[nIndex] = newElement; }

  0012a	89 01		 mov	 DWORD PTR [ecx], eax
$LN39@OnNMDblclk:
; File D:\git\src\IBK\IBK_DRFN\ProjSrc\SrcDrfn\Chart\Common_ST\STListCtrl.cpp

; 70   : 		Info.nSTType = m_nSTFolderType;

  0012c	8b 86 88 00 00
	00		 mov	 eax, DWORD PTR [esi+136]

; 71   : 		Info.szSTRData = m_szFolderName;

  00132	8d 4d dc	 lea	 ecx, DWORD PTR _Info$2[ebp]
  00135	89 45 e8	 mov	 DWORD PTR _Info$2[ebp+12], eax
  00138	8d 86 80 00 00
	00		 lea	 eax, DWORD PTR [esi+128]
  0013e	50		 push	 eax
  0013f	ff 15 00 00 00
	00		 call	 DWORD PTR __imp_??4?$CStringT@DV?$StrTraitMFC_DLL@DV?$ChTraitsCRT@D@ATL@@@@@ATL@@QAEAAV01@ABV01@@Z

; 72   : 		Info.nFolderIndx = m_nFolderIndx;

  00145	8b 86 8c 00 00
	00		 mov	 eax, DWORD PTR [esi+140]
; File C:\Program Files (x86)\Microsoft Visual Studio\2019\Community\VC\Tools\MSVC\14.29.30133\atlmfc\include\afxwin2.inl

; 114  : 	{ ASSERT(::IsWindow(m_hWnd)); ::InvalidateRect(m_hWnd, NULL, bErase); }

  0014b	6a 01		 push	 1
  0014d	6a 00		 push	 0
  0014f	ff 76 20	 push	 DWORD PTR [esi+32]
; File D:\git\src\IBK\IBK_DRFN\ProjSrc\SrcDrfn\Chart\Common_ST\STListCtrl.cpp

; 72   : 		Info.nFolderIndx = m_nFolderIndx;

  00152	89 45 ec	 mov	 DWORD PTR _Info$2[ebp+16], eax

; 73   : 		Info.nItemIndx = pNMListView->iItem;

  00155	8b 43 0c	 mov	 eax, DWORD PTR [ebx+12]
  00158	89 45 f0	 mov	 DWORD PTR _Info$2[ebp+20], eax
; File C:\Program Files (x86)\Microsoft Visual Studio\2019\Community\VC\Tools\MSVC\14.29.30133\atlmfc\include\afxwin2.inl

; 114  : 	{ ASSERT(::IsWindow(m_hWnd)); ::InvalidateRect(m_hWnd, NULL, bErase); }

  0015b	ff 15 00 00 00
	00		 call	 DWORD PTR __imp__InvalidateRect@12
; File C:\Program Files (x86)\Microsoft Visual Studio\2019\Community\VC\Tools\MSVC\14.29.30133\atlmfc\include\afxcmn.inl

; 237  : 	{ ASSERT(::IsWindow(m_hWnd)); return (UINT) ::SendMessage(m_hWnd, LVM_GETITEMSTATE, nItem, nMask); }

  00161	8b 3d 00 00 00
	00		 mov	 edi, DWORD PTR __imp__SendMessageA@16
  00167	6a 02		 push	 2
  00169	ff 73 0c	 push	 DWORD PTR [ebx+12]
  0016c	68 2c 10 00 00	 push	 4140			; 0000102cH
  00171	ff 76 20	 push	 DWORD PTR [esi+32]
  00174	ff d7		 call	 edi
; File D:\git\src\IBK\IBK_DRFN\ProjSrc\SrcDrfn\Chart\Common_ST\STListCtrl.cpp

; 76   : 		if(GetItemState(pNMListView->iItem, LVIS_SELECTED))

  00176	85 c0		 test	 eax, eax
  00178	74 36		 je	 SHORT $LN12@OnNMDblclk
; File C:\Program Files (x86)\Microsoft Visual Studio\2019\Community\VC\Tools\MSVC\14.29.30133\atlmfc\include\afxwin2.inl

; 213  : 	{ ASSERT(::IsWindow(m_hWnd)); return CWnd::FromHandle(::GetParent(m_hWnd)); }

  0017a	ff 76 20	 push	 DWORD PTR [esi+32]
  0017d	8b 35 00 00 00
	00		 mov	 esi, DWORD PTR __imp__GetParent@4
  00183	ff d6		 call	 esi
  00185	50		 push	 eax
  00186	e8 00 00 00 00	 call	 ?FromHandle@CWnd@@SGPAV1@PAUHWND__@@@Z ; CWnd::FromHandle
  0018b	8b c8		 mov	 ecx, eax

; 27   : 	{ return m_hWndOwner != NULL ? CWnd::FromHandle(m_hWndOwner) : GetParent(); }

  0018d	8b 41 5c	 mov	 eax, DWORD PTR [ecx+92]
  00190	85 c0		 test	 eax, eax
  00192	75 05		 jne	 SHORT $LN50@OnNMDblclk

; 213  : 	{ ASSERT(::IsWindow(m_hWnd)); return CWnd::FromHandle(::GetParent(m_hWnd)); }

  00194	ff 71 20	 push	 DWORD PTR [ecx+32]
  00197	ff d6		 call	 esi
$LN50@OnNMDblclk:

; 32   : 	{ ASSERT(::IsWindow(m_hWnd)); return ::SendMessage(m_hWnd, message, wParam, lParam); }

  00199	50		 push	 eax
  0019a	e8 00 00 00 00	 call	 ?FromHandle@CWnd@@SGPAV1@PAUHWND__@@@Z ; CWnd::FromHandle
  0019f	8d 4d dc	 lea	 ecx, DWORD PTR _Info$2[ebp]
  001a2	51		 push	 ecx
  001a3	6a 00		 push	 0
  001a5	ff 35 00 00 00
	00		 push	 DWORD PTR ?RMSG_OB_ITEMDBLCLK@@3IB
  001ab	ff 70 20	 push	 DWORD PTR [eax+32]
  001ae	ff d7		 call	 edi
$LN12@OnNMDblclk:
  001b0	8d 4d e4	 lea	 ecx, DWORD PTR _Info$2[ebp+8]
  001b3	ff 15 00 00 00
	00		 call	 DWORD PTR __imp_??1?$CStringT@DV?$StrTraitMFC_DLL@DV?$ChTraitsCRT@D@ATL@@@@@ATL@@QAE@XZ
  001b9	8d 4d e0	 lea	 ecx, DWORD PTR _Info$2[ebp+4]
  001bc	ff 15 00 00 00
	00		 call	 DWORD PTR __imp_??1?$CStringT@DV?$StrTraitMFC_DLL@DV?$ChTraitsCRT@D@ATL@@@@@ATL@@QAE@XZ
  001c2	8d 4d dc	 lea	 ecx, DWORD PTR _Info$2[ebp]
  001c5	ff 15 00 00 00
	00		 call	 DWORD PTR __imp_??1?$CStringT@DV?$StrTraitMFC_DLL@DV?$ChTraitsCRT@D@ATL@@@@@ATL@@QAE@XZ
$LN56@OnNMDblclk:
; File D:\git\src\IBK\IBK_DRFN\ProjSrc\SrcDrfn\Chart\Common_ST\STListCtrl.cpp

; 80   : 	*pResult = 0;

  001cb	8b 45 0c	 mov	 eax, DWORD PTR _pResult$[ebp]

; 81   : }

  001ce	8d 4d 08	 lea	 ecx, DWORD PTR _szText$[ebp]
  001d1	c7 00 00 00 00
	00		 mov	 DWORD PTR [eax], 0
  001d7	ff 15 00 00 00
	00		 call	 DWORD PTR __imp_??1?$CStringT@DV?$StrTraitMFC_DLL@DV?$ChTraitsCRT@D@ATL@@@@@ATL@@QAE@XZ
$LN1@OnNMDblclk:
  001dd	8b 4d f4	 mov	 ecx, DWORD PTR __$EHRec$[ebp]
  001e0	64 89 0d 00 00
	00 00		 mov	 DWORD PTR fs:0, ecx
  001e7	59		 pop	 ecx
  001e8	5f		 pop	 edi
  001e9	5e		 pop	 esi
  001ea	5b		 pop	 ebx
  001eb	8b e5		 mov	 esp, ebp
  001ed	5d		 pop	 ebp
  001ee	c2 08 00	 ret	 8
$LN33@OnNMDblclk:
; File C:\Program Files (x86)\Microsoft Visual Studio\2019\Community\VC\Tools\MSVC\14.29.30133\atlmfc\include\afxcoll.inl

; 118  : 			AfxThrowInvalidArgException();

  001f1	e8 00 00 00 00	 call	 ?AfxThrowInvalidArgException@@YGXXZ ; AfxThrowInvalidArgException
$LN59@OnNMDblclk:
  001f6	cc		 int	 3
_TEXT	ENDS
;	COMDAT text$x
text$x	SEGMENT
__unwindfunclet$?OnNMDblclk@CSTListCtrl@@QAEXPAUtagNMHDR@@PAJ@Z$0:
  00000	8d 4d 08	 lea	 ecx, DWORD PTR _szText$[ebp]
  00003	ff 25 00 00 00
	00		 jmp	 DWORD PTR __imp_??1?$CStringT@DV?$StrTraitMFC_DLL@DV?$ChTraitsCRT@D@ATL@@@@@ATL@@QAE@XZ
__unwindfunclet$?OnNMDblclk@CSTListCtrl@@QAEXPAUtagNMHDR@@PAJ@Z$1:
  00009	8d 4d dc	 lea	 ecx, DWORD PTR _Info$2[ebp]
  0000c	e9 00 00 00 00	 jmp	 ??1STMNG_ITEMINFO@@QAE@XZ
  00011	cc		 int	 3
  00012	cc		 int	 3
  00013	cc		 int	 3
  00014	cc		 int	 3
  00015	cc		 int	 3
__ehhandler$?OnNMDblclk@CSTListCtrl@@QAEXPAUtagNMHDR@@PAJ@Z:
  00016	90		 npad	 1
  00017	90		 npad	 1
  00018	8b 54 24 08	 mov	 edx, DWORD PTR [esp+8]
  0001c	8d 42 0c	 lea	 eax, DWORD PTR [edx+12]
  0001f	8b 4a d8	 mov	 ecx, DWORD PTR [edx-40]
  00022	33 c8		 xor	 ecx, eax
  00024	e8 00 00 00 00	 call	 @__security_check_cookie@4
  00029	b8 00 00 00 00	 mov	 eax, OFFSET __ehfuncinfo$?OnNMDblclk@CSTListCtrl@@QAEXPAUtagNMHDR@@PAJ@Z
  0002e	e9 00 00 00 00	 jmp	 ___CxxFrameHandler3
text$x	ENDS
?OnNMDblclk@CSTListCtrl@@QAEXPAUtagNMHDR@@PAJ@Z ENDP	; CSTListCtrl::OnNMDblclk
; Function compile flags: /Ogtp
; File D:\git\src\IBK\IBK_DRFN\ProjSrc\SrcDrfn\Chart\Common_ST\STListCtrl.cpp
;	COMDAT ?GetMessageMap@CSTListCtrl@@MBEPBUAFX_MSGMAP@@XZ
_TEXT	SEGMENT
?GetMessageMap@CSTListCtrl@@MBEPBUAFX_MSGMAP@@XZ PROC	; CSTListCtrl::GetMessageMap, COMDAT
; _this$ = ecx

; 28   : BEGIN_MESSAGE_MAP(CSTListCtrl, CListCtrl)

  00000	b8 00 00 00 00	 mov	 eax, OFFSET ?messageMap@?1??GetThisMessageMap@CSTListCtrl@@KGPBUAFX_MSGMAP@@XZ@4U3@B
  00005	c3		 ret	 0
?GetMessageMap@CSTListCtrl@@MBEPBUAFX_MSGMAP@@XZ ENDP	; CSTListCtrl::GetMessageMap
_TEXT	ENDS
; Function compile flags: /Ogtp
; File D:\git\src\IBK\IBK_DRFN\ProjSrc\SrcDrfn\Chart\Common_ST\STListCtrl.cpp
;	COMDAT ?GetThisMessageMap@CSTListCtrl@@KGPBUAFX_MSGMAP@@XZ
_TEXT	SEGMENT
?GetThisMessageMap@CSTListCtrl@@KGPBUAFX_MSGMAP@@XZ PROC ; CSTListCtrl::GetThisMessageMap, COMDAT

; 29   : 	ON_NOTIFY_REFLECT(NM_DBLCLK, OnNMDblclk)
; 30   : 	ON_NOTIFY_REFLECT(NM_CLICK, OnNMClk)
; 31   : 	ON_NOTIFY_REFLECT(NM_CUSTOMDRAW, OnCustomDraw)
; 32   : 	ON_NOTIFY_REFLECT(NM_RCLICK, OnNMRclick)
; 33   : END_MESSAGE_MAP()

  00000	b8 00 00 00 00	 mov	 eax, OFFSET ?messageMap@?1??GetThisMessageMap@CSTListCtrl@@KGPBUAFX_MSGMAP@@XZ@4U3@B
  00005	c3		 ret	 0
?GetThisMessageMap@CSTListCtrl@@KGPBUAFX_MSGMAP@@XZ ENDP ; CSTListCtrl::GetThisMessageMap
_TEXT	ENDS
; Function compile flags: /Ogtp
; File D:\git\src\IBK\IBK_DRFN\ProjSrc\SrcDrfn\Chart\Common_ST\STListCtrl.cpp
; File C:\Program Files (x86)\Microsoft Visual Studio\2019\Community\VC\Tools\MSVC\14.29.30133\atlmfc\include\afxcmn.inl
; File D:\git\src\IBK\IBK_DRFN\ProjSrc\SrcDrfn\Chart\Common_ST\STListCtrl.cpp
; File C:\Program Files (x86)\Microsoft Visual Studio\2019\Community\VC\Tools\MSVC\14.29.30133\atlmfc\include\afxcmn.inl
; File D:\git\src\IBK\IBK_DRFN\ProjSrc\SrcDrfn\Chart\Common_ST\STListCtrl.cpp
; File C:\Program Files (x86)\Microsoft Visual Studio\2019\Community\VC\Tools\MSVC\14.29.30133\atlmfc\include\afxcoll.inl
; File D:\git\src\IBK\IBK_DRFN\ProjSrc\SrcDrfn\Chart\Common_ST\STListCtrl.cpp
; File C:\Program Files (x86)\Microsoft Visual Studio\2019\Community\VC\Tools\MSVC\14.29.30133\atlmfc\include\afxcoll.inl
; File D:\git\src\IBK\IBK_DRFN\ProjSrc\SrcDrfn\Chart\Common_ST\STListCtrl.cpp
;	COMDAT ?GetUserSetting@CSTListCtrl@@QAEHHH@Z
_TEXT	SEGMENT
_nType$ = 8						; size = 4
_nIndex$ = 12						; size = 4
?GetUserSetting@CSTListCtrl@@QAEHHH@Z PROC		; CSTListCtrl::GetUserSetting, COMDAT
; _this$ = ecx

; 186  : {

  00000	55		 push	 ebp
  00001	8b ec		 mov	 ebp, esp
  00003	56		 push	 esi
  00004	57		 push	 edi
; File C:\Program Files (x86)\Microsoft Visual Studio\2019\Community\VC\Tools\MSVC\14.29.30133\atlmfc\include\afxcmn.inl

; 155  : 	{ ASSERT(::IsWindow(m_hWnd)); return (int) ::SendMessage(m_hWnd, LVM_GETITEMCOUNT, 0, 0L); }

  00005	6a 00		 push	 0
; File D:\git\src\IBK\IBK_DRFN\ProjSrc\SrcDrfn\Chart\Common_ST\STListCtrl.cpp

; 186  : {

  00007	8b f1		 mov	 esi, ecx
; File C:\Program Files (x86)\Microsoft Visual Studio\2019\Community\VC\Tools\MSVC\14.29.30133\atlmfc\include\afxcmn.inl

; 155  : 	{ ASSERT(::IsWindow(m_hWnd)); return (int) ::SendMessage(m_hWnd, LVM_GETITEMCOUNT, 0, 0L); }

  00009	6a 00		 push	 0
  0000b	68 04 10 00 00	 push	 4100			; 00001004H
  00010	ff 76 20	 push	 DWORD PTR [esi+32]
  00013	ff 15 00 00 00
	00		 call	 DWORD PTR __imp__SendMessageA@16
; File D:\git\src\IBK\IBK_DRFN\ProjSrc\SrcDrfn\Chart\Common_ST\STListCtrl.cpp

; 188  : 	if(nCount<=nIndex) 

  00019	8b 7d 0c	 mov	 edi, DWORD PTR _nIndex$[ebp]
  0001c	3b c7		 cmp	 eax, edi
  0001e	7f 08		 jg	 SHORT $LN2@GetUserSet

; 189  : 		return FALSE;

  00020	5f		 pop	 edi
  00021	33 c0		 xor	 eax, eax

; 194  : }

  00023	5e		 pop	 esi
  00024	5d		 pop	 ebp
  00025	c2 08 00	 ret	 8
$LN2@GetUserSet:

; 190  : 	else if(nCount >= m_UserSelState.GetSize())

  00028	3b 86 ec 00 00
	00		 cmp	 eax, DWORD PTR [esi+236]
  0002e	7c 0e		 jl	 SHORT $LN4@GetUserSet

; 191  : 		m_UserSelState.SetSize(nCount);

  00030	6a ff		 push	 -1
  00032	50		 push	 eax
  00033	8d 8e e4 00 00
	00		 lea	 ecx, DWORD PTR [esi+228]
  00039	e8 00 00 00 00	 call	 ?SetSize@CDWordArray@@QAEXHH@Z ; CDWordArray::SetSize
$LN4@GetUserSet:
; File C:\Program Files (x86)\Microsoft Visual Studio\2019\Community\VC\Tools\MSVC\14.29.30133\atlmfc\include\afxcoll.inl

; 117  : 		if( nIndex < 0 || nIndex >= m_nSize )

  0003e	85 ff		 test	 edi, edi
  00040	78 17		 js	 SHORT $LN10@GetUserSet
  00042	3b be ec 00 00
	00		 cmp	 edi, DWORD PTR [esi+236]
  00048	7d 0f		 jge	 SHORT $LN10@GetUserSet
; File D:\git\src\IBK\IBK_DRFN\ProjSrc\SrcDrfn\Chart\Common_ST\STListCtrl.cpp

; 193  : 	return (BOOL)m_UserSelState.GetAt(nIndex);	

  0004a	8b 86 e8 00 00
	00		 mov	 eax, DWORD PTR [esi+232]
  00050	8b 04 b8	 mov	 eax, DWORD PTR [eax+edi*4]
  00053	5f		 pop	 edi

; 194  : }

  00054	5e		 pop	 esi
  00055	5d		 pop	 ebp
  00056	c2 08 00	 ret	 8
$LN10@GetUserSet:
; File C:\Program Files (x86)\Microsoft Visual Studio\2019\Community\VC\Tools\MSVC\14.29.30133\atlmfc\include\afxcoll.inl

; 118  : 			AfxThrowInvalidArgException();

  00059	e8 00 00 00 00	 call	 ?AfxThrowInvalidArgException@@YGXXZ ; AfxThrowInvalidArgException
$LN13@GetUserSet:
  0005e	cc		 int	 3
?GetUserSetting@CSTListCtrl@@QAEHHH@Z ENDP		; CSTListCtrl::GetUserSetting
_TEXT	ENDS
; Function compile flags: /Ogtp
; File D:\git\src\IBK\IBK_DRFN\ProjSrc\SrcDrfn\Chart\Common_ST\STListCtrl.cpp
; File C:\Program Files (x86)\Microsoft Visual Studio\2019\Community\VC\Tools\MSVC\14.29.30133\atlmfc\include\afxcmn.inl
; File D:\git\src\IBK\IBK_DRFN\ProjSrc\SrcDrfn\Chart\Common_ST\STListCtrl.cpp
; File C:\Program Files (x86)\Microsoft Visual Studio\2019\Community\VC\Tools\MSVC\14.29.30133\atlmfc\include\afxcoll.inl
; File D:\git\src\IBK\IBK_DRFN\ProjSrc\SrcDrfn\Chart\Common_ST\STListCtrl.cpp
; File C:\Program Files (x86)\Microsoft Visual Studio\2019\Community\VC\Tools\MSVC\14.29.30133\atlmfc\include\afxcoll.inl
; File D:\git\src\IBK\IBK_DRFN\ProjSrc\SrcDrfn\Chart\Common_ST\STListCtrl.cpp
; File C:\Program Files (x86)\Microsoft Visual Studio\2019\Community\VC\Tools\MSVC\14.29.30133\atlmfc\include\afxcoll.inl
; File D:\git\src\IBK\IBK_DRFN\ProjSrc\SrcDrfn\Chart\Common_ST\STListCtrl.cpp
;	COMDAT ?SetUserSetting@CSTListCtrl@@QAEXHHH@Z
_TEXT	SEGMENT
_nType$ = 8						; size = 4
_nIndex$ = 12						; size = 4
_bValue$ = 16						; size = 4
?SetUserSetting@CSTListCtrl@@QAEXHHH@Z PROC		; CSTListCtrl::SetUserSetting, COMDAT
; _this$ = ecx

; 175  : {

  00000	55		 push	 ebp
  00001	8b ec		 mov	 ebp, esp

; 176  : 	if(bValue)

  00003	83 7d 10 00	 cmp	 DWORD PTR _bValue$[ebp], 0
  00007	56		 push	 esi
  00008	8b f1		 mov	 esi, ecx
  0000a	74 37		 je	 SHORT $LN15@SetUserSet
; File C:\Program Files (x86)\Microsoft Visual Studio\2019\Community\VC\Tools\MSVC\14.29.30133\atlmfc\include\afxcmn.inl

; 155  : 	{ ASSERT(::IsWindow(m_hWnd)); return (int) ::SendMessage(m_hWnd, LVM_GETITEMCOUNT, 0, 0L); }

  0000c	6a 00		 push	 0
  0000e	6a 00		 push	 0
  00010	68 04 10 00 00	 push	 4100			; 00001004H
  00015	ff 76 20	 push	 DWORD PTR [esi+32]
  00018	ff 15 00 00 00
	00		 call	 DWORD PTR __imp__SendMessageA@16
; File D:\git\src\IBK\IBK_DRFN\ProjSrc\SrcDrfn\Chart\Common_ST\STListCtrl.cpp

; 179  : 		if(nCount<=nIndex) return;

  0001e	8b 4d 0c	 mov	 ecx, DWORD PTR _nIndex$[ebp]
  00021	3b c1		 cmp	 eax, ecx
  00023	7e 1e		 jle	 SHORT $LN15@SetUserSet
; File C:\Program Files (x86)\Microsoft Visual Studio\2019\Community\VC\Tools\MSVC\14.29.30133\atlmfc\include\afxcoll.inl

; 117  : 		if( nIndex < 0 || nIndex >= m_nSize )

  00025	85 c9		 test	 ecx, ecx
  00027	78 1f		 js	 SHORT $LN9@SetUserSet
  00029	3b 8e ec 00 00
	00		 cmp	 ecx, DWORD PTR [esi+236]
  0002f	7d 17		 jge	 SHORT $LN9@SetUserSet

; 119  : 		return m_pData[nIndex]; }

  00031	8b 86 e8 00 00
	00		 mov	 eax, DWORD PTR [esi+232]
  00037	8d 0c 88	 lea	 ecx, DWORD PTR [eax+ecx*4]
; File D:\git\src\IBK\IBK_DRFN\ProjSrc\SrcDrfn\Chart\Common_ST\STListCtrl.cpp

; 181  : 		m_UserSelState.SetAt(nIndex, (DWORD)m_UserSelState.GetAt(nIndex) ? FALSE : TRUE);

  0003a	33 c0		 xor	 eax, eax
  0003c	39 01		 cmp	 DWORD PTR [ecx], eax
  0003e	0f 94 c0	 sete	 al
; File C:\Program Files (x86)\Microsoft Visual Studio\2019\Community\VC\Tools\MSVC\14.29.30133\atlmfc\include\afxcoll.inl

; 124  : 		m_pData[nIndex] = newElement; }

  00041	89 01		 mov	 DWORD PTR [ecx], eax
$LN15@SetUserSet:
  00043	5e		 pop	 esi
; File D:\git\src\IBK\IBK_DRFN\ProjSrc\SrcDrfn\Chart\Common_ST\STListCtrl.cpp

; 183  : }

  00044	5d		 pop	 ebp
  00045	c2 0c 00	 ret	 12			; 0000000cH
$LN9@SetUserSet:
; File C:\Program Files (x86)\Microsoft Visual Studio\2019\Community\VC\Tools\MSVC\14.29.30133\atlmfc\include\afxcoll.inl

; 118  : 			AfxThrowInvalidArgException();

  00048	e8 00 00 00 00	 call	 ?AfxThrowInvalidArgException@@YGXXZ ; AfxThrowInvalidArgException
$LN16@SetUserSet:
  0004d	cc		 int	 3
?SetUserSetting@CSTListCtrl@@QAEXHHH@Z ENDP		; CSTListCtrl::SetUserSetting
_TEXT	ENDS
; Function compile flags: /Ogtp
; File D:\git\src\IBK\IBK_DRFN\ProjSrc\SrcDrfn\Chart\Common_ST\STListCtrl.cpp
; File C:\Program Files (x86)\Microsoft Visual Studio\2019\Community\VC\Tools\MSVC\14.29.30133\atlmfc\include\afxwin1.inl
; File D:\git\src\IBK\IBK_DRFN\ProjSrc\SrcDrfn\Chart\Common_ST\STListCtrl.cpp
; File C:\Program Files (x86)\Microsoft Visual Studio\2019\Community\VC\Tools\MSVC\14.29.30133\atlmfc\include\afxwin1.inl
; File C:\Program Files (x86)\Microsoft Visual Studio\2019\Community\VC\Tools\MSVC\14.29.30133\atlmfc\include\afxwin2.inl
; File D:\git\src\IBK\IBK_DRFN\ProjSrc\SrcDrfn\Chart\Common_ST\STListCtrl.cpp
;	COMDAT ?InitFont@CSTListCtrl@@QAEXH@Z
_TEXT	SEGMENT
_dc$ = -32						; size = 20
__$EHRec$ = -12						; size = 12
_bUseBoldFont$ = 8					; size = 4
?InitFont@CSTListCtrl@@QAEXH@Z PROC			; CSTListCtrl::InitFont, COMDAT
; _this$ = ecx

; 144  : {

  00000	55		 push	 ebp
  00001	8b ec		 mov	 ebp, esp
  00003	6a ff		 push	 -1
  00005	68 00 00 00 00	 push	 __ehhandler$?InitFont@CSTListCtrl@@QAEXH@Z
  0000a	64 a1 00 00 00
	00		 mov	 eax, DWORD PTR fs:0
  00010	50		 push	 eax
  00011	83 ec 14	 sub	 esp, 20			; 00000014H
  00014	56		 push	 esi
  00015	57		 push	 edi
  00016	a1 00 00 00 00	 mov	 eax, DWORD PTR ___security_cookie
  0001b	33 c5		 xor	 eax, ebp
  0001d	50		 push	 eax
  0001e	8d 45 f4	 lea	 eax, DWORD PTR __$EHRec$[ebp]
  00021	64 a3 00 00 00
	00		 mov	 DWORD PTR fs:0, eax
  00027	8b f1		 mov	 esi, ecx

; 145  : 	CClientDC dc(this);

  00029	56		 push	 esi
  0002a	8d 4d e0	 lea	 ecx, DWORD PTR _dc$[ebp]
  0002d	e8 00 00 00 00	 call	 ??0CClientDC@@QAE@PAVCWnd@@@Z ; CClientDC::CClientDC
  00032	c7 45 fc 00 00
	00 00		 mov	 DWORD PTR __$EHRec$[ebp+8], 0

; 165  : 	if(m_fontBold.GetSafeHandle() == NULL)

  00039	8d be cc 00 00
	00		 lea	 edi, DWORD PTR [esi+204]
  0003f	c7 86 90 00 00
	00 00 00 00 00	 mov	 DWORD PTR [esi+144], 0
  00049	8d 8e 90 00 00
	00		 lea	 ecx, DWORD PTR [esi+144]
  0004f	c7 86 ac 00 00
	00 00 00 00 00	 mov	 DWORD PTR [esi+172], 0
  00059	c7 86 b0 00 00
	00 00 00 00 00	 mov	 DWORD PTR [esi+176], 0
  00063	c7 86 b4 00 00
	00 00 00 00 00	 mov	 DWORD PTR [esi+180], 0
  0006d	c7 86 b8 00 00
	00 00 00 00 00	 mov	 DWORD PTR [esi+184], 0
  00077	c7 86 bc 00 00
	00 00 00 00 00	 mov	 DWORD PTR [esi+188], 0
  00081	c7 86 c0 00 00
	00 00 00 00 00	 mov	 DWORD PTR [esi+192], 0
  0008b	c7 86 c4 00 00
	00 00 00 00 00	 mov	 DWORD PTR [esi+196], 0
  00095	c7 86 c8 00 00
	00 00 00 00 00	 mov	 DWORD PTR [esi+200], 0
  0009f	c7 86 94 00 00
	00 00 00 00 00	 mov	 DWORD PTR [esi+148], 0
  000a9	c7 86 98 00 00
	00 00 00 00 00	 mov	 DWORD PTR [esi+152], 0
  000b3	c7 86 9c 00 00
	00 00 00 00 00	 mov	 DWORD PTR [esi+156], 0
  000bd	c7 86 a0 00 00
	00 90 01 00 00	 mov	 DWORD PTR [esi+160], 400 ; 00000190H
  000c7	c7 86 a4 00 00
	00 00 00 00 01	 mov	 DWORD PTR [esi+164], 16777216 ; 01000000H
  000d1	c7 86 a8 00 00
	00 00 00 00 10	 mov	 DWORD PTR [esi+168], 268435456 ; 10000000H
  000db	a1 00 00 00 00	 mov	 eax, DWORD PTR ??_C@_06MFMMLLPC@?$LB?$LM?$LI?$LC?C?$LM@
  000e0	89 86 ac 00 00
	00		 mov	 DWORD PTR [esi+172], eax
  000e6	66 a1 04 00 00
	00		 mov	 ax, WORD PTR ??_C@_06MFMMLLPC@?$LB?$LM?$LI?$LC?C?$LM@+4
  000ec	66 89 86 b0 00
	00 00		 mov	 WORD PTR [esi+176], ax
  000f3	a0 06 00 00 00	 mov	 al, BYTE PTR ??_C@_06MFMMLLPC@?$LB?$LM?$LI?$LC?C?$LM@+6
  000f8	88 86 b2 00 00
	00		 mov	 BYTE PTR [esi+178], al
  000fe	c7 01 0c 00 00
	00		 mov	 DWORD PTR [ecx], 12	; 0000000cH
; File C:\Program Files (x86)\Microsoft Visual Studio\2019\Community\VC\Tools\MSVC\14.29.30133\atlmfc\include\afxwin1.inl

; 68   : 	{ return this == NULL ? NULL : m_hObject; }

  00104	85 ff		 test	 edi, edi
  00106	75 13		 jne	 SHORT $LN7@InitFont
  00108	51		 push	 ecx
  00109	ff 15 00 00 00
	00		 call	 DWORD PTR __imp__CreateFontIndirectA@4
  0010f	50		 push	 eax
  00110	8b cf		 mov	 ecx, edi
  00112	e8 00 00 00 00	 call	 ?Attach@CGdiObject@@QAEHPAX@Z ; CGdiObject::Attach
  00117	33 c0		 xor	 eax, eax
  00119	eb 1b		 jmp	 SHORT $LN16@InitFont
$LN7@InitFont:
; File D:\git\src\IBK\IBK_DRFN\ProjSrc\SrcDrfn\Chart\Common_ST\STListCtrl.cpp

; 165  : 	if(m_fontBold.GetSafeHandle() == NULL)

  0011b	83 7f 04 00	 cmp	 DWORD PTR [edi+4], 0
  0011f	75 23		 jne	 SHORT $LN2@InitFont
; File C:\Program Files (x86)\Microsoft Visual Studio\2019\Community\VC\Tools\MSVC\14.29.30133\atlmfc\include\afxwin1.inl

; 157  : 	{ return Attach(::CreateFontIndirect(lpLogFont)); }

  00121	51		 push	 ecx
  00122	ff 15 00 00 00
	00		 call	 DWORD PTR __imp__CreateFontIndirectA@4
  00128	50		 push	 eax
  00129	8b cf		 mov	 ecx, edi
  0012b	e8 00 00 00 00	 call	 ?Attach@CGdiObject@@QAEHPAX@Z ; CGdiObject::Attach

; 68   : 	{ return this == NULL ? NULL : m_hObject; }

  00130	8b 86 d0 00 00
	00		 mov	 eax, DWORD PTR [esi+208]
$LN16@InitFont:
; File C:\Program Files (x86)\Microsoft Visual Studio\2019\Community\VC\Tools\MSVC\14.29.30133\atlmfc\include\afxwin2.inl

; 43   : 	{ ASSERT(::IsWindow(m_hWnd)); ::SendMessage(m_hWnd, WM_SETFONT, (WPARAM)pFont->GetSafeHandle(), bRedraw); }

  00136	6a 01		 push	 1
  00138	50		 push	 eax
  00139	6a 30		 push	 48			; 00000030H
  0013b	ff 76 20	 push	 DWORD PTR [esi+32]
  0013e	ff 15 00 00 00
	00		 call	 DWORD PTR __imp__SendMessageA@16
$LN2@InitFont:
; File D:\git\src\IBK\IBK_DRFN\ProjSrc\SrcDrfn\Chart\Common_ST\STListCtrl.cpp

; 171  : 	m_bUseBoldFont = bUseBoldFont;

  00144	8b 45 08	 mov	 eax, DWORD PTR _bUseBoldFont$[ebp]

; 172  : }

  00147	8d 4d e0	 lea	 ecx, DWORD PTR _dc$[ebp]
  0014a	89 86 dc 00 00
	00		 mov	 DWORD PTR [esi+220], eax
  00150	e8 00 00 00 00	 call	 ??1CClientDC@@UAE@XZ	; CClientDC::~CClientDC
  00155	8b 4d f4	 mov	 ecx, DWORD PTR __$EHRec$[ebp]
  00158	64 89 0d 00 00
	00 00		 mov	 DWORD PTR fs:0, ecx
  0015f	59		 pop	 ecx
  00160	5f		 pop	 edi
  00161	5e		 pop	 esi
  00162	8b e5		 mov	 esp, ebp
  00164	5d		 pop	 ebp
  00165	c2 04 00	 ret	 4
_TEXT	ENDS
;	COMDAT text$x
text$x	SEGMENT
__unwindfunclet$?InitFont@CSTListCtrl@@QAEXH@Z$0:
  00000	8d 4d e0	 lea	 ecx, DWORD PTR _dc$[ebp]
  00003	e9 00 00 00 00	 jmp	 ??1CClientDC@@UAE@XZ	; CClientDC::~CClientDC
  00008	cc		 int	 3
  00009	cc		 int	 3
  0000a	cc		 int	 3
  0000b	cc		 int	 3
  0000c	cc		 int	 3
__ehhandler$?InitFont@CSTListCtrl@@QAEXH@Z:
  0000d	90		 npad	 1
  0000e	90		 npad	 1
  0000f	8b 54 24 08	 mov	 edx, DWORD PTR [esp+8]
  00013	8d 42 0c	 lea	 eax, DWORD PTR [edx+12]
  00016	8b 4a e0	 mov	 ecx, DWORD PTR [edx-32]
  00019	33 c8		 xor	 ecx, eax
  0001b	e8 00 00 00 00	 call	 @__security_check_cookie@4
  00020	b8 00 00 00 00	 mov	 eax, OFFSET __ehfuncinfo$?InitFont@CSTListCtrl@@QAEXH@Z
  00025	e9 00 00 00 00	 jmp	 ___CxxFrameHandler3
text$x	ENDS
?InitFont@CSTListCtrl@@QAEXH@Z ENDP			; CSTListCtrl::InitFont
; Function compile flags: /Ogtp
; File D:\git\src\IBK\IBK_DRFN\ProjSrc\SrcDrfn\Chart\Common_ST\STListCtrl.cpp
; File C:\Program Files (x86)\Microsoft Visual Studio\2019\Community\VC\Tools\MSVC\14.29.30133\atlmfc\include\afxwin1.inl
; File D:\git\src\IBK\IBK_DRFN\ProjSrc\SrcDrfn\Chart\Common_ST\STListCtrl.cpp
; File C:\Program Files (x86)\Microsoft Visual Studio\2019\Community\VC\Tools\MSVC\14.29.30133\atlmfc\include\afxwin1.inl
; File D:\git\src\IBK\IBK_DRFN\ProjSrc\SrcDrfn\Chart\Common_ST\STListCtrl.cpp
;	COMDAT ??1CSTListCtrl@@UAE@XZ
_TEXT	SEGMENT
__$EHRec$ = -12						; size = 12
??1CSTListCtrl@@UAE@XZ PROC				; CSTListCtrl::~CSTListCtrl, COMDAT
; _this$ = ecx

; 22   : {

  00000	55		 push	 ebp
  00001	8b ec		 mov	 ebp, esp
  00003	6a ff		 push	 -1
  00005	68 00 00 00 00	 push	 __ehhandler$??1CSTListCtrl@@UAE@XZ
  0000a	64 a1 00 00 00
	00		 mov	 eax, DWORD PTR fs:0
  00010	50		 push	 eax
  00011	56		 push	 esi
  00012	57		 push	 edi
  00013	a1 00 00 00 00	 mov	 eax, DWORD PTR ___security_cookie
  00018	33 c5		 xor	 eax, ebp
  0001a	50		 push	 eax
  0001b	8d 45 f4	 lea	 eax, DWORD PTR __$EHRec$[ebp]
  0001e	64 a3 00 00 00
	00		 mov	 DWORD PTR fs:0, eax
  00024	8b f9		 mov	 edi, ecx

; 23   : 	if (m_fontBold.GetSafeHandle())

  00026	8d b7 cc 00 00
	00		 lea	 esi, DWORD PTR [edi+204]
  0002c	c7 07 00 00 00
	00		 mov	 DWORD PTR [edi], OFFSET ??_7CSTListCtrl@@6B@
; File C:\Program Files (x86)\Microsoft Visual Studio\2019\Community\VC\Tools\MSVC\14.29.30133\atlmfc\include\afxwin1.inl

; 68   : 	{ return this == NULL ? NULL : m_hObject; }

  00032	85 f6		 test	 esi, esi
  00034	74 0d		 je	 SHORT $LN2@CSTListCtr
; File D:\git\src\IBK\IBK_DRFN\ProjSrc\SrcDrfn\Chart\Common_ST\STListCtrl.cpp

; 23   : 	if (m_fontBold.GetSafeHandle())

  00036	83 7e 04 00	 cmp	 DWORD PTR [esi+4], 0
  0003a	74 07		 je	 SHORT $LN2@CSTListCtr

; 24   : 		m_fontBold.DeleteObject();

  0003c	8b ce		 mov	 ecx, esi
  0003e	e8 00 00 00 00	 call	 ?DeleteObject@CGdiObject@@QAEHXZ ; CGdiObject::DeleteObject
$LN2@CSTListCtr:

; 25   : }

  00043	8d 8f e4 00 00
	00		 lea	 ecx, DWORD PTR [edi+228]
  00049	e8 00 00 00 00	 call	 ??1CDWordArray@@UAE@XZ	; CDWordArray::~CDWordArray
  0004e	8d 8f e0 00 00
	00		 lea	 ecx, DWORD PTR [edi+224]
  00054	ff 15 00 00 00
	00		 call	 DWORD PTR __imp_??1?$CStringT@DV?$StrTraitMFC_DLL@DV?$ChTraitsCRT@D@ATL@@@@@ATL@@QAE@XZ
; File C:\Program Files (x86)\Microsoft Visual Studio\2019\Community\VC\Tools\MSVC\14.29.30133\atlmfc\include\afxwin1.inl

; 155  : 	{ }

  0005a	8b ce		 mov	 ecx, esi
  0005c	c7 06 00 00 00
	00		 mov	 DWORD PTR [esi], OFFSET ??_7CFont@@6B@
  00062	e8 00 00 00 00	 call	 ??1CGdiObject@@UAE@XZ	; CGdiObject::~CGdiObject
; File D:\git\src\IBK\IBK_DRFN\ProjSrc\SrcDrfn\Chart\Common_ST\STListCtrl.cpp

; 25   : }

  00067	8d 8f 84 00 00
	00		 lea	 ecx, DWORD PTR [edi+132]
  0006d	ff 15 00 00 00
	00		 call	 DWORD PTR __imp_??1?$CStringT@DV?$StrTraitMFC_DLL@DV?$ChTraitsCRT@D@ATL@@@@@ATL@@QAE@XZ
  00073	8d 8f 80 00 00
	00		 lea	 ecx, DWORD PTR [edi+128]
  00079	ff 15 00 00 00
	00		 call	 DWORD PTR __imp_??1?$CStringT@DV?$StrTraitMFC_DLL@DV?$ChTraitsCRT@D@ATL@@@@@ATL@@QAE@XZ
  0007f	8b cf		 mov	 ecx, edi
  00081	e8 00 00 00 00	 call	 ??1CListCtrl@@UAE@XZ	; CListCtrl::~CListCtrl
  00086	8b 4d f4	 mov	 ecx, DWORD PTR __$EHRec$[ebp]
  00089	64 89 0d 00 00
	00 00		 mov	 DWORD PTR fs:0, ecx
  00090	59		 pop	 ecx
  00091	5f		 pop	 edi
  00092	5e		 pop	 esi
  00093	8b e5		 mov	 esp, ebp
  00095	5d		 pop	 ebp
  00096	c3		 ret	 0
  00097	cc		 int	 3
  00098	cc		 int	 3
  00099	cc		 int	 3
  0009a	cc		 int	 3
  0009b	cc		 int	 3
_TEXT	ENDS
;	COMDAT text$x
text$x	SEGMENT
__ehhandler$??1CSTListCtrl@@UAE@XZ:
  00000	90		 npad	 1
  00001	90		 npad	 1
  00002	8b 54 24 08	 mov	 edx, DWORD PTR [esp+8]
  00006	8d 42 0c	 lea	 eax, DWORD PTR [edx+12]
  00009	8b 4a f4	 mov	 ecx, DWORD PTR [edx-12]
  0000c	33 c8		 xor	 ecx, eax
  0000e	e8 00 00 00 00	 call	 @__security_check_cookie@4
  00013	b8 00 00 00 00	 mov	 eax, OFFSET __ehfuncinfo$??1CSTListCtrl@@UAE@XZ
  00018	e9 00 00 00 00	 jmp	 ___CxxFrameHandler3
text$x	ENDS
??1CSTListCtrl@@UAE@XZ ENDP				; CSTListCtrl::~CSTListCtrl
; Function compile flags: /Ogtp
; File D:\git\src\IBK\IBK_DRFN\ProjSrc\SrcDrfn\Chart\Common_ST\STListCtrl.cpp
; File C:\Program Files (x86)\Microsoft Visual Studio\2019\Community\VC\Tools\MSVC\14.29.30133\atlmfc\include\afxcmn.inl
; File D:\git\src\IBK\IBK_DRFN\ProjSrc\SrcDrfn\Chart\Common_ST\STListCtrl.cpp
; File C:\Program Files (x86)\Microsoft Visual Studio\2019\Community\VC\Tools\MSVC\14.29.30133\atlmfc\include\afxwin1.inl
; File D:\git\src\IBK\IBK_DRFN\ProjSrc\SrcDrfn\Chart\Common_ST\STListCtrl.cpp
;	COMDAT ??0CSTListCtrl@@QAE@XZ
_TEXT	SEGMENT
_this$ = -16						; size = 4
__$EHRec$ = -12						; size = 12
??0CSTListCtrl@@QAE@XZ PROC				; CSTListCtrl::CSTListCtrl, COMDAT
; _this$ = ecx

; 16   : {

  00000	55		 push	 ebp
  00001	8b ec		 mov	 ebp, esp
  00003	6a ff		 push	 -1
  00005	68 00 00 00 00	 push	 __ehhandler$??0CSTListCtrl@@QAE@XZ
  0000a	64 a1 00 00 00
	00		 mov	 eax, DWORD PTR fs:0
  00010	50		 push	 eax
  00011	51		 push	 ecx
  00012	56		 push	 esi
  00013	a1 00 00 00 00	 mov	 eax, DWORD PTR ___security_cookie
  00018	33 c5		 xor	 eax, ebp
  0001a	50		 push	 eax
  0001b	8d 45 f4	 lea	 eax, DWORD PTR __$EHRec$[ebp]
  0001e	64 a3 00 00 00
	00		 mov	 DWORD PTR fs:0, eax
  00024	8b f1		 mov	 esi, ecx
  00026	89 75 f0	 mov	 DWORD PTR _this$[ebp], esi
; File C:\Program Files (x86)\Microsoft Visual Studio\2019\Community\VC\Tools\MSVC\14.29.30133\atlmfc\include\afxcmn.inl

; 141  : 	{ }

  00029	e8 00 00 00 00	 call	 ??0CWnd@@QAE@XZ		; CWnd::CWnd
; File D:\git\src\IBK\IBK_DRFN\ProjSrc\SrcDrfn\Chart\Common_ST\STListCtrl.cpp

; 16   : {

  0002e	8d 8e 80 00 00
	00		 lea	 ecx, DWORD PTR [esi+128]
  00034	c7 45 fc 00 00
	00 00		 mov	 DWORD PTR __$EHRec$[ebp+8], 0
  0003b	c7 06 00 00 00
	00		 mov	 DWORD PTR [esi], OFFSET ??_7CSTListCtrl@@6B@
  00041	ff 15 00 00 00
	00		 call	 DWORD PTR __imp_??0?$CStringT@DV?$StrTraitMFC_DLL@DV?$ChTraitsCRT@D@ATL@@@@@ATL@@QAE@XZ
  00047	8d 8e 84 00 00
	00		 lea	 ecx, DWORD PTR [esi+132]
  0004d	ff 15 00 00 00
	00		 call	 DWORD PTR __imp_??0?$CStringT@DV?$StrTraitMFC_DLL@DV?$ChTraitsCRT@D@ATL@@@@@ATL@@QAE@XZ
; File C:\Program Files (x86)\Microsoft Visual Studio\2019\Community\VC\Tools\MSVC\14.29.30133\atlmfc\include\afxwin1.inl

; 70   : 	{ m_hObject = NULL; }

  00053	c7 86 d0 00 00
	00 00 00 00 00	 mov	 DWORD PTR [esi+208], 0

; 153  : 	{ }

  0005d	c7 86 cc 00 00
	00 00 00 00 00	 mov	 DWORD PTR [esi+204], OFFSET ??_7CFont@@6B@
; File D:\git\src\IBK\IBK_DRFN\ProjSrc\SrcDrfn\Chart\Common_ST\STListCtrl.cpp

; 16   : {

  00067	8d 8e e0 00 00
	00		 lea	 ecx, DWORD PTR [esi+224]
  0006d	ff 15 00 00 00
	00		 call	 DWORD PTR __imp_??0?$CStringT@DV?$StrTraitMFC_DLL@DV?$ChTraitsCRT@D@ATL@@@@@ATL@@QAE@XZ
  00073	8d 8e e4 00 00
	00		 lea	 ecx, DWORD PTR [esi+228]
  00079	c6 45 fc 04	 mov	 BYTE PTR __$EHRec$[ebp+8], 4
  0007d	e8 00 00 00 00	 call	 ??0CDWordArray@@QAE@XZ	; CDWordArray::CDWordArray

; 17   : 	m_pDC = NULL;

  00082	c7 86 d8 00 00
	00 00 00 00 00	 mov	 DWORD PTR [esi+216], 0

; 18   : 	m_pOldFont = NULL;
; 19   : }

  0008c	8b c6		 mov	 eax, esi
  0008e	c7 86 d4 00 00
	00 00 00 00 00	 mov	 DWORD PTR [esi+212], 0
  00098	8b 4d f4	 mov	 ecx, DWORD PTR __$EHRec$[ebp]
  0009b	64 89 0d 00 00
	00 00		 mov	 DWORD PTR fs:0, ecx
  000a2	59		 pop	 ecx
  000a3	5e		 pop	 esi
  000a4	8b e5		 mov	 esp, ebp
  000a6	5d		 pop	 ebp
  000a7	c3		 ret	 0
_TEXT	ENDS
;	COMDAT text$x
text$x	SEGMENT
__unwindfunclet$??0CSTListCtrl@@QAE@XZ$0:
  00000	8b 4d f0	 mov	 ecx, DWORD PTR _this$[ebp]
  00003	e9 00 00 00 00	 jmp	 ??1CListCtrl@@UAE@XZ	; CListCtrl::~CListCtrl
__unwindfunclet$??0CSTListCtrl@@QAE@XZ$1:
  00008	8b 4d f0	 mov	 ecx, DWORD PTR _this$[ebp]
  0000b	81 c1 80 00 00
	00		 add	 ecx, 128		; 00000080H
  00011	ff 25 00 00 00
	00		 jmp	 DWORD PTR __imp_??1?$CStringT@DV?$StrTraitMFC_DLL@DV?$ChTraitsCRT@D@ATL@@@@@ATL@@QAE@XZ
__unwindfunclet$??0CSTListCtrl@@QAE@XZ$2:
  00017	8b 4d f0	 mov	 ecx, DWORD PTR _this$[ebp]
  0001a	81 c1 84 00 00
	00		 add	 ecx, 132		; 00000084H
  00020	ff 25 00 00 00
	00		 jmp	 DWORD PTR __imp_??1?$CStringT@DV?$StrTraitMFC_DLL@DV?$ChTraitsCRT@D@ATL@@@@@ATL@@QAE@XZ
__unwindfunclet$??0CSTListCtrl@@QAE@XZ$3:
  00026	8b 4d f0	 mov	 ecx, DWORD PTR _this$[ebp]
  00029	81 c1 cc 00 00
	00		 add	 ecx, 204		; 000000ccH
  0002f	e9 00 00 00 00	 jmp	 ??1CFont@@UAE@XZ	; CFont::~CFont
__unwindfunclet$??0CSTListCtrl@@QAE@XZ$4:
  00034	8b 4d f0	 mov	 ecx, DWORD PTR _this$[ebp]
  00037	81 c1 e0 00 00
	00		 add	 ecx, 224		; 000000e0H
  0003d	ff 25 00 00 00
	00		 jmp	 DWORD PTR __imp_??1?$CStringT@DV?$StrTraitMFC_DLL@DV?$ChTraitsCRT@D@ATL@@@@@ATL@@QAE@XZ
  00043	cc		 int	 3
  00044	cc		 int	 3
  00045	cc		 int	 3
  00046	cc		 int	 3
  00047	cc		 int	 3
__ehhandler$??0CSTListCtrl@@QAE@XZ:
  00048	90		 npad	 1
  00049	90		 npad	 1
  0004a	8b 54 24 08	 mov	 edx, DWORD PTR [esp+8]
  0004e	8d 42 0c	 lea	 eax, DWORD PTR [edx+12]
  00051	8b 4a f4	 mov	 ecx, DWORD PTR [edx-12]
  00054	33 c8		 xor	 ecx, eax
  00056	e8 00 00 00 00	 call	 @__security_check_cookie@4
  0005b	b8 00 00 00 00	 mov	 eax, OFFSET __ehfuncinfo$??0CSTListCtrl@@QAE@XZ
  00060	e9 00 00 00 00	 jmp	 ___CxxFrameHandler3
text$x	ENDS
??0CSTListCtrl@@QAE@XZ ENDP				; CSTListCtrl::CSTListCtrl
; Function compile flags: /Ogtp
; File D:\git\src\IBK\IBK_DRFN\ProjSrc\SrcDrfn\Chart\Common_ST\STListCtrl.cpp
;	COMDAT ?GetRuntimeClass@CSTListCtrl@@UBEPAUCRuntimeClass@@XZ
_TEXT	SEGMENT
?GetRuntimeClass@CSTListCtrl@@UBEPAUCRuntimeClass@@XZ PROC ; CSTListCtrl::GetRuntimeClass, COMDAT
; _this$ = ecx

; 14   : IMPLEMENT_DYNAMIC(CSTListCtrl, CListCtrl)

  00000	b8 00 00 00 00	 mov	 eax, OFFSET ?classCSTListCtrl@CSTListCtrl@@2UCRuntimeClass@@B ; CSTListCtrl::classCSTListCtrl
  00005	c3		 ret	 0
?GetRuntimeClass@CSTListCtrl@@UBEPAUCRuntimeClass@@XZ ENDP ; CSTListCtrl::GetRuntimeClass
_TEXT	ENDS
; Function compile flags: /Ogtp
; File D:\git\src\IBK\IBK_DRFN\ProjSrc\SrcDrfn\Chart\Common_ST\STListCtrl.cpp
;	COMDAT ?GetThisClass@CSTListCtrl@@SGPAUCRuntimeClass@@XZ
_TEXT	SEGMENT
?GetThisClass@CSTListCtrl@@SGPAUCRuntimeClass@@XZ PROC	; CSTListCtrl::GetThisClass, COMDAT

; 14   : IMPLEMENT_DYNAMIC(CSTListCtrl, CListCtrl)

  00000	b8 00 00 00 00	 mov	 eax, OFFSET ?classCSTListCtrl@CSTListCtrl@@2UCRuntimeClass@@B ; CSTListCtrl::classCSTListCtrl
  00005	c3		 ret	 0
?GetThisClass@CSTListCtrl@@SGPAUCRuntimeClass@@XZ ENDP	; CSTListCtrl::GetThisClass
_TEXT	ENDS
; Function compile flags: /Ogtp
; File D:\git\src\IBK\IBK_DRFN\ProjSrc\SrcDrfn\Chart\Common_ST\STListCtrl.cpp
;	COMDAT ?_GetBaseClass@CSTListCtrl@@KGPAUCRuntimeClass@@XZ
_TEXT	SEGMENT
?_GetBaseClass@CSTListCtrl@@KGPAUCRuntimeClass@@XZ PROC	; CSTListCtrl::_GetBaseClass, COMDAT

; 14   : IMPLEMENT_DYNAMIC(CSTListCtrl, CListCtrl)

  00000	e9 00 00 00 00	 jmp	 ?GetThisClass@CListCtrl@@SGPAUCRuntimeClass@@XZ ; CListCtrl::GetThisClass
?_GetBaseClass@CSTListCtrl@@KGPAUCRuntimeClass@@XZ ENDP	; CSTListCtrl::_GetBaseClass
_TEXT	ENDS
; Function compile flags: /Ogtp
; File D:\git\src\IBK\IBK_DRFN\ProjSrc\SrcDrfn\inc\IBaseDefine.h
;	COMDAT ??__ERMSG_INTERFACE@@YAXXZ
text$di	SEGMENT
??__ERMSG_INTERFACE@@YAXXZ PROC				; `dynamic initializer for 'RMSG_INTERFACE'', COMDAT

; 170  : const UINT RMSG_INTERFACE = ::RegisterWindowMessage("RMSG_INTERFACE");

  00000	68 00 00 00 00	 push	 OFFSET ??_C@_0P@BKKCOCLK@RMSG_INTERFACE@
  00005	ff 15 00 00 00
	00		 call	 DWORD PTR __imp__RegisterWindowMessageA@4
  0000b	a3 00 00 00 00	 mov	 DWORD PTR ?RMSG_INTERFACE@@3IB, eax
  00010	c3		 ret	 0
??__ERMSG_INTERFACE@@YAXXZ ENDP				; `dynamic initializer for 'RMSG_INTERFACE''
text$di	ENDS
; Function compile flags: /Ogtp
; File C:\Program Files (x86)\Microsoft Visual Studio\2019\Community\VC\Tools\MSVC\14.29.30133\atlmfc\include\afx.inl
;	COMDAT ??_GCListCtrl@@UAEPAXI@Z
_TEXT	SEGMENT
___flags$ = 8						; size = 4
??_GCListCtrl@@UAEPAXI@Z PROC				; CListCtrl::`scalar deleting destructor', COMDAT
; _this$ = ecx
  00000	55		 push	 ebp
  00001	8b ec		 mov	 ebp, esp
  00003	56		 push	 esi
  00004	8b f1		 mov	 esi, ecx
  00006	e8 00 00 00 00	 call	 ??1CListCtrl@@UAE@XZ	; CListCtrl::~CListCtrl
  0000b	8b 45 08	 mov	 eax, DWORD PTR ___flags$[ebp]
  0000e	a8 01		 test	 al, 1
  00010	74 22		 je	 SHORT $LN9@scalar
  00012	a8 04		 test	 al, 4
  00014	75 10		 jne	 SHORT $LN3@scalar

; 112  : 	{ ::operator delete(p); }

  00016	56		 push	 esi
  00017	e8 00 00 00 00	 call	 ??3@YAXPAX@Z		; operator delete
  0001c	83 c4 04	 add	 esp, 4
  0001f	8b c6		 mov	 eax, esi
  00021	5e		 pop	 esi
  00022	5d		 pop	 ebp
  00023	c2 04 00	 ret	 4
$LN3@scalar:
  00026	68 80 00 00 00	 push	 128			; 00000080H
  0002b	56		 push	 esi
  0002c	e8 00 00 00 00	 call	 ?__global_delete@@YAXPAXI@Z ; __global_delete
  00031	83 c4 08	 add	 esp, 8
$LN9@scalar:
  00034	8b c6		 mov	 eax, esi
  00036	5e		 pop	 esi
  00037	5d		 pop	 ebp
  00038	c2 04 00	 ret	 4
??_GCListCtrl@@UAEPAXI@Z ENDP				; CListCtrl::`scalar deleting destructor'
_TEXT	ENDS
; Function compile flags: /Ogtp
; File C:\Program Files (x86)\Microsoft Visual Studio\2019\Community\VC\Tools\MSVC\14.29.30133\atlmfc\include\afxwin2.inl
;	COMDAT ?EndModalState@CWnd@@UAEXXZ
_TEXT	SEGMENT
?EndModalState@CWnd@@UAEXXZ PROC			; CWnd::EndModalState, COMDAT
; _this$ = ecx

; 567  : 	{ ::EnableWindow(m_hWnd, TRUE); }

  00000	6a 01		 push	 1
  00002	ff 71 20	 push	 DWORD PTR [ecx+32]
  00005	ff 15 00 00 00
	00		 call	 DWORD PTR __imp__EnableWindow@8
  0000b	c3		 ret	 0
?EndModalState@CWnd@@UAEXXZ ENDP			; CWnd::EndModalState
_TEXT	ENDS
; Function compile flags: /Ogtp
; File C:\Program Files (x86)\Microsoft Visual Studio\2019\Community\VC\Tools\MSVC\14.29.30133\atlmfc\include\afxwin2.inl
;	COMDAT ?BeginModalState@CWnd@@UAEXXZ
_TEXT	SEGMENT
?BeginModalState@CWnd@@UAEXXZ PROC			; CWnd::BeginModalState, COMDAT
; _this$ = ecx

; 565  : 	{ ::EnableWindow(m_hWnd, FALSE); }

  00000	6a 00		 push	 0
  00002	ff 71 20	 push	 DWORD PTR [ecx+32]
  00005	ff 15 00 00 00
	00		 call	 DWORD PTR __imp__EnableWindow@8
  0000b	c3		 ret	 0
?BeginModalState@CWnd@@UAEXXZ ENDP			; CWnd::BeginModalState
_TEXT	ENDS
; Function compile flags: /Ogtp
; File C:\Program Files (x86)\Microsoft Visual Studio\2019\Community\VC\Tools\MSVC\14.29.30133\atlmfc\include\afxwin2.inl
;	COMDAT ?DoDataExchange@CWnd@@MAEXPAVCDataExchange@@@Z
_TEXT	SEGMENT
___formal$ = 8						; size = 4
?DoDataExchange@CWnd@@MAEXPAVCDataExchange@@@Z PROC	; CWnd::DoDataExchange, COMDAT
; _this$ = ecx

; 561  : 	{ } // default does nothing

  00000	c2 04 00	 ret	 4
?DoDataExchange@CWnd@@MAEXPAVCDataExchange@@@Z ENDP	; CWnd::DoDataExchange
_TEXT	ENDS
; Function compile flags: /Ogtp
; File C:\Program Files (x86)\Microsoft Visual Studio\2019\Community\VC\Tools\MSVC\14.29.30133\atlmfc\include\afxwin2.inl
;	COMDAT ?GetOwner@CWnd@@QBEPAV1@XZ
_TEXT	SEGMENT
?GetOwner@CWnd@@QBEPAV1@XZ PROC				; CWnd::GetOwner, COMDAT
; _this$ = ecx

; 27   : 	{ return m_hWndOwner != NULL ? CWnd::FromHandle(m_hWndOwner) : GetParent(); }

  00000	8b 41 5c	 mov	 eax, DWORD PTR [ecx+92]
  00003	85 c0		 test	 eax, eax
  00005	75 09		 jne	 SHORT $LN4@GetOwner

; 213  : 	{ ASSERT(::IsWindow(m_hWnd)); return CWnd::FromHandle(::GetParent(m_hWnd)); }

  00007	ff 71 20	 push	 DWORD PTR [ecx+32]
  0000a	ff 15 00 00 00
	00		 call	 DWORD PTR __imp__GetParent@4
$LN4@GetOwner:

; 27   : 	{ return m_hWndOwner != NULL ? CWnd::FromHandle(m_hWndOwner) : GetParent(); }

  00010	50		 push	 eax
  00011	e8 00 00 00 00	 call	 ?FromHandle@CWnd@@SGPAV1@PAUHWND__@@@Z ; CWnd::FromHandle
  00016	c3		 ret	 0
?GetOwner@CWnd@@QBEPAV1@XZ ENDP				; CWnd::GetOwner
_TEXT	ENDS
; Function compile flags: /Ogtp
; File C:\Program Files (x86)\Microsoft Visual Studio\2019\Community\VC\Tools\MSVC\14.29.30133\atlmfc\include\afxwin1.inl
; File C:\Program Files (x86)\Microsoft Visual Studio\2019\Community\VC\Tools\MSVC\14.29.30133\atlmfc\include\afx.inl
;	COMDAT ??_GCMenu@@UAEPAXI@Z
_TEXT	SEGMENT
__$EHRec$ = -12						; size = 12
___flags$ = 8						; size = 4
??_GCMenu@@UAEPAXI@Z PROC				; CMenu::`scalar deleting destructor', COMDAT
; _this$ = ecx
  00000	55		 push	 ebp
  00001	8b ec		 mov	 ebp, esp
  00003	6a ff		 push	 -1
  00005	68 00 00 00 00	 push	 __ehhandler$??_GCMenu@@UAEPAXI@Z
  0000a	64 a1 00 00 00
	00		 mov	 eax, DWORD PTR fs:0
  00010	50		 push	 eax
  00011	56		 push	 esi
  00012	a1 00 00 00 00	 mov	 eax, DWORD PTR ___security_cookie
  00017	33 c5		 xor	 eax, ebp
  00019	50		 push	 eax
  0001a	8d 45 f4	 lea	 eax, DWORD PTR __$EHRec$[ebp]
  0001d	64 a3 00 00 00
	00		 mov	 DWORD PTR fs:0, eax
  00023	8b f1		 mov	 esi, ecx
; File C:\Program Files (x86)\Microsoft Visual Studio\2019\Community\VC\Tools\MSVC\14.29.30133\atlmfc\include\afxwin1.inl

; 905  : 	{ DestroyMenu(); }

  00025	c7 45 fc 00 00
	00 00		 mov	 DWORD PTR __$EHRec$[ebp+8], 0
  0002c	c7 06 00 00 00
	00		 mov	 DWORD PTR [esi], OFFSET ??_7CMenu@@6B@
  00032	e8 00 00 00 00	 call	 ?DestroyMenu@CMenu@@QAEHXZ ; CMenu::DestroyMenu
  00037	8b 45 08	 mov	 eax, DWORD PTR ___flags$[ebp]
  0003a	a8 01		 test	 al, 1
  0003c	74 2c		 je	 SHORT $LN12@scalar
  0003e	a8 04		 test	 al, 4
  00040	75 1d		 jne	 SHORT $LN3@scalar
; File C:\Program Files (x86)\Microsoft Visual Studio\2019\Community\VC\Tools\MSVC\14.29.30133\atlmfc\include\afx.inl

; 112  : 	{ ::operator delete(p); }

  00042	56		 push	 esi
  00043	e8 00 00 00 00	 call	 ??3@YAXPAX@Z		; operator delete
  00048	83 c4 04	 add	 esp, 4
  0004b	8b c6		 mov	 eax, esi
  0004d	8b 4d f4	 mov	 ecx, DWORD PTR __$EHRec$[ebp]
  00050	64 89 0d 00 00
	00 00		 mov	 DWORD PTR fs:0, ecx
  00057	59		 pop	 ecx
  00058	5e		 pop	 esi
  00059	8b e5		 mov	 esp, ebp
  0005b	5d		 pop	 ebp
  0005c	c2 04 00	 ret	 4
$LN3@scalar:
  0005f	6a 08		 push	 8
  00061	56		 push	 esi
  00062	e8 00 00 00 00	 call	 ?__global_delete@@YAXPAXI@Z ; __global_delete
  00067	83 c4 08	 add	 esp, 8
$LN12@scalar:
  0006a	8b c6		 mov	 eax, esi
  0006c	8b 4d f4	 mov	 ecx, DWORD PTR __$EHRec$[ebp]
  0006f	64 89 0d 00 00
	00 00		 mov	 DWORD PTR fs:0, ecx
  00076	59		 pop	 ecx
  00077	5e		 pop	 esi
  00078	8b e5		 mov	 esp, ebp
  0007a	5d		 pop	 ebp
  0007b	c2 04 00	 ret	 4
  0007e	cc		 int	 3
  0007f	cc		 int	 3
  00080	cc		 int	 3
  00081	cc		 int	 3
  00082	cc		 int	 3
_TEXT	ENDS
;	COMDAT text$x
text$x	SEGMENT
__ehhandler$??_GCMenu@@UAEPAXI@Z:
  00000	90		 npad	 1
  00001	90		 npad	 1
  00002	8b 54 24 08	 mov	 edx, DWORD PTR [esp+8]
  00006	8d 42 0c	 lea	 eax, DWORD PTR [edx+12]
  00009	8b 4a f8	 mov	 ecx, DWORD PTR [edx-8]
  0000c	33 c8		 xor	 ecx, eax
  0000e	e8 00 00 00 00	 call	 @__security_check_cookie@4
  00013	b8 00 00 00 00	 mov	 eax, OFFSET __ehfuncinfo$??_GCMenu@@UAEPAXI@Z
  00018	e9 00 00 00 00	 jmp	 ___CxxFrameHandler3
text$x	ENDS
??_GCMenu@@UAEPAXI@Z ENDP				; CMenu::`scalar deleting destructor'
; Function compile flags: /Ogtp
; File C:\Program Files (x86)\Microsoft Visual Studio\2019\Community\VC\Tools\MSVC\14.29.30133\atlmfc\include\afxwin1.inl
;	COMDAT ??1CMenu@@UAE@XZ
_TEXT	SEGMENT
__$EHRec$ = -12						; size = 12
??1CMenu@@UAE@XZ PROC					; CMenu::~CMenu, COMDAT
; _this$ = ecx

; 905  : 	{ DestroyMenu(); }

  00000	55		 push	 ebp
  00001	8b ec		 mov	 ebp, esp
  00003	6a ff		 push	 -1
  00005	68 00 00 00 00	 push	 __ehhandler$??1CMenu@@UAE@XZ
  0000a	64 a1 00 00 00
	00		 mov	 eax, DWORD PTR fs:0
  00010	50		 push	 eax
  00011	a1 00 00 00 00	 mov	 eax, DWORD PTR ___security_cookie
  00016	33 c5		 xor	 eax, ebp
  00018	50		 push	 eax
  00019	8d 45 f4	 lea	 eax, DWORD PTR __$EHRec$[ebp]
  0001c	64 a3 00 00 00
	00		 mov	 DWORD PTR fs:0, eax
  00022	c7 01 00 00 00
	00		 mov	 DWORD PTR [ecx], OFFSET ??_7CMenu@@6B@
  00028	e8 00 00 00 00	 call	 ?DestroyMenu@CMenu@@QAEHXZ ; CMenu::DestroyMenu
  0002d	8b 4d f4	 mov	 ecx, DWORD PTR __$EHRec$[ebp]
  00030	64 89 0d 00 00
	00 00		 mov	 DWORD PTR fs:0, ecx
  00037	59		 pop	 ecx
  00038	8b e5		 mov	 esp, ebp
  0003a	5d		 pop	 ebp
  0003b	c3		 ret	 0
  0003c	cc		 int	 3
  0003d	cc		 int	 3
  0003e	cc		 int	 3
  0003f	cc		 int	 3
  00040	cc		 int	 3
_TEXT	ENDS
;	COMDAT text$x
text$x	SEGMENT
__ehhandler$??1CMenu@@UAE@XZ:
  00000	90		 npad	 1
  00001	90		 npad	 1
  00002	8b 54 24 08	 mov	 edx, DWORD PTR [esp+8]
  00006	8d 42 0c	 lea	 eax, DWORD PTR [edx+12]
  00009	8b 4a fc	 mov	 ecx, DWORD PTR [edx-4]
  0000c	33 c8		 xor	 ecx, eax
  0000e	e8 00 00 00 00	 call	 @__security_check_cookie@4
  00013	b8 00 00 00 00	 mov	 eax, OFFSET __ehfuncinfo$??1CMenu@@UAE@XZ
  00018	e9 00 00 00 00	 jmp	 ___CxxFrameHandler3
text$x	ENDS
??1CMenu@@UAE@XZ ENDP					; CMenu::~CMenu
; Function compile flags: /Ogtp
; File C:\Program Files (x86)\Microsoft Visual Studio\2019\Community\VC\Tools\MSVC\14.29.30133\atlmfc\include\afxwin1.inl
; File C:\Program Files (x86)\Microsoft Visual Studio\2019\Community\VC\Tools\MSVC\14.29.30133\atlmfc\include\afx.inl
;	COMDAT ??_GCFont@@UAEPAXI@Z
_TEXT	SEGMENT
___flags$ = 8						; size = 4
??_GCFont@@UAEPAXI@Z PROC				; CFont::`scalar deleting destructor', COMDAT
; _this$ = ecx
  00000	55		 push	 ebp
  00001	8b ec		 mov	 ebp, esp
; File C:\Program Files (x86)\Microsoft Visual Studio\2019\Community\VC\Tools\MSVC\14.29.30133\atlmfc\include\afxwin1.inl

; 155  : 	{ }

  00003	56		 push	 esi
  00004	8b f1		 mov	 esi, ecx
  00006	c7 06 00 00 00
	00		 mov	 DWORD PTR [esi], OFFSET ??_7CFont@@6B@
  0000c	e8 00 00 00 00	 call	 ??1CGdiObject@@UAE@XZ	; CGdiObject::~CGdiObject
  00011	8b 45 08	 mov	 eax, DWORD PTR ___flags$[ebp]
  00014	a8 01		 test	 al, 1
  00016	74 1f		 je	 SHORT $LN12@scalar
  00018	a8 04		 test	 al, 4
  0001a	75 10		 jne	 SHORT $LN3@scalar
; File C:\Program Files (x86)\Microsoft Visual Studio\2019\Community\VC\Tools\MSVC\14.29.30133\atlmfc\include\afx.inl

; 112  : 	{ ::operator delete(p); }

  0001c	56		 push	 esi
  0001d	e8 00 00 00 00	 call	 ??3@YAXPAX@Z		; operator delete
  00022	83 c4 04	 add	 esp, 4
  00025	8b c6		 mov	 eax, esi
  00027	5e		 pop	 esi
  00028	5d		 pop	 ebp
  00029	c2 04 00	 ret	 4
$LN3@scalar:
  0002c	6a 08		 push	 8
  0002e	56		 push	 esi
  0002f	e8 00 00 00 00	 call	 ?__global_delete@@YAXPAXI@Z ; __global_delete
  00034	83 c4 08	 add	 esp, 8
$LN12@scalar:
  00037	8b c6		 mov	 eax, esi
  00039	5e		 pop	 esi
  0003a	5d		 pop	 ebp
  0003b	c2 04 00	 ret	 4
??_GCFont@@UAEPAXI@Z ENDP				; CFont::`scalar deleting destructor'
_TEXT	ENDS
; Function compile flags: /Ogtp
; File C:\Program Files (x86)\Microsoft Visual Studio\2019\Community\VC\Tools\MSVC\14.29.30133\atlmfc\include\afxwin1.inl
;	COMDAT ??1CFont@@UAE@XZ
_TEXT	SEGMENT
??1CFont@@UAE@XZ PROC					; CFont::~CFont, COMDAT
; _this$ = ecx

; 155  : 	{ }

  00000	c7 01 00 00 00
	00		 mov	 DWORD PTR [ecx], OFFSET ??_7CFont@@6B@
  00006	e9 00 00 00 00	 jmp	 ??1CGdiObject@@UAE@XZ	; CGdiObject::~CGdiObject
??1CFont@@UAE@XZ ENDP					; CFont::~CFont
_TEXT	ENDS
; Function compile flags: /Ogtp
; File C:\Program Files (x86)\Microsoft Visual Studio\2019\Community\VC\Tools\MSVC\14.29.30133\atlmfc\include\afx.inl
;	COMDAT ??_GCGdiObject@@UAEPAXI@Z
_TEXT	SEGMENT
___flags$ = 8						; size = 4
??_GCGdiObject@@UAEPAXI@Z PROC				; CGdiObject::`scalar deleting destructor', COMDAT
; _this$ = ecx
  00000	55		 push	 ebp
  00001	8b ec		 mov	 ebp, esp
  00003	56		 push	 esi
  00004	8b f1		 mov	 esi, ecx
  00006	e8 00 00 00 00	 call	 ??1CGdiObject@@UAE@XZ	; CGdiObject::~CGdiObject
  0000b	8b 45 08	 mov	 eax, DWORD PTR ___flags$[ebp]
  0000e	a8 01		 test	 al, 1
  00010	74 1f		 je	 SHORT $LN9@scalar
  00012	a8 04		 test	 al, 4
  00014	75 10		 jne	 SHORT $LN3@scalar

; 112  : 	{ ::operator delete(p); }

  00016	56		 push	 esi
  00017	e8 00 00 00 00	 call	 ??3@YAXPAX@Z		; operator delete
  0001c	83 c4 04	 add	 esp, 4
  0001f	8b c6		 mov	 eax, esi
  00021	5e		 pop	 esi
  00022	5d		 pop	 ebp
  00023	c2 04 00	 ret	 4
$LN3@scalar:
  00026	6a 08		 push	 8
  00028	56		 push	 esi
  00029	e8 00 00 00 00	 call	 ?__global_delete@@YAXPAXI@Z ; __global_delete
  0002e	83 c4 08	 add	 esp, 8
$LN9@scalar:
  00031	8b c6		 mov	 eax, esi
  00033	5e		 pop	 esi
  00034	5d		 pop	 ebp
  00035	c2 04 00	 ret	 4
??_GCGdiObject@@UAEPAXI@Z ENDP				; CGdiObject::`scalar deleting destructor'
_TEXT	ENDS
; Function compile flags: /Ogtp
; File C:\Program Files (x86)\Microsoft Visual Studio\2019\Community\VC\Tools\MSVC\14.29.30133\atlmfc\include\afxwin1.inl
;	COMDAT ??1CGdiObject@@UAE@XZ
_TEXT	SEGMENT
_pException$2 = -540					; size = 4
_strMsg$3 = -536					; size = 4
_szErrorMessage$4 = -532				; size = 512
__$ArrayPad$ = -20					; size = 4
__$EHRec$ = -16						; size = 16
??1CGdiObject@@UAE@XZ PROC				; CGdiObject::~CGdiObject, COMDAT
; _this$ = ecx

; 74   : {

  00000	55		 push	 ebp
  00001	8b ec		 mov	 ebp, esp
  00003	6a ff		 push	 -1
  00005	68 00 00 00 00	 push	 __ehhandler$??1CGdiObject@@UAE@XZ
  0000a	64 a1 00 00 00
	00		 mov	 eax, DWORD PTR fs:0
  00010	50		 push	 eax
  00011	81 ec 10 02 00
	00		 sub	 esp, 528		; 00000210H
  00017	a1 00 00 00 00	 mov	 eax, DWORD PTR ___security_cookie
  0001c	33 c5		 xor	 eax, ebp
  0001e	89 45 ec	 mov	 DWORD PTR __$ArrayPad$[ebp], eax
  00021	53		 push	 ebx
  00022	56		 push	 esi
  00023	57		 push	 edi
  00024	50		 push	 eax
  00025	8d 45 f4	 lea	 eax, DWORD PTR __$EHRec$[ebp+4]
  00028	64 a3 00 00 00
	00		 mov	 DWORD PTR fs:0, eax
  0002e	89 65 f0	 mov	 DWORD PTR __$EHRec$[ebp], esp
  00031	c7 01 00 00 00
	00		 mov	 DWORD PTR [ecx], OFFSET ??_7CGdiObject@@6B@

; 75   : 	AFX_BEGIN_DESTRUCTOR

  00037	c7 45 fc 00 00
	00 00		 mov	 DWORD PTR __$EHRec$[ebp+12], 0

; 76   : 	DeleteObject();

  0003e	e8 00 00 00 00	 call	 ?DeleteObject@CGdiObject@@QAEHXZ ; CGdiObject::DeleteObject
$LN18@CGdiObject:

; 78   : }

  00043	8b 4d f4	 mov	 ecx, DWORD PTR __$EHRec$[ebp+4]
  00046	64 89 0d 00 00
	00 00		 mov	 DWORD PTR fs:0, ecx
  0004d	59		 pop	 ecx
  0004e	5f		 pop	 edi
  0004f	5e		 pop	 esi
  00050	5b		 pop	 ebx
  00051	8b 4d ec	 mov	 ecx, DWORD PTR __$ArrayPad$[ebp]
  00054	33 cd		 xor	 ecx, ebp
  00056	e8 00 00 00 00	 call	 @__security_check_cookie@4
  0005b	8b e5		 mov	 esp, ebp
  0005d	5d		 pop	 ebp
  0005e	c3		 ret	 0
__catch$??1CGdiObject@@UAE@XZ$0:

; 77   : 	AFX_END_DESTRUCTOR

  0005f	8d 8d e8 fd ff
	ff		 lea	 ecx, DWORD PTR _strMsg$3[ebp]
  00065	ff 15 00 00 00
	00		 call	 DWORD PTR __imp_??0?$CStringT@DV?$StrTraitMFC_DLL@DV?$ChTraitsCRT@D@ATL@@@@@ATL@@QAE@XZ
  0006b	8b b5 e4 fd ff
	ff		 mov	 esi, DWORD PTR _pException$2[ebp]
  00071	8d 8d ec fd ff
	ff		 lea	 ecx, DWORD PTR _szErrorMessage$4[ebp]
  00077	6a 00		 push	 0
  00079	68 00 02 00 00	 push	 512			; 00000200H
  0007e	51		 push	 ecx
  0007f	8b 06		 mov	 eax, DWORD PTR [esi]
  00081	8b ce		 mov	 ecx, esi
  00083	c6 45 fc 02	 mov	 BYTE PTR __$EHRec$[ebp+12], 2
  00087	ff 50 14	 call	 DWORD PTR [eax+20]
  0008a	85 c0		 test	 eax, eax
  0008c	74 2a		 je	 SHORT $LN9@CGdiObject
  0008e	8d 85 ec fd ff
	ff		 lea	 eax, DWORD PTR _szErrorMessage$4[ebp]
  00094	50		 push	 eax
  00095	6a 4d		 push	 77			; 0000004dH
  00097	68 00 00 00 00	 push	 OFFSET ??_C@_0HD@JJCHHHNK@C?3?2Program?5Files?5?$CIx86?$CJ?2Microsof@
  0009c	68 00 00 00 00	 push	 OFFSET ??_C@_0BP@OIEOKIDM@Exception?5thrown?5in?5destructor@
  000a1	8d 85 e8 fd ff
	ff		 lea	 eax, DWORD PTR _strMsg$3[ebp]
  000a7	68 00 00 00 00	 push	 OFFSET ??_C@_0BB@HBOOMJBF@?$CFTs?5?$CI?$CFTs?3?$CFd?$CJ?6?$CFTs@
  000ac	50		 push	 eax
  000ad	ff 15 00 00 00
	00		 call	 DWORD PTR __imp_?Format@?$CStringT@DV?$StrTraitMFC_DLL@DV?$ChTraitsCRT@D@ATL@@@@@ATL@@QAAXPBDZZ
  000b3	83 c4 18	 add	 esp, 24			; 00000018H
  000b6	eb 21		 jmp	 SHORT $LN10@CGdiObject
$LN9@CGdiObject:
  000b8	6a 4d		 push	 77			; 0000004dH
  000ba	68 00 00 00 00	 push	 OFFSET ??_C@_0HD@JJCHHHNK@C?3?2Program?5Files?5?$CIx86?$CJ?2Microsof@
  000bf	68 00 00 00 00	 push	 OFFSET ??_C@_0BP@OIEOKIDM@Exception?5thrown?5in?5destructor@
  000c4	8d 85 e8 fd ff
	ff		 lea	 eax, DWORD PTR _strMsg$3[ebp]
  000ca	68 00 00 00 00	 push	 OFFSET ??_C@_0N@OMEMOKLE@?$CFTs?5?$CI?$CFTs?3?$CFd?$CJ@
  000cf	50		 push	 eax
  000d0	ff 15 00 00 00
	00		 call	 DWORD PTR __imp_?Format@?$CStringT@DV?$StrTraitMFC_DLL@DV?$ChTraitsCRT@D@ATL@@@@@ATL@@QAAXPBDZZ
  000d6	83 c4 14	 add	 esp, 20			; 00000014H
$LN10@CGdiObject:
  000d9	6a 00		 push	 0
  000db	6a 00		 push	 0
  000dd	ff b5 e8 fd ff
	ff		 push	 DWORD PTR _strMsg$3[ebp]
  000e3	e8 00 00 00 00	 call	 ?AfxMessageBox@@YGHPBDII@Z ; AfxMessageBox
  000e8	8d 8d e8 fd ff
	ff		 lea	 ecx, DWORD PTR _strMsg$3[ebp]
  000ee	ff 15 00 00 00
	00		 call	 DWORD PTR __imp_??1?$CStringT@DV?$StrTraitMFC_DLL@DV?$ChTraitsCRT@D@ATL@@@@@ATL@@QAE@XZ
  000f4	8b 06		 mov	 eax, DWORD PTR [esi]
  000f6	8b ce		 mov	 ecx, esi
  000f8	6a 01		 push	 1
  000fa	ff 50 04	 call	 DWORD PTR [eax+4]
  000fd	b8 00 00 00 00	 mov	 eax, $LN18@CGdiObject
  00102	c3		 ret	 0
_TEXT	ENDS
;	COMDAT text$x
text$x	SEGMENT
__unwindfunclet$??1CGdiObject@@UAE@XZ$2:
  00000	8d 8d e8 fd ff
	ff		 lea	 ecx, DWORD PTR _strMsg$3[ebp]
  00006	ff 25 00 00 00
	00		 jmp	 DWORD PTR __imp_??1?$CStringT@DV?$StrTraitMFC_DLL@DV?$ChTraitsCRT@D@ATL@@@@@ATL@@QAE@XZ
  0000c	cc		 int	 3
  0000d	cc		 int	 3
  0000e	cc		 int	 3
  0000f	cc		 int	 3
  00010	cc		 int	 3
__ehhandler$??1CGdiObject@@UAE@XZ:
  00011	90		 npad	 1
  00012	90		 npad	 1
  00013	8b 54 24 08	 mov	 edx, DWORD PTR [esp+8]
  00017	8d 42 0c	 lea	 eax, DWORD PTR [edx+12]
  0001a	8b 8a e0 fd ff
	ff		 mov	 ecx, DWORD PTR [edx-544]
  00020	33 c8		 xor	 ecx, eax
  00022	e8 00 00 00 00	 call	 @__security_check_cookie@4
  00027	8b 4a f8	 mov	 ecx, DWORD PTR [edx-8]
  0002a	33 c8		 xor	 ecx, eax
  0002c	e8 00 00 00 00	 call	 @__security_check_cookie@4
  00031	b8 00 00 00 00	 mov	 eax, OFFSET __ehfuncinfo$??1CGdiObject@@UAE@XZ
  00036	e9 00 00 00 00	 jmp	 ___CxxFrameHandler3
text$x	ENDS
??1CGdiObject@@UAE@XZ ENDP				; CGdiObject::~CGdiObject
; Function compile flags: /Ogtp
; File C:\Program Files (x86)\Microsoft Visual Studio\2019\Community\VC\Tools\MSVC\14.29.30133\atlmfc\include\afx.inl
;	COMDAT ?Dump@CObject@@UBEXAAVCDumpContext@@@Z
_TEXT	SEGMENT
___formal$ = 8						; size = 4
?Dump@CObject@@UBEXAAVCDumpContext@@@Z PROC		; CObject::Dump, COMDAT
; _this$ = ecx

; 122  : 	{ /* no dumping in release builds */ }

  00000	c2 04 00	 ret	 4
?Dump@CObject@@UBEXAAVCDumpContext@@@Z ENDP		; CObject::Dump
_TEXT	ENDS
; Function compile flags: /Ogtp
; File C:\Program Files (x86)\Microsoft Visual Studio\2019\Community\VC\Tools\MSVC\14.29.30133\atlmfc\include\afx.inl
;	COMDAT ?AssertValid@CObject@@UBEXXZ
_TEXT	SEGMENT
?AssertValid@CObject@@UBEXXZ PROC			; CObject::AssertValid, COMDAT
; _this$ = ecx

; 120  : 	{ /* no asserts in release builds */ }

  00000	c2 00 00	 ret	 0
?AssertValid@CObject@@UBEXXZ ENDP			; CObject::AssertValid
_TEXT	ENDS
; Function compile flags: /Ogtp
; File C:\Program Files (x86)\Microsoft Visual Studio\2019\Community\VC\Tools\MSVC\14.29.30133\atlmfc\include\afx.inl
;	COMDAT ?Serialize@CObject@@UAEXAAVCArchive@@@Z
_TEXT	SEGMENT
___formal$ = 8						; size = 4
?Serialize@CObject@@UAEXAAVCArchive@@@Z PROC		; CObject::Serialize, COMDAT
; _this$ = ecx

; 106  : 	{ /* CObject does not serialize anything by default */ }

  00000	c2 04 00	 ret	 4
?Serialize@CObject@@UAEXAAVCArchive@@@Z ENDP		; CObject::Serialize
_TEXT	ENDS
; Function compile flags: /Ogtp
; File C:\Program Files (x86)\Microsoft Visual Studio\2019\Community\VC\Tools\MSVC\14.29.30133\atlmfc\include\afx.inl
;	COMDAT ??1CObject@@UAE@XZ
_TEXT	SEGMENT
??1CObject@@UAE@XZ PROC					; CObject::~CObject, COMDAT
; _this$ = ecx

; 104  : 	{ }

  00000	c2 00 00	 ret	 0
??1CObject@@UAE@XZ ENDP					; CObject::~CObject
_TEXT	ENDS
; Function compile flags: /Ogtp
; File C:\Program Files (x86)\Windows Kits\10\Include\10.0.22000.0\ucrt\stdio.h
;	COMDAT _sscanf
_TEXT	SEGMENT
__Buffer$ = 8						; size = 4
__Format$ = 12						; size = 4
_sscanf	PROC						; COMDAT

; 2247 :     {

  00000	55		 push	 ebp
  00001	8b ec		 mov	 ebp, esp

; 2153 :         return __stdio_common_vsscanf(

  00003	8d 45 10	 lea	 eax, DWORD PTR __Format$[ebp+4]
  00006	50		 push	 eax
  00007	6a 00		 push	 0
  00009	ff 75 0c	 push	 DWORD PTR __Format$[ebp]
  0000c	6a ff		 push	 -1
  0000e	ff 75 08	 push	 DWORD PTR __Buffer$[ebp]
  00011	e8 00 00 00 00	 call	 ___local_stdio_scanf_options
  00016	ff 70 04	 push	 DWORD PTR [eax+4]
  00019	ff 30		 push	 DWORD PTR [eax]
  0001b	ff 15 00 00 00
	00		 call	 DWORD PTR __imp____stdio_common_vsscanf
  00021	83 c4 1c	 add	 esp, 28			; 0000001cH

; 2248 :         int _Result;
; 2249 :         va_list _ArgList;
; 2250 :         __crt_va_start(_ArgList, _Format);
; 2251 :         _Result = _vsscanf_l(_Buffer, _Format, NULL, _ArgList);
; 2252 :         __crt_va_end(_ArgList);
; 2253 :         return _Result;
; 2254 :     }

  00024	5d		 pop	 ebp
  00025	c3		 ret	 0
_sscanf	ENDP
_TEXT	ENDS
; Function compile flags: /Ogtp
; File C:\Program Files (x86)\Windows Kits\10\Include\10.0.22000.0\ucrt\corecrt_stdio_config.h
;	COMDAT ___local_stdio_scanf_options
_TEXT	SEGMENT
___local_stdio_scanf_options PROC			; COMDAT

; 101  :         static unsigned __int64 _OptionsStorage;
; 102  :         return &_OptionsStorage;

  00000	b8 00 00 00 00	 mov	 eax, OFFSET ?_OptionsStorage@?1??__local_stdio_scanf_options@@9@4_KA ; `__local_stdio_scanf_options'::`2'::_OptionsStorage

; 103  :     }

  00005	c3		 ret	 0
___local_stdio_scanf_options ENDP
_TEXT	ENDS
; Function compile flags: /Ogtp
; File D:\git\src\IBK\IBK_DRFN\ProjSrc\SrcDrfn\Chart\Common_ST\STListCtrl.cpp
;	COMDAT ?__empty_global_delete@@YAXPAXI@Z
_TEXT	SEGMENT
___formal$ = 8						; size = 4
___formal$ = 12						; size = 4
?__empty_global_delete@@YAXPAXI@Z PROC			; __empty_global_delete, COMDAT

  00000	c2 00 00	 ret	 0
?__empty_global_delete@@YAXPAXI@Z ENDP			; __empty_global_delete
_TEXT	ENDS
; Function compile flags: /Ogtp
; File D:\git\src\IBK\IBK_DRFN\ProjSrc\SrcDrfn\Chart\Common_ST\STListCtrl.cpp
;	COMDAT ?__empty_global_delete@@YAXPAX@Z
_TEXT	SEGMENT
___formal$ = 8						; size = 4
?__empty_global_delete@@YAXPAX@Z PROC			; __empty_global_delete, COMDAT

  00000	c2 00 00	 ret	 0
?__empty_global_delete@@YAXPAX@Z ENDP			; __empty_global_delete
_TEXT	ENDS
END
