; Listing generated by Microsoft (R) Optimizing Compiler Version 19.29.30145.0 

	TITLE	D:\git\src\IBK\IBK_DRFN\#DRfn-CS\_Obj\ChartFormulate\FindCalculatedPacket.obj
	.686P
	.XMM
	include listing.inc
	.model	flat

INCLUDELIB MSVCRT
INCLUDELIB OLDNAMES

PUBLIC	?__empty_global_delete@@YAXPAX@Z		; __empty_global_delete
PUBLIC	?__empty_global_delete@@YAXPAXI@Z		; __empty_global_delete
PUBLIC	?IsSubGraphIntoPacketList@CFindCalculatedPacket@@SA_NABVCChartFormulateData@@AAVCCalculateData@@@Z ; CFindCalculatedPacket::IsSubGraphIntoPacketList
PUBLIC	?WhenPacketIsIntData@CFindCalculatedPacket@@CAXABV?$CStringT@DV?$StrTraitMFC_DLL@DV?$ChTraitsCRT@D@ATL@@@@@ATL@@ABVCChartFormulateData@@AAVCCalculateData@@@Z ; CFindCalculatedPacket::WhenPacketIsIntData
PUBLIC	?WhenPacketIsStringData@CFindCalculatedPacket@@CAXABV?$CStringT@DV?$StrTraitMFC_DLL@DV?$ChTraitsCRT@D@ATL@@@@@ATL@@ABVCChartFormulateData@@AAVCCalculateData@@@Z ; CFindCalculatedPacket::WhenPacketIsStringData
PUBLIC	?IsSubGraphIntoPacketListWhenThereisSubGraphName@CFindCalculatedPacket@@CAXABVCChartFormulateData@@AAVCCalculateData@@@Z ; CFindCalculatedPacket::IsSubGraphIntoPacketListWhenThereisSubGraphName
PUBLIC	?IsSubGraphIntoPacketListbyNEWandINSERTandAPPEND@CFindCalculatedPacket@@CAXABV?$CStringT@DV?$StrTraitMFC_DLL@DV?$ChTraitsCRT@D@ATL@@@@@ATL@@ABVCChartFormulateData@@AAVCCalculateData@@@Z ; CFindCalculatedPacket::IsSubGraphIntoPacketListbyNEWandINSERTandAPPEND
PUBLIC	?IsFinishCalulationWhenNew@CFindCalculatedPacket@@CA_NABV?$CStringT@DV?$StrTraitMFC_DLL@DV?$ChTraitsCRT@D@ATL@@@@@ATL@@HHAAV?$CList@NN@@@Z ; CFindCalculatedPacket::IsFinishCalulationWhenNew
PUBLIC	?IsFinishCalulationWhenInsertAppend@CFindCalculatedPacket@@CA_NABV?$CStringT@DV?$StrTraitMFC_DLL@DV?$ChTraitsCRT@D@ATL@@@@@ATL@@HHAAV?$CList@NN@@@Z ; CFindCalculatedPacket::IsFinishCalulationWhenInsertAppend
PUBLIC	?FindIndex@?$CList@NN@@QBEPAU__POSITION@@H@Z	; CList<double,double>::FindIndex
PUBLIC	??_C@_01IHBHIGKO@?0@				; `string'
PUBLIC	__real@3ff0000000000000
EXTRN	__imp_??0?$CStringT@DV?$StrTraitMFC_DLL@DV?$ChTraitsCRT@D@ATL@@@@@ATL@@QAE@ABV01@@Z:PROC
EXTRN	__imp_??0?$CStringT@DV?$StrTraitMFC_DLL@DV?$ChTraitsCRT@D@ATL@@@@@ATL@@QAE@PBD@Z:PROC
EXTRN	__imp_??1?$CStringT@DV?$StrTraitMFC_DLL@DV?$ChTraitsCRT@D@ATL@@@@@ATL@@QAE@XZ:PROC
EXTRN	__imp_?CompareNoCase@?$CStringT@DV?$StrTraitMFC_DLL@DV?$ChTraitsCRT@D@ATL@@@@@ATL@@QBEHPBD@Z:PROC
EXTRN	__imp_?TrimRight@?$CStringT@DV?$StrTraitMFC_DLL@DV?$ChTraitsCRT@D@ATL@@@@@ATL@@QAEAAV12@XZ:PROC
EXTRN	__imp_?TrimLeft@?$CStringT@DV?$StrTraitMFC_DLL@DV?$ChTraitsCRT@D@ATL@@@@@ATL@@QAEAAV12@XZ:PROC
EXTRN	?IsVolumeForSale@IMetaTable@@QAEHABV?$CStringT@DV?$StrTraitMFC_DLL@DV?$ChTraitsCRT@D@ATL@@@@@ATL@@@Z:PROC ; IMetaTable::IsVolumeForSale
EXTRN	__imp_?GetnumericDataList@CPacket@@QAEPAV?$CList@NN@@XZ:PROC
EXTRN	__imp_?GetstrDataList@CPacketList@@QAEPAV?$CList@V?$CStringT@DV?$StrTraitMFC_DLL@DV?$ChTraitsCRT@D@ATL@@@@@ATL@@V12@@@PAVCPacket@@@Z:PROC
EXTRN	__imp_?GetBaseData@CPacketList@@QAEPAVCPacket@@V?$CStringT@DV?$StrTraitMFC_DLL@DV?$ChTraitsCRT@D@ATL@@@@@ATL@@_N@Z:PROC
EXTRN	?GetStringData@CDataConversion@@SA?AV?$CStringT@DV?$StrTraitMFC_DLL@DV?$ChTraitsCRT@D@ATL@@@@@ATL@@AAV23@ABV23@_N@Z:PROC ; CDataConversion::GetStringData
EXTRN	?GetStringDataCount@CDataConversion@@SAHABV?$CStringT@DV?$StrTraitMFC_DLL@DV?$ChTraitsCRT@D@ATL@@@@@ATL@@0@Z:PROC ; CDataConversion::GetStringDataCount
EXTRN	@__security_check_cookie@4:PROC
EXTRN	___CxxFrameHandler3:PROC
EXTRN	?g_iMetaTable@@3VIMetaTable@@A:BYTE		; g_iMetaTable
EXTRN	___security_cookie:DWORD
EXTRN	__fltused:DWORD
;	COMDAT __real@3ff0000000000000
CONST	SEGMENT
__real@3ff0000000000000 DQ 03ff0000000000000r	; 1
CONST	ENDS
;	COMDAT ??_C@_01IHBHIGKO@?0@
CONST	SEGMENT
??_C@_01IHBHIGKO@?0@ DB ',', 00H			; `string'
CONST	ENDS
;	COMDAT xdata$x
xdata$x	SEGMENT
__ehfuncinfo$?IsSubGraphIntoPacketListWhenThereisSubGraphName@CFindCalculatedPacket@@CAXABVCChartFormulateData@@AAVCCalculateData@@@Z DD 019930522H
	DD	07H
	DD	FLAT:__unwindtable$?IsSubGraphIntoPacketListWhenThereisSubGraphName@CFindCalculatedPacket@@CAXABVCChartFormulateData@@AAVCCalculateData@@@Z
	DD	2 DUP(00H)
	DD	2 DUP(00H)
	DD	00H
	DD	01H
__unwindtable$?IsSubGraphIntoPacketListWhenThereisSubGraphName@CFindCalculatedPacket@@CAXABVCChartFormulateData@@AAVCCalculateData@@@Z DD 0ffffffffH
	DD	FLAT:__unwindfunclet$?IsSubGraphIntoPacketListWhenThereisSubGraphName@CFindCalculatedPacket@@CAXABVCChartFormulateData@@AAVCCalculateData@@@Z$0
	DD	00H
	DD	FLAT:__unwindfunclet$?IsSubGraphIntoPacketListWhenThereisSubGraphName@CFindCalculatedPacket@@CAXABVCChartFormulateData@@AAVCCalculateData@@@Z$1
	DD	0ffffffffH
	DD	FLAT:__unwindfunclet$?IsSubGraphIntoPacketListWhenThereisSubGraphName@CFindCalculatedPacket@@CAXABVCChartFormulateData@@AAVCCalculateData@@@Z$2
	DD	02H
	DD	FLAT:__unwindfunclet$?IsSubGraphIntoPacketListWhenThereisSubGraphName@CFindCalculatedPacket@@CAXABVCChartFormulateData@@AAVCCalculateData@@@Z$3
	DD	03H
	DD	FLAT:__unwindfunclet$?IsSubGraphIntoPacketListWhenThereisSubGraphName@CFindCalculatedPacket@@CAXABVCChartFormulateData@@AAVCCalculateData@@@Z$4
	DD	02H
	DD	FLAT:__unwindfunclet$?IsSubGraphIntoPacketListWhenThereisSubGraphName@CFindCalculatedPacket@@CAXABVCChartFormulateData@@AAVCCalculateData@@@Z$4
	DD	0ffffffffH
	DD	FLAT:__unwindfunclet$?IsSubGraphIntoPacketListWhenThereisSubGraphName@CFindCalculatedPacket@@CAXABVCChartFormulateData@@AAVCCalculateData@@@Z$4
xdata$x	ENDS
; Function compile flags: /Ogtp
; File C:\Program Files (x86)\Microsoft Visual Studio\2019\Community\VC\Tools\MSVC\14.29.30133\atlmfc\include\afxtempl.h
;	COMDAT ?FindIndex@?$CList@NN@@QBEPAU__POSITION@@H@Z
_TEXT	SEGMENT
_nIndex$ = 8						; size = 4
?FindIndex@?$CList@NN@@QBEPAU__POSITION@@H@Z PROC	; CList<double,double>::FindIndex, COMDAT
; _this$ = ecx

; 1130 : {

  00000	55		 push	 ebp
  00001	8b ec		 mov	 ebp, esp

; 1131 : 	ASSERT_VALID(this);
; 1132 : 
; 1133 : 	if (nIndex >= m_nCount || nIndex < 0)

  00003	8b 55 08	 mov	 edx, DWORD PTR _nIndex$[ebp]
  00006	3b 51 0c	 cmp	 edx, DWORD PTR [ecx+12]
  00009	7d 14		 jge	 SHORT $LN5@FindIndex
  0000b	85 d2		 test	 edx, edx
  0000d	78 10		 js	 SHORT $LN5@FindIndex

; 1135 : 
; 1136 : 	CNode* pNode = m_pNodeHead;

  0000f	8b 41 04	 mov	 eax, DWORD PTR [ecx+4]

; 1137 : 	while (nIndex--)

  00012	74 0d		 je	 SHORT $LN1@FindIndex
$LL2@FindIndex:

; 1138 : 	{
; 1139 : 		ASSERT(AfxIsValidAddress(pNode, sizeof(CNode)));
; 1140 : 		pNode = pNode->pNext;

  00014	8b 00		 mov	 eax, DWORD PTR [eax]
  00016	83 ea 01	 sub	 edx, 1
  00019	75 f9		 jne	 SHORT $LL2@FindIndex

; 1141 : 	}
; 1142 : 	return (POSITION) pNode;
; 1143 : }

  0001b	5d		 pop	 ebp
  0001c	c2 04 00	 ret	 4
$LN5@FindIndex:

; 1134 : 		return NULL;  // went too far

  0001f	33 c0		 xor	 eax, eax
$LN1@FindIndex:

; 1141 : 	}
; 1142 : 	return (POSITION) pNode;
; 1143 : }

  00021	5d		 pop	 ebp
  00022	c2 04 00	 ret	 4
?FindIndex@?$CList@NN@@QBEPAU__POSITION@@H@Z ENDP	; CList<double,double>::FindIndex
_TEXT	ENDS
; Function compile flags: /Ogtp
; File D:\git\src\IBK\IBK_DRFN\ProjSrc\SrcChartEx\ChartOCX\ChartFormulate\FindCalculatedPacket.cpp
; File C:\Program Files (x86)\Microsoft Visual Studio\2019\Community\VC\Tools\MSVC\14.29.30133\atlmfc\include\afxtempl.h
; File D:\git\src\IBK\IBK_DRFN\ProjSrc\SrcChartEx\ChartOCX\ChartFormulate\FindCalculatedPacket.cpp
; File C:\Program Files (x86)\Microsoft Visual Studio\2019\Community\VC\Tools\MSVC\14.29.30133\atlmfc\include\afxtempl.h
; File D:\git\src\IBK\IBK_DRFN\ProjSrc\SrcChartEx\ChartOCX\ChartFormulate\FindCalculatedPacket.cpp
; File C:\Program Files (x86)\Microsoft Visual Studio\2019\Community\VC\Tools\MSVC\14.29.30133\atlmfc\include\afxtempl.h
; File D:\git\src\IBK\IBK_DRFN\ProjSrc\SrcChartEx\ChartOCX\ChartFormulate\FindCalculatedPacket.cpp
; File C:\Program Files (x86)\Microsoft Visual Studio\2019\Community\VC\Tools\MSVC\14.29.30133\atlmfc\include\afxtempl.h
; File D:\git\src\IBK\IBK_DRFN\ProjSrc\SrcChartEx\ChartOCX\ChartFormulate\FindCalculatedPacket.cpp
;	COMDAT ?IsFinishCalulationWhenInsertAppend@CFindCalculatedPacket@@CA_NABV?$CStringT@DV?$StrTraitMFC_DLL@DV?$ChTraitsCRT@D@ATL@@@@@ATL@@HHAAV?$CList@NN@@@Z
_TEXT	SEGMENT
_strSubGraphName$ = 8					; size = 4
_nStandardCount$ = 12					; size = 4
_nMyCount$ = 16						; size = 4
_ConditionList$ = 20					; size = 4
?IsFinishCalulationWhenInsertAppend@CFindCalculatedPacket@@CA_NABV?$CStringT@DV?$StrTraitMFC_DLL@DV?$ChTraitsCRT@D@ATL@@@@@ATL@@HHAAV?$CList@NN@@@Z PROC ; CFindCalculatedPacket::IsFinishCalulationWhenInsertAppend, COMDAT

; 100  : {

  00000	55		 push	 ebp
  00001	8b ec		 mov	 ebp, esp

; 101  : 	if(strSubGraphName.CompareNoCase( _MTEXT( C3_POST_SPAN)) == 0) {

  00003	a1 54 00 00 00	 mov	 eax, DWORD PTR ?g_iMetaTable@@3VIMetaTable@@A+84
  00008	56		 push	 esi
  00009	8b 75 08	 mov	 esi, DWORD PTR _strSubGraphName$[ebp]
  0000c	8b ce		 mov	 ecx, esi
  0000e	ff b0 cc 04 00
	00		 push	 DWORD PTR [eax+1228]
  00014	ff 15 00 00 00
	00		 call	 DWORD PTR __imp_?CompareNoCase@?$CStringT@DV?$StrTraitMFC_DLL@DV?$ChTraitsCRT@D@ATL@@@@@ATL@@QBEHPBD@Z
  0001a	85 c0		 test	 eax, eax
  0001c	75 30		 jne	 SHORT $LN2@IsFinishCa
; File C:\Program Files (x86)\Microsoft Visual Studio\2019\Community\VC\Tools\MSVC\14.29.30133\atlmfc\include\afxtempl.h

; 1133 : 	if (nIndex >= m_nCount || nIndex < 0)

  0001e	8b 45 14	 mov	 eax, DWORD PTR _ConditionList$[ebp]
  00021	83 78 0c 01	 cmp	 DWORD PTR [eax+12], 1
  00025	7e 15		 jle	 SHORT $LN15@IsFinishCa

; 1135 : 
; 1136 : 	CNode* pNode = m_pNodeHead;

  00027	8b 40 04	 mov	 eax, DWORD PTR [eax+4]
  0002a	66 0f 6e 45 10	 movd	 xmm0, DWORD PTR _nMyCount$[ebp]
; File D:\git\src\IBK\IBK_DRFN\ProjSrc\SrcChartEx\ChartOCX\ChartFormulate\FindCalculatedPacket.cpp

; 102  : 		if(nStandardCount == (nMyCount + ConditionList.GetAt(ConditionList.FindIndex(1))))

  0002f	f3 0f e6 c0	 cvtdq2pd xmm0, xmm0
; File C:\Program Files (x86)\Microsoft Visual Studio\2019\Community\VC\Tools\MSVC\14.29.30133\atlmfc\include\afxtempl.h

; 1142 : 	return (POSITION) pNode;

  00033	8b 00		 mov	 eax, DWORD PTR [eax]
; File D:\git\src\IBK\IBK_DRFN\ProjSrc\SrcChartEx\ChartOCX\ChartFormulate\FindCalculatedPacket.cpp

; 102  : 		if(nStandardCount == (nMyCount + ConditionList.GetAt(ConditionList.FindIndex(1))))

  00035	f2 0f 58 40 08	 addsd	 xmm0, QWORD PTR [eax+8]
  0003a	eb 6d		 jmp	 SHORT $LN35@IsFinishCa
$LN15@IsFinishCa:
  0003c	66 0f 6e 45 10	 movd	 xmm0, DWORD PTR _nMyCount$[ebp]
; File C:\Program Files (x86)\Microsoft Visual Studio\2019\Community\VC\Tools\MSVC\14.29.30133\atlmfc\include\afxtempl.h

; 1134 : 		return NULL;  // went too far

  00041	33 c0		 xor	 eax, eax
; File D:\git\src\IBK\IBK_DRFN\ProjSrc\SrcChartEx\ChartOCX\ChartFormulate\FindCalculatedPacket.cpp

; 102  : 		if(nStandardCount == (nMyCount + ConditionList.GetAt(ConditionList.FindIndex(1))))

  00043	f3 0f e6 c0	 cvtdq2pd xmm0, xmm0
  00047	f2 0f 58 40 08	 addsd	 xmm0, QWORD PTR [eax+8]
  0004c	eb 5b		 jmp	 SHORT $LN35@IsFinishCa
$LN2@IsFinishCa:

; 103  : 			return true;
; 104  : 	}
; 105  : 	else if(strSubGraphName.CompareNoCase( _MTEXT( C3_PRE_SPAN_1)) == 0 || strSubGraphName.CompareNoCase( _MTEXT( C3_PRE_SPAN_2)) == 0 ) {

  0004e	a1 54 00 00 00	 mov	 eax, DWORD PTR ?g_iMetaTable@@3VIMetaTable@@A+84
  00053	8b ce		 mov	 ecx, esi
  00055	ff b0 d0 04 00
	00		 push	 DWORD PTR [eax+1232]
  0005b	ff 15 00 00 00
	00		 call	 DWORD PTR __imp_?CompareNoCase@?$CStringT@DV?$StrTraitMFC_DLL@DV?$ChTraitsCRT@D@ATL@@@@@ATL@@QBEHPBD@Z
  00061	85 c0		 test	 eax, eax
  00063	74 24		 je	 SHORT $LN7@IsFinishCa
  00065	a1 54 00 00 00	 mov	 eax, DWORD PTR ?g_iMetaTable@@3VIMetaTable@@A+84
  0006a	8b ce		 mov	 ecx, esi
  0006c	ff b0 d4 04 00
	00		 push	 DWORD PTR [eax+1236]
  00072	ff 15 00 00 00
	00		 call	 DWORD PTR __imp_?CompareNoCase@?$CStringT@DV?$StrTraitMFC_DLL@DV?$ChTraitsCRT@D@ATL@@@@@ATL@@QBEHPBD@Z
  00078	85 c0		 test	 eax, eax
  0007a	74 0d		 je	 SHORT $LN7@IsFinishCa

; 108  : 	}
; 109  : 	else {
; 110  : 		if(nStandardCount == nMyCount)

  0007c	8b 45 0c	 mov	 eax, DWORD PTR _nStandardCount$[ebp]
  0007f	3b 45 10	 cmp	 eax, DWORD PTR _nMyCount$[ebp]
  00082	74 38		 je	 SHORT $LN33@IsFinishCa
$LN8@IsFinishCa:

; 111  : 			return true;
; 112  : 	}
; 113  : 	return false;

  00084	32 c0		 xor	 al, al
  00086	5e		 pop	 esi

; 114  : }

  00087	5d		 pop	 ebp
  00088	c3		 ret	 0
$LN7@IsFinishCa:
; File C:\Program Files (x86)\Microsoft Visual Studio\2019\Community\VC\Tools\MSVC\14.29.30133\atlmfc\include\afxtempl.h

; 1133 : 	if (nIndex >= m_nCount || nIndex < 0)

  00089	8b 45 14	 mov	 eax, DWORD PTR _ConditionList$[ebp]
  0008c	83 78 0c 01	 cmp	 DWORD PTR [eax+12], 1
  00090	7e 07		 jle	 SHORT $LN21@IsFinishCa

; 1135 : 
; 1136 : 	CNode* pNode = m_pNodeHead;

  00092	8b 40 04	 mov	 eax, DWORD PTR [eax+4]

; 1142 : 	return (POSITION) pNode;

  00095	8b 00		 mov	 eax, DWORD PTR [eax]
  00097	eb 02		 jmp	 SHORT $LN17@IsFinishCa
$LN21@IsFinishCa:

; 1134 : 		return NULL;  // went too far

  00099	33 c0		 xor	 eax, eax
$LN17@IsFinishCa:
  0009b	66 0f 6e 45 10	 movd	 xmm0, DWORD PTR _nMyCount$[ebp]
; File D:\git\src\IBK\IBK_DRFN\ProjSrc\SrcChartEx\ChartOCX\ChartFormulate\FindCalculatedPacket.cpp

; 106  : 		if(nStandardCount == (nMyCount - ConditionList.GetAt(ConditionList.FindIndex(1))))

  000a0	f3 0f e6 c0	 cvtdq2pd xmm0, xmm0
  000a4	f2 0f 5c 40 08	 subsd	 xmm0, QWORD PTR [eax+8]
$LN35@IsFinishCa:

; 107  : 			return true;

  000a9	66 0f 6e 4d 0c	 movd	 xmm1, DWORD PTR _nStandardCount$[ebp]
  000ae	f3 0f e6 c9	 cvtdq2pd xmm1, xmm1
  000b2	66 0f 2e c8	 ucomisd xmm1, xmm0
  000b6	9f		 lahf
  000b7	f6 c4 44	 test	 ah, 68			; 00000044H
  000ba	7a c8		 jp	 SHORT $LN8@IsFinishCa
$LN33@IsFinishCa:
  000bc	b0 01		 mov	 al, 1
  000be	5e		 pop	 esi

; 114  : }

  000bf	5d		 pop	 ebp
  000c0	c3		 ret	 0
?IsFinishCalulationWhenInsertAppend@CFindCalculatedPacket@@CA_NABV?$CStringT@DV?$StrTraitMFC_DLL@DV?$ChTraitsCRT@D@ATL@@@@@ATL@@HHAAV?$CList@NN@@@Z ENDP ; CFindCalculatedPacket::IsFinishCalulationWhenInsertAppend
_TEXT	ENDS
; Function compile flags: /Ogtp
; File D:\git\src\IBK\IBK_DRFN\ProjSrc\SrcChartEx\ChartOCX\ChartFormulate\FindCalculatedPacket.cpp
; File C:\Program Files (x86)\Microsoft Visual Studio\2019\Community\VC\Tools\MSVC\14.29.30133\atlmfc\include\afxtempl.h
; File D:\git\src\IBK\IBK_DRFN\ProjSrc\SrcChartEx\ChartOCX\ChartFormulate\FindCalculatedPacket.cpp
; File C:\Program Files (x86)\Microsoft Visual Studio\2019\Community\VC\Tools\MSVC\14.29.30133\atlmfc\include\afxtempl.h
; File D:\git\src\IBK\IBK_DRFN\ProjSrc\SrcChartEx\ChartOCX\ChartFormulate\FindCalculatedPacket.cpp
; File C:\Program Files (x86)\Microsoft Visual Studio\2019\Community\VC\Tools\MSVC\14.29.30133\atlmfc\include\afxtempl.h
; File D:\git\src\IBK\IBK_DRFN\ProjSrc\SrcChartEx\ChartOCX\ChartFormulate\FindCalculatedPacket.cpp
; File C:\Program Files (x86)\Microsoft Visual Studio\2019\Community\VC\Tools\MSVC\14.29.30133\atlmfc\include\afxtempl.h
; File D:\git\src\IBK\IBK_DRFN\ProjSrc\SrcChartEx\ChartOCX\ChartFormulate\FindCalculatedPacket.cpp
; File C:\Program Files (x86)\Microsoft Visual Studio\2019\Community\VC\Tools\MSVC\14.29.30133\atlmfc\include\afxtempl.h
; File D:\git\src\IBK\IBK_DRFN\ProjSrc\SrcChartEx\ChartOCX\ChartFormulate\FindCalculatedPacket.cpp
;	COMDAT ?IsFinishCalulationWhenNew@CFindCalculatedPacket@@CA_NABV?$CStringT@DV?$StrTraitMFC_DLL@DV?$ChTraitsCRT@D@ATL@@@@@ATL@@HHAAV?$CList@NN@@@Z
_TEXT	SEGMENT
_strSubGraphName$ = 8					; size = 4
_nStandardCount$ = 12					; size = 4
_nMyCount$ = 16						; size = 4
_ConditionList$ = 20					; size = 4
?IsFinishCalulationWhenNew@CFindCalculatedPacket@@CA_NABV?$CStringT@DV?$StrTraitMFC_DLL@DV?$ChTraitsCRT@D@ATL@@@@@ATL@@HHAAV?$CList@NN@@@Z PROC ; CFindCalculatedPacket::IsFinishCalulationWhenNew, COMDAT

; 71   : {

  00000	55		 push	 ebp
  00001	8b ec		 mov	 ebp, esp

; 72   : 	if(strSubGraphName.CompareNoCase( _MTEXT( C3_POST_SPAN)) == 0) {

  00003	a1 54 00 00 00	 mov	 eax, DWORD PTR ?g_iMetaTable@@3VIMetaTable@@A+84
  00008	56		 push	 esi
  00009	8b 75 08	 mov	 esi, DWORD PTR _strSubGraphName$[ebp]
  0000c	8b ce		 mov	 ecx, esi
  0000e	ff b0 cc 04 00
	00		 push	 DWORD PTR [eax+1228]
  00014	ff 15 00 00 00
	00		 call	 DWORD PTR __imp_?CompareNoCase@?$CStringT@DV?$StrTraitMFC_DLL@DV?$ChTraitsCRT@D@ATL@@@@@ATL@@QBEHPBD@Z
  0001a	85 c0		 test	 eax, eax
  0001c	75 36		 jne	 SHORT $LN2@IsFinishCa
; File C:\Program Files (x86)\Microsoft Visual Studio\2019\Community\VC\Tools\MSVC\14.29.30133\atlmfc\include\afxtempl.h

; 1133 : 	if (nIndex >= m_nCount || nIndex < 0)

  0001e	8b 45 14	 mov	 eax, DWORD PTR _ConditionList$[ebp]
  00021	83 78 0c 01	 cmp	 DWORD PTR [eax+12], 1
  00025	7e 18		 jle	 SHORT $LN18@IsFinishCa

; 1135 : 
; 1136 : 	CNode* pNode = m_pNodeHead;

  00027	8b 40 04	 mov	 eax, DWORD PTR [eax+4]
  0002a	66 0f 6e 45 10	 movd	 xmm0, DWORD PTR _nMyCount$[ebp]
; File D:\git\src\IBK\IBK_DRFN\ProjSrc\SrcChartEx\ChartOCX\ChartFormulate\FindCalculatedPacket.cpp

; 73   : 		if(nStandardCount == (nMyCount + ConditionList.GetAt(ConditionList.FindIndex(1)) - 1))

  0002f	f3 0f e6 c0	 cvtdq2pd xmm0, xmm0
; File C:\Program Files (x86)\Microsoft Visual Studio\2019\Community\VC\Tools\MSVC\14.29.30133\atlmfc\include\afxtempl.h

; 1142 : 	return (POSITION) pNode;

  00033	8b 00		 mov	 eax, DWORD PTR [eax]
; File D:\git\src\IBK\IBK_DRFN\ProjSrc\SrcChartEx\ChartOCX\ChartFormulate\FindCalculatedPacket.cpp

; 73   : 		if(nStandardCount == (nMyCount + ConditionList.GetAt(ConditionList.FindIndex(1)) - 1))

  00035	f2 0f 58 40 08	 addsd	 xmm0, QWORD PTR [eax+8]
  0003a	e9 a4 00 00 00	 jmp	 $LN49@IsFinishCa
$LN18@IsFinishCa:
  0003f	66 0f 6e 45 10	 movd	 xmm0, DWORD PTR _nMyCount$[ebp]
; File C:\Program Files (x86)\Microsoft Visual Studio\2019\Community\VC\Tools\MSVC\14.29.30133\atlmfc\include\afxtempl.h

; 1134 : 		return NULL;  // went too far

  00044	33 c0		 xor	 eax, eax
; File D:\git\src\IBK\IBK_DRFN\ProjSrc\SrcChartEx\ChartOCX\ChartFormulate\FindCalculatedPacket.cpp

; 73   : 		if(nStandardCount == (nMyCount + ConditionList.GetAt(ConditionList.FindIndex(1)) - 1))

  00046	f3 0f e6 c0	 cvtdq2pd xmm0, xmm0
  0004a	f2 0f 58 40 08	 addsd	 xmm0, QWORD PTR [eax+8]
  0004f	e9 8f 00 00 00	 jmp	 $LN49@IsFinishCa
$LN2@IsFinishCa:

; 74   : 			return true;
; 75   : 	}
; 76   : 	//마지막 데이타를 포함해서 26개니까..실질적으로는 25개의 데이타가 더해진것.
; 77   : 	else if(strSubGraphName.CompareNoCase( _MTEXT( C3_PRE_SPAN_1)) == 0 || strSubGraphName.CompareNoCase( _MTEXT( C3_PRE_SPAN_2)) == 0 ) {

  00054	a1 54 00 00 00	 mov	 eax, DWORD PTR ?g_iMetaTable@@3VIMetaTable@@A+84
  00059	8b ce		 mov	 ecx, esi
  0005b	ff b0 d0 04 00
	00		 push	 DWORD PTR [eax+1232]
  00061	ff 15 00 00 00
	00		 call	 DWORD PTR __imp_?CompareNoCase@?$CStringT@DV?$StrTraitMFC_DLL@DV?$ChTraitsCRT@D@ATL@@@@@ATL@@QBEHPBD@Z
  00067	85 c0		 test	 eax, eax
  00069	74 58		 je	 SHORT $LN7@IsFinishCa
  0006b	a1 54 00 00 00	 mov	 eax, DWORD PTR ?g_iMetaTable@@3VIMetaTable@@A+84
  00070	8b ce		 mov	 ecx, esi
  00072	ff b0 d4 04 00
	00		 push	 DWORD PTR [eax+1236]
  00078	ff 15 00 00 00
	00		 call	 DWORD PTR __imp_?CompareNoCase@?$CStringT@DV?$StrTraitMFC_DLL@DV?$ChTraitsCRT@D@ATL@@@@@ATL@@QBEHPBD@Z
  0007e	85 c0		 test	 eax, eax
  00080	74 41		 je	 SHORT $LN7@IsFinishCa

; 80   : 	}
; 81   : 	
; 82   : //	else if(strSubGraphName == _MTEXT( C2_OVERHANGING_SUPPLY))
; 83   : // (2006.12.06) Sunghwan Ahn
; 84   : 	else if( g_iMetaTable.IsVolumeForSale(strSubGraphName))

  00082	56		 push	 esi
  00083	b9 00 00 00 00	 mov	 ecx, OFFSET ?g_iMetaTable@@3VIMetaTable@@A ; g_iMetaTable
  00088	e8 00 00 00 00	 call	 ?IsVolumeForSale@IMetaTable@@QAEHABV?$CStringT@DV?$StrTraitMFC_DLL@DV?$ChTraitsCRT@D@ATL@@@@@ATL@@@Z ; IMetaTable::IsVolumeForSale
  0008d	85 c0		 test	 eax, eax
  0008f	74 25		 je	 SHORT $LN9@IsFinishCa
; File C:\Program Files (x86)\Microsoft Visual Studio\2019\Community\VC\Tools\MSVC\14.29.30133\atlmfc\include\afxtempl.h

; 1133 : 	if (nIndex >= m_nCount || nIndex < 0)

  00091	8b 45 14	 mov	 eax, DWORD PTR _ConditionList$[ebp]
  00094	83 78 0c 00	 cmp	 DWORD PTR [eax+12], 0
  00098	7e 05		 jle	 SHORT $LN30@IsFinishCa

; 1142 : 	return (POSITION) pNode;

  0009a	8b 48 04	 mov	 ecx, DWORD PTR [eax+4]
  0009d	eb 02		 jmp	 SHORT $LN26@IsFinishCa
$LN30@IsFinishCa:

; 1134 : 		return NULL;  // went too far

  0009f	33 c9		 xor	 ecx, ecx
$LN26@IsFinishCa:
; File D:\git\src\IBK\IBK_DRFN\ProjSrc\SrcChartEx\ChartOCX\ChartFormulate\FindCalculatedPacket.cpp

; 87   : 		if((nMyCount-2) == ConditionList.GetAt(ConditionList.FindIndex(0)))

  000a1	8b 45 10	 mov	 eax, DWORD PTR _nMyCount$[ebp]
  000a4	83 c0 fe	 add	 eax, -2			; fffffffeH
  000a7	66 0f 6e c0	 movd	 xmm0, eax
  000ab	f3 0f e6 c0	 cvtdq2pd xmm0, xmm0
  000af	66 0f 2e 41 08	 ucomisd xmm0, QWORD PTR [ecx+8]
  000b4	eb 42		 jmp	 SHORT $LN50@IsFinishCa
$LN9@IsFinishCa:

; 88   : 			return true;
; 89   : 	}
; 90   : 	else {
; 91   : 		if(nStandardCount == nMyCount)

  000b6	8b 45 0c	 mov	 eax, DWORD PTR _nStandardCount$[ebp]
  000b9	3b 45 10	 cmp	 eax, DWORD PTR _nMyCount$[ebp]
  000bc	74 40		 je	 SHORT $LN47@IsFinishCa
$LN8@IsFinishCa:

; 92   : 			return true;
; 93   : 	}
; 94   : 	return false;

  000be	32 c0		 xor	 al, al
  000c0	5e		 pop	 esi

; 95   : }

  000c1	5d		 pop	 ebp
  000c2	c3		 ret	 0
$LN7@IsFinishCa:
; File C:\Program Files (x86)\Microsoft Visual Studio\2019\Community\VC\Tools\MSVC\14.29.30133\atlmfc\include\afxtempl.h

; 1133 : 	if (nIndex >= m_nCount || nIndex < 0)

  000c3	8b 45 14	 mov	 eax, DWORD PTR _ConditionList$[ebp]
  000c6	83 78 0c 01	 cmp	 DWORD PTR [eax+12], 1
  000ca	7e 07		 jle	 SHORT $LN24@IsFinishCa

; 1135 : 
; 1136 : 	CNode* pNode = m_pNodeHead;

  000cc	8b 40 04	 mov	 eax, DWORD PTR [eax+4]

; 1142 : 	return (POSITION) pNode;

  000cf	8b 00		 mov	 eax, DWORD PTR [eax]
  000d1	eb 02		 jmp	 SHORT $LN20@IsFinishCa
$LN24@IsFinishCa:

; 1134 : 		return NULL;  // went too far

  000d3	33 c0		 xor	 eax, eax
$LN20@IsFinishCa:
  000d5	66 0f 6e 45 10	 movd	 xmm0, DWORD PTR _nMyCount$[ebp]
; File D:\git\src\IBK\IBK_DRFN\ProjSrc\SrcChartEx\ChartOCX\ChartFormulate\FindCalculatedPacket.cpp

; 78   : 		if(nStandardCount == (nMyCount - ConditionList.GetAt(ConditionList.FindIndex(1)) - 1))

  000da	f3 0f e6 c0	 cvtdq2pd xmm0, xmm0
  000de	f2 0f 5c 40 08	 subsd	 xmm0, QWORD PTR [eax+8]
$LN49@IsFinishCa:

; 79   : 			return true;

  000e3	66 0f 6e 4d 0c	 movd	 xmm1, DWORD PTR _nStandardCount$[ebp]
  000e8	f2 0f 5c 05 00
	00 00 00	 subsd	 xmm0, QWORD PTR __real@3ff0000000000000
  000f0	f3 0f e6 c9	 cvtdq2pd xmm1, xmm1
  000f4	66 0f 2e c8	 ucomisd xmm1, xmm0
$LN50@IsFinishCa:
  000f8	9f		 lahf
  000f9	f6 c4 44	 test	 ah, 68			; 00000044H
  000fc	7a c0		 jp	 SHORT $LN8@IsFinishCa
$LN47@IsFinishCa:
  000fe	b0 01		 mov	 al, 1
  00100	5e		 pop	 esi

; 95   : }

  00101	5d		 pop	 ebp
  00102	c3		 ret	 0
?IsFinishCalulationWhenNew@CFindCalculatedPacket@@CA_NABV?$CStringT@DV?$StrTraitMFC_DLL@DV?$ChTraitsCRT@D@ATL@@@@@ATL@@HHAAV?$CList@NN@@@Z ENDP ; CFindCalculatedPacket::IsFinishCalulationWhenNew
_TEXT	ENDS
; Function compile flags: /Ogtp
; File D:\git\src\IBK\IBK_DRFN\ProjSrc\SrcChartEx\ChartOCX\ChartFormulate\FindCalculatedPacket.cpp
;	COMDAT ?IsSubGraphIntoPacketListbyNEWandINSERTandAPPEND@CFindCalculatedPacket@@CAXABV?$CStringT@DV?$StrTraitMFC_DLL@DV?$ChTraitsCRT@D@ATL@@@@@ATL@@ABVCChartFormulateData@@AAVCCalculateData@@@Z
_TEXT	SEGMENT
_strSubGraphName$ = 8					; size = 4
_chartFormulateData$ = 12				; size = 4
_CalculateData$ = 16					; size = 4
?IsSubGraphIntoPacketListbyNEWandINSERTandAPPEND@CFindCalculatedPacket@@CAXABV?$CStringT@DV?$StrTraitMFC_DLL@DV?$ChTraitsCRT@D@ATL@@@@@ATL@@ABVCChartFormulateData@@AAVCCalculateData@@@Z PROC ; CFindCalculatedPacket::IsSubGraphIntoPacketListbyNEWandINSERTandAPPEND, COMDAT

; 52   : {

  00000	55		 push	 ebp
  00001	8b ec		 mov	 ebp, esp
  00003	51		 push	 ecx

; 53   : //25
; 54   : 	if(strSubGraphName.CompareNoCase( _MTEXT( C3_BIG_NEWS)) == 0 || strSubGraphName.CompareNoCase( _MTEXT( C3_LOCK)) == 0) 

  00004	a1 54 00 00 00	 mov	 eax, DWORD PTR ?g_iMetaTable@@3VIMetaTable@@A+84
  00009	56		 push	 esi
  0000a	57		 push	 edi
  0000b	8b 7d 08	 mov	 edi, DWORD PTR _strSubGraphName$[ebp]
  0000e	8b cf		 mov	 ecx, edi
  00010	ff b0 c8 04 00
	00		 push	 DWORD PTR [eax+1224]
  00016	ff 15 00 00 00
	00		 call	 DWORD PTR __imp_?CompareNoCase@?$CStringT@DV?$StrTraitMFC_DLL@DV?$ChTraitsCRT@D@ATL@@@@@ATL@@QBEHPBD@Z
  0001c	85 c0		 test	 eax, eax
  0001e	74 43		 je	 SHORT $LN4@IsSubGraph
  00020	a1 54 00 00 00	 mov	 eax, DWORD PTR ?g_iMetaTable@@3VIMetaTable@@A+84
  00025	8b cf		 mov	 ecx, edi
  00027	ff b0 b8 04 00
	00		 push	 DWORD PTR [eax+1208]
  0002d	ff 15 00 00 00
	00		 call	 DWORD PTR __imp_?CompareNoCase@?$CStringT@DV?$StrTraitMFC_DLL@DV?$ChTraitsCRT@D@ATL@@@@@ATL@@QBEHPBD@Z
  00033	85 c0		 test	 eax, eax
  00035	74 2c		 je	 SHORT $LN4@IsSubGraph

; 138  : 	CPacketList* pPacketList = chartFormulateData.GetPacketList();

  00037	8b 45 0c	 mov	 eax, DWORD PTR _chartFormulateData$[ebp]

; 139  : 	CCalculateBaseData::CALCULATETYPE timetype = chartFormulateData.GetCalculateType();
; 140  : 
; 141  : 	CPacket* pPacket = pPacketList->GetBaseData(strSubGraphName);

  0003a	6a 01		 push	 1
  0003c	51		 push	 ecx
  0003d	8b cc		 mov	 ecx, esp
  0003f	8b 70 20	 mov	 esi, DWORD PTR [eax+32]
  00042	57		 push	 edi
  00043	ff 15 00 00 00
	00		 call	 DWORD PTR __imp_??0?$CStringT@DV?$StrTraitMFC_DLL@DV?$ChTraitsCRT@D@ATL@@@@@ATL@@QAE@ABV01@@Z
  00049	8b ce		 mov	 ecx, esi
  0004b	ff 15 00 00 00
	00		 call	 DWORD PTR __imp_?GetBaseData@CPacketList@@QAEPAVCPacket@@V?$CStringT@DV?$StrTraitMFC_DLL@DV?$ChTraitsCRT@D@ATL@@@@@ATL@@_N@Z

; 142  : 	if(pPacket == NULL)

  00051	85 c0		 test	 eax, eax
  00053	74 31		 je	 SHORT $LN7@IsSubGraph

; 143  : 		return;
; 144  : 
; 145  : 	CList<double, double>* pList = pPacket->GetnumericDataList();

  00055	8b c8		 mov	 ecx, eax
  00057	ff 15 00 00 00
	00		 call	 DWORD PTR __imp_?GetnumericDataList@CPacket@@QAEPAV?$CList@NN@@XZ

; 55   : 		WhenPacketIsStringData(strSubGraphName, chartFormulateData, CalculateData);
; 56   : 	else
; 57   : 		WhenPacketIsIntData(strSubGraphName, chartFormulateData, CalculateData);
; 58   : }

  0005d	5f		 pop	 edi
  0005e	5e		 pop	 esi
  0005f	8b e5		 mov	 esp, ebp
  00061	5d		 pop	 ebp
  00062	c3		 ret	 0
$LN4@IsSubGraph:

; 118  : 	CPacketList* pPacketList = chartFormulateData.GetPacketList();

  00063	8b 45 0c	 mov	 eax, DWORD PTR _chartFormulateData$[ebp]

; 119  : 	CCalculateBaseData::CALCULATETYPE timetype = chartFormulateData.GetCalculateType();
; 120  : 
; 121  : 	CList<CString, CString>* pList = pPacketList->GetstrDataList(pPacketList->GetBaseData(strSubGraphName));

  00066	6a 01		 push	 1
  00068	51		 push	 ecx
  00069	8b cc		 mov	 ecx, esp
  0006b	8b 70 20	 mov	 esi, DWORD PTR [eax+32]
  0006e	57		 push	 edi
  0006f	ff 15 00 00 00
	00		 call	 DWORD PTR __imp_??0?$CStringT@DV?$StrTraitMFC_DLL@DV?$ChTraitsCRT@D@ATL@@@@@ATL@@QAE@ABV01@@Z
  00075	8b ce		 mov	 ecx, esi
  00077	ff 15 00 00 00
	00		 call	 DWORD PTR __imp_?GetBaseData@CPacketList@@QAEPAVCPacket@@V?$CStringT@DV?$StrTraitMFC_DLL@DV?$ChTraitsCRT@D@ATL@@@@@ATL@@_N@Z
  0007d	50		 push	 eax
  0007e	8b ce		 mov	 ecx, esi
  00080	ff 15 00 00 00
	00		 call	 DWORD PTR __imp_?GetstrDataList@CPacketList@@QAEPAV?$CList@V?$CStringT@DV?$StrTraitMFC_DLL@DV?$ChTraitsCRT@D@ATL@@@@@ATL@@V12@@@PAVCPacket@@@Z
$LN7@IsSubGraph:

; 55   : 		WhenPacketIsStringData(strSubGraphName, chartFormulateData, CalculateData);
; 56   : 	else
; 57   : 		WhenPacketIsIntData(strSubGraphName, chartFormulateData, CalculateData);
; 58   : }

  00086	5f		 pop	 edi
  00087	5e		 pop	 esi
  00088	8b e5		 mov	 esp, ebp
  0008a	5d		 pop	 ebp
  0008b	c3		 ret	 0
?IsSubGraphIntoPacketListbyNEWandINSERTandAPPEND@CFindCalculatedPacket@@CAXABV?$CStringT@DV?$StrTraitMFC_DLL@DV?$ChTraitsCRT@D@ATL@@@@@ATL@@ABVCChartFormulateData@@AAVCCalculateData@@@Z ENDP ; CFindCalculatedPacket::IsSubGraphIntoPacketListbyNEWandINSERTandAPPEND
_TEXT	ENDS
; Function compile flags: /Ogtp
; File D:\git\src\IBK\IBK_DRFN\ProjSrc\SrcChartEx\ChartOCX\ChartFormulate\FindCalculatedPacket.cpp
; File D:\git\src\IBK\IBK_DRFN\ProjSrc\SrcChartEx\ChartOCX\Include_Chart\ChartFormulateData.h
; File D:\git\src\IBK\IBK_DRFN\ProjSrc\SrcChartEx\ChartOCX\ChartFormulate\FindCalculatedPacket.cpp
; File D:\git\src\IBK\IBK_DRFN\ProjSrc\SrcChartEx\ChartOCX\Include_Chart\ChartFormulateData.h
; File D:\git\src\IBK\IBK_DRFN\ProjSrc\SrcChartEx\ChartOCX\ChartFormulate\FindCalculatedPacket.cpp
; File D:\git\src\IBK\IBK_DRFN\ProjSrc\SrcChartEx\ChartOCX\Include_Chart\ChartFormulateData.h
; File D:\git\src\IBK\IBK_DRFN\ProjSrc\SrcChartEx\ChartOCX\ChartFormulate\FindCalculatedPacket.cpp
; File D:\git\src\IBK\IBK_DRFN\ProjSrc\SrcChartEx\ChartOCX\Include_Chart\ChartFormulateData.h
; File D:\git\src\IBK\IBK_DRFN\ProjSrc\SrcChartEx\ChartOCX\ChartFormulate\FindCalculatedPacket.cpp
;	COMDAT ?IsSubGraphIntoPacketListWhenThereisSubGraphName@CFindCalculatedPacket@@CAXABVCChartFormulateData@@AAVCCalculateData@@@Z
_TEXT	SEGMENT
$T2 = -28						; size = 4
$T3 = -24						; size = 4
$T4 = -20						; size = 4
_orgStr$ = -16						; size = 4
__$EHRec$ = -12						; size = 12
$T5 = 8							; size = 4
_chartFormulateData$ = 8				; size = 4
_CalculateData$ = 12					; size = 4
?IsSubGraphIntoPacketListWhenThereisSubGraphName@CFindCalculatedPacket@@CAXABVCChartFormulateData@@AAVCCalculateData@@@Z PROC ; CFindCalculatedPacket::IsSubGraphIntoPacketListWhenThereisSubGraphName, COMDAT

; 37   : {

  00000	55		 push	 ebp
  00001	8b ec		 mov	 ebp, esp
  00003	6a ff		 push	 -1
  00005	68 00 00 00 00	 push	 __ehhandler$?IsSubGraphIntoPacketListWhenThereisSubGraphName@CFindCalculatedPacket@@CAXABVCChartFormulateData@@AAVCCalculateData@@@Z
  0000a	64 a1 00 00 00
	00		 mov	 eax, DWORD PTR fs:0
  00010	50		 push	 eax
  00011	83 ec 10	 sub	 esp, 16			; 00000010H
  00014	53		 push	 ebx
  00015	56		 push	 esi
  00016	57		 push	 edi
  00017	a1 00 00 00 00	 mov	 eax, DWORD PTR ___security_cookie
  0001c	33 c5		 xor	 eax, ebp
  0001e	50		 push	 eax
  0001f	8d 45 f4	 lea	 eax, DWORD PTR __$EHRec$[ebp]
  00022	64 a3 00 00 00
	00		 mov	 DWORD PTR fs:0, eax

; 38   : 	int nIndex = CDataConversion::GetStringDataCount(chartFormulateData.GetSubGraphNames(), ",");

  00028	68 00 00 00 00	 push	 OFFSET ??_C@_01IHBHIGKO@?0@
  0002d	8d 4d e8	 lea	 ecx, DWORD PTR $T3[ebp]
  00030	ff 15 00 00 00
	00		 call	 DWORD PTR __imp_??0?$CStringT@DV?$StrTraitMFC_DLL@DV?$ChTraitsCRT@D@ATL@@@@@ATL@@QAE@PBD@Z
; File D:\git\src\IBK\IBK_DRFN\ProjSrc\SrcChartEx\ChartOCX\Include_Chart\ChartFormulateData.h

; 64   : 	CString		GetSubGraphNames( void) const							{	return m_strSubGraphNames;				}

  00036	8b 7d 08	 mov	 edi, DWORD PTR _chartFormulateData$[ebp]
  00039	8d 4d ec	 lea	 ecx, DWORD PTR $T4[ebp]
; File D:\git\src\IBK\IBK_DRFN\ProjSrc\SrcChartEx\ChartOCX\ChartFormulate\FindCalculatedPacket.cpp

; 38   : 	int nIndex = CDataConversion::GetStringDataCount(chartFormulateData.GetSubGraphNames(), ",");

  0003c	c7 45 fc 00 00
	00 00		 mov	 DWORD PTR __$EHRec$[ebp+8], 0
; File D:\git\src\IBK\IBK_DRFN\ProjSrc\SrcChartEx\ChartOCX\Include_Chart\ChartFormulateData.h

; 64   : 	CString		GetSubGraphNames( void) const							{	return m_strSubGraphNames;				}

  00043	8d 5f 10	 lea	 ebx, DWORD PTR [edi+16]
  00046	53		 push	 ebx
  00047	ff 15 00 00 00
	00		 call	 DWORD PTR __imp_??0?$CStringT@DV?$StrTraitMFC_DLL@DV?$ChTraitsCRT@D@ATL@@@@@ATL@@QAE@ABV01@@Z
; File D:\git\src\IBK\IBK_DRFN\ProjSrc\SrcChartEx\ChartOCX\ChartFormulate\FindCalculatedPacket.cpp

; 38   : 	int nIndex = CDataConversion::GetStringDataCount(chartFormulateData.GetSubGraphNames(), ",");

  0004d	8d 45 e8	 lea	 eax, DWORD PTR $T3[ebp]
  00050	c6 45 fc 01	 mov	 BYTE PTR __$EHRec$[ebp+8], 1
  00054	50		 push	 eax
  00055	8d 45 ec	 lea	 eax, DWORD PTR $T4[ebp]
  00058	50		 push	 eax
  00059	e8 00 00 00 00	 call	 ?GetStringDataCount@CDataConversion@@SAHABV?$CStringT@DV?$StrTraitMFC_DLL@DV?$ChTraitsCRT@D@ATL@@@@@ATL@@0@Z ; CDataConversion::GetStringDataCount
  0005e	83 c4 08	 add	 esp, 8
  00061	8d 4d ec	 lea	 ecx, DWORD PTR $T4[ebp]
  00064	8b f0		 mov	 esi, eax
  00066	ff 15 00 00 00
	00		 call	 DWORD PTR __imp_??1?$CStringT@DV?$StrTraitMFC_DLL@DV?$ChTraitsCRT@D@ATL@@@@@ATL@@QAE@XZ
  0006c	8d 4d e8	 lea	 ecx, DWORD PTR $T3[ebp]
  0006f	c7 45 fc ff ff
	ff ff		 mov	 DWORD PTR __$EHRec$[ebp+8], -1
  00076	ff 15 00 00 00
	00		 call	 DWORD PTR __imp_??1?$CStringT@DV?$StrTraitMFC_DLL@DV?$ChTraitsCRT@D@ATL@@@@@ATL@@QAE@XZ

; 39   : 	if(nIndex == 0)

  0007c	85 f6		 test	 esi, esi
  0007e	0f 84 e5 00 00
	00		 je	 $LN1@IsSubGraph

; 41   : 	CString orgStr = CDataConversion::GetStringData(chartFormulateData.GetSubGraphNames(), ",");

  00084	68 00 00 00 00	 push	 OFFSET ??_C@_01IHBHIGKO@?0@
  00089	8d 4d e4	 lea	 ecx, DWORD PTR $T2[ebp]
  0008c	ff 15 00 00 00
	00		 call	 DWORD PTR __imp_??0?$CStringT@DV?$StrTraitMFC_DLL@DV?$ChTraitsCRT@D@ATL@@@@@ATL@@QAE@PBD@Z
; File D:\git\src\IBK\IBK_DRFN\ProjSrc\SrcChartEx\ChartOCX\Include_Chart\ChartFormulateData.h

; 64   : 	CString		GetSubGraphNames( void) const							{	return m_strSubGraphNames;				}

  00092	53		 push	 ebx
  00093	8d 4d 08	 lea	 ecx, DWORD PTR $T5[ebp]
; File D:\git\src\IBK\IBK_DRFN\ProjSrc\SrcChartEx\ChartOCX\ChartFormulate\FindCalculatedPacket.cpp

; 41   : 	CString orgStr = CDataConversion::GetStringData(chartFormulateData.GetSubGraphNames(), ",");

  00096	c7 45 fc 02 00
	00 00		 mov	 DWORD PTR __$EHRec$[ebp+8], 2
; File D:\git\src\IBK\IBK_DRFN\ProjSrc\SrcChartEx\ChartOCX\Include_Chart\ChartFormulateData.h

; 64   : 	CString		GetSubGraphNames( void) const							{	return m_strSubGraphNames;				}

  0009d	ff 15 00 00 00
	00		 call	 DWORD PTR __imp_??0?$CStringT@DV?$StrTraitMFC_DLL@DV?$ChTraitsCRT@D@ATL@@@@@ATL@@QAE@ABV01@@Z
; File D:\git\src\IBK\IBK_DRFN\ProjSrc\SrcChartEx\ChartOCX\ChartFormulate\FindCalculatedPacket.cpp

; 41   : 	CString orgStr = CDataConversion::GetStringData(chartFormulateData.GetSubGraphNames(), ",");

  000a3	6a 01		 push	 1
  000a5	8d 45 e4	 lea	 eax, DWORD PTR $T2[ebp]
  000a8	c6 45 fc 03	 mov	 BYTE PTR __$EHRec$[ebp+8], 3
  000ac	50		 push	 eax
  000ad	8d 45 08	 lea	 eax, DWORD PTR $T5[ebp]
  000b0	50		 push	 eax
  000b1	8d 45 f0	 lea	 eax, DWORD PTR _orgStr$[ebp]
  000b4	50		 push	 eax
  000b5	e8 00 00 00 00	 call	 ?GetStringData@CDataConversion@@SA?AV?$CStringT@DV?$StrTraitMFC_DLL@DV?$ChTraitsCRT@D@ATL@@@@@ATL@@AAV23@ABV23@_N@Z ; CDataConversion::GetStringData
  000ba	83 c4 10	 add	 esp, 16			; 00000010H
  000bd	8d 4d 08	 lea	 ecx, DWORD PTR $T5[ebp]
  000c0	ff 15 00 00 00
	00		 call	 DWORD PTR __imp_??1?$CStringT@DV?$StrTraitMFC_DLL@DV?$ChTraitsCRT@D@ATL@@@@@ATL@@QAE@XZ
  000c6	8d 4d e4	 lea	 ecx, DWORD PTR $T2[ebp]
  000c9	c6 45 fc 06	 mov	 BYTE PTR __$EHRec$[ebp+8], 6
  000cd	ff 15 00 00 00
	00		 call	 DWORD PTR __imp_??1?$CStringT@DV?$StrTraitMFC_DLL@DV?$ChTraitsCRT@D@ATL@@@@@ATL@@QAE@XZ

; 42   : 	orgStr.TrimLeft();

  000d3	8d 4d f0	 lea	 ecx, DWORD PTR _orgStr$[ebp]
  000d6	ff 15 00 00 00
	00		 call	 DWORD PTR __imp_?TrimLeft@?$CStringT@DV?$StrTraitMFC_DLL@DV?$ChTraitsCRT@D@ATL@@@@@ATL@@QAEAAV12@XZ

; 43   : 	orgStr.TrimRight();

  000dc	8d 4d f0	 lea	 ecx, DWORD PTR _orgStr$[ebp]
  000df	ff 15 00 00 00
	00		 call	 DWORD PTR __imp_?TrimRight@?$CStringT@DV?$StrTraitMFC_DLL@DV?$ChTraitsCRT@D@ATL@@@@@ATL@@QAEAAV12@XZ

; 54   : 	if(strSubGraphName.CompareNoCase( _MTEXT( C3_BIG_NEWS)) == 0 || strSubGraphName.CompareNoCase( _MTEXT( C3_LOCK)) == 0) 

  000e5	a1 54 00 00 00	 mov	 eax, DWORD PTR ?g_iMetaTable@@3VIMetaTable@@A+84
  000ea	8d 4d f0	 lea	 ecx, DWORD PTR _orgStr$[ebp]
  000ed	ff b0 c8 04 00
	00		 push	 DWORD PTR [eax+1224]
  000f3	ff 15 00 00 00
	00		 call	 DWORD PTR __imp_?CompareNoCase@?$CStringT@DV?$StrTraitMFC_DLL@DV?$ChTraitsCRT@D@ATL@@@@@ATL@@QBEHPBD@Z
  000f9	85 c0		 test	 eax, eax
  000fb	74 40		 je	 SHORT $LN20@IsSubGraph
  000fd	a1 54 00 00 00	 mov	 eax, DWORD PTR ?g_iMetaTable@@3VIMetaTable@@A+84
  00102	8d 4d f0	 lea	 ecx, DWORD PTR _orgStr$[ebp]
  00105	ff b0 b8 04 00
	00		 push	 DWORD PTR [eax+1208]
  0010b	ff 15 00 00 00
	00		 call	 DWORD PTR __imp_?CompareNoCase@?$CStringT@DV?$StrTraitMFC_DLL@DV?$ChTraitsCRT@D@ATL@@@@@ATL@@QBEHPBD@Z
  00111	85 c0		 test	 eax, eax
  00113	74 28		 je	 SHORT $LN20@IsSubGraph

; 138  : 	CPacketList* pPacketList = chartFormulateData.GetPacketList();

  00115	8b 77 20	 mov	 esi, DWORD PTR [edi+32]

; 139  : 	CCalculateBaseData::CALCULATETYPE timetype = chartFormulateData.GetCalculateType();
; 140  : 
; 141  : 	CPacket* pPacket = pPacketList->GetBaseData(strSubGraphName);

  00118	8d 45 f0	 lea	 eax, DWORD PTR _orgStr$[ebp]
  0011b	6a 01		 push	 1
  0011d	51		 push	 ecx
  0011e	8b cc		 mov	 ecx, esp
  00120	50		 push	 eax
  00121	ff 15 00 00 00
	00		 call	 DWORD PTR __imp_??0?$CStringT@DV?$StrTraitMFC_DLL@DV?$ChTraitsCRT@D@ATL@@@@@ATL@@QAE@ABV01@@Z
  00127	8b ce		 mov	 ecx, esi
  00129	ff 15 00 00 00
	00		 call	 DWORD PTR __imp_?GetBaseData@CPacketList@@QAEPAVCPacket@@V?$CStringT@DV?$StrTraitMFC_DLL@DV?$ChTraitsCRT@D@ATL@@@@@ATL@@_N@Z

; 142  : 	if(pPacket == NULL)

  0012f	85 c0		 test	 eax, eax
  00131	74 2d		 je	 SHORT $LN23@IsSubGraph

; 143  : 		return;
; 144  : 
; 145  : 	CList<double, double>* pList = pPacket->GetnumericDataList();

  00133	8b c8		 mov	 ecx, eax
  00135	ff 15 00 00 00
	00		 call	 DWORD PTR __imp_?GetnumericDataList@CPacket@@QAEPAV?$CList@NN@@XZ
  0013b	eb 23		 jmp	 SHORT $LN23@IsSubGraph
$LN20@IsSubGraph:

; 118  : 	CPacketList* pPacketList = chartFormulateData.GetPacketList();

  0013d	8b 77 20	 mov	 esi, DWORD PTR [edi+32]

; 119  : 	CCalculateBaseData::CALCULATETYPE timetype = chartFormulateData.GetCalculateType();
; 120  : 
; 121  : 	CList<CString, CString>* pList = pPacketList->GetstrDataList(pPacketList->GetBaseData(strSubGraphName));

  00140	8d 45 f0	 lea	 eax, DWORD PTR _orgStr$[ebp]
  00143	6a 01		 push	 1
  00145	51		 push	 ecx
  00146	8b cc		 mov	 ecx, esp
  00148	50		 push	 eax
  00149	ff 15 00 00 00
	00		 call	 DWORD PTR __imp_??0?$CStringT@DV?$StrTraitMFC_DLL@DV?$ChTraitsCRT@D@ATL@@@@@ATL@@QAE@ABV01@@Z
  0014f	8b ce		 mov	 ecx, esi
  00151	ff 15 00 00 00
	00		 call	 DWORD PTR __imp_?GetBaseData@CPacketList@@QAEPAVCPacket@@V?$CStringT@DV?$StrTraitMFC_DLL@DV?$ChTraitsCRT@D@ATL@@@@@ATL@@_N@Z
  00157	50		 push	 eax
  00158	8b ce		 mov	 ecx, esi
  0015a	ff 15 00 00 00
	00		 call	 DWORD PTR __imp_?GetstrDataList@CPacketList@@QAEPAV?$CList@V?$CStringT@DV?$StrTraitMFC_DLL@DV?$ChTraitsCRT@D@ATL@@@@@ATL@@V12@@@PAVCPacket@@@Z
$LN23@IsSubGraph:

; 44   : 	IsSubGraphIntoPacketListbyNEWandINSERTandAPPEND(orgStr, chartFormulateData, CalculateData);
; 45   : }

  00160	8d 4d f0	 lea	 ecx, DWORD PTR _orgStr$[ebp]
  00163	ff 15 00 00 00
	00		 call	 DWORD PTR __imp_??1?$CStringT@DV?$StrTraitMFC_DLL@DV?$ChTraitsCRT@D@ATL@@@@@ATL@@QAE@XZ
$LN1@IsSubGraph:
  00169	8b 4d f4	 mov	 ecx, DWORD PTR __$EHRec$[ebp]
  0016c	64 89 0d 00 00
	00 00		 mov	 DWORD PTR fs:0, ecx
  00173	59		 pop	 ecx
  00174	5f		 pop	 edi
  00175	5e		 pop	 esi
  00176	5b		 pop	 ebx
  00177	8b e5		 mov	 esp, ebp
  00179	5d		 pop	 ebp
  0017a	c3		 ret	 0
_TEXT	ENDS
;	COMDAT text$x
text$x	SEGMENT
__unwindfunclet$?IsSubGraphIntoPacketListWhenThereisSubGraphName@CFindCalculatedPacket@@CAXABVCChartFormulateData@@AAVCCalculateData@@@Z$0:
  00000	8d 4d e8	 lea	 ecx, DWORD PTR $T3[ebp]
  00003	ff 25 00 00 00
	00		 jmp	 DWORD PTR __imp_??1?$CStringT@DV?$StrTraitMFC_DLL@DV?$ChTraitsCRT@D@ATL@@@@@ATL@@QAE@XZ
__unwindfunclet$?IsSubGraphIntoPacketListWhenThereisSubGraphName@CFindCalculatedPacket@@CAXABVCChartFormulateData@@AAVCCalculateData@@@Z$1:
  00009	8d 4d ec	 lea	 ecx, DWORD PTR $T4[ebp]
  0000c	ff 25 00 00 00
	00		 jmp	 DWORD PTR __imp_??1?$CStringT@DV?$StrTraitMFC_DLL@DV?$ChTraitsCRT@D@ATL@@@@@ATL@@QAE@XZ
__unwindfunclet$?IsSubGraphIntoPacketListWhenThereisSubGraphName@CFindCalculatedPacket@@CAXABVCChartFormulateData@@AAVCCalculateData@@@Z$2:
  00012	8d 4d e4	 lea	 ecx, DWORD PTR $T2[ebp]
  00015	ff 25 00 00 00
	00		 jmp	 DWORD PTR __imp_??1?$CStringT@DV?$StrTraitMFC_DLL@DV?$ChTraitsCRT@D@ATL@@@@@ATL@@QAE@XZ
__unwindfunclet$?IsSubGraphIntoPacketListWhenThereisSubGraphName@CFindCalculatedPacket@@CAXABVCChartFormulateData@@AAVCCalculateData@@@Z$3:
  0001b	8d 4d 08	 lea	 ecx, DWORD PTR $T5[ebp]
  0001e	ff 25 00 00 00
	00		 jmp	 DWORD PTR __imp_??1?$CStringT@DV?$StrTraitMFC_DLL@DV?$ChTraitsCRT@D@ATL@@@@@ATL@@QAE@XZ
__unwindfunclet$?IsSubGraphIntoPacketListWhenThereisSubGraphName@CFindCalculatedPacket@@CAXABVCChartFormulateData@@AAVCCalculateData@@@Z$4:
  00024	8d 4d f0	 lea	 ecx, DWORD PTR _orgStr$[ebp]
  00027	ff 25 00 00 00
	00		 jmp	 DWORD PTR __imp_??1?$CStringT@DV?$StrTraitMFC_DLL@DV?$ChTraitsCRT@D@ATL@@@@@ATL@@QAE@XZ
  0002d	cc		 int	 3
  0002e	cc		 int	 3
  0002f	cc		 int	 3
  00030	cc		 int	 3
  00031	cc		 int	 3
__ehhandler$?IsSubGraphIntoPacketListWhenThereisSubGraphName@CFindCalculatedPacket@@CAXABVCChartFormulateData@@AAVCCalculateData@@@Z:
  00032	90		 npad	 1
  00033	90		 npad	 1
  00034	8b 54 24 08	 mov	 edx, DWORD PTR [esp+8]
  00038	8d 42 0c	 lea	 eax, DWORD PTR [edx+12]
  0003b	8b 4a e0	 mov	 ecx, DWORD PTR [edx-32]
  0003e	33 c8		 xor	 ecx, eax
  00040	e8 00 00 00 00	 call	 @__security_check_cookie@4
  00045	b8 00 00 00 00	 mov	 eax, OFFSET __ehfuncinfo$?IsSubGraphIntoPacketListWhenThereisSubGraphName@CFindCalculatedPacket@@CAXABVCChartFormulateData@@AAVCCalculateData@@@Z
  0004a	e9 00 00 00 00	 jmp	 ___CxxFrameHandler3
text$x	ENDS
?IsSubGraphIntoPacketListWhenThereisSubGraphName@CFindCalculatedPacket@@CAXABVCChartFormulateData@@AAVCCalculateData@@@Z ENDP ; CFindCalculatedPacket::IsSubGraphIntoPacketListWhenThereisSubGraphName
; Function compile flags: /Ogtp
; File D:\git\src\IBK\IBK_DRFN\ProjSrc\SrcChartEx\ChartOCX\ChartFormulate\FindCalculatedPacket.cpp
;	COMDAT ?WhenPacketIsStringData@CFindCalculatedPacket@@CAXABV?$CStringT@DV?$StrTraitMFC_DLL@DV?$ChTraitsCRT@D@ATL@@@@@ATL@@ABVCChartFormulateData@@AAVCCalculateData@@@Z
_TEXT	SEGMENT
_strSubGraphName$ = 8					; size = 4
_chartFormulateData$ = 12				; size = 4
_CalculateData$ = 16					; size = 4
?WhenPacketIsStringData@CFindCalculatedPacket@@CAXABV?$CStringT@DV?$StrTraitMFC_DLL@DV?$ChTraitsCRT@D@ATL@@@@@ATL@@ABVCChartFormulateData@@AAVCCalculateData@@@Z PROC ; CFindCalculatedPacket::WhenPacketIsStringData, COMDAT

; 117  : {

  00000	55		 push	 ebp
  00001	8b ec		 mov	 ebp, esp

; 118  : 	CPacketList* pPacketList = chartFormulateData.GetPacketList();

  00003	8b 45 0c	 mov	 eax, DWORD PTR _chartFormulateData$[ebp]
  00006	56		 push	 esi

; 119  : 	CCalculateBaseData::CALCULATETYPE timetype = chartFormulateData.GetCalculateType();
; 120  : 
; 121  : 	CList<CString, CString>* pList = pPacketList->GetstrDataList(pPacketList->GetBaseData(strSubGraphName));

  00007	6a 01		 push	 1
  00009	51		 push	 ecx
  0000a	8b 70 20	 mov	 esi, DWORD PTR [eax+32]
  0000d	8b cc		 mov	 ecx, esp
  0000f	ff 75 08	 push	 DWORD PTR _strSubGraphName$[ebp]
  00012	ff 15 00 00 00
	00		 call	 DWORD PTR __imp_??0?$CStringT@DV?$StrTraitMFC_DLL@DV?$ChTraitsCRT@D@ATL@@@@@ATL@@QAE@ABV01@@Z
  00018	8b ce		 mov	 ecx, esi
  0001a	ff 15 00 00 00
	00		 call	 DWORD PTR __imp_?GetBaseData@CPacketList@@QAEPAVCPacket@@V?$CStringT@DV?$StrTraitMFC_DLL@DV?$ChTraitsCRT@D@ATL@@@@@ATL@@_N@Z
  00020	50		 push	 eax
  00021	8b ce		 mov	 ecx, esi
  00023	ff 15 00 00 00
	00		 call	 DWORD PTR __imp_?GetstrDataList@CPacketList@@QAEPAV?$CList@V?$CStringT@DV?$StrTraitMFC_DLL@DV?$ChTraitsCRT@D@ATL@@@@@ATL@@V12@@@PAVCPacket@@@Z

; 122  : 
; 123  : 	if(timetype == CCalculateBaseData::TRDATA_CAL) {
; 124  : //		if(pPacketList->GetBaseData(strSubGraphName) == NULL || pList == NULL || pList->GetCount() <= 0) 
; 125  : //			CalculateData.SetPacketNameForCal(chartFormulateData.GetSubGraphNames());
; 126  : //		else if(!IsFinishCalulationWhenNew(strSubGraphName, pPacketList->GetMaxCount(), pList->GetCount(), ConditionList))
; 127  : //			CalculateData.SetPacketNamesForCal(chartFormulateData.GetSubGraphNames());	
; 128  : 
; 129  : 	}
; 130  : 	//real은 무조건 다시 계산한다.
; 131  : //	else if(timetype == CCalculateBaseData::REALDATA_CAL) 
; 132  : //		CalculateData.SetPacketNameForCal(chartFormulateData.GetSubGraphNames());
; 133  : 
; 134  : }

  00029	5e		 pop	 esi
  0002a	5d		 pop	 ebp
  0002b	c3		 ret	 0
?WhenPacketIsStringData@CFindCalculatedPacket@@CAXABV?$CStringT@DV?$StrTraitMFC_DLL@DV?$ChTraitsCRT@D@ATL@@@@@ATL@@ABVCChartFormulateData@@AAVCCalculateData@@@Z ENDP ; CFindCalculatedPacket::WhenPacketIsStringData
_TEXT	ENDS
; Function compile flags: /Ogtp
; File D:\git\src\IBK\IBK_DRFN\ProjSrc\SrcChartEx\ChartOCX\ChartFormulate\FindCalculatedPacket.cpp
;	COMDAT ?WhenPacketIsIntData@CFindCalculatedPacket@@CAXABV?$CStringT@DV?$StrTraitMFC_DLL@DV?$ChTraitsCRT@D@ATL@@@@@ATL@@ABVCChartFormulateData@@AAVCCalculateData@@@Z
_TEXT	SEGMENT
_strSubGraphName$ = 8					; size = 4
_chartFormulateData$ = 12				; size = 4
_CalculateData$ = 16					; size = 4
?WhenPacketIsIntData@CFindCalculatedPacket@@CAXABV?$CStringT@DV?$StrTraitMFC_DLL@DV?$ChTraitsCRT@D@ATL@@@@@ATL@@ABVCChartFormulateData@@AAVCCalculateData@@@Z PROC ; CFindCalculatedPacket::WhenPacketIsIntData, COMDAT

; 137  : {

  00000	55		 push	 ebp
  00001	8b ec		 mov	 ebp, esp

; 138  : 	CPacketList* pPacketList = chartFormulateData.GetPacketList();

  00003	8b 45 0c	 mov	 eax, DWORD PTR _chartFormulateData$[ebp]
  00006	56		 push	 esi

; 139  : 	CCalculateBaseData::CALCULATETYPE timetype = chartFormulateData.GetCalculateType();
; 140  : 
; 141  : 	CPacket* pPacket = pPacketList->GetBaseData(strSubGraphName);

  00007	6a 01		 push	 1
  00009	51		 push	 ecx
  0000a	8b 70 20	 mov	 esi, DWORD PTR [eax+32]
  0000d	8b cc		 mov	 ecx, esp
  0000f	ff 75 08	 push	 DWORD PTR _strSubGraphName$[ebp]
  00012	ff 15 00 00 00
	00		 call	 DWORD PTR __imp_??0?$CStringT@DV?$StrTraitMFC_DLL@DV?$ChTraitsCRT@D@ATL@@@@@ATL@@QAE@ABV01@@Z
  00018	8b ce		 mov	 ecx, esi
  0001a	ff 15 00 00 00
	00		 call	 DWORD PTR __imp_?GetBaseData@CPacketList@@QAEPAVCPacket@@V?$CStringT@DV?$StrTraitMFC_DLL@DV?$ChTraitsCRT@D@ATL@@@@@ATL@@_N@Z

; 142  : 	if(pPacket == NULL)

  00020	85 c0		 test	 eax, eax
  00022	74 0a		 je	 SHORT $LN3@WhenPacket

; 143  : 		return;
; 144  : 
; 145  : 	CList<double, double>* pList = pPacket->GetnumericDataList();

  00024	8b c8		 mov	 ecx, eax

; 146  : 	if(timetype == CCalculateBaseData::TRDATA_CAL) {
; 147  : //		if(pPacketList->GetBaseData(strSubGraphName) == NULL) 
; 148  : //			CalculateData.SetPacketNameForCal(chartFormulateData.GetSubGraphNames());
; 149  : //		else if(!IsFinishCalulationWhenNew(strSubGraphName, pPacketList->GetMaxCount(), pList->GetCount(), ConditionList))
; 150  : //			CalculateData.SetPacketNamesForCal(ChartFormulateData.GetSubGraphNames());	
; 151  : 	}
; 152  : 	//real은 무조건 다시 계산한다.
; 153  : //	else if(timetype == CCalculateBaseData::REALDATA_CAL) 
; 154  : //		CalculateData.SetPacketNameForCal(chartFormulateData.GetSubGraphNames());
; 155  : 
; 156  : }

  00026	5e		 pop	 esi
  00027	5d		 pop	 ebp

; 143  : 		return;
; 144  : 
; 145  : 	CList<double, double>* pList = pPacket->GetnumericDataList();

  00028	ff 25 00 00 00
	00		 jmp	 DWORD PTR __imp_?GetnumericDataList@CPacket@@QAEPAV?$CList@NN@@XZ
$LN3@WhenPacket:

; 146  : 	if(timetype == CCalculateBaseData::TRDATA_CAL) {
; 147  : //		if(pPacketList->GetBaseData(strSubGraphName) == NULL) 
; 148  : //			CalculateData.SetPacketNameForCal(chartFormulateData.GetSubGraphNames());
; 149  : //		else if(!IsFinishCalulationWhenNew(strSubGraphName, pPacketList->GetMaxCount(), pList->GetCount(), ConditionList))
; 150  : //			CalculateData.SetPacketNamesForCal(ChartFormulateData.GetSubGraphNames());	
; 151  : 	}
; 152  : 	//real은 무조건 다시 계산한다.
; 153  : //	else if(timetype == CCalculateBaseData::REALDATA_CAL) 
; 154  : //		CalculateData.SetPacketNameForCal(chartFormulateData.GetSubGraphNames());
; 155  : 
; 156  : }

  0002e	5e		 pop	 esi
  0002f	5d		 pop	 ebp
  00030	c3		 ret	 0
?WhenPacketIsIntData@CFindCalculatedPacket@@CAXABV?$CStringT@DV?$StrTraitMFC_DLL@DV?$ChTraitsCRT@D@ATL@@@@@ATL@@ABVCChartFormulateData@@AAVCCalculateData@@@Z ENDP ; CFindCalculatedPacket::WhenPacketIsIntData
_TEXT	ENDS
; Function compile flags: /Ogtp
; File D:\git\src\IBK\IBK_DRFN\ProjSrc\SrcChartEx\ChartOCX\ChartFormulate\FindCalculatedPacket.cpp
; File D:\git\src\IBK\IBK_DRFN\ProjSrc\SrcChartEx\ChartOCX\Include_Chart\ChartFormulateData.h
; File D:\git\src\IBK\IBK_DRFN\ProjSrc\SrcChartEx\ChartOCX\ChartFormulate\FindCalculatedPacket.cpp
;	COMDAT ?IsSubGraphIntoPacketList@CFindCalculatedPacket@@SA_NABVCChartFormulateData@@AAVCCalculateData@@@Z
_TEXT	SEGMENT
$T1 = -4						; size = 4
$T2 = -4						; size = 4
_chartFormulateData$ = 8				; size = 4
$T3 = 11						; size = 1
_CalculateData$ = 12					; size = 4
?IsSubGraphIntoPacketList@CFindCalculatedPacket@@SA_NABVCChartFormulateData@@AAVCCalculateData@@@Z PROC ; CFindCalculatedPacket::IsSubGraphIntoPacketList, COMDAT

; 27   : {

  00000	55		 push	 ebp
  00001	8b ec		 mov	 ebp, esp
  00003	51		 push	 ecx
  00004	53		 push	 ebx
  00005	56		 push	 esi

; 28   : 	IsSubGraphIntoPacketListWhenThereisSubGraphName(chartFormulateData, CalculateData);

  00006	ff 75 0c	 push	 DWORD PTR _CalculateData$[ebp]
  00009	8b 75 08	 mov	 esi, DWORD PTR _chartFormulateData$[ebp]
  0000c	33 db		 xor	 ebx, ebx
  0000e	56		 push	 esi
  0000f	89 5d fc	 mov	 DWORD PTR $T1[ebp], ebx
  00012	e8 00 00 00 00	 call	 ?IsSubGraphIntoPacketListWhenThereisSubGraphName@CFindCalculatedPacket@@CAXABVCChartFormulateData@@AAVCCalculateData@@@Z ; CFindCalculatedPacket::IsSubGraphIntoPacketListWhenThereisSubGraphName
  00017	83 c4 08	 add	 esp, 8

; 29   : 	if(chartFormulateData.GetCalculateType() != CCalculateBaseData::TRDATA_CAL || chartFormulateData.GetSubGraphNames().GetLength() > 0)

  0001a	39 1e		 cmp	 DWORD PTR [esi], ebx
  0001c	75 1f		 jne	 SHORT $LN5@IsSubGraph
; File D:\git\src\IBK\IBK_DRFN\ProjSrc\SrcChartEx\ChartOCX\Include_Chart\ChartFormulateData.h

; 64   : 	CString		GetSubGraphNames( void) const							{	return m_strSubGraphNames;				}

  0001e	8d 46 10	 lea	 eax, DWORD PTR [esi+16]
  00021	50		 push	 eax
  00022	8d 4d fc	 lea	 ecx, DWORD PTR $T2[ebp]
  00025	ff 15 00 00 00
	00		 call	 DWORD PTR __imp_??0?$CStringT@DV?$StrTraitMFC_DLL@DV?$ChTraitsCRT@D@ATL@@@@@ATL@@QAE@ABV01@@Z
; File D:\git\src\IBK\IBK_DRFN\ProjSrc\SrcChartEx\ChartOCX\ChartFormulate\FindCalculatedPacket.cpp

; 29   : 	if(chartFormulateData.GetCalculateType() != CCalculateBaseData::TRDATA_CAL || chartFormulateData.GetSubGraphNames().GetLength() > 0)

  0002b	8b 45 fc	 mov	 eax, DWORD PTR $T2[ebp]
  0002e	bb 03 00 00 00	 mov	 ebx, 3
  00033	c6 45 0b 00	 mov	 BYTE PTR $T3[ebp], 0
  00037	83 78 f4 00	 cmp	 DWORD PTR [eax-12], 0
  0003b	7e 04		 jle	 SHORT $LN6@IsSubGraph
$LN5@IsSubGraph:
  0003d	c6 45 0b 01	 mov	 BYTE PTR $T3[ebp], 1
$LN6@IsSubGraph:
  00041	5e		 pop	 esi
  00042	f6 c3 01	 test	 bl, 1
  00045	5b		 pop	 ebx
  00046	74 09		 je	 SHORT $LN9@IsSubGraph
  00048	8d 4d fc	 lea	 ecx, DWORD PTR $T2[ebp]
  0004b	ff 15 00 00 00
	00		 call	 DWORD PTR __imp_??1?$CStringT@DV?$StrTraitMFC_DLL@DV?$ChTraitsCRT@D@ATL@@@@@ATL@@QAE@XZ
$LN9@IsSubGraph:
  00051	80 7d 0b 00	 cmp	 BYTE PTR $T3[ebp], 0
  00055	0f 94 c0	 sete	 al

; 30   : 		return false;
; 31   : 	else
; 32   : 		return true;
; 33   : }

  00058	8b e5		 mov	 esp, ebp
  0005a	5d		 pop	 ebp
  0005b	c3		 ret	 0
?IsSubGraphIntoPacketList@CFindCalculatedPacket@@SA_NABVCChartFormulateData@@AAVCCalculateData@@@Z ENDP ; CFindCalculatedPacket::IsSubGraphIntoPacketList
_TEXT	ENDS
; Function compile flags: /Ogtp
; File D:\git\src\IBK\IBK_DRFN\ProjSrc\SrcChartEx\ChartOCX\ChartFormulate\FindCalculatedPacket.cpp
;	COMDAT ?__empty_global_delete@@YAXPAXI@Z
_TEXT	SEGMENT
___formal$ = 8						; size = 4
___formal$ = 12						; size = 4
?__empty_global_delete@@YAXPAXI@Z PROC			; __empty_global_delete, COMDAT

  00000	c2 00 00	 ret	 0
?__empty_global_delete@@YAXPAXI@Z ENDP			; __empty_global_delete
_TEXT	ENDS
; Function compile flags: /Ogtp
; File D:\git\src\IBK\IBK_DRFN\ProjSrc\SrcChartEx\ChartOCX\ChartFormulate\FindCalculatedPacket.cpp
;	COMDAT ?__empty_global_delete@@YAXPAX@Z
_TEXT	SEGMENT
___formal$ = 8						; size = 4
?__empty_global_delete@@YAXPAX@Z PROC			; __empty_global_delete, COMDAT

  00000	c2 00 00	 ret	 0
?__empty_global_delete@@YAXPAX@Z ENDP			; __empty_global_delete
_TEXT	ENDS
END
