; Listing generated by Microsoft (R) Optimizing Compiler Version 19.29.30145.0 

	TITLE	D:\git\src\IBK\IBK_DRFN\#DRfn-CS\_Obj\ChartFormulate\Indicator.obj
	.686P
	.XMM
	include listing.inc
	.model	flat

INCLUDELIB MSVCRT
INCLUDELIB OLDNAMES

PUBLIC	??_C@_0N@FMCKNONO@SignalPacket@			; `string'
;	COMDAT ??_C@_0N@FMCKNONO@SignalPacket@
CONST	SEGMENT
??_C@_0N@FMCKNONO@SignalPacket@ DB 'SignalPacket', 00H	; `string'
CONST	ENDS
PUBLIC	?__empty_global_delete@@YAXPAX@Z		; __empty_global_delete
PUBLIC	?__empty_global_delete@@YAXPAXI@Z		; __empty_global_delete
PUBLIC	??1CObject@@UAE@XZ				; CObject::~CObject
PUBLIC	?Serialize@CObject@@UAEXAAVCArchive@@@Z		; CObject::Serialize
PUBLIC	?AssertValid@CObject@@UBEXXZ			; CObject::AssertValid
PUBLIC	?Dump@CObject@@UBEXAAVCDumpContext@@@Z		; CObject::Dump
PUBLIC	??HATL@@YA?AV?$CStringT@DV?$StrTraitMFC_DLL@DV?$ChTraitsCRT@D@ATL@@@@@0@ABV10@0@Z ; ATL::operator+
PUBLIC	??0CIndicator@@QAE@W4EDDC_INDICATOR_ID@IMetaTable@@@Z ; CIndicator::CIndicator
PUBLIC	??1CIndicator@@UAE@XZ				; CIndicator::~CIndicator
PUBLIC	?GetID@CIndicator@@QAE?AW4EDDC_INDICATOR_ID@IMetaTable@@XZ ; CIndicator::GetID
PUBLIC	?DeleteDataInPacket@CIndicator@@UAEXABVCChartFormulateData@@PAVCGraphCalculateData@@PAVCIndicatorInfo@@@Z ; CIndicator::DeleteDataInPacket
PUBLIC	?GetPacket@CIndicator@@QAEPAVCPacket@@PAVCPacketList@@ABV?$CStringT@DV?$StrTraitMFC_DLL@DV?$ChTraitsCRT@D@ATL@@@@@ATL@@W4CALCULATETYPE@CCalculateBaseData@@ABVCPoint@@@Z ; CIndicator::GetPacket
PUBLIC	?GetSignalData@CIndicator@@IAEXABVCPoint@@HNNABV?$CList@NN@@PAVCPacket@@@Z ; CIndicator::GetSignalData
PUBLIC	?GetSignalData@CIndicator@@IAEXABVCPoint@@HNNPAVCPacket@@1@Z ; CIndicator::GetSignalData
PUBLIC	?GetstrDataList@CIndicator@@IAEPAV?$CList@V?$CStringT@DV?$StrTraitMFC_DLL@DV?$ChTraitsCRT@D@ATL@@@@@ATL@@V12@@@PAVCPacket@@@Z ; CIndicator::GetstrDataList
PUBLIC	?GetSignalPacket@CIndicator@@IAE_NPAVCPacketList@@AAV?$CStringT@DV?$StrTraitMFC_DLL@DV?$ChTraitsCRT@D@ATL@@@@@ATL@@AAPAVCPacket@@@Z ; CIndicator::GetSignalPacket
PUBLIC	?GetPacket@CIndicator@@IAEPAVCPacket@@ABVCPoint@@ABVCChartFormulateData@@@Z ; CIndicator::GetPacket
PUBLIC	?MakeZeroMemory@CIndicator@@IAEXHPAN@Z		; CIndicator::MakeZeroMemory
PUBLIC	?FindPosition@CIndicator@@IBEPAU__POSITION@@HABV?$CList@HH@@@Z ; CIndicator::FindPosition
PUBLIC	?FindPosition@CIndicator@@IBEPAU__POSITION@@HABV?$CList@NN@@@Z ; CIndicator::FindPosition
PUBLIC	?FindPosition@CIndicator@@IBEPAU__POSITION@@HABV?$CList@V?$CStringT@DV?$StrTraitMFC_DLL@DV?$ChTraitsCRT@D@ATL@@@@@ATL@@V12@@@@Z ; CIndicator::FindPosition
PUBLIC	?IsValidPacket@CIndicator@@IAE_NPAVCPacket@@@Z	; CIndicator::IsValidPacket
PUBLIC	?IsValidPacket@CIndicator@@IAE_NPBV?$CList@NN@@@Z ; CIndicator::IsValidPacket
PUBLIC	?GetAt@CIndicator@@IAENPBV?$CList@NN@@H@Z	; CIndicator::GetAt
PUBLIC	?GetAt@CIndicator@@IAENPBV?$CList@NN@@AAPAU__POSITION@@@Z ; CIndicator::GetAt
PUBLIC	?GetAt@CIndicator@@IAE?AV?$CStringT@DV?$StrTraitMFC_DLL@DV?$ChTraitsCRT@D@ATL@@@@@ATL@@PBV?$CList@V?$CStringT@DV?$StrTraitMFC_DLL@DV?$ChTraitsCRT@D@ATL@@@@@ATL@@V12@@@H@Z ; CIndicator::GetAt
PUBLIC	?GetAt@CIndicator@@IAE?AV?$CStringT@DV?$StrTraitMFC_DLL@DV?$ChTraitsCRT@D@ATL@@@@@ATL@@PBV?$CList@V?$CStringT@DV?$StrTraitMFC_DLL@DV?$ChTraitsCRT@D@ATL@@@@@ATL@@V12@@@AAPAU__POSITION@@@Z ; CIndicator::GetAt
PUBLIC	?GetNext@CIndicator@@IAENPBV?$CList@NN@@AAPAU__POSITION@@@Z ; CIndicator::GetNext
PUBLIC	?GetNext@CIndicator@@IAE?AV?$CStringT@DV?$StrTraitMFC_DLL@DV?$ChTraitsCRT@D@ATL@@@@@ATL@@PBV?$CList@V?$CStringT@DV?$StrTraitMFC_DLL@DV?$ChTraitsCRT@D@ATL@@@@@ATL@@V12@@@AAPAU__POSITION@@@Z ; CIndicator::GetNext
PUBLIC	?GetKindMA@CIndicator@@IAENABVCChartFormulateData@@PAV?$CList@NN@@@Z ; CIndicator::GetKindMA
PUBLIC	?GetCondition@CIndicator@@IBENABHPAV?$CList@NN@@@Z ; CIndicator::GetCondition
PUBLIC	?GetPreEndPrice@CIndicator@@IAEHPAV?$CList@NN@@W4HORZSCALEDRAWERTYPE@CScaleBaseData@@H@Z ; CIndicator::GetPreEndPrice
PUBLIC	?SeachCalForPacketName@CIndicator@@IAE_NABV?$CStringT@DV?$StrTraitMFC_DLL@DV?$ChTraitsCRT@D@ATL@@@@@ATL@@0@Z ; CIndicator::SeachCalForPacketName
PUBLIC	?MakePacket_HighLowClose@CIndicator@@IAEPAVCPacket@@PAVCPacketList@@W4CALCULATETYPE@CCalculateBaseData@@ABVCPoint@@@Z ; CIndicator::MakePacket_HighLowClose
PUBLIC	?MakePacket_HighLow@CIndicator@@IAEPAVCPacket@@PAVCPacketList@@W4CALCULATETYPE@CCalculateBaseData@@ABVCPoint@@@Z ; CIndicator::MakePacket_HighLow
PUBLIC	?ClearPacketData@CIndicator@@IAE_NPAVCPacket@@@Z ; CIndicator::ClearPacketData
PUBLIC	?SetData@CIndicator@@IAEXABVCPoint@@HNPAV?$CList@NN@@@Z ; CIndicator::SetData
PUBLIC	?SetData@CIndicator@@IAEXABVCPoint@@HNPAVCPacket@@@Z ; CIndicator::SetData
PUBLIC	?SetData@CIndicator@@IAEXABVCPoint@@HABV?$CStringT@DV?$StrTraitMFC_DLL@DV?$ChTraitsCRT@D@ATL@@@@@ATL@@PAVCPacket@@@Z ; CIndicator::SetData
PUBLIC	?SetGraphPacketList@CIndicator@@IAE_NPAVCPacketList@@PAVCGraphCalculateData@@AAPAVCIndicatorInfo@@AAPAVCPacket@@@Z ; CIndicator::SetGraphPacketList
PUBLIC	?SetGraphPacketList@CIndicator@@IAE_NPAVCPacketList@@PAVCGraphCalculateData@@AAPAVCIndicatorInfo@@AAPAVCPacket@@3@Z ; CIndicator::SetGraphPacketList
PUBLIC	?SetPacketTypes@CIndicator@@IAEXPAVCPacket@@ABV?$CStringT@DV?$StrTraitMFC_DLL@DV?$ChTraitsCRT@D@ATL@@@@@ATL@@1H@Z ; CIndicator::SetPacketTypes
PUBLIC	?InCaseNoPacketPointer@CIndicator@@IAE_NPAVCPacketList@@AAPAVCIndicatorInfo@@AAPAVCPacket@@PAVCSubGraphPacketList@@@Z ; CIndicator::InCaseNoPacketPointer
PUBLIC	?InCaseNoPacketPointer@CIndicator@@IAE_NPAVCPacketList@@AAPAVCIndicatorInfo@@AAPAVCPacket@@2PAVCGraphCalculateData@@@Z ; CIndicator::InCaseNoPacketPointer
PUBLIC	?IsIndicatorCalculated@CIndicator@@IAE_NW4CALCULATETYPE@CCalculateBaseData@@PAVCPacket@@@Z ; CIndicator::IsIndicatorCalculated
PUBLIC	?GetnumericDataList@CIndicator@@IAEPAV?$CList@NN@@PAVCPacket@@@Z ; CIndicator::GetnumericDataList
PUBLIC	?GetPacketType@CIndicator@@IBE?AV?$CStringT@DV?$StrTraitMFC_DLL@DV?$ChTraitsCRT@D@ATL@@@@@ATL@@PAVCPacketList@@@Z ; CIndicator::GetPacketType
PUBLIC	?GetSimpleMA@CIndicator@@IAEXABVCPoint@@ABNPAV?$CList@NN@@PAVCPacket@@H@Z ; CIndicator::GetSimpleMA
PUBLIC	??0CIndicator@@QAE@ABV0@@Z			; CIndicator::CIndicator
PUBLIC	??4CIndicator@@QAEAAV0@ABV0@@Z			; CIndicator::operator=
PUBLIC	??_GCIndicator@@UAEPAXI@Z			; CIndicator::`scalar deleting destructor'
PUBLIC	??_ECIndicator@@UAEPAXI@Z			; CIndicator::`vector deleting destructor'
PUBLIC	?AddTail@?$CList@NN@@QAEPAU__POSITION@@N@Z	; CList<double,double>::AddTail
PUBLIC	?NewNode@?$CList@NN@@IAEPAUCNode@1@PAU21@0@Z	; CList<double,double>::NewNode
PUBLIC	??0?$CList@V?$CStringT@DV?$StrTraitMFC_DLL@DV?$ChTraitsCRT@D@ATL@@@@@ATL@@V12@@@QAE@H@Z ; CList<ATL::CStringT<char,StrTraitMFC_DLL<char,ATL::ChTraitsCRT<char> > >,ATL::CStringT<char,StrTraitMFC_DLL<char,ATL::ChTraitsCRT<char> > > >::CList<ATL::CStringT<char,StrTraitMFC_DLL<char,ATL::ChTraitsCRT<char> > >,ATL::CStringT<char,StrTraitMFC_DLL<char,ATL::ChTraitsCRT<char> > > >
PUBLIC	?AddTail@?$CList@V?$CStringT@DV?$StrTraitMFC_DLL@DV?$ChTraitsCRT@D@ATL@@@@@ATL@@V12@@@QAEPAU__POSITION@@V?$CStringT@DV?$StrTraitMFC_DLL@DV?$ChTraitsCRT@D@ATL@@@@@ATL@@@Z ; CList<ATL::CStringT<char,StrTraitMFC_DLL<char,ATL::ChTraitsCRT<char> > >,ATL::CStringT<char,StrTraitMFC_DLL<char,ATL::ChTraitsCRT<char> > > >::AddTail
PUBLIC	?RemoveAll@?$CList@V?$CStringT@DV?$StrTraitMFC_DLL@DV?$ChTraitsCRT@D@ATL@@@@@ATL@@V12@@@QAEXXZ ; CList<ATL::CStringT<char,StrTraitMFC_DLL<char,ATL::ChTraitsCRT<char> > >,ATL::CStringT<char,StrTraitMFC_DLL<char,ATL::ChTraitsCRT<char> > > >::RemoveAll
PUBLIC	?NewNode@?$CList@V?$CStringT@DV?$StrTraitMFC_DLL@DV?$ChTraitsCRT@D@ATL@@@@@ATL@@V12@@@IAEPAUCNode@1@PAU21@0@Z ; CList<ATL::CStringT<char,StrTraitMFC_DLL<char,ATL::ChTraitsCRT<char> > >,ATL::CStringT<char,StrTraitMFC_DLL<char,ATL::ChTraitsCRT<char> > > >::NewNode
PUBLIC	??1?$CList@V?$CStringT@DV?$StrTraitMFC_DLL@DV?$ChTraitsCRT@D@ATL@@@@@ATL@@V12@@@UAE@XZ ; CList<ATL::CStringT<char,StrTraitMFC_DLL<char,ATL::ChTraitsCRT<char> > >,ATL::CStringT<char,StrTraitMFC_DLL<char,ATL::ChTraitsCRT<char> > > >::~CList<ATL::CStringT<char,StrTraitMFC_DLL<char,ATL::ChTraitsCRT<char> > >,ATL::CStringT<char,StrTraitMFC_DLL<char,ATL::ChTraitsCRT<char> > > >
PUBLIC	?Serialize@?$CList@V?$CStringT@DV?$StrTraitMFC_DLL@DV?$ChTraitsCRT@D@ATL@@@@@ATL@@V12@@@UAEXAAVCArchive@@@Z ; CList<ATL::CStringT<char,StrTraitMFC_DLL<char,ATL::ChTraitsCRT<char> > >,ATL::CStringT<char,StrTraitMFC_DLL<char,ATL::ChTraitsCRT<char> > > >::Serialize
PUBLIC	??_G?$CList@V?$CStringT@DV?$StrTraitMFC_DLL@DV?$ChTraitsCRT@D@ATL@@@@@ATL@@V12@@@UAEPAXI@Z ; CList<ATL::CStringT<char,StrTraitMFC_DLL<char,ATL::ChTraitsCRT<char> > >,ATL::CStringT<char,StrTraitMFC_DLL<char,ATL::ChTraitsCRT<char> > > >::`scalar deleting destructor'
PUBLIC	??_C@_00CNPNBAHC@@				; `string'
PUBLIC	??_R0?AVCObject@@@8				; CObject `RTTI Type Descriptor'
PUBLIC	??_R3CObject@@8					; CObject::`RTTI Class Hierarchy Descriptor'
PUBLIC	??_R2CObject@@8					; CObject::`RTTI Base Class Array'
PUBLIC	??_R1A@?0A@EA@CObject@@8			; CObject::`RTTI Base Class Descriptor at (0,-1,0,64)'
PUBLIC	??_7CIndicator@@6B@				; CIndicator::`vftable'
PUBLIC	??_7?$CList@V?$CStringT@DV?$StrTraitMFC_DLL@DV?$ChTraitsCRT@D@ATL@@@@@ATL@@V12@@@6B@ ; CList<ATL::CStringT<char,StrTraitMFC_DLL<char,ATL::ChTraitsCRT<char> > >,ATL::CStringT<char,StrTraitMFC_DLL<char,ATL::ChTraitsCRT<char> > > >::`vftable'
PUBLIC	??_C@_01IHBHIGKO@?0@				; `string'
PUBLIC	??_C@_01IDAFKMJL@_@				; `string'
PUBLIC	??_C@_02JMABBILH@x1@				; `string'
PUBLIC	??_R4CIndicator@@6B@				; CIndicator::`RTTI Complete Object Locator'
PUBLIC	??_R0?AVCIndicator@@@8				; CIndicator `RTTI Type Descriptor'
PUBLIC	??_R3CIndicator@@8				; CIndicator::`RTTI Class Hierarchy Descriptor'
PUBLIC	??_R2CIndicator@@8				; CIndicator::`RTTI Base Class Array'
PUBLIC	??_R1A@?0A@EA@CIndicator@@8			; CIndicator::`RTTI Base Class Descriptor at (0,-1,0,64)'
PUBLIC	??_R4?$CList@V?$CStringT@DV?$StrTraitMFC_DLL@DV?$ChTraitsCRT@D@ATL@@@@@ATL@@V12@@@6B@ ; CList<ATL::CStringT<char,StrTraitMFC_DLL<char,ATL::ChTraitsCRT<char> > >,ATL::CStringT<char,StrTraitMFC_DLL<char,ATL::ChTraitsCRT<char> > > >::`RTTI Complete Object Locator'
PUBLIC	??_R0?AV?$CList@V?$CStringT@DV?$StrTraitMFC_DLL@DV?$ChTraitsCRT@D@ATL@@@@@ATL@@V12@@@@8 ; CList<ATL::CStringT<char,StrTraitMFC_DLL<char,ATL::ChTraitsCRT<char> > >,ATL::CStringT<char,StrTraitMFC_DLL<char,ATL::ChTraitsCRT<char> > > > `RTTI Type Descriptor'
PUBLIC	??_R3?$CList@V?$CStringT@DV?$StrTraitMFC_DLL@DV?$ChTraitsCRT@D@ATL@@@@@ATL@@V12@@@8 ; CList<ATL::CStringT<char,StrTraitMFC_DLL<char,ATL::ChTraitsCRT<char> > >,ATL::CStringT<char,StrTraitMFC_DLL<char,ATL::ChTraitsCRT<char> > > >::`RTTI Class Hierarchy Descriptor'
PUBLIC	??_R2?$CList@V?$CStringT@DV?$StrTraitMFC_DLL@DV?$ChTraitsCRT@D@ATL@@@@@ATL@@V12@@@8 ; CList<ATL::CStringT<char,StrTraitMFC_DLL<char,ATL::ChTraitsCRT<char> > >,ATL::CStringT<char,StrTraitMFC_DLL<char,ATL::ChTraitsCRT<char> > > >::`RTTI Base Class Array'
PUBLIC	??_R1A@?0A@EA@?$CList@V?$CStringT@DV?$StrTraitMFC_DLL@DV?$ChTraitsCRT@D@ATL@@@@@ATL@@V12@@@8 ; CList<ATL::CStringT<char,StrTraitMFC_DLL<char,ATL::ChTraitsCRT<char> > >,ATL::CStringT<char,StrTraitMFC_DLL<char,ATL::ChTraitsCRT<char> > > >::`RTTI Base Class Descriptor at (0,-1,0,64)'
PUBLIC	__real@0000000000000000
PUBLIC	__real@3fe0000000000000
PUBLIC	__real@3ff0000000000000
PUBLIC	__real@4000000000000000
PUBLIC	__real@4008000000000000
PUBLIC	__real@bff0000000000000
EXTRN	??_L@YGXPAXIIP6EX0@Z1@Z:PROC			; `eh vector constructor iterator'
EXTRN	??_M@YGXPAXIIP6EX0@Z@Z:PROC			; `eh vector destructor iterator'
EXTRN	__purecall:PROC
EXTRN	??3@YAXPAX@Z:PROC				; operator delete
EXTRN	??3@YAXPAXI@Z:PROC				; operator delete
EXTRN	?__global_delete@@YAXPAXI@Z:PROC		; __global_delete
EXTRN	??_V@YAXPAXI@Z:PROC				; operator delete[]
EXTRN	_atexit:PROC
EXTRN	___std_terminate:PROC
EXTRN	__imp__atof:PROC
EXTRN	?AfxThrowInvalidArgException@@YGXXZ:PROC	; AfxThrowInvalidArgException
EXTRN	?GetRuntimeClass@CObject@@UBEPAUCRuntimeClass@@XZ:PROC ; CObject::GetRuntimeClass
EXTRN	__imp_??A?$CSimpleStringT@D$00@ATL@@QBEDH@Z:PROC
EXTRN	__imp_?Concatenate@?$CSimpleStringT@D$00@ATL@@KAXAAV12@PBDH1H@Z:PROC
EXTRN	__imp_??0?$CStringT@DV?$StrTraitMFC_DLL@DV?$ChTraitsCRT@D@ATL@@@@@ATL@@QAE@XZ:PROC
EXTRN	__imp_??0?$CStringT@DV?$StrTraitMFC_DLL@DV?$ChTraitsCRT@D@ATL@@@@@ATL@@QAE@PAUIAtlStringMgr@1@@Z:PROC
EXTRN	__imp_??0?$CStringT@DV?$StrTraitMFC_DLL@DV?$ChTraitsCRT@D@ATL@@@@@ATL@@QAE@ABV01@@Z:PROC
EXTRN	__imp_??0?$CStringT@DV?$StrTraitMFC_DLL@DV?$ChTraitsCRT@D@ATL@@@@@ATL@@QAE@PBD@Z:PROC
EXTRN	__imp_??1?$CStringT@DV?$StrTraitMFC_DLL@DV?$ChTraitsCRT@D@ATL@@@@@ATL@@QAE@XZ:PROC
EXTRN	__imp_??4?$CStringT@DV?$StrTraitMFC_DLL@DV?$ChTraitsCRT@D@ATL@@@@@ATL@@QAEAAV01@ABV01@@Z:PROC
EXTRN	__imp_?GetManager@?$CStringT@DV?$StrTraitMFC_DLL@DV?$ChTraitsCRT@D@ATL@@@@@ATL@@QBEPAUIAtlStringMgr@2@XZ:PROC
EXTRN	__imp_?Compare@?$CStringT@DV?$StrTraitMFC_DLL@DV?$ChTraitsCRT@D@ATL@@@@@ATL@@QBEHPBD@Z:PROC
EXTRN	__imp_?Find@?$CStringT@DV?$StrTraitMFC_DLL@DV?$ChTraitsCRT@D@ATL@@@@@ATL@@QBEHPBDH@Z:PROC
EXTRN	__imp_?Mid@?$CStringT@DV?$StrTraitMFC_DLL@DV?$ChTraitsCRT@D@ATL@@@@@ATL@@QBE?AV12@HH@Z:PROC
EXTRN	__imp_?Right@?$CStringT@DV?$StrTraitMFC_DLL@DV?$ChTraitsCRT@D@ATL@@@@@ATL@@QBE?AV12@H@Z:PROC
EXTRN	?ReadCount@CArchive@@QAEKXZ:PROC		; CArchive::ReadCount
EXTRN	?WriteCount@CArchive@@QAEXK@Z:PROC		; CArchive::WriteCount
EXTRN	?Create@CPlex@@SGPAU1@AAPAU1@II@Z:PROC		; CPlex::Create
EXTRN	?FreeDataChain@CPlex@@QAEXXZ:PROC		; CPlex::FreeDataChain
EXTRN	??$SerializeElements@V?$CStringT@DV?$StrTraitMFC_DLL@DV?$ChTraitsCRT@D@ATL@@@@@ATL@@@@YGXAAVCArchive@@PAV?$CStringT@DV?$StrTraitMFC_DLL@DV?$ChTraitsCRT@D@ATL@@@@@ATL@@H@Z:PROC ; SerializeElements<ATL::CStringT<char,StrTraitMFC_DLL<char,ATL::ChTraitsCRT<char> > > >
EXTRN	__imp_?SetBaseData@CPacket@@QAEXABV?$CStringT@DV?$StrTraitMFC_DLL@DV?$ChTraitsCRT@D@ATL@@@@@ATL@@0H_N@Z:PROC
EXTRN	__imp_?GetData@CPacket@@QAENH@Z:PROC
EXTRN	__imp_?GetType@CPacket@@QAE?AV?$CStringT@DV?$StrTraitMFC_DLL@DV?$ChTraitsCRT@D@ATL@@@@@ATL@@_N@Z:PROC
EXTRN	__imp_?GetnumericDataList@CPacket@@QAEPAV?$CList@NN@@XZ:PROC
EXTRN	__imp_?GetstrDataList@CPacket@@QAEPAV?$CList@V?$CStringT@DV?$StrTraitMFC_DLL@DV?$ChTraitsCRT@D@ATL@@@@@ATL@@V12@@@XZ:PROC
EXTRN	__imp_?AppendData@CPacket@@QAEXABV?$CStringT@DV?$StrTraitMFC_DLL@DV?$ChTraitsCRT@D@ATL@@@@@ATL@@@Z:PROC
EXTRN	__imp_?AppendData@CPacket@@QAEXNH@Z:PROC
EXTRN	__imp_?UpdateData@CPacket@@QAEXNH_N@Z:PROC
EXTRN	__imp_?UpdateData@CPacket@@QAEXABV?$CStringT@DV?$StrTraitMFC_DLL@DV?$ChTraitsCRT@D@ATL@@@@@ATL@@H_N@Z:PROC
EXTRN	__imp_?GetMaxCount@CPacketList@@QAEHXZ:PROC
EXTRN	__imp_?GetBaseData@CPacketList@@QAEPAVCPacket@@V?$CStringT@DV?$StrTraitMFC_DLL@DV?$ChTraitsCRT@D@ATL@@@@@ATL@@_N@Z:PROC
EXTRN	?DoubleToString@CDataConversion@@SA?AV?$CStringT@DV?$StrTraitMFC_DLL@DV?$ChTraitsCRT@D@ATL@@@@@ATL@@ABNH@Z:PROC ; CDataConversion::DoubleToString
EXTRN	?GetStringData@CDataConversion@@SA?AV?$CStringT@DV?$StrTraitMFC_DLL@DV?$ChTraitsCRT@D@ATL@@@@@ATL@@AAV23@ABV23@_N@Z:PROC ; CDataConversion::GetStringData
EXTRN	__imp_?GetIndicatorName@CIndicatorInfo@@QBE?AV?$CStringT@DV?$StrTraitMFC_DLL@DV?$ChTraitsCRT@D@ATL@@@@@ATL@@XZ:PROC
EXTRN	__imp_?GetGraphName@CIndicatorInfo@@QBE?AV?$CStringT@DV?$StrTraitMFC_DLL@DV?$ChTraitsCRT@D@ATL@@@@@ATL@@XZ:PROC
EXTRN	__imp_?GetSubGraphName@CIndicatorInfo@@QBE?AV?$CStringT@DV?$StrTraitMFC_DLL@DV?$ChTraitsCRT@D@ATL@@@@@ATL@@H@Z:PROC
EXTRN	__imp_?GetSubGraphNameList@CIndicatorInfo@@QBE_NAAV?$CList@V?$CStringT@DV?$StrTraitMFC_DLL@DV?$ChTraitsCRT@D@ATL@@@@@ATL@@V12@@@@Z:PROC
EXTRN	?GetHeadPacket@CSubGraphPacketList@@QAEPAVCPacket@@XZ:PROC ; CSubGraphPacketList::GetHeadPacket
EXTRN	?AddTail2@CSubGraphPacketList@@QAEXPAVCPacket@@@Z:PROC ; CSubGraphPacketList::AddTail2
EXTRN	?GetHeadPosition@CGraphCalculateData@@QAEPAU__POSITION@@XZ:PROC ; CGraphCalculateData::GetHeadPosition
EXTRN	?GetNext@CGraphCalculateData@@QAEPAVCSubGraphPacketList@@AAPAU__POSITION@@@Z:PROC ; CGraphCalculateData::GetNext
EXTRN	??_E?$CList@V?$CStringT@DV?$StrTraitMFC_DLL@DV?$ChTraitsCRT@D@ATL@@@@@ATL@@V12@@@UAEPAXI@Z:PROC ; CList<ATL::CStringT<char,StrTraitMFC_DLL<char,ATL::ChTraitsCRT<char> > >,ATL::CStringT<char,StrTraitMFC_DLL<char,ATL::ChTraitsCRT<char> > > >::`vector deleting destructor'
EXTRN	@__security_check_cookie@4:PROC
EXTRN	___CxxFrameHandler3:PROC
EXTRN	_floor:PROC
EXTRN	??_7type_info@@6B@:QWORD			; type_info::`vftable'
EXTRN	?g_iMetaTable@@3VIMetaTable@@A:BYTE		; g_iMetaTable
EXTRN	___security_cookie:DWORD
EXTRN	__fltused:DWORD
_BSS	SEGMENT
?SIGNAL_PACKET@@3V?$CStringT@DV?$StrTraitMFC_DLL@DV?$ChTraitsCRT@D@ATL@@@@@ATL@@B DD 01H DUP (?) ; SIGNAL_PACKET
_BSS	ENDS
CRT$XCU	SEGMENT
?SIGNAL_PACKET$initializer$@@3P6AXXZA DD FLAT:??__ESIGNAL_PACKET@@YAXXZ ; SIGNAL_PACKET$initializer$
CRT$XCU	ENDS
;	COMDAT __real@bff0000000000000
CONST	SEGMENT
__real@bff0000000000000 DQ 0bff0000000000000r	; -1
CONST	ENDS
;	COMDAT __real@4008000000000000
CONST	SEGMENT
__real@4008000000000000 DQ 04008000000000000r	; 3
CONST	ENDS
;	COMDAT __real@4000000000000000
CONST	SEGMENT
__real@4000000000000000 DQ 04000000000000000r	; 2
CONST	ENDS
;	COMDAT __real@3ff0000000000000
CONST	SEGMENT
__real@3ff0000000000000 DQ 03ff0000000000000r	; 1
CONST	ENDS
;	COMDAT __real@3fe0000000000000
CONST	SEGMENT
__real@3fe0000000000000 DQ 03fe0000000000000r	; 0.5
CONST	ENDS
;	COMDAT __real@0000000000000000
CONST	SEGMENT
__real@0000000000000000 DQ 00000000000000000r	; 0
CONST	ENDS
;	COMDAT ??_R1A@?0A@EA@?$CList@V?$CStringT@DV?$StrTraitMFC_DLL@DV?$ChTraitsCRT@D@ATL@@@@@ATL@@V12@@@8
rdata$r	SEGMENT
??_R1A@?0A@EA@?$CList@V?$CStringT@DV?$StrTraitMFC_DLL@DV?$ChTraitsCRT@D@ATL@@@@@ATL@@V12@@@8 DD FLAT:??_R0?AV?$CList@V?$CStringT@DV?$StrTraitMFC_DLL@DV?$ChTraitsCRT@D@ATL@@@@@ATL@@V12@@@@8 ; CList<ATL::CStringT<char,StrTraitMFC_DLL<char,ATL::ChTraitsCRT<char> > >,ATL::CStringT<char,StrTraitMFC_DLL<char,ATL::ChTraitsCRT<char> > > >::`RTTI Base Class Descriptor at (0,-1,0,64)'
	DD	01H
	DD	00H
	DD	0ffffffffH
	DD	00H
	DD	040H
	DD	FLAT:??_R3?$CList@V?$CStringT@DV?$StrTraitMFC_DLL@DV?$ChTraitsCRT@D@ATL@@@@@ATL@@V12@@@8
rdata$r	ENDS
;	COMDAT ??_R2?$CList@V?$CStringT@DV?$StrTraitMFC_DLL@DV?$ChTraitsCRT@D@ATL@@@@@ATL@@V12@@@8
rdata$r	SEGMENT
??_R2?$CList@V?$CStringT@DV?$StrTraitMFC_DLL@DV?$ChTraitsCRT@D@ATL@@@@@ATL@@V12@@@8 DD FLAT:??_R1A@?0A@EA@?$CList@V?$CStringT@DV?$StrTraitMFC_DLL@DV?$ChTraitsCRT@D@ATL@@@@@ATL@@V12@@@8 ; CList<ATL::CStringT<char,StrTraitMFC_DLL<char,ATL::ChTraitsCRT<char> > >,ATL::CStringT<char,StrTraitMFC_DLL<char,ATL::ChTraitsCRT<char> > > >::`RTTI Base Class Array'
	DD	FLAT:??_R1A@?0A@EA@CObject@@8
rdata$r	ENDS
;	COMDAT ??_R3?$CList@V?$CStringT@DV?$StrTraitMFC_DLL@DV?$ChTraitsCRT@D@ATL@@@@@ATL@@V12@@@8
rdata$r	SEGMENT
??_R3?$CList@V?$CStringT@DV?$StrTraitMFC_DLL@DV?$ChTraitsCRT@D@ATL@@@@@ATL@@V12@@@8 DD 00H ; CList<ATL::CStringT<char,StrTraitMFC_DLL<char,ATL::ChTraitsCRT<char> > >,ATL::CStringT<char,StrTraitMFC_DLL<char,ATL::ChTraitsCRT<char> > > >::`RTTI Class Hierarchy Descriptor'
	DD	00H
	DD	02H
	DD	FLAT:??_R2?$CList@V?$CStringT@DV?$StrTraitMFC_DLL@DV?$ChTraitsCRT@D@ATL@@@@@ATL@@V12@@@8
rdata$r	ENDS
;	COMDAT ??_R0?AV?$CList@V?$CStringT@DV?$StrTraitMFC_DLL@DV?$ChTraitsCRT@D@ATL@@@@@ATL@@V12@@@@8
data$rs	SEGMENT
??_R0?AV?$CList@V?$CStringT@DV?$StrTraitMFC_DLL@DV?$ChTraitsCRT@D@ATL@@@@@ATL@@V12@@@@8 DD FLAT:??_7type_info@@6B@ ; CList<ATL::CStringT<char,StrTraitMFC_DLL<char,ATL::ChTraitsCRT<char> > >,ATL::CStringT<char,StrTraitMFC_DLL<char,ATL::ChTraitsCRT<char> > > > `RTTI Type Descriptor'
	DD	00H
	DB	'.?AV?$CList@V?$CStringT@DV?$StrTraitMFC_DLL@DV?$ChTraits'
	DB	'CRT@D@ATL@@@@@ATL@@V12@@@', 00H
data$rs	ENDS
;	COMDAT ??_R4?$CList@V?$CStringT@DV?$StrTraitMFC_DLL@DV?$ChTraitsCRT@D@ATL@@@@@ATL@@V12@@@6B@
rdata$r	SEGMENT
??_R4?$CList@V?$CStringT@DV?$StrTraitMFC_DLL@DV?$ChTraitsCRT@D@ATL@@@@@ATL@@V12@@@6B@ DD 00H ; CList<ATL::CStringT<char,StrTraitMFC_DLL<char,ATL::ChTraitsCRT<char> > >,ATL::CStringT<char,StrTraitMFC_DLL<char,ATL::ChTraitsCRT<char> > > >::`RTTI Complete Object Locator'
	DD	00H
	DD	00H
	DD	FLAT:??_R0?AV?$CList@V?$CStringT@DV?$StrTraitMFC_DLL@DV?$ChTraitsCRT@D@ATL@@@@@ATL@@V12@@@@8
	DD	FLAT:??_R3?$CList@V?$CStringT@DV?$StrTraitMFC_DLL@DV?$ChTraitsCRT@D@ATL@@@@@ATL@@V12@@@8
rdata$r	ENDS
;	COMDAT ??_R1A@?0A@EA@CIndicator@@8
rdata$r	SEGMENT
??_R1A@?0A@EA@CIndicator@@8 DD FLAT:??_R0?AVCIndicator@@@8 ; CIndicator::`RTTI Base Class Descriptor at (0,-1,0,64)'
	DD	00H
	DD	00H
	DD	0ffffffffH
	DD	00H
	DD	040H
	DD	FLAT:??_R3CIndicator@@8
rdata$r	ENDS
;	COMDAT ??_R2CIndicator@@8
rdata$r	SEGMENT
??_R2CIndicator@@8 DD FLAT:??_R1A@?0A@EA@CIndicator@@8	; CIndicator::`RTTI Base Class Array'
rdata$r	ENDS
;	COMDAT ??_R3CIndicator@@8
rdata$r	SEGMENT
??_R3CIndicator@@8 DD 00H				; CIndicator::`RTTI Class Hierarchy Descriptor'
	DD	00H
	DD	01H
	DD	FLAT:??_R2CIndicator@@8
rdata$r	ENDS
;	COMDAT ??_R0?AVCIndicator@@@8
data$rs	SEGMENT
??_R0?AVCIndicator@@@8 DD FLAT:??_7type_info@@6B@	; CIndicator `RTTI Type Descriptor'
	DD	00H
	DB	'.?AVCIndicator@@', 00H
data$rs	ENDS
;	COMDAT ??_R4CIndicator@@6B@
rdata$r	SEGMENT
??_R4CIndicator@@6B@ DD 00H				; CIndicator::`RTTI Complete Object Locator'
	DD	00H
	DD	00H
	DD	FLAT:??_R0?AVCIndicator@@@8
	DD	FLAT:??_R3CIndicator@@8
rdata$r	ENDS
;	COMDAT ??_C@_02JMABBILH@x1@
CONST	SEGMENT
??_C@_02JMABBILH@x1@ DB 'x1', 00H			; `string'
CONST	ENDS
;	COMDAT ??_C@_01IDAFKMJL@_@
CONST	SEGMENT
??_C@_01IDAFKMJL@_@ DB '_', 00H				; `string'
CONST	ENDS
;	COMDAT ??_C@_01IHBHIGKO@?0@
CONST	SEGMENT
??_C@_01IHBHIGKO@?0@ DB ',', 00H			; `string'
CONST	ENDS
;	COMDAT ??_7?$CList@V?$CStringT@DV?$StrTraitMFC_DLL@DV?$ChTraitsCRT@D@ATL@@@@@ATL@@V12@@@6B@
CONST	SEGMENT
??_7?$CList@V?$CStringT@DV?$StrTraitMFC_DLL@DV?$ChTraitsCRT@D@ATL@@@@@ATL@@V12@@@6B@ DD FLAT:??_R4?$CList@V?$CStringT@DV?$StrTraitMFC_DLL@DV?$ChTraitsCRT@D@ATL@@@@@ATL@@V12@@@6B@ ; CList<ATL::CStringT<char,StrTraitMFC_DLL<char,ATL::ChTraitsCRT<char> > >,ATL::CStringT<char,StrTraitMFC_DLL<char,ATL::ChTraitsCRT<char> > > >::`vftable'
	DD	FLAT:?GetRuntimeClass@CObject@@UBEPAUCRuntimeClass@@XZ
	DD	FLAT:??_E?$CList@V?$CStringT@DV?$StrTraitMFC_DLL@DV?$ChTraitsCRT@D@ATL@@@@@ATL@@V12@@@UAEPAXI@Z
	DD	FLAT:?Serialize@?$CList@V?$CStringT@DV?$StrTraitMFC_DLL@DV?$ChTraitsCRT@D@ATL@@@@@ATL@@V12@@@UAEXAAVCArchive@@@Z
	DD	FLAT:?AssertValid@CObject@@UBEXXZ
	DD	FLAT:?Dump@CObject@@UBEXAAVCDumpContext@@@Z
CONST	ENDS
;	COMDAT ??_7CIndicator@@6B@
CONST	SEGMENT
??_7CIndicator@@6B@ DD FLAT:??_R4CIndicator@@6B@	; CIndicator::`vftable'
	DD	FLAT:??_ECIndicator@@UAEPAXI@Z
	DD	FLAT:__purecall
	DD	FLAT:?DeleteDataInPacket@CIndicator@@UAEXABVCChartFormulateData@@PAVCGraphCalculateData@@PAVCIndicatorInfo@@@Z
CONST	ENDS
;	COMDAT ??_R1A@?0A@EA@CObject@@8
rdata$r	SEGMENT
??_R1A@?0A@EA@CObject@@8 DD FLAT:??_R0?AVCObject@@@8	; CObject::`RTTI Base Class Descriptor at (0,-1,0,64)'
	DD	00H
	DD	00H
	DD	0ffffffffH
	DD	00H
	DD	040H
	DD	FLAT:??_R3CObject@@8
rdata$r	ENDS
;	COMDAT ??_R2CObject@@8
rdata$r	SEGMENT
??_R2CObject@@8 DD FLAT:??_R1A@?0A@EA@CObject@@8	; CObject::`RTTI Base Class Array'
rdata$r	ENDS
;	COMDAT ??_R3CObject@@8
rdata$r	SEGMENT
??_R3CObject@@8 DD 00H					; CObject::`RTTI Class Hierarchy Descriptor'
	DD	00H
	DD	01H
	DD	FLAT:??_R2CObject@@8
rdata$r	ENDS
;	COMDAT ??_R0?AVCObject@@@8
data$rs	SEGMENT
??_R0?AVCObject@@@8 DD FLAT:??_7type_info@@6B@		; CObject `RTTI Type Descriptor'
	DD	00H
	DB	'.?AVCObject@@', 00H
data$rs	ENDS
;	COMDAT ??_C@_00CNPNBAHC@@
CONST	SEGMENT
??_C@_00CNPNBAHC@@ DB 00H				; `string'
CONST	ENDS
;	COMDAT xdata$x
xdata$x	SEGMENT
__unwindtable$?Serialize@?$CList@V?$CStringT@DV?$StrTraitMFC_DLL@DV?$ChTraitsCRT@D@ATL@@@@@ATL@@V12@@@UAEXAAVCArchive@@@Z DD 0ffffffffH
	DD	FLAT:__unwindfunclet$?Serialize@?$CList@V?$CStringT@DV?$StrTraitMFC_DLL@DV?$ChTraitsCRT@D@ATL@@@@@ATL@@V12@@@UAEXAAVCArchive@@@Z$0
	DD	00H
	DD	FLAT:__unwindfunclet$?Serialize@?$CList@V?$CStringT@DV?$StrTraitMFC_DLL@DV?$ChTraitsCRT@D@ATL@@@@@ATL@@V12@@@UAEXAAVCArchive@@@Z$2
__ehfuncinfo$?Serialize@?$CList@V?$CStringT@DV?$StrTraitMFC_DLL@DV?$ChTraitsCRT@D@ATL@@@@@ATL@@V12@@@UAEXAAVCArchive@@@Z DD 019930522H
	DD	02H
	DD	FLAT:__unwindtable$?Serialize@?$CList@V?$CStringT@DV?$StrTraitMFC_DLL@DV?$ChTraitsCRT@D@ATL@@@@@ATL@@V12@@@UAEXAAVCArchive@@@Z
	DD	2 DUP(00H)
	DD	2 DUP(00H)
	DD	00H
	DD	01H
xdata$x	ENDS
;	COMDAT xdata$x
xdata$x	SEGMENT
__ehfuncinfo$??1?$CList@V?$CStringT@DV?$StrTraitMFC_DLL@DV?$ChTraitsCRT@D@ATL@@@@@ATL@@V12@@@UAE@XZ DD 019930522H
	DD	00H
	DD	00H
	DD	2 DUP(00H)
	DD	2 DUP(00H)
	DD	00H
	DD	05H
xdata$x	ENDS
;	COMDAT xdata$x
xdata$x	SEGMENT
__unwindtable$?AddTail@?$CList@V?$CStringT@DV?$StrTraitMFC_DLL@DV?$ChTraitsCRT@D@ATL@@@@@ATL@@V12@@@QAEPAU__POSITION@@V?$CStringT@DV?$StrTraitMFC_DLL@DV?$ChTraitsCRT@D@ATL@@@@@ATL@@@Z DD 0ffffffffH
	DD	FLAT:__unwindfunclet$?AddTail@?$CList@V?$CStringT@DV?$StrTraitMFC_DLL@DV?$ChTraitsCRT@D@ATL@@@@@ATL@@V12@@@QAEPAU__POSITION@@V?$CStringT@DV?$StrTraitMFC_DLL@DV?$ChTraitsCRT@D@ATL@@@@@ATL@@@Z$0
__ehfuncinfo$?AddTail@?$CList@V?$CStringT@DV?$StrTraitMFC_DLL@DV?$ChTraitsCRT@D@ATL@@@@@ATL@@V12@@@QAEPAU__POSITION@@V?$CStringT@DV?$StrTraitMFC_DLL@DV?$ChTraitsCRT@D@ATL@@@@@ATL@@@Z DD 019930522H
	DD	01H
	DD	FLAT:__unwindtable$?AddTail@?$CList@V?$CStringT@DV?$StrTraitMFC_DLL@DV?$ChTraitsCRT@D@ATL@@@@@ATL@@V12@@@QAEPAU__POSITION@@V?$CStringT@DV?$StrTraitMFC_DLL@DV?$ChTraitsCRT@D@ATL@@@@@ATL@@@Z
	DD	2 DUP(00H)
	DD	2 DUP(00H)
	DD	00H
	DD	01H
xdata$x	ENDS
;	COMDAT xdata$x
xdata$x	SEGMENT
__ehfuncinfo$??_ECIndicator@@UAEPAXI@Z DD 019930522H
	DD	00H
	DD	00H
	DD	2 DUP(00H)
	DD	2 DUP(00H)
	DD	00H
	DD	05H
xdata$x	ENDS
;	COMDAT xdata$x
xdata$x	SEGMENT
__ehfuncinfo$?InCaseNoPacketPointer@CIndicator@@IAE_NPAVCPacketList@@AAPAVCIndicatorInfo@@AAPAVCPacket@@2PAVCGraphCalculateData@@@Z DD 019930522H
	DD	0bH
	DD	FLAT:__unwindtable$?InCaseNoPacketPointer@CIndicator@@IAE_NPAVCPacketList@@AAPAVCIndicatorInfo@@AAPAVCPacket@@2PAVCGraphCalculateData@@@Z
	DD	2 DUP(00H)
	DD	2 DUP(00H)
	DD	00H
	DD	01H
__unwindtable$?InCaseNoPacketPointer@CIndicator@@IAE_NPAVCPacketList@@AAPAVCIndicatorInfo@@AAPAVCPacket@@2PAVCGraphCalculateData@@@Z DD 0ffffffffH
	DD	FLAT:__unwindfunclet$?InCaseNoPacketPointer@CIndicator@@IAE_NPAVCPacketList@@AAPAVCIndicatorInfo@@AAPAVCPacket@@2PAVCGraphCalculateData@@@Z$0
	DD	0ffffffffH
	DD	00H
	DD	0ffffffffH
	DD	00H
	DD	00H
	DD	FLAT:__unwindfunclet$?InCaseNoPacketPointer@CIndicator@@IAE_NPAVCPacketList@@AAPAVCIndicatorInfo@@AAPAVCPacket@@2PAVCGraphCalculateData@@@Z$1
	DD	03H
	DD	FLAT:__unwindfunclet$?InCaseNoPacketPointer@CIndicator@@IAE_NPAVCPacketList@@AAPAVCIndicatorInfo@@AAPAVCPacket@@2PAVCGraphCalculateData@@@Z$2
	DD	04H
	DD	FLAT:__unwindfunclet$?InCaseNoPacketPointer@CIndicator@@IAE_NPAVCPacketList@@AAPAVCIndicatorInfo@@AAPAVCPacket@@2PAVCGraphCalculateData@@@Z$3
	DD	03H
	DD	FLAT:__unwindfunclet$?InCaseNoPacketPointer@CIndicator@@IAE_NPAVCPacketList@@AAPAVCIndicatorInfo@@AAPAVCPacket@@2PAVCGraphCalculateData@@@Z$4
	DD	06H
	DD	FLAT:__unwindfunclet$?InCaseNoPacketPointer@CIndicator@@IAE_NPAVCPacketList@@AAPAVCIndicatorInfo@@AAPAVCPacket@@2PAVCGraphCalculateData@@@Z$9
	DD	0ffffffffH
	DD	00H
	DD	0ffffffffH
	DD	00H
	DD	0ffffffffH
	DD	FLAT:___std_terminate
xdata$x	ENDS
;	COMDAT xdata$x
xdata$x	SEGMENT
__ehfuncinfo$?InCaseNoPacketPointer@CIndicator@@IAE_NPAVCPacketList@@AAPAVCIndicatorInfo@@AAPAVCPacket@@PAVCSubGraphPacketList@@@Z DD 019930522H
	DD	07H
	DD	FLAT:__unwindtable$?InCaseNoPacketPointer@CIndicator@@IAE_NPAVCPacketList@@AAPAVCIndicatorInfo@@AAPAVCPacket@@PAVCSubGraphPacketList@@@Z
	DD	2 DUP(00H)
	DD	2 DUP(00H)
	DD	00H
	DD	01H
__unwindtable$?InCaseNoPacketPointer@CIndicator@@IAE_NPAVCPacketList@@AAPAVCIndicatorInfo@@AAPAVCPacket@@PAVCSubGraphPacketList@@@Z DD 0ffffffffH
	DD	FLAT:__unwindfunclet$?InCaseNoPacketPointer@CIndicator@@IAE_NPAVCPacketList@@AAPAVCIndicatorInfo@@AAPAVCPacket@@PAVCSubGraphPacketList@@@Z$0
	DD	00H
	DD	FLAT:__unwindfunclet$?InCaseNoPacketPointer@CIndicator@@IAE_NPAVCPacketList@@AAPAVCIndicatorInfo@@AAPAVCPacket@@PAVCSubGraphPacketList@@@Z$1
	DD	01H
	DD	FLAT:__unwindfunclet$?InCaseNoPacketPointer@CIndicator@@IAE_NPAVCPacketList@@AAPAVCIndicatorInfo@@AAPAVCPacket@@PAVCSubGraphPacketList@@@Z$2
	DD	00H
	DD	FLAT:__unwindfunclet$?InCaseNoPacketPointer@CIndicator@@IAE_NPAVCPacketList@@AAPAVCIndicatorInfo@@AAPAVCPacket@@PAVCSubGraphPacketList@@@Z$3
	DD	03H
	DD	FLAT:__unwindfunclet$?InCaseNoPacketPointer@CIndicator@@IAE_NPAVCPacketList@@AAPAVCIndicatorInfo@@AAPAVCPacket@@PAVCSubGraphPacketList@@@Z$4
	DD	04H
	DD	FLAT:__unwindfunclet$?InCaseNoPacketPointer@CIndicator@@IAE_NPAVCPacketList@@AAPAVCIndicatorInfo@@AAPAVCPacket@@PAVCSubGraphPacketList@@@Z$8
	DD	05H
	DD	FLAT:__unwindfunclet$?InCaseNoPacketPointer@CIndicator@@IAE_NPAVCPacketList@@AAPAVCIndicatorInfo@@AAPAVCPacket@@PAVCSubGraphPacketList@@@Z$6
xdata$x	ENDS
;	COMDAT xdata$x
xdata$x	SEGMENT
__ehfuncinfo$?GetPreEndPrice@CIndicator@@IAEHPAV?$CList@NN@@W4HORZSCALEDRAWERTYPE@CScaleBaseData@@H@Z DD 019930522H
	DD	07H
	DD	FLAT:__unwindtable$?GetPreEndPrice@CIndicator@@IAEHPAV?$CList@NN@@W4HORZSCALEDRAWERTYPE@CScaleBaseData@@H@Z
	DD	2 DUP(00H)
	DD	2 DUP(00H)
	DD	00H
	DD	01H
__unwindtable$?GetPreEndPrice@CIndicator@@IAEHPAV?$CList@NN@@W4HORZSCALEDRAWERTYPE@CScaleBaseData@@H@Z DD 0ffffffffH
	DD	FLAT:__unwindfunclet$?GetPreEndPrice@CIndicator@@IAEHPAV?$CList@NN@@W4HORZSCALEDRAWERTYPE@CScaleBaseData@@H@Z$0
	DD	00H
	DD	FLAT:__unwindfunclet$?GetPreEndPrice@CIndicator@@IAEHPAV?$CList@NN@@W4HORZSCALEDRAWERTYPE@CScaleBaseData@@H@Z$1
	DD	01H
	DD	FLAT:__unwindfunclet$?GetPreEndPrice@CIndicator@@IAEHPAV?$CList@NN@@W4HORZSCALEDRAWERTYPE@CScaleBaseData@@H@Z$2
	DD	02H
	DD	FLAT:__unwindfunclet$?GetPreEndPrice@CIndicator@@IAEHPAV?$CList@NN@@W4HORZSCALEDRAWERTYPE@CScaleBaseData@@H@Z$3
	DD	02H
	DD	FLAT:__unwindfunclet$?GetPreEndPrice@CIndicator@@IAEHPAV?$CList@NN@@W4HORZSCALEDRAWERTYPE@CScaleBaseData@@H@Z$4
	DD	02H
	DD	FLAT:__unwindfunclet$?GetPreEndPrice@CIndicator@@IAEHPAV?$CList@NN@@W4HORZSCALEDRAWERTYPE@CScaleBaseData@@H@Z$5
	DD	05H
	DD	FLAT:__unwindfunclet$?GetPreEndPrice@CIndicator@@IAEHPAV?$CList@NN@@W4HORZSCALEDRAWERTYPE@CScaleBaseData@@H@Z$6
xdata$x	ENDS
;	COMDAT xdata$x
xdata$x	SEGMENT
__unwindtable$?GetKindMA@CIndicator@@IAENABVCChartFormulateData@@PAV?$CList@NN@@@Z DD 0ffffffffH
	DD	FLAT:__unwindfunclet$?GetKindMA@CIndicator@@IAENABVCChartFormulateData@@PAV?$CList@NN@@@Z$0
	DD	0ffffffffH
	DD	FLAT:__unwindfunclet$?GetKindMA@CIndicator@@IAENABVCChartFormulateData@@PAV?$CList@NN@@@Z$1
__ehfuncinfo$?GetKindMA@CIndicator@@IAENABVCChartFormulateData@@PAV?$CList@NN@@@Z DD 019930522H
	DD	02H
	DD	FLAT:__unwindtable$?GetKindMA@CIndicator@@IAENABVCChartFormulateData@@PAV?$CList@NN@@@Z
	DD	2 DUP(00H)
	DD	2 DUP(00H)
	DD	00H
	DD	01H
xdata$x	ENDS
;	COMDAT xdata$x
xdata$x	SEGMENT
__unwindtable$?GetPacket@CIndicator@@IAEPAVCPacket@@ABVCPoint@@ABVCChartFormulateData@@@Z DD 0ffffffffH
	DD	FLAT:__unwindfunclet$?GetPacket@CIndicator@@IAEPAVCPacket@@ABVCPoint@@ABVCChartFormulateData@@@Z$0
__ehfuncinfo$?GetPacket@CIndicator@@IAEPAVCPacket@@ABVCPoint@@ABVCChartFormulateData@@@Z DD 019930522H
	DD	01H
	DD	FLAT:__unwindtable$?GetPacket@CIndicator@@IAEPAVCPacket@@ABVCPoint@@ABVCChartFormulateData@@@Z
	DD	2 DUP(00H)
	DD	2 DUP(00H)
	DD	00H
	DD	01H
xdata$x	ENDS
;	COMDAT xdata$x
xdata$x	SEGMENT
__unwindtable$?GetSignalPacket@CIndicator@@IAE_NPAVCPacketList@@AAV?$CStringT@DV?$StrTraitMFC_DLL@DV?$ChTraitsCRT@D@ATL@@@@@ATL@@AAPAVCPacket@@@Z DD 0ffffffffH
	DD	FLAT:__unwindfunclet$?GetSignalPacket@CIndicator@@IAE_NPAVCPacketList@@AAV?$CStringT@DV?$StrTraitMFC_DLL@DV?$ChTraitsCRT@D@ATL@@@@@ATL@@AAPAVCPacket@@@Z$0
__ehfuncinfo$?GetSignalPacket@CIndicator@@IAE_NPAVCPacketList@@AAV?$CStringT@DV?$StrTraitMFC_DLL@DV?$ChTraitsCRT@D@ATL@@@@@ATL@@AAPAVCPacket@@@Z DD 019930522H
	DD	01H
	DD	FLAT:__unwindtable$?GetSignalPacket@CIndicator@@IAE_NPAVCPacketList@@AAV?$CStringT@DV?$StrTraitMFC_DLL@DV?$ChTraitsCRT@D@ATL@@@@@ATL@@AAPAVCPacket@@@Z
	DD	2 DUP(00H)
	DD	2 DUP(00H)
	DD	00H
	DD	01H
xdata$x	ENDS
;	COMDAT xdata$x
xdata$x	SEGMENT
__unwindtable$?GetPacket@CIndicator@@QAEPAVCPacket@@PAVCPacketList@@ABV?$CStringT@DV?$StrTraitMFC_DLL@DV?$ChTraitsCRT@D@ATL@@@@@ATL@@W4CALCULATETYPE@CCalculateBaseData@@ABVCPoint@@@Z DD 0ffffffffH
	DD	FLAT:__unwindfunclet$?GetPacket@CIndicator@@QAEPAVCPacket@@PAVCPacketList@@ABV?$CStringT@DV?$StrTraitMFC_DLL@DV?$ChTraitsCRT@D@ATL@@@@@ATL@@W4CALCULATETYPE@CCalculateBaseData@@ABVCPoint@@@Z$0
	DD	00H
	DD	FLAT:__unwindfunclet$?GetPacket@CIndicator@@QAEPAVCPacket@@PAVCPacketList@@ABV?$CStringT@DV?$StrTraitMFC_DLL@DV?$ChTraitsCRT@D@ATL@@@@@ATL@@W4CALCULATETYPE@CCalculateBaseData@@ABVCPoint@@@Z$6
__ehfuncinfo$?GetPacket@CIndicator@@QAEPAVCPacket@@PAVCPacketList@@ABV?$CStringT@DV?$StrTraitMFC_DLL@DV?$ChTraitsCRT@D@ATL@@@@@ATL@@W4CALCULATETYPE@CCalculateBaseData@@ABVCPoint@@@Z DD 019930522H
	DD	02H
	DD	FLAT:__unwindtable$?GetPacket@CIndicator@@QAEPAVCPacket@@PAVCPacketList@@ABV?$CStringT@DV?$StrTraitMFC_DLL@DV?$ChTraitsCRT@D@ATL@@@@@ATL@@W4CALCULATETYPE@CCalculateBaseData@@ABVCPoint@@@Z
	DD	2 DUP(00H)
	DD	2 DUP(00H)
	DD	00H
	DD	01H
xdata$x	ENDS
;	COMDAT xdata$x
xdata$x	SEGMENT
__unwindtable$??HATL@@YA?AV?$CStringT@DV?$StrTraitMFC_DLL@DV?$ChTraitsCRT@D@ATL@@@@@0@ABV10@PBD@Z DD 0ffffffffH
	DD	FLAT:__unwindfunclet$??HATL@@YA?AV?$CStringT@DV?$StrTraitMFC_DLL@DV?$ChTraitsCRT@D@ATL@@@@@0@ABV10@PBD@Z$0
__ehfuncinfo$??HATL@@YA?AV?$CStringT@DV?$StrTraitMFC_DLL@DV?$ChTraitsCRT@D@ATL@@@@@0@ABV10@PBD@Z DD 019930522H
	DD	01H
	DD	FLAT:__unwindtable$??HATL@@YA?AV?$CStringT@DV?$StrTraitMFC_DLL@DV?$ChTraitsCRT@D@ATL@@@@@0@ABV10@PBD@Z
	DD	2 DUP(00H)
	DD	2 DUP(00H)
	DD	00H
	DD	01H
xdata$x	ENDS
;	COMDAT xdata$x
xdata$x	SEGMENT
__unwindtable$??HATL@@YA?AV?$CStringT@DV?$StrTraitMFC_DLL@DV?$ChTraitsCRT@D@ATL@@@@@0@ABV10@0@Z DD 0ffffffffH
	DD	FLAT:__unwindfunclet$??HATL@@YA?AV?$CStringT@DV?$StrTraitMFC_DLL@DV?$ChTraitsCRT@D@ATL@@@@@0@ABV10@0@Z$0
__ehfuncinfo$??HATL@@YA?AV?$CStringT@DV?$StrTraitMFC_DLL@DV?$ChTraitsCRT@D@ATL@@@@@0@ABV10@0@Z DD 019930522H
	DD	01H
	DD	FLAT:__unwindtable$??HATL@@YA?AV?$CStringT@DV?$StrTraitMFC_DLL@DV?$ChTraitsCRT@D@ATL@@@@@0@ABV10@0@Z
	DD	2 DUP(00H)
	DD	2 DUP(00H)
	DD	00H
	DD	01H
xdata$x	ENDS
; Function compile flags: /Ogtp
; File C:\Program Files (x86)\Microsoft Visual Studio\2019\Community\VC\Tools\MSVC\14.29.30133\atlmfc\include\afx.inl
;	COMDAT ??_G?$CList@V?$CStringT@DV?$StrTraitMFC_DLL@DV?$ChTraitsCRT@D@ATL@@@@@ATL@@V12@@@UAEPAXI@Z
_TEXT	SEGMENT
___flags$ = 8						; size = 4
??_G?$CList@V?$CStringT@DV?$StrTraitMFC_DLL@DV?$ChTraitsCRT@D@ATL@@@@@ATL@@V12@@@UAEPAXI@Z PROC ; CList<ATL::CStringT<char,StrTraitMFC_DLL<char,ATL::ChTraitsCRT<char> > >,ATL::CStringT<char,StrTraitMFC_DLL<char,ATL::ChTraitsCRT<char> > > >::`scalar deleting destructor', COMDAT
; _this$ = ecx
  00000	55		 push	 ebp
  00001	8b ec		 mov	 ebp, esp
  00003	56		 push	 esi
  00004	8b f1		 mov	 esi, ecx
  00006	e8 00 00 00 00	 call	 ??1?$CList@V?$CStringT@DV?$StrTraitMFC_DLL@DV?$ChTraitsCRT@D@ATL@@@@@ATL@@V12@@@UAE@XZ ; CList<ATL::CStringT<char,StrTraitMFC_DLL<char,ATL::ChTraitsCRT<char> > >,ATL::CStringT<char,StrTraitMFC_DLL<char,ATL::ChTraitsCRT<char> > > >::~CList<ATL::CStringT<char,StrTraitMFC_DLL<char,ATL::ChTraitsCRT<char> > >,ATL::CStringT<char,StrTraitMFC_DLL<char,ATL::ChTraitsCRT<char> > > >
  0000b	8b 45 08	 mov	 eax, DWORD PTR ___flags$[ebp]
  0000e	a8 01		 test	 al, 1
  00010	74 1f		 je	 SHORT $LN9@scalar
  00012	a8 04		 test	 al, 4
  00014	75 10		 jne	 SHORT $LN3@scalar

; 112  : 	{ ::operator delete(p); }

  00016	56		 push	 esi
  00017	e8 00 00 00 00	 call	 ??3@YAXPAX@Z		; operator delete
  0001c	83 c4 04	 add	 esp, 4
  0001f	8b c6		 mov	 eax, esi
  00021	5e		 pop	 esi
  00022	5d		 pop	 ebp
  00023	c2 04 00	 ret	 4
$LN3@scalar:
  00026	6a 1c		 push	 28			; 0000001cH
  00028	56		 push	 esi
  00029	e8 00 00 00 00	 call	 ?__global_delete@@YAXPAXI@Z ; __global_delete
  0002e	83 c4 08	 add	 esp, 8
$LN9@scalar:
  00031	8b c6		 mov	 eax, esi
  00033	5e		 pop	 esi
  00034	5d		 pop	 ebp
  00035	c2 04 00	 ret	 4
??_G?$CList@V?$CStringT@DV?$StrTraitMFC_DLL@DV?$ChTraitsCRT@D@ATL@@@@@ATL@@V12@@@UAEPAXI@Z ENDP ; CList<ATL::CStringT<char,StrTraitMFC_DLL<char,ATL::ChTraitsCRT<char> > >,ATL::CStringT<char,StrTraitMFC_DLL<char,ATL::ChTraitsCRT<char> > > >::`scalar deleting destructor'
_TEXT	ENDS
; Function compile flags: /Ogtp
; File C:\Program Files (x86)\Microsoft Visual Studio\2019\Community\VC\Tools\MSVC\14.29.30133\atlmfc\include\afxtempl.h
; File C:\Program Files (x86)\Microsoft Visual Studio\2019\Community\VC\Tools\MSVC\14.29.30133\atlmfc\include\afx.inl
; File C:\Program Files (x86)\Microsoft Visual Studio\2019\Community\VC\Tools\MSVC\14.29.30133\atlmfc\include\afxtempl.h
; File C:\Program Files (x86)\Microsoft Visual Studio\2019\Community\VC\Tools\MSVC\14.29.30133\atlmfc\include\afx.inl
; File C:\Program Files (x86)\Microsoft Visual Studio\2019\Community\VC\Tools\MSVC\14.29.30133\atlmfc\include\afxtempl.h
;	COMDAT ?Serialize@?$CList@V?$CStringT@DV?$StrTraitMFC_DLL@DV?$ChTraitsCRT@D@ATL@@@@@ATL@@V12@@@UAEXAAVCArchive@@@Z
_TEXT	SEGMENT
_nNewCount$1$ = -24					; size = 4
$T2 = -20						; size = 4
_newData$3 = -16					; size = 4
__$EHRec$ = -12						; size = 12
_ar$ = 8						; size = 4
?Serialize@?$CList@V?$CStringT@DV?$StrTraitMFC_DLL@DV?$ChTraitsCRT@D@ATL@@@@@ATL@@V12@@@UAEXAAVCArchive@@@Z PROC ; CList<ATL::CStringT<char,StrTraitMFC_DLL<char,ATL::ChTraitsCRT<char> > >,ATL::CStringT<char,StrTraitMFC_DLL<char,ATL::ChTraitsCRT<char> > > >::Serialize, COMDAT
; _this$ = ecx

; 1169 : {

  00000	55		 push	 ebp
  00001	8b ec		 mov	 ebp, esp
  00003	6a ff		 push	 -1
  00005	68 00 00 00 00	 push	 __ehhandler$?Serialize@?$CList@V?$CStringT@DV?$StrTraitMFC_DLL@DV?$ChTraitsCRT@D@ATL@@@@@ATL@@V12@@@UAEXAAVCArchive@@@Z
  0000a	64 a1 00 00 00
	00		 mov	 eax, DWORD PTR fs:0
  00010	50		 push	 eax
  00011	83 ec 0c	 sub	 esp, 12			; 0000000cH
  00014	53		 push	 ebx
  00015	56		 push	 esi
  00016	57		 push	 edi
  00017	a1 00 00 00 00	 mov	 eax, DWORD PTR ___security_cookie
  0001c	33 c5		 xor	 eax, ebp
  0001e	50		 push	 eax
  0001f	8d 45 f4	 lea	 eax, DWORD PTR __$EHRec$[ebp]
  00022	64 a3 00 00 00
	00		 mov	 DWORD PTR fs:0, eax
  00028	8b f9		 mov	 edi, ecx
; File C:\Program Files (x86)\Microsoft Visual Studio\2019\Community\VC\Tools\MSVC\14.29.30133\atlmfc\include\afx.inl

; 212  : 	{ return (m_nMode & CArchive::load) == 0; }

  0002a	8b 5d 08	 mov	 ebx, DWORD PTR _ar$[ebp]
; File C:\Program Files (x86)\Microsoft Visual Studio\2019\Community\VC\Tools\MSVC\14.29.30133\atlmfc\include\afxtempl.h

; 1174 : 	if (ar.IsStoring())

  0002d	8b cb		 mov	 ecx, ebx
; File C:\Program Files (x86)\Microsoft Visual Studio\2019\Community\VC\Tools\MSVC\14.29.30133\atlmfc\include\afx.inl

; 212  : 	{ return (m_nMode & CArchive::load) == 0; }

  0002f	8b 43 18	 mov	 eax, DWORD PTR [ebx+24]
  00032	f7 d0		 not	 eax
  00034	a8 01		 test	 al, 1
; File C:\Program Files (x86)\Microsoft Visual Studio\2019\Community\VC\Tools\MSVC\14.29.30133\atlmfc\include\afxtempl.h

; 1174 : 	if (ar.IsStoring())

  00036	74 35		 je	 SHORT $LN7@Serialize

; 1175 : 	{
; 1176 : 		ar.WriteCount(m_nCount);

  00038	ff 77 0c	 push	 DWORD PTR [edi+12]
  0003b	e8 00 00 00 00	 call	 ?WriteCount@CArchive@@QAEXK@Z ; CArchive::WriteCount

; 1177 : 		for (CNode* pNode = m_pNodeHead; pNode != NULL; pNode = pNode->pNext)

  00040	8b 77 04	 mov	 esi, DWORD PTR [edi+4]
  00043	85 f6		 test	 esi, esi
  00045	74 12		 je	 SHORT $LN48@Serialize
$LL4@Serialize:

; 1178 : 		{
; 1179 : 			ASSERT(AfxIsValidAddress(pNode, sizeof(CNode)));
; 1180 : 			TYPE* pData;
; 1181 : 			/*
; 1182 : 			 * in some cases the & operator might be overloaded, and we cannot use it to obtain
; 1183 : 			 * the address of a given object.  We then use the following trick to get the address
; 1184 : 			 */
; 1185 : 			pData = reinterpret_cast< TYPE* >( &reinterpret_cast< int& >( static_cast< TYPE& >( pNode->data ) ) );
; 1186 : 			SerializeElements<TYPE>(ar, pData, 1);

  00047	6a 01		 push	 1
  00049	8d 46 08	 lea	 eax, DWORD PTR [esi+8]
  0004c	50		 push	 eax
  0004d	53		 push	 ebx
  0004e	e8 00 00 00 00	 call	 ??$SerializeElements@V?$CStringT@DV?$StrTraitMFC_DLL@DV?$ChTraitsCRT@D@ATL@@@@@ATL@@@@YGXAAVCArchive@@PAV?$CStringT@DV?$StrTraitMFC_DLL@DV?$ChTraitsCRT@D@ATL@@@@@ATL@@H@Z ; SerializeElements<ATL::CStringT<char,StrTraitMFC_DLL<char,ATL::ChTraitsCRT<char> > > >
  00053	8b 36		 mov	 esi, DWORD PTR [esi]
  00055	85 f6		 test	 esi, esi
  00057	75 ee		 jne	 SHORT $LL4@Serialize
$LN48@Serialize:

; 1198 : 	}
; 1199 : }

  00059	8b 4d f4	 mov	 ecx, DWORD PTR __$EHRec$[ebp]
  0005c	64 89 0d 00 00
	00 00		 mov	 DWORD PTR fs:0, ecx
  00063	59		 pop	 ecx
  00064	5f		 pop	 edi
  00065	5e		 pop	 esi
  00066	5b		 pop	 ebx
  00067	8b e5		 mov	 esp, ebp
  00069	5d		 pop	 ebp
  0006a	c2 04 00	 ret	 4
$LN7@Serialize:

; 1187 : 		}
; 1188 : 	}
; 1189 : 	else
; 1190 : 	{
; 1191 : 		DWORD_PTR nNewCount = ar.ReadCount();

  0006d	e8 00 00 00 00	 call	 ?ReadCount@CArchive@@QAEKXZ ; CArchive::ReadCount

; 1192 : 		while (nNewCount--)

  00072	85 c0		 test	 eax, eax
  00074	74 e3		 je	 SHORT $LN48@Serialize
  00076	66 66 0f 1f 84
	00 00 00 00 00	 npad	 10
$LL5@Serialize:

; 1193 : 		{
; 1194 : 			TYPE newData[1];

  00080	ff 35 00 00 00
	00		 push	 DWORD PTR __imp_??1?$CStringT@DV?$StrTraitMFC_DLL@DV?$ChTraitsCRT@D@ATL@@@@@ATL@@QAE@XZ
  00086	48		 dec	 eax
  00087	ff 35 00 00 00
	00		 push	 DWORD PTR __imp_??0?$CStringT@DV?$StrTraitMFC_DLL@DV?$ChTraitsCRT@D@ATL@@@@@ATL@@QAE@XZ
  0008d	89 45 e8	 mov	 DWORD PTR _nNewCount$1$[ebp], eax
  00090	8d 45 f0	 lea	 eax, DWORD PTR _newData$3[ebp]
  00093	6a 01		 push	 1
  00095	6a 04		 push	 4
  00097	50		 push	 eax
  00098	e8 00 00 00 00	 call	 ??_L@YGXPAXIIP6EX0@Z1@Z

; 1195 : 			SerializeElements<TYPE>(ar, newData, 1);

  0009d	6a 01		 push	 1
  0009f	8d 45 f0	 lea	 eax, DWORD PTR _newData$3[ebp]
  000a2	c7 45 fc 00 00
	00 00		 mov	 DWORD PTR __$EHRec$[ebp+8], 0
  000a9	50		 push	 eax
  000aa	53		 push	 ebx
  000ab	e8 00 00 00 00	 call	 ??$SerializeElements@V?$CStringT@DV?$StrTraitMFC_DLL@DV?$ChTraitsCRT@D@ATL@@@@@ATL@@@@YGXAAVCArchive@@PAV?$CStringT@DV?$StrTraitMFC_DLL@DV?$ChTraitsCRT@D@ATL@@@@@ATL@@H@Z ; SerializeElements<ATL::CStringT<char,StrTraitMFC_DLL<char,ATL::ChTraitsCRT<char> > > >

; 1196 : 			AddTail(newData[0]);

  000b0	8d 45 f0	 lea	 eax, DWORD PTR _newData$3[ebp]
  000b3	50		 push	 eax
  000b4	8d 4d ec	 lea	 ecx, DWORD PTR $T2[ebp]
  000b7	ff 15 00 00 00
	00		 call	 DWORD PTR __imp_??0?$CStringT@DV?$StrTraitMFC_DLL@DV?$ChTraitsCRT@D@ATL@@@@@ATL@@QAE@ABV01@@Z

; 902  : 	if (m_pNodeFree == NULL)

  000bd	8b 5f 10	 mov	 ebx, DWORD PTR [edi+16]

; 968  : 	CNode* pNewNode = NewNode(m_pNodeTail, NULL);

  000c0	8b 77 08	 mov	 esi, DWORD PTR [edi+8]
  000c3	c6 45 fc 01	 mov	 BYTE PTR __$EHRec$[ebp+8], 1

; 902  : 	if (m_pNodeFree == NULL)

  000c7	85 db		 test	 ebx, ebx
  000c9	75 40		 jne	 SHORT $LN46@Serialize

; 903  : 	{
; 904  : 		// add another block
; 905  : 		CPlex* pNewBlock = CPlex::Create(m_pBlocks, m_nBlockSize,

  000cb	6a 0c		 push	 12			; 0000000cH
  000cd	ff 77 18	 push	 DWORD PTR [edi+24]
  000d0	8d 47 14	 lea	 eax, DWORD PTR [edi+20]
  000d3	50		 push	 eax
  000d4	e8 00 00 00 00	 call	 ?Create@CPlex@@SGPAU1@AAPAU1@II@Z ; CPlex::Create

; 906  : 				 sizeof(CNode));
; 907  : 
; 908  : 		// chain them into free list
; 909  : 		CNode* pNode = (CNode*) pNewBlock->data();
; 910  : 		// free in reverse order to make it easier to debug
; 911  : 		pNode += m_nBlockSize - 1;

  000d9	8b 57 18	 mov	 edx, DWORD PTR [edi+24]
  000dc	8d 0c 52	 lea	 ecx, DWORD PTR [edx+edx*2]
  000df	8d 04 88	 lea	 eax, DWORD PTR [eax+ecx*4]
  000e2	83 c0 fc	 add	 eax, -4			; fffffffcH

; 912  : 		for (INT_PTR i = m_nBlockSize-1; i >= 0; i--, pNode--)

  000e5	83 c2 ff	 add	 edx, -1
  000e8	78 1a		 js	 SHORT $LN47@Serialize
  000ea	66 0f 1f 44 00
	00		 npad	 6
$LL22@Serialize:

; 913  : 		{
; 914  : 			pNode->pNext = m_pNodeFree;

  000f0	8b 4f 10	 mov	 ecx, DWORD PTR [edi+16]
  000f3	8b d8		 mov	 ebx, eax
  000f5	89 08		 mov	 DWORD PTR [eax], ecx

; 915  : 			m_pNodeFree = pNode;

  000f7	89 47 10	 mov	 DWORD PTR [edi+16], eax
  000fa	83 e8 0c	 sub	 eax, 12			; 0000000cH
  000fd	83 ea 01	 sub	 edx, 1
  00100	79 ee		 jns	 SHORT $LL22@Serialize
  00102	eb 03		 jmp	 SHORT $LN25@Serialize
$LN47@Serialize:
  00104	8b 5f 10	 mov	 ebx, DWORD PTR [edi+16]
$LN25@Serialize:

; 916  : 		}
; 917  : 	}
; 918  : 	ENSURE(m_pNodeFree != NULL);  // we must have something

  00107	85 db		 test	 ebx, ebx
  00109	74 6e		 je	 SHORT $LN34@Serialize
$LN46@Serialize:

; 919  : 
; 920  : 	CList::CNode* pNode = m_pNodeFree;
; 921  : 	m_pNodeFree = m_pNodeFree->pNext;

  0010b	8b 03		 mov	 eax, DWORD PTR [ebx]

; 922  : 	pNode->pPrev = pPrev;
; 923  : 	pNode->pNext = pNext;
; 924  : 	m_nCount++;
; 925  : 	ASSERT(m_nCount > 0);  // make sure we don't overflow
; 926  : 
; 927  : #pragma push_macro("new")
; 928  : #undef new
; 929  : 	::new( (void*)( &pNode->data ) ) TYPE;

  0010d	8d 4b 08	 lea	 ecx, DWORD PTR [ebx+8]
  00110	89 47 10	 mov	 DWORD PTR [edi+16], eax
  00113	89 73 04	 mov	 DWORD PTR [ebx+4], esi
  00116	c7 03 00 00 00
	00		 mov	 DWORD PTR [ebx], 0
  0011c	ff 47 0c	 inc	 DWORD PTR [edi+12]
  0011f	ff 15 00 00 00
	00		 call	 DWORD PTR __imp_??0?$CStringT@DV?$StrTraitMFC_DLL@DV?$ChTraitsCRT@D@ATL@@@@@ATL@@QAE@XZ

; 969  : 	pNewNode->data = newElement;

  00125	8d 45 ec	 lea	 eax, DWORD PTR $T2[ebp]
  00128	50		 push	 eax
  00129	8d 4b 08	 lea	 ecx, DWORD PTR [ebx+8]
  0012c	ff 15 00 00 00
	00		 call	 DWORD PTR __imp_??4?$CStringT@DV?$StrTraitMFC_DLL@DV?$ChTraitsCRT@D@ATL@@@@@ATL@@QAEAAV01@ABV01@@Z

; 970  : 	if (m_pNodeTail != NULL)

  00132	8b 47 08	 mov	 eax, DWORD PTR [edi+8]
  00135	85 c0		 test	 eax, eax
  00137	74 04		 je	 SHORT $LN15@Serialize

; 971  : 		m_pNodeTail->pNext = pNewNode;

  00139	89 18		 mov	 DWORD PTR [eax], ebx
  0013b	eb 03		 jmp	 SHORT $LN16@Serialize
$LN15@Serialize:

; 972  : 	else
; 973  : 		m_pNodeHead = pNewNode;

  0013d	89 5f 04	 mov	 DWORD PTR [edi+4], ebx
$LN16@Serialize:

; 974  : 	m_pNodeTail = pNewNode;
; 975  : 	return (POSITION) pNewNode;

  00140	8d 4d ec	 lea	 ecx, DWORD PTR $T2[ebp]
  00143	89 5f 08	 mov	 DWORD PTR [edi+8], ebx
  00146	ff 15 00 00 00
	00		 call	 DWORD PTR __imp_??1?$CStringT@DV?$StrTraitMFC_DLL@DV?$ChTraitsCRT@D@ATL@@@@@ATL@@QAE@XZ

; 1197 : 		}

  0014c	ff 35 00 00 00
	00		 push	 DWORD PTR __imp_??1?$CStringT@DV?$StrTraitMFC_DLL@DV?$ChTraitsCRT@D@ATL@@@@@ATL@@QAE@XZ
  00152	8d 45 f0	 lea	 eax, DWORD PTR _newData$3[ebp]
  00155	c7 45 fc ff ff
	ff ff		 mov	 DWORD PTR __$EHRec$[ebp+8], -1
  0015c	6a 01		 push	 1
  0015e	6a 04		 push	 4
  00160	50		 push	 eax
  00161	e8 00 00 00 00	 call	 ??_M@YGXPAXIIP6EX0@Z@Z
  00166	8b 45 e8	 mov	 eax, DWORD PTR _nNewCount$1$[ebp]
  00169	85 c0		 test	 eax, eax
  0016b	0f 84 e8 fe ff
	ff		 je	 $LN48@Serialize

; 1192 : 		while (nNewCount--)

  00171	8b 5d 08	 mov	 ebx, DWORD PTR _ar$[ebp]
  00174	e9 07 ff ff ff	 jmp	 $LL5@Serialize
$LN34@Serialize:

; 918  : 	ENSURE(m_pNodeFree != NULL);  // we must have something

  00179	e8 00 00 00 00	 call	 ?AfxThrowInvalidArgException@@YGXXZ ; AfxThrowInvalidArgException
$LN50@Serialize:
  0017e	cc		 int	 3
_TEXT	ENDS
;	COMDAT text$x
text$x	SEGMENT
__unwindfunclet$?Serialize@?$CList@V?$CStringT@DV?$StrTraitMFC_DLL@DV?$ChTraitsCRT@D@ATL@@@@@ATL@@V12@@@UAEXAAVCArchive@@@Z$0:
  00000	a1 00 00 00 00	 mov	 eax, DWORD PTR __imp_??1?$CStringT@DV?$StrTraitMFC_DLL@DV?$ChTraitsCRT@D@ATL@@@@@ATL@@QAE@XZ
  00005	50		 push	 eax
  00006	6a 01		 push	 1
  00008	6a 04		 push	 4
  0000a	8d 45 f0	 lea	 eax, DWORD PTR _newData$3[ebp]
  0000d	50		 push	 eax
  0000e	e8 00 00 00 00	 call	 ??_M@YGXPAXIIP6EX0@Z@Z
  00013	c3		 ret	 0
__unwindfunclet$?Serialize@?$CList@V?$CStringT@DV?$StrTraitMFC_DLL@DV?$ChTraitsCRT@D@ATL@@@@@ATL@@V12@@@UAEXAAVCArchive@@@Z$2:
  00014	8d 4d ec	 lea	 ecx, DWORD PTR $T2[ebp]
  00017	ff 25 00 00 00
	00		 jmp	 DWORD PTR __imp_??1?$CStringT@DV?$StrTraitMFC_DLL@DV?$ChTraitsCRT@D@ATL@@@@@ATL@@QAE@XZ
  0001d	cc		 int	 3
  0001e	cc		 int	 3
  0001f	cc		 int	 3
  00020	cc		 int	 3
  00021	cc		 int	 3
__ehhandler$?Serialize@?$CList@V?$CStringT@DV?$StrTraitMFC_DLL@DV?$ChTraitsCRT@D@ATL@@@@@ATL@@V12@@@UAEXAAVCArchive@@@Z:
  00022	90		 npad	 1
  00023	90		 npad	 1
  00024	8b 54 24 08	 mov	 edx, DWORD PTR [esp+8]
  00028	8d 42 0c	 lea	 eax, DWORD PTR [edx+12]
  0002b	8b 4a e4	 mov	 ecx, DWORD PTR [edx-28]
  0002e	33 c8		 xor	 ecx, eax
  00030	e8 00 00 00 00	 call	 @__security_check_cookie@4
  00035	b8 00 00 00 00	 mov	 eax, OFFSET __ehfuncinfo$?Serialize@?$CList@V?$CStringT@DV?$StrTraitMFC_DLL@DV?$ChTraitsCRT@D@ATL@@@@@ATL@@V12@@@UAEXAAVCArchive@@@Z
  0003a	e9 00 00 00 00	 jmp	 ___CxxFrameHandler3
text$x	ENDS
?Serialize@?$CList@V?$CStringT@DV?$StrTraitMFC_DLL@DV?$ChTraitsCRT@D@ATL@@@@@ATL@@V12@@@UAEXAAVCArchive@@@Z ENDP ; CList<ATL::CStringT<char,StrTraitMFC_DLL<char,ATL::ChTraitsCRT<char> > >,ATL::CStringT<char,StrTraitMFC_DLL<char,ATL::ChTraitsCRT<char> > > >::Serialize
; Function compile flags: /Ogtp
; File C:\Program Files (x86)\Microsoft Visual Studio\2019\Community\VC\Tools\MSVC\14.29.30133\atlmfc\include\afxtempl.h
;	COMDAT ??1?$CList@V?$CStringT@DV?$StrTraitMFC_DLL@DV?$ChTraitsCRT@D@ATL@@@@@ATL@@V12@@@UAE@XZ
_TEXT	SEGMENT
__$EHRec$ = -12						; size = 12
??1?$CList@V?$CStringT@DV?$StrTraitMFC_DLL@DV?$ChTraitsCRT@D@ATL@@@@@ATL@@V12@@@UAE@XZ PROC ; CList<ATL::CStringT<char,StrTraitMFC_DLL<char,ATL::ChTraitsCRT<char> > >,ATL::CStringT<char,StrTraitMFC_DLL<char,ATL::ChTraitsCRT<char> > > >::~CList<ATL::CStringT<char,StrTraitMFC_DLL<char,ATL::ChTraitsCRT<char> > >,ATL::CStringT<char,StrTraitMFC_DLL<char,ATL::ChTraitsCRT<char> > > >, COMDAT
; _this$ = ecx

; 878  : {

  00000	55		 push	 ebp
  00001	8b ec		 mov	 ebp, esp
  00003	6a ff		 push	 -1
  00005	68 00 00 00 00	 push	 __ehhandler$??1?$CList@V?$CStringT@DV?$StrTraitMFC_DLL@DV?$ChTraitsCRT@D@ATL@@@@@ATL@@V12@@@UAE@XZ
  0000a	64 a1 00 00 00
	00		 mov	 eax, DWORD PTR fs:0
  00010	50		 push	 eax
  00011	56		 push	 esi
  00012	57		 push	 edi
  00013	a1 00 00 00 00	 mov	 eax, DWORD PTR ___security_cookie
  00018	33 c5		 xor	 eax, ebp
  0001a	50		 push	 eax
  0001b	8d 45 f4	 lea	 eax, DWORD PTR __$EHRec$[ebp]
  0001e	64 a3 00 00 00
	00		 mov	 DWORD PTR fs:0, eax
  00024	8b f9		 mov	 edi, ecx

; 867  : 	for (pNode = m_pNodeHead; pNode != NULL; pNode = pNode->pNext)

  00026	8b 77 04	 mov	 esi, DWORD PTR [edi+4]

; 878  : {

  00029	c7 07 00 00 00
	00		 mov	 DWORD PTR [edi], OFFSET ??_7?$CList@V?$CStringT@DV?$StrTraitMFC_DLL@DV?$ChTraitsCRT@D@ATL@@@@@ATL@@V12@@@6B@

; 867  : 	for (pNode = m_pNodeHead; pNode != NULL; pNode = pNode->pNext)

  0002f	85 f6		 test	 esi, esi
  00031	74 0f		 je	 SHORT $LN5@CList
$LL6@CList:

; 868  : 		pNode->data.~TYPE();

  00033	8d 4e 08	 lea	 ecx, DWORD PTR [esi+8]
  00036	ff 15 00 00 00
	00		 call	 DWORD PTR __imp_??1?$CStringT@DV?$StrTraitMFC_DLL@DV?$ChTraitsCRT@D@ATL@@@@@ATL@@QAE@XZ

; 867  : 	for (pNode = m_pNodeHead; pNode != NULL; pNode = pNode->pNext)

  0003c	8b 36		 mov	 esi, DWORD PTR [esi]
  0003e	85 f6		 test	 esi, esi
  00040	75 f1		 jne	 SHORT $LL6@CList
$LN5@CList:

; 869  : 
; 870  : 	m_nCount = 0;
; 871  : 	m_pNodeHead = m_pNodeTail = m_pNodeFree = NULL;
; 872  : 	m_pBlocks->FreeDataChain();

  00042	8b 4f 14	 mov	 ecx, DWORD PTR [edi+20]
  00045	c7 47 0c 00 00
	00 00		 mov	 DWORD PTR [edi+12], 0
  0004c	c7 47 10 00 00
	00 00		 mov	 DWORD PTR [edi+16], 0
  00053	c7 47 08 00 00
	00 00		 mov	 DWORD PTR [edi+8], 0
  0005a	c7 47 04 00 00
	00 00		 mov	 DWORD PTR [edi+4], 0
  00061	e8 00 00 00 00	 call	 ?FreeDataChain@CPlex@@QAEXXZ ; CPlex::FreeDataChain

; 873  : 	m_pBlocks = NULL;

  00066	c7 47 14 00 00
	00 00		 mov	 DWORD PTR [edi+20], 0

; 879  : 	RemoveAll();
; 880  : 	ASSERT(m_nCount == 0);
; 881  : }

  0006d	8b 4d f4	 mov	 ecx, DWORD PTR __$EHRec$[ebp]
  00070	64 89 0d 00 00
	00 00		 mov	 DWORD PTR fs:0, ecx
  00077	59		 pop	 ecx
  00078	5f		 pop	 edi
  00079	5e		 pop	 esi
  0007a	8b e5		 mov	 esp, ebp
  0007c	5d		 pop	 ebp
  0007d	c3		 ret	 0
  0007e	cc		 int	 3
  0007f	cc		 int	 3
  00080	cc		 int	 3
  00081	cc		 int	 3
  00082	cc		 int	 3
_TEXT	ENDS
;	COMDAT text$x
text$x	SEGMENT
__ehhandler$??1?$CList@V?$CStringT@DV?$StrTraitMFC_DLL@DV?$ChTraitsCRT@D@ATL@@@@@ATL@@V12@@@UAE@XZ:
  00000	90		 npad	 1
  00001	90		 npad	 1
  00002	8b 54 24 08	 mov	 edx, DWORD PTR [esp+8]
  00006	8d 42 0c	 lea	 eax, DWORD PTR [edx+12]
  00009	8b 4a f4	 mov	 ecx, DWORD PTR [edx-12]
  0000c	33 c8		 xor	 ecx, eax
  0000e	e8 00 00 00 00	 call	 @__security_check_cookie@4
  00013	b8 00 00 00 00	 mov	 eax, OFFSET __ehfuncinfo$??1?$CList@V?$CStringT@DV?$StrTraitMFC_DLL@DV?$ChTraitsCRT@D@ATL@@@@@ATL@@V12@@@UAE@XZ
  00018	e9 00 00 00 00	 jmp	 ___CxxFrameHandler3
text$x	ENDS
??1?$CList@V?$CStringT@DV?$StrTraitMFC_DLL@DV?$ChTraitsCRT@D@ATL@@@@@ATL@@V12@@@UAE@XZ ENDP ; CList<ATL::CStringT<char,StrTraitMFC_DLL<char,ATL::ChTraitsCRT<char> > >,ATL::CStringT<char,StrTraitMFC_DLL<char,ATL::ChTraitsCRT<char> > > >::~CList<ATL::CStringT<char,StrTraitMFC_DLL<char,ATL::ChTraitsCRT<char> > >,ATL::CStringT<char,StrTraitMFC_DLL<char,ATL::ChTraitsCRT<char> > > >
; Function compile flags: /Ogtp
; File C:\Program Files (x86)\Microsoft Visual Studio\2019\Community\VC\Tools\MSVC\14.29.30133\atlmfc\include\afxtempl.h
;	COMDAT ?NewNode@?$CList@V?$CStringT@DV?$StrTraitMFC_DLL@DV?$ChTraitsCRT@D@ATL@@@@@ATL@@V12@@@IAEPAUCNode@1@PAU21@0@Z
_TEXT	SEGMENT
_pPrev$ = 8						; size = 4
_pNext$ = 12						; size = 4
?NewNode@?$CList@V?$CStringT@DV?$StrTraitMFC_DLL@DV?$ChTraitsCRT@D@ATL@@@@@ATL@@V12@@@IAEPAUCNode@1@PAU21@0@Z PROC ; CList<ATL::CStringT<char,StrTraitMFC_DLL<char,ATL::ChTraitsCRT<char> > >,ATL::CStringT<char,StrTraitMFC_DLL<char,ATL::ChTraitsCRT<char> > > >::NewNode, COMDAT
; _this$ = ecx

; 901  : {

  00000	55		 push	 ebp
  00001	8b ec		 mov	 ebp, esp
  00003	56		 push	 esi
  00004	8b f1		 mov	 esi, ecx
  00006	57		 push	 edi

; 902  : 	if (m_pNodeFree == NULL)

  00007	83 7e 10 00	 cmp	 DWORD PTR [esi+16], 0
  0000b	75 33		 jne	 SHORT $LN7@NewNode

; 903  : 	{
; 904  : 		// add another block
; 905  : 		CPlex* pNewBlock = CPlex::Create(m_pBlocks, m_nBlockSize,

  0000d	6a 0c		 push	 12			; 0000000cH
  0000f	ff 76 18	 push	 DWORD PTR [esi+24]
  00012	8d 46 14	 lea	 eax, DWORD PTR [esi+20]
  00015	50		 push	 eax
  00016	e8 00 00 00 00	 call	 ?Create@CPlex@@SGPAU1@AAPAU1@II@Z ; CPlex::Create

; 906  : 				 sizeof(CNode));
; 907  : 
; 908  : 		// chain them into free list
; 909  : 		CNode* pNode = (CNode*) pNewBlock->data();
; 910  : 		// free in reverse order to make it easier to debug
; 911  : 		pNode += m_nBlockSize - 1;

  0001b	8b 56 18	 mov	 edx, DWORD PTR [esi+24]
  0001e	83 c0 08	 add	 eax, 8
  00021	8d 0c 52	 lea	 ecx, DWORD PTR [edx+edx*2]
  00024	8d 04 88	 lea	 eax, DWORD PTR [eax+ecx*4]
  00027	83 c0 f4	 add	 eax, -12		; fffffff4H

; 912  : 		for (INT_PTR i = m_nBlockSize-1; i >= 0; i--, pNode--)

  0002a	83 c2 ff	 add	 edx, -1
  0002d	78 11		 js	 SHORT $LN7@NewNode
  0002f	90		 npad	 1
$LL4@NewNode:

; 913  : 		{
; 914  : 			pNode->pNext = m_pNodeFree;

  00030	8b 4e 10	 mov	 ecx, DWORD PTR [esi+16]
  00033	89 08		 mov	 DWORD PTR [eax], ecx

; 915  : 			m_pNodeFree = pNode;

  00035	89 46 10	 mov	 DWORD PTR [esi+16], eax
  00038	83 e8 0c	 sub	 eax, 12			; 0000000cH
  0003b	83 ea 01	 sub	 edx, 1
  0003e	79 f0		 jns	 SHORT $LL4@NewNode
$LN7@NewNode:

; 916  : 		}
; 917  : 	}
; 918  : 	ENSURE(m_pNodeFree != NULL);  // we must have something

  00040	8b 7e 10	 mov	 edi, DWORD PTR [esi+16]
  00043	85 ff		 test	 edi, edi
  00045	74 24		 je	 SHORT $LN17@NewNode

; 919  : 
; 920  : 	CList::CNode* pNode = m_pNodeFree;
; 921  : 	m_pNodeFree = m_pNodeFree->pNext;

  00047	8b 07		 mov	 eax, DWORD PTR [edi]

; 922  : 	pNode->pPrev = pPrev;

  00049	8b 4d 08	 mov	 ecx, DWORD PTR _pPrev$[ebp]
  0004c	89 46 10	 mov	 DWORD PTR [esi+16], eax
  0004f	89 4f 04	 mov	 DWORD PTR [edi+4], ecx

; 923  : 	pNode->pNext = pNext;

  00052	8b 4d 0c	 mov	 ecx, DWORD PTR _pNext$[ebp]
  00055	89 0f		 mov	 DWORD PTR [edi], ecx

; 924  : 	m_nCount++;
; 925  : 	ASSERT(m_nCount > 0);  // make sure we don't overflow
; 926  : 
; 927  : #pragma push_macro("new")
; 928  : #undef new
; 929  : 	::new( (void*)( &pNode->data ) ) TYPE;

  00057	8d 4f 08	 lea	 ecx, DWORD PTR [edi+8]
  0005a	ff 46 0c	 inc	 DWORD PTR [esi+12]
  0005d	ff 15 00 00 00
	00		 call	 DWORD PTR __imp_??0?$CStringT@DV?$StrTraitMFC_DLL@DV?$ChTraitsCRT@D@ATL@@@@@ATL@@QAE@XZ

; 930  : #pragma pop_macro("new")
; 931  : 	return pNode;

  00063	8b c7		 mov	 eax, edi
  00065	5f		 pop	 edi
  00066	5e		 pop	 esi

; 932  : }

  00067	5d		 pop	 ebp
  00068	c2 08 00	 ret	 8
$LN17@NewNode:

; 916  : 		}
; 917  : 	}
; 918  : 	ENSURE(m_pNodeFree != NULL);  // we must have something

  0006b	e8 00 00 00 00	 call	 ?AfxThrowInvalidArgException@@YGXXZ ; AfxThrowInvalidArgException
$LN15@NewNode:
  00070	cc		 int	 3
?NewNode@?$CList@V?$CStringT@DV?$StrTraitMFC_DLL@DV?$ChTraitsCRT@D@ATL@@@@@ATL@@V12@@@IAEPAUCNode@1@PAU21@0@Z ENDP ; CList<ATL::CStringT<char,StrTraitMFC_DLL<char,ATL::ChTraitsCRT<char> > >,ATL::CStringT<char,StrTraitMFC_DLL<char,ATL::ChTraitsCRT<char> > > >::NewNode
_TEXT	ENDS
; Function compile flags: /Ogtp
; File C:\Program Files (x86)\Microsoft Visual Studio\2019\Community\VC\Tools\MSVC\14.29.30133\atlmfc\include\afxtempl.h
;	COMDAT ?RemoveAll@?$CList@V?$CStringT@DV?$StrTraitMFC_DLL@DV?$ChTraitsCRT@D@ATL@@@@@ATL@@V12@@@QAEXXZ
_TEXT	SEGMENT
?RemoveAll@?$CList@V?$CStringT@DV?$StrTraitMFC_DLL@DV?$ChTraitsCRT@D@ATL@@@@@ATL@@V12@@@QAEXXZ PROC ; CList<ATL::CStringT<char,StrTraitMFC_DLL<char,ATL::ChTraitsCRT<char> > >,ATL::CStringT<char,StrTraitMFC_DLL<char,ATL::ChTraitsCRT<char> > > >::RemoveAll, COMDAT
; _this$ = ecx

; 862  : {

  00000	56		 push	 esi
  00001	57		 push	 edi
  00002	8b f9		 mov	 edi, ecx

; 863  : 	ASSERT_VALID(this);
; 864  : 
; 865  : 	// destroy elements
; 866  : 	CNode* pNode;
; 867  : 	for (pNode = m_pNodeHead; pNode != NULL; pNode = pNode->pNext)

  00004	8b 77 04	 mov	 esi, DWORD PTR [edi+4]
  00007	85 f6		 test	 esi, esi
  00009	74 14		 je	 SHORT $LN3@RemoveAll
  0000b	0f 1f 44 00 00	 npad	 5
$LL4@RemoveAll:

; 868  : 		pNode->data.~TYPE();

  00010	8d 4e 08	 lea	 ecx, DWORD PTR [esi+8]
  00013	ff 15 00 00 00
	00		 call	 DWORD PTR __imp_??1?$CStringT@DV?$StrTraitMFC_DLL@DV?$ChTraitsCRT@D@ATL@@@@@ATL@@QAE@XZ
  00019	8b 36		 mov	 esi, DWORD PTR [esi]
  0001b	85 f6		 test	 esi, esi
  0001d	75 f1		 jne	 SHORT $LL4@RemoveAll
$LN3@RemoveAll:

; 869  : 
; 870  : 	m_nCount = 0;
; 871  : 	m_pNodeHead = m_pNodeTail = m_pNodeFree = NULL;
; 872  : 	m_pBlocks->FreeDataChain();

  0001f	8b 4f 14	 mov	 ecx, DWORD PTR [edi+20]
  00022	c7 47 0c 00 00
	00 00		 mov	 DWORD PTR [edi+12], 0
  00029	c7 47 10 00 00
	00 00		 mov	 DWORD PTR [edi+16], 0
  00030	c7 47 08 00 00
	00 00		 mov	 DWORD PTR [edi+8], 0
  00037	c7 47 04 00 00
	00 00		 mov	 DWORD PTR [edi+4], 0
  0003e	e8 00 00 00 00	 call	 ?FreeDataChain@CPlex@@QAEXXZ ; CPlex::FreeDataChain

; 873  : 	m_pBlocks = NULL;

  00043	c7 47 14 00 00
	00 00		 mov	 DWORD PTR [edi+20], 0
  0004a	5f		 pop	 edi
  0004b	5e		 pop	 esi

; 874  : }

  0004c	c3		 ret	 0
?RemoveAll@?$CList@V?$CStringT@DV?$StrTraitMFC_DLL@DV?$ChTraitsCRT@D@ATL@@@@@ATL@@V12@@@QAEXXZ ENDP ; CList<ATL::CStringT<char,StrTraitMFC_DLL<char,ATL::ChTraitsCRT<char> > >,ATL::CStringT<char,StrTraitMFC_DLL<char,ATL::ChTraitsCRT<char> > > >::RemoveAll
_TEXT	ENDS
; Function compile flags: /Ogtp
; File C:\Program Files (x86)\Microsoft Visual Studio\2019\Community\VC\Tools\MSVC\14.29.30133\atlmfc\include\afxtempl.h
;	COMDAT ?AddTail@?$CList@V?$CStringT@DV?$StrTraitMFC_DLL@DV?$ChTraitsCRT@D@ATL@@@@@ATL@@V12@@@QAEPAU__POSITION@@V?$CStringT@DV?$StrTraitMFC_DLL@DV?$ChTraitsCRT@D@ATL@@@@@ATL@@@Z
_TEXT	SEGMENT
__$EHRec$ = -12						; size = 12
_newElement$ = 8					; size = 4
?AddTail@?$CList@V?$CStringT@DV?$StrTraitMFC_DLL@DV?$ChTraitsCRT@D@ATL@@@@@ATL@@V12@@@QAEPAU__POSITION@@V?$CStringT@DV?$StrTraitMFC_DLL@DV?$ChTraitsCRT@D@ATL@@@@@ATL@@@Z PROC ; CList<ATL::CStringT<char,StrTraitMFC_DLL<char,ATL::ChTraitsCRT<char> > >,ATL::CStringT<char,StrTraitMFC_DLL<char,ATL::ChTraitsCRT<char> > > >::AddTail, COMDAT
; _this$ = ecx

; 965  : {

  00000	55		 push	 ebp
  00001	8b ec		 mov	 ebp, esp
  00003	6a ff		 push	 -1
  00005	68 00 00 00 00	 push	 __ehhandler$?AddTail@?$CList@V?$CStringT@DV?$StrTraitMFC_DLL@DV?$ChTraitsCRT@D@ATL@@@@@ATL@@V12@@@QAEPAU__POSITION@@V?$CStringT@DV?$StrTraitMFC_DLL@DV?$ChTraitsCRT@D@ATL@@@@@ATL@@@Z
  0000a	64 a1 00 00 00
	00		 mov	 eax, DWORD PTR fs:0
  00010	50		 push	 eax
  00011	53		 push	 ebx
  00012	56		 push	 esi
  00013	57		 push	 edi
  00014	a1 00 00 00 00	 mov	 eax, DWORD PTR ___security_cookie
  00019	33 c5		 xor	 eax, ebp
  0001b	50		 push	 eax
  0001c	8d 45 f4	 lea	 eax, DWORD PTR __$EHRec$[ebp]
  0001f	64 a3 00 00 00
	00		 mov	 DWORD PTR fs:0, eax
  00025	8b f1		 mov	 esi, ecx

; 902  : 	if (m_pNodeFree == NULL)

  00027	83 7e 10 00	 cmp	 DWORD PTR [esi+16], 0

; 966  : 	ASSERT_VALID(this);
; 967  : 
; 968  : 	CNode* pNewNode = NewNode(m_pNodeTail, NULL);

  0002b	8b 7e 08	 mov	 edi, DWORD PTR [esi+8]
  0002e	c7 45 fc 00 00
	00 00		 mov	 DWORD PTR __$EHRec$[ebp+8], 0

; 902  : 	if (m_pNodeFree == NULL)

  00035	75 39		 jne	 SHORT $LN12@AddTail

; 903  : 	{
; 904  : 		// add another block
; 905  : 		CPlex* pNewBlock = CPlex::Create(m_pBlocks, m_nBlockSize,

  00037	6a 0c		 push	 12			; 0000000cH
  00039	ff 76 18	 push	 DWORD PTR [esi+24]
  0003c	8d 46 14	 lea	 eax, DWORD PTR [esi+20]
  0003f	50		 push	 eax
  00040	e8 00 00 00 00	 call	 ?Create@CPlex@@SGPAU1@AAPAU1@II@Z ; CPlex::Create

; 906  : 				 sizeof(CNode));
; 907  : 
; 908  : 		// chain them into free list
; 909  : 		CNode* pNode = (CNode*) pNewBlock->data();
; 910  : 		// free in reverse order to make it easier to debug
; 911  : 		pNode += m_nBlockSize - 1;

  00045	8b 56 18	 mov	 edx, DWORD PTR [esi+24]
  00048	83 c0 08	 add	 eax, 8
  0004b	8d 4a ff	 lea	 ecx, DWORD PTR [edx-1]

; 912  : 		for (INT_PTR i = m_nBlockSize-1; i >= 0; i--, pNode--)

  0004e	83 c2 ff	 add	 edx, -1
  00051	8d 0c 49	 lea	 ecx, DWORD PTR [ecx+ecx*2]
  00054	8d 0c 88	 lea	 ecx, DWORD PTR [eax+ecx*4]
  00057	78 17		 js	 SHORT $LN12@AddTail
  00059	0f 1f 80 00 00
	00 00		 npad	 7
$LL9@AddTail:

; 913  : 		{
; 914  : 			pNode->pNext = m_pNodeFree;

  00060	8b 46 10	 mov	 eax, DWORD PTR [esi+16]
  00063	89 01		 mov	 DWORD PTR [ecx], eax

; 915  : 			m_pNodeFree = pNode;

  00065	89 4e 10	 mov	 DWORD PTR [esi+16], ecx
  00068	83 e9 0c	 sub	 ecx, 12			; 0000000cH
  0006b	83 ea 01	 sub	 edx, 1
  0006e	79 f0		 jns	 SHORT $LL9@AddTail
$LN12@AddTail:

; 916  : 		}
; 917  : 	}
; 918  : 	ENSURE(m_pNodeFree != NULL);  // we must have something

  00070	8b 5e 10	 mov	 ebx, DWORD PTR [esi+16]
  00073	85 db		 test	 ebx, ebx
  00075	74 57		 je	 SHORT $LN24@AddTail

; 919  : 
; 920  : 	CList::CNode* pNode = m_pNodeFree;
; 921  : 	m_pNodeFree = m_pNodeFree->pNext;

  00077	8b 03		 mov	 eax, DWORD PTR [ebx]

; 922  : 	pNode->pPrev = pPrev;
; 923  : 	pNode->pNext = pNext;
; 924  : 	m_nCount++;
; 925  : 	ASSERT(m_nCount > 0);  // make sure we don't overflow
; 926  : 
; 927  : #pragma push_macro("new")
; 928  : #undef new
; 929  : 	::new( (void*)( &pNode->data ) ) TYPE;

  00079	8d 4b 08	 lea	 ecx, DWORD PTR [ebx+8]
  0007c	89 46 10	 mov	 DWORD PTR [esi+16], eax
  0007f	89 7b 04	 mov	 DWORD PTR [ebx+4], edi
  00082	c7 03 00 00 00
	00		 mov	 DWORD PTR [ebx], 0
  00088	ff 46 0c	 inc	 DWORD PTR [esi+12]
  0008b	ff 15 00 00 00
	00		 call	 DWORD PTR __imp_??0?$CStringT@DV?$StrTraitMFC_DLL@DV?$ChTraitsCRT@D@ATL@@@@@ATL@@QAE@XZ

; 969  : 	pNewNode->data = newElement;

  00091	8d 45 08	 lea	 eax, DWORD PTR _newElement$[ebp]
  00094	50		 push	 eax
  00095	8d 4b 08	 lea	 ecx, DWORD PTR [ebx+8]
  00098	ff 15 00 00 00
	00		 call	 DWORD PTR __imp_??4?$CStringT@DV?$StrTraitMFC_DLL@DV?$ChTraitsCRT@D@ATL@@@@@ATL@@QAEAAV01@ABV01@@Z

; 970  : 	if (m_pNodeTail != NULL)

  0009e	8b 46 08	 mov	 eax, DWORD PTR [esi+8]
  000a1	85 c0		 test	 eax, eax
  000a3	74 04		 je	 SHORT $LN2@AddTail

; 971  : 		m_pNodeTail->pNext = pNewNode;

  000a5	89 18		 mov	 DWORD PTR [eax], ebx
  000a7	eb 03		 jmp	 SHORT $LN3@AddTail
$LN2@AddTail:

; 972  : 	else
; 973  : 		m_pNodeHead = pNewNode;

  000a9	89 5e 04	 mov	 DWORD PTR [esi+4], ebx
$LN3@AddTail:

; 974  : 	m_pNodeTail = pNewNode;
; 975  : 	return (POSITION) pNewNode;

  000ac	8d 4d 08	 lea	 ecx, DWORD PTR _newElement$[ebp]
  000af	89 5e 08	 mov	 DWORD PTR [esi+8], ebx
  000b2	ff 15 00 00 00
	00		 call	 DWORD PTR __imp_??1?$CStringT@DV?$StrTraitMFC_DLL@DV?$ChTraitsCRT@D@ATL@@@@@ATL@@QAE@XZ
  000b8	8b c3		 mov	 eax, ebx

; 976  : }

  000ba	8b 4d f4	 mov	 ecx, DWORD PTR __$EHRec$[ebp]
  000bd	64 89 0d 00 00
	00 00		 mov	 DWORD PTR fs:0, ecx
  000c4	59		 pop	 ecx
  000c5	5f		 pop	 edi
  000c6	5e		 pop	 esi
  000c7	5b		 pop	 ebx
  000c8	8b e5		 mov	 esp, ebp
  000ca	5d		 pop	 ebp
  000cb	c2 04 00	 ret	 4
$LN24@AddTail:

; 918  : 	ENSURE(m_pNodeFree != NULL);  // we must have something

  000ce	e8 00 00 00 00	 call	 ?AfxThrowInvalidArgException@@YGXXZ ; AfxThrowInvalidArgException
$LN22@AddTail:
  000d3	cc		 int	 3
_TEXT	ENDS
;	COMDAT text$x
text$x	SEGMENT
__unwindfunclet$?AddTail@?$CList@V?$CStringT@DV?$StrTraitMFC_DLL@DV?$ChTraitsCRT@D@ATL@@@@@ATL@@V12@@@QAEPAU__POSITION@@V?$CStringT@DV?$StrTraitMFC_DLL@DV?$ChTraitsCRT@D@ATL@@@@@ATL@@@Z$0:
  00000	8d 4d 08	 lea	 ecx, DWORD PTR _newElement$[ebp]
  00003	ff 25 00 00 00
	00		 jmp	 DWORD PTR __imp_??1?$CStringT@DV?$StrTraitMFC_DLL@DV?$ChTraitsCRT@D@ATL@@@@@ATL@@QAE@XZ
  00009	cc		 int	 3
  0000a	cc		 int	 3
  0000b	cc		 int	 3
  0000c	cc		 int	 3
  0000d	cc		 int	 3
__ehhandler$?AddTail@?$CList@V?$CStringT@DV?$StrTraitMFC_DLL@DV?$ChTraitsCRT@D@ATL@@@@@ATL@@V12@@@QAEPAU__POSITION@@V?$CStringT@DV?$StrTraitMFC_DLL@DV?$ChTraitsCRT@D@ATL@@@@@ATL@@@Z:
  0000e	90		 npad	 1
  0000f	90		 npad	 1
  00010	8b 54 24 08	 mov	 edx, DWORD PTR [esp+8]
  00014	8d 42 0c	 lea	 eax, DWORD PTR [edx+12]
  00017	8b 4a f0	 mov	 ecx, DWORD PTR [edx-16]
  0001a	33 c8		 xor	 ecx, eax
  0001c	e8 00 00 00 00	 call	 @__security_check_cookie@4
  00021	b8 00 00 00 00	 mov	 eax, OFFSET __ehfuncinfo$?AddTail@?$CList@V?$CStringT@DV?$StrTraitMFC_DLL@DV?$ChTraitsCRT@D@ATL@@@@@ATL@@V12@@@QAEPAU__POSITION@@V?$CStringT@DV?$StrTraitMFC_DLL@DV?$ChTraitsCRT@D@ATL@@@@@ATL@@@Z
  00026	e9 00 00 00 00	 jmp	 ___CxxFrameHandler3
text$x	ENDS
?AddTail@?$CList@V?$CStringT@DV?$StrTraitMFC_DLL@DV?$ChTraitsCRT@D@ATL@@@@@ATL@@V12@@@QAEPAU__POSITION@@V?$CStringT@DV?$StrTraitMFC_DLL@DV?$ChTraitsCRT@D@ATL@@@@@ATL@@@Z ENDP ; CList<ATL::CStringT<char,StrTraitMFC_DLL<char,ATL::ChTraitsCRT<char> > >,ATL::CStringT<char,StrTraitMFC_DLL<char,ATL::ChTraitsCRT<char> > > >::AddTail
; Function compile flags: /Ogtp
; File C:\Program Files (x86)\Microsoft Visual Studio\2019\Community\VC\Tools\MSVC\14.29.30133\atlmfc\include\afxtempl.h
;	COMDAT ??0?$CList@V?$CStringT@DV?$StrTraitMFC_DLL@DV?$ChTraitsCRT@D@ATL@@@@@ATL@@V12@@@QAE@H@Z
_TEXT	SEGMENT
_nBlockSize$ = 8					; size = 4
??0?$CList@V?$CStringT@DV?$StrTraitMFC_DLL@DV?$ChTraitsCRT@D@ATL@@@@@ATL@@V12@@@QAE@H@Z PROC ; CList<ATL::CStringT<char,StrTraitMFC_DLL<char,ATL::ChTraitsCRT<char> > >,ATL::CStringT<char,StrTraitMFC_DLL<char,ATL::ChTraitsCRT<char> > > >::CList<ATL::CStringT<char,StrTraitMFC_DLL<char,ATL::ChTraitsCRT<char> > >,ATL::CStringT<char,StrTraitMFC_DLL<char,ATL::ChTraitsCRT<char> > > >, COMDAT
; _this$ = ecx

; 851  : {

  00000	55		 push	 ebp
  00001	8b ec		 mov	 ebp, esp

; 852  : 	ASSERT(nBlockSize > 0);
; 853  : 
; 854  : 	m_nCount = 0;
; 855  : 	m_pNodeHead = m_pNodeTail = m_pNodeFree = NULL;
; 856  : 	m_pBlocks = NULL;
; 857  : 	m_nBlockSize = nBlockSize;

  00003	8b 45 08	 mov	 eax, DWORD PTR _nBlockSize$[ebp]
  00006	89 41 18	 mov	 DWORD PTR [ecx+24], eax

; 858  : }

  00009	8b c1		 mov	 eax, ecx
  0000b	c7 01 00 00 00
	00		 mov	 DWORD PTR [ecx], OFFSET ??_7?$CList@V?$CStringT@DV?$StrTraitMFC_DLL@DV?$ChTraitsCRT@D@ATL@@@@@ATL@@V12@@@6B@
  00011	c7 41 0c 00 00
	00 00		 mov	 DWORD PTR [ecx+12], 0
  00018	c7 41 10 00 00
	00 00		 mov	 DWORD PTR [ecx+16], 0
  0001f	c7 41 08 00 00
	00 00		 mov	 DWORD PTR [ecx+8], 0
  00026	c7 41 04 00 00
	00 00		 mov	 DWORD PTR [ecx+4], 0
  0002d	c7 41 14 00 00
	00 00		 mov	 DWORD PTR [ecx+20], 0
  00034	5d		 pop	 ebp
  00035	c2 04 00	 ret	 4
??0?$CList@V?$CStringT@DV?$StrTraitMFC_DLL@DV?$ChTraitsCRT@D@ATL@@@@@ATL@@V12@@@QAE@H@Z ENDP ; CList<ATL::CStringT<char,StrTraitMFC_DLL<char,ATL::ChTraitsCRT<char> > >,ATL::CStringT<char,StrTraitMFC_DLL<char,ATL::ChTraitsCRT<char> > > >::CList<ATL::CStringT<char,StrTraitMFC_DLL<char,ATL::ChTraitsCRT<char> > >,ATL::CStringT<char,StrTraitMFC_DLL<char,ATL::ChTraitsCRT<char> > > >
_TEXT	ENDS
; Function compile flags: /Ogtp
; File C:\Program Files (x86)\Microsoft Visual Studio\2019\Community\VC\Tools\MSVC\14.29.30133\atlmfc\include\afxtempl.h
;	COMDAT ?NewNode@?$CList@NN@@IAEPAUCNode@1@PAU21@0@Z
_TEXT	SEGMENT
_pPrev$ = 8						; size = 4
_pNext$ = 12						; size = 4
?NewNode@?$CList@NN@@IAEPAUCNode@1@PAU21@0@Z PROC	; CList<double,double>::NewNode, COMDAT
; _this$ = ecx

; 901  : {

  00000	55		 push	 ebp
  00001	8b ec		 mov	 ebp, esp
  00003	56		 push	 esi
  00004	8b f1		 mov	 esi, ecx

; 902  : 	if (m_pNodeFree == NULL)

  00006	83 7e 10 00	 cmp	 DWORD PTR [esi+16], 0
  0000a	75 34		 jne	 SHORT $LN7@NewNode

; 903  : 	{
; 904  : 		// add another block
; 905  : 		CPlex* pNewBlock = CPlex::Create(m_pBlocks, m_nBlockSize,

  0000c	6a 10		 push	 16			; 00000010H
  0000e	ff 76 18	 push	 DWORD PTR [esi+24]
  00011	8d 46 14	 lea	 eax, DWORD PTR [esi+20]
  00014	50		 push	 eax
  00015	e8 00 00 00 00	 call	 ?Create@CPlex@@SGPAU1@AAPAU1@II@Z ; CPlex::Create

; 906  : 				 sizeof(CNode));
; 907  : 
; 908  : 		// chain them into free list
; 909  : 		CNode* pNode = (CNode*) pNewBlock->data();
; 910  : 		// free in reverse order to make it easier to debug
; 911  : 		pNode += m_nBlockSize - 1;

  0001a	8b 56 18	 mov	 edx, DWORD PTR [esi+24]
  0001d	83 c0 08	 add	 eax, 8
  00020	8b ca		 mov	 ecx, edx
  00022	c1 e1 04	 shl	 ecx, 4
  00025	83 c1 f0	 add	 ecx, -16		; fffffff0H
  00028	03 c1		 add	 eax, ecx

; 912  : 		for (INT_PTR i = m_nBlockSize-1; i >= 0; i--, pNode--)

  0002a	83 c2 ff	 add	 edx, -1
  0002d	78 11		 js	 SHORT $LN7@NewNode
  0002f	90		 npad	 1
$LL4@NewNode:

; 913  : 		{
; 914  : 			pNode->pNext = m_pNodeFree;

  00030	8b 4e 10	 mov	 ecx, DWORD PTR [esi+16]
  00033	89 08		 mov	 DWORD PTR [eax], ecx

; 915  : 			m_pNodeFree = pNode;

  00035	89 46 10	 mov	 DWORD PTR [esi+16], eax
  00038	83 e8 10	 sub	 eax, 16			; 00000010H
  0003b	83 ea 01	 sub	 edx, 1
  0003e	79 f0		 jns	 SHORT $LL4@NewNode
$LN7@NewNode:

; 916  : 		}
; 917  : 	}
; 918  : 	ENSURE(m_pNodeFree != NULL);  // we must have something

  00040	8b 46 10	 mov	 eax, DWORD PTR [esi+16]
  00043	85 c0		 test	 eax, eax
  00045	74 18		 je	 SHORT $LN17@NewNode

; 919  : 
; 920  : 	CList::CNode* pNode = m_pNodeFree;
; 921  : 	m_pNodeFree = m_pNodeFree->pNext;

  00047	8b 08		 mov	 ecx, DWORD PTR [eax]
  00049	89 4e 10	 mov	 DWORD PTR [esi+16], ecx

; 922  : 	pNode->pPrev = pPrev;

  0004c	8b 4d 08	 mov	 ecx, DWORD PTR _pPrev$[ebp]
  0004f	89 48 04	 mov	 DWORD PTR [eax+4], ecx

; 923  : 	pNode->pNext = pNext;

  00052	8b 4d 0c	 mov	 ecx, DWORD PTR _pNext$[ebp]
  00055	89 08		 mov	 DWORD PTR [eax], ecx

; 924  : 	m_nCount++;

  00057	ff 46 0c	 inc	 DWORD PTR [esi+12]

; 925  : 	ASSERT(m_nCount > 0);  // make sure we don't overflow
; 926  : 
; 927  : #pragma push_macro("new")
; 928  : #undef new
; 929  : 	::new( (void*)( &pNode->data ) ) TYPE;
; 930  : #pragma pop_macro("new")
; 931  : 	return pNode;

  0005a	5e		 pop	 esi

; 932  : }

  0005b	5d		 pop	 ebp
  0005c	c2 08 00	 ret	 8
$LN17@NewNode:

; 916  : 		}
; 917  : 	}
; 918  : 	ENSURE(m_pNodeFree != NULL);  // we must have something

  0005f	e8 00 00 00 00	 call	 ?AfxThrowInvalidArgException@@YGXXZ ; AfxThrowInvalidArgException
$LN15@NewNode:
  00064	cc		 int	 3
?NewNode@?$CList@NN@@IAEPAUCNode@1@PAU21@0@Z ENDP	; CList<double,double>::NewNode
_TEXT	ENDS
; Function compile flags: /Ogtp
; File C:\Program Files (x86)\Microsoft Visual Studio\2019\Community\VC\Tools\MSVC\14.29.30133\atlmfc\include\afxtempl.h
;	COMDAT ?AddTail@?$CList@NN@@QAEPAU__POSITION@@N@Z
_TEXT	SEGMENT
_newElement$ = 8					; size = 8
?AddTail@?$CList@NN@@QAEPAU__POSITION@@N@Z PROC		; CList<double,double>::AddTail, COMDAT
; _this$ = ecx

; 965  : {

  00000	55		 push	 ebp
  00001	8b ec		 mov	 ebp, esp
  00003	56		 push	 esi
  00004	8b f1		 mov	 esi, ecx
  00006	57		 push	 edi

; 902  : 	if (m_pNodeFree == NULL)

  00007	83 7e 10 00	 cmp	 DWORD PTR [esi+16], 0

; 966  : 	ASSERT_VALID(this);
; 967  : 
; 968  : 	CNode* pNewNode = NewNode(m_pNodeTail, NULL);

  0000b	8b 7e 08	 mov	 edi, DWORD PTR [esi+8]

; 902  : 	if (m_pNodeFree == NULL)

  0000e	75 33		 jne	 SHORT $LN11@AddTail

; 903  : 	{
; 904  : 		// add another block
; 905  : 		CPlex* pNewBlock = CPlex::Create(m_pBlocks, m_nBlockSize,

  00010	6a 10		 push	 16			; 00000010H
  00012	ff 76 18	 push	 DWORD PTR [esi+24]
  00015	8d 46 14	 lea	 eax, DWORD PTR [esi+20]
  00018	50		 push	 eax
  00019	e8 00 00 00 00	 call	 ?Create@CPlex@@SGPAU1@AAPAU1@II@Z ; CPlex::Create

; 906  : 				 sizeof(CNode));
; 907  : 
; 908  : 		// chain them into free list
; 909  : 		CNode* pNode = (CNode*) pNewBlock->data();
; 910  : 		// free in reverse order to make it easier to debug
; 911  : 		pNode += m_nBlockSize - 1;

  0001e	8b 56 18	 mov	 edx, DWORD PTR [esi+24]
  00021	83 c0 08	 add	 eax, 8
  00024	8b ca		 mov	 ecx, edx
  00026	c1 e1 04	 shl	 ecx, 4
  00029	83 c1 f0	 add	 ecx, -16		; fffffff0H
  0002c	03 c8		 add	 ecx, eax

; 912  : 		for (INT_PTR i = m_nBlockSize-1; i >= 0; i--, pNode--)

  0002e	83 c2 ff	 add	 edx, -1
  00031	78 10		 js	 SHORT $LN11@AddTail
$LL8@AddTail:

; 913  : 		{
; 914  : 			pNode->pNext = m_pNodeFree;

  00033	8b 46 10	 mov	 eax, DWORD PTR [esi+16]
  00036	89 01		 mov	 DWORD PTR [ecx], eax

; 915  : 			m_pNodeFree = pNode;

  00038	89 4e 10	 mov	 DWORD PTR [esi+16], ecx
  0003b	83 e9 10	 sub	 ecx, 16			; 00000010H
  0003e	83 ea 01	 sub	 edx, 1
  00041	79 f0		 jns	 SHORT $LL8@AddTail
$LN11@AddTail:

; 916  : 		}
; 917  : 	}
; 918  : 	ENSURE(m_pNodeFree != NULL);  // we must have something

  00043	8b 4e 10	 mov	 ecx, DWORD PTR [esi+16]
  00046	85 c9		 test	 ecx, ecx
  00048	74 3d		 je	 SHORT $LN22@AddTail

; 919  : 
; 920  : 	CList::CNode* pNode = m_pNodeFree;
; 921  : 	m_pNodeFree = m_pNodeFree->pNext;

  0004a	8b 01		 mov	 eax, DWORD PTR [ecx]

; 969  : 	pNewNode->data = newElement;

  0004c	f2 0f 10 45 08	 movsd	 xmm0, QWORD PTR _newElement$[ebp]

; 921  : 	m_pNodeFree = m_pNodeFree->pNext;

  00051	89 46 10	 mov	 DWORD PTR [esi+16], eax

; 922  : 	pNode->pPrev = pPrev;

  00054	89 79 04	 mov	 DWORD PTR [ecx+4], edi

; 923  : 	pNode->pNext = pNext;

  00057	c7 01 00 00 00
	00		 mov	 DWORD PTR [ecx], 0

; 924  : 	m_nCount++;

  0005d	ff 46 0c	 inc	 DWORD PTR [esi+12]

; 969  : 	pNewNode->data = newElement;

  00060	f2 0f 11 41 08	 movsd	 QWORD PTR [ecx+8], xmm0

; 970  : 	if (m_pNodeTail != NULL)

  00065	8b 46 08	 mov	 eax, DWORD PTR [esi+8]
  00068	85 c0		 test	 eax, eax
  0006a	74 0d		 je	 SHORT $LN2@AddTail

; 971  : 		m_pNodeTail->pNext = pNewNode;

  0006c	89 08		 mov	 DWORD PTR [eax], ecx

; 972  : 	else
; 973  : 		m_pNodeHead = pNewNode;
; 974  : 	m_pNodeTail = pNewNode;
; 975  : 	return (POSITION) pNewNode;

  0006e	8b c1		 mov	 eax, ecx
  00070	5f		 pop	 edi
  00071	89 4e 08	 mov	 DWORD PTR [esi+8], ecx
  00074	5e		 pop	 esi

; 976  : }

  00075	5d		 pop	 ebp
  00076	c2 08 00	 ret	 8
$LN2@AddTail:

; 972  : 	else
; 973  : 		m_pNodeHead = pNewNode;
; 974  : 	m_pNodeTail = pNewNode;
; 975  : 	return (POSITION) pNewNode;

  00079	5f		 pop	 edi
  0007a	89 4e 04	 mov	 DWORD PTR [esi+4], ecx
  0007d	8b c1		 mov	 eax, ecx
  0007f	89 4e 08	 mov	 DWORD PTR [esi+8], ecx
  00082	5e		 pop	 esi

; 976  : }

  00083	5d		 pop	 ebp
  00084	c2 08 00	 ret	 8
$LN22@AddTail:

; 918  : 	ENSURE(m_pNodeFree != NULL);  // we must have something

  00087	e8 00 00 00 00	 call	 ?AfxThrowInvalidArgException@@YGXXZ ; AfxThrowInvalidArgException
$LN20@AddTail:
  0008c	cc		 int	 3
?AddTail@?$CList@NN@@QAEPAU__POSITION@@N@Z ENDP		; CList<double,double>::AddTail
_TEXT	ENDS
; Function compile flags: /Ogtp
;	COMDAT ??__FSIGNAL_PACKET@@YAXXZ
text$yd	SEGMENT
??__FSIGNAL_PACKET@@YAXXZ PROC				; `dynamic atexit destructor for 'SIGNAL_PACKET'', COMDAT
  00000	b9 00 00 00 00	 mov	 ecx, OFFSET ?SIGNAL_PACKET@@3V?$CStringT@DV?$StrTraitMFC_DLL@DV?$ChTraitsCRT@D@ATL@@@@@ATL@@B
  00005	ff 25 00 00 00
	00		 jmp	 DWORD PTR __imp_??1?$CStringT@DV?$StrTraitMFC_DLL@DV?$ChTraitsCRT@D@ATL@@@@@ATL@@QAE@XZ
??__FSIGNAL_PACKET@@YAXXZ ENDP				; `dynamic atexit destructor for 'SIGNAL_PACKET''
text$yd	ENDS
; Function compile flags: /Ogtp
; File D:\git\src\IBK\IBK_DRFN\ProjSrc\SrcChartEx\ChartOCX\ChartFormulate\ChartFormlateBaseData.h
;	COMDAT ??__ESIGNAL_PACKET@@YAXXZ
text$di	SEGMENT
??__ESIGNAL_PACKET@@YAXXZ PROC				; `dynamic initializer for 'SIGNAL_PACKET'', COMDAT

; 13   : static const CString SIGNAL_PACKET = "SignalPacket";

  00000	68 00 00 00 00	 push	 OFFSET ??_C@_0N@FMCKNONO@SignalPacket@
  00005	b9 00 00 00 00	 mov	 ecx, OFFSET ?SIGNAL_PACKET@@3V?$CStringT@DV?$StrTraitMFC_DLL@DV?$ChTraitsCRT@D@ATL@@@@@ATL@@B
  0000a	ff 15 00 00 00
	00		 call	 DWORD PTR __imp_??0?$CStringT@DV?$StrTraitMFC_DLL@DV?$ChTraitsCRT@D@ATL@@@@@ATL@@QAE@PBD@Z
  00010	68 00 00 00 00	 push	 OFFSET ??__FSIGNAL_PACKET@@YAXXZ ; `dynamic atexit destructor for 'SIGNAL_PACKET''
  00015	e8 00 00 00 00	 call	 _atexit
  0001a	59		 pop	 ecx
  0001b	c3		 ret	 0
??__ESIGNAL_PACKET@@YAXXZ ENDP				; `dynamic initializer for 'SIGNAL_PACKET''
text$di	ENDS
; Function compile flags: /Ogtp
;	COMDAT ??_ECIndicator@@UAEPAXI@Z
_TEXT	SEGMENT
__$EHRec$ = -12						; size = 12
___flags$ = 8						; size = 4
??_ECIndicator@@UAEPAXI@Z PROC				; CIndicator::`vector deleting destructor', COMDAT
; _this$ = ecx
  00000	55		 push	 ebp
  00001	8b ec		 mov	 ebp, esp
  00003	6a ff		 push	 -1
  00005	68 00 00 00 00	 push	 __ehhandler$??_ECIndicator@@UAEPAXI@Z
  0000a	64 a1 00 00 00
	00		 mov	 eax, DWORD PTR fs:0
  00010	50		 push	 eax
  00011	53		 push	 ebx
  00012	56		 push	 esi
  00013	57		 push	 edi
  00014	a1 00 00 00 00	 mov	 eax, DWORD PTR ___security_cookie
  00019	33 c5		 xor	 eax, ebp
  0001b	50		 push	 eax
  0001c	8d 45 f4	 lea	 eax, DWORD PTR __$EHRec$[ebp]
  0001f	64 a3 00 00 00
	00		 mov	 DWORD PTR fs:0, eax
  00025	8b f1		 mov	 esi, ecx
  00027	8b 45 08	 mov	 eax, DWORD PTR ___flags$[ebp]
  0002a	8b d8		 mov	 ebx, eax
  0002c	83 e3 01	 and	 ebx, 1
  0002f	a8 02		 test	 al, 2
  00031	74 40		 je	 SHORT $LN2@vector
  00033	68 00 00 00 00	 push	 OFFSET ??1CIndicator@@UAE@XZ ; CIndicator::~CIndicator
  00038	ff 76 fc	 push	 DWORD PTR [esi-4]
  0003b	8d 7e fc	 lea	 edi, DWORD PTR [esi-4]
  0003e	6a 08		 push	 8
  00040	56		 push	 esi
  00041	e8 00 00 00 00	 call	 ??_M@YGXPAXIIP6EX0@Z@Z
  00046	85 db		 test	 ebx, ebx
  00048	74 13		 je	 SHORT $LN3@vector
  0004a	8b 0f		 mov	 ecx, DWORD PTR [edi]
  0004c	8d 0c cd 04 00
	00 00		 lea	 ecx, DWORD PTR [ecx*8+4]
  00053	51		 push	 ecx
  00054	57		 push	 edi
  00055	e8 00 00 00 00	 call	 ??_V@YAXPAXI@Z		; operator delete[]
  0005a	83 c4 08	 add	 esp, 8
$LN3@vector:
  0005d	8b c7		 mov	 eax, edi
  0005f	8b 4d f4	 mov	 ecx, DWORD PTR __$EHRec$[ebp]
  00062	64 89 0d 00 00
	00 00		 mov	 DWORD PTR fs:0, ecx
  00069	59		 pop	 ecx
  0006a	5f		 pop	 edi
  0006b	5e		 pop	 esi
  0006c	5b		 pop	 ebx
  0006d	8b e5		 mov	 esp, ebp
  0006f	5d		 pop	 ebp
  00070	c2 04 00	 ret	 4
$LN2@vector:
  00073	c7 06 00 00 00
	00		 mov	 DWORD PTR [esi], OFFSET ??_7CIndicator@@6B@
  00079	85 db		 test	 ebx, ebx
  0007b	74 0b		 je	 SHORT $LN4@vector
  0007d	6a 08		 push	 8
  0007f	56		 push	 esi
  00080	e8 00 00 00 00	 call	 ??3@YAXPAXI@Z		; operator delete
  00085	83 c4 08	 add	 esp, 8
$LN4@vector:
  00088	8b c6		 mov	 eax, esi
  0008a	8b 4d f4	 mov	 ecx, DWORD PTR __$EHRec$[ebp]
  0008d	64 89 0d 00 00
	00 00		 mov	 DWORD PTR fs:0, ecx
  00094	59		 pop	 ecx
  00095	5f		 pop	 edi
  00096	5e		 pop	 esi
  00097	5b		 pop	 ebx
  00098	8b e5		 mov	 esp, ebp
  0009a	5d		 pop	 ebp
  0009b	c2 04 00	 ret	 4
  0009e	cc		 int	 3
  0009f	cc		 int	 3
  000a0	cc		 int	 3
  000a1	cc		 int	 3
  000a2	cc		 int	 3
_TEXT	ENDS
;	COMDAT text$x
text$x	SEGMENT
__ehhandler$??_ECIndicator@@UAEPAXI@Z:
  00000	90		 npad	 1
  00001	90		 npad	 1
  00002	8b 54 24 08	 mov	 edx, DWORD PTR [esp+8]
  00006	8d 42 0c	 lea	 eax, DWORD PTR [edx+12]
  00009	8b 4a f0	 mov	 ecx, DWORD PTR [edx-16]
  0000c	33 c8		 xor	 ecx, eax
  0000e	e8 00 00 00 00	 call	 @__security_check_cookie@4
  00013	b8 00 00 00 00	 mov	 eax, OFFSET __ehfuncinfo$??_ECIndicator@@UAEPAXI@Z
  00018	e9 00 00 00 00	 jmp	 ___CxxFrameHandler3
text$x	ENDS
??_ECIndicator@@UAEPAXI@Z ENDP				; CIndicator::`vector deleting destructor'
; Function compile flags: /Ogtp
;	COMDAT ??_GCIndicator@@UAEPAXI@Z
_TEXT	SEGMENT
___flags$ = 8						; size = 4
??_GCIndicator@@UAEPAXI@Z PROC				; CIndicator::`scalar deleting destructor', COMDAT
; _this$ = ecx
  00000	55		 push	 ebp
  00001	8b ec		 mov	 ebp, esp
  00003	f6 45 08 01	 test	 BYTE PTR ___flags$[ebp], 1
  00007	56		 push	 esi
  00008	8b f1		 mov	 esi, ecx
  0000a	c7 06 00 00 00
	00		 mov	 DWORD PTR [esi], OFFSET ??_7CIndicator@@6B@
  00010	74 0b		 je	 SHORT $LN4@scalar
  00012	6a 08		 push	 8
  00014	56		 push	 esi
  00015	e8 00 00 00 00	 call	 ??3@YAXPAXI@Z		; operator delete
  0001a	83 c4 08	 add	 esp, 8
$LN4@scalar:
  0001d	8b c6		 mov	 eax, esi
  0001f	5e		 pop	 esi
  00020	5d		 pop	 ebp
  00021	c2 04 00	 ret	 4
??_GCIndicator@@UAEPAXI@Z ENDP				; CIndicator::`scalar deleting destructor'
_TEXT	ENDS
; Function compile flags: /Ogtp
;	COMDAT ??4CIndicator@@QAEAAV0@ABV0@@Z
_TEXT	SEGMENT
___that$ = 8						; size = 4
??4CIndicator@@QAEAAV0@ABV0@@Z PROC			; CIndicator::operator=, COMDAT
; _this$ = ecx
  00000	55		 push	 ebp
  00001	8b ec		 mov	 ebp, esp
  00003	8b 45 08	 mov	 eax, DWORD PTR ___that$[ebp]
  00006	8b 40 04	 mov	 eax, DWORD PTR [eax+4]
  00009	89 41 04	 mov	 DWORD PTR [ecx+4], eax
  0000c	8b c1		 mov	 eax, ecx
  0000e	5d		 pop	 ebp
  0000f	c2 04 00	 ret	 4
??4CIndicator@@QAEAAV0@ABV0@@Z ENDP			; CIndicator::operator=
_TEXT	ENDS
; Function compile flags: /Ogtp
;	COMDAT ??0CIndicator@@QAE@ABV0@@Z
_TEXT	SEGMENT
___that$ = 8						; size = 4
??0CIndicator@@QAE@ABV0@@Z PROC				; CIndicator::CIndicator, COMDAT
; _this$ = ecx
  00000	55		 push	 ebp
  00001	8b ec		 mov	 ebp, esp
  00003	8b 45 08	 mov	 eax, DWORD PTR ___that$[ebp]
  00006	c7 01 00 00 00
	00		 mov	 DWORD PTR [ecx], OFFSET ??_7CIndicator@@6B@
  0000c	8b 40 04	 mov	 eax, DWORD PTR [eax+4]
  0000f	89 41 04	 mov	 DWORD PTR [ecx+4], eax
  00012	8b c1		 mov	 eax, ecx
  00014	5d		 pop	 ebp
  00015	c2 04 00	 ret	 4
??0CIndicator@@QAE@ABV0@@Z ENDP				; CIndicator::CIndicator
_TEXT	ENDS
; Function compile flags: /Ogtp
; File D:\git\src\IBK\IBK_DRFN\ProjSrc\SrcChartEx\ChartOCX\ChartFormulate\Indicator.cpp
; File C:\Program Files (x86)\Microsoft Visual Studio\2019\Community\VC\Tools\MSVC\14.29.30133\atlmfc\include\afxtempl.h
; File D:\git\src\IBK\IBK_DRFN\ProjSrc\SrcChartEx\ChartOCX\ChartFormulate\Indicator.cpp
;	COMDAT ?GetSimpleMA@CIndicator@@IAEXABVCPoint@@ABNPAV?$CList@NN@@PAVCPacket@@H@Z
_TEXT	SEGMENT
tv337 = -24						; size = 8
tv330 = -24						; size = 8
_dPrevData$1$ = -16					; size = 8
_nCnt$1$ = -8						; size = 4
_this$1$ = -4						; size = 4
_point$ = 8						; size = 4
_dCond$ = 12						; size = 4
_pSourceList$ = 16					; size = 4
tv299 = 20						; size = 4
_pMAPacket$ = 20					; size = 4
_p_bContinueZero$ = 24					; size = 4
?GetSimpleMA@CIndicator@@IAEXABVCPoint@@ABNPAV?$CList@NN@@PAVCPacket@@H@Z PROC ; CIndicator::GetSimpleMA, COMDAT
; _this$ = ecx

; 1046 : {

  00000	55		 push	 ebp
  00001	8b ec		 mov	 ebp, esp
  00003	83 ec 18	 sub	 esp, 24			; 00000018H
  00006	57		 push	 edi

; 1047 : 	if(pMAPacket == NULL || pSourceList == NULL || dCond <= 0)

  00007	8b 7d 14	 mov	 edi, DWORD PTR _pMAPacket$[ebp]
  0000a	89 4d fc	 mov	 DWORD PTR _this$1$[ebp], ecx
  0000d	85 ff		 test	 edi, edi
  0000f	0f 84 7f 01 00
	00		 je	 $LN41@GetSimpleM
  00015	8b 45 10	 mov	 eax, DWORD PTR _pSourceList$[ebp]
  00018	85 c0		 test	 eax, eax
  0001a	0f 84 74 01 00
	00		 je	 $LN41@GetSimpleM
  00020	56		 push	 esi
  00021	8b 75 0c	 mov	 esi, DWORD PTR _dCond$[ebp]
  00024	0f 57 c0	 xorps	 xmm0, xmm0
  00027	66 0f 2f 06	 comisd	 xmm0, QWORD PTR [esi]
  0002b	0f 83 62 01 00
	00		 jae	 $LN42@GetSimpleM

; 1053 : 	for(int count = point.x ; count < nCnt ; count++)

  00031	8b 55 08	 mov	 edx, DWORD PTR _point$[ebp]
  00034	0f 57 d2	 xorps	 xmm2, xmm2
  00037	8b 40 0c	 mov	 eax, DWORD PTR [eax+12]
  0003a	53		 push	 ebx
  0003b	f2 0f 11 55 f0	 movsd	 QWORD PTR _dPrevData$1$[ebp], xmm2
  00040	8b 1a		 mov	 ebx, DWORD PTR [edx]
  00042	89 45 f8	 mov	 DWORD PTR _nCnt$1$[ebp], eax
  00045	3b d8		 cmp	 ebx, eax
  00047	0f 8d 45 01 00
	00		 jge	 $LN43@GetSimpleM

; 1048 : 		return;
; 1049 : 
; 1050 : 	double dData = 0, dPrevData = 0;
; 1051 : 	double totval=0 ;
; 1052 : 	const int nCnt = pSourceList->GetCount();

  0004d	8d 4b 01	 lea	 ecx, DWORD PTR [ebx+1]
  00050	89 4d 14	 mov	 DWORD PTR tv299[ebp], ecx
$LL4@GetSimpleM:

; 1054 : 	{
; 1055 : 		if((count+1) >= dCond)

  00053	f2 0f 10 16	 movsd	 xmm2, QWORD PTR [esi]
  00057	66 0f 6e c9	 movd	 xmm1, ecx
  0005b	f3 0f e6 c9	 cvtdq2pd xmm1, xmm1
  0005f	66 0f 2f ca	 comisd	 xmm1, xmm2
  00063	0f 82 e4 00 00
	00		 jb	 $LN10@GetSimpleM

; 1056 : 		{
; 1057 : 			int start = (int)floor(count + 1 - dCond);       // day  ..

  00069	f2 0f 5c ca	 subsd	 xmm1, xmm2
  0006d	83 ec 08	 sub	 esp, 8
  00070	f2 0f 11 4d e8	 movsd	 QWORD PTR tv337[ebp], xmm1
  00075	dd 45 e8	 fld	 QWORD PTR tv337[ebp]
  00078	dd 1c 24	 fstp	 QWORD PTR [esp]
  0007b	e8 00 00 00 00	 call	 _floor

; 1058 : 
; 1059 : 			POSITION pos = FindPosition(start, *pSourceList);

  00080	8b 4d fc	 mov	 ecx, DWORD PTR _this$1$[ebp]
  00083	83 c4 08	 add	 esp, 8
  00086	dd 5d e8	 fstp	 QWORD PTR tv330[ebp]
  00089	f2 0f 2c 75 e8	 cvttsd2si esi, QWORD PTR tv330[ebp]
  0008e	ff 75 10	 push	 DWORD PTR _pSourceList$[ebp]
  00091	56		 push	 esi
  00092	e8 00 00 00 00	 call	 ?FindPosition@CIndicator@@IBEPAU__POSITION@@HABV?$CList@NN@@@Z ; CIndicator::FindPosition
  00097	66 0f 6e c6	 movd	 xmm0, esi
  0009b	8b c8		 mov	 ecx, eax

; 1060 : 			for(int i = start ; i < (dCond+start) ; i++) 

  0009d	8b 45 0c	 mov	 eax, DWORD PTR _dCond$[ebp]
  000a0	0f 57 d2	 xorps	 xmm2, xmm2
  000a3	f3 0f e6 c0	 cvtdq2pd xmm0, xmm0
  000a7	f2 0f 10 18	 movsd	 xmm3, QWORD PTR [eax]
  000ab	0f 57 c9	 xorps	 xmm1, xmm1
  000ae	0f 28 e0	 movaps	 xmm4, xmm0
  000b1	f2 0f 58 e3	 addsd	 xmm4, xmm3
  000b5	66 0f 2f e0	 comisd	 xmm4, xmm0
  000b9	76 4b		 jbe	 SHORT $LN6@GetSimpleM
  000bb	0f 1f 44 00 00	 npad	 5
$LL7@GetSimpleM:

; 1061 : 			{
; 1062 : 				if(pos == NULL) return ;

  000c0	85 c9		 test	 ecx, ecx
  000c2	0f 84 ca 00 00
	00		 je	 $LN43@GetSimpleM
; File C:\Program Files (x86)\Microsoft Visual Studio\2019\Community\VC\Tools\MSVC\14.29.30133\atlmfc\include\afxtempl.h

; 817  : 	{ CNode* pNode = (CNode*) rPosition;

  000c8	8b c1		 mov	 eax, ecx

; 818  : 		ASSERT(AfxIsValidAddress(pNode, sizeof(CNode)));
; 819  : 		rPosition = (POSITION) pNode->pNext;

  000ca	8b 09		 mov	 ecx, DWORD PTR [ecx]
; File D:\git\src\IBK\IBK_DRFN\ProjSrc\SrcChartEx\ChartOCX\ChartFormulate\Indicator.cpp

; 343  : 	return pSourceList->GetNext(pos);

  000cc	f2 0f 10 40 08	 movsd	 xmm0, QWORD PTR [eax+8]

; 1063 : 				dData = GetNext(pSourceList, pos);	// totval= 		
; 1064 : 
; 1065 : 				// (2007/3/12 - Seung-Won, Bae) Check Normal Candle Low <= Open/Close <= High
; 1066 : 				//		if Error, Set All with Close for Base or Market Close Price.
; 1067 : 				if( 0 == dData && p_bContinueZero)	dData		= dPrevData;

  000d1	66 0f 2e d0	 ucomisd xmm2, xmm0
  000d5	9f		 lahf
  000d6	f6 c4 44	 test	 ah, 68			; 00000044H
  000d9	7a 0d		 jp	 SHORT $LN13@GetSimpleM
  000db	83 7d 18 00	 cmp	 DWORD PTR _p_bContinueZero$[ebp], 0
  000df	74 07		 je	 SHORT $LN13@GetSimpleM
  000e1	f2 0f 10 45 f0	 movsd	 xmm0, QWORD PTR _dPrevData$1$[ebp]
  000e6	eb 0b		 jmp	 SHORT $LN14@GetSimpleM
$LN13@GetSimpleM:

; 1068 : 				else								dPrevData	= dData;

  000e8	0f 28 d0	 movaps	 xmm2, xmm0
  000eb	f2 0f 11 55 f0	 movsd	 QWORD PTR _dPrevData$1$[ebp], xmm2
  000f0	0f 57 d2	 xorps	 xmm2, xmm2
$LN14@GetSimpleM:

; 1069 : 				
; 1070 : 				totval = totval + dData;

  000f3	46		 inc	 esi
  000f4	f2 0f 58 c8	 addsd	 xmm1, xmm0
  000f8	66 0f 6e c6	 movd	 xmm0, esi
  000fc	f3 0f e6 c0	 cvtdq2pd xmm0, xmm0
  00100	66 0f 2f e0	 comisd	 xmm4, xmm0
  00104	77 ba		 ja	 SHORT $LL7@GetSimpleM
$LN6@GetSimpleM:

; 98   : 	if(point.x == 0)

  00106	8b 45 08	 mov	 eax, DWORD PTR _point$[ebp]
  00109	8b cf		 mov	 ecx, edi

; 1071 : 			}
; 1072 : 			
; 1073 : 			SetData(point, count, totval/dCond, pMAPacket);

  0010b	f2 0f 5e cb	 divsd	 xmm1, xmm3

; 98   : 	if(point.x == 0)

  0010f	83 38 00	 cmp	 DWORD PTR [eax], 0
  00112	75 1c		 jne	 SHORT $LN24@GetSimpleM

; 99   : 		pPacket->AppendData(dData);

  00114	6a ff		 push	 -1
  00116	83 ec 08	 sub	 esp, 8
  00119	f2 0f 11 0c 24	 movsd	 QWORD PTR [esp], xmm1
  0011e	ff 15 00 00 00
	00		 call	 DWORD PTR __imp_?AppendData@CPacket@@QAEXNH@Z

; 1074 : 			int cout = pMAPacket->GetCount();

  00124	8b 07		 mov	 eax, DWORD PTR [edi]
  00126	8b cf		 mov	 ecx, edi
  00128	ff 50 14	 call	 DWORD PTR [eax+20]

; 1075 : 			totval=0;
; 1076 : 		}

  0012b	8b 75 0c	 mov	 esi, DWORD PTR _dCond$[ebp]
  0012e	eb 4b		 jmp	 SHORT $LN2@GetSimpleM
$LN24@GetSimpleM:

; 101  : 		pPacket->UpdateData(dData, nUpdateIndex, false);

  00130	6a 00		 push	 0
  00132	53		 push	 ebx
  00133	83 ec 08	 sub	 esp, 8
  00136	f2 0f 11 0c 24	 movsd	 QWORD PTR [esp], xmm1
  0013b	ff 15 00 00 00
	00		 call	 DWORD PTR __imp_?UpdateData@CPacket@@QAEXNH_N@Z

; 1074 : 			int cout = pMAPacket->GetCount();

  00141	8b 07		 mov	 eax, DWORD PTR [edi]
  00143	8b cf		 mov	 ecx, edi
  00145	ff 50 14	 call	 DWORD PTR [eax+20]

; 1075 : 			totval=0;
; 1076 : 		}

  00148	8b 75 0c	 mov	 esi, DWORD PTR _dCond$[ebp]
  0014b	eb 2e		 jmp	 SHORT $LN2@GetSimpleM
$LN10@GetSimpleM:

; 98   : 	if(point.x == 0)

  0014d	83 3a 00	 cmp	 DWORD PTR [edx], 0
  00150	8b cf		 mov	 ecx, edi

; 1077 : 		else		//n    ..
; 1078 : 			SetData(point, count, totval/dCond, pMAPacket);

  00152	f2 0f 5e c2	 divsd	 xmm0, xmm2

; 98   : 	if(point.x == 0)

  00156	75 12		 jne	 SHORT $LN29@GetSimpleM

; 99   : 		pPacket->AppendData(dData);

  00158	6a ff		 push	 -1
  0015a	83 ec 08	 sub	 esp, 8
  0015d	f2 0f 11 04 24	 movsd	 QWORD PTR [esp], xmm0
  00162	ff 15 00 00 00
	00		 call	 DWORD PTR __imp_?AppendData@CPacket@@QAEXNH@Z
  00168	eb 11		 jmp	 SHORT $LN2@GetSimpleM
$LN29@GetSimpleM:

; 100  : 	else
; 101  : 		pPacket->UpdateData(dData, nUpdateIndex, false);

  0016a	6a 00		 push	 0
  0016c	53		 push	 ebx
  0016d	83 ec 08	 sub	 esp, 8
  00170	f2 0f 11 04 24	 movsd	 QWORD PTR [esp], xmm0
  00175	ff 15 00 00 00
	00		 call	 DWORD PTR __imp_?UpdateData@CPacket@@QAEXNH_N@Z
$LN2@GetSimpleM:

; 1053 : 	for(int count = point.x ; count < nCnt ; count++)

  0017b	8b 4d 14	 mov	 ecx, DWORD PTR tv299[ebp]
  0017e	43		 inc	 ebx
  0017f	8b 55 08	 mov	 edx, DWORD PTR _point$[ebp]
  00182	41		 inc	 ecx
  00183	0f 57 c0	 xorps	 xmm0, xmm0
  00186	89 4d 14	 mov	 DWORD PTR tv299[ebp], ecx
  00189	3b 5d f8	 cmp	 ebx, DWORD PTR _nCnt$1$[ebp]
  0018c	0f 8c c1 fe ff
	ff		 jl	 $LL4@GetSimpleM
$LN43@GetSimpleM:
  00192	5b		 pop	 ebx
$LN42@GetSimpleM:
  00193	5e		 pop	 esi
$LN41@GetSimpleM:
  00194	5f		 pop	 edi

; 1079 : 	}
; 1080 : }

  00195	8b e5		 mov	 esp, ebp
  00197	5d		 pop	 ebp
  00198	c2 14 00	 ret	 20			; 00000014H
?GetSimpleMA@CIndicator@@IAEXABVCPoint@@ABNPAV?$CList@NN@@PAVCPacket@@H@Z ENDP ; CIndicator::GetSimpleMA
_TEXT	ENDS
; Function compile flags: /Ogtp
; File D:\git\src\IBK\IBK_DRFN\ProjSrc\SrcChartEx\ChartOCX\ChartFormulate\Indicator.cpp
;	COMDAT ?GetPacketType@CIndicator@@IBE?AV?$CStringT@DV?$StrTraitMFC_DLL@DV?$ChTraitsCRT@D@ATL@@@@@ATL@@PAVCPacketList@@@Z
_TEXT	SEGMENT
___$ReturnUdt$ = 8					; size = 4
_pPacketList$ = 12					; size = 4
?GetPacketType@CIndicator@@IBE?AV?$CStringT@DV?$StrTraitMFC_DLL@DV?$ChTraitsCRT@D@ATL@@@@@ATL@@PAVCPacketList@@@Z PROC ; CIndicator::GetPacketType, COMDAT
; _this$ = ecx

; 1032 : {

  00000	55		 push	 ebp
  00001	8b ec		 mov	 ebp, esp
  00003	56		 push	 esi

; 1033 : 	if(pPacketList == NULL)

  00004	8b 75 0c	 mov	 esi, DWORD PTR _pPacketList$[ebp]
  00007	85 f6		 test	 esi, esi
  00009	74 34		 je	 SHORT $LN8@GetPacketT

; 1034 : 		return TYPE_INTERGER; // "1"
; 1035 : 
; 1036 : 	CPacket* pEndPacket = pPacketList->GetBaseData( _MTEXT( C0_CLOSE));

  0000b	a1 54 00 00 00	 mov	 eax, DWORD PTR ?g_iMetaTable@@3VIMetaTable@@A+84
  00010	6a 01		 push	 1
  00012	51		 push	 ecx
  00013	8b cc		 mov	 ecx, esp
  00015	ff 70 14	 push	 DWORD PTR [eax+20]
  00018	ff 15 00 00 00
	00		 call	 DWORD PTR __imp_??0?$CStringT@DV?$StrTraitMFC_DLL@DV?$ChTraitsCRT@D@ATL@@@@@ATL@@QAE@PBD@Z
  0001e	8b ce		 mov	 ecx, esi
  00020	ff 15 00 00 00
	00		 call	 DWORD PTR __imp_?GetBaseData@CPacketList@@QAEPAVCPacket@@V?$CStringT@DV?$StrTraitMFC_DLL@DV?$ChTraitsCRT@D@ATL@@@@@ATL@@_N@Z

; 1037 : 	if(pEndPacket == NULL)

  00026	85 c0		 test	 eax, eax
  00028	74 15		 je	 SHORT $LN8@GetPacketT

; 1039 : 
; 1040 : 	return pEndPacket->GetType(false); //  type

  0002a	8b 75 08	 mov	 esi, DWORD PTR ___$ReturnUdt$[ebp]
  0002d	8b c8		 mov	 ecx, eax
  0002f	6a 00		 push	 0
  00031	56		 push	 esi
  00032	ff 15 00 00 00
	00		 call	 DWORD PTR __imp_?GetType@CPacket@@QAE?AV?$CStringT@DV?$StrTraitMFC_DLL@DV?$ChTraitsCRT@D@ATL@@@@@ATL@@_N@Z
  00038	8b c6		 mov	 eax, esi

; 1041 : }

  0003a	5e		 pop	 esi
  0003b	5d		 pop	 ebp
  0003c	c2 08 00	 ret	 8
$LN8@GetPacketT:

; 1038 : 		return TYPE_INTERGER; // "1"

  0003f	8b 4d 08	 mov	 ecx, DWORD PTR ___$ReturnUdt$[ebp]
  00042	68 00 00 00 00	 push	 OFFSET ??_C@_02JMABBILH@x1@
  00047	ff 15 00 00 00
	00		 call	 DWORD PTR __imp_??0?$CStringT@DV?$StrTraitMFC_DLL@DV?$ChTraitsCRT@D@ATL@@@@@ATL@@QAE@PBD@Z
  0004d	8b 45 08	 mov	 eax, DWORD PTR ___$ReturnUdt$[ebp]

; 1041 : }

  00050	5e		 pop	 esi
  00051	5d		 pop	 ebp
  00052	c2 08 00	 ret	 8
?GetPacketType@CIndicator@@IBE?AV?$CStringT@DV?$StrTraitMFC_DLL@DV?$ChTraitsCRT@D@ATL@@@@@ATL@@PAVCPacketList@@@Z ENDP ; CIndicator::GetPacketType
_TEXT	ENDS
; Function compile flags: /Ogtp
; File D:\git\src\IBK\IBK_DRFN\ProjSrc\SrcChartEx\ChartOCX\ChartFormulate\Indicator.cpp
;	COMDAT ?GetnumericDataList@CIndicator@@IAEPAV?$CList@NN@@PAVCPacket@@@Z
_TEXT	SEGMENT
_pPacket$ = 8						; size = 4
?GetnumericDataList@CIndicator@@IAEPAV?$CList@NN@@PAVCPacket@@@Z PROC ; CIndicator::GetnumericDataList, COMDAT
; _this$ = ecx

; 444  : {

  00000	55		 push	 ebp
  00001	8b ec		 mov	 ebp, esp

; 445  : 	if(pPacket == NULL)

  00003	8b 4d 08	 mov	 ecx, DWORD PTR _pPacket$[ebp]
  00006	85 c9		 test	 ecx, ecx
  00008	75 06		 jne	 SHORT $LN2@Getnumeric

; 446  : 		return NULL;

  0000a	33 c0		 xor	 eax, eax

; 449  : }

  0000c	5d		 pop	 ebp
  0000d	c2 04 00	 ret	 4
$LN2@Getnumeric:

; 447  : 
; 448  : 	return pPacket->GetnumericDataList();

  00010	ff 15 00 00 00
	00		 call	 DWORD PTR __imp_?GetnumericDataList@CPacket@@QAEPAV?$CList@NN@@XZ

; 449  : }

  00016	5d		 pop	 ebp
  00017	c2 04 00	 ret	 4
?GetnumericDataList@CIndicator@@IAEPAV?$CList@NN@@PAVCPacket@@@Z ENDP ; CIndicator::GetnumericDataList
_TEXT	ENDS
; Function compile flags: /Ogtp
; File D:\git\src\IBK\IBK_DRFN\ProjSrc\SrcChartEx\ChartOCX\ChartFormulate\Indicator.cpp
;	COMDAT ?IsIndicatorCalculated@CIndicator@@IAE_NW4CALCULATETYPE@CCalculateBaseData@@PAVCPacket@@@Z
_TEXT	SEGMENT
_calculatetype$ = 8					; size = 4
_pPacket$ = 12						; size = 4
?IsIndicatorCalculated@CIndicator@@IAE_NW4CALCULATETYPE@CCalculateBaseData@@PAVCPacket@@@Z PROC ; CIndicator::IsIndicatorCalculated, COMDAT
; _this$ = ecx

; 488  : {

  00000	55		 push	 ebp
  00001	8b ec		 mov	 ebp, esp

; 489  : 	return (calculatetype == CCalculateBaseData::TRDATA_CAL && pPacket->GetCount() > 0);

  00003	83 7d 08 00	 cmp	 DWORD PTR _calculatetype$[ebp], 0
  00007	75 12		 jne	 SHORT $LN3@IsIndicato
  00009	8b 4d 0c	 mov	 ecx, DWORD PTR _pPacket$[ebp]
  0000c	8b 01		 mov	 eax, DWORD PTR [ecx]
  0000e	ff 50 14	 call	 DWORD PTR [eax+20]
  00011	85 c0		 test	 eax, eax
  00013	7e 06		 jle	 SHORT $LN3@IsIndicato
  00015	b0 01		 mov	 al, 1

; 490  : }

  00017	5d		 pop	 ebp
  00018	c2 08 00	 ret	 8
$LN3@IsIndicato:

; 489  : 	return (calculatetype == CCalculateBaseData::TRDATA_CAL && pPacket->GetCount() > 0);

  0001b	32 c0		 xor	 al, al

; 490  : }

  0001d	5d		 pop	 ebp
  0001e	c2 08 00	 ret	 8
?IsIndicatorCalculated@CIndicator@@IAE_NW4CALCULATETYPE@CCalculateBaseData@@PAVCPacket@@@Z ENDP ; CIndicator::IsIndicatorCalculated
_TEXT	ENDS
; Function compile flags: /Ogtp
; File D:\git\src\IBK\IBK_DRFN\ProjSrc\SrcChartEx\ChartOCX\ChartFormulate\Indicator.cpp
; File C:\Program Files (x86)\Microsoft Visual Studio\2019\Community\VC\Tools\MSVC\14.29.30133\atlmfc\include\afxtempl.h
; File D:\git\src\IBK\IBK_DRFN\ProjSrc\SrcChartEx\ChartOCX\ChartFormulate\Indicator.cpp
; File C:\Program Files (x86)\Microsoft Visual Studio\2019\Community\VC\Tools\MSVC\14.29.30133\atlmfc\include\cstringt.h
; File D:\git\src\IBK\IBK_DRFN\ProjSrc\SrcChartEx\ChartOCX\ChartFormulate\Indicator.cpp
; File C:\Program Files (x86)\Microsoft Visual Studio\2019\Community\VC\Tools\MSVC\14.29.30133\atlmfc\include\cstringt.h
; File D:\git\src\IBK\IBK_DRFN\ProjSrc\SrcChartEx\ChartOCX\ChartFormulate\Indicator.cpp
; File C:\Program Files (x86)\Microsoft Visual Studio\2019\Community\VC\Tools\MSVC\14.29.30133\atlmfc\include\cstringt.h
; File D:\git\src\IBK\IBK_DRFN\ProjSrc\SrcChartEx\ChartOCX\ChartFormulate\Indicator.cpp
; File C:\Program Files (x86)\Microsoft Visual Studio\2019\Community\VC\Tools\MSVC\14.29.30133\atlmfc\include\cstringt.h
; File D:\git\src\IBK\IBK_DRFN\ProjSrc\SrcChartEx\ChartOCX\ChartFormulate\Indicator.cpp
; File C:\Program Files (x86)\Microsoft Visual Studio\2019\Community\VC\Tools\MSVC\14.29.30133\atlmfc\include\cstringt.h
; File C:\Program Files (x86)\Microsoft Visual Studio\2019\Community\VC\Tools\MSVC\14.29.30133\atlmfc\include\atlsimpstr.h
; File C:\Program Files (x86)\Microsoft Visual Studio\2019\Community\VC\Tools\MSVC\14.29.30133\atlmfc\include\cstringt.h
; File D:\git\src\IBK\IBK_DRFN\ProjSrc\SrcChartEx\ChartOCX\ChartFormulate\Indicator.cpp
; File C:\Program Files (x86)\Microsoft Visual Studio\2019\Community\VC\Tools\MSVC\14.29.30133\atlmfc\include\afxtempl.h
; File D:\git\src\IBK\IBK_DRFN\ProjSrc\SrcChartEx\ChartOCX\ChartFormulate\Indicator.cpp
; File C:\Program Files (x86)\Microsoft Visual Studio\2019\Community\VC\Tools\MSVC\14.29.30133\atlmfc\include\afxtempl.h
; File D:\git\src\IBK\IBK_DRFN\ProjSrc\SrcChartEx\ChartOCX\ChartFormulate\Indicator.cpp
; File C:\Program Files (x86)\Microsoft Visual Studio\2019\Community\VC\Tools\MSVC\14.29.30133\atlmfc\include\afxtempl.h
; File D:\git\src\IBK\IBK_DRFN\ProjSrc\SrcChartEx\ChartOCX\ChartFormulate\Indicator.cpp
;	COMDAT ?InCaseNoPacketPointer@CIndicator@@IAE_NPAVCPacketList@@AAPAVCIndicatorInfo@@AAPAVCPacket@@2PAVCGraphCalculateData@@@Z
_TEXT	SEGMENT
_subGraphNameList$ = -56				; size = 28
$T2 = -28						; size = 4
$T3 = -24						; size = 4
$T4 = -24						; size = 4
_pos_graphCalData$ = -20				; size = 4
_strSubGraphPacketNameHeader$ = -16			; size = 4
__$EHRec$ = -12						; size = 12
_pPacketList$ = 8					; size = 4
$T5 = 12						; size = 4
$T6 = 12						; size = 4
_pIndicatorInfo$ = 12					; size = 4
_pPacket$ = 16						; size = 4
_pPacket1$ = 20						; size = 4
_pGraphCalculateData$ = 24				; size = 4
?InCaseNoPacketPointer@CIndicator@@IAE_NPAVCPacketList@@AAPAVCIndicatorInfo@@AAPAVCPacket@@2PAVCGraphCalculateData@@@Z PROC ; CIndicator::InCaseNoPacketPointer, COMDAT
; _this$ = ecx

; 857  : {

  00000	55		 push	 ebp
  00001	8b ec		 mov	 ebp, esp
  00003	6a ff		 push	 -1
  00005	68 00 00 00 00	 push	 __ehhandler$?InCaseNoPacketPointer@CIndicator@@IAE_NPAVCPacketList@@AAPAVCIndicatorInfo@@AAPAVCPacket@@2PAVCGraphCalculateData@@@Z
  0000a	64 a1 00 00 00
	00		 mov	 eax, DWORD PTR fs:0
  00010	50		 push	 eax
  00011	83 ec 2c	 sub	 esp, 44			; 0000002cH
  00014	53		 push	 ebx
  00015	56		 push	 esi
  00016	57		 push	 edi
  00017	a1 00 00 00 00	 mov	 eax, DWORD PTR ___security_cookie
  0001c	33 c5		 xor	 eax, ebp
  0001e	50		 push	 eax
  0001f	8d 45 f4	 lea	 eax, DWORD PTR __$EHRec$[ebp]
  00022	64 a3 00 00 00
	00		 mov	 DWORD PTR fs:0, eax

; 858  : 	// (2004.02.07, ) NULL Pointer Exception , .
; 859  : 	if( !pPacketList) return FALSE;

  00028	83 7d 08 00	 cmp	 DWORD PTR _pPacketList$[ebp], 0
  0002c	c7 45 e8 00 00
	00 00		 mov	 DWORD PTR $T3[ebp], 0
  00033	0f 84 24 02 00
	00		 je	 $LN131@InCaseNoPa

; 860  : 
; 861  : 	if(pIndicatorInfo == NULL)

  00039	8b 5d 0c	 mov	 ebx, DWORD PTR _pIndicatorInfo$[ebp]
  0003c	8b 0b		 mov	 ecx, DWORD PTR [ebx]
  0003e	85 c9		 test	 ecx, ecx
  00040	0f 84 17 02 00
	00		 je	 $LN131@InCaseNoPa
; File C:\Program Files (x86)\Microsoft Visual Studio\2019\Community\VC\Tools\MSVC\14.29.30133\atlmfc\include\afxtempl.h

; 851  : {

  00046	c7 45 c8 00 00
	00 00		 mov	 DWORD PTR _subGraphNameList$[ebp], OFFSET ??_7?$CList@V?$CStringT@DV?$StrTraitMFC_DLL@DV?$ChTraitsCRT@D@ATL@@@@@ATL@@V12@@@6B@

; 852  : 	ASSERT(nBlockSize > 0);
; 853  : 
; 854  : 	m_nCount = 0;

  0004d	c7 45 d4 00 00
	00 00		 mov	 DWORD PTR _subGraphNameList$[ebp+12], 0

; 855  : 	m_pNodeHead = m_pNodeTail = m_pNodeFree = NULL;

  00054	c7 45 d8 00 00
	00 00		 mov	 DWORD PTR _subGraphNameList$[ebp+16], 0
  0005b	c7 45 d0 00 00
	00 00		 mov	 DWORD PTR _subGraphNameList$[ebp+8], 0
  00062	c7 45 cc 00 00
	00 00		 mov	 DWORD PTR _subGraphNameList$[ebp+4], 0

; 856  : 	m_pBlocks = NULL;

  00069	c7 45 dc 00 00
	00 00		 mov	 DWORD PTR _subGraphNameList$[ebp+20], 0

; 857  : 	m_nBlockSize = nBlockSize;

  00070	c7 45 e0 0a 00
	00 00		 mov	 DWORD PTR _subGraphNameList$[ebp+24], 10 ; 0000000aH
; File D:\git\src\IBK\IBK_DRFN\ProjSrc\SrcChartEx\ChartOCX\ChartFormulate\Indicator.cpp

; 865  : 	if(!pIndicatorInfo->GetSubGraphNameList(subGraphNameList))

  00077	8d 45 c8	 lea	 eax, DWORD PTR _subGraphNameList$[ebp]
  0007a	c7 45 fc 00 00
	00 00		 mov	 DWORD PTR __$EHRec$[ebp+8], 0
  00081	50		 push	 eax
  00082	ff 15 00 00 00
	00		 call	 DWORD PTR __imp_?GetSubGraphNameList@CIndicatorInfo@@QBE_NAAV?$CList@V?$CStringT@DV?$StrTraitMFC_DLL@DV?$ChTraitsCRT@D@ATL@@@@@ATL@@V12@@@@Z
  00088	8b 75 cc	 mov	 esi, DWORD PTR _subGraphNameList$[ebp+4]
  0008b	84 c0		 test	 al, al
  0008d	0f 84 6d 01 00
	00		 je	 $LN25@InCaseNoPa

; 866  : 		return false;
; 867  : 
; 868  : 	POSITION pos_sugGraphName = subGraphNameList.GetHeadPosition();
; 869  : 
; 870  : 	// (2004.02.07, ) NULL Pointer Exception , .
; 871  : 	if( !pGraphCalculateData) return FALSE;

  00093	83 7d 18 00	 cmp	 DWORD PTR _pGraphCalculateData$[ebp], 0
  00097	0f 84 63 01 00
	00		 je	 $LN25@InCaseNoPa

; 872  : 
; 873  : 	// (2006/12/11 - Seung-Won, Bae) Support Multi-Same Indicator.
; 874  : 	CString strSubGraphPacketNameHeader;

  0009d	8d 4d f0	 lea	 ecx, DWORD PTR _strSubGraphPacketNameHeader$[ebp]
  000a0	ff 15 00 00 00
	00		 call	 DWORD PTR __imp_??0?$CStringT@DV?$StrTraitMFC_DLL@DV?$ChTraitsCRT@D@ATL@@@@@ATL@@QAE@XZ

; 875  : 	if( pIndicatorInfo->GetGraphName() != pIndicatorInfo->GetIndicatorName()) strSubGraphPacketNameHeader = pIndicatorInfo->GetGraphName() + "_";

  000a6	8b 0b		 mov	 ecx, DWORD PTR [ebx]
  000a8	8d 45 e8	 lea	 eax, DWORD PTR $T4[ebp]
  000ab	50		 push	 eax
  000ac	c6 45 fc 03	 mov	 BYTE PTR __$EHRec$[ebp+8], 3
  000b0	ff 15 00 00 00
	00		 call	 DWORD PTR __imp_?GetIndicatorName@CIndicatorInfo@@QBE?AV?$CStringT@DV?$StrTraitMFC_DLL@DV?$ChTraitsCRT@D@ATL@@@@@ATL@@XZ
  000b6	8b f8		 mov	 edi, eax
  000b8	8b 0b		 mov	 ecx, DWORD PTR [ebx]
  000ba	8d 45 0c	 lea	 eax, DWORD PTR $T6[ebp]
  000bd	50		 push	 eax
  000be	c6 45 fc 04	 mov	 BYTE PTR __$EHRec$[ebp+8], 4
  000c2	ff 15 00 00 00
	00		 call	 DWORD PTR __imp_?GetGraphName@CIndicatorInfo@@QBE?AV?$CStringT@DV?$StrTraitMFC_DLL@DV?$ChTraitsCRT@D@ATL@@@@@ATL@@XZ
; File C:\Program Files (x86)\Microsoft Visual Studio\2019\Community\VC\Tools\MSVC\14.29.30133\atlmfc\include\cstringt.h

; 2560 : 		return( str1.Compare( str2 ) != 0 );

  000c8	ff 37		 push	 DWORD PTR [edi]
  000ca	8b c8		 mov	 ecx, eax
; File D:\git\src\IBK\IBK_DRFN\ProjSrc\SrcChartEx\ChartOCX\ChartFormulate\Indicator.cpp

; 875  : 	if( pIndicatorInfo->GetGraphName() != pIndicatorInfo->GetIndicatorName()) strSubGraphPacketNameHeader = pIndicatorInfo->GetGraphName() + "_";

  000cc	c6 45 fc 05	 mov	 BYTE PTR __$EHRec$[ebp+8], 5
; File C:\Program Files (x86)\Microsoft Visual Studio\2019\Community\VC\Tools\MSVC\14.29.30133\atlmfc\include\cstringt.h

; 2560 : 		return( str1.Compare( str2 ) != 0 );

  000d0	ff 15 00 00 00
	00		 call	 DWORD PTR __imp_?Compare@?$CStringT@DV?$StrTraitMFC_DLL@DV?$ChTraitsCRT@D@ATL@@@@@ATL@@QBEHPBD@Z
; File D:\git\src\IBK\IBK_DRFN\ProjSrc\SrcChartEx\ChartOCX\ChartFormulate\Indicator.cpp

; 875  : 	if( pIndicatorInfo->GetGraphName() != pIndicatorInfo->GetIndicatorName()) strSubGraphPacketNameHeader = pIndicatorInfo->GetGraphName() + "_";

  000d6	8d 4d 0c	 lea	 ecx, DWORD PTR $T6[ebp]
; File C:\Program Files (x86)\Microsoft Visual Studio\2019\Community\VC\Tools\MSVC\14.29.30133\atlmfc\include\cstringt.h

; 2560 : 		return( str1.Compare( str2 ) != 0 );

  000d9	8b f8		 mov	 edi, eax
; File D:\git\src\IBK\IBK_DRFN\ProjSrc\SrcChartEx\ChartOCX\ChartFormulate\Indicator.cpp

; 875  : 	if( pIndicatorInfo->GetGraphName() != pIndicatorInfo->GetIndicatorName()) strSubGraphPacketNameHeader = pIndicatorInfo->GetGraphName() + "_";

  000db	ff 15 00 00 00
	00		 call	 DWORD PTR __imp_??1?$CStringT@DV?$StrTraitMFC_DLL@DV?$ChTraitsCRT@D@ATL@@@@@ATL@@QAE@XZ
  000e1	8d 4d e8	 lea	 ecx, DWORD PTR $T4[ebp]
  000e4	c6 45 fc 03	 mov	 BYTE PTR __$EHRec$[ebp+8], 3
  000e8	ff 15 00 00 00
	00		 call	 DWORD PTR __imp_??1?$CStringT@DV?$StrTraitMFC_DLL@DV?$ChTraitsCRT@D@ATL@@@@@ATL@@QAE@XZ
  000ee	85 ff		 test	 edi, edi
  000f0	74 68		 je	 SHORT $LN8@InCaseNoPa
  000f2	8b 0b		 mov	 ecx, DWORD PTR [ebx]
  000f4	8d 45 e4	 lea	 eax, DWORD PTR $T2[ebp]
  000f7	50		 push	 eax
  000f8	ff 15 00 00 00
	00		 call	 DWORD PTR __imp_?GetGraphName@CIndicatorInfo@@QBE?AV?$CStringT@DV?$StrTraitMFC_DLL@DV?$ChTraitsCRT@D@ATL@@@@@ATL@@XZ
  000fe	8b f8		 mov	 edi, eax
; File C:\Program Files (x86)\Microsoft Visual Studio\2019\Community\VC\Tools\MSVC\14.29.30133\atlmfc\include\cstringt.h

; 2401 : 		CStringT strResult( str1.GetManager() );

  00100	8b cf		 mov	 ecx, edi
; File D:\git\src\IBK\IBK_DRFN\ProjSrc\SrcChartEx\ChartOCX\ChartFormulate\Indicator.cpp

; 875  : 	if( pIndicatorInfo->GetGraphName() != pIndicatorInfo->GetIndicatorName()) strSubGraphPacketNameHeader = pIndicatorInfo->GetGraphName() + "_";

  00102	c6 45 fc 07	 mov	 BYTE PTR __$EHRec$[ebp+8], 7
; File C:\Program Files (x86)\Microsoft Visual Studio\2019\Community\VC\Tools\MSVC\14.29.30133\atlmfc\include\cstringt.h

; 2401 : 		CStringT strResult( str1.GetManager() );

  00106	ff 15 00 00 00
	00		 call	 DWORD PTR __imp_?GetManager@?$CStringT@DV?$StrTraitMFC_DLL@DV?$ChTraitsCRT@D@ATL@@@@@ATL@@QBEPAUIAtlStringMgr@2@XZ
  0010c	50		 push	 eax
  0010d	8d 4d 0c	 lea	 ecx, DWORD PTR $T5[ebp]
  00110	ff 15 00 00 00
	00		 call	 DWORD PTR __imp_??0?$CStringT@DV?$StrTraitMFC_DLL@DV?$ChTraitsCRT@D@ATL@@@@@ATL@@QAE@PAUIAtlStringMgr@1@@Z
; File C:\Program Files (x86)\Microsoft Visual Studio\2019\Community\VC\Tools\MSVC\14.29.30133\atlmfc\include\atlsimpstr.h

; 519  : 		return( GetData()->nDataLength );

  00116	8b 07		 mov	 eax, DWORD PTR [edi]
; File C:\Program Files (x86)\Microsoft Visual Studio\2019\Community\VC\Tools\MSVC\14.29.30133\atlmfc\include\cstringt.h

; 2403 : 		CThisSimpleString::Concatenate( strResult, str1, str1.GetLength(), psz2, CThisSimpleString::StringLength( psz2 ) );

  00118	6a 01		 push	 1
  0011a	68 00 00 00 00	 push	 OFFSET ??_C@_01IDAFKMJL@_@

; 2404 : 
; 2405 : 		return( strResult );

  0011f	c7 45 e8 01 00
	00 00		 mov	 DWORD PTR $T3[ebp], 1
  00126	ff 70 f4	 push	 DWORD PTR [eax-12]
  00129	50		 push	 eax
  0012a	8d 45 0c	 lea	 eax, DWORD PTR $T5[ebp]
  0012d	50		 push	 eax
  0012e	ff 15 00 00 00
	00		 call	 DWORD PTR __imp_?Concatenate@?$CSimpleStringT@D$00@ATL@@KAXAAV12@PBDH1H@Z
  00134	83 c4 14	 add	 esp, 20			; 00000014H
; File D:\git\src\IBK\IBK_DRFN\ProjSrc\SrcChartEx\ChartOCX\ChartFormulate\Indicator.cpp

; 875  : 	if( pIndicatorInfo->GetGraphName() != pIndicatorInfo->GetIndicatorName()) strSubGraphPacketNameHeader = pIndicatorInfo->GetGraphName() + "_";

  00137	8d 45 0c	 lea	 eax, DWORD PTR $T5[ebp]
  0013a	8d 4d f0	 lea	 ecx, DWORD PTR _strSubGraphPacketNameHeader$[ebp]
  0013d	50		 push	 eax
  0013e	ff 15 00 00 00
	00		 call	 DWORD PTR __imp_??4?$CStringT@DV?$StrTraitMFC_DLL@DV?$ChTraitsCRT@D@ATL@@@@@ATL@@QAEAAV01@ABV01@@Z
  00144	8d 4d 0c	 lea	 ecx, DWORD PTR $T5[ebp]
  00147	ff 15 00 00 00
	00		 call	 DWORD PTR __imp_??1?$CStringT@DV?$StrTraitMFC_DLL@DV?$ChTraitsCRT@D@ATL@@@@@ATL@@QAE@XZ
  0014d	8d 4d e4	 lea	 ecx, DWORD PTR $T2[ebp]
  00150	c6 45 fc 03	 mov	 BYTE PTR __$EHRec$[ebp+8], 3
  00154	ff 15 00 00 00
	00		 call	 DWORD PTR __imp_??1?$CStringT@DV?$StrTraitMFC_DLL@DV?$ChTraitsCRT@D@ATL@@@@@ATL@@QAE@XZ
$LN8@InCaseNoPa:

; 876  : 
; 877  : 	POSITION pos_graphCalData = pGraphCalculateData->GetHeadPosition();

  0015a	8b 7d 18	 mov	 edi, DWORD PTR _pGraphCalculateData$[ebp]
  0015d	8b cf		 mov	 ecx, edi
  0015f	e8 00 00 00 00	 call	 ?GetHeadPosition@CGraphCalculateData@@QAEPAU__POSITION@@XZ ; CGraphCalculateData::GetHeadPosition

; 878  : 	while(pos_sugGraphName && pos_graphCalData)

  00164	8b 5d 14	 mov	 ebx, DWORD PTR _pPacket1$[ebp]
  00167	89 45 ec	 mov	 DWORD PTR _pos_graphCalData$[ebp], eax
  0016a	85 f6		 test	 esi, esi
  0016c	74 65		 je	 SHORT $LN138@InCaseNoPa
  0016e	66 90		 npad	 2
$LL2@InCaseNoPa:
  00170	85 c0		 test	 eax, eax
  00172	74 5f		 je	 SHORT $LN138@InCaseNoPa

; 879  : 	{
; 880  : 		CSubGraphPacketList* pSubGraphPacketList = pGraphCalculateData->GetNext(pos_graphCalData);

  00174	8d 45 ec	 lea	 eax, DWORD PTR _pos_graphCalData$[ebp]
  00177	8b cf		 mov	 ecx, edi
  00179	50		 push	 eax
  0017a	e8 00 00 00 00	 call	 ?GetNext@CGraphCalculateData@@QAEPAVCSubGraphPacketList@@AAPAU__POSITION@@@Z ; CGraphCalculateData::GetNext
  0017f	8b f8		 mov	 edi, eax

; 881  : 		if(pSubGraphPacketList == NULL)

  00181	85 ff		 test	 edi, edi
  00183	74 5b		 je	 SHORT $LN123@InCaseNoPa

; 885  : 		CPacket* pIndiPacket = pPacketList->GetBaseData( strSubGraphPacketNameHeader + subGraphNameList.GetNext( pos_sugGraphName), false);

  00185	6a 00		 push	 0
  00187	51		 push	 ecx
; File C:\Program Files (x86)\Microsoft Visual Studio\2019\Community\VC\Tools\MSVC\14.29.30133\atlmfc\include\afxtempl.h

; 811  : 	{ CNode* pNode = (CNode*) rPosition;

  00188	8b c6		 mov	 eax, esi
; File D:\git\src\IBK\IBK_DRFN\ProjSrc\SrcChartEx\ChartOCX\ChartFormulate\Indicator.cpp

; 885  : 		CPacket* pIndiPacket = pPacketList->GetBaseData( strSubGraphPacketNameHeader + subGraphNameList.GetNext( pos_sugGraphName), false);

  0018a	8b cc		 mov	 ecx, esp
; File C:\Program Files (x86)\Microsoft Visual Studio\2019\Community\VC\Tools\MSVC\14.29.30133\atlmfc\include\afxtempl.h

; 813  : 		rPosition = (POSITION) pNode->pNext;

  0018c	8b 36		 mov	 esi, DWORD PTR [esi]

; 814  : 		return pNode->data; }

  0018e	83 c0 08	 add	 eax, 8
; File D:\git\src\IBK\IBK_DRFN\ProjSrc\SrcChartEx\ChartOCX\ChartFormulate\Indicator.cpp

; 885  : 		CPacket* pIndiPacket = pPacketList->GetBaseData( strSubGraphPacketNameHeader + subGraphNameList.GetNext( pos_sugGraphName), false);

  00191	50		 push	 eax
  00192	8d 45 f0	 lea	 eax, DWORD PTR _strSubGraphPacketNameHeader$[ebp]
  00195	50		 push	 eax
  00196	51		 push	 ecx
  00197	e8 00 00 00 00	 call	 ??HATL@@YA?AV?$CStringT@DV?$StrTraitMFC_DLL@DV?$ChTraitsCRT@D@ATL@@@@@0@ABV10@0@Z ; ATL::operator+
  0019c	8b 4d 08	 mov	 ecx, DWORD PTR _pPacketList$[ebp]
  0019f	83 c4 0c	 add	 esp, 12			; 0000000cH
  001a2	ff 15 00 00 00
	00		 call	 DWORD PTR __imp_?GetBaseData@CPacketList@@QAEPAVCPacket@@V?$CStringT@DV?$StrTraitMFC_DLL@DV?$ChTraitsCRT@D@ATL@@@@@ATL@@_N@Z

; 886  : 		if(pIndiPacket == NULL)

  001a8	85 c0		 test	 eax, eax
  001aa	74 34		 je	 SHORT $LN123@InCaseNoPa

; 887  : 			return false;
; 888  : 
; 889  : 		if(pPacket == NULL)

  001ac	8b 4d 10	 mov	 ecx, DWORD PTR _pPacket$[ebp]
  001af	83 39 00	 cmp	 DWORD PTR [ecx], 0
  001b2	75 04		 jne	 SHORT $LN11@InCaseNoPa

; 890  : 			pPacket = pIndiPacket;

  001b4	89 01		 mov	 DWORD PTR [ecx], eax
  001b6	eb 07		 jmp	 SHORT $LN14@InCaseNoPa
$LN11@InCaseNoPa:

; 891  : 		else if(pPacket != NULL && pPacket1 == NULL)

  001b8	83 3b 00	 cmp	 DWORD PTR [ebx], 0
  001bb	75 19		 jne	 SHORT $LN13@InCaseNoPa

; 892  : 			pPacket1 = pIndiPacket;

  001bd	89 03		 mov	 DWORD PTR [ebx], eax
$LN14@InCaseNoPa:

; 893  : 		else
; 894  : 			break;
; 895  : 		
; 896  : 		pSubGraphPacketList->AddTail2( pIndiPacket);

  001bf	50		 push	 eax
  001c0	8b cf		 mov	 ecx, edi
  001c2	e8 00 00 00 00	 call	 ?AddTail2@CSubGraphPacketList@@QAEXPAVCPacket@@@Z ; CSubGraphPacketList::AddTail2
  001c7	85 f6		 test	 esi, esi
  001c9	74 08		 je	 SHORT $LN138@InCaseNoPa

; 878  : 	while(pos_sugGraphName && pos_graphCalData)

  001cb	8b 45 ec	 mov	 eax, DWORD PTR _pos_graphCalData$[ebp]
  001ce	8b 7d 18	 mov	 edi, DWORD PTR _pGraphCalculateData$[ebp]
  001d1	eb 9d		 jmp	 SHORT $LL2@InCaseNoPa
$LN138@InCaseNoPa:

; 898  : 	return (pPacket != NULL || pPacket1 != NULL);

  001d3	8b 4d 10	 mov	 ecx, DWORD PTR _pPacket$[ebp]
$LN13@InCaseNoPa:
  001d6	83 39 00	 cmp	 DWORD PTR [ecx], 0
  001d9	75 15		 jne	 SHORT $LN16@InCaseNoPa
  001db	83 3b 00	 cmp	 DWORD PTR [ebx], 0
  001de	75 10		 jne	 SHORT $LN16@InCaseNoPa
$LN123@InCaseNoPa:
  001e0	8d 4d f0	 lea	 ecx, DWORD PTR _strSubGraphPacketNameHeader$[ebp]
  001e3	32 db		 xor	 bl, bl
  001e5	ff 15 00 00 00
	00		 call	 DWORD PTR __imp_??1?$CStringT@DV?$StrTraitMFC_DLL@DV?$ChTraitsCRT@D@ATL@@@@@ATL@@QAE@XZ
  001eb	8b 75 cc	 mov	 esi, DWORD PTR _subGraphNameList$[ebp+4]
  001ee	eb 12		 jmp	 SHORT $LN26@InCaseNoPa
$LN16@InCaseNoPa:
  001f0	8d 4d f0	 lea	 ecx, DWORD PTR _strSubGraphPacketNameHeader$[ebp]
  001f3	b3 01		 mov	 bl, 1
  001f5	ff 15 00 00 00
	00		 call	 DWORD PTR __imp_??1?$CStringT@DV?$StrTraitMFC_DLL@DV?$ChTraitsCRT@D@ATL@@@@@ATL@@QAE@XZ
  001fb	8b 75 cc	 mov	 esi, DWORD PTR _subGraphNameList$[ebp+4]
  001fe	eb 02		 jmp	 SHORT $LN26@InCaseNoPa
$LN25@InCaseNoPa:
  00200	32 db		 xor	 bl, bl
$LN26@InCaseNoPa:
; File C:\Program Files (x86)\Microsoft Visual Studio\2019\Community\VC\Tools\MSVC\14.29.30133\atlmfc\include\afxtempl.h

; 878  : {

  00202	c7 45 fc 0a 00
	00 00		 mov	 DWORD PTR __$EHRec$[ebp+8], 10 ; 0000000aH
  00209	c7 45 c8 00 00
	00 00		 mov	 DWORD PTR _subGraphNameList$[ebp], OFFSET ??_7?$CList@V?$CStringT@DV?$StrTraitMFC_DLL@DV?$ChTraitsCRT@D@ATL@@@@@ATL@@V12@@@6B@

; 867  : 	for (pNode = m_pNodeHead; pNode != NULL; pNode = pNode->pNext)

  00210	85 f6		 test	 esi, esi
  00212	74 0f		 je	 SHORT $LN115@InCaseNoPa
$LL116@InCaseNoPa:

; 868  : 		pNode->data.~TYPE();

  00214	8d 4e 08	 lea	 ecx, DWORD PTR [esi+8]
  00217	ff 15 00 00 00
	00		 call	 DWORD PTR __imp_??1?$CStringT@DV?$StrTraitMFC_DLL@DV?$ChTraitsCRT@D@ATL@@@@@ATL@@QAE@XZ

; 858  : }
; 859  : 
; 860  : template<class TYPE, class ARG_TYPE>
; 861  : void CList<TYPE, ARG_TYPE>::RemoveAll()
; 862  : {
; 863  : 	ASSERT_VALID(this);
; 864  : 
; 865  : 	// destroy elements
; 866  : 	CNode* pNode;
; 867  : 	for (pNode = m_pNodeHead; pNode != NULL; pNode = pNode->pNext)

  0021d	8b 36		 mov	 esi, DWORD PTR [esi]
  0021f	85 f6		 test	 esi, esi
  00221	75 f1		 jne	 SHORT $LL116@InCaseNoPa
$LN115@InCaseNoPa:

; 869  : 
; 870  : 	m_nCount = 0;
; 871  : 	m_pNodeHead = m_pNodeTail = m_pNodeFree = NULL;
; 872  : 	m_pBlocks->FreeDataChain();

  00223	8b 4d dc	 mov	 ecx, DWORD PTR _subGraphNameList$[ebp+20]
  00226	c7 45 d4 00 00
	00 00		 mov	 DWORD PTR _subGraphNameList$[ebp+12], 0
  0022d	c7 45 d8 00 00
	00 00		 mov	 DWORD PTR _subGraphNameList$[ebp+16], 0
  00234	c7 45 d0 00 00
	00 00		 mov	 DWORD PTR _subGraphNameList$[ebp+8], 0
  0023b	c7 45 cc 00 00
	00 00		 mov	 DWORD PTR _subGraphNameList$[ebp+4], 0
  00242	e8 00 00 00 00	 call	 ?FreeDataChain@CPlex@@QAEXXZ ; CPlex::FreeDataChain
; File D:\git\src\IBK\IBK_DRFN\ProjSrc\SrcChartEx\ChartOCX\ChartFormulate\Indicator.cpp

; 898  : 	return (pPacket != NULL || pPacket1 != NULL);

  00247	8a c3		 mov	 al, bl

; 899  : }

  00249	8b 4d f4	 mov	 ecx, DWORD PTR __$EHRec$[ebp]
  0024c	64 89 0d 00 00
	00 00		 mov	 DWORD PTR fs:0, ecx
  00253	59		 pop	 ecx
  00254	5f		 pop	 edi
  00255	5e		 pop	 esi
  00256	5b		 pop	 ebx
  00257	8b e5		 mov	 esp, ebp
  00259	5d		 pop	 ebp
  0025a	c2 14 00	 ret	 20			; 00000014H
$LN131@InCaseNoPa:

; 862  : 		return false;

  0025d	32 c0		 xor	 al, al

; 899  : }

  0025f	8b 4d f4	 mov	 ecx, DWORD PTR __$EHRec$[ebp]
  00262	64 89 0d 00 00
	00 00		 mov	 DWORD PTR fs:0, ecx
  00269	59		 pop	 ecx
  0026a	5f		 pop	 edi
  0026b	5e		 pop	 esi
  0026c	5b		 pop	 ebx
  0026d	8b e5		 mov	 esp, ebp
  0026f	5d		 pop	 ebp
  00270	c2 14 00	 ret	 20			; 00000014H
_TEXT	ENDS
;	COMDAT text$x
text$x	SEGMENT
__unwindfunclet$?InCaseNoPacketPointer@CIndicator@@IAE_NPAVCPacketList@@AAPAVCIndicatorInfo@@AAPAVCPacket@@2PAVCGraphCalculateData@@@Z$0:
  00000	8d 4d c8	 lea	 ecx, DWORD PTR _subGraphNameList$[ebp]
  00003	e9 00 00 00 00	 jmp	 ??1?$CList@V?$CStringT@DV?$StrTraitMFC_DLL@DV?$ChTraitsCRT@D@ATL@@@@@ATL@@V12@@@UAE@XZ ; CList<ATL::CStringT<char,StrTraitMFC_DLL<char,ATL::ChTraitsCRT<char> > >,ATL::CStringT<char,StrTraitMFC_DLL<char,ATL::ChTraitsCRT<char> > > >::~CList<ATL::CStringT<char,StrTraitMFC_DLL<char,ATL::ChTraitsCRT<char> > >,ATL::CStringT<char,StrTraitMFC_DLL<char,ATL::ChTraitsCRT<char> > > >
__unwindfunclet$?InCaseNoPacketPointer@CIndicator@@IAE_NPAVCPacketList@@AAPAVCIndicatorInfo@@AAPAVCPacket@@2PAVCGraphCalculateData@@@Z$1:
  00008	8d 4d f0	 lea	 ecx, DWORD PTR _strSubGraphPacketNameHeader$[ebp]
  0000b	ff 25 00 00 00
	00		 jmp	 DWORD PTR __imp_??1?$CStringT@DV?$StrTraitMFC_DLL@DV?$ChTraitsCRT@D@ATL@@@@@ATL@@QAE@XZ
__unwindfunclet$?InCaseNoPacketPointer@CIndicator@@IAE_NPAVCPacketList@@AAPAVCIndicatorInfo@@AAPAVCPacket@@2PAVCGraphCalculateData@@@Z$2:
  00011	8d 4d e8	 lea	 ecx, DWORD PTR $T4[ebp]
  00014	ff 25 00 00 00
	00		 jmp	 DWORD PTR __imp_??1?$CStringT@DV?$StrTraitMFC_DLL@DV?$ChTraitsCRT@D@ATL@@@@@ATL@@QAE@XZ
__unwindfunclet$?InCaseNoPacketPointer@CIndicator@@IAE_NPAVCPacketList@@AAPAVCIndicatorInfo@@AAPAVCPacket@@2PAVCGraphCalculateData@@@Z$3:
  0001a	8d 4d 0c	 lea	 ecx, DWORD PTR $T6[ebp]
  0001d	ff 25 00 00 00
	00		 jmp	 DWORD PTR __imp_??1?$CStringT@DV?$StrTraitMFC_DLL@DV?$ChTraitsCRT@D@ATL@@@@@ATL@@QAE@XZ
__unwindfunclet$?InCaseNoPacketPointer@CIndicator@@IAE_NPAVCPacketList@@AAPAVCIndicatorInfo@@AAPAVCPacket@@2PAVCGraphCalculateData@@@Z$4:
  00023	8d 4d e4	 lea	 ecx, DWORD PTR $T2[ebp]
  00026	ff 25 00 00 00
	00		 jmp	 DWORD PTR __imp_??1?$CStringT@DV?$StrTraitMFC_DLL@DV?$ChTraitsCRT@D@ATL@@@@@ATL@@QAE@XZ
__unwindfunclet$?InCaseNoPacketPointer@CIndicator@@IAE_NPAVCPacketList@@AAPAVCIndicatorInfo@@AAPAVCPacket@@2PAVCGraphCalculateData@@@Z$9:
  0002c	8b 45 e8	 mov	 eax, DWORD PTR $T3[ebp]
  0002f	83 e0 01	 and	 eax, 1
  00032	0f 84 0d 00 00
	00		 je	 $LN60@InCaseNoPa
  00038	83 65 e8 fe	 and	 DWORD PTR $T3[ebp], -2	; fffffffeH
  0003c	8d 4d 0c	 lea	 ecx, DWORD PTR $T5[ebp]
  0003f	ff 25 00 00 00
	00		 jmp	 DWORD PTR __imp_??1?$CStringT@DV?$StrTraitMFC_DLL@DV?$ChTraitsCRT@D@ATL@@@@@ATL@@QAE@XZ
$LN60@InCaseNoPa:
  00045	c3		 ret	 0
  00046	cc		 int	 3
  00047	cc		 int	 3
  00048	cc		 int	 3
  00049	cc		 int	 3
  0004a	cc		 int	 3
__ehhandler$?InCaseNoPacketPointer@CIndicator@@IAE_NPAVCPacketList@@AAPAVCIndicatorInfo@@AAPAVCPacket@@2PAVCGraphCalculateData@@@Z:
  0004b	90		 npad	 1
  0004c	90		 npad	 1
  0004d	8b 54 24 08	 mov	 edx, DWORD PTR [esp+8]
  00051	8d 42 0c	 lea	 eax, DWORD PTR [edx+12]
  00054	8b 4a c4	 mov	 ecx, DWORD PTR [edx-60]
  00057	33 c8		 xor	 ecx, eax
  00059	e8 00 00 00 00	 call	 @__security_check_cookie@4
  0005e	b8 00 00 00 00	 mov	 eax, OFFSET __ehfuncinfo$?InCaseNoPacketPointer@CIndicator@@IAE_NPAVCPacketList@@AAPAVCIndicatorInfo@@AAPAVCPacket@@2PAVCGraphCalculateData@@@Z
  00063	e9 00 00 00 00	 jmp	 ___CxxFrameHandler3
text$x	ENDS
?InCaseNoPacketPointer@CIndicator@@IAE_NPAVCPacketList@@AAPAVCIndicatorInfo@@AAPAVCPacket@@2PAVCGraphCalculateData@@@Z ENDP ; CIndicator::InCaseNoPacketPointer
; Function compile flags: /Ogtp
; File D:\git\src\IBK\IBK_DRFN\ProjSrc\SrcChartEx\ChartOCX\ChartFormulate\Indicator.cpp
; File C:\Program Files (x86)\Microsoft Visual Studio\2019\Community\VC\Tools\MSVC\14.29.30133\atlmfc\include\cstringt.h
; File D:\git\src\IBK\IBK_DRFN\ProjSrc\SrcChartEx\ChartOCX\ChartFormulate\Indicator.cpp
; File C:\Program Files (x86)\Microsoft Visual Studio\2019\Community\VC\Tools\MSVC\14.29.30133\atlmfc\include\cstringt.h
; File D:\git\src\IBK\IBK_DRFN\ProjSrc\SrcChartEx\ChartOCX\ChartFormulate\Indicator.cpp
; File C:\Program Files (x86)\Microsoft Visual Studio\2019\Community\VC\Tools\MSVC\14.29.30133\atlmfc\include\cstringt.h
; File D:\git\src\IBK\IBK_DRFN\ProjSrc\SrcChartEx\ChartOCX\ChartFormulate\Indicator.cpp
; File C:\Program Files (x86)\Microsoft Visual Studio\2019\Community\VC\Tools\MSVC\14.29.30133\atlmfc\include\cstringt.h
; File D:\git\src\IBK\IBK_DRFN\ProjSrc\SrcChartEx\ChartOCX\ChartFormulate\Indicator.cpp
; File C:\Program Files (x86)\Microsoft Visual Studio\2019\Community\VC\Tools\MSVC\14.29.30133\atlmfc\include\cstringt.h
; File C:\Program Files (x86)\Microsoft Visual Studio\2019\Community\VC\Tools\MSVC\14.29.30133\atlmfc\include\atlsimpstr.h
; File C:\Program Files (x86)\Microsoft Visual Studio\2019\Community\VC\Tools\MSVC\14.29.30133\atlmfc\include\cstringt.h
; File D:\git\src\IBK\IBK_DRFN\ProjSrc\SrcChartEx\ChartOCX\ChartFormulate\Indicator.cpp
;	COMDAT ?InCaseNoPacketPointer@CIndicator@@IAE_NPAVCPacketList@@AAPAVCIndicatorInfo@@AAPAVCPacket@@PAVCSubGraphPacketList@@@Z
_TEXT	SEGMENT
$T2 = -32						; size = 4
$T3 = -28						; size = 4
$T4 = -24						; size = 4
$T5 = -20						; size = 4
$T6 = -20						; size = 4
_strSubGraphPacketName$ = -16				; size = 4
__$EHRec$ = -12						; size = 12
_pPacketList$ = 8					; size = 4
$T7 = 12						; size = 4
$T8 = 12						; size = 4
_pIndicatorInfo$ = 12					; size = 4
_pPacket$ = 16						; size = 4
_pSubGraphList$ = 20					; size = 4
?InCaseNoPacketPointer@CIndicator@@IAE_NPAVCPacketList@@AAPAVCIndicatorInfo@@AAPAVCPacket@@PAVCSubGraphPacketList@@@Z PROC ; CIndicator::InCaseNoPacketPointer, COMDAT
; _this$ = ecx

; 837  : {

  00000	55		 push	 ebp
  00001	8b ec		 mov	 ebp, esp
  00003	6a ff		 push	 -1
  00005	68 00 00 00 00	 push	 __ehhandler$?InCaseNoPacketPointer@CIndicator@@IAE_NPAVCPacketList@@AAPAVCIndicatorInfo@@AAPAVCPacket@@PAVCSubGraphPacketList@@@Z
  0000a	64 a1 00 00 00
	00		 mov	 eax, DWORD PTR fs:0
  00010	50		 push	 eax
  00011	83 ec 14	 sub	 esp, 20			; 00000014H
  00014	53		 push	 ebx
  00015	56		 push	 esi
  00016	57		 push	 edi
  00017	a1 00 00 00 00	 mov	 eax, DWORD PTR ___security_cookie
  0001c	33 c5		 xor	 eax, ebp
  0001e	50		 push	 eax
  0001f	8d 45 f4	 lea	 eax, DWORD PTR __$EHRec$[ebp]
  00022	64 a3 00 00 00
	00		 mov	 DWORD PTR fs:0, eax

; 838  : 	// (2004.02.07, ) NULL Pointer Exception , .
; 839  : 	if( !pPacketList) return FALSE;

  00028	83 7d 08 00	 cmp	 DWORD PTR _pPacketList$[ebp], 0
  0002c	c7 45 ec 00 00
	00 00		 mov	 DWORD PTR $T5[ebp], 0
  00033	0f 84 5c 01 00
	00		 je	 $LN32@InCaseNoPa

; 840  : 	// (2004.02.07, ) NULL Pointer Exception , .
; 841  : 	if( !pSubGraphList) return FALSE;

  00039	83 7d 14 00	 cmp	 DWORD PTR _pSubGraphList$[ebp], 0
  0003d	0f 84 52 01 00
	00		 je	 $LN32@InCaseNoPa

; 842  : 
; 843  : 	if(pIndicatorInfo == NULL)

  00043	8b 5d 0c	 mov	 ebx, DWORD PTR _pIndicatorInfo$[ebp]
  00046	8b 0b		 mov	 ecx, DWORD PTR [ebx]
  00048	85 c9		 test	 ecx, ecx
  0004a	0f 84 45 01 00
	00		 je	 $LN32@InCaseNoPa

; 845  : 
; 846  : 	// (2006/12/11 - Seung-Won, Bae) Support Multi-Same Indicator.
; 847  : 	CString strSubGraphPacketName = pIndicatorInfo->GetSubGraphName( 0);

  00050	8b 3d 00 00 00
	00		 mov	 edi, DWORD PTR __imp_?GetSubGraphName@CIndicatorInfo@@QBE?AV?$CStringT@DV?$StrTraitMFC_DLL@DV?$ChTraitsCRT@D@ATL@@@@@ATL@@H@Z
  00056	8d 45 f0	 lea	 eax, DWORD PTR _strSubGraphPacketName$[ebp]
  00059	6a 00		 push	 0
  0005b	50		 push	 eax
  0005c	ff d7		 call	 edi

; 848  : 	if( pIndicatorInfo->GetGraphName() != pIndicatorInfo->GetIndicatorName()) strSubGraphPacketName = pIndicatorInfo->GetGraphName() + "_" + pIndicatorInfo->GetSubGraphName( 0);

  0005e	8b 0b		 mov	 ecx, DWORD PTR [ebx]
  00060	8d 45 ec	 lea	 eax, DWORD PTR $T6[ebp]
  00063	50		 push	 eax
  00064	c7 45 fc 00 00
	00 00		 mov	 DWORD PTR __$EHRec$[ebp+8], 0
  0006b	ff 15 00 00 00
	00		 call	 DWORD PTR __imp_?GetIndicatorName@CIndicatorInfo@@QBE?AV?$CStringT@DV?$StrTraitMFC_DLL@DV?$ChTraitsCRT@D@ATL@@@@@ATL@@XZ
  00071	8b f0		 mov	 esi, eax
  00073	8b 0b		 mov	 ecx, DWORD PTR [ebx]
  00075	8d 45 0c	 lea	 eax, DWORD PTR $T8[ebp]
  00078	50		 push	 eax
  00079	c6 45 fc 01	 mov	 BYTE PTR __$EHRec$[ebp+8], 1
  0007d	ff 15 00 00 00
	00		 call	 DWORD PTR __imp_?GetGraphName@CIndicatorInfo@@QBE?AV?$CStringT@DV?$StrTraitMFC_DLL@DV?$ChTraitsCRT@D@ATL@@@@@ATL@@XZ
; File C:\Program Files (x86)\Microsoft Visual Studio\2019\Community\VC\Tools\MSVC\14.29.30133\atlmfc\include\cstringt.h

; 2560 : 		return( str1.Compare( str2 ) != 0 );

  00083	ff 36		 push	 DWORD PTR [esi]
  00085	8b c8		 mov	 ecx, eax
; File D:\git\src\IBK\IBK_DRFN\ProjSrc\SrcChartEx\ChartOCX\ChartFormulate\Indicator.cpp

; 848  : 	if( pIndicatorInfo->GetGraphName() != pIndicatorInfo->GetIndicatorName()) strSubGraphPacketName = pIndicatorInfo->GetGraphName() + "_" + pIndicatorInfo->GetSubGraphName( 0);

  00087	c6 45 fc 02	 mov	 BYTE PTR __$EHRec$[ebp+8], 2
; File C:\Program Files (x86)\Microsoft Visual Studio\2019\Community\VC\Tools\MSVC\14.29.30133\atlmfc\include\cstringt.h

; 2560 : 		return( str1.Compare( str2 ) != 0 );

  0008b	ff 15 00 00 00
	00		 call	 DWORD PTR __imp_?Compare@?$CStringT@DV?$StrTraitMFC_DLL@DV?$ChTraitsCRT@D@ATL@@@@@ATL@@QBEHPBD@Z
; File D:\git\src\IBK\IBK_DRFN\ProjSrc\SrcChartEx\ChartOCX\ChartFormulate\Indicator.cpp

; 848  : 	if( pIndicatorInfo->GetGraphName() != pIndicatorInfo->GetIndicatorName()) strSubGraphPacketName = pIndicatorInfo->GetGraphName() + "_" + pIndicatorInfo->GetSubGraphName( 0);

  00091	8d 4d 0c	 lea	 ecx, DWORD PTR $T8[ebp]
; File C:\Program Files (x86)\Microsoft Visual Studio\2019\Community\VC\Tools\MSVC\14.29.30133\atlmfc\include\cstringt.h

; 2560 : 		return( str1.Compare( str2 ) != 0 );

  00094	8b f0		 mov	 esi, eax
; File D:\git\src\IBK\IBK_DRFN\ProjSrc\SrcChartEx\ChartOCX\ChartFormulate\Indicator.cpp

; 848  : 	if( pIndicatorInfo->GetGraphName() != pIndicatorInfo->GetIndicatorName()) strSubGraphPacketName = pIndicatorInfo->GetGraphName() + "_" + pIndicatorInfo->GetSubGraphName( 0);

  00096	ff 15 00 00 00
	00		 call	 DWORD PTR __imp_??1?$CStringT@DV?$StrTraitMFC_DLL@DV?$ChTraitsCRT@D@ATL@@@@@ATL@@QAE@XZ
  0009c	8d 4d ec	 lea	 ecx, DWORD PTR $T6[ebp]
  0009f	c6 45 fc 00	 mov	 BYTE PTR __$EHRec$[ebp+8], 0
  000a3	ff 15 00 00 00
	00		 call	 DWORD PTR __imp_??1?$CStringT@DV?$StrTraitMFC_DLL@DV?$ChTraitsCRT@D@ATL@@@@@ATL@@QAE@XZ
  000a9	85 f6		 test	 esi, esi
  000ab	0f 84 99 00 00
	00		 je	 $LN5@InCaseNoPa
  000b1	8b 0b		 mov	 ecx, DWORD PTR [ebx]
  000b3	8d 45 e0	 lea	 eax, DWORD PTR $T2[ebp]
  000b6	6a 00		 push	 0
  000b8	50		 push	 eax
  000b9	ff d7		 call	 edi
  000bb	8b f8		 mov	 edi, eax
  000bd	8b 0b		 mov	 ecx, DWORD PTR [ebx]
  000bf	8d 45 e4	 lea	 eax, DWORD PTR $T3[ebp]
  000c2	50		 push	 eax
  000c3	c6 45 fc 03	 mov	 BYTE PTR __$EHRec$[ebp+8], 3
  000c7	ff 15 00 00 00
	00		 call	 DWORD PTR __imp_?GetGraphName@CIndicatorInfo@@QBE?AV?$CStringT@DV?$StrTraitMFC_DLL@DV?$ChTraitsCRT@D@ATL@@@@@ATL@@XZ
  000cd	8b f0		 mov	 esi, eax
; File C:\Program Files (x86)\Microsoft Visual Studio\2019\Community\VC\Tools\MSVC\14.29.30133\atlmfc\include\cstringt.h

; 2401 : 		CStringT strResult( str1.GetManager() );

  000cf	8b ce		 mov	 ecx, esi
; File D:\git\src\IBK\IBK_DRFN\ProjSrc\SrcChartEx\ChartOCX\ChartFormulate\Indicator.cpp

; 848  : 	if( pIndicatorInfo->GetGraphName() != pIndicatorInfo->GetIndicatorName()) strSubGraphPacketName = pIndicatorInfo->GetGraphName() + "_" + pIndicatorInfo->GetSubGraphName( 0);

  000d1	c6 45 fc 05	 mov	 BYTE PTR __$EHRec$[ebp+8], 5
; File C:\Program Files (x86)\Microsoft Visual Studio\2019\Community\VC\Tools\MSVC\14.29.30133\atlmfc\include\cstringt.h

; 2401 : 		CStringT strResult( str1.GetManager() );

  000d5	ff 15 00 00 00
	00		 call	 DWORD PTR __imp_?GetManager@?$CStringT@DV?$StrTraitMFC_DLL@DV?$ChTraitsCRT@D@ATL@@@@@ATL@@QBEPAUIAtlStringMgr@2@XZ
  000db	50		 push	 eax
  000dc	8d 4d 0c	 lea	 ecx, DWORD PTR $T7[ebp]
  000df	ff 15 00 00 00
	00		 call	 DWORD PTR __imp_??0?$CStringT@DV?$StrTraitMFC_DLL@DV?$ChTraitsCRT@D@ATL@@@@@ATL@@QAE@PAUIAtlStringMgr@1@@Z
; File C:\Program Files (x86)\Microsoft Visual Studio\2019\Community\VC\Tools\MSVC\14.29.30133\atlmfc\include\atlsimpstr.h

; 519  : 		return( GetData()->nDataLength );

  000e5	8b 06		 mov	 eax, DWORD PTR [esi]
; File C:\Program Files (x86)\Microsoft Visual Studio\2019\Community\VC\Tools\MSVC\14.29.30133\atlmfc\include\cstringt.h

; 2403 : 		CThisSimpleString::Concatenate( strResult, str1, str1.GetLength(), psz2, CThisSimpleString::StringLength( psz2 ) );

  000e7	6a 01		 push	 1
  000e9	68 00 00 00 00	 push	 OFFSET ??_C@_01IDAFKMJL@_@

; 2404 : 
; 2405 : 		return( strResult );

  000ee	c7 45 ec 01 00
	00 00		 mov	 DWORD PTR $T5[ebp], 1
  000f5	ff 70 f4	 push	 DWORD PTR [eax-12]
  000f8	50		 push	 eax
  000f9	8d 45 0c	 lea	 eax, DWORD PTR $T7[ebp]
  000fc	50		 push	 eax
  000fd	ff 15 00 00 00
	00		 call	 DWORD PTR __imp_?Concatenate@?$CSimpleStringT@D$00@ATL@@KAXAAV12@PBDH1H@Z
; File D:\git\src\IBK\IBK_DRFN\ProjSrc\SrcChartEx\ChartOCX\ChartFormulate\Indicator.cpp

; 848  : 	if( pIndicatorInfo->GetGraphName() != pIndicatorInfo->GetIndicatorName()) strSubGraphPacketName = pIndicatorInfo->GetGraphName() + "_" + pIndicatorInfo->GetSubGraphName( 0);

  00103	57		 push	 edi
  00104	8d 45 0c	 lea	 eax, DWORD PTR $T7[ebp]
  00107	50		 push	 eax
  00108	8d 45 e8	 lea	 eax, DWORD PTR $T4[ebp]
  0010b	50		 push	 eax
  0010c	e8 00 00 00 00	 call	 ??HATL@@YA?AV?$CStringT@DV?$StrTraitMFC_DLL@DV?$ChTraitsCRT@D@ATL@@@@@0@ABV10@0@Z ; ATL::operator+
  00111	83 c4 20	 add	 esp, 32			; 00000020H
  00114	50		 push	 eax
  00115	8d 4d f0	 lea	 ecx, DWORD PTR _strSubGraphPacketName$[ebp]
  00118	c6 45 fc 06	 mov	 BYTE PTR __$EHRec$[ebp+8], 6
  0011c	ff 15 00 00 00
	00		 call	 DWORD PTR __imp_??4?$CStringT@DV?$StrTraitMFC_DLL@DV?$ChTraitsCRT@D@ATL@@@@@ATL@@QAEAAV01@ABV01@@Z
  00122	8d 4d e8	 lea	 ecx, DWORD PTR $T4[ebp]
  00125	ff 15 00 00 00
	00		 call	 DWORD PTR __imp_??1?$CStringT@DV?$StrTraitMFC_DLL@DV?$ChTraitsCRT@D@ATL@@@@@ATL@@QAE@XZ
  0012b	8d 4d 0c	 lea	 ecx, DWORD PTR $T7[ebp]
  0012e	ff 15 00 00 00
	00		 call	 DWORD PTR __imp_??1?$CStringT@DV?$StrTraitMFC_DLL@DV?$ChTraitsCRT@D@ATL@@@@@ATL@@QAE@XZ
  00134	8d 4d e4	 lea	 ecx, DWORD PTR $T3[ebp]
  00137	ff 15 00 00 00
	00		 call	 DWORD PTR __imp_??1?$CStringT@DV?$StrTraitMFC_DLL@DV?$ChTraitsCRT@D@ATL@@@@@ATL@@QAE@XZ
  0013d	8d 4d e0	 lea	 ecx, DWORD PTR $T2[ebp]
  00140	c6 45 fc 00	 mov	 BYTE PTR __$EHRec$[ebp+8], 0
  00144	ff 15 00 00 00
	00		 call	 DWORD PTR __imp_??1?$CStringT@DV?$StrTraitMFC_DLL@DV?$ChTraitsCRT@D@ATL@@@@@ATL@@QAE@XZ
$LN5@InCaseNoPa:

; 849  : 	pPacket = pPacketList->GetBaseData( strSubGraphPacketName, false);

  0014a	6a 00		 push	 0
  0014c	51		 push	 ecx
  0014d	8d 45 f0	 lea	 eax, DWORD PTR _strSubGraphPacketName$[ebp]
  00150	8b cc		 mov	 ecx, esp
  00152	50		 push	 eax
  00153	ff 15 00 00 00
	00		 call	 DWORD PTR __imp_??0?$CStringT@DV?$StrTraitMFC_DLL@DV?$ChTraitsCRT@D@ATL@@@@@ATL@@QAE@ABV01@@Z
  00159	8b 4d 08	 mov	 ecx, DWORD PTR _pPacketList$[ebp]
  0015c	ff 15 00 00 00
	00		 call	 DWORD PTR __imp_?GetBaseData@CPacketList@@QAEPAVCPacket@@V?$CStringT@DV?$StrTraitMFC_DLL@DV?$ChTraitsCRT@D@ATL@@@@@ATL@@_N@Z
  00162	8b 75 10	 mov	 esi, DWORD PTR _pPacket$[ebp]

; 850  : 	pSubGraphList->AddTail2( pPacket);

  00165	8b 4d 14	 mov	 ecx, DWORD PTR _pSubGraphList$[ebp]
  00168	50		 push	 eax
  00169	89 06		 mov	 DWORD PTR [esi], eax
  0016b	e8 00 00 00 00	 call	 ?AddTail2@CSubGraphPacketList@@QAEXPAVCPacket@@@Z ; CSubGraphPacketList::AddTail2

; 851  : 	return (pPacket != NULL);

  00170	83 3e 00	 cmp	 DWORD PTR [esi], 0
  00173	8d 4d f0	 lea	 ecx, DWORD PTR _strSubGraphPacketName$[ebp]
  00176	0f 95 c3	 setne	 bl
  00179	ff 15 00 00 00
	00		 call	 DWORD PTR __imp_??1?$CStringT@DV?$StrTraitMFC_DLL@DV?$ChTraitsCRT@D@ATL@@@@@ATL@@QAE@XZ
  0017f	8a c3		 mov	 al, bl

; 852  : }

  00181	8b 4d f4	 mov	 ecx, DWORD PTR __$EHRec$[ebp]
  00184	64 89 0d 00 00
	00 00		 mov	 DWORD PTR fs:0, ecx
  0018b	59		 pop	 ecx
  0018c	5f		 pop	 edi
  0018d	5e		 pop	 esi
  0018e	5b		 pop	 ebx
  0018f	8b e5		 mov	 esp, ebp
  00191	5d		 pop	 ebp
  00192	c2 10 00	 ret	 16			; 00000010H
$LN32@InCaseNoPa:

; 844  : 		return false;

  00195	32 c0		 xor	 al, al

; 852  : }

  00197	8b 4d f4	 mov	 ecx, DWORD PTR __$EHRec$[ebp]
  0019a	64 89 0d 00 00
	00 00		 mov	 DWORD PTR fs:0, ecx
  001a1	59		 pop	 ecx
  001a2	5f		 pop	 edi
  001a3	5e		 pop	 esi
  001a4	5b		 pop	 ebx
  001a5	8b e5		 mov	 esp, ebp
  001a7	5d		 pop	 ebp
  001a8	c2 10 00	 ret	 16			; 00000010H
_TEXT	ENDS
;	COMDAT text$x
text$x	SEGMENT
__unwindfunclet$?InCaseNoPacketPointer@CIndicator@@IAE_NPAVCPacketList@@AAPAVCIndicatorInfo@@AAPAVCPacket@@PAVCSubGraphPacketList@@@Z$0:
  00000	8d 4d f0	 lea	 ecx, DWORD PTR _strSubGraphPacketName$[ebp]
  00003	ff 25 00 00 00
	00		 jmp	 DWORD PTR __imp_??1?$CStringT@DV?$StrTraitMFC_DLL@DV?$ChTraitsCRT@D@ATL@@@@@ATL@@QAE@XZ
__unwindfunclet$?InCaseNoPacketPointer@CIndicator@@IAE_NPAVCPacketList@@AAPAVCIndicatorInfo@@AAPAVCPacket@@PAVCSubGraphPacketList@@@Z$1:
  00009	8d 4d ec	 lea	 ecx, DWORD PTR $T6[ebp]
  0000c	ff 25 00 00 00
	00		 jmp	 DWORD PTR __imp_??1?$CStringT@DV?$StrTraitMFC_DLL@DV?$ChTraitsCRT@D@ATL@@@@@ATL@@QAE@XZ
__unwindfunclet$?InCaseNoPacketPointer@CIndicator@@IAE_NPAVCPacketList@@AAPAVCIndicatorInfo@@AAPAVCPacket@@PAVCSubGraphPacketList@@@Z$2:
  00012	8d 4d 0c	 lea	 ecx, DWORD PTR $T8[ebp]
  00015	ff 25 00 00 00
	00		 jmp	 DWORD PTR __imp_??1?$CStringT@DV?$StrTraitMFC_DLL@DV?$ChTraitsCRT@D@ATL@@@@@ATL@@QAE@XZ
__unwindfunclet$?InCaseNoPacketPointer@CIndicator@@IAE_NPAVCPacketList@@AAPAVCIndicatorInfo@@AAPAVCPacket@@PAVCSubGraphPacketList@@@Z$3:
  0001b	8d 4d e0	 lea	 ecx, DWORD PTR $T2[ebp]
  0001e	ff 25 00 00 00
	00		 jmp	 DWORD PTR __imp_??1?$CStringT@DV?$StrTraitMFC_DLL@DV?$ChTraitsCRT@D@ATL@@@@@ATL@@QAE@XZ
__unwindfunclet$?InCaseNoPacketPointer@CIndicator@@IAE_NPAVCPacketList@@AAPAVCIndicatorInfo@@AAPAVCPacket@@PAVCSubGraphPacketList@@@Z$4:
  00024	8d 4d e4	 lea	 ecx, DWORD PTR $T3[ebp]
  00027	ff 25 00 00 00
	00		 jmp	 DWORD PTR __imp_??1?$CStringT@DV?$StrTraitMFC_DLL@DV?$ChTraitsCRT@D@ATL@@@@@ATL@@QAE@XZ
__unwindfunclet$?InCaseNoPacketPointer@CIndicator@@IAE_NPAVCPacketList@@AAPAVCIndicatorInfo@@AAPAVCPacket@@PAVCSubGraphPacketList@@@Z$8:
  0002d	8b 45 ec	 mov	 eax, DWORD PTR $T5[ebp]
  00030	83 e0 01	 and	 eax, 1
  00033	0f 84 0d 00 00
	00		 je	 $LN22@InCaseNoPa
  00039	83 65 ec fe	 and	 DWORD PTR $T5[ebp], -2	; fffffffeH
  0003d	8d 4d 0c	 lea	 ecx, DWORD PTR $T7[ebp]
  00040	ff 25 00 00 00
	00		 jmp	 DWORD PTR __imp_??1?$CStringT@DV?$StrTraitMFC_DLL@DV?$ChTraitsCRT@D@ATL@@@@@ATL@@QAE@XZ
$LN22@InCaseNoPa:
  00046	c3		 ret	 0
__unwindfunclet$?InCaseNoPacketPointer@CIndicator@@IAE_NPAVCPacketList@@AAPAVCIndicatorInfo@@AAPAVCPacket@@PAVCSubGraphPacketList@@@Z$6:
  00047	8d 4d e8	 lea	 ecx, DWORD PTR $T4[ebp]
  0004a	ff 25 00 00 00
	00		 jmp	 DWORD PTR __imp_??1?$CStringT@DV?$StrTraitMFC_DLL@DV?$ChTraitsCRT@D@ATL@@@@@ATL@@QAE@XZ
  00050	cc		 int	 3
  00051	cc		 int	 3
  00052	cc		 int	 3
  00053	cc		 int	 3
  00054	cc		 int	 3
__ehhandler$?InCaseNoPacketPointer@CIndicator@@IAE_NPAVCPacketList@@AAPAVCIndicatorInfo@@AAPAVCPacket@@PAVCSubGraphPacketList@@@Z:
  00055	90		 npad	 1
  00056	90		 npad	 1
  00057	8b 54 24 08	 mov	 edx, DWORD PTR [esp+8]
  0005b	8d 42 0c	 lea	 eax, DWORD PTR [edx+12]
  0005e	8b 4a dc	 mov	 ecx, DWORD PTR [edx-36]
  00061	33 c8		 xor	 ecx, eax
  00063	e8 00 00 00 00	 call	 @__security_check_cookie@4
  00068	b8 00 00 00 00	 mov	 eax, OFFSET __ehfuncinfo$?InCaseNoPacketPointer@CIndicator@@IAE_NPAVCPacketList@@AAPAVCIndicatorInfo@@AAPAVCPacket@@PAVCSubGraphPacketList@@@Z
  0006d	e9 00 00 00 00	 jmp	 ___CxxFrameHandler3
text$x	ENDS
?InCaseNoPacketPointer@CIndicator@@IAE_NPAVCPacketList@@AAPAVCIndicatorInfo@@AAPAVCPacket@@PAVCSubGraphPacketList@@@Z ENDP ; CIndicator::InCaseNoPacketPointer
; Function compile flags: /Ogtp
; File D:\git\src\IBK\IBK_DRFN\ProjSrc\SrcChartEx\ChartOCX\ChartFormulate\Indicator.cpp
;	COMDAT ?SetPacketTypes@CIndicator@@IAEXPAVCPacket@@ABV?$CStringT@DV?$StrTraitMFC_DLL@DV?$ChTraitsCRT@D@ATL@@@@@ATL@@1H@Z
_TEXT	SEGMENT
_pPacket$ = 8						; size = 4
_strUnit$ = 12						; size = 4
_strType$ = 16						; size = 4
_nStartPeriod$ = 20					; size = 4
?SetPacketTypes@CIndicator@@IAEXPAVCPacket@@ABV?$CStringT@DV?$StrTraitMFC_DLL@DV?$ChTraitsCRT@D@ATL@@@@@ATL@@1H@Z PROC ; CIndicator::SetPacketTypes, COMDAT
; _this$ = ecx

; 828  : {

  00000	55		 push	 ebp
  00001	8b ec		 mov	 ebp, esp

; 829  : 	if(pPacket == NULL)

  00003	8b 4d 08	 mov	 ecx, DWORD PTR _pPacket$[ebp]
  00006	85 c9		 test	 ecx, ecx
  00008	74 11		 je	 SHORT $LN1@SetPacketT

; 830  : 		return;
; 831  : 
; 832  : 	pPacket->SetBaseData(strUnit, strType, nStartPeriod);

  0000a	6a 01		 push	 1
  0000c	ff 75 14	 push	 DWORD PTR _nStartPeriod$[ebp]
  0000f	ff 75 10	 push	 DWORD PTR _strType$[ebp]
  00012	ff 75 0c	 push	 DWORD PTR _strUnit$[ebp]
  00015	ff 15 00 00 00
	00		 call	 DWORD PTR __imp_?SetBaseData@CPacket@@QAEXABV?$CStringT@DV?$StrTraitMFC_DLL@DV?$ChTraitsCRT@D@ATL@@@@@ATL@@0H_N@Z
$LN1@SetPacketT:

; 833  : }

  0001b	5d		 pop	 ebp
  0001c	c2 10 00	 ret	 16			; 00000010H
?SetPacketTypes@CIndicator@@IAEXPAVCPacket@@ABV?$CStringT@DV?$StrTraitMFC_DLL@DV?$ChTraitsCRT@D@ATL@@@@@ATL@@1H@Z ENDP ; CIndicator::SetPacketTypes
_TEXT	ENDS
; Function compile flags: /Ogtp
; File D:\git\src\IBK\IBK_DRFN\ProjSrc\SrcChartEx\ChartOCX\ChartFormulate\Indicator.cpp
;	COMDAT ?SetGraphPacketList@CIndicator@@IAE_NPAVCPacketList@@PAVCGraphCalculateData@@AAPAVCIndicatorInfo@@AAPAVCPacket@@3@Z
_TEXT	SEGMENT
_this$1$ = -4						; size = 4
_pPacketList$ = 8					; size = 4
_posSubGraph$ = 12					; size = 4
_pGraphCalculateData$ = 12				; size = 4
_pIndicatorInfo$ = 16					; size = 4
_pPacket$ = 20						; size = 4
_pPacket1$ = 24						; size = 4
?SetGraphPacketList@CIndicator@@IAE_NPAVCPacketList@@PAVCGraphCalculateData@@AAPAVCIndicatorInfo@@AAPAVCPacket@@3@Z PROC ; CIndicator::SetGraphPacketList, COMDAT
; _this$ = ecx

; 690  : {

  00000	55		 push	 ebp
  00001	8b ec		 mov	 ebp, esp
  00003	51		 push	 ecx
  00004	53		 push	 ebx

; 691  : 	// (2004.02.07, ) NULL Pointer Exception , .
; 692  : 	if( !pGraphCalculateData) return FALSE;

  00005	8b 5d 0c	 mov	 ebx, DWORD PTR _pGraphCalculateData$[ebp]
  00008	89 4d fc	 mov	 DWORD PTR _this$1$[ebp], ecx
  0000b	56		 push	 esi
  0000c	57		 push	 edi
  0000d	85 db		 test	 ebx, ebx
  0000f	74 7f		 je	 SHORT $LN15@SetGraphPa

; 693  : 
; 694  : 	pPacket = pPacket1 = NULL;

  00011	8b 75 18	 mov	 esi, DWORD PTR _pPacket1$[ebp]

; 695  : 	POSITION posSubGraph = pGraphCalculateData->GetHeadPosition();

  00014	8b cb		 mov	 ecx, ebx
  00016	8b 7d 14	 mov	 edi, DWORD PTR _pPacket$[ebp]
  00019	c7 06 00 00 00
	00		 mov	 DWORD PTR [esi], 0
  0001f	c7 07 00 00 00
	00		 mov	 DWORD PTR [edi], 0
  00025	e8 00 00 00 00	 call	 ?GetHeadPosition@CGraphCalculateData@@QAEPAU__POSITION@@XZ ; CGraphCalculateData::GetHeadPosition
  0002a	89 45 0c	 mov	 DWORD PTR _posSubGraph$[ebp], eax

; 696  : 	while(posSubGraph)

  0002d	85 c0		 test	 eax, eax
  0002f	74 30		 je	 SHORT $LN3@SetGraphPa
$LL2@SetGraphPa:

; 697  : 	{
; 698  : 		CSubGraphPacketList* pSubGraphList = pGraphCalculateData->GetNext(posSubGraph);

  00031	8d 45 0c	 lea	 eax, DWORD PTR _posSubGraph$[ebp]
  00034	8b cb		 mov	 ecx, ebx
  00036	50		 push	 eax
  00037	e8 00 00 00 00	 call	 ?GetNext@CGraphCalculateData@@QAEPAVCSubGraphPacketList@@AAPAU__POSITION@@@Z ; CGraphCalculateData::GetNext

; 699  : 		if(pSubGraphList == NULL)

  0003c	85 c0		 test	 eax, eax
  0003e	74 50		 je	 SHORT $LN15@SetGraphPa

; 700  : 			return false;
; 701  : 
; 702  : 		CPacket* pIndiPacket = pSubGraphList->GetHeadPacket();

  00040	8b c8		 mov	 ecx, eax
  00042	e8 00 00 00 00	 call	 ?GetHeadPacket@CSubGraphPacketList@@QAEPAVCPacket@@XZ ; CSubGraphPacketList::GetHeadPacket

; 703  : 		if(pIndiPacket == NULL) 

  00047	85 c0		 test	 eax, eax
  00049	74 2b		 je	 SHORT $LN16@SetGraphPa

; 705  : 										 pPacket1, pGraphCalculateData);
; 706  : 		else
; 707  : 		{
; 708  : 			if(pPacket == NULL)

  0004b	83 3f 00	 cmp	 DWORD PTR [edi], 0
  0004e	75 04		 jne	 SHORT $LN8@SetGraphPa

; 709  : 				pPacket = pIndiPacket;

  00050	89 07		 mov	 DWORD PTR [edi], eax
  00052	eb 07		 jmp	 SHORT $LN10@SetGraphPa
$LN8@SetGraphPa:

; 710  : 			else if(pPacket != NULL && pPacket1 == NULL)	

  00054	83 3e 00	 cmp	 DWORD PTR [esi], 0
  00057	75 02		 jne	 SHORT $LN10@SetGraphPa

; 711  : 				pPacket1 = pIndiPacket;

  00059	89 06		 mov	 DWORD PTR [esi], eax
$LN10@SetGraphPa:

; 696  : 	while(posSubGraph)

  0005b	83 7d 0c 00	 cmp	 DWORD PTR _posSubGraph$[ebp], 0
  0005f	75 d0		 jne	 SHORT $LL2@SetGraphPa
$LN3@SetGraphPa:

; 712  : 		}
; 713  : 	}
; 714  : 	return (pPacket != NULL || pPacket1 != NULL);

  00061	83 3f 00	 cmp	 DWORD PTR [edi], 0
  00064	75 05		 jne	 SHORT $LN12@SetGraphPa
  00066	83 3e 00	 cmp	 DWORD PTR [esi], 0
  00069	74 25		 je	 SHORT $LN15@SetGraphPa
$LN12@SetGraphPa:
  0006b	5f		 pop	 edi

; 715  : }

  0006c	5e		 pop	 esi
  0006d	b0 01		 mov	 al, 1
  0006f	5b		 pop	 ebx
  00070	8b e5		 mov	 esp, ebp
  00072	5d		 pop	 ebp
  00073	c2 14 00	 ret	 20			; 00000014H
$LN16@SetGraphPa:

; 704  : 			return InCaseNoPacketPointer(pPacketList, pIndicatorInfo, pPacket,

  00076	8b 4d fc	 mov	 ecx, DWORD PTR _this$1$[ebp]
  00079	53		 push	 ebx
  0007a	56		 push	 esi
  0007b	57		 push	 edi
  0007c	ff 75 10	 push	 DWORD PTR _pIndicatorInfo$[ebp]
  0007f	ff 75 08	 push	 DWORD PTR _pPacketList$[ebp]
  00082	e8 00 00 00 00	 call	 ?InCaseNoPacketPointer@CIndicator@@IAE_NPAVCPacketList@@AAPAVCIndicatorInfo@@AAPAVCPacket@@2PAVCGraphCalculateData@@@Z ; CIndicator::InCaseNoPacketPointer
  00087	5f		 pop	 edi

; 715  : }

  00088	5e		 pop	 esi
  00089	5b		 pop	 ebx
  0008a	8b e5		 mov	 esp, ebp
  0008c	5d		 pop	 ebp
  0008d	c2 14 00	 ret	 20			; 00000014H
$LN15@SetGraphPa:
  00090	5f		 pop	 edi
  00091	5e		 pop	 esi
  00092	32 c0		 xor	 al, al
  00094	5b		 pop	 ebx
  00095	8b e5		 mov	 esp, ebp
  00097	5d		 pop	 ebp
  00098	c2 14 00	 ret	 20			; 00000014H
?SetGraphPacketList@CIndicator@@IAE_NPAVCPacketList@@PAVCGraphCalculateData@@AAPAVCIndicatorInfo@@AAPAVCPacket@@3@Z ENDP ; CIndicator::SetGraphPacketList
_TEXT	ENDS
; Function compile flags: /Ogtp
; File D:\git\src\IBK\IBK_DRFN\ProjSrc\SrcChartEx\ChartOCX\ChartFormulate\Indicator.cpp
;	COMDAT ?SetGraphPacketList@CIndicator@@IAE_NPAVCPacketList@@PAVCGraphCalculateData@@AAPAVCIndicatorInfo@@AAPAVCPacket@@@Z
_TEXT	SEGMENT
_this$1$ = -4						; size = 4
_pPacketList$ = 8					; size = 4
_posSubGraph$ = 12					; size = 4
_pGraphCalculateData$ = 12				; size = 4
_pIndicatorInfo$ = 16					; size = 4
_pPacket$ = 20						; size = 4
?SetGraphPacketList@CIndicator@@IAE_NPAVCPacketList@@PAVCGraphCalculateData@@AAPAVCIndicatorInfo@@AAPAVCPacket@@@Z PROC ; CIndicator::SetGraphPacketList, COMDAT
; _this$ = ecx

; 661  : {

  00000	55		 push	 ebp
  00001	8b ec		 mov	 ebp, esp
  00003	51		 push	 ecx
  00004	53		 push	 ebx

; 662  : 	// (2004.02.07, ) NULL Pointer Exception , .
; 663  : 	if( !pGraphCalculateData) return FALSE;

  00005	8b 5d 0c	 mov	 ebx, DWORD PTR _pGraphCalculateData$[ebp]
  00008	89 4d fc	 mov	 DWORD PTR _this$1$[ebp], ecx
  0000b	56		 push	 esi
  0000c	57		 push	 edi
  0000d	85 db		 test	 ebx, ebx
  0000f	74 68		 je	 SHORT $LN11@SetGraphPa

; 664  : 
; 665  : 	pPacket = NULL;

  00011	8b 75 14	 mov	 esi, DWORD PTR _pPacket$[ebp]

; 666  : 	POSITION posSubGraph = pGraphCalculateData->GetHeadPosition();

  00014	8b cb		 mov	 ecx, ebx
  00016	c7 06 00 00 00
	00		 mov	 DWORD PTR [esi], 0
  0001c	e8 00 00 00 00	 call	 ?GetHeadPosition@CGraphCalculateData@@QAEPAU__POSITION@@XZ ; CGraphCalculateData::GetHeadPosition
  00021	89 45 0c	 mov	 DWORD PTR _posSubGraph$[ebp], eax

; 667  : 	while(posSubGraph)

  00024	85 c0		 test	 eax, eax
  00026	74 29		 je	 SHORT $LN18@SetGraphPa
$LL2@SetGraphPa:

; 668  : 	{
; 669  : 		CSubGraphPacketList* pSubGraphList = pGraphCalculateData->GetNext(posSubGraph);

  00028	8d 45 0c	 lea	 eax, DWORD PTR _posSubGraph$[ebp]
  0002b	8b cb		 mov	 ecx, ebx
  0002d	50		 push	 eax
  0002e	e8 00 00 00 00	 call	 ?GetNext@CGraphCalculateData@@QAEPAVCSubGraphPacketList@@AAPAU__POSITION@@@Z ; CGraphCalculateData::GetNext
  00033	8b f8		 mov	 edi, eax

; 670  : 		if(pSubGraphList == NULL)

  00035	85 ff		 test	 edi, edi
  00037	74 40		 je	 SHORT $LN11@SetGraphPa

; 671  : 			return false;
; 672  : 
; 673  : 		CPacket* pIndiPacket = pSubGraphList->GetHeadPacket();

  00039	8b cf		 mov	 ecx, edi
  0003b	e8 00 00 00 00	 call	 ?GetHeadPacket@CSubGraphPacketList@@QAEPAVCPacket@@XZ ; CSubGraphPacketList::GetHeadPacket

; 674  : 		if(pIndiPacket == NULL) 

  00040	85 c0		 test	 eax, eax
  00042	74 1c		 je	 SHORT $LN12@SetGraphPa

; 676  : 			                             pSubGraphList);
; 677  : 		else
; 678  : 		{
; 679  : 			if(pPacket == NULL)

  00044	83 3e 00	 cmp	 DWORD PTR [esi], 0
  00047	75 02		 jne	 SHORT $LN17@SetGraphPa

; 680  : 				pPacket = pIndiPacket;

  00049	89 06		 mov	 DWORD PTR [esi], eax
$LN17@SetGraphPa:

; 667  : 	while(posSubGraph)

  0004b	83 7d 0c 00	 cmp	 DWORD PTR _posSubGraph$[ebp], 0
  0004f	75 d7		 jne	 SHORT $LL2@SetGraphPa
$LN18@SetGraphPa:

; 681  : 		}
; 682  : 	}
; 683  : 	return (pPacket != NULL);

  00051	83 3e 00	 cmp	 DWORD PTR [esi], 0
  00054	5f		 pop	 edi

; 684  : }

  00055	5e		 pop	 esi
  00056	0f 95 c0	 setne	 al
  00059	5b		 pop	 ebx
  0005a	8b e5		 mov	 esp, ebp
  0005c	5d		 pop	 ebp
  0005d	c2 10 00	 ret	 16			; 00000010H
$LN12@SetGraphPa:

; 675  : 			return InCaseNoPacketPointer(pPacketList, pIndicatorInfo, pPacket, 

  00060	8b 4d fc	 mov	 ecx, DWORD PTR _this$1$[ebp]
  00063	57		 push	 edi
  00064	56		 push	 esi
  00065	ff 75 10	 push	 DWORD PTR _pIndicatorInfo$[ebp]
  00068	ff 75 08	 push	 DWORD PTR _pPacketList$[ebp]
  0006b	e8 00 00 00 00	 call	 ?InCaseNoPacketPointer@CIndicator@@IAE_NPAVCPacketList@@AAPAVCIndicatorInfo@@AAPAVCPacket@@PAVCSubGraphPacketList@@@Z ; CIndicator::InCaseNoPacketPointer
  00070	5f		 pop	 edi

; 684  : }

  00071	5e		 pop	 esi
  00072	5b		 pop	 ebx
  00073	8b e5		 mov	 esp, ebp
  00075	5d		 pop	 ebp
  00076	c2 10 00	 ret	 16			; 00000010H
$LN11@SetGraphPa:
  00079	5f		 pop	 edi
  0007a	5e		 pop	 esi
  0007b	32 c0		 xor	 al, al
  0007d	5b		 pop	 ebx
  0007e	8b e5		 mov	 esp, ebp
  00080	5d		 pop	 ebp
  00081	c2 10 00	 ret	 16			; 00000010H
?SetGraphPacketList@CIndicator@@IAE_NPAVCPacketList@@PAVCGraphCalculateData@@AAPAVCIndicatorInfo@@AAPAVCPacket@@@Z ENDP ; CIndicator::SetGraphPacketList
_TEXT	ENDS
; Function compile flags: /Ogtp
; File D:\git\src\IBK\IBK_DRFN\ProjSrc\SrcChartEx\ChartOCX\ChartFormulate\Indicator.cpp
;	COMDAT ?SetData@CIndicator@@IAEXABVCPoint@@HABV?$CStringT@DV?$StrTraitMFC_DLL@DV?$ChTraitsCRT@D@ATL@@@@@ATL@@PAVCPacket@@@Z
_TEXT	SEGMENT
_point$ = 8						; size = 4
_nUpdateIndex$ = 12					; size = 4
_strData$ = 16						; size = 4
_pPacket$ = 20						; size = 4
?SetData@CIndicator@@IAEXABVCPoint@@HABV?$CStringT@DV?$StrTraitMFC_DLL@DV?$ChTraitsCRT@D@ATL@@@@@ATL@@PAVCPacket@@@Z PROC ; CIndicator::SetData, COMDAT
; _this$ = ecx

; 82   : {

  00000	55		 push	 ebp
  00001	8b ec		 mov	 ebp, esp

; 83   : 	// (2004.02.07, ) NULL Pointer Exception , .
; 84   : 	if( !pPacket) return;

  00003	8b 4d 14	 mov	 ecx, DWORD PTR _pPacket$[ebp]
  00006	85 c9		 test	 ecx, ecx
  00008	74 23		 je	 SHORT $LN4@SetData

; 85   : 
; 86   : 	if(point.x == 0)

  0000a	8b 45 08	 mov	 eax, DWORD PTR _point$[ebp]
  0000d	83 38 00	 cmp	 DWORD PTR [eax], 0
  00010	75 0d		 jne	 SHORT $LN3@SetData

; 87   : 		pPacket->AppendData(strData);

  00012	ff 75 10	 push	 DWORD PTR _strData$[ebp]
  00015	ff 15 00 00 00
	00		 call	 DWORD PTR __imp_?AppendData@CPacket@@QAEXABV?$CStringT@DV?$StrTraitMFC_DLL@DV?$ChTraitsCRT@D@ATL@@@@@ATL@@@Z

; 90   : }

  0001b	5d		 pop	 ebp
  0001c	c2 10 00	 ret	 16			; 00000010H
$LN3@SetData:

; 88   : 	else
; 89   : 		pPacket->UpdateData(strData, nUpdateIndex, false);

  0001f	6a 00		 push	 0
  00021	ff 75 0c	 push	 DWORD PTR _nUpdateIndex$[ebp]
  00024	ff 75 10	 push	 DWORD PTR _strData$[ebp]
  00027	ff 15 00 00 00
	00		 call	 DWORD PTR __imp_?UpdateData@CPacket@@QAEXABV?$CStringT@DV?$StrTraitMFC_DLL@DV?$ChTraitsCRT@D@ATL@@@@@ATL@@H_N@Z
$LN4@SetData:

; 90   : }

  0002d	5d		 pop	 ebp
  0002e	c2 10 00	 ret	 16			; 00000010H
?SetData@CIndicator@@IAEXABVCPoint@@HABV?$CStringT@DV?$StrTraitMFC_DLL@DV?$ChTraitsCRT@D@ATL@@@@@ATL@@PAVCPacket@@@Z ENDP ; CIndicator::SetData
_TEXT	ENDS
; Function compile flags: /Ogtp
; File D:\git\src\IBK\IBK_DRFN\ProjSrc\SrcChartEx\ChartOCX\ChartFormulate\Indicator.cpp
;	COMDAT ?SetData@CIndicator@@IAEXABVCPoint@@HNPAVCPacket@@@Z
_TEXT	SEGMENT
_point$ = 8						; size = 4
_nUpdateIndex$ = 12					; size = 4
_dData$ = 16						; size = 8
_pPacket$ = 24						; size = 4
?SetData@CIndicator@@IAEXABVCPoint@@HNPAVCPacket@@@Z PROC ; CIndicator::SetData, COMDAT
; _this$ = ecx

; 94   : {

  00000	55		 push	 ebp
  00001	8b ec		 mov	 ebp, esp

; 95   : 	// (2004.02.07, ) NULL Pointer Exception , .
; 96   : 	if( !pPacket) return;

  00003	8b 4d 18	 mov	 ecx, DWORD PTR _pPacket$[ebp]
  00006	85 c9		 test	 ecx, ecx
  00008	74 34		 je	 SHORT $LN4@SetData

; 97   : 
; 98   : 	if(point.x == 0)

  0000a	8b 45 08	 mov	 eax, DWORD PTR _point$[ebp]
  0000d	f2 0f 10 45 10	 movsd	 xmm0, QWORD PTR _dData$[ebp]
  00012	83 38 00	 cmp	 DWORD PTR [eax], 0
  00015	75 14		 jne	 SHORT $LN3@SetData

; 99   : 		pPacket->AppendData(dData);

  00017	6a ff		 push	 -1
  00019	83 ec 08	 sub	 esp, 8
  0001c	f2 0f 11 04 24	 movsd	 QWORD PTR [esp], xmm0
  00021	ff 15 00 00 00
	00		 call	 DWORD PTR __imp_?AppendData@CPacket@@QAEXNH@Z

; 102  : }

  00027	5d		 pop	 ebp
  00028	c2 14 00	 ret	 20			; 00000014H
$LN3@SetData:

; 100  : 	else
; 101  : 		pPacket->UpdateData(dData, nUpdateIndex, false);

  0002b	6a 00		 push	 0
  0002d	ff 75 0c	 push	 DWORD PTR _nUpdateIndex$[ebp]
  00030	83 ec 08	 sub	 esp, 8
  00033	f2 0f 11 04 24	 movsd	 QWORD PTR [esp], xmm0
  00038	ff 15 00 00 00
	00		 call	 DWORD PTR __imp_?UpdateData@CPacket@@QAEXNH_N@Z
$LN4@SetData:

; 102  : }

  0003e	5d		 pop	 ebp
  0003f	c2 14 00	 ret	 20			; 00000014H
?SetData@CIndicator@@IAEXABVCPoint@@HNPAVCPacket@@@Z ENDP ; CIndicator::SetData
_TEXT	ENDS
; Function compile flags: /Ogtp
; File D:\git\src\IBK\IBK_DRFN\ProjSrc\SrcChartEx\ChartOCX\ChartFormulate\Indicator.cpp
;	COMDAT ?SetData@CIndicator@@IAEXABVCPoint@@HNPAV?$CList@NN@@@Z
_TEXT	SEGMENT
_point$ = 8						; size = 4
_nUpdateIndex$ = 12					; size = 4
_dData$ = 16						; size = 8
_pData$ = 24						; size = 4
?SetData@CIndicator@@IAEXABVCPoint@@HNPAV?$CList@NN@@@Z PROC ; CIndicator::SetData, COMDAT
; _this$ = ecx

; 65   : {

  00000	55		 push	 ebp
  00001	8b ec		 mov	 ebp, esp
  00003	56		 push	 esi

; 66   : 	// (2004.02.07, ) NULL Pointer Exception , .
; 67   : 	if( !pData) return;

  00004	8b 75 18	 mov	 esi, DWORD PTR _pData$[ebp]
  00007	85 f6		 test	 esi, esi
  00009	74 38		 je	 SHORT $LN6@SetData

; 68   : 
; 69   : 	if(point.x == 0)

  0000b	8b 45 08	 mov	 eax, DWORD PTR _point$[ebp]
  0000e	83 38 00	 cmp	 DWORD PTR [eax], 0
  00011	74 1c		 je	 SHORT $LN8@SetData

; 70   : 		pData->AddTail(dData);
; 71   : 	else
; 72   : 	{
; 73   : 		POSITION pos = FindPosition(nUpdateIndex, *pData);

  00013	56		 push	 esi
  00014	ff 75 0c	 push	 DWORD PTR _nUpdateIndex$[ebp]
  00017	e8 00 00 00 00	 call	 ?FindPosition@CIndicator@@IBEPAU__POSITION@@HABV?$CList@NN@@@Z ; CIndicator::FindPosition

; 74   : 	 	if(!pos)

  0001c	85 c0		 test	 eax, eax
  0001e	74 0f		 je	 SHORT $LN8@SetData

; 76   : 		else
; 77   : 			pData->SetAt(pos, dData);

  00020	f2 0f 10 45 10	 movsd	 xmm0, QWORD PTR _dData$[ebp]
  00025	f2 0f 11 40 08	 movsd	 QWORD PTR [eax+8], xmm0
  0002a	5e		 pop	 esi

; 78   : 	}
; 79   : }

  0002b	5d		 pop	 ebp
  0002c	c2 14 00	 ret	 20			; 00000014H
$LN8@SetData:

; 75   : 			pData->AddTail(dData);

  0002f	f2 0f 10 45 10	 movsd	 xmm0, QWORD PTR _dData$[ebp]
  00034	83 ec 08	 sub	 esp, 8
  00037	8b ce		 mov	 ecx, esi
  00039	f2 0f 11 04 24	 movsd	 QWORD PTR [esp], xmm0
  0003e	e8 00 00 00 00	 call	 ?AddTail@?$CList@NN@@QAEPAU__POSITION@@N@Z ; CList<double,double>::AddTail
$LN6@SetData:
  00043	5e		 pop	 esi

; 78   : 	}
; 79   : }

  00044	5d		 pop	 ebp
  00045	c2 14 00	 ret	 20			; 00000014H
?SetData@CIndicator@@IAEXABVCPoint@@HNPAV?$CList@NN@@@Z ENDP ; CIndicator::SetData
_TEXT	ENDS
; Function compile flags: /Ogtp
; File D:\git\src\IBK\IBK_DRFN\ProjSrc\SrcChartEx\ChartOCX\ChartFormulate\Indicator.cpp
;	COMDAT ?ClearPacketData@CIndicator@@IAE_NPAVCPacket@@@Z
_TEXT	SEGMENT
_pPacket$ = 8						; size = 4
?ClearPacketData@CIndicator@@IAE_NPAVCPacket@@@Z PROC	; CIndicator::ClearPacketData, COMDAT
; _this$ = ecx

; 110  : {

  00000	55		 push	 ebp
  00001	8b ec		 mov	 ebp, esp
  00003	56		 push	 esi

; 111  : 	// (2004.02.07, ) NULL Pointer Exception , .
; 112  : 	if( !pPacket) return FALSE;

  00004	8b 75 08	 mov	 esi, DWORD PTR _pPacket$[ebp]
  00007	85 f6		 test	 esi, esi
  00009	74 1f		 je	 SHORT $LN5@ClearPacke

; 113  : 
; 114  : 	if( pPacket->GetCount() <= 0) return false;

  0000b	8b 06		 mov	 eax, DWORD PTR [esi]
  0000d	8b ce		 mov	 ecx, esi
  0000f	ff 50 14	 call	 DWORD PTR [eax+20]
  00012	85 c0		 test	 eax, eax
  00014	7e 14		 jle	 SHORT $LN5@ClearPacke

; 115  : 
; 116  : 	return (pPacket->ClearData() == 1 ? true: false);

  00016	8b 06		 mov	 eax, DWORD PTR [esi]
  00018	8b ce		 mov	 ecx, esi
  0001a	6a 00		 push	 0
  0001c	ff 50 18	 call	 DWORD PTR [eax+24]
  0001f	83 f8 01	 cmp	 eax, 1
  00022	5e		 pop	 esi
  00023	0f 94 c0	 sete	 al

; 117  : }

  00026	5d		 pop	 ebp
  00027	c2 04 00	 ret	 4
$LN5@ClearPacke:

; 113  : 
; 114  : 	if( pPacket->GetCount() <= 0) return false;

  0002a	32 c0		 xor	 al, al
  0002c	5e		 pop	 esi

; 117  : }

  0002d	5d		 pop	 ebp
  0002e	c2 04 00	 ret	 4
?ClearPacketData@CIndicator@@IAE_NPAVCPacket@@@Z ENDP	; CIndicator::ClearPacketData
_TEXT	ENDS
; Function compile flags: /Ogtp
; File D:\git\src\IBK\IBK_DRFN\ProjSrc\SrcChartEx\ChartOCX\ChartFormulate\Indicator.cpp
; File C:\Program Files (x86)\Microsoft Visual Studio\2019\Community\VC\Tools\MSVC\14.29.30133\atlmfc\include\afxtempl.h
; File D:\git\src\IBK\IBK_DRFN\ProjSrc\SrcChartEx\ChartOCX\ChartFormulate\Indicator.cpp
; File C:\Program Files (x86)\Microsoft Visual Studio\2019\Community\VC\Tools\MSVC\14.29.30133\atlmfc\include\afxtempl.h
; File D:\git\src\IBK\IBK_DRFN\ProjSrc\SrcChartEx\ChartOCX\ChartFormulate\Indicator.cpp
;	COMDAT ?MakePacket_HighLow@CIndicator@@IAEPAVCPacket@@PAVCPacketList@@W4CALCULATETYPE@CCalculateBaseData@@ABVCPoint@@@Z
_TEXT	SEGMENT
_this$1$ = -8						; size = 4
_pLowList$1$ = -4					; size = 4
_pHighList$1$ = 8					; size = 4
_pPacketList$ = 8					; size = 4
_eCalType$ = 12						; size = 4
_lowpos$1$ = 16						; size = 4
_point$ = 16						; size = 4
?MakePacket_HighLow@CIndicator@@IAEPAVCPacket@@PAVCPacketList@@W4CALCULATETYPE@CCalculateBaseData@@ABVCPoint@@@Z PROC ; CIndicator::MakePacket_HighLow, COMDAT
; _this$ = ecx

; 167  : {

  00000	55		 push	 ebp
  00001	8b ec		 mov	 ebp, esp
  00003	83 ec 08	 sub	 esp, 8
  00006	53		 push	 ebx
  00007	56		 push	 esi
  00008	57		 push	 edi

; 168  : 	// (2004.02.07, ) NULL Pointer Exception , .
; 169  : 	if(!pPacketList) return NULL;

  00009	8b 7d 08	 mov	 edi, DWORD PTR _pPacketList$[ebp]
  0000c	89 4d f8	 mov	 DWORD PTR _this$1$[ebp], ecx
  0000f	85 ff		 test	 edi, edi
  00011	0f 84 6e 01 00
	00		 je	 $LN9@MakePacket

; 170  : 
; 171  : 	CPacket* newpacket = pPacketList->GetBaseData( _MTEXT( C0_COMBINE_HIGH_LOW), false);

  00017	a1 54 00 00 00	 mov	 eax, DWORD PTR ?g_iMetaTable@@3VIMetaTable@@A+84
  0001c	6a 00		 push	 0
  0001e	51		 push	 ecx
  0001f	8b cc		 mov	 ecx, esp
  00021	ff b0 9c 00 00
	00		 push	 DWORD PTR [eax+156]
  00027	ff 15 00 00 00
	00		 call	 DWORD PTR __imp_??0?$CStringT@DV?$StrTraitMFC_DLL@DV?$ChTraitsCRT@D@ATL@@@@@ATL@@QAE@PBD@Z
  0002d	8b cf		 mov	 ecx, edi
  0002f	ff 15 00 00 00
	00		 call	 DWORD PTR __imp_?GetBaseData@CPacketList@@QAEPAVCPacket@@V?$CStringT@DV?$StrTraitMFC_DLL@DV?$ChTraitsCRT@D@ATL@@@@@ATL@@_N@Z
  00035	8b d8		 mov	 ebx, eax

; 172  : 	if(!newpacket) return NULL;

  00037	85 db		 test	 ebx, ebx
  00039	0f 84 46 01 00
	00		 je	 $LN9@MakePacket

; 173  : 
; 174  : 	//        
; 175  : 	//   .
; 176  : 	if(eCalType != CCalculateBaseData::REALDATA_CAL && 
; 177  : 		newpacket->GetCount() != NULL && (pPacketList->GetMaxCount() == newpacket->GetCount()))

  0003f	83 7d 0c 01	 cmp	 DWORD PTR _eCalType$[ebp], 1
  00043	74 24		 je	 SHORT $LN7@MakePacket
  00045	8b 03		 mov	 eax, DWORD PTR [ebx]
  00047	8b cb		 mov	 ecx, ebx
  00049	ff 50 14	 call	 DWORD PTR [eax+20]
  0004c	85 c0		 test	 eax, eax
  0004e	74 19		 je	 SHORT $LN7@MakePacket
  00050	8b 13		 mov	 edx, DWORD PTR [ebx]
  00052	8b cb		 mov	 ecx, ebx
  00054	ff 52 14	 call	 DWORD PTR [edx+20]
  00057	8b cf		 mov	 ecx, edi
  00059	8b f0		 mov	 esi, eax
  0005b	ff 15 00 00 00
	00		 call	 DWORD PTR __imp_?GetMaxCount@CPacketList@@QAEHXZ
  00061	3b c6		 cmp	 eax, esi
  00063	0f 84 11 01 00
	00		 je	 $LN3@MakePacket
$LN7@MakePacket:

; 178  : 		return newpacket;
; 179  : 
; 180  : 	CList<double, double>* pHighList = GetnumericDataList(pPacketList->GetBaseData( _MTEXT( C0_HIGH)));

  00069	a1 54 00 00 00	 mov	 eax, DWORD PTR ?g_iMetaTable@@3VIMetaTable@@A+84
  0006e	6a 01		 push	 1
  00070	51		 push	 ecx
  00071	8b cc		 mov	 ecx, esp
  00073	ff 70 0c	 push	 DWORD PTR [eax+12]
  00076	ff 15 00 00 00
	00		 call	 DWORD PTR __imp_??0?$CStringT@DV?$StrTraitMFC_DLL@DV?$ChTraitsCRT@D@ATL@@@@@ATL@@QAE@PBD@Z
  0007c	8b cf		 mov	 ecx, edi
  0007e	ff 15 00 00 00
	00		 call	 DWORD PTR __imp_?GetBaseData@CPacketList@@QAEPAVCPacket@@V?$CStringT@DV?$StrTraitMFC_DLL@DV?$ChTraitsCRT@D@ATL@@@@@ATL@@_N@Z

; 445  : 	if(pPacket == NULL)

  00084	8b 35 00 00 00
	00		 mov	 esi, DWORD PTR __imp_?GetnumericDataList@CPacket@@QAEPAV?$CList@NN@@XZ
  0008a	85 c0		 test	 eax, eax
  0008c	75 09		 jne	 SHORT $LN19@MakePacket

; 446  : 		return NULL;

  0008e	c7 45 08 00 00
	00 00		 mov	 DWORD PTR _pHighList$1$[ebp], 0
  00095	eb 07		 jmp	 SHORT $LN18@MakePacket
$LN19@MakePacket:

; 447  : 
; 448  : 	return pPacket->GetnumericDataList();

  00097	8b c8		 mov	 ecx, eax
  00099	ff d6		 call	 esi
  0009b	89 45 08	 mov	 DWORD PTR _pHighList$1$[ebp], eax
$LN18@MakePacket:

; 181  : 	CList<double, double>* pLowList = GetnumericDataList(pPacketList->GetBaseData( _MTEXT( C0_LOW)));

  0009e	8b 15 54 00 00
	00		 mov	 edx, DWORD PTR ?g_iMetaTable@@3VIMetaTable@@A+84
  000a4	6a 01		 push	 1
  000a6	51		 push	 ecx
  000a7	8b cc		 mov	 ecx, esp
  000a9	ff 72 10	 push	 DWORD PTR [edx+16]
  000ac	ff 15 00 00 00
	00		 call	 DWORD PTR __imp_??0?$CStringT@DV?$StrTraitMFC_DLL@DV?$ChTraitsCRT@D@ATL@@@@@ATL@@QAE@PBD@Z
  000b2	8b cf		 mov	 ecx, edi
  000b4	ff 15 00 00 00
	00		 call	 DWORD PTR __imp_?GetBaseData@CPacketList@@QAEPAVCPacket@@V?$CStringT@DV?$StrTraitMFC_DLL@DV?$ChTraitsCRT@D@ATL@@@@@ATL@@_N@Z

; 445  : 	if(pPacket == NULL)

  000ba	85 c0		 test	 eax, eax
  000bc	74 04		 je	 SHORT $LN40@MakePacket
$LN22@MakePacket:

; 447  : 
; 448  : 	return pPacket->GetnumericDataList();

  000be	8b c8		 mov	 ecx, eax
  000c0	ff d6		 call	 esi
$LN40@MakePacket:

; 182  : 	// (2004.02.07, ) NULL Pointer Exception , .
; 183  : 	if(!pHighList || !pLowList) return NULL;

  000c2	8b 55 08	 mov	 edx, DWORD PTR _pHighList$1$[ebp]
  000c5	89 45 fc	 mov	 DWORD PTR _pLowList$1$[ebp], eax
  000c8	85 d2		 test	 edx, edx
  000ca	0f 84 b5 00 00
	00		 je	 $LN9@MakePacket
  000d0	85 c0		 test	 eax, eax
  000d2	0f 84 ad 00 00
	00		 je	 $LN9@MakePacket

; 184  : 
; 185  : 	POSITION highpos = FindPosition(point.x, *pHighList);

  000d8	8b 4d 10	 mov	 ecx, DWORD PTR _point$[ebp]
  000db	52		 push	 edx
  000dc	8b 31		 mov	 esi, DWORD PTR [ecx]
  000de	8b 4d f8	 mov	 ecx, DWORD PTR _this$1$[ebp]
  000e1	56		 push	 esi
  000e2	e8 00 00 00 00	 call	 ?FindPosition@CIndicator@@IBEPAU__POSITION@@HABV?$CList@NN@@@Z ; CIndicator::FindPosition

; 186  : 	POSITION lowpos = FindPosition(point.x, *pLowList);

  000e7	ff 75 fc	 push	 DWORD PTR _pLowList$1$[ebp]
  000ea	8b 4d f8	 mov	 ecx, DWORD PTR _this$1$[ebp]
  000ed	8b f8		 mov	 edi, eax
  000ef	56		 push	 esi
  000f0	e8 00 00 00 00	 call	 ?FindPosition@CIndicator@@IBEPAU__POSITION@@HABV?$CList@NN@@@Z ; CIndicator::FindPosition
  000f5	8b c8		 mov	 ecx, eax
  000f7	89 4d 10	 mov	 DWORD PTR _lowpos$1$[ebp], ecx

; 187  : 	if(highpos == NULL || lowpos == NULL)

  000fa	85 ff		 test	 edi, edi
  000fc	0f 84 83 00 00
	00		 je	 $LN9@MakePacket
  00102	85 c9		 test	 ecx, ecx
  00104	74 7f		 je	 SHORT $LN9@MakePacket

; 188  : 		return NULL;
; 189  : 
; 190  : 	for(int i = point.x ; i < pHighList->GetCount() ; i++)

  00106	8b 45 08	 mov	 eax, DWORD PTR _pHighList$1$[ebp]
  00109	3b 70 0c	 cmp	 esi, DWORD PTR [eax+12]
  0010c	7d 6c		 jge	 SHORT $LN3@MakePacket
  0010e	66 90		 npad	 2
$LL4@MakePacket:

; 340  : 	if(pSourceList == NULL || pos == NULL) 

  00110	85 ff		 test	 edi, edi
  00112	74 0b		 je	 SHORT $LN26@MakePacket
; File C:\Program Files (x86)\Microsoft Visual Studio\2019\Community\VC\Tools\MSVC\14.29.30133\atlmfc\include\afxtempl.h

; 817  : 	{ CNode* pNode = (CNode*) rPosition;

  00114	8b c7		 mov	 eax, edi

; 818  : 		ASSERT(AfxIsValidAddress(pNode, sizeof(CNode)));
; 819  : 		rPosition = (POSITION) pNode->pNext;

  00116	8b 3f		 mov	 edi, DWORD PTR [edi]
; File D:\git\src\IBK\IBK_DRFN\ProjSrc\SrcChartEx\ChartOCX\ChartFormulate\Indicator.cpp

; 343  : 	return pSourceList->GetNext(pos);

  00118	f2 0f 10 48 08	 movsd	 xmm1, QWORD PTR [eax+8]
  0011d	eb 03		 jmp	 SHORT $LN24@MakePacket
$LN26@MakePacket:
  0011f	0f 57 c9	 xorps	 xmm1, xmm1
$LN24@MakePacket:

; 340  : 	if(pSourceList == NULL || pos == NULL) 

  00122	85 c9		 test	 ecx, ecx
  00124	74 0e		 je	 SHORT $LN32@MakePacket
; File C:\Program Files (x86)\Microsoft Visual Studio\2019\Community\VC\Tools\MSVC\14.29.30133\atlmfc\include\afxtempl.h

; 817  : 	{ CNode* pNode = (CNode*) rPosition;

  00126	8b c1		 mov	 eax, ecx

; 818  : 		ASSERT(AfxIsValidAddress(pNode, sizeof(CNode)));
; 819  : 		rPosition = (POSITION) pNode->pNext;

  00128	8b 09		 mov	 ecx, DWORD PTR [ecx]
  0012a	89 4d 10	 mov	 DWORD PTR _lowpos$1$[ebp], ecx
; File D:\git\src\IBK\IBK_DRFN\ProjSrc\SrcChartEx\ChartOCX\ChartFormulate\Indicator.cpp

; 343  : 	return pSourceList->GetNext(pos);

  0012d	f2 0f 10 40 08	 movsd	 xmm0, QWORD PTR [eax+8]
  00132	eb 03		 jmp	 SHORT $LN30@MakePacket
$LN32@MakePacket:
  00134	0f 57 c0	 xorps	 xmm0, xmm0
$LN30@MakePacket:

; 191  : 	{
; 192  : 		double high = GetNext(pHighList, highpos);
; 193  : 		double low = GetNext(pLowList, lowpos);
; 194  : 
; 195  : 		double data = (high + low)/2;
; 196  : 		if(eCalType == CCalculateBaseData::REALDATA_CAL)

  00137	83 7d 0c 01	 cmp	 DWORD PTR _eCalType$[ebp], 1
  0013b	f2 0f 58 c1	 addsd	 xmm0, xmm1
  0013f	8b cb		 mov	 ecx, ebx
  00141	f2 0f 59 05 00
	00 00 00	 mulsd	 xmm0, QWORD PTR __real@3fe0000000000000
  00149	75 13		 jne	 SHORT $LN12@MakePacket

; 197  : 			newpacket->UpdateData(data, i, false);

  0014b	6a 00		 push	 0
  0014d	56		 push	 esi
  0014e	83 ec 08	 sub	 esp, 8
  00151	f2 0f 11 04 24	 movsd	 QWORD PTR [esp], xmm0
  00156	ff 15 00 00 00
	00		 call	 DWORD PTR __imp_?UpdateData@CPacket@@QAEXNH_N@Z
  0015c	eb 10		 jmp	 SHORT $LN2@MakePacket
$LN12@MakePacket:

; 198  : 		else
; 199  : 			newpacket->AppendData(data);

  0015e	6a ff		 push	 -1
  00160	83 ec 08	 sub	 esp, 8
  00163	f2 0f 11 04 24	 movsd	 QWORD PTR [esp], xmm0
  00168	ff 15 00 00 00
	00		 call	 DWORD PTR __imp_?AppendData@CPacket@@QAEXNH@Z
$LN2@MakePacket:

; 188  : 		return NULL;
; 189  : 
; 190  : 	for(int i = point.x ; i < pHighList->GetCount() ; i++)

  0016e	8b 45 08	 mov	 eax, DWORD PTR _pHighList$1$[ebp]
  00171	46		 inc	 esi
  00172	8b 4d 10	 mov	 ecx, DWORD PTR _lowpos$1$[ebp]
  00175	3b 70 0c	 cmp	 esi, DWORD PTR [eax+12]
  00178	7c 96		 jl	 SHORT $LL4@MakePacket
$LN3@MakePacket:

; 200  : 	}
; 201  : 	return newpacket;
; 202  : }

  0017a	8b c3		 mov	 eax, ebx
  0017c	5f		 pop	 edi
  0017d	5e		 pop	 esi
  0017e	5b		 pop	 ebx
  0017f	8b e5		 mov	 esp, ebp
  00181	5d		 pop	 ebp
  00182	c2 0c 00	 ret	 12			; 0000000cH
$LN9@MakePacket:
  00185	5f		 pop	 edi
  00186	5e		 pop	 esi
  00187	33 c0		 xor	 eax, eax
  00189	5b		 pop	 ebx
  0018a	8b e5		 mov	 esp, ebp
  0018c	5d		 pop	 ebp
  0018d	c2 0c 00	 ret	 12			; 0000000cH
?MakePacket_HighLow@CIndicator@@IAEPAVCPacket@@PAVCPacketList@@W4CALCULATETYPE@CCalculateBaseData@@ABVCPoint@@@Z ENDP ; CIndicator::MakePacket_HighLow
_TEXT	ENDS
; Function compile flags: /Ogtp
; File D:\git\src\IBK\IBK_DRFN\ProjSrc\SrcChartEx\ChartOCX\ChartFormulate\Indicator.cpp
; File C:\Program Files (x86)\Microsoft Visual Studio\2019\Community\VC\Tools\MSVC\14.29.30133\atlmfc\include\afxtempl.h
; File D:\git\src\IBK\IBK_DRFN\ProjSrc\SrcChartEx\ChartOCX\ChartFormulate\Indicator.cpp
; File C:\Program Files (x86)\Microsoft Visual Studio\2019\Community\VC\Tools\MSVC\14.29.30133\atlmfc\include\afxtempl.h
; File D:\git\src\IBK\IBK_DRFN\ProjSrc\SrcChartEx\ChartOCX\ChartFormulate\Indicator.cpp
; File C:\Program Files (x86)\Microsoft Visual Studio\2019\Community\VC\Tools\MSVC\14.29.30133\atlmfc\include\afxtempl.h
; File D:\git\src\IBK\IBK_DRFN\ProjSrc\SrcChartEx\ChartOCX\ChartFormulate\Indicator.cpp
;	COMDAT ?MakePacket_HighLowClose@CIndicator@@IAEPAVCPacket@@PAVCPacketList@@W4CALCULATETYPE@CCalculateBaseData@@ABVCPoint@@@Z
_TEXT	SEGMENT
_newpacket$1$ = -8					; size = 4
_lowpos$1$ = -4						; size = 4
_this$1$ = -4						; size = 4
_pEndList$1$ = 8					; size = 4
_pPacketList$ = 8					; size = 4
_eCalType$ = 12						; size = 4
_endpos$1$ = 16						; size = 4
_point$ = 16						; size = 4
?MakePacket_HighLowClose@CIndicator@@IAEPAVCPacket@@PAVCPacketList@@W4CALCULATETYPE@CCalculateBaseData@@ABVCPoint@@@Z PROC ; CIndicator::MakePacket_HighLowClose, COMDAT
; _this$ = ecx

; 120  : {

  00000	55		 push	 ebp
  00001	8b ec		 mov	 ebp, esp
  00003	83 ec 0c	 sub	 esp, 12			; 0000000cH
  00006	53		 push	 ebx
  00007	56		 push	 esi
  00008	57		 push	 edi

; 121  : 	// (2004.02.07, ) NULL Pointer Exception , .
; 122  : 	if(!pPacketList) return NULL;

  00009	8b 7d 08	 mov	 edi, DWORD PTR _pPacketList$[ebp]
  0000c	89 4d fc	 mov	 DWORD PTR _this$1$[ebp], ecx
  0000f	85 ff		 test	 edi, edi
  00011	0f 84 fa 01 00
	00		 je	 $LN9@MakePacket

; 123  : 
; 124  : 	CPacket* newpacket = pPacketList->GetBaseData( _MTEXT( C0_COMBINE_HIGH_LOW_CLOSE), false);

  00017	a1 54 00 00 00	 mov	 eax, DWORD PTR ?g_iMetaTable@@3VIMetaTable@@A+84
  0001c	6a 00		 push	 0
  0001e	51		 push	 ecx
  0001f	8b cc		 mov	 ecx, esp
  00021	ff b0 a0 00 00
	00		 push	 DWORD PTR [eax+160]
  00027	ff 15 00 00 00
	00		 call	 DWORD PTR __imp_??0?$CStringT@DV?$StrTraitMFC_DLL@DV?$ChTraitsCRT@D@ATL@@@@@ATL@@QAE@PBD@Z
  0002d	8b cf		 mov	 ecx, edi
  0002f	ff 15 00 00 00
	00		 call	 DWORD PTR __imp_?GetBaseData@CPacketList@@QAEPAVCPacket@@V?$CStringT@DV?$StrTraitMFC_DLL@DV?$ChTraitsCRT@D@ATL@@@@@ATL@@_N@Z
  00035	8b d8		 mov	 ebx, eax
  00037	89 5d f8	 mov	 DWORD PTR _newpacket$1$[ebp], ebx

; 125  : 	if(!newpacket) return NULL;

  0003a	85 db		 test	 ebx, ebx
  0003c	0f 84 cf 01 00
	00		 je	 $LN9@MakePacket

; 126  : 
; 127  : 	//        
; 128  : 	//   .
; 129  : 	if(eCalType != CCalculateBaseData::REALDATA_CAL && 
; 130  : 		newpacket->GetCount() != NULL && (pPacketList->GetMaxCount() == newpacket->GetCount()))

  00042	83 7d 0c 01	 cmp	 DWORD PTR _eCalType$[ebp], 1
  00046	74 2b		 je	 SHORT $LN7@MakePacket
  00048	8b 03		 mov	 eax, DWORD PTR [ebx]
  0004a	8b cb		 mov	 ecx, ebx
  0004c	ff 50 14	 call	 DWORD PTR [eax+20]
  0004f	85 c0		 test	 eax, eax
  00051	74 20		 je	 SHORT $LN7@MakePacket
  00053	8b 13		 mov	 edx, DWORD PTR [ebx]
  00055	8b cb		 mov	 ecx, ebx
  00057	ff 52 14	 call	 DWORD PTR [edx+20]
  0005a	8b cf		 mov	 ecx, edi
  0005c	8b f0		 mov	 esi, eax
  0005e	ff 15 00 00 00
	00		 call	 DWORD PTR __imp_?GetMaxCount@CPacketList@@QAEHXZ
  00064	3b c6		 cmp	 eax, esi
  00066	75 0b		 jne	 SHORT $LN7@MakePacket

; 131  : 		return newpacket;

  00068	8b c3		 mov	 eax, ebx

; 163  : }

  0006a	5f		 pop	 edi
  0006b	5e		 pop	 esi
  0006c	5b		 pop	 ebx
  0006d	8b e5		 mov	 esp, ebp
  0006f	5d		 pop	 ebp
  00070	c2 0c 00	 ret	 12			; 0000000cH
$LN7@MakePacket:

; 132  : 
; 133  : 	CList<double, double>* pEndList = GetnumericDataList(pPacketList->GetBaseData( _MTEXT( C0_CLOSE)));

  00073	a1 54 00 00 00	 mov	 eax, DWORD PTR ?g_iMetaTable@@3VIMetaTable@@A+84
  00078	6a 01		 push	 1
  0007a	51		 push	 ecx
  0007b	8b cc		 mov	 ecx, esp
  0007d	ff 70 14	 push	 DWORD PTR [eax+20]
  00080	ff 15 00 00 00
	00		 call	 DWORD PTR __imp_??0?$CStringT@DV?$StrTraitMFC_DLL@DV?$ChTraitsCRT@D@ATL@@@@@ATL@@QAE@PBD@Z
  00086	8b 1d 00 00 00
	00		 mov	 ebx, DWORD PTR __imp_?GetBaseData@CPacketList@@QAEPAVCPacket@@V?$CStringT@DV?$StrTraitMFC_DLL@DV?$ChTraitsCRT@D@ATL@@@@@ATL@@_N@Z
  0008c	8b cf		 mov	 ecx, edi
  0008e	ff d3		 call	 ebx

; 445  : 	if(pPacket == NULL)

  00090	8b 35 00 00 00
	00		 mov	 esi, DWORD PTR __imp_?GetnumericDataList@CPacket@@QAEPAV?$CList@NN@@XZ
  00096	85 c0		 test	 eax, eax
  00098	75 09		 jne	 SHORT $LN21@MakePacket

; 446  : 		return NULL;

  0009a	c7 45 08 00 00
	00 00		 mov	 DWORD PTR _pEndList$1$[ebp], 0
  000a1	eb 07		 jmp	 SHORT $LN20@MakePacket
$LN21@MakePacket:

; 447  : 
; 448  : 	return pPacket->GetnumericDataList();

  000a3	8b c8		 mov	 ecx, eax
  000a5	ff d6		 call	 esi
  000a7	89 45 08	 mov	 DWORD PTR _pEndList$1$[ebp], eax
$LN20@MakePacket:

; 134  : 	CList<double, double>* pHighList = GetnumericDataList(pPacketList->GetBaseData( _MTEXT( C0_HIGH)));

  000aa	6a 01		 push	 1
  000ac	51		 push	 ecx
  000ad	8b 0d 54 00 00
	00		 mov	 ecx, DWORD PTR ?g_iMetaTable@@3VIMetaTable@@A+84
  000b3	8b d4		 mov	 edx, esp
  000b5	ff 71 0c	 push	 DWORD PTR [ecx+12]
  000b8	8b ca		 mov	 ecx, edx
  000ba	ff 15 00 00 00
	00		 call	 DWORD PTR __imp_??0?$CStringT@DV?$StrTraitMFC_DLL@DV?$ChTraitsCRT@D@ATL@@@@@ATL@@QAE@PBD@Z
  000c0	8b cf		 mov	 ecx, edi
  000c2	ff d3		 call	 ebx

; 445  : 	if(pPacket == NULL)

  000c4	85 c0		 test	 eax, eax
  000c6	75 04		 jne	 SHORT $LN24@MakePacket

; 446  : 		return NULL;

  000c8	33 db		 xor	 ebx, ebx
  000ca	eb 06		 jmp	 SHORT $LN23@MakePacket
$LN24@MakePacket:

; 447  : 
; 448  : 	return pPacket->GetnumericDataList();

  000cc	8b c8		 mov	 ecx, eax
  000ce	ff d6		 call	 esi
  000d0	8b d8		 mov	 ebx, eax
$LN23@MakePacket:

; 135  : 	CList<double, double>* pLowList = GetnumericDataList(pPacketList->GetBaseData( _MTEXT( C0_LOW)));

  000d2	8b 15 54 00 00
	00		 mov	 edx, DWORD PTR ?g_iMetaTable@@3VIMetaTable@@A+84
  000d8	6a 01		 push	 1
  000da	51		 push	 ecx
  000db	8b cc		 mov	 ecx, esp
  000dd	ff 72 10	 push	 DWORD PTR [edx+16]
  000e0	ff 15 00 00 00
	00		 call	 DWORD PTR __imp_??0?$CStringT@DV?$StrTraitMFC_DLL@DV?$ChTraitsCRT@D@ATL@@@@@ATL@@QAE@PBD@Z
  000e6	8b cf		 mov	 ecx, edi
  000e8	ff 15 00 00 00
	00		 call	 DWORD PTR __imp_?GetBaseData@CPacketList@@QAEPAVCPacket@@V?$CStringT@DV?$StrTraitMFC_DLL@DV?$ChTraitsCRT@D@ATL@@@@@ATL@@_N@Z

; 445  : 	if(pPacket == NULL)

  000ee	85 c0		 test	 eax, eax
  000f0	75 04		 jne	 SHORT $LN27@MakePacket

; 446  : 		return NULL;

  000f2	33 ff		 xor	 edi, edi
  000f4	eb 06		 jmp	 SHORT $LN26@MakePacket
$LN27@MakePacket:

; 447  : 
; 448  : 	return pPacket->GetnumericDataList();

  000f6	8b c8		 mov	 ecx, eax
  000f8	ff d6		 call	 esi
  000fa	8b f8		 mov	 edi, eax
$LN26@MakePacket:

; 136  : 	// (2004.02.07, ) NULL Pointer Exception , .
; 137  : 	if( !pEndList || !pHighList || !pLowList) return NULL;

  000fc	8b 4d 08	 mov	 ecx, DWORD PTR _pEndList$1$[ebp]
  000ff	85 c9		 test	 ecx, ecx
  00101	0f 84 0a 01 00
	00		 je	 $LN9@MakePacket
  00107	85 db		 test	 ebx, ebx
  00109	0f 84 02 01 00
	00		 je	 $LN9@MakePacket
  0010f	85 ff		 test	 edi, edi
  00111	0f 84 fa 00 00
	00		 je	 $LN9@MakePacket

; 138  : 
; 139  : 	POSITION endpos = FindPosition(point.x, *pEndList);

  00117	8b 45 10	 mov	 eax, DWORD PTR _point$[ebp]
  0011a	51		 push	 ecx
  0011b	8b 4d fc	 mov	 ecx, DWORD PTR _this$1$[ebp]
  0011e	8b 30		 mov	 esi, DWORD PTR [eax]
  00120	56		 push	 esi
  00121	e8 00 00 00 00	 call	 ?FindPosition@CIndicator@@IBEPAU__POSITION@@HABV?$CList@NN@@@Z ; CIndicator::FindPosition

; 140  : 	POSITION highpos = FindPosition(point.x, *pHighList);

  00126	8b 4d fc	 mov	 ecx, DWORD PTR _this$1$[ebp]
  00129	53		 push	 ebx
  0012a	56		 push	 esi
  0012b	89 45 10	 mov	 DWORD PTR _endpos$1$[ebp], eax
  0012e	e8 00 00 00 00	 call	 ?FindPosition@CIndicator@@IBEPAU__POSITION@@HABV?$CList@NN@@@Z ; CIndicator::FindPosition

; 141  : 	POSITION lowpos = FindPosition(point.x, *pLowList);

  00133	8b 4d fc	 mov	 ecx, DWORD PTR _this$1$[ebp]
  00136	8b d8		 mov	 ebx, eax
  00138	57		 push	 edi
  00139	56		 push	 esi
  0013a	e8 00 00 00 00	 call	 ?FindPosition@CIndicator@@IBEPAU__POSITION@@HABV?$CList@NN@@@Z ; CIndicator::FindPosition

; 142  : 
; 143  : 	if(endpos == NULL || highpos == NULL || lowpos == NULL)

  0013f	8b 4d 10	 mov	 ecx, DWORD PTR _endpos$1$[ebp]
  00142	8b d0		 mov	 edx, eax
  00144	89 55 fc	 mov	 DWORD PTR _lowpos$1$[ebp], edx
  00147	85 c9		 test	 ecx, ecx
  00149	0f 84 c2 00 00
	00		 je	 $LN9@MakePacket
  0014f	85 db		 test	 ebx, ebx
  00151	0f 84 ba 00 00
	00		 je	 $LN9@MakePacket
  00157	85 d2		 test	 edx, edx
  00159	0f 84 b2 00 00
	00		 je	 $LN9@MakePacket

; 144  : 		return NULL;
; 145  : 
; 146  : 	for(int i = point.x ; i < pEndList->GetCount() ; i++)

  0015f	8b 45 08	 mov	 eax, DWORD PTR _pEndList$1$[ebp]
  00162	8b 7d f8	 mov	 edi, DWORD PTR _newpacket$1$[ebp]
  00165	3b 70 0c	 cmp	 esi, DWORD PTR [eax+12]
  00168	0f 8d 98 00 00
	00		 jge	 $LN3@MakePacket
  0016e	66 90		 npad	 2
$LL4@MakePacket:

; 340  : 	if(pSourceList == NULL || pos == NULL) 

  00170	85 c9		 test	 ecx, ecx
  00172	74 0e		 je	 SHORT $LN31@MakePacket
; File C:\Program Files (x86)\Microsoft Visual Studio\2019\Community\VC\Tools\MSVC\14.29.30133\atlmfc\include\afxtempl.h

; 817  : 	{ CNode* pNode = (CNode*) rPosition;

  00174	8b c1		 mov	 eax, ecx

; 818  : 		ASSERT(AfxIsValidAddress(pNode, sizeof(CNode)));
; 819  : 		rPosition = (POSITION) pNode->pNext;

  00176	8b 09		 mov	 ecx, DWORD PTR [ecx]
  00178	89 4d 10	 mov	 DWORD PTR _endpos$1$[ebp], ecx
; File D:\git\src\IBK\IBK_DRFN\ProjSrc\SrcChartEx\ChartOCX\ChartFormulate\Indicator.cpp

; 343  : 	return pSourceList->GetNext(pos);

  0017b	f2 0f 10 48 08	 movsd	 xmm1, QWORD PTR [eax+8]
  00180	eb 03		 jmp	 SHORT $LN29@MakePacket
$LN31@MakePacket:
  00182	0f 57 c9	 xorps	 xmm1, xmm1
$LN29@MakePacket:

; 340  : 	if(pSourceList == NULL || pos == NULL) 

  00185	85 db		 test	 ebx, ebx
  00187	74 0b		 je	 SHORT $LN37@MakePacket
; File C:\Program Files (x86)\Microsoft Visual Studio\2019\Community\VC\Tools\MSVC\14.29.30133\atlmfc\include\afxtempl.h

; 817  : 	{ CNode* pNode = (CNode*) rPosition;

  00189	8b c3		 mov	 eax, ebx

; 818  : 		ASSERT(AfxIsValidAddress(pNode, sizeof(CNode)));
; 819  : 		rPosition = (POSITION) pNode->pNext;

  0018b	8b 1b		 mov	 ebx, DWORD PTR [ebx]
; File D:\git\src\IBK\IBK_DRFN\ProjSrc\SrcChartEx\ChartOCX\ChartFormulate\Indicator.cpp

; 343  : 	return pSourceList->GetNext(pos);

  0018d	f2 0f 10 40 08	 movsd	 xmm0, QWORD PTR [eax+8]
  00192	eb 03		 jmp	 SHORT $LN35@MakePacket
$LN37@MakePacket:
  00194	0f 57 c0	 xorps	 xmm0, xmm0
$LN35@MakePacket:

; 340  : 	if(pSourceList == NULL || pos == NULL) 

  00197	85 d2		 test	 edx, edx
  00199	74 0e		 je	 SHORT $LN43@MakePacket
; File C:\Program Files (x86)\Microsoft Visual Studio\2019\Community\VC\Tools\MSVC\14.29.30133\atlmfc\include\afxtempl.h

; 817  : 	{ CNode* pNode = (CNode*) rPosition;

  0019b	8b c2		 mov	 eax, edx

; 818  : 		ASSERT(AfxIsValidAddress(pNode, sizeof(CNode)));
; 819  : 		rPosition = (POSITION) pNode->pNext;

  0019d	8b 12		 mov	 edx, DWORD PTR [edx]
  0019f	89 55 fc	 mov	 DWORD PTR _lowpos$1$[ebp], edx
; File D:\git\src\IBK\IBK_DRFN\ProjSrc\SrcChartEx\ChartOCX\ChartFormulate\Indicator.cpp

; 343  : 	return pSourceList->GetNext(pos);

  001a2	f2 0f 10 50 08	 movsd	 xmm2, QWORD PTR [eax+8]
  001a7	eb 03		 jmp	 SHORT $LN41@MakePacket
$LN43@MakePacket:
  001a9	0f 57 d2	 xorps	 xmm2, xmm2
$LN41@MakePacket:

; 147  : 	{
; 148  : 		double end = GetNext(pEndList, endpos);
; 149  : 		double high = GetNext(pHighList, highpos);
; 150  : 		double low = GetNext(pLowList, lowpos);
; 151  : 
; 152  : 		// (2007/3/12 - Seung-Won, Bae) Check Normal Candle Low <= Open/Close <= High
; 153  : 		//		if Error, Set All with Close for Base or Market Close Price.
; 154  : 		if( high < end) high = low = end;

  001ac	66 0f 2f c8	 comisd	 xmm1, xmm0
  001b0	76 06		 jbe	 SHORT $LN12@MakePacket
  001b2	0f 28 d1	 movaps	 xmm2, xmm1
  001b5	0f 28 c1	 movaps	 xmm0, xmm1
$LN12@MakePacket:

; 155  : 
; 156  : 		double data = (end + high + low)/3;
; 157  : 		if(eCalType == CCalculateBaseData::REALDATA_CAL)

  001b8	83 7d 0c 01	 cmp	 DWORD PTR _eCalType$[ebp], 1
  001bc	f2 0f 58 c1	 addsd	 xmm0, xmm1
  001c0	8b cf		 mov	 ecx, edi
  001c2	f2 0f 58 c2	 addsd	 xmm0, xmm2
  001c6	f2 0f 5e 05 00
	00 00 00	 divsd	 xmm0, QWORD PTR __real@4008000000000000
  001ce	75 13		 jne	 SHORT $LN13@MakePacket

; 158  : 			newpacket->UpdateData(data, i, false);

  001d0	6a 00		 push	 0
  001d2	56		 push	 esi
  001d3	83 ec 08	 sub	 esp, 8
  001d6	f2 0f 11 04 24	 movsd	 QWORD PTR [esp], xmm0
  001db	ff 15 00 00 00
	00		 call	 DWORD PTR __imp_?UpdateData@CPacket@@QAEXNH_N@Z
  001e1	eb 10		 jmp	 SHORT $LN2@MakePacket
$LN13@MakePacket:

; 159  : 		else
; 160  : 			newpacket->AppendData(data);

  001e3	6a ff		 push	 -1
  001e5	83 ec 08	 sub	 esp, 8
  001e8	f2 0f 11 04 24	 movsd	 QWORD PTR [esp], xmm0
  001ed	ff 15 00 00 00
	00		 call	 DWORD PTR __imp_?AppendData@CPacket@@QAEXNH@Z
$LN2@MakePacket:

; 144  : 		return NULL;
; 145  : 
; 146  : 	for(int i = point.x ; i < pEndList->GetCount() ; i++)

  001f3	8b 45 08	 mov	 eax, DWORD PTR _pEndList$1$[ebp]
  001f6	46		 inc	 esi
  001f7	8b 4d 10	 mov	 ecx, DWORD PTR _endpos$1$[ebp]
  001fa	8b 55 fc	 mov	 edx, DWORD PTR _lowpos$1$[ebp]
  001fd	3b 70 0c	 cmp	 esi, DWORD PTR [eax+12]
  00200	0f 8c 6a ff ff
	ff		 jl	 $LL4@MakePacket
$LN3@MakePacket:

; 161  : 	}
; 162  : 	return newpacket;

  00206	8b c7		 mov	 eax, edi

; 163  : }

  00208	5f		 pop	 edi
  00209	5e		 pop	 esi
  0020a	5b		 pop	 ebx
  0020b	8b e5		 mov	 esp, ebp
  0020d	5d		 pop	 ebp
  0020e	c2 0c 00	 ret	 12			; 0000000cH
$LN9@MakePacket:
  00211	5f		 pop	 edi
  00212	5e		 pop	 esi
  00213	33 c0		 xor	 eax, eax
  00215	5b		 pop	 ebx
  00216	8b e5		 mov	 esp, ebp
  00218	5d		 pop	 ebp
  00219	c2 0c 00	 ret	 12			; 0000000cH
?MakePacket_HighLowClose@CIndicator@@IAEPAVCPacket@@PAVCPacketList@@W4CALCULATETYPE@CCalculateBaseData@@ABVCPoint@@@Z ENDP ; CIndicator::MakePacket_HighLowClose
_TEXT	ENDS
; Function compile flags: /Ogtp
; File D:\git\src\IBK\IBK_DRFN\ProjSrc\SrcChartEx\ChartOCX\ChartFormulate\Indicator.cpp
; File C:\Program Files (x86)\Microsoft Visual Studio\2019\Community\VC\Tools\MSVC\14.29.30133\atlmfc\include\atlsimpstr.h
; File D:\git\src\IBK\IBK_DRFN\ProjSrc\SrcChartEx\ChartOCX\ChartFormulate\Indicator.cpp
;	COMDAT ?SeachCalForPacketName@CIndicator@@IAE_NABV?$CStringT@DV?$StrTraitMFC_DLL@DV?$ChTraitsCRT@D@ATL@@@@@ATL@@0@Z
_TEXT	SEGMENT
_calpacketname$ = 8					; size = 4
_packetname$ = 12					; size = 4
?SeachCalForPacketName@CIndicator@@IAE_NABV?$CStringT@DV?$StrTraitMFC_DLL@DV?$ChTraitsCRT@D@ATL@@@@@ATL@@0@Z PROC ; CIndicator::SeachCalForPacketName, COMDAT
; _this$ = ecx

; 105  : {

  00000	55		 push	 ebp
  00001	8b ec		 mov	 ebp, esp
; File C:\Program Files (x86)\Microsoft Visual Studio\2019\Community\VC\Tools\MSVC\14.29.30133\atlmfc\include\atlsimpstr.h

; 377  : 		return( m_pszData );

  00003	8b 45 0c	 mov	 eax, DWORD PTR _packetname$[ebp]
; File D:\git\src\IBK\IBK_DRFN\ProjSrc\SrcChartEx\ChartOCX\ChartFormulate\Indicator.cpp

; 106  : 	return (calpacketname.Find(packetname) >= 0);

  00006	8b 4d 08	 mov	 ecx, DWORD PTR _calpacketname$[ebp]
  00009	6a 00		 push	 0
  0000b	ff 30		 push	 DWORD PTR [eax]
  0000d	ff 15 00 00 00
	00		 call	 DWORD PTR __imp_?Find@?$CStringT@DV?$StrTraitMFC_DLL@DV?$ChTraitsCRT@D@ATL@@@@@ATL@@QBEHPBDH@Z
  00013	85 c0		 test	 eax, eax
  00015	0f 99 c0	 setns	 al

; 107  : }

  00018	5d		 pop	 ebp
  00019	c2 08 00	 ret	 8
?SeachCalForPacketName@CIndicator@@IAE_NABV?$CStringT@DV?$StrTraitMFC_DLL@DV?$ChTraitsCRT@D@ATL@@@@@ATL@@0@Z ENDP ; CIndicator::SeachCalForPacketName
_TEXT	ENDS
; Function compile flags: /Ogtp
; File D:\git\src\IBK\IBK_DRFN\ProjSrc\SrcChartEx\ChartOCX\ChartFormulate\Indicator.cpp
; File C:\Program Files (x86)\Microsoft Visual Studio\2019\Community\VC\Tools\MSVC\14.29.30133\atlmfc\include\atlsimpstr.h
; File D:\git\src\IBK\IBK_DRFN\ProjSrc\SrcChartEx\ChartOCX\ChartFormulate\Indicator.cpp
; File C:\Program Files (x86)\Microsoft Visual Studio\2019\Community\VC\Tools\MSVC\14.29.30133\atlmfc\include\atlsimpstr.h
; File D:\git\src\IBK\IBK_DRFN\ProjSrc\SrcChartEx\ChartOCX\ChartFormulate\Indicator.cpp
; File C:\Program Files (x86)\Microsoft Visual Studio\2019\Community\VC\Tools\MSVC\14.29.30133\atlmfc\include\atlsimpstr.h
; File D:\git\src\IBK\IBK_DRFN\ProjSrc\SrcChartEx\ChartOCX\ChartFormulate\Indicator.cpp
; File C:\Program Files (x86)\Microsoft Visual Studio\2019\Community\VC\Tools\MSVC\14.29.30133\atlmfc\include\atlsimpstr.h
; File D:\git\src\IBK\IBK_DRFN\ProjSrc\SrcChartEx\ChartOCX\ChartFormulate\Indicator.cpp
; File C:\Program Files (x86)\Microsoft Visual Studio\2019\Community\VC\Tools\MSVC\14.29.30133\atlmfc\include\atlsimpstr.h
; File D:\git\src\IBK\IBK_DRFN\ProjSrc\SrcChartEx\ChartOCX\ChartFormulate\Indicator.cpp
; File C:\Program Files (x86)\Microsoft Visual Studio\2019\Community\VC\Tools\MSVC\14.29.30133\atlmfc\include\afxtempl.h
; File D:\git\src\IBK\IBK_DRFN\ProjSrc\SrcChartEx\ChartOCX\ChartFormulate\Indicator.cpp
; File C:\Program Files (x86)\Microsoft Visual Studio\2019\Community\VC\Tools\MSVC\14.29.30133\atlmfc\include\atlsimpstr.h
; File D:\git\src\IBK\IBK_DRFN\ProjSrc\SrcChartEx\ChartOCX\ChartFormulate\Indicator.cpp
; File C:\Program Files (x86)\Microsoft Visual Studio\2019\Community\VC\Tools\MSVC\14.29.30133\atlmfc\include\atlsimpstr.h
; File D:\git\src\IBK\IBK_DRFN\ProjSrc\SrcChartEx\ChartOCX\ChartFormulate\Indicator.cpp
;	COMDAT ?GetPreEndPrice@CIndicator@@IAEHPAV?$CList@NN@@W4HORZSCALEDRAWERTYPE@CScaleBaseData@@H@Z
_TEXT	SEGMENT
_comparedate$2 = -56					; size = 8
_startdate$ = -48					; size = 8
_date$ = -40						; size = 8
_temp$3 = -32						; size = 8
_this$1$ = -28						; size = 4
_StartDate$ = -24					; size = 4
_Date$ = -20						; size = 4
_first$ = -16						; size = 4
__$EHRec$ = -12						; size = 12
_temp1$4 = 8						; size = 4
$T5 = 8							; size = 4
$T6 = 8							; size = 4
_pDateList$ = 8						; size = 4
_nType$ = 12						; size = 4
$T7 = 16						; size = 4
_startindex$ = 16					; size = 4
?GetPreEndPrice@CIndicator@@IAEHPAV?$CList@NN@@W4HORZSCALEDRAWERTYPE@CScaleBaseData@@H@Z PROC ; CIndicator::GetPreEndPrice, COMDAT
; _this$ = ecx

; 375  : {

  00000	55		 push	 ebp
  00001	8b ec		 mov	 ebp, esp
  00003	6a ff		 push	 -1
  00005	68 00 00 00 00	 push	 __ehhandler$?GetPreEndPrice@CIndicator@@IAEHPAV?$CList@NN@@W4HORZSCALEDRAWERTYPE@CScaleBaseData@@H@Z
  0000a	64 a1 00 00 00
	00		 mov	 eax, DWORD PTR fs:0
  00010	50		 push	 eax
  00011	83 ec 2c	 sub	 esp, 44			; 0000002cH
  00014	53		 push	 ebx
  00015	56		 push	 esi
  00016	57		 push	 edi
  00017	a1 00 00 00 00	 mov	 eax, DWORD PTR ___security_cookie
  0001c	33 c5		 xor	 eax, ebp
  0001e	50		 push	 eax
  0001f	8d 45 f4	 lea	 eax, DWORD PTR __$EHRec$[ebp]
  00022	64 a3 00 00 00
	00		 mov	 DWORD PTR fs:0, eax
  00028	8b f1		 mov	 esi, ecx
  0002a	89 75 e4	 mov	 DWORD PTR _this$1$[ebp], esi

; 376  : 	// (2004.02.07, ) NULL Pointer Exception , .
; 377  : 	if( !pDateList) return NULL;

  0002d	8b 5d 08	 mov	 ebx, DWORD PTR _pDateList$[ebp]
  00030	85 db		 test	 ebx, ebx
  00032	75 16		 jne	 SHORT $LN4@GetPreEndP
  00034	33 c0		 xor	 eax, eax

; 410  : }

  00036	8b 4d f4	 mov	 ecx, DWORD PTR __$EHRec$[ebp]
  00039	64 89 0d 00 00
	00 00		 mov	 DWORD PTR fs:0, ecx
  00040	59		 pop	 ecx
  00041	5f		 pop	 edi
  00042	5e		 pop	 esi
  00043	5b		 pop	 ebx
  00044	8b e5		 mov	 esp, ebp
  00046	5d		 pop	 ebp
  00047	c2 0c 00	 ret	 12			; 0000000cH
$LN4@GetPreEndP:

; 378  : 
; 379  : 	int ReturnIndex = 0;
; 380  : 	CString StartDate;

  0004a	8d 4d e8	 lea	 ecx, DWORD PTR _StartDate$[ebp]
  0004d	33 ff		 xor	 edi, edi
  0004f	ff 15 00 00 00
	00		 call	 DWORD PTR __imp_??0?$CStringT@DV?$StrTraitMFC_DLL@DV?$ChTraitsCRT@D@ATL@@@@@ATL@@QAE@XZ

; 381  : 	POSITION Datepos = FindPosition(startindex, *pDateList);

  00055	53		 push	 ebx
  00056	8b 5d 10	 mov	 ebx, DWORD PTR _startindex$[ebp]
  00059	8b ce		 mov	 ecx, esi
  0005b	53		 push	 ebx
  0005c	89 7d fc	 mov	 DWORD PTR __$EHRec$[ebp+8], edi
  0005f	e8 00 00 00 00	 call	 ?FindPosition@CIndicator@@IBEPAU__POSITION@@HABV?$CList@NN@@@Z ; CIndicator::FindPosition

; 382  : 	POSITION pos = FindPosition(startindex, *pDateList);

  00064	ff 75 08	 push	 DWORD PTR _pDateList$[ebp]
  00067	8b 4d e4	 mov	 ecx, DWORD PTR _this$1$[ebp]
  0006a	8b f0		 mov	 esi, eax
  0006c	53		 push	 ebx
  0006d	e8 00 00 00 00	 call	 ?FindPosition@CIndicator@@IBEPAU__POSITION@@HABV?$CList@NN@@@Z ; CIndicator::FindPosition

; 383  : 	if(Datepos == NULL || pos == NULL || nType == CScaleBaseData::HORZ_TICK)

  00072	85 f6		 test	 esi, esi
  00074	0f 84 9f 01 00
	00		 je	 $LN6@GetPreEndP
  0007a	85 c0		 test	 eax, eax
  0007c	0f 84 97 01 00
	00		 je	 $LN6@GetPreEndP
  00082	83 7d 0c 05	 cmp	 DWORD PTR _nType$[ebp], 5
  00086	0f 84 8d 01 00
	00		 je	 $LN6@GetPreEndP

; 384  : 		return 0;
; 385  : 	double date = pDateList->GetAt(Datepos);

  0008c	f2 0f 10 46 08	 movsd	 xmm0, QWORD PTR [esi+8]
  00091	f2 0f 11 45 d8	 movsd	 QWORD PTR _date$[ebp], xmm0

; 386  : 	double startdate = pDateList->GetAt(pos);

  00096	f2 0f 10 40 08	 movsd	 xmm0, QWORD PTR [eax+8]

; 387  : 
; 388  : 	CString Date  = CDataConversion::DoubleToString(date, 0);

  0009b	8d 45 d8	 lea	 eax, DWORD PTR _date$[ebp]
  0009e	57		 push	 edi
  0009f	50		 push	 eax
  000a0	8d 45 ec	 lea	 eax, DWORD PTR _Date$[ebp]
  000a3	f2 0f 11 45 d0	 movsd	 QWORD PTR _startdate$[ebp], xmm0
  000a8	50		 push	 eax
  000a9	e8 00 00 00 00	 call	 ?DoubleToString@CDataConversion@@SA?AV?$CStringT@DV?$StrTraitMFC_DLL@DV?$ChTraitsCRT@D@ATL@@@@@ATL@@ABNH@Z ; CDataConversion::DoubleToString

; 389  : 	CString first = CDataConversion::DoubleToString(startdate, 0);

  000ae	57		 push	 edi
  000af	8d 45 d0	 lea	 eax, DWORD PTR _startdate$[ebp]
  000b2	c6 45 fc 01	 mov	 BYTE PTR __$EHRec$[ebp+8], 1
  000b6	50		 push	 eax
  000b7	8d 45 f0	 lea	 eax, DWORD PTR _first$[ebp]
  000ba	50		 push	 eax
  000bb	e8 00 00 00 00	 call	 ?DoubleToString@CDataConversion@@SA?AV?$CStringT@DV?$StrTraitMFC_DLL@DV?$ChTraitsCRT@D@ATL@@@@@ATL@@ABNH@Z ; CDataConversion::DoubleToString
  000c0	83 c4 18	 add	 esp, 24			; 00000018H
; File C:\Program Files (x86)\Microsoft Visual Studio\2019\Community\VC\Tools\MSVC\14.29.30133\atlmfc\include\atlsimpstr.h

; 519  : 		return( GetData()->nDataLength );

  000c3	8b 45 ec	 mov	 eax, DWORD PTR _Date$[ebp]
; File D:\git\src\IBK\IBK_DRFN\ProjSrc\SrcChartEx\ChartOCX\ChartFormulate\Indicator.cpp

; 389  : 	CString first = CDataConversion::DoubleToString(startdate, 0);

  000c6	c6 45 fc 02	 mov	 BYTE PTR __$EHRec$[ebp+8], 2
; File C:\Program Files (x86)\Microsoft Visual Studio\2019\Community\VC\Tools\MSVC\14.29.30133\atlmfc\include\atlsimpstr.h

; 519  : 		return( GetData()->nDataLength );

  000ca	8b 48 f4	 mov	 ecx, DWORD PTR [eax-12]
; File D:\git\src\IBK\IBK_DRFN\ProjSrc\SrcChartEx\ChartOCX\ChartFormulate\Indicator.cpp

; 390  : 	if(Date.GetLength() < 6 || first.GetLength() < 6)

  000cd	83 f9 06	 cmp	 ecx, 6
  000d0	0f 8c 13 01 00
	00		 jl	 $LN8@GetPreEndP
; File C:\Program Files (x86)\Microsoft Visual Studio\2019\Community\VC\Tools\MSVC\14.29.30133\atlmfc\include\atlsimpstr.h

; 519  : 		return( GetData()->nDataLength );

  000d6	8b 45 f0	 mov	 eax, DWORD PTR _first$[ebp]
; File D:\git\src\IBK\IBK_DRFN\ProjSrc\SrcChartEx\ChartOCX\ChartFormulate\Indicator.cpp

; 390  : 	if(Date.GetLength() < 6 || first.GetLength() < 6)

  000d9	83 78 f4 06	 cmp	 DWORD PTR [eax-12], 6
  000dd	0f 8c 06 01 00
	00		 jl	 $LN8@GetPreEndP

; 391  : 		return 0;
; 392  : 	StartDate = Date.Mid(0, Date.GetLength() - 4);

  000e3	8d 41 fc	 lea	 eax, DWORD PTR [ecx-4]
  000e6	50		 push	 eax
  000e7	57		 push	 edi
  000e8	8d 45 08	 lea	 eax, DWORD PTR $T6[ebp]
  000eb	50		 push	 eax
  000ec	8d 4d ec	 lea	 ecx, DWORD PTR _Date$[ebp]
  000ef	ff 15 00 00 00
	00		 call	 DWORD PTR __imp_?Mid@?$CStringT@DV?$StrTraitMFC_DLL@DV?$ChTraitsCRT@D@ATL@@@@@ATL@@QBE?AV12@HH@Z
  000f5	50		 push	 eax
  000f6	8d 4d e8	 lea	 ecx, DWORD PTR _StartDate$[ebp]
  000f9	c6 45 fc 03	 mov	 BYTE PTR __$EHRec$[ebp+8], 3
  000fd	ff 15 00 00 00
	00		 call	 DWORD PTR __imp_??4?$CStringT@DV?$StrTraitMFC_DLL@DV?$ChTraitsCRT@D@ATL@@@@@ATL@@QAEAAV01@ABV01@@Z
  00103	8d 4d 08	 lea	 ecx, DWORD PTR $T6[ebp]
  00106	c6 45 fc 02	 mov	 BYTE PTR __$EHRec$[ebp+8], 2
  0010a	ff 15 00 00 00
	00		 call	 DWORD PTR __imp_??1?$CStringT@DV?$StrTraitMFC_DLL@DV?$ChTraitsCRT@D@ATL@@@@@ATL@@QAE@XZ
; File C:\Program Files (x86)\Microsoft Visual Studio\2019\Community\VC\Tools\MSVC\14.29.30133\atlmfc\include\atlsimpstr.h

; 519  : 		return( GetData()->nDataLength );

  00110	8b 45 ec	 mov	 eax, DWORD PTR _Date$[ebp]
; File D:\git\src\IBK\IBK_DRFN\ProjSrc\SrcChartEx\ChartOCX\ChartFormulate\Indicator.cpp

; 393  : 	first = first.Mid(0, Date.GetLength() - 4);

  00113	8d 4d f0	 lea	 ecx, DWORD PTR _first$[ebp]
; File C:\Program Files (x86)\Microsoft Visual Studio\2019\Community\VC\Tools\MSVC\14.29.30133\atlmfc\include\atlsimpstr.h

; 519  : 		return( GetData()->nDataLength );

  00116	8b 40 f4	 mov	 eax, DWORD PTR [eax-12]
; File D:\git\src\IBK\IBK_DRFN\ProjSrc\SrcChartEx\ChartOCX\ChartFormulate\Indicator.cpp

; 393  : 	first = first.Mid(0, Date.GetLength() - 4);

  00119	83 c0 fc	 add	 eax, -4			; fffffffcH
  0011c	50		 push	 eax
  0011d	57		 push	 edi
  0011e	8d 45 08	 lea	 eax, DWORD PTR $T5[ebp]
  00121	50		 push	 eax
  00122	ff 15 00 00 00
	00		 call	 DWORD PTR __imp_?Mid@?$CStringT@DV?$StrTraitMFC_DLL@DV?$ChTraitsCRT@D@ATL@@@@@ATL@@QBE?AV12@HH@Z
  00128	50		 push	 eax
  00129	8d 4d f0	 lea	 ecx, DWORD PTR _first$[ebp]
  0012c	c6 45 fc 04	 mov	 BYTE PTR __$EHRec$[ebp+8], 4
  00130	ff 15 00 00 00
	00		 call	 DWORD PTR __imp_??4?$CStringT@DV?$StrTraitMFC_DLL@DV?$ChTraitsCRT@D@ATL@@@@@ATL@@QAEAAV01@ABV01@@Z
  00136	8d 4d 08	 lea	 ecx, DWORD PTR $T5[ebp]
  00139	c6 45 fc 02	 mov	 BYTE PTR __$EHRec$[ebp+8], 2
  0013d	ff 15 00 00 00
	00		 call	 DWORD PTR __imp_??1?$CStringT@DV?$StrTraitMFC_DLL@DV?$ChTraitsCRT@D@ATL@@@@@ATL@@QAE@XZ

; 394  : 	date = atof(StartDate);

  00143	ff 75 e8	 push	 DWORD PTR _StartDate$[ebp]
  00146	ff 15 00 00 00
	00		 call	 DWORD PTR __imp__atof
  0014c	dd 5d d8	 fstp	 QWORD PTR _date$[ebp]
  0014f	83 c4 04	 add	 esp, 4
$LL2@GetPreEndP:

; 395  : 	
; 396  : 	while(Datepos)
; 397  : 	{
; 398  : 		double temp = pDateList->GetPrev(Datepos);

  00152	f2 0f 10 46 08	 movsd	 xmm0, QWORD PTR [esi+8]
; File C:\Program Files (x86)\Microsoft Visual Studio\2019\Community\VC\Tools\MSVC\14.29.30133\atlmfc\include\afxtempl.h

; 823  : 	{ CNode* pNode = (CNode*) rPosition;

  00157	8d 06		 lea	 eax, DWORD PTR [esi]

; 824  : 		ASSERT(AfxIsValidAddress(pNode, sizeof(CNode)));
; 825  : 		rPosition = (POSITION) pNode->pPrev;

  00159	8b 76 04	 mov	 esi, DWORD PTR [esi+4]
; File D:\git\src\IBK\IBK_DRFN\ProjSrc\SrcChartEx\ChartOCX\ChartFormulate\Indicator.cpp

; 399  : 		CString temp1 = CDataConversion::DoubleToString(temp, 0);

  0015c	8d 45 e0	 lea	 eax, DWORD PTR _temp$3[ebp]
  0015f	6a 00		 push	 0
  00161	50		 push	 eax
  00162	8d 45 08	 lea	 eax, DWORD PTR _temp1$4[ebp]
  00165	f2 0f 11 45 e0	 movsd	 QWORD PTR _temp$3[ebp], xmm0
  0016a	50		 push	 eax
  0016b	e8 00 00 00 00	 call	 ?DoubleToString@CDataConversion@@SA?AV?$CStringT@DV?$StrTraitMFC_DLL@DV?$ChTraitsCRT@D@ATL@@@@@ATL@@ABNH@Z ; CDataConversion::DoubleToString
  00170	83 c4 0c	 add	 esp, 12			; 0000000cH
; File C:\Program Files (x86)\Microsoft Visual Studio\2019\Community\VC\Tools\MSVC\14.29.30133\atlmfc\include\atlsimpstr.h

; 519  : 		return( GetData()->nDataLength );

  00173	8b 45 08	 mov	 eax, DWORD PTR _temp1$4[ebp]
; File D:\git\src\IBK\IBK_DRFN\ProjSrc\SrcChartEx\ChartOCX\ChartFormulate\Indicator.cpp

; 399  : 		CString temp1 = CDataConversion::DoubleToString(temp, 0);

  00176	c6 45 fc 05	 mov	 BYTE PTR __$EHRec$[ebp+8], 5
; File C:\Program Files (x86)\Microsoft Visual Studio\2019\Community\VC\Tools\MSVC\14.29.30133\atlmfc\include\atlsimpstr.h

; 519  : 		return( GetData()->nDataLength );

  0017a	8b 40 f4	 mov	 eax, DWORD PTR [eax-12]
; File D:\git\src\IBK\IBK_DRFN\ProjSrc\SrcChartEx\ChartOCX\ChartFormulate\Indicator.cpp

; 400  : 		if(temp1.GetLength() < 6) return 0;

  0017d	83 f8 06	 cmp	 eax, 6
  00180	0f 8c 86 00 00
	00		 jl	 $LN54@GetPreEndP

; 401  : 		temp1 = temp1.Mid(0, temp1.GetLength() - 4);

  00186	83 c0 fc	 add	 eax, -4			; fffffffcH
  00189	8d 4d 08	 lea	 ecx, DWORD PTR _temp1$4[ebp]
  0018c	50		 push	 eax
  0018d	6a 00		 push	 0
  0018f	8d 45 10	 lea	 eax, DWORD PTR $T7[ebp]
  00192	50		 push	 eax
  00193	ff 15 00 00 00
	00		 call	 DWORD PTR __imp_?Mid@?$CStringT@DV?$StrTraitMFC_DLL@DV?$ChTraitsCRT@D@ATL@@@@@ATL@@QBE?AV12@HH@Z
  00199	50		 push	 eax
  0019a	8d 4d 08	 lea	 ecx, DWORD PTR _temp1$4[ebp]
  0019d	c6 45 fc 06	 mov	 BYTE PTR __$EHRec$[ebp+8], 6
  001a1	ff 15 00 00 00
	00		 call	 DWORD PTR __imp_??4?$CStringT@DV?$StrTraitMFC_DLL@DV?$ChTraitsCRT@D@ATL@@@@@ATL@@QAEAAV01@ABV01@@Z
  001a7	8d 4d 10	 lea	 ecx, DWORD PTR $T7[ebp]
  001aa	c6 45 fc 05	 mov	 BYTE PTR __$EHRec$[ebp+8], 5
  001ae	ff 15 00 00 00
	00		 call	 DWORD PTR __imp_??1?$CStringT@DV?$StrTraitMFC_DLL@DV?$ChTraitsCRT@D@ATL@@@@@ATL@@QAE@XZ

; 402  : 		double comparedate = atof(temp1);

  001b4	ff 75 08	 push	 DWORD PTR _temp1$4[ebp]
  001b7	ff 15 00 00 00
	00		 call	 DWORD PTR __imp__atof
  001bd	dd 5d c8	 fstp	 QWORD PTR _comparedate$2[ebp]

; 403  : 		if(comparedate != date)

  001c0	f2 0f 10 45 c8	 movsd	 xmm0, QWORD PTR _comparedate$2[ebp]
  001c5	83 c4 04	 add	 esp, 4
  001c8	66 0f 2e 45 d8	 ucomisd xmm0, QWORD PTR _date$[ebp]
  001cd	9f		 lahf
  001ce	f6 c4 44	 test	 ah, 68			; 00000044H
  001d1	7a 2c		 jp	 SHORT $LN55@GetPreEndP

; 406  : 		}
; 407  : 		ReturnIndex++;
; 408  : 	}

  001d3	8d 4d 08	 lea	 ecx, DWORD PTR _temp1$4[ebp]
  001d6	c6 45 fc 02	 mov	 BYTE PTR __$EHRec$[ebp+8], 2
  001da	47		 inc	 edi
  001db	ff 15 00 00 00
	00		 call	 DWORD PTR __imp_??1?$CStringT@DV?$StrTraitMFC_DLL@DV?$ChTraitsCRT@D@ATL@@@@@ATL@@QAE@XZ
  001e1	85 f6		 test	 esi, esi
  001e3	0f 85 69 ff ff
	ff		 jne	 $LL2@GetPreEndP
$LN8@GetPreEndP:

; 409  : 	return 0;

  001e9	33 db		 xor	 ebx, ebx
$LN22@GetPreEndP:
  001eb	8d 4d f0	 lea	 ecx, DWORD PTR _first$[ebp]
  001ee	ff 15 00 00 00
	00		 call	 DWORD PTR __imp_??1?$CStringT@DV?$StrTraitMFC_DLL@DV?$ChTraitsCRT@D@ATL@@@@@ATL@@QAE@XZ
  001f4	8d 4d ec	 lea	 ecx, DWORD PTR _Date$[ebp]
  001f7	ff 15 00 00 00
	00		 call	 DWORD PTR __imp_??1?$CStringT@DV?$StrTraitMFC_DLL@DV?$ChTraitsCRT@D@ATL@@@@@ATL@@QAE@XZ
  001fd	eb 1c		 jmp	 SHORT $LN19@GetPreEndP
$LN55@GetPreEndP:

; 404  : 		{
; 405  : 			return startindex - ReturnIndex;

  001ff	8d 4d 08	 lea	 ecx, DWORD PTR _temp1$4[ebp]
  00202	2b df		 sub	 ebx, edi
  00204	ff 15 00 00 00
	00		 call	 DWORD PTR __imp_??1?$CStringT@DV?$StrTraitMFC_DLL@DV?$ChTraitsCRT@D@ATL@@@@@ATL@@QAE@XZ
  0020a	eb df		 jmp	 SHORT $LN22@GetPreEndP
$LN54@GetPreEndP:
  0020c	8d 4d 08	 lea	 ecx, DWORD PTR _temp1$4[ebp]
  0020f	33 db		 xor	 ebx, ebx
  00211	ff 15 00 00 00
	00		 call	 DWORD PTR __imp_??1?$CStringT@DV?$StrTraitMFC_DLL@DV?$ChTraitsCRT@D@ATL@@@@@ATL@@QAE@XZ
  00217	eb d2		 jmp	 SHORT $LN22@GetPreEndP
$LN6@GetPreEndP:
  00219	33 db		 xor	 ebx, ebx
$LN19@GetPreEndP:

; 409  : 	return 0;

  0021b	8d 4d e8	 lea	 ecx, DWORD PTR _StartDate$[ebp]
  0021e	ff 15 00 00 00
	00		 call	 DWORD PTR __imp_??1?$CStringT@DV?$StrTraitMFC_DLL@DV?$ChTraitsCRT@D@ATL@@@@@ATL@@QAE@XZ
  00224	8b c3		 mov	 eax, ebx

; 410  : }

  00226	8b 4d f4	 mov	 ecx, DWORD PTR __$EHRec$[ebp]
  00229	64 89 0d 00 00
	00 00		 mov	 DWORD PTR fs:0, ecx
  00230	59		 pop	 ecx
  00231	5f		 pop	 edi
  00232	5e		 pop	 esi
  00233	5b		 pop	 ebx
  00234	8b e5		 mov	 esp, ebp
  00236	5d		 pop	 ebp
  00237	c2 0c 00	 ret	 12			; 0000000cH
_TEXT	ENDS
;	COMDAT text$x
text$x	SEGMENT
__unwindfunclet$?GetPreEndPrice@CIndicator@@IAEHPAV?$CList@NN@@W4HORZSCALEDRAWERTYPE@CScaleBaseData@@H@Z$0:
  00000	8d 4d e8	 lea	 ecx, DWORD PTR _StartDate$[ebp]
  00003	ff 25 00 00 00
	00		 jmp	 DWORD PTR __imp_??1?$CStringT@DV?$StrTraitMFC_DLL@DV?$ChTraitsCRT@D@ATL@@@@@ATL@@QAE@XZ
__unwindfunclet$?GetPreEndPrice@CIndicator@@IAEHPAV?$CList@NN@@W4HORZSCALEDRAWERTYPE@CScaleBaseData@@H@Z$1:
  00009	8d 4d ec	 lea	 ecx, DWORD PTR _Date$[ebp]
  0000c	ff 25 00 00 00
	00		 jmp	 DWORD PTR __imp_??1?$CStringT@DV?$StrTraitMFC_DLL@DV?$ChTraitsCRT@D@ATL@@@@@ATL@@QAE@XZ
__unwindfunclet$?GetPreEndPrice@CIndicator@@IAEHPAV?$CList@NN@@W4HORZSCALEDRAWERTYPE@CScaleBaseData@@H@Z$2:
  00012	8d 4d f0	 lea	 ecx, DWORD PTR _first$[ebp]
  00015	ff 25 00 00 00
	00		 jmp	 DWORD PTR __imp_??1?$CStringT@DV?$StrTraitMFC_DLL@DV?$ChTraitsCRT@D@ATL@@@@@ATL@@QAE@XZ
__unwindfunclet$?GetPreEndPrice@CIndicator@@IAEHPAV?$CList@NN@@W4HORZSCALEDRAWERTYPE@CScaleBaseData@@H@Z$3:
  0001b	8d 4d 08	 lea	 ecx, DWORD PTR $T6[ebp]
  0001e	ff 25 00 00 00
	00		 jmp	 DWORD PTR __imp_??1?$CStringT@DV?$StrTraitMFC_DLL@DV?$ChTraitsCRT@D@ATL@@@@@ATL@@QAE@XZ
__unwindfunclet$?GetPreEndPrice@CIndicator@@IAEHPAV?$CList@NN@@W4HORZSCALEDRAWERTYPE@CScaleBaseData@@H@Z$4:
  00024	8d 4d 08	 lea	 ecx, DWORD PTR $T5[ebp]
  00027	ff 25 00 00 00
	00		 jmp	 DWORD PTR __imp_??1?$CStringT@DV?$StrTraitMFC_DLL@DV?$ChTraitsCRT@D@ATL@@@@@ATL@@QAE@XZ
__unwindfunclet$?GetPreEndPrice@CIndicator@@IAEHPAV?$CList@NN@@W4HORZSCALEDRAWERTYPE@CScaleBaseData@@H@Z$5:
  0002d	8d 4d 08	 lea	 ecx, DWORD PTR _temp1$4[ebp]
  00030	ff 25 00 00 00
	00		 jmp	 DWORD PTR __imp_??1?$CStringT@DV?$StrTraitMFC_DLL@DV?$ChTraitsCRT@D@ATL@@@@@ATL@@QAE@XZ
__unwindfunclet$?GetPreEndPrice@CIndicator@@IAEHPAV?$CList@NN@@W4HORZSCALEDRAWERTYPE@CScaleBaseData@@H@Z$6:
  00036	8d 4d 10	 lea	 ecx, DWORD PTR $T7[ebp]
  00039	ff 25 00 00 00
	00		 jmp	 DWORD PTR __imp_??1?$CStringT@DV?$StrTraitMFC_DLL@DV?$ChTraitsCRT@D@ATL@@@@@ATL@@QAE@XZ
  0003f	cc		 int	 3
  00040	cc		 int	 3
  00041	cc		 int	 3
  00042	cc		 int	 3
  00043	cc		 int	 3
__ehhandler$?GetPreEndPrice@CIndicator@@IAEHPAV?$CList@NN@@W4HORZSCALEDRAWERTYPE@CScaleBaseData@@H@Z:
  00044	90		 npad	 1
  00045	90		 npad	 1
  00046	8b 54 24 08	 mov	 edx, DWORD PTR [esp+8]
  0004a	8d 42 0c	 lea	 eax, DWORD PTR [edx+12]
  0004d	8b 4a c4	 mov	 ecx, DWORD PTR [edx-60]
  00050	33 c8		 xor	 ecx, eax
  00052	e8 00 00 00 00	 call	 @__security_check_cookie@4
  00057	b8 00 00 00 00	 mov	 eax, OFFSET __ehfuncinfo$?GetPreEndPrice@CIndicator@@IAEHPAV?$CList@NN@@W4HORZSCALEDRAWERTYPE@CScaleBaseData@@H@Z
  0005c	e9 00 00 00 00	 jmp	 ___CxxFrameHandler3
text$x	ENDS
?GetPreEndPrice@CIndicator@@IAEHPAV?$CList@NN@@W4HORZSCALEDRAWERTYPE@CScaleBaseData@@H@Z ENDP ; CIndicator::GetPreEndPrice
; Function compile flags: /Ogtp
; File D:\git\src\IBK\IBK_DRFN\ProjSrc\SrcChartEx\ChartOCX\ChartFormulate\Indicator.cpp
; File C:\Program Files (x86)\Microsoft Visual Studio\2019\Community\VC\Tools\MSVC\14.29.30133\atlmfc\include\afxtempl.h
; File D:\git\src\IBK\IBK_DRFN\ProjSrc\SrcChartEx\ChartOCX\ChartFormulate\Indicator.cpp
;	COMDAT ?GetCondition@CIndicator@@IBENABHPAV?$CList@NN@@@Z
_TEXT	SEGMENT
_data$1 = -8						; size = 8
_nIndex$ = 8						; size = 4
_pConditionList$ = 12					; size = 4
?GetCondition@CIndicator@@IBENABHPAV?$CList@NN@@@Z PROC	; CIndicator::GetCondition, COMDAT
; _this$ = ecx

; 414  : {

  00000	55		 push	 ebp
  00001	8b ec		 mov	 ebp, esp

; 415  : 	// (2004.02.07, ) NULL Pointer Exception , .
; 416  : 	if(!pConditionList)

  00003	8b 4d 0c	 mov	 ecx, DWORD PTR _pConditionList$[ebp]
  00006	83 ec 08	 sub	 esp, 8
  00009	56		 push	 esi
  0000a	85 c9		 test	 ecx, ecx
  0000c	74 29		 je	 SHORT $LN3@GetConditi

; 417  : 		return 0;
; 418  : 
; 419  : 	int i=0;
; 420  : 	POSITION pos = pConditionList->GetHeadPosition();

  0000e	8b 49 04	 mov	 ecx, DWORD PTR [ecx+4]
  00011	33 d2		 xor	 edx, edx

; 421  : 	while(pos) {

  00013	85 c9		 test	 ecx, ecx
  00015	74 20		 je	 SHORT $LN3@GetConditi

; 423  : 		if(i == nIndex) 

  00017	8b 45 08	 mov	 eax, DWORD PTR _nIndex$[ebp]
  0001a	8b 30		 mov	 esi, DWORD PTR [eax]
  0001c	0f 1f 40 00	 npad	 4
$LL2@GetConditi:

; 422  : 		double data = pConditionList->GetNext(pos);

  00020	f2 0f 10 41 08	 movsd	 xmm0, QWORD PTR [ecx+8]
; File C:\Program Files (x86)\Microsoft Visual Studio\2019\Community\VC\Tools\MSVC\14.29.30133\atlmfc\include\afxtempl.h

; 811  : 	{ CNode* pNode = (CNode*) rPosition;

  00025	8d 01		 lea	 eax, DWORD PTR [ecx]

; 812  : 		ASSERT(AfxIsValidAddress(pNode, sizeof(CNode)));
; 813  : 		rPosition = (POSITION) pNode->pNext;

  00027	8b 09		 mov	 ecx, DWORD PTR [ecx]
; File D:\git\src\IBK\IBK_DRFN\ProjSrc\SrcChartEx\ChartOCX\ChartFormulate\Indicator.cpp

; 422  : 		double data = pConditionList->GetNext(pos);

  00029	f2 0f 11 45 f8	 movsd	 QWORD PTR _data$1[ebp], xmm0

; 423  : 		if(i == nIndex) 

  0002e	3b d6		 cmp	 edx, esi
  00030	74 0e		 je	 SHORT $LN10@GetConditi

; 425  : 		i++;

  00032	42		 inc	 edx
  00033	85 c9		 test	 ecx, ecx
  00035	75 e9		 jne	 SHORT $LL2@GetConditi
$LN3@GetConditi:

; 426  : 	}
; 427  : 	return 0;

  00037	d9 ee		 fldz
  00039	5e		 pop	 esi

; 428  : }

  0003a	8b e5		 mov	 esp, ebp
  0003c	5d		 pop	 ebp
  0003d	c2 08 00	 ret	 8
$LN10@GetConditi:

; 424  : 			return data;

  00040	dd 45 f8	 fld	 QWORD PTR _data$1[ebp]
  00043	5e		 pop	 esi

; 428  : }

  00044	8b e5		 mov	 esp, ebp
  00046	5d		 pop	 ebp
  00047	c2 08 00	 ret	 8
?GetCondition@CIndicator@@IBENABHPAV?$CList@NN@@@Z ENDP	; CIndicator::GetCondition
_TEXT	ENDS
; Function compile flags: /Ogtp
; File D:\git\src\IBK\IBK_DRFN\ProjSrc\SrcChartEx\ChartOCX\ChartFormulate\Indicator.cpp
; File C:\Program Files (x86)\Microsoft Visual Studio\2019\Community\VC\Tools\MSVC\14.29.30133\atlmfc\include\afxtempl.h
; File D:\git\src\IBK\IBK_DRFN\ProjSrc\SrcChartEx\ChartOCX\ChartFormulate\Indicator.cpp
; File D:\git\src\IBK\IBK_DRFN\ProjSrc\SrcChartEx\ChartOCX\Include_Chart\ChartFormulateData.h
; File D:\git\src\IBK\IBK_DRFN\ProjSrc\SrcChartEx\ChartOCX\ChartFormulate\Indicator.cpp
; File C:\Program Files (x86)\Microsoft Visual Studio\2019\Community\VC\Tools\MSVC\14.29.30133\atlmfc\include\cstringt.h
; File D:\git\src\IBK\IBK_DRFN\ProjSrc\SrcChartEx\ChartOCX\ChartFormulate\Indicator.cpp
; File C:\Program Files (x86)\Microsoft Visual Studio\2019\Community\VC\Tools\MSVC\14.29.30133\atlmfc\include\cstringt.h
; File D:\git\src\IBK\IBK_DRFN\ProjSrc\SrcChartEx\ChartOCX\ChartFormulate\Indicator.cpp
; File C:\Program Files (x86)\Microsoft Visual Studio\2019\Community\VC\Tools\MSVC\14.29.30133\atlmfc\include\cstringt.h
; File D:\git\src\IBK\IBK_DRFN\ProjSrc\SrcChartEx\ChartOCX\ChartFormulate\Indicator.cpp
; File C:\Program Files (x86)\Microsoft Visual Studio\2019\Community\VC\Tools\MSVC\14.29.30133\atlmfc\include\afxtempl.h
; File D:\git\src\IBK\IBK_DRFN\ProjSrc\SrcChartEx\ChartOCX\Include_Chart\ChartFormulateData.h
; File C:\Program Files (x86)\Microsoft Visual Studio\2019\Community\VC\Tools\MSVC\14.29.30133\atlmfc\include\cstringt.h
; File D:\git\src\IBK\IBK_DRFN\ProjSrc\SrcChartEx\ChartOCX\ChartFormulate\Indicator.cpp
; File C:\Program Files (x86)\Microsoft Visual Studio\2019\Community\VC\Tools\MSVC\14.29.30133\atlmfc\include\cstringt.h
; File D:\git\src\IBK\IBK_DRFN\ProjSrc\SrcChartEx\ChartOCX\ChartFormulate\Indicator.cpp
; File C:\Program Files (x86)\Microsoft Visual Studio\2019\Community\VC\Tools\MSVC\14.29.30133\atlmfc\include\cstringt.h
; File D:\git\src\IBK\IBK_DRFN\ProjSrc\SrcChartEx\ChartOCX\ChartFormulate\Indicator.cpp
; File C:\Program Files (x86)\Microsoft Visual Studio\2019\Community\VC\Tools\MSVC\14.29.30133\atlmfc\include\afxtempl.h
; File D:\git\src\IBK\IBK_DRFN\ProjSrc\SrcChartEx\ChartOCX\ChartFormulate\Indicator.cpp
;	COMDAT ?GetKindMA@CIndicator@@IAENABVCChartFormulateData@@PAV?$CList@NN@@@Z
_TEXT	SEGMENT
$T2 = -20						; size = 8
tv247 = -16						; size = 4
__$EHRec$ = -12						; size = 12
$T3 = 8							; size = 4
_chartFormulateData$ = 8				; size = 4
$T4 = 12						; size = 4
_pConditionList$ = 12					; size = 4
?GetKindMA@CIndicator@@IAENABVCChartFormulateData@@PAV?$CList@NN@@@Z PROC ; CIndicator::GetKindMA, COMDAT
; _this$ = ecx

; 317  : {

  00000	55		 push	 ebp
  00001	8b ec		 mov	 ebp, esp
  00003	6a ff		 push	 -1
  00005	68 00 00 00 00	 push	 __ehhandler$?GetKindMA@CIndicator@@IAENABVCChartFormulateData@@PAV?$CList@NN@@@Z
  0000a	64 a1 00 00 00
	00		 mov	 eax, DWORD PTR fs:0
  00010	50		 push	 eax
  00011	83 ec 08	 sub	 esp, 8
  00014	53		 push	 ebx
  00015	56		 push	 esi
  00016	57		 push	 edi
  00017	a1 00 00 00 00	 mov	 eax, DWORD PTR ___security_cookie
  0001c	33 c5		 xor	 eax, ebp
  0001e	50		 push	 eax
  0001f	8d 45 f4	 lea	 eax, DWORD PTR __$EHRec$[ebp]
  00022	64 a3 00 00 00
	00		 mov	 DWORD PTR fs:0, eax
  00028	8b d9		 mov	 ebx, ecx

; 318  : 	if(pConditionList == NULL || pConditionList->GetCount() <= 0)

  0002a	8b 7d 0c	 mov	 edi, DWORD PTR _pConditionList$[ebp]
  0002d	85 ff		 test	 edi, edi
  0002f	0f 84 07 01 00
	00		 je	 $LN3@GetKindMA
  00035	8b 47 0c	 mov	 eax, DWORD PTR [edi+12]
  00038	85 c0		 test	 eax, eax
  0003a	0f 8e fc 00 00
	00		 jle	 $LN3@GetKindMA

; 320  : 
; 321  : 	if(pConditionList->GetCount() < 5)

  00040	83 f8 05	 cmp	 eax, 5
  00043	7d 22		 jge	 SHORT $LN4@GetKindMA
; File C:\Program Files (x86)\Microsoft Visual Studio\2019\Community\VC\Tools\MSVC\14.29.30133\atlmfc\include\afxtempl.h

; 797  : 	{ ENSURE(m_pNodeTail != NULL);

  00045	8b 47 08	 mov	 eax, DWORD PTR [edi+8]
  00048	85 c0		 test	 eax, eax
  0004a	0f 84 06 01 00
	00		 je	 $LN42@GetKindMA
$LN26@GetKindMA:
; File D:\git\src\IBK\IBK_DRFN\ProjSrc\SrcChartEx\ChartOCX\ChartFormulate\Indicator.cpp

; 335  : }

  00050	dd 40 08	 fld	 QWORD PTR [eax+8]
  00053	8b 4d f4	 mov	 ecx, DWORD PTR __$EHRec$[ebp]
  00056	64 89 0d 00 00
	00 00		 mov	 DWORD PTR fs:0, ecx
  0005d	59		 pop	 ecx
  0005e	5f		 pop	 edi
  0005f	5e		 pop	 esi
  00060	5b		 pop	 ebx
  00061	8b e5		 mov	 esp, ebp
  00063	5d		 pop	 ebp
  00064	c2 08 00	 ret	 8
$LN4@GetKindMA:
; File D:\git\src\IBK\IBK_DRFN\ProjSrc\SrcChartEx\ChartOCX\Include_Chart\ChartFormulateData.h

; 42   : 	CString		GetGraphName( void) const								{	return m_strGraphName;			}

  00067	8b 45 08	 mov	 eax, DWORD PTR _chartFormulateData$[ebp]
  0006a	8d 4d 0c	 lea	 ecx, DWORD PTR $T4[ebp]
  0006d	83 c0 04	 add	 eax, 4
  00070	50		 push	 eax
  00071	89 45 f0	 mov	 DWORD PTR tv247[ebp], eax
  00074	ff 15 00 00 00
	00		 call	 DWORD PTR __imp_??0?$CStringT@DV?$StrTraitMFC_DLL@DV?$ChTraitsCRT@D@ATL@@@@@ATL@@QAE@ABV01@@Z
; File D:\git\src\IBK\IBK_DRFN\ProjSrc\SrcChartEx\ChartOCX\ChartFormulate\Indicator.cpp

; 326  : 		if(chartFormulateData.GetGraphName() == _MTEXT( C2_PRICE_MA))

  0007a	a1 54 00 00 00	 mov	 eax, DWORD PTR ?g_iMetaTable@@3VIMetaTable@@A+84
; File C:\Program Files (x86)\Microsoft Visual Studio\2019\Community\VC\Tools\MSVC\14.29.30133\atlmfc\include\cstringt.h

; 2486 : 		return(str1.Compare(psz2) == 0);

  0007f	8d 4d 0c	 lea	 ecx, DWORD PTR $T4[ebp]
; File D:\git\src\IBK\IBK_DRFN\ProjSrc\SrcChartEx\ChartOCX\ChartFormulate\Indicator.cpp

; 326  : 		if(chartFormulateData.GetGraphName() == _MTEXT( C2_PRICE_MA))

  00082	c7 45 fc 00 00
	00 00		 mov	 DWORD PTR __$EHRec$[ebp+8], 0
; File C:\Program Files (x86)\Microsoft Visual Studio\2019\Community\VC\Tools\MSVC\14.29.30133\atlmfc\include\cstringt.h

; 2486 : 		return(str1.Compare(psz2) == 0);

  00089	ff b0 20 03 00
	00		 push	 DWORD PTR [eax+800]
  0008f	ff 15 00 00 00
	00		 call	 DWORD PTR __imp_?Compare@?$CStringT@DV?$StrTraitMFC_DLL@DV?$ChTraitsCRT@D@ATL@@@@@ATL@@QBEHPBD@Z
; File D:\git\src\IBK\IBK_DRFN\ProjSrc\SrcChartEx\ChartOCX\ChartFormulate\Indicator.cpp

; 326  : 		if(chartFormulateData.GetGraphName() == _MTEXT( C2_PRICE_MA))

  00095	8d 4d 0c	 lea	 ecx, DWORD PTR $T4[ebp]
  00098	c7 45 fc ff ff
	ff ff		 mov	 DWORD PTR __$EHRec$[ebp+8], -1
; File C:\Program Files (x86)\Microsoft Visual Studio\2019\Community\VC\Tools\MSVC\14.29.30133\atlmfc\include\cstringt.h

; 2486 : 		return(str1.Compare(psz2) == 0);

  0009f	8b f0		 mov	 esi, eax
; File D:\git\src\IBK\IBK_DRFN\ProjSrc\SrcChartEx\ChartOCX\ChartFormulate\Indicator.cpp

; 326  : 		if(chartFormulateData.GetGraphName() == _MTEXT( C2_PRICE_MA))

  000a1	ff 15 00 00 00
	00		 call	 DWORD PTR __imp_??1?$CStringT@DV?$StrTraitMFC_DLL@DV?$ChTraitsCRT@D@ATL@@@@@ATL@@QAE@XZ
  000a7	85 f6		 test	 esi, esi
  000a9	75 0d		 jne	 SHORT $LN6@GetKindMA
; File C:\Program Files (x86)\Microsoft Visual Studio\2019\Community\VC\Tools\MSVC\14.29.30133\atlmfc\include\afxtempl.h

; 797  : 	{ ENSURE(m_pNodeTail != NULL);

  000ab	8b 47 08	 mov	 eax, DWORD PTR [edi+8]
  000ae	85 c0		 test	 eax, eax
  000b0	0f 84 a0 00 00
	00		 je	 $LN42@GetKindMA
  000b6	eb 98		 jmp	 SHORT $LN26@GetKindMA
$LN6@GetKindMA:
; File D:\git\src\IBK\IBK_DRFN\ProjSrc\SrcChartEx\ChartOCX\Include_Chart\ChartFormulateData.h

; 42   : 	CString		GetGraphName( void) const								{	return m_strGraphName;			}

  000b8	ff 75 f0	 push	 DWORD PTR tv247[ebp]
  000bb	8d 4d 08	 lea	 ecx, DWORD PTR $T3[ebp]
  000be	ff 15 00 00 00
	00		 call	 DWORD PTR __imp_??0?$CStringT@DV?$StrTraitMFC_DLL@DV?$ChTraitsCRT@D@ATL@@@@@ATL@@QAE@ABV01@@Z
; File C:\Program Files (x86)\Microsoft Visual Studio\2019\Community\VC\Tools\MSVC\14.29.30133\atlmfc\include\cstringt.h

; 2486 : 		return(str1.Compare(psz2) == 0);

  000c4	a1 54 00 00 00	 mov	 eax, DWORD PTR ?g_iMetaTable@@3VIMetaTable@@A+84
  000c9	8d 4d 08	 lea	 ecx, DWORD PTR $T3[ebp]
; File D:\git\src\IBK\IBK_DRFN\ProjSrc\SrcChartEx\ChartOCX\ChartFormulate\Indicator.cpp

; 331  : 		else if(chartFormulateData.GetGraphName() == _MTEXT( C2_VOLUME_MA))

  000cc	c7 45 fc 01 00
	00 00		 mov	 DWORD PTR __$EHRec$[ebp+8], 1
; File C:\Program Files (x86)\Microsoft Visual Studio\2019\Community\VC\Tools\MSVC\14.29.30133\atlmfc\include\cstringt.h

; 2486 : 		return(str1.Compare(psz2) == 0);

  000d3	ff b0 24 03 00
	00		 push	 DWORD PTR [eax+804]
  000d9	ff 15 00 00 00
	00		 call	 DWORD PTR __imp_?Compare@?$CStringT@DV?$StrTraitMFC_DLL@DV?$ChTraitsCRT@D@ATL@@@@@ATL@@QBEHPBD@Z
; File D:\git\src\IBK\IBK_DRFN\ProjSrc\SrcChartEx\ChartOCX\ChartFormulate\Indicator.cpp

; 331  : 		else if(chartFormulateData.GetGraphName() == _MTEXT( C2_VOLUME_MA))

  000df	8d 4d 08	 lea	 ecx, DWORD PTR $T3[ebp]
; File C:\Program Files (x86)\Microsoft Visual Studio\2019\Community\VC\Tools\MSVC\14.29.30133\atlmfc\include\cstringt.h

; 2486 : 		return(str1.Compare(psz2) == 0);

  000e2	8b f0		 mov	 esi, eax
; File D:\git\src\IBK\IBK_DRFN\ProjSrc\SrcChartEx\ChartOCX\ChartFormulate\Indicator.cpp

; 331  : 		else if(chartFormulateData.GetGraphName() == _MTEXT( C2_VOLUME_MA))

  000e4	ff 15 00 00 00
	00		 call	 DWORD PTR __imp_??1?$CStringT@DV?$StrTraitMFC_DLL@DV?$ChTraitsCRT@D@ATL@@@@@ATL@@QAE@XZ
  000ea	85 f6		 test	 esi, esi
  000ec	75 4e		 jne	 SHORT $LN3@GetKindMA

; 298  : 	POSITION pos = FindPosition(nIndex, *pSourceList);

  000ee	57		 push	 edi
  000ef	6a 04		 push	 4
  000f1	8b cb		 mov	 ecx, ebx
  000f3	e8 00 00 00 00	 call	 ?FindPosition@CIndicator@@IBEPAU__POSITION@@HABV?$CList@NN@@@Z ; CIndicator::FindPosition

; 299  : 	if(pos == NULL)

  000f8	85 c0		 test	 eax, eax
  000fa	75 1f		 jne	 SHORT $LN40@GetKindMA

; 332  : 			return GetAt(pConditionList, 4);

  000fc	0f 57 c0	 xorps	 xmm0, xmm0
  000ff	f2 0f 11 45 ec	 movsd	 QWORD PTR $T2[ebp], xmm0
  00104	dd 45 ec	 fld	 QWORD PTR $T2[ebp]

; 335  : }

  00107	8b 4d f4	 mov	 ecx, DWORD PTR __$EHRec$[ebp]
  0010a	64 89 0d 00 00
	00 00		 mov	 DWORD PTR fs:0, ecx
  00111	59		 pop	 ecx
  00112	5f		 pop	 edi
  00113	5e		 pop	 esi
  00114	5b		 pop	 ebx
  00115	8b e5		 mov	 esp, ebp
  00117	5d		 pop	 ebp
  00118	c2 08 00	 ret	 8
$LN40@GetKindMA:

; 302  : 	return pSourceList->GetAt(pos);

  0011b	f2 0f 10 40 08	 movsd	 xmm0, QWORD PTR [eax+8]

; 332  : 			return GetAt(pConditionList, 4);

  00120	f2 0f 11 45 ec	 movsd	 QWORD PTR $T2[ebp], xmm0
  00125	dd 45 ec	 fld	 QWORD PTR $T2[ebp]

; 335  : }

  00128	8b 4d f4	 mov	 ecx, DWORD PTR __$EHRec$[ebp]
  0012b	64 89 0d 00 00
	00 00		 mov	 DWORD PTR fs:0, ecx
  00132	59		 pop	 ecx
  00133	5f		 pop	 edi
  00134	5e		 pop	 esi
  00135	5b		 pop	 ebx
  00136	8b e5		 mov	 esp, ebp
  00138	5d		 pop	 ebp
  00139	c2 08 00	 ret	 8
$LN3@GetKindMA:

; 319  : 		return -1;

  0013c	dd 05 00 00 00
	00		 fld	 QWORD PTR __real@bff0000000000000

; 335  : }

  00142	8b 4d f4	 mov	 ecx, DWORD PTR __$EHRec$[ebp]
  00145	64 89 0d 00 00
	00 00		 mov	 DWORD PTR fs:0, ecx
  0014c	59		 pop	 ecx
  0014d	5f		 pop	 edi
  0014e	5e		 pop	 esi
  0014f	5b		 pop	 ebx
  00150	8b e5		 mov	 esp, ebp
  00152	5d		 pop	 ebp
  00153	c2 08 00	 ret	 8
$LN42@GetKindMA:
; File C:\Program Files (x86)\Microsoft Visual Studio\2019\Community\VC\Tools\MSVC\14.29.30133\atlmfc\include\afxtempl.h

; 797  : 	{ ENSURE(m_pNodeTail != NULL);

  00156	e8 00 00 00 00	 call	 ?AfxThrowInvalidArgException@@YGXXZ ; AfxThrowInvalidArgException
$LN44@GetKindMA:
  0015b	cc		 int	 3
_TEXT	ENDS
;	COMDAT text$x
text$x	SEGMENT
__unwindfunclet$?GetKindMA@CIndicator@@IAENABVCChartFormulateData@@PAV?$CList@NN@@@Z$0:
  00000	8d 4d 0c	 lea	 ecx, DWORD PTR $T4[ebp]
  00003	ff 25 00 00 00
	00		 jmp	 DWORD PTR __imp_??1?$CStringT@DV?$StrTraitMFC_DLL@DV?$ChTraitsCRT@D@ATL@@@@@ATL@@QAE@XZ
__unwindfunclet$?GetKindMA@CIndicator@@IAENABVCChartFormulateData@@PAV?$CList@NN@@@Z$1:
  00009	8d 4d 08	 lea	 ecx, DWORD PTR $T3[ebp]
  0000c	ff 25 00 00 00
	00		 jmp	 DWORD PTR __imp_??1?$CStringT@DV?$StrTraitMFC_DLL@DV?$ChTraitsCRT@D@ATL@@@@@ATL@@QAE@XZ
  00012	cc		 int	 3
  00013	cc		 int	 3
  00014	cc		 int	 3
  00015	cc		 int	 3
  00016	cc		 int	 3
__ehhandler$?GetKindMA@CIndicator@@IAENABVCChartFormulateData@@PAV?$CList@NN@@@Z:
  00017	90		 npad	 1
  00018	90		 npad	 1
  00019	8b 54 24 08	 mov	 edx, DWORD PTR [esp+8]
  0001d	8d 42 0c	 lea	 eax, DWORD PTR [edx+12]
  00020	8b 4a e8	 mov	 ecx, DWORD PTR [edx-24]
  00023	33 c8		 xor	 ecx, eax
  00025	e8 00 00 00 00	 call	 @__security_check_cookie@4
  0002a	b8 00 00 00 00	 mov	 eax, OFFSET __ehfuncinfo$?GetKindMA@CIndicator@@IAENABVCChartFormulateData@@PAV?$CList@NN@@@Z
  0002f	e9 00 00 00 00	 jmp	 ___CxxFrameHandler3
text$x	ENDS
?GetKindMA@CIndicator@@IAENABVCChartFormulateData@@PAV?$CList@NN@@@Z ENDP ; CIndicator::GetKindMA
; Function compile flags: /Ogtp
; File D:\git\src\IBK\IBK_DRFN\ProjSrc\SrcChartEx\ChartOCX\ChartFormulate\Indicator.cpp
; File C:\Program Files (x86)\Microsoft Visual Studio\2019\Community\VC\Tools\MSVC\14.29.30133\atlmfc\include\afxtempl.h
; File D:\git\src\IBK\IBK_DRFN\ProjSrc\SrcChartEx\ChartOCX\ChartFormulate\Indicator.cpp
;	COMDAT ?GetNext@CIndicator@@IAE?AV?$CStringT@DV?$StrTraitMFC_DLL@DV?$ChTraitsCRT@D@ATL@@@@@ATL@@PBV?$CList@V?$CStringT@DV?$StrTraitMFC_DLL@DV?$ChTraitsCRT@D@ATL@@@@@ATL@@V12@@@AAPAU__POSITION@@@Z
_TEXT	SEGMENT
___$ReturnUdt$ = 8					; size = 4
_pSourceList$ = 12					; size = 4
_pos$ = 16						; size = 4
?GetNext@CIndicator@@IAE?AV?$CStringT@DV?$StrTraitMFC_DLL@DV?$ChTraitsCRT@D@ATL@@@@@ATL@@PBV?$CList@V?$CStringT@DV?$StrTraitMFC_DLL@DV?$ChTraitsCRT@D@ATL@@@@@ATL@@V12@@@AAPAU__POSITION@@@Z PROC ; CIndicator::GetNext, COMDAT
; _this$ = ecx

; 347  : {

  00000	55		 push	 ebp
  00001	8b ec		 mov	 ebp, esp

; 348  : 	if(pSourceList == NULL || pos == NULL) 

  00003	83 7d 0c 00	 cmp	 DWORD PTR _pSourceList$[ebp], 0
  00007	56		 push	 esi
  00008	74 22		 je	 SHORT $LN3@GetNext
  0000a	8b 55 10	 mov	 edx, DWORD PTR _pos$[ebp]
  0000d	8b 0a		 mov	 ecx, DWORD PTR [edx]
  0000f	85 c9		 test	 ecx, ecx
  00011	74 19		 je	 SHORT $LN3@GetNext
; File C:\Program Files (x86)\Microsoft Visual Studio\2019\Community\VC\Tools\MSVC\14.29.30133\atlmfc\include\afxtempl.h

; 819  : 		rPosition = (POSITION) pNode->pNext;

  00013	8b 01		 mov	 eax, DWORD PTR [ecx]
  00015	89 02		 mov	 DWORD PTR [edx], eax

; 820  : 		return pNode->data; }

  00017	8d 41 08	 lea	 eax, DWORD PTR [ecx+8]
; File D:\git\src\IBK\IBK_DRFN\ProjSrc\SrcChartEx\ChartOCX\ChartFormulate\Indicator.cpp

; 351  : 	return pSourceList->GetNext(pos);

  0001a	8b 4d 08	 mov	 ecx, DWORD PTR ___$ReturnUdt$[ebp]
  0001d	50		 push	 eax
  0001e	ff 15 00 00 00
	00		 call	 DWORD PTR __imp_??0?$CStringT@DV?$StrTraitMFC_DLL@DV?$ChTraitsCRT@D@ATL@@@@@ATL@@QAE@ABV01@@Z

; 352  : }

  00024	8b 45 08	 mov	 eax, DWORD PTR ___$ReturnUdt$[ebp]
  00027	5e		 pop	 esi
  00028	5d		 pop	 ebp
  00029	c2 0c 00	 ret	 12			; 0000000cH
$LN3@GetNext:

; 349  : 		return "";

  0002c	8b 4d 08	 mov	 ecx, DWORD PTR ___$ReturnUdt$[ebp]
  0002f	68 00 00 00 00	 push	 OFFSET ??_C@_00CNPNBAHC@@
  00034	ff 15 00 00 00
	00		 call	 DWORD PTR __imp_??0?$CStringT@DV?$StrTraitMFC_DLL@DV?$ChTraitsCRT@D@ATL@@@@@ATL@@QAE@PBD@Z

; 352  : }

  0003a	8b 45 08	 mov	 eax, DWORD PTR ___$ReturnUdt$[ebp]
  0003d	5e		 pop	 esi
  0003e	5d		 pop	 ebp
  0003f	c2 0c 00	 ret	 12			; 0000000cH
?GetNext@CIndicator@@IAE?AV?$CStringT@DV?$StrTraitMFC_DLL@DV?$ChTraitsCRT@D@ATL@@@@@ATL@@PBV?$CList@V?$CStringT@DV?$StrTraitMFC_DLL@DV?$ChTraitsCRT@D@ATL@@@@@ATL@@V12@@@AAPAU__POSITION@@@Z ENDP ; CIndicator::GetNext
_TEXT	ENDS
; Function compile flags: /Ogtp
; File D:\git\src\IBK\IBK_DRFN\ProjSrc\SrcChartEx\ChartOCX\ChartFormulate\Indicator.cpp
; File C:\Program Files (x86)\Microsoft Visual Studio\2019\Community\VC\Tools\MSVC\14.29.30133\atlmfc\include\afxtempl.h
; File D:\git\src\IBK\IBK_DRFN\ProjSrc\SrcChartEx\ChartOCX\ChartFormulate\Indicator.cpp
;	COMDAT ?GetNext@CIndicator@@IAENPBV?$CList@NN@@AAPAU__POSITION@@@Z
_TEXT	SEGMENT
_pSourceList$ = 8					; size = 4
_pos$ = 12						; size = 4
?GetNext@CIndicator@@IAENPBV?$CList@NN@@AAPAU__POSITION@@@Z PROC ; CIndicator::GetNext, COMDAT
; _this$ = ecx

; 339  : {

  00000	55		 push	 ebp
  00001	8b ec		 mov	 ebp, esp

; 340  : 	if(pSourceList == NULL || pos == NULL) 

  00003	83 7d 08 00	 cmp	 DWORD PTR _pSourceList$[ebp], 0
  00007	74 14		 je	 SHORT $LN3@GetNext
  00009	8b 55 0c	 mov	 edx, DWORD PTR _pos$[ebp]
  0000c	8b 0a		 mov	 ecx, DWORD PTR [edx]
  0000e	85 c9		 test	 ecx, ecx
  00010	74 0b		 je	 SHORT $LN3@GetNext
; File C:\Program Files (x86)\Microsoft Visual Studio\2019\Community\VC\Tools\MSVC\14.29.30133\atlmfc\include\afxtempl.h

; 819  : 		rPosition = (POSITION) pNode->pNext;

  00012	8b 01		 mov	 eax, DWORD PTR [ecx]
  00014	89 02		 mov	 DWORD PTR [edx], eax
; File D:\git\src\IBK\IBK_DRFN\ProjSrc\SrcChartEx\ChartOCX\ChartFormulate\Indicator.cpp

; 343  : 	return pSourceList->GetNext(pos);

  00016	dd 41 08	 fld	 QWORD PTR [ecx+8]

; 344  : }

  00019	5d		 pop	 ebp
  0001a	c2 08 00	 ret	 8
$LN3@GetNext:

; 341  : 		return 0.0;

  0001d	d9 ee		 fldz

; 344  : }

  0001f	5d		 pop	 ebp
  00020	c2 08 00	 ret	 8
?GetNext@CIndicator@@IAENPBV?$CList@NN@@AAPAU__POSITION@@@Z ENDP ; CIndicator::GetNext
_TEXT	ENDS
; Function compile flags: /Ogtp
; File D:\git\src\IBK\IBK_DRFN\ProjSrc\SrcChartEx\ChartOCX\ChartFormulate\Indicator.cpp
;	COMDAT ?GetAt@CIndicator@@IAE?AV?$CStringT@DV?$StrTraitMFC_DLL@DV?$ChTraitsCRT@D@ATL@@@@@ATL@@PBV?$CList@V?$CStringT@DV?$StrTraitMFC_DLL@DV?$ChTraitsCRT@D@ATL@@@@@ATL@@V12@@@AAPAU__POSITION@@@Z
_TEXT	SEGMENT
___$ReturnUdt$ = 8					; size = 4
_pSourceList$ = 12					; size = 4
_pos$ = 16						; size = 4
?GetAt@CIndicator@@IAE?AV?$CStringT@DV?$StrTraitMFC_DLL@DV?$ChTraitsCRT@D@ATL@@@@@ATL@@PBV?$CList@V?$CStringT@DV?$StrTraitMFC_DLL@DV?$ChTraitsCRT@D@ATL@@@@@ATL@@V12@@@AAPAU__POSITION@@@Z PROC ; CIndicator::GetAt, COMDAT
; _this$ = ecx

; 364  : {

  00000	55		 push	 ebp
  00001	8b ec		 mov	 ebp, esp

; 365  : 	if(pSourceList == NULL || pos == NULL) 

  00003	83 7d 0c 00	 cmp	 DWORD PTR _pSourceList$[ebp], 0
  00007	56		 push	 esi
  00008	74 1e		 je	 SHORT $LN3@GetAt
  0000a	8b 45 10	 mov	 eax, DWORD PTR _pos$[ebp]
  0000d	8b 00		 mov	 eax, DWORD PTR [eax]
  0000f	85 c0		 test	 eax, eax
  00011	74 15		 je	 SHORT $LN3@GetAt

; 367  : 
; 368  : 	return pSourceList->GetAt(pos);

  00013	8b 4d 08	 mov	 ecx, DWORD PTR ___$ReturnUdt$[ebp]
  00016	83 c0 08	 add	 eax, 8
  00019	50		 push	 eax
  0001a	ff 15 00 00 00
	00		 call	 DWORD PTR __imp_??0?$CStringT@DV?$StrTraitMFC_DLL@DV?$ChTraitsCRT@D@ATL@@@@@ATL@@QAE@ABV01@@Z

; 369  : }

  00020	8b 45 08	 mov	 eax, DWORD PTR ___$ReturnUdt$[ebp]
  00023	5e		 pop	 esi
  00024	5d		 pop	 ebp
  00025	c2 0c 00	 ret	 12			; 0000000cH
$LN3@GetAt:

; 366  : 		return "";

  00028	8b 4d 08	 mov	 ecx, DWORD PTR ___$ReturnUdt$[ebp]
  0002b	68 00 00 00 00	 push	 OFFSET ??_C@_00CNPNBAHC@@
  00030	ff 15 00 00 00
	00		 call	 DWORD PTR __imp_??0?$CStringT@DV?$StrTraitMFC_DLL@DV?$ChTraitsCRT@D@ATL@@@@@ATL@@QAE@PBD@Z

; 369  : }

  00036	8b 45 08	 mov	 eax, DWORD PTR ___$ReturnUdt$[ebp]
  00039	5e		 pop	 esi
  0003a	5d		 pop	 ebp
  0003b	c2 0c 00	 ret	 12			; 0000000cH
?GetAt@CIndicator@@IAE?AV?$CStringT@DV?$StrTraitMFC_DLL@DV?$ChTraitsCRT@D@ATL@@@@@ATL@@PBV?$CList@V?$CStringT@DV?$StrTraitMFC_DLL@DV?$ChTraitsCRT@D@ATL@@@@@ATL@@V12@@@AAPAU__POSITION@@@Z ENDP ; CIndicator::GetAt
_TEXT	ENDS
; Function compile flags: /Ogtp
; File D:\git\src\IBK\IBK_DRFN\ProjSrc\SrcChartEx\ChartOCX\ChartFormulate\Indicator.cpp
;	COMDAT ?GetAt@CIndicator@@IAE?AV?$CStringT@DV?$StrTraitMFC_DLL@DV?$ChTraitsCRT@D@ATL@@@@@ATL@@PBV?$CList@V?$CStringT@DV?$StrTraitMFC_DLL@DV?$ChTraitsCRT@D@ATL@@@@@ATL@@V12@@@H@Z
_TEXT	SEGMENT
___$ReturnUdt$ = 8					; size = 4
_pSourceList$ = 12					; size = 4
_nIndex$ = 16						; size = 4
?GetAt@CIndicator@@IAE?AV?$CStringT@DV?$StrTraitMFC_DLL@DV?$ChTraitsCRT@D@ATL@@@@@ATL@@PBV?$CList@V?$CStringT@DV?$StrTraitMFC_DLL@DV?$ChTraitsCRT@D@ATL@@@@@ATL@@V12@@@H@Z PROC ; CIndicator::GetAt, COMDAT
; _this$ = ecx

; 306  : {

  00000	55		 push	 ebp
  00001	8b ec		 mov	 ebp, esp

; 307  : 	if(pSourceList == NULL || nIndex < 0) 

  00003	8b 55 0c	 mov	 edx, DWORD PTR _pSourceList$[ebp]
  00006	56		 push	 esi
  00007	85 d2		 test	 edx, edx
  00009	74 27		 je	 SHORT $LN3@GetAt
  0000b	8b 45 10	 mov	 eax, DWORD PTR _nIndex$[ebp]
  0000e	85 c0		 test	 eax, eax
  00010	78 20		 js	 SHORT $LN3@GetAt

; 309  : 
; 310  : 	POSITION pos = FindPosition(nIndex, *pSourceList);

  00012	52		 push	 edx
  00013	50		 push	 eax
  00014	e8 00 00 00 00	 call	 ?FindPosition@CIndicator@@IBEPAU__POSITION@@HABV?$CList@V?$CStringT@DV?$StrTraitMFC_DLL@DV?$ChTraitsCRT@D@ATL@@@@@ATL@@V12@@@@Z ; CIndicator::FindPosition

; 311  : 	if(pos == NULL)

  00019	85 c0		 test	 eax, eax
  0001b	74 15		 je	 SHORT $LN3@GetAt

; 312  : 		return "";
; 313  : 
; 314  : 	return pSourceList->GetAt(pos);

  0001d	8b 4d 08	 mov	 ecx, DWORD PTR ___$ReturnUdt$[ebp]
  00020	83 c0 08	 add	 eax, 8
  00023	50		 push	 eax
  00024	ff 15 00 00 00
	00		 call	 DWORD PTR __imp_??0?$CStringT@DV?$StrTraitMFC_DLL@DV?$ChTraitsCRT@D@ATL@@@@@ATL@@QAE@ABV01@@Z

; 315  : }

  0002a	8b 45 08	 mov	 eax, DWORD PTR ___$ReturnUdt$[ebp]
  0002d	5e		 pop	 esi
  0002e	5d		 pop	 ebp
  0002f	c2 0c 00	 ret	 12			; 0000000cH
$LN3@GetAt:

; 308  : 		return "";

  00032	8b 4d 08	 mov	 ecx, DWORD PTR ___$ReturnUdt$[ebp]
  00035	68 00 00 00 00	 push	 OFFSET ??_C@_00CNPNBAHC@@
  0003a	ff 15 00 00 00
	00		 call	 DWORD PTR __imp_??0?$CStringT@DV?$StrTraitMFC_DLL@DV?$ChTraitsCRT@D@ATL@@@@@ATL@@QAE@PBD@Z

; 315  : }

  00040	8b 45 08	 mov	 eax, DWORD PTR ___$ReturnUdt$[ebp]
  00043	5e		 pop	 esi
  00044	5d		 pop	 ebp
  00045	c2 0c 00	 ret	 12			; 0000000cH
?GetAt@CIndicator@@IAE?AV?$CStringT@DV?$StrTraitMFC_DLL@DV?$ChTraitsCRT@D@ATL@@@@@ATL@@PBV?$CList@V?$CStringT@DV?$StrTraitMFC_DLL@DV?$ChTraitsCRT@D@ATL@@@@@ATL@@V12@@@H@Z ENDP ; CIndicator::GetAt
_TEXT	ENDS
; Function compile flags: /Ogtp
; File D:\git\src\IBK\IBK_DRFN\ProjSrc\SrcChartEx\ChartOCX\ChartFormulate\Indicator.cpp
;	COMDAT ?GetAt@CIndicator@@IAENPBV?$CList@NN@@AAPAU__POSITION@@@Z
_TEXT	SEGMENT
_pSourceList$ = 8					; size = 4
_pos$ = 12						; size = 4
?GetAt@CIndicator@@IAENPBV?$CList@NN@@AAPAU__POSITION@@@Z PROC ; CIndicator::GetAt, COMDAT
; _this$ = ecx

; 356  : {

  00000	55		 push	 ebp
  00001	8b ec		 mov	 ebp, esp

; 357  : 	if(pSourceList == NULL || pos == NULL) 

  00003	83 7d 08 00	 cmp	 DWORD PTR _pSourceList$[ebp], 0
  00007	74 10		 je	 SHORT $LN3@GetAt
  00009	8b 45 0c	 mov	 eax, DWORD PTR _pos$[ebp]
  0000c	8b 00		 mov	 eax, DWORD PTR [eax]
  0000e	85 c0		 test	 eax, eax
  00010	74 07		 je	 SHORT $LN3@GetAt

; 359  : 
; 360  : 	return pSourceList->GetAt(pos);

  00012	dd 40 08	 fld	 QWORD PTR [eax+8]

; 361  : }

  00015	5d		 pop	 ebp
  00016	c2 08 00	 ret	 8
$LN3@GetAt:

; 358  : 		return 0.0;

  00019	d9 ee		 fldz

; 361  : }

  0001b	5d		 pop	 ebp
  0001c	c2 08 00	 ret	 8
?GetAt@CIndicator@@IAENPBV?$CList@NN@@AAPAU__POSITION@@@Z ENDP ; CIndicator::GetAt
_TEXT	ENDS
; Function compile flags: /Ogtp
; File D:\git\src\IBK\IBK_DRFN\ProjSrc\SrcChartEx\ChartOCX\ChartFormulate\Indicator.cpp
;	COMDAT ?GetAt@CIndicator@@IAENPBV?$CList@NN@@H@Z
_TEXT	SEGMENT
_pSourceList$ = 8					; size = 4
_nIndex$ = 12						; size = 4
?GetAt@CIndicator@@IAENPBV?$CList@NN@@H@Z PROC		; CIndicator::GetAt, COMDAT
; _this$ = ecx

; 294  : {

  00000	55		 push	 ebp
  00001	8b ec		 mov	 ebp, esp

; 295  : 	if(pSourceList == NULL || nIndex < 0) 

  00003	8b 55 08	 mov	 edx, DWORD PTR _pSourceList$[ebp]
  00006	85 d2		 test	 edx, edx
  00008	74 19		 je	 SHORT $LN3@GetAt
  0000a	8b 45 0c	 mov	 eax, DWORD PTR _nIndex$[ebp]
  0000d	85 c0		 test	 eax, eax
  0000f	78 12		 js	 SHORT $LN3@GetAt

; 297  : 
; 298  : 	POSITION pos = FindPosition(nIndex, *pSourceList);

  00011	52		 push	 edx
  00012	50		 push	 eax
  00013	e8 00 00 00 00	 call	 ?FindPosition@CIndicator@@IBEPAU__POSITION@@HABV?$CList@NN@@@Z ; CIndicator::FindPosition

; 299  : 	if(pos == NULL)

  00018	85 c0		 test	 eax, eax
  0001a	74 07		 je	 SHORT $LN3@GetAt

; 300  : 		return 0.0;
; 301  : 
; 302  : 	return pSourceList->GetAt(pos);

  0001c	dd 40 08	 fld	 QWORD PTR [eax+8]

; 303  : }

  0001f	5d		 pop	 ebp
  00020	c2 08 00	 ret	 8
$LN3@GetAt:

; 296  : 		return 0.0;

  00023	d9 ee		 fldz

; 303  : }

  00025	5d		 pop	 ebp
  00026	c2 08 00	 ret	 8
?GetAt@CIndicator@@IAENPBV?$CList@NN@@H@Z ENDP		; CIndicator::GetAt
_TEXT	ENDS
; Function compile flags: /Ogtp
; File D:\git\src\IBK\IBK_DRFN\ProjSrc\SrcChartEx\ChartOCX\ChartFormulate\Indicator.cpp
;	COMDAT ?IsValidPacket@CIndicator@@IAE_NPBV?$CList@NN@@@Z
_TEXT	SEGMENT
_pSourceList$ = 8					; size = 4
?IsValidPacket@CIndicator@@IAE_NPBV?$CList@NN@@@Z PROC	; CIndicator::IsValidPacket, COMDAT
; _this$ = ecx

; 439  : {

  00000	55		 push	 ebp
  00001	8b ec		 mov	 ebp, esp

; 440  : 	return (pSourceList != NULL && (pSourceList->GetCount() > 0 ? true : false));

  00003	8b 45 08	 mov	 eax, DWORD PTR _pSourceList$[ebp]
  00006	85 c0		 test	 eax, eax
  00008	74 0c		 je	 SHORT $LN3@IsValidPac
  0000a	83 78 0c 00	 cmp	 DWORD PTR [eax+12], 0
  0000e	7e 06		 jle	 SHORT $LN3@IsValidPac
  00010	b0 01		 mov	 al, 1

; 441  : }

  00012	5d		 pop	 ebp
  00013	c2 04 00	 ret	 4
$LN3@IsValidPac:

; 440  : 	return (pSourceList != NULL && (pSourceList->GetCount() > 0 ? true : false));

  00016	32 c0		 xor	 al, al

; 441  : }

  00018	5d		 pop	 ebp
  00019	c2 04 00	 ret	 4
?IsValidPacket@CIndicator@@IAE_NPBV?$CList@NN@@@Z ENDP	; CIndicator::IsValidPacket
_TEXT	ENDS
; Function compile flags: /Ogtp
; File D:\git\src\IBK\IBK_DRFN\ProjSrc\SrcChartEx\ChartOCX\ChartFormulate\Indicator.cpp
;	COMDAT ?IsValidPacket@CIndicator@@IAE_NPAVCPacket@@@Z
_TEXT	SEGMENT
_pPacket$ = 8						; size = 4
?IsValidPacket@CIndicator@@IAE_NPAVCPacket@@@Z PROC	; CIndicator::IsValidPacket, COMDAT
; _this$ = ecx

; 431  : {

  00000	55		 push	 ebp
  00001	8b ec		 mov	 ebp, esp

; 432  : 	if(pPacket == NULL)

  00003	8b 4d 08	 mov	 ecx, DWORD PTR _pPacket$[ebp]
  00006	85 c9		 test	 ecx, ecx
  00008	74 16		 je	 SHORT $LN6@IsValidPac

; 433  : 		return false;
; 434  : 
; 435  : 	return IsValidPacket(pPacket->GetnumericDataList());

  0000a	ff 15 00 00 00
	00		 call	 DWORD PTR __imp_?GetnumericDataList@CPacket@@QAEPAV?$CList@NN@@XZ

; 440  : 	return (pSourceList != NULL && (pSourceList->GetCount() > 0 ? true : false));

  00010	85 c0		 test	 eax, eax
  00012	74 0c		 je	 SHORT $LN6@IsValidPac
  00014	83 78 0c 00	 cmp	 DWORD PTR [eax+12], 0
  00018	7e 06		 jle	 SHORT $LN6@IsValidPac
  0001a	b0 01		 mov	 al, 1

; 436  : }

  0001c	5d		 pop	 ebp
  0001d	c2 04 00	 ret	 4
$LN6@IsValidPac:
  00020	32 c0		 xor	 al, al
  00022	5d		 pop	 ebp
  00023	c2 04 00	 ret	 4
?IsValidPacket@CIndicator@@IAE_NPAVCPacket@@@Z ENDP	; CIndicator::IsValidPacket
_TEXT	ENDS
; Function compile flags: /Ogtp
; File D:\git\src\IBK\IBK_DRFN\ProjSrc\SrcChartEx\ChartOCX\ChartFormulate\Indicator.cpp
; File C:\Program Files (x86)\Microsoft Visual Studio\2019\Community\VC\Tools\MSVC\14.29.30133\atlmfc\include\afxtempl.h
; File D:\git\src\IBK\IBK_DRFN\ProjSrc\SrcChartEx\ChartOCX\ChartFormulate\Indicator.cpp
; File C:\Program Files (x86)\Microsoft Visual Studio\2019\Community\VC\Tools\MSVC\14.29.30133\atlmfc\include\afxtempl.h
; File D:\git\src\IBK\IBK_DRFN\ProjSrc\SrcChartEx\ChartOCX\ChartFormulate\Indicator.cpp
;	COMDAT ?FindPosition@CIndicator@@IBEPAU__POSITION@@HABV?$CList@V?$CStringT@DV?$StrTraitMFC_DLL@DV?$ChTraitsCRT@D@ATL@@@@@ATL@@V12@@@@Z
_TEXT	SEGMENT
_nIndex$ = 8						; size = 4
_pSourceList$ = 12					; size = 4
?FindPosition@CIndicator@@IBEPAU__POSITION@@HABV?$CList@V?$CStringT@DV?$StrTraitMFC_DLL@DV?$ChTraitsCRT@D@ATL@@@@@ATL@@V12@@@@Z PROC ; CIndicator::FindPosition, COMDAT
; _this$ = ecx

; 239  : {

  00000	55		 push	 ebp
  00001	8b ec		 mov	 ebp, esp
  00003	56		 push	 esi
  00004	57		 push	 edi

; 241  : 	if(nIndex < 0 || nIndex > nTailIndex)

  00005	8b 7d 08	 mov	 edi, DWORD PTR _nIndex$[ebp]
  00008	85 ff		 test	 edi, edi
  0000a	78 58		 js	 SHORT $LN7@FindPositi

; 240  : 	int nTailIndex = pSourceList.GetCount() -1;

  0000c	8b 4d 0c	 mov	 ecx, DWORD PTR _pSourceList$[ebp]
  0000f	8b 71 0c	 mov	 esi, DWORD PTR [ecx+12]
  00012	4e		 dec	 esi

; 241  : 	if(nIndex < 0 || nIndex > nTailIndex)

  00013	3b fe		 cmp	 edi, esi
  00015	7f 4d		 jg	 SHORT $LN7@FindPositi

; 243  : 
; 244  : 	if(nIndex > nTailIndex/2){

  00017	8b c6		 mov	 eax, esi
  00019	99		 cdq
  0001a	2b c2		 sub	 eax, edx
  0001c	d1 f8		 sar	 eax, 1
  0001e	3b f8		 cmp	 edi, eax
  00020	7e 2c		 jle	 SHORT $LN8@FindPositi

; 245  : 		int nCount = nTailIndex;
; 246  : 		POSITION pos = pSourceList.GetTailPosition();

  00022	8b 49 08	 mov	 ecx, DWORD PTR [ecx+8]

; 247  : 		while(pos != NULL){

  00025	85 c9		 test	 ecx, ecx
  00027	74 3b		 je	 SHORT $LN7@FindPositi
  00029	0f 1f 80 00 00
	00 00		 npad	 7
$LL2@FindPositi:

; 248  : 			if(nCount-- == nIndex)

  00030	8b c6		 mov	 eax, esi
  00032	4e		 dec	 esi
  00033	3b c7		 cmp	 eax, edi
  00035	74 0f		 je	 SHORT $LN19@FindPositi
; File C:\Program Files (x86)\Microsoft Visual Studio\2019\Community\VC\Tools\MSVC\14.29.30133\atlmfc\include\afxtempl.h

; 831  : 		rPosition = (POSITION) pNode->pPrev;

  00037	8b 49 04	 mov	 ecx, DWORD PTR [ecx+4]
; File D:\git\src\IBK\IBK_DRFN\ProjSrc\SrcChartEx\ChartOCX\ChartFormulate\Indicator.cpp

; 247  : 		while(pos != NULL){

  0003a	85 c9		 test	 ecx, ecx
  0003c	75 f2		 jne	 SHORT $LL2@FindPositi

; 242  : 		return NULL;

  0003e	5f		 pop	 edi
  0003f	33 c0		 xor	 eax, eax

; 258  : 				return pos;
; 259  : 			pSourceList.GetNext(pos);
; 260  : 		}
; 261  : 	}
; 262  : 
; 263  : 	return NULL;
; 264  : }

  00041	5e		 pop	 esi
  00042	5d		 pop	 ebp
  00043	c2 08 00	 ret	 8
$LN19@FindPositi:
  00046	5f		 pop	 edi
  00047	8b c1		 mov	 eax, ecx
  00049	5e		 pop	 esi
  0004a	5d		 pop	 ebp
  0004b	c2 08 00	 ret	 8
$LN8@FindPositi:

; 249  : 				return pos;
; 250  : 			pSourceList.GetPrev(pos);
; 251  : 		}
; 252  : 	}
; 253  : 	else{
; 254  : 		int nCount = 0;
; 255  : 		POSITION pos = pSourceList.GetHeadPosition();

  0004e	8b 49 04	 mov	 ecx, DWORD PTR [ecx+4]
  00051	33 d2		 xor	 edx, edx

; 256  : 		while(pos != NULL){

  00053	85 c9		 test	 ecx, ecx
  00055	74 0d		 je	 SHORT $LN7@FindPositi
$LL4@FindPositi:

; 257  : 			if(nCount++ == nIndex)

  00057	8b c2		 mov	 eax, edx
  00059	42		 inc	 edx
  0005a	3b c7		 cmp	 eax, edi
  0005c	74 e8		 je	 SHORT $LN19@FindPositi
; File C:\Program Files (x86)\Microsoft Visual Studio\2019\Community\VC\Tools\MSVC\14.29.30133\atlmfc\include\afxtempl.h

; 819  : 		rPosition = (POSITION) pNode->pNext;

  0005e	8b 09		 mov	 ecx, DWORD PTR [ecx]
; File D:\git\src\IBK\IBK_DRFN\ProjSrc\SrcChartEx\ChartOCX\ChartFormulate\Indicator.cpp

; 256  : 		while(pos != NULL){

  00060	85 c9		 test	 ecx, ecx
  00062	75 f3		 jne	 SHORT $LL4@FindPositi
$LN7@FindPositi:
  00064	5f		 pop	 edi

; 242  : 		return NULL;

  00065	33 c0		 xor	 eax, eax

; 258  : 				return pos;
; 259  : 			pSourceList.GetNext(pos);
; 260  : 		}
; 261  : 	}
; 262  : 
; 263  : 	return NULL;
; 264  : }

  00067	5e		 pop	 esi
  00068	5d		 pop	 ebp
  00069	c2 08 00	 ret	 8
?FindPosition@CIndicator@@IBEPAU__POSITION@@HABV?$CList@V?$CStringT@DV?$StrTraitMFC_DLL@DV?$ChTraitsCRT@D@ATL@@@@@ATL@@V12@@@@Z ENDP ; CIndicator::FindPosition
_TEXT	ENDS
; Function compile flags: /Ogtp
; File D:\git\src\IBK\IBK_DRFN\ProjSrc\SrcChartEx\ChartOCX\ChartFormulate\Indicator.cpp
; File C:\Program Files (x86)\Microsoft Visual Studio\2019\Community\VC\Tools\MSVC\14.29.30133\atlmfc\include\afxtempl.h
; File D:\git\src\IBK\IBK_DRFN\ProjSrc\SrcChartEx\ChartOCX\ChartFormulate\Indicator.cpp
; File C:\Program Files (x86)\Microsoft Visual Studio\2019\Community\VC\Tools\MSVC\14.29.30133\atlmfc\include\afxtempl.h
; File D:\git\src\IBK\IBK_DRFN\ProjSrc\SrcChartEx\ChartOCX\ChartFormulate\Indicator.cpp
;	COMDAT ?FindPosition@CIndicator@@IBEPAU__POSITION@@HABV?$CList@NN@@@Z
_TEXT	SEGMENT
_nIndex$ = 8						; size = 4
_pSourceList$ = 12					; size = 4
?FindPosition@CIndicator@@IBEPAU__POSITION@@HABV?$CList@NN@@@Z PROC ; CIndicator::FindPosition, COMDAT
; _this$ = ecx

; 211  : {

  00000	55		 push	 ebp
  00001	8b ec		 mov	 ebp, esp
  00003	56		 push	 esi
  00004	57		 push	 edi

; 213  : 	if(nIndex < 0 || nIndex > nTailIndex)

  00005	8b 7d 08	 mov	 edi, DWORD PTR _nIndex$[ebp]
  00008	85 ff		 test	 edi, edi
  0000a	78 58		 js	 SHORT $LN7@FindPositi

; 212  : 	int nTailIndex = pSourceList.GetCount() -1;

  0000c	8b 4d 0c	 mov	 ecx, DWORD PTR _pSourceList$[ebp]
  0000f	8b 71 0c	 mov	 esi, DWORD PTR [ecx+12]
  00012	4e		 dec	 esi

; 213  : 	if(nIndex < 0 || nIndex > nTailIndex)

  00013	3b fe		 cmp	 edi, esi
  00015	7f 4d		 jg	 SHORT $LN7@FindPositi

; 215  : 
; 216  : 	if(nIndex > nTailIndex/2){

  00017	8b c6		 mov	 eax, esi
  00019	99		 cdq
  0001a	2b c2		 sub	 eax, edx
  0001c	d1 f8		 sar	 eax, 1
  0001e	3b f8		 cmp	 edi, eax
  00020	7e 2c		 jle	 SHORT $LN8@FindPositi

; 217  : 		int nCount = nTailIndex;
; 218  : 		POSITION pos = pSourceList.GetTailPosition();

  00022	8b 49 08	 mov	 ecx, DWORD PTR [ecx+8]

; 219  : 		while(pos != NULL){

  00025	85 c9		 test	 ecx, ecx
  00027	74 3b		 je	 SHORT $LN7@FindPositi
  00029	0f 1f 80 00 00
	00 00		 npad	 7
$LL2@FindPositi:

; 220  : 			if(nCount-- == nIndex)

  00030	8b c6		 mov	 eax, esi
  00032	4e		 dec	 esi
  00033	3b c7		 cmp	 eax, edi
  00035	74 0f		 je	 SHORT $LN19@FindPositi
; File C:\Program Files (x86)\Microsoft Visual Studio\2019\Community\VC\Tools\MSVC\14.29.30133\atlmfc\include\afxtempl.h

; 831  : 		rPosition = (POSITION) pNode->pPrev;

  00037	8b 49 04	 mov	 ecx, DWORD PTR [ecx+4]
; File D:\git\src\IBK\IBK_DRFN\ProjSrc\SrcChartEx\ChartOCX\ChartFormulate\Indicator.cpp

; 219  : 		while(pos != NULL){

  0003a	85 c9		 test	 ecx, ecx
  0003c	75 f2		 jne	 SHORT $LL2@FindPositi

; 214  : 		return NULL;

  0003e	5f		 pop	 edi
  0003f	33 c0		 xor	 eax, eax

; 230  : 				return pos;
; 231  : 			pSourceList.GetNext(pos);
; 232  : 		}
; 233  : 	}
; 234  : 
; 235  : 	return NULL;
; 236  : }

  00041	5e		 pop	 esi
  00042	5d		 pop	 ebp
  00043	c2 08 00	 ret	 8
$LN19@FindPositi:
  00046	5f		 pop	 edi
  00047	8b c1		 mov	 eax, ecx
  00049	5e		 pop	 esi
  0004a	5d		 pop	 ebp
  0004b	c2 08 00	 ret	 8
$LN8@FindPositi:

; 221  : 				return pos;
; 222  : 			pSourceList.GetPrev(pos);
; 223  : 		}
; 224  : 	}
; 225  : 	else{
; 226  : 		int nCount = 0;
; 227  : 		POSITION pos = pSourceList.GetHeadPosition();

  0004e	8b 49 04	 mov	 ecx, DWORD PTR [ecx+4]
  00051	33 d2		 xor	 edx, edx

; 228  : 		while(pos != NULL){

  00053	85 c9		 test	 ecx, ecx
  00055	74 0d		 je	 SHORT $LN7@FindPositi
$LL4@FindPositi:

; 229  : 			if(nCount++ == nIndex)

  00057	8b c2		 mov	 eax, edx
  00059	42		 inc	 edx
  0005a	3b c7		 cmp	 eax, edi
  0005c	74 e8		 je	 SHORT $LN19@FindPositi
; File C:\Program Files (x86)\Microsoft Visual Studio\2019\Community\VC\Tools\MSVC\14.29.30133\atlmfc\include\afxtempl.h

; 819  : 		rPosition = (POSITION) pNode->pNext;

  0005e	8b 09		 mov	 ecx, DWORD PTR [ecx]
; File D:\git\src\IBK\IBK_DRFN\ProjSrc\SrcChartEx\ChartOCX\ChartFormulate\Indicator.cpp

; 228  : 		while(pos != NULL){

  00060	85 c9		 test	 ecx, ecx
  00062	75 f3		 jne	 SHORT $LL4@FindPositi
$LN7@FindPositi:
  00064	5f		 pop	 edi

; 214  : 		return NULL;

  00065	33 c0		 xor	 eax, eax

; 230  : 				return pos;
; 231  : 			pSourceList.GetNext(pos);
; 232  : 		}
; 233  : 	}
; 234  : 
; 235  : 	return NULL;
; 236  : }

  00067	5e		 pop	 esi
  00068	5d		 pop	 ebp
  00069	c2 08 00	 ret	 8
?FindPosition@CIndicator@@IBEPAU__POSITION@@HABV?$CList@NN@@@Z ENDP ; CIndicator::FindPosition
_TEXT	ENDS
; Function compile flags: /Ogtp
; File D:\git\src\IBK\IBK_DRFN\ProjSrc\SrcChartEx\ChartOCX\ChartFormulate\Indicator.cpp
; File C:\Program Files (x86)\Microsoft Visual Studio\2019\Community\VC\Tools\MSVC\14.29.30133\atlmfc\include\afxtempl.h
; File D:\git\src\IBK\IBK_DRFN\ProjSrc\SrcChartEx\ChartOCX\ChartFormulate\Indicator.cpp
; File C:\Program Files (x86)\Microsoft Visual Studio\2019\Community\VC\Tools\MSVC\14.29.30133\atlmfc\include\afxtempl.h
; File D:\git\src\IBK\IBK_DRFN\ProjSrc\SrcChartEx\ChartOCX\ChartFormulate\Indicator.cpp
;	COMDAT ?FindPosition@CIndicator@@IBEPAU__POSITION@@HABV?$CList@HH@@@Z
_TEXT	SEGMENT
_nIndex$ = 8						; size = 4
_pSourceList$ = 12					; size = 4
?FindPosition@CIndicator@@IBEPAU__POSITION@@HABV?$CList@HH@@@Z PROC ; CIndicator::FindPosition, COMDAT
; _this$ = ecx

; 266  : {

  00000	55		 push	 ebp
  00001	8b ec		 mov	 ebp, esp
  00003	56		 push	 esi
  00004	57		 push	 edi

; 268  : 	if(nIndex < 0 || nIndex > nTailIndex)

  00005	8b 7d 08	 mov	 edi, DWORD PTR _nIndex$[ebp]
  00008	85 ff		 test	 edi, edi
  0000a	78 58		 js	 SHORT $LN7@FindPositi

; 267  : 	int nTailIndex = pSourceList.GetCount() -1;

  0000c	8b 4d 0c	 mov	 ecx, DWORD PTR _pSourceList$[ebp]
  0000f	8b 71 0c	 mov	 esi, DWORD PTR [ecx+12]
  00012	4e		 dec	 esi

; 268  : 	if(nIndex < 0 || nIndex > nTailIndex)

  00013	3b fe		 cmp	 edi, esi
  00015	7f 4d		 jg	 SHORT $LN7@FindPositi

; 270  : 
; 271  : 	if(nIndex > nTailIndex/2){

  00017	8b c6		 mov	 eax, esi
  00019	99		 cdq
  0001a	2b c2		 sub	 eax, edx
  0001c	d1 f8		 sar	 eax, 1
  0001e	3b f8		 cmp	 edi, eax
  00020	7e 2c		 jle	 SHORT $LN8@FindPositi

; 272  : 		int nCount = nTailIndex;
; 273  : 		POSITION pos = pSourceList.GetTailPosition();

  00022	8b 49 08	 mov	 ecx, DWORD PTR [ecx+8]

; 274  : 		while(pos != NULL){

  00025	85 c9		 test	 ecx, ecx
  00027	74 3b		 je	 SHORT $LN7@FindPositi
  00029	0f 1f 80 00 00
	00 00		 npad	 7
$LL2@FindPositi:

; 275  : 			if(nCount-- == nIndex)

  00030	8b c6		 mov	 eax, esi
  00032	4e		 dec	 esi
  00033	3b c7		 cmp	 eax, edi
  00035	74 0f		 je	 SHORT $LN19@FindPositi
; File C:\Program Files (x86)\Microsoft Visual Studio\2019\Community\VC\Tools\MSVC\14.29.30133\atlmfc\include\afxtempl.h

; 831  : 		rPosition = (POSITION) pNode->pPrev;

  00037	8b 49 04	 mov	 ecx, DWORD PTR [ecx+4]
; File D:\git\src\IBK\IBK_DRFN\ProjSrc\SrcChartEx\ChartOCX\ChartFormulate\Indicator.cpp

; 274  : 		while(pos != NULL){

  0003a	85 c9		 test	 ecx, ecx
  0003c	75 f2		 jne	 SHORT $LL2@FindPositi

; 269  : 		return NULL;

  0003e	5f		 pop	 edi
  0003f	33 c0		 xor	 eax, eax

; 285  : 				return pos;
; 286  : 			pSourceList.GetNext(pos);
; 287  : 		}
; 288  : 	}
; 289  : 
; 290  : 	return NULL;
; 291  : }

  00041	5e		 pop	 esi
  00042	5d		 pop	 ebp
  00043	c2 08 00	 ret	 8
$LN19@FindPositi:
  00046	5f		 pop	 edi
  00047	8b c1		 mov	 eax, ecx
  00049	5e		 pop	 esi
  0004a	5d		 pop	 ebp
  0004b	c2 08 00	 ret	 8
$LN8@FindPositi:

; 276  : 				return pos;
; 277  : 			pSourceList.GetPrev(pos);
; 278  : 		}
; 279  : 	}
; 280  : 	else{
; 281  : 		int nCount = 0;
; 282  : 		POSITION pos = pSourceList.GetHeadPosition();

  0004e	8b 49 04	 mov	 ecx, DWORD PTR [ecx+4]
  00051	33 d2		 xor	 edx, edx

; 283  : 		while(pos != NULL){

  00053	85 c9		 test	 ecx, ecx
  00055	74 0d		 je	 SHORT $LN7@FindPositi
$LL4@FindPositi:

; 284  : 			if(nCount++ == nIndex)

  00057	8b c2		 mov	 eax, edx
  00059	42		 inc	 edx
  0005a	3b c7		 cmp	 eax, edi
  0005c	74 e8		 je	 SHORT $LN19@FindPositi
; File C:\Program Files (x86)\Microsoft Visual Studio\2019\Community\VC\Tools\MSVC\14.29.30133\atlmfc\include\afxtempl.h

; 819  : 		rPosition = (POSITION) pNode->pNext;

  0005e	8b 09		 mov	 ecx, DWORD PTR [ecx]
; File D:\git\src\IBK\IBK_DRFN\ProjSrc\SrcChartEx\ChartOCX\ChartFormulate\Indicator.cpp

; 283  : 		while(pos != NULL){

  00060	85 c9		 test	 ecx, ecx
  00062	75 f3		 jne	 SHORT $LL4@FindPositi
$LN7@FindPositi:
  00064	5f		 pop	 edi

; 269  : 		return NULL;

  00065	33 c0		 xor	 eax, eax

; 285  : 				return pos;
; 286  : 			pSourceList.GetNext(pos);
; 287  : 		}
; 288  : 	}
; 289  : 
; 290  : 	return NULL;
; 291  : }

  00067	5e		 pop	 esi
  00068	5d		 pop	 ebp
  00069	c2 08 00	 ret	 8
?FindPosition@CIndicator@@IBEPAU__POSITION@@HABV?$CList@HH@@@Z ENDP ; CIndicator::FindPosition
_TEXT	ENDS
; Function compile flags: /Ogtp
; File D:\git\src\IBK\IBK_DRFN\ProjSrc\SrcChartEx\ChartOCX\ChartFormulate\Indicator.cpp
;	COMDAT ?MakeZeroMemory@CIndicator@@IAEXHPAN@Z
_TEXT	SEGMENT
_nCount$ = 8						; size = 4
_doubleArray$ = 12					; size = 4
?MakeZeroMemory@CIndicator@@IAEXHPAN@Z PROC		; CIndicator::MakeZeroMemory, COMDAT
; _this$ = ecx

; 205  : {

  00000	55		 push	 ebp
  00001	8b ec		 mov	 ebp, esp

; 206  : 	for(int count = 0; count < nCount; count++) 

  00003	8b 4d 08	 mov	 ecx, DWORD PTR _nCount$[ebp]
  00006	85 c9		 test	 ecx, ecx
  00008	7e 0f		 jle	 SHORT $LN3@MakeZeroMe
  0000a	c1 e1 03	 shl	 ecx, 3
  0000d	57		 push	 edi
  0000e	8b 7d 0c	 mov	 edi, DWORD PTR _doubleArray$[ebp]
  00011	c1 e9 02	 shr	 ecx, 2
  00014	33 c0		 xor	 eax, eax
  00016	f3 ab		 rep stosd
  00018	5f		 pop	 edi
$LN3@MakeZeroMe:

; 207  : 		doubleArray[count] = 0;
; 208  : }

  00019	5d		 pop	 ebp
  0001a	c2 08 00	 ret	 8
?MakeZeroMemory@CIndicator@@IAEXHPAN@Z ENDP		; CIndicator::MakeZeroMemory
_TEXT	ENDS
; Function compile flags: /Ogtp
; File D:\git\src\IBK\IBK_DRFN\ProjSrc\SrcChartEx\ChartOCX\ChartFormulate\Indicator.cpp
; File D:\git\src\IBK\IBK_DRFN\ProjSrc\SrcChartEx\ChartOCX\Include_Chart\ChartFormulateData.h
; File D:\git\src\IBK\IBK_DRFN\ProjSrc\SrcChartEx\ChartOCX\ChartFormulate\Indicator.cpp
;	COMDAT ?GetPacket@CIndicator@@IAEPAVCPacket@@ABVCPoint@@ABVCChartFormulateData@@@Z
_TEXT	SEGMENT
__$EHRec$ = -12						; size = 12
_point$ = 8						; size = 4
$T2 = 12						; size = 4
_chartFormulateData$ = 12				; size = 4
?GetPacket@CIndicator@@IAEPAVCPacket@@ABVCPoint@@ABVCChartFormulateData@@@Z PROC ; CIndicator::GetPacket, COMDAT
; _this$ = ecx

; 479  : {

  00000	55		 push	 ebp
  00001	8b ec		 mov	 ebp, esp
  00003	6a ff		 push	 -1
  00005	68 00 00 00 00	 push	 __ehhandler$?GetPacket@CIndicator@@IAEPAVCPacket@@ABVCPoint@@ABVCChartFormulateData@@@Z
  0000a	64 a1 00 00 00
	00		 mov	 eax, DWORD PTR fs:0
  00010	50		 push	 eax
  00011	56		 push	 esi
  00012	57		 push	 edi
  00013	a1 00 00 00 00	 mov	 eax, DWORD PTR ___security_cookie
  00018	33 c5		 xor	 eax, ebp
  0001a	50		 push	 eax
  0001b	8d 45 f4	 lea	 eax, DWORD PTR __$EHRec$[ebp]
  0001e	64 a3 00 00 00
	00		 mov	 DWORD PTR fs:0, eax
  00024	8b f9		 mov	 edi, ecx
; File D:\git\src\IBK\IBK_DRFN\ProjSrc\SrcChartEx\ChartOCX\Include_Chart\ChartFormulateData.h

; 57   : 	CString		GetPacketNames( void) const								{	return m_strPacketNames;			}

  00026	8b 75 0c	 mov	 esi, DWORD PTR _chartFormulateData$[ebp]
  00029	8d 4d 0c	 lea	 ecx, DWORD PTR $T2[ebp]
  0002c	8d 46 0c	 lea	 eax, DWORD PTR [esi+12]
  0002f	50		 push	 eax
  00030	ff 15 00 00 00
	00		 call	 DWORD PTR __imp_??0?$CStringT@DV?$StrTraitMFC_DLL@DV?$ChTraitsCRT@D@ATL@@@@@ATL@@QAE@ABV01@@Z
; File D:\git\src\IBK\IBK_DRFN\ProjSrc\SrcChartEx\ChartOCX\ChartFormulate\Indicator.cpp

; 480  : 	return GetPacket(chartFormulateData.GetPacketList(), chartFormulateData.GetPacketNames(), chartFormulateData.GetCalculateType(), point);

  00036	ff 75 08	 push	 DWORD PTR _point$[ebp]
  00039	8d 45 0c	 lea	 eax, DWORD PTR $T2[ebp]
  0003c	c7 45 fc 00 00
	00 00		 mov	 DWORD PTR __$EHRec$[ebp+8], 0
  00043	ff 36		 push	 DWORD PTR [esi]
  00045	8b cf		 mov	 ecx, edi
  00047	50		 push	 eax
  00048	ff 76 20	 push	 DWORD PTR [esi+32]
  0004b	e8 00 00 00 00	 call	 ?GetPacket@CIndicator@@QAEPAVCPacket@@PAVCPacketList@@ABV?$CStringT@DV?$StrTraitMFC_DLL@DV?$ChTraitsCRT@D@ATL@@@@@ATL@@W4CALCULATETYPE@CCalculateBaseData@@ABVCPoint@@@Z ; CIndicator::GetPacket
  00050	8d 4d 0c	 lea	 ecx, DWORD PTR $T2[ebp]
  00053	8b f0		 mov	 esi, eax
  00055	ff 15 00 00 00
	00		 call	 DWORD PTR __imp_??1?$CStringT@DV?$StrTraitMFC_DLL@DV?$ChTraitsCRT@D@ATL@@@@@ATL@@QAE@XZ
  0005b	8b c6		 mov	 eax, esi

; 481  : }

  0005d	8b 4d f4	 mov	 ecx, DWORD PTR __$EHRec$[ebp]
  00060	64 89 0d 00 00
	00 00		 mov	 DWORD PTR fs:0, ecx
  00067	59		 pop	 ecx
  00068	5f		 pop	 edi
  00069	5e		 pop	 esi
  0006a	8b e5		 mov	 esp, ebp
  0006c	5d		 pop	 ebp
  0006d	c2 08 00	 ret	 8
_TEXT	ENDS
;	COMDAT text$x
text$x	SEGMENT
__unwindfunclet$?GetPacket@CIndicator@@IAEPAVCPacket@@ABVCPoint@@ABVCChartFormulateData@@@Z$0:
  00000	8d 4d 0c	 lea	 ecx, DWORD PTR $T2[ebp]
  00003	ff 25 00 00 00
	00		 jmp	 DWORD PTR __imp_??1?$CStringT@DV?$StrTraitMFC_DLL@DV?$ChTraitsCRT@D@ATL@@@@@ATL@@QAE@XZ
  00009	cc		 int	 3
  0000a	cc		 int	 3
  0000b	cc		 int	 3
  0000c	cc		 int	 3
  0000d	cc		 int	 3
__ehhandler$?GetPacket@CIndicator@@IAEPAVCPacket@@ABVCPoint@@ABVCChartFormulateData@@@Z:
  0000e	90		 npad	 1
  0000f	90		 npad	 1
  00010	8b 54 24 08	 mov	 edx, DWORD PTR [esp+8]
  00014	8d 42 0c	 lea	 eax, DWORD PTR [edx+12]
  00017	8b 4a f4	 mov	 ecx, DWORD PTR [edx-12]
  0001a	33 c8		 xor	 ecx, eax
  0001c	e8 00 00 00 00	 call	 @__security_check_cookie@4
  00021	b8 00 00 00 00	 mov	 eax, OFFSET __ehfuncinfo$?GetPacket@CIndicator@@IAEPAVCPacket@@ABVCPoint@@ABVCChartFormulateData@@@Z
  00026	e9 00 00 00 00	 jmp	 ___CxxFrameHandler3
text$x	ENDS
?GetPacket@CIndicator@@IAEPAVCPacket@@ABVCPoint@@ABVCChartFormulateData@@@Z ENDP ; CIndicator::GetPacket
; Function compile flags: /Ogtp
; File D:\git\src\IBK\IBK_DRFN\ProjSrc\SrcChartEx\ChartOCX\ChartFormulate\Indicator.cpp
;	COMDAT ?GetSignalPacket@CIndicator@@IAE_NPAVCPacketList@@AAV?$CStringT@DV?$StrTraitMFC_DLL@DV?$ChTraitsCRT@D@ATL@@@@@ATL@@AAPAVCPacket@@@Z
_TEXT	SEGMENT
__$EHRec$ = -12						; size = 12
_strSignalPacketName$ = 8				; size = 4
_pPacketList$ = 8					; size = 4
_strFuncName$ = 12					; size = 4
_pSignalPacket$ = 16					; size = 4
?GetSignalPacket@CIndicator@@IAE_NPAVCPacketList@@AAV?$CStringT@DV?$StrTraitMFC_DLL@DV?$ChTraitsCRT@D@ATL@@@@@ATL@@AAPAVCPacket@@@Z PROC ; CIndicator::GetSignalPacket, COMDAT
; _this$ = ecx

; 634  : {

  00000	55		 push	 ebp
  00001	8b ec		 mov	 ebp, esp
  00003	6a ff		 push	 -1
  00005	68 00 00 00 00	 push	 __ehhandler$?GetSignalPacket@CIndicator@@IAE_NPAVCPacketList@@AAV?$CStringT@DV?$StrTraitMFC_DLL@DV?$ChTraitsCRT@D@ATL@@@@@ATL@@AAPAVCPacket@@@Z
  0000a	64 a1 00 00 00
	00		 mov	 eax, DWORD PTR fs:0
  00010	50		 push	 eax
  00011	56		 push	 esi
  00012	a1 00 00 00 00	 mov	 eax, DWORD PTR ___security_cookie
  00017	33 c5		 xor	 eax, ebp
  00019	50		 push	 eax
  0001a	8d 45 f4	 lea	 eax, DWORD PTR __$EHRec$[ebp]
  0001d	64 a3 00 00 00
	00		 mov	 DWORD PTR fs:0, eax

; 635  : 	// (2004.02.07, ) NULL Pointer Exception , .
; 636  : 	if( !pPacketList) return FALSE;

  00023	8b 75 08	 mov	 esi, DWORD PTR _pPacketList$[ebp]
  00026	85 f6		 test	 esi, esi
  00028	75 14		 jne	 SHORT $LN2@GetSignalP
  0002a	32 c0		 xor	 al, al

; 647  : }

  0002c	8b 4d f4	 mov	 ecx, DWORD PTR __$EHRec$[ebp]
  0002f	64 89 0d 00 00
	00 00		 mov	 DWORD PTR fs:0, ecx
  00036	59		 pop	 ecx
  00037	5e		 pop	 esi
  00038	8b e5		 mov	 esp, ebp
  0003a	5d		 pop	 ebp
  0003b	c2 0c 00	 ret	 12			; 0000000cH
$LN2@GetSignalP:

; 637  : 
; 638  : 	CString strSignalPacketName = strFuncName + SIGNAL_PACKET;

  0003e	68 00 00 00 00	 push	 OFFSET ?SIGNAL_PACKET@@3V?$CStringT@DV?$StrTraitMFC_DLL@DV?$ChTraitsCRT@D@ATL@@@@@ATL@@B
  00043	ff 75 0c	 push	 DWORD PTR _strFuncName$[ebp]
  00046	8d 45 08	 lea	 eax, DWORD PTR _strSignalPacketName$[ebp]
  00049	50		 push	 eax
  0004a	e8 00 00 00 00	 call	 ??HATL@@YA?AV?$CStringT@DV?$StrTraitMFC_DLL@DV?$ChTraitsCRT@D@ATL@@@@@0@ABV10@0@Z ; ATL::operator+
  0004f	83 c4 0c	 add	 esp, 12			; 0000000cH

; 639  : 	pSignalPacket = pPacketList->GetBaseData(strSignalPacketName, false);

  00052	6a 00		 push	 0
  00054	51		 push	 ecx
  00055	8d 45 08	 lea	 eax, DWORD PTR _strSignalPacketName$[ebp]
  00058	c7 45 fc 00 00
	00 00		 mov	 DWORD PTR __$EHRec$[ebp+8], 0
  0005f	8b cc		 mov	 ecx, esp
  00061	50		 push	 eax
  00062	ff 15 00 00 00
	00		 call	 DWORD PTR __imp_??0?$CStringT@DV?$StrTraitMFC_DLL@DV?$ChTraitsCRT@D@ATL@@@@@ATL@@QAE@ABV01@@Z
  00068	8b ce		 mov	 ecx, esi
  0006a	ff 15 00 00 00
	00		 call	 DWORD PTR __imp_?GetBaseData@CPacketList@@QAEPAVCPacket@@V?$CStringT@DV?$StrTraitMFC_DLL@DV?$ChTraitsCRT@D@ATL@@@@@ATL@@_N@Z
  00070	8b 4d 10	 mov	 ecx, DWORD PTR _pSignalPacket$[ebp]
  00073	8b f0		 mov	 esi, eax
  00075	89 31		 mov	 DWORD PTR [ecx], esi

; 640  : 
; 641  : 	// (2004.06.07, ) Signal Packet GetSignalPacket() Clear,
; 642  : 	//		    IsIndicatorCalculated()  Skip Signal Clear  .
; 643  : 	//		,   Signal    Clear .
; 644  : 	//ClearPacketData(pSignalPacket);
; 645  : 
; 646  : 	return (pSignalPacket != NULL);

  00077	8d 4d 08	 lea	 ecx, DWORD PTR _strSignalPacketName$[ebp]
  0007a	ff 15 00 00 00
	00		 call	 DWORD PTR __imp_??1?$CStringT@DV?$StrTraitMFC_DLL@DV?$ChTraitsCRT@D@ATL@@@@@ATL@@QAE@XZ
  00080	85 f6		 test	 esi, esi
  00082	0f 95 c0	 setne	 al

; 647  : }

  00085	8b 4d f4	 mov	 ecx, DWORD PTR __$EHRec$[ebp]
  00088	64 89 0d 00 00
	00 00		 mov	 DWORD PTR fs:0, ecx
  0008f	59		 pop	 ecx
  00090	5e		 pop	 esi
  00091	8b e5		 mov	 esp, ebp
  00093	5d		 pop	 ebp
  00094	c2 0c 00	 ret	 12			; 0000000cH
_TEXT	ENDS
;	COMDAT text$x
text$x	SEGMENT
__unwindfunclet$?GetSignalPacket@CIndicator@@IAE_NPAVCPacketList@@AAV?$CStringT@DV?$StrTraitMFC_DLL@DV?$ChTraitsCRT@D@ATL@@@@@ATL@@AAPAVCPacket@@@Z$0:
  00000	8d 4d 08	 lea	 ecx, DWORD PTR _strSignalPacketName$[ebp]
  00003	ff 25 00 00 00
	00		 jmp	 DWORD PTR __imp_??1?$CStringT@DV?$StrTraitMFC_DLL@DV?$ChTraitsCRT@D@ATL@@@@@ATL@@QAE@XZ
  00009	cc		 int	 3
  0000a	cc		 int	 3
  0000b	cc		 int	 3
  0000c	cc		 int	 3
  0000d	cc		 int	 3
__ehhandler$?GetSignalPacket@CIndicator@@IAE_NPAVCPacketList@@AAV?$CStringT@DV?$StrTraitMFC_DLL@DV?$ChTraitsCRT@D@ATL@@@@@ATL@@AAPAVCPacket@@@Z:
  0000e	90		 npad	 1
  0000f	90		 npad	 1
  00010	8b 54 24 08	 mov	 edx, DWORD PTR [esp+8]
  00014	8d 42 0c	 lea	 eax, DWORD PTR [edx+12]
  00017	8b 4a f8	 mov	 ecx, DWORD PTR [edx-8]
  0001a	33 c8		 xor	 ecx, eax
  0001c	e8 00 00 00 00	 call	 @__security_check_cookie@4
  00021	b8 00 00 00 00	 mov	 eax, OFFSET __ehfuncinfo$?GetSignalPacket@CIndicator@@IAE_NPAVCPacketList@@AAV?$CStringT@DV?$StrTraitMFC_DLL@DV?$ChTraitsCRT@D@ATL@@@@@ATL@@AAPAVCPacket@@@Z
  00026	e9 00 00 00 00	 jmp	 ___CxxFrameHandler3
text$x	ENDS
?GetSignalPacket@CIndicator@@IAE_NPAVCPacketList@@AAV?$CStringT@DV?$StrTraitMFC_DLL@DV?$ChTraitsCRT@D@ATL@@@@@ATL@@AAPAVCPacket@@@Z ENDP ; CIndicator::GetSignalPacket
; Function compile flags: /Ogtp
; File D:\git\src\IBK\IBK_DRFN\ProjSrc\SrcChartEx\ChartOCX\ChartFormulate\Indicator.cpp
;	COMDAT ?GetstrDataList@CIndicator@@IAEPAV?$CList@V?$CStringT@DV?$StrTraitMFC_DLL@DV?$ChTraitsCRT@D@ATL@@@@@ATL@@V12@@@PAVCPacket@@@Z
_TEXT	SEGMENT
_pPacket$ = 8						; size = 4
?GetstrDataList@CIndicator@@IAEPAV?$CList@V?$CStringT@DV?$StrTraitMFC_DLL@DV?$ChTraitsCRT@D@ATL@@@@@ATL@@V12@@@PAVCPacket@@@Z PROC ; CIndicator::GetstrDataList, COMDAT
; _this$ = ecx

; 650  : {

  00000	55		 push	 ebp
  00001	8b ec		 mov	 ebp, esp

; 651  : 	if(pPacket == NULL)

  00003	8b 4d 08	 mov	 ecx, DWORD PTR _pPacket$[ebp]
  00006	85 c9		 test	 ecx, ecx
  00008	75 06		 jne	 SHORT $LN2@GetstrData

; 652  : 		return NULL;

  0000a	33 c0		 xor	 eax, eax

; 655  : }

  0000c	5d		 pop	 ebp
  0000d	c2 04 00	 ret	 4
$LN2@GetstrData:

; 653  : 
; 654  : 	return pPacket->GetstrDataList();

  00010	ff 15 00 00 00
	00		 call	 DWORD PTR __imp_?GetstrDataList@CPacket@@QAEPAV?$CList@V?$CStringT@DV?$StrTraitMFC_DLL@DV?$ChTraitsCRT@D@ATL@@@@@ATL@@V12@@@XZ

; 655  : }

  00016	5d		 pop	 ebp
  00017	c2 04 00	 ret	 4
?GetstrDataList@CIndicator@@IAEPAV?$CList@V?$CStringT@DV?$StrTraitMFC_DLL@DV?$ChTraitsCRT@D@ATL@@@@@ATL@@V12@@@PAVCPacket@@@Z ENDP ; CIndicator::GetstrDataList
_TEXT	ENDS
; Function compile flags: /Ogtp
; File D:\git\src\IBK\IBK_DRFN\ProjSrc\SrcChartEx\ChartOCX\ChartFormulate\Indicator.cpp
;	COMDAT ?GetSignalData@CIndicator@@IAEXABVCPoint@@HNNPAVCPacket@@1@Z
_TEXT	SEGMENT
_D$1$ = -24						; size = 8
__real@3ff0000000000000$1$ = -16			; size = 8
_dCalData$1$ = -8					; size = 8
_dCalData$ = -8						; size = 8
_point$ = 8						; size = 4
tv342 = 12						; size = 4
_nDataCount$ = 12					; size = 4
_dData$ = 16						; size = 8
_dSourceCondition$ = 16					; size = 8
_source$1 = 24						; size = 8
_dCondition$ = 24					; size = 8
_pSourceData$ = 32					; size = 4
_pSignalData$ = 36					; size = 4
?GetSignalData@CIndicator@@IAEXABVCPoint@@HNNPAVCPacket@@1@Z PROC ; CIndicator::GetSignalData, COMDAT
; _this$ = ecx

; 569  : {

  00000	55		 push	 ebp
  00001	8b ec		 mov	 ebp, esp
  00003	83 ec 18	 sub	 esp, 24			; 00000018H
  00006	57		 push	 edi

; 570  : 	if(pSignalData == NULL) return ;

  00007	8b 7d 24	 mov	 edi, DWORD PTR _pSignalData$[ebp]
  0000a	85 ff		 test	 edi, edi
  0000c	0f 84 26 02 00
	00		 je	 $LN22@GetSignalD

; 571  : 	// (2004.02.07, ) NULL Pointer Exception , .
; 572  : 	if( !pSourceData) return;

  00012	83 7d 20 00	 cmp	 DWORD PTR _pSourceData$[ebp], 0
  00016	0f 84 1c 02 00
	00		 je	 $LN22@GetSignalD

; 573  : 
; 574  : 	double dCalData = 0.0;
; 575  : 	int nStart = point.x;

  0001c	8b 45 08	 mov	 eax, DWORD PTR _point$[ebp]
  0001f	53		 push	 ebx

; 576  : 	if(point.x == 0) {	    //new 

  00020	8b 5d 0c	 mov	 ebx, DWORD PTR _nDataCount$[ebp]
  00023	56		 push	 esi
  00024	8b 30		 mov	 esi, DWORD PTR [eax]
  00026	85 f6		 test	 esi, esi
  00028	75 7e		 jne	 SHORT $LN16@GetSignalD

; 577  : 		if(dSourceCondition == 0)

  0002a	f2 0f 10 4d 10	 movsd	 xmm1, QWORD PTR _dSourceCondition$[ebp]
  0002f	0f 57 c0	 xorps	 xmm0, xmm0
  00032	66 0f 2e c8	 ucomisd xmm1, xmm0
  00036	9f		 lahf
  00037	f6 c4 44	 test	 ah, 68			; 00000044H
  0003a	7a 04		 jp	 SHORT $LN18@GetSignalD

; 578  : 			nStart = 0;

  0003c	33 f6		 xor	 esi, esi
  0003e	eb 05		 jmp	 SHORT $LN19@GetSignalD
$LN18@GetSignalD:

; 579  : 		else
; 580  : 			nStart = (int)dSourceCondition - 1;

  00040	f2 0f 2c f1	 cvttsd2si esi, xmm1
  00044	4e		 dec	 esi
$LN19@GetSignalD:

; 581  : 
; 582  : 		//sourcelist   datacount   .
; 583  : 		if(nStart > nDataCount - 1) 

  00045	8d 43 ff	 lea	 eax, DWORD PTR [ebx-1]
  00048	3b f0		 cmp	 esi, eax
  0004a	7e 33		 jle	 SHORT $LN20@GetSignalD

; 584  : 		{
; 585  : 		 for(int i = 0 ; i < nDataCount ; i++)

  0004c	85 db		 test	 ebx, ebx
  0004e	0f 8e e2 01 00
	00		 jle	 $LN61@GetSignalD
  00054	8b 35 00 00 00
	00		 mov	 esi, DWORD PTR __imp_?AppendData@CPacket@@QAEXNH@Z
  0005a	66 0f 1f 44 00
	00		 npad	 6
$LL4@GetSignalD:

; 586  : 			pSignalData->AppendData(0.00);

  00060	6a ff		 push	 -1
  00062	83 ec 08	 sub	 esp, 8
  00065	8b cf		 mov	 ecx, edi
  00067	f2 0f 11 04 24	 movsd	 QWORD PTR [esp], xmm0
  0006c	ff d6		 call	 esi
  0006e	0f 57 c0	 xorps	 xmm0, xmm0
  00071	83 eb 01	 sub	 ebx, 1
  00074	75 ea		 jne	 SHORT $LL4@GetSignalD
  00076	5e		 pop	 esi
  00077	5b		 pop	 ebx
  00078	5f		 pop	 edi

; 626  : 			else
; 627  : 				SetData(point, count, 0.0, pSignalData);
; 628  : 		}
; 629  : 	}
; 630  : }

  00079	8b e5		 mov	 esp, ebp
  0007b	5d		 pop	 ebp
  0007c	c2 20 00	 ret	 32			; 00000020H
$LN20@GetSignalD:

; 587  : 		 return;
; 588  : 		}
; 589  : 
; 590  : 		//sourcelist 0     ..
; 591  : 		for(int i = 0 ; i < nStart ; i++)

  0007f	85 f6		 test	 esi, esi
  00081	7e 1f		 jle	 SHORT $LN6@GetSignalD
  00083	8b de		 mov	 ebx, esi
$LL7@GetSignalD:

; 592  : 			pSignalData->AppendData(0.00);

  00085	6a ff		 push	 -1
  00087	83 ec 08	 sub	 esp, 8
  0008a	8b cf		 mov	 ecx, edi
  0008c	f2 0f 11 04 24	 movsd	 QWORD PTR [esp], xmm0
  00091	ff 15 00 00 00
	00		 call	 DWORD PTR __imp_?AppendData@CPacket@@QAEXNH@Z
  00097	0f 57 c0	 xorps	 xmm0, xmm0
  0009a	83 eb 01	 sub	 ebx, 1
  0009d	75 e6		 jne	 SHORT $LL7@GetSignalD
  0009f	8b 5d 0c	 mov	 ebx, DWORD PTR _nDataCount$[ebp]
$LN6@GetSignalD:

; 593  : 		
; 594  : 		dCalData = pSourceData->GetData(nStart);

  000a2	8b 4d 20	 mov	 ecx, DWORD PTR _pSourceData$[ebp]
  000a5	56		 push	 esi

; 595  : 	}

  000a6	eb 28		 jmp	 SHORT $LN63@GetSignalD
$LN16@GetSignalD:

; 596  : 	else {
; 597  : 		if(pSignalData->GetnumericDataList() == NULL || pSignalData->GetCount() <= 0)

  000a8	8b cf		 mov	 ecx, edi
  000aa	ff 15 00 00 00
	00		 call	 DWORD PTR __imp_?GetnumericDataList@CPacket@@QAEPAV?$CList@NN@@XZ
  000b0	85 c0		 test	 eax, eax
  000b2	0f 84 7e 01 00
	00		 je	 $LN61@GetSignalD
  000b8	8b 07		 mov	 eax, DWORD PTR [edi]
  000ba	8b cf		 mov	 ecx, edi
  000bc	ff 50 14	 call	 DWORD PTR [eax+20]
  000bf	85 c0		 test	 eax, eax
  000c1	0f 8e 6f 01 00
	00		 jle	 $LN61@GetSignalD

; 598  : 			return;
; 599  : 
; 600  : 		dCalData = pSignalData->GetData(point.x - 1);

  000c7	8b 45 08	 mov	 eax, DWORD PTR _point$[ebp]
  000ca	8b cf		 mov	 ecx, edi
  000cc	8b 00		 mov	 eax, DWORD PTR [eax]
  000ce	48		 dec	 eax
  000cf	50		 push	 eax
$LN63@GetSignalD:

; 601  : 	}
; 602  : 
; 603  : 	if ( dCondition <= 1 )  

  000d0	ff 15 00 00 00
	00		 call	 DWORD PTR __imp_?GetData@CPacket@@QAENH@Z
  000d6	f2 0f 10 15 00
	00 00 00	 movsd	 xmm2, QWORD PTR __real@3ff0000000000000
  000de	f2 0f 10 4d 18	 movsd	 xmm1, QWORD PTR _dCondition$[ebp]
  000e3	66 0f 2f d1	 comisd	 xmm2, xmm1
  000e7	dd 5d f8	 fstp	 QWORD PTR _dCalData$[ebp]
  000ea	72 55		 jb	 SHORT $LN23@GetSignalD

; 604  : 	{
; 605  :           for(int i = nStart; i < nDataCount; i++)

  000ec	3b f3		 cmp	 esi, ebx
  000ee	0f 8d 42 01 00
	00		 jge	 $LN61@GetSignalD
$LL10@GetSignalD:

; 606  : 			 SetData(point, i, pSourceData->GetData(i), pSignalData);

  000f4	8b 4d 20	 mov	 ecx, DWORD PTR _pSourceData$[ebp]
  000f7	56		 push	 esi
  000f8	ff 15 00 00 00
	00		 call	 DWORD PTR __imp_?GetData@CPacket@@QAENH@Z

; 98   : 	if(point.x == 0)

  000fe	8b 45 08	 mov	 eax, DWORD PTR _point$[ebp]
  00101	8b cf		 mov	 ecx, edi

; 606  : 			 SetData(point, i, pSourceData->GetData(i), pSignalData);

  00103	dd 5d 10	 fstp	 QWORD PTR _dData$[ebp]

; 98   : 	if(point.x == 0)

  00106	f2 0f 10 45 10	 movsd	 xmm0, QWORD PTR _dData$[ebp]
  0010b	83 38 00	 cmp	 DWORD PTR [eax], 0
  0010e	75 12		 jne	 SHORT $LN32@GetSignalD

; 99   : 		pPacket->AppendData(dData);

  00110	6a ff		 push	 -1
  00112	83 ec 08	 sub	 esp, 8
  00115	f2 0f 11 04 24	 movsd	 QWORD PTR [esp], xmm0
  0011a	ff 15 00 00 00
	00		 call	 DWORD PTR __imp_?AppendData@CPacket@@QAEXNH@Z
  00120	eb 11		 jmp	 SHORT $LN8@GetSignalD
$LN32@GetSignalD:

; 100  : 	else
; 101  : 		pPacket->UpdateData(dData, nUpdateIndex, false);

  00122	6a 00		 push	 0
  00124	56		 push	 esi
  00125	83 ec 08	 sub	 esp, 8
  00128	f2 0f 11 04 24	 movsd	 QWORD PTR [esp], xmm0
  0012d	ff 15 00 00 00
	00		 call	 DWORD PTR __imp_?UpdateData@CPacket@@QAEXNH_N@Z
$LN8@GetSignalD:

; 604  : 	{
; 605  :           for(int i = nStart; i < nDataCount; i++)

  00133	46		 inc	 esi
  00134	3b f3		 cmp	 esi, ebx
  00136	7c bc		 jl	 SHORT $LL10@GetSignalD
  00138	5e		 pop	 esi
  00139	5b		 pop	 ebx
  0013a	5f		 pop	 edi

; 626  : 			else
; 627  : 				SetData(point, count, 0.0, pSignalData);
; 628  : 		}
; 629  : 	}
; 630  : }

  0013b	8b e5		 mov	 esp, ebp
  0013d	5d		 pop	 ebp
  0013e	c2 20 00	 ret	 32			; 00000020H
$LN23@GetSignalD:

; 607  :     }
; 608  : 	else {
; 609  : 		double D = 2.00 / (dCondition + 1.00); 

  00141	f2 0f 10 1d 00
	00 00 00	 movsd	 xmm3, QWORD PTR __real@4000000000000000
  00149	0f 28 c1	 movaps	 xmm0, xmm1
  0014c	f2 0f 58 c2	 addsd	 xmm0, xmm2
  00150	f2 0f 5e d8	 divsd	 xmm3, xmm0
  00154	f2 0f 11 5d e8	 movsd	 QWORD PTR _D$1$[ebp], xmm3

; 610  : 		for(int count = nStart ; count < nDataCount; count++) {

  00159	3b f3		 cmp	 esi, ebx
  0015b	0f 8d d5 00 00
	00		 jge	 $LN61@GetSignalD
  00161	f2 0f 10 45 10	 movsd	 xmm0, QWORD PTR _dSourceCondition$[ebp]
  00166	f2 0f 5c d3	 subsd	 xmm2, xmm3
  0016a	f2 0f 58 c1	 addsd	 xmm0, xmm1
  0016e	f2 0f 11 55 f0	 movsd	 QWORD PTR __real@3ff0000000000000$1$[ebp], xmm2
  00173	f2 0f 11 45 10	 movsd	 QWORD PTR _dSourceCondition$[ebp], xmm0
  00178	f2 0f 10 45 f8	 movsd	 xmm0, QWORD PTR _dCalData$[ebp]
  0017d	f2 0f 11 45 f8	 movsd	 QWORD PTR _dCalData$1$[ebp], xmm0
$LL13@GetSignalD:

; 611  : 			double source;
; 612  : 			//source  data   
; 613  : 			if(nDataCount == pSourceData->GetCount())

  00182	8b 4d 20	 mov	 ecx, DWORD PTR _pSourceData$[ebp]
  00185	8b 01		 mov	 eax, DWORD PTR [ecx]
  00187	ff 50 14	 call	 DWORD PTR [eax+20]
  0018a	3b d8		 cmp	 ebx, eax
  0018c	75 03		 jne	 SHORT $LN25@GetSignalD

; 614  : 				source = pSourceData->GetData(count);

  0018e	56		 push	 esi
  0018f	eb 08		 jmp	 SHORT $LN64@GetSignalD
$LN25@GetSignalD:

; 615  : 			//source  data  
; 616  : 			//data 1  ..
; 617  : 			// point 300
; 618  : 			// count 300 300  
; 619  : 			//     .
; 620  : 			else 
; 621  : 				source = pSourceData->GetData(count - point.x);

  00191	8b 4d 08	 mov	 ecx, DWORD PTR _point$[ebp]
  00194	8b c6		 mov	 eax, esi
  00196	2b 01		 sub	 eax, DWORD PTR [ecx]
  00198	50		 push	 eax
$LN64@GetSignalD:

; 622  : 
; 623  : 			dCalData = (source * D) + ((1.00 - D) * dCalData);

  00199	8b 4d 20	 mov	 ecx, DWORD PTR _pSourceData$[ebp]
  0019c	ff 15 00 00 00
	00		 call	 DWORD PTR __imp_?GetData@CPacket@@QAENH@Z
  001a2	f2 0f 10 4d f0	 movsd	 xmm1, QWORD PTR __real@3ff0000000000000$1$[ebp]

; 624  : 			if((count + 1) >= (dSourceCondition + dCondition))

  001a7	8d 4e 01	 lea	 ecx, DWORD PTR [esi+1]
  001aa	f2 0f 59 4d f8	 mulsd	 xmm1, QWORD PTR _dCalData$1$[ebp]
  001af	8b 45 08	 mov	 eax, DWORD PTR _point$[ebp]
  001b2	dd 5d 18	 fstp	 QWORD PTR _source$1[ebp]
  001b5	f2 0f 10 45 18	 movsd	 xmm0, QWORD PTR _source$1[ebp]
  001ba	f2 0f 59 45 e8	 mulsd	 xmm0, QWORD PTR _D$1$[ebp]
  001bf	8b 00		 mov	 eax, DWORD PTR [eax]
  001c1	89 4d 0c	 mov	 DWORD PTR tv342[ebp], ecx
  001c4	f2 0f 58 c8	 addsd	 xmm1, xmm0
  001c8	66 0f 6e c1	 movd	 xmm0, ecx
  001cc	f3 0f e6 c0	 cvtdq2pd xmm0, xmm0
  001d0	8b cf		 mov	 ecx, edi
  001d2	f2 0f 11 4d f8	 movsd	 QWORD PTR _dCalData$1$[ebp], xmm1
  001d7	66 0f 2f 45 10	 comisd	 xmm0, QWORD PTR _dSourceCondition$[ebp]
  001dc	72 23		 jb	 SHORT $LN27@GetSignalD

; 98   : 	if(point.x == 0)

  001de	85 c0		 test	 eax, eax
  001e0	75 12		 jne	 SHORT $LN37@GetSignalD

; 99   : 		pPacket->AppendData(dData);

  001e2	6a ff		 push	 -1
  001e4	83 ec 08	 sub	 esp, 8
  001e7	f2 0f 11 0c 24	 movsd	 QWORD PTR [esp], xmm1
  001ec	ff 15 00 00 00
	00		 call	 DWORD PTR __imp_?AppendData@CPacket@@QAEXNH@Z
  001f2	eb 37		 jmp	 SHORT $LN11@GetSignalD
$LN37@GetSignalD:

; 100  : 	else
; 101  : 		pPacket->UpdateData(dData, nUpdateIndex, false);

  001f4	6a 00		 push	 0
  001f6	56		 push	 esi
  001f7	83 ec 08	 sub	 esp, 8
  001fa	f2 0f 11 0c 24	 movsd	 QWORD PTR [esp], xmm1

; 625  : 				SetData(point, count, dCalData, pSignalData);

  001ff	eb 24		 jmp	 SHORT $LN65@GetSignalD
$LN27@GetSignalD:

; 98   : 	if(point.x == 0)

  00201	0f 57 c0	 xorps	 xmm0, xmm0
  00204	85 c0		 test	 eax, eax
  00206	75 12		 jne	 SHORT $LN42@GetSignalD

; 99   : 		pPacket->AppendData(dData);

  00208	6a ff		 push	 -1
  0020a	83 ec 08	 sub	 esp, 8
  0020d	f2 0f 11 04 24	 movsd	 QWORD PTR [esp], xmm0
  00212	ff 15 00 00 00
	00		 call	 DWORD PTR __imp_?AppendData@CPacket@@QAEXNH@Z
  00218	eb 11		 jmp	 SHORT $LN11@GetSignalD
$LN42@GetSignalD:

; 100  : 	else
; 101  : 		pPacket->UpdateData(dData, nUpdateIndex, false);

  0021a	6a 00		 push	 0
  0021c	56		 push	 esi
  0021d	83 ec 08	 sub	 esp, 8
  00220	f2 0f 11 04 24	 movsd	 QWORD PTR [esp], xmm0
$LN65@GetSignalD:

; 610  : 		for(int count = nStart ; count < nDataCount; count++) {

  00225	ff 15 00 00 00
	00		 call	 DWORD PTR __imp_?UpdateData@CPacket@@QAEXNH_N@Z
$LN11@GetSignalD:
  0022b	8b 75 0c	 mov	 esi, DWORD PTR tv342[ebp]
  0022e	3b f3		 cmp	 esi, ebx
  00230	0f 8c 4c ff ff
	ff		 jl	 $LL13@GetSignalD
$LN61@GetSignalD:
  00236	5e		 pop	 esi
  00237	5b		 pop	 ebx
$LN22@GetSignalD:
  00238	5f		 pop	 edi

; 626  : 			else
; 627  : 				SetData(point, count, 0.0, pSignalData);
; 628  : 		}
; 629  : 	}
; 630  : }

  00239	8b e5		 mov	 esp, ebp
  0023b	5d		 pop	 ebp
  0023c	c2 20 00	 ret	 32			; 00000020H
?GetSignalData@CIndicator@@IAEXABVCPoint@@HNNPAVCPacket@@1@Z ENDP ; CIndicator::GetSignalData
_TEXT	ENDS
; Function compile flags: /Ogtp
; File D:\git\src\IBK\IBK_DRFN\ProjSrc\SrcChartEx\ChartOCX\ChartFormulate\Indicator.cpp
;	COMDAT ?GetSignalData@CIndicator@@IAEXABVCPoint@@HNNABV?$CList@NN@@PAVCPacket@@@Z
_TEXT	SEGMENT
_D$1$ = -20						; size = 8
_dCalData$ = -20					; size = 8
_dCalData$1$ = -12					; size = 8
_this$1$ = -4						; size = 4
_point$ = 8						; size = 4
tv441 = 12						; size = 4
_nDataCount$ = 12					; size = 4
_dSourceCondition$ = 16					; size = 8
__real@3ff0000000000000$1$ = 24				; size = 8
_dCondition$ = 24					; size = 8
_dSourceList$ = 32					; size = 4
_pSignalPacket$ = 36					; size = 4
?GetSignalData@CIndicator@@IAEXABVCPoint@@HNNABV?$CList@NN@@PAVCPacket@@@Z PROC ; CIndicator::GetSignalData, COMDAT
; _this$ = ecx

; 500  : {

  00000	55		 push	 ebp
  00001	8b ec		 mov	 ebp, esp
  00003	83 ec 14	 sub	 esp, 20			; 00000014H
  00006	57		 push	 edi

; 501  : 	if(pSignalPacket == NULL) return ;

  00007	8b 7d 24	 mov	 edi, DWORD PTR _pSignalPacket$[ebp]
  0000a	89 4d fc	 mov	 DWORD PTR _this$1$[ebp], ecx
  0000d	85 ff		 test	 edi, edi
  0000f	0f 84 a4 02 00
	00		 je	 $LN21@GetSignalD

; 502  : 	CList<double, double>* pSignalList = pSignalPacket->GetnumericDataList();

  00015	53		 push	 ebx
  00016	56		 push	 esi
  00017	8b cf		 mov	 ecx, edi
  00019	ff 15 00 00 00
	00		 call	 DWORD PTR __imp_?GetnumericDataList@CPacket@@QAEPAV?$CList@NN@@XZ

; 503  : 	double dCalData = 0.0;
; 504  : 	int nStart = point.x;

  0001f	8b 55 08	 mov	 edx, DWORD PTR _point$[ebp]
  00022	8b 32		 mov	 esi, DWORD PTR [edx]

; 505  : 	if(point.x == 0) {	    //new 

  00024	85 f6		 test	 esi, esi
  00026	0f 85 d7 00 00
	00		 jne	 $LN15@GetSignalD

; 506  : 		if(dSourceCondition == 0)

  0002c	f2 0f 10 45 10	 movsd	 xmm0, QWORD PTR _dSourceCondition$[ebp]
  00031	0f 57 c9	 xorps	 xmm1, xmm1
  00034	66 0f 2e c1	 ucomisd xmm0, xmm1
  00038	9f		 lahf
  00039	f6 c4 44	 test	 ah, 68			; 00000044H
  0003c	7b 05		 jnp	 SHORT $LN18@GetSignalD
$LN17@GetSignalD:

; 507  : 			nStart = 0;
; 508  : 		else
; 509  : 			nStart = (int)dSourceCondition - 1;

  0003e	f2 0f 2c f0	 cvttsd2si esi, xmm0
  00042	4e		 dec	 esi
$LN18@GetSignalD:

; 510  : 
; 511  : 		//sourcelist   datacount   .
; 512  : 		if(nStart > nDataCount - 1) {

  00043	8b 4d 0c	 mov	 ecx, DWORD PTR _nDataCount$[ebp]
  00046	8d 41 ff	 lea	 eax, DWORD PTR [ecx-1]
  00049	3b f0		 cmp	 esi, eax
  0004b	7e 4e		 jle	 SHORT $LN19@GetSignalD

; 513  : 			for(int i = 0 ; i < nDataCount ; i++)

  0004d	33 f6		 xor	 esi, esi
  0004f	85 c9		 test	 ecx, ecx
  00051	0f 8e 60 02 00
	00		 jle	 $LN90@GetSignalD
  00057	8b 1d 00 00 00
	00		 mov	 ebx, DWORD PTR __imp_?AppendData@CPacket@@QAEXNH@Z
  0005d	0f 1f 00	 npad	 3
$LL4@GetSignalD:

; 98   : 	if(point.x == 0)

  00060	83 3a 00	 cmp	 DWORD PTR [edx], 0
  00063	8b cf		 mov	 ecx, edi
  00065	75 0e		 jne	 SHORT $LN31@GetSignalD

; 99   : 		pPacket->AppendData(dData);

  00067	6a ff		 push	 -1
  00069	83 ec 08	 sub	 esp, 8
  0006c	f2 0f 11 0c 24	 movsd	 QWORD PTR [esp], xmm1
  00071	ff d3		 call	 ebx
  00073	eb 11		 jmp	 SHORT $LN2@GetSignalD
$LN31@GetSignalD:

; 100  : 	else
; 101  : 		pPacket->UpdateData(dData, nUpdateIndex, false);

  00075	6a 00		 push	 0
  00077	56		 push	 esi
  00078	83 ec 08	 sub	 esp, 8
  0007b	f2 0f 11 0c 24	 movsd	 QWORD PTR [esp], xmm1
  00080	ff 15 00 00 00
	00		 call	 DWORD PTR __imp_?UpdateData@CPacket@@QAEXNH_N@Z
$LN2@GetSignalD:

; 513  : 			for(int i = 0 ; i < nDataCount ; i++)

  00086	8b 55 08	 mov	 edx, DWORD PTR _point$[ebp]
  00089	46		 inc	 esi
  0008a	0f 57 c9	 xorps	 xmm1, xmm1
  0008d	3b 75 0c	 cmp	 esi, DWORD PTR _nDataCount$[ebp]
  00090	7c ce		 jl	 SHORT $LL4@GetSignalD
  00092	5e		 pop	 esi
  00093	5b		 pop	 ebx
  00094	5f		 pop	 edi

; 554  : 			else
; 555  : 				SetData(point, count, 0.0, pSignalPacket);
; 556  : 		}
; 557  : 	}
; 558  : }

  00095	8b e5		 mov	 esp, ebp
  00097	5d		 pop	 ebp
  00098	c2 20 00	 ret	 32			; 00000020H
$LN19@GetSignalD:

; 514  : 				SetData(point, i, 0.00, pSignalPacket);
; 515  : 			return;
; 516  : 		}
; 517  : 
; 518  : 		//sourcelist 0     ..
; 519  : 		 for(int i = 0 ; i < nStart ; i++)

  0009b	33 db		 xor	 ebx, ebx
  0009d	85 f6		 test	 esi, esi
  0009f	7e 35		 jle	 SHORT $LN6@GetSignalD
$LL7@GetSignalD:

; 98   : 	if(point.x == 0)

  000a1	83 3a 00	 cmp	 DWORD PTR [edx], 0
  000a4	8b cf		 mov	 ecx, edi
  000a6	75 12		 jne	 SHORT $LN36@GetSignalD

; 99   : 		pPacket->AppendData(dData);

  000a8	6a ff		 push	 -1
  000aa	83 ec 08	 sub	 esp, 8
  000ad	f2 0f 11 0c 24	 movsd	 QWORD PTR [esp], xmm1
  000b2	ff 15 00 00 00
	00		 call	 DWORD PTR __imp_?AppendData@CPacket@@QAEXNH@Z
  000b8	eb 11		 jmp	 SHORT $LN5@GetSignalD
$LN36@GetSignalD:

; 100  : 	else
; 101  : 		pPacket->UpdateData(dData, nUpdateIndex, false);

  000ba	6a 00		 push	 0
  000bc	53		 push	 ebx
  000bd	83 ec 08	 sub	 esp, 8
  000c0	f2 0f 11 0c 24	 movsd	 QWORD PTR [esp], xmm1
  000c5	ff 15 00 00 00
	00		 call	 DWORD PTR __imp_?UpdateData@CPacket@@QAEXNH_N@Z
$LN5@GetSignalD:

; 514  : 				SetData(point, i, 0.00, pSignalPacket);
; 515  : 			return;
; 516  : 		}
; 517  : 
; 518  : 		//sourcelist 0     ..
; 519  : 		 for(int i = 0 ; i < nStart ; i++)

  000cb	8b 55 08	 mov	 edx, DWORD PTR _point$[ebp]
  000ce	43		 inc	 ebx
  000cf	0f 57 c9	 xorps	 xmm1, xmm1
  000d2	3b de		 cmp	 ebx, esi
  000d4	7c cb		 jl	 SHORT $LL7@GetSignalD
$LN6@GetSignalD:

; 295  : 	if(pSourceList == NULL || nIndex < 0) 

  000d6	8b 4d 20	 mov	 ecx, DWORD PTR _dSourceList$[ebp]
  000d9	85 c9		 test	 ecx, ecx
  000db	74 18		 je	 SHORT $LN41@GetSignalD
  000dd	85 f6		 test	 esi, esi
  000df	78 14		 js	 SHORT $LN41@GetSignalD

; 296  : 		return 0.0;
; 297  : 
; 298  : 	POSITION pos = FindPosition(nIndex, *pSourceList);

  000e1	51		 push	 ecx
  000e2	8b 4d fc	 mov	 ecx, DWORD PTR _this$1$[ebp]
  000e5	56		 push	 esi
  000e6	e8 00 00 00 00	 call	 ?FindPosition@CIndicator@@IBEPAU__POSITION@@HABV?$CList@NN@@@Z ; CIndicator::FindPosition

; 299  : 	if(pos == NULL)

  000eb	8b 4d 20	 mov	 ecx, DWORD PTR _dSourceList$[ebp]
  000ee	0f 57 c9	 xorps	 xmm1, xmm1
  000f1	85 c0		 test	 eax, eax
  000f3	75 07		 jne	 SHORT $LN42@GetSignalD
$LN41@GetSignalD:

; 530  : 	}
; 531  : 
; 532  : 	if ( dCondition <= 1 )  {

  000f5	f2 0f 11 4d f4	 movsd	 QWORD PTR _dCalData$1$[ebp], xmm1
  000fa	eb 38		 jmp	 SHORT $LN16@GetSignalD
$LN42@GetSignalD:

; 302  : 	return pSourceList->GetAt(pos);

  000fc	f2 0f 10 40 08	 movsd	 xmm0, QWORD PTR [eax+8]
  00101	eb 2c		 jmp	 SHORT $LN92@GetSignalD
$LN15@GetSignalD:

; 520  : 			SetData(point, i, 0.00, pSignalPacket);
; 521  : 		
; 522  : 		dCalData = GetAt(&dSourceList, nStart);
; 523  : 	}
; 524  : 	else 
; 525  : 	{
; 526  : 		if(pSignalList == NULL || pSignalList->GetCount() <= 0)

  00103	85 c0		 test	 eax, eax
  00105	0f 84 ac 01 00
	00		 je	 $LN90@GetSignalD
  0010b	83 78 0c 00	 cmp	 DWORD PTR [eax+12], 0
  0010f	0f 8e a2 01 00
	00		 jle	 $LN90@GetSignalD

; 527  : 			return;
; 528  : 
; 529  : 		dCalData = pSignalPacket->GetData(point.x - 1);

  00115	8d 46 ff	 lea	 eax, DWORD PTR [esi-1]
  00118	8b cf		 mov	 ecx, edi
  0011a	50		 push	 eax
  0011b	ff 15 00 00 00
	00		 call	 DWORD PTR __imp_?GetData@CPacket@@QAENH@Z
  00121	8b 4d 20	 mov	 ecx, DWORD PTR _dSourceList$[ebp]
  00124	0f 57 c9	 xorps	 xmm1, xmm1
  00127	dd 5d ec	 fstp	 QWORD PTR _dCalData$[ebp]
  0012a	f2 0f 10 45 ec	 movsd	 xmm0, QWORD PTR _dCalData$[ebp]
$LN92@GetSignalD:

; 530  : 	}
; 531  : 
; 532  : 	if ( dCondition <= 1 )  {

  0012f	f2 0f 11 45 f4	 movsd	 QWORD PTR _dCalData$1$[ebp], xmm0
$LN16@GetSignalD:
  00134	f2 0f 10 05 00
	00 00 00	 movsd	 xmm0, QWORD PTR __real@3ff0000000000000
  0013c	f2 0f 10 55 18	 movsd	 xmm2, QWORD PTR _dCondition$[ebp]
  00141	66 0f 2f c2	 comisd	 xmm0, xmm2
  00145	8b 5d 0c	 mov	 ebx, DWORD PTR _nDataCount$[ebp]
  00148	72 69		 jb	 SHORT $LN22@GetSignalD

; 533  :           for(int i = nStart; i < nDataCount; i++)

  0014a	3b f3		 cmp	 esi, ebx
  0014c	0f 8d 65 01 00
	00		 jge	 $LN90@GetSignalD
$LL10@GetSignalD:

; 295  : 	if(pSourceList == NULL || nIndex < 0) 

  00152	85 c9		 test	 ecx, ecx
  00154	74 1c		 je	 SHORT $LN46@GetSignalD
  00156	85 f6		 test	 esi, esi
  00158	78 18		 js	 SHORT $LN46@GetSignalD

; 296  : 		return 0.0;
; 297  : 
; 298  : 	POSITION pos = FindPosition(nIndex, *pSourceList);

  0015a	51		 push	 ecx
  0015b	8b 4d fc	 mov	 ecx, DWORD PTR _this$1$[ebp]
  0015e	56		 push	 esi
  0015f	e8 00 00 00 00	 call	 ?FindPosition@CIndicator@@IBEPAU__POSITION@@HABV?$CList@NN@@@Z ; CIndicator::FindPosition

; 299  : 	if(pos == NULL)

  00164	85 c0		 test	 eax, eax
  00166	75 05		 jne	 SHORT $LN47@GetSignalD
  00168	0f 57 c9	 xorps	 xmm1, xmm1

; 300  : 		return 0.0;

  0016b	eb 05		 jmp	 SHORT $LN46@GetSignalD
$LN47@GetSignalD:

; 301  : 
; 302  : 	return pSourceList->GetAt(pos);

  0016d	f2 0f 10 48 08	 movsd	 xmm1, QWORD PTR [eax+8]
$LN46@GetSignalD:

; 98   : 	if(point.x == 0)

  00172	8b 45 08	 mov	 eax, DWORD PTR _point$[ebp]
  00175	8b cf		 mov	 ecx, edi
  00177	83 38 00	 cmp	 DWORD PTR [eax], 0
  0017a	75 12		 jne	 SHORT $LN51@GetSignalD

; 99   : 		pPacket->AppendData(dData);

  0017c	6a ff		 push	 -1
  0017e	83 ec 08	 sub	 esp, 8
  00181	f2 0f 11 0c 24	 movsd	 QWORD PTR [esp], xmm1
  00186	ff 15 00 00 00
	00		 call	 DWORD PTR __imp_?AppendData@CPacket@@QAEXNH@Z
  0018c	eb 11		 jmp	 SHORT $LN8@GetSignalD
$LN51@GetSignalD:

; 100  : 	else
; 101  : 		pPacket->UpdateData(dData, nUpdateIndex, false);

  0018e	6a 00		 push	 0
  00190	56		 push	 esi
  00191	83 ec 08	 sub	 esp, 8
  00194	f2 0f 11 0c 24	 movsd	 QWORD PTR [esp], xmm1
  00199	ff 15 00 00 00
	00		 call	 DWORD PTR __imp_?UpdateData@CPacket@@QAEXNH_N@Z
$LN8@GetSignalD:

; 533  :           for(int i = nStart; i < nDataCount; i++)

  0019f	8b 4d 20	 mov	 ecx, DWORD PTR _dSourceList$[ebp]
  001a2	46		 inc	 esi
  001a3	0f 57 c9	 xorps	 xmm1, xmm1
  001a6	3b f3		 cmp	 esi, ebx
  001a8	7c a8		 jl	 SHORT $LL10@GetSignalD
  001aa	5e		 pop	 esi
  001ab	5b		 pop	 ebx
  001ac	5f		 pop	 edi

; 554  : 			else
; 555  : 				SetData(point, count, 0.0, pSignalPacket);
; 556  : 		}
; 557  : 	}
; 558  : }

  001ad	8b e5		 mov	 esp, ebp
  001af	5d		 pop	 ebp
  001b0	c2 20 00	 ret	 32			; 00000020H
$LN22@GetSignalD:

; 534  : 			SetData(point, i, GetAt(&dSourceList, i), pSignalPacket);
; 535  :     }
; 536  : 	else {
; 537  : 		double D = 2.00 / (dCondition + 1.00); 

  001b3	f2 0f 10 1d 00
	00 00 00	 movsd	 xmm3, QWORD PTR __real@3ff0000000000000
  001bb	0f 28 c2	 movaps	 xmm0, xmm2
  001be	f2 0f 10 25 00
	00 00 00	 movsd	 xmm4, QWORD PTR __real@4000000000000000
  001c6	f2 0f 58 c3	 addsd	 xmm0, xmm3
  001ca	f2 0f 5e e0	 divsd	 xmm4, xmm0
  001ce	f2 0f 11 65 ec	 movsd	 QWORD PTR _D$1$[ebp], xmm4

; 538  : 		for(int count = nStart ; count < nDataCount; count++) {

  001d3	3b f3		 cmp	 esi, ebx
  001d5	0f 8d dc 00 00
	00		 jge	 $LN90@GetSignalD
  001db	f2 0f 10 45 10	 movsd	 xmm0, QWORD PTR _dSourceCondition$[ebp]
  001e0	f2 0f 5c dc	 subsd	 xmm3, xmm4
  001e4	f2 0f 58 c2	 addsd	 xmm0, xmm2
  001e8	f2 0f 11 5d 18	 movsd	 QWORD PTR __real@3ff0000000000000$1$[ebp], xmm3
  001ed	f2 0f 11 45 10	 movsd	 QWORD PTR _dSourceCondition$[ebp], xmm0
$LL13@GetSignalD:

; 539  : 			double source;
; 540  : 			//source  data   
; 541  : 			if(nDataCount == dSourceList.GetCount())

  001f2	3b 59 0c	 cmp	 ebx, DWORD PTR [ecx+12]
  001f5	75 08		 jne	 SHORT $LN24@GetSignalD

; 295  : 	if(pSourceList == NULL || nIndex < 0) 

  001f7	85 f6		 test	 esi, esi
  001f9	78 2a		 js	 SHORT $LN61@GetSignalD

; 296  : 		return 0.0;
; 297  : 
; 298  : 	POSITION pos = FindPosition(nIndex, *pSourceList);

  001fb	51		 push	 ecx
  001fc	56		 push	 esi

; 542  : 				source = GetAt(&dSourceList, count);

  001fd	eb 0b		 jmp	 SHORT $LN96@GetSignalD
$LN24@GetSignalD:

; 543  : 			//source  data  
; 544  : 			//data 1  ..
; 545  : 			// point 300
; 546  : 			// count 300 300  
; 547  : 			//     .
; 548  : 			else 
; 549  : 				source = GetAt(&dSourceList, count - point.x);

  001ff	8b 55 08	 mov	 edx, DWORD PTR _point$[ebp]
  00202	8b c6		 mov	 eax, esi
  00204	2b 02		 sub	 eax, DWORD PTR [edx]

; 295  : 	if(pSourceList == NULL || nIndex < 0) 

  00206	78 1d		 js	 SHORT $LN61@GetSignalD

; 296  : 		return 0.0;
; 297  : 
; 298  : 	POSITION pos = FindPosition(nIndex, *pSourceList);

  00208	51		 push	 ecx
  00209	50		 push	 eax
$LN96@GetSignalD:

; 550  : 
; 551  : 			dCalData = (source * D) + ((1.00 - D) * dCalData);

  0020a	8b 4d fc	 mov	 ecx, DWORD PTR _this$1$[ebp]
  0020d	e8 00 00 00 00	 call	 ?FindPosition@CIndicator@@IBEPAU__POSITION@@HABV?$CList@NN@@@Z ; CIndicator::FindPosition
  00212	f2 0f 10 5d 18	 movsd	 xmm3, QWORD PTR __real@3ff0000000000000$1$[ebp]
  00217	0f 57 c9	 xorps	 xmm1, xmm1
  0021a	85 c0		 test	 eax, eax
  0021c	74 07		 je	 SHORT $LN61@GetSignalD
  0021e	f2 0f 10 50 08	 movsd	 xmm2, QWORD PTR [eax+8]
  00223	eb 03		 jmp	 SHORT $LN59@GetSignalD
$LN61@GetSignalD:
  00225	0f 57 d2	 xorps	 xmm2, xmm2
$LN59@GetSignalD:
  00228	f2 0f 59 5d f4	 mulsd	 xmm3, QWORD PTR _dCalData$1$[ebp]

; 552  : 			if((count + 1) >= (dSourceCondition + dCondition))

  0022d	8d 4e 01	 lea	 ecx, DWORD PTR [esi+1]
  00230	8b 45 08	 mov	 eax, DWORD PTR _point$[ebp]
  00233	f2 0f 59 55 ec	 mulsd	 xmm2, QWORD PTR _D$1$[ebp]
  00238	89 4d 0c	 mov	 DWORD PTR tv441[ebp], ecx
  0023b	66 0f 6e c1	 movd	 xmm0, ecx
  0023f	8b cf		 mov	 ecx, edi
  00241	8b 00		 mov	 eax, DWORD PTR [eax]
  00243	f3 0f e6 c0	 cvtdq2pd xmm0, xmm0
  00247	f2 0f 58 d3	 addsd	 xmm2, xmm3
  0024b	66 0f 2f 45 10	 comisd	 xmm0, QWORD PTR _dSourceCondition$[ebp]
  00250	f2 0f 11 55 f4	 movsd	 QWORD PTR _dCalData$1$[ebp], xmm2
  00255	72 23		 jb	 SHORT $LN26@GetSignalD

; 98   : 	if(point.x == 0)

  00257	85 c0		 test	 eax, eax
  00259	75 12		 jne	 SHORT $LN66@GetSignalD

; 99   : 		pPacket->AppendData(dData);

  0025b	6a ff		 push	 -1
  0025d	83 ec 08	 sub	 esp, 8
  00260	f2 0f 11 14 24	 movsd	 QWORD PTR [esp], xmm2
  00265	ff 15 00 00 00
	00		 call	 DWORD PTR __imp_?AppendData@CPacket@@QAEXNH@Z
  0026b	eb 34		 jmp	 SHORT $LN11@GetSignalD
$LN66@GetSignalD:

; 100  : 	else
; 101  : 		pPacket->UpdateData(dData, nUpdateIndex, false);

  0026d	6a 00		 push	 0
  0026f	56		 push	 esi
  00270	83 ec 08	 sub	 esp, 8
  00273	f2 0f 11 14 24	 movsd	 QWORD PTR [esp], xmm2

; 553  : 				SetData(point, count, dCalData, pSignalPacket);

  00278	eb 21		 jmp	 SHORT $LN94@GetSignalD
$LN26@GetSignalD:

; 98   : 	if(point.x == 0)

  0027a	85 c0		 test	 eax, eax
  0027c	75 12		 jne	 SHORT $LN71@GetSignalD

; 99   : 		pPacket->AppendData(dData);

  0027e	6a ff		 push	 -1
  00280	83 ec 08	 sub	 esp, 8
  00283	f2 0f 11 0c 24	 movsd	 QWORD PTR [esp], xmm1
  00288	ff 15 00 00 00
	00		 call	 DWORD PTR __imp_?AppendData@CPacket@@QAEXNH@Z
  0028e	eb 11		 jmp	 SHORT $LN11@GetSignalD
$LN71@GetSignalD:

; 100  : 	else
; 101  : 		pPacket->UpdateData(dData, nUpdateIndex, false);

  00290	6a 00		 push	 0
  00292	56		 push	 esi
  00293	83 ec 08	 sub	 esp, 8
  00296	f2 0f 11 0c 24	 movsd	 QWORD PTR [esp], xmm1
$LN94@GetSignalD:

; 538  : 		for(int count = nStart ; count < nDataCount; count++) {

  0029b	ff 15 00 00 00
	00		 call	 DWORD PTR __imp_?UpdateData@CPacket@@QAEXNH_N@Z
$LN11@GetSignalD:
  002a1	8b 75 0c	 mov	 esi, DWORD PTR tv441[ebp]
  002a4	0f 57 c9	 xorps	 xmm1, xmm1
  002a7	f2 0f 10 5d 18	 movsd	 xmm3, QWORD PTR __real@3ff0000000000000$1$[ebp]
  002ac	8b 4d 20	 mov	 ecx, DWORD PTR _dSourceList$[ebp]
  002af	3b f3		 cmp	 esi, ebx
  002b1	0f 8c 3b ff ff
	ff		 jl	 $LL13@GetSignalD
$LN90@GetSignalD:
  002b7	5e		 pop	 esi
  002b8	5b		 pop	 ebx
$LN21@GetSignalD:
  002b9	5f		 pop	 edi

; 554  : 			else
; 555  : 				SetData(point, count, 0.0, pSignalPacket);
; 556  : 		}
; 557  : 	}
; 558  : }

  002ba	8b e5		 mov	 esp, ebp
  002bc	5d		 pop	 ebp
  002bd	c2 20 00	 ret	 32			; 00000020H
?GetSignalData@CIndicator@@IAEXABVCPoint@@HNNABV?$CList@NN@@PAVCPacket@@@Z ENDP ; CIndicator::GetSignalData
_TEXT	ENDS
; Function compile flags: /Ogtp
; File D:\git\src\IBK\IBK_DRFN\ProjSrc\SrcChartEx\ChartOCX\ChartFormulate\Indicator.cpp
; File C:\Program Files (x86)\Microsoft Visual Studio\2019\Community\VC\Tools\MSVC\14.29.30133\atlmfc\include\atlsimpstr.h
; File C:\Program Files (x86)\Microsoft Visual Studio\2019\Community\VC\Tools\MSVC\14.29.30133\atlmfc\include\cstringt.h
; File D:\git\src\IBK\IBK_DRFN\ProjSrc\SrcChartEx\ChartOCX\ChartFormulate\Indicator.cpp
; File C:\Program Files (x86)\Microsoft Visual Studio\2019\Community\VC\Tools\MSVC\14.29.30133\atlmfc\include\cstringt.h
; File D:\git\src\IBK\IBK_DRFN\ProjSrc\SrcChartEx\ChartOCX\ChartFormulate\Indicator.cpp
;	COMDAT ?GetPacket@CIndicator@@QAEPAVCPacket@@PAVCPacketList@@ABV?$CStringT@DV?$StrTraitMFC_DLL@DV?$ChTraitsCRT@D@ATL@@@@@ATL@@W4CALCULATETYPE@CCalculateBaseData@@ABVCPoint@@@Z
_TEXT	SEGMENT
$T2 = -20						; size = 4
_strRealPacketNames$ = -16				; size = 4
__$EHRec$ = -12						; size = 12
$T3 = 8							; size = 4
_pPacketList$ = 8					; size = 4
_bLow$1$ = 11						; size = 1
$T4 = 12						; size = 4
_strPacketNames$ = 12					; size = 4
_bClose$1$ = 15						; size = 1
_eCalType$ = 16						; size = 4
$T5 = 20						; size = 4
$T6 = 20						; size = 4
_point$ = 20						; size = 4
?GetPacket@CIndicator@@QAEPAVCPacket@@PAVCPacketList@@ABV?$CStringT@DV?$StrTraitMFC_DLL@DV?$ChTraitsCRT@D@ATL@@@@@ATL@@W4CALCULATETYPE@CCalculateBaseData@@ABVCPoint@@@Z PROC ; CIndicator::GetPacket, COMDAT
; _this$ = ecx

; 454  : {

  00000	55		 push	 ebp
  00001	8b ec		 mov	 ebp, esp
  00003	6a ff		 push	 -1
  00005	68 00 00 00 00	 push	 __ehhandler$?GetPacket@CIndicator@@QAEPAVCPacket@@PAVCPacketList@@ABV?$CStringT@DV?$StrTraitMFC_DLL@DV?$ChTraitsCRT@D@ATL@@@@@ATL@@W4CALCULATETYPE@CCalculateBaseData@@ABVCPoint@@@Z
  0000a	64 a1 00 00 00
	00		 mov	 eax, DWORD PTR fs:0
  00010	50		 push	 eax
  00011	83 ec 08	 sub	 esp, 8
  00014	53		 push	 ebx
  00015	56		 push	 esi
  00016	57		 push	 edi
  00017	a1 00 00 00 00	 mov	 eax, DWORD PTR ___security_cookie
  0001c	33 c5		 xor	 eax, ebp
  0001e	50		 push	 eax
  0001f	8d 45 f4	 lea	 eax, DWORD PTR __$EHRec$[ebp]
  00022	64 a3 00 00 00
	00		 mov	 DWORD PTR fs:0, eax
  00028	8b d9		 mov	 ebx, ecx

; 455  : 	if(pPacketList == NULL)

  0002a	8b 7d 08	 mov	 edi, DWORD PTR _pPacketList$[ebp]
  0002d	85 ff		 test	 edi, edi
  0002f	75 16		 jne	 SHORT $LN2@GetPacket

; 456  : 		return NULL;

  00031	33 c0		 xor	 eax, eax

; 474  : }

  00033	8b 4d f4	 mov	 ecx, DWORD PTR __$EHRec$[ebp]
  00036	64 89 0d 00 00
	00 00		 mov	 DWORD PTR fs:0, ecx
  0003d	59		 pop	 ecx
  0003e	5f		 pop	 edi
  0003f	5e		 pop	 esi
  00040	5b		 pop	 ebx
  00041	8b e5		 mov	 esp, ebp
  00043	5d		 pop	 ebp
  00044	c2 10 00	 ret	 16			; 00000010H
$LN2@GetPacket:

; 457  : 
; 458  : 	CString strRealPacketNames = strPacketNames;

  00047	ff 75 0c	 push	 DWORD PTR _strPacketNames$[ebp]
  0004a	8d 4d f0	 lea	 ecx, DWORD PTR _strRealPacketNames$[ebp]
  0004d	ff 15 00 00 00
	00		 call	 DWORD PTR __imp_??0?$CStringT@DV?$StrTraitMFC_DLL@DV?$ChTraitsCRT@D@ATL@@@@@ATL@@QAE@ABV01@@Z

; 459  : 	//++  ..
; 460  : 	bool bHigh = SeachCalForPacketName(strRealPacketNames, _MTEXT( C0_HIGH));

  00053	a1 54 00 00 00	 mov	 eax, DWORD PTR ?g_iMetaTable@@3VIMetaTable@@A+84
  00058	8d 4d 08	 lea	 ecx, DWORD PTR $T3[ebp]
  0005b	c7 45 fc 00 00
	00 00		 mov	 DWORD PTR __$EHRec$[ebp+8], 0
  00062	ff 70 0c	 push	 DWORD PTR [eax+12]
  00065	ff 15 00 00 00
	00		 call	 DWORD PTR __imp_??0?$CStringT@DV?$StrTraitMFC_DLL@DV?$ChTraitsCRT@D@ATL@@@@@ATL@@QAE@PBD@Z

; 106  : 	return (calpacketname.Find(packetname) >= 0);

  0006b	6a 00		 push	 0
  0006d	ff 75 08	 push	 DWORD PTR $T3[ebp]
  00070	8d 4d f0	 lea	 ecx, DWORD PTR _strRealPacketNames$[ebp]
  00073	ff 15 00 00 00
	00		 call	 DWORD PTR __imp_?Find@?$CStringT@DV?$StrTraitMFC_DLL@DV?$ChTraitsCRT@D@ATL@@@@@ATL@@QBEHPBDH@Z

; 459  : 	//++  ..
; 460  : 	bool bHigh = SeachCalForPacketName(strRealPacketNames, _MTEXT( C0_HIGH));

  00079	8d 4d 08	 lea	 ecx, DWORD PTR $T3[ebp]

; 106  : 	return (calpacketname.Find(packetname) >= 0);

  0007c	8b f0		 mov	 esi, eax

; 459  : 	//++  ..
; 460  : 	bool bHigh = SeachCalForPacketName(strRealPacketNames, _MTEXT( C0_HIGH));

  0007e	ff 15 00 00 00
	00		 call	 DWORD PTR __imp_??1?$CStringT@DV?$StrTraitMFC_DLL@DV?$ChTraitsCRT@D@ATL@@@@@ATL@@QAE@XZ

; 461  : 	bool bLow = SeachCalForPacketName(strRealPacketNames, _MTEXT( C0_LOW));

  00084	8b 0d 54 00 00
	00		 mov	 ecx, DWORD PTR ?g_iMetaTable@@3VIMetaTable@@A+84
  0008a	ff 71 10	 push	 DWORD PTR [ecx+16]
  0008d	8d 4d 0c	 lea	 ecx, DWORD PTR $T4[ebp]
  00090	ff 15 00 00 00
	00		 call	 DWORD PTR __imp_??0?$CStringT@DV?$StrTraitMFC_DLL@DV?$ChTraitsCRT@D@ATL@@@@@ATL@@QAE@PBD@Z

; 106  : 	return (calpacketname.Find(packetname) >= 0);

  00096	6a 00		 push	 0
  00098	ff 75 0c	 push	 DWORD PTR $T4[ebp]
  0009b	8d 4d f0	 lea	 ecx, DWORD PTR _strRealPacketNames$[ebp]
  0009e	ff 15 00 00 00
	00		 call	 DWORD PTR __imp_?Find@?$CStringT@DV?$StrTraitMFC_DLL@DV?$ChTraitsCRT@D@ATL@@@@@ATL@@QBEHPBDH@Z
  000a4	85 c0		 test	 eax, eax

; 461  : 	bool bLow = SeachCalForPacketName(strRealPacketNames, _MTEXT( C0_LOW));

  000a6	8d 4d 0c	 lea	 ecx, DWORD PTR $T4[ebp]

; 106  : 	return (calpacketname.Find(packetname) >= 0);

  000a9	0f 99 45 0b	 setns	 BYTE PTR _bLow$1$[ebp]

; 461  : 	bool bLow = SeachCalForPacketName(strRealPacketNames, _MTEXT( C0_LOW));

  000ad	ff 15 00 00 00
	00		 call	 DWORD PTR __imp_??1?$CStringT@DV?$StrTraitMFC_DLL@DV?$ChTraitsCRT@D@ATL@@@@@ATL@@QAE@XZ

; 462  : 	bool bClose = SeachCalForPacketName(strRealPacketNames, _MTEXT( C0_CLOSE));

  000b3	a1 54 00 00 00	 mov	 eax, DWORD PTR ?g_iMetaTable@@3VIMetaTable@@A+84
  000b8	8d 4d ec	 lea	 ecx, DWORD PTR $T2[ebp]
  000bb	ff 70 14	 push	 DWORD PTR [eax+20]
  000be	ff 15 00 00 00
	00		 call	 DWORD PTR __imp_??0?$CStringT@DV?$StrTraitMFC_DLL@DV?$ChTraitsCRT@D@ATL@@@@@ATL@@QAE@PBD@Z

; 106  : 	return (calpacketname.Find(packetname) >= 0);

  000c4	6a 00		 push	 0
  000c6	ff 75 ec	 push	 DWORD PTR $T2[ebp]
  000c9	8d 4d f0	 lea	 ecx, DWORD PTR _strRealPacketNames$[ebp]
  000cc	ff 15 00 00 00
	00		 call	 DWORD PTR __imp_?Find@?$CStringT@DV?$StrTraitMFC_DLL@DV?$ChTraitsCRT@D@ATL@@@@@ATL@@QBEHPBDH@Z
  000d2	85 c0		 test	 eax, eax

; 462  : 	bool bClose = SeachCalForPacketName(strRealPacketNames, _MTEXT( C0_CLOSE));

  000d4	8d 4d ec	 lea	 ecx, DWORD PTR $T2[ebp]

; 106  : 	return (calpacketname.Find(packetname) >= 0);

  000d7	0f 99 45 0f	 setns	 BYTE PTR _bClose$1$[ebp]

; 462  : 	bool bClose = SeachCalForPacketName(strRealPacketNames, _MTEXT( C0_CLOSE));

  000db	ff 15 00 00 00
	00		 call	 DWORD PTR __imp_??1?$CStringT@DV?$StrTraitMFC_DLL@DV?$ChTraitsCRT@D@ATL@@@@@ATL@@QAE@XZ

; 463  : 	if(bHigh && bLow)

  000e1	85 f6		 test	 esi, esi
  000e3	78 29		 js	 SHORT $LN3@GetPacket
  000e5	80 7d 0b 00	 cmp	 BYTE PTR _bLow$1$[ebp], 0
  000e9	74 23		 je	 SHORT $LN3@GetPacket

; 464  : 	{
; 465  : 		if(bClose)

  000eb	80 7d 0f 00	 cmp	 BYTE PTR _bClose$1$[ebp], 0
  000ef	8b cb		 mov	 ecx, ebx
  000f1	ff 75 14	 push	 DWORD PTR _point$[ebp]
  000f4	ff 75 10	 push	 DWORD PTR _eCalType$[ebp]
  000f7	57		 push	 edi
  000f8	74 0a		 je	 SHORT $LN4@GetPacket

; 466  : 			return MakePacket_HighLowClose(pPacketList, eCalType, point);

  000fa	e8 00 00 00 00	 call	 ?MakePacket_HighLowClose@CIndicator@@IAEPAVCPacket@@PAVCPacketList@@W4CALCULATETYPE@CCalculateBaseData@@ABVCPoint@@@Z ; CIndicator::MakePacket_HighLowClose
  000ff	e9 97 00 00 00	 jmp	 $LN40@GetPacket
$LN4@GetPacket:

; 467  : 		return MakePacket_HighLow(pPacketList, eCalType, point);

  00104	e8 00 00 00 00	 call	 ?MakePacket_HighLow@CIndicator@@IAEPAVCPacket@@PAVCPacketList@@W4CALCULATETYPE@CCalculateBaseData@@ABVCPoint@@@Z ; CIndicator::MakePacket_HighLow
  00109	e9 8d 00 00 00	 jmp	 $LN40@GetPacket
$LN3@GetPacket:

; 468  : 	}
; 469  : 	
; 470  : 	// packet ..
; 471  : 	if(strRealPacketNames.Right(1) != ',')

  0010e	6a 01		 push	 1
  00110	8d 45 14	 lea	 eax, DWORD PTR $T6[ebp]
  00113	50		 push	 eax
  00114	8d 4d f0	 lea	 ecx, DWORD PTR _strRealPacketNames$[ebp]
  00117	ff 15 00 00 00
	00		 call	 DWORD PTR __imp_?Right@?$CStringT@DV?$StrTraitMFC_DLL@DV?$ChTraitsCRT@D@ATL@@@@@ATL@@QBE?AV12@H@Z
; File C:\Program Files (x86)\Microsoft Visual Studio\2019\Community\VC\Tools\MSVC\14.29.30133\atlmfc\include\atlsimpstr.h

; 519  : 		return( GetData()->nDataLength );

  0011d	8b 08		 mov	 ecx, DWORD PTR [eax]
; File C:\Program Files (x86)\Microsoft Visual Studio\2019\Community\VC\Tools\MSVC\14.29.30133\atlmfc\include\cstringt.h

; 2699 : 		return((str1.GetLength() != 1) || (str1[0] != ch2));

  0011f	83 79 f4 01	 cmp	 DWORD PTR [ecx-12], 1
  00123	75 56		 jne	 SHORT $LN32@GetPacket
  00125	6a 00		 push	 0
  00127	8b c8		 mov	 ecx, eax
  00129	ff 15 00 00 00
	00		 call	 DWORD PTR __imp_??A?$CSimpleStringT@D$00@ATL@@QBEDH@Z
  0012f	3c 2c		 cmp	 al, 44			; 0000002cH
  00131	75 48		 jne	 SHORT $LN32@GetPacket
  00133	8d 4d 14	 lea	 ecx, DWORD PTR $T6[ebp]
  00136	ff 15 00 00 00
	00		 call	 DWORD PTR __imp_??1?$CStringT@DV?$StrTraitMFC_DLL@DV?$ChTraitsCRT@D@ATL@@@@@ATL@@QAE@XZ
; File D:\git\src\IBK\IBK_DRFN\ProjSrc\SrcChartEx\ChartOCX\ChartFormulate\Indicator.cpp

; 473  : 	return pPacketList->GetBaseData(CDataConversion::GetStringData(strRealPacketNames, ","), true);

  0013c	68 00 00 00 00	 push	 OFFSET ??_C@_01IHBHIGKO@?0@
  00141	8d 4d 14	 lea	 ecx, DWORD PTR $T5[ebp]
  00144	ff 15 00 00 00
	00		 call	 DWORD PTR __imp_??0?$CStringT@DV?$StrTraitMFC_DLL@DV?$ChTraitsCRT@D@ATL@@@@@ATL@@QAE@PBD@Z
  0014a	6a 01		 push	 1
  0014c	51		 push	 ecx
  0014d	8b c4		 mov	 eax, esp
  0014f	c6 45 fc 01	 mov	 BYTE PTR __$EHRec$[ebp+8], 1
  00153	6a 01		 push	 1
  00155	8d 4d 14	 lea	 ecx, DWORD PTR $T5[ebp]
  00158	51		 push	 ecx
  00159	8d 4d f0	 lea	 ecx, DWORD PTR _strRealPacketNames$[ebp]
  0015c	51		 push	 ecx
  0015d	50		 push	 eax
  0015e	e8 00 00 00 00	 call	 ?GetStringData@CDataConversion@@SA?AV?$CStringT@DV?$StrTraitMFC_DLL@DV?$ChTraitsCRT@D@ATL@@@@@ATL@@AAV23@ABV23@_N@Z ; CDataConversion::GetStringData
  00163	83 c4 10	 add	 esp, 16			; 00000010H
  00166	8b cf		 mov	 ecx, edi
  00168	ff 15 00 00 00
	00		 call	 DWORD PTR __imp_?GetBaseData@CPacketList@@QAEPAVCPacket@@V?$CStringT@DV?$StrTraitMFC_DLL@DV?$ChTraitsCRT@D@ATL@@@@@ATL@@_N@Z
  0016e	8d 4d 14	 lea	 ecx, DWORD PTR $T5[ebp]
  00171	8b f0		 mov	 esi, eax
  00173	ff 15 00 00 00
	00		 call	 DWORD PTR __imp_??1?$CStringT@DV?$StrTraitMFC_DLL@DV?$ChTraitsCRT@D@ATL@@@@@ATL@@QAE@XZ
  00179	eb 22		 jmp	 SHORT $LN17@GetPacket
$LN32@GetPacket:
; File C:\Program Files (x86)\Microsoft Visual Studio\2019\Community\VC\Tools\MSVC\14.29.30133\atlmfc\include\cstringt.h

; 2699 : 		return((str1.GetLength() != 1) || (str1[0] != ch2));

  0017b	8d 4d 14	 lea	 ecx, DWORD PTR $T6[ebp]
  0017e	ff 15 00 00 00
	00		 call	 DWORD PTR __imp_??1?$CStringT@DV?$StrTraitMFC_DLL@DV?$ChTraitsCRT@D@ATL@@@@@ATL@@QAE@XZ
; File D:\git\src\IBK\IBK_DRFN\ProjSrc\SrcChartEx\ChartOCX\ChartFormulate\Indicator.cpp

; 472  : 		return pPacketList->GetBaseData(strRealPacketNames, true);

  00184	6a 01		 push	 1
  00186	51		 push	 ecx
  00187	8d 45 f0	 lea	 eax, DWORD PTR _strRealPacketNames$[ebp]
  0018a	8b cc		 mov	 ecx, esp
  0018c	50		 push	 eax
  0018d	ff 15 00 00 00
	00		 call	 DWORD PTR __imp_??0?$CStringT@DV?$StrTraitMFC_DLL@DV?$ChTraitsCRT@D@ATL@@@@@ATL@@QAE@ABV01@@Z
  00193	8b cf		 mov	 ecx, edi
  00195	ff 15 00 00 00
	00		 call	 DWORD PTR __imp_?GetBaseData@CPacketList@@QAEPAVCPacket@@V?$CStringT@DV?$StrTraitMFC_DLL@DV?$ChTraitsCRT@D@ATL@@@@@ATL@@_N@Z
$LN40@GetPacket:

; 473  : 	return pPacketList->GetBaseData(CDataConversion::GetStringData(strRealPacketNames, ","), true);

  0019b	8b f0		 mov	 esi, eax
$LN17@GetPacket:
  0019d	8d 4d f0	 lea	 ecx, DWORD PTR _strRealPacketNames$[ebp]
  001a0	ff 15 00 00 00
	00		 call	 DWORD PTR __imp_??1?$CStringT@DV?$StrTraitMFC_DLL@DV?$ChTraitsCRT@D@ATL@@@@@ATL@@QAE@XZ
  001a6	8b c6		 mov	 eax, esi

; 474  : }

  001a8	8b 4d f4	 mov	 ecx, DWORD PTR __$EHRec$[ebp]
  001ab	64 89 0d 00 00
	00 00		 mov	 DWORD PTR fs:0, ecx
  001b2	59		 pop	 ecx
  001b3	5f		 pop	 edi
  001b4	5e		 pop	 esi
  001b5	5b		 pop	 ebx
  001b6	8b e5		 mov	 esp, ebp
  001b8	5d		 pop	 ebp
  001b9	c2 10 00	 ret	 16			; 00000010H
_TEXT	ENDS
;	COMDAT text$x
text$x	SEGMENT
__unwindfunclet$?GetPacket@CIndicator@@QAEPAVCPacket@@PAVCPacketList@@ABV?$CStringT@DV?$StrTraitMFC_DLL@DV?$ChTraitsCRT@D@ATL@@@@@ATL@@W4CALCULATETYPE@CCalculateBaseData@@ABVCPoint@@@Z$0:
  00000	8d 4d f0	 lea	 ecx, DWORD PTR _strRealPacketNames$[ebp]
  00003	ff 25 00 00 00
	00		 jmp	 DWORD PTR __imp_??1?$CStringT@DV?$StrTraitMFC_DLL@DV?$ChTraitsCRT@D@ATL@@@@@ATL@@QAE@XZ
__unwindfunclet$?GetPacket@CIndicator@@QAEPAVCPacket@@PAVCPacketList@@ABV?$CStringT@DV?$StrTraitMFC_DLL@DV?$ChTraitsCRT@D@ATL@@@@@ATL@@W4CALCULATETYPE@CCalculateBaseData@@ABVCPoint@@@Z$6:
  00009	8d 4d 14	 lea	 ecx, DWORD PTR $T5[ebp]
  0000c	ff 25 00 00 00
	00		 jmp	 DWORD PTR __imp_??1?$CStringT@DV?$StrTraitMFC_DLL@DV?$ChTraitsCRT@D@ATL@@@@@ATL@@QAE@XZ
  00012	cc		 int	 3
  00013	cc		 int	 3
  00014	cc		 int	 3
  00015	cc		 int	 3
  00016	cc		 int	 3
__ehhandler$?GetPacket@CIndicator@@QAEPAVCPacket@@PAVCPacketList@@ABV?$CStringT@DV?$StrTraitMFC_DLL@DV?$ChTraitsCRT@D@ATL@@@@@ATL@@W4CALCULATETYPE@CCalculateBaseData@@ABVCPoint@@@Z:
  00017	90		 npad	 1
  00018	90		 npad	 1
  00019	8b 54 24 08	 mov	 edx, DWORD PTR [esp+8]
  0001d	8d 42 0c	 lea	 eax, DWORD PTR [edx+12]
  00020	8b 4a e8	 mov	 ecx, DWORD PTR [edx-24]
  00023	33 c8		 xor	 ecx, eax
  00025	e8 00 00 00 00	 call	 @__security_check_cookie@4
  0002a	b8 00 00 00 00	 mov	 eax, OFFSET __ehfuncinfo$?GetPacket@CIndicator@@QAEPAVCPacket@@PAVCPacketList@@ABV?$CStringT@DV?$StrTraitMFC_DLL@DV?$ChTraitsCRT@D@ATL@@@@@ATL@@W4CALCULATETYPE@CCalculateBaseData@@ABVCPoint@@@Z
  0002f	e9 00 00 00 00	 jmp	 ___CxxFrameHandler3
text$x	ENDS
?GetPacket@CIndicator@@QAEPAVCPacket@@PAVCPacketList@@ABV?$CStringT@DV?$StrTraitMFC_DLL@DV?$ChTraitsCRT@D@ATL@@@@@ATL@@W4CALCULATETYPE@CCalculateBaseData@@ABVCPoint@@@Z ENDP ; CIndicator::GetPacket
; Function compile flags: /Ogtp
; File D:\git\src\IBK\IBK_DRFN\ProjSrc\SrcChartEx\ChartOCX\ChartFormulate\Indicator.cpp
;	COMDAT ?DeleteDataInPacket@CIndicator@@UAEXABVCChartFormulateData@@PAVCGraphCalculateData@@PAVCIndicatorInfo@@@Z
_TEXT	SEGMENT
_chartFormulateData$ = 8				; size = 4
_posSubGraph$ = 12					; size = 4
_pGraphCalculateData$ = 12				; size = 4
_pIndicatorInfo$ = 16					; size = 4
?DeleteDataInPacket@CIndicator@@UAEXABVCChartFormulateData@@PAVCGraphCalculateData@@PAVCIndicatorInfo@@@Z PROC ; CIndicator::DeleteDataInPacket, COMDAT
; _this$ = ecx

; 47   : {

  00000	55		 push	 ebp
  00001	8b ec		 mov	 ebp, esp
  00003	56		 push	 esi

; 48   : 	// (2004.02.07, ) NULL Pointer Exception , .
; 49   : 	if( !pGraphCalculateData) return;

  00004	8b 75 0c	 mov	 esi, DWORD PTR _pGraphCalculateData$[ebp]
  00007	85 f6		 test	 esi, esi
  00009	74 3e		 je	 SHORT $LN12@DeleteData

; 50   : 
; 51   : 	POSITION posSubGraph = pGraphCalculateData->GetHeadPosition();

  0000b	8b ce		 mov	 ecx, esi
  0000d	e8 00 00 00 00	 call	 ?GetHeadPosition@CGraphCalculateData@@QAEPAU__POSITION@@XZ ; CGraphCalculateData::GetHeadPosition
  00012	89 45 0c	 mov	 DWORD PTR _posSubGraph$[ebp], eax

; 52   : 	while(posSubGraph)

  00015	85 c0		 test	 eax, eax
  00017	74 30		 je	 SHORT $LN12@DeleteData
  00019	0f 1f 80 00 00
	00 00		 npad	 7
$LL2@DeleteData:

; 53   : 	{
; 54   : 		CSubGraphPacketList* pSubGraphList = pGraphCalculateData->GetNext(posSubGraph);

  00020	8d 45 0c	 lea	 eax, DWORD PTR _posSubGraph$[ebp]
  00023	8b ce		 mov	 ecx, esi
  00025	50		 push	 eax
  00026	e8 00 00 00 00	 call	 ?GetNext@CGraphCalculateData@@QAEPAVCSubGraphPacketList@@AAPAU__POSITION@@@Z ; CGraphCalculateData::GetNext

; 55   : 
; 56   : 		// (2004.02.07, ) NULL Pointer Exception , .
; 57   : 		if( !pSubGraphList) return;

  0002b	85 c0		 test	 eax, eax
  0002d	74 1a		 je	 SHORT $LN12@DeleteData

; 58   : 
; 59   : 		CPacket* pPacket = pSubGraphList->GetHeadPacket();

  0002f	8b c8		 mov	 ecx, eax
  00031	e8 00 00 00 00	 call	 ?GetHeadPacket@CSubGraphPacketList@@QAEPAVCPacket@@XZ ; CSubGraphPacketList::GetHeadPacket

; 60   : 		if( !pPacket) pPacket->ClearData();

  00036	85 c0		 test	 eax, eax
  00038	75 09		 jne	 SHORT $LN6@DeleteData
  0003a	8b 00		 mov	 eax, DWORD PTR [eax]
  0003c	33 c9		 xor	 ecx, ecx
  0003e	6a 00		 push	 0
  00040	ff 50 18	 call	 DWORD PTR [eax+24]
$LN6@DeleteData:

; 52   : 	while(posSubGraph)

  00043	83 7d 0c 00	 cmp	 DWORD PTR _posSubGraph$[ebp], 0
  00047	75 d7		 jne	 SHORT $LL2@DeleteData
$LN12@DeleteData:
  00049	5e		 pop	 esi

; 61   : 	}
; 62   : }

  0004a	5d		 pop	 ebp
  0004b	c2 0c 00	 ret	 12			; 0000000cH
?DeleteDataInPacket@CIndicator@@UAEXABVCChartFormulateData@@PAVCGraphCalculateData@@PAVCIndicatorInfo@@@Z ENDP ; CIndicator::DeleteDataInPacket
_TEXT	ENDS
; Function compile flags: /Ogtp
; File D:\git\src\IBK\IBK_DRFN\ProjSrc\SrcChartEx\ChartOCX\Include_Chart\Indicator.h
;	COMDAT ?GetID@CIndicator@@QAE?AW4EDDC_INDICATOR_ID@IMetaTable@@XZ
_TEXT	SEGMENT
?GetID@CIndicator@@QAE?AW4EDDC_INDICATOR_ID@IMetaTable@@XZ PROC ; CIndicator::GetID, COMDAT
; _this$ = ecx

; 48   : 	IMetaTable::EDDC_INDICATOR_ID GetID( void)			{	return m_eID;	}

  00000	8b 41 04	 mov	 eax, DWORD PTR [ecx+4]
  00003	c3		 ret	 0
?GetID@CIndicator@@QAE?AW4EDDC_INDICATOR_ID@IMetaTable@@XZ ENDP ; CIndicator::GetID
_TEXT	ENDS
; Function compile flags: /Ogtp
; File D:\git\src\IBK\IBK_DRFN\ProjSrc\SrcChartEx\ChartOCX\ChartFormulate\Indicator.cpp
;	COMDAT ??1CIndicator@@UAE@XZ
_TEXT	SEGMENT
??1CIndicator@@UAE@XZ PROC				; CIndicator::~CIndicator, COMDAT
; _this$ = ecx

; 41   : {

  00000	c7 01 00 00 00
	00		 mov	 DWORD PTR [ecx], OFFSET ??_7CIndicator@@6B@

; 42   : }

  00006	c3		 ret	 0
??1CIndicator@@UAE@XZ ENDP				; CIndicator::~CIndicator
_TEXT	ENDS
; Function compile flags: /Ogtp
; File D:\git\src\IBK\IBK_DRFN\ProjSrc\SrcChartEx\ChartOCX\ChartFormulate\Indicator.cpp
;	COMDAT ??0CIndicator@@QAE@W4EDDC_INDICATOR_ID@IMetaTable@@@Z
_TEXT	SEGMENT
_p_eID$ = 8						; size = 4
??0CIndicator@@QAE@W4EDDC_INDICATOR_ID@IMetaTable@@@Z PROC ; CIndicator::CIndicator, COMDAT
; _this$ = ecx

; 36   : {

  00000	55		 push	 ebp
  00001	8b ec		 mov	 ebp, esp

; 37   : 	m_eID = p_eID;

  00003	8b 45 08	 mov	 eax, DWORD PTR _p_eID$[ebp]
  00006	89 41 04	 mov	 DWORD PTR [ecx+4], eax

; 38   : }

  00009	8b c1		 mov	 eax, ecx
  0000b	c7 01 00 00 00
	00		 mov	 DWORD PTR [ecx], OFFSET ??_7CIndicator@@6B@
  00011	5d		 pop	 ebp
  00012	c2 04 00	 ret	 4
??0CIndicator@@QAE@W4EDDC_INDICATOR_ID@IMetaTable@@@Z ENDP ; CIndicator::CIndicator
_TEXT	ENDS
; Function compile flags: /Ogtp
; File C:\Program Files (x86)\Microsoft Visual Studio\2019\Community\VC\Tools\MSVC\14.29.30133\atlmfc\include\cstringt.h
; File C:\Program Files (x86)\Microsoft Visual Studio\2019\Community\VC\Tools\MSVC\14.29.30133\atlmfc\include\atlsimpstr.h
; File C:\Program Files (x86)\Microsoft Visual Studio\2019\Community\VC\Tools\MSVC\14.29.30133\atlmfc\include\cstringt.h
; File C:\Program Files (x86)\Microsoft Visual Studio\2019\Community\VC\Tools\MSVC\14.29.30133\atlmfc\include\atlsimpstr.h
; File C:\Program Files (x86)\Microsoft Visual Studio\2019\Community\VC\Tools\MSVC\14.29.30133\atlmfc\include\cstringt.h
;	COMDAT ??HATL@@YA?AV?$CStringT@DV?$StrTraitMFC_DLL@DV?$ChTraitsCRT@D@ATL@@@@@0@ABV10@0@Z
_TEXT	SEGMENT
$T2 = -16						; size = 4
__$EHRec$ = -12						; size = 12
___$ReturnUdt$ = 8					; size = 4
_str1$ = 12						; size = 4
_str2$ = 16						; size = 4
??HATL@@YA?AV?$CStringT@DV?$StrTraitMFC_DLL@DV?$ChTraitsCRT@D@ATL@@@@@0@ABV10@0@Z PROC ; ATL::operator+, COMDAT

; 2389 : 	{

  00000	55		 push	 ebp
  00001	8b ec		 mov	 ebp, esp
  00003	6a ff		 push	 -1
  00005	68 00 00 00 00	 push	 __ehhandler$??HATL@@YA?AV?$CStringT@DV?$StrTraitMFC_DLL@DV?$ChTraitsCRT@D@ATL@@@@@0@ABV10@0@Z
  0000a	64 a1 00 00 00
	00		 mov	 eax, DWORD PTR fs:0
  00010	50		 push	 eax
  00011	51		 push	 ecx
  00012	56		 push	 esi
  00013	57		 push	 edi
  00014	a1 00 00 00 00	 mov	 eax, DWORD PTR ___security_cookie
  00019	33 c5		 xor	 eax, ebp
  0001b	50		 push	 eax
  0001c	8d 45 f4	 lea	 eax, DWORD PTR __$EHRec$[ebp]
  0001f	64 a3 00 00 00
	00		 mov	 DWORD PTR fs:0, eax

; 2390 : 		CStringT strResult( str1.GetManager() );

  00025	8b 75 0c	 mov	 esi, DWORD PTR _str1$[ebp]
  00028	8b ce		 mov	 ecx, esi
  0002a	c7 45 f0 00 00
	00 00		 mov	 DWORD PTR $T2[ebp], 0
  00031	ff 15 00 00 00
	00		 call	 DWORD PTR __imp_?GetManager@?$CStringT@DV?$StrTraitMFC_DLL@DV?$ChTraitsCRT@D@ATL@@@@@ATL@@QBEPAUIAtlStringMgr@2@XZ
  00037	8b 7d 08	 mov	 edi, DWORD PTR ___$ReturnUdt$[ebp]
  0003a	8b cf		 mov	 ecx, edi
  0003c	50		 push	 eax
  0003d	ff 15 00 00 00
	00		 call	 DWORD PTR __imp_??0?$CStringT@DV?$StrTraitMFC_DLL@DV?$ChTraitsCRT@D@ATL@@@@@ATL@@QAE@PAUIAtlStringMgr@1@@Z
; File C:\Program Files (x86)\Microsoft Visual Studio\2019\Community\VC\Tools\MSVC\14.29.30133\atlmfc\include\atlsimpstr.h

; 519  : 		return( GetData()->nDataLength );

  00043	8b 45 10	 mov	 eax, DWORD PTR _str2$[ebp]
  00046	8b 16		 mov	 edx, DWORD PTR [esi]
; File C:\Program Files (x86)\Microsoft Visual Studio\2019\Community\VC\Tools\MSVC\14.29.30133\atlmfc\include\cstringt.h

; 2394 : 		return( strResult );

  00048	c7 45 fc 00 00
	00 00		 mov	 DWORD PTR __$EHRec$[ebp+8], 0
  0004f	c7 45 f0 01 00
	00 00		 mov	 DWORD PTR $T2[ebp], 1
; File C:\Program Files (x86)\Microsoft Visual Studio\2019\Community\VC\Tools\MSVC\14.29.30133\atlmfc\include\atlsimpstr.h

; 519  : 		return( GetData()->nDataLength );

  00056	8b 08		 mov	 ecx, DWORD PTR [eax]
; File C:\Program Files (x86)\Microsoft Visual Studio\2019\Community\VC\Tools\MSVC\14.29.30133\atlmfc\include\cstringt.h

; 2392 : 		CThisSimpleString::Concatenate( strResult, str1, str1.GetLength(), str2, str2.GetLength() );

  00058	ff 71 f4	 push	 DWORD PTR [ecx-12]
  0005b	51		 push	 ecx
  0005c	ff 72 f4	 push	 DWORD PTR [edx-12]
  0005f	52		 push	 edx
  00060	57		 push	 edi
  00061	ff 15 00 00 00
	00		 call	 DWORD PTR __imp_?Concatenate@?$CSimpleStringT@D$00@ATL@@KAXAAV12@PBDH1H@Z
  00067	83 c4 14	 add	 esp, 20			; 00000014H

; 2394 : 		return( strResult );

  0006a	8b c7		 mov	 eax, edi

; 2395 : 	}

  0006c	8b 4d f4	 mov	 ecx, DWORD PTR __$EHRec$[ebp]
  0006f	64 89 0d 00 00
	00 00		 mov	 DWORD PTR fs:0, ecx
  00076	59		 pop	 ecx
  00077	5f		 pop	 edi
  00078	5e		 pop	 esi
  00079	8b e5		 mov	 esp, ebp
  0007b	5d		 pop	 ebp
  0007c	c3		 ret	 0
_TEXT	ENDS
;	COMDAT text$x
text$x	SEGMENT
__unwindfunclet$??HATL@@YA?AV?$CStringT@DV?$StrTraitMFC_DLL@DV?$ChTraitsCRT@D@ATL@@@@@0@ABV10@0@Z$0:
  00000	8b 45 f0	 mov	 eax, DWORD PTR $T2[ebp]
  00003	83 e0 01	 and	 eax, 1
  00006	0f 84 0d 00 00
	00		 je	 $LN4@operator
  0000c	83 65 f0 fe	 and	 DWORD PTR $T2[ebp], -2	; fffffffeH
  00010	8b 4d 08	 mov	 ecx, DWORD PTR ___$ReturnUdt$[ebp]
  00013	ff 25 00 00 00
	00		 jmp	 DWORD PTR __imp_??1?$CStringT@DV?$StrTraitMFC_DLL@DV?$ChTraitsCRT@D@ATL@@@@@ATL@@QAE@XZ
$LN4@operator:
  00019	c3		 ret	 0
  0001a	cc		 int	 3
  0001b	cc		 int	 3
  0001c	cc		 int	 3
  0001d	cc		 int	 3
  0001e	cc		 int	 3
__ehhandler$??HATL@@YA?AV?$CStringT@DV?$StrTraitMFC_DLL@DV?$ChTraitsCRT@D@ATL@@@@@0@ABV10@0@Z:
  0001f	90		 npad	 1
  00020	90		 npad	 1
  00021	8b 54 24 08	 mov	 edx, DWORD PTR [esp+8]
  00025	8d 42 0c	 lea	 eax, DWORD PTR [edx+12]
  00028	8b 4a f0	 mov	 ecx, DWORD PTR [edx-16]
  0002b	33 c8		 xor	 ecx, eax
  0002d	e8 00 00 00 00	 call	 @__security_check_cookie@4
  00032	b8 00 00 00 00	 mov	 eax, OFFSET __ehfuncinfo$??HATL@@YA?AV?$CStringT@DV?$StrTraitMFC_DLL@DV?$ChTraitsCRT@D@ATL@@@@@0@ABV10@0@Z
  00037	e9 00 00 00 00	 jmp	 ___CxxFrameHandler3
text$x	ENDS
??HATL@@YA?AV?$CStringT@DV?$StrTraitMFC_DLL@DV?$ChTraitsCRT@D@ATL@@@@@0@ABV10@0@Z ENDP ; ATL::operator+
; Function compile flags: /Ogtp
; File C:\Program Files (x86)\Microsoft Visual Studio\2019\Community\VC\Tools\MSVC\14.29.30133\atlmfc\include\afx.inl
;	COMDAT ?Dump@CObject@@UBEXAAVCDumpContext@@@Z
_TEXT	SEGMENT
___formal$ = 8						; size = 4
?Dump@CObject@@UBEXAAVCDumpContext@@@Z PROC		; CObject::Dump, COMDAT
; _this$ = ecx

; 122  : 	{ /* no dumping in release builds */ }

  00000	c2 04 00	 ret	 4
?Dump@CObject@@UBEXAAVCDumpContext@@@Z ENDP		; CObject::Dump
_TEXT	ENDS
; Function compile flags: /Ogtp
; File C:\Program Files (x86)\Microsoft Visual Studio\2019\Community\VC\Tools\MSVC\14.29.30133\atlmfc\include\afx.inl
;	COMDAT ?AssertValid@CObject@@UBEXXZ
_TEXT	SEGMENT
?AssertValid@CObject@@UBEXXZ PROC			; CObject::AssertValid, COMDAT
; _this$ = ecx

; 120  : 	{ /* no asserts in release builds */ }

  00000	c2 00 00	 ret	 0
?AssertValid@CObject@@UBEXXZ ENDP			; CObject::AssertValid
_TEXT	ENDS
; Function compile flags: /Ogtp
; File C:\Program Files (x86)\Microsoft Visual Studio\2019\Community\VC\Tools\MSVC\14.29.30133\atlmfc\include\afx.inl
;	COMDAT ?Serialize@CObject@@UAEXAAVCArchive@@@Z
_TEXT	SEGMENT
___formal$ = 8						; size = 4
?Serialize@CObject@@UAEXAAVCArchive@@@Z PROC		; CObject::Serialize, COMDAT
; _this$ = ecx

; 106  : 	{ /* CObject does not serialize anything by default */ }

  00000	c2 04 00	 ret	 4
?Serialize@CObject@@UAEXAAVCArchive@@@Z ENDP		; CObject::Serialize
_TEXT	ENDS
; Function compile flags: /Ogtp
; File C:\Program Files (x86)\Microsoft Visual Studio\2019\Community\VC\Tools\MSVC\14.29.30133\atlmfc\include\afx.inl
;	COMDAT ??1CObject@@UAE@XZ
_TEXT	SEGMENT
??1CObject@@UAE@XZ PROC					; CObject::~CObject, COMDAT
; _this$ = ecx

; 104  : 	{ }

  00000	c2 00 00	 ret	 0
??1CObject@@UAE@XZ ENDP					; CObject::~CObject
_TEXT	ENDS
; Function compile flags: /Ogtp
; File D:\git\src\IBK\IBK_DRFN\ProjSrc\SrcChartEx\ChartOCX\ChartFormulate\Indicator.cpp
;	COMDAT ?__empty_global_delete@@YAXPAXI@Z
_TEXT	SEGMENT
___formal$ = 8						; size = 4
___formal$ = 12						; size = 4
?__empty_global_delete@@YAXPAXI@Z PROC			; __empty_global_delete, COMDAT

  00000	c2 00 00	 ret	 0
?__empty_global_delete@@YAXPAXI@Z ENDP			; __empty_global_delete
_TEXT	ENDS
; Function compile flags: /Ogtp
; File D:\git\src\IBK\IBK_DRFN\ProjSrc\SrcChartEx\ChartOCX\ChartFormulate\Indicator.cpp
;	COMDAT ?__empty_global_delete@@YAXPAX@Z
_TEXT	SEGMENT
___formal$ = 8						; size = 4
?__empty_global_delete@@YAXPAX@Z PROC			; __empty_global_delete, COMDAT

  00000	c2 00 00	 ret	 0
?__empty_global_delete@@YAXPAX@Z ENDP			; __empty_global_delete
_TEXT	ENDS
END
