; Listing generated by Microsoft (R) Optimizing Compiler Version 19.29.30145.0 

	TITLE	D:\git\src\IBK\IBK_DRFN\#DRfn-CS\_Obj\ChartFormulate\MainChartFormulateImplementation.obj
	.686P
	.XMM
	include listing.inc
	.model	flat

INCLUDELIB MSVCRT
INCLUDELIB OLDNAMES

PUBLIC	?__empty_global_delete@@YAXPAX@Z		; __empty_global_delete
PUBLIC	?__empty_global_delete@@YAXPAXI@Z		; __empty_global_delete
PUBLIC	?GetIndicatorID@IMetaTable@@QAEHPBD@Z		; IMetaTable::GetIndicatorID
PUBLIC	?GetID@CIndicator@@QAE?AW4EDDC_INDICATOR_ID@IMetaTable@@XZ ; CIndicator::GetID
PUBLIC	??0CIndicator@@QAE@ABV0@@Z			; CIndicator::CIndicator
PUBLIC	??4CIndicator@@QAEAAV0@ABV0@@Z			; CIndicator::operator=
PUBLIC	??_GCIndicator@@UAEPAXI@Z			; CIndicator::`scalar deleting destructor'
PUBLIC	??_ECIndicator@@UAEPAXI@Z			; CIndicator::`vector deleting destructor'
PUBLIC	??0CMainChartFormulateImplementation@@QAE@XZ	; CMainChartFormulateImplementation::CMainChartFormulateImplementation
PUBLIC	??1CMainChartFormulateImplementation@@UAE@XZ	; CMainChartFormulateImplementation::~CMainChartFormulateImplementation
PUBLIC	?CalculateIndicator@CMainChartFormulateImplementation@@QAE_NABVCChartFormulateData@@PAVCGraphCalculateData@@AAPAVCIndicatorInfo@@@Z ; CMainChartFormulateImplementation::CalculateIndicator
PUBLIC	?GetDataPoint@CMainChartFormulateImplementation@@AAE?AVCPoint@@ABVCChartFormulateData@@PAVCGraphCalculateData@@@Z ; CMainChartFormulateImplementation::GetDataPoint
PUBLIC	?GetDataPointWhenREALAPPEND@CMainChartFormulateImplementation@@AAEXPAVCPacketList@@PAVCGraphCalculateData@@AAVCPoint@@@Z ; CMainChartFormulateImplementation::GetDataPointWhenREALAPPEND
PUBLIC	?Calculate@CMainChartFormulateImplementation@@AAE_NPAVCIndicator@@ABVCChartFormulateData@@PAVCGraphCalculateData@@PAVCIndicatorInfo@@@Z ; CMainChartFormulateImplementation::Calculate
PUBLIC	?Calculate_Graph@CMainChartFormulateImplementation@@AAE_NPAVCIndicator@@ABVCChartFormulateData@@PAVCGraphCalculateData@@PAVCIndicatorInfo@@@Z ; CMainChartFormulateImplementation::Calculate_Graph
PUBLIC	?Calculate_SubGraph@CMainChartFormulateImplementation@@AAE_NPAVCIndicator@@ABVCChartFormulateData@@PAVCGraphCalculateData@@PAVCIndicatorInfo@@@Z ; CMainChartFormulateImplementation::Calculate_SubGraph
PUBLIC	?IsThisDaegiMemul@CMainChartFormulateImplementation@@AAE_NABV?$CStringT@DV?$StrTraitMFC_DLL@DV?$ChTraitsCRT@D@ATL@@@@@ATL@@W4CALCULATETYPE@CCalculateBaseData@@@Z ; CMainChartFormulateImplementation::IsThisDaegiMemul
PUBLIC	?IsCalculateSubGraph@CMainChartFormulateImplementation@@ABE_NABV?$CStringT@DV?$StrTraitMFC_DLL@DV?$ChTraitsCRT@D@ATL@@@@@ATL@@@Z ; CMainChartFormulateImplementation::IsCalculateSubGraph
PUBLIC	??_GCMainChartFormulateImplementation@@UAEPAXI@Z ; CMainChartFormulateImplementation::`scalar deleting destructor'
PUBLIC	??_C@_00CNPNBAHC@@				; `string'
PUBLIC	??_C@_0P@FOFNMHJI@GetIndicatorID@		; `string'
PUBLIC	??_7CIndicator@@6B@				; CIndicator::`vftable'
PUBLIC	??_7CMainChartFormulateImplementation@@6B@	; CMainChartFormulateImplementation::`vftable'
PUBLIC	??_C@_01IHBHIGKO@?0@				; `string'
PUBLIC	??_R4CIndicator@@6B@				; CIndicator::`RTTI Complete Object Locator'
PUBLIC	??_R0?AVCIndicator@@@8				; CIndicator `RTTI Type Descriptor'
PUBLIC	??_R3CIndicator@@8				; CIndicator::`RTTI Class Hierarchy Descriptor'
PUBLIC	??_R2CIndicator@@8				; CIndicator::`RTTI Base Class Array'
PUBLIC	??_R1A@?0A@EA@CIndicator@@8			; CIndicator::`RTTI Base Class Descriptor at (0,-1,0,64)'
PUBLIC	??_R4CMainChartFormulateImplementation@@6B@	; CMainChartFormulateImplementation::`RTTI Complete Object Locator'
PUBLIC	??_R0?AVCMainChartFormulateImplementation@@@8	; CMainChartFormulateImplementation `RTTI Type Descriptor'
PUBLIC	??_R3CMainChartFormulateImplementation@@8	; CMainChartFormulateImplementation::`RTTI Class Hierarchy Descriptor'
PUBLIC	??_R2CMainChartFormulateImplementation@@8	; CMainChartFormulateImplementation::`RTTI Base Class Array'
PUBLIC	??_R1A@?0A@EA@CMainChartFormulateImplementation@@8 ; CMainChartFormulateImplementation::`RTTI Base Class Descriptor at (0,-1,0,64)'
EXTRN	??_M@YGXPAXIIP6EX0@Z@Z:PROC			; `eh vector destructor iterator'
EXTRN	__purecall:PROC
EXTRN	??3@YAXPAXI@Z:PROC				; operator delete
EXTRN	??_V@YAXPAXI@Z:PROC				; operator delete[]
EXTRN	__imp__GetProcAddress@8:PROC
EXTRN	__imp_??0?$CStringT@DV?$StrTraitMFC_DLL@DV?$ChTraitsCRT@D@ATL@@@@@ATL@@QAE@ABV01@@Z:PROC
EXTRN	__imp_??0?$CStringT@DV?$StrTraitMFC_DLL@DV?$ChTraitsCRT@D@ATL@@@@@ATL@@QAE@PBD@Z:PROC
EXTRN	__imp_??1?$CStringT@DV?$StrTraitMFC_DLL@DV?$ChTraitsCRT@D@ATL@@@@@ATL@@QAE@XZ:PROC
EXTRN	__imp_?Compare@?$CStringT@DV?$StrTraitMFC_DLL@DV?$ChTraitsCRT@D@ATL@@@@@ATL@@QBEHPBD@Z:PROC
EXTRN	__imp_?GetGraphIndicatorInfo@CIndicatorList@@QAEPAVCIndicatorInfo@@W4EIndicatorListType@@PBD1W4EIndicatorInfoGettingType@@@Z:PROC
EXTRN	??0CCalculateData@@QAE@ABV?$CStringT@DV?$StrTraitMFC_DLL@DV?$ChTraitsCRT@D@ATL@@@@@ATL@@PAVCIndicatorInfo@@@Z:PROC ; CCalculateData::CCalculateData
EXTRN	??1CCalculateData@@UAE@XZ:PROC			; CCalculateData::~CCalculateData
EXTRN	?GetPoint@CCalculateData@@QBE?AVCPoint@@XZ:PROC	; CCalculateData::GetPoint
EXTRN	?SetPoint@CCalculateData@@QAEXABVCPoint@@@Z:PROC ; CCalculateData::SetPoint
EXTRN	?SetPacketNamesForSave@CCalculateData@@QAEXABV?$CStringT@DV?$StrTraitMFC_DLL@DV?$ChTraitsCRT@D@ATL@@@@@ATL@@@Z:PROC ; CCalculateData::SetPacketNamesForSave
EXTRN	?IsSTIndexIndicator@IMetaTable@@QAEHH@Z:PROC	; IMetaTable::IsSTIndexIndicator
EXTRN	?IsVolumeForSale@IMetaTable@@QAEHABV?$CStringT@DV?$StrTraitMFC_DLL@DV?$ChTraitsCRT@D@ATL@@@@@ATL@@@Z:PROC ; IMetaTable::IsVolumeForSale
EXTRN	??1CIndicator@@UAE@XZ:PROC			; CIndicator::~CIndicator
EXTRN	?DeleteDataInPacket@CIndicator@@UAEXABVCChartFormulateData@@PAVCGraphCalculateData@@PAVCIndicatorInfo@@@Z:PROC ; CIndicator::DeleteDataInPacket
EXTRN	?Create@CIndicatorSingleton@@QAEPAVCIndicator@@W4EDDC_INDICATOR_ID@IMetaTable@@PAUHWND__@@@Z:PROC ; CIndicatorSingleton::Create
EXTRN	?CreateSTIndexCalculator@CIndicatorSingleton@@QAEPAVCIndicator@@W4EDDC_INDICATOR_ID@IMetaTable@@@Z:PROC ; CIndicatorSingleton::CreateSTIndexCalculator
EXTRN	??_ECMainChartFormulateImplementation@@UAEPAXI@Z:PROC ; CMainChartFormulateImplementation::`vector deleting destructor'
EXTRN	__imp_?GetMaxCount@CPacketList@@QAEHXZ:PROC
EXTRN	__imp_?GetUpdateRange@CPacketList@@QAE?AVCPoint@@XZ:PROC
EXTRN	?GetStringData@CDataConversion@@SA?AV?$CStringT@DV?$StrTraitMFC_DLL@DV?$ChTraitsCRT@D@ATL@@@@@ATL@@AAV23@ABV23@_N@Z:PROC ; CDataConversion::GetStringData
EXTRN	?GetStringDataCount@CDataConversion@@SAHABV?$CStringT@DV?$StrTraitMFC_DLL@DV?$ChTraitsCRT@D@ATL@@@@@ATL@@0@Z:PROC ; CDataConversion::GetStringDataCount
EXTRN	?GetHeadPacket@CSubGraphPacketList@@QAEPAVCPacket@@XZ:PROC ; CSubGraphPacketList::GetHeadPacket
EXTRN	?GetCount@CGraphCalculateData@@QBEHXZ:PROC	; CGraphCalculateData::GetCount
EXTRN	?GetHead@CGraphCalculateData@@QAEPAVCSubGraphPacketList@@XZ:PROC ; CGraphCalculateData::GetHead
EXTRN	?GetAt@CGraphCalculateData@@QAEPAVCSubGraphPacketList@@H@Z:PROC ; CGraphCalculateData::GetAt
EXTRN	@__security_check_cookie@4:PROC
EXTRN	___CxxFrameHandler3:PROC
EXTRN	??_7type_info@@6B@:QWORD			; type_info::`vftable'
EXTRN	?g_iMetaTable@@3VIMetaTable@@A:BYTE		; g_iMetaTable
EXTRN	___security_cookie:DWORD
;	COMDAT ??_R1A@?0A@EA@CMainChartFormulateImplementation@@8
rdata$r	SEGMENT
??_R1A@?0A@EA@CMainChartFormulateImplementation@@8 DD FLAT:??_R0?AVCMainChartFormulateImplementation@@@8 ; CMainChartFormulateImplementation::`RTTI Base Class Descriptor at (0,-1,0,64)'
	DD	00H
	DD	00H
	DD	0ffffffffH
	DD	00H
	DD	040H
	DD	FLAT:??_R3CMainChartFormulateImplementation@@8
rdata$r	ENDS
;	COMDAT ??_R2CMainChartFormulateImplementation@@8
rdata$r	SEGMENT
??_R2CMainChartFormulateImplementation@@8 DD FLAT:??_R1A@?0A@EA@CMainChartFormulateImplementation@@8 ; CMainChartFormulateImplementation::`RTTI Base Class Array'
rdata$r	ENDS
;	COMDAT ??_R3CMainChartFormulateImplementation@@8
rdata$r	SEGMENT
??_R3CMainChartFormulateImplementation@@8 DD 00H	; CMainChartFormulateImplementation::`RTTI Class Hierarchy Descriptor'
	DD	00H
	DD	01H
	DD	FLAT:??_R2CMainChartFormulateImplementation@@8
rdata$r	ENDS
;	COMDAT ??_R0?AVCMainChartFormulateImplementation@@@8
data$rs	SEGMENT
??_R0?AVCMainChartFormulateImplementation@@@8 DD FLAT:??_7type_info@@6B@ ; CMainChartFormulateImplementation `RTTI Type Descriptor'
	DD	00H
	DB	'.?AVCMainChartFormulateImplementation@@', 00H
data$rs	ENDS
;	COMDAT ??_R4CMainChartFormulateImplementation@@6B@
rdata$r	SEGMENT
??_R4CMainChartFormulateImplementation@@6B@ DD 00H	; CMainChartFormulateImplementation::`RTTI Complete Object Locator'
	DD	00H
	DD	00H
	DD	FLAT:??_R0?AVCMainChartFormulateImplementation@@@8
	DD	FLAT:??_R3CMainChartFormulateImplementation@@8
rdata$r	ENDS
;	COMDAT ??_R1A@?0A@EA@CIndicator@@8
rdata$r	SEGMENT
??_R1A@?0A@EA@CIndicator@@8 DD FLAT:??_R0?AVCIndicator@@@8 ; CIndicator::`RTTI Base Class Descriptor at (0,-1,0,64)'
	DD	00H
	DD	00H
	DD	0ffffffffH
	DD	00H
	DD	040H
	DD	FLAT:??_R3CIndicator@@8
rdata$r	ENDS
;	COMDAT ??_R2CIndicator@@8
rdata$r	SEGMENT
??_R2CIndicator@@8 DD FLAT:??_R1A@?0A@EA@CIndicator@@8	; CIndicator::`RTTI Base Class Array'
rdata$r	ENDS
;	COMDAT ??_R3CIndicator@@8
rdata$r	SEGMENT
??_R3CIndicator@@8 DD 00H				; CIndicator::`RTTI Class Hierarchy Descriptor'
	DD	00H
	DD	01H
	DD	FLAT:??_R2CIndicator@@8
rdata$r	ENDS
;	COMDAT ??_R0?AVCIndicator@@@8
data$rs	SEGMENT
??_R0?AVCIndicator@@@8 DD FLAT:??_7type_info@@6B@	; CIndicator `RTTI Type Descriptor'
	DD	00H
	DB	'.?AVCIndicator@@', 00H
data$rs	ENDS
;	COMDAT ??_R4CIndicator@@6B@
rdata$r	SEGMENT
??_R4CIndicator@@6B@ DD 00H				; CIndicator::`RTTI Complete Object Locator'
	DD	00H
	DD	00H
	DD	FLAT:??_R0?AVCIndicator@@@8
	DD	FLAT:??_R3CIndicator@@8
rdata$r	ENDS
;	COMDAT ??_C@_01IHBHIGKO@?0@
CONST	SEGMENT
??_C@_01IHBHIGKO@?0@ DB ',', 00H			; `string'
CONST	ENDS
;	COMDAT ??_7CMainChartFormulateImplementation@@6B@
CONST	SEGMENT
??_7CMainChartFormulateImplementation@@6B@ DD FLAT:??_R4CMainChartFormulateImplementation@@6B@ ; CMainChartFormulateImplementation::`vftable'
	DD	FLAT:??_ECMainChartFormulateImplementation@@UAEPAXI@Z
CONST	ENDS
;	COMDAT ??_7CIndicator@@6B@
CONST	SEGMENT
??_7CIndicator@@6B@ DD FLAT:??_R4CIndicator@@6B@	; CIndicator::`vftable'
	DD	FLAT:??_ECIndicator@@UAEPAXI@Z
	DD	FLAT:__purecall
	DD	FLAT:?DeleteDataInPacket@CIndicator@@UAEXABVCChartFormulateData@@PAVCGraphCalculateData@@PAVCIndicatorInfo@@@Z
CONST	ENDS
;	COMDAT ??_C@_0P@FOFNMHJI@GetIndicatorID@
CONST	SEGMENT
??_C@_0P@FOFNMHJI@GetIndicatorID@ DB 'GetIndicatorID', 00H ; `string'
CONST	ENDS
;	COMDAT ??_C@_00CNPNBAHC@@
CONST	SEGMENT
??_C@_00CNPNBAHC@@ DB 00H				; `string'
CONST	ENDS
;	COMDAT xdata$x
xdata$x	SEGMENT
__ehfuncinfo$?Calculate_SubGraph@CMainChartFormulateImplementation@@AAE_NPAVCIndicator@@ABVCChartFormulateData@@PAVCGraphCalculateData@@PAVCIndicatorInfo@@@Z DD 019930522H
	DD	06H
	DD	FLAT:__unwindtable$?Calculate_SubGraph@CMainChartFormulateImplementation@@AAE_NPAVCIndicator@@ABVCChartFormulateData@@PAVCGraphCalculateData@@PAVCIndicatorInfo@@@Z
	DD	2 DUP(00H)
	DD	2 DUP(00H)
	DD	00H
	DD	01H
__unwindtable$?Calculate_SubGraph@CMainChartFormulateImplementation@@AAE_NPAVCIndicator@@ABVCChartFormulateData@@PAVCGraphCalculateData@@PAVCIndicatorInfo@@@Z DD 0ffffffffH
	DD	FLAT:__unwindfunclet$?Calculate_SubGraph@CMainChartFormulateImplementation@@AAE_NPAVCIndicator@@ABVCChartFormulateData@@PAVCGraphCalculateData@@PAVCIndicatorInfo@@@Z$0
	DD	00H
	DD	FLAT:__unwindfunclet$?Calculate_SubGraph@CMainChartFormulateImplementation@@AAE_NPAVCIndicator@@ABVCChartFormulateData@@PAVCGraphCalculateData@@PAVCIndicatorInfo@@@Z$1
	DD	0ffffffffH
	DD	FLAT:__unwindfunclet$?Calculate_SubGraph@CMainChartFormulateImplementation@@AAE_NPAVCIndicator@@ABVCChartFormulateData@@PAVCGraphCalculateData@@PAVCIndicatorInfo@@@Z$2
	DD	02H
	DD	FLAT:__unwindfunclet$?Calculate_SubGraph@CMainChartFormulateImplementation@@AAE_NPAVCIndicator@@ABVCChartFormulateData@@PAVCGraphCalculateData@@PAVCIndicatorInfo@@@Z$3
	DD	03H
	DD	FLAT:__unwindfunclet$?Calculate_SubGraph@CMainChartFormulateImplementation@@AAE_NPAVCIndicator@@ABVCChartFormulateData@@PAVCGraphCalculateData@@PAVCIndicatorInfo@@@Z$4
	DD	02H
	DD	FLAT:__unwindfunclet$?Calculate_SubGraph@CMainChartFormulateImplementation@@AAE_NPAVCIndicator@@ABVCChartFormulateData@@PAVCGraphCalculateData@@PAVCIndicatorInfo@@@Z$4
xdata$x	ENDS
;	COMDAT xdata$x
xdata$x	SEGMENT
__ehfuncinfo$?Calculate@CMainChartFormulateImplementation@@AAE_NPAVCIndicator@@ABVCChartFormulateData@@PAVCGraphCalculateData@@PAVCIndicatorInfo@@@Z DD 019930522H
	DD	07H
	DD	FLAT:__unwindtable$?Calculate@CMainChartFormulateImplementation@@AAE_NPAVCIndicator@@ABVCChartFormulateData@@PAVCGraphCalculateData@@PAVCIndicatorInfo@@@Z
	DD	2 DUP(00H)
	DD	2 DUP(00H)
	DD	00H
	DD	01H
__unwindtable$?Calculate@CMainChartFormulateImplementation@@AAE_NPAVCIndicator@@ABVCChartFormulateData@@PAVCGraphCalculateData@@PAVCIndicatorInfo@@@Z DD 0ffffffffH
	DD	FLAT:__unwindfunclet$?Calculate@CMainChartFormulateImplementation@@AAE_NPAVCIndicator@@ABVCChartFormulateData@@PAVCGraphCalculateData@@PAVCIndicatorInfo@@@Z$0
	DD	0ffffffffH
	DD	FLAT:__unwindfunclet$?Calculate@CMainChartFormulateImplementation@@AAE_NPAVCIndicator@@ABVCChartFormulateData@@PAVCGraphCalculateData@@PAVCIndicatorInfo@@@Z$1
	DD	01H
	DD	FLAT:__unwindfunclet$?Calculate@CMainChartFormulateImplementation@@AAE_NPAVCIndicator@@ABVCChartFormulateData@@PAVCGraphCalculateData@@PAVCIndicatorInfo@@@Z$2
	DD	0ffffffffH
	DD	FLAT:__unwindfunclet$?Calculate@CMainChartFormulateImplementation@@AAE_NPAVCIndicator@@ABVCChartFormulateData@@PAVCGraphCalculateData@@PAVCIndicatorInfo@@@Z$3
	DD	03H
	DD	FLAT:__unwindfunclet$?Calculate@CMainChartFormulateImplementation@@AAE_NPAVCIndicator@@ABVCChartFormulateData@@PAVCGraphCalculateData@@PAVCIndicatorInfo@@@Z$4
	DD	04H
	DD	FLAT:__unwindfunclet$?Calculate@CMainChartFormulateImplementation@@AAE_NPAVCIndicator@@ABVCChartFormulateData@@PAVCGraphCalculateData@@PAVCIndicatorInfo@@@Z$5
	DD	03H
	DD	FLAT:__unwindfunclet$?Calculate@CMainChartFormulateImplementation@@AAE_NPAVCIndicator@@ABVCChartFormulateData@@PAVCGraphCalculateData@@PAVCIndicatorInfo@@@Z$5
xdata$x	ENDS
;	COMDAT xdata$x
xdata$x	SEGMENT
__ehfuncinfo$?CalculateIndicator@CMainChartFormulateImplementation@@QAE_NABVCChartFormulateData@@PAVCGraphCalculateData@@AAPAVCIndicatorInfo@@@Z DD 019930522H
	DD	09H
	DD	FLAT:__unwindtable$?CalculateIndicator@CMainChartFormulateImplementation@@QAE_NABVCChartFormulateData@@PAVCGraphCalculateData@@AAPAVCIndicatorInfo@@@Z
	DD	2 DUP(00H)
	DD	2 DUP(00H)
	DD	00H
	DD	01H
__unwindtable$?CalculateIndicator@CMainChartFormulateImplementation@@QAE_NABVCChartFormulateData@@PAVCGraphCalculateData@@AAPAVCIndicatorInfo@@@Z DD 0ffffffffH
	DD	FLAT:__unwindfunclet$?CalculateIndicator@CMainChartFormulateImplementation@@QAE_NABVCChartFormulateData@@PAVCGraphCalculateData@@AAPAVCIndicatorInfo@@@Z$0
	DD	00H
	DD	FLAT:__unwindfunclet$?CalculateIndicator@CMainChartFormulateImplementation@@QAE_NABVCChartFormulateData@@PAVCGraphCalculateData@@AAPAVCIndicatorInfo@@@Z$1
	DD	01H
	DD	FLAT:__unwindfunclet$?CalculateIndicator@CMainChartFormulateImplementation@@QAE_NABVCChartFormulateData@@PAVCGraphCalculateData@@AAPAVCIndicatorInfo@@@Z$3
	DD	01H
	DD	FLAT:__unwindfunclet$?CalculateIndicator@CMainChartFormulateImplementation@@QAE_NABVCChartFormulateData@@PAVCGraphCalculateData@@AAPAVCIndicatorInfo@@@Z$4
	DD	03H
	DD	FLAT:__unwindfunclet$?CalculateIndicator@CMainChartFormulateImplementation@@QAE_NABVCChartFormulateData@@PAVCGraphCalculateData@@AAPAVCIndicatorInfo@@@Z$5
	DD	01H
	DD	FLAT:__unwindfunclet$?CalculateIndicator@CMainChartFormulateImplementation@@QAE_NABVCChartFormulateData@@PAVCGraphCalculateData@@AAPAVCIndicatorInfo@@@Z$6
	DD	05H
	DD	FLAT:__unwindfunclet$?CalculateIndicator@CMainChartFormulateImplementation@@QAE_NABVCChartFormulateData@@PAVCGraphCalculateData@@AAPAVCIndicatorInfo@@@Z$7
	DD	06H
	DD	FLAT:__unwindfunclet$?CalculateIndicator@CMainChartFormulateImplementation@@QAE_NABVCChartFormulateData@@PAVCGraphCalculateData@@AAPAVCIndicatorInfo@@@Z$8
	DD	05H
	DD	FLAT:__unwindfunclet$?CalculateIndicator@CMainChartFormulateImplementation@@QAE_NABVCChartFormulateData@@PAVCGraphCalculateData@@AAPAVCIndicatorInfo@@@Z$8
xdata$x	ENDS
;	COMDAT xdata$x
xdata$x	SEGMENT
__unwindtable$??0CMainChartFormulateImplementation@@QAE@XZ DD 0ffffffffH
	DD	FLAT:__unwindfunclet$??0CMainChartFormulateImplementation@@QAE@XZ$0
__ehfuncinfo$??0CMainChartFormulateImplementation@@QAE@XZ DD 019930522H
	DD	01H
	DD	FLAT:__unwindtable$??0CMainChartFormulateImplementation@@QAE@XZ
	DD	2 DUP(00H)
	DD	2 DUP(00H)
	DD	00H
	DD	01H
xdata$x	ENDS
;	COMDAT xdata$x
xdata$x	SEGMENT
__ehfuncinfo$??_ECIndicator@@UAEPAXI@Z DD 019930522H
	DD	00H
	DD	00H
	DD	2 DUP(00H)
	DD	2 DUP(00H)
	DD	00H
	DD	05H
xdata$x	ENDS
; Function compile flags: /Ogtp
; File D:\git\src\IBK\IBK_DRFN\ProjSrc\SrcChartEx\ChartOCX\ChartFormulate\MainChartFormulateImplementation.cpp
;	COMDAT ??_GCMainChartFormulateImplementation@@UAEPAXI@Z
_TEXT	SEGMENT
___flags$ = 8						; size = 4
??_GCMainChartFormulateImplementation@@UAEPAXI@Z PROC	; CMainChartFormulateImplementation::`scalar deleting destructor', COMDAT
; _this$ = ecx
  00000	55		 push	 ebp
  00001	8b ec		 mov	 ebp, esp

; 37   : {

  00003	56		 push	 esi
  00004	8b f1		 mov	 esi, ecx

; 38   : }

  00006	8d 4e 04	 lea	 ecx, DWORD PTR [esi+4]
  00009	c7 06 00 00 00
	00		 mov	 DWORD PTR [esi], OFFSET ??_7CMainChartFormulateImplementation@@6B@
  0000f	e8 00 00 00 00	 call	 ??1CCalculateData@@UAE@XZ ; CCalculateData::~CCalculateData
  00014	f6 45 08 01	 test	 BYTE PTR ___flags$[ebp], 1
  00018	74 0b		 je	 SHORT $LN7@scalar
  0001a	6a 20		 push	 32			; 00000020H
  0001c	56		 push	 esi
  0001d	e8 00 00 00 00	 call	 ??3@YAXPAXI@Z		; operator delete
  00022	83 c4 08	 add	 esp, 8
$LN7@scalar:
  00025	8b c6		 mov	 eax, esi
  00027	5e		 pop	 esi
  00028	5d		 pop	 ebp
  00029	c2 04 00	 ret	 4
??_GCMainChartFormulateImplementation@@UAEPAXI@Z ENDP	; CMainChartFormulateImplementation::`scalar deleting destructor'
_TEXT	ENDS
; Function compile flags: /Ogtp
; File D:\git\src\IBK\IBK_DRFN\ProjSrc\SrcChartEx\ChartOCX\ChartFormulate\MainChartFormulateImplementation.cpp
; File C:\Program Files (x86)\Microsoft Visual Studio\2019\Community\VC\Tools\MSVC\14.29.30133\atlmfc\include\atlsimpstr.h
; File D:\git\src\IBK\IBK_DRFN\ProjSrc\SrcChartEx\ChartOCX\ChartFormulate\MainChartFormulateImplementation.cpp
; File C:\Program Files (x86)\Microsoft Visual Studio\2019\Community\VC\Tools\MSVC\14.29.30133\atlmfc\include\cstringt.h
; File D:\git\src\IBK\IBK_DRFN\ProjSrc\SrcChartEx\ChartOCX\ChartFormulate\MainChartFormulateImplementation.cpp
; File C:\Program Files (x86)\Microsoft Visual Studio\2019\Community\VC\Tools\MSVC\14.29.30133\atlmfc\include\cstringt.h
; File D:\git\src\IBK\IBK_DRFN\ProjSrc\SrcChartEx\ChartOCX\ChartFormulate\MainChartFormulateImplementation.cpp
;	COMDAT ?IsCalculateSubGraph@CMainChartFormulateImplementation@@ABE_NABV?$CStringT@DV?$StrTraitMFC_DLL@DV?$ChTraitsCRT@D@ATL@@@@@ATL@@@Z
_TEXT	SEGMENT
_strIndicatorName$ = 8					; size = 4
?IsCalculateSubGraph@CMainChartFormulateImplementation@@ABE_NABV?$CStringT@DV?$StrTraitMFC_DLL@DV?$ChTraitsCRT@D@ATL@@@@@ATL@@@Z PROC ; CMainChartFormulateImplementation::IsCalculateSubGraph, COMDAT
; _this$ = ecx

; 261  : {

  00000	55		 push	 ebp
  00001	8b ec		 mov	 ebp, esp
  00003	56		 push	 esi
; File C:\Program Files (x86)\Microsoft Visual Studio\2019\Community\VC\Tools\MSVC\14.29.30133\atlmfc\include\atlsimpstr.h

; 533  : 		return( GetLength() == 0 );

  00004	8b 75 08	 mov	 esi, DWORD PTR _strIndicatorName$[ebp]
  00007	8b 06		 mov	 eax, DWORD PTR [esi]
  00009	83 78 f4 00	 cmp	 DWORD PTR [eax-12], 0
; File D:\git\src\IBK\IBK_DRFN\ProjSrc\SrcChartEx\ChartOCX\ChartFormulate\MainChartFormulateImplementation.cpp

; 262  : 	if( strIndicatorName.IsEmpty()) return false;

  0000d	75 07		 jne	 SHORT $LN2@IsCalculat
$LN16@IsCalculat:

; 265  : }

  0000f	32 c0		 xor	 al, al
  00011	5e		 pop	 esi
  00012	5d		 pop	 ebp
  00013	c2 04 00	 ret	 4
$LN2@IsCalculat:

; 264  : 	return (strIndicatorName == _MTEXT( C2_PRICE_MA) || strIndicatorName == _MTEXT( C2_VOLUME_MA));

  00016	a1 54 00 00 00	 mov	 eax, DWORD PTR ?g_iMetaTable@@3VIMetaTable@@A+84
; File C:\Program Files (x86)\Microsoft Visual Studio\2019\Community\VC\Tools\MSVC\14.29.30133\atlmfc\include\cstringt.h

; 2486 : 		return(str1.Compare(psz2) == 0);

  0001b	8b ce		 mov	 ecx, esi
  0001d	ff b0 20 03 00
	00		 push	 DWORD PTR [eax+800]
  00023	ff 15 00 00 00
	00		 call	 DWORD PTR __imp_?Compare@?$CStringT@DV?$StrTraitMFC_DLL@DV?$ChTraitsCRT@D@ATL@@@@@ATL@@QBEHPBD@Z
  00029	85 c0		 test	 eax, eax
; File D:\git\src\IBK\IBK_DRFN\ProjSrc\SrcChartEx\ChartOCX\ChartFormulate\MainChartFormulateImplementation.cpp

; 264  : 	return (strIndicatorName == _MTEXT( C2_PRICE_MA) || strIndicatorName == _MTEXT( C2_VOLUME_MA));

  0002b	74 17		 je	 SHORT $LN4@IsCalculat
  0002d	a1 54 00 00 00	 mov	 eax, DWORD PTR ?g_iMetaTable@@3VIMetaTable@@A+84
; File C:\Program Files (x86)\Microsoft Visual Studio\2019\Community\VC\Tools\MSVC\14.29.30133\atlmfc\include\cstringt.h

; 2486 : 		return(str1.Compare(psz2) == 0);

  00032	8b ce		 mov	 ecx, esi
  00034	ff b0 24 03 00
	00		 push	 DWORD PTR [eax+804]
  0003a	ff 15 00 00 00
	00		 call	 DWORD PTR __imp_?Compare@?$CStringT@DV?$StrTraitMFC_DLL@DV?$ChTraitsCRT@D@ATL@@@@@ATL@@QBEHPBD@Z
  00040	85 c0		 test	 eax, eax
; File D:\git\src\IBK\IBK_DRFN\ProjSrc\SrcChartEx\ChartOCX\ChartFormulate\MainChartFormulateImplementation.cpp

; 264  : 	return (strIndicatorName == _MTEXT( C2_PRICE_MA) || strIndicatorName == _MTEXT( C2_VOLUME_MA));

  00042	75 cb		 jne	 SHORT $LN16@IsCalculat
$LN4@IsCalculat:
  00044	b0 01		 mov	 al, 1
  00046	5e		 pop	 esi

; 265  : }

  00047	5d		 pop	 ebp
  00048	c2 04 00	 ret	 4
?IsCalculateSubGraph@CMainChartFormulateImplementation@@ABE_NABV?$CStringT@DV?$StrTraitMFC_DLL@DV?$ChTraitsCRT@D@ATL@@@@@ATL@@@Z ENDP ; CMainChartFormulateImplementation::IsCalculateSubGraph
_TEXT	ENDS
; Function compile flags: /Ogtp
; File D:\git\src\IBK\IBK_DRFN\ProjSrc\SrcChartEx\ChartOCX\ChartFormulate\MainChartFormulateImplementation.cpp
;	COMDAT ?IsThisDaegiMemul@CMainChartFormulateImplementation@@AAE_NABV?$CStringT@DV?$StrTraitMFC_DLL@DV?$ChTraitsCRT@D@ATL@@@@@ATL@@W4CALCULATETYPE@CCalculateBaseData@@@Z
_TEXT	SEGMENT
_strGraphName$ = 8					; size = 4
_calculatetype$ = 12					; size = 4
?IsThisDaegiMemul@CMainChartFormulateImplementation@@AAE_NABV?$CStringT@DV?$StrTraitMFC_DLL@DV?$ChTraitsCRT@D@ATL@@@@@ATL@@W4CALCULATETYPE@CCalculateBaseData@@@Z PROC ; CMainChartFormulateImplementation::IsThisDaegiMemul, COMDAT
; _this$ = ecx

; 249  : {

  00000	55		 push	 ebp
  00001	8b ec		 mov	 ebp, esp

; 250  : 	if(calculatetype != CCalculateBaseData::SCROLL_CAL)

  00003	83 7d 0c 02	 cmp	 DWORD PTR _calculatetype$[ebp], 2
  00007	74 06		 je	 SHORT $LN2@IsThisDaeg

; 251  : 		return true;

  00009	b0 01		 mov	 al, 1

; 256  : }

  0000b	5d		 pop	 ebp
  0000c	c2 08 00	 ret	 8
$LN2@IsThisDaeg:

; 252  : 
; 253  : 	// (2006.12.06) Sunghwan Ahn
; 254  : 	//	return (strGraphName.Find( _MTEXT( C2_OVERHANGING_SUPPLY)) >= 0);
; 255  : 	return g_iMetaTable.IsVolumeForSale( strGraphName) ? true : false;

  0000f	ff 75 08	 push	 DWORD PTR _strGraphName$[ebp]
  00012	b9 00 00 00 00	 mov	 ecx, OFFSET ?g_iMetaTable@@3VIMetaTable@@A ; g_iMetaTable
  00017	e8 00 00 00 00	 call	 ?IsVolumeForSale@IMetaTable@@QAEHABV?$CStringT@DV?$StrTraitMFC_DLL@DV?$ChTraitsCRT@D@ATL@@@@@ATL@@@Z ; IMetaTable::IsVolumeForSale
  0001c	85 c0		 test	 eax, eax
  0001e	0f 95 c0	 setne	 al

; 256  : }

  00021	5d		 pop	 ebp
  00022	c2 08 00	 ret	 8
?IsThisDaegiMemul@CMainChartFormulateImplementation@@AAE_NABV?$CStringT@DV?$StrTraitMFC_DLL@DV?$ChTraitsCRT@D@ATL@@@@@ATL@@W4CALCULATETYPE@CCalculateBaseData@@@Z ENDP ; CMainChartFormulateImplementation::IsThisDaegiMemul
_TEXT	ENDS
; Function compile flags: /Ogtp
; File D:\git\src\IBK\IBK_DRFN\ProjSrc\SrcChartEx\ChartOCX\ChartFormulate\MainChartFormulateImplementation.cpp
; File D:\git\src\IBK\IBK_DRFN\ProjSrc\SrcChartEx\ChartOCX\Include_Chart\ChartFormulateData.h
; File D:\git\src\IBK\IBK_DRFN\ProjSrc\SrcChartEx\ChartOCX\ChartFormulate\MainChartFormulateImplementation.cpp
; File D:\git\src\IBK\IBK_DRFN\ProjSrc\SrcChartEx\ChartOCX\Include_Chart\ChartFormulateData.h
; File D:\git\src\IBK\IBK_DRFN\ProjSrc\SrcChartEx\ChartOCX\ChartFormulate\MainChartFormulateImplementation.cpp
; File D:\git\src\IBK\IBK_DRFN\ProjSrc\SrcChartEx\ChartOCX\Include_Chart\ChartFormulateData.h
; File D:\git\src\IBK\IBK_DRFN\ProjSrc\SrcChartEx\ChartOCX\ChartFormulate\MainChartFormulateImplementation.cpp
; File C:\Program Files (x86)\Microsoft Visual Studio\2019\Community\VC\Tools\MSVC\14.29.30133\atlmfc\include\atlsimpstr.h
; File D:\git\src\IBK\IBK_DRFN\ProjSrc\SrcChartEx\ChartOCX\ChartFormulate\MainChartFormulateImplementation.cpp
;	COMDAT ?Calculate_SubGraph@CMainChartFormulateImplementation@@AAE_NPAVCIndicator@@ABVCChartFormulateData@@PAVCGraphCalculateData@@PAVCIndicatorInfo@@@Z
_TEXT	SEGMENT
_nCount$1$ = -36					; size = 4
_this$1$ = -32						; size = 4
_strSubGraphNames$ = -28				; size = 4
$T2 = -24						; size = 4
$T3 = -20						; size = 4
$T4 = -16						; size = 4
__$EHRec$ = -12						; size = 12
_strSubGraphName$5 = 8					; size = 4
_pIndicator$ = 8					; size = 4
_chartFormulateData$ = 12				; size = 4
_graphCalculateData$ = 16				; size = 4
_pIndicatorInfo$ = 20					; size = 4
?Calculate_SubGraph@CMainChartFormulateImplementation@@AAE_NPAVCIndicator@@ABVCChartFormulateData@@PAVCGraphCalculateData@@PAVCIndicatorInfo@@@Z PROC ; CMainChartFormulateImplementation::Calculate_SubGraph, COMDAT
; _this$ = ecx

; 108  : {

  00000	55		 push	 ebp
  00001	8b ec		 mov	 ebp, esp
  00003	6a ff		 push	 -1
  00005	68 00 00 00 00	 push	 __ehhandler$?Calculate_SubGraph@CMainChartFormulateImplementation@@AAE_NPAVCIndicator@@ABVCChartFormulateData@@PAVCGraphCalculateData@@PAVCIndicatorInfo@@@Z
  0000a	64 a1 00 00 00
	00		 mov	 eax, DWORD PTR fs:0
  00010	50		 push	 eax
  00011	83 ec 18	 sub	 esp, 24			; 00000018H
  00014	53		 push	 ebx
  00015	56		 push	 esi
  00016	57		 push	 edi
  00017	a1 00 00 00 00	 mov	 eax, DWORD PTR ___security_cookie
  0001c	33 c5		 xor	 eax, ebp
  0001e	50		 push	 eax
  0001f	8d 45 f4	 lea	 eax, DWORD PTR __$EHRec$[ebp]
  00022	64 a3 00 00 00
	00		 mov	 DWORD PTR fs:0, eax
  00028	89 4d e0	 mov	 DWORD PTR _this$1$[ebp], ecx

; 111  : 	int nCount = CDataConversion::GetStringDataCount(chartFormulateData.GetSubGraphNames(), ",");

  0002b	68 00 00 00 00	 push	 OFFSET ??_C@_01IHBHIGKO@?0@
  00030	8d 4d ec	 lea	 ecx, DWORD PTR $T3[ebp]
  00033	ff 15 00 00 00
	00		 call	 DWORD PTR __imp_??0?$CStringT@DV?$StrTraitMFC_DLL@DV?$ChTraitsCRT@D@ATL@@@@@ATL@@QAE@PBD@Z
; File D:\git\src\IBK\IBK_DRFN\ProjSrc\SrcChartEx\ChartOCX\Include_Chart\ChartFormulateData.h

; 64   : 	CString		GetSubGraphNames( void) const							{	return m_strSubGraphNames;				}

  00039	8b 75 0c	 mov	 esi, DWORD PTR _chartFormulateData$[ebp]
  0003c	8d 4d f0	 lea	 ecx, DWORD PTR $T4[ebp]
  0003f	83 c6 10	 add	 esi, 16			; 00000010H
; File D:\git\src\IBK\IBK_DRFN\ProjSrc\SrcChartEx\ChartOCX\ChartFormulate\MainChartFormulateImplementation.cpp

; 111  : 	int nCount = CDataConversion::GetStringDataCount(chartFormulateData.GetSubGraphNames(), ",");

  00042	c7 45 fc 00 00
	00 00		 mov	 DWORD PTR __$EHRec$[ebp+8], 0
; File D:\git\src\IBK\IBK_DRFN\ProjSrc\SrcChartEx\ChartOCX\Include_Chart\ChartFormulateData.h

; 64   : 	CString		GetSubGraphNames( void) const							{	return m_strSubGraphNames;				}

  00049	56		 push	 esi
  0004a	ff 15 00 00 00
	00		 call	 DWORD PTR __imp_??0?$CStringT@DV?$StrTraitMFC_DLL@DV?$ChTraitsCRT@D@ATL@@@@@ATL@@QAE@ABV01@@Z
; File D:\git\src\IBK\IBK_DRFN\ProjSrc\SrcChartEx\ChartOCX\ChartFormulate\MainChartFormulateImplementation.cpp

; 111  : 	int nCount = CDataConversion::GetStringDataCount(chartFormulateData.GetSubGraphNames(), ",");

  00050	8d 45 ec	 lea	 eax, DWORD PTR $T3[ebp]
  00053	c6 45 fc 01	 mov	 BYTE PTR __$EHRec$[ebp+8], 1
  00057	50		 push	 eax
  00058	8d 45 f0	 lea	 eax, DWORD PTR $T4[ebp]
  0005b	50		 push	 eax
  0005c	e8 00 00 00 00	 call	 ?GetStringDataCount@CDataConversion@@SAHABV?$CStringT@DV?$StrTraitMFC_DLL@DV?$ChTraitsCRT@D@ATL@@@@@ATL@@0@Z ; CDataConversion::GetStringDataCount
  00061	83 c4 08	 add	 esp, 8
  00064	8d 4d f0	 lea	 ecx, DWORD PTR $T4[ebp]
  00067	8b d8		 mov	 ebx, eax
  00069	89 5d dc	 mov	 DWORD PTR _nCount$1$[ebp], ebx
  0006c	ff 15 00 00 00
	00		 call	 DWORD PTR __imp_??1?$CStringT@DV?$StrTraitMFC_DLL@DV?$ChTraitsCRT@D@ATL@@@@@ATL@@QAE@XZ
  00072	8d 4d ec	 lea	 ecx, DWORD PTR $T3[ebp]
  00075	c7 45 fc ff ff
	ff ff		 mov	 DWORD PTR __$EHRec$[ebp+8], -1
  0007c	ff 15 00 00 00
	00		 call	 DWORD PTR __imp_??1?$CStringT@DV?$StrTraitMFC_DLL@DV?$ChTraitsCRT@D@ATL@@@@@ATL@@QAE@XZ

; 112  : 	if(nCount <= 0)

  00082	85 db		 test	 ebx, ebx
  00084	7f 16		 jg	 SHORT $LN5@Calculate_

; 113  : 		return false;

  00086	32 c0		 xor	 al, al

; 124  : }

  00088	8b 4d f4	 mov	 ecx, DWORD PTR __$EHRec$[ebp]
  0008b	64 89 0d 00 00
	00 00		 mov	 DWORD PTR fs:0, ecx
  00092	59		 pop	 ecx
  00093	5f		 pop	 edi
  00094	5e		 pop	 esi
  00095	5b		 pop	 ebx
  00096	8b e5		 mov	 esp, ebp
  00098	5d		 pop	 ebp
  00099	c2 10 00	 ret	 16			; 00000010H
$LN5@Calculate_:
; File D:\git\src\IBK\IBK_DRFN\ProjSrc\SrcChartEx\ChartOCX\Include_Chart\ChartFormulateData.h

; 64   : 	CString		GetSubGraphNames( void) const							{	return m_strSubGraphNames;				}

  0009c	56		 push	 esi
  0009d	8d 4d e4	 lea	 ecx, DWORD PTR _strSubGraphNames$[ebp]
  000a0	ff 15 00 00 00
	00		 call	 DWORD PTR __imp_??0?$CStringT@DV?$StrTraitMFC_DLL@DV?$ChTraitsCRT@D@ATL@@@@@ATL@@QAE@ABV01@@Z
; File D:\git\src\IBK\IBK_DRFN\ProjSrc\SrcChartEx\ChartOCX\ChartFormulate\MainChartFormulateImplementation.cpp

; 116  : 	for(int nIndex = 0 ; nIndex < nCount; nIndex++){

  000a6	8b 5d 08	 mov	 ebx, DWORD PTR _pIndicator$[ebp]
  000a9	33 ff		 xor	 edi, edi
  000ab	c7 45 fc 02 00
	00 00		 mov	 DWORD PTR __$EHRec$[ebp+8], 2
$LL4@Calculate_:

; 117  : 		CString strSubGraphName = CDataConversion::GetStringData(strSubGraphNames, ",");

  000b2	68 00 00 00 00	 push	 OFFSET ??_C@_01IHBHIGKO@?0@
  000b7	8d 4d e8	 lea	 ecx, DWORD PTR $T2[ebp]
  000ba	ff 15 00 00 00
	00		 call	 DWORD PTR __imp_??0?$CStringT@DV?$StrTraitMFC_DLL@DV?$ChTraitsCRT@D@ATL@@@@@ATL@@QAE@PBD@Z
  000c0	6a 01		 push	 1
  000c2	8d 45 e8	 lea	 eax, DWORD PTR $T2[ebp]
  000c5	c6 45 fc 03	 mov	 BYTE PTR __$EHRec$[ebp+8], 3
  000c9	50		 push	 eax
  000ca	8d 45 e4	 lea	 eax, DWORD PTR _strSubGraphNames$[ebp]
  000cd	50		 push	 eax
  000ce	8d 45 08	 lea	 eax, DWORD PTR _strSubGraphName$5[ebp]
  000d1	50		 push	 eax
  000d2	e8 00 00 00 00	 call	 ?GetStringData@CDataConversion@@SA?AV?$CStringT@DV?$StrTraitMFC_DLL@DV?$ChTraitsCRT@D@ATL@@@@@ATL@@AAV23@ABV23@_N@Z ; CDataConversion::GetStringData
  000d7	83 c4 10	 add	 esp, 16			; 00000010H
  000da	8d 4d e8	 lea	 ecx, DWORD PTR $T2[ebp]
  000dd	c6 45 fc 05	 mov	 BYTE PTR __$EHRec$[ebp+8], 5
  000e1	ff 15 00 00 00
	00		 call	 DWORD PTR __imp_??1?$CStringT@DV?$StrTraitMFC_DLL@DV?$ChTraitsCRT@D@ATL@@@@@ATL@@QAE@XZ
; File C:\Program Files (x86)\Microsoft Visual Studio\2019\Community\VC\Tools\MSVC\14.29.30133\atlmfc\include\atlsimpstr.h

; 519  : 		return( GetData()->nDataLength );

  000e7	8b 45 08	 mov	 eax, DWORD PTR _strSubGraphName$5[ebp]

; 533  : 		return( GetLength() == 0 );

  000ea	83 78 f4 00	 cmp	 DWORD PTR [eax-12], 0
; File D:\git\src\IBK\IBK_DRFN\ProjSrc\SrcChartEx\ChartOCX\ChartFormulate\MainChartFormulateImplementation.cpp

; 118  : 		if(strSubGraphName.IsEmpty())

  000ee	74 3a		 je	 SHORT $LN29@Calculate_

; 120  : 		m_CalculateData.SetPacketNamesForSave(strSubGraphName);

  000f0	8b 75 e0	 mov	 esi, DWORD PTR _this$1$[ebp]
  000f3	8d 45 08	 lea	 eax, DWORD PTR _strSubGraphName$5[ebp]
  000f6	83 c6 04	 add	 esi, 4
  000f9	50		 push	 eax
  000fa	8b ce		 mov	 ecx, esi
  000fc	e8 00 00 00 00	 call	 ?SetPacketNamesForSave@CCalculateData@@QAEXABV?$CStringT@DV?$StrTraitMFC_DLL@DV?$ChTraitsCRT@D@ATL@@@@@ATL@@@Z ; CCalculateData::SetPacketNamesForSave

; 121  : 		pIndicator->GetData(chartFormulateData, graphCalculateData, pIndicatorInfo, m_CalculateData);

  00101	8b 03		 mov	 eax, DWORD PTR [ebx]
  00103	8d 4d 14	 lea	 ecx, DWORD PTR _pIndicatorInfo$[ebp]
  00106	56		 push	 esi
  00107	51		 push	 ecx
  00108	ff 75 10	 push	 DWORD PTR _graphCalculateData$[ebp]
  0010b	8b cb		 mov	 ecx, ebx
  0010d	ff 75 0c	 push	 DWORD PTR _chartFormulateData$[ebp]
  00110	ff 50 04	 call	 DWORD PTR [eax+4]

; 122  : 	}

  00113	8d 4d 08	 lea	 ecx, DWORD PTR _strSubGraphName$5[ebp]
  00116	c6 45 fc 02	 mov	 BYTE PTR __$EHRec$[ebp+8], 2
  0011a	ff 15 00 00 00
	00		 call	 DWORD PTR __imp_??1?$CStringT@DV?$StrTraitMFC_DLL@DV?$ChTraitsCRT@D@ATL@@@@@ATL@@QAE@XZ
  00120	47		 inc	 edi
  00121	3b 7d dc	 cmp	 edi, DWORD PTR _nCount$1$[ebp]
  00124	7c 8c		 jl	 SHORT $LL4@Calculate_

; 123  : 	return true;

  00126	b3 01		 mov	 bl, 1
  00128	eb 0b		 jmp	 SHORT $LN13@Calculate_
$LN29@Calculate_:

; 119  : 			return false;

  0012a	8d 4d 08	 lea	 ecx, DWORD PTR _strSubGraphName$5[ebp]
  0012d	ff 15 00 00 00
	00		 call	 DWORD PTR __imp_??1?$CStringT@DV?$StrTraitMFC_DLL@DV?$ChTraitsCRT@D@ATL@@@@@ATL@@QAE@XZ
  00133	32 db		 xor	 bl, bl
$LN13@Calculate_:

; 123  : 	return true;

  00135	8d 4d e4	 lea	 ecx, DWORD PTR _strSubGraphNames$[ebp]
  00138	ff 15 00 00 00
	00		 call	 DWORD PTR __imp_??1?$CStringT@DV?$StrTraitMFC_DLL@DV?$ChTraitsCRT@D@ATL@@@@@ATL@@QAE@XZ
  0013e	8a c3		 mov	 al, bl

; 124  : }

  00140	8b 4d f4	 mov	 ecx, DWORD PTR __$EHRec$[ebp]
  00143	64 89 0d 00 00
	00 00		 mov	 DWORD PTR fs:0, ecx
  0014a	59		 pop	 ecx
  0014b	5f		 pop	 edi
  0014c	5e		 pop	 esi
  0014d	5b		 pop	 ebx
  0014e	8b e5		 mov	 esp, ebp
  00150	5d		 pop	 ebp
  00151	c2 10 00	 ret	 16			; 00000010H
_TEXT	ENDS
;	COMDAT text$x
text$x	SEGMENT
__unwindfunclet$?Calculate_SubGraph@CMainChartFormulateImplementation@@AAE_NPAVCIndicator@@ABVCChartFormulateData@@PAVCGraphCalculateData@@PAVCIndicatorInfo@@@Z$0:
  00000	8d 4d ec	 lea	 ecx, DWORD PTR $T3[ebp]
  00003	ff 25 00 00 00
	00		 jmp	 DWORD PTR __imp_??1?$CStringT@DV?$StrTraitMFC_DLL@DV?$ChTraitsCRT@D@ATL@@@@@ATL@@QAE@XZ
__unwindfunclet$?Calculate_SubGraph@CMainChartFormulateImplementation@@AAE_NPAVCIndicator@@ABVCChartFormulateData@@PAVCGraphCalculateData@@PAVCIndicatorInfo@@@Z$1:
  00009	8d 4d f0	 lea	 ecx, DWORD PTR $T4[ebp]
  0000c	ff 25 00 00 00
	00		 jmp	 DWORD PTR __imp_??1?$CStringT@DV?$StrTraitMFC_DLL@DV?$ChTraitsCRT@D@ATL@@@@@ATL@@QAE@XZ
__unwindfunclet$?Calculate_SubGraph@CMainChartFormulateImplementation@@AAE_NPAVCIndicator@@ABVCChartFormulateData@@PAVCGraphCalculateData@@PAVCIndicatorInfo@@@Z$2:
  00012	8d 4d e4	 lea	 ecx, DWORD PTR _strSubGraphNames$[ebp]
  00015	ff 25 00 00 00
	00		 jmp	 DWORD PTR __imp_??1?$CStringT@DV?$StrTraitMFC_DLL@DV?$ChTraitsCRT@D@ATL@@@@@ATL@@QAE@XZ
__unwindfunclet$?Calculate_SubGraph@CMainChartFormulateImplementation@@AAE_NPAVCIndicator@@ABVCChartFormulateData@@PAVCGraphCalculateData@@PAVCIndicatorInfo@@@Z$3:
  0001b	8d 4d e8	 lea	 ecx, DWORD PTR $T2[ebp]
  0001e	ff 25 00 00 00
	00		 jmp	 DWORD PTR __imp_??1?$CStringT@DV?$StrTraitMFC_DLL@DV?$ChTraitsCRT@D@ATL@@@@@ATL@@QAE@XZ
__unwindfunclet$?Calculate_SubGraph@CMainChartFormulateImplementation@@AAE_NPAVCIndicator@@ABVCChartFormulateData@@PAVCGraphCalculateData@@PAVCIndicatorInfo@@@Z$4:
  00024	8d 4d 08	 lea	 ecx, DWORD PTR _strSubGraphName$5[ebp]
  00027	ff 25 00 00 00
	00		 jmp	 DWORD PTR __imp_??1?$CStringT@DV?$StrTraitMFC_DLL@DV?$ChTraitsCRT@D@ATL@@@@@ATL@@QAE@XZ
  0002d	cc		 int	 3
  0002e	cc		 int	 3
  0002f	cc		 int	 3
  00030	cc		 int	 3
  00031	cc		 int	 3
__ehhandler$?Calculate_SubGraph@CMainChartFormulateImplementation@@AAE_NPAVCIndicator@@ABVCChartFormulateData@@PAVCGraphCalculateData@@PAVCIndicatorInfo@@@Z:
  00032	90		 npad	 1
  00033	90		 npad	 1
  00034	8b 54 24 08	 mov	 edx, DWORD PTR [esp+8]
  00038	8d 42 0c	 lea	 eax, DWORD PTR [edx+12]
  0003b	8b 4a d8	 mov	 ecx, DWORD PTR [edx-40]
  0003e	33 c8		 xor	 ecx, eax
  00040	e8 00 00 00 00	 call	 @__security_check_cookie@4
  00045	b8 00 00 00 00	 mov	 eax, OFFSET __ehfuncinfo$?Calculate_SubGraph@CMainChartFormulateImplementation@@AAE_NPAVCIndicator@@ABVCChartFormulateData@@PAVCGraphCalculateData@@PAVCIndicatorInfo@@@Z
  0004a	e9 00 00 00 00	 jmp	 ___CxxFrameHandler3
text$x	ENDS
?Calculate_SubGraph@CMainChartFormulateImplementation@@AAE_NPAVCIndicator@@ABVCChartFormulateData@@PAVCGraphCalculateData@@PAVCIndicatorInfo@@@Z ENDP ; CMainChartFormulateImplementation::Calculate_SubGraph
; Function compile flags: /Ogtp
; File D:\git\src\IBK\IBK_DRFN\ProjSrc\SrcChartEx\ChartOCX\ChartFormulate\MainChartFormulateImplementation.cpp
;	COMDAT ?Calculate_Graph@CMainChartFormulateImplementation@@AAE_NPAVCIndicator@@ABVCChartFormulateData@@PAVCGraphCalculateData@@PAVCIndicatorInfo@@@Z
_TEXT	SEGMENT
_pIndicator$ = 8					; size = 4
_chartFormulateData$ = 12				; size = 4
_graphCalculateData$ = 16				; size = 4
_pIndicatorInfo$ = 20					; size = 4
?Calculate_Graph@CMainChartFormulateImplementation@@AAE_NPAVCIndicator@@ABVCChartFormulateData@@PAVCGraphCalculateData@@PAVCIndicatorInfo@@@Z PROC ; CMainChartFormulateImplementation::Calculate_Graph, COMDAT
; _this$ = ecx

; 96   : {

  00000	55		 push	 ebp
  00001	8b ec		 mov	 ebp, esp

; 97   : 	assert(pIndicator != NULL);
; 98   : 
; 99   : 	pIndicator->GetData(chartFormulateData, graphCalculateData, pIndicatorInfo, m_CalculateData);

  00003	8b 55 08	 mov	 edx, DWORD PTR _pIndicator$[ebp]
  00006	8d 41 04	 lea	 eax, DWORD PTR [ecx+4]
  00009	56		 push	 esi
  0000a	57		 push	 edi
  0000b	8b 7d 10	 mov	 edi, DWORD PTR _graphCalculateData$[ebp]
  0000e	8b ca		 mov	 ecx, edx
  00010	8b 32		 mov	 esi, DWORD PTR [edx]
  00012	50		 push	 eax
  00013	8d 45 14	 lea	 eax, DWORD PTR _pIndicatorInfo$[ebp]
  00016	50		 push	 eax
  00017	57		 push	 edi
  00018	ff 75 0c	 push	 DWORD PTR _chartFormulateData$[ebp]
  0001b	ff 56 04	 call	 DWORD PTR [esi+4]

; 100  : 	if(graphCalculateData->GetCount() < 0)

  0001e	8b cf		 mov	 ecx, edi
  00020	e8 00 00 00 00	 call	 ?GetCount@CGraphCalculateData@@QBEHXZ ; CGraphCalculateData::GetCount
  00025	85 c0		 test	 eax, eax
  00027	79 08		 jns	 SHORT $LN2@Calculate_

; 101  : 		return false;

  00029	5f		 pop	 edi
  0002a	32 c0		 xor	 al, al

; 103  : }

  0002c	5e		 pop	 esi
  0002d	5d		 pop	 ebp
  0002e	c2 10 00	 ret	 16			; 00000010H
$LN2@Calculate_:

; 102  : 	return (graphCalculateData->GetHead()->GetHeadPacket() != NULL);

  00031	8b cf		 mov	 ecx, edi
  00033	e8 00 00 00 00	 call	 ?GetHead@CGraphCalculateData@@QAEPAVCSubGraphPacketList@@XZ ; CGraphCalculateData::GetHead
  00038	8b c8		 mov	 ecx, eax
  0003a	e8 00 00 00 00	 call	 ?GetHeadPacket@CSubGraphPacketList@@QAEPAVCPacket@@XZ ; CSubGraphPacketList::GetHeadPacket
  0003f	85 c0		 test	 eax, eax
  00041	5f		 pop	 edi
  00042	0f 95 c0	 setne	 al

; 103  : }

  00045	5e		 pop	 esi
  00046	5d		 pop	 ebp
  00047	c2 10 00	 ret	 16			; 00000010H
?Calculate_Graph@CMainChartFormulateImplementation@@AAE_NPAVCIndicator@@ABVCChartFormulateData@@PAVCGraphCalculateData@@PAVCIndicatorInfo@@@Z ENDP ; CMainChartFormulateImplementation::Calculate_Graph
_TEXT	ENDS
; Function compile flags: /Ogtp
; File D:\git\src\IBK\IBK_DRFN\ProjSrc\SrcChartEx\ChartOCX\ChartFormulate\MainChartFormulateImplementation.cpp
; File C:\Program Files (x86)\Microsoft Visual Studio\2019\Community\VC\Tools\MSVC\14.29.30133\atlmfc\include\atltypes.h
; File D:\git\src\IBK\IBK_DRFN\ProjSrc\SrcChartEx\ChartOCX\ChartFormulate\MainChartFormulateImplementation.cpp
; File C:\Program Files (x86)\Microsoft Visual Studio\2019\Community\VC\Tools\MSVC\14.29.30133\atlmfc\include\atlsimpstr.h
; File D:\git\src\IBK\IBK_DRFN\ProjSrc\SrcChartEx\ChartOCX\ChartFormulate\MainChartFormulateImplementation.cpp
; File C:\Program Files (x86)\Microsoft Visual Studio\2019\Community\VC\Tools\MSVC\14.29.30133\atlmfc\include\atlsimpstr.h
; File D:\git\src\IBK\IBK_DRFN\ProjSrc\SrcChartEx\ChartOCX\ChartFormulate\MainChartFormulateImplementation.cpp
; File C:\Program Files (x86)\Microsoft Visual Studio\2019\Community\VC\Tools\MSVC\14.29.30133\atlmfc\include\cstringt.h
; File D:\git\src\IBK\IBK_DRFN\ProjSrc\SrcChartEx\ChartOCX\ChartFormulate\MainChartFormulateImplementation.cpp
; File C:\Program Files (x86)\Microsoft Visual Studio\2019\Community\VC\Tools\MSVC\14.29.30133\atlmfc\include\cstringt.h
; File D:\git\src\IBK\IBK_DRFN\ProjSrc\SrcChartEx\ChartOCX\ChartFormulate\MainChartFormulateImplementation.cpp
; File C:\Program Files (x86)\Microsoft Visual Studio\2019\Community\VC\Tools\MSVC\14.29.30133\atlmfc\include\cstringt.h
; File D:\git\src\IBK\IBK_DRFN\ProjSrc\SrcChartEx\ChartOCX\ChartFormulate\MainChartFormulateImplementation.cpp
; File D:\git\src\IBK\IBK_DRFN\ProjSrc\SrcChartEx\ChartOCX\Include_Chart\ChartFormulateData.h
; File D:\git\src\IBK\IBK_DRFN\ProjSrc\SrcChartEx\ChartOCX\ChartFormulate\MainChartFormulateImplementation.cpp
; File D:\git\src\IBK\IBK_DRFN\ProjSrc\SrcChartEx\ChartOCX\Include_Chart\ChartFormulateData.h
; File D:\git\src\IBK\IBK_DRFN\ProjSrc\SrcChartEx\ChartOCX\ChartFormulate\MainChartFormulateImplementation.cpp
; File D:\git\src\IBK\IBK_DRFN\ProjSrc\SrcChartEx\ChartOCX\Include_Chart\ChartFormulateData.h
; File D:\git\src\IBK\IBK_DRFN\ProjSrc\SrcChartEx\ChartOCX\ChartFormulate\MainChartFormulateImplementation.cpp
; File C:\Program Files (x86)\Microsoft Visual Studio\2019\Community\VC\Tools\MSVC\14.29.30133\atlmfc\include\atlsimpstr.h
; File D:\git\src\IBK\IBK_DRFN\ProjSrc\SrcChartEx\ChartOCX\ChartFormulate\MainChartFormulateImplementation.cpp
;	COMDAT ?Calculate@CMainChartFormulateImplementation@@AAE_NPAVCIndicator@@ABVCChartFormulateData@@PAVCGraphCalculateData@@PAVCIndicatorInfo@@@Z
_TEXT	SEGMENT
_point$2 = -40						; size = 8
$T3 = -40						; size = 8
_nCount$1$ = -36					; size = 4
$T4 = -32						; size = 8
_pIndicatorInfo$ = -28					; size = 4
_this$1$ = -24						; size = 4
$T5 = -24						; size = 4
$T6 = -20						; size = 4
$T7 = -16						; size = 4
$T8 = -16						; size = 4
__$EHRec$ = -12						; size = 12
_pIndicatorInfo$ = 8					; size = 4
_pIndicator$ = 8					; size = 4
_chartFormulateData$ = 12				; size = 4
_strSubGraphNames$9 = 16				; size = 4
_graphCalculateData$ = 16				; size = 4
$T10 = 19						; size = 1
tv510 = 20						; size = 4
_strSubGraphName$11 = 20				; size = 4
_pIndicatorInfo$ = 20					; size = 4
?Calculate@CMainChartFormulateImplementation@@AAE_NPAVCIndicator@@ABVCChartFormulateData@@PAVCGraphCalculateData@@PAVCIndicatorInfo@@@Z PROC ; CMainChartFormulateImplementation::Calculate, COMDAT
; _this$ = ecx

; 79   : {

  00000	55		 push	 ebp
  00001	8b ec		 mov	 ebp, esp
  00003	6a ff		 push	 -1
  00005	68 00 00 00 00	 push	 __ehhandler$?Calculate@CMainChartFormulateImplementation@@AAE_NPAVCIndicator@@ABVCChartFormulateData@@PAVCGraphCalculateData@@PAVCIndicatorInfo@@@Z
  0000a	64 a1 00 00 00
	00		 mov	 eax, DWORD PTR fs:0
  00010	50		 push	 eax
  00011	83 ec 1c	 sub	 esp, 28			; 0000001cH
  00014	53		 push	 ebx
  00015	56		 push	 esi
  00016	57		 push	 edi
  00017	a1 00 00 00 00	 mov	 eax, DWORD PTR ___security_cookie
  0001c	33 c5		 xor	 eax, ebp
  0001e	50		 push	 eax
  0001f	8d 45 f4	 lea	 eax, DWORD PTR __$EHRec$[ebp]
  00022	64 a3 00 00 00
	00		 mov	 DWORD PTR fs:0, eax
  00028	89 4d e8	 mov	 DWORD PTR _this$1$[ebp], ecx

; 80   : 	if(pIndicator == NULL)

  0002b	8b 7d 08	 mov	 edi, DWORD PTR _pIndicator$[ebp]
  0002e	85 ff		 test	 edi, edi
  00030	0f 84 88 02 00
	00		 je	 $LN83@Calculate

; 128  : 	CPacketList* pPacketList = chartFormulateData.GetPacketList();

  00036	8b 45 0c	 mov	 eax, DWORD PTR _chartFormulateData$[ebp]

; 129  : 	if(pPacketList == NULL)

  00039	8b 75 10	 mov	 esi, DWORD PTR _graphCalculateData$[ebp]
  0003c	8b 58 20	 mov	 ebx, DWORD PTR [eax+32]
  0003f	85 db		 test	 ebx, ebx
  00041	75 13		 jne	 SHORT $LN8@Calculate
; File C:\Program Files (x86)\Microsoft Visual Studio\2019\Community\VC\Tools\MSVC\14.29.30133\atlmfc\include\atltypes.h

; 424  : 	x = (short)LOWORD(dwPoint);

  00043	c7 45 e0 ff ff
	ff ff		 mov	 DWORD PTR $T4[ebp], -1

; 425  : 	y = (short)HIWORD(dwPoint);

  0004a	c7 45 e4 ff ff
	ff ff		 mov	 DWORD PTR $T4[ebp+4], -1
; File D:\git\src\IBK\IBK_DRFN\ProjSrc\SrcChartEx\ChartOCX\ChartFormulate\MainChartFormulateImplementation.cpp

; 130  : 		return (-1, -1);

  00051	e9 ae 00 00 00	 jmp	 $LN7@Calculate
$LN8@Calculate:

; 131  : 
; 132  : 	CPoint point = pPacketList->GetUpdateRange();

  00056	8d 45 d8	 lea	 eax, DWORD PTR _point$2[ebp]
  00059	8b cb		 mov	 ecx, ebx
  0005b	50		 push	 eax
  0005c	ff 15 00 00 00
	00		 call	 DWORD PTR __imp_?GetUpdateRange@CPacketList@@QAE?AVCPoint@@XZ

; 133  : 	CCalculateBaseData::CALCULATETYPE timetype = chartFormulateData.GetCalculateType();

  00062	8b 45 0c	 mov	 eax, DWORD PTR _chartFormulateData$[ebp]
  00065	8b 00		 mov	 eax, DWORD PTR [eax]

; 134  : 	if(timetype == CCalculateBaseData::REALDATA_CAL) 

  00067	83 f8 01	 cmp	 eax, 1
  0006a	75 67		 jne	 SHORT $LN9@Calculate

; 161  : 	if(pGraphCalculateData->GetCount() < 0)

  0006c	8b ce		 mov	 ecx, esi
  0006e	e8 00 00 00 00	 call	 ?GetCount@CGraphCalculateData@@QBEHXZ ; CGraphCalculateData::GetCount
  00073	85 c0		 test	 eax, eax
  00075	78 7e		 js	 SHORT $LN84@Calculate

; 162  : 		return ;
; 163  : // vntsorl:[0003431] [7111]차트화면에서의 조회속도가 구차트에 비해 늦어 개선 요구
; 164  : 	CSubGraphPacketList* pSubGraphList = NULL;
; 165  : 
; 166  : 	// (2010/6/8 - Seung-Won, Bae) Retrieve the first visible SubGrpah Index to check last calculation.
; 167  : 	CIndicator *pIndicator = pGraphCalculateData->GetIndicator();

  00077	8b 46 20	 mov	 eax, DWORD PTR [esi+32]
  0007a	8b 08		 mov	 ecx, DWORD PTR [eax]

; 168  : 	if( pIndicator) switch( pIndicator->GetID())

  0007c	85 c9		 test	 ecx, ecx
  0007e	74 1e		 je	 SHORT $LN81@Calculate
  00080	8b 41 04	 mov	 eax, DWORD PTR [ecx+4]
  00083	83 e8 01	 sub	 eax, 1
  00086	74 05		 je	 SHORT $LN22@Calculate
  00088	83 e8 02	 sub	 eax, 2
  0008b	75 11		 jne	 SHORT $LN81@Calculate
$LN22@Calculate:

; 169  : 	{
; 170  : 		case IMetaTable::EDDC_OCX_PRICEMACHART:
; 171  : 		case IMetaTable::EDDC_OCX_VOLUMEMACHART:
; 172  : 			pSubGraphList = pGraphCalculateData->GetAt( ( ( CMA *)pIndicator)->GetFirstVisibleSubGraph());

  0008d	ff b1 cc 06 00
	00		 push	 DWORD PTR [ecx+1740]
  00093	8b ce		 mov	 ecx, esi
  00095	e8 00 00 00 00	 call	 ?GetAt@CGraphCalculateData@@QAEPAVCSubGraphPacketList@@H@Z ; CGraphCalculateData::GetAt

; 173  : 			break;
; 174  : 	}
; 175  : 
; 176  : 	if( !pSubGraphList) pSubGraphList = pGraphCalculateData->GetHead();

  0009a	85 c0		 test	 eax, eax
  0009c	75 0b		 jne	 SHORT $LN82@Calculate
$LN81@Calculate:
  0009e	8b ce		 mov	 ecx, esi
  000a0	e8 00 00 00 00	 call	 ?GetHead@CGraphCalculateData@@QAEPAVCSubGraphPacketList@@XZ ; CGraphCalculateData::GetHead

; 177  : 
; 178  : 	CPacket* pPacket = NULL;
; 179  : 	if( pSubGraphList) pPacket = pSubGraphList->GetHeadPacket();

  000a5	85 c0		 test	 eax, eax
  000a7	74 3a		 je	 SHORT $LN12@Calculate
$LN82@Calculate:
  000a9	8b c8		 mov	 ecx, eax
  000ab	e8 00 00 00 00	 call	 ?GetHeadPacket@CSubGraphPacketList@@QAEPAVCPacket@@XZ ; CSubGraphPacketList::GetHeadPacket
  000b0	8b f8		 mov	 edi, eax

; 180  : 	if(pPacket == NULL || pPacket->GetCount() <= 0)

  000b2	85 ff		 test	 edi, edi
  000b4	74 2d		 je	 SHORT $LN12@Calculate
  000b6	8b 17		 mov	 edx, DWORD PTR [edi]
  000b8	8b cf		 mov	 ecx, edi
  000ba	ff 52 14	 call	 DWORD PTR [edx+20]
  000bd	85 c0		 test	 eax, eax
  000bf	7e 22		 jle	 SHORT $LN12@Calculate

; 181  : 	{
; 182  : 		point.x = 0;
; 183  : 		point.y = pPacketList->GetMaxCount();
; 184  : 	}
; 185  : 	//그림이 그려지고 있지 않았을때 실시간으로 받았던 Data는 계산이 되지 않는다.
; 186  : 	//다시 화면을 띄웠을때 계산되지 않았던 영역은 계산하라고 넘어오지 않는다.
; 187  : 	//여기서 계산되지 않았던 영역을 계산하기 위해 계산해야 할 영역을 다시 잡는다.
; 188  : 	else if(pPacket != NULL) {
; 189  : 		int nCalculatedDataCount = pPacket->GetCount();

  000c1	8b 07		 mov	 eax, DWORD PTR [edi]
  000c3	8b cf		 mov	 ecx, edi
  000c5	ff 50 14	 call	 DWORD PTR [eax+20]

; 190  : 		if(nCalculatedDataCount != point.x)

  000c8	3b 45 d8	 cmp	 eax, DWORD PTR _point$2[ebp]
  000cb	74 28		 je	 SHORT $LN84@Calculate

; 191  : 			point.x = (nCalculatedDataCount - 1);

  000cd	48		 dec	 eax
  000ce	89 45 d8	 mov	 DWORD PTR _point$2[ebp], eax
  000d1	eb 22		 jmp	 SHORT $LN84@Calculate
$LN9@Calculate:

; 137  : 		|| timetype == CCalculateBaseData::SCROLL_CAL)

  000d3	85 c0		 test	 eax, eax
  000d5	75 07		 jne	 SHORT $LN13@Calculate
  000d7	39 45 d8	 cmp	 DWORD PTR _point$2[ebp], eax
  000da	75 07		 jne	 SHORT $LN12@Calculate
  000dc	eb 17		 jmp	 SHORT $LN84@Calculate
$LN13@Calculate:
  000de	83 f8 02	 cmp	 eax, 2
  000e1	75 12		 jne	 SHORT $LN84@Calculate
$LN12@Calculate:

; 138  : 	{
; 139  : 		point.x = 0;
; 140  : 		point.y = pPacketList->GetMaxCount();
; 141  : 	}
; 142  : 
; 143  : 	//InsertType은 new인데 숨김으로 체크되어있던 Graph가 숨겨져 있을동안에 받은 Data를 계산하고 저장하기 위해서는 
; 144  : 	//중간에서 계산하게 하고 싶어도 계산되지 않은 영역이 Insert인지 Append 인지 알수가 없기 때문에 
; 145  : 	//처음부터 계산할수 밖에 없군.
; 146  : 	//첨부터 다시 계산해야 한다. 계산후 저장할때 packet이 가지고 있는 Insert 타입은 New이기 때문이징..
; 147  : 	//매매리포트, 시스템 트레이더를 위한 영역.
; 148  : /*	if(point.x == -1 || point.y == -1 || bSaveFlag == false) {
; 149  : //		CDataList* pDataList = ptrDataList.GetAt(ptrDataList.FindIndex(0));
; 150  : 		CDataList* pDataList = ptrDataList.GetHead();
; 151  : 		point.x = 0;
; 152  : 		point.y = pDataList->GetCount();
; 153  : 	}*/
; 154  : 	return point;

  000e3	8b cb		 mov	 ecx, ebx
  000e5	c7 45 d8 00 00
	00 00		 mov	 DWORD PTR _point$2[ebp], 0
  000ec	ff 15 00 00 00
	00		 call	 DWORD PTR __imp_?GetMaxCount@CPacketList@@QAEHXZ
  000f2	89 45 dc	 mov	 DWORD PTR _point$2[ebp+4], eax
$LN84@Calculate:
  000f5	8b 45 d8	 mov	 eax, DWORD PTR _point$2[ebp]
  000f8	8b 4d dc	 mov	 ecx, DWORD PTR _point$2[ebp+4]
  000fb	8b 7d 08	 mov	 edi, DWORD PTR _pIndicator$[ebp]
  000fe	89 45 e0	 mov	 DWORD PTR $T4[ebp], eax
  00101	89 4d e4	 mov	 DWORD PTR $T4[ebp+4], ecx
$LN7@Calculate:

; 81   : 		return false;
; 82   : 
; 83   : 	m_CalculateData.SetPoint(GetDataPoint(chartFormulateData, graphCalculateData));

  00104	8b 5d e8	 mov	 ebx, DWORD PTR _this$1$[ebp]
  00107	8d 45 e0	 lea	 eax, DWORD PTR $T4[ebp]
  0010a	83 c3 04	 add	 ebx, 4
  0010d	50		 push	 eax
  0010e	8b cb		 mov	 ecx, ebx
  00110	e8 00 00 00 00	 call	 ?SetPoint@CCalculateData@@QAEXABVCPoint@@@Z ; CCalculateData::SetPoint

; 84   : 	if(m_CalculateData.GetPoint().x < 0)

  00115	8d 45 d8	 lea	 eax, DWORD PTR $T3[ebp]
  00118	8b cb		 mov	 ecx, ebx
  0011a	50		 push	 eax
  0011b	e8 00 00 00 00	 call	 ?GetPoint@CCalculateData@@QBE?AVCPoint@@XZ ; CCalculateData::GetPoint
  00120	83 38 00	 cmp	 DWORD PTR [eax], 0
  00123	0f 8c 95 01 00
	00		 jl	 $LN83@Calculate

; 87   : 	if(IsCalculateSubGraph( chartFormulateData.GetIndicatorName()))

  00129	8b 45 0c	 mov	 eax, DWORD PTR _chartFormulateData$[ebp]
  0012c	8d 4d f0	 lea	 ecx, DWORD PTR $T8[ebp]
  0012f	ff 70 08	 push	 DWORD PTR [eax+8]
  00132	ff 15 00 00 00
	00		 call	 DWORD PTR __imp_??0?$CStringT@DV?$StrTraitMFC_DLL@DV?$ChTraitsCRT@D@ATL@@@@@ATL@@QAE@PBD@Z
; File C:\Program Files (x86)\Microsoft Visual Studio\2019\Community\VC\Tools\MSVC\14.29.30133\atlmfc\include\atlsimpstr.h

; 519  : 		return( GetData()->nDataLength );

  00138	8b 45 f0	 mov	 eax, DWORD PTR $T8[ebp]
; File D:\git\src\IBK\IBK_DRFN\ProjSrc\SrcChartEx\ChartOCX\ChartFormulate\MainChartFormulateImplementation.cpp

; 87   : 	if(IsCalculateSubGraph( chartFormulateData.GetIndicatorName()))

  0013b	c7 45 fc 00 00
	00 00		 mov	 DWORD PTR __$EHRec$[ebp+8], 0
; File C:\Program Files (x86)\Microsoft Visual Studio\2019\Community\VC\Tools\MSVC\14.29.30133\atlmfc\include\atlsimpstr.h

; 533  : 		return( GetLength() == 0 );

  00142	83 78 f4 00	 cmp	 DWORD PTR [eax-12], 0
; File D:\git\src\IBK\IBK_DRFN\ProjSrc\SrcChartEx\ChartOCX\ChartFormulate\MainChartFormulateImplementation.cpp

; 262  : 	if( strIndicatorName.IsEmpty()) return false;

  00146	75 06		 jne	 SHORT $LN33@Calculate
  00148	c6 45 13 00	 mov	 BYTE PTR $T10[ebp], 0
  0014c	eb 38		 jmp	 SHORT $LN36@Calculate
$LN33@Calculate:

; 264  : 	return (strIndicatorName == _MTEXT( C2_PRICE_MA) || strIndicatorName == _MTEXT( C2_VOLUME_MA));

  0014e	a1 54 00 00 00	 mov	 eax, DWORD PTR ?g_iMetaTable@@3VIMetaTable@@A+84
; File C:\Program Files (x86)\Microsoft Visual Studio\2019\Community\VC\Tools\MSVC\14.29.30133\atlmfc\include\cstringt.h

; 2486 : 		return(str1.Compare(psz2) == 0);

  00153	8d 4d f0	 lea	 ecx, DWORD PTR $T8[ebp]
  00156	ff b0 20 03 00
	00		 push	 DWORD PTR [eax+800]
  0015c	ff 15 00 00 00
	00		 call	 DWORD PTR __imp_?Compare@?$CStringT@DV?$StrTraitMFC_DLL@DV?$ChTraitsCRT@D@ATL@@@@@ATL@@QBEHPBD@Z
  00162	85 c0		 test	 eax, eax
; File D:\git\src\IBK\IBK_DRFN\ProjSrc\SrcChartEx\ChartOCX\ChartFormulate\MainChartFormulateImplementation.cpp

; 264  : 	return (strIndicatorName == _MTEXT( C2_PRICE_MA) || strIndicatorName == _MTEXT( C2_VOLUME_MA));

  00164	74 1c		 je	 SHORT $LN35@Calculate
  00166	a1 54 00 00 00	 mov	 eax, DWORD PTR ?g_iMetaTable@@3VIMetaTable@@A+84
; File C:\Program Files (x86)\Microsoft Visual Studio\2019\Community\VC\Tools\MSVC\14.29.30133\atlmfc\include\cstringt.h

; 2486 : 		return(str1.Compare(psz2) == 0);

  0016b	8d 4d f0	 lea	 ecx, DWORD PTR $T8[ebp]
  0016e	ff b0 24 03 00
	00		 push	 DWORD PTR [eax+804]
  00174	ff 15 00 00 00
	00		 call	 DWORD PTR __imp_?Compare@?$CStringT@DV?$StrTraitMFC_DLL@DV?$ChTraitsCRT@D@ATL@@@@@ATL@@QBEHPBD@Z
; File D:\git\src\IBK\IBK_DRFN\ProjSrc\SrcChartEx\ChartOCX\ChartFormulate\MainChartFormulateImplementation.cpp

; 264  : 	return (strIndicatorName == _MTEXT( C2_PRICE_MA) || strIndicatorName == _MTEXT( C2_VOLUME_MA));

  0017a	c6 45 13 00	 mov	 BYTE PTR $T10[ebp], 0
; File C:\Program Files (x86)\Microsoft Visual Studio\2019\Community\VC\Tools\MSVC\14.29.30133\atlmfc\include\cstringt.h

; 2486 : 		return(str1.Compare(psz2) == 0);

  0017e	85 c0		 test	 eax, eax
; File D:\git\src\IBK\IBK_DRFN\ProjSrc\SrcChartEx\ChartOCX\ChartFormulate\MainChartFormulateImplementation.cpp

; 264  : 	return (strIndicatorName == _MTEXT( C2_PRICE_MA) || strIndicatorName == _MTEXT( C2_VOLUME_MA));

  00180	75 04		 jne	 SHORT $LN36@Calculate
$LN35@Calculate:
  00182	c6 45 13 01	 mov	 BYTE PTR $T10[ebp], 1
$LN36@Calculate:

; 87   : 	if(IsCalculateSubGraph( chartFormulateData.GetIndicatorName()))

  00186	8d 4d f0	 lea	 ecx, DWORD PTR $T8[ebp]
  00189	c7 45 fc ff ff
	ff ff		 mov	 DWORD PTR __$EHRec$[ebp+8], -1
  00190	ff 15 00 00 00
	00		 call	 DWORD PTR __imp_??1?$CStringT@DV?$StrTraitMFC_DLL@DV?$ChTraitsCRT@D@ATL@@@@@ATL@@QAE@XZ
  00196	80 7d 13 00	 cmp	 BYTE PTR $T10[ebp], 0
  0019a	8b 45 14	 mov	 eax, DWORD PTR _pIndicatorInfo$[ebp]
  0019d	0f 84 31 01 00
	00		 je	 $LN4@Calculate

; 111  : 	int nCount = CDataConversion::GetStringDataCount(chartFormulateData.GetSubGraphNames(), ",");

  001a3	68 00 00 00 00	 push	 OFFSET ??_C@_01IHBHIGKO@?0@
  001a8	8d 4d ec	 lea	 ecx, DWORD PTR $T6[ebp]

; 88   : 		return Calculate_SubGraph(pIndicator, chartFormulateData, graphCalculateData, pIndicatorInfo);

  001ab	89 45 e4	 mov	 DWORD PTR _pIndicatorInfo$[ebp], eax

; 111  : 	int nCount = CDataConversion::GetStringDataCount(chartFormulateData.GetSubGraphNames(), ",");

  001ae	ff 15 00 00 00
	00		 call	 DWORD PTR __imp_??0?$CStringT@DV?$StrTraitMFC_DLL@DV?$ChTraitsCRT@D@ATL@@@@@ATL@@QAE@PBD@Z
; File D:\git\src\IBK\IBK_DRFN\ProjSrc\SrcChartEx\ChartOCX\Include_Chart\ChartFormulateData.h

; 64   : 	CString		GetSubGraphNames( void) const							{	return m_strSubGraphNames;				}

  001b4	8b 45 0c	 mov	 eax, DWORD PTR _chartFormulateData$[ebp]
  001b7	8d 4d f0	 lea	 ecx, DWORD PTR $T7[ebp]
  001ba	83 c0 10	 add	 eax, 16			; 00000010H
; File D:\git\src\IBK\IBK_DRFN\ProjSrc\SrcChartEx\ChartOCX\ChartFormulate\MainChartFormulateImplementation.cpp

; 111  : 	int nCount = CDataConversion::GetStringDataCount(chartFormulateData.GetSubGraphNames(), ",");

  001bd	c7 45 fc 01 00
	00 00		 mov	 DWORD PTR __$EHRec$[ebp+8], 1
; File D:\git\src\IBK\IBK_DRFN\ProjSrc\SrcChartEx\ChartOCX\Include_Chart\ChartFormulateData.h

; 64   : 	CString		GetSubGraphNames( void) const							{	return m_strSubGraphNames;				}

  001c4	50		 push	 eax
  001c5	89 45 14	 mov	 DWORD PTR tv510[ebp], eax
  001c8	ff 15 00 00 00
	00		 call	 DWORD PTR __imp_??0?$CStringT@DV?$StrTraitMFC_DLL@DV?$ChTraitsCRT@D@ATL@@@@@ATL@@QAE@ABV01@@Z
; File D:\git\src\IBK\IBK_DRFN\ProjSrc\SrcChartEx\ChartOCX\ChartFormulate\MainChartFormulateImplementation.cpp

; 111  : 	int nCount = CDataConversion::GetStringDataCount(chartFormulateData.GetSubGraphNames(), ",");

  001ce	8d 45 ec	 lea	 eax, DWORD PTR $T6[ebp]
  001d1	c6 45 fc 02	 mov	 BYTE PTR __$EHRec$[ebp+8], 2
  001d5	50		 push	 eax
  001d6	8d 45 f0	 lea	 eax, DWORD PTR $T7[ebp]
  001d9	50		 push	 eax
  001da	e8 00 00 00 00	 call	 ?GetStringDataCount@CDataConversion@@SAHABV?$CStringT@DV?$StrTraitMFC_DLL@DV?$ChTraitsCRT@D@ATL@@@@@ATL@@0@Z ; CDataConversion::GetStringDataCount
  001df	83 c4 08	 add	 esp, 8
  001e2	8d 4d f0	 lea	 ecx, DWORD PTR $T7[ebp]
  001e5	8b f8		 mov	 edi, eax
  001e7	89 7d dc	 mov	 DWORD PTR _nCount$1$[ebp], edi
  001ea	ff 15 00 00 00
	00		 call	 DWORD PTR __imp_??1?$CStringT@DV?$StrTraitMFC_DLL@DV?$ChTraitsCRT@D@ATL@@@@@ATL@@QAE@XZ
  001f0	8d 4d ec	 lea	 ecx, DWORD PTR $T6[ebp]
  001f3	c7 45 fc ff ff
	ff ff		 mov	 DWORD PTR __$EHRec$[ebp+8], -1
  001fa	ff 15 00 00 00
	00		 call	 DWORD PTR __imp_??1?$CStringT@DV?$StrTraitMFC_DLL@DV?$ChTraitsCRT@D@ATL@@@@@ATL@@QAE@XZ

; 112  : 	if(nCount <= 0)

  00200	85 ff		 test	 edi, edi
  00202	0f 8e b6 00 00
	00		 jle	 $LN83@Calculate
; File D:\git\src\IBK\IBK_DRFN\ProjSrc\SrcChartEx\ChartOCX\Include_Chart\ChartFormulateData.h

; 64   : 	CString		GetSubGraphNames( void) const							{	return m_strSubGraphNames;				}

  00208	ff 75 14	 push	 DWORD PTR tv510[ebp]
  0020b	8d 4d 10	 lea	 ecx, DWORD PTR _strSubGraphNames$9[ebp]
  0020e	ff 15 00 00 00
	00		 call	 DWORD PTR __imp_??0?$CStringT@DV?$StrTraitMFC_DLL@DV?$ChTraitsCRT@D@ATL@@@@@ATL@@QAE@ABV01@@Z
; File D:\git\src\IBK\IBK_DRFN\ProjSrc\SrcChartEx\ChartOCX\ChartFormulate\MainChartFormulateImplementation.cpp

; 115  : 	CString strSubGraphNames = chartFormulateData.GetSubGraphNames();

  00214	c7 45 fc 03 00
	00 00		 mov	 DWORD PTR __$EHRec$[ebp+8], 3

; 116  : 	for(int nIndex = 0 ; nIndex < nCount; nIndex++){

  0021b	33 ff		 xor	 edi, edi
  0021d	0f 1f 00	 npad	 3
$LL50@Calculate:

; 117  : 		CString strSubGraphName = CDataConversion::GetStringData(strSubGraphNames, ",");

  00220	68 00 00 00 00	 push	 OFFSET ??_C@_01IHBHIGKO@?0@
  00225	8d 4d e8	 lea	 ecx, DWORD PTR $T5[ebp]
  00228	ff 15 00 00 00
	00		 call	 DWORD PTR __imp_??0?$CStringT@DV?$StrTraitMFC_DLL@DV?$ChTraitsCRT@D@ATL@@@@@ATL@@QAE@PBD@Z
  0022e	6a 01		 push	 1
  00230	8d 45 e8	 lea	 eax, DWORD PTR $T5[ebp]
  00233	c6 45 fc 04	 mov	 BYTE PTR __$EHRec$[ebp+8], 4
  00237	50		 push	 eax
  00238	8d 45 10	 lea	 eax, DWORD PTR _strSubGraphNames$9[ebp]
  0023b	50		 push	 eax
  0023c	8d 45 14	 lea	 eax, DWORD PTR _strSubGraphName$11[ebp]
  0023f	50		 push	 eax
  00240	e8 00 00 00 00	 call	 ?GetStringData@CDataConversion@@SA?AV?$CStringT@DV?$StrTraitMFC_DLL@DV?$ChTraitsCRT@D@ATL@@@@@ATL@@AAV23@ABV23@_N@Z ; CDataConversion::GetStringData
  00245	83 c4 10	 add	 esp, 16			; 00000010H
  00248	8d 4d e8	 lea	 ecx, DWORD PTR $T5[ebp]
  0024b	c6 45 fc 06	 mov	 BYTE PTR __$EHRec$[ebp+8], 6
  0024f	ff 15 00 00 00
	00		 call	 DWORD PTR __imp_??1?$CStringT@DV?$StrTraitMFC_DLL@DV?$ChTraitsCRT@D@ATL@@@@@ATL@@QAE@XZ
; File C:\Program Files (x86)\Microsoft Visual Studio\2019\Community\VC\Tools\MSVC\14.29.30133\atlmfc\include\atlsimpstr.h

; 519  : 		return( GetData()->nDataLength );

  00255	8b 45 14	 mov	 eax, DWORD PTR _strSubGraphName$11[ebp]

; 533  : 		return( GetLength() == 0 );

  00258	83 78 f4 00	 cmp	 DWORD PTR [eax-12], 0
; File D:\git\src\IBK\IBK_DRFN\ProjSrc\SrcChartEx\ChartOCX\ChartFormulate\MainChartFormulateImplementation.cpp

; 118  : 		if(strSubGraphName.IsEmpty())

  0025c	74 4e		 je	 SHORT $LN77@Calculate

; 120  : 		m_CalculateData.SetPacketNamesForSave(strSubGraphName);

  0025e	8d 45 14	 lea	 eax, DWORD PTR _strSubGraphName$11[ebp]
  00261	8b cb		 mov	 ecx, ebx
  00263	50		 push	 eax
  00264	e8 00 00 00 00	 call	 ?SetPacketNamesForSave@CCalculateData@@QAEXABV?$CStringT@DV?$StrTraitMFC_DLL@DV?$ChTraitsCRT@D@ATL@@@@@ATL@@@Z ; CCalculateData::SetPacketNamesForSave

; 121  : 		pIndicator->GetData(chartFormulateData, graphCalculateData, pIndicatorInfo, m_CalculateData);

  00269	8b 4d 08	 mov	 ecx, DWORD PTR _pIndicator$[ebp]
  0026c	8d 55 e4	 lea	 edx, DWORD PTR _pIndicatorInfo$[ebp]
  0026f	53		 push	 ebx
  00270	52		 push	 edx
  00271	56		 push	 esi
  00272	8b 01		 mov	 eax, DWORD PTR [ecx]
  00274	ff 75 0c	 push	 DWORD PTR _chartFormulateData$[ebp]
  00277	ff 50 04	 call	 DWORD PTR [eax+4]

; 122  : 	}

  0027a	8d 4d 14	 lea	 ecx, DWORD PTR _strSubGraphName$11[ebp]
  0027d	c6 45 fc 03	 mov	 BYTE PTR __$EHRec$[ebp+8], 3
  00281	ff 15 00 00 00
	00		 call	 DWORD PTR __imp_??1?$CStringT@DV?$StrTraitMFC_DLL@DV?$ChTraitsCRT@D@ATL@@@@@ATL@@QAE@XZ
  00287	47		 inc	 edi
  00288	3b 7d dc	 cmp	 edi, DWORD PTR _nCount$1$[ebp]
  0028b	7c 93		 jl	 SHORT $LL50@Calculate

; 123  : 	return true;

  0028d	8d 4d 10	 lea	 ecx, DWORD PTR _strSubGraphNames$9[ebp]
  00290	ff 15 00 00 00
	00		 call	 DWORD PTR __imp_??1?$CStringT@DV?$StrTraitMFC_DLL@DV?$ChTraitsCRT@D@ATL@@@@@ATL@@QAE@XZ
  00296	b0 01		 mov	 al, 1

; 91   : }

  00298	8b 4d f4	 mov	 ecx, DWORD PTR __$EHRec$[ebp]
  0029b	64 89 0d 00 00
	00 00		 mov	 DWORD PTR fs:0, ecx
  002a2	59		 pop	 ecx
  002a3	5f		 pop	 edi
  002a4	5e		 pop	 esi
  002a5	5b		 pop	 ebx
  002a6	8b e5		 mov	 esp, ebp
  002a8	5d		 pop	 ebp
  002a9	c2 10 00	 ret	 16			; 00000010H
$LN77@Calculate:

; 119  : 			return false;

  002ac	8d 4d 14	 lea	 ecx, DWORD PTR _strSubGraphName$11[ebp]
  002af	ff 15 00 00 00
	00		 call	 DWORD PTR __imp_??1?$CStringT@DV?$StrTraitMFC_DLL@DV?$ChTraitsCRT@D@ATL@@@@@ATL@@QAE@XZ
  002b5	8d 4d 10	 lea	 ecx, DWORD PTR _strSubGraphNames$9[ebp]
  002b8	ff 15 00 00 00
	00		 call	 DWORD PTR __imp_??1?$CStringT@DV?$StrTraitMFC_DLL@DV?$ChTraitsCRT@D@ATL@@@@@ATL@@QAE@XZ
$LN83@Calculate:

; 91   : }

  002be	32 c0		 xor	 al, al
  002c0	8b 4d f4	 mov	 ecx, DWORD PTR __$EHRec$[ebp]
  002c3	64 89 0d 00 00
	00 00		 mov	 DWORD PTR fs:0, ecx
  002ca	59		 pop	 ecx
  002cb	5f		 pop	 edi
  002cc	5e		 pop	 esi
  002cd	5b		 pop	 ebx
  002ce	8b e5		 mov	 esp, ebp
  002d0	5d		 pop	 ebp
  002d1	c2 10 00	 ret	 16			; 00000010H
$LN4@Calculate:

; 99   : 	pIndicator->GetData(chartFormulateData, graphCalculateData, pIndicatorInfo, m_CalculateData);

  002d4	53		 push	 ebx
  002d5	8d 4d 08	 lea	 ecx, DWORD PTR _pIndicatorInfo$[ebp]

; 89   : 
; 90   : 	return Calculate_Graph(pIndicator, chartFormulateData, graphCalculateData, pIndicatorInfo);

  002d8	89 45 08	 mov	 DWORD PTR _pIndicatorInfo$[ebp], eax

; 99   : 	pIndicator->GetData(chartFormulateData, graphCalculateData, pIndicatorInfo, m_CalculateData);

  002db	8b 07		 mov	 eax, DWORD PTR [edi]
  002dd	51		 push	 ecx
  002de	56		 push	 esi
  002df	ff 75 0c	 push	 DWORD PTR _chartFormulateData$[ebp]
  002e2	8b cf		 mov	 ecx, edi
  002e4	ff 50 04	 call	 DWORD PTR [eax+4]

; 100  : 	if(graphCalculateData->GetCount() < 0)

  002e7	8b ce		 mov	 ecx, esi
  002e9	e8 00 00 00 00	 call	 ?GetCount@CGraphCalculateData@@QBEHXZ ; CGraphCalculateData::GetCount
  002ee	85 c0		 test	 eax, eax
  002f0	78 cc		 js	 SHORT $LN83@Calculate

; 101  : 		return false;
; 102  : 	return (graphCalculateData->GetHead()->GetHeadPacket() != NULL);

  002f2	8b ce		 mov	 ecx, esi
  002f4	e8 00 00 00 00	 call	 ?GetHead@CGraphCalculateData@@QAEPAVCSubGraphPacketList@@XZ ; CGraphCalculateData::GetHead
  002f9	8b c8		 mov	 ecx, eax
  002fb	e8 00 00 00 00	 call	 ?GetHeadPacket@CSubGraphPacketList@@QAEPAVCPacket@@XZ ; CSubGraphPacketList::GetHeadPacket
  00300	85 c0		 test	 eax, eax
  00302	0f 95 c0	 setne	 al

; 91   : }

  00305	8b 4d f4	 mov	 ecx, DWORD PTR __$EHRec$[ebp]
  00308	64 89 0d 00 00
	00 00		 mov	 DWORD PTR fs:0, ecx
  0030f	59		 pop	 ecx
  00310	5f		 pop	 edi
  00311	5e		 pop	 esi
  00312	5b		 pop	 ebx
  00313	8b e5		 mov	 esp, ebp
  00315	5d		 pop	 ebp
  00316	c2 10 00	 ret	 16			; 00000010H
_TEXT	ENDS
;	COMDAT text$x
text$x	SEGMENT
__unwindfunclet$?Calculate@CMainChartFormulateImplementation@@AAE_NPAVCIndicator@@ABVCChartFormulateData@@PAVCGraphCalculateData@@PAVCIndicatorInfo@@@Z$0:
  00000	8d 4d f0	 lea	 ecx, DWORD PTR $T8[ebp]
  00003	ff 25 00 00 00
	00		 jmp	 DWORD PTR __imp_??1?$CStringT@DV?$StrTraitMFC_DLL@DV?$ChTraitsCRT@D@ATL@@@@@ATL@@QAE@XZ
__unwindfunclet$?Calculate@CMainChartFormulateImplementation@@AAE_NPAVCIndicator@@ABVCChartFormulateData@@PAVCGraphCalculateData@@PAVCIndicatorInfo@@@Z$1:
  00009	8d 4d ec	 lea	 ecx, DWORD PTR $T6[ebp]
  0000c	ff 25 00 00 00
	00		 jmp	 DWORD PTR __imp_??1?$CStringT@DV?$StrTraitMFC_DLL@DV?$ChTraitsCRT@D@ATL@@@@@ATL@@QAE@XZ
__unwindfunclet$?Calculate@CMainChartFormulateImplementation@@AAE_NPAVCIndicator@@ABVCChartFormulateData@@PAVCGraphCalculateData@@PAVCIndicatorInfo@@@Z$2:
  00012	8d 4d f0	 lea	 ecx, DWORD PTR $T7[ebp]
  00015	ff 25 00 00 00
	00		 jmp	 DWORD PTR __imp_??1?$CStringT@DV?$StrTraitMFC_DLL@DV?$ChTraitsCRT@D@ATL@@@@@ATL@@QAE@XZ
__unwindfunclet$?Calculate@CMainChartFormulateImplementation@@AAE_NPAVCIndicator@@ABVCChartFormulateData@@PAVCGraphCalculateData@@PAVCIndicatorInfo@@@Z$3:
  0001b	8d 4d 10	 lea	 ecx, DWORD PTR _strSubGraphNames$9[ebp]
  0001e	ff 25 00 00 00
	00		 jmp	 DWORD PTR __imp_??1?$CStringT@DV?$StrTraitMFC_DLL@DV?$ChTraitsCRT@D@ATL@@@@@ATL@@QAE@XZ
__unwindfunclet$?Calculate@CMainChartFormulateImplementation@@AAE_NPAVCIndicator@@ABVCChartFormulateData@@PAVCGraphCalculateData@@PAVCIndicatorInfo@@@Z$4:
  00024	8d 4d e8	 lea	 ecx, DWORD PTR $T5[ebp]
  00027	ff 25 00 00 00
	00		 jmp	 DWORD PTR __imp_??1?$CStringT@DV?$StrTraitMFC_DLL@DV?$ChTraitsCRT@D@ATL@@@@@ATL@@QAE@XZ
__unwindfunclet$?Calculate@CMainChartFormulateImplementation@@AAE_NPAVCIndicator@@ABVCChartFormulateData@@PAVCGraphCalculateData@@PAVCIndicatorInfo@@@Z$5:
  0002d	8d 4d 14	 lea	 ecx, DWORD PTR _strSubGraphName$11[ebp]
  00030	ff 25 00 00 00
	00		 jmp	 DWORD PTR __imp_??1?$CStringT@DV?$StrTraitMFC_DLL@DV?$ChTraitsCRT@D@ATL@@@@@ATL@@QAE@XZ
  00036	cc		 int	 3
  00037	cc		 int	 3
  00038	cc		 int	 3
  00039	cc		 int	 3
  0003a	cc		 int	 3
__ehhandler$?Calculate@CMainChartFormulateImplementation@@AAE_NPAVCIndicator@@ABVCChartFormulateData@@PAVCGraphCalculateData@@PAVCIndicatorInfo@@@Z:
  0003b	90		 npad	 1
  0003c	90		 npad	 1
  0003d	8b 54 24 08	 mov	 edx, DWORD PTR [esp+8]
  00041	8d 42 0c	 lea	 eax, DWORD PTR [edx+12]
  00044	8b 4a d4	 mov	 ecx, DWORD PTR [edx-44]
  00047	33 c8		 xor	 ecx, eax
  00049	e8 00 00 00 00	 call	 @__security_check_cookie@4
  0004e	b8 00 00 00 00	 mov	 eax, OFFSET __ehfuncinfo$?Calculate@CMainChartFormulateImplementation@@AAE_NPAVCIndicator@@ABVCChartFormulateData@@PAVCGraphCalculateData@@PAVCIndicatorInfo@@@Z
  00053	e9 00 00 00 00	 jmp	 ___CxxFrameHandler3
text$x	ENDS
?Calculate@CMainChartFormulateImplementation@@AAE_NPAVCIndicator@@ABVCChartFormulateData@@PAVCGraphCalculateData@@PAVCIndicatorInfo@@@Z ENDP ; CMainChartFormulateImplementation::Calculate
; Function compile flags: /Ogtp
; File D:\git\src\IBK\IBK_DRFN\ProjSrc\SrcChartEx\ChartOCX\ChartFormulate\MainChartFormulateImplementation.cpp
;	COMDAT ?GetDataPointWhenREALAPPEND@CMainChartFormulateImplementation@@AAEXPAVCPacketList@@PAVCGraphCalculateData@@AAVCPoint@@@Z
_TEXT	SEGMENT
_pPacketList$ = 8					; size = 4
_pGraphCalculateData$ = 12				; size = 4
_point$ = 16						; size = 4
?GetDataPointWhenREALAPPEND@CMainChartFormulateImplementation@@AAEXPAVCPacketList@@PAVCGraphCalculateData@@AAVCPoint@@@Z PROC ; CMainChartFormulateImplementation::GetDataPointWhenREALAPPEND, COMDAT
; _this$ = ecx

; 160  : {

  00000	55		 push	 ebp
  00001	8b ec		 mov	 ebp, esp
  00003	56		 push	 esi

; 161  : 	if(pGraphCalculateData->GetCount() < 0)

  00004	8b 75 0c	 mov	 esi, DWORD PTR _pGraphCalculateData$[ebp]
  00007	8b ce		 mov	 ecx, esi
  00009	e8 00 00 00 00	 call	 ?GetCount@CGraphCalculateData@@QBEHXZ ; CGraphCalculateData::GetCount
  0000e	85 c0		 test	 eax, eax
  00010	78 75		 js	 SHORT $LN14@GetDataPoi

; 162  : 		return ;
; 163  : // vntsorl:[0003431] [7111]차트화면에서의 조회속도가 구차트에 비해 늦어 개선 요구
; 164  : 	CSubGraphPacketList* pSubGraphList = NULL;
; 165  : 
; 166  : 	// (2010/6/8 - Seung-Won, Bae) Retrieve the first visible SubGrpah Index to check last calculation.
; 167  : 	CIndicator *pIndicator = pGraphCalculateData->GetIndicator();

  00012	8b 46 20	 mov	 eax, DWORD PTR [esi+32]
  00015	8b 08		 mov	 ecx, DWORD PTR [eax]

; 168  : 	if( pIndicator) switch( pIndicator->GetID())

  00017	85 c9		 test	 ecx, ecx
  00019	74 1e		 je	 SHORT $LN16@GetDataPoi
  0001b	8b 41 04	 mov	 eax, DWORD PTR [ecx+4]
  0001e	83 e8 01	 sub	 eax, 1
  00021	74 05		 je	 SHORT $LN6@GetDataPoi
  00023	83 e8 02	 sub	 eax, 2
  00026	75 11		 jne	 SHORT $LN16@GetDataPoi
$LN6@GetDataPoi:

; 169  : 	{
; 170  : 		case IMetaTable::EDDC_OCX_PRICEMACHART:
; 171  : 		case IMetaTable::EDDC_OCX_VOLUMEMACHART:
; 172  : 			pSubGraphList = pGraphCalculateData->GetAt( ( ( CMA *)pIndicator)->GetFirstVisibleSubGraph());

  00028	ff b1 cc 06 00
	00		 push	 DWORD PTR [ecx+1740]
  0002e	8b ce		 mov	 ecx, esi
  00030	e8 00 00 00 00	 call	 ?GetAt@CGraphCalculateData@@QAEPAVCSubGraphPacketList@@H@Z ; CGraphCalculateData::GetAt

; 173  : 			break;
; 174  : 	}
; 175  : 
; 176  : 	if( !pSubGraphList) pSubGraphList = pGraphCalculateData->GetHead();

  00035	85 c0		 test	 eax, eax
  00037	75 0b		 jne	 SHORT $LN17@GetDataPoi
$LN16@GetDataPoi:
  00039	8b ce		 mov	 ecx, esi
  0003b	e8 00 00 00 00	 call	 ?GetHead@CGraphCalculateData@@QAEPAVCSubGraphPacketList@@XZ ; CGraphCalculateData::GetHead

; 177  : 
; 178  : 	CPacket* pPacket = NULL;
; 179  : 	if( pSubGraphList) pPacket = pSubGraphList->GetHeadPacket();

  00040	85 c0		 test	 eax, eax
  00042	74 2e		 je	 SHORT $LN12@GetDataPoi
$LN17@GetDataPoi:
  00044	8b c8		 mov	 ecx, eax
  00046	e8 00 00 00 00	 call	 ?GetHeadPacket@CSubGraphPacketList@@QAEPAVCPacket@@XZ ; CSubGraphPacketList::GetHeadPacket
  0004b	8b f0		 mov	 esi, eax

; 180  : 	if(pPacket == NULL || pPacket->GetCount() <= 0)

  0004d	85 f6		 test	 esi, esi
  0004f	74 21		 je	 SHORT $LN12@GetDataPoi
  00051	8b 16		 mov	 edx, DWORD PTR [esi]
  00053	8b ce		 mov	 ecx, esi
  00055	ff 52 14	 call	 DWORD PTR [edx+20]
  00058	85 c0		 test	 eax, eax
  0005a	7e 16		 jle	 SHORT $LN12@GetDataPoi

; 184  : 	}
; 185  : 	//그림이 그려지고 있지 않았을때 실시간으로 받았던 Data는 계산이 되지 않는다.
; 186  : 	//다시 화면을 띄웠을때 계산되지 않았던 영역은 계산하라고 넘어오지 않는다.
; 187  : 	//여기서 계산되지 않았던 영역을 계산하기 위해 계산해야 할 영역을 다시 잡는다.
; 188  : 	else if(pPacket != NULL) {
; 189  : 		int nCalculatedDataCount = pPacket->GetCount();

  0005c	8b 06		 mov	 eax, DWORD PTR [esi]
  0005e	8b ce		 mov	 ecx, esi
  00060	ff 50 14	 call	 DWORD PTR [eax+20]

; 190  : 		if(nCalculatedDataCount != point.x)

  00063	8b 4d 10	 mov	 ecx, DWORD PTR _point$[ebp]
  00066	3b 01		 cmp	 eax, DWORD PTR [ecx]
  00068	74 1d		 je	 SHORT $LN14@GetDataPoi

; 191  : 			point.x = (nCalculatedDataCount - 1);

  0006a	48		 dec	 eax
  0006b	89 01		 mov	 DWORD PTR [ecx], eax
  0006d	5e		 pop	 esi

; 192  : 	}
; 193  : }

  0006e	5d		 pop	 ebp
  0006f	c2 0c 00	 ret	 12			; 0000000cH
$LN12@GetDataPoi:

; 181  : 	{
; 182  : 		point.x = 0;

  00072	8b 75 10	 mov	 esi, DWORD PTR _point$[ebp]

; 183  : 		point.y = pPacketList->GetMaxCount();

  00075	8b 4d 08	 mov	 ecx, DWORD PTR _pPacketList$[ebp]
  00078	c7 06 00 00 00
	00		 mov	 DWORD PTR [esi], 0
  0007e	ff 15 00 00 00
	00		 call	 DWORD PTR __imp_?GetMaxCount@CPacketList@@QAEHXZ
  00084	89 46 04	 mov	 DWORD PTR [esi+4], eax
$LN14@GetDataPoi:
  00087	5e		 pop	 esi

; 192  : 	}
; 193  : }

  00088	5d		 pop	 ebp
  00089	c2 0c 00	 ret	 12			; 0000000cH
?GetDataPointWhenREALAPPEND@CMainChartFormulateImplementation@@AAEXPAVCPacketList@@PAVCGraphCalculateData@@AAVCPoint@@@Z ENDP ; CMainChartFormulateImplementation::GetDataPointWhenREALAPPEND
_TEXT	ENDS
; Function compile flags: /Ogtp
; File D:\git\src\IBK\IBK_DRFN\ProjSrc\SrcChartEx\ChartOCX\ChartFormulate\MainChartFormulateImplementation.cpp
; File C:\Program Files (x86)\Microsoft Visual Studio\2019\Community\VC\Tools\MSVC\14.29.30133\atlmfc\include\atltypes.h
; File D:\git\src\IBK\IBK_DRFN\ProjSrc\SrcChartEx\ChartOCX\ChartFormulate\MainChartFormulateImplementation.cpp
; File C:\Program Files (x86)\Microsoft Visual Studio\2019\Community\VC\Tools\MSVC\14.29.30133\atlmfc\include\atltypes.h
; File D:\git\src\IBK\IBK_DRFN\ProjSrc\SrcChartEx\ChartOCX\ChartFormulate\MainChartFormulateImplementation.cpp
;	COMDAT ?GetDataPoint@CMainChartFormulateImplementation@@AAE?AVCPoint@@ABVCChartFormulateData@@PAVCGraphCalculateData@@@Z
_TEXT	SEGMENT
_point$ = -8						; size = 8
___$ReturnUdt$ = 8					; size = 4
_chartFormulateData$ = 12				; size = 4
_pGraphCalculateData$ = 16				; size = 4
?GetDataPoint@CMainChartFormulateImplementation@@AAE?AVCPoint@@ABVCChartFormulateData@@PAVCGraphCalculateData@@@Z PROC ; CMainChartFormulateImplementation::GetDataPoint, COMDAT
; _this$ = ecx

; 127  : {

  00000	55		 push	 ebp
  00001	8b ec		 mov	 ebp, esp
  00003	83 ec 08	 sub	 esp, 8
  00006	56		 push	 esi
  00007	57		 push	 edi

; 128  : 	CPacketList* pPacketList = chartFormulateData.GetPacketList();

  00008	8b 7d 0c	 mov	 edi, DWORD PTR _chartFormulateData$[ebp]
  0000b	8b 77 20	 mov	 esi, DWORD PTR [edi+32]

; 129  : 	if(pPacketList == NULL)

  0000e	85 f6		 test	 esi, esi
  00010	75 18		 jne	 SHORT $LN2@GetDataPoi
; File C:\Program Files (x86)\Microsoft Visual Studio\2019\Community\VC\Tools\MSVC\14.29.30133\atlmfc\include\atltypes.h

; 424  : 	x = (short)LOWORD(dwPoint);

  00012	8b 45 08	 mov	 eax, DWORD PTR ___$ReturnUdt$[ebp]
  00015	5f		 pop	 edi
; File D:\git\src\IBK\IBK_DRFN\ProjSrc\SrcChartEx\ChartOCX\ChartFormulate\MainChartFormulateImplementation.cpp

; 155  : }

  00016	5e		 pop	 esi
; File C:\Program Files (x86)\Microsoft Visual Studio\2019\Community\VC\Tools\MSVC\14.29.30133\atlmfc\include\atltypes.h

; 424  : 	x = (short)LOWORD(dwPoint);

  00017	c7 00 ff ff ff
	ff		 mov	 DWORD PTR [eax], -1

; 425  : 	y = (short)HIWORD(dwPoint);

  0001d	c7 40 04 ff ff
	ff ff		 mov	 DWORD PTR [eax+4], -1
; File D:\git\src\IBK\IBK_DRFN\ProjSrc\SrcChartEx\ChartOCX\ChartFormulate\MainChartFormulateImplementation.cpp

; 155  : }

  00024	8b e5		 mov	 esp, ebp
  00026	5d		 pop	 ebp
  00027	c2 0c 00	 ret	 12			; 0000000cH
$LN2@GetDataPoi:

; 130  : 		return (-1, -1);
; 131  : 
; 132  : 	CPoint point = pPacketList->GetUpdateRange();

  0002a	8d 45 f8	 lea	 eax, DWORD PTR _point$[ebp]
  0002d	8b ce		 mov	 ecx, esi
  0002f	50		 push	 eax
  00030	ff 15 00 00 00
	00		 call	 DWORD PTR __imp_?GetUpdateRange@CPacketList@@QAE?AVCPoint@@XZ

; 133  : 	CCalculateBaseData::CALCULATETYPE timetype = chartFormulateData.GetCalculateType();

  00036	8b 07		 mov	 eax, DWORD PTR [edi]

; 134  : 	if(timetype == CCalculateBaseData::REALDATA_CAL) 

  00038	83 f8 01	 cmp	 eax, 1
  0003b	75 6a		 jne	 SHORT $LN3@GetDataPoi

; 161  : 	if(pGraphCalculateData->GetCount() < 0)

  0003d	8b 7d 10	 mov	 edi, DWORD PTR _pGraphCalculateData$[ebp]
  00040	8b cf		 mov	 ecx, edi
  00042	e8 00 00 00 00	 call	 ?GetCount@CGraphCalculateData@@QBEHXZ ; CGraphCalculateData::GetCount
  00047	85 c0		 test	 eax, eax
  00049	78 7e		 js	 SHORT $LN28@GetDataPoi

; 162  : 		return ;
; 163  : // vntsorl:[0003431] [7111]차트화면에서의 조회속도가 구차트에 비해 늦어 개선 요구
; 164  : 	CSubGraphPacketList* pSubGraphList = NULL;
; 165  : 
; 166  : 	// (2010/6/8 - Seung-Won, Bae) Retrieve the first visible SubGrpah Index to check last calculation.
; 167  : 	CIndicator *pIndicator = pGraphCalculateData->GetIndicator();

  0004b	8b 47 20	 mov	 eax, DWORD PTR [edi+32]
  0004e	8b 08		 mov	 ecx, DWORD PTR [eax]

; 168  : 	if( pIndicator) switch( pIndicator->GetID())

  00050	85 c9		 test	 ecx, ecx
  00052	74 1e		 je	 SHORT $LN26@GetDataPoi
  00054	8b 41 04	 mov	 eax, DWORD PTR [ecx+4]
  00057	83 e8 01	 sub	 eax, 1
  0005a	74 05		 je	 SHORT $LN16@GetDataPoi
  0005c	83 e8 02	 sub	 eax, 2
  0005f	75 11		 jne	 SHORT $LN26@GetDataPoi
$LN16@GetDataPoi:

; 169  : 	{
; 170  : 		case IMetaTable::EDDC_OCX_PRICEMACHART:
; 171  : 		case IMetaTable::EDDC_OCX_VOLUMEMACHART:
; 172  : 			pSubGraphList = pGraphCalculateData->GetAt( ( ( CMA *)pIndicator)->GetFirstVisibleSubGraph());

  00061	ff b1 cc 06 00
	00		 push	 DWORD PTR [ecx+1740]
  00067	8b cf		 mov	 ecx, edi
  00069	e8 00 00 00 00	 call	 ?GetAt@CGraphCalculateData@@QAEPAVCSubGraphPacketList@@H@Z ; CGraphCalculateData::GetAt

; 173  : 			break;
; 174  : 	}
; 175  : 
; 176  : 	if( !pSubGraphList) pSubGraphList = pGraphCalculateData->GetHead();

  0006e	85 c0		 test	 eax, eax
  00070	75 0b		 jne	 SHORT $LN27@GetDataPoi
$LN26@GetDataPoi:
  00072	8b cf		 mov	 ecx, edi
  00074	e8 00 00 00 00	 call	 ?GetHead@CGraphCalculateData@@QAEPAVCSubGraphPacketList@@XZ ; CGraphCalculateData::GetHead

; 177  : 
; 178  : 	CPacket* pPacket = NULL;
; 179  : 	if( pSubGraphList) pPacket = pSubGraphList->GetHeadPacket();

  00079	85 c0		 test	 eax, eax
  0007b	74 3a		 je	 SHORT $LN6@GetDataPoi
$LN27@GetDataPoi:
  0007d	8b c8		 mov	 ecx, eax
  0007f	e8 00 00 00 00	 call	 ?GetHeadPacket@CSubGraphPacketList@@QAEPAVCPacket@@XZ ; CSubGraphPacketList::GetHeadPacket
  00084	8b f8		 mov	 edi, eax

; 180  : 	if(pPacket == NULL || pPacket->GetCount() <= 0)

  00086	85 ff		 test	 edi, edi
  00088	74 2d		 je	 SHORT $LN6@GetDataPoi
  0008a	8b 17		 mov	 edx, DWORD PTR [edi]
  0008c	8b cf		 mov	 ecx, edi
  0008e	ff 52 14	 call	 DWORD PTR [edx+20]
  00091	85 c0		 test	 eax, eax
  00093	7e 22		 jle	 SHORT $LN6@GetDataPoi

; 181  : 	{
; 182  : 		point.x = 0;
; 183  : 		point.y = pPacketList->GetMaxCount();
; 184  : 	}
; 185  : 	//그림이 그려지고 있지 않았을때 실시간으로 받았던 Data는 계산이 되지 않는다.
; 186  : 	//다시 화면을 띄웠을때 계산되지 않았던 영역은 계산하라고 넘어오지 않는다.
; 187  : 	//여기서 계산되지 않았던 영역을 계산하기 위해 계산해야 할 영역을 다시 잡는다.
; 188  : 	else if(pPacket != NULL) {
; 189  : 		int nCalculatedDataCount = pPacket->GetCount();

  00095	8b 07		 mov	 eax, DWORD PTR [edi]
  00097	8b cf		 mov	 ecx, edi
  00099	ff 50 14	 call	 DWORD PTR [eax+20]

; 190  : 		if(nCalculatedDataCount != point.x)

  0009c	3b 45 f8	 cmp	 eax, DWORD PTR _point$[ebp]
  0009f	74 28		 je	 SHORT $LN28@GetDataPoi

; 191  : 			point.x = (nCalculatedDataCount - 1);

  000a1	48		 dec	 eax
  000a2	89 45 f8	 mov	 DWORD PTR _point$[ebp], eax
  000a5	eb 22		 jmp	 SHORT $LN28@GetDataPoi
$LN3@GetDataPoi:

; 135  : 		GetDataPointWhenREALAPPEND(pPacketList, pGraphCalculateData, point);
; 136  : 	else if(timetype == CCalculateBaseData::TRDATA_CAL && point.x != 0
; 137  : 		|| timetype == CCalculateBaseData::SCROLL_CAL)

  000a7	85 c0		 test	 eax, eax
  000a9	75 07		 jne	 SHORT $LN7@GetDataPoi
  000ab	39 45 f8	 cmp	 DWORD PTR _point$[ebp], eax
  000ae	75 07		 jne	 SHORT $LN6@GetDataPoi
  000b0	eb 17		 jmp	 SHORT $LN28@GetDataPoi
$LN7@GetDataPoi:
  000b2	83 f8 02	 cmp	 eax, 2
  000b5	75 12		 jne	 SHORT $LN28@GetDataPoi
$LN6@GetDataPoi:

; 138  : 	{
; 139  : 		point.x = 0;
; 140  : 		point.y = pPacketList->GetMaxCount();
; 141  : 	}
; 142  : 
; 143  : 	//InsertType은 new인데 숨김으로 체크되어있던 Graph가 숨겨져 있을동안에 받은 Data를 계산하고 저장하기 위해서는 
; 144  : 	//중간에서 계산하게 하고 싶어도 계산되지 않은 영역이 Insert인지 Append 인지 알수가 없기 때문에 
; 145  : 	//처음부터 계산할수 밖에 없군.
; 146  : 	//첨부터 다시 계산해야 한다. 계산후 저장할때 packet이 가지고 있는 Insert 타입은 New이기 때문이징..
; 147  : 	//매매리포트, 시스템 트레이더를 위한 영역.
; 148  : /*	if(point.x == -1 || point.y == -1 || bSaveFlag == false) {
; 149  : //		CDataList* pDataList = ptrDataList.GetAt(ptrDataList.FindIndex(0));
; 150  : 		CDataList* pDataList = ptrDataList.GetHead();
; 151  : 		point.x = 0;
; 152  : 		point.y = pDataList->GetCount();
; 153  : 	}*/
; 154  : 	return point;

  000b7	8b ce		 mov	 ecx, esi
  000b9	c7 45 f8 00 00
	00 00		 mov	 DWORD PTR _point$[ebp], 0
  000c0	ff 15 00 00 00
	00		 call	 DWORD PTR __imp_?GetMaxCount@CPacketList@@QAEHXZ
  000c6	89 45 fc	 mov	 DWORD PTR _point$[ebp+4], eax
$LN28@GetDataPoi:
  000c9	8b 45 08	 mov	 eax, DWORD PTR ___$ReturnUdt$[ebp]
  000cc	8b 4d f8	 mov	 ecx, DWORD PTR _point$[ebp]
  000cf	8b 55 fc	 mov	 edx, DWORD PTR _point$[ebp+4]
  000d2	5f		 pop	 edi
  000d3	89 08		 mov	 DWORD PTR [eax], ecx
  000d5	89 50 04	 mov	 DWORD PTR [eax+4], edx

; 155  : }

  000d8	5e		 pop	 esi
  000d9	8b e5		 mov	 esp, ebp
  000db	5d		 pop	 ebp
  000dc	c2 0c 00	 ret	 12			; 0000000cH
?GetDataPoint@CMainChartFormulateImplementation@@AAE?AVCPoint@@ABVCChartFormulateData@@PAVCGraphCalculateData@@@Z ENDP ; CMainChartFormulateImplementation::GetDataPoint
_TEXT	ENDS
; Function compile flags: /Ogtp
; File D:\git\src\IBK\IBK_DRFN\ProjSrc\SrcChartEx\ChartOCX\ChartFormulate\MainChartFormulateImplementation.cpp
; File D:\git\src\IBK\IBK_DRFN\ProjSrc\SrcChartEx\ChartOCX\Include_Chart\ChartFormulateData.h
; File D:\git\src\IBK\IBK_DRFN\ProjSrc\SrcChartEx\ChartOCX\ChartFormulate\MainChartFormulateImplementation.cpp
; File C:\Program Files (x86)\Microsoft Visual Studio\2019\Community\VC\Tools\MSVC\14.29.30133\atlmfc\include\atltypes.h
; File D:\git\src\IBK\IBK_DRFN\ProjSrc\SrcChartEx\ChartOCX\ChartFormulate\MainChartFormulateImplementation.cpp
; File C:\Program Files (x86)\Microsoft Visual Studio\2019\Community\VC\Tools\MSVC\14.29.30133\atlmfc\include\atlsimpstr.h
; File D:\git\src\IBK\IBK_DRFN\ProjSrc\SrcChartEx\ChartOCX\ChartFormulate\MainChartFormulateImplementation.cpp
; File C:\Program Files (x86)\Microsoft Visual Studio\2019\Community\VC\Tools\MSVC\14.29.30133\atlmfc\include\atlsimpstr.h
; File D:\git\src\IBK\IBK_DRFN\ProjSrc\SrcChartEx\ChartOCX\ChartFormulate\MainChartFormulateImplementation.cpp
; File C:\Program Files (x86)\Microsoft Visual Studio\2019\Community\VC\Tools\MSVC\14.29.30133\atlmfc\include\cstringt.h
; File D:\git\src\IBK\IBK_DRFN\ProjSrc\SrcChartEx\ChartOCX\ChartFormulate\MainChartFormulateImplementation.cpp
; File C:\Program Files (x86)\Microsoft Visual Studio\2019\Community\VC\Tools\MSVC\14.29.30133\atlmfc\include\cstringt.h
; File D:\git\src\IBK\IBK_DRFN\ProjSrc\SrcChartEx\ChartOCX\ChartFormulate\MainChartFormulateImplementation.cpp
; File C:\Program Files (x86)\Microsoft Visual Studio\2019\Community\VC\Tools\MSVC\14.29.30133\atlmfc\include\cstringt.h
; File D:\git\src\IBK\IBK_DRFN\ProjSrc\SrcChartEx\ChartOCX\ChartFormulate\MainChartFormulateImplementation.cpp
; File D:\git\src\IBK\IBK_DRFN\ProjSrc\SrcChartEx\ChartOCX\Include_Chart\ChartFormulateData.h
; File D:\git\src\IBK\IBK_DRFN\ProjSrc\SrcChartEx\ChartOCX\ChartFormulate\MainChartFormulateImplementation.cpp
; File D:\git\src\IBK\IBK_DRFN\ProjSrc\SrcChartEx\ChartOCX\Include_Chart\ChartFormulateData.h
; File D:\git\src\IBK\IBK_DRFN\ProjSrc\SrcChartEx\ChartOCX\ChartFormulate\MainChartFormulateImplementation.cpp
; File D:\git\src\IBK\IBK_DRFN\ProjSrc\SrcChartEx\ChartOCX\Include_Chart\ChartFormulateData.h
; File D:\git\src\IBK\IBK_DRFN\ProjSrc\SrcChartEx\ChartOCX\ChartFormulate\MainChartFormulateImplementation.cpp
; File C:\Program Files (x86)\Microsoft Visual Studio\2019\Community\VC\Tools\MSVC\14.29.30133\atlmfc\include\atlsimpstr.h
; File D:\git\src\IBK\IBK_DRFN\ProjSrc\SrcChartEx\ChartOCX\ChartFormulate\MainChartFormulateImplementation.cpp
;	COMDAT ?CalculateIndicator@CMainChartFormulateImplementation@@QAE_NABVCChartFormulateData@@PAVCGraphCalculateData@@AAPAVCIndicatorInfo@@@Z
_TEXT	SEGMENT
_point$2 = -56						; size = 8
$T3 = -56						; size = 8
_nCount$1$ = -52					; size = 4
$T4 = -48						; size = 8
_pIndicatorInfo$ = -44					; size = 4
_strGraphName$ = -40					; size = 4
_pIndicator$1$ = -36					; size = 4
_pIndicatorInfo$1$ = -32				; size = 4
$T5 = -32						; size = 4
_eID$1$ = -28						; size = 4
$T6 = -28						; size = 4
_strIndicatorName$ = -24				; size = 4
_this$1$ = -20						; size = 4
_pIndicator$1$ = -16					; size = 4
_strSubGraphNames$7 = -16				; size = 4
$T8 = -16						; size = 4
__$EHRec$ = -12						; size = 12
_chartFormulateData$ = 8				; size = 4
$T9 = 12						; size = 4
_graphCalculateData$ = 12				; size = 4
_pPacketList$1$ = 16					; size = 4
_strSubGraphName$10 = 16				; size = 4
_pIndicatorInfo$ = 16					; size = 4
_pIndicatorInfo$ = 16					; size = 4
$T11 = 19						; size = 1
?CalculateIndicator@CMainChartFormulateImplementation@@QAE_NABVCChartFormulateData@@PAVCGraphCalculateData@@AAPAVCIndicatorInfo@@@Z PROC ; CMainChartFormulateImplementation::CalculateIndicator, COMDAT
; _this$ = ecx

; 43   : {

  00000	55		 push	 ebp
  00001	8b ec		 mov	 ebp, esp
  00003	6a ff		 push	 -1
  00005	68 00 00 00 00	 push	 __ehhandler$?CalculateIndicator@CMainChartFormulateImplementation@@QAE_NABVCChartFormulateData@@PAVCGraphCalculateData@@AAPAVCIndicatorInfo@@@Z
  0000a	64 a1 00 00 00
	00		 mov	 eax, DWORD PTR fs:0
  00010	50		 push	 eax
  00011	83 ec 2c	 sub	 esp, 44			; 0000002cH
  00014	53		 push	 ebx
  00015	56		 push	 esi
  00016	57		 push	 edi
  00017	a1 00 00 00 00	 mov	 eax, DWORD PTR ___security_cookie
  0001c	33 c5		 xor	 eax, ebp
  0001e	50		 push	 eax
  0001f	8d 45 f4	 lea	 eax, DWORD PTR __$EHRec$[ebp]
  00022	64 a3 00 00 00
	00		 mov	 DWORD PTR fs:0, eax
  00028	89 4d ec	 mov	 DWORD PTR _this$1$[ebp], ecx
; File D:\git\src\IBK\IBK_DRFN\ProjSrc\SrcChartEx\ChartOCX\Include_Chart\ChartFormulateData.h

; 42   : 	CString		GetGraphName( void) const								{	return m_strGraphName;			}

  0002b	8b 7d 08	 mov	 edi, DWORD PTR _chartFormulateData$[ebp]
  0002e	8d 4d d8	 lea	 ecx, DWORD PTR _strGraphName$[ebp]
  00031	8d 47 04	 lea	 eax, DWORD PTR [edi+4]
  00034	50		 push	 eax
  00035	ff 15 00 00 00
	00		 call	 DWORD PTR __imp_??0?$CStringT@DV?$StrTraitMFC_DLL@DV?$ChTraitsCRT@D@ATL@@@@@ATL@@QAE@ABV01@@Z
; File D:\git\src\IBK\IBK_DRFN\ProjSrc\SrcChartEx\ChartOCX\ChartFormulate\MainChartFormulateImplementation.cpp

; 45   : 	CString strIndicatorName = chartFormulateData.GetIndicatorName();

  0003b	ff 77 08	 push	 DWORD PTR [edi+8]
  0003e	8d 4d e8	 lea	 ecx, DWORD PTR _strIndicatorName$[ebp]
  00041	c7 45 fc 00 00
	00 00		 mov	 DWORD PTR __$EHRec$[ebp+8], 0
  00048	ff 15 00 00 00
	00		 call	 DWORD PTR __imp_??0?$CStringT@DV?$StrTraitMFC_DLL@DV?$ChTraitsCRT@D@ATL@@@@@ATL@@QAE@PBD@Z

; 46   : 
; 47   : 	if( graphCalculateData == NULL || !IsThisDaegiMemul( strIndicatorName, chartFormulateData.GetCalculateType()))

  0004e	8b 75 0c	 mov	 esi, DWORD PTR _graphCalculateData$[ebp]
  00051	c6 45 fc 01	 mov	 BYTE PTR __$EHRec$[ebp+8], 1
  00055	85 f6		 test	 esi, esi
  00057	0f 84 3c 03 00
	00		 je	 $LN3@CalculateI

; 250  : 	if(calculatetype != CCalculateBaseData::SCROLL_CAL)

  0005d	83 3f 02	 cmp	 DWORD PTR [edi], 2
  00060	75 16		 jne	 SHORT $LN113@CalculateI

; 251  : 		return true;
; 252  : 
; 253  : 	// (2006.12.06) Sunghwan Ahn
; 254  : 	//	return (strGraphName.Find( _MTEXT( C2_OVERHANGING_SUPPLY)) >= 0);
; 255  : 	return g_iMetaTable.IsVolumeForSale( strGraphName) ? true : false;

  00062	8d 45 e8	 lea	 eax, DWORD PTR _strIndicatorName$[ebp]
  00065	b9 00 00 00 00	 mov	 ecx, OFFSET ?g_iMetaTable@@3VIMetaTable@@A ; g_iMetaTable
  0006a	50		 push	 eax
  0006b	e8 00 00 00 00	 call	 ?IsVolumeForSale@IMetaTable@@QAEHABV?$CStringT@DV?$StrTraitMFC_DLL@DV?$ChTraitsCRT@D@ATL@@@@@ATL@@@Z ; IMetaTable::IsVolumeForSale

; 46   : 
; 47   : 	if( graphCalculateData == NULL || !IsThisDaegiMemul( strIndicatorName, chartFormulateData.GetCalculateType()))

  00070	85 c0		 test	 eax, eax
  00072	0f 84 21 03 00
	00		 je	 $LN3@CalculateI
$LN113@CalculateI:

; 48   : 		return false;
; 49   : 	
; 50   : 	bool bGetInfo = false;
; 51   : 	if(pIndicatorInfo == NULL)

  00078	8b 45 10	 mov	 eax, DWORD PTR _pIndicatorInfo$[ebp]
  0007b	32 db		 xor	 bl, bl
  0007d	83 38 00	 cmp	 DWORD PTR [eax], 0
  00080	75 1a		 jne	 SHORT $LN4@CalculateI

; 52   : 	{
; 53   : 		bGetInfo = true;
; 54   : 		pIndicatorInfo = chartFormulateData.GetIndicatorList()->GetGraphIndicatorInfo( EILT_USER, strGraphName, strIndicatorName, EIIGT_WITH_DEFAULT_GET_AND_SET);

  00082	8b 4f 24	 mov	 ecx, DWORD PTR [edi+36]
  00085	b3 01		 mov	 bl, 1
  00087	6a 02		 push	 2
  00089	ff 75 e8	 push	 DWORD PTR _strIndicatorName$[ebp]
  0008c	ff 75 d8	 push	 DWORD PTR _strGraphName$[ebp]
  0008f	6a 03		 push	 3
  00091	ff 15 00 00 00
	00		 call	 DWORD PTR __imp_?GetGraphIndicatorInfo@CIndicatorList@@QAEPAVCIndicatorInfo@@W4EIndicatorListType@@PBD1W4EIndicatorInfoGettingType@@@Z
  00097	8b 4d 10	 mov	 ecx, DWORD PTR _pIndicatorInfo$[ebp]
  0009a	89 01		 mov	 DWORD PTR [ecx], eax
$LN4@CalculateI:

; 55   : 	}
; 56   : 
; 57   : 	// (2006/9/6 - Seung-Won, Bae) Indicator for Graph
; 58   : 	CIndicator *&pIndicator = graphCalculateData->GetIndicator();

  0009c	8b 46 20	 mov	 eax, DWORD PTR [esi+32]
  0009f	89 45 f0	 mov	 DWORD PTR _pIndicator$1$[ebp], eax

; 59   : 	if( pIndicator) if( pIndicator->GetID() != g_iMetaTable.GetIndicatorID( strIndicatorName))

  000a2	8b 08		 mov	 ecx, DWORD PTR [eax]
  000a4	85 c9		 test	 ecx, ecx
  000a6	74 30		 je	 SHORT $LN115@CalculateI
  000a8	ff 75 e8	 push	 DWORD PTR _strIndicatorName$[ebp]
  000ab	b9 00 00 00 00	 mov	 ecx, OFFSET ?g_iMetaTable@@3VIMetaTable@@A ; g_iMetaTable
  000b0	e8 00 00 00 00	 call	 ?GetIndicatorID@IMetaTable@@QAEHPBD@Z ; IMetaTable::GetIndicatorID
  000b5	8b 4d f0	 mov	 ecx, DWORD PTR _pIndicator$1$[ebp]
  000b8	8b 09		 mov	 ecx, DWORD PTR [ecx]
  000ba	39 41 04	 cmp	 DWORD PTR [ecx+4], eax
  000bd	74 15		 je	 SHORT $LN117@CalculateI

; 60   : 	{
; 61   : 		delete pIndicator;

  000bf	85 c9		 test	 ecx, ecx
  000c1	74 06		 je	 SHORT $LN12@CalculateI
  000c3	8b 01		 mov	 eax, DWORD PTR [ecx]
  000c5	6a 01		 push	 1
  000c7	ff 10		 call	 DWORD PTR [eax]
$LN12@CalculateI:

; 62   : 		pIndicator = NULL;

  000c9	8b 45 f0	 mov	 eax, DWORD PTR _pIndicator$1$[ebp]
  000cc	c7 00 00 00 00
	00		 mov	 DWORD PTR [eax], 0

; 63   : 	}
; 64   : 	if( !pIndicator)

  000d2	eb 04		 jmp	 SHORT $LN115@CalculateI
$LN117@CalculateI:
  000d4	85 c9		 test	 ecx, ecx
  000d6	75 3f		 jne	 SHORT $LN9@CalculateI
$LN115@CalculateI:

; 65   : 	{
; 66   : 		IMetaTable::EDDC_INDICATOR_ID eID = ( IMetaTable::EDDC_INDICATOR_ID)g_iMetaTable.GetIndicatorID( strIndicatorName);

  000d8	ff 75 e8	 push	 DWORD PTR _strIndicatorName$[ebp]
  000db	b9 00 00 00 00	 mov	 ecx, OFFSET ?g_iMetaTable@@3VIMetaTable@@A ; g_iMetaTable
  000e0	e8 00 00 00 00	 call	 ?GetIndicatorID@IMetaTable@@QAEHPBD@Z ; IMetaTable::GetIndicatorID

; 67   : 		if( g_iMetaTable.IsSTIndexIndicator( eID)) 

  000e5	50		 push	 eax
  000e6	b9 00 00 00 00	 mov	 ecx, OFFSET ?g_iMetaTable@@3VIMetaTable@@A ; g_iMetaTable
  000eb	89 45 e4	 mov	 DWORD PTR _eID$1$[ebp], eax
  000ee	e8 00 00 00 00	 call	 ?IsSTIndexIndicator@IMetaTable@@QAEHH@Z ; IMetaTable::IsSTIndexIndicator
  000f3	8b 4d ec	 mov	 ecx, DWORD PTR _this$1$[ebp]
  000f6	8d 49 18	 lea	 ecx, DWORD PTR [ecx+24]
  000f9	85 c0		 test	 eax, eax
  000fb	74 0a		 je	 SHORT $LN8@CalculateI

; 68   : 			pIndicator = m_indiSingleton.CreateSTIndexCalculator( eID);

  000fd	ff 75 e4	 push	 DWORD PTR _eID$1$[ebp]
  00100	e8 00 00 00 00	 call	 ?CreateSTIndexCalculator@CIndicatorSingleton@@QAEPAVCIndicator@@W4EDDC_INDICATOR_ID@IMetaTable@@@Z ; CIndicatorSingleton::CreateSTIndexCalculator
  00105	eb 0b		 jmp	 SHORT $LN123@CalculateI
$LN8@CalculateI:

; 69   : 		else 
; 70   : 			pIndicator = m_indiSingleton.Create( eID, chartFormulateData.GetOcxHwnd());

  00107	ff 77 28	 push	 DWORD PTR [edi+40]
  0010a	ff 75 e4	 push	 DWORD PTR _eID$1$[ebp]
  0010d	e8 00 00 00 00	 call	 ?Create@CIndicatorSingleton@@QAEPAVCIndicator@@W4EDDC_INDICATOR_ID@IMetaTable@@PAUHWND__@@@Z ; CIndicatorSingleton::Create
$LN123@CalculateI:

; 71   : 	}
; 72   : 	if( !pIndicator) return bGetInfo;	//계산이 필요없는 지표의 경우.

  00112	8b 4d f0	 mov	 ecx, DWORD PTR _pIndicator$1$[ebp]
  00115	89 01		 mov	 DWORD PTR [ecx], eax
$LN9@CalculateI:
  00117	8b 45 f0	 mov	 eax, DWORD PTR _pIndicator$1$[ebp]
  0011a	8b 00		 mov	 eax, DWORD PTR [eax]
  0011c	89 45 dc	 mov	 DWORD PTR _pIndicator$1$[ebp], eax
  0011f	85 c0		 test	 eax, eax
  00121	0f 84 74 02 00
	00		 je	 $LN33@CalculateI

; 73   : 
; 74   : 	return Calculate(pIndicator, chartFormulateData, graphCalculateData, pIndicatorInfo);

  00127	8b 45 10	 mov	 eax, DWORD PTR _pIndicatorInfo$[ebp]
  0012a	8b 00		 mov	 eax, DWORD PTR [eax]
  0012c	89 45 e0	 mov	 DWORD PTR _pIndicatorInfo$1$[ebp], eax

; 128  : 	CPacketList* pPacketList = chartFormulateData.GetPacketList();

  0012f	8b 47 20	 mov	 eax, DWORD PTR [edi+32]
  00132	89 45 10	 mov	 DWORD PTR _pPacketList$1$[ebp], eax

; 129  : 	if(pPacketList == NULL)

  00135	85 c0		 test	 eax, eax
  00137	75 13		 jne	 SHORT $LN40@CalculateI
; File C:\Program Files (x86)\Microsoft Visual Studio\2019\Community\VC\Tools\MSVC\14.29.30133\atlmfc\include\atltypes.h

; 424  : 	x = (short)LOWORD(dwPoint);

  00139	c7 45 d0 ff ff
	ff ff		 mov	 DWORD PTR $T4[ebp], -1

; 425  : 	y = (short)HIWORD(dwPoint);

  00140	c7 45 d4 ff ff
	ff ff		 mov	 DWORD PTR $T4[ebp+4], -1
; File D:\git\src\IBK\IBK_DRFN\ProjSrc\SrcChartEx\ChartOCX\ChartFormulate\MainChartFormulateImplementation.cpp

; 130  : 		return (-1, -1);

  00147	e9 a9 00 00 00	 jmp	 $LN39@CalculateI
$LN40@CalculateI:

; 131  : 
; 132  : 	CPoint point = pPacketList->GetUpdateRange();

  0014c	8d 4d c8	 lea	 ecx, DWORD PTR _point$2[ebp]
  0014f	51		 push	 ecx
  00150	8b c8		 mov	 ecx, eax
  00152	ff 15 00 00 00
	00		 call	 DWORD PTR __imp_?GetUpdateRange@CPacketList@@QAE?AVCPoint@@XZ

; 133  : 	CCalculateBaseData::CALCULATETYPE timetype = chartFormulateData.GetCalculateType();

  00158	8b 07		 mov	 eax, DWORD PTR [edi]

; 134  : 	if(timetype == CCalculateBaseData::REALDATA_CAL) 

  0015a	83 f8 01	 cmp	 eax, 1
  0015d	75 67		 jne	 SHORT $LN41@CalculateI

; 161  : 	if(pGraphCalculateData->GetCount() < 0)

  0015f	8b ce		 mov	 ecx, esi
  00161	e8 00 00 00 00	 call	 ?GetCount@CGraphCalculateData@@QBEHXZ ; CGraphCalculateData::GetCount
  00166	85 c0		 test	 eax, eax
  00168	78 7f		 js	 SHORT $LN118@CalculateI

; 162  : 		return ;
; 163  : // vntsorl:[0003431] [7111]차트화면에서의 조회속도가 구차트에 비해 늦어 개선 요구
; 164  : 	CSubGraphPacketList* pSubGraphList = NULL;
; 165  : 
; 166  : 	// (2010/6/8 - Seung-Won, Bae) Retrieve the first visible SubGrpah Index to check last calculation.
; 167  : 	CIndicator *pIndicator = pGraphCalculateData->GetIndicator();

  0016a	8b 46 20	 mov	 eax, DWORD PTR [esi+32]
  0016d	8b 08		 mov	 ecx, DWORD PTR [eax]

; 168  : 	if( pIndicator) switch( pIndicator->GetID())

  0016f	85 c9		 test	 ecx, ecx
  00171	74 1e		 je	 SHORT $LN114@CalculateI
  00173	8b 41 04	 mov	 eax, DWORD PTR [ecx+4]
  00176	83 e8 01	 sub	 eax, 1
  00179	74 05		 je	 SHORT $LN54@CalculateI
  0017b	83 e8 02	 sub	 eax, 2
  0017e	75 11		 jne	 SHORT $LN114@CalculateI
$LN54@CalculateI:

; 169  : 	{
; 170  : 		case IMetaTable::EDDC_OCX_PRICEMACHART:
; 171  : 		case IMetaTable::EDDC_OCX_VOLUMEMACHART:
; 172  : 			pSubGraphList = pGraphCalculateData->GetAt( ( ( CMA *)pIndicator)->GetFirstVisibleSubGraph());

  00180	ff b1 cc 06 00
	00		 push	 DWORD PTR [ecx+1740]
  00186	8b ce		 mov	 ecx, esi
  00188	e8 00 00 00 00	 call	 ?GetAt@CGraphCalculateData@@QAEPAVCSubGraphPacketList@@H@Z ; CGraphCalculateData::GetAt

; 173  : 			break;
; 174  : 	}
; 175  : 
; 176  : 	if( !pSubGraphList) pSubGraphList = pGraphCalculateData->GetHead();

  0018d	85 c0		 test	 eax, eax
  0018f	75 0b		 jne	 SHORT $LN116@CalculateI
$LN114@CalculateI:
  00191	8b ce		 mov	 ecx, esi
  00193	e8 00 00 00 00	 call	 ?GetHead@CGraphCalculateData@@QAEPAVCSubGraphPacketList@@XZ ; CGraphCalculateData::GetHead

; 177  : 
; 178  : 	CPacket* pPacket = NULL;
; 179  : 	if( pSubGraphList) pPacket = pSubGraphList->GetHeadPacket();

  00198	85 c0		 test	 eax, eax
  0019a	74 3a		 je	 SHORT $LN44@CalculateI
$LN116@CalculateI:
  0019c	8b c8		 mov	 ecx, eax
  0019e	e8 00 00 00 00	 call	 ?GetHeadPacket@CSubGraphPacketList@@QAEPAVCPacket@@XZ ; CSubGraphPacketList::GetHeadPacket
  001a3	8b d8		 mov	 ebx, eax

; 180  : 	if(pPacket == NULL || pPacket->GetCount() <= 0)

  001a5	85 db		 test	 ebx, ebx
  001a7	74 2d		 je	 SHORT $LN44@CalculateI
  001a9	8b 13		 mov	 edx, DWORD PTR [ebx]
  001ab	8b cb		 mov	 ecx, ebx
  001ad	ff 52 14	 call	 DWORD PTR [edx+20]
  001b0	85 c0		 test	 eax, eax
  001b2	7e 22		 jle	 SHORT $LN44@CalculateI

; 181  : 	{
; 182  : 		point.x = 0;
; 183  : 		point.y = pPacketList->GetMaxCount();
; 184  : 	}
; 185  : 	//그림이 그려지고 있지 않았을때 실시간으로 받았던 Data는 계산이 되지 않는다.
; 186  : 	//다시 화면을 띄웠을때 계산되지 않았던 영역은 계산하라고 넘어오지 않는다.
; 187  : 	//여기서 계산되지 않았던 영역을 계산하기 위해 계산해야 할 영역을 다시 잡는다.
; 188  : 	else if(pPacket != NULL) {
; 189  : 		int nCalculatedDataCount = pPacket->GetCount();

  001b4	8b 03		 mov	 eax, DWORD PTR [ebx]
  001b6	8b cb		 mov	 ecx, ebx
  001b8	ff 50 14	 call	 DWORD PTR [eax+20]

; 190  : 		if(nCalculatedDataCount != point.x)

  001bb	3b 45 c8	 cmp	 eax, DWORD PTR _point$2[ebp]
  001be	74 29		 je	 SHORT $LN118@CalculateI

; 191  : 			point.x = (nCalculatedDataCount - 1);

  001c0	48		 dec	 eax
  001c1	89 45 c8	 mov	 DWORD PTR _point$2[ebp], eax
  001c4	eb 23		 jmp	 SHORT $LN118@CalculateI
$LN41@CalculateI:

; 137  : 		|| timetype == CCalculateBaseData::SCROLL_CAL)

  001c6	85 c0		 test	 eax, eax
  001c8	75 07		 jne	 SHORT $LN45@CalculateI
  001ca	39 45 c8	 cmp	 DWORD PTR _point$2[ebp], eax
  001cd	75 07		 jne	 SHORT $LN44@CalculateI
  001cf	eb 18		 jmp	 SHORT $LN118@CalculateI
$LN45@CalculateI:
  001d1	83 f8 02	 cmp	 eax, 2
  001d4	75 13		 jne	 SHORT $LN118@CalculateI
$LN44@CalculateI:

; 138  : 	{
; 139  : 		point.x = 0;
; 140  : 		point.y = pPacketList->GetMaxCount();
; 141  : 	}
; 142  : 
; 143  : 	//InsertType은 new인데 숨김으로 체크되어있던 Graph가 숨겨져 있을동안에 받은 Data를 계산하고 저장하기 위해서는 
; 144  : 	//중간에서 계산하게 하고 싶어도 계산되지 않은 영역이 Insert인지 Append 인지 알수가 없기 때문에 
; 145  : 	//처음부터 계산할수 밖에 없군.
; 146  : 	//첨부터 다시 계산해야 한다. 계산후 저장할때 packet이 가지고 있는 Insert 타입은 New이기 때문이징..
; 147  : 	//매매리포트, 시스템 트레이더를 위한 영역.
; 148  : /*	if(point.x == -1 || point.y == -1 || bSaveFlag == false) {
; 149  : //		CDataList* pDataList = ptrDataList.GetAt(ptrDataList.FindIndex(0));
; 150  : 		CDataList* pDataList = ptrDataList.GetHead();
; 151  : 		point.x = 0;
; 152  : 		point.y = pDataList->GetCount();
; 153  : 	}*/
; 154  : 	return point;

  001d6	8b 4d 10	 mov	 ecx, DWORD PTR _pPacketList$1$[ebp]
  001d9	c7 45 c8 00 00
	00 00		 mov	 DWORD PTR _point$2[ebp], 0
  001e0	ff 15 00 00 00
	00		 call	 DWORD PTR __imp_?GetMaxCount@CPacketList@@QAEHXZ
  001e6	89 45 cc	 mov	 DWORD PTR _point$2[ebp+4], eax
$LN118@CalculateI:
  001e9	8b 45 c8	 mov	 eax, DWORD PTR _point$2[ebp]
  001ec	8b 4d cc	 mov	 ecx, DWORD PTR _point$2[ebp+4]
  001ef	89 45 d0	 mov	 DWORD PTR $T4[ebp], eax
  001f2	89 4d d4	 mov	 DWORD PTR $T4[ebp+4], ecx
$LN39@CalculateI:

; 83   : 	m_CalculateData.SetPoint(GetDataPoint(chartFormulateData, graphCalculateData));

  001f5	8b 5d ec	 mov	 ebx, DWORD PTR _this$1$[ebp]
  001f8	8d 45 d0	 lea	 eax, DWORD PTR $T4[ebp]
  001fb	83 c3 04	 add	 ebx, 4
  001fe	50		 push	 eax
  001ff	8b cb		 mov	 ecx, ebx
  00201	e8 00 00 00 00	 call	 ?SetPoint@CCalculateData@@QAEXABVCPoint@@@Z ; CCalculateData::SetPoint

; 84   : 	if(m_CalculateData.GetPoint().x < 0)

  00206	8d 45 c8	 lea	 eax, DWORD PTR $T3[ebp]
  00209	8b cb		 mov	 ecx, ebx
  0020b	50		 push	 eax
  0020c	e8 00 00 00 00	 call	 ?GetPoint@CCalculateData@@QBE?AVCPoint@@XZ ; CCalculateData::GetPoint
  00211	83 38 00	 cmp	 DWORD PTR [eax], 0
  00214	0f 8c 7f 01 00
	00		 jl	 $LN3@CalculateI

; 87   : 	if(IsCalculateSubGraph( chartFormulateData.GetIndicatorName()))

  0021a	ff 77 08	 push	 DWORD PTR [edi+8]
  0021d	8d 4d f0	 lea	 ecx, DWORD PTR $T8[ebp]
  00220	ff 15 00 00 00
	00		 call	 DWORD PTR __imp_??0?$CStringT@DV?$StrTraitMFC_DLL@DV?$ChTraitsCRT@D@ATL@@@@@ATL@@QAE@PBD@Z
; File C:\Program Files (x86)\Microsoft Visual Studio\2019\Community\VC\Tools\MSVC\14.29.30133\atlmfc\include\atlsimpstr.h

; 519  : 		return( GetData()->nDataLength );

  00226	8b 45 f0	 mov	 eax, DWORD PTR $T8[ebp]
; File D:\git\src\IBK\IBK_DRFN\ProjSrc\SrcChartEx\ChartOCX\ChartFormulate\MainChartFormulateImplementation.cpp

; 87   : 	if(IsCalculateSubGraph( chartFormulateData.GetIndicatorName()))

  00229	c6 45 fc 02	 mov	 BYTE PTR __$EHRec$[ebp+8], 2
; File C:\Program Files (x86)\Microsoft Visual Studio\2019\Community\VC\Tools\MSVC\14.29.30133\atlmfc\include\atlsimpstr.h

; 533  : 		return( GetLength() == 0 );

  0022d	83 78 f4 00	 cmp	 DWORD PTR [eax-12], 0
; File D:\git\src\IBK\IBK_DRFN\ProjSrc\SrcChartEx\ChartOCX\ChartFormulate\MainChartFormulateImplementation.cpp

; 262  : 	if( strIndicatorName.IsEmpty()) return false;

  00231	75 06		 jne	 SHORT $LN65@CalculateI
  00233	c6 45 13 00	 mov	 BYTE PTR $T11[ebp], 0
  00237	eb 38		 jmp	 SHORT $LN68@CalculateI
$LN65@CalculateI:

; 264  : 	return (strIndicatorName == _MTEXT( C2_PRICE_MA) || strIndicatorName == _MTEXT( C2_VOLUME_MA));

  00239	a1 54 00 00 00	 mov	 eax, DWORD PTR ?g_iMetaTable@@3VIMetaTable@@A+84
; File C:\Program Files (x86)\Microsoft Visual Studio\2019\Community\VC\Tools\MSVC\14.29.30133\atlmfc\include\cstringt.h

; 2486 : 		return(str1.Compare(psz2) == 0);

  0023e	8d 4d f0	 lea	 ecx, DWORD PTR $T8[ebp]
  00241	ff b0 20 03 00
	00		 push	 DWORD PTR [eax+800]
  00247	ff 15 00 00 00
	00		 call	 DWORD PTR __imp_?Compare@?$CStringT@DV?$StrTraitMFC_DLL@DV?$ChTraitsCRT@D@ATL@@@@@ATL@@QBEHPBD@Z
  0024d	85 c0		 test	 eax, eax
; File D:\git\src\IBK\IBK_DRFN\ProjSrc\SrcChartEx\ChartOCX\ChartFormulate\MainChartFormulateImplementation.cpp

; 264  : 	return (strIndicatorName == _MTEXT( C2_PRICE_MA) || strIndicatorName == _MTEXT( C2_VOLUME_MA));

  0024f	74 1c		 je	 SHORT $LN67@CalculateI
  00251	a1 54 00 00 00	 mov	 eax, DWORD PTR ?g_iMetaTable@@3VIMetaTable@@A+84
; File C:\Program Files (x86)\Microsoft Visual Studio\2019\Community\VC\Tools\MSVC\14.29.30133\atlmfc\include\cstringt.h

; 2486 : 		return(str1.Compare(psz2) == 0);

  00256	8d 4d f0	 lea	 ecx, DWORD PTR $T8[ebp]
  00259	ff b0 24 03 00
	00		 push	 DWORD PTR [eax+804]
  0025f	ff 15 00 00 00
	00		 call	 DWORD PTR __imp_?Compare@?$CStringT@DV?$StrTraitMFC_DLL@DV?$ChTraitsCRT@D@ATL@@@@@ATL@@QBEHPBD@Z
; File D:\git\src\IBK\IBK_DRFN\ProjSrc\SrcChartEx\ChartOCX\ChartFormulate\MainChartFormulateImplementation.cpp

; 264  : 	return (strIndicatorName == _MTEXT( C2_PRICE_MA) || strIndicatorName == _MTEXT( C2_VOLUME_MA));

  00265	c6 45 13 00	 mov	 BYTE PTR $T11[ebp], 0
; File C:\Program Files (x86)\Microsoft Visual Studio\2019\Community\VC\Tools\MSVC\14.29.30133\atlmfc\include\cstringt.h

; 2486 : 		return(str1.Compare(psz2) == 0);

  00269	85 c0		 test	 eax, eax
; File D:\git\src\IBK\IBK_DRFN\ProjSrc\SrcChartEx\ChartOCX\ChartFormulate\MainChartFormulateImplementation.cpp

; 264  : 	return (strIndicatorName == _MTEXT( C2_PRICE_MA) || strIndicatorName == _MTEXT( C2_VOLUME_MA));

  0026b	75 04		 jne	 SHORT $LN68@CalculateI
$LN67@CalculateI:
  0026d	c6 45 13 01	 mov	 BYTE PTR $T11[ebp], 1
$LN68@CalculateI:

; 87   : 	if(IsCalculateSubGraph( chartFormulateData.GetIndicatorName()))

  00271	8d 4d f0	 lea	 ecx, DWORD PTR $T8[ebp]
  00274	c6 45 fc 01	 mov	 BYTE PTR __$EHRec$[ebp+8], 1
  00278	ff 15 00 00 00
	00		 call	 DWORD PTR __imp_??1?$CStringT@DV?$StrTraitMFC_DLL@DV?$ChTraitsCRT@D@ATL@@@@@ATL@@QAE@XZ
  0027e	80 7d 13 00	 cmp	 BYTE PTR $T11[ebp], 0
  00282	8b 45 e0	 mov	 eax, DWORD PTR _pIndicatorInfo$1$[ebp]
  00285	0f 84 38 01 00
	00		 je	 $LN36@CalculateI

; 111  : 	int nCount = CDataConversion::GetStringDataCount(chartFormulateData.GetSubGraphNames(), ",");

  0028b	68 00 00 00 00	 push	 OFFSET ??_C@_01IHBHIGKO@?0@
  00290	8d 4d e0	 lea	 ecx, DWORD PTR $T5[ebp]

; 88   : 		return Calculate_SubGraph(pIndicator, chartFormulateData, graphCalculateData, pIndicatorInfo);

  00293	89 45 d4	 mov	 DWORD PTR _pIndicatorInfo$[ebp], eax

; 111  : 	int nCount = CDataConversion::GetStringDataCount(chartFormulateData.GetSubGraphNames(), ",");

  00296	ff 15 00 00 00
	00		 call	 DWORD PTR __imp_??0?$CStringT@DV?$StrTraitMFC_DLL@DV?$ChTraitsCRT@D@ATL@@@@@ATL@@QAE@PBD@Z
; File D:\git\src\IBK\IBK_DRFN\ProjSrc\SrcChartEx\ChartOCX\Include_Chart\ChartFormulateData.h

; 64   : 	CString		GetSubGraphNames( void) const							{	return m_strSubGraphNames;				}

  0029c	8d 77 10	 lea	 esi, DWORD PTR [edi+16]
; File D:\git\src\IBK\IBK_DRFN\ProjSrc\SrcChartEx\ChartOCX\ChartFormulate\MainChartFormulateImplementation.cpp

; 111  : 	int nCount = CDataConversion::GetStringDataCount(chartFormulateData.GetSubGraphNames(), ",");

  0029f	c6 45 fc 03	 mov	 BYTE PTR __$EHRec$[ebp+8], 3
; File D:\git\src\IBK\IBK_DRFN\ProjSrc\SrcChartEx\ChartOCX\Include_Chart\ChartFormulateData.h

; 64   : 	CString		GetSubGraphNames( void) const							{	return m_strSubGraphNames;				}

  002a3	56		 push	 esi
  002a4	8d 4d e4	 lea	 ecx, DWORD PTR $T6[ebp]
  002a7	ff 15 00 00 00
	00		 call	 DWORD PTR __imp_??0?$CStringT@DV?$StrTraitMFC_DLL@DV?$ChTraitsCRT@D@ATL@@@@@ATL@@QAE@ABV01@@Z
; File D:\git\src\IBK\IBK_DRFN\ProjSrc\SrcChartEx\ChartOCX\ChartFormulate\MainChartFormulateImplementation.cpp

; 111  : 	int nCount = CDataConversion::GetStringDataCount(chartFormulateData.GetSubGraphNames(), ",");

  002ad	8d 45 e0	 lea	 eax, DWORD PTR $T5[ebp]
  002b0	c6 45 fc 04	 mov	 BYTE PTR __$EHRec$[ebp+8], 4
  002b4	50		 push	 eax
  002b5	8d 45 e4	 lea	 eax, DWORD PTR $T6[ebp]
  002b8	50		 push	 eax
  002b9	e8 00 00 00 00	 call	 ?GetStringDataCount@CDataConversion@@SAHABV?$CStringT@DV?$StrTraitMFC_DLL@DV?$ChTraitsCRT@D@ATL@@@@@ATL@@0@Z ; CDataConversion::GetStringDataCount
  002be	83 c4 08	 add	 esp, 8
  002c1	8d 4d e4	 lea	 ecx, DWORD PTR $T6[ebp]
  002c4	8b d8		 mov	 ebx, eax
  002c6	89 5d cc	 mov	 DWORD PTR _nCount$1$[ebp], ebx
  002c9	ff 15 00 00 00
	00		 call	 DWORD PTR __imp_??1?$CStringT@DV?$StrTraitMFC_DLL@DV?$ChTraitsCRT@D@ATL@@@@@ATL@@QAE@XZ
  002cf	8d 4d e0	 lea	 ecx, DWORD PTR $T5[ebp]
  002d2	c6 45 fc 01	 mov	 BYTE PTR __$EHRec$[ebp+8], 1
  002d6	ff 15 00 00 00
	00		 call	 DWORD PTR __imp_??1?$CStringT@DV?$StrTraitMFC_DLL@DV?$ChTraitsCRT@D@ATL@@@@@ATL@@QAE@XZ

; 112  : 	if(nCount <= 0)

  002dc	85 db		 test	 ebx, ebx
  002de	0f 8e b5 00 00
	00		 jle	 $LN3@CalculateI
; File D:\git\src\IBK\IBK_DRFN\ProjSrc\SrcChartEx\ChartOCX\Include_Chart\ChartFormulateData.h

; 64   : 	CString		GetSubGraphNames( void) const							{	return m_strSubGraphNames;				}

  002e4	56		 push	 esi
  002e5	8d 4d f0	 lea	 ecx, DWORD PTR _strSubGraphNames$7[ebp]
  002e8	ff 15 00 00 00
	00		 call	 DWORD PTR __imp_??0?$CStringT@DV?$StrTraitMFC_DLL@DV?$ChTraitsCRT@D@ATL@@@@@ATL@@QAE@ABV01@@Z
  002ee	8b 5d 0c	 mov	 ebx, DWORD PTR _graphCalculateData$[ebp]
; File D:\git\src\IBK\IBK_DRFN\ProjSrc\SrcChartEx\ChartOCX\ChartFormulate\MainChartFormulateImplementation.cpp

; 116  : 	for(int nIndex = 0 ; nIndex < nCount; nIndex++){

  002f1	33 f6		 xor	 esi, esi
  002f3	c6 45 fc 05	 mov	 BYTE PTR __$EHRec$[ebp+8], 5
  002f7	66 0f 1f 84 00
	00 00 00 00	 npad	 9
$LL82@CalculateI:

; 117  : 		CString strSubGraphName = CDataConversion::GetStringData(strSubGraphNames, ",");

  00300	68 00 00 00 00	 push	 OFFSET ??_C@_01IHBHIGKO@?0@
  00305	8d 4d 0c	 lea	 ecx, DWORD PTR $T9[ebp]
  00308	ff 15 00 00 00
	00		 call	 DWORD PTR __imp_??0?$CStringT@DV?$StrTraitMFC_DLL@DV?$ChTraitsCRT@D@ATL@@@@@ATL@@QAE@PBD@Z
  0030e	6a 01		 push	 1
  00310	8d 45 0c	 lea	 eax, DWORD PTR $T9[ebp]
  00313	c6 45 fc 06	 mov	 BYTE PTR __$EHRec$[ebp+8], 6
  00317	50		 push	 eax
  00318	8d 45 f0	 lea	 eax, DWORD PTR _strSubGraphNames$7[ebp]
  0031b	50		 push	 eax
  0031c	8d 45 10	 lea	 eax, DWORD PTR _strSubGraphName$10[ebp]
  0031f	50		 push	 eax
  00320	e8 00 00 00 00	 call	 ?GetStringData@CDataConversion@@SA?AV?$CStringT@DV?$StrTraitMFC_DLL@DV?$ChTraitsCRT@D@ATL@@@@@ATL@@AAV23@ABV23@_N@Z ; CDataConversion::GetStringData
  00325	83 c4 10	 add	 esp, 16			; 00000010H
  00328	8d 4d 0c	 lea	 ecx, DWORD PTR $T9[ebp]
  0032b	c6 45 fc 08	 mov	 BYTE PTR __$EHRec$[ebp+8], 8
  0032f	ff 15 00 00 00
	00		 call	 DWORD PTR __imp_??1?$CStringT@DV?$StrTraitMFC_DLL@DV?$ChTraitsCRT@D@ATL@@@@@ATL@@QAE@XZ
; File C:\Program Files (x86)\Microsoft Visual Studio\2019\Community\VC\Tools\MSVC\14.29.30133\atlmfc\include\atlsimpstr.h

; 519  : 		return( GetData()->nDataLength );

  00335	8b 45 10	 mov	 eax, DWORD PTR _strSubGraphName$10[ebp]

; 533  : 		return( GetLength() == 0 );

  00338	83 78 f4 00	 cmp	 DWORD PTR [eax-12], 0
; File D:\git\src\IBK\IBK_DRFN\ProjSrc\SrcChartEx\ChartOCX\ChartFormulate\MainChartFormulateImplementation.cpp

; 118  : 		if(strSubGraphName.IsEmpty())

  0033c	74 49		 je	 SHORT $LN109@CalculateI

; 120  : 		m_CalculateData.SetPacketNamesForSave(strSubGraphName);

  0033e	8b 4d ec	 mov	 ecx, DWORD PTR _this$1$[ebp]
  00341	8d 45 10	 lea	 eax, DWORD PTR _strSubGraphName$10[ebp]
  00344	50		 push	 eax
  00345	8d 49 04	 lea	 ecx, DWORD PTR [ecx+4]
  00348	e8 00 00 00 00	 call	 ?SetPacketNamesForSave@CCalculateData@@QAEXABV?$CStringT@DV?$StrTraitMFC_DLL@DV?$ChTraitsCRT@D@ATL@@@@@ATL@@@Z ; CCalculateData::SetPacketNamesForSave

; 121  : 		pIndicator->GetData(chartFormulateData, graphCalculateData, pIndicatorInfo, m_CalculateData);

  0034d	8b 4d ec	 mov	 ecx, DWORD PTR _this$1$[ebp]
  00350	8b 55 dc	 mov	 edx, DWORD PTR _pIndicator$1$[ebp]
  00353	83 c1 04	 add	 ecx, 4
  00356	8b 7d 08	 mov	 edi, DWORD PTR _chartFormulateData$[ebp]
  00359	51		 push	 ecx
  0035a	8d 4d d4	 lea	 ecx, DWORD PTR _pIndicatorInfo$[ebp]
  0035d	8b 02		 mov	 eax, DWORD PTR [edx]
  0035f	51		 push	 ecx
  00360	53		 push	 ebx
  00361	57		 push	 edi
  00362	8b ca		 mov	 ecx, edx
  00364	ff 50 04	 call	 DWORD PTR [eax+4]

; 122  : 	}

  00367	8d 4d 10	 lea	 ecx, DWORD PTR _strSubGraphName$10[ebp]
  0036a	c6 45 fc 05	 mov	 BYTE PTR __$EHRec$[ebp+8], 5
  0036e	ff 15 00 00 00
	00		 call	 DWORD PTR __imp_??1?$CStringT@DV?$StrTraitMFC_DLL@DV?$ChTraitsCRT@D@ATL@@@@@ATL@@QAE@XZ
  00374	46		 inc	 esi
  00375	3b 75 cc	 cmp	 esi, DWORD PTR _nCount$1$[ebp]
  00378	7c 86		 jl	 SHORT $LL82@CalculateI

; 123  : 	return true;

  0037a	8d 4d f0	 lea	 ecx, DWORD PTR _strSubGraphNames$7[ebp]
  0037d	ff 15 00 00 00
	00		 call	 DWORD PTR __imp_??1?$CStringT@DV?$StrTraitMFC_DLL@DV?$ChTraitsCRT@D@ATL@@@@@ATL@@QAE@XZ
  00383	b3 01		 mov	 bl, 1
  00385	eb 14		 jmp	 SHORT $LN33@CalculateI
$LN109@CalculateI:

; 119  : 			return false;

  00387	8d 4d 10	 lea	 ecx, DWORD PTR _strSubGraphName$10[ebp]
  0038a	ff 15 00 00 00
	00		 call	 DWORD PTR __imp_??1?$CStringT@DV?$StrTraitMFC_DLL@DV?$ChTraitsCRT@D@ATL@@@@@ATL@@QAE@XZ
  00390	8d 4d f0	 lea	 ecx, DWORD PTR _strSubGraphNames$7[ebp]
  00393	ff 15 00 00 00
	00		 call	 DWORD PTR __imp_??1?$CStringT@DV?$StrTraitMFC_DLL@DV?$ChTraitsCRT@D@ATL@@@@@ATL@@QAE@XZ
$LN3@CalculateI:

; 73   : 
; 74   : 	return Calculate(pIndicator, chartFormulateData, graphCalculateData, pIndicatorInfo);

  00399	32 db		 xor	 bl, bl
$LN33@CalculateI:
  0039b	8d 4d e8	 lea	 ecx, DWORD PTR _strIndicatorName$[ebp]
  0039e	ff 15 00 00 00
	00		 call	 DWORD PTR __imp_??1?$CStringT@DV?$StrTraitMFC_DLL@DV?$ChTraitsCRT@D@ATL@@@@@ATL@@QAE@XZ
  003a4	8d 4d d8	 lea	 ecx, DWORD PTR _strGraphName$[ebp]
  003a7	ff 15 00 00 00
	00		 call	 DWORD PTR __imp_??1?$CStringT@DV?$StrTraitMFC_DLL@DV?$ChTraitsCRT@D@ATL@@@@@ATL@@QAE@XZ
  003ad	8a c3		 mov	 al, bl

; 75   : }

  003af	8b 4d f4	 mov	 ecx, DWORD PTR __$EHRec$[ebp]
  003b2	64 89 0d 00 00
	00 00		 mov	 DWORD PTR fs:0, ecx
  003b9	59		 pop	 ecx
  003ba	5f		 pop	 edi
  003bb	5e		 pop	 esi
  003bc	5b		 pop	 ebx
  003bd	8b e5		 mov	 esp, ebp
  003bf	5d		 pop	 ebp
  003c0	c2 0c 00	 ret	 12			; 0000000cH
$LN36@CalculateI:

; 99   : 	pIndicator->GetData(chartFormulateData, graphCalculateData, pIndicatorInfo, m_CalculateData);

  003c3	8b 4d dc	 mov	 ecx, DWORD PTR _pIndicator$1$[ebp]
  003c6	8d 55 10	 lea	 edx, DWORD PTR _pIndicatorInfo$[ebp]
  003c9	53		 push	 ebx
  003ca	52		 push	 edx

; 90   : 	return Calculate_Graph(pIndicator, chartFormulateData, graphCalculateData, pIndicatorInfo);

  003cb	89 45 10	 mov	 DWORD PTR _pIndicatorInfo$[ebp], eax

; 99   : 	pIndicator->GetData(chartFormulateData, graphCalculateData, pIndicatorInfo, m_CalculateData);

  003ce	8b 01		 mov	 eax, DWORD PTR [ecx]
  003d0	56		 push	 esi
  003d1	57		 push	 edi
  003d2	ff 50 04	 call	 DWORD PTR [eax+4]

; 100  : 	if(graphCalculateData->GetCount() < 0)

  003d5	8b ce		 mov	 ecx, esi
  003d7	e8 00 00 00 00	 call	 ?GetCount@CGraphCalculateData@@QBEHXZ ; CGraphCalculateData::GetCount
  003dc	85 c0		 test	 eax, eax
  003de	78 b9		 js	 SHORT $LN3@CalculateI

; 101  : 		return false;
; 102  : 	return (graphCalculateData->GetHead()->GetHeadPacket() != NULL);

  003e0	8b ce		 mov	 ecx, esi
  003e2	e8 00 00 00 00	 call	 ?GetHead@CGraphCalculateData@@QAEPAVCSubGraphPacketList@@XZ ; CGraphCalculateData::GetHead
  003e7	8b c8		 mov	 ecx, eax
  003e9	e8 00 00 00 00	 call	 ?GetHeadPacket@CSubGraphPacketList@@QAEPAVCPacket@@XZ ; CSubGraphPacketList::GetHeadPacket
  003ee	85 c0		 test	 eax, eax
  003f0	0f 95 c3	 setne	 bl

; 90   : 	return Calculate_Graph(pIndicator, chartFormulateData, graphCalculateData, pIndicatorInfo);

  003f3	eb a6		 jmp	 SHORT $LN33@CalculateI
_TEXT	ENDS
;	COMDAT text$x
text$x	SEGMENT
__unwindfunclet$?CalculateIndicator@CMainChartFormulateImplementation@@QAE_NABVCChartFormulateData@@PAVCGraphCalculateData@@AAPAVCIndicatorInfo@@@Z$0:
  00000	8d 4d d8	 lea	 ecx, DWORD PTR _strGraphName$[ebp]
  00003	ff 25 00 00 00
	00		 jmp	 DWORD PTR __imp_??1?$CStringT@DV?$StrTraitMFC_DLL@DV?$ChTraitsCRT@D@ATL@@@@@ATL@@QAE@XZ
__unwindfunclet$?CalculateIndicator@CMainChartFormulateImplementation@@QAE_NABVCChartFormulateData@@PAVCGraphCalculateData@@AAPAVCIndicatorInfo@@@Z$1:
  00009	8d 4d e8	 lea	 ecx, DWORD PTR _strIndicatorName$[ebp]
  0000c	ff 25 00 00 00
	00		 jmp	 DWORD PTR __imp_??1?$CStringT@DV?$StrTraitMFC_DLL@DV?$ChTraitsCRT@D@ATL@@@@@ATL@@QAE@XZ
__unwindfunclet$?CalculateIndicator@CMainChartFormulateImplementation@@QAE_NABVCChartFormulateData@@PAVCGraphCalculateData@@AAPAVCIndicatorInfo@@@Z$3:
  00012	8d 4d f0	 lea	 ecx, DWORD PTR $T8[ebp]
  00015	ff 25 00 00 00
	00		 jmp	 DWORD PTR __imp_??1?$CStringT@DV?$StrTraitMFC_DLL@DV?$ChTraitsCRT@D@ATL@@@@@ATL@@QAE@XZ
__unwindfunclet$?CalculateIndicator@CMainChartFormulateImplementation@@QAE_NABVCChartFormulateData@@PAVCGraphCalculateData@@AAPAVCIndicatorInfo@@@Z$4:
  0001b	8d 4d e0	 lea	 ecx, DWORD PTR $T5[ebp]
  0001e	ff 25 00 00 00
	00		 jmp	 DWORD PTR __imp_??1?$CStringT@DV?$StrTraitMFC_DLL@DV?$ChTraitsCRT@D@ATL@@@@@ATL@@QAE@XZ
__unwindfunclet$?CalculateIndicator@CMainChartFormulateImplementation@@QAE_NABVCChartFormulateData@@PAVCGraphCalculateData@@AAPAVCIndicatorInfo@@@Z$5:
  00024	8d 4d e4	 lea	 ecx, DWORD PTR $T6[ebp]
  00027	ff 25 00 00 00
	00		 jmp	 DWORD PTR __imp_??1?$CStringT@DV?$StrTraitMFC_DLL@DV?$ChTraitsCRT@D@ATL@@@@@ATL@@QAE@XZ
__unwindfunclet$?CalculateIndicator@CMainChartFormulateImplementation@@QAE_NABVCChartFormulateData@@PAVCGraphCalculateData@@AAPAVCIndicatorInfo@@@Z$6:
  0002d	8d 4d f0	 lea	 ecx, DWORD PTR _strSubGraphNames$7[ebp]
  00030	ff 25 00 00 00
	00		 jmp	 DWORD PTR __imp_??1?$CStringT@DV?$StrTraitMFC_DLL@DV?$ChTraitsCRT@D@ATL@@@@@ATL@@QAE@XZ
__unwindfunclet$?CalculateIndicator@CMainChartFormulateImplementation@@QAE_NABVCChartFormulateData@@PAVCGraphCalculateData@@AAPAVCIndicatorInfo@@@Z$7:
  00036	8d 4d 0c	 lea	 ecx, DWORD PTR $T9[ebp]
  00039	ff 25 00 00 00
	00		 jmp	 DWORD PTR __imp_??1?$CStringT@DV?$StrTraitMFC_DLL@DV?$ChTraitsCRT@D@ATL@@@@@ATL@@QAE@XZ
__unwindfunclet$?CalculateIndicator@CMainChartFormulateImplementation@@QAE_NABVCChartFormulateData@@PAVCGraphCalculateData@@AAPAVCIndicatorInfo@@@Z$8:
  0003f	8d 4d 10	 lea	 ecx, DWORD PTR _strSubGraphName$10[ebp]
  00042	ff 25 00 00 00
	00		 jmp	 DWORD PTR __imp_??1?$CStringT@DV?$StrTraitMFC_DLL@DV?$ChTraitsCRT@D@ATL@@@@@ATL@@QAE@XZ
  00048	cc		 int	 3
  00049	cc		 int	 3
  0004a	cc		 int	 3
  0004b	cc		 int	 3
  0004c	cc		 int	 3
__ehhandler$?CalculateIndicator@CMainChartFormulateImplementation@@QAE_NABVCChartFormulateData@@PAVCGraphCalculateData@@AAPAVCIndicatorInfo@@@Z:
  0004d	90		 npad	 1
  0004e	90		 npad	 1
  0004f	8b 54 24 08	 mov	 edx, DWORD PTR [esp+8]
  00053	8d 42 0c	 lea	 eax, DWORD PTR [edx+12]
  00056	8b 4a c4	 mov	 ecx, DWORD PTR [edx-60]
  00059	33 c8		 xor	 ecx, eax
  0005b	e8 00 00 00 00	 call	 @__security_check_cookie@4
  00060	b8 00 00 00 00	 mov	 eax, OFFSET __ehfuncinfo$?CalculateIndicator@CMainChartFormulateImplementation@@QAE_NABVCChartFormulateData@@PAVCGraphCalculateData@@AAPAVCIndicatorInfo@@@Z
  00065	e9 00 00 00 00	 jmp	 ___CxxFrameHandler3
text$x	ENDS
?CalculateIndicator@CMainChartFormulateImplementation@@QAE_NABVCChartFormulateData@@PAVCGraphCalculateData@@AAPAVCIndicatorInfo@@@Z ENDP ; CMainChartFormulateImplementation::CalculateIndicator
; Function compile flags: /Ogtp
; File D:\git\src\IBK\IBK_DRFN\ProjSrc\SrcChartEx\ChartOCX\ChartFormulate\MainChartFormulateImplementation.cpp
;	COMDAT ??1CMainChartFormulateImplementation@@UAE@XZ
_TEXT	SEGMENT
??1CMainChartFormulateImplementation@@UAE@XZ PROC	; CMainChartFormulateImplementation::~CMainChartFormulateImplementation, COMDAT
; _this$ = ecx

; 37   : {

  00000	c7 01 00 00 00
	00		 mov	 DWORD PTR [ecx], OFFSET ??_7CMainChartFormulateImplementation@@6B@

; 38   : }

  00006	83 c1 04	 add	 ecx, 4
  00009	e9 00 00 00 00	 jmp	 ??1CCalculateData@@UAE@XZ ; CCalculateData::~CCalculateData
??1CMainChartFormulateImplementation@@UAE@XZ ENDP	; CMainChartFormulateImplementation::~CMainChartFormulateImplementation
_TEXT	ENDS
; Function compile flags: /Ogtp
; File D:\git\src\IBK\IBK_DRFN\ProjSrc\SrcChartEx\ChartOCX\ChartFormulate\MainChartFormulateImplementation.cpp
;	COMDAT ??0CMainChartFormulateImplementation@@QAE@XZ
_TEXT	SEGMENT
$T2 = -16						; size = 4
_this$ = -16						; size = 4
__$EHRec$ = -12						; size = 12
??0CMainChartFormulateImplementation@@QAE@XZ PROC	; CMainChartFormulateImplementation::CMainChartFormulateImplementation, COMDAT
; _this$ = ecx

; 33   : {

  00000	55		 push	 ebp
  00001	8b ec		 mov	 ebp, esp
  00003	6a ff		 push	 -1
  00005	68 00 00 00 00	 push	 __ehhandler$??0CMainChartFormulateImplementation@@QAE@XZ
  0000a	64 a1 00 00 00
	00		 mov	 eax, DWORD PTR fs:0
  00010	50		 push	 eax
  00011	51		 push	 ecx
  00012	56		 push	 esi
  00013	a1 00 00 00 00	 mov	 eax, DWORD PTR ___security_cookie
  00018	33 c5		 xor	 eax, ebp
  0001a	50		 push	 eax
  0001b	8d 45 f4	 lea	 eax, DWORD PTR __$EHRec$[ebp]
  0001e	64 a3 00 00 00
	00		 mov	 DWORD PTR fs:0, eax
  00024	8b f1		 mov	 esi, ecx
  00026	89 75 f0	 mov	 DWORD PTR _this$[ebp], esi
  00029	68 00 00 00 00	 push	 OFFSET ??_C@_00CNPNBAHC@@
  0002e	8d 4d f0	 lea	 ecx, DWORD PTR $T2[ebp]
  00031	c7 06 00 00 00
	00		 mov	 DWORD PTR [esi], OFFSET ??_7CMainChartFormulateImplementation@@6B@
  00037	ff 15 00 00 00
	00		 call	 DWORD PTR __imp_??0?$CStringT@DV?$StrTraitMFC_DLL@DV?$ChTraitsCRT@D@ATL@@@@@ATL@@QAE@PBD@Z
  0003d	6a 00		 push	 0
  0003f	8d 45 f0	 lea	 eax, DWORD PTR $T2[ebp]
  00042	c7 45 fc 00 00
	00 00		 mov	 DWORD PTR __$EHRec$[ebp+8], 0
  00049	50		 push	 eax
  0004a	8d 4e 04	 lea	 ecx, DWORD PTR [esi+4]
  0004d	e8 00 00 00 00	 call	 ??0CCalculateData@@QAE@ABV?$CStringT@DV?$StrTraitMFC_DLL@DV?$ChTraitsCRT@D@ATL@@@@@ATL@@PAVCIndicatorInfo@@@Z ; CCalculateData::CCalculateData
  00052	8d 4d f0	 lea	 ecx, DWORD PTR $T2[ebp]
  00055	ff 15 00 00 00
	00		 call	 DWORD PTR __imp_??1?$CStringT@DV?$StrTraitMFC_DLL@DV?$ChTraitsCRT@D@ATL@@@@@ATL@@QAE@XZ

; 34   : }

  0005b	8b c6		 mov	 eax, esi
  0005d	8b 4d f4	 mov	 ecx, DWORD PTR __$EHRec$[ebp]
  00060	64 89 0d 00 00
	00 00		 mov	 DWORD PTR fs:0, ecx
  00067	59		 pop	 ecx
  00068	5e		 pop	 esi
  00069	8b e5		 mov	 esp, ebp
  0006b	5d		 pop	 ebp
  0006c	c3		 ret	 0
_TEXT	ENDS
;	COMDAT text$x
text$x	SEGMENT
__unwindfunclet$??0CMainChartFormulateImplementation@@QAE@XZ$0:
  00000	8d 4d f0	 lea	 ecx, DWORD PTR $T2[ebp]
  00003	ff 25 00 00 00
	00		 jmp	 DWORD PTR __imp_??1?$CStringT@DV?$StrTraitMFC_DLL@DV?$ChTraitsCRT@D@ATL@@@@@ATL@@QAE@XZ
  00009	cc		 int	 3
  0000a	cc		 int	 3
  0000b	cc		 int	 3
  0000c	cc		 int	 3
  0000d	cc		 int	 3
__ehhandler$??0CMainChartFormulateImplementation@@QAE@XZ:
  0000e	90		 npad	 1
  0000f	90		 npad	 1
  00010	8b 54 24 08	 mov	 edx, DWORD PTR [esp+8]
  00014	8d 42 0c	 lea	 eax, DWORD PTR [edx+12]
  00017	8b 4a f4	 mov	 ecx, DWORD PTR [edx-12]
  0001a	33 c8		 xor	 ecx, eax
  0001c	e8 00 00 00 00	 call	 @__security_check_cookie@4
  00021	b8 00 00 00 00	 mov	 eax, OFFSET __ehfuncinfo$??0CMainChartFormulateImplementation@@QAE@XZ
  00026	e9 00 00 00 00	 jmp	 ___CxxFrameHandler3
text$x	ENDS
??0CMainChartFormulateImplementation@@QAE@XZ ENDP	; CMainChartFormulateImplementation::CMainChartFormulateImplementation
; Function compile flags: /Ogtp
;	COMDAT ??_ECIndicator@@UAEPAXI@Z
_TEXT	SEGMENT
__$EHRec$ = -12						; size = 12
___flags$ = 8						; size = 4
??_ECIndicator@@UAEPAXI@Z PROC				; CIndicator::`vector deleting destructor', COMDAT
; _this$ = ecx
  00000	55		 push	 ebp
  00001	8b ec		 mov	 ebp, esp
  00003	6a ff		 push	 -1
  00005	68 00 00 00 00	 push	 __ehhandler$??_ECIndicator@@UAEPAXI@Z
  0000a	64 a1 00 00 00
	00		 mov	 eax, DWORD PTR fs:0
  00010	50		 push	 eax
  00011	53		 push	 ebx
  00012	56		 push	 esi
  00013	57		 push	 edi
  00014	a1 00 00 00 00	 mov	 eax, DWORD PTR ___security_cookie
  00019	33 c5		 xor	 eax, ebp
  0001b	50		 push	 eax
  0001c	8d 45 f4	 lea	 eax, DWORD PTR __$EHRec$[ebp]
  0001f	64 a3 00 00 00
	00		 mov	 DWORD PTR fs:0, eax
  00025	8b f1		 mov	 esi, ecx
  00027	8b 45 08	 mov	 eax, DWORD PTR ___flags$[ebp]
  0002a	8b d8		 mov	 ebx, eax
  0002c	83 e3 01	 and	 ebx, 1
  0002f	a8 02		 test	 al, 2
  00031	74 40		 je	 SHORT $LN2@vector
  00033	68 00 00 00 00	 push	 OFFSET ??1CIndicator@@UAE@XZ ; CIndicator::~CIndicator
  00038	ff 76 fc	 push	 DWORD PTR [esi-4]
  0003b	8d 7e fc	 lea	 edi, DWORD PTR [esi-4]
  0003e	6a 08		 push	 8
  00040	56		 push	 esi
  00041	e8 00 00 00 00	 call	 ??_M@YGXPAXIIP6EX0@Z@Z
  00046	85 db		 test	 ebx, ebx
  00048	74 13		 je	 SHORT $LN3@vector
  0004a	8b 0f		 mov	 ecx, DWORD PTR [edi]
  0004c	8d 0c cd 04 00
	00 00		 lea	 ecx, DWORD PTR [ecx*8+4]
  00053	51		 push	 ecx
  00054	57		 push	 edi
  00055	e8 00 00 00 00	 call	 ??_V@YAXPAXI@Z		; operator delete[]
  0005a	83 c4 08	 add	 esp, 8
$LN3@vector:
  0005d	8b c7		 mov	 eax, edi
  0005f	8b 4d f4	 mov	 ecx, DWORD PTR __$EHRec$[ebp]
  00062	64 89 0d 00 00
	00 00		 mov	 DWORD PTR fs:0, ecx
  00069	59		 pop	 ecx
  0006a	5f		 pop	 edi
  0006b	5e		 pop	 esi
  0006c	5b		 pop	 ebx
  0006d	8b e5		 mov	 esp, ebp
  0006f	5d		 pop	 ebp
  00070	c2 04 00	 ret	 4
$LN2@vector:
  00073	e8 00 00 00 00	 call	 ??1CIndicator@@UAE@XZ	; CIndicator::~CIndicator
  00078	85 db		 test	 ebx, ebx
  0007a	74 0b		 je	 SHORT $LN4@vector
  0007c	6a 08		 push	 8
  0007e	56		 push	 esi
  0007f	e8 00 00 00 00	 call	 ??3@YAXPAXI@Z		; operator delete
  00084	83 c4 08	 add	 esp, 8
$LN4@vector:
  00087	8b c6		 mov	 eax, esi
  00089	8b 4d f4	 mov	 ecx, DWORD PTR __$EHRec$[ebp]
  0008c	64 89 0d 00 00
	00 00		 mov	 DWORD PTR fs:0, ecx
  00093	59		 pop	 ecx
  00094	5f		 pop	 edi
  00095	5e		 pop	 esi
  00096	5b		 pop	 ebx
  00097	8b e5		 mov	 esp, ebp
  00099	5d		 pop	 ebp
  0009a	c2 04 00	 ret	 4
  0009d	cc		 int	 3
  0009e	cc		 int	 3
  0009f	cc		 int	 3
  000a0	cc		 int	 3
  000a1	cc		 int	 3
_TEXT	ENDS
;	COMDAT text$x
text$x	SEGMENT
__ehhandler$??_ECIndicator@@UAEPAXI@Z:
  00000	90		 npad	 1
  00001	90		 npad	 1
  00002	8b 54 24 08	 mov	 edx, DWORD PTR [esp+8]
  00006	8d 42 0c	 lea	 eax, DWORD PTR [edx+12]
  00009	8b 4a f0	 mov	 ecx, DWORD PTR [edx-16]
  0000c	33 c8		 xor	 ecx, eax
  0000e	e8 00 00 00 00	 call	 @__security_check_cookie@4
  00013	b8 00 00 00 00	 mov	 eax, OFFSET __ehfuncinfo$??_ECIndicator@@UAEPAXI@Z
  00018	e9 00 00 00 00	 jmp	 ___CxxFrameHandler3
text$x	ENDS
??_ECIndicator@@UAEPAXI@Z ENDP				; CIndicator::`vector deleting destructor'
; Function compile flags: /Ogtp
;	COMDAT ??_GCIndicator@@UAEPAXI@Z
_TEXT	SEGMENT
___flags$ = 8						; size = 4
??_GCIndicator@@UAEPAXI@Z PROC				; CIndicator::`scalar deleting destructor', COMDAT
; _this$ = ecx
  00000	55		 push	 ebp
  00001	8b ec		 mov	 ebp, esp
  00003	56		 push	 esi
  00004	8b f1		 mov	 esi, ecx
  00006	e8 00 00 00 00	 call	 ??1CIndicator@@UAE@XZ	; CIndicator::~CIndicator
  0000b	f6 45 08 01	 test	 BYTE PTR ___flags$[ebp], 1
  0000f	74 0b		 je	 SHORT $LN4@scalar
  00011	6a 08		 push	 8
  00013	56		 push	 esi
  00014	e8 00 00 00 00	 call	 ??3@YAXPAXI@Z		; operator delete
  00019	83 c4 08	 add	 esp, 8
$LN4@scalar:
  0001c	8b c6		 mov	 eax, esi
  0001e	5e		 pop	 esi
  0001f	5d		 pop	 ebp
  00020	c2 04 00	 ret	 4
??_GCIndicator@@UAEPAXI@Z ENDP				; CIndicator::`scalar deleting destructor'
_TEXT	ENDS
; Function compile flags: /Ogtp
;	COMDAT ??4CIndicator@@QAEAAV0@ABV0@@Z
_TEXT	SEGMENT
___that$ = 8						; size = 4
??4CIndicator@@QAEAAV0@ABV0@@Z PROC			; CIndicator::operator=, COMDAT
; _this$ = ecx
  00000	55		 push	 ebp
  00001	8b ec		 mov	 ebp, esp
  00003	8b 45 08	 mov	 eax, DWORD PTR ___that$[ebp]
  00006	8b 40 04	 mov	 eax, DWORD PTR [eax+4]
  00009	89 41 04	 mov	 DWORD PTR [ecx+4], eax
  0000c	8b c1		 mov	 eax, ecx
  0000e	5d		 pop	 ebp
  0000f	c2 04 00	 ret	 4
??4CIndicator@@QAEAAV0@ABV0@@Z ENDP			; CIndicator::operator=
_TEXT	ENDS
; Function compile flags: /Ogtp
;	COMDAT ??0CIndicator@@QAE@ABV0@@Z
_TEXT	SEGMENT
___that$ = 8						; size = 4
??0CIndicator@@QAE@ABV0@@Z PROC				; CIndicator::CIndicator, COMDAT
; _this$ = ecx
  00000	55		 push	 ebp
  00001	8b ec		 mov	 ebp, esp
  00003	8b 45 08	 mov	 eax, DWORD PTR ___that$[ebp]
  00006	c7 01 00 00 00
	00		 mov	 DWORD PTR [ecx], OFFSET ??_7CIndicator@@6B@
  0000c	8b 40 04	 mov	 eax, DWORD PTR [eax+4]
  0000f	89 41 04	 mov	 DWORD PTR [ecx+4], eax
  00012	8b c1		 mov	 eax, ecx
  00014	5d		 pop	 ebp
  00015	c2 04 00	 ret	 4
??0CIndicator@@QAE@ABV0@@Z ENDP				; CIndicator::CIndicator
_TEXT	ENDS
; Function compile flags: /Ogtp
; File D:\git\src\IBK\IBK_DRFN\ProjSrc\SrcChartEx\ChartOCX\Include_Chart\Indicator.h
;	COMDAT ?GetID@CIndicator@@QAE?AW4EDDC_INDICATOR_ID@IMetaTable@@XZ
_TEXT	SEGMENT
?GetID@CIndicator@@QAE?AW4EDDC_INDICATOR_ID@IMetaTable@@XZ PROC ; CIndicator::GetID, COMDAT
; _this$ = ecx

; 48   : 	IMetaTable::EDDC_INDICATOR_ID GetID( void)			{	return m_eID;	}

  00000	8b 41 04	 mov	 eax, DWORD PTR [ecx+4]
  00003	c3		 ret	 0
?GetID@CIndicator@@QAE?AW4EDDC_INDICATOR_ID@IMetaTable@@XZ ENDP ; CIndicator::GetID
_TEXT	ENDS
; Function compile flags: /Ogtp
; File D:\git\src\IBK\IBK_DRFN\ProjSrc\SrcChartEx\ChartOCX\Include_Chart\Dll_Load\IMetaTable.h
;	COMDAT ?GetIndicatorID@IMetaTable@@QAEHPBD@Z
_TEXT	SEGMENT
_p1$ = 8						; size = 4
?GetIndicatorID@IMetaTable@@QAEHPBD@Z PROC		; IMetaTable::GetIndicatorID, COMDAT
; _this$ = ecx

; 957  : 	DECLARE_FUNCTION1(	GetIndicatorID,					int, -1, const char *);

  00000	55		 push	 ebp
  00001	8b ec		 mov	 ebp, esp
  00003	56		 push	 esi
  00004	8b f1		 mov	 esi, ecx
  00006	8b 46 04	 mov	 eax, DWORD PTR [esi+4]
  00009	85 c0		 test	 eax, eax
  0000b	74 4a		 je	 SHORT $LN4@GetIndicat
  0000d	57		 push	 edi
  0000e	bf 80 0d 00 00	 mov	 edi, 3456		; 00000d80H
  00013	66 3b be b0 00
	00 00		 cmp	 di, WORD PTR [esi+176]
  0001a	74 23		 je	 SHORT $LN3@GetIndicat
  0001c	68 00 00 00 00	 push	 OFFSET ??_C@_0P@FOFNMHJI@GetIndicatorID@
  00021	50		 push	 eax
  00022	c7 86 ac 00 00
	00 00 00 00 00	 mov	 DWORD PTR [esi+172], 0
  0002c	ff 15 00 00 00
	00		 call	 DWORD PTR __imp__GetProcAddress@8
  00032	89 86 ac 00 00
	00		 mov	 DWORD PTR [esi+172], eax
  00038	66 89 be b0 00
	00 00		 mov	 WORD PTR [esi+176], di
$LN3@GetIndicat:
  0003f	8b 86 ac 00 00
	00		 mov	 eax, DWORD PTR [esi+172]
  00045	5f		 pop	 edi
  00046	85 c0		 test	 eax, eax
  00048	74 0d		 je	 SHORT $LN4@GetIndicat
  0004a	ff 75 08	 push	 DWORD PTR _p1$[ebp]
  0004d	ff d0		 call	 eax
  0004f	83 c4 04	 add	 esp, 4
  00052	5e		 pop	 esi
  00053	5d		 pop	 ebp
  00054	c2 04 00	 ret	 4
$LN4@GetIndicat:
  00057	83 c8 ff	 or	 eax, -1
  0005a	5e		 pop	 esi
  0005b	5d		 pop	 ebp
  0005c	c2 04 00	 ret	 4
?GetIndicatorID@IMetaTable@@QAEHPBD@Z ENDP		; IMetaTable::GetIndicatorID
_TEXT	ENDS
; Function compile flags: /Ogtp
; File D:\git\src\IBK\IBK_DRFN\ProjSrc\SrcChartEx\ChartOCX\ChartFormulate\MainChartFormulateImplementation.cpp
;	COMDAT ?__empty_global_delete@@YAXPAXI@Z
_TEXT	SEGMENT
___formal$ = 8						; size = 4
___formal$ = 12						; size = 4
?__empty_global_delete@@YAXPAXI@Z PROC			; __empty_global_delete, COMDAT

  00000	c2 00 00	 ret	 0
?__empty_global_delete@@YAXPAXI@Z ENDP			; __empty_global_delete
_TEXT	ENDS
; Function compile flags: /Ogtp
; File D:\git\src\IBK\IBK_DRFN\ProjSrc\SrcChartEx\ChartOCX\ChartFormulate\MainChartFormulateImplementation.cpp
;	COMDAT ?__empty_global_delete@@YAXPAX@Z
_TEXT	SEGMENT
___formal$ = 8						; size = 4
?__empty_global_delete@@YAXPAX@Z PROC			; __empty_global_delete, COMDAT

  00000	c2 00 00	 ret	 0
?__empty_global_delete@@YAXPAX@Z ENDP			; __empty_global_delete
_TEXT	ENDS
END
