; Listing generated by Microsoft (R) Optimizing Compiler Version 19.29.30145.0 

	TITLE	D:\git\src\IBK\IBK_DRFN\#DRfn-CS\_Obj\ChartDesignPropertyAddIn\ChartDesignPropertyAddInImp.obj
	.686P
	.XMM
	include listing.inc
	.model	flat

INCLUDELIB MSVCRT
INCLUDELIB OLDNAMES

PUBLIC	??_C@_0BA@NDJIMHLM@DESIGN_PROPERTY@		; `string'
PUBLIC	??_C@_0CB@EFDCECKM@RMSG_EDITABLELISTCTRL_CELLEDITE@ ; `string'
PUBLIC	?m_eRegisteredEventMap@CChartDesignPropertyAddInImp@@1QBW4EAddInEventType@IChartAddIn134661@@B ; CChartDesignPropertyAddInImp::m_eRegisteredEventMap
CONST	SEGMENT
?m_eRegisteredEventMap@CChartDesignPropertyAddInImp@@1QBW4EAddInEventType@IChartAddIn134661@@B DD 014H ; CChartDesignPropertyAddInImp::m_eRegisteredEventMap
	DD	0dH
	DD	02cH
	ORG $+168
CONST	ENDS
;	COMDAT ??_C@_0CB@EFDCECKM@RMSG_EDITABLELISTCTRL_CELLEDITE@
CONST	SEGMENT
??_C@_0CB@EFDCECKM@RMSG_EDITABLELISTCTRL_CELLEDITE@ DB 'RMSG_EDITABLELIST'
	DB	'CTRL_CELLEDITED', 00H			; `string'
CONST	ENDS
;	COMDAT ??_C@_0BA@NDJIMHLM@DESIGN_PROPERTY@
CONST	SEGMENT
??_C@_0BA@NDJIMHLM@DESIGN_PROPERTY@ DB 'DESIGN_PROPERTY', 00H ; `string'
CONST	ENDS
PUBLIC	?__empty_global_delete@@YAXPAX@Z		; __empty_global_delete
PUBLIC	?__empty_global_delete@@YAXPAXI@Z		; __empty_global_delete
PUBLIC	??1CObject@@UAE@XZ				; CObject::~CObject
PUBLIC	?Serialize@CObject@@UAEXAAVCArchive@@@Z		; CObject::Serialize
PUBLIC	?AssertValid@CObject@@UBEXXZ			; CObject::AssertValid
PUBLIC	?Dump@CObject@@UBEXAAVCDumpContext@@@Z		; CObject::Dump
PUBLIC	??1CMenu@@UAE@XZ				; CMenu::~CMenu
PUBLIC	??_GCMenu@@UAEPAXI@Z				; CMenu::`scalar deleting destructor'
PUBLIC	?Create@CDialog@@UAEHIPAVCWnd@@@Z		; CDialog::Create
PUBLIC	?GetLocalLanguageTable@IMetaTable@@IAEPBDPAUHWND__@@@Z ; IMetaTable::GetLocalLanguageTable
PUBLIC	?LoadResourceDLL@IMetaTable@@QAEPAUHINSTANCE__@@PAUHWND__@@PAU2@@Z ; IMetaTable::LoadResourceDLL
PUBLIC	??1CMultiLanguageResourceSetter@@QAE@XZ		; CMultiLanguageResourceSetter::~CMultiLanguageResourceSetter
PUBLIC	?PostConstruct@CIWUnknown@@MAEXXZ		; CIWUnknown::PostConstruct
PUBLIC	?PreDestructX@CIWUnknown@@MAEXXZ		; CIWUnknown::PreDestructX
PUBLIC	?PreDestruct@CIWUnknown@@MAEXXZ			; CIWUnknown::PreDestruct
PUBLIC	?AddRef@CChartAddInBase134661@@MAGKXZ		; CChartAddInBase134661::AddRef
PUBLIC	?Release@CChartAddInBase134661@@MAGKXZ		; CChartAddInBase134661::Release
PUBLIC	?QueryInterface@CChartAddInBase134661@@MAGJABU_GUID@@PAPAX@Z ; CChartAddInBase134661::QueryInterface
PUBLIC	?GetAddInCustomInterface@CChartAddInBase134661@@MAEPAUIUnknown@@XZ ; CChartAddInBase134661::GetAddInCustomInterface
PUBLIC	?InvokeAddIn@CChartAddInBase134661@@MAEHHJ@Z	; CChartAddInBase134661::InvokeAddIn
PUBLIC	?InvokeAddInStr@CChartAddInBase134661@@MAEHPBD0@Z ; CChartAddInBase134661::InvokeAddInStr
PUBLIC	?GetGlobalAddInEventType@CChartAddInBase134661@@MBE?AW4EAddInEventType@IAddInDllBase@@J@Z ; CChartAddInBase134661::GetGlobalAddInEventType
PUBLIC	?OnGSharedDataChange@CChartAddInBase134661@@MAEXPBD0H@Z ; CChartAddInBase134661::OnGSharedDataChange
PUBLIC	?OnLSharedDataChange@CChartAddInBase134661@@MAEXPBD0@Z ; CChartAddInBase134661::OnLSharedDataChange
PUBLIC	?OnSharedDataChange@CChartAddInBase134661@@MAEXPBD0H@Z ; CChartAddInBase134661::OnSharedDataChange
PUBLIC	?OnResetChart@CChartAddInBase134661@@MAEXXZ	; CChartAddInBase134661::OnResetChart
PUBLIC	?OnDrawBeforeGraph@CChartAddInBase134661@@MAEXPAVCDC@@@Z ; CChartAddInBase134661::OnDrawBeforeGraph
PUBLIC	?OnDrawAfterGraph@CChartAddInBase134661@@MAEXPAVCDC@@@Z ; CChartAddInBase134661::OnDrawAfterGraph
PUBLIC	?OnPacketData@CChartAddInBase134661@@MAEXPBDH@Z	; CChartAddInBase134661::OnPacketData
PUBLIC	?OnUpdatePacketData@CChartAddInBase134661@@MAEXH@Z ; CChartAddInBase134661::OnUpdatePacketData
PUBLIC	?OnTimer@CChartAddInBase134661@@MAEXI@Z		; CChartAddInBase134661::OnTimer
PUBLIC	?OnCaptureChanged@CChartAddInBase134661@@MAEXPAVCWnd@@@Z ; CChartAddInBase134661::OnCaptureChanged
PUBLIC	?OnDrdsData@CChartAddInBase134661@@MAEXIJ@Z	; CChartAddInBase134661::OnDrdsData
PUBLIC	?OnDrdsPacketEnd@CChartAddInBase134661@@MAEXIJ@Z ; CChartAddInBase134661::OnDrdsPacketEnd
PUBLIC	?OnRealData@CChartAddInBase134661@@MAEXGGPBDJN@Z ; CChartAddInBase134661::OnRealData
PUBLIC	?OnRealRedcordEnd@CChartAddInBase134661@@MAEXGPBD@Z ; CChartAddInBase134661::OnRealRedcordEnd
PUBLIC	?OnAddInToolCommand@CChartAddInBase134661@@MAEHW4EAICommandType@@@Z ; CChartAddInBase134661::OnAddInToolCommand
PUBLIC	?OnAddInToolCommand@CChartAddInBase134661@@MAEHW4EAICommandType@@PAVCDC@@IAAVCPoint@@K@Z ; CChartAddInBase134661::OnAddInToolCommand
PUBLIC	?OnAddInToolCommand@CChartAddInBase134661@@MAEHW4EAICommandType@@PBD@Z ; CChartAddInBase134661::OnAddInToolCommand
PUBLIC	?OnAddInToolCommand@CChartAddInBase134661@@MAEHW4EAICommandType@@PBDJ@Z ; CChartAddInBase134661::OnAddInToolCommand
PUBLIC	?OnAddInToolCommand@CChartAddInBase134661@@MAEHW4EAICommandType@@PBVCBlockBehaviorData@@@Z ; CChartAddInBase134661::OnAddInToolCommand
PUBLIC	?OnAddInToolCommand@CChartAddInBase134661@@MAEHW4EAICommandType@@PBVCStringList@@@Z ; CChartAddInBase134661::OnAddInToolCommand
PUBLIC	?OnAddInToolCommand@CChartAddInBase134661@@MAEHW4EAICommandType@@PBVCStyleData@@@Z ; CChartAddInBase134661::OnAddInToolCommand
PUBLIC	?OnAddInToolCommand@CChartAddInBase134661@@MAEHW4EAICommandType@@PBUIAddInDllBase@@@Z ; CChartAddInBase134661::OnAddInToolCommand
PUBLIC	?OnAddInToolCommand@CChartAddInBase134661@@MAEHW4EAICommandType@@J@Z ; CChartAddInBase134661::OnAddInToolCommand
PUBLIC	?OnAddInToolCommand@CChartAddInBase134661@@MAEHW4EAICommandType@@JPBD@Z ; CChartAddInBase134661::OnAddInToolCommand
PUBLIC	?OnAddInToolCommand@CChartAddInBase134661@@MAEHW4EAICommandType@@JPBD11@Z ; CChartAddInBase134661::OnAddInToolCommand
PUBLIC	?OnAddInToolCommand@CChartAddInBase134661@@MAEHW4EAICommandType@@JJ@Z ; CChartAddInBase134661::OnAddInToolCommand
PUBLIC	?OnAddInToolCommand@CChartAddInBase134661@@MAEHW4EAICommandType@@JJJJJJJJJ@Z ; CChartAddInBase134661::OnAddInToolCommand
PUBLIC	?OnAddInToolCommand@CChartAddInBase134661@@MAEHAAJW4EAICommandType@@@Z ; CChartAddInBase134661::OnAddInToolCommand
PUBLIC	?OnAddInToolCommand@CChartAddInBase134661@@MAEHAAJW4EAICommandType@@PBD@Z ; CChartAddInBase134661::OnAddInToolCommand
PUBLIC	?OnAddInToolCommand@CChartAddInBase134661@@MAEHAAJW4EAICommandType@@PBDPAVCObject@@@Z ; CChartAddInBase134661::OnAddInToolCommand
PUBLIC	?OnAddInToolCommand@CChartAddInBase134661@@MAEHAAJW4EAICommandType@@J@Z ; CChartAddInBase134661::OnAddInToolCommand
PUBLIC	?OnAddInToolCommand@CChartAddInBase134661@@MAEHAAJW4EAICommandType@@JJ@Z ; CChartAddInBase134661::OnAddInToolCommand
PUBLIC	?OnKeyDown@CChartAddInBase134661@@MAEHIII@Z	; CChartAddInBase134661::OnKeyDown
PUBLIC	?OnKeyUp@CChartAddInBase134661@@MAEHIII@Z	; CChartAddInBase134661::OnKeyUp
PUBLIC	?OnMouseWheel@CChartAddInBase134661@@MAEHIFVCPoint@@K@Z ; CChartAddInBase134661::OnMouseWheel
PUBLIC	?OnMouseMove@CChartAddInBase134661@@MAEHPAVCDC@@IAAVCPoint@@K@Z ; CChartAddInBase134661::OnMouseMove
PUBLIC	?OnLButtonDown@CChartAddInBase134661@@MAEHPAVCDC@@IAAVCPoint@@K@Z ; CChartAddInBase134661::OnLButtonDown
PUBLIC	?OnLButtonUp@CChartAddInBase134661@@MAEHPAVCDC@@IAAVCPoint@@K@Z ; CChartAddInBase134661::OnLButtonUp
PUBLIC	?OnLButtonDblClk@CChartAddInBase134661@@MAEHPAVCDC@@IAAVCPoint@@K@Z ; CChartAddInBase134661::OnLButtonDblClk
PUBLIC	?OnRButtonDown@CChartAddInBase134661@@MAEHPAVCDC@@IAAVCPoint@@K@Z ; CChartAddInBase134661::OnRButtonDown
PUBLIC	?OnRButtonUp@CChartAddInBase134661@@MAEHPAVCDC@@IAAVCPoint@@K@Z ; CChartAddInBase134661::OnRButtonUp
PUBLIC	?OnRButtonDblClk@CChartAddInBase134661@@MAEHPAVCDC@@IAAVCPoint@@K@Z ; CChartAddInBase134661::OnRButtonDblClk
PUBLIC	??0CChartDesignPropertyAddInImp@@QAE@PAUIChartOCX134661@@PAUIAddInDllBase@@@Z ; CChartDesignPropertyAddInImp::CChartDesignPropertyAddInImp
PUBLIC	?GetRegisteredEventMap@CChartDesignPropertyAddInImp@@MBEPBW4EAddInEventType@IChartAddIn134661@@XZ ; CChartDesignPropertyAddInImp::GetRegisteredEventMap
PUBLIC	?OnCmdMsg@CChartDesignPropertyAddInImp@@MAEHIHPAXPAUAFX_CMDHANDLERINFO@@@Z ; CChartDesignPropertyAddInImp::OnCmdMsg
PUBLIC	?OnAddInToolCommand@CChartDesignPropertyAddInImp@@MAEHW4EAICommandType@@PAVCWnd@@AAVCPoint@@@Z ; CChartDesignPropertyAddInImp::OnAddInToolCommand
PUBLIC	??_GCChartDesignPropertyAddInImp@@UAEPAXI@Z	; CChartDesignPropertyAddInImp::`scalar deleting destructor'
PUBLIC	??1IPropertyMap@@MAE@XZ				; IPropertyMap::~IPropertyMap
PUBLIC	??_GIPropertyMap@@MAEPAXI@Z			; IPropertyMap::`scalar deleting destructor'
PUBLIC	?GetCount@CPropertyMap@@EBEHXZ			; CPropertyMap::GetCount
PUBLIC	?IsEmpty@CPropertyMap@@EBEHXZ			; CPropertyMap::IsEmpty
PUBLIC	?Lookup@CPropertyMap@@EBEHPBDAAPAD@Z		; CPropertyMap::Lookup
PUBLIC	?LookupKey@CPropertyMap@@EBEHPBDAAPBD@Z		; CPropertyMap::LookupKey
PUBLIC	?SetAt@CPropertyMap@@EAEXPBD0@Z			; CPropertyMap::SetAt
PUBLIC	?RemoveKey@CPropertyMap@@EAEHPBD@Z		; CPropertyMap::RemoveKey
PUBLIC	?RemoveAll@CPropertyMap@@EAEXXZ			; CPropertyMap::RemoveAll
PUBLIC	?GetStartPosition@CPropertyMap@@EBEPAU__POSITION@@XZ ; CPropertyMap::GetStartPosition
PUBLIC	?GetNextAssoc@CPropertyMap@@EBEXAAPAU__POSITION@@AAPBD1@Z ; CPropertyMap::GetNextAssoc
PUBLIC	?GetHashTableSize@CPropertyMap@@EBEIXZ		; CPropertyMap::GetHashTableSize
PUBLIC	?InitHashTable@CPropertyMap@@EAEXIH@Z		; CPropertyMap::InitHashTable
PUBLIC	??0CPropertyMap@@QAE@XZ				; CPropertyMap::CPropertyMap
PUBLIC	??1CPropertyMap@@UAE@XZ				; CPropertyMap::~CPropertyMap
PUBLIC	??_GCPropertyMap@@UAEPAXI@Z			; CPropertyMap::`scalar deleting destructor'
PUBLIC	??__FstrValue@?1??Lookup@CPropertyMap@@EBEHPBDAAPAD@Z@YAXXZ ; `CPropertyMap::Lookup'::`2'::`dynamic atexit destructor for 'strValue''
PUBLIC	??__FstrKey@?1??GetNextAssoc@CPropertyMap@@EBEXAAPAU__POSITION@@AAPBD1@Z@YAXXZ ; `CPropertyMap::GetNextAssoc'::`2'::`dynamic atexit destructor for 'strKey''
PUBLIC	??__FstrValue@?1??GetNextAssoc@CPropertyMap@@EBEXAAPAU__POSITION@@AAPBD1@Z@YAXXZ ; `CPropertyMap::GetNextAssoc'::`2'::`dynamic atexit destructor for 'strValue''
PUBLIC	??1CDFontPropPage@@UAE@XZ			; CDFontPropPage::~CDFontPropPage
PUBLIC	??1CDlgLocalLanguageTable@@UAE@XZ		; CDlgLocalLanguageTable::~CDlgLocalLanguageTable
PUBLIC	?QueryInterface@CChartAddInBase134661@@O7AGJABU_GUID@@PAPAX@Z ; [thunk]:CChartAddInBase134661::QueryInterface`adjustor{8}'
PUBLIC	?AddRef@CChartAddInBase134661@@O7AGKXZ		; [thunk]:CChartAddInBase134661::AddRef`adjustor{8}'
PUBLIC	?Release@CChartAddInBase134661@@O7AGKXZ		; [thunk]:CChartAddInBase134661::Release`adjustor{8}'
PUBLIC	??_ECChartDesignPropertyAddInImp@@W7AEPAXI@Z	; [thunk]:CChartDesignPropertyAddInImp::`vector deleting destructor'
PUBLIC	??_ECPropertyMap@@WBM@AEPAXI@Z			; [thunk]:CPropertyMap::`vector deleting destructor'
PUBLIC	??_C@_00CNPNBAHC@@				; `string'
PUBLIC	??_7CMenu@@6B@					; CMenu::`vftable'
PUBLIC	??_R0?AVCObject@@@8				; CObject `RTTI Type Descriptor'
PUBLIC	??_R3CObject@@8					; CObject::`RTTI Class Hierarchy Descriptor'
PUBLIC	??_R2CObject@@8					; CObject::`RTTI Base Class Array'
PUBLIC	??_R1A@?0A@EA@CObject@@8			; CObject::`RTTI Base Class Descriptor at (0,-1,0,64)'
PUBLIC	??_R0?AUIUnknown@@@8				; IUnknown `RTTI Type Descriptor'
PUBLIC	??_R3IUnknown@@8				; IUnknown::`RTTI Class Hierarchy Descriptor'
PUBLIC	??_R2IUnknown@@8				; IUnknown::`RTTI Base Class Array'
PUBLIC	??_R1A@?0A@EA@IUnknown@@8			; IUnknown::`RTTI Base Class Descriptor at (0,-1,0,64)'
PUBLIC	??_R4CMenu@@6B@					; CMenu::`RTTI Complete Object Locator'
PUBLIC	??_R0?AVCMenu@@@8				; CMenu `RTTI Type Descriptor'
PUBLIC	??_R3CMenu@@8					; CMenu::`RTTI Class Hierarchy Descriptor'
PUBLIC	??_R2CMenu@@8					; CMenu::`RTTI Base Class Array'
PUBLIC	??_R1A@?0A@EA@CMenu@@8				; CMenu::`RTTI Base Class Descriptor at (0,-1,0,64)'
PUBLIC	??_C@_0BG@DINEKOFK@GetLocalLanguageTable@	; `string'
PUBLIC	??_C@_0BA@ENJOCHIO@LoadResourceDLL@		; `string'
PUBLIC	?m_strAddInItemName@CChartDesignPropertyAddInImp@@2V?$CStringT@DV?$StrTraitMFC_DLL@DV?$ChTraitsCRT@D@ATL@@@@@ATL@@A ; CChartDesignPropertyAddInImp::m_strAddInItemName
PUBLIC	?m_dlgGLT@CChartDesignPropertyAddInImp@@2VCDlgGlobalLanguageTable@@A ; CChartDesignPropertyAddInImp::m_dlgGLT
PUBLIC	??_7CChartDesignPropertyAddInImp@@6BCIWUnknown@@@ ; CChartDesignPropertyAddInImp::`vftable'
PUBLIC	??_7CChartDesignPropertyAddInImp@@6BIChartAddIn134661@@@ ; CChartDesignPropertyAddInImp::`vftable'
PUBLIC	??_7IPropertyMap@@6B@				; IPropertyMap::`vftable'
PUBLIC	??_7CPropertyMap@@6BCMapStringToString@@@	; CPropertyMap::`vftable'
PUBLIC	??_7CPropertyMap@@6BIPropertyMap@@@		; CPropertyMap::`vftable'
PUBLIC	?strValue@?1??Lookup@CPropertyMap@@EBEHPBDAAPAD@Z@4V?$CStringT@DV?$StrTraitMFC_DLL@DV?$ChTraitsCRT@D@ATL@@@@@ATL@@A ; `CPropertyMap::Lookup'::`2'::strValue
PUBLIC	?$TSS0@?1??Lookup@CPropertyMap@@EBEHPBDAAPAD@Z@4HA ; `CPropertyMap::Lookup'::`2'::$TSS0
PUBLIC	?strKey@?1??GetNextAssoc@CPropertyMap@@EBEXAAPAU__POSITION@@AAPBD1@Z@4V?$CStringT@DV?$StrTraitMFC_DLL@DV?$ChTraitsCRT@D@ATL@@@@@ATL@@A ; `CPropertyMap::GetNextAssoc'::`2'::strKey
PUBLIC	?$TSS0@?1??GetNextAssoc@CPropertyMap@@EBEXAAPAU__POSITION@@AAPBD1@Z@4HA ; `CPropertyMap::GetNextAssoc'::`2'::$TSS0
PUBLIC	?strValue@?1??GetNextAssoc@CPropertyMap@@EBEXAAPAU__POSITION@@AAPBD1@Z@4V?$CStringT@DV?$StrTraitMFC_DLL@DV?$ChTraitsCRT@D@ATL@@@@@ATL@@A ; `CPropertyMap::GetNextAssoc'::`2'::strValue
PUBLIC	?$TSS1@?1??GetNextAssoc@CPropertyMap@@EBEXAAPAU__POSITION@@AAPBD1@Z@4HA ; `CPropertyMap::GetNextAssoc'::`2'::$TSS1
PUBLIC	??_C@_0O@CGEFBDMJ@Property?5Page@		; `string'
PUBLIC	??_R4CChartDesignPropertyAddInImp@@6BCIWUnknown@@@ ; CChartDesignPropertyAddInImp::`RTTI Complete Object Locator'
PUBLIC	??_R0?AVCChartDesignPropertyAddInImp@@@8	; CChartDesignPropertyAddInImp `RTTI Type Descriptor'
PUBLIC	??_R3CChartDesignPropertyAddInImp@@8		; CChartDesignPropertyAddInImp::`RTTI Class Hierarchy Descriptor'
PUBLIC	??_R2CChartDesignPropertyAddInImp@@8		; CChartDesignPropertyAddInImp::`RTTI Base Class Array'
PUBLIC	??_R1A@?0A@EA@CChartDesignPropertyAddInImp@@8	; CChartDesignPropertyAddInImp::`RTTI Base Class Descriptor at (0,-1,0,64)'
PUBLIC	??_R1A@?0A@EA@CChartAddInBase134661@@8		; CChartAddInBase134661::`RTTI Base Class Descriptor at (0,-1,0,64)'
PUBLIC	??_R0?AVCChartAddInBase134661@@@8		; CChartAddInBase134661 `RTTI Type Descriptor'
PUBLIC	??_R3CChartAddInBase134661@@8			; CChartAddInBase134661::`RTTI Class Hierarchy Descriptor'
PUBLIC	??_R2CChartAddInBase134661@@8			; CChartAddInBase134661::`RTTI Base Class Array'
PUBLIC	??_R1A@?0A@EA@CIWUnknown@@8			; CIWUnknown::`RTTI Base Class Descriptor at (0,-1,0,64)'
PUBLIC	??_R0?AVCIWUnknown@@@8				; CIWUnknown `RTTI Type Descriptor'
PUBLIC	??_R3CIWUnknown@@8				; CIWUnknown::`RTTI Class Hierarchy Descriptor'
PUBLIC	??_R2CIWUnknown@@8				; CIWUnknown::`RTTI Base Class Array'
PUBLIC	??_R17?0A@EA@IChartAddIn134661@@8		; IChartAddIn134661::`RTTI Base Class Descriptor at (8,-1,0,64)'
PUBLIC	??_R0?AUIChartAddIn134661@@@8			; IChartAddIn134661 `RTTI Type Descriptor'
PUBLIC	??_R3IChartAddIn134661@@8			; IChartAddIn134661::`RTTI Class Hierarchy Descriptor'
PUBLIC	??_R2IChartAddIn134661@@8			; IChartAddIn134661::`RTTI Base Class Array'
PUBLIC	??_R1A@?0A@EA@IChartAddIn134661@@8		; IChartAddIn134661::`RTTI Base Class Descriptor at (0,-1,0,64)'
PUBLIC	??_R17?0A@EA@IUnknown@@8			; IUnknown::`RTTI Base Class Descriptor at (8,-1,0,64)'
PUBLIC	??_R4CChartDesignPropertyAddInImp@@6BIChartAddIn134661@@@ ; CChartDesignPropertyAddInImp::`RTTI Complete Object Locator'
PUBLIC	??_R4IPropertyMap@@6B@				; IPropertyMap::`RTTI Complete Object Locator'
PUBLIC	??_R0?AUIPropertyMap@@@8			; IPropertyMap `RTTI Type Descriptor'
PUBLIC	??_R3IPropertyMap@@8				; IPropertyMap::`RTTI Class Hierarchy Descriptor'
PUBLIC	??_R2IPropertyMap@@8				; IPropertyMap::`RTTI Base Class Array'
PUBLIC	??_R1A@?0A@EA@IPropertyMap@@8			; IPropertyMap::`RTTI Base Class Descriptor at (0,-1,0,64)'
PUBLIC	??_R4CPropertyMap@@6BCMapStringToString@@@	; CPropertyMap::`RTTI Complete Object Locator'
PUBLIC	??_R0?AVCPropertyMap@@@8			; CPropertyMap `RTTI Type Descriptor'
PUBLIC	??_R3CPropertyMap@@8				; CPropertyMap::`RTTI Class Hierarchy Descriptor'
PUBLIC	??_R2CPropertyMap@@8				; CPropertyMap::`RTTI Base Class Array'
PUBLIC	??_R1A@?0A@EA@CPropertyMap@@8			; CPropertyMap::`RTTI Base Class Descriptor at (0,-1,0,64)'
PUBLIC	??_R1A@?0A@EA@CMapStringToString@@8		; CMapStringToString::`RTTI Base Class Descriptor at (0,-1,0,64)'
PUBLIC	??_R0?AVCMapStringToString@@@8			; CMapStringToString `RTTI Type Descriptor'
PUBLIC	??_R3CMapStringToString@@8			; CMapStringToString::`RTTI Class Hierarchy Descriptor'
PUBLIC	??_R2CMapStringToString@@8			; CMapStringToString::`RTTI Base Class Array'
PUBLIC	??_R1BM@?0A@EA@IPropertyMap@@8			; IPropertyMap::`RTTI Base Class Descriptor at (28,-1,0,64)'
PUBLIC	??_R4CPropertyMap@@6BIPropertyMap@@@		; CPropertyMap::`RTTI Complete Object Locator'
EXTRN	__purecall:PROC
EXTRN	??3@YAXPAX@Z:PROC				; operator delete
EXTRN	??3@YAXPAXI@Z:PROC				; operator delete
EXTRN	?__global_delete@@YAXPAXI@Z:PROC		; __global_delete
EXTRN	_atexit:PROC
EXTRN	__Init_thread_header:PROC
EXTRN	__Init_thread_footer:PROC
EXTRN	___std_terminate:PROC
EXTRN	__imp__GetProcAddress@8:PROC
EXTRN	__imp__RegisterWindowMessageA@4:PROC
EXTRN	__imp__SendMessageA@16:PROC
EXTRN	__imp__IsWindow@4:PROC
EXTRN	__imp__LoadMenuW@8:PROC
EXTRN	__imp__GetSubMenu@8:PROC
EXTRN	__imp__GetWindowRect@8:PROC
EXTRN	__imp__GetParent@4:PROC
EXTRN	__imp__atoi:PROC
EXTRN	?GetRuntimeClass@CObject@@UBEPAUCRuntimeClass@@XZ:PROC ; CObject::GetRuntimeClass
EXTRN	__imp_??0?$CStringT@DV?$StrTraitMFC_DLL@DV?$ChTraitsCRT@D@ATL@@@@@ATL@@QAE@XZ:PROC
EXTRN	__imp_??0?$CStringT@DV?$StrTraitMFC_DLL@DV?$ChTraitsCRT@D@ATL@@@@@ATL@@QAE@PBD@Z:PROC
EXTRN	__imp_??1?$CStringT@DV?$StrTraitMFC_DLL@DV?$ChTraitsCRT@D@ATL@@@@@ATL@@QAE@XZ:PROC
EXTRN	__imp_??4?$CStringT@DV?$StrTraitMFC_DLL@DV?$ChTraitsCRT@D@ATL@@@@@ATL@@QAEAAV01@PBD@Z:PROC
EXTRN	??1CStringList@@UAE@XZ:PROC			; CStringList::~CStringList
EXTRN	?GetRuntimeClass@CMapStringToString@@UBEPAUCRuntimeClass@@XZ:PROC ; CMapStringToString::GetRuntimeClass
EXTRN	??0CMapStringToString@@QAE@H@Z:PROC		; CMapStringToString::CMapStringToString
EXTRN	?Lookup@CMapStringToString@@QBEHPBDAAV?$CStringT@DV?$StrTraitMFC_DLL@DV?$ChTraitsCRT@D@ATL@@@@@ATL@@@Z:PROC ; CMapStringToString::Lookup
EXTRN	?LookupKey@CMapStringToString@@QBEHPBDAAPBD@Z:PROC ; CMapStringToString::LookupKey
EXTRN	??ACMapStringToString@@QAEAAV?$CStringT@DV?$StrTraitMFC_DLL@DV?$ChTraitsCRT@D@ATL@@@@@ATL@@PBD@Z:PROC ; CMapStringToString::operator[]
EXTRN	?RemoveKey@CMapStringToString@@QAEHPBD@Z:PROC	; CMapStringToString::RemoveKey
EXTRN	?RemoveAll@CMapStringToString@@QAEXXZ:PROC	; CMapStringToString::RemoveAll
EXTRN	?GetNextAssoc@CMapStringToString@@QBEXAAPAU__POSITION@@AAV?$CStringT@DV?$StrTraitMFC_DLL@DV?$ChTraitsCRT@D@ATL@@@@@ATL@@1@Z:PROC ; CMapStringToString::GetNextAssoc
EXTRN	?InitHashTable@CMapStringToString@@QAEXIH@Z:PROC ; CMapStringToString::InitHashTable
EXTRN	??1CMapStringToString@@UAE@XZ:PROC		; CMapStringToString::~CMapStringToString
EXTRN	?Serialize@CMapStringToString@@UAEXAAVCArchive@@@Z:PROC ; CMapStringToString::Serialize
EXTRN	?AfxGetModuleState@@YGPAVAFX_MODULE_STATE@@XZ:PROC ; AfxGetModuleState
EXTRN	?AfxGetStaticModuleState@@YGPAVAFX_MODULE_STATE@@XZ:PROC ; AfxGetStaticModuleState
EXTRN	?GetRuntimeClass@CMenu@@UBEPAUCRuntimeClass@@XZ:PROC ; CMenu::GetRuntimeClass
EXTRN	?DestroyMenu@CMenu@@QAEHXZ:PROC			; CMenu::DestroyMenu
EXTRN	?FromHandle@CMenu@@SGPAV1@PAUHMENU__@@@Z:PROC	; CMenu::FromHandle
EXTRN	?Attach@CMenu@@QAEHPAUHMENU__@@@Z:PROC		; CMenu::Attach
EXTRN	?TrackPopupMenu@CMenu@@QAEHIHHPAVCWnd@@PBUtagRECT@@@Z:PROC ; CMenu::TrackPopupMenu
EXTRN	?DrawItem@CMenu@@UAEXPAUtagDRAWITEMSTRUCT@@@Z:PROC ; CMenu::DrawItem
EXTRN	?MeasureItem@CMenu@@UAEXPAUtagMEASUREITEMSTRUCT@@@Z:PROC ; CMenu::MeasureItem
EXTRN	??_ECMenu@@UAEPAXI@Z:PROC			; CMenu::`vector deleting destructor'
EXTRN	?ShowWindow@CWnd@@QAEHH@Z:PROC			; CWnd::ShowWindow
EXTRN	?Create@CDialog@@UAEHPBDPAVCWnd@@@Z:PROC	; CDialog::Create
EXTRN	?DoModal@CDialog@@UAEHXZ:PROC			; CDialog::DoModal
EXTRN	??1CDialog@@UAE@XZ:PROC				; CDialog::~CDialog
EXTRN	??1CStatic@@UAE@XZ:PROC				; CStatic::~CStatic
EXTRN	??1CButton@@UAE@XZ:PROC				; CButton::~CButton
EXTRN	??1CComboBox@@UAE@XZ:PROC			; CComboBox::~CComboBox
EXTRN	?AfxFindResourceHandle@@YGPAUHINSTANCE__@@PBD0@Z:PROC ; AfxFindResourceHandle
EXTRN	?DoModal@CPropertySheet@@UAEHXZ:PROC		; CPropertySheet::DoModal
EXTRN	??1CListCtrl@@UAE@XZ:PROC			; CListCtrl::~CListCtrl
EXTRN	?AddRef@CIWUnknown@@MAGKXZ:PROC			; CIWUnknown::AddRef
EXTRN	?Release@CIWUnknown@@MAGKXZ:PROC		; CIWUnknown::Release
EXTRN	??0CChartAddInBase134661@@IAE@PAUIChartOCX134661@@PAUIAddInDllBase@@@Z:PROC ; CChartAddInBase134661::CChartAddInBase134661
EXTRN	??1CChartAddInBase134661@@MAE@XZ:PROC		; CChartAddInBase134661::~CChartAddInBase134661
EXTRN	?HasFullManager@CChartAddInBase134661@@MAEHXZ:PROC ; CChartAddInBase134661::HasFullManager
EXTRN	?RegisterEventMap@CChartAddInBase134661@@UAEHH@Z:PROC ; CChartAddInBase134661::RegisterEventMap
EXTRN	?UnregisterEventMap@CChartAddInBase134661@@UAEHXZ:PROC ; CChartAddInBase134661::UnregisterEventMap
EXTRN	??1CEditableListCtrl@@UAE@XZ:PROC		; CEditableListCtrl::~CEditableListCtrl
EXTRN	??0CDlgGlobalLanguageTable@@QAE@PAVCWnd@@@Z:PROC ; CDlgGlobalLanguageTable::CDlgGlobalLanguageTable
EXTRN	??_ECChartDesignPropertyAddInImp@@UAEPAXI@Z:PROC ; CChartDesignPropertyAddInImp::`vector deleting destructor'
EXTRN	??_EIPropertyMap@@MAEPAXI@Z:PROC		; IPropertyMap::`vector deleting destructor'
EXTRN	??_ECPropertyMap@@UAEPAXI@Z:PROC		; CPropertyMap::`vector deleting destructor'
EXTRN	?GetReturnValue@CInitializeControlDlg@@QAEHXZ:PROC ; CInitializeControlDlg::GetReturnValue
EXTRN	?SetOcxWnd@CInitializeControlDlg@@QAEXPAVCWnd@@@Z:PROC ; CInitializeControlDlg::SetOcxWnd
EXTRN	?SetProperty@CInitializeControlDlg@@QAEXPAUIPropertyMap@@@Z:PROC ; CInitializeControlDlg::SetProperty
EXTRN	??0CInitializeControlDlg@@QAE@PAUHWND__@@PAVCWnd@@@Z:PROC ; CInitializeControlDlg::CInitializeControlDlg
EXTRN	??1CInitializeControlDlg@@UAE@XZ:PROC		; CInitializeControlDlg::~CInitializeControlDlg
EXTRN	??0CChartPropertySheet@@QAE@PBDPAUHWND__@@PAVCWnd@@I@Z:PROC ; CChartPropertySheet::CChartPropertySheet
EXTRN	?SetIGraphInfoManager@CChartPropertySheet@@QAEXPAUIGraphInfoManager134661@@@Z:PROC ; CChartPropertySheet::SetIGraphInfoManager
EXTRN	?SetBlockProperty@CChartPropertySheet@@QAEXHH@Z:PROC ; CChartPropertySheet::SetBlockProperty
EXTRN	?SetProperty@CChartPropertySheet@@QAEXPAUIPropertyMap@@@Z:PROC ; CChartPropertySheet::SetProperty
EXTRN	??1CChartPropertySheet@@UAE@XZ:PROC		; CChartPropertySheet::~CChartPropertySheet
EXTRN	??0CDFontPropPage@@QAE@PAVCWnd@@0@Z:PROC	; CDFontPropPage::CDFontPropPage
EXTRN	?SetProperty@CDFontPropPage@@QAEXPAUIPropertyMap@@@Z:PROC ; CDFontPropPage::SetProperty
EXTRN	??0CDlgLocalLanguageTable@@QAE@PAVCWnd@@@Z:PROC	; CDlgLocalLanguageTable::CDlgLocalLanguageTable
EXTRN	?SetProperty@CDlgLocalLanguageTable@@QAEXPAUIPropertyMap@@@Z:PROC ; CDlgLocalLanguageTable::SetProperty
EXTRN	@__security_check_cookie@4:PROC
EXTRN	___CxxFrameHandler3:PROC
EXTRN	__chkstk:PROC
EXTRN	__Init_thread_epoch:DWORD
EXTRN	??_7type_info@@6B@:QWORD			; type_info::`vftable'
EXTRN	?g_iMetaTable@@3VIMetaTable@@A:BYTE		; g_iMetaTable
EXTRN	?g_anPropertyShortKey@@3PAPADA:BYTE		; g_anPropertyShortKey
EXTRN	___security_cookie:DWORD
EXTRN	__tls_array:DWORD
EXTRN	__tls_index:DWORD
_BSS	SEGMENT
?RMSG_ELC_CELLEDITED@@3IB DD 01H DUP (?)		; RMSG_ELC_CELLEDITED
?m_strAddInItemName@CChartDesignPropertyAddInImp@@2V?$CStringT@DV?$StrTraitMFC_DLL@DV?$ChTraitsCRT@D@ATL@@@@@ATL@@A DD 01H DUP (?) ; CChartDesignPropertyAddInImp::m_strAddInItemName
?m_dlgGLT@CChartDesignPropertyAddInImp@@2VCDlgGlobalLanguageTable@@A DB 01b8H DUP (?) ; CChartDesignPropertyAddInImp::m_dlgGLT
_BSS	ENDS
;	COMDAT ?strValue@?1??Lookup@CPropertyMap@@EBEHPBDAAPAD@Z@4V?$CStringT@DV?$StrTraitMFC_DLL@DV?$ChTraitsCRT@D@ATL@@@@@ATL@@A
_BSS	SEGMENT
?strValue@?1??Lookup@CPropertyMap@@EBEHPBDAAPAD@Z@4V?$CStringT@DV?$StrTraitMFC_DLL@DV?$ChTraitsCRT@D@ATL@@@@@ATL@@A DD 01H DUP (?) ; `CPropertyMap::Lookup'::`2'::strValue
_BSS	ENDS
;	COMDAT ?$TSS0@?1??Lookup@CPropertyMap@@EBEHPBDAAPAD@Z@4HA
_BSS	SEGMENT
?$TSS0@?1??Lookup@CPropertyMap@@EBEHPBDAAPAD@Z@4HA DD 01H DUP (?) ; `CPropertyMap::Lookup'::`2'::$TSS0
_BSS	ENDS
;	COMDAT ?strKey@?1??GetNextAssoc@CPropertyMap@@EBEXAAPAU__POSITION@@AAPBD1@Z@4V?$CStringT@DV?$StrTraitMFC_DLL@DV?$ChTraitsCRT@D@ATL@@@@@ATL@@A
_BSS	SEGMENT
?strKey@?1??GetNextAssoc@CPropertyMap@@EBEXAAPAU__POSITION@@AAPBD1@Z@4V?$CStringT@DV?$StrTraitMFC_DLL@DV?$ChTraitsCRT@D@ATL@@@@@ATL@@A DD 01H DUP (?) ; `CPropertyMap::GetNextAssoc'::`2'::strKey
_BSS	ENDS
;	COMDAT ?$TSS0@?1??GetNextAssoc@CPropertyMap@@EBEXAAPAU__POSITION@@AAPBD1@Z@4HA
_BSS	SEGMENT
?$TSS0@?1??GetNextAssoc@CPropertyMap@@EBEXAAPAU__POSITION@@AAPBD1@Z@4HA DD 01H DUP (?) ; `CPropertyMap::GetNextAssoc'::`2'::$TSS0
_BSS	ENDS
;	COMDAT ?strValue@?1??GetNextAssoc@CPropertyMap@@EBEXAAPAU__POSITION@@AAPBD1@Z@4V?$CStringT@DV?$StrTraitMFC_DLL@DV?$ChTraitsCRT@D@ATL@@@@@ATL@@A
_BSS	SEGMENT
?strValue@?1??GetNextAssoc@CPropertyMap@@EBEXAAPAU__POSITION@@AAPBD1@Z@4V?$CStringT@DV?$StrTraitMFC_DLL@DV?$ChTraitsCRT@D@ATL@@@@@ATL@@A DD 01H DUP (?) ; `CPropertyMap::GetNextAssoc'::`2'::strValue
_BSS	ENDS
;	COMDAT ?$TSS1@?1??GetNextAssoc@CPropertyMap@@EBEXAAPAU__POSITION@@AAPBD1@Z@4HA
_BSS	SEGMENT
?$TSS1@?1??GetNextAssoc@CPropertyMap@@EBEXAAPAU__POSITION@@AAPBD1@Z@4HA DD 01H DUP (?) ; `CPropertyMap::GetNextAssoc'::`2'::$TSS1
_BSS	ENDS
CRT$XCU	SEGMENT
?RMSG_ELC_CELLEDITED$initializer$@@3P6AXXZA DD FLAT:??__ERMSG_ELC_CELLEDITED@@YAXXZ ; RMSG_ELC_CELLEDITED$initializer$
CRT$XCU	ENDS
;	COMDAT ??_R4CPropertyMap@@6BIPropertyMap@@@
rdata$r	SEGMENT
??_R4CPropertyMap@@6BIPropertyMap@@@ DD 00H		; CPropertyMap::`RTTI Complete Object Locator'
	DD	01cH
	DD	00H
	DD	FLAT:??_R0?AVCPropertyMap@@@8
	DD	FLAT:??_R3CPropertyMap@@8
rdata$r	ENDS
;	COMDAT ??_R1BM@?0A@EA@IPropertyMap@@8
rdata$r	SEGMENT
??_R1BM@?0A@EA@IPropertyMap@@8 DD FLAT:??_R0?AUIPropertyMap@@@8 ; IPropertyMap::`RTTI Base Class Descriptor at (28,-1,0,64)'
	DD	00H
	DD	01cH
	DD	0ffffffffH
	DD	00H
	DD	040H
	DD	FLAT:??_R3IPropertyMap@@8
rdata$r	ENDS
;	COMDAT ??_R2CMapStringToString@@8
rdata$r	SEGMENT
??_R2CMapStringToString@@8 DD FLAT:??_R1A@?0A@EA@CMapStringToString@@8 ; CMapStringToString::`RTTI Base Class Array'
	DD	FLAT:??_R1A@?0A@EA@CObject@@8
rdata$r	ENDS
;	COMDAT ??_R3CMapStringToString@@8
rdata$r	SEGMENT
??_R3CMapStringToString@@8 DD 00H			; CMapStringToString::`RTTI Class Hierarchy Descriptor'
	DD	00H
	DD	02H
	DD	FLAT:??_R2CMapStringToString@@8
rdata$r	ENDS
;	COMDAT ??_R0?AVCMapStringToString@@@8
data$rs	SEGMENT
??_R0?AVCMapStringToString@@@8 DD FLAT:??_7type_info@@6B@ ; CMapStringToString `RTTI Type Descriptor'
	DD	00H
	DB	'.?AVCMapStringToString@@', 00H
data$rs	ENDS
;	COMDAT ??_R1A@?0A@EA@CMapStringToString@@8
rdata$r	SEGMENT
??_R1A@?0A@EA@CMapStringToString@@8 DD FLAT:??_R0?AVCMapStringToString@@@8 ; CMapStringToString::`RTTI Base Class Descriptor at (0,-1,0,64)'
	DD	01H
	DD	00H
	DD	0ffffffffH
	DD	00H
	DD	040H
	DD	FLAT:??_R3CMapStringToString@@8
rdata$r	ENDS
;	COMDAT ??_R1A@?0A@EA@CPropertyMap@@8
rdata$r	SEGMENT
??_R1A@?0A@EA@CPropertyMap@@8 DD FLAT:??_R0?AVCPropertyMap@@@8 ; CPropertyMap::`RTTI Base Class Descriptor at (0,-1,0,64)'
	DD	03H
	DD	00H
	DD	0ffffffffH
	DD	00H
	DD	040H
	DD	FLAT:??_R3CPropertyMap@@8
rdata$r	ENDS
;	COMDAT ??_R2CPropertyMap@@8
rdata$r	SEGMENT
??_R2CPropertyMap@@8 DD FLAT:??_R1A@?0A@EA@CPropertyMap@@8 ; CPropertyMap::`RTTI Base Class Array'
	DD	FLAT:??_R1A@?0A@EA@CMapStringToString@@8
	DD	FLAT:??_R1A@?0A@EA@CObject@@8
	DD	FLAT:??_R1BM@?0A@EA@IPropertyMap@@8
rdata$r	ENDS
;	COMDAT ??_R3CPropertyMap@@8
rdata$r	SEGMENT
??_R3CPropertyMap@@8 DD 00H				; CPropertyMap::`RTTI Class Hierarchy Descriptor'
	DD	01H
	DD	04H
	DD	FLAT:??_R2CPropertyMap@@8
rdata$r	ENDS
;	COMDAT ??_R0?AVCPropertyMap@@@8
data$rs	SEGMENT
??_R0?AVCPropertyMap@@@8 DD FLAT:??_7type_info@@6B@	; CPropertyMap `RTTI Type Descriptor'
	DD	00H
	DB	'.?AVCPropertyMap@@', 00H
data$rs	ENDS
;	COMDAT ??_R4CPropertyMap@@6BCMapStringToString@@@
rdata$r	SEGMENT
??_R4CPropertyMap@@6BCMapStringToString@@@ DD 00H	; CPropertyMap::`RTTI Complete Object Locator'
	DD	00H
	DD	00H
	DD	FLAT:??_R0?AVCPropertyMap@@@8
	DD	FLAT:??_R3CPropertyMap@@8
rdata$r	ENDS
;	COMDAT ??_R1A@?0A@EA@IPropertyMap@@8
rdata$r	SEGMENT
??_R1A@?0A@EA@IPropertyMap@@8 DD FLAT:??_R0?AUIPropertyMap@@@8 ; IPropertyMap::`RTTI Base Class Descriptor at (0,-1,0,64)'
	DD	00H
	DD	00H
	DD	0ffffffffH
	DD	00H
	DD	040H
	DD	FLAT:??_R3IPropertyMap@@8
rdata$r	ENDS
;	COMDAT ??_R2IPropertyMap@@8
rdata$r	SEGMENT
??_R2IPropertyMap@@8 DD FLAT:??_R1A@?0A@EA@IPropertyMap@@8 ; IPropertyMap::`RTTI Base Class Array'
rdata$r	ENDS
;	COMDAT ??_R3IPropertyMap@@8
rdata$r	SEGMENT
??_R3IPropertyMap@@8 DD 00H				; IPropertyMap::`RTTI Class Hierarchy Descriptor'
	DD	00H
	DD	01H
	DD	FLAT:??_R2IPropertyMap@@8
rdata$r	ENDS
;	COMDAT ??_R0?AUIPropertyMap@@@8
data$rs	SEGMENT
??_R0?AUIPropertyMap@@@8 DD FLAT:??_7type_info@@6B@	; IPropertyMap `RTTI Type Descriptor'
	DD	00H
	DB	'.?AUIPropertyMap@@', 00H
data$rs	ENDS
;	COMDAT ??_R4IPropertyMap@@6B@
rdata$r	SEGMENT
??_R4IPropertyMap@@6B@ DD 00H				; IPropertyMap::`RTTI Complete Object Locator'
	DD	00H
	DD	00H
	DD	FLAT:??_R0?AUIPropertyMap@@@8
	DD	FLAT:??_R3IPropertyMap@@8
rdata$r	ENDS
;	COMDAT ??_R4CChartDesignPropertyAddInImp@@6BIChartAddIn134661@@@
rdata$r	SEGMENT
??_R4CChartDesignPropertyAddInImp@@6BIChartAddIn134661@@@ DD 00H ; CChartDesignPropertyAddInImp::`RTTI Complete Object Locator'
	DD	08H
	DD	00H
	DD	FLAT:??_R0?AVCChartDesignPropertyAddInImp@@@8
	DD	FLAT:??_R3CChartDesignPropertyAddInImp@@8
rdata$r	ENDS
;	COMDAT ??_R17?0A@EA@IUnknown@@8
rdata$r	SEGMENT
??_R17?0A@EA@IUnknown@@8 DD FLAT:??_R0?AUIUnknown@@@8	; IUnknown::`RTTI Base Class Descriptor at (8,-1,0,64)'
	DD	00H
	DD	08H
	DD	0ffffffffH
	DD	00H
	DD	040H
	DD	FLAT:??_R3IUnknown@@8
rdata$r	ENDS
;	COMDAT ??_R1A@?0A@EA@IChartAddIn134661@@8
rdata$r	SEGMENT
??_R1A@?0A@EA@IChartAddIn134661@@8 DD FLAT:??_R0?AUIChartAddIn134661@@@8 ; IChartAddIn134661::`RTTI Base Class Descriptor at (0,-1,0,64)'
	DD	01H
	DD	00H
	DD	0ffffffffH
	DD	00H
	DD	040H
	DD	FLAT:??_R3IChartAddIn134661@@8
rdata$r	ENDS
;	COMDAT ??_R2IChartAddIn134661@@8
rdata$r	SEGMENT
??_R2IChartAddIn134661@@8 DD FLAT:??_R1A@?0A@EA@IChartAddIn134661@@8 ; IChartAddIn134661::`RTTI Base Class Array'
	DD	FLAT:??_R1A@?0A@EA@IUnknown@@8
rdata$r	ENDS
;	COMDAT ??_R3IChartAddIn134661@@8
rdata$r	SEGMENT
??_R3IChartAddIn134661@@8 DD 00H			; IChartAddIn134661::`RTTI Class Hierarchy Descriptor'
	DD	00H
	DD	02H
	DD	FLAT:??_R2IChartAddIn134661@@8
rdata$r	ENDS
;	COMDAT ??_R0?AUIChartAddIn134661@@@8
data$rs	SEGMENT
??_R0?AUIChartAddIn134661@@@8 DD FLAT:??_7type_info@@6B@ ; IChartAddIn134661 `RTTI Type Descriptor'
	DD	00H
	DB	'.?AUIChartAddIn134661@@', 00H
data$rs	ENDS
;	COMDAT ??_R17?0A@EA@IChartAddIn134661@@8
rdata$r	SEGMENT
??_R17?0A@EA@IChartAddIn134661@@8 DD FLAT:??_R0?AUIChartAddIn134661@@@8 ; IChartAddIn134661::`RTTI Base Class Descriptor at (8,-1,0,64)'
	DD	01H
	DD	08H
	DD	0ffffffffH
	DD	00H
	DD	040H
	DD	FLAT:??_R3IChartAddIn134661@@8
rdata$r	ENDS
;	COMDAT ??_R2CIWUnknown@@8
rdata$r	SEGMENT
??_R2CIWUnknown@@8 DD FLAT:??_R1A@?0A@EA@CIWUnknown@@8	; CIWUnknown::`RTTI Base Class Array'
	DD	FLAT:??_R1A@?0A@EA@CObject@@8
rdata$r	ENDS
;	COMDAT ??_R3CIWUnknown@@8
rdata$r	SEGMENT
??_R3CIWUnknown@@8 DD 00H				; CIWUnknown::`RTTI Class Hierarchy Descriptor'
	DD	00H
	DD	02H
	DD	FLAT:??_R2CIWUnknown@@8
rdata$r	ENDS
;	COMDAT ??_R0?AVCIWUnknown@@@8
data$rs	SEGMENT
??_R0?AVCIWUnknown@@@8 DD FLAT:??_7type_info@@6B@	; CIWUnknown `RTTI Type Descriptor'
	DD	00H
	DB	'.?AVCIWUnknown@@', 00H
data$rs	ENDS
;	COMDAT ??_R1A@?0A@EA@CIWUnknown@@8
rdata$r	SEGMENT
??_R1A@?0A@EA@CIWUnknown@@8 DD FLAT:??_R0?AVCIWUnknown@@@8 ; CIWUnknown::`RTTI Base Class Descriptor at (0,-1,0,64)'
	DD	01H
	DD	00H
	DD	0ffffffffH
	DD	00H
	DD	040H
	DD	FLAT:??_R3CIWUnknown@@8
rdata$r	ENDS
;	COMDAT ??_R2CChartAddInBase134661@@8
rdata$r	SEGMENT
??_R2CChartAddInBase134661@@8 DD FLAT:??_R1A@?0A@EA@CChartAddInBase134661@@8 ; CChartAddInBase134661::`RTTI Base Class Array'
	DD	FLAT:??_R1A@?0A@EA@CIWUnknown@@8
	DD	FLAT:??_R1A@?0A@EA@CObject@@8
	DD	FLAT:??_R17?0A@EA@IChartAddIn134661@@8
	DD	FLAT:??_R17?0A@EA@IUnknown@@8
rdata$r	ENDS
;	COMDAT ??_R3CChartAddInBase134661@@8
rdata$r	SEGMENT
??_R3CChartAddInBase134661@@8 DD 00H			; CChartAddInBase134661::`RTTI Class Hierarchy Descriptor'
	DD	01H
	DD	05H
	DD	FLAT:??_R2CChartAddInBase134661@@8
rdata$r	ENDS
;	COMDAT ??_R0?AVCChartAddInBase134661@@@8
data$rs	SEGMENT
??_R0?AVCChartAddInBase134661@@@8 DD FLAT:??_7type_info@@6B@ ; CChartAddInBase134661 `RTTI Type Descriptor'
	DD	00H
	DB	'.?AVCChartAddInBase134661@@', 00H
data$rs	ENDS
;	COMDAT ??_R1A@?0A@EA@CChartAddInBase134661@@8
rdata$r	SEGMENT
??_R1A@?0A@EA@CChartAddInBase134661@@8 DD FLAT:??_R0?AVCChartAddInBase134661@@@8 ; CChartAddInBase134661::`RTTI Base Class Descriptor at (0,-1,0,64)'
	DD	04H
	DD	00H
	DD	0ffffffffH
	DD	00H
	DD	040H
	DD	FLAT:??_R3CChartAddInBase134661@@8
rdata$r	ENDS
;	COMDAT ??_R1A@?0A@EA@CChartDesignPropertyAddInImp@@8
rdata$r	SEGMENT
??_R1A@?0A@EA@CChartDesignPropertyAddInImp@@8 DD FLAT:??_R0?AVCChartDesignPropertyAddInImp@@@8 ; CChartDesignPropertyAddInImp::`RTTI Base Class Descriptor at (0,-1,0,64)'
	DD	05H
	DD	00H
	DD	0ffffffffH
	DD	00H
	DD	040H
	DD	FLAT:??_R3CChartDesignPropertyAddInImp@@8
rdata$r	ENDS
;	COMDAT ??_R2CChartDesignPropertyAddInImp@@8
rdata$r	SEGMENT
??_R2CChartDesignPropertyAddInImp@@8 DD FLAT:??_R1A@?0A@EA@CChartDesignPropertyAddInImp@@8 ; CChartDesignPropertyAddInImp::`RTTI Base Class Array'
	DD	FLAT:??_R1A@?0A@EA@CChartAddInBase134661@@8
	DD	FLAT:??_R1A@?0A@EA@CIWUnknown@@8
	DD	FLAT:??_R1A@?0A@EA@CObject@@8
	DD	FLAT:??_R17?0A@EA@IChartAddIn134661@@8
	DD	FLAT:??_R17?0A@EA@IUnknown@@8
rdata$r	ENDS
;	COMDAT ??_R3CChartDesignPropertyAddInImp@@8
rdata$r	SEGMENT
??_R3CChartDesignPropertyAddInImp@@8 DD 00H		; CChartDesignPropertyAddInImp::`RTTI Class Hierarchy Descriptor'
	DD	01H
	DD	06H
	DD	FLAT:??_R2CChartDesignPropertyAddInImp@@8
rdata$r	ENDS
;	COMDAT ??_R0?AVCChartDesignPropertyAddInImp@@@8
data$rs	SEGMENT
??_R0?AVCChartDesignPropertyAddInImp@@@8 DD FLAT:??_7type_info@@6B@ ; CChartDesignPropertyAddInImp `RTTI Type Descriptor'
	DD	00H
	DB	'.?AVCChartDesignPropertyAddInImp@@', 00H
data$rs	ENDS
;	COMDAT ??_R4CChartDesignPropertyAddInImp@@6BCIWUnknown@@@
rdata$r	SEGMENT
??_R4CChartDesignPropertyAddInImp@@6BCIWUnknown@@@ DD 00H ; CChartDesignPropertyAddInImp::`RTTI Complete Object Locator'
	DD	00H
	DD	00H
	DD	FLAT:??_R0?AVCChartDesignPropertyAddInImp@@@8
	DD	FLAT:??_R3CChartDesignPropertyAddInImp@@8
rdata$r	ENDS
;	COMDAT ??_C@_0O@CGEFBDMJ@Property?5Page@
CONST	SEGMENT
??_C@_0O@CGEFBDMJ@Property?5Page@ DB 'Property Page', 00H ; `string'
CONST	ENDS
;	COMDAT ??_7CPropertyMap@@6BIPropertyMap@@@
CONST	SEGMENT
??_7CPropertyMap@@6BIPropertyMap@@@ DD FLAT:??_R4CPropertyMap@@6BIPropertyMap@@@ ; CPropertyMap::`vftable'
	DD	FLAT:??_ECPropertyMap@@WBM@AEPAXI@Z
	DD	FLAT:?GetCount@CPropertyMap@@EBEHXZ
	DD	FLAT:?IsEmpty@CPropertyMap@@EBEHXZ
	DD	FLAT:?Lookup@CPropertyMap@@EBEHPBDAAPAD@Z
	DD	FLAT:?LookupKey@CPropertyMap@@EBEHPBDAAPBD@Z
	DD	FLAT:?SetAt@CPropertyMap@@EAEXPBD0@Z
	DD	FLAT:?RemoveKey@CPropertyMap@@EAEHPBD@Z
	DD	FLAT:?RemoveAll@CPropertyMap@@EAEXXZ
	DD	FLAT:?GetStartPosition@CPropertyMap@@EBEPAU__POSITION@@XZ
	DD	FLAT:?GetNextAssoc@CPropertyMap@@EBEXAAPAU__POSITION@@AAPBD1@Z
	DD	FLAT:?GetHashTableSize@CPropertyMap@@EBEIXZ
	DD	FLAT:?InitHashTable@CPropertyMap@@EAEXIH@Z
CONST	ENDS
;	COMDAT ??_7CPropertyMap@@6BCMapStringToString@@@
CONST	SEGMENT
??_7CPropertyMap@@6BCMapStringToString@@@ DD FLAT:??_R4CPropertyMap@@6BCMapStringToString@@@ ; CPropertyMap::`vftable'
	DD	FLAT:?GetRuntimeClass@CMapStringToString@@UBEPAUCRuntimeClass@@XZ
	DD	FLAT:??_ECPropertyMap@@UAEPAXI@Z
	DD	FLAT:?Serialize@CMapStringToString@@UAEXAAVCArchive@@@Z
	DD	FLAT:?AssertValid@CObject@@UBEXXZ
	DD	FLAT:?Dump@CObject@@UBEXAAVCDumpContext@@@Z
CONST	ENDS
;	COMDAT ??_7IPropertyMap@@6B@
CONST	SEGMENT
??_7IPropertyMap@@6B@ DD FLAT:??_R4IPropertyMap@@6B@	; IPropertyMap::`vftable'
	DD	FLAT:??_EIPropertyMap@@MAEPAXI@Z
	DD	FLAT:__purecall
	DD	FLAT:__purecall
	DD	FLAT:__purecall
	DD	FLAT:__purecall
	DD	FLAT:__purecall
	DD	FLAT:__purecall
	DD	FLAT:__purecall
	DD	FLAT:__purecall
	DD	FLAT:__purecall
	DD	FLAT:__purecall
	DD	FLAT:__purecall
CONST	ENDS
;	COMDAT ??_7CChartDesignPropertyAddInImp@@6BIChartAddIn134661@@@
CONST	SEGMENT
??_7CChartDesignPropertyAddInImp@@6BIChartAddIn134661@@@ DD FLAT:??_R4CChartDesignPropertyAddInImp@@6BIChartAddIn134661@@@ ; CChartDesignPropertyAddInImp::`vftable'
	DD	FLAT:?QueryInterface@CChartAddInBase134661@@O7AGJABU_GUID@@PAPAX@Z
	DD	FLAT:?AddRef@CChartAddInBase134661@@O7AGKXZ
	DD	FLAT:?Release@CChartAddInBase134661@@O7AGKXZ
	DD	FLAT:??_ECChartDesignPropertyAddInImp@@W7AEPAXI@Z
	DD	FLAT:?HasFullManager@CChartAddInBase134661@@MAEHXZ
	DD	FLAT:?GetAddInCustomInterface@CChartAddInBase134661@@MAEPAUIUnknown@@XZ
	DD	FLAT:?InvokeAddIn@CChartAddInBase134661@@MAEHHJ@Z
	DD	FLAT:?InvokeAddInStr@CChartAddInBase134661@@MAEHPBD0@Z
	DD	FLAT:?GetGlobalAddInEventType@CChartAddInBase134661@@MBE?AW4EAddInEventType@IAddInDllBase@@J@Z
	DD	FLAT:?RegisterEventMap@CChartAddInBase134661@@UAEHH@Z
	DD	FLAT:?UnregisterEventMap@CChartAddInBase134661@@UAEHXZ
	DD	FLAT:?OnGSharedDataChange@CChartAddInBase134661@@MAEXPBD0H@Z
	DD	FLAT:?OnLSharedDataChange@CChartAddInBase134661@@MAEXPBD0@Z
	DD	FLAT:?OnSharedDataChange@CChartAddInBase134661@@MAEXPBD0H@Z
	DD	FLAT:?OnResetChart@CChartAddInBase134661@@MAEXXZ
	DD	FLAT:?OnDrawBeforeGraph@CChartAddInBase134661@@MAEXPAVCDC@@@Z
	DD	FLAT:?OnDrawAfterGraph@CChartAddInBase134661@@MAEXPAVCDC@@@Z
	DD	FLAT:?OnPacketData@CChartAddInBase134661@@MAEXPBDH@Z
	DD	FLAT:?OnUpdatePacketData@CChartAddInBase134661@@MAEXH@Z
	DD	FLAT:?OnTimer@CChartAddInBase134661@@MAEXI@Z
	DD	FLAT:?OnCaptureChanged@CChartAddInBase134661@@MAEXPAVCWnd@@@Z
	DD	FLAT:?OnDrdsData@CChartAddInBase134661@@MAEXIJ@Z
	DD	FLAT:?OnDrdsPacketEnd@CChartAddInBase134661@@MAEXIJ@Z
	DD	FLAT:?OnRealData@CChartAddInBase134661@@MAEXGGPBDJN@Z
	DD	FLAT:?OnRealRedcordEnd@CChartAddInBase134661@@MAEXGPBD@Z
	DD	FLAT:?OnCmdMsg@CChartDesignPropertyAddInImp@@MAEHIHPAXPAUAFX_CMDHANDLERINFO@@@Z
	DD	FLAT:?OnAddInToolCommand@CChartAddInBase134661@@MAEHAAJW4EAICommandType@@JJ@Z
	DD	FLAT:?OnAddInToolCommand@CChartAddInBase134661@@MAEHAAJW4EAICommandType@@J@Z
	DD	FLAT:?OnAddInToolCommand@CChartAddInBase134661@@MAEHAAJW4EAICommandType@@PBDPAVCObject@@@Z
	DD	FLAT:?OnAddInToolCommand@CChartAddInBase134661@@MAEHAAJW4EAICommandType@@PBD@Z
	DD	FLAT:?OnAddInToolCommand@CChartAddInBase134661@@MAEHAAJW4EAICommandType@@@Z
	DD	FLAT:?OnAddInToolCommand@CChartDesignPropertyAddInImp@@MAEHW4EAICommandType@@PAVCWnd@@AAVCPoint@@@Z
	DD	FLAT:?OnAddInToolCommand@CChartAddInBase134661@@MAEHW4EAICommandType@@JJJJJJJJJ@Z
	DD	FLAT:?OnAddInToolCommand@CChartAddInBase134661@@MAEHW4EAICommandType@@JJ@Z
	DD	FLAT:?OnAddInToolCommand@CChartAddInBase134661@@MAEHW4EAICommandType@@JPBD11@Z
	DD	FLAT:?OnAddInToolCommand@CChartAddInBase134661@@MAEHW4EAICommandType@@JPBD@Z
	DD	FLAT:?OnAddInToolCommand@CChartAddInBase134661@@MAEHW4EAICommandType@@J@Z
	DD	FLAT:?OnAddInToolCommand@CChartAddInBase134661@@MAEHW4EAICommandType@@PBUIAddInDllBase@@@Z
	DD	FLAT:?OnAddInToolCommand@CChartAddInBase134661@@MAEHW4EAICommandType@@PBVCStyleData@@@Z
	DD	FLAT:?OnAddInToolCommand@CChartAddInBase134661@@MAEHW4EAICommandType@@PBVCStringList@@@Z
	DD	FLAT:?OnAddInToolCommand@CChartAddInBase134661@@MAEHW4EAICommandType@@PBVCBlockBehaviorData@@@Z
	DD	FLAT:?OnAddInToolCommand@CChartAddInBase134661@@MAEHW4EAICommandType@@PBDJ@Z
	DD	FLAT:?OnAddInToolCommand@CChartAddInBase134661@@MAEHW4EAICommandType@@PBD@Z
	DD	FLAT:?OnAddInToolCommand@CChartAddInBase134661@@MAEHW4EAICommandType@@PAVCDC@@IAAVCPoint@@K@Z
	DD	FLAT:?OnAddInToolCommand@CChartAddInBase134661@@MAEHW4EAICommandType@@@Z
	DD	FLAT:?OnKeyDown@CChartAddInBase134661@@MAEHIII@Z
	DD	FLAT:?OnKeyUp@CChartAddInBase134661@@MAEHIII@Z
	DD	FLAT:?OnMouseWheel@CChartAddInBase134661@@MAEHIFVCPoint@@K@Z
	DD	FLAT:?OnMouseMove@CChartAddInBase134661@@MAEHPAVCDC@@IAAVCPoint@@K@Z
	DD	FLAT:?OnLButtonDown@CChartAddInBase134661@@MAEHPAVCDC@@IAAVCPoint@@K@Z
	DD	FLAT:?OnLButtonUp@CChartAddInBase134661@@MAEHPAVCDC@@IAAVCPoint@@K@Z
	DD	FLAT:?OnLButtonDblClk@CChartAddInBase134661@@MAEHPAVCDC@@IAAVCPoint@@K@Z
	DD	FLAT:?OnRButtonDown@CChartAddInBase134661@@MAEHPAVCDC@@IAAVCPoint@@K@Z
	DD	FLAT:?OnRButtonUp@CChartAddInBase134661@@MAEHPAVCDC@@IAAVCPoint@@K@Z
	DD	FLAT:?OnRButtonDblClk@CChartAddInBase134661@@MAEHPAVCDC@@IAAVCPoint@@K@Z
CONST	ENDS
;	COMDAT ??_7CChartDesignPropertyAddInImp@@6BCIWUnknown@@@
CONST	SEGMENT
??_7CChartDesignPropertyAddInImp@@6BCIWUnknown@@@ DD FLAT:??_R4CChartDesignPropertyAddInImp@@6BCIWUnknown@@@ ; CChartDesignPropertyAddInImp::`vftable'
	DD	FLAT:?GetRuntimeClass@CObject@@UBEPAUCRuntimeClass@@XZ
	DD	FLAT:??_ECChartDesignPropertyAddInImp@@UAEPAXI@Z
	DD	FLAT:?Serialize@CObject@@UAEXAAVCArchive@@@Z
	DD	FLAT:?AssertValid@CObject@@UBEXXZ
	DD	FLAT:?Dump@CObject@@UBEXAAVCDumpContext@@@Z
	DD	FLAT:?AddRef@CChartAddInBase134661@@MAGKXZ
	DD	FLAT:?Release@CChartAddInBase134661@@MAGKXZ
	DD	FLAT:?QueryInterface@CChartAddInBase134661@@MAGJABU_GUID@@PAPAX@Z
	DD	FLAT:?PostConstruct@CIWUnknown@@MAEXXZ
	DD	FLAT:?PreDestructX@CIWUnknown@@MAEXXZ
	DD	FLAT:?PreDestruct@CIWUnknown@@MAEXXZ
	DD	FLAT:?GetRegisteredEventMap@CChartDesignPropertyAddInImp@@MBEPBW4EAddInEventType@IChartAddIn134661@@XZ
CONST	ENDS
;	COMDAT ??_C@_0BA@ENJOCHIO@LoadResourceDLL@
CONST	SEGMENT
??_C@_0BA@ENJOCHIO@LoadResourceDLL@ DB 'LoadResourceDLL', 00H ; `string'
CONST	ENDS
;	COMDAT ??_C@_0BG@DINEKOFK@GetLocalLanguageTable@
CONST	SEGMENT
??_C@_0BG@DINEKOFK@GetLocalLanguageTable@ DB 'GetLocalLanguageTable', 00H ; `string'
CONST	ENDS
;	COMDAT ??_R1A@?0A@EA@CMenu@@8
rdata$r	SEGMENT
??_R1A@?0A@EA@CMenu@@8 DD FLAT:??_R0?AVCMenu@@@8	; CMenu::`RTTI Base Class Descriptor at (0,-1,0,64)'
	DD	01H
	DD	00H
	DD	0ffffffffH
	DD	00H
	DD	040H
	DD	FLAT:??_R3CMenu@@8
rdata$r	ENDS
;	COMDAT ??_R2CMenu@@8
rdata$r	SEGMENT
??_R2CMenu@@8 DD FLAT:??_R1A@?0A@EA@CMenu@@8		; CMenu::`RTTI Base Class Array'
	DD	FLAT:??_R1A@?0A@EA@CObject@@8
rdata$r	ENDS
;	COMDAT ??_R3CMenu@@8
rdata$r	SEGMENT
??_R3CMenu@@8 DD 00H					; CMenu::`RTTI Class Hierarchy Descriptor'
	DD	00H
	DD	02H
	DD	FLAT:??_R2CMenu@@8
rdata$r	ENDS
;	COMDAT ??_R0?AVCMenu@@@8
data$rs	SEGMENT
??_R0?AVCMenu@@@8 DD FLAT:??_7type_info@@6B@		; CMenu `RTTI Type Descriptor'
	DD	00H
	DB	'.?AVCMenu@@', 00H
data$rs	ENDS
;	COMDAT ??_R4CMenu@@6B@
rdata$r	SEGMENT
??_R4CMenu@@6B@ DD 00H					; CMenu::`RTTI Complete Object Locator'
	DD	00H
	DD	00H
	DD	FLAT:??_R0?AVCMenu@@@8
	DD	FLAT:??_R3CMenu@@8
rdata$r	ENDS
;	COMDAT ??_R1A@?0A@EA@IUnknown@@8
rdata$r	SEGMENT
??_R1A@?0A@EA@IUnknown@@8 DD FLAT:??_R0?AUIUnknown@@@8	; IUnknown::`RTTI Base Class Descriptor at (0,-1,0,64)'
	DD	00H
	DD	00H
	DD	0ffffffffH
	DD	00H
	DD	040H
	DD	FLAT:??_R3IUnknown@@8
rdata$r	ENDS
;	COMDAT ??_R2IUnknown@@8
rdata$r	SEGMENT
??_R2IUnknown@@8 DD FLAT:??_R1A@?0A@EA@IUnknown@@8	; IUnknown::`RTTI Base Class Array'
rdata$r	ENDS
;	COMDAT ??_R3IUnknown@@8
rdata$r	SEGMENT
??_R3IUnknown@@8 DD 00H					; IUnknown::`RTTI Class Hierarchy Descriptor'
	DD	00H
	DD	01H
	DD	FLAT:??_R2IUnknown@@8
rdata$r	ENDS
;	COMDAT ??_R0?AUIUnknown@@@8
data$rs	SEGMENT
??_R0?AUIUnknown@@@8 DD FLAT:??_7type_info@@6B@		; IUnknown `RTTI Type Descriptor'
	DD	00H
	DB	'.?AUIUnknown@@', 00H
data$rs	ENDS
;	COMDAT ??_R1A@?0A@EA@CObject@@8
rdata$r	SEGMENT
??_R1A@?0A@EA@CObject@@8 DD FLAT:??_R0?AVCObject@@@8	; CObject::`RTTI Base Class Descriptor at (0,-1,0,64)'
	DD	00H
	DD	00H
	DD	0ffffffffH
	DD	00H
	DD	040H
	DD	FLAT:??_R3CObject@@8
rdata$r	ENDS
;	COMDAT ??_R2CObject@@8
rdata$r	SEGMENT
??_R2CObject@@8 DD FLAT:??_R1A@?0A@EA@CObject@@8	; CObject::`RTTI Base Class Array'
rdata$r	ENDS
;	COMDAT ??_R3CObject@@8
rdata$r	SEGMENT
??_R3CObject@@8 DD 00H					; CObject::`RTTI Class Hierarchy Descriptor'
	DD	00H
	DD	01H
	DD	FLAT:??_R2CObject@@8
rdata$r	ENDS
;	COMDAT ??_R0?AVCObject@@@8
data$rs	SEGMENT
??_R0?AVCObject@@@8 DD FLAT:??_7type_info@@6B@		; CObject `RTTI Type Descriptor'
	DD	00H
	DB	'.?AVCObject@@', 00H
data$rs	ENDS
;	COMDAT ??_7CMenu@@6B@
CONST	SEGMENT
??_7CMenu@@6B@ DD FLAT:??_R4CMenu@@6B@			; CMenu::`vftable'
	DD	FLAT:?GetRuntimeClass@CMenu@@UBEPAUCRuntimeClass@@XZ
	DD	FLAT:??_ECMenu@@UAEPAXI@Z
	DD	FLAT:?Serialize@CObject@@UAEXAAVCArchive@@@Z
	DD	FLAT:?AssertValid@CObject@@UBEXXZ
	DD	FLAT:?Dump@CObject@@UBEXAAVCDumpContext@@@Z
	DD	FLAT:?DrawItem@CMenu@@UAEXPAUtagDRAWITEMSTRUCT@@@Z
	DD	FLAT:?MeasureItem@CMenu@@UAEXPAUtagMEASUREITEMSTRUCT@@@Z
CONST	ENDS
;	COMDAT ??_C@_00CNPNBAHC@@
CONST	SEGMENT
??_C@_00CNPNBAHC@@ DB 00H				; `string'
CONST	ENDS
;	COMDAT xdata$x
xdata$x	SEGMENT
__ehfuncinfo$?OnAddInToolCommand@CChartDesignPropertyAddInImp@@MAEHW4EAICommandType@@PAVCWnd@@AAVCPoint@@@Z DD 019930522H
	DD	06H
	DD	FLAT:__unwindtable$?OnAddInToolCommand@CChartDesignPropertyAddInImp@@MAEHW4EAICommandType@@PAVCWnd@@AAVCPoint@@@Z
	DD	2 DUP(00H)
	DD	2 DUP(00H)
	DD	00H
	DD	01H
__unwindtable$?OnAddInToolCommand@CChartDesignPropertyAddInImp@@MAEHW4EAICommandType@@PAVCWnd@@AAVCPoint@@@Z DD 0ffffffffH
	DD	FLAT:__unwindfunclet$?OnAddInToolCommand@CChartDesignPropertyAddInImp@@MAEHW4EAICommandType@@PAVCWnd@@AAVCPoint@@@Z$0
	DD	00H
	DD	FLAT:__unwindfunclet$?OnAddInToolCommand@CChartDesignPropertyAddInImp@@MAEHW4EAICommandType@@PAVCWnd@@AAVCPoint@@@Z$1
	DD	00H
	DD	00H
	DD	0ffffffffH
	DD	00H
	DD	00H
	DD	FLAT:___std_terminate
	DD	0ffffffffH
	DD	FLAT:___std_terminate
xdata$x	ENDS
;	COMDAT xdata$x
xdata$x	SEGMENT
__ehfuncinfo$?OnCmdMsg@CChartDesignPropertyAddInImp@@MAEHIHPAXPAUAFX_CMDHANDLERINFO@@@Z DD 019930522H
	DD	01aH
	DD	FLAT:__unwindtable$?OnCmdMsg@CChartDesignPropertyAddInImp@@MAEHIHPAXPAUAFX_CMDHANDLERINFO@@@Z
	DD	2 DUP(00H)
	DD	2 DUP(00H)
	DD	00H
	DD	01H
__unwindtable$?OnCmdMsg@CChartDesignPropertyAddInImp@@MAEHIHPAXPAUAFX_CMDHANDLERINFO@@@Z DD 0ffffffffH
	DD	FLAT:__unwindfunclet$?OnCmdMsg@CChartDesignPropertyAddInImp@@MAEHIHPAXPAUAFX_CMDHANDLERINFO@@@Z$0
	DD	00H
	DD	FLAT:__unwindfunclet$?OnCmdMsg@CChartDesignPropertyAddInImp@@MAEHIHPAXPAUAFX_CMDHANDLERINFO@@@Z$1
	DD	01H
	DD	FLAT:__unwindfunclet$?OnCmdMsg@CChartDesignPropertyAddInImp@@MAEHIHPAXPAUAFX_CMDHANDLERINFO@@@Z$2
	DD	00H
	DD	FLAT:___std_terminate
	DD	00H
	DD	00H
	DD	0ffffffffH
	DD	FLAT:__unwindfunclet$?OnCmdMsg@CChartDesignPropertyAddInImp@@MAEHIHPAXPAUAFX_CMDHANDLERINFO@@@Z$3
	DD	05H
	DD	FLAT:__unwindfunclet$?OnCmdMsg@CChartDesignPropertyAddInImp@@MAEHIHPAXPAUAFX_CMDHANDLERINFO@@@Z$4
	DD	06H
	DD	FLAT:__unwindfunclet$?OnCmdMsg@CChartDesignPropertyAddInImp@@MAEHIHPAXPAUAFX_CMDHANDLERINFO@@@Z$5
	DD	07H
	DD	FLAT:__unwindfunclet$?OnCmdMsg@CChartDesignPropertyAddInImp@@MAEHIHPAXPAUAFX_CMDHANDLERINFO@@@Z$6
	DD	08H
	DD	FLAT:__unwindfunclet$?OnCmdMsg@CChartDesignPropertyAddInImp@@MAEHIHPAXPAUAFX_CMDHANDLERINFO@@@Z$7
	DD	05H
	DD	FLAT:___std_terminate
	DD	05H
	DD	00H
	DD	0ffffffffH
	DD	FLAT:__unwindfunclet$?OnCmdMsg@CChartDesignPropertyAddInImp@@MAEHIHPAXPAUAFX_CMDHANDLERINFO@@@Z$8
	DD	0cH
	DD	FLAT:__unwindfunclet$?OnCmdMsg@CChartDesignPropertyAddInImp@@MAEHIHPAXPAUAFX_CMDHANDLERINFO@@@Z$9
	DD	0dH
	DD	FLAT:__unwindfunclet$?OnCmdMsg@CChartDesignPropertyAddInImp@@MAEHIHPAXPAUAFX_CMDHANDLERINFO@@@Z$10
	DD	0eH
	DD	FLAT:__unwindfunclet$?OnCmdMsg@CChartDesignPropertyAddInImp@@MAEHIHPAXPAUAFX_CMDHANDLERINFO@@@Z$11
	DD	0fH
	DD	FLAT:__unwindfunclet$?OnCmdMsg@CChartDesignPropertyAddInImp@@MAEHIHPAXPAUAFX_CMDHANDLERINFO@@@Z$12
	DD	0cH
	DD	FLAT:___std_terminate
	DD	0cH
	DD	00H
	DD	0ffffffffH
	DD	FLAT:__unwindfunclet$?OnCmdMsg@CChartDesignPropertyAddInImp@@MAEHIHPAXPAUAFX_CMDHANDLERINFO@@@Z$13
	DD	013H
	DD	FLAT:__unwindfunclet$?OnCmdMsg@CChartDesignPropertyAddInImp@@MAEHIHPAXPAUAFX_CMDHANDLERINFO@@@Z$14
	DD	014H
	DD	FLAT:__unwindfunclet$?OnCmdMsg@CChartDesignPropertyAddInImp@@MAEHIHPAXPAUAFX_CMDHANDLERINFO@@@Z$15
	DD	013H
	DD	FLAT:___std_terminate
	DD	013H
	DD	00H
	DD	0ffffffffH
	DD	FLAT:__unwindfunclet$?OnCmdMsg@CChartDesignPropertyAddInImp@@MAEHIHPAXPAUAFX_CMDHANDLERINFO@@@Z$16
	DD	0ffffffffH
	DD	FLAT:___std_terminate
xdata$x	ENDS
;	COMDAT xdata$x
xdata$x	SEGMENT
__unwindtable$??0CChartDesignPropertyAddInImp@@QAE@PAUIChartOCX134661@@PAUIAddInDllBase@@@Z DD 0ffffffffH
	DD	FLAT:__unwindfunclet$??0CChartDesignPropertyAddInImp@@QAE@PAUIChartOCX134661@@PAUIAddInDllBase@@@Z$0
__ehfuncinfo$??0CChartDesignPropertyAddInImp@@QAE@PAUIChartOCX134661@@PAUIAddInDllBase@@@Z DD 019930522H
	DD	01H
	DD	FLAT:__unwindtable$??0CChartDesignPropertyAddInImp@@QAE@PAUIChartOCX134661@@PAUIAddInDllBase@@@Z
	DD	2 DUP(00H)
	DD	2 DUP(00H)
	DD	00H
	DD	01H
xdata$x	ENDS
;	COMDAT xdata$x
xdata$x	SEGMENT
__ehfuncinfo$??1CMultiLanguageResourceSetter@@QAE@XZ DD 019930522H
	DD	00H
	DD	00H
	DD	2 DUP(00H)
	DD	2 DUP(00H)
	DD	00H
	DD	05H
xdata$x	ENDS
;	COMDAT xdata$x
xdata$x	SEGMENT
__unwindtable$??_GCMenu@@UAEPAXI@Z DD 0ffffffffH
	DD	FLAT:___std_terminate
__ehfuncinfo$??_GCMenu@@UAEPAXI@Z DD 019930522H
	DD	01H
	DD	FLAT:__unwindtable$??_GCMenu@@UAEPAXI@Z
	DD	2 DUP(00H)
	DD	2 DUP(00H)
	DD	00H
	DD	05H
xdata$x	ENDS
;	COMDAT xdata$x
xdata$x	SEGMENT
__ehfuncinfo$??1CMenu@@UAE@XZ DD 019930522H
	DD	00H
	DD	00H
	DD	2 DUP(00H)
	DD	2 DUP(00H)
	DD	00H
	DD	05H
xdata$x	ENDS
CRT$XCU	SEGMENT
??m_dlgGLT$initializer$@CChartDesignPropertyAddInImp@@2P6AXXZA@@3P6AXXZA DD FLAT:??__E?m_dlgGLT@CChartDesignPropertyAddInImp@@2VCDlgGlobalLanguageTable@@A@@YAXXZ ; ??m_dlgGLT$initializer$@CChartDesignPropertyAddInImp@@2P6AXXZA@@3P6AXXZA
CRT$XCU	ENDS
CRT$XCU	SEGMENT
??m_strAddInItemName$initializer$@CChartDesignPropertyAddInImp@@2P6AXXZA@@3P6AXXZA DD FLAT:??__E?m_strAddInItemName@CChartDesignPropertyAddInImp@@2V?$CStringT@DV?$StrTraitMFC_DLL@DV?$ChTraitsCRT@D@ATL@@@@@ATL@@A@@YAXXZ ; ??m_strAddInItemName$initializer$@CChartDesignPropertyAddInImp@@2P6AXXZA@@3P6AXXZA
CRT$XCU	ENDS
; Function compile flags: /Odsp
;	COMDAT ??_ECPropertyMap@@WBM@AEPAXI@Z
_TEXT	SEGMENT
??_ECPropertyMap@@WBM@AEPAXI@Z PROC			; [thunk]:CPropertyMap::`vector deleting destructor', COMDAT
  00000	83 e9 1c	 sub	 ecx, 28			; 0000001cH
  00003	e9 00 00 00 00	 jmp	 ??_ECPropertyMap@@UAEPAXI@Z
??_ECPropertyMap@@WBM@AEPAXI@Z ENDP			; [thunk]:CPropertyMap::`vector deleting destructor'
_TEXT	ENDS
; Function compile flags: /Odsp
;	COMDAT ??_ECChartDesignPropertyAddInImp@@W7AEPAXI@Z
_TEXT	SEGMENT
??_ECChartDesignPropertyAddInImp@@W7AEPAXI@Z PROC	; [thunk]:CChartDesignPropertyAddInImp::`vector deleting destructor', COMDAT
  00000	83 e9 08	 sub	 ecx, 8
  00003	e9 00 00 00 00	 jmp	 ??_ECChartDesignPropertyAddInImp@@UAEPAXI@Z
??_ECChartDesignPropertyAddInImp@@W7AEPAXI@Z ENDP	; [thunk]:CChartDesignPropertyAddInImp::`vector deleting destructor'
_TEXT	ENDS
; Function compile flags: /Odsp
;	COMDAT ?Release@CChartAddInBase134661@@O7AGKXZ
_TEXT	SEGMENT
?Release@CChartAddInBase134661@@O7AGKXZ PROC		; [thunk]:CChartAddInBase134661::Release`adjustor{8}', COMDAT
  00000	83 6c 24 04 08	 sub	 DWORD PTR [esp+4], 8
  00005	e9 00 00 00 00	 jmp	 ?Release@CChartAddInBase134661@@MAGKXZ ; CChartAddInBase134661::Release
?Release@CChartAddInBase134661@@O7AGKXZ ENDP		; [thunk]:CChartAddInBase134661::Release`adjustor{8}'
_TEXT	ENDS
; Function compile flags: /Odsp
;	COMDAT ?AddRef@CChartAddInBase134661@@O7AGKXZ
_TEXT	SEGMENT
?AddRef@CChartAddInBase134661@@O7AGKXZ PROC		; [thunk]:CChartAddInBase134661::AddRef`adjustor{8}', COMDAT
  00000	83 6c 24 04 08	 sub	 DWORD PTR [esp+4], 8
  00005	e9 00 00 00 00	 jmp	 ?AddRef@CChartAddInBase134661@@MAGKXZ ; CChartAddInBase134661::AddRef
?AddRef@CChartAddInBase134661@@O7AGKXZ ENDP		; [thunk]:CChartAddInBase134661::AddRef`adjustor{8}'
_TEXT	ENDS
; Function compile flags: /Odsp
;	COMDAT ?QueryInterface@CChartAddInBase134661@@O7AGJABU_GUID@@PAPAX@Z
_TEXT	SEGMENT
?QueryInterface@CChartAddInBase134661@@O7AGJABU_GUID@@PAPAX@Z PROC ; [thunk]:CChartAddInBase134661::QueryInterface`adjustor{8}', COMDAT
  00000	83 6c 24 04 08	 sub	 DWORD PTR [esp+4], 8
  00005	e9 00 00 00 00	 jmp	 ?QueryInterface@CChartAddInBase134661@@MAGJABU_GUID@@PAPAX@Z ; CChartAddInBase134661::QueryInterface
?QueryInterface@CChartAddInBase134661@@O7AGJABU_GUID@@PAPAX@Z ENDP ; [thunk]:CChartAddInBase134661::QueryInterface`adjustor{8}'
_TEXT	ENDS
; Function compile flags: /Ogtp
;	COMDAT ??__F?m_strAddInItemName@CChartDesignPropertyAddInImp@@2V?$CStringT@DV?$StrTraitMFC_DLL@DV?$ChTraitsCRT@D@ATL@@@@@ATL@@A@@YAXXZ
text$yd	SEGMENT
??__F?m_strAddInItemName@CChartDesignPropertyAddInImp@@2V?$CStringT@DV?$StrTraitMFC_DLL@DV?$ChTraitsCRT@D@ATL@@@@@ATL@@A@@YAXXZ PROC ; `dynamic atexit destructor for 'CChartDesignPropertyAddInImp::m_strAddInItemName'', COMDAT
  00000	b9 00 00 00 00	 mov	 ecx, OFFSET ?m_strAddInItemName@CChartDesignPropertyAddInImp@@2V?$CStringT@DV?$StrTraitMFC_DLL@DV?$ChTraitsCRT@D@ATL@@@@@ATL@@A ; CChartDesignPropertyAddInImp::m_strAddInItemName
  00005	ff 25 00 00 00
	00		 jmp	 DWORD PTR __imp_??1?$CStringT@DV?$StrTraitMFC_DLL@DV?$ChTraitsCRT@D@ATL@@@@@ATL@@QAE@XZ
??__F?m_strAddInItemName@CChartDesignPropertyAddInImp@@2V?$CStringT@DV?$StrTraitMFC_DLL@DV?$ChTraitsCRT@D@ATL@@@@@ATL@@A@@YAXXZ ENDP ; `dynamic atexit destructor for 'CChartDesignPropertyAddInImp::m_strAddInItemName''
text$yd	ENDS
; Function compile flags: /Ogtp
; File D:\git\src\IBK\IBK_DRFN\ProjSrc\SrcChartEx\ChartAddIn\ChartDesignPropertyAddIn\ChartDesignPropertyAddIn\ChartDesignPropertyAddInImp.cpp
;	COMDAT ??__E?m_strAddInItemName@CChartDesignPropertyAddInImp@@2V?$CStringT@DV?$StrTraitMFC_DLL@DV?$ChTraitsCRT@D@ATL@@@@@ATL@@A@@YAXXZ
text$di	SEGMENT
??__E?m_strAddInItemName@CChartDesignPropertyAddInImp@@2V?$CStringT@DV?$StrTraitMFC_DLL@DV?$ChTraitsCRT@D@ATL@@@@@ATL@@A@@YAXXZ PROC ; `dynamic initializer for 'CChartDesignPropertyAddInImp::m_strAddInItemName'', COMDAT

; 45   : CString CChartDesignPropertyAddInImp::m_strAddInItemName = "DESIGN_PROPERTY";

  00000	68 00 00 00 00	 push	 OFFSET ??_C@_0BA@NDJIMHLM@DESIGN_PROPERTY@
  00005	b9 00 00 00 00	 mov	 ecx, OFFSET ?m_strAddInItemName@CChartDesignPropertyAddInImp@@2V?$CStringT@DV?$StrTraitMFC_DLL@DV?$ChTraitsCRT@D@ATL@@@@@ATL@@A ; CChartDesignPropertyAddInImp::m_strAddInItemName
  0000a	ff 15 00 00 00
	00		 call	 DWORD PTR __imp_??0?$CStringT@DV?$StrTraitMFC_DLL@DV?$ChTraitsCRT@D@ATL@@@@@ATL@@QAE@PBD@Z
  00010	68 00 00 00 00	 push	 OFFSET ??__F?m_strAddInItemName@CChartDesignPropertyAddInImp@@2V?$CStringT@DV?$StrTraitMFC_DLL@DV?$ChTraitsCRT@D@ATL@@@@@ATL@@A@@YAXXZ ; `dynamic atexit destructor for 'CChartDesignPropertyAddInImp::m_strAddInItemName''
  00015	e8 00 00 00 00	 call	 _atexit
  0001a	59		 pop	 ecx
  0001b	c3		 ret	 0
??__E?m_strAddInItemName@CChartDesignPropertyAddInImp@@2V?$CStringT@DV?$StrTraitMFC_DLL@DV?$ChTraitsCRT@D@ATL@@@@@ATL@@A@@YAXXZ ENDP ; `dynamic initializer for 'CChartDesignPropertyAddInImp::m_strAddInItemName''
text$di	ENDS
; Function compile flags: /Ogtp
;	COMDAT ??__F?m_dlgGLT@CChartDesignPropertyAddInImp@@2VCDlgGlobalLanguageTable@@A@@YAXXZ
text$yd	SEGMENT
??__F?m_dlgGLT@CChartDesignPropertyAddInImp@@2VCDlgGlobalLanguageTable@@A@@YAXXZ PROC ; `dynamic atexit destructor for 'CChartDesignPropertyAddInImp::m_dlgGLT'', COMDAT
  00000	b9 28 01 00 00	 mov	 ecx, OFFSET ?m_dlgGLT@CChartDesignPropertyAddInImp@@2VCDlgGlobalLanguageTable@@A+296
  00005	e8 00 00 00 00	 call	 ??1CListCtrl@@UAE@XZ	; CListCtrl::~CListCtrl
  0000a	b9 a8 00 00 00	 mov	 ecx, OFFSET ?m_dlgGLT@CChartDesignPropertyAddInImp@@2VCDlgGlobalLanguageTable@@A+168
  0000f	e8 00 00 00 00	 call	 ??1CComboBox@@UAE@XZ	; CComboBox::~CComboBox
  00014	b9 00 00 00 00	 mov	 ecx, OFFSET ?m_dlgGLT@CChartDesignPropertyAddInImp@@2VCDlgGlobalLanguageTable@@A ; CChartDesignPropertyAddInImp::m_dlgGLT
  00019	e9 00 00 00 00	 jmp	 ??1CDialog@@UAE@XZ	; CDialog::~CDialog
??__F?m_dlgGLT@CChartDesignPropertyAddInImp@@2VCDlgGlobalLanguageTable@@A@@YAXXZ ENDP ; `dynamic atexit destructor for 'CChartDesignPropertyAddInImp::m_dlgGLT''
text$yd	ENDS
; Function compile flags: /Ogtp
; File D:\git\src\IBK\IBK_DRFN\ProjSrc\SrcChartEx\ChartAddIn\ChartDesignPropertyAddIn\ChartDesignPropertyAddIn\ChartDesignPropertyAddInImp.cpp
;	COMDAT ??__E?m_dlgGLT@CChartDesignPropertyAddInImp@@2VCDlgGlobalLanguageTable@@A@@YAXXZ
text$di	SEGMENT
??__E?m_dlgGLT@CChartDesignPropertyAddInImp@@2VCDlgGlobalLanguageTable@@A@@YAXXZ PROC ; `dynamic initializer for 'CChartDesignPropertyAddInImp::m_dlgGLT'', COMDAT

; 29   : CDlgGlobalLanguageTable CChartDesignPropertyAddInImp::m_dlgGLT;

  00000	6a 00		 push	 0
  00002	b9 00 00 00 00	 mov	 ecx, OFFSET ?m_dlgGLT@CChartDesignPropertyAddInImp@@2VCDlgGlobalLanguageTable@@A ; CChartDesignPropertyAddInImp::m_dlgGLT
  00007	e8 00 00 00 00	 call	 ??0CDlgGlobalLanguageTable@@QAE@PAVCWnd@@@Z ; CDlgGlobalLanguageTable::CDlgGlobalLanguageTable
  0000c	68 00 00 00 00	 push	 OFFSET ??__F?m_dlgGLT@CChartDesignPropertyAddInImp@@2VCDlgGlobalLanguageTable@@A@@YAXXZ ; `dynamic atexit destructor for 'CChartDesignPropertyAddInImp::m_dlgGLT''
  00011	e8 00 00 00 00	 call	 _atexit
  00016	59		 pop	 ecx
  00017	c3		 ret	 0
??__E?m_dlgGLT@CChartDesignPropertyAddInImp@@2VCDlgGlobalLanguageTable@@A@@YAXXZ ENDP ; `dynamic initializer for 'CChartDesignPropertyAddInImp::m_dlgGLT''
text$di	ENDS
; Function compile flags: /Ogtp
;	COMDAT ??1CDlgLocalLanguageTable@@UAE@XZ
_TEXT	SEGMENT
??1CDlgLocalLanguageTable@@UAE@XZ PROC			; CDlgLocalLanguageTable::~CDlgLocalLanguageTable, COMDAT
; _this$ = ecx
  00000	56		 push	 esi
  00001	8b f1		 mov	 esi, ecx
  00003	8d 8e 48 01 00
	00		 lea	 ecx, DWORD PTR [esi+328]
  00009	e8 00 00 00 00	 call	 ??1CStringList@@UAE@XZ	; CStringList::~CStringList
  0000e	8d 8e 44 01 00
	00		 lea	 ecx, DWORD PTR [esi+324]
  00014	ff 15 00 00 00
	00		 call	 DWORD PTR __imp_??1?$CStringT@DV?$StrTraitMFC_DLL@DV?$ChTraitsCRT@D@ATL@@@@@ATL@@QAE@XZ
  0001a	8d 8e a8 00 00
	00		 lea	 ecx, DWORD PTR [esi+168]
  00020	e8 00 00 00 00	 call	 ??1CEditableListCtrl@@UAE@XZ ; CEditableListCtrl::~CEditableListCtrl
  00025	8b ce		 mov	 ecx, esi
  00027	5e		 pop	 esi
  00028	e9 00 00 00 00	 jmp	 ??1CDialog@@UAE@XZ	; CDialog::~CDialog
??1CDlgLocalLanguageTable@@UAE@XZ ENDP			; CDlgLocalLanguageTable::~CDlgLocalLanguageTable
_TEXT	ENDS
; Function compile flags: /Ogtp
;	COMDAT ??1CDFontPropPage@@UAE@XZ
_TEXT	SEGMENT
??1CDFontPropPage@@UAE@XZ PROC				; CDFontPropPage::~CDFontPropPage, COMDAT
; _this$ = ecx
  00000	56		 push	 esi
  00001	8b f1		 mov	 esi, ecx
  00003	8d 8e 40 04 00
	00		 lea	 ecx, DWORD PTR [esi+1088]
  00009	ff 15 00 00 00
	00		 call	 DWORD PTR __imp_??1?$CStringT@DV?$StrTraitMFC_DLL@DV?$ChTraitsCRT@D@ATL@@@@@ATL@@QAE@XZ
  0000f	8d 8e c0 03 00
	00		 lea	 ecx, DWORD PTR [esi+960]
  00015	e8 00 00 00 00	 call	 ??1CStatic@@UAE@XZ	; CStatic::~CStatic
  0001a	8d 8e 40 03 00
	00		 lea	 ecx, DWORD PTR [esi+832]
  00020	e8 00 00 00 00	 call	 ??1CComboBox@@UAE@XZ	; CComboBox::~CComboBox
  00025	8d 8e c0 02 00
	00		 lea	 ecx, DWORD PTR [esi+704]
  0002b	e8 00 00 00 00	 call	 ??1CComboBox@@UAE@XZ	; CComboBox::~CComboBox
  00030	8d 8e 40 02 00
	00		 lea	 ecx, DWORD PTR [esi+576]
  00036	e8 00 00 00 00	 call	 ??1CButton@@UAE@XZ	; CButton::~CButton
  0003b	8d 8e c0 01 00
	00		 lea	 ecx, DWORD PTR [esi+448]
  00041	e8 00 00 00 00	 call	 ??1CButton@@UAE@XZ	; CButton::~CButton
  00046	8d 8e 40 01 00
	00		 lea	 ecx, DWORD PTR [esi+320]
  0004c	e8 00 00 00 00	 call	 ??1CButton@@UAE@XZ	; CButton::~CButton
  00051	8d 8e c0 00 00
	00		 lea	 ecx, DWORD PTR [esi+192]
  00057	e8 00 00 00 00	 call	 ??1CButton@@UAE@XZ	; CButton::~CButton
  0005c	8d 8e a8 00 00
	00		 lea	 ecx, DWORD PTR [esi+168]
  00062	ff 15 00 00 00
	00		 call	 DWORD PTR __imp_??1?$CStringT@DV?$StrTraitMFC_DLL@DV?$ChTraitsCRT@D@ATL@@@@@ATL@@QAE@XZ
  00068	8b ce		 mov	 ecx, esi
  0006a	5e		 pop	 esi
  0006b	e9 00 00 00 00	 jmp	 ??1CDialog@@UAE@XZ	; CDialog::~CDialog
??1CDFontPropPage@@UAE@XZ ENDP				; CDFontPropPage::~CDFontPropPage
_TEXT	ENDS
; Function compile flags: /Ogtp
;	COMDAT ??__FstrValue@?1??GetNextAssoc@CPropertyMap@@EBEXAAPAU__POSITION@@AAPBD1@Z@YAXXZ
text$yd	SEGMENT
??__FstrValue@?1??GetNextAssoc@CPropertyMap@@EBEXAAPAU__POSITION@@AAPBD1@Z@YAXXZ PROC ; `CPropertyMap::GetNextAssoc'::`2'::`dynamic atexit destructor for 'strValue'', COMDAT
  00000	b9 00 00 00 00	 mov	 ecx, OFFSET ?strValue@?1??GetNextAssoc@CPropertyMap@@EBEXAAPAU__POSITION@@AAPBD1@Z@4V?$CStringT@DV?$StrTraitMFC_DLL@DV?$ChTraitsCRT@D@ATL@@@@@ATL@@A ; `CPropertyMap::GetNextAssoc'::`2'::strValue
  00005	ff 25 00 00 00
	00		 jmp	 DWORD PTR __imp_??1?$CStringT@DV?$StrTraitMFC_DLL@DV?$ChTraitsCRT@D@ATL@@@@@ATL@@QAE@XZ
??__FstrValue@?1??GetNextAssoc@CPropertyMap@@EBEXAAPAU__POSITION@@AAPBD1@Z@YAXXZ ENDP ; `CPropertyMap::GetNextAssoc'::`2'::`dynamic atexit destructor for 'strValue''
text$yd	ENDS
; Function compile flags: /Ogtp
;	COMDAT ??__FstrKey@?1??GetNextAssoc@CPropertyMap@@EBEXAAPAU__POSITION@@AAPBD1@Z@YAXXZ
text$yd	SEGMENT
??__FstrKey@?1??GetNextAssoc@CPropertyMap@@EBEXAAPAU__POSITION@@AAPBD1@Z@YAXXZ PROC ; `CPropertyMap::GetNextAssoc'::`2'::`dynamic atexit destructor for 'strKey'', COMDAT
  00000	b9 00 00 00 00	 mov	 ecx, OFFSET ?strKey@?1??GetNextAssoc@CPropertyMap@@EBEXAAPAU__POSITION@@AAPBD1@Z@4V?$CStringT@DV?$StrTraitMFC_DLL@DV?$ChTraitsCRT@D@ATL@@@@@ATL@@A ; `CPropertyMap::GetNextAssoc'::`2'::strKey
  00005	ff 25 00 00 00
	00		 jmp	 DWORD PTR __imp_??1?$CStringT@DV?$StrTraitMFC_DLL@DV?$ChTraitsCRT@D@ATL@@@@@ATL@@QAE@XZ
??__FstrKey@?1??GetNextAssoc@CPropertyMap@@EBEXAAPAU__POSITION@@AAPBD1@Z@YAXXZ ENDP ; `CPropertyMap::GetNextAssoc'::`2'::`dynamic atexit destructor for 'strKey''
text$yd	ENDS
; Function compile flags: /Ogtp
;	COMDAT ??__FstrValue@?1??Lookup@CPropertyMap@@EBEHPBDAAPAD@Z@YAXXZ
text$yd	SEGMENT
??__FstrValue@?1??Lookup@CPropertyMap@@EBEHPBDAAPAD@Z@YAXXZ PROC ; `CPropertyMap::Lookup'::`2'::`dynamic atexit destructor for 'strValue'', COMDAT
  00000	b9 00 00 00 00	 mov	 ecx, OFFSET ?strValue@?1??Lookup@CPropertyMap@@EBEHPBDAAPAD@Z@4V?$CStringT@DV?$StrTraitMFC_DLL@DV?$ChTraitsCRT@D@ATL@@@@@ATL@@A ; `CPropertyMap::Lookup'::`2'::strValue
  00005	ff 25 00 00 00
	00		 jmp	 DWORD PTR __imp_??1?$CStringT@DV?$StrTraitMFC_DLL@DV?$ChTraitsCRT@D@ATL@@@@@ATL@@QAE@XZ
??__FstrValue@?1??Lookup@CPropertyMap@@EBEHPBDAAPAD@Z@YAXXZ ENDP ; `CPropertyMap::Lookup'::`2'::`dynamic atexit destructor for 'strValue''
text$yd	ENDS
; Function compile flags: /Ogtp
; File C:\Program Files (x86)\Microsoft Visual Studio\2019\Community\VC\Tools\MSVC\14.29.30133\atlmfc\include\afx.inl
;	COMDAT ??_GCPropertyMap@@UAEPAXI@Z
_TEXT	SEGMENT
___flags$ = 8						; size = 4
??_GCPropertyMap@@UAEPAXI@Z PROC			; CPropertyMap::`scalar deleting destructor', COMDAT
; _this$ = ecx
  00000	55		 push	 ebp
  00001	8b ec		 mov	 ebp, esp
  00003	56		 push	 esi
  00004	8b f1		 mov	 esi, ecx
  00006	c7 46 1c 00 00
	00 00		 mov	 DWORD PTR [esi+28], OFFSET ??_7IPropertyMap@@6B@
  0000d	e8 00 00 00 00	 call	 ??1CMapStringToString@@UAE@XZ ; CMapStringToString::~CMapStringToString
  00012	8b 45 08	 mov	 eax, DWORD PTR ___flags$[ebp]
  00015	a8 01		 test	 al, 1
  00017	74 1f		 je	 SHORT $LN12@scalar
  00019	a8 04		 test	 al, 4
  0001b	75 10		 jne	 SHORT $LN3@scalar

; 112  : 	{ ::operator delete(p); }

  0001d	56		 push	 esi
  0001e	e8 00 00 00 00	 call	 ??3@YAXPAX@Z		; operator delete
  00023	83 c4 04	 add	 esp, 4
  00026	8b c6		 mov	 eax, esi
  00028	5e		 pop	 esi
  00029	5d		 pop	 ebp
  0002a	c2 04 00	 ret	 4
$LN3@scalar:
  0002d	6a 20		 push	 32			; 00000020H
  0002f	56		 push	 esi
  00030	e8 00 00 00 00	 call	 ?__global_delete@@YAXPAXI@Z ; __global_delete
  00035	83 c4 08	 add	 esp, 8
$LN12@scalar:
  00038	8b c6		 mov	 eax, esi
  0003a	5e		 pop	 esi
  0003b	5d		 pop	 ebp
  0003c	c2 04 00	 ret	 4
??_GCPropertyMap@@UAEPAXI@Z ENDP			; CPropertyMap::`scalar deleting destructor'
_TEXT	ENDS
; Function compile flags: /Ogtp
;	COMDAT ??1CPropertyMap@@UAE@XZ
_TEXT	SEGMENT
??1CPropertyMap@@UAE@XZ PROC				; CPropertyMap::~CPropertyMap, COMDAT
; _this$ = ecx
  00000	c7 41 1c 00 00
	00 00		 mov	 DWORD PTR [ecx+28], OFFSET ??_7IPropertyMap@@6B@
  00007	e9 00 00 00 00	 jmp	 ??1CMapStringToString@@UAE@XZ ; CMapStringToString::~CMapStringToString
??1CPropertyMap@@UAE@XZ ENDP				; CPropertyMap::~CPropertyMap
_TEXT	ENDS
; Function compile flags: /Ogtp
;	COMDAT ??0CPropertyMap@@QAE@XZ
_TEXT	SEGMENT
_this$ = -4						; size = 4
??0CPropertyMap@@QAE@XZ PROC				; CPropertyMap::CPropertyMap, COMDAT
; _this$ = ecx
  00000	55		 push	 ebp
  00001	8b ec		 mov	 ebp, esp
  00003	51		 push	 ecx
  00004	56		 push	 esi
  00005	8b f1		 mov	 esi, ecx
  00007	6a 0a		 push	 10			; 0000000aH
  00009	89 75 fc	 mov	 DWORD PTR _this$[ebp], esi
  0000c	e8 00 00 00 00	 call	 ??0CMapStringToString@@QAE@H@Z ; CMapStringToString::CMapStringToString
  00011	c7 46 1c 00 00
	00 00		 mov	 DWORD PTR [esi+28], OFFSET ??_7IPropertyMap@@6B@
  00018	8b c6		 mov	 eax, esi
  0001a	c7 06 00 00 00
	00		 mov	 DWORD PTR [esi], OFFSET ??_7CPropertyMap@@6BCMapStringToString@@@
  00020	c7 46 1c 00 00
	00 00		 mov	 DWORD PTR [esi+28], OFFSET ??_7CPropertyMap@@6BIPropertyMap@@@
  00027	5e		 pop	 esi
  00028	8b e5		 mov	 esp, ebp
  0002a	5d		 pop	 ebp
  0002b	c3		 ret	 0
??0CPropertyMap@@QAE@XZ ENDP				; CPropertyMap::CPropertyMap
_TEXT	ENDS
; Function compile flags: /Ogtp
; File D:\git\src\IBK\IBK_DRFN\ProjSrc\SrcChartEx\ChartAddIn\ChartDesignPropertyAddIn\Include_Chart\PropertyMap.h
;	COMDAT ?InitHashTable@CPropertyMap@@EAEXIH@Z
_TEXT	SEGMENT
_hashSize$ = 8						; size = 4
_bAllocNow$ = 12					; size = 4
?InitHashTable@CPropertyMap@@EAEXIH@Z PROC		; CPropertyMap::InitHashTable, COMDAT
; _this$ = ecx

; 63   : 	virtual void InitHashTable(UINT hashSize, BOOL bAllocNow = TRUE)	{	CMapStringToString::InitHashTable( hashSize, bAllocNow);	}

  00000	55		 push	 ebp
  00001	8b ec		 mov	 ebp, esp
  00003	83 c1 e4	 add	 ecx, -28		; ffffffe4H
  00006	5d		 pop	 ebp
  00007	e9 00 00 00 00	 jmp	 ?InitHashTable@CMapStringToString@@QAEXIH@Z ; CMapStringToString::InitHashTable
?InitHashTable@CPropertyMap@@EAEXIH@Z ENDP		; CPropertyMap::InitHashTable
_TEXT	ENDS
; Function compile flags: /Ogtp
; File D:\git\src\IBK\IBK_DRFN\ProjSrc\SrcChartEx\ChartAddIn\ChartDesignPropertyAddIn\Include_Chart\PropertyMap.h
;	COMDAT ?GetHashTableSize@CPropertyMap@@EBEIXZ
_TEXT	SEGMENT
?GetHashTableSize@CPropertyMap@@EBEIXZ PROC		; CPropertyMap::GetHashTableSize, COMDAT
; _this$ = ecx

; 62   : 	virtual UINT GetHashTableSize() const								{	return CMapStringToString::GetHashTableSize();	}

  00000	8b 41 ec	 mov	 eax, DWORD PTR [ecx-20]
  00003	c3		 ret	 0
?GetHashTableSize@CPropertyMap@@EBEIXZ ENDP		; CPropertyMap::GetHashTableSize
_TEXT	ENDS
; Function compile flags: /Ogtp
; File D:\git\src\IBK\IBK_DRFN\ProjSrc\SrcChartEx\ChartAddIn\ChartDesignPropertyAddIn\Include_Chart\PropertyMap.h
;	COMDAT ?GetNextAssoc@CPropertyMap@@EBEXAAPAU__POSITION@@AAPBD1@Z
_TEXT	SEGMENT
_rNextPosition$ = 8					; size = 4
_rKey$ = 12						; size = 4
_rValue$ = 16						; size = 4
?GetNextAssoc@CPropertyMap@@EBEXAAPAU__POSITION@@AAPBD1@Z PROC ; CPropertyMap::GetNextAssoc, COMDAT
; _this$ = ecx

; 55   : 	{

  00000	55		 push	 ebp
  00001	8b ec		 mov	 ebp, esp

; 56   : 		static CString strKey, strValue;

  00003	64 a1 00 00 00
	00		 mov	 eax, DWORD PTR fs:__tls_array
  00009	8b 15 00 00 00
	00		 mov	 edx, DWORD PTR __tls_index
  0000f	56		 push	 esi
  00010	57		 push	 edi
  00011	8b f9		 mov	 edi, ecx
  00013	8b 34 90	 mov	 esi, DWORD PTR [eax+edx*4]
  00016	a1 00 00 00 00	 mov	 eax, DWORD PTR ?$TSS0@?1??GetNextAssoc@CPropertyMap@@EBEXAAPAU__POSITION@@AAPBD1@Z@4HA ; `CPropertyMap::GetNextAssoc'::`2'::$TSS0
  0001b	3b 86 00 00 00
	00		 cmp	 eax, DWORD PTR __Init_thread_epoch[esi]
  00021	7f 3c		 jg	 SHORT $LN10@GetNextAss
$LN2@GetNextAss:
  00023	a1 00 00 00 00	 mov	 eax, DWORD PTR ?$TSS1@?1??GetNextAssoc@CPropertyMap@@EBEXAAPAU__POSITION@@AAPBD1@Z@4HA ; `CPropertyMap::GetNextAssoc'::`2'::$TSS1
  00028	3b 86 00 00 00
	00		 cmp	 eax, DWORD PTR __Init_thread_epoch[esi]
  0002e	7f 69		 jg	 SHORT $LN11@GetNextAss
$LN3@GetNextAss:

; 57   : 		CMapStringToString::GetNextAssoc( rNextPosition, strKey, strValue);

  00030	68 00 00 00 00	 push	 OFFSET ?strValue@?1??GetNextAssoc@CPropertyMap@@EBEXAAPAU__POSITION@@AAPBD1@Z@4V?$CStringT@DV?$StrTraitMFC_DLL@DV?$ChTraitsCRT@D@ATL@@@@@ATL@@A ; `CPropertyMap::GetNextAssoc'::`2'::strValue
  00035	68 00 00 00 00	 push	 OFFSET ?strKey@?1??GetNextAssoc@CPropertyMap@@EBEXAAPAU__POSITION@@AAPBD1@Z@4V?$CStringT@DV?$StrTraitMFC_DLL@DV?$ChTraitsCRT@D@ATL@@@@@ATL@@A ; `CPropertyMap::GetNextAssoc'::`2'::strKey
  0003a	ff 75 08	 push	 DWORD PTR _rNextPosition$[ebp]
  0003d	8d 4f e4	 lea	 ecx, DWORD PTR [edi-28]
  00040	e8 00 00 00 00	 call	 ?GetNextAssoc@CMapStringToString@@QBEXAAPAU__POSITION@@AAV?$CStringT@DV?$StrTraitMFC_DLL@DV?$ChTraitsCRT@D@ATL@@@@@ATL@@1@Z ; CMapStringToString::GetNextAssoc

; 58   : 		rKey	= strKey;

  00045	8b 4d 0c	 mov	 ecx, DWORD PTR _rKey$[ebp]
  00048	a1 00 00 00 00	 mov	 eax, DWORD PTR ?strKey@?1??GetNextAssoc@CPropertyMap@@EBEXAAPAU__POSITION@@AAPBD1@Z@4V?$CStringT@DV?$StrTraitMFC_DLL@DV?$ChTraitsCRT@D@ATL@@@@@ATL@@A ; `CPropertyMap::GetNextAssoc'::`2'::strKey

; 59   : 		rValue	= strValue;

  0004d	5f		 pop	 edi
  0004e	5e		 pop	 esi
  0004f	89 01		 mov	 DWORD PTR [ecx], eax
  00051	8b 4d 10	 mov	 ecx, DWORD PTR _rValue$[ebp]
  00054	a1 00 00 00 00	 mov	 eax, DWORD PTR ?strValue@?1??GetNextAssoc@CPropertyMap@@EBEXAAPAU__POSITION@@AAPBD1@Z@4V?$CStringT@DV?$StrTraitMFC_DLL@DV?$ChTraitsCRT@D@ATL@@@@@ATL@@A ; `CPropertyMap::GetNextAssoc'::`2'::strValue
  00059	89 01		 mov	 DWORD PTR [ecx], eax

; 60   : 	}

  0005b	5d		 pop	 ebp
  0005c	c2 0c 00	 ret	 12			; 0000000cH
$LN10@GetNextAss:

; 56   : 		static CString strKey, strValue;

  0005f	68 00 00 00 00	 push	 OFFSET ?$TSS0@?1??GetNextAssoc@CPropertyMap@@EBEXAAPAU__POSITION@@AAPBD1@Z@4HA ; `CPropertyMap::GetNextAssoc'::`2'::$TSS0
  00064	e8 00 00 00 00	 call	 __Init_thread_header
  00069	83 c4 04	 add	 esp, 4
  0006c	83 3d 00 00 00
	00 ff		 cmp	 DWORD PTR ?$TSS0@?1??GetNextAssoc@CPropertyMap@@EBEXAAPAU__POSITION@@AAPBD1@Z@4HA, -1 ; `CPropertyMap::GetNextAssoc'::`2'::$TSS0
  00073	75 ae		 jne	 SHORT $LN2@GetNextAss
  00075	b9 00 00 00 00	 mov	 ecx, OFFSET ?strKey@?1??GetNextAssoc@CPropertyMap@@EBEXAAPAU__POSITION@@AAPBD1@Z@4V?$CStringT@DV?$StrTraitMFC_DLL@DV?$ChTraitsCRT@D@ATL@@@@@ATL@@A ; `CPropertyMap::GetNextAssoc'::`2'::strKey
  0007a	ff 15 00 00 00
	00		 call	 DWORD PTR __imp_??0?$CStringT@DV?$StrTraitMFC_DLL@DV?$ChTraitsCRT@D@ATL@@@@@ATL@@QAE@XZ
  00080	68 00 00 00 00	 push	 OFFSET ??__FstrKey@?1??GetNextAssoc@CPropertyMap@@EBEXAAPAU__POSITION@@AAPBD1@Z@YAXXZ ; `CPropertyMap::GetNextAssoc'::`2'::`dynamic atexit destructor for 'strKey''
  00085	e8 00 00 00 00	 call	 _atexit
  0008a	68 00 00 00 00	 push	 OFFSET ?$TSS0@?1??GetNextAssoc@CPropertyMap@@EBEXAAPAU__POSITION@@AAPBD1@Z@4HA ; `CPropertyMap::GetNextAssoc'::`2'::$TSS0
  0008f	e8 00 00 00 00	 call	 __Init_thread_footer
  00094	83 c4 08	 add	 esp, 8
  00097	eb 8a		 jmp	 SHORT $LN2@GetNextAss
$LN11@GetNextAss:
  00099	68 00 00 00 00	 push	 OFFSET ?$TSS1@?1??GetNextAssoc@CPropertyMap@@EBEXAAPAU__POSITION@@AAPBD1@Z@4HA ; `CPropertyMap::GetNextAssoc'::`2'::$TSS1
  0009e	e8 00 00 00 00	 call	 __Init_thread_header
  000a3	83 c4 04	 add	 esp, 4
  000a6	83 3d 00 00 00
	00 ff		 cmp	 DWORD PTR ?$TSS1@?1??GetNextAssoc@CPropertyMap@@EBEXAAPAU__POSITION@@AAPBD1@Z@4HA, -1 ; `CPropertyMap::GetNextAssoc'::`2'::$TSS1
  000ad	75 81		 jne	 SHORT $LN3@GetNextAss
  000af	b9 00 00 00 00	 mov	 ecx, OFFSET ?strValue@?1??GetNextAssoc@CPropertyMap@@EBEXAAPAU__POSITION@@AAPBD1@Z@4V?$CStringT@DV?$StrTraitMFC_DLL@DV?$ChTraitsCRT@D@ATL@@@@@ATL@@A ; `CPropertyMap::GetNextAssoc'::`2'::strValue
  000b4	ff 15 00 00 00
	00		 call	 DWORD PTR __imp_??0?$CStringT@DV?$StrTraitMFC_DLL@DV?$ChTraitsCRT@D@ATL@@@@@ATL@@QAE@XZ
  000ba	68 00 00 00 00	 push	 OFFSET ??__FstrValue@?1??GetNextAssoc@CPropertyMap@@EBEXAAPAU__POSITION@@AAPBD1@Z@YAXXZ ; `CPropertyMap::GetNextAssoc'::`2'::`dynamic atexit destructor for 'strValue''
  000bf	e8 00 00 00 00	 call	 _atexit
  000c4	68 00 00 00 00	 push	 OFFSET ?$TSS1@?1??GetNextAssoc@CPropertyMap@@EBEXAAPAU__POSITION@@AAPBD1@Z@4HA ; `CPropertyMap::GetNextAssoc'::`2'::$TSS1
  000c9	e8 00 00 00 00	 call	 __Init_thread_footer
  000ce	83 c4 08	 add	 esp, 8
  000d1	e9 5a ff ff ff	 jmp	 $LN3@GetNextAss
?GetNextAssoc@CPropertyMap@@EBEXAAPAU__POSITION@@AAPBD1@Z ENDP ; CPropertyMap::GetNextAssoc
_TEXT	ENDS
; Function compile flags: /Ogtp
; File D:\git\src\IBK\IBK_DRFN\ProjSrc\SrcChartEx\ChartAddIn\ChartDesignPropertyAddIn\Include_Chart\PropertyMap.h
; File C:\Program Files (x86)\Microsoft Visual Studio\2019\Community\VC\Tools\MSVC\14.29.30133\atlmfc\include\afxcoll.inl
; File D:\git\src\IBK\IBK_DRFN\ProjSrc\SrcChartEx\ChartAddIn\ChartDesignPropertyAddIn\Include_Chart\PropertyMap.h
;	COMDAT ?GetStartPosition@CPropertyMap@@EBEPAU__POSITION@@XZ
_TEXT	SEGMENT
?GetStartPosition@CPropertyMap@@EBEPAU__POSITION@@XZ PROC ; CPropertyMap::GetStartPosition, COMDAT
; _this$ = ecx
; File C:\Program Files (x86)\Microsoft Visual Studio\2019\Community\VC\Tools\MSVC\14.29.30133\atlmfc\include\afxcoll.inl

; 660  : 	{ return (m_nCount == 0) ? NULL : BEFORE_START_POSITION; }

  00000	8b 41 f0	 mov	 eax, DWORD PTR [ecx-16]
  00003	f7 d8		 neg	 eax
  00005	1b c0		 sbb	 eax, eax
; File D:\git\src\IBK\IBK_DRFN\ProjSrc\SrcChartEx\ChartAddIn\ChartDesignPropertyAddIn\Include_Chart\PropertyMap.h

; 53   : 	virtual POSITION GetStartPosition() const							{	return CMapStringToString::GetStartPosition();	}

  00007	c3		 ret	 0
?GetStartPosition@CPropertyMap@@EBEPAU__POSITION@@XZ ENDP ; CPropertyMap::GetStartPosition
_TEXT	ENDS
; Function compile flags: /Ogtp
; File D:\git\src\IBK\IBK_DRFN\ProjSrc\SrcChartEx\ChartAddIn\ChartDesignPropertyAddIn\Include_Chart\PropertyMap.h
;	COMDAT ?RemoveAll@CPropertyMap@@EAEXXZ
_TEXT	SEGMENT
?RemoveAll@CPropertyMap@@EAEXXZ PROC			; CPropertyMap::RemoveAll, COMDAT
; _this$ = ecx

; 50   : 	virtual void RemoveAll()											{	CMapStringToString::RemoveAll();	}

  00000	83 c1 e4	 add	 ecx, -28		; ffffffe4H
  00003	e9 00 00 00 00	 jmp	 ?RemoveAll@CMapStringToString@@QAEXXZ ; CMapStringToString::RemoveAll
?RemoveAll@CPropertyMap@@EAEXXZ ENDP			; CPropertyMap::RemoveAll
_TEXT	ENDS
; Function compile flags: /Ogtp
; File D:\git\src\IBK\IBK_DRFN\ProjSrc\SrcChartEx\ChartAddIn\ChartDesignPropertyAddIn\Include_Chart\PropertyMap.h
;	COMDAT ?RemoveKey@CPropertyMap@@EAEHPBD@Z
_TEXT	SEGMENT
_key$ = 8						; size = 4
?RemoveKey@CPropertyMap@@EAEHPBD@Z PROC			; CPropertyMap::RemoveKey, COMDAT
; _this$ = ecx

; 49   : 	virtual BOOL RemoveKey(LPCTSTR key)									{	return CMapStringToString::RemoveKey( key);	}

  00000	55		 push	 ebp
  00001	8b ec		 mov	 ebp, esp
  00003	83 c1 e4	 add	 ecx, -28		; ffffffe4H
  00006	5d		 pop	 ebp
  00007	e9 00 00 00 00	 jmp	 ?RemoveKey@CMapStringToString@@QAEHPBD@Z ; CMapStringToString::RemoveKey
?RemoveKey@CPropertyMap@@EAEHPBD@Z ENDP			; CPropertyMap::RemoveKey
_TEXT	ENDS
; Function compile flags: /Ogtp
; File D:\git\src\IBK\IBK_DRFN\ProjSrc\SrcChartEx\ChartAddIn\ChartDesignPropertyAddIn\Include_Chart\PropertyMap.h
; File C:\Program Files (x86)\Microsoft Visual Studio\2019\Community\VC\Tools\MSVC\14.29.30133\atlmfc\include\afxcoll.inl
; File D:\git\src\IBK\IBK_DRFN\ProjSrc\SrcChartEx\ChartAddIn\ChartDesignPropertyAddIn\Include_Chart\PropertyMap.h
; File C:\Program Files (x86)\Microsoft Visual Studio\2019\Community\VC\Tools\MSVC\14.29.30133\atlmfc\include\afxcoll.inl
; File D:\git\src\IBK\IBK_DRFN\ProjSrc\SrcChartEx\ChartAddIn\ChartDesignPropertyAddIn\Include_Chart\PropertyMap.h
;	COMDAT ?SetAt@CPropertyMap@@EAEXPBD0@Z
_TEXT	SEGMENT
_key$ = 8						; size = 4
_newValue$ = 12						; size = 4
?SetAt@CPropertyMap@@EAEXPBD0@Z PROC			; CPropertyMap::SetAt, COMDAT
; _this$ = ecx

; 46   : 	virtual void SetAt(LPCTSTR key, LPCTSTR newValue)					{	CMapStringToString::SetAt( key, newValue);	}

  00000	55		 push	 ebp
  00001	8b ec		 mov	 ebp, esp
; File C:\Program Files (x86)\Microsoft Visual Studio\2019\Community\VC\Tools\MSVC\14.29.30133\atlmfc\include\afxcoll.inl

; 658  : 	{ (*this)[key] = newValue; }

  00003	ff 75 0c	 push	 DWORD PTR _newValue$[ebp]
; File D:\git\src\IBK\IBK_DRFN\ProjSrc\SrcChartEx\ChartAddIn\ChartDesignPropertyAddIn\Include_Chart\PropertyMap.h

; 46   : 	virtual void SetAt(LPCTSTR key, LPCTSTR newValue)					{	CMapStringToString::SetAt( key, newValue);	}

  00006	83 c1 e4	 add	 ecx, -28		; ffffffe4H
; File C:\Program Files (x86)\Microsoft Visual Studio\2019\Community\VC\Tools\MSVC\14.29.30133\atlmfc\include\afxcoll.inl

; 658  : 	{ (*this)[key] = newValue; }

  00009	ff 75 08	 push	 DWORD PTR _key$[ebp]
  0000c	e8 00 00 00 00	 call	 ??ACMapStringToString@@QAEAAV?$CStringT@DV?$StrTraitMFC_DLL@DV?$ChTraitsCRT@D@ATL@@@@@ATL@@PBD@Z ; CMapStringToString::operator[]
  00011	8b c8		 mov	 ecx, eax
  00013	ff 15 00 00 00
	00		 call	 DWORD PTR __imp_??4?$CStringT@DV?$StrTraitMFC_DLL@DV?$ChTraitsCRT@D@ATL@@@@@ATL@@QAEAAV01@PBD@Z
; File D:\git\src\IBK\IBK_DRFN\ProjSrc\SrcChartEx\ChartAddIn\ChartDesignPropertyAddIn\Include_Chart\PropertyMap.h

; 46   : 	virtual void SetAt(LPCTSTR key, LPCTSTR newValue)					{	CMapStringToString::SetAt( key, newValue);	}

  00019	5d		 pop	 ebp
  0001a	c2 08 00	 ret	 8
?SetAt@CPropertyMap@@EAEXPBD0@Z ENDP			; CPropertyMap::SetAt
_TEXT	ENDS
; Function compile flags: /Ogtp
; File D:\git\src\IBK\IBK_DRFN\ProjSrc\SrcChartEx\ChartAddIn\ChartDesignPropertyAddIn\Include_Chart\PropertyMap.h
;	COMDAT ?LookupKey@CPropertyMap@@EBEHPBDAAPBD@Z
_TEXT	SEGMENT
_key$ = 8						; size = 4
_rKey$ = 12						; size = 4
?LookupKey@CPropertyMap@@EBEHPBDAAPBD@Z PROC		; CPropertyMap::LookupKey, COMDAT
; _this$ = ecx

; 42   : 	virtual BOOL LookupKey(LPCTSTR key, LPCTSTR& rKey) const			{	return CMapStringToString::LookupKey( key, rKey);	}

  00000	55		 push	 ebp
  00001	8b ec		 mov	 ebp, esp
  00003	83 c1 e4	 add	 ecx, -28		; ffffffe4H
  00006	5d		 pop	 ebp
  00007	e9 00 00 00 00	 jmp	 ?LookupKey@CMapStringToString@@QBEHPBDAAPBD@Z ; CMapStringToString::LookupKey
?LookupKey@CPropertyMap@@EBEHPBDAAPBD@Z ENDP		; CPropertyMap::LookupKey
_TEXT	ENDS
; Function compile flags: /Ogtp
; File D:\git\src\IBK\IBK_DRFN\ProjSrc\SrcChartEx\ChartAddIn\ChartDesignPropertyAddIn\Include_Chart\PropertyMap.h
;	COMDAT ?Lookup@CPropertyMap@@EBEHPBDAAPAD@Z
_TEXT	SEGMENT
_key$ = 8						; size = 4
_rValue$ = 12						; size = 4
?Lookup@CPropertyMap@@EBEHPBDAAPAD@Z PROC		; CPropertyMap::Lookup, COMDAT
; _this$ = ecx

; 30   : 	{

  00000	55		 push	 ebp
  00001	8b ec		 mov	 ebp, esp

; 31   : 		static CString strValue;

  00003	64 a1 00 00 00
	00		 mov	 eax, DWORD PTR fs:__tls_array
  00009	8b 15 00 00 00
	00		 mov	 edx, DWORD PTR __tls_index
  0000f	56		 push	 esi
  00010	8b f1		 mov	 esi, ecx
  00012	8b 14 90	 mov	 edx, DWORD PTR [eax+edx*4]
  00015	a1 00 00 00 00	 mov	 eax, DWORD PTR ?$TSS0@?1??Lookup@CPropertyMap@@EBEHPBDAAPAD@Z@4HA ; `CPropertyMap::Lookup'::`2'::$TSS0
  0001a	3b 82 00 00 00
	00		 cmp	 eax, DWORD PTR __Init_thread_epoch[edx]
  00020	7f 49		 jg	 SHORT $LN10@Lookup
$LN2@Lookup:

; 32   : 		BOOL bResult = CMapStringToString::Lookup( key, strValue);

  00022	68 00 00 00 00	 push	 OFFSET ?strValue@?1??Lookup@CPropertyMap@@EBEHPBDAAPAD@Z@4V?$CStringT@DV?$StrTraitMFC_DLL@DV?$ChTraitsCRT@D@ATL@@@@@ATL@@A ; `CPropertyMap::Lookup'::`2'::strValue
  00027	ff 75 08	 push	 DWORD PTR _key$[ebp]
  0002a	8d 4e e4	 lea	 ecx, DWORD PTR [esi-28]
  0002d	e8 00 00 00 00	 call	 ?Lookup@CMapStringToString@@QBEHPBDAAV?$CStringT@DV?$StrTraitMFC_DLL@DV?$ChTraitsCRT@D@ATL@@@@@ATL@@@Z ; CMapStringToString::Lookup
  00032	8b f0		 mov	 esi, eax

; 33   : 
; 34   : 		if( bResult == FALSE )

  00034	85 f6		 test	 esi, esi
  00036	75 22		 jne	 SHORT $LN7@Lookup

; 35   : 		{
; 36   : 			strValue = "";

  00038	68 00 00 00 00	 push	 OFFSET ??_C@_00CNPNBAHC@@
  0003d	b9 00 00 00 00	 mov	 ecx, OFFSET ?strValue@?1??Lookup@CPropertyMap@@EBEHPBDAAPAD@Z@4V?$CStringT@DV?$StrTraitMFC_DLL@DV?$ChTraitsCRT@D@ATL@@@@@ATL@@A ; `CPropertyMap::Lookup'::`2'::strValue
  00042	ff 15 00 00 00
	00		 call	 DWORD PTR __imp_??4?$CStringT@DV?$StrTraitMFC_DLL@DV?$ChTraitsCRT@D@ATL@@@@@ATL@@QAEAAV01@PBD@Z

; 37   : 		}
; 38   : 
; 39   : 		rValue = LPSTR(LPCTSTR(strValue)); //strValue;//tour2k 

  00048	8b 55 0c	 mov	 edx, DWORD PTR _rValue$[ebp]

; 40   : 		return bResult;
; 41   : 	}

  0004b	8b c6		 mov	 eax, esi
  0004d	8b 0d 00 00 00
	00		 mov	 ecx, DWORD PTR ?strValue@?1??Lookup@CPropertyMap@@EBEHPBDAAPAD@Z@4V?$CStringT@DV?$StrTraitMFC_DLL@DV?$ChTraitsCRT@D@ATL@@@@@ATL@@A ; `CPropertyMap::Lookup'::`2'::strValue
  00053	5e		 pop	 esi
  00054	89 0a		 mov	 DWORD PTR [edx], ecx
  00056	5d		 pop	 ebp
  00057	c2 08 00	 ret	 8
$LN7@Lookup:

; 37   : 		}
; 38   : 
; 39   : 		rValue = LPSTR(LPCTSTR(strValue)); //strValue;//tour2k 

  0005a	8b 4d 0c	 mov	 ecx, DWORD PTR _rValue$[ebp]
  0005d	a1 00 00 00 00	 mov	 eax, DWORD PTR ?strValue@?1??Lookup@CPropertyMap@@EBEHPBDAAPAD@Z@4V?$CStringT@DV?$StrTraitMFC_DLL@DV?$ChTraitsCRT@D@ATL@@@@@ATL@@A ; `CPropertyMap::Lookup'::`2'::strValue
  00062	89 01		 mov	 DWORD PTR [ecx], eax

; 40   : 		return bResult;
; 41   : 	}

  00064	8b c6		 mov	 eax, esi
  00066	5e		 pop	 esi
  00067	5d		 pop	 ebp
  00068	c2 08 00	 ret	 8
$LN10@Lookup:

; 31   : 		static CString strValue;

  0006b	68 00 00 00 00	 push	 OFFSET ?$TSS0@?1??Lookup@CPropertyMap@@EBEHPBDAAPAD@Z@4HA ; `CPropertyMap::Lookup'::`2'::$TSS0
  00070	e8 00 00 00 00	 call	 __Init_thread_header
  00075	83 c4 04	 add	 esp, 4
  00078	83 3d 00 00 00
	00 ff		 cmp	 DWORD PTR ?$TSS0@?1??Lookup@CPropertyMap@@EBEHPBDAAPAD@Z@4HA, -1 ; `CPropertyMap::Lookup'::`2'::$TSS0
  0007f	75 a1		 jne	 SHORT $LN2@Lookup
  00081	b9 00 00 00 00	 mov	 ecx, OFFSET ?strValue@?1??Lookup@CPropertyMap@@EBEHPBDAAPAD@Z@4V?$CStringT@DV?$StrTraitMFC_DLL@DV?$ChTraitsCRT@D@ATL@@@@@ATL@@A ; `CPropertyMap::Lookup'::`2'::strValue
  00086	ff 15 00 00 00
	00		 call	 DWORD PTR __imp_??0?$CStringT@DV?$StrTraitMFC_DLL@DV?$ChTraitsCRT@D@ATL@@@@@ATL@@QAE@XZ
  0008c	68 00 00 00 00	 push	 OFFSET ??__FstrValue@?1??Lookup@CPropertyMap@@EBEHPBDAAPAD@Z@YAXXZ ; `CPropertyMap::Lookup'::`2'::`dynamic atexit destructor for 'strValue''
  00091	e8 00 00 00 00	 call	 _atexit
  00096	68 00 00 00 00	 push	 OFFSET ?$TSS0@?1??Lookup@CPropertyMap@@EBEHPBDAAPAD@Z@4HA ; `CPropertyMap::Lookup'::`2'::$TSS0
  0009b	e8 00 00 00 00	 call	 __Init_thread_footer
  000a0	83 c4 08	 add	 esp, 8
  000a3	e9 7a ff ff ff	 jmp	 $LN2@Lookup
?Lookup@CPropertyMap@@EBEHPBDAAPAD@Z ENDP		; CPropertyMap::Lookup
_TEXT	ENDS
; Function compile flags: /Ogtp
; File D:\git\src\IBK\IBK_DRFN\ProjSrc\SrcChartEx\ChartAddIn\ChartDesignPropertyAddIn\Include_Chart\PropertyMap.h
; File C:\Program Files (x86)\Microsoft Visual Studio\2019\Community\VC\Tools\MSVC\14.29.30133\atlmfc\include\afxcoll.inl
; File D:\git\src\IBK\IBK_DRFN\ProjSrc\SrcChartEx\ChartAddIn\ChartDesignPropertyAddIn\Include_Chart\PropertyMap.h
;	COMDAT ?IsEmpty@CPropertyMap@@EBEHXZ
_TEXT	SEGMENT
?IsEmpty@CPropertyMap@@EBEHXZ PROC			; CPropertyMap::IsEmpty, COMDAT
; _this$ = ecx
; File C:\Program Files (x86)\Microsoft Visual Studio\2019\Community\VC\Tools\MSVC\14.29.30133\atlmfc\include\afxcoll.inl

; 656  : 	{ return m_nCount == 0; }

  00000	33 c0		 xor	 eax, eax
  00002	39 41 f0	 cmp	 DWORD PTR [ecx-16], eax
  00005	0f 94 c0	 sete	 al
; File D:\git\src\IBK\IBK_DRFN\ProjSrc\SrcChartEx\ChartAddIn\ChartDesignPropertyAddIn\Include_Chart\PropertyMap.h

; 26   : 	virtual BOOL IsEmpty() const										{	return CMapStringToString::IsEmpty();	}

  00008	c3		 ret	 0
?IsEmpty@CPropertyMap@@EBEHXZ ENDP			; CPropertyMap::IsEmpty
_TEXT	ENDS
; Function compile flags: /Ogtp
; File D:\git\src\IBK\IBK_DRFN\ProjSrc\SrcChartEx\ChartAddIn\ChartDesignPropertyAddIn\Include_Chart\PropertyMap.h
;	COMDAT ?GetCount@CPropertyMap@@EBEHXZ
_TEXT	SEGMENT
?GetCount@CPropertyMap@@EBEHXZ PROC			; CPropertyMap::GetCount, COMDAT
; _this$ = ecx

; 25   : 	virtual int GetCount() const										{	return CMapStringToString::GetCount();	}

  00000	8b 41 f0	 mov	 eax, DWORD PTR [ecx-16]
  00003	c3		 ret	 0
?GetCount@CPropertyMap@@EBEHXZ ENDP			; CPropertyMap::GetCount
_TEXT	ENDS
; Function compile flags: /Ogtp
;	COMDAT ??_GIPropertyMap@@MAEPAXI@Z
_TEXT	SEGMENT
___flags$ = 8						; size = 4
??_GIPropertyMap@@MAEPAXI@Z PROC			; IPropertyMap::`scalar deleting destructor', COMDAT
; _this$ = ecx
  00000	55		 push	 ebp
  00001	8b ec		 mov	 ebp, esp
  00003	f6 45 08 01	 test	 BYTE PTR ___flags$[ebp], 1
  00007	56		 push	 esi
  00008	8b f1		 mov	 esi, ecx
  0000a	c7 06 00 00 00
	00		 mov	 DWORD PTR [esi], OFFSET ??_7IPropertyMap@@6B@
  00010	74 0b		 je	 SHORT $LN4@scalar
  00012	6a 04		 push	 4
  00014	56		 push	 esi
  00015	e8 00 00 00 00	 call	 ??3@YAXPAXI@Z		; operator delete
  0001a	83 c4 08	 add	 esp, 8
$LN4@scalar:
  0001d	8b c6		 mov	 eax, esi
  0001f	5e		 pop	 esi
  00020	5d		 pop	 ebp
  00021	c2 04 00	 ret	 4
??_GIPropertyMap@@MAEPAXI@Z ENDP			; IPropertyMap::`scalar deleting destructor'
_TEXT	ENDS
; Function compile flags: /Ogtp
; File D:\git\src\IBK\IBK_DRFN\ProjSrc\SrcChartEx\ChartAddIn\ChartDesignPropertyAddIn\Include_Chart\IPropertyMap.h
;	COMDAT ??1IPropertyMap@@MAE@XZ
_TEXT	SEGMENT
??1IPropertyMap@@MAE@XZ PROC				; IPropertyMap::~IPropertyMap, COMDAT
; _this$ = ecx

; 22   : 	virtual ~IPropertyMap()	{}

  00000	c7 01 00 00 00
	00		 mov	 DWORD PTR [ecx], OFFSET ??_7IPropertyMap@@6B@
  00006	c3		 ret	 0
??1IPropertyMap@@MAE@XZ ENDP				; IPropertyMap::~IPropertyMap
_TEXT	ENDS
; Function compile flags: /Ogtp
; File C:\Program Files (x86)\Microsoft Visual Studio\2019\Community\VC\Tools\MSVC\14.29.30133\atlmfc\include\afx.inl
;	COMDAT ??_GCChartDesignPropertyAddInImp@@UAEPAXI@Z
_TEXT	SEGMENT
___flags$ = 8						; size = 4
??_GCChartDesignPropertyAddInImp@@UAEPAXI@Z PROC	; CChartDesignPropertyAddInImp::`scalar deleting destructor', COMDAT
; _this$ = ecx
  00000	55		 push	 ebp
  00001	8b ec		 mov	 ebp, esp
  00003	56		 push	 esi
  00004	8b f1		 mov	 esi, ecx
  00006	e8 00 00 00 00	 call	 ??1CChartAddInBase134661@@MAE@XZ ; CChartAddInBase134661::~CChartAddInBase134661
  0000b	8b 45 08	 mov	 eax, DWORD PTR ___flags$[ebp]
  0000e	a8 01		 test	 al, 1
  00010	74 1f		 je	 SHORT $LN12@scalar
  00012	a8 04		 test	 al, 4
  00014	75 10		 jne	 SHORT $LN3@scalar

; 112  : 	{ ::operator delete(p); }

  00016	56		 push	 esi
  00017	e8 00 00 00 00	 call	 ??3@YAXPAX@Z		; operator delete
  0001c	83 c4 04	 add	 esp, 4
  0001f	8b c6		 mov	 eax, esi
  00021	5e		 pop	 esi
  00022	5d		 pop	 ebp
  00023	c2 04 00	 ret	 4
$LN3@scalar:
  00026	6a 34		 push	 52			; 00000034H
  00028	56		 push	 esi
  00029	e8 00 00 00 00	 call	 ?__global_delete@@YAXPAXI@Z ; __global_delete
  0002e	83 c4 08	 add	 esp, 8
$LN12@scalar:
  00031	8b c6		 mov	 eax, esi
  00033	5e		 pop	 esi
  00034	5d		 pop	 ebp
  00035	c2 04 00	 ret	 4
??_GCChartDesignPropertyAddInImp@@UAEPAXI@Z ENDP	; CChartDesignPropertyAddInImp::`scalar deleting destructor'
_TEXT	ENDS
; Function compile flags: /Ogtp
; File D:\git\src\IBK\IBK_DRFN\ProjSrc\SrcChartEx\ChartAddIn\ChartDesignPropertyAddIn\ChartDesignPropertyAddIn\ChartDesignPropertyAddInImp.cpp
; File C:\Program Files (x86)\Microsoft Visual Studio\2019\Community\VC\Tools\MSVC\14.29.30133\atlmfc\include\afxwin1.inl
; File D:\git\src\IBK\IBK_DRFN\ProjSrc\SrcChartEx\ChartAddIn\ChartDesignPropertyAddIn\Include_Chart\Dll_Load\IMetaTable.h
; File C:\Program Files (x86)\Microsoft Visual Studio\2019\Community\VC\Tools\MSVC\14.29.30133\atlmfc\include\afxwin1.inl
; File D:\git\src\IBK\IBK_DRFN\ProjSrc\SrcChartEx\ChartAddIn\ChartDesignPropertyAddIn\ChartDesignPropertyAddIn\ChartDesignPropertyAddInImp.cpp
; File C:\Program Files (x86)\Microsoft Visual Studio\2019\Community\VC\Tools\MSVC\14.29.30133\atlmfc\include\afxwin1.inl
; File D:\git\src\IBK\IBK_DRFN\ProjSrc\SrcChartEx\ChartAddIn\ChartDesignPropertyAddIn\ChartDesignPropertyAddIn\ChartDesignPropertyAddInImp.cpp
; File C:\Program Files (x86)\Microsoft Visual Studio\2019\Community\VC\Tools\MSVC\14.29.30133\atlmfc\include\afxwin1.inl
; File D:\git\src\IBK\IBK_DRFN\ProjSrc\SrcChartEx\ChartAddIn\ChartDesignPropertyAddIn\ChartDesignPropertyAddIn\ChartDesignPropertyAddInImp.cpp
; File C:\Program Files (x86)\Microsoft Visual Studio\2019\Community\VC\Tools\MSVC\14.29.30133\atlmfc\include\afxwin1.inl
; File D:\git\src\IBK\IBK_DRFN\ProjSrc\SrcChartEx\ChartAddIn\ChartDesignPropertyAddIn\ChartDesignPropertyAddIn\ChartDesignPropertyAddInImp.cpp
; File C:\Program Files (x86)\Microsoft Visual Studio\2019\Community\VC\Tools\MSVC\14.29.30133\atlmfc\include\afxwin2.inl
; File C:\Program Files (x86)\Microsoft Visual Studio\2019\Community\VC\Tools\MSVC\14.29.30133\atlmfc\include\atltypes.h
; File C:\Program Files (x86)\Microsoft Visual Studio\2019\Community\VC\Tools\MSVC\14.29.30133\atlmfc\include\afxwin2.inl
; File D:\git\src\IBK\IBK_DRFN\ProjSrc\SrcChartEx\ChartAddIn\ChartDesignPropertyAddIn\ChartDesignPropertyAddIn\ChartDesignPropertyAddInImp.cpp
; File C:\Program Files (x86)\Microsoft Visual Studio\2019\Community\VC\Tools\MSVC\14.29.30133\atlmfc\include\afxwin1.inl
; File D:\git\src\IBK\IBK_DRFN\ProjSrc\SrcChartEx\ChartAddIn\ChartDesignPropertyAddIn\Include_Chart\Dll_Load\IMetaTable.h
; File C:\Program Files (x86)\Microsoft Visual Studio\2019\Community\VC\Tools\MSVC\14.29.30133\atlmfc\include\afxwin1.inl
; File D:\git\src\IBK\IBK_DRFN\ProjSrc\SrcChartEx\ChartAddIn\ChartDesignPropertyAddIn\ChartDesignPropertyAddIn\ChartDesignPropertyAddInImp.cpp
;	COMDAT ?OnAddInToolCommand@CChartDesignPropertyAddInImp@@MAEHW4EAICommandType@@PAVCWnd@@AAVCPoint@@@Z
_TEXT	SEGMENT
___mlrs__$ = -48					; size = 4
_point$GSCopy$1$ = -44					; size = 4
_menu$ = -40						; size = 8
_rc$2 = -32						; size = 16
__$ArrayPad$ = -16					; size = 4
__$EHRec$ = -12						; size = 12
_p_eCommandID$ = 8					; size = 4
_p_pWnd$ = 12						; size = 4
_point$ = 16						; size = 4
?OnAddInToolCommand@CChartDesignPropertyAddInImp@@MAEHW4EAICommandType@@PAVCWnd@@AAVCPoint@@@Z PROC ; CChartDesignPropertyAddInImp::OnAddInToolCommand, COMDAT
; _this$ = ecx

; 237  : {

  00000	55		 push	 ebp
  00001	8b ec		 mov	 ebp, esp
  00003	6a ff		 push	 -1
  00005	68 00 00 00 00	 push	 __ehhandler$?OnAddInToolCommand@CChartDesignPropertyAddInImp@@MAEHW4EAICommandType@@PAVCWnd@@AAVCPoint@@@Z
  0000a	64 a1 00 00 00
	00		 mov	 eax, DWORD PTR fs:0
  00010	50		 push	 eax
  00011	83 ec 24	 sub	 esp, 36			; 00000024H
  00014	a1 00 00 00 00	 mov	 eax, DWORD PTR ___security_cookie
  00019	33 c5		 xor	 eax, ebp
  0001b	89 45 f0	 mov	 DWORD PTR __$ArrayPad$[ebp], eax
  0001e	53		 push	 ebx
  0001f	56		 push	 esi
  00020	57		 push	 edi
  00021	50		 push	 eax
  00022	8d 45 f4	 lea	 eax, DWORD PTR __$EHRec$[ebp]
  00025	64 a3 00 00 00
	00		 mov	 DWORD PTR fs:0, eax
  0002b	8b d9		 mov	 ebx, ecx

; 238  : 	if( EAI_ALL_CONTEXT_MENU != p_eCommandID) return FALSE;

  0002d	83 7d 08 2a	 cmp	 DWORD PTR _p_eCommandID$[ebp], 42 ; 0000002aH
  00031	8b 45 10	 mov	 eax, DWORD PTR _point$[ebp]
  00034	89 45 d4	 mov	 DWORD PTR _point$GSCopy$1$[ebp], eax
  00037	74 07		 je	 SHORT $LN2@OnAddInToo
  00039	33 c0		 xor	 eax, eax
  0003b	e9 da 00 00 00	 jmp	 $LN1@OnAddInToo
$LN2@OnAddInToo:

; 240  : 	ML_SET_LANGUAGE_RES();

  00040	e8 00 00 00 00	 call	 ?AfxGetStaticModuleState@@YGPAVAFX_MODULE_STATE@@XZ ; AfxGetStaticModuleState
  00045	b9 00 00 00 00	 mov	 ecx, OFFSET ?g_iMetaTable@@3VIMetaTable@@A ; g_iMetaTable
  0004a	8b 40 08	 mov	 eax, DWORD PTR [eax+8]
  0004d	50		 push	 eax
  0004e	ff 73 28	 push	 DWORD PTR [ebx+40]
  00051	e8 00 00 00 00	 call	 ?LoadResourceDLL@IMetaTable@@QAEPAUHINSTANCE__@@PAUHWND__@@PAU2@@Z ; IMetaTable::LoadResourceDLL
  00056	8b f8		 mov	 edi, eax
; File C:\Program Files (x86)\Microsoft Visual Studio\2019\Community\VC\Tools\MSVC\14.29.30133\atlmfc\include\afxwin1.inl

; 25   : 		return afxCurrentResourceHandle; }

  00058	e8 00 00 00 00	 call	 ?AfxGetModuleState@@YGPAVAFX_MODULE_STATE@@XZ ; AfxGetModuleState
; File D:\git\src\IBK\IBK_DRFN\ProjSrc\SrcChartEx\ChartAddIn\ChartDesignPropertyAddIn\Include_Chart\Dll_Load\IMetaTable.h

; 1032 : 		m_hInstance = AfxGetResourceHandle();

  0005d	8b 70 0c	 mov	 esi, DWORD PTR [eax+12]
  00060	89 75 d0	 mov	 DWORD PTR ___mlrs__$[ebp], esi
; File C:\Program Files (x86)\Microsoft Visual Studio\2019\Community\VC\Tools\MSVC\14.29.30133\atlmfc\include\afxwin1.inl

; 27   : 	{ ASSERT(hInstResource != NULL); afxCurrentResourceHandle = hInstResource; }

  00063	e8 00 00 00 00	 call	 ?AfxGetModuleState@@YGPAVAFX_MODULE_STATE@@XZ ; AfxGetModuleState
  00068	89 78 0c	 mov	 DWORD PTR [eax+12], edi
; File D:\git\src\IBK\IBK_DRFN\ProjSrc\SrcChartEx\ChartAddIn\ChartDesignPropertyAddIn\ChartDesignPropertyAddIn\ChartDesignPropertyAddInImp.cpp

; 240  : 	ML_SET_LANGUAGE_RES();

  0006b	c7 45 fc 00 00
	00 00		 mov	 DWORD PTR __$EHRec$[ebp+8], 0
; File C:\Program Files (x86)\Microsoft Visual Studio\2019\Community\VC\Tools\MSVC\14.29.30133\atlmfc\include\afxwin1.inl

; 903  : 	{ m_hMenu = NULL; }

  00072	c7 45 d8 00 00
	00 00		 mov	 DWORD PTR _menu$[ebp], OFFSET ??_7CMenu@@6B@
  00079	c7 45 dc 00 00
	00 00		 mov	 DWORD PTR _menu$[ebp+4], 0

; 977  : 	{ return Attach(::LoadMenuW(AfxFindResourceHandle(

  00080	68 e5 00 00 00	 push	 229			; 000000e5H
  00085	6a 04		 push	 4
  00087	68 e5 00 00 00	 push	 229			; 000000e5H
; File D:\git\src\IBK\IBK_DRFN\ProjSrc\SrcChartEx\ChartAddIn\ChartDesignPropertyAddIn\ChartDesignPropertyAddIn\ChartDesignPropertyAddInImp.cpp

; 242  : 	CMenu menu;

  0008c	c6 45 fc 01	 mov	 BYTE PTR __$EHRec$[ebp+8], 1
; File C:\Program Files (x86)\Microsoft Visual Studio\2019\Community\VC\Tools\MSVC\14.29.30133\atlmfc\include\afxwin1.inl

; 977  : 	{ return Attach(::LoadMenuW(AfxFindResourceHandle(

  00090	e8 00 00 00 00	 call	 ?AfxFindResourceHandle@@YGPAUHINSTANCE__@@PBD0@Z ; AfxFindResourceHandle
  00095	50		 push	 eax
  00096	ff 15 00 00 00
	00		 call	 DWORD PTR __imp__LoadMenuW@8
  0009c	50		 push	 eax
  0009d	8d 4d d8	 lea	 ecx, DWORD PTR _menu$[ebp]
  000a0	e8 00 00 00 00	 call	 ?Attach@CMenu@@QAEHPAUHMENU__@@@Z ; CMenu::Attach
; File D:\git\src\IBK\IBK_DRFN\ProjSrc\SrcChartEx\ChartAddIn\ChartDesignPropertyAddIn\ChartDesignPropertyAddIn\ChartDesignPropertyAddInImp.cpp

; 243  : 	if( !menu.LoadMenu( IDR_CONTEXT)) return FALSE;

  000a5	85 c0		 test	 eax, eax
  000a7	75 04		 jne	 SHORT $LN3@OnAddInToo
  000a9	33 ff		 xor	 edi, edi
  000ab	eb 49		 jmp	 SHORT $LN8@OnAddInToo
$LN3@OnAddInToo:
; File C:\Program Files (x86)\Microsoft Visual Studio\2019\Community\VC\Tools\MSVC\14.29.30133\atlmfc\include\afxwin1.inl

; 951  : 	{ ASSERT(::IsMenu(m_hMenu)); return CMenu::FromHandle(::GetSubMenu(m_hMenu, nPos)); }

  000ad	6a 00		 push	 0
  000af	ff 75 dc	 push	 DWORD PTR _menu$[ebp+4]
  000b2	ff 15 00 00 00
	00		 call	 DWORD PTR __imp__GetSubMenu@8
  000b8	50		 push	 eax
  000b9	e8 00 00 00 00	 call	 ?FromHandle@CMenu@@SGPAV1@PAUHMENU__@@@Z ; CMenu::FromHandle
; File D:\git\src\IBK\IBK_DRFN\ProjSrc\SrcChartEx\ChartAddIn\ChartDesignPropertyAddIn\ChartDesignPropertyAddIn\ChartDesignPropertyAddInImp.cpp

; 245  : 	CMenu * pPopupMenu = ( CMenu*)menu.GetSubMenu(0);

  000be	8b f8		 mov	 edi, eax

; 246  : 	if( pPopupMenu != NULL)

  000c0	85 ff		 test	 edi, edi
  000c2	74 2d		 je	 SHORT $LN4@OnAddInToo

; 247  : 	{
; 248  : 		CRect rc;
; 249  : 		m_pChartCWnd->GetWindowRect( &rc);

  000c4	8b 4b 08	 mov	 ecx, DWORD PTR [ebx+8]
; File C:\Program Files (x86)\Microsoft Visual Studio\2019\Community\VC\Tools\MSVC\14.29.30133\atlmfc\include\afxwin2.inl

; 84   : 	{ ASSERT(::IsWindow(m_hWnd)); ::GetWindowRect(m_hWnd, lpRect); }

  000c7	8d 45 e0	 lea	 eax, DWORD PTR _rc$2[ebp]
  000ca	0f 57 c0	 xorps	 xmm0, xmm0
  000cd	50		 push	 eax
; File C:\Program Files (x86)\Microsoft Visual Studio\2019\Community\VC\Tools\MSVC\14.29.30133\atlmfc\include\atltypes.h

; 528  : 	left = 0;

  000ce	0f 11 45 e0	 movups	 XMMWORD PTR _rc$2[ebp], xmm0
; File C:\Program Files (x86)\Microsoft Visual Studio\2019\Community\VC\Tools\MSVC\14.29.30133\atlmfc\include\afxwin2.inl

; 84   : 	{ ASSERT(::IsWindow(m_hWnd)); ::GetWindowRect(m_hWnd, lpRect); }

  000d2	ff 71 20	 push	 DWORD PTR [ecx+32]
  000d5	ff 15 00 00 00
	00		 call	 DWORD PTR __imp__GetWindowRect@8
; File D:\git\src\IBK\IBK_DRFN\ProjSrc\SrcChartEx\ChartAddIn\ChartDesignPropertyAddIn\ChartDesignPropertyAddIn\ChartDesignPropertyAddInImp.cpp

; 250  : 		pPopupMenu->TrackPopupMenu( TPM_LEFTALIGN | TPM_RIGHTBUTTON, point.x, point.y, m_pChartCWnd);

  000db	8b 45 d4	 mov	 eax, DWORD PTR _point$GSCopy$1$[ebp]
  000de	8b cf		 mov	 ecx, edi
  000e0	6a 00		 push	 0
  000e2	ff 73 08	 push	 DWORD PTR [ebx+8]
  000e5	ff 70 04	 push	 DWORD PTR [eax+4]
  000e8	ff 30		 push	 DWORD PTR [eax]
  000ea	6a 02		 push	 2
  000ec	e8 00 00 00 00	 call	 ?TrackPopupMenu@CMenu@@QAEHIHHPAVCWnd@@PBUtagRECT@@@Z ; CMenu::TrackPopupMenu
$LN4@OnAddInToo:

; 253  : 	return TRUE;

  000f1	bf 01 00 00 00	 mov	 edi, 1
$LN8@OnAddInToo:
; File C:\Program Files (x86)\Microsoft Visual Studio\2019\Community\VC\Tools\MSVC\14.29.30133\atlmfc\include\afxwin1.inl

; 905  : 	{ DestroyMenu(); }

  000f6	8d 4d d8	 lea	 ecx, DWORD PTR _menu$[ebp]
  000f9	c6 45 fc 04	 mov	 BYTE PTR __$EHRec$[ebp+8], 4
  000fd	c7 45 d8 00 00
	00 00		 mov	 DWORD PTR _menu$[ebp], OFFSET ??_7CMenu@@6B@
  00104	e8 00 00 00 00	 call	 ?DestroyMenu@CMenu@@QAEHXZ ; CMenu::DestroyMenu
; File D:\git\src\IBK\IBK_DRFN\ProjSrc\SrcChartEx\ChartAddIn\ChartDesignPropertyAddIn\Include_Chart\Dll_Load\IMetaTable.h

; 1036 : 	{

  00109	c7 45 fc 05 00
	00 00		 mov	 DWORD PTR __$EHRec$[ebp+8], 5
; File C:\Program Files (x86)\Microsoft Visual Studio\2019\Community\VC\Tools\MSVC\14.29.30133\atlmfc\include\afxwin1.inl

; 27   : 	{ ASSERT(hInstResource != NULL); afxCurrentResourceHandle = hInstResource; }

  00110	e8 00 00 00 00	 call	 ?AfxGetModuleState@@YGPAVAFX_MODULE_STATE@@XZ ; AfxGetModuleState
  00115	89 70 0c	 mov	 DWORD PTR [eax+12], esi
; File D:\git\src\IBK\IBK_DRFN\ProjSrc\SrcChartEx\ChartAddIn\ChartDesignPropertyAddIn\ChartDesignPropertyAddIn\ChartDesignPropertyAddInImp.cpp

; 253  : 	return TRUE;

  00118	8b c7		 mov	 eax, edi
$LN1@OnAddInToo:

; 254  : }

  0011a	8b 4d f4	 mov	 ecx, DWORD PTR __$EHRec$[ebp]
  0011d	64 89 0d 00 00
	00 00		 mov	 DWORD PTR fs:0, ecx
  00124	59		 pop	 ecx
  00125	5f		 pop	 edi
  00126	5e		 pop	 esi
  00127	5b		 pop	 ebx
  00128	8b 4d f0	 mov	 ecx, DWORD PTR __$ArrayPad$[ebp]
  0012b	33 cd		 xor	 ecx, ebp
  0012d	e8 00 00 00 00	 call	 @__security_check_cookie@4
  00132	8b e5		 mov	 esp, ebp
  00134	5d		 pop	 ebp
  00135	c2 0c 00	 ret	 12			; 0000000cH
_TEXT	ENDS
;	COMDAT text$x
text$x	SEGMENT
__unwindfunclet$?OnAddInToolCommand@CChartDesignPropertyAddInImp@@MAEHW4EAICommandType@@PAVCWnd@@AAVCPoint@@@Z$0:
  00000	8d 4d d0	 lea	 ecx, DWORD PTR ___mlrs__$[ebp]
  00003	e9 00 00 00 00	 jmp	 ??1CMultiLanguageResourceSetter@@QAE@XZ ; CMultiLanguageResourceSetter::~CMultiLanguageResourceSetter
__unwindfunclet$?OnAddInToolCommand@CChartDesignPropertyAddInImp@@MAEHW4EAICommandType@@PAVCWnd@@AAVCPoint@@@Z$1:
  00008	8d 4d d8	 lea	 ecx, DWORD PTR _menu$[ebp]
  0000b	e9 00 00 00 00	 jmp	 ??1CMenu@@UAE@XZ	; CMenu::~CMenu
  00010	cc		 int	 3
  00011	cc		 int	 3
  00012	cc		 int	 3
  00013	cc		 int	 3
  00014	cc		 int	 3
__ehhandler$?OnAddInToolCommand@CChartDesignPropertyAddInImp@@MAEHW4EAICommandType@@PAVCWnd@@AAVCPoint@@@Z:
  00015	90		 npad	 1
  00016	90		 npad	 1
  00017	8b 54 24 08	 mov	 edx, DWORD PTR [esp+8]
  0001b	8d 42 0c	 lea	 eax, DWORD PTR [edx+12]
  0001e	8b 4a cc	 mov	 ecx, DWORD PTR [edx-52]
  00021	33 c8		 xor	 ecx, eax
  00023	e8 00 00 00 00	 call	 @__security_check_cookie@4
  00028	8b 4a fc	 mov	 ecx, DWORD PTR [edx-4]
  0002b	33 c8		 xor	 ecx, eax
  0002d	e8 00 00 00 00	 call	 @__security_check_cookie@4
  00032	b8 00 00 00 00	 mov	 eax, OFFSET __ehfuncinfo$?OnAddInToolCommand@CChartDesignPropertyAddInImp@@MAEHW4EAICommandType@@PAVCWnd@@AAVCPoint@@@Z
  00037	e9 00 00 00 00	 jmp	 ___CxxFrameHandler3
text$x	ENDS
?OnAddInToolCommand@CChartDesignPropertyAddInImp@@MAEHW4EAICommandType@@PAVCWnd@@AAVCPoint@@@Z ENDP ; CChartDesignPropertyAddInImp::OnAddInToolCommand
; Function compile flags: /Ogtp
; File D:\git\src\IBK\IBK_DRFN\ProjSrc\SrcChartEx\ChartAddIn\ChartDesignPropertyAddIn\ChartDesignPropertyAddIn\ChartDesignPropertyAddInImp.cpp
; File C:\Program Files (x86)\Microsoft Visual Studio\2019\Community\VC\Tools\MSVC\14.29.30133\atlmfc\include\afxwin1.inl
; File D:\git\src\IBK\IBK_DRFN\ProjSrc\SrcChartEx\ChartAddIn\ChartDesignPropertyAddIn\Include_Chart\Dll_Load\IMetaTable.h
; File C:\Program Files (x86)\Microsoft Visual Studio\2019\Community\VC\Tools\MSVC\14.29.30133\atlmfc\include\afxwin1.inl
; File D:\git\src\IBK\IBK_DRFN\ProjSrc\SrcChartEx\ChartAddIn\ChartDesignPropertyAddIn\ChartDesignPropertyAddIn\ChartDesignPropertyAddInImp.cpp
; File C:\Program Files (x86)\Microsoft Visual Studio\2019\Community\VC\Tools\MSVC\14.29.30133\atlmfc\include\afxwin2.inl
; File D:\git\src\IBK\IBK_DRFN\ProjSrc\SrcChartEx\ChartAddIn\ChartDesignPropertyAddIn\ChartDesignPropertyAddIn\ChartDesignPropertyAddInImp.cpp
; File D:\git\src\IBK\IBK_DRFN\ProjSrc\SrcChartEx\ChartAddIn\ChartDesignPropertyAddIn\Include_Chart\Dll_Load\IMetaTable.h
; File C:\Program Files (x86)\Microsoft Visual Studio\2019\Community\VC\Tools\MSVC\14.29.30133\atlmfc\include\afxwin1.inl
; File D:\git\src\IBK\IBK_DRFN\ProjSrc\SrcChartEx\ChartAddIn\ChartDesignPropertyAddIn\ChartDesignPropertyAddIn\ChartDesignPropertyAddInImp.cpp
; File C:\Program Files (x86)\Microsoft Visual Studio\2019\Community\VC\Tools\MSVC\14.29.30133\atlmfc\include\afxwin1.inl
; File D:\git\src\IBK\IBK_DRFN\ProjSrc\SrcChartEx\ChartAddIn\ChartDesignPropertyAddIn\ChartDesignPropertyAddIn\ChartDesignPropertyAddInImp.cpp
; File C:\Program Files (x86)\Microsoft Visual Studio\2019\Community\VC\Tools\MSVC\14.29.30133\atlmfc\include\afxwin1.inl
; File D:\git\src\IBK\IBK_DRFN\ProjSrc\SrcChartEx\ChartAddIn\ChartDesignPropertyAddIn\Include_Chart\Dll_Load\IMetaTable.h
; File C:\Program Files (x86)\Microsoft Visual Studio\2019\Community\VC\Tools\MSVC\14.29.30133\atlmfc\include\afxwin1.inl
; File D:\git\src\IBK\IBK_DRFN\ProjSrc\SrcChartEx\ChartAddIn\ChartDesignPropertyAddIn\ChartDesignPropertyAddIn\ChartDesignPropertyAddInImp.cpp
; File C:\Program Files (x86)\Microsoft Visual Studio\2019\Community\VC\Tools\MSVC\14.29.30133\atlmfc\include\afxwin2.inl
; File D:\git\src\IBK\IBK_DRFN\ProjSrc\SrcChartEx\ChartAddIn\ChartDesignPropertyAddIn\ChartDesignPropertyAddIn\ChartDesignPropertyAddInImp.cpp
; File C:\Program Files (x86)\Microsoft Visual Studio\2019\Community\VC\Tools\MSVC\14.29.30133\atlmfc\include\afxwin2.inl
; File D:\git\src\IBK\IBK_DRFN\ProjSrc\SrcChartEx\ChartAddIn\ChartDesignPropertyAddIn\ChartDesignPropertyAddIn\ChartDesignPropertyAddInImp.cpp
; File D:\git\src\IBK\IBK_DRFN\ProjSrc\SrcChartEx\ChartAddIn\ChartDesignPropertyAddIn\Include_Chart\Dll_Load\IMetaTable.h
; File C:\Program Files (x86)\Microsoft Visual Studio\2019\Community\VC\Tools\MSVC\14.29.30133\atlmfc\include\afxwin1.inl
; File D:\git\src\IBK\IBK_DRFN\ProjSrc\SrcChartEx\ChartAddIn\ChartDesignPropertyAddIn\ChartDesignPropertyAddIn\ChartDesignPropertyAddInImp.cpp
; File C:\Program Files (x86)\Microsoft Visual Studio\2019\Community\VC\Tools\MSVC\14.29.30133\atlmfc\include\afxwin1.inl
; File D:\git\src\IBK\IBK_DRFN\ProjSrc\SrcChartEx\ChartAddIn\ChartDesignPropertyAddIn\ChartDesignPropertyAddIn\ChartDesignPropertyAddInImp.cpp
; File C:\Program Files (x86)\Microsoft Visual Studio\2019\Community\VC\Tools\MSVC\14.29.30133\atlmfc\include\afxwin1.inl
; File D:\git\src\IBK\IBK_DRFN\ProjSrc\SrcChartEx\ChartAddIn\ChartDesignPropertyAddIn\Include_Chart\Dll_Load\IMetaTable.h
; File C:\Program Files (x86)\Microsoft Visual Studio\2019\Community\VC\Tools\MSVC\14.29.30133\atlmfc\include\afxwin1.inl
; File D:\git\src\IBK\IBK_DRFN\ProjSrc\SrcChartEx\ChartAddIn\ChartDesignPropertyAddIn\ChartDesignPropertyAddIn\ChartDesignPropertyAddInImp.cpp
; File C:\Program Files (x86)\Microsoft Visual Studio\2019\Community\VC\Tools\MSVC\14.29.30133\atlmfc\include\afxwin2.inl
; File D:\git\src\IBK\IBK_DRFN\ProjSrc\SrcChartEx\ChartAddIn\ChartDesignPropertyAddIn\ChartDesignPropertyAddIn\ChartDesignPropertyAddInImp.cpp
; File D:\git\src\IBK\IBK_DRFN\ProjSrc\SrcChartEx\ChartAddIn\ChartDesignPropertyAddIn\Include_Chart\Dll_Load\IMetaTable.h
; File C:\Program Files (x86)\Microsoft Visual Studio\2019\Community\VC\Tools\MSVC\14.29.30133\atlmfc\include\afxwin1.inl
; File D:\git\src\IBK\IBK_DRFN\ProjSrc\SrcChartEx\ChartAddIn\ChartDesignPropertyAddIn\ChartDesignPropertyAddIn\ChartDesignPropertyAddInImp.cpp
; File C:\Program Files (x86)\Microsoft Visual Studio\2019\Community\VC\Tools\MSVC\14.29.30133\atlmfc\include\afxwin1.inl
; File D:\git\src\IBK\IBK_DRFN\ProjSrc\SrcChartEx\ChartAddIn\ChartDesignPropertyAddIn\ChartDesignPropertyAddIn\ChartDesignPropertyAddInImp.cpp
; File C:\Program Files (x86)\Microsoft Visual Studio\2019\Community\VC\Tools\MSVC\14.29.30133\atlmfc\include\afxwin1.inl
; File D:\git\src\IBK\IBK_DRFN\ProjSrc\SrcChartEx\ChartAddIn\ChartDesignPropertyAddIn\Include_Chart\Dll_Load\IMetaTable.h
; File C:\Program Files (x86)\Microsoft Visual Studio\2019\Community\VC\Tools\MSVC\14.29.30133\atlmfc\include\afxwin1.inl
; File D:\git\src\IBK\IBK_DRFN\ProjSrc\SrcChartEx\ChartAddIn\ChartDesignPropertyAddIn\ChartDesignPropertyAddIn\ChartDesignPropertyAddInImp.cpp
; File D:\git\src\IBK\IBK_DRFN\ProjSrc\SrcChartEx\ChartAddIn\ChartDesignPropertyAddIn\Include_Chart\Dll_Load\IMetaTable.h
; File C:\Program Files (x86)\Microsoft Visual Studio\2019\Community\VC\Tools\MSVC\14.29.30133\atlmfc\include\afxwin1.inl
; File D:\git\src\IBK\IBK_DRFN\ProjSrc\SrcChartEx\ChartAddIn\ChartDesignPropertyAddIn\ChartDesignPropertyAddIn\ChartDesignPropertyAddInImp.cpp
; File C:\Program Files (x86)\Microsoft Visual Studio\2019\Community\VC\Tools\MSVC\14.29.30133\atlmfc\include\afxwin1.inl
; File D:\git\src\IBK\IBK_DRFN\ProjSrc\SrcChartEx\ChartAddIn\ChartDesignPropertyAddIn\ChartDesignPropertyAddIn\ChartDesignPropertyAddInImp.cpp
; File C:\Program Files (x86)\Microsoft Visual Studio\2019\Community\VC\Tools\MSVC\14.29.30133\atlmfc\include\afxwin1.inl
; File D:\git\src\IBK\IBK_DRFN\ProjSrc\SrcChartEx\ChartAddIn\ChartDesignPropertyAddIn\Include_Chart\Dll_Load\IMetaTable.h
; File C:\Program Files (x86)\Microsoft Visual Studio\2019\Community\VC\Tools\MSVC\14.29.30133\atlmfc\include\afxwin1.inl
; File C:\Program Files (x86)\Microsoft Visual Studio\2019\Community\VC\Tools\MSVC\14.29.30133\atlmfc\include\afxwin2.inl
; File D:\git\src\IBK\IBK_DRFN\ProjSrc\SrcChartEx\ChartAddIn\ChartDesignPropertyAddIn\ChartDesignPropertyAddIn\ChartDesignPropertyAddInImp.cpp
; File C:\Program Files (x86)\Microsoft Visual Studio\2019\Community\VC\Tools\MSVC\14.29.30133\atlmfc\include\afxwin2.inl
; File D:\git\src\IBK\IBK_DRFN\ProjSrc\SrcChartEx\ChartAddIn\ChartDesignPropertyAddIn\Include_Chart\Dll_Load\IMetaTable.h
; File C:\Program Files (x86)\Microsoft Visual Studio\2019\Community\VC\Tools\MSVC\14.29.30133\atlmfc\include\afxwin1.inl
; File D:\git\src\IBK\IBK_DRFN\ProjSrc\SrcChartEx\ChartAddIn\ChartDesignPropertyAddIn\Include_Chart\Dll_Load\IMetaTable.h
; File C:\Program Files (x86)\Microsoft Visual Studio\2019\Community\VC\Tools\MSVC\14.29.30133\atlmfc\include\afxwin1.inl
; File D:\git\src\IBK\IBK_DRFN\ProjSrc\SrcChartEx\ChartAddIn\ChartDesignPropertyAddIn\ChartDesignPropertyAddIn\ChartDesignPropertyAddInImp.cpp
;	COMDAT ?OnCmdMsg@CChartDesignPropertyAddInImp@@MAEHIHPAXPAUAFX_CMDHANDLERINFO@@@Z
_TEXT	SEGMENT
_mapProperty$2 = -7672					; size = 32
_mapProperty$3 = -7640					; size = 32
_mapProperty$4 = -7608					; size = 32
_mapProperty$5 = -7576					; size = 32
___mlrs__$6 = -7544					; size = 4
___mlrs__$7 = -7544					; size = 4
___mlrs__$8 = -7544					; size = 4
___mlrs__$9 = -7544					; size = 4
_szData$10 = -7540					; size = 4
_nRow$1$ = -7536					; size = 4
_strData$11 = -7536					; size = 4
_strData$12 = -7536					; size = 4
___mlrs__$13 = -7536					; size = 4
_nColumn$1$ = -7532					; size = 4
_strLocalLanguageTable$14 = -7532			; size = 4
_strLocalLanguageTable$15 = -7532			; size = 4
_dlgProp$16 = -7528					; size = 7512
_Initdlg$17 = -4832					; size = 4816
_fontdlg$18 = -1120					; size = 1104
_dlgLLT$19 = -384					; size = 368
__$ArrayPad$ = -16					; size = 4
__$EHRec$ = -12						; size = 12
_nID$ = 8						; size = 4
_nCode$ = 12						; size = 4
_pExtra$ = 16						; size = 4
_pHandlerInfo$ = 20					; size = 4
?OnCmdMsg@CChartDesignPropertyAddInImp@@MAEHIHPAXPAUAFX_CMDHANDLERINFO@@@Z PROC ; CChartDesignPropertyAddInImp::OnCmdMsg, COMDAT
; _this$ = ecx

; 66   : {

  00000	55		 push	 ebp
  00001	8b ec		 mov	 ebp, esp
  00003	6a ff		 push	 -1
  00005	68 00 00 00 00	 push	 __ehhandler$?OnCmdMsg@CChartDesignPropertyAddInImp@@MAEHIHPAXPAUAFX_CMDHANDLERINFO@@@Z
  0000a	64 a1 00 00 00
	00		 mov	 eax, DWORD PTR fs:0
  00010	50		 push	 eax
  00011	b8 ec 1d 00 00	 mov	 eax, 7660		; 00001decH
  00016	e8 00 00 00 00	 call	 __chkstk
  0001b	a1 00 00 00 00	 mov	 eax, DWORD PTR ___security_cookie
  00020	33 c5		 xor	 eax, ebp
  00022	89 45 f0	 mov	 DWORD PTR __$ArrayPad$[ebp], eax
  00025	53		 push	 ebx
  00026	56		 push	 esi
  00027	57		 push	 edi
  00028	50		 push	 eax
  00029	8d 45 f4	 lea	 eax, DWORD PTR __$EHRec$[ebp]
  0002c	64 a3 00 00 00
	00		 mov	 DWORD PTR fs:0, eax
  00032	8b d9		 mov	 ebx, ecx

; 67   : 	if( nID < ID_DPP_LAYOUT_AND_COLOR || ID_DPP_GML_TABLE < nID ) return FALSE;

  00034	8b 45 08	 mov	 eax, DWORD PTR _nID$[ebp]
  00037	8b 4d 10	 mov	 ecx, DWORD PTR _pExtra$[ebp]
  0003a	05 73 5f ff ff	 add	 eax, -41101		; ffff5f73H
  0003f	83 f8 06	 cmp	 eax, 6
  00042	0f 87 4b 07 00
	00		 ja	 $LN7@OnCmdMsg

; 68   : 	
; 69   : 	if( CN_UPDATE_COMMAND_UI == nCode)

  00048	8b 55 0c	 mov	 edx, DWORD PTR _nCode$[ebp]
  0004b	83 fa ff	 cmp	 edx, -1
  0004e	75 43		 jne	 SHORT $LN8@OnCmdMsg

; 70   : 	{
; 71   : 		CCmdUI *pCmdUI = ( CCmdUI *)pExtra;
; 72   : 		if( pCmdUI) switch( nID)

  00050	85 c9		 test	 ecx, ecx
  00052	74 35		 je	 SHORT $LN2@OnCmdMsg
  00054	ff 24 85 00 00
	00 00		 jmp	 DWORD PTR $LN235@OnCmdMsg[eax*4]
$LN10@OnCmdMsg:

; 73   : 		{
; 74   : 			case ID_DPP_LAYOUT_AND_COLOR:	pCmdUI->Enable( !m_bExeMenuInit);

  0005b	8b 11		 mov	 edx, DWORD PTR [ecx]
  0005d	33 c0		 xor	 eax, eax
  0005f	39 43 24	 cmp	 DWORD PTR [ebx+36], eax
  00062	0f 94 c0	 sete	 al
  00065	50		 push	 eax
  00066	ff 12		 call	 DWORD PTR [edx]

; 75   : 											break;
; 76   : 			case ID_DPP_PROPERTY_PAGE:
; 77   : 			case ID_DPP_MENU_RESTART:		pCmdUI->Enable( m_bExeMenuInit);
; 78   : 											break;
; 79   : 			case ID_DPP_PROPERTY_FONT:		pCmdUI->Enable( TRUE);
; 80   : 											break;
; 81   : 			case ID_DPP_LML_TABLE:			pCmdUI->Enable( TRUE);			// (2008/1/14 - Seung-Won, Bae) for MultiLanguage.
; 82   : 											break;
; 83   : 			case ID_DPP_GML_TABLE:			pCmdUI->Enable( TRUE);			// (2008/2/24 - Seung-Won, Bae) Show Global Meta Language Table
; 84   : 											break;
; 85   : 			default:	return FALSE;
; 86   : 		}
; 87   : 		return TRUE;

  00068	b8 01 00 00 00	 mov	 eax, 1
  0006d	e9 23 07 00 00	 jmp	 $LN1@OnCmdMsg
$LN11@OnCmdMsg:
  00072	8b 01		 mov	 eax, DWORD PTR [ecx]
  00074	ff 73 24	 push	 DWORD PTR [ebx+36]
  00077	ff 10		 call	 DWORD PTR [eax]
  00079	b8 01 00 00 00	 mov	 eax, 1
  0007e	e9 12 07 00 00	 jmp	 $LN1@OnCmdMsg
$LN15@OnCmdMsg:
  00083	8b 01		 mov	 eax, DWORD PTR [ecx]
  00085	6a 01		 push	 1
  00087	ff 10		 call	 DWORD PTR [eax]
$LN2@OnCmdMsg:
  00089	b8 01 00 00 00	 mov	 eax, 1
  0008e	e9 02 07 00 00	 jmp	 $LN1@OnCmdMsg
$LN8@OnCmdMsg:

; 88   : 	}
; 89   : 
; 90   : 	if( CN_COMMAND == nCode)

  00093	85 d2		 test	 edx, edx
  00095	0f 85 f8 06 00
	00		 jne	 $LN7@OnCmdMsg

; 91   : 	{
; 92   : 		switch( nID)

  0009b	ff 24 85 00 00
	00 00		 jmp	 DWORD PTR $LN236@OnCmdMsg[eax*4]
$LN18@OnCmdMsg:

; 93   : 		{
; 94   : 			case ID_DPP_LAYOUT_AND_COLOR:
; 95   : 			{
; 96   : 				CPropertyMap mapProperty;

  000a2	8d 8d 28 e2 ff
	ff		 lea	 ecx, DWORD PTR _mapProperty$3[ebp]
  000a8	e8 00 00 00 00	 call	 ??0CPropertyMap@@QAE@XZ

; 97   : 				m_pIChartOCX->GetAllProperties3( &mapProperty, TRUE);

  000ad	8b 4b 04	 mov	 ecx, DWORD PTR [ebx+4]
  000b0	8d 95 44 e2 ff
	ff		 lea	 edx, DWORD PTR _mapProperty$3[ebp+28]
  000b6	6a 01		 push	 1
  000b8	52		 push	 edx
  000b9	c7 45 fc 00 00
	00 00		 mov	 DWORD PTR __$EHRec$[ebp+8], 0
  000c0	8b 01		 mov	 eax, DWORD PTR [ecx]
  000c2	ff 50 24	 call	 DWORD PTR [eax+36]

; 98   : 
; 99   : 				// &     
; 100  : 				ML_SET_LANGUAGE_RES();

  000c5	e8 00 00 00 00	 call	 ?AfxGetStaticModuleState@@YGPAVAFX_MODULE_STATE@@XZ ; AfxGetStaticModuleState
  000ca	b9 00 00 00 00	 mov	 ecx, OFFSET ?g_iMetaTable@@3VIMetaTable@@A ; g_iMetaTable
  000cf	8b 40 08	 mov	 eax, DWORD PTR [eax+8]
  000d2	50		 push	 eax
  000d3	ff 73 28	 push	 DWORD PTR [ebx+40]
  000d6	e8 00 00 00 00	 call	 ?LoadResourceDLL@IMetaTable@@QAEPAUHINSTANCE__@@PAUHWND__@@PAU2@@Z ; IMetaTable::LoadResourceDLL
  000db	8b f8		 mov	 edi, eax
; File C:\Program Files (x86)\Microsoft Visual Studio\2019\Community\VC\Tools\MSVC\14.29.30133\atlmfc\include\afxwin1.inl

; 25   : 		return afxCurrentResourceHandle; }

  000dd	e8 00 00 00 00	 call	 ?AfxGetModuleState@@YGPAVAFX_MODULE_STATE@@XZ ; AfxGetModuleState
; File D:\git\src\IBK\IBK_DRFN\ProjSrc\SrcChartEx\ChartAddIn\ChartDesignPropertyAddIn\Include_Chart\Dll_Load\IMetaTable.h

; 1032 : 		m_hInstance = AfxGetResourceHandle();

  000e2	8b 70 0c	 mov	 esi, DWORD PTR [eax+12]
  000e5	89 b5 90 e2 ff
	ff		 mov	 DWORD PTR ___mlrs__$13[ebp], esi
; File C:\Program Files (x86)\Microsoft Visual Studio\2019\Community\VC\Tools\MSVC\14.29.30133\atlmfc\include\afxwin1.inl

; 27   : 	{ ASSERT(hInstResource != NULL); afxCurrentResourceHandle = hInstResource; }

  000eb	e8 00 00 00 00	 call	 ?AfxGetModuleState@@YGPAVAFX_MODULE_STATE@@XZ ; AfxGetModuleState
  000f0	89 78 0c	 mov	 DWORD PTR [eax+12], edi
; File D:\git\src\IBK\IBK_DRFN\ProjSrc\SrcChartEx\ChartAddIn\ChartDesignPropertyAddIn\ChartDesignPropertyAddIn\ChartDesignPropertyAddInImp.cpp

; 101  : 				CInitializeControlDlg Initdlg( m_pChartCWnd->GetSafeHwnd());

  000f3	8b 43 08	 mov	 eax, DWORD PTR [ebx+8]
  000f6	c6 45 fc 01	 mov	 BYTE PTR __$EHRec$[ebp+8], 1
; File C:\Program Files (x86)\Microsoft Visual Studio\2019\Community\VC\Tools\MSVC\14.29.30133\atlmfc\include\afxwin2.inl

; 25   : 	{ return this == NULL ? NULL : m_hWnd; }

  000fa	85 c0		 test	 eax, eax
  000fc	74 03		 je	 SHORT $LN101@OnCmdMsg
$LN100@OnCmdMsg:
  000fe	8b 40 20	 mov	 eax, DWORD PTR [eax+32]
$LN101@OnCmdMsg:
; File D:\git\src\IBK\IBK_DRFN\ProjSrc\SrcChartEx\ChartAddIn\ChartDesignPropertyAddIn\ChartDesignPropertyAddIn\ChartDesignPropertyAddInImp.cpp

; 101  : 				CInitializeControlDlg Initdlg( m_pChartCWnd->GetSafeHwnd());

  00101	6a 00		 push	 0
  00103	50		 push	 eax
  00104	8d 8d 20 ed ff
	ff		 lea	 ecx, DWORD PTR _Initdlg$17[ebp]
  0010a	e8 00 00 00 00	 call	 ??0CInitializeControlDlg@@QAE@PAUHWND__@@PAVCWnd@@@Z ; CInitializeControlDlg::CInitializeControlDlg

; 102  : 				Initdlg.SetOcxWnd( m_pChartCWnd);

  0010f	ff 73 08	 push	 DWORD PTR [ebx+8]
  00112	8d 8d 20 ed ff
	ff		 lea	 ecx, DWORD PTR _Initdlg$17[ebp]
  00118	c6 45 fc 02	 mov	 BYTE PTR __$EHRec$[ebp+8], 2
  0011c	e8 00 00 00 00	 call	 ?SetOcxWnd@CInitializeControlDlg@@QAEXPAVCWnd@@@Z ; CInitializeControlDlg::SetOcxWnd

; 103  : 				Initdlg.SetProperty( &mapProperty);

  00121	8d 85 44 e2 ff
	ff		 lea	 eax, DWORD PTR _mapProperty$3[ebp+28]
  00127	50		 push	 eax
  00128	8d 8d 20 ed ff
	ff		 lea	 ecx, DWORD PTR _Initdlg$17[ebp]
  0012e	e8 00 00 00 00	 call	 ?SetProperty@CInitializeControlDlg@@QAEXPAUIPropertyMap@@@Z ; CInitializeControlDlg::SetProperty

; 104  : 				Initdlg.DoModal();

  00133	8d 8d 20 ed ff
	ff		 lea	 ecx, DWORD PTR _Initdlg$17[ebp]
  00139	e8 00 00 00 00	 call	 ?DoModal@CDialog@@UAEHXZ ; CDialog::DoModal

; 105  : 				if( Initdlg.GetReturnValue() == 1)

  0013e	8d 8d 20 ed ff
	ff		 lea	 ecx, DWORD PTR _Initdlg$17[ebp]
  00144	e8 00 00 00 00	 call	 ?GetReturnValue@CInitializeControlDlg@@QAEHXZ ; CInitializeControlDlg::GetReturnValue
  00149	83 f8 01	 cmp	 eax, 1
  0014c	75 3c		 jne	 SHORT $LN20@OnCmdMsg

; 106  : 				{
; 107  : 					m_pIChartOCX->SetAllProperties3( &mapProperty);

  0014e	8b 4b 04	 mov	 ecx, DWORD PTR [ebx+4]
  00151	8d 95 44 e2 ff
	ff		 lea	 edx, DWORD PTR _mapProperty$3[ebp+28]
  00157	52		 push	 edx
  00158	8b 01		 mov	 eax, DWORD PTR [ecx]
  0015a	ff 50 28	 call	 DWORD PTR [eax+40]

; 108  : 					m_bExeMenuInit = TRUE;
; 109  : 
; 110  : // (2006/8/31 - Seung-Won, Bae) Support Samsung for notifing to MapGen.
; 111  : //  site Addin Define  - ojtaso (20090907)
; 112  : //#ifdef _ADDIN_SS
; 113  : 						HWND hWnd = GetParent( m_pIChartOCX->GetOcxHwnd());

  0015d	8b 4b 04	 mov	 ecx, DWORD PTR [ebx+4]
  00160	c7 43 24 01 00
	00 00		 mov	 DWORD PTR [ebx+36], 1
  00167	8b 01		 mov	 eax, DWORD PTR [ecx]
  00169	ff 50 34	 call	 DWORD PTR [eax+52]
  0016c	50		 push	 eax
  0016d	ff 15 00 00 00
	00		 call	 DWORD PTR __imp__GetParent@4

; 114  : 						if( hWnd) ::SendMessage( hWnd, WM_COMMAND, ID_DPP_DESIGN_APPLIED, 0);

  00173	85 c0		 test	 eax, eax
  00175	74 13		 je	 SHORT $LN20@OnCmdMsg
  00177	6a 00		 push	 0
  00179	68 91 a0 00 00	 push	 41105			; 0000a091H
  0017e	68 11 01 00 00	 push	 273			; 00000111H
  00183	50		 push	 eax
  00184	ff 15 00 00 00
	00		 call	 DWORD PTR __imp__SendMessageA@16
$LN20@OnCmdMsg:

; 117  : 				break;

  0018a	8d 8d 20 ed ff
	ff		 lea	 ecx, DWORD PTR _Initdlg$17[ebp]
  00190	e8 00 00 00 00	 call	 ??1CInitializeControlDlg@@UAE@XZ ; CInitializeControlDlg::~CInitializeControlDlg
; File D:\git\src\IBK\IBK_DRFN\ProjSrc\SrcChartEx\ChartAddIn\ChartDesignPropertyAddIn\Include_Chart\Dll_Load\IMetaTable.h

; 1036 : 	{

  00195	c6 45 fc 03	 mov	 BYTE PTR __$EHRec$[ebp+8], 3
; File C:\Program Files (x86)\Microsoft Visual Studio\2019\Community\VC\Tools\MSVC\14.29.30133\atlmfc\include\afxwin1.inl

; 27   : 	{ ASSERT(hInstResource != NULL); afxCurrentResourceHandle = hInstResource; }

  00199	e8 00 00 00 00	 call	 ?AfxGetModuleState@@YGPAVAFX_MODULE_STATE@@XZ ; AfxGetModuleState
  0019e	8d 8d 28 e2 ff
	ff		 lea	 ecx, DWORD PTR _mapProperty$3[ebp]
; File D:\git\src\IBK\IBK_DRFN\ProjSrc\SrcChartEx\ChartAddIn\ChartDesignPropertyAddIn\ChartDesignPropertyAddIn\ChartDesignPropertyAddInImp.cpp

; 117  : 				break;

  001a4	c7 45 fc ff ff
	ff ff		 mov	 DWORD PTR __$EHRec$[ebp+8], -1
; File C:\Program Files (x86)\Microsoft Visual Studio\2019\Community\VC\Tools\MSVC\14.29.30133\atlmfc\include\afxwin1.inl

; 27   : 	{ ASSERT(hInstResource != NULL); afxCurrentResourceHandle = hInstResource; }

  001ab	89 70 0c	 mov	 DWORD PTR [eax+12], esi
  001ae	c7 85 44 e2 ff
	ff 00 00 00 00	 mov	 DWORD PTR _mapProperty$3[ebp+28], OFFSET ??_7IPropertyMap@@6B@
  001b8	e8 00 00 00 00	 call	 ??1CMapStringToString@@UAE@XZ ; CMapStringToString::~CMapStringToString
; File D:\git\src\IBK\IBK_DRFN\ProjSrc\SrcChartEx\ChartAddIn\ChartDesignPropertyAddIn\ChartDesignPropertyAddIn\ChartDesignPropertyAddInImp.cpp

; 229  : 		m_pIChartOCX->InvalidateControl();

  001bd	8b 4b 04	 mov	 ecx, DWORD PTR [ebx+4]
  001c0	8b 01		 mov	 eax, DWORD PTR [ecx]
  001c2	ff 50 2c	 call	 DWORD PTR [eax+44]

; 230  : 		return TRUE;

  001c5	b8 01 00 00 00	 mov	 eax, 1
  001ca	e9 c6 05 00 00	 jmp	 $LN1@OnCmdMsg
$LN116@OnCmdMsg:

; 118  : 			}
; 119  : 
; 120  : 			case ID_DPP_PROPERTY_PAGE:
; 121  : 			{
; 122  : 				CPropertyMap mapProperty;

  001cf	8d 8d 68 e2 ff
	ff		 lea	 ecx, DWORD PTR _mapProperty$5[ebp]
  001d5	e8 00 00 00 00	 call	 ??0CPropertyMap@@QAE@XZ

; 123  : 				m_pIChartOCX->GetAllProperties3( &mapProperty, TRUE);

  001da	8b 4b 04	 mov	 ecx, DWORD PTR [ebx+4]
  001dd	8d 95 84 e2 ff
	ff		 lea	 edx, DWORD PTR _mapProperty$5[ebp+28]
  001e3	6a 01		 push	 1
  001e5	52		 push	 edx
  001e6	c7 45 fc 05 00
	00 00		 mov	 DWORD PTR __$EHRec$[ebp+8], 5
  001ed	8b 01		 mov	 eax, DWORD PTR [ecx]
  001ef	ff 50 24	 call	 DWORD PTR [eax+36]

; 124  : 
; 125  : 				int nRow = 1, nColumn = 1;
; 126  : 				IPropertyMap *pIPropertyMap = &mapProperty;
; 127  : 				/*const*/ char* szData;
; 128  : 				pIPropertyMap->Lookup( g_anPropertyShortKey[ NBLOCKROWCOUNT], szData);

  001f2	8d 85 8c e2 ff
	ff		 lea	 eax, DWORD PTR _szData$10[ebp]
  001f8	c7 85 90 e2 ff
	ff 01 00 00 00	 mov	 DWORD PTR _nRow$1$[ebp], 1
  00202	50		 push	 eax
  00203	8b 85 84 e2 ff
	ff		 mov	 eax, DWORD PTR _mapProperty$5[ebp+28]
  00209	8d 8d 84 e2 ff
	ff		 lea	 ecx, DWORD PTR _mapProperty$5[ebp+28]
  0020f	ff 35 44 00 00
	00		 push	 DWORD PTR ?g_anPropertyShortKey@@3PAPADA+68
  00215	c7 85 94 e2 ff
	ff 01 00 00 00	 mov	 DWORD PTR _nColumn$1$[ebp], 1
  0021f	ff 50 0c	 call	 DWORD PTR [eax+12]

; 129  : 				if( szData) nRow = atoi( szData);

  00222	8b 85 8c e2 ff
	ff		 mov	 eax, DWORD PTR _szData$10[ebp]
  00228	8b 35 00 00 00
	00		 mov	 esi, DWORD PTR __imp__atoi
  0022e	85 c0		 test	 eax, eax
  00230	74 0c		 je	 SHORT $LN22@OnCmdMsg
  00232	50		 push	 eax
  00233	ff d6		 call	 esi
  00235	83 c4 04	 add	 esp, 4
  00238	89 85 90 e2 ff
	ff		 mov	 DWORD PTR _nRow$1$[ebp], eax
$LN22@OnCmdMsg:

; 130  : 				pIPropertyMap->Lookup( g_anPropertyShortKey[ NBLOCKCOLUMNCOUNT], szData);

  0023e	8b 95 84 e2 ff
	ff		 mov	 edx, DWORD PTR _mapProperty$5[ebp+28]
  00244	8d 85 8c e2 ff
	ff		 lea	 eax, DWORD PTR _szData$10[ebp]
  0024a	50		 push	 eax
  0024b	ff 35 48 00 00
	00		 push	 DWORD PTR ?g_anPropertyShortKey@@3PAPADA+72
  00251	8d 8d 84 e2 ff
	ff		 lea	 ecx, DWORD PTR _mapProperty$5[ebp+28]
  00257	ff 52 0c	 call	 DWORD PTR [edx+12]

; 131  : 				if( szData) nColumn = atoi( szData);

  0025a	8b 85 8c e2 ff
	ff		 mov	 eax, DWORD PTR _szData$10[ebp]
  00260	85 c0		 test	 eax, eax
  00262	74 0c		 je	 SHORT $LN23@OnCmdMsg
  00264	50		 push	 eax
  00265	ff d6		 call	 esi
  00267	83 c4 04	 add	 esp, 4
  0026a	89 85 94 e2 ff
	ff		 mov	 DWORD PTR _nColumn$1$[ebp], eax
$LN23@OnCmdMsg:

; 132  : 
; 133  : 				ML_SET_LANGUAGE_RES();

  00270	e8 00 00 00 00	 call	 ?AfxGetStaticModuleState@@YGPAVAFX_MODULE_STATE@@XZ ; AfxGetStaticModuleState
  00275	8b 48 08	 mov	 ecx, DWORD PTR [eax+8]
  00278	51		 push	 ecx
  00279	ff 73 28	 push	 DWORD PTR [ebx+40]
  0027c	b9 00 00 00 00	 mov	 ecx, OFFSET ?g_iMetaTable@@3VIMetaTable@@A ; g_iMetaTable
  00281	e8 00 00 00 00	 call	 ?LoadResourceDLL@IMetaTable@@QAEPAUHINSTANCE__@@PAUHWND__@@PAU2@@Z ; IMetaTable::LoadResourceDLL
  00286	8b f8		 mov	 edi, eax
; File C:\Program Files (x86)\Microsoft Visual Studio\2019\Community\VC\Tools\MSVC\14.29.30133\atlmfc\include\afxwin1.inl

; 25   : 		return afxCurrentResourceHandle; }

  00288	e8 00 00 00 00	 call	 ?AfxGetModuleState@@YGPAVAFX_MODULE_STATE@@XZ ; AfxGetModuleState
; File D:\git\src\IBK\IBK_DRFN\ProjSrc\SrcChartEx\ChartAddIn\ChartDesignPropertyAddIn\Include_Chart\Dll_Load\IMetaTable.h

; 1032 : 		m_hInstance = AfxGetResourceHandle();

  0028d	8b 70 0c	 mov	 esi, DWORD PTR [eax+12]
  00290	89 b5 88 e2 ff
	ff		 mov	 DWORD PTR ___mlrs__$9[ebp], esi
; File C:\Program Files (x86)\Microsoft Visual Studio\2019\Community\VC\Tools\MSVC\14.29.30133\atlmfc\include\afxwin1.inl

; 27   : 	{ ASSERT(hInstResource != NULL); afxCurrentResourceHandle = hInstResource; }

  00296	e8 00 00 00 00	 call	 ?AfxGetModuleState@@YGPAVAFX_MODULE_STATE@@XZ ; AfxGetModuleState
  0029b	89 78 0c	 mov	 DWORD PTR [eax+12], edi
; File D:\git\src\IBK\IBK_DRFN\ProjSrc\SrcChartEx\ChartAddIn\ChartDesignPropertyAddIn\ChartDesignPropertyAddIn\ChartDesignPropertyAddInImp.cpp

; 134  : 				CChartPropertySheet dlgProp( "Property Page", m_pChartCWnd->GetSafeHwnd());

  0029e	8b 43 08	 mov	 eax, DWORD PTR [ebx+8]
  002a1	c6 45 fc 06	 mov	 BYTE PTR __$EHRec$[ebp+8], 6
; File C:\Program Files (x86)\Microsoft Visual Studio\2019\Community\VC\Tools\MSVC\14.29.30133\atlmfc\include\afxwin2.inl

; 25   : 	{ return this == NULL ? NULL : m_hWnd; }

  002a5	85 c0		 test	 eax, eax
  002a7	74 03		 je	 SHORT $LN127@OnCmdMsg
$LN126@OnCmdMsg:
  002a9	8b 40 20	 mov	 eax, DWORD PTR [eax+32]
$LN127@OnCmdMsg:
; File D:\git\src\IBK\IBK_DRFN\ProjSrc\SrcChartEx\ChartAddIn\ChartDesignPropertyAddIn\ChartDesignPropertyAddIn\ChartDesignPropertyAddInImp.cpp

; 134  : 				CChartPropertySheet dlgProp( "Property Page", m_pChartCWnd->GetSafeHwnd());

  002ac	6a 00		 push	 0
  002ae	6a 00		 push	 0
  002b0	50		 push	 eax
  002b1	68 00 00 00 00	 push	 OFFSET ??_C@_0O@CGEFBDMJ@Property?5Page@
  002b6	8d 8d 98 e2 ff
	ff		 lea	 ecx, DWORD PTR _dlgProp$16[ebp]
  002bc	e8 00 00 00 00	 call	 ??0CChartPropertySheet@@QAE@PBDPAUHWND__@@PAVCWnd@@I@Z ; CChartPropertySheet::CChartPropertySheet

; 135  : 				dlgProp.SetIGraphInfoManager( m_pIGraphInfoManager);

  002c1	ff 73 18	 push	 DWORD PTR [ebx+24]
  002c4	8d 8d 98 e2 ff
	ff		 lea	 ecx, DWORD PTR _dlgProp$16[ebp]
  002ca	c6 45 fc 07	 mov	 BYTE PTR __$EHRec$[ebp+8], 7
  002ce	e8 00 00 00 00	 call	 ?SetIGraphInfoManager@CChartPropertySheet@@QAEXPAUIGraphInfoManager134661@@@Z ; CChartPropertySheet::SetIGraphInfoManager

; 136  : 				dlgProp.SetBlockProperty( nRow, nColumn);

  002d3	ff b5 94 e2 ff
	ff		 push	 DWORD PTR _nColumn$1$[ebp]
  002d9	8d 8d 98 e2 ff
	ff		 lea	 ecx, DWORD PTR _dlgProp$16[ebp]
  002df	ff b5 90 e2 ff
	ff		 push	 DWORD PTR _nRow$1$[ebp]
  002e5	e8 00 00 00 00	 call	 ?SetBlockProperty@CChartPropertySheet@@QAEXHH@Z ; CChartPropertySheet::SetBlockProperty

; 137  : 				dlgProp.SetProperty( &mapProperty);

  002ea	8d 85 84 e2 ff
	ff		 lea	 eax, DWORD PTR _mapProperty$5[ebp+28]
  002f0	50		 push	 eax
  002f1	8d 8d 98 e2 ff
	ff		 lea	 ecx, DWORD PTR _dlgProp$16[ebp]
  002f7	e8 00 00 00 00	 call	 ?SetProperty@CChartPropertySheet@@QAEXPAUIPropertyMap@@@Z ; CChartPropertySheet::SetProperty

; 138  : 				if( dlgProp.DoModal() == IDOK)

  002fc	8d 8d 98 e2 ff
	ff		 lea	 ecx, DWORD PTR _dlgProp$16[ebp]
  00302	e8 00 00 00 00	 call	 ?DoModal@CPropertySheet@@UAEHXZ ; CPropertySheet::DoModal
  00307	83 f8 01	 cmp	 eax, 1
  0030a	0f 85 ae 00 00
	00		 jne	 $LN24@OnCmdMsg

; 139  : 				{
; 140  : 					// (2008/1/14 - Seung-Won, Bae) for MultiLanguage.
; 141  : 					CString strLocalLanguageTable;

  00310	8d 8d 94 e2 ff
	ff		 lea	 ecx, DWORD PTR _strLocalLanguageTable$15[ebp]
  00316	ff 15 00 00 00
	00		 call	 DWORD PTR __imp_??0?$CStringT@DV?$StrTraitMFC_DLL@DV?$ChTraitsCRT@D@ATL@@@@@ATL@@QAE@XZ

; 142  : 					if( m_pChartCWnd) if( m_pChartCWnd->GetSafeHwnd())

  0031c	8b 43 08	 mov	 eax, DWORD PTR [ebx+8]
  0031f	c6 45 fc 08	 mov	 BYTE PTR __$EHRec$[ebp+8], 8
  00323	85 c0		 test	 eax, eax
  00325	74 1f		 je	 SHORT $LN26@OnCmdMsg
; File C:\Program Files (x86)\Microsoft Visual Studio\2019\Community\VC\Tools\MSVC\14.29.30133\atlmfc\include\afxwin2.inl

; 25   : 	{ return this == NULL ? NULL : m_hWnd; }

  00327	8b 40 20	 mov	 eax, DWORD PTR [eax+32]
; File D:\git\src\IBK\IBK_DRFN\ProjSrc\SrcChartEx\ChartAddIn\ChartDesignPropertyAddIn\ChartDesignPropertyAddIn\ChartDesignPropertyAddInImp.cpp

; 142  : 					if( m_pChartCWnd) if( m_pChartCWnd->GetSafeHwnd())

  0032a	85 c0		 test	 eax, eax
  0032c	74 18		 je	 SHORT $LN26@OnCmdMsg

; 143  : 						strLocalLanguageTable = g_iMetaTable.GetLocalLanguageTable( m_pChartCWnd->GetSafeHwnd());

  0032e	50		 push	 eax
  0032f	b9 00 00 00 00	 mov	 ecx, OFFSET ?g_iMetaTable@@3VIMetaTable@@A ; g_iMetaTable
  00334	e8 00 00 00 00	 call	 ?GetLocalLanguageTable@IMetaTable@@IAEPBDPAUHWND__@@@Z ; IMetaTable::GetLocalLanguageTable
  00339	50		 push	 eax
  0033a	8d 8d 94 e2 ff
	ff		 lea	 ecx, DWORD PTR _strLocalLanguageTable$15[ebp]
  00340	ff 15 00 00 00
	00		 call	 DWORD PTR __imp_??4?$CStringT@DV?$StrTraitMFC_DLL@DV?$ChTraitsCRT@D@ATL@@@@@ATL@@QAEAAV01@PBD@Z
$LN26@OnCmdMsg:

; 144  : 					CHART_ADDTOSTRLIST_START( TRUE)

  00346	8d 8d 90 e2 ff
	ff		 lea	 ecx, DWORD PTR _strData$12[ebp]
  0034c	ff 15 00 00 00
	00		 call	 DWORD PTR __imp_??0?$CStringT@DV?$StrTraitMFC_DLL@DV?$ChTraitsCRT@D@ATL@@@@@ATL@@QAE@XZ

; 145  : 						CHART_ADDTOSTRLIST_STRING( ( ( IPropertyMap *)&mapProperty), g_anPropertyShortKey[ LOCALLANGUAGETABLE], strLocalLanguageTable, _DPV_LOCALLANGUAGETABLE);

  00352	ff b5 94 e2 ff
	ff		 push	 DWORD PTR _strLocalLanguageTable$15[ebp]
  00358	8b 85 84 e2 ff
	ff		 mov	 eax, DWORD PTR _mapProperty$5[ebp+28]
  0035e	8d 8d 84 e2 ff
	ff		 lea	 ecx, DWORD PTR _mapProperty$5[ebp+28]
  00364	ff 35 2c 01 00
	00		 push	 DWORD PTR ?g_anPropertyShortKey@@3PAPADA+300
  0036a	c6 45 fc 09	 mov	 BYTE PTR __$EHRec$[ebp+8], 9
  0036e	ff 50 14	 call	 DWORD PTR [eax+20]

; 146  : 					CHART_ADDTOSTRLIST_END
; 147  : 
; 148  : 					m_pIChartOCX->SetAllProperties3( &mapProperty);

  00371	8b 4b 04	 mov	 ecx, DWORD PTR [ebx+4]
  00374	8d 95 84 e2 ff
	ff		 lea	 edx, DWORD PTR _mapProperty$5[ebp+28]
  0037a	52		 push	 edx
  0037b	8b 01		 mov	 eax, DWORD PTR [ecx]
  0037d	ff 50 28	 call	 DWORD PTR [eax+40]

; 149  : 
; 150  : // (2006/8/31 - Seung-Won, Bae) Support Samsung for notifing to MapGen.
; 151  : //  site Addin Define  - ojtaso (20090907)
; 152  : //#ifdef _ADDIN_SS
; 153  : 						HWND hWnd = GetParent( m_pIChartOCX->GetOcxHwnd());

  00380	8b 4b 04	 mov	 ecx, DWORD PTR [ebx+4]
  00383	8b 01		 mov	 eax, DWORD PTR [ecx]
  00385	ff 50 34	 call	 DWORD PTR [eax+52]
  00388	50		 push	 eax
  00389	ff 15 00 00 00
	00		 call	 DWORD PTR __imp__GetParent@4

; 154  : 						if( hWnd) ::SendMessage( hWnd, WM_COMMAND, ID_DPP_DESIGN_APPLIED, 0);

  0038f	85 c0		 test	 eax, eax
  00391	74 13		 je	 SHORT $LN29@OnCmdMsg
  00393	6a 00		 push	 0
  00395	68 91 a0 00 00	 push	 41105			; 0000a091H
  0039a	68 11 01 00 00	 push	 273			; 00000111H
  0039f	50		 push	 eax
  003a0	ff 15 00 00 00
	00		 call	 DWORD PTR __imp__SendMessageA@16
$LN29@OnCmdMsg:

; 155  : //#endif
; 156  : 				}

  003a6	8d 8d 90 e2 ff
	ff		 lea	 ecx, DWORD PTR _strData$12[ebp]
  003ac	ff 15 00 00 00
	00		 call	 DWORD PTR __imp_??1?$CStringT@DV?$StrTraitMFC_DLL@DV?$ChTraitsCRT@D@ATL@@@@@ATL@@QAE@XZ
  003b2	8d 8d 94 e2 ff
	ff		 lea	 ecx, DWORD PTR _strLocalLanguageTable$15[ebp]
  003b8	ff 15 00 00 00
	00		 call	 DWORD PTR __imp_??1?$CStringT@DV?$StrTraitMFC_DLL@DV?$ChTraitsCRT@D@ATL@@@@@ATL@@QAE@XZ
$LN24@OnCmdMsg:

; 157  : 				break;

  003be	8d 8d 98 e2 ff
	ff		 lea	 ecx, DWORD PTR _dlgProp$16[ebp]
  003c4	e8 00 00 00 00	 call	 ??1CChartPropertySheet@@UAE@XZ ; CChartPropertySheet::~CChartPropertySheet
; File D:\git\src\IBK\IBK_DRFN\ProjSrc\SrcChartEx\ChartAddIn\ChartDesignPropertyAddIn\Include_Chart\Dll_Load\IMetaTable.h

; 1036 : 	{

  003c9	c6 45 fc 0a	 mov	 BYTE PTR __$EHRec$[ebp+8], 10 ; 0000000aH
; File C:\Program Files (x86)\Microsoft Visual Studio\2019\Community\VC\Tools\MSVC\14.29.30133\atlmfc\include\afxwin1.inl

; 27   : 	{ ASSERT(hInstResource != NULL); afxCurrentResourceHandle = hInstResource; }

  003cd	e8 00 00 00 00	 call	 ?AfxGetModuleState@@YGPAVAFX_MODULE_STATE@@XZ ; AfxGetModuleState
  003d2	8d 8d 68 e2 ff
	ff		 lea	 ecx, DWORD PTR _mapProperty$5[ebp]
; File D:\git\src\IBK\IBK_DRFN\ProjSrc\SrcChartEx\ChartAddIn\ChartDesignPropertyAddIn\ChartDesignPropertyAddIn\ChartDesignPropertyAddInImp.cpp

; 157  : 				break;

  003d8	c7 45 fc ff ff
	ff ff		 mov	 DWORD PTR __$EHRec$[ebp+8], -1
; File C:\Program Files (x86)\Microsoft Visual Studio\2019\Community\VC\Tools\MSVC\14.29.30133\atlmfc\include\afxwin1.inl

; 27   : 	{ ASSERT(hInstResource != NULL); afxCurrentResourceHandle = hInstResource; }

  003df	89 70 0c	 mov	 DWORD PTR [eax+12], esi
  003e2	c7 85 84 e2 ff
	ff 00 00 00 00	 mov	 DWORD PTR _mapProperty$5[ebp+28], OFFSET ??_7IPropertyMap@@6B@
  003ec	e8 00 00 00 00	 call	 ??1CMapStringToString@@UAE@XZ ; CMapStringToString::~CMapStringToString
; File D:\git\src\IBK\IBK_DRFN\ProjSrc\SrcChartEx\ChartAddIn\ChartDesignPropertyAddIn\ChartDesignPropertyAddIn\ChartDesignPropertyAddInImp.cpp

; 229  : 		m_pIChartOCX->InvalidateControl();

  003f1	8b 4b 04	 mov	 ecx, DWORD PTR [ebx+4]
  003f4	8b 01		 mov	 eax, DWORD PTR [ecx]
  003f6	ff 50 2c	 call	 DWORD PTR [eax+44]

; 230  : 		return TRUE;

  003f9	b8 01 00 00 00	 mov	 eax, 1
  003fe	e9 92 03 00 00	 jmp	 $LN1@OnCmdMsg
$LN154@OnCmdMsg:

; 229  : 		m_pIChartOCX->InvalidateControl();

  00403	8b 4b 04	 mov	 ecx, DWORD PTR [ebx+4]
  00406	c7 43 24 00 00
	00 00		 mov	 DWORD PTR [ebx+36], 0
  0040d	8b 01		 mov	 eax, DWORD PTR [ecx]
  0040f	ff 50 2c	 call	 DWORD PTR [eax+44]

; 230  : 		return TRUE;

  00412	b8 01 00 00 00	 mov	 eax, 1
  00417	e9 79 03 00 00	 jmp	 $LN1@OnCmdMsg
$LN31@OnCmdMsg:

; 158  : 			}
; 159  : 
; 160  : 			case ID_DPP_MENU_RESTART:	m_bExeMenuInit	= FALSE;
; 161  : 										break;
; 162  : 
; 163  : 			case ID_DPP_PROPERTY_FONT:
; 164  : 			{
; 165  : 				CPropertyMap mapProperty;

  0041c	8d 8d 48 e2 ff
	ff		 lea	 ecx, DWORD PTR _mapProperty$4[ebp]
  00422	e8 00 00 00 00	 call	 ??0CPropertyMap@@QAE@XZ

; 166  : 				m_pIChartOCX->GetAllProperties3( &mapProperty, TRUE);

  00427	8b 4b 04	 mov	 ecx, DWORD PTR [ebx+4]
  0042a	8d 95 64 e2 ff
	ff		 lea	 edx, DWORD PTR _mapProperty$4[ebp+28]
  00430	6a 01		 push	 1
  00432	52		 push	 edx
  00433	c7 45 fc 0c 00
	00 00		 mov	 DWORD PTR __$EHRec$[ebp+8], 12 ; 0000000cH
  0043a	8b 01		 mov	 eax, DWORD PTR [ecx]
  0043c	ff 50 24	 call	 DWORD PTR [eax+36]

; 167  : 
; 168  : 				ML_SET_LANGUAGE_RES();

  0043f	e8 00 00 00 00	 call	 ?AfxGetStaticModuleState@@YGPAVAFX_MODULE_STATE@@XZ ; AfxGetStaticModuleState
  00444	b9 00 00 00 00	 mov	 ecx, OFFSET ?g_iMetaTable@@3VIMetaTable@@A ; g_iMetaTable
  00449	8b 40 08	 mov	 eax, DWORD PTR [eax+8]
  0044c	50		 push	 eax
  0044d	ff 73 28	 push	 DWORD PTR [ebx+40]
  00450	e8 00 00 00 00	 call	 ?LoadResourceDLL@IMetaTable@@QAEPAUHINSTANCE__@@PAUHWND__@@PAU2@@Z ; IMetaTable::LoadResourceDLL
  00455	8b f8		 mov	 edi, eax
; File C:\Program Files (x86)\Microsoft Visual Studio\2019\Community\VC\Tools\MSVC\14.29.30133\atlmfc\include\afxwin1.inl

; 25   : 		return afxCurrentResourceHandle; }

  00457	e8 00 00 00 00	 call	 ?AfxGetModuleState@@YGPAVAFX_MODULE_STATE@@XZ ; AfxGetModuleState
; File D:\git\src\IBK\IBK_DRFN\ProjSrc\SrcChartEx\ChartAddIn\ChartDesignPropertyAddIn\Include_Chart\Dll_Load\IMetaTable.h

; 1032 : 		m_hInstance = AfxGetResourceHandle();

  0045c	8b 70 0c	 mov	 esi, DWORD PTR [eax+12]
  0045f	89 b5 88 e2 ff
	ff		 mov	 DWORD PTR ___mlrs__$8[ebp], esi
; File C:\Program Files (x86)\Microsoft Visual Studio\2019\Community\VC\Tools\MSVC\14.29.30133\atlmfc\include\afxwin1.inl

; 27   : 	{ ASSERT(hInstResource != NULL); afxCurrentResourceHandle = hInstResource; }

  00465	e8 00 00 00 00	 call	 ?AfxGetModuleState@@YGPAVAFX_MODULE_STATE@@XZ ; AfxGetModuleState
  0046a	89 78 0c	 mov	 DWORD PTR [eax+12], edi
; File D:\git\src\IBK\IBK_DRFN\ProjSrc\SrcChartEx\ChartAddIn\ChartDesignPropertyAddIn\ChartDesignPropertyAddIn\ChartDesignPropertyAddInImp.cpp

; 169  : 				CDFontPropPage fontdlg( m_pChartCWnd);

  0046d	6a 00		 push	 0
  0046f	ff 73 08	 push	 DWORD PTR [ebx+8]
  00472	8d 8d a0 fb ff
	ff		 lea	 ecx, DWORD PTR _fontdlg$18[ebp]
  00478	c6 45 fc 0d	 mov	 BYTE PTR __$EHRec$[ebp+8], 13 ; 0000000dH
  0047c	e8 00 00 00 00	 call	 ??0CDFontPropPage@@QAE@PAVCWnd@@0@Z ; CDFontPropPage::CDFontPropPage

; 170  : 				fontdlg.SetProperty( &mapProperty);

  00481	8d 85 64 e2 ff
	ff		 lea	 eax, DWORD PTR _mapProperty$4[ebp+28]
  00487	c6 45 fc 0e	 mov	 BYTE PTR __$EHRec$[ebp+8], 14 ; 0000000eH
  0048b	50		 push	 eax
  0048c	8d 8d a0 fb ff
	ff		 lea	 ecx, DWORD PTR _fontdlg$18[ebp]
  00492	e8 00 00 00 00	 call	 ?SetProperty@CDFontPropPage@@QAEXPAUIPropertyMap@@@Z ; CDFontPropPage::SetProperty

; 171  : 				if( fontdlg.DoModal() == IDOK)

  00497	8d 8d a0 fb ff
	ff		 lea	 ecx, DWORD PTR _fontdlg$18[ebp]
  0049d	e8 00 00 00 00	 call	 ?DoModal@CDialog@@UAEHXZ ; CDialog::DoModal
  004a2	83 f8 01	 cmp	 eax, 1
  004a5	0f 85 ae 00 00
	00		 jne	 $LN32@OnCmdMsg

; 172  : 				{
; 173  : 					// (2008/1/14 - Seung-Won, Bae) for MultiLanguage.
; 174  : 					CString strLocalLanguageTable;

  004ab	8d 8d 94 e2 ff
	ff		 lea	 ecx, DWORD PTR _strLocalLanguageTable$14[ebp]
  004b1	ff 15 00 00 00
	00		 call	 DWORD PTR __imp_??0?$CStringT@DV?$StrTraitMFC_DLL@DV?$ChTraitsCRT@D@ATL@@@@@ATL@@QAE@XZ

; 175  : 					if( m_pChartCWnd) if( m_pChartCWnd->GetSafeHwnd())

  004b7	8b 43 08	 mov	 eax, DWORD PTR [ebx+8]
  004ba	c6 45 fc 0f	 mov	 BYTE PTR __$EHRec$[ebp+8], 15 ; 0000000fH
  004be	85 c0		 test	 eax, eax
  004c0	74 1f		 je	 SHORT $LN34@OnCmdMsg
; File C:\Program Files (x86)\Microsoft Visual Studio\2019\Community\VC\Tools\MSVC\14.29.30133\atlmfc\include\afxwin2.inl

; 25   : 	{ return this == NULL ? NULL : m_hWnd; }

  004c2	8b 40 20	 mov	 eax, DWORD PTR [eax+32]
; File D:\git\src\IBK\IBK_DRFN\ProjSrc\SrcChartEx\ChartAddIn\ChartDesignPropertyAddIn\ChartDesignPropertyAddIn\ChartDesignPropertyAddInImp.cpp

; 175  : 					if( m_pChartCWnd) if( m_pChartCWnd->GetSafeHwnd())

  004c5	85 c0		 test	 eax, eax
  004c7	74 18		 je	 SHORT $LN34@OnCmdMsg

; 176  : 						strLocalLanguageTable = g_iMetaTable.GetLocalLanguageTable( m_pChartCWnd->GetSafeHwnd());

  004c9	50		 push	 eax
  004ca	b9 00 00 00 00	 mov	 ecx, OFFSET ?g_iMetaTable@@3VIMetaTable@@A ; g_iMetaTable
  004cf	e8 00 00 00 00	 call	 ?GetLocalLanguageTable@IMetaTable@@IAEPBDPAUHWND__@@@Z ; IMetaTable::GetLocalLanguageTable
  004d4	50		 push	 eax
  004d5	8d 8d 94 e2 ff
	ff		 lea	 ecx, DWORD PTR _strLocalLanguageTable$14[ebp]
  004db	ff 15 00 00 00
	00		 call	 DWORD PTR __imp_??4?$CStringT@DV?$StrTraitMFC_DLL@DV?$ChTraitsCRT@D@ATL@@@@@ATL@@QAEAAV01@PBD@Z
$LN34@OnCmdMsg:

; 177  : 					CHART_ADDTOSTRLIST_START( TRUE)

  004e1	8d 8d 90 e2 ff
	ff		 lea	 ecx, DWORD PTR _strData$11[ebp]
  004e7	ff 15 00 00 00
	00		 call	 DWORD PTR __imp_??0?$CStringT@DV?$StrTraitMFC_DLL@DV?$ChTraitsCRT@D@ATL@@@@@ATL@@QAE@XZ

; 178  : 						CHART_ADDTOSTRLIST_STRING( ( ( IPropertyMap *)&mapProperty), g_anPropertyShortKey[ LOCALLANGUAGETABLE], strLocalLanguageTable, _DPV_LOCALLANGUAGETABLE);

  004ed	ff b5 94 e2 ff
	ff		 push	 DWORD PTR _strLocalLanguageTable$14[ebp]
  004f3	8b 85 64 e2 ff
	ff		 mov	 eax, DWORD PTR _mapProperty$4[ebp+28]
  004f9	8d 8d 64 e2 ff
	ff		 lea	 ecx, DWORD PTR _mapProperty$4[ebp+28]
  004ff	ff 35 2c 01 00
	00		 push	 DWORD PTR ?g_anPropertyShortKey@@3PAPADA+300
  00505	c6 45 fc 10	 mov	 BYTE PTR __$EHRec$[ebp+8], 16 ; 00000010H
  00509	ff 50 14	 call	 DWORD PTR [eax+20]

; 179  : 					CHART_ADDTOSTRLIST_END
; 180  : 
; 181  : 					m_pIChartOCX->SetAllProperties3( &mapProperty);

  0050c	8b 4b 04	 mov	 ecx, DWORD PTR [ebx+4]
  0050f	8d 95 64 e2 ff
	ff		 lea	 edx, DWORD PTR _mapProperty$4[ebp+28]
  00515	52		 push	 edx
  00516	8b 01		 mov	 eax, DWORD PTR [ecx]
  00518	ff 50 28	 call	 DWORD PTR [eax+40]

; 182  : 
; 183  : // (2006/8/31 - Seung-Won, Bae) Support Samsung for notifing to MapGen.
; 184  : //  site Addin Define  - ojtaso (20090907)
; 185  : //#ifdef _ADDIN_SS
; 186  : 					HWND hWnd = GetParent( m_pIChartOCX->GetOcxHwnd());

  0051b	8b 4b 04	 mov	 ecx, DWORD PTR [ebx+4]
  0051e	8b 01		 mov	 eax, DWORD PTR [ecx]
  00520	ff 50 34	 call	 DWORD PTR [eax+52]
  00523	50		 push	 eax
  00524	ff 15 00 00 00
	00		 call	 DWORD PTR __imp__GetParent@4

; 187  : 					if( hWnd) ::SendMessage( hWnd, WM_COMMAND, ID_DPP_DESIGN_APPLIED, 0);

  0052a	85 c0		 test	 eax, eax
  0052c	74 13		 je	 SHORT $LN37@OnCmdMsg
  0052e	6a 00		 push	 0
  00530	68 91 a0 00 00	 push	 41105			; 0000a091H
  00535	68 11 01 00 00	 push	 273			; 00000111H
  0053a	50		 push	 eax
  0053b	ff 15 00 00 00
	00		 call	 DWORD PTR __imp__SendMessageA@16
$LN37@OnCmdMsg:

; 188  : //#endif
; 189  : 				}

  00541	8d 8d 90 e2 ff
	ff		 lea	 ecx, DWORD PTR _strData$11[ebp]
  00547	ff 15 00 00 00
	00		 call	 DWORD PTR __imp_??1?$CStringT@DV?$StrTraitMFC_DLL@DV?$ChTraitsCRT@D@ATL@@@@@ATL@@QAE@XZ
  0054d	8d 8d 94 e2 ff
	ff		 lea	 ecx, DWORD PTR _strLocalLanguageTable$14[ebp]
  00553	ff 15 00 00 00
	00		 call	 DWORD PTR __imp_??1?$CStringT@DV?$StrTraitMFC_DLL@DV?$ChTraitsCRT@D@ATL@@@@@ATL@@QAE@XZ
$LN32@OnCmdMsg:
  00559	8d 4d e0	 lea	 ecx, DWORD PTR _fontdlg$18[ebp+1088]
  0055c	ff 15 00 00 00
	00		 call	 DWORD PTR __imp_??1?$CStringT@DV?$StrTraitMFC_DLL@DV?$ChTraitsCRT@D@ATL@@@@@ATL@@QAE@XZ
  00562	8d 8d 60 ff ff
	ff		 lea	 ecx, DWORD PTR _fontdlg$18[ebp+960]
  00568	e8 00 00 00 00	 call	 ??1CStatic@@UAE@XZ	; CStatic::~CStatic
  0056d	8d 8d e0 fe ff
	ff		 lea	 ecx, DWORD PTR _fontdlg$18[ebp+832]
  00573	e8 00 00 00 00	 call	 ??1CComboBox@@UAE@XZ	; CComboBox::~CComboBox
  00578	8d 8d 60 fe ff
	ff		 lea	 ecx, DWORD PTR _fontdlg$18[ebp+704]
  0057e	e8 00 00 00 00	 call	 ??1CComboBox@@UAE@XZ	; CComboBox::~CComboBox
  00583	8d 8d e0 fd ff
	ff		 lea	 ecx, DWORD PTR _fontdlg$18[ebp+576]
  00589	e8 00 00 00 00	 call	 ??1CButton@@UAE@XZ	; CButton::~CButton
  0058e	8d 8d 60 fd ff
	ff		 lea	 ecx, DWORD PTR _fontdlg$18[ebp+448]
  00594	e8 00 00 00 00	 call	 ??1CButton@@UAE@XZ	; CButton::~CButton
  00599	8d 8d e0 fc ff
	ff		 lea	 ecx, DWORD PTR _fontdlg$18[ebp+320]
  0059f	e8 00 00 00 00	 call	 ??1CButton@@UAE@XZ	; CButton::~CButton
  005a4	8d 8d 60 fc ff
	ff		 lea	 ecx, DWORD PTR _fontdlg$18[ebp+192]
  005aa	e8 00 00 00 00	 call	 ??1CButton@@UAE@XZ	; CButton::~CButton
  005af	8d 8d 48 fc ff
	ff		 lea	 ecx, DWORD PTR _fontdlg$18[ebp+168]
  005b5	ff 15 00 00 00
	00		 call	 DWORD PTR __imp_??1?$CStringT@DV?$StrTraitMFC_DLL@DV?$ChTraitsCRT@D@ATL@@@@@ATL@@QAE@XZ
  005bb	8d 8d a0 fb ff
	ff		 lea	 ecx, DWORD PTR _fontdlg$18[ebp]
  005c1	e8 00 00 00 00	 call	 ??1CDialog@@UAE@XZ	; CDialog::~CDialog
; File D:\git\src\IBK\IBK_DRFN\ProjSrc\SrcChartEx\ChartAddIn\ChartDesignPropertyAddIn\Include_Chart\Dll_Load\IMetaTable.h

; 1036 : 	{

  005c6	c6 45 fc 11	 mov	 BYTE PTR __$EHRec$[ebp+8], 17 ; 00000011H
; File C:\Program Files (x86)\Microsoft Visual Studio\2019\Community\VC\Tools\MSVC\14.29.30133\atlmfc\include\afxwin1.inl

; 27   : 	{ ASSERT(hInstResource != NULL); afxCurrentResourceHandle = hInstResource; }

  005ca	e8 00 00 00 00	 call	 ?AfxGetModuleState@@YGPAVAFX_MODULE_STATE@@XZ ; AfxGetModuleState
  005cf	8d 8d 48 e2 ff
	ff		 lea	 ecx, DWORD PTR _mapProperty$4[ebp]
; File D:\git\src\IBK\IBK_DRFN\ProjSrc\SrcChartEx\ChartAddIn\ChartDesignPropertyAddIn\ChartDesignPropertyAddIn\ChartDesignPropertyAddInImp.cpp

; 190  : 				break;

  005d5	c7 45 fc ff ff
	ff ff		 mov	 DWORD PTR __$EHRec$[ebp+8], -1
; File C:\Program Files (x86)\Microsoft Visual Studio\2019\Community\VC\Tools\MSVC\14.29.30133\atlmfc\include\afxwin1.inl

; 27   : 	{ ASSERT(hInstResource != NULL); afxCurrentResourceHandle = hInstResource; }

  005dc	89 70 0c	 mov	 DWORD PTR [eax+12], esi
  005df	c7 85 64 e2 ff
	ff 00 00 00 00	 mov	 DWORD PTR _mapProperty$4[ebp+28], OFFSET ??_7IPropertyMap@@6B@
  005e9	e8 00 00 00 00	 call	 ??1CMapStringToString@@UAE@XZ ; CMapStringToString::~CMapStringToString
; File D:\git\src\IBK\IBK_DRFN\ProjSrc\SrcChartEx\ChartAddIn\ChartDesignPropertyAddIn\ChartDesignPropertyAddIn\ChartDesignPropertyAddInImp.cpp

; 229  : 		m_pIChartOCX->InvalidateControl();

  005ee	8b 4b 04	 mov	 ecx, DWORD PTR [ebx+4]
  005f1	8b 01		 mov	 eax, DWORD PTR [ecx]
  005f3	ff 50 2c	 call	 DWORD PTR [eax+44]

; 230  : 		return TRUE;

  005f6	b8 01 00 00 00	 mov	 eax, 1
  005fb	e9 95 01 00 00	 jmp	 $LN1@OnCmdMsg
$LN191@OnCmdMsg:

; 191  : 			}
; 192  : 			// (2008/1/14 - Seung-Won, Bae) for MultiLanguage.
; 193  : 			case ID_DPP_LML_TABLE:
; 194  : 			{
; 195  : 				CPropertyMap mapProperty;

  00600	8d 8d 08 e2 ff
	ff		 lea	 ecx, DWORD PTR _mapProperty$2[ebp]
  00606	e8 00 00 00 00	 call	 ??0CPropertyMap@@QAE@XZ

; 196  : 				m_pIChartOCX->GetAllProperties3( &mapProperty, TRUE);

  0060b	8b 4b 04	 mov	 ecx, DWORD PTR [ebx+4]
  0060e	8d 95 24 e2 ff
	ff		 lea	 edx, DWORD PTR _mapProperty$2[ebp+28]
  00614	6a 01		 push	 1
  00616	52		 push	 edx
  00617	c7 45 fc 13 00
	00 00		 mov	 DWORD PTR __$EHRec$[ebp+8], 19 ; 00000013H
  0061e	8b 01		 mov	 eax, DWORD PTR [ecx]
  00620	ff 50 24	 call	 DWORD PTR [eax+36]

; 197  : 
; 198  : 				ML_SET_LANGUAGE_RES();

  00623	e8 00 00 00 00	 call	 ?AfxGetStaticModuleState@@YGPAVAFX_MODULE_STATE@@XZ ; AfxGetStaticModuleState
  00628	b9 00 00 00 00	 mov	 ecx, OFFSET ?g_iMetaTable@@3VIMetaTable@@A ; g_iMetaTable
  0062d	8b 40 08	 mov	 eax, DWORD PTR [eax+8]
  00630	50		 push	 eax
  00631	ff 73 28	 push	 DWORD PTR [ebx+40]
  00634	e8 00 00 00 00	 call	 ?LoadResourceDLL@IMetaTable@@QAEPAUHINSTANCE__@@PAUHWND__@@PAU2@@Z ; IMetaTable::LoadResourceDLL
  00639	8b f8		 mov	 edi, eax
; File C:\Program Files (x86)\Microsoft Visual Studio\2019\Community\VC\Tools\MSVC\14.29.30133\atlmfc\include\afxwin1.inl

; 25   : 		return afxCurrentResourceHandle; }

  0063b	e8 00 00 00 00	 call	 ?AfxGetModuleState@@YGPAVAFX_MODULE_STATE@@XZ ; AfxGetModuleState
; File D:\git\src\IBK\IBK_DRFN\ProjSrc\SrcChartEx\ChartAddIn\ChartDesignPropertyAddIn\Include_Chart\Dll_Load\IMetaTable.h

; 1032 : 		m_hInstance = AfxGetResourceHandle();

  00640	8b 70 0c	 mov	 esi, DWORD PTR [eax+12]
  00643	89 b5 88 e2 ff
	ff		 mov	 DWORD PTR ___mlrs__$7[ebp], esi
; File C:\Program Files (x86)\Microsoft Visual Studio\2019\Community\VC\Tools\MSVC\14.29.30133\atlmfc\include\afxwin1.inl

; 27   : 	{ ASSERT(hInstResource != NULL); afxCurrentResourceHandle = hInstResource; }

  00649	e8 00 00 00 00	 call	 ?AfxGetModuleState@@YGPAVAFX_MODULE_STATE@@XZ ; AfxGetModuleState
  0064e	89 78 0c	 mov	 DWORD PTR [eax+12], edi
; File D:\git\src\IBK\IBK_DRFN\ProjSrc\SrcChartEx\ChartAddIn\ChartDesignPropertyAddIn\ChartDesignPropertyAddIn\ChartDesignPropertyAddInImp.cpp

; 199  : 				CDlgLocalLanguageTable dlgLLT( m_pChartCWnd);

  00651	ff 73 08	 push	 DWORD PTR [ebx+8]
  00654	8d 8d 80 fe ff
	ff		 lea	 ecx, DWORD PTR _dlgLLT$19[ebp]
  0065a	c6 45 fc 14	 mov	 BYTE PTR __$EHRec$[ebp+8], 20 ; 00000014H
  0065e	e8 00 00 00 00	 call	 ??0CDlgLocalLanguageTable@@QAE@PAVCWnd@@@Z ; CDlgLocalLanguageTable::CDlgLocalLanguageTable

; 200  : 				dlgLLT.SetProperty( &mapProperty);

  00663	8d 85 24 e2 ff
	ff		 lea	 eax, DWORD PTR _mapProperty$2[ebp+28]
  00669	c6 45 fc 15	 mov	 BYTE PTR __$EHRec$[ebp+8], 21 ; 00000015H
  0066d	50		 push	 eax
  0066e	8d 8d 80 fe ff
	ff		 lea	 ecx, DWORD PTR _dlgLLT$19[ebp]
  00674	e8 00 00 00 00	 call	 ?SetProperty@CDlgLocalLanguageTable@@QAEXPAUIPropertyMap@@@Z ; CDlgLocalLanguageTable::SetProperty

; 201  : 				if( dlgLLT.DoModal() == IDOK)

  00679	8d 8d 80 fe ff
	ff		 lea	 ecx, DWORD PTR _dlgLLT$19[ebp]
  0067f	e8 00 00 00 00	 call	 ?DoModal@CDialog@@UAEHXZ ; CDialog::DoModal
  00684	83 f8 01	 cmp	 eax, 1
  00687	75 35		 jne	 SHORT $LN40@OnCmdMsg

; 202  : 				{
; 203  : 					m_pIChartOCX->SetAllProperties3( &mapProperty);

  00689	8b 4b 04	 mov	 ecx, DWORD PTR [ebx+4]
  0068c	8d 95 24 e2 ff
	ff		 lea	 edx, DWORD PTR _mapProperty$2[ebp+28]
  00692	52		 push	 edx
  00693	8b 01		 mov	 eax, DWORD PTR [ecx]
  00695	ff 50 28	 call	 DWORD PTR [eax+40]

; 204  : // (2006/8/31 - Seung-Won, Bae) Support Samsung for notifing to MapGen.
; 205  : //  site Addin Define  - ojtaso (20090907)
; 206  : //#ifdef _ADDIN_SS
; 207  : 					HWND hWnd = GetParent( m_pIChartOCX->GetOcxHwnd());

  00698	8b 4b 04	 mov	 ecx, DWORD PTR [ebx+4]
  0069b	8b 01		 mov	 eax, DWORD PTR [ecx]
  0069d	ff 50 34	 call	 DWORD PTR [eax+52]
  006a0	50		 push	 eax
  006a1	ff 15 00 00 00
	00		 call	 DWORD PTR __imp__GetParent@4

; 208  : 					if( hWnd) ::SendMessage( hWnd, WM_COMMAND, ID_DPP_DESIGN_APPLIED, 0);

  006a7	85 c0		 test	 eax, eax
  006a9	74 13		 je	 SHORT $LN40@OnCmdMsg
  006ab	6a 00		 push	 0
  006ad	68 91 a0 00 00	 push	 41105			; 0000a091H
  006b2	68 11 01 00 00	 push	 273			; 00000111H
  006b7	50		 push	 eax
  006b8	ff 15 00 00 00
	00		 call	 DWORD PTR __imp__SendMessageA@16
$LN40@OnCmdMsg:
  006be	8d 4d c8	 lea	 ecx, DWORD PTR _dlgLLT$19[ebp+328]
  006c1	e8 00 00 00 00	 call	 ??1CStringList@@UAE@XZ	; CStringList::~CStringList
  006c6	8d 4d c4	 lea	 ecx, DWORD PTR _dlgLLT$19[ebp+324]
  006c9	ff 15 00 00 00
	00		 call	 DWORD PTR __imp_??1?$CStringT@DV?$StrTraitMFC_DLL@DV?$ChTraitsCRT@D@ATL@@@@@ATL@@QAE@XZ
  006cf	8d 8d 28 ff ff
	ff		 lea	 ecx, DWORD PTR _dlgLLT$19[ebp+168]
  006d5	e8 00 00 00 00	 call	 ??1CEditableListCtrl@@UAE@XZ ; CEditableListCtrl::~CEditableListCtrl
  006da	8d 8d 80 fe ff
	ff		 lea	 ecx, DWORD PTR _dlgLLT$19[ebp]
  006e0	e8 00 00 00 00	 call	 ??1CDialog@@UAE@XZ	; CDialog::~CDialog
; File D:\git\src\IBK\IBK_DRFN\ProjSrc\SrcChartEx\ChartAddIn\ChartDesignPropertyAddIn\Include_Chart\Dll_Load\IMetaTable.h

; 1036 : 	{

  006e5	c6 45 fc 16	 mov	 BYTE PTR __$EHRec$[ebp+8], 22 ; 00000016H
; File C:\Program Files (x86)\Microsoft Visual Studio\2019\Community\VC\Tools\MSVC\14.29.30133\atlmfc\include\afxwin1.inl

; 27   : 	{ ASSERT(hInstResource != NULL); afxCurrentResourceHandle = hInstResource; }

  006e9	e8 00 00 00 00	 call	 ?AfxGetModuleState@@YGPAVAFX_MODULE_STATE@@XZ ; AfxGetModuleState
  006ee	8d 8d 08 e2 ff
	ff		 lea	 ecx, DWORD PTR _mapProperty$2[ebp]
; File D:\git\src\IBK\IBK_DRFN\ProjSrc\SrcChartEx\ChartAddIn\ChartDesignPropertyAddIn\ChartDesignPropertyAddIn\ChartDesignPropertyAddInImp.cpp

; 211  : 				break;

  006f4	c7 45 fc ff ff
	ff ff		 mov	 DWORD PTR __$EHRec$[ebp+8], -1
; File C:\Program Files (x86)\Microsoft Visual Studio\2019\Community\VC\Tools\MSVC\14.29.30133\atlmfc\include\afxwin1.inl

; 27   : 	{ ASSERT(hInstResource != NULL); afxCurrentResourceHandle = hInstResource; }

  006fb	89 70 0c	 mov	 DWORD PTR [eax+12], esi
  006fe	c7 85 24 e2 ff
	ff 00 00 00 00	 mov	 DWORD PTR _mapProperty$2[ebp+28], OFFSET ??_7IPropertyMap@@6B@
  00708	e8 00 00 00 00	 call	 ??1CMapStringToString@@UAE@XZ ; CMapStringToString::~CMapStringToString
; File D:\git\src\IBK\IBK_DRFN\ProjSrc\SrcChartEx\ChartAddIn\ChartDesignPropertyAddIn\ChartDesignPropertyAddIn\ChartDesignPropertyAddInImp.cpp

; 229  : 		m_pIChartOCX->InvalidateControl();

  0070d	8b 4b 04	 mov	 ecx, DWORD PTR [ebx+4]
  00710	8b 01		 mov	 eax, DWORD PTR [ecx]
  00712	ff 50 2c	 call	 DWORD PTR [eax+44]

; 230  : 		return TRUE;

  00715	b8 01 00 00 00	 mov	 eax, 1
  0071a	eb 79		 jmp	 SHORT $LN1@OnCmdMsg
$LN216@OnCmdMsg:

; 212  : 			}
; 213  : 			// (2008/2/24 - Seung-Won, Bae) Show Global Meta Language Table
; 214  : 			case ID_DPP_GML_TABLE:
; 215  : 			{
; 216  : 				if( !IsWindow( m_dlgGLT.GetSafeHwnd()))

  0071c	ff 35 20 00 00
	00		 push	 DWORD PTR ?m_dlgGLT@CChartDesignPropertyAddInImp@@2VCDlgGlobalLanguageTable@@A+32
  00722	ff 15 00 00 00
	00		 call	 DWORD PTR __imp__IsWindow@4
  00728	85 c0		 test	 eax, eax
  0072a	75 4c		 jne	 SHORT $LN231@OnCmdMsg

; 218  : 					ML_SET_DEFAULT_RES();

  0072c	e8 00 00 00 00	 call	 ?AfxGetStaticModuleState@@YGPAVAFX_MODULE_STATE@@XZ ; AfxGetStaticModuleState
  00731	8b 78 08	 mov	 edi, DWORD PTR [eax+8]
; File C:\Program Files (x86)\Microsoft Visual Studio\2019\Community\VC\Tools\MSVC\14.29.30133\atlmfc\include\afxwin1.inl

; 25   : 		return afxCurrentResourceHandle; }

  00734	e8 00 00 00 00	 call	 ?AfxGetModuleState@@YGPAVAFX_MODULE_STATE@@XZ ; AfxGetModuleState
; File D:\git\src\IBK\IBK_DRFN\ProjSrc\SrcChartEx\ChartAddIn\ChartDesignPropertyAddIn\Include_Chart\Dll_Load\IMetaTable.h

; 1032 : 		m_hInstance = AfxGetResourceHandle();

  00739	8b 70 0c	 mov	 esi, DWORD PTR [eax+12]
  0073c	89 b5 88 e2 ff
	ff		 mov	 DWORD PTR ___mlrs__$6[ebp], esi
; File C:\Program Files (x86)\Microsoft Visual Studio\2019\Community\VC\Tools\MSVC\14.29.30133\atlmfc\include\afxwin1.inl

; 27   : 	{ ASSERT(hInstResource != NULL); afxCurrentResourceHandle = hInstResource; }

  00742	e8 00 00 00 00	 call	 ?AfxGetModuleState@@YGPAVAFX_MODULE_STATE@@XZ ; AfxGetModuleState
  00747	89 78 0c	 mov	 DWORD PTR [eax+12], edi
; File C:\Program Files (x86)\Microsoft Visual Studio\2019\Community\VC\Tools\MSVC\14.29.30133\atlmfc\include\afxwin2.inl

; 585  : 	{ return CDialog::Create(ATL_MAKEINTRESOURCE(nIDTemplate), pParentWnd); }

  0074a	6a 00		 push	 0
  0074c	68 d2 07 00 00	 push	 2002			; 000007d2H
  00751	b9 00 00 00 00	 mov	 ecx, OFFSET ?m_dlgGLT@CChartDesignPropertyAddInImp@@2VCDlgGlobalLanguageTable@@A ; CChartDesignPropertyAddInImp::m_dlgGLT
; File D:\git\src\IBK\IBK_DRFN\ProjSrc\SrcChartEx\ChartAddIn\ChartDesignPropertyAddIn\ChartDesignPropertyAddIn\ChartDesignPropertyAddInImp.cpp

; 218  : 					ML_SET_DEFAULT_RES();

  00756	c7 45 fc 18 00
	00 00		 mov	 DWORD PTR __$EHRec$[ebp+8], 24 ; 00000018H
; File C:\Program Files (x86)\Microsoft Visual Studio\2019\Community\VC\Tools\MSVC\14.29.30133\atlmfc\include\afxwin2.inl

; 585  : 	{ return CDialog::Create(ATL_MAKEINTRESOURCE(nIDTemplate), pParentWnd); }

  0075d	e8 00 00 00 00	 call	 ?Create@CDialog@@UAEHPBDPAVCWnd@@@Z ; CDialog::Create
; File D:\git\src\IBK\IBK_DRFN\ProjSrc\SrcChartEx\ChartAddIn\ChartDesignPropertyAddIn\Include_Chart\Dll_Load\IMetaTable.h

; 1036 : 	{

  00762	c7 45 fc 19 00
	00 00		 mov	 DWORD PTR __$EHRec$[ebp+8], 25 ; 00000019H
; File C:\Program Files (x86)\Microsoft Visual Studio\2019\Community\VC\Tools\MSVC\14.29.30133\atlmfc\include\afxwin1.inl

; 27   : 	{ ASSERT(hInstResource != NULL); afxCurrentResourceHandle = hInstResource; }

  00769	e8 00 00 00 00	 call	 ?AfxGetModuleState@@YGPAVAFX_MODULE_STATE@@XZ ; AfxGetModuleState
; File D:\git\src\IBK\IBK_DRFN\ProjSrc\SrcChartEx\ChartAddIn\ChartDesignPropertyAddIn\Include_Chart\Dll_Load\IMetaTable.h

; 1038 : 	}

  0076e	c7 45 fc ff ff
	ff ff		 mov	 DWORD PTR __$EHRec$[ebp+8], -1
; File C:\Program Files (x86)\Microsoft Visual Studio\2019\Community\VC\Tools\MSVC\14.29.30133\atlmfc\include\afxwin1.inl

; 27   : 	{ ASSERT(hInstResource != NULL); afxCurrentResourceHandle = hInstResource; }

  00775	89 70 0c	 mov	 DWORD PTR [eax+12], esi
$LN231@OnCmdMsg:
; File D:\git\src\IBK\IBK_DRFN\ProjSrc\SrcChartEx\ChartAddIn\ChartDesignPropertyAddIn\ChartDesignPropertyAddIn\ChartDesignPropertyAddInImp.cpp

; 221  : 				m_dlgGLT.ShowWindow( SW_SHOW);

  00778	6a 05		 push	 5
  0077a	b9 00 00 00 00	 mov	 ecx, OFFSET ?m_dlgGLT@CChartDesignPropertyAddInImp@@2VCDlgGlobalLanguageTable@@A ; CChartDesignPropertyAddInImp::m_dlgGLT
  0077f	e8 00 00 00 00	 call	 ?ShowWindow@CWnd@@QAEHH@Z ; CWnd::ShowWindow

; 229  : 		m_pIChartOCX->InvalidateControl();

  00784	8b 4b 04	 mov	 ecx, DWORD PTR [ebx+4]
  00787	8b 01		 mov	 eax, DWORD PTR [ecx]
  00789	ff 50 2c	 call	 DWORD PTR [eax+44]

; 230  : 		return TRUE;

  0078c	b8 01 00 00 00	 mov	 eax, 1
  00791	eb 02		 jmp	 SHORT $LN1@OnCmdMsg
$LN7@OnCmdMsg:

; 67   : 	if( nID < ID_DPP_LAYOUT_AND_COLOR || ID_DPP_GML_TABLE < nID ) return FALSE;

  00793	33 c0		 xor	 eax, eax
$LN1@OnCmdMsg:

; 231  : 	}
; 232  : 
; 233  : 	return FALSE;
; 234  : }

  00795	8b 4d f4	 mov	 ecx, DWORD PTR __$EHRec$[ebp]
  00798	64 89 0d 00 00
	00 00		 mov	 DWORD PTR fs:0, ecx
  0079f	59		 pop	 ecx
  007a0	5f		 pop	 edi
  007a1	5e		 pop	 esi
  007a2	5b		 pop	 ebx
  007a3	8b 4d f0	 mov	 ecx, DWORD PTR __$ArrayPad$[ebp]
  007a6	33 cd		 xor	 ecx, ebp
  007a8	e8 00 00 00 00	 call	 @__security_check_cookie@4
  007ad	8b e5		 mov	 esp, ebp
  007af	5d		 pop	 ebp
  007b0	c2 10 00	 ret	 16			; 00000010H
  007b3	90		 npad	 1
$LN235@OnCmdMsg:
  007b4	00 00 00 00	 DD	 $LN10@OnCmdMsg
  007b8	00 00 00 00	 DD	 $LN11@OnCmdMsg
  007bc	00 00 00 00	 DD	 $LN11@OnCmdMsg
  007c0	00 00 00 00	 DD	 $LN15@OnCmdMsg
  007c4	00 00 00 00	 DD	 $LN7@OnCmdMsg
  007c8	00 00 00 00	 DD	 $LN15@OnCmdMsg
  007cc	00 00 00 00	 DD	 $LN15@OnCmdMsg
$LN236@OnCmdMsg:
  007d0	00 00 00 00	 DD	 $LN18@OnCmdMsg
  007d4	00 00 00 00	 DD	 $LN116@OnCmdMsg
  007d8	00 00 00 00	 DD	 $LN154@OnCmdMsg
  007dc	00 00 00 00	 DD	 $LN31@OnCmdMsg
  007e0	00 00 00 00	 DD	 $LN7@OnCmdMsg
  007e4	00 00 00 00	 DD	 $LN191@OnCmdMsg
  007e8	00 00 00 00	 DD	 $LN216@OnCmdMsg
_TEXT	ENDS
;	COMDAT text$x
text$x	SEGMENT
__unwindfunclet$?OnCmdMsg@CChartDesignPropertyAddInImp@@MAEHIHPAXPAUAFX_CMDHANDLERINFO@@@Z$0:
  00000	8d 8d 28 e2 ff
	ff		 lea	 ecx, DWORD PTR _mapProperty$3[ebp]
  00006	e9 00 00 00 00	 jmp	 ??1CPropertyMap@@UAE@XZ
__unwindfunclet$?OnCmdMsg@CChartDesignPropertyAddInImp@@MAEHIHPAXPAUAFX_CMDHANDLERINFO@@@Z$1:
  0000b	8d 8d 90 e2 ff
	ff		 lea	 ecx, DWORD PTR ___mlrs__$13[ebp]
  00011	e9 00 00 00 00	 jmp	 ??1CMultiLanguageResourceSetter@@QAE@XZ ; CMultiLanguageResourceSetter::~CMultiLanguageResourceSetter
__unwindfunclet$?OnCmdMsg@CChartDesignPropertyAddInImp@@MAEHIHPAXPAUAFX_CMDHANDLERINFO@@@Z$2:
  00016	8d 8d 20 ed ff
	ff		 lea	 ecx, DWORD PTR _Initdlg$17[ebp]
  0001c	e9 00 00 00 00	 jmp	 ??1CInitializeControlDlg@@UAE@XZ ; CInitializeControlDlg::~CInitializeControlDlg
__unwindfunclet$?OnCmdMsg@CChartDesignPropertyAddInImp@@MAEHIHPAXPAUAFX_CMDHANDLERINFO@@@Z$3:
  00021	8d 8d 68 e2 ff
	ff		 lea	 ecx, DWORD PTR _mapProperty$5[ebp]
  00027	e9 00 00 00 00	 jmp	 ??1CPropertyMap@@UAE@XZ
__unwindfunclet$?OnCmdMsg@CChartDesignPropertyAddInImp@@MAEHIHPAXPAUAFX_CMDHANDLERINFO@@@Z$4:
  0002c	8d 8d 88 e2 ff
	ff		 lea	 ecx, DWORD PTR ___mlrs__$9[ebp]
  00032	e9 00 00 00 00	 jmp	 ??1CMultiLanguageResourceSetter@@QAE@XZ ; CMultiLanguageResourceSetter::~CMultiLanguageResourceSetter
__unwindfunclet$?OnCmdMsg@CChartDesignPropertyAddInImp@@MAEHIHPAXPAUAFX_CMDHANDLERINFO@@@Z$5:
  00037	8d 8d 98 e2 ff
	ff		 lea	 ecx, DWORD PTR _dlgProp$16[ebp]
  0003d	e9 00 00 00 00	 jmp	 ??1CChartPropertySheet@@UAE@XZ ; CChartPropertySheet::~CChartPropertySheet
__unwindfunclet$?OnCmdMsg@CChartDesignPropertyAddInImp@@MAEHIHPAXPAUAFX_CMDHANDLERINFO@@@Z$6:
  00042	8d 8d 94 e2 ff
	ff		 lea	 ecx, DWORD PTR _strLocalLanguageTable$15[ebp]
  00048	ff 25 00 00 00
	00		 jmp	 DWORD PTR __imp_??1?$CStringT@DV?$StrTraitMFC_DLL@DV?$ChTraitsCRT@D@ATL@@@@@ATL@@QAE@XZ
__unwindfunclet$?OnCmdMsg@CChartDesignPropertyAddInImp@@MAEHIHPAXPAUAFX_CMDHANDLERINFO@@@Z$7:
  0004e	8d 8d 90 e2 ff
	ff		 lea	 ecx, DWORD PTR _strData$12[ebp]
  00054	ff 25 00 00 00
	00		 jmp	 DWORD PTR __imp_??1?$CStringT@DV?$StrTraitMFC_DLL@DV?$ChTraitsCRT@D@ATL@@@@@ATL@@QAE@XZ
__unwindfunclet$?OnCmdMsg@CChartDesignPropertyAddInImp@@MAEHIHPAXPAUAFX_CMDHANDLERINFO@@@Z$8:
  0005a	8d 8d 48 e2 ff
	ff		 lea	 ecx, DWORD PTR _mapProperty$4[ebp]
  00060	e9 00 00 00 00	 jmp	 ??1CPropertyMap@@UAE@XZ
__unwindfunclet$?OnCmdMsg@CChartDesignPropertyAddInImp@@MAEHIHPAXPAUAFX_CMDHANDLERINFO@@@Z$9:
  00065	8d 8d 88 e2 ff
	ff		 lea	 ecx, DWORD PTR ___mlrs__$8[ebp]
  0006b	e9 00 00 00 00	 jmp	 ??1CMultiLanguageResourceSetter@@QAE@XZ ; CMultiLanguageResourceSetter::~CMultiLanguageResourceSetter
__unwindfunclet$?OnCmdMsg@CChartDesignPropertyAddInImp@@MAEHIHPAXPAUAFX_CMDHANDLERINFO@@@Z$10:
  00070	8d 8d a0 fb ff
	ff		 lea	 ecx, DWORD PTR _fontdlg$18[ebp]
  00076	e9 00 00 00 00	 jmp	 ??1CDFontPropPage@@UAE@XZ
__unwindfunclet$?OnCmdMsg@CChartDesignPropertyAddInImp@@MAEHIHPAXPAUAFX_CMDHANDLERINFO@@@Z$11:
  0007b	8d 8d 94 e2 ff
	ff		 lea	 ecx, DWORD PTR _strLocalLanguageTable$14[ebp]
  00081	ff 25 00 00 00
	00		 jmp	 DWORD PTR __imp_??1?$CStringT@DV?$StrTraitMFC_DLL@DV?$ChTraitsCRT@D@ATL@@@@@ATL@@QAE@XZ
__unwindfunclet$?OnCmdMsg@CChartDesignPropertyAddInImp@@MAEHIHPAXPAUAFX_CMDHANDLERINFO@@@Z$12:
  00087	8d 8d 90 e2 ff
	ff		 lea	 ecx, DWORD PTR _strData$11[ebp]
  0008d	ff 25 00 00 00
	00		 jmp	 DWORD PTR __imp_??1?$CStringT@DV?$StrTraitMFC_DLL@DV?$ChTraitsCRT@D@ATL@@@@@ATL@@QAE@XZ
__unwindfunclet$?OnCmdMsg@CChartDesignPropertyAddInImp@@MAEHIHPAXPAUAFX_CMDHANDLERINFO@@@Z$13:
  00093	8d 8d 08 e2 ff
	ff		 lea	 ecx, DWORD PTR _mapProperty$2[ebp]
  00099	e9 00 00 00 00	 jmp	 ??1CPropertyMap@@UAE@XZ
__unwindfunclet$?OnCmdMsg@CChartDesignPropertyAddInImp@@MAEHIHPAXPAUAFX_CMDHANDLERINFO@@@Z$14:
  0009e	8d 8d 88 e2 ff
	ff		 lea	 ecx, DWORD PTR ___mlrs__$7[ebp]
  000a4	e9 00 00 00 00	 jmp	 ??1CMultiLanguageResourceSetter@@QAE@XZ ; CMultiLanguageResourceSetter::~CMultiLanguageResourceSetter
__unwindfunclet$?OnCmdMsg@CChartDesignPropertyAddInImp@@MAEHIHPAXPAUAFX_CMDHANDLERINFO@@@Z$15:
  000a9	8d 8d 80 fe ff
	ff		 lea	 ecx, DWORD PTR _dlgLLT$19[ebp]
  000af	e9 00 00 00 00	 jmp	 ??1CDlgLocalLanguageTable@@UAE@XZ
__unwindfunclet$?OnCmdMsg@CChartDesignPropertyAddInImp@@MAEHIHPAXPAUAFX_CMDHANDLERINFO@@@Z$16:
  000b4	8d 8d 88 e2 ff
	ff		 lea	 ecx, DWORD PTR ___mlrs__$6[ebp]
  000ba	e9 00 00 00 00	 jmp	 ??1CMultiLanguageResourceSetter@@QAE@XZ ; CMultiLanguageResourceSetter::~CMultiLanguageResourceSetter
  000bf	cc		 int	 3
  000c0	cc		 int	 3
  000c1	cc		 int	 3
  000c2	cc		 int	 3
  000c3	cc		 int	 3
__ehhandler$?OnCmdMsg@CChartDesignPropertyAddInImp@@MAEHIHPAXPAUAFX_CMDHANDLERINFO@@@Z:
  000c4	90		 npad	 1
  000c5	90		 npad	 1
  000c6	8b 54 24 08	 mov	 edx, DWORD PTR [esp+8]
  000ca	8d 42 0c	 lea	 eax, DWORD PTR [edx+12]
  000cd	8b 8a 04 e2 ff
	ff		 mov	 ecx, DWORD PTR [edx-7676]
  000d3	33 c8		 xor	 ecx, eax
  000d5	e8 00 00 00 00	 call	 @__security_check_cookie@4
  000da	8b 4a fc	 mov	 ecx, DWORD PTR [edx-4]
  000dd	33 c8		 xor	 ecx, eax
  000df	e8 00 00 00 00	 call	 @__security_check_cookie@4
  000e4	b8 00 00 00 00	 mov	 eax, OFFSET __ehfuncinfo$?OnCmdMsg@CChartDesignPropertyAddInImp@@MAEHIHPAXPAUAFX_CMDHANDLERINFO@@@Z
  000e9	e9 00 00 00 00	 jmp	 ___CxxFrameHandler3
text$x	ENDS
?OnCmdMsg@CChartDesignPropertyAddInImp@@MAEHIHPAXPAUAFX_CMDHANDLERINFO@@@Z ENDP ; CChartDesignPropertyAddInImp::OnCmdMsg
; Function compile flags: /Ogtp
; File D:\git\src\IBK\IBK_DRFN\ProjSrc\SrcChartEx\ChartAddIn\ChartDesignPropertyAddIn\ChartDesignPropertyAddIn\ChartDesignPropertyAddInImp.h
;	COMDAT ?GetRegisteredEventMap@CChartDesignPropertyAddInImp@@MBEPBW4EAddInEventType@IChartAddIn134661@@XZ
_TEXT	SEGMENT
?GetRegisteredEventMap@CChartDesignPropertyAddInImp@@MBEPBW4EAddInEventType@IChartAddIn134661@@XZ PROC ; CChartDesignPropertyAddInImp::GetRegisteredEventMap, COMDAT
; _this$ = ecx

; 21   : 	DECLARE_ADDIN_EVENT_MAP()

  00000	b8 00 00 00 00	 mov	 eax, OFFSET ?m_eRegisteredEventMap@CChartDesignPropertyAddInImp@@1QBW4EAddInEventType@IChartAddIn134661@@B ; CChartDesignPropertyAddInImp::m_eRegisteredEventMap
  00005	c3		 ret	 0
?GetRegisteredEventMap@CChartDesignPropertyAddInImp@@MBEPBW4EAddInEventType@IChartAddIn134661@@XZ ENDP ; CChartDesignPropertyAddInImp::GetRegisteredEventMap
_TEXT	ENDS
; Function compile flags: /Ogtp
; File D:\git\src\IBK\IBK_DRFN\ProjSrc\SrcChartEx\ChartAddIn\ChartDesignPropertyAddIn\ChartDesignPropertyAddIn\ChartDesignPropertyAddInImp.cpp
;	COMDAT ??0CChartDesignPropertyAddInImp@@QAE@PAUIChartOCX134661@@PAUIAddInDllBase@@@Z
_TEXT	SEGMENT
_this$ = -16						; size = 4
__$EHRec$ = -12						; size = 12
_p_pIChartOCX$ = 8					; size = 4
_p_pIAddInDllBase$ = 12					; size = 4
??0CChartDesignPropertyAddInImp@@QAE@PAUIChartOCX134661@@PAUIAddInDllBase@@@Z PROC ; CChartDesignPropertyAddInImp::CChartDesignPropertyAddInImp, COMDAT
; _this$ = ecx

; 33   : {

  00000	55		 push	 ebp
  00001	8b ec		 mov	 ebp, esp
  00003	6a ff		 push	 -1
  00005	68 00 00 00 00	 push	 __ehhandler$??0CChartDesignPropertyAddInImp@@QAE@PAUIChartOCX134661@@PAUIAddInDllBase@@@Z
  0000a	64 a1 00 00 00
	00		 mov	 eax, DWORD PTR fs:0
  00010	50		 push	 eax
  00011	51		 push	 ecx
  00012	56		 push	 esi
  00013	57		 push	 edi
  00014	a1 00 00 00 00	 mov	 eax, DWORD PTR ___security_cookie
  00019	33 c5		 xor	 eax, ebp
  0001b	50		 push	 eax
  0001c	8d 45 f4	 lea	 eax, DWORD PTR __$EHRec$[ebp]
  0001f	64 a3 00 00 00
	00		 mov	 DWORD PTR fs:0, eax
  00025	8b f1		 mov	 esi, ecx
  00027	89 75 f0	 mov	 DWORD PTR _this$[ebp], esi

; 32   : 	: CChartAddInBase( p_pIChartOCX, p_pIAddInDllBase)

  0002a	ff 75 0c	 push	 DWORD PTR _p_pIAddInDllBase$[ebp]
  0002d	8b 7d 08	 mov	 edi, DWORD PTR _p_pIChartOCX$[ebp]
  00030	57		 push	 edi
  00031	e8 00 00 00 00	 call	 ??0CChartAddInBase134661@@IAE@PAUIChartOCX134661@@PAUIAddInDllBase@@@Z ; CChartAddInBase134661::CChartAddInBase134661
  00036	c7 45 fc 00 00
	00 00		 mov	 DWORD PTR __$EHRec$[ebp+8], 0

; 33   : {

  0003d	c7 06 00 00 00
	00		 mov	 DWORD PTR [esi], OFFSET ??_7CChartDesignPropertyAddInImp@@6BCIWUnknown@@@
  00043	c7 46 08 00 00
	00 00		 mov	 DWORD PTR [esi+8], OFFSET ??_7CChartDesignPropertyAddInImp@@6BIChartAddIn134661@@@

; 34   : 	// (2008/1/22 - Seung-Won, Bae) for Multi-Language
; 35   : 	m_hOcxWnd = NULL;

  0004a	c7 46 30 00 00
	00 00		 mov	 DWORD PTR [esi+48], 0

; 36   : 	if( p_pIChartOCX) m_hOcxWnd = p_pIChartOCX->GetOcxHwnd();

  00051	85 ff		 test	 edi, edi
  00053	74 0a		 je	 SHORT $LN2@CChartDesi
  00055	8b 07		 mov	 eax, DWORD PTR [edi]
  00057	8b cf		 mov	 ecx, edi
  00059	ff 50 34	 call	 DWORD PTR [eax+52]
  0005c	89 46 30	 mov	 DWORD PTR [esi+48], eax
$LN2@CChartDesi:

; 37   : 
; 38   : 	// (2006/7/4 - Seung-Won, Bae) Manage Menu Using Order Flag.
; 39   : 	m_bExeMenuInit = FALSE;
; 40   : 	const char *szPacketInfo = m_pIChartOCX->GetPacketInfoStr();

  0005f	8b 4e 0c	 mov	 ecx, DWORD PTR [esi+12]
  00062	c7 46 2c 00 00
	00 00		 mov	 DWORD PTR [esi+44], 0
  00069	8b 01		 mov	 eax, DWORD PTR [ecx]
  0006b	ff 90 90 00 00
	00		 call	 DWORD PTR [eax+144]

; 41   : 	if( !szPacketInfo) if( !*szPacketInfo) m_bExeMenuInit = TRUE;

  00071	85 c0		 test	 eax, eax
  00073	75 20		 jne	 SHORT $LN8@CChartDesi
  00075	38 00		 cmp	 BYTE PTR [eax], al
  00077	8b c6		 mov	 eax, esi
  00079	75 1c		 jne	 SHORT $LN4@CChartDesi
  0007b	c7 46 2c 01 00
	00 00		 mov	 DWORD PTR [esi+44], 1

; 42   : }

  00082	8b 4d f4	 mov	 ecx, DWORD PTR __$EHRec$[ebp]
  00085	64 89 0d 00 00
	00 00		 mov	 DWORD PTR fs:0, ecx
  0008c	59		 pop	 ecx
  0008d	5f		 pop	 edi
  0008e	5e		 pop	 esi
  0008f	8b e5		 mov	 esp, ebp
  00091	5d		 pop	 ebp
  00092	c2 08 00	 ret	 8
$LN8@CChartDesi:
  00095	8b c6		 mov	 eax, esi
$LN4@CChartDesi:
  00097	8b 4d f4	 mov	 ecx, DWORD PTR __$EHRec$[ebp]
  0009a	64 89 0d 00 00
	00 00		 mov	 DWORD PTR fs:0, ecx
  000a1	59		 pop	 ecx
  000a2	5f		 pop	 edi
  000a3	5e		 pop	 esi
  000a4	8b e5		 mov	 esp, ebp
  000a6	5d		 pop	 ebp
  000a7	c2 08 00	 ret	 8
_TEXT	ENDS
;	COMDAT text$x
text$x	SEGMENT
__unwindfunclet$??0CChartDesignPropertyAddInImp@@QAE@PAUIChartOCX134661@@PAUIAddInDllBase@@@Z$0:
  00000	8b 4d f0	 mov	 ecx, DWORD PTR _this$[ebp]
  00003	e9 00 00 00 00	 jmp	 ??1CChartAddInBase134661@@MAE@XZ ; CChartAddInBase134661::~CChartAddInBase134661
  00008	cc		 int	 3
  00009	cc		 int	 3
  0000a	cc		 int	 3
  0000b	cc		 int	 3
  0000c	cc		 int	 3
__ehhandler$??0CChartDesignPropertyAddInImp@@QAE@PAUIChartOCX134661@@PAUIAddInDllBase@@@Z:
  0000d	90		 npad	 1
  0000e	90		 npad	 1
  0000f	8b 54 24 08	 mov	 edx, DWORD PTR [esp+8]
  00013	8d 42 0c	 lea	 eax, DWORD PTR [edx+12]
  00016	8b 4a f0	 mov	 ecx, DWORD PTR [edx-16]
  00019	33 c8		 xor	 ecx, eax
  0001b	e8 00 00 00 00	 call	 @__security_check_cookie@4
  00020	b8 00 00 00 00	 mov	 eax, OFFSET __ehfuncinfo$??0CChartDesignPropertyAddInImp@@QAE@PAUIChartOCX134661@@PAUIAddInDllBase@@@Z
  00025	e9 00 00 00 00	 jmp	 ___CxxFrameHandler3
text$x	ENDS
??0CChartDesignPropertyAddInImp@@QAE@PAUIChartOCX134661@@PAUIAddInDllBase@@@Z ENDP ; CChartDesignPropertyAddInImp::CChartDesignPropertyAddInImp
; Function compile flags: /Ogtp
; File D:\git\src\IBK\IBK_DRFN\ProjSrc\SrcChartEx\ChartAddIn\ChartDesignPropertyAddIn\ChartDesignPropertyAddIn\EditableListCtrl.h
;	COMDAT ??__ERMSG_ELC_CELLEDITED@@YAXXZ
text$di	SEGMENT
??__ERMSG_ELC_CELLEDITED@@YAXXZ PROC			; `dynamic initializer for 'RMSG_ELC_CELLEDITED'', COMDAT

; 27   : const UINT RMSG_ELC_CELLEDITED = ::RegisterWindowMessage(_T("RMSG_EDITABLELISTCTRL_CELLEDITED"));

  00000	68 00 00 00 00	 push	 OFFSET ??_C@_0CB@EFDCECKM@RMSG_EDITABLELISTCTRL_CELLEDITE@
  00005	ff 15 00 00 00
	00		 call	 DWORD PTR __imp__RegisterWindowMessageA@4
  0000b	a3 00 00 00 00	 mov	 DWORD PTR ?RMSG_ELC_CELLEDITED@@3IB, eax
  00010	c3		 ret	 0
??__ERMSG_ELC_CELLEDITED@@YAXXZ ENDP			; `dynamic initializer for 'RMSG_ELC_CELLEDITED''
text$di	ENDS
; Function compile flags: /Ogtp
; File D:\git\src\IBK\IBK_DRFN\ProjSrc\SrcChartEx\ChartAddIn\ChartDesignPropertyAddIn\Include_AddIn_134661\I134661\_ChartAddInBase.h
;	COMDAT ?OnRButtonDblClk@CChartAddInBase134661@@MAEHPAVCDC@@IAAVCPoint@@K@Z
_TEXT	SEGMENT
_pDC$ = 8						; size = 4
_nFlags$ = 12						; size = 4
_point$ = 16						; size = 4
_p_dwMouseActionID$ = 20				; size = 4
?OnRButtonDblClk@CChartAddInBase134661@@MAEHPAVCDC@@IAAVCPoint@@K@Z PROC ; CChartAddInBase134661::OnRButtonDblClk, COMDAT
; _this$ = ecx

; 156  : 	virtual BOOL	OnRButtonDblClk(	CDC *pDC, UINT nFlags, CPoint &point, const DWORD p_dwMouseActionID)									{	return FALSE;	}

  00000	33 c0		 xor	 eax, eax
  00002	c2 10 00	 ret	 16			; 00000010H
?OnRButtonDblClk@CChartAddInBase134661@@MAEHPAVCDC@@IAAVCPoint@@K@Z ENDP ; CChartAddInBase134661::OnRButtonDblClk
_TEXT	ENDS
; Function compile flags: /Ogtp
; File D:\git\src\IBK\IBK_DRFN\ProjSrc\SrcChartEx\ChartAddIn\ChartDesignPropertyAddIn\Include_AddIn_134661\I134661\_ChartAddInBase.h
;	COMDAT ?OnRButtonUp@CChartAddInBase134661@@MAEHPAVCDC@@IAAVCPoint@@K@Z
_TEXT	SEGMENT
_pDC$ = 8						; size = 4
_nFlags$ = 12						; size = 4
_point$ = 16						; size = 4
_p_dwMouseActionID$ = 20				; size = 4
?OnRButtonUp@CChartAddInBase134661@@MAEHPAVCDC@@IAAVCPoint@@K@Z PROC ; CChartAddInBase134661::OnRButtonUp, COMDAT
; _this$ = ecx

; 155  : 	virtual BOOL	OnRButtonUp(		CDC *pDC, UINT nFlags, CPoint &point, const DWORD p_dwMouseActionID)									{	return FALSE;	}

  00000	33 c0		 xor	 eax, eax
  00002	c2 10 00	 ret	 16			; 00000010H
?OnRButtonUp@CChartAddInBase134661@@MAEHPAVCDC@@IAAVCPoint@@K@Z ENDP ; CChartAddInBase134661::OnRButtonUp
_TEXT	ENDS
; Function compile flags: /Ogtp
; File D:\git\src\IBK\IBK_DRFN\ProjSrc\SrcChartEx\ChartAddIn\ChartDesignPropertyAddIn\Include_AddIn_134661\I134661\_ChartAddInBase.h
;	COMDAT ?OnRButtonDown@CChartAddInBase134661@@MAEHPAVCDC@@IAAVCPoint@@K@Z
_TEXT	SEGMENT
_pDC$ = 8						; size = 4
_nFlags$ = 12						; size = 4
_point$ = 16						; size = 4
_p_dwMouseActionID$ = 20				; size = 4
?OnRButtonDown@CChartAddInBase134661@@MAEHPAVCDC@@IAAVCPoint@@K@Z PROC ; CChartAddInBase134661::OnRButtonDown, COMDAT
; _this$ = ecx

; 154  : 	virtual BOOL	OnRButtonDown(		CDC *pDC, UINT nFlags, CPoint &point, const DWORD p_dwMouseActionID)									{	return FALSE;	}

  00000	33 c0		 xor	 eax, eax
  00002	c2 10 00	 ret	 16			; 00000010H
?OnRButtonDown@CChartAddInBase134661@@MAEHPAVCDC@@IAAVCPoint@@K@Z ENDP ; CChartAddInBase134661::OnRButtonDown
_TEXT	ENDS
; Function compile flags: /Ogtp
; File D:\git\src\IBK\IBK_DRFN\ProjSrc\SrcChartEx\ChartAddIn\ChartDesignPropertyAddIn\Include_AddIn_134661\I134661\_ChartAddInBase.h
;	COMDAT ?OnLButtonDblClk@CChartAddInBase134661@@MAEHPAVCDC@@IAAVCPoint@@K@Z
_TEXT	SEGMENT
_pDC$ = 8						; size = 4
_nFlags$ = 12						; size = 4
_point$ = 16						; size = 4
_p_dwMouseActionID$ = 20				; size = 4
?OnLButtonDblClk@CChartAddInBase134661@@MAEHPAVCDC@@IAAVCPoint@@K@Z PROC ; CChartAddInBase134661::OnLButtonDblClk, COMDAT
; _this$ = ecx

; 153  : 	virtual BOOL	OnLButtonDblClk(	CDC *pDC, UINT nFlags, CPoint &point, const DWORD p_dwMouseActionID)									{	return FALSE;	}

  00000	33 c0		 xor	 eax, eax
  00002	c2 10 00	 ret	 16			; 00000010H
?OnLButtonDblClk@CChartAddInBase134661@@MAEHPAVCDC@@IAAVCPoint@@K@Z ENDP ; CChartAddInBase134661::OnLButtonDblClk
_TEXT	ENDS
; Function compile flags: /Ogtp
; File D:\git\src\IBK\IBK_DRFN\ProjSrc\SrcChartEx\ChartAddIn\ChartDesignPropertyAddIn\Include_AddIn_134661\I134661\_ChartAddInBase.h
;	COMDAT ?OnLButtonUp@CChartAddInBase134661@@MAEHPAVCDC@@IAAVCPoint@@K@Z
_TEXT	SEGMENT
_pDC$ = 8						; size = 4
_nFlags$ = 12						; size = 4
_point$ = 16						; size = 4
_p_dwMouseActionID$ = 20				; size = 4
?OnLButtonUp@CChartAddInBase134661@@MAEHPAVCDC@@IAAVCPoint@@K@Z PROC ; CChartAddInBase134661::OnLButtonUp, COMDAT
; _this$ = ecx

; 152  : 	virtual BOOL	OnLButtonUp(		CDC *pDC, UINT nFlags, CPoint &point, const DWORD p_dwMouseActionID)									{	return FALSE;	}

  00000	33 c0		 xor	 eax, eax
  00002	c2 10 00	 ret	 16			; 00000010H
?OnLButtonUp@CChartAddInBase134661@@MAEHPAVCDC@@IAAVCPoint@@K@Z ENDP ; CChartAddInBase134661::OnLButtonUp
_TEXT	ENDS
; Function compile flags: /Ogtp
; File D:\git\src\IBK\IBK_DRFN\ProjSrc\SrcChartEx\ChartAddIn\ChartDesignPropertyAddIn\Include_AddIn_134661\I134661\_ChartAddInBase.h
;	COMDAT ?OnLButtonDown@CChartAddInBase134661@@MAEHPAVCDC@@IAAVCPoint@@K@Z
_TEXT	SEGMENT
_pDC$ = 8						; size = 4
_nFlags$ = 12						; size = 4
_point$ = 16						; size = 4
_p_dwMouseActionID$ = 20				; size = 4
?OnLButtonDown@CChartAddInBase134661@@MAEHPAVCDC@@IAAVCPoint@@K@Z PROC ; CChartAddInBase134661::OnLButtonDown, COMDAT
; _this$ = ecx

; 151  : 	virtual BOOL	OnLButtonDown(		CDC *pDC, UINT nFlags, CPoint &point, const DWORD p_dwMouseActionID)									{	return FALSE;	}

  00000	33 c0		 xor	 eax, eax
  00002	c2 10 00	 ret	 16			; 00000010H
?OnLButtonDown@CChartAddInBase134661@@MAEHPAVCDC@@IAAVCPoint@@K@Z ENDP ; CChartAddInBase134661::OnLButtonDown
_TEXT	ENDS
; Function compile flags: /Ogtp
; File D:\git\src\IBK\IBK_DRFN\ProjSrc\SrcChartEx\ChartAddIn\ChartDesignPropertyAddIn\Include_AddIn_134661\I134661\_ChartAddInBase.h
;	COMDAT ?OnMouseMove@CChartAddInBase134661@@MAEHPAVCDC@@IAAVCPoint@@K@Z
_TEXT	SEGMENT
_pDC$ = 8						; size = 4
_nFlags$ = 12						; size = 4
_point$ = 16						; size = 4
_p_dwMouseActionID$ = 20				; size = 4
?OnMouseMove@CChartAddInBase134661@@MAEHPAVCDC@@IAAVCPoint@@K@Z PROC ; CChartAddInBase134661::OnMouseMove, COMDAT
; _this$ = ecx

; 150  : 	virtual BOOL	OnMouseMove(		CDC *pDC, UINT nFlags, CPoint &point, const DWORD p_dwMouseActionID)									{	return FALSE;	}

  00000	33 c0		 xor	 eax, eax
  00002	c2 10 00	 ret	 16			; 00000010H
?OnMouseMove@CChartAddInBase134661@@MAEHPAVCDC@@IAAVCPoint@@K@Z ENDP ; CChartAddInBase134661::OnMouseMove
_TEXT	ENDS
; Function compile flags: /Ogtp
; File D:\git\src\IBK\IBK_DRFN\ProjSrc\SrcChartEx\ChartAddIn\ChartDesignPropertyAddIn\Include_AddIn_134661\I134661\_ChartAddInBase.h
;	COMDAT ?OnMouseWheel@CChartAddInBase134661@@MAEHIFVCPoint@@K@Z
_TEXT	SEGMENT
_nFlags$ = 8						; size = 4
_zDelta$ = 12						; size = 2
_pt$ = 16						; size = 8
_p_dwMouseActionID$ = 24				; size = 4
?OnMouseWheel@CChartAddInBase134661@@MAEHIFVCPoint@@K@Z PROC ; CChartAddInBase134661::OnMouseWheel, COMDAT
; _this$ = ecx

; 149  : 	virtual BOOL	OnMouseWheel(		UINT nFlags, short zDelta, CPoint pt, const DWORD p_dwMouseActionID)									{	return FALSE;	}

  00000	33 c0		 xor	 eax, eax
  00002	c2 14 00	 ret	 20			; 00000014H
?OnMouseWheel@CChartAddInBase134661@@MAEHIFVCPoint@@K@Z ENDP ; CChartAddInBase134661::OnMouseWheel
_TEXT	ENDS
; Function compile flags: /Ogtp
; File D:\git\src\IBK\IBK_DRFN\ProjSrc\SrcChartEx\ChartAddIn\ChartDesignPropertyAddIn\Include_AddIn_134661\I134661\_ChartAddInBase.h
;	COMDAT ?OnKeyUp@CChartAddInBase134661@@MAEHIII@Z
_TEXT	SEGMENT
_nChar$ = 8						; size = 4
_nRepCnt$ = 12						; size = 4
_nFlags$ = 16						; size = 4
?OnKeyUp@CChartAddInBase134661@@MAEHIII@Z PROC		; CChartAddInBase134661::OnKeyUp, COMDAT
; _this$ = ecx

; 148  : 	virtual BOOL	OnKeyUp(			UINT nChar, UINT nRepCnt, UINT nFlags)																	{	return FALSE;	}

  00000	33 c0		 xor	 eax, eax
  00002	c2 0c 00	 ret	 12			; 0000000cH
?OnKeyUp@CChartAddInBase134661@@MAEHIII@Z ENDP		; CChartAddInBase134661::OnKeyUp
_TEXT	ENDS
; Function compile flags: /Ogtp
; File D:\git\src\IBK\IBK_DRFN\ProjSrc\SrcChartEx\ChartAddIn\ChartDesignPropertyAddIn\Include_AddIn_134661\I134661\_ChartAddInBase.h
;	COMDAT ?OnKeyDown@CChartAddInBase134661@@MAEHIII@Z
_TEXT	SEGMENT
_nChar$ = 8						; size = 4
_nRepCnt$ = 12						; size = 4
_nFlags$ = 16						; size = 4
?OnKeyDown@CChartAddInBase134661@@MAEHIII@Z PROC	; CChartAddInBase134661::OnKeyDown, COMDAT
; _this$ = ecx

; 147  : 	virtual BOOL	OnKeyDown(			UINT nChar, UINT nRepCnt, UINT nFlags)																	{	return FALSE;	}

  00000	33 c0		 xor	 eax, eax
  00002	c2 0c 00	 ret	 12			; 0000000cH
?OnKeyDown@CChartAddInBase134661@@MAEHIII@Z ENDP	; CChartAddInBase134661::OnKeyDown
_TEXT	ENDS
; Function compile flags: /Ogtp
; File D:\git\src\IBK\IBK_DRFN\ProjSrc\SrcChartEx\ChartAddIn\ChartDesignPropertyAddIn\Include_AddIn_134661\I134661\_ChartAddInBase.h
;	COMDAT ?OnAddInToolCommand@CChartAddInBase134661@@MAEHAAJW4EAICommandType@@JJ@Z
_TEXT	SEGMENT
_p_lResult$ = 8						; size = 4
_p_eCommandID$ = 12					; size = 4
_p_lParam1$ = 16					; size = 4
_p_lParam2$ = 20					; size = 4
?OnAddInToolCommand@CChartAddInBase134661@@MAEHAAJW4EAICommandType@@JJ@Z PROC ; CChartAddInBase134661::OnAddInToolCommand, COMDAT
; _this$ = ecx

; 145  : 	virtual BOOL	OnAddInToolCommand(	long &p_lResult, const EAICommandType p_eCommandID, const long p_lParam1, const long p_lParam2)			{	return FALSE;	}

  00000	33 c0		 xor	 eax, eax
  00002	c2 10 00	 ret	 16			; 00000010H
?OnAddInToolCommand@CChartAddInBase134661@@MAEHAAJW4EAICommandType@@JJ@Z ENDP ; CChartAddInBase134661::OnAddInToolCommand
_TEXT	ENDS
; Function compile flags: /Ogtp
; File D:\git\src\IBK\IBK_DRFN\ProjSrc\SrcChartEx\ChartAddIn\ChartDesignPropertyAddIn\Include_AddIn_134661\I134661\_ChartAddInBase.h
;	COMDAT ?OnAddInToolCommand@CChartAddInBase134661@@MAEHAAJW4EAICommandType@@J@Z
_TEXT	SEGMENT
_p_lResult$ = 8						; size = 4
_p_eCommandID$ = 12					; size = 4
_p_lParam$ = 16						; size = 4
?OnAddInToolCommand@CChartAddInBase134661@@MAEHAAJW4EAICommandType@@J@Z PROC ; CChartAddInBase134661::OnAddInToolCommand, COMDAT
; _this$ = ecx

; 144  : 	virtual BOOL	OnAddInToolCommand(	long &p_lResult, const EAICommandType p_eCommandID, const long p_lParam)								{	return FALSE;	}

  00000	33 c0		 xor	 eax, eax
  00002	c2 0c 00	 ret	 12			; 0000000cH
?OnAddInToolCommand@CChartAddInBase134661@@MAEHAAJW4EAICommandType@@J@Z ENDP ; CChartAddInBase134661::OnAddInToolCommand
_TEXT	ENDS
; Function compile flags: /Ogtp
; File D:\git\src\IBK\IBK_DRFN\ProjSrc\SrcChartEx\ChartAddIn\ChartDesignPropertyAddIn\Include_AddIn_134661\I134661\_ChartAddInBase.h
;	COMDAT ?OnAddInToolCommand@CChartAddInBase134661@@MAEHAAJW4EAICommandType@@PBDPAVCObject@@@Z
_TEXT	SEGMENT
_p_lResult$ = 8						; size = 4
_p_eCommandID$ = 12					; size = 4
_p_szParam$ = 16					; size = 4
_p_pParam$ = 20						; size = 4
?OnAddInToolCommand@CChartAddInBase134661@@MAEHAAJW4EAICommandType@@PBDPAVCObject@@@Z PROC ; CChartAddInBase134661::OnAddInToolCommand, COMDAT
; _this$ = ecx

; 143  : 	virtual BOOL	OnAddInToolCommand(	long &p_lResult, const EAICommandType p_eCommandID, const char *p_szParam, CObject *p_pParam)			{	return FALSE;	}

  00000	33 c0		 xor	 eax, eax
  00002	c2 10 00	 ret	 16			; 00000010H
?OnAddInToolCommand@CChartAddInBase134661@@MAEHAAJW4EAICommandType@@PBDPAVCObject@@@Z ENDP ; CChartAddInBase134661::OnAddInToolCommand
_TEXT	ENDS
; Function compile flags: /Ogtp
; File D:\git\src\IBK\IBK_DRFN\ProjSrc\SrcChartEx\ChartAddIn\ChartDesignPropertyAddIn\Include_AddIn_134661\I134661\_ChartAddInBase.h
;	COMDAT ?OnAddInToolCommand@CChartAddInBase134661@@MAEHAAJW4EAICommandType@@PBD@Z
_TEXT	SEGMENT
_p_lResult$ = 8						; size = 4
_p_eCommandID$ = 12					; size = 4
_p_szParam$ = 16					; size = 4
?OnAddInToolCommand@CChartAddInBase134661@@MAEHAAJW4EAICommandType@@PBD@Z PROC ; CChartAddInBase134661::OnAddInToolCommand, COMDAT
; _this$ = ecx

; 142  : 	virtual BOOL	OnAddInToolCommand(	long &p_lResult, const EAICommandType p_eCommandID, const char *p_szParam)								{	return FALSE;	}

  00000	33 c0		 xor	 eax, eax
  00002	c2 0c 00	 ret	 12			; 0000000cH
?OnAddInToolCommand@CChartAddInBase134661@@MAEHAAJW4EAICommandType@@PBD@Z ENDP ; CChartAddInBase134661::OnAddInToolCommand
_TEXT	ENDS
; Function compile flags: /Ogtp
; File D:\git\src\IBK\IBK_DRFN\ProjSrc\SrcChartEx\ChartAddIn\ChartDesignPropertyAddIn\Include_AddIn_134661\I134661\_ChartAddInBase.h
;	COMDAT ?OnAddInToolCommand@CChartAddInBase134661@@MAEHAAJW4EAICommandType@@@Z
_TEXT	SEGMENT
_p_lResult$ = 8						; size = 4
_p_eCommandID$ = 12					; size = 4
?OnAddInToolCommand@CChartAddInBase134661@@MAEHAAJW4EAICommandType@@@Z PROC ; CChartAddInBase134661::OnAddInToolCommand, COMDAT
; _this$ = ecx

; 141  : 	virtual BOOL	OnAddInToolCommand(	long &p_lResult, const EAICommandType p_eCommandID)														{	return FALSE;	}

  00000	33 c0		 xor	 eax, eax
  00002	c2 08 00	 ret	 8
?OnAddInToolCommand@CChartAddInBase134661@@MAEHAAJW4EAICommandType@@@Z ENDP ; CChartAddInBase134661::OnAddInToolCommand
_TEXT	ENDS
; Function compile flags: /Ogtp
; File D:\git\src\IBK\IBK_DRFN\ProjSrc\SrcChartEx\ChartAddIn\ChartDesignPropertyAddIn\Include_AddIn_134661\I134661\_ChartAddInBase.h
;	COMDAT ?OnAddInToolCommand@CChartAddInBase134661@@MAEHW4EAICommandType@@JJJJJJJJJ@Z
_TEXT	SEGMENT
_p_eCommandID$ = 8					; size = 4
_p_lParam1$ = 12					; size = 4
_p_lParam2$ = 16					; size = 4
_p_lParam3$ = 20					; size = 4
_p_lParam4$ = 24					; size = 4
_p_lParam5$ = 28					; size = 4
_p_lParam6$ = 32					; size = 4
_p_lParam7$ = 36					; size = 4
_p_lParam8$ = 40					; size = 4
_p_lParam9$ = 44					; size = 4
?OnAddInToolCommand@CChartAddInBase134661@@MAEHW4EAICommandType@@JJJJJJJJJ@Z PROC ; CChartAddInBase134661::OnAddInToolCommand, COMDAT
; _this$ = ecx

; 139  : 	virtual BOOL	OnAddInToolCommand(	const EAICommandType p_eCommandID, const long p_lParam1, const long p_lParam2, const long p_lParam3, const long p_lParam4, const long p_lParam5, const long p_lParam6, const long p_lParam7, const long p_lParam8, const long p_lParam9)	{	return FALSE;	}

  00000	33 c0		 xor	 eax, eax
  00002	c2 28 00	 ret	 40			; 00000028H
?OnAddInToolCommand@CChartAddInBase134661@@MAEHW4EAICommandType@@JJJJJJJJJ@Z ENDP ; CChartAddInBase134661::OnAddInToolCommand
_TEXT	ENDS
; Function compile flags: /Ogtp
; File D:\git\src\IBK\IBK_DRFN\ProjSrc\SrcChartEx\ChartAddIn\ChartDesignPropertyAddIn\Include_AddIn_134661\I134661\_ChartAddInBase.h
;	COMDAT ?OnAddInToolCommand@CChartAddInBase134661@@MAEHW4EAICommandType@@JJ@Z
_TEXT	SEGMENT
_p_eCommandID$ = 8					; size = 4
_p_lParam1$ = 12					; size = 4
_p_lParam2$ = 16					; size = 4
?OnAddInToolCommand@CChartAddInBase134661@@MAEHW4EAICommandType@@JJ@Z PROC ; CChartAddInBase134661::OnAddInToolCommand, COMDAT
; _this$ = ecx

; 138  : 	virtual BOOL	OnAddInToolCommand(	const EAICommandType p_eCommandID, const long p_lParam1, const long p_lParam2)							{	return FALSE;	}

  00000	33 c0		 xor	 eax, eax
  00002	c2 0c 00	 ret	 12			; 0000000cH
?OnAddInToolCommand@CChartAddInBase134661@@MAEHW4EAICommandType@@JJ@Z ENDP ; CChartAddInBase134661::OnAddInToolCommand
_TEXT	ENDS
; Function compile flags: /Ogtp
; File D:\git\src\IBK\IBK_DRFN\ProjSrc\SrcChartEx\ChartAddIn\ChartDesignPropertyAddIn\Include_AddIn_134661\I134661\_ChartAddInBase.h
;	COMDAT ?OnAddInToolCommand@CChartAddInBase134661@@MAEHW4EAICommandType@@JPBD11@Z
_TEXT	SEGMENT
_p_eCommandID$ = 8					; size = 4
_p_lParam$ = 12						; size = 4
_p_szParam1$ = 16					; size = 4
_p_szParam2$ = 20					; size = 4
_p_szParam3$ = 24					; size = 4
?OnAddInToolCommand@CChartAddInBase134661@@MAEHW4EAICommandType@@JPBD11@Z PROC ; CChartAddInBase134661::OnAddInToolCommand, COMDAT
; _this$ = ecx

; 137  : 	virtual BOOL	OnAddInToolCommand( const EAICommandType p_eCommandID, const long p_lParam, const char *p_szParam1, const char *p_szParam2, const char *p_szParam3)	{	return FALSE;	}

  00000	33 c0		 xor	 eax, eax
  00002	c2 14 00	 ret	 20			; 00000014H
?OnAddInToolCommand@CChartAddInBase134661@@MAEHW4EAICommandType@@JPBD11@Z ENDP ; CChartAddInBase134661::OnAddInToolCommand
_TEXT	ENDS
; Function compile flags: /Ogtp
; File D:\git\src\IBK\IBK_DRFN\ProjSrc\SrcChartEx\ChartAddIn\ChartDesignPropertyAddIn\Include_AddIn_134661\I134661\_ChartAddInBase.h
;	COMDAT ?OnAddInToolCommand@CChartAddInBase134661@@MAEHW4EAICommandType@@JPBD@Z
_TEXT	SEGMENT
_p_eCommandID$ = 8					; size = 4
_p_lParam$ = 12						; size = 4
_p_szParam$ = 16					; size = 4
?OnAddInToolCommand@CChartAddInBase134661@@MAEHW4EAICommandType@@JPBD@Z PROC ; CChartAddInBase134661::OnAddInToolCommand, COMDAT
; _this$ = ecx

; 136  : 	virtual BOOL	OnAddInToolCommand( const EAICommandType p_eCommandID, const long p_lParam, const char *p_szParam)							{	return FALSE;	}

  00000	33 c0		 xor	 eax, eax
  00002	c2 0c 00	 ret	 12			; 0000000cH
?OnAddInToolCommand@CChartAddInBase134661@@MAEHW4EAICommandType@@JPBD@Z ENDP ; CChartAddInBase134661::OnAddInToolCommand
_TEXT	ENDS
; Function compile flags: /Ogtp
; File D:\git\src\IBK\IBK_DRFN\ProjSrc\SrcChartEx\ChartAddIn\ChartDesignPropertyAddIn\Include_AddIn_134661\I134661\_ChartAddInBase.h
;	COMDAT ?OnAddInToolCommand@CChartAddInBase134661@@MAEHW4EAICommandType@@J@Z
_TEXT	SEGMENT
_p_eCommandID$ = 8					; size = 4
_p_lParam$ = 12						; size = 4
?OnAddInToolCommand@CChartAddInBase134661@@MAEHW4EAICommandType@@J@Z PROC ; CChartAddInBase134661::OnAddInToolCommand, COMDAT
; _this$ = ecx

; 135  : 	virtual BOOL	OnAddInToolCommand(	const EAICommandType p_eCommandID, const long p_lParam)													{	return FALSE;	}

  00000	33 c0		 xor	 eax, eax
  00002	c2 08 00	 ret	 8
?OnAddInToolCommand@CChartAddInBase134661@@MAEHW4EAICommandType@@J@Z ENDP ; CChartAddInBase134661::OnAddInToolCommand
_TEXT	ENDS
; Function compile flags: /Ogtp
; File D:\git\src\IBK\IBK_DRFN\ProjSrc\SrcChartEx\ChartAddIn\ChartDesignPropertyAddIn\Include_AddIn_134661\I134661\_ChartAddInBase.h
;	COMDAT ?OnAddInToolCommand@CChartAddInBase134661@@MAEHW4EAICommandType@@PBUIAddInDllBase@@@Z
_TEXT	SEGMENT
_p_eCommandID$ = 8					; size = 4
_p_pParam$ = 12						; size = 4
?OnAddInToolCommand@CChartAddInBase134661@@MAEHW4EAICommandType@@PBUIAddInDllBase@@@Z PROC ; CChartAddInBase134661::OnAddInToolCommand, COMDAT
; _this$ = ecx

; 134  : 	virtual BOOL	OnAddInToolCommand(	const EAICommandType p_eCommandID, const IAddInDllBase *p_pParam)										{	return FALSE;	}

  00000	33 c0		 xor	 eax, eax
  00002	c2 08 00	 ret	 8
?OnAddInToolCommand@CChartAddInBase134661@@MAEHW4EAICommandType@@PBUIAddInDllBase@@@Z ENDP ; CChartAddInBase134661::OnAddInToolCommand
_TEXT	ENDS
; Function compile flags: /Ogtp
; File D:\git\src\IBK\IBK_DRFN\ProjSrc\SrcChartEx\ChartAddIn\ChartDesignPropertyAddIn\Include_AddIn_134661\I134661\_ChartAddInBase.h
;	COMDAT ?OnAddInToolCommand@CChartAddInBase134661@@MAEHW4EAICommandType@@PBVCStyleData@@@Z
_TEXT	SEGMENT
_p_eCommandID$ = 8					; size = 4
_p_pParam$ = 12						; size = 4
?OnAddInToolCommand@CChartAddInBase134661@@MAEHW4EAICommandType@@PBVCStyleData@@@Z PROC ; CChartAddInBase134661::OnAddInToolCommand, COMDAT
; _this$ = ecx

; 133  : 	virtual BOOL	OnAddInToolCommand(	const EAICommandType p_eCommandID, const CStyleData *p_pParam)											{	return FALSE;	}

  00000	33 c0		 xor	 eax, eax
  00002	c2 08 00	 ret	 8
?OnAddInToolCommand@CChartAddInBase134661@@MAEHW4EAICommandType@@PBVCStyleData@@@Z ENDP ; CChartAddInBase134661::OnAddInToolCommand
_TEXT	ENDS
; Function compile flags: /Ogtp
; File D:\git\src\IBK\IBK_DRFN\ProjSrc\SrcChartEx\ChartAddIn\ChartDesignPropertyAddIn\Include_AddIn_134661\I134661\_ChartAddInBase.h
;	COMDAT ?OnAddInToolCommand@CChartAddInBase134661@@MAEHW4EAICommandType@@PBVCStringList@@@Z
_TEXT	SEGMENT
_p_eCommandID$ = 8					; size = 4
_p_pParam$ = 12						; size = 4
?OnAddInToolCommand@CChartAddInBase134661@@MAEHW4EAICommandType@@PBVCStringList@@@Z PROC ; CChartAddInBase134661::OnAddInToolCommand, COMDAT
; _this$ = ecx

; 132  : 	virtual BOOL	OnAddInToolCommand(	const EAICommandType p_eCommandID, const CStringList *p_pParam)											{	return FALSE;	}

  00000	33 c0		 xor	 eax, eax
  00002	c2 08 00	 ret	 8
?OnAddInToolCommand@CChartAddInBase134661@@MAEHW4EAICommandType@@PBVCStringList@@@Z ENDP ; CChartAddInBase134661::OnAddInToolCommand
_TEXT	ENDS
; Function compile flags: /Ogtp
; File D:\git\src\IBK\IBK_DRFN\ProjSrc\SrcChartEx\ChartAddIn\ChartDesignPropertyAddIn\Include_AddIn_134661\I134661\_ChartAddInBase.h
;	COMDAT ?OnAddInToolCommand@CChartAddInBase134661@@MAEHW4EAICommandType@@PBVCBlockBehaviorData@@@Z
_TEXT	SEGMENT
_p_eCommandID$ = 8					; size = 4
_p_pParam$ = 12						; size = 4
?OnAddInToolCommand@CChartAddInBase134661@@MAEHW4EAICommandType@@PBVCBlockBehaviorData@@@Z PROC ; CChartAddInBase134661::OnAddInToolCommand, COMDAT
; _this$ = ecx

; 131  : 	virtual BOOL	OnAddInToolCommand(	const EAICommandType p_eCommandID, const CBlockBehaviorData *p_pParam)									{	return FALSE;	}

  00000	33 c0		 xor	 eax, eax
  00002	c2 08 00	 ret	 8
?OnAddInToolCommand@CChartAddInBase134661@@MAEHW4EAICommandType@@PBVCBlockBehaviorData@@@Z ENDP ; CChartAddInBase134661::OnAddInToolCommand
_TEXT	ENDS
; Function compile flags: /Ogtp
; File D:\git\src\IBK\IBK_DRFN\ProjSrc\SrcChartEx\ChartAddIn\ChartDesignPropertyAddIn\Include_AddIn_134661\I134661\_ChartAddInBase.h
;	COMDAT ?OnAddInToolCommand@CChartAddInBase134661@@MAEHW4EAICommandType@@PBDJ@Z
_TEXT	SEGMENT
_p_eCommandID$ = 8					; size = 4
_p_szParam$ = 12					; size = 4
_p_lParam$ = 16						; size = 4
?OnAddInToolCommand@CChartAddInBase134661@@MAEHW4EAICommandType@@PBDJ@Z PROC ; CChartAddInBase134661::OnAddInToolCommand, COMDAT
; _this$ = ecx

; 130  : 	virtual BOOL	OnAddInToolCommand( const EAICommandType p_eCommandID, const char *p_szParam, const long p_lParam)							{	return FALSE;	}

  00000	33 c0		 xor	 eax, eax
  00002	c2 0c 00	 ret	 12			; 0000000cH
?OnAddInToolCommand@CChartAddInBase134661@@MAEHW4EAICommandType@@PBDJ@Z ENDP ; CChartAddInBase134661::OnAddInToolCommand
_TEXT	ENDS
; Function compile flags: /Ogtp
; File D:\git\src\IBK\IBK_DRFN\ProjSrc\SrcChartEx\ChartAddIn\ChartDesignPropertyAddIn\Include_AddIn_134661\I134661\_ChartAddInBase.h
;	COMDAT ?OnAddInToolCommand@CChartAddInBase134661@@MAEHW4EAICommandType@@PBD@Z
_TEXT	SEGMENT
_p_eCommandID$ = 8					; size = 4
_p_szParam$ = 12					; size = 4
?OnAddInToolCommand@CChartAddInBase134661@@MAEHW4EAICommandType@@PBD@Z PROC ; CChartAddInBase134661::OnAddInToolCommand, COMDAT
; _this$ = ecx

; 129  : 	virtual BOOL	OnAddInToolCommand(	const EAICommandType p_eCommandID, const char *p_szParam)												{	return FALSE;	}

  00000	33 c0		 xor	 eax, eax
  00002	c2 08 00	 ret	 8
?OnAddInToolCommand@CChartAddInBase134661@@MAEHW4EAICommandType@@PBD@Z ENDP ; CChartAddInBase134661::OnAddInToolCommand
_TEXT	ENDS
; Function compile flags: /Ogtp
; File D:\git\src\IBK\IBK_DRFN\ProjSrc\SrcChartEx\ChartAddIn\ChartDesignPropertyAddIn\Include_AddIn_134661\I134661\_ChartAddInBase.h
;	COMDAT ?OnAddInToolCommand@CChartAddInBase134661@@MAEHW4EAICommandType@@PAVCDC@@IAAVCPoint@@K@Z
_TEXT	SEGMENT
_p_eCommandID$ = 8					; size = 4
_pDC$ = 12						; size = 4
_nFlags$ = 16						; size = 4
_point$ = 20						; size = 4
_p_dwMouseActionID$ = 24				; size = 4
?OnAddInToolCommand@CChartAddInBase134661@@MAEHW4EAICommandType@@PAVCDC@@IAAVCPoint@@K@Z PROC ; CChartAddInBase134661::OnAddInToolCommand, COMDAT
; _this$ = ecx

; 128  : 	virtual BOOL	OnAddInToolCommand(	const EAICommandType p_eCommandID, CDC *pDC, UINT nFlags, CPoint &point, const DWORD p_dwMouseActionID)	{	return FALSE;	}

  00000	33 c0		 xor	 eax, eax
  00002	c2 14 00	 ret	 20			; 00000014H
?OnAddInToolCommand@CChartAddInBase134661@@MAEHW4EAICommandType@@PAVCDC@@IAAVCPoint@@K@Z ENDP ; CChartAddInBase134661::OnAddInToolCommand
_TEXT	ENDS
; Function compile flags: /Ogtp
; File D:\git\src\IBK\IBK_DRFN\ProjSrc\SrcChartEx\ChartAddIn\ChartDesignPropertyAddIn\Include_AddIn_134661\I134661\_ChartAddInBase.h
;	COMDAT ?OnAddInToolCommand@CChartAddInBase134661@@MAEHW4EAICommandType@@@Z
_TEXT	SEGMENT
_p_eCommandID$ = 8					; size = 4
?OnAddInToolCommand@CChartAddInBase134661@@MAEHW4EAICommandType@@@Z PROC ; CChartAddInBase134661::OnAddInToolCommand, COMDAT
; _this$ = ecx

; 127  : 	virtual BOOL	OnAddInToolCommand(	const EAICommandType p_eCommandID)																		{	return FALSE;	}

  00000	33 c0		 xor	 eax, eax
  00002	c2 04 00	 ret	 4
?OnAddInToolCommand@CChartAddInBase134661@@MAEHW4EAICommandType@@@Z ENDP ; CChartAddInBase134661::OnAddInToolCommand
_TEXT	ENDS
; Function compile flags: /Ogtp
; File D:\git\src\IBK\IBK_DRFN\ProjSrc\SrcChartEx\ChartAddIn\ChartDesignPropertyAddIn\Include_AddIn_134661\I134661\_ChartAddInBase.h
;	COMDAT ?OnRealRedcordEnd@CChartAddInBase134661@@MAEXGPBD@Z
_TEXT	SEGMENT
_p_wRealRecordID$ = 8					; size = 2
_p_szRealKeyCode$ = 12					; size = 4
?OnRealRedcordEnd@CChartAddInBase134661@@MAEXGPBD@Z PROC ; CChartAddInBase134661::OnRealRedcordEnd, COMDAT
; _this$ = ecx

; 120  : 	virtual void	OnRealRedcordEnd( WORD p_wRealRecordID, const char *p_szRealKeyCode)													{}

  00000	c2 08 00	 ret	 8
?OnRealRedcordEnd@CChartAddInBase134661@@MAEXGPBD@Z ENDP ; CChartAddInBase134661::OnRealRedcordEnd
_TEXT	ENDS
; Function compile flags: /Ogtp
; File D:\git\src\IBK\IBK_DRFN\ProjSrc\SrcChartEx\ChartAddIn\ChartDesignPropertyAddIn\Include_AddIn_134661\I134661\_ChartAddInBase.h
;	COMDAT ?OnRealData@CChartAddInBase134661@@MAEXGGPBDJN@Z
_TEXT	SEGMENT
_p_wRealRecordID$ = 8					; size = 2
_p_wRealItemID$ = 12					; size = 2
_p_szRealKeyCode$ = 16					; size = 4
_p_lPacketAddress$ = 20					; size = 4
_dData$ = 24						; size = 8
?OnRealData@CChartAddInBase134661@@MAEXGGPBDJN@Z PROC	; CChartAddInBase134661::OnRealData, COMDAT
; _this$ = ecx

; 118  : 	virtual void	OnRealData( WORD p_wRealRecordID, WORD p_wRealItemID, const char *p_szRealKeyCode, long p_lPacketAddress, double dData)	{}

  00000	c2 18 00	 ret	 24			; 00000018H
?OnRealData@CChartAddInBase134661@@MAEXGGPBDJN@Z ENDP	; CChartAddInBase134661::OnRealData
_TEXT	ENDS
; Function compile flags: /Ogtp
; File D:\git\src\IBK\IBK_DRFN\ProjSrc\SrcChartEx\ChartAddIn\ChartDesignPropertyAddIn\Include_AddIn_134661\I134661\_ChartAddInBase.h
;	COMDAT ?OnDrdsPacketEnd@CChartAddInBase134661@@MAEXIJ@Z
_TEXT	SEGMENT
_p_wParam$ = 8						; size = 4
_p_lParam$ = 12						; size = 4
?OnDrdsPacketEnd@CChartAddInBase134661@@MAEXIJ@Z PROC	; CChartAddInBase134661::OnDrdsPacketEnd, COMDAT
; _this$ = ecx

; 114  : 	virtual void	OnDrdsPacketEnd( WPARAM p_wParam, LPARAM p_lParam)	{}

  00000	c2 08 00	 ret	 8
?OnDrdsPacketEnd@CChartAddInBase134661@@MAEXIJ@Z ENDP	; CChartAddInBase134661::OnDrdsPacketEnd
_TEXT	ENDS
; Function compile flags: /Ogtp
; File D:\git\src\IBK\IBK_DRFN\ProjSrc\SrcChartEx\ChartAddIn\ChartDesignPropertyAddIn\Include_AddIn_134661\I134661\_ChartAddInBase.h
;	COMDAT ?OnDrdsData@CChartAddInBase134661@@MAEXIJ@Z
_TEXT	SEGMENT
_p_wParam$ = 8						; size = 4
_p_lParam$ = 12						; size = 4
?OnDrdsData@CChartAddInBase134661@@MAEXIJ@Z PROC	; CChartAddInBase134661::OnDrdsData, COMDAT
; _this$ = ecx

; 112  : 	virtual void	OnDrdsData( WPARAM p_wParam, LPARAM p_lParam)		{}

  00000	c2 08 00	 ret	 8
?OnDrdsData@CChartAddInBase134661@@MAEXIJ@Z ENDP	; CChartAddInBase134661::OnDrdsData
_TEXT	ENDS
; Function compile flags: /Ogtp
; File D:\git\src\IBK\IBK_DRFN\ProjSrc\SrcChartEx\ChartAddIn\ChartDesignPropertyAddIn\Include_AddIn_134661\I134661\_ChartAddInBase.h
;	COMDAT ?OnCaptureChanged@CChartAddInBase134661@@MAEXPAVCWnd@@@Z
_TEXT	SEGMENT
_pWnd$ = 8						; size = 4
?OnCaptureChanged@CChartAddInBase134661@@MAEXPAVCWnd@@@Z PROC ; CChartAddInBase134661::OnCaptureChanged, COMDAT
; _this$ = ecx

; 105  : 	virtual void	OnCaptureChanged(	CWnd *pWnd)	{}

  00000	c2 04 00	 ret	 4
?OnCaptureChanged@CChartAddInBase134661@@MAEXPAVCWnd@@@Z ENDP ; CChartAddInBase134661::OnCaptureChanged
_TEXT	ENDS
; Function compile flags: /Ogtp
; File D:\git\src\IBK\IBK_DRFN\ProjSrc\SrcChartEx\ChartAddIn\ChartDesignPropertyAddIn\Include_AddIn_134661\I134661\_ChartAddInBase.h
;	COMDAT ?OnTimer@CChartAddInBase134661@@MAEXI@Z
_TEXT	SEGMENT
_p_uTimerID$ = 8					; size = 4
?OnTimer@CChartAddInBase134661@@MAEXI@Z PROC		; CChartAddInBase134661::OnTimer, COMDAT
; _this$ = ecx

; 100  : 	virtual void	OnTimer( UINT p_uTimerID)	{}

  00000	c2 04 00	 ret	 4
?OnTimer@CChartAddInBase134661@@MAEXI@Z ENDP		; CChartAddInBase134661::OnTimer
_TEXT	ENDS
; Function compile flags: /Ogtp
; File D:\git\src\IBK\IBK_DRFN\ProjSrc\SrcChartEx\ChartAddIn\ChartDesignPropertyAddIn\Include_AddIn_134661\I134661\_ChartAddInBase.h
;	COMDAT ?OnUpdatePacketData@CChartAddInBase134661@@MAEXH@Z
_TEXT	SEGMENT
_p_bTrUpdate$ = 8					; size = 4
?OnUpdatePacketData@CChartAddInBase134661@@MAEXH@Z PROC	; CChartAddInBase134661::OnUpdatePacketData, COMDAT
; _this$ = ecx

; 95   : 	virtual void	OnUpdatePacketData( BOOL p_bTrUpdate)	{}

  00000	c2 04 00	 ret	 4
?OnUpdatePacketData@CChartAddInBase134661@@MAEXH@Z ENDP	; CChartAddInBase134661::OnUpdatePacketData
_TEXT	ENDS
; Function compile flags: /Ogtp
; File D:\git\src\IBK\IBK_DRFN\ProjSrc\SrcChartEx\ChartAddIn\ChartDesignPropertyAddIn\Include_AddIn_134661\I134661\_ChartAddInBase.h
;	COMDAT ?OnPacketData@CChartAddInBase134661@@MAEXPBDH@Z
_TEXT	SEGMENT
_p_szPacketNames$ = 8					; size = 4
_p_bWithReset$ = 12					; size = 4
?OnPacketData@CChartAddInBase134661@@MAEXPBDH@Z PROC	; CChartAddInBase134661::OnPacketData, COMDAT
; _this$ = ecx

; 93   : 	virtual void	OnPacketData( const char *p_szPacketNames, BOOL p_bWithReset)	{}

  00000	c2 08 00	 ret	 8
?OnPacketData@CChartAddInBase134661@@MAEXPBDH@Z ENDP	; CChartAddInBase134661::OnPacketData
_TEXT	ENDS
; Function compile flags: /Ogtp
; File D:\git\src\IBK\IBK_DRFN\ProjSrc\SrcChartEx\ChartAddIn\ChartDesignPropertyAddIn\Include_AddIn_134661\I134661\_ChartAddInBase.h
;	COMDAT ?OnDrawAfterGraph@CChartAddInBase134661@@MAEXPAVCDC@@@Z
_TEXT	SEGMENT
_p_pDC$ = 8						; size = 4
?OnDrawAfterGraph@CChartAddInBase134661@@MAEXPAVCDC@@@Z PROC ; CChartAddInBase134661::OnDrawAfterGraph, COMDAT
; _this$ = ecx

; 91   : 	virtual void	OnDrawAfterGraph( CDC *p_pDC)	{}

  00000	c2 04 00	 ret	 4
?OnDrawAfterGraph@CChartAddInBase134661@@MAEXPAVCDC@@@Z ENDP ; CChartAddInBase134661::OnDrawAfterGraph
_TEXT	ENDS
; Function compile flags: /Ogtp
; File D:\git\src\IBK\IBK_DRFN\ProjSrc\SrcChartEx\ChartAddIn\ChartDesignPropertyAddIn\Include_AddIn_134661\I134661\_ChartAddInBase.h
;	COMDAT ?OnDrawBeforeGraph@CChartAddInBase134661@@MAEXPAVCDC@@@Z
_TEXT	SEGMENT
_p_pDC$ = 8						; size = 4
?OnDrawBeforeGraph@CChartAddInBase134661@@MAEXPAVCDC@@@Z PROC ; CChartAddInBase134661::OnDrawBeforeGraph, COMDAT
; _this$ = ecx

; 89   : 	virtual void	OnDrawBeforeGraph( CDC *p_pDC)	{}

  00000	c2 04 00	 ret	 4
?OnDrawBeforeGraph@CChartAddInBase134661@@MAEXPAVCDC@@@Z ENDP ; CChartAddInBase134661::OnDrawBeforeGraph
_TEXT	ENDS
; Function compile flags: /Ogtp
; File D:\git\src\IBK\IBK_DRFN\ProjSrc\SrcChartEx\ChartAddIn\ChartDesignPropertyAddIn\Include_AddIn_134661\I134661\_ChartAddInBase.h
;	COMDAT ?OnResetChart@CChartAddInBase134661@@MAEXXZ
_TEXT	SEGMENT
?OnResetChart@CChartAddInBase134661@@MAEXXZ PROC	; CChartAddInBase134661::OnResetChart, COMDAT
; _this$ = ecx

; 87   : 	virtual void	OnResetChart( void)	{}

  00000	c2 00 00	 ret	 0
?OnResetChart@CChartAddInBase134661@@MAEXXZ ENDP	; CChartAddInBase134661::OnResetChart
_TEXT	ENDS
; Function compile flags: /Ogtp
; File D:\git\src\IBK\IBK_DRFN\ProjSrc\SrcChartEx\ChartAddIn\ChartDesignPropertyAddIn\Include_AddIn_134661\I134661\_ChartAddInBase.h
;	COMDAT ?OnSharedDataChange@CChartAddInBase134661@@MAEXPBD0H@Z
_TEXT	SEGMENT
_p_szShareName$ = 8					; size = 4
_p_szSharedData$ = 12					; size = 4
_p_bStartShare$ = 16					; size = 4
?OnSharedDataChange@CChartAddInBase134661@@MAEXPBD0H@Z PROC ; CChartAddInBase134661::OnSharedDataChange, COMDAT
; _this$ = ecx

; 84   : 	virtual void	OnSharedDataChange( const char *p_szShareName, const char *p_szSharedData, BOOL p_bStartShare)	{}

  00000	c2 0c 00	 ret	 12			; 0000000cH
?OnSharedDataChange@CChartAddInBase134661@@MAEXPBD0H@Z ENDP ; CChartAddInBase134661::OnSharedDataChange
_TEXT	ENDS
; Function compile flags: /Ogtp
; File D:\git\src\IBK\IBK_DRFN\ProjSrc\SrcChartEx\ChartAddIn\ChartDesignPropertyAddIn\Include_AddIn_134661\I134661\_ChartAddInBase.h
;	COMDAT ?OnLSharedDataChange@CChartAddInBase134661@@MAEXPBD0@Z
_TEXT	SEGMENT
_p_szLShareKey$ = 8					; size = 4
_p_szLShareValue$ = 12					; size = 4
?OnLSharedDataChange@CChartAddInBase134661@@MAEXPBD0@Z PROC ; CChartAddInBase134661::OnLSharedDataChange, COMDAT
; _this$ = ecx

; 82   : 	virtual void	OnLSharedDataChange( const char *p_szLShareKey, const char *p_szLShareValue)	{}

  00000	c2 08 00	 ret	 8
?OnLSharedDataChange@CChartAddInBase134661@@MAEXPBD0@Z ENDP ; CChartAddInBase134661::OnLSharedDataChange
_TEXT	ENDS
; Function compile flags: /Ogtp
; File D:\git\src\IBK\IBK_DRFN\ProjSrc\SrcChartEx\ChartAddIn\ChartDesignPropertyAddIn\Include_AddIn_134661\I134661\_ChartAddInBase.h
;	COMDAT ?OnGSharedDataChange@CChartAddInBase134661@@MAEXPBD0H@Z
_TEXT	SEGMENT
_p_szGShareKey$ = 8					; size = 4
_p_szGShareValue$ = 12					; size = 4
_p_bStartShare$ = 16					; size = 4
?OnGSharedDataChange@CChartAddInBase134661@@MAEXPBD0H@Z PROC ; CChartAddInBase134661::OnGSharedDataChange, COMDAT
; _this$ = ecx

; 80   : 	virtual void	OnGSharedDataChange( const char *p_szGShareKey, const char *p_szGShareValue, BOOL p_bStartShare)	{}

  00000	c2 0c 00	 ret	 12			; 0000000cH
?OnGSharedDataChange@CChartAddInBase134661@@MAEXPBD0H@Z ENDP ; CChartAddInBase134661::OnGSharedDataChange
_TEXT	ENDS
; Function compile flags: /Ogtp
; File D:\git\src\IBK\IBK_DRFN\ProjSrc\SrcChartEx\ChartAddIn\ChartDesignPropertyAddIn\Include_AddIn_134661\I134661\_ChartAddInBase.h
;	COMDAT ?GetGlobalAddInEventType@CChartAddInBase134661@@MBE?AW4EAddInEventType@IAddInDllBase@@J@Z
_TEXT	SEGMENT
_p_eAddInEventType$ = 8					; size = 4
?GetGlobalAddInEventType@CChartAddInBase134661@@MBE?AW4EAddInEventType@IAddInDllBase@@J@Z PROC ; CChartAddInBase134661::GetGlobalAddInEventType, COMDAT
; _this$ = ecx

; 67   : 	virtual IAddInDllBase::EAddInEventType	GetGlobalAddInEventType( const long p_eAddInEventType) const	{	return IAddInDllBase::EAddInEventType::EAE_NOT_DEFINED;	}

  00000	83 c8 ff	 or	 eax, -1
  00003	c2 04 00	 ret	 4
?GetGlobalAddInEventType@CChartAddInBase134661@@MBE?AW4EAddInEventType@IAddInDllBase@@J@Z ENDP ; CChartAddInBase134661::GetGlobalAddInEventType
_TEXT	ENDS
; Function compile flags: /Ogtp
; File D:\git\src\IBK\IBK_DRFN\ProjSrc\SrcChartEx\ChartAddIn\ChartDesignPropertyAddIn\Include_AddIn_134661\I134661\_ChartAddInBase.h
;	COMDAT ?InvokeAddInStr@CChartAddInBase134661@@MAEHPBD0@Z
_TEXT	SEGMENT
_p_szCommandName$ = 8					; size = 4
_p_szData$ = 12						; size = 4
?InvokeAddInStr@CChartAddInBase134661@@MAEHPBD0@Z PROC	; CChartAddInBase134661::InvokeAddInStr, COMDAT
; _this$ = ecx

; 60   : 	virtual BOOL	InvokeAddInStr( LPCTSTR p_szCommandName, LPCTSTR p_szData)	{	return FALSE;	}	// (2005/9/2 - Seung-Won, Bae) for String Data

  00000	33 c0		 xor	 eax, eax
  00002	c2 08 00	 ret	 8
?InvokeAddInStr@CChartAddInBase134661@@MAEHPBD0@Z ENDP	; CChartAddInBase134661::InvokeAddInStr
_TEXT	ENDS
; Function compile flags: /Ogtp
; File D:\git\src\IBK\IBK_DRFN\ProjSrc\SrcChartEx\ChartAddIn\ChartDesignPropertyAddIn\Include_AddIn_134661\I134661\_ChartAddInBase.h
;	COMDAT ?InvokeAddIn@CChartAddInBase134661@@MAEHHJ@Z
_TEXT	SEGMENT
_p_nCommandType$ = 8					; size = 4
_p_lData$ = 12						; size = 4
?InvokeAddIn@CChartAddInBase134661@@MAEHHJ@Z PROC	; CChartAddInBase134661::InvokeAddIn, COMDAT
; _this$ = ecx

; 59   : 	virtual BOOL	InvokeAddIn( int p_nCommandType, long p_lData)	{	return FALSE;	}

  00000	33 c0		 xor	 eax, eax
  00002	c2 08 00	 ret	 8
?InvokeAddIn@CChartAddInBase134661@@MAEHHJ@Z ENDP	; CChartAddInBase134661::InvokeAddIn
_TEXT	ENDS
; Function compile flags: /Ogtp
; File D:\git\src\IBK\IBK_DRFN\ProjSrc\SrcChartEx\ChartAddIn\ChartDesignPropertyAddIn\Include_AddIn_134661\I134661\_ChartAddInBase.h
;	COMDAT ?GetAddInCustomInterface@CChartAddInBase134661@@MAEPAUIUnknown@@XZ
_TEXT	SEGMENT
?GetAddInCustomInterface@CChartAddInBase134661@@MAEPAUIUnknown@@XZ PROC ; CChartAddInBase134661::GetAddInCustomInterface, COMDAT
; _this$ = ecx

; 55   : 	virtual IUnknown *	GetAddInCustomInterface( void)				{	return NULL;	}

  00000	33 c0		 xor	 eax, eax
  00002	c3		 ret	 0
?GetAddInCustomInterface@CChartAddInBase134661@@MAEPAUIUnknown@@XZ ENDP ; CChartAddInBase134661::GetAddInCustomInterface
_TEXT	ENDS
; Function compile flags: /Ogtp
; File D:\git\src\IBK\IBK_DRFN\ProjSrc\SrcChartEx\ChartAddIn\ChartDesignPropertyAddIn\Include_AddIn_134661\I134661\_ChartAddInBase.h
;	COMDAT ?QueryInterface@CChartAddInBase134661@@MAGJABU_GUID@@PAPAX@Z
_TEXT	SEGMENT
_this$ = 8						; size = 4
_iid$ = 12						; size = 4
_ppvObject$ = 16					; size = 4
?QueryInterface@CChartAddInBase134661@@MAGJABU_GUID@@PAPAX@Z PROC ; CChartAddInBase134661::QueryInterface, COMDAT

; 28   : 	_IWRAPPER_IUNKNOWN_INTERFACE()

  00000	b8 02 40 00 80	 mov	 eax, -2147467262	; 80004002H
  00005	c2 0c 00	 ret	 12			; 0000000cH
?QueryInterface@CChartAddInBase134661@@MAGJABU_GUID@@PAPAX@Z ENDP ; CChartAddInBase134661::QueryInterface
_TEXT	ENDS
; Function compile flags: /Ogtp
; File D:\git\src\IBK\IBK_DRFN\ProjSrc\SrcChartEx\ChartAddIn\ChartDesignPropertyAddIn\Include_AddIn_134661\I134661\_ChartAddInBase.h
;	COMDAT ?Release@CChartAddInBase134661@@MAGKXZ
_TEXT	SEGMENT
_this$ = 8						; size = 4
?Release@CChartAddInBase134661@@MAGKXZ PROC		; CChartAddInBase134661::Release, COMDAT

; 28   : 	_IWRAPPER_IUNKNOWN_INTERFACE()

  00000	55		 push	 ebp
  00001	8b ec		 mov	 ebp, esp
  00003	5d		 pop	 ebp
  00004	e9 00 00 00 00	 jmp	 ?Release@CIWUnknown@@MAGKXZ ; CIWUnknown::Release
?Release@CChartAddInBase134661@@MAGKXZ ENDP		; CChartAddInBase134661::Release
_TEXT	ENDS
; Function compile flags: /Ogtp
; File D:\git\src\IBK\IBK_DRFN\ProjSrc\SrcChartEx\ChartAddIn\ChartDesignPropertyAddIn\Include_AddIn_134661\I134661\_ChartAddInBase.h
;	COMDAT ?AddRef@CChartAddInBase134661@@MAGKXZ
_TEXT	SEGMENT
_this$ = 8						; size = 4
?AddRef@CChartAddInBase134661@@MAGKXZ PROC		; CChartAddInBase134661::AddRef, COMDAT

; 28   : 	_IWRAPPER_IUNKNOWN_INTERFACE()

  00000	55		 push	 ebp
  00001	8b ec		 mov	 ebp, esp
  00003	5d		 pop	 ebp
  00004	e9 00 00 00 00	 jmp	 ?AddRef@CIWUnknown@@MAGKXZ ; CIWUnknown::AddRef
?AddRef@CChartAddInBase134661@@MAGKXZ ENDP		; CChartAddInBase134661::AddRef
_TEXT	ENDS
; Function compile flags: /Ogtp
; File D:\git\src\IBK\IBK_DRFN\ProjSrc\SrcChartEx\ChartAddIn\ChartDesignPropertyAddIn\Include_AddIn_134661\_IWUnknown.h
;	COMDAT ?PreDestruct@CIWUnknown@@MAEXXZ
_TEXT	SEGMENT
?PreDestruct@CIWUnknown@@MAEXXZ PROC			; CIWUnknown::PreDestruct, COMDAT
; _this$ = ecx

; 48   : 	virtual void	PreDestruct( void)		{}

  00000	c2 00 00	 ret	 0
?PreDestruct@CIWUnknown@@MAEXXZ ENDP			; CIWUnknown::PreDestruct
_TEXT	ENDS
; Function compile flags: /Ogtp
; File D:\git\src\IBK\IBK_DRFN\ProjSrc\SrcChartEx\ChartAddIn\ChartDesignPropertyAddIn\Include_AddIn_134661\_IWUnknown.h
;	COMDAT ?PreDestructX@CIWUnknown@@MAEXXZ
_TEXT	SEGMENT
?PreDestructX@CIWUnknown@@MAEXXZ PROC			; CIWUnknown::PreDestructX, COMDAT
; _this$ = ecx

; 47   : 	virtual void	PreDestructX( void)		{}

  00000	c2 00 00	 ret	 0
?PreDestructX@CIWUnknown@@MAEXXZ ENDP			; CIWUnknown::PreDestructX
_TEXT	ENDS
; Function compile flags: /Ogtp
; File D:\git\src\IBK\IBK_DRFN\ProjSrc\SrcChartEx\ChartAddIn\ChartDesignPropertyAddIn\Include_AddIn_134661\_IWUnknown.h
;	COMDAT ?PostConstruct@CIWUnknown@@MAEXXZ
_TEXT	SEGMENT
?PostConstruct@CIWUnknown@@MAEXXZ PROC			; CIWUnknown::PostConstruct, COMDAT
; _this$ = ecx

; 46   : 	virtual void	PostConstruct( void)	{}

  00000	c2 00 00	 ret	 0
?PostConstruct@CIWUnknown@@MAEXXZ ENDP			; CIWUnknown::PostConstruct
_TEXT	ENDS
; Function compile flags: /Ogtp
; File D:\git\src\IBK\IBK_DRFN\ProjSrc\SrcChartEx\ChartAddIn\ChartDesignPropertyAddIn\Include_Chart\Dll_Load\IMetaTable.h
; File C:\Program Files (x86)\Microsoft Visual Studio\2019\Community\VC\Tools\MSVC\14.29.30133\atlmfc\include\afxwin1.inl
; File D:\git\src\IBK\IBK_DRFN\ProjSrc\SrcChartEx\ChartAddIn\ChartDesignPropertyAddIn\Include_Chart\Dll_Load\IMetaTable.h
;	COMDAT ??1CMultiLanguageResourceSetter@@QAE@XZ
_TEXT	SEGMENT
__$EHRec$ = -12						; size = 12
??1CMultiLanguageResourceSetter@@QAE@XZ PROC		; CMultiLanguageResourceSetter::~CMultiLanguageResourceSetter, COMDAT
; _this$ = ecx

; 1036 : 	{

  00000	55		 push	 ebp
  00001	8b ec		 mov	 ebp, esp
  00003	6a ff		 push	 -1
  00005	68 00 00 00 00	 push	 __ehhandler$??1CMultiLanguageResourceSetter@@QAE@XZ
  0000a	64 a1 00 00 00
	00		 mov	 eax, DWORD PTR fs:0
  00010	50		 push	 eax
  00011	56		 push	 esi
  00012	a1 00 00 00 00	 mov	 eax, DWORD PTR ___security_cookie
  00017	33 c5		 xor	 eax, ebp
  00019	50		 push	 eax
  0001a	8d 45 f4	 lea	 eax, DWORD PTR __$EHRec$[ebp]
  0001d	64 a3 00 00 00
	00		 mov	 DWORD PTR fs:0, eax

; 1037 : 		AfxSetResourceHandle( m_hInstance);

  00023	8b 31		 mov	 esi, DWORD PTR [ecx]
; File C:\Program Files (x86)\Microsoft Visual Studio\2019\Community\VC\Tools\MSVC\14.29.30133\atlmfc\include\afxwin1.inl

; 27   : 	{ ASSERT(hInstResource != NULL); afxCurrentResourceHandle = hInstResource; }

  00025	e8 00 00 00 00	 call	 ?AfxGetModuleState@@YGPAVAFX_MODULE_STATE@@XZ ; AfxGetModuleState
  0002a	89 70 0c	 mov	 DWORD PTR [eax+12], esi
; File D:\git\src\IBK\IBK_DRFN\ProjSrc\SrcChartEx\ChartAddIn\ChartDesignPropertyAddIn\Include_Chart\Dll_Load\IMetaTable.h

; 1038 : 	}

  0002d	8b 4d f4	 mov	 ecx, DWORD PTR __$EHRec$[ebp]
  00030	64 89 0d 00 00
	00 00		 mov	 DWORD PTR fs:0, ecx
  00037	59		 pop	 ecx
  00038	5e		 pop	 esi
  00039	8b e5		 mov	 esp, ebp
  0003b	5d		 pop	 ebp
  0003c	c3		 ret	 0
  0003d	cc		 int	 3
  0003e	cc		 int	 3
  0003f	cc		 int	 3
  00040	cc		 int	 3
  00041	cc		 int	 3
_TEXT	ENDS
;	COMDAT text$x
text$x	SEGMENT
__ehhandler$??1CMultiLanguageResourceSetter@@QAE@XZ:
  00000	90		 npad	 1
  00001	90		 npad	 1
  00002	8b 54 24 08	 mov	 edx, DWORD PTR [esp+8]
  00006	8d 42 0c	 lea	 eax, DWORD PTR [edx+12]
  00009	8b 4a f8	 mov	 ecx, DWORD PTR [edx-8]
  0000c	33 c8		 xor	 ecx, eax
  0000e	e8 00 00 00 00	 call	 @__security_check_cookie@4
  00013	b8 00 00 00 00	 mov	 eax, OFFSET __ehfuncinfo$??1CMultiLanguageResourceSetter@@QAE@XZ
  00018	e9 00 00 00 00	 jmp	 ___CxxFrameHandler3
text$x	ENDS
??1CMultiLanguageResourceSetter@@QAE@XZ ENDP		; CMultiLanguageResourceSetter::~CMultiLanguageResourceSetter
; Function compile flags: /Ogtp
; File D:\git\src\IBK\IBK_DRFN\ProjSrc\SrcChartEx\ChartAddIn\ChartDesignPropertyAddIn\Include_Chart\Dll_Load\IMetaTable.h
;	COMDAT ?LoadResourceDLL@IMetaTable@@QAEPAUHINSTANCE__@@PAUHWND__@@PAU2@@Z
_TEXT	SEGMENT
_p1$ = 8						; size = 4
_p2$ = 12						; size = 4
?LoadResourceDLL@IMetaTable@@QAEPAUHINSTANCE__@@PAUHWND__@@PAU2@@Z PROC ; IMetaTable::LoadResourceDLL, COMDAT
; _this$ = ecx

; 936  : 	DECLARE_FUNCTION2(	LoadResourceDLL,				HMODULE, AfxGetStaticModuleState()->m_hCurrentInstanceHandle, HWND, HMODULE);

  00000	55		 push	 ebp
  00001	8b ec		 mov	 ebp, esp
  00003	56		 push	 esi
  00004	8b f1		 mov	 esi, ecx
  00006	8b 46 04	 mov	 eax, DWORD PTR [esi+4]
  00009	85 c0		 test	 eax, eax
  0000b	74 4d		 je	 SHORT $LN4@LoadResour
  0000d	57		 push	 edi
  0000e	bf 80 0d 00 00	 mov	 edi, 3456		; 00000d80H
  00013	66 3b be 94 00
	00 00		 cmp	 di, WORD PTR [esi+148]
  0001a	74 23		 je	 SHORT $LN3@LoadResour
  0001c	68 00 00 00 00	 push	 OFFSET ??_C@_0BA@ENJOCHIO@LoadResourceDLL@
  00021	50		 push	 eax
  00022	c7 86 90 00 00
	00 00 00 00 00	 mov	 DWORD PTR [esi+144], 0
  0002c	ff 15 00 00 00
	00		 call	 DWORD PTR __imp__GetProcAddress@8
  00032	89 86 90 00 00
	00		 mov	 DWORD PTR [esi+144], eax
  00038	66 89 be 94 00
	00 00		 mov	 WORD PTR [esi+148], di
$LN3@LoadResour:
  0003f	8b 86 90 00 00
	00		 mov	 eax, DWORD PTR [esi+144]
  00045	5f		 pop	 edi
  00046	85 c0		 test	 eax, eax
  00048	74 10		 je	 SHORT $LN4@LoadResour
  0004a	ff 75 0c	 push	 DWORD PTR _p2$[ebp]
  0004d	ff 75 08	 push	 DWORD PTR _p1$[ebp]
  00050	ff d0		 call	 eax
  00052	83 c4 08	 add	 esp, 8
  00055	5e		 pop	 esi
  00056	5d		 pop	 ebp
  00057	c2 08 00	 ret	 8
$LN4@LoadResour:
  0005a	e8 00 00 00 00	 call	 ?AfxGetStaticModuleState@@YGPAVAFX_MODULE_STATE@@XZ ; AfxGetStaticModuleState
  0005f	5e		 pop	 esi
  00060	8b 40 08	 mov	 eax, DWORD PTR [eax+8]
  00063	5d		 pop	 ebp
  00064	c2 08 00	 ret	 8
?LoadResourceDLL@IMetaTable@@QAEPAUHINSTANCE__@@PAUHWND__@@PAU2@@Z ENDP ; IMetaTable::LoadResourceDLL
_TEXT	ENDS
; Function compile flags: /Ogtp
; File D:\git\src\IBK\IBK_DRFN\ProjSrc\SrcChartEx\ChartAddIn\ChartDesignPropertyAddIn\Include_Chart\Dll_Load\IMetaTable.h
;	COMDAT ?GetLocalLanguageTable@IMetaTable@@IAEPBDPAUHWND__@@@Z
_TEXT	SEGMENT
_p1$ = 8						; size = 4
?GetLocalLanguageTable@IMetaTable@@IAEPBDPAUHWND__@@@Z PROC ; IMetaTable::GetLocalLanguageTable, COMDAT
; _this$ = ecx

; 919  : 	DECLARE_FUNCTION1(	GetLocalLanguageTable,	const char *, NULL, HWND);

  00000	55		 push	 ebp
  00001	8b ec		 mov	 ebp, esp
  00003	56		 push	 esi
  00004	8b f1		 mov	 esi, ecx
  00006	8b 46 04	 mov	 eax, DWORD PTR [esi+4]
  00009	85 c0		 test	 eax, eax
  0000b	74 3b		 je	 SHORT $LN4@GetLocalLa
  0000d	57		 push	 edi
  0000e	bf 80 0d 00 00	 mov	 edi, 3456		; 00000d80H
  00013	66 3b 7e 40	 cmp	 di, WORD PTR [esi+64]
  00017	74 1a		 je	 SHORT $LN3@GetLocalLa
  00019	68 00 00 00 00	 push	 OFFSET ??_C@_0BG@DINEKOFK@GetLocalLanguageTable@
  0001e	50		 push	 eax
  0001f	c7 46 3c 00 00
	00 00		 mov	 DWORD PTR [esi+60], 0
  00026	ff 15 00 00 00
	00		 call	 DWORD PTR __imp__GetProcAddress@8
  0002c	89 46 3c	 mov	 DWORD PTR [esi+60], eax
  0002f	66 89 7e 40	 mov	 WORD PTR [esi+64], di
$LN3@GetLocalLa:
  00033	8b 46 3c	 mov	 eax, DWORD PTR [esi+60]
  00036	5f		 pop	 edi
  00037	85 c0		 test	 eax, eax
  00039	74 0d		 je	 SHORT $LN4@GetLocalLa
  0003b	ff 75 08	 push	 DWORD PTR _p1$[ebp]
  0003e	ff d0		 call	 eax
  00040	83 c4 04	 add	 esp, 4
  00043	5e		 pop	 esi
  00044	5d		 pop	 ebp
  00045	c2 04 00	 ret	 4
$LN4@GetLocalLa:
  00048	33 c0		 xor	 eax, eax
  0004a	5e		 pop	 esi
  0004b	5d		 pop	 ebp
  0004c	c2 04 00	 ret	 4
?GetLocalLanguageTable@IMetaTable@@IAEPBDPAUHWND__@@@Z ENDP ; IMetaTable::GetLocalLanguageTable
_TEXT	ENDS
; Function compile flags: /Ogtp
; File C:\Program Files (x86)\Microsoft Visual Studio\2019\Community\VC\Tools\MSVC\14.29.30133\atlmfc\include\afxwin2.inl
;	COMDAT ?Create@CDialog@@UAEHIPAVCWnd@@@Z
_TEXT	SEGMENT
_nIDTemplate$ = 8					; size = 4
_pParentWnd$ = 12					; size = 4
?Create@CDialog@@UAEHIPAVCWnd@@@Z PROC			; CDialog::Create, COMDAT
; _this$ = ecx

; 585  : 	{ return CDialog::Create(ATL_MAKEINTRESOURCE(nIDTemplate), pParentWnd); }

  00000	55		 push	 ebp
  00001	8b ec		 mov	 ebp, esp
  00003	0f b7 45 08	 movzx	 eax, WORD PTR _nIDTemplate$[ebp]
  00007	89 45 08	 mov	 DWORD PTR _nIDTemplate$[ebp], eax
  0000a	5d		 pop	 ebp
  0000b	e9 00 00 00 00	 jmp	 ?Create@CDialog@@UAEHPBDPAVCWnd@@@Z ; CDialog::Create
?Create@CDialog@@UAEHIPAVCWnd@@@Z ENDP			; CDialog::Create
_TEXT	ENDS
; Function compile flags: /Ogtp
; File C:\Program Files (x86)\Microsoft Visual Studio\2019\Community\VC\Tools\MSVC\14.29.30133\atlmfc\include\afxwin1.inl
; File C:\Program Files (x86)\Microsoft Visual Studio\2019\Community\VC\Tools\MSVC\14.29.30133\atlmfc\include\afx.inl
;	COMDAT ??_GCMenu@@UAEPAXI@Z
_TEXT	SEGMENT
__$EHRec$ = -12						; size = 12
___flags$ = 8						; size = 4
??_GCMenu@@UAEPAXI@Z PROC				; CMenu::`scalar deleting destructor', COMDAT
; _this$ = ecx
  00000	55		 push	 ebp
  00001	8b ec		 mov	 ebp, esp
  00003	6a ff		 push	 -1
  00005	68 00 00 00 00	 push	 __ehhandler$??_GCMenu@@UAEPAXI@Z
  0000a	64 a1 00 00 00
	00		 mov	 eax, DWORD PTR fs:0
  00010	50		 push	 eax
  00011	56		 push	 esi
  00012	a1 00 00 00 00	 mov	 eax, DWORD PTR ___security_cookie
  00017	33 c5		 xor	 eax, ebp
  00019	50		 push	 eax
  0001a	8d 45 f4	 lea	 eax, DWORD PTR __$EHRec$[ebp]
  0001d	64 a3 00 00 00
	00		 mov	 DWORD PTR fs:0, eax
  00023	8b f1		 mov	 esi, ecx
; File C:\Program Files (x86)\Microsoft Visual Studio\2019\Community\VC\Tools\MSVC\14.29.30133\atlmfc\include\afxwin1.inl

; 905  : 	{ DestroyMenu(); }

  00025	c7 45 fc 00 00
	00 00		 mov	 DWORD PTR __$EHRec$[ebp+8], 0
  0002c	c7 06 00 00 00
	00		 mov	 DWORD PTR [esi], OFFSET ??_7CMenu@@6B@
  00032	e8 00 00 00 00	 call	 ?DestroyMenu@CMenu@@QAEHXZ ; CMenu::DestroyMenu
  00037	8b 45 08	 mov	 eax, DWORD PTR ___flags$[ebp]
  0003a	a8 01		 test	 al, 1
  0003c	74 2c		 je	 SHORT $LN12@scalar
  0003e	a8 04		 test	 al, 4
  00040	75 1d		 jne	 SHORT $LN3@scalar
; File C:\Program Files (x86)\Microsoft Visual Studio\2019\Community\VC\Tools\MSVC\14.29.30133\atlmfc\include\afx.inl

; 112  : 	{ ::operator delete(p); }

  00042	56		 push	 esi
  00043	e8 00 00 00 00	 call	 ??3@YAXPAX@Z		; operator delete
  00048	83 c4 04	 add	 esp, 4
  0004b	8b c6		 mov	 eax, esi
  0004d	8b 4d f4	 mov	 ecx, DWORD PTR __$EHRec$[ebp]
  00050	64 89 0d 00 00
	00 00		 mov	 DWORD PTR fs:0, ecx
  00057	59		 pop	 ecx
  00058	5e		 pop	 esi
  00059	8b e5		 mov	 esp, ebp
  0005b	5d		 pop	 ebp
  0005c	c2 04 00	 ret	 4
$LN3@scalar:
  0005f	6a 08		 push	 8
  00061	56		 push	 esi
  00062	e8 00 00 00 00	 call	 ?__global_delete@@YAXPAXI@Z ; __global_delete
  00067	83 c4 08	 add	 esp, 8
$LN12@scalar:
  0006a	8b c6		 mov	 eax, esi
  0006c	8b 4d f4	 mov	 ecx, DWORD PTR __$EHRec$[ebp]
  0006f	64 89 0d 00 00
	00 00		 mov	 DWORD PTR fs:0, ecx
  00076	59		 pop	 ecx
  00077	5e		 pop	 esi
  00078	8b e5		 mov	 esp, ebp
  0007a	5d		 pop	 ebp
  0007b	c2 04 00	 ret	 4
  0007e	cc		 int	 3
  0007f	cc		 int	 3
  00080	cc		 int	 3
  00081	cc		 int	 3
  00082	cc		 int	 3
_TEXT	ENDS
;	COMDAT text$x
text$x	SEGMENT
__ehhandler$??_GCMenu@@UAEPAXI@Z:
  00000	90		 npad	 1
  00001	90		 npad	 1
  00002	8b 54 24 08	 mov	 edx, DWORD PTR [esp+8]
  00006	8d 42 0c	 lea	 eax, DWORD PTR [edx+12]
  00009	8b 4a f8	 mov	 ecx, DWORD PTR [edx-8]
  0000c	33 c8		 xor	 ecx, eax
  0000e	e8 00 00 00 00	 call	 @__security_check_cookie@4
  00013	b8 00 00 00 00	 mov	 eax, OFFSET __ehfuncinfo$??_GCMenu@@UAEPAXI@Z
  00018	e9 00 00 00 00	 jmp	 ___CxxFrameHandler3
text$x	ENDS
??_GCMenu@@UAEPAXI@Z ENDP				; CMenu::`scalar deleting destructor'
; Function compile flags: /Ogtp
; File C:\Program Files (x86)\Microsoft Visual Studio\2019\Community\VC\Tools\MSVC\14.29.30133\atlmfc\include\afxwin1.inl
;	COMDAT ??1CMenu@@UAE@XZ
_TEXT	SEGMENT
__$EHRec$ = -12						; size = 12
??1CMenu@@UAE@XZ PROC					; CMenu::~CMenu, COMDAT
; _this$ = ecx

; 905  : 	{ DestroyMenu(); }

  00000	55		 push	 ebp
  00001	8b ec		 mov	 ebp, esp
  00003	6a ff		 push	 -1
  00005	68 00 00 00 00	 push	 __ehhandler$??1CMenu@@UAE@XZ
  0000a	64 a1 00 00 00
	00		 mov	 eax, DWORD PTR fs:0
  00010	50		 push	 eax
  00011	a1 00 00 00 00	 mov	 eax, DWORD PTR ___security_cookie
  00016	33 c5		 xor	 eax, ebp
  00018	50		 push	 eax
  00019	8d 45 f4	 lea	 eax, DWORD PTR __$EHRec$[ebp]
  0001c	64 a3 00 00 00
	00		 mov	 DWORD PTR fs:0, eax
  00022	c7 01 00 00 00
	00		 mov	 DWORD PTR [ecx], OFFSET ??_7CMenu@@6B@
  00028	e8 00 00 00 00	 call	 ?DestroyMenu@CMenu@@QAEHXZ ; CMenu::DestroyMenu
  0002d	8b 4d f4	 mov	 ecx, DWORD PTR __$EHRec$[ebp]
  00030	64 89 0d 00 00
	00 00		 mov	 DWORD PTR fs:0, ecx
  00037	59		 pop	 ecx
  00038	8b e5		 mov	 esp, ebp
  0003a	5d		 pop	 ebp
  0003b	c3		 ret	 0
  0003c	cc		 int	 3
  0003d	cc		 int	 3
  0003e	cc		 int	 3
  0003f	cc		 int	 3
  00040	cc		 int	 3
_TEXT	ENDS
;	COMDAT text$x
text$x	SEGMENT
__ehhandler$??1CMenu@@UAE@XZ:
  00000	90		 npad	 1
  00001	90		 npad	 1
  00002	8b 54 24 08	 mov	 edx, DWORD PTR [esp+8]
  00006	8d 42 0c	 lea	 eax, DWORD PTR [edx+12]
  00009	8b 4a fc	 mov	 ecx, DWORD PTR [edx-4]
  0000c	33 c8		 xor	 ecx, eax
  0000e	e8 00 00 00 00	 call	 @__security_check_cookie@4
  00013	b8 00 00 00 00	 mov	 eax, OFFSET __ehfuncinfo$??1CMenu@@UAE@XZ
  00018	e9 00 00 00 00	 jmp	 ___CxxFrameHandler3
text$x	ENDS
??1CMenu@@UAE@XZ ENDP					; CMenu::~CMenu
; Function compile flags: /Ogtp
; File C:\Program Files (x86)\Microsoft Visual Studio\2019\Community\VC\Tools\MSVC\14.29.30133\atlmfc\include\afx.inl
;	COMDAT ?Dump@CObject@@UBEXAAVCDumpContext@@@Z
_TEXT	SEGMENT
___formal$ = 8						; size = 4
?Dump@CObject@@UBEXAAVCDumpContext@@@Z PROC		; CObject::Dump, COMDAT
; _this$ = ecx

; 122  : 	{ /* no dumping in release builds */ }

  00000	c2 04 00	 ret	 4
?Dump@CObject@@UBEXAAVCDumpContext@@@Z ENDP		; CObject::Dump
_TEXT	ENDS
; Function compile flags: /Ogtp
; File C:\Program Files (x86)\Microsoft Visual Studio\2019\Community\VC\Tools\MSVC\14.29.30133\atlmfc\include\afx.inl
;	COMDAT ?AssertValid@CObject@@UBEXXZ
_TEXT	SEGMENT
?AssertValid@CObject@@UBEXXZ PROC			; CObject::AssertValid, COMDAT
; _this$ = ecx

; 120  : 	{ /* no asserts in release builds */ }

  00000	c2 00 00	 ret	 0
?AssertValid@CObject@@UBEXXZ ENDP			; CObject::AssertValid
_TEXT	ENDS
; Function compile flags: /Ogtp
; File C:\Program Files (x86)\Microsoft Visual Studio\2019\Community\VC\Tools\MSVC\14.29.30133\atlmfc\include\afx.inl
;	COMDAT ?Serialize@CObject@@UAEXAAVCArchive@@@Z
_TEXT	SEGMENT
___formal$ = 8						; size = 4
?Serialize@CObject@@UAEXAAVCArchive@@@Z PROC		; CObject::Serialize, COMDAT
; _this$ = ecx

; 106  : 	{ /* CObject does not serialize anything by default */ }

  00000	c2 04 00	 ret	 4
?Serialize@CObject@@UAEXAAVCArchive@@@Z ENDP		; CObject::Serialize
_TEXT	ENDS
; Function compile flags: /Ogtp
; File C:\Program Files (x86)\Microsoft Visual Studio\2019\Community\VC\Tools\MSVC\14.29.30133\atlmfc\include\afx.inl
;	COMDAT ??1CObject@@UAE@XZ
_TEXT	SEGMENT
??1CObject@@UAE@XZ PROC					; CObject::~CObject, COMDAT
; _this$ = ecx

; 104  : 	{ }

  00000	c2 00 00	 ret	 0
??1CObject@@UAE@XZ ENDP					; CObject::~CObject
_TEXT	ENDS
; Function compile flags: /Ogtp
; File D:\git\src\IBK\IBK_DRFN\ProjSrc\SrcChartEx\ChartAddIn\ChartDesignPropertyAddIn\ChartDesignPropertyAddIn\ChartDesignPropertyAddInImp.cpp
;	COMDAT ?__empty_global_delete@@YAXPAXI@Z
_TEXT	SEGMENT
___formal$ = 8						; size = 4
___formal$ = 12						; size = 4
?__empty_global_delete@@YAXPAXI@Z PROC			; __empty_global_delete, COMDAT

  00000	c2 00 00	 ret	 0
?__empty_global_delete@@YAXPAXI@Z ENDP			; __empty_global_delete
_TEXT	ENDS
; Function compile flags: /Ogtp
; File D:\git\src\IBK\IBK_DRFN\ProjSrc\SrcChartEx\ChartAddIn\ChartDesignPropertyAddIn\ChartDesignPropertyAddIn\ChartDesignPropertyAddInImp.cpp
;	COMDAT ?__empty_global_delete@@YAXPAX@Z
_TEXT	SEGMENT
___formal$ = 8						; size = 4
?__empty_global_delete@@YAXPAX@Z PROC			; __empty_global_delete, COMDAT

  00000	c2 00 00	 ret	 0
?__empty_global_delete@@YAXPAX@Z ENDP			; __empty_global_delete
_TEXT	ENDS
END
