; Listing generated by Microsoft (R) Optimizing Compiler Version 19.29.30145.0 

	TITLE	D:\git\src\IBK\IBK_DRFN\#DRfn-CS\_Obj\ChartDesignPropertyAddIn\ChartLink.obj
	.686P
	.XMM
	include listing.inc
	.model	flat

INCLUDELIB MSVCRT
INCLUDELIB OLDNAMES

PUBLIC	?__empty_global_delete@@YAXPAX@Z		; __empty_global_delete
PUBLIC	?__empty_global_delete@@YAXPAXI@Z		; __empty_global_delete
PUBLIC	??0CChartLink@@QAE@PAV0@HPADPAUHWND__@@@Z	; CChartLink::CChartLink
PUBLIC	?InsertAfterTarget@CChartLink@@QAEXPAV1@@Z	; CChartLink::InsertAfterTarget
PUBLIC	?Cut@CChartLink@@QAEXXZ				; CChartLink::Cut
PUBLIC	?Delete@CChartLink@@QAEXXZ			; CChartLink::Delete
PUBLIC	?InsertChild@CChartLink@@QAEHPAV1@@Z		; CChartLink::InsertChild
PUBLIC	?Insert@CChartLink@@QAEHPAV1@@Z			; CChartLink::Insert
PUBLIC	?AddChild@CChartLink@@QAEHPAV1@@Z		; CChartLink::AddChild
PUBLIC	?Add@CChartLink@@QAEHPAV1@@Z			; CChartLink::Add
PUBLIC	?DeleteAll@CChartLink@@QAEHXZ			; CChartLink::DeleteAll
PUBLIC	?Find@CChartLink@@QAEPAV1@PAU_TREEITEM@@@Z	; CChartLink::Find
PUBLIC	??1CChartLink@@UAE@XZ				; CChartLink::~CChartLink
PUBLIC	?AutoScaleData@CChartLink@@AAEXABV?$CStringT@DV?$StrTraitMFC_DLL@DV?$ChTraitsCRT@D@ATL@@@@@ATL@@@Z ; CChartLink::AutoScaleData
PUBLIC	?SetOcxHwnd@CChartLink@@QAEXPAUHWND__@@@Z	; CChartLink::SetOcxHwnd
PUBLIC	??_GCChartLink@@UAEPAXI@Z			; CChartLink::`scalar deleting destructor'
PUBLIC	??_C@_00CNPNBAHC@@				; `string'
PUBLIC	??_7CChartLink@@6B@				; CChartLink::`vftable'
PUBLIC	??_C@_01LFCBOECM@?4@				; `string'
PUBLIC	??_C@_01JLIPDDHJ@?3@				; `string'
PUBLIC	??_C@_05PPLCEPDH@Block@				; `string'
PUBLIC	??_C@_0P@ONCIBKJN@Vertical?5Scale@		; `string'
PUBLIC	??_R4CChartLink@@6B@				; CChartLink::`RTTI Complete Object Locator'
PUBLIC	??_R0?AVCChartLink@@@8				; CChartLink `RTTI Type Descriptor'
PUBLIC	??_R3CChartLink@@8				; CChartLink::`RTTI Class Hierarchy Descriptor'
PUBLIC	??_R2CChartLink@@8				; CChartLink::`RTTI Base Class Array'
PUBLIC	??_R1A@?0A@EA@CChartLink@@8			; CChartLink::`RTTI Base Class Descriptor at (0,-1,0,64)'
EXTRN	??3@YAXPAXI@Z:PROC				; operator delete
EXTRN	___std_terminate:PROC
EXTRN	__imp_??0?$CStringT@DV?$StrTraitMFC_DLL@DV?$ChTraitsCRT@D@ATL@@@@@ATL@@QAE@XZ:PROC
EXTRN	__imp_??0?$CStringT@DV?$StrTraitMFC_DLL@DV?$ChTraitsCRT@D@ATL@@@@@ATL@@QAE@PBD@Z:PROC
EXTRN	__imp_??1?$CStringT@DV?$StrTraitMFC_DLL@DV?$ChTraitsCRT@D@ATL@@@@@ATL@@QAE@XZ:PROC
EXTRN	__imp_??4?$CStringT@DV?$StrTraitMFC_DLL@DV?$ChTraitsCRT@D@ATL@@@@@ATL@@QAEAAV01@PBD@Z:PROC
EXTRN	__imp_?Find@?$CStringT@DV?$StrTraitMFC_DLL@DV?$ChTraitsCRT@D@ATL@@@@@ATL@@QBEHPBDH@Z:PROC
EXTRN	??_ECChartLink@@UAEPAXI@Z:PROC			; CChartLink::`vector deleting destructor'
EXTRN	?GetLanguageText@IMetaTable@@QAEPBDPAUHWND__@@W4E_CODEPAGE@1@PBDH@Z:PROC ; IMetaTable::GetLanguageText
EXTRN	@__security_check_cookie@4:PROC
EXTRN	___CxxFrameHandler3:PROC
EXTRN	??_7type_info@@6B@:QWORD			; type_info::`vftable'
EXTRN	?g_iMetaTable@@3VIMetaTable@@A:BYTE		; g_iMetaTable
EXTRN	___security_cookie:DWORD
EXTRN	__fltused:DWORD
;	COMDAT ??_R1A@?0A@EA@CChartLink@@8
rdata$r	SEGMENT
??_R1A@?0A@EA@CChartLink@@8 DD FLAT:??_R0?AVCChartLink@@@8 ; CChartLink::`RTTI Base Class Descriptor at (0,-1,0,64)'
	DD	00H
	DD	00H
	DD	0ffffffffH
	DD	00H
	DD	040H
	DD	FLAT:??_R3CChartLink@@8
rdata$r	ENDS
;	COMDAT ??_R2CChartLink@@8
rdata$r	SEGMENT
??_R2CChartLink@@8 DD FLAT:??_R1A@?0A@EA@CChartLink@@8	; CChartLink::`RTTI Base Class Array'
rdata$r	ENDS
;	COMDAT ??_R3CChartLink@@8
rdata$r	SEGMENT
??_R3CChartLink@@8 DD 00H				; CChartLink::`RTTI Class Hierarchy Descriptor'
	DD	00H
	DD	01H
	DD	FLAT:??_R2CChartLink@@8
rdata$r	ENDS
;	COMDAT ??_R0?AVCChartLink@@@8
data$rs	SEGMENT
??_R0?AVCChartLink@@@8 DD FLAT:??_7type_info@@6B@	; CChartLink `RTTI Type Descriptor'
	DD	00H
	DB	'.?AVCChartLink@@', 00H
data$rs	ENDS
;	COMDAT ??_R4CChartLink@@6B@
rdata$r	SEGMENT
??_R4CChartLink@@6B@ DD 00H				; CChartLink::`RTTI Complete Object Locator'
	DD	00H
	DD	00H
	DD	FLAT:??_R0?AVCChartLink@@@8
	DD	FLAT:??_R3CChartLink@@8
rdata$r	ENDS
;	COMDAT ??_C@_0P@ONCIBKJN@Vertical?5Scale@
CONST	SEGMENT
??_C@_0P@ONCIBKJN@Vertical?5Scale@ DB 'Vertical Scale', 00H ; `string'
CONST	ENDS
;	COMDAT ??_C@_05PPLCEPDH@Block@
CONST	SEGMENT
??_C@_05PPLCEPDH@Block@ DB 'Block', 00H			; `string'
CONST	ENDS
;	COMDAT ??_C@_01JLIPDDHJ@?3@
CONST	SEGMENT
??_C@_01JLIPDDHJ@?3@ DB ':', 00H			; `string'
CONST	ENDS
;	COMDAT ??_C@_01LFCBOECM@?4@
CONST	SEGMENT
??_C@_01LFCBOECM@?4@ DB '.', 00H			; `string'
CONST	ENDS
;	COMDAT ??_7CChartLink@@6B@
CONST	SEGMENT
??_7CChartLink@@6B@ DD FLAT:??_R4CChartLink@@6B@	; CChartLink::`vftable'
	DD	FLAT:??_ECChartLink@@UAEPAXI@Z
CONST	ENDS
;	COMDAT ??_C@_00CNPNBAHC@@
CONST	SEGMENT
??_C@_00CNPNBAHC@@ DB 00H				; `string'
CONST	ENDS
;	COMDAT xdata$x
xdata$x	SEGMENT
__unwindtable$??_GCChartLink@@UAEPAXI@Z DD 0ffffffffH
	DD	FLAT:___std_terminate
__ehfuncinfo$??_GCChartLink@@UAEPAXI@Z DD 019930522H
	DD	01H
	DD	FLAT:__unwindtable$??_GCChartLink@@UAEPAXI@Z
	DD	2 DUP(00H)
	DD	2 DUP(00H)
	DD	00H
	DD	05H
xdata$x	ENDS
;	COMDAT xdata$x
xdata$x	SEGMENT
__ehfuncinfo$??1CChartLink@@UAE@XZ DD 019930522H
	DD	00H
	DD	00H
	DD	2 DUP(00H)
	DD	2 DUP(00H)
	DD	00H
	DD	05H
xdata$x	ENDS
;	COMDAT xdata$x
xdata$x	SEGMENT
__ehfuncinfo$??0CChartLink@@QAE@PAV0@HPADPAUHWND__@@@Z DD 019930522H
	DD	09H
	DD	FLAT:__unwindtable$??0CChartLink@@QAE@PAV0@HPADPAUHWND__@@@Z
	DD	2 DUP(00H)
	DD	2 DUP(00H)
	DD	00H
	DD	01H
__unwindtable$??0CChartLink@@QAE@PAV0@HPADPAUHWND__@@@Z DD 0ffffffffH
	DD	FLAT:__unwindfunclet$??0CChartLink@@QAE@PAV0@HPADPAUHWND__@@@Z$0
	DD	00H
	DD	FLAT:__unwindfunclet$??0CChartLink@@QAE@PAV0@HPADPAUHWND__@@@Z$1
	DD	01H
	DD	FLAT:__unwindfunclet$??0CChartLink@@QAE@PAV0@HPADPAUHWND__@@@Z$2
	DD	02H
	DD	FLAT:__unwindfunclet$??0CChartLink@@QAE@PAV0@HPADPAUHWND__@@@Z$3
	DD	03H
	DD	FLAT:__unwindfunclet$??0CChartLink@@QAE@PAV0@HPADPAUHWND__@@@Z$4
	DD	04H
	DD	FLAT:__unwindfunclet$??0CChartLink@@QAE@PAV0@HPADPAUHWND__@@@Z$5
	DD	05H
	DD	FLAT:__unwindfunclet$??0CChartLink@@QAE@PAV0@HPADPAUHWND__@@@Z$6
	DD	06H
	DD	FLAT:__unwindfunclet$??0CChartLink@@QAE@PAV0@HPADPAUHWND__@@@Z$7
	DD	07H
	DD	FLAT:__unwindfunclet$??0CChartLink@@QAE@PAV0@HPADPAUHWND__@@@Z$8
xdata$x	ENDS
; Function compile flags: /Ogtp
; File D:\git\src\IBK\IBK_DRFN\ProjSrc\SrcChartEx\ChartAddIn\ChartDesignPropertyAddIn\ChartDesignPropertyAddIn\ChartLink.cpp
;	COMDAT ??_GCChartLink@@UAEPAXI@Z
_TEXT	SEGMENT
__$EHRec$ = -12						; size = 12
___flags$ = 8						; size = 4
??_GCChartLink@@UAEPAXI@Z PROC				; CChartLink::`scalar deleting destructor', COMDAT
; _this$ = ecx
  00000	55		 push	 ebp
  00001	8b ec		 mov	 ebp, esp
  00003	6a ff		 push	 -1
  00005	68 00 00 00 00	 push	 __ehhandler$??_GCChartLink@@UAEPAXI@Z
  0000a	64 a1 00 00 00
	00		 mov	 eax, DWORD PTR fs:0
  00010	50		 push	 eax
  00011	56		 push	 esi
  00012	57		 push	 edi
  00013	a1 00 00 00 00	 mov	 eax, DWORD PTR ___security_cookie
  00018	33 c5		 xor	 eax, ebp
  0001a	50		 push	 eax
  0001b	8d 45 f4	 lea	 eax, DWORD PTR __$EHRec$[ebp]
  0001e	64 a3 00 00 00
	00		 mov	 DWORD PTR fs:0, eax
  00024	8b f1		 mov	 esi, ecx

; 77   : 	if(m_Child != NULL)

  00026	8b 7e 60	 mov	 edi, DWORD PTR [esi+96]
  00029	c7 45 fc 00 00
	00 00		 mov	 DWORD PTR __$EHRec$[ebp+8], 0
  00030	c7 06 00 00 00
	00		 mov	 DWORD PTR [esi], OFFSET ??_7CChartLink@@6B@
  00036	85 ff		 test	 edi, edi
  00038	74 29		 je	 SHORT $LN15@scalar

; 92   : 	if(m_Next != NULL)

  0003a	8b 4f 68	 mov	 ecx, DWORD PTR [edi+104]
  0003d	85 c9		 test	 ecx, ecx
  0003f	74 05		 je	 SHORT $LN12@scalar

; 93   : 		m_Next->DeleteAll();

  00041	e8 00 00 00 00	 call	 ?DeleteAll@CChartLink@@QAEHXZ ; CChartLink::DeleteAll
$LN12@scalar:

; 94   : 
; 95   : 	m_Next = NULL;
; 96   : 	if(m_Prev != NULL)

  00046	8b 47 64	 mov	 eax, DWORD PTR [edi+100]
  00049	c7 47 68 00 00
	00 00		 mov	 DWORD PTR [edi+104], 0
  00050	85 c0		 test	 eax, eax
  00052	74 07		 je	 SHORT $LN13@scalar

; 97   : 		m_Prev->m_Next = NULL;

  00054	c7 40 68 00 00
	00 00		 mov	 DWORD PTR [eax+104], 0
$LN13@scalar:

; 98   : 	delete this;

  0005b	8b 07		 mov	 eax, DWORD PTR [edi]
  0005d	8b cf		 mov	 ecx, edi
  0005f	6a 01		 push	 1
  00061	ff 10		 call	 DWORD PTR [eax]
$LN15@scalar:

; 79   : 	if(m_Next != NULL)

  00063	8b 4e 68	 mov	 ecx, DWORD PTR [esi+104]
  00066	85 c9		 test	 ecx, ecx
  00068	74 06		 je	 SHORT $LN6@scalar

; 80   : 		m_Next->m_Prev = m_Prev;

  0006a	8b 46 64	 mov	 eax, DWORD PTR [esi+100]
  0006d	89 41 64	 mov	 DWORD PTR [ecx+100], eax
$LN6@scalar:

; 81   : 	if(m_Prev != NULL)

  00070	8b 4e 64	 mov	 ecx, DWORD PTR [esi+100]
  00073	85 c9		 test	 ecx, ecx
  00075	74 06		 je	 SHORT $LN7@scalar

; 82   : 		m_Prev->m_Next = m_Next;

  00077	8b 46 68	 mov	 eax, DWORD PTR [esi+104]
  0007a	89 41 68	 mov	 DWORD PTR [ecx+104], eax
$LN7@scalar:

; 83   : }

  0007d	8d 4e 58	 lea	 ecx, DWORD PTR [esi+88]
  00080	ff 15 00 00 00
	00		 call	 DWORD PTR __imp_??1?$CStringT@DV?$StrTraitMFC_DLL@DV?$ChTraitsCRT@D@ATL@@@@@ATL@@QAE@XZ
  00086	8d 4e 3c	 lea	 ecx, DWORD PTR [esi+60]
  00089	ff 15 00 00 00
	00		 call	 DWORD PTR __imp_??1?$CStringT@DV?$StrTraitMFC_DLL@DV?$ChTraitsCRT@D@ATL@@@@@ATL@@QAE@XZ
  0008f	8d 4e 38	 lea	 ecx, DWORD PTR [esi+56]
  00092	ff 15 00 00 00
	00		 call	 DWORD PTR __imp_??1?$CStringT@DV?$StrTraitMFC_DLL@DV?$ChTraitsCRT@D@ATL@@@@@ATL@@QAE@XZ
  00098	8d 4e 28	 lea	 ecx, DWORD PTR [esi+40]
  0009b	ff 15 00 00 00
	00		 call	 DWORD PTR __imp_??1?$CStringT@DV?$StrTraitMFC_DLL@DV?$ChTraitsCRT@D@ATL@@@@@ATL@@QAE@XZ
  000a1	8d 4e 24	 lea	 ecx, DWORD PTR [esi+36]
  000a4	ff 15 00 00 00
	00		 call	 DWORD PTR __imp_??1?$CStringT@DV?$StrTraitMFC_DLL@DV?$ChTraitsCRT@D@ATL@@@@@ATL@@QAE@XZ
  000aa	8d 4e 18	 lea	 ecx, DWORD PTR [esi+24]
  000ad	ff 15 00 00 00
	00		 call	 DWORD PTR __imp_??1?$CStringT@DV?$StrTraitMFC_DLL@DV?$ChTraitsCRT@D@ATL@@@@@ATL@@QAE@XZ
  000b3	8d 4e 14	 lea	 ecx, DWORD PTR [esi+20]
  000b6	ff 15 00 00 00
	00		 call	 DWORD PTR __imp_??1?$CStringT@DV?$StrTraitMFC_DLL@DV?$ChTraitsCRT@D@ATL@@@@@ATL@@QAE@XZ
  000bc	8d 4e 0c	 lea	 ecx, DWORD PTR [esi+12]
  000bf	ff 15 00 00 00
	00		 call	 DWORD PTR __imp_??1?$CStringT@DV?$StrTraitMFC_DLL@DV?$ChTraitsCRT@D@ATL@@@@@ATL@@QAE@XZ
  000c5	f6 45 08 01	 test	 BYTE PTR ___flags$[ebp], 1
  000c9	74 0e		 je	 SHORT $LN17@scalar
  000cb	68 b0 00 00 00	 push	 176			; 000000b0H
  000d0	56		 push	 esi
  000d1	e8 00 00 00 00	 call	 ??3@YAXPAXI@Z		; operator delete
  000d6	83 c4 08	 add	 esp, 8
$LN17@scalar:
  000d9	8b c6		 mov	 eax, esi
  000db	8b 4d f4	 mov	 ecx, DWORD PTR __$EHRec$[ebp]
  000de	64 89 0d 00 00
	00 00		 mov	 DWORD PTR fs:0, ecx
  000e5	59		 pop	 ecx
  000e6	5f		 pop	 edi
  000e7	5e		 pop	 esi
  000e8	8b e5		 mov	 esp, ebp
  000ea	5d		 pop	 ebp
  000eb	c2 04 00	 ret	 4
  000ee	cc		 int	 3
  000ef	cc		 int	 3
  000f0	cc		 int	 3
  000f1	cc		 int	 3
  000f2	cc		 int	 3
_TEXT	ENDS
;	COMDAT text$x
text$x	SEGMENT
__ehhandler$??_GCChartLink@@UAEPAXI@Z:
  00000	90		 npad	 1
  00001	90		 npad	 1
  00002	8b 54 24 08	 mov	 edx, DWORD PTR [esp+8]
  00006	8d 42 0c	 lea	 eax, DWORD PTR [edx+12]
  00009	8b 4a f4	 mov	 ecx, DWORD PTR [edx-12]
  0000c	33 c8		 xor	 ecx, eax
  0000e	e8 00 00 00 00	 call	 @__security_check_cookie@4
  00013	b8 00 00 00 00	 mov	 eax, OFFSET __ehfuncinfo$??_GCChartLink@@UAEPAXI@Z
  00018	e9 00 00 00 00	 jmp	 ___CxxFrameHandler3
text$x	ENDS
??_GCChartLink@@UAEPAXI@Z ENDP				; CChartLink::`scalar deleting destructor'
; Function compile flags: /Ogtp
; File D:\git\src\IBK\IBK_DRFN\ProjSrc\SrcChartEx\ChartAddIn\ChartDesignPropertyAddIn\ChartDesignPropertyAddIn\ChartLink.cpp
;	COMDAT ?SetOcxHwnd@CChartLink@@QAEXPAUHWND__@@@Z
_TEXT	SEGMENT
_p_hOcxWnd$ = 8						; size = 4
?SetOcxHwnd@CChartLink@@QAEXPAUHWND__@@@Z PROC		; CChartLink::SetOcxHwnd, COMDAT
; _this$ = ecx

; 237  : {

  00000	55		 push	 ebp
  00001	8b ec		 mov	 ebp, esp

; 238  : 	m_hOcxWnd = p_hOcxWnd;

  00003	8b 45 08	 mov	 eax, DWORD PTR _p_hOcxWnd$[ebp]
  00006	89 81 a8 00 00
	00		 mov	 DWORD PTR [ecx+168], eax

; 239  : 	AutoScaleData( m_strName);

  0000c	8d 41 0c	 lea	 eax, DWORD PTR [ecx+12]
  0000f	89 45 08	 mov	 DWORD PTR _p_hOcxWnd$[ebp], eax

; 240  : }

  00012	5d		 pop	 ebp

; 239  : 	AutoScaleData( m_strName);

  00013	e9 00 00 00 00	 jmp	 ?AutoScaleData@CChartLink@@AAEXABV?$CStringT@DV?$StrTraitMFC_DLL@DV?$ChTraitsCRT@D@ATL@@@@@ATL@@@Z ; CChartLink::AutoScaleData
?SetOcxHwnd@CChartLink@@QAEXPAUHWND__@@@Z ENDP		; CChartLink::SetOcxHwnd
_TEXT	ENDS
; Function compile flags: /Ogtp
; File D:\git\src\IBK\IBK_DRFN\ProjSrc\SrcChartEx\ChartAddIn\ChartDesignPropertyAddIn\ChartDesignPropertyAddIn\ChartLink.cpp
;	COMDAT ?AutoScaleData@CChartLink@@AAEXABV?$CStringT@DV?$StrTraitMFC_DLL@DV?$ChTraitsCRT@D@ATL@@@@@ATL@@@Z
_TEXT	SEGMENT
_strName$ = 8						; size = 4
?AutoScaleData@CChartLink@@AAEXABV?$CStringT@DV?$StrTraitMFC_DLL@DV?$ChTraitsCRT@D@ATL@@@@@ATL@@@Z PROC ; CChartLink::AutoScaleData, COMDAT
; _this$ = ecx

; 226  : {

  00000	55		 push	 ebp
  00001	8b ec		 mov	 ebp, esp
  00003	56		 push	 esi
  00004	57		 push	 edi

; 227  : 	if(strName.Find("Block") != -1)

  00005	6a 00		 push	 0
  00007	8b f9		 mov	 edi, ecx
  00009	8b 4d 08	 mov	 ecx, DWORD PTR _strName$[ebp]
  0000c	68 00 00 00 00	 push	 OFFSET ??_C@_05PPLCEPDH@Block@
  00011	ff 15 00 00 00
	00		 call	 DWORD PTR __imp_?Find@?$CStringT@DV?$StrTraitMFC_DLL@DV?$ChTraitsCRT@D@ATL@@@@@ATL@@QBEHPBDH@Z
  00017	6a 00		 push	 0
  00019	83 f8 ff	 cmp	 eax, -1
  0001c	74 29		 je	 SHORT $LN2@AutoScaleD

; 228  : 		m_strScaleStyle = _LTEXT0( C0_DATE_TIME);

  0001e	a1 54 00 00 00	 mov	 eax, DWORD PTR ?g_iMetaTable@@3VIMetaTable@@A+84
  00023	ff 30		 push	 DWORD PTR [eax]
  00025	6a 00		 push	 0
$LN8@AutoScaleD:

; 233  : }

  00027	ff b7 a8 00 00
	00		 push	 DWORD PTR [edi+168]
  0002d	b9 00 00 00 00	 mov	 ecx, OFFSET ?g_iMetaTable@@3VIMetaTable@@A ; g_iMetaTable
  00032	e8 00 00 00 00	 call	 ?GetLanguageText@IMetaTable@@QAEPBDPAUHWND__@@W4E_CODEPAGE@1@PBDH@Z ; IMetaTable::GetLanguageText
  00037	50		 push	 eax
  00038	8d 4f 58	 lea	 ecx, DWORD PTR [edi+88]
  0003b	ff 15 00 00 00
	00		 call	 DWORD PTR __imp_??4?$CStringT@DV?$StrTraitMFC_DLL@DV?$ChTraitsCRT@D@ATL@@@@@ATL@@QAEAAV01@PBD@Z
  00041	5f		 pop	 edi
  00042	5e		 pop	 esi
  00043	5d		 pop	 ebp
  00044	c2 04 00	 ret	 4
$LN2@AutoScaleD:

; 229  : 	else if(strName.Find("Vertical Scale") != -1)

  00047	8b 4d 08	 mov	 ecx, DWORD PTR _strName$[ebp]
  0004a	68 00 00 00 00	 push	 OFFSET ??_C@_0P@ONCIBKJN@Vertical?5Scale@
  0004f	ff 15 00 00 00
	00		 call	 DWORD PTR __imp_?Find@?$CStringT@DV?$StrTraitMFC_DLL@DV?$ChTraitsCRT@D@ATL@@@@@ATL@@QBEHPBDH@Z
  00055	83 f8 ff	 cmp	 eax, -1
  00058	74 11		 je	 SHORT $LN4@AutoScaleD

; 230  : 		m_strScaleStyle = _LTEXT6( C6_INDICATOR_DATA);

  0005a	a1 54 00 00 00	 mov	 eax, DWORD PTR ?g_iMetaTable@@3VIMetaTable@@A+84
  0005f	6a 00		 push	 0
  00061	ff b0 7c 09 00
	00		 push	 DWORD PTR [eax+2428]
  00067	6a 06		 push	 6
  00069	eb bc		 jmp	 SHORT $LN8@AutoScaleD
$LN4@AutoScaleD:

; 231  : 	else
; 232  : 		m_strScaleStyle = "";

  0006b	68 00 00 00 00	 push	 OFFSET ??_C@_00CNPNBAHC@@

; 233  : }

  00070	8d 4f 58	 lea	 ecx, DWORD PTR [edi+88]
  00073	ff 15 00 00 00
	00		 call	 DWORD PTR __imp_??4?$CStringT@DV?$StrTraitMFC_DLL@DV?$ChTraitsCRT@D@ATL@@@@@ATL@@QAEAAV01@PBD@Z
  00079	5f		 pop	 edi
  0007a	5e		 pop	 esi
  0007b	5d		 pop	 ebp
  0007c	c2 04 00	 ret	 4
?AutoScaleData@CChartLink@@AAEXABV?$CStringT@DV?$StrTraitMFC_DLL@DV?$ChTraitsCRT@D@ATL@@@@@ATL@@@Z ENDP ; CChartLink::AutoScaleData
_TEXT	ENDS
; Function compile flags: /Ogtp
; File D:\git\src\IBK\IBK_DRFN\ProjSrc\SrcChartEx\ChartAddIn\ChartDesignPropertyAddIn\ChartDesignPropertyAddIn\ChartLink.cpp
;	COMDAT ??1CChartLink@@UAE@XZ
_TEXT	SEGMENT
__$EHRec$ = -12						; size = 12
??1CChartLink@@UAE@XZ PROC				; CChartLink::~CChartLink, COMDAT
; _this$ = ecx

; 76   : {

  00000	55		 push	 ebp
  00001	8b ec		 mov	 ebp, esp
  00003	6a ff		 push	 -1
  00005	68 00 00 00 00	 push	 __ehhandler$??1CChartLink@@UAE@XZ
  0000a	64 a1 00 00 00
	00		 mov	 eax, DWORD PTR fs:0
  00010	50		 push	 eax
  00011	56		 push	 esi
  00012	57		 push	 edi
  00013	a1 00 00 00 00	 mov	 eax, DWORD PTR ___security_cookie
  00018	33 c5		 xor	 eax, ebp
  0001a	50		 push	 eax
  0001b	8d 45 f4	 lea	 eax, DWORD PTR __$EHRec$[ebp]
  0001e	64 a3 00 00 00
	00		 mov	 DWORD PTR fs:0, eax
  00024	8b f1		 mov	 esi, ecx

; 77   : 	if(m_Child != NULL)

  00026	8b 7e 60	 mov	 edi, DWORD PTR [esi+96]
  00029	c7 06 00 00 00
	00		 mov	 DWORD PTR [esi], OFFSET ??_7CChartLink@@6B@
  0002f	85 ff		 test	 edi, edi
  00031	74 29		 je	 SHORT $LN11@CChartLink

; 92   : 	if(m_Next != NULL)

  00033	8b 4f 68	 mov	 ecx, DWORD PTR [edi+104]
  00036	85 c9		 test	 ecx, ecx
  00038	74 05		 je	 SHORT $LN8@CChartLink

; 93   : 		m_Next->DeleteAll();

  0003a	e8 00 00 00 00	 call	 ?DeleteAll@CChartLink@@QAEHXZ ; CChartLink::DeleteAll
$LN8@CChartLink:

; 94   : 
; 95   : 	m_Next = NULL;
; 96   : 	if(m_Prev != NULL)

  0003f	8b 47 64	 mov	 eax, DWORD PTR [edi+100]
  00042	c7 47 68 00 00
	00 00		 mov	 DWORD PTR [edi+104], 0
  00049	85 c0		 test	 eax, eax
  0004b	74 07		 je	 SHORT $LN9@CChartLink

; 97   : 		m_Prev->m_Next = NULL;

  0004d	c7 40 68 00 00
	00 00		 mov	 DWORD PTR [eax+104], 0
$LN9@CChartLink:

; 98   : 	delete this;

  00054	8b 07		 mov	 eax, DWORD PTR [edi]
  00056	8b cf		 mov	 ecx, edi
  00058	6a 01		 push	 1
  0005a	ff 10		 call	 DWORD PTR [eax]
$LN11@CChartLink:

; 78   : 		m_Child->DeleteAll();
; 79   : 	if(m_Next != NULL)

  0005c	8b 4e 68	 mov	 ecx, DWORD PTR [esi+104]
  0005f	85 c9		 test	 ecx, ecx
  00061	74 06		 je	 SHORT $LN3@CChartLink

; 80   : 		m_Next->m_Prev = m_Prev;

  00063	8b 46 64	 mov	 eax, DWORD PTR [esi+100]
  00066	89 41 64	 mov	 DWORD PTR [ecx+100], eax
$LN3@CChartLink:

; 81   : 	if(m_Prev != NULL)

  00069	8b 4e 64	 mov	 ecx, DWORD PTR [esi+100]
  0006c	85 c9		 test	 ecx, ecx
  0006e	74 06		 je	 SHORT $LN4@CChartLink

; 82   : 		m_Prev->m_Next = m_Next;

  00070	8b 46 68	 mov	 eax, DWORD PTR [esi+104]
  00073	89 41 68	 mov	 DWORD PTR [ecx+104], eax
$LN4@CChartLink:

; 83   : }

  00076	8d 4e 58	 lea	 ecx, DWORD PTR [esi+88]
  00079	ff 15 00 00 00
	00		 call	 DWORD PTR __imp_??1?$CStringT@DV?$StrTraitMFC_DLL@DV?$ChTraitsCRT@D@ATL@@@@@ATL@@QAE@XZ
  0007f	8d 4e 3c	 lea	 ecx, DWORD PTR [esi+60]
  00082	ff 15 00 00 00
	00		 call	 DWORD PTR __imp_??1?$CStringT@DV?$StrTraitMFC_DLL@DV?$ChTraitsCRT@D@ATL@@@@@ATL@@QAE@XZ
  00088	8d 4e 38	 lea	 ecx, DWORD PTR [esi+56]
  0008b	ff 15 00 00 00
	00		 call	 DWORD PTR __imp_??1?$CStringT@DV?$StrTraitMFC_DLL@DV?$ChTraitsCRT@D@ATL@@@@@ATL@@QAE@XZ
  00091	8d 4e 28	 lea	 ecx, DWORD PTR [esi+40]
  00094	ff 15 00 00 00
	00		 call	 DWORD PTR __imp_??1?$CStringT@DV?$StrTraitMFC_DLL@DV?$ChTraitsCRT@D@ATL@@@@@ATL@@QAE@XZ
  0009a	8d 4e 24	 lea	 ecx, DWORD PTR [esi+36]
  0009d	ff 15 00 00 00
	00		 call	 DWORD PTR __imp_??1?$CStringT@DV?$StrTraitMFC_DLL@DV?$ChTraitsCRT@D@ATL@@@@@ATL@@QAE@XZ
  000a3	8d 4e 18	 lea	 ecx, DWORD PTR [esi+24]
  000a6	ff 15 00 00 00
	00		 call	 DWORD PTR __imp_??1?$CStringT@DV?$StrTraitMFC_DLL@DV?$ChTraitsCRT@D@ATL@@@@@ATL@@QAE@XZ
  000ac	8d 4e 14	 lea	 ecx, DWORD PTR [esi+20]
  000af	ff 15 00 00 00
	00		 call	 DWORD PTR __imp_??1?$CStringT@DV?$StrTraitMFC_DLL@DV?$ChTraitsCRT@D@ATL@@@@@ATL@@QAE@XZ
  000b5	8d 4e 0c	 lea	 ecx, DWORD PTR [esi+12]
  000b8	ff 15 00 00 00
	00		 call	 DWORD PTR __imp_??1?$CStringT@DV?$StrTraitMFC_DLL@DV?$ChTraitsCRT@D@ATL@@@@@ATL@@QAE@XZ
  000be	8b 4d f4	 mov	 ecx, DWORD PTR __$EHRec$[ebp]
  000c1	64 89 0d 00 00
	00 00		 mov	 DWORD PTR fs:0, ecx
  000c8	59		 pop	 ecx
  000c9	5f		 pop	 edi
  000ca	5e		 pop	 esi
  000cb	8b e5		 mov	 esp, ebp
  000cd	5d		 pop	 ebp
  000ce	c3		 ret	 0
  000cf	cc		 int	 3
  000d0	cc		 int	 3
  000d1	cc		 int	 3
  000d2	cc		 int	 3
  000d3	cc		 int	 3
_TEXT	ENDS
;	COMDAT text$x
text$x	SEGMENT
__ehhandler$??1CChartLink@@UAE@XZ:
  00000	90		 npad	 1
  00001	90		 npad	 1
  00002	8b 54 24 08	 mov	 edx, DWORD PTR [esp+8]
  00006	8d 42 0c	 lea	 eax, DWORD PTR [edx+12]
  00009	8b 4a f4	 mov	 ecx, DWORD PTR [edx-12]
  0000c	33 c8		 xor	 ecx, eax
  0000e	e8 00 00 00 00	 call	 @__security_check_cookie@4
  00013	b8 00 00 00 00	 mov	 eax, OFFSET __ehfuncinfo$??1CChartLink@@UAE@XZ
  00018	e9 00 00 00 00	 jmp	 ___CxxFrameHandler3
text$x	ENDS
??1CChartLink@@UAE@XZ ENDP				; CChartLink::~CChartLink
; Function compile flags: /Ogtp
; File D:\git\src\IBK\IBK_DRFN\ProjSrc\SrcChartEx\ChartAddIn\ChartDesignPropertyAddIn\ChartDesignPropertyAddIn\ChartLink.cpp
;	COMDAT ?Find@CChartLink@@QAEPAV1@PAU_TREEITEM@@@Z
_TEXT	SEGMENT
_hItem$ = 8						; size = 4
?Find@CChartLink@@QAEPAV1@PAU_TREEITEM@@@Z PROC		; CChartLink::Find, COMDAT
; _this$ = ecx

; 156  : {

  00000	55		 push	 ebp
  00001	8b ec		 mov	 ebp, esp
  00003	56		 push	 esi
  00004	8b f1		 mov	 esi, ecx
  00006	57		 push	 edi

; 157  : 	if(m_hItem == hItem) return this ;

  00007	8b 7d 08	 mov	 edi, DWORD PTR _hItem$[ebp]
  0000a	39 7e 08	 cmp	 DWORD PTR [esi+8], edi
  0000d	74 1e		 je	 SHORT $LN9@Find
  0000f	90		 npad	 1
$LL7@Find:

; 158  : 	if(m_Child != NULL)

  00010	8b 4e 60	 mov	 ecx, DWORD PTR [esi+96]
  00013	85 c9		 test	 ecx, ecx
  00015	74 0a		 je	 SHORT $LN4@Find

; 159  : 	{
; 160  : 		CChartLink* pLink = m_Child->Find(hItem) ;

  00017	57		 push	 edi
  00018	e8 00 00 00 00	 call	 ?Find@CChartLink@@QAEPAV1@PAU_TREEITEM@@@Z ; CChartLink::Find

; 161  : 		if(pLink != NULL)

  0001d	85 c0		 test	 eax, eax
  0001f	75 0e		 jne	 SHORT $LN1@Find
$LN4@Find:

; 162  : 			return pLink ;
; 163  : 	}
; 164  : 	if(m_Next != NULL)

  00021	8b 76 68	 mov	 esi, DWORD PTR [esi+104]
  00024	85 f6		 test	 esi, esi
  00026	74 0d		 je	 SHORT $LN5@Find

; 157  : 	if(m_hItem == hItem) return this ;

  00028	39 7e 08	 cmp	 DWORD PTR [esi+8], edi
  0002b	75 e3		 jne	 SHORT $LL7@Find
$LN9@Find:
  0002d	8b c6		 mov	 eax, esi
$LN1@Find:
  0002f	5f		 pop	 edi

; 167  : }

  00030	5e		 pop	 esi
  00031	5d		 pop	 ebp
  00032	c2 04 00	 ret	 4
$LN5@Find:
  00035	5f		 pop	 edi

; 165  : 		return m_Next->Find(hItem) ;
; 166  : 	return NULL ;

  00036	33 c0		 xor	 eax, eax

; 167  : }

  00038	5e		 pop	 esi
  00039	5d		 pop	 ebp
  0003a	c2 04 00	 ret	 4
?Find@CChartLink@@QAEPAV1@PAU_TREEITEM@@@Z ENDP		; CChartLink::Find
_TEXT	ENDS
; Function compile flags: /Ogtp
; File D:\git\src\IBK\IBK_DRFN\ProjSrc\SrcChartEx\ChartAddIn\ChartDesignPropertyAddIn\ChartDesignPropertyAddIn\ChartLink.cpp
;	COMDAT ?DeleteAll@CChartLink@@QAEHXZ
_TEXT	SEGMENT
?DeleteAll@CChartLink@@QAEHXZ PROC			; CChartLink::DeleteAll, COMDAT
; _this$ = ecx

; 90   : {

  00000	56		 push	 esi
  00001	8b f1		 mov	 esi, ecx

; 91   : 	if(this == NULL) return FALSE;

  00003	85 f6		 test	 esi, esi
  00005	75 04		 jne	 SHORT $LN2@DeleteAll
  00007	33 c0		 xor	 eax, eax
  00009	5e		 pop	 esi

; 101  : 
; 102  : }

  0000a	c3		 ret	 0
$LN2@DeleteAll:

; 92   : 	if(m_Next != NULL)

  0000b	8b 4e 68	 mov	 ecx, DWORD PTR [esi+104]
  0000e	85 c9		 test	 ecx, ecx
  00010	74 05		 je	 SHORT $LN3@DeleteAll

; 93   : 		m_Next->DeleteAll();

  00012	e8 00 00 00 00	 call	 ?DeleteAll@CChartLink@@QAEHXZ ; CChartLink::DeleteAll
$LN3@DeleteAll:

; 94   : 
; 95   : 	m_Next = NULL;
; 96   : 	if(m_Prev != NULL)

  00017	8b 46 64	 mov	 eax, DWORD PTR [esi+100]
  0001a	c7 46 68 00 00
	00 00		 mov	 DWORD PTR [esi+104], 0
  00021	85 c0		 test	 eax, eax
  00023	74 07		 je	 SHORT $LN4@DeleteAll

; 97   : 		m_Prev->m_Next = NULL;

  00025	c7 40 68 00 00
	00 00		 mov	 DWORD PTR [eax+104], 0
$LN4@DeleteAll:

; 98   : 	delete this;

  0002c	8b 06		 mov	 eax, DWORD PTR [esi]
  0002e	8b ce		 mov	 ecx, esi
  00030	6a 01		 push	 1
  00032	ff 10		 call	 DWORD PTR [eax]

; 99   : 
; 100  : 	return TRUE;

  00034	b8 01 00 00 00	 mov	 eax, 1
  00039	5e		 pop	 esi

; 101  : 
; 102  : }

  0003a	c3		 ret	 0
?DeleteAll@CChartLink@@QAEHXZ ENDP			; CChartLink::DeleteAll
_TEXT	ENDS
; Function compile flags: /Ogtp
; File D:\git\src\IBK\IBK_DRFN\ProjSrc\SrcChartEx\ChartAddIn\ChartDesignPropertyAddIn\ChartDesignPropertyAddIn\ChartLink.cpp
;	COMDAT ?Add@CChartLink@@QAEHPAV1@@Z
_TEXT	SEGMENT
_pItem$ = 8						; size = 4
?Add@CChartLink@@QAEHPAV1@@Z PROC			; CChartLink::Add, COMDAT
; _this$ = ecx

; 106  : {

  00000	55		 push	 ebp
  00001	8b ec		 mov	 ebp, esp

; 107  : 	if(m_Next == NULL) {

  00003	8b 41 68	 mov	 eax, DWORD PTR [ecx+104]
  00006	85 c0		 test	 eax, eax
  00008	75 18		 jne	 SHORT $LN2@Add

; 108  : 		m_Next = pItem ;

  0000a	8b 55 08	 mov	 edx, DWORD PTR _pItem$[ebp]
  0000d	89 51 68	 mov	 DWORD PTR [ecx+104], edx

; 109  : 		pItem->m_Prev = this ;

  00010	89 4a 64	 mov	 DWORD PTR [edx+100], ecx

; 110  : 		pItem->m_Parent = m_Parent ;

  00013	8b 41 5c	 mov	 eax, DWORD PTR [ecx+92]
  00016	89 42 5c	 mov	 DWORD PTR [edx+92], eax

; 114  : 	return TRUE ;
; 115  : }

  00019	b8 01 00 00 00	 mov	 eax, 1
  0001e	5d		 pop	 ebp
  0001f	c2 04 00	 ret	 4
$LN2@Add:

; 111  : 	}
; 112  : 	else
; 113  : 		m_Next->Add(pItem) ;

  00022	ff 75 08	 push	 DWORD PTR _pItem$[ebp]
  00025	8b c8		 mov	 ecx, eax
  00027	e8 00 00 00 00	 call	 ?Add@CChartLink@@QAEHPAV1@@Z ; CChartLink::Add

; 114  : 	return TRUE ;
; 115  : }

  0002c	b8 01 00 00 00	 mov	 eax, 1
  00031	5d		 pop	 ebp
  00032	c2 04 00	 ret	 4
?Add@CChartLink@@QAEHPAV1@@Z ENDP			; CChartLink::Add
_TEXT	ENDS
; Function compile flags: /Ogtp
; File D:\git\src\IBK\IBK_DRFN\ProjSrc\SrcChartEx\ChartAddIn\ChartDesignPropertyAddIn\ChartDesignPropertyAddIn\ChartLink.cpp
;	COMDAT ?AddChild@CChartLink@@QAEHPAV1@@Z
_TEXT	SEGMENT
_pItem$ = 8						; size = 4
?AddChild@CChartLink@@QAEHPAV1@@Z PROC			; CChartLink::AddChild, COMDAT
; _this$ = ecx

; 118  : {

  00000	55		 push	 ebp
  00001	8b ec		 mov	 ebp, esp

; 119  : 	if(m_Child == NULL) {

  00003	8b 41 60	 mov	 eax, DWORD PTR [ecx+96]
  00006	85 c0		 test	 eax, eax
  00008	75 12		 jne	 SHORT $LN2@AddChild

; 120  : 		m_Child = pItem ;

  0000a	8b 45 08	 mov	 eax, DWORD PTR _pItem$[ebp]
  0000d	89 41 60	 mov	 DWORD PTR [ecx+96], eax

; 121  : 		pItem->m_Parent = this ;

  00010	89 48 5c	 mov	 DWORD PTR [eax+92], ecx

; 122  : 	}
; 123  : 	else
; 124  : 		m_Child->Add(pItem) ;
; 125  : 	return TRUE ;
; 126  : }

  00013	b8 01 00 00 00	 mov	 eax, 1
  00018	5d		 pop	 ebp
  00019	c2 04 00	 ret	 4
$LN2@AddChild:

; 107  : 	if(m_Next == NULL) {

  0001c	8b 48 68	 mov	 ecx, DWORD PTR [eax+104]
  0001f	85 c9		 test	 ecx, ecx
  00021	75 18		 jne	 SHORT $LN6@AddChild

; 108  : 		m_Next = pItem ;

  00023	8b 4d 08	 mov	 ecx, DWORD PTR _pItem$[ebp]
  00026	89 48 68	 mov	 DWORD PTR [eax+104], ecx

; 109  : 		pItem->m_Prev = this ;

  00029	89 41 64	 mov	 DWORD PTR [ecx+100], eax

; 110  : 		pItem->m_Parent = m_Parent ;

  0002c	8b 40 5c	 mov	 eax, DWORD PTR [eax+92]
  0002f	89 41 5c	 mov	 DWORD PTR [ecx+92], eax

; 122  : 	}
; 123  : 	else
; 124  : 		m_Child->Add(pItem) ;
; 125  : 	return TRUE ;
; 126  : }

  00032	b8 01 00 00 00	 mov	 eax, 1
  00037	5d		 pop	 ebp
  00038	c2 04 00	 ret	 4
$LN6@AddChild:

; 113  : 		m_Next->Add(pItem) ;

  0003b	ff 75 08	 push	 DWORD PTR _pItem$[ebp]
  0003e	e8 00 00 00 00	 call	 ?Add@CChartLink@@QAEHPAV1@@Z ; CChartLink::Add

; 122  : 	}
; 123  : 	else
; 124  : 		m_Child->Add(pItem) ;
; 125  : 	return TRUE ;
; 126  : }

  00043	b8 01 00 00 00	 mov	 eax, 1
  00048	5d		 pop	 ebp
  00049	c2 04 00	 ret	 4
?AddChild@CChartLink@@QAEHPAV1@@Z ENDP			; CChartLink::AddChild
_TEXT	ENDS
; Function compile flags: /Ogtp
; File D:\git\src\IBK\IBK_DRFN\ProjSrc\SrcChartEx\ChartAddIn\ChartDesignPropertyAddIn\ChartDesignPropertyAddIn\ChartLink.cpp
;	COMDAT ?Insert@CChartLink@@QAEHPAV1@@Z
_TEXT	SEGMENT
_pItem$ = 8						; size = 4
?Insert@CChartLink@@QAEHPAV1@@Z PROC			; CChartLink::Insert, COMDAT
; _this$ = ecx

; 129  : {

  00000	55		 push	 ebp
  00001	8b ec		 mov	 ebp, esp

; 130  : 	if(m_Prev == NULL)

  00003	8b 41 64	 mov	 eax, DWORD PTR [ecx+100]
  00006	85 c0		 test	 eax, eax
  00008	75 27		 jne	 SHORT $LN2@Insert

; 131  : 	{
; 132  : 		m_Prev = pItem ;

  0000a	8b 55 08	 mov	 edx, DWORD PTR _pItem$[ebp]
  0000d	89 51 64	 mov	 DWORD PTR [ecx+100], edx

; 133  : 		pItem->m_Next = this ;

  00010	89 4a 68	 mov	 DWORD PTR [edx+104], ecx

; 134  : 		pItem->m_Parent = m_Parent ;

  00013	8b 41 5c	 mov	 eax, DWORD PTR [ecx+92]
  00016	89 42 5c	 mov	 DWORD PTR [edx+92], eax

; 135  : 		if(m_Parent != NULL && m_Parent->m_Child == this)

  00019	8b 41 5c	 mov	 eax, DWORD PTR [ecx+92]
  0001c	85 c0		 test	 eax, eax
  0001e	74 1b		 je	 SHORT $LN8@Insert
  00020	39 48 60	 cmp	 DWORD PTR [eax+96], ecx
  00023	75 16		 jne	 SHORT $LN8@Insert

; 136  : 			m_Parent->m_Child = pItem ;

  00025	89 50 60	 mov	 DWORD PTR [eax+96], edx

; 140  : 	return TRUE ;
; 141  : }

  00028	b8 01 00 00 00	 mov	 eax, 1
  0002d	5d		 pop	 ebp
  0002e	c2 04 00	 ret	 4
$LN2@Insert:

; 137  : 	}
; 138  : 	else
; 139  : 		m_Prev->Insert(pItem) ;

  00031	ff 75 08	 push	 DWORD PTR _pItem$[ebp]
  00034	8b c8		 mov	 ecx, eax
  00036	e8 00 00 00 00	 call	 ?Insert@CChartLink@@QAEHPAV1@@Z ; CChartLink::Insert
$LN8@Insert:

; 140  : 	return TRUE ;
; 141  : }

  0003b	b8 01 00 00 00	 mov	 eax, 1
  00040	5d		 pop	 ebp
  00041	c2 04 00	 ret	 4
?Insert@CChartLink@@QAEHPAV1@@Z ENDP			; CChartLink::Insert
_TEXT	ENDS
; Function compile flags: /Ogtp
; File D:\git\src\IBK\IBK_DRFN\ProjSrc\SrcChartEx\ChartAddIn\ChartDesignPropertyAddIn\ChartDesignPropertyAddIn\ChartLink.cpp
;	COMDAT ?InsertChild@CChartLink@@QAEHPAV1@@Z
_TEXT	SEGMENT
_pItem$ = 8						; size = 4
?InsertChild@CChartLink@@QAEHPAV1@@Z PROC		; CChartLink::InsertChild, COMDAT
; _this$ = ecx

; 144  : {

  00000	55		 push	 ebp
  00001	8b ec		 mov	 ebp, esp

; 145  : 	if(m_Child == NULL)

  00003	8b 51 60	 mov	 edx, DWORD PTR [ecx+96]
  00006	85 d2		 test	 edx, edx
  00008	75 10		 jne	 SHORT $LN2@InsertChil

; 146  : 	{
; 147  : 		m_Child = pItem ;

  0000a	8b 45 08	 mov	 eax, DWORD PTR _pItem$[ebp]
  0000d	89 41 60	 mov	 DWORD PTR [ecx+96], eax

; 148  : 		pItem->m_Parent = this ;

  00010	89 48 5c	 mov	 DWORD PTR [eax+92], ecx

; 149  : 	}
; 150  : 	else
; 151  : 		m_Child->Insert(pItem) ;
; 152  : 	return TRUE ;
; 153  : }

  00013	8d 42 01	 lea	 eax, DWORD PTR [edx+1]
  00016	5d		 pop	 ebp
  00017	c2 04 00	 ret	 4
$LN2@InsertChil:

; 130  : 	if(m_Prev == NULL)

  0001a	8b 4a 64	 mov	 ecx, DWORD PTR [edx+100]
  0001d	85 c9		 test	 ecx, ecx
  0001f	75 27		 jne	 SHORT $LN6@InsertChil

; 131  : 	{
; 132  : 		m_Prev = pItem ;

  00021	8b 4d 08	 mov	 ecx, DWORD PTR _pItem$[ebp]
  00024	89 4a 64	 mov	 DWORD PTR [edx+100], ecx

; 133  : 		pItem->m_Next = this ;

  00027	89 51 68	 mov	 DWORD PTR [ecx+104], edx

; 134  : 		pItem->m_Parent = m_Parent ;

  0002a	8b 42 5c	 mov	 eax, DWORD PTR [edx+92]
  0002d	89 41 5c	 mov	 DWORD PTR [ecx+92], eax

; 135  : 		if(m_Parent != NULL && m_Parent->m_Child == this)

  00030	8b 42 5c	 mov	 eax, DWORD PTR [edx+92]
  00033	85 c0		 test	 eax, eax
  00035	74 19		 je	 SHORT $LN12@InsertChil
  00037	39 50 60	 cmp	 DWORD PTR [eax+96], edx
  0003a	75 14		 jne	 SHORT $LN12@InsertChil

; 136  : 			m_Parent->m_Child = pItem ;

  0003c	89 48 60	 mov	 DWORD PTR [eax+96], ecx

; 149  : 	}
; 150  : 	else
; 151  : 		m_Child->Insert(pItem) ;
; 152  : 	return TRUE ;
; 153  : }

  0003f	b8 01 00 00 00	 mov	 eax, 1
  00044	5d		 pop	 ebp
  00045	c2 04 00	 ret	 4
$LN6@InsertChil:

; 139  : 		m_Prev->Insert(pItem) ;

  00048	ff 75 08	 push	 DWORD PTR _pItem$[ebp]
  0004b	e8 00 00 00 00	 call	 ?Insert@CChartLink@@QAEHPAV1@@Z ; CChartLink::Insert
$LN12@InsertChil:

; 149  : 	}
; 150  : 	else
; 151  : 		m_Child->Insert(pItem) ;
; 152  : 	return TRUE ;
; 153  : }

  00050	b8 01 00 00 00	 mov	 eax, 1
  00055	5d		 pop	 ebp
  00056	c2 04 00	 ret	 4
?InsertChild@CChartLink@@QAEHPAV1@@Z ENDP		; CChartLink::InsertChild
_TEXT	ENDS
; Function compile flags: /Ogtp
; File D:\git\src\IBK\IBK_DRFN\ProjSrc\SrcChartEx\ChartAddIn\ChartDesignPropertyAddIn\ChartDesignPropertyAddIn\ChartLink.cpp
;	COMDAT ?Delete@CChartLink@@QAEXXZ
_TEXT	SEGMENT
?Delete@CChartLink@@QAEXXZ PROC				; CChartLink::Delete, COMDAT
; _this$ = ecx

; 186  : {

  00000	56		 push	 esi
  00001	8b f1		 mov	 esi, ecx
  00003	57		 push	 edi

; 187  : 	if(m_Parent != NULL && m_Parent->m_Child == this)

  00004	8b 4e 5c	 mov	 ecx, DWORD PTR [esi+92]
  00007	85 c9		 test	 ecx, ecx
  00009	74 0b		 je	 SHORT $LN2@Delete
  0000b	39 71 60	 cmp	 DWORD PTR [ecx+96], esi
  0000e	75 06		 jne	 SHORT $LN2@Delete

; 188  : 		m_Parent->m_Child = m_Next;

  00010	8b 46 68	 mov	 eax, DWORD PTR [esi+104]
  00013	89 41 60	 mov	 DWORD PTR [ecx+96], eax
$LN2@Delete:

; 189  : 
; 190  : 	if(m_Prev != NULL)

  00016	8b 4e 64	 mov	 ecx, DWORD PTR [esi+100]
  00019	85 c9		 test	 ecx, ecx
  0001b	74 06		 je	 SHORT $LN3@Delete

; 191  : 		m_Prev->m_Next = m_Next;

  0001d	8b 46 68	 mov	 eax, DWORD PTR [esi+104]
  00020	89 41 68	 mov	 DWORD PTR [ecx+104], eax
$LN3@Delete:

; 192  : 
; 193  : 	if(m_Next != NULL)

  00023	8b 4e 68	 mov	 ecx, DWORD PTR [esi+104]
  00026	85 c9		 test	 ecx, ecx
  00028	74 06		 je	 SHORT $LN4@Delete

; 194  : 		m_Next->m_Prev = m_Prev;

  0002a	8b 46 64	 mov	 eax, DWORD PTR [esi+100]
  0002d	89 41 64	 mov	 DWORD PTR [ecx+100], eax
$LN4@Delete:

; 195  : 
; 196  : 	m_Next = NULL;
; 197  : 	m_Prev = NULL;
; 198  : 	m_Parent = NULL;
; 199  : 	if(m_Child)	{

  00030	8b 7e 60	 mov	 edi, DWORD PTR [esi+96]
  00033	c7 46 68 00 00
	00 00		 mov	 DWORD PTR [esi+104], 0
  0003a	c7 46 64 00 00
	00 00		 mov	 DWORD PTR [esi+100], 0
  00041	c7 46 5c 00 00
	00 00		 mov	 DWORD PTR [esi+92], 0
  00048	85 ff		 test	 edi, edi
  0004a	74 30		 je	 SHORT $LN5@Delete

; 92   : 	if(m_Next != NULL)

  0004c	8b 4f 68	 mov	 ecx, DWORD PTR [edi+104]
  0004f	85 c9		 test	 ecx, ecx
  00051	74 05		 je	 SHORT $LN11@Delete

; 93   : 		m_Next->DeleteAll();

  00053	e8 00 00 00 00	 call	 ?DeleteAll@CChartLink@@QAEHXZ ; CChartLink::DeleteAll
$LN11@Delete:

; 94   : 
; 95   : 	m_Next = NULL;
; 96   : 	if(m_Prev != NULL)

  00058	8b 47 64	 mov	 eax, DWORD PTR [edi+100]
  0005b	c7 47 68 00 00
	00 00		 mov	 DWORD PTR [edi+104], 0
  00062	85 c0		 test	 eax, eax
  00064	74 07		 je	 SHORT $LN12@Delete

; 97   : 		m_Prev->m_Next = NULL;

  00066	c7 40 68 00 00
	00 00		 mov	 DWORD PTR [eax+104], 0
$LN12@Delete:

; 98   : 	delete this;

  0006d	8b 07		 mov	 eax, DWORD PTR [edi]
  0006f	8b cf		 mov	 ecx, edi
  00071	6a 01		 push	 1
  00073	ff 10		 call	 DWORD PTR [eax]

; 200  : 		m_Child->DeleteAll() ;
; 201  : 		m_Child = NULL ;

  00075	c7 46 60 00 00
	00 00		 mov	 DWORD PTR [esi+96], 0
$LN5@Delete:

; 202  : 	}
; 203  : 	delete this ;

  0007c	8b 06		 mov	 eax, DWORD PTR [esi]
  0007e	8b ce		 mov	 ecx, esi
  00080	6a 01		 push	 1
  00082	ff 10		 call	 DWORD PTR [eax]
  00084	5f		 pop	 edi
  00085	5e		 pop	 esi

; 204  : }

  00086	c3		 ret	 0
?Delete@CChartLink@@QAEXXZ ENDP				; CChartLink::Delete
_TEXT	ENDS
; Function compile flags: /Ogtp
; File D:\git\src\IBK\IBK_DRFN\ProjSrc\SrcChartEx\ChartAddIn\ChartDesignPropertyAddIn\ChartDesignPropertyAddIn\ChartLink.cpp
;	COMDAT ?Cut@CChartLink@@QAEXXZ
_TEXT	SEGMENT
?Cut@CChartLink@@QAEXXZ PROC				; CChartLink::Cut, COMDAT
; _this$ = ecx

; 171  : 	if(m_Parent != NULL && m_Parent->m_Child == this)

  00000	8b 51 5c	 mov	 edx, DWORD PTR [ecx+92]
  00003	85 d2		 test	 edx, edx
  00005	74 0b		 je	 SHORT $LN2@Cut
  00007	39 4a 60	 cmp	 DWORD PTR [edx+96], ecx
  0000a	75 06		 jne	 SHORT $LN2@Cut

; 172  : 		m_Parent->m_Child = m_Next;

  0000c	8b 41 68	 mov	 eax, DWORD PTR [ecx+104]
  0000f	89 42 60	 mov	 DWORD PTR [edx+96], eax
$LN2@Cut:

; 173  : 
; 174  : 	if(m_Prev != NULL)

  00012	8b 51 64	 mov	 edx, DWORD PTR [ecx+100]
  00015	85 d2		 test	 edx, edx
  00017	74 06		 je	 SHORT $LN3@Cut

; 175  : 		m_Prev->m_Next = m_Next;

  00019	8b 41 68	 mov	 eax, DWORD PTR [ecx+104]
  0001c	89 42 68	 mov	 DWORD PTR [edx+104], eax
$LN3@Cut:

; 176  : 
; 177  : 	if(m_Next != NULL)

  0001f	8b 51 68	 mov	 edx, DWORD PTR [ecx+104]
  00022	85 d2		 test	 edx, edx
  00024	74 06		 je	 SHORT $LN4@Cut

; 178  : 		m_Next->m_Prev = m_Prev;

  00026	8b 41 64	 mov	 eax, DWORD PTR [ecx+100]
  00029	89 42 64	 mov	 DWORD PTR [edx+100], eax
$LN4@Cut:

; 179  : 
; 180  : 	m_Next = NULL;

  0002c	c7 41 68 00 00
	00 00		 mov	 DWORD PTR [ecx+104], 0

; 181  : 	m_Prev = NULL;

  00033	c7 41 64 00 00
	00 00		 mov	 DWORD PTR [ecx+100], 0

; 182  : 	m_Parent = NULL;

  0003a	c7 41 5c 00 00
	00 00		 mov	 DWORD PTR [ecx+92], 0

; 183  : }

  00041	c3		 ret	 0
?Cut@CChartLink@@QAEXXZ ENDP				; CChartLink::Cut
_TEXT	ENDS
; Function compile flags: /Ogtp
; File D:\git\src\IBK\IBK_DRFN\ProjSrc\SrcChartEx\ChartAddIn\ChartDesignPropertyAddIn\ChartDesignPropertyAddIn\ChartLink.cpp
;	COMDAT ?InsertAfterTarget@CChartLink@@QAEXPAV1@@Z
_TEXT	SEGMENT
_pItem$ = 8						; size = 4
?InsertAfterTarget@CChartLink@@QAEXPAV1@@Z PROC		; CChartLink::InsertAfterTarget, COMDAT
; _this$ = ecx

; 207  : {

  00000	55		 push	 ebp
  00001	8b ec		 mov	 ebp, esp

; 208  : 	if(m_Next == NULL) {

  00003	8b 41 68	 mov	 eax, DWORD PTR [ecx+104]
  00006	8b 55 08	 mov	 edx, DWORD PTR _pItem$[ebp]
  00009	85 c0		 test	 eax, eax
  0000b	75 10		 jne	 SHORT $LN2@InsertAfte

; 209  : 		m_Next = pItem;

  0000d	89 51 68	 mov	 DWORD PTR [ecx+104], edx

; 210  : 		pItem->m_Prev = this;

  00010	89 4a 64	 mov	 DWORD PTR [edx+100], ecx

; 218  : 		pItem->m_Parent = m_Parent;
; 219  : 	}
; 220  : }

  00013	8b 41 5c	 mov	 eax, DWORD PTR [ecx+92]
  00016	89 42 5c	 mov	 DWORD PTR [edx+92], eax
  00019	5d		 pop	 ebp
  0001a	c2 04 00	 ret	 4
$LN2@InsertAfte:

; 211  : 		pItem->m_Parent = m_Parent;
; 212  : 	}
; 213  : 	else {
; 214  : 		this->m_Next->m_Prev = pItem;

  0001d	89 50 64	 mov	 DWORD PTR [eax+100], edx

; 215  : 		pItem->m_Prev = this;

  00020	89 4a 64	 mov	 DWORD PTR [edx+100], ecx

; 216  : 		pItem->m_Next = this->m_Next;

  00023	8b 41 68	 mov	 eax, DWORD PTR [ecx+104]
  00026	89 42 68	 mov	 DWORD PTR [edx+104], eax

; 217  : 		this->m_Next = pItem;

  00029	89 51 68	 mov	 DWORD PTR [ecx+104], edx

; 218  : 		pItem->m_Parent = m_Parent;
; 219  : 	}
; 220  : }

  0002c	8b 41 5c	 mov	 eax, DWORD PTR [ecx+92]
  0002f	89 42 5c	 mov	 DWORD PTR [edx+92], eax
  00032	5d		 pop	 ebp
  00033	c2 04 00	 ret	 4
?InsertAfterTarget@CChartLink@@QAEXPAV1@@Z ENDP		; CChartLink::InsertAfterTarget
_TEXT	ENDS
; Function compile flags: /Ogtp
; File D:\git\src\IBK\IBK_DRFN\ProjSrc\SrcChartEx\ChartAddIn\ChartDesignPropertyAddIn\ChartDesignPropertyAddIn\ChartLink.cpp
;	COMDAT ??0CChartLink@@QAE@PAV0@HPADPAUHWND__@@@Z
_TEXT	SEGMENT
_this$ = -16						; size = 4
__$EHRec$ = -12						; size = 12
_Parent$ = 8						; size = 4
_Type$ = 12						; size = 4
$T2 = 16						; size = 4
_Name$ = 16						; size = 4
_p_hOcxWnd$ = 20					; size = 4
??0CChartLink@@QAE@PAV0@HPADPAUHWND__@@@Z PROC		; CChartLink::CChartLink, COMDAT
; _this$ = ecx

; 16   : {

  00000	55		 push	 ebp
  00001	8b ec		 mov	 ebp, esp
  00003	6a ff		 push	 -1
  00005	68 00 00 00 00	 push	 __ehhandler$??0CChartLink@@QAE@PAV0@HPADPAUHWND__@@@Z
  0000a	64 a1 00 00 00
	00		 mov	 eax, DWORD PTR fs:0
  00010	50		 push	 eax
  00011	51		 push	 ecx
  00012	53		 push	 ebx
  00013	56		 push	 esi
  00014	57		 push	 edi
  00015	a1 00 00 00 00	 mov	 eax, DWORD PTR ___security_cookie
  0001a	33 c5		 xor	 eax, ebp
  0001c	50		 push	 eax
  0001d	8d 45 f4	 lea	 eax, DWORD PTR __$EHRec$[ebp]
  00020	64 a3 00 00 00
	00		 mov	 DWORD PTR fs:0, eax
  00026	8b f1		 mov	 esi, ecx
  00028	89 75 f0	 mov	 DWORD PTR _this$[ebp], esi
  0002b	8d 4e 0c	 lea	 ecx, DWORD PTR [esi+12]
  0002e	c7 06 00 00 00
	00		 mov	 DWORD PTR [esi], OFFSET ??_7CChartLink@@6B@
  00034	ff 15 00 00 00
	00		 call	 DWORD PTR __imp_??0?$CStringT@DV?$StrTraitMFC_DLL@DV?$ChTraitsCRT@D@ATL@@@@@ATL@@QAE@XZ
  0003a	8d 4e 14	 lea	 ecx, DWORD PTR [esi+20]
  0003d	c7 45 fc 00 00
	00 00		 mov	 DWORD PTR __$EHRec$[ebp+8], 0
  00044	ff 15 00 00 00
	00		 call	 DWORD PTR __imp_??0?$CStringT@DV?$StrTraitMFC_DLL@DV?$ChTraitsCRT@D@ATL@@@@@ATL@@QAE@XZ
  0004a	8d 4e 18	 lea	 ecx, DWORD PTR [esi+24]
  0004d	ff 15 00 00 00
	00		 call	 DWORD PTR __imp_??0?$CStringT@DV?$StrTraitMFC_DLL@DV?$ChTraitsCRT@D@ATL@@@@@ATL@@QAE@XZ
  00053	8d 4e 24	 lea	 ecx, DWORD PTR [esi+36]
  00056	ff 15 00 00 00
	00		 call	 DWORD PTR __imp_??0?$CStringT@DV?$StrTraitMFC_DLL@DV?$ChTraitsCRT@D@ATL@@@@@ATL@@QAE@XZ
  0005c	8d 4e 28	 lea	 ecx, DWORD PTR [esi+40]
  0005f	ff 15 00 00 00
	00		 call	 DWORD PTR __imp_??0?$CStringT@DV?$StrTraitMFC_DLL@DV?$ChTraitsCRT@D@ATL@@@@@ATL@@QAE@XZ
  00065	8d 4e 38	 lea	 ecx, DWORD PTR [esi+56]
  00068	ff 15 00 00 00
	00		 call	 DWORD PTR __imp_??0?$CStringT@DV?$StrTraitMFC_DLL@DV?$ChTraitsCRT@D@ATL@@@@@ATL@@QAE@XZ
  0006e	8d 4e 3c	 lea	 ecx, DWORD PTR [esi+60]
  00071	ff 15 00 00 00
	00		 call	 DWORD PTR __imp_??0?$CStringT@DV?$StrTraitMFC_DLL@DV?$ChTraitsCRT@D@ATL@@@@@ATL@@QAE@XZ
  00077	8b ce		 mov	 ecx, esi
  00079	8d 49 58	 lea	 ecx, DWORD PTR [ecx+88]
  0007c	ff 15 00 00 00
	00		 call	 DWORD PTR __imp_??0?$CStringT@DV?$StrTraitMFC_DLL@DV?$ChTraitsCRT@D@ATL@@@@@ATL@@QAE@XZ

; 17   : 	m_iType = Type ;			//	Chart Node Type

  00082	8b 45 0c	 mov	 eax, DWORD PTR _Type$[ebp]
  00085	8b ce		 mov	 ecx, esi

; 18   : 	m_strName = Name ;			//	Chart Type Name (선 차트, ....)

  00087	ff 75 10	 push	 DWORD PTR _Name$[ebp]
  0008a	c6 45 fc 07	 mov	 BYTE PTR __$EHRec$[ebp+8], 7
  0008e	89 41 10	 mov	 DWORD PTR [ecx+16], eax
  00091	8d 4e 0c	 lea	 ecx, DWORD PTR [esi+12]
  00094	ff 15 00 00 00
	00		 call	 DWORD PTR __imp_??4?$CStringT@DV?$StrTraitMFC_DLL@DV?$ChTraitsCRT@D@ATL@@@@@ATL@@QAEAAV01@PBD@Z

; 19   : 	m_hItem = (HTREEITEM)0 ;	// Handle of an item in a tree-view control
; 20   : 
; 21   : 	m_Parent = Parent ;

  0009a	8b 45 08	 mov	 eax, DWORD PTR _Parent$[ebp]

; 22   : 	m_Child = NULL ;
; 23   : 	m_Prev = NULL ;
; 24   : 	m_Next = NULL ;
; 25   : 
; 26   : 	 m_bScaleJoin = FALSE;
; 27   : 	 m_nScalePosition = 2;
; 28   : 	 //sy 2006.04.17.
; 29   : 	 m_bSignalUse = false;
; 30   : 	 m_bSignalShow = false;
; 31   : 	 //sy end
; 32   : 	 m_bLowHighUpDown = false;
; 33   : 	 m_bLowNowUpDown = false;
; 34   : 	 m_bHighNowUpDown = false;
; 35   : 	 m_bPreNowContrast = false;
; 36   : 	 m_nCurData = 0;
; 37   : 
; 38   : //Block
; 39   : 	m_strDateScaleCompart = ".";

  0009d	8d 4e 38	 lea	 ecx, DWORD PTR [esi+56]
  000a0	8b de		 mov	 ebx, esi
  000a2	68 00 00 00 00	 push	 OFFSET ??_C@_01LFCBOECM@?4@
  000a7	c7 43 08 00 00
	00 00		 mov	 DWORD PTR [ebx+8], 0
  000ae	89 43 5c	 mov	 DWORD PTR [ebx+92], eax
  000b1	c7 43 60 00 00
	00 00		 mov	 DWORD PTR [ebx+96], 0
  000b8	c7 43 64 00 00
	00 00		 mov	 DWORD PTR [ebx+100], 0
  000bf	c7 43 68 00 00
	00 00		 mov	 DWORD PTR [ebx+104], 0
  000c6	c7 43 1c 00 00
	00 00		 mov	 DWORD PTR [ebx+28], 0
  000cd	c7 43 20 02 00
	00 00		 mov	 DWORD PTR [ebx+32], 2
  000d4	c7 43 2c 00 00
	00 00		 mov	 DWORD PTR [ebx+44], 0
  000db	66 c7 43 30 00
	00		 mov	 WORD PTR [ebx+48], 0
  000e1	c7 43 34 00 00
	00 00		 mov	 DWORD PTR [ebx+52], 0
  000e8	ff 15 00 00 00
	00		 call	 DWORD PTR __imp_??4?$CStringT@DV?$StrTraitMFC_DLL@DV?$ChTraitsCRT@D@ATL@@@@@ATL@@QAEAAV01@PBD@Z

; 40   : 	m_strTimeScaleCompart = ":";

  000ee	68 00 00 00 00	 push	 OFFSET ??_C@_01JLIPDDHJ@?3@
  000f3	8d 4e 3c	 lea	 ecx, DWORD PTR [esi+60]
  000f6	ff 15 00 00 00
	00		 call	 DWORD PTR __imp_??4?$CStringT@DV?$StrTraitMFC_DLL@DV?$ChTraitsCRT@D@ATL@@@@@ATL@@QAEAAV01@PBD@Z

; 41   : 	m_nHorizonpos = 3;
; 42   : 	m_nHorizonStyle = 0;
; 43   : 	m_nColumnIndex = 0;
; 44   :     m_nLog = 0;
; 45   : 	m_nScaleCompartType = 1;
; 46   : 
; 47   : 	m_nScaleExpressionType = 0;
; 48   : 
; 49   : 	// (2006/11/11 - Seung-Won, Bae) Min/Max Setting
; 50   : 	m_bMinMaxLock	= FALSE;
; 51   : 	m_eMinMaxType	= CScaleBaseData::VERT_MINMAX_OF_VIEW;
; 52   : 	m_dMax			= 0;
; 53   : 	m_dMin			= 0;
; 54   : 
; 55   : 	// (2007/7/19 - Seung-Won, Bae) Support Up/Down Space
; 56   : 	m_nUpSpace		= 0;
; 57   : 	m_nDownSpace	= 0;
; 58   : 
; 59   : 	//2007.01.22 Scale사용자 설정,호가단위별
; 60   : 	m_dHogaNumber = 0.0;
; 61   : 	m_dUserNumber = 0.0;
; 62   : 	m_nUserHogaType = 0;
; 63   : 
; 64   : 	// 지표 뒤집기 - ojtaso (20071023)
; 65   : 	m_bIsInvert = FALSE;
; 66   : 
; 67   : 	// (2008/1/15 - Seung-Won, Bae) for MultiLanguage.
; 68   : 	m_hOcxWnd = p_hOcxWnd;

  000fc	8b 45 14	 mov	 eax, DWORD PTR _p_hOcxWnd$[ebp]

; 69   : 
; 70   : 	//Block, Item
; 71   : 	//sy 2004.1.28. -> x/y축 scale의 기본값을 넣는다.
; 72   : 	AutoScaleData((CString)Name);

  000ff	8d 4d 10	 lea	 ecx, DWORD PTR $T2[ebp]
  00102	ff 75 10	 push	 DWORD PTR _Name$[ebp]
  00105	0f 57 c0	 xorps	 xmm0, xmm0
  00108	c7 43 40 03 00
	00 00		 mov	 DWORD PTR [ebx+64], 3
  0010f	c7 43 44 00 00
	00 00		 mov	 DWORD PTR [ebx+68], 0
  00116	c7 43 48 00 00
	00 00		 mov	 DWORD PTR [ebx+72], 0
  0011d	c7 43 4c 00 00
	00 00		 mov	 DWORD PTR [ebx+76], 0
  00124	c7 43 50 01 00
	00 00		 mov	 DWORD PTR [ebx+80], 1
  0012b	c7 43 54 00 00
	00 00		 mov	 DWORD PTR [ebx+84], 0
  00132	c7 43 6c 00 00
	00 00		 mov	 DWORD PTR [ebx+108], 0
  00139	c7 43 70 00 00
	00 00		 mov	 DWORD PTR [ebx+112], 0
  00140	0f 11 43 78	 movups	 XMMWORD PTR [ebx+120], xmm0
  00144	c7 83 88 00 00
	00 00 00 00 00	 mov	 DWORD PTR [ebx+136], 0
  0014e	c7 83 8c 00 00
	00 00 00 00 00	 mov	 DWORD PTR [ebx+140], 0
  00158	0f 11 83 90 00
	00 00		 movups	 XMMWORD PTR [ebx+144], xmm0
  0015f	c7 83 a0 00 00
	00 00 00 00 00	 mov	 DWORD PTR [ebx+160], 0
  00169	c7 83 a4 00 00
	00 00 00 00 00	 mov	 DWORD PTR [ebx+164], 0
  00173	89 83 a8 00 00
	00		 mov	 DWORD PTR [ebx+168], eax
  00179	ff 15 00 00 00
	00		 call	 DWORD PTR __imp_??0?$CStringT@DV?$StrTraitMFC_DLL@DV?$ChTraitsCRT@D@ATL@@@@@ATL@@QAE@PBD@Z
  0017f	50		 push	 eax
  00180	8b cb		 mov	 ecx, ebx
  00182	c6 45 fc 08	 mov	 BYTE PTR __$EHRec$[ebp+8], 8
  00186	e8 00 00 00 00	 call	 ?AutoScaleData@CChartLink@@AAEXABV?$CStringT@DV?$StrTraitMFC_DLL@DV?$ChTraitsCRT@D@ATL@@@@@ATL@@@Z ; CChartLink::AutoScaleData
  0018b	8d 4d 10	 lea	 ecx, DWORD PTR $T2[ebp]
  0018e	ff 15 00 00 00
	00		 call	 DWORD PTR __imp_??1?$CStringT@DV?$StrTraitMFC_DLL@DV?$ChTraitsCRT@D@ATL@@@@@ATL@@QAE@XZ

; 73   : }

  00194	8b c3		 mov	 eax, ebx
  00196	8b 4d f4	 mov	 ecx, DWORD PTR __$EHRec$[ebp]
  00199	64 89 0d 00 00
	00 00		 mov	 DWORD PTR fs:0, ecx
  001a0	59		 pop	 ecx
  001a1	5f		 pop	 edi
  001a2	5e		 pop	 esi
  001a3	5b		 pop	 ebx
  001a4	8b e5		 mov	 esp, ebp
  001a6	5d		 pop	 ebp
  001a7	c2 10 00	 ret	 16			; 00000010H
_TEXT	ENDS
;	COMDAT text$x
text$x	SEGMENT
__unwindfunclet$??0CChartLink@@QAE@PAV0@HPADPAUHWND__@@@Z$0:
  00000	8b 4d f0	 mov	 ecx, DWORD PTR _this$[ebp]
  00003	83 c1 0c	 add	 ecx, 12			; 0000000cH
  00006	ff 25 00 00 00
	00		 jmp	 DWORD PTR __imp_??1?$CStringT@DV?$StrTraitMFC_DLL@DV?$ChTraitsCRT@D@ATL@@@@@ATL@@QAE@XZ
__unwindfunclet$??0CChartLink@@QAE@PAV0@HPADPAUHWND__@@@Z$1:
  0000c	8b 4d f0	 mov	 ecx, DWORD PTR _this$[ebp]
  0000f	83 c1 14	 add	 ecx, 20			; 00000014H
  00012	ff 25 00 00 00
	00		 jmp	 DWORD PTR __imp_??1?$CStringT@DV?$StrTraitMFC_DLL@DV?$ChTraitsCRT@D@ATL@@@@@ATL@@QAE@XZ
__unwindfunclet$??0CChartLink@@QAE@PAV0@HPADPAUHWND__@@@Z$2:
  00018	8b 4d f0	 mov	 ecx, DWORD PTR _this$[ebp]
  0001b	83 c1 18	 add	 ecx, 24			; 00000018H
  0001e	ff 25 00 00 00
	00		 jmp	 DWORD PTR __imp_??1?$CStringT@DV?$StrTraitMFC_DLL@DV?$ChTraitsCRT@D@ATL@@@@@ATL@@QAE@XZ
__unwindfunclet$??0CChartLink@@QAE@PAV0@HPADPAUHWND__@@@Z$3:
  00024	8b 4d f0	 mov	 ecx, DWORD PTR _this$[ebp]
  00027	83 c1 24	 add	 ecx, 36			; 00000024H
  0002a	ff 25 00 00 00
	00		 jmp	 DWORD PTR __imp_??1?$CStringT@DV?$StrTraitMFC_DLL@DV?$ChTraitsCRT@D@ATL@@@@@ATL@@QAE@XZ
__unwindfunclet$??0CChartLink@@QAE@PAV0@HPADPAUHWND__@@@Z$4:
  00030	8b 4d f0	 mov	 ecx, DWORD PTR _this$[ebp]
  00033	83 c1 28	 add	 ecx, 40			; 00000028H
  00036	ff 25 00 00 00
	00		 jmp	 DWORD PTR __imp_??1?$CStringT@DV?$StrTraitMFC_DLL@DV?$ChTraitsCRT@D@ATL@@@@@ATL@@QAE@XZ
__unwindfunclet$??0CChartLink@@QAE@PAV0@HPADPAUHWND__@@@Z$5:
  0003c	8b 4d f0	 mov	 ecx, DWORD PTR _this$[ebp]
  0003f	83 c1 38	 add	 ecx, 56			; 00000038H
  00042	ff 25 00 00 00
	00		 jmp	 DWORD PTR __imp_??1?$CStringT@DV?$StrTraitMFC_DLL@DV?$ChTraitsCRT@D@ATL@@@@@ATL@@QAE@XZ
__unwindfunclet$??0CChartLink@@QAE@PAV0@HPADPAUHWND__@@@Z$6:
  00048	8b 4d f0	 mov	 ecx, DWORD PTR _this$[ebp]
  0004b	83 c1 3c	 add	 ecx, 60			; 0000003cH
  0004e	ff 25 00 00 00
	00		 jmp	 DWORD PTR __imp_??1?$CStringT@DV?$StrTraitMFC_DLL@DV?$ChTraitsCRT@D@ATL@@@@@ATL@@QAE@XZ
__unwindfunclet$??0CChartLink@@QAE@PAV0@HPADPAUHWND__@@@Z$7:
  00054	8b 4d f0	 mov	 ecx, DWORD PTR _this$[ebp]
  00057	83 c1 58	 add	 ecx, 88			; 00000058H
  0005a	ff 25 00 00 00
	00		 jmp	 DWORD PTR __imp_??1?$CStringT@DV?$StrTraitMFC_DLL@DV?$ChTraitsCRT@D@ATL@@@@@ATL@@QAE@XZ
__unwindfunclet$??0CChartLink@@QAE@PAV0@HPADPAUHWND__@@@Z$8:
  00060	8d 4d 10	 lea	 ecx, DWORD PTR $T2[ebp]
  00063	ff 25 00 00 00
	00		 jmp	 DWORD PTR __imp_??1?$CStringT@DV?$StrTraitMFC_DLL@DV?$ChTraitsCRT@D@ATL@@@@@ATL@@QAE@XZ
  00069	cc		 int	 3
  0006a	cc		 int	 3
  0006b	cc		 int	 3
  0006c	cc		 int	 3
  0006d	cc		 int	 3
__ehhandler$??0CChartLink@@QAE@PAV0@HPADPAUHWND__@@@Z:
  0006e	90		 npad	 1
  0006f	90		 npad	 1
  00070	8b 54 24 08	 mov	 edx, DWORD PTR [esp+8]
  00074	8d 42 0c	 lea	 eax, DWORD PTR [edx+12]
  00077	8b 4a ec	 mov	 ecx, DWORD PTR [edx-20]
  0007a	33 c8		 xor	 ecx, eax
  0007c	e8 00 00 00 00	 call	 @__security_check_cookie@4
  00081	b8 00 00 00 00	 mov	 eax, OFFSET __ehfuncinfo$??0CChartLink@@QAE@PAV0@HPADPAUHWND__@@@Z
  00086	e9 00 00 00 00	 jmp	 ___CxxFrameHandler3
text$x	ENDS
??0CChartLink@@QAE@PAV0@HPADPAUHWND__@@@Z ENDP		; CChartLink::CChartLink
; Function compile flags: /Ogtp
; File D:\git\src\IBK\IBK_DRFN\ProjSrc\SrcChartEx\ChartAddIn\ChartDesignPropertyAddIn\ChartDesignPropertyAddIn\ChartLink.cpp
;	COMDAT ?__empty_global_delete@@YAXPAXI@Z
_TEXT	SEGMENT
___formal$ = 8						; size = 4
___formal$ = 12						; size = 4
?__empty_global_delete@@YAXPAXI@Z PROC			; __empty_global_delete, COMDAT

  00000	c2 00 00	 ret	 0
?__empty_global_delete@@YAXPAXI@Z ENDP			; __empty_global_delete
_TEXT	ENDS
; Function compile flags: /Ogtp
; File D:\git\src\IBK\IBK_DRFN\ProjSrc\SrcChartEx\ChartAddIn\ChartDesignPropertyAddIn\ChartDesignPropertyAddIn\ChartLink.cpp
;	COMDAT ?__empty_global_delete@@YAXPAX@Z
_TEXT	SEGMENT
___formal$ = 8						; size = 4
?__empty_global_delete@@YAXPAX@Z PROC			; __empty_global_delete, COMDAT

  00000	c2 00 00	 ret	 0
?__empty_global_delete@@YAXPAX@Z ENDP			; __empty_global_delete
_TEXT	ENDS
END
