; Listing generated by Microsoft (R) Optimizing Compiler Version 19.29.30145.0 

	TITLE	D:\git\src\IBK\IBK_DRFN\#DRfn-CS\_Obj\ChartDesignPropertyAddIn\CheckComboBox.obj
	.686P
	.XMM
	include listing.inc
	.model	flat

INCLUDELIB MSVCRT
INCLUDELIB OLDNAMES

PUBLIC	?__empty_global_delete@@YAXPAX@Z		; __empty_global_delete
PUBLIC	?__empty_global_delete@@YAXPAXI@Z		; __empty_global_delete
PUBLIC	?Serialize@CObject@@UAEXAAVCArchive@@@Z		; CObject::Serialize
PUBLIC	?AssertValid@CObject@@UBEXXZ			; CObject::AssertValid
PUBLIC	?Dump@CObject@@UBEXAAVCDumpContext@@@Z		; CObject::Dump
PUBLIC	??HATL@@YA?AV?$CStringT@DV?$StrTraitMFC_DLL@DV?$ChTraitsCRT@D@ATL@@@@@0@ABV10@D@Z ; ATL::operator+
PUBLIC	?DoDataExchange@CWnd@@MAEXPAVCDataExchange@@@Z	; CWnd::DoDataExchange
PUBLIC	?BeginModalState@CWnd@@UAEXXZ			; CWnd::BeginModalState
PUBLIC	?EndModalState@CWnd@@UAEXXZ			; CWnd::EndModalState
PUBLIC	??_GCComboBox@@UAEPAXI@Z			; CComboBox::`scalar deleting destructor'
PUBLIC	?GetCurState@CCheckComboBox@@QAE_NXZ		; CCheckComboBox::GetCurState
PUBLIC	??0CCheckComboBox@@QAE@XZ			; CCheckComboBox::CCheckComboBox
PUBLIC	??1CCheckComboBox@@UAE@XZ			; CCheckComboBox::~CCheckComboBox
PUBLIC	?Create@CCheckComboBox@@UAEHKABUtagRECT@@PAVCWnd@@I@Z ; CCheckComboBox::Create
PUBLIC	?SetCheck@CCheckComboBox@@QAEHHH@Z		; CCheckComboBox::SetCheck
PUBLIC	?GetCheck@CCheckComboBox@@QAEHH@Z		; CCheckComboBox::GetCheck
PUBLIC	?SelectAll@CCheckComboBox@@QAEXH@Z		; CCheckComboBox::SelectAll
PUBLIC	?SetItemCheck@CCheckComboBox@@QAEXABV?$CStringT@DV?$StrTraitMFC_DLL@DV?$ChTraitsCRT@D@ATL@@@@@ATL@@@Z ; CCheckComboBox::SetItemCheck
PUBLIC	?DrawItem@CCheckComboBox@@MAEXPAUtagDRAWITEMSTRUCT@@@Z ; CCheckComboBox::DrawItem
PUBLIC	?MeasureItem@CCheckComboBox@@MAEXPAUtagMEASUREITEMSTRUCT@@@Z ; CCheckComboBox::MeasureItem
PUBLIC	?OnCtlColorListBox@CCheckComboBox@@IAEJIJ@Z	; CCheckComboBox::OnCtlColorListBox
PUBLIC	?OnGetText@CCheckComboBox@@IAEJIJ@Z		; CCheckComboBox::OnGetText
PUBLIC	?OnGetTextLength@CCheckComboBox@@IAEJIJ@Z	; CCheckComboBox::OnGetTextLength
PUBLIC	?OnDropDown@CCheckComboBox@@IAEXXZ		; CCheckComboBox::OnDropDown
PUBLIC	?OnContextMenu@CCheckComboBox@@IAEXPAVCWnd@@VCPoint@@@Z ; CCheckComboBox::OnContextMenu
PUBLIC	?GetThisMessageMap@CCheckComboBox@@KGPBUAFX_MSGMAP@@XZ ; CCheckComboBox::GetThisMessageMap
PUBLIC	?GetMessageMap@CCheckComboBox@@MBEPBUAFX_MSGMAP@@XZ ; CCheckComboBox::GetMessageMap
PUBLIC	?RecalcText@CCheckComboBox@@IAEXXZ		; CCheckComboBox::RecalcText
PUBLIC	?ChangeItemText@CCheckComboBox@@AAEXXZ		; CCheckComboBox::ChangeItemText
PUBLIC	?AddItemText@CCheckComboBox@@AAEXABV?$CStringT@DV?$StrTraitMFC_DLL@DV?$ChTraitsCRT@D@ATL@@@@@ATL@@@Z ; CCheckComboBox::AddItemText
PUBLIC	??_GCCheckComboBox@@UAEPAXI@Z			; CCheckComboBox::`scalar deleting destructor'
PUBLIC	_ComboBoxListBoxProc@16
PUBLIC	??_C@_00CNPNBAHC@@				; `string'
PUBLIC	??_7CComboBox@@6B@				; CComboBox::`vftable'
PUBLIC	??_R0?AVCObject@@@8				; CObject `RTTI Type Descriptor'
PUBLIC	??_R3CObject@@8					; CObject::`RTTI Class Hierarchy Descriptor'
PUBLIC	??_R2CObject@@8					; CObject::`RTTI Base Class Array'
PUBLIC	??_R1A@?0A@EA@CObject@@8			; CObject::`RTTI Base Class Descriptor at (0,-1,0,64)'
PUBLIC	??_R1A@?0A@EA@CWnd@@8				; CWnd::`RTTI Base Class Descriptor at (0,-1,0,64)'
PUBLIC	??_R0?AVCWnd@@@8				; CWnd `RTTI Type Descriptor'
PUBLIC	??_R3CWnd@@8					; CWnd::`RTTI Class Hierarchy Descriptor'
PUBLIC	??_R2CWnd@@8					; CWnd::`RTTI Base Class Array'
PUBLIC	??_R1A@?0A@EA@CCmdTarget@@8			; CCmdTarget::`RTTI Base Class Descriptor at (0,-1,0,64)'
PUBLIC	??_R0?AVCCmdTarget@@@8				; CCmdTarget `RTTI Type Descriptor'
PUBLIC	??_R3CCmdTarget@@8				; CCmdTarget::`RTTI Class Hierarchy Descriptor'
PUBLIC	??_R2CCmdTarget@@8				; CCmdTarget::`RTTI Base Class Array'
PUBLIC	??_R4CComboBox@@6B@				; CComboBox::`RTTI Complete Object Locator'
PUBLIC	??_R0?AVCComboBox@@@8				; CComboBox `RTTI Type Descriptor'
PUBLIC	??_R3CComboBox@@8				; CComboBox::`RTTI Class Hierarchy Descriptor'
PUBLIC	??_R2CComboBox@@8				; CComboBox::`RTTI Base Class Array'
PUBLIC	??_R1A@?0A@EA@CComboBox@@8			; CComboBox::`RTTI Base Class Descriptor at (0,-1,0,64)'
PUBLIC	??_7CCheckComboBox@@6B@				; CCheckComboBox::`vftable'
PUBLIC	??_C@_01IHBHIGKO@?0@				; `string'
PUBLIC	??_R4CCheckComboBox@@6B@			; CCheckComboBox::`RTTI Complete Object Locator'
PUBLIC	??_R0?AVCCheckComboBox@@@8			; CCheckComboBox `RTTI Type Descriptor'
PUBLIC	??_R3CCheckComboBox@@8				; CCheckComboBox::`RTTI Class Hierarchy Descriptor'
PUBLIC	??_R2CCheckComboBox@@8				; CCheckComboBox::`RTTI Base Class Array'
PUBLIC	??_R1A@?0A@EA@CCheckComboBox@@8			; CCheckComboBox::`RTTI Base Class Descriptor at (0,-1,0,64)'
EXTRN	??3@YAXPAX@Z:PROC				; operator delete
EXTRN	?__global_delete@@YAXPAXI@Z:PROC		; __global_delete
EXTRN	__imp__lstrcpynA@12:PROC
EXTRN	__imp__SetBkColor@8:PROC
EXTRN	__imp__SetTextColor@8:PROC
EXTRN	__imp__GetTextMetricsA@8:PROC
EXTRN	__imp__ExtTextOutA@32:PROC
EXTRN	__imp__DrawFrameControl@16:PROC
EXTRN	__imp__SendMessageA@16:PROC
EXTRN	__imp__CallWindowProcA@20:PROC
EXTRN	__imp__EnableWindow@8:PROC
EXTRN	__imp__DrawTextA@20:PROC
EXTRN	__imp__InvalidateRect@12:PROC
EXTRN	__imp__GetClientRect@8:PROC
EXTRN	__imp__GetSysColor@4:PROC
EXTRN	__imp__DrawFocusRect@8:PROC
EXTRN	__imp__CopyRect@8:PROC
EXTRN	__imp__PtInRect@12:PROC
EXTRN	__imp__GetWindowLongA@8:PROC
EXTRN	__imp__SetWindowLongA@12:PROC
EXTRN	__imp__GetParent@4:PROC
EXTRN	__imp_??A?$CSimpleStringT@D$00@ATL@@QBEDH@Z:PROC
EXTRN	__imp_?Empty@?$CSimpleStringT@D$00@ATL@@QAEXXZ:PROC
EXTRN	__imp_?Concatenate@?$CSimpleStringT@D$00@ATL@@KAXAAV12@PBDH1H@Z:PROC
EXTRN	__imp_??0?$CStringT@DV?$StrTraitMFC_DLL@DV?$ChTraitsCRT@D@ATL@@@@@ATL@@QAE@XZ:PROC
EXTRN	__imp_??0?$CStringT@DV?$StrTraitMFC_DLL@DV?$ChTraitsCRT@D@ATL@@@@@ATL@@QAE@PAUIAtlStringMgr@1@@Z:PROC
EXTRN	__imp_??0?$CStringT@DV?$StrTraitMFC_DLL@DV?$ChTraitsCRT@D@ATL@@@@@ATL@@QAE@ABV01@@Z:PROC
EXTRN	__imp_??0?$CStringT@DV?$StrTraitMFC_DLL@DV?$ChTraitsCRT@D@ATL@@@@@ATL@@QAE@PBD@Z:PROC
EXTRN	__imp_??1?$CStringT@DV?$StrTraitMFC_DLL@DV?$ChTraitsCRT@D@ATL@@@@@ATL@@QAE@XZ:PROC
EXTRN	__imp_??4?$CStringT@DV?$StrTraitMFC_DLL@DV?$ChTraitsCRT@D@ATL@@@@@ATL@@QAEAAV01@ABV01@@Z:PROC
EXTRN	__imp_??Y?$CStringT@DV?$StrTraitMFC_DLL@DV?$ChTraitsCRT@D@ATL@@@@@ATL@@QAEAAV01@ABV?$CSimpleStringT@D$00@1@@Z:PROC
EXTRN	__imp_??Y?$CStringT@DV?$StrTraitMFC_DLL@DV?$ChTraitsCRT@D@ATL@@@@@ATL@@QAEAAV01@PBD@Z:PROC
EXTRN	__imp_??Y?$CStringT@DV?$StrTraitMFC_DLL@DV?$ChTraitsCRT@D@ATL@@@@@ATL@@QAEAAV01@D@Z:PROC
EXTRN	__imp_?GetManager@?$CStringT@DV?$StrTraitMFC_DLL@DV?$ChTraitsCRT@D@ATL@@@@@ATL@@QBEPAUIAtlStringMgr@2@XZ:PROC
EXTRN	__imp_?Compare@?$CStringT@DV?$StrTraitMFC_DLL@DV?$ChTraitsCRT@D@ATL@@@@@ATL@@QBEHPBD@Z:PROC
EXTRN	__imp_?Replace@?$CStringT@DV?$StrTraitMFC_DLL@DV?$ChTraitsCRT@D@ATL@@@@@ATL@@QAEHPBD0@Z:PROC
EXTRN	__imp_?Find@?$CStringT@DV?$StrTraitMFC_DLL@DV?$ChTraitsCRT@D@ATL@@@@@ATL@@QBEHPBDH@Z:PROC
EXTRN	__imp_?TrimLeft@?$CStringT@DV?$StrTraitMFC_DLL@DV?$ChTraitsCRT@D@ATL@@@@@ATL@@QAEAAV12@PBD@Z:PROC
EXTRN	__imp_?Right@?$CStringT@DV?$StrTraitMFC_DLL@DV?$ChTraitsCRT@D@ATL@@@@@ATL@@QBE?AV12@H@Z:PROC
EXTRN	?FromHandle@CGdiObject@@SGPAV1@PAX@Z:PROC	; CGdiObject::FromHandle
EXTRN	?SelectObject@CDC@@UAEPAVCFont@@PAV2@@Z:PROC	; CDC::SelectObject
EXTRN	??0CClientDC@@QAE@PAVCWnd@@@Z:PROC		; CClientDC::CClientDC
EXTRN	??1CClientDC@@UAE@XZ:PROC			; CClientDC::~CClientDC
EXTRN	?OnCmdMsg@CCmdTarget@@UAEHIHPAXPAUAFX_CMDHANDLERINFO@@@Z:PROC ; CCmdTarget::OnCmdMsg
EXTRN	?IsInvokeAllowed@CCmdTarget@@UAEHJ@Z:PROC	; CCmdTarget::IsInvokeAllowed
EXTRN	?GetDispatchIID@CCmdTarget@@UAEHPAU_GUID@@@Z:PROC ; CCmdTarget::GetDispatchIID
EXTRN	?GetTypeInfoCount@CCmdTarget@@UAEIXZ:PROC	; CCmdTarget::GetTypeInfoCount
EXTRN	?GetTypeLibCache@CCmdTarget@@UAEPAVCTypeLibCache@@XZ:PROC ; CCmdTarget::GetTypeLibCache
EXTRN	?GetTypeLib@CCmdTarget@@UAEJKPAPAUITypeLib@@@Z:PROC ; CCmdTarget::GetTypeLib
EXTRN	?GetCommandMap@CCmdTarget@@MBEPBUAFX_OLECMDMAP@@XZ:PROC ; CCmdTarget::GetCommandMap
EXTRN	?GetDispatchMap@CCmdTarget@@MBEPBUAFX_DISPMAP@@XZ:PROC ; CCmdTarget::GetDispatchMap
EXTRN	?GetConnectionMap@CCmdTarget@@MBEPBUAFX_CONNECTIONMAP@@XZ:PROC ; CCmdTarget::GetConnectionMap
EXTRN	?GetEventSinkMap@CCmdTarget@@MBEPBUAFX_EVENTSINKMAP@@XZ:PROC ; CCmdTarget::GetEventSinkMap
EXTRN	?OnCreateAggregates@CCmdTarget@@UAEHXZ:PROC	; CCmdTarget::OnCreateAggregates
EXTRN	?GetInterfaceHook@CCmdTarget@@UAEPAUIUnknown@@PBX@Z:PROC ; CCmdTarget::GetInterfaceHook
EXTRN	?GetExtraConnectionPoints@CCmdTarget@@MAEHPAVCPtrArray@@@Z:PROC ; CCmdTarget::GetExtraConnectionPoints
EXTRN	?GetConnectionHook@CCmdTarget@@MAEPAUIConnectionPoint@@ABU_GUID@@@Z:PROC ; CCmdTarget::GetConnectionHook
EXTRN	??0CWnd@@QAE@XZ:PROC				; CWnd::CWnd
EXTRN	?FromHandle@CWnd@@SGPAV1@PAUHWND__@@@Z:PROC	; CWnd::FromHandle
EXTRN	?PreSubclassWindow@CWnd@@UAEXXZ:PROC		; CWnd::PreSubclassWindow
EXTRN	?Create@CWnd@@UAEHPBD0KABUtagRECT@@PAV1@IPAUCCreateContext@@@Z:PROC ; CWnd::Create
EXTRN	?CreateEx@CWnd@@UAEHKPBD0KHHHHPAUHWND__@@PAUHMENU__@@PAX@Z:PROC ; CWnd::CreateEx
EXTRN	?CreateEx@CWnd@@UAEHKPBD0KABUtagRECT@@PAV1@IPAX@Z:PROC ; CWnd::CreateEx
EXTRN	?DestroyWindow@CWnd@@UAEHXZ:PROC		; CWnd::DestroyWindow
EXTRN	?PreCreateWindow@CWnd@@UAEHAAUtagCREATESTRUCTA@@@Z:PROC ; CWnd::PreCreateWindow
EXTRN	?CalcWindowRect@CWnd@@UAEXPAUtagRECT@@I@Z:PROC	; CWnd::CalcWindowRect
EXTRN	?GetMenu@CWnd@@UBEPAVCMenu@@XZ:PROC		; CWnd::GetMenu
EXTRN	?SetMenu@CWnd@@UAEHPAVCMenu@@@Z:PROC		; CWnd::SetMenu
EXTRN	?OnToolHitTest@CWnd@@UBEHVCPoint@@PAUtagTOOLINFOA@@@Z:PROC ; CWnd::OnToolHitTest
EXTRN	?GetScrollBarCtrl@CWnd@@UBEPAVCScrollBar@@H@Z:PROC ; CWnd::GetScrollBarCtrl
EXTRN	?WinHelpA@CWnd@@UAEXKI@Z:PROC			; CWnd::WinHelpA
EXTRN	?HtmlHelpA@CWnd@@UAEXKI@Z:PROC			; CWnd::HtmlHelpA
EXTRN	?WinHelpInternal@CWnd@@UAEXKI@Z:PROC		; CWnd::WinHelpInternal
EXTRN	?ContinueModal@CWnd@@UAEHXZ:PROC		; CWnd::ContinueModal
EXTRN	?EndModalLoop@CWnd@@UAEXH@Z:PROC		; CWnd::EndModalLoop
EXTRN	?OnDrawIconicThumbnailOrLivePreview@CWnd@@UAEXAAVCDC@@VCRect@@VCSize@@HAAH@Z:PROC ; CWnd::OnDrawIconicThumbnailOrLivePreview
EXTRN	?GetInterfaceMap@CWnd@@MBEPBUAFX_INTERFACEMAP@@XZ:PROC ; CWnd::GetInterfaceMap
EXTRN	?EnsureStdObj@CWnd@@UAEJXZ:PROC			; CWnd::EnsureStdObj
EXTRN	?get_accParent@CWnd@@UAEJPAPAUIDispatch@@@Z:PROC ; CWnd::get_accParent
EXTRN	?get_accChildCount@CWnd@@UAEJPAJ@Z:PROC		; CWnd::get_accChildCount
EXTRN	?get_accChild@CWnd@@UAEJUtagVARIANT@@PAPAUIDispatch@@@Z:PROC ; CWnd::get_accChild
EXTRN	?get_accName@CWnd@@UAEJUtagVARIANT@@PAPA_W@Z:PROC ; CWnd::get_accName
EXTRN	?get_accValue@CWnd@@UAEJUtagVARIANT@@PAPA_W@Z:PROC ; CWnd::get_accValue
EXTRN	?get_accDescription@CWnd@@UAEJUtagVARIANT@@PAPA_W@Z:PROC ; CWnd::get_accDescription
EXTRN	?get_accRole@CWnd@@UAEJUtagVARIANT@@PAU2@@Z:PROC ; CWnd::get_accRole
EXTRN	?get_accState@CWnd@@UAEJUtagVARIANT@@PAU2@@Z:PROC ; CWnd::get_accState
EXTRN	?get_accHelp@CWnd@@UAEJUtagVARIANT@@PAPA_W@Z:PROC ; CWnd::get_accHelp
EXTRN	?get_accHelpTopic@CWnd@@UAEJPAPA_WUtagVARIANT@@PAJ@Z:PROC ; CWnd::get_accHelpTopic
EXTRN	?get_accKeyboardShortcut@CWnd@@UAEJUtagVARIANT@@PAPA_W@Z:PROC ; CWnd::get_accKeyboardShortcut
EXTRN	?get_accFocus@CWnd@@UAEJPAUtagVARIANT@@@Z:PROC	; CWnd::get_accFocus
EXTRN	?get_accSelection@CWnd@@UAEJPAUtagVARIANT@@@Z:PROC ; CWnd::get_accSelection
EXTRN	?get_accDefaultAction@CWnd@@UAEJUtagVARIANT@@PAPA_W@Z:PROC ; CWnd::get_accDefaultAction
EXTRN	?accSelect@CWnd@@UAEJJUtagVARIANT@@@Z:PROC	; CWnd::accSelect
EXTRN	?accLocation@CWnd@@UAEJPAJ000UtagVARIANT@@@Z:PROC ; CWnd::accLocation
EXTRN	?accNavigate@CWnd@@UAEJJUtagVARIANT@@PAU2@@Z:PROC ; CWnd::accNavigate
EXTRN	?accHitTest@CWnd@@UAEJJJPAUtagVARIANT@@@Z:PROC	; CWnd::accHitTest
EXTRN	?accDoDefaultAction@CWnd@@UAEJUtagVARIANT@@@Z:PROC ; CWnd::accDoDefaultAction
EXTRN	?put_accName@CWnd@@UAEJUtagVARIANT@@PA_W@Z:PROC	; CWnd::put_accName
EXTRN	?put_accValue@CWnd@@UAEJUtagVARIANT@@PA_W@Z:PROC ; CWnd::put_accValue
EXTRN	?SetProxy@CWnd@@UAEJPAUIAccessibleProxy@@@Z:PROC ; CWnd::SetProxy
EXTRN	?CreateAccessibleProxy@CWnd@@UAEJIJPAJ@Z:PROC	; CWnd::CreateAccessibleProxy
EXTRN	?OnCommand@CWnd@@MAEHIJ@Z:PROC			; CWnd::OnCommand
EXTRN	?OnNotify@CWnd@@MAEHIJPAJ@Z:PROC		; CWnd::OnNotify
EXTRN	?GetSuperWndProcAddr@CWnd@@MAEPAP6GJPAUHWND__@@IIJ@ZXZ:PROC ; CWnd::GetSuperWndProcAddr
EXTRN	?PreTranslateMessage@CWnd@@UAEHPAUtagMSG@@@Z:PROC ; CWnd::PreTranslateMessage
EXTRN	?OnAmbientProperty@CWnd@@UAEHPAVCOleControlSite@@JPAUtagVARIANT@@@Z:PROC ; CWnd::OnAmbientProperty
EXTRN	?WindowProc@CWnd@@MAEJIIJ@Z:PROC		; CWnd::WindowProc
EXTRN	?OnWndMsg@CWnd@@MAEHIIJPAJ@Z:PROC		; CWnd::OnWndMsg
EXTRN	?DefWindowProcA@CWnd@@MAEJIIJ@Z:PROC		; CWnd::DefWindowProcA
EXTRN	?PostNcDestroy@CWnd@@MAEXXZ:PROC		; CWnd::PostNcDestroy
EXTRN	?OnTouchInputs@CWnd@@MAEHIPAUtagTOUCHINPUT@@@Z:PROC ; CWnd::OnTouchInputs
EXTRN	?OnTouchInput@CWnd@@MAEHVCPoint@@HHPAUtagTOUCHINPUT@@@Z:PROC ; CWnd::OnTouchInput
EXTRN	?GetGestureStatus@CWnd@@MAEKVCPoint@@@Z:PROC	; CWnd::GetGestureStatus
EXTRN	?OnGestureZoom@CWnd@@MAEHVCPoint@@J@Z:PROC	; CWnd::OnGestureZoom
EXTRN	?OnGesturePan@CWnd@@MAEHVCPoint@@0@Z:PROC	; CWnd::OnGesturePan
EXTRN	?OnGestureRotate@CWnd@@MAEHVCPoint@@N@Z:PROC	; CWnd::OnGestureRotate
EXTRN	?OnGestureTwoFingerTap@CWnd@@MAEHVCPoint@@@Z:PROC ; CWnd::OnGestureTwoFingerTap
EXTRN	?OnGesturePressAndTap@CWnd@@MAEHVCPoint@@J@Z:PROC ; CWnd::OnGesturePressAndTap
EXTRN	?ResizeDynamicLayout@CWnd@@MAEXXZ:PROC		; CWnd::ResizeDynamicLayout
EXTRN	?CheckAutoCenter@CWnd@@UAEHXZ:PROC		; CWnd::CheckAutoCenter
EXTRN	?IsFrameWnd@CWnd@@UBEHXZ:PROC			; CWnd::IsFrameWnd
EXTRN	?OnFinalRelease@CWnd@@UAEXXZ:PROC		; CWnd::OnFinalRelease
EXTRN	?CreateControlContainer@CWnd@@MAEHPAPAVCOleControlContainer@@@Z:PROC ; CWnd::CreateControlContainer
EXTRN	?CreateControlSite@CWnd@@MAEHPAVCOleControlContainer@@PAPAVCOleControlSite@@IABU_GUID@@@Z:PROC ; CWnd::CreateControlSite
EXTRN	?SetOccDialogInfo@CWnd@@MAEHPAU_AFX_OCC_DIALOG_INFO@@@Z:PROC ; CWnd::SetOccDialogInfo
EXTRN	?GetOccDialogInfo@CWnd@@MAEPAU_AFX_OCC_DIALOG_INFO@@XZ:PROC ; CWnd::GetOccDialogInfo
EXTRN	?GetThisMessageMap@CWnd@@KGPBUAFX_MSGMAP@@XZ:PROC ; CWnd::GetThisMessageMap
EXTRN	?GetMessageMap@CWnd@@MBEPBUAFX_MSGMAP@@XZ:PROC	; CWnd::GetMessageMap
EXTRN	?GetRuntimeClass@CComboBox@@UBEPAUCRuntimeClass@@XZ:PROC ; CComboBox::GetRuntimeClass
EXTRN	?Create@CComboBox@@UAEHKABUtagRECT@@PAVCWnd@@I@Z:PROC ; CComboBox::Create
EXTRN	?GetLBText@CComboBox@@QBEXHAAV?$CStringT@DV?$StrTraitMFC_DLL@DV?$ChTraitsCRT@D@ATL@@@@@ATL@@@Z:PROC ; CComboBox::GetLBText
EXTRN	?DrawItem@CComboBox@@UAEXPAUtagDRAWITEMSTRUCT@@@Z:PROC ; CComboBox::DrawItem
EXTRN	?MeasureItem@CComboBox@@UAEXPAUtagMEASUREITEMSTRUCT@@@Z:PROC ; CComboBox::MeasureItem
EXTRN	?CompareItem@CComboBox@@UAEHPAUtagCOMPAREITEMSTRUCT@@@Z:PROC ; CComboBox::CompareItem
EXTRN	?DeleteItem@CComboBox@@UAEXPAUtagDELETEITEMSTRUCT@@@Z:PROC ; CComboBox::DeleteItem
EXTRN	??1CComboBox@@UAE@XZ:PROC			; CComboBox::~CComboBox
EXTRN	?OnChildNotify@CComboBox@@MAEHIIJPAJ@Z:PROC	; CComboBox::OnChildNotify
EXTRN	??_ECComboBox@@UAEPAXI@Z:PROC			; CComboBox::`vector deleting destructor'
EXTRN	??_ECCheckComboBox@@UAEPAXI@Z:PROC		; CCheckComboBox::`vector deleting destructor'
EXTRN	?GetStringData@CDataConversion@@SA?AV?$CStringT@DV?$StrTraitMFC_DLL@DV?$ChTraitsCRT@D@ATL@@@@@ATL@@AAV23@ABV23@_N@Z:PROC ; CDataConversion::GetStringData
EXTRN	@__security_check_cookie@4:PROC
EXTRN	___CxxFrameHandler3:PROC
EXTRN	??_7type_info@@6B@:QWORD			; type_info::`vftable'
EXTRN	___security_cookie:DWORD
_BSS	SEGMENT
?m_pWndProc@@3P6GJPAUHWND__@@IIJ@ZA DD 01H DUP (?)	; m_pWndProc
?m_pComboBox@@3PAVCCheckComboBox@@A DD 01H DUP (?)	; m_pComboBox
_BSS	ENDS
;	COMDAT ??_R1A@?0A@EA@CCheckComboBox@@8
rdata$r	SEGMENT
??_R1A@?0A@EA@CCheckComboBox@@8 DD FLAT:??_R0?AVCCheckComboBox@@@8 ; CCheckComboBox::`RTTI Base Class Descriptor at (0,-1,0,64)'
	DD	04H
	DD	00H
	DD	0ffffffffH
	DD	00H
	DD	040H
	DD	FLAT:??_R3CCheckComboBox@@8
rdata$r	ENDS
;	COMDAT ??_R2CCheckComboBox@@8
rdata$r	SEGMENT
??_R2CCheckComboBox@@8 DD FLAT:??_R1A@?0A@EA@CCheckComboBox@@8 ; CCheckComboBox::`RTTI Base Class Array'
	DD	FLAT:??_R1A@?0A@EA@CComboBox@@8
	DD	FLAT:??_R1A@?0A@EA@CWnd@@8
	DD	FLAT:??_R1A@?0A@EA@CCmdTarget@@8
	DD	FLAT:??_R1A@?0A@EA@CObject@@8
rdata$r	ENDS
;	COMDAT ??_R3CCheckComboBox@@8
rdata$r	SEGMENT
??_R3CCheckComboBox@@8 DD 00H				; CCheckComboBox::`RTTI Class Hierarchy Descriptor'
	DD	00H
	DD	05H
	DD	FLAT:??_R2CCheckComboBox@@8
rdata$r	ENDS
;	COMDAT ??_R0?AVCCheckComboBox@@@8
data$rs	SEGMENT
??_R0?AVCCheckComboBox@@@8 DD FLAT:??_7type_info@@6B@	; CCheckComboBox `RTTI Type Descriptor'
	DD	00H
	DB	'.?AVCCheckComboBox@@', 00H
data$rs	ENDS
;	COMDAT ??_R4CCheckComboBox@@6B@
rdata$r	SEGMENT
??_R4CCheckComboBox@@6B@ DD 00H				; CCheckComboBox::`RTTI Complete Object Locator'
	DD	00H
	DD	00H
	DD	FLAT:??_R0?AVCCheckComboBox@@@8
	DD	FLAT:??_R3CCheckComboBox@@8
rdata$r	ENDS
;	COMDAT ??_C@_01IHBHIGKO@?0@
CONST	SEGMENT
??_C@_01IHBHIGKO@?0@ DB ',', 00H			; `string'
CONST	ENDS
;	COMDAT ?messageMap@?1??GetThisMessageMap@CCheckComboBox@@KGPBUAFX_MSGMAP@@XZ@4U3@B
CONST	SEGMENT
?messageMap@?1??GetThisMessageMap@CCheckComboBox@@KGPBUAFX_MSGMAP@@XZ@4U3@B DD FLAT:?GetThisMessageMap@CWnd@@KGPBUAFX_MSGMAP@@XZ ; `CCheckComboBox::GetThisMessageMap'::`2'::messageMap
	DD	FLAT:?_messageEntries@?1??GetThisMessageMap@CCheckComboBox@@KGPBUAFX_MSGMAP@@XZ@4QBUAFX_MSGMAP_ENTRY@@B
CONST	ENDS
;	COMDAT ?_messageEntries@?1??GetThisMessageMap@CCheckComboBox@@KGPBUAFX_MSGMAP@@XZ@4QBUAFX_MSGMAP_ENTRY@@B
CONST	SEGMENT
?_messageEntries@?1??GetThisMessageMap@CCheckComboBox@@KGPBUAFX_MSGMAP@@XZ@4QBUAFX_MSGMAP_ENTRY@@B DD 0134H ; `CCheckComboBox::GetThisMessageMap'::`2'::_messageEntries
	DD	00H
	DD	00H
	DD	00H
	DD	0eH
	DD	FLAT:?OnCtlColorListBox@CCheckComboBox@@IAEJIJ@Z
	DD	0dH
	DD	00H
	DD	00H
	DD	00H
	DD	0eH
	DD	FLAT:?OnGetText@CCheckComboBox@@IAEJIJ@Z
	DD	0eH
	DD	00H
	DD	00H
	DD	00H
	DD	0eH
	DD	FLAT:?OnGetTextLength@CCheckComboBox@@IAEJIJ@Z
	DD	0bd11H
	DD	07H
	DD	00H
	DD	00H
	DD	03aH
	DD	FLAT:?OnDropDown@CCheckComboBox@@IAEXXZ
	DD	07bH
	DD	00H
	DD	00H
	DD	00H
	DD	027H
	DD	FLAT:?OnContextMenu@CCheckComboBox@@IAEXPAVCWnd@@VCPoint@@@Z
	DD	00H
	DD	00H
	DD	00H
	DD	00H
	DD	00H
	DD	00H
CONST	ENDS
;	COMDAT ??_7CCheckComboBox@@6B@
CONST	SEGMENT
??_7CCheckComboBox@@6B@ DD FLAT:??_R4CCheckComboBox@@6B@ ; CCheckComboBox::`vftable'
	DD	FLAT:?GetRuntimeClass@CComboBox@@UBEPAUCRuntimeClass@@XZ
	DD	FLAT:??_ECCheckComboBox@@UAEPAXI@Z
	DD	FLAT:?Serialize@CObject@@UAEXAAVCArchive@@@Z
	DD	FLAT:?AssertValid@CObject@@UBEXXZ
	DD	FLAT:?Dump@CObject@@UBEXAAVCDumpContext@@@Z
	DD	FLAT:?OnCmdMsg@CCmdTarget@@UAEHIHPAXPAUAFX_CMDHANDLERINFO@@@Z
	DD	FLAT:?OnFinalRelease@CWnd@@UAEXXZ
	DD	FLAT:?IsInvokeAllowed@CCmdTarget@@UAEHJ@Z
	DD	FLAT:?GetDispatchIID@CCmdTarget@@UAEHPAU_GUID@@@Z
	DD	FLAT:?GetTypeInfoCount@CCmdTarget@@UAEIXZ
	DD	FLAT:?GetTypeLibCache@CCmdTarget@@UAEPAVCTypeLibCache@@XZ
	DD	FLAT:?GetTypeLib@CCmdTarget@@UAEJKPAPAUITypeLib@@@Z
	DD	FLAT:?GetMessageMap@CCheckComboBox@@MBEPBUAFX_MSGMAP@@XZ
	DD	FLAT:?GetCommandMap@CCmdTarget@@MBEPBUAFX_OLECMDMAP@@XZ
	DD	FLAT:?GetDispatchMap@CCmdTarget@@MBEPBUAFX_DISPMAP@@XZ
	DD	FLAT:?GetConnectionMap@CCmdTarget@@MBEPBUAFX_CONNECTIONMAP@@XZ
	DD	FLAT:?GetInterfaceMap@CWnd@@MBEPBUAFX_INTERFACEMAP@@XZ
	DD	FLAT:?GetEventSinkMap@CCmdTarget@@MBEPBUAFX_EVENTSINKMAP@@XZ
	DD	FLAT:?OnCreateAggregates@CCmdTarget@@UAEHXZ
	DD	FLAT:?GetInterfaceHook@CCmdTarget@@UAEPAUIUnknown@@PBX@Z
	DD	FLAT:?GetExtraConnectionPoints@CCmdTarget@@MAEHPAVCPtrArray@@@Z
	DD	FLAT:?GetConnectionHook@CCmdTarget@@MAEPAUIConnectionPoint@@ABU_GUID@@@Z
	DD	FLAT:?PreSubclassWindow@CWnd@@UAEXXZ
	DD	FLAT:?Create@CWnd@@UAEHPBD0KABUtagRECT@@PAV1@IPAUCCreateContext@@@Z
	DD	FLAT:?CreateEx@CWnd@@UAEHKPBD0KABUtagRECT@@PAV1@IPAX@Z
	DD	FLAT:?CreateEx@CWnd@@UAEHKPBD0KHHHHPAUHWND__@@PAUHMENU__@@PAX@Z
	DD	FLAT:?DestroyWindow@CWnd@@UAEHXZ
	DD	FLAT:?PreCreateWindow@CWnd@@UAEHAAUtagCREATESTRUCTA@@@Z
	DD	FLAT:?CalcWindowRect@CWnd@@UAEXPAUtagRECT@@I@Z
	DD	FLAT:?GetMenu@CWnd@@UBEPAVCMenu@@XZ
	DD	FLAT:?SetMenu@CWnd@@UAEHPAVCMenu@@@Z
	DD	FLAT:?OnToolHitTest@CWnd@@UBEHVCPoint@@PAUtagTOOLINFOA@@@Z
	DD	FLAT:?GetScrollBarCtrl@CWnd@@UBEPAVCScrollBar@@H@Z
	DD	FLAT:?WinHelpA@CWnd@@UAEXKI@Z
	DD	FLAT:?HtmlHelpA@CWnd@@UAEXKI@Z
	DD	FLAT:?WinHelpInternal@CWnd@@UAEXKI@Z
	DD	FLAT:?ContinueModal@CWnd@@UAEHXZ
	DD	FLAT:?EndModalLoop@CWnd@@UAEXH@Z
	DD	FLAT:?OnDrawIconicThumbnailOrLivePreview@CWnd@@UAEXAAVCDC@@VCRect@@VCSize@@HAAH@Z
	DD	FLAT:?EnsureStdObj@CWnd@@UAEJXZ
	DD	FLAT:?get_accParent@CWnd@@UAEJPAPAUIDispatch@@@Z
	DD	FLAT:?get_accChildCount@CWnd@@UAEJPAJ@Z
	DD	FLAT:?get_accChild@CWnd@@UAEJUtagVARIANT@@PAPAUIDispatch@@@Z
	DD	FLAT:?get_accName@CWnd@@UAEJUtagVARIANT@@PAPA_W@Z
	DD	FLAT:?get_accValue@CWnd@@UAEJUtagVARIANT@@PAPA_W@Z
	DD	FLAT:?get_accDescription@CWnd@@UAEJUtagVARIANT@@PAPA_W@Z
	DD	FLAT:?get_accRole@CWnd@@UAEJUtagVARIANT@@PAU2@@Z
	DD	FLAT:?get_accState@CWnd@@UAEJUtagVARIANT@@PAU2@@Z
	DD	FLAT:?get_accHelp@CWnd@@UAEJUtagVARIANT@@PAPA_W@Z
	DD	FLAT:?get_accHelpTopic@CWnd@@UAEJPAPA_WUtagVARIANT@@PAJ@Z
	DD	FLAT:?get_accKeyboardShortcut@CWnd@@UAEJUtagVARIANT@@PAPA_W@Z
	DD	FLAT:?get_accFocus@CWnd@@UAEJPAUtagVARIANT@@@Z
	DD	FLAT:?get_accSelection@CWnd@@UAEJPAUtagVARIANT@@@Z
	DD	FLAT:?get_accDefaultAction@CWnd@@UAEJUtagVARIANT@@PAPA_W@Z
	DD	FLAT:?accSelect@CWnd@@UAEJJUtagVARIANT@@@Z
	DD	FLAT:?accLocation@CWnd@@UAEJPAJ000UtagVARIANT@@@Z
	DD	FLAT:?accNavigate@CWnd@@UAEJJUtagVARIANT@@PAU2@@Z
	DD	FLAT:?accHitTest@CWnd@@UAEJJJPAUtagVARIANT@@@Z
	DD	FLAT:?accDoDefaultAction@CWnd@@UAEJUtagVARIANT@@@Z
	DD	FLAT:?put_accName@CWnd@@UAEJUtagVARIANT@@PA_W@Z
	DD	FLAT:?put_accValue@CWnd@@UAEJUtagVARIANT@@PA_W@Z
	DD	FLAT:?SetProxy@CWnd@@UAEJPAUIAccessibleProxy@@@Z
	DD	FLAT:?CreateAccessibleProxy@CWnd@@UAEJIJPAJ@Z
	DD	FLAT:?OnCommand@CWnd@@MAEHIJ@Z
	DD	FLAT:?OnNotify@CWnd@@MAEHIJPAJ@Z
	DD	FLAT:?GetSuperWndProcAddr@CWnd@@MAEPAP6GJPAUHWND__@@IIJ@ZXZ
	DD	FLAT:?DoDataExchange@CWnd@@MAEXPAVCDataExchange@@@Z
	DD	FLAT:?BeginModalState@CWnd@@UAEXXZ
	DD	FLAT:?EndModalState@CWnd@@UAEXXZ
	DD	FLAT:?PreTranslateMessage@CWnd@@UAEHPAUtagMSG@@@Z
	DD	FLAT:?OnAmbientProperty@CWnd@@UAEHPAVCOleControlSite@@JPAUtagVARIANT@@@Z
	DD	FLAT:?WindowProc@CWnd@@MAEJIIJ@Z
	DD	FLAT:?OnWndMsg@CWnd@@MAEHIIJPAJ@Z
	DD	FLAT:?DefWindowProcA@CWnd@@MAEJIIJ@Z
	DD	FLAT:?PostNcDestroy@CWnd@@MAEXXZ
	DD	FLAT:?OnChildNotify@CComboBox@@MAEHIIJPAJ@Z
	DD	FLAT:?OnTouchInputs@CWnd@@MAEHIPAUtagTOUCHINPUT@@@Z
	DD	FLAT:?OnTouchInput@CWnd@@MAEHVCPoint@@HHPAUtagTOUCHINPUT@@@Z
	DD	FLAT:?GetGestureStatus@CWnd@@MAEKVCPoint@@@Z
	DD	FLAT:?OnGestureZoom@CWnd@@MAEHVCPoint@@J@Z
	DD	FLAT:?OnGesturePan@CWnd@@MAEHVCPoint@@0@Z
	DD	FLAT:?OnGestureRotate@CWnd@@MAEHVCPoint@@N@Z
	DD	FLAT:?OnGestureTwoFingerTap@CWnd@@MAEHVCPoint@@@Z
	DD	FLAT:?OnGesturePressAndTap@CWnd@@MAEHVCPoint@@J@Z
	DD	FLAT:?ResizeDynamicLayout@CWnd@@MAEXXZ
	DD	FLAT:?CheckAutoCenter@CWnd@@UAEHXZ
	DD	FLAT:?IsFrameWnd@CWnd@@UBEHXZ
	DD	FLAT:?CreateControlContainer@CWnd@@MAEHPAPAVCOleControlContainer@@@Z
	DD	FLAT:?CreateControlSite@CWnd@@MAEHPAVCOleControlContainer@@PAPAVCOleControlSite@@IABU_GUID@@@Z
	DD	FLAT:?SetOccDialogInfo@CWnd@@MAEHPAU_AFX_OCC_DIALOG_INFO@@@Z
	DD	FLAT:?GetOccDialogInfo@CWnd@@MAEPAU_AFX_OCC_DIALOG_INFO@@XZ
	DD	FLAT:?Create@CCheckComboBox@@UAEHKABUtagRECT@@PAVCWnd@@I@Z
	DD	FLAT:?DrawItem@CCheckComboBox@@MAEXPAUtagDRAWITEMSTRUCT@@@Z
	DD	FLAT:?MeasureItem@CCheckComboBox@@MAEXPAUtagMEASUREITEMSTRUCT@@@Z
	DD	FLAT:?CompareItem@CComboBox@@UAEHPAUtagCOMPAREITEMSTRUCT@@@Z
	DD	FLAT:?DeleteItem@CComboBox@@UAEXPAUtagDELETEITEMSTRUCT@@@Z
CONST	ENDS
;	COMDAT ??_R1A@?0A@EA@CComboBox@@8
rdata$r	SEGMENT
??_R1A@?0A@EA@CComboBox@@8 DD FLAT:??_R0?AVCComboBox@@@8 ; CComboBox::`RTTI Base Class Descriptor at (0,-1,0,64)'
	DD	03H
	DD	00H
	DD	0ffffffffH
	DD	00H
	DD	040H
	DD	FLAT:??_R3CComboBox@@8
rdata$r	ENDS
;	COMDAT ??_R2CComboBox@@8
rdata$r	SEGMENT
??_R2CComboBox@@8 DD FLAT:??_R1A@?0A@EA@CComboBox@@8	; CComboBox::`RTTI Base Class Array'
	DD	FLAT:??_R1A@?0A@EA@CWnd@@8
	DD	FLAT:??_R1A@?0A@EA@CCmdTarget@@8
	DD	FLAT:??_R1A@?0A@EA@CObject@@8
rdata$r	ENDS
;	COMDAT ??_R3CComboBox@@8
rdata$r	SEGMENT
??_R3CComboBox@@8 DD 00H				; CComboBox::`RTTI Class Hierarchy Descriptor'
	DD	00H
	DD	04H
	DD	FLAT:??_R2CComboBox@@8
rdata$r	ENDS
;	COMDAT ??_R0?AVCComboBox@@@8
data$rs	SEGMENT
??_R0?AVCComboBox@@@8 DD FLAT:??_7type_info@@6B@	; CComboBox `RTTI Type Descriptor'
	DD	00H
	DB	'.?AVCComboBox@@', 00H
data$rs	ENDS
;	COMDAT ??_R4CComboBox@@6B@
rdata$r	SEGMENT
??_R4CComboBox@@6B@ DD 00H				; CComboBox::`RTTI Complete Object Locator'
	DD	00H
	DD	00H
	DD	FLAT:??_R0?AVCComboBox@@@8
	DD	FLAT:??_R3CComboBox@@8
rdata$r	ENDS
;	COMDAT ??_R2CCmdTarget@@8
rdata$r	SEGMENT
??_R2CCmdTarget@@8 DD FLAT:??_R1A@?0A@EA@CCmdTarget@@8	; CCmdTarget::`RTTI Base Class Array'
	DD	FLAT:??_R1A@?0A@EA@CObject@@8
rdata$r	ENDS
;	COMDAT ??_R3CCmdTarget@@8
rdata$r	SEGMENT
??_R3CCmdTarget@@8 DD 00H				; CCmdTarget::`RTTI Class Hierarchy Descriptor'
	DD	00H
	DD	02H
	DD	FLAT:??_R2CCmdTarget@@8
rdata$r	ENDS
;	COMDAT ??_R0?AVCCmdTarget@@@8
data$rs	SEGMENT
??_R0?AVCCmdTarget@@@8 DD FLAT:??_7type_info@@6B@	; CCmdTarget `RTTI Type Descriptor'
	DD	00H
	DB	'.?AVCCmdTarget@@', 00H
data$rs	ENDS
;	COMDAT ??_R1A@?0A@EA@CCmdTarget@@8
rdata$r	SEGMENT
??_R1A@?0A@EA@CCmdTarget@@8 DD FLAT:??_R0?AVCCmdTarget@@@8 ; CCmdTarget::`RTTI Base Class Descriptor at (0,-1,0,64)'
	DD	01H
	DD	00H
	DD	0ffffffffH
	DD	00H
	DD	040H
	DD	FLAT:??_R3CCmdTarget@@8
rdata$r	ENDS
;	COMDAT ??_R2CWnd@@8
rdata$r	SEGMENT
??_R2CWnd@@8 DD	FLAT:??_R1A@?0A@EA@CWnd@@8		; CWnd::`RTTI Base Class Array'
	DD	FLAT:??_R1A@?0A@EA@CCmdTarget@@8
	DD	FLAT:??_R1A@?0A@EA@CObject@@8
rdata$r	ENDS
;	COMDAT ??_R3CWnd@@8
rdata$r	SEGMENT
??_R3CWnd@@8 DD	00H					; CWnd::`RTTI Class Hierarchy Descriptor'
	DD	00H
	DD	03H
	DD	FLAT:??_R2CWnd@@8
rdata$r	ENDS
;	COMDAT ??_R0?AVCWnd@@@8
data$rs	SEGMENT
??_R0?AVCWnd@@@8 DD FLAT:??_7type_info@@6B@		; CWnd `RTTI Type Descriptor'
	DD	00H
	DB	'.?AVCWnd@@', 00H
data$rs	ENDS
;	COMDAT ??_R1A@?0A@EA@CWnd@@8
rdata$r	SEGMENT
??_R1A@?0A@EA@CWnd@@8 DD FLAT:??_R0?AVCWnd@@@8		; CWnd::`RTTI Base Class Descriptor at (0,-1,0,64)'
	DD	02H
	DD	00H
	DD	0ffffffffH
	DD	00H
	DD	040H
	DD	FLAT:??_R3CWnd@@8
rdata$r	ENDS
;	COMDAT ??_R1A@?0A@EA@CObject@@8
rdata$r	SEGMENT
??_R1A@?0A@EA@CObject@@8 DD FLAT:??_R0?AVCObject@@@8	; CObject::`RTTI Base Class Descriptor at (0,-1,0,64)'
	DD	00H
	DD	00H
	DD	0ffffffffH
	DD	00H
	DD	040H
	DD	FLAT:??_R3CObject@@8
rdata$r	ENDS
;	COMDAT ??_R2CObject@@8
rdata$r	SEGMENT
??_R2CObject@@8 DD FLAT:??_R1A@?0A@EA@CObject@@8	; CObject::`RTTI Base Class Array'
rdata$r	ENDS
;	COMDAT ??_R3CObject@@8
rdata$r	SEGMENT
??_R3CObject@@8 DD 00H					; CObject::`RTTI Class Hierarchy Descriptor'
	DD	00H
	DD	01H
	DD	FLAT:??_R2CObject@@8
rdata$r	ENDS
;	COMDAT ??_R0?AVCObject@@@8
data$rs	SEGMENT
??_R0?AVCObject@@@8 DD FLAT:??_7type_info@@6B@		; CObject `RTTI Type Descriptor'
	DD	00H
	DB	'.?AVCObject@@', 00H
data$rs	ENDS
;	COMDAT ??_7CComboBox@@6B@
CONST	SEGMENT
??_7CComboBox@@6B@ DD FLAT:??_R4CComboBox@@6B@		; CComboBox::`vftable'
	DD	FLAT:?GetRuntimeClass@CComboBox@@UBEPAUCRuntimeClass@@XZ
	DD	FLAT:??_ECComboBox@@UAEPAXI@Z
	DD	FLAT:?Serialize@CObject@@UAEXAAVCArchive@@@Z
	DD	FLAT:?AssertValid@CObject@@UBEXXZ
	DD	FLAT:?Dump@CObject@@UBEXAAVCDumpContext@@@Z
	DD	FLAT:?OnCmdMsg@CCmdTarget@@UAEHIHPAXPAUAFX_CMDHANDLERINFO@@@Z
	DD	FLAT:?OnFinalRelease@CWnd@@UAEXXZ
	DD	FLAT:?IsInvokeAllowed@CCmdTarget@@UAEHJ@Z
	DD	FLAT:?GetDispatchIID@CCmdTarget@@UAEHPAU_GUID@@@Z
	DD	FLAT:?GetTypeInfoCount@CCmdTarget@@UAEIXZ
	DD	FLAT:?GetTypeLibCache@CCmdTarget@@UAEPAVCTypeLibCache@@XZ
	DD	FLAT:?GetTypeLib@CCmdTarget@@UAEJKPAPAUITypeLib@@@Z
	DD	FLAT:?GetMessageMap@CWnd@@MBEPBUAFX_MSGMAP@@XZ
	DD	FLAT:?GetCommandMap@CCmdTarget@@MBEPBUAFX_OLECMDMAP@@XZ
	DD	FLAT:?GetDispatchMap@CCmdTarget@@MBEPBUAFX_DISPMAP@@XZ
	DD	FLAT:?GetConnectionMap@CCmdTarget@@MBEPBUAFX_CONNECTIONMAP@@XZ
	DD	FLAT:?GetInterfaceMap@CWnd@@MBEPBUAFX_INTERFACEMAP@@XZ
	DD	FLAT:?GetEventSinkMap@CCmdTarget@@MBEPBUAFX_EVENTSINKMAP@@XZ
	DD	FLAT:?OnCreateAggregates@CCmdTarget@@UAEHXZ
	DD	FLAT:?GetInterfaceHook@CCmdTarget@@UAEPAUIUnknown@@PBX@Z
	DD	FLAT:?GetExtraConnectionPoints@CCmdTarget@@MAEHPAVCPtrArray@@@Z
	DD	FLAT:?GetConnectionHook@CCmdTarget@@MAEPAUIConnectionPoint@@ABU_GUID@@@Z
	DD	FLAT:?PreSubclassWindow@CWnd@@UAEXXZ
	DD	FLAT:?Create@CWnd@@UAEHPBD0KABUtagRECT@@PAV1@IPAUCCreateContext@@@Z
	DD	FLAT:?CreateEx@CWnd@@UAEHKPBD0KABUtagRECT@@PAV1@IPAX@Z
	DD	FLAT:?CreateEx@CWnd@@UAEHKPBD0KHHHHPAUHWND__@@PAUHMENU__@@PAX@Z
	DD	FLAT:?DestroyWindow@CWnd@@UAEHXZ
	DD	FLAT:?PreCreateWindow@CWnd@@UAEHAAUtagCREATESTRUCTA@@@Z
	DD	FLAT:?CalcWindowRect@CWnd@@UAEXPAUtagRECT@@I@Z
	DD	FLAT:?GetMenu@CWnd@@UBEPAVCMenu@@XZ
	DD	FLAT:?SetMenu@CWnd@@UAEHPAVCMenu@@@Z
	DD	FLAT:?OnToolHitTest@CWnd@@UBEHVCPoint@@PAUtagTOOLINFOA@@@Z
	DD	FLAT:?GetScrollBarCtrl@CWnd@@UBEPAVCScrollBar@@H@Z
	DD	FLAT:?WinHelpA@CWnd@@UAEXKI@Z
	DD	FLAT:?HtmlHelpA@CWnd@@UAEXKI@Z
	DD	FLAT:?WinHelpInternal@CWnd@@UAEXKI@Z
	DD	FLAT:?ContinueModal@CWnd@@UAEHXZ
	DD	FLAT:?EndModalLoop@CWnd@@UAEXH@Z
	DD	FLAT:?OnDrawIconicThumbnailOrLivePreview@CWnd@@UAEXAAVCDC@@VCRect@@VCSize@@HAAH@Z
	DD	FLAT:?EnsureStdObj@CWnd@@UAEJXZ
	DD	FLAT:?get_accParent@CWnd@@UAEJPAPAUIDispatch@@@Z
	DD	FLAT:?get_accChildCount@CWnd@@UAEJPAJ@Z
	DD	FLAT:?get_accChild@CWnd@@UAEJUtagVARIANT@@PAPAUIDispatch@@@Z
	DD	FLAT:?get_accName@CWnd@@UAEJUtagVARIANT@@PAPA_W@Z
	DD	FLAT:?get_accValue@CWnd@@UAEJUtagVARIANT@@PAPA_W@Z
	DD	FLAT:?get_accDescription@CWnd@@UAEJUtagVARIANT@@PAPA_W@Z
	DD	FLAT:?get_accRole@CWnd@@UAEJUtagVARIANT@@PAU2@@Z
	DD	FLAT:?get_accState@CWnd@@UAEJUtagVARIANT@@PAU2@@Z
	DD	FLAT:?get_accHelp@CWnd@@UAEJUtagVARIANT@@PAPA_W@Z
	DD	FLAT:?get_accHelpTopic@CWnd@@UAEJPAPA_WUtagVARIANT@@PAJ@Z
	DD	FLAT:?get_accKeyboardShortcut@CWnd@@UAEJUtagVARIANT@@PAPA_W@Z
	DD	FLAT:?get_accFocus@CWnd@@UAEJPAUtagVARIANT@@@Z
	DD	FLAT:?get_accSelection@CWnd@@UAEJPAUtagVARIANT@@@Z
	DD	FLAT:?get_accDefaultAction@CWnd@@UAEJUtagVARIANT@@PAPA_W@Z
	DD	FLAT:?accSelect@CWnd@@UAEJJUtagVARIANT@@@Z
	DD	FLAT:?accLocation@CWnd@@UAEJPAJ000UtagVARIANT@@@Z
	DD	FLAT:?accNavigate@CWnd@@UAEJJUtagVARIANT@@PAU2@@Z
	DD	FLAT:?accHitTest@CWnd@@UAEJJJPAUtagVARIANT@@@Z
	DD	FLAT:?accDoDefaultAction@CWnd@@UAEJUtagVARIANT@@@Z
	DD	FLAT:?put_accName@CWnd@@UAEJUtagVARIANT@@PA_W@Z
	DD	FLAT:?put_accValue@CWnd@@UAEJUtagVARIANT@@PA_W@Z
	DD	FLAT:?SetProxy@CWnd@@UAEJPAUIAccessibleProxy@@@Z
	DD	FLAT:?CreateAccessibleProxy@CWnd@@UAEJIJPAJ@Z
	DD	FLAT:?OnCommand@CWnd@@MAEHIJ@Z
	DD	FLAT:?OnNotify@CWnd@@MAEHIJPAJ@Z
	DD	FLAT:?GetSuperWndProcAddr@CWnd@@MAEPAP6GJPAUHWND__@@IIJ@ZXZ
	DD	FLAT:?DoDataExchange@CWnd@@MAEXPAVCDataExchange@@@Z
	DD	FLAT:?BeginModalState@CWnd@@UAEXXZ
	DD	FLAT:?EndModalState@CWnd@@UAEXXZ
	DD	FLAT:?PreTranslateMessage@CWnd@@UAEHPAUtagMSG@@@Z
	DD	FLAT:?OnAmbientProperty@CWnd@@UAEHPAVCOleControlSite@@JPAUtagVARIANT@@@Z
	DD	FLAT:?WindowProc@CWnd@@MAEJIIJ@Z
	DD	FLAT:?OnWndMsg@CWnd@@MAEHIIJPAJ@Z
	DD	FLAT:?DefWindowProcA@CWnd@@MAEJIIJ@Z
	DD	FLAT:?PostNcDestroy@CWnd@@MAEXXZ
	DD	FLAT:?OnChildNotify@CComboBox@@MAEHIIJPAJ@Z
	DD	FLAT:?OnTouchInputs@CWnd@@MAEHIPAUtagTOUCHINPUT@@@Z
	DD	FLAT:?OnTouchInput@CWnd@@MAEHVCPoint@@HHPAUtagTOUCHINPUT@@@Z
	DD	FLAT:?GetGestureStatus@CWnd@@MAEKVCPoint@@@Z
	DD	FLAT:?OnGestureZoom@CWnd@@MAEHVCPoint@@J@Z
	DD	FLAT:?OnGesturePan@CWnd@@MAEHVCPoint@@0@Z
	DD	FLAT:?OnGestureRotate@CWnd@@MAEHVCPoint@@N@Z
	DD	FLAT:?OnGestureTwoFingerTap@CWnd@@MAEHVCPoint@@@Z
	DD	FLAT:?OnGesturePressAndTap@CWnd@@MAEHVCPoint@@J@Z
	DD	FLAT:?ResizeDynamicLayout@CWnd@@MAEXXZ
	DD	FLAT:?CheckAutoCenter@CWnd@@UAEHXZ
	DD	FLAT:?IsFrameWnd@CWnd@@UBEHXZ
	DD	FLAT:?CreateControlContainer@CWnd@@MAEHPAPAVCOleControlContainer@@@Z
	DD	FLAT:?CreateControlSite@CWnd@@MAEHPAVCOleControlContainer@@PAPAVCOleControlSite@@IABU_GUID@@@Z
	DD	FLAT:?SetOccDialogInfo@CWnd@@MAEHPAU_AFX_OCC_DIALOG_INFO@@@Z
	DD	FLAT:?GetOccDialogInfo@CWnd@@MAEPAU_AFX_OCC_DIALOG_INFO@@XZ
	DD	FLAT:?Create@CComboBox@@UAEHKABUtagRECT@@PAVCWnd@@I@Z
	DD	FLAT:?DrawItem@CComboBox@@UAEXPAUtagDRAWITEMSTRUCT@@@Z
	DD	FLAT:?MeasureItem@CComboBox@@UAEXPAUtagMEASUREITEMSTRUCT@@@Z
	DD	FLAT:?CompareItem@CComboBox@@UAEHPAUtagCOMPAREITEMSTRUCT@@@Z
	DD	FLAT:?DeleteItem@CComboBox@@UAEXPAUtagDELETEITEMSTRUCT@@@Z
CONST	ENDS
;	COMDAT ??_C@_00CNPNBAHC@@
CONST	SEGMENT
??_C@_00CNPNBAHC@@ DB 00H				; `string'
CONST	ENDS
;	COMDAT xdata$x
xdata$x	SEGMENT
__unwindtable$?AddItemText@CCheckComboBox@@AAEXABV?$CStringT@DV?$StrTraitMFC_DLL@DV?$ChTraitsCRT@D@ATL@@@@@ATL@@@Z DD 0ffffffffH
	DD	FLAT:__unwindfunclet$?AddItemText@CCheckComboBox@@AAEXABV?$CStringT@DV?$StrTraitMFC_DLL@DV?$ChTraitsCRT@D@ATL@@@@@ATL@@@Z$1
__ehfuncinfo$?AddItemText@CCheckComboBox@@AAEXABV?$CStringT@DV?$StrTraitMFC_DLL@DV?$ChTraitsCRT@D@ATL@@@@@ATL@@@Z DD 019930522H
	DD	01H
	DD	FLAT:__unwindtable$?AddItemText@CCheckComboBox@@AAEXABV?$CStringT@DV?$StrTraitMFC_DLL@DV?$ChTraitsCRT@D@ATL@@@@@ATL@@@Z
	DD	2 DUP(00H)
	DD	2 DUP(00H)
	DD	00H
	DD	01H
xdata$x	ENDS
;	COMDAT xdata$x
xdata$x	SEGMENT
__ehfuncinfo$?ChangeItemText@CCheckComboBox@@AAEXXZ DD 019930522H
	DD	05H
	DD	FLAT:__unwindtable$?ChangeItemText@CCheckComboBox@@AAEXXZ
	DD	2 DUP(00H)
	DD	2 DUP(00H)
	DD	00H
	DD	01H
__unwindtable$?ChangeItemText@CCheckComboBox@@AAEXXZ DD 0ffffffffH
	DD	FLAT:__unwindfunclet$?ChangeItemText@CCheckComboBox@@AAEXXZ$0
	DD	00H
	DD	FLAT:__unwindfunclet$?ChangeItemText@CCheckComboBox@@AAEXXZ$5
	DD	00H
	DD	FLAT:__unwindfunclet$?ChangeItemText@CCheckComboBox@@AAEXXZ$1
	DD	00H
	DD	FLAT:__unwindfunclet$?ChangeItemText@CCheckComboBox@@AAEXXZ$7
	DD	03H
	DD	FLAT:__unwindfunclet$?ChangeItemText@CCheckComboBox@@AAEXXZ$8
xdata$x	ENDS
;	COMDAT xdata$x
xdata$x	SEGMENT
__unwindtable$?MeasureItem@CCheckComboBox@@MAEXPAUtagMEASUREITEMSTRUCT@@@Z DD 0ffffffffH
	DD	FLAT:__unwindfunclet$?MeasureItem@CCheckComboBox@@MAEXPAUtagMEASUREITEMSTRUCT@@@Z$0
__ehfuncinfo$?MeasureItem@CCheckComboBox@@MAEXPAUtagMEASUREITEMSTRUCT@@@Z DD 019930522H
	DD	01H
	DD	FLAT:__unwindtable$?MeasureItem@CCheckComboBox@@MAEXPAUtagMEASUREITEMSTRUCT@@@Z
	DD	2 DUP(00H)
	DD	2 DUP(00H)
	DD	00H
	DD	01H
xdata$x	ENDS
;	COMDAT xdata$x
xdata$x	SEGMENT
__ehfuncinfo$?DrawItem@CCheckComboBox@@MAEXPAUtagDRAWITEMSTRUCT@@@Z DD 019930522H
	DD	05H
	DD	FLAT:__unwindtable$?DrawItem@CCheckComboBox@@MAEXPAUtagDRAWITEMSTRUCT@@@Z
	DD	2 DUP(00H)
	DD	2 DUP(00H)
	DD	00H
	DD	01H
__unwindtable$?DrawItem@CCheckComboBox@@MAEXPAUtagDRAWITEMSTRUCT@@@Z DD 0ffffffffH
	DD	FLAT:__unwindfunclet$?DrawItem@CCheckComboBox@@MAEXPAUtagDRAWITEMSTRUCT@@@Z$0
	DD	00H
	DD	00H
	DD	01H
	DD	00H
	DD	02H
	DD	00H
	DD	00H
	DD	FLAT:__unwindfunclet$?DrawItem@CCheckComboBox@@MAEXPAUtagDRAWITEMSTRUCT@@@Z$5
xdata$x	ENDS
;	COMDAT xdata$x
xdata$x	SEGMENT
__ehfuncinfo$?SetItemCheck@CCheckComboBox@@QAEXABV?$CStringT@DV?$StrTraitMFC_DLL@DV?$ChTraitsCRT@D@ATL@@@@@ATL@@@Z DD 019930522H
	DD	05H
	DD	FLAT:__unwindtable$?SetItemCheck@CCheckComboBox@@QAEXABV?$CStringT@DV?$StrTraitMFC_DLL@DV?$ChTraitsCRT@D@ATL@@@@@ATL@@@Z
	DD	2 DUP(00H)
	DD	2 DUP(00H)
	DD	00H
	DD	01H
__unwindtable$?SetItemCheck@CCheckComboBox@@QAEXABV?$CStringT@DV?$StrTraitMFC_DLL@DV?$ChTraitsCRT@D@ATL@@@@@ATL@@@Z DD 0ffffffffH
	DD	FLAT:__unwindfunclet$?SetItemCheck@CCheckComboBox@@QAEXABV?$CStringT@DV?$StrTraitMFC_DLL@DV?$ChTraitsCRT@D@ATL@@@@@ATL@@@Z$0
	DD	00H
	DD	FLAT:__unwindfunclet$?SetItemCheck@CCheckComboBox@@QAEXABV?$CStringT@DV?$StrTraitMFC_DLL@DV?$ChTraitsCRT@D@ATL@@@@@ATL@@@Z$1
	DD	00H
	DD	FLAT:__unwindfunclet$?SetItemCheck@CCheckComboBox@@QAEXABV?$CStringT@DV?$StrTraitMFC_DLL@DV?$ChTraitsCRT@D@ATL@@@@@ATL@@@Z$2
	DD	02H
	DD	FLAT:__unwindfunclet$?SetItemCheck@CCheckComboBox@@QAEXABV?$CStringT@DV?$StrTraitMFC_DLL@DV?$ChTraitsCRT@D@ATL@@@@@ATL@@@Z$3
	DD	00H
	DD	FLAT:__unwindfunclet$?SetItemCheck@CCheckComboBox@@QAEXABV?$CStringT@DV?$StrTraitMFC_DLL@DV?$ChTraitsCRT@D@ATL@@@@@ATL@@@Z$3
xdata$x	ENDS
;	COMDAT xdata$x
xdata$x	SEGMENT
__unwindtable$??HATL@@YA?AV?$CStringT@DV?$StrTraitMFC_DLL@DV?$ChTraitsCRT@D@ATL@@@@@0@DABV10@@Z DD 0ffffffffH
	DD	FLAT:__unwindfunclet$??HATL@@YA?AV?$CStringT@DV?$StrTraitMFC_DLL@DV?$ChTraitsCRT@D@ATL@@@@@0@DABV10@@Z$0
__ehfuncinfo$??HATL@@YA?AV?$CStringT@DV?$StrTraitMFC_DLL@DV?$ChTraitsCRT@D@ATL@@@@@0@DABV10@@Z DD 019930522H
	DD	01H
	DD	FLAT:__unwindtable$??HATL@@YA?AV?$CStringT@DV?$StrTraitMFC_DLL@DV?$ChTraitsCRT@D@ATL@@@@@0@DABV10@@Z
	DD	2 DUP(00H)
	DD	2 DUP(00H)
	DD	00H
	DD	01H
xdata$x	ENDS
;	COMDAT xdata$x
xdata$x	SEGMENT
__unwindtable$??HATL@@YA?AV?$CStringT@DV?$StrTraitMFC_DLL@DV?$ChTraitsCRT@D@ATL@@@@@0@ABV10@D@Z DD 0ffffffffH
	DD	FLAT:__unwindfunclet$??HATL@@YA?AV?$CStringT@DV?$StrTraitMFC_DLL@DV?$ChTraitsCRT@D@ATL@@@@@0@ABV10@D@Z$0
__ehfuncinfo$??HATL@@YA?AV?$CStringT@DV?$StrTraitMFC_DLL@DV?$ChTraitsCRT@D@ATL@@@@@0@ABV10@D@Z DD 019930522H
	DD	01H
	DD	FLAT:__unwindtable$??HATL@@YA?AV?$CStringT@DV?$StrTraitMFC_DLL@DV?$ChTraitsCRT@D@ATL@@@@@0@ABV10@D@Z
	DD	2 DUP(00H)
	DD	2 DUP(00H)
	DD	00H
	DD	01H
xdata$x	ENDS
; Function compile flags: /Ogtp
; File D:\git\src\IBK\IBK_DRFN\ProjSrc\SrcChartEx\ChartAddIn\ChartDesignPropertyAddIn\ChartDesignPropertyAddIn\CheckComboBox.cpp
; File C:\Program Files (x86)\Microsoft Visual Studio\2019\Community\VC\Tools\MSVC\14.29.30133\atlmfc\include\atltypes.h
; File D:\git\src\IBK\IBK_DRFN\ProjSrc\SrcChartEx\ChartAddIn\ChartDesignPropertyAddIn\ChartDesignPropertyAddIn\CheckComboBox.cpp
; File C:\Program Files (x86)\Microsoft Visual Studio\2019\Community\VC\Tools\MSVC\14.29.30133\atlmfc\include\afxwin2.inl
; File D:\git\src\IBK\IBK_DRFN\ProjSrc\SrcChartEx\ChartAddIn\ChartDesignPropertyAddIn\ChartDesignPropertyAddIn\CheckComboBox.cpp
; File C:\Program Files (x86)\Microsoft Visual Studio\2019\Community\VC\Tools\MSVC\14.29.30133\atlmfc\include\afxwin2.inl
; File D:\git\src\IBK\IBK_DRFN\ProjSrc\SrcChartEx\ChartAddIn\ChartDesignPropertyAddIn\ChartDesignPropertyAddIn\CheckComboBox.cpp
; File C:\Program Files (x86)\Microsoft Visual Studio\2019\Community\VC\Tools\MSVC\14.29.30133\atlmfc\include\afxwin2.inl
; File D:\git\src\IBK\IBK_DRFN\ProjSrc\SrcChartEx\ChartAddIn\ChartDesignPropertyAddIn\ChartDesignPropertyAddIn\CheckComboBox.cpp
; File C:\Program Files (x86)\Microsoft Visual Studio\2019\Community\VC\Tools\MSVC\14.29.30133\atlmfc\include\afxwin2.inl
; File D:\git\src\IBK\IBK_DRFN\ProjSrc\SrcChartEx\ChartAddIn\ChartDesignPropertyAddIn\ChartDesignPropertyAddIn\CheckComboBox.cpp
; File C:\Program Files (x86)\Microsoft Visual Studio\2019\Community\VC\Tools\MSVC\14.29.30133\atlmfc\include\afxwin2.inl
; File D:\git\src\IBK\IBK_DRFN\ProjSrc\SrcChartEx\ChartAddIn\ChartDesignPropertyAddIn\ChartDesignPropertyAddIn\CheckComboBox.cpp
; File C:\Program Files (x86)\Microsoft Visual Studio\2019\Community\VC\Tools\MSVC\14.29.30133\atlmfc\include\atltypes.h
; File D:\git\src\IBK\IBK_DRFN\ProjSrc\SrcChartEx\ChartAddIn\ChartDesignPropertyAddIn\ChartDesignPropertyAddIn\CheckComboBox.cpp
; File C:\Program Files (x86)\Microsoft Visual Studio\2019\Community\VC\Tools\MSVC\14.29.30133\atlmfc\include\atltypes.h
; File D:\git\src\IBK\IBK_DRFN\ProjSrc\SrcChartEx\ChartAddIn\ChartDesignPropertyAddIn\ChartDesignPropertyAddIn\CheckComboBox.cpp
; File C:\Program Files (x86)\Microsoft Visual Studio\2019\Community\VC\Tools\MSVC\14.29.30133\atlmfc\include\afxwin2.inl
; File D:\git\src\IBK\IBK_DRFN\ProjSrc\SrcChartEx\ChartAddIn\ChartDesignPropertyAddIn\ChartDesignPropertyAddIn\CheckComboBox.cpp
; File C:\Program Files (x86)\Microsoft Visual Studio\2019\Community\VC\Tools\MSVC\14.29.30133\atlmfc\include\afxwin2.inl
; File D:\git\src\IBK\IBK_DRFN\ProjSrc\SrcChartEx\ChartAddIn\ChartDesignPropertyAddIn\ChartDesignPropertyAddIn\CheckComboBox.cpp
; File C:\Program Files (x86)\Microsoft Visual Studio\2019\Community\VC\Tools\MSVC\14.29.30133\atlmfc\include\afxwin2.inl
; File D:\git\src\IBK\IBK_DRFN\ProjSrc\SrcChartEx\ChartAddIn\ChartDesignPropertyAddIn\ChartDesignPropertyAddIn\CheckComboBox.cpp
; File C:\Program Files (x86)\Microsoft Visual Studio\2019\Community\VC\Tools\MSVC\14.29.30133\atlmfc\include\afxwin2.inl
; File D:\git\src\IBK\IBK_DRFN\ProjSrc\SrcChartEx\ChartAddIn\ChartDesignPropertyAddIn\ChartDesignPropertyAddIn\CheckComboBox.cpp
; File C:\Program Files (x86)\Microsoft Visual Studio\2019\Community\VC\Tools\MSVC\14.29.30133\atlmfc\include\afxwin2.inl
; File D:\git\src\IBK\IBK_DRFN\ProjSrc\SrcChartEx\ChartAddIn\ChartDesignPropertyAddIn\ChartDesignPropertyAddIn\CheckComboBox.cpp
;	COMDAT _ComboBoxListBoxProc@16
_TEXT	SEGMENT
_hWnd$GSCopy$1$ = -52					; size = 4
_nIndex$1$ = -48					; size = 4
_pt$1$ = -44						; size = 4
_pt$2$ = -40						; size = 4
_rcClient$1 = -36					; size = 16
_rcItem$2 = -20						; size = 16
_rcItem$3 = -20						; size = 16
__$ArrayPad$ = -4					; size = 4
_hWnd$ = 8						; size = 4
_nMsg$ = 12						; size = 4
_wParam$ = 16						; size = 4
_lParam$ = 20						; size = 4
_ComboBoxListBoxProc@16 PROC				; COMDAT

; 39   : {

  00000	55		 push	 ebp
  00001	8b ec		 mov	 ebp, esp
  00003	83 ec 34	 sub	 esp, 52			; 00000034H
  00006	a1 00 00 00 00	 mov	 eax, DWORD PTR ___security_cookie
  0000b	33 c5		 xor	 eax, ebp
  0000d	89 45 fc	 mov	 DWORD PTR __$ArrayPad$[ebp], eax
  00010	53		 push	 ebx

; 40   : 	switch (nMsg) {

  00011	8b 5d 0c	 mov	 ebx, DWORD PTR _nMsg$[ebp]
  00014	56		 push	 esi
  00015	8b 75 10	 mov	 esi, DWORD PTR _wParam$[ebp]
  00018	57		 push	 edi
  00019	8b 7d 08	 mov	 edi, DWORD PTR _hWnd$[ebp]
  0001c	89 7d cc	 mov	 DWORD PTR _hWnd$GSCopy$1$[ebp], edi
  0001f	81 fb 01 02 00
	00		 cmp	 ebx, 513		; 00000201H
  00025	0f 87 26 02 00
	00		 ja	 $LN13@ComboBoxLi
  0002b	0f 84 ea 00 00
	00		 je	 $LN8@ComboBoxLi
  00031	81 fb 02 01 00
	00		 cmp	 ebx, 258		; 00000102H
  00037	74 22		 je	 SHORT $LN6@ComboBoxLi
  00039	81 fb 88 01 00
	00		 cmp	 ebx, 392		; 00000188H
  0003f	0f 85 e7 01 00
	00		 jne	 $LN2@ComboBoxLi

; 140  : }

  00045	5f		 pop	 edi
  00046	5e		 pop	 esi
  00047	83 c8 ff	 or	 eax, -1
  0004a	5b		 pop	 ebx
  0004b	8b 4d fc	 mov	 ecx, DWORD PTR __$ArrayPad$[ebp]
  0004e	33 cd		 xor	 ecx, ebp
  00050	e8 00 00 00 00	 call	 @__security_check_cookie@4
  00055	8b e5		 mov	 esp, ebp
  00057	5d		 pop	 ebp
  00058	c2 10 00	 ret	 16			; 00000010H
$LN6@ComboBoxLi:

; 41   : 		case WM_RBUTTONDOWN: {
; 42   : 			// If you want to select all/unselect all using the
; 43   : 			// right button, remove this ifdef. Personally, I don't really like it
; 44   : 			#if FALSE
; 45   : 
; 46   : 				if (m_pComboBox != 0) {
; 47   : 					INT nCount = m_pComboBox->GetCount();
; 48   : 					INT nSelCount = 0;
; 49   : 
; 50   : 					for (INT i = 0; i < nCount; i++) {
; 51   : 						if (m_pComboBox->GetCheck(i))
; 52   : 							nSelCount++;
; 53   : 					}
; 54   : 
; 55   : 
; 56   : 					m_pComboBox->SelectAll(nSelCount != nCount);
; 57   : 
; 58   : 					// Make sure to invalidate this window as well
; 59   : 					InvalidateRect(hWnd, 0, FALSE);
; 60   : 					m_pComboBox->GetParent()->SendMessage(WM_COMMAND, MAKELONG(GetWindowLong(m_pComboBox->m_hWnd, GWL_ID), CBN_SELCHANGE), (LPARAM)m_pComboBox->m_hWnd);
; 61   : 
; 62   : 				}
; 63   : 			#endif
; 64   : 
; 65   : 			break;
; 66   : 		}
; 67   : 
; 68   : 		// Make the combobox always return -1 as the current selection. This
; 69   : 		// causes the lpDrawItemStruct->itemID in DrawItem() to be -1
; 70   : 		// when the always-visible-portion of the combo is drawn
; 71   : 		case LB_GETCURSEL: {
; 72   : 			return -1;
; 73   : 		}
; 74   : 
; 75   : 
; 76   : 		case WM_CHAR: {
; 77   : 			if (wParam == VK_SPACE) {

  0005b	83 fe 20	 cmp	 esi, 32			; 00000020H
  0005e	0f 85 c8 01 00
	00		 jne	 $LN2@ComboBoxLi

; 78   : 				// Get the current selection
; 79   : 				INT nIndex = CallWindowProcA(m_pWndProc, hWnd, LB_GETCURSEL, wParam, lParam);

  00064	ff 75 14	 push	 DWORD PTR _lParam$[ebp]
  00067	56		 push	 esi
  00068	68 88 01 00 00	 push	 392			; 00000188H
  0006d	57		 push	 edi
  0006e	ff 35 00 00 00
	00		 push	 DWORD PTR ?m_pWndProc@@3P6GJPAUHWND__@@IIJ@ZA
  00074	ff 15 00 00 00
	00		 call	 DWORD PTR __imp__CallWindowProcA@20

; 82   : 				SendMessage(hWnd, LB_GETITEMRECT, nIndex, (LONG)(VOID *)&rcItem);

  0007a	8b 1d 00 00 00
	00		 mov	 ebx, DWORD PTR __imp__SendMessageA@16
  00080	8b f0		 mov	 esi, eax
  00082	8d 45 ec	 lea	 eax, DWORD PTR _rcItem$3[ebp]
  00085	0f 57 c0	 xorps	 xmm0, xmm0
  00088	50		 push	 eax
  00089	56		 push	 esi
  0008a	68 98 01 00 00	 push	 408			; 00000198H
  0008f	57		 push	 edi
; File C:\Program Files (x86)\Microsoft Visual Studio\2019\Community\VC\Tools\MSVC\14.29.30133\atlmfc\include\atltypes.h

; 528  : 	left = 0;

  00090	0f 11 45 ec	 movups	 XMMWORD PTR _rcItem$3[ebp], xmm0
; File D:\git\src\IBK\IBK_DRFN\ProjSrc\SrcChartEx\ChartAddIn\ChartDesignPropertyAddIn\ChartDesignPropertyAddIn\CheckComboBox.cpp

; 82   : 				SendMessage(hWnd, LB_GETITEMRECT, nIndex, (LONG)(VOID *)&rcItem);

  00094	ff d3		 call	 ebx

; 83   : 				InvalidateRect(hWnd, rcItem, FALSE);

  00096	6a 00		 push	 0
  00098	8d 45 ec	 lea	 eax, DWORD PTR _rcItem$3[ebp]
  0009b	50		 push	 eax
  0009c	57		 push	 edi
  0009d	ff 15 00 00 00
	00		 call	 DWORD PTR __imp__InvalidateRect@12
; File C:\Program Files (x86)\Microsoft Visual Studio\2019\Community\VC\Tools\MSVC\14.29.30133\atlmfc\include\afxwin2.inl

; 775  : 	{ ASSERT(::IsWindow(m_hWnd)); return ::SendMessage(m_hWnd, CB_GETITEMDATA, nIndex, 0); }

  000a3	a1 00 00 00 00	 mov	 eax, DWORD PTR ?m_pComboBox@@3PAVCCheckComboBox@@A
  000a8	6a 00		 push	 0
  000aa	56		 push	 esi
  000ab	68 50 01 00 00	 push	 336			; 00000150H
  000b0	ff 70 20	 push	 DWORD PTR [eax+32]
  000b3	ff d3		 call	 ebx
; File D:\git\src\IBK\IBK_DRFN\ProjSrc\SrcChartEx\ChartAddIn\ChartDesignPropertyAddIn\ChartDesignPropertyAddIn\CheckComboBox.cpp

; 86   : 				m_pComboBox->SetCheck(nIndex, !m_pComboBox->GetCheck(nIndex));

  000b5	33 c9		 xor	 ecx, ecx
  000b7	85 c0		 test	 eax, eax
  000b9	0f 94 c1	 sete	 cl
  000bc	51		 push	 ecx
  000bd	8b 0d 00 00 00
	00		 mov	 ecx, DWORD PTR ?m_pComboBox@@3PAVCCheckComboBox@@A
  000c3	56		 push	 esi
  000c4	e8 00 00 00 00	 call	 ?SetCheck@CCheckComboBox@@QAEHHH@Z ; CCheckComboBox::SetCheck
; File C:\Program Files (x86)\Microsoft Visual Studio\2019\Community\VC\Tools\MSVC\14.29.30133\atlmfc\include\afxwin2.inl

; 213  : 	{ ASSERT(::IsWindow(m_hWnd)); return CWnd::FromHandle(::GetParent(m_hWnd)); }

  000c9	a1 00 00 00 00	 mov	 eax, DWORD PTR ?m_pComboBox@@3PAVCCheckComboBox@@A
  000ce	ff 70 20	 push	 DWORD PTR [eax+32]
  000d1	ff 15 00 00 00
	00		 call	 DWORD PTR __imp__GetParent@4
  000d7	50		 push	 eax
  000d8	e8 00 00 00 00	 call	 ?FromHandle@CWnd@@SGPAV1@PAUHWND__@@@Z ; CWnd::FromHandle
; File D:\git\src\IBK\IBK_DRFN\ProjSrc\SrcChartEx\ChartAddIn\ChartDesignPropertyAddIn\ChartDesignPropertyAddIn\CheckComboBox.cpp

; 89   : 				m_pComboBox->GetParent()->SendMessage(WM_COMMAND, MAKELONG(GetWindowLong(m_pComboBox->m_hWnd, GWL_ID), CBN_SELCHANGE), (LPARAM)m_pComboBox->m_hWnd);

  000dd	8b 0d 00 00 00
	00		 mov	 ecx, DWORD PTR ?m_pComboBox@@3PAVCCheckComboBox@@A
; File C:\Program Files (x86)\Microsoft Visual Studio\2019\Community\VC\Tools\MSVC\14.29.30133\atlmfc\include\afxwin2.inl

; 213  : 	{ ASSERT(::IsWindow(m_hWnd)); return CWnd::FromHandle(::GetParent(m_hWnd)); }

  000e3	8b f8		 mov	 edi, eax
; File D:\git\src\IBK\IBK_DRFN\ProjSrc\SrcChartEx\ChartAddIn\ChartDesignPropertyAddIn\ChartDesignPropertyAddIn\CheckComboBox.cpp

; 89   : 				m_pComboBox->GetParent()->SendMessage(WM_COMMAND, MAKELONG(GetWindowLong(m_pComboBox->m_hWnd, GWL_ID), CBN_SELCHANGE), (LPARAM)m_pComboBox->m_hWnd);

  000e5	6a f4		 push	 -12			; fffffff4H
  000e7	8b 71 20	 mov	 esi, DWORD PTR [ecx+32]
  000ea	56		 push	 esi
  000eb	ff 15 00 00 00
	00		 call	 DWORD PTR __imp__GetWindowLongA@8
  000f1	0f b7 c8	 movzx	 ecx, ax
; File C:\Program Files (x86)\Microsoft Visual Studio\2019\Community\VC\Tools\MSVC\14.29.30133\atlmfc\include\afxwin2.inl

; 32   : 	{ ASSERT(::IsWindow(m_hWnd)); return ::SendMessage(m_hWnd, message, wParam, lParam); }

  000f4	56		 push	 esi
; File D:\git\src\IBK\IBK_DRFN\ProjSrc\SrcChartEx\ChartAddIn\ChartDesignPropertyAddIn\ChartDesignPropertyAddIn\CheckComboBox.cpp

; 89   : 				m_pComboBox->GetParent()->SendMessage(WM_COMMAND, MAKELONG(GetWindowLong(m_pComboBox->m_hWnd, GWL_ID), CBN_SELCHANGE), (LPARAM)m_pComboBox->m_hWnd);

  000f5	81 c9 00 00 01
	00		 or	 ecx, 65536		; 00010000H
; File C:\Program Files (x86)\Microsoft Visual Studio\2019\Community\VC\Tools\MSVC\14.29.30133\atlmfc\include\afxwin2.inl

; 32   : 	{ ASSERT(::IsWindow(m_hWnd)); return ::SendMessage(m_hWnd, message, wParam, lParam); }

  000fb	51		 push	 ecx
  000fc	68 11 01 00 00	 push	 273			; 00000111H
  00101	ff 77 20	 push	 DWORD PTR [edi+32]
  00104	ff d3		 call	 ebx
$LN11@ComboBoxLi:
  00106	5f		 pop	 edi
; File D:\git\src\IBK\IBK_DRFN\ProjSrc\SrcChartEx\ChartAddIn\ChartDesignPropertyAddIn\ChartDesignPropertyAddIn\CheckComboBox.cpp

; 140  : }

  00107	5e		 pop	 esi
  00108	33 c0		 xor	 eax, eax
  0010a	5b		 pop	 ebx
  0010b	8b 4d fc	 mov	 ecx, DWORD PTR __$ArrayPad$[ebp]
  0010e	33 cd		 xor	 ecx, ebp
  00110	e8 00 00 00 00	 call	 @__security_check_cookie@4
  00115	8b e5		 mov	 esp, ebp
  00117	5d		 pop	 ebp
  00118	c2 10 00	 ret	 16			; 00000010H
$LN8@ComboBoxLi:

; 100  : 			GetClientRect(hWnd, rcClient);

  0011b	8d 45 dc	 lea	 eax, DWORD PTR _rcClient$1[ebp]
  0011e	0f 57 c0	 xorps	 xmm0, xmm0
  00121	50		 push	 eax
  00122	57		 push	 edi
; File C:\Program Files (x86)\Microsoft Visual Studio\2019\Community\VC\Tools\MSVC\14.29.30133\atlmfc\include\atltypes.h

; 528  : 	left = 0;

  00123	0f 11 45 dc	 movups	 XMMWORD PTR _rcClient$1[ebp], xmm0
; File D:\git\src\IBK\IBK_DRFN\ProjSrc\SrcChartEx\ChartAddIn\ChartDesignPropertyAddIn\ChartDesignPropertyAddIn\CheckComboBox.cpp

; 100  : 			GetClientRect(hWnd, rcClient);

  00127	ff 15 00 00 00
	00		 call	 DWORD PTR __imp__GetClientRect@8

; 101  : 
; 102  : 			CPoint pt;
; 103  : 			pt.x = LOWORD(lParam);

  0012d	8b 45 14	 mov	 eax, DWORD PTR _lParam$[ebp]
  00130	0f b7 c8	 movzx	 ecx, ax

; 104  : 			pt.y = HIWORD(lParam);

  00133	c1 e8 10	 shr	 eax, 16			; 00000010H

; 105  : 
; 106  : 
; 107  : 			if (PtInRect(rcClient, pt)) {

  00136	50		 push	 eax
  00137	89 45 d8	 mov	 DWORD PTR _pt$2$[ebp], eax
  0013a	8d 45 dc	 lea	 eax, DWORD PTR _rcClient$1[ebp]
  0013d	51		 push	 ecx
  0013e	50		 push	 eax
  0013f	89 4d d4	 mov	 DWORD PTR _pt$1$[ebp], ecx
  00142	ff 15 00 00 00
	00		 call	 DWORD PTR __imp__PtInRect@12
  00148	85 c0		 test	 eax, eax
  0014a	0f 84 dc 00 00
	00		 je	 $LN2@ComboBoxLi

; 108  : 				INT nItemHeight = SendMessage(hWnd, LB_GETITEMHEIGHT, 0, 0);

  00150	6a 00		 push	 0
  00152	6a 00		 push	 0
  00154	68 a1 01 00 00	 push	 417			; 000001a1H
  00159	57		 push	 edi
  0015a	ff 15 00 00 00
	00		 call	 DWORD PTR __imp__SendMessageA@16

; 109  : 				INT nTopIndex   = SendMessage(hWnd, LB_GETTOPINDEX, 0, 0);

  00160	6a 00		 push	 0
  00162	6a 00		 push	 0
  00164	68 8e 01 00 00	 push	 398			; 0000018eH
  00169	8b f0		 mov	 esi, eax
  0016b	a1 00 00 00 00	 mov	 eax, DWORD PTR __imp__SendMessageA@16
  00170	57		 push	 edi
  00171	ff d0		 call	 eax
  00173	8b c8		 mov	 ecx, eax
  00175	0f 57 c0	 xorps	 xmm0, xmm0
  00178	8b 45 d8	 mov	 eax, DWORD PTR _pt$2$[ebp]
  0017b	99		 cdq
  0017c	f7 fe		 idiv	 esi

; 115  : 				SendMessage(hWnd, LB_GETITEMRECT, nIndex, (LONG)(VOID *)&rcItem);

  0017e	8b 35 00 00 00
	00		 mov	 esi, DWORD PTR __imp__SendMessageA@16
  00184	03 c8		 add	 ecx, eax
  00186	8d 45 ec	 lea	 eax, DWORD PTR _rcItem$2[ebp]
  00189	50		 push	 eax
  0018a	51		 push	 ecx
  0018b	68 98 01 00 00	 push	 408			; 00000198H
  00190	57		 push	 edi
  00191	89 4d d0	 mov	 DWORD PTR _nIndex$1$[ebp], ecx
; File C:\Program Files (x86)\Microsoft Visual Studio\2019\Community\VC\Tools\MSVC\14.29.30133\atlmfc\include\atltypes.h

; 528  : 	left = 0;

  00194	0f 11 45 ec	 movups	 XMMWORD PTR _rcItem$2[ebp], xmm0
; File D:\git\src\IBK\IBK_DRFN\ProjSrc\SrcChartEx\ChartAddIn\ChartDesignPropertyAddIn\ChartDesignPropertyAddIn\CheckComboBox.cpp

; 115  : 				SendMessage(hWnd, LB_GETITEMRECT, nIndex, (LONG)(VOID *)&rcItem);

  00198	ff d6		 call	 esi

; 116  : 
; 117  : 				if (PtInRect(rcItem, pt)) {

  0019a	ff 75 d8	 push	 DWORD PTR _pt$2$[ebp]
  0019d	8d 45 ec	 lea	 eax, DWORD PTR _rcItem$2[ebp]
  001a0	ff 75 d4	 push	 DWORD PTR _pt$1$[ebp]
  001a3	50		 push	 eax
  001a4	ff 15 00 00 00
	00		 call	 DWORD PTR __imp__PtInRect@12
  001aa	85 c0		 test	 eax, eax
  001ac	74 7b		 je	 SHORT $LN71@ComboBoxLi

; 118  : 					// Invalidate this window
; 119  : 					InvalidateRect(hWnd, rcItem, FALSE);

  001ae	6a 00		 push	 0
  001b0	8d 45 ec	 lea	 eax, DWORD PTR _rcItem$2[ebp]
  001b3	50		 push	 eax
  001b4	57		 push	 edi
  001b5	ff 15 00 00 00
	00		 call	 DWORD PTR __imp__InvalidateRect@12
; File C:\Program Files (x86)\Microsoft Visual Studio\2019\Community\VC\Tools\MSVC\14.29.30133\atlmfc\include\afxwin2.inl

; 775  : 	{ ASSERT(::IsWindow(m_hWnd)); return ::SendMessage(m_hWnd, CB_GETITEMDATA, nIndex, 0); }

  001bb	a1 00 00 00 00	 mov	 eax, DWORD PTR ?m_pComboBox@@3PAVCCheckComboBox@@A
  001c0	8b 7d d0	 mov	 edi, DWORD PTR _nIndex$1$[ebp]
  001c3	6a 00		 push	 0
  001c5	57		 push	 edi
  001c6	68 50 01 00 00	 push	 336			; 00000150H
  001cb	ff 70 20	 push	 DWORD PTR [eax+32]
  001ce	ff d6		 call	 esi
; File D:\git\src\IBK\IBK_DRFN\ProjSrc\SrcChartEx\ChartAddIn\ChartDesignPropertyAddIn\ChartDesignPropertyAddIn\CheckComboBox.cpp

; 120  : 					m_pComboBox->SetCheck(nIndex, !m_pComboBox->GetCheck(nIndex));

  001d0	33 c9		 xor	 ecx, ecx
  001d2	85 c0		 test	 eax, eax
  001d4	0f 94 c1	 sete	 cl
  001d7	51		 push	 ecx
  001d8	8b 0d 00 00 00
	00		 mov	 ecx, DWORD PTR ?m_pComboBox@@3PAVCCheckComboBox@@A
  001de	57		 push	 edi
  001df	e8 00 00 00 00	 call	 ?SetCheck@CCheckComboBox@@QAEHHH@Z ; CCheckComboBox::SetCheck
; File C:\Program Files (x86)\Microsoft Visual Studio\2019\Community\VC\Tools\MSVC\14.29.30133\atlmfc\include\afxwin2.inl

; 213  : 	{ ASSERT(::IsWindow(m_hWnd)); return CWnd::FromHandle(::GetParent(m_hWnd)); }

  001e4	a1 00 00 00 00	 mov	 eax, DWORD PTR ?m_pComboBox@@3PAVCCheckComboBox@@A
  001e9	ff 70 20	 push	 DWORD PTR [eax+32]
  001ec	ff 15 00 00 00
	00		 call	 DWORD PTR __imp__GetParent@4
  001f2	50		 push	 eax
  001f3	e8 00 00 00 00	 call	 ?FromHandle@CWnd@@SGPAV1@PAUHWND__@@@Z ; CWnd::FromHandle
; File D:\git\src\IBK\IBK_DRFN\ProjSrc\SrcChartEx\ChartAddIn\ChartDesignPropertyAddIn\ChartDesignPropertyAddIn\CheckComboBox.cpp

; 123  : 					m_pComboBox->GetParent()->SendMessage(WM_COMMAND, MAKELONG(GetWindowLong(m_pComboBox->m_hWnd, GWL_ID), CBN_SELCHANGE), (LPARAM)m_pComboBox->m_hWnd);

  001f8	8b 0d 00 00 00
	00		 mov	 ecx, DWORD PTR ?m_pComboBox@@3PAVCCheckComboBox@@A
; File C:\Program Files (x86)\Microsoft Visual Studio\2019\Community\VC\Tools\MSVC\14.29.30133\atlmfc\include\afxwin2.inl

; 213  : 	{ ASSERT(::IsWindow(m_hWnd)); return CWnd::FromHandle(::GetParent(m_hWnd)); }

  001fe	8b f8		 mov	 edi, eax
; File D:\git\src\IBK\IBK_DRFN\ProjSrc\SrcChartEx\ChartAddIn\ChartDesignPropertyAddIn\ChartDesignPropertyAddIn\CheckComboBox.cpp

; 123  : 					m_pComboBox->GetParent()->SendMessage(WM_COMMAND, MAKELONG(GetWindowLong(m_pComboBox->m_hWnd, GWL_ID), CBN_SELCHANGE), (LPARAM)m_pComboBox->m_hWnd);

  00200	6a f4		 push	 -12			; fffffff4H
  00202	8b 71 20	 mov	 esi, DWORD PTR [ecx+32]
  00205	56		 push	 esi
  00206	ff 15 00 00 00
	00		 call	 DWORD PTR __imp__GetWindowLongA@8
  0020c	0f b7 c8	 movzx	 ecx, ax
; File C:\Program Files (x86)\Microsoft Visual Studio\2019\Community\VC\Tools\MSVC\14.29.30133\atlmfc\include\afxwin2.inl

; 32   : 	{ ASSERT(::IsWindow(m_hWnd)); return ::SendMessage(m_hWnd, message, wParam, lParam); }

  0020f	a1 00 00 00 00	 mov	 eax, DWORD PTR __imp__SendMessageA@16
; File D:\git\src\IBK\IBK_DRFN\ProjSrc\SrcChartEx\ChartAddIn\ChartDesignPropertyAddIn\ChartDesignPropertyAddIn\CheckComboBox.cpp

; 123  : 					m_pComboBox->GetParent()->SendMessage(WM_COMMAND, MAKELONG(GetWindowLong(m_pComboBox->m_hWnd, GWL_ID), CBN_SELCHANGE), (LPARAM)m_pComboBox->m_hWnd);

  00214	81 c9 00 00 01
	00		 or	 ecx, 65536		; 00010000H
; File C:\Program Files (x86)\Microsoft Visual Studio\2019\Community\VC\Tools\MSVC\14.29.30133\atlmfc\include\afxwin2.inl

; 32   : 	{ ASSERT(::IsWindow(m_hWnd)); return ::SendMessage(m_hWnd, message, wParam, lParam); }

  0021a	56		 push	 esi
  0021b	51		 push	 ecx
  0021c	68 11 01 00 00	 push	 273			; 00000111H
  00221	ff 77 20	 push	 DWORD PTR [edi+32]
  00224	ff d0		 call	 eax
; File D:\git\src\IBK\IBK_DRFN\ProjSrc\SrcChartEx\ChartAddIn\ChartDesignPropertyAddIn\ChartDesignPropertyAddIn\CheckComboBox.cpp

; 129  : 			break;

  00226	8b 7d cc	 mov	 edi, DWORD PTR _hWnd$GSCopy$1$[ebp]
$LN71@ComboBoxLi:

; 130  : 		}
; 131  : 
; 132  : 		case WM_LBUTTONUP: {
; 133  : 			// Don't do anything here. This causes the combobox popup
; 134  : 			// windows to remain open after a selection has been made
; 135  : 			return 0;
; 136  : 		}
; 137  : 	}
; 138  : 
; 139  : 	return CallWindowProc(m_pWndProc, hWnd, nMsg, wParam, lParam);

  00229	8b 75 10	 mov	 esi, DWORD PTR _wParam$[ebp]
$LN2@ComboBoxLi:
  0022c	ff 75 14	 push	 DWORD PTR _lParam$[ebp]
  0022f	56		 push	 esi
  00230	53		 push	 ebx
  00231	57		 push	 edi
  00232	ff 35 00 00 00
	00		 push	 DWORD PTR ?m_pWndProc@@3P6GJPAUHWND__@@IIJ@ZA
  00238	ff 15 00 00 00
	00		 call	 DWORD PTR __imp__CallWindowProcA@20

; 140  : }

  0023e	8b 4d fc	 mov	 ecx, DWORD PTR __$ArrayPad$[ebp]
  00241	5f		 pop	 edi
  00242	5e		 pop	 esi
  00243	33 cd		 xor	 ecx, ebp
  00245	5b		 pop	 ebx
  00246	e8 00 00 00 00	 call	 @__security_check_cookie@4
  0024b	8b e5		 mov	 esp, ebp
  0024d	5d		 pop	 ebp
  0024e	c2 10 00	 ret	 16			; 00000010H
$LN13@ComboBoxLi:

; 40   : 	switch (nMsg) {

  00251	81 fb 02 02 00
	00		 cmp	 ebx, 514		; 00000202H
  00257	0f 84 a9 fe ff
	ff		 je	 $LN11@ComboBoxLi

; 116  : 
; 117  : 				if (PtInRect(rcItem, pt)) {

  0025d	eb cd		 jmp	 SHORT $LN2@ComboBoxLi
_ComboBoxListBoxProc@16 ENDP
_TEXT	ENDS
; Function compile flags: /Ogtp
; File D:\git\src\IBK\IBK_DRFN\ProjSrc\SrcChartEx\ChartAddIn\ChartDesignPropertyAddIn\ChartDesignPropertyAddIn\CheckComboBox.cpp
; File C:\Program Files (x86)\Microsoft Visual Studio\2019\Community\VC\Tools\MSVC\14.29.30133\atlmfc\include\afx.inl
;	COMDAT ??_GCCheckComboBox@@UAEPAXI@Z
_TEXT	SEGMENT
___flags$ = 8						; size = 4
??_GCCheckComboBox@@UAEPAXI@Z PROC			; CCheckComboBox::`scalar deleting destructor', COMDAT
; _this$ = ecx
  00000	55		 push	 ebp
  00001	8b ec		 mov	 ebp, esp
; File D:\git\src\IBK\IBK_DRFN\ProjSrc\SrcChartEx\ChartAddIn\ChartDesignPropertyAddIn\ChartDesignPropertyAddIn\CheckComboBox.cpp

; 156  : {

  00003	56		 push	 esi
  00004	8b f1		 mov	 esi, ecx

; 157  : }

  00006	8d 8e 84 00 00
	00		 lea	 ecx, DWORD PTR [esi+132]
  0000c	c7 06 00 00 00
	00		 mov	 DWORD PTR [esi], OFFSET ??_7CCheckComboBox@@6B@
  00012	ff 15 00 00 00
	00		 call	 DWORD PTR __imp_??1?$CStringT@DV?$StrTraitMFC_DLL@DV?$ChTraitsCRT@D@ATL@@@@@ATL@@QAE@XZ
  00018	8b ce		 mov	 ecx, esi
  0001a	e8 00 00 00 00	 call	 ??1CComboBox@@UAE@XZ	; CComboBox::~CComboBox
  0001f	8b 45 08	 mov	 eax, DWORD PTR ___flags$[ebp]
  00022	a8 01		 test	 al, 1
  00024	74 22		 je	 SHORT $LN12@scalar
  00026	a8 04		 test	 al, 4
  00028	75 10		 jne	 SHORT $LN3@scalar
; File C:\Program Files (x86)\Microsoft Visual Studio\2019\Community\VC\Tools\MSVC\14.29.30133\atlmfc\include\afx.inl

; 112  : 	{ ::operator delete(p); }

  0002a	56		 push	 esi
  0002b	e8 00 00 00 00	 call	 ??3@YAXPAX@Z		; operator delete
  00030	83 c4 04	 add	 esp, 4
  00033	8b c6		 mov	 eax, esi
  00035	5e		 pop	 esi
  00036	5d		 pop	 ebp
  00037	c2 04 00	 ret	 4
$LN3@scalar:
  0003a	68 98 00 00 00	 push	 152			; 00000098H
  0003f	56		 push	 esi
  00040	e8 00 00 00 00	 call	 ?__global_delete@@YAXPAXI@Z ; __global_delete
  00045	83 c4 08	 add	 esp, 8
$LN12@scalar:
  00048	8b c6		 mov	 eax, esi
  0004a	5e		 pop	 esi
  0004b	5d		 pop	 ebp
  0004c	c2 04 00	 ret	 4
??_GCCheckComboBox@@UAEPAXI@Z ENDP			; CCheckComboBox::`scalar deleting destructor'
_TEXT	ENDS
; Function compile flags: /Ogtp
; File D:\git\src\IBK\IBK_DRFN\ProjSrc\SrcChartEx\ChartAddIn\ChartDesignPropertyAddIn\ChartDesignPropertyAddIn\CheckComboBox.cpp
; File C:\Program Files (x86)\Microsoft Visual Studio\2019\Community\VC\Tools\MSVC\14.29.30133\atlmfc\include\atlsimpstr.h
; File D:\git\src\IBK\IBK_DRFN\ProjSrc\SrcChartEx\ChartAddIn\ChartDesignPropertyAddIn\ChartDesignPropertyAddIn\CheckComboBox.cpp
; File C:\Program Files (x86)\Microsoft Visual Studio\2019\Community\VC\Tools\MSVC\14.29.30133\atlmfc\include\atlsimpstr.h
; File D:\git\src\IBK\IBK_DRFN\ProjSrc\SrcChartEx\ChartAddIn\ChartDesignPropertyAddIn\ChartDesignPropertyAddIn\CheckComboBox.cpp
; File C:\Program Files (x86)\Microsoft Visual Studio\2019\Community\VC\Tools\MSVC\14.29.30133\atlmfc\include\atlsimpstr.h
; File D:\git\src\IBK\IBK_DRFN\ProjSrc\SrcChartEx\ChartAddIn\ChartDesignPropertyAddIn\ChartDesignPropertyAddIn\CheckComboBox.cpp
; File C:\Program Files (x86)\Microsoft Visual Studio\2019\Community\VC\Tools\MSVC\14.29.30133\atlmfc\include\atlsimpstr.h
; File C:\Program Files (x86)\Microsoft Visual Studio\2019\Community\VC\Tools\MSVC\14.29.30133\atlmfc\include\cstringt.h
; File D:\git\src\IBK\IBK_DRFN\ProjSrc\SrcChartEx\ChartAddIn\ChartDesignPropertyAddIn\ChartDesignPropertyAddIn\CheckComboBox.cpp
;	COMDAT ?AddItemText@CCheckComboBox@@AAEXABV?$CStringT@DV?$StrTraitMFC_DLL@DV?$ChTraitsCRT@D@ATL@@@@@ATL@@@Z
_TEXT	SEGMENT
$T2 = -16						; size = 4
__$EHRec$ = -12						; size = 12
$T3 = 8							; size = 4
_strItemName$ = 8					; size = 4
?AddItemText@CCheckComboBox@@AAEXABV?$CStringT@DV?$StrTraitMFC_DLL@DV?$ChTraitsCRT@D@ATL@@@@@ATL@@@Z PROC ; CCheckComboBox::AddItemText, COMDAT
; _this$ = ecx

; 521  : {

  00000	55		 push	 ebp
  00001	8b ec		 mov	 ebp, esp
  00003	6a ff		 push	 -1
  00005	68 00 00 00 00	 push	 __ehhandler$?AddItemText@CCheckComboBox@@AAEXABV?$CStringT@DV?$StrTraitMFC_DLL@DV?$ChTraitsCRT@D@ATL@@@@@ATL@@@Z
  0000a	64 a1 00 00 00
	00		 mov	 eax, DWORD PTR fs:0
  00010	50		 push	 eax
  00011	51		 push	 ecx
  00012	56		 push	 esi
  00013	57		 push	 edi
  00014	a1 00 00 00 00	 mov	 eax, DWORD PTR ___security_cookie
  00019	33 c5		 xor	 eax, ebp
  0001b	50		 push	 eax
  0001c	8d 45 f4	 lea	 eax, DWORD PTR __$EHRec$[ebp]
  0001f	64 a3 00 00 00
	00		 mov	 DWORD PTR fs:0, eax
; File C:\Program Files (x86)\Microsoft Visual Studio\2019\Community\VC\Tools\MSVC\14.29.30133\atlmfc\include\atlsimpstr.h

; 519  : 		return( GetData()->nDataLength );

  00025	8b 7d 08	 mov	 edi, DWORD PTR _strItemName$[ebp]
  00028	8b 07		 mov	 eax, DWORD PTR [edi]

; 533  : 		return( GetLength() == 0 );

  0002a	83 78 f4 00	 cmp	 DWORD PTR [eax-12], 0
; File D:\git\src\IBK\IBK_DRFN\ProjSrc\SrcChartEx\ChartAddIn\ChartDesignPropertyAddIn\ChartDesignPropertyAddIn\CheckComboBox.cpp

; 522  : 	if(strItemName.IsEmpty())

  0002e	0f 84 96 00 00
	00		 je	 $LN4@AddItemTex
; File C:\Program Files (x86)\Microsoft Visual Studio\2019\Community\VC\Tools\MSVC\14.29.30133\atlmfc\include\atlsimpstr.h

; 519  : 		return( GetData()->nDataLength );

  00034	8b 81 84 00 00
	00		 mov	 eax, DWORD PTR [ecx+132]

; 800  : 		return( reinterpret_cast< CStringData* >( m_pszData )-1 );

  0003a	8d b1 84 00 00
	00		 lea	 esi, DWORD PTR [ecx+132]
; File D:\git\src\IBK\IBK_DRFN\ProjSrc\SrcChartEx\ChartAddIn\ChartDesignPropertyAddIn\ChartDesignPropertyAddIn\CheckComboBox.cpp

; 525  : 	if(m_strText.IsEmpty()){

  00040	8b ce		 mov	 ecx, esi
; File C:\Program Files (x86)\Microsoft Visual Studio\2019\Community\VC\Tools\MSVC\14.29.30133\atlmfc\include\atlsimpstr.h

; 533  : 		return( GetLength() == 0 );

  00042	83 78 f4 00	 cmp	 DWORD PTR [eax-12], 0
; File D:\git\src\IBK\IBK_DRFN\ProjSrc\SrcChartEx\ChartAddIn\ChartDesignPropertyAddIn\ChartDesignPropertyAddIn\CheckComboBox.cpp

; 525  : 	if(m_strText.IsEmpty()){

  00046	75 1a		 jne	 SHORT $LN3@AddItemTex

; 526  : 		m_strText = strItemName;

  00048	57		 push	 edi
  00049	ff 15 00 00 00
	00		 call	 DWORD PTR __imp_??4?$CStringT@DV?$StrTraitMFC_DLL@DV?$ChTraitsCRT@D@ATL@@@@@ATL@@QAEAAV01@ABV01@@Z

; 532  : 	}
; 533  : }

  0004f	8b 4d f4	 mov	 ecx, DWORD PTR __$EHRec$[ebp]
  00052	64 89 0d 00 00
	00 00		 mov	 DWORD PTR fs:0, ecx
  00059	59		 pop	 ecx
  0005a	5f		 pop	 edi
  0005b	5e		 pop	 esi
  0005c	8b e5		 mov	 esp, ebp
  0005e	5d		 pop	 ebp
  0005f	c2 04 00	 ret	 4
$LN3@AddItemTex:

; 527  : 	}
; 528  : 	else{
; 529  : 		if(m_strText.Right(1) != ',')

  00062	6a 01		 push	 1
  00064	8d 45 08	 lea	 eax, DWORD PTR $T3[ebp]
  00067	50		 push	 eax
  00068	ff 15 00 00 00
	00		 call	 DWORD PTR __imp_?Right@?$CStringT@DV?$StrTraitMFC_DLL@DV?$ChTraitsCRT@D@ATL@@@@@ATL@@QBE?AV12@H@Z
; File C:\Program Files (x86)\Microsoft Visual Studio\2019\Community\VC\Tools\MSVC\14.29.30133\atlmfc\include\atlsimpstr.h

; 519  : 		return( GetData()->nDataLength );

  0006e	8b 08		 mov	 ecx, DWORD PTR [eax]
; File C:\Program Files (x86)\Microsoft Visual Studio\2019\Community\VC\Tools\MSVC\14.29.30133\atlmfc\include\cstringt.h

; 2699 : 		return((str1.GetLength() != 1) || (str1[0] != ch2));

  00070	83 79 f4 01	 cmp	 DWORD PTR [ecx-12], 1
  00074	75 19		 jne	 SHORT $LN23@AddItemTex
  00076	6a 00		 push	 0
  00078	8b c8		 mov	 ecx, eax
  0007a	ff 15 00 00 00
	00		 call	 DWORD PTR __imp_??A?$CSimpleStringT@D$00@ATL@@QBEDH@Z
  00080	3c 2c		 cmp	 al, 44			; 0000002cH
  00082	75 0b		 jne	 SHORT $LN23@AddItemTex
  00084	8d 4d 08	 lea	 ecx, DWORD PTR $T3[ebp]
  00087	ff 15 00 00 00
	00		 call	 DWORD PTR __imp_??1?$CStringT@DV?$StrTraitMFC_DLL@DV?$ChTraitsCRT@D@ATL@@@@@ATL@@QAE@XZ
  0008d	eb 13		 jmp	 SHORT $LN5@AddItemTex
$LN23@AddItemTex:
  0008f	8d 4d 08	 lea	 ecx, DWORD PTR $T3[ebp]
  00092	ff 15 00 00 00
	00		 call	 DWORD PTR __imp_??1?$CStringT@DV?$StrTraitMFC_DLL@DV?$ChTraitsCRT@D@ATL@@@@@ATL@@QAE@XZ
; File D:\git\src\IBK\IBK_DRFN\ProjSrc\SrcChartEx\ChartAddIn\ChartDesignPropertyAddIn\ChartDesignPropertyAddIn\CheckComboBox.cpp

; 530  : 			m_strText += ',';

  00098	6a 2c		 push	 44			; 0000002cH
  0009a	8b ce		 mov	 ecx, esi
  0009c	ff 15 00 00 00
	00		 call	 DWORD PTR __imp_??Y?$CStringT@DV?$StrTraitMFC_DLL@DV?$ChTraitsCRT@D@ATL@@@@@ATL@@QAEAAV01@D@Z
$LN5@AddItemTex:

; 531  : 		m_strText += (strItemName + ',');

  000a2	6a 2c		 push	 44			; 0000002cH
  000a4	8d 45 f0	 lea	 eax, DWORD PTR $T2[ebp]
  000a7	57		 push	 edi
  000a8	50		 push	 eax
  000a9	e8 00 00 00 00	 call	 ??HATL@@YA?AV?$CStringT@DV?$StrTraitMFC_DLL@DV?$ChTraitsCRT@D@ATL@@@@@0@ABV10@D@Z ; ATL::operator+
  000ae	83 c4 0c	 add	 esp, 12			; 0000000cH
  000b1	50		 push	 eax
  000b2	8b ce		 mov	 ecx, esi
  000b4	c7 45 fc 00 00
	00 00		 mov	 DWORD PTR __$EHRec$[ebp+8], 0
  000bb	ff 15 00 00 00
	00		 call	 DWORD PTR __imp_??Y?$CStringT@DV?$StrTraitMFC_DLL@DV?$ChTraitsCRT@D@ATL@@@@@ATL@@QAEAAV01@ABV?$CSimpleStringT@D$00@1@@Z
  000c1	8d 4d f0	 lea	 ecx, DWORD PTR $T2[ebp]
  000c4	ff 15 00 00 00
	00		 call	 DWORD PTR __imp_??1?$CStringT@DV?$StrTraitMFC_DLL@DV?$ChTraitsCRT@D@ATL@@@@@ATL@@QAE@XZ
$LN4@AddItemTex:

; 532  : 	}
; 533  : }

  000ca	8b 4d f4	 mov	 ecx, DWORD PTR __$EHRec$[ebp]
  000cd	64 89 0d 00 00
	00 00		 mov	 DWORD PTR fs:0, ecx
  000d4	59		 pop	 ecx
  000d5	5f		 pop	 edi
  000d6	5e		 pop	 esi
  000d7	8b e5		 mov	 esp, ebp
  000d9	5d		 pop	 ebp
  000da	c2 04 00	 ret	 4
_TEXT	ENDS
;	COMDAT text$x
text$x	SEGMENT
__unwindfunclet$?AddItemText@CCheckComboBox@@AAEXABV?$CStringT@DV?$StrTraitMFC_DLL@DV?$ChTraitsCRT@D@ATL@@@@@ATL@@@Z$1:
  00000	8d 4d f0	 lea	 ecx, DWORD PTR $T2[ebp]
  00003	ff 25 00 00 00
	00		 jmp	 DWORD PTR __imp_??1?$CStringT@DV?$StrTraitMFC_DLL@DV?$ChTraitsCRT@D@ATL@@@@@ATL@@QAE@XZ
  00009	cc		 int	 3
  0000a	cc		 int	 3
  0000b	cc		 int	 3
  0000c	cc		 int	 3
  0000d	cc		 int	 3
__ehhandler$?AddItemText@CCheckComboBox@@AAEXABV?$CStringT@DV?$StrTraitMFC_DLL@DV?$ChTraitsCRT@D@ATL@@@@@ATL@@@Z:
  0000e	90		 npad	 1
  0000f	90		 npad	 1
  00010	8b 54 24 08	 mov	 edx, DWORD PTR [esp+8]
  00014	8d 42 0c	 lea	 eax, DWORD PTR [edx+12]
  00017	8b 4a f0	 mov	 ecx, DWORD PTR [edx-16]
  0001a	33 c8		 xor	 ecx, eax
  0001c	e8 00 00 00 00	 call	 @__security_check_cookie@4
  00021	b8 00 00 00 00	 mov	 eax, OFFSET __ehfuncinfo$?AddItemText@CCheckComboBox@@AAEXABV?$CStringT@DV?$StrTraitMFC_DLL@DV?$ChTraitsCRT@D@ATL@@@@@ATL@@@Z
  00026	e9 00 00 00 00	 jmp	 ___CxxFrameHandler3
text$x	ENDS
?AddItemText@CCheckComboBox@@AAEXABV?$CStringT@DV?$StrTraitMFC_DLL@DV?$ChTraitsCRT@D@ATL@@@@@ATL@@@Z ENDP ; CCheckComboBox::AddItemText
; Function compile flags: /Ogtp
; File D:\git\src\IBK\IBK_DRFN\ProjSrc\SrcChartEx\ChartAddIn\ChartDesignPropertyAddIn\ChartDesignPropertyAddIn\CheckComboBox.cpp
; File C:\Program Files (x86)\Microsoft Visual Studio\2019\Community\VC\Tools\MSVC\14.29.30133\atlmfc\include\afxwin2.inl
; File D:\git\src\IBK\IBK_DRFN\ProjSrc\SrcChartEx\ChartAddIn\ChartDesignPropertyAddIn\ChartDesignPropertyAddIn\CheckComboBox.cpp
; File C:\Program Files (x86)\Microsoft Visual Studio\2019\Community\VC\Tools\MSVC\14.29.30133\atlmfc\include\atlsimpstr.h
; File D:\git\src\IBK\IBK_DRFN\ProjSrc\SrcChartEx\ChartAddIn\ChartDesignPropertyAddIn\ChartDesignPropertyAddIn\CheckComboBox.cpp
; File C:\Program Files (x86)\Microsoft Visual Studio\2019\Community\VC\Tools\MSVC\14.29.30133\atlmfc\include\afxwin2.inl
; File D:\git\src\IBK\IBK_DRFN\ProjSrc\SrcChartEx\ChartAddIn\ChartDesignPropertyAddIn\ChartDesignPropertyAddIn\CheckComboBox.cpp
; File C:\Program Files (x86)\Microsoft Visual Studio\2019\Community\VC\Tools\MSVC\14.29.30133\atlmfc\include\afxwin2.inl
; File D:\git\src\IBK\IBK_DRFN\ProjSrc\SrcChartEx\ChartAddIn\ChartDesignPropertyAddIn\ChartDesignPropertyAddIn\CheckComboBox.cpp
; File C:\Program Files (x86)\Microsoft Visual Studio\2019\Community\VC\Tools\MSVC\14.29.30133\atlmfc\include\atlsimpstr.h
; File D:\git\src\IBK\IBK_DRFN\ProjSrc\SrcChartEx\ChartAddIn\ChartDesignPropertyAddIn\ChartDesignPropertyAddIn\CheckComboBox.cpp
; File C:\Program Files (x86)\Microsoft Visual Studio\2019\Community\VC\Tools\MSVC\14.29.30133\atlmfc\include\atlsimpstr.h
; File D:\git\src\IBK\IBK_DRFN\ProjSrc\SrcChartEx\ChartAddIn\ChartDesignPropertyAddIn\ChartDesignPropertyAddIn\CheckComboBox.cpp
; File C:\Program Files (x86)\Microsoft Visual Studio\2019\Community\VC\Tools\MSVC\14.29.30133\atlmfc\include\atlsimpstr.h
; File D:\git\src\IBK\IBK_DRFN\ProjSrc\SrcChartEx\ChartAddIn\ChartDesignPropertyAddIn\ChartDesignPropertyAddIn\CheckComboBox.cpp
; File C:\Program Files (x86)\Microsoft Visual Studio\2019\Community\VC\Tools\MSVC\14.29.30133\atlmfc\include\atlsimpstr.h
; File C:\Program Files (x86)\Microsoft Visual Studio\2019\Community\VC\Tools\MSVC\14.29.30133\atlmfc\include\cstringt.h
; File D:\git\src\IBK\IBK_DRFN\ProjSrc\SrcChartEx\ChartAddIn\ChartDesignPropertyAddIn\ChartDesignPropertyAddIn\CheckComboBox.cpp
; File C:\Program Files (x86)\Microsoft Visual Studio\2019\Community\VC\Tools\MSVC\14.29.30133\atlmfc\include\cstringt.h
; File D:\git\src\IBK\IBK_DRFN\ProjSrc\SrcChartEx\ChartAddIn\ChartDesignPropertyAddIn\ChartDesignPropertyAddIn\CheckComboBox.cpp
; File C:\Program Files (x86)\Microsoft Visual Studio\2019\Community\VC\Tools\MSVC\14.29.30133\atlmfc\include\cstringt.h
; File D:\git\src\IBK\IBK_DRFN\ProjSrc\SrcChartEx\ChartAddIn\ChartDesignPropertyAddIn\ChartDesignPropertyAddIn\CheckComboBox.cpp
; File C:\Program Files (x86)\Microsoft Visual Studio\2019\Community\VC\Tools\MSVC\14.29.30133\atlmfc\include\cstringt.h
; File D:\git\src\IBK\IBK_DRFN\ProjSrc\SrcChartEx\ChartAddIn\ChartDesignPropertyAddIn\ChartDesignPropertyAddIn\CheckComboBox.cpp
; File C:\Program Files (x86)\Microsoft Visual Studio\2019\Community\VC\Tools\MSVC\14.29.30133\atlmfc\include\cstringt.h
; File D:\git\src\IBK\IBK_DRFN\ProjSrc\SrcChartEx\ChartAddIn\ChartDesignPropertyAddIn\ChartDesignPropertyAddIn\CheckComboBox.cpp
; File C:\Program Files (x86)\Microsoft Visual Studio\2019\Community\VC\Tools\MSVC\14.29.30133\atlmfc\include\cstringt.h
; File D:\git\src\IBK\IBK_DRFN\ProjSrc\SrcChartEx\ChartAddIn\ChartDesignPropertyAddIn\ChartDesignPropertyAddIn\CheckComboBox.cpp
; File C:\Program Files (x86)\Microsoft Visual Studio\2019\Community\VC\Tools\MSVC\14.29.30133\atlmfc\include\cstringt.h
; File D:\git\src\IBK\IBK_DRFN\ProjSrc\SrcChartEx\ChartAddIn\ChartDesignPropertyAddIn\ChartDesignPropertyAddIn\CheckComboBox.cpp
; File C:\Program Files (x86)\Microsoft Visual Studio\2019\Community\VC\Tools\MSVC\14.29.30133\atlmfc\include\cstringt.h
; File C:\Program Files (x86)\Microsoft Visual Studio\2019\Community\VC\Tools\MSVC\14.29.30133\atlmfc\include\atlsimpstr.h
; File C:\Program Files (x86)\Microsoft Visual Studio\2019\Community\VC\Tools\MSVC\14.29.30133\atlmfc\include\cstringt.h
; File D:\git\src\IBK\IBK_DRFN\ProjSrc\SrcChartEx\ChartAddIn\ChartDesignPropertyAddIn\ChartDesignPropertyAddIn\CheckComboBox.cpp
; File C:\Program Files (x86)\Microsoft Visual Studio\2019\Community\VC\Tools\MSVC\14.29.30133\atlmfc\include\cstringt.h
; File C:\Program Files (x86)\Microsoft Visual Studio\2019\Community\VC\Tools\MSVC\14.29.30133\atlmfc\include\atlsimpstr.h
; File C:\Program Files (x86)\Microsoft Visual Studio\2019\Community\VC\Tools\MSVC\14.29.30133\atlmfc\include\cstringt.h
; File D:\git\src\IBK\IBK_DRFN\ProjSrc\SrcChartEx\ChartAddIn\ChartDesignPropertyAddIn\ChartDesignPropertyAddIn\CheckComboBox.cpp
; File C:\Program Files (x86)\Microsoft Visual Studio\2019\Community\VC\Tools\MSVC\14.29.30133\atlmfc\include\afxwin2.inl
; File D:\git\src\IBK\IBK_DRFN\ProjSrc\SrcChartEx\ChartAddIn\ChartDesignPropertyAddIn\ChartDesignPropertyAddIn\CheckComboBox.cpp
; File C:\Program Files (x86)\Microsoft Visual Studio\2019\Community\VC\Tools\MSVC\14.29.30133\atlmfc\include\afxwin2.inl
; File D:\git\src\IBK\IBK_DRFN\ProjSrc\SrcChartEx\ChartAddIn\ChartDesignPropertyAddIn\ChartDesignPropertyAddIn\CheckComboBox.cpp
;	COMDAT ?ChangeItemText@CCheckComboBox@@AAEXXZ
_TEXT	SEGMENT
$T2 = -48						; size = 4
$T3 = -44						; size = 4
_this$1$ = -40						; size = 4
$T4 = -36						; size = 4
$T5 = -32						; size = 4
$T6 = -28						; size = 4
$T7 = -24						; size = 4
_strItemName$8 = -20					; size = 4
_chTemp$9 = -15						; size = 1
_chTemp$10 = -14					; size = 1
$T11 = -13						; size = 1
__$EHRec$ = -12						; size = 12
?ChangeItemText@CCheckComboBox@@AAEXXZ PROC		; CCheckComboBox::ChangeItemText, COMDAT
; _this$ = ecx

; 475  : {

  00000	55		 push	 ebp
  00001	8b ec		 mov	 ebp, esp
  00003	6a ff		 push	 -1
  00005	68 00 00 00 00	 push	 __ehhandler$?ChangeItemText@CCheckComboBox@@AAEXXZ
  0000a	64 a1 00 00 00
	00		 mov	 eax, DWORD PTR fs:0
  00010	50		 push	 eax
  00011	83 ec 24	 sub	 esp, 36			; 00000024H
  00014	53		 push	 ebx
  00015	56		 push	 esi
  00016	57		 push	 edi
  00017	a1 00 00 00 00	 mov	 eax, DWORD PTR ___security_cookie
  0001c	33 c5		 xor	 eax, ebp
  0001e	50		 push	 eax
  0001f	8d 45 f4	 lea	 eax, DWORD PTR __$EHRec$[ebp]
  00022	64 a3 00 00 00
	00		 mov	 DWORD PTR fs:0, eax
  00028	8b f1		 mov	 esi, ecx
  0002a	89 75 d8	 mov	 DWORD PTR _this$1$[ebp], esi
  0002d	33 db		 xor	 ebx, ebx
  0002f	89 5d e4	 mov	 DWORD PTR $T6[ebp], ebx

; 476  : 	if(m_bTextUpdated)

  00032	39 9e 88 00 00
	00		 cmp	 DWORD PTR [esi+136], ebx
  00038	0f 85 a7 02 00
	00		 jne	 $LN3@ChangeItem

; 479  : 	for(int i = 0; i < GetCount(); i++){

  0003e	33 ff		 xor	 edi, edi
; File C:\Program Files (x86)\Microsoft Visual Studio\2019\Community\VC\Tools\MSVC\14.29.30133\atlmfc\include\afxwin2.inl

; 763  : 	{ ASSERT(::IsWindow(m_hWnd)); return (int)::SendMessage(m_hWnd, CB_GETCOUNT, 0, 0); }

  00040	57		 push	 edi
  00041	57		 push	 edi
  00042	68 46 01 00 00	 push	 326			; 00000146H
  00047	ff 76 20	 push	 DWORD PTR [esi+32]
  0004a	ff 15 00 00 00
	00		 call	 DWORD PTR __imp__SendMessageA@16
; File D:\git\src\IBK\IBK_DRFN\ProjSrc\SrcChartEx\ChartAddIn\ChartDesignPropertyAddIn\ChartDesignPropertyAddIn\CheckComboBox.cpp

; 479  : 	for(int i = 0; i < GetCount(); i++){

  00050	85 c0		 test	 eax, eax
  00052	0f 8e 8d 02 00
	00		 jle	 $LN3@ChangeItem
  00058	0f 1f 84 00 00
	00 00 00	 npad	 8
$LL4@ChangeItem:

; 480  : 		CString strItemName;

  00060	8d 4d ec	 lea	 ecx, DWORD PTR _strItemName$8[ebp]
  00063	ff 15 00 00 00
	00		 call	 DWORD PTR __imp_??0?$CStringT@DV?$StrTraitMFC_DLL@DV?$ChTraitsCRT@D@ATL@@@@@ATL@@QAE@XZ

; 481  : 		GetLBText(i, strItemName);

  00069	8d 45 ec	 lea	 eax, DWORD PTR _strItemName$8[ebp]
  0006c	c7 45 fc 00 00
	00 00		 mov	 DWORD PTR __$EHRec$[ebp+8], 0
  00073	50		 push	 eax
  00074	57		 push	 edi
  00075	8b ce		 mov	 ecx, esi
  00077	e8 00 00 00 00	 call	 ?GetLBText@CComboBox@@QBEXHAAV?$CStringT@DV?$StrTraitMFC_DLL@DV?$ChTraitsCRT@D@ATL@@@@@ATL@@@Z ; CComboBox::GetLBText
; File C:\Program Files (x86)\Microsoft Visual Studio\2019\Community\VC\Tools\MSVC\14.29.30133\atlmfc\include\atlsimpstr.h

; 519  : 		return( GetData()->nDataLength );

  0007c	8b 45 ec	 mov	 eax, DWORD PTR _strItemName$8[ebp]

; 533  : 		return( GetLength() == 0 );

  0007f	83 78 f4 00	 cmp	 DWORD PTR [eax-12], 0
; File D:\git\src\IBK\IBK_DRFN\ProjSrc\SrcChartEx\ChartAddIn\ChartDesignPropertyAddIn\ChartDesignPropertyAddIn\CheckComboBox.cpp

; 482  : 		if(strItemName.IsEmpty())

  00083	75 15		 jne	 SHORT $LN6@ChangeItem

; 483  : 			continue;

  00085	8d 4d ec	 lea	 ecx, DWORD PTR _strItemName$8[ebp]
  00088	c7 45 fc ff ff
	ff ff		 mov	 DWORD PTR __$EHRec$[ebp+8], -1
  0008f	ff 15 00 00 00
	00		 call	 DWORD PTR __imp_??1?$CStringT@DV?$StrTraitMFC_DLL@DV?$ChTraitsCRT@D@ATL@@@@@ATL@@QAE@XZ
  00095	e9 0f 02 00 00	 jmp	 $LN2@ChangeItem
$LN6@ChangeItem:
; File C:\Program Files (x86)\Microsoft Visual Studio\2019\Community\VC\Tools\MSVC\14.29.30133\atlmfc\include\afxwin2.inl

; 775  : 	{ ASSERT(::IsWindow(m_hWnd)); return ::SendMessage(m_hWnd, CB_GETITEMDATA, nIndex, 0); }

  0009a	8b 45 d8	 mov	 eax, DWORD PTR _this$1$[ebp]
; File D:\git\src\IBK\IBK_DRFN\ProjSrc\SrcChartEx\ChartAddIn\ChartDesignPropertyAddIn\ChartDesignPropertyAddIn\CheckComboBox.cpp

; 485  : 		bool bChecked = GetItemData(i) > 0 ? true: false;

  0009d	81 c6 84 00 00
	00		 add	 esi, 132		; 00000084H
; File C:\Program Files (x86)\Microsoft Visual Studio\2019\Community\VC\Tools\MSVC\14.29.30133\atlmfc\include\afxwin2.inl

; 775  : 	{ ASSERT(::IsWindow(m_hWnd)); return ::SendMessage(m_hWnd, CB_GETITEMDATA, nIndex, 0); }

  000a3	6a 00		 push	 0
  000a5	57		 push	 edi
  000a6	68 50 01 00 00	 push	 336			; 00000150H
  000ab	ff 70 20	 push	 DWORD PTR [eax+32]
  000ae	ff 15 00 00 00
	00		 call	 DWORD PTR __imp__SendMessageA@16
; File D:\git\src\IBK\IBK_DRFN\ProjSrc\SrcChartEx\ChartAddIn\ChartDesignPropertyAddIn\ChartDesignPropertyAddIn\CheckComboBox.cpp

; 486  : 		if(bChecked){

  000b4	8b ce		 mov	 ecx, esi
  000b6	85 c0		 test	 eax, eax
  000b8	0f 84 a0 00 00
	00		 je	 $LN7@ChangeItem

; 487  : 			if(m_strText.Find(strItemName) < 0)

  000be	6a 00		 push	 0
  000c0	ff 75 ec	 push	 DWORD PTR _strItemName$8[ebp]
  000c3	ff 15 00 00 00
	00		 call	 DWORD PTR __imp_?Find@?$CStringT@DV?$StrTraitMFC_DLL@DV?$ChTraitsCRT@D@ATL@@@@@ATL@@QBEHPBDH@Z
  000c9	85 c0		 test	 eax, eax
  000cb	0f 89 c5 01 00
	00		 jns	 $LN13@ChangeItem
; File C:\Program Files (x86)\Microsoft Visual Studio\2019\Community\VC\Tools\MSVC\14.29.30133\atlmfc\include\atlsimpstr.h

; 519  : 		return( GetData()->nDataLength );

  000d1	8b 45 ec	 mov	 eax, DWORD PTR _strItemName$8[ebp]

; 533  : 		return( GetLength() == 0 );

  000d4	83 78 f4 00	 cmp	 DWORD PTR [eax-12], 0
; File D:\git\src\IBK\IBK_DRFN\ProjSrc\SrcChartEx\ChartAddIn\ChartDesignPropertyAddIn\ChartDesignPropertyAddIn\CheckComboBox.cpp

; 522  : 	if(strItemName.IsEmpty())

  000d8	0f 84 b8 01 00
	00		 je	 $LN13@ChangeItem
; File C:\Program Files (x86)\Microsoft Visual Studio\2019\Community\VC\Tools\MSVC\14.29.30133\atlmfc\include\atlsimpstr.h

; 519  : 		return( GetData()->nDataLength );

  000de	8b 06		 mov	 eax, DWORD PTR [esi]
; File D:\git\src\IBK\IBK_DRFN\ProjSrc\SrcChartEx\ChartAddIn\ChartDesignPropertyAddIn\ChartDesignPropertyAddIn\CheckComboBox.cpp

; 525  : 	if(m_strText.IsEmpty()){

  000e0	8b ce		 mov	 ecx, esi
; File C:\Program Files (x86)\Microsoft Visual Studio\2019\Community\VC\Tools\MSVC\14.29.30133\atlmfc\include\atlsimpstr.h

; 533  : 		return( GetLength() == 0 );

  000e2	83 78 f4 00	 cmp	 DWORD PTR [eax-12], 0
; File D:\git\src\IBK\IBK_DRFN\ProjSrc\SrcChartEx\ChartAddIn\ChartDesignPropertyAddIn\ChartDesignPropertyAddIn\CheckComboBox.cpp

; 525  : 	if(m_strText.IsEmpty()){

  000e6	75 0f		 jne	 SHORT $LN37@ChangeItem

; 526  : 		m_strText = strItemName;

  000e8	8d 45 ec	 lea	 eax, DWORD PTR _strItemName$8[ebp]
  000eb	50		 push	 eax
  000ec	ff 15 00 00 00
	00		 call	 DWORD PTR __imp_??4?$CStringT@DV?$StrTraitMFC_DLL@DV?$ChTraitsCRT@D@ATL@@@@@ATL@@QAEAAV01@ABV01@@Z

; 527  : 	}

  000f2	e9 9f 01 00 00	 jmp	 $LN13@ChangeItem
$LN37@ChangeItem:

; 528  : 	else{
; 529  : 		if(m_strText.Right(1) != ',')

  000f7	6a 01		 push	 1
  000f9	8d 45 dc	 lea	 eax, DWORD PTR $T4[ebp]
  000fc	50		 push	 eax
  000fd	ff 15 00 00 00
	00		 call	 DWORD PTR __imp_?Right@?$CStringT@DV?$StrTraitMFC_DLL@DV?$ChTraitsCRT@D@ATL@@@@@ATL@@QBE?AV12@H@Z
; File C:\Program Files (x86)\Microsoft Visual Studio\2019\Community\VC\Tools\MSVC\14.29.30133\atlmfc\include\atlsimpstr.h

; 519  : 		return( GetData()->nDataLength );

  00103	8b 08		 mov	 ecx, DWORD PTR [eax]
; File C:\Program Files (x86)\Microsoft Visual Studio\2019\Community\VC\Tools\MSVC\14.29.30133\atlmfc\include\cstringt.h

; 2699 : 		return((str1.GetLength() != 1) || (str1[0] != ch2));

  00105	83 79 f4 01	 cmp	 DWORD PTR [ecx-12], 1
  00109	75 19		 jne	 SHORT $LN57@ChangeItem
  0010b	6a 00		 push	 0
  0010d	8b c8		 mov	 ecx, eax
  0010f	ff 15 00 00 00
	00		 call	 DWORD PTR __imp_??A?$CSimpleStringT@D$00@ATL@@QBEDH@Z
  00115	3c 2c		 cmp	 al, 44			; 0000002cH
  00117	75 0b		 jne	 SHORT $LN57@ChangeItem
  00119	8d 4d dc	 lea	 ecx, DWORD PTR $T4[ebp]
  0011c	ff 15 00 00 00
	00		 call	 DWORD PTR __imp_??1?$CStringT@DV?$StrTraitMFC_DLL@DV?$ChTraitsCRT@D@ATL@@@@@ATL@@QAE@XZ
  00122	eb 13		 jmp	 SHORT $LN39@ChangeItem
$LN57@ChangeItem:
  00124	8d 4d dc	 lea	 ecx, DWORD PTR $T4[ebp]
  00127	ff 15 00 00 00
	00		 call	 DWORD PTR __imp_??1?$CStringT@DV?$StrTraitMFC_DLL@DV?$ChTraitsCRT@D@ATL@@@@@ATL@@QAE@XZ
; File D:\git\src\IBK\IBK_DRFN\ProjSrc\SrcChartEx\ChartAddIn\ChartDesignPropertyAddIn\ChartDesignPropertyAddIn\CheckComboBox.cpp

; 530  : 			m_strText += ',';

  0012d	6a 2c		 push	 44			; 0000002cH
  0012f	8b ce		 mov	 ecx, esi
  00131	ff 15 00 00 00
	00		 call	 DWORD PTR __imp_??Y?$CStringT@DV?$StrTraitMFC_DLL@DV?$ChTraitsCRT@D@ATL@@@@@ATL@@QAEAAV01@D@Z
$LN39@ChangeItem:

; 531  : 		m_strText += (strItemName + ',');

  00137	6a 2c		 push	 44			; 0000002cH
  00139	8d 45 ec	 lea	 eax, DWORD PTR _strItemName$8[ebp]
  0013c	50		 push	 eax
  0013d	8d 45 d4	 lea	 eax, DWORD PTR $T3[ebp]
  00140	50		 push	 eax
  00141	e8 00 00 00 00	 call	 ??HATL@@YA?AV?$CStringT@DV?$StrTraitMFC_DLL@DV?$ChTraitsCRT@D@ATL@@@@@0@ABV10@D@Z ; ATL::operator+
  00146	83 c4 0c	 add	 esp, 12			; 0000000cH
  00149	50		 push	 eax
  0014a	8b ce		 mov	 ecx, esi
  0014c	c6 45 fc 01	 mov	 BYTE PTR __$EHRec$[ebp+8], 1
  00150	ff 15 00 00 00
	00		 call	 DWORD PTR __imp_??Y?$CStringT@DV?$StrTraitMFC_DLL@DV?$ChTraitsCRT@D@ATL@@@@@ATL@@QAEAAV01@ABV?$CSimpleStringT@D$00@1@@Z
  00156	8d 4d d4	 lea	 ecx, DWORD PTR $T3[ebp]

; 488  : 				AddItemText(strItemName);
; 489  : 		}

  00159	e9 32 01 00 00	 jmp	 $LN114@ChangeItem
$LN7@ChangeItem:
; File C:\Program Files (x86)\Microsoft Visual Studio\2019\Community\VC\Tools\MSVC\14.29.30133\atlmfc\include\cstringt.h

; 2479 : 		return(str1.Compare(str2) == 0);

  0015e	ff 75 ec	 push	 DWORD PTR _strItemName$8[ebp]
  00161	ff 15 00 00 00
	00		 call	 DWORD PTR __imp_?Compare@?$CStringT@DV?$StrTraitMFC_DLL@DV?$ChTraitsCRT@D@ATL@@@@@ATL@@QBEHPBD@Z
  00167	85 c0		 test	 eax, eax
; File D:\git\src\IBK\IBK_DRFN\ProjSrc\SrcChartEx\ChartAddIn\ChartDesignPropertyAddIn\ChartDesignPropertyAddIn\CheckComboBox.cpp

; 493  : 			if(m_strText == strItemName || m_strText == (strItemName + ','))

  00169	74 2e		 je	 SHORT $LN15@ChangeItem
  0016b	6a 2c		 push	 44			; 0000002cH
  0016d	8d 45 ec	 lea	 eax, DWORD PTR _strItemName$8[ebp]
  00170	50		 push	 eax
  00171	8d 45 d0	 lea	 eax, DWORD PTR $T2[ebp]
  00174	50		 push	 eax
  00175	e8 00 00 00 00	 call	 ??HATL@@YA?AV?$CStringT@DV?$StrTraitMFC_DLL@DV?$ChTraitsCRT@D@ATL@@@@@0@ABV10@D@Z ; ATL::operator+
  0017a	83 c4 0c	 add	 esp, 12			; 0000000cH
; File C:\Program Files (x86)\Microsoft Visual Studio\2019\Community\VC\Tools\MSVC\14.29.30133\atlmfc\include\cstringt.h

; 2479 : 		return(str1.Compare(str2) == 0);

  0017d	ff 30		 push	 DWORD PTR [eax]
; File D:\git\src\IBK\IBK_DRFN\ProjSrc\SrcChartEx\ChartAddIn\ChartDesignPropertyAddIn\ChartDesignPropertyAddIn\CheckComboBox.cpp

; 493  : 			if(m_strText == strItemName || m_strText == (strItemName + ','))

  0017f	83 cb 01	 or	 ebx, 1
  00182	c6 45 fc 02	 mov	 BYTE PTR __$EHRec$[ebp+8], 2
; File C:\Program Files (x86)\Microsoft Visual Studio\2019\Community\VC\Tools\MSVC\14.29.30133\atlmfc\include\cstringt.h

; 2479 : 		return(str1.Compare(str2) == 0);

  00186	8b ce		 mov	 ecx, esi
; File D:\git\src\IBK\IBK_DRFN\ProjSrc\SrcChartEx\ChartAddIn\ChartDesignPropertyAddIn\ChartDesignPropertyAddIn\CheckComboBox.cpp

; 493  : 			if(m_strText == strItemName || m_strText == (strItemName + ','))

  00188	89 5d e4	 mov	 DWORD PTR $T6[ebp], ebx
; File C:\Program Files (x86)\Microsoft Visual Studio\2019\Community\VC\Tools\MSVC\14.29.30133\atlmfc\include\cstringt.h

; 2479 : 		return(str1.Compare(str2) == 0);

  0018b	ff 15 00 00 00
	00		 call	 DWORD PTR __imp_?Compare@?$CStringT@DV?$StrTraitMFC_DLL@DV?$ChTraitsCRT@D@ATL@@@@@ATL@@QBEHPBD@Z
; File D:\git\src\IBK\IBK_DRFN\ProjSrc\SrcChartEx\ChartAddIn\ChartDesignPropertyAddIn\ChartDesignPropertyAddIn\CheckComboBox.cpp

; 493  : 			if(m_strText == strItemName || m_strText == (strItemName + ','))

  00191	c6 45 f3 00	 mov	 BYTE PTR $T11[ebp], 0
; File C:\Program Files (x86)\Microsoft Visual Studio\2019\Community\VC\Tools\MSVC\14.29.30133\atlmfc\include\cstringt.h

; 2479 : 		return(str1.Compare(str2) == 0);

  00195	85 c0		 test	 eax, eax
; File D:\git\src\IBK\IBK_DRFN\ProjSrc\SrcChartEx\ChartAddIn\ChartDesignPropertyAddIn\ChartDesignPropertyAddIn\CheckComboBox.cpp

; 493  : 			if(m_strText == strItemName || m_strText == (strItemName + ','))

  00197	75 04		 jne	 SHORT $LN16@ChangeItem
$LN15@ChangeItem:
  00199	c6 45 f3 01	 mov	 BYTE PTR $T11[ebp], 1
$LN16@ChangeItem:
  0019d	c7 45 fc 00 00
	00 00		 mov	 DWORD PTR __$EHRec$[ebp+8], 0
  001a4	f6 c3 01	 test	 bl, 1
  001a7	74 0c		 je	 SHORT $LN20@ChangeItem
  001a9	8d 4d d0	 lea	 ecx, DWORD PTR $T2[ebp]
  001ac	83 e3 fe	 and	 ebx, -2			; fffffffeH
  001af	ff 15 00 00 00
	00		 call	 DWORD PTR __imp_??1?$CStringT@DV?$StrTraitMFC_DLL@DV?$ChTraitsCRT@D@ATL@@@@@ATL@@QAE@XZ
$LN20@ChangeItem:
  001b5	80 7d f3 00	 cmp	 BYTE PTR $T11[ebp], 0
  001b9	8b ce		 mov	 ecx, esi
  001bb	0f 85 15 01 00
	00		 jne	 $LN108@ChangeItem

; 497  : 			}
; 498  : 
; 499  : 			//sy 2004.12.28.
; 500  : 			//   item    
; 501  : 			//packet "Close" "Chart_Close"    .
; 502  : 			int nFindIndex = m_strText.Find(strItemName);

  001c1	6a 00		 push	 0
  001c3	ff 75 ec	 push	 DWORD PTR _strItemName$8[ebp]
  001c6	ff 15 00 00 00
	00		 call	 DWORD PTR __imp_?Find@?$CStringT@DV?$StrTraitMFC_DLL@DV?$ChTraitsCRT@D@ATL@@@@@ATL@@QBEHPBDH@Z

; 503  : 			//  
; 504  : 			if(nFindIndex == 0)

  001cc	85 c0		 test	 eax, eax
  001ce	75 22		 jne	 SHORT $LN115@ChangeItem

; 505  : 			{				
; 506  : 				m_strText.Replace(strItemName, "");

  001d0	68 00 00 00 00	 push	 OFFSET ??_C@_00CNPNBAHC@@
  001d5	ff 75 ec	 push	 DWORD PTR _strItemName$8[ebp]
  001d8	8b ce		 mov	 ecx, esi
  001da	ff 15 00 00 00
	00		 call	 DWORD PTR __imp_?Replace@?$CStringT@DV?$StrTraitMFC_DLL@DV?$ChTraitsCRT@D@ATL@@@@@ATL@@QAEHPBD0@Z

; 507  : 				m_strText.TrimLeft(",");

  001e0	68 00 00 00 00	 push	 OFFSET ??_C@_01IHBHIGKO@?0@
  001e5	8b ce		 mov	 ecx, esi
  001e7	ff 15 00 00 00
	00		 call	 DWORD PTR __imp_?TrimLeft@?$CStringT@DV?$StrTraitMFC_DLL@DV?$ChTraitsCRT@D@ATL@@@@@ATL@@QAEAAV12@PBD@Z

; 508  : 			}

  001ed	e9 a4 00 00 00	 jmp	 $LN13@ChangeItem
$LN115@ChangeItem:

; 509  : 			// / 
; 510  : 			else if(nFindIndex > 0)

  001f2	0f 8e 9e 00 00
	00		 jle	 $LN13@ChangeItem
; File C:\Program Files (x86)\Microsoft Visual Studio\2019\Community\VC\Tools\MSVC\14.29.30133\atlmfc\include\cstringt.h

; 2441 : 		CStringT strResult( str2.GetManager() );

  001f8	8d 4d ec	 lea	 ecx, DWORD PTR _strItemName$8[ebp]
; File D:\git\src\IBK\IBK_DRFN\ProjSrc\SrcChartEx\ChartAddIn\ChartDesignPropertyAddIn\ChartDesignPropertyAddIn\CheckComboBox.cpp

; 512  : 				m_strText.Replace(',' + strItemName + ',', ",");

  001fb	c6 45 fc 03	 mov	 BYTE PTR __$EHRec$[ebp+8], 3
; File C:\Program Files (x86)\Microsoft Visual Studio\2019\Community\VC\Tools\MSVC\14.29.30133\atlmfc\include\cstringt.h

; 2441 : 		CStringT strResult( str2.GetManager() );

  001ff	ff 15 00 00 00
	00		 call	 DWORD PTR __imp_?GetManager@?$CStringT@DV?$StrTraitMFC_DLL@DV?$ChTraitsCRT@D@ATL@@@@@ATL@@QBEPAUIAtlStringMgr@2@XZ
  00205	50		 push	 eax
  00206	8d 4d e8	 lea	 ecx, DWORD PTR $T7[ebp]
  00209	ff 15 00 00 00
	00		 call	 DWORD PTR __imp_??0?$CStringT@DV?$StrTraitMFC_DLL@DV?$ChTraitsCRT@D@ATL@@@@@ATL@@QAE@PAUIAtlStringMgr@1@@Z
; File C:\Program Files (x86)\Microsoft Visual Studio\2019\Community\VC\Tools\MSVC\14.29.30133\atlmfc\include\atlsimpstr.h

; 519  : 		return( GetData()->nDataLength );

  0020f	8b 45 ec	 mov	 eax, DWORD PTR _strItemName$8[ebp]
; File C:\Program Files (x86)\Microsoft Visual Studio\2019\Community\VC\Tools\MSVC\14.29.30133\atlmfc\include\cstringt.h

; 2446 : 		return( strResult );

  00212	83 cb 04	 or	 ebx, 4
  00215	c6 45 f2 2c	 mov	 BYTE PTR _chTemp$10[ebp], 44 ; 0000002cH
  00219	89 5d e4	 mov	 DWORD PTR $T6[ebp], ebx
  0021c	ff 70 f4	 push	 DWORD PTR [eax-12]
  0021f	50		 push	 eax
  00220	6a 01		 push	 1
  00222	8d 45 f2	 lea	 eax, DWORD PTR _chTemp$10[ebp]
  00225	50		 push	 eax
  00226	8d 45 e8	 lea	 eax, DWORD PTR $T7[ebp]
  00229	50		 push	 eax
  0022a	ff 15 00 00 00
	00		 call	 DWORD PTR __imp_?Concatenate@?$CSimpleStringT@D$00@ATL@@KAXAAV12@PBDH1H@Z
  00230	83 c4 14	 add	 esp, 20			; 00000014H

; 2429 : 		CStringT strResult( str1.GetManager() );

  00233	8d 4d e8	 lea	 ecx, DWORD PTR $T7[ebp]
; File D:\git\src\IBK\IBK_DRFN\ProjSrc\SrcChartEx\ChartAddIn\ChartDesignPropertyAddIn\ChartDesignPropertyAddIn\CheckComboBox.cpp

; 512  : 				m_strText.Replace(',' + strItemName + ',', ",");

  00236	c6 45 fc 04	 mov	 BYTE PTR __$EHRec$[ebp+8], 4
; File C:\Program Files (x86)\Microsoft Visual Studio\2019\Community\VC\Tools\MSVC\14.29.30133\atlmfc\include\cstringt.h

; 2429 : 		CStringT strResult( str1.GetManager() );

  0023a	ff 15 00 00 00
	00		 call	 DWORD PTR __imp_?GetManager@?$CStringT@DV?$StrTraitMFC_DLL@DV?$ChTraitsCRT@D@ATL@@@@@ATL@@QBEPAUIAtlStringMgr@2@XZ
  00240	50		 push	 eax
  00241	8d 4d e0	 lea	 ecx, DWORD PTR $T5[ebp]
  00244	ff 15 00 00 00
	00		 call	 DWORD PTR __imp_??0?$CStringT@DV?$StrTraitMFC_DLL@DV?$ChTraitsCRT@D@ATL@@@@@ATL@@QAE@PAUIAtlStringMgr@1@@Z
; File C:\Program Files (x86)\Microsoft Visual Studio\2019\Community\VC\Tools\MSVC\14.29.30133\atlmfc\include\atlsimpstr.h

; 519  : 		return( GetData()->nDataLength );

  0024a	8b 45 e8	 mov	 eax, DWORD PTR $T7[ebp]
; File C:\Program Files (x86)\Microsoft Visual Studio\2019\Community\VC\Tools\MSVC\14.29.30133\atlmfc\include\cstringt.h

; 2432 : 		CThisSimpleString::Concatenate( strResult, str1, str1.GetLength(), &chTemp, 1 );

  0024d	8d 4d f1	 lea	 ecx, DWORD PTR _chTemp$9[ebp]
  00250	6a 01		 push	 1
  00252	51		 push	 ecx
  00253	c6 45 f1 2c	 mov	 BYTE PTR _chTemp$9[ebp], 44 ; 0000002cH

; 2433 : 
; 2434 : 		return( strResult );

  00257	83 cb 08	 or	 ebx, 8
  0025a	ff 70 f4	 push	 DWORD PTR [eax-12]
  0025d	89 5d e4	 mov	 DWORD PTR $T6[ebp], ebx
  00260	50		 push	 eax
  00261	8d 45 e0	 lea	 eax, DWORD PTR $T5[ebp]
  00264	50		 push	 eax
  00265	ff 15 00 00 00
	00		 call	 DWORD PTR __imp_?Concatenate@?$CSimpleStringT@D$00@ATL@@KAXAAV12@PBDH1H@Z
  0026b	83 c4 14	 add	 esp, 20			; 00000014H
; File D:\git\src\IBK\IBK_DRFN\ProjSrc\SrcChartEx\ChartAddIn\ChartDesignPropertyAddIn\ChartDesignPropertyAddIn\CheckComboBox.cpp

; 512  : 				m_strText.Replace(',' + strItemName + ',', ",");

  0026e	8b ce		 mov	 ecx, esi
  00270	68 00 00 00 00	 push	 OFFSET ??_C@_01IHBHIGKO@?0@
  00275	ff 75 e0	 push	 DWORD PTR $T5[ebp]
  00278	ff 15 00 00 00
	00		 call	 DWORD PTR __imp_?Replace@?$CStringT@DV?$StrTraitMFC_DLL@DV?$ChTraitsCRT@D@ATL@@@@@ATL@@QAEHPBD0@Z
  0027e	8d 4d e0	 lea	 ecx, DWORD PTR $T5[ebp]
  00281	83 e3 f7	 and	 ebx, -9			; fffffff7H
  00284	ff 15 00 00 00
	00		 call	 DWORD PTR __imp_??1?$CStringT@DV?$StrTraitMFC_DLL@DV?$ChTraitsCRT@D@ATL@@@@@ATL@@QAE@XZ
  0028a	83 e3 fb	 and	 ebx, -5			; fffffffbH
  0028d	8d 4d e8	 lea	 ecx, DWORD PTR $T7[ebp]
$LN114@ChangeItem:

; 513  : 			}
; 514  : 
; 515  : 			//sy end
; 516  : 		}
; 517  : 	}

  00290	ff 15 00 00 00
	00		 call	 DWORD PTR __imp_??1?$CStringT@DV?$StrTraitMFC_DLL@DV?$ChTraitsCRT@D@ATL@@@@@ATL@@QAE@XZ
$LN13@ChangeItem:
  00296	8d 4d ec	 lea	 ecx, DWORD PTR _strItemName$8[ebp]
  00299	c7 45 fc ff ff
	ff ff		 mov	 DWORD PTR __$EHRec$[ebp+8], -1
  002a0	ff 15 00 00 00
	00		 call	 DWORD PTR __imp_??1?$CStringT@DV?$StrTraitMFC_DLL@DV?$ChTraitsCRT@D@ATL@@@@@ATL@@QAE@XZ
  002a6	8b 75 d8	 mov	 esi, DWORD PTR _this$1$[ebp]
$LN2@ChangeItem:
; File C:\Program Files (x86)\Microsoft Visual Studio\2019\Community\VC\Tools\MSVC\14.29.30133\atlmfc\include\afxwin2.inl

; 763  : 	{ ASSERT(::IsWindow(m_hWnd)); return (int)::SendMessage(m_hWnd, CB_GETCOUNT, 0, 0); }

  002a9	6a 00		 push	 0
  002ab	6a 00		 push	 0
  002ad	68 46 01 00 00	 push	 326			; 00000146H
  002b2	ff 76 20	 push	 DWORD PTR [esi+32]
; File D:\git\src\IBK\IBK_DRFN\ProjSrc\SrcChartEx\ChartAddIn\ChartDesignPropertyAddIn\ChartDesignPropertyAddIn\CheckComboBox.cpp

; 479  : 	for(int i = 0; i < GetCount(); i++){

  002b5	47		 inc	 edi
; File C:\Program Files (x86)\Microsoft Visual Studio\2019\Community\VC\Tools\MSVC\14.29.30133\atlmfc\include\afxwin2.inl

; 763  : 	{ ASSERT(::IsWindow(m_hWnd)); return (int)::SendMessage(m_hWnd, CB_GETCOUNT, 0, 0); }

  002b6	ff 15 00 00 00
	00		 call	 DWORD PTR __imp__SendMessageA@16
; File D:\git\src\IBK\IBK_DRFN\ProjSrc\SrcChartEx\ChartAddIn\ChartDesignPropertyAddIn\ChartDesignPropertyAddIn\CheckComboBox.cpp

; 479  : 	for(int i = 0; i < GetCount(); i++){

  002bc	3b f8		 cmp	 edi, eax
  002be	0f 8c 9c fd ff
	ff		 jl	 $LL4@ChangeItem

; 518  : }

  002c4	8b 4d f4	 mov	 ecx, DWORD PTR __$EHRec$[ebp]
  002c7	64 89 0d 00 00
	00 00		 mov	 DWORD PTR fs:0, ecx
  002ce	59		 pop	 ecx
  002cf	5f		 pop	 edi
  002d0	5e		 pop	 esi
  002d1	5b		 pop	 ebx
  002d2	8b e5		 mov	 esp, ebp
  002d4	5d		 pop	 ebp
  002d5	c3		 ret	 0
$LN108@ChangeItem:

; 494  : 			{
; 495  : 				m_strText.Empty();

  002d6	ff 15 00 00 00
	00		 call	 DWORD PTR __imp_?Empty@?$CSimpleStringT@D$00@ATL@@QAEXXZ

; 496  : 				break;

  002dc	8d 4d ec	 lea	 ecx, DWORD PTR _strItemName$8[ebp]
  002df	ff 15 00 00 00
	00		 call	 DWORD PTR __imp_??1?$CStringT@DV?$StrTraitMFC_DLL@DV?$ChTraitsCRT@D@ATL@@@@@ATL@@QAE@XZ
$LN3@ChangeItem:

; 518  : }

  002e5	8b 4d f4	 mov	 ecx, DWORD PTR __$EHRec$[ebp]
  002e8	64 89 0d 00 00
	00 00		 mov	 DWORD PTR fs:0, ecx
  002ef	59		 pop	 ecx
  002f0	5f		 pop	 edi
  002f1	5e		 pop	 esi
  002f2	5b		 pop	 ebx
  002f3	8b e5		 mov	 esp, ebp
  002f5	5d		 pop	 ebp
  002f6	c3		 ret	 0
_TEXT	ENDS
;	COMDAT text$x
text$x	SEGMENT
__unwindfunclet$?ChangeItemText@CCheckComboBox@@AAEXXZ$0:
  00000	8d 4d ec	 lea	 ecx, DWORD PTR _strItemName$8[ebp]
  00003	ff 25 00 00 00
	00		 jmp	 DWORD PTR __imp_??1?$CStringT@DV?$StrTraitMFC_DLL@DV?$ChTraitsCRT@D@ATL@@@@@ATL@@QAE@XZ
__unwindfunclet$?ChangeItemText@CCheckComboBox@@AAEXXZ$5:
  00009	8d 4d d4	 lea	 ecx, DWORD PTR $T3[ebp]
  0000c	ff 25 00 00 00
	00		 jmp	 DWORD PTR __imp_??1?$CStringT@DV?$StrTraitMFC_DLL@DV?$ChTraitsCRT@D@ATL@@@@@ATL@@QAE@XZ
__unwindfunclet$?ChangeItemText@CCheckComboBox@@AAEXXZ$1:
  00012	8b 45 e4	 mov	 eax, DWORD PTR $T6[ebp]
  00015	83 e0 01	 and	 eax, 1
  00018	0f 84 0d 00 00
	00		 je	 $LN19@ChangeItem
  0001e	83 65 e4 fe	 and	 DWORD PTR $T6[ebp], -2	; fffffffeH
  00022	8d 4d d0	 lea	 ecx, DWORD PTR $T2[ebp]
  00025	ff 25 00 00 00
	00		 jmp	 DWORD PTR __imp_??1?$CStringT@DV?$StrTraitMFC_DLL@DV?$ChTraitsCRT@D@ATL@@@@@ATL@@QAE@XZ
$LN19@ChangeItem:
  0002b	c3		 ret	 0
__unwindfunclet$?ChangeItemText@CCheckComboBox@@AAEXXZ$7:
  0002c	8b 45 e4	 mov	 eax, DWORD PTR $T6[ebp]
  0002f	83 e0 04	 and	 eax, 4
  00032	0f 84 0d 00 00
	00		 je	 $LN88@ChangeItem
  00038	83 65 e4 fb	 and	 DWORD PTR $T6[ebp], -5	; fffffffbH
  0003c	8d 4d e8	 lea	 ecx, DWORD PTR $T7[ebp]
  0003f	ff 25 00 00 00
	00		 jmp	 DWORD PTR __imp_??1?$CStringT@DV?$StrTraitMFC_DLL@DV?$ChTraitsCRT@D@ATL@@@@@ATL@@QAE@XZ
$LN88@ChangeItem:
  00045	c3		 ret	 0
__unwindfunclet$?ChangeItemText@CCheckComboBox@@AAEXXZ$8:
  00046	8b 45 e4	 mov	 eax, DWORD PTR $T6[ebp]
  00049	83 e0 08	 and	 eax, 8
  0004c	0f 84 0d 00 00
	00		 je	 $LN98@ChangeItem
  00052	83 65 e4 f7	 and	 DWORD PTR $T6[ebp], -9	; fffffff7H
  00056	8d 4d e0	 lea	 ecx, DWORD PTR $T5[ebp]
  00059	ff 25 00 00 00
	00		 jmp	 DWORD PTR __imp_??1?$CStringT@DV?$StrTraitMFC_DLL@DV?$ChTraitsCRT@D@ATL@@@@@ATL@@QAE@XZ
$LN98@ChangeItem:
  0005f	c3		 ret	 0
  00060	cc		 int	 3
  00061	cc		 int	 3
  00062	cc		 int	 3
  00063	cc		 int	 3
  00064	cc		 int	 3
__ehhandler$?ChangeItemText@CCheckComboBox@@AAEXXZ:
  00065	90		 npad	 1
  00066	90		 npad	 1
  00067	8b 54 24 08	 mov	 edx, DWORD PTR [esp+8]
  0006b	8d 42 0c	 lea	 eax, DWORD PTR [edx+12]
  0006e	8b 4a cc	 mov	 ecx, DWORD PTR [edx-52]
  00071	33 c8		 xor	 ecx, eax
  00073	e8 00 00 00 00	 call	 @__security_check_cookie@4
  00078	b8 00 00 00 00	 mov	 eax, OFFSET __ehfuncinfo$?ChangeItemText@CCheckComboBox@@AAEXXZ
  0007d	e9 00 00 00 00	 jmp	 ___CxxFrameHandler3
text$x	ENDS
?ChangeItemText@CCheckComboBox@@AAEXXZ ENDP		; CCheckComboBox::ChangeItemText
; Function compile flags: /Ogtp
; File D:\git\src\IBK\IBK_DRFN\ProjSrc\SrcChartEx\ChartAddIn\ChartDesignPropertyAddIn\ChartDesignPropertyAddIn\CheckComboBox.cpp
;	COMDAT ?RecalcText@CCheckComboBox@@IAEXXZ
_TEXT	SEGMENT
?RecalcText@CCheckComboBox@@IAEXXZ PROC			; CCheckComboBox::RecalcText, COMDAT
; _this$ = ecx

; 359  : 	//sy 2003.6.3 ->     item  .
; 360  : 	return;
; 361  : 
; 362  : 	if (!m_bTextUpdated) {
; 363  : 		CString strText;
; 364  : 		
; 365  : 		// Get the list count
; 366  : 		INT nCount = GetCount();
; 367  : 
; 368  : 		// Get the list separator
; 369  : 		TCHAR szBuffer[10] = {0};
; 370  : 		GetLocaleInfo(LOCALE_USER_DEFAULT, LOCALE_SLIST, szBuffer, sizeof(szBuffer));
; 371  : 
; 372  : 		CString strSeparator = szBuffer;
; 373  : 
; 374  : 		// If none found, the the ','
; 375  : 		if (strSeparator.GetLength() == 0)
; 376  : 			strSeparator = ',';
; 377  : 
; 378  : 		// Trim extra spaces
; 379  : 		strSeparator.TrimRight();
; 380  : 
; 381  : 		// And one...
; 382  : //		strSeparator += ' ';
; 383  : 
; 384  : 		for (INT i = 0; i < nCount; i++) {
; 385  : 
; 386  : 			if (GetItemData(i)) {
; 387  : 				CString strItem;
; 388  : 				GetLBText(i, strItem);
; 389  : 
; 390  : 				if (!strText.IsEmpty())
; 391  : 					strText += strSeparator;
; 392  : 
; 393  : 				strText += strItem;
; 394  : 			}
; 395  : 		}
; 396  : 
; 397  : 		// Set the text
; 398  : 		m_strText = strText;
; 399  : 
; 400  : 		m_bTextUpdated = TRUE;
; 401  : 	}
; 402  : }

  00000	c2 00 00	 ret	 0
?RecalcText@CCheckComboBox@@IAEXXZ ENDP			; CCheckComboBox::RecalcText
_TEXT	ENDS
; Function compile flags: /Ogtp
; File D:\git\src\IBK\IBK_DRFN\ProjSrc\SrcChartEx\ChartAddIn\ChartDesignPropertyAddIn\ChartDesignPropertyAddIn\CheckComboBox.cpp
;	COMDAT ?GetMessageMap@CCheckComboBox@@MBEPBUAFX_MSGMAP@@XZ
_TEXT	SEGMENT
?GetMessageMap@CCheckComboBox@@MBEPBUAFX_MSGMAP@@XZ PROC ; CCheckComboBox::GetMessageMap, COMDAT
; _this$ = ecx

; 24   : BEGIN_MESSAGE_MAP(CCheckComboBox, CComboBox)

  00000	b8 00 00 00 00	 mov	 eax, OFFSET ?messageMap@?1??GetThisMessageMap@CCheckComboBox@@KGPBUAFX_MSGMAP@@XZ@4U3@B
  00005	c3		 ret	 0
?GetMessageMap@CCheckComboBox@@MBEPBUAFX_MSGMAP@@XZ ENDP ; CCheckComboBox::GetMessageMap
_TEXT	ENDS
; Function compile flags: /Ogtp
; File D:\git\src\IBK\IBK_DRFN\ProjSrc\SrcChartEx\ChartAddIn\ChartDesignPropertyAddIn\ChartDesignPropertyAddIn\CheckComboBox.cpp
;	COMDAT ?GetThisMessageMap@CCheckComboBox@@KGPBUAFX_MSGMAP@@XZ
_TEXT	SEGMENT
?GetThisMessageMap@CCheckComboBox@@KGPBUAFX_MSGMAP@@XZ PROC ; CCheckComboBox::GetThisMessageMap, COMDAT

; 25   : 	//{{AFX_MSG_MAP(CCheckComboBox)
; 26   : 	ON_MESSAGE(WM_CTLCOLORLISTBOX, OnCtlColorListBox)
; 27   : 	ON_MESSAGE(WM_GETTEXT, OnGetText)
; 28   : 	ON_MESSAGE(WM_GETTEXTLENGTH, OnGetTextLength)
; 29   : 	ON_CONTROL_REFLECT(CBN_DROPDOWN, OnDropDown)
; 30   : 	ON_WM_CONTEXTMENU()
; 31   : 	//}}AFX_MSG_MAP
; 32   : END_MESSAGE_MAP()

  00000	b8 00 00 00 00	 mov	 eax, OFFSET ?messageMap@?1??GetThisMessageMap@CCheckComboBox@@KGPBUAFX_MSGMAP@@XZ@4U3@B
  00005	c3		 ret	 0
?GetThisMessageMap@CCheckComboBox@@KGPBUAFX_MSGMAP@@XZ ENDP ; CCheckComboBox::GetThisMessageMap
_TEXT	ENDS
; Function compile flags: /Ogtp
; File D:\git\src\IBK\IBK_DRFN\ProjSrc\SrcChartEx\ChartAddIn\ChartDesignPropertyAddIn\ChartDesignPropertyAddIn\CheckComboBox.cpp
;	COMDAT ?OnContextMenu@CCheckComboBox@@IAEXPAVCWnd@@VCPoint@@@Z
_TEXT	SEGMENT
_pWnd$ = 8						; size = 4
_point$ = 12						; size = 8
?OnContextMenu@CCheckComboBox@@IAEXPAVCWnd@@VCPoint@@@Z PROC ; CCheckComboBox::OnContextMenu, COMDAT
; _this$ = ecx

; 438  : 	return;
; 439  : }

  00000	c2 0c 00	 ret	 12			; 0000000cH
?OnContextMenu@CCheckComboBox@@IAEXPAVCWnd@@VCPoint@@@Z ENDP ; CCheckComboBox::OnContextMenu
_TEXT	ENDS
; Function compile flags: /Ogtp
; File D:\git\src\IBK\IBK_DRFN\ProjSrc\SrcChartEx\ChartAddIn\ChartDesignPropertyAddIn\ChartDesignPropertyAddIn\CheckComboBox.cpp
;	COMDAT ?OnDropDown@CCheckComboBox@@IAEXXZ
_TEXT	SEGMENT
?OnDropDown@CCheckComboBox@@IAEXXZ PROC			; CCheckComboBox::OnDropDown, COMDAT
; _this$ = ecx

; 307  : 	m_pComboBox = this;

  00000	89 0d 00 00 00
	00		 mov	 DWORD PTR ?m_pComboBox@@3PAVCCheckComboBox@@A, ecx

; 308  : 	
; 309  : }

  00006	c3		 ret	 0
?OnDropDown@CCheckComboBox@@IAEXXZ ENDP			; CCheckComboBox::OnDropDown
_TEXT	ENDS
; Function compile flags: /Ogtp
; File D:\git\src\IBK\IBK_DRFN\ProjSrc\SrcChartEx\ChartAddIn\ChartDesignPropertyAddIn\ChartDesignPropertyAddIn\CheckComboBox.cpp
;	COMDAT ?OnGetTextLength@CCheckComboBox@@IAEJIJ@Z
_TEXT	SEGMENT
___formal$ = 8						; size = 4
___formal$ = 12						; size = 4
?OnGetTextLength@CCheckComboBox@@IAEJIJ@Z PROC		; CCheckComboBox::OnGetTextLength, COMDAT
; _this$ = ecx

; 346  : {

  00000	55		 push	 ebp
  00001	8b ec		 mov	 ebp, esp

; 347  : 	// Make sure the text is updated
; 348  : 	RecalcText();
; 349  : 	return m_strText.GetLength();

  00003	8b 81 84 00 00
	00		 mov	 eax, DWORD PTR [ecx+132]
  00009	8b 40 f4	 mov	 eax, DWORD PTR [eax-12]

; 350  : }

  0000c	5d		 pop	 ebp
  0000d	c2 08 00	 ret	 8
?OnGetTextLength@CCheckComboBox@@IAEJIJ@Z ENDP		; CCheckComboBox::OnGetTextLength
_TEXT	ENDS
; Function compile flags: /Ogtp
; File D:\git\src\IBK\IBK_DRFN\ProjSrc\SrcChartEx\ChartAddIn\ChartDesignPropertyAddIn\ChartDesignPropertyAddIn\CheckComboBox.cpp
;	COMDAT ?OnGetText@CCheckComboBox@@IAEJIJ@Z
_TEXT	SEGMENT
_wParam$ = 8						; size = 4
_lParam$ = 12						; size = 4
?OnGetText@CCheckComboBox@@IAEJIJ@Z PROC		; CCheckComboBox::OnGetText, COMDAT
; _this$ = ecx

; 329  : {

  00000	55		 push	 ebp
  00001	8b ec		 mov	 ebp, esp
  00003	8b 45 0c	 mov	 eax, DWORD PTR _lParam$[ebp]
  00006	56		 push	 esi
  00007	8b f1		 mov	 esi, ecx

; 330  : 	// Make sure the text is updated
; 331  : 	RecalcText();
; 332  : 
; 333  : 	if (lParam == 0)

  00009	85 c0		 test	 eax, eax
  0000b	75 05		 jne	 SHORT $LN2@OnGetText
  0000d	5e		 pop	 esi

; 339  : }

  0000e	5d		 pop	 ebp
  0000f	c2 08 00	 ret	 8
$LN2@OnGetText:

; 334  : 		return 0;
; 335  : 
; 336  : 	// Copy the 'fake' window text
; 337  : 	lstrcpyn((LPSTR)lParam, m_strText, (INT)wParam);

  00012	ff 75 08	 push	 DWORD PTR _wParam$[ebp]
  00015	ff b6 84 00 00
	00		 push	 DWORD PTR [esi+132]
  0001b	50		 push	 eax
  0001c	ff 15 00 00 00
	00		 call	 DWORD PTR __imp__lstrcpynA@12

; 338  : 	return m_strText.GetLength();

  00022	8b 86 84 00 00
	00		 mov	 eax, DWORD PTR [esi+132]
  00028	5e		 pop	 esi
  00029	8b 40 f4	 mov	 eax, DWORD PTR [eax-12]

; 339  : }

  0002c	5d		 pop	 ebp
  0002d	c2 08 00	 ret	 8
?OnGetText@CCheckComboBox@@IAEJIJ@Z ENDP		; CCheckComboBox::OnGetText
_TEXT	ENDS
; Function compile flags: /Ogtp
; File D:\git\src\IBK\IBK_DRFN\ProjSrc\SrcChartEx\ChartAddIn\ChartDesignPropertyAddIn\ChartDesignPropertyAddIn\CheckComboBox.cpp
;	COMDAT ?OnCtlColorListBox@CCheckComboBox@@IAEJIJ@Z
_TEXT	SEGMENT
_wParam$ = 8						; size = 4
_lParam$ = 12						; size = 4
?OnCtlColorListBox@CCheckComboBox@@IAEJIJ@Z PROC	; CCheckComboBox::OnCtlColorListBox, COMDAT
; _this$ = ecx

; 178  : {

  00000	55		 push	 ebp
  00001	8b ec		 mov	 ebp, esp
  00003	56		 push	 esi
  00004	8b f1		 mov	 esi, ecx
  00006	57		 push	 edi

; 179  : 	// If the listbox hasn't been subclassed yet, do so...
; 180  : 	if (m_hListBox == 0) {

  00007	8b 7d 0c	 mov	 edi, DWORD PTR _lParam$[ebp]
  0000a	83 be 80 00 00
	00 00		 cmp	 DWORD PTR [esi+128], 0
  00011	75 30		 jne	 SHORT $LN3@OnCtlColor

; 181  : 		HWND hWnd = (HWND)lParam;
; 182  : 
; 183  : 		if (hWnd != 0 && hWnd != m_hWnd) {

  00013	85 ff		 test	 edi, edi
  00015	74 2c		 je	 SHORT $LN3@OnCtlColor
  00017	3b 7e 20	 cmp	 edi, DWORD PTR [esi+32]
  0001a	74 27		 je	 SHORT $LN3@OnCtlColor

; 184  : 			// Save the listbox handle
; 185  : 			m_hListBox = hWnd;
; 186  : 
; 187  : 			// Do the subclassing
; 188  : 			m_pWndProc = (WNDPROC)GetWindowLong(m_hListBox, GWL_WNDPROC);

  0001c	6a fc		 push	 -4			; fffffffcH
  0001e	57		 push	 edi
  0001f	89 be 80 00 00
	00		 mov	 DWORD PTR [esi+128], edi
  00025	ff 15 00 00 00
	00		 call	 DWORD PTR __imp__GetWindowLongA@8

; 189  : 			SetWindowLong(m_hListBox, GWL_WNDPROC, (LONG)ComboBoxListBoxProc);

  0002b	68 00 00 00 00	 push	 OFFSET _ComboBoxListBoxProc@16
  00030	6a fc		 push	 -4			; fffffffcH
  00032	ff b6 80 00 00
	00		 push	 DWORD PTR [esi+128]
  00038	a3 00 00 00 00	 mov	 DWORD PTR ?m_pWndProc@@3P6GJPAUHWND__@@IIJ@ZA, eax
  0003d	ff 15 00 00 00
	00		 call	 DWORD PTR __imp__SetWindowLongA@12
$LN3@OnCtlColor:

; 190  : 		}
; 191  : 	}
; 192  : 	
; 193  : 	return DefWindowProc(WM_CTLCOLORLISTBOX, wParam, lParam);

  00043	8b 06		 mov	 eax, DWORD PTR [esi]
  00045	8b ce		 mov	 ecx, esi
  00047	57		 push	 edi
  00048	ff 75 08	 push	 DWORD PTR _wParam$[ebp]
  0004b	68 34 01 00 00	 push	 308			; 00000134H
  00050	ff 90 24 01 00
	00		 call	 DWORD PTR [eax+292]
  00056	5f		 pop	 edi
  00057	5e		 pop	 esi

; 194  : }

  00058	5d		 pop	 ebp
  00059	c2 08 00	 ret	 8
?OnCtlColorListBox@CCheckComboBox@@IAEJIJ@Z ENDP	; CCheckComboBox::OnCtlColorListBox
_TEXT	ENDS
; Function compile flags: /Ogtp
; File D:\git\src\IBK\IBK_DRFN\ProjSrc\SrcChartEx\ChartAddIn\ChartDesignPropertyAddIn\ChartDesignPropertyAddIn\CheckComboBox.cpp
; File C:\Program Files (x86)\Microsoft Visual Studio\2019\Community\VC\Tools\MSVC\14.29.30133\atlmfc\include\afxwin2.inl
; File D:\git\src\IBK\IBK_DRFN\ProjSrc\SrcChartEx\ChartAddIn\ChartDesignPropertyAddIn\ChartDesignPropertyAddIn\CheckComboBox.cpp
; File C:\Program Files (x86)\Microsoft Visual Studio\2019\Community\VC\Tools\MSVC\14.29.30133\atlmfc\include\afxwin2.inl
; File C:\Program Files (x86)\Microsoft Visual Studio\2019\Community\VC\Tools\MSVC\14.29.30133\atlmfc\include\afxwin1.inl
; File D:\git\src\IBK\IBK_DRFN\ProjSrc\SrcChartEx\ChartAddIn\ChartDesignPropertyAddIn\ChartDesignPropertyAddIn\CheckComboBox.cpp
; File C:\Program Files (x86)\Microsoft Visual Studio\2019\Community\VC\Tools\MSVC\14.29.30133\atlmfc\include\afxwin1.inl
; File D:\git\src\IBK\IBK_DRFN\ProjSrc\SrcChartEx\ChartAddIn\ChartDesignPropertyAddIn\ChartDesignPropertyAddIn\CheckComboBox.cpp
; File C:\Program Files (x86)\Microsoft Visual Studio\2019\Community\VC\Tools\MSVC\14.29.30133\atlmfc\include\afxwin2.inl
; File D:\git\src\IBK\IBK_DRFN\ProjSrc\SrcChartEx\ChartAddIn\ChartDesignPropertyAddIn\ChartDesignPropertyAddIn\CheckComboBox.cpp
;	COMDAT ?MeasureItem@CCheckComboBox@@MAEXPAUtagMEASUREITEMSTRUCT@@@Z
_TEXT	SEGMENT
_dc$ = -92						; size = 20
_metrics$2 = -72					; size = 56
__$ArrayPad$ = -16					; size = 4
__$EHRec$ = -12						; size = 12
_lpMeasureItemStruct$ = 8				; size = 4
?MeasureItem@CCheckComboBox@@MAEXPAUtagMEASUREITEMSTRUCT@@@Z PROC ; CCheckComboBox::MeasureItem, COMDAT
; _this$ = ecx

; 272  : {

  00000	55		 push	 ebp
  00001	8b ec		 mov	 ebp, esp
  00003	6a ff		 push	 -1
  00005	68 00 00 00 00	 push	 __ehhandler$?MeasureItem@CCheckComboBox@@MAEXPAUtagMEASUREITEMSTRUCT@@@Z
  0000a	64 a1 00 00 00
	00		 mov	 eax, DWORD PTR fs:0
  00010	50		 push	 eax
  00011	83 ec 50	 sub	 esp, 80			; 00000050H
  00014	a1 00 00 00 00	 mov	 eax, DWORD PTR ___security_cookie
  00019	33 c5		 xor	 eax, ebp
  0001b	89 45 f0	 mov	 DWORD PTR __$ArrayPad$[ebp], eax
  0001e	53		 push	 ebx
  0001f	56		 push	 esi
  00020	57		 push	 edi
  00021	50		 push	 eax
  00022	8d 45 f4	 lea	 eax, DWORD PTR __$EHRec$[ebp]
  00025	64 a3 00 00 00
	00		 mov	 DWORD PTR fs:0, eax
  0002b	8b f1		 mov	 esi, ecx
  0002d	8b 7d 08	 mov	 edi, DWORD PTR _lpMeasureItemStruct$[ebp]

; 273  : 	CClientDC dc(this);

  00030	8d 4d a4	 lea	 ecx, DWORD PTR _dc$[ebp]
  00033	56		 push	 esi
  00034	e8 00 00 00 00	 call	 ??0CClientDC@@QAE@PAVCWnd@@@Z ; CClientDC::CClientDC
; File C:\Program Files (x86)\Microsoft Visual Studio\2019\Community\VC\Tools\MSVC\14.29.30133\atlmfc\include\afxwin2.inl

; 45   : 	{ ASSERT(::IsWindow(m_hWnd)); return CFont::FromHandle(

  00039	6a 00		 push	 0
  0003b	6a 00		 push	 0
  0003d	6a 31		 push	 49			; 00000031H
  0003f	ff 76 20	 push	 DWORD PTR [esi+32]
; File D:\git\src\IBK\IBK_DRFN\ProjSrc\SrcChartEx\ChartAddIn\ChartDesignPropertyAddIn\ChartDesignPropertyAddIn\CheckComboBox.cpp

; 273  : 	CClientDC dc(this);

  00042	c7 45 fc 00 00
	00 00		 mov	 DWORD PTR __$EHRec$[ebp+8], 0
; File C:\Program Files (x86)\Microsoft Visual Studio\2019\Community\VC\Tools\MSVC\14.29.30133\atlmfc\include\afxwin2.inl

; 45   : 	{ ASSERT(::IsWindow(m_hWnd)); return CFont::FromHandle(

  00049	ff 15 00 00 00
	00		 call	 DWORD PTR __imp__SendMessageA@16
; File C:\Program Files (x86)\Microsoft Visual Studio\2019\Community\VC\Tools\MSVC\14.29.30133\atlmfc\include\afxwin1.inl

; 151  : 	{ return (CFont*) CGdiObject::FromHandle(hFont); }

  0004f	50		 push	 eax
  00050	e8 00 00 00 00	 call	 ?FromHandle@CGdiObject@@SGPAV1@PAX@Z ; CGdiObject::FromHandle
; File D:\git\src\IBK\IBK_DRFN\ProjSrc\SrcChartEx\ChartAddIn\ChartDesignPropertyAddIn\ChartDesignPropertyAddIn\CheckComboBox.cpp

; 274  : 	CFont *pFont = dc.SelectObject(GetFont());

  00055	50		 push	 eax
  00056	8d 4d a4	 lea	 ecx, DWORD PTR _dc$[ebp]
  00059	e8 00 00 00 00	 call	 ?SelectObject@CDC@@UAEPAVCFont@@PAV2@@Z ; CDC::SelectObject
  0005e	8b d8		 mov	 ebx, eax

; 275  : 
; 276  : 	if (pFont != 0) {

  00060	85 db		 test	 ebx, ebx
  00062	74 4a		 je	 SHORT $LN2@MeasureIte
; File C:\Program Files (x86)\Microsoft Visual Studio\2019\Community\VC\Tools\MSVC\14.29.30133\atlmfc\include\afxwin1.inl

; 689  : 	{ ASSERT(m_hAttribDC != NULL); return ::GetTextMetrics(m_hAttribDC, lpMetrics); }

  00064	8d 45 b8	 lea	 eax, DWORD PTR _metrics$2[ebp]
  00067	50		 push	 eax
  00068	ff 75 ac	 push	 DWORD PTR _dc$[ebp+8]
  0006b	ff 15 00 00 00
	00		 call	 DWORD PTR __imp__GetTextMetricsA@8
; File D:\git\src\IBK\IBK_DRFN\ProjSrc\SrcChartEx\ChartAddIn\ChartDesignPropertyAddIn\ChartDesignPropertyAddIn\CheckComboBox.cpp

; 285  : 		lpMeasureItemStruct->itemHeight += 2;

  00071	8b 45 c8	 mov	 eax, DWORD PTR _metrics$2[ebp+16]
  00074	83 c0 02	 add	 eax, 2
  00077	03 45 b8	 add	 eax, DWORD PTR _metrics$2[ebp]
  0007a	89 47 10	 mov	 DWORD PTR [edi+16], eax

; 286  : 
; 287  : 
; 288  : 		// This is needed since the WM_MEASUREITEM message is sent before
; 289  : 		// MFC hooks everything up if used in i dialog. So adjust the
; 290  : 		// static portion of the combo box now
; 291  : 		if (!m_bItemHeightSet) {

  0007d	83 be 8c 00 00
	00 00		 cmp	 DWORD PTR [esi+140], 0
  00084	75 1f		 jne	 SHORT $LN3@MeasureIte

; 292  : 			m_bItemHeightSet = TRUE;

  00086	c7 86 8c 00 00
	00 01 00 00 00	 mov	 DWORD PTR [esi+140], 1
; File C:\Program Files (x86)\Microsoft Visual Studio\2019\Community\VC\Tools\MSVC\14.29.30133\atlmfc\include\afxwin2.inl

; 819  : 	{ ASSERT(::IsWindow(m_hWnd)); return (int)::SendMessage(m_hWnd, CB_SETITEMHEIGHT, nIndex, MAKELONG(cyItemHeight, 0)); }

  00090	0f b7 47 10	 movzx	 eax, WORD PTR [edi+16]
  00094	50		 push	 eax
  00095	6a ff		 push	 -1
  00097	68 53 01 00 00	 push	 339			; 00000153H
  0009c	ff 76 20	 push	 DWORD PTR [esi+32]
  0009f	ff 15 00 00 00
	00		 call	 DWORD PTR __imp__SendMessageA@16
$LN3@MeasureIte:
; File D:\git\src\IBK\IBK_DRFN\ProjSrc\SrcChartEx\ChartAddIn\ChartDesignPropertyAddIn\ChartDesignPropertyAddIn\CheckComboBox.cpp

; 296  : 		dc.SelectObject(pFont);

  000a5	53		 push	 ebx
  000a6	8d 4d a4	 lea	 ecx, DWORD PTR _dc$[ebp]
  000a9	e8 00 00 00 00	 call	 ?SelectObject@CDC@@UAEPAVCFont@@PAV2@@Z ; CDC::SelectObject
$LN2@MeasureIte:

; 297  : 	}
; 298  : }

  000ae	8d 4d a4	 lea	 ecx, DWORD PTR _dc$[ebp]
  000b1	e8 00 00 00 00	 call	 ??1CClientDC@@UAE@XZ	; CClientDC::~CClientDC
  000b6	8b 4d f4	 mov	 ecx, DWORD PTR __$EHRec$[ebp]
  000b9	64 89 0d 00 00
	00 00		 mov	 DWORD PTR fs:0, ecx
  000c0	59		 pop	 ecx
  000c1	5f		 pop	 edi
  000c2	5e		 pop	 esi
  000c3	5b		 pop	 ebx
  000c4	8b 4d f0	 mov	 ecx, DWORD PTR __$ArrayPad$[ebp]
  000c7	33 cd		 xor	 ecx, ebp
  000c9	e8 00 00 00 00	 call	 @__security_check_cookie@4
  000ce	8b e5		 mov	 esp, ebp
  000d0	5d		 pop	 ebp
  000d1	c2 04 00	 ret	 4
_TEXT	ENDS
;	COMDAT text$x
text$x	SEGMENT
__unwindfunclet$?MeasureItem@CCheckComboBox@@MAEXPAUtagMEASUREITEMSTRUCT@@@Z$0:
  00000	8d 4d a4	 lea	 ecx, DWORD PTR _dc$[ebp]
  00003	e9 00 00 00 00	 jmp	 ??1CClientDC@@UAE@XZ	; CClientDC::~CClientDC
  00008	cc		 int	 3
  00009	cc		 int	 3
  0000a	cc		 int	 3
  0000b	cc		 int	 3
  0000c	cc		 int	 3
__ehhandler$?MeasureItem@CCheckComboBox@@MAEXPAUtagMEASUREITEMSTRUCT@@@Z:
  0000d	90		 npad	 1
  0000e	90		 npad	 1
  0000f	8b 54 24 08	 mov	 edx, DWORD PTR [esp+8]
  00013	8d 42 0c	 lea	 eax, DWORD PTR [edx+12]
  00016	8b 4a a0	 mov	 ecx, DWORD PTR [edx-96]
  00019	33 c8		 xor	 ecx, eax
  0001b	e8 00 00 00 00	 call	 @__security_check_cookie@4
  00020	8b 4a fc	 mov	 ecx, DWORD PTR [edx-4]
  00023	33 c8		 xor	 ecx, eax
  00025	e8 00 00 00 00	 call	 @__security_check_cookie@4
  0002a	b8 00 00 00 00	 mov	 eax, OFFSET __ehfuncinfo$?MeasureItem@CCheckComboBox@@MAEXPAUtagMEASUREITEMSTRUCT@@@Z
  0002f	e9 00 00 00 00	 jmp	 ___CxxFrameHandler3
text$x	ENDS
?MeasureItem@CCheckComboBox@@MAEXPAUtagMEASUREITEMSTRUCT@@@Z ENDP ; CCheckComboBox::MeasureItem
; Function compile flags: /Ogtp
; File D:\git\src\IBK\IBK_DRFN\ProjSrc\SrcChartEx\ChartAddIn\ChartDesignPropertyAddIn\ChartDesignPropertyAddIn\CheckComboBox.cpp
; File C:\Program Files (x86)\Microsoft Visual Studio\2019\Community\VC\Tools\MSVC\14.29.30133\atlmfc\include\atltypes.h
; File D:\git\src\IBK\IBK_DRFN\ProjSrc\SrcChartEx\ChartAddIn\ChartDesignPropertyAddIn\ChartDesignPropertyAddIn\CheckComboBox.cpp
; File C:\Program Files (x86)\Microsoft Visual Studio\2019\Community\VC\Tools\MSVC\14.29.30133\atlmfc\include\atltypes.h
; File D:\git\src\IBK\IBK_DRFN\ProjSrc\SrcChartEx\ChartAddIn\ChartDesignPropertyAddIn\ChartDesignPropertyAddIn\CheckComboBox.cpp
; File C:\Program Files (x86)\Microsoft Visual Studio\2019\Community\VC\Tools\MSVC\14.29.30133\atlmfc\include\afxwin2.inl
; File D:\git\src\IBK\IBK_DRFN\ProjSrc\SrcChartEx\ChartAddIn\ChartDesignPropertyAddIn\ChartDesignPropertyAddIn\CheckComboBox.cpp
; File C:\Program Files (x86)\Microsoft Visual Studio\2019\Community\VC\Tools\MSVC\14.29.30133\atlmfc\include\cstringt.h
; File D:\git\src\IBK\IBK_DRFN\ProjSrc\SrcChartEx\ChartAddIn\ChartDesignPropertyAddIn\ChartDesignPropertyAddIn\CheckComboBox.cpp
; File C:\Program Files (x86)\Microsoft Visual Studio\2019\Community\VC\Tools\MSVC\14.29.30133\atlmfc\include\cstringt.h
; File D:\git\src\IBK\IBK_DRFN\ProjSrc\SrcChartEx\ChartAddIn\ChartDesignPropertyAddIn\ChartDesignPropertyAddIn\CheckComboBox.cpp
;	COMDAT ?DrawItem@CCheckComboBox@@MAEXPAUtagDRAWITEMSTRUCT@@@Z
_TEXT	SEGMENT
$T2 = -124						; size = 4
_lpDrawItemStruct$GSCopy$1$ = -120			; size = 4
_strText$ = -116					; size = 4
_this$GSCopy$1$ = -112					; size = 4
$T3 = -112						; size = 4
_chTemp$4 = -105					; size = 1
_metrics$5 = -104					; size = 56
_rcText$ = -48						; size = 16
_rcBitmap$ = -32					; size = 16
__$ArrayPad$ = -16					; size = 4
__$EHRec$ = -12						; size = 12
_lpDrawItemStruct$ = 8					; size = 4
?DrawItem@CCheckComboBox@@MAEXPAUtagDRAWITEMSTRUCT@@@Z PROC ; CCheckComboBox::DrawItem, COMDAT
; _this$ = ecx

; 198  : {

  00000	55		 push	 ebp
  00001	8b ec		 mov	 ebp, esp
  00003	6a ff		 push	 -1
  00005	68 00 00 00 00	 push	 __ehhandler$?DrawItem@CCheckComboBox@@MAEXPAUtagDRAWITEMSTRUCT@@@Z
  0000a	64 a1 00 00 00
	00		 mov	 eax, DWORD PTR fs:0
  00010	50		 push	 eax
  00011	83 ec 70	 sub	 esp, 112		; 00000070H
  00014	a1 00 00 00 00	 mov	 eax, DWORD PTR ___security_cookie
  00019	33 c5		 xor	 eax, ebp
  0001b	89 45 f0	 mov	 DWORD PTR __$ArrayPad$[ebp], eax
  0001e	53		 push	 ebx
  0001f	56		 push	 esi
  00020	57		 push	 edi
  00021	50		 push	 eax
  00022	8d 45 f4	 lea	 eax, DWORD PTR __$EHRec$[ebp]
  00025	64 a3 00 00 00
	00		 mov	 DWORD PTR fs:0, eax
  0002b	89 4d 90	 mov	 DWORD PTR _this$GSCopy$1$[ebp], ecx
  0002e	8b 45 08	 mov	 eax, DWORD PTR _lpDrawItemStruct$[ebp]
  00031	c7 45 84 00 00
	00 00		 mov	 DWORD PTR $T2[ebp], 0
; File C:\Program Files (x86)\Microsoft Visual Studio\2019\Community\VC\Tools\MSVC\14.29.30133\atlmfc\include\atltypes.h

; 548  : 	::CopyRect(this, &srcRect);

  00038	8b 35 00 00 00
	00		 mov	 esi, DWORD PTR __imp__CopyRect@8
; File D:\git\src\IBK\IBK_DRFN\ProjSrc\SrcChartEx\ChartAddIn\ChartDesignPropertyAddIn\ChartDesignPropertyAddIn\CheckComboBox.cpp

; 198  : {

  0003e	89 45 88	 mov	 DWORD PTR _lpDrawItemStruct$GSCopy$1$[ebp], eax

; 199  : 	HDC dc = lpDrawItemStruct->hDC;

  00041	8b 58 18	 mov	 ebx, DWORD PTR [eax+24]

; 200  : 
; 201  : 	CRect rcBitmap = lpDrawItemStruct->rcItem;

  00044	8d 78 1c	 lea	 edi, DWORD PTR [eax+28]
; File C:\Program Files (x86)\Microsoft Visual Studio\2019\Community\VC\Tools\MSVC\14.29.30133\atlmfc\include\atltypes.h

; 548  : 	::CopyRect(this, &srcRect);

  00047	57		 push	 edi
  00048	8d 45 e0	 lea	 eax, DWORD PTR _rcBitmap$[ebp]
  0004b	50		 push	 eax
  0004c	ff d6		 call	 esi
  0004e	57		 push	 edi
  0004f	8d 45 d0	 lea	 eax, DWORD PTR _rcText$[ebp]
  00052	50		 push	 eax
  00053	ff d6		 call	 esi
; File D:\git\src\IBK\IBK_DRFN\ProjSrc\SrcChartEx\ChartAddIn\ChartDesignPropertyAddIn\ChartDesignPropertyAddIn\CheckComboBox.cpp

; 204  : 	CString strText;

  00055	8d 4d 8c	 lea	 ecx, DWORD PTR _strText$[ebp]
  00058	ff 15 00 00 00
	00		 call	 DWORD PTR __imp_??0?$CStringT@DV?$StrTraitMFC_DLL@DV?$ChTraitsCRT@D@ATL@@@@@ATL@@QAE@XZ

; 205  : 
; 206  : 	// 0 - No check, 1 - Empty check, 2 - Checked
; 207  : 	INT nCheck = 0;
; 208  : 
; 209  : 	// Check if we are drawing the static portion of the combobox
; 210  : 	if ((LONG)lpDrawItemStruct->itemID < 0) {

  0005e	8b 75 88	 mov	 esi, DWORD PTR _lpDrawItemStruct$GSCopy$1$[ebp]
  00061	8b 3d 00 00 00
	00		 mov	 edi, DWORD PTR __imp__GetSysColor@4
  00067	c7 45 fc 00 00
	00 00		 mov	 DWORD PTR __$EHRec$[ebp+8], 0
  0006e	8b 4e 08	 mov	 ecx, DWORD PTR [esi+8]
  00071	85 c9		 test	 ecx, ecx
  00073	79 17		 jns	 SHORT $LN2@DrawItem

; 211  : 		// Make sure the m_strText member is update
; 212  : 		RecalcText();
; 213  : 
; 214  : 		// Get the text
; 215  : 		strText = m_strText;

  00075	8b 45 90	 mov	 eax, DWORD PTR _this$GSCopy$1$[ebp]
  00078	8d 4d 8c	 lea	 ecx, DWORD PTR _strText$[ebp]
  0007b	05 84 00 00 00	 add	 eax, 132		; 00000084H
  00080	50		 push	 eax
  00081	ff 15 00 00 00
	00		 call	 DWORD PTR __imp_??4?$CStringT@DV?$StrTraitMFC_DLL@DV?$ChTraitsCRT@D@ATL@@@@@ATL@@QAEAAV01@ABV01@@Z

; 216  : 
; 217  : 		// Don't draw any boxes on this item
; 218  : 		nCheck = 0;
; 219  : 	}

  00087	e9 8a 00 00 00	 jmp	 $LN4@DrawItem
$LN2@DrawItem:

; 220  : 
; 221  : 	// Otherwise it is one of the items
; 222  : 	else {
; 223  : 		GetLBText(lpDrawItemStruct->itemID, strText);

  0008c	8d 45 8c	 lea	 eax, DWORD PTR _strText$[ebp]
  0008f	50		 push	 eax
  00090	51		 push	 ecx
  00091	8b 4d 90	 mov	 ecx, DWORD PTR _this$GSCopy$1$[ebp]
  00094	e8 00 00 00 00	 call	 ?GetLBText@CComboBox@@QBEXHAAV?$CStringT@DV?$StrTraitMFC_DLL@DV?$ChTraitsCRT@D@ATL@@@@@ATL@@@Z ; CComboBox::GetLBText
; File C:\Program Files (x86)\Microsoft Visual Studio\2019\Community\VC\Tools\MSVC\14.29.30133\atlmfc\include\afxwin2.inl

; 775  : 	{ ASSERT(::IsWindow(m_hWnd)); return ::SendMessage(m_hWnd, CB_GETITEMDATA, nIndex, 0); }

  00099	8b 45 90	 mov	 eax, DWORD PTR _this$GSCopy$1$[ebp]
  0009c	6a 00		 push	 0
  0009e	ff 76 08	 push	 DWORD PTR [esi+8]
  000a1	68 50 01 00 00	 push	 336			; 00000150H
  000a6	ff 70 20	 push	 DWORD PTR [eax+32]
  000a9	ff 15 00 00 00
	00		 call	 DWORD PTR __imp__SendMessageA@16
; File D:\git\src\IBK\IBK_DRFN\ProjSrc\SrcChartEx\ChartAddIn\ChartDesignPropertyAddIn\ChartDesignPropertyAddIn\CheckComboBox.cpp

; 224  : 		nCheck = 1 + (GetItemData(lpDrawItemStruct->itemID) != 0);

  000af	f7 d8		 neg	 eax
  000b1	1b f6		 sbb	 esi, esi

; 225  : 
; 226  : 		TEXTMETRIC metrics;
; 227  : 		GetTextMetrics(dc, &metrics);

  000b3	8d 45 98	 lea	 eax, DWORD PTR _metrics$5[ebp]
  000b6	50		 push	 eax
  000b7	f7 de		 neg	 esi
  000b9	53		 push	 ebx
  000ba	46		 inc	 esi
  000bb	ff 15 00 00 00
	00		 call	 DWORD PTR __imp__GetTextMetricsA@8

; 228  : 
; 229  : 		rcBitmap.left    = 0;
; 230  : 		rcBitmap.right   = rcBitmap.left + metrics.tmHeight + metrics.tmExternalLeading + 6;

  000c1	8b 4d 98	 mov	 ecx, DWORD PTR _metrics$5[ebp]
  000c4	8b 45 a8	 mov	 eax, DWORD PTR _metrics$5[ebp+16]
  000c7	83 c1 06	 add	 ecx, 6

; 231  : 		rcBitmap.top    += 1;

  000ca	ff 45 e4	 inc	 DWORD PTR _rcBitmap$[ebp+4]
  000cd	03 c1		 add	 eax, ecx

; 232  : 		rcBitmap.bottom -= 1;

  000cf	ff 4d ec	 dec	 DWORD PTR _rcBitmap$[ebp+12]

; 233  : 
; 234  : 		rcText.left = rcBitmap.right;
; 235  : 	}
; 236  : 	
; 237  : 	 
; 238  : 
; 239  : 	if (nCheck > 0) {
; 240  : 		SetBkColor(dc, GetSysColor(COLOR_WINDOW));

  000d2	6a 05		 push	 5
  000d4	c7 45 e0 00 00
	00 00		 mov	 DWORD PTR _rcBitmap$[ebp], 0
  000db	89 45 e8	 mov	 DWORD PTR _rcBitmap$[ebp+8], eax
  000de	89 45 d0	 mov	 DWORD PTR _rcText$[ebp], eax
  000e1	ff d7		 call	 edi
  000e3	50		 push	 eax
  000e4	53		 push	 ebx
  000e5	ff 15 00 00 00
	00		 call	 DWORD PTR __imp__SetBkColor@8

; 241  : 		SetTextColor(dc, GetSysColor(COLOR_WINDOWTEXT));

  000eb	6a 08		 push	 8
  000ed	ff d7		 call	 edi
  000ef	50		 push	 eax
  000f0	53		 push	 ebx
  000f1	ff 15 00 00 00
	00		 call	 DWORD PTR __imp__SetTextColor@8

; 242  : 
; 243  : 		UINT nState = DFCS_BUTTONCHECK;
; 244  : 
; 245  : 		if (nCheck > 1)
; 246  : 			nState |= DFCS_CHECKED;
; 247  : 
; 248  : 		// Draw the checkmark using DrawFrameControl
; 249  : 		DrawFrameControl(dc, rcBitmap, DFC_BUTTON, nState);

  000f7	b8 01 00 00 00	 mov	 eax, 1
  000fc	3b c6		 cmp	 eax, esi
  000fe	1b c0		 sbb	 eax, eax
  00100	25 00 04 00 00	 and	 eax, 1024		; 00000400H
  00105	50		 push	 eax
  00106	6a 04		 push	 4
  00108	8d 45 e0	 lea	 eax, DWORD PTR _rcBitmap$[ebp]
  0010b	50		 push	 eax
  0010c	53		 push	 ebx
  0010d	ff 15 00 00 00
	00		 call	 DWORD PTR __imp__DrawFrameControl@16
  00113	8b 75 88	 mov	 esi, DWORD PTR _lpDrawItemStruct$GSCopy$1$[ebp]
$LN4@DrawItem:

; 250  : 	}
; 251  : 
; 252  : 	if (lpDrawItemStruct->itemState & ODS_SELECTED) {

  00116	f6 46 10 01	 test	 BYTE PTR [esi+16], 1
  0011a	74 10		 je	 SHORT $LN6@DrawItem

; 253  : 		SetBkColor(dc, GetSysColor(COLOR_HIGHLIGHT));

  0011c	6a 0d		 push	 13			; 0000000dH
  0011e	ff d7		 call	 edi
  00120	50		 push	 eax
  00121	53		 push	 ebx
  00122	ff 15 00 00 00
	00		 call	 DWORD PTR __imp__SetBkColor@8

; 254  : 		SetTextColor(dc, GetSysColor(COLOR_HIGHLIGHTTEXT));

  00128	6a 0e		 push	 14			; 0000000eH

; 255  : 	}

  0012a	eb 0e		 jmp	 SHORT $LN57@DrawItem
$LN6@DrawItem:

; 256  : 	else {
; 257  : 		SetBkColor(dc, GetSysColor(COLOR_WINDOW));

  0012c	6a 05		 push	 5
  0012e	ff d7		 call	 edi
  00130	50		 push	 eax
  00131	53		 push	 ebx
  00132	ff 15 00 00 00
	00		 call	 DWORD PTR __imp__SetBkColor@8

; 258  : 		SetTextColor(dc, GetSysColor(COLOR_WINDOWTEXT));

  00138	6a 08		 push	 8
$LN57@DrawItem:

; 259  : 	}
; 260  : 
; 261  : 	// Erase and draw
; 262  : 	ExtTextOut(dc, 0, 0, ETO_OPAQUE, &rcText, 0, 0, 0);

  0013a	ff d7		 call	 edi
  0013c	50		 push	 eax
  0013d	53		 push	 ebx
  0013e	ff 15 00 00 00
	00		 call	 DWORD PTR __imp__SetTextColor@8
  00144	6a 00		 push	 0
  00146	6a 00		 push	 0
  00148	6a 00		 push	 0
  0014a	8d 45 d0	 lea	 eax, DWORD PTR _rcText$[ebp]
  0014d	50		 push	 eax
  0014e	6a 02		 push	 2
  00150	6a 00		 push	 0
  00152	6a 00		 push	 0
  00154	53		 push	 ebx
  00155	ff 15 00 00 00
	00		 call	 DWORD PTR __imp__ExtTextOutA@32
; File C:\Program Files (x86)\Microsoft Visual Studio\2019\Community\VC\Tools\MSVC\14.29.30133\atlmfc\include\cstringt.h

; 2441 : 		CStringT strResult( str2.GetManager() );

  0015b	8d 4d 8c	 lea	 ecx, DWORD PTR _strText$[ebp]
; File D:\git\src\IBK\IBK_DRFN\ProjSrc\SrcChartEx\ChartAddIn\ChartDesignPropertyAddIn\ChartDesignPropertyAddIn\CheckComboBox.cpp

; 263  : 	DrawText(dc, ' ' + strText, strText.GetLength() + 1, &rcText, DT_SINGLELINE|DT_VCENTER|DT_END_ELLIPSIS);

  0015e	c6 45 fc 04	 mov	 BYTE PTR __$EHRec$[ebp+8], 4
; File C:\Program Files (x86)\Microsoft Visual Studio\2019\Community\VC\Tools\MSVC\14.29.30133\atlmfc\include\cstringt.h

; 2441 : 		CStringT strResult( str2.GetManager() );

  00162	ff 15 00 00 00
	00		 call	 DWORD PTR __imp_?GetManager@?$CStringT@DV?$StrTraitMFC_DLL@DV?$ChTraitsCRT@D@ATL@@@@@ATL@@QBEPAUIAtlStringMgr@2@XZ
  00168	50		 push	 eax
  00169	8d 4d 90	 lea	 ecx, DWORD PTR $T3[ebp]
  0016c	ff 15 00 00 00
	00		 call	 DWORD PTR __imp_??0?$CStringT@DV?$StrTraitMFC_DLL@DV?$ChTraitsCRT@D@ATL@@@@@ATL@@QAE@PAUIAtlStringMgr@1@@Z

; 2442 : 		XCHAR chTemp = XCHAR( ch1 );
; 2443 : 
; 2444 : 		CThisSimpleString::Concatenate( strResult, &chTemp, 1, str2, str2.GetLength() );

  00172	8b 45 8c	 mov	 eax, DWORD PTR _strText$[ebp]
  00175	c6 45 97 20	 mov	 BYTE PTR _chTemp$4[ebp], 32 ; 00000020H

; 2445 : 
; 2446 : 		return( strResult );

  00179	c7 45 84 01 00
	00 00		 mov	 DWORD PTR $T2[ebp], 1
  00180	ff 70 f4	 push	 DWORD PTR [eax-12]
  00183	50		 push	 eax
  00184	6a 01		 push	 1
  00186	8d 45 97	 lea	 eax, DWORD PTR _chTemp$4[ebp]
  00189	50		 push	 eax
  0018a	8d 45 90	 lea	 eax, DWORD PTR $T3[ebp]
  0018d	50		 push	 eax
  0018e	ff 15 00 00 00
	00		 call	 DWORD PTR __imp_?Concatenate@?$CSimpleStringT@D$00@ATL@@KAXAAV12@PBDH1H@Z
  00194	83 c4 14	 add	 esp, 20			; 00000014H
; File D:\git\src\IBK\IBK_DRFN\ProjSrc\SrcChartEx\ChartAddIn\ChartDesignPropertyAddIn\ChartDesignPropertyAddIn\CheckComboBox.cpp

; 263  : 	DrawText(dc, ' ' + strText, strText.GetLength() + 1, &rcText, DT_SINGLELINE|DT_VCENTER|DT_END_ELLIPSIS);

  00197	8d 45 d0	 lea	 eax, DWORD PTR _rcText$[ebp]
  0019a	68 24 80 00 00	 push	 32804			; 00008024H
  0019f	50		 push	 eax
  001a0	8b 45 8c	 mov	 eax, DWORD PTR _strText$[ebp]
  001a3	8b 40 f4	 mov	 eax, DWORD PTR [eax-12]
  001a6	40		 inc	 eax
  001a7	50		 push	 eax
  001a8	ff 75 90	 push	 DWORD PTR $T3[ebp]
  001ab	53		 push	 ebx
  001ac	ff 15 00 00 00
	00		 call	 DWORD PTR __imp__DrawTextA@20
  001b2	8d 4d 90	 lea	 ecx, DWORD PTR $T3[ebp]
  001b5	ff 15 00 00 00
	00		 call	 DWORD PTR __imp_??1?$CStringT@DV?$StrTraitMFC_DLL@DV?$ChTraitsCRT@D@ATL@@@@@ATL@@QAE@XZ

; 264  : 
; 265  : 	if ((lpDrawItemStruct->itemState & (ODS_FOCUS|ODS_SELECTED)) == (ODS_FOCUS|ODS_SELECTED))

  001bb	8b 46 10	 mov	 eax, DWORD PTR [esi+16]
  001be	83 e0 11	 and	 eax, 17			; 00000011H
  001c1	3c 11		 cmp	 al, 17			; 00000011H
  001c3	75 0b		 jne	 SHORT $LN8@DrawItem

; 266  : 		DrawFocusRect(dc, &rcText);

  001c5	8d 45 d0	 lea	 eax, DWORD PTR _rcText$[ebp]
  001c8	50		 push	 eax
  001c9	53		 push	 ebx
  001ca	ff 15 00 00 00
	00		 call	 DWORD PTR __imp__DrawFocusRect@8
$LN8@DrawItem:

; 267  : 	
; 268  : }

  001d0	8d 4d 8c	 lea	 ecx, DWORD PTR _strText$[ebp]
  001d3	ff 15 00 00 00
	00		 call	 DWORD PTR __imp_??1?$CStringT@DV?$StrTraitMFC_DLL@DV?$ChTraitsCRT@D@ATL@@@@@ATL@@QAE@XZ
  001d9	8b 4d f4	 mov	 ecx, DWORD PTR __$EHRec$[ebp]
  001dc	64 89 0d 00 00
	00 00		 mov	 DWORD PTR fs:0, ecx
  001e3	59		 pop	 ecx
  001e4	5f		 pop	 edi
  001e5	5e		 pop	 esi
  001e6	5b		 pop	 ebx
  001e7	8b 4d f0	 mov	 ecx, DWORD PTR __$ArrayPad$[ebp]
  001ea	33 cd		 xor	 ecx, ebp
  001ec	e8 00 00 00 00	 call	 @__security_check_cookie@4
  001f1	8b e5		 mov	 esp, ebp
  001f3	5d		 pop	 ebp
  001f4	c2 04 00	 ret	 4
_TEXT	ENDS
;	COMDAT text$x
text$x	SEGMENT
__unwindfunclet$?DrawItem@CCheckComboBox@@MAEXPAUtagDRAWITEMSTRUCT@@@Z$0:
  00000	8d 4d 8c	 lea	 ecx, DWORD PTR _strText$[ebp]
  00003	ff 25 00 00 00
	00		 jmp	 DWORD PTR __imp_??1?$CStringT@DV?$StrTraitMFC_DLL@DV?$ChTraitsCRT@D@ATL@@@@@ATL@@QAE@XZ
__unwindfunclet$?DrawItem@CCheckComboBox@@MAEXPAUtagDRAWITEMSTRUCT@@@Z$5:
  00009	8b 45 84	 mov	 eax, DWORD PTR $T2[ebp]
  0000c	83 e0 01	 and	 eax, 1
  0000f	0f 84 0d 00 00
	00		 je	 $LN43@DrawItem
  00015	83 65 84 fe	 and	 DWORD PTR $T2[ebp], -2	; fffffffeH
  00019	8d 4d 90	 lea	 ecx, DWORD PTR $T3[ebp]
  0001c	ff 25 00 00 00
	00		 jmp	 DWORD PTR __imp_??1?$CStringT@DV?$StrTraitMFC_DLL@DV?$ChTraitsCRT@D@ATL@@@@@ATL@@QAE@XZ
$LN43@DrawItem:
  00022	c3		 ret	 0
  00023	cc		 int	 3
  00024	cc		 int	 3
  00025	cc		 int	 3
  00026	cc		 int	 3
  00027	cc		 int	 3
__ehhandler$?DrawItem@CCheckComboBox@@MAEXPAUtagDRAWITEMSTRUCT@@@Z:
  00028	90		 npad	 1
  00029	90		 npad	 1
  0002a	8b 54 24 08	 mov	 edx, DWORD PTR [esp+8]
  0002e	8d 42 0c	 lea	 eax, DWORD PTR [edx+12]
  00031	8b 4a 80	 mov	 ecx, DWORD PTR [edx-128]
  00034	33 c8		 xor	 ecx, eax
  00036	e8 00 00 00 00	 call	 @__security_check_cookie@4
  0003b	8b 4a fc	 mov	 ecx, DWORD PTR [edx-4]
  0003e	33 c8		 xor	 ecx, eax
  00040	e8 00 00 00 00	 call	 @__security_check_cookie@4
  00045	b8 00 00 00 00	 mov	 eax, OFFSET __ehfuncinfo$?DrawItem@CCheckComboBox@@MAEXPAUtagDRAWITEMSTRUCT@@@Z
  0004a	e9 00 00 00 00	 jmp	 ___CxxFrameHandler3
text$x	ENDS
?DrawItem@CCheckComboBox@@MAEXPAUtagDRAWITEMSTRUCT@@@Z ENDP ; CCheckComboBox::DrawItem
; Function compile flags: /Ogtp
; File D:\git\src\IBK\IBK_DRFN\ProjSrc\SrcChartEx\ChartAddIn\ChartDesignPropertyAddIn\ChartDesignPropertyAddIn\CheckComboBox.cpp
; File C:\Program Files (x86)\Microsoft Visual Studio\2019\Community\VC\Tools\MSVC\14.29.30133\atlmfc\include\atlsimpstr.h
; File D:\git\src\IBK\IBK_DRFN\ProjSrc\SrcChartEx\ChartAddIn\ChartDesignPropertyAddIn\ChartDesignPropertyAddIn\CheckComboBox.cpp
; File C:\Program Files (x86)\Microsoft Visual Studio\2019\Community\VC\Tools\MSVC\14.29.30133\atlmfc\include\cstringt.h
; File D:\git\src\IBK\IBK_DRFN\ProjSrc\SrcChartEx\ChartAddIn\ChartDesignPropertyAddIn\ChartDesignPropertyAddIn\CheckComboBox.cpp
; File C:\Program Files (x86)\Microsoft Visual Studio\2019\Community\VC\Tools\MSVC\14.29.30133\atlmfc\include\cstringt.h
; File D:\git\src\IBK\IBK_DRFN\ProjSrc\SrcChartEx\ChartAddIn\ChartDesignPropertyAddIn\ChartDesignPropertyAddIn\CheckComboBox.cpp
; File C:\Program Files (x86)\Microsoft Visual Studio\2019\Community\VC\Tools\MSVC\14.29.30133\atlmfc\include\cstringt.h
; File D:\git\src\IBK\IBK_DRFN\ProjSrc\SrcChartEx\ChartAddIn\ChartDesignPropertyAddIn\ChartDesignPropertyAddIn\CheckComboBox.cpp
; File C:\Program Files (x86)\Microsoft Visual Studio\2019\Community\VC\Tools\MSVC\14.29.30133\atlmfc\include\atlsimpstr.h
; File D:\git\src\IBK\IBK_DRFN\ProjSrc\SrcChartEx\ChartAddIn\ChartDesignPropertyAddIn\ChartDesignPropertyAddIn\CheckComboBox.cpp
; File C:\Program Files (x86)\Microsoft Visual Studio\2019\Community\VC\Tools\MSVC\14.29.30133\atlmfc\include\atlsimpstr.h
; File D:\git\src\IBK\IBK_DRFN\ProjSrc\SrcChartEx\ChartAddIn\ChartDesignPropertyAddIn\ChartDesignPropertyAddIn\CheckComboBox.cpp
; File C:\Program Files (x86)\Microsoft Visual Studio\2019\Community\VC\Tools\MSVC\14.29.30133\atlmfc\include\afxwin2.inl
; File D:\git\src\IBK\IBK_DRFN\ProjSrc\SrcChartEx\ChartAddIn\ChartDesignPropertyAddIn\ChartDesignPropertyAddIn\CheckComboBox.cpp
; File C:\Program Files (x86)\Microsoft Visual Studio\2019\Community\VC\Tools\MSVC\14.29.30133\atlmfc\include\afxwin2.inl
; File D:\git\src\IBK\IBK_DRFN\ProjSrc\SrcChartEx\ChartAddIn\ChartDesignPropertyAddIn\ChartDesignPropertyAddIn\CheckComboBox.cpp
; File C:\Program Files (x86)\Microsoft Visual Studio\2019\Community\VC\Tools\MSVC\14.29.30133\atlmfc\include\afxwin2.inl
; File D:\git\src\IBK\IBK_DRFN\ProjSrc\SrcChartEx\ChartAddIn\ChartDesignPropertyAddIn\ChartDesignPropertyAddIn\CheckComboBox.cpp
; File C:\Program Files (x86)\Microsoft Visual Studio\2019\Community\VC\Tools\MSVC\14.29.30133\atlmfc\include\afxwin2.inl
; File D:\git\src\IBK\IBK_DRFN\ProjSrc\SrcChartEx\ChartAddIn\ChartDesignPropertyAddIn\ChartDesignPropertyAddIn\CheckComboBox.cpp
; File C:\Program Files (x86)\Microsoft Visual Studio\2019\Community\VC\Tools\MSVC\14.29.30133\atlmfc\include\atlsimpstr.h
; File D:\git\src\IBK\IBK_DRFN\ProjSrc\SrcChartEx\ChartAddIn\ChartDesignPropertyAddIn\ChartDesignPropertyAddIn\CheckComboBox.cpp
;	COMDAT ?SetItemCheck@CCheckComboBox@@QAEXABV?$CStringT@DV?$StrTraitMFC_DLL@DV?$ChTraitsCRT@D@ATL@@@@@ATL@@@Z
_TEXT	SEGMENT
_strItemName$2 = -20					; size = 4
_strTemp$ = -16						; size = 4
__$EHRec$ = -12						; size = 12
$T3 = 8							; size = 4
$T4 = 8							; size = 4
_strAllItmes$ = 8					; size = 4
?SetItemCheck@CCheckComboBox@@QAEXABV?$CStringT@DV?$StrTraitMFC_DLL@DV?$ChTraitsCRT@D@ATL@@@@@ATL@@@Z PROC ; CCheckComboBox::SetItemCheck, COMDAT
; _this$ = ecx

; 453  : {

  00000	55		 push	 ebp
  00001	8b ec		 mov	 ebp, esp
  00003	6a ff		 push	 -1
  00005	68 00 00 00 00	 push	 __ehhandler$?SetItemCheck@CCheckComboBox@@QAEXABV?$CStringT@DV?$StrTraitMFC_DLL@DV?$ChTraitsCRT@D@ATL@@@@@ATL@@@Z
  0000a	64 a1 00 00 00
	00		 mov	 eax, DWORD PTR fs:0
  00010	50		 push	 eax
  00011	83 ec 08	 sub	 esp, 8
  00014	53		 push	 ebx
  00015	56		 push	 esi
  00016	57		 push	 edi
  00017	a1 00 00 00 00	 mov	 eax, DWORD PTR ___security_cookie
  0001c	33 c5		 xor	 eax, ebp
  0001e	50		 push	 eax
  0001f	8d 45 f4	 lea	 eax, DWORD PTR __$EHRec$[ebp]
  00022	64 a3 00 00 00
	00		 mov	 DWORD PTR fs:0, eax
  00028	8b f9		 mov	 edi, ecx

; 454  : 	m_strText.Empty();

  0002a	8d 8f 84 00 00
	00		 lea	 ecx, DWORD PTR [edi+132]
  00030	ff 15 00 00 00
	00		 call	 DWORD PTR __imp_?Empty@?$CSimpleStringT@D$00@ATL@@QAEXXZ
; File C:\Program Files (x86)\Microsoft Visual Studio\2019\Community\VC\Tools\MSVC\14.29.30133\atlmfc\include\atlsimpstr.h

; 519  : 		return( GetData()->nDataLength );

  00036	8b 4d 08	 mov	 ecx, DWORD PTR _strAllItmes$[ebp]
  00039	8b 01		 mov	 eax, DWORD PTR [ecx]

; 533  : 		return( GetLength() == 0 );

  0003b	83 78 f4 00	 cmp	 DWORD PTR [eax-12], 0
; File D:\git\src\IBK\IBK_DRFN\ProjSrc\SrcChartEx\ChartAddIn\ChartDesignPropertyAddIn\ChartDesignPropertyAddIn\CheckComboBox.cpp

; 455  : 	if(strAllItmes.IsEmpty())

  0003f	0f 84 0f 01 00
	00		 je	 $LN1@SetItemChe

; 456  : 		return;
; 457  : 
; 458  : 	CString strTemp = strAllItmes;

  00045	51		 push	 ecx
  00046	8d 4d f0	 lea	 ecx, DWORD PTR _strTemp$[ebp]
  00049	ff 15 00 00 00
	00		 call	 DWORD PTR __imp_??0?$CStringT@DV?$StrTraitMFC_DLL@DV?$ChTraitsCRT@D@ATL@@@@@ATL@@QAE@ABV01@@Z

; 459  : 	if(strTemp.Right(1) != ",")

  0004f	6a 01		 push	 1
  00051	8d 45 08	 lea	 eax, DWORD PTR $T4[ebp]
  00054	c7 45 fc 00 00
	00 00		 mov	 DWORD PTR __$EHRec$[ebp+8], 0
  0005b	50		 push	 eax
  0005c	8d 4d f0	 lea	 ecx, DWORD PTR _strTemp$[ebp]
  0005f	ff 15 00 00 00
	00		 call	 DWORD PTR __imp_?Right@?$CStringT@DV?$StrTraitMFC_DLL@DV?$ChTraitsCRT@D@ATL@@@@@ATL@@QBE?AV12@H@Z
; File C:\Program Files (x86)\Microsoft Visual Studio\2019\Community\VC\Tools\MSVC\14.29.30133\atlmfc\include\cstringt.h

; 2567 : 		return( str1.Compare( psz2 ) != 0 );

  00065	68 00 00 00 00	 push	 OFFSET ??_C@_01IHBHIGKO@?0@
  0006a	8b c8		 mov	 ecx, eax
; File D:\git\src\IBK\IBK_DRFN\ProjSrc\SrcChartEx\ChartAddIn\ChartDesignPropertyAddIn\ChartDesignPropertyAddIn\CheckComboBox.cpp

; 459  : 	if(strTemp.Right(1) != ",")

  0006c	c6 45 fc 01	 mov	 BYTE PTR __$EHRec$[ebp+8], 1
; File C:\Program Files (x86)\Microsoft Visual Studio\2019\Community\VC\Tools\MSVC\14.29.30133\atlmfc\include\cstringt.h

; 2567 : 		return( str1.Compare( psz2 ) != 0 );

  00070	ff 15 00 00 00
	00		 call	 DWORD PTR __imp_?Compare@?$CStringT@DV?$StrTraitMFC_DLL@DV?$ChTraitsCRT@D@ATL@@@@@ATL@@QBEHPBD@Z
; File D:\git\src\IBK\IBK_DRFN\ProjSrc\SrcChartEx\ChartAddIn\ChartDesignPropertyAddIn\ChartDesignPropertyAddIn\CheckComboBox.cpp

; 459  : 	if(strTemp.Right(1) != ",")

  00076	8d 4d 08	 lea	 ecx, DWORD PTR $T4[ebp]
  00079	c6 45 fc 00	 mov	 BYTE PTR __$EHRec$[ebp+8], 0
; File C:\Program Files (x86)\Microsoft Visual Studio\2019\Community\VC\Tools\MSVC\14.29.30133\atlmfc\include\cstringt.h

; 2567 : 		return( str1.Compare( psz2 ) != 0 );

  0007d	8b f0		 mov	 esi, eax
; File D:\git\src\IBK\IBK_DRFN\ProjSrc\SrcChartEx\ChartAddIn\ChartDesignPropertyAddIn\ChartDesignPropertyAddIn\CheckComboBox.cpp

; 459  : 	if(strTemp.Right(1) != ",")

  0007f	ff 15 00 00 00
	00		 call	 DWORD PTR __imp_??1?$CStringT@DV?$StrTraitMFC_DLL@DV?$ChTraitsCRT@D@ATL@@@@@ATL@@QAE@XZ
  00085	85 f6		 test	 esi, esi
  00087	74 0e		 je	 SHORT $LN47@SetItemChe

; 460  : 		strTemp += ",";

  00089	68 00 00 00 00	 push	 OFFSET ??_C@_01IHBHIGKO@?0@
  0008e	8d 4d f0	 lea	 ecx, DWORD PTR _strTemp$[ebp]
  00091	ff 15 00 00 00
	00		 call	 DWORD PTR __imp_??Y?$CStringT@DV?$StrTraitMFC_DLL@DV?$ChTraitsCRT@D@ATL@@@@@ATL@@QAEAAV01@PBD@Z
$LN47@SetItemChe:
; File C:\Program Files (x86)\Microsoft Visual Studio\2019\Community\VC\Tools\MSVC\14.29.30133\atlmfc\include\atlsimpstr.h

; 519  : 		return( GetData()->nDataLength );

  00097	8b 45 f0	 mov	 eax, DWORD PTR _strTemp$[ebp]

; 533  : 		return( GetLength() == 0 );

  0009a	83 78 f4 00	 cmp	 DWORD PTR [eax-12], 0
; File D:\git\src\IBK\IBK_DRFN\ProjSrc\SrcChartEx\ChartAddIn\ChartDesignPropertyAddIn\ChartDesignPropertyAddIn\CheckComboBox.cpp

; 462  : 	while(!strTemp.IsEmpty()){

  0009e	0f 84 a7 00 00
	00		 je	 $LN3@SetItemChe
  000a4	8b 35 00 00 00
	00		 mov	 esi, DWORD PTR __imp__SendMessageA@16
  000aa	8b 1d 00 00 00
	00		 mov	 ebx, DWORD PTR __imp__InvalidateRect@12
$LL2@SetItemChe:

; 463  : 		CString strItemName = CDataConversion::GetStringData(strTemp, ",");

  000b0	68 00 00 00 00	 push	 OFFSET ??_C@_01IHBHIGKO@?0@
  000b5	8d 4d 08	 lea	 ecx, DWORD PTR $T3[ebp]
  000b8	ff 15 00 00 00
	00		 call	 DWORD PTR __imp_??0?$CStringT@DV?$StrTraitMFC_DLL@DV?$ChTraitsCRT@D@ATL@@@@@ATL@@QAE@PBD@Z
  000be	6a 01		 push	 1
  000c0	8d 45 08	 lea	 eax, DWORD PTR $T3[ebp]
  000c3	c6 45 fc 02	 mov	 BYTE PTR __$EHRec$[ebp+8], 2
  000c7	50		 push	 eax
  000c8	8d 45 f0	 lea	 eax, DWORD PTR _strTemp$[ebp]
  000cb	50		 push	 eax
  000cc	8d 45 ec	 lea	 eax, DWORD PTR _strItemName$2[ebp]
  000cf	50		 push	 eax
  000d0	e8 00 00 00 00	 call	 ?GetStringData@CDataConversion@@SA?AV?$CStringT@DV?$StrTraitMFC_DLL@DV?$ChTraitsCRT@D@ATL@@@@@ATL@@AAV23@ABV23@_N@Z ; CDataConversion::GetStringData
  000d5	83 c4 10	 add	 esp, 16			; 00000010H
  000d8	8d 4d 08	 lea	 ecx, DWORD PTR $T3[ebp]
  000db	c6 45 fc 04	 mov	 BYTE PTR __$EHRec$[ebp+8], 4
  000df	ff 15 00 00 00
	00		 call	 DWORD PTR __imp_??1?$CStringT@DV?$StrTraitMFC_DLL@DV?$ChTraitsCRT@D@ATL@@@@@ATL@@QAE@XZ
; File C:\Program Files (x86)\Microsoft Visual Studio\2019\Community\VC\Tools\MSVC\14.29.30133\atlmfc\include\atlsimpstr.h

; 519  : 		return( GetData()->nDataLength );

  000e5	8b 45 ec	 mov	 eax, DWORD PTR _strItemName$2[ebp]

; 533  : 		return( GetLength() == 0 );

  000e8	83 78 f4 00	 cmp	 DWORD PTR [eax-12], 0
; File D:\git\src\IBK\IBK_DRFN\ProjSrc\SrcChartEx\ChartAddIn\ChartDesignPropertyAddIn\ChartDesignPropertyAddIn\CheckComboBox.cpp

; 464  : 		if(strItemName.IsEmpty())

  000ec	74 43		 je	 SHORT $LN37@SetItemChe
; File C:\Program Files (x86)\Microsoft Visual Studio\2019\Community\VC\Tools\MSVC\14.29.30133\atlmfc\include\afxwin2.inl

; 805  : 	{ ASSERT(::IsWindow(m_hWnd)); return (int)::SendMessage(m_hWnd, CB_FINDSTRING, nStartAfter,

  000ee	50		 push	 eax
  000ef	6a 00		 push	 0
  000f1	68 4c 01 00 00	 push	 332			; 0000014cH
  000f6	ff 77 20	 push	 DWORD PTR [edi+32]
  000f9	ff d6		 call	 esi
; File D:\git\src\IBK\IBK_DRFN\ProjSrc\SrcChartEx\ChartAddIn\ChartDesignPropertyAddIn\ChartDesignPropertyAddIn\CheckComboBox.cpp

; 468  : 		if(nIndex != LB_ERR){

  000fb	83 f8 ff	 cmp	 eax, -1
  000fe	74 31		 je	 SHORT $LN37@SetItemChe

; 408  : 		m_nCheckedCount++;

  00100	ff 87 90 00 00
	00		 inc	 DWORD PTR [edi+144]
; File C:\Program Files (x86)\Microsoft Visual Studio\2019\Community\VC\Tools\MSVC\14.29.30133\atlmfc\include\afxwin2.inl

; 777  : 	{ ASSERT(::IsWindow(m_hWnd)); return (int)::SendMessage(m_hWnd, CB_SETITEMDATA, nIndex, (LPARAM)dwItemData); }

  00106	6a 01		 push	 1
  00108	50		 push	 eax
  00109	68 51 01 00 00	 push	 337			; 00000151H
  0010e	ff 77 20	 push	 DWORD PTR [edi+32]
  00111	ff d6		 call	 esi
; File D:\git\src\IBK\IBK_DRFN\ProjSrc\SrcChartEx\ChartAddIn\ChartDesignPropertyAddIn\ChartDesignPropertyAddIn\CheckComboBox.cpp

; 416  : 	if (nResult < 0)

  00113	85 c0		 test	 eax, eax
  00115	78 1a		 js	 SHORT $LN37@SetItemChe

; 417  : 		return nResult;
; 418  : 
; 419  : 	//sy 2003.6.3 ->     item  .
; 420  : 	ChangeItemText();

  00117	8b cf		 mov	 ecx, edi
  00119	e8 00 00 00 00	 call	 ?ChangeItemText@CCheckComboBox@@AAEXXZ ; CCheckComboBox::ChangeItemText
; File C:\Program Files (x86)\Microsoft Visual Studio\2019\Community\VC\Tools\MSVC\14.29.30133\atlmfc\include\afxwin2.inl

; 114  : 	{ ASSERT(::IsWindow(m_hWnd)); ::InvalidateRect(m_hWnd, NULL, bErase); }

  0011e	6a 00		 push	 0
  00120	6a 00		 push	 0
  00122	ff 77 20	 push	 DWORD PTR [edi+32]
; File D:\git\src\IBK\IBK_DRFN\ProjSrc\SrcChartEx\ChartAddIn\ChartDesignPropertyAddIn\ChartDesignPropertyAddIn\CheckComboBox.cpp

; 423  : 	m_bTextUpdated = FALSE;

  00125	c7 87 88 00 00
	00 00 00 00 00	 mov	 DWORD PTR [edi+136], 0
; File C:\Program Files (x86)\Microsoft Visual Studio\2019\Community\VC\Tools\MSVC\14.29.30133\atlmfc\include\afxwin2.inl

; 114  : 	{ ASSERT(::IsWindow(m_hWnd)); ::InvalidateRect(m_hWnd, NULL, bErase); }

  0012f	ff d3		 call	 ebx
$LN37@SetItemChe:
; File D:\git\src\IBK\IBK_DRFN\ProjSrc\SrcChartEx\ChartAddIn\ChartDesignPropertyAddIn\ChartDesignPropertyAddIn\CheckComboBox.cpp

; 471  : 	}

  00131	8d 4d ec	 lea	 ecx, DWORD PTR _strItemName$2[ebp]
  00134	c6 45 fc 00	 mov	 BYTE PTR __$EHRec$[ebp+8], 0
  00138	ff 15 00 00 00
	00		 call	 DWORD PTR __imp_??1?$CStringT@DV?$StrTraitMFC_DLL@DV?$ChTraitsCRT@D@ATL@@@@@ATL@@QAE@XZ
; File C:\Program Files (x86)\Microsoft Visual Studio\2019\Community\VC\Tools\MSVC\14.29.30133\atlmfc\include\atlsimpstr.h

; 533  : 		return( GetLength() == 0 );

  0013e	8b 45 f0	 mov	 eax, DWORD PTR _strTemp$[ebp]
  00141	83 78 f4 00	 cmp	 DWORD PTR [eax-12], 0
; File D:\git\src\IBK\IBK_DRFN\ProjSrc\SrcChartEx\ChartAddIn\ChartDesignPropertyAddIn\ChartDesignPropertyAddIn\CheckComboBox.cpp

; 462  : 	while(!strTemp.IsEmpty()){

  00145	0f 85 65 ff ff
	ff		 jne	 $LL2@SetItemChe
$LN3@SetItemChe:

; 472  : }

  0014b	8d 4d f0	 lea	 ecx, DWORD PTR _strTemp$[ebp]
  0014e	ff 15 00 00 00
	00		 call	 DWORD PTR __imp_??1?$CStringT@DV?$StrTraitMFC_DLL@DV?$ChTraitsCRT@D@ATL@@@@@ATL@@QAE@XZ
$LN1@SetItemChe:
  00154	8b 4d f4	 mov	 ecx, DWORD PTR __$EHRec$[ebp]
  00157	64 89 0d 00 00
	00 00		 mov	 DWORD PTR fs:0, ecx
  0015e	59		 pop	 ecx
  0015f	5f		 pop	 edi
  00160	5e		 pop	 esi
  00161	5b		 pop	 ebx
  00162	8b e5		 mov	 esp, ebp
  00164	5d		 pop	 ebp
  00165	c2 04 00	 ret	 4
_TEXT	ENDS
;	COMDAT text$x
text$x	SEGMENT
__unwindfunclet$?SetItemCheck@CCheckComboBox@@QAEXABV?$CStringT@DV?$StrTraitMFC_DLL@DV?$ChTraitsCRT@D@ATL@@@@@ATL@@@Z$0:
  00000	8d 4d f0	 lea	 ecx, DWORD PTR _strTemp$[ebp]
  00003	ff 25 00 00 00
	00		 jmp	 DWORD PTR __imp_??1?$CStringT@DV?$StrTraitMFC_DLL@DV?$ChTraitsCRT@D@ATL@@@@@ATL@@QAE@XZ
__unwindfunclet$?SetItemCheck@CCheckComboBox@@QAEXABV?$CStringT@DV?$StrTraitMFC_DLL@DV?$ChTraitsCRT@D@ATL@@@@@ATL@@@Z$1:
  00009	8d 4d 08	 lea	 ecx, DWORD PTR $T4[ebp]
  0000c	ff 25 00 00 00
	00		 jmp	 DWORD PTR __imp_??1?$CStringT@DV?$StrTraitMFC_DLL@DV?$ChTraitsCRT@D@ATL@@@@@ATL@@QAE@XZ
__unwindfunclet$?SetItemCheck@CCheckComboBox@@QAEXABV?$CStringT@DV?$StrTraitMFC_DLL@DV?$ChTraitsCRT@D@ATL@@@@@ATL@@@Z$2:
  00012	8d 4d 08	 lea	 ecx, DWORD PTR $T3[ebp]
  00015	ff 25 00 00 00
	00		 jmp	 DWORD PTR __imp_??1?$CStringT@DV?$StrTraitMFC_DLL@DV?$ChTraitsCRT@D@ATL@@@@@ATL@@QAE@XZ
__unwindfunclet$?SetItemCheck@CCheckComboBox@@QAEXABV?$CStringT@DV?$StrTraitMFC_DLL@DV?$ChTraitsCRT@D@ATL@@@@@ATL@@@Z$3:
  0001b	8d 4d ec	 lea	 ecx, DWORD PTR _strItemName$2[ebp]
  0001e	ff 25 00 00 00
	00		 jmp	 DWORD PTR __imp_??1?$CStringT@DV?$StrTraitMFC_DLL@DV?$ChTraitsCRT@D@ATL@@@@@ATL@@QAE@XZ
  00024	cc		 int	 3
  00025	cc		 int	 3
  00026	cc		 int	 3
  00027	cc		 int	 3
  00028	cc		 int	 3
__ehhandler$?SetItemCheck@CCheckComboBox@@QAEXABV?$CStringT@DV?$StrTraitMFC_DLL@DV?$ChTraitsCRT@D@ATL@@@@@ATL@@@Z:
  00029	90		 npad	 1
  0002a	90		 npad	 1
  0002b	8b 54 24 08	 mov	 edx, DWORD PTR [esp+8]
  0002f	8d 42 0c	 lea	 eax, DWORD PTR [edx+12]
  00032	8b 4a e8	 mov	 ecx, DWORD PTR [edx-24]
  00035	33 c8		 xor	 ecx, eax
  00037	e8 00 00 00 00	 call	 @__security_check_cookie@4
  0003c	b8 00 00 00 00	 mov	 eax, OFFSET __ehfuncinfo$?SetItemCheck@CCheckComboBox@@QAEXABV?$CStringT@DV?$StrTraitMFC_DLL@DV?$ChTraitsCRT@D@ATL@@@@@ATL@@@Z
  00041	e9 00 00 00 00	 jmp	 ___CxxFrameHandler3
text$x	ENDS
?SetItemCheck@CCheckComboBox@@QAEXABV?$CStringT@DV?$StrTraitMFC_DLL@DV?$ChTraitsCRT@D@ATL@@@@@ATL@@@Z ENDP ; CCheckComboBox::SetItemCheck
; Function compile flags: /Ogtp
; File D:\git\src\IBK\IBK_DRFN\ProjSrc\SrcChartEx\ChartAddIn\ChartDesignPropertyAddIn\ChartDesignPropertyAddIn\CheckComboBox.cpp
; File C:\Program Files (x86)\Microsoft Visual Studio\2019\Community\VC\Tools\MSVC\14.29.30133\atlmfc\include\afxwin2.inl
; File D:\git\src\IBK\IBK_DRFN\ProjSrc\SrcChartEx\ChartAddIn\ChartDesignPropertyAddIn\ChartDesignPropertyAddIn\CheckComboBox.cpp
; File C:\Program Files (x86)\Microsoft Visual Studio\2019\Community\VC\Tools\MSVC\14.29.30133\atlmfc\include\afxwin2.inl
; File D:\git\src\IBK\IBK_DRFN\ProjSrc\SrcChartEx\ChartAddIn\ChartDesignPropertyAddIn\ChartDesignPropertyAddIn\CheckComboBox.cpp
; File C:\Program Files (x86)\Microsoft Visual Studio\2019\Community\VC\Tools\MSVC\14.29.30133\atlmfc\include\afxwin2.inl
; File D:\git\src\IBK\IBK_DRFN\ProjSrc\SrcChartEx\ChartAddIn\ChartDesignPropertyAddIn\ChartDesignPropertyAddIn\CheckComboBox.cpp
; File C:\Program Files (x86)\Microsoft Visual Studio\2019\Community\VC\Tools\MSVC\14.29.30133\atlmfc\include\afxwin2.inl
; File D:\git\src\IBK\IBK_DRFN\ProjSrc\SrcChartEx\ChartAddIn\ChartDesignPropertyAddIn\ChartDesignPropertyAddIn\CheckComboBox.cpp
; File C:\Program Files (x86)\Microsoft Visual Studio\2019\Community\VC\Tools\MSVC\14.29.30133\atlmfc\include\afxwin2.inl
; File D:\git\src\IBK\IBK_DRFN\ProjSrc\SrcChartEx\ChartAddIn\ChartDesignPropertyAddIn\ChartDesignPropertyAddIn\CheckComboBox.cpp
; File C:\Program Files (x86)\Microsoft Visual Studio\2019\Community\VC\Tools\MSVC\14.29.30133\atlmfc\include\afxwin2.inl
; File D:\git\src\IBK\IBK_DRFN\ProjSrc\SrcChartEx\ChartAddIn\ChartDesignPropertyAddIn\ChartDesignPropertyAddIn\CheckComboBox.cpp
;	COMDAT ?SelectAll@CCheckComboBox@@QAEXH@Z
_TEXT	SEGMENT
_bCheck$ = 8						; size = 4
?SelectAll@CCheckComboBox@@QAEXH@Z PROC			; CCheckComboBox::SelectAll, COMDAT
; _this$ = ecx

; 316  : {

  00000	55		 push	 ebp
  00001	8b ec		 mov	 ebp, esp
  00003	53		 push	 ebx
  00004	56		 push	 esi
  00005	57		 push	 edi
; File C:\Program Files (x86)\Microsoft Visual Studio\2019\Community\VC\Tools\MSVC\14.29.30133\atlmfc\include\afxwin2.inl

; 763  : 	{ ASSERT(::IsWindow(m_hWnd)); return (int)::SendMessage(m_hWnd, CB_GETCOUNT, 0, 0); }

  00006	6a 00		 push	 0
; File D:\git\src\IBK\IBK_DRFN\ProjSrc\SrcChartEx\ChartAddIn\ChartDesignPropertyAddIn\ChartDesignPropertyAddIn\CheckComboBox.cpp

; 316  : {

  00008	8b f1		 mov	 esi, ecx
; File C:\Program Files (x86)\Microsoft Visual Studio\2019\Community\VC\Tools\MSVC\14.29.30133\atlmfc\include\afxwin2.inl

; 763  : 	{ ASSERT(::IsWindow(m_hWnd)); return (int)::SendMessage(m_hWnd, CB_GETCOUNT, 0, 0); }

  0000a	6a 00		 push	 0
  0000c	68 46 01 00 00	 push	 326			; 00000146H
  00011	ff 76 20	 push	 DWORD PTR [esi+32]
  00014	ff 15 00 00 00
	00		 call	 DWORD PTR __imp__SendMessageA@16
; File D:\git\src\IBK\IBK_DRFN\ProjSrc\SrcChartEx\ChartAddIn\ChartDesignPropertyAddIn\ChartDesignPropertyAddIn\CheckComboBox.cpp

; 317  : 	INT nCount = GetCount();

  0001a	8b d8		 mov	 ebx, eax
; File C:\Program Files (x86)\Microsoft Visual Studio\2019\Community\VC\Tools\MSVC\14.29.30133\atlmfc\include\afxwin2.inl

; 763  : 	{ ASSERT(::IsWindow(m_hWnd)); return (int)::SendMessage(m_hWnd, CB_GETCOUNT, 0, 0); }

  0001c	33 ff		 xor	 edi, edi
; File D:\git\src\IBK\IBK_DRFN\ProjSrc\SrcChartEx\ChartAddIn\ChartDesignPropertyAddIn\ChartDesignPropertyAddIn\CheckComboBox.cpp

; 319  : 	for (INT i = 0; i < nCount; i++)

  0001e	85 db		 test	 ebx, ebx
  00020	7e 4e		 jle	 SHORT $LN3@SelectAll
$LL4@SelectAll:
; File C:\Program Files (x86)\Microsoft Visual Studio\2019\Community\VC\Tools\MSVC\14.29.30133\atlmfc\include\afxwin2.inl

; 777  : 	{ ASSERT(::IsWindow(m_hWnd)); return (int)::SendMessage(m_hWnd, CB_SETITEMDATA, nIndex, (LPARAM)dwItemData); }

  00022	8b 4d 08	 mov	 ecx, DWORD PTR _bCheck$[ebp]
  00025	33 c0		 xor	 eax, eax
  00027	85 c9		 test	 ecx, ecx
  00029	51		 push	 ecx
  0002a	0f 95 c0	 setne	 al
  0002d	57		 push	 edi
  0002e	68 51 01 00 00	 push	 337			; 00000151H
  00033	ff 76 20	 push	 DWORD PTR [esi+32]
  00036	8d 04 45 ff ff
	ff ff		 lea	 eax, DWORD PTR [eax*2-1]
  0003d	01 86 90 00 00
	00		 add	 DWORD PTR [esi+144], eax
  00043	ff 15 00 00 00
	00		 call	 DWORD PTR __imp__SendMessageA@16
; File D:\git\src\IBK\IBK_DRFN\ProjSrc\SrcChartEx\ChartAddIn\ChartDesignPropertyAddIn\ChartDesignPropertyAddIn\CheckComboBox.cpp

; 416  : 	if (nResult < 0)

  00049	85 c0		 test	 eax, eax
  0004b	78 1e		 js	 SHORT $LN2@SelectAll

; 417  : 		return nResult;
; 418  : 
; 419  : 	//sy 2003.6.3 ->     item  .
; 420  : 	ChangeItemText();

  0004d	8b ce		 mov	 ecx, esi
  0004f	e8 00 00 00 00	 call	 ?ChangeItemText@CCheckComboBox@@AAEXXZ ; CCheckComboBox::ChangeItemText
; File C:\Program Files (x86)\Microsoft Visual Studio\2019\Community\VC\Tools\MSVC\14.29.30133\atlmfc\include\afxwin2.inl

; 114  : 	{ ASSERT(::IsWindow(m_hWnd)); ::InvalidateRect(m_hWnd, NULL, bErase); }

  00054	6a 00		 push	 0
  00056	6a 00		 push	 0
  00058	ff 76 20	 push	 DWORD PTR [esi+32]
; File D:\git\src\IBK\IBK_DRFN\ProjSrc\SrcChartEx\ChartAddIn\ChartDesignPropertyAddIn\ChartDesignPropertyAddIn\CheckComboBox.cpp

; 423  : 	m_bTextUpdated = FALSE;

  0005b	c7 86 88 00 00
	00 00 00 00 00	 mov	 DWORD PTR [esi+136], 0
; File C:\Program Files (x86)\Microsoft Visual Studio\2019\Community\VC\Tools\MSVC\14.29.30133\atlmfc\include\afxwin2.inl

; 114  : 	{ ASSERT(::IsWindow(m_hWnd)); ::InvalidateRect(m_hWnd, NULL, bErase); }

  00065	ff 15 00 00 00
	00		 call	 DWORD PTR __imp__InvalidateRect@12
$LN2@SelectAll:
; File D:\git\src\IBK\IBK_DRFN\ProjSrc\SrcChartEx\ChartAddIn\ChartDesignPropertyAddIn\ChartDesignPropertyAddIn\CheckComboBox.cpp

; 319  : 	for (INT i = 0; i < nCount; i++)

  0006b	47		 inc	 edi
  0006c	3b fb		 cmp	 edi, ebx
  0006e	7c b2		 jl	 SHORT $LL4@SelectAll
$LN3@SelectAll:
  00070	5f		 pop	 edi

; 320  : 		SetCheck(i, bCheck);
; 321  : 
; 322  : }

  00071	5e		 pop	 esi
  00072	5b		 pop	 ebx
  00073	5d		 pop	 ebp
  00074	c2 04 00	 ret	 4
?SelectAll@CCheckComboBox@@QAEXH@Z ENDP			; CCheckComboBox::SelectAll
_TEXT	ENDS
; Function compile flags: /Ogtp
; File D:\git\src\IBK\IBK_DRFN\ProjSrc\SrcChartEx\ChartAddIn\ChartDesignPropertyAddIn\ChartDesignPropertyAddIn\CheckComboBox.cpp
; File C:\Program Files (x86)\Microsoft Visual Studio\2019\Community\VC\Tools\MSVC\14.29.30133\atlmfc\include\afxwin2.inl
; File D:\git\src\IBK\IBK_DRFN\ProjSrc\SrcChartEx\ChartAddIn\ChartDesignPropertyAddIn\ChartDesignPropertyAddIn\CheckComboBox.cpp
;	COMDAT ?GetCheck@CCheckComboBox@@QAEHH@Z
_TEXT	SEGMENT
_nIndex$ = 8						; size = 4
?GetCheck@CCheckComboBox@@QAEHH@Z PROC			; CCheckComboBox::GetCheck, COMDAT
; _this$ = ecx

; 432  : {

  00000	55		 push	 ebp
  00001	8b ec		 mov	 ebp, esp
; File C:\Program Files (x86)\Microsoft Visual Studio\2019\Community\VC\Tools\MSVC\14.29.30133\atlmfc\include\afxwin2.inl

; 775  : 	{ ASSERT(::IsWindow(m_hWnd)); return ::SendMessage(m_hWnd, CB_GETITEMDATA, nIndex, 0); }

  00003	6a 00		 push	 0
  00005	ff 75 08	 push	 DWORD PTR _nIndex$[ebp]
  00008	68 50 01 00 00	 push	 336			; 00000150H
  0000d	ff 71 20	 push	 DWORD PTR [ecx+32]
  00010	ff 15 00 00 00
	00		 call	 DWORD PTR __imp__SendMessageA@16
; File D:\git\src\IBK\IBK_DRFN\ProjSrc\SrcChartEx\ChartAddIn\ChartDesignPropertyAddIn\ChartDesignPropertyAddIn\CheckComboBox.cpp

; 434  : }

  00016	5d		 pop	 ebp
  00017	c2 04 00	 ret	 4
?GetCheck@CCheckComboBox@@QAEHH@Z ENDP			; CCheckComboBox::GetCheck
_TEXT	ENDS
; Function compile flags: /Ogtp
; File D:\git\src\IBK\IBK_DRFN\ProjSrc\SrcChartEx\ChartAddIn\ChartDesignPropertyAddIn\ChartDesignPropertyAddIn\CheckComboBox.cpp
; File C:\Program Files (x86)\Microsoft Visual Studio\2019\Community\VC\Tools\MSVC\14.29.30133\atlmfc\include\afxwin2.inl
; File D:\git\src\IBK\IBK_DRFN\ProjSrc\SrcChartEx\ChartAddIn\ChartDesignPropertyAddIn\ChartDesignPropertyAddIn\CheckComboBox.cpp
; File C:\Program Files (x86)\Microsoft Visual Studio\2019\Community\VC\Tools\MSVC\14.29.30133\atlmfc\include\afxwin2.inl
; File D:\git\src\IBK\IBK_DRFN\ProjSrc\SrcChartEx\ChartAddIn\ChartDesignPropertyAddIn\ChartDesignPropertyAddIn\CheckComboBox.cpp
; File C:\Program Files (x86)\Microsoft Visual Studio\2019\Community\VC\Tools\MSVC\14.29.30133\atlmfc\include\afxwin2.inl
; File D:\git\src\IBK\IBK_DRFN\ProjSrc\SrcChartEx\ChartAddIn\ChartDesignPropertyAddIn\ChartDesignPropertyAddIn\CheckComboBox.cpp
; File C:\Program Files (x86)\Microsoft Visual Studio\2019\Community\VC\Tools\MSVC\14.29.30133\atlmfc\include\afxwin2.inl
; File D:\git\src\IBK\IBK_DRFN\ProjSrc\SrcChartEx\ChartAddIn\ChartDesignPropertyAddIn\ChartDesignPropertyAddIn\CheckComboBox.cpp
; File C:\Program Files (x86)\Microsoft Visual Studio\2019\Community\VC\Tools\MSVC\14.29.30133\atlmfc\include\afxwin2.inl
; File D:\git\src\IBK\IBK_DRFN\ProjSrc\SrcChartEx\ChartAddIn\ChartDesignPropertyAddIn\ChartDesignPropertyAddIn\CheckComboBox.cpp
;	COMDAT ?SetCheck@CCheckComboBox@@QAEHHH@Z
_TEXT	SEGMENT
_nIndex$ = 8						; size = 4
_bFlag$ = 12						; size = 4
?SetCheck@CCheckComboBox@@QAEHHH@Z PROC			; CCheckComboBox::SetCheck, COMDAT
; _this$ = ecx

; 405  : {

  00000	55		 push	 ebp
  00001	8b ec		 mov	 ebp, esp
; File C:\Program Files (x86)\Microsoft Visual Studio\2019\Community\VC\Tools\MSVC\14.29.30133\atlmfc\include\afxwin2.inl

; 777  : 	{ ASSERT(::IsWindow(m_hWnd)); return (int)::SendMessage(m_hWnd, CB_SETITEMDATA, nIndex, (LPARAM)dwItemData); }

  00003	8b 55 0c	 mov	 edx, DWORD PTR _bFlag$[ebp]
  00006	33 c0		 xor	 eax, eax
; File D:\git\src\IBK\IBK_DRFN\ProjSrc\SrcChartEx\ChartAddIn\ChartDesignPropertyAddIn\ChartDesignPropertyAddIn\CheckComboBox.cpp

; 405  : {

  00008	56		 push	 esi
  00009	57		 push	 edi
; File C:\Program Files (x86)\Microsoft Visual Studio\2019\Community\VC\Tools\MSVC\14.29.30133\atlmfc\include\afxwin2.inl

; 777  : 	{ ASSERT(::IsWindow(m_hWnd)); return (int)::SendMessage(m_hWnd, CB_SETITEMDATA, nIndex, (LPARAM)dwItemData); }

  0000a	52		 push	 edx
  0000b	ff 75 08	 push	 DWORD PTR _nIndex$[ebp]
  0000e	85 d2		 test	 edx, edx
; File D:\git\src\IBK\IBK_DRFN\ProjSrc\SrcChartEx\ChartAddIn\ChartDesignPropertyAddIn\ChartDesignPropertyAddIn\CheckComboBox.cpp

; 405  : {

  00010	8b f1		 mov	 esi, ecx
; File C:\Program Files (x86)\Microsoft Visual Studio\2019\Community\VC\Tools\MSVC\14.29.30133\atlmfc\include\afxwin2.inl

; 777  : 	{ ASSERT(::IsWindow(m_hWnd)); return (int)::SendMessage(m_hWnd, CB_SETITEMDATA, nIndex, (LPARAM)dwItemData); }

  00012	68 51 01 00 00	 push	 337			; 00000151H
  00017	0f 95 c0	 setne	 al
  0001a	ff 76 20	 push	 DWORD PTR [esi+32]
  0001d	8d 04 45 ff ff
	ff ff		 lea	 eax, DWORD PTR [eax*2-1]
  00024	01 86 90 00 00
	00		 add	 DWORD PTR [esi+144], eax
  0002a	ff 15 00 00 00
	00		 call	 DWORD PTR __imp__SendMessageA@16
; File D:\git\src\IBK\IBK_DRFN\ProjSrc\SrcChartEx\ChartAddIn\ChartDesignPropertyAddIn\ChartDesignPropertyAddIn\CheckComboBox.cpp

; 414  : 	INT nResult = SetItemData(nIndex, bFlag);

  00030	8b f8		 mov	 edi, eax

; 415  : 
; 416  : 	if (nResult < 0)

  00032	85 ff		 test	 edi, edi
  00034	78 20		 js	 SHORT $LN1@SetCheck

; 417  : 		return nResult;
; 418  : 
; 419  : 	//sy 2003.6.3 ->     item  .
; 420  : 	ChangeItemText();

  00036	8b ce		 mov	 ecx, esi
  00038	e8 00 00 00 00	 call	 ?ChangeItemText@CCheckComboBox@@AAEXXZ ; CCheckComboBox::ChangeItemText
; File C:\Program Files (x86)\Microsoft Visual Studio\2019\Community\VC\Tools\MSVC\14.29.30133\atlmfc\include\afxwin2.inl

; 114  : 	{ ASSERT(::IsWindow(m_hWnd)); ::InvalidateRect(m_hWnd, NULL, bErase); }

  0003d	6a 00		 push	 0
  0003f	6a 00		 push	 0
  00041	ff 76 20	 push	 DWORD PTR [esi+32]
; File D:\git\src\IBK\IBK_DRFN\ProjSrc\SrcChartEx\ChartAddIn\ChartDesignPropertyAddIn\ChartDesignPropertyAddIn\CheckComboBox.cpp

; 423  : 	m_bTextUpdated = FALSE;

  00044	c7 86 88 00 00
	00 00 00 00 00	 mov	 DWORD PTR [esi+136], 0
; File C:\Program Files (x86)\Microsoft Visual Studio\2019\Community\VC\Tools\MSVC\14.29.30133\atlmfc\include\afxwin2.inl

; 114  : 	{ ASSERT(::IsWindow(m_hWnd)); ::InvalidateRect(m_hWnd, NULL, bErase); }

  0004e	ff 15 00 00 00
	00		 call	 DWORD PTR __imp__InvalidateRect@12
; File D:\git\src\IBK\IBK_DRFN\ProjSrc\SrcChartEx\ChartAddIn\ChartDesignPropertyAddIn\ChartDesignPropertyAddIn\CheckComboBox.cpp

; 428  : 	return nResult;

  00054	8b c7		 mov	 eax, edi
$LN1@SetCheck:

; 429  : }

  00056	5f		 pop	 edi
  00057	5e		 pop	 esi
  00058	5d		 pop	 ebp
  00059	c2 08 00	 ret	 8
?SetCheck@CCheckComboBox@@QAEHHH@Z ENDP			; CCheckComboBox::SetCheck
_TEXT	ENDS
; Function compile flags: /Ogtp
; File D:\git\src\IBK\IBK_DRFN\ProjSrc\SrcChartEx\ChartAddIn\ChartDesignPropertyAddIn\ChartDesignPropertyAddIn\CheckComboBox.cpp
;	COMDAT ?Create@CCheckComboBox@@UAEHKABUtagRECT@@PAVCWnd@@I@Z
_TEXT	SEGMENT
_dwStyle$ = 8						; size = 4
_rect$ = 12						; size = 4
_pParentWnd$ = 16					; size = 4
_nID$ = 20						; size = 4
?Create@CCheckComboBox@@UAEHKABUtagRECT@@PAVCWnd@@I@Z PROC ; CCheckComboBox::Create, COMDAT
; _this$ = ecx

; 161  : {

  00000	55		 push	 ebp
  00001	8b ec		 mov	 ebp, esp

; 162  : 
; 163  : 	// Remove the CBS_SIMPLE and CBS_DROPDOWN styles and add the one I'm designed for
; 164  : 	dwStyle &= ~0xF;

  00003	8b 45 08	 mov	 eax, DWORD PTR _dwStyle$[ebp]
  00006	83 e0 f3	 and	 eax, -13		; fffffff3H

; 165  : 	dwStyle |= CBS_DROPDOWNLIST;
; 166  : 
; 167  : 	// Make sure to use the CBS_OWNERDRAWVARIABLE style
; 168  : 	dwStyle |= CBS_OWNERDRAWVARIABLE;
; 169  : 
; 170  : 	// Use default strings. We need the itemdata to store checkmarks
; 171  : 	dwStyle |= CBS_HASSTRINGS;

  00009	0d 23 02 00 00	 or	 eax, 547		; 00000223H

; 172  : 
; 173  : 	return CComboBox::Create(dwStyle, rect, pParentWnd, nID);

  0000e	89 45 08	 mov	 DWORD PTR _dwStyle$[ebp], eax

; 174  : }

  00011	5d		 pop	 ebp

; 172  : 
; 173  : 	return CComboBox::Create(dwStyle, rect, pParentWnd, nID);

  00012	e9 00 00 00 00	 jmp	 ?Create@CComboBox@@UAEHKABUtagRECT@@PAVCWnd@@I@Z ; CComboBox::Create
?Create@CCheckComboBox@@UAEHKABUtagRECT@@PAVCWnd@@I@Z ENDP ; CCheckComboBox::Create
_TEXT	ENDS
; Function compile flags: /Ogtp
; File D:\git\src\IBK\IBK_DRFN\ProjSrc\SrcChartEx\ChartAddIn\ChartDesignPropertyAddIn\ChartDesignPropertyAddIn\CheckComboBox.cpp
;	COMDAT ??1CCheckComboBox@@UAE@XZ
_TEXT	SEGMENT
??1CCheckComboBox@@UAE@XZ PROC				; CCheckComboBox::~CCheckComboBox, COMDAT
; _this$ = ecx

; 156  : {

  00000	56		 push	 esi
  00001	8b f1		 mov	 esi, ecx

; 157  : }

  00003	8d 8e 84 00 00
	00		 lea	 ecx, DWORD PTR [esi+132]
  00009	c7 06 00 00 00
	00		 mov	 DWORD PTR [esi], OFFSET ??_7CCheckComboBox@@6B@
  0000f	ff 15 00 00 00
	00		 call	 DWORD PTR __imp_??1?$CStringT@DV?$StrTraitMFC_DLL@DV?$ChTraitsCRT@D@ATL@@@@@ATL@@QAE@XZ
  00015	8b ce		 mov	 ecx, esi
  00017	5e		 pop	 esi
  00018	e9 00 00 00 00	 jmp	 ??1CComboBox@@UAE@XZ	; CComboBox::~CComboBox
??1CCheckComboBox@@UAE@XZ ENDP				; CCheckComboBox::~CCheckComboBox
_TEXT	ENDS
; Function compile flags: /Ogtp
; File D:\git\src\IBK\IBK_DRFN\ProjSrc\SrcChartEx\ChartAddIn\ChartDesignPropertyAddIn\ChartDesignPropertyAddIn\CheckComboBox.cpp
; File C:\Program Files (x86)\Microsoft Visual Studio\2019\Community\VC\Tools\MSVC\14.29.30133\atlmfc\include\afxwin2.inl
; File D:\git\src\IBK\IBK_DRFN\ProjSrc\SrcChartEx\ChartAddIn\ChartDesignPropertyAddIn\ChartDesignPropertyAddIn\CheckComboBox.cpp
;	COMDAT ??0CCheckComboBox@@QAE@XZ
_TEXT	SEGMENT
_this$ = -4						; size = 4
??0CCheckComboBox@@QAE@XZ PROC				; CCheckComboBox::CCheckComboBox, COMDAT
; _this$ = ecx

; 147  : {

  00000	55		 push	 ebp
  00001	8b ec		 mov	 ebp, esp
  00003	51		 push	 ecx
  00004	56		 push	 esi
  00005	8b f1		 mov	 esi, ecx
  00007	89 75 fc	 mov	 DWORD PTR _this$[ebp], esi
; File C:\Program Files (x86)\Microsoft Visual Studio\2019\Community\VC\Tools\MSVC\14.29.30133\atlmfc\include\afxwin2.inl

; 761  : 	{ }

  0000a	e8 00 00 00 00	 call	 ??0CWnd@@QAE@XZ		; CWnd::CWnd
; File D:\git\src\IBK\IBK_DRFN\ProjSrc\SrcChartEx\ChartAddIn\ChartDesignPropertyAddIn\ChartDesignPropertyAddIn\CheckComboBox.cpp

; 147  : {

  0000f	8d 8e 84 00 00
	00		 lea	 ecx, DWORD PTR [esi+132]
  00015	c7 06 00 00 00
	00		 mov	 DWORD PTR [esi], OFFSET ??_7CCheckComboBox@@6B@
  0001b	ff 15 00 00 00
	00		 call	 DWORD PTR __imp_??0?$CStringT@DV?$StrTraitMFC_DLL@DV?$ChTraitsCRT@D@ATL@@@@@ATL@@QAE@XZ

; 148  : 	m_hListBox       = 0;

  00021	c7 86 80 00 00
	00 00 00 00 00	 mov	 DWORD PTR [esi+128], 0

; 149  : 	m_bTextUpdated   = FALSE;
; 150  : 	m_bItemHeightSet = FALSE;
; 151  : 	m_nCheckedCount  = 0;
; 152  : }

  0002b	8b c6		 mov	 eax, esi
  0002d	c7 86 88 00 00
	00 00 00 00 00	 mov	 DWORD PTR [esi+136], 0
  00037	c7 86 8c 00 00
	00 00 00 00 00	 mov	 DWORD PTR [esi+140], 0
  00041	c7 86 90 00 00
	00 00 00 00 00	 mov	 DWORD PTR [esi+144], 0
  0004b	5e		 pop	 esi
  0004c	8b e5		 mov	 esp, ebp
  0004e	5d		 pop	 ebp
  0004f	c3		 ret	 0
??0CCheckComboBox@@QAE@XZ ENDP				; CCheckComboBox::CCheckComboBox
_TEXT	ENDS
; Function compile flags: /Ogtp
; File D:\git\src\IBK\IBK_DRFN\ProjSrc\SrcChartEx\ChartAddIn\ChartDesignPropertyAddIn\ChartDesignPropertyAddIn\CheckComboBox.cpp
;	COMDAT ?GetCurState@CCheckComboBox@@QAE_NXZ
_TEXT	SEGMENT
?GetCurState@CCheckComboBox@@QAE_NXZ PROC		; CCheckComboBox::GetCurState, COMDAT
; _this$ = ecx

; 443  : 	if(!m_nCheckedCount)

  00000	83 b9 90 00 00
	00 00		 cmp	 DWORD PTR [ecx+144], 0
  00007	0f 95 c0	 setne	 al

; 444  : 		return false;
; 445  : 	else
; 446  : 		return true;
; 447  : 	return false;
; 448  : }

  0000a	c3		 ret	 0
?GetCurState@CCheckComboBox@@QAE_NXZ ENDP		; CCheckComboBox::GetCurState
_TEXT	ENDS
; Function compile flags: /Ogtp
; File C:\Program Files (x86)\Microsoft Visual Studio\2019\Community\VC\Tools\MSVC\14.29.30133\atlmfc\include\afx.inl
;	COMDAT ??_GCComboBox@@UAEPAXI@Z
_TEXT	SEGMENT
___flags$ = 8						; size = 4
??_GCComboBox@@UAEPAXI@Z PROC				; CComboBox::`scalar deleting destructor', COMDAT
; _this$ = ecx
  00000	55		 push	 ebp
  00001	8b ec		 mov	 ebp, esp
  00003	56		 push	 esi
  00004	8b f1		 mov	 esi, ecx
  00006	e8 00 00 00 00	 call	 ??1CComboBox@@UAE@XZ	; CComboBox::~CComboBox
  0000b	8b 45 08	 mov	 eax, DWORD PTR ___flags$[ebp]
  0000e	a8 01		 test	 al, 1
  00010	74 22		 je	 SHORT $LN9@scalar
  00012	a8 04		 test	 al, 4
  00014	75 10		 jne	 SHORT $LN3@scalar

; 112  : 	{ ::operator delete(p); }

  00016	56		 push	 esi
  00017	e8 00 00 00 00	 call	 ??3@YAXPAX@Z		; operator delete
  0001c	83 c4 04	 add	 esp, 4
  0001f	8b c6		 mov	 eax, esi
  00021	5e		 pop	 esi
  00022	5d		 pop	 ebp
  00023	c2 04 00	 ret	 4
$LN3@scalar:
  00026	68 80 00 00 00	 push	 128			; 00000080H
  0002b	56		 push	 esi
  0002c	e8 00 00 00 00	 call	 ?__global_delete@@YAXPAXI@Z ; __global_delete
  00031	83 c4 08	 add	 esp, 8
$LN9@scalar:
  00034	8b c6		 mov	 eax, esi
  00036	5e		 pop	 esi
  00037	5d		 pop	 ebp
  00038	c2 04 00	 ret	 4
??_GCComboBox@@UAEPAXI@Z ENDP				; CComboBox::`scalar deleting destructor'
_TEXT	ENDS
; Function compile flags: /Ogtp
; File C:\Program Files (x86)\Microsoft Visual Studio\2019\Community\VC\Tools\MSVC\14.29.30133\atlmfc\include\afxwin2.inl
;	COMDAT ?EndModalState@CWnd@@UAEXXZ
_TEXT	SEGMENT
?EndModalState@CWnd@@UAEXXZ PROC			; CWnd::EndModalState, COMDAT
; _this$ = ecx

; 567  : 	{ ::EnableWindow(m_hWnd, TRUE); }

  00000	6a 01		 push	 1
  00002	ff 71 20	 push	 DWORD PTR [ecx+32]
  00005	ff 15 00 00 00
	00		 call	 DWORD PTR __imp__EnableWindow@8
  0000b	c3		 ret	 0
?EndModalState@CWnd@@UAEXXZ ENDP			; CWnd::EndModalState
_TEXT	ENDS
; Function compile flags: /Ogtp
; File C:\Program Files (x86)\Microsoft Visual Studio\2019\Community\VC\Tools\MSVC\14.29.30133\atlmfc\include\afxwin2.inl
;	COMDAT ?BeginModalState@CWnd@@UAEXXZ
_TEXT	SEGMENT
?BeginModalState@CWnd@@UAEXXZ PROC			; CWnd::BeginModalState, COMDAT
; _this$ = ecx

; 565  : 	{ ::EnableWindow(m_hWnd, FALSE); }

  00000	6a 00		 push	 0
  00002	ff 71 20	 push	 DWORD PTR [ecx+32]
  00005	ff 15 00 00 00
	00		 call	 DWORD PTR __imp__EnableWindow@8
  0000b	c3		 ret	 0
?BeginModalState@CWnd@@UAEXXZ ENDP			; CWnd::BeginModalState
_TEXT	ENDS
; Function compile flags: /Ogtp
; File C:\Program Files (x86)\Microsoft Visual Studio\2019\Community\VC\Tools\MSVC\14.29.30133\atlmfc\include\afxwin2.inl
;	COMDAT ?DoDataExchange@CWnd@@MAEXPAVCDataExchange@@@Z
_TEXT	SEGMENT
___formal$ = 8						; size = 4
?DoDataExchange@CWnd@@MAEXPAVCDataExchange@@@Z PROC	; CWnd::DoDataExchange, COMDAT
; _this$ = ecx

; 561  : 	{ } // default does nothing

  00000	c2 04 00	 ret	 4
?DoDataExchange@CWnd@@MAEXPAVCDataExchange@@@Z ENDP	; CWnd::DoDataExchange
_TEXT	ENDS
; Function compile flags: /Ogtp
; File C:\Program Files (x86)\Microsoft Visual Studio\2019\Community\VC\Tools\MSVC\14.29.30133\atlmfc\include\cstringt.h
; File C:\Program Files (x86)\Microsoft Visual Studio\2019\Community\VC\Tools\MSVC\14.29.30133\atlmfc\include\atlsimpstr.h
; File C:\Program Files (x86)\Microsoft Visual Studio\2019\Community\VC\Tools\MSVC\14.29.30133\atlmfc\include\cstringt.h
;	COMDAT ??HATL@@YA?AV?$CStringT@DV?$StrTraitMFC_DLL@DV?$ChTraitsCRT@D@ATL@@@@@0@ABV10@D@Z
_TEXT	SEGMENT
$T2 = -16						; size = 4
__$EHRec$ = -12						; size = 12
___$ReturnUdt$ = 8					; size = 4
_str1$ = 12						; size = 4
_chTemp$ = 15						; size = 1
_ch2$ = 16						; size = 1
??HATL@@YA?AV?$CStringT@DV?$StrTraitMFC_DLL@DV?$ChTraitsCRT@D@ATL@@@@@0@ABV10@D@Z PROC ; ATL::operator+, COMDAT

; 2428 : 	{

  00000	55		 push	 ebp
  00001	8b ec		 mov	 ebp, esp
  00003	6a ff		 push	 -1
  00005	68 00 00 00 00	 push	 __ehhandler$??HATL@@YA?AV?$CStringT@DV?$StrTraitMFC_DLL@DV?$ChTraitsCRT@D@ATL@@@@@0@ABV10@D@Z
  0000a	64 a1 00 00 00
	00		 mov	 eax, DWORD PTR fs:0
  00010	50		 push	 eax
  00011	51		 push	 ecx
  00012	56		 push	 esi
  00013	57		 push	 edi
  00014	a1 00 00 00 00	 mov	 eax, DWORD PTR ___security_cookie
  00019	33 c5		 xor	 eax, ebp
  0001b	50		 push	 eax
  0001c	8d 45 f4	 lea	 eax, DWORD PTR __$EHRec$[ebp]
  0001f	64 a3 00 00 00
	00		 mov	 DWORD PTR fs:0, eax
  00025	c7 45 f0 00 00
	00 00		 mov	 DWORD PTR $T2[ebp], 0

; 2429 : 		CStringT strResult( str1.GetManager() );

  0002c	8b 75 0c	 mov	 esi, DWORD PTR _str1$[ebp]
  0002f	8b ce		 mov	 ecx, esi
  00031	ff 15 00 00 00
	00		 call	 DWORD PTR __imp_?GetManager@?$CStringT@DV?$StrTraitMFC_DLL@DV?$ChTraitsCRT@D@ATL@@@@@ATL@@QBEPAUIAtlStringMgr@2@XZ
  00037	8b 7d 08	 mov	 edi, DWORD PTR ___$ReturnUdt$[ebp]
  0003a	8b cf		 mov	 ecx, edi
  0003c	50		 push	 eax
  0003d	ff 15 00 00 00
	00		 call	 DWORD PTR __imp_??0?$CStringT@DV?$StrTraitMFC_DLL@DV?$ChTraitsCRT@D@ATL@@@@@ATL@@QAE@PAUIAtlStringMgr@1@@Z

; 2433 : 
; 2434 : 		return( strResult );

  00043	8a 45 10	 mov	 al, BYTE PTR _ch2$[ebp]
; File C:\Program Files (x86)\Microsoft Visual Studio\2019\Community\VC\Tools\MSVC\14.29.30133\atlmfc\include\atlsimpstr.h

; 519  : 		return( GetData()->nDataLength );

  00046	8b 0e		 mov	 ecx, DWORD PTR [esi]
; File C:\Program Files (x86)\Microsoft Visual Studio\2019\Community\VC\Tools\MSVC\14.29.30133\atlmfc\include\cstringt.h

; 2430 : 		XCHAR chTemp = XCHAR( ch2 );

  00048	88 45 0f	 mov	 BYTE PTR _chTemp$[ebp], al

; 2431 : 
; 2432 : 		CThisSimpleString::Concatenate( strResult, str1, str1.GetLength(), &chTemp, 1 );

  0004b	8d 45 0f	 lea	 eax, DWORD PTR _chTemp$[ebp]
  0004e	6a 01		 push	 1
  00050	50		 push	 eax
  00051	ff 71 f4	 push	 DWORD PTR [ecx-12]

; 2433 : 
; 2434 : 		return( strResult );

  00054	c7 45 fc 00 00
	00 00		 mov	 DWORD PTR __$EHRec$[ebp+8], 0
  0005b	51		 push	 ecx
  0005c	57		 push	 edi
  0005d	c7 45 f0 01 00
	00 00		 mov	 DWORD PTR $T2[ebp], 1
  00064	ff 15 00 00 00
	00		 call	 DWORD PTR __imp_?Concatenate@?$CSimpleStringT@D$00@ATL@@KAXAAV12@PBDH1H@Z
  0006a	83 c4 14	 add	 esp, 20			; 00000014H
  0006d	8b c7		 mov	 eax, edi

; 2435 : 	}

  0006f	8b 4d f4	 mov	 ecx, DWORD PTR __$EHRec$[ebp]
  00072	64 89 0d 00 00
	00 00		 mov	 DWORD PTR fs:0, ecx
  00079	59		 pop	 ecx
  0007a	5f		 pop	 edi
  0007b	5e		 pop	 esi
  0007c	8b e5		 mov	 esp, ebp
  0007e	5d		 pop	 ebp
  0007f	c3		 ret	 0
_TEXT	ENDS
;	COMDAT text$x
text$x	SEGMENT
__unwindfunclet$??HATL@@YA?AV?$CStringT@DV?$StrTraitMFC_DLL@DV?$ChTraitsCRT@D@ATL@@@@@0@ABV10@D@Z$0:
  00000	8b 45 f0	 mov	 eax, DWORD PTR $T2[ebp]
  00003	83 e0 01	 and	 eax, 1
  00006	0f 84 0d 00 00
	00		 je	 $LN4@operator
  0000c	83 65 f0 fe	 and	 DWORD PTR $T2[ebp], -2	; fffffffeH
  00010	8b 4d 08	 mov	 ecx, DWORD PTR ___$ReturnUdt$[ebp]
  00013	ff 25 00 00 00
	00		 jmp	 DWORD PTR __imp_??1?$CStringT@DV?$StrTraitMFC_DLL@DV?$ChTraitsCRT@D@ATL@@@@@ATL@@QAE@XZ
$LN4@operator:
  00019	c3		 ret	 0
  0001a	cc		 int	 3
  0001b	cc		 int	 3
  0001c	cc		 int	 3
  0001d	cc		 int	 3
  0001e	cc		 int	 3
__ehhandler$??HATL@@YA?AV?$CStringT@DV?$StrTraitMFC_DLL@DV?$ChTraitsCRT@D@ATL@@@@@0@ABV10@D@Z:
  0001f	90		 npad	 1
  00020	90		 npad	 1
  00021	8b 54 24 08	 mov	 edx, DWORD PTR [esp+8]
  00025	8d 42 0c	 lea	 eax, DWORD PTR [edx+12]
  00028	8b 4a f0	 mov	 ecx, DWORD PTR [edx-16]
  0002b	33 c8		 xor	 ecx, eax
  0002d	e8 00 00 00 00	 call	 @__security_check_cookie@4
  00032	b8 00 00 00 00	 mov	 eax, OFFSET __ehfuncinfo$??HATL@@YA?AV?$CStringT@DV?$StrTraitMFC_DLL@DV?$ChTraitsCRT@D@ATL@@@@@0@ABV10@D@Z
  00037	e9 00 00 00 00	 jmp	 ___CxxFrameHandler3
text$x	ENDS
??HATL@@YA?AV?$CStringT@DV?$StrTraitMFC_DLL@DV?$ChTraitsCRT@D@ATL@@@@@0@ABV10@D@Z ENDP ; ATL::operator+
; Function compile flags: /Ogtp
; File C:\Program Files (x86)\Microsoft Visual Studio\2019\Community\VC\Tools\MSVC\14.29.30133\atlmfc\include\afx.inl
;	COMDAT ?Dump@CObject@@UBEXAAVCDumpContext@@@Z
_TEXT	SEGMENT
___formal$ = 8						; size = 4
?Dump@CObject@@UBEXAAVCDumpContext@@@Z PROC		; CObject::Dump, COMDAT
; _this$ = ecx

; 122  : 	{ /* no dumping in release builds */ }

  00000	c2 04 00	 ret	 4
?Dump@CObject@@UBEXAAVCDumpContext@@@Z ENDP		; CObject::Dump
_TEXT	ENDS
; Function compile flags: /Ogtp
; File C:\Program Files (x86)\Microsoft Visual Studio\2019\Community\VC\Tools\MSVC\14.29.30133\atlmfc\include\afx.inl
;	COMDAT ?AssertValid@CObject@@UBEXXZ
_TEXT	SEGMENT
?AssertValid@CObject@@UBEXXZ PROC			; CObject::AssertValid, COMDAT
; _this$ = ecx

; 120  : 	{ /* no asserts in release builds */ }

  00000	c2 00 00	 ret	 0
?AssertValid@CObject@@UBEXXZ ENDP			; CObject::AssertValid
_TEXT	ENDS
; Function compile flags: /Ogtp
; File C:\Program Files (x86)\Microsoft Visual Studio\2019\Community\VC\Tools\MSVC\14.29.30133\atlmfc\include\afx.inl
;	COMDAT ?Serialize@CObject@@UAEXAAVCArchive@@@Z
_TEXT	SEGMENT
___formal$ = 8						; size = 4
?Serialize@CObject@@UAEXAAVCArchive@@@Z PROC		; CObject::Serialize, COMDAT
; _this$ = ecx

; 106  : 	{ /* CObject does not serialize anything by default */ }

  00000	c2 04 00	 ret	 4
?Serialize@CObject@@UAEXAAVCArchive@@@Z ENDP		; CObject::Serialize
_TEXT	ENDS
; Function compile flags: /Ogtp
; File D:\git\src\IBK\IBK_DRFN\ProjSrc\SrcChartEx\ChartAddIn\ChartDesignPropertyAddIn\ChartDesignPropertyAddIn\CheckComboBox.cpp
;	COMDAT ?__empty_global_delete@@YAXPAXI@Z
_TEXT	SEGMENT
___formal$ = 8						; size = 4
___formal$ = 12						; size = 4
?__empty_global_delete@@YAXPAXI@Z PROC			; __empty_global_delete, COMDAT

  00000	c2 00 00	 ret	 0
?__empty_global_delete@@YAXPAXI@Z ENDP			; __empty_global_delete
_TEXT	ENDS
; Function compile flags: /Ogtp
; File D:\git\src\IBK\IBK_DRFN\ProjSrc\SrcChartEx\ChartAddIn\ChartDesignPropertyAddIn\ChartDesignPropertyAddIn\CheckComboBox.cpp
;	COMDAT ?__empty_global_delete@@YAXPAX@Z
_TEXT	SEGMENT
___formal$ = 8						; size = 4
?__empty_global_delete@@YAXPAX@Z PROC			; __empty_global_delete, COMDAT

  00000	c2 00 00	 ret	 0
?__empty_global_delete@@YAXPAX@Z ENDP			; __empty_global_delete
_TEXT	ENDS
END
